; Listing generated by Microsoft (R) Optimizing Compiler Version 16.00.30319.01 

	TITLE	D:\Lost Saga For Developer\Youtube\Tutorial\Source\src\LSClient\Channeling\ioChannelingNodeManager.cpp
	.686P
	.XMM
	include listing.inc
	.model	flat

INCLUDELIB MSVCRT
INCLUDELIB OLDNAMES

PUBLIC	?ms_Singleton@?$Singleton@VioChannelingNodeManager@@@@1PAVioChannelingNodeManager@@A ; Singleton<ioChannelingNodeManager>::ms_Singleton
;	COMDAT ?ms_Singleton@?$Singleton@VioChannelingNodeManager@@@@1PAVioChannelingNodeManager@@A
_BSS	SEGMENT
?ms_Singleton@?$Singleton@VioChannelingNodeManager@@@@1PAVioChannelingNodeManager@@A DD 01H DUP (?) ; Singleton<ioChannelingNodeManager>::ms_Singleton
_BSS	ENDS
PUBLIC	??_C@_0BF@KLEJKOHP@?$CFs?5Type?5is?5wrong?4?5?$CFd?$AA@ ; `string'
PUBLIC	??_C@_0CE@FCEHMFLA@ioChannelingNodeManager?3?3CreateN@ ; `string'
PUBLIC	?CreateNode@ioChannelingNodeManager@@IAEPAVioChannelingNodeParent@@W4ChannelingType@@@Z ; ioChannelingNodeManager::CreateNode
EXTRN	??3@YAXPAX@Z:PROC				; operator delete
EXTRN	__imp_?PrintTimeAndLog@CLog@@QAAXHPADZZ:PROC
EXTRN	__imp_?LOG@@3VCLog@@A:BYTE
EXTRN	??0ioChannelingNodeHanGame@@QAE@XZ:PROC		; ioChannelingNodeHanGame::ioChannelingNodeHanGame
EXTRN	??0ioChannelingNodeNexon@@QAE@XZ:PROC		; ioChannelingNodeNexon::ioChannelingNodeNexon
EXTRN	??0ioChannelingNodeTooniland@@QAE@XZ:PROC	; ioChannelingNodeTooniland::ioChannelingNodeTooniland
EXTRN	??0ioChannelingNodeNaver@@QAE@XZ:PROC		; ioChannelingNodeNaver::ioChannelingNodeNaver
EXTRN	??0ioChannelingNodeDaum@@QAE@XZ:PROC		; ioChannelingNodeDaum::ioChannelingNodeDaum
EXTRN	??0ioChannelingNodeMgame@@QAE@XZ:PROC		; ioChannelingNodeMgame::ioChannelingNodeMgame
EXTRN	??0ioChannelingNodeWemadeBuy@@QAE@XZ:PROC	; ioChannelingNodeWemadeBuy::ioChannelingNodeWemadeBuy
EXTRN	??2@YAPAXI@Z:PROC				; operator new
EXTRN	___CxxFrameHandler3:PROC
EXTRN	@__security_check_cookie@4:PROC
EXTRN	__EH_epilog3:PROC
EXTRN	__EH_prolog3:PROC
;	COMDAT ??_C@_0BF@KLEJKOHP@?$CFs?5Type?5is?5wrong?4?5?$CFd?$AA@
; File d:\lost saga for developer\youtube\tutorial\source\src\lsclient\channeling\iochannelingnodemanager.cpp
CONST	SEGMENT
??_C@_0BF@KLEJKOHP@?$CFs?5Type?5is?5wrong?4?5?$CFd?$AA@ DB '%s Type is wr'
	DB	'ong. %d', 00H				; `string'
CONST	ENDS
;	COMDAT ??_C@_0CE@FCEHMFLA@ioChannelingNodeManager?3?3CreateN@
CONST	SEGMENT
??_C@_0CE@FCEHMFLA@ioChannelingNodeManager?3?3CreateN@ DB 'ioChannelingNo'
	DB	'deManager::CreateNode', 00H			; `string'
CONST	ENDS
;	COMDAT xdata$x
xdata$x	SEGMENT
__ehfuncinfo$?CreateNode@ioChannelingNodeManager@@IAEPAVioChannelingNodeParent@@W4ChannelingType@@@Z DD 019930522H
	DD	07H
	DD	FLAT:__unwindtable$?CreateNode@ioChannelingNodeManager@@IAEPAVioChannelingNodeParent@@W4ChannelingType@@@Z
	DD	2 DUP(00H)
	DD	2 DUP(00H)
	DD	00H
	DD	01H
__unwindtable$?CreateNode@ioChannelingNodeManager@@IAEPAVioChannelingNodeParent@@W4ChannelingType@@@Z DD 0ffffffffH
	DD	FLAT:__unwindfunclet$?CreateNode@ioChannelingNodeManager@@IAEPAVioChannelingNodeParent@@W4ChannelingType@@@Z$0
	DD	0ffffffffH
	DD	FLAT:__unwindfunclet$?CreateNode@ioChannelingNodeManager@@IAEPAVioChannelingNodeParent@@W4ChannelingType@@@Z$1
	DD	0ffffffffH
	DD	FLAT:__unwindfunclet$?CreateNode@ioChannelingNodeManager@@IAEPAVioChannelingNodeParent@@W4ChannelingType@@@Z$2
	DD	0ffffffffH
	DD	FLAT:__unwindfunclet$?CreateNode@ioChannelingNodeManager@@IAEPAVioChannelingNodeParent@@W4ChannelingType@@@Z$3
	DD	0ffffffffH
	DD	FLAT:__unwindfunclet$?CreateNode@ioChannelingNodeManager@@IAEPAVioChannelingNodeParent@@W4ChannelingType@@@Z$4
	DD	0ffffffffH
	DD	FLAT:__unwindfunclet$?CreateNode@ioChannelingNodeManager@@IAEPAVioChannelingNodeParent@@W4ChannelingType@@@Z$5
	DD	0ffffffffH
	DD	FLAT:__unwindfunclet$?CreateNode@ioChannelingNodeManager@@IAEPAVioChannelingNodeParent@@W4ChannelingType@@@Z$6
; Function compile flags: /Ogsp
xdata$x	ENDS
;	COMDAT ?CreateNode@ioChannelingNodeManager@@IAEPAVioChannelingNodeParent@@W4ChannelingType@@@Z
_TEXT	SEGMENT
__$EHRec$ = -12						; size = 12
$T506758 = 8						; size = 4
$T506754 = 8						; size = 4
$T506750 = 8						; size = 4
$T506746 = 8						; size = 4
$T506742 = 8						; size = 4
$T506738 = 8						; size = 4
$T506734 = 8						; size = 4
_eChannelingType$ = 8					; size = 4
?CreateNode@ioChannelingNodeManager@@IAEPAVioChannelingNodeParent@@W4ChannelingType@@@Z PROC ; ioChannelingNodeManager::CreateNode, COMDAT
; _this$ = ecx

; 52   : {

  00000	6a 00		 push	 0
  00002	b8 00 00 00 00	 mov	 eax, __ehhandler$?CreateNode@ioChannelingNodeManager@@IAEPAVioChannelingNodeParent@@W4ChannelingType@@@Z
  00007	e8 00 00 00 00	 call	 __EH_prolog3

; 53   : 	ioChannelingNodeParent *pNode = NULL;
; 54   : 	if( eChannelingType == CNT_WEMADEBUY )

  0000c	8b 45 08	 mov	 eax, DWORD PTR _eChannelingType$[ebp]
  0000f	33 f6		 xor	 esi, esi
  00011	85 c0		 test	 eax, eax
  00013	75 22		 jne	 SHORT $LN14@CreateNode

; 55   : 		pNode = new ioChannelingNodeWemadeBuy;

  00015	6a 04		 push	 4
  00017	e8 00 00 00 00	 call	 ??2@YAPAXI@Z		; operator new
  0001c	59		 pop	 ecx
  0001d	8b c8		 mov	 ecx, eax
  0001f	89 4d 08	 mov	 DWORD PTR $T506734[ebp], ecx
  00022	21 75 fc	 and	 DWORD PTR __$EHRec$[ebp+8], esi
  00025	85 c9		 test	 ecx, ecx
  00027	0f 84 fa 00 00
	00		 je	 $LN29@CreateNode
  0002d	e8 00 00 00 00	 call	 ??0ioChannelingNodeWemadeBuy@@QAE@XZ ; ioChannelingNodeWemadeBuy::ioChannelingNodeWemadeBuy
  00032	e9 f2 00 00 00	 jmp	 $LN30@CreateNode
$LN14@CreateNode:

; 56   : #ifdef STEAM_ATTACH
; 57   : 	else if( eChannelingType == CNT_STEAM )
; 58   : 		pNode = new ioChannelingNodeSteam;
; 59   : #endif
; 60   : 	else if( eChannelingType == CNT_MGAME )

  00037	3d 2c 01 00 00	 cmp	 eax, 300		; 0000012cH
  0003c	75 26		 jne	 SHORT $LN12@CreateNode

; 61   : 		pNode = new ioChannelingNodeMgame;

  0003e	6a 14		 push	 20			; 00000014H
  00040	e8 00 00 00 00	 call	 ??2@YAPAXI@Z		; operator new
  00045	59		 pop	 ecx
  00046	8b c8		 mov	 ecx, eax
  00048	89 4d 08	 mov	 DWORD PTR $T506738[ebp], ecx
  0004b	c7 45 fc 01 00
	00 00		 mov	 DWORD PTR __$EHRec$[ebp+8], 1
  00052	85 c9		 test	 ecx, ecx
  00054	0f 84 cd 00 00
	00		 je	 $LN29@CreateNode
  0005a	e8 00 00 00 00	 call	 ??0ioChannelingNodeMgame@@QAE@XZ ; ioChannelingNodeMgame::ioChannelingNodeMgame
  0005f	e9 c5 00 00 00	 jmp	 $LN30@CreateNode
$LN12@CreateNode:

; 62   : 	else if( eChannelingType == CNT_DAUM )

  00064	3d 90 01 00 00	 cmp	 eax, 400		; 00000190H
  00069	75 26		 jne	 SHORT $LN10@CreateNode

; 63   : 		pNode = new ioChannelingNodeDaum;

  0006b	6a 04		 push	 4
  0006d	e8 00 00 00 00	 call	 ??2@YAPAXI@Z		; operator new
  00072	59		 pop	 ecx
  00073	8b c8		 mov	 ecx, eax
  00075	89 4d 08	 mov	 DWORD PTR $T506742[ebp], ecx
  00078	c7 45 fc 02 00
	00 00		 mov	 DWORD PTR __$EHRec$[ebp+8], 2
  0007f	85 c9		 test	 ecx, ecx
  00081	0f 84 a0 00 00
	00		 je	 $LN29@CreateNode
  00087	e8 00 00 00 00	 call	 ??0ioChannelingNodeDaum@@QAE@XZ ; ioChannelingNodeDaum::ioChannelingNodeDaum
  0008c	e9 98 00 00 00	 jmp	 $LN30@CreateNode
$LN10@CreateNode:

; 64   : 	else if( eChannelingType == CNT_NAVER )

  00091	3d 58 02 00 00	 cmp	 eax, 600		; 00000258H
  00096	75 1f		 jne	 SHORT $LN8@CreateNode

; 65   : 		pNode = new ioChannelingNodeNaver;

  00098	6a 04		 push	 4
  0009a	e8 00 00 00 00	 call	 ??2@YAPAXI@Z		; operator new
  0009f	59		 pop	 ecx
  000a0	8b c8		 mov	 ecx, eax
  000a2	89 4d 08	 mov	 DWORD PTR $T506746[ebp], ecx
  000a5	c7 45 fc 03 00
	00 00		 mov	 DWORD PTR __$EHRec$[ebp+8], 3
  000ac	85 c9		 test	 ecx, ecx
  000ae	74 77		 je	 SHORT $LN29@CreateNode
  000b0	e8 00 00 00 00	 call	 ??0ioChannelingNodeNaver@@QAE@XZ ; ioChannelingNodeNaver::ioChannelingNodeNaver
  000b5	eb 72		 jmp	 SHORT $LN30@CreateNode
$LN8@CreateNode:

; 66   : 	else if( eChannelingType == CNT_TOONILAND )

  000b7	3d bc 02 00 00	 cmp	 eax, 700		; 000002bcH
  000bc	75 1d		 jne	 SHORT $LN6@CreateNode

; 67   : 		pNode = new ioChannelingNodeTooniland;

  000be	6a 04		 push	 4
  000c0	5e		 pop	 esi
  000c1	56		 push	 esi
  000c2	e8 00 00 00 00	 call	 ??2@YAPAXI@Z		; operator new
  000c7	59		 pop	 ecx
  000c8	8b c8		 mov	 ecx, eax
  000ca	89 4d 08	 mov	 DWORD PTR $T506750[ebp], ecx
  000cd	89 75 fc	 mov	 DWORD PTR __$EHRec$[ebp+8], esi
  000d0	85 c9		 test	 ecx, ecx
  000d2	74 53		 je	 SHORT $LN29@CreateNode
  000d4	e8 00 00 00 00	 call	 ??0ioChannelingNodeTooniland@@QAE@XZ ; ioChannelingNodeTooniland::ioChannelingNodeTooniland
  000d9	eb 4e		 jmp	 SHORT $LN30@CreateNode
$LN6@CreateNode:

; 68   : 	else if( eChannelingType == CNT_NEXON )

  000db	3d 20 03 00 00	 cmp	 eax, 800		; 00000320H
  000e0	75 1f		 jne	 SHORT $LN4@CreateNode

; 69   : 		pNode = new ioChannelingNodeNexon;

  000e2	6a 04		 push	 4
  000e4	e8 00 00 00 00	 call	 ??2@YAPAXI@Z		; operator new
  000e9	59		 pop	 ecx
  000ea	8b c8		 mov	 ecx, eax
  000ec	89 4d 08	 mov	 DWORD PTR $T506754[ebp], ecx
  000ef	c7 45 fc 05 00
	00 00		 mov	 DWORD PTR __$EHRec$[ebp+8], 5
  000f6	85 c9		 test	 ecx, ecx
  000f8	74 2d		 je	 SHORT $LN29@CreateNode
  000fa	e8 00 00 00 00	 call	 ??0ioChannelingNodeNexon@@QAE@XZ ; ioChannelingNodeNexon::ioChannelingNodeNexon
  000ff	eb 28		 jmp	 SHORT $LN30@CreateNode
$LN4@CreateNode:

; 70   : 	else if ( eChannelingType == CNT_HANGAME )

  00101	3d 84 03 00 00	 cmp	 eax, 900		; 00000384H
  00106	75 25		 jne	 SHORT $LN2@CreateNode

; 71   : 		pNode = new ioChannelingNodeHanGame;

  00108	6a 04		 push	 4
  0010a	e8 00 00 00 00	 call	 ??2@YAPAXI@Z		; operator new
  0010f	59		 pop	 ecx
  00110	8b c8		 mov	 ecx, eax
  00112	89 4d 08	 mov	 DWORD PTR $T506758[ebp], ecx
  00115	c7 45 fc 06 00
	00 00		 mov	 DWORD PTR __$EHRec$[ebp+8], 6
  0011c	85 c9		 test	 ecx, ecx
  0011e	74 07		 je	 SHORT $LN29@CreateNode
  00120	e8 00 00 00 00	 call	 ??0ioChannelingNodeHanGame@@QAE@XZ ; ioChannelingNodeHanGame::ioChannelingNodeHanGame
  00125	eb 02		 jmp	 SHORT $LN30@CreateNode
$LN29@CreateNode:
  00127	33 c0		 xor	 eax, eax
$LN30@CreateNode:
  00129	8b f0		 mov	 esi, eax

; 72   : 	// 새로운 채널링 추가
; 73   : 	else

  0012b	eb 1c		 jmp	 SHORT $LN1@CreateNode
$LN2@CreateNode:

; 74   : 		LOG.PrintTimeAndLog( 0, "%s Type is wrong. %d", __FUNCTION__, (int) eChannelingType );

  0012d	50		 push	 eax
  0012e	68 00 00 00 00	 push	 OFFSET ??_C@_0CE@FCEHMFLA@ioChannelingNodeManager?3?3CreateN@
  00133	68 00 00 00 00	 push	 OFFSET ??_C@_0BF@KLEJKOHP@?$CFs?5Type?5is?5wrong?4?5?$CFd?$AA@
  00138	6a 00		 push	 0
  0013a	ff 35 00 00 00
	00		 push	 DWORD PTR __imp_?LOG@@3VCLog@@A
  00140	ff 15 00 00 00
	00		 call	 DWORD PTR __imp_?PrintTimeAndLog@CLog@@QAAXHPADZZ
  00146	83 c4 14	 add	 esp, 20			; 00000014H
$LN1@CreateNode:

; 75   : 
; 76   : 	return pNode;

  00149	8b c6		 mov	 eax, esi

; 77   : }

  0014b	e8 00 00 00 00	 call	 __EH_epilog3
  00150	c2 04 00	 ret	 4
_TEXT	ENDS
;	COMDAT text$x
text$x	SEGMENT
__unwindfunclet$?CreateNode@ioChannelingNodeManager@@IAEPAVioChannelingNodeParent@@W4ChannelingType@@@Z$0:
  00000	ff 75 08	 push	 DWORD PTR $T506734[ebp]
  00003	e8 00 00 00 00	 call	 ??3@YAXPAX@Z		; operator delete
  00008	59		 pop	 ecx
  00009	c3		 ret	 0
__unwindfunclet$?CreateNode@ioChannelingNodeManager@@IAEPAVioChannelingNodeParent@@W4ChannelingType@@@Z$1:
  0000a	ff 75 08	 push	 DWORD PTR $T506738[ebp]
  0000d	e8 00 00 00 00	 call	 ??3@YAXPAX@Z		; operator delete
  00012	59		 pop	 ecx
  00013	c3		 ret	 0
__unwindfunclet$?CreateNode@ioChannelingNodeManager@@IAEPAVioChannelingNodeParent@@W4ChannelingType@@@Z$2:
  00014	ff 75 08	 push	 DWORD PTR $T506742[ebp]
  00017	e8 00 00 00 00	 call	 ??3@YAXPAX@Z		; operator delete
  0001c	59		 pop	 ecx
  0001d	c3		 ret	 0
__unwindfunclet$?CreateNode@ioChannelingNodeManager@@IAEPAVioChannelingNodeParent@@W4ChannelingType@@@Z$3:
  0001e	ff 75 08	 push	 DWORD PTR $T506746[ebp]
  00021	e8 00 00 00 00	 call	 ??3@YAXPAX@Z		; operator delete
  00026	59		 pop	 ecx
  00027	c3		 ret	 0
__unwindfunclet$?CreateNode@ioChannelingNodeManager@@IAEPAVioChannelingNodeParent@@W4ChannelingType@@@Z$4:
  00028	ff 75 08	 push	 DWORD PTR $T506750[ebp]
  0002b	e8 00 00 00 00	 call	 ??3@YAXPAX@Z		; operator delete
  00030	59		 pop	 ecx
  00031	c3		 ret	 0
__unwindfunclet$?CreateNode@ioChannelingNodeManager@@IAEPAVioChannelingNodeParent@@W4ChannelingType@@@Z$5:
  00032	ff 75 08	 push	 DWORD PTR $T506754[ebp]
  00035	e8 00 00 00 00	 call	 ??3@YAXPAX@Z		; operator delete
  0003a	59		 pop	 ecx
  0003b	c3		 ret	 0
__unwindfunclet$?CreateNode@ioChannelingNodeManager@@IAEPAVioChannelingNodeParent@@W4ChannelingType@@@Z$6:
  0003c	ff 75 08	 push	 DWORD PTR $T506758[ebp]
  0003f	e8 00 00 00 00	 call	 ??3@YAXPAX@Z		; operator delete
  00044	59		 pop	 ecx
  00045	c3		 ret	 0
__ehhandler$?CreateNode@ioChannelingNodeManager@@IAEPAVioChannelingNodeParent@@W4ChannelingType@@@Z:
  00046	8b 54 24 08	 mov	 edx, DWORD PTR [esp+8]
  0004a	8d 42 0c	 lea	 eax, DWORD PTR [edx+12]
  0004d	8b 4a f0	 mov	 ecx, DWORD PTR [edx-16]
  00050	33 c8		 xor	 ecx, eax
  00052	e8 00 00 00 00	 call	 @__security_check_cookie@4
  00057	b8 00 00 00 00	 mov	 eax, OFFSET __ehfuncinfo$?CreateNode@ioChannelingNodeManager@@IAEPAVioChannelingNodeParent@@W4ChannelingType@@@Z
  0005c	e9 00 00 00 00	 jmp	 ___CxxFrameHandler3
text$x	ENDS
?CreateNode@ioChannelingNodeManager@@IAEPAVioChannelingNodeParent@@W4ChannelingType@@@Z ENDP ; ioChannelingNodeManager::CreateNode
PUBLIC	??0?$Singleton@VioChannelingNodeManager@@@@QAE@XZ ; Singleton<ioChannelingNodeManager>::Singleton<ioChannelingNodeManager>
; Function compile flags: /Ogsp
; File d:\lost saga for developer\youtube\tutorial\source\src\io3dengine\iosingleton.h
;	COMDAT ??0?$Singleton@VioChannelingNodeManager@@@@QAE@XZ
_TEXT	SEGMENT
??0?$Singleton@VioChannelingNodeManager@@@@QAE@XZ PROC	; Singleton<ioChannelingNodeManager>::Singleton<ioChannelingNodeManager>, COMDAT
; _this$ = ecx

; 27   : 	Singleton()

  00000	8b c1		 mov	 eax, ecx

; 28   : 	{
; 29   : 		assert( !ms_Singleton );
; 30   : 		int offset = (int)(T*)1 - (int)(Singleton <T>*)(T*)1;
; 31   : 		ms_Singleton = (T*)((int)this + offset);

  00002	8d 48 fc	 lea	 ecx, DWORD PTR [eax-4]
  00005	89 0d 00 00 00
	00		 mov	 DWORD PTR ?ms_Singleton@?$Singleton@VioChannelingNodeManager@@@@1PAVioChannelingNodeManager@@A, ecx ; Singleton<ioChannelingNodeManager>::ms_Singleton

; 32   : 	}

  0000b	c3		 ret	 0
??0?$Singleton@VioChannelingNodeManager@@@@QAE@XZ ENDP	; Singleton<ioChannelingNodeManager>::Singleton<ioChannelingNodeManager>
_TEXT	ENDS
PUBLIC	??1?$Singleton@VioChannelingNodeManager@@@@QAE@XZ ; Singleton<ioChannelingNodeManager>::~Singleton<ioChannelingNodeManager>
; Function compile flags: /Ogsp
;	COMDAT ??1?$Singleton@VioChannelingNodeManager@@@@QAE@XZ
_TEXT	SEGMENT
??1?$Singleton@VioChannelingNodeManager@@@@QAE@XZ PROC	; Singleton<ioChannelingNodeManager>::~Singleton<ioChannelingNodeManager>, COMDAT
; _this$ = ecx

; 36   : 		assert( ms_Singleton );
; 37   : 		ms_Singleton = 0;

  00000	83 25 00 00 00
	00 00		 and	 DWORD PTR ?ms_Singleton@?$Singleton@VioChannelingNodeManager@@@@1PAVioChannelingNodeManager@@A, 0 ; Singleton<ioChannelingNodeManager>::ms_Singleton

; 38   : 	}

  00007	c3		 ret	 0
??1?$Singleton@VioChannelingNodeManager@@@@QAE@XZ ENDP	; Singleton<ioChannelingNodeManager>::~Singleton<ioChannelingNodeManager>
_TEXT	ENDS
PUBLIC	?GetSingleton@?$Singleton@VioChannelingNodeManager@@@@SAAAVioChannelingNodeManager@@XZ ; Singleton<ioChannelingNodeManager>::GetSingleton
; Function compile flags: /Ogsp
;	COMDAT ?GetSingleton@?$Singleton@VioChannelingNodeManager@@@@SAAAVioChannelingNodeManager@@XZ
_TEXT	SEGMENT
?GetSingleton@?$Singleton@VioChannelingNodeManager@@@@SAAAVioChannelingNodeManager@@XZ PROC ; Singleton<ioChannelingNodeManager>::GetSingleton, COMDAT

; 42   : 		assert( ms_Singleton );
; 43   : 		return (*ms_Singleton);

  00000	a1 00 00 00 00	 mov	 eax, DWORD PTR ?ms_Singleton@?$Singleton@VioChannelingNodeManager@@@@1PAVioChannelingNodeManager@@A ; Singleton<ioChannelingNodeManager>::ms_Singleton

; 44   : 	}

  00005	c3		 ret	 0
?GetSingleton@?$Singleton@VioChannelingNodeManager@@@@SAAAVioChannelingNodeManager@@XZ ENDP ; Singleton<ioChannelingNodeManager>::GetSingleton
_TEXT	ENDS
PUBLIC	?capacity@?$vector@PAVioChannelingNodeParent@@V?$allocator@PAVioChannelingNodeParent@@@std@@@std@@QBEIXZ ; std::vector<ioChannelingNodeParent *,std::allocator<ioChannelingNodeParent *> >::capacity
; Function compile flags: /Ogsp
; File c:\program files (x86)\microsoft visual studio 10.0\vc\include\vector
;	COMDAT ?capacity@?$vector@PAVioChannelingNodeParent@@V?$allocator@PAVioChannelingNodeParent@@@std@@@std@@QBEIXZ
_TEXT	SEGMENT
?capacity@?$vector@PAVioChannelingNodeParent@@V?$allocator@PAVioChannelingNodeParent@@@std@@@std@@QBEIXZ PROC ; std::vector<ioChannelingNodeParent *,std::allocator<ioChannelingNodeParent *> >::capacity, COMDAT
; _this$ = ecx

; 777  : 		return (this->_Myend - this->_Myfirst);

  00000	8b 41 08	 mov	 eax, DWORD PTR [ecx+8]
  00003	2b 01		 sub	 eax, DWORD PTR [ecx]
  00005	c1 f8 02	 sar	 eax, 2

; 778  : 		}

  00008	c3		 ret	 0
?capacity@?$vector@PAVioChannelingNodeParent@@V?$allocator@PAVioChannelingNodeParent@@@std@@@std@@QBEIXZ ENDP ; std::vector<ioChannelingNodeParent *,std::allocator<ioChannelingNodeParent *> >::capacity
_TEXT	ENDS
PUBLIC	?size@?$vector@PAVioChannelingNodeParent@@V?$allocator@PAVioChannelingNodeParent@@@std@@@std@@QBEIXZ ; std::vector<ioChannelingNodeParent *,std::allocator<ioChannelingNodeParent *> >::size
; Function compile flags: /Ogsp
;	COMDAT ?size@?$vector@PAVioChannelingNodeParent@@V?$allocator@PAVioChannelingNodeParent@@@std@@@std@@QBEIXZ
_TEXT	SEGMENT
?size@?$vector@PAVioChannelingNodeParent@@V?$allocator@PAVioChannelingNodeParent@@@std@@@std@@QBEIXZ PROC ; std::vector<ioChannelingNodeParent *,std::allocator<ioChannelingNodeParent *> >::size, COMDAT
; _this$ = ecx

; 879  : 		return (this->_Mylast - this->_Myfirst);

  00000	8b 41 04	 mov	 eax, DWORD PTR [ecx+4]
  00003	2b 01		 sub	 eax, DWORD PTR [ecx]
  00005	c1 f8 02	 sar	 eax, 2

; 880  : 		}

  00008	c3		 ret	 0
?size@?$vector@PAVioChannelingNodeParent@@V?$allocator@PAVioChannelingNodeParent@@@std@@@std@@QBEIXZ ENDP ; std::vector<ioChannelingNodeParent *,std::allocator<ioChannelingNodeParent *> >::size
_TEXT	ENDS
PUBLIC	?_Inside@?$vector@PAVioChannelingNodeParent@@V?$allocator@PAVioChannelingNodeParent@@@std@@@std@@IBE_NPBQAVioChannelingNodeParent@@@Z ; std::vector<ioChannelingNodeParent *,std::allocator<ioChannelingNodeParent *> >::_Inside
; Function compile flags: /Ogsp
;	COMDAT ?_Inside@?$vector@PAVioChannelingNodeParent@@V?$allocator@PAVioChannelingNodeParent@@@std@@@std@@IBE_NPBQAVioChannelingNodeParent@@@Z
_TEXT	SEGMENT
__Ptr$ = 8						; size = 4
?_Inside@?$vector@PAVioChannelingNodeParent@@V?$allocator@PAVioChannelingNodeParent@@@std@@@std@@IBE_NPBQAVioChannelingNodeParent@@@Z PROC ; std::vector<ioChannelingNodeParent *,std::allocator<ioChannelingNodeParent *> >::_Inside, COMDAT
; _this$ = ecx

; 1285 : 		{	// test if _Ptr points inside vector

  00000	55		 push	 ebp
  00001	8b ec		 mov	 ebp, esp

; 1286 : 		return (_Ptr < this->_Mylast && this->_Myfirst <= _Ptr);

  00003	8b 45 08	 mov	 eax, DWORD PTR __Ptr$[ebp]
  00006	3b 41 04	 cmp	 eax, DWORD PTR [ecx+4]
  00009	73 09		 jae	 SHORT $LN3@Inside
  0000b	39 01		 cmp	 DWORD PTR [ecx], eax
  0000d	77 05		 ja	 SHORT $LN3@Inside
  0000f	33 c0		 xor	 eax, eax
  00011	40		 inc	 eax
  00012	eb 02		 jmp	 SHORT $LN4@Inside
$LN3@Inside:
  00014	33 c0		 xor	 eax, eax
$LN4@Inside:

; 1287 : 		}

  00016	5d		 pop	 ebp
  00017	c2 04 00	 ret	 4
?_Inside@?$vector@PAVioChannelingNodeParent@@V?$allocator@PAVioChannelingNodeParent@@@std@@@std@@IBE_NPBQAVioChannelingNodeParent@@@Z ENDP ; std::vector<ioChannelingNodeParent *,std::allocator<ioChannelingNodeParent *> >::_Inside
_TEXT	ENDS
PUBLIC	??_C@_0BD@OLBABOEK@vector?$DMT?$DO?5too?5long?$AA@ ; `string'
PUBLIC	?_Xlen@?$vector@PAVioChannelingNodeParent@@V?$allocator@PAVioChannelingNodeParent@@@std@@@std@@IBEXXZ ; std::vector<ioChannelingNodeParent *,std::allocator<ioChannelingNodeParent *> >::_Xlen
EXTRN	__imp_?_Xlength_error@std@@YAXPBD@Z:PROC
;	COMDAT ??_C@_0BD@OLBABOEK@vector?$DMT?$DO?5too?5long?$AA@
CONST	SEGMENT
??_C@_0BD@OLBABOEK@vector?$DMT?$DO?5too?5long?$AA@ DB 'vector<T> too long'
	DB	00H						; `string'
; Function compile flags: /Ogsp
CONST	ENDS
;	COMDAT ?_Xlen@?$vector@PAVioChannelingNodeParent@@V?$allocator@PAVioChannelingNodeParent@@@std@@@std@@IBEXXZ
_TEXT	SEGMENT
?_Xlen@?$vector@PAVioChannelingNodeParent@@V?$allocator@PAVioChannelingNodeParent@@@std@@@std@@IBEXXZ PROC ; std::vector<ioChannelingNodeParent *,std::allocator<ioChannelingNodeParent *> >::_Xlen, COMDAT
; _this$ = ecx

; 1427 : 		_Xlength_error("vector<T> too long");

  00000	68 00 00 00 00	 push	 OFFSET ??_C@_0BD@OLBABOEK@vector?$DMT?$DO?5too?5long?$AA@
  00005	ff 15 00 00 00
	00		 call	 DWORD PTR __imp_?_Xlength_error@std@@YAXPBD@Z
$LN4@Xlen:
$LN3@Xlen:
  0000b	cc		 int	 3
?_Xlen@?$vector@PAVioChannelingNodeParent@@V?$allocator@PAVioChannelingNodeParent@@@std@@@std@@IBEXXZ ENDP ; std::vector<ioChannelingNodeParent *,std::allocator<ioChannelingNodeParent *> >::_Xlen
_TEXT	ENDS
PUBLIC	?_Orphan_range@?$vector@PAVioChannelingNodeParent@@V?$allocator@PAVioChannelingNodeParent@@@std@@@std@@IBEXPAPAVioChannelingNodeParent@@0@Z ; std::vector<ioChannelingNodeParent *,std::allocator<ioChannelingNodeParent *> >::_Orphan_range
; Function compile flags: /Ogsp
;	COMDAT ?_Orphan_range@?$vector@PAVioChannelingNodeParent@@V?$allocator@PAVioChannelingNodeParent@@@std@@@std@@IBEXPAPAVioChannelingNodeParent@@0@Z
_TEXT	SEGMENT
___formal$ = 8						; size = 4
___formal$ = 12						; size = 4
?_Orphan_range@?$vector@PAVioChannelingNodeParent@@V?$allocator@PAVioChannelingNodeParent@@@std@@@std@@IBEXPAPAVioChannelingNodeParent@@0@Z PROC ; std::vector<ioChannelingNodeParent *,std::allocator<ioChannelingNodeParent *> >::_Orphan_range, COMDAT
; _this$ = ecx

; 1454 : 		}

  00000	c2 08 00	 ret	 8
?_Orphan_range@?$vector@PAVioChannelingNodeParent@@V?$allocator@PAVioChannelingNodeParent@@@std@@@std@@IBEXPAPAVioChannelingNodeParent@@0@Z ENDP ; std::vector<ioChannelingNodeParent *,std::allocator<ioChannelingNodeParent *> >::_Orphan_range
_TEXT	ENDS
PUBLIC	??1?$_Vector_val@PAVioChannelingNodeParent@@V?$allocator@PAVioChannelingNodeParent@@@std@@@std@@QAE@XZ ; std::_Vector_val<ioChannelingNodeParent *,std::allocator<ioChannelingNodeParent *> >::~_Vector_val<ioChannelingNodeParent *,std::allocator<ioChannelingNodeParent *> >
; Function compile flags: /Ogsp
;	COMDAT ??1?$_Vector_val@PAVioChannelingNodeParent@@V?$allocator@PAVioChannelingNodeParent@@@std@@@std@@QAE@XZ
_TEXT	SEGMENT
??1?$_Vector_val@PAVioChannelingNodeParent@@V?$allocator@PAVioChannelingNodeParent@@@std@@@std@@QAE@XZ PROC ; std::_Vector_val<ioChannelingNodeParent *,std::allocator<ioChannelingNodeParent *> >::~_Vector_val<ioChannelingNodeParent *,std::allocator<ioChannelingNodeParent *> >, COMDAT
; _this$ = ecx

; 434  : 		}

  00000	c3		 ret	 0
??1?$_Vector_val@PAVioChannelingNodeParent@@V?$allocator@PAVioChannelingNodeParent@@@std@@@std@@QAE@XZ ENDP ; std::_Vector_val<ioChannelingNodeParent *,std::allocator<ioChannelingNodeParent *> >::~_Vector_val<ioChannelingNodeParent *,std::allocator<ioChannelingNodeParent *> >
_TEXT	ENDS
PUBLIC	??0?$allocator@PAVioChannelingNodeParent@@@std@@QAE@XZ ; std::allocator<ioChannelingNodeParent *>::allocator<ioChannelingNodeParent *>
; Function compile flags: /Ogsp
; File c:\program files (x86)\microsoft visual studio 10.0\vc\include\xmemory
;	COMDAT ??0?$allocator@PAVioChannelingNodeParent@@@std@@QAE@XZ
_TEXT	SEGMENT
??0?$allocator@PAVioChannelingNodeParent@@@std@@QAE@XZ PROC ; std::allocator<ioChannelingNodeParent *>::allocator<ioChannelingNodeParent *>, COMDAT
; _this$ = ecx

; 161  : 	_ALLOCATOR() _THROW0()

  00000	8b c1		 mov	 eax, ecx

; 162  : 		{	// construct default allocator (do nothing)
; 163  : 		}

  00002	c3		 ret	 0
??0?$allocator@PAVioChannelingNodeParent@@@std@@QAE@XZ ENDP ; std::allocator<ioChannelingNodeParent *>::allocator<ioChannelingNodeParent *>
_TEXT	ENDS
PUBLIC	?deallocate@?$allocator@PAVioChannelingNodeParent@@@std@@QAEXPAPAVioChannelingNodeParent@@I@Z ; std::allocator<ioChannelingNodeParent *>::deallocate
; Function compile flags: /Ogsp
;	COMDAT ?deallocate@?$allocator@PAVioChannelingNodeParent@@@std@@QAEXPAPAVioChannelingNodeParent@@I@Z
_TEXT	SEGMENT
__Ptr$ = 8						; size = 4
___formal$ = 12						; size = 4
?deallocate@?$allocator@PAVioChannelingNodeParent@@@std@@QAEXPAPAVioChannelingNodeParent@@I@Z PROC ; std::allocator<ioChannelingNodeParent *>::deallocate, COMDAT
; _this$ = ecx

; 181  : 		{	// deallocate object at _Ptr, ignore size

  00000	55		 push	 ebp
  00001	8b ec		 mov	 ebp, esp

; 182  : 		::operator delete(_Ptr);

  00003	ff 75 08	 push	 DWORD PTR __Ptr$[ebp]
  00006	e8 00 00 00 00	 call	 ??3@YAXPAX@Z		; operator delete
  0000b	59		 pop	 ecx

; 183  : 		}

  0000c	5d		 pop	 ebp
  0000d	c2 08 00	 ret	 8
?deallocate@?$allocator@PAVioChannelingNodeParent@@@std@@QAEXPAPAVioChannelingNodeParent@@I@Z ENDP ; std::allocator<ioChannelingNodeParent *>::deallocate
_TEXT	ENDS
PUBLIC	??D?$_Vector_const_iterator@V?$_Vector_val@PAVioChannelingNodeParent@@V?$allocator@PAVioChannelingNodeParent@@@std@@@std@@@std@@QBEABQAVioChannelingNodeParent@@XZ ; std::_Vector_const_iterator<std::_Vector_val<ioChannelingNodeParent *,std::allocator<ioChannelingNodeParent *> > >::operator*
; Function compile flags: /Ogsp
; File c:\program files (x86)\microsoft visual studio 10.0\vc\include\vector
;	COMDAT ??D?$_Vector_const_iterator@V?$_Vector_val@PAVioChannelingNodeParent@@V?$allocator@PAVioChannelingNodeParent@@@std@@@std@@@std@@QBEABQAVioChannelingNodeParent@@XZ
_TEXT	SEGMENT
??D?$_Vector_const_iterator@V?$_Vector_val@PAVioChannelingNodeParent@@V?$allocator@PAVioChannelingNodeParent@@@std@@@std@@@std@@QBEABQAVioChannelingNodeParent@@XZ PROC ; std::_Vector_const_iterator<std::_Vector_val<ioChannelingNodeParent *,std::allocator<ioChannelingNodeParent *> > >::operator*, COMDAT
; _this$ = ecx

; 64   :  #if _ITERATOR_DEBUG_LEVEL == 2
; 65   : 		if (this->_Getcont() == 0
; 66   : 			|| this->_Ptr == 0
; 67   : 			|| this->_Ptr < ((_Myvec *)this->_Getcont())->_Myfirst
; 68   : 			|| ((_Myvec *)this->_Getcont())->_Mylast <= this->_Ptr)
; 69   : 			{	// report error
; 70   : 			_DEBUG_ERROR("vector iterator not dereferencable");
; 71   : 			_SCL_SECURE_OUT_OF_RANGE;
; 72   : 			}
; 73   : 
; 74   :  #elif _ITERATOR_DEBUG_LEVEL == 1
; 75   : 		_SCL_SECURE_VALIDATE(this->_Getcont() != 0);
; 76   : 		_SCL_SECURE_VALIDATE_RANGE(
; 77   : 			this->_Ptr != 0
; 78   : 			&& ((_Myvec *)this->_Getcont())->_Myfirst <= this->_Ptr
; 79   : 			&& this->_Ptr < ((_Myvec *)this->_Getcont())->_Mylast);
; 80   :  #endif /* _ITERATOR_DEBUG_LEVEL */
; 81   : 
; 82   : 		__analysis_assume(this->_Ptr != 0);
; 83   : 
; 84   : 		return (*this->_Ptr);

  00000	8b 01		 mov	 eax, DWORD PTR [ecx]

; 85   : 		}

  00002	c3		 ret	 0
??D?$_Vector_const_iterator@V?$_Vector_val@PAVioChannelingNodeParent@@V?$allocator@PAVioChannelingNodeParent@@@std@@@std@@@std@@QBEABQAVioChannelingNodeParent@@XZ ENDP ; std::_Vector_const_iterator<std::_Vector_val<ioChannelingNodeParent *,std::allocator<ioChannelingNodeParent *> > >::operator*
_TEXT	ENDS
PUBLIC	??E?$_Vector_const_iterator@V?$_Vector_val@PAVioChannelingNodeParent@@V?$allocator@PAVioChannelingNodeParent@@@std@@@std@@@std@@QAEAAV01@XZ ; std::_Vector_const_iterator<std::_Vector_val<ioChannelingNodeParent *,std::allocator<ioChannelingNodeParent *> > >::operator++
; Function compile flags: /Ogsp
;	COMDAT ??E?$_Vector_const_iterator@V?$_Vector_val@PAVioChannelingNodeParent@@V?$allocator@PAVioChannelingNodeParent@@@std@@@std@@@std@@QAEAAV01@XZ
_TEXT	SEGMENT
??E?$_Vector_const_iterator@V?$_Vector_val@PAVioChannelingNodeParent@@V?$allocator@PAVioChannelingNodeParent@@@std@@@std@@@std@@QAEAAV01@XZ PROC ; std::_Vector_const_iterator<std::_Vector_val<ioChannelingNodeParent *,std::allocator<ioChannelingNodeParent *> > >::operator++, COMDAT
; _this$ = ecx

; 93   : 		{	// preincrement

  00000	8b c1		 mov	 eax, ecx

; 94   :  #if _ITERATOR_DEBUG_LEVEL == 2
; 95   : 		if (this->_Getcont() == 0
; 96   : 			|| this->_Ptr == 0
; 97   : 			|| ((_Myvec *)this->_Getcont())->_Mylast <= this->_Ptr)
; 98   : 			{	// report error
; 99   : 			_DEBUG_ERROR("vector iterator not incrementable");
; 100  : 			_SCL_SECURE_OUT_OF_RANGE;
; 101  : 			}
; 102  : 
; 103  :  #elif _ITERATOR_DEBUG_LEVEL == 1
; 104  : 		_SCL_SECURE_VALIDATE(this->_Getcont() != 0);
; 105  : 		_SCL_SECURE_VALIDATE_RANGE(
; 106  : 			this->_Ptr != 0
; 107  : 			&& this->_Ptr < ((_Myvec *)this->_Getcont())->_Mylast);
; 108  :  #endif /* _ITERATOR_DEBUG_LEVEL */
; 109  : 
; 110  : 		++this->_Ptr;

  00002	83 00 04	 add	 DWORD PTR [eax], 4

; 111  : 		return (*this);
; 112  : 		}

  00005	c3		 ret	 0
??E?$_Vector_const_iterator@V?$_Vector_val@PAVioChannelingNodeParent@@V?$allocator@PAVioChannelingNodeParent@@@std@@@std@@@std@@QAEAAV01@XZ ENDP ; std::_Vector_const_iterator<std::_Vector_val<ioChannelingNodeParent *,std::allocator<ioChannelingNodeParent *> > >::operator++
_TEXT	ENDS
PUBLIC	??0?$allocator@PAVioChannelingNodeParent@@@std@@QAE@ABV01@@Z ; std::allocator<ioChannelingNodeParent *>::allocator<ioChannelingNodeParent *>
; Function compile flags: /Ogsp
; File c:\program files (x86)\microsoft visual studio 10.0\vc\include\xmemory
;	COMDAT ??0?$allocator@PAVioChannelingNodeParent@@@std@@QAE@ABV01@@Z
_TEXT	SEGMENT
___formal$ = 8						; size = 4
??0?$allocator@PAVioChannelingNodeParent@@@std@@QAE@ABV01@@Z PROC ; std::allocator<ioChannelingNodeParent *>::allocator<ioChannelingNodeParent *>, COMDAT
; _this$ = ecx

; 165  : 	_ALLOCATOR(const _ALLOCATOR<_Ty>&) _THROW0()

  00000	8b c1		 mov	 eax, ecx

; 166  : 		{	// construct by copying (do nothing)
; 167  : 		}

  00002	c2 04 00	 ret	 4
??0?$allocator@PAVioChannelingNodeParent@@@std@@QAE@ABV01@@Z ENDP ; std::allocator<ioChannelingNodeParent *>::allocator<ioChannelingNodeParent *>
_TEXT	ENDS
PUBLIC	?max_size@?$allocator@PAVioChannelingNodeParent@@@std@@QBEIXZ ; std::allocator<ioChannelingNodeParent *>::max_size
; Function compile flags: /Ogsp
;	COMDAT ?max_size@?$allocator@PAVioChannelingNodeParent@@@std@@QBEIXZ
_TEXT	SEGMENT
?max_size@?$allocator@PAVioChannelingNodeParent@@@std@@QBEIXZ PROC ; std::allocator<ioChannelingNodeParent *>::max_size, COMDAT
; _this$ = ecx

; 218  : 		_SIZT _Count = (_SIZT)(-1) / sizeof (_Ty);
; 219  : 		return (0 < _Count ? _Count : 1);

  00000	b8 ff ff ff 3f	 mov	 eax, 1073741823		; 3fffffffH

; 220  : 		}

  00005	c3		 ret	 0
?max_size@?$allocator@PAVioChannelingNodeParent@@@std@@QBEIXZ ENDP ; std::allocator<ioChannelingNodeParent *>::max_size
_TEXT	ENDS
PUBLIC	?_Compat@?$_Vector_const_iterator@V?$_Vector_val@PAVioChannelingNodeParent@@V?$allocator@PAVioChannelingNodeParent@@@std@@@std@@@std@@QBEXABV12@@Z ; std::_Vector_const_iterator<std::_Vector_val<ioChannelingNodeParent *,std::allocator<ioChannelingNodeParent *> > >::_Compat
; Function compile flags: /Ogsp
; File c:\program files (x86)\microsoft visual studio 10.0\vc\include\vector
;	COMDAT ?_Compat@?$_Vector_const_iterator@V?$_Vector_val@PAVioChannelingNodeParent@@V?$allocator@PAVioChannelingNodeParent@@@std@@@std@@@std@@QBEXABV12@@Z
_TEXT	SEGMENT
___formal$ = 8						; size = 4
?_Compat@?$_Vector_const_iterator@V?$_Vector_val@PAVioChannelingNodeParent@@V?$allocator@PAVioChannelingNodeParent@@@std@@@std@@@std@@QBEXABV12@@Z PROC ; std::_Vector_const_iterator<std::_Vector_val<ioChannelingNodeParent *,std::allocator<ioChannelingNodeParent *> > >::_Compat, COMDAT
; _this$ = ecx

; 253  : 		}

  00000	c2 04 00	 ret	 4
?_Compat@?$_Vector_const_iterator@V?$_Vector_val@PAVioChannelingNodeParent@@V?$allocator@PAVioChannelingNodeParent@@@std@@@std@@@std@@QBEXABV12@@Z ENDP ; std::_Vector_const_iterator<std::_Vector_val<ioChannelingNodeParent *,std::allocator<ioChannelingNodeParent *> > >::_Compat
_TEXT	ENDS
PUBLIC	??$addressof@QAVioChannelingNodeParent@@@std@@YAPBQAVioChannelingNodeParent@@ABQAV1@@Z ; std::addressof<ioChannelingNodeParent * const>
; Function compile flags: /Ogsp
; File c:\program files (x86)\microsoft visual studio 10.0\vc\include\xmemory
;	COMDAT ??$addressof@QAVioChannelingNodeParent@@@std@@YAPBQAVioChannelingNodeParent@@ABQAV1@@Z
_TEXT	SEGMENT
__Val$ = 8						; size = 4
??$addressof@QAVioChannelingNodeParent@@@std@@YAPBQAVioChannelingNodeParent@@ABQAV1@@Z PROC ; std::addressof<ioChannelingNodeParent * const>, COMDAT

; 110  : 	{	// return address of _Val

  00000	55		 push	 ebp
  00001	8b ec		 mov	 ebp, esp

; 111  : 	return ((_Ty *) &(char&)_Val);

  00003	8b 45 08	 mov	 eax, DWORD PTR __Val$[ebp]

; 112  : 	}

  00006	5d		 pop	 ebp
  00007	c3		 ret	 0
??$addressof@QAVioChannelingNodeParent@@@std@@YAPBQAVioChannelingNodeParent@@ABQAV1@@Z ENDP ; std::addressof<ioChannelingNodeParent * const>
_TEXT	ENDS
PUBLIC	??_7bad_alloc@std@@6B@				; std::bad_alloc::`vftable'
PUBLIC	??0bad_alloc@std@@QAE@PBD@Z			; std::bad_alloc::bad_alloc
PUBLIC	??_R4bad_alloc@std@@6B@				; std::bad_alloc::`RTTI Complete Object Locator'
PUBLIC	??_R0?AVbad_alloc@std@@@8			; std::bad_alloc `RTTI Type Descriptor'
PUBLIC	??_R3bad_alloc@std@@8				; std::bad_alloc::`RTTI Class Hierarchy Descriptor'
PUBLIC	??_R2bad_alloc@std@@8				; std::bad_alloc::`RTTI Base Class Array'
PUBLIC	??_R1A@?0A@EA@bad_alloc@std@@8			; std::bad_alloc::`RTTI Base Class Descriptor at (0,-1,0,64)'
PUBLIC	??_R1A@?0A@EA@exception@std@@8			; std::exception::`RTTI Base Class Descriptor at (0,-1,0,64)'
PUBLIC	??_R0?AVexception@std@@@8			; std::exception `RTTI Type Descriptor'
PUBLIC	??_R3exception@std@@8				; std::exception::`RTTI Class Hierarchy Descriptor'
PUBLIC	??_R2exception@std@@8				; std::exception::`RTTI Base Class Array'
EXTRN	__imp_??0exception@std@@QAE@ABQBD@Z:PROC
EXTRN	??_7type_info@@6B@:QWORD			; type_info::`vftable'
EXTRN	??_Ebad_alloc@std@@UAEPAXI@Z:PROC		; std::bad_alloc::`vector deleting destructor'
EXTRN	?what@exception@std@@UBEPBDXZ:PROC		; std::exception::what
;	COMDAT ??_R2exception@std@@8
; File c:\program files (x86)\microsoft visual studio 10.0\vc\include\exception
rdata$r	SEGMENT
??_R2exception@std@@8 DD FLAT:??_R1A@?0A@EA@exception@std@@8 ; std::exception::`RTTI Base Class Array'
rdata$r	ENDS
;	COMDAT ??_R3exception@std@@8
rdata$r	SEGMENT
??_R3exception@std@@8 DD 00H				; std::exception::`RTTI Class Hierarchy Descriptor'
	DD	00H
	DD	01H
	DD	FLAT:??_R2exception@std@@8
rdata$r	ENDS
;	COMDAT ??_R0?AVexception@std@@@8
_DATA	SEGMENT
??_R0?AVexception@std@@@8 DD FLAT:??_7type_info@@6B@	; std::exception `RTTI Type Descriptor'
	DD	00H
	DB	'.?AVexception@std@@', 00H
_DATA	ENDS
;	COMDAT ??_R1A@?0A@EA@exception@std@@8
rdata$r	SEGMENT
??_R1A@?0A@EA@exception@std@@8 DD FLAT:??_R0?AVexception@std@@@8 ; std::exception::`RTTI Base Class Descriptor at (0,-1,0,64)'
	DD	00H
	DD	00H
	DD	0ffffffffH
	DD	00H
	DD	040H
	DD	FLAT:??_R3exception@std@@8
rdata$r	ENDS
;	COMDAT ??_R1A@?0A@EA@bad_alloc@std@@8
rdata$r	SEGMENT
??_R1A@?0A@EA@bad_alloc@std@@8 DD FLAT:??_R0?AVbad_alloc@std@@@8 ; std::bad_alloc::`RTTI Base Class Descriptor at (0,-1,0,64)'
	DD	01H
	DD	00H
	DD	0ffffffffH
	DD	00H
	DD	040H
	DD	FLAT:??_R3bad_alloc@std@@8
rdata$r	ENDS
;	COMDAT ??_R2bad_alloc@std@@8
rdata$r	SEGMENT
??_R2bad_alloc@std@@8 DD FLAT:??_R1A@?0A@EA@bad_alloc@std@@8 ; std::bad_alloc::`RTTI Base Class Array'
	DD	FLAT:??_R1A@?0A@EA@exception@std@@8
rdata$r	ENDS
;	COMDAT ??_R3bad_alloc@std@@8
rdata$r	SEGMENT
??_R3bad_alloc@std@@8 DD 00H				; std::bad_alloc::`RTTI Class Hierarchy Descriptor'
	DD	00H
	DD	02H
	DD	FLAT:??_R2bad_alloc@std@@8
rdata$r	ENDS
;	COMDAT ??_R0?AVbad_alloc@std@@@8
_DATA	SEGMENT
??_R0?AVbad_alloc@std@@@8 DD FLAT:??_7type_info@@6B@	; std::bad_alloc `RTTI Type Descriptor'
	DD	00H
	DB	'.?AVbad_alloc@std@@', 00H
_DATA	ENDS
;	COMDAT ??_R4bad_alloc@std@@6B@
rdata$r	SEGMENT
??_R4bad_alloc@std@@6B@ DD 00H				; std::bad_alloc::`RTTI Complete Object Locator'
	DD	00H
	DD	00H
	DD	FLAT:??_R0?AVbad_alloc@std@@@8
	DD	FLAT:??_R3bad_alloc@std@@8
rdata$r	ENDS
;	COMDAT ??_7bad_alloc@std@@6B@
CONST	SEGMENT
??_7bad_alloc@std@@6B@ DD FLAT:??_R4bad_alloc@std@@6B@	; std::bad_alloc::`vftable'
	DD	FLAT:??_Ebad_alloc@std@@UAEPAXI@Z
	DD	FLAT:?what@exception@std@@UBEPBDXZ
; Function compile flags: /Ogsp
CONST	ENDS
;	COMDAT ??0bad_alloc@std@@QAE@PBD@Z
_TEXT	SEGMENT
__Message$ = 8						; size = 4
??0bad_alloc@std@@QAE@PBD@Z PROC			; std::bad_alloc::bad_alloc, COMDAT
; _this$ = ecx

; 345  : 		{	// construct from message string

  00000	55		 push	 ebp
  00001	8b ec		 mov	 ebp, esp
  00003	56		 push	 esi
  00004	8d 45 08	 lea	 eax, DWORD PTR __Message$[ebp]
  00007	50		 push	 eax
  00008	8b f1		 mov	 esi, ecx
  0000a	ff 15 00 00 00
	00		 call	 DWORD PTR __imp_??0exception@std@@QAE@ABQBD@Z
  00010	c7 06 00 00 00
	00		 mov	 DWORD PTR [esi], OFFSET ??_7bad_alloc@std@@6B@

; 346  : 		}

  00016	8b c6		 mov	 eax, esi
  00018	5e		 pop	 esi
  00019	5d		 pop	 ebp
  0001a	c2 04 00	 ret	 4
??0bad_alloc@std@@QAE@PBD@Z ENDP			; std::bad_alloc::bad_alloc
_TEXT	ENDS
PUBLIC	??$forward@AAPAVioChannelingNodeParent@@@std@@YAAAPAVioChannelingNodeParent@@AAPAV1@@Z ; std::forward<ioChannelingNodeParent * &>
; Function compile flags: /Ogsp
; File c:\program files (x86)\microsoft visual studio 10.0\vc\include\utility
;	COMDAT ??$forward@AAPAVioChannelingNodeParent@@@std@@YAAAPAVioChannelingNodeParent@@AAPAV1@@Z
_TEXT	SEGMENT
__Arg$ = 8						; size = 4
??$forward@AAPAVioChannelingNodeParent@@@std@@YAAAPAVioChannelingNodeParent@@AAPAV1@@Z PROC ; std::forward<ioChannelingNodeParent * &>, COMDAT

; 78   : 	{	// forward _Arg, given explicitly specified type parameter

  00000	55		 push	 ebp
  00001	8b ec		 mov	 ebp, esp

; 79   : 	return ((_Ty&&)_Arg);

  00003	8b 45 08	 mov	 eax, DWORD PTR __Arg$[ebp]

; 80   : 	}

  00006	5d		 pop	 ebp
  00007	c3		 ret	 0
??$forward@AAPAVioChannelingNodeParent@@@std@@YAAAPAVioChannelingNodeParent@@AAPAV1@@Z ENDP ; std::forward<ioChannelingNodeParent * &>
_TEXT	ENDS
PUBLIC	??$forward@ABQAVioChannelingNodeParent@@@std@@YAABQAVioChannelingNodeParent@@ABQAV1@@Z ; std::forward<ioChannelingNodeParent * const &>
; Function compile flags: /Ogsp
;	COMDAT ??$forward@ABQAVioChannelingNodeParent@@@std@@YAABQAVioChannelingNodeParent@@ABQAV1@@Z
_TEXT	SEGMENT
__Arg$ = 8						; size = 4
??$forward@ABQAVioChannelingNodeParent@@@std@@YAABQAVioChannelingNodeParent@@ABQAV1@@Z PROC ; std::forward<ioChannelingNodeParent * const &>, COMDAT

; 78   : 	{	// forward _Arg, given explicitly specified type parameter

  00000	55		 push	 ebp
  00001	8b ec		 mov	 ebp, esp

; 79   : 	return ((_Ty&&)_Arg);

  00003	8b 45 08	 mov	 eax, DWORD PTR __Arg$[ebp]

; 80   : 	}

  00006	5d		 pop	 ebp
  00007	c3		 ret	 0
??$forward@ABQAVioChannelingNodeParent@@@std@@YAABQAVioChannelingNodeParent@@ABQAV1@@Z ENDP ; std::forward<ioChannelingNodeParent * const &>
_TEXT	ENDS
PUBLIC	??$_Ptr_cat@PAVioChannelingNodeParent@@PAV1@@std@@YA?AU_Scalar_ptr_iterator_tag@0@PAPAVioChannelingNodeParent@@0@Z ; std::_Ptr_cat<ioChannelingNodeParent *,ioChannelingNodeParent *>
; Function compile flags: /Ogsp
; File c:\program files (x86)\microsoft visual studio 10.0\vc\include\xutility
;	COMDAT ??$_Ptr_cat@PAVioChannelingNodeParent@@PAV1@@std@@YA?AU_Scalar_ptr_iterator_tag@0@PAPAVioChannelingNodeParent@@0@Z
_TEXT	SEGMENT
__Cat$ = -1						; size = 1
___formal$ = 8						; size = 4
___formal$ = 12						; size = 4
??$_Ptr_cat@PAVioChannelingNodeParent@@PAV1@@std@@YA?AU_Scalar_ptr_iterator_tag@0@PAPAVioChannelingNodeParent@@0@Z PROC ; std::_Ptr_cat<ioChannelingNodeParent *,ioChannelingNodeParent *>, COMDAT

; 516  : 	{	// return pointer category from pointers

  00000	55		 push	 ebp
  00001	8b ec		 mov	 ebp, esp
  00003	51		 push	 ecx

; 517  : 	typename _Ptr_cat_helper<_Elem1, _Elem2>::_Type _Cat;
; 518  : 	return (_Cat);

  00004	8a 45 ff	 mov	 al, BYTE PTR __Cat$[ebp]

; 519  : 	}

  00007	c9		 leave
  00008	c3		 ret	 0
??$_Ptr_cat@PAVioChannelingNodeParent@@PAV1@@std@@YA?AU_Scalar_ptr_iterator_tag@0@PAPAVioChannelingNodeParent@@0@Z ENDP ; std::_Ptr_cat<ioChannelingNodeParent *,ioChannelingNodeParent *>
_TEXT	ENDS
PUBLIC	??1bad_alloc@std@@UAE@XZ			; std::bad_alloc::~bad_alloc
EXTRN	__imp_??1exception@std@@UAE@XZ:PROC
; Function compile flags: /Ogsp
; File c:\program files (x86)\microsoft visual studio 10.0\vc\include\exception
;	COMDAT ??1bad_alloc@std@@UAE@XZ
_TEXT	SEGMENT
??1bad_alloc@std@@UAE@XZ PROC				; std::bad_alloc::~bad_alloc, COMDAT
; _this$ = ecx

; 354  : 		{	// destroy the object

  00000	c7 01 00 00 00
	00		 mov	 DWORD PTR [ecx], OFFSET ??_7bad_alloc@std@@6B@

; 355  : 		}

  00006	ff 25 00 00 00
	00		 jmp	 DWORD PTR __imp_??1exception@std@@UAE@XZ
??1bad_alloc@std@@UAE@XZ ENDP				; std::bad_alloc::~bad_alloc
_TEXT	ENDS
PUBLIC	??$_Move@PAPAVioChannelingNodeParent@@PAPAV1@@std@@YAPAPAVioChannelingNodeParent@@PAPAV1@00U_Scalar_ptr_iterator_tag@0@@Z ; std::_Move<ioChannelingNodeParent * *,ioChannelingNodeParent * *>
EXTRN	__imp__memmove:PROC
; Function compile flags: /Ogsp
; File c:\program files (x86)\microsoft visual studio 10.0\vc\include\xutility
;	COMDAT ??$_Move@PAPAVioChannelingNodeParent@@PAPAV1@@std@@YAPAPAVioChannelingNodeParent@@PAPAV1@00U_Scalar_ptr_iterator_tag@0@@Z
_TEXT	SEGMENT
__First$ = 8						; size = 4
__Last$ = 12						; size = 4
__Dest$ = 16						; size = 4
___formal$ = 20						; size = 1
??$_Move@PAPAVioChannelingNodeParent@@PAPAV1@@std@@YAPAPAVioChannelingNodeParent@@PAPAV1@00U_Scalar_ptr_iterator_tag@0@@Z PROC ; std::_Move<ioChannelingNodeParent * *,ioChannelingNodeParent * *>, COMDAT

; 2522 : 	{	// move [_First, _Last) to [_Dest, ...), pointers to scalars

  00000	55		 push	 ebp
  00001	8b ec		 mov	 ebp, esp
  00003	56		 push	 esi

; 2523 : 	ptrdiff_t _Count = _Last - _First;

  00004	8b 75 0c	 mov	 esi, DWORD PTR __Last$[ebp]
  00007	2b 75 08	 sub	 esi, DWORD PTR __First$[ebp]
  0000a	57		 push	 edi

; 2524 : 	_CSTD memmove(&*_Dest, &*_First,
; 2525 : 		_Count * sizeof (*_First));

  0000b	8b 7d 10	 mov	 edi, DWORD PTR __Dest$[ebp]
  0000e	c1 fe 02	 sar	 esi, 2
  00011	c1 e6 02	 shl	 esi, 2
  00014	56		 push	 esi
  00015	ff 75 08	 push	 DWORD PTR __First$[ebp]
  00018	57		 push	 edi
  00019	ff 15 00 00 00
	00		 call	 DWORD PTR __imp__memmove
  0001f	83 c4 0c	 add	 esp, 12			; 0000000cH

; 2526 : 	return (_Dest + _Count);

  00022	8d 04 3e	 lea	 eax, DWORD PTR [esi+edi]
  00025	5f		 pop	 edi
  00026	5e		 pop	 esi

; 2527 : 	}

  00027	5d		 pop	 ebp
  00028	c3		 ret	 0
??$_Move@PAPAVioChannelingNodeParent@@PAPAV1@@std@@YAPAPAVioChannelingNodeParent@@PAPAV1@00U_Scalar_ptr_iterator_tag@0@@Z ENDP ; std::_Move<ioChannelingNodeParent * *,ioChannelingNodeParent * *>
; Function compile flags: /Ogsp
_TEXT	ENDS
;	COMDAT ??_Gbad_alloc@std@@UAEPAXI@Z
_TEXT	SEGMENT
___flags$ = 8						; size = 4
??_Gbad_alloc@std@@UAEPAXI@Z PROC			; std::bad_alloc::`scalar deleting destructor', COMDAT
; _this$ = ecx
  00000	55		 push	 ebp
  00001	8b ec		 mov	 ebp, esp
  00003	56		 push	 esi
  00004	8b f1		 mov	 esi, ecx
  00006	c7 06 00 00 00
	00		 mov	 DWORD PTR [esi], OFFSET ??_7bad_alloc@std@@6B@
  0000c	ff 15 00 00 00
	00		 call	 DWORD PTR __imp_??1exception@std@@UAE@XZ
  00012	f6 45 08 01	 test	 BYTE PTR ___flags$[ebp], 1
  00016	74 07		 je	 SHORT $LN1@scalar
  00018	56		 push	 esi
  00019	e8 00 00 00 00	 call	 ??3@YAXPAX@Z		; operator delete
  0001e	59		 pop	 ecx
$LN1@scalar:
  0001f	8b c6		 mov	 eax, esi
  00021	5e		 pop	 esi
  00022	5d		 pop	 ebp
  00023	c2 04 00	 ret	 4
??_Gbad_alloc@std@@UAEPAXI@Z ENDP			; std::bad_alloc::`scalar deleting destructor'
_TEXT	ENDS
PUBLIC	??$_Destroy_range@V?$allocator@PAVioChannelingNodeParent@@@std@@@std@@YAXPAPAVioChannelingNodeParent@@0AAV?$allocator@PAVioChannelingNodeParent@@@0@U_Scalar_ptr_iterator_tag@0@@Z ; std::_Destroy_range<std::allocator<ioChannelingNodeParent *> >
; Function compile flags: /Ogsp
; File c:\program files (x86)\microsoft visual studio 10.0\vc\include\xmemory
;	COMDAT ??$_Destroy_range@V?$allocator@PAVioChannelingNodeParent@@@std@@@std@@YAXPAPAVioChannelingNodeParent@@0AAV?$allocator@PAVioChannelingNodeParent@@@0@U_Scalar_ptr_iterator_tag@0@@Z
_TEXT	SEGMENT
__First$ = 8						; size = 4
__Last$ = 12						; size = 4
__Al$ = 16						; size = 4
___formal$ = 20						; size = 1
??$_Destroy_range@V?$allocator@PAVioChannelingNodeParent@@@std@@@std@@YAXPAPAVioChannelingNodeParent@@0AAV?$allocator@PAVioChannelingNodeParent@@@0@U_Scalar_ptr_iterator_tag@0@@Z PROC ; std::_Destroy_range<std::allocator<ioChannelingNodeParent *> >, COMDAT

; 105  : 	}

  00000	c3		 ret	 0
??$_Destroy_range@V?$allocator@PAVioChannelingNodeParent@@@std@@@std@@YAXPAPAVioChannelingNodeParent@@0AAV?$allocator@PAVioChannelingNodeParent@@@0@U_Scalar_ptr_iterator_tag@0@@Z ENDP ; std::_Destroy_range<std::allocator<ioChannelingNodeParent *> >
_TEXT	ENDS
PUBLIC	??$_Val_type@PAPAVioChannelingNodeParent@@@std@@YAPAPAVioChannelingNodeParent@@PAPAV1@@Z ; std::_Val_type<ioChannelingNodeParent * *>
; Function compile flags: /Ogsp
; File c:\program files (x86)\microsoft visual studio 10.0\vc\include\xutility
;	COMDAT ??$_Val_type@PAPAVioChannelingNodeParent@@@std@@YAPAPAVioChannelingNodeParent@@PAPAV1@@Z
_TEXT	SEGMENT
___formal$ = 8						; size = 4
??$_Val_type@PAPAVioChannelingNodeParent@@@std@@YAPAPAVioChannelingNodeParent@@PAPAV1@@Z PROC ; std::_Val_type<ioChannelingNodeParent * *>, COMDAT

; 790  : 	return (0);

  00000	33 c0		 xor	 eax, eax

; 791  : 	}

  00002	c3		 ret	 0
??$_Val_type@PAPAVioChannelingNodeParent@@@std@@YAPAPAVioChannelingNodeParent@@PAPAV1@@Z ENDP ; std::_Val_type<ioChannelingNodeParent * *>
_TEXT	ENDS
PUBLIC	??$_Uninit_move@PAVioChannelingNodeParent@@PAV1@PAV1@@std@@YAPAPAVioChannelingNodeParent@@PAPAV1@00AAV?$allocator@PAVioChannelingNodeParent@@@0@0U_Scalar_ptr_iterator_tag@0@@Z ; std::_Uninit_move<ioChannelingNodeParent *,ioChannelingNodeParent *,ioChannelingNodeParent *>
; Function compile flags: /Ogsp
; File c:\program files (x86)\microsoft visual studio 10.0\vc\include\memory
;	COMDAT ??$_Uninit_move@PAVioChannelingNodeParent@@PAV1@PAV1@@std@@YAPAPAVioChannelingNodeParent@@PAPAV1@00AAV?$allocator@PAVioChannelingNodeParent@@@0@0U_Scalar_ptr_iterator_tag@0@@Z
_TEXT	SEGMENT
__First$ = 8						; size = 4
__Last$ = 12						; size = 4
__Dest$ = 16						; size = 4
___formal$ = 20						; size = 4
___formal$ = 24						; size = 4
___formal$ = 28						; size = 1
??$_Uninit_move@PAVioChannelingNodeParent@@PAV1@PAV1@@std@@YAPAPAVioChannelingNodeParent@@PAPAV1@00AAV?$allocator@PAVioChannelingNodeParent@@@0@0U_Scalar_ptr_iterator_tag@0@@Z PROC ; std::_Uninit_move<ioChannelingNodeParent *,ioChannelingNodeParent *,ioChannelingNodeParent *>, COMDAT

; 456  : 	{	// move [_First, _Last) to raw _Dest, scalar type

  00000	55		 push	 ebp
  00001	8b ec		 mov	 ebp, esp
  00003	56		 push	 esi

; 457  : 	_DEBUG_RANGE(_First, _Last);
; 458  : 	_DEBUG_POINTER(_Dest);
; 459  : 	size_t _Count = (size_t)(_Last - _First);

  00004	8b 75 0c	 mov	 esi, DWORD PTR __Last$[ebp]
  00007	2b 75 08	 sub	 esi, DWORD PTR __First$[ebp]
  0000a	c1 fe 02	 sar	 esi, 2

; 460  : 	return ((_Ty2 *)_CSTD memmove(&*_Dest, &*_First,
; 461  : 		_Count * sizeof (*_First)) + _Count);	// NB: non-overlapping move

  0000d	c1 e6 02	 shl	 esi, 2
  00010	56		 push	 esi
  00011	ff 75 08	 push	 DWORD PTR __First$[ebp]
  00014	ff 75 10	 push	 DWORD PTR __Dest$[ebp]
  00017	ff 15 00 00 00
	00		 call	 DWORD PTR __imp__memmove
  0001d	83 c4 0c	 add	 esp, 12			; 0000000cH
  00020	03 c6		 add	 eax, esi
  00022	5e		 pop	 esi

; 462  : 	}

  00023	5d		 pop	 ebp
  00024	c3		 ret	 0
??$_Uninit_move@PAVioChannelingNodeParent@@PAV1@PAV1@@std@@YAPAPAVioChannelingNodeParent@@PAPAV1@00AAV?$allocator@PAVioChannelingNodeParent@@@0@0U_Scalar_ptr_iterator_tag@0@@Z ENDP ; std::_Uninit_move<ioChannelingNodeParent *,ioChannelingNodeParent *,ioChannelingNodeParent *>
_TEXT	ENDS
PUBLIC	??2@YAPAXIPAX@Z					; operator new
; Function compile flags: /Ogsp
; File c:\program files (x86)\microsoft visual studio 10.0\vc\include\new
;	COMDAT ??2@YAPAXIPAX@Z
_TEXT	SEGMENT
___formal$ = 8						; size = 4
__Where$ = 12						; size = 4
??2@YAPAXIPAX@Z PROC					; operator new, COMDAT

; 56   : 	{	// construct array with placement at _Where

  00000	55		 push	 ebp
  00001	8b ec		 mov	 ebp, esp

; 57   : 	return (_Where);

  00003	8b 45 0c	 mov	 eax, DWORD PTR __Where$[ebp]

; 58   : 	}

  00006	5d		 pop	 ebp
  00007	c3		 ret	 0
??2@YAPAXIPAX@Z ENDP					; operator new
_TEXT	ENDS
PUBLIC	??3@YAXPAX0@Z					; operator delete
; Function compile flags: /Ogsp
;	COMDAT ??3@YAXPAX0@Z
_TEXT	SEGMENT
___formal$ = 8						; size = 4
___formal$ = 12						; size = 4
??3@YAXPAX0@Z PROC					; operator delete, COMDAT

; 62   : 	}

  00000	c3		 ret	 0
??3@YAXPAX0@Z ENDP					; operator delete
_TEXT	ENDS
PUBLIC	?_Adopt@_Iterator_base0@std@@QAEXPBX@Z		; std::_Iterator_base0::_Adopt
; Function compile flags: /Ogsp
; File c:\program files (x86)\microsoft visual studio 10.0\vc\include\xutility
;	COMDAT ?_Adopt@_Iterator_base0@std@@QAEXPBX@Z
_TEXT	SEGMENT
___formal$ = 8						; size = 4
?_Adopt@_Iterator_base0@std@@QAEXPBX@Z PROC		; std::_Iterator_base0::_Adopt, COMDAT
; _this$ = ecx

; 49   : 		}

  00000	c2 04 00	 ret	 4
?_Adopt@_Iterator_base0@std@@QAEXPBX@Z ENDP		; std::_Iterator_base0::_Adopt
_TEXT	ENDS
PUBLIC	?GetSingleton@ioChannelingNodeManager@@SAAAV1@XZ ; ioChannelingNodeManager::GetSingleton
; Function compile flags: /Ogsp
; File d:\lost saga for developer\youtube\tutorial\source\src\lsclient\channeling\iochannelingnodemanager.cpp
;	COMDAT ?GetSingleton@ioChannelingNodeManager@@SAAAV1@XZ
_TEXT	SEGMENT
?GetSingleton@ioChannelingNodeManager@@SAAAV1@XZ PROC	; ioChannelingNodeManager::GetSingleton, COMDAT

; 33   : 	return Singleton< ioChannelingNodeManager >::GetSingleton();

  00000	a1 00 00 00 00	 mov	 eax, DWORD PTR ?ms_Singleton@?$Singleton@VioChannelingNodeManager@@@@1PAVioChannelingNodeManager@@A ; Singleton<ioChannelingNodeManager>::ms_Singleton

; 34   : }

  00005	c3		 ret	 0
?GetSingleton@ioChannelingNodeManager@@SAAAV1@XZ ENDP	; ioChannelingNodeManager::GetSingleton
_TEXT	ENDS
PUBLIC	??D?$_Vector_iterator@V?$_Vector_val@PAVioChannelingNodeParent@@V?$allocator@PAVioChannelingNodeParent@@@std@@@std@@@std@@QBEAAPAVioChannelingNodeParent@@XZ ; std::_Vector_iterator<std::_Vector_val<ioChannelingNodeParent *,std::allocator<ioChannelingNodeParent *> > >::operator*
; Function compile flags: /Ogsp
; File c:\program files (x86)\microsoft visual studio 10.0\vc\include\vector
;	COMDAT ??D?$_Vector_iterator@V?$_Vector_val@PAVioChannelingNodeParent@@V?$allocator@PAVioChannelingNodeParent@@@std@@@std@@@std@@QBEAAPAVioChannelingNodeParent@@XZ
_TEXT	SEGMENT
??D?$_Vector_iterator@V?$_Vector_val@PAVioChannelingNodeParent@@V?$allocator@PAVioChannelingNodeParent@@@std@@@std@@@std@@QBEAAPAVioChannelingNodeParent@@XZ PROC ; std::_Vector_iterator<std::_Vector_val<ioChannelingNodeParent *,std::allocator<ioChannelingNodeParent *> > >::operator*, COMDAT
; _this$ = ecx

; 322  : 		return ((reference)**(_Mybase *)this);

  00000	8b 01		 mov	 eax, DWORD PTR [ecx]

; 323  : 		}

  00002	c3		 ret	 0
??D?$_Vector_iterator@V?$_Vector_val@PAVioChannelingNodeParent@@V?$allocator@PAVioChannelingNodeParent@@@std@@@std@@@std@@QBEAAPAVioChannelingNodeParent@@XZ ENDP ; std::_Vector_iterator<std::_Vector_val<ioChannelingNodeParent *,std::allocator<ioChannelingNodeParent *> > >::operator*
_TEXT	ENDS
PUBLIC	??E?$_Vector_iterator@V?$_Vector_val@PAVioChannelingNodeParent@@V?$allocator@PAVioChannelingNodeParent@@@std@@@std@@@std@@QAEAAV01@XZ ; std::_Vector_iterator<std::_Vector_val<ioChannelingNodeParent *,std::allocator<ioChannelingNodeParent *> > >::operator++
; Function compile flags: /Ogsp
;	COMDAT ??E?$_Vector_iterator@V?$_Vector_val@PAVioChannelingNodeParent@@V?$allocator@PAVioChannelingNodeParent@@@std@@@std@@@std@@QAEAAV01@XZ
_TEXT	SEGMENT
??E?$_Vector_iterator@V?$_Vector_val@PAVioChannelingNodeParent@@V?$allocator@PAVioChannelingNodeParent@@@std@@@std@@@std@@QAEAAV01@XZ PROC ; std::_Vector_iterator<std::_Vector_val<ioChannelingNodeParent *,std::allocator<ioChannelingNodeParent *> > >::operator++, COMDAT
; _this$ = ecx

; 331  : 		{	// preincrement

  00000	8b c1		 mov	 eax, ecx

; 332  : 		++*(_Mybase *)this;

  00002	83 00 04	 add	 DWORD PTR [eax], 4

; 333  : 		return (*this);
; 334  : 		}

  00005	c3		 ret	 0
??E?$_Vector_iterator@V?$_Vector_val@PAVioChannelingNodeParent@@V?$allocator@PAVioChannelingNodeParent@@@std@@@std@@@std@@QAEAAV01@XZ ENDP ; std::_Vector_iterator<std::_Vector_val<ioChannelingNodeParent *,std::allocator<ioChannelingNodeParent *> > >::operator++
_TEXT	ENDS
PUBLIC	?max_size@?$vector@PAVioChannelingNodeParent@@V?$allocator@PAVioChannelingNodeParent@@@std@@@std@@QBEIXZ ; std::vector<ioChannelingNodeParent *,std::allocator<ioChannelingNodeParent *> >::max_size
; Function compile flags: /Ogsp
;	COMDAT ?max_size@?$vector@PAVioChannelingNodeParent@@V?$allocator@PAVioChannelingNodeParent@@@std@@@std@@QBEIXZ
_TEXT	SEGMENT
?max_size@?$vector@PAVioChannelingNodeParent@@V?$allocator@PAVioChannelingNodeParent@@@std@@@std@@QBEIXZ PROC ; std::vector<ioChannelingNodeParent *,std::allocator<ioChannelingNodeParent *> >::max_size, COMDAT
; _this$ = ecx

; 884  : 		return (this->_Alval.max_size());

  00000	b8 ff ff ff 3f	 mov	 eax, 1073741823		; 3fffffffH

; 885  : 		}

  00005	c3		 ret	 0
?max_size@?$vector@PAVioChannelingNodeParent@@V?$allocator@PAVioChannelingNodeParent@@@std@@@std@@QBEIXZ ENDP ; std::vector<ioChannelingNodeParent *,std::allocator<ioChannelingNodeParent *> >::max_size
_TEXT	ENDS
PUBLIC	??0?$_Vector_val@PAVioChannelingNodeParent@@V?$allocator@PAVioChannelingNodeParent@@@std@@@std@@QAE@V?$allocator@PAVioChannelingNodeParent@@@1@@Z ; std::_Vector_val<ioChannelingNodeParent *,std::allocator<ioChannelingNodeParent *> >::_Vector_val<ioChannelingNodeParent *,std::allocator<ioChannelingNodeParent *> >
; Function compile flags: /Ogsp
;	COMDAT ??0?$_Vector_val@PAVioChannelingNodeParent@@V?$allocator@PAVioChannelingNodeParent@@@std@@@std@@QAE@V?$allocator@PAVioChannelingNodeParent@@@1@@Z
_TEXT	SEGMENT
__Al$ = 8						; size = 1
??0?$_Vector_val@PAVioChannelingNodeParent@@V?$allocator@PAVioChannelingNodeParent@@@std@@@std@@QAE@V?$allocator@PAVioChannelingNodeParent@@@1@@Z PROC ; std::_Vector_val<ioChannelingNodeParent *,std::allocator<ioChannelingNodeParent *> >::_Vector_val<ioChannelingNodeParent *,std::allocator<ioChannelingNodeParent *> >, COMDAT
; _this$ = ecx

; 426  : 		{	// construct allocator from _Al

  00000	8b c1		 mov	 eax, ecx

; 427  : 		_Myfirst = 0;

  00002	33 c9		 xor	 ecx, ecx
  00004	89 08		 mov	 DWORD PTR [eax], ecx

; 428  : 		_Mylast = 0;

  00006	89 48 04	 mov	 DWORD PTR [eax+4], ecx

; 429  : 		_Myend = 0;

  00009	89 48 08	 mov	 DWORD PTR [eax+8], ecx

; 430  : 		}

  0000c	c2 04 00	 ret	 4
??0?$_Vector_val@PAVioChannelingNodeParent@@V?$allocator@PAVioChannelingNodeParent@@@std@@@std@@QAE@V?$allocator@PAVioChannelingNodeParent@@@1@@Z ENDP ; std::_Vector_val<ioChannelingNodeParent *,std::allocator<ioChannelingNodeParent *> >::_Vector_val<ioChannelingNodeParent *,std::allocator<ioChannelingNodeParent *> >
_TEXT	ENDS
PUBLIC	??8?$_Vector_const_iterator@V?$_Vector_val@PAVioChannelingNodeParent@@V?$allocator@PAVioChannelingNodeParent@@@std@@@std@@@std@@QBE_NABV01@@Z ; std::_Vector_const_iterator<std::_Vector_val<ioChannelingNodeParent *,std::allocator<ioChannelingNodeParent *> > >::operator==
; Function compile flags: /Ogsp
;	COMDAT ??8?$_Vector_const_iterator@V?$_Vector_val@PAVioChannelingNodeParent@@V?$allocator@PAVioChannelingNodeParent@@@std@@@std@@@std@@QBE_NABV01@@Z
_TEXT	SEGMENT
__Right$ = 8						; size = 4
??8?$_Vector_const_iterator@V?$_Vector_val@PAVioChannelingNodeParent@@V?$allocator@PAVioChannelingNodeParent@@@std@@@std@@@std@@QBE_NABV01@@Z PROC ; std::_Vector_const_iterator<std::_Vector_val<ioChannelingNodeParent *,std::allocator<ioChannelingNodeParent *> > >::operator==, COMDAT
; _this$ = ecx

; 201  : 		{	// test for iterator equality

  00000	55		 push	 ebp
  00001	8b ec		 mov	 ebp, esp

; 202  : 		_Compat(_Right);
; 203  : 		return (this->_Ptr == _Right._Ptr);

  00003	8b 01		 mov	 eax, DWORD PTR [ecx]
  00005	8b 4d 08	 mov	 ecx, DWORD PTR __Right$[ebp]
  00008	2b 01		 sub	 eax, DWORD PTR [ecx]
  0000a	f7 d8		 neg	 eax
  0000c	1b c0		 sbb	 eax, eax
  0000e	40		 inc	 eax

; 204  : 		}

  0000f	5d		 pop	 ebp
  00010	c2 04 00	 ret	 4
??8?$_Vector_const_iterator@V?$_Vector_val@PAVioChannelingNodeParent@@V?$allocator@PAVioChannelingNodeParent@@@std@@@std@@@std@@QBE_NABV01@@Z ENDP ; std::_Vector_const_iterator<std::_Vector_val<ioChannelingNodeParent *,std::allocator<ioChannelingNodeParent *> > >::operator==
_TEXT	ENDS
PUBLIC	?_Grow_to@?$vector@PAVioChannelingNodeParent@@V?$allocator@PAVioChannelingNodeParent@@@std@@@std@@IBEII@Z ; std::vector<ioChannelingNodeParent *,std::allocator<ioChannelingNodeParent *> >::_Grow_to
; Function compile flags: /Ogsp
;	COMDAT ?_Grow_to@?$vector@PAVioChannelingNodeParent@@V?$allocator@PAVioChannelingNodeParent@@@std@@@std@@IBEII@Z
_TEXT	SEGMENT
__Count$ = 8						; size = 4
?_Grow_to@?$vector@PAVioChannelingNodeParent@@V?$allocator@PAVioChannelingNodeParent@@@std@@@std@@IBEII@Z PROC ; std::vector<ioChannelingNodeParent *,std::allocator<ioChannelingNodeParent *> >::_Grow_to, COMDAT
; _this$ = ecx

; 1274 : 		{	// grow by 50% or at least to _Count

  00000	55		 push	 ebp
  00001	8b ec		 mov	 ebp, esp

; 1275 : 		size_type _Capacity = capacity();

  00003	8b 41 08	 mov	 eax, DWORD PTR [ecx+8]
  00006	2b 01		 sub	 eax, DWORD PTR [ecx]

; 1276 : 
; 1277 : 		_Capacity = max_size() - _Capacity / 2 < _Capacity
; 1278 : 			? 0 : _Capacity + _Capacity / 2;	// try to grow by 50%

  00008	ba ff ff ff 3f	 mov	 edx, 1073741823		; 3fffffffH
  0000d	c1 f8 02	 sar	 eax, 2
  00010	8b c8		 mov	 ecx, eax
  00012	d1 e9		 shr	 ecx, 1
  00014	2b d1		 sub	 edx, ecx
  00016	3b d0		 cmp	 edx, eax
  00018	73 04		 jae	 SHORT $LN4@Grow_to
  0001a	33 c0		 xor	 eax, eax
  0001c	eb 02		 jmp	 SHORT $LN5@Grow_to
$LN4@Grow_to:
  0001e	03 c1		 add	 eax, ecx
$LN5@Grow_to:

; 1279 : 		if (_Capacity < _Count)

  00020	3b 45 08	 cmp	 eax, DWORD PTR __Count$[ebp]

; 1280 : 			_Capacity = _Count;

  00023	0f 42 45 08	 cmovb	 eax, DWORD PTR __Count$[ebp]

; 1281 : 		return (_Capacity);
; 1282 : 		}

  00027	5d		 pop	 ebp
  00028	c2 04 00	 ret	 4
?_Grow_to@?$vector@PAVioChannelingNodeParent@@V?$allocator@PAVioChannelingNodeParent@@@std@@@std@@IBEII@Z ENDP ; std::vector<ioChannelingNodeParent *,std::allocator<ioChannelingNodeParent *> >::_Grow_to
_TEXT	ENDS
PUBLIC	??0?$_Vector_const_iterator@V?$_Vector_val@PAVioChannelingNodeParent@@V?$allocator@PAVioChannelingNodeParent@@@std@@@std@@@std@@QAE@PAPAVioChannelingNodeParent@@PBU_Container_base0@1@@Z ; std::_Vector_const_iterator<std::_Vector_val<ioChannelingNodeParent *,std::allocator<ioChannelingNodeParent *> > >::_Vector_const_iterator<std::_Vector_val<ioChannelingNodeParent *,std::allocator<ioChannelingNodeParent *> > >
; Function compile flags: /Ogsp
;	COMDAT ??0?$_Vector_const_iterator@V?$_Vector_val@PAVioChannelingNodeParent@@V?$allocator@PAVioChannelingNodeParent@@@std@@@std@@@std@@QAE@PAPAVioChannelingNodeParent@@PBU_Container_base0@1@@Z
_TEXT	SEGMENT
__Parg$ = 8						; size = 4
__Pvector$ = 12						; size = 4
??0?$_Vector_const_iterator@V?$_Vector_val@PAVioChannelingNodeParent@@V?$allocator@PAVioChannelingNodeParent@@@std@@@std@@@std@@QAE@PAPAVioChannelingNodeParent@@PBU_Container_base0@1@@Z PROC ; std::_Vector_const_iterator<std::_Vector_val<ioChannelingNodeParent *,std::allocator<ioChannelingNodeParent *> > >::_Vector_const_iterator<std::_Vector_val<ioChannelingNodeParent *,std::allocator<ioChannelingNodeParent *> > >, COMDAT
; _this$ = ecx

; 45   : 		{	// construct with pointer _Parg

  00000	55		 push	 ebp
  00001	8b ec		 mov	 ebp, esp
  00003	8b c1		 mov	 eax, ecx
  00005	8b 4d 08	 mov	 ecx, DWORD PTR __Parg$[ebp]
  00008	89 08		 mov	 DWORD PTR [eax], ecx

; 46   : 		this->_Adopt(_Pvector);
; 47   : 		}

  0000a	5d		 pop	 ebp
  0000b	c2 08 00	 ret	 8
??0?$_Vector_const_iterator@V?$_Vector_val@PAVioChannelingNodeParent@@V?$allocator@PAVioChannelingNodeParent@@@std@@@std@@@std@@QAE@PAPAVioChannelingNodeParent@@PBU_Container_base0@1@@Z ENDP ; std::_Vector_const_iterator<std::_Vector_val<ioChannelingNodeParent *,std::allocator<ioChannelingNodeParent *> > >::_Vector_const_iterator<std::_Vector_val<ioChannelingNodeParent *,std::allocator<ioChannelingNodeParent *> > >
_TEXT	ENDS
PUBLIC	??$_Move@PAPAVioChannelingNodeParent@@PAPAV1@@std@@YAPAPAVioChannelingNodeParent@@PAPAV1@00@Z ; std::_Move<ioChannelingNodeParent * *,ioChannelingNodeParent * *>
; Function compile flags: /Ogsp
; File c:\program files (x86)\microsoft visual studio 10.0\vc\include\xutility
;	COMDAT ??$_Move@PAPAVioChannelingNodeParent@@PAPAV1@@std@@YAPAPAVioChannelingNodeParent@@PAPAV1@00@Z
_TEXT	SEGMENT
__Cat$506947 = -4					; size = 1
__First$ = 8						; size = 4
__Last$ = 12						; size = 4
__Dest$ = 16						; size = 4
??$_Move@PAPAVioChannelingNodeParent@@PAPAV1@@std@@YAPAPAVioChannelingNodeParent@@PAPAV1@00@Z PROC ; std::_Move<ioChannelingNodeParent * *,ioChannelingNodeParent * *>, COMDAT

; 2533 : 	{	// move [_First, _Last) to [_Dest, ...), unchecked

  00000	55		 push	 ebp
  00001	8b ec		 mov	 ebp, esp
  00003	51		 push	 ecx

; 2534 : 	return (_Move(_First, _Last,
; 2535 : 		_Dest, _Ptr_cat(_First, _Dest)));

  00004	ff 75 fc	 push	 DWORD PTR __Cat$506947[ebp]
  00007	ff 75 10	 push	 DWORD PTR __Dest$[ebp]
  0000a	ff 75 0c	 push	 DWORD PTR __Last$[ebp]
  0000d	ff 75 08	 push	 DWORD PTR __First$[ebp]
  00010	e8 00 00 00 00	 call	 ??$_Move@PAPAVioChannelingNodeParent@@PAPAV1@@std@@YAPAPAVioChannelingNodeParent@@PAPAV1@00U_Scalar_ptr_iterator_tag@0@@Z ; std::_Move<ioChannelingNodeParent * *,ioChannelingNodeParent * *>
  00015	83 c4 10	 add	 esp, 16			; 00000010H

; 2536 : 	}

  00018	c9		 leave
  00019	c3		 ret	 0
??$_Move@PAPAVioChannelingNodeParent@@PAPAV1@@std@@YAPAPAVioChannelingNodeParent@@PAPAV1@00@Z ENDP ; std::_Move<ioChannelingNodeParent * *,ioChannelingNodeParent * *>
_TEXT	ENDS
PUBLIC	??$_Destroy_range@V?$allocator@PAVioChannelingNodeParent@@@std@@@std@@YAXPAPAVioChannelingNodeParent@@0AAV?$allocator@PAVioChannelingNodeParent@@@0@@Z ; std::_Destroy_range<std::allocator<ioChannelingNodeParent *> >
; Function compile flags: /Ogsp
; File c:\program files (x86)\microsoft visual studio 10.0\vc\include\xmemory
;	COMDAT ??$_Destroy_range@V?$allocator@PAVioChannelingNodeParent@@@std@@@std@@YAXPAPAVioChannelingNodeParent@@0AAV?$allocator@PAVioChannelingNodeParent@@@0@@Z
_TEXT	SEGMENT
__First$ = 8						; size = 4
__Last$ = 12						; size = 4
__Al$ = 16						; size = 4
??$_Destroy_range@V?$allocator@PAVioChannelingNodeParent@@@std@@@std@@YAXPAPAVioChannelingNodeParent@@0AAV?$allocator@PAVioChannelingNodeParent@@@0@@Z PROC ; std::_Destroy_range<std::allocator<ioChannelingNodeParent *> >, COMDAT

; 88   : 	_Destroy_range(_First, _Last, _Al, _Ptr_cat(_First, _Last));
; 89   : 	}

  00000	c3		 ret	 0
??$_Destroy_range@V?$allocator@PAVioChannelingNodeParent@@@std@@@std@@YAXPAPAVioChannelingNodeParent@@0AAV?$allocator@PAVioChannelingNodeParent@@@0@@Z ENDP ; std::_Destroy_range<std::allocator<ioChannelingNodeParent *> >
_TEXT	ENDS
PUBLIC	__TI2?AVbad_alloc@std@@
PUBLIC	??$_Allocate@PAVioChannelingNodeParent@@@std@@YAPAPAVioChannelingNodeParent@@IPAPAV1@@Z ; std::_Allocate<ioChannelingNodeParent *>
PUBLIC	__CTA2?AVbad_alloc@std@@
PUBLIC	__CT??_R0?AVbad_alloc@std@@@8??0bad_alloc@std@@QAE@ABV01@@Z12
PUBLIC	??0bad_alloc@std@@QAE@ABV01@@Z			; std::bad_alloc::bad_alloc
PUBLIC	__CT??_R0?AVexception@std@@@8??0exception@std@@QAE@ABV01@@Z12
EXTRN	__CxxThrowException@8:PROC
EXTRN	??0exception@std@@QAE@ABV01@@Z:PROC		; std::exception::exception
;	COMDAT __CT??_R0?AVexception@std@@@8??0exception@std@@QAE@ABV01@@Z12
; File c:\program files (x86)\microsoft visual studio 10.0\vc\include\exception
xdata$x	SEGMENT
__CT??_R0?AVexception@std@@@8??0exception@std@@QAE@ABV01@@Z12 DD 00H
	DD	FLAT:??_R0?AVexception@std@@@8
	DD	00H
	DD	0ffffffffH
	ORG $+4
	DD	0cH
	DD	FLAT:??0exception@std@@QAE@ABV01@@Z
xdata$x	ENDS
;	COMDAT __CT??_R0?AVbad_alloc@std@@@8??0bad_alloc@std@@QAE@ABV01@@Z12
xdata$x	SEGMENT
__CT??_R0?AVbad_alloc@std@@@8??0bad_alloc@std@@QAE@ABV01@@Z12 DD 00H
	DD	FLAT:??_R0?AVbad_alloc@std@@@8
	DD	00H
	DD	0ffffffffH
	ORG $+4
	DD	0cH
	DD	FLAT:??0bad_alloc@std@@QAE@ABV01@@Z
xdata$x	ENDS
;	COMDAT __CTA2?AVbad_alloc@std@@
xdata$x	SEGMENT
__CTA2?AVbad_alloc@std@@ DD 02H
	DD	FLAT:__CT??_R0?AVbad_alloc@std@@@8??0bad_alloc@std@@QAE@ABV01@@Z12
	DD	FLAT:__CT??_R0?AVexception@std@@@8??0exception@std@@QAE@ABV01@@Z12
xdata$x	ENDS
;	COMDAT __TI2?AVbad_alloc@std@@
xdata$x	SEGMENT
__TI2?AVbad_alloc@std@@ DD 00H
	DD	FLAT:??1bad_alloc@std@@UAE@XZ
	DD	00H
	DD	FLAT:__CTA2?AVbad_alloc@std@@
; Function compile flags: /Ogsp
; File c:\program files (x86)\microsoft visual studio 10.0\vc\include\xmemory
xdata$x	ENDS
;	COMDAT ??$_Allocate@PAVioChannelingNodeParent@@@std@@YAPAPAVioChannelingNodeParent@@IPAPAV1@@Z
_TEXT	SEGMENT
$T506961 = -12						; size = 12
$T506966 = 8						; size = 4
__Count$ = 8						; size = 4
___formal$ = 12						; size = 4
??$_Allocate@PAVioChannelingNodeParent@@@std@@YAPAPAVioChannelingNodeParent@@IPAPAV1@@Z PROC ; std::_Allocate<ioChannelingNodeParent *>, COMDAT

; 30   : 	{	// allocate storage for _Count elements of type _Ty

  00000	55		 push	 ebp
  00001	8b ec		 mov	 ebp, esp

; 31   : 	void *_Ptr = 0;
; 32   : 
; 33   : 	if (_Count <= 0)

  00003	8b 4d 08	 mov	 ecx, DWORD PTR __Count$[ebp]
  00006	83 ec 0c	 sub	 esp, 12			; 0000000cH
  00009	33 c0		 xor	 eax, eax
  0000b	85 c9		 test	 ecx, ecx

; 34   : 		_Count = 0;
; 35   : 	else if (((_SIZT)(-1) / sizeof (_Ty) < _Count)

  0000d	74 3e		 je	 SHORT $LN5@Allocate

; 36   : 		|| (_Ptr = ::operator new(_Count * sizeof (_Ty))) == 0)

  0000f	81 f9 ff ff ff
	3f		 cmp	 ecx, 1073741823		; 3fffffffH
  00015	77 10		 ja	 SHORT $LN1@Allocate
  00017	8b c1		 mov	 eax, ecx
  00019	c1 e0 02	 shl	 eax, 2
  0001c	50		 push	 eax
  0001d	e8 00 00 00 00	 call	 ??2@YAPAXI@Z		; operator new
  00022	59		 pop	 ecx
  00023	85 c0		 test	 eax, eax

; 38   : 
; 39   : 	return ((_Ty _FARQ *)_Ptr);

  00025	75 26		 jne	 SHORT $LN5@Allocate
$LN1@Allocate:

; 37   : 		_THROW_NCEE(bad_alloc, 0);

  00027	83 65 08 00	 and	 DWORD PTR $T506966[ebp], 0
  0002b	8d 45 08	 lea	 eax, DWORD PTR $T506966[ebp]
  0002e	50		 push	 eax
  0002f	8d 4d f4	 lea	 ecx, DWORD PTR $T506961[ebp]
  00032	ff 15 00 00 00
	00		 call	 DWORD PTR __imp_??0exception@std@@QAE@ABQBD@Z
  00038	68 00 00 00 00	 push	 OFFSET __TI2?AVbad_alloc@std@@
  0003d	8d 45 f4	 lea	 eax, DWORD PTR $T506961[ebp]
  00040	50		 push	 eax
  00041	c7 45 f4 00 00
	00 00		 mov	 DWORD PTR $T506961[ebp], OFFSET ??_7bad_alloc@std@@6B@
  00048	e8 00 00 00 00	 call	 __CxxThrowException@8
$LN10@Allocate:
$LN5@Allocate:

; 40   : 	}

  0004d	c9		 leave
  0004e	c3		 ret	 0
$LN9@Allocate:
??$_Allocate@PAVioChannelingNodeParent@@@std@@YAPAPAVioChannelingNodeParent@@IPAPAV1@@Z ENDP ; std::_Allocate<ioChannelingNodeParent *>
_TEXT	ENDS
EXTRN	__imp_??0exception@std@@QAE@ABV01@@Z:PROC
; Function compile flags: /Ogsp
;	COMDAT ??0bad_alloc@std@@QAE@ABV01@@Z
_TEXT	SEGMENT
___that$ = 8						; size = 4
??0bad_alloc@std@@QAE@ABV01@@Z PROC			; std::bad_alloc::bad_alloc, COMDAT
; _this$ = ecx
  00000	55		 push	 ebp
  00001	8b ec		 mov	 ebp, esp
  00003	56		 push	 esi
  00004	ff 75 08	 push	 DWORD PTR ___that$[ebp]
  00007	8b f1		 mov	 esi, ecx
  00009	ff 15 00 00 00
	00		 call	 DWORD PTR __imp_??0exception@std@@QAE@ABV01@@Z
  0000f	c7 06 00 00 00
	00		 mov	 DWORD PTR [esi], OFFSET ??_7bad_alloc@std@@6B@
  00015	8b c6		 mov	 eax, esi
  00017	5e		 pop	 esi
  00018	5d		 pop	 ebp
  00019	c2 04 00	 ret	 4
??0bad_alloc@std@@QAE@ABV01@@Z ENDP			; std::bad_alloc::bad_alloc
_TEXT	ENDS
PUBLIC	??$_Uninitialized_move@PAPAVioChannelingNodeParent@@PAPAV1@V?$allocator@PAVioChannelingNodeParent@@@std@@@std@@YAPAPAVioChannelingNodeParent@@PAPAV1@00AAV?$allocator@PAVioChannelingNodeParent@@@0@@Z ; std::_Uninitialized_move<ioChannelingNodeParent * *,ioChannelingNodeParent * *,std::allocator<ioChannelingNodeParent *> >
; Function compile flags: /Ogsp
; File c:\program files (x86)\microsoft visual studio 10.0\vc\include\memory
;	COMDAT ??$_Uninitialized_move@PAPAVioChannelingNodeParent@@PAPAV1@V?$allocator@PAVioChannelingNodeParent@@@std@@@std@@YAPAPAVioChannelingNodeParent@@PAPAV1@00AAV?$allocator@PAVioChannelingNodeParent@@@0@@Z
_TEXT	SEGMENT
__First$ = 8						; size = 4
__Last$ = 12						; size = 4
__Dest$ = 16						; size = 4
__Al$ = 20						; size = 4
??$_Uninitialized_move@PAPAVioChannelingNodeParent@@PAPAV1@V?$allocator@PAVioChannelingNodeParent@@@std@@@std@@YAPAPAVioChannelingNodeParent@@PAPAV1@00AAV?$allocator@PAVioChannelingNodeParent@@@0@@Z PROC ; std::_Uninitialized_move<ioChannelingNodeParent * *,ioChannelingNodeParent * *,std::allocator<ioChannelingNodeParent *> >, COMDAT

; 469  : 	{	// move [_First, _Last) to raw _Dest, using _Al

  00000	55		 push	 ebp
  00001	8b ec		 mov	 ebp, esp
  00003	56		 push	 esi

; 470  : 	return (_Uninit_move(_First, _Last, _Dest, _Al,
; 471  : 		_Val_type(_First), _Ptr_cat(_First, _Dest)));

  00004	8b 75 0c	 mov	 esi, DWORD PTR __Last$[ebp]
  00007	2b 75 08	 sub	 esi, DWORD PTR __First$[ebp]
  0000a	c1 fe 02	 sar	 esi, 2
  0000d	c1 e6 02	 shl	 esi, 2
  00010	56		 push	 esi
  00011	ff 75 08	 push	 DWORD PTR __First$[ebp]
  00014	ff 75 10	 push	 DWORD PTR __Dest$[ebp]
  00017	ff 15 00 00 00
	00		 call	 DWORD PTR __imp__memmove
  0001d	83 c4 0c	 add	 esp, 12			; 0000000cH
  00020	03 c6		 add	 eax, esi
  00022	5e		 pop	 esi

; 472  : 	}

  00023	5d		 pop	 ebp
  00024	c3		 ret	 0
??$_Uninitialized_move@PAPAVioChannelingNodeParent@@PAPAV1@V?$allocator@PAVioChannelingNodeParent@@@std@@@std@@YAPAPAVioChannelingNodeParent@@PAPAV1@00AAV?$allocator@PAVioChannelingNodeParent@@@0@@Z ENDP ; std::_Uninitialized_move<ioChannelingNodeParent * *,ioChannelingNodeParent * *,std::allocator<ioChannelingNodeParent *> >
_TEXT	ENDS
PUBLIC	??$construct@AAPAVioChannelingNodeParent@@@?$allocator@PAVioChannelingNodeParent@@@std@@QAEXPAPAVioChannelingNodeParent@@AAPAV2@@Z ; std::allocator<ioChannelingNodeParent *>::construct<ioChannelingNodeParent * &>
; Function compile flags: /Ogsp
; File c:\program files (x86)\microsoft visual studio 10.0\vc\include\xmemory
;	COMDAT ??$construct@AAPAVioChannelingNodeParent@@@?$allocator@PAVioChannelingNodeParent@@@std@@QAEXPAPAVioChannelingNodeParent@@AAPAV2@@Z
_TEXT	SEGMENT
__Ptr$ = 8						; size = 4
__Val$ = 12						; size = 4
??$construct@AAPAVioChannelingNodeParent@@@?$allocator@PAVioChannelingNodeParent@@@std@@QAEXPAPAVioChannelingNodeParent@@AAPAV2@@Z PROC ; std::allocator<ioChannelingNodeParent *>::construct<ioChannelingNodeParent * &>, COMDAT
; _this$ = ecx

; 206  : 		void construct(pointer _Ptr, _Other&& _Val)

  00000	55		 push	 ebp
  00001	8b ec		 mov	 ebp, esp

; 207  : 		{	// construct object at _Ptr with value _Val
; 208  : 		::new ((void _FARQ *)_Ptr) _Ty(_STD forward<_Other>(_Val));

  00003	8b 45 08	 mov	 eax, DWORD PTR __Ptr$[ebp]
  00006	85 c0		 test	 eax, eax
  00008	74 07		 je	 SHORT $LN3@construct
  0000a	8b 4d 0c	 mov	 ecx, DWORD PTR __Val$[ebp]
  0000d	8b 09		 mov	 ecx, DWORD PTR [ecx]
  0000f	89 08		 mov	 DWORD PTR [eax], ecx
$LN3@construct:

; 209  : 		}

  00011	5d		 pop	 ebp
  00012	c2 08 00	 ret	 8
??$construct@AAPAVioChannelingNodeParent@@@?$allocator@PAVioChannelingNodeParent@@@std@@QAEXPAPAVioChannelingNodeParent@@AAPAV2@@Z ENDP ; std::allocator<ioChannelingNodeParent *>::construct<ioChannelingNodeParent * &>
_TEXT	ENDS
PUBLIC	??$_Construct@PAVioChannelingNodeParent@@ABQAV1@@std@@YAXPAPAVioChannelingNodeParent@@ABQAV1@@Z ; std::_Construct<ioChannelingNodeParent *,ioChannelingNodeParent * const &>
; Function compile flags: /Ogsp
;	COMDAT ??$_Construct@PAVioChannelingNodeParent@@ABQAV1@@std@@YAXPAPAVioChannelingNodeParent@@ABQAV1@@Z
_TEXT	SEGMENT
__Ptr$ = 8						; size = 4
__Val$ = 12						; size = 4
??$_Construct@PAVioChannelingNodeParent@@ABQAV1@@std@@YAXPAPAVioChannelingNodeParent@@ABQAV1@@Z PROC ; std::_Construct<ioChannelingNodeParent *,ioChannelingNodeParent * const &>, COMDAT

; 46   : 	{	// construct object at _Ptr with value _Val

  00000	55		 push	 ebp
  00001	8b ec		 mov	 ebp, esp

; 47   : 	void _FARQ *_Vptr = _Ptr;
; 48   : 	::new (_Vptr) _Ty1(_STD forward<_Ty2>(_Val));

  00003	8b 45 08	 mov	 eax, DWORD PTR __Ptr$[ebp]
  00006	85 c0		 test	 eax, eax
  00008	74 07		 je	 SHORT $LN3@Construct
  0000a	8b 4d 0c	 mov	 ecx, DWORD PTR __Val$[ebp]
  0000d	8b 09		 mov	 ecx, DWORD PTR [ecx]
  0000f	89 08		 mov	 DWORD PTR [eax], ecx
$LN3@Construct:

; 49   : 	}

  00011	5d		 pop	 ebp
  00012	c3		 ret	 0
??$_Construct@PAVioChannelingNodeParent@@ABQAV1@@std@@YAXPAPAVioChannelingNodeParent@@ABQAV1@@Z ENDP ; std::_Construct<ioChannelingNodeParent *,ioChannelingNodeParent * const &>
_TEXT	ENDS
PUBLIC	??0?$vector@PAVioChannelingNodeParent@@V?$allocator@PAVioChannelingNodeParent@@@std@@@std@@QAE@XZ ; std::vector<ioChannelingNodeParent *,std::allocator<ioChannelingNodeParent *> >::vector<ioChannelingNodeParent *,std::allocator<ioChannelingNodeParent *> >
; Function compile flags: /Ogsp
; File c:\program files (x86)\microsoft visual studio 10.0\vc\include\vector
;	COMDAT ??0?$vector@PAVioChannelingNodeParent@@V?$allocator@PAVioChannelingNodeParent@@@std@@@std@@QAE@XZ
_TEXT	SEGMENT
??0?$vector@PAVioChannelingNodeParent@@V?$allocator@PAVioChannelingNodeParent@@@std@@@std@@QAE@XZ PROC ; std::vector<ioChannelingNodeParent *,std::allocator<ioChannelingNodeParent *> >::vector<ioChannelingNodeParent *,std::allocator<ioChannelingNodeParent *> >, COMDAT
; _this$ = ecx

; 507  : 		{	// construct empty vector

  00000	8b c1		 mov	 eax, ecx
  00002	33 c9		 xor	 ecx, ecx
  00004	89 08		 mov	 DWORD PTR [eax], ecx
  00006	89 48 04	 mov	 DWORD PTR [eax+4], ecx
  00009	89 48 08	 mov	 DWORD PTR [eax+8], ecx

; 508  : 		}

  0000c	c3		 ret	 0
??0?$vector@PAVioChannelingNodeParent@@V?$allocator@PAVioChannelingNodeParent@@@std@@@std@@QAE@XZ ENDP ; std::vector<ioChannelingNodeParent *,std::allocator<ioChannelingNodeParent *> >::vector<ioChannelingNodeParent *,std::allocator<ioChannelingNodeParent *> >
_TEXT	ENDS
PUBLIC	??9?$_Vector_const_iterator@V?$_Vector_val@PAVioChannelingNodeParent@@V?$allocator@PAVioChannelingNodeParent@@@std@@@std@@@std@@QBE_NABV01@@Z ; std::_Vector_const_iterator<std::_Vector_val<ioChannelingNodeParent *,std::allocator<ioChannelingNodeParent *> > >::operator!=
; Function compile flags: /Ogsp
;	COMDAT ??9?$_Vector_const_iterator@V?$_Vector_val@PAVioChannelingNodeParent@@V?$allocator@PAVioChannelingNodeParent@@@std@@@std@@@std@@QBE_NABV01@@Z
_TEXT	SEGMENT
__Right$ = 8						; size = 4
??9?$_Vector_const_iterator@V?$_Vector_val@PAVioChannelingNodeParent@@V?$allocator@PAVioChannelingNodeParent@@@std@@@std@@@std@@QBE_NABV01@@Z PROC ; std::_Vector_const_iterator<std::_Vector_val<ioChannelingNodeParent *,std::allocator<ioChannelingNodeParent *> > >::operator!=, COMDAT
; _this$ = ecx

; 207  : 		{	// test for iterator inequality

  00000	55		 push	 ebp
  00001	8b ec		 mov	 ebp, esp

; 208  : 		return (!(*this == _Right));

  00003	8b 01		 mov	 eax, DWORD PTR [ecx]
  00005	8b 55 08	 mov	 edx, DWORD PTR __Right$[ebp]
  00008	33 c9		 xor	 ecx, ecx
  0000a	3b 02		 cmp	 eax, DWORD PTR [edx]
  0000c	0f 95 c0	 setne	 al

; 209  : 		}

  0000f	5d		 pop	 ebp
  00010	c2 04 00	 ret	 4
??9?$_Vector_const_iterator@V?$_Vector_val@PAVioChannelingNodeParent@@V?$allocator@PAVioChannelingNodeParent@@@std@@@std@@@std@@QBE_NABV01@@Z ENDP ; std::_Vector_const_iterator<std::_Vector_val<ioChannelingNodeParent *,std::allocator<ioChannelingNodeParent *> > >::operator!=
_TEXT	ENDS
PUBLIC	?_Destroy@?$vector@PAVioChannelingNodeParent@@V?$allocator@PAVioChannelingNodeParent@@@std@@@std@@IAEXPAPAVioChannelingNodeParent@@0@Z ; std::vector<ioChannelingNodeParent *,std::allocator<ioChannelingNodeParent *> >::_Destroy
; Function compile flags: /Ogsp
;	COMDAT ?_Destroy@?$vector@PAVioChannelingNodeParent@@V?$allocator@PAVioChannelingNodeParent@@@std@@@std@@IAEXPAPAVioChannelingNodeParent@@0@Z
_TEXT	SEGMENT
__First$ = 8						; size = 4
__Last$ = 12						; size = 4
?_Destroy@?$vector@PAVioChannelingNodeParent@@V?$allocator@PAVioChannelingNodeParent@@@std@@@std@@IAEXPAPAVioChannelingNodeParent@@0@Z PROC ; std::vector<ioChannelingNodeParent *,std::allocator<ioChannelingNodeParent *> >::_Destroy, COMDAT
; _this$ = ecx

; 1270 : 		_Destroy_range(_First, _Last, this->_Alval);
; 1271 : 		}

  00000	c2 08 00	 ret	 8
?_Destroy@?$vector@PAVioChannelingNodeParent@@V?$allocator@PAVioChannelingNodeParent@@@std@@@std@@IAEXPAPAVioChannelingNodeParent@@0@Z ENDP ; std::vector<ioChannelingNodeParent *,std::allocator<ioChannelingNodeParent *> >::_Destroy
_TEXT	ENDS
PUBLIC	?_Tidy@?$vector@PAVioChannelingNodeParent@@V?$allocator@PAVioChannelingNodeParent@@@std@@@std@@IAEXXZ ; std::vector<ioChannelingNodeParent *,std::allocator<ioChannelingNodeParent *> >::_Tidy
EXTRN	__imp_?_Orphan_all@_Container_base0@std@@QAEXXZ:PROC
; Function compile flags: /Ogsp
;	COMDAT ?_Tidy@?$vector@PAVioChannelingNodeParent@@V?$allocator@PAVioChannelingNodeParent@@@std@@@std@@IAEXXZ
_TEXT	SEGMENT
?_Tidy@?$vector@PAVioChannelingNodeParent@@V?$allocator@PAVioChannelingNodeParent@@@std@@@std@@IAEXXZ PROC ; std::vector<ioChannelingNodeParent *,std::allocator<ioChannelingNodeParent *> >::_Tidy, COMDAT
; _this$ = ecx

; 1301 : 		{	// free all storage

  00000	56		 push	 esi
  00001	8b f1		 mov	 esi, ecx

; 1302 : 		if (this->_Myfirst != 0)

  00003	83 3e 00	 cmp	 DWORD PTR [esi], 0
  00006	74 0e		 je	 SHORT $LN12@Tidy

; 1303 : 			{	// something to free, destroy and deallocate it
; 1304 : 			this->_Orphan_all();

  00008	ff 15 00 00 00
	00		 call	 DWORD PTR __imp_?_Orphan_all@_Container_base0@std@@QAEXXZ

; 1305 : 			_Destroy(this->_Myfirst, this->_Mylast);
; 1306 : 			this->_Alval.deallocate(this->_Myfirst,
; 1307 : 				this->_Myend - this->_Myfirst);

  0000e	ff 36		 push	 DWORD PTR [esi]
  00010	e8 00 00 00 00	 call	 ??3@YAXPAX@Z		; operator delete
  00015	59		 pop	 ecx
$LN12@Tidy:

; 1308 : 			}
; 1309 : 		this->_Myfirst = 0;

  00016	83 26 00	 and	 DWORD PTR [esi], 0

; 1310 : 		this->_Mylast = 0;

  00019	83 66 04 00	 and	 DWORD PTR [esi+4], 0

; 1311 : 		this->_Myend = 0;

  0001d	83 66 08 00	 and	 DWORD PTR [esi+8], 0
  00021	5e		 pop	 esi

; 1312 : 		}

  00022	c3		 ret	 0
?_Tidy@?$vector@PAVioChannelingNodeParent@@V?$allocator@PAVioChannelingNodeParent@@@std@@@std@@IAEXXZ ENDP ; std::vector<ioChannelingNodeParent *,std::allocator<ioChannelingNodeParent *> >::_Tidy
_TEXT	ENDS
PUBLIC	?allocate@?$allocator@PAVioChannelingNodeParent@@@std@@QAEPAPAVioChannelingNodeParent@@I@Z ; std::allocator<ioChannelingNodeParent *>::allocate
; Function compile flags: /Ogsp
; File c:\program files (x86)\microsoft visual studio 10.0\vc\include\xmemory
;	COMDAT ?allocate@?$allocator@PAVioChannelingNodeParent@@@std@@QAEPAPAVioChannelingNodeParent@@I@Z
_TEXT	SEGMENT
__Count$ = 8						; size = 4
?allocate@?$allocator@PAVioChannelingNodeParent@@@std@@QAEPAPAVioChannelingNodeParent@@I@Z PROC ; std::allocator<ioChannelingNodeParent *>::allocate, COMDAT
; _this$ = ecx

; 186  : 		{	// allocate array of _Count elements

  00000	55		 push	 ebp
  00001	8b ec		 mov	 ebp, esp

; 187  : 		return (_Allocate(_Count, (pointer)0));

  00003	6a 00		 push	 0
  00005	ff 75 08	 push	 DWORD PTR __Count$[ebp]
  00008	e8 00 00 00 00	 call	 ??$_Allocate@PAVioChannelingNodeParent@@@std@@YAPAPAVioChannelingNodeParent@@IPAPAV1@@Z ; std::_Allocate<ioChannelingNodeParent *>
  0000d	59		 pop	 ecx
  0000e	59		 pop	 ecx

; 188  : 		}

  0000f	5d		 pop	 ebp
  00010	c2 04 00	 ret	 4
?allocate@?$allocator@PAVioChannelingNodeParent@@@std@@QAEPAPAVioChannelingNodeParent@@I@Z ENDP ; std::allocator<ioChannelingNodeParent *>::allocate
_TEXT	ENDS
PUBLIC	??0?$_Vector_iterator@V?$_Vector_val@PAVioChannelingNodeParent@@V?$allocator@PAVioChannelingNodeParent@@@std@@@std@@@std@@QAE@PAPAVioChannelingNodeParent@@PBU_Container_base0@1@@Z ; std::_Vector_iterator<std::_Vector_val<ioChannelingNodeParent *,std::allocator<ioChannelingNodeParent *> > >::_Vector_iterator<std::_Vector_val<ioChannelingNodeParent *,std::allocator<ioChannelingNodeParent *> > >
; Function compile flags: /Ogsp
; File c:\program files (x86)\microsoft visual studio 10.0\vc\include\vector
;	COMDAT ??0?$_Vector_iterator@V?$_Vector_val@PAVioChannelingNodeParent@@V?$allocator@PAVioChannelingNodeParent@@@std@@@std@@@std@@QAE@PAPAVioChannelingNodeParent@@PBU_Container_base0@1@@Z
_TEXT	SEGMENT
__Parg$ = 8						; size = 4
__Pvector$ = 12						; size = 4
??0?$_Vector_iterator@V?$_Vector_val@PAVioChannelingNodeParent@@V?$allocator@PAVioChannelingNodeParent@@@std@@@std@@@std@@QAE@PAPAVioChannelingNodeParent@@PBU_Container_base0@1@@Z PROC ; std::_Vector_iterator<std::_Vector_val<ioChannelingNodeParent *,std::allocator<ioChannelingNodeParent *> > >::_Vector_iterator<std::_Vector_val<ioChannelingNodeParent *,std::allocator<ioChannelingNodeParent *> > >, COMDAT
; _this$ = ecx

; 304  : 		{	// construct with pointer _Parg

  00000	55		 push	 ebp
  00001	8b ec		 mov	 ebp, esp
  00003	8b c1		 mov	 eax, ecx
  00005	8b 4d 08	 mov	 ecx, DWORD PTR __Parg$[ebp]
  00008	89 08		 mov	 DWORD PTR [eax], ecx

; 305  : 		}

  0000a	5d		 pop	 ebp
  0000b	c2 08 00	 ret	 8
??0?$_Vector_iterator@V?$_Vector_val@PAVioChannelingNodeParent@@V?$allocator@PAVioChannelingNodeParent@@@std@@@std@@@std@@QAE@PAPAVioChannelingNodeParent@@PBU_Container_base0@1@@Z ENDP ; std::_Vector_iterator<std::_Vector_val<ioChannelingNodeParent *,std::allocator<ioChannelingNodeParent *> > >::_Vector_iterator<std::_Vector_val<ioChannelingNodeParent *,std::allocator<ioChannelingNodeParent *> > >
_TEXT	ENDS
PUBLIC	?_Make_iter@?$vector@PAVioChannelingNodeParent@@V?$allocator@PAVioChannelingNodeParent@@@std@@@std@@QBE?AV?$_Vector_iterator@V?$_Vector_val@PAVioChannelingNodeParent@@V?$allocator@PAVioChannelingNodeParent@@@std@@@std@@@2@V?$_Vector_const_iterator@V?$_Vector_val@PAVioChannelingNodeParent@@V?$allocator@PAVioChannelingNodeParent@@@std@@@std@@@2@@Z ; std::vector<ioChannelingNodeParent *,std::allocator<ioChannelingNodeParent *> >::_Make_iter
; Function compile flags: /Ogsp
;	COMDAT ?_Make_iter@?$vector@PAVioChannelingNodeParent@@V?$allocator@PAVioChannelingNodeParent@@@std@@@std@@QBE?AV?$_Vector_iterator@V?$_Vector_val@PAVioChannelingNodeParent@@V?$allocator@PAVioChannelingNodeParent@@@std@@@std@@@2@V?$_Vector_const_iterator@V?$_Vector_val@PAVioChannelingNodeParent@@V?$allocator@PAVioChannelingNodeParent@@@std@@@std@@@2@@Z
_TEXT	SEGMENT
___$ReturnUdt$ = 8					; size = 4
__Where$ = 12						; size = 4
?_Make_iter@?$vector@PAVioChannelingNodeParent@@V?$allocator@PAVioChannelingNodeParent@@@std@@@std@@QBE?AV?$_Vector_iterator@V?$_Vector_val@PAVioChannelingNodeParent@@V?$allocator@PAVioChannelingNodeParent@@@std@@@std@@@2@V?$_Vector_const_iterator@V?$_Vector_val@PAVioChannelingNodeParent@@V?$allocator@PAVioChannelingNodeParent@@@std@@@std@@@2@@Z PROC ; std::vector<ioChannelingNodeParent *,std::allocator<ioChannelingNodeParent *> >::_Make_iter, COMDAT
; _this$ = ecx

; 801  : 		{	// make iterator from const_iterator

  00000	55		 push	 ebp
  00001	8b ec		 mov	 ebp, esp

; 802  : 		return (iterator(_Where._Ptr, this));

  00003	8b 45 08	 mov	 eax, DWORD PTR ___$ReturnUdt$[ebp]
  00006	8b 4d 0c	 mov	 ecx, DWORD PTR __Where$[ebp]
  00009	89 08		 mov	 DWORD PTR [eax], ecx

; 803  : 		}

  0000b	5d		 pop	 ebp
  0000c	c2 08 00	 ret	 8
?_Make_iter@?$vector@PAVioChannelingNodeParent@@V?$allocator@PAVioChannelingNodeParent@@@std@@@std@@QBE?AV?$_Vector_iterator@V?$_Vector_val@PAVioChannelingNodeParent@@V?$allocator@PAVioChannelingNodeParent@@@std@@@std@@@2@V?$_Vector_const_iterator@V?$_Vector_val@PAVioChannelingNodeParent@@V?$allocator@PAVioChannelingNodeParent@@@std@@@std@@@2@@Z ENDP ; std::vector<ioChannelingNodeParent *,std::allocator<ioChannelingNodeParent *> >::_Make_iter
_TEXT	ENDS
PUBLIC	??$_Umove@PAPAVioChannelingNodeParent@@@?$vector@PAVioChannelingNodeParent@@V?$allocator@PAVioChannelingNodeParent@@@std@@@std@@IAEPAPAVioChannelingNodeParent@@PAPAV2@00@Z ; std::vector<ioChannelingNodeParent *,std::allocator<ioChannelingNodeParent *> >::_Umove<ioChannelingNodeParent * *>
; Function compile flags: /Ogsp
;	COMDAT ??$_Umove@PAPAVioChannelingNodeParent@@@?$vector@PAVioChannelingNodeParent@@V?$allocator@PAVioChannelingNodeParent@@@std@@@std@@IAEPAPAVioChannelingNodeParent@@PAPAV2@00@Z
_TEXT	SEGMENT
__First$ = 8						; size = 4
__Last$ = 12						; size = 4
__Ptr$ = 16						; size = 4
??$_Umove@PAPAVioChannelingNodeParent@@@?$vector@PAVioChannelingNodeParent@@V?$allocator@PAVioChannelingNodeParent@@@std@@@std@@IAEPAPAVioChannelingNodeParent@@PAPAV2@00@Z PROC ; std::vector<ioChannelingNodeParent *,std::allocator<ioChannelingNodeParent *> >::_Umove<ioChannelingNodeParent * *>, COMDAT
; _this$ = ecx

; 1322 : 		pointer _Umove(_Iter _First, _Iter _Last, pointer _Ptr)

  00000	55		 push	 ebp
  00001	8b ec		 mov	 ebp, esp

; 1323 : 		{	// move initializing [_First, _Last), using allocator
; 1324 : 		return (_Uninitialized_move(_First, _Last,
; 1325 : 			_Ptr, this->_Alval));

  00003	83 c1 0c	 add	 ecx, 12			; 0000000cH
  00006	51		 push	 ecx
  00007	ff 75 10	 push	 DWORD PTR __Ptr$[ebp]
  0000a	ff 75 0c	 push	 DWORD PTR __Last$[ebp]
  0000d	ff 75 08	 push	 DWORD PTR __First$[ebp]
  00010	e8 00 00 00 00	 call	 ??$_Uninitialized_move@PAPAVioChannelingNodeParent@@PAPAV1@V?$allocator@PAVioChannelingNodeParent@@@std@@@std@@YAPAPAVioChannelingNodeParent@@PAPAV1@00AAV?$allocator@PAVioChannelingNodeParent@@@0@@Z ; std::_Uninitialized_move<ioChannelingNodeParent * *,ioChannelingNodeParent * *,std::allocator<ioChannelingNodeParent *> >
  00015	83 c4 10	 add	 esp, 16			; 00000010H

; 1326 : 		}

  00018	5d		 pop	 ebp
  00019	c2 0c 00	 ret	 12			; 0000000cH
??$_Umove@PAPAVioChannelingNodeParent@@@?$vector@PAVioChannelingNodeParent@@V?$allocator@PAVioChannelingNodeParent@@@std@@@std@@IAEPAPAVioChannelingNodeParent@@PAPAV2@00@Z ENDP ; std::vector<ioChannelingNodeParent *,std::allocator<ioChannelingNodeParent *> >::_Umove<ioChannelingNodeParent * *>
_TEXT	ENDS
PUBLIC	??$_Cons_val@V?$allocator@PAVioChannelingNodeParent@@@std@@PAVioChannelingNodeParent@@AAPAV3@@std@@YAXAAV?$allocator@PAVioChannelingNodeParent@@@0@PAPAVioChannelingNodeParent@@AAPAV2@@Z ; std::_Cons_val<std::allocator<ioChannelingNodeParent *>,ioChannelingNodeParent *,ioChannelingNodeParent * &>
; Function compile flags: /Ogsp
; File c:\program files (x86)\microsoft visual studio 10.0\vc\include\xmemory
;	COMDAT ??$_Cons_val@V?$allocator@PAVioChannelingNodeParent@@@std@@PAVioChannelingNodeParent@@AAPAV3@@std@@YAXAAV?$allocator@PAVioChannelingNodeParent@@@0@PAPAVioChannelingNodeParent@@AAPAV2@@Z
_TEXT	SEGMENT
__Alval$ = 8						; size = 4
__Pdest$ = 12						; size = 4
__Src$ = 16						; size = 4
??$_Cons_val@V?$allocator@PAVioChannelingNodeParent@@@std@@PAVioChannelingNodeParent@@AAPAV3@@std@@YAXAAV?$allocator@PAVioChannelingNodeParent@@@0@PAPAVioChannelingNodeParent@@AAPAV2@@Z PROC ; std::_Cons_val<std::allocator<ioChannelingNodeParent *>,ioChannelingNodeParent *,ioChannelingNodeParent * &>, COMDAT

; 279  : 	{	// construct using allocator

  00000	55		 push	 ebp
  00001	8b ec		 mov	 ebp, esp

; 280  : 	_Alval.construct(_Pdest, _STD forward<_Ty2>(_Src));

  00003	8b 45 0c	 mov	 eax, DWORD PTR __Pdest$[ebp]
  00006	85 c0		 test	 eax, eax
  00008	74 07		 je	 SHORT $LN7@Cons_val
  0000a	8b 4d 10	 mov	 ecx, DWORD PTR __Src$[ebp]
  0000d	8b 09		 mov	 ecx, DWORD PTR [ecx]
  0000f	89 08		 mov	 DWORD PTR [eax], ecx
$LN7@Cons_val:

; 281  : 	}

  00011	5d		 pop	 ebp
  00012	c3		 ret	 0
??$_Cons_val@V?$allocator@PAVioChannelingNodeParent@@@std@@PAVioChannelingNodeParent@@AAPAV3@@std@@YAXAAV?$allocator@PAVioChannelingNodeParent@@@0@PAPAVioChannelingNodeParent@@AAPAV2@@Z ENDP ; std::_Cons_val<std::allocator<ioChannelingNodeParent *>,ioChannelingNodeParent *,ioChannelingNodeParent * &>
_TEXT	ENDS
PUBLIC	?construct@?$allocator@PAVioChannelingNodeParent@@@std@@QAEXPAPAVioChannelingNodeParent@@ABQAV3@@Z ; std::allocator<ioChannelingNodeParent *>::construct
; Function compile flags: /Ogsp
;	COMDAT ?construct@?$allocator@PAVioChannelingNodeParent@@@std@@QAEXPAPAVioChannelingNodeParent@@ABQAV3@@Z
_TEXT	SEGMENT
__Ptr$ = 8						; size = 4
__Val$ = 12						; size = 4
?construct@?$allocator@PAVioChannelingNodeParent@@@std@@QAEXPAPAVioChannelingNodeParent@@ABQAV3@@Z PROC ; std::allocator<ioChannelingNodeParent *>::construct, COMDAT
; _this$ = ecx

; 196  : 		{	// construct object at _Ptr with value _Val

  00000	55		 push	 ebp
  00001	8b ec		 mov	 ebp, esp

; 197  : 		_Construct(_Ptr, _Val);

  00003	8b 45 08	 mov	 eax, DWORD PTR __Ptr$[ebp]
  00006	85 c0		 test	 eax, eax
  00008	74 07		 je	 SHORT $LN5@construct@2
  0000a	8b 4d 0c	 mov	 ecx, DWORD PTR __Val$[ebp]
  0000d	8b 09		 mov	 ecx, DWORD PTR [ecx]
  0000f	89 08		 mov	 DWORD PTR [eax], ecx
$LN5@construct@2:

; 198  : 		}

  00011	5d		 pop	 ebp
  00012	c2 08 00	 ret	 8
?construct@?$allocator@PAVioChannelingNodeParent@@@std@@QAEXPAPAVioChannelingNodeParent@@ABQAV3@@Z ENDP ; std::allocator<ioChannelingNodeParent *>::construct
_TEXT	ENDS
PUBLIC	??1?$vector@PAVioChannelingNodeParent@@V?$allocator@PAVioChannelingNodeParent@@@std@@@std@@QAE@XZ ; std::vector<ioChannelingNodeParent *,std::allocator<ioChannelingNodeParent *> >::~vector<ioChannelingNodeParent *,std::allocator<ioChannelingNodeParent *> >
; Function compile flags: /Ogsp
; File c:\program files (x86)\microsoft visual studio 10.0\vc\include\vector
;	COMDAT ??1?$vector@PAVioChannelingNodeParent@@V?$allocator@PAVioChannelingNodeParent@@@std@@@std@@QAE@XZ
_TEXT	SEGMENT
??1?$vector@PAVioChannelingNodeParent@@V?$allocator@PAVioChannelingNodeParent@@@std@@@std@@QAE@XZ PROC ; std::vector<ioChannelingNodeParent *,std::allocator<ioChannelingNodeParent *> >::~vector<ioChannelingNodeParent *,std::allocator<ioChannelingNodeParent *> >, COMDAT
; _this$ = ecx

; 705  : 		_Tidy();

  00000	e9 00 00 00 00	 jmp	 ?_Tidy@?$vector@PAVioChannelingNodeParent@@V?$allocator@PAVioChannelingNodeParent@@@std@@@std@@IAEXXZ ; std::vector<ioChannelingNodeParent *,std::allocator<ioChannelingNodeParent *> >::_Tidy
??1?$vector@PAVioChannelingNodeParent@@V?$allocator@PAVioChannelingNodeParent@@@std@@@std@@QAE@XZ ENDP ; std::vector<ioChannelingNodeParent *,std::allocator<ioChannelingNodeParent *> >::~vector<ioChannelingNodeParent *,std::allocator<ioChannelingNodeParent *> >
_TEXT	ENDS
PUBLIC	?reserve@?$vector@PAVioChannelingNodeParent@@V?$allocator@PAVioChannelingNodeParent@@@std@@@std@@QAEXI@Z ; std::vector<ioChannelingNodeParent *,std::allocator<ioChannelingNodeParent *> >::reserve
; Function compile flags: /Ogsp
;	COMDAT ?reserve@?$vector@PAVioChannelingNodeParent@@V?$allocator@PAVioChannelingNodeParent@@@std@@@std@@QAEXI@Z
_TEXT	SEGMENT
__Count$ = 8						; size = 4
?reserve@?$vector@PAVioChannelingNodeParent@@V?$allocator@PAVioChannelingNodeParent@@@std@@@std@@QAEXI@Z PROC ; std::vector<ioChannelingNodeParent *,std::allocator<ioChannelingNodeParent *> >::reserve, COMDAT
; _this$ = ecx

; 746  : 		{	// determine new minimum length of allocated storage

  00000	55		 push	 ebp
  00001	8b ec		 mov	 ebp, esp

; 747  : 		if (max_size() < _Count)

  00003	81 7d 08 ff ff
	ff 3f		 cmp	 DWORD PTR __Count$[ebp], 1073741823 ; 3fffffffH
  0000a	56		 push	 esi
  0000b	8b f1		 mov	 esi, ecx
  0000d	76 0b		 jbe	 SHORT $LN5@reserve

; 748  : 			_Xlen();	// result too long

  0000f	68 00 00 00 00	 push	 OFFSET ??_C@_0BD@OLBABOEK@vector?$DMT?$DO?5too?5long?$AA@
  00014	ff 15 00 00 00
	00		 call	 DWORD PTR __imp_?_Xlength_error@std@@YAXPBD@Z
$LN43@reserve:
$LN5@reserve:

; 749  : 		else if (capacity() < _Count)

  0001a	8b 46 08	 mov	 eax, DWORD PTR [esi+8]
  0001d	2b 06		 sub	 eax, DWORD PTR [esi]
  0001f	c1 f8 02	 sar	 eax, 2
  00022	3b 45 08	 cmp	 eax, DWORD PTR __Count$[ebp]
  00025	73 52		 jae	 SHORT $LN3@reserve

; 750  : 			{	// not enough room, reallocate
; 751  : 			pointer _Ptr = this->_Alval.allocate(_Count);

  00027	53		 push	 ebx
  00028	57		 push	 edi
  00029	6a 00		 push	 0
  0002b	ff 75 08	 push	 DWORD PTR __Count$[ebp]
  0002e	e8 00 00 00 00	 call	 ??$_Allocate@PAVioChannelingNodeParent@@@std@@YAPAPAVioChannelingNodeParent@@IPAPAV1@@Z ; std::_Allocate<ioChannelingNodeParent *>

; 752  : 
; 753  : 			_TRY_BEGIN
; 754  : 			_Umove(this->_Myfirst, this->_Mylast, _Ptr);

  00033	8b 0e		 mov	 ecx, DWORD PTR [esi]
  00035	8d 56 0c	 lea	 edx, DWORD PTR [esi+12]
  00038	52		 push	 edx
  00039	8b d8		 mov	 ebx, eax
  0003b	8b 46 04	 mov	 eax, DWORD PTR [esi+4]
  0003e	53		 push	 ebx
  0003f	50		 push	 eax
  00040	51		 push	 ecx
  00041	e8 00 00 00 00	 call	 ??$_Uninitialized_move@PAPAVioChannelingNodeParent@@PAPAV1@V?$allocator@PAVioChannelingNodeParent@@@std@@@std@@YAPAPAVioChannelingNodeParent@@PAPAV1@00AAV?$allocator@PAVioChannelingNodeParent@@@0@@Z ; std::_Uninitialized_move<ioChannelingNodeParent * *,ioChannelingNodeParent * *,std::allocator<ioChannelingNodeParent *> >

; 755  : 			_CATCH_ALL
; 756  : 			this->_Alval.deallocate(_Ptr, _Count);
; 757  : 			_RERAISE;
; 758  : 			_CATCH_END
; 759  : 
; 760  : 			size_type _Size = size();

  00046	8b 06		 mov	 eax, DWORD PTR [esi]
  00048	8b 7e 04	 mov	 edi, DWORD PTR [esi+4]
  0004b	2b f8		 sub	 edi, eax
  0004d	83 c4 18	 add	 esp, 24			; 00000018H
  00050	c1 ff 02	 sar	 edi, 2

; 761  : 			if (this->_Myfirst != 0)

  00053	85 c0		 test	 eax, eax
  00055	74 07		 je	 SHORT $LN39@reserve

; 762  : 				{	// destroy and deallocate old array
; 763  : 				_Destroy(this->_Myfirst, this->_Mylast);
; 764  : 				this->_Alval.deallocate(this->_Myfirst,
; 765  : 					this->_Myend - this->_Myfirst);

  00057	50		 push	 eax
  00058	e8 00 00 00 00	 call	 ??3@YAXPAX@Z		; operator delete
  0005d	59		 pop	 ecx
$LN39@reserve:

; 766  : 				}
; 767  : 
; 768  : 			this->_Orphan_all();

  0005e	8b ce		 mov	 ecx, esi
  00060	ff 15 00 00 00
	00		 call	 DWORD PTR __imp_?_Orphan_all@_Container_base0@std@@QAEXXZ

; 769  : 			this->_Myend = _Ptr + _Count;

  00066	8b 45 08	 mov	 eax, DWORD PTR __Count$[ebp]
  00069	8d 04 83	 lea	 eax, DWORD PTR [ebx+eax*4]
  0006c	89 46 08	 mov	 DWORD PTR [esi+8], eax

; 770  : 			this->_Mylast = _Ptr + _Size;

  0006f	8d 04 bb	 lea	 eax, DWORD PTR [ebx+edi*4]
  00072	5f		 pop	 edi

; 771  : 			this->_Myfirst = _Ptr;

  00073	89 1e		 mov	 DWORD PTR [esi], ebx
  00075	89 46 04	 mov	 DWORD PTR [esi+4], eax
  00078	5b		 pop	 ebx
$LN3@reserve:
  00079	5e		 pop	 esi

; 772  : 			}
; 773  : 		}

  0007a	5d		 pop	 ebp
  0007b	c2 04 00	 ret	 4
$LN42@reserve:
?reserve@?$vector@PAVioChannelingNodeParent@@V?$allocator@PAVioChannelingNodeParent@@@std@@@std@@QAEXI@Z ENDP ; std::vector<ioChannelingNodeParent *,std::allocator<ioChannelingNodeParent *> >::reserve
_TEXT	ENDS
PUBLIC	?begin@?$vector@PAVioChannelingNodeParent@@V?$allocator@PAVioChannelingNodeParent@@@std@@@std@@QAE?AV?$_Vector_iterator@V?$_Vector_val@PAVioChannelingNodeParent@@V?$allocator@PAVioChannelingNodeParent@@@std@@@std@@@2@XZ ; std::vector<ioChannelingNodeParent *,std::allocator<ioChannelingNodeParent *> >::begin
; Function compile flags: /Ogsp
;	COMDAT ?begin@?$vector@PAVioChannelingNodeParent@@V?$allocator@PAVioChannelingNodeParent@@@std@@@std@@QAE?AV?$_Vector_iterator@V?$_Vector_val@PAVioChannelingNodeParent@@V?$allocator@PAVioChannelingNodeParent@@@std@@@std@@@2@XZ
_TEXT	SEGMENT
___$ReturnUdt$ = 8					; size = 4
?begin@?$vector@PAVioChannelingNodeParent@@V?$allocator@PAVioChannelingNodeParent@@@std@@@std@@QAE?AV?$_Vector_iterator@V?$_Vector_val@PAVioChannelingNodeParent@@V?$allocator@PAVioChannelingNodeParent@@@std@@@std@@@2@XZ PROC ; std::vector<ioChannelingNodeParent *,std::allocator<ioChannelingNodeParent *> >::begin, COMDAT
; _this$ = ecx

; 781  : 		{	// return iterator for beginning of mutable sequence

  00000	55		 push	 ebp
  00001	8b ec		 mov	 ebp, esp

; 782  : 		return (iterator(this->_Myfirst, this));

  00003	8b 09		 mov	 ecx, DWORD PTR [ecx]
  00005	8b 45 08	 mov	 eax, DWORD PTR ___$ReturnUdt$[ebp]
  00008	89 08		 mov	 DWORD PTR [eax], ecx

; 783  : 		}

  0000a	5d		 pop	 ebp
  0000b	c2 04 00	 ret	 4
?begin@?$vector@PAVioChannelingNodeParent@@V?$allocator@PAVioChannelingNodeParent@@@std@@@std@@QAE?AV?$_Vector_iterator@V?$_Vector_val@PAVioChannelingNodeParent@@V?$allocator@PAVioChannelingNodeParent@@@std@@@std@@@2@XZ ENDP ; std::vector<ioChannelingNodeParent *,std::allocator<ioChannelingNodeParent *> >::begin
_TEXT	ENDS
PUBLIC	?end@?$vector@PAVioChannelingNodeParent@@V?$allocator@PAVioChannelingNodeParent@@@std@@@std@@QAE?AV?$_Vector_iterator@V?$_Vector_val@PAVioChannelingNodeParent@@V?$allocator@PAVioChannelingNodeParent@@@std@@@std@@@2@XZ ; std::vector<ioChannelingNodeParent *,std::allocator<ioChannelingNodeParent *> >::end
; Function compile flags: /Ogsp
;	COMDAT ?end@?$vector@PAVioChannelingNodeParent@@V?$allocator@PAVioChannelingNodeParent@@@std@@@std@@QAE?AV?$_Vector_iterator@V?$_Vector_val@PAVioChannelingNodeParent@@V?$allocator@PAVioChannelingNodeParent@@@std@@@std@@@2@XZ
_TEXT	SEGMENT
___$ReturnUdt$ = 8					; size = 4
?end@?$vector@PAVioChannelingNodeParent@@V?$allocator@PAVioChannelingNodeParent@@@std@@@std@@QAE?AV?$_Vector_iterator@V?$_Vector_val@PAVioChannelingNodeParent@@V?$allocator@PAVioChannelingNodeParent@@@std@@@std@@@2@XZ PROC ; std::vector<ioChannelingNodeParent *,std::allocator<ioChannelingNodeParent *> >::end, COMDAT
; _this$ = ecx

; 791  : 		{	// return iterator for end of mutable sequence

  00000	55		 push	 ebp
  00001	8b ec		 mov	 ebp, esp

; 792  : 		return (iterator(this->_Mylast, this));

  00003	8b 49 04	 mov	 ecx, DWORD PTR [ecx+4]
  00006	8b 45 08	 mov	 eax, DWORD PTR ___$ReturnUdt$[ebp]
  00009	89 08		 mov	 DWORD PTR [eax], ecx

; 793  : 		}

  0000b	5d		 pop	 ebp
  0000c	c2 04 00	 ret	 4
?end@?$vector@PAVioChannelingNodeParent@@V?$allocator@PAVioChannelingNodeParent@@@std@@@std@@QAE?AV?$_Vector_iterator@V?$_Vector_val@PAVioChannelingNodeParent@@V?$allocator@PAVioChannelingNodeParent@@@std@@@std@@@2@XZ ENDP ; std::vector<ioChannelingNodeParent *,std::allocator<ioChannelingNodeParent *> >::end
_TEXT	ENDS
PUBLIC	?erase@?$vector@PAVioChannelingNodeParent@@V?$allocator@PAVioChannelingNodeParent@@@std@@@std@@QAE?AV?$_Vector_iterator@V?$_Vector_val@PAVioChannelingNodeParent@@V?$allocator@PAVioChannelingNodeParent@@@std@@@std@@@2@V?$_Vector_const_iterator@V?$_Vector_val@PAVioChannelingNodeParent@@V?$allocator@PAVioChannelingNodeParent@@@std@@@std@@@2@0@Z ; std::vector<ioChannelingNodeParent *,std::allocator<ioChannelingNodeParent *> >::erase
; Function compile flags: /Ogsp
;	COMDAT ?erase@?$vector@PAVioChannelingNodeParent@@V?$allocator@PAVioChannelingNodeParent@@@std@@@std@@QAE?AV?$_Vector_iterator@V?$_Vector_val@PAVioChannelingNodeParent@@V?$allocator@PAVioChannelingNodeParent@@@std@@@std@@@2@V?$_Vector_const_iterator@V?$_Vector_val@PAVioChannelingNodeParent@@V?$allocator@PAVioChannelingNodeParent@@@std@@@std@@@2@0@Z
_TEXT	SEGMENT
___$ReturnUdt$ = 8					; size = 4
__First_arg$ = 12					; size = 4
__Cat$507376 = 16					; size = 1
__Last_arg$ = 16					; size = 4
?erase@?$vector@PAVioChannelingNodeParent@@V?$allocator@PAVioChannelingNodeParent@@@std@@@std@@QAE?AV?$_Vector_iterator@V?$_Vector_val@PAVioChannelingNodeParent@@V?$allocator@PAVioChannelingNodeParent@@@std@@@std@@@2@V?$_Vector_const_iterator@V?$_Vector_val@PAVioChannelingNodeParent@@V?$allocator@PAVioChannelingNodeParent@@@std@@@std@@@2@0@Z PROC ; std::vector<ioChannelingNodeParent *,std::allocator<ioChannelingNodeParent *> >::erase, COMDAT
; _this$ = ecx

; 1190 : 		{	// erase [_First, _Last)

  00000	55		 push	 ebp
  00001	8b ec		 mov	 ebp, esp

; 1191 : 		iterator _First = _Make_iter(_First_arg);

  00003	8b 45 0c	 mov	 eax, DWORD PTR __First_arg$[ebp]
  00006	56		 push	 esi
  00007	57		 push	 edi
  00008	8b 7d 08	 mov	 edi, DWORD PTR ___$ReturnUdt$[ebp]
  0000b	8b f1		 mov	 esi, ecx
  0000d	89 07		 mov	 DWORD PTR [edi], eax

; 1192 : 		iterator _Last = _Make_iter(_Last_arg);
; 1193 : 
; 1194 : 		if (_First != _Last)

  0000f	3b 45 10	 cmp	 eax, DWORD PTR __Last_arg$[ebp]
  00012	74 16		 je	 SHORT $LN1@erase

; 1195 : 			{	// worth doing, copy down over hole
; 1196 :  #if _ITERATOR_DEBUG_LEVEL == 2
; 1197 : 			if (_Last < _First || _VICONT(_First) != this
; 1198 : 				|| _VIPTR(_First) < this->_Myfirst
; 1199 : 				|| this->_Mylast < _VIPTR(_Last))
; 1200 : 				_DEBUG_ERROR("vector erase iterator outside range");
; 1201 : 			pointer _Ptr = _Move(_VIPTR(_Last), this->_Mylast,
; 1202 : 				_VIPTR(_First));
; 1203 : 			_Orphan_range(_VIPTR(_First), this->_Mylast);
; 1204 : 
; 1205 :  #else /* _ITERATOR_DEBUG_LEVEL == 2 */
; 1206 : 			pointer _Ptr = _Move(_VIPTR(_Last), this->_Mylast,
; 1207 : 				_VIPTR(_First));

  00014	ff 75 10	 push	 DWORD PTR __Cat$507376[ebp]
  00017	8b 4e 04	 mov	 ecx, DWORD PTR [esi+4]
  0001a	50		 push	 eax
  0001b	51		 push	 ecx
  0001c	ff 75 10	 push	 DWORD PTR __Last_arg$[ebp]
  0001f	e8 00 00 00 00	 call	 ??$_Move@PAPAVioChannelingNodeParent@@PAPAV1@@std@@YAPAPAVioChannelingNodeParent@@PAPAV1@00U_Scalar_ptr_iterator_tag@0@@Z ; std::_Move<ioChannelingNodeParent * *,ioChannelingNodeParent * *>
  00024	83 c4 10	 add	 esp, 16			; 00000010H

; 1208 :  #endif /* _ITERATOR_DEBUG_LEVEL == 2 */
; 1209 : 
; 1210 : 			_Destroy(_Ptr, this->_Mylast);
; 1211 : 			this->_Mylast = _Ptr;

  00027	89 46 04	 mov	 DWORD PTR [esi+4], eax
$LN1@erase:

; 1212 : 			}
; 1213 : 		return (_First);

  0002a	8b c7		 mov	 eax, edi
  0002c	5f		 pop	 edi
  0002d	5e		 pop	 esi

; 1214 : 		}

  0002e	5d		 pop	 ebp
  0002f	c2 0c 00	 ret	 12			; 0000000cH
?erase@?$vector@PAVioChannelingNodeParent@@V?$allocator@PAVioChannelingNodeParent@@@std@@@std@@QAE?AV?$_Vector_iterator@V?$_Vector_val@PAVioChannelingNodeParent@@V?$allocator@PAVioChannelingNodeParent@@@std@@@std@@@2@V?$_Vector_const_iterator@V?$_Vector_val@PAVioChannelingNodeParent@@V?$allocator@PAVioChannelingNodeParent@@@std@@@std@@@2@0@Z ENDP ; std::vector<ioChannelingNodeParent *,std::allocator<ioChannelingNodeParent *> >::erase
_TEXT	ENDS
PUBLIC	?_Reserve@?$vector@PAVioChannelingNodeParent@@V?$allocator@PAVioChannelingNodeParent@@@std@@@std@@IAEXI@Z ; std::vector<ioChannelingNodeParent *,std::allocator<ioChannelingNodeParent *> >::_Reserve
; Function compile flags: /Ogsp
;	COMDAT ?_Reserve@?$vector@PAVioChannelingNodeParent@@V?$allocator@PAVioChannelingNodeParent@@@std@@@std@@IAEXI@Z
_TEXT	SEGMENT
__Count$ = 8						; size = 4
?_Reserve@?$vector@PAVioChannelingNodeParent@@V?$allocator@PAVioChannelingNodeParent@@@std@@@std@@IAEXI@Z PROC ; std::vector<ioChannelingNodeParent *,std::allocator<ioChannelingNodeParent *> >::_Reserve, COMDAT
; _this$ = ecx

; 1290 : 		{	// ensure room for _Count new elements, grow exponentially

  00000	55		 push	 ebp
  00001	8b ec		 mov	 ebp, esp
  00003	56		 push	 esi
  00004	8b f1		 mov	 esi, ecx

; 1291 : 		size_type _Size = size();

  00006	8b 0e		 mov	 ecx, DWORD PTR [esi]
  00008	8b 46 04	 mov	 eax, DWORD PTR [esi+4]
  0000b	2b c1		 sub	 eax, ecx

; 1292 : 		if (max_size() - _Count < _Size)

  0000d	ba ff ff ff 3f	 mov	 edx, 1073741823		; 3fffffffH
  00012	2b 55 08	 sub	 edx, DWORD PTR __Count$[ebp]
  00015	c1 f8 02	 sar	 eax, 2
  00018	3b d0		 cmp	 edx, eax
  0001a	73 0b		 jae	 SHORT $LN4@Reserve

; 1293 : 			_Xlen();

  0001c	68 00 00 00 00	 push	 OFFSET ??_C@_0BD@OLBABOEK@vector?$DMT?$DO?5too?5long?$AA@
  00021	ff 15 00 00 00
	00		 call	 DWORD PTR __imp_?_Xlength_error@std@@YAXPBD@Z
$LN21@Reserve:
$LN4@Reserve:

; 1294 : 		else if ((_Size += _Count) <= capacity())

  00027	8b 56 08	 mov	 edx, DWORD PTR [esi+8]
  0002a	03 45 08	 add	 eax, DWORD PTR __Count$[ebp]
  0002d	2b d1		 sub	 edx, ecx
  0002f	c1 fa 02	 sar	 edx, 2
  00032	3b c2		 cmp	 eax, edx
  00034	76 10		 jbe	 SHORT $LN1@Reserve

; 1295 : 			;
; 1296 : 		else
; 1297 : 			reserve(_Grow_to(_Size));

  00036	50		 push	 eax
  00037	8b ce		 mov	 ecx, esi
  00039	e8 00 00 00 00	 call	 ?_Grow_to@?$vector@PAVioChannelingNodeParent@@V?$allocator@PAVioChannelingNodeParent@@@std@@@std@@IBEII@Z ; std::vector<ioChannelingNodeParent *,std::allocator<ioChannelingNodeParent *> >::_Grow_to
  0003e	50		 push	 eax
  0003f	8b ce		 mov	 ecx, esi
  00041	e8 00 00 00 00	 call	 ?reserve@?$vector@PAVioChannelingNodeParent@@V?$allocator@PAVioChannelingNodeParent@@@std@@@std@@QAEXI@Z ; std::vector<ioChannelingNodeParent *,std::allocator<ioChannelingNodeParent *> >::reserve
$LN1@Reserve:
  00046	5e		 pop	 esi

; 1298 : 		}

  00047	5d		 pop	 ebp
  00048	c2 04 00	 ret	 4
$LN20@Reserve:
?_Reserve@?$vector@PAVioChannelingNodeParent@@V?$allocator@PAVioChannelingNodeParent@@@std@@@std@@IAEXI@Z ENDP ; std::vector<ioChannelingNodeParent *,std::allocator<ioChannelingNodeParent *> >::_Reserve
_TEXT	ENDS
PUBLIC	??$_Cons_val@V?$allocator@PAVioChannelingNodeParent@@@std@@PAVioChannelingNodeParent@@ABQAV3@@std@@YAXAAV?$allocator@PAVioChannelingNodeParent@@@0@PAPAVioChannelingNodeParent@@ABQAV2@@Z ; std::_Cons_val<std::allocator<ioChannelingNodeParent *>,ioChannelingNodeParent *,ioChannelingNodeParent * const &>
; Function compile flags: /Ogsp
; File c:\program files (x86)\microsoft visual studio 10.0\vc\include\xmemory
;	COMDAT ??$_Cons_val@V?$allocator@PAVioChannelingNodeParent@@@std@@PAVioChannelingNodeParent@@ABQAV3@@std@@YAXAAV?$allocator@PAVioChannelingNodeParent@@@0@PAPAVioChannelingNodeParent@@ABQAV2@@Z
_TEXT	SEGMENT
__Alval$ = 8						; size = 4
__Pdest$ = 12						; size = 4
__Src$ = 16						; size = 4
??$_Cons_val@V?$allocator@PAVioChannelingNodeParent@@@std@@PAVioChannelingNodeParent@@ABQAV3@@std@@YAXAAV?$allocator@PAVioChannelingNodeParent@@@0@PAPAVioChannelingNodeParent@@ABQAV2@@Z PROC ; std::_Cons_val<std::allocator<ioChannelingNodeParent *>,ioChannelingNodeParent *,ioChannelingNodeParent * const &>, COMDAT

; 279  : 	{	// construct using allocator

  00000	55		 push	 ebp
  00001	8b ec		 mov	 ebp, esp

; 280  : 	_Alval.construct(_Pdest, _STD forward<_Ty2>(_Src));

  00003	8b 45 0c	 mov	 eax, DWORD PTR __Pdest$[ebp]
  00006	85 c0		 test	 eax, eax
  00008	74 07		 je	 SHORT $LN9@Cons_val@2
  0000a	8b 4d 10	 mov	 ecx, DWORD PTR __Src$[ebp]
  0000d	8b 09		 mov	 ecx, DWORD PTR [ecx]
  0000f	89 08		 mov	 DWORD PTR [eax], ecx
$LN9@Cons_val@2:

; 281  : 	}

  00011	5d		 pop	 ebp
  00012	c3		 ret	 0
??$_Cons_val@V?$allocator@PAVioChannelingNodeParent@@@std@@PAVioChannelingNodeParent@@ABQAV3@@std@@YAXAAV?$allocator@PAVioChannelingNodeParent@@@0@PAPAVioChannelingNodeParent@@ABQAV2@@Z ENDP ; std::_Cons_val<std::allocator<ioChannelingNodeParent *>,ioChannelingNodeParent *,ioChannelingNodeParent * const &>
_TEXT	ENDS
PUBLIC	??_7ioChannelingNodeManager@@6B@		; ioChannelingNodeManager::`vftable'
PUBLIC	??0ioChannelingNodeManager@@QAE@XZ		; ioChannelingNodeManager::ioChannelingNodeManager
PUBLIC	??_R4ioChannelingNodeManager@@6B@		; ioChannelingNodeManager::`RTTI Complete Object Locator'
PUBLIC	??_R0?AVioChannelingNodeManager@@@8		; ioChannelingNodeManager `RTTI Type Descriptor'
PUBLIC	??_R3ioChannelingNodeManager@@8			; ioChannelingNodeManager::`RTTI Class Hierarchy Descriptor'
PUBLIC	??_R2ioChannelingNodeManager@@8			; ioChannelingNodeManager::`RTTI Base Class Array'
PUBLIC	??_R1A@?0A@EA@ioChannelingNodeManager@@8	; ioChannelingNodeManager::`RTTI Base Class Descriptor at (0,-1,0,64)'
PUBLIC	??_R13?0A@EA@?$Singleton@VioChannelingNodeManager@@@@8 ; Singleton<ioChannelingNodeManager>::`RTTI Base Class Descriptor at (4,-1,0,64)'
PUBLIC	??_R0?AV?$Singleton@VioChannelingNodeManager@@@@@8 ; Singleton<ioChannelingNodeManager> `RTTI Type Descriptor'
PUBLIC	??_R3?$Singleton@VioChannelingNodeManager@@@@8	; Singleton<ioChannelingNodeManager>::`RTTI Class Hierarchy Descriptor'
PUBLIC	??_R2?$Singleton@VioChannelingNodeManager@@@@8	; Singleton<ioChannelingNodeManager>::`RTTI Base Class Array'
PUBLIC	??_R1A@?0A@EA@?$Singleton@VioChannelingNodeManager@@@@8 ; Singleton<ioChannelingNodeManager>::`RTTI Base Class Descriptor at (0,-1,0,64)'
EXTRN	??_EioChannelingNodeManager@@UAEPAXI@Z:PROC	; ioChannelingNodeManager::`vector deleting destructor'
;	COMDAT ??_R1A@?0A@EA@?$Singleton@VioChannelingNodeManager@@@@8
rdata$r	SEGMENT
??_R1A@?0A@EA@?$Singleton@VioChannelingNodeManager@@@@8 DD FLAT:??_R0?AV?$Singleton@VioChannelingNodeManager@@@@@8 ; Singleton<ioChannelingNodeManager>::`RTTI Base Class Descriptor at (0,-1,0,64)'
	DD	00H
	DD	00H
	DD	0ffffffffH
	DD	00H
	DD	040H
	DD	FLAT:??_R3?$Singleton@VioChannelingNodeManager@@@@8
rdata$r	ENDS
;	COMDAT ??_R2?$Singleton@VioChannelingNodeManager@@@@8
rdata$r	SEGMENT
??_R2?$Singleton@VioChannelingNodeManager@@@@8 DD FLAT:??_R1A@?0A@EA@?$Singleton@VioChannelingNodeManager@@@@8 ; Singleton<ioChannelingNodeManager>::`RTTI Base Class Array'
rdata$r	ENDS
;	COMDAT ??_R3?$Singleton@VioChannelingNodeManager@@@@8
rdata$r	SEGMENT
??_R3?$Singleton@VioChannelingNodeManager@@@@8 DD 00H	; Singleton<ioChannelingNodeManager>::`RTTI Class Hierarchy Descriptor'
	DD	00H
	DD	01H
	DD	FLAT:??_R2?$Singleton@VioChannelingNodeManager@@@@8
rdata$r	ENDS
;	COMDAT ??_R0?AV?$Singleton@VioChannelingNodeManager@@@@@8
_DATA	SEGMENT
??_R0?AV?$Singleton@VioChannelingNodeManager@@@@@8 DD FLAT:??_7type_info@@6B@ ; Singleton<ioChannelingNodeManager> `RTTI Type Descriptor'
	DD	00H
	DB	'.?AV?$Singleton@VioChannelingNodeManager@@@@', 00H
_DATA	ENDS
;	COMDAT ??_R13?0A@EA@?$Singleton@VioChannelingNodeManager@@@@8
rdata$r	SEGMENT
??_R13?0A@EA@?$Singleton@VioChannelingNodeManager@@@@8 DD FLAT:??_R0?AV?$Singleton@VioChannelingNodeManager@@@@@8 ; Singleton<ioChannelingNodeManager>::`RTTI Base Class Descriptor at (4,-1,0,64)'
	DD	00H
	DD	04H
	DD	0ffffffffH
	DD	00H
	DD	040H
	DD	FLAT:??_R3?$Singleton@VioChannelingNodeManager@@@@8
rdata$r	ENDS
;	COMDAT ??_R1A@?0A@EA@ioChannelingNodeManager@@8
rdata$r	SEGMENT
??_R1A@?0A@EA@ioChannelingNodeManager@@8 DD FLAT:??_R0?AVioChannelingNodeManager@@@8 ; ioChannelingNodeManager::`RTTI Base Class Descriptor at (0,-1,0,64)'
	DD	01H
	DD	00H
	DD	0ffffffffH
	DD	00H
	DD	040H
	DD	FLAT:??_R3ioChannelingNodeManager@@8
rdata$r	ENDS
;	COMDAT ??_R2ioChannelingNodeManager@@8
rdata$r	SEGMENT
??_R2ioChannelingNodeManager@@8 DD FLAT:??_R1A@?0A@EA@ioChannelingNodeManager@@8 ; ioChannelingNodeManager::`RTTI Base Class Array'
	DD	FLAT:??_R13?0A@EA@?$Singleton@VioChannelingNodeManager@@@@8
rdata$r	ENDS
;	COMDAT ??_R3ioChannelingNodeManager@@8
rdata$r	SEGMENT
??_R3ioChannelingNodeManager@@8 DD 00H			; ioChannelingNodeManager::`RTTI Class Hierarchy Descriptor'
	DD	00H
	DD	02H
	DD	FLAT:??_R2ioChannelingNodeManager@@8
rdata$r	ENDS
;	COMDAT ??_R0?AVioChannelingNodeManager@@@8
_DATA	SEGMENT
??_R0?AVioChannelingNodeManager@@@8 DD FLAT:??_7type_info@@6B@ ; ioChannelingNodeManager `RTTI Type Descriptor'
	DD	00H
	DB	'.?AVioChannelingNodeManager@@', 00H
_DATA	ENDS
;	COMDAT ??_R4ioChannelingNodeManager@@6B@
rdata$r	SEGMENT
??_R4ioChannelingNodeManager@@6B@ DD 00H		; ioChannelingNodeManager::`RTTI Complete Object Locator'
	DD	00H
	DD	00H
	DD	FLAT:??_R0?AVioChannelingNodeManager@@@8
	DD	FLAT:??_R3ioChannelingNodeManager@@8
rdata$r	ENDS
;	COMDAT ??_7ioChannelingNodeManager@@6B@
CONST	SEGMENT
??_7ioChannelingNodeManager@@6B@ DD FLAT:??_R4ioChannelingNodeManager@@6B@ ; ioChannelingNodeManager::`vftable'
	DD	FLAT:??_EioChannelingNodeManager@@UAEPAXI@Z
CONST	ENDS
;	COMDAT xdata$x
xdata$x	SEGMENT
__unwindtable$??0ioChannelingNodeManager@@QAE@XZ DD 0ffffffffH
	DD	FLAT:__unwindfunclet$??0ioChannelingNodeManager@@QAE@XZ$0
	DD	00H
	DD	FLAT:__unwindfunclet$??0ioChannelingNodeManager@@QAE@XZ$1
__ehfuncinfo$??0ioChannelingNodeManager@@QAE@XZ DD 019930522H
	DD	02H
	DD	FLAT:__unwindtable$??0ioChannelingNodeManager@@QAE@XZ
	DD	2 DUP(00H)
	DD	2 DUP(00H)
	DD	00H
	DD	01H
; Function compile flags: /Ogsp
; File d:\lost saga for developer\youtube\tutorial\source\src\lsclient\channeling\iochannelingnodemanager.cpp
xdata$x	ENDS
;	COMDAT ??0ioChannelingNodeManager@@QAE@XZ
_TEXT	SEGMENT
_this$ = -16						; size = 4
__$EHRec$ = -12						; size = 12
??0ioChannelingNodeManager@@QAE@XZ PROC			; ioChannelingNodeManager::ioChannelingNodeManager, COMDAT
; _this$ = ecx

; 18   : {

  00000	6a 04		 push	 4
  00002	b8 00 00 00 00	 mov	 eax, __ehhandler$??0ioChannelingNodeManager@@QAE@XZ
  00007	e8 00 00 00 00	 call	 __EH_prolog3
  0000c	8b f1		 mov	 esi, ecx
  0000e	89 75 f0	 mov	 DWORD PTR _this$[ebp], esi
  00011	8d 4e 04	 lea	 ecx, DWORD PTR [esi+4]
  00014	8d 41 fc	 lea	 eax, DWORD PTR [ecx-4]
  00017	a3 00 00 00 00	 mov	 DWORD PTR ?ms_Singleton@?$Singleton@VioChannelingNodeManager@@@@1PAVioChannelingNodeManager@@A, eax ; Singleton<ioChannelingNodeManager>::ms_Singleton
  0001c	33 c0		 xor	 eax, eax
  0001e	c7 06 00 00 00
	00		 mov	 DWORD PTR [esi], OFFSET ??_7ioChannelingNodeManager@@6B@
  00024	89 45 fc	 mov	 DWORD PTR __$EHRec$[ebp+8], eax
  00027	89 01		 mov	 DWORD PTR [ecx], eax
  00029	89 41 04	 mov	 DWORD PTR [ecx+4], eax
  0002c	89 41 08	 mov	 DWORD PTR [ecx+8], eax

; 19   : 	m_vChannelingNodeVector.reserve( 10 );

  0002f	6a 0a		 push	 10			; 0000000aH
  00031	c6 45 fc 01	 mov	 BYTE PTR __$EHRec$[ebp+8], 1
  00035	e8 00 00 00 00	 call	 ?reserve@?$vector@PAVioChannelingNodeParent@@V?$allocator@PAVioChannelingNodeParent@@@std@@@std@@QAEXI@Z ; std::vector<ioChannelingNodeParent *,std::allocator<ioChannelingNodeParent *> >::reserve

; 20   : }

  0003a	8b c6		 mov	 eax, esi
  0003c	e8 00 00 00 00	 call	 __EH_epilog3
  00041	c3		 ret	 0
_TEXT	ENDS
;	COMDAT text$x
text$x	SEGMENT
__unwindfunclet$??0ioChannelingNodeManager@@QAE@XZ$0:
  00000	8b 4d f0	 mov	 ecx, DWORD PTR _this$[ebp]
  00003	83 c1 04	 add	 ecx, 4
  00006	e9 00 00 00 00	 jmp	 ??1?$Singleton@VioChannelingNodeManager@@@@QAE@XZ ; Singleton<ioChannelingNodeManager>::~Singleton<ioChannelingNodeManager>
__unwindfunclet$??0ioChannelingNodeManager@@QAE@XZ$1:
  0000b	8b 4d f0	 mov	 ecx, DWORD PTR _this$[ebp]
  0000e	83 c1 04	 add	 ecx, 4
  00011	e9 00 00 00 00	 jmp	 ??1?$vector@PAVioChannelingNodeParent@@V?$allocator@PAVioChannelingNodeParent@@@std@@@std@@QAE@XZ ; std::vector<ioChannelingNodeParent *,std::allocator<ioChannelingNodeParent *> >::~vector<ioChannelingNodeParent *,std::allocator<ioChannelingNodeParent *> >
__ehhandler$??0ioChannelingNodeManager@@QAE@XZ:
  00016	8b 54 24 08	 mov	 edx, DWORD PTR [esp+8]
  0001a	8d 42 0c	 lea	 eax, DWORD PTR [edx+12]
  0001d	8b 4a ec	 mov	 ecx, DWORD PTR [edx-20]
  00020	33 c8		 xor	 ecx, eax
  00022	e8 00 00 00 00	 call	 @__security_check_cookie@4
  00027	b8 00 00 00 00	 mov	 eax, OFFSET __ehfuncinfo$??0ioChannelingNodeManager@@QAE@XZ
  0002c	e9 00 00 00 00	 jmp	 ___CxxFrameHandler3
text$x	ENDS
??0ioChannelingNodeManager@@QAE@XZ ENDP			; ioChannelingNodeManager::ioChannelingNodeManager
PUBLIC	?GetNode@ioChannelingNodeManager@@QAEPAVioChannelingNodeParent@@W4ChannelingType@@@Z ; ioChannelingNodeManager::GetNode
; Function compile flags: /Ogsp
;	COMDAT ?GetNode@ioChannelingNodeManager@@QAEPAVioChannelingNodeParent@@W4ChannelingType@@@Z
_TEXT	SEGMENT
_eChannelingType$ = 8					; size = 4
?GetNode@ioChannelingNodeManager@@QAEPAVioChannelingNodeParent@@W4ChannelingType@@@Z PROC ; ioChannelingNodeManager::GetNode, COMDAT
; _this$ = ecx

; 97   : {

  00000	55		 push	 ebp
  00001	8b ec		 mov	 ebp, esp
  00003	53		 push	 ebx
  00004	56		 push	 esi
  00005	8b d9		 mov	 ebx, ecx

; 98   : 	for(vChannelingNodeVector::iterator iter = m_vChannelingNodeVector.begin(); iter != m_vChannelingNodeVector.end(); ++iter)

  00007	8b 73 04	 mov	 esi, DWORD PTR [ebx+4]
  0000a	57		 push	 edi
  0000b	eb 14		 jmp	 SHORT $LN41@GetNode
$LL18@GetNode:

; 99   : 	{
; 100  : 	    ioChannelingNodeParent *pNode = *iter;

  0000d	8b 3e		 mov	 edi, DWORD PTR [esi]

; 101  : 		if( !pNode )

  0000f	85 ff		 test	 edi, edi
  00011	74 0b		 je	 SHORT $LN4@GetNode

; 102  : 			continue;
; 103  : 		if( pNode->GetType() == eChannelingType )

  00013	8b 07		 mov	 eax, DWORD PTR [edi]
  00015	8b cf		 mov	 ecx, edi
  00017	ff 10		 call	 DWORD PTR [eax]
  00019	3b 45 08	 cmp	 eax, DWORD PTR _eChannelingType$[ebp]
  0001c	74 11		 je	 SHORT $LN39@GetNode
$LN4@GetNode:

; 98   : 	for(vChannelingNodeVector::iterator iter = m_vChannelingNodeVector.begin(); iter != m_vChannelingNodeVector.end(); ++iter)

  0001e	83 c6 04	 add	 esi, 4
$LN41@GetNode:
  00021	3b 73 08	 cmp	 esi, DWORD PTR [ebx+8]
  00024	75 e7		 jne	 SHORT $LL18@GetNode

; 105  : 	}
; 106  : 
; 107  : 	return NULL;

  00026	33 c0		 xor	 eax, eax
$LN6@GetNode:
  00028	5f		 pop	 edi
  00029	5e		 pop	 esi
  0002a	5b		 pop	 ebx

; 108  : }

  0002b	5d		 pop	 ebp
  0002c	c2 04 00	 ret	 4
$LN39@GetNode:

; 104  : 			return pNode;

  0002f	8b c7		 mov	 eax, edi
  00031	eb f5		 jmp	 SHORT $LN6@GetNode
?GetNode@ioChannelingNodeManager@@QAEPAVioChannelingNodeParent@@W4ChannelingType@@@Z ENDP ; ioChannelingNodeManager::GetNode
_TEXT	ENDS
PUBLIC	?push_back@?$vector@PAVioChannelingNodeParent@@V?$allocator@PAVioChannelingNodeParent@@@std@@@std@@QAEXABQAVioChannelingNodeParent@@@Z ; std::vector<ioChannelingNodeParent *,std::allocator<ioChannelingNodeParent *> >::push_back
; Function compile flags: /Ogsp
; File c:\program files (x86)\microsoft visual studio 10.0\vc\include\vector
;	COMDAT ?push_back@?$vector@PAVioChannelingNodeParent@@V?$allocator@PAVioChannelingNodeParent@@@std@@@std@@QAEXABQAVioChannelingNodeParent@@@Z
_TEXT	SEGMENT
__Val$ = 8						; size = 4
?push_back@?$vector@PAVioChannelingNodeParent@@V?$allocator@PAVioChannelingNodeParent@@@std@@@std@@QAEXABQAVioChannelingNodeParent@@@Z PROC ; std::vector<ioChannelingNodeParent *,std::allocator<ioChannelingNodeParent *> >::push_back, COMDAT
; _this$ = ecx

; 976  : 		{	// insert element at end

  00000	55		 push	 ebp
  00001	8b ec		 mov	 ebp, esp
  00003	56		 push	 esi
  00004	8b f1		 mov	 esi, ecx

; 977  : 		if (_Inside(_STD addressof(_Val)))

  00006	8b 46 04	 mov	 eax, DWORD PTR [esi+4]
  00009	57		 push	 edi
  0000a	8b 7d 08	 mov	 edi, DWORD PTR __Val$[ebp]
  0000d	3b f8		 cmp	 edi, eax
  0000f	73 27		 jae	 SHORT $LN4@push_back
  00011	8b 0e		 mov	 ecx, DWORD PTR [esi]
  00013	3b cf		 cmp	 ecx, edi
  00015	77 21		 ja	 SHORT $LN4@push_back

; 978  : 			{	// push back an element
; 979  : 			size_type _Idx = _STD addressof(_Val) - this->_Myfirst;

  00017	2b f9		 sub	 edi, ecx
  00019	c1 ff 02	 sar	 edi, 2

; 980  : 			if (this->_Mylast == this->_Myend)

  0001c	3b 46 08	 cmp	 eax, DWORD PTR [esi+8]
  0001f	75 09		 jne	 SHORT $LN3@push_back

; 981  : 				_Reserve(1);

  00021	6a 01		 push	 1
  00023	8b ce		 mov	 ecx, esi
  00025	e8 00 00 00 00	 call	 ?_Reserve@?$vector@PAVioChannelingNodeParent@@V?$allocator@PAVioChannelingNodeParent@@@std@@@std@@IAEXI@Z ; std::vector<ioChannelingNodeParent *,std::allocator<ioChannelingNodeParent *> >::_Reserve
$LN3@push_back:

; 982  : 			_Orphan_range(this->_Mylast, this->_Mylast);
; 983  : 			_Cons_val(this->_Alval,
; 984  : 				this->_Mylast,
; 985  : 				this->_Myfirst[_Idx]);

  0002a	8b 46 04	 mov	 eax, DWORD PTR [esi+4]
  0002d	85 c0		 test	 eax, eax
  0002f	74 20		 je	 SHORT $LN39@push_back
  00031	8b 0e		 mov	 ecx, DWORD PTR [esi]
  00033	8b 0c b9	 mov	 ecx, DWORD PTR [ecx+edi*4]

; 986  : 			++this->_Mylast;
; 987  : 			}
; 988  : 		else

  00036	eb 17		 jmp	 SHORT $LN46@push_back
$LN4@push_back:

; 989  : 			{	// push back a non-element
; 990  : 			if (this->_Mylast == this->_Myend)

  00038	3b 46 08	 cmp	 eax, DWORD PTR [esi+8]
  0003b	75 09		 jne	 SHORT $LN1@push_back

; 991  : 				_Reserve(1);

  0003d	6a 01		 push	 1
  0003f	8b ce		 mov	 ecx, esi
  00041	e8 00 00 00 00	 call	 ?_Reserve@?$vector@PAVioChannelingNodeParent@@V?$allocator@PAVioChannelingNodeParent@@@std@@@std@@IAEXI@Z ; std::vector<ioChannelingNodeParent *,std::allocator<ioChannelingNodeParent *> >::_Reserve
$LN1@push_back:

; 992  : 			_Orphan_range(this->_Mylast, this->_Mylast);
; 993  : 			_Cons_val(this->_Alval,
; 994  : 				this->_Mylast,
; 995  : 				_Val);

  00046	8b 46 04	 mov	 eax, DWORD PTR [esi+4]
  00049	85 c0		 test	 eax, eax
  0004b	74 04		 je	 SHORT $LN39@push_back
  0004d	8b 0f		 mov	 ecx, DWORD PTR [edi]
$LN46@push_back:
  0004f	89 08		 mov	 DWORD PTR [eax], ecx
$LN39@push_back:

; 996  : 			++this->_Mylast;

  00051	83 46 04 04	 add	 DWORD PTR [esi+4], 4
  00055	5f		 pop	 edi
  00056	5e		 pop	 esi

; 997  : 			}
; 998  : 		}

  00057	5d		 pop	 ebp
  00058	c2 04 00	 ret	 4
?push_back@?$vector@PAVioChannelingNodeParent@@V?$allocator@PAVioChannelingNodeParent@@@std@@@std@@QAEXABQAVioChannelingNodeParent@@@Z ENDP ; std::vector<ioChannelingNodeParent *,std::allocator<ioChannelingNodeParent *> >::push_back
_TEXT	ENDS
PUBLIC	?clear@?$vector@PAVioChannelingNodeParent@@V?$allocator@PAVioChannelingNodeParent@@@std@@@std@@QAEXXZ ; std::vector<ioChannelingNodeParent *,std::allocator<ioChannelingNodeParent *> >::clear
; Function compile flags: /Ogsp
;	COMDAT ?clear@?$vector@PAVioChannelingNodeParent@@V?$allocator@PAVioChannelingNodeParent@@@std@@@std@@QAEXXZ
_TEXT	SEGMENT
$T507739 = -4						; size = 4
?clear@?$vector@PAVioChannelingNodeParent@@V?$allocator@PAVioChannelingNodeParent@@@std@@@std@@QAEXXZ PROC ; std::vector<ioChannelingNodeParent *,std::allocator<ioChannelingNodeParent *> >::clear, COMDAT
; _this$ = ecx

; 1217 : 		{	// erase all

  00000	55		 push	 ebp
  00001	8b ec		 mov	 ebp, esp
  00003	51		 push	 ecx

; 1218 : 		erase(begin(), end());

  00004	8b 41 04	 mov	 eax, DWORD PTR [ecx+4]
  00007	8b 11		 mov	 edx, DWORD PTR [ecx]
  00009	50		 push	 eax
  0000a	52		 push	 edx
  0000b	8d 45 fc	 lea	 eax, DWORD PTR $T507739[ebp]
  0000e	50		 push	 eax
  0000f	e8 00 00 00 00	 call	 ?erase@?$vector@PAVioChannelingNodeParent@@V?$allocator@PAVioChannelingNodeParent@@@std@@@std@@QAE?AV?$_Vector_iterator@V?$_Vector_val@PAVioChannelingNodeParent@@V?$allocator@PAVioChannelingNodeParent@@@std@@@std@@@2@V?$_Vector_const_iterator@V?$_Vector_val@PAVioChannelingNodeParent@@V?$allocator@PAVioChannelingNodeParent@@@std@@@std@@@2@0@Z ; std::vector<ioChannelingNodeParent *,std::allocator<ioChannelingNodeParent *> >::erase

; 1219 : 		}

  00014	c9		 leave
  00015	c3		 ret	 0
?clear@?$vector@PAVioChannelingNodeParent@@V?$allocator@PAVioChannelingNodeParent@@@std@@@std@@QAEXXZ ENDP ; std::vector<ioChannelingNodeParent *,std::allocator<ioChannelingNodeParent *> >::clear
_TEXT	ENDS
PUBLIC	??1ioChannelingNodeManager@@UAE@XZ		; ioChannelingNodeManager::~ioChannelingNodeManager
;	COMDAT xdata$x
; File d:\lost saga for developer\youtube\tutorial\source\src\io3dengine\iosingleton.h
xdata$x	SEGMENT
__unwindtable$??1ioChannelingNodeManager@@UAE@XZ DD 0ffffffffH
	DD	FLAT:__unwindfunclet$??1ioChannelingNodeManager@@UAE@XZ$0
	DD	00H
	DD	FLAT:__unwindfunclet$??1ioChannelingNodeManager@@UAE@XZ$1
__ehfuncinfo$??1ioChannelingNodeManager@@UAE@XZ DD 019930522H
	DD	02H
	DD	FLAT:__unwindtable$??1ioChannelingNodeManager@@UAE@XZ
	DD	2 DUP(00H)
	DD	2 DUP(00H)
	DD	00H
	DD	01H
; Function compile flags: /Ogsp
; File d:\lost saga for developer\youtube\tutorial\source\src\lsclient\channeling\iochannelingnodemanager.cpp
xdata$x	ENDS
;	COMDAT ??1ioChannelingNodeManager@@UAE@XZ
_TEXT	SEGMENT
$T507957 = -20						; size = 4
_this$ = -16						; size = 4
__$EHRec$ = -12						; size = 12
??1ioChannelingNodeManager@@UAE@XZ PROC			; ioChannelingNodeManager::~ioChannelingNodeManager, COMDAT
; _this$ = ecx

; 23   : {

  00000	6a 08		 push	 8
  00002	b8 00 00 00 00	 mov	 eax, __ehhandler$??1ioChannelingNodeManager@@UAE@XZ
  00007	e8 00 00 00 00	 call	 __EH_prolog3
  0000c	8b f1		 mov	 esi, ecx
  0000e	89 75 f0	 mov	 DWORD PTR _this$[ebp], esi
  00011	c7 06 00 00 00
	00		 mov	 DWORD PTR [esi], OFFSET ??_7ioChannelingNodeManager@@6B@

; 24   : 	for(vChannelingNodeVector::iterator iter = m_vChannelingNodeVector.begin(); iter != m_vChannelingNodeVector.end(); ++iter)

  00017	8b 5e 04	 mov	 ebx, DWORD PTR [esi+4]
  0001a	c7 45 fc 01 00
	00 00		 mov	 DWORD PTR __$EHRec$[ebp+8], 1
  00021	eb 10		 jmp	 SHORT $LN68@ioChanneli
$LN20@ioChanneli:

; 25   : 	{
; 26   : 	    delete *iter;

  00023	8b 0b		 mov	 ecx, DWORD PTR [ebx]
  00025	85 c9		 test	 ecx, ecx
  00027	74 07		 je	 SHORT $LN2@ioChanneli
  00029	8b 01		 mov	 eax, DWORD PTR [ecx]
  0002b	6a 01		 push	 1
  0002d	ff 50 40	 call	 DWORD PTR [eax+64]
$LN2@ioChanneli:

; 24   : 	for(vChannelingNodeVector::iterator iter = m_vChannelingNodeVector.begin(); iter != m_vChannelingNodeVector.end(); ++iter)

  00030	83 c3 04	 add	 ebx, 4
$LN68@ioChanneli:
  00033	3b 5e 08	 cmp	 ebx, DWORD PTR [esi+8]
  00036	75 eb		 jne	 SHORT $LN20@ioChanneli

; 27   : 	}
; 28   : 	m_vChannelingNodeVector.clear();

  00038	8b 46 08	 mov	 eax, DWORD PTR [esi+8]
  0003b	8b 4e 04	 mov	 ecx, DWORD PTR [esi+4]
  0003e	50		 push	 eax
  0003f	51		 push	 ecx
  00040	8d 45 ec	 lea	 eax, DWORD PTR $T507957[ebp]
  00043	50		 push	 eax
  00044	8d 4e 04	 lea	 ecx, DWORD PTR [esi+4]
  00047	e8 00 00 00 00	 call	 ?erase@?$vector@PAVioChannelingNodeParent@@V?$allocator@PAVioChannelingNodeParent@@@std@@@std@@QAE?AV?$_Vector_iterator@V?$_Vector_val@PAVioChannelingNodeParent@@V?$allocator@PAVioChannelingNodeParent@@@std@@@std@@@2@V?$_Vector_const_iterator@V?$_Vector_val@PAVioChannelingNodeParent@@V?$allocator@PAVioChannelingNodeParent@@@std@@@std@@@2@0@Z ; std::vector<ioChannelingNodeParent *,std::allocator<ioChannelingNodeParent *> >::erase

; 29   : }

  0004c	8d 4e 04	 lea	 ecx, DWORD PTR [esi+4]
  0004f	c6 45 fc 00	 mov	 BYTE PTR __$EHRec$[ebp+8], 0
  00053	e8 00 00 00 00	 call	 ?_Tidy@?$vector@PAVioChannelingNodeParent@@V?$allocator@PAVioChannelingNodeParent@@@std@@@std@@IAEXXZ ; std::vector<ioChannelingNodeParent *,std::allocator<ioChannelingNodeParent *> >::_Tidy
  00058	83 25 00 00 00
	00 00		 and	 DWORD PTR ?ms_Singleton@?$Singleton@VioChannelingNodeManager@@@@1PAVioChannelingNodeManager@@A, 0 ; Singleton<ioChannelingNodeManager>::ms_Singleton
  0005f	e8 00 00 00 00	 call	 __EH_epilog3
  00064	c3		 ret	 0
_TEXT	ENDS
;	COMDAT text$x
text$x	SEGMENT
__unwindfunclet$??1ioChannelingNodeManager@@UAE@XZ$0:
  00000	8b 4d f0	 mov	 ecx, DWORD PTR _this$[ebp]
  00003	83 c1 04	 add	 ecx, 4
  00006	e9 00 00 00 00	 jmp	 ??1?$Singleton@VioChannelingNodeManager@@@@QAE@XZ ; Singleton<ioChannelingNodeManager>::~Singleton<ioChannelingNodeManager>
__unwindfunclet$??1ioChannelingNodeManager@@UAE@XZ$1:
  0000b	8b 4d f0	 mov	 ecx, DWORD PTR _this$[ebp]
  0000e	83 c1 04	 add	 ecx, 4
  00011	e9 00 00 00 00	 jmp	 ??1?$vector@PAVioChannelingNodeParent@@V?$allocator@PAVioChannelingNodeParent@@@std@@@std@@QAE@XZ ; std::vector<ioChannelingNodeParent *,std::allocator<ioChannelingNodeParent *> >::~vector<ioChannelingNodeParent *,std::allocator<ioChannelingNodeParent *> >
__ehhandler$??1ioChannelingNodeManager@@UAE@XZ:
  00016	8b 54 24 08	 mov	 edx, DWORD PTR [esp+8]
  0001a	8d 42 0c	 lea	 eax, DWORD PTR [edx+12]
  0001d	8b 4a e8	 mov	 ecx, DWORD PTR [edx-24]
  00020	33 c8		 xor	 ecx, eax
  00022	e8 00 00 00 00	 call	 @__security_check_cookie@4
  00027	b8 00 00 00 00	 mov	 eax, OFFSET __ehfuncinfo$??1ioChannelingNodeManager@@UAE@XZ
  0002c	e9 00 00 00 00	 jmp	 ___CxxFrameHandler3
text$x	ENDS
??1ioChannelingNodeManager@@UAE@XZ ENDP			; ioChannelingNodeManager::~ioChannelingNodeManager
PUBLIC	??_C@_0BH@GEJDDBOC@?$CFs?5Type?5is?5existing?4?$CFd?$AA@ ; `string'
PUBLIC	??_C@_0BC@IJNBPHJL@?$CFs?5pNode?5?$DN?$DN?5NULL?4?$AA@ ; `string'
PUBLIC	??_C@_0CB@KLEDOMDD@ioChannelingNodeManager?3?3AddNode@ ; `string'
PUBLIC	?AddNode@ioChannelingNodeManager@@IAEXPAVioChannelingNodeParent@@@Z ; ioChannelingNodeManager::AddNode
;	COMDAT ??_C@_0BH@GEJDDBOC@?$CFs?5Type?5is?5existing?4?$CFd?$AA@
CONST	SEGMENT
??_C@_0BH@GEJDDBOC@?$CFs?5Type?5is?5existing?4?$CFd?$AA@ DB '%s Type is e'
	DB	'xisting.%d', 00H				; `string'
CONST	ENDS
;	COMDAT ??_C@_0BC@IJNBPHJL@?$CFs?5pNode?5?$DN?$DN?5NULL?4?$AA@
CONST	SEGMENT
??_C@_0BC@IJNBPHJL@?$CFs?5pNode?5?$DN?$DN?5NULL?4?$AA@ DB '%s pNode == NU'
	DB	'LL.', 00H					; `string'
CONST	ENDS
;	COMDAT ??_C@_0CB@KLEDOMDD@ioChannelingNodeManager?3?3AddNode@
CONST	SEGMENT
??_C@_0CB@KLEDOMDD@ioChannelingNodeManager?3?3AddNode@ DB 'ioChannelingNo'
	DB	'deManager::AddNode', 00H			; `string'
; Function compile flags: /Ogsp
CONST	ENDS
;	COMDAT ?AddNode@ioChannelingNodeManager@@IAEXPAVioChannelingNodeParent@@@Z
_TEXT	SEGMENT
_pNode$ = 8						; size = 4
?AddNode@ioChannelingNodeManager@@IAEXPAVioChannelingNodeParent@@@Z PROC ; ioChannelingNodeManager::AddNode, COMDAT
; _this$ = ecx

; 80   : {

  00000	55		 push	 ebp
  00001	8b ec		 mov	 ebp, esp
  00003	56		 push	 esi

; 81   : 	if( !pNode )

  00004	8b 75 08	 mov	 esi, DWORD PTR _pNode$[ebp]
  00007	57		 push	 edi
  00008	8b f9		 mov	 edi, ecx
  0000a	85 f6		 test	 esi, esi
  0000c	75 1c		 jne	 SHORT $LN2@AddNode

; 82   : 	{
; 83   : 		LOG.PrintTimeAndLog( 0, "%s pNode == NULL." , __FUNCTION__ );

  0000e	68 00 00 00 00	 push	 OFFSET ??_C@_0CB@KLEDOMDD@ioChannelingNodeManager?3?3AddNode@
  00013	68 00 00 00 00	 push	 OFFSET ??_C@_0BC@IJNBPHJL@?$CFs?5pNode?5?$DN?$DN?5NULL?4?$AA@
  00018	56		 push	 esi
  00019	ff 35 00 00 00
	00		 push	 DWORD PTR __imp_?LOG@@3VCLog@@A
  0001f	ff 15 00 00 00
	00		 call	 DWORD PTR __imp_?PrintTimeAndLog@CLog@@QAAXHPADZZ
  00025	83 c4 10	 add	 esp, 16			; 00000010H

; 84   : 		return;

  00028	eb 42		 jmp	 SHORT $LN3@AddNode
$LN2@AddNode:

; 85   : 	}
; 86   : 
; 87   : 	if( GetNode( pNode->GetType() ) )

  0002a	8b 06		 mov	 eax, DWORD PTR [esi]
  0002c	8b ce		 mov	 ecx, esi
  0002e	ff 10		 call	 DWORD PTR [eax]
  00030	50		 push	 eax
  00031	8b cf		 mov	 ecx, edi
  00033	e8 00 00 00 00	 call	 ?GetNode@ioChannelingNodeManager@@QAEPAVioChannelingNodeParent@@W4ChannelingType@@@Z ; ioChannelingNodeManager::GetNode
  00038	85 c0		 test	 eax, eax
  0003a	74 24		 je	 SHORT $LN1@AddNode

; 88   : 	{
; 89   : 		LOG.PrintTimeAndLog( 0, "%s Type is existing.%d" , __FUNCTION__ , pNode->GetType() );

  0003c	8b 06		 mov	 eax, DWORD PTR [esi]
  0003e	8b ce		 mov	 ecx, esi
  00040	ff 10		 call	 DWORD PTR [eax]
  00042	50		 push	 eax
  00043	68 00 00 00 00	 push	 OFFSET ??_C@_0CB@KLEDOMDD@ioChannelingNodeManager?3?3AddNode@
  00048	68 00 00 00 00	 push	 OFFSET ??_C@_0BH@GEJDDBOC@?$CFs?5Type?5is?5existing?4?$CFd?$AA@
  0004d	6a 00		 push	 0
  0004f	ff 35 00 00 00
	00		 push	 DWORD PTR __imp_?LOG@@3VCLog@@A
  00055	ff 15 00 00 00
	00		 call	 DWORD PTR __imp_?PrintTimeAndLog@CLog@@QAAXHPADZZ
  0005b	83 c4 14	 add	 esp, 20			; 00000014H

; 90   : 		return;

  0005e	eb 0c		 jmp	 SHORT $LN3@AddNode
$LN1@AddNode:

; 91   : 	}
; 92   : 
; 93   : 	m_vChannelingNodeVector.push_back( pNode );

  00060	8d 45 08	 lea	 eax, DWORD PTR _pNode$[ebp]
  00063	50		 push	 eax
  00064	8d 4f 04	 lea	 ecx, DWORD PTR [edi+4]
  00067	e8 00 00 00 00	 call	 ?push_back@?$vector@PAVioChannelingNodeParent@@V?$allocator@PAVioChannelingNodeParent@@@std@@@std@@QAEXABQAVioChannelingNodeParent@@@Z ; std::vector<ioChannelingNodeParent *,std::allocator<ioChannelingNodeParent *> >::push_back
$LN3@AddNode:
  0006c	5f		 pop	 edi
  0006d	5e		 pop	 esi

; 94   : }

  0006e	5d		 pop	 ebp
  0006f	c2 04 00	 ret	 4
?AddNode@ioChannelingNodeManager@@IAEXPAVioChannelingNodeParent@@@Z ENDP ; ioChannelingNodeManager::AddNode
; Function compile flags: /Ogsp
_TEXT	ENDS
;	COMDAT ??_GioChannelingNodeManager@@UAEPAXI@Z
_TEXT	SEGMENT
___flags$ = 8						; size = 4
??_GioChannelingNodeManager@@UAEPAXI@Z PROC		; ioChannelingNodeManager::`scalar deleting destructor', COMDAT
; _this$ = ecx
  00000	55		 push	 ebp
  00001	8b ec		 mov	 ebp, esp
  00003	56		 push	 esi
  00004	8b f1		 mov	 esi, ecx
  00006	e8 00 00 00 00	 call	 ??1ioChannelingNodeManager@@UAE@XZ ; ioChannelingNodeManager::~ioChannelingNodeManager
  0000b	f6 45 08 01	 test	 BYTE PTR ___flags$[ebp], 1
  0000f	74 07		 je	 SHORT $LN1@scalar@2
  00011	56		 push	 esi
  00012	e8 00 00 00 00	 call	 ??3@YAXPAX@Z		; operator delete
  00017	59		 pop	 ecx
$LN1@scalar@2:
  00018	8b c6		 mov	 eax, esi
  0001a	5e		 pop	 esi
  0001b	5d		 pop	 ebp
  0001c	c2 04 00	 ret	 4
??_GioChannelingNodeManager@@UAEPAXI@Z ENDP		; ioChannelingNodeManager::`scalar deleting destructor'
_TEXT	ENDS
PUBLIC	?Init@ioChannelingNodeManager@@QAEXXZ		; ioChannelingNodeManager::Init
; Function compile flags: /Ogsp
;	COMDAT ?Init@ioChannelingNodeManager@@QAEXXZ
_TEXT	SEGMENT
?Init@ioChannelingNodeManager@@QAEXXZ PROC		; ioChannelingNodeManager::Init, COMDAT
; _this$ = ecx

; 37   : {

  00000	56		 push	 esi

; 38   : 	AddNode( CreateNode( CNT_WEMADEBUY ) );

  00001	6a 00		 push	 0
  00003	8b f1		 mov	 esi, ecx
  00005	e8 00 00 00 00	 call	 ?CreateNode@ioChannelingNodeManager@@IAEPAVioChannelingNodeParent@@W4ChannelingType@@@Z ; ioChannelingNodeManager::CreateNode
  0000a	50		 push	 eax
  0000b	8b ce		 mov	 ecx, esi
  0000d	e8 00 00 00 00	 call	 ?AddNode@ioChannelingNodeManager@@IAEXPAVioChannelingNodeParent@@@Z ; ioChannelingNodeManager::AddNode

; 39   : #ifdef STEAM_ATTACH
; 40   : 	AddNode( CreateNode( CNT_STEAM ));
; 41   : #endif
; 42   : 	AddNode( CreateNode( CNT_MGAME ) );

  00012	68 2c 01 00 00	 push	 300			; 0000012cH
  00017	8b ce		 mov	 ecx, esi
  00019	e8 00 00 00 00	 call	 ?CreateNode@ioChannelingNodeManager@@IAEPAVioChannelingNodeParent@@W4ChannelingType@@@Z ; ioChannelingNodeManager::CreateNode
  0001e	50		 push	 eax
  0001f	8b ce		 mov	 ecx, esi
  00021	e8 00 00 00 00	 call	 ?AddNode@ioChannelingNodeManager@@IAEXPAVioChannelingNodeParent@@@Z ; ioChannelingNodeManager::AddNode

; 43   : 	AddNode( CreateNode( CNT_DAUM ) );

  00026	68 90 01 00 00	 push	 400			; 00000190H
  0002b	8b ce		 mov	 ecx, esi
  0002d	e8 00 00 00 00	 call	 ?CreateNode@ioChannelingNodeManager@@IAEPAVioChannelingNodeParent@@W4ChannelingType@@@Z ; ioChannelingNodeManager::CreateNode
  00032	50		 push	 eax
  00033	8b ce		 mov	 ecx, esi
  00035	e8 00 00 00 00	 call	 ?AddNode@ioChannelingNodeManager@@IAEXPAVioChannelingNodeParent@@@Z ; ioChannelingNodeManager::AddNode

; 44   : 	AddNode( CreateNode( CNT_NAVER ) );

  0003a	68 58 02 00 00	 push	 600			; 00000258H
  0003f	8b ce		 mov	 ecx, esi
  00041	e8 00 00 00 00	 call	 ?CreateNode@ioChannelingNodeManager@@IAEPAVioChannelingNodeParent@@W4ChannelingType@@@Z ; ioChannelingNodeManager::CreateNode
  00046	50		 push	 eax
  00047	8b ce		 mov	 ecx, esi
  00049	e8 00 00 00 00	 call	 ?AddNode@ioChannelingNodeManager@@IAEXPAVioChannelingNodeParent@@@Z ; ioChannelingNodeManager::AddNode

; 45   : 	AddNode( CreateNode( CNT_TOONILAND ) );

  0004e	68 bc 02 00 00	 push	 700			; 000002bcH
  00053	8b ce		 mov	 ecx, esi
  00055	e8 00 00 00 00	 call	 ?CreateNode@ioChannelingNodeManager@@IAEPAVioChannelingNodeParent@@W4ChannelingType@@@Z ; ioChannelingNodeManager::CreateNode
  0005a	50		 push	 eax
  0005b	8b ce		 mov	 ecx, esi
  0005d	e8 00 00 00 00	 call	 ?AddNode@ioChannelingNodeManager@@IAEXPAVioChannelingNodeParent@@@Z ; ioChannelingNodeManager::AddNode

; 46   : 	AddNode( CreateNode( CNT_NEXON ) );

  00062	68 20 03 00 00	 push	 800			; 00000320H
  00067	8b ce		 mov	 ecx, esi
  00069	e8 00 00 00 00	 call	 ?CreateNode@ioChannelingNodeManager@@IAEPAVioChannelingNodeParent@@W4ChannelingType@@@Z ; ioChannelingNodeManager::CreateNode
  0006e	50		 push	 eax
  0006f	8b ce		 mov	 ecx, esi
  00071	e8 00 00 00 00	 call	 ?AddNode@ioChannelingNodeManager@@IAEXPAVioChannelingNodeParent@@@Z ; ioChannelingNodeManager::AddNode

; 47   : 	AddNode( CreateNode( CNT_HANGAME ) );

  00076	68 84 03 00 00	 push	 900			; 00000384H
  0007b	8b ce		 mov	 ecx, esi
  0007d	e8 00 00 00 00	 call	 ?CreateNode@ioChannelingNodeManager@@IAEPAVioChannelingNodeParent@@W4ChannelingType@@@Z ; ioChannelingNodeManager::CreateNode
  00082	50		 push	 eax
  00083	8b ce		 mov	 ecx, esi
  00085	e8 00 00 00 00	 call	 ?AddNode@ioChannelingNodeManager@@IAEXPAVioChannelingNodeParent@@@Z ; ioChannelingNodeManager::AddNode
  0008a	5e		 pop	 esi

; 48   : 	// 새로운 채널링 추가
; 49   : }

  0008b	c3		 ret	 0
?Init@ioChannelingNodeManager@@QAEXXZ ENDP		; ioChannelingNodeManager::Init
_TEXT	ENDS
END
