; Listing generated by Microsoft (R) Optimizing Compiler Version 16.00.30319.01 

	TITLE	D:\Lost Saga For Developer\Youtube\Tutorial\Source\src\LSClient\ioCharEmoticon.cpp
	.686P
	.XMM
	include listing.inc
	.model	flat

INCLUDELIB MSVCRT
INCLUDELIB OLDNAMES

PUBLIC	?m_dwDefaultDuration@ioCharEmoticon@@1KA	; ioCharEmoticon::m_dwDefaultDuration
PUBLIC	?m_iEmoticonXPos@ioCharEmoticon@@1HA		; ioCharEmoticon::m_iEmoticonXPos
PUBLIC	?m_iEmoticonYPos@ioCharEmoticon@@1HA		; ioCharEmoticon::m_iEmoticonYPos
PUBLIC	?m_iEmoticonNameOffsetX@ioCharEmoticon@@1HA	; ioCharEmoticon::m_iEmoticonNameOffsetX
PUBLIC	?m_iEmoticonNameOffsetY@ioCharEmoticon@@1HA	; ioCharEmoticon::m_iEmoticonNameOffsetY
PUBLIC	?m_iEmoticonNameAlignType@ioCharEmoticon@@1HA	; ioCharEmoticon::m_iEmoticonNameAlignType
PUBLIC	?m_dwChatIconDuration@ioCharEmoticon@@1KA	; ioCharEmoticon::m_dwChatIconDuration
PUBLIC	?m_dw3DChatIconDuration@ioCharEmoticon@@1KA	; ioCharEmoticon::m_dw3DChatIconDuration
PUBLIC	?m_dwLongDuration@ioCharEmoticon@@1KA		; ioCharEmoticon::m_dwLongDuration
PUBLIC	?m_fEmoticonEndScale@ioCharEmoticon@@1MA	; ioCharEmoticon::m_fEmoticonEndScale
PUBLIC	?m_fFishingGradeEndScale@ioCharEmoticon@@1MA	; ioCharEmoticon::m_fFishingGradeEndScale
PUBLIC	?m_fOwnerGameEventScale@ioCharEmoticon@@1MA	; ioCharEmoticon::m_fOwnerGameEventScale
PUBLIC	?m_fOwnerSkillBuffScale@ioCharEmoticon@@1MA	; ioCharEmoticon::m_fOwnerSkillBuffScale
PUBLIC	?m_fOwnerBadStateScale@ioCharEmoticon@@1MA	; ioCharEmoticon::m_fOwnerBadStateScale
PUBLIC	?m_fOwnerMovieEventScale@ioCharEmoticon@@1MA	; ioCharEmoticon::m_fOwnerMovieEventScale
PUBLIC	?m_fOtherGameEventScale@ioCharEmoticon@@1MA	; ioCharEmoticon::m_fOtherGameEventScale
PUBLIC	?m_fOtherSkillBuffScale@ioCharEmoticon@@1MA	; ioCharEmoticon::m_fOtherSkillBuffScale
PUBLIC	?m_fOtherBadStateScale@ioCharEmoticon@@1MA	; ioCharEmoticon::m_fOtherBadStateScale
PUBLIC	?m_fOtherMovieEventScale@ioCharEmoticon@@1MA	; ioCharEmoticon::m_fOtherMovieEventScale
PUBLIC	?m_dwOwnerGameEventTime@ioCharEmoticon@@1KA	; ioCharEmoticon::m_dwOwnerGameEventTime
PUBLIC	?m_dwOwnerSkillBuffTime@ioCharEmoticon@@1KA	; ioCharEmoticon::m_dwOwnerSkillBuffTime
PUBLIC	?m_dwOwnerBadStateTime@ioCharEmoticon@@1KA	; ioCharEmoticon::m_dwOwnerBadStateTime
PUBLIC	?m_dwOtherGameEventTime@ioCharEmoticon@@1KA	; ioCharEmoticon::m_dwOtherGameEventTime
PUBLIC	?m_dwOtherSkillBuffTime@ioCharEmoticon@@1KA	; ioCharEmoticon::m_dwOtherSkillBuffTime
PUBLIC	?m_dwOtherBadStateTime@ioCharEmoticon@@1KA	; ioCharEmoticon::m_dwOtherBadStateTime
PUBLIC	?m_dwDisapearWhiteTime@ioCharEmoticon@@1KA	; ioCharEmoticon::m_dwDisapearWhiteTime
PUBLIC	?m_dwDisapearAlphaTime@ioCharEmoticon@@1KA	; ioCharEmoticon::m_dwDisapearAlphaTime
PUBLIC	?m_fDurationScaleRate@ioCharEmoticon@@1MA	; ioCharEmoticon::m_fDurationScaleRate
PUBLIC	?m_fDurationScaleFastRate@ioCharEmoticon@@1MA	; ioCharEmoticon::m_fDurationScaleFastRate
PUBLIC	?m_dwDurationScaleTime@ioCharEmoticon@@1KA	; ioCharEmoticon::m_dwDurationScaleTime
PUBLIC	?m_dwDurationScaleFastTime@ioCharEmoticon@@1KA	; ioCharEmoticon::m_dwDurationScaleFastTime
_BSS	SEGMENT
?m_dwDefaultDuration@ioCharEmoticon@@1KA DD 01H DUP (?)	; ioCharEmoticon::m_dwDefaultDuration
?m_iEmoticonXPos@ioCharEmoticon@@1HA DD 01H DUP (?)	; ioCharEmoticon::m_iEmoticonXPos
?m_iEmoticonYPos@ioCharEmoticon@@1HA DD 01H DUP (?)	; ioCharEmoticon::m_iEmoticonYPos
?m_iEmoticonNameOffsetX@ioCharEmoticon@@1HA DD 01H DUP (?) ; ioCharEmoticon::m_iEmoticonNameOffsetX
?m_iEmoticonNameOffsetY@ioCharEmoticon@@1HA DD 01H DUP (?) ; ioCharEmoticon::m_iEmoticonNameOffsetY
?m_iEmoticonNameAlignType@ioCharEmoticon@@1HA DD 01H DUP (?) ; ioCharEmoticon::m_iEmoticonNameAlignType
?m_dwChatIconDuration@ioCharEmoticon@@1KA DD 01H DUP (?) ; ioCharEmoticon::m_dwChatIconDuration
?m_dw3DChatIconDuration@ioCharEmoticon@@1KA DD 01H DUP (?) ; ioCharEmoticon::m_dw3DChatIconDuration
?m_dwLongDuration@ioCharEmoticon@@1KA DD 01H DUP (?)	; ioCharEmoticon::m_dwLongDuration
?m_fEmoticonEndScale@ioCharEmoticon@@1MA DD 01H DUP (?)	; ioCharEmoticon::m_fEmoticonEndScale
?m_fFishingGradeEndScale@ioCharEmoticon@@1MA DD 01H DUP (?) ; ioCharEmoticon::m_fFishingGradeEndScale
?m_fOwnerGameEventScale@ioCharEmoticon@@1MA DD 01H DUP (?) ; ioCharEmoticon::m_fOwnerGameEventScale
?m_fOwnerSkillBuffScale@ioCharEmoticon@@1MA DD 01H DUP (?) ; ioCharEmoticon::m_fOwnerSkillBuffScale
?m_fOwnerBadStateScale@ioCharEmoticon@@1MA DD 01H DUP (?) ; ioCharEmoticon::m_fOwnerBadStateScale
?m_fOwnerMovieEventScale@ioCharEmoticon@@1MA DD 01H DUP (?) ; ioCharEmoticon::m_fOwnerMovieEventScale
?m_fOtherGameEventScale@ioCharEmoticon@@1MA DD 01H DUP (?) ; ioCharEmoticon::m_fOtherGameEventScale
?m_fOtherSkillBuffScale@ioCharEmoticon@@1MA DD 01H DUP (?) ; ioCharEmoticon::m_fOtherSkillBuffScale
?m_fOtherBadStateScale@ioCharEmoticon@@1MA DD 01H DUP (?) ; ioCharEmoticon::m_fOtherBadStateScale
?m_fOtherMovieEventScale@ioCharEmoticon@@1MA DD 01H DUP (?) ; ioCharEmoticon::m_fOtherMovieEventScale
?m_dwOwnerGameEventTime@ioCharEmoticon@@1KA DD 01H DUP (?) ; ioCharEmoticon::m_dwOwnerGameEventTime
?m_dwOwnerSkillBuffTime@ioCharEmoticon@@1KA DD 01H DUP (?) ; ioCharEmoticon::m_dwOwnerSkillBuffTime
?m_dwOwnerBadStateTime@ioCharEmoticon@@1KA DD 01H DUP (?) ; ioCharEmoticon::m_dwOwnerBadStateTime
?m_dwOtherGameEventTime@ioCharEmoticon@@1KA DD 01H DUP (?) ; ioCharEmoticon::m_dwOtherGameEventTime
?m_dwOtherSkillBuffTime@ioCharEmoticon@@1KA DD 01H DUP (?) ; ioCharEmoticon::m_dwOtherSkillBuffTime
?m_dwOtherBadStateTime@ioCharEmoticon@@1KA DD 01H DUP (?) ; ioCharEmoticon::m_dwOtherBadStateTime
?m_dwDisapearWhiteTime@ioCharEmoticon@@1KA DD 01H DUP (?) ; ioCharEmoticon::m_dwDisapearWhiteTime
?m_dwDisapearAlphaTime@ioCharEmoticon@@1KA DD 01H DUP (?) ; ioCharEmoticon::m_dwDisapearAlphaTime
?m_fDurationScaleRate@ioCharEmoticon@@1MA DD 01H DUP (?) ; ioCharEmoticon::m_fDurationScaleRate
?m_fDurationScaleFastRate@ioCharEmoticon@@1MA DD 01H DUP (?) ; ioCharEmoticon::m_fDurationScaleFastRate
?m_dwDurationScaleTime@ioCharEmoticon@@1KA DD 01H DUP (?) ; ioCharEmoticon::m_dwDurationScaleTime
?m_dwDurationScaleFastTime@ioCharEmoticon@@1KA DD 01H DUP (?) ; ioCharEmoticon::m_dwDurationScaleFastTime
_BSS	ENDS
PUBLIC	??0EmoticonInfo@@QAE@XZ				; EmoticonInfo::EmoticonInfo
EXTRN	??1ioComplexStringPrinter@@QAE@XZ:PROC		; ioComplexStringPrinter::~ioComplexStringPrinter
EXTRN	__imp_??1ioHashString@@QAE@XZ:PROC
EXTRN	?ClearList@ioComplexStringPrinter@@QAEXXZ:PROC	; ioComplexStringPrinter::ClearList
EXTRN	??0ioComplexStringPrinter@@QAE@XZ:PROC		; ioComplexStringPrinter::ioComplexStringPrinter
EXTRN	__imp_??0ioHashString@@QAE@XZ:PROC
EXTRN	___CxxFrameHandler3:PROC
EXTRN	@__security_check_cookie@4:PROC
EXTRN	__EH_epilog3:PROC
EXTRN	__EH_prolog3:PROC
;	COMDAT xdata$x
; File d:\lost saga for developer\youtube\tutorial\source\src\lsclient\iocharemoticon.h
xdata$x	SEGMENT
__unwindtable$??0EmoticonInfo@@QAE@XZ DD 0ffffffffH
	DD	FLAT:__unwindfunclet$??0EmoticonInfo@@QAE@XZ$0
	DD	00H
	DD	FLAT:__unwindfunclet$??0EmoticonInfo@@QAE@XZ$1
__ehfuncinfo$??0EmoticonInfo@@QAE@XZ DD 019930522H
	DD	02H
	DD	FLAT:__unwindtable$??0EmoticonInfo@@QAE@XZ
	DD	2 DUP(00H)
	DD	2 DUP(00H)
	DD	00H
	DD	01H
; Function compile flags: /Ogsp
xdata$x	ENDS
;	COMDAT ??0EmoticonInfo@@QAE@XZ
_TEXT	SEGMENT
_this$ = -16						; size = 4
__$EHRec$ = -12						; size = 12
??0EmoticonInfo@@QAE@XZ PROC				; EmoticonInfo::EmoticonInfo, COMDAT
; _this$ = ecx

; 26   : 	EmoticonInfo()

  00000	6a 04		 push	 4
  00002	b8 00 00 00 00	 mov	 eax, __ehhandler$??0EmoticonInfo@@QAE@XZ
  00007	e8 00 00 00 00	 call	 __EH_prolog3
  0000c	8b f1		 mov	 esi, ecx
  0000e	89 75 f0	 mov	 DWORD PTR _this$[ebp], esi
  00011	ff 15 00 00 00
	00		 call	 DWORD PTR __imp_??0ioHashString@@QAE@XZ
  00017	33 db		 xor	 ebx, ebx
  00019	8d 4e 1c	 lea	 ecx, DWORD PTR [esi+28]
  0001c	89 5d fc	 mov	 DWORD PTR __$EHRec$[ebp+8], ebx
  0001f	e8 00 00 00 00	 call	 ??0ioComplexStringPrinter@@QAE@XZ ; ioComplexStringPrinter::ioComplexStringPrinter

; 27   : 	{
; 28   : 		m_bOwner = false;
; 29   : 		m_Type = EMT_DEFAULT;
; 30   : 		m_iPriority = 0;
; 31   : 		m_dwStartTime = 0;
; 32   : 		m_dwDuration = 0;
; 33   : 		m_DescString.ClearList();

  00024	8d 4e 1c	 lea	 ecx, DWORD PTR [esi+28]
  00027	c6 45 fc 01	 mov	 BYTE PTR __$EHRec$[ebp+8], 1
  0002b	88 5e 14	 mov	 BYTE PTR [esi+20], bl
  0002e	89 5e 10	 mov	 DWORD PTR [esi+16], ebx
  00031	89 5e 18	 mov	 DWORD PTR [esi+24], ebx
  00034	89 5e 3c	 mov	 DWORD PTR [esi+60], ebx
  00037	89 5e 40	 mov	 DWORD PTR [esi+64], ebx
  0003a	e8 00 00 00 00	 call	 ?ClearList@ioComplexStringPrinter@@QAEXXZ ; ioComplexStringPrinter::ClearList

; 34   : 	}

  0003f	8b c6		 mov	 eax, esi
  00041	e8 00 00 00 00	 call	 __EH_epilog3
  00046	c3		 ret	 0
_TEXT	ENDS
;	COMDAT text$x
text$x	SEGMENT
__unwindfunclet$??0EmoticonInfo@@QAE@XZ$0:
  00000	8b 4d f0	 mov	 ecx, DWORD PTR _this$[ebp]
  00003	ff 25 00 00 00
	00		 jmp	 DWORD PTR __imp_??1ioHashString@@QAE@XZ
__unwindfunclet$??0EmoticonInfo@@QAE@XZ$1:
  00009	8b 4d f0	 mov	 ecx, DWORD PTR _this$[ebp]
  0000c	83 c1 1c	 add	 ecx, 28			; 0000001cH
  0000f	e9 00 00 00 00	 jmp	 ??1ioComplexStringPrinter@@QAE@XZ ; ioComplexStringPrinter::~ioComplexStringPrinter
__ehhandler$??0EmoticonInfo@@QAE@XZ:
  00014	8b 54 24 08	 mov	 edx, DWORD PTR [esp+8]
  00018	8d 42 0c	 lea	 eax, DWORD PTR [edx+12]
  0001b	8b 4a ec	 mov	 ecx, DWORD PTR [edx-20]
  0001e	33 c8		 xor	 ecx, eax
  00020	e8 00 00 00 00	 call	 @__security_check_cookie@4
  00025	b8 00 00 00 00	 mov	 eax, OFFSET __ehfuncinfo$??0EmoticonInfo@@QAE@XZ
  0002a	e9 00 00 00 00	 jmp	 ___CxxFrameHandler3
text$x	ENDS
??0EmoticonInfo@@QAE@XZ ENDP				; EmoticonInfo::EmoticonInfo
PUBLIC	??REmoticonInfoSort@@QBE_NPBUEmoticonInfo@@0@Z	; EmoticonInfoSort::operator()
EXTRN	__imp__stricmp:PROC
EXTRN	__imp_?c_str@ioHashString@@QBEPBDXZ:PROC
; Function compile flags: /Ogsp
;	COMDAT ??REmoticonInfoSort@@QBE_NPBUEmoticonInfo@@0@Z
_TEXT	SEGMENT
_lhs$ = 8						; size = 4
_rhs$ = 12						; size = 4
??REmoticonInfoSort@@QBE_NPBUEmoticonInfo@@0@Z PROC	; EmoticonInfoSort::operator(), COMDAT
; _this$ = ecx

; 42   : 	{

  00000	55		 push	 ebp
  00001	8b ec		 mov	 ebp, esp

; 43   : 		if( lhs->m_iPriority < rhs->m_iPriority )

  00003	8b 4d 0c	 mov	 ecx, DWORD PTR _rhs$[ebp]
  00006	8b 51 18	 mov	 edx, DWORD PTR [ecx+24]
  00009	56		 push	 esi
  0000a	8b 75 08	 mov	 esi, DWORD PTR _lhs$[ebp]
  0000d	8b 46 18	 mov	 eax, DWORD PTR [esi+24]
  00010	3b c2		 cmp	 eax, edx
  00012	7d 04		 jge	 SHORT $LN10@operator
$LN12@operator:

; 44   : 		{
; 45   : 			return true;

  00014	b0 01		 mov	 al, 1
  00016	eb 2c		 jmp	 SHORT $LN8@operator
$LN10@operator:

; 46   : 		}
; 47   : 		else if( lhs->m_iPriority == rhs->m_iPriority )

  00018	75 28		 jne	 SHORT $LN1@operator

; 48   : 		{
; 49   : 			if( lhs->m_dwStartTime > rhs->m_dwStartTime )

  0001a	8b 46 3c	 mov	 eax, DWORD PTR [esi+60]
  0001d	8b 51 3c	 mov	 edx, DWORD PTR [ecx+60]
  00020	3b c2		 cmp	 eax, edx

; 50   : 			{
; 51   : 				return true;

  00022	77 f0		 ja	 SHORT $LN12@operator

; 52   : 			}
; 53   : 			else if( lhs->m_dwStartTime == rhs->m_dwStartTime )

  00024	75 1c		 jne	 SHORT $LN1@operator

; 54   : 			{
; 55   : 				int iCmpValue = stricmp( lhs->m_EmoticonName.c_str(), rhs->m_EmoticonName.c_str() );

  00026	ff 15 00 00 00
	00		 call	 DWORD PTR __imp_?c_str@ioHashString@@QBEPBDXZ
  0002c	50		 push	 eax
  0002d	8b ce		 mov	 ecx, esi
  0002f	ff 15 00 00 00
	00		 call	 DWORD PTR __imp_?c_str@ioHashString@@QBEPBDXZ
  00035	50		 push	 eax
  00036	ff 15 00 00 00
	00		 call	 DWORD PTR __imp__stricmp
  0003c	59		 pop	 ecx
  0003d	59		 pop	 ecx

; 56   : 				if( iCmpValue < 0 )

  0003e	85 c0		 test	 eax, eax

; 57   : 					return true;

  00040	78 d2		 js	 SHORT $LN12@operator
$LN1@operator:

; 58   : 			}
; 59   : 		}
; 60   : 
; 61   : 		return false;

  00042	32 c0		 xor	 al, al
$LN8@operator:
  00044	5e		 pop	 esi

; 62   : 	}

  00045	5d		 pop	 ebp
  00046	c2 08 00	 ret	 8
??REmoticonInfoSort@@QBE_NPBUEmoticonInfo@@0@Z ENDP	; EmoticonInfoSort::operator()
_TEXT	ENDS
PUBLIC	?return1@@YAIXZ					; return1
; Function compile flags: /Ogsp
; File d:\lost saga for developer\youtube\tutorial\source\src\lsclient\stdafx.h
;	COMDAT ?return1@@YAIXZ
_TEXT	SEGMENT
?return1@@YAIXZ PROC					; return1, COMDAT

; 17   : 	__forceinline unsigned int return1() { __asm mov eax, 1 };

  00000	b8 01 00 00 00	 mov	 eax, 1
  00005	c3		 ret	 0
?return1@@YAIXZ ENDP					; return1
_TEXT	ENDS
PUBLIC	?return100@@YAIXZ				; return100
; Function compile flags: /Ogsp
;	COMDAT ?return100@@YAIXZ
_TEXT	SEGMENT
?return100@@YAIXZ PROC					; return100, COMDAT

; 25   : 	__forceinline unsigned int return100() { __asm mov eax, 100 };

  00000	b8 64 00 00 00	 mov	 eax, 100		; 00000064H
  00005	c3		 ret	 0
?return100@@YAIXZ ENDP					; return100
_TEXT	ENDS
PUBLIC	?GetState@ioBaseChar@@QBE?AW4CharState@@XZ	; ioBaseChar::GetState
; Function compile flags: /Ogsp
; File d:\lost saga for developer\youtube\tutorial\source\src\lsclient\iobasechar.h
;	COMDAT ?GetState@ioBaseChar@@QBE?AW4CharState@@XZ
_TEXT	SEGMENT
?GetState@ioBaseChar@@QBE?AW4CharState@@XZ PROC		; ioBaseChar::GetState, COMDAT
; _this$ = ecx

; 2156 : 	inline CharState GetState() const { return m_CharState; }	

  00000	8a 81 10 03 00
	00		 mov	 al, BYTE PTR [ecx+784]
  00006	c3		 ret	 0
?GetState@ioBaseChar@@QBE?AW4CharState@@XZ ENDP		; ioBaseChar::GetState
_TEXT	ENDS
PUBLIC	_fabsf
EXTRN	__fltused:DWORD
; Function compile flags: /Ogsp
; File c:\program files (x86)\microsoft visual studio 10.0\vc\include\math.h
;	COMDAT _fabsf
_TEXT	SEGMENT
tv129 = 8						; size = 4
__X$ = 8						; size = 4
_fabsf	PROC						; COMDAT

; 395  :         {return ((float)fabs((double)_X)); }

  00000	55		 push	 ebp
  00001	8b ec		 mov	 ebp, esp
  00003	d9 45 08	 fld	 DWORD PTR __X$[ebp]
  00006	d9 e1		 fabs
  00008	d9 5d 08	 fstp	 DWORD PTR tv129[ebp]
  0000b	d9 45 08	 fld	 DWORD PTR tv129[ebp]
  0000e	5d		 pop	 ebp
  0000f	c3		 ret	 0
_fabsf	ENDP
_TEXT	ENDS
PUBLIC	_sinf
EXTRN	__CIsin:PROC
; Function compile flags: /Ogsp
;	COMDAT _sinf
_TEXT	SEGMENT
tv69 = 8						; size = 4
__X$ = 8						; size = 4
_sinf	PROC						; COMDAT

; 430  :         {return ((float)sin((double)_X)); }

  00000	55		 push	 ebp
  00001	8b ec		 mov	 ebp, esp
  00003	d9 45 08	 fld	 DWORD PTR __X$[ebp]
  00006	e8 00 00 00 00	 call	 __CIsin
  0000b	d9 5d 08	 fstp	 DWORD PTR tv69[ebp]
  0000e	d9 45 08	 fld	 DWORD PTR tv69[ebp]
  00011	5d		 pop	 ebp
  00012	c3		 ret	 0
_sinf	ENDP
_TEXT	ENDS
PUBLIC	?fabs@@YAMM@Z					; fabs
; Function compile flags: /Ogsp
;	COMDAT ?fabs@@YAMM@Z
_TEXT	SEGMENT
tv131 = 8						; size = 4
__X$ = 8						; size = 4
?fabs@@YAMM@Z PROC					; fabs, COMDAT

; 518  :         {return (fabsf(_X)); }

  00000	55		 push	 ebp
  00001	8b ec		 mov	 ebp, esp
  00003	d9 45 08	 fld	 DWORD PTR __X$[ebp]
  00006	d9 e1		 fabs
  00008	d9 5d 08	 fstp	 DWORD PTR tv131[ebp]
  0000b	d9 45 08	 fld	 DWORD PTR tv131[ebp]
  0000e	5d		 pop	 ebp
  0000f	c3		 ret	 0
?fabs@@YAMM@Z ENDP					; fabs
_TEXT	ENDS
PUBLIC	??_7bad_alloc@std@@6B@				; std::bad_alloc::`vftable'
PUBLIC	??0bad_alloc@std@@QAE@PBD@Z			; std::bad_alloc::bad_alloc
PUBLIC	??_R4bad_alloc@std@@6B@				; std::bad_alloc::`RTTI Complete Object Locator'
PUBLIC	??_R0?AVbad_alloc@std@@@8			; std::bad_alloc `RTTI Type Descriptor'
PUBLIC	??_R3bad_alloc@std@@8				; std::bad_alloc::`RTTI Class Hierarchy Descriptor'
PUBLIC	??_R2bad_alloc@std@@8				; std::bad_alloc::`RTTI Base Class Array'
PUBLIC	??_R1A@?0A@EA@bad_alloc@std@@8			; std::bad_alloc::`RTTI Base Class Descriptor at (0,-1,0,64)'
PUBLIC	??_R1A@?0A@EA@exception@std@@8			; std::exception::`RTTI Base Class Descriptor at (0,-1,0,64)'
PUBLIC	??_R0?AVexception@std@@@8			; std::exception `RTTI Type Descriptor'
PUBLIC	??_R3exception@std@@8				; std::exception::`RTTI Class Hierarchy Descriptor'
PUBLIC	??_R2exception@std@@8				; std::exception::`RTTI Base Class Array'
EXTRN	__imp_??0exception@std@@QAE@ABQBD@Z:PROC
EXTRN	??_7type_info@@6B@:QWORD			; type_info::`vftable'
EXTRN	??_Ebad_alloc@std@@UAEPAXI@Z:PROC		; std::bad_alloc::`vector deleting destructor'
EXTRN	?what@exception@std@@UBEPBDXZ:PROC		; std::exception::what
;	COMDAT ??_R2exception@std@@8
; File c:\program files (x86)\microsoft visual studio 10.0\vc\include\exception
rdata$r	SEGMENT
??_R2exception@std@@8 DD FLAT:??_R1A@?0A@EA@exception@std@@8 ; std::exception::`RTTI Base Class Array'
rdata$r	ENDS
;	COMDAT ??_R3exception@std@@8
rdata$r	SEGMENT
??_R3exception@std@@8 DD 00H				; std::exception::`RTTI Class Hierarchy Descriptor'
	DD	00H
	DD	01H
	DD	FLAT:??_R2exception@std@@8
rdata$r	ENDS
;	COMDAT ??_R0?AVexception@std@@@8
_DATA	SEGMENT
??_R0?AVexception@std@@@8 DD FLAT:??_7type_info@@6B@	; std::exception `RTTI Type Descriptor'
	DD	00H
	DB	'.?AVexception@std@@', 00H
_DATA	ENDS
;	COMDAT ??_R1A@?0A@EA@exception@std@@8
rdata$r	SEGMENT
??_R1A@?0A@EA@exception@std@@8 DD FLAT:??_R0?AVexception@std@@@8 ; std::exception::`RTTI Base Class Descriptor at (0,-1,0,64)'
	DD	00H
	DD	00H
	DD	0ffffffffH
	DD	00H
	DD	040H
	DD	FLAT:??_R3exception@std@@8
rdata$r	ENDS
;	COMDAT ??_R1A@?0A@EA@bad_alloc@std@@8
rdata$r	SEGMENT
??_R1A@?0A@EA@bad_alloc@std@@8 DD FLAT:??_R0?AVbad_alloc@std@@@8 ; std::bad_alloc::`RTTI Base Class Descriptor at (0,-1,0,64)'
	DD	01H
	DD	00H
	DD	0ffffffffH
	DD	00H
	DD	040H
	DD	FLAT:??_R3bad_alloc@std@@8
rdata$r	ENDS
;	COMDAT ??_R2bad_alloc@std@@8
rdata$r	SEGMENT
??_R2bad_alloc@std@@8 DD FLAT:??_R1A@?0A@EA@bad_alloc@std@@8 ; std::bad_alloc::`RTTI Base Class Array'
	DD	FLAT:??_R1A@?0A@EA@exception@std@@8
rdata$r	ENDS
;	COMDAT ??_R3bad_alloc@std@@8
rdata$r	SEGMENT
??_R3bad_alloc@std@@8 DD 00H				; std::bad_alloc::`RTTI Class Hierarchy Descriptor'
	DD	00H
	DD	02H
	DD	FLAT:??_R2bad_alloc@std@@8
rdata$r	ENDS
;	COMDAT ??_R0?AVbad_alloc@std@@@8
_DATA	SEGMENT
??_R0?AVbad_alloc@std@@@8 DD FLAT:??_7type_info@@6B@	; std::bad_alloc `RTTI Type Descriptor'
	DD	00H
	DB	'.?AVbad_alloc@std@@', 00H
_DATA	ENDS
;	COMDAT ??_R4bad_alloc@std@@6B@
rdata$r	SEGMENT
??_R4bad_alloc@std@@6B@ DD 00H				; std::bad_alloc::`RTTI Complete Object Locator'
	DD	00H
	DD	00H
	DD	FLAT:??_R0?AVbad_alloc@std@@@8
	DD	FLAT:??_R3bad_alloc@std@@8
rdata$r	ENDS
;	COMDAT ??_7bad_alloc@std@@6B@
CONST	SEGMENT
??_7bad_alloc@std@@6B@ DD FLAT:??_R4bad_alloc@std@@6B@	; std::bad_alloc::`vftable'
	DD	FLAT:??_Ebad_alloc@std@@UAEPAXI@Z
	DD	FLAT:?what@exception@std@@UBEPBDXZ
; Function compile flags: /Ogsp
CONST	ENDS
;	COMDAT ??0bad_alloc@std@@QAE@PBD@Z
_TEXT	SEGMENT
__Message$ = 8						; size = 4
??0bad_alloc@std@@QAE@PBD@Z PROC			; std::bad_alloc::bad_alloc, COMDAT
; _this$ = ecx

; 345  : 		{	// construct from message string

  00000	55		 push	 ebp
  00001	8b ec		 mov	 ebp, esp
  00003	56		 push	 esi
  00004	8d 45 08	 lea	 eax, DWORD PTR __Message$[ebp]
  00007	50		 push	 eax
  00008	8b f1		 mov	 esi, ecx
  0000a	ff 15 00 00 00
	00		 call	 DWORD PTR __imp_??0exception@std@@QAE@ABQBD@Z
  00010	c7 06 00 00 00
	00		 mov	 DWORD PTR [esi], OFFSET ??_7bad_alloc@std@@6B@

; 346  : 		}

  00016	8b c6		 mov	 eax, esi
  00018	5e		 pop	 esi
  00019	5d		 pop	 ebp
  0001a	c2 04 00	 ret	 4
??0bad_alloc@std@@QAE@PBD@Z ENDP			; std::bad_alloc::bad_alloc
_TEXT	ENDS
PUBLIC	??1bad_alloc@std@@UAE@XZ			; std::bad_alloc::~bad_alloc
EXTRN	__imp_??1exception@std@@UAE@XZ:PROC
; Function compile flags: /Ogsp
;	COMDAT ??1bad_alloc@std@@UAE@XZ
_TEXT	SEGMENT
??1bad_alloc@std@@UAE@XZ PROC				; std::bad_alloc::~bad_alloc, COMDAT
; _this$ = ecx

; 354  : 		{	// destroy the object

  00000	c7 01 00 00 00
	00		 mov	 DWORD PTR [ecx], OFFSET ??_7bad_alloc@std@@6B@

; 355  : 		}

  00006	ff 25 00 00 00
	00		 jmp	 DWORD PTR __imp_??1exception@std@@UAE@XZ
??1bad_alloc@std@@UAE@XZ ENDP				; std::bad_alloc::~bad_alloc
_TEXT	ENDS
EXTRN	??3@YAXPAX@Z:PROC				; operator delete
; Function compile flags: /Ogsp
;	COMDAT ??_Gbad_alloc@std@@UAEPAXI@Z
_TEXT	SEGMENT
___flags$ = 8						; size = 4
??_Gbad_alloc@std@@UAEPAXI@Z PROC			; std::bad_alloc::`scalar deleting destructor', COMDAT
; _this$ = ecx
  00000	55		 push	 ebp
  00001	8b ec		 mov	 ebp, esp
  00003	56		 push	 esi
  00004	8b f1		 mov	 esi, ecx
  00006	c7 06 00 00 00
	00		 mov	 DWORD PTR [esi], OFFSET ??_7bad_alloc@std@@6B@
  0000c	ff 15 00 00 00
	00		 call	 DWORD PTR __imp_??1exception@std@@UAE@XZ
  00012	f6 45 08 01	 test	 BYTE PTR ___flags$[ebp], 1
  00016	74 07		 je	 SHORT $LN1@scalar
  00018	56		 push	 esi
  00019	e8 00 00 00 00	 call	 ??3@YAXPAX@Z		; operator delete
  0001e	59		 pop	 ecx
$LN1@scalar:
  0001f	8b c6		 mov	 eax, esi
  00021	5e		 pop	 esi
  00022	5d		 pop	 ebp
  00023	c2 04 00	 ret	 4
??_Gbad_alloc@std@@UAEPAXI@Z ENDP			; std::bad_alloc::`scalar deleting destructor'
_TEXT	ENDS
PUBLIC	??2@YAPAXIPAX@Z					; operator new
; Function compile flags: /Ogsp
; File c:\program files (x86)\microsoft visual studio 10.0\vc\include\new
;	COMDAT ??2@YAPAXIPAX@Z
_TEXT	SEGMENT
___formal$ = 8						; size = 4
__Where$ = 12						; size = 4
??2@YAPAXIPAX@Z PROC					; operator new, COMDAT

; 56   : 	{	// construct array with placement at _Where

  00000	55		 push	 ebp
  00001	8b ec		 mov	 ebp, esp

; 57   : 	return (_Where);

  00003	8b 45 0c	 mov	 eax, DWORD PTR __Where$[ebp]

; 58   : 	}

  00006	5d		 pop	 ebp
  00007	c3		 ret	 0
??2@YAPAXIPAX@Z ENDP					; operator new
_TEXT	ENDS
PUBLIC	??3@YAXPAX0@Z					; operator delete
; Function compile flags: /Ogsp
;	COMDAT ??3@YAXPAX0@Z
_TEXT	SEGMENT
___formal$ = 8						; size = 4
___formal$ = 12						; size = 4
??3@YAXPAX0@Z PROC					; operator delete, COMDAT

; 62   : 	}

  00000	c3		 ret	 0
??3@YAXPAX0@Z ENDP					; operator delete
_TEXT	ENDS
PUBLIC	??_Gio3DCharEmoticon@@QAEPAXI@Z			; io3DCharEmoticon::`scalar deleting destructor'
EXTRN	??1io3DCharEmoticon@@QAE@XZ:PROC		; io3DCharEmoticon::~io3DCharEmoticon
; Function compile flags: /Ogsp
;	COMDAT ??_Gio3DCharEmoticon@@QAEPAXI@Z
_TEXT	SEGMENT
___flags$ = 8						; size = 4
??_Gio3DCharEmoticon@@QAEPAXI@Z PROC			; io3DCharEmoticon::`scalar deleting destructor', COMDAT
; _this$ = ecx
  00000	55		 push	 ebp
  00001	8b ec		 mov	 ebp, esp
  00003	56		 push	 esi
  00004	8b f1		 mov	 esi, ecx
  00006	e8 00 00 00 00	 call	 ??1io3DCharEmoticon@@QAE@XZ ; io3DCharEmoticon::~io3DCharEmoticon
  0000b	f6 45 08 01	 test	 BYTE PTR ___flags$[ebp], 1
  0000f	74 07		 je	 SHORT $LN1@scalar@2
  00011	56		 push	 esi
  00012	e8 00 00 00 00	 call	 ??3@YAXPAX@Z		; operator delete
  00017	59		 pop	 ecx
$LN1@scalar@2:
  00018	8b c6		 mov	 eax, esi
  0001a	5e		 pop	 esi
  0001b	5d		 pop	 ebp
  0001c	c2 04 00	 ret	 4
??_Gio3DCharEmoticon@@QAEPAXI@Z ENDP			; io3DCharEmoticon::`scalar deleting destructor'
_TEXT	ENDS
PUBLIC	??1EmoticonInfo@@QAE@XZ				; EmoticonInfo::~EmoticonInfo
;	COMDAT xdata$x
xdata$x	SEGMENT
__unwindtable$??1EmoticonInfo@@QAE@XZ DD 0ffffffffH
	DD	FLAT:__unwindfunclet$??1EmoticonInfo@@QAE@XZ$0
__ehfuncinfo$??1EmoticonInfo@@QAE@XZ DD 019930522H
	DD	01H
	DD	FLAT:__unwindtable$??1EmoticonInfo@@QAE@XZ
	DD	2 DUP(00H)
	DD	2 DUP(00H)
	DD	00H
	DD	01H
; Function compile flags: /Ogsp
xdata$x	ENDS
;	COMDAT ??1EmoticonInfo@@QAE@XZ
_TEXT	SEGMENT
_this$ = -16						; size = 4
__$EHRec$ = -12						; size = 12
??1EmoticonInfo@@QAE@XZ PROC				; EmoticonInfo::~EmoticonInfo, COMDAT
; _this$ = ecx
  00000	6a 04		 push	 4
  00002	b8 00 00 00 00	 mov	 eax, __ehhandler$??1EmoticonInfo@@QAE@XZ
  00007	e8 00 00 00 00	 call	 __EH_prolog3
  0000c	8b f1		 mov	 esi, ecx
  0000e	89 75 f0	 mov	 DWORD PTR _this$[ebp], esi
  00011	83 65 fc 00	 and	 DWORD PTR __$EHRec$[ebp+8], 0
  00015	8d 4e 1c	 lea	 ecx, DWORD PTR [esi+28]
  00018	e8 00 00 00 00	 call	 ??1ioComplexStringPrinter@@QAE@XZ ; ioComplexStringPrinter::~ioComplexStringPrinter
  0001d	83 4d fc ff	 or	 DWORD PTR __$EHRec$[ebp+8], -1
  00021	8b ce		 mov	 ecx, esi
  00023	ff 15 00 00 00
	00		 call	 DWORD PTR __imp_??1ioHashString@@QAE@XZ
  00029	e8 00 00 00 00	 call	 __EH_epilog3
  0002e	c3		 ret	 0
_TEXT	ENDS
;	COMDAT text$x
text$x	SEGMENT
__unwindfunclet$??1EmoticonInfo@@QAE@XZ$0:
  00000	8b 4d f0	 mov	 ecx, DWORD PTR _this$[ebp]
  00003	ff 25 00 00 00
	00		 jmp	 DWORD PTR __imp_??1ioHashString@@QAE@XZ
__ehhandler$??1EmoticonInfo@@QAE@XZ:
  00009	8b 54 24 08	 mov	 edx, DWORD PTR [esp+8]
  0000d	8d 42 0c	 lea	 eax, DWORD PTR [edx+12]
  00010	8b 4a ec	 mov	 ecx, DWORD PTR [edx-20]
  00013	33 c8		 xor	 ecx, eax
  00015	e8 00 00 00 00	 call	 @__security_check_cookie@4
  0001a	b8 00 00 00 00	 mov	 eax, OFFSET __ehfuncinfo$??1EmoticonInfo@@QAE@XZ
  0001f	e9 00 00 00 00	 jmp	 ___CxxFrameHandler3
text$x	ENDS
??1EmoticonInfo@@QAE@XZ ENDP				; EmoticonInfo::~EmoticonInfo
PUBLIC	??1ioINILoader_e@@QAE@XZ			; ioINILoader_e::~ioINILoader_e
EXTRN	__imp_??1ioINILoader@@QAE@XZ:PROC
; Function compile flags: /Ogsp
;	COMDAT ??1ioINILoader_e@@QAE@XZ
_TEXT	SEGMENT
??1ioINILoader_e@@QAE@XZ PROC				; ioINILoader_e::~ioINILoader_e, COMDAT
; _this$ = ecx
  00000	ff 25 00 00 00
	00		 jmp	 DWORD PTR __imp_??1ioINILoader@@QAE@XZ
??1ioINILoader_e@@QAE@XZ ENDP				; ioINILoader_e::~ioINILoader_e
_TEXT	ENDS
PUBLIC	?IsEmoticonEvent@ioCharEmoticon@@QAE_NXZ	; ioCharEmoticon::IsEmoticonEvent
; Function compile flags: /Ogsp
; File d:\lost saga for developer\youtube\tutorial\source\src\lsclient\iocharemoticon.cpp
;	COMDAT ?IsEmoticonEvent@ioCharEmoticon@@QAE_NXZ
_TEXT	SEGMENT
?IsEmoticonEvent@ioCharEmoticon@@QAE_NXZ PROC		; ioCharEmoticon::IsEmoticonEvent, COMDAT
; _this$ = ecx

; 206  : 	if( m_State == ES_NONE )

  00000	83 79 68 00	 cmp	 DWORD PTR [ecx+104], 0
  00004	0f 95 c0	 setne	 al

; 207  : 		return false;
; 208  : 	return true;
; 209  : }

  00007	c3		 ret	 0
?IsEmoticonEvent@ioCharEmoticon@@QAE_NXZ ENDP		; ioCharEmoticon::IsEmoticonEvent
_TEXT	ENDS
PUBLIC	?CheckEmoticonBackImage@ioCharEmoticon@@IAEXXZ	; ioCharEmoticon::CheckEmoticonBackImage
EXTRN	__imp_?CreateImageByFullName@ioUIImageSetManager@@QAEPAVioUIRenderImage@@ABVioHashString@@_N@Z:PROC
EXTRN	__imp_?GetSingleton@ioUIImageSetManager@@SAAAV1@XZ:PROC
EXTRN	__imp_?IsEmpty@ioHashString@@QBE_NXZ:PROC
; Function compile flags: /Ogsp
;	COMDAT ?CheckEmoticonBackImage@ioCharEmoticon@@IAEXXZ
_TEXT	SEGMENT
?CheckEmoticonBackImage@ioCharEmoticon@@IAEXXZ PROC	; ioCharEmoticon::CheckEmoticonBackImage, COMDAT
; _this$ = ecx

; 212  : {

  00000	56		 push	 esi
  00001	8b f1		 mov	 esi, ecx

; 213  : 	if( !m_pEmoticonBack && !m_EmoticonBack.IsEmpty() )

  00003	83 7e 04 00	 cmp	 DWORD PTR [esi+4], 0
  00007	75 27		 jne	 SHORT $LN1@CheckEmoti
  00009	57		 push	 edi
  0000a	bf 00 00 00 00	 mov	 edi, OFFSET ?m_EmoticonBack@ioCharEmoticon@@1VioHashString@@A ; ioCharEmoticon::m_EmoticonBack
  0000f	8b cf		 mov	 ecx, edi
  00011	ff 15 00 00 00
	00		 call	 DWORD PTR __imp_?IsEmpty@ioHashString@@QBE_NXZ
  00017	84 c0		 test	 al, al
  00019	75 14		 jne	 SHORT $LN4@CheckEmoti

; 214  : 	{
; 215  : 		m_pEmoticonBack = g_UIImageSetMgr.CreateImageByFullName( m_EmoticonBack );

  0001b	6a 00		 push	 0
  0001d	57		 push	 edi
  0001e	ff 15 00 00 00
	00		 call	 DWORD PTR __imp_?GetSingleton@ioUIImageSetManager@@SAAAV1@XZ
  00024	8b c8		 mov	 ecx, eax
  00026	ff 15 00 00 00
	00		 call	 DWORD PTR __imp_?CreateImageByFullName@ioUIImageSetManager@@QAEPAVioUIRenderImage@@ABVioHashString@@_N@Z
  0002c	89 46 04	 mov	 DWORD PTR [esi+4], eax
$LN4@CheckEmoti:
  0002f	5f		 pop	 edi
$LN1@CheckEmoti:
  00030	5e		 pop	 esi

; 216  : 	}
; 217  : }

  00031	c3		 ret	 0
?CheckEmoticonBackImage@ioCharEmoticon@@IAEXXZ ENDP	; ioCharEmoticon::CheckEmoticonBackImage
_TEXT	ENDS
PUBLIC	?SetLongTimeLiveEmoticon@ioCharEmoticon@@QAEXABVioHashString@@@Z ; ioCharEmoticon::SetLongTimeLiveEmoticon
EXTRN	__imp_??4ioHashString@@QAEAAV0@ABV0@@Z:PROC
EXTRN	__imp_?GetLoopSec@ioFrameTimer@@QBEKXZ:PROC
EXTRN	__imp_?GetSingleton@ioFrameTimer@@SAAAV1@XZ:PROC
EXTRN	__imp_?Clear@ioHashString@@QAEXXZ:PROC
; Function compile flags: /Ogsp
;	COMDAT ?SetLongTimeLiveEmoticon@ioCharEmoticon@@QAEXABVioHashString@@@Z
_TEXT	SEGMENT
_szEmoticon$ = 8					; size = 4
?SetLongTimeLiveEmoticon@ioCharEmoticon@@QAEXABVioHashString@@@Z PROC ; ioCharEmoticon::SetLongTimeLiveEmoticon, COMDAT
; _this$ = ecx

; 337  : {

  00000	55		 push	 ebp
  00001	8b ec		 mov	 ebp, esp
  00003	56		 push	 esi
  00004	8b f1		 mov	 esi, ecx

; 338  : 	if( szEmoticon.IsEmpty() ) return;

  00006	8b 4d 08	 mov	 ecx, DWORD PTR _szEmoticon$[ebp]
  00009	ff 15 00 00 00
	00		 call	 DWORD PTR __imp_?IsEmpty@ioHashString@@QBE_NXZ
  0000f	84 c0		 test	 al, al
  00011	0f 85 ae 00 00
	00		 jne	 $LN6@SetLongTim

; 339  : 
; 340  : 	ioUIRenderImage *pEmoticon = g_UIImageSetMgr.CreateImageByFullName( szEmoticon );

  00017	53		 push	 ebx
  00018	6a 00		 push	 0
  0001a	ff 75 08	 push	 DWORD PTR _szEmoticon$[ebp]
  0001d	ff 15 00 00 00
	00		 call	 DWORD PTR __imp_?GetSingleton@ioUIImageSetManager@@SAAAV1@XZ
  00023	8b c8		 mov	 ecx, eax
  00025	ff 15 00 00 00
	00		 call	 DWORD PTR __imp_?CreateImageByFullName@ioUIImageSetManager@@QAEPAVioUIRenderImage@@ABVioHashString@@_N@Z
  0002b	8b d8		 mov	 ebx, eax

; 341  : 	if( !pEmoticon ) return;

  0002d	85 db		 test	 ebx, ebx
  0002f	0f 84 8f 00 00
	00		 je	 $LN12@SetLongTim

; 342  : 
; 343  : 	SAFEDELETE( m_pEmoticon );

  00035	8b 0e		 mov	 ecx, DWORD PTR [esi]
  00037	85 c9		 test	 ecx, ecx
  00039	74 0a		 je	 SHORT $LN3@SetLongTim
  0003b	8b 01		 mov	 eax, DWORD PTR [ecx]
  0003d	6a 01		 push	 1
  0003f	ff 50 40	 call	 DWORD PTR [eax+64]
  00042	83 26 00	 and	 DWORD PTR [esi], 0
$LN3@SetLongTim:

; 344  : 	SAFEDELETE( m_pEmoticonNum );

  00045	8b 4e 08	 mov	 ecx, DWORD PTR [esi+8]
  00048	85 c9		 test	 ecx, ecx
  0004a	74 0b		 je	 SHORT $LN2@SetLongTim
  0004c	8b 01		 mov	 eax, DWORD PTR [ecx]
  0004e	6a 01		 push	 1
  00050	ff 50 40	 call	 DWORD PTR [eax+64]
  00053	83 66 08 00	 and	 DWORD PTR [esi+8], 0
$LN2@SetLongTim:

; 345  : 
; 346  : 	m_szEmoticonName.Clear();

  00057	8d 8e 90 00 00
	00		 lea	 ecx, DWORD PTR [esi+144]
  0005d	ff 15 00 00 00
	00		 call	 DWORD PTR __imp_?Clear@ioHashString@@QAEXXZ

; 347  : 	m_pEmoticon = pEmoticon;
; 348  : 
; 349  : 	CheckEmoticonBackImage();

  00063	8b ce		 mov	 ecx, esi
  00065	89 1e		 mov	 DWORD PTR [esi], ebx
  00067	e8 00 00 00 00	 call	 ?CheckEmoticonBackImage@ioCharEmoticon@@IAEXXZ ; ioCharEmoticon::CheckEmoticonBackImage

; 350  : 
; 351  : 	m_dwEmoticonStartTime = FRAMEGETTIME();

  0006c	ff 15 00 00 00
	00		 call	 DWORD PTR __imp_?GetSingleton@ioFrameTimer@@SAAAV1@XZ
  00072	8b c8		 mov	 ecx, eax
  00074	ff 15 00 00 00
	00		 call	 DWORD PTR __imp_?GetLoopSec@ioFrameTimer@@QBEKXZ

; 352  : 	m_dwCurEmoticonDuration = 100000000;
; 353  : 	m_dwCurScaleDuration = 0;

  0007a	83 66 18 00	 and	 DWORD PTR [esi+24], 0

; 354  : 	m_fCurStartScale = m_fEmoticonEndScale;
; 355  : 
; 356  : 	m_State = ES_DURATION;
; 357  : 	m_Type  = EMT_CHAT_ICON;
; 358  : 
; 359  : 	if( m_pEmoticon )

  0007e	8b 0e		 mov	 ecx, DWORD PTR [esi]
  00080	89 46 10	 mov	 DWORD PTR [esi+16], eax
  00083	c7 46 14 00 e1
	f5 05		 mov	 DWORD PTR [esi+20], 100000000 ; 05f5e100H
  0008a	f3 0f 10 05 00
	00 00 00	 movss	 xmm0, DWORD PTR ?m_fEmoticonEndScale@ioCharEmoticon@@1MA
  00092	f3 0f 11 46 1c	 movss	 DWORD PTR [esi+28], xmm0
  00097	c7 46 68 02 00
	00 00		 mov	 DWORD PTR [esi+104], 2
  0009e	c7 46 6c 05 00
	00 00		 mov	 DWORD PTR [esi+108], 5
  000a5	85 c9		 test	 ecx, ecx
  000a7	74 0b		 je	 SHORT $LN1@SetLongTim

; 360  : 		m_pEmoticon->SetScale( m_fCurStartScale );

  000a9	8b 01		 mov	 eax, DWORD PTR [ecx]
  000ab	51		 push	 ecx
  000ac	f3 0f 11 04 24	 movss	 DWORD PTR [esp], xmm0
  000b1	ff 50 1c	 call	 DWORD PTR [eax+28]
$LN1@SetLongTim:

; 361  : 
; 362  : 	m_LongTimeLiveEmoticon = szEmoticon;

  000b4	ff 75 08	 push	 DWORD PTR _szEmoticon$[ebp]
  000b7	8d 4e 2c	 lea	 ecx, DWORD PTR [esi+44]
  000ba	ff 15 00 00 00
	00		 call	 DWORD PTR __imp_??4ioHashString@@QAEAAV0@ABV0@@Z

; 363  : 	m_bLongTimeLiveEmoticon = true;

  000c0	c6 46 3c 01	 mov	 BYTE PTR [esi+60], 1
$LN12@SetLongTim:
  000c4	5b		 pop	 ebx
$LN6@SetLongTim:
  000c5	5e		 pop	 esi

; 364  : }

  000c6	5d		 pop	 ebp
  000c7	c2 04 00	 ret	 4
?SetLongTimeLiveEmoticon@ioCharEmoticon@@QAEXABVioHashString@@@Z ENDP ; ioCharEmoticon::SetLongTimeLiveEmoticon
_TEXT	ENDS
PUBLIC	?_Adopt@_Iterator_base0@std@@QAEXPBX@Z		; std::_Iterator_base0::_Adopt
; Function compile flags: /Ogsp
; File c:\program files (x86)\microsoft visual studio 10.0\vc\include\xutility
;	COMDAT ?_Adopt@_Iterator_base0@std@@QAEXPBX@Z
_TEXT	SEGMENT
___formal$ = 8						; size = 4
?_Adopt@_Iterator_base0@std@@QAEXPBX@Z PROC		; std::_Iterator_base0::_Adopt, COMDAT
; _this$ = ecx

; 49   : 		}

  00000	c2 04 00	 ret	 4
?_Adopt@_Iterator_base0@std@@QAEXPBX@Z ENDP		; std::_Iterator_base0::_Adopt
_TEXT	ENDS
PUBLIC	?SetLongTimeLiveEmoticonAndScale@ioCharEmoticon@@QAEXABVioHashString@@_N@Z ; ioCharEmoticon::SetLongTimeLiveEmoticonAndScale
; Function compile flags: /Ogsp
; File d:\lost saga for developer\youtube\tutorial\source\src\lsclient\iocharemoticon.cpp
;	COMDAT ?SetLongTimeLiveEmoticonAndScale@ioCharEmoticon@@QAEXABVioHashString@@_N@Z
_TEXT	SEGMENT
_szEmoticon$ = 8					; size = 4
_bFast$ = 12						; size = 1
?SetLongTimeLiveEmoticonAndScale@ioCharEmoticon@@QAEXABVioHashString@@_N@Z PROC ; ioCharEmoticon::SetLongTimeLiveEmoticonAndScale, COMDAT
; _this$ = ecx

; 367  : {

  00000	55		 push	 ebp
  00001	8b ec		 mov	 ebp, esp
  00003	56		 push	 esi
  00004	8b f1		 mov	 esi, ecx

; 368  : 	if( szEmoticon.IsEmpty() ) return;

  00006	8b 4d 08	 mov	 ecx, DWORD PTR _szEmoticon$[ebp]
  00009	ff 15 00 00 00
	00		 call	 DWORD PTR __imp_?IsEmpty@ioHashString@@QBE_NXZ
  0000f	84 c0		 test	 al, al
  00011	0f 85 b3 00 00
	00		 jne	 $LN6@SetLongTim@2

; 369  : 
; 370  : 	ioUIRenderImage *pEmoticon = g_UIImageSetMgr.CreateImageByFullName( szEmoticon );

  00017	53		 push	 ebx
  00018	57		 push	 edi
  00019	33 ff		 xor	 edi, edi
  0001b	57		 push	 edi
  0001c	ff 75 08	 push	 DWORD PTR _szEmoticon$[ebp]
  0001f	ff 15 00 00 00
	00		 call	 DWORD PTR __imp_?GetSingleton@ioUIImageSetManager@@SAAAV1@XZ
  00025	8b c8		 mov	 ecx, eax
  00027	ff 15 00 00 00
	00		 call	 DWORD PTR __imp_?CreateImageByFullName@ioUIImageSetManager@@QAEPAVioUIRenderImage@@ABVioHashString@@_N@Z
  0002d	8b d8		 mov	 ebx, eax

; 371  : 	if( !pEmoticon ) return;

  0002f	3b df		 cmp	 ebx, edi
  00031	0f 84 91 00 00
	00		 je	 $LN12@SetLongTim@2

; 372  : 
; 373  : 	SAFEDELETE( m_pEmoticon );

  00037	8b 0e		 mov	 ecx, DWORD PTR [esi]
  00039	3b cf		 cmp	 ecx, edi
  0003b	74 09		 je	 SHORT $LN3@SetLongTim@2
  0003d	8b 01		 mov	 eax, DWORD PTR [ecx]
  0003f	6a 01		 push	 1
  00041	ff 50 40	 call	 DWORD PTR [eax+64]
  00044	89 3e		 mov	 DWORD PTR [esi], edi
$LN3@SetLongTim@2:

; 374  : 	SAFEDELETE( m_pEmoticonNum );

  00046	8b 4e 08	 mov	 ecx, DWORD PTR [esi+8]
  00049	3b cf		 cmp	 ecx, edi
  0004b	74 0a		 je	 SHORT $LN2@SetLongTim@2
  0004d	8b 01		 mov	 eax, DWORD PTR [ecx]
  0004f	6a 01		 push	 1
  00051	ff 50 40	 call	 DWORD PTR [eax+64]
  00054	89 7e 08	 mov	 DWORD PTR [esi+8], edi
$LN2@SetLongTim@2:

; 375  : 
; 376  : 	m_szEmoticonName.Clear();

  00057	8d 8e 90 00 00
	00		 lea	 ecx, DWORD PTR [esi+144]
  0005d	ff 15 00 00 00
	00		 call	 DWORD PTR __imp_?Clear@ioHashString@@QAEXXZ

; 377  : 	m_pEmoticon = pEmoticon;
; 378  : 
; 379  : 	CheckEmoticonBackImage();

  00063	8b ce		 mov	 ecx, esi
  00065	89 1e		 mov	 DWORD PTR [esi], ebx
  00067	e8 00 00 00 00	 call	 ?CheckEmoticonBackImage@ioCharEmoticon@@IAEXXZ ; ioCharEmoticon::CheckEmoticonBackImage

; 380  : 
; 381  : 	m_bFastDuration = bFast;

  0006c	8a 45 0c	 mov	 al, BYTE PTR _bFast$[ebp]
  0006f	88 86 e0 00 00
	00		 mov	 BYTE PTR [esi+224], al

; 382  : 
; 383  : 	m_dwEmoticonStartTime = FRAMEGETTIME();

  00075	ff 15 00 00 00
	00		 call	 DWORD PTR __imp_?GetSingleton@ioFrameTimer@@SAAAV1@XZ
  0007b	8b c8		 mov	 ecx, eax
  0007d	ff 15 00 00 00
	00		 call	 DWORD PTR __imp_?GetLoopSec@ioFrameTimer@@QBEKXZ

; 384  : 	m_dwCurEmoticonDuration = 100000000;
; 385  : 	m_dwCurScaleDuration = 0;
; 386  : 	m_fCurStartScale = m_fEmoticonEndScale;
; 387  : 
; 388  : 	m_State = ES_DURATION_SCALE;
; 389  : 	m_Type  = EMT_DEFAULT;
; 390  : 
; 391  : 	if( m_pEmoticon )

  00083	8b 0e		 mov	 ecx, DWORD PTR [esi]
  00085	89 46 10	 mov	 DWORD PTR [esi+16], eax
  00088	c7 46 14 00 e1
	f5 05		 mov	 DWORD PTR [esi+20], 100000000 ; 05f5e100H
  0008f	89 7e 18	 mov	 DWORD PTR [esi+24], edi
  00092	f3 0f 10 05 00
	00 00 00	 movss	 xmm0, DWORD PTR ?m_fEmoticonEndScale@ioCharEmoticon@@1MA
  0009a	f3 0f 11 46 1c	 movss	 DWORD PTR [esi+28], xmm0
  0009f	c7 46 68 07 00
	00 00		 mov	 DWORD PTR [esi+104], 7
  000a6	89 7e 6c	 mov	 DWORD PTR [esi+108], edi
  000a9	3b cf		 cmp	 ecx, edi
  000ab	74 0b		 je	 SHORT $LN1@SetLongTim@2

; 392  : 		m_pEmoticon->SetScale( m_fCurStartScale );

  000ad	8b 01		 mov	 eax, DWORD PTR [ecx]
  000af	51		 push	 ecx
  000b0	f3 0f 11 04 24	 movss	 DWORD PTR [esp], xmm0
  000b5	ff 50 1c	 call	 DWORD PTR [eax+28]
$LN1@SetLongTim@2:

; 393  : 
; 394  : 	m_LongTimeLiveEmoticon = szEmoticon;

  000b8	ff 75 08	 push	 DWORD PTR _szEmoticon$[ebp]
  000bb	8d 4e 2c	 lea	 ecx, DWORD PTR [esi+44]
  000be	ff 15 00 00 00
	00		 call	 DWORD PTR __imp_??4ioHashString@@QAEAAV0@ABV0@@Z

; 395  : 	m_bLongTimeLiveEmoticon = true;

  000c4	c6 46 3c 01	 mov	 BYTE PTR [esi+60], 1
$LN12@SetLongTim@2:
  000c8	5f		 pop	 edi
  000c9	5b		 pop	 ebx
$LN6@SetLongTim@2:
  000ca	5e		 pop	 esi

; 396  : }

  000cb	5d		 pop	 ebp
  000cc	c2 08 00	 ret	 8
?SetLongTimeLiveEmoticonAndScale@ioCharEmoticon@@QAEXABVioHashString@@_N@Z ENDP ; ioCharEmoticon::SetLongTimeLiveEmoticonAndScale
_TEXT	ENDS
PUBLIC	__real@400921fb60000000
PUBLIC	__real@4f800000
PUBLIC	?ProcessDurationScale@ioCharEmoticon@@IAEXXZ	; ioCharEmoticon::ProcessDurationScale
;	COMDAT __real@400921fb60000000
; File c:\program files (x86)\microsoft visual studio 10.0\vc\include\math.h
CONST	SEGMENT
__real@400921fb60000000 DQ 0400921fb60000000r	; 3.14159
CONST	ENDS
;	COMDAT __real@4f800000
CONST	SEGMENT
__real@4f800000 DD 04f800000r			; 4.29497e+009
; Function compile flags: /Ogsp
; File d:\lost saga for developer\youtube\tutorial\source\src\lsclient\iocharemoticon.cpp
CONST	ENDS
;	COMDAT ?ProcessDurationScale@ioCharEmoticon@@IAEXXZ
_TEXT	SEGMENT
tv221 = -12						; size = 4
tv218 = -12						; size = 4
tv203 = -12						; size = 4
tv231 = -8						; size = 4
tv200 = -8						; size = 4
_fScaleRate$ = -8					; size = 4
tv216 = -4						; size = 4
tv213 = -4						; size = 4
tv207 = -4						; size = 4
_dwScaleTime$ = -4					; size = 4
?ProcessDurationScale@ioCharEmoticon@@IAEXXZ PROC	; ioCharEmoticon::ProcessDurationScale, COMDAT
; _this$ = ecx

; 410  : {

  00000	55		 push	 ebp
  00001	8b ec		 mov	 ebp, esp
  00003	83 ec 0c	 sub	 esp, 12			; 0000000cH
  00006	53		 push	 ebx

; 411  : 	if( m_dwDurationScaleStartTime == 0 )

  00007	8b 1d 00 00 00
	00		 mov	 ebx, DWORD PTR __imp_?GetSingleton@ioFrameTimer@@SAAAV1@XZ
  0000d	56		 push	 esi
  0000e	8b f1		 mov	 esi, ecx
  00010	83 be e8 00 00
	00 00		 cmp	 DWORD PTR [esi+232], 0
  00017	57		 push	 edi
  00018	75 10		 jne	 SHORT $LN4@ProcessDur

; 412  : 		m_dwDurationScaleStartTime = FRAMEGETTIME();

  0001a	ff d3		 call	 ebx
  0001c	8b c8		 mov	 ecx, eax
  0001e	ff 15 00 00 00
	00		 call	 DWORD PTR __imp_?GetLoopSec@ioFrameTimer@@QBEKXZ
  00024	89 86 e8 00 00
	00		 mov	 DWORD PTR [esi+232], eax
$LN4@ProcessDur:

; 413  : 
; 414  : 	DWORD dwScaleTime = m_dwDurationScaleTime;
; 415  : 	float fScaleRate = m_fDurationScaleRate;
; 416  : 
; 417  : 	if( m_bFastDuration )

  0002a	80 be e0 00 00
	00 00		 cmp	 BYTE PTR [esi+224], 0
  00031	a1 00 00 00 00	 mov	 eax, DWORD PTR ?m_dwDurationScaleTime@ioCharEmoticon@@1KA ; ioCharEmoticon::m_dwDurationScaleTime
  00036	f3 0f 10 05 00
	00 00 00	 movss	 xmm0, DWORD PTR ?m_fDurationScaleRate@ioCharEmoticon@@1MA
  0003e	89 45 fc	 mov	 DWORD PTR _dwScaleTime$[ebp], eax
  00041	f3 0f 11 45 f8	 movss	 DWORD PTR _fScaleRate$[ebp], xmm0
  00046	74 15		 je	 SHORT $LN3@ProcessDur

; 418  : 	{
; 419  : 		dwScaleTime = m_dwDurationScaleFastTime;

  00048	a1 00 00 00 00	 mov	 eax, DWORD PTR ?m_dwDurationScaleFastTime@ioCharEmoticon@@1KA ; ioCharEmoticon::m_dwDurationScaleFastTime

; 420  : 		fScaleRate = m_fDurationScaleFastRate;

  0004d	f3 0f 10 05 00
	00 00 00	 movss	 xmm0, DWORD PTR ?m_fDurationScaleFastRate@ioCharEmoticon@@1MA
  00055	89 45 fc	 mov	 DWORD PTR _dwScaleTime$[ebp], eax
  00058	f3 0f 11 45 f8	 movss	 DWORD PTR _fScaleRate$[ebp], xmm0
$LN3@ProcessDur:

; 421  : 	}
; 422  : 
; 423  : 	DWORD dwGapTime = FRAMEGETTIME() - m_dwDurationScaleStartTime;

  0005d	ff d3		 call	 ebx
  0005f	8b c8		 mov	 ecx, eax
  00061	ff 15 00 00 00
	00		 call	 DWORD PTR __imp_?GetLoopSec@ioFrameTimer@@QBEKXZ
  00067	8b f8		 mov	 edi, eax
  00069	2b be e8 00 00
	00		 sub	 edi, DWORD PTR [esi+232]

; 424  : 	if( dwGapTime > dwScaleTime )

  0006f	3b 7d fc	 cmp	 edi, DWORD PTR _dwScaleTime$[ebp]
  00072	76 1e		 jbe	 SHORT $LN2@ProcessDur

; 425  : 	{
; 426  : 		dwGapTime -= dwScaleTime;

  00074	2b 7d fc	 sub	 edi, DWORD PTR _dwScaleTime$[ebp]

; 427  : 		m_dwDurationScaleStartTime = FRAMEGETTIME() - ( dwGapTime % dwScaleTime );

  00077	ff d3		 call	 ebx
  00079	8b c8		 mov	 ecx, eax
  0007b	ff 15 00 00 00
	00		 call	 DWORD PTR __imp_?GetLoopSec@ioFrameTimer@@QBEKXZ
  00081	8b c8		 mov	 ecx, eax
  00083	33 d2		 xor	 edx, edx
  00085	8b c7		 mov	 eax, edi
  00087	f7 75 fc	 div	 DWORD PTR _dwScaleTime$[ebp]
  0008a	2b ca		 sub	 ecx, edx
  0008c	89 8e e8 00 00
	00		 mov	 DWORD PTR [esi+232], ecx
$LN2@ProcessDur:

; 431  : 	float fCurRate = FLOAT1 + fScaleRate * sinf( D3DX_PI * fTimeRate );

  00092	b8 01 00 00 00	 mov	 eax, 1

; 432  : 	
; 433  : 	m_fCurDurationScaleRate = m_fEmoticonEndScale * fCurRate;

  00097	89 7d f4	 mov	 DWORD PTR tv221[ebp], edi
  0009a	db 45 f4	 fild	 DWORD PTR tv221[ebp]
  0009d	8b d8		 mov	 ebx, eax
  0009f	85 ff		 test	 edi, edi
  000a1	79 06		 jns	 SHORT $LN11@ProcessDur
  000a3	d8 05 00 00 00
	00		 fadd	 DWORD PTR __real@4f800000
$LN11@ProcessDur:
  000a9	8b 45 fc	 mov	 eax, DWORD PTR _dwScaleTime$[ebp]
  000ac	db 45 fc	 fild	 DWORD PTR _dwScaleTime$[ebp]
  000af	85 c0		 test	 eax, eax
  000b1	79 06		 jns	 SHORT $LN12@ProcessDur
  000b3	d8 05 00 00 00
	00		 fadd	 DWORD PTR __real@4f800000
$LN12@ProcessDur:

; 428  : 	}
; 429  : 
; 430  : 	float fTimeRate = (float)dwGapTime / (float)dwScaleTime;

  000b9	de f9		 fdivp	 ST(1), ST(0)

; 432  : 	
; 433  : 	m_fCurDurationScaleRate = m_fEmoticonEndScale * fCurRate;

  000bb	d9 5d fc	 fstp	 DWORD PTR tv216[ebp]
  000be	d9 45 fc	 fld	 DWORD PTR tv216[ebp]
  000c1	dc 0d 00 00 00
	00		 fmul	 QWORD PTR __real@400921fb60000000
  000c7	d9 5d fc	 fstp	 DWORD PTR tv213[ebp]
  000ca	d9 45 fc	 fld	 DWORD PTR tv213[ebp]
  000cd	e8 00 00 00 00	 call	 __CIsin
  000d2	d9 5d fc	 fstp	 DWORD PTR tv207[ebp]
  000d5	d9 45 fc	 fld	 DWORD PTR tv207[ebp]
  000d8	89 5d f4	 mov	 DWORD PTR tv203[ebp], ebx
  000db	d8 4d f8	 fmul	 DWORD PTR _fScaleRate$[ebp]
  000de	db 45 f4	 fild	 DWORD PTR tv203[ebp]
  000e1	85 db		 test	 ebx, ebx
  000e3	79 06		 jns	 SHORT $LN13@ProcessDur
  000e5	d8 05 00 00 00
	00		 fadd	 DWORD PTR __real@4f800000
$LN13@ProcessDur:

; 431  : 	float fCurRate = FLOAT1 + fScaleRate * sinf( D3DX_PI * fTimeRate );

  000eb	de c1		 faddp	 ST(1), ST(0)

; 432  : 	
; 433  : 	m_fCurDurationScaleRate = m_fEmoticonEndScale * fCurRate;

  000ed	d9 5d f8	 fstp	 DWORD PTR tv200[ebp]
  000f0	d9 45 f8	 fld	 DWORD PTR tv200[ebp]
  000f3	d8 0d 00 00 00
	00		 fmul	 DWORD PTR ?m_fEmoticonEndScale@ioCharEmoticon@@1MA ; ioCharEmoticon::m_fEmoticonEndScale
  000f9	d9 5d f8	 fstp	 DWORD PTR tv231[ebp]
  000fc	d9 45 f8	 fld	 DWORD PTR tv231[ebp]
  000ff	d9 9e e4 00 00
	00		 fstp	 DWORD PTR [esi+228]

; 434  : 
; 435  : 	if( m_pEmoticon )

  00105	8b 36		 mov	 esi, DWORD PTR [esi]
  00107	85 f6		 test	 esi, esi
  00109	74 12		 je	 SHORT $LN1@ProcessDur

; 436  : 	{
; 437  : 		m_pEmoticon->SetScale( m_fCurDurationScaleRate );

  0010b	f3 0f 10 45 f8	 movss	 xmm0, DWORD PTR tv231[ebp]
  00110	8b 06		 mov	 eax, DWORD PTR [esi]
  00112	51		 push	 ecx
  00113	8b ce		 mov	 ecx, esi
  00115	f3 0f 11 04 24	 movss	 DWORD PTR [esp], xmm0
  0011a	ff 50 1c	 call	 DWORD PTR [eax+28]
$LN1@ProcessDur:
  0011d	5f		 pop	 edi
  0011e	5e		 pop	 esi
  0011f	5b		 pop	 ebx

; 438  : 	}
; 439  : }

  00120	c9		 leave
  00121	c3		 ret	 0
?ProcessDurationScale@ioCharEmoticon@@IAEXXZ ENDP	; ioCharEmoticon::ProcessDurationScale
_TEXT	ENDS
PUBLIC	?SetNamedUnLimitedEmoticon@ioCharEmoticon@@QAEXPAVioBaseChar@@ABVioHashString@@1K@Z ; ioCharEmoticon::SetNamedUnLimitedEmoticon
; Function compile flags: /Ogsp
;	COMDAT ?SetNamedUnLimitedEmoticon@ioCharEmoticon@@QAEXPAVioBaseChar@@ABVioHashString@@1K@Z
_TEXT	SEGMENT
_pChar$ = 8						; size = 4
_szEmoticon$ = 12					; size = 4
_szDescName$ = 16					; size = 4
_dwColor$ = 20						; size = 4
?SetNamedUnLimitedEmoticon@ioCharEmoticon@@QAEXPAVioBaseChar@@ABVioHashString@@1K@Z PROC ; ioCharEmoticon::SetNamedUnLimitedEmoticon, COMDAT
; _this$ = ecx

; 442  : {

  00000	55		 push	 ebp
  00001	8b ec		 mov	 ebp, esp
  00003	56		 push	 esi
  00004	8b f1		 mov	 esi, ecx

; 443  : 	if( szEmoticon.IsEmpty() ) return;

  00006	8b 4d 0c	 mov	 ecx, DWORD PTR _szEmoticon$[ebp]
  00009	ff 15 00 00 00
	00		 call	 DWORD PTR __imp_?IsEmpty@ioHashString@@QBE_NXZ
  0000f	84 c0		 test	 al, al
  00011	0f 85 e4 00 00
	00		 jne	 $LN10@SetNamedUn

; 444  : 
; 445  : 	if( !pChar || pChar->GetState() != CS_FISHING )

  00017	8b 45 08	 mov	 eax, DWORD PTR _pChar$[ebp]
  0001a	57		 push	 edi
  0001b	85 c0		 test	 eax, eax
  0001d	74 09		 je	 SHORT $LN7@SetNamedUn
  0001f	80 b8 10 03 00
	00 2b		 cmp	 BYTE PTR [eax+784], 43	; 0000002bH
  00026	74 4d		 je	 SHORT $LN8@SetNamedUn
$LN7@SetNamedUn:

; 446  : 	{
; 447  : 		ioUIRenderImage *pEmoticon = g_UIImageSetMgr.CreateImageByFullName( szEmoticon );

  00028	6a 00		 push	 0
  0002a	ff 75 0c	 push	 DWORD PTR _szEmoticon$[ebp]
  0002d	ff 15 00 00 00
	00		 call	 DWORD PTR __imp_?GetSingleton@ioUIImageSetManager@@SAAAV1@XZ
  00033	8b c8		 mov	 ecx, eax
  00035	ff 15 00 00 00
	00		 call	 DWORD PTR __imp_?CreateImageByFullName@ioUIImageSetManager@@QAEPAVioUIRenderImage@@ABVioHashString@@_N@Z
  0003b	8b f8		 mov	 edi, eax

; 448  : 		if( !pEmoticon ) return;

  0003d	85 ff		 test	 edi, edi
  0003f	0f 84 b5 00 00
	00		 je	 $LN21@SetNamedUn

; 449  : 
; 450  : 		SAFEDELETE( m_pEmoticon );

  00045	8b 0e		 mov	 ecx, DWORD PTR [esi]
  00047	85 c9		 test	 ecx, ecx
  00049	74 0a		 je	 SHORT $LN20@SetNamedUn
  0004b	8b 01		 mov	 eax, DWORD PTR [ecx]
  0004d	6a 01		 push	 1
  0004f	ff 50 40	 call	 DWORD PTR [eax+64]
  00052	83 26 00	 and	 DWORD PTR [esi], 0
$LN20@SetNamedUn:

; 451  : 		SAFEDELETE( m_pEmoticonNum );

  00055	8b 4e 08	 mov	 ecx, DWORD PTR [esi+8]
  00058	85 c9		 test	 ecx, ecx
  0005a	74 0b		 je	 SHORT $LN4@SetNamedUn
  0005c	8b 01		 mov	 eax, DWORD PTR [ecx]
  0005e	6a 01		 push	 1
  00060	ff 50 40	 call	 DWORD PTR [eax+64]
  00063	83 66 08 00	 and	 DWORD PTR [esi+8], 0
$LN4@SetNamedUn:

; 452  : 
; 453  : 		m_szEmoticonName.Clear();

  00067	8d 8e 90 00 00
	00		 lea	 ecx, DWORD PTR [esi+144]
  0006d	ff 15 00 00 00
	00		 call	 DWORD PTR __imp_?Clear@ioHashString@@QAEXXZ

; 454  : 		m_pEmoticon = pEmoticon;

  00073	89 3e		 mov	 DWORD PTR [esi], edi
$LN8@SetNamedUn:

; 455  : 	}
; 456  : 
; 457  : 	m_szUnLimitedEmoticonName = szDescName;

  00075	ff 75 10	 push	 DWORD PTR _szDescName$[ebp]
  00078	8b 3d 00 00 00
	00		 mov	 edi, DWORD PTR __imp_??4ioHashString@@QAEAAV0@ABV0@@Z
  0007e	8d 8e a4 00 00
	00		 lea	 ecx, DWORD PTR [esi+164]
  00084	ff d7		 call	 edi

; 458  : 	m_dwUnLimitedEmoticonNameColor = dwColor;

  00086	8b 45 14	 mov	 eax, DWORD PTR _dwColor$[ebp]
  00089	89 86 a0 00 00
	00		 mov	 DWORD PTR [esi+160], eax

; 459  : 
; 460  : 	if( !pChar || pChar->GetState() != CS_FISHING )

  0008f	8b 45 08	 mov	 eax, DWORD PTR _pChar$[ebp]
  00092	85 c0		 test	 eax, eax
  00094	74 09		 je	 SHORT $LN2@SetNamedUn
  00096	80 b8 10 03 00
	00 2b		 cmp	 BYTE PTR [eax+784], 43	; 0000002bH
  0009d	74 4f		 je	 SHORT $LN1@SetNamedUn
$LN2@SetNamedUn:

; 461  : 	{
; 462  : 		CheckEmoticonBackImage();

  0009f	8b ce		 mov	 ecx, esi
  000a1	e8 00 00 00 00	 call	 ?CheckEmoticonBackImage@ioCharEmoticon@@IAEXXZ ; ioCharEmoticon::CheckEmoticonBackImage

; 463  : 
; 464  : 		m_dwEmoticonStartTime = FRAMEGETTIME();

  000a6	ff 15 00 00 00
	00		 call	 DWORD PTR __imp_?GetSingleton@ioFrameTimer@@SAAAV1@XZ
  000ac	8b c8		 mov	 ecx, eax
  000ae	ff 15 00 00 00
	00		 call	 DWORD PTR __imp_?GetLoopSec@ioFrameTimer@@QBEKXZ

; 465  : 		m_dwCurEmoticonDuration = 100000000;
; 466  : 		m_dwCurScaleDuration = 0;

  000b4	83 66 18 00	 and	 DWORD PTR [esi+24], 0

; 467  : 		m_fCurStartScale = m_fEmoticonEndScale;
; 468  : 
; 469  : 		m_State = ES_UNLIMITED;
; 470  : 		m_Type  = EMT_NAMED_UNLIMITED_ICON;
; 471  : 
; 472  : 		if( m_pEmoticon )

  000b8	8b 0e		 mov	 ecx, DWORD PTR [esi]
  000ba	89 46 10	 mov	 DWORD PTR [esi+16], eax
  000bd	c7 46 14 00 e1
	f5 05		 mov	 DWORD PTR [esi+20], 100000000 ; 05f5e100H
  000c4	f3 0f 10 05 00
	00 00 00	 movss	 xmm0, DWORD PTR ?m_fEmoticonEndScale@ioCharEmoticon@@1MA
  000cc	f3 0f 11 46 1c	 movss	 DWORD PTR [esi+28], xmm0
  000d1	c7 46 68 05 00
	00 00		 mov	 DWORD PTR [esi+104], 5
  000d8	c7 46 6c 0a 00
	00 00		 mov	 DWORD PTR [esi+108], 10	; 0000000aH
  000df	85 c9		 test	 ecx, ecx
  000e1	74 0b		 je	 SHORT $LN1@SetNamedUn

; 473  : 			m_pEmoticon->SetScale( m_fCurStartScale );

  000e3	8b 01		 mov	 eax, DWORD PTR [ecx]
  000e5	51		 push	 ecx
  000e6	f3 0f 11 04 24	 movss	 DWORD PTR [esp], xmm0
  000eb	ff 50 1c	 call	 DWORD PTR [eax+28]
$LN1@SetNamedUn:

; 474  : 	}
; 475  : 
; 476  : 	m_UnLimitedEmoticon = szEmoticon;

  000ee	ff 75 0c	 push	 DWORD PTR _szEmoticon$[ebp]
  000f1	8d 4e 40	 lea	 ecx, DWORD PTR [esi+64]
  000f4	ff d7		 call	 edi

; 477  : 	m_bUnLimitedEmoticon = true;

  000f6	c6 46 50 01	 mov	 BYTE PTR [esi+80], 1
$LN21@SetNamedUn:
  000fa	5f		 pop	 edi
$LN10@SetNamedUn:
  000fb	5e		 pop	 esi

; 478  : }

  000fc	5d		 pop	 ebp
  000fd	c2 10 00	 ret	 16			; 00000010H
?SetNamedUnLimitedEmoticon@ioCharEmoticon@@QAEXPAVioBaseChar@@ABVioHashString@@1K@Z ENDP ; ioCharEmoticon::SetNamedUnLimitedEmoticon
_TEXT	ENDS
PUBLIC	?SetEmoticon@ioCharEmoticon@@QAEXABVioHashString@@W4EmoticonType@@_NK@Z ; ioCharEmoticon::SetEmoticon
; Function compile flags: /Ogsp
;	COMDAT ?SetEmoticon@ioCharEmoticon@@QAEXABVioHashString@@W4EmoticonType@@_NK@Z
_TEXT	SEGMENT
_szEmoticon$ = 8					; size = 4
_eType$ = 12						; size = 4
_bOwnerChar$ = 16					; size = 1
_dwDuration$ = 20					; size = 4
?SetEmoticon@ioCharEmoticon@@QAEXABVioHashString@@W4EmoticonType@@_NK@Z PROC ; ioCharEmoticon::SetEmoticon, COMDAT
; _this$ = ecx

; 496  : {

  00000	55		 push	 ebp
  00001	8b ec		 mov	 ebp, esp
  00003	56		 push	 esi
  00004	8b f1		 mov	 esi, ecx

; 497  : 	if( szEmoticon.IsEmpty() )	return;

  00006	8b 4d 08	 mov	 ecx, DWORD PTR _szEmoticon$[ebp]
  00009	ff 15 00 00 00
	00		 call	 DWORD PTR __imp_?IsEmpty@ioHashString@@QBE_NXZ
  0000f	84 c0		 test	 al, al
  00011	0f 85 9d 01 00
	00		 jne	 $LN23@SetEmotico

; 498  : 
; 499  : 	ioUIRenderImage *pEmoticon = g_UIImageSetMgr.CreateImageByFullName( szEmoticon );

  00017	53		 push	 ebx
  00018	57		 push	 edi
  00019	33 db		 xor	 ebx, ebx
  0001b	53		 push	 ebx
  0001c	ff 75 08	 push	 DWORD PTR _szEmoticon$[ebp]
  0001f	ff 15 00 00 00
	00		 call	 DWORD PTR __imp_?GetSingleton@ioUIImageSetManager@@SAAAV1@XZ
  00025	8b c8		 mov	 ecx, eax
  00027	ff 15 00 00 00
	00		 call	 DWORD PTR __imp_?CreateImageByFullName@ioUIImageSetManager@@QAEPAVioUIRenderImage@@ABVioHashString@@_N@Z
  0002d	8b f8		 mov	 edi, eax

; 500  : 	if( !pEmoticon ) return;

  0002f	3b fb		 cmp	 edi, ebx
  00031	0f 84 7b 01 00
	00		 je	 $LN30@SetEmotico

; 501  : 
; 502  : 	SAFEDELETE( m_pEmoticon );

  00037	8b 0e		 mov	 ecx, DWORD PTR [esi]
  00039	3b cb		 cmp	 ecx, ebx
  0003b	74 09		 je	 SHORT $LN20@SetEmotico
  0003d	8b 01		 mov	 eax, DWORD PTR [ecx]
  0003f	6a 01		 push	 1
  00041	ff 50 40	 call	 DWORD PTR [eax+64]
  00044	89 1e		 mov	 DWORD PTR [esi], ebx
$LN20@SetEmotico:

; 503  : 	SAFEDELETE( m_pEmoticonNum );

  00046	8b 4e 08	 mov	 ecx, DWORD PTR [esi+8]
  00049	3b cb		 cmp	 ecx, ebx
  0004b	74 0a		 je	 SHORT $LN19@SetEmotico
  0004d	8b 01		 mov	 eax, DWORD PTR [ecx]
  0004f	6a 01		 push	 1
  00051	ff 50 40	 call	 DWORD PTR [eax+64]
  00054	89 5e 08	 mov	 DWORD PTR [esi+8], ebx
$LN19@SetEmotico:

; 504  : 
; 505  : 	m_szEmoticonName.Clear();

  00057	8d 8e 90 00 00
	00		 lea	 ecx, DWORD PTR [esi+144]
  0005d	ff 15 00 00 00
	00		 call	 DWORD PTR __imp_?Clear@ioHashString@@QAEXXZ

; 506  : 	m_pEmoticon = pEmoticon;
; 507  : 
; 508  : 	CheckEmoticonBackImage();

  00063	8b ce		 mov	 ecx, esi
  00065	89 3e		 mov	 DWORD PTR [esi], edi
  00067	e8 00 00 00 00	 call	 ?CheckEmoticonBackImage@ioCharEmoticon@@IAEXXZ ; ioCharEmoticon::CheckEmoticonBackImage

; 509  : 
; 510  : 	m_dwEmoticonStartTime = FRAMEGETTIME();

  0006c	ff 15 00 00 00
	00		 call	 DWORD PTR __imp_?GetSingleton@ioFrameTimer@@SAAAV1@XZ
  00072	8b c8		 mov	 ecx, eax
  00074	ff 15 00 00 00
	00		 call	 DWORD PTR __imp_?GetLoopSec@ioFrameTimer@@QBEKXZ

; 511  : 	m_bOwnerChar = bOwnerChar;
; 512  : 
; 513  : 	switch( eType )

  0007a	8b 7d 0c	 mov	 edi, DWORD PTR _eType$[ebp]
  0007d	89 46 10	 mov	 DWORD PTR [esi+16], eax
  00080	8a 45 10	 mov	 al, BYTE PTR _bOwnerChar$[ebp]
  00083	88 46 70	 mov	 BYTE PTR [esi+112], al
  00086	83 ff 0d	 cmp	 edi, 13			; 0000000dH
  00089	0f 87 f9 00 00
	00		 ja	 $LN3@SetEmotico
  0008f	0f b6 8f 00 00
	00 00		 movzx	 ecx, BYTE PTR $LN29@SetEmotico[edi]
  00096	ff 24 8d 00 00
	00 00		 jmp	 DWORD PTR $LN36@SetEmotico[ecx*4]
$LN16@SetEmotico:

; 514  : 	{
; 515  : 	case EMT_DEFAULT:
; 516  : 		m_dwCurEmoticonDuration = m_dwDefaultDuration;

  0009d	a1 00 00 00 00	 mov	 eax, DWORD PTR ?m_dwDefaultDuration@ioCharEmoticon@@1KA ; ioCharEmoticon::m_dwDefaultDuration
$LN35@SetEmotico:
  000a2	89 46 14	 mov	 DWORD PTR [esi+20], eax

; 517  : 		m_fCurStartScale = m_fEmoticonEndScale;

  000a5	f3 0f 10 05 00
	00 00 00	 movss	 xmm0, DWORD PTR ?m_fEmoticonEndScale@ioCharEmoticon@@1MA
  000ad	f3 0f 11 46 1c	 movss	 DWORD PTR [esi+28], xmm0

; 518  : 		m_dwCurScaleDuration = 0;

  000b2	89 5e 18	 mov	 DWORD PTR [esi+24], ebx

; 519  : 		break;

  000b5	e9 ce 00 00 00	 jmp	 $LN3@SetEmotico
$LN15@SetEmotico:

; 520  : 	case EMT_CHAT_ICON:
; 521  : 		m_dwCurEmoticonDuration = m_dwChatIconDuration;

  000ba	a1 00 00 00 00	 mov	 eax, DWORD PTR ?m_dwChatIconDuration@ioCharEmoticon@@1KA ; ioCharEmoticon::m_dwChatIconDuration

; 522  : 		m_fCurStartScale = m_fEmoticonEndScale;
; 523  : 		m_dwCurScaleDuration = 0;
; 524  : 		break;

  000bf	eb e1		 jmp	 SHORT $LN35@SetEmotico
$LN14@SetEmotico:

; 525  : 	case EMT_KILL_POINT:
; 526  : 	case EMT_GAME_EVENT:
; 527  : 	case EMT_HIT_COMBO:
; 528  : 	case EMT_USER_RANK:
; 529  : 	case EMT_FISHING_GRADE:
; 530  : 	case EMT_FISHING_LEVEL_UP:
; 531  : 		m_dwCurEmoticonDuration = m_dwLongDuration;

  000c1	8b 0d 00 00 00
	00		 mov	 ecx, DWORD PTR ?m_dwLongDuration@ioCharEmoticon@@1KA ; ioCharEmoticon::m_dwLongDuration
  000c7	89 4e 14	 mov	 DWORD PTR [esi+20], ecx

; 532  : 		
; 533  : 		if( m_bOwnerChar )

  000ca	3a c3		 cmp	 al, bl
  000cc	74 17		 je	 SHORT $LN13@SetEmotico

; 534  : 		{
; 535  : 			m_fCurStartScale = m_fOwnerGameEventScale;

  000ce	f3 0f 10 05 00
	00 00 00	 movss	 xmm0, DWORD PTR ?m_fOwnerGameEventScale@ioCharEmoticon@@1MA
$LN33@SetEmotico:
  000d6	f3 0f 11 46 1c	 movss	 DWORD PTR [esi+28], xmm0

; 536  : 			m_dwCurScaleDuration = m_dwOwnerGameEventTime;

  000db	a1 00 00 00 00	 mov	 eax, DWORD PTR ?m_dwOwnerGameEventTime@ioCharEmoticon@@1KA ; ioCharEmoticon::m_dwOwnerGameEventTime

; 537  : 		}
; 538  : 		else

  000e0	e9 a0 00 00 00	 jmp	 $LN32@SetEmotico
$LN13@SetEmotico:

; 539  : 		{
; 540  : 			m_fCurStartScale = m_fOtherGameEventScale;

  000e5	f3 0f 10 05 00
	00 00 00	 movss	 xmm0, DWORD PTR ?m_fOtherGameEventScale@ioCharEmoticon@@1MA
$LN34@SetEmotico:
  000ed	f3 0f 11 46 1c	 movss	 DWORD PTR [esi+28], xmm0

; 541  : 			m_dwCurScaleDuration = m_dwOtherGameEventTime;

  000f2	a1 00 00 00 00	 mov	 eax, DWORD PTR ?m_dwOtherGameEventTime@ioCharEmoticon@@1KA ; ioCharEmoticon::m_dwOtherGameEventTime

; 542  : 		}
; 543  : 		break;

  000f7	e9 89 00 00 00	 jmp	 $LN32@SetEmotico
$LN11@SetEmotico:

; 544  : 	case EMT_MOVIE_EVENT:
; 545  : 		m_dwCurEmoticonDuration = m_dwLongDuration;

  000fc	8b 0d 00 00 00
	00		 mov	 ecx, DWORD PTR ?m_dwLongDuration@ioCharEmoticon@@1KA ; ioCharEmoticon::m_dwLongDuration
  00102	89 4e 14	 mov	 DWORD PTR [esi+20], ecx

; 546  : 
; 547  : 		if( m_bOwnerChar )

  00105	3a c3		 cmp	 al, bl
  00107	74 0a		 je	 SHORT $LN10@SetEmotico

; 548  : 		{
; 549  : 			m_fCurStartScale = m_fOwnerMovieEventScale;

  00109	f3 0f 10 05 00
	00 00 00	 movss	 xmm0, DWORD PTR ?m_fOwnerMovieEventScale@ioCharEmoticon@@1MA

; 550  : 			m_dwCurScaleDuration = m_dwOwnerGameEventTime;
; 551  : 		}
; 552  : 		else

  00111	eb c3		 jmp	 SHORT $LN33@SetEmotico
$LN10@SetEmotico:

; 553  : 		{
; 554  : 			m_fCurStartScale = m_fOtherMovieEventScale;

  00113	f3 0f 10 05 00
	00 00 00	 movss	 xmm0, DWORD PTR ?m_fOtherMovieEventScale@ioCharEmoticon@@1MA

; 555  : 			m_dwCurScaleDuration = m_dwOtherGameEventTime;
; 556  : 		}
; 557  : 		break;

  0011b	eb d0		 jmp	 SHORT $LN34@SetEmotico
$LN8@SetEmotico:

; 558  : 	case EMT_SKILL_BUFF:
; 559  : 		m_dwCurEmoticonDuration = m_dwDefaultDuration;

  0011d	8b 0d 00 00 00
	00		 mov	 ecx, DWORD PTR ?m_dwDefaultDuration@ioCharEmoticon@@1KA ; ioCharEmoticon::m_dwDefaultDuration
  00123	89 4e 14	 mov	 DWORD PTR [esi+20], ecx

; 560  : 
; 561  : 		if( m_bOwnerChar )

  00126	3a c3		 cmp	 al, bl
  00128	74 14		 je	 SHORT $LN7@SetEmotico

; 562  : 		{
; 563  : 			m_fCurStartScale = m_fOwnerSkillBuffScale;

  0012a	f3 0f 10 05 00
	00 00 00	 movss	 xmm0, DWORD PTR ?m_fOwnerSkillBuffScale@ioCharEmoticon@@1MA
  00132	f3 0f 11 46 1c	 movss	 DWORD PTR [esi+28], xmm0

; 564  : 			m_dwCurScaleDuration = m_dwOwnerSkillBuffTime;

  00137	a1 00 00 00 00	 mov	 eax, DWORD PTR ?m_dwOwnerSkillBuffTime@ioCharEmoticon@@1KA ; ioCharEmoticon::m_dwOwnerSkillBuffTime

; 565  : 		}
; 566  : 		else

  0013c	eb 47		 jmp	 SHORT $LN32@SetEmotico
$LN7@SetEmotico:

; 567  : 		{
; 568  : 			m_fCurStartScale = m_fOtherSkillBuffScale;

  0013e	f3 0f 10 05 00
	00 00 00	 movss	 xmm0, DWORD PTR ?m_fOtherSkillBuffScale@ioCharEmoticon@@1MA
  00146	f3 0f 11 46 1c	 movss	 DWORD PTR [esi+28], xmm0

; 569  : 			m_dwCurScaleDuration = m_dwOtherSkillBuffTime;

  0014b	a1 00 00 00 00	 mov	 eax, DWORD PTR ?m_dwOtherSkillBuffTime@ioCharEmoticon@@1KA ; ioCharEmoticon::m_dwOtherSkillBuffTime

; 570  : 		}
; 571  : 		break;

  00150	eb 33		 jmp	 SHORT $LN32@SetEmotico
$LN5@SetEmotico:

; 572  : 	case EMT_BAD_STATE:
; 573  : 		m_dwCurEmoticonDuration = m_dwDefaultDuration;

  00152	8b 0d 00 00 00
	00		 mov	 ecx, DWORD PTR ?m_dwDefaultDuration@ioCharEmoticon@@1KA ; ioCharEmoticon::m_dwDefaultDuration
  00158	89 4e 14	 mov	 DWORD PTR [esi+20], ecx

; 574  : 
; 575  : 		if( m_bOwnerChar )

  0015b	3a c3		 cmp	 al, bl
  0015d	74 14		 je	 SHORT $LN4@SetEmotico

; 576  : 		{
; 577  : 			m_fCurStartScale = m_fOwnerBadStateScale;

  0015f	f3 0f 10 05 00
	00 00 00	 movss	 xmm0, DWORD PTR ?m_fOwnerBadStateScale@ioCharEmoticon@@1MA
  00167	f3 0f 11 46 1c	 movss	 DWORD PTR [esi+28], xmm0

; 578  : 			m_dwCurScaleDuration = m_dwOwnerBadStateTime;

  0016c	a1 00 00 00 00	 mov	 eax, DWORD PTR ?m_dwOwnerBadStateTime@ioCharEmoticon@@1KA ; ioCharEmoticon::m_dwOwnerBadStateTime

; 579  : 		}
; 580  : 		else

  00171	eb 12		 jmp	 SHORT $LN32@SetEmotico
$LN4@SetEmotico:

; 581  : 		{
; 582  : 			m_fCurStartScale = m_fOtherBadStateScale;

  00173	f3 0f 10 05 00
	00 00 00	 movss	 xmm0, DWORD PTR ?m_fOtherBadStateScale@ioCharEmoticon@@1MA
  0017b	f3 0f 11 46 1c	 movss	 DWORD PTR [esi+28], xmm0

; 583  : 			m_dwCurScaleDuration = m_dwOtherBadStateTime;

  00180	a1 00 00 00 00	 mov	 eax, DWORD PTR ?m_dwOtherBadStateTime@ioCharEmoticon@@1KA ; ioCharEmoticon::m_dwOtherBadStateTime
$LN32@SetEmotico:
  00185	89 46 18	 mov	 DWORD PTR [esi+24], eax
$LN3@SetEmotico:

; 584  : 		}
; 585  : 		break;
; 586  : 	}
; 587  : 
; 588  : 	//      
; 589  : 	if( dwDuration > 0 )

  00188	8b 45 14	 mov	 eax, DWORD PTR _dwDuration$[ebp]
  0018b	3b c3		 cmp	 eax, ebx
  0018d	76 03		 jbe	 SHORT $LN2@SetEmotico

; 590  : 		m_dwCurEmoticonDuration = dwDuration;

  0018f	89 46 14	 mov	 DWORD PTR [esi+20], eax
$LN2@SetEmotico:

; 591  : 
; 592  : 	if( m_pEmoticon )

  00192	8b 0e		 mov	 ecx, DWORD PTR [esi]
  00194	3b cb		 cmp	 ecx, ebx
  00196	74 10		 je	 SHORT $LN1@SetEmotico

; 593  : 		m_pEmoticon->SetScale( m_fCurStartScale );

  00198	f3 0f 10 46 1c	 movss	 xmm0, DWORD PTR [esi+28]
  0019d	8b 01		 mov	 eax, DWORD PTR [ecx]
  0019f	51		 push	 ecx
  001a0	f3 0f 11 04 24	 movss	 DWORD PTR [esp], xmm0
  001a5	ff 50 1c	 call	 DWORD PTR [eax+28]
$LN1@SetEmotico:

; 594  : 
; 595  : 	m_State = ES_SCALE;

  001a8	c7 46 68 01 00
	00 00		 mov	 DWORD PTR [esi+104], 1

; 596  : 	m_Type  = eType;

  001af	89 7e 6c	 mov	 DWORD PTR [esi+108], edi
$LN30@SetEmotico:
  001b2	5f		 pop	 edi
  001b3	5b		 pop	 ebx
$LN23@SetEmotico:
  001b4	5e		 pop	 esi

; 597  : }

  001b5	5d		 pop	 ebp
  001b6	c2 10 00	 ret	 16			; 00000010H
  001b9	8d 49 00	 npad	 3
$LN36@SetEmotico:
  001bc	00 00 00 00	 DD	 $LN16@SetEmotico
  001c0	00 00 00 00	 DD	 $LN14@SetEmotico
  001c4	00 00 00 00	 DD	 $LN8@SetEmotico
  001c8	00 00 00 00	 DD	 $LN5@SetEmotico
  001cc	00 00 00 00	 DD	 $LN15@SetEmotico
  001d0	00 00 00 00	 DD	 $LN11@SetEmotico
  001d4	00 00 00 00	 DD	 $LN3@SetEmotico
$LN29@SetEmotico:
  001d8	00		 DB	 0
  001d9	01		 DB	 1
  001da	02		 DB	 2
  001db	03		 DB	 3
  001dc	01		 DB	 1
  001dd	04		 DB	 4
  001de	06		 DB	 6
  001df	01		 DB	 1
  001e0	05		 DB	 5
  001e1	06		 DB	 6
  001e2	06		 DB	 6
  001e3	01		 DB	 1
  001e4	01		 DB	 1
  001e5	01		 DB	 1
?SetEmoticon@ioCharEmoticon@@QAEXABVioHashString@@W4EmoticonType@@_NK@Z ENDP ; ioCharEmoticon::SetEmoticon
_TEXT	ENDS
PUBLIC	?SetNamedEmoticon@ioCharEmoticon@@QAEXABVioHashString@@0K_NK@Z ; ioCharEmoticon::SetNamedEmoticon
; Function compile flags: /Ogsp
;	COMDAT ?SetNamedEmoticon@ioCharEmoticon@@QAEXABVioHashString@@0K_NK@Z
_TEXT	SEGMENT
_szEmoticon$ = 8					; size = 4
_szDescName$ = 12					; size = 4
_dwColor$ = 16						; size = 4
_bOwnerChar$ = 20					; size = 1
_dwDuration$ = 24					; size = 4
?SetNamedEmoticon@ioCharEmoticon@@QAEXABVioHashString@@0K_NK@Z PROC ; ioCharEmoticon::SetNamedEmoticon, COMDAT
; _this$ = ecx

; 600  : {

  00000	55		 push	 ebp
  00001	8b ec		 mov	 ebp, esp
  00003	56		 push	 esi
  00004	8b f1		 mov	 esi, ecx

; 601  : 	if( szEmoticon.IsEmpty() )	return;

  00006	8b 4d 08	 mov	 ecx, DWORD PTR _szEmoticon$[ebp]
  00009	ff 15 00 00 00
	00		 call	 DWORD PTR __imp_?IsEmpty@ioHashString@@QBE_NXZ
  0000f	84 c0		 test	 al, al
  00011	0f 85 dd 00 00
	00		 jne	 $LN9@SetNamedEm

; 602  : 
; 603  : 	ioUIRenderImage *pEmoticon = g_UIImageSetMgr.CreateImageByFullName( szEmoticon );

  00017	57		 push	 edi
  00018	6a 00		 push	 0
  0001a	ff 75 08	 push	 DWORD PTR _szEmoticon$[ebp]
  0001d	ff 15 00 00 00
	00		 call	 DWORD PTR __imp_?GetSingleton@ioUIImageSetManager@@SAAAV1@XZ
  00023	8b c8		 mov	 ecx, eax
  00025	ff 15 00 00 00
	00		 call	 DWORD PTR __imp_?CreateImageByFullName@ioUIImageSetManager@@QAEPAVioUIRenderImage@@ABVioHashString@@_N@Z
  0002b	8b f8		 mov	 edi, eax

; 604  : 	if( !pEmoticon ) return;

  0002d	85 ff		 test	 edi, edi
  0002f	0f 84 be 00 00
	00		 je	 $LN15@SetNamedEm

; 605  : 
; 606  : 	SAFEDELETE( m_pEmoticon );

  00035	8b 0e		 mov	 ecx, DWORD PTR [esi]
  00037	85 c9		 test	 ecx, ecx
  00039	74 0a		 je	 SHORT $LN6@SetNamedEm
  0003b	8b 01		 mov	 eax, DWORD PTR [ecx]
  0003d	6a 01		 push	 1
  0003f	ff 50 40	 call	 DWORD PTR [eax+64]
  00042	83 26 00	 and	 DWORD PTR [esi], 0
$LN6@SetNamedEm:

; 607  : 	SAFEDELETE( m_pEmoticonNum );

  00045	8b 4e 08	 mov	 ecx, DWORD PTR [esi+8]
  00048	85 c9		 test	 ecx, ecx
  0004a	74 0b		 je	 SHORT $LN5@SetNamedEm
  0004c	8b 01		 mov	 eax, DWORD PTR [ecx]
  0004e	6a 01		 push	 1
  00050	ff 50 40	 call	 DWORD PTR [eax+64]
  00053	83 66 08 00	 and	 DWORD PTR [esi+8], 0
$LN5@SetNamedEm:

; 608  : 
; 609  : 	m_pEmoticon = pEmoticon;
; 610  : 
; 611  : 	m_szEmoticonName = szDescName;

  00057	ff 75 0c	 push	 DWORD PTR _szDescName$[ebp]
  0005a	8d 8e 90 00 00
	00		 lea	 ecx, DWORD PTR [esi+144]
  00060	89 3e		 mov	 DWORD PTR [esi], edi
  00062	ff 15 00 00 00
	00		 call	 DWORD PTR __imp_??4ioHashString@@QAEAAV0@ABV0@@Z

; 612  : 	m_dwEmoticonNameColor = dwColor;

  00068	8b 45 10	 mov	 eax, DWORD PTR _dwColor$[ebp]

; 613  : 
; 614  : 	CheckEmoticonBackImage();

  0006b	8b ce		 mov	 ecx, esi
  0006d	89 86 8c 00 00
	00		 mov	 DWORD PTR [esi+140], eax
  00073	e8 00 00 00 00	 call	 ?CheckEmoticonBackImage@ioCharEmoticon@@IAEXXZ ; ioCharEmoticon::CheckEmoticonBackImage

; 615  : 
; 616  : 	m_dwEmoticonStartTime = FRAMEGETTIME();

  00078	ff 15 00 00 00
	00		 call	 DWORD PTR __imp_?GetSingleton@ioFrameTimer@@SAAAV1@XZ
  0007e	8b c8		 mov	 ecx, eax
  00080	ff 15 00 00 00
	00		 call	 DWORD PTR __imp_?GetLoopSec@ioFrameTimer@@QBEKXZ
  00086	89 46 10	 mov	 DWORD PTR [esi+16], eax

; 617  : 	m_bOwnerChar = bOwnerChar;

  00089	8a 45 14	 mov	 al, BYTE PTR _bOwnerChar$[ebp]
  0008c	88 46 70	 mov	 BYTE PTR [esi+112], al

; 618  : 
; 619  : 	m_dwCurEmoticonDuration = m_dwDefaultDuration;

  0008f	8b 0d 00 00 00
	00		 mov	 ecx, DWORD PTR ?m_dwDefaultDuration@ioCharEmoticon@@1KA ; ioCharEmoticon::m_dwDefaultDuration
  00095	89 4e 14	 mov	 DWORD PTR [esi+20], ecx

; 620  : 
; 621  : 	if( m_bOwnerChar )

  00098	84 c0		 test	 al, al
  0009a	74 14		 je	 SHORT $LN4@SetNamedEm

; 622  : 	{
; 623  : 		m_fCurStartScale = m_fOwnerSkillBuffScale;

  0009c	f3 0f 10 05 00
	00 00 00	 movss	 xmm0, DWORD PTR ?m_fOwnerSkillBuffScale@ioCharEmoticon@@1MA
  000a4	f3 0f 11 46 1c	 movss	 DWORD PTR [esi+28], xmm0

; 624  : 		m_dwCurScaleDuration = m_dwOwnerSkillBuffTime;

  000a9	a1 00 00 00 00	 mov	 eax, DWORD PTR ?m_dwOwnerSkillBuffTime@ioCharEmoticon@@1KA ; ioCharEmoticon::m_dwOwnerSkillBuffTime

; 625  : 	}
; 626  : 	else

  000ae	eb 12		 jmp	 SHORT $LN16@SetNamedEm
$LN4@SetNamedEm:

; 627  : 	{
; 628  : 		m_fCurStartScale = m_fOtherSkillBuffScale;

  000b0	f3 0f 10 05 00
	00 00 00	 movss	 xmm0, DWORD PTR ?m_fOtherSkillBuffScale@ioCharEmoticon@@1MA
  000b8	f3 0f 11 46 1c	 movss	 DWORD PTR [esi+28], xmm0

; 629  : 		m_dwCurScaleDuration = m_dwOtherSkillBuffTime;

  000bd	a1 00 00 00 00	 mov	 eax, DWORD PTR ?m_dwOtherSkillBuffTime@ioCharEmoticon@@1KA ; ioCharEmoticon::m_dwOtherSkillBuffTime
$LN16@SetNamedEm:
  000c2	89 46 18	 mov	 DWORD PTR [esi+24], eax

; 630  : 	}
; 631  : 
; 632  : 	//      
; 633  : 	if( dwDuration > 0 )

  000c5	8b 45 18	 mov	 eax, DWORD PTR _dwDuration$[ebp]
  000c8	85 c0		 test	 eax, eax
  000ca	74 03		 je	 SHORT $LN2@SetNamedEm

; 634  : 		m_dwCurEmoticonDuration = dwDuration;

  000cc	89 46 14	 mov	 DWORD PTR [esi+20], eax
$LN2@SetNamedEm:

; 635  : 
; 636  : 	if( m_pEmoticon )

  000cf	8b 0e		 mov	 ecx, DWORD PTR [esi]
  000d1	85 c9		 test	 ecx, ecx
  000d3	74 10		 je	 SHORT $LN1@SetNamedEm

; 637  : 		m_pEmoticon->SetScale( m_fCurStartScale );

  000d5	f3 0f 10 46 1c	 movss	 xmm0, DWORD PTR [esi+28]
  000da	8b 01		 mov	 eax, DWORD PTR [ecx]
  000dc	51		 push	 ecx
  000dd	f3 0f 11 04 24	 movss	 DWORD PTR [esp], xmm0
  000e2	ff 50 1c	 call	 DWORD PTR [eax+28]
$LN1@SetNamedEm:

; 638  : 
; 639  : 	m_State = ES_SCALE;

  000e5	c7 46 68 01 00
	00 00		 mov	 DWORD PTR [esi+104], 1

; 640  : 	m_Type  = EMT_NAMED_ICON;

  000ec	c7 46 6c 09 00
	00 00		 mov	 DWORD PTR [esi+108], 9
$LN15@SetNamedEm:
  000f3	5f		 pop	 edi
$LN9@SetNamedEm:
  000f4	5e		 pop	 esi

; 641  : }

  000f5	5d		 pop	 ebp
  000f6	c2 14 00	 ret	 20			; 00000014H
?SetNamedEmoticon@ioCharEmoticon@@QAEXABVioHashString@@0K_NK@Z ENDP ; ioCharEmoticon::SetNamedEmoticon
_TEXT	ENDS
PUBLIC	??_C@_0P@NCEBKFHD@char_state_cam?$AA@		; `string'
PUBLIC	?Set3DChatEmoticon@ioCharEmoticon@@QAEXABUCHARACTER@@H_N1@Z ; ioCharEmoticon::Set3DChatEmoticon
EXTRN	?SetAvata@io3DCharEmoticon@@QAEXABUCHARACTER@@H_NW4SpecialAtcionType@@@Z:PROC ; io3DCharEmoticon::SetAvata
EXTRN	?Initialize@io3DCharEmoticon@@QAEXABVioHashString@@@Z:PROC ; io3DCharEmoticon::Initialize
EXTRN	__imp_??0ioHashString@@QAE@PBD@Z:PROC
EXTRN	??0io3DCharEmoticon@@QAE@XZ:PROC		; io3DCharEmoticon::io3DCharEmoticon
EXTRN	??2@YAPAXI@Z:PROC				; operator new
;	COMDAT ??_C@_0P@NCEBKFHD@char_state_cam?$AA@
CONST	SEGMENT
??_C@_0P@NCEBKFHD@char_state_cam?$AA@ DB 'char_state_cam', 00H ; `string'
CONST	ENDS
;	COMDAT xdata$x
xdata$x	SEGMENT
__unwindtable$?Set3DChatEmoticon@ioCharEmoticon@@QAEXABUCHARACTER@@H_N1@Z DD 0ffffffffH
	DD	FLAT:__unwindfunclet$?Set3DChatEmoticon@ioCharEmoticon@@QAEXABUCHARACTER@@H_N1@Z$0
	DD	0ffffffffH
	DD	FLAT:__unwindfunclet$?Set3DChatEmoticon@ioCharEmoticon@@QAEXABUCHARACTER@@H_N1@Z$1
__ehfuncinfo$?Set3DChatEmoticon@ioCharEmoticon@@QAEXABUCHARACTER@@H_N1@Z DD 019930522H
	DD	02H
	DD	FLAT:__unwindtable$?Set3DChatEmoticon@ioCharEmoticon@@QAEXABUCHARACTER@@H_N1@Z
	DD	2 DUP(00H)
	DD	2 DUP(00H)
	DD	00H
	DD	01H
; Function compile flags: /Ogsp
xdata$x	ENDS
;	COMDAT ?Set3DChatEmoticon@ioCharEmoticon@@QAEXABUCHARACTER@@H_N1@Z
_TEXT	SEGMENT
$T531073 = -32						; size = 16
$T531070 = -16						; size = 4
__$EHRec$ = -12						; size = 12
_rkInfo$ = 8						; size = 4
_iChatLen$ = 12						; size = 4
_bOwnerChar$ = 16					; size = 1
_bNoSound$ = 20						; size = 1
?Set3DChatEmoticon@ioCharEmoticon@@QAEXABUCHARACTER@@H_N1@Z PROC ; ioCharEmoticon::Set3DChatEmoticon, COMDAT
; _this$ = ecx

; 644  : {

  00000	6a 14		 push	 20			; 00000014H
  00002	b8 00 00 00 00	 mov	 eax, __ehhandler$?Set3DChatEmoticon@ioCharEmoticon@@QAEXABUCHARACTER@@H_N1@Z
  00007	e8 00 00 00 00	 call	 __EH_prolog3
  0000c	8b f1		 mov	 esi, ecx

; 645  : 	SAFEDELETE( m_pEmoticon );

  0000e	8b 0e		 mov	 ecx, DWORD PTR [esi]
  00010	33 ff		 xor	 edi, edi
  00012	3b cf		 cmp	 ecx, edi
  00014	74 09		 je	 SHORT $LN3@Set3DChatE
  00016	8b 01		 mov	 eax, DWORD PTR [ecx]
  00018	6a 01		 push	 1
  0001a	ff 50 40	 call	 DWORD PTR [eax+64]
  0001d	89 3e		 mov	 DWORD PTR [esi], edi
$LN3@Set3DChatE:

; 646  : 	SAFEDELETE( m_pEmoticonNum );

  0001f	8b 4e 08	 mov	 ecx, DWORD PTR [esi+8]
  00022	3b cf		 cmp	 ecx, edi
  00024	74 0a		 je	 SHORT $LN2@Set3DChatE
  00026	8b 01		 mov	 eax, DWORD PTR [ecx]
  00028	6a 01		 push	 1
  0002a	ff 50 40	 call	 DWORD PTR [eax+64]
  0002d	89 7e 08	 mov	 DWORD PTR [esi+8], edi
$LN2@Set3DChatE:

; 647  : 
; 648  : 	if( !m_p3DChatEmoticon )

  00030	39 7e 0c	 cmp	 DWORD PTR [esi+12], edi
  00033	75 52		 jne	 SHORT $LN1@Set3DChatE

; 649  : 	{
; 650  : 		m_p3DChatEmoticon = new io3DCharEmoticon;

  00035	6a 44		 push	 68			; 00000044H
  00037	e8 00 00 00 00	 call	 ??2@YAPAXI@Z		; operator new
  0003c	59		 pop	 ecx
  0003d	8b c8		 mov	 ecx, eax
  0003f	89 4d f0	 mov	 DWORD PTR $T531070[ebp], ecx
  00042	89 7d fc	 mov	 DWORD PTR __$EHRec$[ebp+8], edi
  00045	3b cf		 cmp	 ecx, edi
  00047	74 07		 je	 SHORT $LN10@Set3DChatE
  00049	e8 00 00 00 00	 call	 ??0io3DCharEmoticon@@QAE@XZ ; io3DCharEmoticon::io3DCharEmoticon
  0004e	eb 02		 jmp	 SHORT $LN11@Set3DChatE
$LN10@Set3DChatE:
  00050	33 c0		 xor	 eax, eax
$LN11@Set3DChatE:
  00052	83 4d fc ff	 or	 DWORD PTR __$EHRec$[ebp+8], -1

; 651  : 		m_p3DChatEmoticon->Initialize( "char_state_cam" );

  00056	68 00 00 00 00	 push	 OFFSET ??_C@_0P@NCEBKFHD@char_state_cam?$AA@
  0005b	8d 4d e0	 lea	 ecx, DWORD PTR $T531073[ebp]
  0005e	89 46 0c	 mov	 DWORD PTR [esi+12], eax
  00061	ff 15 00 00 00
	00		 call	 DWORD PTR __imp_??0ioHashString@@QAE@PBD@Z
  00067	8b 4e 0c	 mov	 ecx, DWORD PTR [esi+12]
  0006a	8d 45 e0	 lea	 eax, DWORD PTR $T531073[ebp]
  0006d	50		 push	 eax
  0006e	c7 45 fc 01 00
	00 00		 mov	 DWORD PTR __$EHRec$[ebp+8], 1
  00075	e8 00 00 00 00	 call	 ?Initialize@io3DCharEmoticon@@QAEXABVioHashString@@@Z ; io3DCharEmoticon::Initialize
  0007a	83 4d fc ff	 or	 DWORD PTR __$EHRec$[ebp+8], -1
  0007e	8d 4d e0	 lea	 ecx, DWORD PTR $T531073[ebp]
  00081	ff 15 00 00 00
	00		 call	 DWORD PTR __imp_??1ioHashString@@QAE@XZ
$LN1@Set3DChatE:

; 652  : 	}
; 653  : 
; 654  : 	m_p3DChatEmoticon->SetAvata( rkInfo, iChatLen, bNoSound, SPA_NONE );

  00087	8b 4e 0c	 mov	 ecx, DWORD PTR [esi+12]
  0008a	57		 push	 edi
  0008b	ff 75 14	 push	 DWORD PTR _bNoSound$[ebp]
  0008e	ff 75 0c	 push	 DWORD PTR _iChatLen$[ebp]
  00091	ff 75 08	 push	 DWORD PTR _rkInfo$[ebp]
  00094	e8 00 00 00 00	 call	 ?SetAvata@io3DCharEmoticon@@QAEXABUCHARACTER@@H_NW4SpecialAtcionType@@@Z ; io3DCharEmoticon::SetAvata

; 655  : 
; 656  : 	m_dwEmoticonStartTime = FRAMEGETTIME();

  00099	ff 15 00 00 00
	00		 call	 DWORD PTR __imp_?GetSingleton@ioFrameTimer@@SAAAV1@XZ
  0009f	8b c8		 mov	 ecx, eax
  000a1	ff 15 00 00 00
	00		 call	 DWORD PTR __imp_?GetLoopSec@ioFrameTimer@@QBEKXZ
  000a7	89 46 10	 mov	 DWORD PTR [esi+16], eax

; 657  : 	m_bOwnerChar = bOwnerChar;

  000aa	8a 45 10	 mov	 al, BYTE PTR _bOwnerChar$[ebp]
  000ad	88 46 70	 mov	 BYTE PTR [esi+112], al

; 658  : 
; 659  : 	m_dwCurEmoticonDuration = m_dw3DChatIconDuration;

  000b0	a1 00 00 00 00	 mov	 eax, DWORD PTR ?m_dw3DChatIconDuration@ioCharEmoticon@@1KA ; ioCharEmoticon::m_dw3DChatIconDuration
  000b5	89 46 14	 mov	 DWORD PTR [esi+20], eax

; 660  : 	m_fCurStartScale = m_fEmoticonEndScale;

  000b8	f3 0f 10 05 00
	00 00 00	 movss	 xmm0, DWORD PTR ?m_fEmoticonEndScale@ioCharEmoticon@@1MA

; 661  : 	m_dwCurScaleDuration = 0;
; 662  : 
; 663  : 	m_State = ES_3D_CHAT;

  000c0	6a 06		 push	 6
  000c2	58		 pop	 eax
  000c3	f3 0f 11 46 1c	 movss	 DWORD PTR [esi+28], xmm0
  000c8	89 7e 18	 mov	 DWORD PTR [esi+24], edi
  000cb	89 46 68	 mov	 DWORD PTR [esi+104], eax

; 664  : 	m_Type  = EMT_3D_CHAT_ICON;

  000ce	89 46 6c	 mov	 DWORD PTR [esi+108], eax

; 665  : }

  000d1	e8 00 00 00 00	 call	 __EH_epilog3
  000d6	c2 10 00	 ret	 16			; 00000010H
_TEXT	ENDS
;	COMDAT text$x
text$x	SEGMENT
__unwindfunclet$?Set3DChatEmoticon@ioCharEmoticon@@QAEXABUCHARACTER@@H_N1@Z$0:
  00000	ff 75 f0	 push	 DWORD PTR $T531070[ebp]
  00003	e8 00 00 00 00	 call	 ??3@YAXPAX@Z		; operator delete
  00008	59		 pop	 ecx
  00009	c3		 ret	 0
__unwindfunclet$?Set3DChatEmoticon@ioCharEmoticon@@QAEXABUCHARACTER@@H_N1@Z$1:
  0000a	8d 4d e0	 lea	 ecx, DWORD PTR $T531073[ebp]
  0000d	ff 25 00 00 00
	00		 jmp	 DWORD PTR __imp_??1ioHashString@@QAE@XZ
__ehhandler$?Set3DChatEmoticon@ioCharEmoticon@@QAEXABUCHARACTER@@H_N1@Z:
  00013	8b 54 24 08	 mov	 edx, DWORD PTR [esp+8]
  00017	8d 42 0c	 lea	 eax, DWORD PTR [edx+12]
  0001a	8b 4a dc	 mov	 ecx, DWORD PTR [edx-36]
  0001d	33 c8		 xor	 ecx, eax
  0001f	e8 00 00 00 00	 call	 @__security_check_cookie@4
  00024	b8 00 00 00 00	 mov	 eax, OFFSET __ehfuncinfo$?Set3DChatEmoticon@ioCharEmoticon@@QAEXABUCHARACTER@@H_N1@Z
  00029	e9 00 00 00 00	 jmp	 ___CxxFrameHandler3
text$x	ENDS
?Set3DChatEmoticon@ioCharEmoticon@@QAEXABUCHARACTER@@H_N1@Z ENDP ; ioCharEmoticon::Set3DChatEmoticon
PUBLIC	?EndEmoticonByName@ioCharEmoticon@@QAEXABVioHashString@@@Z ; ioCharEmoticon::EndEmoticonByName
EXTRN	__imp_??9ioHashString@@QBE_NABV0@@Z:PROC
; Function compile flags: /Ogsp
;	COMDAT ?EndEmoticonByName@ioCharEmoticon@@QAEXABVioHashString@@@Z
_TEXT	SEGMENT
_rszDescName$ = 8					; size = 4
?EndEmoticonByName@ioCharEmoticon@@QAEXABVioHashString@@@Z PROC ; ioCharEmoticon::EndEmoticonByName, COMDAT
; _this$ = ecx

; 701  : {

  00000	55		 push	 ebp
  00001	8b ec		 mov	 ebp, esp
  00003	56		 push	 esi
  00004	8b f1		 mov	 esi, ecx

; 702  : 	if( rszDescName.IsEmpty() )

  00006	8b 4d 08	 mov	 ecx, DWORD PTR _rszDescName$[ebp]
  00009	ff 15 00 00 00
	00		 call	 DWORD PTR __imp_?IsEmpty@ioHashString@@QBE_NXZ
  0000f	84 c0		 test	 al, al
  00011	75 2e		 jne	 SHORT $LN3@EndEmotico

; 703  : 		return;
; 704  : 	if( m_szEmoticonName != rszDescName )

  00013	ff 75 08	 push	 DWORD PTR _rszDescName$[ebp]
  00016	8d 8e 90 00 00
	00		 lea	 ecx, DWORD PTR [esi+144]
  0001c	ff 15 00 00 00
	00		 call	 DWORD PTR __imp_??9ioHashString@@QBE_NABV0@@Z
  00022	84 c0		 test	 al, al
  00024	75 1b		 jne	 SHORT $LN3@EndEmotico

; 705  : 		return;
; 706  : 
; 707  : 	m_dwCurEmoticonDuration = FRAMEGETTIME() - m_dwEmoticonStartTime; // Duration  pasttime .

  00026	ff 15 00 00 00
	00		 call	 DWORD PTR __imp_?GetSingleton@ioFrameTimer@@SAAAV1@XZ
  0002c	8b c8		 mov	 ecx, eax
  0002e	ff 15 00 00 00
	00		 call	 DWORD PTR __imp_?GetLoopSec@ioFrameTimer@@QBEKXZ
  00034	2b 46 10	 sub	 eax, DWORD PTR [esi+16]

; 708  : 	m_State = ES_END_WHITE;

  00037	c7 46 68 03 00
	00 00		 mov	 DWORD PTR [esi+104], 3
  0003e	89 46 14	 mov	 DWORD PTR [esi+20], eax
$LN3@EndEmotico:
  00041	5e		 pop	 esi

; 709  : }

  00042	5d		 pop	 ebp
  00043	c2 04 00	 ret	 4
?EndEmoticonByName@ioCharEmoticon@@QAEXABVioHashString@@@Z ENDP ; ioCharEmoticon::EndEmoticonByName
_TEXT	ENDS
PUBLIC	__real@405fc00000000000
PUBLIC	__real@4022000000000000
PUBLIC	__real@4041800000000000
PUBLIC	__real@3fe51eb860000000
PUBLIC	__real@406fe00000000000
PUBLIC	?CheckNamedEmoticon@ioCharEmoticon@@IAEXMM@Z	; ioCharEmoticon::CheckNamedEmoticon
EXTRN	__imp_?SetTextColor@ioFontManager@@QAEXK@Z:PROC
EXTRN	__imp_?PrintTextAlpha@ioFontManager@@QAAXMMMEPBDZZ:PROC
EXTRN	__imp_?SetTextColor@ioFontManager@@QAEXHHH@Z:PROC
EXTRN	__imp_?SetTextStyle@ioFontManager@@QAEXW4TextStyle@@@Z:PROC
EXTRN	__imp_?SetBkColor@ioFontManager@@QAEXHHH@Z:PROC
EXTRN	__imp_?SetAlignType@ioFontManager@@QAEXW4TextAlignType@@@Z:PROC
EXTRN	__imp_?GetSingleton@ioFontManager@@SAAAV1@XZ:PROC
;	COMDAT __real@405fc00000000000
CONST	SEGMENT
__real@405fc00000000000 DQ 0405fc00000000000r	; 127
CONST	ENDS
;	COMDAT __real@4022000000000000
CONST	SEGMENT
__real@4022000000000000 DQ 04022000000000000r	; 9
CONST	ENDS
;	COMDAT __real@4041800000000000
CONST	SEGMENT
__real@4041800000000000 DQ 04041800000000000r	; 35
CONST	ENDS
;	COMDAT __real@3fe51eb860000000
CONST	SEGMENT
__real@3fe51eb860000000 DQ 03fe51eb860000000r	; 0.66
CONST	ENDS
;	COMDAT __real@406fe00000000000
CONST	SEGMENT
__real@406fe00000000000 DQ 0406fe00000000000r	; 255
; Function compile flags: /Ogsp
CONST	ENDS
;	COMDAT ?CheckNamedEmoticon@ioCharEmoticon@@IAEXMM@Z
_TEXT	SEGMENT
_iAlpha2$ = -8						; size = 1
_fOffSet$ = -4						; size = 4
_fAlphaRate$ = 8					; size = 4
_fCurSize$ = 12						; size = 4
_fScale$ = 12						; size = 4
?CheckNamedEmoticon@ioCharEmoticon@@IAEXMM@Z PROC	; ioCharEmoticon::CheckNamedEmoticon, COMDAT
; _this$ = ecx

; 907  : {

  00000	55		 push	 ebp
  00001	8b ec		 mov	 ebp, esp
  00003	51		 push	 ecx
  00004	51		 push	 ecx

; 915  : 	fOffSet -= 9.0f * (fScale / m_fEmoticonEndScale);

  00005	53		 push	 ebx
  00006	56		 push	 esi

; 916  : 
; 917  : 
; 918  : 	g_FontMgr.SetAlignType( (TextAlignType)m_iEmoticonNameAlignType );

  00007	57		 push	 edi
  00008	8b f9		 mov	 edi, ecx

; 908  : 	BYTE iAlpha = (BYTE)(int)(127.0f * fAlphaRate);
; 909  : 	BYTE iAlpha2 = (BYTE)(int)(255.0f * fAlphaRate);

  0000a	f3 0f 10 45 08	 movss	 xmm0, DWORD PTR _fAlphaRate$[ebp]

; 910  : 	float fCurSize = 0.0f;
; 911  : 	float fOffSet = 0.0f;
; 912  : 	
; 913  : 	fCurSize = 0.66f * (fScale / m_fEmoticonEndScale);

  0000f	f3 0f 10 0d 00
	00 00 00	 movss	 xmm1, DWORD PTR ?m_fEmoticonEndScale@ioCharEmoticon@@1MA

; 914  : 	fOffSet -= 35.0f * (fScale / m_fEmoticonEndScale);

  00017	0f 57 d2	 xorps	 xmm2, xmm2
  0001a	0f 5a c0	 cvtps2pd xmm0, xmm0
  0001d	f2 0f 59 05 00
	00 00 00	 mulsd	 xmm0, QWORD PTR __real@406fe00000000000
  00025	0f 5a c9	 cvtps2pd xmm1, xmm1
  00028	f2 0f 2c c0	 cvttsd2si eax, xmm0
  0002c	f3 0f 10 45 0c	 movss	 xmm0, DWORD PTR _fScale$[ebp]
  00031	0f 5a c0	 cvtps2pd xmm0, xmm0
  00034	f2 0f 5e c1	 divsd	 xmm0, xmm1
  00038	66 0f 28 c8	 movapd	 xmm1, xmm0
  0003c	f2 0f 59 0d 00
	00 00 00	 mulsd	 xmm1, QWORD PTR __real@3fe51eb860000000
  00044	66 0f 5a c9	 cvtpd2ps xmm1, xmm1
  00048	f3 0f 11 4d 0c	 movss	 DWORD PTR _fCurSize$[ebp], xmm1
  0004d	66 0f 28 c8	 movapd	 xmm1, xmm0
  00051	f2 0f 59 0d 00
	00 00 00	 mulsd	 xmm1, QWORD PTR __real@4041800000000000

; 915  : 	fOffSet -= 9.0f * (fScale / m_fEmoticonEndScale);

  00059	f2 0f 59 05 00
	00 00 00	 mulsd	 xmm0, QWORD PTR __real@4022000000000000
  00061	f2 0f 5c d1	 subsd	 xmm2, xmm1

; 916  : 
; 917  : 
; 918  : 	g_FontMgr.SetAlignType( (TextAlignType)m_iEmoticonNameAlignType );

  00065	8b 35 00 00 00
	00		 mov	 esi, DWORD PTR __imp_?GetSingleton@ioFontManager@@SAAAV1@XZ
  0006b	0f 57 c9	 xorps	 xmm1, xmm1
  0006e	66 0f 5a ca	 cvtpd2ps xmm1, xmm2
  00072	ff 35 00 00 00
	00		 push	 DWORD PTR ?m_iEmoticonNameAlignType@ioCharEmoticon@@1HA ; ioCharEmoticon::m_iEmoticonNameAlignType
  00078	0f 5a c9	 cvtps2pd xmm1, xmm1
  0007b	f2 0f 5c c8	 subsd	 xmm1, xmm0
  0007f	66 0f 5a c1	 cvtpd2ps xmm0, xmm1
  00083	88 45 f8	 mov	 BYTE PTR _iAlpha2$[ebp], al
  00086	f3 0f 11 45 fc	 movss	 DWORD PTR _fOffSet$[ebp], xmm0
  0008b	ff d6		 call	 esi
  0008d	8b c8		 mov	 ecx, eax
  0008f	ff 15 00 00 00
	00		 call	 DWORD PTR __imp_?SetAlignType@ioFontManager@@QAEXW4TextAlignType@@@Z

; 919  : 	g_FontMgr.SetBkColor( m_iNamedBkColor, m_iNamedBkColor, m_iNamedBkColor );

  00095	8b 87 bc 00 00
	00		 mov	 eax, DWORD PTR [edi+188]
  0009b	50		 push	 eax
  0009c	50		 push	 eax
  0009d	50		 push	 eax
  0009e	ff d6		 call	 esi
  000a0	8b c8		 mov	 ecx, eax
  000a2	ff 15 00 00 00
	00		 call	 DWORD PTR __imp_?SetBkColor@ioFontManager@@QAEXHHH@Z

; 920  : 
; 921  : 	g_FontMgr.SetTextStyle( TS_OUTLINE_FULL_2X );

  000a8	6a 05		 push	 5
  000aa	ff d6		 call	 esi
  000ac	8b 1d 00 00 00
	00		 mov	 ebx, DWORD PTR __imp_?SetTextStyle@ioFontManager@@QAEXW4TextStyle@@@Z
  000b2	8b c8		 mov	 ecx, eax
  000b4	ff d3		 call	 ebx

; 922  : 	g_FontMgr.SetTextColor( 0, 0, 0 );

  000b6	33 c0		 xor	 eax, eax
  000b8	50		 push	 eax
  000b9	50		 push	 eax
  000ba	50		 push	 eax
  000bb	ff d6		 call	 esi
  000bd	8b c8		 mov	 ecx, eax
  000bf	ff 15 00 00 00
	00		 call	 DWORD PTR __imp_?SetTextColor@ioFontManager@@QAEXHHH@Z

; 923  : 
; 924  : 	if( !m_szEmoticonName.IsEmpty() )

  000c5	8d 8f 90 00 00
	00		 lea	 ecx, DWORD PTR [edi+144]
  000cb	ff 15 00 00 00
	00		 call	 DWORD PTR __imp_?IsEmpty@ioHashString@@QBE_NXZ
  000d1	84 c0		 test	 al, al
  000d3	0f 85 89 00 00
	00		 jne	 $LN4@CheckNamed

; 925  : 		g_FontMgr.PrintTextAlpha( m_iRenderXPos + m_iEmoticonNameOffsetX, m_iRenderYPos + fOffSet + m_iEmoticonNameOffsetY, fCurSize, iAlpha, m_szEmoticonName.c_str() );

  000d9	8d 8f 90 00 00
	00		 lea	 ecx, DWORD PTR [edi+144]
  000df	ff 15 00 00 00
	00		 call	 DWORD PTR __imp_?c_str@ioHashString@@QBEPBDXZ
  000e5	f3 0f 10 45 08	 movss	 xmm0, DWORD PTR _fAlphaRate$[ebp]
  000ea	f3 0f 10 4d fc	 movss	 xmm1, DWORD PTR _fOffSet$[ebp]
  000ef	0f 5a c0	 cvtps2pd xmm0, xmm0
  000f2	f2 0f 59 05 00
	00 00 00	 mulsd	 xmm0, QWORD PTR __real@405fc00000000000
  000fa	50		 push	 eax
  000fb	f2 0f 2c c0	 cvttsd2si eax, xmm0
  000ff	f3 0f 10 45 0c	 movss	 xmm0, DWORD PTR _fCurSize$[ebp]
  00104	0f b6 c0	 movzx	 eax, al
  00107	50		 push	 eax
  00108	8b 47 78	 mov	 eax, DWORD PTR [edi+120]
  0010b	03 05 00 00 00
	00		 add	 eax, DWORD PTR ?m_iEmoticonNameOffsetX@ioCharEmoticon@@1HA ; ioCharEmoticon::m_iEmoticonNameOffsetX
  00111	83 ec 0c	 sub	 esp, 12			; 0000000cH
  00114	f3 0f 11 44 24
	08		 movss	 DWORD PTR [esp+8], xmm0
  0011a	66 0f 6e 47 7c	 movd	 xmm0, DWORD PTR [edi+124]
  0011f	0f 5b c0	 cvtdq2ps xmm0, xmm0
  00122	f3 0f 5a c0	 cvtss2sd xmm0, xmm0
  00126	0f 5a c9	 cvtps2pd xmm1, xmm1
  00129	f2 0f 58 c1	 addsd	 xmm0, xmm1
  0012d	66 0f 6e 0d 00
	00 00 00	 movd	 xmm1, DWORD PTR ?m_iEmoticonNameOffsetY@ioCharEmoticon@@1HA ; ioCharEmoticon::m_iEmoticonNameOffsetY
  00135	0f 5b c9	 cvtdq2ps xmm1, xmm1
  00138	f3 0f 5a c9	 cvtss2sd xmm1, xmm1
  0013c	f2 0f 58 c1	 addsd	 xmm0, xmm1
  00140	f2 0f 5a c0	 cvtsd2ss xmm0, xmm0
  00144	f3 0f 11 44 24
	04		 movss	 DWORD PTR [esp+4], xmm0
  0014a	0f 57 c0	 xorps	 xmm0, xmm0
  0014d	f3 0f 2a c0	 cvtsi2ss xmm0, eax
  00151	f3 0f 11 04 24	 movss	 DWORD PTR [esp], xmm0
  00156	ff d6		 call	 esi
  00158	50		 push	 eax
  00159	ff 15 00 00 00
	00		 call	 DWORD PTR __imp_?PrintTextAlpha@ioFontManager@@QAAXMMMEPBDZZ
  0015f	83 c4 18	 add	 esp, 24			; 00000018H
$LN4@CheckNamed:

; 926  : 
; 927  : 	g_FontMgr.SetTextStyle( TS_OUTLINE_FULL );

  00162	6a 04		 push	 4
  00164	ff d6		 call	 esi
  00166	8b c8		 mov	 ecx, eax
  00168	ff d3		 call	 ebx

; 928  : 	if( m_iNamedBkColor > 0 )

  0016a	83 bf bc 00 00
	00 00		 cmp	 DWORD PTR [edi+188], 0
  00171	7e 15		 jle	 SHORT $LN3@CheckNamed

; 929  : 		g_FontMgr.SetTextColor( m_iNamedBkColor, m_iNamedBkColor, m_iNamedBkColor );

  00173	8b 87 bc 00 00
	00		 mov	 eax, DWORD PTR [edi+188]
  00179	50		 push	 eax
  0017a	50		 push	 eax
  0017b	50		 push	 eax
  0017c	ff d6		 call	 esi
  0017e	8b c8		 mov	 ecx, eax
  00180	ff 15 00 00 00
	00		 call	 DWORD PTR __imp_?SetTextColor@ioFontManager@@QAEXHHH@Z

; 930  : 	else

  00186	eb 10		 jmp	 SHORT $LN2@CheckNamed
$LN3@CheckNamed:

; 931  : 		g_FontMgr.SetTextColor( m_dwEmoticonNameColor );

  00188	ff b7 8c 00 00
	00		 push	 DWORD PTR [edi+140]
  0018e	ff d6		 call	 esi
  00190	8b c8		 mov	 ecx, eax
  00192	ff 15 00 00 00
	00		 call	 DWORD PTR __imp_?SetTextColor@ioFontManager@@QAEXK@Z
$LN2@CheckNamed:

; 932  : 
; 933  : 	if( !m_szEmoticonName.IsEmpty() )

  00198	8d 8f 90 00 00
	00		 lea	 ecx, DWORD PTR [edi+144]
  0019e	ff 15 00 00 00
	00		 call	 DWORD PTR __imp_?IsEmpty@ioHashString@@QBE_NXZ
  001a4	84 c0		 test	 al, al
  001a6	75 74		 jne	 SHORT $LN1@CheckNamed

; 934  : 		g_FontMgr.PrintTextAlpha( m_iRenderXPos + m_iEmoticonNameOffsetX, m_iRenderYPos + fOffSet + m_iEmoticonNameOffsetY, fCurSize, iAlpha2, m_szEmoticonName.c_str() );

  001a8	8d 8f 90 00 00
	00		 lea	 ecx, DWORD PTR [edi+144]
  001ae	ff 15 00 00 00
	00		 call	 DWORD PTR __imp_?c_str@ioHashString@@QBEPBDXZ
  001b4	f3 0f 10 45 0c	 movss	 xmm0, DWORD PTR _fCurSize$[ebp]
  001b9	f3 0f 10 4d fc	 movss	 xmm1, DWORD PTR _fOffSet$[ebp]
  001be	50		 push	 eax
  001bf	ff 75 f8	 push	 DWORD PTR _iAlpha2$[ebp]
  001c2	8b 47 78	 mov	 eax, DWORD PTR [edi+120]
  001c5	03 05 00 00 00
	00		 add	 eax, DWORD PTR ?m_iEmoticonNameOffsetX@ioCharEmoticon@@1HA ; ioCharEmoticon::m_iEmoticonNameOffsetX
  001cb	83 ec 0c	 sub	 esp, 12			; 0000000cH
  001ce	f3 0f 11 44 24
	08		 movss	 DWORD PTR [esp+8], xmm0
  001d4	66 0f 6e 47 7c	 movd	 xmm0, DWORD PTR [edi+124]
  001d9	0f 5b c0	 cvtdq2ps xmm0, xmm0
  001dc	f3 0f 5a c0	 cvtss2sd xmm0, xmm0
  001e0	0f 5a c9	 cvtps2pd xmm1, xmm1
  001e3	f2 0f 58 c1	 addsd	 xmm0, xmm1
  001e7	66 0f 6e 0d 00
	00 00 00	 movd	 xmm1, DWORD PTR ?m_iEmoticonNameOffsetY@ioCharEmoticon@@1HA ; ioCharEmoticon::m_iEmoticonNameOffsetY
  001ef	0f 5b c9	 cvtdq2ps xmm1, xmm1
  001f2	f3 0f 5a c9	 cvtss2sd xmm1, xmm1
  001f6	f2 0f 58 c1	 addsd	 xmm0, xmm1
  001fa	f2 0f 5a c0	 cvtsd2ss xmm0, xmm0
  001fe	f3 0f 11 44 24
	04		 movss	 DWORD PTR [esp+4], xmm0
  00204	0f 57 c0	 xorps	 xmm0, xmm0
  00207	f3 0f 2a c0	 cvtsi2ss xmm0, eax
  0020b	f3 0f 11 04 24	 movss	 DWORD PTR [esp], xmm0
  00210	ff d6		 call	 esi
  00212	50		 push	 eax
  00213	ff 15 00 00 00
	00		 call	 DWORD PTR __imp_?PrintTextAlpha@ioFontManager@@QAAXMMMEPBDZZ
  00219	83 c4 18	 add	 esp, 24			; 00000018H
$LN1@CheckNamed:
  0021c	5f		 pop	 edi
  0021d	5e		 pop	 esi
  0021e	5b		 pop	 ebx

; 935  : }

  0021f	c9		 leave
  00220	c2 08 00	 ret	 8
?CheckNamedEmoticon@ioCharEmoticon@@IAEXMM@Z ENDP	; ioCharEmoticon::CheckNamedEmoticon
_TEXT	ENDS
PUBLIC	?CheckNamedUnLimitedEmoticon@ioCharEmoticon@@IAEXMM@Z ; ioCharEmoticon::CheckNamedUnLimitedEmoticon
; Function compile flags: /Ogsp
;	COMDAT ?CheckNamedUnLimitedEmoticon@ioCharEmoticon@@IAEXMM@Z
_TEXT	SEGMENT
_iAlpha2$ = -8						; size = 1
_fOffSet$ = -4						; size = 4
_fAlphaRate$ = 8					; size = 4
_fCurSize$ = 12						; size = 4
_fScale$ = 12						; size = 4
?CheckNamedUnLimitedEmoticon@ioCharEmoticon@@IAEXMM@Z PROC ; ioCharEmoticon::CheckNamedUnLimitedEmoticon, COMDAT
; _this$ = ecx

; 938  : {

  00000	55		 push	 ebp
  00001	8b ec		 mov	 ebp, esp
  00003	51		 push	 ecx
  00004	51		 push	 ecx

; 946  : 	fOffSet -= 9.0f * (fScale / m_fEmoticonEndScale);

  00005	53		 push	 ebx
  00006	56		 push	 esi

; 947  : 
; 948  : 	g_FontMgr.SetAlignType( (TextAlignType)m_iEmoticonNameAlignType );

  00007	57		 push	 edi
  00008	8b f9		 mov	 edi, ecx

; 939  : 	BYTE iAlpha = (BYTE)(int)(127.0f * fAlphaRate);
; 940  : 	BYTE iAlpha2 = (BYTE)(int)(255.0f * fAlphaRate);

  0000a	f3 0f 10 45 08	 movss	 xmm0, DWORD PTR _fAlphaRate$[ebp]

; 941  : 	float fCurSize = 0.0f;
; 942  : 	float fOffSet = 0.0f;
; 943  : 	
; 944  : 	fCurSize = 0.66f * (fScale / m_fEmoticonEndScale);

  0000f	f3 0f 10 0d 00
	00 00 00	 movss	 xmm1, DWORD PTR ?m_fEmoticonEndScale@ioCharEmoticon@@1MA

; 945  : 	fOffSet -= 35.0f * (fScale / m_fEmoticonEndScale);

  00017	0f 57 d2	 xorps	 xmm2, xmm2
  0001a	0f 5a c0	 cvtps2pd xmm0, xmm0
  0001d	f2 0f 59 05 00
	00 00 00	 mulsd	 xmm0, QWORD PTR __real@406fe00000000000
  00025	0f 5a c9	 cvtps2pd xmm1, xmm1
  00028	f2 0f 2c c0	 cvttsd2si eax, xmm0
  0002c	f3 0f 10 45 0c	 movss	 xmm0, DWORD PTR _fScale$[ebp]
  00031	0f 5a c0	 cvtps2pd xmm0, xmm0
  00034	f2 0f 5e c1	 divsd	 xmm0, xmm1
  00038	66 0f 28 c8	 movapd	 xmm1, xmm0
  0003c	f2 0f 59 0d 00
	00 00 00	 mulsd	 xmm1, QWORD PTR __real@3fe51eb860000000
  00044	66 0f 5a c9	 cvtpd2ps xmm1, xmm1
  00048	f3 0f 11 4d 0c	 movss	 DWORD PTR _fCurSize$[ebp], xmm1
  0004d	66 0f 28 c8	 movapd	 xmm1, xmm0
  00051	f2 0f 59 0d 00
	00 00 00	 mulsd	 xmm1, QWORD PTR __real@4041800000000000

; 946  : 	fOffSet -= 9.0f * (fScale / m_fEmoticonEndScale);

  00059	f2 0f 59 05 00
	00 00 00	 mulsd	 xmm0, QWORD PTR __real@4022000000000000
  00061	f2 0f 5c d1	 subsd	 xmm2, xmm1

; 947  : 
; 948  : 	g_FontMgr.SetAlignType( (TextAlignType)m_iEmoticonNameAlignType );

  00065	8b 35 00 00 00
	00		 mov	 esi, DWORD PTR __imp_?GetSingleton@ioFontManager@@SAAAV1@XZ
  0006b	0f 57 c9	 xorps	 xmm1, xmm1
  0006e	66 0f 5a ca	 cvtpd2ps xmm1, xmm2
  00072	ff 35 00 00 00
	00		 push	 DWORD PTR ?m_iEmoticonNameAlignType@ioCharEmoticon@@1HA ; ioCharEmoticon::m_iEmoticonNameAlignType
  00078	0f 5a c9	 cvtps2pd xmm1, xmm1
  0007b	f2 0f 5c c8	 subsd	 xmm1, xmm0
  0007f	66 0f 5a c1	 cvtpd2ps xmm0, xmm1
  00083	88 45 f8	 mov	 BYTE PTR _iAlpha2$[ebp], al
  00086	f3 0f 11 45 fc	 movss	 DWORD PTR _fOffSet$[ebp], xmm0
  0008b	ff d6		 call	 esi
  0008d	8b c8		 mov	 ecx, eax
  0008f	ff 15 00 00 00
	00		 call	 DWORD PTR __imp_?SetAlignType@ioFontManager@@QAEXW4TextAlignType@@@Z

; 949  : 	g_FontMgr.SetBkColor( m_iNamedBkColor, m_iNamedBkColor, m_iNamedBkColor );

  00095	8b 87 bc 00 00
	00		 mov	 eax, DWORD PTR [edi+188]
  0009b	50		 push	 eax
  0009c	50		 push	 eax
  0009d	50		 push	 eax
  0009e	ff d6		 call	 esi
  000a0	8b c8		 mov	 ecx, eax
  000a2	ff 15 00 00 00
	00		 call	 DWORD PTR __imp_?SetBkColor@ioFontManager@@QAEXHHH@Z

; 950  : 
; 951  : 	g_FontMgr.SetTextStyle( TS_OUTLINE_FULL_2X );

  000a8	6a 05		 push	 5
  000aa	ff d6		 call	 esi
  000ac	8b 1d 00 00 00
	00		 mov	 ebx, DWORD PTR __imp_?SetTextStyle@ioFontManager@@QAEXW4TextStyle@@@Z
  000b2	8b c8		 mov	 ecx, eax
  000b4	ff d3		 call	 ebx

; 952  : 	g_FontMgr.SetTextColor( 0, 0, 0 );

  000b6	33 c0		 xor	 eax, eax
  000b8	50		 push	 eax
  000b9	50		 push	 eax
  000ba	50		 push	 eax
  000bb	ff d6		 call	 esi
  000bd	8b c8		 mov	 ecx, eax
  000bf	ff 15 00 00 00
	00		 call	 DWORD PTR __imp_?SetTextColor@ioFontManager@@QAEXHHH@Z

; 953  : 
; 954  : 	if( !m_szUnLimitedEmoticonName.IsEmpty() )

  000c5	8d 8f a4 00 00
	00		 lea	 ecx, DWORD PTR [edi+164]
  000cb	ff 15 00 00 00
	00		 call	 DWORD PTR __imp_?IsEmpty@ioHashString@@QBE_NXZ
  000d1	84 c0		 test	 al, al
  000d3	0f 85 89 00 00
	00		 jne	 $LN2@CheckNamed@2

; 955  : 		g_FontMgr.PrintTextAlpha( m_iRenderXPos + m_iEmoticonNameOffsetX, m_iRenderYPos + fOffSet + m_iEmoticonNameOffsetY, fCurSize, iAlpha, m_szUnLimitedEmoticonName.c_str() );

  000d9	8d 8f a4 00 00
	00		 lea	 ecx, DWORD PTR [edi+164]
  000df	ff 15 00 00 00
	00		 call	 DWORD PTR __imp_?c_str@ioHashString@@QBEPBDXZ
  000e5	f3 0f 10 45 08	 movss	 xmm0, DWORD PTR _fAlphaRate$[ebp]
  000ea	f3 0f 10 4d fc	 movss	 xmm1, DWORD PTR _fOffSet$[ebp]
  000ef	0f 5a c0	 cvtps2pd xmm0, xmm0
  000f2	f2 0f 59 05 00
	00 00 00	 mulsd	 xmm0, QWORD PTR __real@405fc00000000000
  000fa	50		 push	 eax
  000fb	f2 0f 2c c0	 cvttsd2si eax, xmm0
  000ff	f3 0f 10 45 0c	 movss	 xmm0, DWORD PTR _fCurSize$[ebp]
  00104	0f b6 c0	 movzx	 eax, al
  00107	50		 push	 eax
  00108	8b 47 78	 mov	 eax, DWORD PTR [edi+120]
  0010b	03 05 00 00 00
	00		 add	 eax, DWORD PTR ?m_iEmoticonNameOffsetX@ioCharEmoticon@@1HA ; ioCharEmoticon::m_iEmoticonNameOffsetX
  00111	83 ec 0c	 sub	 esp, 12			; 0000000cH
  00114	f3 0f 11 44 24
	08		 movss	 DWORD PTR [esp+8], xmm0
  0011a	66 0f 6e 47 7c	 movd	 xmm0, DWORD PTR [edi+124]
  0011f	0f 5b c0	 cvtdq2ps xmm0, xmm0
  00122	f3 0f 5a c0	 cvtss2sd xmm0, xmm0
  00126	0f 5a c9	 cvtps2pd xmm1, xmm1
  00129	f2 0f 58 c1	 addsd	 xmm0, xmm1
  0012d	66 0f 6e 0d 00
	00 00 00	 movd	 xmm1, DWORD PTR ?m_iEmoticonNameOffsetY@ioCharEmoticon@@1HA ; ioCharEmoticon::m_iEmoticonNameOffsetY
  00135	0f 5b c9	 cvtdq2ps xmm1, xmm1
  00138	f3 0f 5a c9	 cvtss2sd xmm1, xmm1
  0013c	f2 0f 58 c1	 addsd	 xmm0, xmm1
  00140	f2 0f 5a c0	 cvtsd2ss xmm0, xmm0
  00144	f3 0f 11 44 24
	04		 movss	 DWORD PTR [esp+4], xmm0
  0014a	0f 57 c0	 xorps	 xmm0, xmm0
  0014d	f3 0f 2a c0	 cvtsi2ss xmm0, eax
  00151	f3 0f 11 04 24	 movss	 DWORD PTR [esp], xmm0
  00156	ff d6		 call	 esi
  00158	50		 push	 eax
  00159	ff 15 00 00 00
	00		 call	 DWORD PTR __imp_?PrintTextAlpha@ioFontManager@@QAAXMMMEPBDZZ
  0015f	83 c4 18	 add	 esp, 24			; 00000018H
$LN2@CheckNamed@2:

; 956  : 
; 957  : 	g_FontMgr.SetTextStyle( TS_OUTLINE_FULL );

  00162	6a 04		 push	 4
  00164	ff d6		 call	 esi
  00166	8b c8		 mov	 ecx, eax
  00168	ff d3		 call	 ebx

; 958  : 	g_FontMgr.SetTextColor( m_dwUnLimitedEmoticonNameColor );

  0016a	ff b7 a0 00 00
	00		 push	 DWORD PTR [edi+160]
  00170	ff d6		 call	 esi
  00172	8b c8		 mov	 ecx, eax
  00174	ff 15 00 00 00
	00		 call	 DWORD PTR __imp_?SetTextColor@ioFontManager@@QAEXK@Z

; 959  : 
; 960  : 	if( !m_szUnLimitedEmoticonName.IsEmpty() )

  0017a	8d 8f a4 00 00
	00		 lea	 ecx, DWORD PTR [edi+164]
  00180	ff 15 00 00 00
	00		 call	 DWORD PTR __imp_?IsEmpty@ioHashString@@QBE_NXZ
  00186	84 c0		 test	 al, al
  00188	75 74		 jne	 SHORT $LN1@CheckNamed@2

; 961  : 		g_FontMgr.PrintTextAlpha( m_iRenderXPos + m_iEmoticonNameOffsetX, m_iRenderYPos + fOffSet + m_iEmoticonNameOffsetY, fCurSize, iAlpha2, m_szUnLimitedEmoticonName.c_str() );

  0018a	8d 8f a4 00 00
	00		 lea	 ecx, DWORD PTR [edi+164]
  00190	ff 15 00 00 00
	00		 call	 DWORD PTR __imp_?c_str@ioHashString@@QBEPBDXZ
  00196	f3 0f 10 45 0c	 movss	 xmm0, DWORD PTR _fCurSize$[ebp]
  0019b	f3 0f 10 4d fc	 movss	 xmm1, DWORD PTR _fOffSet$[ebp]
  001a0	50		 push	 eax
  001a1	ff 75 f8	 push	 DWORD PTR _iAlpha2$[ebp]
  001a4	8b 47 78	 mov	 eax, DWORD PTR [edi+120]
  001a7	03 05 00 00 00
	00		 add	 eax, DWORD PTR ?m_iEmoticonNameOffsetX@ioCharEmoticon@@1HA ; ioCharEmoticon::m_iEmoticonNameOffsetX
  001ad	83 ec 0c	 sub	 esp, 12			; 0000000cH
  001b0	f3 0f 11 44 24
	08		 movss	 DWORD PTR [esp+8], xmm0
  001b6	66 0f 6e 47 7c	 movd	 xmm0, DWORD PTR [edi+124]
  001bb	0f 5b c0	 cvtdq2ps xmm0, xmm0
  001be	f3 0f 5a c0	 cvtss2sd xmm0, xmm0
  001c2	0f 5a c9	 cvtps2pd xmm1, xmm1
  001c5	f2 0f 58 c1	 addsd	 xmm0, xmm1
  001c9	66 0f 6e 0d 00
	00 00 00	 movd	 xmm1, DWORD PTR ?m_iEmoticonNameOffsetY@ioCharEmoticon@@1HA ; ioCharEmoticon::m_iEmoticonNameOffsetY
  001d1	0f 5b c9	 cvtdq2ps xmm1, xmm1
  001d4	f3 0f 5a c9	 cvtss2sd xmm1, xmm1
  001d8	f2 0f 58 c1	 addsd	 xmm0, xmm1
  001dc	f2 0f 5a c0	 cvtsd2ss xmm0, xmm0
  001e0	f3 0f 11 44 24
	04		 movss	 DWORD PTR [esp+4], xmm0
  001e6	0f 57 c0	 xorps	 xmm0, xmm0
  001e9	f3 0f 2a c0	 cvtsi2ss xmm0, eax
  001ed	f3 0f 11 04 24	 movss	 DWORD PTR [esp], xmm0
  001f2	ff d6		 call	 esi
  001f4	50		 push	 eax
  001f5	ff 15 00 00 00
	00		 call	 DWORD PTR __imp_?PrintTextAlpha@ioFontManager@@QAAXMMMEPBDZZ
  001fb	83 c4 18	 add	 esp, 24			; 00000018H
$LN1@CheckNamed@2:
  001fe	5f		 pop	 edi
  001ff	5e		 pop	 esi
  00200	5b		 pop	 ebx

; 962  : }

  00201	c9		 leave
  00202	c2 08 00	 ret	 8
?CheckNamedUnLimitedEmoticon@ioCharEmoticon@@IAEXMM@Z ENDP ; ioCharEmoticon::CheckNamedUnLimitedEmoticon
_TEXT	ENDS
PUBLIC	?GetEmoticonRenderRect@ioCharEmoticon@@QBE?AUtagRECT@@XZ ; ioCharEmoticon::GetEmoticonRenderRect
EXTRN	__imp_?GetOffsetY@ioUIRenderImage@@QBEHXZ:PROC
EXTRN	__imp_?GetOffsetX@ioUIRenderImage@@QBEHXZ:PROC
EXTRN	__imp_?GetSize@ioUIRenderElement@@QBE?AUD3DXVECTOR2@@XZ:PROC
EXTRN	__imp__SetRect@20:PROC
; Function compile flags: /Ogsp
;	COMDAT ?GetEmoticonRenderRect@ioCharEmoticon@@QBE?AUtagRECT@@XZ
_TEXT	SEGMENT
_vSize$ = -8						; size = 8
___$ReturnUdt$ = 8					; size = 4
?GetEmoticonRenderRect@ioCharEmoticon@@QBE?AUtagRECT@@XZ PROC ; ioCharEmoticon::GetEmoticonRenderRect, COMDAT
; _this$ = ecx

; 1099 : {

  00000	55		 push	 ebp
  00001	8b ec		 mov	 ebp, esp
  00003	51		 push	 ecx
  00004	51		 push	 ecx
  00005	56		 push	 esi
  00006	8b f1		 mov	 esi, ecx

; 1100 : 	RECT rcRect;
; 1101 : 	
; 1102 : 	if( !m_pEmoticon )

  00008	8b 0e		 mov	 ecx, DWORD PTR [esi]
  0000a	85 c9		 test	 ecx, ecx
  0000c	75 24		 jne	 SHORT $LN1@GetEmotico

; 1103 : 	{
; 1104 : 		SetRect( &rcRect, m_iRenderXPos - 20,
; 1105 : 						  m_iRenderYPos - 20,
; 1106 : 						  m_iRenderXPos + 20,
; 1107 : 						  m_iRenderYPos + 20 );

  0000e	8b 46 7c	 mov	 eax, DWORD PTR [esi+124]
  00011	8b 76 78	 mov	 esi, DWORD PTR [esi+120]
  00014	8d 48 14	 lea	 ecx, DWORD PTR [eax+20]
  00017	51		 push	 ecx
  00018	8d 4e 14	 lea	 ecx, DWORD PTR [esi+20]
  0001b	51		 push	 ecx
  0001c	83 c0 ec	 add	 eax, -20		; ffffffecH
  0001f	50		 push	 eax
  00020	83 c6 ec	 add	 esi, -20		; ffffffecH
  00023	56		 push	 esi
  00024	ff 75 08	 push	 DWORD PTR ___$ReturnUdt$[ebp]
  00027	ff 15 00 00 00
	00		 call	 DWORD PTR __imp__SetRect@20

; 1108 : 
; 1109 : 		return rcRect;

  0002d	8b 45 08	 mov	 eax, DWORD PTR ___$ReturnUdt$[ebp]
  00030	eb 44		 jmp	 SHORT $LN2@GetEmotico
$LN1@GetEmotico:
  00032	57		 push	 edi

; 1110 : 	}
; 1111 : 
; 1112 : 	D3DXVECTOR2 vSize = m_pEmoticon->GetSize();

  00033	8d 45 f8	 lea	 eax, DWORD PTR _vSize$[ebp]
  00036	50		 push	 eax
  00037	ff 15 00 00 00
	00		 call	 DWORD PTR __imp_?GetSize@ioUIRenderElement@@QBE?AUD3DXVECTOR2@@XZ

; 1113 : 	rcRect.left = m_iRenderXPos - (int)m_pEmoticon->GetOffsetX();

  0003d	8b 0e		 mov	 ecx, DWORD PTR [esi]
  0003f	ff 15 00 00 00
	00		 call	 DWORD PTR __imp_?GetOffsetX@ioUIRenderImage@@QBEHXZ
  00045	8b 4e 78	 mov	 ecx, DWORD PTR [esi+120]
  00048	8b 7d 08	 mov	 edi, DWORD PTR ___$ReturnUdt$[ebp]
  0004b	2b c8		 sub	 ecx, eax
  0004d	89 0f		 mov	 DWORD PTR [edi], ecx

; 1114 : 	rcRect.top  = m_iRenderYPos - (int)m_pEmoticon->GetOffsetY();

  0004f	8b 0e		 mov	 ecx, DWORD PTR [esi]
  00051	ff 15 00 00 00
	00		 call	 DWORD PTR __imp_?GetOffsetY@ioUIRenderImage@@QBEHXZ
  00057	8b 4e 7c	 mov	 ecx, DWORD PTR [esi+124]
  0005a	2b c8		 sub	 ecx, eax

; 1115 : 	rcRect.right = rcRect.left + (int)vSize.x;

  0005c	f3 0f 2c 45 f8	 cvttss2si eax, DWORD PTR _vSize$[ebp]
  00061	03 07		 add	 eax, DWORD PTR [edi]
  00063	89 4f 04	 mov	 DWORD PTR [edi+4], ecx
  00066	89 47 08	 mov	 DWORD PTR [edi+8], eax

; 1116 : 	rcRect.bottom = rcRect.top + (int)vSize.y;

  00069	f3 0f 2c 45 fc	 cvttss2si eax, DWORD PTR _vSize$[ebp+4]
  0006e	03 c1		 add	 eax, ecx
  00070	89 47 0c	 mov	 DWORD PTR [edi+12], eax

; 1117 : 
; 1118 : 	return rcRect;

  00073	8b c7		 mov	 eax, edi
  00075	5f		 pop	 edi
$LN2@GetEmotico:
  00076	5e		 pop	 esi

; 1119 : }

  00077	c9		 leave
  00078	c2 04 00	 ret	 4
?GetEmoticonRenderRect@ioCharEmoticon@@QBE?AUtagRECT@@XZ ENDP ; ioCharEmoticon::GetEmoticonRenderRect
_TEXT	ENDS
PUBLIC	__mask@@AbsDouble@
PUBLIC	__real@00000000
PUBLIC	__mask@@NegFloat@
PUBLIC	__real@3f800000
PUBLIC	__real@42080000
PUBLIC	__real@42000000
PUBLIC	_iYPos$GSCopy$
PUBLIC	_vPos$GSCopy$
PUBLIC	_iXPos$GSCopy$
PUBLIC	__$ArrayPad$
PUBLIC	?CheckOutScreen@ioCharEmoticon@@IAEXABUD3DXVECTOR3@@0AAH1M_N@Z ; ioCharEmoticon::CheckOutScreen
EXTRN	?Convert3DTo2D@Setting@@SA?AUD3DXVECTOR3@@ABU2@@Z:PROC ; Setting::Convert3DTo2D
EXTRN	?Height@Setting@@SAHXZ:PROC			; Setting::Height
EXTRN	?Width@Setting@@SAHXZ:PROC			; Setting::Width
EXTRN	___security_cookie:DWORD
;	COMDAT __mask@@AbsDouble@
; File c:\program files (x86)\microsoft visual studio 10.0\vc\include\math.h
CONST	SEGMENT
__mask@@AbsDouble@ DB 0ffH, 0ffH, 0ffH, 0ffH, 0ffH, 0ffH, 0ffH, 07fH, 0ffH
	DB	0ffH, 0ffH, 0ffH, 0ffH, 0ffH, 0ffH, 07fH
CONST	ENDS
;	COMDAT __real@00000000
CONST	SEGMENT
__real@00000000 DD 000000000r			; 0
CONST	ENDS
;	COMDAT __mask@@NegFloat@
CONST	SEGMENT
__mask@@NegFloat@ DB 00H, 00H, 00H, 080H, 00H, 00H, 00H, 080H, 00H, 00H, 00H
	DB	080H, 00H, 00H, 00H, 080H
CONST	ENDS
;	COMDAT __real@3f800000
CONST	SEGMENT
__real@3f800000 DD 03f800000r			; 1
CONST	ENDS
;	COMDAT __real@42080000
CONST	SEGMENT
__real@42080000 DD 042080000r			; 34
CONST	ENDS
;	COMDAT __real@42000000
CONST	SEGMENT
__real@42000000 DD 042000000r			; 32
; Function compile flags: /Ogsp
; File d:\lost saga for developer\youtube\tutorial\source\src\lsclient\iocharemoticon.cpp
CONST	ENDS
;	COMDAT ?CheckOutScreen@ioCharEmoticon@@IAEXABUD3DXVECTOR3@@0AAH1M_N@Z
_TEXT	SEGMENT
tv554 = -68						; size = 8
tv543 = -68						; size = 8
tv552 = -60						; size = 8
tv548 = -60						; size = 8
tv545 = -60						; size = 8
tv559 = -52						; size = 8
tv550 = -52						; size = 8
tv567 = -48						; size = 4
_vPos$GSCopy$ = -48					; size = 4
tv540 = -44						; size = 8
tv583 = -40						; size = 4
_iCurYPos$ = -40					; size = 4
_iEmoticonWidth$ = -36					; size = 4
_iEmoticonHeight$ = -32					; size = 4
_iXPos$GSCopy$ = -28					; size = 4
_iYPos$GSCopy$ = -24					; size = 4
_bRePosition$ = -18					; size = 1
_bAxisX$ = -17						; size = 1
_v2DPos$525780 = -16					; size = 12
__$ArrayPad$ = -4					; size = 4
_vPos$ = 8						; size = 4
_vCamTargetPos$ = 12					; size = 4
_iXPos$ = 16						; size = 4
_iYPos$ = 20						; size = 4
_fScale$ = 24						; size = 4
_bVisible$ = 28						; size = 1
?CheckOutScreen@ioCharEmoticon@@IAEXABUD3DXVECTOR3@@0AAH1M_N@Z PROC ; ioCharEmoticon::CheckOutScreen, COMDAT
; _this$ = ecx

; 1127 : {

  00000	55		 push	 ebp
  00001	8b ec		 mov	 ebp, esp
  00003	83 ec 44	 sub	 esp, 68			; 00000044H
  00006	a1 00 00 00 00	 mov	 eax, DWORD PTR ___security_cookie
  0000b	33 c5		 xor	 eax, ebp
  0000d	89 45 fc	 mov	 DWORD PTR __$ArrayPad$[ebp], eax
  00010	8b 45 10	 mov	 eax, DWORD PTR _iXPos$[ebp]
  00013	53		 push	 ebx
  00014	8b 5d 08	 mov	 ebx, DWORD PTR _vPos$[ebp]

; 1128 : 	int iCenterX = Setting::Width() / 2;
; 1129 : 	int iCenterY = Setting::Height() / 2;
; 1130 : 
; 1131 : 	int iEmoticonWidth = 65;
; 1132 : 	int iEmoticonHeight = 68;
; 1133 : 
; 1134 : 	int iCurXPos, iCurYPos;
; 1135 : 	iCurXPos = iXPos;
; 1136 : 	iCurYPos = iYPos;
; 1137 : 
; 1138 : 	iEmoticonWidth /= 2;
; 1139 : 	iEmoticonHeight /= 2;
; 1140 : 	iEmoticonWidth *= fScale;

  00017	89 45 e4	 mov	 DWORD PTR _iXPos$GSCopy$[ebp], eax
  0001a	8b 45 14	 mov	 eax, DWORD PTR _iYPos$[ebp]
  0001d	56		 push	 esi
  0001e	57		 push	 edi
  0001f	89 5d d0	 mov	 DWORD PTR _vPos$GSCopy$[ebp], ebx
  00022	89 45 e8	 mov	 DWORD PTR _iYPos$GSCopy$[ebp], eax
  00025	e8 00 00 00 00	 call	 ?Width@Setting@@SAHXZ	; Setting::Width
  0002a	99		 cdq
  0002b	2b c2		 sub	 eax, edx
  0002d	8b f0		 mov	 esi, eax
  0002f	d1 fe		 sar	 esi, 1
  00031	e8 00 00 00 00	 call	 ?Height@Setting@@SAHXZ	; Setting::Height
  00036	f3 0f 10 45 18	 movss	 xmm0, DWORD PTR _fScale$[ebp]
  0003b	99		 cdq
  0003c	2b c2		 sub	 eax, edx

; 1141 : 	iEmoticonHeight *= fScale;
; 1142 : 
; 1143 : 	int iXGap = (int)(vCamTargetPos.x - vPos.x);
; 1144 : 	int iZGap = (int)(vPos.z - vCamTargetPos.z);
; 1145 : 
; 1146 : 	iCurXPos = iCenterX - iXGap;
; 1147 : 	iCurYPos = iCenterY - iZGap;
; 1148 : 
; 1149 : 	iXPos = iCurXPos;
; 1150 : 	iYPos = iCurYPos;

  0003e	8b 55 e8	 mov	 edx, DWORD PTR _iYPos$GSCopy$[ebp]
  00041	0f 28 c8	 movaps	 xmm1, xmm0
  00044	f3 0f 59 0d 00
	00 00 00	 mulss	 xmm1, DWORD PTR __real@42000000
  0004c	f3 0f 59 05 00
	00 00 00	 mulss	 xmm0, DWORD PTR __real@42080000
  00054	8b f8		 mov	 edi, eax
  00056	f3 0f 2c c1	 cvttss2si eax, xmm1
  0005a	f3 0f 10 0b	 movss	 xmm1, DWORD PTR [ebx]
  0005e	89 45 dc	 mov	 DWORD PTR _iEmoticonWidth$[ebp], eax
  00061	f3 0f 2c c0	 cvttss2si eax, xmm0
  00065	89 45 e0	 mov	 DWORD PTR _iEmoticonHeight$[ebp], eax
  00068	8b 45 0c	 mov	 eax, DWORD PTR _vCamTargetPos$[ebp]
  0006b	f3 0f 10 00	 movss	 xmm0, DWORD PTR [eax]
  0006f	0f 5a c0	 cvtps2pd xmm0, xmm0
  00072	0f 5a c9	 cvtps2pd xmm1, xmm1
  00075	f2 0f 5c c1	 subsd	 xmm0, xmm1
  00079	f3 0f 10 48 08	 movss	 xmm1, DWORD PTR [eax+8]
  0007e	f2 0f 2c c8	 cvttsd2si ecx, xmm0
  00082	8b de		 mov	 ebx, esi
  00084	2b d9		 sub	 ebx, ecx
  00086	8b 4d d0	 mov	 ecx, DWORD PTR _vPos$GSCopy$[ebp]
  00089	f3 0f 10 41 08	 movss	 xmm0, DWORD PTR [ecx+8]
  0008e	d1 ff		 sar	 edi, 1
  00090	0f 5a c0	 cvtps2pd xmm0, xmm0
  00093	0f 5a c9	 cvtps2pd xmm1, xmm1
  00096	f2 0f 5c c1	 subsd	 xmm0, xmm1
  0009a	f2 0f 2c c8	 cvttsd2si ecx, xmm0
  0009e	8b c7		 mov	 eax, edi
  000a0	2b c1		 sub	 eax, ecx

; 1151 : 
; 1152 : 	bool bAxisX = false;
; 1153 : 	if( !bVisible )

  000a2	80 7d 1c 00	 cmp	 BYTE PTR _bVisible$[ebp], 0
  000a6	8b 4d e4	 mov	 ecx, DWORD PTR _iXPos$GSCopy$[ebp]
  000a9	89 19		 mov	 DWORD PTR [ecx], ebx
  000ab	89 45 d8	 mov	 DWORD PTR _iCurYPos$[ebp], eax
  000ae	89 02		 mov	 DWORD PTR [edx], eax
  000b0	c6 45 ef 00	 mov	 BYTE PTR _bAxisX$[ebp], 0
  000b4	0f 85 07 02 00
	00		 jne	 $LN26@CheckOutSc

; 1154 : 	{
; 1155 : 		D3DXVECTOR3 v2DPos = Setting::Convert3DTo2D( vPos );

  000ba	ff 75 d0	 push	 DWORD PTR _vPos$GSCopy$[ebp]
  000bd	8d 45 f0	 lea	 eax, DWORD PTR _v2DPos$525780[ebp]
  000c0	50		 push	 eax
  000c1	e8 00 00 00 00	 call	 ?Convert3DTo2D@Setting@@SA?AUD3DXVECTOR3@@ABU2@@Z ; Setting::Convert3DTo2D

; 1156 : 		if( v2DPos.z > 1 )

  000c6	f3 0f 10 45 f8	 movss	 xmm0, DWORD PTR _v2DPos$525780[ebp+8]
  000cb	0f 2f 05 00 00
	00 00		 comiss	 xmm0, DWORD PTR __real@3f800000
  000d2	59		 pop	 ecx
  000d3	59		 pop	 ecx
  000d4	0f 86 d0 00 00
	00		 jbe	 $LN52@CheckOutSc

; 1157 : 		{
; 1158 : 			v2DPos.x = -v2DPos.x;
; 1159 : 			v2DPos.y = fabs( v2DPos.y );

  000da	f3 0f 10 4d f4	 movss	 xmm1, DWORD PTR _v2DPos$525780[ebp+4]
  000df	f3 0f 10 45 f0	 movss	 xmm0, DWORD PTR _v2DPos$525780[ebp]
  000e4	0f 57 05 00 00
	00 00		 xorps	 xmm0, DWORD PTR __mask@@NegFloat@

; 1160 : 
; 1161 : 			if( COMPARE( v2DPos.x, 0.0f, Setting::Width() ) )

  000eb	0f 2f 05 00 00
	00 00		 comiss	 xmm0, DWORD PTR __real@00000000
  000f2	f2 0f 10 15 00
	00 00 00	 movsd	 xmm2, QWORD PTR __mask@@AbsDouble@
  000fa	0f 5a c9	 cvtps2pd xmm1, xmm1
  000fd	66 0f 54 ca	 andpd	 xmm1, xmm2
  00101	f2 0f 5a c9	 cvtsd2ss xmm1, xmm1
  00105	f3 0f 11 45 f0	 movss	 DWORD PTR _v2DPos$525780[ebp], xmm0
  0010a	f3 0f 11 4d f4	 movss	 DWORD PTR _v2DPos$525780[ebp+4], xmm1
  0010f	72 49		 jb	 SHORT $LN24@CheckOutSc
  00111	0f 5a c0	 cvtps2pd xmm0, xmm0
  00114	f2 0f 11 45 cc	 movsd	 QWORD PTR tv550[ebp], xmm0
  00119	e8 00 00 00 00	 call	 ?Width@Setting@@SAHXZ	; Setting::Width
  0011e	0f 57 c0	 xorps	 xmm0, xmm0
  00121	f3 0f 2a c0	 cvtsi2ss xmm0, eax
  00125	0f 5a c0	 cvtps2pd xmm0, xmm0
  00128	66 0f 2f 45 cc	 comisd	 xmm0, QWORD PTR tv550[ebp]
  0012d	76 26		 jbe	 SHORT $LN50@CheckOutSc

; 1162 : 				v2DPos.x += Setting::Width();

  0012f	e8 00 00 00 00	 call	 ?Width@Setting@@SAHXZ	; Setting::Width
  00134	f3 0f 10 4d f0	 movss	 xmm1, DWORD PTR _v2DPos$525780[ebp]
  00139	0f 57 c0	 xorps	 xmm0, xmm0
  0013c	f3 0f 2a c0	 cvtsi2ss xmm0, eax
  00140	0f 5a c0	 cvtps2pd xmm0, xmm0
  00143	0f 5a c9	 cvtps2pd xmm1, xmm1
  00146	f2 0f 58 c1	 addsd	 xmm0, xmm1
  0014a	66 0f 5a c0	 cvtpd2ps xmm0, xmm0
  0014e	f3 0f 11 45 f0	 movss	 DWORD PTR _v2DPos$525780[ebp], xmm0
  00153	eb 05		 jmp	 SHORT $LN24@CheckOutSc
$LN50@CheckOutSc:
  00155	f3 0f 10 45 f0	 movss	 xmm0, DWORD PTR _v2DPos$525780[ebp]
$LN24@CheckOutSc:

; 1163 : 
; 1164 : 			if( COMPARE( v2DPos.y, 0.0f, Setting::Height() ) )

  0015a	f3 0f 10 4d f4	 movss	 xmm1, DWORD PTR _v2DPos$525780[ebp+4]
  0015f	0f 2f 0d 00 00
	00 00		 comiss	 xmm1, DWORD PTR __real@00000000
  00166	72 47		 jb	 SHORT $LN23@CheckOutSc
  00168	0f 5a c1	 cvtps2pd xmm0, xmm1
  0016b	f2 0f 11 45 cc	 movsd	 QWORD PTR tv559[ebp], xmm0
  00170	e8 00 00 00 00	 call	 ?Height@Setting@@SAHXZ	; Setting::Height
  00175	0f 57 c0	 xorps	 xmm0, xmm0
  00178	f3 0f 2a c0	 cvtsi2ss xmm0, eax
  0017c	0f 5a c0	 cvtps2pd xmm0, xmm0
  0017f	66 0f 2f 45 cc	 comisd	 xmm0, QWORD PTR tv559[ebp]
  00184	76 24		 jbe	 SHORT $LN52@CheckOutSc

; 1165 : 				v2DPos.y += Setting::Height();

  00186	e8 00 00 00 00	 call	 ?Height@Setting@@SAHXZ	; Setting::Height
  0018b	f3 0f 10 4d f4	 movss	 xmm1, DWORD PTR _v2DPos$525780[ebp+4]
  00190	0f 57 c0	 xorps	 xmm0, xmm0
  00193	f3 0f 2a c0	 cvtsi2ss xmm0, eax
  00197	0f 5a c0	 cvtps2pd xmm0, xmm0
  0019a	0f 5a c9	 cvtps2pd xmm1, xmm1
  0019d	f2 0f 58 c1	 addsd	 xmm0, xmm1
  001a1	66 0f 5a c0	 cvtpd2ps xmm0, xmm0
  001a5	f3 0f 11 45 f4	 movss	 DWORD PTR _v2DPos$525780[ebp+4], xmm0
$LN52@CheckOutSc:
  001aa	f3 0f 10 45 f0	 movss	 xmm0, DWORD PTR _v2DPos$525780[ebp]
$LN23@CheckOutSc:

; 1166 : 		}
; 1167 : 
; 1168 : 		float fXRate = fabs( (float)(iCenterX - v2DPos.x) ) / (float)Setting::Width();

  001af	f3 0f 5a c0	 cvtss2sd xmm0, xmm0
  001b3	0f 57 c9	 xorps	 xmm1, xmm1
  001b6	f3 0f 2a ce	 cvtsi2ss xmm1, esi
  001ba	f3 0f 11 4d d0	 movss	 DWORD PTR tv567[ebp], xmm1
  001bf	0f 5a c9	 cvtps2pd xmm1, xmm1
  001c2	f2 0f 5c c8	 subsd	 xmm1, xmm0
  001c6	0f 57 c0	 xorps	 xmm0, xmm0
  001c9	66 0f 5a c1	 cvtpd2ps xmm0, xmm1
  001cd	0f 5a c0	 cvtps2pd xmm0, xmm0
  001d0	66 0f 54 05 00
	00 00 00	 andpd	 xmm0, QWORD PTR __mask@@AbsDouble@
  001d8	f2 0f 5a c0	 cvtsd2ss xmm0, xmm0
  001dc	f3 0f 5a c0	 cvtss2sd xmm0, xmm0
  001e0	f2 0f 11 45 d4	 movsd	 QWORD PTR tv540[ebp], xmm0
  001e5	e8 00 00 00 00	 call	 ?Width@Setting@@SAHXZ	; Setting::Width
  001ea	f2 0f 10 4d d4	 movsd	 xmm1, QWORD PTR tv540[ebp]

; 1169 : 		float fYRate = fabs( (float)(iCenterY - v2DPos.y) ) / (float)Setting::Height();

  001ef	f3 0f 10 55 f4	 movss	 xmm2, DWORD PTR _v2DPos$525780[ebp+4]
  001f4	0f 57 c0	 xorps	 xmm0, xmm0
  001f7	f3 0f 2a c0	 cvtsi2ss xmm0, eax
  001fb	0f 5a c0	 cvtps2pd xmm0, xmm0
  001fe	f2 0f 5e c8	 divsd	 xmm1, xmm0
  00202	0f 57 c0	 xorps	 xmm0, xmm0
  00205	66 0f 5a c1	 cvtpd2ps xmm0, xmm1
  00209	0f 57 c9	 xorps	 xmm1, xmm1
  0020c	f3 0f 2a cf	 cvtsi2ss xmm1, edi
  00210	f3 0f 11 4d d8	 movss	 DWORD PTR tv583[ebp], xmm1
  00215	0f 5a c9	 cvtps2pd xmm1, xmm1
  00218	0f 5a d2	 cvtps2pd xmm2, xmm2
  0021b	f2 0f 5c ca	 subsd	 xmm1, xmm2
  0021f	66 0f 5a c9	 cvtpd2ps xmm1, xmm1

; 1170 : 
; 1171 : 		if( fXRate >= fYRate )

  00223	0f 5a c0	 cvtps2pd xmm0, xmm0
  00226	f3 0f 5a c9	 cvtss2sd xmm1, xmm1
  0022a	66 0f 54 0d 00
	00 00 00	 andpd	 xmm1, QWORD PTR __mask@@AbsDouble@
  00232	f2 0f 11 45 c4	 movsd	 QWORD PTR tv545[ebp], xmm0
  00237	f2 0f 5a c9	 cvtsd2ss xmm1, xmm1
  0023b	0f 57 c0	 xorps	 xmm0, xmm0
  0023e	f3 0f 5a c1	 cvtss2sd xmm0, xmm1
  00242	f2 0f 11 45 bc	 movsd	 QWORD PTR tv543[ebp], xmm0
  00247	e8 00 00 00 00	 call	 ?Height@Setting@@SAHXZ	; Setting::Height
  0024c	f2 0f 10 4d bc	 movsd	 xmm1, QWORD PTR tv543[ebp]
  00251	0f 57 c0	 xorps	 xmm0, xmm0
  00254	f3 0f 2a c0	 cvtsi2ss xmm0, eax
  00258	0f 5a c0	 cvtps2pd xmm0, xmm0
  0025b	f2 0f 5e c8	 divsd	 xmm1, xmm0
  0025f	0f 57 c0	 xorps	 xmm0, xmm0
  00262	66 0f 5a c1	 cvtpd2ps xmm0, xmm1
  00266	f2 0f 10 4d c4	 movsd	 xmm1, QWORD PTR tv545[ebp]
  0026b	0f 5a c0	 cvtps2pd xmm0, xmm0
  0026e	66 0f 2f c8	 comisd	 xmm1, xmm0
  00272	72 2b		 jb	 SHORT $LN21@CheckOutSc

; 1172 : 			bAxisX = true;
; 1173 : 
; 1174 : 		if( bAxisX )
; 1175 : 		{
; 1176 : 			if( v2DPos.x < iCenterX )

  00274	f3 0f 10 45 f0	 movss	 xmm0, DWORD PTR _v2DPos$525780[ebp]
  00279	f3 0f 10 4d d0	 movss	 xmm1, DWORD PTR tv567[ebp]
  0027e	0f 5a c0	 cvtps2pd xmm0, xmm0
  00281	0f 5a c9	 cvtps2pd xmm1, xmm1
  00284	66 0f 2f c8	 comisd	 xmm1, xmm0
  00288	76 0b		 jbe	 SHORT $LN20@CheckOutSc

; 1177 : 				iXPos = iEmoticonWidth;

  0028a	8b 45 dc	 mov	 eax, DWORD PTR _iEmoticonWidth$[ebp]
$LN58@CheckOutSc:
  0028d	8b 4d e4	 mov	 ecx, DWORD PTR _iXPos$GSCopy$[ebp]

; 1178 : 			else

  00290	e9 61 01 00 00	 jmp	 $LN55@CheckOutSc
$LN20@CheckOutSc:

; 1179 : 				iXPos = Setting::Width() - iEmoticonWidth;

  00295	e8 00 00 00 00	 call	 ?Width@Setting@@SAHXZ	; Setting::Width
  0029a	2b 45 dc	 sub	 eax, DWORD PTR _iEmoticonWidth$[ebp]

; 1180 : 		}
; 1181 : 		else

  0029d	eb ee		 jmp	 SHORT $LN58@CheckOutSc
$LN21@CheckOutSc:

; 1182 : 		{
; 1183 : 			if( v2DPos.y < iCenterY )

  0029f	f3 0f 10 45 f4	 movss	 xmm0, DWORD PTR _v2DPos$525780[ebp+4]
  002a4	f3 0f 10 4d d8	 movss	 xmm1, DWORD PTR tv583[ebp]
  002a9	0f 5a c0	 cvtps2pd xmm0, xmm0
  002ac	0f 5a c9	 cvtps2pd xmm1, xmm1
  002af	66 0f 2f c8	 comisd	 xmm1, xmm0
  002b3	0f 86 2d 01 00
	00		 jbe	 $LN6@CheckOutSc

; 1184 : 			{
; 1185 : 				iYPos = iEmoticonHeight;

  002b9	8b 45 e0	 mov	 eax, DWORD PTR _iEmoticonHeight$[ebp]

; 1186 : 			}
; 1187 : 			else

  002bc	e9 32 01 00 00	 jmp	 $LN56@CheckOutSc
$LN26@CheckOutSc:

; 1188 : 			{
; 1189 : 				iYPos = Setting::Height() - iEmoticonHeight;
; 1190 : 				iYPos -= 32;
; 1191 : 			}
; 1192 : 		}
; 1193 : 
; 1194 : 		return;
; 1195 : 	}
; 1196 : 
; 1197 : 	bool bRePosition = true;

  002c1	c6 45 ee 01	 mov	 BYTE PTR _bRePosition$[ebp], 1

; 1198 : 	if( COMPARE( iCurXPos, 0, Setting::Width() ) &&
; 1199 : 		COMPARE( iCurYPos, 0, Setting::Height() ) )

  002c5	85 db		 test	 ebx, ebx
  002c7	0f 88 e6 00 00
	00		 js	 $LN49@CheckOutSc
  002cd	e8 00 00 00 00	 call	 ?Width@Setting@@SAHXZ	; Setting::Width
  002d2	3b d8		 cmp	 ebx, eax
  002d4	0f 8d b7 00 00
	00		 jge	 $LN13@CheckOutSc
  002da	83 7d d8 00	 cmp	 DWORD PTR _iCurYPos$[ebp], 0
  002de	0f 8c ad 00 00
	00		 jl	 $LN13@CheckOutSc
  002e4	e8 00 00 00 00	 call	 ?Height@Setting@@SAHXZ	; Setting::Height
  002e9	39 45 d8	 cmp	 DWORD PTR _iCurYPos$[ebp], eax
  002ec	0f 8d 9f 00 00
	00		 jge	 $LN13@CheckOutSc

; 1200 : 	{
; 1201 : 		bRePosition = false;
; 1202 : 		float fXRate = fabs( (float)(iCenterX - iCurXPos) ) / (float)Setting::Width();

  002f2	0f 57 c0	 xorps	 xmm0, xmm0
  002f5	2b f3		 sub	 esi, ebx
  002f7	f3 0f 2a c6	 cvtsi2ss xmm0, esi
  002fb	0f 5a c0	 cvtps2pd xmm0, xmm0
  002fe	66 0f 54 05 00
	00 00 00	 andpd	 xmm0, QWORD PTR __mask@@AbsDouble@
  00306	f2 0f 5a c0	 cvtsd2ss xmm0, xmm0
  0030a	f3 0f 5a c0	 cvtss2sd xmm0, xmm0
  0030e	c6 45 ee 00	 mov	 BYTE PTR _bRePosition$[ebp], 0
  00312	f2 0f 11 45 c4	 movsd	 QWORD PTR tv548[ebp], xmm0
  00317	e8 00 00 00 00	 call	 ?Width@Setting@@SAHXZ	; Setting::Width
  0031c	f2 0f 10 4d c4	 movsd	 xmm1, QWORD PTR tv548[ebp]

; 1203 : 		float fYRate = fabs( (float)(iCenterY - iCurYPos) ) / (float)Setting::Height();

  00321	2b 7d d8	 sub	 edi, DWORD PTR _iCurYPos$[ebp]
  00324	0f 57 c0	 xorps	 xmm0, xmm0
  00327	f3 0f 2a c0	 cvtsi2ss xmm0, eax
  0032b	0f 5a c0	 cvtps2pd xmm0, xmm0
  0032e	f2 0f 5e c8	 divsd	 xmm1, xmm0
  00332	0f 57 c0	 xorps	 xmm0, xmm0
  00335	66 0f 5a c1	 cvtpd2ps xmm0, xmm1

; 1204 : 
; 1205 : 		if( fXRate >= fYRate )

  00339	0f 5a c0	 cvtps2pd xmm0, xmm0
  0033c	f2 0f 11 45 bc	 movsd	 QWORD PTR tv554[ebp], xmm0
  00341	0f 57 c0	 xorps	 xmm0, xmm0
  00344	f3 0f 2a c7	 cvtsi2ss xmm0, edi
  00348	0f 5a c0	 cvtps2pd xmm0, xmm0
  0034b	66 0f 54 05 00
	00 00 00	 andpd	 xmm0, QWORD PTR __mask@@AbsDouble@
  00353	f2 0f 5a c0	 cvtsd2ss xmm0, xmm0
  00357	f3 0f 5a c0	 cvtss2sd xmm0, xmm0
  0035b	f2 0f 11 45 c4	 movsd	 QWORD PTR tv552[ebp], xmm0
  00360	e8 00 00 00 00	 call	 ?Height@Setting@@SAHXZ	; Setting::Height
  00365	f2 0f 10 4d c4	 movsd	 xmm1, QWORD PTR tv552[ebp]
  0036a	0f 57 c0	 xorps	 xmm0, xmm0
  0036d	f3 0f 2a c0	 cvtsi2ss xmm0, eax
  00371	0f 5a c0	 cvtps2pd xmm0, xmm0
  00374	f2 0f 5e c8	 divsd	 xmm1, xmm0
  00378	0f 57 c0	 xorps	 xmm0, xmm0
  0037b	66 0f 5a c1	 cvtpd2ps xmm0, xmm1
  0037f	f2 0f 10 4d bc	 movsd	 xmm1, QWORD PTR tv554[ebp]
  00384	0f 5a c0	 cvtps2pd xmm0, xmm0
  00387	66 0f 2f c8	 comisd	 xmm1, xmm0
  0038b	72 04		 jb	 SHORT $LN13@CheckOutSc

; 1206 : 			bAxisX = true;

  0038d	c6 45 ef 01	 mov	 BYTE PTR _bAxisX$[ebp], 1
$LN13@CheckOutSc:

; 1212 : 	}
; 1213 : 	else if( iCurXPos > Setting::Width() )

  00391	e8 00 00 00 00	 call	 ?Width@Setting@@SAHXZ	; Setting::Width
  00396	3b d8		 cmp	 ebx, eax
  00398	7e 0d		 jle	 SHORT $LN53@CheckOutSc

; 1214 : 	{
; 1215 : 		iXPos = Setting::Width() - iEmoticonWidth;

  0039a	e8 00 00 00 00	 call	 ?Width@Setting@@SAHXZ	; Setting::Width
  0039f	2b 45 dc	 sub	 eax, DWORD PTR _iEmoticonWidth$[ebp]
  003a2	8b 4d e4	 mov	 ecx, DWORD PTR _iXPos$GSCopy$[ebp]
  003a5	89 01		 mov	 DWORD PTR [ecx], eax
$LN53@CheckOutSc:
  003a7	8b 45 d8	 mov	 eax, DWORD PTR _iCurYPos$[ebp]
$LN11@CheckOutSc:

; 1216 : 	}
; 1217 : 
; 1218 : 	if( iCurYPos < 0 )

  003aa	85 c0		 test	 eax, eax
  003ac	79 0c		 jns	 SHORT $LN10@CheckOutSc

; 1219 : 	{
; 1220 : 		iYPos = iEmoticonHeight;

  003ae	8b 45 e0	 mov	 eax, DWORD PTR _iEmoticonHeight$[ebp]
  003b1	eb 1e		 jmp	 SHORT $LN57@CheckOutSc
$LN49@CheckOutSc:

; 1207 : 	}
; 1208 : 
; 1209 : 	if( iCurXPos < 0 )
; 1210 : 	{
; 1211 : 		iXPos = iEmoticonWidth;

  003b3	8b 55 dc	 mov	 edx, DWORD PTR _iEmoticonWidth$[ebp]
  003b6	89 11		 mov	 DWORD PTR [ecx], edx
  003b8	eb f0		 jmp	 SHORT $LN11@CheckOutSc
$LN10@CheckOutSc:

; 1221 : 	}
; 1222 : 	else if( iCurYPos > Setting::Height() )

  003ba	e8 00 00 00 00	 call	 ?Height@Setting@@SAHXZ	; Setting::Height
  003bf	39 45 d8	 cmp	 DWORD PTR _iCurYPos$[ebp], eax
  003c2	7e 12		 jle	 SHORT $LN54@CheckOutSc

; 1223 : 	{
; 1224 : 		iYPos = Setting::Height() - iEmoticonHeight;

  003c4	e8 00 00 00 00	 call	 ?Height@Setting@@SAHXZ	; Setting::Height

; 1225 : 		iYPos -= 32;

  003c9	6a e0		 push	 -32			; ffffffe0H
  003cb	59		 pop	 ecx
  003cc	2b 4d e0	 sub	 ecx, DWORD PTR _iEmoticonHeight$[ebp]
  003cf	03 c1		 add	 eax, ecx
$LN57@CheckOutSc:
  003d1	8b 4d e8	 mov	 ecx, DWORD PTR _iYPos$GSCopy$[ebp]
  003d4	89 01		 mov	 DWORD PTR [ecx], eax
$LN54@CheckOutSc:

; 1226 : 	}
; 1227 : 
; 1228 : 	if( !bRePosition )

  003d6	80 7d ee 00	 cmp	 BYTE PTR _bRePosition$[ebp], 0
  003da	75 1c		 jne	 SHORT $LN1@CheckOutSc

; 1229 : 	{
; 1230 : 		if( bAxisX )

  003dc	80 7d ef 00	 cmp	 BYTE PTR _bAxisX$[ebp], 0

; 1231 : 		{
; 1232 : 			if( iCenterX < iCenterX )
; 1233 : 				iXPos = iEmoticonWidth;
; 1234 : 			else
; 1235 : 				iXPos = Setting::Width() - iEmoticonWidth;
; 1236 : 		}
; 1237 : 		else

  003e0	0f 85 af fe ff
	ff		 jne	 $LN20@CheckOutSc
$LN6@CheckOutSc:

; 1238 : 		{
; 1239 : 			if( iCenterY < iCenterY )
; 1240 : 			{
; 1241 : 				iYPos = iEmoticonHeight;
; 1242 : 			}
; 1243 : 			else
; 1244 : 			{
; 1245 : 				iYPos = Setting::Height() - iEmoticonHeight;

  003e6	e8 00 00 00 00	 call	 ?Height@Setting@@SAHXZ	; Setting::Height

; 1246 : 				iYPos -= 32;

  003eb	6a e0		 push	 -32			; ffffffe0H
  003ed	59		 pop	 ecx
  003ee	2b 4d e0	 sub	 ecx, DWORD PTR _iEmoticonHeight$[ebp]
  003f1	03 c1		 add	 eax, ecx
$LN56@CheckOutSc:
  003f3	8b 4d e8	 mov	 ecx, DWORD PTR _iYPos$GSCopy$[ebp]
$LN55@CheckOutSc:
  003f6	89 01		 mov	 DWORD PTR [ecx], eax
$LN1@CheckOutSc:

; 1247 : 			}
; 1248 : 		}
; 1249 : 	}
; 1250 : }

  003f8	8b 4d fc	 mov	 ecx, DWORD PTR __$ArrayPad$[ebp]
  003fb	5f		 pop	 edi
  003fc	5e		 pop	 esi
  003fd	33 cd		 xor	 ecx, ebp
  003ff	5b		 pop	 ebx
  00400	e8 00 00 00 00	 call	 @__security_check_cookie@4
  00405	c9		 leave
  00406	c2 18 00	 ret	 24			; 00000018H
?CheckOutScreen@ioCharEmoticon@@IAEXABUD3DXVECTOR3@@0AAH1M_N@Z ENDP ; ioCharEmoticon::CheckOutScreen
_TEXT	ENDS
PUBLIC	?empty@?$vector@VioHashString@@V?$allocator@VioHashString@@@std@@@std@@QBE_NXZ ; std::vector<ioHashString,std::allocator<ioHashString> >::empty
; Function compile flags: /Ogsp
; File c:\program files (x86)\microsoft visual studio 10.0\vc\include\vector
;	COMDAT ?empty@?$vector@VioHashString@@V?$allocator@VioHashString@@@std@@@std@@QBE_NXZ
_TEXT	SEGMENT
?empty@?$vector@VioHashString@@V?$allocator@VioHashString@@@std@@@std@@QBE_NXZ PROC ; std::vector<ioHashString,std::allocator<ioHashString> >::empty, COMDAT
; _this$ = ecx

; 889  : 		return (this->_Myfirst == this->_Mylast);

  00000	8b 01		 mov	 eax, DWORD PTR [ecx]
  00002	2b 41 04	 sub	 eax, DWORD PTR [ecx+4]
  00005	f7 d8		 neg	 eax
  00007	1b c0		 sbb	 eax, eax
  00009	40		 inc	 eax

; 890  : 		}

  0000a	c3		 ret	 0
?empty@?$vector@VioHashString@@V?$allocator@VioHashString@@@std@@@std@@QBE_NXZ ENDP ; std::vector<ioHashString,std::allocator<ioHashString> >::empty
_TEXT	ENDS
PUBLIC	??A?$vector@VioHashString@@V?$allocator@VioHashString@@@std@@@std@@QAEAAVioHashString@@I@Z ; std::vector<ioHashString,std::allocator<ioHashString> >::operator[]
; Function compile flags: /Ogsp
;	COMDAT ??A?$vector@VioHashString@@V?$allocator@VioHashString@@@std@@@std@@QAEAAVioHashString@@I@Z
_TEXT	SEGMENT
__Pos$ = 8						; size = 4
??A?$vector@VioHashString@@V?$allocator@VioHashString@@@std@@@std@@QAEAAVioHashString@@I@Z PROC ; std::vector<ioHashString,std::allocator<ioHashString> >::operator[], COMDAT
; _this$ = ecx

; 928  : 		{	// subscript mutable sequence

  00000	55		 push	 ebp
  00001	8b ec		 mov	 ebp, esp

; 929  :  #if _ITERATOR_DEBUG_LEVEL == 2
; 930  : 		if (size() <= _Pos)
; 931  : 			{	// report error
; 932  : 			_DEBUG_ERROR("vector subscript out of range");
; 933  : 			_SCL_SECURE_OUT_OF_RANGE;
; 934  : 			}
; 935  : 
; 936  :  #elif _ITERATOR_DEBUG_LEVEL == 1
; 937  : 		_SCL_SECURE_VALIDATE_RANGE(_Pos < size());
; 938  :  #endif /* _ITERATOR_DEBUG_LEVEL */
; 939  : 
; 940  : 		return (*(this->_Myfirst + _Pos));

  00003	8b 45 08	 mov	 eax, DWORD PTR __Pos$[ebp]
  00006	c1 e0 04	 shl	 eax, 4
  00009	03 01		 add	 eax, DWORD PTR [ecx]

; 941  : 		}

  0000b	5d		 pop	 ebp
  0000c	c2 04 00	 ret	 4
??A?$vector@VioHashString@@V?$allocator@VioHashString@@@std@@@std@@QAEAAVioHashString@@I@Z ENDP ; std::vector<ioHashString,std::allocator<ioHashString> >::operator[]
_TEXT	ENDS
PUBLIC	?size@?$vector@PAUEmoticonInfo@@V?$allocator@PAUEmoticonInfo@@@std@@@std@@QBEIXZ ; std::vector<EmoticonInfo *,std::allocator<EmoticonInfo *> >::size
; Function compile flags: /Ogsp
;	COMDAT ?size@?$vector@PAUEmoticonInfo@@V?$allocator@PAUEmoticonInfo@@@std@@@std@@QBEIXZ
_TEXT	SEGMENT
?size@?$vector@PAUEmoticonInfo@@V?$allocator@PAUEmoticonInfo@@@std@@@std@@QBEIXZ PROC ; std::vector<EmoticonInfo *,std::allocator<EmoticonInfo *> >::size, COMDAT
; _this$ = ecx

; 879  : 		return (this->_Mylast - this->_Myfirst);

  00000	8b 41 04	 mov	 eax, DWORD PTR [ecx+4]
  00003	2b 01		 sub	 eax, DWORD PTR [ecx]
  00005	c1 f8 02	 sar	 eax, 2

; 880  : 		}

  00008	c3		 ret	 0
?size@?$vector@PAUEmoticonInfo@@V?$allocator@PAUEmoticonInfo@@@std@@@std@@QBEIXZ ENDP ; std::vector<EmoticonInfo *,std::allocator<EmoticonInfo *> >::size
_TEXT	ENDS
PUBLIC	?_Inside@?$vector@VioHashString@@V?$allocator@VioHashString@@@std@@@std@@IBE_NPBVioHashString@@@Z ; std::vector<ioHashString,std::allocator<ioHashString> >::_Inside
; Function compile flags: /Ogsp
;	COMDAT ?_Inside@?$vector@VioHashString@@V?$allocator@VioHashString@@@std@@@std@@IBE_NPBVioHashString@@@Z
_TEXT	SEGMENT
__Ptr$ = 8						; size = 4
?_Inside@?$vector@VioHashString@@V?$allocator@VioHashString@@@std@@@std@@IBE_NPBVioHashString@@@Z PROC ; std::vector<ioHashString,std::allocator<ioHashString> >::_Inside, COMDAT
; _this$ = ecx

; 1285 : 		{	// test if _Ptr points inside vector

  00000	55		 push	 ebp
  00001	8b ec		 mov	 ebp, esp

; 1286 : 		return (_Ptr < this->_Mylast && this->_Myfirst <= _Ptr);

  00003	8b 45 08	 mov	 eax, DWORD PTR __Ptr$[ebp]
  00006	3b 41 04	 cmp	 eax, DWORD PTR [ecx+4]
  00009	73 09		 jae	 SHORT $LN3@Inside
  0000b	39 01		 cmp	 DWORD PTR [ecx], eax
  0000d	77 05		 ja	 SHORT $LN3@Inside
  0000f	33 c0		 xor	 eax, eax
  00011	40		 inc	 eax
  00012	eb 02		 jmp	 SHORT $LN4@Inside
$LN3@Inside:
  00014	33 c0		 xor	 eax, eax
$LN4@Inside:

; 1287 : 		}

  00016	5d		 pop	 ebp
  00017	c2 04 00	 ret	 4
?_Inside@?$vector@VioHashString@@V?$allocator@VioHashString@@@std@@@std@@IBE_NPBVioHashString@@@Z ENDP ; std::vector<ioHashString,std::allocator<ioHashString> >::_Inside
_TEXT	ENDS
PUBLIC	?_Orphan_range@?$vector@VioHashString@@V?$allocator@VioHashString@@@std@@@std@@IBEXPAVioHashString@@0@Z ; std::vector<ioHashString,std::allocator<ioHashString> >::_Orphan_range
; Function compile flags: /Ogsp
;	COMDAT ?_Orphan_range@?$vector@VioHashString@@V?$allocator@VioHashString@@@std@@@std@@IBEXPAVioHashString@@0@Z
_TEXT	SEGMENT
___formal$ = 8						; size = 4
___formal$ = 12						; size = 4
?_Orphan_range@?$vector@VioHashString@@V?$allocator@VioHashString@@@std@@@std@@IBEXPAVioHashString@@0@Z PROC ; std::vector<ioHashString,std::allocator<ioHashString> >::_Orphan_range, COMDAT
; _this$ = ecx

; 1454 : 		}

  00000	c2 08 00	 ret	 8
?_Orphan_range@?$vector@VioHashString@@V?$allocator@VioHashString@@@std@@@std@@IBEXPAVioHashString@@0@Z ENDP ; std::vector<ioHashString,std::allocator<ioHashString> >::_Orphan_range
_TEXT	ENDS
PUBLIC	?_Inside@?$vector@PAUEmoticonInfo@@V?$allocator@PAUEmoticonInfo@@@std@@@std@@IBE_NPBQAUEmoticonInfo@@@Z ; std::vector<EmoticonInfo *,std::allocator<EmoticonInfo *> >::_Inside
; Function compile flags: /Ogsp
;	COMDAT ?_Inside@?$vector@PAUEmoticonInfo@@V?$allocator@PAUEmoticonInfo@@@std@@@std@@IBE_NPBQAUEmoticonInfo@@@Z
_TEXT	SEGMENT
__Ptr$ = 8						; size = 4
?_Inside@?$vector@PAUEmoticonInfo@@V?$allocator@PAUEmoticonInfo@@@std@@@std@@IBE_NPBQAUEmoticonInfo@@@Z PROC ; std::vector<EmoticonInfo *,std::allocator<EmoticonInfo *> >::_Inside, COMDAT
; _this$ = ecx

; 1285 : 		{	// test if _Ptr points inside vector

  00000	55		 push	 ebp
  00001	8b ec		 mov	 ebp, esp

; 1286 : 		return (_Ptr < this->_Mylast && this->_Myfirst <= _Ptr);

  00003	8b 45 08	 mov	 eax, DWORD PTR __Ptr$[ebp]
  00006	3b 41 04	 cmp	 eax, DWORD PTR [ecx+4]
  00009	73 09		 jae	 SHORT $LN3@Inside@2
  0000b	39 01		 cmp	 DWORD PTR [ecx], eax
  0000d	77 05		 ja	 SHORT $LN3@Inside@2
  0000f	33 c0		 xor	 eax, eax
  00011	40		 inc	 eax
  00012	eb 02		 jmp	 SHORT $LN4@Inside@2
$LN3@Inside@2:
  00014	33 c0		 xor	 eax, eax
$LN4@Inside@2:

; 1287 : 		}

  00016	5d		 pop	 ebp
  00017	c2 04 00	 ret	 4
?_Inside@?$vector@PAUEmoticonInfo@@V?$allocator@PAUEmoticonInfo@@@std@@@std@@IBE_NPBQAUEmoticonInfo@@@Z ENDP ; std::vector<EmoticonInfo *,std::allocator<EmoticonInfo *> >::_Inside
_TEXT	ENDS
PUBLIC	?_Orphan_range@?$vector@PAUEmoticonInfo@@V?$allocator@PAUEmoticonInfo@@@std@@@std@@IBEXPAPAUEmoticonInfo@@0@Z ; std::vector<EmoticonInfo *,std::allocator<EmoticonInfo *> >::_Orphan_range
; Function compile flags: /Ogsp
;	COMDAT ?_Orphan_range@?$vector@PAUEmoticonInfo@@V?$allocator@PAUEmoticonInfo@@@std@@@std@@IBEXPAPAUEmoticonInfo@@0@Z
_TEXT	SEGMENT
___formal$ = 8						; size = 4
___formal$ = 12						; size = 4
?_Orphan_range@?$vector@PAUEmoticonInfo@@V?$allocator@PAUEmoticonInfo@@@std@@@std@@IBEXPAPAUEmoticonInfo@@0@Z PROC ; std::vector<EmoticonInfo *,std::allocator<EmoticonInfo *> >::_Orphan_range, COMDAT
; _this$ = ecx

; 1454 : 		}

  00000	c2 08 00	 ret	 8
?_Orphan_range@?$vector@PAUEmoticonInfo@@V?$allocator@PAUEmoticonInfo@@@std@@@std@@IBEXPAPAUEmoticonInfo@@0@Z ENDP ; std::vector<EmoticonInfo *,std::allocator<EmoticonInfo *> >::_Orphan_range
_TEXT	ENDS
PUBLIC	??1?$_Vector_val@PAUEmoticonInfo@@V?$allocator@PAUEmoticonInfo@@@std@@@std@@QAE@XZ ; std::_Vector_val<EmoticonInfo *,std::allocator<EmoticonInfo *> >::~_Vector_val<EmoticonInfo *,std::allocator<EmoticonInfo *> >
; Function compile flags: /Ogsp
;	COMDAT ??1?$_Vector_val@PAUEmoticonInfo@@V?$allocator@PAUEmoticonInfo@@@std@@@std@@QAE@XZ
_TEXT	SEGMENT
??1?$_Vector_val@PAUEmoticonInfo@@V?$allocator@PAUEmoticonInfo@@@std@@@std@@QAE@XZ PROC ; std::_Vector_val<EmoticonInfo *,std::allocator<EmoticonInfo *> >::~_Vector_val<EmoticonInfo *,std::allocator<EmoticonInfo *> >, COMDAT
; _this$ = ecx

; 434  : 		}

  00000	c3		 ret	 0
??1?$_Vector_val@PAUEmoticonInfo@@V?$allocator@PAUEmoticonInfo@@@std@@@std@@QAE@XZ ENDP ; std::_Vector_val<EmoticonInfo *,std::allocator<EmoticonInfo *> >::~_Vector_val<EmoticonInfo *,std::allocator<EmoticonInfo *> >
_TEXT	ENDS
PUBLIC	??0?$allocator@PAUEmoticonInfo@@@std@@QAE@XZ	; std::allocator<EmoticonInfo *>::allocator<EmoticonInfo *>
; Function compile flags: /Ogsp
; File c:\program files (x86)\microsoft visual studio 10.0\vc\include\xmemory
;	COMDAT ??0?$allocator@PAUEmoticonInfo@@@std@@QAE@XZ
_TEXT	SEGMENT
??0?$allocator@PAUEmoticonInfo@@@std@@QAE@XZ PROC	; std::allocator<EmoticonInfo *>::allocator<EmoticonInfo *>, COMDAT
; _this$ = ecx

; 161  : 	_ALLOCATOR() _THROW0()

  00000	8b c1		 mov	 eax, ecx

; 162  : 		{	// construct default allocator (do nothing)
; 163  : 		}

  00002	c3		 ret	 0
??0?$allocator@PAUEmoticonInfo@@@std@@QAE@XZ ENDP	; std::allocator<EmoticonInfo *>::allocator<EmoticonInfo *>
_TEXT	ENDS
PUBLIC	??D?$_Vector_const_iterator@V?$_Vector_val@PAUEmoticonInfo@@V?$allocator@PAUEmoticonInfo@@@std@@@std@@@std@@QBEABQAUEmoticonInfo@@XZ ; std::_Vector_const_iterator<std::_Vector_val<EmoticonInfo *,std::allocator<EmoticonInfo *> > >::operator*
; Function compile flags: /Ogsp
; File c:\program files (x86)\microsoft visual studio 10.0\vc\include\vector
;	COMDAT ??D?$_Vector_const_iterator@V?$_Vector_val@PAUEmoticonInfo@@V?$allocator@PAUEmoticonInfo@@@std@@@std@@@std@@QBEABQAUEmoticonInfo@@XZ
_TEXT	SEGMENT
??D?$_Vector_const_iterator@V?$_Vector_val@PAUEmoticonInfo@@V?$allocator@PAUEmoticonInfo@@@std@@@std@@@std@@QBEABQAUEmoticonInfo@@XZ PROC ; std::_Vector_const_iterator<std::_Vector_val<EmoticonInfo *,std::allocator<EmoticonInfo *> > >::operator*, COMDAT
; _this$ = ecx

; 64   :  #if _ITERATOR_DEBUG_LEVEL == 2
; 65   : 		if (this->_Getcont() == 0
; 66   : 			|| this->_Ptr == 0
; 67   : 			|| this->_Ptr < ((_Myvec *)this->_Getcont())->_Myfirst
; 68   : 			|| ((_Myvec *)this->_Getcont())->_Mylast <= this->_Ptr)
; 69   : 			{	// report error
; 70   : 			_DEBUG_ERROR("vector iterator not dereferencable");
; 71   : 			_SCL_SECURE_OUT_OF_RANGE;
; 72   : 			}
; 73   : 
; 74   :  #elif _ITERATOR_DEBUG_LEVEL == 1
; 75   : 		_SCL_SECURE_VALIDATE(this->_Getcont() != 0);
; 76   : 		_SCL_SECURE_VALIDATE_RANGE(
; 77   : 			this->_Ptr != 0
; 78   : 			&& ((_Myvec *)this->_Getcont())->_Myfirst <= this->_Ptr
; 79   : 			&& this->_Ptr < ((_Myvec *)this->_Getcont())->_Mylast);
; 80   :  #endif /* _ITERATOR_DEBUG_LEVEL */
; 81   : 
; 82   : 		__analysis_assume(this->_Ptr != 0);
; 83   : 
; 84   : 		return (*this->_Ptr);

  00000	8b 01		 mov	 eax, DWORD PTR [ecx]

; 85   : 		}

  00002	c3		 ret	 0
??D?$_Vector_const_iterator@V?$_Vector_val@PAUEmoticonInfo@@V?$allocator@PAUEmoticonInfo@@@std@@@std@@@std@@QBEABQAUEmoticonInfo@@XZ ENDP ; std::_Vector_const_iterator<std::_Vector_val<EmoticonInfo *,std::allocator<EmoticonInfo *> > >::operator*
_TEXT	ENDS
PUBLIC	??E?$_Vector_const_iterator@V?$_Vector_val@PAUEmoticonInfo@@V?$allocator@PAUEmoticonInfo@@@std@@@std@@@std@@QAEAAV01@XZ ; std::_Vector_const_iterator<std::_Vector_val<EmoticonInfo *,std::allocator<EmoticonInfo *> > >::operator++
; Function compile flags: /Ogsp
;	COMDAT ??E?$_Vector_const_iterator@V?$_Vector_val@PAUEmoticonInfo@@V?$allocator@PAUEmoticonInfo@@@std@@@std@@@std@@QAEAAV01@XZ
_TEXT	SEGMENT
??E?$_Vector_const_iterator@V?$_Vector_val@PAUEmoticonInfo@@V?$allocator@PAUEmoticonInfo@@@std@@@std@@@std@@QAEAAV01@XZ PROC ; std::_Vector_const_iterator<std::_Vector_val<EmoticonInfo *,std::allocator<EmoticonInfo *> > >::operator++, COMDAT
; _this$ = ecx

; 93   : 		{	// preincrement

  00000	8b c1		 mov	 eax, ecx

; 94   :  #if _ITERATOR_DEBUG_LEVEL == 2
; 95   : 		if (this->_Getcont() == 0
; 96   : 			|| this->_Ptr == 0
; 97   : 			|| ((_Myvec *)this->_Getcont())->_Mylast <= this->_Ptr)
; 98   : 			{	// report error
; 99   : 			_DEBUG_ERROR("vector iterator not incrementable");
; 100  : 			_SCL_SECURE_OUT_OF_RANGE;
; 101  : 			}
; 102  : 
; 103  :  #elif _ITERATOR_DEBUG_LEVEL == 1
; 104  : 		_SCL_SECURE_VALIDATE(this->_Getcont() != 0);
; 105  : 		_SCL_SECURE_VALIDATE_RANGE(
; 106  : 			this->_Ptr != 0
; 107  : 			&& this->_Ptr < ((_Myvec *)this->_Getcont())->_Mylast);
; 108  :  #endif /* _ITERATOR_DEBUG_LEVEL */
; 109  : 
; 110  : 		++this->_Ptr;

  00002	83 00 04	 add	 DWORD PTR [eax], 4

; 111  : 		return (*this);
; 112  : 		}

  00005	c3		 ret	 0
??E?$_Vector_const_iterator@V?$_Vector_val@PAUEmoticonInfo@@V?$allocator@PAUEmoticonInfo@@@std@@@std@@@std@@QAEAAV01@XZ ENDP ; std::_Vector_const_iterator<std::_Vector_val<EmoticonInfo *,std::allocator<EmoticonInfo *> > >::operator++
_TEXT	ENDS
PUBLIC	?capacity@?$vector@VioHashString@@V?$allocator@VioHashString@@@std@@@std@@QBEIXZ ; std::vector<ioHashString,std::allocator<ioHashString> >::capacity
; Function compile flags: /Ogsp
;	COMDAT ?capacity@?$vector@VioHashString@@V?$allocator@VioHashString@@@std@@@std@@QBEIXZ
_TEXT	SEGMENT
?capacity@?$vector@VioHashString@@V?$allocator@VioHashString@@@std@@@std@@QBEIXZ PROC ; std::vector<ioHashString,std::allocator<ioHashString> >::capacity, COMDAT
; _this$ = ecx

; 777  : 		return (this->_Myend - this->_Myfirst);

  00000	8b 41 08	 mov	 eax, DWORD PTR [ecx+8]
  00003	2b 01		 sub	 eax, DWORD PTR [ecx]
  00005	c1 f8 04	 sar	 eax, 4

; 778  : 		}

  00008	c3		 ret	 0
?capacity@?$vector@VioHashString@@V?$allocator@VioHashString@@@std@@@std@@QBEIXZ ENDP ; std::vector<ioHashString,std::allocator<ioHashString> >::capacity
_TEXT	ENDS
PUBLIC	?capacity@?$vector@PAUEmoticonInfo@@V?$allocator@PAUEmoticonInfo@@@std@@@std@@QBEIXZ ; std::vector<EmoticonInfo *,std::allocator<EmoticonInfo *> >::capacity
; Function compile flags: /Ogsp
;	COMDAT ?capacity@?$vector@PAUEmoticonInfo@@V?$allocator@PAUEmoticonInfo@@@std@@@std@@QBEIXZ
_TEXT	SEGMENT
?capacity@?$vector@PAUEmoticonInfo@@V?$allocator@PAUEmoticonInfo@@@std@@@std@@QBEIXZ PROC ; std::vector<EmoticonInfo *,std::allocator<EmoticonInfo *> >::capacity, COMDAT
; _this$ = ecx

; 777  : 		return (this->_Myend - this->_Myfirst);

  00000	8b 41 08	 mov	 eax, DWORD PTR [ecx+8]
  00003	2b 01		 sub	 eax, DWORD PTR [ecx]
  00005	c1 f8 02	 sar	 eax, 2

; 778  : 		}

  00008	c3		 ret	 0
?capacity@?$vector@PAUEmoticonInfo@@V?$allocator@PAUEmoticonInfo@@@std@@@std@@QBEIXZ ENDP ; std::vector<EmoticonInfo *,std::allocator<EmoticonInfo *> >::capacity
_TEXT	ENDS
PUBLIC	??_C@_0BD@OLBABOEK@vector?$DMT?$DO?5too?5long?$AA@ ; `string'
PUBLIC	?_Xlen@?$vector@PAUEmoticonInfo@@V?$allocator@PAUEmoticonInfo@@@std@@@std@@IBEXXZ ; std::vector<EmoticonInfo *,std::allocator<EmoticonInfo *> >::_Xlen
EXTRN	__imp_?_Xlength_error@std@@YAXPBD@Z:PROC
;	COMDAT ??_C@_0BD@OLBABOEK@vector?$DMT?$DO?5too?5long?$AA@
CONST	SEGMENT
??_C@_0BD@OLBABOEK@vector?$DMT?$DO?5too?5long?$AA@ DB 'vector<T> too long'
	DB	00H						; `string'
; Function compile flags: /Ogsp
CONST	ENDS
;	COMDAT ?_Xlen@?$vector@PAUEmoticonInfo@@V?$allocator@PAUEmoticonInfo@@@std@@@std@@IBEXXZ
_TEXT	SEGMENT
?_Xlen@?$vector@PAUEmoticonInfo@@V?$allocator@PAUEmoticonInfo@@@std@@@std@@IBEXXZ PROC ; std::vector<EmoticonInfo *,std::allocator<EmoticonInfo *> >::_Xlen, COMDAT
; _this$ = ecx

; 1427 : 		_Xlength_error("vector<T> too long");

  00000	68 00 00 00 00	 push	 OFFSET ??_C@_0BD@OLBABOEK@vector?$DMT?$DO?5too?5long?$AA@
  00005	ff 15 00 00 00
	00		 call	 DWORD PTR __imp_?_Xlength_error@std@@YAXPBD@Z
$LN4@Xlen:
$LN3@Xlen:
  0000b	cc		 int	 3
?_Xlen@?$vector@PAUEmoticonInfo@@V?$allocator@PAUEmoticonInfo@@@std@@@std@@IBEXXZ ENDP ; std::vector<EmoticonInfo *,std::allocator<EmoticonInfo *> >::_Xlen
_TEXT	ENDS
PUBLIC	??0?$allocator@PAUEmoticonInfo@@@std@@QAE@ABV01@@Z ; std::allocator<EmoticonInfo *>::allocator<EmoticonInfo *>
; Function compile flags: /Ogsp
; File c:\program files (x86)\microsoft visual studio 10.0\vc\include\xmemory
;	COMDAT ??0?$allocator@PAUEmoticonInfo@@@std@@QAE@ABV01@@Z
_TEXT	SEGMENT
___formal$ = 8						; size = 4
??0?$allocator@PAUEmoticonInfo@@@std@@QAE@ABV01@@Z PROC	; std::allocator<EmoticonInfo *>::allocator<EmoticonInfo *>, COMDAT
; _this$ = ecx

; 165  : 	_ALLOCATOR(const _ALLOCATOR<_Ty>&) _THROW0()

  00000	8b c1		 mov	 eax, ecx

; 166  : 		{	// construct by copying (do nothing)
; 167  : 		}

  00002	c2 04 00	 ret	 4
??0?$allocator@PAUEmoticonInfo@@@std@@QAE@ABV01@@Z ENDP	; std::allocator<EmoticonInfo *>::allocator<EmoticonInfo *>
_TEXT	ENDS
PUBLIC	?deallocate@?$allocator@PAUEmoticonInfo@@@std@@QAEXPAPAUEmoticonInfo@@I@Z ; std::allocator<EmoticonInfo *>::deallocate
; Function compile flags: /Ogsp
;	COMDAT ?deallocate@?$allocator@PAUEmoticonInfo@@@std@@QAEXPAPAUEmoticonInfo@@I@Z
_TEXT	SEGMENT
__Ptr$ = 8						; size = 4
___formal$ = 12						; size = 4
?deallocate@?$allocator@PAUEmoticonInfo@@@std@@QAEXPAPAUEmoticonInfo@@I@Z PROC ; std::allocator<EmoticonInfo *>::deallocate, COMDAT
; _this$ = ecx

; 181  : 		{	// deallocate object at _Ptr, ignore size

  00000	55		 push	 ebp
  00001	8b ec		 mov	 ebp, esp

; 182  : 		::operator delete(_Ptr);

  00003	ff 75 08	 push	 DWORD PTR __Ptr$[ebp]
  00006	e8 00 00 00 00	 call	 ??3@YAXPAX@Z		; operator delete
  0000b	59		 pop	 ecx

; 183  : 		}

  0000c	5d		 pop	 ebp
  0000d	c2 08 00	 ret	 8
?deallocate@?$allocator@PAUEmoticonInfo@@@std@@QAEXPAPAUEmoticonInfo@@I@Z ENDP ; std::allocator<EmoticonInfo *>::deallocate
_TEXT	ENDS
PUBLIC	??0?$_Vector_const_iterator@V?$_Vector_val@PAUEmoticonInfo@@V?$allocator@PAUEmoticonInfo@@@std@@@std@@@std@@QAE@PAPAUEmoticonInfo@@PBU_Container_base0@1@@Z ; std::_Vector_const_iterator<std::_Vector_val<EmoticonInfo *,std::allocator<EmoticonInfo *> > >::_Vector_const_iterator<std::_Vector_val<EmoticonInfo *,std::allocator<EmoticonInfo *> > >
; Function compile flags: /Ogsp
; File c:\program files (x86)\microsoft visual studio 10.0\vc\include\vector
;	COMDAT ??0?$_Vector_const_iterator@V?$_Vector_val@PAUEmoticonInfo@@V?$allocator@PAUEmoticonInfo@@@std@@@std@@@std@@QAE@PAPAUEmoticonInfo@@PBU_Container_base0@1@@Z
_TEXT	SEGMENT
__Parg$ = 8						; size = 4
__Pvector$ = 12						; size = 4
??0?$_Vector_const_iterator@V?$_Vector_val@PAUEmoticonInfo@@V?$allocator@PAUEmoticonInfo@@@std@@@std@@@std@@QAE@PAPAUEmoticonInfo@@PBU_Container_base0@1@@Z PROC ; std::_Vector_const_iterator<std::_Vector_val<EmoticonInfo *,std::allocator<EmoticonInfo *> > >::_Vector_const_iterator<std::_Vector_val<EmoticonInfo *,std::allocator<EmoticonInfo *> > >, COMDAT
; _this$ = ecx

; 45   : 		{	// construct with pointer _Parg

  00000	55		 push	 ebp
  00001	8b ec		 mov	 ebp, esp
  00003	8b c1		 mov	 eax, ecx
  00005	8b 4d 08	 mov	 ecx, DWORD PTR __Parg$[ebp]
  00008	89 08		 mov	 DWORD PTR [eax], ecx

; 46   : 		this->_Adopt(_Pvector);
; 47   : 		}

  0000a	5d		 pop	 ebp
  0000b	c2 08 00	 ret	 8
??0?$_Vector_const_iterator@V?$_Vector_val@PAUEmoticonInfo@@V?$allocator@PAUEmoticonInfo@@@std@@@std@@@std@@QAE@PAPAUEmoticonInfo@@PBU_Container_base0@1@@Z ENDP ; std::_Vector_const_iterator<std::_Vector_val<EmoticonInfo *,std::allocator<EmoticonInfo *> > >::_Vector_const_iterator<std::_Vector_val<EmoticonInfo *,std::allocator<EmoticonInfo *> > >
_TEXT	ENDS
PUBLIC	?_Compat@?$_Vector_const_iterator@V?$_Vector_val@PAUEmoticonInfo@@V?$allocator@PAUEmoticonInfo@@@std@@@std@@@std@@QBEXABV12@@Z ; std::_Vector_const_iterator<std::_Vector_val<EmoticonInfo *,std::allocator<EmoticonInfo *> > >::_Compat
; Function compile flags: /Ogsp
;	COMDAT ?_Compat@?$_Vector_const_iterator@V?$_Vector_val@PAUEmoticonInfo@@V?$allocator@PAUEmoticonInfo@@@std@@@std@@@std@@QBEXABV12@@Z
_TEXT	SEGMENT
___formal$ = 8						; size = 4
?_Compat@?$_Vector_const_iterator@V?$_Vector_val@PAUEmoticonInfo@@V?$allocator@PAUEmoticonInfo@@@std@@@std@@@std@@QBEXABV12@@Z PROC ; std::_Vector_const_iterator<std::_Vector_val<EmoticonInfo *,std::allocator<EmoticonInfo *> > >::_Compat, COMDAT
; _this$ = ecx

; 253  : 		}

  00000	c2 04 00	 ret	 4
?_Compat@?$_Vector_const_iterator@V?$_Vector_val@PAUEmoticonInfo@@V?$allocator@PAUEmoticonInfo@@@std@@@std@@@std@@QBEXABV12@@Z ENDP ; std::_Vector_const_iterator<std::_Vector_val<EmoticonInfo *,std::allocator<EmoticonInfo *> > >::_Compat
_TEXT	ENDS
PUBLIC	?max_size@?$allocator@PAUEmoticonInfo@@@std@@QBEIXZ ; std::allocator<EmoticonInfo *>::max_size
; Function compile flags: /Ogsp
; File c:\program files (x86)\microsoft visual studio 10.0\vc\include\xmemory
;	COMDAT ?max_size@?$allocator@PAUEmoticonInfo@@@std@@QBEIXZ
_TEXT	SEGMENT
?max_size@?$allocator@PAUEmoticonInfo@@@std@@QBEIXZ PROC ; std::allocator<EmoticonInfo *>::max_size, COMDAT
; _this$ = ecx

; 218  : 		_SIZT _Count = (_SIZT)(-1) / sizeof (_Ty);
; 219  : 		return (0 < _Count ? _Count : 1);

  00000	b8 ff ff ff 3f	 mov	 eax, 1073741823		; 3fffffffH

; 220  : 		}

  00005	c3		 ret	 0
?max_size@?$allocator@PAUEmoticonInfo@@@std@@QBEIXZ ENDP ; std::allocator<EmoticonInfo *>::max_size
_TEXT	ENDS
PUBLIC	??$addressof@$$CBVioHashString@@@std@@YAPBVioHashString@@ABV1@@Z ; std::addressof<ioHashString const >
; Function compile flags: /Ogsp
;	COMDAT ??$addressof@$$CBVioHashString@@@std@@YAPBVioHashString@@ABV1@@Z
_TEXT	SEGMENT
__Val$ = 8						; size = 4
??$addressof@$$CBVioHashString@@@std@@YAPBVioHashString@@ABV1@@Z PROC ; std::addressof<ioHashString const >, COMDAT

; 110  : 	{	// return address of _Val

  00000	55		 push	 ebp
  00001	8b ec		 mov	 ebp, esp

; 111  : 	return ((_Ty *) &(char&)_Val);

  00003	8b 45 08	 mov	 eax, DWORD PTR __Val$[ebp]

; 112  : 	}

  00006	5d		 pop	 ebp
  00007	c3		 ret	 0
??$addressof@$$CBVioHashString@@@std@@YAPBVioHashString@@ABV1@@Z ENDP ; std::addressof<ioHashString const >
_TEXT	ENDS
PUBLIC	??$addressof@QAUEmoticonInfo@@@std@@YAPBQAUEmoticonInfo@@ABQAU1@@Z ; std::addressof<EmoticonInfo * const>
; Function compile flags: /Ogsp
;	COMDAT ??$addressof@QAUEmoticonInfo@@@std@@YAPBQAUEmoticonInfo@@ABQAU1@@Z
_TEXT	SEGMENT
__Val$ = 8						; size = 4
??$addressof@QAUEmoticonInfo@@@std@@YAPBQAUEmoticonInfo@@ABQAU1@@Z PROC ; std::addressof<EmoticonInfo * const>, COMDAT

; 110  : 	{	// return address of _Val

  00000	55		 push	 ebp
  00001	8b ec		 mov	 ebp, esp

; 111  : 	return ((_Ty *) &(char&)_Val);

  00003	8b 45 08	 mov	 eax, DWORD PTR __Val$[ebp]

; 112  : 	}

  00006	5d		 pop	 ebp
  00007	c3		 ret	 0
??$addressof@QAUEmoticonInfo@@@std@@YAPBQAUEmoticonInfo@@ABQAU1@@Z ENDP ; std::addressof<EmoticonInfo * const>
_TEXT	ENDS
PUBLIC	__TI2?AVbad_alloc@std@@
PUBLIC	??$_Allocate@PAUEmoticonInfo@@@std@@YAPAPAUEmoticonInfo@@IPAPAU1@@Z ; std::_Allocate<EmoticonInfo *>
PUBLIC	__CTA2?AVbad_alloc@std@@
PUBLIC	__CT??_R0?AVbad_alloc@std@@@8??0bad_alloc@std@@QAE@ABV01@@Z12
PUBLIC	??0bad_alloc@std@@QAE@ABV01@@Z			; std::bad_alloc::bad_alloc
PUBLIC	__CT??_R0?AVexception@std@@@8??0exception@std@@QAE@ABV01@@Z12
EXTRN	__CxxThrowException@8:PROC
EXTRN	??0exception@std@@QAE@ABV01@@Z:PROC		; std::exception::exception
;	COMDAT __CT??_R0?AVexception@std@@@8??0exception@std@@QAE@ABV01@@Z12
; File c:\program files (x86)\microsoft visual studio 10.0\vc\include\exception
xdata$x	SEGMENT
__CT??_R0?AVexception@std@@@8??0exception@std@@QAE@ABV01@@Z12 DD 00H
	DD	FLAT:??_R0?AVexception@std@@@8
	DD	00H
	DD	0ffffffffH
	ORG $+4
	DD	0cH
	DD	FLAT:??0exception@std@@QAE@ABV01@@Z
xdata$x	ENDS
;	COMDAT __CT??_R0?AVbad_alloc@std@@@8??0bad_alloc@std@@QAE@ABV01@@Z12
xdata$x	SEGMENT
__CT??_R0?AVbad_alloc@std@@@8??0bad_alloc@std@@QAE@ABV01@@Z12 DD 00H
	DD	FLAT:??_R0?AVbad_alloc@std@@@8
	DD	00H
	DD	0ffffffffH
	ORG $+4
	DD	0cH
	DD	FLAT:??0bad_alloc@std@@QAE@ABV01@@Z
xdata$x	ENDS
;	COMDAT __CTA2?AVbad_alloc@std@@
xdata$x	SEGMENT
__CTA2?AVbad_alloc@std@@ DD 02H
	DD	FLAT:__CT??_R0?AVbad_alloc@std@@@8??0bad_alloc@std@@QAE@ABV01@@Z12
	DD	FLAT:__CT??_R0?AVexception@std@@@8??0exception@std@@QAE@ABV01@@Z12
xdata$x	ENDS
;	COMDAT __TI2?AVbad_alloc@std@@
xdata$x	SEGMENT
__TI2?AVbad_alloc@std@@ DD 00H
	DD	FLAT:??1bad_alloc@std@@UAE@XZ
	DD	00H
	DD	FLAT:__CTA2?AVbad_alloc@std@@
; Function compile flags: /Ogsp
; File c:\program files (x86)\microsoft visual studio 10.0\vc\include\xmemory
xdata$x	ENDS
;	COMDAT ??$_Allocate@PAUEmoticonInfo@@@std@@YAPAPAUEmoticonInfo@@IPAPAU1@@Z
_TEXT	SEGMENT
$T531250 = -12						; size = 12
$T531255 = 8						; size = 4
__Count$ = 8						; size = 4
___formal$ = 12						; size = 4
??$_Allocate@PAUEmoticonInfo@@@std@@YAPAPAUEmoticonInfo@@IPAPAU1@@Z PROC ; std::_Allocate<EmoticonInfo *>, COMDAT

; 30   : 	{	// allocate storage for _Count elements of type _Ty

  00000	55		 push	 ebp
  00001	8b ec		 mov	 ebp, esp

; 31   : 	void *_Ptr = 0;
; 32   : 
; 33   : 	if (_Count <= 0)

  00003	8b 4d 08	 mov	 ecx, DWORD PTR __Count$[ebp]
  00006	83 ec 0c	 sub	 esp, 12			; 0000000cH
  00009	33 c0		 xor	 eax, eax
  0000b	85 c9		 test	 ecx, ecx

; 34   : 		_Count = 0;
; 35   : 	else if (((_SIZT)(-1) / sizeof (_Ty) < _Count)

  0000d	74 3e		 je	 SHORT $LN5@Allocate

; 36   : 		|| (_Ptr = ::operator new(_Count * sizeof (_Ty))) == 0)

  0000f	81 f9 ff ff ff
	3f		 cmp	 ecx, 1073741823		; 3fffffffH
  00015	77 10		 ja	 SHORT $LN1@Allocate
  00017	8b c1		 mov	 eax, ecx
  00019	c1 e0 02	 shl	 eax, 2
  0001c	50		 push	 eax
  0001d	e8 00 00 00 00	 call	 ??2@YAPAXI@Z		; operator new
  00022	59		 pop	 ecx
  00023	85 c0		 test	 eax, eax

; 38   : 
; 39   : 	return ((_Ty _FARQ *)_Ptr);

  00025	75 26		 jne	 SHORT $LN5@Allocate
$LN1@Allocate:

; 37   : 		_THROW_NCEE(bad_alloc, 0);

  00027	83 65 08 00	 and	 DWORD PTR $T531255[ebp], 0
  0002b	8d 45 08	 lea	 eax, DWORD PTR $T531255[ebp]
  0002e	50		 push	 eax
  0002f	8d 4d f4	 lea	 ecx, DWORD PTR $T531250[ebp]
  00032	ff 15 00 00 00
	00		 call	 DWORD PTR __imp_??0exception@std@@QAE@ABQBD@Z
  00038	68 00 00 00 00	 push	 OFFSET __TI2?AVbad_alloc@std@@
  0003d	8d 45 f4	 lea	 eax, DWORD PTR $T531250[ebp]
  00040	50		 push	 eax
  00041	c7 45 f4 00 00
	00 00		 mov	 DWORD PTR $T531250[ebp], OFFSET ??_7bad_alloc@std@@6B@
  00048	e8 00 00 00 00	 call	 __CxxThrowException@8
$LN10@Allocate:
$LN5@Allocate:

; 40   : 	}

  0004d	c9		 leave
  0004e	c3		 ret	 0
$LN9@Allocate:
??$_Allocate@PAUEmoticonInfo@@@std@@YAPAPAUEmoticonInfo@@IPAPAU1@@Z ENDP ; std::_Allocate<EmoticonInfo *>
_TEXT	ENDS
PUBLIC	??G?$_Vector_const_iterator@V?$_Vector_val@PAUEmoticonInfo@@V?$allocator@PAUEmoticonInfo@@@std@@@std@@@std@@QBEHABV01@@Z ; std::_Vector_const_iterator<std::_Vector_val<EmoticonInfo *,std::allocator<EmoticonInfo *> > >::operator-
; Function compile flags: /Ogsp
; File c:\program files (x86)\microsoft visual studio 10.0\vc\include\vector
;	COMDAT ??G?$_Vector_const_iterator@V?$_Vector_val@PAUEmoticonInfo@@V?$allocator@PAUEmoticonInfo@@@std@@@std@@@std@@QBEHABV01@@Z
_TEXT	SEGMENT
__Right$ = 8						; size = 4
??G?$_Vector_const_iterator@V?$_Vector_val@PAUEmoticonInfo@@V?$allocator@PAUEmoticonInfo@@@std@@@std@@@std@@QBEHABV01@@Z PROC ; std::_Vector_const_iterator<std::_Vector_val<EmoticonInfo *,std::allocator<EmoticonInfo *> > >::operator-, COMDAT
; _this$ = ecx

; 190  : 		{	// return difference of iterators

  00000	55		 push	 ebp
  00001	8b ec		 mov	 ebp, esp

; 191  : 		_Compat(_Right);
; 192  : 		return (this->_Ptr - _Right._Ptr);

  00003	8b 01		 mov	 eax, DWORD PTR [ecx]
  00005	8b 4d 08	 mov	 ecx, DWORD PTR __Right$[ebp]
  00008	2b 01		 sub	 eax, DWORD PTR [ecx]
  0000a	c1 f8 02	 sar	 eax, 2

; 193  : 		}

  0000d	5d		 pop	 ebp
  0000e	c2 04 00	 ret	 4
??G?$_Vector_const_iterator@V?$_Vector_val@PAUEmoticonInfo@@V?$allocator@PAUEmoticonInfo@@@std@@@std@@@std@@QBEHABV01@@Z ENDP ; std::_Vector_const_iterator<std::_Vector_val<EmoticonInfo *,std::allocator<EmoticonInfo *> > >::operator-
_TEXT	ENDS
PUBLIC	??$forward@AAPAUEmoticonInfo@@@std@@YAAAPAUEmoticonInfo@@AAPAU1@@Z ; std::forward<EmoticonInfo * &>
; Function compile flags: /Ogsp
; File c:\program files (x86)\microsoft visual studio 10.0\vc\include\utility
;	COMDAT ??$forward@AAPAUEmoticonInfo@@@std@@YAAAPAUEmoticonInfo@@AAPAU1@@Z
_TEXT	SEGMENT
__Arg$ = 8						; size = 4
??$forward@AAPAUEmoticonInfo@@@std@@YAAAPAUEmoticonInfo@@AAPAU1@@Z PROC ; std::forward<EmoticonInfo * &>, COMDAT

; 78   : 	{	// forward _Arg, given explicitly specified type parameter

  00000	55		 push	 ebp
  00001	8b ec		 mov	 ebp, esp

; 79   : 	return ((_Ty&&)_Arg);

  00003	8b 45 08	 mov	 eax, DWORD PTR __Arg$[ebp]

; 80   : 	}

  00006	5d		 pop	 ebp
  00007	c3		 ret	 0
??$forward@AAPAUEmoticonInfo@@@std@@YAAAPAUEmoticonInfo@@AAPAU1@@Z ENDP ; std::forward<EmoticonInfo * &>
_TEXT	ENDS
PUBLIC	??$construct@AAPAUEmoticonInfo@@@?$allocator@PAUEmoticonInfo@@@std@@QAEXPAPAUEmoticonInfo@@AAPAU2@@Z ; std::allocator<EmoticonInfo *>::construct<EmoticonInfo * &>
; Function compile flags: /Ogsp
; File c:\program files (x86)\microsoft visual studio 10.0\vc\include\xmemory
;	COMDAT ??$construct@AAPAUEmoticonInfo@@@?$allocator@PAUEmoticonInfo@@@std@@QAEXPAPAUEmoticonInfo@@AAPAU2@@Z
_TEXT	SEGMENT
__Ptr$ = 8						; size = 4
__Val$ = 12						; size = 4
??$construct@AAPAUEmoticonInfo@@@?$allocator@PAUEmoticonInfo@@@std@@QAEXPAPAUEmoticonInfo@@AAPAU2@@Z PROC ; std::allocator<EmoticonInfo *>::construct<EmoticonInfo * &>, COMDAT
; _this$ = ecx

; 206  : 		void construct(pointer _Ptr, _Other&& _Val)

  00000	55		 push	 ebp
  00001	8b ec		 mov	 ebp, esp

; 207  : 		{	// construct object at _Ptr with value _Val
; 208  : 		::new ((void _FARQ *)_Ptr) _Ty(_STD forward<_Other>(_Val));

  00003	8b 45 08	 mov	 eax, DWORD PTR __Ptr$[ebp]
  00006	85 c0		 test	 eax, eax
  00008	74 07		 je	 SHORT $LN3@construct
  0000a	8b 4d 0c	 mov	 ecx, DWORD PTR __Val$[ebp]
  0000d	8b 09		 mov	 ecx, DWORD PTR [ecx]
  0000f	89 08		 mov	 DWORD PTR [eax], ecx
$LN3@construct:

; 209  : 		}

  00011	5d		 pop	 ebp
  00012	c2 08 00	 ret	 8
??$construct@AAPAUEmoticonInfo@@@?$allocator@PAUEmoticonInfo@@@std@@QAEXPAPAUEmoticonInfo@@AAPAU2@@Z ENDP ; std::allocator<EmoticonInfo *>::construct<EmoticonInfo * &>
_TEXT	ENDS
PUBLIC	??$forward@ABQAUEmoticonInfo@@@std@@YAABQAUEmoticonInfo@@ABQAU1@@Z ; std::forward<EmoticonInfo * const &>
; Function compile flags: /Ogsp
; File c:\program files (x86)\microsoft visual studio 10.0\vc\include\utility
;	COMDAT ??$forward@ABQAUEmoticonInfo@@@std@@YAABQAUEmoticonInfo@@ABQAU1@@Z
_TEXT	SEGMENT
__Arg$ = 8						; size = 4
??$forward@ABQAUEmoticonInfo@@@std@@YAABQAUEmoticonInfo@@ABQAU1@@Z PROC ; std::forward<EmoticonInfo * const &>, COMDAT

; 78   : 	{	// forward _Arg, given explicitly specified type parameter

  00000	55		 push	 ebp
  00001	8b ec		 mov	 ebp, esp

; 79   : 	return ((_Ty&&)_Arg);

  00003	8b 45 08	 mov	 eax, DWORD PTR __Arg$[ebp]

; 80   : 	}

  00006	5d		 pop	 ebp
  00007	c3		 ret	 0
??$forward@ABQAUEmoticonInfo@@@std@@YAABQAUEmoticonInfo@@ABQAU1@@Z ENDP ; std::forward<EmoticonInfo * const &>
_TEXT	ENDS
PUBLIC	??$_Ptr_cat@PAUEmoticonInfo@@PAU1@@std@@YA?AU_Scalar_ptr_iterator_tag@0@PAPAUEmoticonInfo@@0@Z ; std::_Ptr_cat<EmoticonInfo *,EmoticonInfo *>
; Function compile flags: /Ogsp
; File c:\program files (x86)\microsoft visual studio 10.0\vc\include\xutility
;	COMDAT ??$_Ptr_cat@PAUEmoticonInfo@@PAU1@@std@@YA?AU_Scalar_ptr_iterator_tag@0@PAPAUEmoticonInfo@@0@Z
_TEXT	SEGMENT
__Cat$ = -1						; size = 1
___formal$ = 8						; size = 4
___formal$ = 12						; size = 4
??$_Ptr_cat@PAUEmoticonInfo@@PAU1@@std@@YA?AU_Scalar_ptr_iterator_tag@0@PAPAUEmoticonInfo@@0@Z PROC ; std::_Ptr_cat<EmoticonInfo *,EmoticonInfo *>, COMDAT

; 516  : 	{	// return pointer category from pointers

  00000	55		 push	 ebp
  00001	8b ec		 mov	 ebp, esp
  00003	51		 push	 ecx

; 517  : 	typename _Ptr_cat_helper<_Elem1, _Elem2>::_Type _Cat;
; 518  : 	return (_Cat);

  00004	8a 45 ff	 mov	 al, BYTE PTR __Cat$[ebp]

; 519  : 	}

  00007	c9		 leave
  00008	c3		 ret	 0
??$_Ptr_cat@PAUEmoticonInfo@@PAU1@@std@@YA?AU_Scalar_ptr_iterator_tag@0@PAPAUEmoticonInfo@@0@Z ENDP ; std::_Ptr_cat<EmoticonInfo *,EmoticonInfo *>
_TEXT	ENDS
PUBLIC	??$_Move@PAPAUEmoticonInfo@@PAPAU1@@std@@YAPAPAUEmoticonInfo@@PAPAU1@00U_Scalar_ptr_iterator_tag@0@@Z ; std::_Move<EmoticonInfo * *,EmoticonInfo * *>
EXTRN	__imp__memmove:PROC
; Function compile flags: /Ogsp
;	COMDAT ??$_Move@PAPAUEmoticonInfo@@PAPAU1@@std@@YAPAPAUEmoticonInfo@@PAPAU1@00U_Scalar_ptr_iterator_tag@0@@Z
_TEXT	SEGMENT
__First$ = 8						; size = 4
__Last$ = 12						; size = 4
__Dest$ = 16						; size = 4
___formal$ = 20						; size = 1
??$_Move@PAPAUEmoticonInfo@@PAPAU1@@std@@YAPAPAUEmoticonInfo@@PAPAU1@00U_Scalar_ptr_iterator_tag@0@@Z PROC ; std::_Move<EmoticonInfo * *,EmoticonInfo * *>, COMDAT

; 2522 : 	{	// move [_First, _Last) to [_Dest, ...), pointers to scalars

  00000	55		 push	 ebp
  00001	8b ec		 mov	 ebp, esp
  00003	56		 push	 esi

; 2523 : 	ptrdiff_t _Count = _Last - _First;

  00004	8b 75 0c	 mov	 esi, DWORD PTR __Last$[ebp]
  00007	2b 75 08	 sub	 esi, DWORD PTR __First$[ebp]
  0000a	57		 push	 edi

; 2524 : 	_CSTD memmove(&*_Dest, &*_First,
; 2525 : 		_Count * sizeof (*_First));

  0000b	8b 7d 10	 mov	 edi, DWORD PTR __Dest$[ebp]
  0000e	c1 fe 02	 sar	 esi, 2
  00011	c1 e6 02	 shl	 esi, 2
  00014	56		 push	 esi
  00015	ff 75 08	 push	 DWORD PTR __First$[ebp]
  00018	57		 push	 edi
  00019	ff 15 00 00 00
	00		 call	 DWORD PTR __imp__memmove
  0001f	83 c4 0c	 add	 esp, 12			; 0000000cH

; 2526 : 	return (_Dest + _Count);

  00022	8d 04 3e	 lea	 eax, DWORD PTR [esi+edi]
  00025	5f		 pop	 edi
  00026	5e		 pop	 esi

; 2527 : 	}

  00027	5d		 pop	 ebp
  00028	c3		 ret	 0
??$_Move@PAPAUEmoticonInfo@@PAPAU1@@std@@YAPAPAUEmoticonInfo@@PAPAU1@00U_Scalar_ptr_iterator_tag@0@@Z ENDP ; std::_Move<EmoticonInfo * *,EmoticonInfo * *>
_TEXT	ENDS
PUBLIC	??$_Destroy_range@V?$allocator@PAUEmoticonInfo@@@std@@@std@@YAXPAPAUEmoticonInfo@@0AAV?$allocator@PAUEmoticonInfo@@@0@U_Scalar_ptr_iterator_tag@0@@Z ; std::_Destroy_range<std::allocator<EmoticonInfo *> >
; Function compile flags: /Ogsp
; File c:\program files (x86)\microsoft visual studio 10.0\vc\include\xmemory
;	COMDAT ??$_Destroy_range@V?$allocator@PAUEmoticonInfo@@@std@@@std@@YAXPAPAUEmoticonInfo@@0AAV?$allocator@PAUEmoticonInfo@@@0@U_Scalar_ptr_iterator_tag@0@@Z
_TEXT	SEGMENT
__First$ = 8						; size = 4
__Last$ = 12						; size = 4
__Al$ = 16						; size = 4
___formal$ = 20						; size = 1
??$_Destroy_range@V?$allocator@PAUEmoticonInfo@@@std@@@std@@YAXPAPAUEmoticonInfo@@0AAV?$allocator@PAUEmoticonInfo@@@0@U_Scalar_ptr_iterator_tag@0@@Z PROC ; std::_Destroy_range<std::allocator<EmoticonInfo *> >, COMDAT

; 105  : 	}

  00000	c3		 ret	 0
??$_Destroy_range@V?$allocator@PAUEmoticonInfo@@@std@@@std@@YAXPAPAUEmoticonInfo@@0AAV?$allocator@PAUEmoticonInfo@@@0@U_Scalar_ptr_iterator_tag@0@@Z ENDP ; std::_Destroy_range<std::allocator<EmoticonInfo *> >
_TEXT	ENDS
PUBLIC	??$_Construct@PAUEmoticonInfo@@ABQAU1@@std@@YAXPAPAUEmoticonInfo@@ABQAU1@@Z ; std::_Construct<EmoticonInfo *,EmoticonInfo * const &>
; Function compile flags: /Ogsp
;	COMDAT ??$_Construct@PAUEmoticonInfo@@ABQAU1@@std@@YAXPAPAUEmoticonInfo@@ABQAU1@@Z
_TEXT	SEGMENT
__Ptr$ = 8						; size = 4
__Val$ = 12						; size = 4
??$_Construct@PAUEmoticonInfo@@ABQAU1@@std@@YAXPAPAUEmoticonInfo@@ABQAU1@@Z PROC ; std::_Construct<EmoticonInfo *,EmoticonInfo * const &>, COMDAT

; 46   : 	{	// construct object at _Ptr with value _Val

  00000	55		 push	 ebp
  00001	8b ec		 mov	 ebp, esp

; 47   : 	void _FARQ *_Vptr = _Ptr;
; 48   : 	::new (_Vptr) _Ty1(_STD forward<_Ty2>(_Val));

  00003	8b 45 08	 mov	 eax, DWORD PTR __Ptr$[ebp]
  00006	85 c0		 test	 eax, eax
  00008	74 07		 je	 SHORT $LN3@Construct
  0000a	8b 4d 0c	 mov	 ecx, DWORD PTR __Val$[ebp]
  0000d	8b 09		 mov	 ecx, DWORD PTR [ecx]
  0000f	89 08		 mov	 DWORD PTR [eax], ecx
$LN3@Construct:

; 49   : 	}

  00011	5d		 pop	 ebp
  00012	c3		 ret	 0
??$_Construct@PAUEmoticonInfo@@ABQAU1@@std@@YAXPAPAUEmoticonInfo@@ABQAU1@@Z ENDP ; std::_Construct<EmoticonInfo *,EmoticonInfo * const &>
_TEXT	ENDS
PUBLIC	?_Unchecked@?$_Vector_iterator@V?$_Vector_val@PAUEmoticonInfo@@V?$allocator@PAUEmoticonInfo@@@std@@@std@@@std@@QBEPAPAUEmoticonInfo@@XZ ; std::_Vector_iterator<std::_Vector_val<EmoticonInfo *,std::allocator<EmoticonInfo *> > >::_Unchecked
; Function compile flags: /Ogsp
; File c:\program files (x86)\microsoft visual studio 10.0\vc\include\vector
;	COMDAT ?_Unchecked@?$_Vector_iterator@V?$_Vector_val@PAUEmoticonInfo@@V?$allocator@PAUEmoticonInfo@@@std@@@std@@@std@@QBEPAPAUEmoticonInfo@@XZ
_TEXT	SEGMENT
?_Unchecked@?$_Vector_iterator@V?$_Vector_val@PAUEmoticonInfo@@V?$allocator@PAUEmoticonInfo@@@std@@@std@@@std@@QBEPAPAUEmoticonInfo@@XZ PROC ; std::_Vector_iterator<std::_Vector_val<EmoticonInfo *,std::allocator<EmoticonInfo *> > >::_Unchecked, COMDAT
; _this$ = ecx

; 317  : 		return (_Unchecked_type(this->_Ptr));

  00000	8b 01		 mov	 eax, DWORD PTR [ecx]

; 318  : 		}

  00002	c3		 ret	 0
?_Unchecked@?$_Vector_iterator@V?$_Vector_val@PAUEmoticonInfo@@V?$allocator@PAUEmoticonInfo@@@std@@@std@@@std@@QBEPAPAUEmoticonInfo@@XZ ENDP ; std::_Vector_iterator<std::_Vector_val<EmoticonInfo *,std::allocator<EmoticonInfo *> > >::_Unchecked
_TEXT	ENDS
PUBLIC	??$_Val_type@PAVioHashString@@@std@@YAPAVioHashString@@PAV1@@Z ; std::_Val_type<ioHashString *>
; Function compile flags: /Ogsp
; File c:\program files (x86)\microsoft visual studio 10.0\vc\include\xutility
;	COMDAT ??$_Val_type@PAVioHashString@@@std@@YAPAVioHashString@@PAV1@@Z
_TEXT	SEGMENT
___formal$ = 8						; size = 4
??$_Val_type@PAVioHashString@@@std@@YAPAVioHashString@@PAV1@@Z PROC ; std::_Val_type<ioHashString *>, COMDAT

; 790  : 	return (0);

  00000	33 c0		 xor	 eax, eax

; 791  : 	}

  00002	c3		 ret	 0
??$_Val_type@PAVioHashString@@@std@@YAPAVioHashString@@PAV1@@Z ENDP ; std::_Val_type<ioHashString *>
_TEXT	ENDS
PUBLIC	??$_Val_type@PAPAUEmoticonInfo@@@std@@YAPAPAUEmoticonInfo@@PAPAU1@@Z ; std::_Val_type<EmoticonInfo * *>
; Function compile flags: /Ogsp
;	COMDAT ??$_Val_type@PAPAUEmoticonInfo@@@std@@YAPAPAUEmoticonInfo@@PAPAU1@@Z
_TEXT	SEGMENT
___formal$ = 8						; size = 4
??$_Val_type@PAPAUEmoticonInfo@@@std@@YAPAPAUEmoticonInfo@@PAPAU1@@Z PROC ; std::_Val_type<EmoticonInfo * *>, COMDAT

; 790  : 	return (0);

  00000	33 c0		 xor	 eax, eax

; 791  : 	}

  00002	c3		 ret	 0
??$_Val_type@PAPAUEmoticonInfo@@@std@@YAPAPAUEmoticonInfo@@PAPAU1@@Z ENDP ; std::_Val_type<EmoticonInfo * *>
_TEXT	ENDS
PUBLIC	??$_Uninit_move@PAUEmoticonInfo@@PAU1@PAU1@@std@@YAPAPAUEmoticonInfo@@PAPAU1@00AAV?$allocator@PAUEmoticonInfo@@@0@0U_Scalar_ptr_iterator_tag@0@@Z ; std::_Uninit_move<EmoticonInfo *,EmoticonInfo *,EmoticonInfo *>
; Function compile flags: /Ogsp
; File c:\program files (x86)\microsoft visual studio 10.0\vc\include\memory
;	COMDAT ??$_Uninit_move@PAUEmoticonInfo@@PAU1@PAU1@@std@@YAPAPAUEmoticonInfo@@PAPAU1@00AAV?$allocator@PAUEmoticonInfo@@@0@0U_Scalar_ptr_iterator_tag@0@@Z
_TEXT	SEGMENT
__First$ = 8						; size = 4
__Last$ = 12						; size = 4
__Dest$ = 16						; size = 4
___formal$ = 20						; size = 4
___formal$ = 24						; size = 4
___formal$ = 28						; size = 1
??$_Uninit_move@PAUEmoticonInfo@@PAU1@PAU1@@std@@YAPAPAUEmoticonInfo@@PAPAU1@00AAV?$allocator@PAUEmoticonInfo@@@0@0U_Scalar_ptr_iterator_tag@0@@Z PROC ; std::_Uninit_move<EmoticonInfo *,EmoticonInfo *,EmoticonInfo *>, COMDAT

; 456  : 	{	// move [_First, _Last) to raw _Dest, scalar type

  00000	55		 push	 ebp
  00001	8b ec		 mov	 ebp, esp
  00003	56		 push	 esi

; 457  : 	_DEBUG_RANGE(_First, _Last);
; 458  : 	_DEBUG_POINTER(_Dest);
; 459  : 	size_t _Count = (size_t)(_Last - _First);

  00004	8b 75 0c	 mov	 esi, DWORD PTR __Last$[ebp]
  00007	2b 75 08	 sub	 esi, DWORD PTR __First$[ebp]
  0000a	c1 fe 02	 sar	 esi, 2

; 460  : 	return ((_Ty2 *)_CSTD memmove(&*_Dest, &*_First,
; 461  : 		_Count * sizeof (*_First)) + _Count);	// NB: non-overlapping move

  0000d	c1 e6 02	 shl	 esi, 2
  00010	56		 push	 esi
  00011	ff 75 08	 push	 DWORD PTR __First$[ebp]
  00014	ff 75 10	 push	 DWORD PTR __Dest$[ebp]
  00017	ff 15 00 00 00
	00		 call	 DWORD PTR __imp__memmove
  0001d	83 c4 0c	 add	 esp, 12			; 0000000cH
  00020	03 c6		 add	 eax, esi
  00022	5e		 pop	 esi

; 462  : 	}

  00023	5d		 pop	 ebp
  00024	c3		 ret	 0
??$_Uninit_move@PAUEmoticonInfo@@PAU1@PAU1@@std@@YAPAPAUEmoticonInfo@@PAPAU1@00AAV?$allocator@PAUEmoticonInfo@@@0@0U_Scalar_ptr_iterator_tag@0@@Z ENDP ; std::_Uninit_move<EmoticonInfo *,EmoticonInfo *,EmoticonInfo *>
_TEXT	ENDS
PUBLIC	??$_Unchecked@PAPAUEmoticonInfo@@@std@@YAPAPAUEmoticonInfo@@PAPAU1@@Z ; std::_Unchecked<EmoticonInfo * *>
; Function compile flags: /Ogsp
; File c:\program files (x86)\microsoft visual studio 10.0\vc\include\xutility
;	COMDAT ??$_Unchecked@PAPAUEmoticonInfo@@@std@@YAPAPAUEmoticonInfo@@PAPAU1@@Z
_TEXT	SEGMENT
__Src$ = 8						; size = 4
??$_Unchecked@PAPAUEmoticonInfo@@@std@@YAPAPAUEmoticonInfo@@PAPAU1@@Z PROC ; std::_Unchecked<EmoticonInfo * *>, COMDAT

; 266  : 	{	// construct unchecked from checked, generic

  00000	55		 push	 ebp
  00001	8b ec		 mov	 ebp, esp

; 267  : 	return (_Src);

  00003	8b 45 08	 mov	 eax, DWORD PTR __Src$[ebp]

; 268  : 	}

  00006	5d		 pop	 ebp
  00007	c3		 ret	 0
??$_Unchecked@PAPAUEmoticonInfo@@@std@@YAPAPAUEmoticonInfo@@PAPAU1@@Z ENDP ; std::_Unchecked<EmoticonInfo * *>
_TEXT	ENDS
PUBLIC	??$_Dist_type@PAPAUEmoticonInfo@@@std@@YAPAHPAPAUEmoticonInfo@@@Z ; std::_Dist_type<EmoticonInfo * *>
; Function compile flags: /Ogsp
;	COMDAT ??$_Dist_type@PAPAUEmoticonInfo@@@std@@YAPAHPAPAUEmoticonInfo@@@Z
_TEXT	SEGMENT
___formal$ = 8						; size = 4
??$_Dist_type@PAPAUEmoticonInfo@@@std@@YAPAHPAPAUEmoticonInfo@@@Z PROC ; std::_Dist_type<EmoticonInfo * *>, COMDAT

; 850  : 	return (0);

  00000	33 c0		 xor	 eax, eax

; 851  : 	}

  00002	c3		 ret	 0
??$_Dist_type@PAPAUEmoticonInfo@@@std@@YAPAHPAPAUEmoticonInfo@@@Z ENDP ; std::_Dist_type<EmoticonInfo * *>
_TEXT	ENDS
PUBLIC	??$forward@AAPAPAUEmoticonInfo@@@std@@YAAAPAPAUEmoticonInfo@@AAPAPAU1@@Z ; std::forward<EmoticonInfo * * &>
; Function compile flags: /Ogsp
; File c:\program files (x86)\microsoft visual studio 10.0\vc\include\utility
;	COMDAT ??$forward@AAPAPAUEmoticonInfo@@@std@@YAAAPAPAUEmoticonInfo@@AAPAPAU1@@Z
_TEXT	SEGMENT
__Arg$ = 8						; size = 4
??$forward@AAPAPAUEmoticonInfo@@@std@@YAAAPAPAUEmoticonInfo@@AAPAPAU1@@Z PROC ; std::forward<EmoticonInfo * * &>, COMDAT

; 78   : 	{	// forward _Arg, given explicitly specified type parameter

  00000	55		 push	 ebp
  00001	8b ec		 mov	 ebp, esp

; 79   : 	return ((_Ty&&)_Arg);

  00003	8b 45 08	 mov	 eax, DWORD PTR __Arg$[ebp]

; 80   : 	}

  00006	5d		 pop	 ebp
  00007	c3		 ret	 0
??$forward@AAPAPAUEmoticonInfo@@@std@@YAAAPAPAUEmoticonInfo@@AAPAPAU1@@Z ENDP ; std::forward<EmoticonInfo * * &>
_TEXT	ENDS
PUBLIC	??$?0AAPAPAUEmoticonInfo@@AAPAPAU0@@?$_Pair_base@PAPAUEmoticonInfo@@PAPAU1@@std@@QAE@AAPAPAUEmoticonInfo@@0@Z ; std::_Pair_base<EmoticonInfo * *,EmoticonInfo * *>::_Pair_base<EmoticonInfo * *,EmoticonInfo * *><EmoticonInfo * * &,EmoticonInfo * * &>
; Function compile flags: /Ogsp
;	COMDAT ??$?0AAPAPAUEmoticonInfo@@AAPAPAU0@@?$_Pair_base@PAPAUEmoticonInfo@@PAPAU1@@std@@QAE@AAPAPAUEmoticonInfo@@0@Z
_TEXT	SEGMENT
__Val1$ = 8						; size = 4
__Val2$ = 12						; size = 4
??$?0AAPAPAUEmoticonInfo@@AAPAPAU0@@?$_Pair_base@PAPAUEmoticonInfo@@PAPAU1@@std@@QAE@AAPAPAUEmoticonInfo@@0@Z PROC ; std::_Pair_base<EmoticonInfo * *,EmoticonInfo * *>::_Pair_base<EmoticonInfo * *,EmoticonInfo * *><EmoticonInfo * * &,EmoticonInfo * * &>, COMDAT
; _this$ = ecx

; 163  : 		{	// construct from moved values

  00000	55		 push	 ebp
  00001	8b ec		 mov	 ebp, esp
  00003	8b c1		 mov	 eax, ecx
  00005	8b 4d 08	 mov	 ecx, DWORD PTR __Val1$[ebp]
  00008	8b 09		 mov	 ecx, DWORD PTR [ecx]
  0000a	89 08		 mov	 DWORD PTR [eax], ecx
  0000c	8b 4d 0c	 mov	 ecx, DWORD PTR __Val2$[ebp]
  0000f	8b 09		 mov	 ecx, DWORD PTR [ecx]
  00011	89 48 04	 mov	 DWORD PTR [eax+4], ecx

; 164  : 		}

  00014	5d		 pop	 ebp
  00015	c2 08 00	 ret	 8
??$?0AAPAPAUEmoticonInfo@@AAPAPAU0@@?$_Pair_base@PAPAUEmoticonInfo@@PAPAU1@@std@@QAE@AAPAPAUEmoticonInfo@@0@Z ENDP ; std::_Pair_base<EmoticonInfo * *,EmoticonInfo * *>::_Pair_base<EmoticonInfo * *,EmoticonInfo * *><EmoticonInfo * * &,EmoticonInfo * * &>
_TEXT	ENDS
PUBLIC	??$_Move@AAPAUEmoticonInfo@@@std@@YA$$QAPAUEmoticonInfo@@AAPAU1@@Z ; std::_Move<EmoticonInfo * &>
; Function compile flags: /Ogsp
;	COMDAT ??$_Move@AAPAUEmoticonInfo@@@std@@YA$$QAPAUEmoticonInfo@@AAPAU1@@Z
_TEXT	SEGMENT
__Arg$ = 8						; size = 4
??$_Move@AAPAUEmoticonInfo@@@std@@YA$$QAPAUEmoticonInfo@@AAPAU1@@Z PROC ; std::_Move<EmoticonInfo * &>, COMDAT

; 94   : 	{	// forward _Arg as movable

  00000	55		 push	 ebp
  00001	8b ec		 mov	 ebp, esp

; 95   : 	return ((typename tr1::_Remove_reference<_Ty>::_Type&&)_Arg);

  00003	8b 45 08	 mov	 eax, DWORD PTR __Arg$[ebp]

; 96   : 	}

  00006	5d		 pop	 ebp
  00007	c3		 ret	 0
??$_Move@AAPAUEmoticonInfo@@@std@@YA$$QAPAUEmoticonInfo@@AAPAU1@@Z ENDP ; std::_Move<EmoticonInfo * &>
_TEXT	ENDS
PUBLIC	??$forward@VioHashString@@@std@@YA$$QAVioHashString@@AAV1@@Z ; std::forward<ioHashString>
; Function compile flags: /Ogsp
;	COMDAT ??$forward@VioHashString@@@std@@YA$$QAVioHashString@@AAV1@@Z
_TEXT	SEGMENT
__Arg$ = 8						; size = 4
??$forward@VioHashString@@@std@@YA$$QAVioHashString@@AAV1@@Z PROC ; std::forward<ioHashString>, COMDAT

; 78   : 	{	// forward _Arg, given explicitly specified type parameter

  00000	55		 push	 ebp
  00001	8b ec		 mov	 ebp, esp

; 79   : 	return ((_Ty&&)_Arg);

  00003	8b 45 08	 mov	 eax, DWORD PTR __Arg$[ebp]

; 80   : 	}

  00006	5d		 pop	 ebp
  00007	c3		 ret	 0
??$forward@VioHashString@@@std@@YA$$QAVioHashString@@AAV1@@Z ENDP ; std::forward<ioHashString>
_TEXT	ENDS
PUBLIC	??$_Push_heap@PAPAUEmoticonInfo@@HPAU1@VEmoticonInfoSort@@@std@@YAXPAPAUEmoticonInfo@@HH$$QAPAU1@VEmoticonInfoSort@@@Z ; std::_Push_heap<EmoticonInfo * *,int,EmoticonInfo *,EmoticonInfoSort>
; Function compile flags: /Ogsp
; File c:\program files (x86)\microsoft visual studio 10.0\vc\include\algorithm
;	COMDAT ??$_Push_heap@PAPAUEmoticonInfo@@HPAU1@VEmoticonInfoSort@@@std@@YAXPAPAUEmoticonInfo@@HH$$QAPAU1@VEmoticonInfoSort@@@Z
_TEXT	SEGMENT
__First$ = 8						; size = 4
__Hole$ = 12						; size = 4
__Top$ = 16						; size = 4
__Val$ = 20						; size = 4
__Pred$ = 24						; size = 1
??$_Push_heap@PAPAUEmoticonInfo@@HPAU1@VEmoticonInfoSort@@@std@@YAXPAPAUEmoticonInfo@@HH$$QAPAU1@VEmoticonInfoSort@@@Z PROC ; std::_Push_heap<EmoticonInfo * *,int,EmoticonInfo *,EmoticonInfoSort>, COMDAT

; 2455 : 	{	// percolate _Hole to _Top or where _Val belongs, using operator<

  00000	55		 push	 ebp
  00001	8b ec		 mov	 ebp, esp
  00003	53		 push	 ebx

; 2456 : 	for (_Diff _Idx = (_Hole - 1) / 2;
; 2457 : 		_Top < _Hole && _DEBUG_LT_PRED(_Pred, *(_First + _Idx), _Val);
; 2458 : 		_Idx = (_Hole - 1) / 2)

  00004	8b 5d 08	 mov	 ebx, DWORD PTR __First$[ebp]
  00007	56		 push	 esi
  00008	57		 push	 edi
  00009	8b 7d 0c	 mov	 edi, DWORD PTR __Hole$[ebp]
  0000c	8d 47 ff	 lea	 eax, DWORD PTR [edi-1]
  0000f	99		 cdq
  00010	2b c2		 sub	 eax, edx
  00012	8b f0		 mov	 esi, eax
  00014	d1 fe		 sar	 esi, 1
  00016	eb 26		 jmp	 SHORT $LN12@Push_heap
$LL3@Push_heap:
  00018	8b 45 14	 mov	 eax, DWORD PTR __Val$[ebp]
  0001b	ff 30		 push	 DWORD PTR [eax]
  0001d	8d 4d 18	 lea	 ecx, DWORD PTR __Pred$[ebp]
  00020	ff 34 b3	 push	 DWORD PTR [ebx+esi*4]
  00023	e8 00 00 00 00	 call	 ??REmoticonInfoSort@@QBE_NPBUEmoticonInfo@@0@Z ; EmoticonInfoSort::operator()
  00028	84 c0		 test	 al, al
  0002a	74 17		 je	 SHORT $LN1@Push_heap

; 2459 : 		{	// move _Hole up to parent
; 2460 : 		*(_First + _Hole) = _Move(*(_First + _Idx));

  0002c	8b 04 b3	 mov	 eax, DWORD PTR [ebx+esi*4]
  0002f	89 04 bb	 mov	 DWORD PTR [ebx+edi*4], eax
  00032	8d 46 ff	 lea	 eax, DWORD PTR [esi-1]
  00035	99		 cdq
  00036	2b c2		 sub	 eax, edx
  00038	d1 f8		 sar	 eax, 1

; 2461 : 		_Hole = _Idx;

  0003a	8b fe		 mov	 edi, esi
  0003c	8b f0		 mov	 esi, eax
$LN12@Push_heap:

; 2456 : 	for (_Diff _Idx = (_Hole - 1) / 2;
; 2457 : 		_Top < _Hole && _DEBUG_LT_PRED(_Pred, *(_First + _Idx), _Val);
; 2458 : 		_Idx = (_Hole - 1) / 2)

  0003e	39 7d 10	 cmp	 DWORD PTR __Top$[ebp], edi
  00041	7c d5		 jl	 SHORT $LL3@Push_heap
$LN1@Push_heap:

; 2462 : 		}
; 2463 : 
; 2464 : 	*(_First + _Hole) = _Move(_Val);	// drop _Val into final hole

  00043	8b 45 14	 mov	 eax, DWORD PTR __Val$[ebp]
  00046	8b 00		 mov	 eax, DWORD PTR [eax]
  00048	89 04 bb	 mov	 DWORD PTR [ebx+edi*4], eax
  0004b	5f		 pop	 edi
  0004c	5e		 pop	 esi
  0004d	5b		 pop	 ebx

; 2465 : 	}

  0004e	5d		 pop	 ebp
  0004f	c3		 ret	 0
??$_Push_heap@PAPAUEmoticonInfo@@HPAU1@VEmoticonInfoSort@@@std@@YAXPAPAUEmoticonInfo@@HH$$QAPAU1@VEmoticonInfoSort@@@Z ENDP ; std::_Push_heap<EmoticonInfo * *,int,EmoticonInfo *,EmoticonInfoSort>
_TEXT	ENDS
PUBLIC	??$_Move_backward@PAPAUEmoticonInfo@@PAPAU1@@std@@YAPAPAUEmoticonInfo@@PAPAU1@00U_Scalar_ptr_iterator_tag@0@@Z ; std::_Move_backward<EmoticonInfo * *,EmoticonInfo * *>
; Function compile flags: /Ogsp
; File c:\program files (x86)\microsoft visual studio 10.0\vc\include\xutility
;	COMDAT ??$_Move_backward@PAPAUEmoticonInfo@@PAPAU1@@std@@YAPAPAUEmoticonInfo@@PAPAU1@00U_Scalar_ptr_iterator_tag@0@@Z
_TEXT	SEGMENT
__First$ = 8						; size = 4
__Last$ = 12						; size = 4
__Dest$ = 16						; size = 4
___formal$ = 20						; size = 1
??$_Move_backward@PAPAUEmoticonInfo@@PAPAU1@@std@@YAPAPAUEmoticonInfo@@PAPAU1@00U_Scalar_ptr_iterator_tag@0@@Z PROC ; std::_Move_backward<EmoticonInfo * *,EmoticonInfo * *>, COMDAT

; 2627 : 	{	// move [_First, _Last) backwards to [..., _Dest), pointers to scalars

  00000	55		 push	 ebp
  00001	8b ec		 mov	 ebp, esp

; 2628 : 	ptrdiff_t _Count = _Last - _First;

  00003	8b 45 0c	 mov	 eax, DWORD PTR __Last$[ebp]
  00006	2b 45 08	 sub	 eax, DWORD PTR __First$[ebp]
  00009	56		 push	 esi

; 2629 : 	_CSTD memmove(&*_Dest - _Count, &*_First,
; 2630 : 		_Count * sizeof (*_First));

  0000a	8b 75 10	 mov	 esi, DWORD PTR __Dest$[ebp]
  0000d	83 e0 fc	 and	 eax, -4			; fffffffcH
  00010	50		 push	 eax
  00011	ff 75 08	 push	 DWORD PTR __First$[ebp]
  00014	2b f0		 sub	 esi, eax
  00016	56		 push	 esi
  00017	ff 15 00 00 00
	00		 call	 DWORD PTR __imp__memmove
  0001d	83 c4 0c	 add	 esp, 12			; 0000000cH

; 2631 : 	return (_Dest - _Count);

  00020	8b c6		 mov	 eax, esi
  00022	5e		 pop	 esi

; 2632 : 	}

  00023	5d		 pop	 ebp
  00024	c3		 ret	 0
??$_Move_backward@PAPAUEmoticonInfo@@PAPAU1@@std@@YAPAPAUEmoticonInfo@@PAPAU1@00U_Scalar_ptr_iterator_tag@0@@Z ENDP ; std::_Move_backward<EmoticonInfo * *,EmoticonInfo * *>
_TEXT	ENDS
PUBLIC	?_DECSTR@@YAXPADH@Z				; _DECSTR
; Function compile flags: /Ogsp
; File d:\lost saga for developer\youtube\tutorial\source\src\lsclient\stringprotect.h
;	COMDAT ?_DECSTR@@YAXPADH@Z
_TEXT	SEGMENT
_s$ = 8							; size = 4
_l$ = 12						; size = 4
?_DECSTR@@YAXPADH@Z PROC				; _DECSTR, COMDAT

; 40   : __forceinline void _DECSTR(char* s, int l){int i=0,l4=(l-1)/4,*p=(int*)s;s[l-1]=0;for(;i<l4;++i)*(p++)^=0xEAEBECED;for(i=l4*4;i<l-1;++i)s[i]^=0xED-i%4;}

  00000	55		 push	 ebp
  00001	8b ec		 mov	 ebp, esp
  00003	8b 4d 0c	 mov	 ecx, DWORD PTR _l$[ebp]
  00006	56		 push	 esi
  00007	8b 75 08	 mov	 esi, DWORD PTR _s$[ebp]
  0000a	57		 push	 edi
  0000b	8d 79 ff	 lea	 edi, DWORD PTR [ecx-1]
  0000e	8b c7		 mov	 eax, edi
  00010	99		 cdq
  00011	83 e2 03	 and	 edx, 3
  00014	03 c2		 add	 eax, edx
  00016	c1 f8 02	 sar	 eax, 2
  00019	8b d6		 mov	 edx, esi
  0001b	c6 44 0e ff 00	 mov	 BYTE PTR [esi+ecx-1], 0
  00020	85 c0		 test	 eax, eax
  00022	7e 0e		 jle	 SHORT $LN4@DECSTR
  00024	8b c8		 mov	 ecx, eax
$LL6@DECSTR:
  00026	81 32 ed ec eb
	ea		 xor	 DWORD PTR [edx], -353637139 ; eaebecedH
  0002c	83 c2 04	 add	 edx, 4
  0002f	49		 dec	 ecx
  00030	75 f4		 jne	 SHORT $LL6@DECSTR
$LN4@DECSTR:
  00032	c1 e0 02	 shl	 eax, 2
  00035	eb 17		 jmp	 SHORT $LN14@DECSTR
$LL3@DECSTR:
  00037	8b c8		 mov	 ecx, eax
  00039	81 e1 03 00 00
	80		 and	 ecx, -2147483645	; 80000003H
  0003f	79 05		 jns	 SHORT $LN13@DECSTR
  00041	49		 dec	 ecx
  00042	83 c9 fc	 or	 ecx, -4			; fffffffcH
  00045	41		 inc	 ecx
$LN13@DECSTR:
  00046	b2 ed		 mov	 dl, -19			; ffffffedH
  00048	2a d1		 sub	 dl, cl
  0004a	30 14 30	 xor	 BYTE PTR [eax+esi], dl
  0004d	40		 inc	 eax
$LN14@DECSTR:
  0004e	3b c7		 cmp	 eax, edi
  00050	7c e5		 jl	 SHORT $LL3@DECSTR
  00052	5f		 pop	 edi
  00053	5e		 pop	 esi
  00054	5d		 pop	 ebp
  00055	c3		 ret	 0
?_DECSTR@@YAXPADH@Z ENDP				; _DECSTR
_TEXT	ENDS
PUBLIC	?size@?$vector@VioHashString@@V?$allocator@VioHashString@@@std@@@std@@QBEIXZ ; std::vector<ioHashString,std::allocator<ioHashString> >::size
; Function compile flags: /Ogsp
; File c:\program files (x86)\microsoft visual studio 10.0\vc\include\vector
;	COMDAT ?size@?$vector@VioHashString@@V?$allocator@VioHashString@@@std@@@std@@QBEIXZ
_TEXT	SEGMENT
?size@?$vector@VioHashString@@V?$allocator@VioHashString@@@std@@@std@@QBEIXZ PROC ; std::vector<ioHashString,std::allocator<ioHashString> >::size, COMDAT
; _this$ = ecx

; 879  : 		return (this->_Mylast - this->_Myfirst);

  00000	8b 41 04	 mov	 eax, DWORD PTR [ecx+4]
  00003	2b 01		 sub	 eax, DWORD PTR [ecx]
  00005	c1 f8 04	 sar	 eax, 4

; 880  : 		}

  00008	c3		 ret	 0
?size@?$vector@VioHashString@@V?$allocator@VioHashString@@@std@@@std@@QBEIXZ ENDP ; std::vector<ioHashString,std::allocator<ioHashString> >::size
_TEXT	ENDS
PUBLIC	?empty@?$vector@UtagTextPiece@ioComplexStringPrinter@@V?$allocator@UtagTextPiece@ioComplexStringPrinter@@@std@@@std@@QBE_NXZ ; std::vector<ioComplexStringPrinter::tagTextPiece,std::allocator<ioComplexStringPrinter::tagTextPiece> >::empty
; Function compile flags: /Ogsp
;	COMDAT ?empty@?$vector@UtagTextPiece@ioComplexStringPrinter@@V?$allocator@UtagTextPiece@ioComplexStringPrinter@@@std@@@std@@QBE_NXZ
_TEXT	SEGMENT
?empty@?$vector@UtagTextPiece@ioComplexStringPrinter@@V?$allocator@UtagTextPiece@ioComplexStringPrinter@@@std@@@std@@QBE_NXZ PROC ; std::vector<ioComplexStringPrinter::tagTextPiece,std::allocator<ioComplexStringPrinter::tagTextPiece> >::empty, COMDAT
; _this$ = ecx

; 889  : 		return (this->_Myfirst == this->_Mylast);

  00000	8b 01		 mov	 eax, DWORD PTR [ecx]
  00002	2b 41 04	 sub	 eax, DWORD PTR [ecx+4]
  00005	f7 d8		 neg	 eax
  00007	1b c0		 sbb	 eax, eax
  00009	40		 inc	 eax

; 890  : 		}

  0000a	c3		 ret	 0
?empty@?$vector@UtagTextPiece@ioComplexStringPrinter@@V?$allocator@UtagTextPiece@ioComplexStringPrinter@@@std@@@std@@QBE_NXZ ENDP ; std::vector<ioComplexStringPrinter::tagTextPiece,std::allocator<ioComplexStringPrinter::tagTextPiece> >::empty
_TEXT	ENDS
PUBLIC	??1?$_Vector_val@VioHashString@@V?$allocator@VioHashString@@@std@@@std@@QAE@XZ ; std::_Vector_val<ioHashString,std::allocator<ioHashString> >::~_Vector_val<ioHashString,std::allocator<ioHashString> >
; Function compile flags: /Ogsp
;	COMDAT ??1?$_Vector_val@VioHashString@@V?$allocator@VioHashString@@@std@@@std@@QAE@XZ
_TEXT	SEGMENT
??1?$_Vector_val@VioHashString@@V?$allocator@VioHashString@@@std@@@std@@QAE@XZ PROC ; std::_Vector_val<ioHashString,std::allocator<ioHashString> >::~_Vector_val<ioHashString,std::allocator<ioHashString> >, COMDAT
; _this$ = ecx

; 434  : 		}

  00000	c3		 ret	 0
??1?$_Vector_val@VioHashString@@V?$allocator@VioHashString@@@std@@@std@@QAE@XZ ENDP ; std::_Vector_val<ioHashString,std::allocator<ioHashString> >::~_Vector_val<ioHashString,std::allocator<ioHashString> >
_TEXT	ENDS
PUBLIC	??0?$allocator@VioHashString@@@std@@QAE@XZ	; std::allocator<ioHashString>::allocator<ioHashString>
; Function compile flags: /Ogsp
; File c:\program files (x86)\microsoft visual studio 10.0\vc\include\xmemory
;	COMDAT ??0?$allocator@VioHashString@@@std@@QAE@XZ
_TEXT	SEGMENT
??0?$allocator@VioHashString@@@std@@QAE@XZ PROC		; std::allocator<ioHashString>::allocator<ioHashString>, COMDAT
; _this$ = ecx

; 161  : 	_ALLOCATOR() _THROW0()

  00000	8b c1		 mov	 eax, ecx

; 162  : 		{	// construct default allocator (do nothing)
; 163  : 		}

  00002	c3		 ret	 0
??0?$allocator@VioHashString@@@std@@QAE@XZ ENDP		; std::allocator<ioHashString>::allocator<ioHashString>
_TEXT	ENDS
PUBLIC	??0?$allocator@VioHashString@@@std@@QAE@ABV01@@Z ; std::allocator<ioHashString>::allocator<ioHashString>
; Function compile flags: /Ogsp
;	COMDAT ??0?$allocator@VioHashString@@@std@@QAE@ABV01@@Z
_TEXT	SEGMENT
___formal$ = 8						; size = 4
??0?$allocator@VioHashString@@@std@@QAE@ABV01@@Z PROC	; std::allocator<ioHashString>::allocator<ioHashString>, COMDAT
; _this$ = ecx

; 165  : 	_ALLOCATOR(const _ALLOCATOR<_Ty>&) _THROW0()

  00000	8b c1		 mov	 eax, ecx

; 166  : 		{	// construct by copying (do nothing)
; 167  : 		}

  00002	c2 04 00	 ret	 4
??0?$allocator@VioHashString@@@std@@QAE@ABV01@@Z ENDP	; std::allocator<ioHashString>::allocator<ioHashString>
_TEXT	ENDS
PUBLIC	?_Xlen@?$vector@VioHashString@@V?$allocator@VioHashString@@@std@@@std@@IBEXXZ ; std::vector<ioHashString,std::allocator<ioHashString> >::_Xlen
; Function compile flags: /Ogsp
; File c:\program files (x86)\microsoft visual studio 10.0\vc\include\vector
;	COMDAT ?_Xlen@?$vector@VioHashString@@V?$allocator@VioHashString@@@std@@@std@@IBEXXZ
_TEXT	SEGMENT
?_Xlen@?$vector@VioHashString@@V?$allocator@VioHashString@@@std@@@std@@IBEXXZ PROC ; std::vector<ioHashString,std::allocator<ioHashString> >::_Xlen, COMDAT
; _this$ = ecx

; 1427 : 		_Xlength_error("vector<T> too long");

  00000	68 00 00 00 00	 push	 OFFSET ??_C@_0BD@OLBABOEK@vector?$DMT?$DO?5too?5long?$AA@
  00005	ff 15 00 00 00
	00		 call	 DWORD PTR __imp_?_Xlength_error@std@@YAXPBD@Z
$LN4@Xlen@2:
$LN3@Xlen@2:
  0000b	cc		 int	 3
?_Xlen@?$vector@VioHashString@@V?$allocator@VioHashString@@@std@@@std@@IBEXXZ ENDP ; std::vector<ioHashString,std::allocator<ioHashString> >::_Xlen
_TEXT	ENDS
PUBLIC	?deallocate@?$allocator@VioHashString@@@std@@QAEXPAVioHashString@@I@Z ; std::allocator<ioHashString>::deallocate
; Function compile flags: /Ogsp
; File c:\program files (x86)\microsoft visual studio 10.0\vc\include\xmemory
;	COMDAT ?deallocate@?$allocator@VioHashString@@@std@@QAEXPAVioHashString@@I@Z
_TEXT	SEGMENT
__Ptr$ = 8						; size = 4
___formal$ = 12						; size = 4
?deallocate@?$allocator@VioHashString@@@std@@QAEXPAVioHashString@@I@Z PROC ; std::allocator<ioHashString>::deallocate, COMDAT
; _this$ = ecx

; 181  : 		{	// deallocate object at _Ptr, ignore size

  00000	55		 push	 ebp
  00001	8b ec		 mov	 ebp, esp

; 182  : 		::operator delete(_Ptr);

  00003	ff 75 08	 push	 DWORD PTR __Ptr$[ebp]
  00006	e8 00 00 00 00	 call	 ??3@YAXPAX@Z		; operator delete
  0000b	59		 pop	 ecx

; 183  : 		}

  0000c	5d		 pop	 ebp
  0000d	c2 08 00	 ret	 8
?deallocate@?$allocator@VioHashString@@@std@@QAEXPAVioHashString@@I@Z ENDP ; std::allocator<ioHashString>::deallocate
_TEXT	ENDS
PUBLIC	??0?$_Vector_const_iterator@V?$_Vector_val@VioHashString@@V?$allocator@VioHashString@@@std@@@std@@@std@@QAE@PAVioHashString@@PBU_Container_base0@1@@Z ; std::_Vector_const_iterator<std::_Vector_val<ioHashString,std::allocator<ioHashString> > >::_Vector_const_iterator<std::_Vector_val<ioHashString,std::allocator<ioHashString> > >
; Function compile flags: /Ogsp
; File c:\program files (x86)\microsoft visual studio 10.0\vc\include\vector
;	COMDAT ??0?$_Vector_const_iterator@V?$_Vector_val@VioHashString@@V?$allocator@VioHashString@@@std@@@std@@@std@@QAE@PAVioHashString@@PBU_Container_base0@1@@Z
_TEXT	SEGMENT
__Parg$ = 8						; size = 4
__Pvector$ = 12						; size = 4
??0?$_Vector_const_iterator@V?$_Vector_val@VioHashString@@V?$allocator@VioHashString@@@std@@@std@@@std@@QAE@PAVioHashString@@PBU_Container_base0@1@@Z PROC ; std::_Vector_const_iterator<std::_Vector_val<ioHashString,std::allocator<ioHashString> > >::_Vector_const_iterator<std::_Vector_val<ioHashString,std::allocator<ioHashString> > >, COMDAT
; _this$ = ecx

; 45   : 		{	// construct with pointer _Parg

  00000	55		 push	 ebp
  00001	8b ec		 mov	 ebp, esp
  00003	8b c1		 mov	 eax, ecx
  00005	8b 4d 08	 mov	 ecx, DWORD PTR __Parg$[ebp]
  00008	89 08		 mov	 DWORD PTR [eax], ecx

; 46   : 		this->_Adopt(_Pvector);
; 47   : 		}

  0000a	5d		 pop	 ebp
  0000b	c2 08 00	 ret	 8
??0?$_Vector_const_iterator@V?$_Vector_val@VioHashString@@V?$allocator@VioHashString@@@std@@@std@@@std@@QAE@PAVioHashString@@PBU_Container_base0@1@@Z ENDP ; std::_Vector_const_iterator<std::_Vector_val<ioHashString,std::allocator<ioHashString> > >::_Vector_const_iterator<std::_Vector_val<ioHashString,std::allocator<ioHashString> > >
_TEXT	ENDS
PUBLIC	??0?$_Vector_iterator@V?$_Vector_val@VioHashString@@V?$allocator@VioHashString@@@std@@@std@@@std@@QAE@PAVioHashString@@PBU_Container_base0@1@@Z ; std::_Vector_iterator<std::_Vector_val<ioHashString,std::allocator<ioHashString> > >::_Vector_iterator<std::_Vector_val<ioHashString,std::allocator<ioHashString> > >
; Function compile flags: /Ogsp
;	COMDAT ??0?$_Vector_iterator@V?$_Vector_val@VioHashString@@V?$allocator@VioHashString@@@std@@@std@@@std@@QAE@PAVioHashString@@PBU_Container_base0@1@@Z
_TEXT	SEGMENT
__Parg$ = 8						; size = 4
__Pvector$ = 12						; size = 4
??0?$_Vector_iterator@V?$_Vector_val@VioHashString@@V?$allocator@VioHashString@@@std@@@std@@@std@@QAE@PAVioHashString@@PBU_Container_base0@1@@Z PROC ; std::_Vector_iterator<std::_Vector_val<ioHashString,std::allocator<ioHashString> > >::_Vector_iterator<std::_Vector_val<ioHashString,std::allocator<ioHashString> > >, COMDAT
; _this$ = ecx

; 304  : 		{	// construct with pointer _Parg

  00000	55		 push	 ebp
  00001	8b ec		 mov	 ebp, esp
  00003	8b c1		 mov	 eax, ecx
  00005	8b 4d 08	 mov	 ecx, DWORD PTR __Parg$[ebp]
  00008	89 08		 mov	 DWORD PTR [eax], ecx

; 305  : 		}

  0000a	5d		 pop	 ebp
  0000b	c2 08 00	 ret	 8
??0?$_Vector_iterator@V?$_Vector_val@VioHashString@@V?$allocator@VioHashString@@@std@@@std@@@std@@QAE@PAVioHashString@@PBU_Container_base0@1@@Z ENDP ; std::_Vector_iterator<std::_Vector_val<ioHashString,std::allocator<ioHashString> > >::_Vector_iterator<std::_Vector_val<ioHashString,std::allocator<ioHashString> > >
_TEXT	ENDS
PUBLIC	?max_size@?$allocator@VioHashString@@@std@@QBEIXZ ; std::allocator<ioHashString>::max_size
; Function compile flags: /Ogsp
; File c:\program files (x86)\microsoft visual studio 10.0\vc\include\xmemory
;	COMDAT ?max_size@?$allocator@VioHashString@@@std@@QBEIXZ
_TEXT	SEGMENT
?max_size@?$allocator@VioHashString@@@std@@QBEIXZ PROC	; std::allocator<ioHashString>::max_size, COMDAT
; _this$ = ecx

; 218  : 		_SIZT _Count = (_SIZT)(-1) / sizeof (_Ty);
; 219  : 		return (0 < _Count ? _Count : 1);

  00000	b8 ff ff ff 0f	 mov	 eax, 268435455		; 0fffffffH

; 220  : 		}

  00005	c3		 ret	 0
?max_size@?$allocator@VioHashString@@@std@@QBEIXZ ENDP	; std::allocator<ioHashString>::max_size
_TEXT	ENDS
PUBLIC	?_Compat@?$_Vector_const_iterator@V?$_Vector_val@VioHashString@@V?$allocator@VioHashString@@@std@@@std@@@std@@QBEXABV12@@Z ; std::_Vector_const_iterator<std::_Vector_val<ioHashString,std::allocator<ioHashString> > >::_Compat
; Function compile flags: /Ogsp
; File c:\program files (x86)\microsoft visual studio 10.0\vc\include\vector
;	COMDAT ?_Compat@?$_Vector_const_iterator@V?$_Vector_val@VioHashString@@V?$allocator@VioHashString@@@std@@@std@@@std@@QBEXABV12@@Z
_TEXT	SEGMENT
___formal$ = 8						; size = 4
?_Compat@?$_Vector_const_iterator@V?$_Vector_val@VioHashString@@V?$allocator@VioHashString@@@std@@@std@@@std@@QBEXABV12@@Z PROC ; std::_Vector_const_iterator<std::_Vector_val<ioHashString,std::allocator<ioHashString> > >::_Compat, COMDAT
; _this$ = ecx

; 253  : 		}

  00000	c2 04 00	 ret	 4
?_Compat@?$_Vector_const_iterator@V?$_Vector_val@VioHashString@@V?$allocator@VioHashString@@@std@@@std@@@std@@QBEXABV12@@Z ENDP ; std::_Vector_const_iterator<std::_Vector_val<ioHashString,std::allocator<ioHashString> > >::_Compat
_TEXT	ENDS
PUBLIC	??$_Allocate@VioHashString@@@std@@YAPAVioHashString@@IPAV1@@Z ; std::_Allocate<ioHashString>
; Function compile flags: /Ogsp
; File c:\program files (x86)\microsoft visual studio 10.0\vc\include\xmemory
;	COMDAT ??$_Allocate@VioHashString@@@std@@YAPAVioHashString@@IPAV1@@Z
_TEXT	SEGMENT
$T531398 = -12						; size = 12
$T531402 = 8						; size = 4
__Count$ = 8						; size = 4
___formal$ = 12						; size = 4
??$_Allocate@VioHashString@@@std@@YAPAVioHashString@@IPAV1@@Z PROC ; std::_Allocate<ioHashString>, COMDAT

; 30   : 	{	// allocate storage for _Count elements of type _Ty

  00000	55		 push	 ebp
  00001	8b ec		 mov	 ebp, esp

; 31   : 	void *_Ptr = 0;
; 32   : 
; 33   : 	if (_Count <= 0)

  00003	8b 4d 08	 mov	 ecx, DWORD PTR __Count$[ebp]
  00006	83 ec 0c	 sub	 esp, 12			; 0000000cH
  00009	33 c0		 xor	 eax, eax
  0000b	85 c9		 test	 ecx, ecx

; 34   : 		_Count = 0;
; 35   : 	else if (((_SIZT)(-1) / sizeof (_Ty) < _Count)

  0000d	74 3c		 je	 SHORT $LN5@Allocate@2

; 36   : 		|| (_Ptr = ::operator new(_Count * sizeof (_Ty))) == 0)

  0000f	81 f9 ff ff ff
	0f		 cmp	 ecx, 268435455		; 0fffffffH
  00015	77 0e		 ja	 SHORT $LN1@Allocate@2
  00017	c1 e1 04	 shl	 ecx, 4
  0001a	51		 push	 ecx
  0001b	e8 00 00 00 00	 call	 ??2@YAPAXI@Z		; operator new
  00020	59		 pop	 ecx
  00021	85 c0		 test	 eax, eax

; 38   : 
; 39   : 	return ((_Ty _FARQ *)_Ptr);

  00023	75 26		 jne	 SHORT $LN5@Allocate@2
$LN1@Allocate@2:

; 37   : 		_THROW_NCEE(bad_alloc, 0);

  00025	83 65 08 00	 and	 DWORD PTR $T531402[ebp], 0
  00029	8d 45 08	 lea	 eax, DWORD PTR $T531402[ebp]
  0002c	50		 push	 eax
  0002d	8d 4d f4	 lea	 ecx, DWORD PTR $T531398[ebp]
  00030	ff 15 00 00 00
	00		 call	 DWORD PTR __imp_??0exception@std@@QAE@ABQBD@Z
  00036	68 00 00 00 00	 push	 OFFSET __TI2?AVbad_alloc@std@@
  0003b	8d 45 f4	 lea	 eax, DWORD PTR $T531398[ebp]
  0003e	50		 push	 eax
  0003f	c7 45 f4 00 00
	00 00		 mov	 DWORD PTR $T531398[ebp], OFFSET ??_7bad_alloc@std@@6B@
  00046	e8 00 00 00 00	 call	 __CxxThrowException@8
$LN10@Allocate@2:
$LN5@Allocate@2:

; 40   : 	}

  0004b	c9		 leave
  0004c	c3		 ret	 0
$LN9@Allocate@2:
??$_Allocate@VioHashString@@@std@@YAPAVioHashString@@IPAV1@@Z ENDP ; std::_Allocate<ioHashString>
_TEXT	ENDS
EXTRN	__imp_??0exception@std@@QAE@ABV01@@Z:PROC
; Function compile flags: /Ogsp
;	COMDAT ??0bad_alloc@std@@QAE@ABV01@@Z
_TEXT	SEGMENT
___that$ = 8						; size = 4
??0bad_alloc@std@@QAE@ABV01@@Z PROC			; std::bad_alloc::bad_alloc, COMDAT
; _this$ = ecx
  00000	55		 push	 ebp
  00001	8b ec		 mov	 ebp, esp
  00003	56		 push	 esi
  00004	ff 75 08	 push	 DWORD PTR ___that$[ebp]
  00007	8b f1		 mov	 esi, ecx
  00009	ff 15 00 00 00
	00		 call	 DWORD PTR __imp_??0exception@std@@QAE@ABV01@@Z
  0000f	c7 06 00 00 00
	00		 mov	 DWORD PTR [esi], OFFSET ??_7bad_alloc@std@@6B@
  00015	8b c6		 mov	 eax, esi
  00017	5e		 pop	 esi
  00018	5d		 pop	 ebp
  00019	c2 04 00	 ret	 4
??0bad_alloc@std@@QAE@ABV01@@Z ENDP			; std::bad_alloc::bad_alloc
_TEXT	ENDS
PUBLIC	??$forward@ABVioHashString@@@std@@YAABVioHashString@@ABV1@@Z ; std::forward<ioHashString const &>
; Function compile flags: /Ogsp
; File c:\program files (x86)\microsoft visual studio 10.0\vc\include\utility
;	COMDAT ??$forward@ABVioHashString@@@std@@YAABVioHashString@@ABV1@@Z
_TEXT	SEGMENT
__Arg$ = 8						; size = 4
??$forward@ABVioHashString@@@std@@YAABVioHashString@@ABV1@@Z PROC ; std::forward<ioHashString const &>, COMDAT

; 78   : 	{	// forward _Arg, given explicitly specified type parameter

  00000	55		 push	 ebp
  00001	8b ec		 mov	 ebp, esp

; 79   : 	return ((_Ty&&)_Arg);

  00003	8b 45 08	 mov	 eax, DWORD PTR __Arg$[ebp]

; 80   : 	}

  00006	5d		 pop	 ebp
  00007	c3		 ret	 0
??$forward@ABVioHashString@@@std@@YAABVioHashString@@ABV1@@Z ENDP ; std::forward<ioHashString const &>
_TEXT	ENDS
PUBLIC	??$forward@AAVioHashString@@@std@@YAAAVioHashString@@AAV1@@Z ; std::forward<ioHashString &>
; Function compile flags: /Ogsp
;	COMDAT ??$forward@AAVioHashString@@@std@@YAAAVioHashString@@AAV1@@Z
_TEXT	SEGMENT
__Arg$ = 8						; size = 4
??$forward@AAVioHashString@@@std@@YAAAVioHashString@@AAV1@@Z PROC ; std::forward<ioHashString &>, COMDAT

; 78   : 	{	// forward _Arg, given explicitly specified type parameter

  00000	55		 push	 ebp
  00001	8b ec		 mov	 ebp, esp

; 79   : 	return ((_Ty&&)_Arg);

  00003	8b 45 08	 mov	 eax, DWORD PTR __Arg$[ebp]

; 80   : 	}

  00006	5d		 pop	 ebp
  00007	c3		 ret	 0
??$forward@AAVioHashString@@@std@@YAAAVioHashString@@AAV1@@Z ENDP ; std::forward<ioHashString &>
_TEXT	ENDS
PUBLIC	??$_Ptr_cat@VioHashString@@V1@@std@@YA?AU_Nonscalar_ptr_iterator_tag@0@PAVioHashString@@0@Z ; std::_Ptr_cat<ioHashString,ioHashString>
; Function compile flags: /Ogsp
; File c:\program files (x86)\microsoft visual studio 10.0\vc\include\xutility
;	COMDAT ??$_Ptr_cat@VioHashString@@V1@@std@@YA?AU_Nonscalar_ptr_iterator_tag@0@PAVioHashString@@0@Z
_TEXT	SEGMENT
__Cat$ = -1						; size = 1
___formal$ = 8						; size = 4
___formal$ = 12						; size = 4
??$_Ptr_cat@VioHashString@@V1@@std@@YA?AU_Nonscalar_ptr_iterator_tag@0@PAVioHashString@@0@Z PROC ; std::_Ptr_cat<ioHashString,ioHashString>, COMDAT

; 516  : 	{	// return pointer category from pointers

  00000	55		 push	 ebp
  00001	8b ec		 mov	 ebp, esp
  00003	51		 push	 ecx

; 517  : 	typename _Ptr_cat_helper<_Elem1, _Elem2>::_Type _Cat;
; 518  : 	return (_Cat);

  00004	8a 45 ff	 mov	 al, BYTE PTR __Cat$[ebp]

; 519  : 	}

  00007	c9		 leave
  00008	c3		 ret	 0
??$_Ptr_cat@VioHashString@@V1@@std@@YA?AU_Nonscalar_ptr_iterator_tag@0@PAVioHashString@@0@Z ENDP ; std::_Ptr_cat<ioHashString,ioHashString>
_TEXT	ENDS
PUBLIC	??$move@AAVioHashString@@@std@@YA$$QAVioHashString@@AAV1@@Z ; std::move<ioHashString &>
; Function compile flags: /Ogsp
; File c:\program files (x86)\microsoft visual studio 10.0\vc\include\utility
;	COMDAT ??$move@AAVioHashString@@@std@@YA$$QAVioHashString@@AAV1@@Z
_TEXT	SEGMENT
__Arg$ = 8						; size = 4
??$move@AAVioHashString@@@std@@YA$$QAVioHashString@@AAV1@@Z PROC ; std::move<ioHashString &>, COMDAT

; 86   : 	{	// forward _Arg as movable

  00000	55		 push	 ebp
  00001	8b ec		 mov	 ebp, esp

; 87   : 	return ((typename tr1::_Remove_reference<_Ty>::_Type&&)_Arg);

  00003	8b 45 08	 mov	 eax, DWORD PTR __Arg$[ebp]

; 88   : 	}

  00006	5d		 pop	 ebp
  00007	c3		 ret	 0
??$move@AAVioHashString@@@std@@YA$$QAVioHashString@@AAV1@@Z ENDP ; std::move<ioHashString &>
_TEXT	ENDS
PUBLIC	??_GioHashString@@QAEPAXI@Z			; ioHashString::`scalar deleting destructor'
; Function compile flags: /Ogsp
;	COMDAT ??_GioHashString@@QAEPAXI@Z
_TEXT	SEGMENT
___flags$ = 8						; size = 4
??_GioHashString@@QAEPAXI@Z PROC			; ioHashString::`scalar deleting destructor', COMDAT
; _this$ = ecx
  00000	55		 push	 ebp
  00001	8b ec		 mov	 ebp, esp
  00003	56		 push	 esi
  00004	8b f1		 mov	 esi, ecx
  00006	ff 15 00 00 00
	00		 call	 DWORD PTR __imp_??1ioHashString@@QAE@XZ
  0000c	f6 45 08 01	 test	 BYTE PTR ___flags$[ebp], 1
  00010	74 07		 je	 SHORT $LN1@scalar@3
  00012	56		 push	 esi
  00013	e8 00 00 00 00	 call	 ??3@YAXPAX@Z		; operator delete
  00018	59		 pop	 ecx
$LN1@scalar@3:
  00019	8b c6		 mov	 eax, esi
  0001b	5e		 pop	 esi
  0001c	5d		 pop	 ebp
  0001d	c2 04 00	 ret	 4
??_GioHashString@@QAEPAXI@Z ENDP			; ioHashString::`scalar deleting destructor'
_TEXT	ENDS
PUBLIC	??$_Construct@VioHashString@@ABV1@@std@@YAXPAVioHashString@@ABV1@@Z ; std::_Construct<ioHashString,ioHashString const &>
EXTRN	__imp_??0ioHashString@@QAE@ABV0@@Z:PROC
;	COMDAT xdata$x
xdata$x	SEGMENT
__unwindtable$??$_Construct@VioHashString@@ABV1@@std@@YAXPAVioHashString@@ABV1@@Z DD 0ffffffffH
	DD	FLAT:__unwindfunclet$??$_Construct@VioHashString@@ABV1@@std@@YAXPAVioHashString@@ABV1@@Z$0
__ehfuncinfo$??$_Construct@VioHashString@@ABV1@@std@@YAXPAVioHashString@@ABV1@@Z DD 019930522H
	DD	01H
	DD	FLAT:__unwindtable$??$_Construct@VioHashString@@ABV1@@std@@YAXPAVioHashString@@ABV1@@Z
	DD	2 DUP(00H)
	DD	2 DUP(00H)
	DD	00H
	DD	01H
; Function compile flags: /Ogsp
; File c:\program files (x86)\microsoft visual studio 10.0\vc\include\xmemory
xdata$x	ENDS
;	COMDAT ??$_Construct@VioHashString@@ABV1@@std@@YAXPAVioHashString@@ABV1@@Z
_TEXT	SEGMENT
$T531421 = -16						; size = 4
__$EHRec$ = -12						; size = 12
__Vptr$ = 8						; size = 4
__Ptr$ = 8						; size = 4
__Val$ = 12						; size = 4
??$_Construct@VioHashString@@ABV1@@std@@YAXPAVioHashString@@ABV1@@Z PROC ; std::_Construct<ioHashString,ioHashString const &>, COMDAT

; 46   : 	{	// construct object at _Ptr with value _Val

  00000	6a 04		 push	 4
  00002	b8 00 00 00 00	 mov	 eax, __ehhandler$??$_Construct@VioHashString@@ABV1@@std@@YAXPAVioHashString@@ABV1@@Z
  00007	e8 00 00 00 00	 call	 __EH_prolog3

; 47   : 	void _FARQ *_Vptr = _Ptr;

  0000c	8b 4d 08	 mov	 ecx, DWORD PTR __Ptr$[ebp]
  0000f	89 4d 08	 mov	 DWORD PTR __Vptr$[ebp], ecx

; 48   : 	::new (_Vptr) _Ty1(_STD forward<_Ty2>(_Val));

  00012	89 4d f0	 mov	 DWORD PTR $T531421[ebp], ecx
  00015	83 65 fc 00	 and	 DWORD PTR __$EHRec$[ebp+8], 0
  00019	85 c9		 test	 ecx, ecx
  0001b	74 09		 je	 SHORT $LN3@Construct@2
  0001d	ff 75 0c	 push	 DWORD PTR __Val$[ebp]
  00020	ff 15 00 00 00
	00		 call	 DWORD PTR __imp_??0ioHashString@@QAE@ABV0@@Z
$LN3@Construct@2:

; 49   : 	}

  00026	e8 00 00 00 00	 call	 __EH_epilog3
  0002b	c3		 ret	 0
_TEXT	ENDS
;	COMDAT text$x
text$x	SEGMENT
__unwindfunclet$??$_Construct@VioHashString@@ABV1@@std@@YAXPAVioHashString@@ABV1@@Z$0:
  00000	ff 75 08	 push	 DWORD PTR __Vptr$[ebp]
  00003	ff 75 f0	 push	 DWORD PTR $T531421[ebp]
  00006	e8 00 00 00 00	 call	 ??3@YAXPAX0@Z		; operator delete
  0000b	59		 pop	 ecx
  0000c	59		 pop	 ecx
  0000d	c3		 ret	 0
__ehhandler$??$_Construct@VioHashString@@ABV1@@std@@YAXPAVioHashString@@ABV1@@Z:
  0000e	8b 54 24 08	 mov	 edx, DWORD PTR [esp+8]
  00012	8d 42 0c	 lea	 eax, DWORD PTR [edx+12]
  00015	8b 4a ec	 mov	 ecx, DWORD PTR [edx-20]
  00018	33 c8		 xor	 ecx, eax
  0001a	e8 00 00 00 00	 call	 @__security_check_cookie@4
  0001f	b8 00 00 00 00	 mov	 eax, OFFSET __ehfuncinfo$??$_Construct@VioHashString@@ABV1@@std@@YAXPAVioHashString@@ABV1@@Z
  00024	e9 00 00 00 00	 jmp	 ___CxxFrameHandler3
text$x	ENDS
??$_Construct@VioHashString@@ABV1@@std@@YAXPAVioHashString@@ABV1@@Z ENDP ; std::_Construct<ioHashString,ioHashString const &>
PUBLIC	??_GEmoticonInfo@@QAEPAXI@Z			; EmoticonInfo::`scalar deleting destructor'
; Function compile flags: /Ogsp
;	COMDAT ??_GEmoticonInfo@@QAEPAXI@Z
_TEXT	SEGMENT
___flags$ = 8						; size = 4
??_GEmoticonInfo@@QAEPAXI@Z PROC			; EmoticonInfo::`scalar deleting destructor', COMDAT
; _this$ = ecx
  00000	55		 push	 ebp
  00001	8b ec		 mov	 ebp, esp
  00003	56		 push	 esi
  00004	8b f1		 mov	 esi, ecx
  00006	e8 00 00 00 00	 call	 ??1EmoticonInfo@@QAE@XZ
  0000b	f6 45 08 01	 test	 BYTE PTR ___flags$[ebp], 1
  0000f	74 07		 je	 SHORT $LN1@scalar@4
  00011	56		 push	 esi
  00012	e8 00 00 00 00	 call	 ??3@YAXPAX@Z		; operator delete
  00017	59		 pop	 ecx
$LN1@scalar@4:
  00018	8b c6		 mov	 eax, esi
  0001a	5e		 pop	 esi
  0001b	5d		 pop	 ebp
  0001c	c2 04 00	 ret	 4
??_GEmoticonInfo@@QAEPAXI@Z ENDP			; EmoticonInfo::`scalar deleting destructor'
_TEXT	ENDS
PUBLIC	?SetKillPoint@ioCharEmoticon@@QAEXABVioHashString@@00H_N@Z ; ioCharEmoticon::SetKillPoint
; Function compile flags: /Ogsp
; File d:\lost saga for developer\youtube\tutorial\source\src\lsclient\iocharemoticon.cpp
;	COMDAT ?SetKillPoint@ioCharEmoticon@@QAEXABVioHashString@@00H_N@Z
_TEXT	SEGMENT
_szEmoticon$ = 8					; size = 4
_szIconNum$ = 12					; size = 4
_szPer$ = 16						; size = 4
_iPoint$ = 20						; size = 4
_bOwnerChar$ = 24					; size = 1
?SetKillPoint@ioCharEmoticon@@QAEXABVioHashString@@00H_N@Z PROC ; ioCharEmoticon::SetKillPoint, COMDAT
; _this$ = ecx

; 247  : {

  00000	55		 push	 ebp
  00001	8b ec		 mov	 ebp, esp

; 248  : 	m_iKillPoint = iPoint;

  00003	8b 45 14	 mov	 eax, DWORD PTR _iPoint$[ebp]
  00006	53		 push	 ebx
  00007	56		 push	 esi

; 249  : 	SetEmoticon( szEmoticon, EMT_KILL_POINT, bOwnerChar );

  00008	6a 00		 push	 0
  0000a	ff 75 18	 push	 DWORD PTR _bOwnerChar$[ebp]
  0000d	8b f1		 mov	 esi, ecx
  0000f	6a 0b		 push	 11			; 0000000bH
  00011	ff 75 08	 push	 DWORD PTR _szEmoticon$[ebp]
  00014	89 46 28	 mov	 DWORD PTR [esi+40], eax
  00017	e8 00 00 00 00	 call	 ?SetEmoticon@ioCharEmoticon@@QAEXABVioHashString@@W4EmoticonType@@_NK@Z ; ioCharEmoticon::SetEmoticon

; 250  : 
; 251  : 	if( !szIconNum.IsEmpty() && !m_pKillPointNum )

  0001c	8b 4d 0c	 mov	 ecx, DWORD PTR _szIconNum$[ebp]
  0001f	ff 15 00 00 00
	00		 call	 DWORD PTR __imp_?IsEmpty@ioHashString@@QBE_NXZ
  00025	8b 1d 00 00 00
	00		 mov	 ebx, DWORD PTR __imp_?CreateImageByFullName@ioUIImageSetManager@@QAEPAVioUIRenderImage@@ABVioHashString@@_N@Z
  0002b	84 c0		 test	 al, al
  0002d	75 20		 jne	 SHORT $LN5@SetKillPoi
  0002f	83 be c0 00 00
	00 00		 cmp	 DWORD PTR [esi+192], 0
  00036	57		 push	 edi
  00037	75 15		 jne	 SHORT $LN6@SetKillPoi

; 252  : 	{
; 253  : 		m_pKillPointNum = g_UIImageSetMgr.CreateImageByFullName( szIconNum );

  00039	6a 00		 push	 0
  0003b	ff 75 0c	 push	 DWORD PTR _szIconNum$[ebp]
  0003e	ff 15 00 00 00
	00		 call	 DWORD PTR __imp_?GetSingleton@ioUIImageSetManager@@SAAAV1@XZ
  00044	8b c8		 mov	 ecx, eax
  00046	ff d3		 call	 ebx
  00048	89 86 c0 00 00
	00		 mov	 DWORD PTR [esi+192], eax
$LN6@SetKillPoi:
  0004e	5f		 pop	 edi
$LN5@SetKillPoi:

; 254  : 	}
; 255  : 
; 256  : 	if( !szPer.IsEmpty() && !m_pKillPointPer )

  0004f	8b 4d 10	 mov	 ecx, DWORD PTR _szPer$[ebp]
  00052	ff 15 00 00 00
	00		 call	 DWORD PTR __imp_?IsEmpty@ioHashString@@QBE_NXZ
  00058	84 c0		 test	 al, al
  0005a	75 1e		 jne	 SHORT $LN1@SetKillPoi
  0005c	83 be c4 00 00
	00 00		 cmp	 DWORD PTR [esi+196], 0
  00063	75 15		 jne	 SHORT $LN1@SetKillPoi

; 257  : 	{
; 258  : 		m_pKillPointPer = g_UIImageSetMgr.CreateImageByFullName( szPer );

  00065	6a 00		 push	 0
  00067	ff 75 10	 push	 DWORD PTR _szPer$[ebp]
  0006a	ff 15 00 00 00
	00		 call	 DWORD PTR __imp_?GetSingleton@ioUIImageSetManager@@SAAAV1@XZ
  00070	8b c8		 mov	 ecx, eax
  00072	ff d3		 call	 ebx
  00074	89 86 c4 00 00
	00		 mov	 DWORD PTR [esi+196], eax
$LN1@SetKillPoi:
  0007a	5e		 pop	 esi
  0007b	5b		 pop	 ebx

; 259  : 	}
; 260  : }

  0007c	5d		 pop	 ebp
  0007d	c2 14 00	 ret	 20			; 00000014H
?SetKillPoint@ioCharEmoticon@@QAEXABVioHashString@@00H_N@Z ENDP ; ioCharEmoticon::SetKillPoint
_TEXT	ENDS
PUBLIC	?SetFishingGrade@ioCharEmoticon@@QAEXABVioHashString@@0_NK@Z ; ioCharEmoticon::SetFishingGrade
; Function compile flags: /Ogsp
;	COMDAT ?SetFishingGrade@ioCharEmoticon@@QAEXABVioHashString@@0_NK@Z
_TEXT	SEGMENT
_szEmoticon$ = 8					; size = 4
_szGrade$ = 12						; size = 4
_bOwnerChar$ = 16					; size = 1
_dwDuration$ = 20					; size = 4
?SetFishingGrade@ioCharEmoticon@@QAEXABVioHashString@@0_NK@Z PROC ; ioCharEmoticon::SetFishingGrade, COMDAT
; _this$ = ecx

; 263  : {

  00000	55		 push	 ebp
  00001	8b ec		 mov	 ebp, esp
  00003	56		 push	 esi

; 264  : 	SetEmoticon( szEmoticon, EMT_FISHING_GRADE, bOwnerChar );

  00004	6a 00		 push	 0
  00006	ff 75 10	 push	 DWORD PTR _bOwnerChar$[ebp]
  00009	8b f1		 mov	 esi, ecx
  0000b	6a 0c		 push	 12			; 0000000cH
  0000d	ff 75 08	 push	 DWORD PTR _szEmoticon$[ebp]
  00010	e8 00 00 00 00	 call	 ?SetEmoticon@ioCharEmoticon@@QAEXABVioHashString@@W4EmoticonType@@_NK@Z ; ioCharEmoticon::SetEmoticon

; 265  : 
; 266  : 	if( !szGrade.IsEmpty() )

  00015	8b 4d 0c	 mov	 ecx, DWORD PTR _szGrade$[ebp]
  00018	ff 15 00 00 00
	00		 call	 DWORD PTR __imp_?IsEmpty@ioHashString@@QBE_NXZ
  0001e	84 c0		 test	 al, al
  00020	75 31		 jne	 SHORT $LN2@SetFishing

; 267  : 	{
; 268  : 		SAFEDELETE( m_pFishingGrade );

  00022	8b 8e ec 00 00
	00		 mov	 ecx, DWORD PTR [esi+236]
  00028	85 c9		 test	 ecx, ecx
  0002a	74 0e		 je	 SHORT $LN1@SetFishing
  0002c	8b 01		 mov	 eax, DWORD PTR [ecx]
  0002e	6a 01		 push	 1
  00030	ff 50 40	 call	 DWORD PTR [eax+64]
  00033	83 a6 ec 00 00
	00 00		 and	 DWORD PTR [esi+236], 0
$LN1@SetFishing:

; 269  : 		m_pFishingGrade = g_UIImageSetMgr.CreateImageByFullName( szGrade );

  0003a	6a 00		 push	 0
  0003c	ff 75 0c	 push	 DWORD PTR _szGrade$[ebp]
  0003f	ff 15 00 00 00
	00		 call	 DWORD PTR __imp_?GetSingleton@ioUIImageSetManager@@SAAAV1@XZ
  00045	8b c8		 mov	 ecx, eax
  00047	ff 15 00 00 00
	00		 call	 DWORD PTR __imp_?CreateImageByFullName@ioUIImageSetManager@@QAEPAVioUIRenderImage@@ABVioHashString@@_N@Z
  0004d	89 86 ec 00 00
	00		 mov	 DWORD PTR [esi+236], eax
$LN2@SetFishing:
  00053	5e		 pop	 esi

; 270  : 	}
; 271  : }

  00054	5d		 pop	 ebp
  00055	c2 10 00	 ret	 16			; 00000010H
?SetFishingGrade@ioCharEmoticon@@QAEXABVioHashString@@0_NK@Z ENDP ; ioCharEmoticon::SetFishingGrade
_TEXT	ENDS
PUBLIC	?SetFishingLevelUp@ioCharEmoticon@@QAEXABVioHashString@@0_NK@Z ; ioCharEmoticon::SetFishingLevelUp
; Function compile flags: /Ogsp
;	COMDAT ?SetFishingLevelUp@ioCharEmoticon@@QAEXABVioHashString@@0_NK@Z
_TEXT	SEGMENT
_szEmoticon$ = 8					; size = 4
_szLevelUp$ = 12					; size = 4
_bOwnerChar$ = 16					; size = 1
_dwDuration$ = 20					; size = 4
?SetFishingLevelUp@ioCharEmoticon@@QAEXABVioHashString@@0_NK@Z PROC ; ioCharEmoticon::SetFishingLevelUp, COMDAT
; _this$ = ecx

; 274  : {

  00000	55		 push	 ebp
  00001	8b ec		 mov	 ebp, esp
  00003	56		 push	 esi

; 275  : 	SetEmoticon( szEmoticon, EMT_FISHING_LEVEL_UP, bOwnerChar );

  00004	6a 00		 push	 0
  00006	ff 75 10	 push	 DWORD PTR _bOwnerChar$[ebp]
  00009	8b f1		 mov	 esi, ecx
  0000b	6a 0d		 push	 13			; 0000000dH
  0000d	ff 75 08	 push	 DWORD PTR _szEmoticon$[ebp]
  00010	e8 00 00 00 00	 call	 ?SetEmoticon@ioCharEmoticon@@QAEXABVioHashString@@W4EmoticonType@@_NK@Z ; ioCharEmoticon::SetEmoticon

; 276  : 
; 277  : 	SAFEDELETE( m_pFishingLevelUp );

  00015	8b 8e f0 00 00
	00		 mov	 ecx, DWORD PTR [esi+240]
  0001b	85 c9		 test	 ecx, ecx
  0001d	74 0e		 je	 SHORT $LN2@SetFishing@2
  0001f	8b 01		 mov	 eax, DWORD PTR [ecx]
  00021	6a 01		 push	 1
  00023	ff 50 40	 call	 DWORD PTR [eax+64]
  00026	83 a6 f0 00 00
	00 00		 and	 DWORD PTR [esi+240], 0
$LN2@SetFishing@2:

; 278  : 
; 279  : 	if( !szLevelUp.IsEmpty() )

  0002d	8b 4d 0c	 mov	 ecx, DWORD PTR _szLevelUp$[ebp]
  00030	ff 15 00 00 00
	00		 call	 DWORD PTR __imp_?IsEmpty@ioHashString@@QBE_NXZ
  00036	84 c0		 test	 al, al
  00038	75 19		 jne	 SHORT $LN1@SetFishing@2

; 280  : 	{
; 281  : 		m_pFishingLevelUp = g_UIImageSetMgr.CreateImageByFullName( szLevelUp );

  0003a	6a 00		 push	 0
  0003c	ff 75 0c	 push	 DWORD PTR _szLevelUp$[ebp]
  0003f	ff 15 00 00 00
	00		 call	 DWORD PTR __imp_?GetSingleton@ioUIImageSetManager@@SAAAV1@XZ
  00045	8b c8		 mov	 ecx, eax
  00047	ff 15 00 00 00
	00		 call	 DWORD PTR __imp_?CreateImageByFullName@ioUIImageSetManager@@QAEPAVioUIRenderImage@@ABVioHashString@@_N@Z
  0004d	89 86 f0 00 00
	00		 mov	 DWORD PTR [esi+240], eax
$LN1@SetFishing@2:
  00053	5e		 pop	 esi

; 282  : 	}
; 283  : }

  00054	5d		 pop	 ebp
  00055	c2 10 00	 ret	 16			; 00000010H
?SetFishingLevelUp@ioCharEmoticon@@QAEXABVioHashString@@0_NK@Z ENDP ; ioCharEmoticon::SetFishingLevelUp
_TEXT	ENDS
PUBLIC	?SetUserRankEmoticon@ioCharEmoticon@@QAEXABVioHashString@@0H_N@Z ; ioCharEmoticon::SetUserRankEmoticon
; Function compile flags: /Ogsp
;	COMDAT ?SetUserRankEmoticon@ioCharEmoticon@@QAEXABVioHashString@@0H_N@Z
_TEXT	SEGMENT
_szEmoticon$ = 8					; size = 4
_szRankNumber$ = 12					; size = 4
_iRank$ = 16						; size = 4
_bOwnerChar$ = 20					; size = 1
?SetUserRankEmoticon@ioCharEmoticon@@QAEXABVioHashString@@0H_N@Z PROC ; ioCharEmoticon::SetUserRankEmoticon, COMDAT
; _this$ = ecx

; 289  : {

  00000	55		 push	 ebp
  00001	8b ec		 mov	 ebp, esp

; 290  : 	m_iCharRank = iRank;

  00003	8b 45 10	 mov	 eax, DWORD PTR _iRank$[ebp]
  00006	56		 push	 esi

; 291  : 	SetEmoticon( szEmoticon, EMT_USER_RANK, bOwnerChar );

  00007	6a 00		 push	 0
  00009	ff 75 14	 push	 DWORD PTR _bOwnerChar$[ebp]
  0000c	8b f1		 mov	 esi, ecx
  0000e	6a 07		 push	 7
  00010	ff 75 08	 push	 DWORD PTR _szEmoticon$[ebp]
  00013	89 46 64	 mov	 DWORD PTR [esi+100], eax
  00016	e8 00 00 00 00	 call	 ?SetEmoticon@ioCharEmoticon@@QAEXABVioHashString@@W4EmoticonType@@_NK@Z ; ioCharEmoticon::SetEmoticon

; 292  : 
; 293  : 	if( !szRankNumber.IsEmpty() )

  0001b	8b 4d 0c	 mov	 ecx, DWORD PTR _szRankNumber$[ebp]
  0001e	ff 15 00 00 00
	00		 call	 DWORD PTR __imp_?IsEmpty@ioHashString@@QBE_NXZ
  00024	84 c0		 test	 al, al
  00026	75 28		 jne	 SHORT $LN2@SetUserRan

; 294  : 	{
; 295  : 		SAFEDELETE( m_pEmoticonNum );

  00028	8b 4e 08	 mov	 ecx, DWORD PTR [esi+8]
  0002b	85 c9		 test	 ecx, ecx
  0002d	74 0b		 je	 SHORT $LN1@SetUserRan
  0002f	8b 01		 mov	 eax, DWORD PTR [ecx]
  00031	6a 01		 push	 1
  00033	ff 50 40	 call	 DWORD PTR [eax+64]
  00036	83 66 08 00	 and	 DWORD PTR [esi+8], 0
$LN1@SetUserRan:

; 296  : 		m_pEmoticonNum = g_UIImageSetMgr.CreateImageByFullName( szRankNumber );

  0003a	6a 00		 push	 0
  0003c	ff 75 0c	 push	 DWORD PTR _szRankNumber$[ebp]
  0003f	ff 15 00 00 00
	00		 call	 DWORD PTR __imp_?GetSingleton@ioUIImageSetManager@@SAAAV1@XZ
  00045	8b c8		 mov	 ecx, eax
  00047	ff 15 00 00 00
	00		 call	 DWORD PTR __imp_?CreateImageByFullName@ioUIImageSetManager@@QAEPAVioUIRenderImage@@ABVioHashString@@_N@Z
  0004d	89 46 08	 mov	 DWORD PTR [esi+8], eax
$LN2@SetUserRan:
  00050	5e		 pop	 esi

; 297  : 	}
; 298  : }

  00051	5d		 pop	 ebp
  00052	c2 10 00	 ret	 16			; 00000010H
?SetUserRankEmoticon@ioCharEmoticon@@QAEXABVioHashString@@0H_N@Z ENDP ; ioCharEmoticon::SetUserRankEmoticon
_TEXT	ENDS
PUBLIC	?RenderChatBubble@ioCharEmoticon@@IAE_NXZ	; ioCharEmoticon::RenderChatBubble
EXTRN	__imp_?GetWidth@ioUIRenderElement@@QBEHXZ:PROC
; Function compile flags: /Ogsp
;	COMDAT ?RenderChatBubble@ioCharEmoticon@@IAE_NXZ
_TEXT	SEGMENT
?RenderChatBubble@ioCharEmoticon@@IAE_NXZ PROC		; ioCharEmoticon::RenderChatBubble, COMDAT
; _this$ = ecx

; 1253 : {

  00000	53		 push	 ebx
  00001	56		 push	 esi
  00002	8b f1		 mov	 esi, ecx

; 1254 : 	if( !m_bInScreen )

  00004	33 db		 xor	 ebx, ebx
  00006	38 9e 89 00 00
	00		 cmp	 BYTE PTR [esi+137], bl

; 1255 : 		return false;

  0000c	0f 84 1a 01 00
	00		 je	 $LN8@RenderChat

; 1256 : 
; 1257 : 	if(    m_State == ES_END_WHITE 
; 1258 : 		|| m_State == ES_END_ALPHA )

  00012	8b 46 68	 mov	 eax, DWORD PTR [esi+104]
  00015	83 f8 03	 cmp	 eax, 3
  00018	0f 84 0e 01 00
	00		 je	 $LN8@RenderChat
  0001e	83 f8 04	 cmp	 eax, 4
  00021	0f 84 05 01 00
	00		 je	 $LN8@RenderChat

; 1261 : 	}
; 1262 : 
; 1263 : 	if(    m_Type != EMT_CHAT_ICON 
; 1264 : 		&& m_Type != EMT_3D_CHAT_ICON )

  00027	8b 46 6c	 mov	 eax, DWORD PTR [esi+108]
  0002a	83 f8 05	 cmp	 eax, 5
  0002d	74 09		 je	 SHORT $LN7@RenderChat
  0002f	83 f8 06	 cmp	 eax, 6

; 1265 : 	{
; 1266 : 		return false;

  00032	0f 85 f4 00 00
	00		 jne	 $LN8@RenderChat
$LN7@RenderChat:

; 1267 : 	}
; 1268 : 
; 1269 : 	if( m_vChatTextVec.empty() )

  00038	8b 8e d0 00 00
	00		 mov	 ecx, DWORD PTR [esi+208]
  0003e	8b 86 d4 00 00
	00		 mov	 eax, DWORD PTR [esi+212]
  00044	3b c8		 cmp	 ecx, eax

; 1270 : 		return false;

  00046	0f 84 e0 00 00
	00		 je	 $LN8@RenderChat

; 1271 : 
; 1272 : 	if(	   !m_pChatBubbleCenter 
; 1273 : 		|| !m_pChatBubbleRight )

  0004c	39 9e c8 00 00
	00		 cmp	 DWORD PTR [esi+200], ebx
  00052	0f 84 d4 00 00
	00		 je	 $LN8@RenderChat
  00058	39 9e cc 00 00
	00		 cmp	 DWORD PTR [esi+204], ebx
  0005e	0f 84 c8 00 00
	00		 je	 $LN8@RenderChat

; 1274 : 	{
; 1275 : 		return false;
; 1276 : 	}
; 1277 : 	
; 1278 : 	enum 
; 1279 : 	{
; 1280 : 		ONE_LINE_YOFFSET      = -12,
; 1281 : 		TWO_LINE_YOFFSET      = -20,
; 1282 : 	};
; 1283 : 
; 1284 : 	int iSzie = m_vChatTextVec.size();

  00064	2b c1		 sub	 eax, ecx
  00066	c1 f8 04	 sar	 eax, 4
  00069	57		 push	 edi

; 1285 : 	if( iSzie == 1 )

  0006a	83 f8 01	 cmp	 eax, 1
  0006d	75 40		 jne	 SHORT $LN3@RenderChat

; 1286 : 	{
; 1287 : 		m_pChatBubbleCenter->Render( m_iRenderXPos, m_iRenderYPos + ONE_LINE_YOFFSET );

  0006f	8b 8e c8 00 00
	00		 mov	 ecx, DWORD PTR [esi+200]
  00075	8b 56 7c	 mov	 edx, DWORD PTR [esi+124]
  00078	8b 01		 mov	 eax, DWORD PTR [ecx]
  0007a	53		 push	 ebx
  0007b	53		 push	 ebx
  0007c	53		 push	 ebx
  0007d	53		 push	 ebx
  0007e	0f 57 c0	 xorps	 xmm0, xmm0
  00081	51		 push	 ecx
  00082	83 ea 0c	 sub	 edx, 12			; 0000000cH
  00085	f3 0f 2a c2	 cvtsi2ss xmm0, edx
  00089	51		 push	 ecx
  0008a	f3 0f 11 44 24
	04		 movss	 DWORD PTR [esp+4], xmm0
  00090	66 0f 6e 46 78	 movd	 xmm0, DWORD PTR [esi+120]
  00095	0f 5b c0	 cvtdq2ps xmm0, xmm0
  00098	f3 0f 11 04 24	 movss	 DWORD PTR [esp], xmm0
  0009d	ff 10		 call	 DWORD PTR [eax]

; 1288 : 		m_pChatBubbleRight->Render( m_iRenderXPos + m_pChatBubbleCenter->GetWidth(), m_iRenderYPos + ONE_LINE_YOFFSET );

  0009f	8b 86 cc 00 00
	00		 mov	 eax, DWORD PTR [esi+204]
  000a5	8b 38		 mov	 edi, DWORD PTR [eax]
  000a7	8b 46 7c	 mov	 eax, DWORD PTR [esi+124]
  000aa	83 e8 0c	 sub	 eax, 12			; 0000000cH
  000ad	eb 43		 jmp	 SHORT $LN17@RenderChat
$LN3@RenderChat:

; 1289 : 	}
; 1290 : 	else if( iSzie == 2 )

  000af	83 f8 02	 cmp	 eax, 2
  000b2	75 73		 jne	 SHORT $LN1@RenderChat

; 1291 : 	{
; 1292 : 		m_pChatBubbleCenter->Render( m_iRenderXPos, m_iRenderYPos + TWO_LINE_YOFFSET );

  000b4	8b 8e c8 00 00
	00		 mov	 ecx, DWORD PTR [esi+200]
  000ba	8b 56 7c	 mov	 edx, DWORD PTR [esi+124]
  000bd	8b 01		 mov	 eax, DWORD PTR [ecx]
  000bf	53		 push	 ebx
  000c0	53		 push	 ebx
  000c1	53		 push	 ebx
  000c2	53		 push	 ebx
  000c3	0f 57 c0	 xorps	 xmm0, xmm0
  000c6	51		 push	 ecx
  000c7	83 ea 14	 sub	 edx, 20			; 00000014H
  000ca	f3 0f 2a c2	 cvtsi2ss xmm0, edx
  000ce	51		 push	 ecx
  000cf	f3 0f 11 44 24
	04		 movss	 DWORD PTR [esp+4], xmm0
  000d5	66 0f 6e 46 78	 movd	 xmm0, DWORD PTR [esi+120]
  000da	0f 5b c0	 cvtdq2ps xmm0, xmm0
  000dd	f3 0f 11 04 24	 movss	 DWORD PTR [esp], xmm0
  000e2	ff 10		 call	 DWORD PTR [eax]

; 1293 : 		m_pChatBubbleRight->Render( m_iRenderXPos + m_pChatBubbleCenter->GetWidth(), m_iRenderYPos + TWO_LINE_YOFFSET );

  000e4	8b 86 cc 00 00
	00		 mov	 eax, DWORD PTR [esi+204]
  000ea	8b 38		 mov	 edi, DWORD PTR [eax]
  000ec	8b 46 7c	 mov	 eax, DWORD PTR [esi+124]
  000ef	83 e8 14	 sub	 eax, 20			; 00000014H
$LN17@RenderChat:
  000f2	53		 push	 ebx
  000f3	53		 push	 ebx
  000f4	53		 push	 ebx
  000f5	53		 push	 ebx
  000f6	51		 push	 ecx
  000f7	8b 8e c8 00 00
	00		 mov	 ecx, DWORD PTR [esi+200]
  000fd	0f 57 c0	 xorps	 xmm0, xmm0
  00100	f3 0f 2a c0	 cvtsi2ss xmm0, eax
  00104	f3 0f 11 04 24	 movss	 DWORD PTR [esp], xmm0
  00109	ff 15 00 00 00
	00		 call	 DWORD PTR __imp_?GetWidth@ioUIRenderElement@@QBEHXZ
  0010f	03 46 78	 add	 eax, DWORD PTR [esi+120]
  00112	51		 push	 ecx
  00113	8b 8e cc 00 00
	00		 mov	 ecx, DWORD PTR [esi+204]
  00119	0f 57 c0	 xorps	 xmm0, xmm0
  0011c	f3 0f 2a c0	 cvtsi2ss xmm0, eax
  00120	f3 0f 11 04 24	 movss	 DWORD PTR [esp], xmm0
  00125	ff 17		 call	 DWORD PTR [edi]
$LN1@RenderChat:

; 1294 : 	}
; 1295 : 
; 1296 : 	return true;

  00127	b0 01		 mov	 al, 1
  00129	5f		 pop	 edi
  0012a	eb 02		 jmp	 SHORT $LN11@RenderChat
$LN8@RenderChat:

; 1259 : 	{
; 1260 : 		return false;

  0012c	32 c0		 xor	 al, al
$LN11@RenderChat:
  0012e	5e		 pop	 esi
  0012f	5b		 pop	 ebx

; 1297 : }

  00130	c3		 ret	 0
?RenderChatBubble@ioCharEmoticon@@IAE_NXZ ENDP		; ioCharEmoticon::RenderChatBubble
_TEXT	ENDS
PUBLIC	__real@42be0000
PUBLIC	__real@3f266666
PUBLIC	?RenderChatText@ioCharEmoticon@@IAEXXZ		; ioCharEmoticon::RenderChatText
EXTRN	__imp_?PrintTextWidthCut@ioFontManager@@QAAXMMMMPBDZZ:PROC
EXTRN	__imp_?PrintText@ioFontManager@@QAAXMMMPBDZZ:PROC
;	COMDAT __real@42be0000
; File c:\program files (x86)\microsoft visual studio 10.0\vc\include\vector
CONST	SEGMENT
__real@42be0000 DD 042be0000r			; 95
CONST	ENDS
;	COMDAT __real@3f266666
CONST	SEGMENT
__real@3f266666 DD 03f266666r			; 0.65
; Function compile flags: /Ogsp
; File d:\lost saga for developer\youtube\tutorial\source\src\lsclient\iocharemoticon.cpp
CONST	ENDS
;	COMDAT ?RenderChatText@ioCharEmoticon@@IAEXXZ
_TEXT	SEGMENT
?RenderChatText@ioCharEmoticon@@IAEXXZ PROC		; ioCharEmoticon::RenderChatText, COMDAT
; _this$ = ecx

; 1300 : {

  00000	56		 push	 esi
  00001	8b f1		 mov	 esi, ecx

; 1301 : 	if( m_vChatTextVec.empty() )

  00003	8b 86 d0 00 00
	00		 mov	 eax, DWORD PTR [esi+208]
  00009	3b 86 d4 00 00
	00		 cmp	 eax, DWORD PTR [esi+212]
  0000f	0f 84 55 01 00
	00		 je	 $LN1@RenderChat@2

; 1302 : 		return;
; 1303 : 
; 1304 : 	enum 
; 1305 : 	{
; 1306 : 		ONE_LINE_TEXT_XOFFSET     =  26,
; 1307 : 		ONE_LINE_TEXT_YOFFSET     = -10,
; 1308 : 
; 1309 : 		TWO_LINE_TEXT_1_XOFFSET   =  26,
; 1310 : 		TWO_LINE_TEXT_1_YOFFSET   = -18,
; 1311 : 		TWO_LINE_TEXT_2_XOFFSET   =  26,
; 1312 : 		TWO_LINE_TEXT_2_YOFFSET   =  -2,
; 1313 : 
; 1314 : 		MAX_TEXT_WIDTH            = 95,
; 1315 : 	};
; 1316 : 
; 1317 : 	g_FontMgr.SetBkColor( 0, 0, 0 );

  00015	57		 push	 edi
  00016	8b 3d 00 00 00
	00		 mov	 edi, DWORD PTR __imp_?GetSingleton@ioFontManager@@SAAAV1@XZ
  0001c	6a 00		 push	 0
  0001e	6a 00		 push	 0
  00020	6a 00		 push	 0
  00022	ff d7		 call	 edi
  00024	8b c8		 mov	 ecx, eax
  00026	ff 15 00 00 00
	00		 call	 DWORD PTR __imp_?SetBkColor@ioFontManager@@QAEXHHH@Z

; 1318 : 	g_FontMgr.SetTextStyle( TS_OUTLINE_FULL_2X );

  0002c	6a 05		 push	 5
  0002e	ff d7		 call	 edi
  00030	8b c8		 mov	 ecx, eax
  00032	ff 15 00 00 00
	00		 call	 DWORD PTR __imp_?SetTextStyle@ioFontManager@@QAEXW4TextStyle@@@Z

; 1319 : 	g_FontMgr.SetAlignType( TAT_LEFT );

  00038	6a 00		 push	 0
  0003a	ff d7		 call	 edi
  0003c	8b c8		 mov	 ecx, eax
  0003e	ff 15 00 00 00
	00		 call	 DWORD PTR __imp_?SetAlignType@ioFontManager@@QAEXW4TextAlignType@@@Z

; 1320 : 	g_FontMgr.SetTextColor( TCT_DEFAULT_GRAY );

  00044	68 6e 6e 6e ff	 push	 -9539986		; ff6e6e6eH
  00049	ff d7		 call	 edi
  0004b	8b c8		 mov	 ecx, eax
  0004d	ff 15 00 00 00
	00		 call	 DWORD PTR __imp_?SetTextColor@ioFontManager@@QAEXK@Z

; 1321 : 
; 1322 : 	int iSzie = m_vChatTextVec.size();

  00053	8b 8e d0 00 00
	00		 mov	 ecx, DWORD PTR [esi+208]
  00059	8b 86 d4 00 00
	00		 mov	 eax, DWORD PTR [esi+212]
  0005f	2b c1		 sub	 eax, ecx
  00061	c1 f8 04	 sar	 eax, 4

; 1323 : 	if( iSzie == 1 )

  00064	83 f8 01	 cmp	 eax, 1
  00067	75 4e		 jne	 SHORT $LN3@RenderChat@2

; 1324 : 	{
; 1325 : 		g_FontMgr.PrintText( m_iRenderXPos + ONE_LINE_TEXT_XOFFSET, m_iRenderYPos + ONE_LINE_TEXT_YOFFSET, FONT_SIZE_13, m_vChatTextVec[0].c_str() );

  00069	ff 15 00 00 00
	00		 call	 DWORD PTR __imp_?c_str@ioHashString@@QBEPBDXZ
  0006f	f3 0f 10 05 00
	00 00 00	 movss	 xmm0, DWORD PTR __real@3f266666
  00077	50		 push	 eax
  00078	8b 46 7c	 mov	 eax, DWORD PTR [esi+124]
  0007b	83 ec 0c	 sub	 esp, 12			; 0000000cH
  0007e	f3 0f 11 44 24
	08		 movss	 DWORD PTR [esp+8], xmm0
  00084	83 e8 0a	 sub	 eax, 10			; 0000000aH
  00087	0f 57 c0	 xorps	 xmm0, xmm0
  0008a	f3 0f 2a c0	 cvtsi2ss xmm0, eax
  0008e	8b 46 78	 mov	 eax, DWORD PTR [esi+120]
  00091	f3 0f 11 44 24
	04		 movss	 DWORD PTR [esp+4], xmm0
  00097	83 c0 1a	 add	 eax, 26			; 0000001aH
  0009a	0f 57 c0	 xorps	 xmm0, xmm0
  0009d	f3 0f 2a c0	 cvtsi2ss xmm0, eax
  000a1	f3 0f 11 04 24	 movss	 DWORD PTR [esp], xmm0
  000a6	ff d7		 call	 edi
  000a8	50		 push	 eax
  000a9	ff 15 00 00 00
	00		 call	 DWORD PTR __imp_?PrintText@ioFontManager@@QAAXMMMPBDZZ
  000af	83 c4 14	 add	 esp, 20			; 00000014H
  000b2	e9 b2 00 00 00	 jmp	 $LN17@RenderChat@2
$LN3@RenderChat@2:

; 1326 : 	}
; 1327 : 	else if( iSzie == 2 )

  000b7	83 f8 02	 cmp	 eax, 2
  000ba	0f 85 a9 00 00
	00		 jne	 $LN17@RenderChat@2

; 1328 : 	{
; 1329 : 		g_FontMgr.PrintText( m_iRenderXPos + TWO_LINE_TEXT_1_XOFFSET, m_iRenderYPos + TWO_LINE_TEXT_1_YOFFSET, FONT_SIZE_13, m_vChatTextVec[0].c_str() );

  000c0	ff 15 00 00 00
	00		 call	 DWORD PTR __imp_?c_str@ioHashString@@QBEPBDXZ
  000c6	f3 0f 10 05 00
	00 00 00	 movss	 xmm0, DWORD PTR __real@3f266666
  000ce	50		 push	 eax
  000cf	8b 46 7c	 mov	 eax, DWORD PTR [esi+124]
  000d2	83 ec 0c	 sub	 esp, 12			; 0000000cH
  000d5	f3 0f 11 44 24
	08		 movss	 DWORD PTR [esp+8], xmm0
  000db	83 e8 12	 sub	 eax, 18			; 00000012H
  000de	0f 57 c0	 xorps	 xmm0, xmm0
  000e1	f3 0f 2a c0	 cvtsi2ss xmm0, eax
  000e5	8b 46 78	 mov	 eax, DWORD PTR [esi+120]
  000e8	f3 0f 11 44 24
	04		 movss	 DWORD PTR [esp+4], xmm0
  000ee	83 c0 1a	 add	 eax, 26			; 0000001aH
  000f1	0f 57 c0	 xorps	 xmm0, xmm0
  000f4	f3 0f 2a c0	 cvtsi2ss xmm0, eax
  000f8	f3 0f 11 04 24	 movss	 DWORD PTR [esp], xmm0
  000fd	ff d7		 call	 edi
  000ff	50		 push	 eax
  00100	ff 15 00 00 00
	00		 call	 DWORD PTR __imp_?PrintText@ioFontManager@@QAAXMMMPBDZZ

; 1330 : 		g_FontMgr.PrintTextWidthCut( m_iRenderXPos + TWO_LINE_TEXT_2_XOFFSET, m_iRenderYPos + TWO_LINE_TEXT_2_YOFFSET, FONT_SIZE_13, MAX_TEXT_WIDTH, m_vChatTextVec[1].c_str() );

  00106	8b 8e d0 00 00
	00		 mov	 ecx, DWORD PTR [esi+208]
  0010c	83 c4 14	 add	 esp, 20			; 00000014H
  0010f	83 c1 10	 add	 ecx, 16			; 00000010H
  00112	ff 15 00 00 00
	00		 call	 DWORD PTR __imp_?c_str@ioHashString@@QBEPBDXZ
  00118	f3 0f 10 05 00
	00 00 00	 movss	 xmm0, DWORD PTR __real@42be0000
  00120	50		 push	 eax
  00121	8b 46 7c	 mov	 eax, DWORD PTR [esi+124]
  00124	83 ec 10	 sub	 esp, 16			; 00000010H
  00127	f3 0f 11 44 24
	0c		 movss	 DWORD PTR [esp+12], xmm0
  0012d	f3 0f 10 05 00
	00 00 00	 movss	 xmm0, DWORD PTR __real@3f266666
  00135	f3 0f 11 44 24
	08		 movss	 DWORD PTR [esp+8], xmm0
  0013b	83 e8 02	 sub	 eax, 2
  0013e	0f 57 c0	 xorps	 xmm0, xmm0
  00141	f3 0f 2a c0	 cvtsi2ss xmm0, eax
  00145	8b 46 78	 mov	 eax, DWORD PTR [esi+120]
  00148	f3 0f 11 44 24
	04		 movss	 DWORD PTR [esp+4], xmm0
  0014e	83 c0 1a	 add	 eax, 26			; 0000001aH
  00151	0f 57 c0	 xorps	 xmm0, xmm0
  00154	f3 0f 2a c0	 cvtsi2ss xmm0, eax
  00158	f3 0f 11 04 24	 movss	 DWORD PTR [esp], xmm0
  0015d	ff d7		 call	 edi
  0015f	50		 push	 eax
  00160	ff 15 00 00 00
	00		 call	 DWORD PTR __imp_?PrintTextWidthCut@ioFontManager@@QAAXMMMMPBDZZ
  00166	83 c4 18	 add	 esp, 24			; 00000018H
$LN17@RenderChat@2:
  00169	5f		 pop	 edi
$LN1@RenderChat@2:
  0016a	5e		 pop	 esi

; 1331 : 	}
; 1332 : }

  0016b	c3		 ret	 0
?RenderChatText@ioCharEmoticon@@IAEXXZ ENDP		; ioCharEmoticon::RenderChatText
_TEXT	ENDS
PUBLIC	??D?$_Vector_iterator@V?$_Vector_val@PAUEmoticonInfo@@V?$allocator@PAUEmoticonInfo@@@std@@@std@@@std@@QBEAAPAUEmoticonInfo@@XZ ; std::_Vector_iterator<std::_Vector_val<EmoticonInfo *,std::allocator<EmoticonInfo *> > >::operator*
; Function compile flags: /Ogsp
; File c:\program files (x86)\microsoft visual studio 10.0\vc\include\vector
;	COMDAT ??D?$_Vector_iterator@V?$_Vector_val@PAUEmoticonInfo@@V?$allocator@PAUEmoticonInfo@@@std@@@std@@@std@@QBEAAPAUEmoticonInfo@@XZ
_TEXT	SEGMENT
??D?$_Vector_iterator@V?$_Vector_val@PAUEmoticonInfo@@V?$allocator@PAUEmoticonInfo@@@std@@@std@@@std@@QBEAAPAUEmoticonInfo@@XZ PROC ; std::_Vector_iterator<std::_Vector_val<EmoticonInfo *,std::allocator<EmoticonInfo *> > >::operator*, COMDAT
; _this$ = ecx

; 322  : 		return ((reference)**(_Mybase *)this);

  00000	8b 01		 mov	 eax, DWORD PTR [ecx]

; 323  : 		}

  00002	c3		 ret	 0
??D?$_Vector_iterator@V?$_Vector_val@PAUEmoticonInfo@@V?$allocator@PAUEmoticonInfo@@@std@@@std@@@std@@QBEAAPAUEmoticonInfo@@XZ ENDP ; std::_Vector_iterator<std::_Vector_val<EmoticonInfo *,std::allocator<EmoticonInfo *> > >::operator*
_TEXT	ENDS
PUBLIC	??E?$_Vector_iterator@V?$_Vector_val@PAUEmoticonInfo@@V?$allocator@PAUEmoticonInfo@@@std@@@std@@@std@@QAEAAV01@XZ ; std::_Vector_iterator<std::_Vector_val<EmoticonInfo *,std::allocator<EmoticonInfo *> > >::operator++
; Function compile flags: /Ogsp
;	COMDAT ??E?$_Vector_iterator@V?$_Vector_val@PAUEmoticonInfo@@V?$allocator@PAUEmoticonInfo@@@std@@@std@@@std@@QAEAAV01@XZ
_TEXT	SEGMENT
??E?$_Vector_iterator@V?$_Vector_val@PAUEmoticonInfo@@V?$allocator@PAUEmoticonInfo@@@std@@@std@@@std@@QAEAAV01@XZ PROC ; std::_Vector_iterator<std::_Vector_val<EmoticonInfo *,std::allocator<EmoticonInfo *> > >::operator++, COMDAT
; _this$ = ecx

; 331  : 		{	// preincrement

  00000	8b c1		 mov	 eax, ecx

; 332  : 		++*(_Mybase *)this;

  00002	83 00 04	 add	 DWORD PTR [eax], 4

; 333  : 		return (*this);
; 334  : 		}

  00005	c3		 ret	 0
??E?$_Vector_iterator@V?$_Vector_val@PAUEmoticonInfo@@V?$allocator@PAUEmoticonInfo@@@std@@@std@@@std@@QAEAAV01@XZ ENDP ; std::_Vector_iterator<std::_Vector_val<EmoticonInfo *,std::allocator<EmoticonInfo *> > >::operator++
_TEXT	ENDS
PUBLIC	??0?$_Vector_val@PAUEmoticonInfo@@V?$allocator@PAUEmoticonInfo@@@std@@@std@@QAE@V?$allocator@PAUEmoticonInfo@@@1@@Z ; std::_Vector_val<EmoticonInfo *,std::allocator<EmoticonInfo *> >::_Vector_val<EmoticonInfo *,std::allocator<EmoticonInfo *> >
; Function compile flags: /Ogsp
;	COMDAT ??0?$_Vector_val@PAUEmoticonInfo@@V?$allocator@PAUEmoticonInfo@@@std@@@std@@QAE@V?$allocator@PAUEmoticonInfo@@@1@@Z
_TEXT	SEGMENT
__Al$ = 8						; size = 1
??0?$_Vector_val@PAUEmoticonInfo@@V?$allocator@PAUEmoticonInfo@@@std@@@std@@QAE@V?$allocator@PAUEmoticonInfo@@@1@@Z PROC ; std::_Vector_val<EmoticonInfo *,std::allocator<EmoticonInfo *> >::_Vector_val<EmoticonInfo *,std::allocator<EmoticonInfo *> >, COMDAT
; _this$ = ecx

; 426  : 		{	// construct allocator from _Al

  00000	8b c1		 mov	 eax, ecx

; 427  : 		_Myfirst = 0;

  00002	33 c9		 xor	 ecx, ecx
  00004	89 08		 mov	 DWORD PTR [eax], ecx

; 428  : 		_Mylast = 0;

  00006	89 48 04	 mov	 DWORD PTR [eax+4], ecx

; 429  : 		_Myend = 0;

  00009	89 48 08	 mov	 DWORD PTR [eax+8], ecx

; 430  : 		}

  0000c	c2 04 00	 ret	 4
??0?$_Vector_val@PAUEmoticonInfo@@V?$allocator@PAUEmoticonInfo@@@std@@@std@@QAE@V?$allocator@PAUEmoticonInfo@@@1@@Z ENDP ; std::_Vector_val<EmoticonInfo *,std::allocator<EmoticonInfo *> >::_Vector_val<EmoticonInfo *,std::allocator<EmoticonInfo *> >
_TEXT	ENDS
PUBLIC	??0?$_Vector_iterator@V?$_Vector_val@PAUEmoticonInfo@@V?$allocator@PAUEmoticonInfo@@@std@@@std@@@std@@QAE@PAPAUEmoticonInfo@@PBU_Container_base0@1@@Z ; std::_Vector_iterator<std::_Vector_val<EmoticonInfo *,std::allocator<EmoticonInfo *> > >::_Vector_iterator<std::_Vector_val<EmoticonInfo *,std::allocator<EmoticonInfo *> > >
; Function compile flags: /Ogsp
;	COMDAT ??0?$_Vector_iterator@V?$_Vector_val@PAUEmoticonInfo@@V?$allocator@PAUEmoticonInfo@@@std@@@std@@@std@@QAE@PAPAUEmoticonInfo@@PBU_Container_base0@1@@Z
_TEXT	SEGMENT
__Parg$ = 8						; size = 4
__Pvector$ = 12						; size = 4
??0?$_Vector_iterator@V?$_Vector_val@PAUEmoticonInfo@@V?$allocator@PAUEmoticonInfo@@@std@@@std@@@std@@QAE@PAPAUEmoticonInfo@@PBU_Container_base0@1@@Z PROC ; std::_Vector_iterator<std::_Vector_val<EmoticonInfo *,std::allocator<EmoticonInfo *> > >::_Vector_iterator<std::_Vector_val<EmoticonInfo *,std::allocator<EmoticonInfo *> > >, COMDAT
; _this$ = ecx

; 304  : 		{	// construct with pointer _Parg

  00000	55		 push	 ebp
  00001	8b ec		 mov	 ebp, esp
  00003	8b c1		 mov	 eax, ecx
  00005	8b 4d 08	 mov	 ecx, DWORD PTR __Parg$[ebp]
  00008	89 08		 mov	 DWORD PTR [eax], ecx

; 305  : 		}

  0000a	5d		 pop	 ebp
  0000b	c2 08 00	 ret	 8
??0?$_Vector_iterator@V?$_Vector_val@PAUEmoticonInfo@@V?$allocator@PAUEmoticonInfo@@@std@@@std@@@std@@QAE@PAPAUEmoticonInfo@@PBU_Container_base0@1@@Z ENDP ; std::_Vector_iterator<std::_Vector_val<EmoticonInfo *,std::allocator<EmoticonInfo *> > >::_Vector_iterator<std::_Vector_val<EmoticonInfo *,std::allocator<EmoticonInfo *> > >
_TEXT	ENDS
PUBLIC	??8?$_Vector_const_iterator@V?$_Vector_val@PAUEmoticonInfo@@V?$allocator@PAUEmoticonInfo@@@std@@@std@@@std@@QBE_NABV01@@Z ; std::_Vector_const_iterator<std::_Vector_val<EmoticonInfo *,std::allocator<EmoticonInfo *> > >::operator==
; Function compile flags: /Ogsp
;	COMDAT ??8?$_Vector_const_iterator@V?$_Vector_val@PAUEmoticonInfo@@V?$allocator@PAUEmoticonInfo@@@std@@@std@@@std@@QBE_NABV01@@Z
_TEXT	SEGMENT
__Right$ = 8						; size = 4
??8?$_Vector_const_iterator@V?$_Vector_val@PAUEmoticonInfo@@V?$allocator@PAUEmoticonInfo@@@std@@@std@@@std@@QBE_NABV01@@Z PROC ; std::_Vector_const_iterator<std::_Vector_val<EmoticonInfo *,std::allocator<EmoticonInfo *> > >::operator==, COMDAT
; _this$ = ecx

; 201  : 		{	// test for iterator equality

  00000	55		 push	 ebp
  00001	8b ec		 mov	 ebp, esp

; 202  : 		_Compat(_Right);
; 203  : 		return (this->_Ptr == _Right._Ptr);

  00003	8b 01		 mov	 eax, DWORD PTR [ecx]
  00005	8b 4d 08	 mov	 ecx, DWORD PTR __Right$[ebp]
  00008	2b 01		 sub	 eax, DWORD PTR [ecx]
  0000a	f7 d8		 neg	 eax
  0000c	1b c0		 sbb	 eax, eax
  0000e	40		 inc	 eax

; 204  : 		}

  0000f	5d		 pop	 ebp
  00010	c2 04 00	 ret	 4
??8?$_Vector_const_iterator@V?$_Vector_val@PAUEmoticonInfo@@V?$allocator@PAUEmoticonInfo@@@std@@@std@@@std@@QBE_NABV01@@Z ENDP ; std::_Vector_const_iterator<std::_Vector_val<EmoticonInfo *,std::allocator<EmoticonInfo *> > >::operator==
_TEXT	ENDS
PUBLIC	?max_size@?$vector@PAUEmoticonInfo@@V?$allocator@PAUEmoticonInfo@@@std@@@std@@QBEIXZ ; std::vector<EmoticonInfo *,std::allocator<EmoticonInfo *> >::max_size
; Function compile flags: /Ogsp
;	COMDAT ?max_size@?$vector@PAUEmoticonInfo@@V?$allocator@PAUEmoticonInfo@@@std@@@std@@QBEIXZ
_TEXT	SEGMENT
?max_size@?$vector@PAUEmoticonInfo@@V?$allocator@PAUEmoticonInfo@@@std@@@std@@QBEIXZ PROC ; std::vector<EmoticonInfo *,std::allocator<EmoticonInfo *> >::max_size, COMDAT
; _this$ = ecx

; 884  : 		return (this->_Alval.max_size());

  00000	b8 ff ff ff 3f	 mov	 eax, 1073741823		; 3fffffffH

; 885  : 		}

  00005	c3		 ret	 0
?max_size@?$vector@PAUEmoticonInfo@@V?$allocator@PAUEmoticonInfo@@@std@@@std@@QBEIXZ ENDP ; std::vector<EmoticonInfo *,std::allocator<EmoticonInfo *> >::max_size
_TEXT	ENDS
PUBLIC	?_Grow_to@?$vector@PAUEmoticonInfo@@V?$allocator@PAUEmoticonInfo@@@std@@@std@@IBEII@Z ; std::vector<EmoticonInfo *,std::allocator<EmoticonInfo *> >::_Grow_to
; Function compile flags: /Ogsp
;	COMDAT ?_Grow_to@?$vector@PAUEmoticonInfo@@V?$allocator@PAUEmoticonInfo@@@std@@@std@@IBEII@Z
_TEXT	SEGMENT
__Count$ = 8						; size = 4
?_Grow_to@?$vector@PAUEmoticonInfo@@V?$allocator@PAUEmoticonInfo@@@std@@@std@@IBEII@Z PROC ; std::vector<EmoticonInfo *,std::allocator<EmoticonInfo *> >::_Grow_to, COMDAT
; _this$ = ecx

; 1274 : 		{	// grow by 50% or at least to _Count

  00000	55		 push	 ebp
  00001	8b ec		 mov	 ebp, esp

; 1275 : 		size_type _Capacity = capacity();

  00003	8b 41 08	 mov	 eax, DWORD PTR [ecx+8]
  00006	2b 01		 sub	 eax, DWORD PTR [ecx]

; 1276 : 
; 1277 : 		_Capacity = max_size() - _Capacity / 2 < _Capacity
; 1278 : 			? 0 : _Capacity + _Capacity / 2;	// try to grow by 50%

  00008	ba ff ff ff 3f	 mov	 edx, 1073741823		; 3fffffffH
  0000d	c1 f8 02	 sar	 eax, 2
  00010	8b c8		 mov	 ecx, eax
  00012	d1 e9		 shr	 ecx, 1
  00014	2b d1		 sub	 edx, ecx
  00016	3b d0		 cmp	 edx, eax
  00018	73 04		 jae	 SHORT $LN4@Grow_to
  0001a	33 c0		 xor	 eax, eax
  0001c	eb 02		 jmp	 SHORT $LN5@Grow_to
$LN4@Grow_to:
  0001e	03 c1		 add	 eax, ecx
$LN5@Grow_to:

; 1279 : 		if (_Capacity < _Count)

  00020	3b 45 08	 cmp	 eax, DWORD PTR __Count$[ebp]

; 1280 : 			_Capacity = _Count;

  00023	0f 42 45 08	 cmovb	 eax, DWORD PTR __Count$[ebp]

; 1281 : 		return (_Capacity);
; 1282 : 		}

  00027	5d		 pop	 ebp
  00028	c2 04 00	 ret	 4
?_Grow_to@?$vector@PAUEmoticonInfo@@V?$allocator@PAUEmoticonInfo@@@std@@@std@@IBEII@Z ENDP ; std::vector<EmoticonInfo *,std::allocator<EmoticonInfo *> >::_Grow_to
_TEXT	ENDS
PUBLIC	?allocate@?$allocator@PAUEmoticonInfo@@@std@@QAEPAPAUEmoticonInfo@@I@Z ; std::allocator<EmoticonInfo *>::allocate
; Function compile flags: /Ogsp
; File c:\program files (x86)\microsoft visual studio 10.0\vc\include\xmemory
;	COMDAT ?allocate@?$allocator@PAUEmoticonInfo@@@std@@QAEPAPAUEmoticonInfo@@I@Z
_TEXT	SEGMENT
__Count$ = 8						; size = 4
?allocate@?$allocator@PAUEmoticonInfo@@@std@@QAEPAPAUEmoticonInfo@@I@Z PROC ; std::allocator<EmoticonInfo *>::allocate, COMDAT
; _this$ = ecx

; 186  : 		{	// allocate array of _Count elements

  00000	55		 push	 ebp
  00001	8b ec		 mov	 ebp, esp

; 187  : 		return (_Allocate(_Count, (pointer)0));

  00003	6a 00		 push	 0
  00005	ff 75 08	 push	 DWORD PTR __Count$[ebp]
  00008	e8 00 00 00 00	 call	 ??$_Allocate@PAUEmoticonInfo@@@std@@YAPAPAUEmoticonInfo@@IPAPAU1@@Z ; std::_Allocate<EmoticonInfo *>
  0000d	59		 pop	 ecx
  0000e	59		 pop	 ecx

; 188  : 		}

  0000f	5d		 pop	 ebp
  00010	c2 04 00	 ret	 4
?allocate@?$allocator@PAUEmoticonInfo@@@std@@QAEPAPAUEmoticonInfo@@I@Z ENDP ; std::allocator<EmoticonInfo *>::allocate
_TEXT	ENDS
PUBLIC	__$ArrayPad$
PUBLIC	??$SetTitle_e@$08@ioINILoader@@QAEXAAY08$$CBD@Z	; ioINILoader::SetTitle_e<9>
EXTRN	__imp_?SetTitle@ioINILoader@@QAEXPBD@Z:PROC
; Function compile flags: /Ogsp
; File d:\lost saga for developer\youtube\tutorial\source\src\io3dengine\ioiniloader.h
;	COMDAT ??$SetTitle_e@$08@ioINILoader@@QAEXAAY08$$CBD@Z
_TEXT	SEGMENT
__t$ = -20						; size = 9
__$ArrayPad$ = -4					; size = 4
_t$ = 8							; size = 4
??$SetTitle_e@$08@ioINILoader@@QAEXAAY08$$CBD@Z PROC	; ioINILoader::SetTitle_e<9>, COMDAT
; _this$ = ecx

; 188  : 	{

  00000	55		 push	 ebp
  00001	8b ec		 mov	 ebp, esp
  00003	83 ec 14	 sub	 esp, 20			; 00000014H
  00006	a1 00 00 00 00	 mov	 eax, DWORD PTR ___security_cookie
  0000b	33 c5		 xor	 eax, ebp
  0000d	89 45 fc	 mov	 DWORD PTR __$ArrayPad$[ebp], eax
  00010	8b 45 08	 mov	 eax, DWORD PTR _t$[ebp]

; 189  : 		_ENCSTR(t, _t);

  00013	8a 10		 mov	 dl, BYTE PTR [eax]
  00015	84 d2		 test	 dl, dl
  00017	0f 84 ee 00 00
	00		 je	 $LN96@SetTitle_e
  0001d	80 f2 ed	 xor	 dl, -19			; ffffffedH
  00020	88 55 ec	 mov	 BYTE PTR __t$[ebp], dl
  00023	8a 50 01	 mov	 dl, BYTE PTR [eax+1]
  00026	84 d2		 test	 dl, dl
  00028	0f 84 d7 00 00
	00		 je	 $LN95@SetTitle_e
  0002e	80 f2 ec	 xor	 dl, -20			; ffffffecH
  00031	88 55 ed	 mov	 BYTE PTR __t$[ebp+1], dl
  00034	8a 50 02	 mov	 dl, BYTE PTR [eax+2]
  00037	84 d2		 test	 dl, dl
  00039	0f 84 c0 00 00
	00		 je	 $LN94@SetTitle_e
  0003f	80 f2 eb	 xor	 dl, -21			; ffffffebH
  00042	88 55 ee	 mov	 BYTE PTR __t$[ebp+2], dl
  00045	8a 50 03	 mov	 dl, BYTE PTR [eax+3]
  00048	84 d2		 test	 dl, dl
  0004a	0f 84 a9 00 00
	00		 je	 $LN93@SetTitle_e
  00050	80 f2 ea	 xor	 dl, -22			; ffffffeaH
  00053	88 55 ef	 mov	 BYTE PTR __t$[ebp+3], dl
  00056	8a 50 04	 mov	 dl, BYTE PTR [eax+4]
  00059	84 d2		 test	 dl, dl
  0005b	0f 84 92 00 00
	00		 je	 $LN92@SetTitle_e
  00061	80 f2 ed	 xor	 dl, -19			; ffffffedH
  00064	88 55 f0	 mov	 BYTE PTR __t$[ebp+4], dl
  00067	8a 50 05	 mov	 dl, BYTE PTR [eax+5]
  0006a	84 d2		 test	 dl, dl
  0006c	74 7f		 je	 SHORT $LN91@SetTitle_e
  0006e	80 f2 ec	 xor	 dl, -20			; ffffffecH
  00071	88 55 f1	 mov	 BYTE PTR __t$[ebp+5], dl
  00074	8a 50 06	 mov	 dl, BYTE PTR [eax+6]
  00077	84 d2		 test	 dl, dl
  00079	74 6c		 je	 SHORT $LN90@SetTitle_e
  0007b	80 f2 eb	 xor	 dl, -21			; ffffffebH
  0007e	88 55 f2	 mov	 BYTE PTR __t$[ebp+6], dl
  00081	8a 50 07	 mov	 dl, BYTE PTR [eax+7]
  00084	84 d2		 test	 dl, dl
  00086	74 59		 je	 SHORT $LN89@SetTitle_e
  00088	80 f2 ea	 xor	 dl, -22			; ffffffeaH
  0008b	80 78 08 00	 cmp	 BYTE PTR [eax+8], 0
  0008f	88 55 f3	 mov	 BYTE PTR __t$[ebp+7], dl
  00092	74 7b		 je	 SHORT $LN1@SetTitle_e
  00094	8a 50 09	 mov	 dl, BYTE PTR [eax+9]
  00097	84 d2		 test	 dl, dl
  00099	74 40		 je	 SHORT $LN87@SetTitle_e
  0009b	80 f2 ec	 xor	 dl, -20			; ffffffecH
  0009e	88 55 f5	 mov	 BYTE PTR __t$[ebp+9], dl
  000a1	8a 50 0a	 mov	 dl, BYTE PTR [eax+10]
  000a4	84 d2		 test	 dl, dl
  000a6	74 2d		 je	 SHORT $LN86@SetTitle_e
  000a8	80 f2 eb	 xor	 dl, -21			; ffffffebH
  000ab	88 55 f6	 mov	 BYTE PTR __t$[ebp+10], dl
  000ae	8a 50 0b	 mov	 dl, BYTE PTR [eax+11]
  000b1	84 d2		 test	 dl, dl
  000b3	74 1a		 je	 SHORT $LN85@SetTitle_e
  000b5	8a 40 0c	 mov	 al, BYTE PTR [eax+12]
  000b8	80 f2 ea	 xor	 dl, -22			; ffffffeaH
  000bb	88 55 f7	 mov	 BYTE PTR __t$[ebp+11], dl
  000be	84 c0		 test	 al, al
  000c0	74 07		 je	 SHORT $LN84@SetTitle_e
  000c2	34 ed		 xor	 al, -19			; ffffffedH
  000c4	88 45 f8	 mov	 BYTE PTR __t$[ebp+12], al
  000c7	eb 46		 jmp	 SHORT $LN1@SetTitle_e
$LN84@SetTitle_e:
  000c9	c6 45 f8 ed	 mov	 BYTE PTR __t$[ebp+12], -19 ; ffffffedH
  000cd	eb 40		 jmp	 SHORT $LN1@SetTitle_e
$LN85@SetTitle_e:
  000cf	c6 45 f7 ea	 mov	 BYTE PTR __t$[ebp+11], -22 ; ffffffeaH
  000d3	eb 3a		 jmp	 SHORT $LN1@SetTitle_e
$LN86@SetTitle_e:
  000d5	c6 45 f6 eb	 mov	 BYTE PTR __t$[ebp+10], -21 ; ffffffebH
  000d9	eb 34		 jmp	 SHORT $LN1@SetTitle_e
$LN87@SetTitle_e:
  000db	c6 45 f5 ec	 mov	 BYTE PTR __t$[ebp+9], -20 ; ffffffecH
  000df	eb 2e		 jmp	 SHORT $LN1@SetTitle_e
$LN89@SetTitle_e:
  000e1	c6 45 f3 ea	 mov	 BYTE PTR __t$[ebp+7], -22 ; ffffffeaH
  000e5	eb 28		 jmp	 SHORT $LN1@SetTitle_e
$LN90@SetTitle_e:
  000e7	c6 45 f2 eb	 mov	 BYTE PTR __t$[ebp+6], -21 ; ffffffebH
  000eb	eb 22		 jmp	 SHORT $LN1@SetTitle_e
$LN91@SetTitle_e:
  000ed	c6 45 f1 ec	 mov	 BYTE PTR __t$[ebp+5], -20 ; ffffffecH
  000f1	eb 1c		 jmp	 SHORT $LN1@SetTitle_e
$LN92@SetTitle_e:
  000f3	c6 45 f0 ed	 mov	 BYTE PTR __t$[ebp+4], -19 ; ffffffedH
  000f7	eb 16		 jmp	 SHORT $LN1@SetTitle_e
$LN93@SetTitle_e:
  000f9	c6 45 ef ea	 mov	 BYTE PTR __t$[ebp+3], -22 ; ffffffeaH
  000fd	eb 10		 jmp	 SHORT $LN1@SetTitle_e
$LN94@SetTitle_e:
  000ff	c6 45 ee eb	 mov	 BYTE PTR __t$[ebp+2], -21 ; ffffffebH
  00103	eb 0a		 jmp	 SHORT $LN1@SetTitle_e
$LN95@SetTitle_e:
  00105	c6 45 ed ec	 mov	 BYTE PTR __t$[ebp+1], -20 ; ffffffecH
  00109	eb 04		 jmp	 SHORT $LN1@SetTitle_e
$LN96@SetTitle_e:
  0010b	c6 45 ec ed	 mov	 BYTE PTR __t$[ebp], -19	; ffffffedH
$LN1@SetTitle_e:
  0010f	6a 02		 push	 2
  00111	8d 45 ec	 lea	 eax, DWORD PTR __t$[ebp]
  00114	c6 45 f4 00	 mov	 BYTE PTR __t$[ebp+8], 0
  00118	5a		 pop	 edx
$LL104@SetTitle_e:
  00119	81 30 ed ec eb
	ea		 xor	 DWORD PTR [eax], -353637139 ; eaebecedH
  0011f	83 c0 04	 add	 eax, 4
  00122	4a		 dec	 edx
  00123	75 f4		 jne	 SHORT $LL104@SetTitle_e

; 190  : 		SetTitle(_t);

  00125	8d 45 ec	 lea	 eax, DWORD PTR __t$[ebp]
  00128	50		 push	 eax
  00129	ff 15 00 00 00
	00		 call	 DWORD PTR __imp_?SetTitle@ioINILoader@@QAEXPBD@Z

; 191  : 	}

  0012f	8b 4d fc	 mov	 ecx, DWORD PTR __$ArrayPad$[ebp]
  00132	33 cd		 xor	 ecx, ebp
  00134	e8 00 00 00 00	 call	 @__security_check_cookie@4
  00139	c9		 leave
  0013a	c2 04 00	 ret	 4
??$SetTitle_e@$08@ioINILoader@@QAEXAAY08$$CBD@Z ENDP	; ioINILoader::SetTitle_e<9>
_TEXT	ENDS
PUBLIC	__$ArrayPad$
PUBLIC	??$LoadString_e@$0L@@ioINILoader@@QAEXAAY0L@$$CBDAAY00$$CBDPADH@Z ; ioINILoader::LoadString_e<11>
EXTRN	__imp_?LoadStringA@ioINILoader@@QAEXPBD0PADH@Z:PROC
; Function compile flags: /Ogsp
;	COMDAT ??$LoadString_e@$0L@@ioINILoader@@QAEXAAY0L@$$CBDAAY00$$CBDPADH@Z
_TEXT	SEGMENT
__k$ = -20						; size = 11
__$ArrayPad$ = -4					; size = 4
_k$ = 8							; size = 4
_d$ = 12						; size = 4
_b$ = 16						; size = 4
_i$ = 20						; size = 4
??$LoadString_e@$0L@@ioINILoader@@QAEXAAY0L@$$CBDAAY00$$CBDPADH@Z PROC ; ioINILoader::LoadString_e<11>, COMDAT
; _this$ = ecx

; 161  : 	{

  00000	55		 push	 ebp
  00001	8b ec		 mov	 ebp, esp
  00003	83 ec 14	 sub	 esp, 20			; 00000014H
  00006	a1 00 00 00 00	 mov	 eax, DWORD PTR ___security_cookie
  0000b	33 c5		 xor	 eax, ebp
  0000d	89 45 fc	 mov	 DWORD PTR __$ArrayPad$[ebp], eax
  00010	8b 45 08	 mov	 eax, DWORD PTR _k$[ebp]

; 162  : 		_ENCSTR(k, _k);

  00013	8a 10		 mov	 dl, BYTE PTR [eax]
  00015	53		 push	 ebx
  00016	56		 push	 esi
  00017	8b 75 0c	 mov	 esi, DWORD PTR _d$[ebp]
  0001a	57		 push	 edi
  0001b	8b 7d 10	 mov	 edi, DWORD PTR _b$[ebp]
  0001e	84 d2		 test	 dl, dl
  00020	0f 84 1b 01 00
	00		 je	 $LN96@LoadString
  00026	80 f2 ed	 xor	 dl, -19			; ffffffedH
  00029	88 55 ec	 mov	 BYTE PTR __k$[ebp], dl
  0002c	8a 50 01	 mov	 dl, BYTE PTR [eax+1]
  0002f	84 d2		 test	 dl, dl
  00031	0f 84 04 01 00
	00		 je	 $LN95@LoadString
  00037	b3 ec		 mov	 bl, -20			; ffffffecH
  00039	32 d3		 xor	 dl, bl
  0003b	88 55 ed	 mov	 BYTE PTR __k$[ebp+1], dl
  0003e	8a 50 02	 mov	 dl, BYTE PTR [eax+2]
  00041	84 d2		 test	 dl, dl
  00043	0f 84 ec 00 00
	00		 je	 $LN94@LoadString
  00049	80 f2 eb	 xor	 dl, -21			; ffffffebH
  0004c	88 55 ee	 mov	 BYTE PTR __k$[ebp+2], dl
  0004f	8a 50 03	 mov	 dl, BYTE PTR [eax+3]
  00052	84 d2		 test	 dl, dl
  00054	0f 84 d5 00 00
	00		 je	 $LN93@LoadString
  0005a	80 f2 ea	 xor	 dl, -22			; ffffffeaH
  0005d	88 55 ef	 mov	 BYTE PTR __k$[ebp+3], dl
  00060	8a 50 04	 mov	 dl, BYTE PTR [eax+4]
  00063	84 d2		 test	 dl, dl
  00065	0f 84 be 00 00
	00		 je	 $LN92@LoadString
  0006b	80 f2 ed	 xor	 dl, -19			; ffffffedH
  0006e	88 55 f0	 mov	 BYTE PTR __k$[ebp+4], dl
  00071	8a 50 05	 mov	 dl, BYTE PTR [eax+5]
  00074	84 d2		 test	 dl, dl
  00076	0f 84 a8 00 00
	00		 je	 $LN91@LoadString
  0007c	32 d3		 xor	 dl, bl
  0007e	88 55 f1	 mov	 BYTE PTR __k$[ebp+5], dl
  00081	8a 50 06	 mov	 dl, BYTE PTR [eax+6]
  00084	84 d2		 test	 dl, dl
  00086	0f 84 92 00 00
	00		 je	 $LN90@LoadString
  0008c	80 f2 eb	 xor	 dl, -21			; ffffffebH
  0008f	88 55 f2	 mov	 BYTE PTR __k$[ebp+6], dl
  00092	8a 50 07	 mov	 dl, BYTE PTR [eax+7]
  00095	84 d2		 test	 dl, dl
  00097	74 7f		 je	 SHORT $LN89@LoadString
  00099	80 f2 ea	 xor	 dl, -22			; ffffffeaH
  0009c	88 55 f3	 mov	 BYTE PTR __k$[ebp+7], dl
  0009f	8a 50 08	 mov	 dl, BYTE PTR [eax+8]
  000a2	84 d2		 test	 dl, dl
  000a4	74 6c		 je	 SHORT $LN88@LoadString
  000a6	80 f2 ed	 xor	 dl, -19			; ffffffedH
  000a9	88 55 f4	 mov	 BYTE PTR __k$[ebp+8], dl
  000ac	8a 50 09	 mov	 dl, BYTE PTR [eax+9]
  000af	84 d2		 test	 dl, dl
  000b1	74 5a		 je	 SHORT $LN87@LoadString
  000b3	32 d3		 xor	 dl, bl
  000b5	80 78 0a 00	 cmp	 BYTE PTR [eax+10], 0
  000b9	88 55 f5	 mov	 BYTE PTR __k$[ebp+9], dl
  000bc	0f 84 83 00 00
	00		 je	 $LN1@LoadString
  000c2	8a 50 0b	 mov	 dl, BYTE PTR [eax+11]
  000c5	84 d2		 test	 dl, dl
  000c7	74 3e		 je	 SHORT $LN85@LoadString
  000c9	80 f2 ea	 xor	 dl, -22			; ffffffeaH
  000cc	88 55 f7	 mov	 BYTE PTR __k$[ebp+11], dl
  000cf	8a 50 0c	 mov	 dl, BYTE PTR [eax+12]
  000d2	84 d2		 test	 dl, dl
  000d4	74 2b		 je	 SHORT $LN84@LoadString
  000d6	80 f2 ed	 xor	 dl, -19			; ffffffedH
  000d9	88 55 f8	 mov	 BYTE PTR __k$[ebp+12], dl
  000dc	8a 50 0d	 mov	 dl, BYTE PTR [eax+13]
  000df	84 d2		 test	 dl, dl
  000e1	74 19		 je	 SHORT $LN83@LoadString
  000e3	8a 40 0e	 mov	 al, BYTE PTR [eax+14]
  000e6	32 d3		 xor	 dl, bl
  000e8	88 55 f9	 mov	 BYTE PTR __k$[ebp+13], dl
  000eb	84 c0		 test	 al, al
  000ed	74 07		 je	 SHORT $LN82@LoadString
  000ef	34 eb		 xor	 al, -21			; ffffffebH
  000f1	88 45 fa	 mov	 BYTE PTR __k$[ebp+14], al
  000f4	eb 4f		 jmp	 SHORT $LN1@LoadString
$LN82@LoadString:
  000f6	c6 45 fa eb	 mov	 BYTE PTR __k$[ebp+14], -21 ; ffffffebH
  000fa	eb 49		 jmp	 SHORT $LN1@LoadString
$LN83@LoadString:
  000fc	88 5d f9	 mov	 BYTE PTR __k$[ebp+13], bl
  000ff	eb 44		 jmp	 SHORT $LN1@LoadString
$LN84@LoadString:
  00101	c6 45 f8 ed	 mov	 BYTE PTR __k$[ebp+12], -19 ; ffffffedH
  00105	eb 3e		 jmp	 SHORT $LN1@LoadString
$LN85@LoadString:
  00107	c6 45 f7 ea	 mov	 BYTE PTR __k$[ebp+11], -22 ; ffffffeaH
  0010b	eb 38		 jmp	 SHORT $LN1@LoadString
$LN87@LoadString:
  0010d	88 5d f5	 mov	 BYTE PTR __k$[ebp+9], bl
  00110	eb 33		 jmp	 SHORT $LN1@LoadString
$LN88@LoadString:
  00112	c6 45 f4 ed	 mov	 BYTE PTR __k$[ebp+8], -19 ; ffffffedH
  00116	eb 2d		 jmp	 SHORT $LN1@LoadString
$LN89@LoadString:
  00118	c6 45 f3 ea	 mov	 BYTE PTR __k$[ebp+7], -22 ; ffffffeaH
  0011c	eb 27		 jmp	 SHORT $LN1@LoadString
$LN90@LoadString:
  0011e	c6 45 f2 eb	 mov	 BYTE PTR __k$[ebp+6], -21 ; ffffffebH
  00122	eb 21		 jmp	 SHORT $LN1@LoadString
$LN91@LoadString:
  00124	88 5d f1	 mov	 BYTE PTR __k$[ebp+5], bl
  00127	eb 1c		 jmp	 SHORT $LN1@LoadString
$LN92@LoadString:
  00129	c6 45 f0 ed	 mov	 BYTE PTR __k$[ebp+4], -19 ; ffffffedH
  0012d	eb 16		 jmp	 SHORT $LN1@LoadString
$LN93@LoadString:
  0012f	c6 45 ef ea	 mov	 BYTE PTR __k$[ebp+3], -22 ; ffffffeaH
  00133	eb 10		 jmp	 SHORT $LN1@LoadString
$LN94@LoadString:
  00135	c6 45 ee eb	 mov	 BYTE PTR __k$[ebp+2], -21 ; ffffffebH
  00139	eb 0a		 jmp	 SHORT $LN1@LoadString
$LN95@LoadString:
  0013b	c6 45 ed ec	 mov	 BYTE PTR __k$[ebp+1], -20 ; ffffffecH
  0013f	eb 04		 jmp	 SHORT $LN1@LoadString
$LN96@LoadString:
  00141	c6 45 ec ed	 mov	 BYTE PTR __k$[ebp], -19	; ffffffedH
$LN1@LoadString:
  00145	6a 02		 push	 2
  00147	8d 45 ec	 lea	 eax, DWORD PTR __k$[ebp]
  0014a	c6 45 f6 00	 mov	 BYTE PTR __k$[ebp+10], 0
  0014e	5a		 pop	 edx
$LL104@LoadString:
  0014f	81 30 ed ec eb
	ea		 xor	 DWORD PTR [eax], -353637139 ; eaebecedH
  00155	83 c0 04	 add	 eax, 4
  00158	4a		 dec	 edx
  00159	75 f4		 jne	 SHORT $LL104@LoadString
  0015b	6a 08		 push	 8
  0015d	58		 pop	 eax
$LL101@LoadString:
  0015e	8b d0		 mov	 edx, eax
  00160	81 e2 03 00 00
	80		 and	 edx, -2147483645	; 80000003H
  00166	79 05		 jns	 SHORT $LN111@LoadString
  00168	4a		 dec	 edx
  00169	83 ca fc	 or	 edx, -4			; fffffffcH
  0016c	42		 inc	 edx
$LN111@LoadString:
  0016d	b3 ed		 mov	 bl, -19			; ffffffedH
  0016f	2a da		 sub	 bl, dl
  00171	30 5c 05 ec	 xor	 BYTE PTR __k$[ebp+eax], bl
  00175	40		 inc	 eax
  00176	83 f8 0a	 cmp	 eax, 10			; 0000000aH
  00179	7c e3		 jl	 SHORT $LL101@LoadString

; 163  : 		LoadString(_k, d, b, i);

  0017b	ff 75 14	 push	 DWORD PTR _i$[ebp]
  0017e	8d 45 ec	 lea	 eax, DWORD PTR __k$[ebp]
  00181	57		 push	 edi
  00182	56		 push	 esi
  00183	50		 push	 eax
  00184	ff 15 00 00 00
	00		 call	 DWORD PTR __imp_?LoadStringA@ioINILoader@@QAEXPBD0PADH@Z

; 164  : 	}

  0018a	8b 4d fc	 mov	 ecx, DWORD PTR __$ArrayPad$[ebp]
  0018d	5f		 pop	 edi
  0018e	5e		 pop	 esi
  0018f	33 cd		 xor	 ecx, ebp
  00191	5b		 pop	 ebx
  00192	e8 00 00 00 00	 call	 @__security_check_cookie@4
  00197	c9		 leave
  00198	c2 10 00	 ret	 16			; 00000010H
??$LoadString_e@$0L@@ioINILoader@@QAEXAAY0L@$$CBDAAY00$$CBDPADH@Z ENDP ; ioINILoader::LoadString_e<11>
_TEXT	ENDS
PUBLIC	__$ArrayPad$
PUBLIC	??$LoadInt_e@$08@ioINILoader@@QAEHAAY08$$CBDH@Z	; ioINILoader::LoadInt_e<9>
EXTRN	__imp_?LoadInt@ioINILoader@@QAEHPBDH@Z:PROC
; Function compile flags: /Ogsp
;	COMDAT ??$LoadInt_e@$08@ioINILoader@@QAEHAAY08$$CBDH@Z
_TEXT	SEGMENT
__k$ = -20						; size = 9
__$ArrayPad$ = -4					; size = 4
_k$ = 8							; size = 4
_i$ = 12						; size = 4
??$LoadInt_e@$08@ioINILoader@@QAEHAAY08$$CBDH@Z PROC	; ioINILoader::LoadInt_e<9>, COMDAT
; _this$ = ecx

; 118  : 	{

  00000	55		 push	 ebp
  00001	8b ec		 mov	 ebp, esp
  00003	83 ec 14	 sub	 esp, 20			; 00000014H
  00006	a1 00 00 00 00	 mov	 eax, DWORD PTR ___security_cookie
  0000b	33 c5		 xor	 eax, ebp
  0000d	89 45 fc	 mov	 DWORD PTR __$ArrayPad$[ebp], eax
  00010	8b 45 08	 mov	 eax, DWORD PTR _k$[ebp]

; 119  : 		_ENCSTR(k, _k);

  00013	8a 10		 mov	 dl, BYTE PTR [eax]
  00015	84 d2		 test	 dl, dl
  00017	0f 84 ee 00 00
	00		 je	 $LN96@LoadInt_e
  0001d	80 f2 ed	 xor	 dl, -19			; ffffffedH
  00020	88 55 ec	 mov	 BYTE PTR __k$[ebp], dl
  00023	8a 50 01	 mov	 dl, BYTE PTR [eax+1]
  00026	84 d2		 test	 dl, dl
  00028	0f 84 d7 00 00
	00		 je	 $LN95@LoadInt_e
  0002e	80 f2 ec	 xor	 dl, -20			; ffffffecH
  00031	88 55 ed	 mov	 BYTE PTR __k$[ebp+1], dl
  00034	8a 50 02	 mov	 dl, BYTE PTR [eax+2]
  00037	84 d2		 test	 dl, dl
  00039	0f 84 c0 00 00
	00		 je	 $LN94@LoadInt_e
  0003f	80 f2 eb	 xor	 dl, -21			; ffffffebH
  00042	88 55 ee	 mov	 BYTE PTR __k$[ebp+2], dl
  00045	8a 50 03	 mov	 dl, BYTE PTR [eax+3]
  00048	84 d2		 test	 dl, dl
  0004a	0f 84 a9 00 00
	00		 je	 $LN93@LoadInt_e
  00050	80 f2 ea	 xor	 dl, -22			; ffffffeaH
  00053	88 55 ef	 mov	 BYTE PTR __k$[ebp+3], dl
  00056	8a 50 04	 mov	 dl, BYTE PTR [eax+4]
  00059	84 d2		 test	 dl, dl
  0005b	0f 84 92 00 00
	00		 je	 $LN92@LoadInt_e
  00061	80 f2 ed	 xor	 dl, -19			; ffffffedH
  00064	88 55 f0	 mov	 BYTE PTR __k$[ebp+4], dl
  00067	8a 50 05	 mov	 dl, BYTE PTR [eax+5]
  0006a	84 d2		 test	 dl, dl
  0006c	74 7f		 je	 SHORT $LN91@LoadInt_e
  0006e	80 f2 ec	 xor	 dl, -20			; ffffffecH
  00071	88 55 f1	 mov	 BYTE PTR __k$[ebp+5], dl
  00074	8a 50 06	 mov	 dl, BYTE PTR [eax+6]
  00077	84 d2		 test	 dl, dl
  00079	74 6c		 je	 SHORT $LN90@LoadInt_e
  0007b	80 f2 eb	 xor	 dl, -21			; ffffffebH
  0007e	88 55 f2	 mov	 BYTE PTR __k$[ebp+6], dl
  00081	8a 50 07	 mov	 dl, BYTE PTR [eax+7]
  00084	84 d2		 test	 dl, dl
  00086	74 59		 je	 SHORT $LN89@LoadInt_e
  00088	80 f2 ea	 xor	 dl, -22			; ffffffeaH
  0008b	80 78 08 00	 cmp	 BYTE PTR [eax+8], 0
  0008f	88 55 f3	 mov	 BYTE PTR __k$[ebp+7], dl
  00092	74 7b		 je	 SHORT $LN1@LoadInt_e
  00094	8a 50 09	 mov	 dl, BYTE PTR [eax+9]
  00097	84 d2		 test	 dl, dl
  00099	74 40		 je	 SHORT $LN87@LoadInt_e
  0009b	80 f2 ec	 xor	 dl, -20			; ffffffecH
  0009e	88 55 f5	 mov	 BYTE PTR __k$[ebp+9], dl
  000a1	8a 50 0a	 mov	 dl, BYTE PTR [eax+10]
  000a4	84 d2		 test	 dl, dl
  000a6	74 2d		 je	 SHORT $LN86@LoadInt_e
  000a8	80 f2 eb	 xor	 dl, -21			; ffffffebH
  000ab	88 55 f6	 mov	 BYTE PTR __k$[ebp+10], dl
  000ae	8a 50 0b	 mov	 dl, BYTE PTR [eax+11]
  000b1	84 d2		 test	 dl, dl
  000b3	74 1a		 je	 SHORT $LN85@LoadInt_e
  000b5	8a 40 0c	 mov	 al, BYTE PTR [eax+12]
  000b8	80 f2 ea	 xor	 dl, -22			; ffffffeaH
  000bb	88 55 f7	 mov	 BYTE PTR __k$[ebp+11], dl
  000be	84 c0		 test	 al, al
  000c0	74 07		 je	 SHORT $LN84@LoadInt_e
  000c2	34 ed		 xor	 al, -19			; ffffffedH
  000c4	88 45 f8	 mov	 BYTE PTR __k$[ebp+12], al
  000c7	eb 46		 jmp	 SHORT $LN1@LoadInt_e
$LN84@LoadInt_e:
  000c9	c6 45 f8 ed	 mov	 BYTE PTR __k$[ebp+12], -19 ; ffffffedH
  000cd	eb 40		 jmp	 SHORT $LN1@LoadInt_e
$LN85@LoadInt_e:
  000cf	c6 45 f7 ea	 mov	 BYTE PTR __k$[ebp+11], -22 ; ffffffeaH
  000d3	eb 3a		 jmp	 SHORT $LN1@LoadInt_e
$LN86@LoadInt_e:
  000d5	c6 45 f6 eb	 mov	 BYTE PTR __k$[ebp+10], -21 ; ffffffebH
  000d9	eb 34		 jmp	 SHORT $LN1@LoadInt_e
$LN87@LoadInt_e:
  000db	c6 45 f5 ec	 mov	 BYTE PTR __k$[ebp+9], -20 ; ffffffecH
  000df	eb 2e		 jmp	 SHORT $LN1@LoadInt_e
$LN89@LoadInt_e:
  000e1	c6 45 f3 ea	 mov	 BYTE PTR __k$[ebp+7], -22 ; ffffffeaH
  000e5	eb 28		 jmp	 SHORT $LN1@LoadInt_e
$LN90@LoadInt_e:
  000e7	c6 45 f2 eb	 mov	 BYTE PTR __k$[ebp+6], -21 ; ffffffebH
  000eb	eb 22		 jmp	 SHORT $LN1@LoadInt_e
$LN91@LoadInt_e:
  000ed	c6 45 f1 ec	 mov	 BYTE PTR __k$[ebp+5], -20 ; ffffffecH
  000f1	eb 1c		 jmp	 SHORT $LN1@LoadInt_e
$LN92@LoadInt_e:
  000f3	c6 45 f0 ed	 mov	 BYTE PTR __k$[ebp+4], -19 ; ffffffedH
  000f7	eb 16		 jmp	 SHORT $LN1@LoadInt_e
$LN93@LoadInt_e:
  000f9	c6 45 ef ea	 mov	 BYTE PTR __k$[ebp+3], -22 ; ffffffeaH
  000fd	eb 10		 jmp	 SHORT $LN1@LoadInt_e
$LN94@LoadInt_e:
  000ff	c6 45 ee eb	 mov	 BYTE PTR __k$[ebp+2], -21 ; ffffffebH
  00103	eb 0a		 jmp	 SHORT $LN1@LoadInt_e
$LN95@LoadInt_e:
  00105	c6 45 ed ec	 mov	 BYTE PTR __k$[ebp+1], -20 ; ffffffecH
  00109	eb 04		 jmp	 SHORT $LN1@LoadInt_e
$LN96@LoadInt_e:
  0010b	c6 45 ec ed	 mov	 BYTE PTR __k$[ebp], -19	; ffffffedH
$LN1@LoadInt_e:
  0010f	6a 02		 push	 2
  00111	8d 45 ec	 lea	 eax, DWORD PTR __k$[ebp]
  00114	c6 45 f4 00	 mov	 BYTE PTR __k$[ebp+8], 0
  00118	5a		 pop	 edx
$LL104@LoadInt_e:
  00119	81 30 ed ec eb
	ea		 xor	 DWORD PTR [eax], -353637139 ; eaebecedH
  0011f	83 c0 04	 add	 eax, 4
  00122	4a		 dec	 edx
  00123	75 f4		 jne	 SHORT $LL104@LoadInt_e

; 120  : 		return LoadInt(_k, i);

  00125	ff 75 0c	 push	 DWORD PTR _i$[ebp]
  00128	8d 45 ec	 lea	 eax, DWORD PTR __k$[ebp]
  0012b	50		 push	 eax
  0012c	ff 15 00 00 00
	00		 call	 DWORD PTR __imp_?LoadInt@ioINILoader@@QAEHPBDH@Z

; 121  : 	}

  00132	8b 4d fc	 mov	 ecx, DWORD PTR __$ArrayPad$[ebp]
  00135	33 cd		 xor	 ecx, ebp
  00137	e8 00 00 00 00	 call	 @__security_check_cookie@4
  0013c	c9		 leave
  0013d	c2 08 00	 ret	 8
??$LoadInt_e@$08@ioINILoader@@QAEHAAY08$$CBDH@Z ENDP	; ioINILoader::LoadInt_e<9>
_TEXT	ENDS
PUBLIC	__$ArrayPad$
PUBLIC	??$LoadInt_e@$0P@@ioINILoader@@QAEHAAY0P@$$CBDH@Z ; ioINILoader::LoadInt_e<15>
; Function compile flags: /Ogsp
;	COMDAT ??$LoadInt_e@$0P@@ioINILoader@@QAEHAAY0P@$$CBDH@Z
_TEXT	SEGMENT
__k$ = -24						; size = 15
__$ArrayPad$ = -4					; size = 4
_k$ = 8							; size = 4
_i$ = 12						; size = 4
??$LoadInt_e@$0P@@ioINILoader@@QAEHAAY0P@$$CBDH@Z PROC	; ioINILoader::LoadInt_e<15>, COMDAT
; _this$ = ecx

; 118  : 	{

  00000	55		 push	 ebp
  00001	8b ec		 mov	 ebp, esp
  00003	83 ec 18	 sub	 esp, 24			; 00000018H
  00006	a1 00 00 00 00	 mov	 eax, DWORD PTR ___security_cookie
  0000b	33 c5		 xor	 eax, ebp
  0000d	89 45 fc	 mov	 DWORD PTR __$ArrayPad$[ebp], eax
  00010	8b 45 08	 mov	 eax, DWORD PTR _k$[ebp]

; 119  : 		_ENCSTR(k, _k);

  00013	8a 10		 mov	 dl, BYTE PTR [eax]
  00015	56		 push	 esi
  00016	8b f1		 mov	 esi, ecx
  00018	84 d2		 test	 dl, dl
  0001a	0f 84 75 01 00
	00		 je	 $LN96@LoadInt_e@2
  00020	80 f2 ed	 xor	 dl, -19			; ffffffedH
  00023	88 55 e8	 mov	 BYTE PTR __k$[ebp], dl
  00026	8a 50 01	 mov	 dl, BYTE PTR [eax+1]
  00029	84 d2		 test	 dl, dl
  0002b	0f 84 5e 01 00
	00		 je	 $LN95@LoadInt_e@2
  00031	b1 ec		 mov	 cl, -20			; ffffffecH
  00033	32 d1		 xor	 dl, cl
  00035	88 55 e9	 mov	 BYTE PTR __k$[ebp+1], dl
  00038	8a 50 02	 mov	 dl, BYTE PTR [eax+2]
  0003b	84 d2		 test	 dl, dl
  0003d	0f 84 46 01 00
	00		 je	 $LN94@LoadInt_e@2
  00043	80 f2 eb	 xor	 dl, -21			; ffffffebH
  00046	88 55 ea	 mov	 BYTE PTR __k$[ebp+2], dl
  00049	8a 50 03	 mov	 dl, BYTE PTR [eax+3]
  0004c	84 d2		 test	 dl, dl
  0004e	0f 84 2f 01 00
	00		 je	 $LN93@LoadInt_e@2
  00054	80 f2 ea	 xor	 dl, -22			; ffffffeaH
  00057	88 55 eb	 mov	 BYTE PTR __k$[ebp+3], dl
  0005a	8a 50 04	 mov	 dl, BYTE PTR [eax+4]
  0005d	84 d2		 test	 dl, dl
  0005f	0f 84 18 01 00
	00		 je	 $LN92@LoadInt_e@2
  00065	80 f2 ed	 xor	 dl, -19			; ffffffedH
  00068	88 55 ec	 mov	 BYTE PTR __k$[ebp+4], dl
  0006b	8a 50 05	 mov	 dl, BYTE PTR [eax+5]
  0006e	84 d2		 test	 dl, dl
  00070	0f 84 02 01 00
	00		 je	 $LN91@LoadInt_e@2
  00076	32 d1		 xor	 dl, cl
  00078	88 55 ed	 mov	 BYTE PTR __k$[ebp+5], dl
  0007b	8a 50 06	 mov	 dl, BYTE PTR [eax+6]
  0007e	84 d2		 test	 dl, dl
  00080	0f 84 ec 00 00
	00		 je	 $LN90@LoadInt_e@2
  00086	80 f2 eb	 xor	 dl, -21			; ffffffebH
  00089	88 55 ee	 mov	 BYTE PTR __k$[ebp+6], dl
  0008c	8a 50 07	 mov	 dl, BYTE PTR [eax+7]
  0008f	84 d2		 test	 dl, dl
  00091	0f 84 d5 00 00
	00		 je	 $LN89@LoadInt_e@2
  00097	80 f2 ea	 xor	 dl, -22			; ffffffeaH
  0009a	88 55 ef	 mov	 BYTE PTR __k$[ebp+7], dl
  0009d	8a 50 08	 mov	 dl, BYTE PTR [eax+8]
  000a0	84 d2		 test	 dl, dl
  000a2	0f 84 be 00 00
	00		 je	 $LN88@LoadInt_e@2
  000a8	80 f2 ed	 xor	 dl, -19			; ffffffedH
  000ab	88 55 f0	 mov	 BYTE PTR __k$[ebp+8], dl
  000ae	8a 50 09	 mov	 dl, BYTE PTR [eax+9]
  000b1	84 d2		 test	 dl, dl
  000b3	0f 84 a8 00 00
	00		 je	 $LN87@LoadInt_e@2
  000b9	32 d1		 xor	 dl, cl
  000bb	88 55 f1	 mov	 BYTE PTR __k$[ebp+9], dl
  000be	8a 50 0a	 mov	 dl, BYTE PTR [eax+10]
  000c1	84 d2		 test	 dl, dl
  000c3	0f 84 92 00 00
	00		 je	 $LN86@LoadInt_e@2
  000c9	80 f2 eb	 xor	 dl, -21			; ffffffebH
  000cc	88 55 f2	 mov	 BYTE PTR __k$[ebp+10], dl
  000cf	8a 50 0b	 mov	 dl, BYTE PTR [eax+11]
  000d2	84 d2		 test	 dl, dl
  000d4	74 7f		 je	 SHORT $LN85@LoadInt_e@2
  000d6	80 f2 ea	 xor	 dl, -22			; ffffffeaH
  000d9	88 55 f3	 mov	 BYTE PTR __k$[ebp+11], dl
  000dc	8a 50 0c	 mov	 dl, BYTE PTR [eax+12]
  000df	84 d2		 test	 dl, dl
  000e1	74 6c		 je	 SHORT $LN84@LoadInt_e@2
  000e3	80 f2 ed	 xor	 dl, -19			; ffffffedH
  000e6	88 55 f4	 mov	 BYTE PTR __k$[ebp+12], dl
  000e9	8a 50 0d	 mov	 dl, BYTE PTR [eax+13]
  000ec	84 d2		 test	 dl, dl
  000ee	74 5a		 je	 SHORT $LN83@LoadInt_e@2
  000f0	32 d1		 xor	 dl, cl
  000f2	80 78 0e 00	 cmp	 BYTE PTR [eax+14], 0
  000f6	88 55 f5	 mov	 BYTE PTR __k$[ebp+13], dl
  000f9	0f 84 9a 00 00
	00		 je	 $LN1@LoadInt_e@2
  000ff	8a 50 0f	 mov	 dl, BYTE PTR [eax+15]
  00102	84 d2		 test	 dl, dl
  00104	74 3e		 je	 SHORT $LN81@LoadInt_e@2
  00106	80 f2 ea	 xor	 dl, -22			; ffffffeaH
  00109	88 55 f7	 mov	 BYTE PTR __k$[ebp+15], dl
  0010c	8a 50 10	 mov	 dl, BYTE PTR [eax+16]
  0010f	84 d2		 test	 dl, dl
  00111	74 2b		 je	 SHORT $LN80@LoadInt_e@2
  00113	80 f2 ed	 xor	 dl, -19			; ffffffedH
  00116	88 55 f8	 mov	 BYTE PTR __k$[ebp+16], dl
  00119	8a 50 11	 mov	 dl, BYTE PTR [eax+17]
  0011c	84 d2		 test	 dl, dl
  0011e	74 19		 je	 SHORT $LN79@LoadInt_e@2
  00120	8a 40 12	 mov	 al, BYTE PTR [eax+18]
  00123	32 d1		 xor	 dl, cl
  00125	88 55 f9	 mov	 BYTE PTR __k$[ebp+17], dl
  00128	84 c0		 test	 al, al
  0012a	74 07		 je	 SHORT $LN78@LoadInt_e@2
  0012c	34 eb		 xor	 al, -21			; ffffffebH
  0012e	88 45 fa	 mov	 BYTE PTR __k$[ebp+18], al
  00131	eb 66		 jmp	 SHORT $LN1@LoadInt_e@2
$LN78@LoadInt_e@2:
  00133	c6 45 fa eb	 mov	 BYTE PTR __k$[ebp+18], -21 ; ffffffebH
  00137	eb 60		 jmp	 SHORT $LN1@LoadInt_e@2
$LN79@LoadInt_e@2:
  00139	88 4d f9	 mov	 BYTE PTR __k$[ebp+17], cl
  0013c	eb 5b		 jmp	 SHORT $LN1@LoadInt_e@2
$LN80@LoadInt_e@2:
  0013e	c6 45 f8 ed	 mov	 BYTE PTR __k$[ebp+16], -19 ; ffffffedH
  00142	eb 55		 jmp	 SHORT $LN1@LoadInt_e@2
$LN81@LoadInt_e@2:
  00144	c6 45 f7 ea	 mov	 BYTE PTR __k$[ebp+15], -22 ; ffffffeaH
  00148	eb 4f		 jmp	 SHORT $LN1@LoadInt_e@2
$LN83@LoadInt_e@2:
  0014a	88 4d f5	 mov	 BYTE PTR __k$[ebp+13], cl
  0014d	eb 4a		 jmp	 SHORT $LN1@LoadInt_e@2
$LN84@LoadInt_e@2:
  0014f	c6 45 f4 ed	 mov	 BYTE PTR __k$[ebp+12], -19 ; ffffffedH
  00153	eb 44		 jmp	 SHORT $LN1@LoadInt_e@2
$LN85@LoadInt_e@2:
  00155	c6 45 f3 ea	 mov	 BYTE PTR __k$[ebp+11], -22 ; ffffffeaH
  00159	eb 3e		 jmp	 SHORT $LN1@LoadInt_e@2
$LN86@LoadInt_e@2:
  0015b	c6 45 f2 eb	 mov	 BYTE PTR __k$[ebp+10], -21 ; ffffffebH
  0015f	eb 38		 jmp	 SHORT $LN1@LoadInt_e@2
$LN87@LoadInt_e@2:
  00161	88 4d f1	 mov	 BYTE PTR __k$[ebp+9], cl
  00164	eb 33		 jmp	 SHORT $LN1@LoadInt_e@2
$LN88@LoadInt_e@2:
  00166	c6 45 f0 ed	 mov	 BYTE PTR __k$[ebp+8], -19 ; ffffffedH
  0016a	eb 2d		 jmp	 SHORT $LN1@LoadInt_e@2
$LN89@LoadInt_e@2:
  0016c	c6 45 ef ea	 mov	 BYTE PTR __k$[ebp+7], -22 ; ffffffeaH
  00170	eb 27		 jmp	 SHORT $LN1@LoadInt_e@2
$LN90@LoadInt_e@2:
  00172	c6 45 ee eb	 mov	 BYTE PTR __k$[ebp+6], -21 ; ffffffebH
  00176	eb 21		 jmp	 SHORT $LN1@LoadInt_e@2
$LN91@LoadInt_e@2:
  00178	88 4d ed	 mov	 BYTE PTR __k$[ebp+5], cl
  0017b	eb 1c		 jmp	 SHORT $LN1@LoadInt_e@2
$LN92@LoadInt_e@2:
  0017d	c6 45 ec ed	 mov	 BYTE PTR __k$[ebp+4], -19 ; ffffffedH
  00181	eb 16		 jmp	 SHORT $LN1@LoadInt_e@2
$LN93@LoadInt_e@2:
  00183	c6 45 eb ea	 mov	 BYTE PTR __k$[ebp+3], -22 ; ffffffeaH
  00187	eb 10		 jmp	 SHORT $LN1@LoadInt_e@2
$LN94@LoadInt_e@2:
  00189	c6 45 ea eb	 mov	 BYTE PTR __k$[ebp+2], -21 ; ffffffebH
  0018d	eb 0a		 jmp	 SHORT $LN1@LoadInt_e@2
$LN95@LoadInt_e@2:
  0018f	c6 45 e9 ec	 mov	 BYTE PTR __k$[ebp+1], -20 ; ffffffecH
  00193	eb 04		 jmp	 SHORT $LN1@LoadInt_e@2
$LN96@LoadInt_e@2:
  00195	c6 45 e8 ed	 mov	 BYTE PTR __k$[ebp], -19	; ffffffedH
$LN1@LoadInt_e@2:
  00199	6a 03		 push	 3
  0019b	8d 45 e8	 lea	 eax, DWORD PTR __k$[ebp]
  0019e	c6 45 f6 00	 mov	 BYTE PTR __k$[ebp+14], 0
  001a2	5a		 pop	 edx
$LL104@LoadInt_e@2:
  001a3	81 30 ed ec eb
	ea		 xor	 DWORD PTR [eax], -353637139 ; eaebecedH
  001a9	83 c0 04	 add	 eax, 4
  001ac	4a		 dec	 edx
  001ad	75 f4		 jne	 SHORT $LL104@LoadInt_e@2
  001af	6a 0c		 push	 12			; 0000000cH
  001b1	58		 pop	 eax
$LL101@LoadInt_e@2:
  001b2	8b c8		 mov	 ecx, eax
  001b4	81 e1 03 00 00
	80		 and	 ecx, -2147483645	; 80000003H
  001ba	79 05		 jns	 SHORT $LN111@LoadInt_e@2
  001bc	49		 dec	 ecx
  001bd	83 c9 fc	 or	 ecx, -4			; fffffffcH
  001c0	41		 inc	 ecx
$LN111@LoadInt_e@2:
  001c1	b2 ed		 mov	 dl, -19			; ffffffedH
  001c3	2a d1		 sub	 dl, cl
  001c5	30 54 05 e8	 xor	 BYTE PTR __k$[ebp+eax], dl
  001c9	40		 inc	 eax
  001ca	83 f8 0e	 cmp	 eax, 14			; 0000000eH
  001cd	7c e3		 jl	 SHORT $LL101@LoadInt_e@2

; 120  : 		return LoadInt(_k, i);

  001cf	ff 75 0c	 push	 DWORD PTR _i$[ebp]
  001d2	8d 45 e8	 lea	 eax, DWORD PTR __k$[ebp]
  001d5	50		 push	 eax
  001d6	8b ce		 mov	 ecx, esi
  001d8	ff 15 00 00 00
	00		 call	 DWORD PTR __imp_?LoadInt@ioINILoader@@QAEHPBDH@Z

; 121  : 	}

  001de	8b 4d fc	 mov	 ecx, DWORD PTR __$ArrayPad$[ebp]
  001e1	33 cd		 xor	 ecx, ebp
  001e3	5e		 pop	 esi
  001e4	e8 00 00 00 00	 call	 @__security_check_cookie@4
  001e9	c9		 leave
  001ea	c2 08 00	 ret	 8
??$LoadInt_e@$0P@@ioINILoader@@QAEHAAY0P@$$CBDH@Z ENDP	; ioINILoader::LoadInt_e<15>
_TEXT	ENDS
PUBLIC	__$ArrayPad$
PUBLIC	??$LoadInt_e@$0BB@@ioINILoader@@QAEHAAY0BB@$$CBDH@Z ; ioINILoader::LoadInt_e<17>
; Function compile flags: /Ogsp
;	COMDAT ??$LoadInt_e@$0BB@@ioINILoader@@QAEHAAY0BB@$$CBDH@Z
_TEXT	SEGMENT
__k$ = -28						; size = 17
__$ArrayPad$ = -4					; size = 4
_k$ = 8							; size = 4
_i$ = 12						; size = 4
??$LoadInt_e@$0BB@@ioINILoader@@QAEHAAY0BB@$$CBDH@Z PROC ; ioINILoader::LoadInt_e<17>, COMDAT
; _this$ = ecx

; 118  : 	{

  00000	55		 push	 ebp
  00001	8b ec		 mov	 ebp, esp
  00003	83 ec 1c	 sub	 esp, 28			; 0000001cH
  00006	a1 00 00 00 00	 mov	 eax, DWORD PTR ___security_cookie
  0000b	33 c5		 xor	 eax, ebp
  0000d	89 45 fc	 mov	 DWORD PTR __$ArrayPad$[ebp], eax
  00010	8b 45 08	 mov	 eax, DWORD PTR _k$[ebp]

; 119  : 		_ENCSTR(k, _k);

  00013	8a 10		 mov	 dl, BYTE PTR [eax]
  00015	56		 push	 esi
  00016	8b f1		 mov	 esi, ecx
  00018	84 d2		 test	 dl, dl
  0001a	0f 84 a7 01 00
	00		 je	 $LN96@LoadInt_e@3
  00020	80 f2 ed	 xor	 dl, -19			; ffffffedH
  00023	88 55 e4	 mov	 BYTE PTR __k$[ebp], dl
  00026	8a 50 01	 mov	 dl, BYTE PTR [eax+1]
  00029	84 d2		 test	 dl, dl
  0002b	0f 84 90 01 00
	00		 je	 $LN95@LoadInt_e@3
  00031	b1 ec		 mov	 cl, -20			; ffffffecH
  00033	32 d1		 xor	 dl, cl
  00035	88 55 e5	 mov	 BYTE PTR __k$[ebp+1], dl
  00038	8a 50 02	 mov	 dl, BYTE PTR [eax+2]
  0003b	84 d2		 test	 dl, dl
  0003d	0f 84 78 01 00
	00		 je	 $LN94@LoadInt_e@3
  00043	80 f2 eb	 xor	 dl, -21			; ffffffebH
  00046	88 55 e6	 mov	 BYTE PTR __k$[ebp+2], dl
  00049	8a 50 03	 mov	 dl, BYTE PTR [eax+3]
  0004c	84 d2		 test	 dl, dl
  0004e	0f 84 61 01 00
	00		 je	 $LN93@LoadInt_e@3
  00054	80 f2 ea	 xor	 dl, -22			; ffffffeaH
  00057	88 55 e7	 mov	 BYTE PTR __k$[ebp+3], dl
  0005a	8a 50 04	 mov	 dl, BYTE PTR [eax+4]
  0005d	84 d2		 test	 dl, dl
  0005f	0f 84 4a 01 00
	00		 je	 $LN92@LoadInt_e@3
  00065	80 f2 ed	 xor	 dl, -19			; ffffffedH
  00068	88 55 e8	 mov	 BYTE PTR __k$[ebp+4], dl
  0006b	8a 50 05	 mov	 dl, BYTE PTR [eax+5]
  0006e	84 d2		 test	 dl, dl
  00070	0f 84 34 01 00
	00		 je	 $LN91@LoadInt_e@3
  00076	32 d1		 xor	 dl, cl
  00078	88 55 e9	 mov	 BYTE PTR __k$[ebp+5], dl
  0007b	8a 50 06	 mov	 dl, BYTE PTR [eax+6]
  0007e	84 d2		 test	 dl, dl
  00080	0f 84 1e 01 00
	00		 je	 $LN90@LoadInt_e@3
  00086	80 f2 eb	 xor	 dl, -21			; ffffffebH
  00089	88 55 ea	 mov	 BYTE PTR __k$[ebp+6], dl
  0008c	8a 50 07	 mov	 dl, BYTE PTR [eax+7]
  0008f	84 d2		 test	 dl, dl
  00091	0f 84 07 01 00
	00		 je	 $LN89@LoadInt_e@3
  00097	80 f2 ea	 xor	 dl, -22			; ffffffeaH
  0009a	88 55 eb	 mov	 BYTE PTR __k$[ebp+7], dl
  0009d	8a 50 08	 mov	 dl, BYTE PTR [eax+8]
  000a0	84 d2		 test	 dl, dl
  000a2	0f 84 f0 00 00
	00		 je	 $LN88@LoadInt_e@3
  000a8	80 f2 ed	 xor	 dl, -19			; ffffffedH
  000ab	88 55 ec	 mov	 BYTE PTR __k$[ebp+8], dl
  000ae	8a 50 09	 mov	 dl, BYTE PTR [eax+9]
  000b1	84 d2		 test	 dl, dl
  000b3	0f 84 da 00 00
	00		 je	 $LN87@LoadInt_e@3
  000b9	32 d1		 xor	 dl, cl
  000bb	88 55 ed	 mov	 BYTE PTR __k$[ebp+9], dl
  000be	8a 50 0a	 mov	 dl, BYTE PTR [eax+10]
  000c1	84 d2		 test	 dl, dl
  000c3	0f 84 c4 00 00
	00		 je	 $LN86@LoadInt_e@3
  000c9	80 f2 eb	 xor	 dl, -21			; ffffffebH
  000cc	88 55 ee	 mov	 BYTE PTR __k$[ebp+10], dl
  000cf	8a 50 0b	 mov	 dl, BYTE PTR [eax+11]
  000d2	84 d2		 test	 dl, dl
  000d4	0f 84 ad 00 00
	00		 je	 $LN85@LoadInt_e@3
  000da	80 f2 ea	 xor	 dl, -22			; ffffffeaH
  000dd	88 55 ef	 mov	 BYTE PTR __k$[ebp+11], dl
  000e0	8a 50 0c	 mov	 dl, BYTE PTR [eax+12]
  000e3	84 d2		 test	 dl, dl
  000e5	0f 84 96 00 00
	00		 je	 $LN84@LoadInt_e@3
  000eb	80 f2 ed	 xor	 dl, -19			; ffffffedH
  000ee	88 55 f0	 mov	 BYTE PTR __k$[ebp+12], dl
  000f1	8a 50 0d	 mov	 dl, BYTE PTR [eax+13]
  000f4	84 d2		 test	 dl, dl
  000f6	0f 84 80 00 00
	00		 je	 $LN83@LoadInt_e@3
  000fc	32 d1		 xor	 dl, cl
  000fe	88 55 f1	 mov	 BYTE PTR __k$[ebp+13], dl
  00101	8a 50 0e	 mov	 dl, BYTE PTR [eax+14]
  00104	84 d2		 test	 dl, dl
  00106	74 6e		 je	 SHORT $LN82@LoadInt_e@3
  00108	80 f2 eb	 xor	 dl, -21			; ffffffebH
  0010b	88 55 f2	 mov	 BYTE PTR __k$[ebp+14], dl
  0010e	8a 50 0f	 mov	 dl, BYTE PTR [eax+15]
  00111	84 d2		 test	 dl, dl
  00113	74 5b		 je	 SHORT $LN81@LoadInt_e@3
  00115	80 f2 ea	 xor	 dl, -22			; ffffffeaH
  00118	80 78 10 00	 cmp	 BYTE PTR [eax+16], 0
  0011c	88 55 f3	 mov	 BYTE PTR __k$[ebp+15], dl
  0011f	0f 84 a6 00 00
	00		 je	 $LN1@LoadInt_e@3
  00125	8a 50 11	 mov	 dl, BYTE PTR [eax+17]
  00128	84 d2		 test	 dl, dl
  0012a	74 3f		 je	 SHORT $LN79@LoadInt_e@3
  0012c	32 d1		 xor	 dl, cl
  0012e	88 55 f5	 mov	 BYTE PTR __k$[ebp+17], dl
  00131	8a 50 12	 mov	 dl, BYTE PTR [eax+18]
  00134	84 d2		 test	 dl, dl
  00136	74 2d		 je	 SHORT $LN78@LoadInt_e@3
  00138	80 f2 eb	 xor	 dl, -21			; ffffffebH
  0013b	88 55 f6	 mov	 BYTE PTR __k$[ebp+18], dl
  0013e	8a 50 13	 mov	 dl, BYTE PTR [eax+19]
  00141	84 d2		 test	 dl, dl
  00143	74 1a		 je	 SHORT $LN77@LoadInt_e@3
  00145	8a 40 14	 mov	 al, BYTE PTR [eax+20]
  00148	80 f2 ea	 xor	 dl, -22			; ffffffeaH
  0014b	88 55 f7	 mov	 BYTE PTR __k$[ebp+19], dl
  0014e	84 c0		 test	 al, al
  00150	74 07		 je	 SHORT $LN76@LoadInt_e@3
  00152	34 ed		 xor	 al, -19			; ffffffedH
  00154	88 45 f8	 mov	 BYTE PTR __k$[ebp+20], al
  00157	eb 72		 jmp	 SHORT $LN1@LoadInt_e@3
$LN76@LoadInt_e@3:
  00159	c6 45 f8 ed	 mov	 BYTE PTR __k$[ebp+20], -19 ; ffffffedH
  0015d	eb 6c		 jmp	 SHORT $LN1@LoadInt_e@3
$LN77@LoadInt_e@3:
  0015f	c6 45 f7 ea	 mov	 BYTE PTR __k$[ebp+19], -22 ; ffffffeaH
  00163	eb 66		 jmp	 SHORT $LN1@LoadInt_e@3
$LN78@LoadInt_e@3:
  00165	c6 45 f6 eb	 mov	 BYTE PTR __k$[ebp+18], -21 ; ffffffebH
  00169	eb 60		 jmp	 SHORT $LN1@LoadInt_e@3
$LN79@LoadInt_e@3:
  0016b	88 4d f5	 mov	 BYTE PTR __k$[ebp+17], cl
  0016e	eb 5b		 jmp	 SHORT $LN1@LoadInt_e@3
$LN81@LoadInt_e@3:
  00170	c6 45 f3 ea	 mov	 BYTE PTR __k$[ebp+15], -22 ; ffffffeaH
  00174	eb 55		 jmp	 SHORT $LN1@LoadInt_e@3
$LN82@LoadInt_e@3:
  00176	c6 45 f2 eb	 mov	 BYTE PTR __k$[ebp+14], -21 ; ffffffebH
  0017a	eb 4f		 jmp	 SHORT $LN1@LoadInt_e@3
$LN83@LoadInt_e@3:
  0017c	88 4d f1	 mov	 BYTE PTR __k$[ebp+13], cl
  0017f	eb 4a		 jmp	 SHORT $LN1@LoadInt_e@3
$LN84@LoadInt_e@3:
  00181	c6 45 f0 ed	 mov	 BYTE PTR __k$[ebp+12], -19 ; ffffffedH
  00185	eb 44		 jmp	 SHORT $LN1@LoadInt_e@3
$LN85@LoadInt_e@3:
  00187	c6 45 ef ea	 mov	 BYTE PTR __k$[ebp+11], -22 ; ffffffeaH
  0018b	eb 3e		 jmp	 SHORT $LN1@LoadInt_e@3
$LN86@LoadInt_e@3:
  0018d	c6 45 ee eb	 mov	 BYTE PTR __k$[ebp+10], -21 ; ffffffebH
  00191	eb 38		 jmp	 SHORT $LN1@LoadInt_e@3
$LN87@LoadInt_e@3:
  00193	88 4d ed	 mov	 BYTE PTR __k$[ebp+9], cl
  00196	eb 33		 jmp	 SHORT $LN1@LoadInt_e@3
$LN88@LoadInt_e@3:
  00198	c6 45 ec ed	 mov	 BYTE PTR __k$[ebp+8], -19 ; ffffffedH
  0019c	eb 2d		 jmp	 SHORT $LN1@LoadInt_e@3
$LN89@LoadInt_e@3:
  0019e	c6 45 eb ea	 mov	 BYTE PTR __k$[ebp+7], -22 ; ffffffeaH
  001a2	eb 27		 jmp	 SHORT $LN1@LoadInt_e@3
$LN90@LoadInt_e@3:
  001a4	c6 45 ea eb	 mov	 BYTE PTR __k$[ebp+6], -21 ; ffffffebH
  001a8	eb 21		 jmp	 SHORT $LN1@LoadInt_e@3
$LN91@LoadInt_e@3:
  001aa	88 4d e9	 mov	 BYTE PTR __k$[ebp+5], cl
  001ad	eb 1c		 jmp	 SHORT $LN1@LoadInt_e@3
$LN92@LoadInt_e@3:
  001af	c6 45 e8 ed	 mov	 BYTE PTR __k$[ebp+4], -19 ; ffffffedH
  001b3	eb 16		 jmp	 SHORT $LN1@LoadInt_e@3
$LN93@LoadInt_e@3:
  001b5	c6 45 e7 ea	 mov	 BYTE PTR __k$[ebp+3], -22 ; ffffffeaH
  001b9	eb 10		 jmp	 SHORT $LN1@LoadInt_e@3
$LN94@LoadInt_e@3:
  001bb	c6 45 e6 eb	 mov	 BYTE PTR __k$[ebp+2], -21 ; ffffffebH
  001bf	eb 0a		 jmp	 SHORT $LN1@LoadInt_e@3
$LN95@LoadInt_e@3:
  001c1	c6 45 e5 ec	 mov	 BYTE PTR __k$[ebp+1], -20 ; ffffffecH
  001c5	eb 04		 jmp	 SHORT $LN1@LoadInt_e@3
$LN96@LoadInt_e@3:
  001c7	c6 45 e4 ed	 mov	 BYTE PTR __k$[ebp], -19	; ffffffedH
$LN1@LoadInt_e@3:
  001cb	6a 04		 push	 4
  001cd	8d 45 e4	 lea	 eax, DWORD PTR __k$[ebp]
  001d0	c6 45 f4 00	 mov	 BYTE PTR __k$[ebp+16], 0
  001d4	5a		 pop	 edx
$LL104@LoadInt_e@3:
  001d5	81 30 ed ec eb
	ea		 xor	 DWORD PTR [eax], -353637139 ; eaebecedH
  001db	83 c0 04	 add	 eax, 4
  001de	4a		 dec	 edx
  001df	75 f4		 jne	 SHORT $LL104@LoadInt_e@3

; 120  : 		return LoadInt(_k, i);

  001e1	ff 75 0c	 push	 DWORD PTR _i$[ebp]
  001e4	8d 45 e4	 lea	 eax, DWORD PTR __k$[ebp]
  001e7	50		 push	 eax
  001e8	8b ce		 mov	 ecx, esi
  001ea	ff 15 00 00 00
	00		 call	 DWORD PTR __imp_?LoadInt@ioINILoader@@QAEHPBDH@Z

; 121  : 	}

  001f0	8b 4d fc	 mov	 ecx, DWORD PTR __$ArrayPad$[ebp]
  001f3	33 cd		 xor	 ecx, ebp
  001f5	5e		 pop	 esi
  001f6	e8 00 00 00 00	 call	 @__security_check_cookie@4
  001fb	c9		 leave
  001fc	c2 08 00	 ret	 8
??$LoadInt_e@$0BB@@ioINILoader@@QAEHAAY0BB@$$CBDH@Z ENDP ; ioINILoader::LoadInt_e<17>
_TEXT	ENDS
PUBLIC	__$ArrayPad$
PUBLIC	??$LoadInt_e@$0BD@@ioINILoader@@QAEHAAY0BD@$$CBDH@Z ; ioINILoader::LoadInt_e<19>
; Function compile flags: /Ogsp
;	COMDAT ??$LoadInt_e@$0BD@@ioINILoader@@QAEHAAY0BD@$$CBDH@Z
_TEXT	SEGMENT
__k$ = -28						; size = 19
__$ArrayPad$ = -4					; size = 4
_k$ = 8							; size = 4
_i$ = 12						; size = 4
??$LoadInt_e@$0BD@@ioINILoader@@QAEHAAY0BD@$$CBDH@Z PROC ; ioINILoader::LoadInt_e<19>, COMDAT
; _this$ = ecx

; 118  : 	{

  00000	55		 push	 ebp
  00001	8b ec		 mov	 ebp, esp
  00003	83 ec 1c	 sub	 esp, 28			; 0000001cH
  00006	a1 00 00 00 00	 mov	 eax, DWORD PTR ___security_cookie
  0000b	33 c5		 xor	 eax, ebp
  0000d	89 45 fc	 mov	 DWORD PTR __$ArrayPad$[ebp], eax
  00010	8b 45 08	 mov	 eax, DWORD PTR _k$[ebp]

; 119  : 		_ENCSTR(k, _k);

  00013	8a 10		 mov	 dl, BYTE PTR [eax]
  00015	56		 push	 esi
  00016	8b f1		 mov	 esi, ecx
  00018	84 d2		 test	 dl, dl
  0001a	0f 84 cf 01 00
	00		 je	 $LN96@LoadInt_e@4
  00020	80 f2 ed	 xor	 dl, -19			; ffffffedH
  00023	88 55 e4	 mov	 BYTE PTR __k$[ebp], dl
  00026	8a 50 01	 mov	 dl, BYTE PTR [eax+1]
  00029	84 d2		 test	 dl, dl
  0002b	0f 84 b8 01 00
	00		 je	 $LN95@LoadInt_e@4
  00031	b1 ec		 mov	 cl, -20			; ffffffecH
  00033	32 d1		 xor	 dl, cl
  00035	88 55 e5	 mov	 BYTE PTR __k$[ebp+1], dl
  00038	8a 50 02	 mov	 dl, BYTE PTR [eax+2]
  0003b	84 d2		 test	 dl, dl
  0003d	0f 84 a0 01 00
	00		 je	 $LN94@LoadInt_e@4
  00043	80 f2 eb	 xor	 dl, -21			; ffffffebH
  00046	88 55 e6	 mov	 BYTE PTR __k$[ebp+2], dl
  00049	8a 50 03	 mov	 dl, BYTE PTR [eax+3]
  0004c	84 d2		 test	 dl, dl
  0004e	0f 84 89 01 00
	00		 je	 $LN93@LoadInt_e@4
  00054	80 f2 ea	 xor	 dl, -22			; ffffffeaH
  00057	88 55 e7	 mov	 BYTE PTR __k$[ebp+3], dl
  0005a	8a 50 04	 mov	 dl, BYTE PTR [eax+4]
  0005d	84 d2		 test	 dl, dl
  0005f	0f 84 72 01 00
	00		 je	 $LN92@LoadInt_e@4
  00065	80 f2 ed	 xor	 dl, -19			; ffffffedH
  00068	88 55 e8	 mov	 BYTE PTR __k$[ebp+4], dl
  0006b	8a 50 05	 mov	 dl, BYTE PTR [eax+5]
  0006e	84 d2		 test	 dl, dl
  00070	0f 84 5c 01 00
	00		 je	 $LN91@LoadInt_e@4
  00076	32 d1		 xor	 dl, cl
  00078	88 55 e9	 mov	 BYTE PTR __k$[ebp+5], dl
  0007b	8a 50 06	 mov	 dl, BYTE PTR [eax+6]
  0007e	84 d2		 test	 dl, dl
  00080	0f 84 46 01 00
	00		 je	 $LN90@LoadInt_e@4
  00086	80 f2 eb	 xor	 dl, -21			; ffffffebH
  00089	88 55 ea	 mov	 BYTE PTR __k$[ebp+6], dl
  0008c	8a 50 07	 mov	 dl, BYTE PTR [eax+7]
  0008f	84 d2		 test	 dl, dl
  00091	0f 84 2f 01 00
	00		 je	 $LN89@LoadInt_e@4
  00097	80 f2 ea	 xor	 dl, -22			; ffffffeaH
  0009a	88 55 eb	 mov	 BYTE PTR __k$[ebp+7], dl
  0009d	8a 50 08	 mov	 dl, BYTE PTR [eax+8]
  000a0	84 d2		 test	 dl, dl
  000a2	0f 84 18 01 00
	00		 je	 $LN88@LoadInt_e@4
  000a8	80 f2 ed	 xor	 dl, -19			; ffffffedH
  000ab	88 55 ec	 mov	 BYTE PTR __k$[ebp+8], dl
  000ae	8a 50 09	 mov	 dl, BYTE PTR [eax+9]
  000b1	84 d2		 test	 dl, dl
  000b3	0f 84 02 01 00
	00		 je	 $LN87@LoadInt_e@4
  000b9	32 d1		 xor	 dl, cl
  000bb	88 55 ed	 mov	 BYTE PTR __k$[ebp+9], dl
  000be	8a 50 0a	 mov	 dl, BYTE PTR [eax+10]
  000c1	84 d2		 test	 dl, dl
  000c3	0f 84 ec 00 00
	00		 je	 $LN86@LoadInt_e@4
  000c9	80 f2 eb	 xor	 dl, -21			; ffffffebH
  000cc	88 55 ee	 mov	 BYTE PTR __k$[ebp+10], dl
  000cf	8a 50 0b	 mov	 dl, BYTE PTR [eax+11]
  000d2	84 d2		 test	 dl, dl
  000d4	0f 84 d5 00 00
	00		 je	 $LN85@LoadInt_e@4
  000da	80 f2 ea	 xor	 dl, -22			; ffffffeaH
  000dd	88 55 ef	 mov	 BYTE PTR __k$[ebp+11], dl
  000e0	8a 50 0c	 mov	 dl, BYTE PTR [eax+12]
  000e3	84 d2		 test	 dl, dl
  000e5	0f 84 be 00 00
	00		 je	 $LN84@LoadInt_e@4
  000eb	80 f2 ed	 xor	 dl, -19			; ffffffedH
  000ee	88 55 f0	 mov	 BYTE PTR __k$[ebp+12], dl
  000f1	8a 50 0d	 mov	 dl, BYTE PTR [eax+13]
  000f4	84 d2		 test	 dl, dl
  000f6	0f 84 a8 00 00
	00		 je	 $LN83@LoadInt_e@4
  000fc	32 d1		 xor	 dl, cl
  000fe	88 55 f1	 mov	 BYTE PTR __k$[ebp+13], dl
  00101	8a 50 0e	 mov	 dl, BYTE PTR [eax+14]
  00104	84 d2		 test	 dl, dl
  00106	0f 84 92 00 00
	00		 je	 $LN82@LoadInt_e@4
  0010c	80 f2 eb	 xor	 dl, -21			; ffffffebH
  0010f	88 55 f2	 mov	 BYTE PTR __k$[ebp+14], dl
  00112	8a 50 0f	 mov	 dl, BYTE PTR [eax+15]
  00115	84 d2		 test	 dl, dl
  00117	74 7f		 je	 SHORT $LN81@LoadInt_e@4
  00119	80 f2 ea	 xor	 dl, -22			; ffffffeaH
  0011c	88 55 f3	 mov	 BYTE PTR __k$[ebp+15], dl
  0011f	8a 50 10	 mov	 dl, BYTE PTR [eax+16]
  00122	84 d2		 test	 dl, dl
  00124	74 6c		 je	 SHORT $LN80@LoadInt_e@4
  00126	80 f2 ed	 xor	 dl, -19			; ffffffedH
  00129	88 55 f4	 mov	 BYTE PTR __k$[ebp+16], dl
  0012c	8a 50 11	 mov	 dl, BYTE PTR [eax+17]
  0012f	84 d2		 test	 dl, dl
  00131	74 5a		 je	 SHORT $LN79@LoadInt_e@4
  00133	32 d1		 xor	 dl, cl
  00135	80 78 12 00	 cmp	 BYTE PTR [eax+18], 0
  00139	88 55 f5	 mov	 BYTE PTR __k$[ebp+17], dl
  0013c	0f 84 b1 00 00
	00		 je	 $LN1@LoadInt_e@4
  00142	8a 50 13	 mov	 dl, BYTE PTR [eax+19]
  00145	84 d2		 test	 dl, dl
  00147	74 3e		 je	 SHORT $LN77@LoadInt_e@4
  00149	80 f2 ea	 xor	 dl, -22			; ffffffeaH
  0014c	88 55 f7	 mov	 BYTE PTR __k$[ebp+19], dl
  0014f	8a 50 14	 mov	 dl, BYTE PTR [eax+20]
  00152	84 d2		 test	 dl, dl
  00154	74 2b		 je	 SHORT $LN76@LoadInt_e@4
  00156	80 f2 ed	 xor	 dl, -19			; ffffffedH
  00159	88 55 f8	 mov	 BYTE PTR __k$[ebp+20], dl
  0015c	8a 50 15	 mov	 dl, BYTE PTR [eax+21]
  0015f	84 d2		 test	 dl, dl
  00161	74 19		 je	 SHORT $LN75@LoadInt_e@4
  00163	8a 40 16	 mov	 al, BYTE PTR [eax+22]
  00166	32 d1		 xor	 dl, cl
  00168	88 55 f9	 mov	 BYTE PTR __k$[ebp+21], dl
  0016b	84 c0		 test	 al, al
  0016d	74 07		 je	 SHORT $LN74@LoadInt_e@4
  0016f	34 eb		 xor	 al, -21			; ffffffebH
  00171	88 45 fa	 mov	 BYTE PTR __k$[ebp+22], al
  00174	eb 7d		 jmp	 SHORT $LN1@LoadInt_e@4
$LN74@LoadInt_e@4:
  00176	c6 45 fa eb	 mov	 BYTE PTR __k$[ebp+22], -21 ; ffffffebH
  0017a	eb 77		 jmp	 SHORT $LN1@LoadInt_e@4
$LN75@LoadInt_e@4:
  0017c	88 4d f9	 mov	 BYTE PTR __k$[ebp+21], cl
  0017f	eb 72		 jmp	 SHORT $LN1@LoadInt_e@4
$LN76@LoadInt_e@4:
  00181	c6 45 f8 ed	 mov	 BYTE PTR __k$[ebp+20], -19 ; ffffffedH
  00185	eb 6c		 jmp	 SHORT $LN1@LoadInt_e@4
$LN77@LoadInt_e@4:
  00187	c6 45 f7 ea	 mov	 BYTE PTR __k$[ebp+19], -22 ; ffffffeaH
  0018b	eb 66		 jmp	 SHORT $LN1@LoadInt_e@4
$LN79@LoadInt_e@4:
  0018d	88 4d f5	 mov	 BYTE PTR __k$[ebp+17], cl
  00190	eb 61		 jmp	 SHORT $LN1@LoadInt_e@4
$LN80@LoadInt_e@4:
  00192	c6 45 f4 ed	 mov	 BYTE PTR __k$[ebp+16], -19 ; ffffffedH
  00196	eb 5b		 jmp	 SHORT $LN1@LoadInt_e@4
$LN81@LoadInt_e@4:
  00198	c6 45 f3 ea	 mov	 BYTE PTR __k$[ebp+15], -22 ; ffffffeaH
  0019c	eb 55		 jmp	 SHORT $LN1@LoadInt_e@4
$LN82@LoadInt_e@4:
  0019e	c6 45 f2 eb	 mov	 BYTE PTR __k$[ebp+14], -21 ; ffffffebH
  001a2	eb 4f		 jmp	 SHORT $LN1@LoadInt_e@4
$LN83@LoadInt_e@4:
  001a4	88 4d f1	 mov	 BYTE PTR __k$[ebp+13], cl
  001a7	eb 4a		 jmp	 SHORT $LN1@LoadInt_e@4
$LN84@LoadInt_e@4:
  001a9	c6 45 f0 ed	 mov	 BYTE PTR __k$[ebp+12], -19 ; ffffffedH
  001ad	eb 44		 jmp	 SHORT $LN1@LoadInt_e@4
$LN85@LoadInt_e@4:
  001af	c6 45 ef ea	 mov	 BYTE PTR __k$[ebp+11], -22 ; ffffffeaH
  001b3	eb 3e		 jmp	 SHORT $LN1@LoadInt_e@4
$LN86@LoadInt_e@4:
  001b5	c6 45 ee eb	 mov	 BYTE PTR __k$[ebp+10], -21 ; ffffffebH
  001b9	eb 38		 jmp	 SHORT $LN1@LoadInt_e@4
$LN87@LoadInt_e@4:
  001bb	88 4d ed	 mov	 BYTE PTR __k$[ebp+9], cl
  001be	eb 33		 jmp	 SHORT $LN1@LoadInt_e@4
$LN88@LoadInt_e@4:
  001c0	c6 45 ec ed	 mov	 BYTE PTR __k$[ebp+8], -19 ; ffffffedH
  001c4	eb 2d		 jmp	 SHORT $LN1@LoadInt_e@4
$LN89@LoadInt_e@4:
  001c6	c6 45 eb ea	 mov	 BYTE PTR __k$[ebp+7], -22 ; ffffffeaH
  001ca	eb 27		 jmp	 SHORT $LN1@LoadInt_e@4
$LN90@LoadInt_e@4:
  001cc	c6 45 ea eb	 mov	 BYTE PTR __k$[ebp+6], -21 ; ffffffebH
  001d0	eb 21		 jmp	 SHORT $LN1@LoadInt_e@4
$LN91@LoadInt_e@4:
  001d2	88 4d e9	 mov	 BYTE PTR __k$[ebp+5], cl
  001d5	eb 1c		 jmp	 SHORT $LN1@LoadInt_e@4
$LN92@LoadInt_e@4:
  001d7	c6 45 e8 ed	 mov	 BYTE PTR __k$[ebp+4], -19 ; ffffffedH
  001db	eb 16		 jmp	 SHORT $LN1@LoadInt_e@4
$LN93@LoadInt_e@4:
  001dd	c6 45 e7 ea	 mov	 BYTE PTR __k$[ebp+3], -22 ; ffffffeaH
  001e1	eb 10		 jmp	 SHORT $LN1@LoadInt_e@4
$LN94@LoadInt_e@4:
  001e3	c6 45 e6 eb	 mov	 BYTE PTR __k$[ebp+2], -21 ; ffffffebH
  001e7	eb 0a		 jmp	 SHORT $LN1@LoadInt_e@4
$LN95@LoadInt_e@4:
  001e9	c6 45 e5 ec	 mov	 BYTE PTR __k$[ebp+1], -20 ; ffffffecH
  001ed	eb 04		 jmp	 SHORT $LN1@LoadInt_e@4
$LN96@LoadInt_e@4:
  001ef	c6 45 e4 ed	 mov	 BYTE PTR __k$[ebp], -19	; ffffffedH
$LN1@LoadInt_e@4:
  001f3	6a 04		 push	 4
  001f5	8d 45 e4	 lea	 eax, DWORD PTR __k$[ebp]
  001f8	c6 45 f6 00	 mov	 BYTE PTR __k$[ebp+18], 0
  001fc	5a		 pop	 edx
$LL104@LoadInt_e@4:
  001fd	81 30 ed ec eb
	ea		 xor	 DWORD PTR [eax], -353637139 ; eaebecedH
  00203	83 c0 04	 add	 eax, 4
  00206	4a		 dec	 edx
  00207	75 f4		 jne	 SHORT $LL104@LoadInt_e@4
  00209	6a 10		 push	 16			; 00000010H
  0020b	58		 pop	 eax
$LL101@LoadInt_e@4:
  0020c	8b c8		 mov	 ecx, eax
  0020e	81 e1 03 00 00
	80		 and	 ecx, -2147483645	; 80000003H
  00214	79 05		 jns	 SHORT $LN111@LoadInt_e@4
  00216	49		 dec	 ecx
  00217	83 c9 fc	 or	 ecx, -4			; fffffffcH
  0021a	41		 inc	 ecx
$LN111@LoadInt_e@4:
  0021b	b2 ed		 mov	 dl, -19			; ffffffedH
  0021d	2a d1		 sub	 dl, cl
  0021f	30 54 05 e4	 xor	 BYTE PTR __k$[ebp+eax], dl
  00223	40		 inc	 eax
  00224	83 f8 12	 cmp	 eax, 18			; 00000012H
  00227	7c e3		 jl	 SHORT $LL101@LoadInt_e@4

; 120  : 		return LoadInt(_k, i);

  00229	ff 75 0c	 push	 DWORD PTR _i$[ebp]
  0022c	8d 45 e4	 lea	 eax, DWORD PTR __k$[ebp]
  0022f	50		 push	 eax
  00230	8b ce		 mov	 ecx, esi
  00232	ff 15 00 00 00
	00		 call	 DWORD PTR __imp_?LoadInt@ioINILoader@@QAEHPBDH@Z

; 121  : 	}

  00238	8b 4d fc	 mov	 ecx, DWORD PTR __$ArrayPad$[ebp]
  0023b	33 cd		 xor	 ecx, ebp
  0023d	5e		 pop	 esi
  0023e	e8 00 00 00 00	 call	 @__security_check_cookie@4
  00243	c9		 leave
  00244	c2 08 00	 ret	 8
??$LoadInt_e@$0BD@@ioINILoader@@QAEHAAY0BD@$$CBDH@Z ENDP ; ioINILoader::LoadInt_e<19>
_TEXT	ENDS
PUBLIC	__$ArrayPad$
PUBLIC	??$LoadInt_e@$0BG@@ioINILoader@@QAEHAAY0BG@$$CBDH@Z ; ioINILoader::LoadInt_e<22>
; Function compile flags: /Ogsp
;	COMDAT ??$LoadInt_e@$0BG@@ioINILoader@@QAEHAAY0BG@$$CBDH@Z
_TEXT	SEGMENT
__k$ = -32						; size = 22
__$ArrayPad$ = -4					; size = 4
_k$ = 8							; size = 4
_i$ = 12						; size = 4
??$LoadInt_e@$0BG@@ioINILoader@@QAEHAAY0BG@$$CBDH@Z PROC ; ioINILoader::LoadInt_e<22>, COMDAT
; _this$ = ecx

; 118  : 	{

  00000	55		 push	 ebp
  00001	8b ec		 mov	 ebp, esp
  00003	83 ec 20	 sub	 esp, 32			; 00000020H
  00006	a1 00 00 00 00	 mov	 eax, DWORD PTR ___security_cookie
  0000b	33 c5		 xor	 eax, ebp
  0000d	89 45 fc	 mov	 DWORD PTR __$ArrayPad$[ebp], eax
  00010	8b 45 08	 mov	 eax, DWORD PTR _k$[ebp]

; 119  : 		_ENCSTR(k, _k);

  00013	8a 10		 mov	 dl, BYTE PTR [eax]
  00015	53		 push	 ebx
  00016	56		 push	 esi
  00017	8b f1		 mov	 esi, ecx
  00019	84 d2		 test	 dl, dl
  0001b	0f 84 15 02 00
	00		 je	 $LN96@LoadInt_e@5
  00021	80 f2 ed	 xor	 dl, -19			; ffffffedH
  00024	88 55 e0	 mov	 BYTE PTR __k$[ebp], dl
  00027	8a 50 01	 mov	 dl, BYTE PTR [eax+1]
  0002a	84 d2		 test	 dl, dl
  0002c	0f 84 fe 01 00
	00		 je	 $LN95@LoadInt_e@5
  00032	80 f2 ec	 xor	 dl, -20			; ffffffecH
  00035	88 55 e1	 mov	 BYTE PTR __k$[ebp+1], dl
  00038	8a 50 02	 mov	 dl, BYTE PTR [eax+2]
  0003b	84 d2		 test	 dl, dl
  0003d	0f 84 e7 01 00
	00		 je	 $LN94@LoadInt_e@5
  00043	b1 eb		 mov	 cl, -21			; ffffffebH
  00045	32 d1		 xor	 dl, cl
  00047	88 55 e2	 mov	 BYTE PTR __k$[ebp+2], dl
  0004a	8a 50 03	 mov	 dl, BYTE PTR [eax+3]
  0004d	84 d2		 test	 dl, dl
  0004f	0f 84 cf 01 00
	00		 je	 $LN93@LoadInt_e@5
  00055	b3 ea		 mov	 bl, -22			; ffffffeaH
  00057	32 d3		 xor	 dl, bl
  00059	88 55 e3	 mov	 BYTE PTR __k$[ebp+3], dl
  0005c	8a 50 04	 mov	 dl, BYTE PTR [eax+4]
  0005f	84 d2		 test	 dl, dl
  00061	0f 84 b7 01 00
	00		 je	 $LN92@LoadInt_e@5
  00067	80 f2 ed	 xor	 dl, -19			; ffffffedH
  0006a	88 55 e4	 mov	 BYTE PTR __k$[ebp+4], dl
  0006d	8a 50 05	 mov	 dl, BYTE PTR [eax+5]
  00070	84 d2		 test	 dl, dl
  00072	0f 84 a0 01 00
	00		 je	 $LN91@LoadInt_e@5
  00078	80 f2 ec	 xor	 dl, -20			; ffffffecH
  0007b	88 55 e5	 mov	 BYTE PTR __k$[ebp+5], dl
  0007e	8a 50 06	 mov	 dl, BYTE PTR [eax+6]
  00081	84 d2		 test	 dl, dl
  00083	0f 84 8a 01 00
	00		 je	 $LN90@LoadInt_e@5
  00089	32 d1		 xor	 dl, cl
  0008b	88 55 e6	 mov	 BYTE PTR __k$[ebp+6], dl
  0008e	8a 50 07	 mov	 dl, BYTE PTR [eax+7]
  00091	84 d2		 test	 dl, dl
  00093	0f 84 75 01 00
	00		 je	 $LN89@LoadInt_e@5
  00099	32 d3		 xor	 dl, bl
  0009b	88 55 e7	 mov	 BYTE PTR __k$[ebp+7], dl
  0009e	8a 50 08	 mov	 dl, BYTE PTR [eax+8]
  000a1	84 d2		 test	 dl, dl
  000a3	0f 84 5f 01 00
	00		 je	 $LN88@LoadInt_e@5
  000a9	80 f2 ed	 xor	 dl, -19			; ffffffedH
  000ac	88 55 e8	 mov	 BYTE PTR __k$[ebp+8], dl
  000af	8a 50 09	 mov	 dl, BYTE PTR [eax+9]
  000b2	84 d2		 test	 dl, dl
  000b4	0f 84 48 01 00
	00		 je	 $LN87@LoadInt_e@5
  000ba	80 f2 ec	 xor	 dl, -20			; ffffffecH
  000bd	88 55 e9	 mov	 BYTE PTR __k$[ebp+9], dl
  000c0	8a 50 0a	 mov	 dl, BYTE PTR [eax+10]
  000c3	84 d2		 test	 dl, dl
  000c5	0f 84 32 01 00
	00		 je	 $LN86@LoadInt_e@5
  000cb	32 d1		 xor	 dl, cl
  000cd	88 55 ea	 mov	 BYTE PTR __k$[ebp+10], dl
  000d0	8a 50 0b	 mov	 dl, BYTE PTR [eax+11]
  000d3	84 d2		 test	 dl, dl
  000d5	0f 84 1d 01 00
	00		 je	 $LN85@LoadInt_e@5
  000db	32 d3		 xor	 dl, bl
  000dd	88 55 eb	 mov	 BYTE PTR __k$[ebp+11], dl
  000e0	8a 50 0c	 mov	 dl, BYTE PTR [eax+12]
  000e3	84 d2		 test	 dl, dl
  000e5	0f 84 07 01 00
	00		 je	 $LN84@LoadInt_e@5
  000eb	80 f2 ed	 xor	 dl, -19			; ffffffedH
  000ee	88 55 ec	 mov	 BYTE PTR __k$[ebp+12], dl
  000f1	8a 50 0d	 mov	 dl, BYTE PTR [eax+13]
  000f4	84 d2		 test	 dl, dl
  000f6	0f 84 f0 00 00
	00		 je	 $LN83@LoadInt_e@5
  000fc	80 f2 ec	 xor	 dl, -20			; ffffffecH
  000ff	88 55 ed	 mov	 BYTE PTR __k$[ebp+13], dl
  00102	8a 50 0e	 mov	 dl, BYTE PTR [eax+14]
  00105	84 d2		 test	 dl, dl
  00107	0f 84 da 00 00
	00		 je	 $LN82@LoadInt_e@5
  0010d	32 d1		 xor	 dl, cl
  0010f	88 55 ee	 mov	 BYTE PTR __k$[ebp+14], dl
  00112	8a 50 0f	 mov	 dl, BYTE PTR [eax+15]
  00115	84 d2		 test	 dl, dl
  00117	0f 84 c5 00 00
	00		 je	 $LN81@LoadInt_e@5
  0011d	32 d3		 xor	 dl, bl
  0011f	88 55 ef	 mov	 BYTE PTR __k$[ebp+15], dl
  00122	8a 50 10	 mov	 dl, BYTE PTR [eax+16]
  00125	84 d2		 test	 dl, dl
  00127	0f 84 af 00 00
	00		 je	 $LN80@LoadInt_e@5
  0012d	80 f2 ed	 xor	 dl, -19			; ffffffedH
  00130	88 55 f0	 mov	 BYTE PTR __k$[ebp+16], dl
  00133	8a 50 11	 mov	 dl, BYTE PTR [eax+17]
  00136	84 d2		 test	 dl, dl
  00138	0f 84 98 00 00
	00		 je	 $LN79@LoadInt_e@5
  0013e	80 f2 ec	 xor	 dl, -20			; ffffffecH
  00141	88 55 f1	 mov	 BYTE PTR __k$[ebp+17], dl
  00144	8a 50 12	 mov	 dl, BYTE PTR [eax+18]
  00147	84 d2		 test	 dl, dl
  00149	0f 84 82 00 00
	00		 je	 $LN78@LoadInt_e@5
  0014f	32 d1		 xor	 dl, cl
  00151	88 55 f2	 mov	 BYTE PTR __k$[ebp+18], dl
  00154	8a 50 13	 mov	 dl, BYTE PTR [eax+19]
  00157	84 d2		 test	 dl, dl
  00159	74 71		 je	 SHORT $LN77@LoadInt_e@5
  0015b	32 d3		 xor	 dl, bl
  0015d	88 55 f3	 mov	 BYTE PTR __k$[ebp+19], dl
  00160	8a 50 14	 mov	 dl, BYTE PTR [eax+20]
  00163	84 d2		 test	 dl, dl
  00165	74 5f		 je	 SHORT $LN76@LoadInt_e@5
  00167	80 f2 ed	 xor	 dl, -19			; ffffffedH
  0016a	80 78 15 00	 cmp	 BYTE PTR [eax+21], 0
  0016e	88 55 f4	 mov	 BYTE PTR __k$[ebp+20], dl
  00171	0f 84 c3 00 00
	00		 je	 $LN1@LoadInt_e@5
  00177	8a 50 16	 mov	 dl, BYTE PTR [eax+22]
  0017a	84 d2		 test	 dl, dl
  0017c	74 43		 je	 SHORT $LN74@LoadInt_e@5
  0017e	32 d1		 xor	 dl, cl
  00180	88 55 f6	 mov	 BYTE PTR __k$[ebp+22], dl
  00183	8a 50 17	 mov	 dl, BYTE PTR [eax+23]
  00186	84 d2		 test	 dl, dl
  00188	74 32		 je	 SHORT $LN73@LoadInt_e@5
  0018a	32 d3		 xor	 dl, bl
  0018c	88 55 f7	 mov	 BYTE PTR __k$[ebp+23], dl
  0018f	8a 50 18	 mov	 dl, BYTE PTR [eax+24]
  00192	84 d2		 test	 dl, dl
  00194	74 20		 je	 SHORT $LN72@LoadInt_e@5
  00196	8a 40 19	 mov	 al, BYTE PTR [eax+25]
  00199	80 f2 ed	 xor	 dl, -19			; ffffffedH
  0019c	88 55 f8	 mov	 BYTE PTR __k$[ebp+24], dl
  0019f	84 c0		 test	 al, al
  001a1	74 0a		 je	 SHORT $LN71@LoadInt_e@5
  001a3	34 ec		 xor	 al, -20			; ffffffecH
  001a5	88 45 f9	 mov	 BYTE PTR __k$[ebp+25], al
  001a8	e9 8d 00 00 00	 jmp	 $LN1@LoadInt_e@5
$LN71@LoadInt_e@5:
  001ad	c6 45 f9 ec	 mov	 BYTE PTR __k$[ebp+25], -20 ; ffffffecH
  001b1	e9 84 00 00 00	 jmp	 $LN1@LoadInt_e@5
$LN72@LoadInt_e@5:
  001b6	c6 45 f8 ed	 mov	 BYTE PTR __k$[ebp+24], -19 ; ffffffedH
  001ba	eb 7e		 jmp	 SHORT $LN1@LoadInt_e@5
$LN73@LoadInt_e@5:
  001bc	88 5d f7	 mov	 BYTE PTR __k$[ebp+23], bl
  001bf	eb 79		 jmp	 SHORT $LN1@LoadInt_e@5
$LN74@LoadInt_e@5:
  001c1	88 4d f6	 mov	 BYTE PTR __k$[ebp+22], cl
  001c4	eb 74		 jmp	 SHORT $LN1@LoadInt_e@5
$LN76@LoadInt_e@5:
  001c6	c6 45 f4 ed	 mov	 BYTE PTR __k$[ebp+20], -19 ; ffffffedH
  001ca	eb 6e		 jmp	 SHORT $LN1@LoadInt_e@5
$LN77@LoadInt_e@5:
  001cc	88 5d f3	 mov	 BYTE PTR __k$[ebp+19], bl
  001cf	eb 69		 jmp	 SHORT $LN1@LoadInt_e@5
$LN78@LoadInt_e@5:
  001d1	88 4d f2	 mov	 BYTE PTR __k$[ebp+18], cl
  001d4	eb 64		 jmp	 SHORT $LN1@LoadInt_e@5
$LN79@LoadInt_e@5:
  001d6	c6 45 f1 ec	 mov	 BYTE PTR __k$[ebp+17], -20 ; ffffffecH
  001da	eb 5e		 jmp	 SHORT $LN1@LoadInt_e@5
$LN80@LoadInt_e@5:
  001dc	c6 45 f0 ed	 mov	 BYTE PTR __k$[ebp+16], -19 ; ffffffedH
  001e0	eb 58		 jmp	 SHORT $LN1@LoadInt_e@5
$LN81@LoadInt_e@5:
  001e2	88 5d ef	 mov	 BYTE PTR __k$[ebp+15], bl
  001e5	eb 53		 jmp	 SHORT $LN1@LoadInt_e@5
$LN82@LoadInt_e@5:
  001e7	88 4d ee	 mov	 BYTE PTR __k$[ebp+14], cl
  001ea	eb 4e		 jmp	 SHORT $LN1@LoadInt_e@5
$LN83@LoadInt_e@5:
  001ec	c6 45 ed ec	 mov	 BYTE PTR __k$[ebp+13], -20 ; ffffffecH
  001f0	eb 48		 jmp	 SHORT $LN1@LoadInt_e@5
$LN84@LoadInt_e@5:
  001f2	c6 45 ec ed	 mov	 BYTE PTR __k$[ebp+12], -19 ; ffffffedH
  001f6	eb 42		 jmp	 SHORT $LN1@LoadInt_e@5
$LN85@LoadInt_e@5:
  001f8	88 5d eb	 mov	 BYTE PTR __k$[ebp+11], bl
  001fb	eb 3d		 jmp	 SHORT $LN1@LoadInt_e@5
$LN86@LoadInt_e@5:
  001fd	88 4d ea	 mov	 BYTE PTR __k$[ebp+10], cl
  00200	eb 38		 jmp	 SHORT $LN1@LoadInt_e@5
$LN87@LoadInt_e@5:
  00202	c6 45 e9 ec	 mov	 BYTE PTR __k$[ebp+9], -20 ; ffffffecH
  00206	eb 32		 jmp	 SHORT $LN1@LoadInt_e@5
$LN88@LoadInt_e@5:
  00208	c6 45 e8 ed	 mov	 BYTE PTR __k$[ebp+8], -19 ; ffffffedH
  0020c	eb 2c		 jmp	 SHORT $LN1@LoadInt_e@5
$LN89@LoadInt_e@5:
  0020e	88 5d e7	 mov	 BYTE PTR __k$[ebp+7], bl
  00211	eb 27		 jmp	 SHORT $LN1@LoadInt_e@5
$LN90@LoadInt_e@5:
  00213	88 4d e6	 mov	 BYTE PTR __k$[ebp+6], cl
  00216	eb 22		 jmp	 SHORT $LN1@LoadInt_e@5
$LN91@LoadInt_e@5:
  00218	c6 45 e5 ec	 mov	 BYTE PTR __k$[ebp+5], -20 ; ffffffecH
  0021c	eb 1c		 jmp	 SHORT $LN1@LoadInt_e@5
$LN92@LoadInt_e@5:
  0021e	c6 45 e4 ed	 mov	 BYTE PTR __k$[ebp+4], -19 ; ffffffedH
  00222	eb 16		 jmp	 SHORT $LN1@LoadInt_e@5
$LN93@LoadInt_e@5:
  00224	c6 45 e3 ea	 mov	 BYTE PTR __k$[ebp+3], -22 ; ffffffeaH
  00228	eb 10		 jmp	 SHORT $LN1@LoadInt_e@5
$LN94@LoadInt_e@5:
  0022a	c6 45 e2 eb	 mov	 BYTE PTR __k$[ebp+2], -21 ; ffffffebH
  0022e	eb 0a		 jmp	 SHORT $LN1@LoadInt_e@5
$LN95@LoadInt_e@5:
  00230	c6 45 e1 ec	 mov	 BYTE PTR __k$[ebp+1], -20 ; ffffffecH
  00234	eb 04		 jmp	 SHORT $LN1@LoadInt_e@5
$LN96@LoadInt_e@5:
  00236	c6 45 e0 ed	 mov	 BYTE PTR __k$[ebp], -19	; ffffffedH
$LN1@LoadInt_e@5:
  0023a	6a 05		 push	 5
  0023c	8d 45 e0	 lea	 eax, DWORD PTR __k$[ebp]
  0023f	c6 45 f5 00	 mov	 BYTE PTR __k$[ebp+21], 0
  00243	5a		 pop	 edx
$LL104@LoadInt_e@5:
  00244	81 30 ed ec eb
	ea		 xor	 DWORD PTR [eax], -353637139 ; eaebecedH
  0024a	83 c0 04	 add	 eax, 4
  0024d	4a		 dec	 edx
  0024e	75 f4		 jne	 SHORT $LL104@LoadInt_e@5

; 120  : 		return LoadInt(_k, i);

  00250	ff 75 0c	 push	 DWORD PTR _i$[ebp]
  00253	80 75 f4 ed	 xor	 BYTE PTR __k$[ebp+20], -19 ; ffffffedH
  00257	8d 45 e0	 lea	 eax, DWORD PTR __k$[ebp]
  0025a	50		 push	 eax
  0025b	8b ce		 mov	 ecx, esi
  0025d	ff 15 00 00 00
	00		 call	 DWORD PTR __imp_?LoadInt@ioINILoader@@QAEHPBDH@Z

; 121  : 	}

  00263	8b 4d fc	 mov	 ecx, DWORD PTR __$ArrayPad$[ebp]
  00266	5e		 pop	 esi
  00267	33 cd		 xor	 ecx, ebp
  00269	5b		 pop	 ebx
  0026a	e8 00 00 00 00	 call	 @__security_check_cookie@4
  0026f	c9		 leave
  00270	c2 08 00	 ret	 8
??$LoadInt_e@$0BG@@ioINILoader@@QAEHAAY0BG@$$CBDH@Z ENDP ; ioINILoader::LoadInt_e<22>
_TEXT	ENDS
PUBLIC	__$ArrayPad$
PUBLIC	??$LoadInt_e@$0O@@ioINILoader@@QAEHAAY0O@$$CBDH@Z ; ioINILoader::LoadInt_e<14>
; Function compile flags: /Ogsp
;	COMDAT ??$LoadInt_e@$0O@@ioINILoader@@QAEHAAY0O@$$CBDH@Z
_TEXT	SEGMENT
__k$ = -24						; size = 14
__$ArrayPad$ = -4					; size = 4
_k$ = 8							; size = 4
_i$ = 12						; size = 4
??$LoadInt_e@$0O@@ioINILoader@@QAEHAAY0O@$$CBDH@Z PROC	; ioINILoader::LoadInt_e<14>, COMDAT
; _this$ = ecx

; 118  : 	{

  00000	55		 push	 ebp
  00001	8b ec		 mov	 ebp, esp
  00003	83 ec 18	 sub	 esp, 24			; 00000018H
  00006	a1 00 00 00 00	 mov	 eax, DWORD PTR ___security_cookie
  0000b	33 c5		 xor	 eax, ebp
  0000d	89 45 fc	 mov	 DWORD PTR __$ArrayPad$[ebp], eax
  00010	8b 45 08	 mov	 eax, DWORD PTR _k$[ebp]

; 119  : 		_ENCSTR(k, _k);

  00013	8a 10		 mov	 dl, BYTE PTR [eax]
  00015	56		 push	 esi
  00016	8b f1		 mov	 esi, ecx
  00018	84 d2		 test	 dl, dl
  0001a	0f 84 64 01 00
	00		 je	 $LN96@LoadInt_e@6
  00020	80 f2 ed	 xor	 dl, -19			; ffffffedH
  00023	88 55 e8	 mov	 BYTE PTR __k$[ebp], dl
  00026	8a 50 01	 mov	 dl, BYTE PTR [eax+1]
  00029	84 d2		 test	 dl, dl
  0002b	0f 84 4d 01 00
	00		 je	 $LN95@LoadInt_e@6
  00031	80 f2 ec	 xor	 dl, -20			; ffffffecH
  00034	88 55 e9	 mov	 BYTE PTR __k$[ebp+1], dl
  00037	8a 50 02	 mov	 dl, BYTE PTR [eax+2]
  0003a	84 d2		 test	 dl, dl
  0003c	0f 84 36 01 00
	00		 je	 $LN94@LoadInt_e@6
  00042	b1 eb		 mov	 cl, -21			; ffffffebH
  00044	32 d1		 xor	 dl, cl
  00046	88 55 ea	 mov	 BYTE PTR __k$[ebp+2], dl
  00049	8a 50 03	 mov	 dl, BYTE PTR [eax+3]
  0004c	84 d2		 test	 dl, dl
  0004e	0f 84 1e 01 00
	00		 je	 $LN93@LoadInt_e@6
  00054	80 f2 ea	 xor	 dl, -22			; ffffffeaH
  00057	88 55 eb	 mov	 BYTE PTR __k$[ebp+3], dl
  0005a	8a 50 04	 mov	 dl, BYTE PTR [eax+4]
  0005d	84 d2		 test	 dl, dl
  0005f	0f 84 07 01 00
	00		 je	 $LN92@LoadInt_e@6
  00065	80 f2 ed	 xor	 dl, -19			; ffffffedH
  00068	88 55 ec	 mov	 BYTE PTR __k$[ebp+4], dl
  0006b	8a 50 05	 mov	 dl, BYTE PTR [eax+5]
  0006e	84 d2		 test	 dl, dl
  00070	0f 84 f0 00 00
	00		 je	 $LN91@LoadInt_e@6
  00076	80 f2 ec	 xor	 dl, -20			; ffffffecH
  00079	88 55 ed	 mov	 BYTE PTR __k$[ebp+5], dl
  0007c	8a 50 06	 mov	 dl, BYTE PTR [eax+6]
  0007f	84 d2		 test	 dl, dl
  00081	0f 84 da 00 00
	00		 je	 $LN90@LoadInt_e@6
  00087	32 d1		 xor	 dl, cl
  00089	88 55 ee	 mov	 BYTE PTR __k$[ebp+6], dl
  0008c	8a 50 07	 mov	 dl, BYTE PTR [eax+7]
  0008f	84 d2		 test	 dl, dl
  00091	0f 84 c4 00 00
	00		 je	 $LN89@LoadInt_e@6
  00097	80 f2 ea	 xor	 dl, -22			; ffffffeaH
  0009a	88 55 ef	 mov	 BYTE PTR __k$[ebp+7], dl
  0009d	8a 50 08	 mov	 dl, BYTE PTR [eax+8]
  000a0	84 d2		 test	 dl, dl
  000a2	0f 84 ad 00 00
	00		 je	 $LN88@LoadInt_e@6
  000a8	80 f2 ed	 xor	 dl, -19			; ffffffedH
  000ab	88 55 f0	 mov	 BYTE PTR __k$[ebp+8], dl
  000ae	8a 50 09	 mov	 dl, BYTE PTR [eax+9]
  000b1	84 d2		 test	 dl, dl
  000b3	0f 84 96 00 00
	00		 je	 $LN87@LoadInt_e@6
  000b9	80 f2 ec	 xor	 dl, -20			; ffffffecH
  000bc	88 55 f1	 mov	 BYTE PTR __k$[ebp+9], dl
  000bf	8a 50 0a	 mov	 dl, BYTE PTR [eax+10]
  000c2	84 d2		 test	 dl, dl
  000c4	0f 84 80 00 00
	00		 je	 $LN86@LoadInt_e@6
  000ca	32 d1		 xor	 dl, cl
  000cc	88 55 f2	 mov	 BYTE PTR __k$[ebp+10], dl
  000cf	8a 50 0b	 mov	 dl, BYTE PTR [eax+11]
  000d2	84 d2		 test	 dl, dl
  000d4	74 6e		 je	 SHORT $LN85@LoadInt_e@6
  000d6	80 f2 ea	 xor	 dl, -22			; ffffffeaH
  000d9	88 55 f3	 mov	 BYTE PTR __k$[ebp+11], dl
  000dc	8a 50 0c	 mov	 dl, BYTE PTR [eax+12]
  000df	84 d2		 test	 dl, dl
  000e1	74 5b		 je	 SHORT $LN84@LoadInt_e@6
  000e3	80 f2 ed	 xor	 dl, -19			; ffffffedH
  000e6	80 78 0d 00	 cmp	 BYTE PTR [eax+13], 0
  000ea	88 55 f4	 mov	 BYTE PTR __k$[ebp+12], dl
  000ed	0f 84 95 00 00
	00		 je	 $LN1@LoadInt_e@6
  000f3	8a 50 0e	 mov	 dl, BYTE PTR [eax+14]
  000f6	84 d2		 test	 dl, dl
  000f8	74 3f		 je	 SHORT $LN82@LoadInt_e@6
  000fa	32 d1		 xor	 dl, cl
  000fc	88 55 f6	 mov	 BYTE PTR __k$[ebp+14], dl
  000ff	8a 50 0f	 mov	 dl, BYTE PTR [eax+15]
  00102	84 d2		 test	 dl, dl
  00104	74 2d		 je	 SHORT $LN81@LoadInt_e@6
  00106	80 f2 ea	 xor	 dl, -22			; ffffffeaH
  00109	88 55 f7	 mov	 BYTE PTR __k$[ebp+15], dl
  0010c	8a 50 10	 mov	 dl, BYTE PTR [eax+16]
  0010f	84 d2		 test	 dl, dl
  00111	74 1a		 je	 SHORT $LN80@LoadInt_e@6
  00113	8a 40 11	 mov	 al, BYTE PTR [eax+17]
  00116	80 f2 ed	 xor	 dl, -19			; ffffffedH
  00119	88 55 f8	 mov	 BYTE PTR __k$[ebp+16], dl
  0011c	84 c0		 test	 al, al
  0011e	74 07		 je	 SHORT $LN79@LoadInt_e@6
  00120	34 ec		 xor	 al, -20			; ffffffecH
  00122	88 45 f9	 mov	 BYTE PTR __k$[ebp+17], al
  00125	eb 61		 jmp	 SHORT $LN1@LoadInt_e@6
$LN79@LoadInt_e@6:
  00127	c6 45 f9 ec	 mov	 BYTE PTR __k$[ebp+17], -20 ; ffffffecH
  0012b	eb 5b		 jmp	 SHORT $LN1@LoadInt_e@6
$LN80@LoadInt_e@6:
  0012d	c6 45 f8 ed	 mov	 BYTE PTR __k$[ebp+16], -19 ; ffffffedH
  00131	eb 55		 jmp	 SHORT $LN1@LoadInt_e@6
$LN81@LoadInt_e@6:
  00133	c6 45 f7 ea	 mov	 BYTE PTR __k$[ebp+15], -22 ; ffffffeaH
  00137	eb 4f		 jmp	 SHORT $LN1@LoadInt_e@6
$LN82@LoadInt_e@6:
  00139	88 4d f6	 mov	 BYTE PTR __k$[ebp+14], cl
  0013c	eb 4a		 jmp	 SHORT $LN1@LoadInt_e@6
$LN84@LoadInt_e@6:
  0013e	c6 45 f4 ed	 mov	 BYTE PTR __k$[ebp+12], -19 ; ffffffedH
  00142	eb 44		 jmp	 SHORT $LN1@LoadInt_e@6
$LN85@LoadInt_e@6:
  00144	c6 45 f3 ea	 mov	 BYTE PTR __k$[ebp+11], -22 ; ffffffeaH
  00148	eb 3e		 jmp	 SHORT $LN1@LoadInt_e@6
$LN86@LoadInt_e@6:
  0014a	88 4d f2	 mov	 BYTE PTR __k$[ebp+10], cl
  0014d	eb 39		 jmp	 SHORT $LN1@LoadInt_e@6
$LN87@LoadInt_e@6:
  0014f	c6 45 f1 ec	 mov	 BYTE PTR __k$[ebp+9], -20 ; ffffffecH
  00153	eb 33		 jmp	 SHORT $LN1@LoadInt_e@6
$LN88@LoadInt_e@6:
  00155	c6 45 f0 ed	 mov	 BYTE PTR __k$[ebp+8], -19 ; ffffffedH
  00159	eb 2d		 jmp	 SHORT $LN1@LoadInt_e@6
$LN89@LoadInt_e@6:
  0015b	c6 45 ef ea	 mov	 BYTE PTR __k$[ebp+7], -22 ; ffffffeaH
  0015f	eb 27		 jmp	 SHORT $LN1@LoadInt_e@6
$LN90@LoadInt_e@6:
  00161	88 4d ee	 mov	 BYTE PTR __k$[ebp+6], cl
  00164	eb 22		 jmp	 SHORT $LN1@LoadInt_e@6
$LN91@LoadInt_e@6:
  00166	c6 45 ed ec	 mov	 BYTE PTR __k$[ebp+5], -20 ; ffffffecH
  0016a	eb 1c		 jmp	 SHORT $LN1@LoadInt_e@6
$LN92@LoadInt_e@6:
  0016c	c6 45 ec ed	 mov	 BYTE PTR __k$[ebp+4], -19 ; ffffffedH
  00170	eb 16		 jmp	 SHORT $LN1@LoadInt_e@6
$LN93@LoadInt_e@6:
  00172	c6 45 eb ea	 mov	 BYTE PTR __k$[ebp+3], -22 ; ffffffeaH
  00176	eb 10		 jmp	 SHORT $LN1@LoadInt_e@6
$LN94@LoadInt_e@6:
  00178	c6 45 ea eb	 mov	 BYTE PTR __k$[ebp+2], -21 ; ffffffebH
  0017c	eb 0a		 jmp	 SHORT $LN1@LoadInt_e@6
$LN95@LoadInt_e@6:
  0017e	c6 45 e9 ec	 mov	 BYTE PTR __k$[ebp+1], -20 ; ffffffecH
  00182	eb 04		 jmp	 SHORT $LN1@LoadInt_e@6
$LN96@LoadInt_e@6:
  00184	c6 45 e8 ed	 mov	 BYTE PTR __k$[ebp], -19	; ffffffedH
$LN1@LoadInt_e@6:
  00188	6a 03		 push	 3
  0018a	8d 45 e8	 lea	 eax, DWORD PTR __k$[ebp]
  0018d	c6 45 f5 00	 mov	 BYTE PTR __k$[ebp+13], 0
  00191	5a		 pop	 edx
$LL104@LoadInt_e@6:
  00192	81 30 ed ec eb
	ea		 xor	 DWORD PTR [eax], -353637139 ; eaebecedH
  00198	83 c0 04	 add	 eax, 4
  0019b	4a		 dec	 edx
  0019c	75 f4		 jne	 SHORT $LL104@LoadInt_e@6

; 120  : 		return LoadInt(_k, i);

  0019e	ff 75 0c	 push	 DWORD PTR _i$[ebp]
  001a1	80 75 f4 ed	 xor	 BYTE PTR __k$[ebp+12], -19 ; ffffffedH
  001a5	8d 45 e8	 lea	 eax, DWORD PTR __k$[ebp]
  001a8	50		 push	 eax
  001a9	8b ce		 mov	 ecx, esi
  001ab	ff 15 00 00 00
	00		 call	 DWORD PTR __imp_?LoadInt@ioINILoader@@QAEHPBDH@Z

; 121  : 	}

  001b1	8b 4d fc	 mov	 ecx, DWORD PTR __$ArrayPad$[ebp]
  001b4	33 cd		 xor	 ecx, ebp
  001b6	5e		 pop	 esi
  001b7	e8 00 00 00 00	 call	 @__security_check_cookie@4
  001bc	c9		 leave
  001bd	c2 08 00	 ret	 8
??$LoadInt_e@$0O@@ioINILoader@@QAEHAAY0O@$$CBDH@Z ENDP	; ioINILoader::LoadInt_e<14>
_TEXT	ENDS
PUBLIC	__$ArrayPad$
PUBLIC	??$LoadFloat_e@$0BD@@ioINILoader@@QAEMAAY0BD@$$CBDM@Z ; ioINILoader::LoadFloat_e<19>
EXTRN	__imp_?LoadFloat@ioINILoader@@QAEMPBDM@Z:PROC
; Function compile flags: /Ogsp
;	COMDAT ??$LoadFloat_e@$0BD@@ioINILoader@@QAEMAAY0BD@$$CBDM@Z
_TEXT	SEGMENT
__k$ = -28						; size = 19
__$ArrayPad$ = -4					; size = 4
_k$ = 8							; size = 4
_f$ = 12						; size = 4
??$LoadFloat_e@$0BD@@ioINILoader@@QAEMAAY0BD@$$CBDM@Z PROC ; ioINILoader::LoadFloat_e<19>, COMDAT
; _this$ = ecx

; 135  : 	{

  00000	55		 push	 ebp
  00001	8b ec		 mov	 ebp, esp
  00003	83 ec 1c	 sub	 esp, 28			; 0000001cH
  00006	a1 00 00 00 00	 mov	 eax, DWORD PTR ___security_cookie
  0000b	33 c5		 xor	 eax, ebp
  0000d	89 45 fc	 mov	 DWORD PTR __$ArrayPad$[ebp], eax
  00010	8b 45 08	 mov	 eax, DWORD PTR _k$[ebp]

; 136  : 		_ENCSTR(k, _k);

  00013	8a 10		 mov	 dl, BYTE PTR [eax]
  00015	56		 push	 esi
  00016	8b f1		 mov	 esi, ecx
  00018	84 d2		 test	 dl, dl
  0001a	0f 84 cf 01 00
	00		 je	 $LN96@LoadFloat_
  00020	80 f2 ed	 xor	 dl, -19			; ffffffedH
  00023	88 55 e4	 mov	 BYTE PTR __k$[ebp], dl
  00026	8a 50 01	 mov	 dl, BYTE PTR [eax+1]
  00029	84 d2		 test	 dl, dl
  0002b	0f 84 b8 01 00
	00		 je	 $LN95@LoadFloat_
  00031	b1 ec		 mov	 cl, -20			; ffffffecH
  00033	32 d1		 xor	 dl, cl
  00035	88 55 e5	 mov	 BYTE PTR __k$[ebp+1], dl
  00038	8a 50 02	 mov	 dl, BYTE PTR [eax+2]
  0003b	84 d2		 test	 dl, dl
  0003d	0f 84 a0 01 00
	00		 je	 $LN94@LoadFloat_
  00043	80 f2 eb	 xor	 dl, -21			; ffffffebH
  00046	88 55 e6	 mov	 BYTE PTR __k$[ebp+2], dl
  00049	8a 50 03	 mov	 dl, BYTE PTR [eax+3]
  0004c	84 d2		 test	 dl, dl
  0004e	0f 84 89 01 00
	00		 je	 $LN93@LoadFloat_
  00054	80 f2 ea	 xor	 dl, -22			; ffffffeaH
  00057	88 55 e7	 mov	 BYTE PTR __k$[ebp+3], dl
  0005a	8a 50 04	 mov	 dl, BYTE PTR [eax+4]
  0005d	84 d2		 test	 dl, dl
  0005f	0f 84 72 01 00
	00		 je	 $LN92@LoadFloat_
  00065	80 f2 ed	 xor	 dl, -19			; ffffffedH
  00068	88 55 e8	 mov	 BYTE PTR __k$[ebp+4], dl
  0006b	8a 50 05	 mov	 dl, BYTE PTR [eax+5]
  0006e	84 d2		 test	 dl, dl
  00070	0f 84 5c 01 00
	00		 je	 $LN91@LoadFloat_
  00076	32 d1		 xor	 dl, cl
  00078	88 55 e9	 mov	 BYTE PTR __k$[ebp+5], dl
  0007b	8a 50 06	 mov	 dl, BYTE PTR [eax+6]
  0007e	84 d2		 test	 dl, dl
  00080	0f 84 46 01 00
	00		 je	 $LN90@LoadFloat_
  00086	80 f2 eb	 xor	 dl, -21			; ffffffebH
  00089	88 55 ea	 mov	 BYTE PTR __k$[ebp+6], dl
  0008c	8a 50 07	 mov	 dl, BYTE PTR [eax+7]
  0008f	84 d2		 test	 dl, dl
  00091	0f 84 2f 01 00
	00		 je	 $LN89@LoadFloat_
  00097	80 f2 ea	 xor	 dl, -22			; ffffffeaH
  0009a	88 55 eb	 mov	 BYTE PTR __k$[ebp+7], dl
  0009d	8a 50 08	 mov	 dl, BYTE PTR [eax+8]
  000a0	84 d2		 test	 dl, dl
  000a2	0f 84 18 01 00
	00		 je	 $LN88@LoadFloat_
  000a8	80 f2 ed	 xor	 dl, -19			; ffffffedH
  000ab	88 55 ec	 mov	 BYTE PTR __k$[ebp+8], dl
  000ae	8a 50 09	 mov	 dl, BYTE PTR [eax+9]
  000b1	84 d2		 test	 dl, dl
  000b3	0f 84 02 01 00
	00		 je	 $LN87@LoadFloat_
  000b9	32 d1		 xor	 dl, cl
  000bb	88 55 ed	 mov	 BYTE PTR __k$[ebp+9], dl
  000be	8a 50 0a	 mov	 dl, BYTE PTR [eax+10]
  000c1	84 d2		 test	 dl, dl
  000c3	0f 84 ec 00 00
	00		 je	 $LN86@LoadFloat_
  000c9	80 f2 eb	 xor	 dl, -21			; ffffffebH
  000cc	88 55 ee	 mov	 BYTE PTR __k$[ebp+10], dl
  000cf	8a 50 0b	 mov	 dl, BYTE PTR [eax+11]
  000d2	84 d2		 test	 dl, dl
  000d4	0f 84 d5 00 00
	00		 je	 $LN85@LoadFloat_
  000da	80 f2 ea	 xor	 dl, -22			; ffffffeaH
  000dd	88 55 ef	 mov	 BYTE PTR __k$[ebp+11], dl
  000e0	8a 50 0c	 mov	 dl, BYTE PTR [eax+12]
  000e3	84 d2		 test	 dl, dl
  000e5	0f 84 be 00 00
	00		 je	 $LN84@LoadFloat_
  000eb	80 f2 ed	 xor	 dl, -19			; ffffffedH
  000ee	88 55 f0	 mov	 BYTE PTR __k$[ebp+12], dl
  000f1	8a 50 0d	 mov	 dl, BYTE PTR [eax+13]
  000f4	84 d2		 test	 dl, dl
  000f6	0f 84 a8 00 00
	00		 je	 $LN83@LoadFloat_
  000fc	32 d1		 xor	 dl, cl
  000fe	88 55 f1	 mov	 BYTE PTR __k$[ebp+13], dl
  00101	8a 50 0e	 mov	 dl, BYTE PTR [eax+14]
  00104	84 d2		 test	 dl, dl
  00106	0f 84 92 00 00
	00		 je	 $LN82@LoadFloat_
  0010c	80 f2 eb	 xor	 dl, -21			; ffffffebH
  0010f	88 55 f2	 mov	 BYTE PTR __k$[ebp+14], dl
  00112	8a 50 0f	 mov	 dl, BYTE PTR [eax+15]
  00115	84 d2		 test	 dl, dl
  00117	74 7f		 je	 SHORT $LN81@LoadFloat_
  00119	80 f2 ea	 xor	 dl, -22			; ffffffeaH
  0011c	88 55 f3	 mov	 BYTE PTR __k$[ebp+15], dl
  0011f	8a 50 10	 mov	 dl, BYTE PTR [eax+16]
  00122	84 d2		 test	 dl, dl
  00124	74 6c		 je	 SHORT $LN80@LoadFloat_
  00126	80 f2 ed	 xor	 dl, -19			; ffffffedH
  00129	88 55 f4	 mov	 BYTE PTR __k$[ebp+16], dl
  0012c	8a 50 11	 mov	 dl, BYTE PTR [eax+17]
  0012f	84 d2		 test	 dl, dl
  00131	74 5a		 je	 SHORT $LN79@LoadFloat_
  00133	32 d1		 xor	 dl, cl
  00135	80 78 12 00	 cmp	 BYTE PTR [eax+18], 0
  00139	88 55 f5	 mov	 BYTE PTR __k$[ebp+17], dl
  0013c	0f 84 b1 00 00
	00		 je	 $LN1@LoadFloat_
  00142	8a 50 13	 mov	 dl, BYTE PTR [eax+19]
  00145	84 d2		 test	 dl, dl
  00147	74 3e		 je	 SHORT $LN77@LoadFloat_
  00149	80 f2 ea	 xor	 dl, -22			; ffffffeaH
  0014c	88 55 f7	 mov	 BYTE PTR __k$[ebp+19], dl
  0014f	8a 50 14	 mov	 dl, BYTE PTR [eax+20]
  00152	84 d2		 test	 dl, dl
  00154	74 2b		 je	 SHORT $LN76@LoadFloat_
  00156	80 f2 ed	 xor	 dl, -19			; ffffffedH
  00159	88 55 f8	 mov	 BYTE PTR __k$[ebp+20], dl
  0015c	8a 50 15	 mov	 dl, BYTE PTR [eax+21]
  0015f	84 d2		 test	 dl, dl
  00161	74 19		 je	 SHORT $LN75@LoadFloat_
  00163	8a 40 16	 mov	 al, BYTE PTR [eax+22]
  00166	32 d1		 xor	 dl, cl
  00168	88 55 f9	 mov	 BYTE PTR __k$[ebp+21], dl
  0016b	84 c0		 test	 al, al
  0016d	74 07		 je	 SHORT $LN74@LoadFloat_
  0016f	34 eb		 xor	 al, -21			; ffffffebH
  00171	88 45 fa	 mov	 BYTE PTR __k$[ebp+22], al
  00174	eb 7d		 jmp	 SHORT $LN1@LoadFloat_
$LN74@LoadFloat_:
  00176	c6 45 fa eb	 mov	 BYTE PTR __k$[ebp+22], -21 ; ffffffebH
  0017a	eb 77		 jmp	 SHORT $LN1@LoadFloat_
$LN75@LoadFloat_:
  0017c	88 4d f9	 mov	 BYTE PTR __k$[ebp+21], cl
  0017f	eb 72		 jmp	 SHORT $LN1@LoadFloat_
$LN76@LoadFloat_:
  00181	c6 45 f8 ed	 mov	 BYTE PTR __k$[ebp+20], -19 ; ffffffedH
  00185	eb 6c		 jmp	 SHORT $LN1@LoadFloat_
$LN77@LoadFloat_:
  00187	c6 45 f7 ea	 mov	 BYTE PTR __k$[ebp+19], -22 ; ffffffeaH
  0018b	eb 66		 jmp	 SHORT $LN1@LoadFloat_
$LN79@LoadFloat_:
  0018d	88 4d f5	 mov	 BYTE PTR __k$[ebp+17], cl
  00190	eb 61		 jmp	 SHORT $LN1@LoadFloat_
$LN80@LoadFloat_:
  00192	c6 45 f4 ed	 mov	 BYTE PTR __k$[ebp+16], -19 ; ffffffedH
  00196	eb 5b		 jmp	 SHORT $LN1@LoadFloat_
$LN81@LoadFloat_:
  00198	c6 45 f3 ea	 mov	 BYTE PTR __k$[ebp+15], -22 ; ffffffeaH
  0019c	eb 55		 jmp	 SHORT $LN1@LoadFloat_
$LN82@LoadFloat_:
  0019e	c6 45 f2 eb	 mov	 BYTE PTR __k$[ebp+14], -21 ; ffffffebH
  001a2	eb 4f		 jmp	 SHORT $LN1@LoadFloat_
$LN83@LoadFloat_:
  001a4	88 4d f1	 mov	 BYTE PTR __k$[ebp+13], cl
  001a7	eb 4a		 jmp	 SHORT $LN1@LoadFloat_
$LN84@LoadFloat_:
  001a9	c6 45 f0 ed	 mov	 BYTE PTR __k$[ebp+12], -19 ; ffffffedH
  001ad	eb 44		 jmp	 SHORT $LN1@LoadFloat_
$LN85@LoadFloat_:
  001af	c6 45 ef ea	 mov	 BYTE PTR __k$[ebp+11], -22 ; ffffffeaH
  001b3	eb 3e		 jmp	 SHORT $LN1@LoadFloat_
$LN86@LoadFloat_:
  001b5	c6 45 ee eb	 mov	 BYTE PTR __k$[ebp+10], -21 ; ffffffebH
  001b9	eb 38		 jmp	 SHORT $LN1@LoadFloat_
$LN87@LoadFloat_:
  001bb	88 4d ed	 mov	 BYTE PTR __k$[ebp+9], cl
  001be	eb 33		 jmp	 SHORT $LN1@LoadFloat_
$LN88@LoadFloat_:
  001c0	c6 45 ec ed	 mov	 BYTE PTR __k$[ebp+8], -19 ; ffffffedH
  001c4	eb 2d		 jmp	 SHORT $LN1@LoadFloat_
$LN89@LoadFloat_:
  001c6	c6 45 eb ea	 mov	 BYTE PTR __k$[ebp+7], -22 ; ffffffeaH
  001ca	eb 27		 jmp	 SHORT $LN1@LoadFloat_
$LN90@LoadFloat_:
  001cc	c6 45 ea eb	 mov	 BYTE PTR __k$[ebp+6], -21 ; ffffffebH
  001d0	eb 21		 jmp	 SHORT $LN1@LoadFloat_
$LN91@LoadFloat_:
  001d2	88 4d e9	 mov	 BYTE PTR __k$[ebp+5], cl
  001d5	eb 1c		 jmp	 SHORT $LN1@LoadFloat_
$LN92@LoadFloat_:
  001d7	c6 45 e8 ed	 mov	 BYTE PTR __k$[ebp+4], -19 ; ffffffedH
  001db	eb 16		 jmp	 SHORT $LN1@LoadFloat_
$LN93@LoadFloat_:
  001dd	c6 45 e7 ea	 mov	 BYTE PTR __k$[ebp+3], -22 ; ffffffeaH
  001e1	eb 10		 jmp	 SHORT $LN1@LoadFloat_
$LN94@LoadFloat_:
  001e3	c6 45 e6 eb	 mov	 BYTE PTR __k$[ebp+2], -21 ; ffffffebH
  001e7	eb 0a		 jmp	 SHORT $LN1@LoadFloat_
$LN95@LoadFloat_:
  001e9	c6 45 e5 ec	 mov	 BYTE PTR __k$[ebp+1], -20 ; ffffffecH
  001ed	eb 04		 jmp	 SHORT $LN1@LoadFloat_
$LN96@LoadFloat_:
  001ef	c6 45 e4 ed	 mov	 BYTE PTR __k$[ebp], -19	; ffffffedH
$LN1@LoadFloat_:
  001f3	6a 04		 push	 4
  001f5	8d 45 e4	 lea	 eax, DWORD PTR __k$[ebp]
  001f8	c6 45 f6 00	 mov	 BYTE PTR __k$[ebp+18], 0
  001fc	5a		 pop	 edx
$LL104@LoadFloat_:
  001fd	81 30 ed ec eb
	ea		 xor	 DWORD PTR [eax], -353637139 ; eaebecedH
  00203	83 c0 04	 add	 eax, 4
  00206	4a		 dec	 edx
  00207	75 f4		 jne	 SHORT $LL104@LoadFloat_
  00209	6a 10		 push	 16			; 00000010H
  0020b	58		 pop	 eax
$LL101@LoadFloat_:
  0020c	8b c8		 mov	 ecx, eax
  0020e	81 e1 03 00 00
	80		 and	 ecx, -2147483645	; 80000003H
  00214	79 05		 jns	 SHORT $LN111@LoadFloat_
  00216	49		 dec	 ecx
  00217	83 c9 fc	 or	 ecx, -4			; fffffffcH
  0021a	41		 inc	 ecx
$LN111@LoadFloat_:
  0021b	b2 ed		 mov	 dl, -19			; ffffffedH
  0021d	2a d1		 sub	 dl, cl
  0021f	30 54 05 e4	 xor	 BYTE PTR __k$[ebp+eax], dl
  00223	40		 inc	 eax
  00224	83 f8 12	 cmp	 eax, 18			; 00000012H
  00227	7c e3		 jl	 SHORT $LL101@LoadFloat_

; 137  : 		return LoadFloat(_k, f);

  00229	f3 0f 10 45 0c	 movss	 xmm0, DWORD PTR _f$[ebp]
  0022e	51		 push	 ecx
  0022f	8d 45 e4	 lea	 eax, DWORD PTR __k$[ebp]
  00232	f3 0f 11 04 24	 movss	 DWORD PTR [esp], xmm0
  00237	50		 push	 eax
  00238	8b ce		 mov	 ecx, esi
  0023a	ff 15 00 00 00
	00		 call	 DWORD PTR __imp_?LoadFloat@ioINILoader@@QAEMPBDM@Z

; 138  : 	}

  00240	8b 4d fc	 mov	 ecx, DWORD PTR __$ArrayPad$[ebp]
  00243	33 cd		 xor	 ecx, ebp
  00245	5e		 pop	 esi
  00246	e8 00 00 00 00	 call	 @__security_check_cookie@4
  0024b	c9		 leave
  0024c	c2 08 00	 ret	 8
??$LoadFloat_e@$0BD@@ioINILoader@@QAEMAAY0BD@$$CBDM@Z ENDP ; ioINILoader::LoadFloat_e<19>
_TEXT	ENDS
PUBLIC	__$ArrayPad$
PUBLIC	??$LoadFloat_e@$0BI@@ioINILoader@@QAEMAAY0BI@$$CBDM@Z ; ioINILoader::LoadFloat_e<24>
; Function compile flags: /Ogsp
;	COMDAT ??$LoadFloat_e@$0BI@@ioINILoader@@QAEMAAY0BI@$$CBDM@Z
_TEXT	SEGMENT
__k$ = -32						; size = 24
__$ArrayPad$ = -4					; size = 4
_k$ = 8							; size = 4
_f$ = 12						; size = 4
??$LoadFloat_e@$0BI@@ioINILoader@@QAEMAAY0BI@$$CBDM@Z PROC ; ioINILoader::LoadFloat_e<24>, COMDAT
; _this$ = ecx

; 135  : 	{

  00000	55		 push	 ebp
  00001	8b ec		 mov	 ebp, esp
  00003	83 ec 20	 sub	 esp, 32			; 00000020H
  00006	a1 00 00 00 00	 mov	 eax, DWORD PTR ___security_cookie
  0000b	33 c5		 xor	 eax, ebp
  0000d	89 45 fc	 mov	 DWORD PTR __$ArrayPad$[ebp], eax
  00010	8b 45 08	 mov	 eax, DWORD PTR _k$[ebp]

; 136  : 		_ENCSTR(k, _k);

  00013	8a 10		 mov	 dl, BYTE PTR [eax]
  00015	53		 push	 ebx
  00016	56		 push	 esi
  00017	8b f1		 mov	 esi, ecx
  00019	84 d2		 test	 dl, dl
  0001b	0f 84 45 02 00
	00		 je	 $LN96@LoadFloat_@2
  00021	80 f2 ed	 xor	 dl, -19			; ffffffedH
  00024	88 55 e0	 mov	 BYTE PTR __k$[ebp], dl
  00027	8a 50 01	 mov	 dl, BYTE PTR [eax+1]
  0002a	84 d2		 test	 dl, dl
  0002c	0f 84 2e 02 00
	00		 je	 $LN95@LoadFloat_@2
  00032	b3 ec		 mov	 bl, -20			; ffffffecH
  00034	32 d3		 xor	 dl, bl
  00036	88 55 e1	 mov	 BYTE PTR __k$[ebp+1], dl
  00039	8a 50 02	 mov	 dl, BYTE PTR [eax+2]
  0003c	84 d2		 test	 dl, dl
  0003e	0f 84 16 02 00
	00		 je	 $LN94@LoadFloat_@2
  00044	b1 eb		 mov	 cl, -21			; ffffffebH
  00046	32 d1		 xor	 dl, cl
  00048	88 55 e2	 mov	 BYTE PTR __k$[ebp+2], dl
  0004b	8a 50 03	 mov	 dl, BYTE PTR [eax+3]
  0004e	84 d2		 test	 dl, dl
  00050	0f 84 fe 01 00
	00		 je	 $LN93@LoadFloat_@2
  00056	80 f2 ea	 xor	 dl, -22			; ffffffeaH
  00059	88 55 e3	 mov	 BYTE PTR __k$[ebp+3], dl
  0005c	8a 50 04	 mov	 dl, BYTE PTR [eax+4]
  0005f	84 d2		 test	 dl, dl
  00061	0f 84 e7 01 00
	00		 je	 $LN92@LoadFloat_@2
  00067	80 f2 ed	 xor	 dl, -19			; ffffffedH
  0006a	88 55 e4	 mov	 BYTE PTR __k$[ebp+4], dl
  0006d	8a 50 05	 mov	 dl, BYTE PTR [eax+5]
  00070	84 d2		 test	 dl, dl
  00072	0f 84 d1 01 00
	00		 je	 $LN91@LoadFloat_@2
  00078	32 d3		 xor	 dl, bl
  0007a	88 55 e5	 mov	 BYTE PTR __k$[ebp+5], dl
  0007d	8a 50 06	 mov	 dl, BYTE PTR [eax+6]
  00080	84 d2		 test	 dl, dl
  00082	0f 84 bc 01 00
	00		 je	 $LN90@LoadFloat_@2
  00088	32 d1		 xor	 dl, cl
  0008a	88 55 e6	 mov	 BYTE PTR __k$[ebp+6], dl
  0008d	8a 50 07	 mov	 dl, BYTE PTR [eax+7]
  00090	84 d2		 test	 dl, dl
  00092	0f 84 a6 01 00
	00		 je	 $LN89@LoadFloat_@2
  00098	80 f2 ea	 xor	 dl, -22			; ffffffeaH
  0009b	88 55 e7	 mov	 BYTE PTR __k$[ebp+7], dl
  0009e	8a 50 08	 mov	 dl, BYTE PTR [eax+8]
  000a1	84 d2		 test	 dl, dl
  000a3	0f 84 8f 01 00
	00		 je	 $LN88@LoadFloat_@2
  000a9	80 f2 ed	 xor	 dl, -19			; ffffffedH
  000ac	88 55 e8	 mov	 BYTE PTR __k$[ebp+8], dl
  000af	8a 50 09	 mov	 dl, BYTE PTR [eax+9]
  000b2	84 d2		 test	 dl, dl
  000b4	0f 84 79 01 00
	00		 je	 $LN87@LoadFloat_@2
  000ba	32 d3		 xor	 dl, bl
  000bc	88 55 e9	 mov	 BYTE PTR __k$[ebp+9], dl
  000bf	8a 50 0a	 mov	 dl, BYTE PTR [eax+10]
  000c2	84 d2		 test	 dl, dl
  000c4	0f 84 64 01 00
	00		 je	 $LN86@LoadFloat_@2
  000ca	32 d1		 xor	 dl, cl
  000cc	88 55 ea	 mov	 BYTE PTR __k$[ebp+10], dl
  000cf	8a 50 0b	 mov	 dl, BYTE PTR [eax+11]
  000d2	84 d2		 test	 dl, dl
  000d4	0f 84 4e 01 00
	00		 je	 $LN85@LoadFloat_@2
  000da	80 f2 ea	 xor	 dl, -22			; ffffffeaH
  000dd	88 55 eb	 mov	 BYTE PTR __k$[ebp+11], dl
  000e0	8a 50 0c	 mov	 dl, BYTE PTR [eax+12]
  000e3	84 d2		 test	 dl, dl
  000e5	0f 84 37 01 00
	00		 je	 $LN84@LoadFloat_@2
  000eb	80 f2 ed	 xor	 dl, -19			; ffffffedH
  000ee	88 55 ec	 mov	 BYTE PTR __k$[ebp+12], dl
  000f1	8a 50 0d	 mov	 dl, BYTE PTR [eax+13]
  000f4	84 d2		 test	 dl, dl
  000f6	0f 84 21 01 00
	00		 je	 $LN83@LoadFloat_@2
  000fc	32 d3		 xor	 dl, bl
  000fe	88 55 ed	 mov	 BYTE PTR __k$[ebp+13], dl
  00101	8a 50 0e	 mov	 dl, BYTE PTR [eax+14]
  00104	84 d2		 test	 dl, dl
  00106	0f 84 0c 01 00
	00		 je	 $LN82@LoadFloat_@2
  0010c	32 d1		 xor	 dl, cl
  0010e	88 55 ee	 mov	 BYTE PTR __k$[ebp+14], dl
  00111	8a 50 0f	 mov	 dl, BYTE PTR [eax+15]
  00114	84 d2		 test	 dl, dl
  00116	0f 84 f6 00 00
	00		 je	 $LN81@LoadFloat_@2
  0011c	80 f2 ea	 xor	 dl, -22			; ffffffeaH
  0011f	88 55 ef	 mov	 BYTE PTR __k$[ebp+15], dl
  00122	8a 50 10	 mov	 dl, BYTE PTR [eax+16]
  00125	84 d2		 test	 dl, dl
  00127	0f 84 df 00 00
	00		 je	 $LN80@LoadFloat_@2
  0012d	80 f2 ed	 xor	 dl, -19			; ffffffedH
  00130	88 55 f0	 mov	 BYTE PTR __k$[ebp+16], dl
  00133	8a 50 11	 mov	 dl, BYTE PTR [eax+17]
  00136	84 d2		 test	 dl, dl
  00138	0f 84 c9 00 00
	00		 je	 $LN79@LoadFloat_@2
  0013e	32 d3		 xor	 dl, bl
  00140	88 55 f1	 mov	 BYTE PTR __k$[ebp+17], dl
  00143	8a 50 12	 mov	 dl, BYTE PTR [eax+18]
  00146	84 d2		 test	 dl, dl
  00148	0f 84 b4 00 00
	00		 je	 $LN78@LoadFloat_@2
  0014e	32 d1		 xor	 dl, cl
  00150	88 55 f2	 mov	 BYTE PTR __k$[ebp+18], dl
  00153	8a 50 13	 mov	 dl, BYTE PTR [eax+19]
  00156	84 d2		 test	 dl, dl
  00158	0f 84 9e 00 00
	00		 je	 $LN77@LoadFloat_@2
  0015e	80 f2 ea	 xor	 dl, -22			; ffffffeaH
  00161	88 55 f3	 mov	 BYTE PTR __k$[ebp+19], dl
  00164	8a 50 14	 mov	 dl, BYTE PTR [eax+20]
  00167	84 d2		 test	 dl, dl
  00169	0f 84 87 00 00
	00		 je	 $LN76@LoadFloat_@2
  0016f	80 f2 ed	 xor	 dl, -19			; ffffffedH
  00172	88 55 f4	 mov	 BYTE PTR __k$[ebp+20], dl
  00175	8a 50 15	 mov	 dl, BYTE PTR [eax+21]
  00178	84 d2		 test	 dl, dl
  0017a	74 75		 je	 SHORT $LN75@LoadFloat_@2
  0017c	32 d3		 xor	 dl, bl
  0017e	88 55 f5	 mov	 BYTE PTR __k$[ebp+21], dl
  00181	8a 50 16	 mov	 dl, BYTE PTR [eax+22]
  00184	84 d2		 test	 dl, dl
  00186	74 64		 je	 SHORT $LN74@LoadFloat_@2
  00188	32 d1		 xor	 dl, cl
  0018a	80 78 17 00	 cmp	 BYTE PTR [eax+23], 0
  0018e	88 55 f6	 mov	 BYTE PTR __k$[ebp+22], dl
  00191	0f 84 d3 00 00
	00		 je	 $LN1@LoadFloat_@2
  00197	8a 50 18	 mov	 dl, BYTE PTR [eax+24]
  0019a	84 d2		 test	 dl, dl
  0019c	74 48		 je	 SHORT $LN72@LoadFloat_@2
  0019e	80 f2 ed	 xor	 dl, -19			; ffffffedH
  001a1	88 55 f8	 mov	 BYTE PTR __k$[ebp+24], dl
  001a4	8a 50 19	 mov	 dl, BYTE PTR [eax+25]
  001a7	84 d2		 test	 dl, dl
  001a9	74 33		 je	 SHORT $LN71@LoadFloat_@2
  001ab	32 d3		 xor	 dl, bl
  001ad	88 55 f9	 mov	 BYTE PTR __k$[ebp+25], dl
  001b0	8a 50 1a	 mov	 dl, BYTE PTR [eax+26]
  001b3	84 d2		 test	 dl, dl
  001b5	74 1f		 je	 SHORT $LN70@LoadFloat_@2
  001b7	8a 40 1b	 mov	 al, BYTE PTR [eax+27]
  001ba	32 d1		 xor	 dl, cl
  001bc	88 55 fa	 mov	 BYTE PTR __k$[ebp+26], dl
  001bf	84 c0		 test	 al, al
  001c1	74 0a		 je	 SHORT $LN69@LoadFloat_@2
  001c3	34 ea		 xor	 al, -22			; ffffffeaH
  001c5	88 45 fb	 mov	 BYTE PTR __k$[ebp+27], al
  001c8	e9 9d 00 00 00	 jmp	 $LN1@LoadFloat_@2
$LN69@LoadFloat_@2:
  001cd	c6 45 fb ea	 mov	 BYTE PTR __k$[ebp+27], -22 ; ffffffeaH
  001d1	e9 94 00 00 00	 jmp	 $LN1@LoadFloat_@2
$LN70@LoadFloat_@2:
  001d6	88 4d fa	 mov	 BYTE PTR __k$[ebp+26], cl
  001d9	e9 8c 00 00 00	 jmp	 $LN1@LoadFloat_@2
$LN71@LoadFloat_@2:
  001de	88 5d f9	 mov	 BYTE PTR __k$[ebp+25], bl
  001e1	e9 84 00 00 00	 jmp	 $LN1@LoadFloat_@2
$LN72@LoadFloat_@2:
  001e6	c6 45 f8 ed	 mov	 BYTE PTR __k$[ebp+24], -19 ; ffffffedH
  001ea	eb 7e		 jmp	 SHORT $LN1@LoadFloat_@2
$LN74@LoadFloat_@2:
  001ec	88 4d f6	 mov	 BYTE PTR __k$[ebp+22], cl
  001ef	eb 79		 jmp	 SHORT $LN1@LoadFloat_@2
$LN75@LoadFloat_@2:
  001f1	88 5d f5	 mov	 BYTE PTR __k$[ebp+21], bl
  001f4	eb 74		 jmp	 SHORT $LN1@LoadFloat_@2
$LN76@LoadFloat_@2:
  001f6	c6 45 f4 ed	 mov	 BYTE PTR __k$[ebp+20], -19 ; ffffffedH
  001fa	eb 6e		 jmp	 SHORT $LN1@LoadFloat_@2
$LN77@LoadFloat_@2:
  001fc	c6 45 f3 ea	 mov	 BYTE PTR __k$[ebp+19], -22 ; ffffffeaH
  00200	eb 68		 jmp	 SHORT $LN1@LoadFloat_@2
$LN78@LoadFloat_@2:
  00202	88 4d f2	 mov	 BYTE PTR __k$[ebp+18], cl
  00205	eb 63		 jmp	 SHORT $LN1@LoadFloat_@2
$LN79@LoadFloat_@2:
  00207	88 5d f1	 mov	 BYTE PTR __k$[ebp+17], bl
  0020a	eb 5e		 jmp	 SHORT $LN1@LoadFloat_@2
$LN80@LoadFloat_@2:
  0020c	c6 45 f0 ed	 mov	 BYTE PTR __k$[ebp+16], -19 ; ffffffedH
  00210	eb 58		 jmp	 SHORT $LN1@LoadFloat_@2
$LN81@LoadFloat_@2:
  00212	c6 45 ef ea	 mov	 BYTE PTR __k$[ebp+15], -22 ; ffffffeaH
  00216	eb 52		 jmp	 SHORT $LN1@LoadFloat_@2
$LN82@LoadFloat_@2:
  00218	88 4d ee	 mov	 BYTE PTR __k$[ebp+14], cl
  0021b	eb 4d		 jmp	 SHORT $LN1@LoadFloat_@2
$LN83@LoadFloat_@2:
  0021d	88 5d ed	 mov	 BYTE PTR __k$[ebp+13], bl
  00220	eb 48		 jmp	 SHORT $LN1@LoadFloat_@2
$LN84@LoadFloat_@2:
  00222	c6 45 ec ed	 mov	 BYTE PTR __k$[ebp+12], -19 ; ffffffedH
  00226	eb 42		 jmp	 SHORT $LN1@LoadFloat_@2
$LN85@LoadFloat_@2:
  00228	c6 45 eb ea	 mov	 BYTE PTR __k$[ebp+11], -22 ; ffffffeaH
  0022c	eb 3c		 jmp	 SHORT $LN1@LoadFloat_@2
$LN86@LoadFloat_@2:
  0022e	88 4d ea	 mov	 BYTE PTR __k$[ebp+10], cl
  00231	eb 37		 jmp	 SHORT $LN1@LoadFloat_@2
$LN87@LoadFloat_@2:
  00233	88 5d e9	 mov	 BYTE PTR __k$[ebp+9], bl
  00236	eb 32		 jmp	 SHORT $LN1@LoadFloat_@2
$LN88@LoadFloat_@2:
  00238	c6 45 e8 ed	 mov	 BYTE PTR __k$[ebp+8], -19 ; ffffffedH
  0023c	eb 2c		 jmp	 SHORT $LN1@LoadFloat_@2
$LN89@LoadFloat_@2:
  0023e	c6 45 e7 ea	 mov	 BYTE PTR __k$[ebp+7], -22 ; ffffffeaH
  00242	eb 26		 jmp	 SHORT $LN1@LoadFloat_@2
$LN90@LoadFloat_@2:
  00244	88 4d e6	 mov	 BYTE PTR __k$[ebp+6], cl
  00247	eb 21		 jmp	 SHORT $LN1@LoadFloat_@2
$LN91@LoadFloat_@2:
  00249	88 5d e5	 mov	 BYTE PTR __k$[ebp+5], bl
  0024c	eb 1c		 jmp	 SHORT $LN1@LoadFloat_@2
$LN92@LoadFloat_@2:
  0024e	c6 45 e4 ed	 mov	 BYTE PTR __k$[ebp+4], -19 ; ffffffedH
  00252	eb 16		 jmp	 SHORT $LN1@LoadFloat_@2
$LN93@LoadFloat_@2:
  00254	c6 45 e3 ea	 mov	 BYTE PTR __k$[ebp+3], -22 ; ffffffeaH
  00258	eb 10		 jmp	 SHORT $LN1@LoadFloat_@2
$LN94@LoadFloat_@2:
  0025a	c6 45 e2 eb	 mov	 BYTE PTR __k$[ebp+2], -21 ; ffffffebH
  0025e	eb 0a		 jmp	 SHORT $LN1@LoadFloat_@2
$LN95@LoadFloat_@2:
  00260	c6 45 e1 ec	 mov	 BYTE PTR __k$[ebp+1], -20 ; ffffffecH
  00264	eb 04		 jmp	 SHORT $LN1@LoadFloat_@2
$LN96@LoadFloat_@2:
  00266	c6 45 e0 ed	 mov	 BYTE PTR __k$[ebp], -19	; ffffffedH
$LN1@LoadFloat_@2:
  0026a	6a 05		 push	 5
  0026c	8d 45 e0	 lea	 eax, DWORD PTR __k$[ebp]
  0026f	c6 45 f7 00	 mov	 BYTE PTR __k$[ebp+23], 0
  00273	5a		 pop	 edx
$LL104@LoadFloat_@2:
  00274	81 30 ed ec eb
	ea		 xor	 DWORD PTR [eax], -353637139 ; eaebecedH
  0027a	83 c0 04	 add	 eax, 4
  0027d	4a		 dec	 edx
  0027e	75 f4		 jne	 SHORT $LL104@LoadFloat_@2
  00280	6a 14		 push	 20			; 00000014H
  00282	58		 pop	 eax
$LL101@LoadFloat_@2:
  00283	8b c8		 mov	 ecx, eax
  00285	81 e1 03 00 00
	80		 and	 ecx, -2147483645	; 80000003H
  0028b	79 05		 jns	 SHORT $LN111@LoadFloat_@2
  0028d	49		 dec	 ecx
  0028e	83 c9 fc	 or	 ecx, -4			; fffffffcH
  00291	41		 inc	 ecx
$LN111@LoadFloat_@2:
  00292	b2 ed		 mov	 dl, -19			; ffffffedH
  00294	2a d1		 sub	 dl, cl
  00296	30 54 05 e0	 xor	 BYTE PTR __k$[ebp+eax], dl
  0029a	40		 inc	 eax
  0029b	83 f8 17	 cmp	 eax, 23			; 00000017H
  0029e	7c e3		 jl	 SHORT $LL101@LoadFloat_@2

; 137  : 		return LoadFloat(_k, f);

  002a0	f3 0f 10 45 0c	 movss	 xmm0, DWORD PTR _f$[ebp]
  002a5	51		 push	 ecx
  002a6	8d 45 e0	 lea	 eax, DWORD PTR __k$[ebp]
  002a9	f3 0f 11 04 24	 movss	 DWORD PTR [esp], xmm0
  002ae	50		 push	 eax
  002af	8b ce		 mov	 ecx, esi
  002b1	ff 15 00 00 00
	00		 call	 DWORD PTR __imp_?LoadFloat@ioINILoader@@QAEMPBDM@Z

; 138  : 	}

  002b7	8b 4d fc	 mov	 ecx, DWORD PTR __$ArrayPad$[ebp]
  002ba	5e		 pop	 esi
  002bb	33 cd		 xor	 ecx, ebp
  002bd	5b		 pop	 ebx
  002be	e8 00 00 00 00	 call	 @__security_check_cookie@4
  002c3	c9		 leave
  002c4	c2 08 00	 ret	 8
??$LoadFloat_e@$0BI@@ioINILoader@@QAEMAAY0BI@$$CBDM@Z ENDP ; ioINILoader::LoadFloat_e<24>
_TEXT	ENDS
PUBLIC	__$ArrayPad$
PUBLIC	??$LoadFloat_e@$0BH@@ioINILoader@@QAEMAAY0BH@$$CBDM@Z ; ioINILoader::LoadFloat_e<23>
; Function compile flags: /Ogsp
;	COMDAT ??$LoadFloat_e@$0BH@@ioINILoader@@QAEMAAY0BH@$$CBDM@Z
_TEXT	SEGMENT
__k$ = -32						; size = 23
__$ArrayPad$ = -4					; size = 4
_k$ = 8							; size = 4
_f$ = 12						; size = 4
??$LoadFloat_e@$0BH@@ioINILoader@@QAEMAAY0BH@$$CBDM@Z PROC ; ioINILoader::LoadFloat_e<23>, COMDAT
; _this$ = ecx

; 135  : 	{

  00000	55		 push	 ebp
  00001	8b ec		 mov	 ebp, esp
  00003	83 ec 20	 sub	 esp, 32			; 00000020H
  00006	a1 00 00 00 00	 mov	 eax, DWORD PTR ___security_cookie
  0000b	33 c5		 xor	 eax, ebp
  0000d	89 45 fc	 mov	 DWORD PTR __$ArrayPad$[ebp], eax
  00010	8b 45 08	 mov	 eax, DWORD PTR _k$[ebp]

; 136  : 		_ENCSTR(k, _k);

  00013	8a 10		 mov	 dl, BYTE PTR [eax]
  00015	53		 push	 ebx
  00016	56		 push	 esi
  00017	8b f1		 mov	 esi, ecx
  00019	84 d2		 test	 dl, dl
  0001b	0f 84 2d 02 00
	00		 je	 $LN96@LoadFloat_@3
  00021	80 f2 ed	 xor	 dl, -19			; ffffffedH
  00024	88 55 e0	 mov	 BYTE PTR __k$[ebp], dl
  00027	8a 50 01	 mov	 dl, BYTE PTR [eax+1]
  0002a	84 d2		 test	 dl, dl
  0002c	0f 84 16 02 00
	00		 je	 $LN95@LoadFloat_@3
  00032	b1 ec		 mov	 cl, -20			; ffffffecH
  00034	32 d1		 xor	 dl, cl
  00036	88 55 e1	 mov	 BYTE PTR __k$[ebp+1], dl
  00039	8a 50 02	 mov	 dl, BYTE PTR [eax+2]
  0003c	84 d2		 test	 dl, dl
  0003e	0f 84 fe 01 00
	00		 je	 $LN94@LoadFloat_@3
  00044	80 f2 eb	 xor	 dl, -21			; ffffffebH
  00047	88 55 e2	 mov	 BYTE PTR __k$[ebp+2], dl
  0004a	8a 50 03	 mov	 dl, BYTE PTR [eax+3]
  0004d	84 d2		 test	 dl, dl
  0004f	0f 84 e7 01 00
	00		 je	 $LN93@LoadFloat_@3
  00055	b3 ea		 mov	 bl, -22			; ffffffeaH
  00057	32 d3		 xor	 dl, bl
  00059	88 55 e3	 mov	 BYTE PTR __k$[ebp+3], dl
  0005c	8a 50 04	 mov	 dl, BYTE PTR [eax+4]
  0005f	84 d2		 test	 dl, dl
  00061	0f 84 cf 01 00
	00		 je	 $LN92@LoadFloat_@3
  00067	80 f2 ed	 xor	 dl, -19			; ffffffedH
  0006a	88 55 e4	 mov	 BYTE PTR __k$[ebp+4], dl
  0006d	8a 50 05	 mov	 dl, BYTE PTR [eax+5]
  00070	84 d2		 test	 dl, dl
  00072	0f 84 b9 01 00
	00		 je	 $LN91@LoadFloat_@3
  00078	32 d1		 xor	 dl, cl
  0007a	88 55 e5	 mov	 BYTE PTR __k$[ebp+5], dl
  0007d	8a 50 06	 mov	 dl, BYTE PTR [eax+6]
  00080	84 d2		 test	 dl, dl
  00082	0f 84 a3 01 00
	00		 je	 $LN90@LoadFloat_@3
  00088	80 f2 eb	 xor	 dl, -21			; ffffffebH
  0008b	88 55 e6	 mov	 BYTE PTR __k$[ebp+6], dl
  0008e	8a 50 07	 mov	 dl, BYTE PTR [eax+7]
  00091	84 d2		 test	 dl, dl
  00093	0f 84 8d 01 00
	00		 je	 $LN89@LoadFloat_@3
  00099	32 d3		 xor	 dl, bl
  0009b	88 55 e7	 mov	 BYTE PTR __k$[ebp+7], dl
  0009e	8a 50 08	 mov	 dl, BYTE PTR [eax+8]
  000a1	84 d2		 test	 dl, dl
  000a3	0f 84 77 01 00
	00		 je	 $LN88@LoadFloat_@3
  000a9	80 f2 ed	 xor	 dl, -19			; ffffffedH
  000ac	88 55 e8	 mov	 BYTE PTR __k$[ebp+8], dl
  000af	8a 50 09	 mov	 dl, BYTE PTR [eax+9]
  000b2	84 d2		 test	 dl, dl
  000b4	0f 84 61 01 00
	00		 je	 $LN87@LoadFloat_@3
  000ba	32 d1		 xor	 dl, cl
  000bc	88 55 e9	 mov	 BYTE PTR __k$[ebp+9], dl
  000bf	8a 50 0a	 mov	 dl, BYTE PTR [eax+10]
  000c2	84 d2		 test	 dl, dl
  000c4	0f 84 4b 01 00
	00		 je	 $LN86@LoadFloat_@3
  000ca	80 f2 eb	 xor	 dl, -21			; ffffffebH
  000cd	88 55 ea	 mov	 BYTE PTR __k$[ebp+10], dl
  000d0	8a 50 0b	 mov	 dl, BYTE PTR [eax+11]
  000d3	84 d2		 test	 dl, dl
  000d5	0f 84 35 01 00
	00		 je	 $LN85@LoadFloat_@3
  000db	32 d3		 xor	 dl, bl
  000dd	88 55 eb	 mov	 BYTE PTR __k$[ebp+11], dl
  000e0	8a 50 0c	 mov	 dl, BYTE PTR [eax+12]
  000e3	84 d2		 test	 dl, dl
  000e5	0f 84 1f 01 00
	00		 je	 $LN84@LoadFloat_@3
  000eb	80 f2 ed	 xor	 dl, -19			; ffffffedH
  000ee	88 55 ec	 mov	 BYTE PTR __k$[ebp+12], dl
  000f1	8a 50 0d	 mov	 dl, BYTE PTR [eax+13]
  000f4	84 d2		 test	 dl, dl
  000f6	0f 84 09 01 00
	00		 je	 $LN83@LoadFloat_@3
  000fc	32 d1		 xor	 dl, cl
  000fe	88 55 ed	 mov	 BYTE PTR __k$[ebp+13], dl
  00101	8a 50 0e	 mov	 dl, BYTE PTR [eax+14]
  00104	84 d2		 test	 dl, dl
  00106	0f 84 f3 00 00
	00		 je	 $LN82@LoadFloat_@3
  0010c	80 f2 eb	 xor	 dl, -21			; ffffffebH
  0010f	88 55 ee	 mov	 BYTE PTR __k$[ebp+14], dl
  00112	8a 50 0f	 mov	 dl, BYTE PTR [eax+15]
  00115	84 d2		 test	 dl, dl
  00117	0f 84 dd 00 00
	00		 je	 $LN81@LoadFloat_@3
  0011d	32 d3		 xor	 dl, bl
  0011f	88 55 ef	 mov	 BYTE PTR __k$[ebp+15], dl
  00122	8a 50 10	 mov	 dl, BYTE PTR [eax+16]
  00125	84 d2		 test	 dl, dl
  00127	0f 84 c7 00 00
	00		 je	 $LN80@LoadFloat_@3
  0012d	80 f2 ed	 xor	 dl, -19			; ffffffedH
  00130	88 55 f0	 mov	 BYTE PTR __k$[ebp+16], dl
  00133	8a 50 11	 mov	 dl, BYTE PTR [eax+17]
  00136	84 d2		 test	 dl, dl
  00138	0f 84 b1 00 00
	00		 je	 $LN79@LoadFloat_@3
  0013e	32 d1		 xor	 dl, cl
  00140	88 55 f1	 mov	 BYTE PTR __k$[ebp+17], dl
  00143	8a 50 12	 mov	 dl, BYTE PTR [eax+18]
  00146	84 d2		 test	 dl, dl
  00148	0f 84 9b 00 00
	00		 je	 $LN78@LoadFloat_@3
  0014e	80 f2 eb	 xor	 dl, -21			; ffffffebH
  00151	88 55 f2	 mov	 BYTE PTR __k$[ebp+18], dl
  00154	8a 50 13	 mov	 dl, BYTE PTR [eax+19]
  00157	84 d2		 test	 dl, dl
  00159	0f 84 85 00 00
	00		 je	 $LN77@LoadFloat_@3
  0015f	32 d3		 xor	 dl, bl
  00161	88 55 f3	 mov	 BYTE PTR __k$[ebp+19], dl
  00164	8a 50 14	 mov	 dl, BYTE PTR [eax+20]
  00167	84 d2		 test	 dl, dl
  00169	74 73		 je	 SHORT $LN76@LoadFloat_@3
  0016b	80 f2 ed	 xor	 dl, -19			; ffffffedH
  0016e	88 55 f4	 mov	 BYTE PTR __k$[ebp+20], dl
  00171	8a 50 15	 mov	 dl, BYTE PTR [eax+21]
  00174	84 d2		 test	 dl, dl
  00176	74 61		 je	 SHORT $LN75@LoadFloat_@3
  00178	32 d1		 xor	 dl, cl
  0017a	80 78 16 00	 cmp	 BYTE PTR [eax+22], 0
  0017e	88 55 f5	 mov	 BYTE PTR __k$[ebp+21], dl
  00181	0f 84 cb 00 00
	00		 je	 $LN1@LoadFloat_@3
  00187	8a 50 17	 mov	 dl, BYTE PTR [eax+23]
  0018a	84 d2		 test	 dl, dl
  0018c	74 46		 je	 SHORT $LN73@LoadFloat_@3
  0018e	32 d3		 xor	 dl, bl
  00190	88 55 f7	 mov	 BYTE PTR __k$[ebp+23], dl
  00193	8a 50 18	 mov	 dl, BYTE PTR [eax+24]
  00196	84 d2		 test	 dl, dl
  00198	74 34		 je	 SHORT $LN72@LoadFloat_@3
  0019a	80 f2 ed	 xor	 dl, -19			; ffffffedH
  0019d	88 55 f8	 mov	 BYTE PTR __k$[ebp+24], dl
  001a0	8a 50 19	 mov	 dl, BYTE PTR [eax+25]
  001a3	84 d2		 test	 dl, dl
  001a5	74 1f		 je	 SHORT $LN71@LoadFloat_@3
  001a7	8a 40 1a	 mov	 al, BYTE PTR [eax+26]
  001aa	32 d1		 xor	 dl, cl
  001ac	88 55 f9	 mov	 BYTE PTR __k$[ebp+25], dl
  001af	84 c0		 test	 al, al
  001b1	74 0a		 je	 SHORT $LN70@LoadFloat_@3
  001b3	34 eb		 xor	 al, -21			; ffffffebH
  001b5	88 45 fa	 mov	 BYTE PTR __k$[ebp+26], al
  001b8	e9 95 00 00 00	 jmp	 $LN1@LoadFloat_@3
$LN70@LoadFloat_@3:
  001bd	c6 45 fa eb	 mov	 BYTE PTR __k$[ebp+26], -21 ; ffffffebH
  001c1	e9 8c 00 00 00	 jmp	 $LN1@LoadFloat_@3
$LN71@LoadFloat_@3:
  001c6	88 4d f9	 mov	 BYTE PTR __k$[ebp+25], cl
  001c9	e9 84 00 00 00	 jmp	 $LN1@LoadFloat_@3
$LN72@LoadFloat_@3:
  001ce	c6 45 f8 ed	 mov	 BYTE PTR __k$[ebp+24], -19 ; ffffffedH
  001d2	eb 7e		 jmp	 SHORT $LN1@LoadFloat_@3
$LN73@LoadFloat_@3:
  001d4	88 5d f7	 mov	 BYTE PTR __k$[ebp+23], bl
  001d7	eb 79		 jmp	 SHORT $LN1@LoadFloat_@3
$LN75@LoadFloat_@3:
  001d9	88 4d f5	 mov	 BYTE PTR __k$[ebp+21], cl
  001dc	eb 74		 jmp	 SHORT $LN1@LoadFloat_@3
$LN76@LoadFloat_@3:
  001de	c6 45 f4 ed	 mov	 BYTE PTR __k$[ebp+20], -19 ; ffffffedH
  001e2	eb 6e		 jmp	 SHORT $LN1@LoadFloat_@3
$LN77@LoadFloat_@3:
  001e4	88 5d f3	 mov	 BYTE PTR __k$[ebp+19], bl
  001e7	eb 69		 jmp	 SHORT $LN1@LoadFloat_@3
$LN78@LoadFloat_@3:
  001e9	c6 45 f2 eb	 mov	 BYTE PTR __k$[ebp+18], -21 ; ffffffebH
  001ed	eb 63		 jmp	 SHORT $LN1@LoadFloat_@3
$LN79@LoadFloat_@3:
  001ef	88 4d f1	 mov	 BYTE PTR __k$[ebp+17], cl
  001f2	eb 5e		 jmp	 SHORT $LN1@LoadFloat_@3
$LN80@LoadFloat_@3:
  001f4	c6 45 f0 ed	 mov	 BYTE PTR __k$[ebp+16], -19 ; ffffffedH
  001f8	eb 58		 jmp	 SHORT $LN1@LoadFloat_@3
$LN81@LoadFloat_@3:
  001fa	88 5d ef	 mov	 BYTE PTR __k$[ebp+15], bl
  001fd	eb 53		 jmp	 SHORT $LN1@LoadFloat_@3
$LN82@LoadFloat_@3:
  001ff	c6 45 ee eb	 mov	 BYTE PTR __k$[ebp+14], -21 ; ffffffebH
  00203	eb 4d		 jmp	 SHORT $LN1@LoadFloat_@3
$LN83@LoadFloat_@3:
  00205	88 4d ed	 mov	 BYTE PTR __k$[ebp+13], cl
  00208	eb 48		 jmp	 SHORT $LN1@LoadFloat_@3
$LN84@LoadFloat_@3:
  0020a	c6 45 ec ed	 mov	 BYTE PTR __k$[ebp+12], -19 ; ffffffedH
  0020e	eb 42		 jmp	 SHORT $LN1@LoadFloat_@3
$LN85@LoadFloat_@3:
  00210	88 5d eb	 mov	 BYTE PTR __k$[ebp+11], bl
  00213	eb 3d		 jmp	 SHORT $LN1@LoadFloat_@3
$LN86@LoadFloat_@3:
  00215	c6 45 ea eb	 mov	 BYTE PTR __k$[ebp+10], -21 ; ffffffebH
  00219	eb 37		 jmp	 SHORT $LN1@LoadFloat_@3
$LN87@LoadFloat_@3:
  0021b	88 4d e9	 mov	 BYTE PTR __k$[ebp+9], cl
  0021e	eb 32		 jmp	 SHORT $LN1@LoadFloat_@3
$LN88@LoadFloat_@3:
  00220	c6 45 e8 ed	 mov	 BYTE PTR __k$[ebp+8], -19 ; ffffffedH
  00224	eb 2c		 jmp	 SHORT $LN1@LoadFloat_@3
$LN89@LoadFloat_@3:
  00226	88 5d e7	 mov	 BYTE PTR __k$[ebp+7], bl
  00229	eb 27		 jmp	 SHORT $LN1@LoadFloat_@3
$LN90@LoadFloat_@3:
  0022b	c6 45 e6 eb	 mov	 BYTE PTR __k$[ebp+6], -21 ; ffffffebH
  0022f	eb 21		 jmp	 SHORT $LN1@LoadFloat_@3
$LN91@LoadFloat_@3:
  00231	88 4d e5	 mov	 BYTE PTR __k$[ebp+5], cl
  00234	eb 1c		 jmp	 SHORT $LN1@LoadFloat_@3
$LN92@LoadFloat_@3:
  00236	c6 45 e4 ed	 mov	 BYTE PTR __k$[ebp+4], -19 ; ffffffedH
  0023a	eb 16		 jmp	 SHORT $LN1@LoadFloat_@3
$LN93@LoadFloat_@3:
  0023c	c6 45 e3 ea	 mov	 BYTE PTR __k$[ebp+3], -22 ; ffffffeaH
  00240	eb 10		 jmp	 SHORT $LN1@LoadFloat_@3
$LN94@LoadFloat_@3:
  00242	c6 45 e2 eb	 mov	 BYTE PTR __k$[ebp+2], -21 ; ffffffebH
  00246	eb 0a		 jmp	 SHORT $LN1@LoadFloat_@3
$LN95@LoadFloat_@3:
  00248	c6 45 e1 ec	 mov	 BYTE PTR __k$[ebp+1], -20 ; ffffffecH
  0024c	eb 04		 jmp	 SHORT $LN1@LoadFloat_@3
$LN96@LoadFloat_@3:
  0024e	c6 45 e0 ed	 mov	 BYTE PTR __k$[ebp], -19	; ffffffedH
$LN1@LoadFloat_@3:
  00252	6a 05		 push	 5
  00254	8d 45 e0	 lea	 eax, DWORD PTR __k$[ebp]
  00257	c6 45 f6 00	 mov	 BYTE PTR __k$[ebp+22], 0
  0025b	5a		 pop	 edx
$LL104@LoadFloat_@3:
  0025c	81 30 ed ec eb
	ea		 xor	 DWORD PTR [eax], -353637139 ; eaebecedH
  00262	83 c0 04	 add	 eax, 4
  00265	4a		 dec	 edx
  00266	75 f4		 jne	 SHORT $LL104@LoadFloat_@3
  00268	6a 14		 push	 20			; 00000014H
  0026a	58		 pop	 eax
$LL101@LoadFloat_@3:
  0026b	8b c8		 mov	 ecx, eax
  0026d	81 e1 03 00 00
	80		 and	 ecx, -2147483645	; 80000003H
  00273	79 05		 jns	 SHORT $LN111@LoadFloat_@3
  00275	49		 dec	 ecx
  00276	83 c9 fc	 or	 ecx, -4			; fffffffcH
  00279	41		 inc	 ecx
$LN111@LoadFloat_@3:
  0027a	b2 ed		 mov	 dl, -19			; ffffffedH
  0027c	2a d1		 sub	 dl, cl
  0027e	30 54 05 e0	 xor	 BYTE PTR __k$[ebp+eax], dl
  00282	40		 inc	 eax
  00283	83 f8 16	 cmp	 eax, 22			; 00000016H
  00286	7c e3		 jl	 SHORT $LL101@LoadFloat_@3

; 137  : 		return LoadFloat(_k, f);

  00288	f3 0f 10 45 0c	 movss	 xmm0, DWORD PTR _f$[ebp]
  0028d	51		 push	 ecx
  0028e	8d 45 e0	 lea	 eax, DWORD PTR __k$[ebp]
  00291	f3 0f 11 04 24	 movss	 DWORD PTR [esp], xmm0
  00296	50		 push	 eax
  00297	8b ce		 mov	 ecx, esi
  00299	ff 15 00 00 00
	00		 call	 DWORD PTR __imp_?LoadFloat@ioINILoader@@QAEMPBDM@Z

; 138  : 	}

  0029f	8b 4d fc	 mov	 ecx, DWORD PTR __$ArrayPad$[ebp]
  002a2	5e		 pop	 esi
  002a3	33 cd		 xor	 ecx, ebp
  002a5	5b		 pop	 ebx
  002a6	e8 00 00 00 00	 call	 @__security_check_cookie@4
  002ab	c9		 leave
  002ac	c2 08 00	 ret	 8
??$LoadFloat_e@$0BH@@ioINILoader@@QAEMAAY0BH@$$CBDM@Z ENDP ; ioINILoader::LoadFloat_e<23>
_TEXT	ENDS
PUBLIC	__$ArrayPad$
PUBLIC	??$LoadFloat_e@$0BG@@ioINILoader@@QAEMAAY0BG@$$CBDM@Z ; ioINILoader::LoadFloat_e<22>
; Function compile flags: /Ogsp
;	COMDAT ??$LoadFloat_e@$0BG@@ioINILoader@@QAEMAAY0BG@$$CBDM@Z
_TEXT	SEGMENT
__k$ = -32						; size = 22
__$ArrayPad$ = -4					; size = 4
_k$ = 8							; size = 4
_f$ = 12						; size = 4
??$LoadFloat_e@$0BG@@ioINILoader@@QAEMAAY0BG@$$CBDM@Z PROC ; ioINILoader::LoadFloat_e<22>, COMDAT
; _this$ = ecx

; 135  : 	{

  00000	55		 push	 ebp
  00001	8b ec		 mov	 ebp, esp
  00003	83 ec 20	 sub	 esp, 32			; 00000020H
  00006	a1 00 00 00 00	 mov	 eax, DWORD PTR ___security_cookie
  0000b	33 c5		 xor	 eax, ebp
  0000d	89 45 fc	 mov	 DWORD PTR __$ArrayPad$[ebp], eax
  00010	8b 45 08	 mov	 eax, DWORD PTR _k$[ebp]

; 136  : 		_ENCSTR(k, _k);

  00013	8a 10		 mov	 dl, BYTE PTR [eax]
  00015	53		 push	 ebx
  00016	56		 push	 esi
  00017	8b f1		 mov	 esi, ecx
  00019	84 d2		 test	 dl, dl
  0001b	0f 84 15 02 00
	00		 je	 $LN96@LoadFloat_@4
  00021	80 f2 ed	 xor	 dl, -19			; ffffffedH
  00024	88 55 e0	 mov	 BYTE PTR __k$[ebp], dl
  00027	8a 50 01	 mov	 dl, BYTE PTR [eax+1]
  0002a	84 d2		 test	 dl, dl
  0002c	0f 84 fe 01 00
	00		 je	 $LN95@LoadFloat_@4
  00032	80 f2 ec	 xor	 dl, -20			; ffffffecH
  00035	88 55 e1	 mov	 BYTE PTR __k$[ebp+1], dl
  00038	8a 50 02	 mov	 dl, BYTE PTR [eax+2]
  0003b	84 d2		 test	 dl, dl
  0003d	0f 84 e7 01 00
	00		 je	 $LN94@LoadFloat_@4
  00043	b1 eb		 mov	 cl, -21			; ffffffebH
  00045	32 d1		 xor	 dl, cl
  00047	88 55 e2	 mov	 BYTE PTR __k$[ebp+2], dl
  0004a	8a 50 03	 mov	 dl, BYTE PTR [eax+3]
  0004d	84 d2		 test	 dl, dl
  0004f	0f 84 cf 01 00
	00		 je	 $LN93@LoadFloat_@4
  00055	b3 ea		 mov	 bl, -22			; ffffffeaH
  00057	32 d3		 xor	 dl, bl
  00059	88 55 e3	 mov	 BYTE PTR __k$[ebp+3], dl
  0005c	8a 50 04	 mov	 dl, BYTE PTR [eax+4]
  0005f	84 d2		 test	 dl, dl
  00061	0f 84 b7 01 00
	00		 je	 $LN92@LoadFloat_@4
  00067	80 f2 ed	 xor	 dl, -19			; ffffffedH
  0006a	88 55 e4	 mov	 BYTE PTR __k$[ebp+4], dl
  0006d	8a 50 05	 mov	 dl, BYTE PTR [eax+5]
  00070	84 d2		 test	 dl, dl
  00072	0f 84 a0 01 00
	00		 je	 $LN91@LoadFloat_@4
  00078	80 f2 ec	 xor	 dl, -20			; ffffffecH
  0007b	88 55 e5	 mov	 BYTE PTR __k$[ebp+5], dl
  0007e	8a 50 06	 mov	 dl, BYTE PTR [eax+6]
  00081	84 d2		 test	 dl, dl
  00083	0f 84 8a 01 00
	00		 je	 $LN90@LoadFloat_@4
  00089	32 d1		 xor	 dl, cl
  0008b	88 55 e6	 mov	 BYTE PTR __k$[ebp+6], dl
  0008e	8a 50 07	 mov	 dl, BYTE PTR [eax+7]
  00091	84 d2		 test	 dl, dl
  00093	0f 84 75 01 00
	00		 je	 $LN89@LoadFloat_@4
  00099	32 d3		 xor	 dl, bl
  0009b	88 55 e7	 mov	 BYTE PTR __k$[ebp+7], dl
  0009e	8a 50 08	 mov	 dl, BYTE PTR [eax+8]
  000a1	84 d2		 test	 dl, dl
  000a3	0f 84 5f 01 00
	00		 je	 $LN88@LoadFloat_@4
  000a9	80 f2 ed	 xor	 dl, -19			; ffffffedH
  000ac	88 55 e8	 mov	 BYTE PTR __k$[ebp+8], dl
  000af	8a 50 09	 mov	 dl, BYTE PTR [eax+9]
  000b2	84 d2		 test	 dl, dl
  000b4	0f 84 48 01 00
	00		 je	 $LN87@LoadFloat_@4
  000ba	80 f2 ec	 xor	 dl, -20			; ffffffecH
  000bd	88 55 e9	 mov	 BYTE PTR __k$[ebp+9], dl
  000c0	8a 50 0a	 mov	 dl, BYTE PTR [eax+10]
  000c3	84 d2		 test	 dl, dl
  000c5	0f 84 32 01 00
	00		 je	 $LN86@LoadFloat_@4
  000cb	32 d1		 xor	 dl, cl
  000cd	88 55 ea	 mov	 BYTE PTR __k$[ebp+10], dl
  000d0	8a 50 0b	 mov	 dl, BYTE PTR [eax+11]
  000d3	84 d2		 test	 dl, dl
  000d5	0f 84 1d 01 00
	00		 je	 $LN85@LoadFloat_@4
  000db	32 d3		 xor	 dl, bl
  000dd	88 55 eb	 mov	 BYTE PTR __k$[ebp+11], dl
  000e0	8a 50 0c	 mov	 dl, BYTE PTR [eax+12]
  000e3	84 d2		 test	 dl, dl
  000e5	0f 84 07 01 00
	00		 je	 $LN84@LoadFloat_@4
  000eb	80 f2 ed	 xor	 dl, -19			; ffffffedH
  000ee	88 55 ec	 mov	 BYTE PTR __k$[ebp+12], dl
  000f1	8a 50 0d	 mov	 dl, BYTE PTR [eax+13]
  000f4	84 d2		 test	 dl, dl
  000f6	0f 84 f0 00 00
	00		 je	 $LN83@LoadFloat_@4
  000fc	80 f2 ec	 xor	 dl, -20			; ffffffecH
  000ff	88 55 ed	 mov	 BYTE PTR __k$[ebp+13], dl
  00102	8a 50 0e	 mov	 dl, BYTE PTR [eax+14]
  00105	84 d2		 test	 dl, dl
  00107	0f 84 da 00 00
	00		 je	 $LN82@LoadFloat_@4
  0010d	32 d1		 xor	 dl, cl
  0010f	88 55 ee	 mov	 BYTE PTR __k$[ebp+14], dl
  00112	8a 50 0f	 mov	 dl, BYTE PTR [eax+15]
  00115	84 d2		 test	 dl, dl
  00117	0f 84 c5 00 00
	00		 je	 $LN81@LoadFloat_@4
  0011d	32 d3		 xor	 dl, bl
  0011f	88 55 ef	 mov	 BYTE PTR __k$[ebp+15], dl
  00122	8a 50 10	 mov	 dl, BYTE PTR [eax+16]
  00125	84 d2		 test	 dl, dl
  00127	0f 84 af 00 00
	00		 je	 $LN80@LoadFloat_@4
  0012d	80 f2 ed	 xor	 dl, -19			; ffffffedH
  00130	88 55 f0	 mov	 BYTE PTR __k$[ebp+16], dl
  00133	8a 50 11	 mov	 dl, BYTE PTR [eax+17]
  00136	84 d2		 test	 dl, dl
  00138	0f 84 98 00 00
	00		 je	 $LN79@LoadFloat_@4
  0013e	80 f2 ec	 xor	 dl, -20			; ffffffecH
  00141	88 55 f1	 mov	 BYTE PTR __k$[ebp+17], dl
  00144	8a 50 12	 mov	 dl, BYTE PTR [eax+18]
  00147	84 d2		 test	 dl, dl
  00149	0f 84 82 00 00
	00		 je	 $LN78@LoadFloat_@4
  0014f	32 d1		 xor	 dl, cl
  00151	88 55 f2	 mov	 BYTE PTR __k$[ebp+18], dl
  00154	8a 50 13	 mov	 dl, BYTE PTR [eax+19]
  00157	84 d2		 test	 dl, dl
  00159	74 71		 je	 SHORT $LN77@LoadFloat_@4
  0015b	32 d3		 xor	 dl, bl
  0015d	88 55 f3	 mov	 BYTE PTR __k$[ebp+19], dl
  00160	8a 50 14	 mov	 dl, BYTE PTR [eax+20]
  00163	84 d2		 test	 dl, dl
  00165	74 5f		 je	 SHORT $LN76@LoadFloat_@4
  00167	80 f2 ed	 xor	 dl, -19			; ffffffedH
  0016a	80 78 15 00	 cmp	 BYTE PTR [eax+21], 0
  0016e	88 55 f4	 mov	 BYTE PTR __k$[ebp+20], dl
  00171	0f 84 c3 00 00
	00		 je	 $LN1@LoadFloat_@4
  00177	8a 50 16	 mov	 dl, BYTE PTR [eax+22]
  0017a	84 d2		 test	 dl, dl
  0017c	74 43		 je	 SHORT $LN74@LoadFloat_@4
  0017e	32 d1		 xor	 dl, cl
  00180	88 55 f6	 mov	 BYTE PTR __k$[ebp+22], dl
  00183	8a 50 17	 mov	 dl, BYTE PTR [eax+23]
  00186	84 d2		 test	 dl, dl
  00188	74 32		 je	 SHORT $LN73@LoadFloat_@4
  0018a	32 d3		 xor	 dl, bl
  0018c	88 55 f7	 mov	 BYTE PTR __k$[ebp+23], dl
  0018f	8a 50 18	 mov	 dl, BYTE PTR [eax+24]
  00192	84 d2		 test	 dl, dl
  00194	74 20		 je	 SHORT $LN72@LoadFloat_@4
  00196	8a 40 19	 mov	 al, BYTE PTR [eax+25]
  00199	80 f2 ed	 xor	 dl, -19			; ffffffedH
  0019c	88 55 f8	 mov	 BYTE PTR __k$[ebp+24], dl
  0019f	84 c0		 test	 al, al
  001a1	74 0a		 je	 SHORT $LN71@LoadFloat_@4
  001a3	34 ec		 xor	 al, -20			; ffffffecH
  001a5	88 45 f9	 mov	 BYTE PTR __k$[ebp+25], al
  001a8	e9 8d 00 00 00	 jmp	 $LN1@LoadFloat_@4
$LN71@LoadFloat_@4:
  001ad	c6 45 f9 ec	 mov	 BYTE PTR __k$[ebp+25], -20 ; ffffffecH
  001b1	e9 84 00 00 00	 jmp	 $LN1@LoadFloat_@4
$LN72@LoadFloat_@4:
  001b6	c6 45 f8 ed	 mov	 BYTE PTR __k$[ebp+24], -19 ; ffffffedH
  001ba	eb 7e		 jmp	 SHORT $LN1@LoadFloat_@4
$LN73@LoadFloat_@4:
  001bc	88 5d f7	 mov	 BYTE PTR __k$[ebp+23], bl
  001bf	eb 79		 jmp	 SHORT $LN1@LoadFloat_@4
$LN74@LoadFloat_@4:
  001c1	88 4d f6	 mov	 BYTE PTR __k$[ebp+22], cl
  001c4	eb 74		 jmp	 SHORT $LN1@LoadFloat_@4
$LN76@LoadFloat_@4:
  001c6	c6 45 f4 ed	 mov	 BYTE PTR __k$[ebp+20], -19 ; ffffffedH
  001ca	eb 6e		 jmp	 SHORT $LN1@LoadFloat_@4
$LN77@LoadFloat_@4:
  001cc	88 5d f3	 mov	 BYTE PTR __k$[ebp+19], bl
  001cf	eb 69		 jmp	 SHORT $LN1@LoadFloat_@4
$LN78@LoadFloat_@4:
  001d1	88 4d f2	 mov	 BYTE PTR __k$[ebp+18], cl
  001d4	eb 64		 jmp	 SHORT $LN1@LoadFloat_@4
$LN79@LoadFloat_@4:
  001d6	c6 45 f1 ec	 mov	 BYTE PTR __k$[ebp+17], -20 ; ffffffecH
  001da	eb 5e		 jmp	 SHORT $LN1@LoadFloat_@4
$LN80@LoadFloat_@4:
  001dc	c6 45 f0 ed	 mov	 BYTE PTR __k$[ebp+16], -19 ; ffffffedH
  001e0	eb 58		 jmp	 SHORT $LN1@LoadFloat_@4
$LN81@LoadFloat_@4:
  001e2	88 5d ef	 mov	 BYTE PTR __k$[ebp+15], bl
  001e5	eb 53		 jmp	 SHORT $LN1@LoadFloat_@4
$LN82@LoadFloat_@4:
  001e7	88 4d ee	 mov	 BYTE PTR __k$[ebp+14], cl
  001ea	eb 4e		 jmp	 SHORT $LN1@LoadFloat_@4
$LN83@LoadFloat_@4:
  001ec	c6 45 ed ec	 mov	 BYTE PTR __k$[ebp+13], -20 ; ffffffecH
  001f0	eb 48		 jmp	 SHORT $LN1@LoadFloat_@4
$LN84@LoadFloat_@4:
  001f2	c6 45 ec ed	 mov	 BYTE PTR __k$[ebp+12], -19 ; ffffffedH
  001f6	eb 42		 jmp	 SHORT $LN1@LoadFloat_@4
$LN85@LoadFloat_@4:
  001f8	88 5d eb	 mov	 BYTE PTR __k$[ebp+11], bl
  001fb	eb 3d		 jmp	 SHORT $LN1@LoadFloat_@4
$LN86@LoadFloat_@4:
  001fd	88 4d ea	 mov	 BYTE PTR __k$[ebp+10], cl
  00200	eb 38		 jmp	 SHORT $LN1@LoadFloat_@4
$LN87@LoadFloat_@4:
  00202	c6 45 e9 ec	 mov	 BYTE PTR __k$[ebp+9], -20 ; ffffffecH
  00206	eb 32		 jmp	 SHORT $LN1@LoadFloat_@4
$LN88@LoadFloat_@4:
  00208	c6 45 e8 ed	 mov	 BYTE PTR __k$[ebp+8], -19 ; ffffffedH
  0020c	eb 2c		 jmp	 SHORT $LN1@LoadFloat_@4
$LN89@LoadFloat_@4:
  0020e	88 5d e7	 mov	 BYTE PTR __k$[ebp+7], bl
  00211	eb 27		 jmp	 SHORT $LN1@LoadFloat_@4
$LN90@LoadFloat_@4:
  00213	88 4d e6	 mov	 BYTE PTR __k$[ebp+6], cl
  00216	eb 22		 jmp	 SHORT $LN1@LoadFloat_@4
$LN91@LoadFloat_@4:
  00218	c6 45 e5 ec	 mov	 BYTE PTR __k$[ebp+5], -20 ; ffffffecH
  0021c	eb 1c		 jmp	 SHORT $LN1@LoadFloat_@4
$LN92@LoadFloat_@4:
  0021e	c6 45 e4 ed	 mov	 BYTE PTR __k$[ebp+4], -19 ; ffffffedH
  00222	eb 16		 jmp	 SHORT $LN1@LoadFloat_@4
$LN93@LoadFloat_@4:
  00224	c6 45 e3 ea	 mov	 BYTE PTR __k$[ebp+3], -22 ; ffffffeaH
  00228	eb 10		 jmp	 SHORT $LN1@LoadFloat_@4
$LN94@LoadFloat_@4:
  0022a	c6 45 e2 eb	 mov	 BYTE PTR __k$[ebp+2], -21 ; ffffffebH
  0022e	eb 0a		 jmp	 SHORT $LN1@LoadFloat_@4
$LN95@LoadFloat_@4:
  00230	c6 45 e1 ec	 mov	 BYTE PTR __k$[ebp+1], -20 ; ffffffecH
  00234	eb 04		 jmp	 SHORT $LN1@LoadFloat_@4
$LN96@LoadFloat_@4:
  00236	c6 45 e0 ed	 mov	 BYTE PTR __k$[ebp], -19	; ffffffedH
$LN1@LoadFloat_@4:
  0023a	6a 05		 push	 5
  0023c	8d 45 e0	 lea	 eax, DWORD PTR __k$[ebp]
  0023f	c6 45 f5 00	 mov	 BYTE PTR __k$[ebp+21], 0
  00243	5a		 pop	 edx
$LL104@LoadFloat_@4:
  00244	81 30 ed ec eb
	ea		 xor	 DWORD PTR [eax], -353637139 ; eaebecedH
  0024a	83 c0 04	 add	 eax, 4
  0024d	4a		 dec	 edx
  0024e	75 f4		 jne	 SHORT $LL104@LoadFloat_@4

; 137  : 		return LoadFloat(_k, f);

  00250	f3 0f 10 45 0c	 movss	 xmm0, DWORD PTR _f$[ebp]
  00255	80 75 f4 ed	 xor	 BYTE PTR __k$[ebp+20], -19 ; ffffffedH
  00259	51		 push	 ecx
  0025a	8d 45 e0	 lea	 eax, DWORD PTR __k$[ebp]
  0025d	f3 0f 11 04 24	 movss	 DWORD PTR [esp], xmm0
  00262	50		 push	 eax
  00263	8b ce		 mov	 ecx, esi
  00265	ff 15 00 00 00
	00		 call	 DWORD PTR __imp_?LoadFloat@ioINILoader@@QAEMPBDM@Z

; 138  : 	}

  0026b	8b 4d fc	 mov	 ecx, DWORD PTR __$ArrayPad$[ebp]
  0026e	5e		 pop	 esi
  0026f	33 cd		 xor	 ecx, ebp
  00271	5b		 pop	 ebx
  00272	e8 00 00 00 00	 call	 @__security_check_cookie@4
  00277	c9		 leave
  00278	c2 08 00	 ret	 8
??$LoadFloat_e@$0BG@@ioINILoader@@QAEMAAY0BG@$$CBDM@Z ENDP ; ioINILoader::LoadFloat_e<22>
_TEXT	ENDS
PUBLIC	__$ArrayPad$
PUBLIC	??$LoadInt_e@$0BF@@ioINILoader@@QAEHAAY0BF@$$CBDH@Z ; ioINILoader::LoadInt_e<21>
; Function compile flags: /Ogsp
;	COMDAT ??$LoadInt_e@$0BF@@ioINILoader@@QAEHAAY0BF@$$CBDH@Z
_TEXT	SEGMENT
__k$ = -32						; size = 21
__$ArrayPad$ = -4					; size = 4
_k$ = 8							; size = 4
_i$ = 12						; size = 4
??$LoadInt_e@$0BF@@ioINILoader@@QAEHAAY0BF@$$CBDH@Z PROC ; ioINILoader::LoadInt_e<21>, COMDAT
; _this$ = ecx

; 118  : 	{

  00000	55		 push	 ebp
  00001	8b ec		 mov	 ebp, esp
  00003	83 ec 20	 sub	 esp, 32			; 00000020H
  00006	a1 00 00 00 00	 mov	 eax, DWORD PTR ___security_cookie
  0000b	33 c5		 xor	 eax, ebp
  0000d	89 45 fc	 mov	 DWORD PTR __$ArrayPad$[ebp], eax
  00010	8b 45 08	 mov	 eax, DWORD PTR _k$[ebp]

; 119  : 		_ENCSTR(k, _k);

  00013	8a 10		 mov	 dl, BYTE PTR [eax]
  00015	53		 push	 ebx
  00016	56		 push	 esi
  00017	8b f1		 mov	 esi, ecx
  00019	84 d2		 test	 dl, dl
  0001b	0f 84 f7 01 00
	00		 je	 $LN96@LoadInt_e@7
  00021	80 f2 ed	 xor	 dl, -19			; ffffffedH
  00024	88 55 e0	 mov	 BYTE PTR __k$[ebp], dl
  00027	8a 50 01	 mov	 dl, BYTE PTR [eax+1]
  0002a	84 d2		 test	 dl, dl
  0002c	0f 84 e0 01 00
	00		 je	 $LN95@LoadInt_e@7
  00032	b1 ec		 mov	 cl, -20			; ffffffecH
  00034	32 d1		 xor	 dl, cl
  00036	88 55 e1	 mov	 BYTE PTR __k$[ebp+1], dl
  00039	8a 50 02	 mov	 dl, BYTE PTR [eax+2]
  0003c	84 d2		 test	 dl, dl
  0003e	0f 84 c8 01 00
	00		 je	 $LN94@LoadInt_e@7
  00044	b3 eb		 mov	 bl, -21			; ffffffebH
  00046	32 d3		 xor	 dl, bl
  00048	88 55 e2	 mov	 BYTE PTR __k$[ebp+2], dl
  0004b	8a 50 03	 mov	 dl, BYTE PTR [eax+3]
  0004e	84 d2		 test	 dl, dl
  00050	0f 84 b0 01 00
	00		 je	 $LN93@LoadInt_e@7
  00056	80 f2 ea	 xor	 dl, -22			; ffffffeaH
  00059	88 55 e3	 mov	 BYTE PTR __k$[ebp+3], dl
  0005c	8a 50 04	 mov	 dl, BYTE PTR [eax+4]
  0005f	84 d2		 test	 dl, dl
  00061	0f 84 99 01 00
	00		 je	 $LN92@LoadInt_e@7
  00067	80 f2 ed	 xor	 dl, -19			; ffffffedH
  0006a	88 55 e4	 mov	 BYTE PTR __k$[ebp+4], dl
  0006d	8a 50 05	 mov	 dl, BYTE PTR [eax+5]
  00070	84 d2		 test	 dl, dl
  00072	0f 84 83 01 00
	00		 je	 $LN91@LoadInt_e@7
  00078	32 d1		 xor	 dl, cl
  0007a	88 55 e5	 mov	 BYTE PTR __k$[ebp+5], dl
  0007d	8a 50 06	 mov	 dl, BYTE PTR [eax+6]
  00080	84 d2		 test	 dl, dl
  00082	0f 84 6e 01 00
	00		 je	 $LN90@LoadInt_e@7
  00088	32 d3		 xor	 dl, bl
  0008a	88 55 e6	 mov	 BYTE PTR __k$[ebp+6], dl
  0008d	8a 50 07	 mov	 dl, BYTE PTR [eax+7]
  00090	84 d2		 test	 dl, dl
  00092	0f 84 58 01 00
	00		 je	 $LN89@LoadInt_e@7
  00098	80 f2 ea	 xor	 dl, -22			; ffffffeaH
  0009b	88 55 e7	 mov	 BYTE PTR __k$[ebp+7], dl
  0009e	8a 50 08	 mov	 dl, BYTE PTR [eax+8]
  000a1	84 d2		 test	 dl, dl
  000a3	0f 84 41 01 00
	00		 je	 $LN88@LoadInt_e@7
  000a9	80 f2 ed	 xor	 dl, -19			; ffffffedH
  000ac	88 55 e8	 mov	 BYTE PTR __k$[ebp+8], dl
  000af	8a 50 09	 mov	 dl, BYTE PTR [eax+9]
  000b2	84 d2		 test	 dl, dl
  000b4	0f 84 2b 01 00
	00		 je	 $LN87@LoadInt_e@7
  000ba	32 d1		 xor	 dl, cl
  000bc	88 55 e9	 mov	 BYTE PTR __k$[ebp+9], dl
  000bf	8a 50 0a	 mov	 dl, BYTE PTR [eax+10]
  000c2	84 d2		 test	 dl, dl
  000c4	0f 84 16 01 00
	00		 je	 $LN86@LoadInt_e@7
  000ca	32 d3		 xor	 dl, bl
  000cc	88 55 ea	 mov	 BYTE PTR __k$[ebp+10], dl
  000cf	8a 50 0b	 mov	 dl, BYTE PTR [eax+11]
  000d2	84 d2		 test	 dl, dl
  000d4	0f 84 00 01 00
	00		 je	 $LN85@LoadInt_e@7
  000da	80 f2 ea	 xor	 dl, -22			; ffffffeaH
  000dd	88 55 eb	 mov	 BYTE PTR __k$[ebp+11], dl
  000e0	8a 50 0c	 mov	 dl, BYTE PTR [eax+12]
  000e3	84 d2		 test	 dl, dl
  000e5	0f 84 e9 00 00
	00		 je	 $LN84@LoadInt_e@7
  000eb	80 f2 ed	 xor	 dl, -19			; ffffffedH
  000ee	88 55 ec	 mov	 BYTE PTR __k$[ebp+12], dl
  000f1	8a 50 0d	 mov	 dl, BYTE PTR [eax+13]
  000f4	84 d2		 test	 dl, dl
  000f6	0f 84 d3 00 00
	00		 je	 $LN83@LoadInt_e@7
  000fc	32 d1		 xor	 dl, cl
  000fe	88 55 ed	 mov	 BYTE PTR __k$[ebp+13], dl
  00101	8a 50 0e	 mov	 dl, BYTE PTR [eax+14]
  00104	84 d2		 test	 dl, dl
  00106	0f 84 be 00 00
	00		 je	 $LN82@LoadInt_e@7
  0010c	32 d3		 xor	 dl, bl
  0010e	88 55 ee	 mov	 BYTE PTR __k$[ebp+14], dl
  00111	8a 50 0f	 mov	 dl, BYTE PTR [eax+15]
  00114	84 d2		 test	 dl, dl
  00116	0f 84 a8 00 00
	00		 je	 $LN81@LoadInt_e@7
  0011c	80 f2 ea	 xor	 dl, -22			; ffffffeaH
  0011f	88 55 ef	 mov	 BYTE PTR __k$[ebp+15], dl
  00122	8a 50 10	 mov	 dl, BYTE PTR [eax+16]
  00125	84 d2		 test	 dl, dl
  00127	0f 84 91 00 00
	00		 je	 $LN80@LoadInt_e@7
  0012d	80 f2 ed	 xor	 dl, -19			; ffffffedH
  00130	88 55 f0	 mov	 BYTE PTR __k$[ebp+16], dl
  00133	8a 50 11	 mov	 dl, BYTE PTR [eax+17]
  00136	84 d2		 test	 dl, dl
  00138	74 7f		 je	 SHORT $LN79@LoadInt_e@7
  0013a	32 d1		 xor	 dl, cl
  0013c	88 55 f1	 mov	 BYTE PTR __k$[ebp+17], dl
  0013f	8a 50 12	 mov	 dl, BYTE PTR [eax+18]
  00142	84 d2		 test	 dl, dl
  00144	74 6e		 je	 SHORT $LN78@LoadInt_e@7
  00146	32 d3		 xor	 dl, bl
  00148	88 55 f2	 mov	 BYTE PTR __k$[ebp+18], dl
  0014b	8a 50 13	 mov	 dl, BYTE PTR [eax+19]
  0014e	84 d2		 test	 dl, dl
  00150	74 5c		 je	 SHORT $LN77@LoadInt_e@7
  00152	80 f2 ea	 xor	 dl, -22			; ffffffeaH
  00155	80 78 14 00	 cmp	 BYTE PTR [eax+20], 0
  00159	88 55 f3	 mov	 BYTE PTR __k$[ebp+19], dl
  0015c	0f 84 ba 00 00
	00		 je	 $LN1@LoadInt_e@7
  00162	8a 50 15	 mov	 dl, BYTE PTR [eax+21]
  00165	84 d2		 test	 dl, dl
  00167	74 40		 je	 SHORT $LN75@LoadInt_e@7
  00169	32 d1		 xor	 dl, cl
  0016b	88 55 f5	 mov	 BYTE PTR __k$[ebp+21], dl
  0016e	8a 50 16	 mov	 dl, BYTE PTR [eax+22]
  00171	84 d2		 test	 dl, dl
  00173	74 2f		 je	 SHORT $LN74@LoadInt_e@7
  00175	32 d3		 xor	 dl, bl
  00177	88 55 f6	 mov	 BYTE PTR __k$[ebp+22], dl
  0017a	8a 50 17	 mov	 dl, BYTE PTR [eax+23]
  0017d	84 d2		 test	 dl, dl
  0017f	74 1d		 je	 SHORT $LN73@LoadInt_e@7
  00181	8a 40 18	 mov	 al, BYTE PTR [eax+24]
  00184	80 f2 ea	 xor	 dl, -22			; ffffffeaH
  00187	88 55 f7	 mov	 BYTE PTR __k$[ebp+23], dl
  0018a	84 c0		 test	 al, al
  0018c	74 0a		 je	 SHORT $LN72@LoadInt_e@7
  0018e	34 ed		 xor	 al, -19			; ffffffedH
  00190	88 45 f8	 mov	 BYTE PTR __k$[ebp+24], al
  00193	e9 84 00 00 00	 jmp	 $LN1@LoadInt_e@7
$LN72@LoadInt_e@7:
  00198	c6 45 f8 ed	 mov	 BYTE PTR __k$[ebp+24], -19 ; ffffffedH
  0019c	eb 7e		 jmp	 SHORT $LN1@LoadInt_e@7
$LN73@LoadInt_e@7:
  0019e	c6 45 f7 ea	 mov	 BYTE PTR __k$[ebp+23], -22 ; ffffffeaH
  001a2	eb 78		 jmp	 SHORT $LN1@LoadInt_e@7
$LN74@LoadInt_e@7:
  001a4	88 5d f6	 mov	 BYTE PTR __k$[ebp+22], bl
  001a7	eb 73		 jmp	 SHORT $LN1@LoadInt_e@7
$LN75@LoadInt_e@7:
  001a9	88 4d f5	 mov	 BYTE PTR __k$[ebp+21], cl
  001ac	eb 6e		 jmp	 SHORT $LN1@LoadInt_e@7
$LN77@LoadInt_e@7:
  001ae	c6 45 f3 ea	 mov	 BYTE PTR __k$[ebp+19], -22 ; ffffffeaH
  001b2	eb 68		 jmp	 SHORT $LN1@LoadInt_e@7
$LN78@LoadInt_e@7:
  001b4	88 5d f2	 mov	 BYTE PTR __k$[ebp+18], bl
  001b7	eb 63		 jmp	 SHORT $LN1@LoadInt_e@7
$LN79@LoadInt_e@7:
  001b9	88 4d f1	 mov	 BYTE PTR __k$[ebp+17], cl
  001bc	eb 5e		 jmp	 SHORT $LN1@LoadInt_e@7
$LN80@LoadInt_e@7:
  001be	c6 45 f0 ed	 mov	 BYTE PTR __k$[ebp+16], -19 ; ffffffedH
  001c2	eb 58		 jmp	 SHORT $LN1@LoadInt_e@7
$LN81@LoadInt_e@7:
  001c4	c6 45 ef ea	 mov	 BYTE PTR __k$[ebp+15], -22 ; ffffffeaH
  001c8	eb 52		 jmp	 SHORT $LN1@LoadInt_e@7
$LN82@LoadInt_e@7:
  001ca	88 5d ee	 mov	 BYTE PTR __k$[ebp+14], bl
  001cd	eb 4d		 jmp	 SHORT $LN1@LoadInt_e@7
$LN83@LoadInt_e@7:
  001cf	88 4d ed	 mov	 BYTE PTR __k$[ebp+13], cl
  001d2	eb 48		 jmp	 SHORT $LN1@LoadInt_e@7
$LN84@LoadInt_e@7:
  001d4	c6 45 ec ed	 mov	 BYTE PTR __k$[ebp+12], -19 ; ffffffedH
  001d8	eb 42		 jmp	 SHORT $LN1@LoadInt_e@7
$LN85@LoadInt_e@7:
  001da	c6 45 eb ea	 mov	 BYTE PTR __k$[ebp+11], -22 ; ffffffeaH
  001de	eb 3c		 jmp	 SHORT $LN1@LoadInt_e@7
$LN86@LoadInt_e@7:
  001e0	88 5d ea	 mov	 BYTE PTR __k$[ebp+10], bl
  001e3	eb 37		 jmp	 SHORT $LN1@LoadInt_e@7
$LN87@LoadInt_e@7:
  001e5	88 4d e9	 mov	 BYTE PTR __k$[ebp+9], cl
  001e8	eb 32		 jmp	 SHORT $LN1@LoadInt_e@7
$LN88@LoadInt_e@7:
  001ea	c6 45 e8 ed	 mov	 BYTE PTR __k$[ebp+8], -19 ; ffffffedH
  001ee	eb 2c		 jmp	 SHORT $LN1@LoadInt_e@7
$LN89@LoadInt_e@7:
  001f0	c6 45 e7 ea	 mov	 BYTE PTR __k$[ebp+7], -22 ; ffffffeaH
  001f4	eb 26		 jmp	 SHORT $LN1@LoadInt_e@7
$LN90@LoadInt_e@7:
  001f6	88 5d e6	 mov	 BYTE PTR __k$[ebp+6], bl
  001f9	eb 21		 jmp	 SHORT $LN1@LoadInt_e@7
$LN91@LoadInt_e@7:
  001fb	88 4d e5	 mov	 BYTE PTR __k$[ebp+5], cl
  001fe	eb 1c		 jmp	 SHORT $LN1@LoadInt_e@7
$LN92@LoadInt_e@7:
  00200	c6 45 e4 ed	 mov	 BYTE PTR __k$[ebp+4], -19 ; ffffffedH
  00204	eb 16		 jmp	 SHORT $LN1@LoadInt_e@7
$LN93@LoadInt_e@7:
  00206	c6 45 e3 ea	 mov	 BYTE PTR __k$[ebp+3], -22 ; ffffffeaH
  0020a	eb 10		 jmp	 SHORT $LN1@LoadInt_e@7
$LN94@LoadInt_e@7:
  0020c	c6 45 e2 eb	 mov	 BYTE PTR __k$[ebp+2], -21 ; ffffffebH
  00210	eb 0a		 jmp	 SHORT $LN1@LoadInt_e@7
$LN95@LoadInt_e@7:
  00212	c6 45 e1 ec	 mov	 BYTE PTR __k$[ebp+1], -20 ; ffffffecH
  00216	eb 04		 jmp	 SHORT $LN1@LoadInt_e@7
$LN96@LoadInt_e@7:
  00218	c6 45 e0 ed	 mov	 BYTE PTR __k$[ebp], -19	; ffffffedH
$LN1@LoadInt_e@7:
  0021c	6a 05		 push	 5
  0021e	8d 45 e0	 lea	 eax, DWORD PTR __k$[ebp]
  00221	c6 45 f4 00	 mov	 BYTE PTR __k$[ebp+20], 0
  00225	5a		 pop	 edx
$LL104@LoadInt_e@7:
  00226	81 30 ed ec eb
	ea		 xor	 DWORD PTR [eax], -353637139 ; eaebecedH
  0022c	83 c0 04	 add	 eax, 4
  0022f	4a		 dec	 edx
  00230	75 f4		 jne	 SHORT $LL104@LoadInt_e@7

; 120  : 		return LoadInt(_k, i);

  00232	ff 75 0c	 push	 DWORD PTR _i$[ebp]
  00235	8d 45 e0	 lea	 eax, DWORD PTR __k$[ebp]
  00238	50		 push	 eax
  00239	8b ce		 mov	 ecx, esi
  0023b	ff 15 00 00 00
	00		 call	 DWORD PTR __imp_?LoadInt@ioINILoader@@QAEHPBDH@Z

; 121  : 	}

  00241	8b 4d fc	 mov	 ecx, DWORD PTR __$ArrayPad$[ebp]
  00244	5e		 pop	 esi
  00245	33 cd		 xor	 ecx, ebp
  00247	5b		 pop	 ebx
  00248	e8 00 00 00 00	 call	 @__security_check_cookie@4
  0024d	c9		 leave
  0024e	c2 08 00	 ret	 8
??$LoadInt_e@$0BF@@ioINILoader@@QAEHAAY0BF@$$CBDH@Z ENDP ; ioINILoader::LoadInt_e<21>
_TEXT	ENDS
PUBLIC	__$ArrayPad$
PUBLIC	??$LoadInt_e@$0BE@@ioINILoader@@QAEHAAY0BE@$$CBDH@Z ; ioINILoader::LoadInt_e<20>
; Function compile flags: /Ogsp
;	COMDAT ??$LoadInt_e@$0BE@@ioINILoader@@QAEHAAY0BE@$$CBDH@Z
_TEXT	SEGMENT
__k$ = -28						; size = 20
__$ArrayPad$ = -4					; size = 4
_k$ = 8							; size = 4
_i$ = 12						; size = 4
??$LoadInt_e@$0BE@@ioINILoader@@QAEHAAY0BE@$$CBDH@Z PROC ; ioINILoader::LoadInt_e<20>, COMDAT
; _this$ = ecx

; 118  : 	{

  00000	55		 push	 ebp
  00001	8b ec		 mov	 ebp, esp
  00003	83 ec 1c	 sub	 esp, 28			; 0000001cH
  00006	a1 00 00 00 00	 mov	 eax, DWORD PTR ___security_cookie
  0000b	33 c5		 xor	 eax, ebp
  0000d	89 45 fc	 mov	 DWORD PTR __$ArrayPad$[ebp], eax
  00010	8b 45 08	 mov	 eax, DWORD PTR _k$[ebp]

; 119  : 		_ENCSTR(k, _k);

  00013	8a 10		 mov	 dl, BYTE PTR [eax]
  00015	53		 push	 ebx
  00016	56		 push	 esi
  00017	8b f1		 mov	 esi, ecx
  00019	84 d2		 test	 dl, dl
  0001b	0f 84 dd 01 00
	00		 je	 $LN96@LoadInt_e@8
  00021	80 f2 ed	 xor	 dl, -19			; ffffffedH
  00024	88 55 e4	 mov	 BYTE PTR __k$[ebp], dl
  00027	8a 50 01	 mov	 dl, BYTE PTR [eax+1]
  0002a	84 d2		 test	 dl, dl
  0002c	0f 84 c6 01 00
	00		 je	 $LN95@LoadInt_e@8
  00032	b3 ec		 mov	 bl, -20			; ffffffecH
  00034	32 d3		 xor	 dl, bl
  00036	88 55 e5	 mov	 BYTE PTR __k$[ebp+1], dl
  00039	8a 50 02	 mov	 dl, BYTE PTR [eax+2]
  0003c	84 d2		 test	 dl, dl
  0003e	0f 84 ae 01 00
	00		 je	 $LN94@LoadInt_e@8
  00044	b1 eb		 mov	 cl, -21			; ffffffebH
  00046	32 d1		 xor	 dl, cl
  00048	88 55 e6	 mov	 BYTE PTR __k$[ebp+2], dl
  0004b	8a 50 03	 mov	 dl, BYTE PTR [eax+3]
  0004e	84 d2		 test	 dl, dl
  00050	0f 84 96 01 00
	00		 je	 $LN93@LoadInt_e@8
  00056	80 f2 ea	 xor	 dl, -22			; ffffffeaH
  00059	88 55 e7	 mov	 BYTE PTR __k$[ebp+3], dl
  0005c	8a 50 04	 mov	 dl, BYTE PTR [eax+4]
  0005f	84 d2		 test	 dl, dl
  00061	0f 84 7f 01 00
	00		 je	 $LN92@LoadInt_e@8
  00067	80 f2 ed	 xor	 dl, -19			; ffffffedH
  0006a	88 55 e8	 mov	 BYTE PTR __k$[ebp+4], dl
  0006d	8a 50 05	 mov	 dl, BYTE PTR [eax+5]
  00070	84 d2		 test	 dl, dl
  00072	0f 84 69 01 00
	00		 je	 $LN91@LoadInt_e@8
  00078	32 d3		 xor	 dl, bl
  0007a	88 55 e9	 mov	 BYTE PTR __k$[ebp+5], dl
  0007d	8a 50 06	 mov	 dl, BYTE PTR [eax+6]
  00080	84 d2		 test	 dl, dl
  00082	0f 84 54 01 00
	00		 je	 $LN90@LoadInt_e@8
  00088	32 d1		 xor	 dl, cl
  0008a	88 55 ea	 mov	 BYTE PTR __k$[ebp+6], dl
  0008d	8a 50 07	 mov	 dl, BYTE PTR [eax+7]
  00090	84 d2		 test	 dl, dl
  00092	0f 84 3e 01 00
	00		 je	 $LN89@LoadInt_e@8
  00098	80 f2 ea	 xor	 dl, -22			; ffffffeaH
  0009b	88 55 eb	 mov	 BYTE PTR __k$[ebp+7], dl
  0009e	8a 50 08	 mov	 dl, BYTE PTR [eax+8]
  000a1	84 d2		 test	 dl, dl
  000a3	0f 84 27 01 00
	00		 je	 $LN88@LoadInt_e@8
  000a9	80 f2 ed	 xor	 dl, -19			; ffffffedH
  000ac	88 55 ec	 mov	 BYTE PTR __k$[ebp+8], dl
  000af	8a 50 09	 mov	 dl, BYTE PTR [eax+9]
  000b2	84 d2		 test	 dl, dl
  000b4	0f 84 11 01 00
	00		 je	 $LN87@LoadInt_e@8
  000ba	32 d3		 xor	 dl, bl
  000bc	88 55 ed	 mov	 BYTE PTR __k$[ebp+9], dl
  000bf	8a 50 0a	 mov	 dl, BYTE PTR [eax+10]
  000c2	84 d2		 test	 dl, dl
  000c4	0f 84 fc 00 00
	00		 je	 $LN86@LoadInt_e@8
  000ca	32 d1		 xor	 dl, cl
  000cc	88 55 ee	 mov	 BYTE PTR __k$[ebp+10], dl
  000cf	8a 50 0b	 mov	 dl, BYTE PTR [eax+11]
  000d2	84 d2		 test	 dl, dl
  000d4	0f 84 e6 00 00
	00		 je	 $LN85@LoadInt_e@8
  000da	80 f2 ea	 xor	 dl, -22			; ffffffeaH
  000dd	88 55 ef	 mov	 BYTE PTR __k$[ebp+11], dl
  000e0	8a 50 0c	 mov	 dl, BYTE PTR [eax+12]
  000e3	84 d2		 test	 dl, dl
  000e5	0f 84 cf 00 00
	00		 je	 $LN84@LoadInt_e@8
  000eb	80 f2 ed	 xor	 dl, -19			; ffffffedH
  000ee	88 55 f0	 mov	 BYTE PTR __k$[ebp+12], dl
  000f1	8a 50 0d	 mov	 dl, BYTE PTR [eax+13]
  000f4	84 d2		 test	 dl, dl
  000f6	0f 84 b9 00 00
	00		 je	 $LN83@LoadInt_e@8
  000fc	32 d3		 xor	 dl, bl
  000fe	88 55 f1	 mov	 BYTE PTR __k$[ebp+13], dl
  00101	8a 50 0e	 mov	 dl, BYTE PTR [eax+14]
  00104	84 d2		 test	 dl, dl
  00106	0f 84 a4 00 00
	00		 je	 $LN82@LoadInt_e@8
  0010c	32 d1		 xor	 dl, cl
  0010e	88 55 f2	 mov	 BYTE PTR __k$[ebp+14], dl
  00111	8a 50 0f	 mov	 dl, BYTE PTR [eax+15]
  00114	84 d2		 test	 dl, dl
  00116	0f 84 8e 00 00
	00		 je	 $LN81@LoadInt_e@8
  0011c	80 f2 ea	 xor	 dl, -22			; ffffffeaH
  0011f	88 55 f3	 mov	 BYTE PTR __k$[ebp+15], dl
  00122	8a 50 10	 mov	 dl, BYTE PTR [eax+16]
  00125	84 d2		 test	 dl, dl
  00127	74 7b		 je	 SHORT $LN80@LoadInt_e@8
  00129	80 f2 ed	 xor	 dl, -19			; ffffffedH
  0012c	88 55 f4	 mov	 BYTE PTR __k$[ebp+16], dl
  0012f	8a 50 11	 mov	 dl, BYTE PTR [eax+17]
  00132	84 d2		 test	 dl, dl
  00134	74 69		 je	 SHORT $LN79@LoadInt_e@8
  00136	32 d3		 xor	 dl, bl
  00138	88 55 f5	 mov	 BYTE PTR __k$[ebp+17], dl
  0013b	8a 50 12	 mov	 dl, BYTE PTR [eax+18]
  0013e	84 d2		 test	 dl, dl
  00140	74 58		 je	 SHORT $LN78@LoadInt_e@8
  00142	32 d1		 xor	 dl, cl
  00144	80 78 13 00	 cmp	 BYTE PTR [eax+19], 0
  00148	88 55 f6	 mov	 BYTE PTR __k$[ebp+18], dl
  0014b	0f 84 b1 00 00
	00		 je	 $LN1@LoadInt_e@8
  00151	8a 50 14	 mov	 dl, BYTE PTR [eax+20]
  00154	84 d2		 test	 dl, dl
  00156	74 3c		 je	 SHORT $LN76@LoadInt_e@8
  00158	80 f2 ed	 xor	 dl, -19			; ffffffedH
  0015b	88 55 f8	 mov	 BYTE PTR __k$[ebp+20], dl
  0015e	8a 50 15	 mov	 dl, BYTE PTR [eax+21]
  00161	84 d2		 test	 dl, dl
  00163	74 2a		 je	 SHORT $LN75@LoadInt_e@8
  00165	32 d3		 xor	 dl, bl
  00167	88 55 f9	 mov	 BYTE PTR __k$[ebp+21], dl
  0016a	8a 50 16	 mov	 dl, BYTE PTR [eax+22]
  0016d	84 d2		 test	 dl, dl
  0016f	74 19		 je	 SHORT $LN74@LoadInt_e@8
  00171	8a 40 17	 mov	 al, BYTE PTR [eax+23]
  00174	32 d1		 xor	 dl, cl
  00176	88 55 fa	 mov	 BYTE PTR __k$[ebp+22], dl
  00179	84 c0		 test	 al, al
  0017b	74 07		 je	 SHORT $LN73@LoadInt_e@8
  0017d	34 ea		 xor	 al, -22			; ffffffeaH
  0017f	88 45 fb	 mov	 BYTE PTR __k$[ebp+23], al
  00182	eb 7e		 jmp	 SHORT $LN1@LoadInt_e@8
$LN73@LoadInt_e@8:
  00184	c6 45 fb ea	 mov	 BYTE PTR __k$[ebp+23], -22 ; ffffffeaH
  00188	eb 78		 jmp	 SHORT $LN1@LoadInt_e@8
$LN74@LoadInt_e@8:
  0018a	88 4d fa	 mov	 BYTE PTR __k$[ebp+22], cl
  0018d	eb 73		 jmp	 SHORT $LN1@LoadInt_e@8
$LN75@LoadInt_e@8:
  0018f	88 5d f9	 mov	 BYTE PTR __k$[ebp+21], bl
  00192	eb 6e		 jmp	 SHORT $LN1@LoadInt_e@8
$LN76@LoadInt_e@8:
  00194	c6 45 f8 ed	 mov	 BYTE PTR __k$[ebp+20], -19 ; ffffffedH
  00198	eb 68		 jmp	 SHORT $LN1@LoadInt_e@8
$LN78@LoadInt_e@8:
  0019a	88 4d f6	 mov	 BYTE PTR __k$[ebp+18], cl
  0019d	eb 63		 jmp	 SHORT $LN1@LoadInt_e@8
$LN79@LoadInt_e@8:
  0019f	88 5d f5	 mov	 BYTE PTR __k$[ebp+17], bl
  001a2	eb 5e		 jmp	 SHORT $LN1@LoadInt_e@8
$LN80@LoadInt_e@8:
  001a4	c6 45 f4 ed	 mov	 BYTE PTR __k$[ebp+16], -19 ; ffffffedH
  001a8	eb 58		 jmp	 SHORT $LN1@LoadInt_e@8
$LN81@LoadInt_e@8:
  001aa	c6 45 f3 ea	 mov	 BYTE PTR __k$[ebp+15], -22 ; ffffffeaH
  001ae	eb 52		 jmp	 SHORT $LN1@LoadInt_e@8
$LN82@LoadInt_e@8:
  001b0	88 4d f2	 mov	 BYTE PTR __k$[ebp+14], cl
  001b3	eb 4d		 jmp	 SHORT $LN1@LoadInt_e@8
$LN83@LoadInt_e@8:
  001b5	88 5d f1	 mov	 BYTE PTR __k$[ebp+13], bl
  001b8	eb 48		 jmp	 SHORT $LN1@LoadInt_e@8
$LN84@LoadInt_e@8:
  001ba	c6 45 f0 ed	 mov	 BYTE PTR __k$[ebp+12], -19 ; ffffffedH
  001be	eb 42		 jmp	 SHORT $LN1@LoadInt_e@8
$LN85@LoadInt_e@8:
  001c0	c6 45 ef ea	 mov	 BYTE PTR __k$[ebp+11], -22 ; ffffffeaH
  001c4	eb 3c		 jmp	 SHORT $LN1@LoadInt_e@8
$LN86@LoadInt_e@8:
  001c6	88 4d ee	 mov	 BYTE PTR __k$[ebp+10], cl
  001c9	eb 37		 jmp	 SHORT $LN1@LoadInt_e@8
$LN87@LoadInt_e@8:
  001cb	88 5d ed	 mov	 BYTE PTR __k$[ebp+9], bl
  001ce	eb 32		 jmp	 SHORT $LN1@LoadInt_e@8
$LN88@LoadInt_e@8:
  001d0	c6 45 ec ed	 mov	 BYTE PTR __k$[ebp+8], -19 ; ffffffedH
  001d4	eb 2c		 jmp	 SHORT $LN1@LoadInt_e@8
$LN89@LoadInt_e@8:
  001d6	c6 45 eb ea	 mov	 BYTE PTR __k$[ebp+7], -22 ; ffffffeaH
  001da	eb 26		 jmp	 SHORT $LN1@LoadInt_e@8
$LN90@LoadInt_e@8:
  001dc	88 4d ea	 mov	 BYTE PTR __k$[ebp+6], cl
  001df	eb 21		 jmp	 SHORT $LN1@LoadInt_e@8
$LN91@LoadInt_e@8:
  001e1	88 5d e9	 mov	 BYTE PTR __k$[ebp+5], bl
  001e4	eb 1c		 jmp	 SHORT $LN1@LoadInt_e@8
$LN92@LoadInt_e@8:
  001e6	c6 45 e8 ed	 mov	 BYTE PTR __k$[ebp+4], -19 ; ffffffedH
  001ea	eb 16		 jmp	 SHORT $LN1@LoadInt_e@8
$LN93@LoadInt_e@8:
  001ec	c6 45 e7 ea	 mov	 BYTE PTR __k$[ebp+3], -22 ; ffffffeaH
  001f0	eb 10		 jmp	 SHORT $LN1@LoadInt_e@8
$LN94@LoadInt_e@8:
  001f2	c6 45 e6 eb	 mov	 BYTE PTR __k$[ebp+2], -21 ; ffffffebH
  001f6	eb 0a		 jmp	 SHORT $LN1@LoadInt_e@8
$LN95@LoadInt_e@8:
  001f8	c6 45 e5 ec	 mov	 BYTE PTR __k$[ebp+1], -20 ; ffffffecH
  001fc	eb 04		 jmp	 SHORT $LN1@LoadInt_e@8
$LN96@LoadInt_e@8:
  001fe	c6 45 e4 ed	 mov	 BYTE PTR __k$[ebp], -19	; ffffffedH
$LN1@LoadInt_e@8:
  00202	6a 04		 push	 4
  00204	8d 45 e4	 lea	 eax, DWORD PTR __k$[ebp]
  00207	c6 45 f7 00	 mov	 BYTE PTR __k$[ebp+19], 0
  0020b	5a		 pop	 edx
$LL104@LoadInt_e@8:
  0020c	81 30 ed ec eb
	ea		 xor	 DWORD PTR [eax], -353637139 ; eaebecedH
  00212	83 c0 04	 add	 eax, 4
  00215	4a		 dec	 edx
  00216	75 f4		 jne	 SHORT $LL104@LoadInt_e@8
  00218	6a 10		 push	 16			; 00000010H
  0021a	58		 pop	 eax
$LL101@LoadInt_e@8:
  0021b	8b c8		 mov	 ecx, eax
  0021d	81 e1 03 00 00
	80		 and	 ecx, -2147483645	; 80000003H
  00223	79 05		 jns	 SHORT $LN111@LoadInt_e@8
  00225	49		 dec	 ecx
  00226	83 c9 fc	 or	 ecx, -4			; fffffffcH
  00229	41		 inc	 ecx
$LN111@LoadInt_e@8:
  0022a	b2 ed		 mov	 dl, -19			; ffffffedH
  0022c	2a d1		 sub	 dl, cl
  0022e	30 54 05 e4	 xor	 BYTE PTR __k$[ebp+eax], dl
  00232	40		 inc	 eax
  00233	83 f8 13	 cmp	 eax, 19			; 00000013H
  00236	7c e3		 jl	 SHORT $LL101@LoadInt_e@8

; 120  : 		return LoadInt(_k, i);

  00238	ff 75 0c	 push	 DWORD PTR _i$[ebp]
  0023b	8d 45 e4	 lea	 eax, DWORD PTR __k$[ebp]
  0023e	50		 push	 eax
  0023f	8b ce		 mov	 ecx, esi
  00241	ff 15 00 00 00
	00		 call	 DWORD PTR __imp_?LoadInt@ioINILoader@@QAEHPBDH@Z

; 121  : 	}

  00247	8b 4d fc	 mov	 ecx, DWORD PTR __$ArrayPad$[ebp]
  0024a	5e		 pop	 esi
  0024b	33 cd		 xor	 ecx, ebp
  0024d	5b		 pop	 ebx
  0024e	e8 00 00 00 00	 call	 @__security_check_cookie@4
  00253	c9		 leave
  00254	c2 08 00	 ret	 8
??$LoadInt_e@$0BE@@ioINILoader@@QAEHAAY0BE@$$CBDH@Z ENDP ; ioINILoader::LoadInt_e<20>
_TEXT	ENDS
PUBLIC	__$ArrayPad$
PUBLIC	??$SetTitle_e@$0N@@ioINILoader@@QAEXAAY0N@$$CBD@Z ; ioINILoader::SetTitle_e<13>
; Function compile flags: /Ogsp
;	COMDAT ??$SetTitle_e@$0N@@ioINILoader@@QAEXAAY0N@$$CBD@Z
_TEXT	SEGMENT
__t$ = -24						; size = 13
__$ArrayPad$ = -4					; size = 4
_t$ = 8							; size = 4
??$SetTitle_e@$0N@@ioINILoader@@QAEXAAY0N@$$CBD@Z PROC	; ioINILoader::SetTitle_e<13>, COMDAT
; _this$ = ecx

; 188  : 	{

  00000	55		 push	 ebp
  00001	8b ec		 mov	 ebp, esp
  00003	83 ec 18	 sub	 esp, 24			; 00000018H
  00006	a1 00 00 00 00	 mov	 eax, DWORD PTR ___security_cookie
  0000b	33 c5		 xor	 eax, ebp
  0000d	89 45 fc	 mov	 DWORD PTR __$ArrayPad$[ebp], eax
  00010	8b 45 08	 mov	 eax, DWORD PTR _t$[ebp]

; 189  : 		_ENCSTR(t, _t);

  00013	8a 10		 mov	 dl, BYTE PTR [eax]
  00015	56		 push	 esi
  00016	8b f1		 mov	 esi, ecx
  00018	84 d2		 test	 dl, dl
  0001a	0f 84 4d 01 00
	00		 je	 $LN96@SetTitle_e@2
  00020	80 f2 ed	 xor	 dl, -19			; ffffffedH
  00023	88 55 e8	 mov	 BYTE PTR __t$[ebp], dl
  00026	8a 50 01	 mov	 dl, BYTE PTR [eax+1]
  00029	84 d2		 test	 dl, dl
  0002b	0f 84 36 01 00
	00		 je	 $LN95@SetTitle_e@2
  00031	b1 ec		 mov	 cl, -20			; ffffffecH
  00033	32 d1		 xor	 dl, cl
  00035	88 55 e9	 mov	 BYTE PTR __t$[ebp+1], dl
  00038	8a 50 02	 mov	 dl, BYTE PTR [eax+2]
  0003b	84 d2		 test	 dl, dl
  0003d	0f 84 1e 01 00
	00		 je	 $LN94@SetTitle_e@2
  00043	80 f2 eb	 xor	 dl, -21			; ffffffebH
  00046	88 55 ea	 mov	 BYTE PTR __t$[ebp+2], dl
  00049	8a 50 03	 mov	 dl, BYTE PTR [eax+3]
  0004c	84 d2		 test	 dl, dl
  0004e	0f 84 07 01 00
	00		 je	 $LN93@SetTitle_e@2
  00054	80 f2 ea	 xor	 dl, -22			; ffffffeaH
  00057	88 55 eb	 mov	 BYTE PTR __t$[ebp+3], dl
  0005a	8a 50 04	 mov	 dl, BYTE PTR [eax+4]
  0005d	84 d2		 test	 dl, dl
  0005f	0f 84 f0 00 00
	00		 je	 $LN92@SetTitle_e@2
  00065	80 f2 ed	 xor	 dl, -19			; ffffffedH
  00068	88 55 ec	 mov	 BYTE PTR __t$[ebp+4], dl
  0006b	8a 50 05	 mov	 dl, BYTE PTR [eax+5]
  0006e	84 d2		 test	 dl, dl
  00070	0f 84 da 00 00
	00		 je	 $LN91@SetTitle_e@2
  00076	32 d1		 xor	 dl, cl
  00078	88 55 ed	 mov	 BYTE PTR __t$[ebp+5], dl
  0007b	8a 50 06	 mov	 dl, BYTE PTR [eax+6]
  0007e	84 d2		 test	 dl, dl
  00080	0f 84 c4 00 00
	00		 je	 $LN90@SetTitle_e@2
  00086	80 f2 eb	 xor	 dl, -21			; ffffffebH
  00089	88 55 ee	 mov	 BYTE PTR __t$[ebp+6], dl
  0008c	8a 50 07	 mov	 dl, BYTE PTR [eax+7]
  0008f	84 d2		 test	 dl, dl
  00091	0f 84 ad 00 00
	00		 je	 $LN89@SetTitle_e@2
  00097	80 f2 ea	 xor	 dl, -22			; ffffffeaH
  0009a	88 55 ef	 mov	 BYTE PTR __t$[ebp+7], dl
  0009d	8a 50 08	 mov	 dl, BYTE PTR [eax+8]
  000a0	84 d2		 test	 dl, dl
  000a2	0f 84 96 00 00
	00		 je	 $LN88@SetTitle_e@2
  000a8	80 f2 ed	 xor	 dl, -19			; ffffffedH
  000ab	88 55 f0	 mov	 BYTE PTR __t$[ebp+8], dl
  000ae	8a 50 09	 mov	 dl, BYTE PTR [eax+9]
  000b1	84 d2		 test	 dl, dl
  000b3	0f 84 80 00 00
	00		 je	 $LN87@SetTitle_e@2
  000b9	32 d1		 xor	 dl, cl
  000bb	88 55 f1	 mov	 BYTE PTR __t$[ebp+9], dl
  000be	8a 50 0a	 mov	 dl, BYTE PTR [eax+10]
  000c1	84 d2		 test	 dl, dl
  000c3	74 6e		 je	 SHORT $LN86@SetTitle_e@2
  000c5	80 f2 eb	 xor	 dl, -21			; ffffffebH
  000c8	88 55 f2	 mov	 BYTE PTR __t$[ebp+10], dl
  000cb	8a 50 0b	 mov	 dl, BYTE PTR [eax+11]
  000ce	84 d2		 test	 dl, dl
  000d0	74 5b		 je	 SHORT $LN85@SetTitle_e@2
  000d2	80 f2 ea	 xor	 dl, -22			; ffffffeaH
  000d5	80 78 0c 00	 cmp	 BYTE PTR [eax+12], 0
  000d9	88 55 f3	 mov	 BYTE PTR __t$[ebp+11], dl
  000dc	0f 84 8f 00 00
	00		 je	 $LN1@SetTitle_e@2
  000e2	8a 50 0d	 mov	 dl, BYTE PTR [eax+13]
  000e5	84 d2		 test	 dl, dl
  000e7	74 3f		 je	 SHORT $LN83@SetTitle_e@2
  000e9	32 d1		 xor	 dl, cl
  000eb	88 55 f5	 mov	 BYTE PTR __t$[ebp+13], dl
  000ee	8a 50 0e	 mov	 dl, BYTE PTR [eax+14]
  000f1	84 d2		 test	 dl, dl
  000f3	74 2d		 je	 SHORT $LN82@SetTitle_e@2
  000f5	80 f2 eb	 xor	 dl, -21			; ffffffebH
  000f8	88 55 f6	 mov	 BYTE PTR __t$[ebp+14], dl
  000fb	8a 50 0f	 mov	 dl, BYTE PTR [eax+15]
  000fe	84 d2		 test	 dl, dl
  00100	74 1a		 je	 SHORT $LN81@SetTitle_e@2
  00102	8a 40 10	 mov	 al, BYTE PTR [eax+16]
  00105	80 f2 ea	 xor	 dl, -22			; ffffffeaH
  00108	88 55 f7	 mov	 BYTE PTR __t$[ebp+15], dl
  0010b	84 c0		 test	 al, al
  0010d	74 07		 je	 SHORT $LN80@SetTitle_e@2
  0010f	34 ed		 xor	 al, -19			; ffffffedH
  00111	88 45 f8	 mov	 BYTE PTR __t$[ebp+16], al
  00114	eb 5b		 jmp	 SHORT $LN1@SetTitle_e@2
$LN80@SetTitle_e@2:
  00116	c6 45 f8 ed	 mov	 BYTE PTR __t$[ebp+16], -19 ; ffffffedH
  0011a	eb 55		 jmp	 SHORT $LN1@SetTitle_e@2
$LN81@SetTitle_e@2:
  0011c	c6 45 f7 ea	 mov	 BYTE PTR __t$[ebp+15], -22 ; ffffffeaH
  00120	eb 4f		 jmp	 SHORT $LN1@SetTitle_e@2
$LN82@SetTitle_e@2:
  00122	c6 45 f6 eb	 mov	 BYTE PTR __t$[ebp+14], -21 ; ffffffebH
  00126	eb 49		 jmp	 SHORT $LN1@SetTitle_e@2
$LN83@SetTitle_e@2:
  00128	88 4d f5	 mov	 BYTE PTR __t$[ebp+13], cl
  0012b	eb 44		 jmp	 SHORT $LN1@SetTitle_e@2
$LN85@SetTitle_e@2:
  0012d	c6 45 f3 ea	 mov	 BYTE PTR __t$[ebp+11], -22 ; ffffffeaH
  00131	eb 3e		 jmp	 SHORT $LN1@SetTitle_e@2
$LN86@SetTitle_e@2:
  00133	c6 45 f2 eb	 mov	 BYTE PTR __t$[ebp+10], -21 ; ffffffebH
  00137	eb 38		 jmp	 SHORT $LN1@SetTitle_e@2
$LN87@SetTitle_e@2:
  00139	88 4d f1	 mov	 BYTE PTR __t$[ebp+9], cl
  0013c	eb 33		 jmp	 SHORT $LN1@SetTitle_e@2
$LN88@SetTitle_e@2:
  0013e	c6 45 f0 ed	 mov	 BYTE PTR __t$[ebp+8], -19 ; ffffffedH
  00142	eb 2d		 jmp	 SHORT $LN1@SetTitle_e@2
$LN89@SetTitle_e@2:
  00144	c6 45 ef ea	 mov	 BYTE PTR __t$[ebp+7], -22 ; ffffffeaH
  00148	eb 27		 jmp	 SHORT $LN1@SetTitle_e@2
$LN90@SetTitle_e@2:
  0014a	c6 45 ee eb	 mov	 BYTE PTR __t$[ebp+6], -21 ; ffffffebH
  0014e	eb 21		 jmp	 SHORT $LN1@SetTitle_e@2
$LN91@SetTitle_e@2:
  00150	88 4d ed	 mov	 BYTE PTR __t$[ebp+5], cl
  00153	eb 1c		 jmp	 SHORT $LN1@SetTitle_e@2
$LN92@SetTitle_e@2:
  00155	c6 45 ec ed	 mov	 BYTE PTR __t$[ebp+4], -19 ; ffffffedH
  00159	eb 16		 jmp	 SHORT $LN1@SetTitle_e@2
$LN93@SetTitle_e@2:
  0015b	c6 45 eb ea	 mov	 BYTE PTR __t$[ebp+3], -22 ; ffffffeaH
  0015f	eb 10		 jmp	 SHORT $LN1@SetTitle_e@2
$LN94@SetTitle_e@2:
  00161	c6 45 ea eb	 mov	 BYTE PTR __t$[ebp+2], -21 ; ffffffebH
  00165	eb 0a		 jmp	 SHORT $LN1@SetTitle_e@2
$LN95@SetTitle_e@2:
  00167	c6 45 e9 ec	 mov	 BYTE PTR __t$[ebp+1], -20 ; ffffffecH
  0016b	eb 04		 jmp	 SHORT $LN1@SetTitle_e@2
$LN96@SetTitle_e@2:
  0016d	c6 45 e8 ed	 mov	 BYTE PTR __t$[ebp], -19	; ffffffedH
$LN1@SetTitle_e@2:
  00171	6a 03		 push	 3
  00173	8d 45 e8	 lea	 eax, DWORD PTR __t$[ebp]
  00176	c6 45 f4 00	 mov	 BYTE PTR __t$[ebp+12], 0
  0017a	5a		 pop	 edx
$LL104@SetTitle_e@2:
  0017b	81 30 ed ec eb
	ea		 xor	 DWORD PTR [eax], -353637139 ; eaebecedH
  00181	83 c0 04	 add	 eax, 4
  00184	4a		 dec	 edx
  00185	75 f4		 jne	 SHORT $LL104@SetTitle_e@2

; 190  : 		SetTitle(_t);

  00187	8d 45 e8	 lea	 eax, DWORD PTR __t$[ebp]
  0018a	50		 push	 eax
  0018b	8b ce		 mov	 ecx, esi
  0018d	ff 15 00 00 00
	00		 call	 DWORD PTR __imp_?SetTitle@ioINILoader@@QAEXPBD@Z

; 191  : 	}

  00193	8b 4d fc	 mov	 ecx, DWORD PTR __$ArrayPad$[ebp]
  00196	33 cd		 xor	 ecx, ebp
  00198	5e		 pop	 esi
  00199	e8 00 00 00 00	 call	 @__security_check_cookie@4
  0019e	c9		 leave
  0019f	c2 04 00	 ret	 4
??$SetTitle_e@$0N@@ioINILoader@@QAEXAAY0N@$$CBD@Z ENDP	; ioINILoader::SetTitle_e<13>
_TEXT	ENDS
PUBLIC	__$ArrayPad$
PUBLIC	??$LoadFloat_e@$0BE@@ioINILoader@@QAEMAAY0BE@$$CBDM@Z ; ioINILoader::LoadFloat_e<20>
; Function compile flags: /Ogsp
;	COMDAT ??$LoadFloat_e@$0BE@@ioINILoader@@QAEMAAY0BE@$$CBDM@Z
_TEXT	SEGMENT
__k$ = -28						; size = 20
__$ArrayPad$ = -4					; size = 4
_k$ = 8							; size = 4
_f$ = 12						; size = 4
??$LoadFloat_e@$0BE@@ioINILoader@@QAEMAAY0BE@$$CBDM@Z PROC ; ioINILoader::LoadFloat_e<20>, COMDAT
; _this$ = ecx

; 135  : 	{

  00000	55		 push	 ebp
  00001	8b ec		 mov	 ebp, esp
  00003	83 ec 1c	 sub	 esp, 28			; 0000001cH
  00006	a1 00 00 00 00	 mov	 eax, DWORD PTR ___security_cookie
  0000b	33 c5		 xor	 eax, ebp
  0000d	89 45 fc	 mov	 DWORD PTR __$ArrayPad$[ebp], eax
  00010	8b 45 08	 mov	 eax, DWORD PTR _k$[ebp]

; 136  : 		_ENCSTR(k, _k);

  00013	8a 10		 mov	 dl, BYTE PTR [eax]
  00015	53		 push	 ebx
  00016	56		 push	 esi
  00017	8b f1		 mov	 esi, ecx
  00019	84 d2		 test	 dl, dl
  0001b	0f 84 dd 01 00
	00		 je	 $LN96@LoadFloat_@5
  00021	80 f2 ed	 xor	 dl, -19			; ffffffedH
  00024	88 55 e4	 mov	 BYTE PTR __k$[ebp], dl
  00027	8a 50 01	 mov	 dl, BYTE PTR [eax+1]
  0002a	84 d2		 test	 dl, dl
  0002c	0f 84 c6 01 00
	00		 je	 $LN95@LoadFloat_@5
  00032	b3 ec		 mov	 bl, -20			; ffffffecH
  00034	32 d3		 xor	 dl, bl
  00036	88 55 e5	 mov	 BYTE PTR __k$[ebp+1], dl
  00039	8a 50 02	 mov	 dl, BYTE PTR [eax+2]
  0003c	84 d2		 test	 dl, dl
  0003e	0f 84 ae 01 00
	00		 je	 $LN94@LoadFloat_@5
  00044	b1 eb		 mov	 cl, -21			; ffffffebH
  00046	32 d1		 xor	 dl, cl
  00048	88 55 e6	 mov	 BYTE PTR __k$[ebp+2], dl
  0004b	8a 50 03	 mov	 dl, BYTE PTR [eax+3]
  0004e	84 d2		 test	 dl, dl
  00050	0f 84 96 01 00
	00		 je	 $LN93@LoadFloat_@5
  00056	80 f2 ea	 xor	 dl, -22			; ffffffeaH
  00059	88 55 e7	 mov	 BYTE PTR __k$[ebp+3], dl
  0005c	8a 50 04	 mov	 dl, BYTE PTR [eax+4]
  0005f	84 d2		 test	 dl, dl
  00061	0f 84 7f 01 00
	00		 je	 $LN92@LoadFloat_@5
  00067	80 f2 ed	 xor	 dl, -19			; ffffffedH
  0006a	88 55 e8	 mov	 BYTE PTR __k$[ebp+4], dl
  0006d	8a 50 05	 mov	 dl, BYTE PTR [eax+5]
  00070	84 d2		 test	 dl, dl
  00072	0f 84 69 01 00
	00		 je	 $LN91@LoadFloat_@5
  00078	32 d3		 xor	 dl, bl
  0007a	88 55 e9	 mov	 BYTE PTR __k$[ebp+5], dl
  0007d	8a 50 06	 mov	 dl, BYTE PTR [eax+6]
  00080	84 d2		 test	 dl, dl
  00082	0f 84 54 01 00
	00		 je	 $LN90@LoadFloat_@5
  00088	32 d1		 xor	 dl, cl
  0008a	88 55 ea	 mov	 BYTE PTR __k$[ebp+6], dl
  0008d	8a 50 07	 mov	 dl, BYTE PTR [eax+7]
  00090	84 d2		 test	 dl, dl
  00092	0f 84 3e 01 00
	00		 je	 $LN89@LoadFloat_@5
  00098	80 f2 ea	 xor	 dl, -22			; ffffffeaH
  0009b	88 55 eb	 mov	 BYTE PTR __k$[ebp+7], dl
  0009e	8a 50 08	 mov	 dl, BYTE PTR [eax+8]
  000a1	84 d2		 test	 dl, dl
  000a3	0f 84 27 01 00
	00		 je	 $LN88@LoadFloat_@5
  000a9	80 f2 ed	 xor	 dl, -19			; ffffffedH
  000ac	88 55 ec	 mov	 BYTE PTR __k$[ebp+8], dl
  000af	8a 50 09	 mov	 dl, BYTE PTR [eax+9]
  000b2	84 d2		 test	 dl, dl
  000b4	0f 84 11 01 00
	00		 je	 $LN87@LoadFloat_@5
  000ba	32 d3		 xor	 dl, bl
  000bc	88 55 ed	 mov	 BYTE PTR __k$[ebp+9], dl
  000bf	8a 50 0a	 mov	 dl, BYTE PTR [eax+10]
  000c2	84 d2		 test	 dl, dl
  000c4	0f 84 fc 00 00
	00		 je	 $LN86@LoadFloat_@5
  000ca	32 d1		 xor	 dl, cl
  000cc	88 55 ee	 mov	 BYTE PTR __k$[ebp+10], dl
  000cf	8a 50 0b	 mov	 dl, BYTE PTR [eax+11]
  000d2	84 d2		 test	 dl, dl
  000d4	0f 84 e6 00 00
	00		 je	 $LN85@LoadFloat_@5
  000da	80 f2 ea	 xor	 dl, -22			; ffffffeaH
  000dd	88 55 ef	 mov	 BYTE PTR __k$[ebp+11], dl
  000e0	8a 50 0c	 mov	 dl, BYTE PTR [eax+12]
  000e3	84 d2		 test	 dl, dl
  000e5	0f 84 cf 00 00
	00		 je	 $LN84@LoadFloat_@5
  000eb	80 f2 ed	 xor	 dl, -19			; ffffffedH
  000ee	88 55 f0	 mov	 BYTE PTR __k$[ebp+12], dl
  000f1	8a 50 0d	 mov	 dl, BYTE PTR [eax+13]
  000f4	84 d2		 test	 dl, dl
  000f6	0f 84 b9 00 00
	00		 je	 $LN83@LoadFloat_@5
  000fc	32 d3		 xor	 dl, bl
  000fe	88 55 f1	 mov	 BYTE PTR __k$[ebp+13], dl
  00101	8a 50 0e	 mov	 dl, BYTE PTR [eax+14]
  00104	84 d2		 test	 dl, dl
  00106	0f 84 a4 00 00
	00		 je	 $LN82@LoadFloat_@5
  0010c	32 d1		 xor	 dl, cl
  0010e	88 55 f2	 mov	 BYTE PTR __k$[ebp+14], dl
  00111	8a 50 0f	 mov	 dl, BYTE PTR [eax+15]
  00114	84 d2		 test	 dl, dl
  00116	0f 84 8e 00 00
	00		 je	 $LN81@LoadFloat_@5
  0011c	80 f2 ea	 xor	 dl, -22			; ffffffeaH
  0011f	88 55 f3	 mov	 BYTE PTR __k$[ebp+15], dl
  00122	8a 50 10	 mov	 dl, BYTE PTR [eax+16]
  00125	84 d2		 test	 dl, dl
  00127	74 7b		 je	 SHORT $LN80@LoadFloat_@5
  00129	80 f2 ed	 xor	 dl, -19			; ffffffedH
  0012c	88 55 f4	 mov	 BYTE PTR __k$[ebp+16], dl
  0012f	8a 50 11	 mov	 dl, BYTE PTR [eax+17]
  00132	84 d2		 test	 dl, dl
  00134	74 69		 je	 SHORT $LN79@LoadFloat_@5
  00136	32 d3		 xor	 dl, bl
  00138	88 55 f5	 mov	 BYTE PTR __k$[ebp+17], dl
  0013b	8a 50 12	 mov	 dl, BYTE PTR [eax+18]
  0013e	84 d2		 test	 dl, dl
  00140	74 58		 je	 SHORT $LN78@LoadFloat_@5
  00142	32 d1		 xor	 dl, cl
  00144	80 78 13 00	 cmp	 BYTE PTR [eax+19], 0
  00148	88 55 f6	 mov	 BYTE PTR __k$[ebp+18], dl
  0014b	0f 84 b1 00 00
	00		 je	 $LN1@LoadFloat_@5
  00151	8a 50 14	 mov	 dl, BYTE PTR [eax+20]
  00154	84 d2		 test	 dl, dl
  00156	74 3c		 je	 SHORT $LN76@LoadFloat_@5
  00158	80 f2 ed	 xor	 dl, -19			; ffffffedH
  0015b	88 55 f8	 mov	 BYTE PTR __k$[ebp+20], dl
  0015e	8a 50 15	 mov	 dl, BYTE PTR [eax+21]
  00161	84 d2		 test	 dl, dl
  00163	74 2a		 je	 SHORT $LN75@LoadFloat_@5
  00165	32 d3		 xor	 dl, bl
  00167	88 55 f9	 mov	 BYTE PTR __k$[ebp+21], dl
  0016a	8a 50 16	 mov	 dl, BYTE PTR [eax+22]
  0016d	84 d2		 test	 dl, dl
  0016f	74 19		 je	 SHORT $LN74@LoadFloat_@5
  00171	8a 40 17	 mov	 al, BYTE PTR [eax+23]
  00174	32 d1		 xor	 dl, cl
  00176	88 55 fa	 mov	 BYTE PTR __k$[ebp+22], dl
  00179	84 c0		 test	 al, al
  0017b	74 07		 je	 SHORT $LN73@LoadFloat_@5
  0017d	34 ea		 xor	 al, -22			; ffffffeaH
  0017f	88 45 fb	 mov	 BYTE PTR __k$[ebp+23], al
  00182	eb 7e		 jmp	 SHORT $LN1@LoadFloat_@5
$LN73@LoadFloat_@5:
  00184	c6 45 fb ea	 mov	 BYTE PTR __k$[ebp+23], -22 ; ffffffeaH
  00188	eb 78		 jmp	 SHORT $LN1@LoadFloat_@5
$LN74@LoadFloat_@5:
  0018a	88 4d fa	 mov	 BYTE PTR __k$[ebp+22], cl
  0018d	eb 73		 jmp	 SHORT $LN1@LoadFloat_@5
$LN75@LoadFloat_@5:
  0018f	88 5d f9	 mov	 BYTE PTR __k$[ebp+21], bl
  00192	eb 6e		 jmp	 SHORT $LN1@LoadFloat_@5
$LN76@LoadFloat_@5:
  00194	c6 45 f8 ed	 mov	 BYTE PTR __k$[ebp+20], -19 ; ffffffedH
  00198	eb 68		 jmp	 SHORT $LN1@LoadFloat_@5
$LN78@LoadFloat_@5:
  0019a	88 4d f6	 mov	 BYTE PTR __k$[ebp+18], cl
  0019d	eb 63		 jmp	 SHORT $LN1@LoadFloat_@5
$LN79@LoadFloat_@5:
  0019f	88 5d f5	 mov	 BYTE PTR __k$[ebp+17], bl
  001a2	eb 5e		 jmp	 SHORT $LN1@LoadFloat_@5
$LN80@LoadFloat_@5:
  001a4	c6 45 f4 ed	 mov	 BYTE PTR __k$[ebp+16], -19 ; ffffffedH
  001a8	eb 58		 jmp	 SHORT $LN1@LoadFloat_@5
$LN81@LoadFloat_@5:
  001aa	c6 45 f3 ea	 mov	 BYTE PTR __k$[ebp+15], -22 ; ffffffeaH
  001ae	eb 52		 jmp	 SHORT $LN1@LoadFloat_@5
$LN82@LoadFloat_@5:
  001b0	88 4d f2	 mov	 BYTE PTR __k$[ebp+14], cl
  001b3	eb 4d		 jmp	 SHORT $LN1@LoadFloat_@5
$LN83@LoadFloat_@5:
  001b5	88 5d f1	 mov	 BYTE PTR __k$[ebp+13], bl
  001b8	eb 48		 jmp	 SHORT $LN1@LoadFloat_@5
$LN84@LoadFloat_@5:
  001ba	c6 45 f0 ed	 mov	 BYTE PTR __k$[ebp+12], -19 ; ffffffedH
  001be	eb 42		 jmp	 SHORT $LN1@LoadFloat_@5
$LN85@LoadFloat_@5:
  001c0	c6 45 ef ea	 mov	 BYTE PTR __k$[ebp+11], -22 ; ffffffeaH
  001c4	eb 3c		 jmp	 SHORT $LN1@LoadFloat_@5
$LN86@LoadFloat_@5:
  001c6	88 4d ee	 mov	 BYTE PTR __k$[ebp+10], cl
  001c9	eb 37		 jmp	 SHORT $LN1@LoadFloat_@5
$LN87@LoadFloat_@5:
  001cb	88 5d ed	 mov	 BYTE PTR __k$[ebp+9], bl
  001ce	eb 32		 jmp	 SHORT $LN1@LoadFloat_@5
$LN88@LoadFloat_@5:
  001d0	c6 45 ec ed	 mov	 BYTE PTR __k$[ebp+8], -19 ; ffffffedH
  001d4	eb 2c		 jmp	 SHORT $LN1@LoadFloat_@5
$LN89@LoadFloat_@5:
  001d6	c6 45 eb ea	 mov	 BYTE PTR __k$[ebp+7], -22 ; ffffffeaH
  001da	eb 26		 jmp	 SHORT $LN1@LoadFloat_@5
$LN90@LoadFloat_@5:
  001dc	88 4d ea	 mov	 BYTE PTR __k$[ebp+6], cl
  001df	eb 21		 jmp	 SHORT $LN1@LoadFloat_@5
$LN91@LoadFloat_@5:
  001e1	88 5d e9	 mov	 BYTE PTR __k$[ebp+5], bl
  001e4	eb 1c		 jmp	 SHORT $LN1@LoadFloat_@5
$LN92@LoadFloat_@5:
  001e6	c6 45 e8 ed	 mov	 BYTE PTR __k$[ebp+4], -19 ; ffffffedH
  001ea	eb 16		 jmp	 SHORT $LN1@LoadFloat_@5
$LN93@LoadFloat_@5:
  001ec	c6 45 e7 ea	 mov	 BYTE PTR __k$[ebp+3], -22 ; ffffffeaH
  001f0	eb 10		 jmp	 SHORT $LN1@LoadFloat_@5
$LN94@LoadFloat_@5:
  001f2	c6 45 e6 eb	 mov	 BYTE PTR __k$[ebp+2], -21 ; ffffffebH
  001f6	eb 0a		 jmp	 SHORT $LN1@LoadFloat_@5
$LN95@LoadFloat_@5:
  001f8	c6 45 e5 ec	 mov	 BYTE PTR __k$[ebp+1], -20 ; ffffffecH
  001fc	eb 04		 jmp	 SHORT $LN1@LoadFloat_@5
$LN96@LoadFloat_@5:
  001fe	c6 45 e4 ed	 mov	 BYTE PTR __k$[ebp], -19	; ffffffedH
$LN1@LoadFloat_@5:
  00202	6a 04		 push	 4
  00204	8d 45 e4	 lea	 eax, DWORD PTR __k$[ebp]
  00207	c6 45 f7 00	 mov	 BYTE PTR __k$[ebp+19], 0
  0020b	5a		 pop	 edx
$LL104@LoadFloat_@5:
  0020c	81 30 ed ec eb
	ea		 xor	 DWORD PTR [eax], -353637139 ; eaebecedH
  00212	83 c0 04	 add	 eax, 4
  00215	4a		 dec	 edx
  00216	75 f4		 jne	 SHORT $LL104@LoadFloat_@5
  00218	6a 10		 push	 16			; 00000010H
  0021a	58		 pop	 eax
$LL101@LoadFloat_@5:
  0021b	8b c8		 mov	 ecx, eax
  0021d	81 e1 03 00 00
	80		 and	 ecx, -2147483645	; 80000003H
  00223	79 05		 jns	 SHORT $LN111@LoadFloat_@5
  00225	49		 dec	 ecx
  00226	83 c9 fc	 or	 ecx, -4			; fffffffcH
  00229	41		 inc	 ecx
$LN111@LoadFloat_@5:
  0022a	b2 ed		 mov	 dl, -19			; ffffffedH
  0022c	2a d1		 sub	 dl, cl
  0022e	30 54 05 e4	 xor	 BYTE PTR __k$[ebp+eax], dl
  00232	40		 inc	 eax
  00233	83 f8 13	 cmp	 eax, 19			; 00000013H
  00236	7c e3		 jl	 SHORT $LL101@LoadFloat_@5

; 137  : 		return LoadFloat(_k, f);

  00238	f3 0f 10 45 0c	 movss	 xmm0, DWORD PTR _f$[ebp]
  0023d	51		 push	 ecx
  0023e	8d 45 e4	 lea	 eax, DWORD PTR __k$[ebp]
  00241	f3 0f 11 04 24	 movss	 DWORD PTR [esp], xmm0
  00246	50		 push	 eax
  00247	8b ce		 mov	 ecx, esi
  00249	ff 15 00 00 00
	00		 call	 DWORD PTR __imp_?LoadFloat@ioINILoader@@QAEMPBDM@Z

; 138  : 	}

  0024f	8b 4d fc	 mov	 ecx, DWORD PTR __$ArrayPad$[ebp]
  00252	5e		 pop	 esi
  00253	33 cd		 xor	 ecx, ebp
  00255	5b		 pop	 ebx
  00256	e8 00 00 00 00	 call	 @__security_check_cookie@4
  0025b	c9		 leave
  0025c	c2 08 00	 ret	 8
??$LoadFloat_e@$0BE@@ioINILoader@@QAEMAAY0BE@$$CBDM@Z ENDP ; ioINILoader::LoadFloat_e<20>
_TEXT	ENDS
PUBLIC	__$ArrayPad$
PUBLIC	??$LoadFloat_e@$0BJ@@ioINILoader@@QAEMAAY0BJ@$$CBDM@Z ; ioINILoader::LoadFloat_e<25>
; Function compile flags: /Ogsp
;	COMDAT ??$LoadFloat_e@$0BJ@@ioINILoader@@QAEMAAY0BJ@$$CBDM@Z
_TEXT	SEGMENT
__k$ = -36						; size = 25
__$ArrayPad$ = -4					; size = 4
_k$ = 8							; size = 4
_f$ = 12						; size = 4
??$LoadFloat_e@$0BJ@@ioINILoader@@QAEMAAY0BJ@$$CBDM@Z PROC ; ioINILoader::LoadFloat_e<25>, COMDAT
; _this$ = ecx

; 135  : 	{

  00000	55		 push	 ebp
  00001	8b ec		 mov	 ebp, esp
  00003	83 ec 24	 sub	 esp, 36			; 00000024H
  00006	a1 00 00 00 00	 mov	 eax, DWORD PTR ___security_cookie
  0000b	33 c5		 xor	 eax, ebp
  0000d	89 45 fc	 mov	 DWORD PTR __$ArrayPad$[ebp], eax
  00010	8b 45 08	 mov	 eax, DWORD PTR _k$[ebp]

; 136  : 		_ENCSTR(k, _k);

  00013	8a 10		 mov	 dl, BYTE PTR [eax]
  00015	53		 push	 ebx
  00016	56		 push	 esi
  00017	8b f1		 mov	 esi, ecx
  00019	84 d2		 test	 dl, dl
  0001b	0f 84 5f 02 00
	00		 je	 $LN96@LoadFloat_@6
  00021	80 f2 ed	 xor	 dl, -19			; ffffffedH
  00024	88 55 dc	 mov	 BYTE PTR __k$[ebp], dl
  00027	8a 50 01	 mov	 dl, BYTE PTR [eax+1]
  0002a	84 d2		 test	 dl, dl
  0002c	0f 84 48 02 00
	00		 je	 $LN95@LoadFloat_@6
  00032	b1 ec		 mov	 cl, -20			; ffffffecH
  00034	32 d1		 xor	 dl, cl
  00036	88 55 dd	 mov	 BYTE PTR __k$[ebp+1], dl
  00039	8a 50 02	 mov	 dl, BYTE PTR [eax+2]
  0003c	84 d2		 test	 dl, dl
  0003e	0f 84 30 02 00
	00		 je	 $LN94@LoadFloat_@6
  00044	b3 eb		 mov	 bl, -21			; ffffffebH
  00046	32 d3		 xor	 dl, bl
  00048	88 55 de	 mov	 BYTE PTR __k$[ebp+2], dl
  0004b	8a 50 03	 mov	 dl, BYTE PTR [eax+3]
  0004e	84 d2		 test	 dl, dl
  00050	0f 84 18 02 00
	00		 je	 $LN93@LoadFloat_@6
  00056	80 f2 ea	 xor	 dl, -22			; ffffffeaH
  00059	88 55 df	 mov	 BYTE PTR __k$[ebp+3], dl
  0005c	8a 50 04	 mov	 dl, BYTE PTR [eax+4]
  0005f	84 d2		 test	 dl, dl
  00061	0f 84 01 02 00
	00		 je	 $LN92@LoadFloat_@6
  00067	80 f2 ed	 xor	 dl, -19			; ffffffedH
  0006a	88 55 e0	 mov	 BYTE PTR __k$[ebp+4], dl
  0006d	8a 50 05	 mov	 dl, BYTE PTR [eax+5]
  00070	84 d2		 test	 dl, dl
  00072	0f 84 eb 01 00
	00		 je	 $LN91@LoadFloat_@6
  00078	32 d1		 xor	 dl, cl
  0007a	88 55 e1	 mov	 BYTE PTR __k$[ebp+5], dl
  0007d	8a 50 06	 mov	 dl, BYTE PTR [eax+6]
  00080	84 d2		 test	 dl, dl
  00082	0f 84 d6 01 00
	00		 je	 $LN90@LoadFloat_@6
  00088	32 d3		 xor	 dl, bl
  0008a	88 55 e2	 mov	 BYTE PTR __k$[ebp+6], dl
  0008d	8a 50 07	 mov	 dl, BYTE PTR [eax+7]
  00090	84 d2		 test	 dl, dl
  00092	0f 84 c0 01 00
	00		 je	 $LN89@LoadFloat_@6
  00098	80 f2 ea	 xor	 dl, -22			; ffffffeaH
  0009b	88 55 e3	 mov	 BYTE PTR __k$[ebp+7], dl
  0009e	8a 50 08	 mov	 dl, BYTE PTR [eax+8]
  000a1	84 d2		 test	 dl, dl
  000a3	0f 84 a9 01 00
	00		 je	 $LN88@LoadFloat_@6
  000a9	80 f2 ed	 xor	 dl, -19			; ffffffedH
  000ac	88 55 e4	 mov	 BYTE PTR __k$[ebp+8], dl
  000af	8a 50 09	 mov	 dl, BYTE PTR [eax+9]
  000b2	84 d2		 test	 dl, dl
  000b4	0f 84 93 01 00
	00		 je	 $LN87@LoadFloat_@6
  000ba	32 d1		 xor	 dl, cl
  000bc	88 55 e5	 mov	 BYTE PTR __k$[ebp+9], dl
  000bf	8a 50 0a	 mov	 dl, BYTE PTR [eax+10]
  000c2	84 d2		 test	 dl, dl
  000c4	0f 84 7e 01 00
	00		 je	 $LN86@LoadFloat_@6
  000ca	32 d3		 xor	 dl, bl
  000cc	88 55 e6	 mov	 BYTE PTR __k$[ebp+10], dl
  000cf	8a 50 0b	 mov	 dl, BYTE PTR [eax+11]
  000d2	84 d2		 test	 dl, dl
  000d4	0f 84 68 01 00
	00		 je	 $LN85@LoadFloat_@6
  000da	80 f2 ea	 xor	 dl, -22			; ffffffeaH
  000dd	88 55 e7	 mov	 BYTE PTR __k$[ebp+11], dl
  000e0	8a 50 0c	 mov	 dl, BYTE PTR [eax+12]
  000e3	84 d2		 test	 dl, dl
  000e5	0f 84 51 01 00
	00		 je	 $LN84@LoadFloat_@6
  000eb	80 f2 ed	 xor	 dl, -19			; ffffffedH
  000ee	88 55 e8	 mov	 BYTE PTR __k$[ebp+12], dl
  000f1	8a 50 0d	 mov	 dl, BYTE PTR [eax+13]
  000f4	84 d2		 test	 dl, dl
  000f6	0f 84 3b 01 00
	00		 je	 $LN83@LoadFloat_@6
  000fc	32 d1		 xor	 dl, cl
  000fe	88 55 e9	 mov	 BYTE PTR __k$[ebp+13], dl
  00101	8a 50 0e	 mov	 dl, BYTE PTR [eax+14]
  00104	84 d2		 test	 dl, dl
  00106	0f 84 26 01 00
	00		 je	 $LN82@LoadFloat_@6
  0010c	32 d3		 xor	 dl, bl
  0010e	88 55 ea	 mov	 BYTE PTR __k$[ebp+14], dl
  00111	8a 50 0f	 mov	 dl, BYTE PTR [eax+15]
  00114	84 d2		 test	 dl, dl
  00116	0f 84 10 01 00
	00		 je	 $LN81@LoadFloat_@6
  0011c	80 f2 ea	 xor	 dl, -22			; ffffffeaH
  0011f	88 55 eb	 mov	 BYTE PTR __k$[ebp+15], dl
  00122	8a 50 10	 mov	 dl, BYTE PTR [eax+16]
  00125	84 d2		 test	 dl, dl
  00127	0f 84 f9 00 00
	00		 je	 $LN80@LoadFloat_@6
  0012d	80 f2 ed	 xor	 dl, -19			; ffffffedH
  00130	88 55 ec	 mov	 BYTE PTR __k$[ebp+16], dl
  00133	8a 50 11	 mov	 dl, BYTE PTR [eax+17]
  00136	84 d2		 test	 dl, dl
  00138	0f 84 e3 00 00
	00		 je	 $LN79@LoadFloat_@6
  0013e	32 d1		 xor	 dl, cl
  00140	88 55 ed	 mov	 BYTE PTR __k$[ebp+17], dl
  00143	8a 50 12	 mov	 dl, BYTE PTR [eax+18]
  00146	84 d2		 test	 dl, dl
  00148	0f 84 ce 00 00
	00		 je	 $LN78@LoadFloat_@6
  0014e	32 d3		 xor	 dl, bl
  00150	88 55 ee	 mov	 BYTE PTR __k$[ebp+18], dl
  00153	8a 50 13	 mov	 dl, BYTE PTR [eax+19]
  00156	84 d2		 test	 dl, dl
  00158	0f 84 b8 00 00
	00		 je	 $LN77@LoadFloat_@6
  0015e	80 f2 ea	 xor	 dl, -22			; ffffffeaH
  00161	88 55 ef	 mov	 BYTE PTR __k$[ebp+19], dl
  00164	8a 50 14	 mov	 dl, BYTE PTR [eax+20]
  00167	84 d2		 test	 dl, dl
  00169	0f 84 a1 00 00
	00		 je	 $LN76@LoadFloat_@6
  0016f	80 f2 ed	 xor	 dl, -19			; ffffffedH
  00172	88 55 f0	 mov	 BYTE PTR __k$[ebp+20], dl
  00175	8a 50 15	 mov	 dl, BYTE PTR [eax+21]
  00178	84 d2		 test	 dl, dl
  0017a	0f 84 8b 00 00
	00		 je	 $LN75@LoadFloat_@6
  00180	32 d1		 xor	 dl, cl
  00182	88 55 f1	 mov	 BYTE PTR __k$[ebp+21], dl
  00185	8a 50 16	 mov	 dl, BYTE PTR [eax+22]
  00188	84 d2		 test	 dl, dl
  0018a	74 7a		 je	 SHORT $LN74@LoadFloat_@6
  0018c	32 d3		 xor	 dl, bl
  0018e	88 55 f2	 mov	 BYTE PTR __k$[ebp+22], dl
  00191	8a 50 17	 mov	 dl, BYTE PTR [eax+23]
  00194	84 d2		 test	 dl, dl
  00196	74 68		 je	 SHORT $LN73@LoadFloat_@6
  00198	80 f2 ea	 xor	 dl, -22			; ffffffeaH
  0019b	80 78 18 00	 cmp	 BYTE PTR [eax+24], 0
  0019f	88 55 f3	 mov	 BYTE PTR __k$[ebp+23], dl
  001a2	0f 84 dc 00 00
	00		 je	 $LN1@LoadFloat_@6
  001a8	8a 50 19	 mov	 dl, BYTE PTR [eax+25]
  001ab	84 d2		 test	 dl, dl
  001ad	74 49		 je	 SHORT $LN71@LoadFloat_@6
  001af	32 d1		 xor	 dl, cl
  001b1	88 55 f5	 mov	 BYTE PTR __k$[ebp+25], dl
  001b4	8a 50 1a	 mov	 dl, BYTE PTR [eax+26]
  001b7	84 d2		 test	 dl, dl
  001b9	74 35		 je	 SHORT $LN70@LoadFloat_@6
  001bb	32 d3		 xor	 dl, bl
  001bd	88 55 f6	 mov	 BYTE PTR __k$[ebp+26], dl
  001c0	8a 50 1b	 mov	 dl, BYTE PTR [eax+27]
  001c3	84 d2		 test	 dl, dl
  001c5	74 20		 je	 SHORT $LN69@LoadFloat_@6
  001c7	8a 40 1c	 mov	 al, BYTE PTR [eax+28]
  001ca	80 f2 ea	 xor	 dl, -22			; ffffffeaH
  001cd	88 55 f7	 mov	 BYTE PTR __k$[ebp+27], dl
  001d0	84 c0		 test	 al, al
  001d2	74 0a		 je	 SHORT $LN68@LoadFloat_@6
  001d4	34 ed		 xor	 al, -19			; ffffffedH
  001d6	88 45 f8	 mov	 BYTE PTR __k$[ebp+28], al
  001d9	e9 a6 00 00 00	 jmp	 $LN1@LoadFloat_@6
$LN68@LoadFloat_@6:
  001de	c6 45 f8 ed	 mov	 BYTE PTR __k$[ebp+28], -19 ; ffffffedH
  001e2	e9 9d 00 00 00	 jmp	 $LN1@LoadFloat_@6
$LN69@LoadFloat_@6:
  001e7	c6 45 f7 ea	 mov	 BYTE PTR __k$[ebp+27], -22 ; ffffffeaH
  001eb	e9 94 00 00 00	 jmp	 $LN1@LoadFloat_@6
$LN70@LoadFloat_@6:
  001f0	88 5d f6	 mov	 BYTE PTR __k$[ebp+26], bl
  001f3	e9 8c 00 00 00	 jmp	 $LN1@LoadFloat_@6
$LN71@LoadFloat_@6:
  001f8	88 4d f5	 mov	 BYTE PTR __k$[ebp+25], cl
  001fb	e9 84 00 00 00	 jmp	 $LN1@LoadFloat_@6
$LN73@LoadFloat_@6:
  00200	c6 45 f3 ea	 mov	 BYTE PTR __k$[ebp+23], -22 ; ffffffeaH
  00204	eb 7e		 jmp	 SHORT $LN1@LoadFloat_@6
$LN74@LoadFloat_@6:
  00206	88 5d f2	 mov	 BYTE PTR __k$[ebp+22], bl
  00209	eb 79		 jmp	 SHORT $LN1@LoadFloat_@6
$LN75@LoadFloat_@6:
  0020b	88 4d f1	 mov	 BYTE PTR __k$[ebp+21], cl
  0020e	eb 74		 jmp	 SHORT $LN1@LoadFloat_@6
$LN76@LoadFloat_@6:
  00210	c6 45 f0 ed	 mov	 BYTE PTR __k$[ebp+20], -19 ; ffffffedH
  00214	eb 6e		 jmp	 SHORT $LN1@LoadFloat_@6
$LN77@LoadFloat_@6:
  00216	c6 45 ef ea	 mov	 BYTE PTR __k$[ebp+19], -22 ; ffffffeaH
  0021a	eb 68		 jmp	 SHORT $LN1@LoadFloat_@6
$LN78@LoadFloat_@6:
  0021c	88 5d ee	 mov	 BYTE PTR __k$[ebp+18], bl
  0021f	eb 63		 jmp	 SHORT $LN1@LoadFloat_@6
$LN79@LoadFloat_@6:
  00221	88 4d ed	 mov	 BYTE PTR __k$[ebp+17], cl
  00224	eb 5e		 jmp	 SHORT $LN1@LoadFloat_@6
$LN80@LoadFloat_@6:
  00226	c6 45 ec ed	 mov	 BYTE PTR __k$[ebp+16], -19 ; ffffffedH
  0022a	eb 58		 jmp	 SHORT $LN1@LoadFloat_@6
$LN81@LoadFloat_@6:
  0022c	c6 45 eb ea	 mov	 BYTE PTR __k$[ebp+15], -22 ; ffffffeaH
  00230	eb 52		 jmp	 SHORT $LN1@LoadFloat_@6
$LN82@LoadFloat_@6:
  00232	88 5d ea	 mov	 BYTE PTR __k$[ebp+14], bl
  00235	eb 4d		 jmp	 SHORT $LN1@LoadFloat_@6
$LN83@LoadFloat_@6:
  00237	88 4d e9	 mov	 BYTE PTR __k$[ebp+13], cl
  0023a	eb 48		 jmp	 SHORT $LN1@LoadFloat_@6
$LN84@LoadFloat_@6:
  0023c	c6 45 e8 ed	 mov	 BYTE PTR __k$[ebp+12], -19 ; ffffffedH
  00240	eb 42		 jmp	 SHORT $LN1@LoadFloat_@6
$LN85@LoadFloat_@6:
  00242	c6 45 e7 ea	 mov	 BYTE PTR __k$[ebp+11], -22 ; ffffffeaH
  00246	eb 3c		 jmp	 SHORT $LN1@LoadFloat_@6
$LN86@LoadFloat_@6:
  00248	88 5d e6	 mov	 BYTE PTR __k$[ebp+10], bl
  0024b	eb 37		 jmp	 SHORT $LN1@LoadFloat_@6
$LN87@LoadFloat_@6:
  0024d	88 4d e5	 mov	 BYTE PTR __k$[ebp+9], cl
  00250	eb 32		 jmp	 SHORT $LN1@LoadFloat_@6
$LN88@LoadFloat_@6:
  00252	c6 45 e4 ed	 mov	 BYTE PTR __k$[ebp+8], -19 ; ffffffedH
  00256	eb 2c		 jmp	 SHORT $LN1@LoadFloat_@6
$LN89@LoadFloat_@6:
  00258	c6 45 e3 ea	 mov	 BYTE PTR __k$[ebp+7], -22 ; ffffffeaH
  0025c	eb 26		 jmp	 SHORT $LN1@LoadFloat_@6
$LN90@LoadFloat_@6:
  0025e	88 5d e2	 mov	 BYTE PTR __k$[ebp+6], bl
  00261	eb 21		 jmp	 SHORT $LN1@LoadFloat_@6
$LN91@LoadFloat_@6:
  00263	88 4d e1	 mov	 BYTE PTR __k$[ebp+5], cl
  00266	eb 1c		 jmp	 SHORT $LN1@LoadFloat_@6
$LN92@LoadFloat_@6:
  00268	c6 45 e0 ed	 mov	 BYTE PTR __k$[ebp+4], -19 ; ffffffedH
  0026c	eb 16		 jmp	 SHORT $LN1@LoadFloat_@6
$LN93@LoadFloat_@6:
  0026e	c6 45 df ea	 mov	 BYTE PTR __k$[ebp+3], -22 ; ffffffeaH
  00272	eb 10		 jmp	 SHORT $LN1@LoadFloat_@6
$LN94@LoadFloat_@6:
  00274	c6 45 de eb	 mov	 BYTE PTR __k$[ebp+2], -21 ; ffffffebH
  00278	eb 0a		 jmp	 SHORT $LN1@LoadFloat_@6
$LN95@LoadFloat_@6:
  0027a	c6 45 dd ec	 mov	 BYTE PTR __k$[ebp+1], -20 ; ffffffecH
  0027e	eb 04		 jmp	 SHORT $LN1@LoadFloat_@6
$LN96@LoadFloat_@6:
  00280	c6 45 dc ed	 mov	 BYTE PTR __k$[ebp], -19	; ffffffedH
$LN1@LoadFloat_@6:
  00284	6a 06		 push	 6
  00286	8d 45 dc	 lea	 eax, DWORD PTR __k$[ebp]
  00289	c6 45 f4 00	 mov	 BYTE PTR __k$[ebp+24], 0
  0028d	5a		 pop	 edx
$LL104@LoadFloat_@6:
  0028e	81 30 ed ec eb
	ea		 xor	 DWORD PTR [eax], -353637139 ; eaebecedH
  00294	83 c0 04	 add	 eax, 4
  00297	4a		 dec	 edx
  00298	75 f4		 jne	 SHORT $LL104@LoadFloat_@6

; 137  : 		return LoadFloat(_k, f);

  0029a	f3 0f 10 45 0c	 movss	 xmm0, DWORD PTR _f$[ebp]
  0029f	51		 push	 ecx
  002a0	8d 45 dc	 lea	 eax, DWORD PTR __k$[ebp]
  002a3	f3 0f 11 04 24	 movss	 DWORD PTR [esp], xmm0
  002a8	50		 push	 eax
  002a9	8b ce		 mov	 ecx, esi
  002ab	ff 15 00 00 00
	00		 call	 DWORD PTR __imp_?LoadFloat@ioINILoader@@QAEMPBDM@Z

; 138  : 	}

  002b1	8b 4d fc	 mov	 ecx, DWORD PTR __$ArrayPad$[ebp]
  002b4	5e		 pop	 esi
  002b5	33 cd		 xor	 ecx, ebp
  002b7	5b		 pop	 ebx
  002b8	e8 00 00 00 00	 call	 @__security_check_cookie@4
  002bd	c9		 leave
  002be	c2 08 00	 ret	 8
??$LoadFloat_e@$0BJ@@ioINILoader@@QAEMAAY0BJ@$$CBDM@Z ENDP ; ioINILoader::LoadFloat_e<25>
_TEXT	ENDS
PUBLIC	__$ArrayPad$
PUBLIC	??$LoadInt_e@$0BJ@@ioINILoader@@QAEHAAY0BJ@$$CBDH@Z ; ioINILoader::LoadInt_e<25>
; Function compile flags: /Ogsp
;	COMDAT ??$LoadInt_e@$0BJ@@ioINILoader@@QAEHAAY0BJ@$$CBDH@Z
_TEXT	SEGMENT
__k$ = -36						; size = 25
__$ArrayPad$ = -4					; size = 4
_k$ = 8							; size = 4
_i$ = 12						; size = 4
??$LoadInt_e@$0BJ@@ioINILoader@@QAEHAAY0BJ@$$CBDH@Z PROC ; ioINILoader::LoadInt_e<25>, COMDAT
; _this$ = ecx

; 118  : 	{

  00000	55		 push	 ebp
  00001	8b ec		 mov	 ebp, esp
  00003	83 ec 24	 sub	 esp, 36			; 00000024H
  00006	a1 00 00 00 00	 mov	 eax, DWORD PTR ___security_cookie
  0000b	33 c5		 xor	 eax, ebp
  0000d	89 45 fc	 mov	 DWORD PTR __$ArrayPad$[ebp], eax
  00010	8b 45 08	 mov	 eax, DWORD PTR _k$[ebp]

; 119  : 		_ENCSTR(k, _k);

  00013	8a 10		 mov	 dl, BYTE PTR [eax]
  00015	53		 push	 ebx
  00016	56		 push	 esi
  00017	8b f1		 mov	 esi, ecx
  00019	84 d2		 test	 dl, dl
  0001b	0f 84 5f 02 00
	00		 je	 $LN96@LoadInt_e@9
  00021	80 f2 ed	 xor	 dl, -19			; ffffffedH
  00024	88 55 dc	 mov	 BYTE PTR __k$[ebp], dl
  00027	8a 50 01	 mov	 dl, BYTE PTR [eax+1]
  0002a	84 d2		 test	 dl, dl
  0002c	0f 84 48 02 00
	00		 je	 $LN95@LoadInt_e@9
  00032	b1 ec		 mov	 cl, -20			; ffffffecH
  00034	32 d1		 xor	 dl, cl
  00036	88 55 dd	 mov	 BYTE PTR __k$[ebp+1], dl
  00039	8a 50 02	 mov	 dl, BYTE PTR [eax+2]
  0003c	84 d2		 test	 dl, dl
  0003e	0f 84 30 02 00
	00		 je	 $LN94@LoadInt_e@9
  00044	b3 eb		 mov	 bl, -21			; ffffffebH
  00046	32 d3		 xor	 dl, bl
  00048	88 55 de	 mov	 BYTE PTR __k$[ebp+2], dl
  0004b	8a 50 03	 mov	 dl, BYTE PTR [eax+3]
  0004e	84 d2		 test	 dl, dl
  00050	0f 84 18 02 00
	00		 je	 $LN93@LoadInt_e@9
  00056	80 f2 ea	 xor	 dl, -22			; ffffffeaH
  00059	88 55 df	 mov	 BYTE PTR __k$[ebp+3], dl
  0005c	8a 50 04	 mov	 dl, BYTE PTR [eax+4]
  0005f	84 d2		 test	 dl, dl
  00061	0f 84 01 02 00
	00		 je	 $LN92@LoadInt_e@9
  00067	80 f2 ed	 xor	 dl, -19			; ffffffedH
  0006a	88 55 e0	 mov	 BYTE PTR __k$[ebp+4], dl
  0006d	8a 50 05	 mov	 dl, BYTE PTR [eax+5]
  00070	84 d2		 test	 dl, dl
  00072	0f 84 eb 01 00
	00		 je	 $LN91@LoadInt_e@9
  00078	32 d1		 xor	 dl, cl
  0007a	88 55 e1	 mov	 BYTE PTR __k$[ebp+5], dl
  0007d	8a 50 06	 mov	 dl, BYTE PTR [eax+6]
  00080	84 d2		 test	 dl, dl
  00082	0f 84 d6 01 00
	00		 je	 $LN90@LoadInt_e@9
  00088	32 d3		 xor	 dl, bl
  0008a	88 55 e2	 mov	 BYTE PTR __k$[ebp+6], dl
  0008d	8a 50 07	 mov	 dl, BYTE PTR [eax+7]
  00090	84 d2		 test	 dl, dl
  00092	0f 84 c0 01 00
	00		 je	 $LN89@LoadInt_e@9
  00098	80 f2 ea	 xor	 dl, -22			; ffffffeaH
  0009b	88 55 e3	 mov	 BYTE PTR __k$[ebp+7], dl
  0009e	8a 50 08	 mov	 dl, BYTE PTR [eax+8]
  000a1	84 d2		 test	 dl, dl
  000a3	0f 84 a9 01 00
	00		 je	 $LN88@LoadInt_e@9
  000a9	80 f2 ed	 xor	 dl, -19			; ffffffedH
  000ac	88 55 e4	 mov	 BYTE PTR __k$[ebp+8], dl
  000af	8a 50 09	 mov	 dl, BYTE PTR [eax+9]
  000b2	84 d2		 test	 dl, dl
  000b4	0f 84 93 01 00
	00		 je	 $LN87@LoadInt_e@9
  000ba	32 d1		 xor	 dl, cl
  000bc	88 55 e5	 mov	 BYTE PTR __k$[ebp+9], dl
  000bf	8a 50 0a	 mov	 dl, BYTE PTR [eax+10]
  000c2	84 d2		 test	 dl, dl
  000c4	0f 84 7e 01 00
	00		 je	 $LN86@LoadInt_e@9
  000ca	32 d3		 xor	 dl, bl
  000cc	88 55 e6	 mov	 BYTE PTR __k$[ebp+10], dl
  000cf	8a 50 0b	 mov	 dl, BYTE PTR [eax+11]
  000d2	84 d2		 test	 dl, dl
  000d4	0f 84 68 01 00
	00		 je	 $LN85@LoadInt_e@9
  000da	80 f2 ea	 xor	 dl, -22			; ffffffeaH
  000dd	88 55 e7	 mov	 BYTE PTR __k$[ebp+11], dl
  000e0	8a 50 0c	 mov	 dl, BYTE PTR [eax+12]
  000e3	84 d2		 test	 dl, dl
  000e5	0f 84 51 01 00
	00		 je	 $LN84@LoadInt_e@9
  000eb	80 f2 ed	 xor	 dl, -19			; ffffffedH
  000ee	88 55 e8	 mov	 BYTE PTR __k$[ebp+12], dl
  000f1	8a 50 0d	 mov	 dl, BYTE PTR [eax+13]
  000f4	84 d2		 test	 dl, dl
  000f6	0f 84 3b 01 00
	00		 je	 $LN83@LoadInt_e@9
  000fc	32 d1		 xor	 dl, cl
  000fe	88 55 e9	 mov	 BYTE PTR __k$[ebp+13], dl
  00101	8a 50 0e	 mov	 dl, BYTE PTR [eax+14]
  00104	84 d2		 test	 dl, dl
  00106	0f 84 26 01 00
	00		 je	 $LN82@LoadInt_e@9
  0010c	32 d3		 xor	 dl, bl
  0010e	88 55 ea	 mov	 BYTE PTR __k$[ebp+14], dl
  00111	8a 50 0f	 mov	 dl, BYTE PTR [eax+15]
  00114	84 d2		 test	 dl, dl
  00116	0f 84 10 01 00
	00		 je	 $LN81@LoadInt_e@9
  0011c	80 f2 ea	 xor	 dl, -22			; ffffffeaH
  0011f	88 55 eb	 mov	 BYTE PTR __k$[ebp+15], dl
  00122	8a 50 10	 mov	 dl, BYTE PTR [eax+16]
  00125	84 d2		 test	 dl, dl
  00127	0f 84 f9 00 00
	00		 je	 $LN80@LoadInt_e@9
  0012d	80 f2 ed	 xor	 dl, -19			; ffffffedH
  00130	88 55 ec	 mov	 BYTE PTR __k$[ebp+16], dl
  00133	8a 50 11	 mov	 dl, BYTE PTR [eax+17]
  00136	84 d2		 test	 dl, dl
  00138	0f 84 e3 00 00
	00		 je	 $LN79@LoadInt_e@9
  0013e	32 d1		 xor	 dl, cl
  00140	88 55 ed	 mov	 BYTE PTR __k$[ebp+17], dl
  00143	8a 50 12	 mov	 dl, BYTE PTR [eax+18]
  00146	84 d2		 test	 dl, dl
  00148	0f 84 ce 00 00
	00		 je	 $LN78@LoadInt_e@9
  0014e	32 d3		 xor	 dl, bl
  00150	88 55 ee	 mov	 BYTE PTR __k$[ebp+18], dl
  00153	8a 50 13	 mov	 dl, BYTE PTR [eax+19]
  00156	84 d2		 test	 dl, dl
  00158	0f 84 b8 00 00
	00		 je	 $LN77@LoadInt_e@9
  0015e	80 f2 ea	 xor	 dl, -22			; ffffffeaH
  00161	88 55 ef	 mov	 BYTE PTR __k$[ebp+19], dl
  00164	8a 50 14	 mov	 dl, BYTE PTR [eax+20]
  00167	84 d2		 test	 dl, dl
  00169	0f 84 a1 00 00
	00		 je	 $LN76@LoadInt_e@9
  0016f	80 f2 ed	 xor	 dl, -19			; ffffffedH
  00172	88 55 f0	 mov	 BYTE PTR __k$[ebp+20], dl
  00175	8a 50 15	 mov	 dl, BYTE PTR [eax+21]
  00178	84 d2		 test	 dl, dl
  0017a	0f 84 8b 00 00
	00		 je	 $LN75@LoadInt_e@9
  00180	32 d1		 xor	 dl, cl
  00182	88 55 f1	 mov	 BYTE PTR __k$[ebp+21], dl
  00185	8a 50 16	 mov	 dl, BYTE PTR [eax+22]
  00188	84 d2		 test	 dl, dl
  0018a	74 7a		 je	 SHORT $LN74@LoadInt_e@9
  0018c	32 d3		 xor	 dl, bl
  0018e	88 55 f2	 mov	 BYTE PTR __k$[ebp+22], dl
  00191	8a 50 17	 mov	 dl, BYTE PTR [eax+23]
  00194	84 d2		 test	 dl, dl
  00196	74 68		 je	 SHORT $LN73@LoadInt_e@9
  00198	80 f2 ea	 xor	 dl, -22			; ffffffeaH
  0019b	80 78 18 00	 cmp	 BYTE PTR [eax+24], 0
  0019f	88 55 f3	 mov	 BYTE PTR __k$[ebp+23], dl
  001a2	0f 84 dc 00 00
	00		 je	 $LN1@LoadInt_e@9
  001a8	8a 50 19	 mov	 dl, BYTE PTR [eax+25]
  001ab	84 d2		 test	 dl, dl
  001ad	74 49		 je	 SHORT $LN71@LoadInt_e@9
  001af	32 d1		 xor	 dl, cl
  001b1	88 55 f5	 mov	 BYTE PTR __k$[ebp+25], dl
  001b4	8a 50 1a	 mov	 dl, BYTE PTR [eax+26]
  001b7	84 d2		 test	 dl, dl
  001b9	74 35		 je	 SHORT $LN70@LoadInt_e@9
  001bb	32 d3		 xor	 dl, bl
  001bd	88 55 f6	 mov	 BYTE PTR __k$[ebp+26], dl
  001c0	8a 50 1b	 mov	 dl, BYTE PTR [eax+27]
  001c3	84 d2		 test	 dl, dl
  001c5	74 20		 je	 SHORT $LN69@LoadInt_e@9
  001c7	8a 40 1c	 mov	 al, BYTE PTR [eax+28]
  001ca	80 f2 ea	 xor	 dl, -22			; ffffffeaH
  001cd	88 55 f7	 mov	 BYTE PTR __k$[ebp+27], dl
  001d0	84 c0		 test	 al, al
  001d2	74 0a		 je	 SHORT $LN68@LoadInt_e@9
  001d4	34 ed		 xor	 al, -19			; ffffffedH
  001d6	88 45 f8	 mov	 BYTE PTR __k$[ebp+28], al
  001d9	e9 a6 00 00 00	 jmp	 $LN1@LoadInt_e@9
$LN68@LoadInt_e@9:
  001de	c6 45 f8 ed	 mov	 BYTE PTR __k$[ebp+28], -19 ; ffffffedH
  001e2	e9 9d 00 00 00	 jmp	 $LN1@LoadInt_e@9
$LN69@LoadInt_e@9:
  001e7	c6 45 f7 ea	 mov	 BYTE PTR __k$[ebp+27], -22 ; ffffffeaH
  001eb	e9 94 00 00 00	 jmp	 $LN1@LoadInt_e@9
$LN70@LoadInt_e@9:
  001f0	88 5d f6	 mov	 BYTE PTR __k$[ebp+26], bl
  001f3	e9 8c 00 00 00	 jmp	 $LN1@LoadInt_e@9
$LN71@LoadInt_e@9:
  001f8	88 4d f5	 mov	 BYTE PTR __k$[ebp+25], cl
  001fb	e9 84 00 00 00	 jmp	 $LN1@LoadInt_e@9
$LN73@LoadInt_e@9:
  00200	c6 45 f3 ea	 mov	 BYTE PTR __k$[ebp+23], -22 ; ffffffeaH
  00204	eb 7e		 jmp	 SHORT $LN1@LoadInt_e@9
$LN74@LoadInt_e@9:
  00206	88 5d f2	 mov	 BYTE PTR __k$[ebp+22], bl
  00209	eb 79		 jmp	 SHORT $LN1@LoadInt_e@9
$LN75@LoadInt_e@9:
  0020b	88 4d f1	 mov	 BYTE PTR __k$[ebp+21], cl
  0020e	eb 74		 jmp	 SHORT $LN1@LoadInt_e@9
$LN76@LoadInt_e@9:
  00210	c6 45 f0 ed	 mov	 BYTE PTR __k$[ebp+20], -19 ; ffffffedH
  00214	eb 6e		 jmp	 SHORT $LN1@LoadInt_e@9
$LN77@LoadInt_e@9:
  00216	c6 45 ef ea	 mov	 BYTE PTR __k$[ebp+19], -22 ; ffffffeaH
  0021a	eb 68		 jmp	 SHORT $LN1@LoadInt_e@9
$LN78@LoadInt_e@9:
  0021c	88 5d ee	 mov	 BYTE PTR __k$[ebp+18], bl
  0021f	eb 63		 jmp	 SHORT $LN1@LoadInt_e@9
$LN79@LoadInt_e@9:
  00221	88 4d ed	 mov	 BYTE PTR __k$[ebp+17], cl
  00224	eb 5e		 jmp	 SHORT $LN1@LoadInt_e@9
$LN80@LoadInt_e@9:
  00226	c6 45 ec ed	 mov	 BYTE PTR __k$[ebp+16], -19 ; ffffffedH
  0022a	eb 58		 jmp	 SHORT $LN1@LoadInt_e@9
$LN81@LoadInt_e@9:
  0022c	c6 45 eb ea	 mov	 BYTE PTR __k$[ebp+15], -22 ; ffffffeaH
  00230	eb 52		 jmp	 SHORT $LN1@LoadInt_e@9
$LN82@LoadInt_e@9:
  00232	88 5d ea	 mov	 BYTE PTR __k$[ebp+14], bl
  00235	eb 4d		 jmp	 SHORT $LN1@LoadInt_e@9
$LN83@LoadInt_e@9:
  00237	88 4d e9	 mov	 BYTE PTR __k$[ebp+13], cl
  0023a	eb 48		 jmp	 SHORT $LN1@LoadInt_e@9
$LN84@LoadInt_e@9:
  0023c	c6 45 e8 ed	 mov	 BYTE PTR __k$[ebp+12], -19 ; ffffffedH
  00240	eb 42		 jmp	 SHORT $LN1@LoadInt_e@9
$LN85@LoadInt_e@9:
  00242	c6 45 e7 ea	 mov	 BYTE PTR __k$[ebp+11], -22 ; ffffffeaH
  00246	eb 3c		 jmp	 SHORT $LN1@LoadInt_e@9
$LN86@LoadInt_e@9:
  00248	88 5d e6	 mov	 BYTE PTR __k$[ebp+10], bl
  0024b	eb 37		 jmp	 SHORT $LN1@LoadInt_e@9
$LN87@LoadInt_e@9:
  0024d	88 4d e5	 mov	 BYTE PTR __k$[ebp+9], cl
  00250	eb 32		 jmp	 SHORT $LN1@LoadInt_e@9
$LN88@LoadInt_e@9:
  00252	c6 45 e4 ed	 mov	 BYTE PTR __k$[ebp+8], -19 ; ffffffedH
  00256	eb 2c		 jmp	 SHORT $LN1@LoadInt_e@9
$LN89@LoadInt_e@9:
  00258	c6 45 e3 ea	 mov	 BYTE PTR __k$[ebp+7], -22 ; ffffffeaH
  0025c	eb 26		 jmp	 SHORT $LN1@LoadInt_e@9
$LN90@LoadInt_e@9:
  0025e	88 5d e2	 mov	 BYTE PTR __k$[ebp+6], bl
  00261	eb 21		 jmp	 SHORT $LN1@LoadInt_e@9
$LN91@LoadInt_e@9:
  00263	88 4d e1	 mov	 BYTE PTR __k$[ebp+5], cl
  00266	eb 1c		 jmp	 SHORT $LN1@LoadInt_e@9
$LN92@LoadInt_e@9:
  00268	c6 45 e0 ed	 mov	 BYTE PTR __k$[ebp+4], -19 ; ffffffedH
  0026c	eb 16		 jmp	 SHORT $LN1@LoadInt_e@9
$LN93@LoadInt_e@9:
  0026e	c6 45 df ea	 mov	 BYTE PTR __k$[ebp+3], -22 ; ffffffeaH
  00272	eb 10		 jmp	 SHORT $LN1@LoadInt_e@9
$LN94@LoadInt_e@9:
  00274	c6 45 de eb	 mov	 BYTE PTR __k$[ebp+2], -21 ; ffffffebH
  00278	eb 0a		 jmp	 SHORT $LN1@LoadInt_e@9
$LN95@LoadInt_e@9:
  0027a	c6 45 dd ec	 mov	 BYTE PTR __k$[ebp+1], -20 ; ffffffecH
  0027e	eb 04		 jmp	 SHORT $LN1@LoadInt_e@9
$LN96@LoadInt_e@9:
  00280	c6 45 dc ed	 mov	 BYTE PTR __k$[ebp], -19	; ffffffedH
$LN1@LoadInt_e@9:
  00284	6a 06		 push	 6
  00286	8d 45 dc	 lea	 eax, DWORD PTR __k$[ebp]
  00289	c6 45 f4 00	 mov	 BYTE PTR __k$[ebp+24], 0
  0028d	5a		 pop	 edx
$LL104@LoadInt_e@9:
  0028e	81 30 ed ec eb
	ea		 xor	 DWORD PTR [eax], -353637139 ; eaebecedH
  00294	83 c0 04	 add	 eax, 4
  00297	4a		 dec	 edx
  00298	75 f4		 jne	 SHORT $LL104@LoadInt_e@9

; 120  : 		return LoadInt(_k, i);

  0029a	ff 75 0c	 push	 DWORD PTR _i$[ebp]
  0029d	8d 45 dc	 lea	 eax, DWORD PTR __k$[ebp]
  002a0	50		 push	 eax
  002a1	8b ce		 mov	 ecx, esi
  002a3	ff 15 00 00 00
	00		 call	 DWORD PTR __imp_?LoadInt@ioINILoader@@QAEHPBDH@Z

; 121  : 	}

  002a9	8b 4d fc	 mov	 ecx, DWORD PTR __$ArrayPad$[ebp]
  002ac	5e		 pop	 esi
  002ad	33 cd		 xor	 ecx, ebp
  002af	5b		 pop	 ebx
  002b0	e8 00 00 00 00	 call	 @__security_check_cookie@4
  002b5	c9		 leave
  002b6	c2 08 00	 ret	 8
??$LoadInt_e@$0BJ@@ioINILoader@@QAEHAAY0BJ@$$CBDH@Z ENDP ; ioINILoader::LoadInt_e<25>
_TEXT	ENDS
PUBLIC	??$_Cons_val@V?$allocator@PAUEmoticonInfo@@@std@@PAUEmoticonInfo@@AAPAU3@@std@@YAXAAV?$allocator@PAUEmoticonInfo@@@0@PAPAUEmoticonInfo@@AAPAU2@@Z ; std::_Cons_val<std::allocator<EmoticonInfo *>,EmoticonInfo *,EmoticonInfo * &>
; Function compile flags: /Ogsp
; File c:\program files (x86)\microsoft visual studio 10.0\vc\include\xmemory
;	COMDAT ??$_Cons_val@V?$allocator@PAUEmoticonInfo@@@std@@PAUEmoticonInfo@@AAPAU3@@std@@YAXAAV?$allocator@PAUEmoticonInfo@@@0@PAPAUEmoticonInfo@@AAPAU2@@Z
_TEXT	SEGMENT
__Alval$ = 8						; size = 4
__Pdest$ = 12						; size = 4
__Src$ = 16						; size = 4
??$_Cons_val@V?$allocator@PAUEmoticonInfo@@@std@@PAUEmoticonInfo@@AAPAU3@@std@@YAXAAV?$allocator@PAUEmoticonInfo@@@0@PAPAUEmoticonInfo@@AAPAU2@@Z PROC ; std::_Cons_val<std::allocator<EmoticonInfo *>,EmoticonInfo *,EmoticonInfo * &>, COMDAT

; 279  : 	{	// construct using allocator

  00000	55		 push	 ebp
  00001	8b ec		 mov	 ebp, esp

; 280  : 	_Alval.construct(_Pdest, _STD forward<_Ty2>(_Src));

  00003	8b 45 0c	 mov	 eax, DWORD PTR __Pdest$[ebp]
  00006	85 c0		 test	 eax, eax
  00008	74 07		 je	 SHORT $LN7@Cons_val
  0000a	8b 4d 10	 mov	 ecx, DWORD PTR __Src$[ebp]
  0000d	8b 09		 mov	 ecx, DWORD PTR [ecx]
  0000f	89 08		 mov	 DWORD PTR [eax], ecx
$LN7@Cons_val:

; 281  : 	}

  00011	5d		 pop	 ebp
  00012	c3		 ret	 0
??$_Cons_val@V?$allocator@PAUEmoticonInfo@@@std@@PAUEmoticonInfo@@AAPAU3@@std@@YAXAAV?$allocator@PAUEmoticonInfo@@@0@PAPAUEmoticonInfo@@AAPAU2@@Z ENDP ; std::_Cons_val<std::allocator<EmoticonInfo *>,EmoticonInfo *,EmoticonInfo * &>
_TEXT	ENDS
PUBLIC	??$_Move@PAPAUEmoticonInfo@@PAPAU1@@std@@YAPAPAUEmoticonInfo@@PAPAU1@00@Z ; std::_Move<EmoticonInfo * *,EmoticonInfo * *>
; Function compile flags: /Ogsp
; File c:\program files (x86)\microsoft visual studio 10.0\vc\include\xutility
;	COMDAT ??$_Move@PAPAUEmoticonInfo@@PAPAU1@@std@@YAPAPAUEmoticonInfo@@PAPAU1@00@Z
_TEXT	SEGMENT
__Cat$531990 = -4					; size = 1
__First$ = 8						; size = 4
__Last$ = 12						; size = 4
__Dest$ = 16						; size = 4
??$_Move@PAPAUEmoticonInfo@@PAPAU1@@std@@YAPAPAUEmoticonInfo@@PAPAU1@00@Z PROC ; std::_Move<EmoticonInfo * *,EmoticonInfo * *>, COMDAT

; 2533 : 	{	// move [_First, _Last) to [_Dest, ...), unchecked

  00000	55		 push	 ebp
  00001	8b ec		 mov	 ebp, esp
  00003	51		 push	 ecx

; 2534 : 	return (_Move(_First, _Last,
; 2535 : 		_Dest, _Ptr_cat(_First, _Dest)));

  00004	ff 75 fc	 push	 DWORD PTR __Cat$531990[ebp]
  00007	ff 75 10	 push	 DWORD PTR __Dest$[ebp]
  0000a	ff 75 0c	 push	 DWORD PTR __Last$[ebp]
  0000d	ff 75 08	 push	 DWORD PTR __First$[ebp]
  00010	e8 00 00 00 00	 call	 ??$_Move@PAPAUEmoticonInfo@@PAPAU1@@std@@YAPAPAUEmoticonInfo@@PAPAU1@00U_Scalar_ptr_iterator_tag@0@@Z ; std::_Move<EmoticonInfo * *,EmoticonInfo * *>
  00015	83 c4 10	 add	 esp, 16			; 00000010H

; 2536 : 	}

  00018	c9		 leave
  00019	c3		 ret	 0
??$_Move@PAPAUEmoticonInfo@@PAPAU1@@std@@YAPAPAUEmoticonInfo@@PAPAU1@00@Z ENDP ; std::_Move<EmoticonInfo * *,EmoticonInfo * *>
_TEXT	ENDS
PUBLIC	??$_Destroy_range@V?$allocator@PAUEmoticonInfo@@@std@@@std@@YAXPAPAUEmoticonInfo@@0AAV?$allocator@PAUEmoticonInfo@@@0@@Z ; std::_Destroy_range<std::allocator<EmoticonInfo *> >
; Function compile flags: /Ogsp
; File c:\program files (x86)\microsoft visual studio 10.0\vc\include\xmemory
;	COMDAT ??$_Destroy_range@V?$allocator@PAUEmoticonInfo@@@std@@@std@@YAXPAPAUEmoticonInfo@@0AAV?$allocator@PAUEmoticonInfo@@@0@@Z
_TEXT	SEGMENT
__First$ = 8						; size = 4
__Last$ = 12						; size = 4
__Al$ = 16						; size = 4
??$_Destroy_range@V?$allocator@PAUEmoticonInfo@@@std@@@std@@YAXPAPAUEmoticonInfo@@0AAV?$allocator@PAUEmoticonInfo@@@0@@Z PROC ; std::_Destroy_range<std::allocator<EmoticonInfo *> >, COMDAT

; 88   : 	_Destroy_range(_First, _Last, _Al, _Ptr_cat(_First, _Last));
; 89   : 	}

  00000	c3		 ret	 0
??$_Destroy_range@V?$allocator@PAUEmoticonInfo@@@std@@@std@@YAXPAPAUEmoticonInfo@@0AAV?$allocator@PAUEmoticonInfo@@@0@@Z ENDP ; std::_Destroy_range<std::allocator<EmoticonInfo *> >
_TEXT	ENDS
PUBLIC	?construct@?$allocator@PAUEmoticonInfo@@@std@@QAEXPAPAUEmoticonInfo@@ABQAU3@@Z ; std::allocator<EmoticonInfo *>::construct
; Function compile flags: /Ogsp
;	COMDAT ?construct@?$allocator@PAUEmoticonInfo@@@std@@QAEXPAPAUEmoticonInfo@@ABQAU3@@Z
_TEXT	SEGMENT
__Ptr$ = 8						; size = 4
__Val$ = 12						; size = 4
?construct@?$allocator@PAUEmoticonInfo@@@std@@QAEXPAPAUEmoticonInfo@@ABQAU3@@Z PROC ; std::allocator<EmoticonInfo *>::construct, COMDAT
; _this$ = ecx

; 196  : 		{	// construct object at _Ptr with value _Val

  00000	55		 push	 ebp
  00001	8b ec		 mov	 ebp, esp

; 197  : 		_Construct(_Ptr, _Val);

  00003	8b 45 08	 mov	 eax, DWORD PTR __Ptr$[ebp]
  00006	85 c0		 test	 eax, eax
  00008	74 07		 je	 SHORT $LN5@construct@2
  0000a	8b 4d 0c	 mov	 ecx, DWORD PTR __Val$[ebp]
  0000d	8b 09		 mov	 ecx, DWORD PTR [ecx]
  0000f	89 08		 mov	 DWORD PTR [eax], ecx
$LN5@construct@2:

; 198  : 		}

  00011	5d		 pop	 ebp
  00012	c2 08 00	 ret	 8
?construct@?$allocator@PAUEmoticonInfo@@@std@@QAEXPAPAUEmoticonInfo@@ABQAU3@@Z ENDP ; std::allocator<EmoticonInfo *>::construct
_TEXT	ENDS
PUBLIC	??G?$_Vector_iterator@V?$_Vector_val@PAUEmoticonInfo@@V?$allocator@PAUEmoticonInfo@@@std@@@std@@@std@@QBEHABV?$_Vector_const_iterator@V?$_Vector_val@PAUEmoticonInfo@@V?$allocator@PAUEmoticonInfo@@@std@@@std@@@1@@Z ; std::_Vector_iterator<std::_Vector_val<EmoticonInfo *,std::allocator<EmoticonInfo *> > >::operator-
; Function compile flags: /Ogsp
; File c:\program files (x86)\microsoft visual studio 10.0\vc\include\vector
;	COMDAT ??G?$_Vector_iterator@V?$_Vector_val@PAUEmoticonInfo@@V?$allocator@PAUEmoticonInfo@@@std@@@std@@@std@@QBEHABV?$_Vector_const_iterator@V?$_Vector_val@PAUEmoticonInfo@@V?$allocator@PAUEmoticonInfo@@@std@@@std@@@1@@Z
_TEXT	SEGMENT
__Right$ = 8						; size = 4
??G?$_Vector_iterator@V?$_Vector_val@PAUEmoticonInfo@@V?$allocator@PAUEmoticonInfo@@@std@@@std@@@std@@QBEHABV?$_Vector_const_iterator@V?$_Vector_val@PAUEmoticonInfo@@V?$allocator@PAUEmoticonInfo@@@std@@@std@@@1@@Z PROC ; std::_Vector_iterator<std::_Vector_val<EmoticonInfo *,std::allocator<EmoticonInfo *> > >::operator-, COMDAT
; _this$ = ecx

; 380  : 		{	// return difference of iterators

  00000	55		 push	 ebp
  00001	8b ec		 mov	 ebp, esp

; 381  : 		return (*(_Mybase *)this - _Right);

  00003	8b 01		 mov	 eax, DWORD PTR [ecx]
  00005	8b 4d 08	 mov	 ecx, DWORD PTR __Right$[ebp]
  00008	2b 01		 sub	 eax, DWORD PTR [ecx]
  0000a	c1 f8 02	 sar	 eax, 2

; 382  : 		}

  0000d	5d		 pop	 ebp
  0000e	c2 04 00	 ret	 4
??G?$_Vector_iterator@V?$_Vector_val@PAUEmoticonInfo@@V?$allocator@PAUEmoticonInfo@@@std@@@std@@@std@@QBEHABV?$_Vector_const_iterator@V?$_Vector_val@PAUEmoticonInfo@@V?$allocator@PAUEmoticonInfo@@@std@@@std@@@1@@Z ENDP ; std::_Vector_iterator<std::_Vector_val<EmoticonInfo *,std::allocator<EmoticonInfo *> > >::operator-
_TEXT	ENDS
PUBLIC	??$encodeString@$0BD@@ioINILoader_e@@AAEPADAAY0BD@$$CBDPAD@Z ; ioINILoader_e::encodeString<19>
; Function compile flags: /Ogsp
; File d:\lost saga for developer\youtube\tutorial\source\src\io3dengine\ioiniloader.h
;	COMDAT ??$encodeString@$0BD@@ioINILoader_e@@AAEPADAAY0BD@$$CBDPAD@Z
_TEXT	SEGMENT
_s$ = 8							; size = 4
_e$ = 12						; size = 4
??$encodeString@$0BD@@ioINILoader_e@@AAEPADAAY0BD@$$CBDPAD@Z PROC ; ioINILoader_e::encodeString<19>, COMDAT
; _this$ = ecx

; 215  : 	{

  00000	55		 push	 ebp
  00001	8b ec		 mov	 ebp, esp

; 216  : 		__ENCSTR(s, e);

  00003	8b 4d 08	 mov	 ecx, DWORD PTR _s$[ebp]
  00006	8a 11		 mov	 dl, BYTE PTR [ecx]
  00008	8b 45 0c	 mov	 eax, DWORD PTR _e$[ebp]
  0000b	53		 push	 ebx
  0000c	84 d2		 test	 dl, dl
  0000e	0f 84 6a 04 00
	00		 je	 $LN96@encodeStri
  00014	80 f2 ed	 xor	 dl, -19			; ffffffedH
  00017	88 10		 mov	 BYTE PTR [eax], dl
  00019	8a 51 01	 mov	 dl, BYTE PTR [ecx+1]
  0001c	84 d2		 test	 dl, dl
  0001e	0f 84 54 04 00
	00		 je	 $LN95@encodeStri
  00024	80 f2 ec	 xor	 dl, -20			; ffffffecH
  00027	88 50 01	 mov	 BYTE PTR [eax+1], dl
  0002a	8a 51 02	 mov	 dl, BYTE PTR [ecx+2]
  0002d	84 d2		 test	 dl, dl
  0002f	0f 84 3d 04 00
	00		 je	 $LN94@encodeStri
  00035	b3 eb		 mov	 bl, -21			; ffffffebH
  00037	32 d3		 xor	 dl, bl
  00039	88 50 02	 mov	 BYTE PTR [eax+2], dl
  0003c	8a 51 03	 mov	 dl, BYTE PTR [ecx+3]
  0003f	84 d2		 test	 dl, dl
  00041	0f 84 25 04 00
	00		 je	 $LN93@encodeStri
  00047	80 f2 ea	 xor	 dl, -22			; ffffffeaH
  0004a	88 50 03	 mov	 BYTE PTR [eax+3], dl
  0004d	8a 51 04	 mov	 dl, BYTE PTR [ecx+4]
  00050	84 d2		 test	 dl, dl
  00052	0f 84 0e 04 00
	00		 je	 $LN92@encodeStri
  00058	80 f2 ed	 xor	 dl, -19			; ffffffedH
  0005b	88 50 04	 mov	 BYTE PTR [eax+4], dl
  0005e	8a 51 05	 mov	 dl, BYTE PTR [ecx+5]
  00061	84 d2		 test	 dl, dl
  00063	0f 84 f7 03 00
	00		 je	 $LN91@encodeStri
  00069	80 f2 ec	 xor	 dl, -20			; ffffffecH
  0006c	88 50 05	 mov	 BYTE PTR [eax+5], dl
  0006f	8a 51 06	 mov	 dl, BYTE PTR [ecx+6]
  00072	84 d2		 test	 dl, dl
  00074	0f 84 e1 03 00
	00		 je	 $LN90@encodeStri
  0007a	32 d3		 xor	 dl, bl
  0007c	88 50 06	 mov	 BYTE PTR [eax+6], dl
  0007f	8a 51 07	 mov	 dl, BYTE PTR [ecx+7]
  00082	84 d2		 test	 dl, dl
  00084	0f 84 cb 03 00
	00		 je	 $LN89@encodeStri
  0008a	80 f2 ea	 xor	 dl, -22			; ffffffeaH
  0008d	88 50 07	 mov	 BYTE PTR [eax+7], dl
  00090	8a 51 08	 mov	 dl, BYTE PTR [ecx+8]
  00093	84 d2		 test	 dl, dl
  00095	0f 84 b4 03 00
	00		 je	 $LN88@encodeStri
  0009b	80 f2 ed	 xor	 dl, -19			; ffffffedH
  0009e	88 50 08	 mov	 BYTE PTR [eax+8], dl
  000a1	8a 51 09	 mov	 dl, BYTE PTR [ecx+9]
  000a4	84 d2		 test	 dl, dl
  000a6	0f 84 9d 03 00
	00		 je	 $LN87@encodeStri
  000ac	80 f2 ec	 xor	 dl, -20			; ffffffecH
  000af	88 50 09	 mov	 BYTE PTR [eax+9], dl
  000b2	8a 51 0a	 mov	 dl, BYTE PTR [ecx+10]
  000b5	84 d2		 test	 dl, dl
  000b7	0f 84 87 03 00
	00		 je	 $LN86@encodeStri
  000bd	32 d3		 xor	 dl, bl
  000bf	88 50 0a	 mov	 BYTE PTR [eax+10], dl
  000c2	8a 51 0b	 mov	 dl, BYTE PTR [ecx+11]
  000c5	84 d2		 test	 dl, dl
  000c7	0f 84 71 03 00
	00		 je	 $LN85@encodeStri
  000cd	80 f2 ea	 xor	 dl, -22			; ffffffeaH
  000d0	88 50 0b	 mov	 BYTE PTR [eax+11], dl
  000d3	8a 51 0c	 mov	 dl, BYTE PTR [ecx+12]
  000d6	84 d2		 test	 dl, dl
  000d8	0f 84 5a 03 00
	00		 je	 $LN84@encodeStri
  000de	80 f2 ed	 xor	 dl, -19			; ffffffedH
  000e1	88 50 0c	 mov	 BYTE PTR [eax+12], dl
  000e4	8a 51 0d	 mov	 dl, BYTE PTR [ecx+13]
  000e7	84 d2		 test	 dl, dl
  000e9	0f 84 43 03 00
	00		 je	 $LN83@encodeStri
  000ef	80 f2 ec	 xor	 dl, -20			; ffffffecH
  000f2	88 50 0d	 mov	 BYTE PTR [eax+13], dl
  000f5	8a 51 0e	 mov	 dl, BYTE PTR [ecx+14]
  000f8	84 d2		 test	 dl, dl
  000fa	0f 84 2d 03 00
	00		 je	 $LN82@encodeStri
  00100	32 d3		 xor	 dl, bl
  00102	88 50 0e	 mov	 BYTE PTR [eax+14], dl
  00105	8a 51 0f	 mov	 dl, BYTE PTR [ecx+15]
  00108	84 d2		 test	 dl, dl
  0010a	0f 84 17 03 00
	00		 je	 $LN81@encodeStri
  00110	80 f2 ea	 xor	 dl, -22			; ffffffeaH
  00113	88 50 0f	 mov	 BYTE PTR [eax+15], dl
  00116	8a 51 10	 mov	 dl, BYTE PTR [ecx+16]
  00119	84 d2		 test	 dl, dl
  0011b	0f 84 00 03 00
	00		 je	 $LN80@encodeStri
  00121	80 f2 ed	 xor	 dl, -19			; ffffffedH
  00124	88 50 10	 mov	 BYTE PTR [eax+16], dl
  00127	8a 51 11	 mov	 dl, BYTE PTR [ecx+17]
  0012a	84 d2		 test	 dl, dl
  0012c	0f 84 e9 02 00
	00		 je	 $LN79@encodeStri
  00132	80 f2 ec	 xor	 dl, -20			; ffffffecH
  00135	88 50 11	 mov	 BYTE PTR [eax+17], dl
  00138	8a 51 12	 mov	 dl, BYTE PTR [ecx+18]
  0013b	84 d2		 test	 dl, dl
  0013d	0f 84 d3 02 00
	00		 je	 $LN78@encodeStri
  00143	32 d3		 xor	 dl, bl
  00145	88 50 12	 mov	 BYTE PTR [eax+18], dl
  00148	8a 51 13	 mov	 dl, BYTE PTR [ecx+19]
  0014b	84 d2		 test	 dl, dl
  0014d	0f 84 bd 02 00
	00		 je	 $LN77@encodeStri
  00153	80 f2 ea	 xor	 dl, -22			; ffffffeaH
  00156	88 50 13	 mov	 BYTE PTR [eax+19], dl
  00159	8a 51 14	 mov	 dl, BYTE PTR [ecx+20]
  0015c	84 d2		 test	 dl, dl
  0015e	0f 84 a6 02 00
	00		 je	 $LN76@encodeStri
  00164	80 f2 ed	 xor	 dl, -19			; ffffffedH
  00167	88 50 14	 mov	 BYTE PTR [eax+20], dl
  0016a	8a 51 15	 mov	 dl, BYTE PTR [ecx+21]
  0016d	84 d2		 test	 dl, dl
  0016f	0f 84 8f 02 00
	00		 je	 $LN75@encodeStri
  00175	80 f2 ec	 xor	 dl, -20			; ffffffecH
  00178	88 50 15	 mov	 BYTE PTR [eax+21], dl
  0017b	8a 51 16	 mov	 dl, BYTE PTR [ecx+22]
  0017e	84 d2		 test	 dl, dl
  00180	0f 84 79 02 00
	00		 je	 $LN74@encodeStri
  00186	32 d3		 xor	 dl, bl
  00188	88 50 16	 mov	 BYTE PTR [eax+22], dl
  0018b	8a 51 17	 mov	 dl, BYTE PTR [ecx+23]
  0018e	84 d2		 test	 dl, dl
  00190	0f 84 60 02 00
	00		 je	 $LN73@encodeStri
  00196	80 f2 ea	 xor	 dl, -22			; ffffffeaH
  00199	88 50 17	 mov	 BYTE PTR [eax+23], dl
  0019c	8a 51 18	 mov	 dl, BYTE PTR [ecx+24]
  0019f	84 d2		 test	 dl, dl
  001a1	0f 84 46 02 00
	00		 je	 $LN72@encodeStri
  001a7	80 f2 ed	 xor	 dl, -19			; ffffffedH
  001aa	88 50 18	 mov	 BYTE PTR [eax+24], dl
  001ad	8a 51 19	 mov	 dl, BYTE PTR [ecx+25]
  001b0	84 d2		 test	 dl, dl
  001b2	0f 84 2c 02 00
	00		 je	 $LN71@encodeStri
  001b8	80 f2 ec	 xor	 dl, -20			; ffffffecH
  001bb	88 50 19	 mov	 BYTE PTR [eax+25], dl
  001be	8a 51 1a	 mov	 dl, BYTE PTR [ecx+26]
  001c1	84 d2		 test	 dl, dl
  001c3	0f 84 13 02 00
	00		 je	 $LN70@encodeStri
  001c9	32 d3		 xor	 dl, bl
  001cb	88 50 1a	 mov	 BYTE PTR [eax+26], dl
  001ce	8a 51 1b	 mov	 dl, BYTE PTR [ecx+27]
  001d1	84 d2		 test	 dl, dl
  001d3	0f 84 fa 01 00
	00		 je	 $LN69@encodeStri
  001d9	80 f2 ea	 xor	 dl, -22			; ffffffeaH
  001dc	88 50 1b	 mov	 BYTE PTR [eax+27], dl
  001df	8a 51 1c	 mov	 dl, BYTE PTR [ecx+28]
  001e2	84 d2		 test	 dl, dl
  001e4	0f 84 e0 01 00
	00		 je	 $LN68@encodeStri
  001ea	80 f2 ed	 xor	 dl, -19			; ffffffedH
  001ed	88 50 1c	 mov	 BYTE PTR [eax+28], dl
  001f0	8a 51 1d	 mov	 dl, BYTE PTR [ecx+29]
  001f3	84 d2		 test	 dl, dl
  001f5	0f 84 c6 01 00
	00		 je	 $LN67@encodeStri
  001fb	80 f2 ec	 xor	 dl, -20			; ffffffecH
  001fe	88 50 1d	 mov	 BYTE PTR [eax+29], dl
  00201	8a 51 1e	 mov	 dl, BYTE PTR [ecx+30]
  00204	84 d2		 test	 dl, dl
  00206	0f 84 ad 01 00
	00		 je	 $LN66@encodeStri
  0020c	32 d3		 xor	 dl, bl
  0020e	88 50 1e	 mov	 BYTE PTR [eax+30], dl
  00211	8a 51 1f	 mov	 dl, BYTE PTR [ecx+31]
  00214	84 d2		 test	 dl, dl
  00216	0f 84 94 01 00
	00		 je	 $LN65@encodeStri
  0021c	80 f2 ea	 xor	 dl, -22			; ffffffeaH
  0021f	88 50 1f	 mov	 BYTE PTR [eax+31], dl
  00222	8a 51 20	 mov	 dl, BYTE PTR [ecx+32]
  00225	84 d2		 test	 dl, dl
  00227	0f 84 7a 01 00
	00		 je	 $LN64@encodeStri
  0022d	80 f2 ed	 xor	 dl, -19			; ffffffedH
  00230	88 50 20	 mov	 BYTE PTR [eax+32], dl
  00233	8a 51 21	 mov	 dl, BYTE PTR [ecx+33]
  00236	84 d2		 test	 dl, dl
  00238	0f 84 60 01 00
	00		 je	 $LN63@encodeStri
  0023e	80 f2 ec	 xor	 dl, -20			; ffffffecH
  00241	88 50 21	 mov	 BYTE PTR [eax+33], dl
  00244	8a 51 22	 mov	 dl, BYTE PTR [ecx+34]
  00247	84 d2		 test	 dl, dl
  00249	0f 84 47 01 00
	00		 je	 $LN62@encodeStri
  0024f	32 d3		 xor	 dl, bl
  00251	88 50 22	 mov	 BYTE PTR [eax+34], dl
  00254	8a 51 23	 mov	 dl, BYTE PTR [ecx+35]
  00257	84 d2		 test	 dl, dl
  00259	0f 84 2e 01 00
	00		 je	 $LN61@encodeStri
  0025f	80 f2 ea	 xor	 dl, -22			; ffffffeaH
  00262	88 50 23	 mov	 BYTE PTR [eax+35], dl
  00265	8a 51 24	 mov	 dl, BYTE PTR [ecx+36]
  00268	84 d2		 test	 dl, dl
  0026a	0f 84 14 01 00
	00		 je	 $LN60@encodeStri
  00270	80 f2 ed	 xor	 dl, -19			; ffffffedH
  00273	88 50 24	 mov	 BYTE PTR [eax+36], dl
  00276	8a 51 25	 mov	 dl, BYTE PTR [ecx+37]
  00279	84 d2		 test	 dl, dl
  0027b	0f 84 fa 00 00
	00		 je	 $LN59@encodeStri
  00281	80 f2 ec	 xor	 dl, -20			; ffffffecH
  00284	88 50 25	 mov	 BYTE PTR [eax+37], dl
  00287	8a 51 26	 mov	 dl, BYTE PTR [ecx+38]
  0028a	84 d2		 test	 dl, dl
  0028c	0f 84 e1 00 00
	00		 je	 $LN58@encodeStri
  00292	32 d3		 xor	 dl, bl
  00294	88 50 26	 mov	 BYTE PTR [eax+38], dl
  00297	8a 51 27	 mov	 dl, BYTE PTR [ecx+39]
  0029a	84 d2		 test	 dl, dl
  0029c	0f 84 c8 00 00
	00		 je	 $LN57@encodeStri
  002a2	80 f2 ea	 xor	 dl, -22			; ffffffeaH
  002a5	88 50 27	 mov	 BYTE PTR [eax+39], dl
  002a8	8a 51 28	 mov	 dl, BYTE PTR [ecx+40]
  002ab	84 d2		 test	 dl, dl
  002ad	0f 84 ae 00 00
	00		 je	 $LN56@encodeStri
  002b3	80 f2 ed	 xor	 dl, -19			; ffffffedH
  002b6	88 50 28	 mov	 BYTE PTR [eax+40], dl
  002b9	8a 51 29	 mov	 dl, BYTE PTR [ecx+41]
  002bc	84 d2		 test	 dl, dl
  002be	0f 84 94 00 00
	00		 je	 $LN55@encodeStri
  002c4	80 f2 ec	 xor	 dl, -20			; ffffffecH
  002c7	88 50 29	 mov	 BYTE PTR [eax+41], dl
  002ca	8a 51 2a	 mov	 dl, BYTE PTR [ecx+42]
  002cd	84 d2		 test	 dl, dl
  002cf	74 7f		 je	 SHORT $LN54@encodeStri
  002d1	32 d3		 xor	 dl, bl
  002d3	88 50 2a	 mov	 BYTE PTR [eax+42], dl
  002d6	8a 51 2b	 mov	 dl, BYTE PTR [ecx+43]
  002d9	84 d2		 test	 dl, dl
  002db	74 6a		 je	 SHORT $LN53@encodeStri
  002dd	80 f2 ea	 xor	 dl, -22			; ffffffeaH
  002e0	88 50 2b	 mov	 BYTE PTR [eax+43], dl
  002e3	8a 51 2c	 mov	 dl, BYTE PTR [ecx+44]
  002e6	84 d2		 test	 dl, dl
  002e8	74 54		 je	 SHORT $LN52@encodeStri
  002ea	80 f2 ed	 xor	 dl, -19			; ffffffedH
  002ed	88 50 2c	 mov	 BYTE PTR [eax+44], dl
  002f0	8a 51 2d	 mov	 dl, BYTE PTR [ecx+45]
  002f3	84 d2		 test	 dl, dl
  002f5	74 3e		 je	 SHORT $LN51@encodeStri
  002f7	80 f2 ec	 xor	 dl, -20			; ffffffecH
  002fa	88 50 2d	 mov	 BYTE PTR [eax+45], dl
  002fd	8a 51 2e	 mov	 dl, BYTE PTR [ecx+46]
  00300	84 d2		 test	 dl, dl
  00302	74 29		 je	 SHORT $LN50@encodeStri
  00304	32 d3		 xor	 dl, bl
  00306	88 50 2e	 mov	 BYTE PTR [eax+46], dl
  00309	8a 51 2f	 mov	 dl, BYTE PTR [ecx+47]
  0030c	84 d2		 test	 dl, dl
  0030e	74 14		 je	 SHORT $LN49@encodeStri
  00310	80 f2 ea	 xor	 dl, -22			; ffffffeaH
  00313	88 50 2f	 mov	 BYTE PTR [eax+47], dl
  00316	8a 49 30	 mov	 cl, BYTE PTR [ecx+48]
  00319	80 f1 ed	 xor	 cl, -19			; ffffffedH
  0031c	88 48 30	 mov	 BYTE PTR [eax+48], cl
  0031f	e9 5d 01 00 00	 jmp	 $LN1@encodeStri
$LN49@encodeStri:
  00324	c6 40 2f ea	 mov	 BYTE PTR [eax+47], -22	; ffffffeaH
  00328	e9 54 01 00 00	 jmp	 $LN1@encodeStri
$LN50@encodeStri:
  0032d	88 58 2e	 mov	 BYTE PTR [eax+46], bl
  00330	e9 4c 01 00 00	 jmp	 $LN1@encodeStri
$LN51@encodeStri:
  00335	c6 40 2d ec	 mov	 BYTE PTR [eax+45], -20	; ffffffecH
  00339	e9 43 01 00 00	 jmp	 $LN1@encodeStri
$LN52@encodeStri:
  0033e	c6 40 2c ed	 mov	 BYTE PTR [eax+44], -19	; ffffffedH
  00342	e9 3a 01 00 00	 jmp	 $LN1@encodeStri
$LN53@encodeStri:
  00347	c6 40 2b ea	 mov	 BYTE PTR [eax+43], -22	; ffffffeaH
  0034b	e9 31 01 00 00	 jmp	 $LN1@encodeStri
$LN54@encodeStri:
  00350	88 58 2a	 mov	 BYTE PTR [eax+42], bl
  00353	e9 29 01 00 00	 jmp	 $LN1@encodeStri
$LN55@encodeStri:
  00358	c6 40 29 ec	 mov	 BYTE PTR [eax+41], -20	; ffffffecH
  0035c	e9 20 01 00 00	 jmp	 $LN1@encodeStri
$LN56@encodeStri:
  00361	c6 40 28 ed	 mov	 BYTE PTR [eax+40], -19	; ffffffedH
  00365	e9 17 01 00 00	 jmp	 $LN1@encodeStri
$LN57@encodeStri:
  0036a	c6 40 27 ea	 mov	 BYTE PTR [eax+39], -22	; ffffffeaH
  0036e	e9 0e 01 00 00	 jmp	 $LN1@encodeStri
$LN58@encodeStri:
  00373	88 58 26	 mov	 BYTE PTR [eax+38], bl
  00376	e9 06 01 00 00	 jmp	 $LN1@encodeStri
$LN59@encodeStri:
  0037b	c6 40 25 ec	 mov	 BYTE PTR [eax+37], -20	; ffffffecH
  0037f	e9 fd 00 00 00	 jmp	 $LN1@encodeStri
$LN60@encodeStri:
  00384	c6 40 24 ed	 mov	 BYTE PTR [eax+36], -19	; ffffffedH
  00388	e9 f4 00 00 00	 jmp	 $LN1@encodeStri
$LN61@encodeStri:
  0038d	c6 40 23 ea	 mov	 BYTE PTR [eax+35], -22	; ffffffeaH
  00391	e9 eb 00 00 00	 jmp	 $LN1@encodeStri
$LN62@encodeStri:
  00396	88 58 22	 mov	 BYTE PTR [eax+34], bl
  00399	e9 e3 00 00 00	 jmp	 $LN1@encodeStri
$LN63@encodeStri:
  0039e	c6 40 21 ec	 mov	 BYTE PTR [eax+33], -20	; ffffffecH
  003a2	e9 da 00 00 00	 jmp	 $LN1@encodeStri
$LN64@encodeStri:
  003a7	c6 40 20 ed	 mov	 BYTE PTR [eax+32], -19	; ffffffedH
  003ab	e9 d1 00 00 00	 jmp	 $LN1@encodeStri
$LN65@encodeStri:
  003b0	c6 40 1f ea	 mov	 BYTE PTR [eax+31], -22	; ffffffeaH
  003b4	e9 c8 00 00 00	 jmp	 $LN1@encodeStri
$LN66@encodeStri:
  003b9	88 58 1e	 mov	 BYTE PTR [eax+30], bl
  003bc	e9 c0 00 00 00	 jmp	 $LN1@encodeStri
$LN67@encodeStri:
  003c1	c6 40 1d ec	 mov	 BYTE PTR [eax+29], -20	; ffffffecH
  003c5	e9 b7 00 00 00	 jmp	 $LN1@encodeStri
$LN68@encodeStri:
  003ca	c6 40 1c ed	 mov	 BYTE PTR [eax+28], -19	; ffffffedH
  003ce	e9 ae 00 00 00	 jmp	 $LN1@encodeStri
$LN69@encodeStri:
  003d3	c6 40 1b ea	 mov	 BYTE PTR [eax+27], -22	; ffffffeaH
  003d7	e9 a5 00 00 00	 jmp	 $LN1@encodeStri
$LN70@encodeStri:
  003dc	88 58 1a	 mov	 BYTE PTR [eax+26], bl
  003df	e9 9d 00 00 00	 jmp	 $LN1@encodeStri
$LN71@encodeStri:
  003e4	c6 40 19 ec	 mov	 BYTE PTR [eax+25], -20	; ffffffecH
  003e8	e9 94 00 00 00	 jmp	 $LN1@encodeStri
$LN72@encodeStri:
  003ed	c6 40 18 ed	 mov	 BYTE PTR [eax+24], -19	; ffffffedH
  003f1	e9 8b 00 00 00	 jmp	 $LN1@encodeStri
$LN73@encodeStri:
  003f6	c6 40 17 ea	 mov	 BYTE PTR [eax+23], -22	; ffffffeaH
  003fa	e9 82 00 00 00	 jmp	 $LN1@encodeStri
$LN74@encodeStri:
  003ff	88 58 16	 mov	 BYTE PTR [eax+22], bl
  00402	eb 7d		 jmp	 SHORT $LN1@encodeStri
$LN75@encodeStri:
  00404	c6 40 15 ec	 mov	 BYTE PTR [eax+21], -20	; ffffffecH
  00408	eb 77		 jmp	 SHORT $LN1@encodeStri
$LN76@encodeStri:
  0040a	c6 40 14 ed	 mov	 BYTE PTR [eax+20], -19	; ffffffedH
  0040e	eb 71		 jmp	 SHORT $LN1@encodeStri
$LN77@encodeStri:
  00410	c6 40 13 ea	 mov	 BYTE PTR [eax+19], -22	; ffffffeaH
  00414	eb 6b		 jmp	 SHORT $LN1@encodeStri
$LN78@encodeStri:
  00416	88 58 12	 mov	 BYTE PTR [eax+18], bl
  00419	eb 66		 jmp	 SHORT $LN1@encodeStri
$LN79@encodeStri:
  0041b	c6 40 11 ec	 mov	 BYTE PTR [eax+17], -20	; ffffffecH
  0041f	eb 60		 jmp	 SHORT $LN1@encodeStri
$LN80@encodeStri:
  00421	c6 40 10 ed	 mov	 BYTE PTR [eax+16], -19	; ffffffedH
  00425	eb 5a		 jmp	 SHORT $LN1@encodeStri
$LN81@encodeStri:
  00427	c6 40 0f ea	 mov	 BYTE PTR [eax+15], -22	; ffffffeaH
  0042b	eb 54		 jmp	 SHORT $LN1@encodeStri
$LN82@encodeStri:
  0042d	88 58 0e	 mov	 BYTE PTR [eax+14], bl
  00430	eb 4f		 jmp	 SHORT $LN1@encodeStri
$LN83@encodeStri:
  00432	c6 40 0d ec	 mov	 BYTE PTR [eax+13], -20	; ffffffecH
  00436	eb 49		 jmp	 SHORT $LN1@encodeStri
$LN84@encodeStri:
  00438	c6 40 0c ed	 mov	 BYTE PTR [eax+12], -19	; ffffffedH
  0043c	eb 43		 jmp	 SHORT $LN1@encodeStri
$LN85@encodeStri:
  0043e	c6 40 0b ea	 mov	 BYTE PTR [eax+11], -22	; ffffffeaH
  00442	eb 3d		 jmp	 SHORT $LN1@encodeStri
$LN86@encodeStri:
  00444	88 58 0a	 mov	 BYTE PTR [eax+10], bl
  00447	eb 38		 jmp	 SHORT $LN1@encodeStri
$LN87@encodeStri:
  00449	c6 40 09 ec	 mov	 BYTE PTR [eax+9], -20	; ffffffecH
  0044d	eb 32		 jmp	 SHORT $LN1@encodeStri
$LN88@encodeStri:
  0044f	c6 40 08 ed	 mov	 BYTE PTR [eax+8], -19	; ffffffedH
  00453	eb 2c		 jmp	 SHORT $LN1@encodeStri
$LN89@encodeStri:
  00455	c6 40 07 ea	 mov	 BYTE PTR [eax+7], -22	; ffffffeaH
  00459	eb 26		 jmp	 SHORT $LN1@encodeStri
$LN90@encodeStri:
  0045b	88 58 06	 mov	 BYTE PTR [eax+6], bl
  0045e	eb 21		 jmp	 SHORT $LN1@encodeStri
$LN91@encodeStri:
  00460	c6 40 05 ec	 mov	 BYTE PTR [eax+5], -20	; ffffffecH
  00464	eb 1b		 jmp	 SHORT $LN1@encodeStri
$LN92@encodeStri:
  00466	c6 40 04 ed	 mov	 BYTE PTR [eax+4], -19	; ffffffedH
  0046a	eb 15		 jmp	 SHORT $LN1@encodeStri
$LN93@encodeStri:
  0046c	c6 40 03 ea	 mov	 BYTE PTR [eax+3], -22	; ffffffeaH
  00470	eb 0f		 jmp	 SHORT $LN1@encodeStri
$LN94@encodeStri:
  00472	c6 40 02 eb	 mov	 BYTE PTR [eax+2], -21	; ffffffebH
  00476	eb 09		 jmp	 SHORT $LN1@encodeStri
$LN95@encodeStri:
  00478	c6 40 01 ec	 mov	 BYTE PTR [eax+1], -20	; ffffffecH
  0047c	eb 03		 jmp	 SHORT $LN1@encodeStri
$LN96@encodeStri:
  0047e	c6 00 ed	 mov	 BYTE PTR [eax], -19	; ffffffedH
$LN1@encodeStri:
  00481	6a 04		 push	 4
  00483	5a		 pop	 edx
  00484	8b c8		 mov	 ecx, eax
  00486	c6 40 12 00	 mov	 BYTE PTR [eax+18], 0
  0048a	5b		 pop	 ebx
$LL104@encodeStri:
  0048b	81 31 ed ec eb
	ea		 xor	 DWORD PTR [ecx], -353637139 ; eaebecedH
  00491	83 c1 04	 add	 ecx, 4
  00494	4a		 dec	 edx
  00495	75 f4		 jne	 SHORT $LL104@encodeStri
  00497	56		 push	 esi
  00498	6a 10		 push	 16			; 00000010H
  0049a	5e		 pop	 esi
$LL101@encodeStri:
  0049b	8b ce		 mov	 ecx, esi
  0049d	81 e1 03 00 00
	80		 and	 ecx, -2147483645	; 80000003H
  004a3	79 05		 jns	 SHORT $LN111@encodeStri
  004a5	49		 dec	 ecx
  004a6	83 c9 fc	 or	 ecx, -4			; fffffffcH
  004a9	41		 inc	 ecx
$LN111@encodeStri:
  004aa	b2 ed		 mov	 dl, -19			; ffffffedH
  004ac	2a d1		 sub	 dl, cl
  004ae	30 14 06	 xor	 BYTE PTR [esi+eax], dl
  004b1	46		 inc	 esi
  004b2	83 fe 12	 cmp	 esi, 18			; 00000012H
  004b5	7c e4		 jl	 SHORT $LL101@encodeStri
  004b7	5e		 pop	 esi

; 217  : 		return e;
; 218  : 	}

  004b8	5d		 pop	 ebp
  004b9	c2 08 00	 ret	 8
??$encodeString@$0BD@@ioINILoader_e@@AAEPADAAY0BD@$$CBDPAD@Z ENDP ; ioINILoader_e::encodeString<19>
_TEXT	ENDS
PUBLIC	??$_Unchecked@V?$_Vector_val@PAUEmoticonInfo@@V?$allocator@PAUEmoticonInfo@@@std@@@std@@@std@@YAPAPAUEmoticonInfo@@V?$_Vector_iterator@V?$_Vector_val@PAUEmoticonInfo@@V?$allocator@PAUEmoticonInfo@@@std@@@std@@@0@@Z ; std::_Unchecked<std::_Vector_val<EmoticonInfo *,std::allocator<EmoticonInfo *> > >
; Function compile flags: /Ogsp
; File c:\program files (x86)\microsoft visual studio 10.0\vc\include\vector
;	COMDAT ??$_Unchecked@V?$_Vector_val@PAUEmoticonInfo@@V?$allocator@PAUEmoticonInfo@@@std@@@std@@@std@@YAPAPAUEmoticonInfo@@V?$_Vector_iterator@V?$_Vector_val@PAUEmoticonInfo@@V?$allocator@PAUEmoticonInfo@@@std@@@std@@@0@@Z
_TEXT	SEGMENT
__Iter$ = 8						; size = 4
??$_Unchecked@V?$_Vector_val@PAUEmoticonInfo@@V?$allocator@PAUEmoticonInfo@@@std@@@std@@@std@@YAPAPAUEmoticonInfo@@V?$_Vector_iterator@V?$_Vector_val@PAUEmoticonInfo@@V?$allocator@PAUEmoticonInfo@@@std@@@std@@@0@@Z PROC ; std::_Unchecked<std::_Vector_val<EmoticonInfo *,std::allocator<EmoticonInfo *> > >, COMDAT

; 393  : 	{	// convert to unchecked

  00000	55		 push	 ebp
  00001	8b ec		 mov	 ebp, esp

; 394  : 	return (_Iter._Unchecked());

  00003	8b 45 08	 mov	 eax, DWORD PTR __Iter$[ebp]

; 395  : 	}

  00006	5d		 pop	 ebp
  00007	c3		 ret	 0
??$_Unchecked@V?$_Vector_val@PAUEmoticonInfo@@V?$allocator@PAUEmoticonInfo@@@std@@@std@@@std@@YAPAPAUEmoticonInfo@@V?$_Vector_iterator@V?$_Vector_val@PAUEmoticonInfo@@V?$allocator@PAUEmoticonInfo@@@std@@@std@@@0@@Z ENDP ; std::_Unchecked<std::_Vector_val<EmoticonInfo *,std::allocator<EmoticonInfo *> > >
_TEXT	ENDS
PUBLIC	??$construct@AAVioHashString@@@?$allocator@VioHashString@@@std@@QAEXPAVioHashString@@AAV2@@Z ; std::allocator<ioHashString>::construct<ioHashString &>
;	COMDAT xdata$x
; File c:\program files (x86)\microsoft visual studio 10.0\vc\include\utility
xdata$x	SEGMENT
__unwindtable$??$construct@AAVioHashString@@@?$allocator@VioHashString@@@std@@QAEXPAVioHashString@@AAV2@@Z DD 0ffffffffH
	DD	FLAT:__unwindfunclet$??$construct@AAVioHashString@@@?$allocator@VioHashString@@@std@@QAEXPAVioHashString@@AAV2@@Z$0
__ehfuncinfo$??$construct@AAVioHashString@@@?$allocator@VioHashString@@@std@@QAEXPAVioHashString@@AAV2@@Z DD 019930522H
	DD	01H
	DD	FLAT:__unwindtable$??$construct@AAVioHashString@@@?$allocator@VioHashString@@@std@@QAEXPAVioHashString@@AAV2@@Z
	DD	2 DUP(00H)
	DD	2 DUP(00H)
	DD	00H
	DD	01H
; Function compile flags: /Ogsp
; File c:\program files (x86)\microsoft visual studio 10.0\vc\include\xmemory
xdata$x	ENDS
;	COMDAT ??$construct@AAVioHashString@@@?$allocator@VioHashString@@@std@@QAEXPAVioHashString@@AAV2@@Z
_TEXT	SEGMENT
$T532064 = -16						; size = 4
__$EHRec$ = -12						; size = 12
__Ptr$ = 8						; size = 4
__Val$ = 12						; size = 4
??$construct@AAVioHashString@@@?$allocator@VioHashString@@@std@@QAEXPAVioHashString@@AAV2@@Z PROC ; std::allocator<ioHashString>::construct<ioHashString &>, COMDAT
; _this$ = ecx

; 206  : 		void construct(pointer _Ptr, _Other&& _Val)

  00000	6a 04		 push	 4
  00002	b8 00 00 00 00	 mov	 eax, __ehhandler$??$construct@AAVioHashString@@@?$allocator@VioHashString@@@std@@QAEXPAVioHashString@@AAV2@@Z
  00007	e8 00 00 00 00	 call	 __EH_prolog3

; 207  : 		{	// construct object at _Ptr with value _Val
; 208  : 		::new ((void _FARQ *)_Ptr) _Ty(_STD forward<_Other>(_Val));

  0000c	8b 4d 08	 mov	 ecx, DWORD PTR __Ptr$[ebp]
  0000f	89 4d f0	 mov	 DWORD PTR $T532064[ebp], ecx
  00012	83 65 fc 00	 and	 DWORD PTR __$EHRec$[ebp+8], 0
  00016	85 c9		 test	 ecx, ecx
  00018	74 09		 je	 SHORT $LN3@construct@3
  0001a	ff 75 0c	 push	 DWORD PTR __Val$[ebp]
  0001d	ff 15 00 00 00
	00		 call	 DWORD PTR __imp_??0ioHashString@@QAE@ABV0@@Z
$LN3@construct@3:

; 209  : 		}

  00023	e8 00 00 00 00	 call	 __EH_epilog3
  00028	c2 08 00	 ret	 8
_TEXT	ENDS
;	COMDAT text$x
text$x	SEGMENT
__unwindfunclet$??$construct@AAVioHashString@@@?$allocator@VioHashString@@@std@@QAEXPAVioHashString@@AAV2@@Z$0:
  00000	ff 75 08	 push	 DWORD PTR __Ptr$[ebp]
  00003	ff 75 f0	 push	 DWORD PTR $T532064[ebp]
  00006	e8 00 00 00 00	 call	 ??3@YAXPAX0@Z		; operator delete
  0000b	59		 pop	 ecx
  0000c	59		 pop	 ecx
  0000d	c3		 ret	 0
__ehhandler$??$construct@AAVioHashString@@@?$allocator@VioHashString@@@std@@QAEXPAVioHashString@@AAV2@@Z:
  0000e	8b 54 24 08	 mov	 edx, DWORD PTR [esp+8]
  00012	8d 42 0c	 lea	 eax, DWORD PTR [edx+12]
  00015	8b 4a ec	 mov	 ecx, DWORD PTR [edx-20]
  00018	33 c8		 xor	 ecx, eax
  0001a	e8 00 00 00 00	 call	 @__security_check_cookie@4
  0001f	b8 00 00 00 00	 mov	 eax, OFFSET __ehfuncinfo$??$construct@AAVioHashString@@@?$allocator@VioHashString@@@std@@QAEXPAVioHashString@@AAV2@@Z
  00024	e9 00 00 00 00	 jmp	 ___CxxFrameHandler3
text$x	ENDS
??$construct@AAVioHashString@@@?$allocator@VioHashString@@@std@@QAEXPAVioHashString@@AAV2@@Z ENDP ; std::allocator<ioHashString>::construct<ioHashString &>
PUBLIC	??$_Uninitialized_move@PAPAUEmoticonInfo@@PAPAU1@V?$allocator@PAUEmoticonInfo@@@std@@@std@@YAPAPAUEmoticonInfo@@PAPAU1@00AAV?$allocator@PAUEmoticonInfo@@@0@@Z ; std::_Uninitialized_move<EmoticonInfo * *,EmoticonInfo * *,std::allocator<EmoticonInfo *> >
; Function compile flags: /Ogsp
; File c:\program files (x86)\microsoft visual studio 10.0\vc\include\memory
;	COMDAT ??$_Uninitialized_move@PAPAUEmoticonInfo@@PAPAU1@V?$allocator@PAUEmoticonInfo@@@std@@@std@@YAPAPAUEmoticonInfo@@PAPAU1@00AAV?$allocator@PAUEmoticonInfo@@@0@@Z
_TEXT	SEGMENT
__First$ = 8						; size = 4
__Last$ = 12						; size = 4
__Dest$ = 16						; size = 4
__Al$ = 20						; size = 4
??$_Uninitialized_move@PAPAUEmoticonInfo@@PAPAU1@V?$allocator@PAUEmoticonInfo@@@std@@@std@@YAPAPAUEmoticonInfo@@PAPAU1@00AAV?$allocator@PAUEmoticonInfo@@@0@@Z PROC ; std::_Uninitialized_move<EmoticonInfo * *,EmoticonInfo * *,std::allocator<EmoticonInfo *> >, COMDAT

; 469  : 	{	// move [_First, _Last) to raw _Dest, using _Al

  00000	55		 push	 ebp
  00001	8b ec		 mov	 ebp, esp
  00003	56		 push	 esi

; 470  : 	return (_Uninit_move(_First, _Last, _Dest, _Al,
; 471  : 		_Val_type(_First), _Ptr_cat(_First, _Dest)));

  00004	8b 75 0c	 mov	 esi, DWORD PTR __Last$[ebp]
  00007	2b 75 08	 sub	 esi, DWORD PTR __First$[ebp]
  0000a	c1 fe 02	 sar	 esi, 2
  0000d	c1 e6 02	 shl	 esi, 2
  00010	56		 push	 esi
  00011	ff 75 08	 push	 DWORD PTR __First$[ebp]
  00014	ff 75 10	 push	 DWORD PTR __Dest$[ebp]
  00017	ff 15 00 00 00
	00		 call	 DWORD PTR __imp__memmove
  0001d	83 c4 0c	 add	 esp, 12			; 0000000cH
  00020	03 c6		 add	 eax, esi
  00022	5e		 pop	 esi

; 472  : 	}

  00023	5d		 pop	 ebp
  00024	c3		 ret	 0
??$_Uninitialized_move@PAPAUEmoticonInfo@@PAPAU1@V?$allocator@PAUEmoticonInfo@@@std@@@std@@YAPAPAUEmoticonInfo@@PAPAU1@00AAV?$allocator@PAUEmoticonInfo@@@0@@Z ENDP ; std::_Uninitialized_move<EmoticonInfo * *,EmoticonInfo * *,std::allocator<EmoticonInfo *> >
_TEXT	ENDS
PUBLIC	??$?0AAPAPAUEmoticonInfo@@AAPAPAU0@@?$pair@PAPAUEmoticonInfo@@PAPAU1@@std@@QAE@AAPAPAUEmoticonInfo@@0@Z ; std::pair<EmoticonInfo * *,EmoticonInfo * *>::pair<EmoticonInfo * *,EmoticonInfo * *><EmoticonInfo * * &,EmoticonInfo * * &>
; Function compile flags: /Ogsp
; File c:\program files (x86)\microsoft visual studio 10.0\vc\include\utility
;	COMDAT ??$?0AAPAPAUEmoticonInfo@@AAPAPAU0@@?$pair@PAPAUEmoticonInfo@@PAPAU1@@std@@QAE@AAPAPAUEmoticonInfo@@0@Z
_TEXT	SEGMENT
__Val1$ = 8						; size = 4
__Val2$ = 12						; size = 4
??$?0AAPAPAUEmoticonInfo@@AAPAPAU0@@?$pair@PAPAUEmoticonInfo@@PAPAU1@@std@@QAE@AAPAPAUEmoticonInfo@@0@Z PROC ; std::pair<EmoticonInfo * *,EmoticonInfo * *>::pair<EmoticonInfo * *,EmoticonInfo * *><EmoticonInfo * * &,EmoticonInfo * * &>, COMDAT
; _this$ = ecx

; 247  : 		{	// construct from moved values

  00000	55		 push	 ebp
  00001	8b ec		 mov	 ebp, esp
  00003	8b c1		 mov	 eax, ecx
  00005	8b 4d 08	 mov	 ecx, DWORD PTR __Val1$[ebp]
  00008	8b 09		 mov	 ecx, DWORD PTR [ecx]
  0000a	89 08		 mov	 DWORD PTR [eax], ecx
  0000c	8b 4d 0c	 mov	 ecx, DWORD PTR __Val2$[ebp]
  0000f	8b 09		 mov	 ecx, DWORD PTR [ecx]
  00011	89 48 04	 mov	 DWORD PTR [eax+4], ecx

; 248  : 		}

  00014	5d		 pop	 ebp
  00015	c2 08 00	 ret	 8
??$?0AAPAPAUEmoticonInfo@@AAPAPAU0@@?$pair@PAPAUEmoticonInfo@@PAPAU1@@std@@QAE@AAPAPAUEmoticonInfo@@0@Z ENDP ; std::pair<EmoticonInfo * *,EmoticonInfo * *>::pair<EmoticonInfo * *,EmoticonInfo * *><EmoticonInfo * * &,EmoticonInfo * * &>
_TEXT	ENDS
PUBLIC	?construct@?$allocator@VioHashString@@@std@@QAEXPAVioHashString@@$$QAV3@@Z ; std::allocator<ioHashString>::construct
;	COMDAT xdata$x
xdata$x	SEGMENT
__unwindtable$?construct@?$allocator@VioHashString@@@std@@QAEXPAVioHashString@@$$QAV3@@Z DD 0ffffffffH
	DD	FLAT:__unwindfunclet$?construct@?$allocator@VioHashString@@@std@@QAEXPAVioHashString@@$$QAV3@@Z$0
__ehfuncinfo$?construct@?$allocator@VioHashString@@@std@@QAEXPAVioHashString@@$$QAV3@@Z DD 019930522H
	DD	01H
	DD	FLAT:__unwindtable$?construct@?$allocator@VioHashString@@@std@@QAEXPAVioHashString@@$$QAV3@@Z
	DD	2 DUP(00H)
	DD	2 DUP(00H)
	DD	00H
	DD	01H
; Function compile flags: /Ogsp
; File c:\program files (x86)\microsoft visual studio 10.0\vc\include\xmemory
xdata$x	ENDS
;	COMDAT ?construct@?$allocator@VioHashString@@@std@@QAEXPAVioHashString@@$$QAV3@@Z
_TEXT	SEGMENT
$T532118 = -16						; size = 4
__$EHRec$ = -12						; size = 12
__Ptr$ = 8						; size = 4
__Val$ = 12						; size = 4
?construct@?$allocator@VioHashString@@@std@@QAEXPAVioHashString@@$$QAV3@@Z PROC ; std::allocator<ioHashString>::construct, COMDAT
; _this$ = ecx

; 201  : 		{	// construct object at _Ptr with value _Val

  00000	6a 04		 push	 4
  00002	b8 00 00 00 00	 mov	 eax, __ehhandler$?construct@?$allocator@VioHashString@@@std@@QAEXPAVioHashString@@$$QAV3@@Z
  00007	e8 00 00 00 00	 call	 __EH_prolog3

; 202  : 		::new ((void _FARQ *)_Ptr) _Ty(_STD forward<_Ty>(_Val));

  0000c	8b 4d 08	 mov	 ecx, DWORD PTR __Ptr$[ebp]
  0000f	89 4d f0	 mov	 DWORD PTR $T532118[ebp], ecx
  00012	83 65 fc 00	 and	 DWORD PTR __$EHRec$[ebp+8], 0
  00016	85 c9		 test	 ecx, ecx
  00018	74 09		 je	 SHORT $LN3@construct@4
  0001a	ff 75 0c	 push	 DWORD PTR __Val$[ebp]
  0001d	ff 15 00 00 00
	00		 call	 DWORD PTR __imp_??0ioHashString@@QAE@ABV0@@Z
$LN3@construct@4:

; 203  : 		}

  00023	e8 00 00 00 00	 call	 __EH_epilog3
  00028	c2 08 00	 ret	 8
_TEXT	ENDS
;	COMDAT text$x
text$x	SEGMENT
__unwindfunclet$?construct@?$allocator@VioHashString@@@std@@QAEXPAVioHashString@@$$QAV3@@Z$0:
  00000	ff 75 08	 push	 DWORD PTR __Ptr$[ebp]
  00003	ff 75 f0	 push	 DWORD PTR $T532118[ebp]
  00006	e8 00 00 00 00	 call	 ??3@YAXPAX0@Z		; operator delete
  0000b	59		 pop	 ecx
  0000c	59		 pop	 ecx
  0000d	c3		 ret	 0
__ehhandler$?construct@?$allocator@VioHashString@@@std@@QAEXPAVioHashString@@$$QAV3@@Z:
  0000e	8b 54 24 08	 mov	 edx, DWORD PTR [esp+8]
  00012	8d 42 0c	 lea	 eax, DWORD PTR [edx+12]
  00015	8b 4a ec	 mov	 ecx, DWORD PTR [edx-20]
  00018	33 c8		 xor	 ecx, eax
  0001a	e8 00 00 00 00	 call	 @__security_check_cookie@4
  0001f	b8 00 00 00 00	 mov	 eax, OFFSET __ehfuncinfo$?construct@?$allocator@VioHashString@@@std@@QAEXPAVioHashString@@$$QAV3@@Z
  00024	e9 00 00 00 00	 jmp	 ___CxxFrameHandler3
text$x	ENDS
?construct@?$allocator@VioHashString@@@std@@QAEXPAVioHashString@@$$QAV3@@Z ENDP ; std::allocator<ioHashString>::construct
PUBLIC	??$swap@PAUEmoticonInfo@@@std@@YAXAAPAUEmoticonInfo@@0@Z ; std::swap<EmoticonInfo *>
; Function compile flags: /Ogsp
; File c:\program files (x86)\microsoft visual studio 10.0\vc\include\utility
;	COMDAT ??$swap@PAUEmoticonInfo@@@std@@YAXAAPAUEmoticonInfo@@0@Z
_TEXT	SEGMENT
__Left$ = 8						; size = 4
__Right$ = 12						; size = 4
??$swap@PAUEmoticonInfo@@@std@@YAXAAPAUEmoticonInfo@@0@Z PROC ; std::swap<EmoticonInfo *>, COMDAT

; 101  : 	{	// exchange values stored at _Left and _Right

  00000	55		 push	 ebp
  00001	8b ec		 mov	 ebp, esp

; 102  : 	_Ty _Tmp = _Move(_Left);
; 103  : 	_Left = _Move(_Right);

  00003	8b 55 0c	 mov	 edx, DWORD PTR __Right$[ebp]
  00006	8b 45 08	 mov	 eax, DWORD PTR __Left$[ebp]
  00009	8b 08		 mov	 ecx, DWORD PTR [eax]
  0000b	56		 push	 esi
  0000c	8b 32		 mov	 esi, DWORD PTR [edx]
  0000e	89 30		 mov	 DWORD PTR [eax], esi

; 104  : 	_Right = _Move(_Tmp);

  00010	89 0a		 mov	 DWORD PTR [edx], ecx
  00012	5e		 pop	 esi

; 105  : 	}

  00013	5d		 pop	 ebp
  00014	c3		 ret	 0
??$swap@PAUEmoticonInfo@@@std@@YAXAAPAUEmoticonInfo@@0@Z ENDP ; std::swap<EmoticonInfo *>
_TEXT	ENDS
PUBLIC	??$_Adjust_heap@PAPAUEmoticonInfo@@HPAU1@VEmoticonInfoSort@@@std@@YAXPAPAUEmoticonInfo@@HH$$QAPAU1@VEmoticonInfoSort@@@Z ; std::_Adjust_heap<EmoticonInfo * *,int,EmoticonInfo *,EmoticonInfoSort>
; Function compile flags: /Ogsp
; File c:\program files (x86)\microsoft visual studio 10.0\vc\include\algorithm
;	COMDAT ??$_Adjust_heap@PAPAUEmoticonInfo@@HPAU1@VEmoticonInfoSort@@@std@@YAXPAPAUEmoticonInfo@@HH$$QAPAU1@VEmoticonInfoSort@@@Z
_TEXT	SEGMENT
__First$ = 8						; size = 4
__Top$ = 12						; size = 4
__Hole$ = 12						; size = 4
__Bottom$ = 16						; size = 4
__Val$ = 20						; size = 4
__Pred$ = 24						; size = 1
??$_Adjust_heap@PAPAUEmoticonInfo@@HPAU1@VEmoticonInfoSort@@@std@@YAXPAPAUEmoticonInfo@@HH$$QAPAU1@VEmoticonInfoSort@@@Z PROC ; std::_Adjust_heap<EmoticonInfo * *,int,EmoticonInfo *,EmoticonInfoSort>, COMDAT

; 2565 : 	{	// percolate _Hole to _Bottom, then push _Val, using _Pred

  00000	55		 push	 ebp
  00001	8b ec		 mov	 ebp, esp

; 2566 : 	_Diff _Top = _Hole;
; 2567 : 	_Diff _Idx = 2 * _Hole + 2;
; 2568 : 
; 2569 : 	for (; _Idx < _Bottom; _Idx = 2 * _Idx + 2)

  00003	8b 45 10	 mov	 eax, DWORD PTR __Bottom$[ebp]
  00006	53		 push	 ebx
  00007	8b 5d 0c	 mov	 ebx, DWORD PTR __Hole$[ebp]
  0000a	56		 push	 esi
  0000b	8d 74 1b 02	 lea	 esi, DWORD PTR [ebx+ebx+2]
  0000f	57		 push	 edi
  00010	8b 7d 08	 mov	 edi, DWORD PTR __First$[ebp]
  00013	89 5d 0c	 mov	 DWORD PTR __Top$[ebp], ebx
  00016	3b f0		 cmp	 esi, eax
  00018	7d 2a		 jge	 SHORT $LN16@Adjust_hea
$LL5@Adjust_hea:

; 2570 : 		{	// move _Hole down to larger child
; 2571 : 		if (_DEBUG_LT_PRED(_Pred, *(_First + _Idx), *(_First + (_Idx - 1))))

  0001a	ff 74 b7 fc	 push	 DWORD PTR [edi+esi*4-4]
  0001e	8d 4d 18	 lea	 ecx, DWORD PTR __Pred$[ebp]
  00021	ff 34 b7	 push	 DWORD PTR [edi+esi*4]
  00024	e8 00 00 00 00	 call	 ??REmoticonInfoSort@@QBE_NPBUEmoticonInfo@@0@Z ; EmoticonInfoSort::operator()
  00029	84 c0		 test	 al, al
  0002b	74 01		 je	 SHORT $LN2@Adjust_hea

; 2572 : 			--_Idx;

  0002d	4e		 dec	 esi
$LN2@Adjust_hea:

; 2573 : 		*(_First + _Hole) = _Move(*(_First + _Idx));

  0002e	8b 04 b7	 mov	 eax, DWORD PTR [edi+esi*4]
  00031	89 04 9f	 mov	 DWORD PTR [edi+ebx*4], eax

; 2574 : 		_Hole = _Idx;

  00034	8b de		 mov	 ebx, esi
  00036	8d 74 36 02	 lea	 esi, DWORD PTR [esi+esi+2]
  0003a	3b 75 10	 cmp	 esi, DWORD PTR __Bottom$[ebp]
  0003d	7c db		 jl	 SHORT $LL5@Adjust_hea

; 2575 : 		}
; 2576 : 
; 2577 : 	if (_Idx == _Bottom)

  0003f	8b 45 10	 mov	 eax, DWORD PTR __Bottom$[ebp]
  00042	3b f0		 cmp	 esi, eax
$LN16@Adjust_hea:
  00044	75 0a		 jne	 SHORT $LN1@Adjust_hea

; 2578 : 		{	// only child at bottom, move _Hole down to it
; 2579 : 		*(_First + _Hole) = _Move(*(_First + (_Bottom - 1)));

  00046	8b 4c 87 fc	 mov	 ecx, DWORD PTR [edi+eax*4-4]
  0004a	89 0c 9f	 mov	 DWORD PTR [edi+ebx*4], ecx

; 2580 : 		_Hole = _Bottom - 1;

  0004d	8d 58 ff	 lea	 ebx, DWORD PTR [eax-1]
$LN1@Adjust_hea:

; 2581 : 		}
; 2582 : 	_Push_heap(_First, _Hole, _Top, _Move(_Val), _Pred);

  00050	ff 75 18	 push	 DWORD PTR __Pred$[ebp]
  00053	ff 75 14	 push	 DWORD PTR __Val$[ebp]
  00056	ff 75 0c	 push	 DWORD PTR __Top$[ebp]
  00059	53		 push	 ebx
  0005a	57		 push	 edi
  0005b	e8 00 00 00 00	 call	 ??$_Push_heap@PAPAUEmoticonInfo@@HPAU1@VEmoticonInfoSort@@@std@@YAXPAPAUEmoticonInfo@@HH$$QAPAU1@VEmoticonInfoSort@@@Z ; std::_Push_heap<EmoticonInfo * *,int,EmoticonInfo *,EmoticonInfoSort>
  00060	83 c4 14	 add	 esp, 20			; 00000014H
  00063	5f		 pop	 edi
  00064	5e		 pop	 esi
  00065	5b		 pop	 ebx

; 2583 : 	}

  00066	5d		 pop	 ebp
  00067	c3		 ret	 0
??$_Adjust_heap@PAPAUEmoticonInfo@@HPAU1@VEmoticonInfoSort@@@std@@YAXPAPAUEmoticonInfo@@HH$$QAPAU1@VEmoticonInfoSort@@@Z ENDP ; std::_Adjust_heap<EmoticonInfo * *,int,EmoticonInfo *,EmoticonInfoSort>
_TEXT	ENDS
PUBLIC	??$_Move_backward@PAPAUEmoticonInfo@@PAPAU1@@std@@YAPAPAUEmoticonInfo@@PAPAU1@00@Z ; std::_Move_backward<EmoticonInfo * *,EmoticonInfo * *>
; Function compile flags: /Ogsp
; File c:\program files (x86)\microsoft visual studio 10.0\vc\include\xutility
;	COMDAT ??$_Move_backward@PAPAUEmoticonInfo@@PAPAU1@@std@@YAPAPAUEmoticonInfo@@PAPAU1@00@Z
_TEXT	SEGMENT
__Cat$532164 = -4					; size = 1
__First$ = 8						; size = 4
__Last$ = 12						; size = 4
__Dest$ = 16						; size = 4
??$_Move_backward@PAPAUEmoticonInfo@@PAPAU1@@std@@YAPAPAUEmoticonInfo@@PAPAU1@00@Z PROC ; std::_Move_backward<EmoticonInfo * *,EmoticonInfo * *>, COMDAT

; 2638 : 	{	// move [_First, _Last) backwards to [..., _Dest), unchecked

  00000	55		 push	 ebp
  00001	8b ec		 mov	 ebp, esp
  00003	51		 push	 ecx

; 2639 : 	return (_Move_backward(_First, _Last,
; 2640 : 		_Dest, _Ptr_cat(_First, _Dest)));

  00004	ff 75 fc	 push	 DWORD PTR __Cat$532164[ebp]
  00007	ff 75 10	 push	 DWORD PTR __Dest$[ebp]
  0000a	ff 75 0c	 push	 DWORD PTR __Last$[ebp]
  0000d	ff 75 08	 push	 DWORD PTR __First$[ebp]
  00010	e8 00 00 00 00	 call	 ??$_Move_backward@PAPAUEmoticonInfo@@PAPAU1@@std@@YAPAPAUEmoticonInfo@@PAPAU1@00U_Scalar_ptr_iterator_tag@0@@Z ; std::_Move_backward<EmoticonInfo * *,EmoticonInfo * *>
  00015	83 c4 10	 add	 esp, 16			; 00000010H

; 2641 : 	}

  00018	c9		 leave
  00019	c3		 ret	 0
??$_Move_backward@PAPAUEmoticonInfo@@PAPAU1@@std@@YAPAPAUEmoticonInfo@@PAPAU1@00@Z ENDP ; std::_Move_backward<EmoticonInfo * *,EmoticonInfo * *>
_TEXT	ENDS
PUBLIC	??$_Pop_heap@PAPAUEmoticonInfo@@HPAU1@VEmoticonInfoSort@@@std@@YAXPAPAUEmoticonInfo@@00$$QAPAU1@VEmoticonInfoSort@@PAH@Z ; std::_Pop_heap<EmoticonInfo * *,int,EmoticonInfo *,EmoticonInfoSort>
; Function compile flags: /Ogsp
; File c:\program files (x86)\microsoft visual studio 10.0\vc\include\algorithm
;	COMDAT ??$_Pop_heap@PAPAUEmoticonInfo@@HPAU1@VEmoticonInfoSort@@@std@@YAXPAPAUEmoticonInfo@@00$$QAPAU1@VEmoticonInfoSort@@PAH@Z
_TEXT	SEGMENT
__First$ = 8						; size = 4
__Last$ = 12						; size = 4
__Dest$ = 16						; size = 4
__Val$ = 20						; size = 4
__Pred$ = 24						; size = 1
___formal$ = 28						; size = 4
??$_Pop_heap@PAPAUEmoticonInfo@@HPAU1@VEmoticonInfoSort@@@std@@YAXPAPAUEmoticonInfo@@00$$QAPAU1@VEmoticonInfoSort@@PAH@Z PROC ; std::_Pop_heap<EmoticonInfo * *,int,EmoticonInfo *,EmoticonInfoSort>, COMDAT

; 2591 : 	{	// pop *_First to *_Dest and reheap, using _Pred

  00000	55		 push	 ebp
  00001	8b ec		 mov	 ebp, esp

; 2592 : 	*_Dest = _Move(*_First);

  00003	8b 45 08	 mov	 eax, DWORD PTR __First$[ebp]
  00006	8b 08		 mov	 ecx, DWORD PTR [eax]
  00008	8b 55 10	 mov	 edx, DWORD PTR __Dest$[ebp]

; 2593 : 	_Adjust_heap(_First, _Diff(0), _Diff(_Last - _First),
; 2594 : 		_Move(_Val), _Pred);

  0000b	ff 75 18	 push	 DWORD PTR __Pred$[ebp]
  0000e	89 0a		 mov	 DWORD PTR [edx], ecx
  00010	8b 4d 0c	 mov	 ecx, DWORD PTR __Last$[ebp]
  00013	ff 75 14	 push	 DWORD PTR __Val$[ebp]
  00016	2b c8		 sub	 ecx, eax
  00018	c1 f9 02	 sar	 ecx, 2
  0001b	51		 push	 ecx
  0001c	6a 00		 push	 0
  0001e	50		 push	 eax
  0001f	e8 00 00 00 00	 call	 ??$_Adjust_heap@PAPAUEmoticonInfo@@HPAU1@VEmoticonInfoSort@@@std@@YAXPAPAUEmoticonInfo@@HH$$QAPAU1@VEmoticonInfoSort@@@Z ; std::_Adjust_heap<EmoticonInfo * *,int,EmoticonInfo *,EmoticonInfoSort>
  00024	83 c4 14	 add	 esp, 20			; 00000014H

; 2595 : 	}

  00027	5d		 pop	 ebp
  00028	c3		 ret	 0
??$_Pop_heap@PAPAUEmoticonInfo@@HPAU1@VEmoticonInfoSort@@@std@@YAXPAPAUEmoticonInfo@@00$$QAPAU1@VEmoticonInfoSort@@PAH@Z ENDP ; std::_Pop_heap<EmoticonInfo * *,int,EmoticonInfo *,EmoticonInfoSort>
_TEXT	ENDS
PUBLIC	?IsEmpty@ioComplexStringPrinter@@QBE_NXZ	; ioComplexStringPrinter::IsEmpty
; Function compile flags: /Ogsp
; File d:\lost saga for developer\youtube\tutorial\source\src\lsclient\iocomplexstringprinter.h
;	COMDAT ?IsEmpty@ioComplexStringPrinter@@QBE_NXZ
_TEXT	SEGMENT
?IsEmpty@ioComplexStringPrinter@@QBE_NXZ PROC		; ioComplexStringPrinter::IsEmpty, COMDAT
; _this$ = ecx

; 124  : 	inline bool IsEmpty() const { return m_vPieceList.empty(); }

  00000	8b 41 0c	 mov	 eax, DWORD PTR [ecx+12]
  00003	2b 41 10	 sub	 eax, DWORD PTR [ecx+16]
  00006	f7 d8		 neg	 eax
  00008	1b c0		 sbb	 eax, eax
  0000a	40		 inc	 eax
  0000b	c3		 ret	 0
?IsEmpty@ioComplexStringPrinter@@QBE_NXZ ENDP		; ioComplexStringPrinter::IsEmpty
_TEXT	ENDS
PUBLIC	?begin@?$vector@VioHashString@@V?$allocator@VioHashString@@@std@@@std@@QAE?AV?$_Vector_iterator@V?$_Vector_val@VioHashString@@V?$allocator@VioHashString@@@std@@@std@@@2@XZ ; std::vector<ioHashString,std::allocator<ioHashString> >::begin
; Function compile flags: /Ogsp
; File c:\program files (x86)\microsoft visual studio 10.0\vc\include\vector
;	COMDAT ?begin@?$vector@VioHashString@@V?$allocator@VioHashString@@@std@@@std@@QAE?AV?$_Vector_iterator@V?$_Vector_val@VioHashString@@V?$allocator@VioHashString@@@std@@@std@@@2@XZ
_TEXT	SEGMENT
___$ReturnUdt$ = 8					; size = 4
?begin@?$vector@VioHashString@@V?$allocator@VioHashString@@@std@@@std@@QAE?AV?$_Vector_iterator@V?$_Vector_val@VioHashString@@V?$allocator@VioHashString@@@std@@@std@@@2@XZ PROC ; std::vector<ioHashString,std::allocator<ioHashString> >::begin, COMDAT
; _this$ = ecx

; 781  : 		{	// return iterator for beginning of mutable sequence

  00000	55		 push	 ebp
  00001	8b ec		 mov	 ebp, esp

; 782  : 		return (iterator(this->_Myfirst, this));

  00003	8b 09		 mov	 ecx, DWORD PTR [ecx]
  00005	8b 45 08	 mov	 eax, DWORD PTR ___$ReturnUdt$[ebp]
  00008	89 08		 mov	 DWORD PTR [eax], ecx

; 783  : 		}

  0000a	5d		 pop	 ebp
  0000b	c2 04 00	 ret	 4
?begin@?$vector@VioHashString@@V?$allocator@VioHashString@@@std@@@std@@QAE?AV?$_Vector_iterator@V?$_Vector_val@VioHashString@@V?$allocator@VioHashString@@@std@@@std@@@2@XZ ENDP ; std::vector<ioHashString,std::allocator<ioHashString> >::begin
_TEXT	ENDS
PUBLIC	?end@?$vector@VioHashString@@V?$allocator@VioHashString@@@std@@@std@@QAE?AV?$_Vector_iterator@V?$_Vector_val@VioHashString@@V?$allocator@VioHashString@@@std@@@std@@@2@XZ ; std::vector<ioHashString,std::allocator<ioHashString> >::end
; Function compile flags: /Ogsp
;	COMDAT ?end@?$vector@VioHashString@@V?$allocator@VioHashString@@@std@@@std@@QAE?AV?$_Vector_iterator@V?$_Vector_val@VioHashString@@V?$allocator@VioHashString@@@std@@@std@@@2@XZ
_TEXT	SEGMENT
___$ReturnUdt$ = 8					; size = 4
?end@?$vector@VioHashString@@V?$allocator@VioHashString@@@std@@@std@@QAE?AV?$_Vector_iterator@V?$_Vector_val@VioHashString@@V?$allocator@VioHashString@@@std@@@std@@@2@XZ PROC ; std::vector<ioHashString,std::allocator<ioHashString> >::end, COMDAT
; _this$ = ecx

; 791  : 		{	// return iterator for end of mutable sequence

  00000	55		 push	 ebp
  00001	8b ec		 mov	 ebp, esp

; 792  : 		return (iterator(this->_Mylast, this));

  00003	8b 49 04	 mov	 ecx, DWORD PTR [ecx+4]
  00006	8b 45 08	 mov	 eax, DWORD PTR ___$ReturnUdt$[ebp]
  00009	89 08		 mov	 DWORD PTR [eax], ecx

; 793  : 		}

  0000b	5d		 pop	 ebp
  0000c	c2 04 00	 ret	 4
?end@?$vector@VioHashString@@V?$allocator@VioHashString@@@std@@@std@@QAE?AV?$_Vector_iterator@V?$_Vector_val@VioHashString@@V?$allocator@VioHashString@@@std@@@std@@@2@XZ ENDP ; std::vector<ioHashString,std::allocator<ioHashString> >::end
_TEXT	ENDS
PUBLIC	??0?$_Vector_val@VioHashString@@V?$allocator@VioHashString@@@std@@@std@@QAE@V?$allocator@VioHashString@@@1@@Z ; std::_Vector_val<ioHashString,std::allocator<ioHashString> >::_Vector_val<ioHashString,std::allocator<ioHashString> >
; Function compile flags: /Ogsp
;	COMDAT ??0?$_Vector_val@VioHashString@@V?$allocator@VioHashString@@@std@@@std@@QAE@V?$allocator@VioHashString@@@1@@Z
_TEXT	SEGMENT
__Al$ = 8						; size = 1
??0?$_Vector_val@VioHashString@@V?$allocator@VioHashString@@@std@@@std@@QAE@V?$allocator@VioHashString@@@1@@Z PROC ; std::_Vector_val<ioHashString,std::allocator<ioHashString> >::_Vector_val<ioHashString,std::allocator<ioHashString> >, COMDAT
; _this$ = ecx

; 426  : 		{	// construct allocator from _Al

  00000	8b c1		 mov	 eax, ecx

; 427  : 		_Myfirst = 0;

  00002	33 c9		 xor	 ecx, ecx
  00004	89 08		 mov	 DWORD PTR [eax], ecx

; 428  : 		_Mylast = 0;

  00006	89 48 04	 mov	 DWORD PTR [eax+4], ecx

; 429  : 		_Myend = 0;

  00009	89 48 08	 mov	 DWORD PTR [eax+8], ecx

; 430  : 		}

  0000c	c2 04 00	 ret	 4
??0?$_Vector_val@VioHashString@@V?$allocator@VioHashString@@@std@@@std@@QAE@V?$allocator@VioHashString@@@1@@Z ENDP ; std::_Vector_val<ioHashString,std::allocator<ioHashString> >::_Vector_val<ioHashString,std::allocator<ioHashString> >
_TEXT	ENDS
PUBLIC	?_Make_iter@?$vector@VioHashString@@V?$allocator@VioHashString@@@std@@@std@@QBE?AV?$_Vector_iterator@V?$_Vector_val@VioHashString@@V?$allocator@VioHashString@@@std@@@std@@@2@V?$_Vector_const_iterator@V?$_Vector_val@VioHashString@@V?$allocator@VioHashString@@@std@@@std@@@2@@Z ; std::vector<ioHashString,std::allocator<ioHashString> >::_Make_iter
; Function compile flags: /Ogsp
;	COMDAT ?_Make_iter@?$vector@VioHashString@@V?$allocator@VioHashString@@@std@@@std@@QBE?AV?$_Vector_iterator@V?$_Vector_val@VioHashString@@V?$allocator@VioHashString@@@std@@@std@@@2@V?$_Vector_const_iterator@V?$_Vector_val@VioHashString@@V?$allocator@VioHashString@@@std@@@std@@@2@@Z
_TEXT	SEGMENT
___$ReturnUdt$ = 8					; size = 4
__Where$ = 12						; size = 4
?_Make_iter@?$vector@VioHashString@@V?$allocator@VioHashString@@@std@@@std@@QBE?AV?$_Vector_iterator@V?$_Vector_val@VioHashString@@V?$allocator@VioHashString@@@std@@@std@@@2@V?$_Vector_const_iterator@V?$_Vector_val@VioHashString@@V?$allocator@VioHashString@@@std@@@std@@@2@@Z PROC ; std::vector<ioHashString,std::allocator<ioHashString> >::_Make_iter, COMDAT
; _this$ = ecx

; 801  : 		{	// make iterator from const_iterator

  00000	55		 push	 ebp
  00001	8b ec		 mov	 ebp, esp

; 802  : 		return (iterator(_Where._Ptr, this));

  00003	8b 45 08	 mov	 eax, DWORD PTR ___$ReturnUdt$[ebp]
  00006	8b 4d 0c	 mov	 ecx, DWORD PTR __Where$[ebp]
  00009	89 08		 mov	 DWORD PTR [eax], ecx

; 803  : 		}

  0000b	5d		 pop	 ebp
  0000c	c2 08 00	 ret	 8
?_Make_iter@?$vector@VioHashString@@V?$allocator@VioHashString@@@std@@@std@@QBE?AV?$_Vector_iterator@V?$_Vector_val@VioHashString@@V?$allocator@VioHashString@@@std@@@std@@@2@V?$_Vector_const_iterator@V?$_Vector_val@VioHashString@@V?$allocator@VioHashString@@@std@@@std@@@2@@Z ENDP ; std::vector<ioHashString,std::allocator<ioHashString> >::_Make_iter
_TEXT	ENDS
PUBLIC	?max_size@?$vector@VioHashString@@V?$allocator@VioHashString@@@std@@@std@@QBEIXZ ; std::vector<ioHashString,std::allocator<ioHashString> >::max_size
; Function compile flags: /Ogsp
;	COMDAT ?max_size@?$vector@VioHashString@@V?$allocator@VioHashString@@@std@@@std@@QBEIXZ
_TEXT	SEGMENT
?max_size@?$vector@VioHashString@@V?$allocator@VioHashString@@@std@@@std@@QBEIXZ PROC ; std::vector<ioHashString,std::allocator<ioHashString> >::max_size, COMDAT
; _this$ = ecx

; 884  : 		return (this->_Alval.max_size());

  00000	b8 ff ff ff 0f	 mov	 eax, 268435455		; 0fffffffH

; 885  : 		}

  00005	c3		 ret	 0
?max_size@?$vector@VioHashString@@V?$allocator@VioHashString@@@std@@@std@@QBEIXZ ENDP ; std::vector<ioHashString,std::allocator<ioHashString> >::max_size
_TEXT	ENDS
PUBLIC	?allocate@?$allocator@VioHashString@@@std@@QAEPAVioHashString@@I@Z ; std::allocator<ioHashString>::allocate
; Function compile flags: /Ogsp
; File c:\program files (x86)\microsoft visual studio 10.0\vc\include\xmemory
;	COMDAT ?allocate@?$allocator@VioHashString@@@std@@QAEPAVioHashString@@I@Z
_TEXT	SEGMENT
__Count$ = 8						; size = 4
?allocate@?$allocator@VioHashString@@@std@@QAEPAVioHashString@@I@Z PROC ; std::allocator<ioHashString>::allocate, COMDAT
; _this$ = ecx

; 186  : 		{	// allocate array of _Count elements

  00000	55		 push	 ebp
  00001	8b ec		 mov	 ebp, esp

; 187  : 		return (_Allocate(_Count, (pointer)0));

  00003	6a 00		 push	 0
  00005	ff 75 08	 push	 DWORD PTR __Count$[ebp]
  00008	e8 00 00 00 00	 call	 ??$_Allocate@VioHashString@@@std@@YAPAVioHashString@@IPAV1@@Z ; std::_Allocate<ioHashString>
  0000d	59		 pop	 ecx
  0000e	59		 pop	 ecx

; 188  : 		}

  0000f	5d		 pop	 ebp
  00010	c2 04 00	 ret	 4
?allocate@?$allocator@VioHashString@@@std@@QAEPAVioHashString@@I@Z ENDP ; std::allocator<ioHashString>::allocate
_TEXT	ENDS
PUBLIC	??8?$_Vector_const_iterator@V?$_Vector_val@VioHashString@@V?$allocator@VioHashString@@@std@@@std@@@std@@QBE_NABV01@@Z ; std::_Vector_const_iterator<std::_Vector_val<ioHashString,std::allocator<ioHashString> > >::operator==
; Function compile flags: /Ogsp
; File c:\program files (x86)\microsoft visual studio 10.0\vc\include\vector
;	COMDAT ??8?$_Vector_const_iterator@V?$_Vector_val@VioHashString@@V?$allocator@VioHashString@@@std@@@std@@@std@@QBE_NABV01@@Z
_TEXT	SEGMENT
__Right$ = 8						; size = 4
??8?$_Vector_const_iterator@V?$_Vector_val@VioHashString@@V?$allocator@VioHashString@@@std@@@std@@@std@@QBE_NABV01@@Z PROC ; std::_Vector_const_iterator<std::_Vector_val<ioHashString,std::allocator<ioHashString> > >::operator==, COMDAT
; _this$ = ecx

; 201  : 		{	// test for iterator equality

  00000	55		 push	 ebp
  00001	8b ec		 mov	 ebp, esp

; 202  : 		_Compat(_Right);
; 203  : 		return (this->_Ptr == _Right._Ptr);

  00003	8b 01		 mov	 eax, DWORD PTR [ecx]
  00005	8b 4d 08	 mov	 ecx, DWORD PTR __Right$[ebp]
  00008	2b 01		 sub	 eax, DWORD PTR [ecx]
  0000a	f7 d8		 neg	 eax
  0000c	1b c0		 sbb	 eax, eax
  0000e	40		 inc	 eax

; 204  : 		}

  0000f	5d		 pop	 ebp
  00010	c2 04 00	 ret	 4
??8?$_Vector_const_iterator@V?$_Vector_val@VioHashString@@V?$allocator@VioHashString@@@std@@@std@@@std@@QBE_NABV01@@Z ENDP ; std::_Vector_const_iterator<std::_Vector_val<ioHashString,std::allocator<ioHashString> > >::operator==
_TEXT	ENDS
PUBLIC	??$_Move@PAVioHashString@@PAV1@@std@@YAPAVioHashString@@PAV1@00U_Nonscalar_ptr_iterator_tag@0@@Z ; std::_Move<ioHashString *,ioHashString *>
; Function compile flags: /Ogsp
; File c:\program files (x86)\microsoft visual studio 10.0\vc\include\xutility
;	COMDAT ??$_Move@PAVioHashString@@PAV1@@std@@YAPAVioHashString@@PAV1@00U_Nonscalar_ptr_iterator_tag@0@@Z
_TEXT	SEGMENT
__First$ = 8						; size = 4
__Last$ = 12						; size = 4
__Dest$ = 16						; size = 4
___formal$ = 20						; size = 1
??$_Move@PAVioHashString@@PAV1@@std@@YAPAVioHashString@@PAV1@00U_Nonscalar_ptr_iterator_tag@0@@Z PROC ; std::_Move<ioHashString *,ioHashString *>, COMDAT

; 2512 : 	{	// move [_First, _Last) to [_Dest, ...), arbitrary iterators

  00000	55		 push	 ebp
  00001	8b ec		 mov	 ebp, esp
  00003	56		 push	 esi

; 2513 : 	for (; _First != _Last; ++_Dest, ++_First)

  00004	8b 75 08	 mov	 esi, DWORD PTR __First$[ebp]
  00007	eb 11		 jmp	 SHORT $LN11@Move
$LL3@Move:

; 2514 : 		*_Dest = _STD move(*_First);

  00009	8b 4d 10	 mov	 ecx, DWORD PTR __Dest$[ebp]
  0000c	56		 push	 esi
  0000d	ff 15 00 00 00
	00		 call	 DWORD PTR __imp_??4ioHashString@@QAEAAV0@ABV0@@Z
  00013	83 45 10 10	 add	 DWORD PTR __Dest$[ebp], 16 ; 00000010H
  00017	83 c6 10	 add	 esi, 16			; 00000010H
$LN11@Move:

; 2513 : 	for (; _First != _Last; ++_Dest, ++_First)

  0001a	3b 75 0c	 cmp	 esi, DWORD PTR __Last$[ebp]
  0001d	75 ea		 jne	 SHORT $LL3@Move

; 2515 : 	return (_Dest);

  0001f	8b 45 10	 mov	 eax, DWORD PTR __Dest$[ebp]
  00022	5e		 pop	 esi

; 2516 : 	}

  00023	5d		 pop	 ebp
  00024	c3		 ret	 0
??$_Move@PAVioHashString@@PAV1@@std@@YAPAVioHashString@@PAV1@00U_Nonscalar_ptr_iterator_tag@0@@Z ENDP ; std::_Move<ioHashString *,ioHashString *>
_TEXT	ENDS
PUBLIC	??$_Destroy@VioHashString@@@std@@YAXPAVioHashString@@@Z ; std::_Destroy<ioHashString>
; Function compile flags: /Ogsp
; File c:\program files (x86)\microsoft visual studio 10.0\vc\include\xmemory
;	COMDAT ??$_Destroy@VioHashString@@@std@@YAXPAVioHashString@@@Z
_TEXT	SEGMENT
__Ptr$ = 8						; size = 4
??$_Destroy@VioHashString@@@std@@YAXPAVioHashString@@@Z PROC ; std::_Destroy<ioHashString>, COMDAT

; 62   : 	{	// destroy object at _Ptr

  00000	55		 push	 ebp
  00001	8b ec		 mov	 ebp, esp

; 63   : 	_Ptr->~_Ty();

  00003	8b 4d 08	 mov	 ecx, DWORD PTR __Ptr$[ebp]

; 64   : 	}

  00006	5d		 pop	 ebp

; 63   : 	_Ptr->~_Ty();

  00007	ff 25 00 00 00
	00		 jmp	 DWORD PTR __imp_??1ioHashString@@QAE@XZ
??$_Destroy@VioHashString@@@std@@YAXPAVioHashString@@@Z ENDP ; std::_Destroy<ioHashString>
_TEXT	ENDS
PUBLIC	?construct@?$allocator@VioHashString@@@std@@QAEXPAVioHashString@@ABV3@@Z ; std::allocator<ioHashString>::construct
; Function compile flags: /Ogsp
;	COMDAT ?construct@?$allocator@VioHashString@@@std@@QAEXPAVioHashString@@ABV3@@Z
_TEXT	SEGMENT
__Ptr$ = 8						; size = 4
__Val$ = 12						; size = 4
?construct@?$allocator@VioHashString@@@std@@QAEXPAVioHashString@@ABV3@@Z PROC ; std::allocator<ioHashString>::construct, COMDAT
; _this$ = ecx

; 196  : 		{	// construct object at _Ptr with value _Val

  00000	55		 push	 ebp
  00001	8b ec		 mov	 ebp, esp

; 197  : 		_Construct(_Ptr, _Val);

  00003	ff 75 0c	 push	 DWORD PTR __Val$[ebp]
  00006	ff 75 08	 push	 DWORD PTR __Ptr$[ebp]
  00009	e8 00 00 00 00	 call	 ??$_Construct@VioHashString@@ABV1@@std@@YAXPAVioHashString@@ABV1@@Z ; std::_Construct<ioHashString,ioHashString const &>
  0000e	59		 pop	 ecx
  0000f	59		 pop	 ecx

; 198  : 		}

  00010	5d		 pop	 ebp
  00011	c2 08 00	 ret	 8
?construct@?$allocator@VioHashString@@@std@@QAEXPAVioHashString@@ABV3@@Z ENDP ; std::allocator<ioHashString>::construct
_TEXT	ENDS
PUBLIC	__real@41880000
PUBLIC	__real@41800000
PUBLIC	__real@41300000
PUBLIC	__real@41200000
PUBLIC	__real@41100000
PUBLIC	__real@c0c00000
PUBLIC	__real@41000000
PUBLIC	__real@40e00000
PUBLIC	__real@40c00000
PUBLIC	__real@40a00000
PUBLIC	__real@40800000
PUBLIC	__real@40400000
PUBLIC	__real@41700000
PUBLIC	__real@41600000
PUBLIC	__real@40000000
PUBLIC	__real@41500000
PUBLIC	__real@44ab4000
PUBLIC	__real@41400000
PUBLIC	?RenderEmoticon@ioCharEmoticon@@QAEXXZ		; ioCharEmoticon::RenderEmoticon
EXTRN	__imp_?RenderNum@ioUIRenderImage@@QAEXMMHMMW4UIRenderType@@W4TextureFilterOption@@0W4RenerNumerFormatting@1@@Z:PROC
EXTRN	__imp_?SetHorzFormatting@ioUIRenderImage@@QAEXW4HorzFormatting@1@@Z:PROC
EXTRN	?Render@io3DCharEmoticon@@QAEXXZ:PROC		; io3DCharEmoticon::Render
EXTRN	__imp_?SetPosition@ErrorReport@@YAXMM@Z:PROC
;	COMDAT __real@41880000
; File d:\lost saga for developer\youtube\tutorial\source\src\lsclient\stdafx.h
CONST	SEGMENT
__real@41880000 DD 041880000r			; 17
CONST	ENDS
;	COMDAT __real@41800000
CONST	SEGMENT
__real@41800000 DD 041800000r			; 16
CONST	ENDS
;	COMDAT __real@41300000
CONST	SEGMENT
__real@41300000 DD 041300000r			; 11
CONST	ENDS
;	COMDAT __real@41200000
CONST	SEGMENT
__real@41200000 DD 041200000r			; 10
CONST	ENDS
;	COMDAT __real@41100000
CONST	SEGMENT
__real@41100000 DD 041100000r			; 9
CONST	ENDS
;	COMDAT __real@c0c00000
CONST	SEGMENT
__real@c0c00000 DD 0c0c00000r			; -6
CONST	ENDS
;	COMDAT __real@41000000
CONST	SEGMENT
__real@41000000 DD 041000000r			; 8
CONST	ENDS
;	COMDAT __real@40e00000
CONST	SEGMENT
__real@40e00000 DD 040e00000r			; 7
CONST	ENDS
;	COMDAT __real@40c00000
CONST	SEGMENT
__real@40c00000 DD 040c00000r			; 6
CONST	ENDS
;	COMDAT __real@40a00000
CONST	SEGMENT
__real@40a00000 DD 040a00000r			; 5
CONST	ENDS
;	COMDAT __real@40800000
CONST	SEGMENT
__real@40800000 DD 040800000r			; 4
CONST	ENDS
;	COMDAT __real@40400000
CONST	SEGMENT
__real@40400000 DD 040400000r			; 3
CONST	ENDS
;	COMDAT __real@41700000
CONST	SEGMENT
__real@41700000 DD 041700000r			; 15
CONST	ENDS
;	COMDAT __real@41600000
CONST	SEGMENT
__real@41600000 DD 041600000r			; 14
CONST	ENDS
;	COMDAT __real@40000000
CONST	SEGMENT
__real@40000000 DD 040000000r			; 2
CONST	ENDS
;	COMDAT __real@41500000
CONST	SEGMENT
__real@41500000 DD 041500000r			; 13
CONST	ENDS
;	COMDAT __real@44ab4000
CONST	SEGMENT
__real@44ab4000 DD 044ab4000r			; 1370
CONST	ENDS
;	COMDAT __real@41400000
CONST	SEGMENT
__real@41400000 DD 041400000r			; 12
; Function compile flags: /Ogsp
; File d:\lost saga for developer\youtube\tutorial\source\src\lsclient\iocharemoticon.cpp
CONST	ENDS
;	COMDAT ?RenderEmoticon@ioCharEmoticon@@QAEXXZ
_TEXT	SEGMENT
tv633 = -8						; size = 4
tv617 = -8						; size = 4
tv606 = -8						; size = 4
tv592 = -8						; size = 4
_iNum$525742 = -8					; size = 4
_bRenderChatBubble$ = -1				; size = 1
?RenderEmoticon@ioCharEmoticon@@QAEXXZ PROC		; ioCharEmoticon::RenderEmoticon, COMDAT
; _this$ = ecx

; 965  : {

  00000	55		 push	 ebp
  00001	8b ec		 mov	 ebp, esp
  00003	51		 push	 ecx
  00004	51		 push	 ecx
  00005	53		 push	 ebx
  00006	56		 push	 esi
  00007	8b f1		 mov	 esi, ecx

; 966  : 	if( !m_bNeedRender )	return;

  00009	33 db		 xor	 ebx, ebx
  0000b	38 9e 88 00 00
	00		 cmp	 BYTE PTR [esi+136], bl
  00011	0f 84 91 06 00
	00		 je	 $LN1@RenderEmot

; 967  : 
; 968  : 	ErrorReport::SetPosition( 1370, 12 );

  00017	f3 0f 10 05 00
	00 00 00	 movss	 xmm0, DWORD PTR __real@41400000
  0001f	57		 push	 edi
  00020	8b 3d 00 00 00
	00		 mov	 edi, DWORD PTR __imp_?SetPosition@ErrorReport@@YAXMM@Z
  00026	51		 push	 ecx
  00027	51		 push	 ecx
  00028	f3 0f 11 44 24
	04		 movss	 DWORD PTR [esp+4], xmm0
  0002e	f3 0f 10 05 00
	00 00 00	 movss	 xmm0, DWORD PTR __real@44ab4000
  00036	f3 0f 11 04 24	 movss	 DWORD PTR [esp], xmm0
  0003b	ff d7		 call	 edi
  0003d	59		 pop	 ecx
  0003e	59		 pop	 ecx

; 969  : 	bool bRenderChatBubble = RenderChatBubble();

  0003f	8b ce		 mov	 ecx, esi
  00041	e8 00 00 00 00	 call	 ?RenderChatBubble@ioCharEmoticon@@IAE_NXZ ; ioCharEmoticon::RenderChatBubble

; 970  : 	ErrorReport::SetPosition( 1370, 13 );

  00046	f3 0f 10 05 00
	00 00 00	 movss	 xmm0, DWORD PTR __real@41500000
  0004e	51		 push	 ecx
  0004f	51		 push	 ecx
  00050	f3 0f 11 44 24
	04		 movss	 DWORD PTR [esp+4], xmm0
  00056	f3 0f 10 05 00
	00 00 00	 movss	 xmm0, DWORD PTR __real@44ab4000
  0005e	88 45 ff	 mov	 BYTE PTR _bRenderChatBubble$[ebp], al
  00061	f3 0f 11 04 24	 movss	 DWORD PTR [esp], xmm0
  00066	ff d7		 call	 edi

; 971  : 
; 972  : 	if( m_Type == EMT_3D_CHAT_ICON && m_p3DChatEmoticon )

  00068	83 7e 6c 06	 cmp	 DWORD PTR [esi+108], 6
  0006c	59		 pop	 ecx
  0006d	59		 pop	 ecx
  0006e	0f 85 a2 00 00
	00		 jne	 $LN27@RenderEmot
  00074	39 5e 0c	 cmp	 DWORD PTR [esi+12], ebx
  00077	0f 84 99 00 00
	00		 je	 $LN27@RenderEmot

; 973  : 	{
; 974  : 		ErrorReport::SetPosition( 1370, 1 );

  0007d	f3 0f 10 05 00
	00 00 00	 movss	 xmm0, DWORD PTR __real@3f800000
  00085	51		 push	 ecx
  00086	51		 push	 ecx
  00087	f3 0f 11 44 24
	04		 movss	 DWORD PTR [esp+4], xmm0
  0008d	f3 0f 10 05 00
	00 00 00	 movss	 xmm0, DWORD PTR __real@44ab4000
  00095	f3 0f 11 04 24	 movss	 DWORD PTR [esp], xmm0
  0009a	ff d7		 call	 edi
  0009c	59		 pop	 ecx
  0009d	59		 pop	 ecx

; 975  : 		m_p3DChatEmoticon->Render();

  0009e	8b 4e 0c	 mov	 ecx, DWORD PTR [esi+12]
  000a1	e8 00 00 00 00	 call	 ?Render@io3DCharEmoticon@@QAEXXZ ; io3DCharEmoticon::Render

; 976  : 		ErrorReport::SetPosition( 1370, 2 );

  000a6	f3 0f 10 05 00
	00 00 00	 movss	 xmm0, DWORD PTR __real@40000000
  000ae	51		 push	 ecx
  000af	51		 push	 ecx
  000b0	f3 0f 11 44 24
	04		 movss	 DWORD PTR [esp+4], xmm0
  000b6	f3 0f 10 05 00
	00 00 00	 movss	 xmm0, DWORD PTR __real@44ab4000
  000be	f3 0f 11 04 24	 movss	 DWORD PTR [esp], xmm0
  000c3	ff d7		 call	 edi

; 977  : 
; 978  : 		ErrorReport::SetPosition( 1370, 14 );

  000c5	f3 0f 10 05 00
	00 00 00	 movss	 xmm0, DWORD PTR __real@41600000
  000cd	f3 0f 11 44 24
	04		 movss	 DWORD PTR [esp+4], xmm0
  000d3	f3 0f 10 05 00
	00 00 00	 movss	 xmm0, DWORD PTR __real@44ab4000
  000db	f3 0f 11 04 24	 movss	 DWORD PTR [esp], xmm0
  000e0	ff d7		 call	 edi
  000e2	59		 pop	 ecx
  000e3	59		 pop	 ecx

; 979  : 		if( bRenderChatBubble )

  000e4	38 5d ff	 cmp	 BYTE PTR _bRenderChatBubble$[ebp], bl
  000e7	74 07		 je	 SHORT $LN26@RenderEmot

; 980  : 			RenderChatText();

  000e9	8b ce		 mov	 ecx, esi
  000eb	e8 00 00 00 00	 call	 ?RenderChatText@ioCharEmoticon@@IAEXXZ ; ioCharEmoticon::RenderChatText
$LN26@RenderEmot:

; 981  : 		ErrorReport::SetPosition( 1370, 15 );

  000f0	f3 0f 10 05 00
	00 00 00	 movss	 xmm0, DWORD PTR __real@41700000
  000f8	51		 push	 ecx
  000f9	51		 push	 ecx
  000fa	f3 0f 11 44 24
	04		 movss	 DWORD PTR [esp+4], xmm0
  00100	f3 0f 10 05 00
	00 00 00	 movss	 xmm0, DWORD PTR __real@44ab4000
  00108	f3 0f 11 04 24	 movss	 DWORD PTR [esp], xmm0
  0010d	ff d7		 call	 edi
  0010f	59		 pop	 ecx
  00110	59		 pop	 ecx

; 982  : 
; 983  : 		return;

  00111	e9 91 05 00 00	 jmp	 $LN41@RenderEmot
$LN27@RenderEmot:

; 984  : 	}
; 985  : 
; 986  : 	if( m_State == ES_SCALE || m_State == ES_DURATION || m_State == ES_DURATION_SCALE )

  00116	8b 46 68	 mov	 eax, DWORD PTR [esi+104]
  00119	83 f8 01	 cmp	 eax, 1
  0011c	74 0e		 je	 SHORT $LN39@RenderEmot
  0011e	83 f8 02	 cmp	 eax, 2
  00121	74 09		 je	 SHORT $LN39@RenderEmot
  00123	83 f8 07	 cmp	 eax, 7
  00126	0f 85 80 00 00
	00		 jne	 $LN23@RenderEmot
$LN39@RenderEmot:

; 987  : 	{
; 988  : 		if( m_pEmoticonBack && m_bInScreen && m_bVisible )

  0012c	39 5e 04	 cmp	 DWORD PTR [esi+4], ebx
  0012f	74 7b		 je	 SHORT $LN23@RenderEmot
  00131	38 9e 89 00 00
	00		 cmp	 BYTE PTR [esi+137], bl
  00137	74 73		 je	 SHORT $LN23@RenderEmot
  00139	38 9e 8a 00 00
	00		 cmp	 BYTE PTR [esi+138], bl
  0013f	74 6b		 je	 SHORT $LN23@RenderEmot

; 989  : 		{
; 990  : 			ErrorReport::SetPosition( 1370, 3 );

  00141	f3 0f 10 05 00
	00 00 00	 movss	 xmm0, DWORD PTR __real@40400000
  00149	51		 push	 ecx
  0014a	51		 push	 ecx
  0014b	f3 0f 11 44 24
	04		 movss	 DWORD PTR [esp+4], xmm0
  00151	f3 0f 10 05 00
	00 00 00	 movss	 xmm0, DWORD PTR __real@44ab4000
  00159	f3 0f 11 04 24	 movss	 DWORD PTR [esp], xmm0
  0015e	ff d7		 call	 edi

; 991  : 
; 992  : 			m_pEmoticonBack->Render( m_iRenderXPos,
; 993  : 									 m_iRenderYPos,
; 994  : 									 UI_RENDER_NORMAL,
; 995  : 									 TFO_BILINEAR );

  00160	66 0f 6e 46 7c	 movd	 xmm0, DWORD PTR [esi+124]
  00165	59		 pop	 ecx
  00166	59		 pop	 ecx
  00167	8b 4e 04	 mov	 ecx, DWORD PTR [esi+4]
  0016a	8b 01		 mov	 eax, DWORD PTR [ecx]
  0016c	53		 push	 ebx
  0016d	53		 push	 ebx
  0016e	6a 01		 push	 1
  00170	53		 push	 ebx
  00171	51		 push	 ecx
  00172	0f 5b c0	 cvtdq2ps xmm0, xmm0
  00175	51		 push	 ecx
  00176	f3 0f 11 44 24
	04		 movss	 DWORD PTR [esp+4], xmm0
  0017c	66 0f 6e 46 78	 movd	 xmm0, DWORD PTR [esi+120]
  00181	0f 5b c0	 cvtdq2ps xmm0, xmm0
  00184	f3 0f 11 04 24	 movss	 DWORD PTR [esp], xmm0
  00189	ff 10		 call	 DWORD PTR [eax]

; 996  : 
; 997  : 			ErrorReport::SetPosition( 1370, 4 );

  0018b	f3 0f 10 05 00
	00 00 00	 movss	 xmm0, DWORD PTR __real@40800000
  00193	51		 push	 ecx
  00194	51		 push	 ecx
  00195	f3 0f 11 44 24
	04		 movss	 DWORD PTR [esp+4], xmm0
  0019b	f3 0f 10 05 00
	00 00 00	 movss	 xmm0, DWORD PTR __real@44ab4000
  001a3	f3 0f 11 04 24	 movss	 DWORD PTR [esp], xmm0
  001a8	ff d7		 call	 edi
  001aa	59		 pop	 ecx
  001ab	59		 pop	 ecx
$LN23@RenderEmot:

; 998  : 		}
; 999  : 	}
; 1000 : 
; 1001 : 	if( m_pEmoticon )

  001ac	39 1e		 cmp	 DWORD PTR [esi], ebx
  001ae	74 6c		 je	 SHORT $LN22@RenderEmot

; 1002 : 	{
; 1003 : 		ErrorReport::SetPosition( 1370, 5 );

  001b0	f3 0f 10 05 00
	00 00 00	 movss	 xmm0, DWORD PTR __real@40a00000
  001b8	51		 push	 ecx
  001b9	51		 push	 ecx
  001ba	f3 0f 11 44 24
	04		 movss	 DWORD PTR [esp+4], xmm0
  001c0	f3 0f 10 05 00
	00 00 00	 movss	 xmm0, DWORD PTR __real@44ab4000
  001c8	f3 0f 11 04 24	 movss	 DWORD PTR [esp], xmm0
  001cd	ff d7		 call	 edi

; 1004 : 
; 1005 : 		m_pEmoticon->Render( m_iRenderXPos,
; 1006 : 							 m_iRenderYPos,
; 1007 : 							 m_RenderType,
; 1008 : 							 TFO_BILINEAR );

  001cf	66 0f 6e 46 7c	 movd	 xmm0, DWORD PTR [esi+124]
  001d4	59		 pop	 ecx
  001d5	59		 pop	 ecx
  001d6	8b 0e		 mov	 ecx, DWORD PTR [esi]
  001d8	8b 01		 mov	 eax, DWORD PTR [ecx]
  001da	53		 push	 ebx
  001db	53		 push	 ebx
  001dc	6a 01		 push	 1
  001de	ff 76 74	 push	 DWORD PTR [esi+116]
  001e1	0f 5b c0	 cvtdq2ps xmm0, xmm0
  001e4	51		 push	 ecx
  001e5	51		 push	 ecx
  001e6	f3 0f 11 44 24
	04		 movss	 DWORD PTR [esp+4], xmm0
  001ec	66 0f 6e 46 78	 movd	 xmm0, DWORD PTR [esi+120]
  001f1	0f 5b c0	 cvtdq2ps xmm0, xmm0
  001f4	f3 0f 11 04 24	 movss	 DWORD PTR [esp], xmm0
  001f9	ff 10		 call	 DWORD PTR [eax]

; 1009 : 
; 1010 : 		ErrorReport::SetPosition( 1370, 6 );

  001fb	f3 0f 10 05 00
	00 00 00	 movss	 xmm0, DWORD PTR __real@40c00000
  00203	51		 push	 ecx
  00204	51		 push	 ecx
  00205	f3 0f 11 44 24
	04		 movss	 DWORD PTR [esp+4], xmm0
  0020b	f3 0f 10 05 00
	00 00 00	 movss	 xmm0, DWORD PTR __real@44ab4000
  00213	f3 0f 11 04 24	 movss	 DWORD PTR [esp], xmm0
  00218	ff d7		 call	 edi
  0021a	59		 pop	 ecx
  0021b	59		 pop	 ecx
$LN22@RenderEmot:

; 1011 : 	}
; 1012 : 
; 1013 : 	if( m_Type == EMT_HIT_COMBO )

  0021c	8b 56 6c	 mov	 edx, DWORD PTR [esi+108]
  0021f	83 fa 04	 cmp	 edx, 4
  00222	75 62		 jne	 SHORT $LN21@RenderEmot

; 1014 : 	{
; 1015 : 		if( m_pEmoticonNum )

  00224	39 5e 08	 cmp	 DWORD PTR [esi+8], ebx
  00227	0f 84 d5 03 00
	00		 je	 $LN5@RenderEmot

; 1016 : 		{
; 1017 : 			ErrorReport::SetPosition( 1370, 7 );

  0022d	f3 0f 10 05 00
	00 00 00	 movss	 xmm0, DWORD PTR __real@40e00000
  00235	51		 push	 ecx
  00236	51		 push	 ecx
  00237	f3 0f 11 44 24
	04		 movss	 DWORD PTR [esp+4], xmm0
  0023d	f3 0f 10 05 00
	00 00 00	 movss	 xmm0, DWORD PTR __real@44ab4000
  00245	f3 0f 11 04 24	 movss	 DWORD PTR [esp], xmm0
  0024a	ff d7		 call	 edi

; 1018 : 
; 1019 : 			m_pEmoticonNum->Render( m_iRenderXPos,
; 1020 : 									m_iRenderYPos,
; 1021 : 									m_RenderType,
; 1022 : 									TFO_BILINEAR );

  0024c	66 0f 6e 46 7c	 movd	 xmm0, DWORD PTR [esi+124]
  00251	59		 pop	 ecx
  00252	59		 pop	 ecx
  00253	8b 4e 08	 mov	 ecx, DWORD PTR [esi+8]
  00256	8b 01		 mov	 eax, DWORD PTR [ecx]
  00258	53		 push	 ebx
  00259	53		 push	 ebx
  0025a	6a 01		 push	 1
  0025c	ff 76 74	 push	 DWORD PTR [esi+116]
  0025f	0f 5b c0	 cvtdq2ps xmm0, xmm0
  00262	51		 push	 ecx
  00263	51		 push	 ecx
  00264	f3 0f 11 44 24
	04		 movss	 DWORD PTR [esp+4], xmm0
  0026a	66 0f 6e 46 78	 movd	 xmm0, DWORD PTR [esi+120]
  0026f	0f 5b c0	 cvtdq2ps xmm0, xmm0
  00272	f3 0f 11 04 24	 movss	 DWORD PTR [esp], xmm0
  00277	ff 10		 call	 DWORD PTR [eax]

; 1023 : 
; 1024 : 			ErrorReport::SetPosition( 1370, 8 );

  00279	f3 0f 10 05 00
	00 00 00	 movss	 xmm0, DWORD PTR __real@41000000

; 1025 : 		}	
; 1026 : 	}

  00281	e9 63 03 00 00	 jmp	 $LN46@RenderEmot
$LN21@RenderEmot:

; 1027 : 	else if( m_Type == EMT_KILL_POINT && m_pKillPointNum )

  00286	83 fa 0b	 cmp	 edx, 11			; 0000000bH
  00289	0f 85 07 02 00
	00		 jne	 $LN40@RenderEmot
  0028f	8b 8e c0 00 00
	00		 mov	 ecx, DWORD PTR [esi+192]
  00295	3b cb		 cmp	 ecx, ebx
  00297	0f 84 f9 01 00
	00		 je	 $LN40@RenderEmot

; 1028 : 	{
; 1029 : 		m_pKillPointNum->SetHorzFormatting( ioUIRenderImage::HF_LEFT_ALIGN );

  0029d	53		 push	 ebx
  0029e	ff 15 00 00 00
	00		 call	 DWORD PTR __imp_?SetHorzFormatting@ioUIRenderImage@@QAEXW4HorzFormatting@1@@Z

; 1030 : 		
; 1031 : 		// 
; 1032 : 		if( m_iKillPoint < 10 )

  002a4	8d 4e 28	 lea	 ecx, DWORD PTR [esi+40]
  002a7	83 39 0a	 cmp	 DWORD PTR [ecx], 10	; 0000000aH
  002aa	0f 8d 9a 00 00
	00		 jge	 $LN17@RenderEmot

; 1033 : 		{
; 1034 : 			m_pKillPointNum->RenderNum( m_iRenderXPos - 20,	m_iRenderYPos - 14,
; 1035 : 										m_iKillPoint, 0.0f, FLOAT1, m_RenderType, TFO_BILINEAR );

  002b0	b8 01 00 00 00	 mov	 eax, 1
  002b5	53		 push	 ebx
  002b6	53		 push	 ebx
  002b7	6a 01		 push	 1
  002b9	ff 76 74	 push	 DWORD PTR [esi+116]
  002bc	89 45 f8	 mov	 DWORD PTR tv633[ebp], eax
  002bf	db 45 f8	 fild	 DWORD PTR tv633[ebp]
  002c2	85 c0		 test	 eax, eax
  002c4	79 06		 jns	 SHORT $LN42@RenderEmot
  002c6	d8 05 00 00 00
	00		 fadd	 DWORD PTR __real@4f800000
$LN42@RenderEmot:
  002cc	0f 57 c0	 xorps	 xmm0, xmm0
  002cf	8b 46 7c	 mov	 eax, DWORD PTR [esi+124]
  002d2	51		 push	 ecx
  002d3	51		 push	 ecx
  002d4	d9 5c 24 04	 fstp	 DWORD PTR [esp+4]
  002d8	f3 0f 11 04 24	 movss	 DWORD PTR [esp], xmm0
  002dd	ff 31		 push	 DWORD PTR [ecx]
  002df	83 e8 0e	 sub	 eax, 14			; 0000000eH
  002e2	0f 57 c0	 xorps	 xmm0, xmm0
  002e5	f3 0f 2a c0	 cvtsi2ss xmm0, eax
  002e9	8b 46 78	 mov	 eax, DWORD PTR [esi+120]
  002ec	51		 push	 ecx
  002ed	51		 push	 ecx
  002ee	8b 8e c0 00 00
	00		 mov	 ecx, DWORD PTR [esi+192]
  002f4	f3 0f 11 44 24
	04		 movss	 DWORD PTR [esp+4], xmm0
  002fa	83 e8 14	 sub	 eax, 20			; 00000014H
  002fd	0f 57 c0	 xorps	 xmm0, xmm0
  00300	f3 0f 2a c0	 cvtsi2ss xmm0, eax
  00304	f3 0f 11 04 24	 movss	 DWORD PTR [esp], xmm0
  00309	ff 15 00 00 00
	00		 call	 DWORD PTR __imp_?RenderNum@ioUIRenderImage@@QAEXMMHMMW4UIRenderType@@W4TextureFilterOption@@0W4RenerNumerFormatting@1@@Z

; 1036 : 
; 1037 : 			if( m_pKillPointPer )

  0030f	39 9e c4 00 00
	00		 cmp	 DWORD PTR [esi+196], ebx
  00315	0f 84 e7 02 00
	00		 je	 $LN5@RenderEmot

; 1038 : 				m_pKillPointPer->Render( m_iRenderXPos, m_iRenderYPos -14, m_RenderType, TFO_BILINEAR );

  0031b	8b 4e 7c	 mov	 ecx, DWORD PTR [esi+124]
  0031e	8b 86 c4 00 00
	00		 mov	 eax, DWORD PTR [esi+196]
  00324	53		 push	 ebx
  00325	53		 push	 ebx
  00326	6a 01		 push	 1
  00328	ff 76 74	 push	 DWORD PTR [esi+116]
  0032b	83 e9 0e	 sub	 ecx, 14			; 0000000eH
  0032e	0f 57 c0	 xorps	 xmm0, xmm0
  00331	51		 push	 ecx
  00332	f3 0f 2a c1	 cvtsi2ss xmm0, ecx
  00336	51		 push	 ecx
  00337	f3 0f 11 44 24
	04		 movss	 DWORD PTR [esp+4], xmm0
  0033d	66 0f 6e 46 78	 movd	 xmm0, DWORD PTR [esi+120]
  00342	0f 5b c0	 cvtdq2ps xmm0, xmm0

; 1039 : 		}

  00345	e9 cd 01 00 00	 jmp	 $LN50@RenderEmot
$LN17@RenderEmot:

; 1040 : 		else if( m_iKillPoint < FLOAT100 )

  0034a	b8 64 00 00 00	 mov	 eax, 100		; 00000064H
  0034f	db 01		 fild	 DWORD PTR [ecx]
  00351	89 45 f8	 mov	 DWORD PTR tv617[ebp], eax
  00354	db 45 f8	 fild	 DWORD PTR tv617[ebp]
  00357	85 c0		 test	 eax, eax
  00359	79 06		 jns	 SHORT $LN43@RenderEmot
  0035b	d8 05 00 00 00
	00		 fadd	 DWORD PTR __real@4f800000
$LN43@RenderEmot:
  00361	df f1		 fcomip	 ST(1)
  00363	dd d8		 fstp	 ST(0)
  00365	0f 86 97 00 00
	00		 jbe	 $LN14@RenderEmot

; 1041 : 		{
; 1042 : 			m_pKillPointNum->RenderNum( m_iRenderXPos - 30,	m_iRenderYPos - 14,
; 1043 : 										m_iKillPoint, -6.0f, FLOAT1, m_RenderType, TFO_BILINEAR );

  0036b	b8 01 00 00 00	 mov	 eax, 1
  00370	53		 push	 ebx
  00371	53		 push	 ebx
  00372	6a 01		 push	 1
  00374	ff 76 74	 push	 DWORD PTR [esi+116]
  00377	89 45 f8	 mov	 DWORD PTR tv606[ebp], eax
  0037a	db 45 f8	 fild	 DWORD PTR tv606[ebp]
  0037d	85 c0		 test	 eax, eax
  0037f	79 06		 jns	 SHORT $LN44@RenderEmot
  00381	d8 05 00 00 00
	00		 fadd	 DWORD PTR __real@4f800000
$LN44@RenderEmot:
  00387	f3 0f 10 05 00
	00 00 00	 movss	 xmm0, DWORD PTR __real@c0c00000
  0038f	8b 46 7c	 mov	 eax, DWORD PTR [esi+124]
  00392	51		 push	 ecx
  00393	51		 push	 ecx
  00394	d9 5c 24 04	 fstp	 DWORD PTR [esp+4]
  00398	f3 0f 11 04 24	 movss	 DWORD PTR [esp], xmm0
  0039d	ff 31		 push	 DWORD PTR [ecx]
  0039f	83 e8 0e	 sub	 eax, 14			; 0000000eH
  003a2	0f 57 c0	 xorps	 xmm0, xmm0
  003a5	f3 0f 2a c0	 cvtsi2ss xmm0, eax
  003a9	8b 46 78	 mov	 eax, DWORD PTR [esi+120]
  003ac	51		 push	 ecx
  003ad	51		 push	 ecx
  003ae	8b 8e c0 00 00
	00		 mov	 ecx, DWORD PTR [esi+192]
  003b4	f3 0f 11 44 24
	04		 movss	 DWORD PTR [esp+4], xmm0
  003ba	83 e8 1e	 sub	 eax, 30			; 0000001eH
  003bd	0f 57 c0	 xorps	 xmm0, xmm0
  003c0	f3 0f 2a c0	 cvtsi2ss xmm0, eax
  003c4	f3 0f 11 04 24	 movss	 DWORD PTR [esp], xmm0
  003c9	ff 15 00 00 00
	00		 call	 DWORD PTR __imp_?RenderNum@ioUIRenderImage@@QAEXMMHMMW4UIRenderType@@W4TextureFilterOption@@0W4RenerNumerFormatting@1@@Z

; 1044 : 
; 1045 : 			if( m_pKillPointPer )

  003cf	39 9e c4 00 00
	00		 cmp	 DWORD PTR [esi+196], ebx
  003d5	0f 84 27 02 00
	00		 je	 $LN5@RenderEmot

; 1046 : 				m_pKillPointPer->Render( m_iRenderXPos + 10, m_iRenderYPos -14, m_RenderType, TFO_BILINEAR );

  003db	8b 4e 7c	 mov	 ecx, DWORD PTR [esi+124]
  003de	8b 86 c4 00 00
	00		 mov	 eax, DWORD PTR [esi+196]
  003e4	53		 push	 ebx
  003e5	53		 push	 ebx
  003e6	6a 01		 push	 1
  003e8	ff 76 74	 push	 DWORD PTR [esi+116]
  003eb	83 e9 0e	 sub	 ecx, 14			; 0000000eH
  003ee	51		 push	 ecx
  003ef	0f 57 c0	 xorps	 xmm0, xmm0
  003f2	f3 0f 2a c1	 cvtsi2ss xmm0, ecx
  003f6	51		 push	 ecx
  003f7	8b 4e 78	 mov	 ecx, DWORD PTR [esi+120]
  003fa	83 c1 0a	 add	 ecx, 10			; 0000000aH

; 1047 : 		}
; 1048 : 		else

  003fd	e9 08 01 00 00	 jmp	 $LN49@RenderEmot
$LN14@RenderEmot:

; 1049 : 		{
; 1050 : 			m_pKillPointNum->RenderNum( m_iRenderXPos - 40,	m_iRenderYPos - 14,
; 1051 : 										m_iKillPoint, -6.0f, FLOAT1, m_RenderType, TFO_BILINEAR );

  00402	b8 01 00 00 00	 mov	 eax, 1
  00407	53		 push	 ebx
  00408	53		 push	 ebx
  00409	6a 01		 push	 1
  0040b	ff 76 74	 push	 DWORD PTR [esi+116]
  0040e	89 45 f8	 mov	 DWORD PTR tv592[ebp], eax
  00411	db 45 f8	 fild	 DWORD PTR tv592[ebp]
  00414	85 c0		 test	 eax, eax
  00416	79 06		 jns	 SHORT $LN45@RenderEmot
  00418	d8 05 00 00 00
	00		 fadd	 DWORD PTR __real@4f800000
$LN45@RenderEmot:
  0041e	f3 0f 10 05 00
	00 00 00	 movss	 xmm0, DWORD PTR __real@c0c00000
  00426	8b 46 7c	 mov	 eax, DWORD PTR [esi+124]
  00429	51		 push	 ecx
  0042a	51		 push	 ecx
  0042b	d9 5c 24 04	 fstp	 DWORD PTR [esp+4]
  0042f	f3 0f 11 04 24	 movss	 DWORD PTR [esp], xmm0
  00434	ff 31		 push	 DWORD PTR [ecx]
  00436	83 e8 0e	 sub	 eax, 14			; 0000000eH
  00439	0f 57 c0	 xorps	 xmm0, xmm0
  0043c	f3 0f 2a c0	 cvtsi2ss xmm0, eax
  00440	8b 46 78	 mov	 eax, DWORD PTR [esi+120]
  00443	51		 push	 ecx
  00444	51		 push	 ecx
  00445	8b 8e c0 00 00
	00		 mov	 ecx, DWORD PTR [esi+192]
  0044b	f3 0f 11 44 24
	04		 movss	 DWORD PTR [esp+4], xmm0
  00451	83 e8 28	 sub	 eax, 40			; 00000028H
  00454	0f 57 c0	 xorps	 xmm0, xmm0
  00457	f3 0f 2a c0	 cvtsi2ss xmm0, eax
  0045b	f3 0f 11 04 24	 movss	 DWORD PTR [esp], xmm0
  00460	ff 15 00 00 00
	00		 call	 DWORD PTR __imp_?RenderNum@ioUIRenderImage@@QAEXMMHMMW4UIRenderType@@W4TextureFilterOption@@0W4RenerNumerFormatting@1@@Z

; 1052 : 
; 1053 : 			if( m_pKillPointPer )

  00466	39 9e c4 00 00
	00		 cmp	 DWORD PTR [esi+196], ebx
  0046c	0f 84 90 01 00
	00		 je	 $LN5@RenderEmot

; 1054 : 				m_pKillPointPer->Render( m_iRenderXPos + 20, m_iRenderYPos -14, m_RenderType, TFO_BILINEAR );

  00472	8b 4e 7c	 mov	 ecx, DWORD PTR [esi+124]
  00475	8b 86 c4 00 00
	00		 mov	 eax, DWORD PTR [esi+196]
  0047b	53		 push	 ebx
  0047c	53		 push	 ebx
  0047d	6a 01		 push	 1
  0047f	ff 76 74	 push	 DWORD PTR [esi+116]
  00482	83 e9 0e	 sub	 ecx, 14			; 0000000eH
  00485	51		 push	 ecx
  00486	0f 57 c0	 xorps	 xmm0, xmm0
  00489	f3 0f 2a c1	 cvtsi2ss xmm0, ecx
  0048d	51		 push	 ecx
  0048e	8b 4e 78	 mov	 ecx, DWORD PTR [esi+120]
  00491	83 c1 14	 add	 ecx, 20			; 00000014H

; 1055 : 		}

  00494	eb 74		 jmp	 SHORT $LN49@RenderEmot
$LN40@RenderEmot:

; 1056 : 	}
; 1057 : 	else if( m_Type == EMT_FISHING_GRADE && m_pFishingGrade )

  00496	83 fa 0c	 cmp	 edx, 12			; 0000000cH
  00499	75 3b		 jne	 SHORT $LN9@RenderEmot
  0049b	39 9e ec 00 00
	00		 cmp	 DWORD PTR [esi+236], ebx
  004a1	74 33		 je	 SHORT $LN9@RenderEmot

; 1058 : 	{
; 1059 : 		m_pFishingGrade->Render( m_iRenderXPos, m_iRenderYPos, m_RenderType, TFO_BILINEAR );

  004a3	8b 8e ec 00 00
	00		 mov	 ecx, DWORD PTR [esi+236]
  004a9	66 0f 6e 46 7c	 movd	 xmm0, DWORD PTR [esi+124]
  004ae	8b 01		 mov	 eax, DWORD PTR [ecx]
  004b0	53		 push	 ebx
  004b1	53		 push	 ebx
  004b2	6a 01		 push	 1
  004b4	ff 76 74	 push	 DWORD PTR [esi+116]
  004b7	0f 5b c0	 cvtdq2ps xmm0, xmm0
  004ba	51		 push	 ecx
  004bb	51		 push	 ecx
  004bc	f3 0f 11 44 24
	04		 movss	 DWORD PTR [esp+4], xmm0
  004c2	66 0f 6e 46 78	 movd	 xmm0, DWORD PTR [esi+120]
  004c7	0f 5b c0	 cvtdq2ps xmm0, xmm0
  004ca	f3 0f 11 04 24	 movss	 DWORD PTR [esp], xmm0
  004cf	ff 10		 call	 DWORD PTR [eax]
  004d1	e9 2c 01 00 00	 jmp	 $LN5@RenderEmot
$LN9@RenderEmot:

; 1060 : 	}
; 1061 : 	else if( m_Type == EMT_FISHING_LEVEL_UP && m_State == ES_DURATION && m_pFishingLevelUp )

  004d6	83 fa 0d	 cmp	 edx, 13			; 0000000dH
  004d9	75 4c		 jne	 SHORT $LN7@RenderEmot
  004db	83 7e 68 02	 cmp	 DWORD PTR [esi+104], 2
  004df	75 46		 jne	 SHORT $LN7@RenderEmot
  004e1	39 9e f0 00 00
	00		 cmp	 DWORD PTR [esi+240], ebx
  004e7	74 3e		 je	 SHORT $LN7@RenderEmot

; 1062 : 	{
; 1063 : 		m_pFishingLevelUp->Render( m_iRenderXPos - 44, m_iRenderYPos - 35, m_RenderType );

  004e9	8b 4e 7c	 mov	 ecx, DWORD PTR [esi+124]
  004ec	8b 86 f0 00 00
	00		 mov	 eax, DWORD PTR [esi+240]
  004f2	53		 push	 ebx
  004f3	53		 push	 ebx
  004f4	53		 push	 ebx
  004f5	ff 76 74	 push	 DWORD PTR [esi+116]
  004f8	83 e9 23	 sub	 ecx, 35			; 00000023H
  004fb	51		 push	 ecx
  004fc	0f 57 c0	 xorps	 xmm0, xmm0
  004ff	f3 0f 2a c1	 cvtsi2ss xmm0, ecx
  00503	51		 push	 ecx
  00504	8b 4e 78	 mov	 ecx, DWORD PTR [esi+120]
  00507	83 e9 2c	 sub	 ecx, 44			; 0000002cH
$LN49@RenderEmot:
  0050a	f3 0f 11 44 24
	04		 movss	 DWORD PTR [esp+4], xmm0
  00510	0f 57 c0	 xorps	 xmm0, xmm0
  00513	f3 0f 2a c1	 cvtsi2ss xmm0, ecx
$LN50@RenderEmot:
  00517	8b 10		 mov	 edx, DWORD PTR [eax]
  00519	8b c8		 mov	 ecx, eax
  0051b	f3 0f 11 04 24	 movss	 DWORD PTR [esp], xmm0
  00520	ff 12		 call	 DWORD PTR [edx]
  00522	e9 db 00 00 00	 jmp	 $LN5@RenderEmot
$LN7@RenderEmot:

; 1064 : 	}
; 1065 : 	else if( m_pEmoticonNum )

  00527	39 5e 08	 cmp	 DWORD PTR [esi+8], ebx
  0052a	0f 84 d2 00 00
	00		 je	 $LN5@RenderEmot

; 1066 : 	{
; 1067 : 		ErrorReport::SetPosition( 1370, 9 );

  00530	f3 0f 10 05 00
	00 00 00	 movss	 xmm0, DWORD PTR __real@41100000
  00538	51		 push	 ecx
  00539	51		 push	 ecx
  0053a	f3 0f 11 44 24
	04		 movss	 DWORD PTR [esp+4], xmm0
  00540	f3 0f 10 05 00
	00 00 00	 movss	 xmm0, DWORD PTR __real@44ab4000
  00548	f3 0f 11 04 24	 movss	 DWORD PTR [esp], xmm0
  0054d	ff d7		 call	 edi
  0054f	59		 pop	 ecx
  00550	59		 pop	 ecx

; 1068 : 
; 1069 : 		m_pEmoticonNum->SetHorzFormatting( ioUIRenderImage::HF_CENTER );

  00551	8b 4e 08	 mov	 ecx, DWORD PTR [esi+8]
  00554	6a 02		 push	 2
  00556	ff 15 00 00 00
	00		 call	 DWORD PTR __imp_?SetHorzFormatting@ioUIRenderImage@@QAEXW4HorzFormatting@1@@Z

; 1070 : 		
; 1071 : 		int iNum = m_iCharRank;
; 1072 : 
; 1073 : 		ErrorReport::SetPosition( 1370, 10 );

  0055c	f3 0f 10 05 00
	00 00 00	 movss	 xmm0, DWORD PTR __real@41200000
  00564	8b 46 64	 mov	 eax, DWORD PTR [esi+100]
  00567	51		 push	 ecx
  00568	51		 push	 ecx
  00569	f3 0f 11 44 24
	04		 movss	 DWORD PTR [esp+4], xmm0
  0056f	f3 0f 10 05 00
	00 00 00	 movss	 xmm0, DWORD PTR __real@44ab4000
  00577	89 45 f8	 mov	 DWORD PTR _iNum$525742[ebp], eax
  0057a	f3 0f 11 04 24	 movss	 DWORD PTR [esp], xmm0
  0057f	ff d7		 call	 edi

; 1074 : 
; 1075 : 		m_pEmoticonNum->RenderNum( m_iRenderXPos - 3,
; 1076 : 								   m_iRenderYPos - ( 25 - m_iNumberOffset ),
; 1077 : 								   iNum,
; 1078 : 								   -6.0f,
; 1079 : 								   m_fNumberScale,
; 1080 : 								   m_RenderType,
; 1081 : 								   TFO_BILINEAR );

  00581	f3 0f 10 86 84
	00 00 00	 movss	 xmm0, DWORD PTR [esi+132]
  00589	8b 86 80 00 00
	00		 mov	 eax, DWORD PTR [esi+128]
  0058f	59		 pop	 ecx
  00590	59		 pop	 ecx
  00591	53		 push	 ebx
  00592	53		 push	 ebx
  00593	6a 01		 push	 1
  00595	ff 76 74	 push	 DWORD PTR [esi+116]
  00598	51		 push	 ecx
  00599	51		 push	 ecx
  0059a	8b 4e 7c	 mov	 ecx, DWORD PTR [esi+124]
  0059d	f3 0f 11 44 24
	04		 movss	 DWORD PTR [esp+4], xmm0
  005a3	f3 0f 10 05 00
	00 00 00	 movss	 xmm0, DWORD PTR __real@c0c00000
  005ab	f3 0f 11 04 24	 movss	 DWORD PTR [esp], xmm0
  005b0	ff 75 f8	 push	 DWORD PTR _iNum$525742[ebp]
  005b3	8d 44 08 e7	 lea	 eax, DWORD PTR [eax+ecx-25]
  005b7	0f 57 c0	 xorps	 xmm0, xmm0
  005ba	f3 0f 2a c0	 cvtsi2ss xmm0, eax
  005be	8b 46 78	 mov	 eax, DWORD PTR [esi+120]
  005c1	51		 push	 ecx
  005c2	51		 push	 ecx
  005c3	8b 4e 08	 mov	 ecx, DWORD PTR [esi+8]
  005c6	f3 0f 11 44 24
	04		 movss	 DWORD PTR [esp+4], xmm0
  005cc	83 e8 03	 sub	 eax, 3
  005cf	0f 57 c0	 xorps	 xmm0, xmm0
  005d2	f3 0f 2a c0	 cvtsi2ss xmm0, eax
  005d6	f3 0f 11 04 24	 movss	 DWORD PTR [esp], xmm0
  005db	ff 15 00 00 00
	00		 call	 DWORD PTR __imp_?RenderNum@ioUIRenderImage@@QAEXMMHMMW4UIRenderType@@W4TextureFilterOption@@0W4RenerNumerFormatting@1@@Z

; 1082 : 
; 1083 : 		ErrorReport::SetPosition( 1370, 11 );

  005e1	f3 0f 10 05 00
	00 00 00	 movss	 xmm0, DWORD PTR __real@41300000
$LN46@RenderEmot:
  005e9	51		 push	 ecx
  005ea	51		 push	 ecx
  005eb	f3 0f 11 44 24
	04		 movss	 DWORD PTR [esp+4], xmm0
  005f1	f3 0f 10 05 00
	00 00 00	 movss	 xmm0, DWORD PTR __real@44ab4000
  005f9	f3 0f 11 04 24	 movss	 DWORD PTR [esp], xmm0
  005fe	ff d7		 call	 edi
  00600	59		 pop	 ecx
  00601	59		 pop	 ecx
$LN5@RenderEmot:

; 1084 : 	}	
; 1085 : 
; 1086 : 	// ErrorReport::SetPosition 12, 13, 14, 15  
; 1087 : 	ErrorReport::SetPosition( 1370, 16 );

  00602	f3 0f 10 05 00
	00 00 00	 movss	 xmm0, DWORD PTR __real@41800000
  0060a	51		 push	 ecx
  0060b	51		 push	 ecx
  0060c	f3 0f 11 44 24
	04		 movss	 DWORD PTR [esp+4], xmm0
  00612	f3 0f 10 05 00
	00 00 00	 movss	 xmm0, DWORD PTR __real@44ab4000
  0061a	f3 0f 11 04 24	 movss	 DWORD PTR [esp], xmm0
  0061f	ff d7		 call	 edi
  00621	59		 pop	 ecx
  00622	59		 pop	 ecx

; 1088 : 	if( bRenderChatBubble )

  00623	38 5d ff	 cmp	 BYTE PTR _bRenderChatBubble$[ebp], bl
  00626	74 07		 je	 SHORT $LN4@RenderEmot

; 1089 : 		RenderChatText();

  00628	8b ce		 mov	 ecx, esi
  0062a	e8 00 00 00 00	 call	 ?RenderChatText@ioCharEmoticon@@IAEXXZ ; ioCharEmoticon::RenderChatText
$LN4@RenderEmot:

; 1090 : 	ErrorReport::SetPosition( 1370, 17 );

  0062f	f3 0f 10 05 00
	00 00 00	 movss	 xmm0, DWORD PTR __real@41880000
  00637	51		 push	 ecx
  00638	51		 push	 ecx
  00639	f3 0f 11 44 24
	04		 movss	 DWORD PTR [esp+4], xmm0
  0063f	f3 0f 10 05 00
	00 00 00	 movss	 xmm0, DWORD PTR __real@44ab4000
  00647	f3 0f 11 04 24	 movss	 DWORD PTR [esp], xmm0
  0064c	ff d7		 call	 edi

; 1091 : 
; 1092 : 	if( m_Type == EMT_NAMED_ICON )

  0064e	8b 46 6c	 mov	 eax, DWORD PTR [esi+108]
  00651	59		 pop	 ecx
  00652	59		 pop	 ecx
  00653	83 f8 09	 cmp	 eax, 9
  00656	75 26		 jne	 SHORT $LN3@RenderEmot

; 1093 : 		CheckNamedEmoticon( m_fNamedAlpha, m_fNamedScale );

  00658	f3 0f 10 86 b8
	00 00 00	 movss	 xmm0, DWORD PTR [esi+184]
  00660	51		 push	 ecx
  00661	51		 push	 ecx
  00662	f3 0f 11 44 24
	04		 movss	 DWORD PTR [esp+4], xmm0
  00668	f3 0f 10 86 b4
	00 00 00	 movss	 xmm0, DWORD PTR [esi+180]
  00670	8b ce		 mov	 ecx, esi
  00672	f3 0f 11 04 24	 movss	 DWORD PTR [esp], xmm0
  00677	e8 00 00 00 00	 call	 ?CheckNamedEmoticon@ioCharEmoticon@@IAEXMM@Z ; ioCharEmoticon::CheckNamedEmoticon
  0067c	eb 29		 jmp	 SHORT $LN41@RenderEmot
$LN3@RenderEmot:

; 1094 : 	else if( m_Type == EMT_NAMED_UNLIMITED_ICON )

  0067e	83 f8 0a	 cmp	 eax, 10			; 0000000aH
  00681	75 24		 jne	 SHORT $LN41@RenderEmot

; 1095 : 		CheckNamedUnLimitedEmoticon( m_fNamedAlpha, m_fNamedScale );

  00683	f3 0f 10 86 b8
	00 00 00	 movss	 xmm0, DWORD PTR [esi+184]
  0068b	51		 push	 ecx
  0068c	51		 push	 ecx
  0068d	f3 0f 11 44 24
	04		 movss	 DWORD PTR [esp+4], xmm0
  00693	f3 0f 10 86 b4
	00 00 00	 movss	 xmm0, DWORD PTR [esi+180]
  0069b	8b ce		 mov	 ecx, esi
  0069d	f3 0f 11 04 24	 movss	 DWORD PTR [esp], xmm0
  006a2	e8 00 00 00 00	 call	 ?CheckNamedUnLimitedEmoticon@ioCharEmoticon@@IAEXMM@Z ; ioCharEmoticon::CheckNamedUnLimitedEmoticon
$LN41@RenderEmot:
  006a7	5f		 pop	 edi
$LN1@RenderEmot:
  006a8	5e		 pop	 esi
  006a9	5b		 pop	 ebx

; 1096 : }

  006aa	c9		 leave
  006ab	c3		 ret	 0
?RenderEmoticon@ioCharEmoticon@@QAEXXZ ENDP		; ioCharEmoticon::RenderEmoticon
_TEXT	ENDS
PUBLIC	?CheckEmoticonDesc@ioCharEmoticon@@IAEXMM@Z	; ioCharEmoticon::CheckEmoticonDesc
EXTRN	?PrintFullText@ioComplexStringPrinter@@QAEXMMW4TextAlignType@@E@Z:PROC ; ioComplexStringPrinter::PrintFullText
EXTRN	?PrintFullModifyText@ioComplexStringPrinter@@QAEXMMKW4TextStyle@@W4TextAlignType@@E@Z:PROC ; ioComplexStringPrinter::PrintFullModifyText
; Function compile flags: /Ogsp
;	COMDAT ?CheckEmoticonDesc@ioCharEmoticon@@IAEXMM@Z
_TEXT	SEGMENT
_iAlpha2$ = -4						; size = 1
_fAlphaRate$ = 8					; size = 4
_fOffSet$ = 12						; size = 4
_fScale$ = 12						; size = 4
?CheckEmoticonDesc@ioCharEmoticon@@IAEXMM@Z PROC	; ioCharEmoticon::CheckEmoticonDesc, COMDAT
; _this$ = ecx

; 1840 : {

  00000	55		 push	 ebp
  00001	8b ec		 mov	 ebp, esp
  00003	51		 push	 ecx
  00004	53		 push	 ebx
  00005	56		 push	 esi
  00006	8b f1		 mov	 esi, ecx

; 1841 : 	if( !m_pCurEmoticonInfo )

  00008	33 db		 xor	 ebx, ebx
  0000a	39 9e f8 00 00
	00		 cmp	 DWORD PTR [esi+248], ebx
  00010	0f 84 e7 01 00
	00		 je	 $LN1@CheckEmoti@2

; 1842 : 		return;
; 1843 : 
; 1844 : 	BYTE iAlpha = (BYTE)(int)(127.0f * fAlphaRate);
; 1845 : 	BYTE iAlpha2 = (BYTE)(int)(255.0f * fAlphaRate);

  00016	f3 0f 10 45 08	 movss	 xmm0, DWORD PTR _fAlphaRate$[ebp]

; 1846 : 	float fCurSize = 0.0f;
; 1847 : 	float fOffSet = 0.0f;
; 1848 : 
; 1849 : 	fCurSize = 0.66f * (fScale / m_fEmoticonEndScale);
; 1850 : 	fOffSet -= 35.0f * (fScale / m_fEmoticonEndScale);

  0001b	f3 0f 10 0d 00
	00 00 00	 movss	 xmm1, DWORD PTR ?m_fEmoticonEndScale@ioCharEmoticon@@1MA
  00023	0f 57 d2	 xorps	 xmm2, xmm2
  00026	0f 5a c0	 cvtps2pd xmm0, xmm0
  00029	f2 0f 59 05 00
	00 00 00	 mulsd	 xmm0, QWORD PTR __real@406fe00000000000
  00031	f2 0f 2c c0	 cvttsd2si eax, xmm0
  00035	f3 0f 10 45 0c	 movss	 xmm0, DWORD PTR _fScale$[ebp]
  0003a	0f 5a c9	 cvtps2pd xmm1, xmm1
  0003d	0f 5a c0	 cvtps2pd xmm0, xmm0
  00040	f2 0f 5e c1	 divsd	 xmm0, xmm1
  00044	66 0f 28 c8	 movapd	 xmm1, xmm0
  00048	f2 0f 59 0d 00
	00 00 00	 mulsd	 xmm1, QWORD PTR __real@4041800000000000

; 1851 : 	fOffSet -= 9.0f * (fScale / m_fEmoticonEndScale);

  00050	f2 0f 59 05 00
	00 00 00	 mulsd	 xmm0, QWORD PTR __real@4022000000000000
  00058	f2 0f 5c d1	 subsd	 xmm2, xmm1
  0005c	0f 57 c9	 xorps	 xmm1, xmm1
  0005f	66 0f 5a ca	 cvtpd2ps xmm1, xmm2
  00063	57		 push	 edi

; 1852 : 
; 1853 : 	g_FontMgr.SetAlignType( (TextAlignType)m_iEmoticonNameAlignType );

  00064	ff 35 00 00 00
	00		 push	 DWORD PTR ?m_iEmoticonNameAlignType@ioCharEmoticon@@1HA ; ioCharEmoticon::m_iEmoticonNameAlignType
  0006a	8b 3d 00 00 00
	00		 mov	 edi, DWORD PTR __imp_?GetSingleton@ioFontManager@@SAAAV1@XZ
  00070	0f 5a c9	 cvtps2pd xmm1, xmm1
  00073	f2 0f 5c c8	 subsd	 xmm1, xmm0
  00077	66 0f 5a c1	 cvtpd2ps xmm0, xmm1
  0007b	88 45 fc	 mov	 BYTE PTR _iAlpha2$[ebp], al
  0007e	f3 0f 11 45 0c	 movss	 DWORD PTR _fOffSet$[ebp], xmm0
  00083	ff d7		 call	 edi
  00085	8b c8		 mov	 ecx, eax
  00087	ff 15 00 00 00
	00		 call	 DWORD PTR __imp_?SetAlignType@ioFontManager@@QAEXW4TextAlignType@@@Z

; 1854 : 	g_FontMgr.SetBkColor( m_iNamedBkColor, m_iNamedBkColor, m_iNamedBkColor );

  0008d	8b 86 bc 00 00
	00		 mov	 eax, DWORD PTR [esi+188]
  00093	50		 push	 eax
  00094	50		 push	 eax
  00095	50		 push	 eax
  00096	ff d7		 call	 edi
  00098	8b c8		 mov	 ecx, eax
  0009a	ff 15 00 00 00
	00		 call	 DWORD PTR __imp_?SetBkColor@ioFontManager@@QAEXHHH@Z

; 1855 : 
; 1856 : 	g_FontMgr.SetTextStyle( TS_OUTLINE_FULL_2X );

  000a0	6a 05		 push	 5
  000a2	ff d7		 call	 edi
  000a4	8b c8		 mov	 ecx, eax
  000a6	ff 15 00 00 00
	00		 call	 DWORD PTR __imp_?SetTextStyle@ioFontManager@@QAEXW4TextStyle@@@Z

; 1857 : 	g_FontMgr.SetTextColor( 0, 0, 0 );

  000ac	53		 push	 ebx
  000ad	53		 push	 ebx
  000ae	53		 push	 ebx
  000af	ff d7		 call	 edi
  000b1	8b c8		 mov	 ecx, eax
  000b3	ff 15 00 00 00
	00		 call	 DWORD PTR __imp_?SetTextColor@ioFontManager@@QAEXHHH@Z

; 1858 : 
; 1859 : 	if( !m_pCurEmoticonInfo->m_DescString.IsEmpty() )

  000b9	8b 86 f8 00 00
	00		 mov	 eax, DWORD PTR [esi+248]
  000bf	8b 48 28	 mov	 ecx, DWORD PTR [eax+40]
  000c2	5f		 pop	 edi
  000c3	3b 48 2c	 cmp	 ecx, DWORD PTR [eax+44]
  000c6	0f 84 31 01 00
	00		 je	 $LN1@CheckEmoti@2

; 1860 : 	{
; 1861 : 		DWORD dwBkColor = D3DCOLOR_XRGB( m_iNamedBkColor, m_iNamedBkColor, m_iNamedBkColor );
; 1862 : 		DWORD dwTextColor = D3DCOLOR_XRGB( 0, 0, 0 );
; 1863 : 
; 1864 : 		m_pCurEmoticonInfo->m_DescString.PrintFullModifyText( m_iRenderXPos + m_iEmoticonNameOffsetX,
; 1865 : 															  m_iRenderYPos + fOffSet + m_iEmoticonNameOffsetY,
; 1866 : 															  dwTextColor,
; 1867 : 															  TS_OUTLINE_FULL_2X,
; 1868 : 															  (TextAlignType)m_iEmoticonNameAlignType,
; 1869 : 															  iAlpha );

  000cc	f3 0f 10 45 08	 movss	 xmm0, DWORD PTR _fAlphaRate$[ebp]
  000d1	f3 0f 10 4d 0c	 movss	 xmm1, DWORD PTR _fOffSet$[ebp]
  000d6	0f 5a c0	 cvtps2pd xmm0, xmm0
  000d9	f2 0f 59 05 00
	00 00 00	 mulsd	 xmm0, QWORD PTR __real@405fc00000000000
  000e1	f2 0f 2c c8	 cvttsd2si ecx, xmm0
  000e5	66 0f 6e 46 7c	 movd	 xmm0, DWORD PTR [esi+124]
  000ea	0f b6 c9	 movzx	 ecx, cl
  000ed	51		 push	 ecx
  000ee	ff 35 00 00 00
	00		 push	 DWORD PTR ?m_iEmoticonNameAlignType@ioCharEmoticon@@1HA ; ioCharEmoticon::m_iEmoticonNameAlignType
  000f4	0f 5b c0	 cvtdq2ps xmm0, xmm0
  000f7	f3 0f 5a c0	 cvtss2sd xmm0, xmm0
  000fb	0f 5a c9	 cvtps2pd xmm1, xmm1
  000fe	6a 05		 push	 5
  00100	f2 0f 58 c1	 addsd	 xmm0, xmm1
  00104	66 0f 6e 0d 00
	00 00 00	 movd	 xmm1, DWORD PTR ?m_iEmoticonNameOffsetY@ioCharEmoticon@@1HA ; ioCharEmoticon::m_iEmoticonNameOffsetY
  0010c	68 00 00 00 ff	 push	 -16777216		; ff000000H
  00111	51		 push	 ecx
  00112	51		 push	 ecx
  00113	8b 4e 78	 mov	 ecx, DWORD PTR [esi+120]
  00116	03 0d 00 00 00
	00		 add	 ecx, DWORD PTR ?m_iEmoticonNameOffsetX@ioCharEmoticon@@1HA ; ioCharEmoticon::m_iEmoticonNameOffsetX
  0011c	0f 5b c9	 cvtdq2ps xmm1, xmm1
  0011f	f3 0f 5a c9	 cvtss2sd xmm1, xmm1
  00123	f2 0f 58 c1	 addsd	 xmm0, xmm1
  00127	f2 0f 5a c0	 cvtsd2ss xmm0, xmm0
  0012b	f3 0f 11 44 24
	04		 movss	 DWORD PTR [esp+4], xmm0
  00131	0f 57 c0	 xorps	 xmm0, xmm0
  00134	f3 0f 2a c1	 cvtsi2ss xmm0, ecx
  00138	8d 48 1c	 lea	 ecx, DWORD PTR [eax+28]
  0013b	f3 0f 11 04 24	 movss	 DWORD PTR [esp], xmm0
  00140	e8 00 00 00 00	 call	 ?PrintFullModifyText@ioComplexStringPrinter@@QAEXMMKW4TextStyle@@W4TextAlignType@@E@Z ; ioComplexStringPrinter::PrintFullModifyText

; 1874 : 
; 1875 : 			m_pCurEmoticonInfo->m_DescString.PrintFullModifyText( m_iRenderXPos + m_iEmoticonNameOffsetX,
; 1876 : 																  m_iRenderYPos + fOffSet + m_iEmoticonNameOffsetY,
; 1877 : 																  dwTextColor,
; 1878 : 																  TS_OUTLINE_FULL_2X,
; 1879 : 																  (TextAlignType)m_iEmoticonNameAlignType,
; 1880 : 																  iAlpha2 );

  00145	66 0f 6e 46 7c	 movd	 xmm0, DWORD PTR [esi+124]
  0014a	f3 0f 10 4d 0c	 movss	 xmm1, DWORD PTR _fOffSet$[ebp]
  0014f	ff 75 fc	 push	 DWORD PTR _iAlpha2$[ebp]
  00152	0f 5b c0	 cvtdq2ps xmm0, xmm0
  00155	ff 35 00 00 00
	00		 push	 DWORD PTR ?m_iEmoticonNameAlignType@ioCharEmoticon@@1HA ; ioCharEmoticon::m_iEmoticonNameAlignType
  0015b	0f 5a c9	 cvtps2pd xmm1, xmm1
  0015e	f3 0f 5a c0	 cvtss2sd xmm0, xmm0
  00162	f2 0f 58 c1	 addsd	 xmm0, xmm1
  00166	66 0f 6e 0d 00
	00 00 00	 movd	 xmm1, DWORD PTR ?m_iEmoticonNameOffsetY@ioCharEmoticon@@1HA ; ioCharEmoticon::m_iEmoticonNameOffsetY
  0016e	0f 5b c9	 cvtdq2ps xmm1, xmm1
  00171	f3 0f 5a c9	 cvtss2sd xmm1, xmm1
  00175	f2 0f 58 c1	 addsd	 xmm0, xmm1
  00179	f2 0f 5a c0	 cvtsd2ss xmm0, xmm0
  0017d	39 9e bc 00 00
	00		 cmp	 DWORD PTR [esi+188], ebx
  00183	7e 4d		 jle	 SHORT $LN2@CheckEmoti@2

; 1870 : 
; 1871 : 		if( m_iNamedBkColor > 0 )
; 1872 : 		{
; 1873 : 			dwTextColor = D3DCOLOR_XRGB( m_iNamedBkColor, m_iNamedBkColor, m_iNamedBkColor );

  00185	8b 86 bc 00 00
	00		 mov	 eax, DWORD PTR [esi+188]
  0018b	8b c8		 mov	 ecx, eax

; 1874 : 
; 1875 : 			m_pCurEmoticonInfo->m_DescString.PrintFullModifyText( m_iRenderXPos + m_iEmoticonNameOffsetX,
; 1876 : 																  m_iRenderYPos + fOffSet + m_iEmoticonNameOffsetY,
; 1877 : 																  dwTextColor,
; 1878 : 																  TS_OUTLINE_FULL_2X,
; 1879 : 																  (TextAlignType)m_iEmoticonNameAlignType,
; 1880 : 																  iAlpha2 );

  0018d	0d 00 ff ff ff	 or	 eax, -256		; ffffff00H
  00192	81 e1 ff 00 00
	00		 and	 ecx, 255		; 000000ffH
  00198	c1 e0 08	 shl	 eax, 8
  0019b	0b c1		 or	 eax, ecx
  0019d	c1 e0 08	 shl	 eax, 8
  001a0	0b c1		 or	 eax, ecx
  001a2	6a 05		 push	 5
  001a4	50		 push	 eax
  001a5	8b 46 78	 mov	 eax, DWORD PTR [esi+120]
  001a8	03 05 00 00 00
	00		 add	 eax, DWORD PTR ?m_iEmoticonNameOffsetX@ioCharEmoticon@@1HA ; ioCharEmoticon::m_iEmoticonNameOffsetX
  001ae	51		 push	 ecx
  001af	51		 push	 ecx
  001b0	8b 8e f8 00 00
	00		 mov	 ecx, DWORD PTR [esi+248]
  001b6	f3 0f 11 44 24
	04		 movss	 DWORD PTR [esp+4], xmm0
  001bc	0f 57 c0	 xorps	 xmm0, xmm0
  001bf	f3 0f 2a c0	 cvtsi2ss xmm0, eax
  001c3	83 c1 1c	 add	 ecx, 28			; 0000001cH
  001c6	f3 0f 11 04 24	 movss	 DWORD PTR [esp], xmm0
  001cb	e8 00 00 00 00	 call	 ?PrintFullModifyText@ioComplexStringPrinter@@QAEXMMKW4TextStyle@@W4TextAlignType@@E@Z ; ioComplexStringPrinter::PrintFullModifyText

; 1881 : 		}
; 1882 : 		else

  001d0	eb 2b		 jmp	 SHORT $LN1@CheckEmoti@2
$LN2@CheckEmoti@2:

; 1883 : 		{
; 1884 : 			m_pCurEmoticonInfo->m_DescString.PrintFullText( m_iRenderXPos + m_iEmoticonNameOffsetX,
; 1885 : 															m_iRenderYPos + fOffSet + m_iEmoticonNameOffsetY,
; 1886 : 															(TextAlignType)m_iEmoticonNameAlignType,
; 1887 : 															iAlpha2 );

  001d2	8b 46 78	 mov	 eax, DWORD PTR [esi+120]
  001d5	03 05 00 00 00
	00		 add	 eax, DWORD PTR ?m_iEmoticonNameOffsetX@ioCharEmoticon@@1HA ; ioCharEmoticon::m_iEmoticonNameOffsetX
  001db	51		 push	 ecx
  001dc	51		 push	 ecx
  001dd	8b 8e f8 00 00
	00		 mov	 ecx, DWORD PTR [esi+248]
  001e3	f3 0f 11 44 24
	04		 movss	 DWORD PTR [esp+4], xmm0
  001e9	0f 57 c0	 xorps	 xmm0, xmm0
  001ec	f3 0f 2a c0	 cvtsi2ss xmm0, eax
  001f0	83 c1 1c	 add	 ecx, 28			; 0000001cH
  001f3	f3 0f 11 04 24	 movss	 DWORD PTR [esp], xmm0
  001f8	e8 00 00 00 00	 call	 ?PrintFullText@ioComplexStringPrinter@@QAEXMMW4TextAlignType@@E@Z ; ioComplexStringPrinter::PrintFullText
$LN1@CheckEmoti@2:
  001fd	5e		 pop	 esi
  001fe	5b		 pop	 ebx

; 1888 : 		}
; 1889 : 	}
; 1890 : }

  001ff	c9		 leave
  00200	c2 08 00	 ret	 8
?CheckEmoticonDesc@ioCharEmoticon@@IAEXMM@Z ENDP	; ioCharEmoticon::CheckEmoticonDesc
_TEXT	ENDS
PUBLIC	??0?$vector@PAUEmoticonInfo@@V?$allocator@PAUEmoticonInfo@@@std@@@std@@QAE@XZ ; std::vector<EmoticonInfo *,std::allocator<EmoticonInfo *> >::vector<EmoticonInfo *,std::allocator<EmoticonInfo *> >
; Function compile flags: /Ogsp
; File c:\program files (x86)\microsoft visual studio 10.0\vc\include\vector
;	COMDAT ??0?$vector@PAUEmoticonInfo@@V?$allocator@PAUEmoticonInfo@@@std@@@std@@QAE@XZ
_TEXT	SEGMENT
??0?$vector@PAUEmoticonInfo@@V?$allocator@PAUEmoticonInfo@@@std@@@std@@QAE@XZ PROC ; std::vector<EmoticonInfo *,std::allocator<EmoticonInfo *> >::vector<EmoticonInfo *,std::allocator<EmoticonInfo *> >, COMDAT
; _this$ = ecx

; 507  : 		{	// construct empty vector

  00000	8b c1		 mov	 eax, ecx
  00002	33 c9		 xor	 ecx, ecx
  00004	89 08		 mov	 DWORD PTR [eax], ecx
  00006	89 48 04	 mov	 DWORD PTR [eax+4], ecx
  00009	89 48 08	 mov	 DWORD PTR [eax+8], ecx

; 508  : 		}

  0000c	c3		 ret	 0
??0?$vector@PAUEmoticonInfo@@V?$allocator@PAUEmoticonInfo@@@std@@@std@@QAE@XZ ENDP ; std::vector<EmoticonInfo *,std::allocator<EmoticonInfo *> >::vector<EmoticonInfo *,std::allocator<EmoticonInfo *> >
_TEXT	ENDS
PUBLIC	?begin@?$vector@PAUEmoticonInfo@@V?$allocator@PAUEmoticonInfo@@@std@@@std@@QAE?AV?$_Vector_iterator@V?$_Vector_val@PAUEmoticonInfo@@V?$allocator@PAUEmoticonInfo@@@std@@@std@@@2@XZ ; std::vector<EmoticonInfo *,std::allocator<EmoticonInfo *> >::begin
; Function compile flags: /Ogsp
;	COMDAT ?begin@?$vector@PAUEmoticonInfo@@V?$allocator@PAUEmoticonInfo@@@std@@@std@@QAE?AV?$_Vector_iterator@V?$_Vector_val@PAUEmoticonInfo@@V?$allocator@PAUEmoticonInfo@@@std@@@std@@@2@XZ
_TEXT	SEGMENT
___$ReturnUdt$ = 8					; size = 4
?begin@?$vector@PAUEmoticonInfo@@V?$allocator@PAUEmoticonInfo@@@std@@@std@@QAE?AV?$_Vector_iterator@V?$_Vector_val@PAUEmoticonInfo@@V?$allocator@PAUEmoticonInfo@@@std@@@std@@@2@XZ PROC ; std::vector<EmoticonInfo *,std::allocator<EmoticonInfo *> >::begin, COMDAT
; _this$ = ecx

; 781  : 		{	// return iterator for beginning of mutable sequence

  00000	55		 push	 ebp
  00001	8b ec		 mov	 ebp, esp

; 782  : 		return (iterator(this->_Myfirst, this));

  00003	8b 09		 mov	 ecx, DWORD PTR [ecx]
  00005	8b 45 08	 mov	 eax, DWORD PTR ___$ReturnUdt$[ebp]
  00008	89 08		 mov	 DWORD PTR [eax], ecx

; 783  : 		}

  0000a	5d		 pop	 ebp
  0000b	c2 04 00	 ret	 4
?begin@?$vector@PAUEmoticonInfo@@V?$allocator@PAUEmoticonInfo@@@std@@@std@@QAE?AV?$_Vector_iterator@V?$_Vector_val@PAUEmoticonInfo@@V?$allocator@PAUEmoticonInfo@@@std@@@std@@@2@XZ ENDP ; std::vector<EmoticonInfo *,std::allocator<EmoticonInfo *> >::begin
_TEXT	ENDS
PUBLIC	?end@?$vector@PAUEmoticonInfo@@V?$allocator@PAUEmoticonInfo@@@std@@@std@@QAE?AV?$_Vector_iterator@V?$_Vector_val@PAUEmoticonInfo@@V?$allocator@PAUEmoticonInfo@@@std@@@std@@@2@XZ ; std::vector<EmoticonInfo *,std::allocator<EmoticonInfo *> >::end
; Function compile flags: /Ogsp
;	COMDAT ?end@?$vector@PAUEmoticonInfo@@V?$allocator@PAUEmoticonInfo@@@std@@@std@@QAE?AV?$_Vector_iterator@V?$_Vector_val@PAUEmoticonInfo@@V?$allocator@PAUEmoticonInfo@@@std@@@std@@@2@XZ
_TEXT	SEGMENT
___$ReturnUdt$ = 8					; size = 4
?end@?$vector@PAUEmoticonInfo@@V?$allocator@PAUEmoticonInfo@@@std@@@std@@QAE?AV?$_Vector_iterator@V?$_Vector_val@PAUEmoticonInfo@@V?$allocator@PAUEmoticonInfo@@@std@@@std@@@2@XZ PROC ; std::vector<EmoticonInfo *,std::allocator<EmoticonInfo *> >::end, COMDAT
; _this$ = ecx

; 791  : 		{	// return iterator for end of mutable sequence

  00000	55		 push	 ebp
  00001	8b ec		 mov	 ebp, esp

; 792  : 		return (iterator(this->_Mylast, this));

  00003	8b 49 04	 mov	 ecx, DWORD PTR [ecx+4]
  00006	8b 45 08	 mov	 eax, DWORD PTR ___$ReturnUdt$[ebp]
  00009	89 08		 mov	 DWORD PTR [eax], ecx

; 793  : 		}

  0000b	5d		 pop	 ebp
  0000c	c2 04 00	 ret	 4
?end@?$vector@PAUEmoticonInfo@@V?$allocator@PAUEmoticonInfo@@@std@@@std@@QAE?AV?$_Vector_iterator@V?$_Vector_val@PAUEmoticonInfo@@V?$allocator@PAUEmoticonInfo@@@std@@@std@@@2@XZ ENDP ; std::vector<EmoticonInfo *,std::allocator<EmoticonInfo *> >::end
_TEXT	ENDS
PUBLIC	??9?$_Vector_const_iterator@V?$_Vector_val@PAUEmoticonInfo@@V?$allocator@PAUEmoticonInfo@@@std@@@std@@@std@@QBE_NABV01@@Z ; std::_Vector_const_iterator<std::_Vector_val<EmoticonInfo *,std::allocator<EmoticonInfo *> > >::operator!=
; Function compile flags: /Ogsp
;	COMDAT ??9?$_Vector_const_iterator@V?$_Vector_val@PAUEmoticonInfo@@V?$allocator@PAUEmoticonInfo@@@std@@@std@@@std@@QBE_NABV01@@Z
_TEXT	SEGMENT
__Right$ = 8						; size = 4
??9?$_Vector_const_iterator@V?$_Vector_val@PAUEmoticonInfo@@V?$allocator@PAUEmoticonInfo@@@std@@@std@@@std@@QBE_NABV01@@Z PROC ; std::_Vector_const_iterator<std::_Vector_val<EmoticonInfo *,std::allocator<EmoticonInfo *> > >::operator!=, COMDAT
; _this$ = ecx

; 207  : 		{	// test for iterator inequality

  00000	55		 push	 ebp
  00001	8b ec		 mov	 ebp, esp

; 208  : 		return (!(*this == _Right));

  00003	8b 01		 mov	 eax, DWORD PTR [ecx]
  00005	8b 55 08	 mov	 edx, DWORD PTR __Right$[ebp]
  00008	33 c9		 xor	 ecx, ecx
  0000a	3b 02		 cmp	 eax, DWORD PTR [edx]
  0000c	0f 95 c0	 setne	 al

; 209  : 		}

  0000f	5d		 pop	 ebp
  00010	c2 04 00	 ret	 4
??9?$_Vector_const_iterator@V?$_Vector_val@PAUEmoticonInfo@@V?$allocator@PAUEmoticonInfo@@@std@@@std@@@std@@QBE_NABV01@@Z ENDP ; std::_Vector_const_iterator<std::_Vector_val<EmoticonInfo *,std::allocator<EmoticonInfo *> > >::operator!=
_TEXT	ENDS
PUBLIC	?_Make_iter@?$vector@PAUEmoticonInfo@@V?$allocator@PAUEmoticonInfo@@@std@@@std@@QBE?AV?$_Vector_iterator@V?$_Vector_val@PAUEmoticonInfo@@V?$allocator@PAUEmoticonInfo@@@std@@@std@@@2@V?$_Vector_const_iterator@V?$_Vector_val@PAUEmoticonInfo@@V?$allocator@PAUEmoticonInfo@@@std@@@std@@@2@@Z ; std::vector<EmoticonInfo *,std::allocator<EmoticonInfo *> >::_Make_iter
; Function compile flags: /Ogsp
;	COMDAT ?_Make_iter@?$vector@PAUEmoticonInfo@@V?$allocator@PAUEmoticonInfo@@@std@@@std@@QBE?AV?$_Vector_iterator@V?$_Vector_val@PAUEmoticonInfo@@V?$allocator@PAUEmoticonInfo@@@std@@@std@@@2@V?$_Vector_const_iterator@V?$_Vector_val@PAUEmoticonInfo@@V?$allocator@PAUEmoticonInfo@@@std@@@std@@@2@@Z
_TEXT	SEGMENT
___$ReturnUdt$ = 8					; size = 4
__Where$ = 12						; size = 4
?_Make_iter@?$vector@PAUEmoticonInfo@@V?$allocator@PAUEmoticonInfo@@@std@@@std@@QBE?AV?$_Vector_iterator@V?$_Vector_val@PAUEmoticonInfo@@V?$allocator@PAUEmoticonInfo@@@std@@@std@@@2@V?$_Vector_const_iterator@V?$_Vector_val@PAUEmoticonInfo@@V?$allocator@PAUEmoticonInfo@@@std@@@std@@@2@@Z PROC ; std::vector<EmoticonInfo *,std::allocator<EmoticonInfo *> >::_Make_iter, COMDAT
; _this$ = ecx

; 801  : 		{	// make iterator from const_iterator

  00000	55		 push	 ebp
  00001	8b ec		 mov	 ebp, esp

; 802  : 		return (iterator(_Where._Ptr, this));

  00003	8b 45 08	 mov	 eax, DWORD PTR ___$ReturnUdt$[ebp]
  00006	8b 4d 0c	 mov	 ecx, DWORD PTR __Where$[ebp]
  00009	89 08		 mov	 DWORD PTR [eax], ecx

; 803  : 		}

  0000b	5d		 pop	 ebp
  0000c	c2 08 00	 ret	 8
?_Make_iter@?$vector@PAUEmoticonInfo@@V?$allocator@PAUEmoticonInfo@@@std@@@std@@QBE?AV?$_Vector_iterator@V?$_Vector_val@PAUEmoticonInfo@@V?$allocator@PAUEmoticonInfo@@@std@@@std@@@2@V?$_Vector_const_iterator@V?$_Vector_val@PAUEmoticonInfo@@V?$allocator@PAUEmoticonInfo@@@std@@@std@@@2@@Z ENDP ; std::vector<EmoticonInfo *,std::allocator<EmoticonInfo *> >::_Make_iter
_TEXT	ENDS
PUBLIC	?_Destroy@?$vector@PAUEmoticonInfo@@V?$allocator@PAUEmoticonInfo@@@std@@@std@@IAEXPAPAUEmoticonInfo@@0@Z ; std::vector<EmoticonInfo *,std::allocator<EmoticonInfo *> >::_Destroy
; Function compile flags: /Ogsp
;	COMDAT ?_Destroy@?$vector@PAUEmoticonInfo@@V?$allocator@PAUEmoticonInfo@@@std@@@std@@IAEXPAPAUEmoticonInfo@@0@Z
_TEXT	SEGMENT
__First$ = 8						; size = 4
__Last$ = 12						; size = 4
?_Destroy@?$vector@PAUEmoticonInfo@@V?$allocator@PAUEmoticonInfo@@@std@@@std@@IAEXPAPAUEmoticonInfo@@0@Z PROC ; std::vector<EmoticonInfo *,std::allocator<EmoticonInfo *> >::_Destroy, COMDAT
; _this$ = ecx

; 1270 : 		_Destroy_range(_First, _Last, this->_Alval);
; 1271 : 		}

  00000	c2 08 00	 ret	 8
?_Destroy@?$vector@PAUEmoticonInfo@@V?$allocator@PAUEmoticonInfo@@@std@@@std@@IAEXPAPAUEmoticonInfo@@0@Z ENDP ; std::vector<EmoticonInfo *,std::allocator<EmoticonInfo *> >::_Destroy
_TEXT	ENDS
PUBLIC	?_Tidy@?$vector@PAUEmoticonInfo@@V?$allocator@PAUEmoticonInfo@@@std@@@std@@IAEXXZ ; std::vector<EmoticonInfo *,std::allocator<EmoticonInfo *> >::_Tidy
EXTRN	__imp_?_Orphan_all@_Container_base0@std@@QAEXXZ:PROC
; Function compile flags: /Ogsp
;	COMDAT ?_Tidy@?$vector@PAUEmoticonInfo@@V?$allocator@PAUEmoticonInfo@@@std@@@std@@IAEXXZ
_TEXT	SEGMENT
?_Tidy@?$vector@PAUEmoticonInfo@@V?$allocator@PAUEmoticonInfo@@@std@@@std@@IAEXXZ PROC ; std::vector<EmoticonInfo *,std::allocator<EmoticonInfo *> >::_Tidy, COMDAT
; _this$ = ecx

; 1301 : 		{	// free all storage

  00000	56		 push	 esi
  00001	8b f1		 mov	 esi, ecx

; 1302 : 		if (this->_Myfirst != 0)

  00003	83 3e 00	 cmp	 DWORD PTR [esi], 0
  00006	74 0e		 je	 SHORT $LN12@Tidy

; 1303 : 			{	// something to free, destroy and deallocate it
; 1304 : 			this->_Orphan_all();

  00008	ff 15 00 00 00
	00		 call	 DWORD PTR __imp_?_Orphan_all@_Container_base0@std@@QAEXXZ

; 1305 : 			_Destroy(this->_Myfirst, this->_Mylast);
; 1306 : 			this->_Alval.deallocate(this->_Myfirst,
; 1307 : 				this->_Myend - this->_Myfirst);

  0000e	ff 36		 push	 DWORD PTR [esi]
  00010	e8 00 00 00 00	 call	 ??3@YAXPAX@Z		; operator delete
  00015	59		 pop	 ecx
$LN12@Tidy:

; 1308 : 			}
; 1309 : 		this->_Myfirst = 0;

  00016	83 26 00	 and	 DWORD PTR [esi], 0

; 1310 : 		this->_Mylast = 0;

  00019	83 66 04 00	 and	 DWORD PTR [esi+4], 0

; 1311 : 		this->_Myend = 0;

  0001d	83 66 08 00	 and	 DWORD PTR [esi+8], 0
  00021	5e		 pop	 esi

; 1312 : 		}

  00022	c3		 ret	 0
?_Tidy@?$vector@PAUEmoticonInfo@@V?$allocator@PAUEmoticonInfo@@@std@@@std@@IAEXXZ ENDP ; std::vector<EmoticonInfo *,std::allocator<EmoticonInfo *> >::_Tidy
_TEXT	ENDS
PUBLIC	?_Grow_to@?$vector@VioHashString@@V?$allocator@VioHashString@@@std@@@std@@IBEII@Z ; std::vector<ioHashString,std::allocator<ioHashString> >::_Grow_to
; Function compile flags: /Ogsp
;	COMDAT ?_Grow_to@?$vector@VioHashString@@V?$allocator@VioHashString@@@std@@@std@@IBEII@Z
_TEXT	SEGMENT
__Count$ = 8						; size = 4
?_Grow_to@?$vector@VioHashString@@V?$allocator@VioHashString@@@std@@@std@@IBEII@Z PROC ; std::vector<ioHashString,std::allocator<ioHashString> >::_Grow_to, COMDAT
; _this$ = ecx

; 1274 : 		{	// grow by 50% or at least to _Count

  00000	55		 push	 ebp
  00001	8b ec		 mov	 ebp, esp

; 1275 : 		size_type _Capacity = capacity();

  00003	8b 41 08	 mov	 eax, DWORD PTR [ecx+8]
  00006	2b 01		 sub	 eax, DWORD PTR [ecx]

; 1276 : 
; 1277 : 		_Capacity = max_size() - _Capacity / 2 < _Capacity
; 1278 : 			? 0 : _Capacity + _Capacity / 2;	// try to grow by 50%

  00008	ba ff ff ff 0f	 mov	 edx, 268435455		; 0fffffffH
  0000d	c1 f8 04	 sar	 eax, 4
  00010	8b c8		 mov	 ecx, eax
  00012	d1 e9		 shr	 ecx, 1
  00014	2b d1		 sub	 edx, ecx
  00016	3b d0		 cmp	 edx, eax
  00018	73 04		 jae	 SHORT $LN4@Grow_to@2
  0001a	33 c0		 xor	 eax, eax
  0001c	eb 02		 jmp	 SHORT $LN5@Grow_to@2
$LN4@Grow_to@2:
  0001e	03 c1		 add	 eax, ecx
$LN5@Grow_to@2:

; 1279 : 		if (_Capacity < _Count)

  00020	3b 45 08	 cmp	 eax, DWORD PTR __Count$[ebp]

; 1280 : 			_Capacity = _Count;

  00023	0f 42 45 08	 cmovb	 eax, DWORD PTR __Count$[ebp]

; 1281 : 		return (_Capacity);
; 1282 : 		}

  00027	5d		 pop	 ebp
  00028	c2 04 00	 ret	 4
?_Grow_to@?$vector@VioHashString@@V?$allocator@VioHashString@@@std@@@std@@IBEII@Z ENDP ; std::vector<ioHashString,std::allocator<ioHashString> >::_Grow_to
_TEXT	ENDS
PUBLIC	??$?0$0BD@@ioINILoader_e@@QAE@AAY0BD@$$CBD_N@Z	; ioINILoader_e::ioINILoader_e<19>
EXTRN	__imp_??0ioINILoader@@QAE@PBD_N@Z:PROC
; Function compile flags: /Ogsp
; File d:\lost saga for developer\youtube\tutorial\source\src\io3dengine\ioiniloader.h
;	COMDAT ??$?0$0BD@@ioINILoader_e@@QAE@AAY0BD@$$CBD_N@Z
_TEXT	SEGMENT
_fn$ = 8						; size = 4
_b$ = 12						; size = 1
??$?0$0BD@@ioINILoader_e@@QAE@AAY0BD@$$CBD_N@Z PROC	; ioINILoader_e::ioINILoader_e<19>, COMDAT
; _this$ = ecx

; 224  : 	{

  00000	55		 push	 ebp
  00001	8b ec		 mov	 ebp, esp
  00003	53		 push	 ebx
  00004	56		 push	 esi
  00005	57		 push	 edi
  00006	8b f9		 mov	 edi, ecx
  00008	8b 4d 08	 mov	 ecx, DWORD PTR _fn$[ebp]
  0000b	8a 11		 mov	 dl, BYTE PTR [ecx]
  0000d	8d 87 50 03 00
	00		 lea	 eax, DWORD PTR [edi+848]
  00013	84 d2		 test	 dl, dl
  00015	0f 84 6a 04 00
	00		 je	 $LN99@ioINILoade
  0001b	80 f2 ed	 xor	 dl, -19			; ffffffedH
  0001e	88 10		 mov	 BYTE PTR [eax], dl
  00020	8a 51 01	 mov	 dl, BYTE PTR [ecx+1]
  00023	84 d2		 test	 dl, dl
  00025	0f 84 54 04 00
	00		 je	 $LN98@ioINILoade
  0002b	80 f2 ec	 xor	 dl, -20			; ffffffecH
  0002e	88 50 01	 mov	 BYTE PTR [eax+1], dl
  00031	8a 51 02	 mov	 dl, BYTE PTR [ecx+2]
  00034	84 d2		 test	 dl, dl
  00036	0f 84 3d 04 00
	00		 je	 $LN97@ioINILoade
  0003c	b3 eb		 mov	 bl, -21			; ffffffebH
  0003e	32 d3		 xor	 dl, bl
  00040	88 50 02	 mov	 BYTE PTR [eax+2], dl
  00043	8a 51 03	 mov	 dl, BYTE PTR [ecx+3]
  00046	84 d2		 test	 dl, dl
  00048	0f 84 25 04 00
	00		 je	 $LN96@ioINILoade
  0004e	80 f2 ea	 xor	 dl, -22			; ffffffeaH
  00051	88 50 03	 mov	 BYTE PTR [eax+3], dl
  00054	8a 51 04	 mov	 dl, BYTE PTR [ecx+4]
  00057	84 d2		 test	 dl, dl
  00059	0f 84 0e 04 00
	00		 je	 $LN95@ioINILoade
  0005f	80 f2 ed	 xor	 dl, -19			; ffffffedH
  00062	88 50 04	 mov	 BYTE PTR [eax+4], dl
  00065	8a 51 05	 mov	 dl, BYTE PTR [ecx+5]
  00068	84 d2		 test	 dl, dl
  0006a	0f 84 f7 03 00
	00		 je	 $LN94@ioINILoade
  00070	80 f2 ec	 xor	 dl, -20			; ffffffecH
  00073	88 50 05	 mov	 BYTE PTR [eax+5], dl
  00076	8a 51 06	 mov	 dl, BYTE PTR [ecx+6]
  00079	84 d2		 test	 dl, dl
  0007b	0f 84 e1 03 00
	00		 je	 $LN93@ioINILoade
  00081	32 d3		 xor	 dl, bl
  00083	88 50 06	 mov	 BYTE PTR [eax+6], dl
  00086	8a 51 07	 mov	 dl, BYTE PTR [ecx+7]
  00089	84 d2		 test	 dl, dl
  0008b	0f 84 cb 03 00
	00		 je	 $LN92@ioINILoade
  00091	80 f2 ea	 xor	 dl, -22			; ffffffeaH
  00094	88 50 07	 mov	 BYTE PTR [eax+7], dl
  00097	8a 51 08	 mov	 dl, BYTE PTR [ecx+8]
  0009a	84 d2		 test	 dl, dl
  0009c	0f 84 b4 03 00
	00		 je	 $LN91@ioINILoade
  000a2	80 f2 ed	 xor	 dl, -19			; ffffffedH
  000a5	88 50 08	 mov	 BYTE PTR [eax+8], dl
  000a8	8a 51 09	 mov	 dl, BYTE PTR [ecx+9]
  000ab	84 d2		 test	 dl, dl
  000ad	0f 84 9d 03 00
	00		 je	 $LN90@ioINILoade
  000b3	80 f2 ec	 xor	 dl, -20			; ffffffecH
  000b6	88 50 09	 mov	 BYTE PTR [eax+9], dl
  000b9	8a 51 0a	 mov	 dl, BYTE PTR [ecx+10]
  000bc	84 d2		 test	 dl, dl
  000be	0f 84 87 03 00
	00		 je	 $LN89@ioINILoade
  000c4	32 d3		 xor	 dl, bl
  000c6	88 50 0a	 mov	 BYTE PTR [eax+10], dl
  000c9	8a 51 0b	 mov	 dl, BYTE PTR [ecx+11]
  000cc	84 d2		 test	 dl, dl
  000ce	0f 84 71 03 00
	00		 je	 $LN88@ioINILoade
  000d4	80 f2 ea	 xor	 dl, -22			; ffffffeaH
  000d7	88 50 0b	 mov	 BYTE PTR [eax+11], dl
  000da	8a 51 0c	 mov	 dl, BYTE PTR [ecx+12]
  000dd	84 d2		 test	 dl, dl
  000df	0f 84 5a 03 00
	00		 je	 $LN87@ioINILoade
  000e5	80 f2 ed	 xor	 dl, -19			; ffffffedH
  000e8	88 50 0c	 mov	 BYTE PTR [eax+12], dl
  000eb	8a 51 0d	 mov	 dl, BYTE PTR [ecx+13]
  000ee	84 d2		 test	 dl, dl
  000f0	0f 84 43 03 00
	00		 je	 $LN86@ioINILoade
  000f6	80 f2 ec	 xor	 dl, -20			; ffffffecH
  000f9	88 50 0d	 mov	 BYTE PTR [eax+13], dl
  000fc	8a 51 0e	 mov	 dl, BYTE PTR [ecx+14]
  000ff	84 d2		 test	 dl, dl
  00101	0f 84 2d 03 00
	00		 je	 $LN85@ioINILoade
  00107	32 d3		 xor	 dl, bl
  00109	88 50 0e	 mov	 BYTE PTR [eax+14], dl
  0010c	8a 51 0f	 mov	 dl, BYTE PTR [ecx+15]
  0010f	84 d2		 test	 dl, dl
  00111	0f 84 17 03 00
	00		 je	 $LN84@ioINILoade
  00117	80 f2 ea	 xor	 dl, -22			; ffffffeaH
  0011a	88 50 0f	 mov	 BYTE PTR [eax+15], dl
  0011d	8a 51 10	 mov	 dl, BYTE PTR [ecx+16]
  00120	84 d2		 test	 dl, dl
  00122	0f 84 00 03 00
	00		 je	 $LN83@ioINILoade
  00128	80 f2 ed	 xor	 dl, -19			; ffffffedH
  0012b	88 50 10	 mov	 BYTE PTR [eax+16], dl
  0012e	8a 51 11	 mov	 dl, BYTE PTR [ecx+17]
  00131	84 d2		 test	 dl, dl
  00133	0f 84 e9 02 00
	00		 je	 $LN82@ioINILoade
  00139	80 f2 ec	 xor	 dl, -20			; ffffffecH
  0013c	88 50 11	 mov	 BYTE PTR [eax+17], dl
  0013f	8a 51 12	 mov	 dl, BYTE PTR [ecx+18]
  00142	84 d2		 test	 dl, dl
  00144	0f 84 d3 02 00
	00		 je	 $LN81@ioINILoade
  0014a	32 d3		 xor	 dl, bl
  0014c	88 50 12	 mov	 BYTE PTR [eax+18], dl
  0014f	8a 51 13	 mov	 dl, BYTE PTR [ecx+19]
  00152	84 d2		 test	 dl, dl
  00154	0f 84 bd 02 00
	00		 je	 $LN80@ioINILoade
  0015a	80 f2 ea	 xor	 dl, -22			; ffffffeaH
  0015d	88 50 13	 mov	 BYTE PTR [eax+19], dl
  00160	8a 51 14	 mov	 dl, BYTE PTR [ecx+20]
  00163	84 d2		 test	 dl, dl
  00165	0f 84 a6 02 00
	00		 je	 $LN79@ioINILoade
  0016b	80 f2 ed	 xor	 dl, -19			; ffffffedH
  0016e	88 50 14	 mov	 BYTE PTR [eax+20], dl
  00171	8a 51 15	 mov	 dl, BYTE PTR [ecx+21]
  00174	84 d2		 test	 dl, dl
  00176	0f 84 8f 02 00
	00		 je	 $LN78@ioINILoade
  0017c	80 f2 ec	 xor	 dl, -20			; ffffffecH
  0017f	88 50 15	 mov	 BYTE PTR [eax+21], dl
  00182	8a 51 16	 mov	 dl, BYTE PTR [ecx+22]
  00185	84 d2		 test	 dl, dl
  00187	0f 84 79 02 00
	00		 je	 $LN77@ioINILoade
  0018d	32 d3		 xor	 dl, bl
  0018f	88 50 16	 mov	 BYTE PTR [eax+22], dl
  00192	8a 51 17	 mov	 dl, BYTE PTR [ecx+23]
  00195	84 d2		 test	 dl, dl
  00197	0f 84 60 02 00
	00		 je	 $LN76@ioINILoade
  0019d	80 f2 ea	 xor	 dl, -22			; ffffffeaH
  001a0	88 50 17	 mov	 BYTE PTR [eax+23], dl
  001a3	8a 51 18	 mov	 dl, BYTE PTR [ecx+24]
  001a6	84 d2		 test	 dl, dl
  001a8	0f 84 46 02 00
	00		 je	 $LN75@ioINILoade
  001ae	80 f2 ed	 xor	 dl, -19			; ffffffedH
  001b1	88 50 18	 mov	 BYTE PTR [eax+24], dl
  001b4	8a 51 19	 mov	 dl, BYTE PTR [ecx+25]
  001b7	84 d2		 test	 dl, dl
  001b9	0f 84 2c 02 00
	00		 je	 $LN74@ioINILoade
  001bf	80 f2 ec	 xor	 dl, -20			; ffffffecH
  001c2	88 50 19	 mov	 BYTE PTR [eax+25], dl
  001c5	8a 51 1a	 mov	 dl, BYTE PTR [ecx+26]
  001c8	84 d2		 test	 dl, dl
  001ca	0f 84 13 02 00
	00		 je	 $LN73@ioINILoade
  001d0	32 d3		 xor	 dl, bl
  001d2	88 50 1a	 mov	 BYTE PTR [eax+26], dl
  001d5	8a 51 1b	 mov	 dl, BYTE PTR [ecx+27]
  001d8	84 d2		 test	 dl, dl
  001da	0f 84 fa 01 00
	00		 je	 $LN72@ioINILoade
  001e0	80 f2 ea	 xor	 dl, -22			; ffffffeaH
  001e3	88 50 1b	 mov	 BYTE PTR [eax+27], dl
  001e6	8a 51 1c	 mov	 dl, BYTE PTR [ecx+28]
  001e9	84 d2		 test	 dl, dl
  001eb	0f 84 e0 01 00
	00		 je	 $LN71@ioINILoade
  001f1	80 f2 ed	 xor	 dl, -19			; ffffffedH
  001f4	88 50 1c	 mov	 BYTE PTR [eax+28], dl
  001f7	8a 51 1d	 mov	 dl, BYTE PTR [ecx+29]
  001fa	84 d2		 test	 dl, dl
  001fc	0f 84 c6 01 00
	00		 je	 $LN70@ioINILoade
  00202	80 f2 ec	 xor	 dl, -20			; ffffffecH
  00205	88 50 1d	 mov	 BYTE PTR [eax+29], dl
  00208	8a 51 1e	 mov	 dl, BYTE PTR [ecx+30]
  0020b	84 d2		 test	 dl, dl
  0020d	0f 84 ad 01 00
	00		 je	 $LN69@ioINILoade
  00213	32 d3		 xor	 dl, bl
  00215	88 50 1e	 mov	 BYTE PTR [eax+30], dl
  00218	8a 51 1f	 mov	 dl, BYTE PTR [ecx+31]
  0021b	84 d2		 test	 dl, dl
  0021d	0f 84 94 01 00
	00		 je	 $LN68@ioINILoade
  00223	80 f2 ea	 xor	 dl, -22			; ffffffeaH
  00226	88 50 1f	 mov	 BYTE PTR [eax+31], dl
  00229	8a 51 20	 mov	 dl, BYTE PTR [ecx+32]
  0022c	84 d2		 test	 dl, dl
  0022e	0f 84 7a 01 00
	00		 je	 $LN67@ioINILoade
  00234	80 f2 ed	 xor	 dl, -19			; ffffffedH
  00237	88 50 20	 mov	 BYTE PTR [eax+32], dl
  0023a	8a 51 21	 mov	 dl, BYTE PTR [ecx+33]
  0023d	84 d2		 test	 dl, dl
  0023f	0f 84 60 01 00
	00		 je	 $LN66@ioINILoade
  00245	80 f2 ec	 xor	 dl, -20			; ffffffecH
  00248	88 50 21	 mov	 BYTE PTR [eax+33], dl
  0024b	8a 51 22	 mov	 dl, BYTE PTR [ecx+34]
  0024e	84 d2		 test	 dl, dl
  00250	0f 84 47 01 00
	00		 je	 $LN65@ioINILoade
  00256	32 d3		 xor	 dl, bl
  00258	88 50 22	 mov	 BYTE PTR [eax+34], dl
  0025b	8a 51 23	 mov	 dl, BYTE PTR [ecx+35]
  0025e	84 d2		 test	 dl, dl
  00260	0f 84 2e 01 00
	00		 je	 $LN64@ioINILoade
  00266	80 f2 ea	 xor	 dl, -22			; ffffffeaH
  00269	88 50 23	 mov	 BYTE PTR [eax+35], dl
  0026c	8a 51 24	 mov	 dl, BYTE PTR [ecx+36]
  0026f	84 d2		 test	 dl, dl
  00271	0f 84 14 01 00
	00		 je	 $LN63@ioINILoade
  00277	80 f2 ed	 xor	 dl, -19			; ffffffedH
  0027a	88 50 24	 mov	 BYTE PTR [eax+36], dl
  0027d	8a 51 25	 mov	 dl, BYTE PTR [ecx+37]
  00280	84 d2		 test	 dl, dl
  00282	0f 84 fa 00 00
	00		 je	 $LN62@ioINILoade
  00288	80 f2 ec	 xor	 dl, -20			; ffffffecH
  0028b	88 50 25	 mov	 BYTE PTR [eax+37], dl
  0028e	8a 51 26	 mov	 dl, BYTE PTR [ecx+38]
  00291	84 d2		 test	 dl, dl
  00293	0f 84 e1 00 00
	00		 je	 $LN61@ioINILoade
  00299	32 d3		 xor	 dl, bl
  0029b	88 50 26	 mov	 BYTE PTR [eax+38], dl
  0029e	8a 51 27	 mov	 dl, BYTE PTR [ecx+39]
  002a1	84 d2		 test	 dl, dl
  002a3	0f 84 c8 00 00
	00		 je	 $LN60@ioINILoade
  002a9	80 f2 ea	 xor	 dl, -22			; ffffffeaH
  002ac	88 50 27	 mov	 BYTE PTR [eax+39], dl
  002af	8a 51 28	 mov	 dl, BYTE PTR [ecx+40]
  002b2	84 d2		 test	 dl, dl
  002b4	0f 84 ae 00 00
	00		 je	 $LN59@ioINILoade
  002ba	80 f2 ed	 xor	 dl, -19			; ffffffedH
  002bd	88 50 28	 mov	 BYTE PTR [eax+40], dl
  002c0	8a 51 29	 mov	 dl, BYTE PTR [ecx+41]
  002c3	84 d2		 test	 dl, dl
  002c5	0f 84 94 00 00
	00		 je	 $LN58@ioINILoade
  002cb	80 f2 ec	 xor	 dl, -20			; ffffffecH
  002ce	88 50 29	 mov	 BYTE PTR [eax+41], dl
  002d1	8a 51 2a	 mov	 dl, BYTE PTR [ecx+42]
  002d4	84 d2		 test	 dl, dl
  002d6	74 7f		 je	 SHORT $LN57@ioINILoade
  002d8	32 d3		 xor	 dl, bl
  002da	88 50 2a	 mov	 BYTE PTR [eax+42], dl
  002dd	8a 51 2b	 mov	 dl, BYTE PTR [ecx+43]
  002e0	84 d2		 test	 dl, dl
  002e2	74 6a		 je	 SHORT $LN56@ioINILoade
  002e4	80 f2 ea	 xor	 dl, -22			; ffffffeaH
  002e7	88 50 2b	 mov	 BYTE PTR [eax+43], dl
  002ea	8a 51 2c	 mov	 dl, BYTE PTR [ecx+44]
  002ed	84 d2		 test	 dl, dl
  002ef	74 54		 je	 SHORT $LN55@ioINILoade
  002f1	80 f2 ed	 xor	 dl, -19			; ffffffedH
  002f4	88 50 2c	 mov	 BYTE PTR [eax+44], dl
  002f7	8a 51 2d	 mov	 dl, BYTE PTR [ecx+45]
  002fa	84 d2		 test	 dl, dl
  002fc	74 3e		 je	 SHORT $LN54@ioINILoade
  002fe	80 f2 ec	 xor	 dl, -20			; ffffffecH
  00301	88 50 2d	 mov	 BYTE PTR [eax+45], dl
  00304	8a 51 2e	 mov	 dl, BYTE PTR [ecx+46]
  00307	84 d2		 test	 dl, dl
  00309	74 29		 je	 SHORT $LN53@ioINILoade
  0030b	32 d3		 xor	 dl, bl
  0030d	88 50 2e	 mov	 BYTE PTR [eax+46], dl
  00310	8a 51 2f	 mov	 dl, BYTE PTR [ecx+47]
  00313	84 d2		 test	 dl, dl
  00315	74 14		 je	 SHORT $LN52@ioINILoade
  00317	80 f2 ea	 xor	 dl, -22			; ffffffeaH
  0031a	88 50 2f	 mov	 BYTE PTR [eax+47], dl
  0031d	8a 49 30	 mov	 cl, BYTE PTR [ecx+48]
  00320	80 f1 ed	 xor	 cl, -19			; ffffffedH
  00323	88 48 30	 mov	 BYTE PTR [eax+48], cl
  00326	e9 5d 01 00 00	 jmp	 $LN4@ioINILoade
$LN52@ioINILoade:
  0032b	c6 40 2f ea	 mov	 BYTE PTR [eax+47], -22	; ffffffeaH
  0032f	e9 54 01 00 00	 jmp	 $LN4@ioINILoade
$LN53@ioINILoade:
  00334	88 58 2e	 mov	 BYTE PTR [eax+46], bl
  00337	e9 4c 01 00 00	 jmp	 $LN4@ioINILoade
$LN54@ioINILoade:
  0033c	c6 40 2d ec	 mov	 BYTE PTR [eax+45], -20	; ffffffecH
  00340	e9 43 01 00 00	 jmp	 $LN4@ioINILoade
$LN55@ioINILoade:
  00345	c6 40 2c ed	 mov	 BYTE PTR [eax+44], -19	; ffffffedH
  00349	e9 3a 01 00 00	 jmp	 $LN4@ioINILoade
$LN56@ioINILoade:
  0034e	c6 40 2b ea	 mov	 BYTE PTR [eax+43], -22	; ffffffeaH
  00352	e9 31 01 00 00	 jmp	 $LN4@ioINILoade
$LN57@ioINILoade:
  00357	88 58 2a	 mov	 BYTE PTR [eax+42], bl
  0035a	e9 29 01 00 00	 jmp	 $LN4@ioINILoade
$LN58@ioINILoade:
  0035f	c6 40 29 ec	 mov	 BYTE PTR [eax+41], -20	; ffffffecH
  00363	e9 20 01 00 00	 jmp	 $LN4@ioINILoade
$LN59@ioINILoade:
  00368	c6 40 28 ed	 mov	 BYTE PTR [eax+40], -19	; ffffffedH
  0036c	e9 17 01 00 00	 jmp	 $LN4@ioINILoade
$LN60@ioINILoade:
  00371	c6 40 27 ea	 mov	 BYTE PTR [eax+39], -22	; ffffffeaH
  00375	e9 0e 01 00 00	 jmp	 $LN4@ioINILoade
$LN61@ioINILoade:
  0037a	88 58 26	 mov	 BYTE PTR [eax+38], bl
  0037d	e9 06 01 00 00	 jmp	 $LN4@ioINILoade
$LN62@ioINILoade:
  00382	c6 40 25 ec	 mov	 BYTE PTR [eax+37], -20	; ffffffecH
  00386	e9 fd 00 00 00	 jmp	 $LN4@ioINILoade
$LN63@ioINILoade:
  0038b	c6 40 24 ed	 mov	 BYTE PTR [eax+36], -19	; ffffffedH
  0038f	e9 f4 00 00 00	 jmp	 $LN4@ioINILoade
$LN64@ioINILoade:
  00394	c6 40 23 ea	 mov	 BYTE PTR [eax+35], -22	; ffffffeaH
  00398	e9 eb 00 00 00	 jmp	 $LN4@ioINILoade
$LN65@ioINILoade:
  0039d	88 58 22	 mov	 BYTE PTR [eax+34], bl
  003a0	e9 e3 00 00 00	 jmp	 $LN4@ioINILoade
$LN66@ioINILoade:
  003a5	c6 40 21 ec	 mov	 BYTE PTR [eax+33], -20	; ffffffecH
  003a9	e9 da 00 00 00	 jmp	 $LN4@ioINILoade
$LN67@ioINILoade:
  003ae	c6 40 20 ed	 mov	 BYTE PTR [eax+32], -19	; ffffffedH
  003b2	e9 d1 00 00 00	 jmp	 $LN4@ioINILoade
$LN68@ioINILoade:
  003b7	c6 40 1f ea	 mov	 BYTE PTR [eax+31], -22	; ffffffeaH
  003bb	e9 c8 00 00 00	 jmp	 $LN4@ioINILoade
$LN69@ioINILoade:
  003c0	88 58 1e	 mov	 BYTE PTR [eax+30], bl
  003c3	e9 c0 00 00 00	 jmp	 $LN4@ioINILoade
$LN70@ioINILoade:
  003c8	c6 40 1d ec	 mov	 BYTE PTR [eax+29], -20	; ffffffecH
  003cc	e9 b7 00 00 00	 jmp	 $LN4@ioINILoade
$LN71@ioINILoade:
  003d1	c6 40 1c ed	 mov	 BYTE PTR [eax+28], -19	; ffffffedH
  003d5	e9 ae 00 00 00	 jmp	 $LN4@ioINILoade
$LN72@ioINILoade:
  003da	c6 40 1b ea	 mov	 BYTE PTR [eax+27], -22	; ffffffeaH
  003de	e9 a5 00 00 00	 jmp	 $LN4@ioINILoade
$LN73@ioINILoade:
  003e3	88 58 1a	 mov	 BYTE PTR [eax+26], bl
  003e6	e9 9d 00 00 00	 jmp	 $LN4@ioINILoade
$LN74@ioINILoade:
  003eb	c6 40 19 ec	 mov	 BYTE PTR [eax+25], -20	; ffffffecH
  003ef	e9 94 00 00 00	 jmp	 $LN4@ioINILoade
$LN75@ioINILoade:
  003f4	c6 40 18 ed	 mov	 BYTE PTR [eax+24], -19	; ffffffedH
  003f8	e9 8b 00 00 00	 jmp	 $LN4@ioINILoade
$LN76@ioINILoade:
  003fd	c6 40 17 ea	 mov	 BYTE PTR [eax+23], -22	; ffffffeaH
  00401	e9 82 00 00 00	 jmp	 $LN4@ioINILoade
$LN77@ioINILoade:
  00406	88 58 16	 mov	 BYTE PTR [eax+22], bl
  00409	eb 7d		 jmp	 SHORT $LN4@ioINILoade
$LN78@ioINILoade:
  0040b	c6 40 15 ec	 mov	 BYTE PTR [eax+21], -20	; ffffffecH
  0040f	eb 77		 jmp	 SHORT $LN4@ioINILoade
$LN79@ioINILoade:
  00411	c6 40 14 ed	 mov	 BYTE PTR [eax+20], -19	; ffffffedH
  00415	eb 71		 jmp	 SHORT $LN4@ioINILoade
$LN80@ioINILoade:
  00417	c6 40 13 ea	 mov	 BYTE PTR [eax+19], -22	; ffffffeaH
  0041b	eb 6b		 jmp	 SHORT $LN4@ioINILoade
$LN81@ioINILoade:
  0041d	88 58 12	 mov	 BYTE PTR [eax+18], bl
  00420	eb 66		 jmp	 SHORT $LN4@ioINILoade
$LN82@ioINILoade:
  00422	c6 40 11 ec	 mov	 BYTE PTR [eax+17], -20	; ffffffecH
  00426	eb 60		 jmp	 SHORT $LN4@ioINILoade
$LN83@ioINILoade:
  00428	c6 40 10 ed	 mov	 BYTE PTR [eax+16], -19	; ffffffedH
  0042c	eb 5a		 jmp	 SHORT $LN4@ioINILoade
$LN84@ioINILoade:
  0042e	c6 40 0f ea	 mov	 BYTE PTR [eax+15], -22	; ffffffeaH
  00432	eb 54		 jmp	 SHORT $LN4@ioINILoade
$LN85@ioINILoade:
  00434	88 58 0e	 mov	 BYTE PTR [eax+14], bl
  00437	eb 4f		 jmp	 SHORT $LN4@ioINILoade
$LN86@ioINILoade:
  00439	c6 40 0d ec	 mov	 BYTE PTR [eax+13], -20	; ffffffecH
  0043d	eb 49		 jmp	 SHORT $LN4@ioINILoade
$LN87@ioINILoade:
  0043f	c6 40 0c ed	 mov	 BYTE PTR [eax+12], -19	; ffffffedH
  00443	eb 43		 jmp	 SHORT $LN4@ioINILoade
$LN88@ioINILoade:
  00445	c6 40 0b ea	 mov	 BYTE PTR [eax+11], -22	; ffffffeaH
  00449	eb 3d		 jmp	 SHORT $LN4@ioINILoade
$LN89@ioINILoade:
  0044b	88 58 0a	 mov	 BYTE PTR [eax+10], bl
  0044e	eb 38		 jmp	 SHORT $LN4@ioINILoade
$LN90@ioINILoade:
  00450	c6 40 09 ec	 mov	 BYTE PTR [eax+9], -20	; ffffffecH
  00454	eb 32		 jmp	 SHORT $LN4@ioINILoade
$LN91@ioINILoade:
  00456	c6 40 08 ed	 mov	 BYTE PTR [eax+8], -19	; ffffffedH
  0045a	eb 2c		 jmp	 SHORT $LN4@ioINILoade
$LN92@ioINILoade:
  0045c	c6 40 07 ea	 mov	 BYTE PTR [eax+7], -22	; ffffffeaH
  00460	eb 26		 jmp	 SHORT $LN4@ioINILoade
$LN93@ioINILoade:
  00462	88 58 06	 mov	 BYTE PTR [eax+6], bl
  00465	eb 21		 jmp	 SHORT $LN4@ioINILoade
$LN94@ioINILoade:
  00467	c6 40 05 ec	 mov	 BYTE PTR [eax+5], -20	; ffffffecH
  0046b	eb 1b		 jmp	 SHORT $LN4@ioINILoade
$LN95@ioINILoade:
  0046d	c6 40 04 ed	 mov	 BYTE PTR [eax+4], -19	; ffffffedH
  00471	eb 15		 jmp	 SHORT $LN4@ioINILoade
$LN96@ioINILoade:
  00473	c6 40 03 ea	 mov	 BYTE PTR [eax+3], -22	; ffffffeaH
  00477	eb 0f		 jmp	 SHORT $LN4@ioINILoade
$LN97@ioINILoade:
  00479	c6 40 02 eb	 mov	 BYTE PTR [eax+2], -21	; ffffffebH
  0047d	eb 09		 jmp	 SHORT $LN4@ioINILoade
$LN98@ioINILoade:
  0047f	c6 40 01 ec	 mov	 BYTE PTR [eax+1], -20	; ffffffecH
  00483	eb 03		 jmp	 SHORT $LN4@ioINILoade
$LN99@ioINILoade:
  00485	c6 00 ed	 mov	 BYTE PTR [eax], -19	; ffffffedH
$LN4@ioINILoade:
  00488	6a 04		 push	 4
  0048a	8b c8		 mov	 ecx, eax
  0048c	c6 40 12 00	 mov	 BYTE PTR [eax+18], 0
  00490	5a		 pop	 edx
$LL107@ioINILoade:
  00491	81 31 ed ec eb
	ea		 xor	 DWORD PTR [ecx], -353637139 ; eaebecedH
  00497	83 c1 04	 add	 ecx, 4
  0049a	4a		 dec	 edx
  0049b	75 f4		 jne	 SHORT $LL107@ioINILoade
  0049d	6a 10		 push	 16			; 00000010H
  0049f	5e		 pop	 esi
$LL104@ioINILoade:
  004a0	8b ce		 mov	 ecx, esi
  004a2	81 e1 03 00 00
	80		 and	 ecx, -2147483645	; 80000003H
  004a8	79 05		 jns	 SHORT $LN114@ioINILoade
  004aa	49		 dec	 ecx
  004ab	83 c9 fc	 or	 ecx, -4			; fffffffcH
  004ae	41		 inc	 ecx
$LN114@ioINILoade:
  004af	b2 ed		 mov	 dl, -19			; ffffffedH
  004b1	2a d1		 sub	 dl, cl
  004b3	30 14 06	 xor	 BYTE PTR [esi+eax], dl
  004b6	46		 inc	 esi
  004b7	83 fe 12	 cmp	 esi, 18			; 00000012H
  004ba	7c e4		 jl	 SHORT $LL104@ioINILoade
  004bc	ff 75 0c	 push	 DWORD PTR _b$[ebp]
  004bf	8b cf		 mov	 ecx, edi
  004c1	50		 push	 eax
  004c2	ff 15 00 00 00
	00		 call	 DWORD PTR __imp_??0ioINILoader@@QAE@PBD_N@Z

; 225  : 	}

  004c8	8b c7		 mov	 eax, edi
  004ca	5f		 pop	 edi
  004cb	5e		 pop	 esi
  004cc	5b		 pop	 ebx
  004cd	5d		 pop	 ebp
  004ce	c2 08 00	 ret	 8
??$?0$0BD@@ioINILoader_e@@QAE@AAY0BD@$$CBD_N@Z ENDP	; ioINILoader_e::ioINILoader_e<19>
_TEXT	ENDS
PUBLIC	??$_Cons_val@V?$allocator@VioHashString@@@std@@VioHashString@@AAV3@@std@@YAXAAV?$allocator@VioHashString@@@0@PAVioHashString@@AAV2@@Z ; std::_Cons_val<std::allocator<ioHashString>,ioHashString,ioHashString &>
; Function compile flags: /Ogsp
; File c:\program files (x86)\microsoft visual studio 10.0\vc\include\xmemory
;	COMDAT ??$_Cons_val@V?$allocator@VioHashString@@@std@@VioHashString@@AAV3@@std@@YAXAAV?$allocator@VioHashString@@@0@PAVioHashString@@AAV2@@Z
_TEXT	SEGMENT
__Alval$ = 8						; size = 4
__Pdest$ = 12						; size = 4
__Src$ = 16						; size = 4
??$_Cons_val@V?$allocator@VioHashString@@@std@@VioHashString@@AAV3@@std@@YAXAAV?$allocator@VioHashString@@@0@PAVioHashString@@AAV2@@Z PROC ; std::_Cons_val<std::allocator<ioHashString>,ioHashString,ioHashString &>, COMDAT

; 279  : 	{	// construct using allocator

  00000	55		 push	 ebp
  00001	8b ec		 mov	 ebp, esp

; 280  : 	_Alval.construct(_Pdest, _STD forward<_Ty2>(_Src));

  00003	ff 75 10	 push	 DWORD PTR __Src$[ebp]
  00006	8b 4d 08	 mov	 ecx, DWORD PTR __Alval$[ebp]
  00009	ff 75 0c	 push	 DWORD PTR __Pdest$[ebp]
  0000c	e8 00 00 00 00	 call	 ??$construct@AAVioHashString@@@?$allocator@VioHashString@@@std@@QAEXPAVioHashString@@AAV2@@Z ; std::allocator<ioHashString>::construct<ioHashString &>

; 281  : 	}

  00011	5d		 pop	 ebp
  00012	c3		 ret	 0
??$_Cons_val@V?$allocator@VioHashString@@@std@@VioHashString@@AAV3@@std@@YAXAAV?$allocator@VioHashString@@@0@PAVioHashString@@AAV2@@Z ENDP ; std::_Cons_val<std::allocator<ioHashString>,ioHashString,ioHashString &>
_TEXT	ENDS
PUBLIC	??$_Cons_val@V?$allocator@PAUEmoticonInfo@@@std@@PAUEmoticonInfo@@ABQAU3@@std@@YAXAAV?$allocator@PAUEmoticonInfo@@@0@PAPAUEmoticonInfo@@ABQAU2@@Z ; std::_Cons_val<std::allocator<EmoticonInfo *>,EmoticonInfo *,EmoticonInfo * const &>
; Function compile flags: /Ogsp
;	COMDAT ??$_Cons_val@V?$allocator@PAUEmoticonInfo@@@std@@PAUEmoticonInfo@@ABQAU3@@std@@YAXAAV?$allocator@PAUEmoticonInfo@@@0@PAPAUEmoticonInfo@@ABQAU2@@Z
_TEXT	SEGMENT
__Alval$ = 8						; size = 4
__Pdest$ = 12						; size = 4
__Src$ = 16						; size = 4
??$_Cons_val@V?$allocator@PAUEmoticonInfo@@@std@@PAUEmoticonInfo@@ABQAU3@@std@@YAXAAV?$allocator@PAUEmoticonInfo@@@0@PAPAUEmoticonInfo@@ABQAU2@@Z PROC ; std::_Cons_val<std::allocator<EmoticonInfo *>,EmoticonInfo *,EmoticonInfo * const &>, COMDAT

; 279  : 	{	// construct using allocator

  00000	55		 push	 ebp
  00001	8b ec		 mov	 ebp, esp

; 280  : 	_Alval.construct(_Pdest, _STD forward<_Ty2>(_Src));

  00003	8b 45 0c	 mov	 eax, DWORD PTR __Pdest$[ebp]
  00006	85 c0		 test	 eax, eax
  00008	74 07		 je	 SHORT $LN9@Cons_val@2
  0000a	8b 4d 10	 mov	 ecx, DWORD PTR __Src$[ebp]
  0000d	8b 09		 mov	 ecx, DWORD PTR [ecx]
  0000f	89 08		 mov	 DWORD PTR [eax], ecx
$LN9@Cons_val@2:

; 281  : 	}

  00011	5d		 pop	 ebp
  00012	c3		 ret	 0
??$_Cons_val@V?$allocator@PAUEmoticonInfo@@@std@@PAUEmoticonInfo@@ABQAU3@@std@@YAXAAV?$allocator@PAUEmoticonInfo@@@0@PAPAUEmoticonInfo@@ABQAU2@@Z ENDP ; std::_Cons_val<std::allocator<EmoticonInfo *>,EmoticonInfo *,EmoticonInfo * const &>
_TEXT	ENDS
PUBLIC	??$_Umove@PAPAUEmoticonInfo@@@?$vector@PAUEmoticonInfo@@V?$allocator@PAUEmoticonInfo@@@std@@@std@@IAEPAPAUEmoticonInfo@@PAPAU2@00@Z ; std::vector<EmoticonInfo *,std::allocator<EmoticonInfo *> >::_Umove<EmoticonInfo * *>
; Function compile flags: /Ogsp
; File c:\program files (x86)\microsoft visual studio 10.0\vc\include\vector
;	COMDAT ??$_Umove@PAPAUEmoticonInfo@@@?$vector@PAUEmoticonInfo@@V?$allocator@PAUEmoticonInfo@@@std@@@std@@IAEPAPAUEmoticonInfo@@PAPAU2@00@Z
_TEXT	SEGMENT
__First$ = 8						; size = 4
__Last$ = 12						; size = 4
__Ptr$ = 16						; size = 4
??$_Umove@PAPAUEmoticonInfo@@@?$vector@PAUEmoticonInfo@@V?$allocator@PAUEmoticonInfo@@@std@@@std@@IAEPAPAUEmoticonInfo@@PAPAU2@00@Z PROC ; std::vector<EmoticonInfo *,std::allocator<EmoticonInfo *> >::_Umove<EmoticonInfo * *>, COMDAT
; _this$ = ecx

; 1322 : 		pointer _Umove(_Iter _First, _Iter _Last, pointer _Ptr)

  00000	55		 push	 ebp
  00001	8b ec		 mov	 ebp, esp

; 1323 : 		{	// move initializing [_First, _Last), using allocator
; 1324 : 		return (_Uninitialized_move(_First, _Last,
; 1325 : 			_Ptr, this->_Alval));

  00003	83 c1 0c	 add	 ecx, 12			; 0000000cH
  00006	51		 push	 ecx
  00007	ff 75 10	 push	 DWORD PTR __Ptr$[ebp]
  0000a	ff 75 0c	 push	 DWORD PTR __Last$[ebp]
  0000d	ff 75 08	 push	 DWORD PTR __First$[ebp]
  00010	e8 00 00 00 00	 call	 ??$_Uninitialized_move@PAPAUEmoticonInfo@@PAPAU1@V?$allocator@PAUEmoticonInfo@@@std@@@std@@YAPAPAUEmoticonInfo@@PAPAU1@00AAV?$allocator@PAUEmoticonInfo@@@0@@Z ; std::_Uninitialized_move<EmoticonInfo * *,EmoticonInfo * *,std::allocator<EmoticonInfo *> >
  00015	83 c4 10	 add	 esp, 16			; 00000010H

; 1326 : 		}

  00018	5d		 pop	 ebp
  00019	c2 0c 00	 ret	 12			; 0000000cH
??$_Umove@PAPAUEmoticonInfo@@@?$vector@PAUEmoticonInfo@@V?$allocator@PAUEmoticonInfo@@@std@@@std@@IAEPAPAUEmoticonInfo@@PAPAU2@00@Z ENDP ; std::vector<EmoticonInfo *,std::allocator<EmoticonInfo *> >::_Umove<EmoticonInfo * *>
_TEXT	ENDS
PUBLIC	??$iter_swap@PAPAUEmoticonInfo@@PAPAU1@@std@@YAXPAPAUEmoticonInfo@@0@Z ; std::iter_swap<EmoticonInfo * *,EmoticonInfo * *>
; Function compile flags: /Ogsp
; File c:\program files (x86)\microsoft visual studio 10.0\vc\include\xutility
;	COMDAT ??$iter_swap@PAPAUEmoticonInfo@@PAPAU1@@std@@YAXPAPAUEmoticonInfo@@0@Z
_TEXT	SEGMENT
__Left$ = 8						; size = 4
__Right$ = 12						; size = 4
??$iter_swap@PAPAUEmoticonInfo@@PAPAU1@@std@@YAXPAPAUEmoticonInfo@@0@Z PROC ; std::iter_swap<EmoticonInfo * *,EmoticonInfo * *>, COMDAT

; 2133 : 	{	// swap *_Left and *_Right

  00000	55		 push	 ebp
  00001	8b ec		 mov	 ebp, esp

; 2134 : 	swap(*_Left, *_Right);

  00003	8b 55 0c	 mov	 edx, DWORD PTR __Right$[ebp]
  00006	8b 45 08	 mov	 eax, DWORD PTR __Left$[ebp]
  00009	8b 08		 mov	 ecx, DWORD PTR [eax]
  0000b	56		 push	 esi
  0000c	8b 32		 mov	 esi, DWORD PTR [edx]
  0000e	89 30		 mov	 DWORD PTR [eax], esi
  00010	89 0a		 mov	 DWORD PTR [edx], ecx
  00012	5e		 pop	 esi

; 2135 : 	}

  00013	5d		 pop	 ebp
  00014	c3		 ret	 0
??$iter_swap@PAPAUEmoticonInfo@@PAPAU1@@std@@YAXPAPAUEmoticonInfo@@0@Z ENDP ; std::iter_swap<EmoticonInfo * *,EmoticonInfo * *>
_TEXT	ENDS
PUBLIC	??$_Make_heap@PAPAUEmoticonInfo@@HPAU1@VEmoticonInfoSort@@@std@@YAXPAPAUEmoticonInfo@@0VEmoticonInfoSort@@PAH0@Z ; std::_Make_heap<EmoticonInfo * *,int,EmoticonInfo *,EmoticonInfoSort>
; Function compile flags: /Ogsp
; File c:\program files (x86)\microsoft visual studio 10.0\vc\include\algorithm
;	COMDAT ??$_Make_heap@PAPAUEmoticonInfo@@HPAU1@VEmoticonInfoSort@@@std@@YAXPAPAUEmoticonInfo@@0VEmoticonInfoSort@@PAH0@Z
_TEXT	SEGMENT
__First$ = 8						; size = 4
__Val$530216 = 12					; size = 4
__Last$ = 12						; size = 4
__Pred$ = 16						; size = 1
___formal$ = 20						; size = 4
___formal$ = 24						; size = 4
??$_Make_heap@PAPAUEmoticonInfo@@HPAU1@VEmoticonInfoSort@@@std@@YAXPAPAUEmoticonInfo@@0VEmoticonInfoSort@@PAH0@Z PROC ; std::_Make_heap<EmoticonInfo * *,int,EmoticonInfo *,EmoticonInfoSort>, COMDAT

; 2658 : 	{	// make nontrivial [_First, _Last) into a heap, using _Pred

  00000	55		 push	 ebp
  00001	8b ec		 mov	 ebp, esp
  00003	53		 push	 ebx

; 2659 : 	_Diff _Bottom = _Last - _First;

  00004	8b 5d 08	 mov	 ebx, DWORD PTR __First$[ebp]
  00007	56		 push	 esi
  00008	57		 push	 edi
  00009	8b 7d 0c	 mov	 edi, DWORD PTR __Last$[ebp]
  0000c	2b fb		 sub	 edi, ebx
  0000e	c1 ff 02	 sar	 edi, 2

; 2660 : 	for (_Diff _Hole = _Bottom / 2; 0 < _Hole; )

  00011	8b c7		 mov	 eax, edi
  00013	99		 cdq
  00014	2b c2		 sub	 eax, edx
  00016	8b f0		 mov	 esi, eax
  00018	d1 fe		 sar	 esi, 1
  0001a	eb 19		 jmp	 SHORT $LN11@Make_heap
$LL2@Make_heap:

; 2661 : 		{	// reheap top half, bottom to top
; 2662 : 		--_Hole;
; 2663 : 		_Ty _Val = _Move(*(_First + _Hole));
; 2664 : 		_Adjust_heap(_First, _Hole, _Bottom,
; 2665 : 			_Move(_Val), _Pred);

  0001c	ff 75 10	 push	 DWORD PTR __Pred$[ebp]
  0001f	4e		 dec	 esi
  00020	8b 04 b3	 mov	 eax, DWORD PTR [ebx+esi*4]
  00023	89 45 0c	 mov	 DWORD PTR __Val$530216[ebp], eax
  00026	8d 45 0c	 lea	 eax, DWORD PTR __Val$530216[ebp]
  00029	50		 push	 eax
  0002a	57		 push	 edi
  0002b	56		 push	 esi
  0002c	53		 push	 ebx
  0002d	e8 00 00 00 00	 call	 ??$_Adjust_heap@PAPAUEmoticonInfo@@HPAU1@VEmoticonInfoSort@@@std@@YAXPAPAUEmoticonInfo@@HH$$QAPAU1@VEmoticonInfoSort@@@Z ; std::_Adjust_heap<EmoticonInfo * *,int,EmoticonInfo *,EmoticonInfoSort>
  00032	83 c4 14	 add	 esp, 20			; 00000014H
$LN11@Make_heap:

; 2660 : 	for (_Diff _Hole = _Bottom / 2; 0 < _Hole; )

  00035	85 f6		 test	 esi, esi
  00037	7f e3		 jg	 SHORT $LL2@Make_heap
  00039	5f		 pop	 edi
  0003a	5e		 pop	 esi
  0003b	5b		 pop	 ebx

; 2666 : 		}
; 2667 : 	}

  0003c	5d		 pop	 ebp
  0003d	c3		 ret	 0
??$_Make_heap@PAPAUEmoticonInfo@@HPAU1@VEmoticonInfoSort@@@std@@YAXPAPAUEmoticonInfo@@0VEmoticonInfoSort@@PAH0@Z ENDP ; std::_Make_heap<EmoticonInfo * *,int,EmoticonInfo *,EmoticonInfoSort>
_TEXT	ENDS
PUBLIC	??$_Insertion_sort1@PAPAUEmoticonInfo@@VEmoticonInfoSort@@PAU1@@std@@YAXPAPAUEmoticonInfo@@0VEmoticonInfoSort@@0@Z ; std::_Insertion_sort1<EmoticonInfo * *,EmoticonInfoSort,EmoticonInfo *>
; Function compile flags: /Ogsp
;	COMDAT ??$_Insertion_sort1@PAPAUEmoticonInfo@@VEmoticonInfoSort@@PAU1@@std@@YAXPAPAUEmoticonInfo@@0VEmoticonInfoSort@@0@Z
_TEXT	SEGMENT
__Next1$530259 = -4					; size = 4
__First$ = 8						; size = 4
__Cat$532738 = 12					; size = 1
__Last$ = 12						; size = 4
__Pred$ = 16						; size = 1
___formal$ = 20						; size = 4
??$_Insertion_sort1@PAPAUEmoticonInfo@@VEmoticonInfoSort@@PAU1@@std@@YAXPAPAUEmoticonInfo@@0VEmoticonInfoSort@@0@Z PROC ; std::_Insertion_sort1<EmoticonInfo * *,EmoticonInfoSort,EmoticonInfo *>, COMDAT

; 3650 : 	{	// insertion sort [_First, _Last), using _Pred

  00000	55		 push	 ebp
  00001	8b ec		 mov	 ebp, esp
  00003	51		 push	 ecx
  00004	57		 push	 edi

; 3651 : 	if (_First != _Last)

  00005	8b 7d 08	 mov	 edi, DWORD PTR __First$[ebp]
  00008	3b 7d 0c	 cmp	 edi, DWORD PTR __Last$[ebp]
  0000b	74 66		 je	 SHORT $LN6@Insertion_

; 3652 : 		for (_BidIt _Next = _First; ++_Next != _Last; )

  0000d	56		 push	 esi
  0000e	8d 77 04	 lea	 esi, DWORD PTR [edi+4]
  00011	3b 75 0c	 cmp	 esi, DWORD PTR __Last$[ebp]
  00014	74 5c		 je	 SHORT $LN26@Insertion_
  00016	53		 push	 ebx
$LL7@Insertion_:

; 3653 : 			{	// order next element
; 3654 : 			_BidIt _Next1 = _Next;
; 3655 : 			_Ty _Val = _Move(*_Next);
; 3656 : 
; 3657 : 			if (_DEBUG_LT_PRED(_Pred, _Val, *_First))

  00017	ff 37		 push	 DWORD PTR [edi]
  00019	8b 1e		 mov	 ebx, DWORD PTR [esi]
  0001b	53		 push	 ebx
  0001c	8d 4d 10	 lea	 ecx, DWORD PTR __Pred$[ebp]
  0001f	89 75 fc	 mov	 DWORD PTR __Next1$530259[ebp], esi
  00022	e8 00 00 00 00	 call	 ??REmoticonInfoSort@@QBE_NPBUEmoticonInfo@@0@Z ; EmoticonInfoSort::operator()
  00027	84 c0		 test	 al, al
  00029	74 15		 je	 SHORT $LN5@Insertion_

; 3658 : 				{	// found new earliest element, move to front
; 3659 : 				_Move_backward(_First, _Next, ++_Next1);

  0002b	ff 75 0c	 push	 DWORD PTR __Cat$532738[ebp]
  0002e	8d 46 04	 lea	 eax, DWORD PTR [esi+4]
  00031	50		 push	 eax
  00032	56		 push	 esi
  00033	57		 push	 edi
  00034	e8 00 00 00 00	 call	 ??$_Move_backward@PAPAUEmoticonInfo@@PAPAU1@@std@@YAPAPAUEmoticonInfo@@PAPAU1@00U_Scalar_ptr_iterator_tag@0@@Z ; std::_Move_backward<EmoticonInfo * *,EmoticonInfo * *>
  00039	83 c4 10	 add	 esp, 16			; 00000010H

; 3660 : 				*_First = _Move(_Val);

  0003c	89 1f		 mov	 DWORD PTR [edi], ebx

; 3661 : 				}
; 3662 : 			else

  0003e	eb 29		 jmp	 SHORT $LN4@Insertion_
$LN5@Insertion_:

; 3652 : 		for (_BidIt _Next = _First; ++_Next != _Last; )

  00040	8d 7e fc	 lea	 edi, DWORD PTR [esi-4]

; 3663 : 				{	// look for insertion point after first
; 3664 : 				for (_BidIt _First1 = _Next1;
; 3665 : 					_DEBUG_LT_PRED(_Pred, _Val, *--_First1);
; 3666 : 					_Next1 = _First1)

  00043	eb 0d		 jmp	 SHORT $LN29@Insertion_
$LL3@Insertion_:

; 3667 : 					*_Next1 = _Move(*_First1);	// move hole down

  00045	8b 07		 mov	 eax, DWORD PTR [edi]
  00047	8b 4d fc	 mov	 ecx, DWORD PTR __Next1$530259[ebp]
  0004a	89 7d fc	 mov	 DWORD PTR __Next1$530259[ebp], edi
  0004d	89 01		 mov	 DWORD PTR [ecx], eax
  0004f	83 ef 04	 sub	 edi, 4
$LN29@Insertion_:

; 3663 : 				{	// look for insertion point after first
; 3664 : 				for (_BidIt _First1 = _Next1;
; 3665 : 					_DEBUG_LT_PRED(_Pred, _Val, *--_First1);
; 3666 : 					_Next1 = _First1)

  00052	ff 37		 push	 DWORD PTR [edi]
  00054	8d 4d 10	 lea	 ecx, DWORD PTR __Pred$[ebp]
  00057	53		 push	 ebx
  00058	e8 00 00 00 00	 call	 ??REmoticonInfoSort@@QBE_NPBUEmoticonInfo@@0@Z ; EmoticonInfoSort::operator()
  0005d	84 c0		 test	 al, al
  0005f	75 e4		 jne	 SHORT $LL3@Insertion_

; 3668 : 				*_Next1 = _Move(_Val);	// insert element in hole

  00061	8b 45 fc	 mov	 eax, DWORD PTR __Next1$530259[ebp]
  00064	8b 7d 08	 mov	 edi, DWORD PTR __First$[ebp]
  00067	89 18		 mov	 DWORD PTR [eax], ebx
$LN4@Insertion_:

; 3652 : 		for (_BidIt _Next = _First; ++_Next != _Last; )

  00069	83 c6 04	 add	 esi, 4
  0006c	3b 75 0c	 cmp	 esi, DWORD PTR __Last$[ebp]
  0006f	75 a6		 jne	 SHORT $LL7@Insertion_
  00071	5b		 pop	 ebx
$LN26@Insertion_:
  00072	5e		 pop	 esi
$LN6@Insertion_:
  00073	5f		 pop	 edi

; 3669 : 				}
; 3670 : 			}
; 3671 : 	}

  00074	c9		 leave
  00075	c3		 ret	 0
??$_Insertion_sort1@PAPAUEmoticonInfo@@VEmoticonInfoSort@@PAU1@@std@@YAXPAPAUEmoticonInfo@@0VEmoticonInfoSort@@0@Z ENDP ; std::_Insertion_sort1<EmoticonInfo * *,EmoticonInfoSort,EmoticonInfo *>
_TEXT	ENDS
PUBLIC	??$_Cons_val@V?$allocator@VioHashString@@@std@@VioHashString@@V3@@std@@YAXAAV?$allocator@VioHashString@@@0@PAVioHashString@@$$QAV2@@Z ; std::_Cons_val<std::allocator<ioHashString>,ioHashString,ioHashString>
; Function compile flags: /Ogsp
; File c:\program files (x86)\microsoft visual studio 10.0\vc\include\xmemory
;	COMDAT ??$_Cons_val@V?$allocator@VioHashString@@@std@@VioHashString@@V3@@std@@YAXAAV?$allocator@VioHashString@@@0@PAVioHashString@@$$QAV2@@Z
_TEXT	SEGMENT
__Alval$ = 8						; size = 4
__Pdest$ = 12						; size = 4
__Src$ = 16						; size = 4
??$_Cons_val@V?$allocator@VioHashString@@@std@@VioHashString@@V3@@std@@YAXAAV?$allocator@VioHashString@@@0@PAVioHashString@@$$QAV2@@Z PROC ; std::_Cons_val<std::allocator<ioHashString>,ioHashString,ioHashString>, COMDAT

; 279  : 	{	// construct using allocator

  00000	55		 push	 ebp
  00001	8b ec		 mov	 ebp, esp

; 280  : 	_Alval.construct(_Pdest, _STD forward<_Ty2>(_Src));

  00003	ff 75 10	 push	 DWORD PTR __Src$[ebp]
  00006	8b 4d 08	 mov	 ecx, DWORD PTR __Alval$[ebp]
  00009	ff 75 0c	 push	 DWORD PTR __Pdest$[ebp]
  0000c	e8 00 00 00 00	 call	 ?construct@?$allocator@VioHashString@@@std@@QAEXPAVioHashString@@$$QAV3@@Z ; std::allocator<ioHashString>::construct

; 281  : 	}

  00011	5d		 pop	 ebp
  00012	c3		 ret	 0
??$_Cons_val@V?$allocator@VioHashString@@@std@@VioHashString@@V3@@std@@YAXAAV?$allocator@VioHashString@@@0@PAVioHashString@@$$QAV2@@Z ENDP ; std::_Cons_val<std::allocator<ioHashString>,ioHashString,ioHashString>
_TEXT	ENDS
PUBLIC	??$_Med3@PAPAUEmoticonInfo@@VEmoticonInfoSort@@@std@@YAXPAPAUEmoticonInfo@@00VEmoticonInfoSort@@@Z ; std::_Med3<EmoticonInfo * *,EmoticonInfoSort>
; Function compile flags: /Ogsp
; File c:\program files (x86)\microsoft visual studio 10.0\vc\include\algorithm
;	COMDAT ??$_Med3@PAPAUEmoticonInfo@@VEmoticonInfoSort@@@std@@YAXPAPAUEmoticonInfo@@00VEmoticonInfoSort@@@Z
_TEXT	SEGMENT
__First$ = 8						; size = 4
__Mid$ = 12						; size = 4
__Last$ = 16						; size = 4
__Pred$ = 20						; size = 1
??$_Med3@PAPAUEmoticonInfo@@VEmoticonInfoSort@@@std@@YAXPAPAUEmoticonInfo@@00VEmoticonInfoSort@@@Z PROC ; std::_Med3<EmoticonInfo * *,EmoticonInfoSort>, COMDAT

; 3683 : 	{	// sort median of three elements to middle

  00000	55		 push	 ebp
  00001	8b ec		 mov	 ebp, esp
  00003	56		 push	 esi

; 3684 : 	if (_DEBUG_LT_PRED(_Pred, *_Mid, *_First))

  00004	8b 75 0c	 mov	 esi, DWORD PTR __Mid$[ebp]
  00007	57		 push	 edi
  00008	8b 7d 08	 mov	 edi, DWORD PTR __First$[ebp]
  0000b	ff 37		 push	 DWORD PTR [edi]
  0000d	8d 4d 14	 lea	 ecx, DWORD PTR __Pred$[ebp]
  00010	ff 36		 push	 DWORD PTR [esi]
  00012	e8 00 00 00 00	 call	 ??REmoticonInfoSort@@QBE_NPBUEmoticonInfo@@0@Z ; EmoticonInfoSort::operator()
  00017	84 c0		 test	 al, al
  00019	74 08		 je	 SHORT $LN8@Med3

; 3685 : 		_STD iter_swap(_Mid, _First);

  0001b	8b 0f		 mov	 ecx, DWORD PTR [edi]
  0001d	8b 06		 mov	 eax, DWORD PTR [esi]
  0001f	89 0e		 mov	 DWORD PTR [esi], ecx
  00021	89 07		 mov	 DWORD PTR [edi], eax
$LN8@Med3:

; 3686 : 	if (_DEBUG_LT_PRED(_Pred, *_Last, *_Mid))

  00023	53		 push	 ebx
  00024	ff 36		 push	 DWORD PTR [esi]
  00026	8b 5d 10	 mov	 ebx, DWORD PTR __Last$[ebp]
  00029	ff 33		 push	 DWORD PTR [ebx]
  0002b	8d 4d 14	 lea	 ecx, DWORD PTR __Pred$[ebp]
  0002e	e8 00 00 00 00	 call	 ??REmoticonInfoSort@@QBE_NPBUEmoticonInfo@@0@Z ; EmoticonInfoSort::operator()
  00033	84 c0		 test	 al, al
  00035	74 08		 je	 SHORT $LN18@Med3

; 3687 : 		_STD iter_swap(_Last, _Mid);

  00037	8b 0e		 mov	 ecx, DWORD PTR [esi]
  00039	8b 03		 mov	 eax, DWORD PTR [ebx]
  0003b	89 0b		 mov	 DWORD PTR [ebx], ecx
  0003d	89 06		 mov	 DWORD PTR [esi], eax
$LN18@Med3:

; 3688 : 	if (_DEBUG_LT_PRED(_Pred, *_Mid, *_First))

  0003f	ff 37		 push	 DWORD PTR [edi]
  00041	8d 4d 14	 lea	 ecx, DWORD PTR __Pred$[ebp]
  00044	ff 36		 push	 DWORD PTR [esi]
  00046	e8 00 00 00 00	 call	 ??REmoticonInfoSort@@QBE_NPBUEmoticonInfo@@0@Z ; EmoticonInfoSort::operator()
  0004b	5b		 pop	 ebx
  0004c	84 c0		 test	 al, al
  0004e	74 08		 je	 SHORT $LN28@Med3

; 3689 : 		_STD iter_swap(_Mid, _First);

  00050	8b 0f		 mov	 ecx, DWORD PTR [edi]
  00052	8b 06		 mov	 eax, DWORD PTR [esi]
  00054	89 0e		 mov	 DWORD PTR [esi], ecx
  00056	89 07		 mov	 DWORD PTR [edi], eax
$LN28@Med3:
  00058	5f		 pop	 edi
  00059	5e		 pop	 esi

; 3690 : 	}

  0005a	5d		 pop	 ebp
  0005b	c3		 ret	 0
??$_Med3@PAPAUEmoticonInfo@@VEmoticonInfoSort@@@std@@YAXPAPAUEmoticonInfo@@00VEmoticonInfoSort@@@Z ENDP ; std::_Med3<EmoticonInfo * *,EmoticonInfoSort>
_TEXT	ENDS
PUBLIC	??$_Pop_heap_0@PAPAUEmoticonInfo@@PAU1@VEmoticonInfoSort@@@std@@YAXPAPAUEmoticonInfo@@0VEmoticonInfoSort@@0@Z ; std::_Pop_heap_0<EmoticonInfo * *,EmoticonInfo *,EmoticonInfoSort>
; Function compile flags: /Ogsp
;	COMDAT ??$_Pop_heap_0@PAPAUEmoticonInfo@@PAU1@VEmoticonInfoSort@@@std@@YAXPAPAUEmoticonInfo@@0VEmoticonInfoSort@@0@Z
_TEXT	SEGMENT
__First$ = 8						; size = 4
__Val$ = 12						; size = 4
__Last$ = 12						; size = 4
__Pred$ = 16						; size = 1
___formal$ = 20						; size = 4
??$_Pop_heap_0@PAPAUEmoticonInfo@@PAU1@VEmoticonInfoSort@@@std@@YAXPAPAUEmoticonInfo@@0VEmoticonInfoSort@@0@Z PROC ; std::_Pop_heap_0<EmoticonInfo * *,EmoticonInfo *,EmoticonInfoSort>, COMDAT

; 2601 : 	{	// pop *_First to *(_Last - 1) and reheap, using _Pred

  00000	55		 push	 ebp
  00001	8b ec		 mov	 ebp, esp

; 2602 : 	_Ty _Val = _Move(*(_Last - 1));

  00003	8b 45 0c	 mov	 eax, DWORD PTR __Last$[ebp]
  00006	83 c0 fc	 add	 eax, -4			; fffffffcH
  00009	8b 08		 mov	 ecx, DWORD PTR [eax]

; 2603 : 	_Pop_heap(_First, _Last - 1, _Last - 1,
; 2604 : 		_Move(_Val), _Pred, _Dist_type(_First));

  0000b	6a 00		 push	 0
  0000d	ff 75 10	 push	 DWORD PTR __Pred$[ebp]
  00010	89 4d 0c	 mov	 DWORD PTR __Val$[ebp], ecx
  00013	8d 4d 0c	 lea	 ecx, DWORD PTR __Val$[ebp]
  00016	51		 push	 ecx
  00017	50		 push	 eax
  00018	50		 push	 eax
  00019	ff 75 08	 push	 DWORD PTR __First$[ebp]
  0001c	e8 00 00 00 00	 call	 ??$_Pop_heap@PAPAUEmoticonInfo@@HPAU1@VEmoticonInfoSort@@@std@@YAXPAPAUEmoticonInfo@@00$$QAPAU1@VEmoticonInfoSort@@PAH@Z ; std::_Pop_heap<EmoticonInfo * *,int,EmoticonInfo *,EmoticonInfoSort>
  00021	83 c4 18	 add	 esp, 24			; 00000018H

; 2605 : 	}

  00024	5d		 pop	 ebp
  00025	c3		 ret	 0
??$_Pop_heap_0@PAPAUEmoticonInfo@@PAU1@VEmoticonInfoSort@@@std@@YAXPAPAUEmoticonInfo@@0VEmoticonInfoSort@@0@Z ENDP ; std::_Pop_heap_0<EmoticonInfo * *,EmoticonInfo *,EmoticonInfoSort>
_TEXT	ENDS
PUBLIC	??0?$vector@VioHashString@@V?$allocator@VioHashString@@@std@@@std@@QAE@XZ ; std::vector<ioHashString,std::allocator<ioHashString> >::vector<ioHashString,std::allocator<ioHashString> >
; Function compile flags: /Ogsp
; File c:\program files (x86)\microsoft visual studio 10.0\vc\include\vector
;	COMDAT ??0?$vector@VioHashString@@V?$allocator@VioHashString@@@std@@@std@@QAE@XZ
_TEXT	SEGMENT
??0?$vector@VioHashString@@V?$allocator@VioHashString@@@std@@@std@@QAE@XZ PROC ; std::vector<ioHashString,std::allocator<ioHashString> >::vector<ioHashString,std::allocator<ioHashString> >, COMDAT
; _this$ = ecx

; 507  : 		{	// construct empty vector

  00000	8b c1		 mov	 eax, ecx
  00002	33 c9		 xor	 ecx, ecx
  00004	89 08		 mov	 DWORD PTR [eax], ecx
  00006	89 48 04	 mov	 DWORD PTR [eax+4], ecx
  00009	89 48 08	 mov	 DWORD PTR [eax+8], ecx

; 508  : 		}

  0000c	c3		 ret	 0
??0?$vector@VioHashString@@V?$allocator@VioHashString@@@std@@@std@@QAE@XZ ENDP ; std::vector<ioHashString,std::allocator<ioHashString> >::vector<ioHashString,std::allocator<ioHashString> >
_TEXT	ENDS
PUBLIC	??9?$_Vector_const_iterator@V?$_Vector_val@VioHashString@@V?$allocator@VioHashString@@@std@@@std@@@std@@QBE_NABV01@@Z ; std::_Vector_const_iterator<std::_Vector_val<ioHashString,std::allocator<ioHashString> > >::operator!=
; Function compile flags: /Ogsp
;	COMDAT ??9?$_Vector_const_iterator@V?$_Vector_val@VioHashString@@V?$allocator@VioHashString@@@std@@@std@@@std@@QBE_NABV01@@Z
_TEXT	SEGMENT
__Right$ = 8						; size = 4
??9?$_Vector_const_iterator@V?$_Vector_val@VioHashString@@V?$allocator@VioHashString@@@std@@@std@@@std@@QBE_NABV01@@Z PROC ; std::_Vector_const_iterator<std::_Vector_val<ioHashString,std::allocator<ioHashString> > >::operator!=, COMDAT
; _this$ = ecx

; 207  : 		{	// test for iterator inequality

  00000	55		 push	 ebp
  00001	8b ec		 mov	 ebp, esp

; 208  : 		return (!(*this == _Right));

  00003	8b 01		 mov	 eax, DWORD PTR [ecx]
  00005	8b 55 08	 mov	 edx, DWORD PTR __Right$[ebp]
  00008	33 c9		 xor	 ecx, ecx
  0000a	3b 02		 cmp	 eax, DWORD PTR [edx]
  0000c	0f 95 c0	 setne	 al

; 209  : 		}

  0000f	5d		 pop	 ebp
  00010	c2 04 00	 ret	 4
??9?$_Vector_const_iterator@V?$_Vector_val@VioHashString@@V?$allocator@VioHashString@@@std@@@std@@@std@@QBE_NABV01@@Z ENDP ; std::_Vector_const_iterator<std::_Vector_val<ioHashString,std::allocator<ioHashString> > >::operator!=
_TEXT	ENDS
PUBLIC	??$_Move@PAVioHashString@@PAV1@@std@@YAPAVioHashString@@PAV1@00@Z ; std::_Move<ioHashString *,ioHashString *>
; Function compile flags: /Ogsp
; File c:\program files (x86)\microsoft visual studio 10.0\vc\include\xutility
;	COMDAT ??$_Move@PAVioHashString@@PAV1@@std@@YAPAVioHashString@@PAV1@00@Z
_TEXT	SEGMENT
__Cat$532899 = -4					; size = 1
__First$ = 8						; size = 4
__Last$ = 12						; size = 4
__Dest$ = 16						; size = 4
??$_Move@PAVioHashString@@PAV1@@std@@YAPAVioHashString@@PAV1@00@Z PROC ; std::_Move<ioHashString *,ioHashString *>, COMDAT

; 2533 : 	{	// move [_First, _Last) to [_Dest, ...), unchecked

  00000	55		 push	 ebp
  00001	8b ec		 mov	 ebp, esp
  00003	51		 push	 ecx

; 2534 : 	return (_Move(_First, _Last,
; 2535 : 		_Dest, _Ptr_cat(_First, _Dest)));

  00004	ff 75 fc	 push	 DWORD PTR __Cat$532899[ebp]
  00007	ff 75 10	 push	 DWORD PTR __Dest$[ebp]
  0000a	ff 75 0c	 push	 DWORD PTR __Last$[ebp]
  0000d	ff 75 08	 push	 DWORD PTR __First$[ebp]
  00010	e8 00 00 00 00	 call	 ??$_Move@PAVioHashString@@PAV1@@std@@YAPAVioHashString@@PAV1@00U_Nonscalar_ptr_iterator_tag@0@@Z ; std::_Move<ioHashString *,ioHashString *>
  00015	83 c4 10	 add	 esp, 16			; 00000010H

; 2536 : 	}

  00018	c9		 leave
  00019	c3		 ret	 0
??$_Move@PAVioHashString@@PAV1@@std@@YAPAVioHashString@@PAV1@00@Z ENDP ; std::_Move<ioHashString *,ioHashString *>
_TEXT	ENDS
PUBLIC	?destroy@?$allocator@VioHashString@@@std@@QAEXPAVioHashString@@@Z ; std::allocator<ioHashString>::destroy
; Function compile flags: /Ogsp
; File c:\program files (x86)\microsoft visual studio 10.0\vc\include\xmemory
;	COMDAT ?destroy@?$allocator@VioHashString@@@std@@QAEXPAVioHashString@@@Z
_TEXT	SEGMENT
__Ptr$ = 8						; size = 4
?destroy@?$allocator@VioHashString@@@std@@QAEXPAVioHashString@@@Z PROC ; std::allocator<ioHashString>::destroy, COMDAT
; _this$ = ecx

; 212  : 		{	// destroy object at _Ptr

  00000	55		 push	 ebp
  00001	8b ec		 mov	 ebp, esp

; 213  : 		_Destroy(_Ptr);

  00003	8b 4d 08	 mov	 ecx, DWORD PTR __Ptr$[ebp]
  00006	ff 15 00 00 00
	00		 call	 DWORD PTR __imp_??1ioHashString@@QAE@XZ

; 214  : 		}

  0000c	5d		 pop	 ebp
  0000d	c2 04 00	 ret	 4
?destroy@?$allocator@VioHashString@@@std@@QAEXPAVioHashString@@@Z ENDP ; std::allocator<ioHashString>::destroy
_TEXT	ENDS
PUBLIC	??$_Cons_val@V?$allocator@VioHashString@@@std@@VioHashString@@ABV3@@std@@YAXAAV?$allocator@VioHashString@@@0@PAVioHashString@@ABV2@@Z ; std::_Cons_val<std::allocator<ioHashString>,ioHashString,ioHashString const &>
; Function compile flags: /Ogsp
;	COMDAT ??$_Cons_val@V?$allocator@VioHashString@@@std@@VioHashString@@ABV3@@std@@YAXAAV?$allocator@VioHashString@@@0@PAVioHashString@@ABV2@@Z
_TEXT	SEGMENT
__Alval$ = 8						; size = 4
__Pdest$ = 12						; size = 4
__Src$ = 16						; size = 4
??$_Cons_val@V?$allocator@VioHashString@@@std@@VioHashString@@ABV3@@std@@YAXAAV?$allocator@VioHashString@@@0@PAVioHashString@@ABV2@@Z PROC ; std::_Cons_val<std::allocator<ioHashString>,ioHashString,ioHashString const &>, COMDAT

; 279  : 	{	// construct using allocator

  00000	55		 push	 ebp
  00001	8b ec		 mov	 ebp, esp

; 280  : 	_Alval.construct(_Pdest, _STD forward<_Ty2>(_Src));

  00003	ff 75 10	 push	 DWORD PTR __Src$[ebp]
  00006	ff 75 0c	 push	 DWORD PTR __Pdest$[ebp]
  00009	e8 00 00 00 00	 call	 ??$_Construct@VioHashString@@ABV1@@std@@YAXPAVioHashString@@ABV1@@Z ; std::_Construct<ioHashString,ioHashString const &>
  0000e	59		 pop	 ecx
  0000f	59		 pop	 ecx

; 281  : 	}

  00010	5d		 pop	 ebp
  00011	c3		 ret	 0
??$_Cons_val@V?$allocator@VioHashString@@@std@@VioHashString@@ABV3@@std@@YAXAAV?$allocator@VioHashString@@@0@PAVioHashString@@ABV2@@Z ENDP ; std::_Cons_val<std::allocator<ioHashString>,ioHashString,ioHashString const &>
_TEXT	ENDS
PUBLIC	__real@3f400000
PUBLIC	??_C@_00CNPNBAHC@?$AA@				; `string'
PUBLIC	?LoadStaticValues@ioCharEmoticon@@SAXXZ		; ioCharEmoticon::LoadStaticValues
EXTRN	?LoadStaticValue@io3DCharEmoticon@@SAXAAVioINILoader@@@Z:PROC ; io3DCharEmoticon::LoadStaticValue
EXTRN	__imp_??4ioHashString@@QAEAAV0@PBD@Z:PROC
EXTRN	__EH_epilog3_GS:PROC
EXTRN	__EH_prolog3_GS:PROC
EXTRN	__ftol2_sse:PROC
;	COMDAT __real@3f400000
; File d:\lost saga for developer\youtube\tutorial\source\src\lsclient\iocharemoticon.cpp
CONST	SEGMENT
__real@3f400000 DD 03f400000r			; 0.75
CONST	ENDS
;	COMDAT ??_C@_00CNPNBAHC@?$AA@
CONST	SEGMENT
??_C@_00CNPNBAHC@?$AA@ DB 00H				; `string'
CONST	ENDS
;	COMDAT xdata$x
xdata$x	SEGMENT
__unwindtable$?LoadStaticValues@ioCharEmoticon@@SAXXZ DD 0ffffffffH
	DD	FLAT:__unwindfunclet$?LoadStaticValues@ioCharEmoticon@@SAXXZ$0
__ehfuncinfo$?LoadStaticValues@ioCharEmoticon@@SAXXZ DD 019930522H
	DD	01H
	DD	FLAT:__unwindtable$?LoadStaticValues@ioCharEmoticon@@SAXXZ
	DD	2 DUP(00H)
	DD	2 DUP(00H)
	DD	00H
	DD	01H
; Function compile flags: /Ogsp
xdata$x	ENDS
;	COMDAT ?LoadStaticValues@ioCharEmoticon@@SAXXZ
_TEXT	SEGMENT
tv32953 = -2040						; size = 4
tv32944 = -2040						; size = 4
tv32935 = -2040						; size = 4
tv32926 = -2040						; size = 4
tv32917 = -2040						; size = 4
tv32906 = -2040						; size = 4
tv32895 = -2040						; size = 4
tv32883 = -2040						; size = 4
tv32875 = -2040						; size = 4
_i$536973 = -2040					; size = 4
_i$536675 = -2040					; size = 4
$T536688 = -2040					; size = 4
_kLoader$ = -2036					; size = 912
_szBuf$ = -1124						; size = 260
__k$537337 = -864					; size = 25
__k$537099 = -832					; size = 25
__k$536487 = -800					; size = 21
__k$536100 = -772					; size = 21
__k$535176 = -744					; size = 24
__k$534689 = -716					; size = 24
__k$535689 = -688					; size = 24
__k$535301 = -660					; size = 23
__k$534814 = -632					; size = 23
__k$534939 = -604					; size = 23
__k$535426 = -576					; size = 23
__k$536188 = -548					; size = 22
__k$535930 = -520					; size = 22
__k$535064 = -492					; size = 22
__k$535801 = -464					; size = 22
__k$536317 = -436					; size = 22
__k$534301 = -408					; size = 22
__k$535551 = -380					; size = 22
__k$537212 = -352					; size = 20
__k$536958 = -328					; size = 20
__k$536575 = -304					; size = 20
__k$536704 = -280					; size = 20
__k$533939 = -256					; size = 17
__k$534064 = -232					; size = 17
__k$534204 = -208					; size = 19
__k$534564 = -184					; size = 19
__t$536829 = -160					; size = 13
__k$533814 = -140					; size = 15
__k$533689 = -120					; size = 15
__k$534426 = -100					; size = 14
__k$533301 = -80					; size = 11
__k$533564 = -64					; size = 9
__k$533426 = -48					; size = 9
__t$533176 = -32					; size = 9
__$EHRec$ = -12						; size = 12
?LoadStaticValues@ioCharEmoticon@@SAXXZ PROC		; ioCharEmoticon::LoadStaticValues, COMDAT

; 148  : {

  00000	68 ec 07 00 00	 push	 2028			; 000007ecH
  00005	b8 00 00 00 00	 mov	 eax, __ehhandler$?LoadStaticValues@ioCharEmoticon@@SAXXZ
  0000a	e8 00 00 00 00	 call	 __EH_prolog3_GS

; 149  : 	ioINILoader_e kLoader( "config/sp2_gui.ini" );

  0000f	33 db		 xor	 ebx, ebx
  00011	6a 04		 push	 4
  00013	c7 85 5c fb ff
	ff 8e 83 85 8c	 mov	 DWORD PTR _kLoader$[ebp+848], -1937407090 ; 8c85838eH
  0001d	c7 85 60 fb ff
	ff 84 8b c4 99	 mov	 DWORD PTR _kLoader$[ebp+852], -1715172476 ; 99c48b84H
  00027	c7 85 64 fb ff
	ff 9d de b4 8d	 mov	 DWORD PTR _kLoader$[ebp+856], -1917526371 ; 8db4de9dH
  00031	c7 85 68 fb ff
	ff 98 85 c5 83	 mov	 DWORD PTR _kLoader$[ebp+860], -2084207208 ; 83c58598H
  0003b	66 c7 85 6c fb
	ff ff 83 85	 mov	 WORD PTR _kLoader$[ebp+864], 34179 ; 00008583H
  00044	8d 85 5c fb ff
	ff		 lea	 eax, DWORD PTR _kLoader$[ebp+848]
  0004a	88 9d 6e fb ff
	ff		 mov	 BYTE PTR _kLoader$[ebp+866], bl
  00050	59		 pop	 ecx
  00051	bf ed ec eb ea	 mov	 edi, -353637139		; eaebecedH
$LL110@LoadStatic:
  00056	31 38		 xor	 DWORD PTR [eax], edi
  00058	83 c0 04	 add	 eax, 4
  0005b	49		 dec	 ecx
  0005c	75 f8		 jne	 SHORT $LL110@LoadStatic
  0005e	6a 10		 push	 16			; 00000010H
  00060	5e		 pop	 esi
$LL107@LoadStatic:
  00061	8b c6		 mov	 eax, esi
  00063	25 03 00 00 80	 and	 eax, -2147483645	; 80000003H
  00068	79 05		 jns	 SHORT $LN3879@LoadStatic
  0006a	48		 dec	 eax
  0006b	83 c8 fc	 or	 eax, -4			; fffffffcH
  0006e	40		 inc	 eax
$LN3879@LoadStatic:
  0006f	b1 ed		 mov	 cl, -19			; ffffffedH
  00071	2a c8		 sub	 cl, al
  00073	30 8c 35 5c fb
	ff ff		 xor	 BYTE PTR _kLoader$[ebp+esi+848], cl
  0007a	46		 inc	 esi
  0007b	83 fe 12	 cmp	 esi, 18			; 00000012H
  0007e	7c e1		 jl	 SHORT $LL107@LoadStatic
  00080	6a 01		 push	 1
  00082	8d 85 5c fb ff
	ff		 lea	 eax, DWORD PTR _kLoader$[ebp+848]
  00088	50		 push	 eax
  00089	8d 8d 0c f8 ff
	ff		 lea	 ecx, DWORD PTR _kLoader$[ebp]
  0008f	ff 15 00 00 00
	00		 call	 DWORD PTR __imp_??0ioINILoader@@QAE@PBD_N@Z
  00095	6a 02		 push	 2
  00097	89 5d fc	 mov	 DWORD PTR __$EHRec$[ebp+8], ebx

; 150  : 
; 151  : 	kLoader.SetTitle_e( "emoticon" );

  0009a	c7 45 e0 88 81
	84 9e		 mov	 DWORD PTR __t$533176[ebp], -1635483256 ; 9e848188H
  000a1	c7 45 e4 84 8f
	84 84		 mov	 DWORD PTR __t$533176[ebp+4], -2071687292 ; 84848f84H
  000a8	8d 45 e0	 lea	 eax, DWORD PTR __t$533176[ebp]
  000ab	88 5d e8	 mov	 BYTE PTR __t$533176[ebp+8], bl
  000ae	59		 pop	 ecx
$LL216@LoadStatic:
  000af	31 38		 xor	 DWORD PTR [eax], edi
  000b1	83 c0 04	 add	 eax, 4
  000b4	49		 dec	 ecx
  000b5	75 f8		 jne	 SHORT $LL216@LoadStatic
  000b7	8d 45 e0	 lea	 eax, DWORD PTR __t$533176[ebp]
  000ba	50		 push	 eax
  000bb	8d 8d 0c f8 ff
	ff		 lea	 ecx, DWORD PTR _kLoader$[ebp]
  000c1	ff 15 00 00 00
	00		 call	 DWORD PTR __imp_?SetTitle@ioINILoader@@QAEXPBD@Z
  000c7	6a 02		 push	 2

; 152  : 
; 153  : 	char szBuf[MAX_PATH];
; 154  : 	kLoader.LoadString_e( "back_image", "", szBuf, MAX_PATH );

  000c9	c7 45 b0 8f 8d
	88 81		 mov	 DWORD PTR __k$533301[ebp], -2121757297 ; 81888d8fH
  000d0	c7 45 b4 b2 85
	86 8b		 mov	 DWORD PTR __k$533301[ebp+4], -1954118222 ; 8b8685b2H
  000d7	66 c7 45 b8 8a
	89		 mov	 WORD PTR __k$533301[ebp+8], 35210 ; 0000898aH
  000dd	8d 45 b0	 lea	 eax, DWORD PTR __k$533301[ebp]
  000e0	88 5d ba	 mov	 BYTE PTR __k$533301[ebp+10], bl
  000e3	59		 pop	 ecx
$LL322@LoadStatic:
  000e4	31 38		 xor	 DWORD PTR [eax], edi
  000e6	83 c0 04	 add	 eax, 4
  000e9	49		 dec	 ecx
  000ea	75 f8		 jne	 SHORT $LL322@LoadStatic
  000ec	6a 08		 push	 8
  000ee	5e		 pop	 esi
$LL319@LoadStatic:
  000ef	8b c6		 mov	 eax, esi
  000f1	25 03 00 00 80	 and	 eax, -2147483645	; 80000003H
  000f6	79 05		 jns	 SHORT $LN3880@LoadStatic
  000f8	48		 dec	 eax
  000f9	83 c8 fc	 or	 eax, -4			; fffffffcH
  000fc	40		 inc	 eax
$LN3880@LoadStatic:
  000fd	b1 ed		 mov	 cl, -19			; ffffffedH
  000ff	2a c8		 sub	 cl, al
  00101	30 4c 35 b0	 xor	 BYTE PTR __k$533301[ebp+esi], cl
  00105	46		 inc	 esi
  00106	83 fe 0a	 cmp	 esi, 10			; 0000000aH
  00109	7c e4		 jl	 SHORT $LL319@LoadStatic
  0010b	68 04 01 00 00	 push	 260			; 00000104H
  00110	8d 85 9c fb ff
	ff		 lea	 eax, DWORD PTR _szBuf$[ebp]
  00116	50		 push	 eax
  00117	68 00 00 00 00	 push	 OFFSET ??_C@_00CNPNBAHC@?$AA@
  0011c	8d 45 b0	 lea	 eax, DWORD PTR __k$533301[ebp]
  0011f	50		 push	 eax
  00120	8d 8d 0c f8 ff
	ff		 lea	 ecx, DWORD PTR _kLoader$[ebp]
  00126	ff 15 00 00 00
	00		 call	 DWORD PTR __imp_?LoadStringA@ioINILoader@@QAEXPBD0PADH@Z

; 155  : 	m_EmoticonBack = szBuf;

  0012c	8d 85 9c fb ff
	ff		 lea	 eax, DWORD PTR _szBuf$[ebp]
  00132	50		 push	 eax
  00133	b9 00 00 00 00	 mov	 ecx, OFFSET ?m_EmoticonBack@ioCharEmoticon@@1VioHashString@@A ; ioCharEmoticon::m_EmoticonBack
  00138	ff 15 00 00 00
	00		 call	 DWORD PTR __imp_??4ioHashString@@QAEAAV0@PBD@Z
  0013e	6a 02		 push	 2

; 156  : 
; 157  : 	m_iEmoticonXPos = kLoader.LoadInt_e( "x_offset", 0 );

  00140	c7 45 d0 95 b3
	84 8c		 mov	 DWORD PTR __k$533426[ebp], -1937460331 ; 8c84b395H
  00147	c7 45 d4 8b 9f
	8e 9e		 mov	 DWORD PTR __k$533426[ebp+4], -1634820213 ; 9e8e9f8bH
  0014e	8d 45 d0	 lea	 eax, DWORD PTR __k$533426[ebp]
  00151	88 5d d8	 mov	 BYTE PTR __k$533426[ebp+8], bl
  00154	59		 pop	 ecx
$LL428@LoadStatic:
  00155	31 38		 xor	 DWORD PTR [eax], edi
  00157	83 c0 04	 add	 eax, 4
  0015a	49		 dec	 ecx
  0015b	75 f8		 jne	 SHORT $LL428@LoadStatic
  0015d	8b 35 00 00 00
	00		 mov	 esi, DWORD PTR __imp_?LoadInt@ioINILoader@@QAEHPBDH@Z
  00163	53		 push	 ebx
  00164	8d 45 d0	 lea	 eax, DWORD PTR __k$533426[ebp]
  00167	50		 push	 eax
  00168	8d 8d 0c f8 ff
	ff		 lea	 ecx, DWORD PTR _kLoader$[ebp]
  0016e	ff d6		 call	 esi
  00170	6a 02		 push	 2
  00172	a3 00 00 00 00	 mov	 DWORD PTR ?m_iEmoticonXPos@ioCharEmoticon@@1HA, eax ; ioCharEmoticon::m_iEmoticonXPos

; 158  : 	m_iEmoticonYPos = kLoader.LoadInt_e( "y_offset", 46 );

  00177	c7 45 c0 94 b3
	84 8c		 mov	 DWORD PTR __k$533564[ebp], -1937460332 ; 8c84b394H
  0017e	c7 45 c4 8b 9f
	8e 9e		 mov	 DWORD PTR __k$533564[ebp+4], -1634820213 ; 9e8e9f8bH
  00185	8d 45 c0	 lea	 eax, DWORD PTR __k$533564[ebp]
  00188	88 5d c8	 mov	 BYTE PTR __k$533564[ebp+8], bl
  0018b	59		 pop	 ecx
$LL534@LoadStatic:
  0018c	31 38		 xor	 DWORD PTR [eax], edi
  0018e	83 c0 04	 add	 eax, 4
  00191	49		 dec	 ecx
  00192	75 f8		 jne	 SHORT $LL534@LoadStatic
  00194	6a 2e		 push	 46			; 0000002eH
  00196	8d 45 c0	 lea	 eax, DWORD PTR __k$533564[ebp]
  00199	50		 push	 eax
  0019a	8d 8d 0c f8 ff
	ff		 lea	 ecx, DWORD PTR _kLoader$[ebp]
  001a0	ff d6		 call	 esi
  001a2	6a 03		 push	 3
  001a4	a3 00 00 00 00	 mov	 DWORD PTR ?m_iEmoticonYPos@ioCharEmoticon@@1HA, eax ; ioCharEmoticon::m_iEmoticonYPos

; 159  : 
; 160  : 	m_iEmoticonNameOffsetX   = kLoader.LoadInt_e( "title_offset_x", 0 );

  001a9	c7 45 88 99 85
	9f 86		 mov	 DWORD PTR __k$533689[ebp], -2036365927 ; 869f8599H
  001b0	c7 45 8c 88 b3
	84 8c		 mov	 DWORD PTR __k$533689[ebp+4], -1937460344 ; 8c84b388H
  001b7	c7 45 90 8b 9f
	8e 9e		 mov	 DWORD PTR __k$533689[ebp+8], -1634820213 ; 9e8e9f8bH
  001be	66 c7 45 94 b2
	94		 mov	 WORD PTR __k$533689[ebp+12], 38066 ; 000094b2H
  001c4	8d 45 88	 lea	 eax, DWORD PTR __k$533689[ebp]
  001c7	88 5d 96	 mov	 BYTE PTR __k$533689[ebp+14], bl
  001ca	59		 pop	 ecx
$LL640@LoadStatic:
  001cb	31 38		 xor	 DWORD PTR [eax], edi
  001cd	83 c0 04	 add	 eax, 4
  001d0	49		 dec	 ecx
  001d1	75 f8		 jne	 SHORT $LL640@LoadStatic
  001d3	6a 0c		 push	 12			; 0000000cH
  001d5	58		 pop	 eax
$LL637@LoadStatic:
  001d6	8b c8		 mov	 ecx, eax
  001d8	81 e1 03 00 00
	80		 and	 ecx, -2147483645	; 80000003H
  001de	79 05		 jns	 SHORT $LN3881@LoadStatic
  001e0	49		 dec	 ecx
  001e1	83 c9 fc	 or	 ecx, -4			; fffffffcH
  001e4	41		 inc	 ecx
$LN3881@LoadStatic:
  001e5	b2 ed		 mov	 dl, -19			; ffffffedH
  001e7	2a d1		 sub	 dl, cl
  001e9	30 54 05 88	 xor	 BYTE PTR __k$533689[ebp+eax], dl
  001ed	40		 inc	 eax
  001ee	83 f8 0e	 cmp	 eax, 14			; 0000000eH
  001f1	7c e3		 jl	 SHORT $LL637@LoadStatic
  001f3	53		 push	 ebx
  001f4	8d 45 88	 lea	 eax, DWORD PTR __k$533689[ebp]
  001f7	50		 push	 eax
  001f8	8d 8d 0c f8 ff
	ff		 lea	 ecx, DWORD PTR _kLoader$[ebp]
  001fe	ff d6		 call	 esi
  00200	6a 03		 push	 3
  00202	a3 00 00 00 00	 mov	 DWORD PTR ?m_iEmoticonNameOffsetX@ioCharEmoticon@@1HA, eax ; ioCharEmoticon::m_iEmoticonNameOffsetX

; 161  : 	m_iEmoticonNameOffsetY   = kLoader.LoadInt_e( "title_offset_y", 0 );

  00207	c7 85 74 ff ff
	ff 99 85 9f 86	 mov	 DWORD PTR __k$533814[ebp], -2036365927 ; 869f8599H
  00211	c7 85 78 ff ff
	ff 88 b3 84 8c	 mov	 DWORD PTR __k$533814[ebp+4], -1937460344 ; 8c84b388H
  0021b	c7 85 7c ff ff
	ff 8b 9f 8e 9e	 mov	 DWORD PTR __k$533814[ebp+8], -1634820213 ; 9e8e9f8bH
  00225	66 c7 45 80 b2
	95		 mov	 WORD PTR __k$533814[ebp+12], 38322 ; 000095b2H
  0022b	8d 85 74 ff ff
	ff		 lea	 eax, DWORD PTR __k$533814[ebp]
  00231	88 5d 82	 mov	 BYTE PTR __k$533814[ebp+14], bl
  00234	59		 pop	 ecx
$LL746@LoadStatic:
  00235	31 38		 xor	 DWORD PTR [eax], edi
  00237	83 c0 04	 add	 eax, 4
  0023a	49		 dec	 ecx
  0023b	75 f8		 jne	 SHORT $LL746@LoadStatic
  0023d	6a 0c		 push	 12			; 0000000cH
  0023f	58		 pop	 eax
$LL743@LoadStatic:
  00240	8b c8		 mov	 ecx, eax
  00242	81 e1 03 00 00
	80		 and	 ecx, -2147483645	; 80000003H
  00248	79 05		 jns	 SHORT $LN3882@LoadStatic
  0024a	49		 dec	 ecx
  0024b	83 c9 fc	 or	 ecx, -4			; fffffffcH
  0024e	41		 inc	 ecx
$LN3882@LoadStatic:
  0024f	b2 ed		 mov	 dl, -19			; ffffffedH
  00251	2a d1		 sub	 dl, cl
  00253	30 94 05 74 ff
	ff ff		 xor	 BYTE PTR __k$533814[ebp+eax], dl
  0025a	40		 inc	 eax
  0025b	83 f8 0e	 cmp	 eax, 14			; 0000000eH
  0025e	7c e0		 jl	 SHORT $LL743@LoadStatic
  00260	53		 push	 ebx
  00261	8d 85 74 ff ff
	ff		 lea	 eax, DWORD PTR __k$533814[ebp]
  00267	50		 push	 eax
  00268	8d 8d 0c f8 ff
	ff		 lea	 ecx, DWORD PTR _kLoader$[ebp]
  0026e	ff d6		 call	 esi
  00270	6a 04		 push	 4
  00272	a3 00 00 00 00	 mov	 DWORD PTR ?m_iEmoticonNameOffsetY@ioCharEmoticon@@1HA, eax ; ioCharEmoticon::m_iEmoticonNameOffsetY

; 162  : 	m_iEmoticonNameAlignType = kLoader.LoadInt_e( "title_align_type", 0 );

  00277	c7 85 00 ff ff
	ff 99 85 9f 86	 mov	 DWORD PTR __k$533939[ebp], -2036365927 ; 869f8599H
  00281	c7 85 04 ff ff
	ff 88 b3 8a 86	 mov	 DWORD PTR __k$533939[ebp+4], -2037730424 ; 868ab388H
  0028b	c7 85 08 ff ff
	ff 84 8b 85 b5	 mov	 DWORD PTR __k$533939[ebp+8], -1249539196 ; b5858b84H
  00295	c7 85 0c ff ff
	ff 99 95 9b 8f	 mov	 DWORD PTR __k$533939[ebp+12], -1885629031 ; 8f9b9599H
  0029f	8d 85 00 ff ff
	ff		 lea	 eax, DWORD PTR __k$533939[ebp]
  002a5	88 9d 10 ff ff
	ff		 mov	 BYTE PTR __k$533939[ebp+16], bl
  002ab	59		 pop	 ecx
$LL852@LoadStatic:
  002ac	31 38		 xor	 DWORD PTR [eax], edi
  002ae	83 c0 04	 add	 eax, 4
  002b1	49		 dec	 ecx
  002b2	75 f8		 jne	 SHORT $LL852@LoadStatic
  002b4	53		 push	 ebx
  002b5	8d 85 00 ff ff
	ff		 lea	 eax, DWORD PTR __k$533939[ebp]
  002bb	50		 push	 eax
  002bc	8d 8d 0c f8 ff
	ff		 lea	 ecx, DWORD PTR _kLoader$[ebp]
  002c2	ff d6		 call	 esi
  002c4	6a 04		 push	 4
  002c6	a3 00 00 00 00	 mov	 DWORD PTR ?m_iEmoticonNameAlignType@ioCharEmoticon@@1HA, eax ; ioCharEmoticon::m_iEmoticonNameAlignType

; 163  : 
; 164  : 	m_dwDefaultDuration = kLoader.LoadInt_e( "default_duration", 1000 );

  002cb	c7 85 18 ff ff
	ff 89 89 8d 8b	 mov	 DWORD PTR __k$534064[ebp], -1953658487 ; 8b8d8989H
  002d5	c7 85 1c ff ff
	ff 98 80 9f b5	 mov	 DWORD PTR __k$534064[ebp+4], -1247838056 ; b59f8098H
  002df	c7 85 20 ff ff
	ff 89 99 99 8b	 mov	 DWORD PTR __k$534064[ebp+8], -1952867959 ; 8b999989H
  002e9	c7 85 24 ff ff
	ff 99 85 84 84	 mov	 DWORD PTR __k$534064[ebp+12], -2071689831 ; 84848599H
  002f3	8d 85 18 ff ff
	ff		 lea	 eax, DWORD PTR __k$534064[ebp]
  002f9	88 9d 28 ff ff
	ff		 mov	 BYTE PTR __k$534064[ebp+16], bl
  002ff	59		 pop	 ecx
$LL958@LoadStatic:
  00300	31 38		 xor	 DWORD PTR [eax], edi
  00302	83 c0 04	 add	 eax, 4
  00305	49		 dec	 ecx
  00306	75 f8		 jne	 SHORT $LL958@LoadStatic
  00308	68 e8 03 00 00	 push	 1000			; 000003e8H
  0030d	8d 85 18 ff ff
	ff		 lea	 eax, DWORD PTR __k$534064[ebp]
  00313	50		 push	 eax
  00314	8d 8d 0c f8 ff
	ff		 lea	 ecx, DWORD PTR _kLoader$[ebp]
  0031a	ff d6		 call	 esi
  0031c	6a 04		 push	 4
  0031e	a3 00 00 00 00	 mov	 DWORD PTR ?m_dwDefaultDuration@ioCharEmoticon@@1KA, eax ; ioCharEmoticon::m_dwDefaultDuration

; 165  : 	m_dwChatIconDuration = kLoader.LoadInt_e( "chat_icon_duration", 2000 );

  00323	c7 85 30 ff ff
	ff 8e 84 8a 9e	 mov	 DWORD PTR __k$534204[ebp], -1635089266 ; 9e8a848eH
  0032d	c7 85 34 ff ff
	ff b2 85 88 85	 mov	 DWORD PTR __k$534204[ebp+4], -2054650446 ; 858885b2H
  00337	c7 85 38 ff ff
	ff 83 b3 8f 9f	 mov	 DWORD PTR __k$534204[ebp+8], -1617972349 ; 9f8fb383H
  00341	c7 85 3c ff ff
	ff 9f 8d 9f 83	 mov	 DWORD PTR __k$534204[ebp+12], -2086695521 ; 839f8d9fH
  0034b	66 c7 85 40 ff
	ff ff 82 82	 mov	 WORD PTR __k$534204[ebp+16], 33410 ; 00008282H
  00354	8d 85 30 ff ff
	ff		 lea	 eax, DWORD PTR __k$534204[ebp]
  0035a	88 9d 42 ff ff
	ff		 mov	 BYTE PTR __k$534204[ebp+18], bl
  00360	59		 pop	 ecx
$LL1064@LoadStatic:
  00361	31 38		 xor	 DWORD PTR [eax], edi
  00363	83 c0 04	 add	 eax, 4
  00366	49		 dec	 ecx
  00367	75 f8		 jne	 SHORT $LL1064@LoadStatic
  00369	6a 10		 push	 16			; 00000010H
  0036b	5f		 pop	 edi
$LL1061@LoadStatic:
  0036c	8b c7		 mov	 eax, edi
  0036e	25 03 00 00 80	 and	 eax, -2147483645	; 80000003H
  00373	79 05		 jns	 SHORT $LN3883@LoadStatic
  00375	48		 dec	 eax
  00376	83 c8 fc	 or	 eax, -4			; fffffffcH
  00379	40		 inc	 eax
$LN3883@LoadStatic:
  0037a	b1 ed		 mov	 cl, -19			; ffffffedH
  0037c	2a c8		 sub	 cl, al
  0037e	30 8c 3d 30 ff
	ff ff		 xor	 BYTE PTR __k$534204[ebp+edi], cl
  00385	47		 inc	 edi
  00386	83 ff 12	 cmp	 edi, 18			; 00000012H
  00389	7c e1		 jl	 SHORT $LL1061@LoadStatic
  0038b	68 d0 07 00 00	 push	 2000			; 000007d0H
  00390	8d 85 30 ff ff
	ff		 lea	 eax, DWORD PTR __k$534204[ebp]
  00396	50		 push	 eax
  00397	8d 8d 0c f8 ff
	ff		 lea	 ecx, DWORD PTR _kLoader$[ebp]
  0039d	ff d6		 call	 esi
  0039f	6a 05		 push	 5
  003a1	5f		 pop	 edi
  003a2	a3 00 00 00 00	 mov	 DWORD PTR ?m_dwChatIconDuration@ioCharEmoticon@@1KA, eax ; ioCharEmoticon::m_dwChatIconDuration

; 166  : 	m_dw3DChatIconDuration = kLoader.LoadInt_e( "3d_chat_icon_duration", 2500 );

  003a7	c7 85 68 fe ff
	ff de 88 b4 89	 mov	 DWORD PTR __k$534301[ebp], -1984657186 ; 89b488deH
  003b1	c7 85 6c fe ff
	ff 85 8d 9f b5	 mov	 DWORD PTR __k$534301[ebp+4], -1247834747 ; b59f8d85H
  003bb	c7 85 70 fe ff
	ff 84 8f 84 84	 mov	 DWORD PTR __k$534301[ebp+8], -2071687292 ; 84848f84H
  003c5	c7 85 74 fe ff
	ff b2 88 9e 98	 mov	 DWORD PTR __k$534301[ebp+12], -1734440782 ; 989e88b2H
  003cf	c7 85 78 fe ff
	ff 8c 98 82 85	 mov	 DWORD PTR __k$534301[ebp+16], -2055038836 ; 8582988cH
  003d9	8d 85 68 fe ff
	ff		 lea	 eax, DWORD PTR __k$534301[ebp]
  003df	66 c7 85 7c fe
	ff ff 83 00	 mov	 WORD PTR __k$534301[ebp+20], 131 ; 00000083H
  003e8	8b cf		 mov	 ecx, edi
$LL1170@LoadStatic:
  003ea	81 30 ed ec eb
	ea		 xor	 DWORD PTR [eax], -353637139 ; eaebecedH
  003f0	83 c0 04	 add	 eax, 4
  003f3	49		 dec	 ecx
  003f4	75 f4		 jne	 SHORT $LL1170@LoadStatic
  003f6	80 b5 7c fe ff
	ff ed		 xor	 BYTE PTR __k$534301[ebp+20], -19 ; ffffffedH
  003fd	68 c4 09 00 00	 push	 2500			; 000009c4H
  00402	8d 85 68 fe ff
	ff		 lea	 eax, DWORD PTR __k$534301[ebp]
  00408	50		 push	 eax
  00409	8d 8d 0c f8 ff
	ff		 lea	 ecx, DWORD PTR _kLoader$[ebp]
  0040f	ff d6		 call	 esi
  00411	6a 03		 push	 3
  00413	a3 00 00 00 00	 mov	 DWORD PTR ?m_dw3DChatIconDuration@ioCharEmoticon@@1KA, eax ; ioCharEmoticon::m_dw3DChatIconDuration

; 167  : 	m_dwLongDuration = kLoader.LoadInt_e( "long_duration", 2000 );

  00418	c7 45 9c 81 83
	85 8d		 mov	 DWORD PTR __k$534426[ebp], -1920629887 ; 8d858381H
  0041f	c7 45 a0 b2 88
	9e 98		 mov	 DWORD PTR __k$534426[ebp+4], -1734440782 ; 989e88b2H
  00426	c7 45 a4 8c 98
	82 85		 mov	 DWORD PTR __k$534426[ebp+8], -2055038836 ; 8582988cH
  0042d	8d 45 9c	 lea	 eax, DWORD PTR __k$534426[ebp]
  00430	66 c7 45 a8 83
	00		 mov	 WORD PTR __k$534426[ebp+12], 131 ; 00000083H
  00436	59		 pop	 ecx
$LL1276@LoadStatic:
  00437	81 30 ed ec eb
	ea		 xor	 DWORD PTR [eax], -353637139 ; eaebecedH
  0043d	83 c0 04	 add	 eax, 4
  00440	49		 dec	 ecx
  00441	75 f4		 jne	 SHORT $LL1276@LoadStatic
  00443	80 75 a8 ed	 xor	 BYTE PTR __k$534426[ebp+12], -19 ; ffffffedH
  00447	68 d0 07 00 00	 push	 2000			; 000007d0H
  0044c	8d 45 9c	 lea	 eax, DWORD PTR __k$534426[ebp]
  0044f	50		 push	 eax
  00450	8d 8d 0c f8 ff
	ff		 lea	 ecx, DWORD PTR _kLoader$[ebp]
  00456	ff d6		 call	 esi
  00458	6a 04		 push	 4
  0045a	a3 00 00 00 00	 mov	 DWORD PTR ?m_dwLongDuration@ioCharEmoticon@@1KA, eax ; ioCharEmoticon::m_dwLongDuration

; 168  : 
; 169  : 	m_fEmoticonEndScale = kLoader.LoadFloat_e( "emoticon_end_scale", 0.75f );

  0045f	c7 85 48 ff ff
	ff 88 81 84 9e	 mov	 DWORD PTR __k$534564[ebp], -1635483256 ; 9e848188H
  00469	c7 85 4c ff ff
	ff 84 8f 84 84	 mov	 DWORD PTR __k$534564[ebp+4], -2071687292 ; 84848f84H
  00473	c7 85 50 ff ff
	ff b2 89 85 8e	 mov	 DWORD PTR __k$534564[ebp+8], -1903851086 ; 8e8589b2H
  0047d	c7 85 54 ff ff
	ff b2 9f 88 8b	 mov	 DWORD PTR __k$534564[ebp+12], -1953980494 ; 8b889fb2H
  00487	66 c7 85 58 ff
	ff ff 81 89	 mov	 WORD PTR __k$534564[ebp+16], 35201 ; 00008981H
  00490	8d 85 48 ff ff
	ff		 lea	 eax, DWORD PTR __k$534564[ebp]
  00496	88 9d 5a ff ff
	ff		 mov	 BYTE PTR __k$534564[ebp+18], bl
  0049c	59		 pop	 ecx
$LL1382@LoadStatic:
  0049d	81 30 ed ec eb
	ea		 xor	 DWORD PTR [eax], -353637139 ; eaebecedH
  004a3	83 c0 04	 add	 eax, 4
  004a6	49		 dec	 ecx
  004a7	75 f4		 jne	 SHORT $LL1382@LoadStatic
  004a9	6a 10		 push	 16			; 00000010H
  004ab	58		 pop	 eax
$LL1379@LoadStatic:
  004ac	8b c8		 mov	 ecx, eax
  004ae	81 e1 03 00 00
	80		 and	 ecx, -2147483645	; 80000003H
  004b4	79 05		 jns	 SHORT $LN3884@LoadStatic
  004b6	49		 dec	 ecx
  004b7	83 c9 fc	 or	 ecx, -4			; fffffffcH
  004ba	41		 inc	 ecx
$LN3884@LoadStatic:
  004bb	b2 ed		 mov	 dl, -19			; ffffffedH
  004bd	2a d1		 sub	 dl, cl
  004bf	30 94 05 48 ff
	ff ff		 xor	 BYTE PTR __k$534564[ebp+eax], dl
  004c6	40		 inc	 eax
  004c7	83 f8 12	 cmp	 eax, 18			; 00000012H
  004ca	7c e0		 jl	 SHORT $LL1379@LoadStatic
  004cc	f3 0f 10 05 00
	00 00 00	 movss	 xmm0, DWORD PTR __real@3f400000
  004d4	51		 push	 ecx
  004d5	8d 85 48 ff ff
	ff		 lea	 eax, DWORD PTR __k$534564[ebp]
  004db	f3 0f 11 04 24	 movss	 DWORD PTR [esp], xmm0
  004e0	50		 push	 eax
  004e1	8d 8d 0c f8 ff
	ff		 lea	 ecx, DWORD PTR _kLoader$[ebp]
  004e7	ff 15 00 00 00
	00		 call	 DWORD PTR __imp_?LoadFloat@ioINILoader@@QAEMPBDM@Z
  004ed	d9 1d 00 00 00
	00		 fstp	 DWORD PTR ?m_fEmoticonEndScale@ioCharEmoticon@@1MA ; ioCharEmoticon::m_fEmoticonEndScale

; 170  : 	m_fFishingGradeEndScale = kLoader.LoadFloat_e( "fishing_grade_end_scale", 0.65f );

  004f3	c7 85 34 fd ff
	ff 8b 85 98 82	 mov	 DWORD PTR __k$534689[ebp], -2103933557 ; 8298858bH
  004fd	c7 85 38 fd ff
	ff 84 82 8c b5	 mov	 DWORD PTR __k$534689[ebp+4], -1249082748 ; b58c8284H
  00507	c7 85 3c fd ff
	ff 8a 9e 8a 8e	 mov	 DWORD PTR __k$534689[ebp+8], -1903518070 ; 8e8a9e8aH
  00511	c7 85 40 fd ff
	ff 88 b3 8e 84	 mov	 DWORD PTR __k$534689[ebp+12], -2071022712 ; 848eb388H
  0051b	c7 85 44 fd ff
	ff 89 b3 98 89	 mov	 DWORD PTR __k$534689[ebp+16], -1986481271 ; 8998b389H
  00525	8d 85 34 fd ff
	ff		 lea	 eax, DWORD PTR __k$534689[ebp]
  0052b	c7 85 48 fd ff
	ff 8c 80 8e 00	 mov	 DWORD PTR __k$534689[ebp+20], 9339020 ; 008e808cH
  00535	8b cf		 mov	 ecx, edi
$LL1488@LoadStatic:
  00537	81 30 ed ec eb
	ea		 xor	 DWORD PTR [eax], -353637139 ; eaebecedH
  0053d	83 c0 04	 add	 eax, 4
  00540	49		 dec	 ecx
  00541	75 f4		 jne	 SHORT $LL1488@LoadStatic
  00543	6a 14		 push	 20			; 00000014H
  00545	58		 pop	 eax
$LL1485@LoadStatic:
  00546	8b c8		 mov	 ecx, eax
  00548	81 e1 03 00 00
	80		 and	 ecx, -2147483645	; 80000003H
  0054e	79 05		 jns	 SHORT $LN3885@LoadStatic
  00550	49		 dec	 ecx
  00551	83 c9 fc	 or	 ecx, -4			; fffffffcH
  00554	41		 inc	 ecx
$LN3885@LoadStatic:
  00555	b2 ed		 mov	 dl, -19			; ffffffedH
  00557	2a d1		 sub	 dl, cl
  00559	30 94 05 34 fd
	ff ff		 xor	 BYTE PTR __k$534689[ebp+eax], dl
  00560	40		 inc	 eax
  00561	83 f8 17	 cmp	 eax, 23			; 00000017H
  00564	7c e0		 jl	 SHORT $LL1485@LoadStatic
  00566	f3 0f 10 05 00
	00 00 00	 movss	 xmm0, DWORD PTR __real@3f266666
  0056e	51		 push	 ecx
  0056f	8d 85 34 fd ff
	ff		 lea	 eax, DWORD PTR __k$534689[ebp]
  00575	f3 0f 11 04 24	 movss	 DWORD PTR [esp], xmm0
  0057a	50		 push	 eax
  0057b	8d 8d 0c f8 ff
	ff		 lea	 ecx, DWORD PTR _kLoader$[ebp]
  00581	ff 15 00 00 00
	00		 call	 DWORD PTR __imp_?LoadFloat@ioINILoader@@QAEMPBDM@Z
  00587	d9 1d 00 00 00
	00		 fstp	 DWORD PTR ?m_fFishingGradeEndScale@ioCharEmoticon@@1MA ; ioCharEmoticon::m_fFishingGradeEndScale

; 171  : 
; 172  : 	m_fOwnerGameEventScale = kLoader.LoadFloat_e( "owner_game_event_scale", 0.75f );

  0058d	c7 85 88 fd ff
	ff 82 9b 85 8f	 mov	 DWORD PTR __k$534814[ebp], -1887069310 ; 8f859b82H
  00597	c7 85 8c fd ff
	ff 9f b3 8c 8b	 mov	 DWORD PTR __k$534814[ebp+4], -1953713249 ; 8b8cb39fH
  005a1	c7 85 90 fd ff
	ff 80 89 b4 8f	 mov	 DWORD PTR __k$534814[ebp+8], -1883993728 ; 8fb48980H
  005ab	c7 85 94 fd ff
	ff 9b 89 85 9e	 mov	 DWORD PTR __k$534814[ebp+12], -1635415653 ; 9e85899bH
  005b5	c7 85 98 fd ff
	ff b2 9f 88 8b	 mov	 DWORD PTR __k$534814[ebp+16], -1953980494 ; 8b889fb2H
  005bf	66 c7 85 9c fd
	ff ff 81 89	 mov	 WORD PTR __k$534814[ebp+20], 35201 ; 00008981H
  005c8	8d 85 88 fd ff
	ff		 lea	 eax, DWORD PTR __k$534814[ebp]
  005ce	88 9d 9e fd ff
	ff		 mov	 BYTE PTR __k$534814[ebp+22], bl
  005d4	8b cf		 mov	 ecx, edi
$LL1594@LoadStatic:
  005d6	81 30 ed ec eb
	ea		 xor	 DWORD PTR [eax], -353637139 ; eaebecedH
  005dc	83 c0 04	 add	 eax, 4
  005df	49		 dec	 ecx
  005e0	75 f4		 jne	 SHORT $LL1594@LoadStatic
  005e2	6a 14		 push	 20			; 00000014H
  005e4	58		 pop	 eax
$LL1591@LoadStatic:
  005e5	8b c8		 mov	 ecx, eax
  005e7	81 e1 03 00 00
	80		 and	 ecx, -2147483645	; 80000003H
  005ed	79 05		 jns	 SHORT $LN3886@LoadStatic
  005ef	49		 dec	 ecx
  005f0	83 c9 fc	 or	 ecx, -4			; fffffffcH
  005f3	41		 inc	 ecx
$LN3886@LoadStatic:
  005f4	b2 ed		 mov	 dl, -19			; ffffffedH
  005f6	2a d1		 sub	 dl, cl
  005f8	30 94 05 88 fd
	ff ff		 xor	 BYTE PTR __k$534814[ebp+eax], dl
  005ff	40		 inc	 eax
  00600	83 f8 16	 cmp	 eax, 22			; 00000016H
  00603	7c e0		 jl	 SHORT $LL1591@LoadStatic
  00605	f3 0f 10 05 00
	00 00 00	 movss	 xmm0, DWORD PTR __real@3f400000
  0060d	51		 push	 ecx
  0060e	8d 85 88 fd ff
	ff		 lea	 eax, DWORD PTR __k$534814[ebp]
  00614	f3 0f 11 04 24	 movss	 DWORD PTR [esp], xmm0
  00619	50		 push	 eax
  0061a	8d 8d 0c f8 ff
	ff		 lea	 ecx, DWORD PTR _kLoader$[ebp]
  00620	ff 15 00 00 00
	00		 call	 DWORD PTR __imp_?LoadFloat@ioINILoader@@QAEMPBDM@Z
  00626	d9 1d 00 00 00
	00		 fstp	 DWORD PTR ?m_fOwnerGameEventScale@ioCharEmoticon@@1MA ; ioCharEmoticon::m_fOwnerGameEventScale

; 173  : 	m_fOwnerSkillBuffScale = kLoader.LoadFloat_e( "owner_skill_buff_scale", 0.75f );

  0062c	c7 85 a4 fd ff
	ff 82 9b 85 8f	 mov	 DWORD PTR __k$534939[ebp], -1887069310 ; 8f859b82H
  00636	c7 85 a8 fd ff
	ff 9f b3 98 81	 mov	 DWORD PTR __k$534939[ebp+4], -2120698977 ; 8198b39fH
  00640	c7 85 ac fd ff
	ff 84 80 87 b5	 mov	 DWORD PTR __k$534939[ebp+8], -1249410940 ; b5878084H
  0064a	c7 85 b0 fd ff
	ff 8f 99 8d 8c	 mov	 DWORD PTR __k$534939[ebp+12], -1936877169 ; 8c8d998fH
  00654	c7 85 b4 fd ff
	ff b2 9f 88 8b	 mov	 DWORD PTR __k$534939[ebp+16], -1953980494 ; 8b889fb2H
  0065e	66 c7 85 b8 fd
	ff ff 81 89	 mov	 WORD PTR __k$534939[ebp+20], 35201 ; 00008981H
  00667	8d 85 a4 fd ff
	ff		 lea	 eax, DWORD PTR __k$534939[ebp]
  0066d	88 9d ba fd ff
	ff		 mov	 BYTE PTR __k$534939[ebp+22], bl
  00673	8b cf		 mov	 ecx, edi
$LL1700@LoadStatic:
  00675	81 30 ed ec eb
	ea		 xor	 DWORD PTR [eax], -353637139 ; eaebecedH
  0067b	83 c0 04	 add	 eax, 4
  0067e	49		 dec	 ecx
  0067f	75 f4		 jne	 SHORT $LL1700@LoadStatic
  00681	6a 14		 push	 20			; 00000014H
  00683	58		 pop	 eax
$LL1697@LoadStatic:
  00684	8b c8		 mov	 ecx, eax
  00686	81 e1 03 00 00
	80		 and	 ecx, -2147483645	; 80000003H
  0068c	79 05		 jns	 SHORT $LN3887@LoadStatic
  0068e	49		 dec	 ecx
  0068f	83 c9 fc	 or	 ecx, -4			; fffffffcH
  00692	41		 inc	 ecx
$LN3887@LoadStatic:
  00693	b2 ed		 mov	 dl, -19			; ffffffedH
  00695	2a d1		 sub	 dl, cl
  00697	30 94 05 a4 fd
	ff ff		 xor	 BYTE PTR __k$534939[ebp+eax], dl
  0069e	40		 inc	 eax
  0069f	83 f8 16	 cmp	 eax, 22			; 00000016H
  006a2	7c e0		 jl	 SHORT $LL1697@LoadStatic
  006a4	f3 0f 10 05 00
	00 00 00	 movss	 xmm0, DWORD PTR __real@3f400000
  006ac	51		 push	 ecx
  006ad	8d 85 a4 fd ff
	ff		 lea	 eax, DWORD PTR __k$534939[ebp]
  006b3	f3 0f 11 04 24	 movss	 DWORD PTR [esp], xmm0
  006b8	50		 push	 eax
  006b9	8d 8d 0c f8 ff
	ff		 lea	 ecx, DWORD PTR _kLoader$[ebp]
  006bf	ff 15 00 00 00
	00		 call	 DWORD PTR __imp_?LoadFloat@ioINILoader@@QAEMPBDM@Z
  006c5	d9 1d 00 00 00
	00		 fstp	 DWORD PTR ?m_fOwnerSkillBuffScale@ioCharEmoticon@@1MA ; ioCharEmoticon::m_fOwnerSkillBuffScale

; 174  : 	m_fOwnerBadStateScale  = kLoader.LoadFloat_e( "owner_bad_state_scale", 0.75f );

  006cb	c7 85 14 fe ff
	ff 82 9b 85 8f	 mov	 DWORD PTR __k$535064[ebp], -1887069310 ; 8f859b82H
  006d5	c7 85 18 fe ff
	ff 9f b3 89 8b	 mov	 DWORD PTR __k$535064[ebp+4], -1953909857 ; 8b89b39fH
  006df	c7 85 1c fe ff
	ff 89 b3 98 9e	 mov	 DWORD PTR __k$535064[ebp+8], -1634159735 ; 9e98b389H
  006e9	c7 85 20 fe ff
	ff 8c 98 8e b5	 mov	 DWORD PTR __k$535064[ebp+12], -1248946036 ; b58e988cH
  006f3	c7 85 24 fe ff
	ff 9e 8f 8a 86	 mov	 DWORD PTR __k$535064[ebp+16], -2037739618 ; 868a8f9eH
  006fd	8d 85 14 fe ff
	ff		 lea	 eax, DWORD PTR __k$535064[ebp]
  00703	66 c7 85 28 fe
	ff ff 88 00	 mov	 WORD PTR __k$535064[ebp+20], 136 ; 00000088H
  0070c	8b cf		 mov	 ecx, edi
$LL1806@LoadStatic:
  0070e	81 30 ed ec eb
	ea		 xor	 DWORD PTR [eax], -353637139 ; eaebecedH
  00714	83 c0 04	 add	 eax, 4
  00717	49		 dec	 ecx
  00718	75 f4		 jne	 SHORT $LL1806@LoadStatic
  0071a	f3 0f 10 05 00
	00 00 00	 movss	 xmm0, DWORD PTR __real@3f400000
  00722	80 b5 28 fe ff
	ff ed		 xor	 BYTE PTR __k$535064[ebp+20], -19 ; ffffffedH
  00729	51		 push	 ecx
  0072a	8d 85 14 fe ff
	ff		 lea	 eax, DWORD PTR __k$535064[ebp]
  00730	f3 0f 11 04 24	 movss	 DWORD PTR [esp], xmm0
  00735	50		 push	 eax
  00736	8d 8d 0c f8 ff
	ff		 lea	 ecx, DWORD PTR _kLoader$[ebp]
  0073c	ff 15 00 00 00
	00		 call	 DWORD PTR __imp_?LoadFloat@ioINILoader@@QAEMPBDM@Z
  00742	d9 1d 00 00 00
	00		 fstp	 DWORD PTR ?m_fOwnerBadStateScale@ioCharEmoticon@@1MA ; ioCharEmoticon::m_fOwnerBadStateScale

; 175  : 	m_fOwnerMovieEventScale  = kLoader.LoadFloat_e( "owner_movie_event_scale", 0.75f );

  00748	c7 85 18 fd ff
	ff 82 9b 85 8f	 mov	 DWORD PTR __k$535176[ebp], -1887069310 ; 8f859b82H
  00752	c7 85 1c fd ff
	ff 9f b3 86 85	 mov	 DWORD PTR __k$535176[ebp+4], -2054769761 ; 8586b39fH
  0075c	c7 85 20 fd ff
	ff 9b 85 8e b5	 mov	 DWORD PTR __k$535176[ebp+8], -1248950885 ; b58e859bH
  00766	c7 85 24 fd ff
	ff 88 9a 8e 84	 mov	 DWORD PTR __k$535176[ebp+12], -2071029112 ; 848e9a88H
  00770	c7 85 28 fd ff
	ff 99 b3 98 89	 mov	 DWORD PTR __k$535176[ebp+16], -1986481255 ; 8998b399H
  0077a	8d 85 18 fd ff
	ff		 lea	 eax, DWORD PTR __k$535176[ebp]
  00780	c7 85 2c fd ff
	ff 8c 80 8e 00	 mov	 DWORD PTR __k$535176[ebp+20], 9339020 ; 008e808cH
  0078a	8b cf		 mov	 ecx, edi
$LL1912@LoadStatic:
  0078c	81 30 ed ec eb
	ea		 xor	 DWORD PTR [eax], -353637139 ; eaebecedH
  00792	83 c0 04	 add	 eax, 4
  00795	49		 dec	 ecx
  00796	75 f4		 jne	 SHORT $LL1912@LoadStatic
  00798	6a 14		 push	 20			; 00000014H
  0079a	58		 pop	 eax
$LL1909@LoadStatic:
  0079b	8b c8		 mov	 ecx, eax
  0079d	81 e1 03 00 00
	80		 and	 ecx, -2147483645	; 80000003H
  007a3	79 05		 jns	 SHORT $LN3888@LoadStatic
  007a5	49		 dec	 ecx
  007a6	83 c9 fc	 or	 ecx, -4			; fffffffcH
  007a9	41		 inc	 ecx
$LN3888@LoadStatic:
  007aa	b2 ed		 mov	 dl, -19			; ffffffedH
  007ac	2a d1		 sub	 dl, cl
  007ae	30 94 05 18 fd
	ff ff		 xor	 BYTE PTR __k$535176[ebp+eax], dl
  007b5	40		 inc	 eax
  007b6	83 f8 17	 cmp	 eax, 23			; 00000017H
  007b9	7c e0		 jl	 SHORT $LL1909@LoadStatic
  007bb	f3 0f 10 05 00
	00 00 00	 movss	 xmm0, DWORD PTR __real@3f400000
  007c3	51		 push	 ecx
  007c4	8d 85 18 fd ff
	ff		 lea	 eax, DWORD PTR __k$535176[ebp]
  007ca	f3 0f 11 04 24	 movss	 DWORD PTR [esp], xmm0
  007cf	50		 push	 eax
  007d0	8d 8d 0c f8 ff
	ff		 lea	 ecx, DWORD PTR _kLoader$[ebp]
  007d6	ff 15 00 00 00
	00		 call	 DWORD PTR __imp_?LoadFloat@ioINILoader@@QAEMPBDM@Z
  007dc	d9 1d 00 00 00
	00		 fstp	 DWORD PTR ?m_fOwnerMovieEventScale@ioCharEmoticon@@1MA ; ioCharEmoticon::m_fOwnerMovieEventScale

; 176  : 
; 177  : 	m_fOtherGameEventScale = kLoader.LoadFloat_e( "other_game_event_scale", 0.75f );

  007e2	c7 85 6c fd ff
	ff 82 98 83 8f	 mov	 DWORD PTR __k$535301[ebp], -1887201150 ; 8f839882H
  007ec	c7 85 70 fd ff
	ff 9f b3 8c 8b	 mov	 DWORD PTR __k$535301[ebp+4], -1953713249 ; 8b8cb39fH
  007f6	c7 85 74 fd ff
	ff 80 89 b4 8f	 mov	 DWORD PTR __k$535301[ebp+8], -1883993728 ; 8fb48980H
  00800	c7 85 78 fd ff
	ff 9b 89 85 9e	 mov	 DWORD PTR __k$535301[ebp+12], -1635415653 ; 9e85899bH
  0080a	c7 85 7c fd ff
	ff b2 9f 88 8b	 mov	 DWORD PTR __k$535301[ebp+16], -1953980494 ; 8b889fb2H
  00814	66 c7 85 80 fd
	ff ff 81 89	 mov	 WORD PTR __k$535301[ebp+20], 35201 ; 00008981H
  0081d	8d 85 6c fd ff
	ff		 lea	 eax, DWORD PTR __k$535301[ebp]
  00823	88 9d 82 fd ff
	ff		 mov	 BYTE PTR __k$535301[ebp+22], bl
  00829	8b cf		 mov	 ecx, edi
$LL2018@LoadStatic:
  0082b	81 30 ed ec eb
	ea		 xor	 DWORD PTR [eax], -353637139 ; eaebecedH
  00831	83 c0 04	 add	 eax, 4
  00834	49		 dec	 ecx
  00835	75 f4		 jne	 SHORT $LL2018@LoadStatic
  00837	6a 14		 push	 20			; 00000014H
  00839	58		 pop	 eax
$LL2015@LoadStatic:
  0083a	8b c8		 mov	 ecx, eax
  0083c	81 e1 03 00 00
	80		 and	 ecx, -2147483645	; 80000003H
  00842	79 05		 jns	 SHORT $LN3889@LoadStatic
  00844	49		 dec	 ecx
  00845	83 c9 fc	 or	 ecx, -4			; fffffffcH
  00848	41		 inc	 ecx
$LN3889@LoadStatic:
  00849	b2 ed		 mov	 dl, -19			; ffffffedH
  0084b	2a d1		 sub	 dl, cl
  0084d	30 94 05 6c fd
	ff ff		 xor	 BYTE PTR __k$535301[ebp+eax], dl
  00854	40		 inc	 eax
  00855	83 f8 16	 cmp	 eax, 22			; 00000016H
  00858	7c e0		 jl	 SHORT $LL2015@LoadStatic
  0085a	f3 0f 10 05 00
	00 00 00	 movss	 xmm0, DWORD PTR __real@3f400000
  00862	51		 push	 ecx
  00863	8d 85 6c fd ff
	ff		 lea	 eax, DWORD PTR __k$535301[ebp]
  00869	f3 0f 11 04 24	 movss	 DWORD PTR [esp], xmm0
  0086e	50		 push	 eax
  0086f	8d 8d 0c f8 ff
	ff		 lea	 ecx, DWORD PTR _kLoader$[ebp]
  00875	ff 15 00 00 00
	00		 call	 DWORD PTR __imp_?LoadFloat@ioINILoader@@QAEMPBDM@Z
  0087b	d9 1d 00 00 00
	00		 fstp	 DWORD PTR ?m_fOtherGameEventScale@ioCharEmoticon@@1MA ; ioCharEmoticon::m_fOtherGameEventScale

; 178  : 	m_fOtherSkillBuffScale = kLoader.LoadFloat_e( "other_skill_buff_scale", 0.75f );

  00881	c7 85 c0 fd ff
	ff 82 98 83 8f	 mov	 DWORD PTR __k$535426[ebp], -1887201150 ; 8f839882H
  0088b	c7 85 c4 fd ff
	ff 9f b3 98 81	 mov	 DWORD PTR __k$535426[ebp+4], -2120698977 ; 8198b39fH
  00895	c7 85 c8 fd ff
	ff 84 80 87 b5	 mov	 DWORD PTR __k$535426[ebp+8], -1249410940 ; b5878084H
  0089f	c7 85 cc fd ff
	ff 8f 99 8d 8c	 mov	 DWORD PTR __k$535426[ebp+12], -1936877169 ; 8c8d998fH
  008a9	c7 85 d0 fd ff
	ff b2 9f 88 8b	 mov	 DWORD PTR __k$535426[ebp+16], -1953980494 ; 8b889fb2H
  008b3	66 c7 85 d4 fd
	ff ff 81 89	 mov	 WORD PTR __k$535426[ebp+20], 35201 ; 00008981H
  008bc	8d 85 c0 fd ff
	ff		 lea	 eax, DWORD PTR __k$535426[ebp]
  008c2	88 9d d6 fd ff
	ff		 mov	 BYTE PTR __k$535426[ebp+22], bl
  008c8	8b cf		 mov	 ecx, edi
$LL2124@LoadStatic:
  008ca	81 30 ed ec eb
	ea		 xor	 DWORD PTR [eax], -353637139 ; eaebecedH
  008d0	83 c0 04	 add	 eax, 4
  008d3	49		 dec	 ecx
  008d4	75 f4		 jne	 SHORT $LL2124@LoadStatic
  008d6	6a 14		 push	 20			; 00000014H
  008d8	58		 pop	 eax
$LL2121@LoadStatic:
  008d9	8b c8		 mov	 ecx, eax
  008db	81 e1 03 00 00
	80		 and	 ecx, -2147483645	; 80000003H
  008e1	79 05		 jns	 SHORT $LN3890@LoadStatic
  008e3	49		 dec	 ecx
  008e4	83 c9 fc	 or	 ecx, -4			; fffffffcH
  008e7	41		 inc	 ecx
$LN3890@LoadStatic:
  008e8	b2 ed		 mov	 dl, -19			; ffffffedH
  008ea	2a d1		 sub	 dl, cl
  008ec	30 94 05 c0 fd
	ff ff		 xor	 BYTE PTR __k$535426[ebp+eax], dl
  008f3	40		 inc	 eax
  008f4	83 f8 16	 cmp	 eax, 22			; 00000016H
  008f7	7c e0		 jl	 SHORT $LL2121@LoadStatic
  008f9	f3 0f 10 05 00
	00 00 00	 movss	 xmm0, DWORD PTR __real@3f400000
  00901	51		 push	 ecx
  00902	8d 85 c0 fd ff
	ff		 lea	 eax, DWORD PTR __k$535426[ebp]
  00908	f3 0f 11 04 24	 movss	 DWORD PTR [esp], xmm0
  0090d	50		 push	 eax
  0090e	8d 8d 0c f8 ff
	ff		 lea	 ecx, DWORD PTR _kLoader$[ebp]
  00914	ff 15 00 00 00
	00		 call	 DWORD PTR __imp_?LoadFloat@ioINILoader@@QAEMPBDM@Z
  0091a	d9 1d 00 00 00
	00		 fstp	 DWORD PTR ?m_fOtherSkillBuffScale@ioCharEmoticon@@1MA ; ioCharEmoticon::m_fOtherSkillBuffScale

; 179  : 	m_fOtherBadStateScale  = kLoader.LoadFloat_e( "other_bad_state_scale", 0.75f );

  00920	c7 85 84 fe ff
	ff 82 98 83 8f	 mov	 DWORD PTR __k$535551[ebp], -1887201150 ; 8f839882H
  0092a	c7 85 88 fe ff
	ff 9f b3 89 8b	 mov	 DWORD PTR __k$535551[ebp+4], -1953909857 ; 8b89b39fH
  00934	c7 85 8c fe ff
	ff 89 b3 98 9e	 mov	 DWORD PTR __k$535551[ebp+8], -1634159735 ; 9e98b389H
  0093e	c7 85 90 fe ff
	ff 8c 98 8e b5	 mov	 DWORD PTR __k$535551[ebp+12], -1248946036 ; b58e988cH
  00948	c7 85 94 fe ff
	ff 9e 8f 8a 86	 mov	 DWORD PTR __k$535551[ebp+16], -2037739618 ; 868a8f9eH
  00952	8d 85 84 fe ff
	ff		 lea	 eax, DWORD PTR __k$535551[ebp]
  00958	66 c7 85 98 fe
	ff ff 88 00	 mov	 WORD PTR __k$535551[ebp+20], 136 ; 00000088H
  00961	8b cf		 mov	 ecx, edi
$LL2230@LoadStatic:
  00963	81 30 ed ec eb
	ea		 xor	 DWORD PTR [eax], -353637139 ; eaebecedH
  00969	83 c0 04	 add	 eax, 4
  0096c	49		 dec	 ecx
  0096d	75 f4		 jne	 SHORT $LL2230@LoadStatic
  0096f	f3 0f 10 05 00
	00 00 00	 movss	 xmm0, DWORD PTR __real@3f400000
  00977	80 b5 98 fe ff
	ff ed		 xor	 BYTE PTR __k$535551[ebp+20], -19 ; ffffffedH
  0097e	51		 push	 ecx
  0097f	8d 85 84 fe ff
	ff		 lea	 eax, DWORD PTR __k$535551[ebp]
  00985	f3 0f 11 04 24	 movss	 DWORD PTR [esp], xmm0
  0098a	50		 push	 eax
  0098b	8d 8d 0c f8 ff
	ff		 lea	 ecx, DWORD PTR _kLoader$[ebp]
  00991	ff 15 00 00 00
	00		 call	 DWORD PTR __imp_?LoadFloat@ioINILoader@@QAEMPBDM@Z
  00997	d9 1d 00 00 00
	00		 fstp	 DWORD PTR ?m_fOtherBadStateScale@ioCharEmoticon@@1MA ; ioCharEmoticon::m_fOtherBadStateScale

; 180  : 	m_fOtherMovieEventScale  = kLoader.LoadFloat_e( "other_movie_event_scale", 0.75f );

  0099d	c7 85 50 fd ff
	ff 82 98 83 8f	 mov	 DWORD PTR __k$535689[ebp], -1887201150 ; 8f839882H
  009a7	c7 85 54 fd ff
	ff 9f b3 86 85	 mov	 DWORD PTR __k$535689[ebp+4], -2054769761 ; 8586b39fH
  009b1	c7 85 58 fd ff
	ff 9b 85 8e b5	 mov	 DWORD PTR __k$535689[ebp+8], -1248950885 ; b58e859bH
  009bb	c7 85 5c fd ff
	ff 88 9a 8e 84	 mov	 DWORD PTR __k$535689[ebp+12], -2071029112 ; 848e9a88H
  009c5	c7 85 60 fd ff
	ff 99 b3 98 89	 mov	 DWORD PTR __k$535689[ebp+16], -1986481255 ; 8998b399H
  009cf	8d 85 50 fd ff
	ff		 lea	 eax, DWORD PTR __k$535689[ebp]
  009d5	c7 85 64 fd ff
	ff 8c 80 8e 00	 mov	 DWORD PTR __k$535689[ebp+20], 9339020 ; 008e808cH
  009df	8b cf		 mov	 ecx, edi
$LL2336@LoadStatic:
  009e1	81 30 ed ec eb
	ea		 xor	 DWORD PTR [eax], -353637139 ; eaebecedH
  009e7	83 c0 04	 add	 eax, 4
  009ea	49		 dec	 ecx
  009eb	75 f4		 jne	 SHORT $LL2336@LoadStatic
  009ed	6a 14		 push	 20			; 00000014H
  009ef	58		 pop	 eax
$LL2333@LoadStatic:
  009f0	8b c8		 mov	 ecx, eax
  009f2	81 e1 03 00 00
	80		 and	 ecx, -2147483645	; 80000003H
  009f8	79 05		 jns	 SHORT $LN3891@LoadStatic
  009fa	49		 dec	 ecx
  009fb	83 c9 fc	 or	 ecx, -4			; fffffffcH
  009fe	41		 inc	 ecx
$LN3891@LoadStatic:
  009ff	b2 ed		 mov	 dl, -19			; ffffffedH
  00a01	2a d1		 sub	 dl, cl
  00a03	30 94 05 50 fd
	ff ff		 xor	 BYTE PTR __k$535689[ebp+eax], dl
  00a0a	40		 inc	 eax
  00a0b	83 f8 17	 cmp	 eax, 23			; 00000017H
  00a0e	7c e0		 jl	 SHORT $LL2333@LoadStatic
  00a10	f3 0f 10 05 00
	00 00 00	 movss	 xmm0, DWORD PTR __real@3f400000
  00a18	51		 push	 ecx
  00a19	8d 85 50 fd ff
	ff		 lea	 eax, DWORD PTR __k$535689[ebp]
  00a1f	f3 0f 11 04 24	 movss	 DWORD PTR [esp], xmm0
  00a24	50		 push	 eax
  00a25	8d 8d 0c f8 ff
	ff		 lea	 ecx, DWORD PTR _kLoader$[ebp]
  00a2b	ff 15 00 00 00
	00		 call	 DWORD PTR __imp_?LoadFloat@ioINILoader@@QAEMPBDM@Z
  00a31	d9 1d 00 00 00
	00		 fstp	 DWORD PTR ?m_fOtherMovieEventScale@ioCharEmoticon@@1MA ; ioCharEmoticon::m_fOtherMovieEventScale

; 181  : 
; 182  : 	m_dwOwnerGameEventTime = kLoader.LoadInt_e( "owner_game_event_time", 200 );

  00a37	c7 85 30 fe ff
	ff 82 9b 85 8f	 mov	 DWORD PTR __k$535801[ebp], -1887069310 ; 8f859b82H
  00a41	c7 85 34 fe ff
	ff 9f b3 8c 8b	 mov	 DWORD PTR __k$535801[ebp+4], -1953713249 ; 8b8cb39fH
  00a4b	c7 85 38 fe ff
	ff 80 89 b4 8f	 mov	 DWORD PTR __k$535801[ebp+8], -1883993728 ; 8fb48980H
  00a55	c7 85 3c fe ff
	ff 9b 89 85 9e	 mov	 DWORD PTR __k$535801[ebp+12], -1635415653 ; 9e85899bH
  00a5f	c7 85 40 fe ff
	ff b2 98 82 87	 mov	 DWORD PTR __k$535801[ebp+16], -2021484366 ; 878298b2H
  00a69	8d 85 30 fe ff
	ff		 lea	 eax, DWORD PTR __k$535801[ebp]
  00a6f	66 c7 85 44 fe
	ff ff 88 00	 mov	 WORD PTR __k$535801[ebp+20], 136 ; 00000088H
  00a78	8b cf		 mov	 ecx, edi
$LL2442@LoadStatic:
  00a7a	81 30 ed ec eb
	ea		 xor	 DWORD PTR [eax], -353637139 ; eaebecedH
  00a80	83 c0 04	 add	 eax, 4
  00a83	49		 dec	 ecx
  00a84	75 f4		 jne	 SHORT $LL2442@LoadStatic
  00a86	80 b5 44 fe ff
	ff ed		 xor	 BYTE PTR __k$535801[ebp+20], -19 ; ffffffedH
  00a8d	68 c8 00 00 00	 push	 200			; 000000c8H
  00a92	8d 85 30 fe ff
	ff		 lea	 eax, DWORD PTR __k$535801[ebp]
  00a98	50		 push	 eax
  00a99	8d 8d 0c f8 ff
	ff		 lea	 ecx, DWORD PTR _kLoader$[ebp]
  00a9f	ff d6		 call	 esi
  00aa1	a3 00 00 00 00	 mov	 DWORD PTR ?m_dwOwnerGameEventTime@ioCharEmoticon@@1KA, eax ; ioCharEmoticon::m_dwOwnerGameEventTime

; 183  : 	m_dwOwnerSkillBuffTime = kLoader.LoadInt_e( "owner_skill_buff_time", FLOAT100 );

  00aa6	b8 64 00 00 00	 mov	 eax, 100		; 00000064H
  00aab	c7 85 f8 fd ff
	ff 82 9b 85 8f	 mov	 DWORD PTR __k$535930[ebp], -1887069310 ; 8f859b82H
  00ab5	c7 85 fc fd ff
	ff 9f b3 98 81	 mov	 DWORD PTR __k$535930[ebp+4], -2120698977 ; 8198b39fH
  00abf	c7 85 00 fe ff
	ff 84 80 87 b5	 mov	 DWORD PTR __k$535930[ebp+8], -1249410940 ; b5878084H
  00ac9	c7 85 04 fe ff
	ff 8f 99 8d 8c	 mov	 DWORD PTR __k$535930[ebp+12], -1936877169 ; 8c8d998fH
  00ad3	c7 85 08 fe ff
	ff b2 98 82 87	 mov	 DWORD PTR __k$535930[ebp+16], -2021484366 ; 878298b2H
  00add	8d 8d f8 fd ff
	ff		 lea	 ecx, DWORD PTR __k$535930[ebp]
  00ae3	66 c7 85 0c fe
	ff ff 88 00	 mov	 WORD PTR __k$535930[ebp+20], 136 ; 00000088H
  00aec	8b d7		 mov	 edx, edi
$LL2550@LoadStatic:
  00aee	81 31 ed ec eb
	ea		 xor	 DWORD PTR [ecx], -353637139 ; eaebecedH
  00af4	83 c1 04	 add	 ecx, 4
  00af7	4a		 dec	 edx
  00af8	75 f4		 jne	 SHORT $LL2550@LoadStatic
  00afa	80 b5 0c fe ff
	ff ed		 xor	 BYTE PTR __k$535930[ebp+20], -19 ; ffffffedH
  00b01	89 85 08 f8 ff
	ff		 mov	 DWORD PTR tv32953[ebp], eax
  00b07	db 85 08 f8 ff
	ff		 fild	 DWORD PTR tv32953[ebp]
  00b0d	85 c0		 test	 eax, eax
  00b0f	79 06		 jns	 SHORT $LN3892@LoadStatic
  00b11	d8 05 00 00 00
	00		 fadd	 DWORD PTR __real@4f800000
$LN3892@LoadStatic:
  00b17	e8 00 00 00 00	 call	 __ftol2_sse
  00b1c	50		 push	 eax
  00b1d	8d 85 f8 fd ff
	ff		 lea	 eax, DWORD PTR __k$535930[ebp]
  00b23	50		 push	 eax
  00b24	8d 8d 0c f8 ff
	ff		 lea	 ecx, DWORD PTR _kLoader$[ebp]
  00b2a	ff d6		 call	 esi
  00b2c	a3 00 00 00 00	 mov	 DWORD PTR ?m_dwOwnerSkillBuffTime@ioCharEmoticon@@1KA, eax ; ioCharEmoticon::m_dwOwnerSkillBuffTime

; 184  : 	m_dwOwnerBadStateTime  = kLoader.LoadInt_e( "owner_bad_state_time", FLOAT100 );

  00b31	b8 64 00 00 00	 mov	 eax, 100		; 00000064H
  00b36	c7 85 fc fc ff
	ff 82 9b 85 8f	 mov	 DWORD PTR __k$536100[ebp], -1887069310 ; 8f859b82H
  00b40	c7 85 00 fd ff
	ff 9f b3 89 8b	 mov	 DWORD PTR __k$536100[ebp+4], -1953909857 ; 8b89b39fH
  00b4a	c7 85 04 fd ff
	ff 89 b3 98 9e	 mov	 DWORD PTR __k$536100[ebp+8], -1634159735 ; 9e98b389H
  00b54	c7 85 08 fd ff
	ff 8c 98 8e b5	 mov	 DWORD PTR __k$536100[ebp+12], -1248946036 ; b58e988cH
  00b5e	c7 85 0c fd ff
	ff 99 85 86 8f	 mov	 DWORD PTR __k$536100[ebp+16], -1887009383 ; 8f868599H
  00b68	8d 8d fc fc ff
	ff		 lea	 ecx, DWORD PTR __k$536100[ebp]
  00b6e	88 9d 10 fd ff
	ff		 mov	 BYTE PTR __k$536100[ebp+20], bl
  00b74	8b d7		 mov	 edx, edi
$LL2658@LoadStatic:
  00b76	81 31 ed ec eb
	ea		 xor	 DWORD PTR [ecx], -353637139 ; eaebecedH
  00b7c	83 c1 04	 add	 ecx, 4
  00b7f	4a		 dec	 edx
  00b80	75 f4		 jne	 SHORT $LL2658@LoadStatic
  00b82	89 85 08 f8 ff
	ff		 mov	 DWORD PTR tv32944[ebp], eax
  00b88	db 85 08 f8 ff
	ff		 fild	 DWORD PTR tv32944[ebp]
  00b8e	85 c0		 test	 eax, eax
  00b90	79 06		 jns	 SHORT $LN3893@LoadStatic
  00b92	d8 05 00 00 00
	00		 fadd	 DWORD PTR __real@4f800000
$LN3893@LoadStatic:
  00b98	e8 00 00 00 00	 call	 __ftol2_sse
  00b9d	50		 push	 eax
  00b9e	8d 85 fc fc ff
	ff		 lea	 eax, DWORD PTR __k$536100[ebp]
  00ba4	50		 push	 eax
  00ba5	8d 8d 0c f8 ff
	ff		 lea	 ecx, DWORD PTR _kLoader$[ebp]
  00bab	ff d6		 call	 esi
  00bad	a3 00 00 00 00	 mov	 DWORD PTR ?m_dwOwnerBadStateTime@ioCharEmoticon@@1KA, eax ; ioCharEmoticon::m_dwOwnerBadStateTime

; 185  : 
; 186  : 	m_dwOtherGameEventTime = kLoader.LoadInt_e( "other_game_event_time", FLOAT100 );

  00bb2	b8 64 00 00 00	 mov	 eax, 100		; 00000064H
  00bb7	c7 85 dc fd ff
	ff 82 98 83 8f	 mov	 DWORD PTR __k$536188[ebp], -1887201150 ; 8f839882H
  00bc1	c7 85 e0 fd ff
	ff 9f b3 8c 8b	 mov	 DWORD PTR __k$536188[ebp+4], -1953713249 ; 8b8cb39fH
  00bcb	c7 85 e4 fd ff
	ff 80 89 b4 8f	 mov	 DWORD PTR __k$536188[ebp+8], -1883993728 ; 8fb48980H
  00bd5	c7 85 e8 fd ff
	ff 9b 89 85 9e	 mov	 DWORD PTR __k$536188[ebp+12], -1635415653 ; 9e85899bH
  00bdf	c7 85 ec fd ff
	ff b2 98 82 87	 mov	 DWORD PTR __k$536188[ebp+16], -2021484366 ; 878298b2H
  00be9	8d 8d dc fd ff
	ff		 lea	 ecx, DWORD PTR __k$536188[ebp]
  00bef	66 c7 85 f0 fd
	ff ff 88 00	 mov	 WORD PTR __k$536188[ebp+20], 136 ; 00000088H
  00bf8	8b d7		 mov	 edx, edi
$LL2766@LoadStatic:
  00bfa	81 31 ed ec eb
	ea		 xor	 DWORD PTR [ecx], -353637139 ; eaebecedH
  00c00	83 c1 04	 add	 ecx, 4
  00c03	4a		 dec	 edx
  00c04	75 f4		 jne	 SHORT $LL2766@LoadStatic
  00c06	80 b5 f0 fd ff
	ff ed		 xor	 BYTE PTR __k$536188[ebp+20], -19 ; ffffffedH
  00c0d	89 85 08 f8 ff
	ff		 mov	 DWORD PTR tv32935[ebp], eax
  00c13	db 85 08 f8 ff
	ff		 fild	 DWORD PTR tv32935[ebp]
  00c19	85 c0		 test	 eax, eax
  00c1b	79 06		 jns	 SHORT $LN3894@LoadStatic
  00c1d	d8 05 00 00 00
	00		 fadd	 DWORD PTR __real@4f800000
$LN3894@LoadStatic:
  00c23	e8 00 00 00 00	 call	 __ftol2_sse
  00c28	50		 push	 eax
  00c29	8d 85 dc fd ff
	ff		 lea	 eax, DWORD PTR __k$536188[ebp]
  00c2f	50		 push	 eax
  00c30	8d 8d 0c f8 ff
	ff		 lea	 ecx, DWORD PTR _kLoader$[ebp]
  00c36	ff d6		 call	 esi
  00c38	a3 00 00 00 00	 mov	 DWORD PTR ?m_dwOtherGameEventTime@ioCharEmoticon@@1KA, eax ; ioCharEmoticon::m_dwOtherGameEventTime

; 187  : 	m_dwOtherSkillBuffTime = kLoader.LoadInt_e( "other_skill_buff_time", FLOAT100 );

  00c3d	b8 64 00 00 00	 mov	 eax, 100		; 00000064H
  00c42	c7 85 4c fe ff
	ff 82 98 83 8f	 mov	 DWORD PTR __k$536317[ebp], -1887201150 ; 8f839882H
  00c4c	c7 85 50 fe ff
	ff 9f b3 98 81	 mov	 DWORD PTR __k$536317[ebp+4], -2120698977 ; 8198b39fH
  00c56	c7 85 54 fe ff
	ff 84 80 87 b5	 mov	 DWORD PTR __k$536317[ebp+8], -1249410940 ; b5878084H
  00c60	c7 85 58 fe ff
	ff 8f 99 8d 8c	 mov	 DWORD PTR __k$536317[ebp+12], -1936877169 ; 8c8d998fH
  00c6a	c7 85 5c fe ff
	ff b2 98 82 87	 mov	 DWORD PTR __k$536317[ebp+16], -2021484366 ; 878298b2H
  00c74	8d 8d 4c fe ff
	ff		 lea	 ecx, DWORD PTR __k$536317[ebp]
  00c7a	66 c7 85 60 fe
	ff ff 88 00	 mov	 WORD PTR __k$536317[ebp+20], 136 ; 00000088H
  00c83	8b d7		 mov	 edx, edi
$LL2874@LoadStatic:
  00c85	81 31 ed ec eb
	ea		 xor	 DWORD PTR [ecx], -353637139 ; eaebecedH
  00c8b	83 c1 04	 add	 ecx, 4
  00c8e	4a		 dec	 edx
  00c8f	75 f4		 jne	 SHORT $LL2874@LoadStatic
  00c91	80 b5 60 fe ff
	ff ed		 xor	 BYTE PTR __k$536317[ebp+20], -19 ; ffffffedH
  00c98	89 85 08 f8 ff
	ff		 mov	 DWORD PTR tv32926[ebp], eax
  00c9e	db 85 08 f8 ff
	ff		 fild	 DWORD PTR tv32926[ebp]
  00ca4	85 c0		 test	 eax, eax
  00ca6	79 06		 jns	 SHORT $LN3895@LoadStatic
  00ca8	d8 05 00 00 00
	00		 fadd	 DWORD PTR __real@4f800000
$LN3895@LoadStatic:
  00cae	e8 00 00 00 00	 call	 __ftol2_sse
  00cb3	50		 push	 eax
  00cb4	8d 85 4c fe ff
	ff		 lea	 eax, DWORD PTR __k$536317[ebp]
  00cba	50		 push	 eax
  00cbb	8d 8d 0c f8 ff
	ff		 lea	 ecx, DWORD PTR _kLoader$[ebp]
  00cc1	ff d6		 call	 esi
  00cc3	a3 00 00 00 00	 mov	 DWORD PTR ?m_dwOtherSkillBuffTime@ioCharEmoticon@@1KA, eax ; ioCharEmoticon::m_dwOtherSkillBuffTime

; 188  : 	m_dwOtherBadStateTime  = kLoader.LoadInt_e( "other_bad_state_time", FLOAT100 );

  00cc8	b8 64 00 00 00	 mov	 eax, 100		; 00000064H
  00ccd	8b d7		 mov	 edx, edi
  00ccf	c7 85 e0 fc ff
	ff 82 98 83 8f	 mov	 DWORD PTR __k$536487[ebp], -1887201150 ; 8f839882H
  00cd9	c7 85 e4 fc ff
	ff 9f b3 89 8b	 mov	 DWORD PTR __k$536487[ebp+4], -1953909857 ; 8b89b39fH
  00ce3	c7 85 e8 fc ff
	ff 89 b3 98 9e	 mov	 DWORD PTR __k$536487[ebp+8], -1634159735 ; 9e98b389H
  00ced	c7 85 ec fc ff
	ff 8c 98 8e b5	 mov	 DWORD PTR __k$536487[ebp+12], -1248946036 ; b58e988cH
  00cf7	c7 85 f0 fc ff
	ff 99 85 86 8f	 mov	 DWORD PTR __k$536487[ebp+16], -1887009383 ; 8f868599H
  00d01	8d 8d e0 fc ff
	ff		 lea	 ecx, DWORD PTR __k$536487[ebp]
  00d07	88 9d f4 fc ff
	ff		 mov	 BYTE PTR __k$536487[ebp+20], bl
  00d0d	bf ed ec eb ea	 mov	 edi, -353637139		; eaebecedH
$LL2982@LoadStatic:
  00d12	31 39		 xor	 DWORD PTR [ecx], edi
  00d14	83 c1 04	 add	 ecx, 4
  00d17	4a		 dec	 edx
  00d18	75 f8		 jne	 SHORT $LL2982@LoadStatic
  00d1a	89 85 08 f8 ff
	ff		 mov	 DWORD PTR tv32917[ebp], eax
  00d20	db 85 08 f8 ff
	ff		 fild	 DWORD PTR tv32917[ebp]
  00d26	85 c0		 test	 eax, eax
  00d28	79 06		 jns	 SHORT $LN3896@LoadStatic
  00d2a	d8 05 00 00 00
	00		 fadd	 DWORD PTR __real@4f800000
$LN3896@LoadStatic:
  00d30	e8 00 00 00 00	 call	 __ftol2_sse
  00d35	50		 push	 eax
  00d36	8d 85 e0 fc ff
	ff		 lea	 eax, DWORD PTR __k$536487[ebp]
  00d3c	50		 push	 eax
  00d3d	8d 8d 0c f8 ff
	ff		 lea	 ecx, DWORD PTR _kLoader$[ebp]
  00d43	ff d6		 call	 esi
  00d45	a3 00 00 00 00	 mov	 DWORD PTR ?m_dwOtherBadStateTime@ioCharEmoticon@@1KA, eax ; ioCharEmoticon::m_dwOtherBadStateTime

; 189  : 
; 190  : 	m_dwDisapearWhiteTime = kLoader.LoadInt_e( "disapear_white_time", FLOAT100 );

  00d4a	b8 64 00 00 00	 mov	 eax, 100		; 00000064H
  00d4f	6a 04		 push	 4
  00d51	c7 85 d0 fe ff
	ff 89 85 98 8b	 mov	 DWORD PTR __k$536575[ebp], -1952938615 ; 8b988589H
  00d5b	c7 85 d4 fe ff
	ff 9d 89 8a 98	 mov	 DWORD PTR __k$536575[ebp+4], -1735751267 ; 988a899dH
  00d65	c7 85 d8 fe ff
	ff b2 9b 83 83	 mov	 DWORD PTR __k$536575[ebp+8], -2088526926 ; 83839bb2H
  00d6f	c7 85 dc fe ff
	ff 99 89 b4 9e	 mov	 DWORD PTR __k$536575[ebp+12], -1632335463 ; 9eb48999H
  00d79	8d 8d d0 fe ff
	ff		 lea	 ecx, DWORD PTR __k$536575[ebp]
  00d7f	c7 85 e0 fe ff
	ff 84 81 8e 00	 mov	 DWORD PTR __k$536575[ebp+16], 9339268 ; 008e8184H
  00d89	5a		 pop	 edx
$LL3090@LoadStatic:
  00d8a	31 39		 xor	 DWORD PTR [ecx], edi
  00d8c	83 c1 04	 add	 ecx, 4
  00d8f	4a		 dec	 edx
  00d90	75 f8		 jne	 SHORT $LL3090@LoadStatic
  00d92	c7 85 08 f8 ff
	ff 10 00 00 00	 mov	 DWORD PTR _i$536675[ebp], 16 ; 00000010H
$LL3087@LoadStatic:
  00d9c	8b 8d 08 f8 ff
	ff		 mov	 ecx, DWORD PTR _i$536675[ebp]
  00da2	81 e1 03 00 00
	80		 and	 ecx, -2147483645	; 80000003H
  00da8	79 05		 jns	 SHORT $LN3897@LoadStatic
  00daa	49		 dec	 ecx
  00dab	83 c9 fc	 or	 ecx, -4			; fffffffcH
  00dae	41		 inc	 ecx
$LN3897@LoadStatic:
  00daf	b2 ed		 mov	 dl, -19			; ffffffedH
  00db1	2a d1		 sub	 dl, cl
  00db3	8b 8d 08 f8 ff
	ff		 mov	 ecx, DWORD PTR _i$536675[ebp]
  00db9	30 94 0d d0 fe
	ff ff		 xor	 BYTE PTR __k$536575[ebp+ecx], dl
  00dc0	ff 85 08 f8 ff
	ff		 inc	 DWORD PTR _i$536675[ebp]
  00dc6	83 bd 08 f8 ff
	ff 13		 cmp	 DWORD PTR _i$536675[ebp], 19 ; 00000013H
  00dcd	7c cd		 jl	 SHORT $LL3087@LoadStatic
  00dcf	89 85 08 f8 ff
	ff		 mov	 DWORD PTR tv32906[ebp], eax
  00dd5	db 85 08 f8 ff
	ff		 fild	 DWORD PTR tv32906[ebp]
  00ddb	85 c0		 test	 eax, eax
  00ddd	79 06		 jns	 SHORT $LN3898@LoadStatic
  00ddf	d8 05 00 00 00
	00		 fadd	 DWORD PTR __real@4f800000
$LN3898@LoadStatic:
  00de5	e8 00 00 00 00	 call	 __ftol2_sse
  00dea	50		 push	 eax
  00deb	8d 85 d0 fe ff
	ff		 lea	 eax, DWORD PTR __k$536575[ebp]
  00df1	50		 push	 eax
  00df2	8d 8d 0c f8 ff
	ff		 lea	 ecx, DWORD PTR _kLoader$[ebp]
  00df8	ff d6		 call	 esi
  00dfa	a3 00 00 00 00	 mov	 DWORD PTR ?m_dwDisapearWhiteTime@ioCharEmoticon@@1KA, eax ; ioCharEmoticon::m_dwDisapearWhiteTime

; 191  : 	m_dwDisapearAlphaTime = kLoader.LoadInt_e( "disapear_alpha_time", FLOAT100 );

  00dff	b8 64 00 00 00	 mov	 eax, 100		; 00000064H
  00e04	6a 04		 push	 4
  00e06	89 85 08 f8 ff
	ff		 mov	 DWORD PTR $T536688[ebp], eax
  00e0c	c7 85 e8 fe ff
	ff 89 85 98 8b	 mov	 DWORD PTR __k$536704[ebp], -1952938615 ; 8b988589H
  00e16	c7 85 ec fe ff
	ff 9d 89 8a 98	 mov	 DWORD PTR __k$536704[ebp+4], -1735751267 ; 988a899dH
  00e20	c7 85 f0 fe ff
	ff b2 8d 87 9a	 mov	 DWORD PTR __k$536704[ebp+8], -1702392398 ; 9a878db2H
  00e2a	c7 85 f4 fe ff
	ff 85 8d b4 9e	 mov	 DWORD PTR __k$536704[ebp+12], -1632334459 ; 9eb48d85H
  00e34	8d 8d e8 fe ff
	ff		 lea	 ecx, DWORD PTR __k$536704[ebp]
  00e3a	c7 85 f8 fe ff
	ff 84 81 8e 00	 mov	 DWORD PTR __k$536704[ebp+16], 9339268 ; 008e8184H
  00e44	58		 pop	 eax
$LL3198@LoadStatic:
  00e45	31 39		 xor	 DWORD PTR [ecx], edi
  00e47	83 c1 04	 add	 ecx, 4
  00e4a	48		 dec	 eax
  00e4b	75 f8		 jne	 SHORT $LL3198@LoadStatic
  00e4d	6a 10		 push	 16			; 00000010H
  00e4f	59		 pop	 ecx
$LL3195@LoadStatic:
  00e50	8b c1		 mov	 eax, ecx
  00e52	25 03 00 00 80	 and	 eax, -2147483645	; 80000003H
  00e57	79 05		 jns	 SHORT $LN3899@LoadStatic
  00e59	48		 dec	 eax
  00e5a	83 c8 fc	 or	 eax, -4			; fffffffcH
  00e5d	40		 inc	 eax
$LN3899@LoadStatic:
  00e5e	b2 ed		 mov	 dl, -19			; ffffffedH
  00e60	2a d0		 sub	 dl, al
  00e62	30 94 0d e8 fe
	ff ff		 xor	 BYTE PTR __k$536704[ebp+ecx], dl
  00e69	41		 inc	 ecx
  00e6a	83 f9 13	 cmp	 ecx, 19			; 00000013H
  00e6d	7c e1		 jl	 SHORT $LL3195@LoadStatic
  00e6f	8b 85 08 f8 ff
	ff		 mov	 eax, DWORD PTR $T536688[ebp]
  00e75	db 85 08 f8 ff
	ff		 fild	 DWORD PTR $T536688[ebp]
  00e7b	85 c0		 test	 eax, eax
  00e7d	79 06		 jns	 SHORT $LN3900@LoadStatic
  00e7f	d8 05 00 00 00
	00		 fadd	 DWORD PTR __real@4f800000
$LN3900@LoadStatic:
  00e85	e8 00 00 00 00	 call	 __ftol2_sse
  00e8a	50		 push	 eax
  00e8b	8d 85 e8 fe ff
	ff		 lea	 eax, DWORD PTR __k$536704[ebp]
  00e91	50		 push	 eax
  00e92	8d 8d 0c f8 ff
	ff		 lea	 ecx, DWORD PTR _kLoader$[ebp]
  00e98	ff d6		 call	 esi
  00e9a	6a 03		 push	 3
  00e9c	a3 00 00 00 00	 mov	 DWORD PTR ?m_dwDisapearAlphaTime@ioCharEmoticon@@1KA, eax ; ioCharEmoticon::m_dwDisapearAlphaTime

; 192  : 
; 193  : 
; 194  : 	kLoader.SetTitle_e( "fishing_icon" );

  00ea1	c7 85 60 ff ff
	ff 8b 85 98 82	 mov	 DWORD PTR __t$536829[ebp], -2103933557 ; 8298858bH
  00eab	c7 85 64 ff ff
	ff 84 82 8c b5	 mov	 DWORD PTR __t$536829[ebp+4], -1249082748 ; b58c8284H
  00eb5	c7 85 68 ff ff
	ff 84 8f 84 84	 mov	 DWORD PTR __t$536829[ebp+8], -2071687292 ; 84848f84H
  00ebf	8d 85 60 ff ff
	ff		 lea	 eax, DWORD PTR __t$536829[ebp]
  00ec5	88 9d 6c ff ff
	ff		 mov	 BYTE PTR __t$536829[ebp+12], bl
  00ecb	59		 pop	 ecx
$LL3304@LoadStatic:
  00ecc	31 38		 xor	 DWORD PTR [eax], edi
  00ece	83 c0 04	 add	 eax, 4
  00ed1	49		 dec	 ecx
  00ed2	75 f8		 jne	 SHORT $LL3304@LoadStatic
  00ed4	8d 85 60 ff ff
	ff		 lea	 eax, DWORD PTR __t$536829[ebp]
  00eda	50		 push	 eax
  00edb	8d 8d 0c f8 ff
	ff		 lea	 ecx, DWORD PTR _kLoader$[ebp]
  00ee1	ff 15 00 00 00
	00		 call	 DWORD PTR __imp_?SetTitle@ioINILoader@@QAEXPBD@Z

; 195  : 	m_fDurationScaleRate		= kLoader.LoadFloat_e( "duration_scale_rate", FLOAT1 );

  00ee7	b8 01 00 00 00	 mov	 eax, 1
  00eec	6a 04		 push	 4
  00eee	c7 85 b8 fe ff
	ff 89 99 99 8b	 mov	 DWORD PTR __k$536958[ebp], -1952867959 ; 8b999989H
  00ef8	c7 85 bc fe ff
	ff 99 85 84 84	 mov	 DWORD PTR __k$536958[ebp+4], -2071689831 ; 84848599H
  00f02	c7 85 c0 fe ff
	ff b2 9f 88 8b	 mov	 DWORD PTR __k$536958[ebp+8], -1953980494 ; 8b889fb2H
  00f0c	c7 85 c4 fe ff
	ff 81 89 b4 98	 mov	 DWORD PTR __k$536958[ebp+12], -1732998783 ; 98b48981H
  00f16	8d 8d b8 fe ff
	ff		 lea	 ecx, DWORD PTR __k$536958[ebp]
  00f1c	c7 85 c8 fe ff
	ff 8c 98 8e 00	 mov	 DWORD PTR __k$536958[ebp+16], 9345164 ; 008e988cH
  00f26	5a		 pop	 edx
$LL3412@LoadStatic:
  00f27	31 39		 xor	 DWORD PTR [ecx], edi
  00f29	83 c1 04	 add	 ecx, 4
  00f2c	4a		 dec	 edx
  00f2d	75 f8		 jne	 SHORT $LL3412@LoadStatic
  00f2f	c7 85 08 f8 ff
	ff 10 00 00 00	 mov	 DWORD PTR _i$536973[ebp], 16 ; 00000010H
$LL3409@LoadStatic:
  00f39	8b 8d 08 f8 ff
	ff		 mov	 ecx, DWORD PTR _i$536973[ebp]
  00f3f	81 e1 03 00 00
	80		 and	 ecx, -2147483645	; 80000003H
  00f45	79 05		 jns	 SHORT $LN3901@LoadStatic
  00f47	49		 dec	 ecx
  00f48	83 c9 fc	 or	 ecx, -4			; fffffffcH
  00f4b	41		 inc	 ecx
$LN3901@LoadStatic:
  00f4c	b2 ed		 mov	 dl, -19			; ffffffedH
  00f4e	2a d1		 sub	 dl, cl
  00f50	8b 8d 08 f8 ff
	ff		 mov	 ecx, DWORD PTR _i$536973[ebp]
  00f56	30 94 0d b8 fe
	ff ff		 xor	 BYTE PTR __k$536958[ebp+ecx], dl
  00f5d	ff 85 08 f8 ff
	ff		 inc	 DWORD PTR _i$536973[ebp]
  00f63	83 bd 08 f8 ff
	ff 13		 cmp	 DWORD PTR _i$536973[ebp], 19 ; 00000013H
  00f6a	7c cd		 jl	 SHORT $LL3409@LoadStatic
  00f6c	89 85 08 f8 ff
	ff		 mov	 DWORD PTR tv32883[ebp], eax
  00f72	db 85 08 f8 ff
	ff		 fild	 DWORD PTR tv32883[ebp]
  00f78	85 c0		 test	 eax, eax
  00f7a	79 06		 jns	 SHORT $LN3902@LoadStatic
  00f7c	d8 05 00 00 00
	00		 fadd	 DWORD PTR __real@4f800000
$LN3902@LoadStatic:
  00f82	51		 push	 ecx
  00f83	8d 85 b8 fe ff
	ff		 lea	 eax, DWORD PTR __k$536958[ebp]
  00f89	d9 1c 24	 fstp	 DWORD PTR [esp]
  00f8c	50		 push	 eax
  00f8d	8d 8d 0c f8 ff
	ff		 lea	 ecx, DWORD PTR _kLoader$[ebp]
  00f93	ff 15 00 00 00
	00		 call	 DWORD PTR __imp_?LoadFloat@ioINILoader@@QAEMPBDM@Z
  00f99	d9 1d 00 00 00
	00		 fstp	 DWORD PTR ?m_fDurationScaleRate@ioCharEmoticon@@1MA ; ioCharEmoticon::m_fDurationScaleRate

; 196  : 	m_fDurationScaleFastRate	= kLoader.LoadFloat_e( "duration_scale_fast_rate", FLOAT1 );

  00f9f	b8 01 00 00 00	 mov	 eax, 1
  00fa4	6a 06		 push	 6
  00fa6	c7 85 c0 fc ff
	ff 89 99 99 8b	 mov	 DWORD PTR __k$537099[ebp], -1952867959 ; 8b999989H
  00fb0	c7 85 c4 fc ff
	ff 99 85 84 84	 mov	 DWORD PTR __k$537099[ebp+4], -2071689831 ; 84848599H
  00fba	c7 85 c8 fc ff
	ff b2 9f 88 8b	 mov	 DWORD PTR __k$537099[ebp+8], -1953980494 ; 8b889fb2H
  00fc4	c7 85 cc fc ff
	ff 81 89 b4 8c	 mov	 DWORD PTR __k$537099[ebp+12], -1934325375 ; 8cb48981H
  00fce	c7 85 d0 fc ff
	ff 8c 9f 9f b5	 mov	 DWORD PTR __k$537099[ebp+16], -1247830132 ; b59f9f8cH
  00fd8	c7 85 d4 fc ff
	ff 9f 8d 9f 8f	 mov	 DWORD PTR __k$537099[ebp+20], -1885368929 ; 8f9f8d9fH
  00fe2	8d 8d c0 fc ff
	ff		 lea	 ecx, DWORD PTR __k$537099[ebp]
  00fe8	88 9d d8 fc ff
	ff		 mov	 BYTE PTR __k$537099[ebp+24], bl
  00fee	5a		 pop	 edx
$LL3520@LoadStatic:
  00fef	31 39		 xor	 DWORD PTR [ecx], edi
  00ff1	83 c1 04	 add	 ecx, 4
  00ff4	4a		 dec	 edx
  00ff5	75 f8		 jne	 SHORT $LL3520@LoadStatic
  00ff7	89 85 08 f8 ff
	ff		 mov	 DWORD PTR tv32875[ebp], eax
  00ffd	db 85 08 f8 ff
	ff		 fild	 DWORD PTR tv32875[ebp]
  01003	85 c0		 test	 eax, eax
  01005	79 06		 jns	 SHORT $LN3903@LoadStatic
  01007	d8 05 00 00 00
	00		 fadd	 DWORD PTR __real@4f800000
$LN3903@LoadStatic:
  0100d	51		 push	 ecx
  0100e	8d 85 c0 fc ff
	ff		 lea	 eax, DWORD PTR __k$537099[ebp]
  01014	d9 1c 24	 fstp	 DWORD PTR [esp]
  01017	50		 push	 eax
  01018	8d 8d 0c f8 ff
	ff		 lea	 ecx, DWORD PTR _kLoader$[ebp]
  0101e	ff 15 00 00 00
	00		 call	 DWORD PTR __imp_?LoadFloat@ioINILoader@@QAEMPBDM@Z
  01024	d9 1d 00 00 00
	00		 fstp	 DWORD PTR ?m_fDurationScaleFastRate@ioCharEmoticon@@1MA ; ioCharEmoticon::m_fDurationScaleFastRate
  0102a	6a 04		 push	 4

; 197  : 	m_dwDurationScaleTime		= kLoader.LoadInt_e( "duration_scale_time", 0 );

  0102c	c7 85 a0 fe ff
	ff 89 99 99 8b	 mov	 DWORD PTR __k$537212[ebp], -1952867959 ; 8b999989H
  01036	c7 85 a4 fe ff
	ff 99 85 84 84	 mov	 DWORD PTR __k$537212[ebp+4], -2071689831 ; 84848599H
  01040	c7 85 a8 fe ff
	ff b2 9f 88 8b	 mov	 DWORD PTR __k$537212[ebp+8], -1953980494 ; 8b889fb2H
  0104a	c7 85 ac fe ff
	ff 81 89 b4 9e	 mov	 DWORD PTR __k$537212[ebp+12], -1632335487 ; 9eb48981H
  01054	8d 85 a0 fe ff
	ff		 lea	 eax, DWORD PTR __k$537212[ebp]
  0105a	c7 85 b0 fe ff
	ff 84 81 8e 00	 mov	 DWORD PTR __k$537212[ebp+16], 9339268 ; 008e8184H
  01064	59		 pop	 ecx
$LL3626@LoadStatic:
  01065	31 38		 xor	 DWORD PTR [eax], edi
  01067	83 c0 04	 add	 eax, 4
  0106a	49		 dec	 ecx
  0106b	75 f8		 jne	 SHORT $LL3626@LoadStatic
  0106d	6a 10		 push	 16			; 00000010H
  0106f	58		 pop	 eax
$LL3623@LoadStatic:
  01070	8b c8		 mov	 ecx, eax
  01072	81 e1 03 00 00
	80		 and	 ecx, -2147483645	; 80000003H
  01078	79 05		 jns	 SHORT $LN3904@LoadStatic
  0107a	49		 dec	 ecx
  0107b	83 c9 fc	 or	 ecx, -4			; fffffffcH
  0107e	41		 inc	 ecx
$LN3904@LoadStatic:
  0107f	b2 ed		 mov	 dl, -19			; ffffffedH
  01081	2a d1		 sub	 dl, cl
  01083	30 94 05 a0 fe
	ff ff		 xor	 BYTE PTR __k$537212[ebp+eax], dl
  0108a	40		 inc	 eax
  0108b	83 f8 13	 cmp	 eax, 19			; 00000013H
  0108e	7c e0		 jl	 SHORT $LL3623@LoadStatic
  01090	53		 push	 ebx
  01091	8d 85 a0 fe ff
	ff		 lea	 eax, DWORD PTR __k$537212[ebp]
  01097	50		 push	 eax
  01098	8d 8d 0c f8 ff
	ff		 lea	 ecx, DWORD PTR _kLoader$[ebp]
  0109e	ff d6		 call	 esi
  010a0	6a 06		 push	 6
  010a2	a3 00 00 00 00	 mov	 DWORD PTR ?m_dwDurationScaleTime@ioCharEmoticon@@1KA, eax ; ioCharEmoticon::m_dwDurationScaleTime

; 198  : 	m_dwDurationScaleFastTime	= kLoader.LoadInt_e( "duration_scale_fast_time", 0 );

  010a7	c7 85 a0 fc ff
	ff 89 99 99 8b	 mov	 DWORD PTR __k$537337[ebp], -1952867959 ; 8b999989H
  010b1	c7 85 a4 fc ff
	ff 99 85 84 84	 mov	 DWORD PTR __k$537337[ebp+4], -2071689831 ; 84848599H
  010bb	c7 85 a8 fc ff
	ff b2 9f 88 8b	 mov	 DWORD PTR __k$537337[ebp+8], -1953980494 ; 8b889fb2H
  010c5	c7 85 ac fc ff
	ff 81 89 b4 8c	 mov	 DWORD PTR __k$537337[ebp+12], -1934325375 ; 8cb48981H
  010cf	c7 85 b0 fc ff
	ff 8c 9f 9f b5	 mov	 DWORD PTR __k$537337[ebp+16], -1247830132 ; b59f9f8cH
  010d9	c7 85 b4 fc ff
	ff 99 85 86 8f	 mov	 DWORD PTR __k$537337[ebp+20], -1887009383 ; 8f868599H
  010e3	8d 85 a0 fc ff
	ff		 lea	 eax, DWORD PTR __k$537337[ebp]
  010e9	88 9d b8 fc ff
	ff		 mov	 BYTE PTR __k$537337[ebp+24], bl
  010ef	59		 pop	 ecx
$LL3732@LoadStatic:
  010f0	31 38		 xor	 DWORD PTR [eax], edi
  010f2	83 c0 04	 add	 eax, 4
  010f5	49		 dec	 ecx
  010f6	75 f8		 jne	 SHORT $LL3732@LoadStatic
  010f8	53		 push	 ebx
  010f9	8d 85 a0 fc ff
	ff		 lea	 eax, DWORD PTR __k$537337[ebp]
  010ff	50		 push	 eax
  01100	8d 8d 0c f8 ff
	ff		 lea	 ecx, DWORD PTR _kLoader$[ebp]
  01106	ff d6		 call	 esi
  01108	a3 00 00 00 00	 mov	 DWORD PTR ?m_dwDurationScaleFastTime@ioCharEmoticon@@1KA, eax ; ioCharEmoticon::m_dwDurationScaleFastTime

; 199  : 
; 200  : 
; 201  : 	io3DCharEmoticon::LoadStaticValue( kLoader );

  0110d	8d 85 0c f8 ff
	ff		 lea	 eax, DWORD PTR _kLoader$[ebp]
  01113	50		 push	 eax
  01114	e8 00 00 00 00	 call	 ?LoadStaticValue@io3DCharEmoticon@@SAXAAVioINILoader@@@Z ; io3DCharEmoticon::LoadStaticValue

; 202  : }

  01119	83 4d fc ff	 or	 DWORD PTR __$EHRec$[ebp+8], -1
  0111d	59		 pop	 ecx
  0111e	8d 8d 0c f8 ff
	ff		 lea	 ecx, DWORD PTR _kLoader$[ebp]
  01124	ff 15 00 00 00
	00		 call	 DWORD PTR __imp_??1ioINILoader@@QAE@XZ
  0112a	e8 00 00 00 00	 call	 __EH_epilog3_GS
  0112f	c3		 ret	 0
_TEXT	ENDS
;	COMDAT text$x
text$x	SEGMENT
__unwindfunclet$?LoadStaticValues@ioCharEmoticon@@SAXXZ$0:
  00000	8d 8d 0c f8 ff
	ff		 lea	 ecx, DWORD PTR _kLoader$[ebp]
  00006	e9 00 00 00 00	 jmp	 ??1ioINILoader_e@@QAE@XZ
__ehhandler$?LoadStaticValues@ioCharEmoticon@@SAXXZ:
  0000b	8b 54 24 08	 mov	 edx, DWORD PTR [esp+8]
  0000f	8d 42 0c	 lea	 eax, DWORD PTR [edx+12]
  00012	8b 8a 04 f8 ff
	ff		 mov	 ecx, DWORD PTR [edx-2044]
  00018	33 c8		 xor	 ecx, eax
  0001a	e8 00 00 00 00	 call	 @__security_check_cookie@4
  0001f	8b 4a fc	 mov	 ecx, DWORD PTR [edx-4]
  00022	33 c8		 xor	 ecx, eax
  00024	e8 00 00 00 00	 call	 @__security_check_cookie@4
  00029	b8 00 00 00 00	 mov	 eax, OFFSET __ehfuncinfo$?LoadStaticValues@ioCharEmoticon@@SAXXZ
  0002e	e9 00 00 00 00	 jmp	 ___CxxFrameHandler3
text$x	ENDS
?LoadStaticValues@ioCharEmoticon@@SAXXZ ENDP		; ioCharEmoticon::LoadStaticValues
PUBLIC	??1?$vector@PAUEmoticonInfo@@V?$allocator@PAUEmoticonInfo@@@std@@@std@@QAE@XZ ; std::vector<EmoticonInfo *,std::allocator<EmoticonInfo *> >::~vector<EmoticonInfo *,std::allocator<EmoticonInfo *> >
; Function compile flags: /Ogsp
; File c:\program files (x86)\microsoft visual studio 10.0\vc\include\vector
;	COMDAT ??1?$vector@PAUEmoticonInfo@@V?$allocator@PAUEmoticonInfo@@@std@@@std@@QAE@XZ
_TEXT	SEGMENT
??1?$vector@PAUEmoticonInfo@@V?$allocator@PAUEmoticonInfo@@@std@@@std@@QAE@XZ PROC ; std::vector<EmoticonInfo *,std::allocator<EmoticonInfo *> >::~vector<EmoticonInfo *,std::allocator<EmoticonInfo *> >, COMDAT
; _this$ = ecx

; 705  : 		_Tidy();

  00000	e9 00 00 00 00	 jmp	 ?_Tidy@?$vector@PAUEmoticonInfo@@V?$allocator@PAUEmoticonInfo@@@std@@@std@@IAEXXZ ; std::vector<EmoticonInfo *,std::allocator<EmoticonInfo *> >::_Tidy
??1?$vector@PAUEmoticonInfo@@V?$allocator@PAUEmoticonInfo@@@std@@@std@@QAE@XZ ENDP ; std::vector<EmoticonInfo *,std::allocator<EmoticonInfo *> >::~vector<EmoticonInfo *,std::allocator<EmoticonInfo *> >
_TEXT	ENDS
PUBLIC	?erase@?$vector@PAUEmoticonInfo@@V?$allocator@PAUEmoticonInfo@@@std@@@std@@QAE?AV?$_Vector_iterator@V?$_Vector_val@PAUEmoticonInfo@@V?$allocator@PAUEmoticonInfo@@@std@@@std@@@2@V?$_Vector_const_iterator@V?$_Vector_val@PAUEmoticonInfo@@V?$allocator@PAUEmoticonInfo@@@std@@@std@@@2@@Z ; std::vector<EmoticonInfo *,std::allocator<EmoticonInfo *> >::erase
; Function compile flags: /Ogsp
;	COMDAT ?erase@?$vector@PAUEmoticonInfo@@V?$allocator@PAUEmoticonInfo@@@std@@@std@@QAE?AV?$_Vector_iterator@V?$_Vector_val@PAUEmoticonInfo@@V?$allocator@PAUEmoticonInfo@@@std@@@std@@@2@V?$_Vector_const_iterator@V?$_Vector_val@PAUEmoticonInfo@@V?$allocator@PAUEmoticonInfo@@@std@@@std@@@2@@Z
_TEXT	SEGMENT
___$ReturnUdt$ = 8					; size = 4
__Cat$537647 = 12					; size = 1
__Where$ = 12						; size = 4
?erase@?$vector@PAUEmoticonInfo@@V?$allocator@PAUEmoticonInfo@@@std@@@std@@QAE?AV?$_Vector_iterator@V?$_Vector_val@PAUEmoticonInfo@@V?$allocator@PAUEmoticonInfo@@@std@@@std@@@2@V?$_Vector_const_iterator@V?$_Vector_val@PAUEmoticonInfo@@V?$allocator@PAUEmoticonInfo@@@std@@@std@@@2@@Z PROC ; std::vector<EmoticonInfo *,std::allocator<EmoticonInfo *> >::erase, COMDAT
; _this$ = ecx

; 1179 : 		{	// erase element at where

  00000	55		 push	 ebp
  00001	8b ec		 mov	 ebp, esp

; 1180 : 		_Move(_VIPTR(_Where) + 1, this->_Mylast,
; 1181 : 			_VIPTR(_Where));

  00003	8b 45 0c	 mov	 eax, DWORD PTR __Where$[ebp]
  00006	56		 push	 esi
  00007	ff 75 0c	 push	 DWORD PTR __Cat$537647[ebp]
  0000a	8b f1		 mov	 esi, ecx
  0000c	50		 push	 eax
  0000d	ff 76 04	 push	 DWORD PTR [esi+4]
  00010	83 c0 04	 add	 eax, 4
  00013	50		 push	 eax
  00014	e8 00 00 00 00	 call	 ??$_Move@PAPAUEmoticonInfo@@PAPAU1@@std@@YAPAPAUEmoticonInfo@@PAPAU1@00U_Scalar_ptr_iterator_tag@0@@Z ; std::_Move<EmoticonInfo * *,EmoticonInfo * *>

; 1182 : 		_Destroy(this->_Mylast - 1, this->_Mylast);
; 1183 : 		--this->_Mylast;
; 1184 : 		return (_Make_iter(_Where));

  00019	8b 45 08	 mov	 eax, DWORD PTR ___$ReturnUdt$[ebp]
  0001c	8b 4d 0c	 mov	 ecx, DWORD PTR __Where$[ebp]
  0001f	83 c4 10	 add	 esp, 16			; 00000010H
  00022	83 46 04 fc	 add	 DWORD PTR [esi+4], -4	; fffffffcH
  00026	89 08		 mov	 DWORD PTR [eax], ecx
  00028	5e		 pop	 esi

; 1185 : 		}

  00029	5d		 pop	 ebp
  0002a	c2 08 00	 ret	 8
?erase@?$vector@PAUEmoticonInfo@@V?$allocator@PAUEmoticonInfo@@@std@@@std@@QAE?AV?$_Vector_iterator@V?$_Vector_val@PAUEmoticonInfo@@V?$allocator@PAUEmoticonInfo@@@std@@@std@@@2@V?$_Vector_const_iterator@V?$_Vector_val@PAUEmoticonInfo@@V?$allocator@PAUEmoticonInfo@@@std@@@std@@@2@@Z ENDP ; std::vector<EmoticonInfo *,std::allocator<EmoticonInfo *> >::erase
_TEXT	ENDS
PUBLIC	?erase@?$vector@PAUEmoticonInfo@@V?$allocator@PAUEmoticonInfo@@@std@@@std@@QAE?AV?$_Vector_iterator@V?$_Vector_val@PAUEmoticonInfo@@V?$allocator@PAUEmoticonInfo@@@std@@@std@@@2@V?$_Vector_const_iterator@V?$_Vector_val@PAUEmoticonInfo@@V?$allocator@PAUEmoticonInfo@@@std@@@std@@@2@0@Z ; std::vector<EmoticonInfo *,std::allocator<EmoticonInfo *> >::erase
; Function compile flags: /Ogsp
;	COMDAT ?erase@?$vector@PAUEmoticonInfo@@V?$allocator@PAUEmoticonInfo@@@std@@@std@@QAE?AV?$_Vector_iterator@V?$_Vector_val@PAUEmoticonInfo@@V?$allocator@PAUEmoticonInfo@@@std@@@std@@@2@V?$_Vector_const_iterator@V?$_Vector_val@PAUEmoticonInfo@@V?$allocator@PAUEmoticonInfo@@@std@@@std@@@2@0@Z
_TEXT	SEGMENT
___$ReturnUdt$ = 8					; size = 4
__First_arg$ = 12					; size = 4
__Cat$537777 = 16					; size = 1
__Last_arg$ = 16					; size = 4
?erase@?$vector@PAUEmoticonInfo@@V?$allocator@PAUEmoticonInfo@@@std@@@std@@QAE?AV?$_Vector_iterator@V?$_Vector_val@PAUEmoticonInfo@@V?$allocator@PAUEmoticonInfo@@@std@@@std@@@2@V?$_Vector_const_iterator@V?$_Vector_val@PAUEmoticonInfo@@V?$allocator@PAUEmoticonInfo@@@std@@@std@@@2@0@Z PROC ; std::vector<EmoticonInfo *,std::allocator<EmoticonInfo *> >::erase, COMDAT
; _this$ = ecx

; 1190 : 		{	// erase [_First, _Last)

  00000	55		 push	 ebp
  00001	8b ec		 mov	 ebp, esp

; 1191 : 		iterator _First = _Make_iter(_First_arg);

  00003	8b 45 0c	 mov	 eax, DWORD PTR __First_arg$[ebp]
  00006	56		 push	 esi
  00007	57		 push	 edi
  00008	8b 7d 08	 mov	 edi, DWORD PTR ___$ReturnUdt$[ebp]
  0000b	8b f1		 mov	 esi, ecx
  0000d	89 07		 mov	 DWORD PTR [edi], eax

; 1192 : 		iterator _Last = _Make_iter(_Last_arg);
; 1193 : 
; 1194 : 		if (_First != _Last)

  0000f	3b 45 10	 cmp	 eax, DWORD PTR __Last_arg$[ebp]
  00012	74 16		 je	 SHORT $LN1@erase

; 1195 : 			{	// worth doing, copy down over hole
; 1196 :  #if _ITERATOR_DEBUG_LEVEL == 2
; 1197 : 			if (_Last < _First || _VICONT(_First) != this
; 1198 : 				|| _VIPTR(_First) < this->_Myfirst
; 1199 : 				|| this->_Mylast < _VIPTR(_Last))
; 1200 : 				_DEBUG_ERROR("vector erase iterator outside range");
; 1201 : 			pointer _Ptr = _Move(_VIPTR(_Last), this->_Mylast,
; 1202 : 				_VIPTR(_First));
; 1203 : 			_Orphan_range(_VIPTR(_First), this->_Mylast);
; 1204 : 
; 1205 :  #else /* _ITERATOR_DEBUG_LEVEL == 2 */
; 1206 : 			pointer _Ptr = _Move(_VIPTR(_Last), this->_Mylast,
; 1207 : 				_VIPTR(_First));

  00014	ff 75 10	 push	 DWORD PTR __Cat$537777[ebp]
  00017	8b 4e 04	 mov	 ecx, DWORD PTR [esi+4]
  0001a	50		 push	 eax
  0001b	51		 push	 ecx
  0001c	ff 75 10	 push	 DWORD PTR __Last_arg$[ebp]
  0001f	e8 00 00 00 00	 call	 ??$_Move@PAPAUEmoticonInfo@@PAPAU1@@std@@YAPAPAUEmoticonInfo@@PAPAU1@00U_Scalar_ptr_iterator_tag@0@@Z ; std::_Move<EmoticonInfo * *,EmoticonInfo * *>
  00024	83 c4 10	 add	 esp, 16			; 00000010H

; 1208 :  #endif /* _ITERATOR_DEBUG_LEVEL == 2 */
; 1209 : 
; 1210 : 			_Destroy(_Ptr, this->_Mylast);
; 1211 : 			this->_Mylast = _Ptr;

  00027	89 46 04	 mov	 DWORD PTR [esi+4], eax
$LN1@erase:

; 1212 : 			}
; 1213 : 		return (_First);

  0002a	8b c7		 mov	 eax, edi
  0002c	5f		 pop	 edi
  0002d	5e		 pop	 esi

; 1214 : 		}

  0002e	5d		 pop	 ebp
  0002f	c2 0c 00	 ret	 12			; 0000000cH
?erase@?$vector@PAUEmoticonInfo@@V?$allocator@PAUEmoticonInfo@@@std@@@std@@QAE?AV?$_Vector_iterator@V?$_Vector_val@PAUEmoticonInfo@@V?$allocator@PAUEmoticonInfo@@@std@@@std@@@2@V?$_Vector_const_iterator@V?$_Vector_val@PAUEmoticonInfo@@V?$allocator@PAUEmoticonInfo@@@std@@@std@@@2@0@Z ENDP ; std::vector<EmoticonInfo *,std::allocator<EmoticonInfo *> >::erase
_TEXT	ENDS
PUBLIC	?reserve@?$vector@PAUEmoticonInfo@@V?$allocator@PAUEmoticonInfo@@@std@@@std@@QAEXI@Z ; std::vector<EmoticonInfo *,std::allocator<EmoticonInfo *> >::reserve
; Function compile flags: /Ogsp
;	COMDAT ?reserve@?$vector@PAUEmoticonInfo@@V?$allocator@PAUEmoticonInfo@@@std@@@std@@QAEXI@Z
_TEXT	SEGMENT
__Count$ = 8						; size = 4
?reserve@?$vector@PAUEmoticonInfo@@V?$allocator@PAUEmoticonInfo@@@std@@@std@@QAEXI@Z PROC ; std::vector<EmoticonInfo *,std::allocator<EmoticonInfo *> >::reserve, COMDAT
; _this$ = ecx

; 746  : 		{	// determine new minimum length of allocated storage

  00000	55		 push	 ebp
  00001	8b ec		 mov	 ebp, esp

; 747  : 		if (max_size() < _Count)

  00003	81 7d 08 ff ff
	ff 3f		 cmp	 DWORD PTR __Count$[ebp], 1073741823 ; 3fffffffH
  0000a	56		 push	 esi
  0000b	8b f1		 mov	 esi, ecx
  0000d	76 0b		 jbe	 SHORT $LN5@reserve

; 748  : 			_Xlen();	// result too long

  0000f	68 00 00 00 00	 push	 OFFSET ??_C@_0BD@OLBABOEK@vector?$DMT?$DO?5too?5long?$AA@
  00014	ff 15 00 00 00
	00		 call	 DWORD PTR __imp_?_Xlength_error@std@@YAXPBD@Z
$LN43@reserve:
$LN5@reserve:

; 749  : 		else if (capacity() < _Count)

  0001a	8b 46 08	 mov	 eax, DWORD PTR [esi+8]
  0001d	2b 06		 sub	 eax, DWORD PTR [esi]
  0001f	c1 f8 02	 sar	 eax, 2
  00022	3b 45 08	 cmp	 eax, DWORD PTR __Count$[ebp]
  00025	73 52		 jae	 SHORT $LN3@reserve

; 750  : 			{	// not enough room, reallocate
; 751  : 			pointer _Ptr = this->_Alval.allocate(_Count);

  00027	53		 push	 ebx
  00028	57		 push	 edi
  00029	6a 00		 push	 0
  0002b	ff 75 08	 push	 DWORD PTR __Count$[ebp]
  0002e	e8 00 00 00 00	 call	 ??$_Allocate@PAUEmoticonInfo@@@std@@YAPAPAUEmoticonInfo@@IPAPAU1@@Z ; std::_Allocate<EmoticonInfo *>

; 752  : 
; 753  : 			_TRY_BEGIN
; 754  : 			_Umove(this->_Myfirst, this->_Mylast, _Ptr);

  00033	8b 0e		 mov	 ecx, DWORD PTR [esi]
  00035	8d 56 0c	 lea	 edx, DWORD PTR [esi+12]
  00038	52		 push	 edx
  00039	8b d8		 mov	 ebx, eax
  0003b	8b 46 04	 mov	 eax, DWORD PTR [esi+4]
  0003e	53		 push	 ebx
  0003f	50		 push	 eax
  00040	51		 push	 ecx
  00041	e8 00 00 00 00	 call	 ??$_Uninitialized_move@PAPAUEmoticonInfo@@PAPAU1@V?$allocator@PAUEmoticonInfo@@@std@@@std@@YAPAPAUEmoticonInfo@@PAPAU1@00AAV?$allocator@PAUEmoticonInfo@@@0@@Z ; std::_Uninitialized_move<EmoticonInfo * *,EmoticonInfo * *,std::allocator<EmoticonInfo *> >

; 755  : 			_CATCH_ALL
; 756  : 			this->_Alval.deallocate(_Ptr, _Count);
; 757  : 			_RERAISE;
; 758  : 			_CATCH_END
; 759  : 
; 760  : 			size_type _Size = size();

  00046	8b 06		 mov	 eax, DWORD PTR [esi]
  00048	8b 7e 04	 mov	 edi, DWORD PTR [esi+4]
  0004b	2b f8		 sub	 edi, eax
  0004d	83 c4 18	 add	 esp, 24			; 00000018H
  00050	c1 ff 02	 sar	 edi, 2

; 761  : 			if (this->_Myfirst != 0)

  00053	85 c0		 test	 eax, eax
  00055	74 07		 je	 SHORT $LN39@reserve

; 762  : 				{	// destroy and deallocate old array
; 763  : 				_Destroy(this->_Myfirst, this->_Mylast);
; 764  : 				this->_Alval.deallocate(this->_Myfirst,
; 765  : 					this->_Myend - this->_Myfirst);

  00057	50		 push	 eax
  00058	e8 00 00 00 00	 call	 ??3@YAXPAX@Z		; operator delete
  0005d	59		 pop	 ecx
$LN39@reserve:

; 766  : 				}
; 767  : 
; 768  : 			this->_Orphan_all();

  0005e	8b ce		 mov	 ecx, esi
  00060	ff 15 00 00 00
	00		 call	 DWORD PTR __imp_?_Orphan_all@_Container_base0@std@@QAEXXZ

; 769  : 			this->_Myend = _Ptr + _Count;

  00066	8b 45 08	 mov	 eax, DWORD PTR __Count$[ebp]
  00069	8d 04 83	 lea	 eax, DWORD PTR [ebx+eax*4]
  0006c	89 46 08	 mov	 DWORD PTR [esi+8], eax

; 770  : 			this->_Mylast = _Ptr + _Size;

  0006f	8d 04 bb	 lea	 eax, DWORD PTR [ebx+edi*4]
  00072	5f		 pop	 edi

; 771  : 			this->_Myfirst = _Ptr;

  00073	89 1e		 mov	 DWORD PTR [esi], ebx
  00075	89 46 04	 mov	 DWORD PTR [esi+4], eax
  00078	5b		 pop	 ebx
$LN3@reserve:
  00079	5e		 pop	 esi

; 772  : 			}
; 773  : 		}

  0007a	5d		 pop	 ebp
  0007b	c2 04 00	 ret	 4
$LN42@reserve:
?reserve@?$vector@PAUEmoticonInfo@@V?$allocator@PAUEmoticonInfo@@@std@@@std@@QAEXI@Z ENDP ; std::vector<EmoticonInfo *,std::allocator<EmoticonInfo *> >::reserve
_TEXT	ENDS
PUBLIC	??$make_heap@PAPAUEmoticonInfo@@VEmoticonInfoSort@@@std@@YAXPAPAUEmoticonInfo@@0VEmoticonInfoSort@@@Z ; std::make_heap<EmoticonInfo * *,EmoticonInfoSort>
; Function compile flags: /Ogsp
; File c:\program files (x86)\microsoft visual studio 10.0\vc\include\algorithm
;	COMDAT ??$make_heap@PAPAUEmoticonInfo@@VEmoticonInfoSort@@@std@@YAXPAPAUEmoticonInfo@@0VEmoticonInfoSort@@@Z
_TEXT	SEGMENT
__First$ = 8						; size = 4
__Last$ = 12						; size = 4
__Pred$ = 16						; size = 1
??$make_heap@PAPAUEmoticonInfo@@VEmoticonInfoSort@@@std@@YAXPAPAUEmoticonInfo@@0VEmoticonInfoSort@@@Z PROC ; std::make_heap<EmoticonInfo * *,EmoticonInfoSort>, COMDAT

; 2672 : 	{	// make [_First, _Last) into a heap, using _Pred

  00000	55		 push	 ebp
  00001	8b ec		 mov	 ebp, esp

; 2673 : 	_DEBUG_RANGE(_First, _Last);
; 2674 : 	_DEBUG_POINTER(_Pred);
; 2675 : 	if (1 < _Last - _First)

  00003	8b 45 0c	 mov	 eax, DWORD PTR __Last$[ebp]
  00006	2b 45 08	 sub	 eax, DWORD PTR __First$[ebp]
  00009	83 e0 fc	 and	 eax, -4			; fffffffcH
  0000c	83 f8 04	 cmp	 eax, 4
  0000f	7e 15		 jle	 SHORT $LN1@make_heap

; 2676 : 		_Make_heap(_Unchecked(_First), _Unchecked(_Last), _Pred,
; 2677 : 			_Dist_type(_First), _Val_type(_First));

  00011	6a 00		 push	 0
  00013	6a 00		 push	 0
  00015	ff 75 10	 push	 DWORD PTR __Pred$[ebp]
  00018	ff 75 0c	 push	 DWORD PTR __Last$[ebp]
  0001b	ff 75 08	 push	 DWORD PTR __First$[ebp]
  0001e	e8 00 00 00 00	 call	 ??$_Make_heap@PAPAUEmoticonInfo@@HPAU1@VEmoticonInfoSort@@@std@@YAXPAPAUEmoticonInfo@@0VEmoticonInfoSort@@PAH0@Z ; std::_Make_heap<EmoticonInfo * *,int,EmoticonInfo *,EmoticonInfoSort>
  00023	83 c4 14	 add	 esp, 20			; 00000014H
$LN1@make_heap:

; 2678 : 	}

  00026	5d		 pop	 ebp
  00027	c3		 ret	 0
??$make_heap@PAPAUEmoticonInfo@@VEmoticonInfoSort@@@std@@YAXPAPAUEmoticonInfo@@0VEmoticonInfoSort@@@Z ENDP ; std::make_heap<EmoticonInfo * *,EmoticonInfoSort>
_TEXT	ENDS
PUBLIC	??$_Insertion_sort@PAPAUEmoticonInfo@@VEmoticonInfoSort@@@std@@YAXPAPAUEmoticonInfo@@0VEmoticonInfoSort@@@Z ; std::_Insertion_sort<EmoticonInfo * *,EmoticonInfoSort>
; Function compile flags: /Ogsp
;	COMDAT ??$_Insertion_sort@PAPAUEmoticonInfo@@VEmoticonInfoSort@@@std@@YAXPAPAUEmoticonInfo@@0VEmoticonInfoSort@@@Z
_TEXT	SEGMENT
__First$ = 8						; size = 4
__Last$ = 12						; size = 4
__Pred$ = 16						; size = 1
??$_Insertion_sort@PAPAUEmoticonInfo@@VEmoticonInfoSort@@@std@@YAXPAPAUEmoticonInfo@@0VEmoticonInfoSort@@@Z PROC ; std::_Insertion_sort<EmoticonInfo * *,EmoticonInfoSort>, COMDAT

; 3676 : 	{	// insertion sort [_First, _Last), using _Pred

  00000	55		 push	 ebp
  00001	8b ec		 mov	 ebp, esp

; 3677 : 	_Insertion_sort1(_First, _Last, _Pred, _Val_type(_First));

  00003	6a 00		 push	 0
  00005	ff 75 10	 push	 DWORD PTR __Pred$[ebp]
  00008	ff 75 0c	 push	 DWORD PTR __Last$[ebp]
  0000b	ff 75 08	 push	 DWORD PTR __First$[ebp]
  0000e	e8 00 00 00 00	 call	 ??$_Insertion_sort1@PAPAUEmoticonInfo@@VEmoticonInfoSort@@PAU1@@std@@YAXPAPAUEmoticonInfo@@0VEmoticonInfoSort@@0@Z ; std::_Insertion_sort1<EmoticonInfo * *,EmoticonInfoSort,EmoticonInfo *>
  00013	83 c4 10	 add	 esp, 16			; 00000010H

; 3678 : 	}

  00016	5d		 pop	 ebp
  00017	c3		 ret	 0
??$_Insertion_sort@PAPAUEmoticonInfo@@VEmoticonInfoSort@@@std@@YAXPAPAUEmoticonInfo@@0VEmoticonInfoSort@@@Z ENDP ; std::_Insertion_sort<EmoticonInfo * *,EmoticonInfoSort>
_TEXT	ENDS
PUBLIC	??$_Median@PAPAUEmoticonInfo@@VEmoticonInfoSort@@@std@@YAXPAPAUEmoticonInfo@@00VEmoticonInfoSort@@@Z ; std::_Median<EmoticonInfo * *,EmoticonInfoSort>
; Function compile flags: /Ogsp
;	COMDAT ??$_Median@PAPAUEmoticonInfo@@VEmoticonInfoSort@@@std@@YAXPAPAUEmoticonInfo@@00VEmoticonInfoSort@@@Z
_TEXT	SEGMENT
tv200 = 8						; size = 4
__First$ = 8						; size = 4
__Mid$ = 12						; size = 4
tv203 = 16						; size = 4
__Last$ = 16						; size = 4
__Pred$ = 20						; size = 1
??$_Median@PAPAUEmoticonInfo@@VEmoticonInfoSort@@@std@@YAXPAPAUEmoticonInfo@@00VEmoticonInfoSort@@@Z PROC ; std::_Median<EmoticonInfo * *,EmoticonInfoSort>, COMDAT

; 3695 : 	{	// sort median element to middle

  00000	55		 push	 ebp
  00001	8b ec		 mov	 ebp, esp

; 3696 : 	if (40 < _Last - _First)

  00003	8b 4d 08	 mov	 ecx, DWORD PTR __First$[ebp]
  00006	57		 push	 edi
  00007	8b 7d 10	 mov	 edi, DWORD PTR __Last$[ebp]
  0000a	8b c7		 mov	 eax, edi
  0000c	2b c1		 sub	 eax, ecx
  0000e	c1 f8 02	 sar	 eax, 2
  00011	83 f8 28	 cmp	 eax, 40			; 00000028H
  00014	7e 6a		 jle	 SHORT $LN2@Median

; 3697 : 		{	// median of nine
; 3698 : 		size_t _Step = (_Last - _First + 1) / 8;

  00016	40		 inc	 eax
  00017	99		 cdq
  00018	83 e2 07	 and	 edx, 7
  0001b	53		 push	 ebx
  0001c	03 c2		 add	 eax, edx
  0001e	c1 f8 03	 sar	 eax, 3
  00021	56		 push	 esi

; 3699 : 		_Med3(_First, _First + _Step, _First + 2 * _Step, _Pred);

  00022	ff 75 14	 push	 DWORD PTR __Pred$[ebp]
  00025	8b d8		 mov	 ebx, eax
  00027	8b f0		 mov	 esi, eax
  00029	c1 e3 03	 shl	 ebx, 3
  0002c	8d 14 0b	 lea	 edx, DWORD PTR [ebx+ecx]
  0002f	c1 e6 02	 shl	 esi, 2
  00032	8d 04 0e	 lea	 eax, DWORD PTR [esi+ecx]
  00035	52		 push	 edx
  00036	50		 push	 eax
  00037	51		 push	 ecx
  00038	89 45 08	 mov	 DWORD PTR tv200[ebp], eax
  0003b	e8 00 00 00 00	 call	 ??$_Med3@PAPAUEmoticonInfo@@VEmoticonInfoSort@@@std@@YAXPAPAUEmoticonInfo@@00VEmoticonInfoSort@@@Z ; std::_Med3<EmoticonInfo * *,EmoticonInfoSort>

; 3700 : 		_Med3(_Mid - _Step, _Mid, _Mid + _Step, _Pred);

  00040	ff 75 14	 push	 DWORD PTR __Pred$[ebp]
  00043	8b 45 0c	 mov	 eax, DWORD PTR __Mid$[ebp]
  00046	8d 0c 06	 lea	 ecx, DWORD PTR [esi+eax]
  00049	51		 push	 ecx
  0004a	50		 push	 eax
  0004b	2b c6		 sub	 eax, esi
  0004d	50		 push	 eax
  0004e	e8 00 00 00 00	 call	 ??$_Med3@PAPAUEmoticonInfo@@VEmoticonInfoSort@@@std@@YAXPAPAUEmoticonInfo@@00VEmoticonInfoSort@@@Z ; std::_Med3<EmoticonInfo * *,EmoticonInfoSort>

; 3701 : 		_Med3(_Last - 2 * _Step, _Last - _Step, _Last, _Pred);

  00053	ff 75 14	 push	 DWORD PTR __Pred$[ebp]
  00056	89 7d 10	 mov	 DWORD PTR tv203[ebp], edi
  00059	29 75 10	 sub	 DWORD PTR tv203[ebp], esi
  0005c	57		 push	 edi
  0005d	ff 75 10	 push	 DWORD PTR tv203[ebp]
  00060	2b fb		 sub	 edi, ebx
  00062	57		 push	 edi
  00063	e8 00 00 00 00	 call	 ??$_Med3@PAPAUEmoticonInfo@@VEmoticonInfoSort@@@std@@YAXPAPAUEmoticonInfo@@00VEmoticonInfoSort@@@Z ; std::_Med3<EmoticonInfo * *,EmoticonInfoSort>

; 3702 : 		_Med3(_First + _Step, _Mid, _Last - _Step, _Pred);

  00068	ff 75 14	 push	 DWORD PTR __Pred$[ebp]
  0006b	ff 75 10	 push	 DWORD PTR tv203[ebp]
  0006e	ff 75 0c	 push	 DWORD PTR __Mid$[ebp]
  00071	ff 75 08	 push	 DWORD PTR tv200[ebp]
  00074	e8 00 00 00 00	 call	 ??$_Med3@PAPAUEmoticonInfo@@VEmoticonInfoSort@@@std@@YAXPAPAUEmoticonInfo@@00VEmoticonInfoSort@@@Z ; std::_Med3<EmoticonInfo * *,EmoticonInfoSort>
  00079	83 c4 40	 add	 esp, 64			; 00000040H
  0007c	5e		 pop	 esi
  0007d	5b		 pop	 ebx

; 3703 : 		}
; 3704 : 	else

  0007e	eb 10		 jmp	 SHORT $LN1@Median
$LN2@Median:

; 3705 : 		_Med3(_First, _Mid, _Last, _Pred);

  00080	ff 75 14	 push	 DWORD PTR __Pred$[ebp]
  00083	57		 push	 edi
  00084	ff 75 0c	 push	 DWORD PTR __Mid$[ebp]
  00087	51		 push	 ecx
  00088	e8 00 00 00 00	 call	 ??$_Med3@PAPAUEmoticonInfo@@VEmoticonInfoSort@@@std@@YAXPAPAUEmoticonInfo@@00VEmoticonInfoSort@@@Z ; std::_Med3<EmoticonInfo * *,EmoticonInfoSort>
  0008d	83 c4 10	 add	 esp, 16			; 00000010H
$LN1@Median:
  00090	5f		 pop	 edi

; 3706 : 	}

  00091	5d		 pop	 ebp
  00092	c3		 ret	 0
??$_Median@PAPAUEmoticonInfo@@VEmoticonInfoSort@@@std@@YAXPAPAUEmoticonInfo@@00VEmoticonInfoSort@@@Z ENDP ; std::_Median<EmoticonInfo * *,EmoticonInfoSort>
_TEXT	ENDS
PUBLIC	??$_Pop_heap@PAPAUEmoticonInfo@@VEmoticonInfoSort@@@std@@YAXPAPAUEmoticonInfo@@0VEmoticonInfoSort@@@Z ; std::_Pop_heap<EmoticonInfo * *,EmoticonInfoSort>
; Function compile flags: /Ogsp
;	COMDAT ??$_Pop_heap@PAPAUEmoticonInfo@@VEmoticonInfoSort@@@std@@YAXPAPAUEmoticonInfo@@0VEmoticonInfoSort@@@Z
_TEXT	SEGMENT
__First$ = 8						; size = 4
__Last$ = 12						; size = 4
__Pred$ = 16						; size = 1
??$_Pop_heap@PAPAUEmoticonInfo@@VEmoticonInfoSort@@@std@@YAXPAPAUEmoticonInfo@@0VEmoticonInfoSort@@@Z PROC ; std::_Pop_heap<EmoticonInfo * *,EmoticonInfoSort>, COMDAT

; 2610 : 	{	// pop *_First to *(_Last - 1) and reheap, using _Pred

  00000	55		 push	 ebp
  00001	8b ec		 mov	 ebp, esp

; 2611 : 	_Pop_heap_0(_Unchecked(_First), _Unchecked(_Last), _Pred,
; 2612 : 		_Val_type(_First));

  00003	6a 00		 push	 0
  00005	ff 75 10	 push	 DWORD PTR __Pred$[ebp]
  00008	ff 75 0c	 push	 DWORD PTR __Last$[ebp]
  0000b	ff 75 08	 push	 DWORD PTR __First$[ebp]
  0000e	e8 00 00 00 00	 call	 ??$_Pop_heap_0@PAPAUEmoticonInfo@@PAU1@VEmoticonInfoSort@@@std@@YAXPAPAUEmoticonInfo@@0VEmoticonInfoSort@@0@Z ; std::_Pop_heap_0<EmoticonInfo * *,EmoticonInfo *,EmoticonInfoSort>
  00013	83 c4 10	 add	 esp, 16			; 00000010H

; 2613 : 	}

  00016	5d		 pop	 ebp
  00017	c3		 ret	 0
??$_Pop_heap@PAPAUEmoticonInfo@@VEmoticonInfoSort@@@std@@YAXPAPAUEmoticonInfo@@0VEmoticonInfoSort@@@Z ENDP ; std::_Pop_heap<EmoticonInfo * *,EmoticonInfoSort>
_TEXT	ENDS
PUBLIC	??$_Dest_val@V?$allocator@VioHashString@@@std@@VioHashString@@@std@@YAXAAV?$allocator@VioHashString@@@0@PAVioHashString@@@Z ; std::_Dest_val<std::allocator<ioHashString>,ioHashString>
; Function compile flags: /Ogsp
; File c:\program files (x86)\microsoft visual studio 10.0\vc\include\xmemory
;	COMDAT ??$_Dest_val@V?$allocator@VioHashString@@@std@@VioHashString@@@std@@YAXAAV?$allocator@VioHashString@@@0@PAVioHashString@@@Z
_TEXT	SEGMENT
__Alval$ = 8						; size = 4
__Pdest$ = 12						; size = 4
??$_Dest_val@V?$allocator@VioHashString@@@std@@VioHashString@@@std@@YAXAAV?$allocator@VioHashString@@@0@PAVioHashString@@@Z PROC ; std::_Dest_val<std::allocator<ioHashString>,ioHashString>, COMDAT

; 286  : 	{	// destroy using allocator

  00000	55		 push	 ebp
  00001	8b ec		 mov	 ebp, esp

; 287  : 	_Alval.destroy(_Pdest);

  00003	8b 4d 0c	 mov	 ecx, DWORD PTR __Pdest$[ebp]

; 288  : 	}

  00006	5d		 pop	 ebp

; 287  : 	_Alval.destroy(_Pdest);

  00007	ff 25 00 00 00
	00		 jmp	 DWORD PTR __imp_??1ioHashString@@QAE@XZ
??$_Dest_val@V?$allocator@VioHashString@@@std@@VioHashString@@@std@@YAXAAV?$allocator@VioHashString@@@0@PAVioHashString@@@Z ENDP ; std::_Dest_val<std::allocator<ioHashString>,ioHashString>
_TEXT	ENDS
PUBLIC	?GetEmoticonInfoByList@ioCharEmoticon@@IAEPAUEmoticonInfo@@XZ ; ioCharEmoticon::GetEmoticonInfoByList
; Function compile flags: /Ogsp
; File d:\lost saga for developer\youtube\tutorial\source\src\lsclient\iocharemoticon.cpp
;	COMDAT ?GetEmoticonInfoByList@ioCharEmoticon@@IAEPAUEmoticonInfo@@XZ
_TEXT	SEGMENT
$T537947 = -4						; size = 4
?GetEmoticonInfoByList@ioCharEmoticon@@IAEPAUEmoticonInfo@@XZ PROC ; ioCharEmoticon::GetEmoticonInfoByList, COMDAT
; _this$ = ecx

; 1410 : {

  00000	55		 push	 ebp
  00001	8b ec		 mov	 ebp, esp
  00003	51		 push	 ecx

; 1411 : 	int iSize = m_ReserveEmoticonList.size();

  00004	8b 81 00 01 00
	00		 mov	 eax, DWORD PTR [ecx+256]
  0000a	81 c1 fc 00 00
	00		 add	 ecx, 252		; 000000fcH
  00010	2b 01		 sub	 eax, DWORD PTR [ecx]

; 1412 : 	if( iSize == 0 ) return NULL;

  00012	a9 fc ff ff ff	 test	 eax, -4			; fffffffcH
  00017	75 04		 jne	 SHORT $LN1@GetEmotico@2
  00019	33 c0		 xor	 eax, eax

; 1420 : }

  0001b	c9		 leave
  0001c	c3		 ret	 0
$LN1@GetEmotico@2:

; 1413 : 
; 1414 : 	EmoticonInfoList::iterator iter = m_ReserveEmoticonList.begin();

  0001d	8b 01		 mov	 eax, DWORD PTR [ecx]
  0001f	56		 push	 esi

; 1415 : 
; 1416 : 	EmoticonInfo *pInfo = (*iter);

  00020	8b 30		 mov	 esi, DWORD PTR [eax]

; 1417 : 	m_ReserveEmoticonList.erase( iter );

  00022	50		 push	 eax
  00023	8d 45 fc	 lea	 eax, DWORD PTR $T537947[ebp]
  00026	50		 push	 eax
  00027	e8 00 00 00 00	 call	 ?erase@?$vector@PAUEmoticonInfo@@V?$allocator@PAUEmoticonInfo@@@std@@@std@@QAE?AV?$_Vector_iterator@V?$_Vector_val@PAUEmoticonInfo@@V?$allocator@PAUEmoticonInfo@@@std@@@std@@@2@V?$_Vector_const_iterator@V?$_Vector_val@PAUEmoticonInfo@@V?$allocator@PAUEmoticonInfo@@@std@@@std@@@2@@Z ; std::vector<EmoticonInfo *,std::allocator<EmoticonInfo *> >::erase

; 1418 : 
; 1419 : 	return pInfo;

  0002c	8b c6		 mov	 eax, esi
  0002e	5e		 pop	 esi

; 1420 : }

  0002f	c9		 leave
  00030	c3		 ret	 0
?GetEmoticonInfoByList@ioCharEmoticon@@IAEPAUEmoticonInfo@@XZ ENDP ; ioCharEmoticon::GetEmoticonInfoByList
_TEXT	ENDS
PUBLIC	?UpdateInfoList@ioCharEmoticon@@IAEXXZ		; ioCharEmoticon::UpdateInfoList
; Function compile flags: /Ogsp
;	COMDAT ?UpdateInfoList@ioCharEmoticon@@IAEXXZ
_TEXT	SEGMENT
$T537993 = -8						; size = 4
_dwCurTime$ = -4					; size = 4
?UpdateInfoList@ioCharEmoticon@@IAEXXZ PROC		; ioCharEmoticon::UpdateInfoList, COMDAT
; _this$ = ecx

; 1423 : {

  00000	55		 push	 ebp
  00001	8b ec		 mov	 ebp, esp
  00003	51		 push	 ecx
  00004	51		 push	 ecx
  00005	53		 push	 ebx
  00006	56		 push	 esi
  00007	8b d9		 mov	 ebx, ecx

; 1424 : 	DWORD dwCurTime = FRAMEGETTIME();

  00009	ff 15 00 00 00
	00		 call	 DWORD PTR __imp_?GetSingleton@ioFrameTimer@@SAAAV1@XZ
  0000f	8b c8		 mov	 ecx, eax
  00011	ff 15 00 00 00
	00		 call	 DWORD PTR __imp_?GetLoopSec@ioFrameTimer@@QBEKXZ

; 1425 : 	EmoticonInfoList::iterator iter = m_ReserveEmoticonList.begin();

  00017	8b b3 fc 00 00
	00		 mov	 esi, DWORD PTR [ebx+252]
  0001d	89 45 fc	 mov	 DWORD PTR _dwCurTime$[ebp], eax

; 1426 : 
; 1427 : 	while( iter != m_ReserveEmoticonList.end() )

  00020	3b b3 00 01 00
	00		 cmp	 esi, DWORD PTR [ebx+256]
  00026	74 42		 je	 SHORT $LN4@UpdateInfo
  00028	57		 push	 edi
$LL5@UpdateInfo:

; 1428 : 	{
; 1429 : 		EmoticonInfo* pInfo = (*iter);

  00029	8b 3e		 mov	 edi, DWORD PTR [esi]

; 1430 : 		if( pInfo->m_dwStartTime > 0 )

  0002b	8b 47 3c	 mov	 eax, DWORD PTR [edi+60]
  0002e	85 c0		 test	 eax, eax
  00030	74 2c		 je	 SHORT $LN2@UpdateInfo

; 1431 : 		{
; 1432 : 			DWORD dwEndTime = pInfo->m_dwStartTime + pInfo->m_dwDuration;

  00032	8b 4f 40	 mov	 ecx, DWORD PTR [edi+64]
  00035	03 c8		 add	 ecx, eax

; 1433 : 			if( dwEndTime < dwCurTime )

  00037	3b 4d fc	 cmp	 ecx, DWORD PTR _dwCurTime$[ebp]
  0003a	73 22		 jae	 SHORT $LN2@UpdateInfo

; 1434 : 			{
; 1435 : 				SAFEDELETE(pInfo);

  0003c	8b cf		 mov	 ecx, edi
  0003e	e8 00 00 00 00	 call	 ??1EmoticonInfo@@QAE@XZ
  00043	57		 push	 edi
  00044	e8 00 00 00 00	 call	 ??3@YAXPAX@Z		; operator delete
  00049	59		 pop	 ecx

; 1436 : 				iter = m_ReserveEmoticonList.erase(iter);

  0004a	56		 push	 esi
  0004b	8d 45 f8	 lea	 eax, DWORD PTR $T537993[ebp]
  0004e	50		 push	 eax
  0004f	8d 8b fc 00 00
	00		 lea	 ecx, DWORD PTR [ebx+252]
  00055	e8 00 00 00 00	 call	 ?erase@?$vector@PAUEmoticonInfo@@V?$allocator@PAUEmoticonInfo@@@std@@@std@@QAE?AV?$_Vector_iterator@V?$_Vector_val@PAUEmoticonInfo@@V?$allocator@PAUEmoticonInfo@@@std@@@std@@@2@V?$_Vector_const_iterator@V?$_Vector_val@PAUEmoticonInfo@@V?$allocator@PAUEmoticonInfo@@@std@@@std@@@2@@Z ; std::vector<EmoticonInfo *,std::allocator<EmoticonInfo *> >::erase
  0005a	8b 30		 mov	 esi, DWORD PTR [eax]

; 1437 : 				continue;

  0005c	eb 03		 jmp	 SHORT $LN45@UpdateInfo
$LN2@UpdateInfo:

; 1438 : 			}
; 1439 : 		}
; 1440 : 
; 1441 : 		++iter;

  0005e	83 c6 04	 add	 esi, 4
$LN45@UpdateInfo:

; 1426 : 
; 1427 : 	while( iter != m_ReserveEmoticonList.end() )

  00061	3b b3 00 01 00
	00		 cmp	 esi, DWORD PTR [ebx+256]
  00067	75 c0		 jne	 SHORT $LL5@UpdateInfo
  00069	5f		 pop	 edi
$LN4@UpdateInfo:
  0006a	5e		 pop	 esi
  0006b	5b		 pop	 ebx

; 1442 : 	}
; 1443 : }

  0006c	c9		 leave
  0006d	c3		 ret	 0
?UpdateInfoList@ioCharEmoticon@@IAEXXZ ENDP		; ioCharEmoticon::UpdateInfoList
_TEXT	ENDS
PUBLIC	?SetReserveEmoticon@ioCharEmoticon@@IAEXXZ	; ioCharEmoticon::SetReserveEmoticon
; Function compile flags: /Ogsp
;	COMDAT ?SetReserveEmoticon@ioCharEmoticon@@IAEXXZ
_TEXT	SEGMENT
?SetReserveEmoticon@ioCharEmoticon@@IAEXXZ PROC		; ioCharEmoticon::SetReserveEmoticon, COMDAT
; _this$ = ecx

; 1805 : {

  00000	56		 push	 esi
  00001	57		 push	 edi
  00002	8b f1		 mov	 esi, ecx

; 1806 : 	EmoticonInfo *pInfo = GetEmoticonInfoByList();

  00004	e8 00 00 00 00	 call	 ?GetEmoticonInfoByList@ioCharEmoticon@@IAEPAUEmoticonInfo@@XZ ; ioCharEmoticon::GetEmoticonInfoByList
  00009	8b f8		 mov	 edi, eax

; 1807 : 	if( !pInfo ) return;

  0000b	85 ff		 test	 edi, edi
  0000d	74 6f		 je	 SHORT $LN2@SetReserve

; 1808 : 
; 1809 : 	ioUIRenderImage *pEmoticon = g_UIImageSetMgr.CreateImageByFullName( pInfo->m_EmoticonName );

  0000f	6a 00		 push	 0
  00011	57		 push	 edi
  00012	ff 15 00 00 00
	00		 call	 DWORD PTR __imp_?GetSingleton@ioUIImageSetManager@@SAAAV1@XZ
  00018	8b c8		 mov	 ecx, eax
  0001a	ff 15 00 00 00
	00		 call	 DWORD PTR __imp_?CreateImageByFullName@ioUIImageSetManager@@QAEPAVioUIRenderImage@@ABVioHashString@@_N@Z

; 1810 : 	if( !pEmoticon )

  00020	85 c0		 test	 eax, eax
  00022	75 10		 jne	 SHORT $LN7@SetReserve

; 1811 : 	{
; 1812 : 		SAFEDELETE(pInfo);

  00024	8b cf		 mov	 ecx, edi
  00026	e8 00 00 00 00	 call	 ??1EmoticonInfo@@QAE@XZ
  0002b	57		 push	 edi
  0002c	e8 00 00 00 00	 call	 ??3@YAXPAX@Z		; operator delete
  00031	59		 pop	 ecx

; 1813 : 		return;

  00032	eb 4a		 jmp	 SHORT $LN2@SetReserve
$LN7@SetReserve:

; 1814 : 	}
; 1815 : 
; 1816 : 	m_pCurEmoticonInfo = pInfo;
; 1817 : 	m_pEmoticon = pEmoticon;
; 1818 : 
; 1819 : 	CheckEmoticonBackImage();

  00034	8b ce		 mov	 ecx, esi
  00036	89 be f8 00 00
	00		 mov	 DWORD PTR [esi+248], edi
  0003c	89 06		 mov	 DWORD PTR [esi], eax
  0003e	e8 00 00 00 00	 call	 ?CheckEmoticonBackImage@ioCharEmoticon@@IAEXXZ ; ioCharEmoticon::CheckEmoticonBackImage

; 1820 : 
; 1821 : 	// Scale
; 1822 : 	m_fCurStartScale = m_fEmoticonEndScale;

  00043	f3 0f 10 05 00
	00 00 00	 movss	 xmm0, DWORD PTR ?m_fEmoticonEndScale@ioCharEmoticon@@1MA

; 1823 : 	m_dwCurScaleDuration = 0;
; 1824 : 
; 1825 : 	if( m_pEmoticon )

  0004b	8b 0e		 mov	 ecx, DWORD PTR [esi]
  0004d	83 66 18 00	 and	 DWORD PTR [esi+24], 0
  00051	f3 0f 11 46 1c	 movss	 DWORD PTR [esi+28], xmm0
  00056	85 c9		 test	 ecx, ecx
  00058	74 0b		 je	 SHORT $LN5@SetReserve

; 1826 : 		m_pEmoticon->SetScale( m_fCurStartScale );

  0005a	8b 01		 mov	 eax, DWORD PTR [ecx]
  0005c	51		 push	 ecx
  0005d	f3 0f 11 04 24	 movss	 DWORD PTR [esp], xmm0
  00062	ff 50 1c	 call	 DWORD PTR [eax+28]
$LN5@SetReserve:

; 1827 : 
; 1828 : 	switch( m_pCurEmoticonInfo->m_Type )

  00065	8b 86 f8 00 00
	00		 mov	 eax, DWORD PTR [esi+248]
  0006b	33 c9		 xor	 ecx, ecx
  0006d	83 78 10 0a	 cmp	 DWORD PTR [eax+16], 10	; 0000000aH
  00071	0f 94 c1	 sete	 cl
  00074	8d 0c 8d 01 00
	00 00		 lea	 ecx, DWORD PTR [ecx*4+1]
  0007b	89 4e 68	 mov	 DWORD PTR [esi+104], ecx
$LN2@SetReserve:

; 1829 : 	{
; 1830 : 	case EMT_NAMED_UNLIMITED_ICON:
; 1831 : 		m_State = ES_UNLIMITED;
; 1832 : 		break;
; 1833 : 	default:
; 1834 : 		m_State = ES_SCALE;
; 1835 : 		break;
; 1836 : 	}
; 1837 : }

  0007e	5f		 pop	 edi
  0007f	5e		 pop	 esi
  00080	c3		 ret	 0
?SetReserveEmoticon@ioCharEmoticon@@IAEXXZ ENDP		; ioCharEmoticon::SetReserveEmoticon
_TEXT	ENDS
PUBLIC	?clear@?$vector@PAUEmoticonInfo@@V?$allocator@PAUEmoticonInfo@@@std@@@std@@QAEXXZ ; std::vector<EmoticonInfo *,std::allocator<EmoticonInfo *> >::clear
; Function compile flags: /Ogsp
; File c:\program files (x86)\microsoft visual studio 10.0\vc\include\vector
;	COMDAT ?clear@?$vector@PAUEmoticonInfo@@V?$allocator@PAUEmoticonInfo@@@std@@@std@@QAEXXZ
_TEXT	SEGMENT
$T538100 = -4						; size = 4
?clear@?$vector@PAUEmoticonInfo@@V?$allocator@PAUEmoticonInfo@@@std@@@std@@QAEXXZ PROC ; std::vector<EmoticonInfo *,std::allocator<EmoticonInfo *> >::clear, COMDAT
; _this$ = ecx

; 1217 : 		{	// erase all

  00000	55		 push	 ebp
  00001	8b ec		 mov	 ebp, esp
  00003	51		 push	 ecx

; 1218 : 		erase(begin(), end());

  00004	8b 41 04	 mov	 eax, DWORD PTR [ecx+4]
  00007	8b 11		 mov	 edx, DWORD PTR [ecx]
  00009	50		 push	 eax
  0000a	52		 push	 edx
  0000b	8d 45 fc	 lea	 eax, DWORD PTR $T538100[ebp]
  0000e	50		 push	 eax
  0000f	e8 00 00 00 00	 call	 ?erase@?$vector@PAUEmoticonInfo@@V?$allocator@PAUEmoticonInfo@@@std@@@std@@QAE?AV?$_Vector_iterator@V?$_Vector_val@PAUEmoticonInfo@@V?$allocator@PAUEmoticonInfo@@@std@@@std@@@2@V?$_Vector_const_iterator@V?$_Vector_val@PAUEmoticonInfo@@V?$allocator@PAUEmoticonInfo@@@std@@@std@@@2@0@Z ; std::vector<EmoticonInfo *,std::allocator<EmoticonInfo *> >::erase

; 1219 : 		}

  00014	c9		 leave
  00015	c3		 ret	 0
?clear@?$vector@PAUEmoticonInfo@@V?$allocator@PAUEmoticonInfo@@@std@@@std@@QAEXXZ ENDP ; std::vector<EmoticonInfo *,std::allocator<EmoticonInfo *> >::clear
_TEXT	ENDS
PUBLIC	?_Reserve@?$vector@PAUEmoticonInfo@@V?$allocator@PAUEmoticonInfo@@@std@@@std@@IAEXI@Z ; std::vector<EmoticonInfo *,std::allocator<EmoticonInfo *> >::_Reserve
; Function compile flags: /Ogsp
;	COMDAT ?_Reserve@?$vector@PAUEmoticonInfo@@V?$allocator@PAUEmoticonInfo@@@std@@@std@@IAEXI@Z
_TEXT	SEGMENT
__Count$ = 8						; size = 4
?_Reserve@?$vector@PAUEmoticonInfo@@V?$allocator@PAUEmoticonInfo@@@std@@@std@@IAEXI@Z PROC ; std::vector<EmoticonInfo *,std::allocator<EmoticonInfo *> >::_Reserve, COMDAT
; _this$ = ecx

; 1290 : 		{	// ensure room for _Count new elements, grow exponentially

  00000	55		 push	 ebp
  00001	8b ec		 mov	 ebp, esp
  00003	56		 push	 esi
  00004	8b f1		 mov	 esi, ecx

; 1291 : 		size_type _Size = size();

  00006	8b 0e		 mov	 ecx, DWORD PTR [esi]
  00008	8b 46 04	 mov	 eax, DWORD PTR [esi+4]
  0000b	2b c1		 sub	 eax, ecx

; 1292 : 		if (max_size() - _Count < _Size)

  0000d	ba ff ff ff 3f	 mov	 edx, 1073741823		; 3fffffffH
  00012	2b 55 08	 sub	 edx, DWORD PTR __Count$[ebp]
  00015	c1 f8 02	 sar	 eax, 2
  00018	3b d0		 cmp	 edx, eax
  0001a	73 0b		 jae	 SHORT $LN4@Reserve

; 1293 : 			_Xlen();

  0001c	68 00 00 00 00	 push	 OFFSET ??_C@_0BD@OLBABOEK@vector?$DMT?$DO?5too?5long?$AA@
  00021	ff 15 00 00 00
	00		 call	 DWORD PTR __imp_?_Xlength_error@std@@YAXPBD@Z
$LN21@Reserve:
$LN4@Reserve:

; 1294 : 		else if ((_Size += _Count) <= capacity())

  00027	8b 56 08	 mov	 edx, DWORD PTR [esi+8]
  0002a	03 45 08	 add	 eax, DWORD PTR __Count$[ebp]
  0002d	2b d1		 sub	 edx, ecx
  0002f	c1 fa 02	 sar	 edx, 2
  00032	3b c2		 cmp	 eax, edx
  00034	76 10		 jbe	 SHORT $LN1@Reserve

; 1295 : 			;
; 1296 : 		else
; 1297 : 			reserve(_Grow_to(_Size));

  00036	50		 push	 eax
  00037	8b ce		 mov	 ecx, esi
  00039	e8 00 00 00 00	 call	 ?_Grow_to@?$vector@PAUEmoticonInfo@@V?$allocator@PAUEmoticonInfo@@@std@@@std@@IBEII@Z ; std::vector<EmoticonInfo *,std::allocator<EmoticonInfo *> >::_Grow_to
  0003e	50		 push	 eax
  0003f	8b ce		 mov	 ecx, esi
  00041	e8 00 00 00 00	 call	 ?reserve@?$vector@PAUEmoticonInfo@@V?$allocator@PAUEmoticonInfo@@@std@@@std@@QAEXI@Z ; std::vector<EmoticonInfo *,std::allocator<EmoticonInfo *> >::reserve
$LN1@Reserve:
  00046	5e		 pop	 esi

; 1298 : 		}

  00047	5d		 pop	 ebp
  00048	c2 04 00	 ret	 4
$LN20@Reserve:
?_Reserve@?$vector@PAUEmoticonInfo@@V?$allocator@PAUEmoticonInfo@@@std@@@std@@IAEXI@Z ENDP ; std::vector<EmoticonInfo *,std::allocator<EmoticonInfo *> >::_Reserve
_TEXT	ENDS
PUBLIC	??$_Unguarded_partition@PAPAUEmoticonInfo@@VEmoticonInfoSort@@@std@@YA?AU?$pair@PAPAUEmoticonInfo@@PAPAU1@@0@PAPAUEmoticonInfo@@0VEmoticonInfoSort@@@Z ; std::_Unguarded_partition<EmoticonInfo * *,EmoticonInfoSort>
; Function compile flags: /Ogsp
; File c:\program files (x86)\microsoft visual studio 10.0\vc\include\algorithm
;	COMDAT ??$_Unguarded_partition@PAPAUEmoticonInfo@@VEmoticonInfoSort@@@std@@YA?AU?$pair@PAPAUEmoticonInfo@@PAPAU1@@0@PAPAUEmoticonInfo@@0VEmoticonInfoSort@@@Z
_TEXT	SEGMENT
tv291 = -8						; size = 4
tv266 = -8						; size = 4
__Tmp$538342 = -8					; size = 4
__Glast$ = -4						; size = 4
___$ReturnUdt$ = 8					; size = 4
__First$ = 12						; size = 4
__Last$ = 16						; size = 4
__Pred$ = 20						; size = 1
??$_Unguarded_partition@PAPAUEmoticonInfo@@VEmoticonInfoSort@@@std@@YA?AU?$pair@PAPAUEmoticonInfo@@PAPAU1@@0@PAPAUEmoticonInfo@@0VEmoticonInfoSort@@@Z PROC ; std::_Unguarded_partition<EmoticonInfo * *,EmoticonInfoSort>, COMDAT

; 3712 : 	{	// partition [_First, _Last), using _Pred

  00000	55		 push	 ebp
  00001	8b ec		 mov	 ebp, esp
  00003	51		 push	 ecx
  00004	51		 push	 ecx

; 3713 : 	_RanIt _Mid = _First + (_Last - _First) / 2;

  00005	8b 4d 10	 mov	 ecx, DWORD PTR __Last$[ebp]
  00008	53		 push	 ebx
  00009	56		 push	 esi
  0000a	57		 push	 edi
  0000b	8b 7d 0c	 mov	 edi, DWORD PTR __First$[ebp]

; 3714 : 	_Median(_First, _Mid, _Last - 1, _Pred);

  0000e	ff 75 14	 push	 DWORD PTR __Pred$[ebp]
  00011	8b c1		 mov	 eax, ecx
  00013	2b c7		 sub	 eax, edi
  00015	c1 f8 02	 sar	 eax, 2
  00018	99		 cdq
  00019	2b c2		 sub	 eax, edx
  0001b	d1 f8		 sar	 eax, 1
  0001d	83 c1 fc	 add	 ecx, -4			; fffffffcH
  00020	51		 push	 ecx
  00021	8d 34 87	 lea	 esi, DWORD PTR [edi+eax*4]
  00024	56		 push	 esi
  00025	57		 push	 edi
  00026	e8 00 00 00 00	 call	 ??$_Median@PAPAUEmoticonInfo@@VEmoticonInfoSort@@@std@@YAXPAPAUEmoticonInfo@@00VEmoticonInfoSort@@@Z ; std::_Median<EmoticonInfo * *,EmoticonInfoSort>
  0002b	83 c4 10	 add	 esp, 16			; 00000010H

; 3715 : 	_RanIt _Pfirst = _Mid;
; 3716 : 	_RanIt _Plast = _Pfirst + 1;

  0002e	8d 5e 04	 lea	 ebx, DWORD PTR [esi+4]
  00031	eb 2c		 jmp	 SHORT $LN130@Unguarded_
$LL27@Unguarded_:

; 3717 : 
; 3718 : 	while (_First < _Pfirst
; 3719 : 		&& !_DEBUG_LT_PRED(_Pred, *(_Pfirst - 1), *_Pfirst)
; 3720 : 		&& !_Pred(*_Pfirst, *(_Pfirst - 1)))

  00033	ff 36		 push	 DWORD PTR [esi]
  00035	8d 46 fc	 lea	 eax, DWORD PTR [esi-4]
  00038	ff 30		 push	 DWORD PTR [eax]
  0003a	8d 4d 14	 lea	 ecx, DWORD PTR __Pred$[ebp]
  0003d	89 45 f8	 mov	 DWORD PTR tv266[ebp], eax
  00040	e8 00 00 00 00	 call	 ??REmoticonInfoSort@@QBE_NPBUEmoticonInfo@@0@Z ; EmoticonInfoSort::operator()
  00045	84 c0		 test	 al, al
  00047	75 3f		 jne	 SHORT $LN131@Unguarded_
  00049	8b 45 f8	 mov	 eax, DWORD PTR tv266[ebp]
  0004c	ff 30		 push	 DWORD PTR [eax]
  0004e	8d 4d 14	 lea	 ecx, DWORD PTR __Pred$[ebp]
  00051	ff 36		 push	 DWORD PTR [esi]
  00053	e8 00 00 00 00	 call	 ??REmoticonInfoSort@@QBE_NPBUEmoticonInfo@@0@Z ; EmoticonInfoSort::operator()
  00058	84 c0		 test	 al, al
  0005a	75 2c		 jne	 SHORT $LN131@Unguarded_

; 3721 : 		--_Pfirst;

  0005c	8b 75 f8	 mov	 esi, DWORD PTR tv266[ebp]
$LN130@Unguarded_:

; 3717 : 
; 3718 : 	while (_First < _Pfirst
; 3719 : 		&& !_DEBUG_LT_PRED(_Pred, *(_Pfirst - 1), *_Pfirst)
; 3720 : 		&& !_Pred(*_Pfirst, *(_Pfirst - 1)))

  0005f	3b fe		 cmp	 edi, esi
  00061	72 d0		 jb	 SHORT $LL27@Unguarded_

; 3725 : 		++_Plast;

  00063	eb 23		 jmp	 SHORT $LN131@Unguarded_
$LL25@Unguarded_:

; 3722 : 	while (_Plast < _Last
; 3723 : 		&& !_DEBUG_LT_PRED(_Pred, *_Plast, *_Pfirst)
; 3724 : 		&& !_Pred(*_Pfirst, *_Plast))

  00065	ff 36		 push	 DWORD PTR [esi]
  00067	8d 4d 14	 lea	 ecx, DWORD PTR __Pred$[ebp]
  0006a	ff 33		 push	 DWORD PTR [ebx]
  0006c	e8 00 00 00 00	 call	 ??REmoticonInfoSort@@QBE_NPBUEmoticonInfo@@0@Z ; EmoticonInfoSort::operator()
  00071	84 c0		 test	 al, al
  00073	75 18		 jne	 SHORT $LN24@Unguarded_
  00075	ff 33		 push	 DWORD PTR [ebx]
  00077	8d 4d 14	 lea	 ecx, DWORD PTR __Pred$[ebp]
  0007a	ff 36		 push	 DWORD PTR [esi]
  0007c	e8 00 00 00 00	 call	 ??REmoticonInfoSort@@QBE_NPBUEmoticonInfo@@0@Z ; EmoticonInfoSort::operator()
  00081	84 c0		 test	 al, al
  00083	75 08		 jne	 SHORT $LN24@Unguarded_

; 3725 : 		++_Plast;

  00085	83 c3 04	 add	 ebx, 4
$LN131@Unguarded_:

; 3722 : 	while (_Plast < _Last
; 3723 : 		&& !_DEBUG_LT_PRED(_Pred, *_Plast, *_Pfirst)
; 3724 : 		&& !_Pred(*_Pfirst, *_Plast))

  00088	3b 5d 10	 cmp	 ebx, DWORD PTR __Last$[ebp]
  0008b	72 d8		 jb	 SHORT $LL25@Unguarded_
$LN24@Unguarded_:

; 3726 : 
; 3727 : 	_RanIt _Gfirst = _Plast;

  0008d	8b fb		 mov	 edi, ebx

; 3728 : 	_RanIt _Glast = _Pfirst;

  0008f	89 75 fc	 mov	 DWORD PTR __Glast$[ebp], esi

; 3729 : 
; 3730 : 	for (; ; )
; 3731 : 		{	// partition
; 3732 : 		for (; _Gfirst < _Last; ++_Gfirst)

  00092	eb 30		 jmp	 SHORT $LN132@Unguarded_
$LL21@Unguarded_:

; 3733 : 			if (_DEBUG_LT_PRED(_Pred, *_Pfirst, *_Gfirst))

  00094	ff 37		 push	 DWORD PTR [edi]
  00096	8d 4d 14	 lea	 ecx, DWORD PTR __Pred$[ebp]
  00099	ff 36		 push	 DWORD PTR [esi]
  0009b	e8 00 00 00 00	 call	 ??REmoticonInfoSort@@QBE_NPBUEmoticonInfo@@0@Z ; EmoticonInfoSort::operator()
  000a0	84 c0		 test	 al, al
  000a2	75 1d		 jne	 SHORT $LN20@Unguarded_

; 3734 : 				;
; 3735 : 			else if (_Pred(*_Gfirst, *_Pfirst))

  000a4	ff 36		 push	 DWORD PTR [esi]
  000a6	8d 4d 14	 lea	 ecx, DWORD PTR __Pred$[ebp]
  000a9	ff 37		 push	 DWORD PTR [edi]
  000ab	e8 00 00 00 00	 call	 ??REmoticonInfoSort@@QBE_NPBUEmoticonInfo@@0@Z ; EmoticonInfoSort::operator()
  000b0	84 c0		 test	 al, al
  000b2	75 15		 jne	 SHORT $LN126@Unguarded_

; 3736 : 				break;
; 3737 : 			else
; 3738 : 				_STD iter_swap(_Plast++, _Gfirst);

  000b4	8b 17		 mov	 edx, DWORD PTR [edi]
  000b6	8b c3		 mov	 eax, ebx
  000b8	8b 08		 mov	 ecx, DWORD PTR [eax]
  000ba	89 10		 mov	 DWORD PTR [eax], edx
  000bc	89 0f		 mov	 DWORD PTR [edi], ecx
$LN133@Unguarded_:
  000be	83 c3 04	 add	 ebx, 4
$LN20@Unguarded_:

; 3729 : 
; 3730 : 	for (; ; )
; 3731 : 		{	// partition
; 3732 : 		for (; _Gfirst < _Last; ++_Gfirst)

  000c1	83 c7 04	 add	 edi, 4
$LN132@Unguarded_:
  000c4	3b 7d 10	 cmp	 edi, DWORD PTR __Last$[ebp]
  000c7	72 cb		 jb	 SHORT $LL21@Unguarded_
$LN126@Unguarded_:

; 3739 : 		for (; _First < _Glast; --_Glast)

  000c9	8b 45 0c	 mov	 eax, DWORD PTR __First$[ebp]
  000cc	3b 45 fc	 cmp	 eax, DWORD PTR __Glast$[ebp]
  000cf	73 47		 jae	 SHORT $LN129@Unguarded_
$LL127@Unguarded_:
  000d1	8b 45 fc	 mov	 eax, DWORD PTR __Glast$[ebp]

; 3740 : 			if (_DEBUG_LT_PRED(_Pred, *(_Glast - 1), *_Pfirst))

  000d4	ff 36		 push	 DWORD PTR [esi]
  000d6	83 c0 fc	 add	 eax, -4			; fffffffcH
  000d9	ff 30		 push	 DWORD PTR [eax]
  000db	8d 4d 14	 lea	 ecx, DWORD PTR __Pred$[ebp]
  000de	89 45 f8	 mov	 DWORD PTR tv291[ebp], eax
  000e1	e8 00 00 00 00	 call	 ??REmoticonInfoSort@@QBE_NPBUEmoticonInfo@@0@Z ; EmoticonInfoSort::operator()
  000e6	84 c0		 test	 al, al
  000e8	75 23		 jne	 SHORT $LN128@Unguarded_

; 3741 : 				;
; 3742 : 			else if (_Pred(*_Pfirst, *(_Glast - 1)))

  000ea	8b 45 f8	 mov	 eax, DWORD PTR tv291[ebp]
  000ed	ff 30		 push	 DWORD PTR [eax]
  000ef	8d 4d 14	 lea	 ecx, DWORD PTR __Pred$[ebp]
  000f2	ff 36		 push	 DWORD PTR [esi]
  000f4	e8 00 00 00 00	 call	 ??REmoticonInfoSort@@QBE_NPBUEmoticonInfo@@0@Z ; EmoticonInfoSort::operator()
  000f9	84 c0		 test	 al, al
  000fb	75 1b		 jne	 SHORT $LN129@Unguarded_

; 3743 : 				break;
; 3744 : 			else
; 3745 : 				_STD iter_swap(--_Pfirst, _Glast - 1);

  000fd	8b 4d f8	 mov	 ecx, DWORD PTR tv291[ebp]
  00100	8b 11		 mov	 edx, DWORD PTR [ecx]
  00102	83 ee 04	 sub	 esi, 4
  00105	8b 06		 mov	 eax, DWORD PTR [esi]
  00107	89 16		 mov	 DWORD PTR [esi], edx
  00109	89 01		 mov	 DWORD PTR [ecx], eax
  0010b	eb 03		 jmp	 SHORT $LN13@Unguarded_
$LN128@Unguarded_:
  0010d	8b 4d f8	 mov	 ecx, DWORD PTR tv291[ebp]
$LN13@Unguarded_:

; 3739 : 		for (; _First < _Glast; --_Glast)

  00110	89 4d fc	 mov	 DWORD PTR __Glast$[ebp], ecx
  00113	39 4d 0c	 cmp	 DWORD PTR __First$[ebp], ecx
  00116	72 b9		 jb	 SHORT $LL127@Unguarded_
$LN129@Unguarded_:

; 3746 : 		if (_Glast == _First && _Gfirst == _Last)

  00118	8b 4d fc	 mov	 ecx, DWORD PTR __Glast$[ebp]
  0011b	3b 4d 0c	 cmp	 ecx, DWORD PTR __First$[ebp]
  0011e	75 2b		 jne	 SHORT $LN6@Unguarded_
  00120	3b 7d 10	 cmp	 edi, DWORD PTR __Last$[ebp]
  00123	74 5d		 je	 SHORT $LN120@Unguarded_

; 3748 : 
; 3749 : 		if (_Glast == _First)
; 3750 : 			{	// no room at bottom, rotate pivot upward
; 3751 : 			if (_Plast != _Gfirst)

  00125	3b df		 cmp	 ebx, edi
  00127	74 08		 je	 SHORT $LN64@Unguarded_

; 3752 : 				_STD iter_swap(_Pfirst, _Plast);

  00129	8b 0b		 mov	 ecx, DWORD PTR [ebx]
  0012b	8b 06		 mov	 eax, DWORD PTR [esi]
  0012d	89 0e		 mov	 DWORD PTR [esi], ecx
  0012f	89 03		 mov	 DWORD PTR [ebx], eax
$LN64@Unguarded_:

; 3753 : 			++_Plast;
; 3754 : 			_STD iter_swap(_Pfirst++, _Gfirst++);

  00131	8b ce		 mov	 ecx, esi
  00133	8b 11		 mov	 edx, DWORD PTR [ecx]
  00135	8b c7		 mov	 eax, edi
  00137	89 55 f8	 mov	 DWORD PTR __Tmp$538342[ebp], edx
  0013a	8b 10		 mov	 edx, DWORD PTR [eax]
  0013c	89 11		 mov	 DWORD PTR [ecx], edx
  0013e	8b 4d f8	 mov	 ecx, DWORD PTR __Tmp$538342[ebp]
  00141	83 c6 04	 add	 esi, 4
  00144	89 08		 mov	 DWORD PTR [eax], ecx
  00146	e9 73 ff ff ff	 jmp	 $LN133@Unguarded_
$LN6@Unguarded_:

; 3755 : 			}
; 3756 : 		else if (_Gfirst == _Last)
; 3757 : 			{	// no room at top, rotate pivot downward
; 3758 : 			if (--_Glast != --_Pfirst)

  0014b	83 e9 04	 sub	 ecx, 4
  0014e	89 4d fc	 mov	 DWORD PTR __Glast$[ebp], ecx
  00151	3b 7d 10	 cmp	 edi, DWORD PTR __Last$[ebp]
  00154	75 1f		 jne	 SHORT $LN3@Unguarded_
  00156	83 ee 04	 sub	 esi, 4
  00159	3b ce		 cmp	 ecx, esi
  0015b	74 08		 je	 SHORT $LN84@Unguarded_

; 3759 : 				_STD iter_swap(_Glast, _Pfirst);

  0015d	8b 16		 mov	 edx, DWORD PTR [esi]
  0015f	8b 01		 mov	 eax, DWORD PTR [ecx]
  00161	89 11		 mov	 DWORD PTR [ecx], edx
  00163	89 06		 mov	 DWORD PTR [esi], eax
$LN84@Unguarded_:

; 3760 : 			_STD iter_swap(_Pfirst, --_Plast);

  00165	8b 06		 mov	 eax, DWORD PTR [esi]
  00167	83 eb 04	 sub	 ebx, 4
  0016a	8b 0b		 mov	 ecx, DWORD PTR [ebx]
  0016c	89 0e		 mov	 DWORD PTR [esi], ecx
  0016e	89 03		 mov	 DWORD PTR [ebx], eax

; 3761 : 			}
; 3762 : 		else

  00170	e9 4f ff ff ff	 jmp	 $LN132@Unguarded_
$LN3@Unguarded_:

; 3763 : 			_STD iter_swap(_Gfirst++, --_Glast);

  00175	8b 11		 mov	 edx, DWORD PTR [ecx]
  00177	8b 07		 mov	 eax, DWORD PTR [edi]
  00179	89 17		 mov	 DWORD PTR [edi], edx
  0017b	89 01		 mov	 DWORD PTR [ecx], eax

; 3764 : 		}

  0017d	e9 3f ff ff ff	 jmp	 $LN20@Unguarded_
$LN120@Unguarded_:

; 3747 : 			return (_STD pair<_RanIt, _RanIt>(_Pfirst, _Plast));

  00182	8b 45 08	 mov	 eax, DWORD PTR ___$ReturnUdt$[ebp]
  00185	5f		 pop	 edi
  00186	89 30		 mov	 DWORD PTR [eax], esi
  00188	5e		 pop	 esi
  00189	89 58 04	 mov	 DWORD PTR [eax+4], ebx
  0018c	5b		 pop	 ebx

; 3765 : 	}

  0018d	c9		 leave
  0018e	c3		 ret	 0
??$_Unguarded_partition@PAPAUEmoticonInfo@@VEmoticonInfoSort@@@std@@YA?AU?$pair@PAPAUEmoticonInfo@@PAPAU1@@0@PAPAUEmoticonInfo@@0VEmoticonInfoSort@@@Z ENDP ; std::_Unguarded_partition<EmoticonInfo * *,EmoticonInfoSort>
_TEXT	ENDS
PUBLIC	??$_Uninit_move@PAVioHashString@@PAV1@V?$allocator@VioHashString@@@std@@V1@@std@@YAPAVioHashString@@PAV1@00AAV?$allocator@VioHashString@@@0@0U_Nonscalar_ptr_iterator_tag@0@@Z ; std::_Uninit_move<ioHashString *,ioHashString *,std::allocator<ioHashString>,ioHashString>
EXTRN	__EH_prolog3_catch:PROC
;	COMDAT xdata$x
; File c:\program files (x86)\microsoft visual studio 10.0\vc\include\vector
xdata$x	SEGMENT
__catchsym$??$_Uninit_move@PAVioHashString@@PAV1@V?$allocator@VioHashString@@@std@@V1@@std@@YAPAVioHashString@@PAV1@00AAV?$allocator@VioHashString@@@0@0U_Nonscalar_ptr_iterator_tag@0@@Z$2 DD 040H
	DD	00H
	DD	00H
	DD	FLAT:__catch$??$_Uninit_move@PAVioHashString@@PAV1@V?$allocator@VioHashString@@@std@@V1@@std@@YAPAVioHashString@@PAV1@00AAV?$allocator@VioHashString@@@0@0U_Nonscalar_ptr_iterator_tag@0@@Z$0
__unwindtable$??$_Uninit_move@PAVioHashString@@PAV1@V?$allocator@VioHashString@@@std@@V1@@std@@YAPAVioHashString@@PAV1@00AAV?$allocator@VioHashString@@@0@0U_Nonscalar_ptr_iterator_tag@0@@Z DD 0ffffffffH
	DD	00H
	DD	0ffffffffH
	DD	00H
__tryblocktable$??$_Uninit_move@PAVioHashString@@PAV1@V?$allocator@VioHashString@@@std@@V1@@std@@YAPAVioHashString@@PAV1@00AAV?$allocator@VioHashString@@@0@0U_Nonscalar_ptr_iterator_tag@0@@Z DD 00H
	DD	00H
	DD	01H
	DD	01H
	DD	FLAT:__catchsym$??$_Uninit_move@PAVioHashString@@PAV1@V?$allocator@VioHashString@@@std@@V1@@std@@YAPAVioHashString@@PAV1@00AAV?$allocator@VioHashString@@@0@0U_Nonscalar_ptr_iterator_tag@0@@Z$2
__ehfuncinfo$??$_Uninit_move@PAVioHashString@@PAV1@V?$allocator@VioHashString@@@std@@V1@@std@@YAPAVioHashString@@PAV1@00AAV?$allocator@VioHashString@@@0@0U_Nonscalar_ptr_iterator_tag@0@@Z DD 019930522H
	DD	02H
	DD	FLAT:__unwindtable$??$_Uninit_move@PAVioHashString@@PAV1@V?$allocator@VioHashString@@@std@@V1@@std@@YAPAVioHashString@@PAV1@00AAV?$allocator@VioHashString@@@0@0U_Nonscalar_ptr_iterator_tag@0@@Z
	DD	01H
	DD	FLAT:__tryblocktable$??$_Uninit_move@PAVioHashString@@PAV1@V?$allocator@VioHashString@@@std@@V1@@std@@YAPAVioHashString@@PAV1@00AAV?$allocator@VioHashString@@@0@0U_Nonscalar_ptr_iterator_tag@0@@Z
	DD	2 DUP(00H)
	DD	00H
	DD	01H
; Function compile flags: /Ogsp
; File c:\program files (x86)\microsoft visual studio 10.0\vc\include\memory
xdata$x	ENDS
;	COMDAT ??$_Uninit_move@PAVioHashString@@PAV1@V?$allocator@VioHashString@@@std@@V1@@std@@YAPAVioHashString@@PAV1@00AAV?$allocator@VioHashString@@@0@0U_Nonscalar_ptr_iterator_tag@0@@Z
_TEXT	SEGMENT
__Next$ = -20						; size = 4
__$EHRec$ = -16						; size = 16
__First$ = 8						; size = 4
__Last$ = 12						; size = 4
__Dest$ = 16						; size = 4
__Al$ = 20						; size = 4
___formal$ = 24						; size = 4
___formal$ = 28						; size = 1
??$_Uninit_move@PAVioHashString@@PAV1@V?$allocator@VioHashString@@@std@@V1@@std@@YAPAVioHashString@@PAV1@00AAV?$allocator@VioHashString@@@0@0U_Nonscalar_ptr_iterator_tag@0@@Z PROC ; std::_Uninit_move<ioHashString *,ioHashString *,std::allocator<ioHashString>,ioHashString>, COMDAT

; 424  : 	{	// move [_First, _Last) to raw _Dest, using _Al, arbitrary type

  00000	6a 08		 push	 8
  00002	b8 00 00 00 00	 mov	 eax, __ehhandler$??$_Uninit_move@PAVioHashString@@PAV1@V?$allocator@VioHashString@@@std@@V1@@std@@YAPAVioHashString@@PAV1@00AAV?$allocator@VioHashString@@@0@0U_Nonscalar_ptr_iterator_tag@0@@Z
  00007	e8 00 00 00 00	 call	 __EH_prolog3_catch

; 425  : 	_DEBUG_RANGE(_First, _Last);
; 426  : 	_DEBUG_POINTER(_Dest);
; 427  : 	_FwdIt _Next = _Dest;

  0000c	8b 45 10	 mov	 eax, DWORD PTR __Dest$[ebp]

; 428  : 
; 429  : 	_TRY_BEGIN

  0000f	83 65 fc 00	 and	 DWORD PTR __$EHRec$[ebp+12], 0
  00013	8b 75 08	 mov	 esi, DWORD PTR __First$[ebp]
  00016	89 45 ec	 mov	 DWORD PTR __Next$[ebp], eax
$LL6@Uninit_mov:

; 430  : 	for (; _First != _Last; ++_Dest, ++_First)

  00019	3b 75 0c	 cmp	 esi, DWORD PTR __Last$[ebp]
  0001c	74 33		 je	 SHORT $LN4@Uninit_mov

; 431  : 		_Cons_val(_Al, _Dest, (_Valty &&)*_First);

  0001e	8b 4d 14	 mov	 ecx, DWORD PTR __Al$[ebp]
  00021	56		 push	 esi
  00022	ff 75 10	 push	 DWORD PTR __Dest$[ebp]
  00025	e8 00 00 00 00	 call	 ?construct@?$allocator@VioHashString@@@std@@QAEXPAVioHashString@@$$QAV3@@Z ; std::allocator<ioHashString>::construct
  0002a	83 45 10 10	 add	 DWORD PTR __Dest$[ebp], 16 ; 00000010H
  0002e	83 c6 10	 add	 esi, 16			; 00000010H
  00031	eb e6		 jmp	 SHORT $LL6@Uninit_mov
__catch$??$_Uninit_move@PAVioHashString@@PAV1@V?$allocator@VioHashString@@@std@@V1@@std@@YAPAVioHashString@@PAV1@00AAV?$allocator@VioHashString@@@0@0U_Nonscalar_ptr_iterator_tag@0@@Z$0:

; 432  : 	_CATCH_ALL
; 433  : 	for (; _Next != _Dest; ++_Next)

  00033	8b 75 ec	 mov	 esi, DWORD PTR __Next$[ebp]
  00036	eb 0b		 jmp	 SHORT $LN33@Uninit_mov
$LL3@Uninit_mov:

; 434  : 		_Dest_val(_Al, _Next);

  00038	8b ce		 mov	 ecx, esi
  0003a	ff 15 00 00 00
	00		 call	 DWORD PTR __imp_??1ioHashString@@QAE@XZ
  00040	83 c6 10	 add	 esi, 16			; 00000010H
$LN33@Uninit_mov:

; 432  : 	_CATCH_ALL
; 433  : 	for (; _Next != _Dest; ++_Next)

  00043	3b 75 10	 cmp	 esi, DWORD PTR __Dest$[ebp]
  00046	75 f0		 jne	 SHORT $LL3@Uninit_mov

; 435  : 	_RERAISE;

  00048	6a 00		 push	 0
  0004a	6a 00		 push	 0
  0004c	e8 00 00 00 00	 call	 __CxxThrowException@8
$LN34@Uninit_mov:
$LN4@Uninit_mov:

; 436  : 	_CATCH_END
; 437  : 	return (_Dest);

  00051	8b 45 10	 mov	 eax, DWORD PTR __Dest$[ebp]

; 438  : 	}

  00054	e8 00 00 00 00	 call	 __EH_epilog3
  00059	c3		 ret	 0
$LN32@Uninit_mov:
_TEXT	ENDS
;	COMDAT text$x
text$x	SEGMENT
__ehhandler$??$_Uninit_move@PAVioHashString@@PAV1@V?$allocator@VioHashString@@@std@@V1@@std@@YAPAVioHashString@@PAV1@00AAV?$allocator@VioHashString@@@0@0U_Nonscalar_ptr_iterator_tag@0@@Z:
  00000	8b 54 24 08	 mov	 edx, DWORD PTR [esp+8]
  00004	8d 42 0c	 lea	 eax, DWORD PTR [edx+12]
  00007	8b 4a e8	 mov	 ecx, DWORD PTR [edx-24]
  0000a	33 c8		 xor	 ecx, eax
  0000c	e8 00 00 00 00	 call	 @__security_check_cookie@4
  00011	b8 00 00 00 00	 mov	 eax, OFFSET __ehfuncinfo$??$_Uninit_move@PAVioHashString@@PAV1@V?$allocator@VioHashString@@@std@@V1@@std@@YAPAVioHashString@@PAV1@00AAV?$allocator@VioHashString@@@0@0U_Nonscalar_ptr_iterator_tag@0@@Z
  00016	e9 00 00 00 00	 jmp	 ___CxxFrameHandler3
text$x	ENDS
??$_Uninit_move@PAVioHashString@@PAV1@V?$allocator@VioHashString@@@std@@V1@@std@@YAPAVioHashString@@PAV1@00AAV?$allocator@VioHashString@@@0@0U_Nonscalar_ptr_iterator_tag@0@@Z ENDP ; std::_Uninit_move<ioHashString *,ioHashString *,std::allocator<ioHashString>,ioHashString>
PUBLIC	??$_Sort_heap@PAPAUEmoticonInfo@@VEmoticonInfoSort@@@std@@YAXPAPAUEmoticonInfo@@0VEmoticonInfoSort@@@Z ; std::_Sort_heap<EmoticonInfo * *,EmoticonInfoSort>
; Function compile flags: /Ogsp
; File c:\program files (x86)\microsoft visual studio 10.0\vc\include\algorithm
;	COMDAT ??$_Sort_heap@PAPAUEmoticonInfo@@VEmoticonInfoSort@@@std@@YAXPAPAUEmoticonInfo@@0VEmoticonInfoSort@@@Z
_TEXT	SEGMENT
__First$ = 8						; size = 4
__Last$ = 12						; size = 4
__Pred$ = 16						; size = 1
??$_Sort_heap@PAPAUEmoticonInfo@@VEmoticonInfoSort@@@std@@YAXPAPAUEmoticonInfo@@0VEmoticonInfoSort@@@Z PROC ; std::_Sort_heap<EmoticonInfo * *,EmoticonInfoSort>, COMDAT

; 2700 : 	{	// order heap by repeatedly popping, using _Pred

  00000	55		 push	 ebp
  00001	8b ec		 mov	 ebp, esp

; 2701 : 	for (; 1 < _Last - _First; --_Last)

  00003	8b 45 0c	 mov	 eax, DWORD PTR __Last$[ebp]
  00006	2b 45 08	 sub	 eax, DWORD PTR __First$[ebp]
  00009	8b c8		 mov	 ecx, eax
  0000b	83 e1 fc	 and	 ecx, -4			; fffffffcH
  0000e	83 f9 04	 cmp	 ecx, 4
  00011	7e 28		 jle	 SHORT $LN1@Sort_heap
  00013	57		 push	 edi
  00014	8b f8		 mov	 edi, eax
$LL3@Sort_heap:

; 2702 : 		_Pop_heap(_First, _Last, _Pred);

  00016	6a 00		 push	 0
  00018	ff 75 10	 push	 DWORD PTR __Pred$[ebp]
  0001b	ff 75 0c	 push	 DWORD PTR __Last$[ebp]
  0001e	ff 75 08	 push	 DWORD PTR __First$[ebp]
  00021	e8 00 00 00 00	 call	 ??$_Pop_heap_0@PAPAUEmoticonInfo@@PAU1@VEmoticonInfoSort@@@std@@YAXPAPAUEmoticonInfo@@0VEmoticonInfoSort@@0@Z ; std::_Pop_heap_0<EmoticonInfo * *,EmoticonInfo *,EmoticonInfoSort>
  00026	83 6d 0c 04	 sub	 DWORD PTR __Last$[ebp], 4
  0002a	83 ef 04	 sub	 edi, 4
  0002d	8b c7		 mov	 eax, edi
  0002f	83 e0 fc	 and	 eax, -4			; fffffffcH
  00032	83 c4 10	 add	 esp, 16			; 00000010H
  00035	83 f8 04	 cmp	 eax, 4
  00038	7f dc		 jg	 SHORT $LL3@Sort_heap
  0003a	5f		 pop	 edi
$LN1@Sort_heap:

; 2703 : 	}

  0003b	5d		 pop	 ebp
  0003c	c3		 ret	 0
??$_Sort_heap@PAPAUEmoticonInfo@@VEmoticonInfoSort@@@std@@YAXPAPAUEmoticonInfo@@0VEmoticonInfoSort@@@Z ENDP ; std::_Sort_heap<EmoticonInfo * *,EmoticonInfoSort>
_TEXT	ENDS
PUBLIC	??$_Destroy_range@V?$allocator@VioHashString@@@std@@@std@@YAXPAVioHashString@@0AAV?$allocator@VioHashString@@@0@U_Nonscalar_ptr_iterator_tag@0@@Z ; std::_Destroy_range<std::allocator<ioHashString> >
; Function compile flags: /Ogsp
; File c:\program files (x86)\microsoft visual studio 10.0\vc\include\xmemory
;	COMDAT ??$_Destroy_range@V?$allocator@VioHashString@@@std@@@std@@YAXPAVioHashString@@0AAV?$allocator@VioHashString@@@0@U_Nonscalar_ptr_iterator_tag@0@@Z
_TEXT	SEGMENT
__First$ = 8						; size = 4
__Last$ = 12						; size = 4
__Al$ = 16						; size = 4
___formal$ = 20						; size = 1
??$_Destroy_range@V?$allocator@VioHashString@@@std@@@std@@YAXPAVioHashString@@0AAV?$allocator@VioHashString@@@0@U_Nonscalar_ptr_iterator_tag@0@@Z PROC ; std::_Destroy_range<std::allocator<ioHashString> >, COMDAT

; 95   : 	{	// destroy [_First, _Last), arbitrary type

  00000	55		 push	 ebp
  00001	8b ec		 mov	 ebp, esp
  00003	56		 push	 esi

; 96   : 	for (; _First != _Last; ++_First)

  00004	8b 75 08	 mov	 esi, DWORD PTR __First$[ebp]
  00007	eb 0b		 jmp	 SHORT $LN17@Destroy_ra
$LL3@Destroy_ra:

; 97   : 		_Dest_val(_Al, _First);

  00009	8b ce		 mov	 ecx, esi
  0000b	ff 15 00 00 00
	00		 call	 DWORD PTR __imp_??1ioHashString@@QAE@XZ
  00011	83 c6 10	 add	 esi, 16			; 00000010H
$LN17@Destroy_ra:

; 96   : 	for (; _First != _Last; ++_First)

  00014	3b 75 0c	 cmp	 esi, DWORD PTR __Last$[ebp]
  00017	75 f0		 jne	 SHORT $LL3@Destroy_ra
  00019	5e		 pop	 esi

; 98   : 	}

  0001a	5d		 pop	 ebp
  0001b	c3		 ret	 0
??$_Destroy_range@V?$allocator@VioHashString@@@std@@@std@@YAXPAVioHashString@@0AAV?$allocator@VioHashString@@@0@U_Nonscalar_ptr_iterator_tag@0@@Z ENDP ; std::_Destroy_range<std::allocator<ioHashString> >
_TEXT	ENDS
PUBLIC	?push_back@?$vector@PAUEmoticonInfo@@V?$allocator@PAUEmoticonInfo@@@std@@@std@@QAEXABQAUEmoticonInfo@@@Z ; std::vector<EmoticonInfo *,std::allocator<EmoticonInfo *> >::push_back
; Function compile flags: /Ogsp
; File c:\program files (x86)\microsoft visual studio 10.0\vc\include\vector
;	COMDAT ?push_back@?$vector@PAUEmoticonInfo@@V?$allocator@PAUEmoticonInfo@@@std@@@std@@QAEXABQAUEmoticonInfo@@@Z
_TEXT	SEGMENT
__Val$ = 8						; size = 4
?push_back@?$vector@PAUEmoticonInfo@@V?$allocator@PAUEmoticonInfo@@@std@@@std@@QAEXABQAUEmoticonInfo@@@Z PROC ; std::vector<EmoticonInfo *,std::allocator<EmoticonInfo *> >::push_back, COMDAT
; _this$ = ecx

; 976  : 		{	// insert element at end

  00000	55		 push	 ebp
  00001	8b ec		 mov	 ebp, esp
  00003	56		 push	 esi
  00004	8b f1		 mov	 esi, ecx

; 977  : 		if (_Inside(_STD addressof(_Val)))

  00006	8b 46 04	 mov	 eax, DWORD PTR [esi+4]
  00009	57		 push	 edi
  0000a	8b 7d 08	 mov	 edi, DWORD PTR __Val$[ebp]
  0000d	3b f8		 cmp	 edi, eax
  0000f	73 27		 jae	 SHORT $LN4@push_back
  00011	8b 0e		 mov	 ecx, DWORD PTR [esi]
  00013	3b cf		 cmp	 ecx, edi
  00015	77 21		 ja	 SHORT $LN4@push_back

; 978  : 			{	// push back an element
; 979  : 			size_type _Idx = _STD addressof(_Val) - this->_Myfirst;

  00017	2b f9		 sub	 edi, ecx
  00019	c1 ff 02	 sar	 edi, 2

; 980  : 			if (this->_Mylast == this->_Myend)

  0001c	3b 46 08	 cmp	 eax, DWORD PTR [esi+8]
  0001f	75 09		 jne	 SHORT $LN3@push_back

; 981  : 				_Reserve(1);

  00021	6a 01		 push	 1
  00023	8b ce		 mov	 ecx, esi
  00025	e8 00 00 00 00	 call	 ?_Reserve@?$vector@PAUEmoticonInfo@@V?$allocator@PAUEmoticonInfo@@@std@@@std@@IAEXI@Z ; std::vector<EmoticonInfo *,std::allocator<EmoticonInfo *> >::_Reserve
$LN3@push_back:

; 982  : 			_Orphan_range(this->_Mylast, this->_Mylast);
; 983  : 			_Cons_val(this->_Alval,
; 984  : 				this->_Mylast,
; 985  : 				this->_Myfirst[_Idx]);

  0002a	8b 46 04	 mov	 eax, DWORD PTR [esi+4]
  0002d	85 c0		 test	 eax, eax
  0002f	74 20		 je	 SHORT $LN39@push_back
  00031	8b 0e		 mov	 ecx, DWORD PTR [esi]
  00033	8b 0c b9	 mov	 ecx, DWORD PTR [ecx+edi*4]

; 986  : 			++this->_Mylast;
; 987  : 			}
; 988  : 		else

  00036	eb 17		 jmp	 SHORT $LN46@push_back
$LN4@push_back:

; 989  : 			{	// push back a non-element
; 990  : 			if (this->_Mylast == this->_Myend)

  00038	3b 46 08	 cmp	 eax, DWORD PTR [esi+8]
  0003b	75 09		 jne	 SHORT $LN1@push_back

; 991  : 				_Reserve(1);

  0003d	6a 01		 push	 1
  0003f	8b ce		 mov	 ecx, esi
  00041	e8 00 00 00 00	 call	 ?_Reserve@?$vector@PAUEmoticonInfo@@V?$allocator@PAUEmoticonInfo@@@std@@@std@@IAEXI@Z ; std::vector<EmoticonInfo *,std::allocator<EmoticonInfo *> >::_Reserve
$LN1@push_back:

; 992  : 			_Orphan_range(this->_Mylast, this->_Mylast);
; 993  : 			_Cons_val(this->_Alval,
; 994  : 				this->_Mylast,
; 995  : 				_Val);

  00046	8b 46 04	 mov	 eax, DWORD PTR [esi+4]
  00049	85 c0		 test	 eax, eax
  0004b	74 04		 je	 SHORT $LN39@push_back
  0004d	8b 0f		 mov	 ecx, DWORD PTR [edi]
$LN46@push_back:
  0004f	89 08		 mov	 DWORD PTR [eax], ecx
$LN39@push_back:

; 996  : 			++this->_Mylast;

  00051	83 46 04 04	 add	 DWORD PTR [esi+4], 4
  00055	5f		 pop	 edi
  00056	5e		 pop	 esi

; 997  : 			}
; 998  : 		}

  00057	5d		 pop	 ebp
  00058	c2 04 00	 ret	 4
?push_back@?$vector@PAUEmoticonInfo@@V?$allocator@PAUEmoticonInfo@@@std@@@std@@QAEXABQAUEmoticonInfo@@@Z ENDP ; std::vector<EmoticonInfo *,std::allocator<EmoticonInfo *> >::push_back
_TEXT	ENDS
PUBLIC	??$_Uninitialized_move@PAVioHashString@@PAV1@V?$allocator@VioHashString@@@std@@@std@@YAPAVioHashString@@PAV1@00AAV?$allocator@VioHashString@@@0@@Z ; std::_Uninitialized_move<ioHashString *,ioHashString *,std::allocator<ioHashString> >
; Function compile flags: /Ogsp
; File c:\program files (x86)\microsoft visual studio 10.0\vc\include\memory
;	COMDAT ??$_Uninitialized_move@PAVioHashString@@PAV1@V?$allocator@VioHashString@@@std@@@std@@YAPAVioHashString@@PAV1@00AAV?$allocator@VioHashString@@@0@@Z
_TEXT	SEGMENT
__Cat$538706 = -4					; size = 1
__First$ = 8						; size = 4
__Last$ = 12						; size = 4
__Dest$ = 16						; size = 4
__Al$ = 20						; size = 4
??$_Uninitialized_move@PAVioHashString@@PAV1@V?$allocator@VioHashString@@@std@@@std@@YAPAVioHashString@@PAV1@00AAV?$allocator@VioHashString@@@0@@Z PROC ; std::_Uninitialized_move<ioHashString *,ioHashString *,std::allocator<ioHashString> >, COMDAT

; 469  : 	{	// move [_First, _Last) to raw _Dest, using _Al

  00000	55		 push	 ebp
  00001	8b ec		 mov	 ebp, esp
  00003	51		 push	 ecx

; 470  : 	return (_Uninit_move(_First, _Last, _Dest, _Al,
; 471  : 		_Val_type(_First), _Ptr_cat(_First, _Dest)));

  00004	ff 75 fc	 push	 DWORD PTR __Cat$538706[ebp]
  00007	6a 00		 push	 0
  00009	ff 75 14	 push	 DWORD PTR __Al$[ebp]
  0000c	ff 75 10	 push	 DWORD PTR __Dest$[ebp]
  0000f	ff 75 0c	 push	 DWORD PTR __Last$[ebp]
  00012	ff 75 08	 push	 DWORD PTR __First$[ebp]
  00015	e8 00 00 00 00	 call	 ??$_Uninit_move@PAVioHashString@@PAV1@V?$allocator@VioHashString@@@std@@V1@@std@@YAPAVioHashString@@PAV1@00AAV?$allocator@VioHashString@@@0@0U_Nonscalar_ptr_iterator_tag@0@@Z ; std::_Uninit_move<ioHashString *,ioHashString *,std::allocator<ioHashString>,ioHashString>
  0001a	83 c4 18	 add	 esp, 24			; 00000018H

; 472  : 	}

  0001d	c9		 leave
  0001e	c3		 ret	 0
??$_Uninitialized_move@PAVioHashString@@PAV1@V?$allocator@VioHashString@@@std@@@std@@YAPAVioHashString@@PAV1@00AAV?$allocator@VioHashString@@@0@@Z ENDP ; std::_Uninitialized_move<ioHashString *,ioHashString *,std::allocator<ioHashString> >
_TEXT	ENDS
PUBLIC	??$sort_heap@PAPAUEmoticonInfo@@VEmoticonInfoSort@@@std@@YAXPAPAUEmoticonInfo@@0VEmoticonInfoSort@@@Z ; std::sort_heap<EmoticonInfo * *,EmoticonInfoSort>
; Function compile flags: /Ogsp
; File c:\program files (x86)\microsoft visual studio 10.0\vc\include\algorithm
;	COMDAT ??$sort_heap@PAPAUEmoticonInfo@@VEmoticonInfoSort@@@std@@YAXPAPAUEmoticonInfo@@0VEmoticonInfoSort@@@Z
_TEXT	SEGMENT
__First$ = 8						; size = 4
__Last$ = 12						; size = 4
__Pred$ = 16						; size = 1
??$sort_heap@PAPAUEmoticonInfo@@VEmoticonInfoSort@@@std@@YAXPAPAUEmoticonInfo@@0VEmoticonInfoSort@@@Z PROC ; std::sort_heap<EmoticonInfo * *,EmoticonInfoSort>, COMDAT

; 2708 : 	{	// order heap by repeatedly popping, using _Pred

  00000	55		 push	 ebp
  00001	8b ec		 mov	 ebp, esp

; 2709 : 	_DEBUG_RANGE(_First, _Last);
; 2710 : 	_DEBUG_POINTER(_Pred);
; 2711 : 	_DEBUG_HEAP_PRED(_First, _Last, _Pred);
; 2712 : 	_Sort_heap(_Unchecked(_First), _Unchecked(_Last), _Pred);

  00003	ff 75 10	 push	 DWORD PTR __Pred$[ebp]
  00006	ff 75 0c	 push	 DWORD PTR __Last$[ebp]
  00009	ff 75 08	 push	 DWORD PTR __First$[ebp]
  0000c	e8 00 00 00 00	 call	 ??$_Sort_heap@PAPAUEmoticonInfo@@VEmoticonInfoSort@@@std@@YAXPAPAUEmoticonInfo@@0VEmoticonInfoSort@@@Z ; std::_Sort_heap<EmoticonInfo * *,EmoticonInfoSort>
  00011	83 c4 0c	 add	 esp, 12			; 0000000cH

; 2713 : 	}

  00014	5d		 pop	 ebp
  00015	c3		 ret	 0
??$sort_heap@PAPAUEmoticonInfo@@VEmoticonInfoSort@@@std@@YAXPAPAUEmoticonInfo@@0VEmoticonInfoSort@@@Z ENDP ; std::sort_heap<EmoticonInfo * *,EmoticonInfoSort>
_TEXT	ENDS
PUBLIC	??$_Destroy_range@V?$allocator@VioHashString@@@std@@@std@@YAXPAVioHashString@@0AAV?$allocator@VioHashString@@@0@@Z ; std::_Destroy_range<std::allocator<ioHashString> >
; Function compile flags: /Ogsp
; File c:\program files (x86)\microsoft visual studio 10.0\vc\include\xmemory
;	COMDAT ??$_Destroy_range@V?$allocator@VioHashString@@@std@@@std@@YAXPAVioHashString@@0AAV?$allocator@VioHashString@@@0@@Z
_TEXT	SEGMENT
__First$ = 8						; size = 4
__Last$ = 12						; size = 4
__Al$ = 16						; size = 4
??$_Destroy_range@V?$allocator@VioHashString@@@std@@@std@@YAXPAVioHashString@@0AAV?$allocator@VioHashString@@@0@@Z PROC ; std::_Destroy_range<std::allocator<ioHashString> >, COMDAT

; 87   : 	{	// destroy [_First, _Last)

  00000	55		 push	 ebp
  00001	8b ec		 mov	 ebp, esp
  00003	56		 push	 esi

; 88   : 	_Destroy_range(_First, _Last, _Al, _Ptr_cat(_First, _Last));

  00004	8b 75 08	 mov	 esi, DWORD PTR __First$[ebp]
  00007	eb 0b		 jmp	 SHORT $LN21@Destroy_ra@2
$LL7@Destroy_ra@2:
  00009	8b ce		 mov	 ecx, esi
  0000b	ff 15 00 00 00
	00		 call	 DWORD PTR __imp_??1ioHashString@@QAE@XZ
  00011	83 c6 10	 add	 esi, 16			; 00000010H
$LN21@Destroy_ra@2:
  00014	3b 75 0c	 cmp	 esi, DWORD PTR __Last$[ebp]
  00017	75 f0		 jne	 SHORT $LL7@Destroy_ra@2
  00019	5e		 pop	 esi

; 89   : 	}

  0001a	5d		 pop	 ebp
  0001b	c3		 ret	 0
??$_Destroy_range@V?$allocator@VioHashString@@@std@@@std@@YAXPAVioHashString@@0AAV?$allocator@VioHashString@@@0@@Z ENDP ; std::_Destroy_range<std::allocator<ioHashString> >
_TEXT	ENDS
PUBLIC	??$_Umove@PAVioHashString@@@?$vector@VioHashString@@V?$allocator@VioHashString@@@std@@@std@@IAEPAVioHashString@@PAV2@00@Z ; std::vector<ioHashString,std::allocator<ioHashString> >::_Umove<ioHashString *>
; Function compile flags: /Ogsp
; File c:\program files (x86)\microsoft visual studio 10.0\vc\include\vector
;	COMDAT ??$_Umove@PAVioHashString@@@?$vector@VioHashString@@V?$allocator@VioHashString@@@std@@@std@@IAEPAVioHashString@@PAV2@00@Z
_TEXT	SEGMENT
__First$ = 8						; size = 4
__Last$ = 12						; size = 4
__Ptr$ = 16						; size = 4
??$_Umove@PAVioHashString@@@?$vector@VioHashString@@V?$allocator@VioHashString@@@std@@@std@@IAEPAVioHashString@@PAV2@00@Z PROC ; std::vector<ioHashString,std::allocator<ioHashString> >::_Umove<ioHashString *>, COMDAT
; _this$ = ecx

; 1322 : 		pointer _Umove(_Iter _First, _Iter _Last, pointer _Ptr)

  00000	55		 push	 ebp
  00001	8b ec		 mov	 ebp, esp

; 1323 : 		{	// move initializing [_First, _Last), using allocator
; 1324 : 		return (_Uninitialized_move(_First, _Last,
; 1325 : 			_Ptr, this->_Alval));

  00003	83 c1 0c	 add	 ecx, 12			; 0000000cH
  00006	51		 push	 ecx
  00007	ff 75 10	 push	 DWORD PTR __Ptr$[ebp]
  0000a	ff 75 0c	 push	 DWORD PTR __Last$[ebp]
  0000d	ff 75 08	 push	 DWORD PTR __First$[ebp]
  00010	e8 00 00 00 00	 call	 ??$_Uninitialized_move@PAVioHashString@@PAV1@V?$allocator@VioHashString@@@std@@@std@@YAPAVioHashString@@PAV1@00AAV?$allocator@VioHashString@@@0@@Z ; std::_Uninitialized_move<ioHashString *,ioHashString *,std::allocator<ioHashString> >
  00015	83 c4 10	 add	 esp, 16			; 00000010H

; 1326 : 		}

  00018	5d		 pop	 ebp
  00019	c2 0c 00	 ret	 12			; 0000000cH
??$_Umove@PAVioHashString@@@?$vector@VioHashString@@V?$allocator@VioHashString@@@std@@@std@@IAEPAVioHashString@@PAV2@00@Z ENDP ; std::vector<ioHashString,std::allocator<ioHashString> >::_Umove<ioHashString *>
_TEXT	ENDS
PUBLIC	??$_Sort@PAPAUEmoticonInfo@@HVEmoticonInfoSort@@@std@@YAXPAPAUEmoticonInfo@@0HVEmoticonInfoSort@@@Z ; std::_Sort<EmoticonInfo * *,int,EmoticonInfoSort>
; Function compile flags: /Ogsp
; File c:\program files (x86)\microsoft visual studio 10.0\vc\include\algorithm
;	COMDAT ??$_Sort@PAPAUEmoticonInfo@@HVEmoticonInfoSort@@@std@@YAXPAPAUEmoticonInfo@@0HVEmoticonInfoSort@@@Z
_TEXT	SEGMENT
__Mid$529828 = -8					; size = 8
__First$ = 8						; size = 4
__Last$ = 12						; size = 4
__Ideal$ = 16						; size = 4
__Pred$ = 20						; size = 1
??$_Sort@PAPAUEmoticonInfo@@HVEmoticonInfoSort@@@std@@YAXPAPAUEmoticonInfo@@0HVEmoticonInfoSort@@@Z PROC ; std::_Sort<EmoticonInfo * *,int,EmoticonInfoSort>, COMDAT

; 3771 : 	{	// order [_First, _Last), using _Pred

  00000	55		 push	 ebp
  00001	8b ec		 mov	 ebp, esp
  00003	51		 push	 ecx
  00004	51		 push	 ecx
  00005	53		 push	 ebx

; 3772 : 	_Diff _Count;
; 3773 : 	for (; _ISORT_MAX < (_Count = _Last - _First) && 0 < _Ideal; )

  00006	8b 5d 08	 mov	 ebx, DWORD PTR __First$[ebp]
  00009	57		 push	 edi
  0000a	8b 7d 0c	 mov	 edi, DWORD PTR __Last$[ebp]
  0000d	8b c7		 mov	 eax, edi
  0000f	2b c3		 sub	 eax, ebx
  00011	c1 f8 02	 sar	 eax, 2
  00014	83 f8 20	 cmp	 eax, 32			; 00000020H
  00017	0f 8e 89 00 00
	00		 jle	 $LN22@Sort
  0001d	56		 push	 esi
  0001e	8b 75 10	 mov	 esi, DWORD PTR __Ideal$[ebp]
$LL7@Sort:
  00021	85 f6		 test	 esi, esi
  00023	7e 62		 jle	 SHORT $LN6@Sort

; 3774 : 		{	// divide and conquer by quicksort
; 3775 : 		_STD pair<_RanIt, _RanIt> _Mid =
; 3776 : 			_Unguarded_partition(_First, _Last, _Pred);

  00025	ff 75 14	 push	 DWORD PTR __Pred$[ebp]
  00028	8d 45 f8	 lea	 eax, DWORD PTR __Mid$529828[ebp]
  0002b	57		 push	 edi
  0002c	53		 push	 ebx
  0002d	50		 push	 eax
  0002e	e8 00 00 00 00	 call	 ??$_Unguarded_partition@PAPAUEmoticonInfo@@VEmoticonInfoSort@@@std@@YA?AU?$pair@PAPAUEmoticonInfo@@PAPAU1@@0@PAPAUEmoticonInfo@@0VEmoticonInfoSort@@@Z ; std::_Unguarded_partition<EmoticonInfo * *,EmoticonInfoSort>

; 3777 : 		_Ideal /= 2, _Ideal += _Ideal / 2;	// allow 1.5 log2(N) divisions
; 3778 : 
; 3779 : 		if (_Mid.first - _First < _Last - _Mid.second)

  00033	8b 4d f8	 mov	 ecx, DWORD PTR __Mid$529828[ebp]
  00036	8b c6		 mov	 eax, esi
  00038	99		 cdq
  00039	2b c2		 sub	 eax, edx
  0003b	d1 f8		 sar	 eax, 1
  0003d	8b f0		 mov	 esi, eax
  0003f	99		 cdq
  00040	2b c2		 sub	 eax, edx
  00042	d1 f8		 sar	 eax, 1
  00044	03 f0		 add	 esi, eax
  00046	8b c7		 mov	 eax, edi
  00048	2b 45 fc	 sub	 eax, DWORD PTR __Mid$529828[ebp+4]
  0004b	83 c4 10	 add	 esp, 16			; 00000010H

; 3780 : 			{	// loop on second half
; 3781 : 			_Sort(_First, _Mid.first, _Ideal, _Pred);

  0004e	ff 75 14	 push	 DWORD PTR __Pred$[ebp]
  00051	2b cb		 sub	 ecx, ebx
  00053	83 e0 fc	 and	 eax, -4			; fffffffcH
  00056	83 e1 fc	 and	 ecx, -4			; fffffffcH
  00059	56		 push	 esi
  0005a	3b c8		 cmp	 ecx, eax
  0005c	7d 0e		 jge	 SHORT $LN5@Sort
  0005e	ff 75 f8	 push	 DWORD PTR __Mid$529828[ebp]
  00061	53		 push	 ebx
  00062	e8 00 00 00 00	 call	 ??$_Sort@PAPAUEmoticonInfo@@HVEmoticonInfoSort@@@std@@YAXPAPAUEmoticonInfo@@0HVEmoticonInfoSort@@@Z ; std::_Sort<EmoticonInfo * *,int,EmoticonInfoSort>

; 3782 : 			_First = _Mid.second;

  00067	8b 5d fc	 mov	 ebx, DWORD PTR __Mid$529828[ebp+4]

; 3783 : 			}
; 3784 : 		else

  0006a	eb 0c		 jmp	 SHORT $LN23@Sort
$LN5@Sort:

; 3785 : 			{	// loop on first half
; 3786 : 			_Sort(_Mid.second, _Last, _Ideal, _Pred);

  0006c	57		 push	 edi
  0006d	ff 75 fc	 push	 DWORD PTR __Mid$529828[ebp+4]
  00070	e8 00 00 00 00	 call	 ??$_Sort@PAPAUEmoticonInfo@@HVEmoticonInfoSort@@@std@@YAXPAPAUEmoticonInfo@@0HVEmoticonInfoSort@@@Z ; std::_Sort<EmoticonInfo * *,int,EmoticonInfoSort>

; 3787 : 			_Last = _Mid.first;

  00075	8b 7d f8	 mov	 edi, DWORD PTR __Mid$529828[ebp]
$LN23@Sort:

; 3772 : 	_Diff _Count;
; 3773 : 	for (; _ISORT_MAX < (_Count = _Last - _First) && 0 < _Ideal; )

  00078	8b c7		 mov	 eax, edi
  0007a	2b c3		 sub	 eax, ebx
  0007c	c1 f8 02	 sar	 eax, 2

; 3785 : 			{	// loop on first half
; 3786 : 			_Sort(_Mid.second, _Last, _Ideal, _Pred);

  0007f	83 c4 10	 add	 esp, 16			; 00000010H
  00082	83 f8 20	 cmp	 eax, 32			; 00000020H
  00085	7f 9a		 jg	 SHORT $LL7@Sort
$LN6@Sort:
  00087	5e		 pop	 esi

; 3788 : 			}
; 3789 : 		}
; 3790 : 
; 3791 : 	if (_ISORT_MAX < _Count)

  00088	83 f8 20	 cmp	 eax, 32			; 00000020H
  0008b	7e 19		 jle	 SHORT $LN22@Sort

; 3792 : 		{	// heap sort if too many divisions
; 3793 : 		_STD make_heap(_First, _Last, _Pred);

  0008d	ff 75 14	 push	 DWORD PTR __Pred$[ebp]
  00090	57		 push	 edi
  00091	53		 push	 ebx
  00092	e8 00 00 00 00	 call	 ??$make_heap@PAPAUEmoticonInfo@@VEmoticonInfoSort@@@std@@YAXPAPAUEmoticonInfo@@0VEmoticonInfoSort@@@Z ; std::make_heap<EmoticonInfo * *,EmoticonInfoSort>

; 3794 : 		_STD sort_heap(_First, _Last, _Pred);

  00097	ff 75 14	 push	 DWORD PTR __Pred$[ebp]
  0009a	57		 push	 edi
  0009b	53		 push	 ebx
  0009c	e8 00 00 00 00	 call	 ??$_Sort_heap@PAPAUEmoticonInfo@@VEmoticonInfoSort@@@std@@YAXPAPAUEmoticonInfo@@0VEmoticonInfoSort@@@Z ; std::_Sort_heap<EmoticonInfo * *,EmoticonInfoSort>
  000a1	83 c4 18	 add	 esp, 24			; 00000018H
  000a4	eb 14		 jmp	 SHORT $LN16@Sort
$LN22@Sort:

; 3795 : 		}
; 3796 : 	else if (1 < _Count)

  000a6	83 f8 01	 cmp	 eax, 1
  000a9	7e 0f		 jle	 SHORT $LN16@Sort

; 3797 : 		_Insertion_sort(_First, _Last, _Pred);	// small

  000ab	6a 00		 push	 0
  000ad	ff 75 14	 push	 DWORD PTR __Pred$[ebp]
  000b0	57		 push	 edi
  000b1	53		 push	 ebx
  000b2	e8 00 00 00 00	 call	 ??$_Insertion_sort1@PAPAUEmoticonInfo@@VEmoticonInfoSort@@PAU1@@std@@YAXPAPAUEmoticonInfo@@0VEmoticonInfoSort@@0@Z ; std::_Insertion_sort1<EmoticonInfo * *,EmoticonInfoSort,EmoticonInfo *>
  000b7	83 c4 10	 add	 esp, 16			; 00000010H
$LN16@Sort:
  000ba	5f		 pop	 edi
  000bb	5b		 pop	 ebx

; 3798 : 	}

  000bc	c9		 leave
  000bd	c3		 ret	 0
??$_Sort@PAPAUEmoticonInfo@@HVEmoticonInfoSort@@@std@@YAXPAPAUEmoticonInfo@@0HVEmoticonInfoSort@@@Z ENDP ; std::_Sort<EmoticonInfo * *,int,EmoticonInfoSort>
_TEXT	ENDS
PUBLIC	?_Destroy@?$vector@VioHashString@@V?$allocator@VioHashString@@@std@@@std@@IAEXPAVioHashString@@0@Z ; std::vector<ioHashString,std::allocator<ioHashString> >::_Destroy
; Function compile flags: /Ogsp
; File c:\program files (x86)\microsoft visual studio 10.0\vc\include\vector
;	COMDAT ?_Destroy@?$vector@VioHashString@@V?$allocator@VioHashString@@@std@@@std@@IAEXPAVioHashString@@0@Z
_TEXT	SEGMENT
__First$ = 8						; size = 4
__Last$ = 12						; size = 4
?_Destroy@?$vector@VioHashString@@V?$allocator@VioHashString@@@std@@@std@@IAEXPAVioHashString@@0@Z PROC ; std::vector<ioHashString,std::allocator<ioHashString> >::_Destroy, COMDAT
; _this$ = ecx

; 1269 : 		{	// destroy [_First, _Last) using allocator

  00000	55		 push	 ebp
  00001	8b ec		 mov	 ebp, esp
  00003	56		 push	 esi

; 1270 : 		_Destroy_range(_First, _Last, this->_Alval);

  00004	8b 75 08	 mov	 esi, DWORD PTR __First$[ebp]
  00007	eb 0b		 jmp	 SHORT $LN23@Destroy
$LL9@Destroy:
  00009	8b ce		 mov	 ecx, esi
  0000b	ff 15 00 00 00
	00		 call	 DWORD PTR __imp_??1ioHashString@@QAE@XZ
  00011	83 c6 10	 add	 esi, 16			; 00000010H
$LN23@Destroy:
  00014	3b 75 0c	 cmp	 esi, DWORD PTR __Last$[ebp]
  00017	75 f0		 jne	 SHORT $LL9@Destroy
  00019	5e		 pop	 esi

; 1271 : 		}

  0001a	5d		 pop	 ebp
  0001b	c2 08 00	 ret	 8
?_Destroy@?$vector@VioHashString@@V?$allocator@VioHashString@@@std@@@std@@IAEXPAVioHashString@@0@Z ENDP ; std::vector<ioHashString,std::allocator<ioHashString> >::_Destroy
_TEXT	ENDS
PUBLIC	?erase@?$vector@VioHashString@@V?$allocator@VioHashString@@@std@@@std@@QAE?AV?$_Vector_iterator@V?$_Vector_val@VioHashString@@V?$allocator@VioHashString@@@std@@@std@@@2@V?$_Vector_const_iterator@V?$_Vector_val@VioHashString@@V?$allocator@VioHashString@@@std@@@std@@@2@@Z ; std::vector<ioHashString,std::allocator<ioHashString> >::erase
; Function compile flags: /Ogsp
;	COMDAT ?erase@?$vector@VioHashString@@V?$allocator@VioHashString@@@std@@@std@@QAE?AV?$_Vector_iterator@V?$_Vector_val@VioHashString@@V?$allocator@VioHashString@@@std@@@std@@@2@V?$_Vector_const_iterator@V?$_Vector_val@VioHashString@@V?$allocator@VioHashString@@@std@@@std@@@2@@Z
_TEXT	SEGMENT
___$ReturnUdt$ = 8					; size = 4
__Cat$538888 = 12					; size = 1
__Where$ = 12						; size = 4
?erase@?$vector@VioHashString@@V?$allocator@VioHashString@@@std@@@std@@QAE?AV?$_Vector_iterator@V?$_Vector_val@VioHashString@@V?$allocator@VioHashString@@@std@@@std@@@2@V?$_Vector_const_iterator@V?$_Vector_val@VioHashString@@V?$allocator@VioHashString@@@std@@@std@@@2@@Z PROC ; std::vector<ioHashString,std::allocator<ioHashString> >::erase, COMDAT
; _this$ = ecx

; 1179 : 		{	// erase element at where

  00000	55		 push	 ebp
  00001	8b ec		 mov	 ebp, esp

; 1180 : 		_Move(_VIPTR(_Where) + 1, this->_Mylast,
; 1181 : 			_VIPTR(_Where));

  00003	8b 45 0c	 mov	 eax, DWORD PTR __Where$[ebp]
  00006	53		 push	 ebx
  00007	56		 push	 esi
  00008	57		 push	 edi
  00009	ff 75 0c	 push	 DWORD PTR __Cat$538888[ebp]
  0000c	8b f1		 mov	 esi, ecx
  0000e	50		 push	 eax
  0000f	ff 76 04	 push	 DWORD PTR [esi+4]
  00012	83 c0 10	 add	 eax, 16			; 00000010H
  00015	50		 push	 eax
  00016	e8 00 00 00 00	 call	 ??$_Move@PAVioHashString@@PAV1@@std@@YAPAVioHashString@@PAV1@00U_Nonscalar_ptr_iterator_tag@0@@Z ; std::_Move<ioHashString *,ioHashString *>

; 1182 : 		_Destroy(this->_Mylast - 1, this->_Mylast);

  0001b	8b 7e 04	 mov	 edi, DWORD PTR [esi+4]
  0001e	83 c4 10	 add	 esp, 16			; 00000010H
  00021	8d 5f f0	 lea	 ebx, DWORD PTR [edi-16]
  00024	eb 0b		 jmp	 SHORT $LN37@erase@2
$LL15@erase@2:
  00026	8b cb		 mov	 ecx, ebx
  00028	ff 15 00 00 00
	00		 call	 DWORD PTR __imp_??1ioHashString@@QAE@XZ
  0002e	83 c3 10	 add	 ebx, 16			; 00000010H
$LN37@erase@2:
  00031	3b df		 cmp	 ebx, edi
  00033	75 f1		 jne	 SHORT $LL15@erase@2

; 1183 : 		--this->_Mylast;

  00035	83 46 04 f0	 add	 DWORD PTR [esi+4], -16	; fffffff0H

; 1184 : 		return (_Make_iter(_Where));

  00039	8b 45 08	 mov	 eax, DWORD PTR ___$ReturnUdt$[ebp]
  0003c	8b 4d 0c	 mov	 ecx, DWORD PTR __Where$[ebp]
  0003f	5f		 pop	 edi
  00040	5e		 pop	 esi
  00041	89 08		 mov	 DWORD PTR [eax], ecx
  00043	5b		 pop	 ebx

; 1185 : 		}

  00044	5d		 pop	 ebp
  00045	c2 08 00	 ret	 8
?erase@?$vector@VioHashString@@V?$allocator@VioHashString@@@std@@@std@@QAE?AV?$_Vector_iterator@V?$_Vector_val@VioHashString@@V?$allocator@VioHashString@@@std@@@std@@@2@V?$_Vector_const_iterator@V?$_Vector_val@VioHashString@@V?$allocator@VioHashString@@@std@@@std@@@2@@Z ENDP ; std::vector<ioHashString,std::allocator<ioHashString> >::erase
_TEXT	ENDS
PUBLIC	?reserve@?$vector@VioHashString@@V?$allocator@VioHashString@@@std@@@std@@QAEXI@Z ; std::vector<ioHashString,std::allocator<ioHashString> >::reserve
;	COMDAT xdata$x
; File c:\program files (x86)\microsoft visual studio 10.0\vc\include\xmemory
xdata$x	SEGMENT
__catchsym$?reserve@?$vector@VioHashString@@V?$allocator@VioHashString@@@std@@@std@@QAEXI@Z$2 DD 040H
	DD	00H
	DD	00H
	DD	FLAT:__catch$?reserve@?$vector@VioHashString@@V?$allocator@VioHashString@@@std@@@std@@QAEXI@Z$0
__unwindtable$?reserve@?$vector@VioHashString@@V?$allocator@VioHashString@@@std@@@std@@QAEXI@Z DD 0ffffffffH
	DD	00H
	DD	0ffffffffH
	DD	00H
__tryblocktable$?reserve@?$vector@VioHashString@@V?$allocator@VioHashString@@@std@@@std@@QAEXI@Z DD 00H
	DD	00H
	DD	01H
	DD	01H
	DD	FLAT:__catchsym$?reserve@?$vector@VioHashString@@V?$allocator@VioHashString@@@std@@@std@@QAEXI@Z$2
__ehfuncinfo$?reserve@?$vector@VioHashString@@V?$allocator@VioHashString@@@std@@@std@@QAEXI@Z DD 019930522H
	DD	02H
	DD	FLAT:__unwindtable$?reserve@?$vector@VioHashString@@V?$allocator@VioHashString@@@std@@@std@@QAEXI@Z
	DD	01H
	DD	FLAT:__tryblocktable$?reserve@?$vector@VioHashString@@V?$allocator@VioHashString@@@std@@@std@@QAEXI@Z
	DD	2 DUP(00H)
	DD	00H
	DD	01H
; Function compile flags: /Ogsp
; File c:\program files (x86)\microsoft visual studio 10.0\vc\include\vector
xdata$x	ENDS
;	COMDAT ?reserve@?$vector@VioHashString@@V?$allocator@VioHashString@@@std@@@std@@QAEXI@Z
_TEXT	SEGMENT
tv300 = -24						; size = 4
__Ptr$526423 = -20					; size = 4
__$EHRec$ = -16						; size = 16
$T539106 = 8						; size = 4
__Count$ = 8						; size = 4
?reserve@?$vector@VioHashString@@V?$allocator@VioHashString@@@std@@@std@@QAEXI@Z PROC ; std::vector<ioHashString,std::allocator<ioHashString> >::reserve, COMDAT
; _this$ = ecx

; 746  : 		{	// determine new minimum length of allocated storage

  00000	6a 0c		 push	 12			; 0000000cH
  00002	b8 00 00 00 00	 mov	 eax, __ehhandler$?reserve@?$vector@VioHashString@@V?$allocator@VioHashString@@@std@@@std@@QAEXI@Z
  00007	e8 00 00 00 00	 call	 __EH_prolog3_catch
  0000c	8b f1		 mov	 esi, ecx

; 747  : 		if (max_size() < _Count)

  0000e	8b 5d 08	 mov	 ebx, DWORD PTR __Count$[ebp]
  00011	81 fb ff ff ff
	0f		 cmp	 ebx, 268435455		; 0fffffffH
  00017	76 0b		 jbe	 SHORT $LN5@reserve@2

; 748  : 			_Xlen();	// result too long

  00019	68 00 00 00 00	 push	 OFFSET ??_C@_0BD@OLBABOEK@vector?$DMT?$DO?5too?5long?$AA@
  0001e	ff 15 00 00 00
	00		 call	 DWORD PTR __imp_?_Xlength_error@std@@YAXPBD@Z
$LN59@reserve@2:
$LN5@reserve@2:

; 749  : 		else if (capacity() < _Count)

  00024	8b 46 08	 mov	 eax, DWORD PTR [esi+8]
  00027	2b 06		 sub	 eax, DWORD PTR [esi]
  00029	c1 f8 04	 sar	 eax, 4
  0002c	3b c3		 cmp	 eax, ebx
  0002e	73 7a		 jae	 SHORT $LN3@reserve@2

; 750  : 			{	// not enough room, reallocate
; 751  : 			pointer _Ptr = this->_Alval.allocate(_Count);

  00030	6a 00		 push	 0
  00032	53		 push	 ebx
  00033	e8 00 00 00 00	 call	 ??$_Allocate@VioHashString@@@std@@YAPAVioHashString@@IPAV1@@Z ; std::_Allocate<ioHashString>

; 752  : 
; 753  : 			_TRY_BEGIN
; 754  : 			_Umove(this->_Myfirst, this->_Mylast, _Ptr);

  00038	8b 0e		 mov	 ecx, DWORD PTR [esi]
  0003a	83 65 fc 00	 and	 DWORD PTR __$EHRec$[ebp+12], 0
  0003e	8d 56 0c	 lea	 edx, DWORD PTR [esi+12]
  00041	52		 push	 edx
  00042	89 45 ec	 mov	 DWORD PTR __Ptr$526423[ebp], eax
  00045	ff 75 ec	 push	 DWORD PTR __Ptr$526423[ebp]
  00048	8b 46 04	 mov	 eax, DWORD PTR [esi+4]
  0004b	50		 push	 eax
  0004c	51		 push	 ecx
  0004d	e8 00 00 00 00	 call	 ??$_Uninitialized_move@PAVioHashString@@PAV1@V?$allocator@VioHashString@@@std@@@std@@YAPAVioHashString@@PAV1@00AAV?$allocator@VioHashString@@@0@@Z ; std::_Uninitialized_move<ioHashString *,ioHashString *,std::allocator<ioHashString> >

; 758  : 			_CATCH_END
; 759  : 
; 760  : 			size_type _Size = size();

  00052	8b 4e 04	 mov	 ecx, DWORD PTR [esi+4]
  00055	8b 06		 mov	 eax, DWORD PTR [esi]
  00057	83 4d fc ff	 or	 DWORD PTR __$EHRec$[ebp+12], -1
  0005b	8b f9		 mov	 edi, ecx
  0005d	83 c4 18	 add	 esp, 24			; 00000018H
  00060	2b f8		 sub	 edi, eax
  00062	89 4d e8	 mov	 DWORD PTR tv300[ebp], ecx
  00065	85 c0		 test	 eax, eax
  00067	74 24		 je	 SHORT $LN51@reserve@2

; 761  : 			if (this->_Myfirst != 0)
; 762  : 				{	// destroy and deallocate old array
; 763  : 				_Destroy(this->_Myfirst, this->_Mylast);

  00069	89 45 08	 mov	 DWORD PTR $T539106[ebp], eax
  0006c	3b c1		 cmp	 eax, ecx
  0006e	74 15		 je	 SHORT $LN37@reserve@2
$LN39@reserve@2:
  00070	8b 4d 08	 mov	 ecx, DWORD PTR $T539106[ebp]
  00073	ff 15 00 00 00
	00		 call	 DWORD PTR __imp_??1ioHashString@@QAE@XZ
  00079	83 45 08 10	 add	 DWORD PTR $T539106[ebp], 16 ; 00000010H
  0007d	8b 45 08	 mov	 eax, DWORD PTR $T539106[ebp]
  00080	3b 45 e8	 cmp	 eax, DWORD PTR tv300[ebp]
  00083	75 eb		 jne	 SHORT $LN39@reserve@2
$LN37@reserve@2:

; 764  : 				this->_Alval.deallocate(this->_Myfirst,
; 765  : 					this->_Myend - this->_Myfirst);

  00085	ff 36		 push	 DWORD PTR [esi]
  00087	e8 00 00 00 00	 call	 ??3@YAXPAX@Z		; operator delete
  0008c	59		 pop	 ecx
$LN51@reserve@2:

; 766  : 				}
; 767  : 
; 768  : 			this->_Orphan_all();

  0008d	8b ce		 mov	 ecx, esi
  0008f	ff 15 00 00 00
	00		 call	 DWORD PTR __imp_?_Orphan_all@_Container_base0@std@@QAEXXZ

; 769  : 			this->_Myend = _Ptr + _Count;

  00095	8b 45 ec	 mov	 eax, DWORD PTR __Ptr$526423[ebp]
  00098	c1 e3 04	 shl	 ebx, 4
  0009b	03 d8		 add	 ebx, eax

; 770  : 			this->_Mylast = _Ptr + _Size;

  0009d	83 e7 f0	 and	 edi, -16		; fffffff0H
  000a0	03 f8		 add	 edi, eax
  000a2	89 5e 08	 mov	 DWORD PTR [esi+8], ebx
  000a5	89 7e 04	 mov	 DWORD PTR [esi+4], edi

; 771  : 			this->_Myfirst = _Ptr;

  000a8	89 06		 mov	 DWORD PTR [esi], eax
$LN3@reserve@2:

; 772  : 			}
; 773  : 		}

  000aa	e8 00 00 00 00	 call	 __EH_epilog3
  000af	c2 04 00	 ret	 4
__catch$?reserve@?$vector@VioHashString@@V?$allocator@VioHashString@@@std@@@std@@QAEXI@Z$0:

; 755  : 			_CATCH_ALL
; 756  : 			this->_Alval.deallocate(_Ptr, _Count);

  000b2	ff 75 ec	 push	 DWORD PTR __Ptr$526423[ebp]
  000b5	e8 00 00 00 00	 call	 ??3@YAXPAX@Z		; operator delete
  000ba	59		 pop	 ecx

; 757  : 			_RERAISE;

  000bb	6a 00		 push	 0
  000bd	6a 00		 push	 0
  000bf	e8 00 00 00 00	 call	 __CxxThrowException@8
$LN60@reserve@2:
$LN58@reserve@2:
  000c4	cc		 int	 3
_TEXT	ENDS
;	COMDAT text$x
text$x	SEGMENT
__ehhandler$?reserve@?$vector@VioHashString@@V?$allocator@VioHashString@@@std@@@std@@QAEXI@Z:
  00000	8b 54 24 08	 mov	 edx, DWORD PTR [esp+8]
  00004	8d 42 0c	 lea	 eax, DWORD PTR [edx+12]
  00007	8b 4a e4	 mov	 ecx, DWORD PTR [edx-28]
  0000a	33 c8		 xor	 ecx, eax
  0000c	e8 00 00 00 00	 call	 @__security_check_cookie@4
  00011	b8 00 00 00 00	 mov	 eax, OFFSET __ehfuncinfo$?reserve@?$vector@VioHashString@@V?$allocator@VioHashString@@@std@@@std@@QAEXI@Z
  00016	e9 00 00 00 00	 jmp	 ___CxxFrameHandler3
text$x	ENDS
?reserve@?$vector@VioHashString@@V?$allocator@VioHashString@@@std@@@std@@QAEXI@Z ENDP ; std::vector<ioHashString,std::allocator<ioHashString> >::reserve
PUBLIC	??$sort@V?$_Vector_iterator@V?$_Vector_val@PAUEmoticonInfo@@V?$allocator@PAUEmoticonInfo@@@std@@@std@@@std@@VEmoticonInfoSort@@@std@@YAXV?$_Vector_iterator@V?$_Vector_val@PAUEmoticonInfo@@V?$allocator@PAUEmoticonInfo@@@std@@@std@@@0@0VEmoticonInfoSort@@@Z ; std::sort<std::_Vector_iterator<std::_Vector_val<EmoticonInfo *,std::allocator<EmoticonInfo *> > >,EmoticonInfoSort>
; Function compile flags: /Ogsp
; File c:\program files (x86)\microsoft visual studio 10.0\vc\include\algorithm
;	COMDAT ??$sort@V?$_Vector_iterator@V?$_Vector_val@PAUEmoticonInfo@@V?$allocator@PAUEmoticonInfo@@@std@@@std@@@std@@VEmoticonInfoSort@@@std@@YAXV?$_Vector_iterator@V?$_Vector_val@PAUEmoticonInfo@@V?$allocator@PAUEmoticonInfo@@@std@@@std@@@0@0VEmoticonInfoSort@@@Z
_TEXT	SEGMENT
__First$ = 8						; size = 4
__Last$ = 12						; size = 4
__Pred$ = 16						; size = 1
??$sort@V?$_Vector_iterator@V?$_Vector_val@PAUEmoticonInfo@@V?$allocator@PAUEmoticonInfo@@@std@@@std@@@std@@VEmoticonInfoSort@@@std@@YAXV?$_Vector_iterator@V?$_Vector_val@PAUEmoticonInfo@@V?$allocator@PAUEmoticonInfo@@@std@@@std@@@0@0VEmoticonInfoSort@@@Z PROC ; std::sort<std::_Vector_iterator<std::_Vector_val<EmoticonInfo *,std::allocator<EmoticonInfo *> > >,EmoticonInfoSort>, COMDAT

; 3803 : 	{	// order [_First, _Last), using _Pred

  00000	55		 push	 ebp
  00001	8b ec		 mov	 ebp, esp

; 3804 : 	_DEBUG_RANGE(_First, _Last);
; 3805 : 	_DEBUG_POINTER(_Pred);
; 3806 : 	_Sort(_Unchecked(_First), _Unchecked(_Last), _Last - _First, _Pred);

  00003	8b 45 0c	 mov	 eax, DWORD PTR __Last$[ebp]
  00006	ff 75 10	 push	 DWORD PTR __Pred$[ebp]
  00009	2b 45 08	 sub	 eax, DWORD PTR __First$[ebp]
  0000c	c1 f8 02	 sar	 eax, 2
  0000f	50		 push	 eax
  00010	ff 75 0c	 push	 DWORD PTR __Last$[ebp]
  00013	ff 75 08	 push	 DWORD PTR __First$[ebp]
  00016	e8 00 00 00 00	 call	 ??$_Sort@PAPAUEmoticonInfo@@HVEmoticonInfoSort@@@std@@YAXPAPAUEmoticonInfo@@0HVEmoticonInfoSort@@@Z ; std::_Sort<EmoticonInfo * *,int,EmoticonInfoSort>
  0001b	83 c4 10	 add	 esp, 16			; 00000010H

; 3807 : 	}

  0001e	5d		 pop	 ebp
  0001f	c3		 ret	 0
??$sort@V?$_Vector_iterator@V?$_Vector_val@PAUEmoticonInfo@@V?$allocator@PAUEmoticonInfo@@@std@@@std@@@std@@VEmoticonInfoSort@@@std@@YAXV?$_Vector_iterator@V?$_Vector_val@PAUEmoticonInfo@@V?$allocator@PAUEmoticonInfo@@@std@@@std@@@0@0VEmoticonInfoSort@@@Z ENDP ; std::sort<std::_Vector_iterator<std::_Vector_val<EmoticonInfo *,std::allocator<EmoticonInfo *> > >,EmoticonInfoSort>
_TEXT	ENDS
PUBLIC	?erase@?$vector@VioHashString@@V?$allocator@VioHashString@@@std@@@std@@QAE?AV?$_Vector_iterator@V?$_Vector_val@VioHashString@@V?$allocator@VioHashString@@@std@@@std@@@2@V?$_Vector_const_iterator@V?$_Vector_val@VioHashString@@V?$allocator@VioHashString@@@std@@@std@@@2@0@Z ; std::vector<ioHashString,std::allocator<ioHashString> >::erase
; Function compile flags: /Ogsp
; File c:\program files (x86)\microsoft visual studio 10.0\vc\include\vector
;	COMDAT ?erase@?$vector@VioHashString@@V?$allocator@VioHashString@@@std@@@std@@QAE?AV?$_Vector_iterator@V?$_Vector_val@VioHashString@@V?$allocator@VioHashString@@@std@@@std@@@2@V?$_Vector_const_iterator@V?$_Vector_val@VioHashString@@V?$allocator@VioHashString@@@std@@@std@@@2@0@Z
_TEXT	SEGMENT
$T539336 = -4						; size = 4
___$ReturnUdt$ = 8					; size = 4
__First_arg$ = 12					; size = 4
__Cat$539280 = 16					; size = 1
__Last_arg$ = 16					; size = 4
?erase@?$vector@VioHashString@@V?$allocator@VioHashString@@@std@@@std@@QAE?AV?$_Vector_iterator@V?$_Vector_val@VioHashString@@V?$allocator@VioHashString@@@std@@@std@@@2@V?$_Vector_const_iterator@V?$_Vector_val@VioHashString@@V?$allocator@VioHashString@@@std@@@std@@@2@0@Z PROC ; std::vector<ioHashString,std::allocator<ioHashString> >::erase, COMDAT
; _this$ = ecx

; 1190 : 		{	// erase [_First, _Last)

  00000	55		 push	 ebp
  00001	8b ec		 mov	 ebp, esp
  00003	51		 push	 ecx

; 1191 : 		iterator _First = _Make_iter(_First_arg);

  00004	8b 45 08	 mov	 eax, DWORD PTR ___$ReturnUdt$[ebp]
  00007	56		 push	 esi
  00008	8b f1		 mov	 esi, ecx
  0000a	8b 4d 0c	 mov	 ecx, DWORD PTR __First_arg$[ebp]
  0000d	89 08		 mov	 DWORD PTR [eax], ecx

; 1192 : 		iterator _Last = _Make_iter(_Last_arg);
; 1193 : 
; 1194 : 		if (_First != _Last)

  0000f	3b 4d 10	 cmp	 ecx, DWORD PTR __Last_arg$[ebp]
  00012	74 38		 je	 SHORT $LN1@erase@3

; 1195 : 			{	// worth doing, copy down over hole
; 1196 :  #if _ITERATOR_DEBUG_LEVEL == 2
; 1197 : 			if (_Last < _First || _VICONT(_First) != this
; 1198 : 				|| _VIPTR(_First) < this->_Myfirst
; 1199 : 				|| this->_Mylast < _VIPTR(_Last))
; 1200 : 				_DEBUG_ERROR("vector erase iterator outside range");
; 1201 : 			pointer _Ptr = _Move(_VIPTR(_Last), this->_Mylast,
; 1202 : 				_VIPTR(_First));
; 1203 : 			_Orphan_range(_VIPTR(_First), this->_Mylast);
; 1204 : 
; 1205 :  #else /* _ITERATOR_DEBUG_LEVEL == 2 */
; 1206 : 			pointer _Ptr = _Move(_VIPTR(_Last), this->_Mylast,
; 1207 : 				_VIPTR(_First));

  00014	8b 46 04	 mov	 eax, DWORD PTR [esi+4]
  00017	53		 push	 ebx
  00018	57		 push	 edi
  00019	ff 75 10	 push	 DWORD PTR __Cat$539280[ebp]
  0001c	51		 push	 ecx
  0001d	50		 push	 eax
  0001e	ff 75 10	 push	 DWORD PTR __Last_arg$[ebp]
  00021	e8 00 00 00 00	 call	 ??$_Move@PAVioHashString@@PAV1@@std@@YAPAVioHashString@@PAV1@00U_Nonscalar_ptr_iterator_tag@0@@Z ; std::_Move<ioHashString *,ioHashString *>

; 1208 :  #endif /* _ITERATOR_DEBUG_LEVEL == 2 */
; 1209 : 
; 1210 : 			_Destroy(_Ptr, this->_Mylast);

  00026	8b 7e 04	 mov	 edi, DWORD PTR [esi+4]
  00029	8b d8		 mov	 ebx, eax
  0002b	83 c4 10	 add	 esp, 16			; 00000010H
  0002e	89 5d fc	 mov	 DWORD PTR $T539336[ebp], ebx
  00031	3b df		 cmp	 ebx, edi
  00033	74 12		 je	 SHORT $LN36@erase@3
$LL52@erase@3:
  00035	8b 4d fc	 mov	 ecx, DWORD PTR $T539336[ebp]
  00038	ff 15 00 00 00
	00		 call	 DWORD PTR __imp_??1ioHashString@@QAE@XZ
  0003e	83 45 fc 10	 add	 DWORD PTR $T539336[ebp], 16 ; 00000010H
  00042	39 7d fc	 cmp	 DWORD PTR $T539336[ebp], edi
  00045	75 ee		 jne	 SHORT $LL52@erase@3
$LN36@erase@3:

; 1211 : 			this->_Mylast = _Ptr;

  00047	5f		 pop	 edi
  00048	89 5e 04	 mov	 DWORD PTR [esi+4], ebx
  0004b	5b		 pop	 ebx
$LN1@erase@3:

; 1212 : 			}
; 1213 : 		return (_First);

  0004c	8b 45 08	 mov	 eax, DWORD PTR ___$ReturnUdt$[ebp]
  0004f	5e		 pop	 esi

; 1214 : 		}

  00050	c9		 leave
  00051	c2 0c 00	 ret	 12			; 0000000cH
?erase@?$vector@VioHashString@@V?$allocator@VioHashString@@@std@@@std@@QAE?AV?$_Vector_iterator@V?$_Vector_val@VioHashString@@V?$allocator@VioHashString@@@std@@@std@@@2@V?$_Vector_const_iterator@V?$_Vector_val@VioHashString@@V?$allocator@VioHashString@@@std@@@std@@@2@0@Z ENDP ; std::vector<ioHashString,std::allocator<ioHashString> >::erase
_TEXT	ENDS
PUBLIC	?_Tidy@?$vector@VioHashString@@V?$allocator@VioHashString@@@std@@@std@@IAEXXZ ; std::vector<ioHashString,std::allocator<ioHashString> >::_Tidy
; Function compile flags: /Ogsp
;	COMDAT ?_Tidy@?$vector@VioHashString@@V?$allocator@VioHashString@@@std@@@std@@IAEXXZ
_TEXT	SEGMENT
?_Tidy@?$vector@VioHashString@@V?$allocator@VioHashString@@@std@@@std@@IAEXXZ PROC ; std::vector<ioHashString,std::allocator<ioHashString> >::_Tidy, COMDAT
; _this$ = ecx

; 1301 : 		{	// free all storage

  00000	56		 push	 esi
  00001	8b f1		 mov	 esi, ecx

; 1302 : 		if (this->_Myfirst != 0)

  00003	83 3e 00	 cmp	 DWORD PTR [esi], 0
  00006	74 28		 je	 SHORT $LN24@Tidy@2

; 1303 : 			{	// something to free, destroy and deallocate it
; 1304 : 			this->_Orphan_all();

  00008	53		 push	 ebx
  00009	57		 push	 edi
  0000a	ff 15 00 00 00
	00		 call	 DWORD PTR __imp_?_Orphan_all@_Container_base0@std@@QAEXXZ

; 1305 : 			_Destroy(this->_Myfirst, this->_Mylast);

  00010	8b 5e 04	 mov	 ebx, DWORD PTR [esi+4]
  00013	8b 3e		 mov	 edi, DWORD PTR [esi]
  00015	eb 0b		 jmp	 SHORT $LN28@Tidy@2
$LL12@Tidy@2:
  00017	8b cf		 mov	 ecx, edi
  00019	ff 15 00 00 00
	00		 call	 DWORD PTR __imp_??1ioHashString@@QAE@XZ
  0001f	83 c7 10	 add	 edi, 16			; 00000010H
$LN28@Tidy@2:
  00022	3b fb		 cmp	 edi, ebx
  00024	75 f1		 jne	 SHORT $LL12@Tidy@2

; 1306 : 			this->_Alval.deallocate(this->_Myfirst,
; 1307 : 				this->_Myend - this->_Myfirst);

  00026	ff 36		 push	 DWORD PTR [esi]
  00028	e8 00 00 00 00	 call	 ??3@YAXPAX@Z		; operator delete
  0002d	59		 pop	 ecx
  0002e	5f		 pop	 edi
  0002f	5b		 pop	 ebx
$LN24@Tidy@2:

; 1308 : 			}
; 1309 : 		this->_Myfirst = 0;

  00030	33 c0		 xor	 eax, eax
  00032	89 06		 mov	 DWORD PTR [esi], eax

; 1310 : 		this->_Mylast = 0;

  00034	89 46 04	 mov	 DWORD PTR [esi+4], eax

; 1311 : 		this->_Myend = 0;

  00037	89 46 08	 mov	 DWORD PTR [esi+8], eax
  0003a	5e		 pop	 esi

; 1312 : 		}

  0003b	c3		 ret	 0
?_Tidy@?$vector@VioHashString@@V?$allocator@VioHashString@@@std@@@std@@IAEXXZ ENDP ; std::vector<ioHashString,std::allocator<ioHashString> >::_Tidy
_TEXT	ENDS
PUBLIC	?ReSetHitCombo@ioCharEmoticon@@IAEXXZ		; ioCharEmoticon::ReSetHitCombo
; Function compile flags: /Ogsp
; File d:\lost saga for developer\youtube\tutorial\source\src\lsclient\iocharemoticon.cpp
;	COMDAT ?ReSetHitCombo@ioCharEmoticon@@IAEXXZ
_TEXT	SEGMENT
$T539497 = -4						; size = 4
?ReSetHitCombo@ioCharEmoticon@@IAEXXZ PROC		; ioCharEmoticon::ReSetHitCombo, COMDAT
; _this$ = ecx

; 301  : {

  00000	55		 push	 ebp
  00001	8b ec		 mov	 ebp, esp
  00003	51		 push	 ecx
  00004	56		 push	 esi
  00005	8b f1		 mov	 esi, ecx

; 302  : 	m_iCurHitComboCount++;

  00007	ff 46 24	 inc	 DWORD PTR [esi+36]
  0000a	57		 push	 edi

; 303  : 	m_dwEmoticonStartTime = FRAMEGETTIME();

  0000b	ff 15 00 00 00
	00		 call	 DWORD PTR __imp_?GetSingleton@ioFrameTimer@@SAAAV1@XZ
  00011	8b c8		 mov	 ecx, eax
  00013	ff 15 00 00 00
	00		 call	 DWORD PTR __imp_?GetLoopSec@ioFrameTimer@@QBEKXZ

; 304  : 	m_dwCurEmoticonDuration = m_dwLongDuration;
; 305  : 
; 306  : 	if( m_bOwnerChar )

  00019	80 7e 70 00	 cmp	 BYTE PTR [esi+112], 0
  0001d	89 46 10	 mov	 DWORD PTR [esi+16], eax
  00020	a1 00 00 00 00	 mov	 eax, DWORD PTR ?m_dwLongDuration@ioCharEmoticon@@1KA ; ioCharEmoticon::m_dwLongDuration
  00025	89 46 14	 mov	 DWORD PTR [esi+20], eax
  00028	74 14		 je	 SHORT $LN7@ReSetHitCo

; 307  : 	{
; 308  : 		m_fCurStartScale = m_fOwnerGameEventScale;

  0002a	f3 0f 10 05 00
	00 00 00	 movss	 xmm0, DWORD PTR ?m_fOwnerGameEventScale@ioCharEmoticon@@1MA
  00032	f3 0f 11 46 1c	 movss	 DWORD PTR [esi+28], xmm0

; 309  : 		m_dwCurScaleDuration = m_dwOwnerGameEventTime;

  00037	a1 00 00 00 00	 mov	 eax, DWORD PTR ?m_dwOwnerGameEventTime@ioCharEmoticon@@1KA ; ioCharEmoticon::m_dwOwnerGameEventTime

; 310  : 	}
; 311  : 	else

  0003c	eb 12		 jmp	 SHORT $LN24@ReSetHitCo
$LN7@ReSetHitCo:

; 312  : 	{
; 313  : 		m_fCurStartScale = m_fOtherGameEventScale;

  0003e	f3 0f 10 05 00
	00 00 00	 movss	 xmm0, DWORD PTR ?m_fOtherGameEventScale@ioCharEmoticon@@1MA
  00046	f3 0f 11 46 1c	 movss	 DWORD PTR [esi+28], xmm0

; 314  : 		m_dwCurScaleDuration = m_dwOtherGameEventTime;

  0004b	a1 00 00 00 00	 mov	 eax, DWORD PTR ?m_dwOtherGameEventTime@ioCharEmoticon@@1KA ; ioCharEmoticon::m_dwOtherGameEventTime
$LN24@ReSetHitCo:

; 315  : 	}
; 316  : 
; 317  : 	if( m_pEmoticon )

  00050	8b 0e		 mov	 ecx, DWORD PTR [esi]
  00052	89 46 18	 mov	 DWORD PTR [esi+24], eax
  00055	85 c9		 test	 ecx, ecx
  00057	74 10		 je	 SHORT $LN5@ReSetHitCo

; 318  : 		m_pEmoticon->SetScale( m_fCurStartScale );

  00059	f3 0f 10 46 1c	 movss	 xmm0, DWORD PTR [esi+28]
  0005e	8b 01		 mov	 eax, DWORD PTR [ecx]
  00060	51		 push	 ecx
  00061	f3 0f 11 04 24	 movss	 DWORD PTR [esp], xmm0
  00066	ff 50 1c	 call	 DWORD PTR [eax+28]
$LN5@ReSetHitCo:

; 319  : 
; 320  : 	if( !m_vHitComboNum.empty() )

  00069	8b 46 54	 mov	 eax, DWORD PTR [esi+84]
  0006c	3b 46 58	 cmp	 eax, DWORD PTR [esi+88]
  0006f	74 5b		 je	 SHORT $LN4@ReSetHitCo

; 321  : 	{
; 322  : 		ioHashString &rkNumberName = m_vHitComboNum[0];

  00071	53		 push	 ebx
  00072	8b d8		 mov	 ebx, eax

; 323  : 		if( !rkNumberName.IsEmpty() )

  00074	8b cb		 mov	 ecx, ebx
  00076	ff 15 00 00 00
	00		 call	 DWORD PTR __imp_?IsEmpty@ioHashString@@QBE_NXZ
  0007c	84 c0		 test	 al, al
  0007e	75 3c		 jne	 SHORT $LN1@ReSetHitCo

; 324  : 		{
; 325  : 			SAFEDELETE( m_pEmoticonNum );

  00080	8b 4e 08	 mov	 ecx, DWORD PTR [esi+8]
  00083	85 c9		 test	 ecx, ecx
  00085	74 0b		 je	 SHORT $LN2@ReSetHitCo
  00087	8b 01		 mov	 eax, DWORD PTR [ecx]
  00089	6a 01		 push	 1
  0008b	ff 50 40	 call	 DWORD PTR [eax+64]
  0008e	83 66 08 00	 and	 DWORD PTR [esi+8], 0
$LN2@ReSetHitCo:

; 326  : 			m_pEmoticonNum = g_UIImageSetMgr.CreateImageByFullName( rkNumberName );

  00092	6a 00		 push	 0
  00094	53		 push	 ebx
  00095	ff 15 00 00 00
	00		 call	 DWORD PTR __imp_?GetSingleton@ioUIImageSetManager@@SAAAV1@XZ
  0009b	8b c8		 mov	 ecx, eax
  0009d	ff 15 00 00 00
	00		 call	 DWORD PTR __imp_?CreateImageByFullName@ioUIImageSetManager@@QAEPAVioUIRenderImage@@ABVioHashString@@_N@Z
  000a3	89 46 08	 mov	 DWORD PTR [esi+8], eax

; 327  : 			if( m_pEmoticonNum )

  000a6	85 c0		 test	 eax, eax
  000a8	74 12		 je	 SHORT $LN1@ReSetHitCo

; 328  : 				m_pEmoticonNum->SetScale( m_fCurStartScale );

  000aa	f3 0f 10 46 1c	 movss	 xmm0, DWORD PTR [esi+28]
  000af	8b 10		 mov	 edx, DWORD PTR [eax]
  000b1	51		 push	 ecx
  000b2	8b c8		 mov	 ecx, eax
  000b4	f3 0f 11 04 24	 movss	 DWORD PTR [esp], xmm0
  000b9	ff 52 1c	 call	 DWORD PTR [edx+28]
$LN1@ReSetHitCo:

; 329  : 		}
; 330  : 		m_vHitComboNum.erase( m_vHitComboNum.begin() );

  000bc	ff 76 54	 push	 DWORD PTR [esi+84]
  000bf	8d 45 fc	 lea	 eax, DWORD PTR $T539497[ebp]
  000c2	50		 push	 eax
  000c3	8d 4e 54	 lea	 ecx, DWORD PTR [esi+84]
  000c6	e8 00 00 00 00	 call	 ?erase@?$vector@VioHashString@@V?$allocator@VioHashString@@@std@@@std@@QAE?AV?$_Vector_iterator@V?$_Vector_val@VioHashString@@V?$allocator@VioHashString@@@std@@@std@@@2@V?$_Vector_const_iterator@V?$_Vector_val@VioHashString@@V?$allocator@VioHashString@@@std@@@std@@@2@@Z ; std::vector<ioHashString,std::allocator<ioHashString> >::erase
  000cb	5b		 pop	 ebx
$LN4@ReSetHitCo:

; 331  : 	}
; 332  : 
; 333  : 	m_State = ES_SCALE;

  000cc	5f		 pop	 edi
  000cd	c7 46 68 01 00
	00 00		 mov	 DWORD PTR [esi+104], 1
  000d4	5e		 pop	 esi

; 334  : }

  000d5	c9		 leave
  000d6	c3		 ret	 0
?ReSetHitCombo@ioCharEmoticon@@IAEXXZ ENDP		; ioCharEmoticon::ReSetHitCombo
_TEXT	ENDS
PUBLIC	?AddReserveEmoticon@ioCharEmoticon@@IAEXPAUEmoticonInfo@@@Z ; ioCharEmoticon::AddReserveEmoticon
; Function compile flags: /Ogsp
;	COMDAT ?AddReserveEmoticon@ioCharEmoticon@@IAEXPAUEmoticonInfo@@@Z
_TEXT	SEGMENT
$T539533 = 8						; size = 1
_pInfo$ = 8						; size = 4
?AddReserveEmoticon@ioCharEmoticon@@IAEXPAUEmoticonInfo@@@Z PROC ; ioCharEmoticon::AddReserveEmoticon, COMDAT
; _this$ = ecx

; 1401 : {

  00000	55		 push	 ebp
  00001	8b ec		 mov	 ebp, esp

; 1402 : 	if( !pInfo ) return;

  00003	83 7d 08 00	 cmp	 DWORD PTR _pInfo$[ebp], 0
  00007	57		 push	 edi
  00008	8b f9		 mov	 edi, ecx
  0000a	74 28		 je	 SHORT $LN2@AddReserve

; 1403 : 
; 1404 : 	m_ReserveEmoticonList.push_back( pInfo );

  0000c	56		 push	 esi
  0000d	8d 45 08	 lea	 eax, DWORD PTR _pInfo$[ebp]
  00010	8d b7 fc 00 00
	00		 lea	 esi, DWORD PTR [edi+252]
  00016	50		 push	 eax
  00017	8b ce		 mov	 ecx, esi
  00019	e8 00 00 00 00	 call	 ?push_back@?$vector@PAUEmoticonInfo@@V?$allocator@PAUEmoticonInfo@@@std@@@std@@QAEXABQAUEmoticonInfo@@@Z ; std::vector<EmoticonInfo *,std::allocator<EmoticonInfo *> >::push_back

; 1405 : 
; 1406 : 	std::sort( m_ReserveEmoticonList.begin(), m_ReserveEmoticonList.end(), EmoticonInfoSort() );

  0001e	ff 75 08	 push	 DWORD PTR $T539533[ebp]
  00021	8b bf 00 01 00
	00		 mov	 edi, DWORD PTR [edi+256]
  00027	8b 36		 mov	 esi, DWORD PTR [esi]
  00029	57		 push	 edi
  0002a	56		 push	 esi
  0002b	e8 00 00 00 00	 call	 ??$sort@V?$_Vector_iterator@V?$_Vector_val@PAUEmoticonInfo@@V?$allocator@PAUEmoticonInfo@@@std@@@std@@@std@@VEmoticonInfoSort@@@std@@YAXV?$_Vector_iterator@V?$_Vector_val@PAUEmoticonInfo@@V?$allocator@PAUEmoticonInfo@@@std@@@std@@@0@0VEmoticonInfoSort@@@Z ; std::sort<std::_Vector_iterator<std::_Vector_val<EmoticonInfo *,std::allocator<EmoticonInfo *> > >,EmoticonInfoSort>
  00030	83 c4 0c	 add	 esp, 12			; 0000000cH
  00033	5e		 pop	 esi
$LN2@AddReserve:
  00034	5f		 pop	 edi

; 1407 : }

  00035	5d		 pop	 ebp
  00036	c2 04 00	 ret	 4
?AddReserveEmoticon@ioCharEmoticon@@IAEXPAUEmoticonInfo@@@Z ENDP ; ioCharEmoticon::AddReserveEmoticon
_TEXT	ENDS
PUBLIC	?SetNewEmoticon@ioCharEmoticon@@QAEXABVioHashString@@VioComplexStringPrinter@@W4EmoticonType@@H_NK@Z ; ioCharEmoticon::SetNewEmoticon
EXTRN	?CopyFullText@ioComplexStringPrinter@@QBEXAAV1@@Z:PROC ; ioComplexStringPrinter::CopyFullText
;	COMDAT xdata$x
xdata$x	SEGMENT
__unwindtable$?SetNewEmoticon@ioCharEmoticon@@QAEXABVioHashString@@VioComplexStringPrinter@@W4EmoticonType@@H_NK@Z DD 0ffffffffH
	DD	FLAT:__unwindfunclet$?SetNewEmoticon@ioCharEmoticon@@QAEXABVioHashString@@VioComplexStringPrinter@@W4EmoticonType@@H_NK@Z$0
	DD	00H
	DD	FLAT:__unwindfunclet$?SetNewEmoticon@ioCharEmoticon@@QAEXABVioHashString@@VioComplexStringPrinter@@W4EmoticonType@@H_NK@Z$1
__ehfuncinfo$?SetNewEmoticon@ioCharEmoticon@@QAEXABVioHashString@@VioComplexStringPrinter@@W4EmoticonType@@H_NK@Z DD 019930522H
	DD	02H
	DD	FLAT:__unwindtable$?SetNewEmoticon@ioCharEmoticon@@QAEXABVioHashString@@VioComplexStringPrinter@@W4EmoticonType@@H_NK@Z
	DD	2 DUP(00H)
	DD	2 DUP(00H)
	DD	00H
	DD	01H
; Function compile flags: /Ogsp
xdata$x	ENDS
;	COMDAT ?SetNewEmoticon@ioCharEmoticon@@QAEXABVioHashString@@VioComplexStringPrinter@@W4EmoticonType@@H_NK@Z
_TEXT	SEGMENT
$T539589 = -20						; size = 4
_pEmoticon$ = -16					; size = 4
__$EHRec$ = -12						; size = 12
_szEmoticon$ = 8					; size = 4
_DescString$ = 12					; size = 32
_eType$ = 44						; size = 4
_iPriority$ = 48					; size = 4
_bOwnerChar$ = 52					; size = 1
_dwDuration$ = 56					; size = 4
?SetNewEmoticon@ioCharEmoticon@@QAEXABVioHashString@@VioComplexStringPrinter@@W4EmoticonType@@H_NK@Z PROC ; ioCharEmoticon::SetNewEmoticon, COMDAT
; _this$ = ecx

; 1451 : {

  00000	6a 08		 push	 8
  00002	b8 00 00 00 00	 mov	 eax, __ehhandler$?SetNewEmoticon@ioCharEmoticon@@QAEXABVioHashString@@VioComplexStringPrinter@@W4EmoticonType@@H_NK@Z
  00007	e8 00 00 00 00	 call	 __EH_prolog3
  0000c	8b f1		 mov	 esi, ecx

; 1452 : 	if( szEmoticon.IsEmpty() )	return;

  0000e	8b 4d 08	 mov	 ecx, DWORD PTR _szEmoticon$[ebp]
  00011	83 65 fc 00	 and	 DWORD PTR __$EHRec$[ebp+8], 0
  00015	ff 15 00 00 00
	00		 call	 DWORD PTR __imp_?IsEmpty@ioHashString@@QBE_NXZ
  0001b	84 c0		 test	 al, al
  0001d	0f 85 79 02 00
	00		 jne	 $LN77@SetNewEmot

; 1453 : 	ioUIRenderImage *pEmoticon = g_UIImageSetMgr.CreateImageByFullName( szEmoticon );

  00023	6a 00		 push	 0
  00025	ff 75 08	 push	 DWORD PTR _szEmoticon$[ebp]
  00028	ff 15 00 00 00
	00		 call	 DWORD PTR __imp_?GetSingleton@ioUIImageSetManager@@SAAAV1@XZ
  0002e	8b c8		 mov	 ecx, eax
  00030	ff 15 00 00 00
	00		 call	 DWORD PTR __imp_?CreateImageByFullName@ioUIImageSetManager@@QAEPAVioUIRenderImage@@ABVioHashString@@_N@Z
  00036	89 45 f0	 mov	 DWORD PTR _pEmoticon$[ebp], eax

; 1454 : 	if( !pEmoticon ) return;

  00039	85 c0		 test	 eax, eax
  0003b	0f 84 5b 02 00
	00		 je	 $LN77@SetNewEmot

; 1455 : 
; 1456 : 	EmoticonInfo *pInfo = new EmoticonInfo;

  00041	6a 44		 push	 68			; 00000044H
  00043	e8 00 00 00 00	 call	 ??2@YAPAXI@Z		; operator new
  00048	59		 pop	 ecx
  00049	89 45 ec	 mov	 DWORD PTR $T539589[ebp], eax
  0004c	c6 45 fc 01	 mov	 BYTE PTR __$EHRec$[ebp+8], 1
  00050	85 c0		 test	 eax, eax
  00052	74 0b		 je	 SHORT $LN46@SetNewEmot
  00054	8b c8		 mov	 ecx, eax
  00056	e8 00 00 00 00	 call	 ??0EmoticonInfo@@QAE@XZ	; EmoticonInfo::EmoticonInfo
  0005b	8b f8		 mov	 edi, eax
  0005d	eb 02		 jmp	 SHORT $LN47@SetNewEmot
$LN46@SetNewEmot:
  0005f	33 ff		 xor	 edi, edi
$LN47@SetNewEmot:
  00061	c6 45 fc 00	 mov	 BYTE PTR __$EHRec$[ebp+8], 0

; 1457 : 	if( !pInfo ) return;

  00065	85 ff		 test	 edi, edi
  00067	0f 84 2f 02 00
	00		 je	 $LN77@SetNewEmot

; 1458 : 
; 1459 : 	pInfo->m_EmoticonName = szEmoticon;

  0006d	ff 75 08	 push	 DWORD PTR _szEmoticon$[ebp]
  00070	8b cf		 mov	 ecx, edi
  00072	ff 15 00 00 00
	00		 call	 DWORD PTR __imp_??4ioHashString@@QAEAAV0@ABV0@@Z

; 1460 : 	if( !DescString.IsEmpty() )

  00078	8b 45 18	 mov	 eax, DWORD PTR _DescString$[ebp+12]
  0007b	3b 45 1c	 cmp	 eax, DWORD PTR _DescString$[ebp+16]
  0007e	74 0c		 je	 SHORT $LN40@SetNewEmot

; 1461 : 		DescString.CopyFullText( pInfo->m_DescString  );

  00080	8d 47 1c	 lea	 eax, DWORD PTR [edi+28]
  00083	50		 push	 eax
  00084	8d 4d 0c	 lea	 ecx, DWORD PTR _DescString$[ebp]
  00087	e8 00 00 00 00	 call	 ?CopyFullText@ioComplexStringPrinter@@QBEXAAV1@@Z ; ioComplexStringPrinter::CopyFullText
$LN40@SetNewEmot:

; 1462 : 	pInfo->m_Type = eType;
; 1463 : 	pInfo->m_bOwner = bOwnerChar;

  0008c	8a 45 34	 mov	 al, BYTE PTR _bOwnerChar$[ebp]
  0008f	8b 5d 2c	 mov	 ebx, DWORD PTR _eType$[ebp]
  00092	88 47 14	 mov	 BYTE PTR [edi+20], al

; 1464 : 	pInfo->m_iPriority = iPriority;

  00095	8b 45 30	 mov	 eax, DWORD PTR _iPriority$[ebp]
  00098	89 5f 10	 mov	 DWORD PTR [edi+16], ebx
  0009b	89 47 18	 mov	 DWORD PTR [edi+24], eax

; 1465 : 	pInfo->m_dwStartTime = FRAMEGETTIME();

  0009e	ff 15 00 00 00
	00		 call	 DWORD PTR __imp_?GetSingleton@ioFrameTimer@@SAAAV1@XZ
  000a4	8b c8		 mov	 ecx, eax
  000a6	ff 15 00 00 00
	00		 call	 DWORD PTR __imp_?GetLoopSec@ioFrameTimer@@QBEKXZ
  000ac	89 47 3c	 mov	 DWORD PTR [edi+60], eax

; 1466 : 
; 1467 : 	// Duration
; 1468 : 	switch( eType )

  000af	83 fb 04	 cmp	 ebx, 4
  000b2	7f 17		 jg	 SHORT $LN48@SetNewEmot
  000b4	74 26		 je	 SHORT $LN34@SetNewEmot
  000b6	83 eb 00	 sub	 ebx, 0
  000b9	74 09		 je	 SHORT $LN33@SetNewEmot
  000bb	4b		 dec	 ebx
  000bc	74 1e		 je	 SHORT $LN34@SetNewEmot
  000be	4b		 dec	 ebx
  000bf	74 03		 je	 SHORT $LN33@SetNewEmot
  000c1	4b		 dec	 ebx
  000c2	75 27		 jne	 SHORT $LN38@SetNewEmot
$LN33@SetNewEmot:

; 1485 : 	case EMT_SKILL_BUFF:
; 1486 : 		pInfo->m_dwDuration = m_dwDefaultDuration;
; 1487 : 		break;
; 1488 : 	case EMT_BAD_STATE:
; 1489 : 		pInfo->m_dwDuration = m_dwDefaultDuration;

  000c4	a1 00 00 00 00	 mov	 eax, DWORD PTR ?m_dwDefaultDuration@ioCharEmoticon@@1KA ; ioCharEmoticon::m_dwDefaultDuration

; 1490 : 		break;

  000c9	eb 1d		 jmp	 SHORT $LN78@SetNewEmot
$LN48@SetNewEmot:

; 1466 : 
; 1467 : 	// Duration
; 1468 : 	switch( eType )

  000cb	83 eb 05	 sub	 ebx, 5
  000ce	74 13		 je	 SHORT $LN36@SetNewEmot
  000d0	4b		 dec	 ebx
  000d1	4b		 dec	 ebx
  000d2	74 08		 je	 SHORT $LN34@SetNewEmot
  000d4	4b		 dec	 ebx
  000d5	74 05		 je	 SHORT $LN34@SetNewEmot
  000d7	83 eb 03	 sub	 ebx, 3
  000da	75 0f		 jne	 SHORT $LN38@SetNewEmot
$LN34@SetNewEmot:

; 1475 : 		break;
; 1476 : 	case EMT_KILL_POINT:
; 1477 : 	case EMT_GAME_EVENT:
; 1478 : 	case EMT_HIT_COMBO:
; 1479 : 	case EMT_USER_RANK:
; 1480 : 		pInfo->m_dwDuration = m_dwLongDuration;
; 1481 : 		break;
; 1482 : 	case EMT_MOVIE_EVENT:
; 1483 : 		pInfo->m_dwDuration = m_dwLongDuration;

  000dc	a1 00 00 00 00	 mov	 eax, DWORD PTR ?m_dwLongDuration@ioCharEmoticon@@1KA ; ioCharEmoticon::m_dwLongDuration

; 1484 : 		break;

  000e1	eb 05		 jmp	 SHORT $LN78@SetNewEmot
$LN36@SetNewEmot:

; 1469 : 	{
; 1470 : 	case EMT_DEFAULT:
; 1471 : 		pInfo->m_dwDuration = m_dwDefaultDuration;
; 1472 : 		break;
; 1473 : 	case EMT_CHAT_ICON:
; 1474 : 		pInfo->m_dwDuration = m_dwChatIconDuration;

  000e3	a1 00 00 00 00	 mov	 eax, DWORD PTR ?m_dwChatIconDuration@ioCharEmoticon@@1KA ; ioCharEmoticon::m_dwChatIconDuration
$LN78@SetNewEmot:
  000e8	89 47 40	 mov	 DWORD PTR [edi+64], eax
$LN38@SetNewEmot:

; 1491 : 	}
; 1492 : 
; 1493 : 	//      
; 1494 : 	if( dwDuration > 0 )

  000eb	8b 45 38	 mov	 eax, DWORD PTR _dwDuration$[ebp]
  000ee	85 c0		 test	 eax, eax
  000f0	74 03		 je	 SHORT $LN31@SetNewEmot

; 1495 : 		pInfo->m_dwDuration = dwDuration;

  000f2	89 47 40	 mov	 DWORD PTR [edi+64], eax
$LN31@SetNewEmot:

; 1496 : 
; 1497 : 
; 1498 : 	if( m_pCurEmoticonInfo )

  000f5	8b 9e f8 00 00
	00		 mov	 ebx, DWORD PTR [esi+248]
  000fb	85 db		 test	 ebx, ebx
  000fd	74 5a		 je	 SHORT $LN30@SetNewEmot

; 1499 : 	{
; 1500 : 		if( m_pCurEmoticonInfo->m_iPriority < pInfo->m_iPriority )

  000ff	8b 43 18	 mov	 eax, DWORD PTR [ebx+24]
  00102	3b 47 18	 cmp	 eax, DWORD PTR [edi+24]
  00105	7d 2d		 jge	 SHORT $LN29@SetNewEmot

; 1501 : 		{
; 1502 : 			if( pInfo->m_Type == EMT_NAMED_UNLIMITED_ICON )

  00107	83 7f 10 0a	 cmp	 DWORD PTR [edi+16], 10	; 0000000aH
  0010b	75 0a		 jne	 SHORT $LN28@SetNewEmot

; 1503 : 				AddReserveEmoticon( pInfo );

  0010d	57		 push	 edi
  0010e	8b ce		 mov	 ecx, esi
  00110	e8 00 00 00 00	 call	 ?AddReserveEmoticon@ioCharEmoticon@@IAEXPAUEmoticonInfo@@@Z ; ioCharEmoticon::AddReserveEmoticon

; 1504 : 			else

  00115	eb 0e		 jmp	 SHORT $LN66@SetNewEmot
$LN28@SetNewEmot:

; 1505 : 				SAFEDELETE(pInfo);

  00117	8b cf		 mov	 ecx, edi
  00119	e8 00 00 00 00	 call	 ??1EmoticonInfo@@QAE@XZ
  0011e	57		 push	 edi
  0011f	e8 00 00 00 00	 call	 ??3@YAXPAX@Z		; operator delete
  00124	59		 pop	 ecx
$LN66@SetNewEmot:

; 1506 : 
; 1507 : 			SAFEDELETE(pEmoticon);

  00125	8b 4d f0	 mov	 ecx, DWORD PTR _pEmoticon$[ebp]
  00128	8b 01		 mov	 eax, DWORD PTR [ecx]
  0012a	6a 01		 push	 1
  0012c	ff 50 40	 call	 DWORD PTR [eax+64]

; 1508 : 			return;

  0012f	e9 68 01 00 00	 jmp	 $LN77@SetNewEmot
$LN29@SetNewEmot:

; 1509 : 		}
; 1510 : 		else
; 1511 : 		{
; 1512 : 			if( m_pCurEmoticonInfo->m_Type == EMT_NAMED_UNLIMITED_ICON )

  00134	83 7b 10 0a	 cmp	 DWORD PTR [ebx+16], 10	; 0000000aH
  00138	75 0a		 jne	 SHORT $LN23@SetNewEmot

; 1513 : 				AddReserveEmoticon( m_pCurEmoticonInfo );

  0013a	53		 push	 ebx
  0013b	8b ce		 mov	 ecx, esi
  0013d	e8 00 00 00 00	 call	 ?AddReserveEmoticon@ioCharEmoticon@@IAEXPAUEmoticonInfo@@@Z ; ioCharEmoticon::AddReserveEmoticon

; 1514 : 			else

  00142	eb 15		 jmp	 SHORT $LN30@SetNewEmot
$LN23@SetNewEmot:

; 1515 : 				SAFEDELETE( m_pCurEmoticonInfo );

  00144	8b cb		 mov	 ecx, ebx
  00146	e8 00 00 00 00	 call	 ??1EmoticonInfo@@QAE@XZ
  0014b	53		 push	 ebx
  0014c	e8 00 00 00 00	 call	 ??3@YAXPAX@Z		; operator delete
  00151	83 a6 f8 00 00
	00 00		 and	 DWORD PTR [esi+248], 0
  00158	59		 pop	 ecx
$LN30@SetNewEmot:

; 1516 : 
; 1517 : 			m_pCurEmoticonInfo = pInfo;
; 1518 : 		}
; 1519 : 	}
; 1520 : 	else
; 1521 : 	{
; 1522 : 		m_pCurEmoticonInfo = pInfo;
; 1523 : 	}
; 1524 : 
; 1525 : 	SAFEDELETE( m_pEmoticon );

  00159	8b 0e		 mov	 ecx, DWORD PTR [esi]
  0015b	89 be f8 00 00
	00		 mov	 DWORD PTR [esi+248], edi
  00161	85 c9		 test	 ecx, ecx
  00163	74 0a		 je	 SHORT $LN19@SetNewEmot
  00165	8b 01		 mov	 eax, DWORD PTR [ecx]
  00167	6a 01		 push	 1
  00169	ff 50 40	 call	 DWORD PTR [eax+64]
  0016c	83 26 00	 and	 DWORD PTR [esi], 0
$LN19@SetNewEmot:

; 1526 : 	SAFEDELETE( m_pEmoticonNum );

  0016f	8b 4e 08	 mov	 ecx, DWORD PTR [esi+8]
  00172	85 c9		 test	 ecx, ecx
  00174	74 0b		 je	 SHORT $LN18@SetNewEmot
  00176	8b 01		 mov	 eax, DWORD PTR [ecx]
  00178	6a 01		 push	 1
  0017a	ff 50 40	 call	 DWORD PTR [eax+64]
  0017d	83 66 08 00	 and	 DWORD PTR [esi+8], 0
$LN18@SetNewEmot:

; 1527 : 
; 1528 : 	m_pEmoticon = pEmoticon;

  00181	8b 45 f0	 mov	 eax, DWORD PTR _pEmoticon$[ebp]

; 1529 : 
; 1530 : 	CheckEmoticonBackImage();

  00184	8b ce		 mov	 ecx, esi
  00186	89 06		 mov	 DWORD PTR [esi], eax
  00188	e8 00 00 00 00	 call	 ?CheckEmoticonBackImage@ioCharEmoticon@@IAEXXZ ; ioCharEmoticon::CheckEmoticonBackImage

; 1531 : 
; 1532 : 	// Scale
; 1533 : 	switch( eType )

  0018d	8b 45 2c	 mov	 eax, DWORD PTR _eType$[ebp]
  00190	83 f8 04	 cmp	 eax, 4
  00193	7f 7d		 jg	 SHORT $LN59@SetNewEmot
  00195	0f 84 88 00 00
	00		 je	 $LN13@SetNewEmot
  0019b	83 e8 00	 sub	 eax, 0
  0019e	0f 84 ca 00 00
	00		 je	 $LN14@SetNewEmot
  001a4	48		 dec	 eax
  001a5	74 7c		 je	 SHORT $LN13@SetNewEmot
  001a7	48		 dec	 eax
  001a8	74 3a		 je	 SHORT $LN7@SetNewEmot
  001aa	48		 dec	 eax
  001ab	0f 85 ce 00 00
	00		 jne	 $LN16@SetNewEmot

; 1580 : 		}
; 1581 : 		break;
; 1582 : 	case EMT_BAD_STATE:
; 1583 : 		if( m_bOwnerChar )

  001b1	38 46 70	 cmp	 BYTE PTR [esi+112], al
  001b4	74 17		 je	 SHORT $LN3@SetNewEmot

; 1584 : 		{
; 1585 : 			m_fCurStartScale = m_fOwnerBadStateScale;

  001b6	f3 0f 10 05 00
	00 00 00	 movss	 xmm0, DWORD PTR ?m_fOwnerBadStateScale@ioCharEmoticon@@1MA
  001be	f3 0f 11 46 1c	 movss	 DWORD PTR [esi+28], xmm0

; 1586 : 			m_dwCurScaleDuration = m_dwOwnerBadStateTime;

  001c3	a1 00 00 00 00	 mov	 eax, DWORD PTR ?m_dwOwnerBadStateTime@ioCharEmoticon@@1KA ; ioCharEmoticon::m_dwOwnerBadStateTime

; 1587 : 		}
; 1588 : 		else

  001c8	e9 9c 00 00 00	 jmp	 $LN79@SetNewEmot
$LN3@SetNewEmot:

; 1589 : 		{
; 1590 : 			m_fCurStartScale = m_fOtherBadStateScale;

  001cd	f3 0f 10 05 00
	00 00 00	 movss	 xmm0, DWORD PTR ?m_fOtherBadStateScale@ioCharEmoticon@@1MA
  001d5	f3 0f 11 46 1c	 movss	 DWORD PTR [esi+28], xmm0

; 1591 : 			m_dwCurScaleDuration = m_dwOtherBadStateTime;

  001da	a1 00 00 00 00	 mov	 eax, DWORD PTR ?m_dwOtherBadStateTime@ioCharEmoticon@@1KA ; ioCharEmoticon::m_dwOtherBadStateTime

; 1592 : 		}
; 1593 : 		break;

  001df	e9 85 00 00 00	 jmp	 $LN79@SetNewEmot
$LN7@SetNewEmot:

; 1570 : 	case EMT_SKILL_BUFF:
; 1571 : 		if( m_bOwnerChar )

  001e4	80 7e 70 00	 cmp	 BYTE PTR [esi+112], 0
  001e8	74 14		 je	 SHORT $LN6@SetNewEmot

; 1572 : 		{
; 1573 : 			m_fCurStartScale = m_fOwnerSkillBuffScale;

  001ea	f3 0f 10 05 00
	00 00 00	 movss	 xmm0, DWORD PTR ?m_fOwnerSkillBuffScale@ioCharEmoticon@@1MA
  001f2	f3 0f 11 46 1c	 movss	 DWORD PTR [esi+28], xmm0

; 1574 : 			m_dwCurScaleDuration = m_dwOwnerSkillBuffTime;

  001f7	a1 00 00 00 00	 mov	 eax, DWORD PTR ?m_dwOwnerSkillBuffTime@ioCharEmoticon@@1KA ; ioCharEmoticon::m_dwOwnerSkillBuffTime

; 1575 : 		}
; 1576 : 		else

  001fc	eb 6b		 jmp	 SHORT $LN79@SetNewEmot
$LN6@SetNewEmot:

; 1577 : 		{
; 1578 : 			m_fCurStartScale = m_fOtherSkillBuffScale;

  001fe	f3 0f 10 05 00
	00 00 00	 movss	 xmm0, DWORD PTR ?m_fOtherSkillBuffScale@ioCharEmoticon@@1MA
  00206	f3 0f 11 46 1c	 movss	 DWORD PTR [esi+28], xmm0

; 1579 : 			m_dwCurScaleDuration = m_dwOtherSkillBuffTime;

  0020b	a1 00 00 00 00	 mov	 eax, DWORD PTR ?m_dwOtherSkillBuffTime@ioCharEmoticon@@1KA ; ioCharEmoticon::m_dwOtherSkillBuffTime
  00210	eb 57		 jmp	 SHORT $LN79@SetNewEmot
$LN59@SetNewEmot:

; 1531 : 
; 1532 : 	// Scale
; 1533 : 	switch( eType )

  00212	83 e8 05	 sub	 eax, 5
  00215	74 57		 je	 SHORT $LN14@SetNewEmot
  00217	48		 dec	 eax
  00218	48		 dec	 eax
  00219	74 08		 je	 SHORT $LN13@SetNewEmot
  0021b	48		 dec	 eax
  0021c	74 15		 je	 SHORT $LN10@SetNewEmot
  0021e	83 e8 03	 sub	 eax, 3
  00221	75 5c		 jne	 SHORT $LN16@SetNewEmot
$LN13@SetNewEmot:

; 1542 : 		break;
; 1543 : 	case EMT_KILL_POINT:
; 1544 : 	case EMT_GAME_EVENT:
; 1545 : 	case EMT_HIT_COMBO:
; 1546 : 	case EMT_USER_RANK:
; 1547 : 		if( m_bOwnerChar )

  00223	80 7e 70 00	 cmp	 BYTE PTR [esi+112], 0
  00227	74 2e		 je	 SHORT $LN12@SetNewEmot

; 1548 : 		{
; 1549 : 			m_fCurStartScale = m_fOwnerGameEventScale;

  00229	f3 0f 10 05 00
	00 00 00	 movss	 xmm0, DWORD PTR ?m_fOwnerGameEventScale@ioCharEmoticon@@1MA

; 1550 : 			m_dwCurScaleDuration = m_dwOwnerGameEventTime;
; 1551 : 		}
; 1552 : 		else

  00231	eb 0e		 jmp	 SHORT $LN81@SetNewEmot
$LN10@SetNewEmot:

; 1558 : 	case EMT_MOVIE_EVENT:
; 1559 : 		if( m_bOwnerChar )

  00233	80 7e 70 00	 cmp	 BYTE PTR [esi+112], 0
  00237	74 14		 je	 SHORT $LN9@SetNewEmot

; 1560 : 		{
; 1561 : 			m_fCurStartScale = m_fOwnerMovieEventScale;

  00239	f3 0f 10 05 00
	00 00 00	 movss	 xmm0, DWORD PTR ?m_fOwnerMovieEventScale@ioCharEmoticon@@1MA
$LN81@SetNewEmot:
  00241	f3 0f 11 46 1c	 movss	 DWORD PTR [esi+28], xmm0

; 1562 : 			m_dwCurScaleDuration = m_dwOwnerGameEventTime;

  00246	a1 00 00 00 00	 mov	 eax, DWORD PTR ?m_dwOwnerGameEventTime@ioCharEmoticon@@1KA ; ioCharEmoticon::m_dwOwnerGameEventTime

; 1563 : 		}
; 1564 : 		else

  0024b	eb 1c		 jmp	 SHORT $LN79@SetNewEmot
$LN9@SetNewEmot:

; 1565 : 		{
; 1566 : 			m_fCurStartScale = m_fOtherMovieEventScale;

  0024d	f3 0f 10 05 00
	00 00 00	 movss	 xmm0, DWORD PTR ?m_fOtherMovieEventScale@ioCharEmoticon@@1MA

; 1567 : 			m_dwCurScaleDuration = m_dwOtherGameEventTime;
; 1568 : 		}
; 1569 : 		break;

  00255	eb 08		 jmp	 SHORT $LN80@SetNewEmot
$LN12@SetNewEmot:

; 1553 : 		{
; 1554 : 			m_fCurStartScale = m_fOtherGameEventScale;

  00257	f3 0f 10 05 00
	00 00 00	 movss	 xmm0, DWORD PTR ?m_fOtherGameEventScale@ioCharEmoticon@@1MA
$LN80@SetNewEmot:
  0025f	f3 0f 11 46 1c	 movss	 DWORD PTR [esi+28], xmm0

; 1555 : 			m_dwCurScaleDuration = m_dwOtherGameEventTime;

  00264	a1 00 00 00 00	 mov	 eax, DWORD PTR ?m_dwOtherGameEventTime@ioCharEmoticon@@1KA ; ioCharEmoticon::m_dwOtherGameEventTime
$LN79@SetNewEmot:
  00269	89 46 18	 mov	 DWORD PTR [esi+24], eax

; 1556 : 		}
; 1557 : 		break;

  0026c	eb 11		 jmp	 SHORT $LN16@SetNewEmot
$LN14@SetNewEmot:

; 1534 : 	{
; 1535 : 	case EMT_DEFAULT:
; 1536 : 		m_fCurStartScale = m_fEmoticonEndScale;
; 1537 : 		m_dwCurScaleDuration = 0;
; 1538 : 		break;
; 1539 : 	case EMT_CHAT_ICON:
; 1540 : 		m_fCurStartScale = m_fEmoticonEndScale;

  0026e	f3 0f 10 05 00
	00 00 00	 movss	 xmm0, DWORD PTR ?m_fEmoticonEndScale@ioCharEmoticon@@1MA

; 1541 : 		m_dwCurScaleDuration = 0;

  00276	83 66 18 00	 and	 DWORD PTR [esi+24], 0
  0027a	f3 0f 11 46 1c	 movss	 DWORD PTR [esi+28], xmm0
$LN16@SetNewEmot:

; 1594 : 	}
; 1595 : 
; 1596 : 	if( m_pEmoticon )

  0027f	8b 0e		 mov	 ecx, DWORD PTR [esi]
  00281	85 c9		 test	 ecx, ecx
  00283	74 10		 je	 SHORT $LN1@SetNewEmot

; 1597 : 		m_pEmoticon->SetScale( m_fCurStartScale );

  00285	f3 0f 10 46 1c	 movss	 xmm0, DWORD PTR [esi+28]
  0028a	8b 01		 mov	 eax, DWORD PTR [ecx]
  0028c	51		 push	 ecx
  0028d	f3 0f 11 04 24	 movss	 DWORD PTR [esp], xmm0
  00292	ff 50 1c	 call	 DWORD PTR [eax+28]
$LN1@SetNewEmot:

; 1598 : 
; 1599 : 	m_State = ES_SCALE;

  00295	c7 46 68 01 00
	00 00		 mov	 DWORD PTR [esi+104], 1
$LN77@SetNewEmot:

; 1600 : }

  0029c	83 4d fc ff	 or	 DWORD PTR __$EHRec$[ebp+8], -1
  002a0	8d 4d 0c	 lea	 ecx, DWORD PTR _DescString$[ebp]
  002a3	e8 00 00 00 00	 call	 ??1ioComplexStringPrinter@@QAE@XZ ; ioComplexStringPrinter::~ioComplexStringPrinter
  002a8	e8 00 00 00 00	 call	 __EH_epilog3
  002ad	c2 34 00	 ret	 52			; 00000034H
_TEXT	ENDS
;	COMDAT text$x
text$x	SEGMENT
__unwindfunclet$?SetNewEmoticon@ioCharEmoticon@@QAEXABVioHashString@@VioComplexStringPrinter@@W4EmoticonType@@H_NK@Z$0:
  00000	8d 4d 0c	 lea	 ecx, DWORD PTR _DescString$[ebp]
  00003	e9 00 00 00 00	 jmp	 ??1ioComplexStringPrinter@@QAE@XZ ; ioComplexStringPrinter::~ioComplexStringPrinter
__unwindfunclet$?SetNewEmoticon@ioCharEmoticon@@QAEXABVioHashString@@VioComplexStringPrinter@@W4EmoticonType@@H_NK@Z$1:
  00008	ff 75 ec	 push	 DWORD PTR $T539589[ebp]
  0000b	e8 00 00 00 00	 call	 ??3@YAXPAX@Z		; operator delete
  00010	59		 pop	 ecx
  00011	c3		 ret	 0
__ehhandler$?SetNewEmoticon@ioCharEmoticon@@QAEXABVioHashString@@VioComplexStringPrinter@@W4EmoticonType@@H_NK@Z:
  00012	8b 54 24 08	 mov	 edx, DWORD PTR [esp+8]
  00016	8d 42 0c	 lea	 eax, DWORD PTR [edx+12]
  00019	8b 4a e8	 mov	 ecx, DWORD PTR [edx-24]
  0001c	33 c8		 xor	 ecx, eax
  0001e	e8 00 00 00 00	 call	 @__security_check_cookie@4
  00023	b8 00 00 00 00	 mov	 eax, OFFSET __ehfuncinfo$?SetNewEmoticon@ioCharEmoticon@@QAEXABVioHashString@@VioComplexStringPrinter@@W4EmoticonType@@H_NK@Z
  00028	e9 00 00 00 00	 jmp	 ___CxxFrameHandler3
text$x	ENDS
?SetNewEmoticon@ioCharEmoticon@@QAEXABVioHashString@@VioComplexStringPrinter@@W4EmoticonType@@H_NK@Z ENDP ; ioCharEmoticon::SetNewEmoticon
PUBLIC	?_Reserve@?$vector@VioHashString@@V?$allocator@VioHashString@@@std@@@std@@IAEXI@Z ; std::vector<ioHashString,std::allocator<ioHashString> >::_Reserve
; Function compile flags: /Ogsp
; File c:\program files (x86)\microsoft visual studio 10.0\vc\include\vector
;	COMDAT ?_Reserve@?$vector@VioHashString@@V?$allocator@VioHashString@@@std@@@std@@IAEXI@Z
_TEXT	SEGMENT
__Count$ = 8						; size = 4
?_Reserve@?$vector@VioHashString@@V?$allocator@VioHashString@@@std@@@std@@IAEXI@Z PROC ; std::vector<ioHashString,std::allocator<ioHashString> >::_Reserve, COMDAT
; _this$ = ecx

; 1290 : 		{	// ensure room for _Count new elements, grow exponentially

  00000	55		 push	 ebp
  00001	8b ec		 mov	 ebp, esp
  00003	56		 push	 esi
  00004	8b f1		 mov	 esi, ecx

; 1291 : 		size_type _Size = size();

  00006	8b 0e		 mov	 ecx, DWORD PTR [esi]
  00008	8b 46 04	 mov	 eax, DWORD PTR [esi+4]
  0000b	2b c1		 sub	 eax, ecx

; 1292 : 		if (max_size() - _Count < _Size)

  0000d	ba ff ff ff 0f	 mov	 edx, 268435455		; 0fffffffH
  00012	2b 55 08	 sub	 edx, DWORD PTR __Count$[ebp]
  00015	c1 f8 04	 sar	 eax, 4
  00018	3b d0		 cmp	 edx, eax
  0001a	73 0b		 jae	 SHORT $LN4@Reserve@2

; 1293 : 			_Xlen();

  0001c	68 00 00 00 00	 push	 OFFSET ??_C@_0BD@OLBABOEK@vector?$DMT?$DO?5too?5long?$AA@
  00021	ff 15 00 00 00
	00		 call	 DWORD PTR __imp_?_Xlength_error@std@@YAXPBD@Z
$LN21@Reserve@2:
$LN4@Reserve@2:

; 1294 : 		else if ((_Size += _Count) <= capacity())

  00027	8b 56 08	 mov	 edx, DWORD PTR [esi+8]
  0002a	03 45 08	 add	 eax, DWORD PTR __Count$[ebp]
  0002d	2b d1		 sub	 edx, ecx
  0002f	c1 fa 04	 sar	 edx, 4
  00032	3b c2		 cmp	 eax, edx
  00034	76 10		 jbe	 SHORT $LN1@Reserve@2

; 1295 : 			;
; 1296 : 		else
; 1297 : 			reserve(_Grow_to(_Size));

  00036	50		 push	 eax
  00037	8b ce		 mov	 ecx, esi
  00039	e8 00 00 00 00	 call	 ?_Grow_to@?$vector@VioHashString@@V?$allocator@VioHashString@@@std@@@std@@IBEII@Z ; std::vector<ioHashString,std::allocator<ioHashString> >::_Grow_to
  0003e	50		 push	 eax
  0003f	8b ce		 mov	 ecx, esi
  00041	e8 00 00 00 00	 call	 ?reserve@?$vector@VioHashString@@V?$allocator@VioHashString@@@std@@@std@@QAEXI@Z ; std::vector<ioHashString,std::allocator<ioHashString> >::reserve
$LN1@Reserve@2:
  00046	5e		 pop	 esi

; 1298 : 		}

  00047	5d		 pop	 ebp
  00048	c2 04 00	 ret	 4
$LN20@Reserve@2:
?_Reserve@?$vector@VioHashString@@V?$allocator@VioHashString@@@std@@@std@@IAEXI@Z ENDP ; std::vector<ioHashString,std::allocator<ioHashString> >::_Reserve
_TEXT	ENDS
PUBLIC	??1?$vector@VioHashString@@V?$allocator@VioHashString@@@std@@@std@@QAE@XZ ; std::vector<ioHashString,std::allocator<ioHashString> >::~vector<ioHashString,std::allocator<ioHashString> >
; Function compile flags: /Ogsp
;	COMDAT ??1?$vector@VioHashString@@V?$allocator@VioHashString@@@std@@@std@@QAE@XZ
_TEXT	SEGMENT
??1?$vector@VioHashString@@V?$allocator@VioHashString@@@std@@@std@@QAE@XZ PROC ; std::vector<ioHashString,std::allocator<ioHashString> >::~vector<ioHashString,std::allocator<ioHashString> >, COMDAT
; _this$ = ecx

; 705  : 		_Tidy();

  00000	e9 00 00 00 00	 jmp	 ?_Tidy@?$vector@VioHashString@@V?$allocator@VioHashString@@@std@@@std@@IAEXXZ ; std::vector<ioHashString,std::allocator<ioHashString> >::_Tidy
??1?$vector@VioHashString@@V?$allocator@VioHashString@@@std@@@std@@QAE@XZ ENDP ; std::vector<ioHashString,std::allocator<ioHashString> >::~vector<ioHashString,std::allocator<ioHashString> >
_TEXT	ENDS
PUBLIC	?clear@?$vector@VioHashString@@V?$allocator@VioHashString@@@std@@@std@@QAEXXZ ; std::vector<ioHashString,std::allocator<ioHashString> >::clear
; Function compile flags: /Ogsp
;	COMDAT ?clear@?$vector@VioHashString@@V?$allocator@VioHashString@@@std@@@std@@QAEXXZ
_TEXT	SEGMENT
$T539691 = -4						; size = 4
?clear@?$vector@VioHashString@@V?$allocator@VioHashString@@@std@@@std@@QAEXXZ PROC ; std::vector<ioHashString,std::allocator<ioHashString> >::clear, COMDAT
; _this$ = ecx

; 1217 : 		{	// erase all

  00000	55		 push	 ebp
  00001	8b ec		 mov	 ebp, esp
  00003	51		 push	 ecx

; 1218 : 		erase(begin(), end());

  00004	8b 41 04	 mov	 eax, DWORD PTR [ecx+4]
  00007	8b 11		 mov	 edx, DWORD PTR [ecx]
  00009	50		 push	 eax
  0000a	52		 push	 edx
  0000b	8d 45 fc	 lea	 eax, DWORD PTR $T539691[ebp]
  0000e	50		 push	 eax
  0000f	e8 00 00 00 00	 call	 ?erase@?$vector@VioHashString@@V?$allocator@VioHashString@@@std@@@std@@QAE?AV?$_Vector_iterator@V?$_Vector_val@VioHashString@@V?$allocator@VioHashString@@@std@@@std@@@2@V?$_Vector_const_iterator@V?$_Vector_val@VioHashString@@V?$allocator@VioHashString@@@std@@@std@@@2@0@Z ; std::vector<ioHashString,std::allocator<ioHashString> >::erase

; 1219 : 		}

  00014	c9		 leave
  00015	c3		 ret	 0
?clear@?$vector@VioHashString@@V?$allocator@VioHashString@@@std@@@std@@QAEXXZ ENDP ; std::vector<ioHashString,std::allocator<ioHashString> >::clear
_TEXT	ENDS
PUBLIC	??0ioCharEmoticon@@QAE@XZ			; ioCharEmoticon::ioCharEmoticon
;	COMDAT xdata$x
; File c:\program files (x86)\microsoft visual studio 10.0\vc\include\xutility
xdata$x	SEGMENT
__ehfuncinfo$??0ioCharEmoticon@@QAE@XZ DD 019930522H
	DD	07H
	DD	FLAT:__unwindtable$??0ioCharEmoticon@@QAE@XZ
	DD	2 DUP(00H)
	DD	2 DUP(00H)
	DD	00H
	DD	01H
__unwindtable$??0ioCharEmoticon@@QAE@XZ DD 0ffffffffH
	DD	FLAT:__unwindfunclet$??0ioCharEmoticon@@QAE@XZ$0
	DD	00H
	DD	FLAT:__unwindfunclet$??0ioCharEmoticon@@QAE@XZ$1
	DD	01H
	DD	FLAT:__unwindfunclet$??0ioCharEmoticon@@QAE@XZ$2
	DD	02H
	DD	FLAT:__unwindfunclet$??0ioCharEmoticon@@QAE@XZ$3
	DD	03H
	DD	FLAT:__unwindfunclet$??0ioCharEmoticon@@QAE@XZ$4
	DD	04H
	DD	FLAT:__unwindfunclet$??0ioCharEmoticon@@QAE@XZ$5
	DD	05H
	DD	FLAT:__unwindfunclet$??0ioCharEmoticon@@QAE@XZ$6
; Function compile flags: /Ogsp
; File d:\lost saga for developer\youtube\tutorial\source\src\lsclient\iocharemoticon.cpp
xdata$x	ENDS
;	COMDAT ??0ioCharEmoticon@@QAE@XZ
_TEXT	SEGMENT
tv497 = -20						; size = 4
tv493 = -20						; size = 4
tv489 = -20						; size = 4
$T539899 = -20						; size = 4
_this$ = -16						; size = 4
__$EHRec$ = -12						; size = 12
??0ioCharEmoticon@@QAE@XZ PROC				; ioCharEmoticon::ioCharEmoticon, COMDAT
; _this$ = ecx

; 60   : {

  00000	6a 08		 push	 8
  00002	b8 00 00 00 00	 mov	 eax, __ehhandler$??0ioCharEmoticon@@QAE@XZ
  00007	e8 00 00 00 00	 call	 __EH_prolog3
  0000c	8b f1		 mov	 esi, ecx
  0000e	89 75 f0	 mov	 DWORD PTR _this$[ebp], esi
  00011	8b 3d 00 00 00
	00		 mov	 edi, DWORD PTR __imp_??0ioHashString@@QAE@XZ
  00017	8d 4e 2c	 lea	 ecx, DWORD PTR [esi+44]
  0001a	ff d7		 call	 edi
  0001c	33 db		 xor	 ebx, ebx
  0001e	8d 4e 40	 lea	 ecx, DWORD PTR [esi+64]
  00021	89 5d fc	 mov	 DWORD PTR __$EHRec$[ebp+8], ebx
  00024	ff d7		 call	 edi
  00026	89 5e 54	 mov	 DWORD PTR [esi+84], ebx
  00029	89 5e 58	 mov	 DWORD PTR [esi+88], ebx
  0002c	89 5e 5c	 mov	 DWORD PTR [esi+92], ebx
  0002f	8d 8e 90 00 00
	00		 lea	 ecx, DWORD PTR [esi+144]
  00035	c6 45 fc 02	 mov	 BYTE PTR __$EHRec$[ebp+8], 2
  00039	ff d7		 call	 edi
  0003b	8d 8e a4 00 00
	00		 lea	 ecx, DWORD PTR [esi+164]
  00041	c6 45 fc 03	 mov	 BYTE PTR __$EHRec$[ebp+8], 3
  00045	ff d7		 call	 edi
  00047	89 9e d0 00 00
	00		 mov	 DWORD PTR [esi+208], ebx
  0004d	89 9e d4 00 00
	00		 mov	 DWORD PTR [esi+212], ebx
  00053	89 9e d8 00 00
	00		 mov	 DWORD PTR [esi+216], ebx
  00059	89 9e fc 00 00
	00		 mov	 DWORD PTR [esi+252], ebx
  0005f	89 9e 00 01 00
	00		 mov	 DWORD PTR [esi+256], ebx
  00065	89 9e 04 01 00
	00		 mov	 DWORD PTR [esi+260], ebx
  0006b	c6 45 fc 06	 mov	 BYTE PTR __$EHRec$[ebp+8], 6

; 61   : 	m_pEmoticon = NULL;

  0006f	89 1e		 mov	 DWORD PTR [esi], ebx

; 62   : 	m_pEmoticonBack = NULL;

  00071	89 5e 04	 mov	 DWORD PTR [esi+4], ebx

; 63   : 	m_pEmoticonNum  = NULL;

  00074	89 5e 08	 mov	 DWORD PTR [esi+8], ebx

; 64   : 
; 65   : 	m_p3DChatEmoticon = NULL;

  00077	89 5e 0c	 mov	 DWORD PTR [esi+12], ebx

; 66   : 
; 67   : 	m_pKillPointNum = NULL;

  0007a	89 9e c0 00 00
	00		 mov	 DWORD PTR [esi+192], ebx

; 68   : 	m_pKillPointPer = NULL;

  00080	89 9e c4 00 00
	00		 mov	 DWORD PTR [esi+196], ebx

; 69   : 
; 70   : 	m_pChatBubbleCenter  = NULL;

  00086	89 9e c8 00 00
	00		 mov	 DWORD PTR [esi+200], ebx

; 71   : 	m_pChatBubbleRight   = NULL;

  0008c	89 9e cc 00 00
	00		 mov	 DWORD PTR [esi+204], ebx

; 72   : 
; 73   : 	m_dwEmoticonStartTime = 0;

  00092	89 5e 10	 mov	 DWORD PTR [esi+16], ebx

; 74   : 	m_dwCurEmoticonDuration = 0;

  00095	89 5e 14	 mov	 DWORD PTR [esi+20], ebx

; 75   : 	m_dwCurScaleDuration = 0;

  00098	89 5e 18	 mov	 DWORD PTR [esi+24], ebx

; 76   : 	m_fCurStartScale    = FLOAT1;

  0009b	b8 01 00 00 00	 mov	 eax, 1
  000a0	89 45 ec	 mov	 DWORD PTR tv497[ebp], eax
  000a3	db 45 ec	 fild	 DWORD PTR tv497[ebp]
  000a6	85 c0		 test	 eax, eax
  000a8	79 06		 jns	 SHORT $LN59@ioCharEmot
  000aa	d8 05 00 00 00
	00		 fadd	 DWORD PTR __real@4f800000
$LN59@ioCharEmot:

; 77   : 	m_iHitComboCount    = 0;
; 78   : 	m_iCurHitComboCount = 0;
; 79   : 
; 80   : 	m_bLongTimeLiveEmoticon = false;
; 81   : 	m_bUnLimitedEmoticon = false;
; 82   : 
; 83   : 	m_State = ES_NONE;
; 84   : 	m_Type  = EMT_DEFAULT;
; 85   : 	m_bOwnerChar = false;
; 86   : 
; 87   : 	m_RenderType = UI_RENDER_NORMAL;
; 88   : 	m_iRenderXPos = 0;
; 89   : 	m_iRenderYPos = 0;
; 90   : 
; 91   : 	m_bNeedRender = false;
; 92   : 	m_bInScreen = false;
; 93   : 	m_bVisible  = false;
; 94   : 
; 95   : 	m_iCharRank    = 0;
; 96   : 
; 97   : 	m_szEmoticonName.Clear();

  000b0	8d 8e 90 00 00
	00		 lea	 ecx, DWORD PTR [esi+144]
  000b6	d9 5e 1c	 fstp	 DWORD PTR [esi+28]
  000b9	89 5e 20	 mov	 DWORD PTR [esi+32], ebx
  000bc	89 5e 24	 mov	 DWORD PTR [esi+36], ebx
  000bf	88 5e 3c	 mov	 BYTE PTR [esi+60], bl
  000c2	88 5e 50	 mov	 BYTE PTR [esi+80], bl
  000c5	89 5e 68	 mov	 DWORD PTR [esi+104], ebx
  000c8	89 5e 6c	 mov	 DWORD PTR [esi+108], ebx
  000cb	88 5e 70	 mov	 BYTE PTR [esi+112], bl
  000ce	89 5e 74	 mov	 DWORD PTR [esi+116], ebx
  000d1	89 5e 78	 mov	 DWORD PTR [esi+120], ebx
  000d4	89 5e 7c	 mov	 DWORD PTR [esi+124], ebx
  000d7	66 89 9e 88 00
	00 00		 mov	 WORD PTR [esi+136], bx
  000de	88 9e 8a 00 00
	00		 mov	 BYTE PTR [esi+138], bl
  000e4	89 5e 64	 mov	 DWORD PTR [esi+100], ebx
  000e7	ff 15 00 00 00
	00		 call	 DWORD PTR __imp_?Clear@ioHashString@@QAEXXZ

; 98   : 
; 99   : 	//
; 100  : 	m_bFastDuration = false;

  000ed	88 9e e0 00 00
	00		 mov	 BYTE PTR [esi+224], bl

; 101  : 	m_fCurDurationScaleRate = FLOAT1;

  000f3	b8 01 00 00 00	 mov	 eax, 1
  000f8	89 45 ec	 mov	 DWORD PTR tv493[ebp], eax
  000fb	db 45 ec	 fild	 DWORD PTR tv493[ebp]
  000fe	85 c0		 test	 eax, eax
  00100	79 06		 jns	 SHORT $LN60@ioCharEmot
  00102	d8 05 00 00 00
	00		 fadd	 DWORD PTR __real@4f800000
$LN60@ioCharEmot:
  00108	d9 9e e4 00 00
	00		 fstp	 DWORD PTR [esi+228]

; 102  : 	m_dwDurationScaleStartTime = 0;

  0010e	89 9e e8 00 00
	00		 mov	 DWORD PTR [esi+232], ebx

; 103  : 
; 104  : 	m_pFishingGrade = NULL;

  00114	89 9e ec 00 00
	00		 mov	 DWORD PTR [esi+236], ebx

; 105  : 	m_pFishingLevelUp = NULL;

  0011a	89 9e f0 00 00
	00		 mov	 DWORD PTR [esi+240], ebx

; 106  : 	m_fCurFishingGradeScale = FLOAT1;

  00120	b8 01 00 00 00	 mov	 eax, 1
  00125	89 45 ec	 mov	 DWORD PTR tv489[ebp], eax
  00128	db 45 ec	 fild	 DWORD PTR tv489[ebp]
  0012b	85 c0		 test	 eax, eax
  0012d	79 06		 jns	 SHORT $LN61@ioCharEmot
  0012f	d8 05 00 00 00
	00		 fadd	 DWORD PTR __real@4f800000
$LN61@ioCharEmot:
  00135	d9 9e f4 00 00
	00		 fstp	 DWORD PTR [esi+244]

; 107  : 	//
; 108  : 
; 109  : 	// NewEmoticon
; 110  : 	m_pCurEmoticonInfo = NULL;

  0013b	89 9e f8 00 00
	00		 mov	 DWORD PTR [esi+248], ebx

; 111  : 	m_ReserveEmoticonList.clear();

  00141	8b 86 00 01 00
	00		 mov	 eax, DWORD PTR [esi+256]
  00147	8b 8e fc 00 00
	00		 mov	 ecx, DWORD PTR [esi+252]
  0014d	50		 push	 eax
  0014e	51		 push	 ecx
  0014f	8d 45 ec	 lea	 eax, DWORD PTR $T539899[ebp]
  00152	50		 push	 eax
  00153	8d 8e fc 00 00
	00		 lea	 ecx, DWORD PTR [esi+252]
  00159	e8 00 00 00 00	 call	 ?erase@?$vector@PAUEmoticonInfo@@V?$allocator@PAUEmoticonInfo@@@std@@@std@@QAE?AV?$_Vector_iterator@V?$_Vector_val@PAUEmoticonInfo@@V?$allocator@PAUEmoticonInfo@@@std@@@std@@@2@V?$_Vector_const_iterator@V?$_Vector_val@PAUEmoticonInfo@@V?$allocator@PAUEmoticonInfo@@@std@@@std@@@2@0@Z ; std::vector<EmoticonInfo *,std::allocator<EmoticonInfo *> >::erase

; 112  : }

  0015e	8b c6		 mov	 eax, esi
  00160	e8 00 00 00 00	 call	 __EH_epilog3
  00165	c3		 ret	 0
_TEXT	ENDS
;	COMDAT text$x
text$x	SEGMENT
__unwindfunclet$??0ioCharEmoticon@@QAE@XZ$0:
  00000	8b 4d f0	 mov	 ecx, DWORD PTR _this$[ebp]
  00003	83 c1 2c	 add	 ecx, 44			; 0000002cH
  00006	ff 25 00 00 00
	00		 jmp	 DWORD PTR __imp_??1ioHashString@@QAE@XZ
__unwindfunclet$??0ioCharEmoticon@@QAE@XZ$1:
  0000c	8b 4d f0	 mov	 ecx, DWORD PTR _this$[ebp]
  0000f	83 c1 40	 add	 ecx, 64			; 00000040H
  00012	ff 25 00 00 00
	00		 jmp	 DWORD PTR __imp_??1ioHashString@@QAE@XZ
__unwindfunclet$??0ioCharEmoticon@@QAE@XZ$2:
  00018	8b 4d f0	 mov	 ecx, DWORD PTR _this$[ebp]
  0001b	83 c1 54	 add	 ecx, 84			; 00000054H
  0001e	e9 00 00 00 00	 jmp	 ??1?$vector@VioHashString@@V?$allocator@VioHashString@@@std@@@std@@QAE@XZ ; std::vector<ioHashString,std::allocator<ioHashString> >::~vector<ioHashString,std::allocator<ioHashString> >
__unwindfunclet$??0ioCharEmoticon@@QAE@XZ$3:
  00023	8b 4d f0	 mov	 ecx, DWORD PTR _this$[ebp]
  00026	81 c1 90 00 00
	00		 add	 ecx, 144		; 00000090H
  0002c	ff 25 00 00 00
	00		 jmp	 DWORD PTR __imp_??1ioHashString@@QAE@XZ
__unwindfunclet$??0ioCharEmoticon@@QAE@XZ$4:
  00032	8b 4d f0	 mov	 ecx, DWORD PTR _this$[ebp]
  00035	81 c1 a4 00 00
	00		 add	 ecx, 164		; 000000a4H
  0003b	ff 25 00 00 00
	00		 jmp	 DWORD PTR __imp_??1ioHashString@@QAE@XZ
__unwindfunclet$??0ioCharEmoticon@@QAE@XZ$5:
  00041	8b 4d f0	 mov	 ecx, DWORD PTR _this$[ebp]
  00044	81 c1 d0 00 00
	00		 add	 ecx, 208		; 000000d0H
  0004a	e9 00 00 00 00	 jmp	 ??1?$vector@VioHashString@@V?$allocator@VioHashString@@@std@@@std@@QAE@XZ ; std::vector<ioHashString,std::allocator<ioHashString> >::~vector<ioHashString,std::allocator<ioHashString> >
__unwindfunclet$??0ioCharEmoticon@@QAE@XZ$6:
  0004f	8b 4d f0	 mov	 ecx, DWORD PTR _this$[ebp]
  00052	81 c1 fc 00 00
	00		 add	 ecx, 252		; 000000fcH
  00058	e9 00 00 00 00	 jmp	 ??1?$vector@PAUEmoticonInfo@@V?$allocator@PAUEmoticonInfo@@@std@@@std@@QAE@XZ ; std::vector<EmoticonInfo *,std::allocator<EmoticonInfo *> >::~vector<EmoticonInfo *,std::allocator<EmoticonInfo *> >
__ehhandler$??0ioCharEmoticon@@QAE@XZ:
  0005d	8b 54 24 08	 mov	 edx, DWORD PTR [esp+8]
  00061	8d 42 0c	 lea	 eax, DWORD PTR [edx+12]
  00064	8b 4a e8	 mov	 ecx, DWORD PTR [edx-24]
  00067	33 c8		 xor	 ecx, eax
  00069	e8 00 00 00 00	 call	 @__security_check_cookie@4
  0006e	b8 00 00 00 00	 mov	 eax, OFFSET __ehfuncinfo$??0ioCharEmoticon@@QAE@XZ
  00073	e9 00 00 00 00	 jmp	 ___CxxFrameHandler3
text$x	ENDS
??0ioCharEmoticon@@QAE@XZ ENDP				; ioCharEmoticon::ioCharEmoticon
PUBLIC	??1ioCharEmoticon@@QAE@XZ			; ioCharEmoticon::~ioCharEmoticon
;	COMDAT xdata$x
; File c:\program files (x86)\microsoft visual studio 10.0\vc\include\vector
xdata$x	SEGMENT
__ehfuncinfo$??1ioCharEmoticon@@QAE@XZ DD 019930522H
	DD	07H
	DD	FLAT:__unwindtable$??1ioCharEmoticon@@QAE@XZ
	DD	2 DUP(00H)
	DD	2 DUP(00H)
	DD	00H
	DD	01H
__unwindtable$??1ioCharEmoticon@@QAE@XZ DD 0ffffffffH
	DD	FLAT:__unwindfunclet$??1ioCharEmoticon@@QAE@XZ$0
	DD	00H
	DD	FLAT:__unwindfunclet$??1ioCharEmoticon@@QAE@XZ$1
	DD	01H
	DD	FLAT:__unwindfunclet$??1ioCharEmoticon@@QAE@XZ$2
	DD	02H
	DD	FLAT:__unwindfunclet$??1ioCharEmoticon@@QAE@XZ$3
	DD	03H
	DD	FLAT:__unwindfunclet$??1ioCharEmoticon@@QAE@XZ$4
	DD	04H
	DD	FLAT:__unwindfunclet$??1ioCharEmoticon@@QAE@XZ$5
	DD	05H
	DD	FLAT:__unwindfunclet$??1ioCharEmoticon@@QAE@XZ$6
; Function compile flags: /Ogsp
; File d:\lost saga for developer\youtube\tutorial\source\src\lsclient\iocharemoticon.cpp
xdata$x	ENDS
;	COMDAT ??1ioCharEmoticon@@QAE@XZ
_TEXT	SEGMENT
_this$ = -24						; size = 4
$T540299 = -20						; size = 4
$T540131 = -20						; size = 4
$T540051 = -20						; size = 4
_pInfo$525184 = -20					; size = 4
tv721 = -16						; size = 4
_iter$ = -16						; size = 4
__$EHRec$ = -12						; size = 12
??1ioCharEmoticon@@QAE@XZ PROC				; ioCharEmoticon::~ioCharEmoticon, COMDAT
; _this$ = ecx

; 115  : {

  00000	6a 0c		 push	 12			; 0000000cH
  00002	b8 00 00 00 00	 mov	 eax, __ehhandler$??1ioCharEmoticon@@QAE@XZ
  00007	e8 00 00 00 00	 call	 __EH_prolog3
  0000c	8b f1		 mov	 esi, ecx
  0000e	89 75 e8	 mov	 DWORD PTR _this$[ebp], esi

; 116  : 	SAFEDELETE( m_pEmoticon );

  00011	8b 0e		 mov	 ecx, DWORD PTR [esi]
  00013	33 ff		 xor	 edi, edi
  00015	c7 45 fc 06 00
	00 00		 mov	 DWORD PTR __$EHRec$[ebp+8], 6
  0001c	3b cf		 cmp	 ecx, edi
  0001e	74 09		 je	 SHORT $LN14@ioCharEmot@2
  00020	8b 01		 mov	 eax, DWORD PTR [ecx]
  00022	6a 01		 push	 1
  00024	ff 50 40	 call	 DWORD PTR [eax+64]
  00027	89 3e		 mov	 DWORD PTR [esi], edi
$LN14@ioCharEmot@2:

; 117  : 	SAFEDELETE( m_pEmoticonBack );

  00029	8b 4e 04	 mov	 ecx, DWORD PTR [esi+4]
  0002c	3b cf		 cmp	 ecx, edi
  0002e	74 0a		 je	 SHORT $LN13@ioCharEmot@2
  00030	8b 01		 mov	 eax, DWORD PTR [ecx]
  00032	6a 01		 push	 1
  00034	ff 50 40	 call	 DWORD PTR [eax+64]
  00037	89 7e 04	 mov	 DWORD PTR [esi+4], edi
$LN13@ioCharEmot@2:

; 118  : 	SAFEDELETE( m_pEmoticonNum );

  0003a	8b 4e 08	 mov	 ecx, DWORD PTR [esi+8]
  0003d	3b cf		 cmp	 ecx, edi
  0003f	74 0a		 je	 SHORT $LN12@ioCharEmot@2
  00041	8b 01		 mov	 eax, DWORD PTR [ecx]
  00043	6a 01		 push	 1
  00045	ff 50 40	 call	 DWORD PTR [eax+64]
  00048	89 7e 08	 mov	 DWORD PTR [esi+8], edi
$LN12@ioCharEmot@2:

; 119  : 	SAFEDELETE( m_p3DChatEmoticon );

  0004b	8b 5e 0c	 mov	 ebx, DWORD PTR [esi+12]
  0004e	3b df		 cmp	 ebx, edi
  00050	74 11		 je	 SHORT $LN11@ioCharEmot@2
  00052	8b cb		 mov	 ecx, ebx
  00054	e8 00 00 00 00	 call	 ??1io3DCharEmoticon@@QAE@XZ ; io3DCharEmoticon::~io3DCharEmoticon
  00059	53		 push	 ebx
  0005a	e8 00 00 00 00	 call	 ??3@YAXPAX@Z		; operator delete
  0005f	59		 pop	 ecx
  00060	89 7e 0c	 mov	 DWORD PTR [esi+12], edi
$LN11@ioCharEmot@2:

; 120  : 
; 121  : 	SAFEDELETE( m_pKillPointNum );

  00063	8b 8e c0 00 00
	00		 mov	 ecx, DWORD PTR [esi+192]
  00069	3b cf		 cmp	 ecx, edi
  0006b	74 0d		 je	 SHORT $LN10@ioCharEmot@2
  0006d	8b 01		 mov	 eax, DWORD PTR [ecx]
  0006f	6a 01		 push	 1
  00071	ff 50 40	 call	 DWORD PTR [eax+64]
  00074	89 be c0 00 00
	00		 mov	 DWORD PTR [esi+192], edi
$LN10@ioCharEmot@2:

; 122  : 	SAFEDELETE( m_pKillPointPer );

  0007a	8b 8e c4 00 00
	00		 mov	 ecx, DWORD PTR [esi+196]
  00080	3b cf		 cmp	 ecx, edi
  00082	74 0d		 je	 SHORT $LN9@ioCharEmot@2
  00084	8b 01		 mov	 eax, DWORD PTR [ecx]
  00086	6a 01		 push	 1
  00088	ff 50 40	 call	 DWORD PTR [eax+64]
  0008b	89 be c4 00 00
	00		 mov	 DWORD PTR [esi+196], edi
$LN9@ioCharEmot@2:

; 123  : 
; 124  : 	SAFEDELETE( m_pChatBubbleCenter );

  00091	8b 8e c8 00 00
	00		 mov	 ecx, DWORD PTR [esi+200]
  00097	3b cf		 cmp	 ecx, edi
  00099	74 0d		 je	 SHORT $LN8@ioCharEmot@2
  0009b	8b 01		 mov	 eax, DWORD PTR [ecx]
  0009d	6a 01		 push	 1
  0009f	ff 50 40	 call	 DWORD PTR [eax+64]
  000a2	89 be c8 00 00
	00		 mov	 DWORD PTR [esi+200], edi
$LN8@ioCharEmot@2:

; 125  : 	SAFEDELETE( m_pChatBubbleRight );

  000a8	8b 8e cc 00 00
	00		 mov	 ecx, DWORD PTR [esi+204]
  000ae	3b cf		 cmp	 ecx, edi
  000b0	74 0d		 je	 SHORT $LN7@ioCharEmot@2
  000b2	8b 01		 mov	 eax, DWORD PTR [ecx]
  000b4	6a 01		 push	 1
  000b6	ff 50 40	 call	 DWORD PTR [eax+64]
  000b9	89 be cc 00 00
	00		 mov	 DWORD PTR [esi+204], edi
$LN7@ioCharEmot@2:

; 126  : 
; 127  : 	SAFEDELETE( m_pFishingGrade );

  000bf	8b 8e ec 00 00
	00		 mov	 ecx, DWORD PTR [esi+236]
  000c5	3b cf		 cmp	 ecx, edi
  000c7	74 0d		 je	 SHORT $LN6@ioCharEmot@2
  000c9	8b 01		 mov	 eax, DWORD PTR [ecx]
  000cb	6a 01		 push	 1
  000cd	ff 50 40	 call	 DWORD PTR [eax+64]
  000d0	89 be ec 00 00
	00		 mov	 DWORD PTR [esi+236], edi
$LN6@ioCharEmot@2:

; 128  : 	SAFEDELETE( m_pFishingLevelUp );

  000d6	8b 8e f0 00 00
	00		 mov	 ecx, DWORD PTR [esi+240]
  000dc	3b cf		 cmp	 ecx, edi
  000de	74 0d		 je	 SHORT $LN5@ioCharEmot@2
  000e0	8b 01		 mov	 eax, DWORD PTR [ecx]
  000e2	6a 01		 push	 1
  000e4	ff 50 40	 call	 DWORD PTR [eax+64]
  000e7	89 be f0 00 00
	00		 mov	 DWORD PTR [esi+240], edi
$LN5@ioCharEmot@2:

; 129  : 
; 130  : 	m_vHitComboNum.clear();

  000ed	8b 46 58	 mov	 eax, DWORD PTR [esi+88]
  000f0	8b 4e 54	 mov	 ecx, DWORD PTR [esi+84]
  000f3	50		 push	 eax
  000f4	51		 push	 ecx
  000f5	8d 45 ec	 lea	 eax, DWORD PTR $T540051[ebp]
  000f8	50		 push	 eax
  000f9	8d 4e 54	 lea	 ecx, DWORD PTR [esi+84]
  000fc	e8 00 00 00 00	 call	 ?erase@?$vector@VioHashString@@V?$allocator@VioHashString@@@std@@@std@@QAE?AV?$_Vector_iterator@V?$_Vector_val@VioHashString@@V?$allocator@VioHashString@@@std@@@std@@@2@V?$_Vector_const_iterator@V?$_Vector_val@VioHashString@@V?$allocator@VioHashString@@@std@@@std@@@2@0@Z ; std::vector<ioHashString,std::allocator<ioHashString> >::erase

; 131  : 	m_vChatTextVec.clear();

  00101	8d 8e d0 00 00
	00		 lea	 ecx, DWORD PTR [esi+208]
  00107	8b 41 04	 mov	 eax, DWORD PTR [ecx+4]
  0010a	8b 11		 mov	 edx, DWORD PTR [ecx]
  0010c	50		 push	 eax
  0010d	52		 push	 edx
  0010e	8d 45 ec	 lea	 eax, DWORD PTR $T540131[ebp]
  00111	50		 push	 eax
  00112	e8 00 00 00 00	 call	 ?erase@?$vector@VioHashString@@V?$allocator@VioHashString@@@std@@@std@@QAE?AV?$_Vector_iterator@V?$_Vector_val@VioHashString@@V?$allocator@VioHashString@@@std@@@std@@@2@V?$_Vector_const_iterator@V?$_Vector_val@VioHashString@@V?$allocator@VioHashString@@@std@@@std@@@2@0@Z ; std::vector<ioHashString,std::allocator<ioHashString> >::erase

; 132  : 
; 133  : 	// NewEmoticon
; 134  : 	SAFEDELETE(m_pCurEmoticonInfo);

  00117	8b 8e f8 00 00
	00		 mov	 ecx, DWORD PTR [esi+248]
  0011d	89 4d f0	 mov	 DWORD PTR tv721[ebp], ecx
  00120	85 c9		 test	 ecx, ecx
  00122	74 14		 je	 SHORT $LN4@ioCharEmot@2
  00124	e8 00 00 00 00	 call	 ??1EmoticonInfo@@QAE@XZ
  00129	ff 75 f0	 push	 DWORD PTR tv721[ebp]
  0012c	e8 00 00 00 00	 call	 ??3@YAXPAX@Z		; operator delete
  00131	21 be f8 00 00
	00		 and	 DWORD PTR [esi+248], edi
  00137	59		 pop	 ecx
$LN4@ioCharEmot@2:

; 135  : 
; 136  : 	EmoticonInfoList::iterator iter = m_ReserveEmoticonList.begin();

  00138	8b 86 fc 00 00
	00		 mov	 eax, DWORD PTR [esi+252]
  0013e	eb 1d		 jmp	 SHORT $LN158@ioCharEmot@2
$LL3@ioCharEmot@2:

; 137  : 	while( iter != m_ReserveEmoticonList.end() )
; 138  : 	{
; 139  : 		EmoticonInfo *pInfo = (*iter);

  00140	8b 08		 mov	 ecx, DWORD PTR [eax]
  00142	89 4d ec	 mov	 DWORD PTR _pInfo$525184[ebp], ecx

; 140  : 		SAFEDELETE(pInfo);

  00145	85 c9		 test	 ecx, ecx
  00147	74 11		 je	 SHORT $LN116@ioCharEmot@2
  00149	e8 00 00 00 00	 call	 ??1EmoticonInfo@@QAE@XZ
  0014e	ff 75 ec	 push	 DWORD PTR _pInfo$525184[ebp]
  00151	e8 00 00 00 00	 call	 ??3@YAXPAX@Z		; operator delete
  00156	8b 45 f0	 mov	 eax, DWORD PTR _iter$[ebp]
  00159	59		 pop	 ecx
$LN116@ioCharEmot@2:

; 141  : 
; 142  : 		++iter;

  0015a	83 c0 04	 add	 eax, 4
$LN158@ioCharEmot@2:
  0015d	89 45 f0	 mov	 DWORD PTR _iter$[ebp], eax
  00160	3b 86 00 01 00
	00		 cmp	 eax, DWORD PTR [esi+256]
  00166	75 d8		 jne	 SHORT $LL3@ioCharEmot@2

; 143  : 	}
; 144  : 	m_ReserveEmoticonList.clear();

  00168	8b 86 00 01 00
	00		 mov	 eax, DWORD PTR [esi+256]
  0016e	8b 8e fc 00 00
	00		 mov	 ecx, DWORD PTR [esi+252]
  00174	50		 push	 eax
  00175	51		 push	 ecx
  00176	8d 45 ec	 lea	 eax, DWORD PTR $T540299[ebp]
  00179	50		 push	 eax
  0017a	8d 8e fc 00 00
	00		 lea	 ecx, DWORD PTR [esi+252]
  00180	e8 00 00 00 00	 call	 ?erase@?$vector@PAUEmoticonInfo@@V?$allocator@PAUEmoticonInfo@@@std@@@std@@QAE?AV?$_Vector_iterator@V?$_Vector_val@PAUEmoticonInfo@@V?$allocator@PAUEmoticonInfo@@@std@@@std@@@2@V?$_Vector_const_iterator@V?$_Vector_val@PAUEmoticonInfo@@V?$allocator@PAUEmoticonInfo@@@std@@@std@@@2@0@Z ; std::vector<EmoticonInfo *,std::allocator<EmoticonInfo *> >::erase

; 145  : }

  00185	8d 8e fc 00 00
	00		 lea	 ecx, DWORD PTR [esi+252]
  0018b	c6 45 fc 05	 mov	 BYTE PTR __$EHRec$[ebp+8], 5
  0018f	e8 00 00 00 00	 call	 ?_Tidy@?$vector@PAUEmoticonInfo@@V?$allocator@PAUEmoticonInfo@@@std@@@std@@IAEXXZ ; std::vector<EmoticonInfo *,std::allocator<EmoticonInfo *> >::_Tidy
  00194	8d 8e d0 00 00
	00		 lea	 ecx, DWORD PTR [esi+208]
  0019a	c6 45 fc 04	 mov	 BYTE PTR __$EHRec$[ebp+8], 4
  0019e	e8 00 00 00 00	 call	 ?_Tidy@?$vector@VioHashString@@V?$allocator@VioHashString@@@std@@@std@@IAEXXZ ; std::vector<ioHashString,std::allocator<ioHashString> >::_Tidy
  001a3	8b 3d 00 00 00
	00		 mov	 edi, DWORD PTR __imp_??1ioHashString@@QAE@XZ
  001a9	8d 8e a4 00 00
	00		 lea	 ecx, DWORD PTR [esi+164]
  001af	c6 45 fc 03	 mov	 BYTE PTR __$EHRec$[ebp+8], 3
  001b3	ff d7		 call	 edi
  001b5	8d 8e 90 00 00
	00		 lea	 ecx, DWORD PTR [esi+144]
  001bb	c6 45 fc 02	 mov	 BYTE PTR __$EHRec$[ebp+8], 2
  001bf	ff d7		 call	 edi
  001c1	8d 4e 54	 lea	 ecx, DWORD PTR [esi+84]
  001c4	c6 45 fc 01	 mov	 BYTE PTR __$EHRec$[ebp+8], 1
  001c8	e8 00 00 00 00	 call	 ?_Tidy@?$vector@VioHashString@@V?$allocator@VioHashString@@@std@@@std@@IAEXXZ ; std::vector<ioHashString,std::allocator<ioHashString> >::_Tidy
  001cd	8d 4e 40	 lea	 ecx, DWORD PTR [esi+64]
  001d0	c6 45 fc 00	 mov	 BYTE PTR __$EHRec$[ebp+8], 0
  001d4	ff d7		 call	 edi
  001d6	83 4d fc ff	 or	 DWORD PTR __$EHRec$[ebp+8], -1
  001da	8d 4e 2c	 lea	 ecx, DWORD PTR [esi+44]
  001dd	ff d7		 call	 edi
  001df	e8 00 00 00 00	 call	 __EH_epilog3
  001e4	c3		 ret	 0
_TEXT	ENDS
;	COMDAT text$x
text$x	SEGMENT
__unwindfunclet$??1ioCharEmoticon@@QAE@XZ$0:
  00000	8b 4d e8	 mov	 ecx, DWORD PTR _this$[ebp]
  00003	83 c1 2c	 add	 ecx, 44			; 0000002cH
  00006	ff 25 00 00 00
	00		 jmp	 DWORD PTR __imp_??1ioHashString@@QAE@XZ
__unwindfunclet$??1ioCharEmoticon@@QAE@XZ$1:
  0000c	8b 4d e8	 mov	 ecx, DWORD PTR _this$[ebp]
  0000f	83 c1 40	 add	 ecx, 64			; 00000040H
  00012	ff 25 00 00 00
	00		 jmp	 DWORD PTR __imp_??1ioHashString@@QAE@XZ
__unwindfunclet$??1ioCharEmoticon@@QAE@XZ$2:
  00018	8b 4d e8	 mov	 ecx, DWORD PTR _this$[ebp]
  0001b	83 c1 54	 add	 ecx, 84			; 00000054H
  0001e	e9 00 00 00 00	 jmp	 ??1?$vector@VioHashString@@V?$allocator@VioHashString@@@std@@@std@@QAE@XZ ; std::vector<ioHashString,std::allocator<ioHashString> >::~vector<ioHashString,std::allocator<ioHashString> >
__unwindfunclet$??1ioCharEmoticon@@QAE@XZ$3:
  00023	8b 4d e8	 mov	 ecx, DWORD PTR _this$[ebp]
  00026	81 c1 90 00 00
	00		 add	 ecx, 144		; 00000090H
  0002c	ff 25 00 00 00
	00		 jmp	 DWORD PTR __imp_??1ioHashString@@QAE@XZ
__unwindfunclet$??1ioCharEmoticon@@QAE@XZ$4:
  00032	8b 4d e8	 mov	 ecx, DWORD PTR _this$[ebp]
  00035	81 c1 a4 00 00
	00		 add	 ecx, 164		; 000000a4H
  0003b	ff 25 00 00 00
	00		 jmp	 DWORD PTR __imp_??1ioHashString@@QAE@XZ
__unwindfunclet$??1ioCharEmoticon@@QAE@XZ$5:
  00041	8b 4d e8	 mov	 ecx, DWORD PTR _this$[ebp]
  00044	81 c1 d0 00 00
	00		 add	 ecx, 208		; 000000d0H
  0004a	e9 00 00 00 00	 jmp	 ??1?$vector@VioHashString@@V?$allocator@VioHashString@@@std@@@std@@QAE@XZ ; std::vector<ioHashString,std::allocator<ioHashString> >::~vector<ioHashString,std::allocator<ioHashString> >
__unwindfunclet$??1ioCharEmoticon@@QAE@XZ$6:
  0004f	8b 4d e8	 mov	 ecx, DWORD PTR _this$[ebp]
  00052	81 c1 fc 00 00
	00		 add	 ecx, 252		; 000000fcH
  00058	e9 00 00 00 00	 jmp	 ??1?$vector@PAUEmoticonInfo@@V?$allocator@PAUEmoticonInfo@@@std@@@std@@QAE@XZ ; std::vector<EmoticonInfo *,std::allocator<EmoticonInfo *> >::~vector<EmoticonInfo *,std::allocator<EmoticonInfo *> >
__ehhandler$??1ioCharEmoticon@@QAE@XZ:
  0005d	8b 54 24 08	 mov	 edx, DWORD PTR [esp+8]
  00061	8d 42 0c	 lea	 eax, DWORD PTR [edx+12]
  00064	8b 4a e4	 mov	 ecx, DWORD PTR [edx-28]
  00067	33 c8		 xor	 ecx, eax
  00069	e8 00 00 00 00	 call	 @__security_check_cookie@4
  0006e	b8 00 00 00 00	 mov	 eax, OFFSET __ehfuncinfo$??1ioCharEmoticon@@QAE@XZ
  00073	e9 00 00 00 00	 jmp	 ___CxxFrameHandler3
text$x	ENDS
??1ioCharEmoticon@@QAE@XZ ENDP				; ioCharEmoticon::~ioCharEmoticon
PUBLIC	?EndEmoticon@ioCharEmoticon@@IAEXXZ		; ioCharEmoticon::EndEmoticon
; Function compile flags: /Ogsp
;	COMDAT ?EndEmoticon@ioCharEmoticon@@IAEXXZ
_TEXT	SEGMENT
$T540445 = -4						; size = 4
?EndEmoticon@ioCharEmoticon@@IAEXXZ PROC		; ioCharEmoticon::EndEmoticon, COMDAT
; _this$ = ecx

; 668  : {

  00000	55		 push	 ebp
  00001	8b ec		 mov	 ebp, esp
  00003	51		 push	 ecx
  00004	53		 push	 ebx
  00005	56		 push	 esi
  00006	8b f1		 mov	 esi, ecx

; 669  : 	if( m_bLongTimeLiveEmoticon )

  00008	33 db		 xor	 ebx, ebx
  0000a	57		 push	 edi
  0000b	38 5e 3c	 cmp	 BYTE PTR [esi+60], bl
  0000e	74 0e		 je	 SHORT $LN11@EndEmotico@2

; 670  : 	{
; 671  : 		SetLongTimeLiveEmoticon( m_LongTimeLiveEmoticon );

  00010	8d 46 2c	 lea	 eax, DWORD PTR [esi+44]
  00013	50		 push	 eax
  00014	e8 00 00 00 00	 call	 ?SetLongTimeLiveEmoticon@ioCharEmoticon@@QAEXABVioHashString@@@Z ; ioCharEmoticon::SetLongTimeLiveEmoticon
  00019	e9 a5 00 00 00	 jmp	 $LN8@EndEmotico@2
$LN11@EndEmotico@2:

; 672  : 	}
; 673  : 	else if( m_bUnLimitedEmoticon )

  0001e	38 5e 50	 cmp	 BYTE PTR [esi+80], bl
  00021	74 1c		 je	 SHORT $LN9@EndEmotico@2

; 674  : 	{
; 675  : 		SetNamedUnLimitedEmoticon( NULL, m_UnLimitedEmoticon, m_szUnLimitedEmoticonName, m_dwUnLimitedEmoticonNameColor );

  00023	ff b6 a0 00 00
	00		 push	 DWORD PTR [esi+160]
  00029	8d 86 a4 00 00
	00		 lea	 eax, DWORD PTR [esi+164]
  0002f	50		 push	 eax
  00030	8d 46 40	 lea	 eax, DWORD PTR [esi+64]
  00033	50		 push	 eax
  00034	53		 push	 ebx
  00035	e8 00 00 00 00	 call	 ?SetNamedUnLimitedEmoticon@ioCharEmoticon@@QAEXPAVioBaseChar@@ABVioHashString@@1K@Z ; ioCharEmoticon::SetNamedUnLimitedEmoticon

; 676  : 	}
; 677  : 	else

  0003a	e9 84 00 00 00	 jmp	 $LN8@EndEmotico@2
$LN9@EndEmotico@2:

; 678  : 	{
; 679  : 		SAFEDELETE( m_pEmoticon );

  0003f	8b 0e		 mov	 ecx, DWORD PTR [esi]
  00041	3b cb		 cmp	 ecx, ebx
  00043	74 09		 je	 SHORT $LN46@EndEmotico@2
  00045	8b 01		 mov	 eax, DWORD PTR [ecx]
  00047	6a 01		 push	 1
  00049	ff 50 40	 call	 DWORD PTR [eax+64]
  0004c	89 1e		 mov	 DWORD PTR [esi], ebx
$LN46@EndEmotico@2:

; 680  : 		SAFEDELETE( m_pEmoticonNum );

  0004e	8b 4e 08	 mov	 ecx, DWORD PTR [esi+8]
  00051	3b cb		 cmp	 ecx, ebx
  00053	74 0a		 je	 SHORT $LN6@EndEmotico@2
  00055	8b 01		 mov	 eax, DWORD PTR [ecx]
  00057	6a 01		 push	 1
  00059	ff 50 40	 call	 DWORD PTR [eax+64]
  0005c	89 5e 08	 mov	 DWORD PTR [esi+8], ebx
$LN6@EndEmotico@2:

; 681  : 		SAFEDELETE( m_pKillPointNum );

  0005f	8b 8e c0 00 00
	00		 mov	 ecx, DWORD PTR [esi+192]
  00065	3b cb		 cmp	 ecx, ebx
  00067	74 0d		 je	 SHORT $LN5@EndEmotico@2
  00069	8b 01		 mov	 eax, DWORD PTR [ecx]
  0006b	6a 01		 push	 1
  0006d	ff 50 40	 call	 DWORD PTR [eax+64]
  00070	89 9e c0 00 00
	00		 mov	 DWORD PTR [esi+192], ebx
$LN5@EndEmotico@2:

; 682  : 		SAFEDELETE( m_pFishingGrade );

  00076	8b 8e ec 00 00
	00		 mov	 ecx, DWORD PTR [esi+236]
  0007c	3b cb		 cmp	 ecx, ebx
  0007e	74 0d		 je	 SHORT $LN4@EndEmotico@2
  00080	8b 01		 mov	 eax, DWORD PTR [ecx]
  00082	6a 01		 push	 1
  00084	ff 50 40	 call	 DWORD PTR [eax+64]
  00087	89 9e ec 00 00
	00		 mov	 DWORD PTR [esi+236], ebx
$LN4@EndEmotico@2:

; 683  : 		SAFEDELETE( m_pFishingLevelUp );

  0008d	8b 8e f0 00 00
	00		 mov	 ecx, DWORD PTR [esi+240]
  00093	3b cb		 cmp	 ecx, ebx
  00095	74 0d		 je	 SHORT $LN3@EndEmotico@2
  00097	8b 01		 mov	 eax, DWORD PTR [ecx]
  00099	6a 01		 push	 1
  0009b	ff 50 40	 call	 DWORD PTR [eax+64]
  0009e	89 9e f0 00 00
	00		 mov	 DWORD PTR [esi+240], ebx
$LN3@EndEmotico@2:

; 684  : 
; 685  : 		m_dwEmoticonStartTime = 0;
; 686  : 		m_dwCurEmoticonDuration = 0;
; 687  : 		m_dwCurScaleDuration = 0;
; 688  : 		m_fCurStartScale = 0.0f;

  000a4	0f 57 c0	 xorps	 xmm0, xmm0
  000a7	89 5e 10	 mov	 DWORD PTR [esi+16], ebx
  000aa	89 5e 14	 mov	 DWORD PTR [esi+20], ebx
  000ad	89 5e 18	 mov	 DWORD PTR [esi+24], ebx
  000b0	f3 0f 11 46 1c	 movss	 DWORD PTR [esi+28], xmm0

; 689  : 		m_fCurFishingGradeScale = 0.0f;

  000b5	f3 0f 11 86 f4
	00 00 00	 movss	 DWORD PTR [esi+244], xmm0

; 690  : 
; 691  : 		m_State = ES_NONE;

  000bd	89 5e 68	 mov	 DWORD PTR [esi+104], ebx

; 692  : 		m_bOwnerChar = false;

  000c0	88 5e 70	 mov	 BYTE PTR [esi+112], bl
$LN8@EndEmotico@2:

; 693  : 	}
; 694  : 
; 695  : 	m_vChatTextVec.clear();

  000c3	8d 8e d0 00 00
	00		 lea	 ecx, DWORD PTR [esi+208]
  000c9	8b 41 04	 mov	 eax, DWORD PTR [ecx+4]
  000cc	8b 11		 mov	 edx, DWORD PTR [ecx]
  000ce	50		 push	 eax
  000cf	52		 push	 edx
  000d0	8d 45 fc	 lea	 eax, DWORD PTR $T540445[ebp]
  000d3	50		 push	 eax
  000d4	e8 00 00 00 00	 call	 ?erase@?$vector@VioHashString@@V?$allocator@VioHashString@@@std@@@std@@QAE?AV?$_Vector_iterator@V?$_Vector_val@VioHashString@@V?$allocator@VioHashString@@@std@@@std@@@2@V?$_Vector_const_iterator@V?$_Vector_val@VioHashString@@V?$allocator@VioHashString@@@std@@@std@@@2@0@Z ; std::vector<ioHashString,std::allocator<ioHashString> >::erase

; 696  : 	SAFEDELETE( m_pChatBubbleCenter );

  000d9	8b 8e c8 00 00
	00		 mov	 ecx, DWORD PTR [esi+200]
  000df	3b cb		 cmp	 ecx, ebx
  000e1	74 0d		 je	 SHORT $LN2@EndEmotico@2
  000e3	8b 01		 mov	 eax, DWORD PTR [ecx]
  000e5	6a 01		 push	 1
  000e7	ff 50 40	 call	 DWORD PTR [eax+64]
  000ea	89 9e c8 00 00
	00		 mov	 DWORD PTR [esi+200], ebx
$LN2@EndEmotico@2:

; 697  : 	SAFEDELETE( m_pChatBubbleRight );

  000f0	8b 8e cc 00 00
	00		 mov	 ecx, DWORD PTR [esi+204]
  000f6	3b cb		 cmp	 ecx, ebx
  000f8	74 0d		 je	 SHORT $LN1@EndEmotico@2
  000fa	8b 01		 mov	 eax, DWORD PTR [ecx]
  000fc	6a 01		 push	 1
  000fe	ff 50 40	 call	 DWORD PTR [eax+64]
  00101	89 9e cc 00 00
	00		 mov	 DWORD PTR [esi+204], ebx
$LN1@EndEmotico@2:
  00107	5f		 pop	 edi
  00108	5e		 pop	 esi
  00109	5b		 pop	 ebx

; 698  : }

  0010a	c9		 leave
  0010b	c3		 ret	 0
?EndEmoticon@ioCharEmoticon@@IAEXXZ ENDP		; ioCharEmoticon::EndEmoticon
_TEXT	ENDS
PUBLIC	__real@4018000000000000
PUBLIC	?UpdateEmoticon@ioCharEmoticon@@QAEXABUD3DXVECTOR3@@0_N@Z ; ioCharEmoticon::UpdateEmoticon
EXTRN	?Update@io3DCharEmoticon@@QAEXHH@Z:PROC		; io3DCharEmoticon::Update
EXTRN	?Check2DInScreen@Setting@@SA_NABUD3DXVECTOR3@@AAH1@Z:PROC ; Setting::Check2DInScreen
;	COMDAT __real@4018000000000000
; File d:\lost saga for developer\youtube\tutorial\source\src\lsclient\stdafx.h
CONST	SEGMENT
__real@4018000000000000 DQ 04018000000000000r	; 6
; Function compile flags: /Ogsp
; File d:\lost saga for developer\youtube\tutorial\source\src\lsclient\iocharemoticon.cpp
CONST	ENDS
;	COMDAT ?UpdateEmoticon@ioCharEmoticon@@QAEXABUD3DXVECTOR3@@0_N@Z
_TEXT	SEGMENT
tv705 = -24						; size = 4
tv691 = -24						; size = 4
tv687 = -24						; size = 4
tv684 = -24						; size = 4
tv672 = -24						; size = 4
tv669 = -24						; size = 4
tv662 = -24						; size = 4
tv641 = -24						; size = 4
tv630 = -24						; size = 4
tv574 = -24						; size = 4
_fFishScaleRate$525622 = -24				; size = 4
tv676 = -20						; size = 4
tv658 = -20						; size = 4
tv634 = -20						; size = 4
_fScaleRate$525615 = -20				; size = 4
_fAlphaRate$ = -16					; size = 4
_iColor$ = -12						; size = 4
_dwPastTime$ = -8					; size = 4
tv653 = -4						; size = 4
_fScale$ = -4						; size = 4
_vPos$ = 8						; size = 4
_vCamTargetPos$ = 12					; size = 4
tv611 = 16						; size = 4
tv608 = 16						; size = 4
tv606 = 16						; size = 4
_bVisible$ = 16						; size = 1
?UpdateEmoticon@ioCharEmoticon@@QAEXABUD3DXVECTOR3@@0_N@Z PROC ; ioCharEmoticon::UpdateEmoticon, COMDAT
; _this$ = ecx

; 714  : {

  00000	55		 push	 ebp
  00001	8b ec		 mov	 ebp, esp
  00003	83 ec 18	 sub	 esp, 24			; 00000018H
  00006	56		 push	 esi
  00007	8b f1		 mov	 esi, ecx

; 715  : 	if( m_State == ES_NONE )

  00009	8b 46 68	 mov	 eax, DWORD PTR [esi+104]
  0000c	57		 push	 edi
  0000d	33 ff		 xor	 edi, edi
  0000f	3b c7		 cmp	 eax, edi
  00011	75 0c		 jne	 SHORT $LN45@UpdateEmot
$LN75@UpdateEmot:

; 716  : 	{
; 717  : 		m_bNeedRender = false;

  00013	c6 86 88 00 00
	00 00		 mov	 BYTE PTR [esi+136], 0

; 718  : 		return;

  0001a	e9 70 04 00 00	 jmp	 $LN46@UpdateEmot
$LN45@UpdateEmot:

; 719  : 	}
; 720  : 
; 721  : 	if( m_State != ES_3D_CHAT && !m_pEmoticon )

  0001f	83 f8 06	 cmp	 eax, 6
  00022	74 04		 je	 SHORT $LN44@UpdateEmot
  00024	39 3e		 cmp	 DWORD PTR [esi], edi

; 722  : 	{
; 723  : 		m_bNeedRender = false;
; 724  : 		return;

  00026	74 eb		 je	 SHORT $LN75@UpdateEmot
$LN44@UpdateEmot:
  00028	53		 push	 ebx

; 725  : 	}
; 726  : 
; 727  : 	m_bNeedRender = true;

  00029	c6 86 88 00 00
	00 01		 mov	 BYTE PTR [esi+136], 1

; 728  : 
; 729  : 	DWORD dwPastTime = FRAMEGETTIME() - m_dwEmoticonStartTime;

  00030	ff 15 00 00 00
	00		 call	 DWORD PTR __imp_?GetSingleton@ioFrameTimer@@SAAAV1@XZ
  00036	8b c8		 mov	 ecx, eax
  00038	ff 15 00 00 00
	00		 call	 DWORD PTR __imp_?GetLoopSec@ioFrameTimer@@QBEKXZ
  0003e	8b d0		 mov	 edx, eax
  00040	2b 56 10	 sub	 edx, DWORD PTR [esi+16]

; 730  : 	m_RenderType = UI_RENDER_NORMAL;

  00043	89 7e 74	 mov	 DWORD PTR [esi+116], edi
  00046	89 55 f8	 mov	 DWORD PTR _dwPastTime$[ebp], edx

; 731  : 
; 732  : 	int iColor = 0;

  00049	89 7d f4	 mov	 DWORD PTR _iColor$[ebp], edi

; 733  : 	float fAlphaRate = FLOAT1;

  0004c	b8 01 00 00 00	 mov	 eax, 1
  00051	89 45 e8	 mov	 DWORD PTR tv705[ebp], eax
  00054	db 45 e8	 fild	 DWORD PTR tv705[ebp]
  00057	85 c0		 test	 eax, eax
  00059	79 06		 jns	 SHORT $LN59@UpdateEmot
  0005b	d8 05 00 00 00
	00		 fadd	 DWORD PTR __real@4f800000
$LN59@UpdateEmot:

; 734  : 	float fScale = m_fEmoticonEndScale;
; 735  : 
; 736  : 	switch( m_State )

  00061	8b 46 68	 mov	 eax, DWORD PTR [esi+104]
  00064	d9 5d f0	 fstp	 DWORD PTR _fAlphaRate$[ebp]
  00067	48		 dec	 eax
  00068	f3 0f 10 05 00
	00 00 00	 movss	 xmm0, DWORD PTR ?m_fEmoticonEndScale@ioCharEmoticon@@1MA
  00070	f3 0f 11 45 fc	 movss	 DWORD PTR _fScale$[ebp], xmm0
  00075	0f 84 b0 01 00
	00		 je	 $LN41@UpdateEmot
  0007b	48		 dec	 eax
  0007c	0f 84 94 01 00
	00		 je	 $LN29@UpdateEmot
  00082	48		 dec	 eax
  00083	0f 84 1b 01 00
	00		 je	 $LN27@UpdateEmot
  00089	48		 dec	 eax
  0008a	74 77		 je	 SHORT $LN22@UpdateEmot
  0008c	48		 dec	 eax
  0008d	48		 dec	 eax
  0008e	74 62		 je	 SHORT $LN18@UpdateEmot
  00090	48		 dec	 eax
  00091	75 07		 jne	 SHORT $LN56@UpdateEmot

; 833  : 		{
; 834  : 			EndEmoticon();
; 835  : 			m_bNeedRender = false;
; 836  : 			return;
; 837  : 		}
; 838  : 		break;
; 839  : 	case ES_DURATION_SCALE:
; 840  : 		ProcessDurationScale();

  00093	8b ce		 mov	 ecx, esi
  00095	e8 00 00 00 00	 call	 ?ProcessDurationScale@ioCharEmoticon@@IAEXXZ ; ioCharEmoticon::ProcessDurationScale
$LN56@UpdateEmot:

; 841  : 		break;
; 842  : 	}
; 843  : 
; 844  : 	m_iRenderXPos = m_iRenderYPos = 0;
; 845  : 	m_bInScreen = true;
; 846  : 	m_bVisible = bVisible;

  0009a	8a 45 10	 mov	 al, BYTE PTR _bVisible$[ebp]
  0009d	8d 7e 7c	 lea	 edi, DWORD PTR [esi+124]
  000a0	83 27 00	 and	 DWORD PTR [edi], 0
  000a3	8d 5e 78	 lea	 ebx, DWORD PTR [esi+120]
  000a6	83 23 00	 and	 DWORD PTR [ebx], 0

; 847  : 
; 848  : 	if( !Setting::Check2DInScreen( vPos, m_iRenderXPos, m_iRenderYPos ) )

  000a9	57		 push	 edi
  000aa	53		 push	 ebx
  000ab	ff 75 08	 push	 DWORD PTR _vPos$[ebp]
  000ae	c6 86 89 00 00
	00 01		 mov	 BYTE PTR [esi+137], 1
  000b5	88 86 8a 00 00
	00		 mov	 BYTE PTR [esi+138], al
  000bb	e8 00 00 00 00	 call	 ?Check2DInScreen@Setting@@SA_NABUD3DXVECTOR3@@AAH1@Z ; Setting::Check2DInScreen
  000c0	83 c4 0c	 add	 esp, 12			; 0000000cH
  000c3	84 c0		 test	 al, al
  000c5	75 06		 jne	 SHORT $LN15@UpdateEmot

; 849  : 	{
; 850  : 		m_bInScreen = false;

  000c7	88 86 89 00 00
	00		 mov	 BYTE PTR [esi+137], al
$LN15@UpdateEmot:

; 851  : 	}
; 852  : 
; 853  : 	if( !m_bInScreen )

  000cd	80 be 89 00 00
	00 00		 cmp	 BYTE PTR [esi+137], 0
  000d4	0f 85 c1 02 00
	00		 jne	 $LN14@UpdateEmot

; 854  : 	{
; 855  : 		if( m_Type == EMT_CHAT_ICON || m_Type == EMT_3D_CHAT_ICON )

  000da	8b 46 6c	 mov	 eax, DWORD PTR [esi+108]
  000dd	83 f8 05	 cmp	 eax, 5
  000e0	74 09		 je	 SHORT $LN12@UpdateEmot
  000e2	83 f8 06	 cmp	 eax, 6

; 858  : 		}
; 859  : 		else
; 860  : 		{
; 861  : 			m_bNeedRender = false;
; 862  : 			return;

  000e5	0f 85 c6 02 00
	00		 jne	 $LN74@UpdateEmot
$LN12@UpdateEmot:

; 856  : 		{
; 857  : 			CheckOutScreen( vPos, vCamTargetPos, m_iRenderXPos, m_iRenderYPos, fScale, true );

  000eb	6a 01		 push	 1

; 863  : 		}

  000ed	e9 cd 02 00 00	 jmp	 $LN73@UpdateEmot
$LN18@UpdateEmot:

; 831  : 	case ES_3D_CHAT:
; 832  : 		if( dwPastTime > m_dwCurEmoticonDuration )

  000f2	3b 56 14	 cmp	 edx, DWORD PTR [esi+20]
  000f5	76 a3		 jbe	 SHORT $LN56@UpdateEmot
$LN21@UpdateEmot:

; 821  : 		}
; 822  : 		else
; 823  : 		{
; 824  : 			EndEmoticon();

  000f7	8b ce		 mov	 ecx, esi
  000f9	e8 00 00 00 00	 call	 ?EndEmoticon@ioCharEmoticon@@IAEXXZ ; ioCharEmoticon::EndEmoticon

; 825  : 			m_bNeedRender = false;
; 826  : 			return;

  000fe	e9 ae 02 00 00	 jmp	 $LN74@UpdateEmot
$LN22@UpdateEmot:

; 811  : 	case ES_END_ALPHA:
; 812  : 		if( m_dwCurEmoticonDuration + m_dwDisapearWhiteTime + m_dwDisapearAlphaTime > dwPastTime )

  00103	a1 00 00 00 00	 mov	 eax, DWORD PTR ?m_dwDisapearAlphaTime@ioCharEmoticon@@1KA ; ioCharEmoticon::m_dwDisapearAlphaTime
  00108	8b 4e 14	 mov	 ecx, DWORD PTR [esi+20]
  0010b	8d 1c 01	 lea	 ebx, DWORD PTR [ecx+eax]
  0010e	a1 00 00 00 00	 mov	 eax, DWORD PTR ?m_dwDisapearWhiteTime@ioCharEmoticon@@1KA ; ioCharEmoticon::m_dwDisapearWhiteTime
  00113	03 d8		 add	 ebx, eax
  00115	3b da		 cmp	 ebx, edx
  00117	76 de		 jbe	 SHORT $LN21@UpdateEmot

; 813  : 		{
; 814  : 			dwPastTime -= m_dwCurEmoticonDuration + m_dwDisapearWhiteTime;

  00119	03 c8		 add	 ecx, eax
  0011b	2b d1		 sub	 edx, ecx
  0011d	89 55 f8	 mov	 DWORD PTR _dwPastTime$[ebp], edx

; 815  : 
; 816  : 			iColor = 255;

  00120	c7 45 f4 ff 00
	00 00		 mov	 DWORD PTR _iColor$[ebp], 255 ; 000000ffH

; 817  : 			fAlphaRate = FLOAT1 - (float)dwPastTime / (float)m_dwDisapearAlphaTime;

  00127	b8 01 00 00 00	 mov	 eax, 1
  0012c	89 45 e8	 mov	 DWORD PTR tv691[ebp], eax
  0012f	db 45 e8	 fild	 DWORD PTR tv691[ebp]
  00132	85 c0		 test	 eax, eax
  00134	79 06		 jns	 SHORT $LN60@UpdateEmot
  00136	d8 05 00 00 00
	00		 fadd	 DWORD PTR __real@4f800000
$LN60@UpdateEmot:
  0013c	89 55 e8	 mov	 DWORD PTR tv687[ebp], edx
  0013f	db 45 e8	 fild	 DWORD PTR tv687[ebp]
  00142	85 d2		 test	 edx, edx
  00144	79 06		 jns	 SHORT $LN61@UpdateEmot
  00146	d8 05 00 00 00
	00		 fadd	 DWORD PTR __real@4f800000
$LN61@UpdateEmot:
  0014c	a1 00 00 00 00	 mov	 eax, DWORD PTR ?m_dwDisapearAlphaTime@ioCharEmoticon@@1KA ; ioCharEmoticon::m_dwDisapearAlphaTime
  00151	db 05 00 00 00
	00		 fild	 DWORD PTR ?m_dwDisapearAlphaTime@ioCharEmoticon@@1KA ; ioCharEmoticon::m_dwDisapearAlphaTime
  00157	85 c0		 test	 eax, eax
  00159	79 06		 jns	 SHORT $LN62@UpdateEmot
  0015b	d8 05 00 00 00
	00		 fadd	 DWORD PTR __real@4f800000
$LN62@UpdateEmot:
  00161	de f9		 fdivp	 ST(1), ST(0)

; 818  : 			m_pEmoticon->SetAlpha( (BYTE)(int)(255.0f * fAlphaRate) );

  00163	8b 0e		 mov	 ecx, DWORD PTR [esi]
  00165	de e9		 fsubp	 ST(1), ST(0)
  00167	d9 5d f0	 fstp	 DWORD PTR _fAlphaRate$[ebp]
  0016a	f3 0f 10 45 f0	 movss	 xmm0, DWORD PTR _fAlphaRate$[ebp]
  0016f	0f 5a c0	 cvtps2pd xmm0, xmm0
  00172	f2 0f 59 05 00
	00 00 00	 mulsd	 xmm0, QWORD PTR __real@406fe00000000000
  0017a	f2 0f 2c c0	 cvttsd2si eax, xmm0
  0017e	88 45 ec	 mov	 BYTE PTR tv676[ebp], al
  00181	ff 75 ec	 push	 DWORD PTR tv676[ebp]
  00184	8b 01		 mov	 eax, DWORD PTR [ecx]
  00186	ff 50 30	 call	 DWORD PTR [eax+48]

; 819  : 			if( m_pEmoticonNum )

  00189	8b 4e 08	 mov	 ecx, DWORD PTR [esi+8]
  0018c	3b cf		 cmp	 ecx, edi
  0018e	74 08		 je	 SHORT $LN20@UpdateEmot

; 820  : 				m_pEmoticonNum->SetAlpha( (BYTE)(int)(255.0f * fAlphaRate) );

  00190	ff 75 ec	 push	 DWORD PTR tv676[ebp]
  00193	8b 01		 mov	 eax, DWORD PTR [ecx]
  00195	ff 50 30	 call	 DWORD PTR [eax+48]
$LN20@UpdateEmot:

; 827  : 		}
; 828  : 
; 829  : 		m_RenderType = UI_RENDER_NORMAL_ADD_COLOR;

  00198	c7 46 74 04 00
	00 00		 mov	 DWORD PTR [esi+116], 4

; 830  : 		break;

  0019f	e9 f6 fe ff ff	 jmp	 $LN56@UpdateEmot
$LN27@UpdateEmot:

; 790  : 	case ES_END_WHITE:
; 791  : 		if( m_dwCurEmoticonDuration + m_dwDisapearWhiteTime > dwPastTime )

  001a4	8b 4e 14	 mov	 ecx, DWORD PTR [esi+20]
  001a7	a1 00 00 00 00	 mov	 eax, DWORD PTR ?m_dwDisapearWhiteTime@ioCharEmoticon@@1KA ; ioCharEmoticon::m_dwDisapearWhiteTime
  001ac	8d 3c 01	 lea	 edi, DWORD PTR [ecx+eax]
  001af	6a 04		 push	 4
  001b1	5b		 pop	 ebx
  001b2	3b fa		 cmp	 edi, edx
  001b4	76 34		 jbe	 SHORT $LN26@UpdateEmot

; 792  : 		{
; 793  : 			dwPastTime -= m_dwCurEmoticonDuration;

  001b6	2b d1		 sub	 edx, ecx

; 794  : 
; 795  : 			iColor = 255.0f * ( (float)dwPastTime / (float)m_dwDisapearWhiteTime );

  001b8	89 55 e8	 mov	 DWORD PTR tv672[ebp], edx
  001bb	db 45 e8	 fild	 DWORD PTR tv672[ebp]
  001be	89 55 f8	 mov	 DWORD PTR _dwPastTime$[ebp], edx
  001c1	79 06		 jns	 SHORT $LN63@UpdateEmot
  001c3	d8 05 00 00 00
	00		 fadd	 DWORD PTR __real@4f800000
$LN63@UpdateEmot:
  001c9	89 45 e8	 mov	 DWORD PTR tv669[ebp], eax
  001cc	db 45 e8	 fild	 DWORD PTR tv669[ebp]
  001cf	85 c0		 test	 eax, eax
  001d1	79 06		 jns	 SHORT $LN64@UpdateEmot
  001d3	d8 05 00 00 00
	00		 fadd	 DWORD PTR __real@4f800000
$LN64@UpdateEmot:
  001d9	de f9		 fdivp	 ST(1), ST(0)
  001db	dc 0d 00 00 00
	00		 fmul	 QWORD PTR __real@406fe00000000000
  001e1	e8 00 00 00 00	 call	 __ftol2_sse
  001e6	8b f8		 mov	 edi, eax

; 796  : 			m_pEmoticon->SetColor( iColor, iColor, iColor );
; 797  : 			if( m_pEmoticonNum )
; 798  : 				m_pEmoticonNum->SetColor( iColor, iColor, iColor );
; 799  : 		}
; 800  : 		else

  001e8	eb 08		 jmp	 SHORT $LN72@UpdateEmot
$LN26@UpdateEmot:

; 801  : 		{
; 802  : 			m_State = ES_END_ALPHA;

  001ea	89 5e 68	 mov	 DWORD PTR [esi+104], ebx

; 803  : 			iColor = 255;

  001ed	bf ff 00 00 00	 mov	 edi, 255		; 000000ffH
$LN72@UpdateEmot:

; 804  : 			m_pEmoticon->SetColor( 255, 255, 255 );

  001f2	8b 0e		 mov	 ecx, DWORD PTR [esi]
  001f4	8b 01		 mov	 eax, DWORD PTR [ecx]
  001f6	57		 push	 edi
  001f7	57		 push	 edi
  001f8	57		 push	 edi
  001f9	89 7d f4	 mov	 DWORD PTR _iColor$[ebp], edi
  001fc	ff 50 28	 call	 DWORD PTR [eax+40]

; 805  : 			if( m_pEmoticonNum )

  001ff	8b 4e 08	 mov	 ecx, DWORD PTR [esi+8]
  00202	85 c9		 test	 ecx, ecx
  00204	74 08		 je	 SHORT $LN23@UpdateEmot

; 806  : 				m_pEmoticonNum->SetColor( 255, 255, 255 );

  00206	8b 01		 mov	 eax, DWORD PTR [ecx]
  00208	57		 push	 edi
  00209	57		 push	 edi
  0020a	57		 push	 edi
  0020b	ff 50 28	 call	 DWORD PTR [eax+40]
$LN23@UpdateEmot:

; 807  : 		}
; 808  : 
; 809  : 		m_RenderType = UI_RENDER_NORMAL_ADD_COLOR;

  0020e	89 5e 74	 mov	 DWORD PTR [esi+116], ebx

; 810  : 		break;

  00211	e9 84 fe ff ff	 jmp	 $LN56@UpdateEmot
$LN29@UpdateEmot:

; 780  : 				}
; 781  : 			}
; 782  : 		}
; 783  : 		break;
; 784  : 	case ES_DURATION:
; 785  : 		if( dwPastTime > m_dwCurEmoticonDuration )

  00216	3b 56 14	 cmp	 edx, DWORD PTR [esi+20]
  00219	0f 86 7b fe ff
	ff		 jbe	 $LN56@UpdateEmot

; 786  : 		{
; 787  : 			m_State = ES_END_WHITE;

  0021f	c7 46 68 03 00
	00 00		 mov	 DWORD PTR [esi+104], 3

; 788  : 		}
; 789  : 		break;

  00226	e9 6f fe ff ff	 jmp	 $LN56@UpdateEmot
$LN41@UpdateEmot:

; 737  : 	{
; 738  : 	case ES_SCALE:
; 739  : 		if( dwPastTime < m_dwCurScaleDuration )

  0022b	8b 46 18	 mov	 eax, DWORD PTR [esi+24]
  0022e	3b d0		 cmp	 edx, eax
  00230	0f 83 ed 00 00
	00		 jae	 $LN40@UpdateEmot

; 740  : 		{
; 741  : 			float fScaleRate = (float)dwPastTime / (float)m_dwCurScaleDuration;

  00236	89 55 e8	 mov	 DWORD PTR tv662[ebp], edx
  00239	db 45 e8	 fild	 DWORD PTR tv662[ebp]
  0023c	85 d2		 test	 edx, edx
  0023e	79 06		 jns	 SHORT $LN65@UpdateEmot
  00240	d8 05 00 00 00
	00		 fadd	 DWORD PTR __real@4f800000
$LN65@UpdateEmot:
  00246	d9 5d e8	 fstp	 DWORD PTR tv574[ebp]
  00249	89 45 ec	 mov	 DWORD PTR tv658[ebp], eax
  0024c	d9 45 e8	 fld	 DWORD PTR tv574[ebp]
  0024f	db 45 ec	 fild	 DWORD PTR tv658[ebp]
  00252	85 c0		 test	 eax, eax
  00254	79 06		 jns	 SHORT $LN66@UpdateEmot
  00256	d8 05 00 00 00
	00		 fadd	 DWORD PTR __real@4f800000
$LN66@UpdateEmot:
  0025c	de f9		 fdivp	 ST(1), ST(0)
  0025e	d9 5d ec	 fstp	 DWORD PTR _fScaleRate$525615[ebp]

; 742  : 			fScale = m_fCurStartScale * ( FLOAT1 - fScaleRate ) + m_fEmoticonEndScale * fScaleRate;

  00261	b8 01 00 00 00	 mov	 eax, 1
  00266	89 45 fc	 mov	 DWORD PTR tv653[ebp], eax
  00269	db 45 fc	 fild	 DWORD PTR tv653[ebp]
  0026c	85 c0		 test	 eax, eax
  0026e	79 06		 jns	 SHORT $LN67@UpdateEmot
  00270	d8 05 00 00 00
	00		 fadd	 DWORD PTR __real@4f800000
$LN67@UpdateEmot:
  00276	d8 65 ec	 fsub	 DWORD PTR _fScaleRate$525615[ebp]

; 743  : 
; 744  : 			m_pEmoticon->SetScale( fScale );

  00279	8b 0e		 mov	 ecx, DWORD PTR [esi]
  0027b	8b 01		 mov	 eax, DWORD PTR [ecx]
  0027d	51		 push	 ecx
  0027e	d8 4e 1c	 fmul	 DWORD PTR [esi+28]
  00281	d9 05 00 00 00
	00		 fld	 DWORD PTR ?m_fEmoticonEndScale@ioCharEmoticon@@1MA ; ioCharEmoticon::m_fEmoticonEndScale
  00287	d8 4d ec	 fmul	 DWORD PTR _fScaleRate$525615[ebp]
  0028a	de c1		 faddp	 ST(1), ST(0)
  0028c	d9 5d fc	 fstp	 DWORD PTR _fScale$[ebp]
  0028f	f3 0f 10 45 fc	 movss	 xmm0, DWORD PTR _fScale$[ebp]
  00294	f3 0f 11 04 24	 movss	 DWORD PTR [esp], xmm0
  00299	ff 50 1c	 call	 DWORD PTR [eax+28]

; 745  : 			if( m_Type == EMT_HIT_COMBO )

  0029c	83 7e 6c 04	 cmp	 DWORD PTR [esi+108], 4
  002a0	75 17		 jne	 SHORT $LN38@UpdateEmot

; 746  : 			{
; 747  : 				if( m_pEmoticonNum )

  002a2	8b 4e 08	 mov	 ecx, DWORD PTR [esi+8]
  002a5	3b cf		 cmp	 ecx, edi
  002a7	74 10		 je	 SHORT $LN38@UpdateEmot

; 748  : 					m_pEmoticonNum->SetScale( fScale );

  002a9	f3 0f 10 45 fc	 movss	 xmm0, DWORD PTR _fScale$[ebp]
  002ae	8b 01		 mov	 eax, DWORD PTR [ecx]
  002b0	51		 push	 ecx
  002b1	f3 0f 11 04 24	 movss	 DWORD PTR [esp], xmm0
  002b6	ff 50 1c	 call	 DWORD PTR [eax+28]
$LN38@UpdateEmot:

; 749  : 			}
; 750  : 
; 751  : 			if( m_Type == EMT_FISHING_GRADE )

  002b9	83 7e 6c 0c	 cmp	 DWORD PTR [esi+108], 12	; 0000000cH
  002bd	0f 85 d7 fd ff
	ff		 jne	 $LN56@UpdateEmot

; 752  : 			{
; 753  : 				float fFishScaleRate = (float)dwPastTime / (float)m_dwCurScaleDuration;

  002c3	8b 46 18	 mov	 eax, DWORD PTR [esi+24]
  002c6	d9 45 e8	 fld	 DWORD PTR tv574[ebp]
  002c9	db 46 18	 fild	 DWORD PTR [esi+24]
  002cc	85 c0		 test	 eax, eax
  002ce	79 06		 jns	 SHORT $LN68@UpdateEmot
  002d0	d8 05 00 00 00
	00		 fadd	 DWORD PTR __real@4f800000
$LN68@UpdateEmot:
  002d6	de f9		 fdivp	 ST(1), ST(0)
  002d8	d9 5d e8	 fstp	 DWORD PTR _fFishScaleRate$525622[ebp]

; 754  : 				float fFishScale = m_fCurStartScale * ( FLOAT1 - fFishScaleRate ) + m_fFishingGradeEndScale * fFishScaleRate;

  002db	b8 01 00 00 00	 mov	 eax, 1

; 755  : 
; 756  : 				if( m_pFishingGrade )

  002e0	8b 8e ec 00 00
	00		 mov	 ecx, DWORD PTR [esi+236]
  002e6	3b cf		 cmp	 ecx, edi
  002e8	0f 84 ac fd ff
	ff		 je	 $LN56@UpdateEmot

; 757  : 					m_pFishingGrade->SetScale( fFishScale );

  002ee	8b 11		 mov	 edx, DWORD PTR [ecx]
  002f0	89 45 ec	 mov	 DWORD PTR tv634[ebp], eax
  002f3	db 45 ec	 fild	 DWORD PTR tv634[ebp]
  002f6	85 c0		 test	 eax, eax
  002f8	79 06		 jns	 SHORT $LN69@UpdateEmot
  002fa	d8 05 00 00 00
	00		 fadd	 DWORD PTR __real@4f800000
$LN69@UpdateEmot:
  00300	d8 65 e8	 fsub	 DWORD PTR _fFishScaleRate$525622[ebp]
  00303	51		 push	 ecx
  00304	d8 4e 1c	 fmul	 DWORD PTR [esi+28]
  00307	d9 05 00 00 00
	00		 fld	 DWORD PTR ?m_fFishingGradeEndScale@ioCharEmoticon@@1MA ; ioCharEmoticon::m_fFishingGradeEndScale
  0030d	d8 4d e8	 fmul	 DWORD PTR _fFishScaleRate$525622[ebp]
  00310	de c1		 faddp	 ST(1), ST(0)
  00312	d9 5d e8	 fstp	 DWORD PTR tv630[ebp]
  00315	d9 45 e8	 fld	 DWORD PTR tv630[ebp]
  00318	d9 1c 24	 fstp	 DWORD PTR [esp]
  0031b	ff 52 1c	 call	 DWORD PTR [edx+28]

; 758  : 			}
; 759  : 		}
; 760  : 		else

  0031e	e9 77 fd ff ff	 jmp	 $LN56@UpdateEmot
$LN40@UpdateEmot:

; 761  : 		{
; 762  : 			m_State = ES_DURATION;
; 763  : 			m_pEmoticon->SetScale( m_fEmoticonEndScale );

  00323	8b 0e		 mov	 ecx, DWORD PTR [esi]
  00325	c7 46 68 02 00
	00 00		 mov	 DWORD PTR [esi+104], 2
  0032c	f3 0f 10 05 00
	00 00 00	 movss	 xmm0, DWORD PTR ?m_fEmoticonEndScale@ioCharEmoticon@@1MA
  00334	8b 01		 mov	 eax, DWORD PTR [ecx]
  00336	51		 push	 ecx
  00337	f3 0f 11 04 24	 movss	 DWORD PTR [esp], xmm0
  0033c	ff 50 1c	 call	 DWORD PTR [eax+28]

; 764  : 
; 765  : 			if( m_Type == EMT_FISHING_GRADE )

  0033f	83 7e 6c 0c	 cmp	 DWORD PTR [esi+108], 12	; 0000000cH
  00343	75 1d		 jne	 SHORT $LN33@UpdateEmot

; 766  : 			{
; 767  : 				if( m_pFishingGrade )

  00345	8b 8e ec 00 00
	00		 mov	 ecx, DWORD PTR [esi+236]
  0034b	3b cf		 cmp	 ecx, edi
  0034d	74 13		 je	 SHORT $LN33@UpdateEmot

; 768  : 					m_pFishingGrade->SetScale( m_fFishingGradeEndScale );

  0034f	f3 0f 10 05 00
	00 00 00	 movss	 xmm0, DWORD PTR ?m_fFishingGradeEndScale@ioCharEmoticon@@1MA
  00357	8b 01		 mov	 eax, DWORD PTR [ecx]
  00359	51		 push	 ecx
  0035a	f3 0f 11 04 24	 movss	 DWORD PTR [esp], xmm0
  0035f	ff 50 1c	 call	 DWORD PTR [eax+28]
$LN33@UpdateEmot:

; 769  : 			}
; 770  : 
; 771  : 			if( m_Type == EMT_HIT_COMBO )

  00362	83 7e 6c 04	 cmp	 DWORD PTR [esi+108], 4
  00366	0f 85 2e fd ff
	ff		 jne	 $LN56@UpdateEmot

; 772  : 			{
; 773  : 				if( m_pEmoticonNum )

  0036c	8b 4e 08	 mov	 ecx, DWORD PTR [esi+8]
  0036f	3b cf		 cmp	 ecx, edi
  00371	74 13		 je	 SHORT $LN31@UpdateEmot

; 774  : 					m_pEmoticonNum->SetScale( m_fEmoticonEndScale );

  00373	f3 0f 10 05 00
	00 00 00	 movss	 xmm0, DWORD PTR ?m_fEmoticonEndScale@ioCharEmoticon@@1MA
  0037b	8b 01		 mov	 eax, DWORD PTR [ecx]
  0037d	51		 push	 ecx
  0037e	f3 0f 11 04 24	 movss	 DWORD PTR [esp], xmm0
  00383	ff 50 1c	 call	 DWORD PTR [eax+28]
$LN31@UpdateEmot:

; 775  : 				if( m_iHitComboCount > m_iCurHitComboCount )

  00386	8b 46 20	 mov	 eax, DWORD PTR [esi+32]
  00389	3b 46 24	 cmp	 eax, DWORD PTR [esi+36]
  0038c	0f 8e 08 fd ff
	ff		 jle	 $LN56@UpdateEmot

; 776  : 				{					
; 777  : 					ReSetHitCombo();

  00392	8b ce		 mov	 ecx, esi
  00394	e8 00 00 00 00	 call	 ?ReSetHitCombo@ioCharEmoticon@@IAEXXZ ; ioCharEmoticon::ReSetHitCombo

; 778  : 					m_bNeedRender = false;
; 779  : 					return;

  00399	eb 16		 jmp	 SHORT $LN74@UpdateEmot
$LN14@UpdateEmot:

; 864  : 	}
; 865  : 	else if( m_bInScreen && !m_bVisible )

  0039b	80 be 8a 00 00
	00 00		 cmp	 BYTE PTR [esi+138], 0
  003a2	75 37		 jne	 SHORT $LN9@UpdateEmot

; 866  : 	{
; 867  : 		if( m_Type == EMT_CHAT_ICON || m_Type == EMT_3D_CHAT_ICON )

  003a4	8b 46 6c	 mov	 eax, DWORD PTR [esi+108]
  003a7	83 f8 05	 cmp	 eax, 5
  003aa	74 11		 je	 SHORT $LN7@UpdateEmot
  003ac	83 f8 06	 cmp	 eax, 6
  003af	74 0c		 je	 SHORT $LN7@UpdateEmot
$LN74@UpdateEmot:

; 870  : 		}
; 871  : 		else
; 872  : 		{
; 873  : 			m_bNeedRender = false;

  003b1	c6 86 88 00 00
	00 00		 mov	 BYTE PTR [esi+136], 0

; 874  : 			return;

  003b8	e9 d1 00 00 00	 jmp	 $LN58@UpdateEmot
$LN7@UpdateEmot:

; 868  : 		{
; 869  : 			CheckOutScreen( vPos, vCamTargetPos, m_iRenderXPos, m_iRenderYPos, fScale, false );

  003bd	6a 00		 push	 0
$LN73@UpdateEmot:
  003bf	f3 0f 10 45 fc	 movss	 xmm0, DWORD PTR _fScale$[ebp]
  003c4	51		 push	 ecx
  003c5	f3 0f 11 04 24	 movss	 DWORD PTR [esp], xmm0
  003ca	57		 push	 edi
  003cb	53		 push	 ebx
  003cc	ff 75 0c	 push	 DWORD PTR _vCamTargetPos$[ebp]
  003cf	8b ce		 mov	 ecx, esi
  003d1	ff 75 08	 push	 DWORD PTR _vPos$[ebp]
  003d4	e8 00 00 00 00	 call	 ?CheckOutScreen@ioCharEmoticon@@IAEXABUD3DXVECTOR3@@0AAH1M_N@Z ; ioCharEmoticon::CheckOutScreen

; 875  : 		}
; 876  : 	}
; 877  : 	else

  003d9	eb 0e		 jmp	 SHORT $LN5@UpdateEmot
$LN9@UpdateEmot:

; 878  : 	{
; 879  : 		m_iRenderXPos -= m_iEmoticonXPos;

  003db	a1 00 00 00 00	 mov	 eax, DWORD PTR ?m_iEmoticonXPos@ioCharEmoticon@@1HA ; ioCharEmoticon::m_iEmoticonXPos
  003e0	29 03		 sub	 DWORD PTR [ebx], eax

; 880  : 		m_iRenderYPos -= m_iEmoticonYPos;

  003e2	a1 00 00 00 00	 mov	 eax, DWORD PTR ?m_iEmoticonYPos@ioCharEmoticon@@1HA ; ioCharEmoticon::m_iEmoticonYPos
  003e7	29 07		 sub	 DWORD PTR [edi], eax
$LN5@UpdateEmot:

; 881  : 	}
; 882  : 
; 883  : 	if( m_pEmoticonNum || m_pKillPointNum )

  003e9	83 7e 08 00	 cmp	 DWORD PTR [esi+8], 0
  003ed	75 09		 jne	 SHORT $LN3@UpdateEmot
  003ef	83 be c0 00 00
	00 00		 cmp	 DWORD PTR [esi+192], 0
  003f6	74 5d		 je	 SHORT $LN57@UpdateEmot
$LN3@UpdateEmot:

; 884  : 	{
; 885  : 		m_iNumberOffset = 6;
; 886  : 
; 887  : 		if( dwPastTime < m_dwCurScaleDuration )

  003f8	8b 46 18	 mov	 eax, DWORD PTR [esi+24]
  003fb	c7 86 80 00 00
	00 06 00 00 00	 mov	 DWORD PTR [esi+128], 6
  00405	39 45 f8	 cmp	 DWORD PTR _dwPastTime$[ebp], eax
  00408	73 3e		 jae	 SHORT $LN2@UpdateEmot

; 890  : 			m_iNumberOffset -= (int)( 6.0f * fRate );

  0040a	8b 4d f8	 mov	 ecx, DWORD PTR _dwPastTime$[ebp]
  0040d	db 45 f8	 fild	 DWORD PTR _dwPastTime$[ebp]
  00410	85 c9		 test	 ecx, ecx
  00412	79 06		 jns	 SHORT $LN70@UpdateEmot
  00414	d8 05 00 00 00
	00		 fadd	 DWORD PTR __real@4f800000
$LN70@UpdateEmot:
  0041a	89 45 10	 mov	 DWORD PTR tv608[ebp], eax
  0041d	db 45 10	 fild	 DWORD PTR tv608[ebp]
  00420	85 c0		 test	 eax, eax
  00422	79 06		 jns	 SHORT $LN71@UpdateEmot
  00424	d8 05 00 00 00
	00		 fadd	 DWORD PTR __real@4f800000
$LN71@UpdateEmot:

; 888  : 		{
; 889  : 			float fRate = (float)dwPastTime / (float)m_dwCurScaleDuration;

  0042a	de f9		 fdivp	 ST(1), ST(0)

; 890  : 			m_iNumberOffset -= (int)( 6.0f * fRate );

  0042c	d9 5d 10	 fstp	 DWORD PTR tv606[ebp]
  0042f	d9 45 10	 fld	 DWORD PTR tv606[ebp]
  00432	dc 0d 00 00 00
	00		 fmul	 QWORD PTR __real@4018000000000000
  00438	e8 00 00 00 00	 call	 __ftol2_sse
  0043d	6a 06		 push	 6
  0043f	59		 pop	 ecx
  00440	2b c8		 sub	 ecx, eax
  00442	89 8e 80 00 00
	00		 mov	 DWORD PTR [esi+128], ecx
$LN2@UpdateEmot:

; 891  : 		}
; 892  : 
; 893  : 		m_fNumberScale = fScale;

  00448	f3 0f 10 45 fc	 movss	 xmm0, DWORD PTR _fScale$[ebp]
  0044d	f3 0f 11 86 84
	00 00 00	 movss	 DWORD PTR [esi+132], xmm0
$LN57@UpdateEmot:

; 894  : 	}
; 895  : 
; 896  : 	if( m_Type == EMT_3D_CHAT_ICON && m_p3DChatEmoticon )

  00455	83 7e 6c 06	 cmp	 DWORD PTR [esi+108], 6
  00459	75 10		 jne	 SHORT $LN1@UpdateEmot
  0045b	8b 4e 0c	 mov	 ecx, DWORD PTR [esi+12]
  0045e	85 c9		 test	 ecx, ecx
  00460	74 09		 je	 SHORT $LN1@UpdateEmot

; 897  : 	{
; 898  : 		m_p3DChatEmoticon->Update( m_iRenderXPos, m_iRenderYPos );

  00462	ff 37		 push	 DWORD PTR [edi]
  00464	ff 33		 push	 DWORD PTR [ebx]
  00466	e8 00 00 00 00	 call	 ?Update@io3DCharEmoticon@@QAEXHH@Z ; io3DCharEmoticon::Update
$LN1@UpdateEmot:

; 899  : 	}
; 900  : 
; 901  : 	m_fNamedAlpha = fAlphaRate;

  0046b	f3 0f 10 45 f0	 movss	 xmm0, DWORD PTR _fAlphaRate$[ebp]

; 902  : 	m_fNamedScale = fScale;
; 903  : 	m_iNamedBkColor = iColor;

  00470	8b 45 f4	 mov	 eax, DWORD PTR _iColor$[ebp]
  00473	f3 0f 11 86 b4
	00 00 00	 movss	 DWORD PTR [esi+180], xmm0
  0047b	f3 0f 10 45 fc	 movss	 xmm0, DWORD PTR _fScale$[ebp]
  00480	f3 0f 11 86 b8
	00 00 00	 movss	 DWORD PTR [esi+184], xmm0
  00488	89 86 bc 00 00
	00		 mov	 DWORD PTR [esi+188], eax
$LN58@UpdateEmot:
  0048e	5b		 pop	 ebx
$LN46@UpdateEmot:
  0048f	5f		 pop	 edi
  00490	5e		 pop	 esi

; 904  : }

  00491	c9		 leave
  00492	c2 0c 00	 ret	 12			; 0000000cH
?UpdateEmoticon@ioCharEmoticon@@QAEXABUD3DXVECTOR3@@0_N@Z ENDP ; ioCharEmoticon::UpdateEmoticon
_TEXT	ENDS
PUBLIC	?UpdateNewEmoticon@ioCharEmoticon@@QAEXABUD3DXVECTOR3@@0_N@Z ; ioCharEmoticon::UpdateNewEmoticon
; Function compile flags: /Ogsp
;	COMDAT ?UpdateNewEmoticon@ioCharEmoticon@@QAEXABUD3DXVECTOR3@@0_N@Z
_TEXT	SEGMENT
tv634 = -16						; size = 4
tv621 = -16						; size = 4
tv616 = -16						; size = 4
tv613 = -16						; size = 4
tv607 = -16						; size = 4
tv605 = -16						; size = 4
tv602 = -16						; size = 4
tv591 = -16						; size = 4
tv588 = -16						; size = 4
_fScaleRate$526026 = -16				; size = 4
_fAlphaRate$ = -12					; size = 4
_iColor$ = -8						; size = 4
tv583 = -4						; size = 4
_fScale$ = -4						; size = 4
_vPos$ = 8						; size = 4
_vCamTargetPos$ = 12					; size = 4
tv562 = 16						; size = 4
tv559 = 16						; size = 4
tv557 = 16						; size = 4
_bVisible$ = 16						; size = 1
?UpdateNewEmoticon@ioCharEmoticon@@QAEXABUD3DXVECTOR3@@0_N@Z PROC ; ioCharEmoticon::UpdateNewEmoticon, COMDAT
; _this$ = ecx

; 1603 : {

  00000	55		 push	 ebp
  00001	8b ec		 mov	 ebp, esp
  00003	83 ec 10	 sub	 esp, 16			; 00000010H
  00006	56		 push	 esi
  00007	8b f1		 mov	 esi, ecx

; 1604 : 	if( m_State == ES_NONE )

  00009	8b 46 68	 mov	 eax, DWORD PTR [esi+104]
  0000c	85 c0		 test	 eax, eax
  0000e	75 0c		 jne	 SHORT $LN42@UpdateNewE
$LN39@UpdateNewE:

; 1605 : 	{
; 1606 : 		m_bNeedRender = false;

  00010	c6 86 88 00 00
	00 00		 mov	 BYTE PTR [esi+136], 0

; 1607 : 		return;

  00017	e9 e5 03 00 00	 jmp	 $LN43@UpdateNewE
$LN42@UpdateNewE:

; 1608 : 	}
; 1609 : 
; 1610 : 	if( m_State != ES_3D_CHAT )

  0001c	83 f8 06	 cmp	 eax, 6
  0001f	74 0e		 je	 SHORT $LN40@UpdateNewE

; 1611 : 	{
; 1612 : 		if( !m_pEmoticon || !m_pCurEmoticonInfo )

  00021	83 3e 00	 cmp	 DWORD PTR [esi], 0
  00024	74 ea		 je	 SHORT $LN39@UpdateNewE
  00026	83 be f8 00 00
	00 00		 cmp	 DWORD PTR [esi+248], 0

; 1613 : 		{
; 1614 : 			m_bNeedRender = false;
; 1615 : 			return;

  0002d	74 e1		 je	 SHORT $LN39@UpdateNewE
$LN40@UpdateNewE:
  0002f	53		 push	 ebx
  00030	57		 push	 edi

; 1616 : 		}
; 1617 : 	}
; 1618 : 
; 1619 : 	m_bNeedRender = true;
; 1620 : 
; 1621 : 	DWORD dwPastTime = FRAMEGETTIME() - m_pCurEmoticonInfo->m_dwStartTime;

  00031	8b be f8 00 00
	00		 mov	 edi, DWORD PTR [esi+248]
  00037	c6 86 88 00 00
	00 01		 mov	 BYTE PTR [esi+136], 1
  0003e	ff 15 00 00 00
	00		 call	 DWORD PTR __imp_?GetSingleton@ioFrameTimer@@SAAAV1@XZ
  00044	8b c8		 mov	 ecx, eax
  00046	ff 15 00 00 00
	00		 call	 DWORD PTR __imp_?GetLoopSec@ioFrameTimer@@QBEKXZ

; 1622 : 	DWORD dwCurDuration = m_pCurEmoticonInfo->m_dwDuration;
; 1623 : 
; 1624 : 	m_RenderType = UI_RENDER_NORMAL;
; 1625 : 
; 1626 : 	int iColor = 0;

  0004c	83 65 f8 00	 and	 DWORD PTR _iColor$[ebp], 0
  00050	8b d8		 mov	 ebx, eax
  00052	2b 5f 3c	 sub	 ebx, DWORD PTR [edi+60]
  00055	8b 7f 40	 mov	 edi, DWORD PTR [edi+64]
  00058	83 66 74 00	 and	 DWORD PTR [esi+116], 0

; 1627 : 	float fAlphaRate = FLOAT1;

  0005c	b8 01 00 00 00	 mov	 eax, 1
  00061	89 45 f0	 mov	 DWORD PTR tv634[ebp], eax
  00064	db 45 f0	 fild	 DWORD PTR tv634[ebp]
  00067	85 c0		 test	 eax, eax
  00069	79 06		 jns	 SHORT $LN57@UpdateNewE
  0006b	d8 05 00 00 00
	00		 fadd	 DWORD PTR __real@4f800000
$LN57@UpdateNewE:

; 1628 : 	float fScale = m_fEmoticonEndScale;
; 1629 : 
; 1630 : 	switch( m_State )

  00071	8b 46 68	 mov	 eax, DWORD PTR [esi+104]
  00074	d9 5d f4	 fstp	 DWORD PTR _fAlphaRate$[ebp]
  00077	48		 dec	 eax
  00078	f3 0f 10 05 00
	00 00 00	 movss	 xmm0, DWORD PTR ?m_fEmoticonEndScale@ioCharEmoticon@@1MA
  00080	f3 0f 11 45 fc	 movss	 DWORD PTR _fScale$[ebp], xmm0
  00085	0f 84 91 01 00
	00		 je	 $LN36@UpdateNewE
  0008b	48		 dec	 eax
  0008c	0f 84 7d 01 00
	00		 je	 $LN28@UpdateNewE
  00092	48		 dec	 eax
  00093	0f 84 b2 00 00
	00		 je	 $LN26@UpdateNewE
  00099	48		 dec	 eax
  0009a	74 1c		 je	 SHORT $LN21@UpdateNewE
  0009c	48		 dec	 eax
  0009d	48		 dec	 eax
  0009e	0f 85 13 01 00
	00		 jne	 $LN53@UpdateNewE

; 1711 : 	case ES_3D_CHAT:
; 1712 : 		if( dwPastTime > dwCurDuration )

  000a4	3b df		 cmp	 ebx, edi
  000a6	0f 86 0b 01 00
	00		 jbe	 $LN53@UpdateNewE
$LN20@UpdateNewE:

; 1701 : 		}
; 1702 : 		else
; 1703 : 		{
; 1704 : 			EndEmoticon();

  000ac	8b ce		 mov	 ecx, esi
  000ae	e8 00 00 00 00	 call	 ?EndEmoticon@ioCharEmoticon@@IAEXXZ ; ioCharEmoticon::EndEmoticon

; 1705 : 			m_bNeedRender = false;
; 1706 : 			return;

  000b3	e9 66 02 00 00	 jmp	 $LN70@UpdateNewE
$LN21@UpdateNewE:

; 1690 : 		break;
; 1691 : 	case ES_END_ALPHA:
; 1692 : 		if( dwCurDuration + m_dwDisapearWhiteTime + m_dwDisapearAlphaTime > dwPastTime )

  000b8	a1 00 00 00 00	 mov	 eax, DWORD PTR ?m_dwDisapearWhiteTime@ioCharEmoticon@@1KA ; ioCharEmoticon::m_dwDisapearWhiteTime
  000bd	8b 0d 00 00 00
	00		 mov	 ecx, DWORD PTR ?m_dwDisapearAlphaTime@ioCharEmoticon@@1KA ; ioCharEmoticon::m_dwDisapearAlphaTime
  000c3	03 c8		 add	 ecx, eax
  000c5	03 cf		 add	 ecx, edi
  000c7	3b cb		 cmp	 ecx, ebx
  000c9	76 e1		 jbe	 SHORT $LN20@UpdateNewE

; 1693 : 		{
; 1694 : 			dwPastTime -= dwCurDuration + m_dwDisapearWhiteTime;

  000cb	03 c7		 add	 eax, edi
  000cd	2b d8		 sub	 ebx, eax

; 1695 : 
; 1696 : 			iColor = 255;

  000cf	c7 45 f8 ff 00
	00 00		 mov	 DWORD PTR _iColor$[ebp], 255 ; 000000ffH

; 1697 : 			fAlphaRate = FLOAT1 - (float)dwPastTime / (float)m_dwDisapearAlphaTime;

  000d6	b8 01 00 00 00	 mov	 eax, 1
  000db	89 45 f0	 mov	 DWORD PTR tv621[ebp], eax
  000de	db 45 f0	 fild	 DWORD PTR tv621[ebp]
  000e1	85 c0		 test	 eax, eax
  000e3	79 06		 jns	 SHORT $LN58@UpdateNewE
  000e5	d8 05 00 00 00
	00		 fadd	 DWORD PTR __real@4f800000
$LN58@UpdateNewE:
  000eb	8b c3		 mov	 eax, ebx
  000ed	89 45 f0	 mov	 DWORD PTR tv616[ebp], eax
  000f0	db 45 f0	 fild	 DWORD PTR tv616[ebp]
  000f3	85 c0		 test	 eax, eax
  000f5	79 06		 jns	 SHORT $LN59@UpdateNewE
  000f7	d8 05 00 00 00
	00		 fadd	 DWORD PTR __real@4f800000
$LN59@UpdateNewE:
  000fd	a1 00 00 00 00	 mov	 eax, DWORD PTR ?m_dwDisapearAlphaTime@ioCharEmoticon@@1KA ; ioCharEmoticon::m_dwDisapearAlphaTime
  00102	db 05 00 00 00
	00		 fild	 DWORD PTR ?m_dwDisapearAlphaTime@ioCharEmoticon@@1KA ; ioCharEmoticon::m_dwDisapearAlphaTime
  00108	85 c0		 test	 eax, eax
  0010a	79 06		 jns	 SHORT $LN60@UpdateNewE
  0010c	d8 05 00 00 00
	00		 fadd	 DWORD PTR __real@4f800000
$LN60@UpdateNewE:
  00112	de f9		 fdivp	 ST(1), ST(0)

; 1698 : 			m_pEmoticon->SetAlpha( (BYTE)(int)(255.0f * fAlphaRate) );

  00114	8b 0e		 mov	 ecx, DWORD PTR [esi]
  00116	de e9		 fsubp	 ST(1), ST(0)
  00118	d9 5d f4	 fstp	 DWORD PTR _fAlphaRate$[ebp]
  0011b	f3 0f 10 45 f4	 movss	 xmm0, DWORD PTR _fAlphaRate$[ebp]
  00120	0f 5a c0	 cvtps2pd xmm0, xmm0
  00123	f2 0f 59 05 00
	00 00 00	 mulsd	 xmm0, QWORD PTR __real@406fe00000000000
  0012b	f2 0f 2c c0	 cvttsd2si eax, xmm0
  0012f	88 45 f0	 mov	 BYTE PTR tv607[ebp], al
  00132	ff 75 f0	 push	 DWORD PTR tv607[ebp]
  00135	8b 01		 mov	 eax, DWORD PTR [ecx]
  00137	ff 50 30	 call	 DWORD PTR [eax+48]

; 1699 : 			if( m_pEmoticonNum )

  0013a	8b 4e 08	 mov	 ecx, DWORD PTR [esi+8]
  0013d	85 c9		 test	 ecx, ecx
  0013f	74 6f		 je	 SHORT $LN22@UpdateNewE

; 1700 : 				m_pEmoticonNum->SetAlpha( (BYTE)(int)(255.0f * fAlphaRate) );

  00141	ff 75 f0	 push	 DWORD PTR tv607[ebp]
  00144	8b 01		 mov	 eax, DWORD PTR [ecx]
  00146	ff 50 30	 call	 DWORD PTR [eax+48]

; 1707 : 		}
; 1708 : 
; 1709 : 		m_RenderType = UI_RENDER_NORMAL_ADD_COLOR;
; 1710 : 		break;

  00149	eb 65		 jmp	 SHORT $LN22@UpdateNewE
$LN26@UpdateNewE:

; 1670 : 	case ES_END_WHITE:
; 1671 : 		if( dwCurDuration + m_dwDisapearWhiteTime > dwPastTime )

  0014b	a1 00 00 00 00	 mov	 eax, DWORD PTR ?m_dwDisapearWhiteTime@ioCharEmoticon@@1KA ; ioCharEmoticon::m_dwDisapearWhiteTime
  00150	8d 0c 38	 lea	 ecx, DWORD PTR [eax+edi]
  00153	3b cb		 cmp	 ecx, ebx
  00155	76 31		 jbe	 SHORT $LN25@UpdateNewE

; 1672 : 		{
; 1673 : 			dwPastTime -= dwCurDuration;

  00157	2b df		 sub	 ebx, edi

; 1674 : 
; 1675 : 			iColor = 255.0f * ( (float)dwPastTime / (float)m_dwDisapearWhiteTime );

  00159	89 5d f0	 mov	 DWORD PTR tv605[ebp], ebx
  0015c	db 45 f0	 fild	 DWORD PTR tv605[ebp]
  0015f	79 06		 jns	 SHORT $LN61@UpdateNewE
  00161	d8 05 00 00 00
	00		 fadd	 DWORD PTR __real@4f800000
$LN61@UpdateNewE:
  00167	89 45 f0	 mov	 DWORD PTR tv602[ebp], eax
  0016a	db 45 f0	 fild	 DWORD PTR tv602[ebp]
  0016d	85 c0		 test	 eax, eax
  0016f	79 06		 jns	 SHORT $LN62@UpdateNewE
  00171	d8 05 00 00 00
	00		 fadd	 DWORD PTR __real@4f800000
$LN62@UpdateNewE:
  00177	de f9		 fdivp	 ST(1), ST(0)
  00179	dc 0d 00 00 00
	00		 fmul	 QWORD PTR __real@406fe00000000000
  0017f	e8 00 00 00 00	 call	 __ftol2_sse
  00184	8b f8		 mov	 edi, eax

; 1676 : 			m_pEmoticon->SetColor( iColor, iColor, iColor );
; 1677 : 			if( m_pEmoticonNum )
; 1678 : 				m_pEmoticonNum->SetColor( iColor, iColor, iColor );
; 1679 : 		}
; 1680 : 		else

  00186	eb 0c		 jmp	 SHORT $LN68@UpdateNewE
$LN25@UpdateNewE:

; 1681 : 		{
; 1682 : 			m_State = ES_END_ALPHA;

  00188	c7 46 68 04 00
	00 00		 mov	 DWORD PTR [esi+104], 4

; 1683 : 			iColor = 255;

  0018f	bf ff 00 00 00	 mov	 edi, 255		; 000000ffH
$LN68@UpdateNewE:

; 1684 : 			m_pEmoticon->SetColor( 255, 255, 255 );

  00194	8b 0e		 mov	 ecx, DWORD PTR [esi]
  00196	8b 01		 mov	 eax, DWORD PTR [ecx]
  00198	57		 push	 edi
  00199	57		 push	 edi
  0019a	57		 push	 edi
  0019b	89 7d f8	 mov	 DWORD PTR _iColor$[ebp], edi
  0019e	ff 50 28	 call	 DWORD PTR [eax+40]

; 1685 : 			if( m_pEmoticonNum )

  001a1	8b 4e 08	 mov	 ecx, DWORD PTR [esi+8]
  001a4	85 c9		 test	 ecx, ecx
  001a6	74 08		 je	 SHORT $LN22@UpdateNewE

; 1686 : 				m_pEmoticonNum->SetColor( 255, 255, 255 );

  001a8	8b 01		 mov	 eax, DWORD PTR [ecx]
  001aa	57		 push	 edi
  001ab	57		 push	 edi
  001ac	57		 push	 edi
  001ad	ff 50 28	 call	 DWORD PTR [eax+40]
$LN22@UpdateNewE:

; 1687 : 		}
; 1688 : 
; 1689 : 		m_RenderType = UI_RENDER_NORMAL_ADD_COLOR;

  001b0	c7 46 74 04 00
	00 00		 mov	 DWORD PTR [esi+116], 4
$LN53@UpdateNewE:

; 1713 : 		{
; 1714 : 			EndEmoticon();
; 1715 : 			m_bNeedRender = false;
; 1716 : 			return;
; 1717 : 		}
; 1718 : 		break;
; 1719 : 	}
; 1720 : 
; 1721 : 	m_iRenderXPos = m_iRenderYPos = 0;
; 1722 : 	m_bInScreen = true;
; 1723 : 	m_bVisible = bVisible;

  001b7	8a 4d 10	 mov	 cl, BYTE PTR _bVisible$[ebp]
  001ba	8d 7e 7c	 lea	 edi, DWORD PTR [esi+124]
  001bd	83 27 00	 and	 DWORD PTR [edi], 0
  001c0	8d 46 78	 lea	 eax, DWORD PTR [esi+120]
  001c3	83 20 00	 and	 DWORD PTR [eax], 0

; 1724 : 
; 1725 : 	if( !Setting::Check2DInScreen( vPos, m_iRenderXPos, m_iRenderYPos ) )

  001c6	57		 push	 edi
  001c7	50		 push	 eax
  001c8	ff 75 08	 push	 DWORD PTR _vPos$[ebp]
  001cb	c6 86 89 00 00
	00 01		 mov	 BYTE PTR [esi+137], 1
  001d2	88 8e 8a 00 00
	00		 mov	 BYTE PTR [esi+138], cl
  001d8	e8 00 00 00 00	 call	 ?Check2DInScreen@Setting@@SA_NABUD3DXVECTOR3@@AAH1@Z ; Setting::Check2DInScreen
  001dd	83 c4 0c	 add	 esp, 12			; 0000000cH
  001e0	84 c0		 test	 al, al
  001e2	75 06		 jne	 SHORT $LN15@UpdateNewE

; 1726 : 	{
; 1727 : 		m_bInScreen = false;

  001e4	88 86 89 00 00
	00		 mov	 BYTE PTR [esi+137], al
$LN15@UpdateNewE:

; 1728 : 	}
; 1729 : 
; 1730 : 	if( !m_bInScreen )

  001ea	80 be 89 00 00
	00 00		 cmp	 BYTE PTR [esi+137], 0
  001f1	0f 85 11 01 00
	00		 jne	 $LN14@UpdateNewE

; 1731 : 	{
; 1732 : 		if( m_Type == EMT_CHAT_ICON || m_Type == EMT_3D_CHAT_ICON )

  001f7	8b 46 6c	 mov	 eax, DWORD PTR [esi+108]
  001fa	83 f8 05	 cmp	 eax, 5
  001fd	74 09		 je	 SHORT $LN54@UpdateNewE
  001ff	83 f8 06	 cmp	 eax, 6

; 1735 : 		}
; 1736 : 		else
; 1737 : 		{
; 1738 : 			m_bNeedRender = false;
; 1739 : 			return;

  00202	0f 85 16 01 00
	00		 jne	 $LN70@UpdateNewE
$LN54@UpdateNewE:

; 1733 : 		{
; 1734 : 			CheckOutScreen( vPos, vCamTargetPos, m_iRenderXPos, m_iRenderYPos, fScale, true );

  00208	6a 01		 push	 1

; 1740 : 		}

  0020a	e9 1d 01 00 00	 jmp	 $LN69@UpdateNewE
$LN28@UpdateNewE:

; 1660 : 				}
; 1661 : 			}
; 1662 : 		}
; 1663 : 		break;
; 1664 : 	case ES_DURATION:
; 1665 : 		if( dwPastTime > dwCurDuration )

  0020f	3b df		 cmp	 ebx, edi
  00211	76 a4		 jbe	 SHORT $LN53@UpdateNewE

; 1666 : 		{
; 1667 : 			m_State = ES_END_WHITE;

  00213	c7 46 68 03 00
	00 00		 mov	 DWORD PTR [esi+104], 3

; 1668 : 		}
; 1669 : 		break;

  0021a	eb 9b		 jmp	 SHORT $LN53@UpdateNewE
$LN36@UpdateNewE:

; 1631 : 	{
; 1632 : 	case ES_SCALE:
; 1633 : 		if( dwPastTime < m_dwCurScaleDuration )

  0021c	8b 46 18	 mov	 eax, DWORD PTR [esi+24]
  0021f	3b d8		 cmp	 ebx, eax
  00221	0f 83 8c 00 00
	00		 jae	 $LN35@UpdateNewE

; 1634 : 		{
; 1635 : 			float fScaleRate = (float)dwPastTime / (float)m_dwCurScaleDuration;

  00227	8b cb		 mov	 ecx, ebx
  00229	89 4d f0	 mov	 DWORD PTR tv591[ebp], ecx
  0022c	db 45 f0	 fild	 DWORD PTR tv591[ebp]
  0022f	85 c9		 test	 ecx, ecx
  00231	79 06		 jns	 SHORT $LN63@UpdateNewE
  00233	d8 05 00 00 00
	00		 fadd	 DWORD PTR __real@4f800000
$LN63@UpdateNewE:
  00239	89 45 f0	 mov	 DWORD PTR tv588[ebp], eax
  0023c	db 45 f0	 fild	 DWORD PTR tv588[ebp]
  0023f	85 c0		 test	 eax, eax
  00241	79 06		 jns	 SHORT $LN64@UpdateNewE
  00243	d8 05 00 00 00
	00		 fadd	 DWORD PTR __real@4f800000
$LN64@UpdateNewE:
  00249	de f9		 fdivp	 ST(1), ST(0)
  0024b	d9 5d f0	 fstp	 DWORD PTR _fScaleRate$526026[ebp]

; 1636 : 			fScale = m_fCurStartScale * ( FLOAT1 - fScaleRate ) +
; 1637 : 				m_fEmoticonEndScale * fScaleRate;

  0024e	b8 01 00 00 00	 mov	 eax, 1
  00253	89 45 fc	 mov	 DWORD PTR tv583[ebp], eax
  00256	db 45 fc	 fild	 DWORD PTR tv583[ebp]
  00259	85 c0		 test	 eax, eax
  0025b	79 06		 jns	 SHORT $LN65@UpdateNewE
  0025d	d8 05 00 00 00
	00		 fadd	 DWORD PTR __real@4f800000
$LN65@UpdateNewE:
  00263	d8 65 f0	 fsub	 DWORD PTR _fScaleRate$526026[ebp]

; 1638 : 
; 1639 : 			m_pEmoticon->SetScale( fScale );

  00266	8b 0e		 mov	 ecx, DWORD PTR [esi]
  00268	8b 01		 mov	 eax, DWORD PTR [ecx]
  0026a	51		 push	 ecx
  0026b	d8 4e 1c	 fmul	 DWORD PTR [esi+28]
  0026e	d9 05 00 00 00
	00		 fld	 DWORD PTR ?m_fEmoticonEndScale@ioCharEmoticon@@1MA ; ioCharEmoticon::m_fEmoticonEndScale
  00274	d8 4d f0	 fmul	 DWORD PTR _fScaleRate$526026[ebp]
  00277	de c1		 faddp	 ST(1), ST(0)
  00279	d9 5d fc	 fstp	 DWORD PTR _fScale$[ebp]
  0027c	f3 0f 10 45 fc	 movss	 xmm0, DWORD PTR _fScale$[ebp]
  00281	f3 0f 11 04 24	 movss	 DWORD PTR [esp], xmm0
  00286	ff 50 1c	 call	 DWORD PTR [eax+28]

; 1640 : 			if( m_Type == EMT_HIT_COMBO )

  00289	83 7e 6c 04	 cmp	 DWORD PTR [esi+108], 4
  0028d	0f 85 24 ff ff
	ff		 jne	 $LN53@UpdateNewE

; 1641 : 			{
; 1642 : 				if( m_pEmoticonNum )

  00293	8b 4e 08	 mov	 ecx, DWORD PTR [esi+8]
  00296	85 c9		 test	 ecx, ecx
  00298	0f 84 19 ff ff
	ff		 je	 $LN53@UpdateNewE

; 1643 : 					m_pEmoticonNum->SetScale( fScale );

  0029e	f3 0f 10 45 fc	 movss	 xmm0, DWORD PTR _fScale$[ebp]
  002a3	8b 01		 mov	 eax, DWORD PTR [ecx]
  002a5	51		 push	 ecx
  002a6	f3 0f 11 04 24	 movss	 DWORD PTR [esp], xmm0
  002ab	ff 50 1c	 call	 DWORD PTR [eax+28]

; 1644 : 			}
; 1645 : 		}
; 1646 : 		else

  002ae	e9 04 ff ff ff	 jmp	 $LN53@UpdateNewE
$LN35@UpdateNewE:

; 1647 : 		{
; 1648 : 			m_State = ES_DURATION;
; 1649 : 			m_pEmoticon->SetScale( m_fEmoticonEndScale );

  002b3	8b 0e		 mov	 ecx, DWORD PTR [esi]
  002b5	c7 46 68 02 00
	00 00		 mov	 DWORD PTR [esi+104], 2
  002bc	f3 0f 10 05 00
	00 00 00	 movss	 xmm0, DWORD PTR ?m_fEmoticonEndScale@ioCharEmoticon@@1MA
  002c4	8b 01		 mov	 eax, DWORD PTR [ecx]
  002c6	51		 push	 ecx
  002c7	f3 0f 11 04 24	 movss	 DWORD PTR [esp], xmm0
  002cc	ff 50 1c	 call	 DWORD PTR [eax+28]

; 1650 : 
; 1651 : 			if( m_Type == EMT_HIT_COMBO )

  002cf	83 7e 6c 04	 cmp	 DWORD PTR [esi+108], 4
  002d3	0f 85 de fe ff
	ff		 jne	 $LN53@UpdateNewE

; 1652 : 			{
; 1653 : 				if( m_pEmoticonNum )

  002d9	8b 4e 08	 mov	 ecx, DWORD PTR [esi+8]
  002dc	85 c9		 test	 ecx, ecx
  002de	74 13		 je	 SHORT $LN30@UpdateNewE

; 1654 : 					m_pEmoticonNum->SetScale( m_fEmoticonEndScale );

  002e0	f3 0f 10 05 00
	00 00 00	 movss	 xmm0, DWORD PTR ?m_fEmoticonEndScale@ioCharEmoticon@@1MA
  002e8	8b 01		 mov	 eax, DWORD PTR [ecx]
  002ea	51		 push	 ecx
  002eb	f3 0f 11 04 24	 movss	 DWORD PTR [esp], xmm0
  002f0	ff 50 1c	 call	 DWORD PTR [eax+28]
$LN30@UpdateNewE:

; 1655 : 				if( m_iHitComboCount > m_iCurHitComboCount )

  002f3	8b 46 20	 mov	 eax, DWORD PTR [esi+32]
  002f6	3b 46 24	 cmp	 eax, DWORD PTR [esi+36]
  002f9	0f 8e b8 fe ff
	ff		 jle	 $LN53@UpdateNewE

; 1656 : 				{					
; 1657 : 					ReSetHitCombo();

  002ff	8b ce		 mov	 ecx, esi
  00301	e8 00 00 00 00	 call	 ?ReSetHitCombo@ioCharEmoticon@@IAEXXZ ; ioCharEmoticon::ReSetHitCombo

; 1658 : 					m_bNeedRender = false;
; 1659 : 					return;

  00306	eb 16		 jmp	 SHORT $LN70@UpdateNewE
$LN14@UpdateNewE:

; 1741 : 	}
; 1742 : 	else if( m_bInScreen && !m_bVisible )

  00308	80 be 8a 00 00
	00 00		 cmp	 BYTE PTR [esi+138], 0
  0030f	75 3a		 jne	 SHORT $LN9@UpdateNewE

; 1743 : 	{
; 1744 : 		if( m_Type == EMT_CHAT_ICON || m_Type == EMT_3D_CHAT_ICON )

  00311	8b 46 6c	 mov	 eax, DWORD PTR [esi+108]
  00314	83 f8 05	 cmp	 eax, 5
  00317	74 11		 je	 SHORT $LN7@UpdateNewE
  00319	83 f8 06	 cmp	 eax, 6
  0031c	74 0c		 je	 SHORT $LN7@UpdateNewE
$LN70@UpdateNewE:

; 1747 : 		}
; 1748 : 		else
; 1749 : 		{
; 1750 : 			m_bNeedRender = false;

  0031e	c6 86 88 00 00
	00 00		 mov	 BYTE PTR [esi+136], 0

; 1751 : 			return;

  00325	e9 d5 00 00 00	 jmp	 $LN55@UpdateNewE
$LN7@UpdateNewE:

; 1745 : 		{
; 1746 : 			CheckOutScreen( vPos, vCamTargetPos, m_iRenderXPos, m_iRenderYPos, fScale, false );

  0032a	6a 00		 push	 0
$LN69@UpdateNewE:
  0032c	f3 0f 10 45 fc	 movss	 xmm0, DWORD PTR _fScale$[ebp]
  00331	51		 push	 ecx
  00332	f3 0f 11 04 24	 movss	 DWORD PTR [esp], xmm0
  00337	57		 push	 edi
  00338	8d 46 78	 lea	 eax, DWORD PTR [esi+120]
  0033b	50		 push	 eax
  0033c	ff 75 0c	 push	 DWORD PTR _vCamTargetPos$[ebp]
  0033f	8b ce		 mov	 ecx, esi
  00341	ff 75 08	 push	 DWORD PTR _vPos$[ebp]
  00344	e8 00 00 00 00	 call	 ?CheckOutScreen@ioCharEmoticon@@IAEXABUD3DXVECTOR3@@0AAH1M_N@Z ; ioCharEmoticon::CheckOutScreen

; 1752 : 		}
; 1753 : 	}
; 1754 : 	else

  00349	eb 0f		 jmp	 SHORT $LN5@UpdateNewE
$LN9@UpdateNewE:

; 1755 : 	{
; 1756 : 		m_iRenderXPos -= m_iEmoticonXPos;

  0034b	a1 00 00 00 00	 mov	 eax, DWORD PTR ?m_iEmoticonXPos@ioCharEmoticon@@1HA ; ioCharEmoticon::m_iEmoticonXPos
  00350	29 46 78	 sub	 DWORD PTR [esi+120], eax

; 1757 : 		m_iRenderYPos -= m_iEmoticonYPos;

  00353	a1 00 00 00 00	 mov	 eax, DWORD PTR ?m_iEmoticonYPos@ioCharEmoticon@@1HA ; ioCharEmoticon::m_iEmoticonYPos
  00358	29 07		 sub	 DWORD PTR [edi], eax
$LN5@UpdateNewE:

; 1758 : 	}
; 1759 : 
; 1760 : 	if( m_pEmoticonNum || m_pKillPointNum )

  0035a	83 7e 08 00	 cmp	 DWORD PTR [esi+8], 0
  0035e	75 09		 jne	 SHORT $LN3@UpdateNewE
  00360	83 be c0 00 00
	00 00		 cmp	 DWORD PTR [esi+192], 0
  00367	74 5c		 je	 SHORT $LN52@UpdateNewE
$LN3@UpdateNewE:

; 1761 : 	{
; 1762 : 		m_iNumberOffset = 6;
; 1763 : 
; 1764 : 		if( dwPastTime < m_dwCurScaleDuration )

  00369	8b 46 18	 mov	 eax, DWORD PTR [esi+24]
  0036c	c7 86 80 00 00
	00 06 00 00 00	 mov	 DWORD PTR [esi+128], 6
  00376	3b d8		 cmp	 ebx, eax
  00378	73 3e		 jae	 SHORT $LN2@UpdateNewE

; 1767 : 			m_iNumberOffset -= (int)( 6.0f * fRate );

  0037a	89 5d 10	 mov	 DWORD PTR tv562[ebp], ebx
  0037d	db 45 10	 fild	 DWORD PTR tv562[ebp]
  00380	85 db		 test	 ebx, ebx
  00382	79 06		 jns	 SHORT $LN66@UpdateNewE
  00384	d8 05 00 00 00
	00		 fadd	 DWORD PTR __real@4f800000
$LN66@UpdateNewE:
  0038a	89 45 10	 mov	 DWORD PTR tv559[ebp], eax
  0038d	db 45 10	 fild	 DWORD PTR tv559[ebp]
  00390	85 c0		 test	 eax, eax
  00392	79 06		 jns	 SHORT $LN67@UpdateNewE
  00394	d8 05 00 00 00
	00		 fadd	 DWORD PTR __real@4f800000
$LN67@UpdateNewE:

; 1765 : 		{
; 1766 : 			float fRate = (float)dwPastTime / (float)m_dwCurScaleDuration;

  0039a	de f9		 fdivp	 ST(1), ST(0)

; 1767 : 			m_iNumberOffset -= (int)( 6.0f * fRate );

  0039c	d9 5d 10	 fstp	 DWORD PTR tv557[ebp]
  0039f	d9 45 10	 fld	 DWORD PTR tv557[ebp]
  003a2	dc 0d 00 00 00
	00		 fmul	 QWORD PTR __real@4018000000000000
  003a8	e8 00 00 00 00	 call	 __ftol2_sse
  003ad	6a 06		 push	 6
  003af	59		 pop	 ecx
  003b0	2b c8		 sub	 ecx, eax
  003b2	89 8e 80 00 00
	00		 mov	 DWORD PTR [esi+128], ecx
$LN2@UpdateNewE:

; 1768 : 		}
; 1769 : 
; 1770 : 		m_fNumberScale = fScale;

  003b8	f3 0f 10 45 fc	 movss	 xmm0, DWORD PTR _fScale$[ebp]
  003bd	f3 0f 11 86 84
	00 00 00	 movss	 DWORD PTR [esi+132], xmm0
$LN52@UpdateNewE:

; 1771 : 	}
; 1772 : 
; 1773 : 	if( m_Type == EMT_3D_CHAT_ICON && m_p3DChatEmoticon )

  003c5	83 7e 6c 06	 cmp	 DWORD PTR [esi+108], 6
  003c9	75 11		 jne	 SHORT $LN1@UpdateNewE
  003cb	8b 4e 0c	 mov	 ecx, DWORD PTR [esi+12]
  003ce	85 c9		 test	 ecx, ecx
  003d0	74 0a		 je	 SHORT $LN1@UpdateNewE

; 1774 : 	{
; 1775 : 		m_p3DChatEmoticon->Update( m_iRenderXPos, m_iRenderYPos );

  003d2	ff 37		 push	 DWORD PTR [edi]
  003d4	ff 76 78	 push	 DWORD PTR [esi+120]
  003d7	e8 00 00 00 00	 call	 ?Update@io3DCharEmoticon@@QAEXHH@Z ; io3DCharEmoticon::Update
$LN1@UpdateNewE:

; 1776 : 	}
; 1777 : 
; 1778 : 	m_fNamedAlpha = fAlphaRate;

  003dc	f3 0f 10 45 f4	 movss	 xmm0, DWORD PTR _fAlphaRate$[ebp]

; 1779 : 	m_fNamedScale = fScale;
; 1780 : 	m_iNamedBkColor = iColor;

  003e1	8b 45 f8	 mov	 eax, DWORD PTR _iColor$[ebp]
  003e4	f3 0f 11 86 b4
	00 00 00	 movss	 DWORD PTR [esi+180], xmm0
  003ec	f3 0f 10 45 fc	 movss	 xmm0, DWORD PTR _fScale$[ebp]
  003f1	f3 0f 11 86 b8
	00 00 00	 movss	 DWORD PTR [esi+184], xmm0
  003f9	89 86 bc 00 00
	00		 mov	 DWORD PTR [esi+188], eax
$LN55@UpdateNewE:
  003ff	5f		 pop	 edi
  00400	5b		 pop	 ebx
$LN43@UpdateNewE:
  00401	5e		 pop	 esi

; 1781 : }

  00402	c9		 leave
  00403	c2 0c 00	 ret	 12			; 0000000cH
?UpdateNewEmoticon@ioCharEmoticon@@QAEXABUD3DXVECTOR3@@0_N@Z ENDP ; ioCharEmoticon::UpdateNewEmoticon
_TEXT	ENDS
PUBLIC	?EndNewEmoticon@ioCharEmoticon@@IAEXXZ		; ioCharEmoticon::EndNewEmoticon
; Function compile flags: /Ogsp
;	COMDAT ?EndNewEmoticon@ioCharEmoticon@@IAEXXZ
_TEXT	SEGMENT
tv258 = -4						; size = 4
$T540630 = -4						; size = 4
?EndNewEmoticon@ioCharEmoticon@@IAEXXZ PROC		; ioCharEmoticon::EndNewEmoticon, COMDAT
; _this$ = ecx

; 1784 : {

  00000	55		 push	 ebp
  00001	8b ec		 mov	 ebp, esp
  00003	51		 push	 ecx
  00004	53		 push	 ebx
  00005	56		 push	 esi
  00006	8b f1		 mov	 esi, ecx

; 1785 : 	if( m_pCurEmoticonInfo )

  00008	8b 8e f8 00 00
	00		 mov	 ecx, DWORD PTR [esi+248]
  0000e	33 db		 xor	 ebx, ebx
  00010	57		 push	 edi
  00011	89 4d fc	 mov	 DWORD PTR tv258[ebp], ecx
  00014	3b cb		 cmp	 ecx, ebx
  00016	74 14		 je	 SHORT $LN6@EndNewEmot

; 1786 : 		SAFEDELETE(m_pCurEmoticonInfo);

  00018	e8 00 00 00 00	 call	 ??1EmoticonInfo@@QAE@XZ
  0001d	ff 75 fc	 push	 DWORD PTR tv258[ebp]
  00020	e8 00 00 00 00	 call	 ??3@YAXPAX@Z		; operator delete
  00025	59		 pop	 ecx
  00026	89 9e f8 00 00
	00		 mov	 DWORD PTR [esi+248], ebx
$LN6@EndNewEmot:

; 1787 : 
; 1788 : 	SAFEDELETE( m_pEmoticon );

  0002c	8b 0e		 mov	 ecx, DWORD PTR [esi]
  0002e	3b cb		 cmp	 ecx, ebx
  00030	74 09		 je	 SHORT $LN43@EndNewEmot
  00032	8b 01		 mov	 eax, DWORD PTR [ecx]
  00034	6a 01		 push	 1
  00036	ff 50 40	 call	 DWORD PTR [eax+64]
  00039	89 1e		 mov	 DWORD PTR [esi], ebx
$LN43@EndNewEmot:

; 1789 : 	SAFEDELETE( m_pEmoticonNum );

  0003b	8b 4e 08	 mov	 ecx, DWORD PTR [esi+8]
  0003e	3b cb		 cmp	 ecx, ebx
  00040	74 0a		 je	 SHORT $LN4@EndNewEmot
  00042	8b 01		 mov	 eax, DWORD PTR [ecx]
  00044	6a 01		 push	 1
  00046	ff 50 40	 call	 DWORD PTR [eax+64]
  00049	89 5e 08	 mov	 DWORD PTR [esi+8], ebx
$LN4@EndNewEmot:

; 1790 : 	SAFEDELETE( m_pKillPointNum );

  0004c	8b 8e c0 00 00
	00		 mov	 ecx, DWORD PTR [esi+192]
  00052	3b cb		 cmp	 ecx, ebx
  00054	74 0d		 je	 SHORT $LN3@EndNewEmot
  00056	8b 01		 mov	 eax, DWORD PTR [ecx]
  00058	6a 01		 push	 1
  0005a	ff 50 40	 call	 DWORD PTR [eax+64]
  0005d	89 9e c0 00 00
	00		 mov	 DWORD PTR [esi+192], ebx
$LN3@EndNewEmot:

; 1791 : 
; 1792 : 	m_dwCurScaleDuration = 0;
; 1793 : 	m_fCurStartScale = 0.0f;

  00063	0f 57 c0	 xorps	 xmm0, xmm0

; 1794 : 
; 1795 : 	m_State = ES_NONE;
; 1796 : 
; 1797 : 	m_vChatTextVec.clear();

  00066	8d 8e d0 00 00
	00		 lea	 ecx, DWORD PTR [esi+208]
  0006c	89 5e 18	 mov	 DWORD PTR [esi+24], ebx
  0006f	f3 0f 11 46 1c	 movss	 DWORD PTR [esi+28], xmm0
  00074	89 5e 68	 mov	 DWORD PTR [esi+104], ebx
  00077	8b 41 04	 mov	 eax, DWORD PTR [ecx+4]
  0007a	8b 11		 mov	 edx, DWORD PTR [ecx]
  0007c	50		 push	 eax
  0007d	52		 push	 edx
  0007e	8d 45 fc	 lea	 eax, DWORD PTR $T540630[ebp]
  00081	50		 push	 eax
  00082	e8 00 00 00 00	 call	 ?erase@?$vector@VioHashString@@V?$allocator@VioHashString@@@std@@@std@@QAE?AV?$_Vector_iterator@V?$_Vector_val@VioHashString@@V?$allocator@VioHashString@@@std@@@std@@@2@V?$_Vector_const_iterator@V?$_Vector_val@VioHashString@@V?$allocator@VioHashString@@@std@@@std@@@2@0@Z ; std::vector<ioHashString,std::allocator<ioHashString> >::erase

; 1798 : 	SAFEDELETE( m_pChatBubbleCenter );

  00087	8b 8e c8 00 00
	00		 mov	 ecx, DWORD PTR [esi+200]
  0008d	3b cb		 cmp	 ecx, ebx
  0008f	74 0d		 je	 SHORT $LN2@EndNewEmot
  00091	8b 01		 mov	 eax, DWORD PTR [ecx]
  00093	6a 01		 push	 1
  00095	ff 50 40	 call	 DWORD PTR [eax+64]
  00098	89 9e c8 00 00
	00		 mov	 DWORD PTR [esi+200], ebx
$LN2@EndNewEmot:

; 1799 : 	SAFEDELETE( m_pChatBubbleRight );

  0009e	8b 8e cc 00 00
	00		 mov	 ecx, DWORD PTR [esi+204]
  000a4	3b cb		 cmp	 ecx, ebx
  000a6	74 0d		 je	 SHORT $LN1@EndNewEmot
  000a8	8b 01		 mov	 eax, DWORD PTR [ecx]
  000aa	6a 01		 push	 1
  000ac	ff 50 40	 call	 DWORD PTR [eax+64]
  000af	89 9e cc 00 00
	00		 mov	 DWORD PTR [esi+204], ebx
$LN1@EndNewEmot:

; 1800 : 
; 1801 : 	SetReserveEmoticon();

  000b5	8b ce		 mov	 ecx, esi
  000b7	e8 00 00 00 00	 call	 ?SetReserveEmoticon@ioCharEmoticon@@IAEXXZ ; ioCharEmoticon::SetReserveEmoticon
  000bc	5f		 pop	 edi
  000bd	5e		 pop	 esi
  000be	5b		 pop	 ebx

; 1802 : }

  000bf	c9		 leave
  000c0	c3		 ret	 0
?EndNewEmoticon@ioCharEmoticon@@IAEXXZ ENDP		; ioCharEmoticon::EndNewEmoticon
_TEXT	ENDS
PUBLIC	?push_back@?$vector@VioHashString@@V?$allocator@VioHashString@@@std@@@std@@QAEXABVioHashString@@@Z ; std::vector<ioHashString,std::allocator<ioHashString> >::push_back
; Function compile flags: /Ogsp
; File c:\program files (x86)\microsoft visual studio 10.0\vc\include\vector
;	COMDAT ?push_back@?$vector@VioHashString@@V?$allocator@VioHashString@@@std@@@std@@QAEXABVioHashString@@@Z
_TEXT	SEGMENT
__Val$ = 8						; size = 4
?push_back@?$vector@VioHashString@@V?$allocator@VioHashString@@@std@@@std@@QAEXABVioHashString@@@Z PROC ; std::vector<ioHashString,std::allocator<ioHashString> >::push_back, COMDAT
; _this$ = ecx

; 976  : 		{	// insert element at end

  00000	55		 push	 ebp
  00001	8b ec		 mov	 ebp, esp
  00003	56		 push	 esi
  00004	8b f1		 mov	 esi, ecx

; 977  : 		if (_Inside(_STD addressof(_Val)))

  00006	8b 46 04	 mov	 eax, DWORD PTR [esi+4]
  00009	57		 push	 edi
  0000a	8b 7d 08	 mov	 edi, DWORD PTR __Val$[ebp]
  0000d	3b f8		 cmp	 edi, eax
  0000f	73 29		 jae	 SHORT $LN4@push_back@2
  00011	8b 0e		 mov	 ecx, DWORD PTR [esi]
  00013	3b cf		 cmp	 ecx, edi
  00015	77 23		 ja	 SHORT $LN4@push_back@2

; 978  : 			{	// push back an element
; 979  : 			size_type _Idx = _STD addressof(_Val) - this->_Myfirst;

  00017	2b f9		 sub	 edi, ecx

; 980  : 			if (this->_Mylast == this->_Myend)

  00019	3b 46 08	 cmp	 eax, DWORD PTR [esi+8]
  0001c	75 09		 jne	 SHORT $LN3@push_back@2

; 981  : 				_Reserve(1);

  0001e	6a 01		 push	 1
  00020	8b ce		 mov	 ecx, esi
  00022	e8 00 00 00 00	 call	 ?_Reserve@?$vector@VioHashString@@V?$allocator@VioHashString@@@std@@@std@@IAEXI@Z ; std::vector<ioHashString,std::allocator<ioHashString> >::_Reserve
$LN3@push_back@2:

; 982  : 			_Orphan_range(this->_Mylast, this->_Mylast);
; 983  : 			_Cons_val(this->_Alval,
; 984  : 				this->_Mylast,
; 985  : 				this->_Myfirst[_Idx]);

  00027	83 e7 f0	 and	 edi, -16		; fffffff0H
  0002a	03 3e		 add	 edi, DWORD PTR [esi]
  0002c	8d 4e 0c	 lea	 ecx, DWORD PTR [esi+12]
  0002f	57		 push	 edi
  00030	ff 76 04	 push	 DWORD PTR [esi+4]
  00033	e8 00 00 00 00	 call	 ??$construct@AAVioHashString@@@?$allocator@VioHashString@@@std@@QAEXPAVioHashString@@AAV2@@Z ; std::allocator<ioHashString>::construct<ioHashString &>

; 986  : 			++this->_Mylast;
; 987  : 			}
; 988  : 		else

  00038	eb 19		 jmp	 SHORT $LN30@push_back@2
$LN4@push_back@2:

; 989  : 			{	// push back a non-element
; 990  : 			if (this->_Mylast == this->_Myend)

  0003a	3b 46 08	 cmp	 eax, DWORD PTR [esi+8]
  0003d	75 09		 jne	 SHORT $LN1@push_back@2

; 991  : 				_Reserve(1);

  0003f	6a 01		 push	 1
  00041	8b ce		 mov	 ecx, esi
  00043	e8 00 00 00 00	 call	 ?_Reserve@?$vector@VioHashString@@V?$allocator@VioHashString@@@std@@@std@@IAEXI@Z ; std::vector<ioHashString,std::allocator<ioHashString> >::_Reserve
$LN1@push_back@2:

; 992  : 			_Orphan_range(this->_Mylast, this->_Mylast);
; 993  : 			_Cons_val(this->_Alval,
; 994  : 				this->_Mylast,
; 995  : 				_Val);

  00048	57		 push	 edi
  00049	ff 76 04	 push	 DWORD PTR [esi+4]
  0004c	e8 00 00 00 00	 call	 ??$_Construct@VioHashString@@ABV1@@std@@YAXPAVioHashString@@ABV1@@Z ; std::_Construct<ioHashString,ioHashString const &>
  00051	59		 pop	 ecx
  00052	59		 pop	 ecx
$LN30@push_back@2:

; 996  : 			++this->_Mylast;

  00053	83 46 04 10	 add	 DWORD PTR [esi+4], 16	; 00000010H
  00057	5f		 pop	 edi
  00058	5e		 pop	 esi

; 997  : 			}
; 998  : 		}

  00059	5d		 pop	 ebp
  0005a	c2 04 00	 ret	 4
?push_back@?$vector@VioHashString@@V?$allocator@VioHashString@@@std@@@std@@QAEXABVioHashString@@@Z ENDP ; std::vector<ioHashString,std::allocator<ioHashString> >::push_back
_TEXT	ENDS
PUBLIC	?SetHitCombo@ioCharEmoticon@@QAEXABVioHashString@@0H_N@Z ; ioCharEmoticon::SetHitCombo
; Function compile flags: /Ogsp
; File d:\lost saga for developer\youtube\tutorial\source\src\lsclient\iocharemoticon.cpp
;	COMDAT ?SetHitCombo@ioCharEmoticon@@QAEXABVioHashString@@0H_N@Z
_TEXT	SEGMENT
_szEmoticon$ = 8					; size = 4
_szIconComboNum$ = 12					; size = 4
$T540759 = 16						; size = 4
_iHitCount$ = 16					; size = 4
_bOwnerChar$ = 20					; size = 1
?SetHitCombo@ioCharEmoticon@@QAEXABVioHashString@@0H_N@Z PROC ; ioCharEmoticon::SetHitCombo, COMDAT
; _this$ = ecx

; 223  : {

  00000	55		 push	 ebp
  00001	8b ec		 mov	 ebp, esp

; 224  : 	m_iHitComboCount = iHitCount;

  00003	8b 45 10	 mov	 eax, DWORD PTR _iHitCount$[ebp]
  00006	53		 push	 ebx

; 225  : 
; 226  : 	if( m_State == ES_NONE || m_State > ES_SCALE || m_Type != EMT_HIT_COMBO )

  00007	8b 5d 0c	 mov	 ebx, DWORD PTR _szIconComboNum$[ebp]
  0000a	56		 push	 esi
  0000b	8b f1		 mov	 esi, ecx
  0000d	8b 4e 68	 mov	 ecx, DWORD PTR [esi+104]
  00010	89 46 20	 mov	 DWORD PTR [esi+32], eax
  00013	85 c9		 test	 ecx, ecx
  00015	74 22		 je	 SHORT $LN5@SetHitComb
  00017	83 f9 01	 cmp	 ecx, 1
  0001a	7f 1d		 jg	 SHORT $LN5@SetHitComb
  0001c	83 7e 6c 04	 cmp	 DWORD PTR [esi+108], 4
  00020	75 17		 jne	 SHORT $LN5@SetHitComb

; 231  : 	}
; 232  : 	else if( !szIconComboNum.IsEmpty() )

  00022	8b cb		 mov	 ecx, ebx
  00024	ff 15 00 00 00
	00		 call	 DWORD PTR __imp_?IsEmpty@ioHashString@@QBE_NXZ
  0002a	84 c0		 test	 al, al
  0002c	75 32		 jne	 SHORT $LN3@SetHitComb

; 233  : 	{
; 234  : 		//  . ES_SCALE     .
; 235  : 		m_vHitComboNum.push_back( szIconComboNum );

  0002e	8d 4e 54	 lea	 ecx, DWORD PTR [esi+84]
  00031	53		 push	 ebx
  00032	e8 00 00 00 00	 call	 ?push_back@?$vector@VioHashString@@V?$allocator@VioHashString@@@std@@@std@@QAEXABVioHashString@@@Z ; std::vector<ioHashString,std::allocator<ioHashString> >::push_back
  00037	eb 27		 jmp	 SHORT $LN3@SetHitComb
$LN5@SetHitComb:

; 227  : 	{
; 228  : 		m_iCurHitComboCount = m_iHitComboCount;
; 229  : 		SetEmoticon( szEmoticon, EMT_HIT_COMBO, bOwnerChar );

  00039	6a 00		 push	 0
  0003b	ff 75 14	 push	 DWORD PTR _bOwnerChar$[ebp]
  0003e	8b ce		 mov	 ecx, esi
  00040	6a 04		 push	 4
  00042	ff 75 08	 push	 DWORD PTR _szEmoticon$[ebp]
  00045	89 46 24	 mov	 DWORD PTR [esi+36], eax
  00048	e8 00 00 00 00	 call	 ?SetEmoticon@ioCharEmoticon@@QAEXABVioHashString@@W4EmoticonType@@_NK@Z ; ioCharEmoticon::SetEmoticon

; 230  : 		m_vHitComboNum.clear();

  0004d	8d 4e 54	 lea	 ecx, DWORD PTR [esi+84]
  00050	8b 41 04	 mov	 eax, DWORD PTR [ecx+4]
  00053	8b 11		 mov	 edx, DWORD PTR [ecx]
  00055	50		 push	 eax
  00056	52		 push	 edx
  00057	8d 45 10	 lea	 eax, DWORD PTR $T540759[ebp]
  0005a	50		 push	 eax
  0005b	e8 00 00 00 00	 call	 ?erase@?$vector@VioHashString@@V?$allocator@VioHashString@@@std@@@std@@QAE?AV?$_Vector_iterator@V?$_Vector_val@VioHashString@@V?$allocator@VioHashString@@@std@@@std@@@2@V?$_Vector_const_iterator@V?$_Vector_val@VioHashString@@V?$allocator@VioHashString@@@std@@@std@@@2@0@Z ; std::vector<ioHashString,std::allocator<ioHashString> >::erase
$LN3@SetHitComb:

; 236  : 	}
; 237  : 
; 238  : 	if( !szIconComboNum.IsEmpty() && !m_pEmoticonNum )

  00060	8b cb		 mov	 ecx, ebx
  00062	ff 15 00 00 00
	00		 call	 DWORD PTR __imp_?IsEmpty@ioHashString@@QBE_NXZ
  00068	84 c0		 test	 al, al
  0006a	75 30		 jne	 SHORT $LN1@SetHitComb
  0006c	83 7e 08 00	 cmp	 DWORD PTR [esi+8], 0
  00070	75 2a		 jne	 SHORT $LN1@SetHitComb

; 239  : 	{
; 240  : 		m_pEmoticonNum = g_UIImageSetMgr.CreateImageByFullName( szIconComboNum );

  00072	6a 00		 push	 0
  00074	53		 push	 ebx
  00075	ff 15 00 00 00
	00		 call	 DWORD PTR __imp_?GetSingleton@ioUIImageSetManager@@SAAAV1@XZ
  0007b	8b c8		 mov	 ecx, eax
  0007d	ff 15 00 00 00
	00		 call	 DWORD PTR __imp_?CreateImageByFullName@ioUIImageSetManager@@QAEPAVioUIRenderImage@@ABVioHashString@@_N@Z
  00083	89 46 08	 mov	 DWORD PTR [esi+8], eax

; 241  : 		if( m_pEmoticonNum )

  00086	85 c0		 test	 eax, eax
  00088	74 12		 je	 SHORT $LN1@SetHitComb

; 242  : 			m_pEmoticonNum->SetScale( m_fCurStartScale );

  0008a	f3 0f 10 46 1c	 movss	 xmm0, DWORD PTR [esi+28]
  0008f	8b 10		 mov	 edx, DWORD PTR [eax]
  00091	51		 push	 ecx
  00092	8b c8		 mov	 ecx, eax
  00094	f3 0f 11 04 24	 movss	 DWORD PTR [esp], xmm0
  00099	ff 52 1c	 call	 DWORD PTR [edx+28]
$LN1@SetHitComb:
  0009c	5e		 pop	 esi
  0009d	5b		 pop	 ebx

; 243  : 	}
; 244  : }

  0009e	5d		 pop	 ebp
  0009f	c2 10 00	 ret	 16			; 00000010H
?SetHitCombo@ioCharEmoticon@@QAEXABVioHashString@@0H_N@Z ENDP ; ioCharEmoticon::SetHitCombo
_TEXT	ENDS
PUBLIC	?EndLongTimeLiveEmoticon@ioCharEmoticon@@QAEXXZ	; ioCharEmoticon::EndLongTimeLiveEmoticon
; Function compile flags: /Ogsp
;	COMDAT ?EndLongTimeLiveEmoticon@ioCharEmoticon@@QAEXXZ
_TEXT	SEGMENT
?EndLongTimeLiveEmoticon@ioCharEmoticon@@QAEXXZ PROC	; ioCharEmoticon::EndLongTimeLiveEmoticon, COMDAT
; _this$ = ecx

; 399  : {

  00000	56		 push	 esi
  00001	8b f1		 mov	 esi, ecx

; 400  : 	if( !m_bLongTimeLiveEmoticon )

  00003	80 7e 3c 00	 cmp	 BYTE PTR [esi+60], 0
  00007	74 15		 je	 SHORT $LN2@EndLongTim

; 401  : 		return;
; 402  : 
; 403  : 	m_LongTimeLiveEmoticon.Clear();

  00009	8d 4e 2c	 lea	 ecx, DWORD PTR [esi+44]
  0000c	ff 15 00 00 00
	00		 call	 DWORD PTR __imp_?Clear@ioHashString@@QAEXXZ

; 404  : 	m_bLongTimeLiveEmoticon = false;

  00012	c6 46 3c 00	 mov	 BYTE PTR [esi+60], 0

; 405  : 
; 406  : 	EndEmoticon();

  00016	8b ce		 mov	 ecx, esi
  00018	5e		 pop	 esi
  00019	e9 00 00 00 00	 jmp	 ?EndEmoticon@ioCharEmoticon@@IAEXXZ ; ioCharEmoticon::EndEmoticon
$LN2@EndLongTim:
  0001e	5e		 pop	 esi

; 407  : }

  0001f	c3		 ret	 0
?EndLongTimeLiveEmoticon@ioCharEmoticon@@QAEXXZ ENDP	; ioCharEmoticon::EndLongTimeLiveEmoticon
_TEXT	ENDS
PUBLIC	?EndUnLimitedEmoticon@ioCharEmoticon@@QAEXXZ	; ioCharEmoticon::EndUnLimitedEmoticon
; Function compile flags: /Ogsp
;	COMDAT ?EndUnLimitedEmoticon@ioCharEmoticon@@QAEXXZ
_TEXT	SEGMENT
?EndUnLimitedEmoticon@ioCharEmoticon@@QAEXXZ PROC	; ioCharEmoticon::EndUnLimitedEmoticon, COMDAT
; _this$ = ecx

; 481  : {

  00000	56		 push	 esi
  00001	8b f1		 mov	 esi, ecx

; 482  : 	if( !m_bUnLimitedEmoticon )

  00003	80 7e 50 00	 cmp	 BYTE PTR [esi+80], 0
  00007	74 21		 je	 SHORT $LN2@EndUnLimit

; 483  : 		return;
; 484  : 
; 485  : 	m_UnLimitedEmoticon.Clear();

  00009	57		 push	 edi
  0000a	8b 3d 00 00 00
	00		 mov	 edi, DWORD PTR __imp_?Clear@ioHashString@@QAEXXZ
  00010	8d 4e 40	 lea	 ecx, DWORD PTR [esi+64]
  00013	ff d7		 call	 edi

; 486  : 	m_szUnLimitedEmoticonName.Clear();

  00015	8d 8e a4 00 00
	00		 lea	 ecx, DWORD PTR [esi+164]
  0001b	ff d7		 call	 edi
  0001d	5f		 pop	 edi

; 487  : 	m_bUnLimitedEmoticon = false;

  0001e	c6 46 50 00	 mov	 BYTE PTR [esi+80], 0

; 488  : 
; 489  : 	EndEmoticon();

  00022	8b ce		 mov	 ecx, esi
  00024	5e		 pop	 esi
  00025	e9 00 00 00 00	 jmp	 ?EndEmoticon@ioCharEmoticon@@IAEXXZ ; ioCharEmoticon::EndEmoticon
$LN2@EndUnLimit:
  0002a	5e		 pop	 esi

; 490  : }

  0002b	c3		 ret	 0
?EndUnLimitedEmoticon@ioCharEmoticon@@QAEXXZ ENDP	; ioCharEmoticon::EndUnLimitedEmoticon
_TEXT	ENDS
PUBLIC	_rszChatText$GSCopy$
PUBLIC	?SetChatTextBubble@ioCharEmoticon@@QAEXABVioHashString@@@Z ; ioCharEmoticon::SetChatTextBubble
EXTRN	__imp_?At@ioHashString@@QBEDH@Z:PROC
EXTRN	__imp_?Length@ioHashString@@QBEHXZ:PROC
EXTRN	?StringCutFun@Help@@YAHMMHPADHPBD@Z:PROC	; Help::StringCutFun
EXTRN	__imp_?GetHeight@ioUIRenderElement@@QBEHXZ:PROC
EXTRN	__imp_?GetTextWidth@ioFontManager@@QAEMPBDW4TextStyle@@MH@Z:PROC
EXTRN	_memset:PROC
;	COMDAT xdata$x
; File c:\program files (x86)\microsoft visual studio 10.0\vc\include\xutility
xdata$x	SEGMENT
__unwindtable$?SetChatTextBubble@ioCharEmoticon@@QAEXABVioHashString@@@Z DD 0ffffffffH
	DD	FLAT:__unwindfunclet$?SetChatTextBubble@ioCharEmoticon@@QAEXABVioHashString@@@Z$0
	DD	0ffffffffH
	DD	FLAT:__unwindfunclet$?SetChatTextBubble@ioCharEmoticon@@QAEXABVioHashString@@@Z$1
__ehfuncinfo$?SetChatTextBubble@ioCharEmoticon@@QAEXABVioHashString@@@Z DD 019930522H
	DD	02H
	DD	FLAT:__unwindtable$?SetChatTextBubble@ioCharEmoticon@@QAEXABVioHashString@@@Z
	DD	2 DUP(00H)
	DD	2 DUP(00H)
	DD	00H
	DD	01H
; Function compile flags: /Ogsp
; File d:\lost saga for developer\youtube\tutorial\source\src\lsclient\iocharemoticon.cpp
xdata$x	ENDS
;	COMDAT ?SetChatTextBubble@ioCharEmoticon@@QAEXABVioHashString@@@Z
_TEXT	SEGMENT
$T540800 = -584						; size = 16
$T540799 = -568						; size = 16
$T540865 = -552						; size = 4
_iChatSize$ = -552					; size = 4
_iOneLineWidth$ = -548					; size = 4
_rszChatText$GSCopy$ = -544				; size = 4
_i$525881 = -540					; size = 4
_iFirstLineSize$ = -540					; size = 4
_szFirstDst$ = -536					; size = 260
_szSecondDst$ = -276					; size = 260
__$EHRec$ = -12						; size = 12
_rszChatText$ = 8					; size = 4
?SetChatTextBubble@ioCharEmoticon@@QAEXABVioHashString@@@Z PROC ; ioCharEmoticon::SetChatTextBubble, COMDAT
; _this$ = ecx

; 1335 : {

  00000	68 3c 02 00 00	 push	 572			; 0000023cH
  00005	b8 00 00 00 00	 mov	 eax, __ehhandler$?SetChatTextBubble@ioCharEmoticon@@QAEXABVioHashString@@@Z
  0000a	e8 00 00 00 00	 call	 __EH_prolog3_GS

; 1349 : 
; 1350 : 	// 1  
; 1351 : 	if( iWidth <= MAX_TEXT_WIDTH ) 

  0000f	8b 45 08	 mov	 eax, DWORD PTR _rszChatText$[ebp]
  00012	8b f1		 mov	 esi, ecx
  00014	8b 8e c8 00 00
	00		 mov	 ecx, DWORD PTR [esi+200]
  0001a	33 ff		 xor	 edi, edi
  0001c	89 85 e0 fd ff
	ff		 mov	 DWORD PTR _rszChatText$GSCopy$[ebp], eax
  00022	3b cf		 cmp	 ecx, edi
  00024	74 0d		 je	 SHORT $LN11@SetChatTex

; 1336 : 	enum 
; 1337 : 	{
; 1338 : 		MAX_TEXT_WIDTH        = 95,
; 1339 : 		ONE_LINE_WIDTH_OFFSET = 26,
; 1340 : 		TWO_LINE_WIDTH_OFFSET = 21,
; 1341 : 		WIDTH_OFFSET          = 5,
; 1342 : 	};
; 1343 : 
; 1344 : 	SAFEDELETE( m_pChatBubbleCenter );

  00026	8b 01		 mov	 eax, DWORD PTR [ecx]
  00028	6a 01		 push	 1
  0002a	ff 50 40	 call	 DWORD PTR [eax+64]
  0002d	89 be c8 00 00
	00		 mov	 DWORD PTR [esi+200], edi
$LN11@SetChatTex:

; 1345 : 	SAFEDELETE( m_pChatBubbleRight );

  00033	8b 8e cc 00 00
	00		 mov	 ecx, DWORD PTR [esi+204]
  00039	3b cf		 cmp	 ecx, edi
  0003b	74 0d		 je	 SHORT $LN10@SetChatTex
  0003d	8b 01		 mov	 eax, DWORD PTR [ecx]
  0003f	6a 01		 push	 1
  00041	ff 50 40	 call	 DWORD PTR [eax+64]
  00044	89 be cc 00 00
	00		 mov	 DWORD PTR [esi+204], edi
$LN10@SetChatTex:

; 1346 : 	m_vChatTextVec.clear();

  0004a	8b 86 d4 00 00
	00		 mov	 eax, DWORD PTR [esi+212]
  00050	8b 8e d0 00 00
	00		 mov	 ecx, DWORD PTR [esi+208]
  00056	50		 push	 eax
  00057	51		 push	 ecx
  00058	8d 85 d8 fd ff
	ff		 lea	 eax, DWORD PTR $T540865[ebp]
  0005e	50		 push	 eax
  0005f	8d 8e d0 00 00
	00		 lea	 ecx, DWORD PTR [esi+208]
  00065	e8 00 00 00 00	 call	 ?erase@?$vector@VioHashString@@V?$allocator@VioHashString@@@std@@@std@@QAE?AV?$_Vector_iterator@V?$_Vector_val@VioHashString@@V?$allocator@VioHashString@@@std@@@std@@@2@V?$_Vector_const_iterator@V?$_Vector_val@VioHashString@@V?$allocator@VioHashString@@@std@@@std@@@2@0@Z ; std::vector<ioHashString,std::allocator<ioHashString> >::erase

; 1347 : 
; 1348 : 	int iWidth = g_FontMgr.GetTextWidth( rszChatText.c_str(), TS_OUTLINE_FULL_2X, FONT_SIZE_13 );

  0006a	f3 0f 10 05 00
	00 00 00	 movss	 xmm0, DWORD PTR __real@3f266666
  00072	57		 push	 edi
  00073	51		 push	 ecx
  00074	8b 8d e0 fd ff
	ff		 mov	 ecx, DWORD PTR _rszChatText$GSCopy$[ebp]
  0007a	f3 0f 11 04 24	 movss	 DWORD PTR [esp], xmm0
  0007f	6a 05		 push	 5
  00081	ff 15 00 00 00
	00		 call	 DWORD PTR __imp_?c_str@ioHashString@@QBEPBDXZ
  00087	50		 push	 eax
  00088	ff 15 00 00 00
	00		 call	 DWORD PTR __imp_?GetSingleton@ioFontManager@@SAAAV1@XZ
  0008e	8b c8		 mov	 ecx, eax
  00090	ff 15 00 00 00
	00		 call	 DWORD PTR __imp_?GetTextWidth@ioFontManager@@QAEMPBDW4TextStyle@@MH@Z
  00096	e8 00 00 00 00	 call	 __ftol2_sse

; 1349 : 
; 1350 : 	// 1  
; 1351 : 	if( iWidth <= MAX_TEXT_WIDTH ) 

  0009b	6a 5f		 push	 95			; 0000005fH
  0009d	8b f8		 mov	 edi, eax
  0009f	59		 pop	 ecx
  000a0	3b f9		 cmp	 edi, ecx
  000a2	7f 48		 jg	 SHORT $LN9@SetChatTex

; 1352 : 	{
; 1353 : 		m_vChatTextVec.push_back( rszChatText );

  000a4	ff b5 e0 fd ff
	ff		 push	 DWORD PTR _rszChatText$GSCopy$[ebp]
  000aa	8d 8e d0 00 00
	00		 lea	 ecx, DWORD PTR [esi+208]
  000b0	e8 00 00 00 00	 call	 ?push_back@?$vector@VioHashString@@V?$allocator@VioHashString@@@std@@@std@@QAEXABVioHashString@@@Z ; std::vector<ioHashString,std::allocator<ioHashString> >::push_back

; 1354 : 
; 1355 : 		// image
; 1356 : //		m_pChatBubbleCenter = g_UIImageSetMgr.CreateImageByFullName( ioHashString( "ImageSet003#Chatbox1_Center" ) );
; 1357 : //		m_pChatBubbleRight  = g_UIImageSetMgr.CreateImageByFullName( ioHashString( "ImageSet003#Chatbox1_Right" ) );
; 1358 : 		if( m_pChatBubbleCenter )

  000b5	8b 8e c8 00 00
	00		 mov	 ecx, DWORD PTR [esi+200]
  000bb	85 c9		 test	 ecx, ecx
  000bd	0f 84 c7 01 00
	00		 je	 $LN1@SetChatTex

; 1359 : 		{
; 1360 : 			m_pChatBubbleCenter->SetHorzFormatting( ioUIRenderImage::HF_STRETCH );

  000c3	6a 03		 push	 3
  000c5	ff 15 00 00 00
	00		 call	 DWORD PTR __imp_?SetHorzFormatting@ioUIRenderImage@@QAEXW4HorzFormatting@1@@Z

; 1361 : 			m_pChatBubbleCenter->SetSize( iWidth+ONE_LINE_WIDTH_OFFSET, m_pChatBubbleCenter->GetHeight() );

  000cb	8b 86 c8 00 00
	00		 mov	 eax, DWORD PTR [esi+200]
  000d1	8b 18		 mov	 ebx, DWORD PTR [eax]
  000d3	8b f0		 mov	 esi, eax
  000d5	8b c8		 mov	 ecx, eax
  000d7	ff 15 00 00 00
	00		 call	 DWORD PTR __imp_?GetHeight@ioUIRenderElement@@QBEHXZ
  000dd	50		 push	 eax
  000de	83 c7 1a	 add	 edi, 26			; 0000001aH
  000e1	57		 push	 edi
  000e2	8b ce		 mov	 ecx, esi
  000e4	ff 53 10	 call	 DWORD PTR [ebx+16]

; 1362 : 		}
; 1363 : 		return;

  000e7	e9 9e 01 00 00	 jmp	 $LN1@SetChatTex
$LN9@SetChatTex:

; 1364 : 	}
; 1365 : 
; 1366 : 	// 2  
; 1367 : 	int iOneLineWidth = iWidth / 2;

  000ec	8b c7		 mov	 eax, edi
  000ee	99		 cdq
  000ef	2b c2		 sub	 eax, edx
  000f1	d1 f8		 sar	 eax, 1

; 1368 : 	if( iOneLineWidth > MAX_TEXT_WIDTH )

  000f3	3b c1		 cmp	 eax, ecx
  000f5	7e 08		 jle	 SHORT $LN7@SetChatTex

; 1369 : 		iOneLineWidth = MAX_TEXT_WIDTH;

  000f7	89 8d dc fd ff
	ff		 mov	 DWORD PTR _iOneLineWidth$[ebp], ecx

; 1370 : 	else

  000fd	eb 09		 jmp	 SHORT $LN6@SetChatTex
$LN7@SetChatTex:

; 1371 : 		iOneLineWidth += WIDTH_OFFSET; //   1      

  000ff	83 c0 05	 add	 eax, 5
  00102	89 85 dc fd ff
	ff		 mov	 DWORD PTR _iOneLineWidth$[ebp], eax
$LN6@SetChatTex:

; 1372 : 
; 1373 : 	char szFirstDst[MAX_PATH]="";

  00108	bf 03 01 00 00	 mov	 edi, 259		; 00000103H
  0010d	57		 push	 edi
  0010e	8d 85 e9 fd ff
	ff		 lea	 eax, DWORD PTR _szFirstDst$[ebp+1]
  00114	6a 00		 push	 0
  00116	50		 push	 eax
  00117	c6 85 e8 fd ff
	ff 00		 mov	 BYTE PTR _szFirstDst$[ebp], 0
  0011e	e8 00 00 00 00	 call	 _memset

; 1374 : 	int iFirstLineSize = Help::StringCutFun( FONT_SIZE_13, iOneLineWidth, TS_OUTLINE_FULL_2X, szFirstDst, sizeof(szFirstDst), rszChatText.c_str() );

  00123	8b 8d e0 fd ff
	ff		 mov	 ecx, DWORD PTR _rszChatText$GSCopy$[ebp]
  00129	83 c4 0c	 add	 esp, 12			; 0000000cH
  0012c	ff 15 00 00 00
	00		 call	 DWORD PTR __imp_?c_str@ioHashString@@QBEPBDXZ
  00132	66 0f 6e 85 dc
	fd ff ff	 movd	 xmm0, DWORD PTR _iOneLineWidth$[ebp]
  0013a	50		 push	 eax
  0013b	68 04 01 00 00	 push	 260			; 00000104H
  00140	8d 85 e8 fd ff
	ff		 lea	 eax, DWORD PTR _szFirstDst$[ebp]
  00146	50		 push	 eax
  00147	6a 05		 push	 5
  00149	51		 push	 ecx
  0014a	51		 push	 ecx
  0014b	0f 5b c0	 cvtdq2ps xmm0, xmm0
  0014e	f3 0f 11 44 24
	04		 movss	 DWORD PTR [esp+4], xmm0
  00154	f3 0f 10 05 00
	00 00 00	 movss	 xmm0, DWORD PTR __real@3f266666
  0015c	f3 0f 11 04 24	 movss	 DWORD PTR [esp], xmm0
  00161	e8 00 00 00 00	 call	 ?StringCutFun@Help@@YAHMMHPADHPBD@Z ; Help::StringCutFun
  00166	89 85 e4 fd ff
	ff		 mov	 DWORD PTR _iFirstLineSize$[ebp], eax
  0016c	83 c4 18	 add	 esp, 24			; 00000018H

; 1375 : 	m_vChatTextVec.push_back( szFirstDst );

  0016f	8d 85 e8 fd ff
	ff		 lea	 eax, DWORD PTR _szFirstDst$[ebp]
  00175	50		 push	 eax
  00176	8d 8d c8 fd ff
	ff		 lea	 ecx, DWORD PTR $T540799[ebp]
  0017c	ff 15 00 00 00
	00		 call	 DWORD PTR __imp_??0ioHashString@@QAE@PBD@Z
  00182	83 65 fc 00	 and	 DWORD PTR __$EHRec$[ebp+8], 0
  00186	8d 85 c8 fd ff
	ff		 lea	 eax, DWORD PTR $T540799[ebp]
  0018c	50		 push	 eax
  0018d	8d 8e d0 00 00
	00		 lea	 ecx, DWORD PTR [esi+208]
  00193	e8 00 00 00 00	 call	 ?push_back@?$vector@VioHashString@@V?$allocator@VioHashString@@@std@@@std@@QAEXABVioHashString@@@Z ; std::vector<ioHashString,std::allocator<ioHashString> >::push_back
  00198	83 4d fc ff	 or	 DWORD PTR __$EHRec$[ebp+8], -1
  0019c	8d 8d c8 fd ff
	ff		 lea	 ecx, DWORD PTR $T540799[ebp]
  001a2	ff 15 00 00 00
	00		 call	 DWORD PTR __imp_??1ioHashString@@QAE@XZ

; 1376 : 	char szSecondDst[MAX_PATH]="";

  001a8	57		 push	 edi
  001a9	33 ff		 xor	 edi, edi
  001ab	8d 85 ed fe ff
	ff		 lea	 eax, DWORD PTR _szSecondDst$[ebp+1]
  001b1	57		 push	 edi
  001b2	50		 push	 eax
  001b3	c6 85 ec fe ff
	ff 00		 mov	 BYTE PTR _szSecondDst$[ebp], 0
  001ba	e8 00 00 00 00	 call	 _memset

; 1377 : 	
; 1378 : 	int iChatSize = rszChatText.Length();

  001bf	8b 8d e0 fd ff
	ff		 mov	 ecx, DWORD PTR _rszChatText$GSCopy$[ebp]
  001c5	83 c4 0c	 add	 esp, 12			; 0000000cH
  001c8	ff 15 00 00 00
	00		 call	 DWORD PTR __imp_?Length@ioHashString@@QBEHXZ

; 1379 :  	int iSecondCnt = 0;
; 1380 :  	for (int i = iFirstLineSize; i < iChatSize ; i++) //      size . i = iFirstLineSize

  001ce	8b 8d e4 fd ff
	ff		 mov	 ecx, DWORD PTR _iFirstLineSize$[ebp]
  001d4	89 85 d8 fd ff
	ff		 mov	 DWORD PTR _iChatSize$[ebp], eax
  001da	89 8d e4 fd ff
	ff		 mov	 DWORD PTR _i$525881[ebp], ecx
  001e0	3b c8		 cmp	 ecx, eax
  001e2	7d 36		 jge	 SHORT $LN39@SetChatTex
$LN5@SetChatTex:

; 1381 :  	{
; 1382 :  		szSecondDst[iSecondCnt] = rszChatText.At(i);	

  001e4	ff b5 e4 fd ff
	ff		 push	 DWORD PTR _i$525881[ebp]
  001ea	8b 8d e0 fd ff
	ff		 mov	 ecx, DWORD PTR _rszChatText$GSCopy$[ebp]
  001f0	ff 15 00 00 00
	00		 call	 DWORD PTR __imp_?At@ioHashString@@QBEDH@Z
  001f6	88 84 3d ec fe
	ff ff		 mov	 BYTE PTR _szSecondDst$[ebp+edi], al

; 1383 : 		iSecondCnt++;

  001fd	47		 inc	 edi

; 1384 : 		if( iSecondCnt >= MAX_PATH )

  001fe	81 ff 04 01 00
	00		 cmp	 edi, 260		; 00000104H
  00204	7d 14		 jge	 SHORT $LN39@SetChatTex

; 1379 :  	int iSecondCnt = 0;
; 1380 :  	for (int i = iFirstLineSize; i < iChatSize ; i++) //      size . i = iFirstLineSize

  00206	ff 85 e4 fd ff
	ff		 inc	 DWORD PTR _i$525881[ebp]
  0020c	8b 85 e4 fd ff
	ff		 mov	 eax, DWORD PTR _i$525881[ebp]
  00212	3b 85 d8 fd ff
	ff		 cmp	 eax, DWORD PTR _iChatSize$[ebp]
  00218	7c ca		 jl	 SHORT $LN5@SetChatTex
$LN39@SetChatTex:

; 1385 : 			break;
; 1386 :  	}
; 1387 : 
; 1388 : 	m_vChatTextVec.push_back( szSecondDst );

  0021a	8d 85 ec fe ff
	ff		 lea	 eax, DWORD PTR _szSecondDst$[ebp]
  00220	50		 push	 eax
  00221	8d 8d b8 fd ff
	ff		 lea	 ecx, DWORD PTR $T540800[ebp]
  00227	ff 15 00 00 00
	00		 call	 DWORD PTR __imp_??0ioHashString@@QAE@PBD@Z
  0022d	8d 85 b8 fd ff
	ff		 lea	 eax, DWORD PTR $T540800[ebp]
  00233	50		 push	 eax
  00234	8d 8e d0 00 00
	00		 lea	 ecx, DWORD PTR [esi+208]
  0023a	c7 45 fc 01 00
	00 00		 mov	 DWORD PTR __$EHRec$[ebp+8], 1
  00241	e8 00 00 00 00	 call	 ?push_back@?$vector@VioHashString@@V?$allocator@VioHashString@@@std@@@std@@QAEXABVioHashString@@@Z ; std::vector<ioHashString,std::allocator<ioHashString> >::push_back
  00246	83 4d fc ff	 or	 DWORD PTR __$EHRec$[ebp+8], -1
  0024a	8d 8d b8 fd ff
	ff		 lea	 ecx, DWORD PTR $T540800[ebp]
  00250	ff 15 00 00 00
	00		 call	 DWORD PTR __imp_??1ioHashString@@QAE@XZ

; 1389 : 
; 1390 : 	// image
; 1391 : //	m_pChatBubbleCenter = g_UIImageSetMgr.CreateImageByFullName( ioHashString( "ImageSet003#Chatbox2_Center" ) );
; 1392 : //	m_pChatBubbleRight  = g_UIImageSetMgr.CreateImageByFullName( ioHashString( "ImageSet003#Chatbox2_Right" ) );
; 1393 : 	if( m_pChatBubbleCenter )

  00256	8b 8e c8 00 00
	00		 mov	 ecx, DWORD PTR [esi+200]
  0025c	85 c9		 test	 ecx, ecx
  0025e	74 2a		 je	 SHORT $LN1@SetChatTex

; 1394 : 	{
; 1395 : 		m_pChatBubbleCenter->SetHorzFormatting( ioUIRenderImage::HF_STRETCH );

  00260	6a 03		 push	 3
  00262	ff 15 00 00 00
	00		 call	 DWORD PTR __imp_?SetHorzFormatting@ioUIRenderImage@@QAEXW4HorzFormatting@1@@Z

; 1396 : 		m_pChatBubbleCenter->SetSize( iOneLineWidth+TWO_LINE_WIDTH_OFFSET, m_pChatBubbleCenter->GetHeight() );

  00268	8b 86 c8 00 00
	00		 mov	 eax, DWORD PTR [esi+200]
  0026e	8b 38		 mov	 edi, DWORD PTR [eax]
  00270	8b f0		 mov	 esi, eax
  00272	8b c8		 mov	 ecx, eax
  00274	ff 15 00 00 00
	00		 call	 DWORD PTR __imp_?GetHeight@ioUIRenderElement@@QBEHXZ
  0027a	50		 push	 eax
  0027b	8b 85 dc fd ff
	ff		 mov	 eax, DWORD PTR _iOneLineWidth$[ebp]
  00281	83 c0 15	 add	 eax, 21			; 00000015H
  00284	50		 push	 eax
  00285	8b ce		 mov	 ecx, esi
  00287	ff 57 10	 call	 DWORD PTR [edi+16]
$LN1@SetChatTex:

; 1397 : 	}
; 1398 : }

  0028a	e8 00 00 00 00	 call	 __EH_epilog3_GS
  0028f	c2 04 00	 ret	 4
_TEXT	ENDS
;	COMDAT text$x
text$x	SEGMENT
__unwindfunclet$?SetChatTextBubble@ioCharEmoticon@@QAEXABVioHashString@@@Z$0:
  00000	8d 8d c8 fd ff
	ff		 lea	 ecx, DWORD PTR $T540799[ebp]
  00006	ff 25 00 00 00
	00		 jmp	 DWORD PTR __imp_??1ioHashString@@QAE@XZ
__unwindfunclet$?SetChatTextBubble@ioCharEmoticon@@QAEXABVioHashString@@@Z$1:
  0000c	8d 8d b8 fd ff
	ff		 lea	 ecx, DWORD PTR $T540800[ebp]
  00012	ff 25 00 00 00
	00		 jmp	 DWORD PTR __imp_??1ioHashString@@QAE@XZ
__ehhandler$?SetChatTextBubble@ioCharEmoticon@@QAEXABVioHashString@@@Z:
  00018	8b 54 24 08	 mov	 edx, DWORD PTR [esp+8]
  0001c	8d 42 0c	 lea	 eax, DWORD PTR [edx+12]
  0001f	8b 8a b4 fd ff
	ff		 mov	 ecx, DWORD PTR [edx-588]
  00025	33 c8		 xor	 ecx, eax
  00027	e8 00 00 00 00	 call	 @__security_check_cookie@4
  0002c	8b 4a fc	 mov	 ecx, DWORD PTR [edx-4]
  0002f	33 c8		 xor	 ecx, eax
  00031	e8 00 00 00 00	 call	 @__security_check_cookie@4
  00036	b8 00 00 00 00	 mov	 eax, OFFSET __ehfuncinfo$?SetChatTextBubble@ioCharEmoticon@@QAEXABVioHashString@@@Z
  0003b	e9 00 00 00 00	 jmp	 ___CxxFrameHandler3
text$x	ENDS
?SetChatTextBubble@ioCharEmoticon@@QAEXABVioHashString@@@Z ENDP ; ioCharEmoticon::SetChatTextBubble
EXTRN	_atexit:PROC
; Function compile flags: /Ogsp
;	COMDAT ??__E?m_EmoticonBack@ioCharEmoticon@@1VioHashString@@A@@YAXXZ
text$yc	SEGMENT
??__E?m_EmoticonBack@ioCharEmoticon@@1VioHashString@@A@@YAXXZ PROC ; `dynamic initializer for 'ioCharEmoticon::m_EmoticonBack'', COMDAT

; 14   : ioHashString ioCharEmoticon::m_EmoticonBack;

  00000	b9 00 00 00 00	 mov	 ecx, OFFSET ?m_EmoticonBack@ioCharEmoticon@@1VioHashString@@A ; ioCharEmoticon::m_EmoticonBack
  00005	ff 15 00 00 00
	00		 call	 DWORD PTR __imp_??0ioHashString@@QAE@XZ
  0000b	68 00 00 00 00	 push	 OFFSET ??__F?m_EmoticonBack@ioCharEmoticon@@1VioHashString@@A@@YAXXZ ; `dynamic atexit destructor for 'ioCharEmoticon::m_EmoticonBack''
  00010	e8 00 00 00 00	 call	 _atexit
  00015	59		 pop	 ecx
  00016	c3		 ret	 0
??__E?m_EmoticonBack@ioCharEmoticon@@1VioHashString@@A@@YAXXZ ENDP ; `dynamic initializer for 'ioCharEmoticon::m_EmoticonBack''
; Function compile flags: /Ogsp
text$yc	ENDS
;	COMDAT ??__F?m_EmoticonBack@ioCharEmoticon@@1VioHashString@@A@@YAXXZ
text$yd	SEGMENT
??__F?m_EmoticonBack@ioCharEmoticon@@1VioHashString@@A@@YAXXZ PROC ; `dynamic atexit destructor for 'ioCharEmoticon::m_EmoticonBack'', COMDAT
  00000	b9 00 00 00 00	 mov	 ecx, OFFSET ?m_EmoticonBack@ioCharEmoticon@@1VioHashString@@A ; ioCharEmoticon::m_EmoticonBack
  00005	ff 25 00 00 00
	00		 jmp	 DWORD PTR __imp_??1ioHashString@@QAE@XZ
??__F?m_EmoticonBack@ioCharEmoticon@@1VioHashString@@A@@YAXXZ ENDP ; `dynamic atexit destructor for 'ioCharEmoticon::m_EmoticonBack''
text$yd	ENDS
PUBLIC	?m_EmoticonBack@ioCharEmoticon@@1VioHashString@@A ; ioCharEmoticon::m_EmoticonBack
_BSS	SEGMENT
?m_EmoticonBack@ioCharEmoticon@@1VioHashString@@A DB 010H DUP (?) ; ioCharEmoticon::m_EmoticonBack
_BSS	ENDS
CRT$XCU	SEGMENT
?m_EmoticonBack$initializer$@ioCharEmoticon@@1P6AXXZA DD FLAT:??__E?m_EmoticonBack@ioCharEmoticon@@1VioHashString@@A@@YAXXZ ; ioCharEmoticon::m_EmoticonBack$initializer$
CRT$XCU	ENDS
END
