; Listing generated by Microsoft (R) Optimizing Compiler Version 16.00.30319.01 

	TITLE	D:\Lost Saga For Developer\Youtube\Tutorial\Source\src\LSClient\ioCharRentalData.cpp
	.686P
	.XMM
	include listing.inc
	.model	flat

INCLUDELIB MSVCRT
INCLUDELIB OLDNAMES

PUBLIC	??_7bad_alloc@std@@6B@				; std::bad_alloc::`vftable'
PUBLIC	??0bad_alloc@std@@QAE@PBD@Z			; std::bad_alloc::bad_alloc
PUBLIC	??_R4bad_alloc@std@@6B@				; std::bad_alloc::`RTTI Complete Object Locator'
PUBLIC	??_R0?AVbad_alloc@std@@@8			; std::bad_alloc `RTTI Type Descriptor'
PUBLIC	??_R3bad_alloc@std@@8				; std::bad_alloc::`RTTI Class Hierarchy Descriptor'
PUBLIC	??_R2bad_alloc@std@@8				; std::bad_alloc::`RTTI Base Class Array'
PUBLIC	??_R1A@?0A@EA@bad_alloc@std@@8			; std::bad_alloc::`RTTI Base Class Descriptor at (0,-1,0,64)'
PUBLIC	??_R1A@?0A@EA@exception@std@@8			; std::exception::`RTTI Base Class Descriptor at (0,-1,0,64)'
PUBLIC	??_R0?AVexception@std@@@8			; std::exception `RTTI Type Descriptor'
PUBLIC	??_R3exception@std@@8				; std::exception::`RTTI Class Hierarchy Descriptor'
PUBLIC	??_R2exception@std@@8				; std::exception::`RTTI Base Class Array'
EXTRN	__imp_??0exception@std@@QAE@ABQBD@Z:PROC
EXTRN	??_7type_info@@6B@:QWORD			; type_info::`vftable'
EXTRN	??_Ebad_alloc@std@@UAEPAXI@Z:PROC		; std::bad_alloc::`vector deleting destructor'
EXTRN	?what@exception@std@@UBEPBDXZ:PROC		; std::exception::what
;	COMDAT ??_R2exception@std@@8
; File c:\program files (x86)\microsoft visual studio 10.0\vc\include\exception
rdata$r	SEGMENT
??_R2exception@std@@8 DD FLAT:??_R1A@?0A@EA@exception@std@@8 ; std::exception::`RTTI Base Class Array'
rdata$r	ENDS
;	COMDAT ??_R3exception@std@@8
rdata$r	SEGMENT
??_R3exception@std@@8 DD 00H				; std::exception::`RTTI Class Hierarchy Descriptor'
	DD	00H
	DD	01H
	DD	FLAT:??_R2exception@std@@8
rdata$r	ENDS
;	COMDAT ??_R0?AVexception@std@@@8
_DATA	SEGMENT
??_R0?AVexception@std@@@8 DD FLAT:??_7type_info@@6B@	; std::exception `RTTI Type Descriptor'
	DD	00H
	DB	'.?AVexception@std@@', 00H
_DATA	ENDS
;	COMDAT ??_R1A@?0A@EA@exception@std@@8
rdata$r	SEGMENT
??_R1A@?0A@EA@exception@std@@8 DD FLAT:??_R0?AVexception@std@@@8 ; std::exception::`RTTI Base Class Descriptor at (0,-1,0,64)'
	DD	00H
	DD	00H
	DD	0ffffffffH
	DD	00H
	DD	040H
	DD	FLAT:??_R3exception@std@@8
rdata$r	ENDS
;	COMDAT ??_R1A@?0A@EA@bad_alloc@std@@8
rdata$r	SEGMENT
??_R1A@?0A@EA@bad_alloc@std@@8 DD FLAT:??_R0?AVbad_alloc@std@@@8 ; std::bad_alloc::`RTTI Base Class Descriptor at (0,-1,0,64)'
	DD	01H
	DD	00H
	DD	0ffffffffH
	DD	00H
	DD	040H
	DD	FLAT:??_R3bad_alloc@std@@8
rdata$r	ENDS
;	COMDAT ??_R2bad_alloc@std@@8
rdata$r	SEGMENT
??_R2bad_alloc@std@@8 DD FLAT:??_R1A@?0A@EA@bad_alloc@std@@8 ; std::bad_alloc::`RTTI Base Class Array'
	DD	FLAT:??_R1A@?0A@EA@exception@std@@8
rdata$r	ENDS
;	COMDAT ??_R3bad_alloc@std@@8
rdata$r	SEGMENT
??_R3bad_alloc@std@@8 DD 00H				; std::bad_alloc::`RTTI Class Hierarchy Descriptor'
	DD	00H
	DD	02H
	DD	FLAT:??_R2bad_alloc@std@@8
rdata$r	ENDS
;	COMDAT ??_R0?AVbad_alloc@std@@@8
_DATA	SEGMENT
??_R0?AVbad_alloc@std@@@8 DD FLAT:??_7type_info@@6B@	; std::bad_alloc `RTTI Type Descriptor'
	DD	00H
	DB	'.?AVbad_alloc@std@@', 00H
_DATA	ENDS
;	COMDAT ??_R4bad_alloc@std@@6B@
rdata$r	SEGMENT
??_R4bad_alloc@std@@6B@ DD 00H				; std::bad_alloc::`RTTI Complete Object Locator'
	DD	00H
	DD	00H
	DD	FLAT:??_R0?AVbad_alloc@std@@@8
	DD	FLAT:??_R3bad_alloc@std@@8
rdata$r	ENDS
;	COMDAT ??_7bad_alloc@std@@6B@
CONST	SEGMENT
??_7bad_alloc@std@@6B@ DD FLAT:??_R4bad_alloc@std@@6B@	; std::bad_alloc::`vftable'
	DD	FLAT:??_Ebad_alloc@std@@UAEPAXI@Z
	DD	FLAT:?what@exception@std@@UBEPBDXZ
; Function compile flags: /Ogsp
CONST	ENDS
;	COMDAT ??0bad_alloc@std@@QAE@PBD@Z
_TEXT	SEGMENT
__Message$ = 8						; size = 4
??0bad_alloc@std@@QAE@PBD@Z PROC			; std::bad_alloc::bad_alloc, COMDAT
; _this$ = ecx

; 345  : 		{	// construct from message string

  00000	55		 push	 ebp
  00001	8b ec		 mov	 ebp, esp
  00003	56		 push	 esi
  00004	8d 45 08	 lea	 eax, DWORD PTR __Message$[ebp]
  00007	50		 push	 eax
  00008	8b f1		 mov	 esi, ecx
  0000a	ff 15 00 00 00
	00		 call	 DWORD PTR __imp_??0exception@std@@QAE@ABQBD@Z
  00010	c7 06 00 00 00
	00		 mov	 DWORD PTR [esi], OFFSET ??_7bad_alloc@std@@6B@

; 346  : 		}

  00016	8b c6		 mov	 eax, esi
  00018	5e		 pop	 esi
  00019	5d		 pop	 ebp
  0001a	c2 04 00	 ret	 4
??0bad_alloc@std@@QAE@PBD@Z ENDP			; std::bad_alloc::bad_alloc
_TEXT	ENDS
PUBLIC	??1bad_alloc@std@@UAE@XZ			; std::bad_alloc::~bad_alloc
EXTRN	__imp_??1exception@std@@UAE@XZ:PROC
; Function compile flags: /Ogsp
;	COMDAT ??1bad_alloc@std@@UAE@XZ
_TEXT	SEGMENT
??1bad_alloc@std@@UAE@XZ PROC				; std::bad_alloc::~bad_alloc, COMDAT
; _this$ = ecx

; 354  : 		{	// destroy the object

  00000	c7 01 00 00 00
	00		 mov	 DWORD PTR [ecx], OFFSET ??_7bad_alloc@std@@6B@

; 355  : 		}

  00006	ff 25 00 00 00
	00		 jmp	 DWORD PTR __imp_??1exception@std@@UAE@XZ
??1bad_alloc@std@@UAE@XZ ENDP				; std::bad_alloc::~bad_alloc
_TEXT	ENDS
EXTRN	??3@YAXPAX@Z:PROC				; operator delete
; Function compile flags: /Ogsp
;	COMDAT ??_Gbad_alloc@std@@UAEPAXI@Z
_TEXT	SEGMENT
___flags$ = 8						; size = 4
??_Gbad_alloc@std@@UAEPAXI@Z PROC			; std::bad_alloc::`scalar deleting destructor', COMDAT
; _this$ = ecx
  00000	55		 push	 ebp
  00001	8b ec		 mov	 ebp, esp
  00003	56		 push	 esi
  00004	8b f1		 mov	 esi, ecx
  00006	c7 06 00 00 00
	00		 mov	 DWORD PTR [esi], OFFSET ??_7bad_alloc@std@@6B@
  0000c	ff 15 00 00 00
	00		 call	 DWORD PTR __imp_??1exception@std@@UAE@XZ
  00012	f6 45 08 01	 test	 BYTE PTR ___flags$[ebp], 1
  00016	74 07		 je	 SHORT $LN1@scalar
  00018	56		 push	 esi
  00019	e8 00 00 00 00	 call	 ??3@YAXPAX@Z		; operator delete
  0001e	59		 pop	 ecx
$LN1@scalar:
  0001f	8b c6		 mov	 eax, esi
  00021	5e		 pop	 esi
  00022	5d		 pop	 ebp
  00023	c2 04 00	 ret	 4
??_Gbad_alloc@std@@UAEPAXI@Z ENDP			; std::bad_alloc::`scalar deleting destructor'
_TEXT	ENDS
PUBLIC	??2@YAPAXIPAX@Z					; operator new
; Function compile flags: /Ogsp
; File c:\program files (x86)\microsoft visual studio 10.0\vc\include\new
;	COMDAT ??2@YAPAXIPAX@Z
_TEXT	SEGMENT
___formal$ = 8						; size = 4
__Where$ = 12						; size = 4
??2@YAPAXIPAX@Z PROC					; operator new, COMDAT

; 56   : 	{	// construct array with placement at _Where

  00000	55		 push	 ebp
  00001	8b ec		 mov	 ebp, esp

; 57   : 	return (_Where);

  00003	8b 45 0c	 mov	 eax, DWORD PTR __Where$[ebp]

; 58   : 	}

  00006	5d		 pop	 ebp
  00007	c3		 ret	 0
??2@YAPAXIPAX@Z ENDP					; operator new
_TEXT	ENDS
PUBLIC	??3@YAXPAX0@Z					; operator delete
; Function compile flags: /Ogsp
;	COMDAT ??3@YAXPAX0@Z
_TEXT	SEGMENT
___formal$ = 8						; size = 4
___formal$ = 12						; size = 4
??3@YAXPAX0@Z PROC					; operator delete, COMDAT

; 62   : 	}

  00000	c3		 ret	 0
??3@YAXPAX0@Z ENDP					; operator delete
_TEXT	ENDS
PUBLIC	?_Inside@?$vector@HV?$allocator@H@std@@@std@@IBE_NPBH@Z ; std::vector<int,std::allocator<int> >::_Inside
; Function compile flags: /Ogsp
; File c:\program files (x86)\microsoft visual studio 10.0\vc\include\vector
;	COMDAT ?_Inside@?$vector@HV?$allocator@H@std@@@std@@IBE_NPBH@Z
_TEXT	SEGMENT
__Ptr$ = 8						; size = 4
?_Inside@?$vector@HV?$allocator@H@std@@@std@@IBE_NPBH@Z PROC ; std::vector<int,std::allocator<int> >::_Inside, COMDAT
; _this$ = ecx

; 1285 : 		{	// test if _Ptr points inside vector

  00000	55		 push	 ebp
  00001	8b ec		 mov	 ebp, esp

; 1286 : 		return (_Ptr < this->_Mylast && this->_Myfirst <= _Ptr);

  00003	8b 45 08	 mov	 eax, DWORD PTR __Ptr$[ebp]
  00006	3b 41 04	 cmp	 eax, DWORD PTR [ecx+4]
  00009	73 09		 jae	 SHORT $LN3@Inside
  0000b	39 01		 cmp	 DWORD PTR [ecx], eax
  0000d	77 05		 ja	 SHORT $LN3@Inside
  0000f	33 c0		 xor	 eax, eax
  00011	40		 inc	 eax
  00012	eb 02		 jmp	 SHORT $LN4@Inside
$LN3@Inside:
  00014	33 c0		 xor	 eax, eax
$LN4@Inside:

; 1287 : 		}

  00016	5d		 pop	 ebp
  00017	c2 04 00	 ret	 4
?_Inside@?$vector@HV?$allocator@H@std@@@std@@IBE_NPBH@Z ENDP ; std::vector<int,std::allocator<int> >::_Inside
_TEXT	ENDS
PUBLIC	?_Orphan_range@?$vector@HV?$allocator@H@std@@@std@@IBEXPAH0@Z ; std::vector<int,std::allocator<int> >::_Orphan_range
; Function compile flags: /Ogsp
;	COMDAT ?_Orphan_range@?$vector@HV?$allocator@H@std@@@std@@IBEXPAH0@Z
_TEXT	SEGMENT
___formal$ = 8						; size = 4
___formal$ = 12						; size = 4
?_Orphan_range@?$vector@HV?$allocator@H@std@@@std@@IBEXPAH0@Z PROC ; std::vector<int,std::allocator<int> >::_Orphan_range, COMDAT
; _this$ = ecx

; 1454 : 		}

  00000	c2 08 00	 ret	 8
?_Orphan_range@?$vector@HV?$allocator@H@std@@@std@@IBEXPAH0@Z ENDP ; std::vector<int,std::allocator<int> >::_Orphan_range
_TEXT	ENDS
PUBLIC	?_Inside@?$vector@URentalData@@V?$allocator@URentalData@@@std@@@std@@IBE_NPBURentalData@@@Z ; std::vector<RentalData,std::allocator<RentalData> >::_Inside
; Function compile flags: /Ogsp
;	COMDAT ?_Inside@?$vector@URentalData@@V?$allocator@URentalData@@@std@@@std@@IBE_NPBURentalData@@@Z
_TEXT	SEGMENT
__Ptr$ = 8						; size = 4
?_Inside@?$vector@URentalData@@V?$allocator@URentalData@@@std@@@std@@IBE_NPBURentalData@@@Z PROC ; std::vector<RentalData,std::allocator<RentalData> >::_Inside, COMDAT
; _this$ = ecx

; 1285 : 		{	// test if _Ptr points inside vector

  00000	55		 push	 ebp
  00001	8b ec		 mov	 ebp, esp

; 1286 : 		return (_Ptr < this->_Mylast && this->_Myfirst <= _Ptr);

  00003	8b 45 08	 mov	 eax, DWORD PTR __Ptr$[ebp]
  00006	3b 41 04	 cmp	 eax, DWORD PTR [ecx+4]
  00009	73 09		 jae	 SHORT $LN3@Inside@2
  0000b	39 01		 cmp	 DWORD PTR [ecx], eax
  0000d	77 05		 ja	 SHORT $LN3@Inside@2
  0000f	33 c0		 xor	 eax, eax
  00011	40		 inc	 eax
  00012	eb 02		 jmp	 SHORT $LN4@Inside@2
$LN3@Inside@2:
  00014	33 c0		 xor	 eax, eax
$LN4@Inside@2:

; 1287 : 		}

  00016	5d		 pop	 ebp
  00017	c2 04 00	 ret	 4
?_Inside@?$vector@URentalData@@V?$allocator@URentalData@@@std@@@std@@IBE_NPBURentalData@@@Z ENDP ; std::vector<RentalData,std::allocator<RentalData> >::_Inside
_TEXT	ENDS
PUBLIC	?_Orphan_range@?$vector@URentalData@@V?$allocator@URentalData@@@std@@@std@@IBEXPAURentalData@@0@Z ; std::vector<RentalData,std::allocator<RentalData> >::_Orphan_range
; Function compile flags: /Ogsp
;	COMDAT ?_Orphan_range@?$vector@URentalData@@V?$allocator@URentalData@@@std@@@std@@IBEXPAURentalData@@0@Z
_TEXT	SEGMENT
___formal$ = 8						; size = 4
___formal$ = 12						; size = 4
?_Orphan_range@?$vector@URentalData@@V?$allocator@URentalData@@@std@@@std@@IBEXPAURentalData@@0@Z PROC ; std::vector<RentalData,std::allocator<RentalData> >::_Orphan_range, COMDAT
; _this$ = ecx

; 1454 : 		}

  00000	c2 08 00	 ret	 8
?_Orphan_range@?$vector@URentalData@@V?$allocator@URentalData@@@std@@@std@@IBEXPAURentalData@@0@Z ENDP ; std::vector<RentalData,std::allocator<RentalData> >::_Orphan_range
_TEXT	ENDS
PUBLIC	??1?$_Vector_val@URentalData@@V?$allocator@URentalData@@@std@@@std@@QAE@XZ ; std::_Vector_val<RentalData,std::allocator<RentalData> >::~_Vector_val<RentalData,std::allocator<RentalData> >
; Function compile flags: /Ogsp
;	COMDAT ??1?$_Vector_val@URentalData@@V?$allocator@URentalData@@@std@@@std@@QAE@XZ
_TEXT	SEGMENT
??1?$_Vector_val@URentalData@@V?$allocator@URentalData@@@std@@@std@@QAE@XZ PROC ; std::_Vector_val<RentalData,std::allocator<RentalData> >::~_Vector_val<RentalData,std::allocator<RentalData> >, COMDAT
; _this$ = ecx

; 434  : 		}

  00000	c3		 ret	 0
??1?$_Vector_val@URentalData@@V?$allocator@URentalData@@@std@@@std@@QAE@XZ ENDP ; std::_Vector_val<RentalData,std::allocator<RentalData> >::~_Vector_val<RentalData,std::allocator<RentalData> >
_TEXT	ENDS
PUBLIC	??0?$allocator@URentalData@@@std@@QAE@XZ	; std::allocator<RentalData>::allocator<RentalData>
; Function compile flags: /Ogsp
; File c:\program files (x86)\microsoft visual studio 10.0\vc\include\xmemory
;	COMDAT ??0?$allocator@URentalData@@@std@@QAE@XZ
_TEXT	SEGMENT
??0?$allocator@URentalData@@@std@@QAE@XZ PROC		; std::allocator<RentalData>::allocator<RentalData>, COMDAT
; _this$ = ecx

; 161  : 	_ALLOCATOR() _THROW0()

  00000	8b c1		 mov	 eax, ecx

; 162  : 		{	// construct default allocator (do nothing)
; 163  : 		}

  00002	c3		 ret	 0
??0?$allocator@URentalData@@@std@@QAE@XZ ENDP		; std::allocator<RentalData>::allocator<RentalData>
_TEXT	ENDS
PUBLIC	??D?$_Vector_const_iterator@V?$_Vector_val@URentalData@@V?$allocator@URentalData@@@std@@@std@@@std@@QBEABURentalData@@XZ ; std::_Vector_const_iterator<std::_Vector_val<RentalData,std::allocator<RentalData> > >::operator*
; Function compile flags: /Ogsp
; File c:\program files (x86)\microsoft visual studio 10.0\vc\include\vector
;	COMDAT ??D?$_Vector_const_iterator@V?$_Vector_val@URentalData@@V?$allocator@URentalData@@@std@@@std@@@std@@QBEABURentalData@@XZ
_TEXT	SEGMENT
??D?$_Vector_const_iterator@V?$_Vector_val@URentalData@@V?$allocator@URentalData@@@std@@@std@@@std@@QBEABURentalData@@XZ PROC ; std::_Vector_const_iterator<std::_Vector_val<RentalData,std::allocator<RentalData> > >::operator*, COMDAT
; _this$ = ecx

; 64   :  #if _ITERATOR_DEBUG_LEVEL == 2
; 65   : 		if (this->_Getcont() == 0
; 66   : 			|| this->_Ptr == 0
; 67   : 			|| this->_Ptr < ((_Myvec *)this->_Getcont())->_Myfirst
; 68   : 			|| ((_Myvec *)this->_Getcont())->_Mylast <= this->_Ptr)
; 69   : 			{	// report error
; 70   : 			_DEBUG_ERROR("vector iterator not dereferencable");
; 71   : 			_SCL_SECURE_OUT_OF_RANGE;
; 72   : 			}
; 73   : 
; 74   :  #elif _ITERATOR_DEBUG_LEVEL == 1
; 75   : 		_SCL_SECURE_VALIDATE(this->_Getcont() != 0);
; 76   : 		_SCL_SECURE_VALIDATE_RANGE(
; 77   : 			this->_Ptr != 0
; 78   : 			&& ((_Myvec *)this->_Getcont())->_Myfirst <= this->_Ptr
; 79   : 			&& this->_Ptr < ((_Myvec *)this->_Getcont())->_Mylast);
; 80   :  #endif /* _ITERATOR_DEBUG_LEVEL */
; 81   : 
; 82   : 		__analysis_assume(this->_Ptr != 0);
; 83   : 
; 84   : 		return (*this->_Ptr);

  00000	8b 01		 mov	 eax, DWORD PTR [ecx]

; 85   : 		}

  00002	c3		 ret	 0
??D?$_Vector_const_iterator@V?$_Vector_val@URentalData@@V?$allocator@URentalData@@@std@@@std@@@std@@QBEABURentalData@@XZ ENDP ; std::_Vector_const_iterator<std::_Vector_val<RentalData,std::allocator<RentalData> > >::operator*
_TEXT	ENDS
PUBLIC	??E?$_Vector_const_iterator@V?$_Vector_val@URentalData@@V?$allocator@URentalData@@@std@@@std@@@std@@QAEAAV01@XZ ; std::_Vector_const_iterator<std::_Vector_val<RentalData,std::allocator<RentalData> > >::operator++
; Function compile flags: /Ogsp
;	COMDAT ??E?$_Vector_const_iterator@V?$_Vector_val@URentalData@@V?$allocator@URentalData@@@std@@@std@@@std@@QAEAAV01@XZ
_TEXT	SEGMENT
??E?$_Vector_const_iterator@V?$_Vector_val@URentalData@@V?$allocator@URentalData@@@std@@@std@@@std@@QAEAAV01@XZ PROC ; std::_Vector_const_iterator<std::_Vector_val<RentalData,std::allocator<RentalData> > >::operator++, COMDAT
; _this$ = ecx

; 93   : 		{	// preincrement

  00000	8b c1		 mov	 eax, ecx

; 94   :  #if _ITERATOR_DEBUG_LEVEL == 2
; 95   : 		if (this->_Getcont() == 0
; 96   : 			|| this->_Ptr == 0
; 97   : 			|| ((_Myvec *)this->_Getcont())->_Mylast <= this->_Ptr)
; 98   : 			{	// report error
; 99   : 			_DEBUG_ERROR("vector iterator not incrementable");
; 100  : 			_SCL_SECURE_OUT_OF_RANGE;
; 101  : 			}
; 102  : 
; 103  :  #elif _ITERATOR_DEBUG_LEVEL == 1
; 104  : 		_SCL_SECURE_VALIDATE(this->_Getcont() != 0);
; 105  : 		_SCL_SECURE_VALIDATE_RANGE(
; 106  : 			this->_Ptr != 0
; 107  : 			&& this->_Ptr < ((_Myvec *)this->_Getcont())->_Mylast);
; 108  :  #endif /* _ITERATOR_DEBUG_LEVEL */
; 109  : 
; 110  : 		++this->_Ptr;

  00002	81 00 f0 00 00
	00		 add	 DWORD PTR [eax], 240	; 000000f0H

; 111  : 		return (*this);
; 112  : 		}

  00008	c3		 ret	 0
??E?$_Vector_const_iterator@V?$_Vector_val@URentalData@@V?$allocator@URentalData@@@std@@@std@@@std@@QAEAAV01@XZ ENDP ; std::_Vector_const_iterator<std::_Vector_val<RentalData,std::allocator<RentalData> > >::operator++
_TEXT	ENDS
PUBLIC	?capacity@?$vector@URentalData@@V?$allocator@URentalData@@@std@@@std@@QBEIXZ ; std::vector<RentalData,std::allocator<RentalData> >::capacity
; Function compile flags: /Ogsp
;	COMDAT ?capacity@?$vector@URentalData@@V?$allocator@URentalData@@@std@@@std@@QBEIXZ
_TEXT	SEGMENT
?capacity@?$vector@URentalData@@V?$allocator@URentalData@@@std@@@std@@QBEIXZ PROC ; std::vector<RentalData,std::allocator<RentalData> >::capacity, COMDAT
; _this$ = ecx

; 777  : 		return (this->_Myend - this->_Myfirst);

  00000	8b 41 08	 mov	 eax, DWORD PTR [ecx+8]
  00003	2b 01		 sub	 eax, DWORD PTR [ecx]
  00005	b9 f0 00 00 00	 mov	 ecx, 240		; 000000f0H
  0000a	99		 cdq
  0000b	f7 f9		 idiv	 ecx

; 778  : 		}

  0000d	c3		 ret	 0
?capacity@?$vector@URentalData@@V?$allocator@URentalData@@@std@@@std@@QBEIXZ ENDP ; std::vector<RentalData,std::allocator<RentalData> >::capacity
_TEXT	ENDS
PUBLIC	?size@?$vector@URentalData@@V?$allocator@URentalData@@@std@@@std@@QBEIXZ ; std::vector<RentalData,std::allocator<RentalData> >::size
; Function compile flags: /Ogsp
;	COMDAT ?size@?$vector@URentalData@@V?$allocator@URentalData@@@std@@@std@@QBEIXZ
_TEXT	SEGMENT
?size@?$vector@URentalData@@V?$allocator@URentalData@@@std@@@std@@QBEIXZ PROC ; std::vector<RentalData,std::allocator<RentalData> >::size, COMDAT
; _this$ = ecx

; 879  : 		return (this->_Mylast - this->_Myfirst);

  00000	8b 41 04	 mov	 eax, DWORD PTR [ecx+4]
  00003	2b 01		 sub	 eax, DWORD PTR [ecx]
  00005	b9 f0 00 00 00	 mov	 ecx, 240		; 000000f0H
  0000a	99		 cdq
  0000b	f7 f9		 idiv	 ecx

; 880  : 		}

  0000d	c3		 ret	 0
?size@?$vector@URentalData@@V?$allocator@URentalData@@@std@@@std@@QBEIXZ ENDP ; std::vector<RentalData,std::allocator<RentalData> >::size
_TEXT	ENDS
PUBLIC	??_C@_0BD@OLBABOEK@vector?$DMT?$DO?5too?5long?$AA@ ; `string'
PUBLIC	?_Xlen@?$vector@URentalData@@V?$allocator@URentalData@@@std@@@std@@IBEXXZ ; std::vector<RentalData,std::allocator<RentalData> >::_Xlen
EXTRN	__imp_?_Xlength_error@std@@YAXPBD@Z:PROC
;	COMDAT ??_C@_0BD@OLBABOEK@vector?$DMT?$DO?5too?5long?$AA@
CONST	SEGMENT
??_C@_0BD@OLBABOEK@vector?$DMT?$DO?5too?5long?$AA@ DB 'vector<T> too long'
	DB	00H						; `string'
; Function compile flags: /Ogsp
CONST	ENDS
;	COMDAT ?_Xlen@?$vector@URentalData@@V?$allocator@URentalData@@@std@@@std@@IBEXXZ
_TEXT	SEGMENT
?_Xlen@?$vector@URentalData@@V?$allocator@URentalData@@@std@@@std@@IBEXXZ PROC ; std::vector<RentalData,std::allocator<RentalData> >::_Xlen, COMDAT
; _this$ = ecx

; 1427 : 		_Xlength_error("vector<T> too long");

  00000	68 00 00 00 00	 push	 OFFSET ??_C@_0BD@OLBABOEK@vector?$DMT?$DO?5too?5long?$AA@
  00005	ff 15 00 00 00
	00		 call	 DWORD PTR __imp_?_Xlength_error@std@@YAXPBD@Z
$LN4@Xlen:
$LN3@Xlen:
  0000b	cc		 int	 3
?_Xlen@?$vector@URentalData@@V?$allocator@URentalData@@@std@@@std@@IBEXXZ ENDP ; std::vector<RentalData,std::allocator<RentalData> >::_Xlen
_TEXT	ENDS
PUBLIC	??0?$allocator@URentalData@@@std@@QAE@ABV01@@Z	; std::allocator<RentalData>::allocator<RentalData>
; Function compile flags: /Ogsp
; File c:\program files (x86)\microsoft visual studio 10.0\vc\include\xmemory
;	COMDAT ??0?$allocator@URentalData@@@std@@QAE@ABV01@@Z
_TEXT	SEGMENT
___formal$ = 8						; size = 4
??0?$allocator@URentalData@@@std@@QAE@ABV01@@Z PROC	; std::allocator<RentalData>::allocator<RentalData>, COMDAT
; _this$ = ecx

; 165  : 	_ALLOCATOR(const _ALLOCATOR<_Ty>&) _THROW0()

  00000	8b c1		 mov	 eax, ecx

; 166  : 		{	// construct by copying (do nothing)
; 167  : 		}

  00002	c2 04 00	 ret	 4
??0?$allocator@URentalData@@@std@@QAE@ABV01@@Z ENDP	; std::allocator<RentalData>::allocator<RentalData>
_TEXT	ENDS
PUBLIC	?deallocate@?$allocator@URentalData@@@std@@QAEXPAURentalData@@I@Z ; std::allocator<RentalData>::deallocate
; Function compile flags: /Ogsp
;	COMDAT ?deallocate@?$allocator@URentalData@@@std@@QAEXPAURentalData@@I@Z
_TEXT	SEGMENT
__Ptr$ = 8						; size = 4
___formal$ = 12						; size = 4
?deallocate@?$allocator@URentalData@@@std@@QAEXPAURentalData@@I@Z PROC ; std::allocator<RentalData>::deallocate, COMDAT
; _this$ = ecx

; 181  : 		{	// deallocate object at _Ptr, ignore size

  00000	55		 push	 ebp
  00001	8b ec		 mov	 ebp, esp

; 182  : 		::operator delete(_Ptr);

  00003	ff 75 08	 push	 DWORD PTR __Ptr$[ebp]
  00006	e8 00 00 00 00	 call	 ??3@YAXPAX@Z		; operator delete
  0000b	59		 pop	 ecx

; 183  : 		}

  0000c	5d		 pop	 ebp
  0000d	c2 08 00	 ret	 8
?deallocate@?$allocator@URentalData@@@std@@QAEXPAURentalData@@I@Z ENDP ; std::allocator<RentalData>::deallocate
_TEXT	ENDS
PUBLIC	?_Compat@?$_Vector_const_iterator@V?$_Vector_val@URentalData@@V?$allocator@URentalData@@@std@@@std@@@std@@QBEXABV12@@Z ; std::_Vector_const_iterator<std::_Vector_val<RentalData,std::allocator<RentalData> > >::_Compat
; Function compile flags: /Ogsp
; File c:\program files (x86)\microsoft visual studio 10.0\vc\include\vector
;	COMDAT ?_Compat@?$_Vector_const_iterator@V?$_Vector_val@URentalData@@V?$allocator@URentalData@@@std@@@std@@@std@@QBEXABV12@@Z
_TEXT	SEGMENT
___formal$ = 8						; size = 4
?_Compat@?$_Vector_const_iterator@V?$_Vector_val@URentalData@@V?$allocator@URentalData@@@std@@@std@@@std@@QBEXABV12@@Z PROC ; std::_Vector_const_iterator<std::_Vector_val<RentalData,std::allocator<RentalData> > >::_Compat, COMDAT
; _this$ = ecx

; 253  : 		}

  00000	c2 04 00	 ret	 4
?_Compat@?$_Vector_const_iterator@V?$_Vector_val@URentalData@@V?$allocator@URentalData@@@std@@@std@@@std@@QBEXABV12@@Z ENDP ; std::_Vector_const_iterator<std::_Vector_val<RentalData,std::allocator<RentalData> > >::_Compat
_TEXT	ENDS
PUBLIC	?max_size@?$allocator@URentalData@@@std@@QBEIXZ	; std::allocator<RentalData>::max_size
; Function compile flags: /Ogsp
; File c:\program files (x86)\microsoft visual studio 10.0\vc\include\xmemory
;	COMDAT ?max_size@?$allocator@URentalData@@@std@@QBEIXZ
_TEXT	SEGMENT
?max_size@?$allocator@URentalData@@@std@@QBEIXZ PROC	; std::allocator<RentalData>::max_size, COMDAT
; _this$ = ecx

; 218  : 		_SIZT _Count = (_SIZT)(-1) / sizeof (_Ty);
; 219  : 		return (0 < _Count ? _Count : 1);

  00000	b8 11 11 11 01	 mov	 eax, 17895697		; 01111111H

; 220  : 		}

  00005	c3		 ret	 0
?max_size@?$allocator@URentalData@@@std@@QBEIXZ ENDP	; std::allocator<RentalData>::max_size
_TEXT	ENDS
PUBLIC	??$addressof@$$CBH@std@@YAPBHABH@Z		; std::addressof<int const >
; Function compile flags: /Ogsp
;	COMDAT ??$addressof@$$CBH@std@@YAPBHABH@Z
_TEXT	SEGMENT
__Val$ = 8						; size = 4
??$addressof@$$CBH@std@@YAPBHABH@Z PROC			; std::addressof<int const >, COMDAT

; 110  : 	{	// return address of _Val

  00000	55		 push	 ebp
  00001	8b ec		 mov	 ebp, esp

; 111  : 	return ((_Ty *) &(char&)_Val);

  00003	8b 45 08	 mov	 eax, DWORD PTR __Val$[ebp]

; 112  : 	}

  00006	5d		 pop	 ebp
  00007	c3		 ret	 0
??$addressof@$$CBH@std@@YAPBHABH@Z ENDP			; std::addressof<int const >
_TEXT	ENDS
PUBLIC	??$addressof@$$CBURentalData@@@std@@YAPBURentalData@@ABU1@@Z ; std::addressof<RentalData const >
; Function compile flags: /Ogsp
;	COMDAT ??$addressof@$$CBURentalData@@@std@@YAPBURentalData@@ABU1@@Z
_TEXT	SEGMENT
__Val$ = 8						; size = 4
??$addressof@$$CBURentalData@@@std@@YAPBURentalData@@ABU1@@Z PROC ; std::addressof<RentalData const >, COMDAT

; 110  : 	{	// return address of _Val

  00000	55		 push	 ebp
  00001	8b ec		 mov	 ebp, esp

; 111  : 	return ((_Ty *) &(char&)_Val);

  00003	8b 45 08	 mov	 eax, DWORD PTR __Val$[ebp]

; 112  : 	}

  00006	5d		 pop	 ebp
  00007	c3		 ret	 0
??$addressof@$$CBURentalData@@@std@@YAPBURentalData@@ABU1@@Z ENDP ; std::addressof<RentalData const >
_TEXT	ENDS
PUBLIC	__TI2?AVbad_alloc@std@@
PUBLIC	??$_Allocate@URentalData@@@std@@YAPAURentalData@@IPAU1@@Z ; std::_Allocate<RentalData>
PUBLIC	__CTA2?AVbad_alloc@std@@
PUBLIC	__CT??_R0?AVbad_alloc@std@@@8??0bad_alloc@std@@QAE@ABV01@@Z12
PUBLIC	??0bad_alloc@std@@QAE@ABV01@@Z			; std::bad_alloc::bad_alloc
PUBLIC	__CT??_R0?AVexception@std@@@8??0exception@std@@QAE@ABV01@@Z12
EXTRN	??2@YAPAXI@Z:PROC				; operator new
EXTRN	__CxxThrowException@8:PROC
EXTRN	??0exception@std@@QAE@ABV01@@Z:PROC		; std::exception::exception
;	COMDAT __CT??_R0?AVexception@std@@@8??0exception@std@@QAE@ABV01@@Z12
; File c:\program files (x86)\microsoft visual studio 10.0\vc\include\exception
xdata$x	SEGMENT
__CT??_R0?AVexception@std@@@8??0exception@std@@QAE@ABV01@@Z12 DD 00H
	DD	FLAT:??_R0?AVexception@std@@@8
	DD	00H
	DD	0ffffffffH
	ORG $+4
	DD	0cH
	DD	FLAT:??0exception@std@@QAE@ABV01@@Z
xdata$x	ENDS
;	COMDAT __CT??_R0?AVbad_alloc@std@@@8??0bad_alloc@std@@QAE@ABV01@@Z12
xdata$x	SEGMENT
__CT??_R0?AVbad_alloc@std@@@8??0bad_alloc@std@@QAE@ABV01@@Z12 DD 00H
	DD	FLAT:??_R0?AVbad_alloc@std@@@8
	DD	00H
	DD	0ffffffffH
	ORG $+4
	DD	0cH
	DD	FLAT:??0bad_alloc@std@@QAE@ABV01@@Z
xdata$x	ENDS
;	COMDAT __CTA2?AVbad_alloc@std@@
xdata$x	SEGMENT
__CTA2?AVbad_alloc@std@@ DD 02H
	DD	FLAT:__CT??_R0?AVbad_alloc@std@@@8??0bad_alloc@std@@QAE@ABV01@@Z12
	DD	FLAT:__CT??_R0?AVexception@std@@@8??0exception@std@@QAE@ABV01@@Z12
xdata$x	ENDS
;	COMDAT __TI2?AVbad_alloc@std@@
xdata$x	SEGMENT
__TI2?AVbad_alloc@std@@ DD 00H
	DD	FLAT:??1bad_alloc@std@@UAE@XZ
	DD	00H
	DD	FLAT:__CTA2?AVbad_alloc@std@@
; Function compile flags: /Ogsp
; File c:\program files (x86)\microsoft visual studio 10.0\vc\include\xmemory
xdata$x	ENDS
;	COMDAT ??$_Allocate@URentalData@@@std@@YAPAURentalData@@IPAU1@@Z
_TEXT	SEGMENT
$T511597 = -12						; size = 12
$T511602 = 8						; size = 4
__Count$ = 8						; size = 4
___formal$ = 12						; size = 4
??$_Allocate@URentalData@@@std@@YAPAURentalData@@IPAU1@@Z PROC ; std::_Allocate<RentalData>, COMDAT

; 30   : 	{	// allocate storage for _Count elements of type _Ty

  00000	55		 push	 ebp
  00001	8b ec		 mov	 ebp, esp

; 31   : 	void *_Ptr = 0;
; 32   : 
; 33   : 	if (_Count <= 0)

  00003	8b 4d 08	 mov	 ecx, DWORD PTR __Count$[ebp]
  00006	83 ec 0c	 sub	 esp, 12			; 0000000cH
  00009	33 c0		 xor	 eax, eax
  0000b	85 c9		 test	 ecx, ecx

; 34   : 		_Count = 0;
; 35   : 	else if (((_SIZT)(-1) / sizeof (_Ty) < _Count)

  0000d	74 3f		 je	 SHORT $LN5@Allocate

; 36   : 		|| (_Ptr = ::operator new(_Count * sizeof (_Ty))) == 0)

  0000f	81 f9 11 11 11
	01		 cmp	 ecx, 17895697		; 01111111H
  00015	77 11		 ja	 SHORT $LN1@Allocate
  00017	69 c9 f0 00 00
	00		 imul	 ecx, 240		; 000000f0H
  0001d	51		 push	 ecx
  0001e	e8 00 00 00 00	 call	 ??2@YAPAXI@Z		; operator new
  00023	59		 pop	 ecx
  00024	85 c0		 test	 eax, eax

; 38   : 
; 39   : 	return ((_Ty _FARQ *)_Ptr);

  00026	75 26		 jne	 SHORT $LN5@Allocate
$LN1@Allocate:

; 37   : 		_THROW_NCEE(bad_alloc, 0);

  00028	83 65 08 00	 and	 DWORD PTR $T511602[ebp], 0
  0002c	8d 45 08	 lea	 eax, DWORD PTR $T511602[ebp]
  0002f	50		 push	 eax
  00030	8d 4d f4	 lea	 ecx, DWORD PTR $T511597[ebp]
  00033	ff 15 00 00 00
	00		 call	 DWORD PTR __imp_??0exception@std@@QAE@ABQBD@Z
  00039	68 00 00 00 00	 push	 OFFSET __TI2?AVbad_alloc@std@@
  0003e	8d 45 f4	 lea	 eax, DWORD PTR $T511597[ebp]
  00041	50		 push	 eax
  00042	c7 45 f4 00 00
	00 00		 mov	 DWORD PTR $T511597[ebp], OFFSET ??_7bad_alloc@std@@6B@
  00049	e8 00 00 00 00	 call	 __CxxThrowException@8
$LN10@Allocate:
$LN5@Allocate:

; 40   : 	}

  0004e	c9		 leave
  0004f	c3		 ret	 0
$LN9@Allocate:
??$_Allocate@URentalData@@@std@@YAPAURentalData@@IPAU1@@Z ENDP ; std::_Allocate<RentalData>
_TEXT	ENDS
PUBLIC	??$forward@ABH@std@@YAABHABH@Z			; std::forward<int const &>
; Function compile flags: /Ogsp
; File c:\program files (x86)\microsoft visual studio 10.0\vc\include\utility
;	COMDAT ??$forward@ABH@std@@YAABHABH@Z
_TEXT	SEGMENT
__Arg$ = 8						; size = 4
??$forward@ABH@std@@YAABHABH@Z PROC			; std::forward<int const &>, COMDAT

; 78   : 	{	// forward _Arg, given explicitly specified type parameter

  00000	55		 push	 ebp
  00001	8b ec		 mov	 ebp, esp

; 79   : 	return ((_Ty&&)_Arg);

  00003	8b 45 08	 mov	 eax, DWORD PTR __Arg$[ebp]

; 80   : 	}

  00006	5d		 pop	 ebp
  00007	c3		 ret	 0
??$forward@ABH@std@@YAABHABH@Z ENDP			; std::forward<int const &>
_TEXT	ENDS
PUBLIC	??$forward@AAURentalData@@@std@@YAAAURentalData@@AAU1@@Z ; std::forward<RentalData &>
; Function compile flags: /Ogsp
;	COMDAT ??$forward@AAURentalData@@@std@@YAAAURentalData@@AAU1@@Z
_TEXT	SEGMENT
__Arg$ = 8						; size = 4
??$forward@AAURentalData@@@std@@YAAAURentalData@@AAU1@@Z PROC ; std::forward<RentalData &>, COMDAT

; 78   : 	{	// forward _Arg, given explicitly specified type parameter

  00000	55		 push	 ebp
  00001	8b ec		 mov	 ebp, esp

; 79   : 	return ((_Ty&&)_Arg);

  00003	8b 45 08	 mov	 eax, DWORD PTR __Arg$[ebp]

; 80   : 	}

  00006	5d		 pop	 ebp
  00007	c3		 ret	 0
??$forward@AAURentalData@@@std@@YAAAURentalData@@AAU1@@Z ENDP ; std::forward<RentalData &>
_TEXT	ENDS
PUBLIC	?_Adopt@_Iterator_base0@std@@QAEXPBX@Z		; std::_Iterator_base0::_Adopt
; Function compile flags: /Ogsp
; File c:\program files (x86)\microsoft visual studio 10.0\vc\include\xutility
;	COMDAT ?_Adopt@_Iterator_base0@std@@QAEXPBX@Z
_TEXT	SEGMENT
___formal$ = 8						; size = 4
?_Adopt@_Iterator_base0@std@@QAEXPBX@Z PROC		; std::_Iterator_base0::_Adopt, COMDAT
; _this$ = ecx

; 49   : 		}

  00000	c2 04 00	 ret	 4
?_Adopt@_Iterator_base0@std@@QAEXPBX@Z ENDP		; std::_Iterator_base0::_Adopt
_TEXT	ENDS
PUBLIC	??$forward@ABURentalData@@@std@@YAABURentalData@@ABU1@@Z ; std::forward<RentalData const &>
; Function compile flags: /Ogsp
; File c:\program files (x86)\microsoft visual studio 10.0\vc\include\utility
;	COMDAT ??$forward@ABURentalData@@@std@@YAABURentalData@@ABU1@@Z
_TEXT	SEGMENT
__Arg$ = 8						; size = 4
??$forward@ABURentalData@@@std@@YAABURentalData@@ABU1@@Z PROC ; std::forward<RentalData const &>, COMDAT

; 78   : 	{	// forward _Arg, given explicitly specified type parameter

  00000	55		 push	 ebp
  00001	8b ec		 mov	 ebp, esp

; 79   : 	return ((_Ty&&)_Arg);

  00003	8b 45 08	 mov	 eax, DWORD PTR __Arg$[ebp]

; 80   : 	}

  00006	5d		 pop	 ebp
  00007	c3		 ret	 0
??$forward@ABURentalData@@@std@@YAABURentalData@@ABU1@@Z ENDP ; std::forward<RentalData const &>
_TEXT	ENDS
PUBLIC	??$_Ptr_cat@URentalData@@U1@@std@@YA?AU_Nonscalar_ptr_iterator_tag@0@PAURentalData@@0@Z ; std::_Ptr_cat<RentalData,RentalData>
; Function compile flags: /Ogsp
; File c:\program files (x86)\microsoft visual studio 10.0\vc\include\xutility
;	COMDAT ??$_Ptr_cat@URentalData@@U1@@std@@YA?AU_Nonscalar_ptr_iterator_tag@0@PAURentalData@@0@Z
_TEXT	SEGMENT
__Cat$ = -1						; size = 1
___formal$ = 8						; size = 4
___formal$ = 12						; size = 4
??$_Ptr_cat@URentalData@@U1@@std@@YA?AU_Nonscalar_ptr_iterator_tag@0@PAURentalData@@0@Z PROC ; std::_Ptr_cat<RentalData,RentalData>, COMDAT

; 516  : 	{	// return pointer category from pointers

  00000	55		 push	 ebp
  00001	8b ec		 mov	 ebp, esp
  00003	51		 push	 ecx

; 517  : 	typename _Ptr_cat_helper<_Elem1, _Elem2>::_Type _Cat;
; 518  : 	return (_Cat);

  00004	8a 45 ff	 mov	 al, BYTE PTR __Cat$[ebp]

; 519  : 	}

  00007	c9		 leave
  00008	c3		 ret	 0
??$_Ptr_cat@URentalData@@U1@@std@@YA?AU_Nonscalar_ptr_iterator_tag@0@PAURentalData@@0@Z ENDP ; std::_Ptr_cat<RentalData,RentalData>
_TEXT	ENDS
PUBLIC	??$_Construct@HABH@std@@YAXPAHABH@Z		; std::_Construct<int,int const &>
; Function compile flags: /Ogsp
; File c:\program files (x86)\microsoft visual studio 10.0\vc\include\xmemory
;	COMDAT ??$_Construct@HABH@std@@YAXPAHABH@Z
_TEXT	SEGMENT
__Ptr$ = 8						; size = 4
__Val$ = 12						; size = 4
??$_Construct@HABH@std@@YAXPAHABH@Z PROC		; std::_Construct<int,int const &>, COMDAT

; 46   : 	{	// construct object at _Ptr with value _Val

  00000	55		 push	 ebp
  00001	8b ec		 mov	 ebp, esp

; 47   : 	void _FARQ *_Vptr = _Ptr;
; 48   : 	::new (_Vptr) _Ty1(_STD forward<_Ty2>(_Val));

  00003	8b 45 08	 mov	 eax, DWORD PTR __Ptr$[ebp]
  00006	85 c0		 test	 eax, eax
  00008	74 07		 je	 SHORT $LN3@Construct
  0000a	8b 4d 0c	 mov	 ecx, DWORD PTR __Val$[ebp]
  0000d	8b 09		 mov	 ecx, DWORD PTR [ecx]
  0000f	89 08		 mov	 DWORD PTR [eax], ecx
$LN3@Construct:

; 49   : 	}

  00011	5d		 pop	 ebp
  00012	c3		 ret	 0
??$_Construct@HABH@std@@YAXPAHABH@Z ENDP		; std::_Construct<int,int const &>
_TEXT	ENDS
PUBLIC	??__G@YGXPAX0IHP6EPAX00@Z@Z			; `vector copy constructor iterator'
; Function compile flags: /Ogsp
;	COMDAT ??__G@YGXPAX0IHP6EPAX00@Z@Z
_TEXT	SEGMENT
___t$ = 8						; size = 4
___u$ = 12						; size = 4
___s$ = 16						; size = 4
___n$ = 20						; size = 4
___f$ = 24						; size = 4
??__G@YGXPAX0IHP6EPAX00@Z@Z PROC			; `vector copy constructor iterator', COMDAT
  00000	55		 push	 ebp
  00001	8b ec		 mov	 ebp, esp
  00003	ff 4d 14	 dec	 DWORD PTR ___n$[ebp]
  00006	78 1b		 js	 SHORT $LN1@vector
  00008	56		 push	 esi
  00009	8b 75 0c	 mov	 esi, DWORD PTR ___u$[ebp]
  0000c	57		 push	 edi
  0000d	8b 7d 08	 mov	 edi, DWORD PTR ___t$[ebp]
  00010	2b fe		 sub	 edi, esi
$LL2@vector:
  00012	56		 push	 esi
  00013	8d 0c 37	 lea	 ecx, DWORD PTR [edi+esi]
  00016	ff 55 18	 call	 DWORD PTR ___f$[ebp]
  00019	03 75 10	 add	 esi, DWORD PTR ___s$[ebp]
  0001c	ff 4d 14	 dec	 DWORD PTR ___n$[ebp]
  0001f	79 f1		 jns	 SHORT $LL2@vector
  00021	5f		 pop	 edi
  00022	5e		 pop	 esi
$LN1@vector:
  00023	5d		 pop	 ebp
  00024	c2 14 00	 ret	 20			; 00000014H
??__G@YGXPAX0IHP6EPAX00@Z@Z ENDP			; `vector copy constructor iterator'
_TEXT	ENDS
PUBLIC	??$move@AAURentalData@@@std@@YA$$QAURentalData@@AAU1@@Z ; std::move<RentalData &>
; Function compile flags: /Ogsp
; File c:\program files (x86)\microsoft visual studio 10.0\vc\include\utility
;	COMDAT ??$move@AAURentalData@@@std@@YA$$QAURentalData@@AAU1@@Z
_TEXT	SEGMENT
__Arg$ = 8						; size = 4
??$move@AAURentalData@@@std@@YA$$QAURentalData@@AAU1@@Z PROC ; std::move<RentalData &>, COMDAT

; 86   : 	{	// forward _Arg as movable

  00000	55		 push	 ebp
  00001	8b ec		 mov	 ebp, esp

; 87   : 	return ((typename tr1::_Remove_reference<_Ty>::_Type&&)_Arg);

  00003	8b 45 08	 mov	 eax, DWORD PTR __Arg$[ebp]

; 88   : 	}

  00006	5d		 pop	 ebp
  00007	c3		 ret	 0
??$move@AAURentalData@@@std@@YA$$QAURentalData@@AAU1@@Z ENDP ; std::move<RentalData &>
_TEXT	ENDS
PUBLIC	??$_Val_type@PAURentalData@@@std@@YAPAURentalData@@PAU1@@Z ; std::_Val_type<RentalData *>
; Function compile flags: /Ogsp
; File c:\program files (x86)\microsoft visual studio 10.0\vc\include\xutility
;	COMDAT ??$_Val_type@PAURentalData@@@std@@YAPAURentalData@@PAU1@@Z
_TEXT	SEGMENT
___formal$ = 8						; size = 4
??$_Val_type@PAURentalData@@@std@@YAPAURentalData@@PAU1@@Z PROC ; std::_Val_type<RentalData *>, COMDAT

; 790  : 	return (0);

  00000	33 c0		 xor	 eax, eax

; 791  : 	}

  00002	c3		 ret	 0
??$_Val_type@PAURentalData@@@std@@YAPAURentalData@@PAU1@@Z ENDP ; std::_Val_type<RentalData *>
_TEXT	ENDS
PUBLIC	??$_Copy_impl@PAKPAK@std@@YAPAKPAK00U_Scalar_ptr_iterator_tag@0@@Z ; std::_Copy_impl<unsigned long *,unsigned long *>
EXTRN	__imp__memmove:PROC
; Function compile flags: /Ogsp
;	COMDAT ??$_Copy_impl@PAKPAK@std@@YAPAKPAK00U_Scalar_ptr_iterator_tag@0@@Z
_TEXT	SEGMENT
__First$ = 8						; size = 4
__Last$ = 12						; size = 4
__Dest$ = 16						; size = 4
___formal$ = 20						; size = 1
??$_Copy_impl@PAKPAK@std@@YAPAKPAK00U_Scalar_ptr_iterator_tag@0@@Z PROC ; std::_Copy_impl<unsigned long *,unsigned long *>, COMDAT

; 2152 : 	{	// copy [_First, _Last) to [_Dest, ...), pointers to scalars

  00000	55		 push	 ebp
  00001	8b ec		 mov	 ebp, esp
  00003	56		 push	 esi

; 2153 : 	ptrdiff_t _Count = _Last - _First;

  00004	8b 75 0c	 mov	 esi, DWORD PTR __Last$[ebp]
  00007	2b 75 08	 sub	 esi, DWORD PTR __First$[ebp]
  0000a	57		 push	 edi

; 2154 : 	_CSTD memmove(&*_Dest, &*_First,
; 2155 : 		_Count * sizeof (*_First));

  0000b	8b 7d 10	 mov	 edi, DWORD PTR __Dest$[ebp]
  0000e	c1 fe 02	 sar	 esi, 2
  00011	c1 e6 02	 shl	 esi, 2
  00014	56		 push	 esi
  00015	ff 75 08	 push	 DWORD PTR __First$[ebp]
  00018	57		 push	 edi
  00019	ff 15 00 00 00
	00		 call	 DWORD PTR __imp__memmove
  0001f	83 c4 0c	 add	 esp, 12			; 0000000cH

; 2156 : 	return (_Dest + _Count);

  00022	8d 04 3e	 lea	 eax, DWORD PTR [esi+edi]
  00025	5f		 pop	 edi
  00026	5e		 pop	 esi

; 2157 : 	}

  00027	5d		 pop	 ebp
  00028	c3		 ret	 0
??$_Copy_impl@PAKPAK@std@@YAPAKPAK00U_Scalar_ptr_iterator_tag@0@@Z ENDP ; std::_Copy_impl<unsigned long *,unsigned long *>
_TEXT	ENDS
PUBLIC	??$forward@URentalData@@@std@@YA$$QAURentalData@@AAU1@@Z ; std::forward<RentalData>
; Function compile flags: /Ogsp
; File c:\program files (x86)\microsoft visual studio 10.0\vc\include\utility
;	COMDAT ??$forward@URentalData@@@std@@YA$$QAURentalData@@AAU1@@Z
_TEXT	SEGMENT
__Arg$ = 8						; size = 4
??$forward@URentalData@@@std@@YA$$QAURentalData@@AAU1@@Z PROC ; std::forward<RentalData>, COMDAT

; 78   : 	{	// forward _Arg, given explicitly specified type parameter

  00000	55		 push	 ebp
  00001	8b ec		 mov	 ebp, esp

; 79   : 	return ((_Ty&&)_Arg);

  00003	8b 45 08	 mov	 eax, DWORD PTR __Arg$[ebp]

; 80   : 	}

  00006	5d		 pop	 ebp
  00007	c3		 ret	 0
??$forward@URentalData@@@std@@YA$$QAURentalData@@AAU1@@Z ENDP ; std::forward<RentalData>
_TEXT	ENDS
PUBLIC	??$_Ptr_cat@V?$_Vector_const_iterator@V?$_Vector_val@KV?$allocator@K@std@@@std@@@std@@PAK@std@@YA?AU_Nonscalar_ptr_iterator_tag@0@AAV?$_Vector_const_iterator@V?$_Vector_val@KV?$allocator@K@std@@@std@@@0@AAPAK@Z ; std::_Ptr_cat<std::_Vector_const_iterator<std::_Vector_val<unsigned long,std::allocator<unsigned long> > >,unsigned long *>
; Function compile flags: /Ogsp
; File c:\program files (x86)\microsoft visual studio 10.0\vc\include\xutility
;	COMDAT ??$_Ptr_cat@V?$_Vector_const_iterator@V?$_Vector_val@KV?$allocator@K@std@@@std@@@std@@PAK@std@@YA?AU_Nonscalar_ptr_iterator_tag@0@AAV?$_Vector_const_iterator@V?$_Vector_val@KV?$allocator@K@std@@@std@@@0@AAPAK@Z
_TEXT	SEGMENT
__Cat$ = -1						; size = 1
___formal$ = 8						; size = 4
___formal$ = 12						; size = 4
??$_Ptr_cat@V?$_Vector_const_iterator@V?$_Vector_val@KV?$allocator@K@std@@@std@@@std@@PAK@std@@YA?AU_Nonscalar_ptr_iterator_tag@0@AAV?$_Vector_const_iterator@V?$_Vector_val@KV?$allocator@K@std@@@std@@@0@AAPAK@Z PROC ; std::_Ptr_cat<std::_Vector_const_iterator<std::_Vector_val<unsigned long,std::allocator<unsigned long> > >,unsigned long *>, COMDAT

; 485  : 	{	// return pointer category from arbitrary arguments

  00000	55		 push	 ebp
  00001	8b ec		 mov	 ebp, esp
  00003	51		 push	 ecx

; 486  : 	_Nonscalar_ptr_iterator_tag _Cat;
; 487  : 	return (_Cat);

  00004	8a 45 ff	 mov	 al, BYTE PTR __Cat$[ebp]

; 488  : 	}

  00007	c9		 leave
  00008	c3		 ret	 0
??$_Ptr_cat@V?$_Vector_const_iterator@V?$_Vector_val@KV?$allocator@K@std@@@std@@@std@@PAK@std@@YA?AU_Nonscalar_ptr_iterator_tag@0@AAV?$_Vector_const_iterator@V?$_Vector_val@KV?$allocator@K@std@@@std@@@0@AAPAK@Z ENDP ; std::_Ptr_cat<std::_Vector_const_iterator<std::_Vector_val<unsigned long,std::allocator<unsigned long> > >,unsigned long *>
_TEXT	ENDS
PUBLIC	??$_Uninit_copy@KK@std@@YAPAKPAK00AAV?$allocator@K@0@U_Scalar_ptr_iterator_tag@0@@Z ; std::_Uninit_copy<unsigned long,unsigned long>
; Function compile flags: /Ogsp
; File c:\program files (x86)\microsoft visual studio 10.0\vc\include\memory
;	COMDAT ??$_Uninit_copy@KK@std@@YAPAKPAK00AAV?$allocator@K@0@U_Scalar_ptr_iterator_tag@0@@Z
_TEXT	SEGMENT
__First$ = 8						; size = 4
__Last$ = 12						; size = 4
__Dest$ = 16						; size = 4
___formal$ = 20						; size = 4
___formal$ = 24						; size = 1
??$_Uninit_copy@KK@std@@YAPAKPAK00AAV?$allocator@K@0@U_Scalar_ptr_iterator_tag@0@@Z PROC ; std::_Uninit_copy<unsigned long,unsigned long>, COMDAT

; 399  : 	{	// copy [_First, _Last) to raw _Dest, scalar type

  00000	55		 push	 ebp
  00001	8b ec		 mov	 ebp, esp
  00003	56		 push	 esi

; 400  : 	_DEBUG_RANGE(_First, _Last);
; 401  : 	_DEBUG_POINTER(_Dest);
; 402  : 	size_t _Count = (size_t)(_Last - _First);

  00004	8b 75 0c	 mov	 esi, DWORD PTR __Last$[ebp]
  00007	2b 75 08	 sub	 esi, DWORD PTR __First$[ebp]
  0000a	c1 fe 02	 sar	 esi, 2

; 403  : 	return ((_Ty2 *)_CSTD memmove(&*_Dest, &*_First,
; 404  : 		_Count * sizeof (*_First)) + _Count);	// NB: non-overlapping move

  0000d	c1 e6 02	 shl	 esi, 2
  00010	56		 push	 esi
  00011	ff 75 08	 push	 DWORD PTR __First$[ebp]
  00014	ff 75 10	 push	 DWORD PTR __Dest$[ebp]
  00017	ff 15 00 00 00
	00		 call	 DWORD PTR __imp__memmove
  0001d	83 c4 0c	 add	 esp, 12			; 0000000cH
  00020	03 c6		 add	 eax, esi
  00022	5e		 pop	 esi

; 405  : 	}

  00023	5d		 pop	 ebp
  00024	c3		 ret	 0
??$_Uninit_copy@KK@std@@YAPAKPAK00AAV?$allocator@K@0@U_Scalar_ptr_iterator_tag@0@@Z ENDP ; std::_Uninit_copy<unsigned long,unsigned long>
_TEXT	ENDS
PUBLIC	??D?$_Vector_const_iterator@V?$_Vector_val@KV?$allocator@K@std@@@std@@@std@@QBEABKXZ ; std::_Vector_const_iterator<std::_Vector_val<unsigned long,std::allocator<unsigned long> > >::operator*
; Function compile flags: /Ogsp
; File c:\program files (x86)\microsoft visual studio 10.0\vc\include\vector
;	COMDAT ??D?$_Vector_const_iterator@V?$_Vector_val@KV?$allocator@K@std@@@std@@@std@@QBEABKXZ
_TEXT	SEGMENT
??D?$_Vector_const_iterator@V?$_Vector_val@KV?$allocator@K@std@@@std@@@std@@QBEABKXZ PROC ; std::_Vector_const_iterator<std::_Vector_val<unsigned long,std::allocator<unsigned long> > >::operator*, COMDAT
; _this$ = ecx

; 64   :  #if _ITERATOR_DEBUG_LEVEL == 2
; 65   : 		if (this->_Getcont() == 0
; 66   : 			|| this->_Ptr == 0
; 67   : 			|| this->_Ptr < ((_Myvec *)this->_Getcont())->_Myfirst
; 68   : 			|| ((_Myvec *)this->_Getcont())->_Mylast <= this->_Ptr)
; 69   : 			{	// report error
; 70   : 			_DEBUG_ERROR("vector iterator not dereferencable");
; 71   : 			_SCL_SECURE_OUT_OF_RANGE;
; 72   : 			}
; 73   : 
; 74   :  #elif _ITERATOR_DEBUG_LEVEL == 1
; 75   : 		_SCL_SECURE_VALIDATE(this->_Getcont() != 0);
; 76   : 		_SCL_SECURE_VALIDATE_RANGE(
; 77   : 			this->_Ptr != 0
; 78   : 			&& ((_Myvec *)this->_Getcont())->_Myfirst <= this->_Ptr
; 79   : 			&& this->_Ptr < ((_Myvec *)this->_Getcont())->_Mylast);
; 80   :  #endif /* _ITERATOR_DEBUG_LEVEL */
; 81   : 
; 82   : 		__analysis_assume(this->_Ptr != 0);
; 83   : 
; 84   : 		return (*this->_Ptr);

  00000	8b 01		 mov	 eax, DWORD PTR [ecx]

; 85   : 		}

  00002	c3		 ret	 0
??D?$_Vector_const_iterator@V?$_Vector_val@KV?$allocator@K@std@@@std@@@std@@QBEABKXZ ENDP ; std::_Vector_const_iterator<std::_Vector_val<unsigned long,std::allocator<unsigned long> > >::operator*
_TEXT	ENDS
PUBLIC	??E?$_Vector_const_iterator@V?$_Vector_val@KV?$allocator@K@std@@@std@@@std@@QAEAAV01@XZ ; std::_Vector_const_iterator<std::_Vector_val<unsigned long,std::allocator<unsigned long> > >::operator++
; Function compile flags: /Ogsp
;	COMDAT ??E?$_Vector_const_iterator@V?$_Vector_val@KV?$allocator@K@std@@@std@@@std@@QAEAAV01@XZ
_TEXT	SEGMENT
??E?$_Vector_const_iterator@V?$_Vector_val@KV?$allocator@K@std@@@std@@@std@@QAEAAV01@XZ PROC ; std::_Vector_const_iterator<std::_Vector_val<unsigned long,std::allocator<unsigned long> > >::operator++, COMDAT
; _this$ = ecx

; 93   : 		{	// preincrement

  00000	8b c1		 mov	 eax, ecx

; 94   :  #if _ITERATOR_DEBUG_LEVEL == 2
; 95   : 		if (this->_Getcont() == 0
; 96   : 			|| this->_Ptr == 0
; 97   : 			|| ((_Myvec *)this->_Getcont())->_Mylast <= this->_Ptr)
; 98   : 			{	// report error
; 99   : 			_DEBUG_ERROR("vector iterator not incrementable");
; 100  : 			_SCL_SECURE_OUT_OF_RANGE;
; 101  : 			}
; 102  : 
; 103  :  #elif _ITERATOR_DEBUG_LEVEL == 1
; 104  : 		_SCL_SECURE_VALIDATE(this->_Getcont() != 0);
; 105  : 		_SCL_SECURE_VALIDATE_RANGE(
; 106  : 			this->_Ptr != 0
; 107  : 			&& this->_Ptr < ((_Myvec *)this->_Getcont())->_Mylast);
; 108  :  #endif /* _ITERATOR_DEBUG_LEVEL */
; 109  : 
; 110  : 		++this->_Ptr;

  00002	83 00 04	 add	 DWORD PTR [eax], 4

; 111  : 		return (*this);
; 112  : 		}

  00005	c3		 ret	 0
??E?$_Vector_const_iterator@V?$_Vector_val@KV?$allocator@K@std@@@std@@@std@@QAEAAV01@XZ ENDP ; std::_Vector_const_iterator<std::_Vector_val<unsigned long,std::allocator<unsigned long> > >::operator++
_TEXT	ENDS
PUBLIC	??$_Destroy@K@std@@YAXPAK@Z			; std::_Destroy<unsigned long>
; Function compile flags: /Ogsp
; File c:\program files (x86)\microsoft visual studio 10.0\vc\include\xmemory
;	COMDAT ??$_Destroy@K@std@@YAXPAK@Z
_TEXT	SEGMENT
__Ptr$ = 8						; size = 4
??$_Destroy@K@std@@YAXPAK@Z PROC			; std::_Destroy<unsigned long>, COMDAT

; 63   : 	_Ptr->~_Ty();
; 64   : 	}

  00000	c3		 ret	 0
??$_Destroy@K@std@@YAXPAK@Z ENDP			; std::_Destroy<unsigned long>
_TEXT	ENDS
PUBLIC	?Init@tagCostumeEquipInfo@@QAEXXZ		; tagCostumeEquipInfo::Init
; Function compile flags: /Ogsp
; File d:\lost saga for developer\youtube\tutorial\source\src\lsclient\costumeenumtype.h
;	COMDAT ?Init@tagCostumeEquipInfo@@QAEXXZ
_TEXT	SEGMENT
?Init@tagCostumeEquipInfo@@QAEXXZ PROC			; tagCostumeEquipInfo::Init, COMDAT
; _this$ = ecx

; 31   : 		m_CostumeIdx = 0;

  00000	33 c0		 xor	 eax, eax
  00002	89 01		 mov	 DWORD PTR [ecx], eax

; 32   : 		m_CostumeCode = 0;

  00004	89 41 04	 mov	 DWORD PTR [ecx+4], eax

; 33   : 		m_Costume_Male_Custom = 0;  

  00007	89 41 08	 mov	 DWORD PTR [ecx+8], eax

; 34   : 		m_Costume_Female_Custom = 0;

  0000a	89 41 0c	 mov	 DWORD PTR [ecx+12], eax

; 35   : 	}

  0000d	c3		 ret	 0
?Init@tagCostumeEquipInfo@@QAEXXZ ENDP			; tagCostumeEquipInfo::Init
_TEXT	ENDS
PUBLIC	??0tagCostumeEquipInfo@@QAE@ABU0@@Z		; tagCostumeEquipInfo::tagCostumeEquipInfo
; Function compile flags: /Ogsp
;	COMDAT ??0tagCostumeEquipInfo@@QAE@ABU0@@Z
_TEXT	SEGMENT
_rhs$ = 8						; size = 4
??0tagCostumeEquipInfo@@QAE@ABU0@@Z PROC		; tagCostumeEquipInfo::tagCostumeEquipInfo, COMDAT
; _this$ = ecx

; 42   : 	tagCostumeEquipInfo( const tagCostumeEquipInfo &rhs )

  00000	55		 push	 ebp
  00001	8b ec		 mov	 ebp, esp
  00003	8b c1		 mov	 eax, ecx

; 43   : 	{
; 44   : 		m_CostumeIdx = rhs.m_CostumeIdx;

  00005	8b 4d 08	 mov	 ecx, DWORD PTR _rhs$[ebp]
  00008	8b 11		 mov	 edx, DWORD PTR [ecx]
  0000a	89 10		 mov	 DWORD PTR [eax], edx

; 45   : 		m_CostumeCode = rhs.m_CostumeCode;

  0000c	8b 51 04	 mov	 edx, DWORD PTR [ecx+4]
  0000f	89 50 04	 mov	 DWORD PTR [eax+4], edx

; 46   : 		m_Costume_Male_Custom = rhs.m_Costume_Male_Custom;  

  00012	8b 51 08	 mov	 edx, DWORD PTR [ecx+8]
  00015	89 50 08	 mov	 DWORD PTR [eax+8], edx

; 47   : 		m_Costume_Female_Custom = rhs.m_Costume_Female_Custom;

  00018	8b 49 0c	 mov	 ecx, DWORD PTR [ecx+12]
  0001b	89 48 0c	 mov	 DWORD PTR [eax+12], ecx

; 48   : 	}

  0001e	5d		 pop	 ebp
  0001f	c2 04 00	 ret	 4
??0tagCostumeEquipInfo@@QAE@ABU0@@Z ENDP		; tagCostumeEquipInfo::tagCostumeEquipInfo
_TEXT	ENDS
PUBLIC	?Init@tagAccessoryEquipInfo@@QAEXXZ		; tagAccessoryEquipInfo::Init
; Function compile flags: /Ogsp
; File d:\lost saga for developer\youtube\tutorial\source\src\lsclient\accessoryenumtype.h
;	COMDAT ?Init@tagAccessoryEquipInfo@@QAEXXZ
_TEXT	SEGMENT
?Init@tagAccessoryEquipInfo@@QAEXXZ PROC		; tagAccessoryEquipInfo::Init, COMDAT
; _this$ = ecx

; 23   : 		m_iAccessoryIdx = 0;

  00000	33 c0		 xor	 eax, eax
  00002	89 01		 mov	 DWORD PTR [ecx], eax

; 24   : 		m_iAccessoryCode = 0;

  00004	89 41 04	 mov	 DWORD PTR [ecx+4], eax

; 25   : 		m_iRandomNumber = 0;

  00007	89 41 08	 mov	 DWORD PTR [ecx+8], eax

; 26   : 	}

  0000a	c3		 ret	 0
?Init@tagAccessoryEquipInfo@@QAEXXZ ENDP		; tagAccessoryEquipInfo::Init
_TEXT	ENDS
PUBLIC	??0tagAccessoryEquipInfo@@QAE@ABU0@@Z		; tagAccessoryEquipInfo::tagAccessoryEquipInfo
; Function compile flags: /Ogsp
;	COMDAT ??0tagAccessoryEquipInfo@@QAE@ABU0@@Z
_TEXT	SEGMENT
_rhs$ = 8						; size = 4
??0tagAccessoryEquipInfo@@QAE@ABU0@@Z PROC		; tagAccessoryEquipInfo::tagAccessoryEquipInfo, COMDAT
; _this$ = ecx

; 33   : 	tagAccessoryEquipInfo( const tagAccessoryEquipInfo &rhs )

  00000	55		 push	 ebp
  00001	8b ec		 mov	 ebp, esp
  00003	8b c1		 mov	 eax, ecx

; 34   : 	{
; 35   : 		m_iAccessoryIdx = rhs.m_iAccessoryIdx;

  00005	8b 4d 08	 mov	 ecx, DWORD PTR _rhs$[ebp]
  00008	8b 11		 mov	 edx, DWORD PTR [ecx]
  0000a	89 10		 mov	 DWORD PTR [eax], edx

; 36   : 		m_iAccessoryCode = rhs.m_iAccessoryCode;

  0000c	8b 51 04	 mov	 edx, DWORD PTR [ecx+4]
  0000f	89 50 04	 mov	 DWORD PTR [eax+4], edx

; 37   : 		m_iRandomNumber = rhs.m_iRandomNumber;

  00012	8b 49 08	 mov	 ecx, DWORD PTR [ecx+8]
  00015	89 48 08	 mov	 DWORD PTR [eax+8], ecx

; 38   : 	}

  00018	5d		 pop	 ebp
  00019	c2 04 00	 ret	 4
??0tagAccessoryEquipInfo@@QAE@ABU0@@Z ENDP		; tagAccessoryEquipInfo::tagAccessoryEquipInfo
_TEXT	ENDS
PUBLIC	??4ITEM_DATA@@QAEAAU0@ABU0@@Z			; ITEM_DATA::operator=
; Function compile flags: /Ogsp
; File d:\lost saga for developer\youtube\tutorial\source\src\lsclient\characterinfo.h
;	COMDAT ??4ITEM_DATA@@QAEAAU0@ABU0@@Z
_TEXT	SEGMENT
_rhs$ = 8						; size = 4
??4ITEM_DATA@@QAEAAU0@ABU0@@Z PROC			; ITEM_DATA::operator=, COMDAT
; _this$ = ecx

; 242  : 	{

  00000	55		 push	 ebp
  00001	8b ec		 mov	 ebp, esp
  00003	8b c1		 mov	 eax, ecx

; 243  : 		m_item_code			= rhs.m_item_code;

  00005	8b 4d 08	 mov	 ecx, DWORD PTR _rhs$[ebp]
  00008	8b 11		 mov	 edx, DWORD PTR [ecx]
  0000a	89 10		 mov	 DWORD PTR [eax], edx

; 244  : 		m_item_reinforce	= rhs.m_item_reinforce;

  0000c	8b 51 04	 mov	 edx, DWORD PTR [ecx+4]
  0000f	89 50 04	 mov	 DWORD PTR [eax+4], edx

; 245  : 		m_item_bullet		= rhs.m_item_bullet;

  00012	8b 51 08	 mov	 edx, DWORD PTR [ecx+8]
  00015	89 50 08	 mov	 DWORD PTR [eax+8], edx

; 246  : 		m_item_male_custom	= rhs.m_item_male_custom;

  00018	8b 51 0c	 mov	 edx, DWORD PTR [ecx+12]
  0001b	89 50 0c	 mov	 DWORD PTR [eax+12], edx

; 247  : 		m_item_female_custom= rhs.m_item_female_custom;

  0001e	8b 49 10	 mov	 ecx, DWORD PTR [ecx+16]
  00021	89 48 10	 mov	 DWORD PTR [eax+16], ecx

; 248  : 		return *this;
; 249  : 	}

  00024	5d		 pop	 ebp
  00025	c2 04 00	 ret	 4
??4ITEM_DATA@@QAEAAU0@ABU0@@Z ENDP			; ITEM_DATA::operator=
_TEXT	ENDS
PUBLIC	?GetName@ioItem@@QBEABVioHashString@@XZ		; ioItem::GetName
; Function compile flags: /Ogsp
; File d:\lost saga for developer\youtube\tutorial\source\src\lsclient\ioitem.h
;	COMDAT ?GetName@ioItem@@QBEABVioHashString@@XZ
_TEXT	SEGMENT
?GetName@ioItem@@QBEABVioHashString@@XZ PROC		; ioItem::GetName, COMDAT
; _this$ = ecx

; 269  : 	inline const ioHashString& GetName() const { return m_Name; }

  00000	8d 81 34 01 00
	00		 lea	 eax, DWORD PTR [ecx+308]
  00006	c3		 ret	 0
?GetName@ioItem@@QBEABVioHashString@@XZ ENDP		; ioItem::GetName
_TEXT	ENDS
PUBLIC	?size@?$vector@HV?$allocator@H@std@@@std@@QBEIXZ ; std::vector<int,std::allocator<int> >::size
; Function compile flags: /Ogsp
; File c:\program files (x86)\microsoft visual studio 10.0\vc\include\vector
;	COMDAT ?size@?$vector@HV?$allocator@H@std@@@std@@QBEIXZ
_TEXT	SEGMENT
?size@?$vector@HV?$allocator@H@std@@@std@@QBEIXZ PROC	; std::vector<int,std::allocator<int> >::size, COMDAT
; _this$ = ecx

; 879  : 		return (this->_Mylast - this->_Myfirst);

  00000	8b 41 04	 mov	 eax, DWORD PTR [ecx+4]
  00003	2b 01		 sub	 eax, DWORD PTR [ecx]
  00005	c1 f8 02	 sar	 eax, 2

; 880  : 		}

  00008	c3		 ret	 0
?size@?$vector@HV?$allocator@H@std@@@std@@QBEIXZ ENDP	; std::vector<int,std::allocator<int> >::size
_TEXT	ENDS
PUBLIC	?size@?$vector@KV?$allocator@K@std@@@std@@QBEIXZ ; std::vector<unsigned long,std::allocator<unsigned long> >::size
; Function compile flags: /Ogsp
;	COMDAT ?size@?$vector@KV?$allocator@K@std@@@std@@QBEIXZ
_TEXT	SEGMENT
?size@?$vector@KV?$allocator@K@std@@@std@@QBEIXZ PROC	; std::vector<unsigned long,std::allocator<unsigned long> >::size, COMDAT
; _this$ = ecx

; 879  : 		return (this->_Mylast - this->_Myfirst);

  00000	8b 41 04	 mov	 eax, DWORD PTR [ecx+4]
  00003	2b 01		 sub	 eax, DWORD PTR [ecx]
  00005	c1 f8 02	 sar	 eax, 2

; 880  : 		}

  00008	c3		 ret	 0
?size@?$vector@KV?$allocator@K@std@@@std@@QBEIXZ ENDP	; std::vector<unsigned long,std::allocator<unsigned long> >::size
_TEXT	ENDS
PUBLIC	??A?$vector@KV?$allocator@K@std@@@std@@QAEAAKI@Z ; std::vector<unsigned long,std::allocator<unsigned long> >::operator[]
; Function compile flags: /Ogsp
;	COMDAT ??A?$vector@KV?$allocator@K@std@@@std@@QAEAAKI@Z
_TEXT	SEGMENT
__Pos$ = 8						; size = 4
??A?$vector@KV?$allocator@K@std@@@std@@QAEAAKI@Z PROC	; std::vector<unsigned long,std::allocator<unsigned long> >::operator[], COMDAT
; _this$ = ecx

; 928  : 		{	// subscript mutable sequence

  00000	55		 push	 ebp
  00001	8b ec		 mov	 ebp, esp

; 929  :  #if _ITERATOR_DEBUG_LEVEL == 2
; 930  : 		if (size() <= _Pos)
; 931  : 			{	// report error
; 932  : 			_DEBUG_ERROR("vector subscript out of range");
; 933  : 			_SCL_SECURE_OUT_OF_RANGE;
; 934  : 			}
; 935  : 
; 936  :  #elif _ITERATOR_DEBUG_LEVEL == 1
; 937  : 		_SCL_SECURE_VALIDATE_RANGE(_Pos < size());
; 938  :  #endif /* _ITERATOR_DEBUG_LEVEL */
; 939  : 
; 940  : 		return (*(this->_Myfirst + _Pos));

  00003	8b 01		 mov	 eax, DWORD PTR [ecx]
  00005	8b 4d 08	 mov	 ecx, DWORD PTR __Pos$[ebp]
  00008	8d 04 88	 lea	 eax, DWORD PTR [eax+ecx*4]

; 941  : 		}

  0000b	5d		 pop	 ebp
  0000c	c2 04 00	 ret	 4
??A?$vector@KV?$allocator@K@std@@@std@@QAEAAKI@Z ENDP	; std::vector<unsigned long,std::allocator<unsigned long> >::operator[]
_TEXT	ENDS
PUBLIC	?EncryptValueToPool@?$CEncrypt@H@@AAEXPBD@Z	; CEncrypt<int>::EncryptValueToPool
EXTRN	?EncryptByte@ccddaabb@@QAEXPBDPADH@Z:PROC	; ccddaabb::EncryptByte
; Function compile flags: /Ogsp
; File d:\lost saga for developer\youtube\tutorial\source\src\lsclient\encryptvalue.h
;	COMDAT ?EncryptValueToPool@?$CEncrypt@H@@AAEXPBD@Z
_TEXT	SEGMENT
_value$ = 8						; size = 4
?EncryptValueToPool@?$CEncrypt@H@@AAEXPBD@Z PROC	; CEncrypt<int>::EncryptValueToPool, COMDAT
; _this$ = ecx

; 67   : 	{

  00000	55		 push	 ebp
  00001	8b ec		 mov	 ebp, esp

; 68   : 		m_RC5.EncryptByte( value, m_MemPool, max(m_ValueSize, DEFAULT_ENCRYPT) );

  00003	0f b7 41 06	 movzx	 eax, WORD PTR [ecx+6]
  00007	83 f8 04	 cmp	 eax, 4
  0000a	77 03		 ja	 SHORT $LN4@EncryptVal
  0000c	6a 04		 push	 4
  0000e	58		 pop	 eax
$LN4@EncryptVal:
  0000f	50		 push	 eax
  00010	8d 41 1c	 lea	 eax, DWORD PTR [ecx+28]
  00013	50		 push	 eax
  00014	ff 75 08	 push	 DWORD PTR _value$[ebp]
  00017	83 c1 0c	 add	 ecx, 12			; 0000000cH
  0001a	e8 00 00 00 00	 call	 ?EncryptByte@ccddaabb@@QAEXPBDPADH@Z ; ccddaabb::EncryptByte

; 69   : 		
; 70   : 	}

  0001f	5d		 pop	 ebp
  00020	c2 04 00	 ret	 4
?EncryptValueToPool@?$CEncrypt@H@@AAEXPBD@Z ENDP	; CEncrypt<int>::EncryptValueToPool
_TEXT	ENDS
PUBLIC	?DecryptValueToPool@?$CEncrypt@H@@QAEXPAH@Z	; CEncrypt<int>::DecryptValueToPool
EXTRN	?DecryptByte@ccddaabb@@QBEXPBDPADH@Z:PROC	; ccddaabb::DecryptByte
; Function compile flags: /Ogsp
;	COMDAT ?DecryptValueToPool@?$CEncrypt@H@@QAEXPAH@Z
_TEXT	SEGMENT
_value$ = 8						; size = 4
?DecryptValueToPool@?$CEncrypt@H@@QAEXPAH@Z PROC	; CEncrypt<int>::DecryptValueToPool, COMDAT
; _this$ = ecx

; 837  : 	{

  00000	55		 push	 ebp
  00001	8b ec		 mov	 ebp, esp
  00003	56		 push	 esi

; 838  : 		m_RC5.DecryptByte( m_MemPool, m_TempMem, 4 );

  00004	8d 71 28	 lea	 esi, DWORD PTR [ecx+40]
  00007	6a 04		 push	 4
  00009	8d 41 1c	 lea	 eax, DWORD PTR [ecx+28]
  0000c	56		 push	 esi
  0000d	50		 push	 eax
  0000e	83 c1 0c	 add	 ecx, 12			; 0000000cH
  00011	e8 00 00 00 00	 call	 ?DecryptByte@ccddaabb@@QBEXPBDPADH@Z ; ccddaabb::DecryptByte

; 839  : 		*value = *((int*)m_TempMem);

  00016	8b 06		 mov	 eax, DWORD PTR [esi]
  00018	8b 4d 08	 mov	 ecx, DWORD PTR _value$[ebp]
  0001b	89 01		 mov	 DWORD PTR [ecx], eax
  0001d	5e		 pop	 esi

; 840  : 	}

  0001e	5d		 pop	 ebp
  0001f	c2 04 00	 ret	 4
?DecryptValueToPool@?$CEncrypt@H@@QAEXPAH@Z ENDP	; CEncrypt<int>::DecryptValueToPool
_TEXT	ENDS
PUBLIC	??1?$_Vector_val@KV?$allocator@K@std@@@std@@QAE@XZ ; std::_Vector_val<unsigned long,std::allocator<unsigned long> >::~_Vector_val<unsigned long,std::allocator<unsigned long> >
; Function compile flags: /Ogsp
; File c:\program files (x86)\microsoft visual studio 10.0\vc\include\vector
;	COMDAT ??1?$_Vector_val@KV?$allocator@K@std@@@std@@QAE@XZ
_TEXT	SEGMENT
??1?$_Vector_val@KV?$allocator@K@std@@@std@@QAE@XZ PROC	; std::_Vector_val<unsigned long,std::allocator<unsigned long> >::~_Vector_val<unsigned long,std::allocator<unsigned long> >, COMDAT
; _this$ = ecx

; 434  : 		}

  00000	c3		 ret	 0
??1?$_Vector_val@KV?$allocator@K@std@@@std@@QAE@XZ ENDP	; std::_Vector_val<unsigned long,std::allocator<unsigned long> >::~_Vector_val<unsigned long,std::allocator<unsigned long> >
_TEXT	ENDS
PUBLIC	?deallocate@?$allocator@H@std@@QAEXPAHI@Z	; std::allocator<int>::deallocate
; Function compile flags: /Ogsp
; File c:\program files (x86)\microsoft visual studio 10.0\vc\include\xmemory
;	COMDAT ?deallocate@?$allocator@H@std@@QAEXPAHI@Z
_TEXT	SEGMENT
__Ptr$ = 8						; size = 4
___formal$ = 12						; size = 4
?deallocate@?$allocator@H@std@@QAEXPAHI@Z PROC		; std::allocator<int>::deallocate, COMDAT
; _this$ = ecx

; 181  : 		{	// deallocate object at _Ptr, ignore size

  00000	55		 push	 ebp
  00001	8b ec		 mov	 ebp, esp

; 182  : 		::operator delete(_Ptr);

  00003	ff 75 08	 push	 DWORD PTR __Ptr$[ebp]
  00006	e8 00 00 00 00	 call	 ??3@YAXPAX@Z		; operator delete
  0000b	59		 pop	 ecx

; 183  : 		}

  0000c	5d		 pop	 ebp
  0000d	c2 08 00	 ret	 8
?deallocate@?$allocator@H@std@@QAEXPAHI@Z ENDP		; std::allocator<int>::deallocate
_TEXT	ENDS
PUBLIC	?capacity@?$vector@HV?$allocator@H@std@@@std@@QBEIXZ ; std::vector<int,std::allocator<int> >::capacity
; Function compile flags: /Ogsp
; File c:\program files (x86)\microsoft visual studio 10.0\vc\include\vector
;	COMDAT ?capacity@?$vector@HV?$allocator@H@std@@@std@@QBEIXZ
_TEXT	SEGMENT
?capacity@?$vector@HV?$allocator@H@std@@@std@@QBEIXZ PROC ; std::vector<int,std::allocator<int> >::capacity, COMDAT
; _this$ = ecx

; 777  : 		return (this->_Myend - this->_Myfirst);

  00000	8b 41 08	 mov	 eax, DWORD PTR [ecx+8]
  00003	2b 01		 sub	 eax, DWORD PTR [ecx]
  00005	c1 f8 02	 sar	 eax, 2

; 778  : 		}

  00008	c3		 ret	 0
?capacity@?$vector@HV?$allocator@H@std@@@std@@QBEIXZ ENDP ; std::vector<int,std::allocator<int> >::capacity
_TEXT	ENDS
PUBLIC	?_Xlen@?$vector@HV?$allocator@H@std@@@std@@IBEXXZ ; std::vector<int,std::allocator<int> >::_Xlen
; Function compile flags: /Ogsp
;	COMDAT ?_Xlen@?$vector@HV?$allocator@H@std@@@std@@IBEXXZ
_TEXT	SEGMENT
?_Xlen@?$vector@HV?$allocator@H@std@@@std@@IBEXXZ PROC	; std::vector<int,std::allocator<int> >::_Xlen, COMDAT
; _this$ = ecx

; 1427 : 		_Xlength_error("vector<T> too long");

  00000	68 00 00 00 00	 push	 OFFSET ??_C@_0BD@OLBABOEK@vector?$DMT?$DO?5too?5long?$AA@
  00005	ff 15 00 00 00
	00		 call	 DWORD PTR __imp_?_Xlength_error@std@@YAXPBD@Z
$LN4@Xlen@2:
$LN3@Xlen@2:
  0000b	cc		 int	 3
?_Xlen@?$vector@HV?$allocator@H@std@@@std@@IBEXXZ ENDP	; std::vector<int,std::allocator<int> >::_Xlen
_TEXT	ENDS
PUBLIC	?capacity@?$vector@KV?$allocator@K@std@@@std@@QBEIXZ ; std::vector<unsigned long,std::allocator<unsigned long> >::capacity
; Function compile flags: /Ogsp
;	COMDAT ?capacity@?$vector@KV?$allocator@K@std@@@std@@QBEIXZ
_TEXT	SEGMENT
?capacity@?$vector@KV?$allocator@K@std@@@std@@QBEIXZ PROC ; std::vector<unsigned long,std::allocator<unsigned long> >::capacity, COMDAT
; _this$ = ecx

; 777  : 		return (this->_Myend - this->_Myfirst);

  00000	8b 41 08	 mov	 eax, DWORD PTR [ecx+8]
  00003	2b 01		 sub	 eax, DWORD PTR [ecx]
  00005	c1 f8 02	 sar	 eax, 2

; 778  : 		}

  00008	c3		 ret	 0
?capacity@?$vector@KV?$allocator@K@std@@@std@@QBEIXZ ENDP ; std::vector<unsigned long,std::allocator<unsigned long> >::capacity
_TEXT	ENDS
PUBLIC	?_Xlen@?$vector@KV?$allocator@K@std@@@std@@IBEXXZ ; std::vector<unsigned long,std::allocator<unsigned long> >::_Xlen
; Function compile flags: /Ogsp
;	COMDAT ?_Xlen@?$vector@KV?$allocator@K@std@@@std@@IBEXXZ
_TEXT	SEGMENT
?_Xlen@?$vector@KV?$allocator@K@std@@@std@@IBEXXZ PROC	; std::vector<unsigned long,std::allocator<unsigned long> >::_Xlen, COMDAT
; _this$ = ecx

; 1427 : 		_Xlength_error("vector<T> too long");

  00000	68 00 00 00 00	 push	 OFFSET ??_C@_0BD@OLBABOEK@vector?$DMT?$DO?5too?5long?$AA@
  00005	ff 15 00 00 00
	00		 call	 DWORD PTR __imp_?_Xlength_error@std@@YAXPBD@Z
$LN4@Xlen@3:
$LN3@Xlen@3:
  0000b	cc		 int	 3
?_Xlen@?$vector@KV?$allocator@K@std@@@std@@IBEXXZ ENDP	; std::vector<unsigned long,std::allocator<unsigned long> >::_Xlen
_TEXT	ENDS
PUBLIC	??0?$allocator@K@std@@QAE@ABV01@@Z		; std::allocator<unsigned long>::allocator<unsigned long>
; Function compile flags: /Ogsp
; File c:\program files (x86)\microsoft visual studio 10.0\vc\include\xmemory
;	COMDAT ??0?$allocator@K@std@@QAE@ABV01@@Z
_TEXT	SEGMENT
___formal$ = 8						; size = 4
??0?$allocator@K@std@@QAE@ABV01@@Z PROC			; std::allocator<unsigned long>::allocator<unsigned long>, COMDAT
; _this$ = ecx

; 165  : 	_ALLOCATOR(const _ALLOCATOR<_Ty>&) _THROW0()

  00000	8b c1		 mov	 eax, ecx

; 166  : 		{	// construct by copying (do nothing)
; 167  : 		}

  00002	c2 04 00	 ret	 4
??0?$allocator@K@std@@QAE@ABV01@@Z ENDP			; std::allocator<unsigned long>::allocator<unsigned long>
_TEXT	ENDS
PUBLIC	?deallocate@?$allocator@K@std@@QAEXPAKI@Z	; std::allocator<unsigned long>::deallocate
; Function compile flags: /Ogsp
;	COMDAT ?deallocate@?$allocator@K@std@@QAEXPAKI@Z
_TEXT	SEGMENT
__Ptr$ = 8						; size = 4
___formal$ = 12						; size = 4
?deallocate@?$allocator@K@std@@QAEXPAKI@Z PROC		; std::allocator<unsigned long>::deallocate, COMDAT
; _this$ = ecx

; 181  : 		{	// deallocate object at _Ptr, ignore size

  00000	55		 push	 ebp
  00001	8b ec		 mov	 ebp, esp

; 182  : 		::operator delete(_Ptr);

  00003	ff 75 08	 push	 DWORD PTR __Ptr$[ebp]
  00006	e8 00 00 00 00	 call	 ??3@YAXPAX@Z		; operator delete
  0000b	59		 pop	 ecx

; 183  : 		}

  0000c	5d		 pop	 ebp
  0000d	c2 08 00	 ret	 8
?deallocate@?$allocator@K@std@@QAEXPAKI@Z ENDP		; std::allocator<unsigned long>::deallocate
_TEXT	ENDS
PUBLIC	?max_size@?$allocator@H@std@@QBEIXZ		; std::allocator<int>::max_size
; Function compile flags: /Ogsp
;	COMDAT ?max_size@?$allocator@H@std@@QBEIXZ
_TEXT	SEGMENT
?max_size@?$allocator@H@std@@QBEIXZ PROC		; std::allocator<int>::max_size, COMDAT
; _this$ = ecx

; 218  : 		_SIZT _Count = (_SIZT)(-1) / sizeof (_Ty);
; 219  : 		return (0 < _Count ? _Count : 1);

  00000	b8 ff ff ff 3f	 mov	 eax, 1073741823		; 3fffffffH

; 220  : 		}

  00005	c3		 ret	 0
?max_size@?$allocator@H@std@@QBEIXZ ENDP		; std::allocator<int>::max_size
_TEXT	ENDS
PUBLIC	?max_size@?$allocator@K@std@@QBEIXZ		; std::allocator<unsigned long>::max_size
; Function compile flags: /Ogsp
;	COMDAT ?max_size@?$allocator@K@std@@QBEIXZ
_TEXT	SEGMENT
?max_size@?$allocator@K@std@@QBEIXZ PROC		; std::allocator<unsigned long>::max_size, COMDAT
; _this$ = ecx

; 218  : 		_SIZT _Count = (_SIZT)(-1) / sizeof (_Ty);
; 219  : 		return (0 < _Count ? _Count : 1);

  00000	b8 ff ff ff 3f	 mov	 eax, 1073741823		; 3fffffffH

; 220  : 		}

  00005	c3		 ret	 0
?max_size@?$allocator@K@std@@QBEIXZ ENDP		; std::allocator<unsigned long>::max_size
_TEXT	ENDS
PUBLIC	??0?$_Vector_const_iterator@V?$_Vector_val@KV?$allocator@K@std@@@std@@@std@@QAE@PAKPBU_Container_base0@1@@Z ; std::_Vector_const_iterator<std::_Vector_val<unsigned long,std::allocator<unsigned long> > >::_Vector_const_iterator<std::_Vector_val<unsigned long,std::allocator<unsigned long> > >
; Function compile flags: /Ogsp
; File c:\program files (x86)\microsoft visual studio 10.0\vc\include\vector
;	COMDAT ??0?$_Vector_const_iterator@V?$_Vector_val@KV?$allocator@K@std@@@std@@@std@@QAE@PAKPBU_Container_base0@1@@Z
_TEXT	SEGMENT
__Parg$ = 8						; size = 4
__Pvector$ = 12						; size = 4
??0?$_Vector_const_iterator@V?$_Vector_val@KV?$allocator@K@std@@@std@@@std@@QAE@PAKPBU_Container_base0@1@@Z PROC ; std::_Vector_const_iterator<std::_Vector_val<unsigned long,std::allocator<unsigned long> > >::_Vector_const_iterator<std::_Vector_val<unsigned long,std::allocator<unsigned long> > >, COMDAT
; _this$ = ecx

; 45   : 		{	// construct with pointer _Parg

  00000	55		 push	 ebp
  00001	8b ec		 mov	 ebp, esp
  00003	8b c1		 mov	 eax, ecx
  00005	8b 4d 08	 mov	 ecx, DWORD PTR __Parg$[ebp]
  00008	89 08		 mov	 DWORD PTR [eax], ecx

; 46   : 		this->_Adopt(_Pvector);
; 47   : 		}

  0000a	5d		 pop	 ebp
  0000b	c2 08 00	 ret	 8
??0?$_Vector_const_iterator@V?$_Vector_val@KV?$allocator@K@std@@@std@@@std@@QAE@PAKPBU_Container_base0@1@@Z ENDP ; std::_Vector_const_iterator<std::_Vector_val<unsigned long,std::allocator<unsigned long> > >::_Vector_const_iterator<std::_Vector_val<unsigned long,std::allocator<unsigned long> > >
_TEXT	ENDS
PUBLIC	?_Compat@?$_Vector_const_iterator@V?$_Vector_val@KV?$allocator@K@std@@@std@@@std@@QBEXABV12@@Z ; std::_Vector_const_iterator<std::_Vector_val<unsigned long,std::allocator<unsigned long> > >::_Compat
; Function compile flags: /Ogsp
;	COMDAT ?_Compat@?$_Vector_const_iterator@V?$_Vector_val@KV?$allocator@K@std@@@std@@@std@@QBEXABV12@@Z
_TEXT	SEGMENT
___formal$ = 8						; size = 4
?_Compat@?$_Vector_const_iterator@V?$_Vector_val@KV?$allocator@K@std@@@std@@@std@@QBEXABV12@@Z PROC ; std::_Vector_const_iterator<std::_Vector_val<unsigned long,std::allocator<unsigned long> > >::_Compat, COMDAT
; _this$ = ecx

; 253  : 		}

  00000	c2 04 00	 ret	 4
?_Compat@?$_Vector_const_iterator@V?$_Vector_val@KV?$allocator@K@std@@@std@@@std@@QBEXABV12@@Z ENDP ; std::_Vector_const_iterator<std::_Vector_val<unsigned long,std::allocator<unsigned long> > >::_Compat
_TEXT	ENDS
PUBLIC	??$_Allocate@H@std@@YAPAHIPAH@Z			; std::_Allocate<int>
; Function compile flags: /Ogsp
; File c:\program files (x86)\microsoft visual studio 10.0\vc\include\xmemory
;	COMDAT ??$_Allocate@H@std@@YAPAHIPAH@Z
_TEXT	SEGMENT
$T511730 = -12						; size = 12
$T511734 = 8						; size = 4
__Count$ = 8						; size = 4
___formal$ = 12						; size = 4
??$_Allocate@H@std@@YAPAHIPAH@Z PROC			; std::_Allocate<int>, COMDAT

; 30   : 	{	// allocate storage for _Count elements of type _Ty

  00000	55		 push	 ebp
  00001	8b ec		 mov	 ebp, esp

; 31   : 	void *_Ptr = 0;
; 32   : 
; 33   : 	if (_Count <= 0)

  00003	8b 4d 08	 mov	 ecx, DWORD PTR __Count$[ebp]
  00006	83 ec 0c	 sub	 esp, 12			; 0000000cH
  00009	33 c0		 xor	 eax, eax
  0000b	85 c9		 test	 ecx, ecx

; 34   : 		_Count = 0;
; 35   : 	else if (((_SIZT)(-1) / sizeof (_Ty) < _Count)

  0000d	74 3e		 je	 SHORT $LN5@Allocate@2

; 36   : 		|| (_Ptr = ::operator new(_Count * sizeof (_Ty))) == 0)

  0000f	81 f9 ff ff ff
	3f		 cmp	 ecx, 1073741823		; 3fffffffH
  00015	77 10		 ja	 SHORT $LN1@Allocate@2
  00017	8b c1		 mov	 eax, ecx
  00019	c1 e0 02	 shl	 eax, 2
  0001c	50		 push	 eax
  0001d	e8 00 00 00 00	 call	 ??2@YAPAXI@Z		; operator new
  00022	59		 pop	 ecx
  00023	85 c0		 test	 eax, eax

; 38   : 
; 39   : 	return ((_Ty _FARQ *)_Ptr);

  00025	75 26		 jne	 SHORT $LN5@Allocate@2
$LN1@Allocate@2:

; 37   : 		_THROW_NCEE(bad_alloc, 0);

  00027	83 65 08 00	 and	 DWORD PTR $T511734[ebp], 0
  0002b	8d 45 08	 lea	 eax, DWORD PTR $T511734[ebp]
  0002e	50		 push	 eax
  0002f	8d 4d f4	 lea	 ecx, DWORD PTR $T511730[ebp]
  00032	ff 15 00 00 00
	00		 call	 DWORD PTR __imp_??0exception@std@@QAE@ABQBD@Z
  00038	68 00 00 00 00	 push	 OFFSET __TI2?AVbad_alloc@std@@
  0003d	8d 45 f4	 lea	 eax, DWORD PTR $T511730[ebp]
  00040	50		 push	 eax
  00041	c7 45 f4 00 00
	00 00		 mov	 DWORD PTR $T511730[ebp], OFFSET ??_7bad_alloc@std@@6B@
  00048	e8 00 00 00 00	 call	 __CxxThrowException@8
$LN10@Allocate@2:
$LN5@Allocate@2:

; 40   : 	}

  0004d	c9		 leave
  0004e	c3		 ret	 0
$LN9@Allocate@2:
??$_Allocate@H@std@@YAPAHIPAH@Z ENDP			; std::_Allocate<int>
_TEXT	ENDS
PUBLIC	??$_Allocate@K@std@@YAPAKIPAK@Z			; std::_Allocate<unsigned long>
; Function compile flags: /Ogsp
;	COMDAT ??$_Allocate@K@std@@YAPAKIPAK@Z
_TEXT	SEGMENT
$T511739 = -12						; size = 12
$T511743 = 8						; size = 4
__Count$ = 8						; size = 4
___formal$ = 12						; size = 4
??$_Allocate@K@std@@YAPAKIPAK@Z PROC			; std::_Allocate<unsigned long>, COMDAT

; 30   : 	{	// allocate storage for _Count elements of type _Ty

  00000	55		 push	 ebp
  00001	8b ec		 mov	 ebp, esp

; 31   : 	void *_Ptr = 0;
; 32   : 
; 33   : 	if (_Count <= 0)

  00003	8b 4d 08	 mov	 ecx, DWORD PTR __Count$[ebp]
  00006	83 ec 0c	 sub	 esp, 12			; 0000000cH
  00009	33 c0		 xor	 eax, eax
  0000b	85 c9		 test	 ecx, ecx

; 34   : 		_Count = 0;
; 35   : 	else if (((_SIZT)(-1) / sizeof (_Ty) < _Count)

  0000d	74 3e		 je	 SHORT $LN5@Allocate@3

; 36   : 		|| (_Ptr = ::operator new(_Count * sizeof (_Ty))) == 0)

  0000f	81 f9 ff ff ff
	3f		 cmp	 ecx, 1073741823		; 3fffffffH
  00015	77 10		 ja	 SHORT $LN1@Allocate@3
  00017	8b c1		 mov	 eax, ecx
  00019	c1 e0 02	 shl	 eax, 2
  0001c	50		 push	 eax
  0001d	e8 00 00 00 00	 call	 ??2@YAPAXI@Z		; operator new
  00022	59		 pop	 ecx
  00023	85 c0		 test	 eax, eax

; 38   : 
; 39   : 	return ((_Ty _FARQ *)_Ptr);

  00025	75 26		 jne	 SHORT $LN5@Allocate@3
$LN1@Allocate@3:

; 37   : 		_THROW_NCEE(bad_alloc, 0);

  00027	83 65 08 00	 and	 DWORD PTR $T511743[ebp], 0
  0002b	8d 45 08	 lea	 eax, DWORD PTR $T511743[ebp]
  0002e	50		 push	 eax
  0002f	8d 4d f4	 lea	 ecx, DWORD PTR $T511739[ebp]
  00032	ff 15 00 00 00
	00		 call	 DWORD PTR __imp_??0exception@std@@QAE@ABQBD@Z
  00038	68 00 00 00 00	 push	 OFFSET __TI2?AVbad_alloc@std@@
  0003d	8d 45 f4	 lea	 eax, DWORD PTR $T511739[ebp]
  00040	50		 push	 eax
  00041	c7 45 f4 00 00
	00 00		 mov	 DWORD PTR $T511739[ebp], OFFSET ??_7bad_alloc@std@@6B@
  00048	e8 00 00 00 00	 call	 __CxxThrowException@8
$LN10@Allocate@3:
$LN5@Allocate@3:

; 40   : 	}

  0004d	c9		 leave
  0004e	c3		 ret	 0
$LN9@Allocate@3:
??$_Allocate@K@std@@YAPAKIPAK@Z ENDP			; std::_Allocate<unsigned long>
_TEXT	ENDS
EXTRN	__imp_??0exception@std@@QAE@ABV01@@Z:PROC
; Function compile flags: /Ogsp
;	COMDAT ??0bad_alloc@std@@QAE@ABV01@@Z
_TEXT	SEGMENT
___that$ = 8						; size = 4
??0bad_alloc@std@@QAE@ABV01@@Z PROC			; std::bad_alloc::bad_alloc, COMDAT
; _this$ = ecx
  00000	55		 push	 ebp
  00001	8b ec		 mov	 ebp, esp
  00003	56		 push	 esi
  00004	ff 75 08	 push	 DWORD PTR ___that$[ebp]
  00007	8b f1		 mov	 esi, ecx
  00009	ff 15 00 00 00
	00		 call	 DWORD PTR __imp_??0exception@std@@QAE@ABV01@@Z
  0000f	c7 06 00 00 00
	00		 mov	 DWORD PTR [esi], OFFSET ??_7bad_alloc@std@@6B@
  00015	8b c6		 mov	 eax, esi
  00017	5e		 pop	 esi
  00018	5d		 pop	 ebp
  00019	c2 04 00	 ret	 4
??0bad_alloc@std@@QAE@ABV01@@Z ENDP			; std::bad_alloc::bad_alloc
_TEXT	ENDS
PUBLIC	??$forward@AAH@std@@YAAAHAAH@Z			; std::forward<int &>
; Function compile flags: /Ogsp
; File c:\program files (x86)\microsoft visual studio 10.0\vc\include\utility
;	COMDAT ??$forward@AAH@std@@YAAAHAAH@Z
_TEXT	SEGMENT
__Arg$ = 8						; size = 4
??$forward@AAH@std@@YAAAHAAH@Z PROC			; std::forward<int &>, COMDAT

; 78   : 	{	// forward _Arg, given explicitly specified type parameter

  00000	55		 push	 ebp
  00001	8b ec		 mov	 ebp, esp

; 79   : 	return ((_Ty&&)_Arg);

  00003	8b 45 08	 mov	 eax, DWORD PTR __Arg$[ebp]

; 80   : 	}

  00006	5d		 pop	 ebp
  00007	c3		 ret	 0
??$forward@AAH@std@@YAAAHAAH@Z ENDP			; std::forward<int &>
_TEXT	ENDS
PUBLIC	??$_Val_type@PAH@std@@YAPAHPAH@Z		; std::_Val_type<int *>
; Function compile flags: /Ogsp
; File c:\program files (x86)\microsoft visual studio 10.0\vc\include\xutility
;	COMDAT ??$_Val_type@PAH@std@@YAPAHPAH@Z
_TEXT	SEGMENT
___formal$ = 8						; size = 4
??$_Val_type@PAH@std@@YAPAHPAH@Z PROC			; std::_Val_type<int *>, COMDAT

; 790  : 	return (0);

  00000	33 c0		 xor	 eax, eax

; 791  : 	}

  00002	c3		 ret	 0
??$_Val_type@PAH@std@@YAPAHPAH@Z ENDP			; std::_Val_type<int *>
_TEXT	ENDS
PUBLIC	??$_Ptr_cat@HH@std@@YA?AU_Scalar_ptr_iterator_tag@0@PAH0@Z ; std::_Ptr_cat<int,int>
; Function compile flags: /Ogsp
;	COMDAT ??$_Ptr_cat@HH@std@@YA?AU_Scalar_ptr_iterator_tag@0@PAH0@Z
_TEXT	SEGMENT
__Cat$ = -1						; size = 1
___formal$ = 8						; size = 4
___formal$ = 12						; size = 4
??$_Ptr_cat@HH@std@@YA?AU_Scalar_ptr_iterator_tag@0@PAH0@Z PROC ; std::_Ptr_cat<int,int>, COMDAT

; 516  : 	{	// return pointer category from pointers

  00000	55		 push	 ebp
  00001	8b ec		 mov	 ebp, esp
  00003	51		 push	 ecx

; 517  : 	typename _Ptr_cat_helper<_Elem1, _Elem2>::_Type _Cat;
; 518  : 	return (_Cat);

  00004	8a 45 ff	 mov	 al, BYTE PTR __Cat$[ebp]

; 519  : 	}

  00007	c9		 leave
  00008	c3		 ret	 0
??$_Ptr_cat@HH@std@@YA?AU_Scalar_ptr_iterator_tag@0@PAH0@Z ENDP ; std::_Ptr_cat<int,int>
_TEXT	ENDS
PUBLIC	??$forward@ABK@std@@YAABKABK@Z			; std::forward<unsigned long const &>
; Function compile flags: /Ogsp
; File c:\program files (x86)\microsoft visual studio 10.0\vc\include\utility
;	COMDAT ??$forward@ABK@std@@YAABKABK@Z
_TEXT	SEGMENT
__Arg$ = 8						; size = 4
??$forward@ABK@std@@YAABKABK@Z PROC			; std::forward<unsigned long const &>, COMDAT

; 78   : 	{	// forward _Arg, given explicitly specified type parameter

  00000	55		 push	 ebp
  00001	8b ec		 mov	 ebp, esp

; 79   : 	return ((_Ty&&)_Arg);

  00003	8b 45 08	 mov	 eax, DWORD PTR __Arg$[ebp]

; 80   : 	}

  00006	5d		 pop	 ebp
  00007	c3		 ret	 0
??$forward@ABK@std@@YAABKABK@Z ENDP			; std::forward<unsigned long const &>
_TEXT	ENDS
PUBLIC	??$_Ptr_cat@KK@std@@YA?AU_Scalar_ptr_iterator_tag@0@PAK0@Z ; std::_Ptr_cat<unsigned long,unsigned long>
; Function compile flags: /Ogsp
; File c:\program files (x86)\microsoft visual studio 10.0\vc\include\xutility
;	COMDAT ??$_Ptr_cat@KK@std@@YA?AU_Scalar_ptr_iterator_tag@0@PAK0@Z
_TEXT	SEGMENT
__Cat$ = -1						; size = 1
___formal$ = 8						; size = 4
___formal$ = 12						; size = 4
??$_Ptr_cat@KK@std@@YA?AU_Scalar_ptr_iterator_tag@0@PAK0@Z PROC ; std::_Ptr_cat<unsigned long,unsigned long>, COMDAT

; 516  : 	{	// return pointer category from pointers

  00000	55		 push	 ebp
  00001	8b ec		 mov	 ebp, esp
  00003	51		 push	 ecx

; 517  : 	typename _Ptr_cat_helper<_Elem1, _Elem2>::_Type _Cat;
; 518  : 	return (_Cat);

  00004	8a 45 ff	 mov	 al, BYTE PTR __Cat$[ebp]

; 519  : 	}

  00007	c9		 leave
  00008	c3		 ret	 0
??$_Ptr_cat@KK@std@@YA?AU_Scalar_ptr_iterator_tag@0@PAK0@Z ENDP ; std::_Ptr_cat<unsigned long,unsigned long>
_TEXT	ENDS
PUBLIC	??$_Move@PAKPAK@std@@YAPAKPAK00U_Scalar_ptr_iterator_tag@0@@Z ; std::_Move<unsigned long *,unsigned long *>
; Function compile flags: /Ogsp
;	COMDAT ??$_Move@PAKPAK@std@@YAPAKPAK00U_Scalar_ptr_iterator_tag@0@@Z
_TEXT	SEGMENT
__First$ = 8						; size = 4
__Last$ = 12						; size = 4
__Dest$ = 16						; size = 4
___formal$ = 20						; size = 1
??$_Move@PAKPAK@std@@YAPAKPAK00U_Scalar_ptr_iterator_tag@0@@Z PROC ; std::_Move<unsigned long *,unsigned long *>, COMDAT

; 2522 : 	{	// move [_First, _Last) to [_Dest, ...), pointers to scalars

  00000	55		 push	 ebp
  00001	8b ec		 mov	 ebp, esp
  00003	56		 push	 esi

; 2523 : 	ptrdiff_t _Count = _Last - _First;

  00004	8b 75 0c	 mov	 esi, DWORD PTR __Last$[ebp]
  00007	2b 75 08	 sub	 esi, DWORD PTR __First$[ebp]
  0000a	57		 push	 edi

; 2524 : 	_CSTD memmove(&*_Dest, &*_First,
; 2525 : 		_Count * sizeof (*_First));

  0000b	8b 7d 10	 mov	 edi, DWORD PTR __Dest$[ebp]
  0000e	c1 fe 02	 sar	 esi, 2
  00011	c1 e6 02	 shl	 esi, 2
  00014	56		 push	 esi
  00015	ff 75 08	 push	 DWORD PTR __First$[ebp]
  00018	57		 push	 edi
  00019	ff 15 00 00 00
	00		 call	 DWORD PTR __imp__memmove
  0001f	83 c4 0c	 add	 esp, 12			; 0000000cH

; 2526 : 	return (_Dest + _Count);

  00022	8d 04 3e	 lea	 eax, DWORD PTR [esi+edi]
  00025	5f		 pop	 edi
  00026	5e		 pop	 esi

; 2527 : 	}

  00027	5d		 pop	 ebp
  00028	c3		 ret	 0
??$_Move@PAKPAK@std@@YAPAKPAK00U_Scalar_ptr_iterator_tag@0@@Z ENDP ; std::_Move<unsigned long *,unsigned long *>
_TEXT	ENDS
PUBLIC	??$_Destroy_range@V?$allocator@H@std@@@std@@YAXPAH0AAV?$allocator@H@0@U_Scalar_ptr_iterator_tag@0@@Z ; std::_Destroy_range<std::allocator<int> >
; Function compile flags: /Ogsp
; File c:\program files (x86)\microsoft visual studio 10.0\vc\include\xmemory
;	COMDAT ??$_Destroy_range@V?$allocator@H@std@@@std@@YAXPAH0AAV?$allocator@H@0@U_Scalar_ptr_iterator_tag@0@@Z
_TEXT	SEGMENT
__First$ = 8						; size = 4
__Last$ = 12						; size = 4
__Al$ = 16						; size = 4
___formal$ = 20						; size = 1
??$_Destroy_range@V?$allocator@H@std@@@std@@YAXPAH0AAV?$allocator@H@0@U_Scalar_ptr_iterator_tag@0@@Z PROC ; std::_Destroy_range<std::allocator<int> >, COMDAT

; 105  : 	}

  00000	c3		 ret	 0
??$_Destroy_range@V?$allocator@H@std@@@std@@YAXPAH0AAV?$allocator@H@0@U_Scalar_ptr_iterator_tag@0@@Z ENDP ; std::_Destroy_range<std::allocator<int> >
_TEXT	ENDS
PUBLIC	??$_Destroy_range@V?$allocator@K@std@@@std@@YAXPAK0AAV?$allocator@K@0@U_Scalar_ptr_iterator_tag@0@@Z ; std::_Destroy_range<std::allocator<unsigned long> >
; Function compile flags: /Ogsp
;	COMDAT ??$_Destroy_range@V?$allocator@K@std@@@std@@YAXPAK0AAV?$allocator@K@0@U_Scalar_ptr_iterator_tag@0@@Z
_TEXT	SEGMENT
__First$ = 8						; size = 4
__Last$ = 12						; size = 4
__Al$ = 16						; size = 4
___formal$ = 20						; size = 1
??$_Destroy_range@V?$allocator@K@std@@@std@@YAXPAK0AAV?$allocator@K@0@U_Scalar_ptr_iterator_tag@0@@Z PROC ; std::_Destroy_range<std::allocator<unsigned long> >, COMDAT

; 105  : 	}

  00000	c3		 ret	 0
??$_Destroy_range@V?$allocator@K@std@@@std@@YAXPAK0AAV?$allocator@K@0@U_Scalar_ptr_iterator_tag@0@@Z ENDP ; std::_Destroy_range<std::allocator<unsigned long> >
_TEXT	ENDS
PUBLIC	??$_Construct@KABK@std@@YAXPAKABK@Z		; std::_Construct<unsigned long,unsigned long const &>
; Function compile flags: /Ogsp
;	COMDAT ??$_Construct@KABK@std@@YAXPAKABK@Z
_TEXT	SEGMENT
__Ptr$ = 8						; size = 4
__Val$ = 12						; size = 4
??$_Construct@KABK@std@@YAXPAKABK@Z PROC		; std::_Construct<unsigned long,unsigned long const &>, COMDAT

; 46   : 	{	// construct object at _Ptr with value _Val

  00000	55		 push	 ebp
  00001	8b ec		 mov	 ebp, esp

; 47   : 	void _FARQ *_Vptr = _Ptr;
; 48   : 	::new (_Vptr) _Ty1(_STD forward<_Ty2>(_Val));

  00003	8b 45 08	 mov	 eax, DWORD PTR __Ptr$[ebp]
  00006	85 c0		 test	 eax, eax
  00008	74 07		 je	 SHORT $LN3@Construct@2
  0000a	8b 4d 0c	 mov	 ecx, DWORD PTR __Val$[ebp]
  0000d	8b 09		 mov	 ecx, DWORD PTR [ecx]
  0000f	89 08		 mov	 DWORD PTR [eax], ecx
$LN3@Construct@2:

; 49   : 	}

  00011	5d		 pop	 ebp
  00012	c3		 ret	 0
??$_Construct@KABK@std@@YAXPAKABK@Z ENDP		; std::_Construct<unsigned long,unsigned long const &>
_TEXT	ENDS
PUBLIC	??$_Uninit_move@HHH@std@@YAPAHPAH00AAV?$allocator@H@0@0U_Scalar_ptr_iterator_tag@0@@Z ; std::_Uninit_move<int,int,int>
; Function compile flags: /Ogsp
; File c:\program files (x86)\microsoft visual studio 10.0\vc\include\memory
;	COMDAT ??$_Uninit_move@HHH@std@@YAPAHPAH00AAV?$allocator@H@0@0U_Scalar_ptr_iterator_tag@0@@Z
_TEXT	SEGMENT
__First$ = 8						; size = 4
__Last$ = 12						; size = 4
__Dest$ = 16						; size = 4
___formal$ = 20						; size = 4
___formal$ = 24						; size = 4
___formal$ = 28						; size = 1
??$_Uninit_move@HHH@std@@YAPAHPAH00AAV?$allocator@H@0@0U_Scalar_ptr_iterator_tag@0@@Z PROC ; std::_Uninit_move<int,int,int>, COMDAT

; 456  : 	{	// move [_First, _Last) to raw _Dest, scalar type

  00000	55		 push	 ebp
  00001	8b ec		 mov	 ebp, esp
  00003	56		 push	 esi

; 457  : 	_DEBUG_RANGE(_First, _Last);
; 458  : 	_DEBUG_POINTER(_Dest);
; 459  : 	size_t _Count = (size_t)(_Last - _First);

  00004	8b 75 0c	 mov	 esi, DWORD PTR __Last$[ebp]
  00007	2b 75 08	 sub	 esi, DWORD PTR __First$[ebp]
  0000a	c1 fe 02	 sar	 esi, 2

; 460  : 	return ((_Ty2 *)_CSTD memmove(&*_Dest, &*_First,
; 461  : 		_Count * sizeof (*_First)) + _Count);	// NB: non-overlapping move

  0000d	c1 e6 02	 shl	 esi, 2
  00010	56		 push	 esi
  00011	ff 75 08	 push	 DWORD PTR __First$[ebp]
  00014	ff 75 10	 push	 DWORD PTR __Dest$[ebp]
  00017	ff 15 00 00 00
	00		 call	 DWORD PTR __imp__memmove
  0001d	83 c4 0c	 add	 esp, 12			; 0000000cH
  00020	03 c6		 add	 eax, esi
  00022	5e		 pop	 esi

; 462  : 	}

  00023	5d		 pop	 ebp
  00024	c3		 ret	 0
??$_Uninit_move@HHH@std@@YAPAHPAH00AAV?$allocator@H@0@0U_Scalar_ptr_iterator_tag@0@@Z ENDP ; std::_Uninit_move<int,int,int>
_TEXT	ENDS
PUBLIC	??D?$_Vector_iterator@V?$_Vector_val@URentalData@@V?$allocator@URentalData@@@std@@@std@@@std@@QBEAAURentalData@@XZ ; std::_Vector_iterator<std::_Vector_val<RentalData,std::allocator<RentalData> > >::operator*
; Function compile flags: /Ogsp
; File c:\program files (x86)\microsoft visual studio 10.0\vc\include\vector
;	COMDAT ??D?$_Vector_iterator@V?$_Vector_val@URentalData@@V?$allocator@URentalData@@@std@@@std@@@std@@QBEAAURentalData@@XZ
_TEXT	SEGMENT
??D?$_Vector_iterator@V?$_Vector_val@URentalData@@V?$allocator@URentalData@@@std@@@std@@@std@@QBEAAURentalData@@XZ PROC ; std::_Vector_iterator<std::_Vector_val<RentalData,std::allocator<RentalData> > >::operator*, COMDAT
; _this$ = ecx

; 322  : 		return ((reference)**(_Mybase *)this);

  00000	8b 01		 mov	 eax, DWORD PTR [ecx]

; 323  : 		}

  00002	c3		 ret	 0
??D?$_Vector_iterator@V?$_Vector_val@URentalData@@V?$allocator@URentalData@@@std@@@std@@@std@@QBEAAURentalData@@XZ ENDP ; std::_Vector_iterator<std::_Vector_val<RentalData,std::allocator<RentalData> > >::operator*
_TEXT	ENDS
PUBLIC	??E?$_Vector_iterator@V?$_Vector_val@URentalData@@V?$allocator@URentalData@@@std@@@std@@@std@@QAEAAV01@XZ ; std::_Vector_iterator<std::_Vector_val<RentalData,std::allocator<RentalData> > >::operator++
; Function compile flags: /Ogsp
;	COMDAT ??E?$_Vector_iterator@V?$_Vector_val@URentalData@@V?$allocator@URentalData@@@std@@@std@@@std@@QAEAAV01@XZ
_TEXT	SEGMENT
??E?$_Vector_iterator@V?$_Vector_val@URentalData@@V?$allocator@URentalData@@@std@@@std@@@std@@QAEAAV01@XZ PROC ; std::_Vector_iterator<std::_Vector_val<RentalData,std::allocator<RentalData> > >::operator++, COMDAT
; _this$ = ecx

; 331  : 		{	// preincrement

  00000	8b c1		 mov	 eax, ecx

; 332  : 		++*(_Mybase *)this;

  00002	81 00 f0 00 00
	00		 add	 DWORD PTR [eax], 240	; 000000f0H

; 333  : 		return (*this);
; 334  : 		}

  00008	c3		 ret	 0
??E?$_Vector_iterator@V?$_Vector_val@URentalData@@V?$allocator@URentalData@@@std@@@std@@@std@@QAEAAV01@XZ ENDP ; std::_Vector_iterator<std::_Vector_val<RentalData,std::allocator<RentalData> > >::operator++
_TEXT	ENDS
PUBLIC	??0?$_Vector_val@URentalData@@V?$allocator@URentalData@@@std@@@std@@QAE@V?$allocator@URentalData@@@1@@Z ; std::_Vector_val<RentalData,std::allocator<RentalData> >::_Vector_val<RentalData,std::allocator<RentalData> >
; Function compile flags: /Ogsp
;	COMDAT ??0?$_Vector_val@URentalData@@V?$allocator@URentalData@@@std@@@std@@QAE@V?$allocator@URentalData@@@1@@Z
_TEXT	SEGMENT
__Al$ = 8						; size = 1
??0?$_Vector_val@URentalData@@V?$allocator@URentalData@@@std@@@std@@QAE@V?$allocator@URentalData@@@1@@Z PROC ; std::_Vector_val<RentalData,std::allocator<RentalData> >::_Vector_val<RentalData,std::allocator<RentalData> >, COMDAT
; _this$ = ecx

; 426  : 		{	// construct allocator from _Al

  00000	8b c1		 mov	 eax, ecx

; 427  : 		_Myfirst = 0;

  00002	33 c9		 xor	 ecx, ecx
  00004	89 08		 mov	 DWORD PTR [eax], ecx

; 428  : 		_Mylast = 0;

  00006	89 48 04	 mov	 DWORD PTR [eax+4], ecx

; 429  : 		_Myend = 0;

  00009	89 48 08	 mov	 DWORD PTR [eax+8], ecx

; 430  : 		}

  0000c	c2 04 00	 ret	 4
??0?$_Vector_val@URentalData@@V?$allocator@URentalData@@@std@@@std@@QAE@V?$allocator@URentalData@@@1@@Z ENDP ; std::_Vector_val<RentalData,std::allocator<RentalData> >::_Vector_val<RentalData,std::allocator<RentalData> >
_TEXT	ENDS
PUBLIC	??8?$_Vector_const_iterator@V?$_Vector_val@URentalData@@V?$allocator@URentalData@@@std@@@std@@@std@@QBE_NABV01@@Z ; std::_Vector_const_iterator<std::_Vector_val<RentalData,std::allocator<RentalData> > >::operator==
; Function compile flags: /Ogsp
;	COMDAT ??8?$_Vector_const_iterator@V?$_Vector_val@URentalData@@V?$allocator@URentalData@@@std@@@std@@@std@@QBE_NABV01@@Z
_TEXT	SEGMENT
__Right$ = 8						; size = 4
??8?$_Vector_const_iterator@V?$_Vector_val@URentalData@@V?$allocator@URentalData@@@std@@@std@@@std@@QBE_NABV01@@Z PROC ; std::_Vector_const_iterator<std::_Vector_val<RentalData,std::allocator<RentalData> > >::operator==, COMDAT
; _this$ = ecx

; 201  : 		{	// test for iterator equality

  00000	55		 push	 ebp
  00001	8b ec		 mov	 ebp, esp

; 202  : 		_Compat(_Right);
; 203  : 		return (this->_Ptr == _Right._Ptr);

  00003	8b 01		 mov	 eax, DWORD PTR [ecx]
  00005	8b 4d 08	 mov	 ecx, DWORD PTR __Right$[ebp]
  00008	2b 01		 sub	 eax, DWORD PTR [ecx]
  0000a	f7 d8		 neg	 eax
  0000c	1b c0		 sbb	 eax, eax
  0000e	40		 inc	 eax

; 204  : 		}

  0000f	5d		 pop	 ebp
  00010	c2 04 00	 ret	 4
??8?$_Vector_const_iterator@V?$_Vector_val@URentalData@@V?$allocator@URentalData@@@std@@@std@@@std@@QBE_NABV01@@Z ENDP ; std::_Vector_const_iterator<std::_Vector_val<RentalData,std::allocator<RentalData> > >::operator==
_TEXT	ENDS
PUBLIC	?max_size@?$vector@URentalData@@V?$allocator@URentalData@@@std@@@std@@QBEIXZ ; std::vector<RentalData,std::allocator<RentalData> >::max_size
; Function compile flags: /Ogsp
;	COMDAT ?max_size@?$vector@URentalData@@V?$allocator@URentalData@@@std@@@std@@QBEIXZ
_TEXT	SEGMENT
?max_size@?$vector@URentalData@@V?$allocator@URentalData@@@std@@@std@@QBEIXZ PROC ; std::vector<RentalData,std::allocator<RentalData> >::max_size, COMDAT
; _this$ = ecx

; 884  : 		return (this->_Alval.max_size());

  00000	b8 11 11 11 01	 mov	 eax, 17895697		; 01111111H

; 885  : 		}

  00005	c3		 ret	 0
?max_size@?$vector@URentalData@@V?$allocator@URentalData@@@std@@@std@@QBEIXZ ENDP ; std::vector<RentalData,std::allocator<RentalData> >::max_size
_TEXT	ENDS
PUBLIC	?_Grow_to@?$vector@URentalData@@V?$allocator@URentalData@@@std@@@std@@IBEII@Z ; std::vector<RentalData,std::allocator<RentalData> >::_Grow_to
; Function compile flags: /Ogsp
;	COMDAT ?_Grow_to@?$vector@URentalData@@V?$allocator@URentalData@@@std@@@std@@IBEII@Z
_TEXT	SEGMENT
__Count$ = 8						; size = 4
?_Grow_to@?$vector@URentalData@@V?$allocator@URentalData@@@std@@@std@@IBEII@Z PROC ; std::vector<RentalData,std::allocator<RentalData> >::_Grow_to, COMDAT
; _this$ = ecx

; 1274 : 		{	// grow by 50% or at least to _Count

  00000	55		 push	 ebp
  00001	8b ec		 mov	 ebp, esp

; 1275 : 		size_type _Capacity = capacity();

  00003	8b 41 08	 mov	 eax, DWORD PTR [ecx+8]
  00006	2b 01		 sub	 eax, DWORD PTR [ecx]
  00008	b9 f0 00 00 00	 mov	 ecx, 240		; 000000f0H
  0000d	99		 cdq
  0000e	f7 f9		 idiv	 ecx

; 1276 : 
; 1277 : 		_Capacity = max_size() - _Capacity / 2 < _Capacity
; 1278 : 			? 0 : _Capacity + _Capacity / 2;	// try to grow by 50%

  00010	ba 11 11 11 01	 mov	 edx, 17895697		; 01111111H
  00015	8b c8		 mov	 ecx, eax
  00017	d1 e9		 shr	 ecx, 1
  00019	2b d1		 sub	 edx, ecx
  0001b	3b d0		 cmp	 edx, eax
  0001d	73 04		 jae	 SHORT $LN4@Grow_to
  0001f	33 c0		 xor	 eax, eax
  00021	eb 02		 jmp	 SHORT $LN5@Grow_to
$LN4@Grow_to:
  00023	03 c1		 add	 eax, ecx
$LN5@Grow_to:

; 1279 : 		if (_Capacity < _Count)

  00025	3b 45 08	 cmp	 eax, DWORD PTR __Count$[ebp]

; 1280 : 			_Capacity = _Count;

  00028	0f 42 45 08	 cmovb	 eax, DWORD PTR __Count$[ebp]

; 1281 : 		return (_Capacity);
; 1282 : 		}

  0002c	5d		 pop	 ebp
  0002d	c2 04 00	 ret	 4
?_Grow_to@?$vector@URentalData@@V?$allocator@URentalData@@@std@@@std@@IBEII@Z ENDP ; std::vector<RentalData,std::allocator<RentalData> >::_Grow_to
_TEXT	ENDS
PUBLIC	??0?$_Vector_const_iterator@V?$_Vector_val@URentalData@@V?$allocator@URentalData@@@std@@@std@@@std@@QAE@PAURentalData@@PBU_Container_base0@1@@Z ; std::_Vector_const_iterator<std::_Vector_val<RentalData,std::allocator<RentalData> > >::_Vector_const_iterator<std::_Vector_val<RentalData,std::allocator<RentalData> > >
; Function compile flags: /Ogsp
;	COMDAT ??0?$_Vector_const_iterator@V?$_Vector_val@URentalData@@V?$allocator@URentalData@@@std@@@std@@@std@@QAE@PAURentalData@@PBU_Container_base0@1@@Z
_TEXT	SEGMENT
__Parg$ = 8						; size = 4
__Pvector$ = 12						; size = 4
??0?$_Vector_const_iterator@V?$_Vector_val@URentalData@@V?$allocator@URentalData@@@std@@@std@@@std@@QAE@PAURentalData@@PBU_Container_base0@1@@Z PROC ; std::_Vector_const_iterator<std::_Vector_val<RentalData,std::allocator<RentalData> > >::_Vector_const_iterator<std::_Vector_val<RentalData,std::allocator<RentalData> > >, COMDAT
; _this$ = ecx

; 45   : 		{	// construct with pointer _Parg

  00000	55		 push	 ebp
  00001	8b ec		 mov	 ebp, esp
  00003	8b c1		 mov	 eax, ecx
  00005	8b 4d 08	 mov	 ecx, DWORD PTR __Parg$[ebp]
  00008	89 08		 mov	 DWORD PTR [eax], ecx

; 46   : 		this->_Adopt(_Pvector);
; 47   : 		}

  0000a	5d		 pop	 ebp
  0000b	c2 08 00	 ret	 8
??0?$_Vector_const_iterator@V?$_Vector_val@URentalData@@V?$allocator@URentalData@@@std@@@std@@@std@@QAE@PAURentalData@@PBU_Container_base0@1@@Z ENDP ; std::_Vector_const_iterator<std::_Vector_val<RentalData,std::allocator<RentalData> > >::_Vector_const_iterator<std::_Vector_val<RentalData,std::allocator<RentalData> > >
_TEXT	ENDS
PUBLIC	?allocate@?$allocator@URentalData@@@std@@QAEPAURentalData@@I@Z ; std::allocator<RentalData>::allocate
; Function compile flags: /Ogsp
; File c:\program files (x86)\microsoft visual studio 10.0\vc\include\xmemory
;	COMDAT ?allocate@?$allocator@URentalData@@@std@@QAEPAURentalData@@I@Z
_TEXT	SEGMENT
__Count$ = 8						; size = 4
?allocate@?$allocator@URentalData@@@std@@QAEPAURentalData@@I@Z PROC ; std::allocator<RentalData>::allocate, COMDAT
; _this$ = ecx

; 186  : 		{	// allocate array of _Count elements

  00000	55		 push	 ebp
  00001	8b ec		 mov	 ebp, esp

; 187  : 		return (_Allocate(_Count, (pointer)0));

  00003	6a 00		 push	 0
  00005	ff 75 08	 push	 DWORD PTR __Count$[ebp]
  00008	e8 00 00 00 00	 call	 ??$_Allocate@URentalData@@@std@@YAPAURentalData@@IPAU1@@Z ; std::_Allocate<RentalData>
  0000d	59		 pop	 ecx
  0000e	59		 pop	 ecx

; 188  : 		}

  0000f	5d		 pop	 ebp
  00010	c2 04 00	 ret	 4
?allocate@?$allocator@URentalData@@@std@@QAEPAURentalData@@I@Z ENDP ; std::allocator<RentalData>::allocate
_TEXT	ENDS
PUBLIC	?construct@?$allocator@H@std@@QAEXPAHABH@Z	; std::allocator<int>::construct
; Function compile flags: /Ogsp
;	COMDAT ?construct@?$allocator@H@std@@QAEXPAHABH@Z
_TEXT	SEGMENT
__Ptr$ = 8						; size = 4
__Val$ = 12						; size = 4
?construct@?$allocator@H@std@@QAEXPAHABH@Z PROC		; std::allocator<int>::construct, COMDAT
; _this$ = ecx

; 196  : 		{	// construct object at _Ptr with value _Val

  00000	55		 push	 ebp
  00001	8b ec		 mov	 ebp, esp

; 197  : 		_Construct(_Ptr, _Val);

  00003	8b 45 08	 mov	 eax, DWORD PTR __Ptr$[ebp]
  00006	85 c0		 test	 eax, eax
  00008	74 07		 je	 SHORT $LN5@construct
  0000a	8b 4d 0c	 mov	 ecx, DWORD PTR __Val$[ebp]
  0000d	8b 09		 mov	 ecx, DWORD PTR [ecx]
  0000f	89 08		 mov	 DWORD PTR [eax], ecx
$LN5@construct:

; 198  : 		}

  00011	5d		 pop	 ebp
  00012	c2 08 00	 ret	 8
?construct@?$allocator@H@std@@QAEXPAHABH@Z ENDP		; std::allocator<int>::construct
_TEXT	ENDS
PUBLIC	??$construct@AAH@?$allocator@H@std@@QAEXPAHAAH@Z ; std::allocator<int>::construct<int &>
; Function compile flags: /Ogsp
;	COMDAT ??$construct@AAH@?$allocator@H@std@@QAEXPAHAAH@Z
_TEXT	SEGMENT
__Ptr$ = 8						; size = 4
__Val$ = 12						; size = 4
??$construct@AAH@?$allocator@H@std@@QAEXPAHAAH@Z PROC	; std::allocator<int>::construct<int &>, COMDAT
; _this$ = ecx

; 206  : 		void construct(pointer _Ptr, _Other&& _Val)

  00000	55		 push	 ebp
  00001	8b ec		 mov	 ebp, esp

; 207  : 		{	// construct object at _Ptr with value _Val
; 208  : 		::new ((void _FARQ *)_Ptr) _Ty(_STD forward<_Other>(_Val));

  00003	8b 45 08	 mov	 eax, DWORD PTR __Ptr$[ebp]
  00006	85 c0		 test	 eax, eax
  00008	74 07		 je	 SHORT $LN3@construct@2
  0000a	8b 4d 0c	 mov	 ecx, DWORD PTR __Val$[ebp]
  0000d	8b 09		 mov	 ecx, DWORD PTR [ecx]
  0000f	89 08		 mov	 DWORD PTR [eax], ecx
$LN3@construct@2:

; 209  : 		}

  00011	5d		 pop	 ebp
  00012	c2 08 00	 ret	 8
??$construct@AAH@?$allocator@H@std@@QAEXPAHAAH@Z ENDP	; std::allocator<int>::construct<int &>
_TEXT	ENDS
PUBLIC	?begin@?$vector@KV?$allocator@K@std@@@std@@QBE?AV?$_Vector_const_iterator@V?$_Vector_val@KV?$allocator@K@std@@@std@@@2@XZ ; std::vector<unsigned long,std::allocator<unsigned long> >::begin
; Function compile flags: /Ogsp
; File c:\program files (x86)\microsoft visual studio 10.0\vc\include\vector
;	COMDAT ?begin@?$vector@KV?$allocator@K@std@@@std@@QBE?AV?$_Vector_const_iterator@V?$_Vector_val@KV?$allocator@K@std@@@std@@@2@XZ
_TEXT	SEGMENT
___$ReturnUdt$ = 8					; size = 4
?begin@?$vector@KV?$allocator@K@std@@@std@@QBE?AV?$_Vector_const_iterator@V?$_Vector_val@KV?$allocator@K@std@@@std@@@2@XZ PROC ; std::vector<unsigned long,std::allocator<unsigned long> >::begin, COMDAT
; _this$ = ecx

; 786  : 		{	// return iterator for beginning of nonmutable sequence

  00000	55		 push	 ebp
  00001	8b ec		 mov	 ebp, esp

; 787  : 		return (const_iterator(this->_Myfirst, this));

  00003	8b 09		 mov	 ecx, DWORD PTR [ecx]
  00005	8b 45 08	 mov	 eax, DWORD PTR ___$ReturnUdt$[ebp]
  00008	89 08		 mov	 DWORD PTR [eax], ecx

; 788  : 		}

  0000a	5d		 pop	 ebp
  0000b	c2 04 00	 ret	 4
?begin@?$vector@KV?$allocator@K@std@@@std@@QBE?AV?$_Vector_const_iterator@V?$_Vector_val@KV?$allocator@K@std@@@std@@@2@XZ ENDP ; std::vector<unsigned long,std::allocator<unsigned long> >::begin
_TEXT	ENDS
PUBLIC	?end@?$vector@KV?$allocator@K@std@@@std@@QBE?AV?$_Vector_const_iterator@V?$_Vector_val@KV?$allocator@K@std@@@std@@@2@XZ ; std::vector<unsigned long,std::allocator<unsigned long> >::end
; Function compile flags: /Ogsp
;	COMDAT ?end@?$vector@KV?$allocator@K@std@@@std@@QBE?AV?$_Vector_const_iterator@V?$_Vector_val@KV?$allocator@K@std@@@std@@@2@XZ
_TEXT	SEGMENT
___$ReturnUdt$ = 8					; size = 4
?end@?$vector@KV?$allocator@K@std@@@std@@QBE?AV?$_Vector_const_iterator@V?$_Vector_val@KV?$allocator@K@std@@@std@@@2@XZ PROC ; std::vector<unsigned long,std::allocator<unsigned long> >::end, COMDAT
; _this$ = ecx

; 796  : 		{	// return iterator for end of nonmutable sequence

  00000	55		 push	 ebp
  00001	8b ec		 mov	 ebp, esp

; 797  : 		return (const_iterator(this->_Mylast, this));

  00003	8b 49 04	 mov	 ecx, DWORD PTR [ecx+4]
  00006	8b 45 08	 mov	 eax, DWORD PTR ___$ReturnUdt$[ebp]
  00009	89 08		 mov	 DWORD PTR [eax], ecx

; 798  : 		}

  0000b	5d		 pop	 ebp
  0000c	c2 04 00	 ret	 4
?end@?$vector@KV?$allocator@K@std@@@std@@QBE?AV?$_Vector_const_iterator@V?$_Vector_val@KV?$allocator@K@std@@@std@@@2@XZ ENDP ; std::vector<unsigned long,std::allocator<unsigned long> >::end
_TEXT	ENDS
PUBLIC	??$_Copy_impl@PAKPAK@std@@YAPAKPAK00@Z		; std::_Copy_impl<unsigned long *,unsigned long *>
; Function compile flags: /Ogsp
; File c:\program files (x86)\microsoft visual studio 10.0\vc\include\xutility
;	COMDAT ??$_Copy_impl@PAKPAK@std@@YAPAKPAK00@Z
_TEXT	SEGMENT
__Cat$511912 = -4					; size = 1
__First$ = 8						; size = 4
__Last$ = 12						; size = 4
__Dest$ = 16						; size = 4
??$_Copy_impl@PAKPAK@std@@YAPAKPAK00@Z PROC		; std::_Copy_impl<unsigned long *,unsigned long *>, COMDAT

; 2163 : 	{	// copy [_First, _Last) to [_Dest, ...)

  00000	55		 push	 ebp
  00001	8b ec		 mov	 ebp, esp
  00003	51		 push	 ecx

; 2164 : 	return (_Copy_impl(_First, _Last,
; 2165 : 		_Dest, _Ptr_cat(_First, _Dest)));

  00004	ff 75 fc	 push	 DWORD PTR __Cat$511912[ebp]
  00007	ff 75 10	 push	 DWORD PTR __Dest$[ebp]
  0000a	ff 75 0c	 push	 DWORD PTR __Last$[ebp]
  0000d	ff 75 08	 push	 DWORD PTR __First$[ebp]
  00010	e8 00 00 00 00	 call	 ??$_Copy_impl@PAKPAK@std@@YAPAKPAK00U_Scalar_ptr_iterator_tag@0@@Z ; std::_Copy_impl<unsigned long *,unsigned long *>
  00015	83 c4 10	 add	 esp, 16			; 00000010H

; 2166 : 	}

  00018	c9		 leave
  00019	c3		 ret	 0
??$_Copy_impl@PAKPAK@std@@YAPAKPAK00@Z ENDP		; std::_Copy_impl<unsigned long *,unsigned long *>
_TEXT	ENDS
PUBLIC	??$_Uninitialized_copy@PAKPAKV?$allocator@K@std@@@std@@YAPAKPAK00AAV?$allocator@K@0@@Z ; std::_Uninitialized_copy<unsigned long *,unsigned long *,std::allocator<unsigned long> >
; Function compile flags: /Ogsp
; File c:\program files (x86)\microsoft visual studio 10.0\vc\include\memory
;	COMDAT ??$_Uninitialized_copy@PAKPAKV?$allocator@K@std@@@std@@YAPAKPAK00AAV?$allocator@K@0@@Z
_TEXT	SEGMENT
__Cat$511919 = -4					; size = 1
__First$ = 8						; size = 4
__Last$ = 12						; size = 4
__Dest$ = 16						; size = 4
__Al$ = 20						; size = 4
??$_Uninitialized_copy@PAKPAKV?$allocator@K@std@@@std@@YAPAKPAK00AAV?$allocator@K@0@@Z PROC ; std::_Uninitialized_copy<unsigned long *,unsigned long *,std::allocator<unsigned long> >, COMDAT

; 412  : 	{	// copy [_First, _Last) to raw _Dest, using _Al

  00000	55		 push	 ebp
  00001	8b ec		 mov	 ebp, esp
  00003	51		 push	 ecx

; 413  : 	return (_Uninit_copy(_First, _Last, _Dest, _Al,
; 414  : 		_Ptr_cat(_First, _Dest)));

  00004	ff 75 fc	 push	 DWORD PTR __Cat$511919[ebp]
  00007	ff 75 14	 push	 DWORD PTR __Al$[ebp]
  0000a	ff 75 10	 push	 DWORD PTR __Dest$[ebp]
  0000d	ff 75 0c	 push	 DWORD PTR __Last$[ebp]
  00010	ff 75 08	 push	 DWORD PTR __First$[ebp]
  00013	e8 00 00 00 00	 call	 ??$_Uninit_copy@KK@std@@YAPAKPAK00AAV?$allocator@K@0@U_Scalar_ptr_iterator_tag@0@@Z ; std::_Uninit_copy<unsigned long,unsigned long>
  00018	83 c4 14	 add	 esp, 20			; 00000014H

; 415  : 	}

  0001b	c9		 leave
  0001c	c3		 ret	 0
??$_Uninitialized_copy@PAKPAKV?$allocator@K@std@@@std@@YAPAKPAK00AAV?$allocator@K@0@@Z ENDP ; std::_Uninitialized_copy<unsigned long *,unsigned long *,std::allocator<unsigned long> >
_TEXT	ENDS
PUBLIC	?destroy@?$allocator@K@std@@QAEXPAK@Z		; std::allocator<unsigned long>::destroy
; Function compile flags: /Ogsp
; File c:\program files (x86)\microsoft visual studio 10.0\vc\include\xmemory
;	COMDAT ?destroy@?$allocator@K@std@@QAEXPAK@Z
_TEXT	SEGMENT
__Ptr$ = 8						; size = 4
?destroy@?$allocator@K@std@@QAEXPAK@Z PROC		; std::allocator<unsigned long>::destroy, COMDAT
; _this$ = ecx

; 213  : 		_Destroy(_Ptr);
; 214  : 		}

  00000	c2 04 00	 ret	 4
?destroy@?$allocator@K@std@@QAEXPAK@Z ENDP		; std::allocator<unsigned long>::destroy
_TEXT	ENDS
PUBLIC	??B?$CEncrypt@H@@QAEHXZ				; CEncrypt<int>::operator int
; Function compile flags: /Ogsp
; File d:\lost saga for developer\youtube\tutorial\source\src\lsclient\encryptvalue.h
;	COMDAT ??B?$CEncrypt@H@@QAEHXZ
_TEXT	SEGMENT
_value$ = -4						; size = 4
??B?$CEncrypt@H@@QAEHXZ PROC				; CEncrypt<int>::operator int, COMDAT
; _this$ = ecx

; 134  : 	{

  00000	55		 push	 ebp
  00001	8b ec		 mov	 ebp, esp
  00003	51		 push	 ecx

; 135  : 		type value;
; 136  : 		DecryptValueToPool(&value);

  00004	8d 45 fc	 lea	 eax, DWORD PTR _value$[ebp]
  00007	50		 push	 eax
  00008	e8 00 00 00 00	 call	 ?DecryptValueToPool@?$CEncrypt@H@@QAEXPAH@Z ; CEncrypt<int>::DecryptValueToPool

; 137  : 
; 138  : #ifdef _NOTUSE
; 139  : 		Debug();
; 140  : #endif
; 141  : 		return value;

  0000d	8b 45 fc	 mov	 eax, DWORD PTR _value$[ebp]

; 142  : 	}

  00010	c9		 leave
  00011	c3		 ret	 0
??B?$CEncrypt@H@@QAEHXZ ENDP				; CEncrypt<int>::operator int
_TEXT	ENDS
PUBLIC	??4?$CEncrypt@H@@QAEHH@Z			; CEncrypt<int>::operator=
; Function compile flags: /Ogsp
;	COMDAT ??4?$CEncrypt@H@@QAEHH@Z
_TEXT	SEGMENT
_value$ = 8						; size = 4
_inValue$ = 8						; size = 4
??4?$CEncrypt@H@@QAEHH@Z PROC				; CEncrypt<int>::operator=, COMDAT
; _this$ = ecx

; 843  : 	{

  00000	55		 push	 ebp
  00001	8b ec		 mov	 ebp, esp

; 844  : 		type value = inValue;

  00003	8b 45 08	 mov	 eax, DWORD PTR _inValue$[ebp]
  00006	89 45 08	 mov	 DWORD PTR _value$[ebp], eax

; 845  : 		EncryptValueToPool((char*)&value);

  00009	8d 45 08	 lea	 eax, DWORD PTR _value$[ebp]
  0000c	50		 push	 eax
  0000d	e8 00 00 00 00	 call	 ?EncryptValueToPool@?$CEncrypt@H@@AAEXPBD@Z ; CEncrypt<int>::EncryptValueToPool

; 846  : #ifdef _NOTUSE
; 847  : 		m_value = inValue;
; 848  : 		Debug();
; 849  : #endif
; 850  : 		return value;

  00012	8b 45 08	 mov	 eax, DWORD PTR _value$[ebp]

; 851  : 	}

  00015	5d		 pop	 ebp
  00016	c2 04 00	 ret	 4
??4?$CEncrypt@H@@QAEHH@Z ENDP				; CEncrypt<int>::operator=
_TEXT	ENDS
PUBLIC	??0?$_Vector_val@KV?$allocator@K@std@@@std@@QAE@V?$allocator@K@1@@Z ; std::_Vector_val<unsigned long,std::allocator<unsigned long> >::_Vector_val<unsigned long,std::allocator<unsigned long> >
; Function compile flags: /Ogsp
; File c:\program files (x86)\microsoft visual studio 10.0\vc\include\vector
;	COMDAT ??0?$_Vector_val@KV?$allocator@K@std@@@std@@QAE@V?$allocator@K@1@@Z
_TEXT	SEGMENT
__Al$ = 8						; size = 1
??0?$_Vector_val@KV?$allocator@K@std@@@std@@QAE@V?$allocator@K@1@@Z PROC ; std::_Vector_val<unsigned long,std::allocator<unsigned long> >::_Vector_val<unsigned long,std::allocator<unsigned long> >, COMDAT
; _this$ = ecx

; 426  : 		{	// construct allocator from _Al

  00000	8b c1		 mov	 eax, ecx

; 427  : 		_Myfirst = 0;

  00002	33 c9		 xor	 ecx, ecx
  00004	89 08		 mov	 DWORD PTR [eax], ecx

; 428  : 		_Mylast = 0;

  00006	89 48 04	 mov	 DWORD PTR [eax+4], ecx

; 429  : 		_Myend = 0;

  00009	89 48 08	 mov	 DWORD PTR [eax+8], ecx

; 430  : 		}

  0000c	c2 04 00	 ret	 4
??0?$_Vector_val@KV?$allocator@K@std@@@std@@QAE@V?$allocator@K@1@@Z ENDP ; std::_Vector_val<unsigned long,std::allocator<unsigned long> >::_Vector_val<unsigned long,std::allocator<unsigned long> >
_TEXT	ENDS
PUBLIC	?max_size@?$vector@HV?$allocator@H@std@@@std@@QBEIXZ ; std::vector<int,std::allocator<int> >::max_size
; Function compile flags: /Ogsp
;	COMDAT ?max_size@?$vector@HV?$allocator@H@std@@@std@@QBEIXZ
_TEXT	SEGMENT
?max_size@?$vector@HV?$allocator@H@std@@@std@@QBEIXZ PROC ; std::vector<int,std::allocator<int> >::max_size, COMDAT
; _this$ = ecx

; 884  : 		return (this->_Alval.max_size());

  00000	b8 ff ff ff 3f	 mov	 eax, 1073741823		; 3fffffffH

; 885  : 		}

  00005	c3		 ret	 0
?max_size@?$vector@HV?$allocator@H@std@@@std@@QBEIXZ ENDP ; std::vector<int,std::allocator<int> >::max_size
_TEXT	ENDS
PUBLIC	?_Grow_to@?$vector@HV?$allocator@H@std@@@std@@IBEII@Z ; std::vector<int,std::allocator<int> >::_Grow_to
; Function compile flags: /Ogsp
;	COMDAT ?_Grow_to@?$vector@HV?$allocator@H@std@@@std@@IBEII@Z
_TEXT	SEGMENT
__Count$ = 8						; size = 4
?_Grow_to@?$vector@HV?$allocator@H@std@@@std@@IBEII@Z PROC ; std::vector<int,std::allocator<int> >::_Grow_to, COMDAT
; _this$ = ecx

; 1274 : 		{	// grow by 50% or at least to _Count

  00000	55		 push	 ebp
  00001	8b ec		 mov	 ebp, esp

; 1275 : 		size_type _Capacity = capacity();

  00003	8b 41 08	 mov	 eax, DWORD PTR [ecx+8]
  00006	2b 01		 sub	 eax, DWORD PTR [ecx]

; 1276 : 
; 1277 : 		_Capacity = max_size() - _Capacity / 2 < _Capacity
; 1278 : 			? 0 : _Capacity + _Capacity / 2;	// try to grow by 50%

  00008	ba ff ff ff 3f	 mov	 edx, 1073741823		; 3fffffffH
  0000d	c1 f8 02	 sar	 eax, 2
  00010	8b c8		 mov	 ecx, eax
  00012	d1 e9		 shr	 ecx, 1
  00014	2b d1		 sub	 edx, ecx
  00016	3b d0		 cmp	 edx, eax
  00018	73 04		 jae	 SHORT $LN4@Grow_to@2
  0001a	33 c0		 xor	 eax, eax
  0001c	eb 02		 jmp	 SHORT $LN5@Grow_to@2
$LN4@Grow_to@2:
  0001e	03 c1		 add	 eax, ecx
$LN5@Grow_to@2:

; 1279 : 		if (_Capacity < _Count)

  00020	3b 45 08	 cmp	 eax, DWORD PTR __Count$[ebp]

; 1280 : 			_Capacity = _Count;

  00023	0f 42 45 08	 cmovb	 eax, DWORD PTR __Count$[ebp]

; 1281 : 		return (_Capacity);
; 1282 : 		}

  00027	5d		 pop	 ebp
  00028	c2 04 00	 ret	 4
?_Grow_to@?$vector@HV?$allocator@H@std@@@std@@IBEII@Z ENDP ; std::vector<int,std::allocator<int> >::_Grow_to
_TEXT	ENDS
PUBLIC	?max_size@?$vector@KV?$allocator@K@std@@@std@@QBEIXZ ; std::vector<unsigned long,std::allocator<unsigned long> >::max_size
; Function compile flags: /Ogsp
;	COMDAT ?max_size@?$vector@KV?$allocator@K@std@@@std@@QBEIXZ
_TEXT	SEGMENT
?max_size@?$vector@KV?$allocator@K@std@@@std@@QBEIXZ PROC ; std::vector<unsigned long,std::allocator<unsigned long> >::max_size, COMDAT
; _this$ = ecx

; 884  : 		return (this->_Alval.max_size());

  00000	b8 ff ff ff 3f	 mov	 eax, 1073741823		; 3fffffffH

; 885  : 		}

  00005	c3		 ret	 0
?max_size@?$vector@KV?$allocator@K@std@@@std@@QBEIXZ ENDP ; std::vector<unsigned long,std::allocator<unsigned long> >::max_size
_TEXT	ENDS
PUBLIC	??0?$_Vector_iterator@V?$_Vector_val@KV?$allocator@K@std@@@std@@@std@@QAE@PAKPBU_Container_base0@1@@Z ; std::_Vector_iterator<std::_Vector_val<unsigned long,std::allocator<unsigned long> > >::_Vector_iterator<std::_Vector_val<unsigned long,std::allocator<unsigned long> > >
; Function compile flags: /Ogsp
;	COMDAT ??0?$_Vector_iterator@V?$_Vector_val@KV?$allocator@K@std@@@std@@@std@@QAE@PAKPBU_Container_base0@1@@Z
_TEXT	SEGMENT
__Parg$ = 8						; size = 4
__Pvector$ = 12						; size = 4
??0?$_Vector_iterator@V?$_Vector_val@KV?$allocator@K@std@@@std@@@std@@QAE@PAKPBU_Container_base0@1@@Z PROC ; std::_Vector_iterator<std::_Vector_val<unsigned long,std::allocator<unsigned long> > >::_Vector_iterator<std::_Vector_val<unsigned long,std::allocator<unsigned long> > >, COMDAT
; _this$ = ecx

; 304  : 		{	// construct with pointer _Parg

  00000	55		 push	 ebp
  00001	8b ec		 mov	 ebp, esp
  00003	8b c1		 mov	 eax, ecx
  00005	8b 4d 08	 mov	 ecx, DWORD PTR __Parg$[ebp]
  00008	89 08		 mov	 DWORD PTR [eax], ecx

; 305  : 		}

  0000a	5d		 pop	 ebp
  0000b	c2 08 00	 ret	 8
??0?$_Vector_iterator@V?$_Vector_val@KV?$allocator@K@std@@@std@@@std@@QAE@PAKPBU_Container_base0@1@@Z ENDP ; std::_Vector_iterator<std::_Vector_val<unsigned long,std::allocator<unsigned long> > >::_Vector_iterator<std::_Vector_val<unsigned long,std::allocator<unsigned long> > >
_TEXT	ENDS
PUBLIC	?allocate@?$allocator@H@std@@QAEPAHI@Z		; std::allocator<int>::allocate
; Function compile flags: /Ogsp
; File c:\program files (x86)\microsoft visual studio 10.0\vc\include\xmemory
;	COMDAT ?allocate@?$allocator@H@std@@QAEPAHI@Z
_TEXT	SEGMENT
__Count$ = 8						; size = 4
?allocate@?$allocator@H@std@@QAEPAHI@Z PROC		; std::allocator<int>::allocate, COMDAT
; _this$ = ecx

; 186  : 		{	// allocate array of _Count elements

  00000	55		 push	 ebp
  00001	8b ec		 mov	 ebp, esp

; 187  : 		return (_Allocate(_Count, (pointer)0));

  00003	6a 00		 push	 0
  00005	ff 75 08	 push	 DWORD PTR __Count$[ebp]
  00008	e8 00 00 00 00	 call	 ??$_Allocate@H@std@@YAPAHIPAH@Z ; std::_Allocate<int>
  0000d	59		 pop	 ecx
  0000e	59		 pop	 ecx

; 188  : 		}

  0000f	5d		 pop	 ebp
  00010	c2 04 00	 ret	 4
?allocate@?$allocator@H@std@@QAEPAHI@Z ENDP		; std::allocator<int>::allocate
_TEXT	ENDS
PUBLIC	?allocate@?$allocator@K@std@@QAEPAKI@Z		; std::allocator<unsigned long>::allocate
; Function compile flags: /Ogsp
;	COMDAT ?allocate@?$allocator@K@std@@QAEPAKI@Z
_TEXT	SEGMENT
__Count$ = 8						; size = 4
?allocate@?$allocator@K@std@@QAEPAKI@Z PROC		; std::allocator<unsigned long>::allocate, COMDAT
; _this$ = ecx

; 186  : 		{	// allocate array of _Count elements

  00000	55		 push	 ebp
  00001	8b ec		 mov	 ebp, esp

; 187  : 		return (_Allocate(_Count, (pointer)0));

  00003	6a 00		 push	 0
  00005	ff 75 08	 push	 DWORD PTR __Count$[ebp]
  00008	e8 00 00 00 00	 call	 ??$_Allocate@K@std@@YAPAKIPAK@Z ; std::_Allocate<unsigned long>
  0000d	59		 pop	 ecx
  0000e	59		 pop	 ecx

; 188  : 		}

  0000f	5d		 pop	 ebp
  00010	c2 04 00	 ret	 4
?allocate@?$allocator@K@std@@QAEPAKI@Z ENDP		; std::allocator<unsigned long>::allocate
_TEXT	ENDS
PUBLIC	??8?$_Vector_const_iterator@V?$_Vector_val@KV?$allocator@K@std@@@std@@@std@@QBE_NABV01@@Z ; std::_Vector_const_iterator<std::_Vector_val<unsigned long,std::allocator<unsigned long> > >::operator==
; Function compile flags: /Ogsp
; File c:\program files (x86)\microsoft visual studio 10.0\vc\include\vector
;	COMDAT ??8?$_Vector_const_iterator@V?$_Vector_val@KV?$allocator@K@std@@@std@@@std@@QBE_NABV01@@Z
_TEXT	SEGMENT
__Right$ = 8						; size = 4
??8?$_Vector_const_iterator@V?$_Vector_val@KV?$allocator@K@std@@@std@@@std@@QBE_NABV01@@Z PROC ; std::_Vector_const_iterator<std::_Vector_val<unsigned long,std::allocator<unsigned long> > >::operator==, COMDAT
; _this$ = ecx

; 201  : 		{	// test for iterator equality

  00000	55		 push	 ebp
  00001	8b ec		 mov	 ebp, esp

; 202  : 		_Compat(_Right);
; 203  : 		return (this->_Ptr == _Right._Ptr);

  00003	8b 01		 mov	 eax, DWORD PTR [ecx]
  00005	8b 4d 08	 mov	 ecx, DWORD PTR __Right$[ebp]
  00008	2b 01		 sub	 eax, DWORD PTR [ecx]
  0000a	f7 d8		 neg	 eax
  0000c	1b c0		 sbb	 eax, eax
  0000e	40		 inc	 eax

; 204  : 		}

  0000f	5d		 pop	 ebp
  00010	c2 04 00	 ret	 4
??8?$_Vector_const_iterator@V?$_Vector_val@KV?$allocator@K@std@@@std@@@std@@QBE_NABV01@@Z ENDP ; std::_Vector_const_iterator<std::_Vector_val<unsigned long,std::allocator<unsigned long> > >::operator==
_TEXT	ENDS
PUBLIC	??$_Move@PAKPAK@std@@YAPAKPAK00@Z		; std::_Move<unsigned long *,unsigned long *>
; Function compile flags: /Ogsp
; File c:\program files (x86)\microsoft visual studio 10.0\vc\include\xutility
;	COMDAT ??$_Move@PAKPAK@std@@YAPAKPAK00@Z
_TEXT	SEGMENT
__Cat$512007 = -4					; size = 1
__First$ = 8						; size = 4
__Last$ = 12						; size = 4
__Dest$ = 16						; size = 4
??$_Move@PAKPAK@std@@YAPAKPAK00@Z PROC			; std::_Move<unsigned long *,unsigned long *>, COMDAT

; 2533 : 	{	// move [_First, _Last) to [_Dest, ...), unchecked

  00000	55		 push	 ebp
  00001	8b ec		 mov	 ebp, esp
  00003	51		 push	 ecx

; 2534 : 	return (_Move(_First, _Last,
; 2535 : 		_Dest, _Ptr_cat(_First, _Dest)));

  00004	ff 75 fc	 push	 DWORD PTR __Cat$512007[ebp]
  00007	ff 75 10	 push	 DWORD PTR __Dest$[ebp]
  0000a	ff 75 0c	 push	 DWORD PTR __Last$[ebp]
  0000d	ff 75 08	 push	 DWORD PTR __First$[ebp]
  00010	e8 00 00 00 00	 call	 ??$_Move@PAKPAK@std@@YAPAKPAK00U_Scalar_ptr_iterator_tag@0@@Z ; std::_Move<unsigned long *,unsigned long *>
  00015	83 c4 10	 add	 esp, 16			; 00000010H

; 2536 : 	}

  00018	c9		 leave
  00019	c3		 ret	 0
??$_Move@PAKPAK@std@@YAPAKPAK00@Z ENDP			; std::_Move<unsigned long *,unsigned long *>
_TEXT	ENDS
PUBLIC	??$_Destroy_range@V?$allocator@H@std@@@std@@YAXPAH0AAV?$allocator@H@0@@Z ; std::_Destroy_range<std::allocator<int> >
; Function compile flags: /Ogsp
; File c:\program files (x86)\microsoft visual studio 10.0\vc\include\xmemory
;	COMDAT ??$_Destroy_range@V?$allocator@H@std@@@std@@YAXPAH0AAV?$allocator@H@0@@Z
_TEXT	SEGMENT
__First$ = 8						; size = 4
__Last$ = 12						; size = 4
__Al$ = 16						; size = 4
??$_Destroy_range@V?$allocator@H@std@@@std@@YAXPAH0AAV?$allocator@H@0@@Z PROC ; std::_Destroy_range<std::allocator<int> >, COMDAT

; 88   : 	_Destroy_range(_First, _Last, _Al, _Ptr_cat(_First, _Last));
; 89   : 	}

  00000	c3		 ret	 0
??$_Destroy_range@V?$allocator@H@std@@@std@@YAXPAH0AAV?$allocator@H@0@@Z ENDP ; std::_Destroy_range<std::allocator<int> >
_TEXT	ENDS
PUBLIC	??$_Destroy_range@V?$allocator@K@std@@@std@@YAXPAK0AAV?$allocator@K@0@@Z ; std::_Destroy_range<std::allocator<unsigned long> >
; Function compile flags: /Ogsp
;	COMDAT ??$_Destroy_range@V?$allocator@K@std@@@std@@YAXPAK0AAV?$allocator@K@0@@Z
_TEXT	SEGMENT
__First$ = 8						; size = 4
__Last$ = 12						; size = 4
__Al$ = 16						; size = 4
??$_Destroy_range@V?$allocator@K@std@@@std@@YAXPAK0AAV?$allocator@K@0@@Z PROC ; std::_Destroy_range<std::allocator<unsigned long> >, COMDAT

; 88   : 	_Destroy_range(_First, _Last, _Al, _Ptr_cat(_First, _Last));
; 89   : 	}

  00000	c3		 ret	 0
??$_Destroy_range@V?$allocator@K@std@@@std@@YAXPAK0AAV?$allocator@K@0@@Z ENDP ; std::_Destroy_range<std::allocator<unsigned long> >
_TEXT	ENDS
PUBLIC	?construct@?$allocator@K@std@@QAEXPAKABK@Z	; std::allocator<unsigned long>::construct
; Function compile flags: /Ogsp
;	COMDAT ?construct@?$allocator@K@std@@QAEXPAKABK@Z
_TEXT	SEGMENT
__Ptr$ = 8						; size = 4
__Val$ = 12						; size = 4
?construct@?$allocator@K@std@@QAEXPAKABK@Z PROC		; std::allocator<unsigned long>::construct, COMDAT
; _this$ = ecx

; 196  : 		{	// construct object at _Ptr with value _Val

  00000	55		 push	 ebp
  00001	8b ec		 mov	 ebp, esp

; 197  : 		_Construct(_Ptr, _Val);

  00003	8b 45 08	 mov	 eax, DWORD PTR __Ptr$[ebp]
  00006	85 c0		 test	 eax, eax
  00008	74 07		 je	 SHORT $LN5@construct@3
  0000a	8b 4d 0c	 mov	 ecx, DWORD PTR __Val$[ebp]
  0000d	8b 09		 mov	 ecx, DWORD PTR [ecx]
  0000f	89 08		 mov	 DWORD PTR [eax], ecx
$LN5@construct@3:

; 198  : 		}

  00011	5d		 pop	 ebp
  00012	c2 08 00	 ret	 8
?construct@?$allocator@K@std@@QAEXPAKABK@Z ENDP		; std::allocator<unsigned long>::construct
_TEXT	ENDS
PUBLIC	??$_Uninitialized_move@PAHPAHV?$allocator@H@std@@@std@@YAPAHPAH00AAV?$allocator@H@0@@Z ; std::_Uninitialized_move<int *,int *,std::allocator<int> >
; Function compile flags: /Ogsp
; File c:\program files (x86)\microsoft visual studio 10.0\vc\include\memory
;	COMDAT ??$_Uninitialized_move@PAHPAHV?$allocator@H@std@@@std@@YAPAHPAH00AAV?$allocator@H@0@@Z
_TEXT	SEGMENT
__First$ = 8						; size = 4
__Last$ = 12						; size = 4
__Dest$ = 16						; size = 4
__Al$ = 20						; size = 4
??$_Uninitialized_move@PAHPAHV?$allocator@H@std@@@std@@YAPAHPAH00AAV?$allocator@H@0@@Z PROC ; std::_Uninitialized_move<int *,int *,std::allocator<int> >, COMDAT

; 469  : 	{	// move [_First, _Last) to raw _Dest, using _Al

  00000	55		 push	 ebp
  00001	8b ec		 mov	 ebp, esp
  00003	56		 push	 esi

; 470  : 	return (_Uninit_move(_First, _Last, _Dest, _Al,
; 471  : 		_Val_type(_First), _Ptr_cat(_First, _Dest)));

  00004	8b 75 0c	 mov	 esi, DWORD PTR __Last$[ebp]
  00007	2b 75 08	 sub	 esi, DWORD PTR __First$[ebp]
  0000a	c1 fe 02	 sar	 esi, 2
  0000d	c1 e6 02	 shl	 esi, 2
  00010	56		 push	 esi
  00011	ff 75 08	 push	 DWORD PTR __First$[ebp]
  00014	ff 75 10	 push	 DWORD PTR __Dest$[ebp]
  00017	ff 15 00 00 00
	00		 call	 DWORD PTR __imp__memmove
  0001d	83 c4 0c	 add	 esp, 12			; 0000000cH
  00020	03 c6		 add	 eax, esi
  00022	5e		 pop	 esi

; 472  : 	}

  00023	5d		 pop	 ebp
  00024	c3		 ret	 0
??$_Uninitialized_move@PAHPAHV?$allocator@H@std@@@std@@YAPAHPAH00AAV?$allocator@H@0@@Z ENDP ; std::_Uninitialized_move<int *,int *,std::allocator<int> >
_TEXT	ENDS
PUBLIC	??0?$vector@URentalData@@V?$allocator@URentalData@@@std@@@std@@QAE@XZ ; std::vector<RentalData,std::allocator<RentalData> >::vector<RentalData,std::allocator<RentalData> >
; Function compile flags: /Ogsp
; File c:\program files (x86)\microsoft visual studio 10.0\vc\include\vector
;	COMDAT ??0?$vector@URentalData@@V?$allocator@URentalData@@@std@@@std@@QAE@XZ
_TEXT	SEGMENT
??0?$vector@URentalData@@V?$allocator@URentalData@@@std@@@std@@QAE@XZ PROC ; std::vector<RentalData,std::allocator<RentalData> >::vector<RentalData,std::allocator<RentalData> >, COMDAT
; _this$ = ecx

; 507  : 		{	// construct empty vector

  00000	8b c1		 mov	 eax, ecx
  00002	33 c9		 xor	 ecx, ecx
  00004	89 08		 mov	 DWORD PTR [eax], ecx
  00006	89 48 04	 mov	 DWORD PTR [eax+4], ecx
  00009	89 48 08	 mov	 DWORD PTR [eax+8], ecx

; 508  : 		}

  0000c	c3		 ret	 0
??0?$vector@URentalData@@V?$allocator@URentalData@@@std@@@std@@QAE@XZ ENDP ; std::vector<RentalData,std::allocator<RentalData> >::vector<RentalData,std::allocator<RentalData> >
_TEXT	ENDS
PUBLIC	??9?$_Vector_const_iterator@V?$_Vector_val@URentalData@@V?$allocator@URentalData@@@std@@@std@@@std@@QBE_NABV01@@Z ; std::_Vector_const_iterator<std::_Vector_val<RentalData,std::allocator<RentalData> > >::operator!=
; Function compile flags: /Ogsp
;	COMDAT ??9?$_Vector_const_iterator@V?$_Vector_val@URentalData@@V?$allocator@URentalData@@@std@@@std@@@std@@QBE_NABV01@@Z
_TEXT	SEGMENT
__Right$ = 8						; size = 4
??9?$_Vector_const_iterator@V?$_Vector_val@URentalData@@V?$allocator@URentalData@@@std@@@std@@@std@@QBE_NABV01@@Z PROC ; std::_Vector_const_iterator<std::_Vector_val<RentalData,std::allocator<RentalData> > >::operator!=, COMDAT
; _this$ = ecx

; 207  : 		{	// test for iterator inequality

  00000	55		 push	 ebp
  00001	8b ec		 mov	 ebp, esp

; 208  : 		return (!(*this == _Right));

  00003	8b 01		 mov	 eax, DWORD PTR [ecx]
  00005	8b 55 08	 mov	 edx, DWORD PTR __Right$[ebp]
  00008	33 c9		 xor	 ecx, ecx
  0000a	3b 02		 cmp	 eax, DWORD PTR [edx]
  0000c	0f 95 c0	 setne	 al

; 209  : 		}

  0000f	5d		 pop	 ebp
  00010	c2 04 00	 ret	 4
??9?$_Vector_const_iterator@V?$_Vector_val@URentalData@@V?$allocator@URentalData@@@std@@@std@@@std@@QBE_NABV01@@Z ENDP ; std::_Vector_const_iterator<std::_Vector_val<RentalData,std::allocator<RentalData> > >::operator!=
_TEXT	ENDS
PUBLIC	??0?$_Vector_iterator@V?$_Vector_val@URentalData@@V?$allocator@URentalData@@@std@@@std@@@std@@QAE@PAURentalData@@PBU_Container_base0@1@@Z ; std::_Vector_iterator<std::_Vector_val<RentalData,std::allocator<RentalData> > >::_Vector_iterator<std::_Vector_val<RentalData,std::allocator<RentalData> > >
; Function compile flags: /Ogsp
;	COMDAT ??0?$_Vector_iterator@V?$_Vector_val@URentalData@@V?$allocator@URentalData@@@std@@@std@@@std@@QAE@PAURentalData@@PBU_Container_base0@1@@Z
_TEXT	SEGMENT
__Parg$ = 8						; size = 4
__Pvector$ = 12						; size = 4
??0?$_Vector_iterator@V?$_Vector_val@URentalData@@V?$allocator@URentalData@@@std@@@std@@@std@@QAE@PAURentalData@@PBU_Container_base0@1@@Z PROC ; std::_Vector_iterator<std::_Vector_val<RentalData,std::allocator<RentalData> > >::_Vector_iterator<std::_Vector_val<RentalData,std::allocator<RentalData> > >, COMDAT
; _this$ = ecx

; 304  : 		{	// construct with pointer _Parg

  00000	55		 push	 ebp
  00001	8b ec		 mov	 ebp, esp
  00003	8b c1		 mov	 eax, ecx
  00005	8b 4d 08	 mov	 ecx, DWORD PTR __Parg$[ebp]
  00008	89 08		 mov	 DWORD PTR [eax], ecx

; 305  : 		}

  0000a	5d		 pop	 ebp
  0000b	c2 08 00	 ret	 8
??0?$_Vector_iterator@V?$_Vector_val@URentalData@@V?$allocator@URentalData@@@std@@@std@@@std@@QAE@PAURentalData@@PBU_Container_base0@1@@Z ENDP ; std::_Vector_iterator<std::_Vector_val<RentalData,std::allocator<RentalData> > >::_Vector_iterator<std::_Vector_val<RentalData,std::allocator<RentalData> > >
_TEXT	ENDS
PUBLIC	??$_Cons_val@V?$allocator@H@std@@HAAH@std@@YAXAAV?$allocator@H@0@PAHAAH@Z ; std::_Cons_val<std::allocator<int>,int,int &>
; Function compile flags: /Ogsp
; File c:\program files (x86)\microsoft visual studio 10.0\vc\include\xmemory
;	COMDAT ??$_Cons_val@V?$allocator@H@std@@HAAH@std@@YAXAAV?$allocator@H@0@PAHAAH@Z
_TEXT	SEGMENT
__Alval$ = 8						; size = 4
__Pdest$ = 12						; size = 4
__Src$ = 16						; size = 4
??$_Cons_val@V?$allocator@H@std@@HAAH@std@@YAXAAV?$allocator@H@0@PAHAAH@Z PROC ; std::_Cons_val<std::allocator<int>,int,int &>, COMDAT

; 279  : 	{	// construct using allocator

  00000	55		 push	 ebp
  00001	8b ec		 mov	 ebp, esp

; 280  : 	_Alval.construct(_Pdest, _STD forward<_Ty2>(_Src));

  00003	8b 45 0c	 mov	 eax, DWORD PTR __Pdest$[ebp]
  00006	85 c0		 test	 eax, eax
  00008	74 07		 je	 SHORT $LN7@Cons_val
  0000a	8b 4d 10	 mov	 ecx, DWORD PTR __Src$[ebp]
  0000d	8b 09		 mov	 ecx, DWORD PTR [ecx]
  0000f	89 08		 mov	 DWORD PTR [eax], ecx
$LN7@Cons_val:

; 281  : 	}

  00011	5d		 pop	 ebp
  00012	c3		 ret	 0
??$_Cons_val@V?$allocator@H@std@@HAAH@std@@YAXAAV?$allocator@H@0@PAHAAH@Z ENDP ; std::_Cons_val<std::allocator<int>,int,int &>
_TEXT	ENDS
PUBLIC	??$_Cons_val@V?$allocator@H@std@@HABH@std@@YAXAAV?$allocator@H@0@PAHABH@Z ; std::_Cons_val<std::allocator<int>,int,int const &>
; Function compile flags: /Ogsp
;	COMDAT ??$_Cons_val@V?$allocator@H@std@@HABH@std@@YAXAAV?$allocator@H@0@PAHABH@Z
_TEXT	SEGMENT
__Alval$ = 8						; size = 4
__Pdest$ = 12						; size = 4
__Src$ = 16						; size = 4
??$_Cons_val@V?$allocator@H@std@@HABH@std@@YAXAAV?$allocator@H@0@PAHABH@Z PROC ; std::_Cons_val<std::allocator<int>,int,int const &>, COMDAT

; 279  : 	{	// construct using allocator

  00000	55		 push	 ebp
  00001	8b ec		 mov	 ebp, esp

; 280  : 	_Alval.construct(_Pdest, _STD forward<_Ty2>(_Src));

  00003	8b 45 0c	 mov	 eax, DWORD PTR __Pdest$[ebp]
  00006	85 c0		 test	 eax, eax
  00008	74 07		 je	 SHORT $LN9@Cons_val@2
  0000a	8b 4d 10	 mov	 ecx, DWORD PTR __Src$[ebp]
  0000d	8b 09		 mov	 ecx, DWORD PTR [ecx]
  0000f	89 08		 mov	 DWORD PTR [eax], ecx
$LN9@Cons_val@2:

; 281  : 	}

  00011	5d		 pop	 ebp
  00012	c3		 ret	 0
??$_Cons_val@V?$allocator@H@std@@HABH@std@@YAXAAV?$allocator@H@0@PAHABH@Z ENDP ; std::_Cons_val<std::allocator<int>,int,int const &>
_TEXT	ENDS
PUBLIC	?_Buy@?$vector@KV?$allocator@K@std@@@std@@IAE_NI@Z ; std::vector<unsigned long,std::allocator<unsigned long> >::_Buy
; Function compile flags: /Ogsp
; File c:\program files (x86)\microsoft visual studio 10.0\vc\include\vector
;	COMDAT ?_Buy@?$vector@KV?$allocator@K@std@@@std@@IAE_NI@Z
_TEXT	SEGMENT
__Capacity$ = 8						; size = 4
?_Buy@?$vector@KV?$allocator@K@std@@@std@@IAE_NI@Z PROC	; std::vector<unsigned long,std::allocator<unsigned long> >::_Buy, COMDAT
; _this$ = ecx

; 1250 : 		{	// allocate array with _Capacity elements

  00000	55		 push	 ebp
  00001	8b ec		 mov	 ebp, esp
  00003	56		 push	 esi

; 1251 : 		this->_Myfirst = 0;

  00004	33 c0		 xor	 eax, eax
  00006	57		 push	 edi

; 1252 : 		this->_Mylast = 0;
; 1253 : 		this->_Myend = 0;
; 1254 : 
; 1255 : 		if (_Capacity == 0)

  00007	8b 7d 08	 mov	 edi, DWORD PTR __Capacity$[ebp]
  0000a	8b f1		 mov	 esi, ecx
  0000c	89 06		 mov	 DWORD PTR [esi], eax
  0000e	89 46 04	 mov	 DWORD PTR [esi+4], eax
  00011	89 46 08	 mov	 DWORD PTR [esi+8], eax
  00014	3b f8		 cmp	 edi, eax
  00016	75 04		 jne	 SHORT $LN4@Buy

; 1256 : 			return (false);

  00018	32 c0		 xor	 al, al
  0001a	eb 29		 jmp	 SHORT $LN5@Buy
$LN4@Buy:

; 1257 : 		else if (max_size() < _Capacity)

  0001c	81 ff ff ff ff
	3f		 cmp	 edi, 1073741823		; 3fffffffH
  00022	76 0b		 jbe	 SHORT $LN2@Buy

; 1258 : 			_Xlen();	// result too long

  00024	68 00 00 00 00	 push	 OFFSET ??_C@_0BD@OLBABOEK@vector?$DMT?$DO?5too?5long?$AA@
  00029	ff 15 00 00 00
	00		 call	 DWORD PTR __imp_?_Xlength_error@std@@YAXPBD@Z
$LN19@Buy:
$LN2@Buy:

; 1259 : 		else
; 1260 : 			{	// nonempty array, allocate storage
; 1261 : 			this->_Myfirst = this->_Alval.allocate(_Capacity);

  0002f	50		 push	 eax
  00030	57		 push	 edi
  00031	e8 00 00 00 00	 call	 ??$_Allocate@K@std@@YAPAKIPAK@Z ; std::_Allocate<unsigned long>
  00036	89 06		 mov	 DWORD PTR [esi], eax

; 1262 : 			this->_Mylast = this->_Myfirst;

  00038	89 46 04	 mov	 DWORD PTR [esi+4], eax

; 1263 : 			this->_Myend = this->_Myfirst + _Capacity;

  0003b	8d 04 b8	 lea	 eax, DWORD PTR [eax+edi*4]
  0003e	59		 pop	 ecx
  0003f	89 46 08	 mov	 DWORD PTR [esi+8], eax
  00042	59		 pop	 ecx

; 1264 : 			}
; 1265 : 		return (true);

  00043	b0 01		 mov	 al, 1
$LN5@Buy:
  00045	5f		 pop	 edi
  00046	5e		 pop	 esi

; 1266 : 		}

  00047	5d		 pop	 ebp
  00048	c2 04 00	 ret	 4
$LN18@Buy:
?_Buy@?$vector@KV?$allocator@K@std@@@std@@IAE_NI@Z ENDP	; std::vector<unsigned long,std::allocator<unsigned long> >::_Buy
_TEXT	ENDS
PUBLIC	??$_Ucopy@PAK@?$vector@KV?$allocator@K@std@@@std@@IAEPAKPAK00@Z ; std::vector<unsigned long,std::allocator<unsigned long> >::_Ucopy<unsigned long *>
; Function compile flags: /Ogsp
;	COMDAT ??$_Ucopy@PAK@?$vector@KV?$allocator@K@std@@@std@@IAEPAKPAK00@Z
_TEXT	SEGMENT
__First$ = 8						; size = 4
__Last$ = 12						; size = 4
__Cat$512211 = 16					; size = 1
__Ptr$ = 16						; size = 4
??$_Ucopy@PAK@?$vector@KV?$allocator@K@std@@@std@@IAEPAKPAK00@Z PROC ; std::vector<unsigned long,std::allocator<unsigned long> >::_Ucopy<unsigned long *>, COMDAT
; _this$ = ecx

; 1315 : 		pointer _Ucopy(_Iter _First, _Iter _Last, pointer _Ptr)

  00000	55		 push	 ebp
  00001	8b ec		 mov	 ebp, esp

; 1316 : 		{	// copy initializing [_First, _Last), using allocator
; 1317 : 		return (_Uninitialized_copy(_First, _Last,
; 1318 : 			_Ptr, this->_Alval));

  00003	ff 75 10	 push	 DWORD PTR __Cat$512211[ebp]
  00006	83 c1 0c	 add	 ecx, 12			; 0000000cH
  00009	51		 push	 ecx
  0000a	ff 75 10	 push	 DWORD PTR __Ptr$[ebp]
  0000d	ff 75 0c	 push	 DWORD PTR __Last$[ebp]
  00010	ff 75 08	 push	 DWORD PTR __First$[ebp]
  00013	e8 00 00 00 00	 call	 ??$_Uninit_copy@KK@std@@YAPAKPAK00AAV?$allocator@K@0@U_Scalar_ptr_iterator_tag@0@@Z ; std::_Uninit_copy<unsigned long,unsigned long>
  00018	83 c4 14	 add	 esp, 20			; 00000014H

; 1319 : 		}

  0001b	5d		 pop	 ebp
  0001c	c2 0c 00	 ret	 12			; 0000000cH
??$_Ucopy@PAK@?$vector@KV?$allocator@K@std@@@std@@IAEPAKPAK00@Z ENDP ; std::vector<unsigned long,std::allocator<unsigned long> >::_Ucopy<unsigned long *>
_TEXT	ENDS
PUBLIC	??$_Dest_val@V?$allocator@K@std@@K@std@@YAXAAV?$allocator@K@0@PAK@Z ; std::_Dest_val<std::allocator<unsigned long>,unsigned long>
; Function compile flags: /Ogsp
; File c:\program files (x86)\microsoft visual studio 10.0\vc\include\xmemory
;	COMDAT ??$_Dest_val@V?$allocator@K@std@@K@std@@YAXAAV?$allocator@K@0@PAK@Z
_TEXT	SEGMENT
__Alval$ = 8						; size = 4
__Pdest$ = 12						; size = 4
??$_Dest_val@V?$allocator@K@std@@K@std@@YAXAAV?$allocator@K@0@PAK@Z PROC ; std::_Dest_val<std::allocator<unsigned long>,unsigned long>, COMDAT

; 287  : 	_Alval.destroy(_Pdest);
; 288  : 	}

  00000	c3		 ret	 0
??$_Dest_val@V?$allocator@K@std@@K@std@@YAXAAV?$allocator@K@0@PAK@Z ENDP ; std::_Dest_val<std::allocator<unsigned long>,unsigned long>
_TEXT	ENDS
PUBLIC	?begin@?$vector@KV?$allocator@K@std@@@std@@QAE?AV?$_Vector_iterator@V?$_Vector_val@KV?$allocator@K@std@@@std@@@2@XZ ; std::vector<unsigned long,std::allocator<unsigned long> >::begin
; Function compile flags: /Ogsp
; File c:\program files (x86)\microsoft visual studio 10.0\vc\include\vector
;	COMDAT ?begin@?$vector@KV?$allocator@K@std@@@std@@QAE?AV?$_Vector_iterator@V?$_Vector_val@KV?$allocator@K@std@@@std@@@2@XZ
_TEXT	SEGMENT
___$ReturnUdt$ = 8					; size = 4
?begin@?$vector@KV?$allocator@K@std@@@std@@QAE?AV?$_Vector_iterator@V?$_Vector_val@KV?$allocator@K@std@@@std@@@2@XZ PROC ; std::vector<unsigned long,std::allocator<unsigned long> >::begin, COMDAT
; _this$ = ecx

; 781  : 		{	// return iterator for beginning of mutable sequence

  00000	55		 push	 ebp
  00001	8b ec		 mov	 ebp, esp

; 782  : 		return (iterator(this->_Myfirst, this));

  00003	8b 09		 mov	 ecx, DWORD PTR [ecx]
  00005	8b 45 08	 mov	 eax, DWORD PTR ___$ReturnUdt$[ebp]
  00008	89 08		 mov	 DWORD PTR [eax], ecx

; 783  : 		}

  0000a	5d		 pop	 ebp
  0000b	c2 04 00	 ret	 4
?begin@?$vector@KV?$allocator@K@std@@@std@@QAE?AV?$_Vector_iterator@V?$_Vector_val@KV?$allocator@K@std@@@std@@@2@XZ ENDP ; std::vector<unsigned long,std::allocator<unsigned long> >::begin
_TEXT	ENDS
PUBLIC	?end@?$vector@KV?$allocator@K@std@@@std@@QAE?AV?$_Vector_iterator@V?$_Vector_val@KV?$allocator@K@std@@@std@@@2@XZ ; std::vector<unsigned long,std::allocator<unsigned long> >::end
; Function compile flags: /Ogsp
;	COMDAT ?end@?$vector@KV?$allocator@K@std@@@std@@QAE?AV?$_Vector_iterator@V?$_Vector_val@KV?$allocator@K@std@@@std@@@2@XZ
_TEXT	SEGMENT
___$ReturnUdt$ = 8					; size = 4
?end@?$vector@KV?$allocator@K@std@@@std@@QAE?AV?$_Vector_iterator@V?$_Vector_val@KV?$allocator@K@std@@@std@@@2@XZ PROC ; std::vector<unsigned long,std::allocator<unsigned long> >::end, COMDAT
; _this$ = ecx

; 791  : 		{	// return iterator for end of mutable sequence

  00000	55		 push	 ebp
  00001	8b ec		 mov	 ebp, esp

; 792  : 		return (iterator(this->_Mylast, this));

  00003	8b 49 04	 mov	 ecx, DWORD PTR [ecx+4]
  00006	8b 45 08	 mov	 eax, DWORD PTR ___$ReturnUdt$[ebp]
  00009	89 08		 mov	 DWORD PTR [eax], ecx

; 793  : 		}

  0000b	5d		 pop	 ebp
  0000c	c2 04 00	 ret	 4
?end@?$vector@KV?$allocator@K@std@@@std@@QAE?AV?$_Vector_iterator@V?$_Vector_val@KV?$allocator@K@std@@@std@@@2@XZ ENDP ; std::vector<unsigned long,std::allocator<unsigned long> >::end
_TEXT	ENDS
PUBLIC	?_Destroy@?$vector@HV?$allocator@H@std@@@std@@IAEXPAH0@Z ; std::vector<int,std::allocator<int> >::_Destroy
; Function compile flags: /Ogsp
;	COMDAT ?_Destroy@?$vector@HV?$allocator@H@std@@@std@@IAEXPAH0@Z
_TEXT	SEGMENT
__First$ = 8						; size = 4
__Last$ = 12						; size = 4
?_Destroy@?$vector@HV?$allocator@H@std@@@std@@IAEXPAH0@Z PROC ; std::vector<int,std::allocator<int> >::_Destroy, COMDAT
; _this$ = ecx

; 1270 : 		_Destroy_range(_First, _Last, this->_Alval);
; 1271 : 		}

  00000	c2 08 00	 ret	 8
?_Destroy@?$vector@HV?$allocator@H@std@@@std@@IAEXPAH0@Z ENDP ; std::vector<int,std::allocator<int> >::_Destroy
_TEXT	ENDS
PUBLIC	?_Make_iter@?$vector@KV?$allocator@K@std@@@std@@QBE?AV?$_Vector_iterator@V?$_Vector_val@KV?$allocator@K@std@@@std@@@2@V?$_Vector_const_iterator@V?$_Vector_val@KV?$allocator@K@std@@@std@@@2@@Z ; std::vector<unsigned long,std::allocator<unsigned long> >::_Make_iter
; Function compile flags: /Ogsp
;	COMDAT ?_Make_iter@?$vector@KV?$allocator@K@std@@@std@@QBE?AV?$_Vector_iterator@V?$_Vector_val@KV?$allocator@K@std@@@std@@@2@V?$_Vector_const_iterator@V?$_Vector_val@KV?$allocator@K@std@@@std@@@2@@Z
_TEXT	SEGMENT
___$ReturnUdt$ = 8					; size = 4
__Where$ = 12						; size = 4
?_Make_iter@?$vector@KV?$allocator@K@std@@@std@@QBE?AV?$_Vector_iterator@V?$_Vector_val@KV?$allocator@K@std@@@std@@@2@V?$_Vector_const_iterator@V?$_Vector_val@KV?$allocator@K@std@@@std@@@2@@Z PROC ; std::vector<unsigned long,std::allocator<unsigned long> >::_Make_iter, COMDAT
; _this$ = ecx

; 801  : 		{	// make iterator from const_iterator

  00000	55		 push	 ebp
  00001	8b ec		 mov	 ebp, esp

; 802  : 		return (iterator(_Where._Ptr, this));

  00003	8b 45 08	 mov	 eax, DWORD PTR ___$ReturnUdt$[ebp]
  00006	8b 4d 0c	 mov	 ecx, DWORD PTR __Where$[ebp]
  00009	89 08		 mov	 DWORD PTR [eax], ecx

; 803  : 		}

  0000b	5d		 pop	 ebp
  0000c	c2 08 00	 ret	 8
?_Make_iter@?$vector@KV?$allocator@K@std@@@std@@QBE?AV?$_Vector_iterator@V?$_Vector_val@KV?$allocator@K@std@@@std@@@2@V?$_Vector_const_iterator@V?$_Vector_val@KV?$allocator@K@std@@@std@@@2@@Z ENDP ; std::vector<unsigned long,std::allocator<unsigned long> >::_Make_iter
_TEXT	ENDS
PUBLIC	?_Destroy@?$vector@KV?$allocator@K@std@@@std@@IAEXPAK0@Z ; std::vector<unsigned long,std::allocator<unsigned long> >::_Destroy
; Function compile flags: /Ogsp
;	COMDAT ?_Destroy@?$vector@KV?$allocator@K@std@@@std@@IAEXPAK0@Z
_TEXT	SEGMENT
__First$ = 8						; size = 4
__Last$ = 12						; size = 4
?_Destroy@?$vector@KV?$allocator@K@std@@@std@@IAEXPAK0@Z PROC ; std::vector<unsigned long,std::allocator<unsigned long> >::_Destroy, COMDAT
; _this$ = ecx

; 1270 : 		_Destroy_range(_First, _Last, this->_Alval);
; 1271 : 		}

  00000	c2 08 00	 ret	 8
?_Destroy@?$vector@KV?$allocator@K@std@@@std@@IAEXPAK0@Z ENDP ; std::vector<unsigned long,std::allocator<unsigned long> >::_Destroy
_TEXT	ENDS
PUBLIC	??9?$_Vector_const_iterator@V?$_Vector_val@KV?$allocator@K@std@@@std@@@std@@QBE_NABV01@@Z ; std::_Vector_const_iterator<std::_Vector_val<unsigned long,std::allocator<unsigned long> > >::operator!=
; Function compile flags: /Ogsp
;	COMDAT ??9?$_Vector_const_iterator@V?$_Vector_val@KV?$allocator@K@std@@@std@@@std@@QBE_NABV01@@Z
_TEXT	SEGMENT
__Right$ = 8						; size = 4
??9?$_Vector_const_iterator@V?$_Vector_val@KV?$allocator@K@std@@@std@@@std@@QBE_NABV01@@Z PROC ; std::_Vector_const_iterator<std::_Vector_val<unsigned long,std::allocator<unsigned long> > >::operator!=, COMDAT
; _this$ = ecx

; 207  : 		{	// test for iterator inequality

  00000	55		 push	 ebp
  00001	8b ec		 mov	 ebp, esp

; 208  : 		return (!(*this == _Right));

  00003	8b 01		 mov	 eax, DWORD PTR [ecx]
  00005	8b 55 08	 mov	 edx, DWORD PTR __Right$[ebp]
  00008	33 c9		 xor	 ecx, ecx
  0000a	3b 02		 cmp	 eax, DWORD PTR [edx]
  0000c	0f 95 c0	 setne	 al

; 209  : 		}

  0000f	5d		 pop	 ebp
  00010	c2 04 00	 ret	 4
??9?$_Vector_const_iterator@V?$_Vector_val@KV?$allocator@K@std@@@std@@@std@@QBE_NABV01@@Z ENDP ; std::_Vector_const_iterator<std::_Vector_val<unsigned long,std::allocator<unsigned long> > >::operator!=
_TEXT	ENDS
PUBLIC	??$_Cons_val@V?$allocator@K@std@@KABK@std@@YAXAAV?$allocator@K@0@PAKABK@Z ; std::_Cons_val<std::allocator<unsigned long>,unsigned long,unsigned long const &>
; Function compile flags: /Ogsp
; File c:\program files (x86)\microsoft visual studio 10.0\vc\include\xmemory
;	COMDAT ??$_Cons_val@V?$allocator@K@std@@KABK@std@@YAXAAV?$allocator@K@0@PAKABK@Z
_TEXT	SEGMENT
__Alval$ = 8						; size = 4
__Pdest$ = 12						; size = 4
__Src$ = 16						; size = 4
??$_Cons_val@V?$allocator@K@std@@KABK@std@@YAXAAV?$allocator@K@0@PAKABK@Z PROC ; std::_Cons_val<std::allocator<unsigned long>,unsigned long,unsigned long const &>, COMDAT

; 279  : 	{	// construct using allocator

  00000	55		 push	 ebp
  00001	8b ec		 mov	 ebp, esp

; 280  : 	_Alval.construct(_Pdest, _STD forward<_Ty2>(_Src));

  00003	8b 45 0c	 mov	 eax, DWORD PTR __Pdest$[ebp]
  00006	85 c0		 test	 eax, eax
  00008	74 07		 je	 SHORT $LN9@Cons_val@3
  0000a	8b 4d 10	 mov	 ecx, DWORD PTR __Src$[ebp]
  0000d	8b 09		 mov	 ecx, DWORD PTR [ecx]
  0000f	89 08		 mov	 DWORD PTR [eax], ecx
$LN9@Cons_val@3:

; 281  : 	}

  00011	5d		 pop	 ebp
  00012	c3		 ret	 0
??$_Cons_val@V?$allocator@K@std@@KABK@std@@YAXAAV?$allocator@K@0@PAKABK@Z ENDP ; std::_Cons_val<std::allocator<unsigned long>,unsigned long,unsigned long const &>
_TEXT	ENDS
PUBLIC	??$_Umove@PAH@?$vector@HV?$allocator@H@std@@@std@@IAEPAHPAH00@Z ; std::vector<int,std::allocator<int> >::_Umove<int *>
; Function compile flags: /Ogsp
; File c:\program files (x86)\microsoft visual studio 10.0\vc\include\vector
;	COMDAT ??$_Umove@PAH@?$vector@HV?$allocator@H@std@@@std@@IAEPAHPAH00@Z
_TEXT	SEGMENT
__First$ = 8						; size = 4
__Last$ = 12						; size = 4
__Ptr$ = 16						; size = 4
??$_Umove@PAH@?$vector@HV?$allocator@H@std@@@std@@IAEPAHPAH00@Z PROC ; std::vector<int,std::allocator<int> >::_Umove<int *>, COMDAT
; _this$ = ecx

; 1322 : 		pointer _Umove(_Iter _First, _Iter _Last, pointer _Ptr)

  00000	55		 push	 ebp
  00001	8b ec		 mov	 ebp, esp

; 1323 : 		{	// move initializing [_First, _Last), using allocator
; 1324 : 		return (_Uninitialized_move(_First, _Last,
; 1325 : 			_Ptr, this->_Alval));

  00003	83 c1 0c	 add	 ecx, 12			; 0000000cH
  00006	51		 push	 ecx
  00007	ff 75 10	 push	 DWORD PTR __Ptr$[ebp]
  0000a	ff 75 0c	 push	 DWORD PTR __Last$[ebp]
  0000d	ff 75 08	 push	 DWORD PTR __First$[ebp]
  00010	e8 00 00 00 00	 call	 ??$_Uninitialized_move@PAHPAHV?$allocator@H@std@@@std@@YAPAHPAH00AAV?$allocator@H@0@@Z ; std::_Uninitialized_move<int *,int *,std::allocator<int> >
  00015	83 c4 10	 add	 esp, 16			; 00000010H

; 1326 : 		}

  00018	5d		 pop	 ebp
  00019	c2 0c 00	 ret	 12			; 0000000cH
??$_Umove@PAH@?$vector@HV?$allocator@H@std@@@std@@IAEPAHPAH00@Z ENDP ; std::vector<int,std::allocator<int> >::_Umove<int *>
_TEXT	ENDS
PUBLIC	?begin@?$vector@URentalData@@V?$allocator@URentalData@@@std@@@std@@QAE?AV?$_Vector_iterator@V?$_Vector_val@URentalData@@V?$allocator@URentalData@@@std@@@std@@@2@XZ ; std::vector<RentalData,std::allocator<RentalData> >::begin
; Function compile flags: /Ogsp
;	COMDAT ?begin@?$vector@URentalData@@V?$allocator@URentalData@@@std@@@std@@QAE?AV?$_Vector_iterator@V?$_Vector_val@URentalData@@V?$allocator@URentalData@@@std@@@std@@@2@XZ
_TEXT	SEGMENT
___$ReturnUdt$ = 8					; size = 4
?begin@?$vector@URentalData@@V?$allocator@URentalData@@@std@@@std@@QAE?AV?$_Vector_iterator@V?$_Vector_val@URentalData@@V?$allocator@URentalData@@@std@@@std@@@2@XZ PROC ; std::vector<RentalData,std::allocator<RentalData> >::begin, COMDAT
; _this$ = ecx

; 781  : 		{	// return iterator for beginning of mutable sequence

  00000	55		 push	 ebp
  00001	8b ec		 mov	 ebp, esp

; 782  : 		return (iterator(this->_Myfirst, this));

  00003	8b 09		 mov	 ecx, DWORD PTR [ecx]
  00005	8b 45 08	 mov	 eax, DWORD PTR ___$ReturnUdt$[ebp]
  00008	89 08		 mov	 DWORD PTR [eax], ecx

; 783  : 		}

  0000a	5d		 pop	 ebp
  0000b	c2 04 00	 ret	 4
?begin@?$vector@URentalData@@V?$allocator@URentalData@@@std@@@std@@QAE?AV?$_Vector_iterator@V?$_Vector_val@URentalData@@V?$allocator@URentalData@@@std@@@std@@@2@XZ ENDP ; std::vector<RentalData,std::allocator<RentalData> >::begin
_TEXT	ENDS
PUBLIC	?end@?$vector@URentalData@@V?$allocator@URentalData@@@std@@@std@@QAE?AV?$_Vector_iterator@V?$_Vector_val@URentalData@@V?$allocator@URentalData@@@std@@@std@@@2@XZ ; std::vector<RentalData,std::allocator<RentalData> >::end
; Function compile flags: /Ogsp
;	COMDAT ?end@?$vector@URentalData@@V?$allocator@URentalData@@@std@@@std@@QAE?AV?$_Vector_iterator@V?$_Vector_val@URentalData@@V?$allocator@URentalData@@@std@@@std@@@2@XZ
_TEXT	SEGMENT
___$ReturnUdt$ = 8					; size = 4
?end@?$vector@URentalData@@V?$allocator@URentalData@@@std@@@std@@QAE?AV?$_Vector_iterator@V?$_Vector_val@URentalData@@V?$allocator@URentalData@@@std@@@std@@@2@XZ PROC ; std::vector<RentalData,std::allocator<RentalData> >::end, COMDAT
; _this$ = ecx

; 791  : 		{	// return iterator for end of mutable sequence

  00000	55		 push	 ebp
  00001	8b ec		 mov	 ebp, esp

; 792  : 		return (iterator(this->_Mylast, this));

  00003	8b 49 04	 mov	 ecx, DWORD PTR [ecx+4]
  00006	8b 45 08	 mov	 eax, DWORD PTR ___$ReturnUdt$[ebp]
  00009	89 08		 mov	 DWORD PTR [eax], ecx

; 793  : 		}

  0000b	5d		 pop	 ebp
  0000c	c2 04 00	 ret	 4
?end@?$vector@URentalData@@V?$allocator@URentalData@@@std@@@std@@QAE?AV?$_Vector_iterator@V?$_Vector_val@URentalData@@V?$allocator@URentalData@@@std@@@std@@@2@XZ ENDP ; std::vector<RentalData,std::allocator<RentalData> >::end
_TEXT	ENDS
PUBLIC	?_Make_iter@?$vector@URentalData@@V?$allocator@URentalData@@@std@@@std@@QBE?AV?$_Vector_iterator@V?$_Vector_val@URentalData@@V?$allocator@URentalData@@@std@@@std@@@2@V?$_Vector_const_iterator@V?$_Vector_val@URentalData@@V?$allocator@URentalData@@@std@@@std@@@2@@Z ; std::vector<RentalData,std::allocator<RentalData> >::_Make_iter
; Function compile flags: /Ogsp
;	COMDAT ?_Make_iter@?$vector@URentalData@@V?$allocator@URentalData@@@std@@@std@@QBE?AV?$_Vector_iterator@V?$_Vector_val@URentalData@@V?$allocator@URentalData@@@std@@@std@@@2@V?$_Vector_const_iterator@V?$_Vector_val@URentalData@@V?$allocator@URentalData@@@std@@@std@@@2@@Z
_TEXT	SEGMENT
___$ReturnUdt$ = 8					; size = 4
__Where$ = 12						; size = 4
?_Make_iter@?$vector@URentalData@@V?$allocator@URentalData@@@std@@@std@@QBE?AV?$_Vector_iterator@V?$_Vector_val@URentalData@@V?$allocator@URentalData@@@std@@@std@@@2@V?$_Vector_const_iterator@V?$_Vector_val@URentalData@@V?$allocator@URentalData@@@std@@@std@@@2@@Z PROC ; std::vector<RentalData,std::allocator<RentalData> >::_Make_iter, COMDAT
; _this$ = ecx

; 801  : 		{	// make iterator from const_iterator

  00000	55		 push	 ebp
  00001	8b ec		 mov	 ebp, esp

; 802  : 		return (iterator(_Where._Ptr, this));

  00003	8b 45 08	 mov	 eax, DWORD PTR ___$ReturnUdt$[ebp]
  00006	8b 4d 0c	 mov	 ecx, DWORD PTR __Where$[ebp]
  00009	89 08		 mov	 DWORD PTR [eax], ecx

; 803  : 		}

  0000b	5d		 pop	 ebp
  0000c	c2 08 00	 ret	 8
?_Make_iter@?$vector@URentalData@@V?$allocator@URentalData@@@std@@@std@@QBE?AV?$_Vector_iterator@V?$_Vector_val@URentalData@@V?$allocator@URentalData@@@std@@@std@@@2@V?$_Vector_const_iterator@V?$_Vector_val@URentalData@@V?$allocator@URentalData@@@std@@@std@@@2@@Z ENDP ; std::vector<RentalData,std::allocator<RentalData> >::_Make_iter
_TEXT	ENDS
PUBLIC	??$_Uninit_copy@V?$_Vector_const_iterator@V?$_Vector_val@KV?$allocator@K@std@@@std@@@std@@PAKV?$allocator@K@2@@std@@YAPAKV?$_Vector_const_iterator@V?$_Vector_val@KV?$allocator@K@std@@@std@@@0@0PAKAAV?$allocator@K@0@U_Nonscalar_ptr_iterator_tag@0@@Z ; std::_Uninit_copy<std::_Vector_const_iterator<std::_Vector_val<unsigned long,std::allocator<unsigned long> > >,unsigned long *,std::allocator<unsigned long> >
; Function compile flags: /Ogsp
; File c:\program files (x86)\microsoft visual studio 10.0\vc\include\memory
;	COMDAT ??$_Uninit_copy@V?$_Vector_const_iterator@V?$_Vector_val@KV?$allocator@K@std@@@std@@@std@@PAKV?$allocator@K@2@@std@@YAPAKV?$_Vector_const_iterator@V?$_Vector_val@KV?$allocator@K@std@@@std@@@0@0PAKAAV?$allocator@K@0@U_Nonscalar_ptr_iterator_tag@0@@Z
_TEXT	SEGMENT
__First$ = 8						; size = 4
__Last$ = 12						; size = 4
__Dest$ = 16						; size = 4
__Al$ = 20						; size = 4
___formal$ = 24						; size = 1
??$_Uninit_copy@V?$_Vector_const_iterator@V?$_Vector_val@KV?$allocator@K@std@@@std@@@std@@PAKV?$allocator@K@2@@std@@YAPAKV?$_Vector_const_iterator@V?$_Vector_val@KV?$allocator@K@std@@@std@@@0@0PAKAAV?$allocator@K@0@U_Nonscalar_ptr_iterator_tag@0@@Z PROC ; std::_Uninit_copy<std::_Vector_const_iterator<std::_Vector_val<unsigned long,std::allocator<unsigned long> > >,unsigned long *,std::allocator<unsigned long> >, COMDAT

; 369  : 	{	// copy [_First, _Last) to raw _Dest, using _Al, arbitrary type

  00000	55		 push	 ebp
  00001	8b ec		 mov	 ebp, esp

; 370  : 	_DEBUG_RANGE(_First, _Last);
; 371  : 	_DEBUG_POINTER(_Dest);
; 372  : 	_FwdIt _Next = _Dest;
; 373  : 
; 374  : 	_TRY_BEGIN
; 375  : 	for (; _First != _Last; ++_Dest, ++_First)

  00003	8b 45 08	 mov	 eax, DWORD PTR __First$[ebp]
  00006	eb 17		 jmp	 SHORT $LN48@Uninit_cop
$LL14@Uninit_cop:

; 376  : 		_Cons_val(_Al, _Dest, *_First);

  00008	83 7d 10 00	 cmp	 DWORD PTR __Dest$[ebp], 0
  0000c	74 07		 je	 SHORT $LN32@Uninit_cop
  0000e	8b 08		 mov	 ecx, DWORD PTR [eax]
  00010	8b 55 10	 mov	 edx, DWORD PTR __Dest$[ebp]
  00013	89 0a		 mov	 DWORD PTR [edx], ecx
$LN32@Uninit_cop:

; 370  : 	_DEBUG_RANGE(_First, _Last);
; 371  : 	_DEBUG_POINTER(_Dest);
; 372  : 	_FwdIt _Next = _Dest;
; 373  : 
; 374  : 	_TRY_BEGIN
; 375  : 	for (; _First != _Last; ++_Dest, ++_First)

  00015	83 45 10 04	 add	 DWORD PTR __Dest$[ebp], 4
  00019	83 c0 04	 add	 eax, 4
  0001c	89 45 08	 mov	 DWORD PTR __First$[ebp], eax
$LN48@Uninit_cop:
  0001f	3b 45 0c	 cmp	 eax, DWORD PTR __Last$[ebp]
  00022	75 e4		 jne	 SHORT $LL14@Uninit_cop

; 377  : 	_CATCH_ALL
; 378  : 	for (; _Next != _Dest; ++_Next)
; 379  : 		_Dest_val(_Al, _Next);
; 380  : 	_RERAISE;
; 381  : 	_CATCH_END
; 382  : 	return (_Dest);

  00024	8b 45 10	 mov	 eax, DWORD PTR __Dest$[ebp]

; 383  : 	}

  00027	5d		 pop	 ebp
  00028	c3		 ret	 0
??$_Uninit_copy@V?$_Vector_const_iterator@V?$_Vector_val@KV?$allocator@K@std@@@std@@@std@@PAKV?$allocator@K@2@@std@@YAPAKV?$_Vector_const_iterator@V?$_Vector_val@KV?$allocator@K@std@@@std@@@0@0PAKAAV?$allocator@K@0@U_Nonscalar_ptr_iterator_tag@0@@Z ENDP ; std::_Uninit_copy<std::_Vector_const_iterator<std::_Vector_val<unsigned long,std::allocator<unsigned long> > >,unsigned long *,std::allocator<unsigned long> >
_TEXT	ENDS
PUBLIC	?erase@?$vector@KV?$allocator@K@std@@@std@@QAE?AV?$_Vector_iterator@V?$_Vector_val@KV?$allocator@K@std@@@std@@@2@V?$_Vector_const_iterator@V?$_Vector_val@KV?$allocator@K@std@@@std@@@2@0@Z ; std::vector<unsigned long,std::allocator<unsigned long> >::erase
; Function compile flags: /Ogsp
; File c:\program files (x86)\microsoft visual studio 10.0\vc\include\vector
;	COMDAT ?erase@?$vector@KV?$allocator@K@std@@@std@@QAE?AV?$_Vector_iterator@V?$_Vector_val@KV?$allocator@K@std@@@std@@@2@V?$_Vector_const_iterator@V?$_Vector_val@KV?$allocator@K@std@@@std@@@2@0@Z
_TEXT	SEGMENT
___$ReturnUdt$ = 8					; size = 4
__First_arg$ = 12					; size = 4
__Cat$512606 = 16					; size = 1
__Last_arg$ = 16					; size = 4
?erase@?$vector@KV?$allocator@K@std@@@std@@QAE?AV?$_Vector_iterator@V?$_Vector_val@KV?$allocator@K@std@@@std@@@2@V?$_Vector_const_iterator@V?$_Vector_val@KV?$allocator@K@std@@@std@@@2@0@Z PROC ; std::vector<unsigned long,std::allocator<unsigned long> >::erase, COMDAT
; _this$ = ecx

; 1190 : 		{	// erase [_First, _Last)

  00000	55		 push	 ebp
  00001	8b ec		 mov	 ebp, esp

; 1191 : 		iterator _First = _Make_iter(_First_arg);

  00003	8b 45 0c	 mov	 eax, DWORD PTR __First_arg$[ebp]
  00006	56		 push	 esi
  00007	57		 push	 edi
  00008	8b 7d 08	 mov	 edi, DWORD PTR ___$ReturnUdt$[ebp]
  0000b	8b f1		 mov	 esi, ecx
  0000d	89 07		 mov	 DWORD PTR [edi], eax

; 1192 : 		iterator _Last = _Make_iter(_Last_arg);
; 1193 : 
; 1194 : 		if (_First != _Last)

  0000f	3b 45 10	 cmp	 eax, DWORD PTR __Last_arg$[ebp]
  00012	74 16		 je	 SHORT $LN1@erase

; 1195 : 			{	// worth doing, copy down over hole
; 1196 :  #if _ITERATOR_DEBUG_LEVEL == 2
; 1197 : 			if (_Last < _First || _VICONT(_First) != this
; 1198 : 				|| _VIPTR(_First) < this->_Myfirst
; 1199 : 				|| this->_Mylast < _VIPTR(_Last))
; 1200 : 				_DEBUG_ERROR("vector erase iterator outside range");
; 1201 : 			pointer _Ptr = _Move(_VIPTR(_Last), this->_Mylast,
; 1202 : 				_VIPTR(_First));
; 1203 : 			_Orphan_range(_VIPTR(_First), this->_Mylast);
; 1204 : 
; 1205 :  #else /* _ITERATOR_DEBUG_LEVEL == 2 */
; 1206 : 			pointer _Ptr = _Move(_VIPTR(_Last), this->_Mylast,
; 1207 : 				_VIPTR(_First));

  00014	ff 75 10	 push	 DWORD PTR __Cat$512606[ebp]
  00017	8b 4e 04	 mov	 ecx, DWORD PTR [esi+4]
  0001a	50		 push	 eax
  0001b	51		 push	 ecx
  0001c	ff 75 10	 push	 DWORD PTR __Last_arg$[ebp]
  0001f	e8 00 00 00 00	 call	 ??$_Move@PAKPAK@std@@YAPAKPAK00U_Scalar_ptr_iterator_tag@0@@Z ; std::_Move<unsigned long *,unsigned long *>
  00024	83 c4 10	 add	 esp, 16			; 00000010H

; 1208 :  #endif /* _ITERATOR_DEBUG_LEVEL == 2 */
; 1209 : 
; 1210 : 			_Destroy(_Ptr, this->_Mylast);
; 1211 : 			this->_Mylast = _Ptr;

  00027	89 46 04	 mov	 DWORD PTR [esi+4], eax
$LN1@erase:

; 1212 : 			}
; 1213 : 		return (_First);

  0002a	8b c7		 mov	 eax, edi
  0002c	5f		 pop	 edi
  0002d	5e		 pop	 esi

; 1214 : 		}

  0002e	5d		 pop	 ebp
  0002f	c2 0c 00	 ret	 12			; 0000000cH
?erase@?$vector@KV?$allocator@K@std@@@std@@QAE?AV?$_Vector_iterator@V?$_Vector_val@KV?$allocator@K@std@@@std@@@2@V?$_Vector_const_iterator@V?$_Vector_val@KV?$allocator@K@std@@@std@@@2@0@Z ENDP ; std::vector<unsigned long,std::allocator<unsigned long> >::erase
_TEXT	ENDS
PUBLIC	?_Tidy@?$vector@KV?$allocator@K@std@@@std@@IAEXXZ ; std::vector<unsigned long,std::allocator<unsigned long> >::_Tidy
EXTRN	__imp_?_Orphan_all@_Container_base0@std@@QAEXXZ:PROC
; Function compile flags: /Ogsp
;	COMDAT ?_Tidy@?$vector@KV?$allocator@K@std@@@std@@IAEXXZ
_TEXT	SEGMENT
?_Tidy@?$vector@KV?$allocator@K@std@@@std@@IAEXXZ PROC	; std::vector<unsigned long,std::allocator<unsigned long> >::_Tidy, COMDAT
; _this$ = ecx

; 1301 : 		{	// free all storage

  00000	56		 push	 esi
  00001	8b f1		 mov	 esi, ecx

; 1302 : 		if (this->_Myfirst != 0)

  00003	83 3e 00	 cmp	 DWORD PTR [esi], 0
  00006	74 0e		 je	 SHORT $LN12@Tidy

; 1303 : 			{	// something to free, destroy and deallocate it
; 1304 : 			this->_Orphan_all();

  00008	ff 15 00 00 00
	00		 call	 DWORD PTR __imp_?_Orphan_all@_Container_base0@std@@QAEXXZ

; 1305 : 			_Destroy(this->_Myfirst, this->_Mylast);
; 1306 : 			this->_Alval.deallocate(this->_Myfirst,
; 1307 : 				this->_Myend - this->_Myfirst);

  0000e	ff 36		 push	 DWORD PTR [esi]
  00010	e8 00 00 00 00	 call	 ??3@YAXPAX@Z		; operator delete
  00015	59		 pop	 ecx
$LN12@Tidy:

; 1308 : 			}
; 1309 : 		this->_Myfirst = 0;

  00016	83 26 00	 and	 DWORD PTR [esi], 0

; 1310 : 		this->_Mylast = 0;

  00019	83 66 04 00	 and	 DWORD PTR [esi+4], 0

; 1311 : 		this->_Myend = 0;

  0001d	83 66 08 00	 and	 DWORD PTR [esi+8], 0
  00021	5e		 pop	 esi

; 1312 : 		}

  00022	c3		 ret	 0
?_Tidy@?$vector@KV?$allocator@K@std@@@std@@IAEXXZ ENDP	; std::vector<unsigned long,std::allocator<unsigned long> >::_Tidy
_TEXT	ENDS
PUBLIC	?reserve@?$vector@HV?$allocator@H@std@@@std@@QAEXI@Z ; std::vector<int,std::allocator<int> >::reserve
; Function compile flags: /Ogsp
;	COMDAT ?reserve@?$vector@HV?$allocator@H@std@@@std@@QAEXI@Z
_TEXT	SEGMENT
__Count$ = 8						; size = 4
?reserve@?$vector@HV?$allocator@H@std@@@std@@QAEXI@Z PROC ; std::vector<int,std::allocator<int> >::reserve, COMDAT
; _this$ = ecx

; 746  : 		{	// determine new minimum length of allocated storage

  00000	55		 push	 ebp
  00001	8b ec		 mov	 ebp, esp

; 747  : 		if (max_size() < _Count)

  00003	81 7d 08 ff ff
	ff 3f		 cmp	 DWORD PTR __Count$[ebp], 1073741823 ; 3fffffffH
  0000a	56		 push	 esi
  0000b	8b f1		 mov	 esi, ecx
  0000d	76 0b		 jbe	 SHORT $LN5@reserve

; 748  : 			_Xlen();	// result too long

  0000f	68 00 00 00 00	 push	 OFFSET ??_C@_0BD@OLBABOEK@vector?$DMT?$DO?5too?5long?$AA@
  00014	ff 15 00 00 00
	00		 call	 DWORD PTR __imp_?_Xlength_error@std@@YAXPBD@Z
$LN43@reserve:
$LN5@reserve:

; 749  : 		else if (capacity() < _Count)

  0001a	8b 46 08	 mov	 eax, DWORD PTR [esi+8]
  0001d	2b 06		 sub	 eax, DWORD PTR [esi]
  0001f	c1 f8 02	 sar	 eax, 2
  00022	3b 45 08	 cmp	 eax, DWORD PTR __Count$[ebp]
  00025	73 52		 jae	 SHORT $LN3@reserve

; 750  : 			{	// not enough room, reallocate
; 751  : 			pointer _Ptr = this->_Alval.allocate(_Count);

  00027	53		 push	 ebx
  00028	57		 push	 edi
  00029	6a 00		 push	 0
  0002b	ff 75 08	 push	 DWORD PTR __Count$[ebp]
  0002e	e8 00 00 00 00	 call	 ??$_Allocate@H@std@@YAPAHIPAH@Z ; std::_Allocate<int>

; 752  : 
; 753  : 			_TRY_BEGIN
; 754  : 			_Umove(this->_Myfirst, this->_Mylast, _Ptr);

  00033	8b 0e		 mov	 ecx, DWORD PTR [esi]
  00035	8d 56 0c	 lea	 edx, DWORD PTR [esi+12]
  00038	52		 push	 edx
  00039	8b d8		 mov	 ebx, eax
  0003b	8b 46 04	 mov	 eax, DWORD PTR [esi+4]
  0003e	53		 push	 ebx
  0003f	50		 push	 eax
  00040	51		 push	 ecx
  00041	e8 00 00 00 00	 call	 ??$_Uninitialized_move@PAHPAHV?$allocator@H@std@@@std@@YAPAHPAH00AAV?$allocator@H@0@@Z ; std::_Uninitialized_move<int *,int *,std::allocator<int> >

; 755  : 			_CATCH_ALL
; 756  : 			this->_Alval.deallocate(_Ptr, _Count);
; 757  : 			_RERAISE;
; 758  : 			_CATCH_END
; 759  : 
; 760  : 			size_type _Size = size();

  00046	8b 06		 mov	 eax, DWORD PTR [esi]
  00048	8b 7e 04	 mov	 edi, DWORD PTR [esi+4]
  0004b	2b f8		 sub	 edi, eax
  0004d	83 c4 18	 add	 esp, 24			; 00000018H
  00050	c1 ff 02	 sar	 edi, 2

; 761  : 			if (this->_Myfirst != 0)

  00053	85 c0		 test	 eax, eax
  00055	74 07		 je	 SHORT $LN39@reserve

; 762  : 				{	// destroy and deallocate old array
; 763  : 				_Destroy(this->_Myfirst, this->_Mylast);
; 764  : 				this->_Alval.deallocate(this->_Myfirst,
; 765  : 					this->_Myend - this->_Myfirst);

  00057	50		 push	 eax
  00058	e8 00 00 00 00	 call	 ??3@YAXPAX@Z		; operator delete
  0005d	59		 pop	 ecx
$LN39@reserve:

; 766  : 				}
; 767  : 
; 768  : 			this->_Orphan_all();

  0005e	8b ce		 mov	 ecx, esi
  00060	ff 15 00 00 00
	00		 call	 DWORD PTR __imp_?_Orphan_all@_Container_base0@std@@QAEXXZ

; 769  : 			this->_Myend = _Ptr + _Count;

  00066	8b 45 08	 mov	 eax, DWORD PTR __Count$[ebp]
  00069	8d 04 83	 lea	 eax, DWORD PTR [ebx+eax*4]
  0006c	89 46 08	 mov	 DWORD PTR [esi+8], eax

; 770  : 			this->_Mylast = _Ptr + _Size;

  0006f	8d 04 bb	 lea	 eax, DWORD PTR [ebx+edi*4]
  00072	5f		 pop	 edi

; 771  : 			this->_Myfirst = _Ptr;

  00073	89 1e		 mov	 DWORD PTR [esi], ebx
  00075	89 46 04	 mov	 DWORD PTR [esi+4], eax
  00078	5b		 pop	 ebx
$LN3@reserve:
  00079	5e		 pop	 esi

; 772  : 			}
; 773  : 		}

  0007a	5d		 pop	 ebp
  0007b	c2 04 00	 ret	 4
$LN42@reserve:
?reserve@?$vector@HV?$allocator@H@std@@@std@@QAEXI@Z ENDP ; std::vector<int,std::allocator<int> >::reserve
_TEXT	ENDS
PUBLIC	?GetOwnerName@ioCharRentalData@@QAEABVioHashString@@K@Z ; ioCharRentalData::GetOwnerName
EXTRN	_atexit:PROC
EXTRN	__imp_??0ioHashString@@QAE@XZ:PROC
EXTRN	___CxxFrameHandler3:PROC
EXTRN	@__security_check_cookie@4:PROC
EXTRN	__EH_epilog3:PROC
EXTRN	__EH_prolog3:PROC
;	COMDAT ?kReturn@?6??GetOwnerName@ioCharRentalData@@QAEABVioHashString@@K@Z@4V3@A
_BSS	SEGMENT
?kReturn@?6??GetOwnerName@ioCharRentalData@@QAEABVioHashString@@K@Z@4V3@A DB 010H DUP (?) ; `ioCharRentalData::GetOwnerName'::`7'::kReturn
_BSS	ENDS
;	COMDAT ?$S1@?6??GetOwnerName@ioCharRentalData@@QAEABVioHashString@@K@Z@4IA
_BSS	SEGMENT
?$S1@?6??GetOwnerName@ioCharRentalData@@QAEABVioHashString@@K@Z@4IA DD 01H DUP (?) ; `ioCharRentalData::GetOwnerName'::`7'::$S1
_BSS	ENDS
;	COMDAT xdata$x
xdata$x	SEGMENT
__unwindtable$?GetOwnerName@ioCharRentalData@@QAEABVioHashString@@K@Z DD 0ffffffffH
	DD	FLAT:__unwindfunclet$?GetOwnerName@ioCharRentalData@@QAEABVioHashString@@K@Z$0
__ehfuncinfo$?GetOwnerName@ioCharRentalData@@QAEABVioHashString@@K@Z DD 019930522H
	DD	01H
	DD	FLAT:__unwindtable$?GetOwnerName@ioCharRentalData@@QAEABVioHashString@@K@Z
	DD	2 DUP(00H)
	DD	2 DUP(00H)
	DD	00H
	DD	01H
; Function compile flags: /Ogsp
; File d:\lost saga for developer\youtube\tutorial\source\src\lsclient\iocharrentaldata.cpp
xdata$x	ENDS
;	COMDAT ?GetOwnerName@ioCharRentalData@@QAEABVioHashString@@K@Z
_TEXT	SEGMENT
__$EHRec$ = -12						; size = 12
_dwCharIndex$ = 8					; size = 4
?GetOwnerName@ioCharRentalData@@QAEABVioHashString@@K@Z PROC ; ioCharRentalData::GetOwnerName, COMDAT
; _this$ = ecx

; 21   : {

  00000	6a 00		 push	 0
  00002	b8 00 00 00 00	 mov	 eax, __ehhandler$?GetOwnerName@ioCharRentalData@@QAEABVioHashString@@K@Z
  00007	e8 00 00 00 00	 call	 __EH_prolog3

; 22   : 	RentalDataList::iterator iter = m_RentalDataList.begin();

  0000c	8b 41 04	 mov	 eax, DWORD PTR [ecx+4]

; 23   : 	for(;iter != m_RentalDataList.end();++iter)

  0000f	8b 49 08	 mov	 ecx, DWORD PTR [ecx+8]
  00012	eb 0d		 jmp	 SHORT $LN43@GetOwnerNa
$LL19@GetOwnerNa:

; 24   : 	{
; 25   : 		RentalData &rkRentalData = *iter;
; 26   : 		if( rkRentalData.m_dwCharIndex == dwCharIndex )

  00014	8b 50 10	 mov	 edx, DWORD PTR [eax+16]
  00017	3b 55 08	 cmp	 edx, DWORD PTR _dwCharIndex$[ebp]
  0001a	74 37		 je	 SHORT $LN6@GetOwnerNa

; 23   : 	for(;iter != m_RentalDataList.end();++iter)

  0001c	05 f0 00 00 00	 add	 eax, 240		; 000000f0H
$LN43@GetOwnerNa:
  00021	3b c1		 cmp	 eax, ecx
  00023	75 ef		 jne	 SHORT $LL19@GetOwnerNa

; 27   : 		{
; 28   : 			return rkRentalData.m_szOwnerID;
; 29   : 		}
; 30   : 	}
; 31   : 
; 32   : 	static ioHashString kReturn;

  00025	f6 05 00 00 00
	00 01		 test	 BYTE PTR ?$S1@?6??GetOwnerName@ioCharRentalData@@QAEABVioHashString@@K@Z@4IA, 1
  0002c	be 00 00 00 00	 mov	 esi, OFFSET ?kReturn@?6??GetOwnerName@ioCharRentalData@@QAEABVioHashString@@K@Z@4V3@A
  00031	75 1e		 jne	 SHORT $LN1@GetOwnerNa
  00033	83 0d 00 00 00
	00 01		 or	 DWORD PTR ?$S1@?6??GetOwnerName@ioCharRentalData@@QAEABVioHashString@@K@Z@4IA, 1
  0003a	83 65 fc 00	 and	 DWORD PTR __$EHRec$[ebp+8], 0
  0003e	8b ce		 mov	 ecx, esi
  00040	ff 15 00 00 00
	00		 call	 DWORD PTR __imp_??0ioHashString@@QAE@XZ
  00046	68 00 00 00 00	 push	 OFFSET ??__FkReturn@?6??GetOwnerName@ioCharRentalData@@QAEABVioHashString@@K@Z@YAXXZ ; `ioCharRentalData::GetOwnerName'::`7'::`dynamic atexit destructor for 'kReturn''
  0004b	e8 00 00 00 00	 call	 _atexit
  00050	59		 pop	 ecx
$LN1@GetOwnerNa:

; 33   : 	return kReturn;

  00051	8b c6		 mov	 eax, esi
$LN6@GetOwnerNa:

; 34   : }

  00053	e8 00 00 00 00	 call	 __EH_epilog3
  00058	c2 04 00	 ret	 4
_TEXT	ENDS
;	COMDAT text$x
text$x	SEGMENT
__unwindfunclet$?GetOwnerName@ioCharRentalData@@QAEABVioHashString@@K@Z$0:
  00000	a1 00 00 00 00	 mov	 eax, DWORD PTR ?$S1@?6??GetOwnerName@ioCharRentalData@@QAEABVioHashString@@K@Z@4IA
  00005	83 e0 fe	 and	 eax, -2			; fffffffeH
  00008	a3 00 00 00 00	 mov	 DWORD PTR ?$S1@?6??GetOwnerName@ioCharRentalData@@QAEABVioHashString@@K@Z@4IA, eax
  0000d	c3		 ret	 0
__ehhandler$?GetOwnerName@ioCharRentalData@@QAEABVioHashString@@K@Z:
  0000e	8b 54 24 08	 mov	 edx, DWORD PTR [esp+8]
  00012	8d 42 0c	 lea	 eax, DWORD PTR [edx+12]
  00015	8b 4a f0	 mov	 ecx, DWORD PTR [edx-16]
  00018	33 c8		 xor	 ecx, eax
  0001a	e8 00 00 00 00	 call	 @__security_check_cookie@4
  0001f	b8 00 00 00 00	 mov	 eax, OFFSET __ehfuncinfo$?GetOwnerName@ioCharRentalData@@QAEABVioHashString@@K@Z
  00024	e9 00 00 00 00	 jmp	 ___CxxFrameHandler3
text$x	ENDS
?GetOwnerName@ioCharRentalData@@QAEABVioHashString@@K@Z ENDP ; ioCharRentalData::GetOwnerName
PUBLIC	?GetClassLevel@ioCharRentalData@@QAEHK@Z	; ioCharRentalData::GetClassLevel
; Function compile flags: /Ogsp
;	COMDAT ?GetClassLevel@ioCharRentalData@@QAEHK@Z
_TEXT	SEGMENT
_dwCharIndex$ = 8					; size = 4
?GetClassLevel@ioCharRentalData@@QAEHK@Z PROC		; ioCharRentalData::GetClassLevel, COMDAT
; _this$ = ecx

; 37   : {

  00000	55		 push	 ebp
  00001	8b ec		 mov	 ebp, esp

; 38   : 	RentalDataList::iterator iter = m_RentalDataList.begin();

  00003	8b 41 04	 mov	 eax, DWORD PTR [ecx+4]

; 39   : 	for(;iter != m_RentalDataList.end();++iter)

  00006	8b 49 08	 mov	 ecx, DWORD PTR [ecx+8]
  00009	eb 0d		 jmp	 SHORT $LN40@GetClassLe
$LL17@GetClassLe:

; 40   : 	{
; 41   : 		RentalData &rkRentalData = *iter;
; 42   : 		if( rkRentalData.m_dwCharIndex == dwCharIndex )

  0000b	8b 50 10	 mov	 edx, DWORD PTR [eax+16]
  0000e	3b 55 08	 cmp	 edx, DWORD PTR _dwCharIndex$[ebp]
  00011	74 0f		 je	 SHORT $LN38@GetClassLe

; 39   : 	for(;iter != m_RentalDataList.end();++iter)

  00013	05 f0 00 00 00	 add	 eax, 240		; 000000f0H
$LN40@GetClassLe:
  00018	3b c1		 cmp	 eax, ecx
  0001a	75 ef		 jne	 SHORT $LL17@GetClassLe

; 45   : 		}
; 46   : 	}
; 47   : 	return 0;

  0001c	33 c0		 xor	 eax, eax
$LN5@GetClassLe:

; 48   : }

  0001e	5d		 pop	 ebp
  0001f	c2 04 00	 ret	 4
$LN38@GetClassLe:

; 43   : 		{
; 44   : 			return rkRentalData.m_iClassLevel;

  00022	8b 40 14	 mov	 eax, DWORD PTR [eax+20]
  00025	eb f7		 jmp	 SHORT $LN5@GetClassLe
?GetClassLevel@ioCharRentalData@@QAEHK@Z ENDP		; ioCharRentalData::GetClassLevel
_TEXT	ENDS
PUBLIC	?GetEquipItem@ioCharRentalData@@QAEXKAAUITEM_DATA@@H@Z ; ioCharRentalData::GetEquipItem
; Function compile flags: /Ogsp
;	COMDAT ?GetEquipItem@ioCharRentalData@@QAEXKAAUITEM_DATA@@H@Z
_TEXT	SEGMENT
_dwCharIndex$ = 8					; size = 4
_rkEquipItem$ = 12					; size = 4
_iSlot$ = 16						; size = 4
?GetEquipItem@ioCharRentalData@@QAEXKAAUITEM_DATA@@H@Z PROC ; ioCharRentalData::GetEquipItem, COMDAT
; _this$ = ecx

; 51   : {

  00000	55		 push	 ebp
  00001	8b ec		 mov	 ebp, esp

; 52   : 	RentalDataList::iterator iter = m_RentalDataList.begin();

  00003	8b 41 04	 mov	 eax, DWORD PTR [ecx+4]

; 53   : 	for(;iter != m_RentalDataList.end();++iter)

  00006	8b 49 08	 mov	 ecx, DWORD PTR [ecx+8]
  00009	eb 0d		 jmp	 SHORT $LN41@GetEquipIt
$LL18@GetEquipIt:

; 54   : 	{
; 55   : 		RentalData &rkRentalData = *iter;
; 56   : 		if( rkRentalData.m_dwCharIndex == dwCharIndex )

  0000b	8b 50 10	 mov	 edx, DWORD PTR [eax+16]
  0000e	3b 55 08	 cmp	 edx, DWORD PTR _dwCharIndex$[ebp]
  00011	74 0b		 je	 SHORT $LN39@GetEquipIt

; 53   : 	for(;iter != m_RentalDataList.end();++iter)

  00013	05 f0 00 00 00	 add	 eax, 240		; 000000f0H
$LN41@GetEquipIt:
  00018	3b c1		 cmp	 eax, ecx
  0001a	75 ef		 jne	 SHORT $LL18@GetEquipIt

; 54   : 	{
; 55   : 		RentalData &rkRentalData = *iter;
; 56   : 		if( rkRentalData.m_dwCharIndex == dwCharIndex )

  0001c	eb 18		 jmp	 SHORT $LN1@GetEquipIt
$LN39@GetEquipIt:

; 57   : 		{
; 58   : 			if( COMPARE( iSlot, 0, MAX_INVENTORY ) )

  0001e	8b 4d 10	 mov	 ecx, DWORD PTR _iSlot$[ebp]
  00021	83 f9 03	 cmp	 ecx, 3
  00024	77 10		 ja	 SHORT $LN1@GetEquipIt

; 59   : 				rkEquipItem = rkRentalData.m_EquipItem[iSlot];

  00026	6b c9 14	 imul	 ecx, 20			; 00000014H
  00029	8d 44 01 18	 lea	 eax, DWORD PTR [ecx+eax+24]
  0002d	8b 4d 0c	 mov	 ecx, DWORD PTR _rkEquipItem$[ebp]
  00030	50		 push	 eax
  00031	e8 00 00 00 00	 call	 ??4ITEM_DATA@@QAEAAU0@ABU0@@Z ; ITEM_DATA::operator=
$LN1@GetEquipIt:

; 60   : 			break;
; 61   : 		}
; 62   : 	}
; 63   : }

  00036	5d		 pop	 ebp
  00037	c2 0c 00	 ret	 12			; 0000000cH
?GetEquipItem@ioCharRentalData@@QAEXKAAUITEM_DATA@@H@Z ENDP ; ioCharRentalData::GetEquipItem
_TEXT	ENDS
PUBLIC	??_C@_0CE@EBHLKOJH@ioCharRentalData?3?3GetEquipExtraI@ ; `string'
PUBLIC	?GetEquipExtraItem@ioCharRentalData@@QAE_NKAAUEXTRAITEMSLOT@@H@Z ; ioCharRentalData::GetEquipExtraItem
EXTRN	?GetItemLargeIcon@ioItemMaker@@QBEABVioHashString@@KK@Z:PROC ; ioItemMaker::GetItemLargeIcon
EXTRN	__imp_??4ioHashString@@QAEAAV0@ABV0@@Z:PROC
EXTRN	__imp_??1ioHashString@@QAE@XZ:PROC
EXTRN	?GetItemConst@ioItemMaker@@QBEPBVioItem@@KABVioHashString@@@Z:PROC ; ioItemMaker::GetItemConst
EXTRN	?GetSingleton@ioItemMaker@@SAAAV1@XZ:PROC	; ioItemMaker::GetSingleton
EXTRN	__imp_??0ioHashString@@QAE@PBD@Z:PROC
;	COMDAT ??_C@_0CE@EBHLKOJH@ioCharRentalData?3?3GetEquipExtraI@
; File d:\lost saga for developer\youtube\tutorial\source\src\lsclient\ioitem.h
CONST	SEGMENT
??_C@_0CE@EBHLKOJH@ioCharRentalData?3?3GetEquipExtraI@ DB 'ioCharRentalDa'
	DB	'ta::GetEquipExtraItem', 00H			; `string'
CONST	ENDS
;	COMDAT xdata$x
xdata$x	SEGMENT
__unwindtable$?GetEquipExtraItem@ioCharRentalData@@QAE_NKAAUEXTRAITEMSLOT@@H@Z DD 0ffffffffH
	DD	FLAT:__unwindfunclet$?GetEquipExtraItem@ioCharRentalData@@QAE_NKAAUEXTRAITEMSLOT@@H@Z$0
__ehfuncinfo$?GetEquipExtraItem@ioCharRentalData@@QAE_NKAAUEXTRAITEMSLOT@@H@Z DD 019930522H
	DD	01H
	DD	FLAT:__unwindtable$?GetEquipExtraItem@ioCharRentalData@@QAE_NKAAUEXTRAITEMSLOT@@H@Z
	DD	2 DUP(00H)
	DD	2 DUP(00H)
	DD	00H
	DD	01H
; Function compile flags: /Ogsp
; File d:\lost saga for developer\youtube\tutorial\source\src\lsclient\iocharrentaldata.cpp
xdata$x	ENDS
;	COMDAT ?GetEquipExtraItem@ioCharRentalData@@QAE_NKAAUEXTRAITEMSLOT@@H@Z
_TEXT	SEGMENT
$T513035 = -28						; size = 16
__$EHRec$ = -12						; size = 12
_dwCharIndex$ = 8					; size = 4
_rkExtraItem$ = 12					; size = 4
_iSlot$ = 16						; size = 4
?GetEquipExtraItem@ioCharRentalData@@QAE_NKAAUEXTRAITEMSLOT@@H@Z PROC ; ioCharRentalData::GetEquipExtraItem, COMDAT
; _this$ = ecx

; 66   : {

  00000	6a 10		 push	 16			; 00000010H
  00002	b8 00 00 00 00	 mov	 eax, __ehhandler$?GetEquipExtraItem@ioCharRentalData@@QAE_NKAAUEXTRAITEMSLOT@@H@Z
  00007	e8 00 00 00 00	 call	 __EH_prolog3

; 67   : 	RentalDataList::iterator iter = m_RentalDataList.begin();

  0000c	8b 51 04	 mov	 edx, DWORD PTR [ecx+4]

; 68   : 	for(;iter != m_RentalDataList.end();++iter)

  0000f	8b 49 08	 mov	 ecx, DWORD PTR [ecx+8]
  00012	eb 0e		 jmp	 SHORT $LN47@GetEquipEx
$LL21@GetEquipEx:

; 69   : 	{
; 70   : 		RentalData &rkRentalData = *iter;
; 71   : 		if( rkRentalData.m_dwCharIndex == dwCharIndex )

  00014	8b 42 10	 mov	 eax, DWORD PTR [edx+16]
  00017	3b 45 08	 cmp	 eax, DWORD PTR _dwCharIndex$[ebp]
  0001a	74 14		 je	 SHORT $LN44@GetEquipEx

; 68   : 	for(;iter != m_RentalDataList.end();++iter)

  0001c	81 c2 f0 00 00
	00		 add	 edx, 240		; 000000f0H
$LN47@GetEquipEx:
  00022	3b d1		 cmp	 edx, ecx
  00024	75 ee		 jne	 SHORT $LL21@GetEquipEx
$LN2@GetEquipEx:

; 89   : 				}
; 90   : 			}
; 91   : 			break;
; 92   : 		}
; 93   : 	}
; 94   : 	return false;

  00026	32 c0		 xor	 al, al
$LN8@GetEquipEx:

; 95   : }

  00028	e8 00 00 00 00	 call	 __EH_epilog3
  0002d	c2 0c 00	 ret	 12			; 0000000cH
$LN44@GetEquipEx:

; 72   : 		{
; 73   : 			if( COMPARE( iSlot, 0, MAX_INVENTORY ) )

  00030	8b 4d 10	 mov	 ecx, DWORD PTR _iSlot$[ebp]
  00033	83 f9 03	 cmp	 ecx, 3
  00036	77 ee		 ja	 SHORT $LN2@GetEquipEx

; 74   : 			{
; 75   : 				if( rkRentalData.m_EquipItem[iSlot].m_item_code > 0 )

  00038	8b c1		 mov	 eax, ecx
  0003a	6b c0 14	 imul	 eax, 20			; 00000014H
  0003d	03 c2		 add	 eax, edx
  0003f	83 78 18 00	 cmp	 DWORD PTR [eax+24], 0
  00043	7e e1		 jle	 SHORT $LN2@GetEquipEx

; 76   : 				{
; 77   : 					rkExtraItem.m_iIndex		 = iSlot;

  00045	8b 75 0c	 mov	 esi, DWORD PTR _rkExtraItem$[ebp]
  00048	89 4e 08	 mov	 DWORD PTR [esi+8], ecx

; 78   : 					rkExtraItem.m_iItemCode		 = rkRentalData.m_EquipItem[iSlot].m_item_code;

  0004b	8b 78 18	 mov	 edi, DWORD PTR [eax+24]

; 79   : 					rkExtraItem.m_iReinforce	 = rkRentalData.m_EquipItem[iSlot].m_item_reinforce;
; 80   : 					rkExtraItem.m_dwMaleCustom	 = rkRentalData.m_EquipItem[iSlot].m_item_male_custom;
; 81   : 					rkExtraItem.m_dwFemaleCustom = rkRentalData.m_EquipItem[iSlot].m_item_female_custom;

  0004e	83 c1 02	 add	 ecx, 2
  00051	6b c9 14	 imul	 ecx, 20			; 00000014H
  00054	89 3e		 mov	 DWORD PTR [esi], edi
  00056	8b 78 1c	 mov	 edi, DWORD PTR [eax+28]
  00059	89 7e 04	 mov	 DWORD PTR [esi+4], edi
  0005c	8b 40 24	 mov	 eax, DWORD PTR [eax+36]
  0005f	89 46 1c	 mov	 DWORD PTR [esi+28], eax
  00062	8b 04 11	 mov	 eax, DWORD PTR [ecx+edx]

; 82   : 					rkExtraItem.m_PeriodType	 = EPT_MORTMAIN;
; 83   : 
; 84   : 					const ioItem *pItem = g_ItemMaker.GetItemConst( rkExtraItem.m_iItemCode, __FUNCTION__ );

  00065	68 00 00 00 00	 push	 OFFSET ??_C@_0CE@EBHLKOJH@ioCharRentalData?3?3GetEquipExtraI@
  0006a	8d 4d e4	 lea	 ecx, DWORD PTR $T513035[ebp]
  0006d	89 46 20	 mov	 DWORD PTR [esi+32], eax
  00070	c7 46 0c 01 00
	00 00		 mov	 DWORD PTR [esi+12], 1
  00077	ff 15 00 00 00
	00		 call	 DWORD PTR __imp_??0ioHashString@@QAE@PBD@Z
  0007d	83 65 fc 00	 and	 DWORD PTR __$EHRec$[ebp+8], 0
  00081	8d 45 e4	 lea	 eax, DWORD PTR $T513035[ebp]
  00084	50		 push	 eax
  00085	ff 36		 push	 DWORD PTR [esi]
  00087	e8 00 00 00 00	 call	 ?GetSingleton@ioItemMaker@@SAAAV1@XZ ; ioItemMaker::GetSingleton
  0008c	8b c8		 mov	 ecx, eax
  0008e	e8 00 00 00 00	 call	 ?GetItemConst@ioItemMaker@@QBEPBVioItem@@KABVioHashString@@@Z ; ioItemMaker::GetItemConst
  00093	83 4d fc ff	 or	 DWORD PTR __$EHRec$[ebp+8], -1
  00097	8d 4d e4	 lea	 ecx, DWORD PTR $T513035[ebp]
  0009a	8b d8		 mov	 ebx, eax
  0009c	ff 15 00 00 00
	00		 call	 DWORD PTR __imp_??1ioHashString@@QAE@XZ

; 85   : 					if( pItem )

  000a2	8b 3d 00 00 00
	00		 mov	 edi, DWORD PTR __imp_??4ioHashString@@QAEAAV0@ABV0@@Z
  000a8	85 db		 test	 ebx, ebx
  000aa	74 0c		 je	 SHORT $LN1@GetEquipEx

; 86   : 						rkExtraItem.m_Name = pItem->GetName();

  000ac	81 c3 34 01 00
	00		 add	 ebx, 308		; 00000134H
  000b2	53		 push	 ebx
  000b3	8d 4e 28	 lea	 ecx, DWORD PTR [esi+40]
  000b6	ff d7		 call	 edi
$LN1@GetEquipEx:

; 87   : 					rkExtraItem.m_IconName = g_ItemMaker.GetItemLargeIcon( rkExtraItem.m_iItemCode, 0 );

  000b8	6a 00		 push	 0
  000ba	ff 36		 push	 DWORD PTR [esi]
  000bc	e8 00 00 00 00	 call	 ?GetSingleton@ioItemMaker@@SAAAV1@XZ ; ioItemMaker::GetSingleton
  000c1	8b c8		 mov	 ecx, eax
  000c3	e8 00 00 00 00	 call	 ?GetItemLargeIcon@ioItemMaker@@QBEABVioHashString@@KK@Z ; ioItemMaker::GetItemLargeIcon
  000c8	50		 push	 eax
  000c9	8d 4e 38	 lea	 ecx, DWORD PTR [esi+56]
  000cc	ff d7		 call	 edi

; 88   : 					return true;

  000ce	b0 01		 mov	 al, 1
  000d0	e9 53 ff ff ff	 jmp	 $LN8@GetEquipEx
_TEXT	ENDS
;	COMDAT text$x
text$x	SEGMENT
__unwindfunclet$?GetEquipExtraItem@ioCharRentalData@@QAE_NKAAUEXTRAITEMSLOT@@H@Z$0:
  00000	8d 4d e4	 lea	 ecx, DWORD PTR $T513035[ebp]
  00003	ff 25 00 00 00
	00		 jmp	 DWORD PTR __imp_??1ioHashString@@QAE@XZ
__ehhandler$?GetEquipExtraItem@ioCharRentalData@@QAE_NKAAUEXTRAITEMSLOT@@H@Z:
  00009	8b 54 24 08	 mov	 edx, DWORD PTR [esp+8]
  0000d	8d 42 0c	 lea	 eax, DWORD PTR [edx+12]
  00010	8b 4a e0	 mov	 ecx, DWORD PTR [edx-32]
  00013	33 c8		 xor	 ecx, eax
  00015	e8 00 00 00 00	 call	 @__security_check_cookie@4
  0001a	b8 00 00 00 00	 mov	 eax, OFFSET __ehfuncinfo$?GetEquipExtraItem@ioCharRentalData@@QAE_NKAAUEXTRAITEMSLOT@@H@Z
  0001f	e9 00 00 00 00	 jmp	 ___CxxFrameHandler3
text$x	ENDS
?GetEquipExtraItem@ioCharRentalData@@QAE_NKAAUEXTRAITEMSLOT@@H@Z ENDP ; ioCharRentalData::GetEquipExtraItem
PUBLIC	?GetCharGrowth@ioCharRentalData@@QAEXKAAEH@Z	; ioCharRentalData::GetCharGrowth
; Function compile flags: /Ogsp
;	COMDAT ?GetCharGrowth@ioCharRentalData@@QAEXKAAEH@Z
_TEXT	SEGMENT
_dwCharIndex$ = 8					; size = 4
_rkCharGrowth$ = 12					; size = 4
_iSlot$ = 16						; size = 4
?GetCharGrowth@ioCharRentalData@@QAEXKAAEH@Z PROC	; ioCharRentalData::GetCharGrowth, COMDAT
; _this$ = ecx

; 115  : {

  00000	55		 push	 ebp
  00001	8b ec		 mov	 ebp, esp

; 116  : 	RentalDataList::iterator iter = m_RentalDataList.begin();

  00003	8b 41 04	 mov	 eax, DWORD PTR [ecx+4]

; 117  : 	for(;iter != m_RentalDataList.end();++iter)

  00006	8b 49 08	 mov	 ecx, DWORD PTR [ecx+8]
  00009	eb 0d		 jmp	 SHORT $LN41@GetCharGro
$LL18@GetCharGro:

; 118  : 	{
; 119  : 		RentalData &rkRentalData = *iter;
; 120  : 		if( rkRentalData.m_dwCharIndex == dwCharIndex )

  0000b	8b 50 10	 mov	 edx, DWORD PTR [eax+16]
  0000e	3b 55 08	 cmp	 edx, DWORD PTR _dwCharIndex$[ebp]
  00011	74 0b		 je	 SHORT $LN39@GetCharGro

; 117  : 	for(;iter != m_RentalDataList.end();++iter)

  00013	05 f0 00 00 00	 add	 eax, 240		; 000000f0H
$LN41@GetCharGro:
  00018	3b c1		 cmp	 eax, ecx
  0001a	75 ef		 jne	 SHORT $LL18@GetCharGro

; 118  : 	{
; 119  : 		RentalData &rkRentalData = *iter;
; 120  : 		if( rkRentalData.m_dwCharIndex == dwCharIndex )

  0001c	eb 11		 jmp	 SHORT $LN1@GetCharGro
$LN39@GetCharGro:

; 121  : 		{
; 122  : 			if( COMPARE( iSlot, 0, MAX_CHAR_GROWTH ) )

  0001e	8b 4d 10	 mov	 ecx, DWORD PTR _iSlot$[ebp]
  00021	83 f9 03	 cmp	 ecx, 3
  00024	77 09		 ja	 SHORT $LN1@GetCharGro

; 123  : 				rkCharGrowth = rkRentalData.m_CharGrowth[iSlot];

  00026	8a 44 08 78	 mov	 al, BYTE PTR [eax+ecx+120]
  0002a	8b 4d 0c	 mov	 ecx, DWORD PTR _rkCharGrowth$[ebp]
  0002d	88 01		 mov	 BYTE PTR [ecx], al
$LN1@GetCharGro:

; 124  : 			break;
; 125  : 		}
; 126  : 	}
; 127  : }

  0002f	5d		 pop	 ebp
  00030	c2 0c 00	 ret	 12			; 0000000cH
?GetCharGrowth@ioCharRentalData@@QAEXKAAEH@Z ENDP	; ioCharRentalData::GetCharGrowth
_TEXT	ENDS
PUBLIC	?GetItemGrowth@ioCharRentalData@@QAEXKAAEH@Z	; ioCharRentalData::GetItemGrowth
; Function compile flags: /Ogsp
;	COMDAT ?GetItemGrowth@ioCharRentalData@@QAEXKAAEH@Z
_TEXT	SEGMENT
_dwCharIndex$ = 8					; size = 4
_rkItemGrowth$ = 12					; size = 4
_iSlot$ = 16						; size = 4
?GetItemGrowth@ioCharRentalData@@QAEXKAAEH@Z PROC	; ioCharRentalData::GetItemGrowth, COMDAT
; _this$ = ecx

; 130  : {

  00000	55		 push	 ebp
  00001	8b ec		 mov	 ebp, esp

; 131  : 	RentalDataList::iterator iter = m_RentalDataList.begin();

  00003	8b 41 04	 mov	 eax, DWORD PTR [ecx+4]

; 132  : 	for(;iter != m_RentalDataList.end();++iter)

  00006	8b 49 08	 mov	 ecx, DWORD PTR [ecx+8]
  00009	eb 0d		 jmp	 SHORT $LN41@GetItemGro
$LL18@GetItemGro:

; 133  : 	{
; 134  : 		RentalData &rkRentalData = *iter;
; 135  : 		if( rkRentalData.m_dwCharIndex == dwCharIndex )

  0000b	8b 50 10	 mov	 edx, DWORD PTR [eax+16]
  0000e	3b 55 08	 cmp	 edx, DWORD PTR _dwCharIndex$[ebp]
  00011	74 0b		 je	 SHORT $LN39@GetItemGro

; 132  : 	for(;iter != m_RentalDataList.end();++iter)

  00013	05 f0 00 00 00	 add	 eax, 240		; 000000f0H
$LN41@GetItemGro:
  00018	3b c1		 cmp	 eax, ecx
  0001a	75 ef		 jne	 SHORT $LL18@GetItemGro

; 133  : 	{
; 134  : 		RentalData &rkRentalData = *iter;
; 135  : 		if( rkRentalData.m_dwCharIndex == dwCharIndex )

  0001c	eb 11		 jmp	 SHORT $LN1@GetItemGro
$LN39@GetItemGro:

; 136  : 		{
; 137  : 			if( COMPARE( iSlot, 0, MAX_ITEM_GROWTH ) )

  0001e	8b 4d 10	 mov	 ecx, DWORD PTR _iSlot$[ebp]
  00021	83 f9 03	 cmp	 ecx, 3
  00024	77 09		 ja	 SHORT $LN1@GetItemGro

; 138  : 				rkItemGrowth = rkRentalData.m_ItemGrowth[iSlot];

  00026	8a 44 08 7c	 mov	 al, BYTE PTR [eax+ecx+124]
  0002a	8b 4d 0c	 mov	 ecx, DWORD PTR _rkItemGrowth$[ebp]
  0002d	88 01		 mov	 BYTE PTR [ecx], al
$LN1@GetItemGro:

; 139  : 			break;
; 140  : 		}
; 141  : 	}
; 142  : }

  0002f	5d		 pop	 ebp
  00030	c2 0c 00	 ret	 12			; 0000000cH
?GetItemGrowth@ioCharRentalData@@QAEXKAAEH@Z ENDP	; ioCharRentalData::GetItemGrowth
_TEXT	ENDS
PUBLIC	?EquipItem@ioCharRentalData@@QAEXAAUCHARACTERDATA@@_N@Z ; ioCharRentalData::EquipItem
EXTRN	?IsItem@ioItemMaker@@QAE_NK@Z:PROC		; ioItemMaker::IsItem
EXTRN	?IsPowerUpGradeItem@ioPowerUpManager@@QAE_NHH@Z:PROC ; ioPowerUpManager::IsPowerUpGradeItem
EXTRN	?GetSingleton@ioPowerUpManager@@SAAAV1@XZ:PROC	; ioPowerUpManager::GetSingleton
EXTRN	?ConvertPowerUpCharToItem@@YAHH@Z:PROC		; ConvertPowerUpCharToItem
; Function compile flags: /Ogsp
;	COMDAT ?EquipItem@ioCharRentalData@@QAEXAAUCHARACTERDATA@@_N@Z
_TEXT	SEGMENT
_value$513412 = -24					; size = 4
_value$513408 = -20					; size = 4
_value$513403 = -16					; size = 4
_value$513398 = -12					; size = 4
_value$513394 = -8					; size = 4
tv664 = -4						; size = 4
tv504 = 8						; size = 4
_rkCharData$ = 8					; size = 4
_bBulletInit$ = 12					; size = 1
?EquipItem@ioCharRentalData@@QAEXAAUCHARACTERDATA@@_N@Z PROC ; ioCharRentalData::EquipItem, COMDAT
; _this$ = ecx

; 145  : {

  00000	55		 push	 ebp
  00001	8b ec		 mov	 ebp, esp
  00003	83 ec 18	 sub	 esp, 24			; 00000018H
  00006	53		 push	 ebx

; 146  : 	RentalDataList::iterator iter = m_RentalDataList.begin();

  00007	8b 59 04	 mov	 ebx, DWORD PTR [ecx+4]

; 147  : 	for(;iter != m_RentalDataList.end();++iter)

  0000a	8b 49 08	 mov	 ecx, DWORD PTR [ecx+8]
  0000d	3b d9		 cmp	 ebx, ecx
  0000f	0f 84 1a 01 00
	00		 je	 $LN8@EquipItem
  00015	57		 push	 edi
  00016	8b 7d 08	 mov	 edi, DWORD PTR _rkCharData$[ebp]
  00019	8b 07		 mov	 eax, DWORD PTR [edi]
$LL27@EquipItem:

; 148  : 	{
; 149  : 		RentalData &rkRentalData = *iter;
; 150  : 		if( rkRentalData.m_dwCharIndex == rkCharData.m_dwIndex )

  0001b	39 43 10	 cmp	 DWORD PTR [ebx+16], eax
  0001e	74 0f		 je	 SHORT $LN59@EquipItem

; 147  : 	for(;iter != m_RentalDataList.end();++iter)

  00020	81 c3 f0 00 00
	00		 add	 ebx, 240		; 000000f0H
  00026	3b d9		 cmp	 ebx, ecx
  00028	75 f1		 jne	 SHORT $LL27@EquipItem

; 148  : 	{
; 149  : 		RentalData &rkRentalData = *iter;
; 150  : 		if( rkRentalData.m_dwCharIndex == rkCharData.m_dwIndex )

  0002a	e9 ff 00 00 00	 jmp	 $LN65@EquipItem
$LN59@EquipItem:

; 151  : 		{			
; 152  : 			for(int i = 0;i < MAX_INVENTORY;i++)

  0002f	83 65 08 00	 and	 DWORD PTR tv504[ebp], 0
  00033	8d 87 e4 01 00
	00		 lea	 eax, DWORD PTR [edi+484]
  00039	56		 push	 esi
  0003a	8d b7 28 03 00
	00		 lea	 esi, DWORD PTR [edi+808]
  00040	83 c3 18	 add	 ebx, 24			; 00000018H
  00043	89 45 fc	 mov	 DWORD PTR tv664[ebp], eax
$LL62@EquipItem:

; 153  : 			{
; 154  : 				rkCharData.m_data.m_extra_item[i] = 0;

  00046	8b 4d fc	 mov	 ecx, DWORD PTR tv664[ebp]
  00049	83 65 f8 00	 and	 DWORD PTR _value$513394[ebp], 0
  0004d	8d 45 f8	 lea	 eax, DWORD PTR _value$513394[ebp]
  00050	50		 push	 eax
  00051	e8 00 00 00 00	 call	 ?EncryptValueToPool@?$CEncrypt@H@@AAEXPBD@Z ; CEncrypt<int>::EncryptValueToPool

; 155  : 
; 156  : 				// 
; 157  : 				if( rkCharData.m_data.m_eCharPowerUpType != PUGT_NONE )

  00056	80 bf c0 02 00
	00 00		 cmp	 BYTE PTR [edi+704], 0

; 158  : 				{
; 159  : 					rkCharData.m_equip_item[i].m_item_code = (DEFAULT_BASIC_ITEM_CODE * i)  + ConvertPowerUpCharToItem( rkCharData.m_data.m_eCharPowerUpType ) + rkCharData.m_data.m_class_type;						

  0005d	8d 4f 04	 lea	 ecx, DWORD PTR [edi+4]
  00060	74 66		 je	 SHORT $LN7@EquipItem
  00062	8d 45 f4	 lea	 eax, DWORD PTR _value$513398[ebp]
  00065	50		 push	 eax
  00066	e8 00 00 00 00	 call	 ?DecryptValueToPool@?$CEncrypt@H@@QAEXPAH@Z ; CEncrypt<int>::DecryptValueToPool
  0006b	0f b6 87 c0 02
	00 00		 movzx	 eax, BYTE PTR [edi+704]
  00072	50		 push	 eax
  00073	e8 00 00 00 00	 call	 ?ConvertPowerUpCharToItem@@YAHH@Z ; ConvertPowerUpCharToItem
  00078	03 45 08	 add	 eax, DWORD PTR tv504[ebp]
  0007b	59		 pop	 ecx
  0007c	03 45 f4	 add	 eax, DWORD PTR _value$513398[ebp]

; 160  : 					if( !g_PowerUpManager.IsPowerUpGradeItem( rkCharData.m_data.m_class_type, rkCharData.m_equip_item[i].m_item_code ) || !g_ItemMaker.IsItem( rkCharData.m_equip_item[i].m_item_code ) )

  0007f	8d 4f 04	 lea	 ecx, DWORD PTR [edi+4]
  00082	89 06		 mov	 DWORD PTR [esi], eax
  00084	8d 45 f0	 lea	 eax, DWORD PTR _value$513403[ebp]
  00087	50		 push	 eax
  00088	e8 00 00 00 00	 call	 ?DecryptValueToPool@?$CEncrypt@H@@QAEXPAH@Z ; CEncrypt<int>::DecryptValueToPool
  0008d	ff 36		 push	 DWORD PTR [esi]
  0008f	ff 75 f0	 push	 DWORD PTR _value$513403[ebp]
  00092	e8 00 00 00 00	 call	 ?GetSingleton@ioPowerUpManager@@SAAAV1@XZ ; ioPowerUpManager::GetSingleton
  00097	8b c8		 mov	 ecx, eax
  00099	e8 00 00 00 00	 call	 ?IsPowerUpGradeItem@ioPowerUpManager@@QAE_NHH@Z ; ioPowerUpManager::IsPowerUpGradeItem
  0009e	84 c0		 test	 al, al
  000a0	74 12		 je	 SHORT $LN5@EquipItem
  000a2	ff 36		 push	 DWORD PTR [esi]
  000a4	e8 00 00 00 00	 call	 ?GetSingleton@ioItemMaker@@SAAAV1@XZ ; ioItemMaker::GetSingleton
  000a9	8b c8		 mov	 ecx, eax
  000ab	e8 00 00 00 00	 call	 ?IsItem@ioItemMaker@@QAE_NK@Z ; ioItemMaker::IsItem
  000b0	84 c0		 test	 al, al
  000b2	75 25		 jne	 SHORT $LN63@EquipItem
$LN5@EquipItem:

; 161  : 					{
; 162  : 						rkCharData.m_equip_item[i].m_item_code	= (DEFAULT_BASIC_ITEM_CODE * i) + rkCharData.m_data.m_class_type;

  000b4	8d 45 ec	 lea	 eax, DWORD PTR _value$513408[ebp]
  000b7	50		 push	 eax
  000b8	8d 4f 04	 lea	 ecx, DWORD PTR [edi+4]
  000bb	e8 00 00 00 00	 call	 ?DecryptValueToPool@?$CEncrypt@H@@QAEXPAH@Z ; CEncrypt<int>::DecryptValueToPool
  000c0	8b 4d 08	 mov	 ecx, DWORD PTR tv504[ebp]
  000c3	03 4d ec	 add	 ecx, DWORD PTR _value$513408[ebp]

; 163  : 					}
; 164  : 				}
; 165  : 				else

  000c6	eb 0f		 jmp	 SHORT $LN67@EquipItem
$LN7@EquipItem:

; 166  : 				{
; 167  : 					rkCharData.m_equip_item[i].m_item_code	= (DEFAULT_BASIC_ITEM_CODE * i) + rkCharData.m_data.m_class_type;

  000c8	8d 45 e8	 lea	 eax, DWORD PTR _value$513412[ebp]
  000cb	50		 push	 eax
  000cc	e8 00 00 00 00	 call	 ?DecryptValueToPool@?$CEncrypt@H@@QAEXPAH@Z ; CEncrypt<int>::DecryptValueToPool
  000d1	8b 4d 08	 mov	 ecx, DWORD PTR tv504[ebp]
  000d4	03 4d e8	 add	 ecx, DWORD PTR _value$513412[ebp]
$LN67@EquipItem:
  000d7	89 0e		 mov	 DWORD PTR [esi], ecx
$LN63@EquipItem:

; 168  : 				}
; 169  : 
; 170  : 				if( bBulletInit )

  000d9	80 7d 0c 00	 cmp	 BYTE PTR _bBulletInit$[ebp], 0
  000dd	74 04		 je	 SHORT $LN64@EquipItem

; 171  : 					rkCharData.m_equip_item[i].m_item_bullet	= -1;

  000df	83 4e 08 ff	 or	 DWORD PTR [esi+8], -1
$LN64@EquipItem:

; 172  : 				rkCharData.m_equip_item[i].m_item_male_custom	= 0;

  000e3	33 c0		 xor	 eax, eax
  000e5	89 46 0c	 mov	 DWORD PTR [esi+12], eax

; 173  : 				rkCharData.m_equip_item[i].m_item_female_custom	= 0;

  000e8	89 46 10	 mov	 DWORD PTR [esi+16], eax

; 174  : 
; 175  : 				if( rkRentalData.m_EquipItem[i].m_item_code > 0 )	//  

  000eb	39 03		 cmp	 DWORD PTR [ebx], eax
  000ed	7e 20		 jle	 SHORT $LN9@EquipItem

; 176  : 				{
; 177  : 					rkCharData.m_equip_item[i].m_item_code			= rkRentalData.m_EquipItem[i].m_item_code;
; 178  : 					rkCharData.m_equip_item[i].m_item_reinforce		= rkRentalData.m_EquipItem[i].m_item_reinforce;
; 179  : 					if( bBulletInit )

  000ef	80 7d 0c 00	 cmp	 BYTE PTR _bBulletInit$[ebp], 0
  000f3	8b 03		 mov	 eax, DWORD PTR [ebx]
  000f5	89 06		 mov	 DWORD PTR [esi], eax
  000f7	8b 43 04	 mov	 eax, DWORD PTR [ebx+4]
  000fa	89 46 04	 mov	 DWORD PTR [esi+4], eax
  000fd	74 04		 je	 SHORT $LN1@EquipItem

; 180  : 						rkCharData.m_equip_item[i].m_item_bullet		= -1;

  000ff	83 4e 08 ff	 or	 DWORD PTR [esi+8], -1
$LN1@EquipItem:

; 181  : 					rkCharData.m_equip_item[i].m_item_male_custom	= rkRentalData.m_EquipItem[i].m_item_male_custom;

  00103	8b 43 0c	 mov	 eax, DWORD PTR [ebx+12]
  00106	89 46 0c	 mov	 DWORD PTR [esi+12], eax

; 182  : 					rkCharData.m_equip_item[i].m_item_female_custom = rkRentalData.m_EquipItem[i].m_item_female_custom;

  00109	8b 43 10	 mov	 eax, DWORD PTR [ebx+16]
  0010c	89 46 10	 mov	 DWORD PTR [esi+16], eax
$LN9@EquipItem:

; 151  : 		{			
; 152  : 			for(int i = 0;i < MAX_INVENTORY;i++)

  0010f	81 45 08 a0 86
	01 00		 add	 DWORD PTR tv504[ebp], 100000 ; 000186a0H
  00116	83 45 fc 30	 add	 DWORD PTR tv664[ebp], 48 ; 00000030H
  0011a	83 c3 14	 add	 ebx, 20			; 00000014H
  0011d	83 c6 14	 add	 esi, 20			; 00000014H
  00120	81 7d 08 80 1a
	06 00		 cmp	 DWORD PTR tv504[ebp], 400000 ; 00061a80H
  00127	0f 8c 19 ff ff
	ff		 jl	 $LL62@EquipItem
  0012d	5e		 pop	 esi
$LN65@EquipItem:
  0012e	5f		 pop	 edi
$LN8@EquipItem:
  0012f	5b		 pop	 ebx

; 183  : 				}
; 184  : 			}
; 185  : 			break;
; 186  : 		}
; 187  : 	}
; 188  : }

  00130	c9		 leave
  00131	c2 08 00	 ret	 8
?EquipItem@ioCharRentalData@@QAEXAAUCHARACTERDATA@@_N@Z ENDP ; ioCharRentalData::EquipItem
_TEXT	ENDS
PUBLIC	?GetEquipCostume@ioCharRentalData@@QAE_NKAAUtagCostumeSlot@@H@Z ; ioCharRentalData::GetEquipCostume
EXTRN	?GetCostumeIcon@ioCostumeInfoManager@@QAE?AVioHashString@@H@Z:PROC ; ioCostumeInfoManager::GetCostumeIcon
EXTRN	?GetCostumeName@ioCostumeInfoManager@@QAE?AVioHashString@@H@Z:PROC ; ioCostumeInfoManager::GetCostumeName
EXTRN	?GetSingleton@ioCostumeInfoManager@@SAAAV1@XZ:PROC ; ioCostumeInfoManager::GetSingleton
;	COMDAT xdata$x
; File c:\program files (x86)\microsoft visual studio 10.0\vc\include\vector
xdata$x	SEGMENT
__unwindtable$?GetEquipCostume@ioCharRentalData@@QAE_NKAAUtagCostumeSlot@@H@Z DD 0ffffffffH
	DD	FLAT:__unwindfunclet$?GetEquipCostume@ioCharRentalData@@QAE_NKAAUtagCostumeSlot@@H@Z$0
	DD	0ffffffffH
	DD	FLAT:__unwindfunclet$?GetEquipCostume@ioCharRentalData@@QAE_NKAAUtagCostumeSlot@@H@Z$1
__ehfuncinfo$?GetEquipCostume@ioCharRentalData@@QAE_NKAAUtagCostumeSlot@@H@Z DD 019930522H
	DD	02H
	DD	FLAT:__unwindtable$?GetEquipCostume@ioCharRentalData@@QAE_NKAAUtagCostumeSlot@@H@Z
	DD	2 DUP(00H)
	DD	2 DUP(00H)
	DD	00H
	DD	01H
; Function compile flags: /Ogsp
; File d:\lost saga for developer\youtube\tutorial\source\src\lsclient\iocharrentaldata.cpp
xdata$x	ENDS
;	COMDAT ?GetEquipCostume@ioCharRentalData@@QAE_NKAAUtagCostumeSlot@@H@Z
_TEXT	SEGMENT
$T513428 = -44						; size = 16
$T513427 = -28						; size = 16
__$EHRec$ = -12						; size = 12
_dwCharIndex$ = 8					; size = 4
_sCostumeSlot$ = 12					; size = 4
_nSlot$ = 16						; size = 4
?GetEquipCostume@ioCharRentalData@@QAE_NKAAUtagCostumeSlot@@H@Z PROC ; ioCharRentalData::GetEquipCostume, COMDAT
; _this$ = ecx

; 221  : {

  00000	6a 20		 push	 32			; 00000020H
  00002	b8 00 00 00 00	 mov	 eax, __ehhandler$?GetEquipCostume@ioCharRentalData@@QAE_NKAAUtagCostumeSlot@@H@Z
  00007	e8 00 00 00 00	 call	 __EH_prolog3

; 222  : 	RentalDataList::iterator iter = m_RentalDataList.begin();

  0000c	8b 51 04	 mov	 edx, DWORD PTR [ecx+4]

; 223  : 	for(;iter != m_RentalDataList.end();++iter)

  0000f	8b 49 08	 mov	 ecx, DWORD PTR [ecx+8]
  00012	eb 0e		 jmp	 SHORT $LN45@GetEquipCo
$LL21@GetEquipCo:

; 224  : 	{
; 225  : 		RentalData &rkRentalData = *iter;
; 226  : 		if( rkRentalData.m_dwCharIndex == dwCharIndex )

  00014	8b 42 10	 mov	 eax, DWORD PTR [edx+16]
  00017	3b 45 08	 cmp	 eax, DWORD PTR _dwCharIndex$[ebp]
  0001a	74 14		 je	 SHORT $LN42@GetEquipCo

; 223  : 	for(;iter != m_RentalDataList.end();++iter)

  0001c	81 c2 f0 00 00
	00		 add	 edx, 240		; 000000f0H
$LN45@GetEquipCo:
  00022	3b d1		 cmp	 edx, ecx
  00024	75 ee		 jne	 SHORT $LL21@GetEquipCo
$LN1@GetEquipCo:

; 240  : 				}
; 241  : 			}
; 242  : 			break;
; 243  : 		}
; 244  : 	}
; 245  : 	return false;

  00026	32 c0		 xor	 al, al
$LN7@GetEquipCo:

; 246  : }

  00028	e8 00 00 00 00	 call	 __EH_epilog3
  0002d	c2 0c 00	 ret	 12			; 0000000cH
$LN42@GetEquipCo:

; 227  : 		{
; 228  : 			if( COMPARE( nSlot, 0, MAX_INVENTORY ) )

  00030	8b 45 10	 mov	 eax, DWORD PTR _nSlot$[ebp]
  00033	83 f8 03	 cmp	 eax, 3
  00036	77 ee		 ja	 SHORT $LN1@GetEquipCo

; 229  : 			{
; 230  : 				if( rkRentalData.m_CostumeEquipInfo[nSlot].m_CostumeCode > 0 )

  00038	c1 e0 04	 shl	 eax, 4
  0003b	03 c2		 add	 eax, edx
  0003d	8b 88 84 00 00
	00		 mov	 ecx, DWORD PTR [eax+132]
  00043	85 c9		 test	 ecx, ecx
  00045	7e df		 jle	 SHORT $LN1@GetEquipCo

; 231  : 				{
; 232  : 					sCostumeSlot.m_nCostumeCode		= rkRentalData.m_CostumeEquipInfo[nSlot].m_CostumeCode;

  00047	8b 75 0c	 mov	 esi, DWORD PTR _sCostumeSlot$[ebp]
  0004a	89 0e		 mov	 DWORD PTR [esi], ecx

; 233  : 					sCostumeSlot.m_dwMaleCustom		= rkRentalData.m_CostumeEquipInfo[nSlot].m_Costume_Male_Custom;

  0004c	8b 88 88 00 00
	00		 mov	 ecx, DWORD PTR [eax+136]

; 234  : 					sCostumeSlot.m_dwFemaleCustom	= rkRentalData.m_CostumeEquipInfo[nSlot].m_Costume_Female_Custom;
; 235  : 					sCostumeSlot.m_PeriodType		= EPT_MORTMAIN;
; 236  : 
; 237  : 					sCostumeSlot.m_Name = g_CostumeInfoMgr.GetCostumeName( sCostumeSlot.m_nCostumeCode );

  00052	ff 36		 push	 DWORD PTR [esi]
  00054	89 4e 14	 mov	 DWORD PTR [esi+20], ecx
  00057	8b 80 8c 00 00
	00		 mov	 eax, DWORD PTR [eax+140]
  0005d	89 46 18	 mov	 DWORD PTR [esi+24], eax
  00060	8d 45 e4	 lea	 eax, DWORD PTR $T513427[ebp]
  00063	50		 push	 eax
  00064	c6 46 08 01	 mov	 BYTE PTR [esi+8], 1
  00068	e8 00 00 00 00	 call	 ?GetSingleton@ioCostumeInfoManager@@SAAAV1@XZ ; ioCostumeInfoManager::GetSingleton
  0006d	8b c8		 mov	 ecx, eax
  0006f	e8 00 00 00 00	 call	 ?GetCostumeName@ioCostumeInfoManager@@QAE?AVioHashString@@H@Z ; ioCostumeInfoManager::GetCostumeName
  00074	8b 3d 00 00 00
	00		 mov	 edi, DWORD PTR __imp_??4ioHashString@@QAEAAV0@ABV0@@Z
  0007a	83 65 fc 00	 and	 DWORD PTR __$EHRec$[ebp+8], 0
  0007e	50		 push	 eax
  0007f	8d 4e 20	 lea	 ecx, DWORD PTR [esi+32]
  00082	ff d7		 call	 edi
  00084	8b 1d 00 00 00
	00		 mov	 ebx, DWORD PTR __imp_??1ioHashString@@QAE@XZ
  0008a	83 4d fc ff	 or	 DWORD PTR __$EHRec$[ebp+8], -1
  0008e	8d 4d e4	 lea	 ecx, DWORD PTR $T513427[ebp]
  00091	ff d3		 call	 ebx

; 238  : 					sCostumeSlot.m_IconName = g_CostumeInfoMgr.GetCostumeIcon( sCostumeSlot.m_nCostumeCode );

  00093	ff 36		 push	 DWORD PTR [esi]
  00095	8d 45 d4	 lea	 eax, DWORD PTR $T513428[ebp]
  00098	50		 push	 eax
  00099	e8 00 00 00 00	 call	 ?GetSingleton@ioCostumeInfoManager@@SAAAV1@XZ ; ioCostumeInfoManager::GetSingleton
  0009e	8b c8		 mov	 ecx, eax
  000a0	e8 00 00 00 00	 call	 ?GetCostumeIcon@ioCostumeInfoManager@@QAE?AVioHashString@@H@Z ; ioCostumeInfoManager::GetCostumeIcon
  000a5	50		 push	 eax
  000a6	8d 4e 30	 lea	 ecx, DWORD PTR [esi+48]
  000a9	c7 45 fc 01 00
	00 00		 mov	 DWORD PTR __$EHRec$[ebp+8], 1
  000b0	ff d7		 call	 edi
  000b2	83 4d fc ff	 or	 DWORD PTR __$EHRec$[ebp+8], -1
  000b6	8d 4d d4	 lea	 ecx, DWORD PTR $T513428[ebp]
  000b9	ff d3		 call	 ebx

; 239  : 					return true;

  000bb	b0 01		 mov	 al, 1
  000bd	e9 66 ff ff ff	 jmp	 $LN7@GetEquipCo
_TEXT	ENDS
;	COMDAT text$x
text$x	SEGMENT
__unwindfunclet$?GetEquipCostume@ioCharRentalData@@QAE_NKAAUtagCostumeSlot@@H@Z$0:
  00000	8d 4d e4	 lea	 ecx, DWORD PTR $T513427[ebp]
  00003	ff 25 00 00 00
	00		 jmp	 DWORD PTR __imp_??1ioHashString@@QAE@XZ
__unwindfunclet$?GetEquipCostume@ioCharRentalData@@QAE_NKAAUtagCostumeSlot@@H@Z$1:
  00009	8d 4d d4	 lea	 ecx, DWORD PTR $T513428[ebp]
  0000c	ff 25 00 00 00
	00		 jmp	 DWORD PTR __imp_??1ioHashString@@QAE@XZ
__ehhandler$?GetEquipCostume@ioCharRentalData@@QAE_NKAAUtagCostumeSlot@@H@Z:
  00012	8b 54 24 08	 mov	 edx, DWORD PTR [esp+8]
  00016	8d 42 0c	 lea	 eax, DWORD PTR [edx+12]
  00019	8b 4a d0	 mov	 ecx, DWORD PTR [edx-48]
  0001c	33 c8		 xor	 ecx, eax
  0001e	e8 00 00 00 00	 call	 @__security_check_cookie@4
  00023	b8 00 00 00 00	 mov	 eax, OFFSET __ehfuncinfo$?GetEquipCostume@ioCharRentalData@@QAE_NKAAUtagCostumeSlot@@H@Z
  00028	e9 00 00 00 00	 jmp	 ___CxxFrameHandler3
text$x	ENDS
?GetEquipCostume@ioCharRentalData@@QAE_NKAAUtagCostumeSlot@@H@Z ENDP ; ioCharRentalData::GetEquipCostume
PUBLIC	?EquipCostume@ioCharRentalData@@QAEXAAUCHARACTERDATA@@@Z ; ioCharRentalData::EquipCostume
; Function compile flags: /Ogsp
;	COMDAT ?EquipCostume@ioCharRentalData@@QAEXAAUCHARACTERDATA@@@Z
_TEXT	SEGMENT
_rkCharData$ = 8					; size = 4
?EquipCostume@ioCharRentalData@@QAEXAAUCHARACTERDATA@@@Z PROC ; ioCharRentalData::EquipCostume, COMDAT
; _this$ = ecx

; 249  : {

  00000	55		 push	 ebp
  00001	8b ec		 mov	 ebp, esp

; 250  : 	RentalDataList::iterator iter = m_RentalDataList.begin();

  00003	8b 41 04	 mov	 eax, DWORD PTR [ecx+4]

; 251  : 	for(;iter != m_RentalDataList.end();++iter)

  00006	8b 49 08	 mov	 ecx, DWORD PTR [ecx+8]
  00009	3b c1		 cmp	 eax, ecx
  0000b	74 52		 je	 SHORT $LN2@EquipCostu
  0000d	8b 55 08	 mov	 edx, DWORD PTR _rkCharData$[ebp]
  00010	56		 push	 esi
  00011	8b 32		 mov	 esi, DWORD PTR [edx]
$LL21@EquipCostu:

; 252  : 	{
; 253  : 		RentalData &rkRentalData = *iter;
; 254  : 		if( rkRentalData.m_dwCharIndex == rkCharData.m_dwIndex )

  00013	39 70 10	 cmp	 DWORD PTR [eax+16], esi
  00016	74 0b		 je	 SHORT $LN45@EquipCostu

; 251  : 	for(;iter != m_RentalDataList.end();++iter)

  00018	05 f0 00 00 00	 add	 eax, 240		; 000000f0H
  0001d	3b c1		 cmp	 eax, ecx
  0001f	75 f2		 jne	 SHORT $LL21@EquipCostu

; 252  : 	{
; 253  : 		RentalData &rkRentalData = *iter;
; 254  : 		if( rkRentalData.m_dwCharIndex == rkCharData.m_dwIndex )

  00021	eb 3b		 jmp	 SHORT $LN48@EquipCostu
$LN45@EquipCostu:
  00023	57		 push	 edi

; 255  : 		{			
; 256  : 			for(int i = 0;i < MAX_INVENTORY;i++)

  00024	6a 04		 push	 4
  00026	8d 88 84 00 00
	00		 lea	 ecx, DWORD PTR [eax+132]
  0002c	8d 82 cc 02 00
	00		 lea	 eax, DWORD PTR [edx+716]
  00032	5f		 pop	 edi
  00033	33 f6		 xor	 esi, esi
$LL4@EquipCostu:

; 257  : 			{
; 258  : 				rkCharData.m_data.m_EquipCostume[i].Init();

  00035	89 70 f8	 mov	 DWORD PTR [eax-8], esi
  00038	89 70 fc	 mov	 DWORD PTR [eax-4], esi
  0003b	89 30		 mov	 DWORD PTR [eax], esi
  0003d	89 70 04	 mov	 DWORD PTR [eax+4], esi

; 259  : 
; 260  : 				//   ( )
; 261  : 				if( rkRentalData.m_CostumeEquipInfo[i].m_CostumeCode > 0 )	

  00040	8b 11		 mov	 edx, DWORD PTR [ecx]
  00042	3b d6		 cmp	 edx, esi
  00044	7e 0e		 jle	 SHORT $LN3@EquipCostu

; 262  : 				{
; 263  : 					rkCharData.m_data.m_EquipCostume[i].m_CostumeCode			= rkRentalData.m_CostumeEquipInfo[i].m_CostumeCode;

  00046	89 50 fc	 mov	 DWORD PTR [eax-4], edx

; 264  : 					rkCharData.m_data.m_EquipCostume[i].m_Costume_Male_Custom	= rkRentalData.m_CostumeEquipInfo[i].m_Costume_Male_Custom;

  00049	8b 51 04	 mov	 edx, DWORD PTR [ecx+4]
  0004c	89 10		 mov	 DWORD PTR [eax], edx

; 265  : 					rkCharData.m_data.m_EquipCostume[i].m_Costume_Female_Custom = rkRentalData.m_CostumeEquipInfo[i].m_Costume_Female_Custom;

  0004e	8b 51 08	 mov	 edx, DWORD PTR [ecx+8]
  00051	89 50 04	 mov	 DWORD PTR [eax+4], edx
$LN3@EquipCostu:

; 255  : 		{			
; 256  : 			for(int i = 0;i < MAX_INVENTORY;i++)

  00054	83 c0 10	 add	 eax, 16			; 00000010H
  00057	83 c1 10	 add	 ecx, 16			; 00000010H
  0005a	4f		 dec	 edi
  0005b	75 d8		 jne	 SHORT $LL4@EquipCostu
  0005d	5f		 pop	 edi
$LN48@EquipCostu:
  0005e	5e		 pop	 esi
$LN2@EquipCostu:

; 266  : 				}
; 267  : 			}
; 268  : 			break;
; 269  : 		}
; 270  : 	}
; 271  : }

  0005f	5d		 pop	 ebp
  00060	c2 04 00	 ret	 4
?EquipCostume@ioCharRentalData@@QAEXAAUCHARACTERDATA@@@Z ENDP ; ioCharRentalData::EquipCostume
_TEXT	ENDS
PUBLIC	??_C@_0CE@KHFCPJLK@ioCharRentalData?3?3GetEquipAccess@ ; `string'
PUBLIC	?GetEquipAccessory@ioCharRentalData@@QAE_NKAAUtagAccessorySlot@@H@Z ; ioCharRentalData::GetEquipAccessory
;	COMDAT ??_C@_0CE@KHFCPJLK@ioCharRentalData?3?3GetEquipAccess@
; File d:\lost saga for developer\youtube\tutorial\source\src\lsclient\ioitem.h
CONST	SEGMENT
??_C@_0CE@KHFCPJLK@ioCharRentalData?3?3GetEquipAccess@ DB 'ioCharRentalDa'
	DB	'ta::GetEquipAccessory', 00H			; `string'
CONST	ENDS
;	COMDAT xdata$x
xdata$x	SEGMENT
__unwindtable$?GetEquipAccessory@ioCharRentalData@@QAE_NKAAUtagAccessorySlot@@H@Z DD 0ffffffffH
	DD	FLAT:__unwindfunclet$?GetEquipAccessory@ioCharRentalData@@QAE_NKAAUtagAccessorySlot@@H@Z$0
__ehfuncinfo$?GetEquipAccessory@ioCharRentalData@@QAE_NKAAUtagAccessorySlot@@H@Z DD 019930522H
	DD	01H
	DD	FLAT:__unwindtable$?GetEquipAccessory@ioCharRentalData@@QAE_NKAAUtagAccessorySlot@@H@Z
	DD	2 DUP(00H)
	DD	2 DUP(00H)
	DD	00H
	DD	01H
; Function compile flags: /Ogsp
; File d:\lost saga for developer\youtube\tutorial\source\src\lsclient\iocharrentaldata.cpp
xdata$x	ENDS
;	COMDAT ?GetEquipAccessory@ioCharRentalData@@QAE_NKAAUtagAccessorySlot@@H@Z
_TEXT	SEGMENT
$T513620 = -28						; size = 16
__$EHRec$ = -12						; size = 12
_pItem$508766 = 8					; size = 4
_dwCharIndex$ = 8					; size = 4
_sAccessorySlot$ = 12					; size = 4
_iSlot$ = 16						; size = 4
?GetEquipAccessory@ioCharRentalData@@QAE_NKAAUtagAccessorySlot@@H@Z PROC ; ioCharRentalData::GetEquipAccessory, COMDAT
; _this$ = ecx

; 274  : {

  00000	6a 10		 push	 16			; 00000010H
  00002	b8 00 00 00 00	 mov	 eax, __ehhandler$?GetEquipAccessory@ioCharRentalData@@QAE_NKAAUtagAccessorySlot@@H@Z
  00007	e8 00 00 00 00	 call	 __EH_prolog3

; 275  : 	RentalDataList::iterator iter = m_RentalDataList.begin();

  0000c	8b 51 04	 mov	 edx, DWORD PTR [ecx+4]

; 276  : 	for(;iter != m_RentalDataList.end();++iter)

  0000f	8b 49 08	 mov	 ecx, DWORD PTR [ecx+8]
  00012	eb 0e		 jmp	 SHORT $LN47@GetEquipAc
$LL21@GetEquipAc:

; 277  : 	{
; 278  : 		RentalData &rkRentalData = *iter;
; 279  : 		if( rkRentalData.m_dwCharIndex == dwCharIndex )

  00014	8b 42 10	 mov	 eax, DWORD PTR [edx+16]
  00017	3b 45 08	 cmp	 eax, DWORD PTR _dwCharIndex$[ebp]
  0001a	74 14		 je	 SHORT $LN44@GetEquipAc

; 276  : 	for(;iter != m_RentalDataList.end();++iter)

  0001c	81 c2 f0 00 00
	00		 add	 edx, 240		; 000000f0H
$LN47@GetEquipAc:
  00022	3b d1		 cmp	 edx, ecx
  00024	75 ee		 jne	 SHORT $LL21@GetEquipAc
$LN2@GetEquipAc:

; 292  : 				}
; 293  : 			}
; 294  : 			break;
; 295  : 		}
; 296  : 	}
; 297  : 	return false;

  00026	32 c0		 xor	 al, al
$LN8@GetEquipAc:

; 298  : }

  00028	e8 00 00 00 00	 call	 __EH_epilog3
  0002d	c2 0c 00	 ret	 12			; 0000000cH
$LN44@GetEquipAc:

; 280  : 		{
; 281  : 			if( COMPARE( iSlot, 0, MAX_ACC_INVENTORY ) )

  00030	8b 45 10	 mov	 eax, DWORD PTR _iSlot$[ebp]
  00033	83 f8 02	 cmp	 eax, 2
  00036	77 ee		 ja	 SHORT $LN2@GetEquipAc

; 282  : 			{
; 283  : 				if( rkRentalData.m_AccessoryEquipInfo[iSlot].m_iAccessoryCode> 0 )

  00038	6b c0 0c	 imul	 eax, 12			; 0000000cH
  0003b	8d 3c 10	 lea	 edi, DWORD PTR [eax+edx]
  0003e	8b 87 c4 00 00
	00		 mov	 eax, DWORD PTR [edi+196]
  00044	85 c0		 test	 eax, eax
  00046	7e de		 jle	 SHORT $LN2@GetEquipAc

; 284  : 				{
; 285  : 					sAccessorySlot.m_iAccessoryCode		= rkRentalData.m_AccessoryEquipInfo[iSlot].m_iAccessoryCode;

  00048	8b 75 0c	 mov	 esi, DWORD PTR _sAccessorySlot$[ebp]

; 286  : 					const ioItem *pItem = g_ItemMaker.GetItemConst( sAccessorySlot.m_iAccessoryCode, __FUNCTION__ );

  0004b	68 00 00 00 00	 push	 OFFSET ??_C@_0CE@KHFCPJLK@ioCharRentalData?3?3GetEquipAccess@
  00050	8d 4d e4	 lea	 ecx, DWORD PTR $T513620[ebp]
  00053	89 06		 mov	 DWORD PTR [esi], eax
  00055	ff 15 00 00 00
	00		 call	 DWORD PTR __imp_??0ioHashString@@QAE@PBD@Z
  0005b	83 65 fc 00	 and	 DWORD PTR __$EHRec$[ebp+8], 0
  0005f	8d 45 e4	 lea	 eax, DWORD PTR $T513620[ebp]
  00062	50		 push	 eax
  00063	ff 36		 push	 DWORD PTR [esi]
  00065	e8 00 00 00 00	 call	 ?GetSingleton@ioItemMaker@@SAAAV1@XZ ; ioItemMaker::GetSingleton
  0006a	8b c8		 mov	 ecx, eax
  0006c	e8 00 00 00 00	 call	 ?GetItemConst@ioItemMaker@@QBEPBVioItem@@KABVioHashString@@@Z ; ioItemMaker::GetItemConst
  00071	83 4d fc ff	 or	 DWORD PTR __$EHRec$[ebp+8], -1
  00075	8d 4d e4	 lea	 ecx, DWORD PTR $T513620[ebp]
  00078	89 45 08	 mov	 DWORD PTR _pItem$508766[ebp], eax
  0007b	ff 15 00 00 00
	00		 call	 DWORD PTR __imp_??1ioHashString@@QAE@XZ

; 287  : 					if( pItem )

  00081	83 7d 08 00	 cmp	 DWORD PTR _pItem$508766[ebp], 0
  00085	8b 1d 00 00 00
	00		 mov	 ebx, DWORD PTR __imp_??4ioHashString@@QAEAAV0@ABV0@@Z
  0008b	74 0e		 je	 SHORT $LN1@GetEquipAc

; 288  : 						sAccessorySlot.m_Name = pItem->GetName();

  0008d	8b 45 08	 mov	 eax, DWORD PTR _pItem$508766[ebp]
  00090	05 34 01 00 00	 add	 eax, 308		; 00000134H
  00095	50		 push	 eax
  00096	8d 4e 24	 lea	 ecx, DWORD PTR [esi+36]
  00099	ff d3		 call	 ebx
$LN1@GetEquipAc:

; 289  : 					sAccessorySlot.m_IconName = g_ItemMaker.GetItemLargeIcon( sAccessorySlot.m_iAccessoryCode, 0 );

  0009b	6a 00		 push	 0
  0009d	ff 36		 push	 DWORD PTR [esi]
  0009f	e8 00 00 00 00	 call	 ?GetSingleton@ioItemMaker@@SAAAV1@XZ ; ioItemMaker::GetSingleton
  000a4	8b c8		 mov	 ecx, eax
  000a6	e8 00 00 00 00	 call	 ?GetItemLargeIcon@ioItemMaker@@QBEABVioHashString@@KK@Z ; ioItemMaker::GetItemLargeIcon
  000ab	50		 push	 eax
  000ac	8d 4e 34	 lea	 ecx, DWORD PTR [esi+52]
  000af	ff d3		 call	 ebx

; 290  : 					sAccessorySlot.m_iRandomNumber = rkRentalData.m_AccessoryEquipInfo[iSlot].m_iRandomNumber;

  000b1	8b 87 c8 00 00
	00		 mov	 eax, DWORD PTR [edi+200]
  000b7	89 46 08	 mov	 DWORD PTR [esi+8], eax

; 291  : 					return true;

  000ba	b0 01		 mov	 al, 1
  000bc	e9 67 ff ff ff	 jmp	 $LN8@GetEquipAc
_TEXT	ENDS
;	COMDAT text$x
text$x	SEGMENT
__unwindfunclet$?GetEquipAccessory@ioCharRentalData@@QAE_NKAAUtagAccessorySlot@@H@Z$0:
  00000	8d 4d e4	 lea	 ecx, DWORD PTR $T513620[ebp]
  00003	ff 25 00 00 00
	00		 jmp	 DWORD PTR __imp_??1ioHashString@@QAE@XZ
__ehhandler$?GetEquipAccessory@ioCharRentalData@@QAE_NKAAUtagAccessorySlot@@H@Z:
  00009	8b 54 24 08	 mov	 edx, DWORD PTR [esp+8]
  0000d	8d 42 0c	 lea	 eax, DWORD PTR [edx+12]
  00010	8b 4a e0	 mov	 ecx, DWORD PTR [edx-32]
  00013	33 c8		 xor	 ecx, eax
  00015	e8 00 00 00 00	 call	 @__security_check_cookie@4
  0001a	b8 00 00 00 00	 mov	 eax, OFFSET __ehfuncinfo$?GetEquipAccessory@ioCharRentalData@@QAE_NKAAUtagAccessorySlot@@H@Z
  0001f	e9 00 00 00 00	 jmp	 ___CxxFrameHandler3
text$x	ENDS
?GetEquipAccessory@ioCharRentalData@@QAE_NKAAUtagAccessorySlot@@H@Z ENDP ; ioCharRentalData::GetEquipAccessory
PUBLIC	?EquipAccessory@ioCharRentalData@@QAEXAAUCHARACTERDATA@@@Z ; ioCharRentalData::EquipAccessory
; Function compile flags: /Ogsp
;	COMDAT ?EquipAccessory@ioCharRentalData@@QAEXAAUCHARACTERDATA@@@Z
_TEXT	SEGMENT
_rkCharData$ = 8					; size = 4
?EquipAccessory@ioCharRentalData@@QAEXAAUCHARACTERDATA@@@Z PROC ; ioCharRentalData::EquipAccessory, COMDAT
; _this$ = ecx

; 301  : {

  00000	55		 push	 ebp
  00001	8b ec		 mov	 ebp, esp

; 302  : 	RentalDataList::iterator iter = m_RentalDataList.begin();

  00003	8b 41 04	 mov	 eax, DWORD PTR [ecx+4]

; 303  : 	for(;iter != m_RentalDataList.end();++iter)

  00006	8b 49 08	 mov	 ecx, DWORD PTR [ecx+8]
  00009	3b c1		 cmp	 eax, ecx
  0000b	74 44		 je	 SHORT $LN2@EquipAcces
  0000d	8b 55 08	 mov	 edx, DWORD PTR _rkCharData$[ebp]
  00010	56		 push	 esi
  00011	8b 32		 mov	 esi, DWORD PTR [edx]
$LL21@EquipAcces:

; 304  : 	{
; 305  : 		RentalData &rkRentalData = *iter;
; 306  : 		if( rkRentalData.m_dwCharIndex == rkCharData.m_dwIndex )

  00013	39 70 10	 cmp	 DWORD PTR [eax+16], esi
  00016	74 0b		 je	 SHORT $LN45@EquipAcces

; 303  : 	for(;iter != m_RentalDataList.end();++iter)

  00018	05 f0 00 00 00	 add	 eax, 240		; 000000f0H
  0001d	3b c1		 cmp	 eax, ecx
  0001f	75 f2		 jne	 SHORT $LL21@EquipAcces

; 304  : 	{
; 305  : 		RentalData &rkRentalData = *iter;
; 306  : 		if( rkRentalData.m_dwCharIndex == rkCharData.m_dwIndex )

  00021	eb 2d		 jmp	 SHORT $LN48@EquipAcces
$LN45@EquipAcces:
  00023	57		 push	 edi

; 307  : 		{			
; 308  : 			for(int i = 0;i < MAX_ACC_INVENTORY;i++)

  00024	6a 03		 push	 3
  00026	8d 88 c4 00 00
	00		 lea	 ecx, DWORD PTR [eax+196]
  0002c	8d 82 0c 03 00
	00		 lea	 eax, DWORD PTR [edx+780]
  00032	5f		 pop	 edi
  00033	33 f6		 xor	 esi, esi
$LL4@EquipAcces:

; 309  : 			{
; 310  : 				rkCharData.m_data.m_EquipAccessory[i].Init();

  00035	89 70 f8	 mov	 DWORD PTR [eax-8], esi
  00038	89 70 fc	 mov	 DWORD PTR [eax-4], esi
  0003b	89 30		 mov	 DWORD PTR [eax], esi

; 311  : 				if( rkRentalData.m_AccessoryEquipInfo[i].m_iAccessoryCode > 0 )	

  0003d	8b 11		 mov	 edx, DWORD PTR [ecx]
  0003f	3b d6		 cmp	 edx, esi
  00041	7e 03		 jle	 SHORT $LN3@EquipAcces

; 312  : 					rkCharData.m_data.m_EquipAccessory[i].m_iAccessoryCode			= rkRentalData.m_AccessoryEquipInfo[i].m_iAccessoryCode;

  00043	89 50 fc	 mov	 DWORD PTR [eax-4], edx
$LN3@EquipAcces:

; 307  : 		{			
; 308  : 			for(int i = 0;i < MAX_ACC_INVENTORY;i++)

  00046	83 c1 0c	 add	 ecx, 12			; 0000000cH
  00049	83 c0 0c	 add	 eax, 12			; 0000000cH
  0004c	4f		 dec	 edi
  0004d	75 e6		 jne	 SHORT $LL4@EquipAcces
  0004f	5f		 pop	 edi
$LN48@EquipAcces:
  00050	5e		 pop	 esi
$LN2@EquipAcces:

; 313  : 			}
; 314  : 			break;
; 315  : 		}
; 316  : 	}
; 317  : }

  00051	5d		 pop	 ebp
  00052	c2 04 00	 ret	 4
?EquipAccessory@ioCharRentalData@@QAEXAAUCHARACTERDATA@@@Z ENDP ; ioCharRentalData::EquipAccessory
_TEXT	ENDS
PUBLIC	??$_Uninitialized_copy@V?$_Vector_const_iterator@V?$_Vector_val@KV?$allocator@K@std@@@std@@@std@@PAKV?$allocator@K@2@@std@@YAPAKV?$_Vector_const_iterator@V?$_Vector_val@KV?$allocator@K@std@@@std@@@0@0PAKAAV?$allocator@K@0@@Z ; std::_Uninitialized_copy<std::_Vector_const_iterator<std::_Vector_val<unsigned long,std::allocator<unsigned long> > >,unsigned long *,std::allocator<unsigned long> >
; Function compile flags: /Ogsp
; File c:\program files (x86)\microsoft visual studio 10.0\vc\include\memory
;	COMDAT ??$_Uninitialized_copy@V?$_Vector_const_iterator@V?$_Vector_val@KV?$allocator@K@std@@@std@@@std@@PAKV?$allocator@K@2@@std@@YAPAKV?$_Vector_const_iterator@V?$_Vector_val@KV?$allocator@K@std@@@std@@@0@0PAKAAV?$allocator@K@0@@Z
_TEXT	SEGMENT
__Cat$513817 = -4					; size = 1
__First$ = 8						; size = 4
__Last$ = 12						; size = 4
__Dest$ = 16						; size = 4
__Al$ = 20						; size = 4
??$_Uninitialized_copy@V?$_Vector_const_iterator@V?$_Vector_val@KV?$allocator@K@std@@@std@@@std@@PAKV?$allocator@K@2@@std@@YAPAKV?$_Vector_const_iterator@V?$_Vector_val@KV?$allocator@K@std@@@std@@@0@0PAKAAV?$allocator@K@0@@Z PROC ; std::_Uninitialized_copy<std::_Vector_const_iterator<std::_Vector_val<unsigned long,std::allocator<unsigned long> > >,unsigned long *,std::allocator<unsigned long> >, COMDAT

; 412  : 	{	// copy [_First, _Last) to raw _Dest, using _Al

  00000	55		 push	 ebp
  00001	8b ec		 mov	 ebp, esp
  00003	51		 push	 ecx

; 413  : 	return (_Uninit_copy(_First, _Last, _Dest, _Al,
; 414  : 		_Ptr_cat(_First, _Dest)));

  00004	ff 75 fc	 push	 DWORD PTR __Cat$513817[ebp]
  00007	ff 75 14	 push	 DWORD PTR __Al$[ebp]
  0000a	ff 75 10	 push	 DWORD PTR __Dest$[ebp]
  0000d	ff 75 0c	 push	 DWORD PTR __Last$[ebp]
  00010	ff 75 08	 push	 DWORD PTR __First$[ebp]
  00013	e8 00 00 00 00	 call	 ??$_Uninit_copy@V?$_Vector_const_iterator@V?$_Vector_val@KV?$allocator@K@std@@@std@@@std@@PAKV?$allocator@K@2@@std@@YAPAKV?$_Vector_const_iterator@V?$_Vector_val@KV?$allocator@K@std@@@std@@@0@0PAKAAV?$allocator@K@0@U_Nonscalar_ptr_iterator_tag@0@@Z ; std::_Uninit_copy<std::_Vector_const_iterator<std::_Vector_val<unsigned long,std::allocator<unsigned long> > >,unsigned long *,std::allocator<unsigned long> >
  00018	83 c4 14	 add	 esp, 20			; 00000014H

; 415  : 	}

  0001b	c9		 leave
  0001c	c3		 ret	 0
??$_Uninitialized_copy@V?$_Vector_const_iterator@V?$_Vector_val@KV?$allocator@K@std@@@std@@@std@@PAKV?$allocator@K@2@@std@@YAPAKV?$_Vector_const_iterator@V?$_Vector_val@KV?$allocator@K@std@@@std@@@0@0PAKAAV?$allocator@K@0@@Z ENDP ; std::_Uninitialized_copy<std::_Vector_const_iterator<std::_Vector_val<unsigned long,std::allocator<unsigned long> > >,unsigned long *,std::allocator<unsigned long> >
_TEXT	ENDS
PUBLIC	??1?$vector@KV?$allocator@K@std@@@std@@QAE@XZ	; std::vector<unsigned long,std::allocator<unsigned long> >::~vector<unsigned long,std::allocator<unsigned long> >
; Function compile flags: /Ogsp
; File c:\program files (x86)\microsoft visual studio 10.0\vc\include\vector
;	COMDAT ??1?$vector@KV?$allocator@K@std@@@std@@QAE@XZ
_TEXT	SEGMENT
??1?$vector@KV?$allocator@K@std@@@std@@QAE@XZ PROC	; std::vector<unsigned long,std::allocator<unsigned long> >::~vector<unsigned long,std::allocator<unsigned long> >, COMDAT
; _this$ = ecx

; 705  : 		_Tidy();

  00000	e9 00 00 00 00	 jmp	 ?_Tidy@?$vector@KV?$allocator@K@std@@@std@@IAEXXZ ; std::vector<unsigned long,std::allocator<unsigned long> >::_Tidy
??1?$vector@KV?$allocator@K@std@@@std@@QAE@XZ ENDP	; std::vector<unsigned long,std::allocator<unsigned long> >::~vector<unsigned long,std::allocator<unsigned long> >
_TEXT	ENDS
PUBLIC	?clear@?$vector@KV?$allocator@K@std@@@std@@QAEXXZ ; std::vector<unsigned long,std::allocator<unsigned long> >::clear
; Function compile flags: /Ogsp
;	COMDAT ?clear@?$vector@KV?$allocator@K@std@@@std@@QAEXXZ
_TEXT	SEGMENT
$T513831 = -4						; size = 4
?clear@?$vector@KV?$allocator@K@std@@@std@@QAEXXZ PROC	; std::vector<unsigned long,std::allocator<unsigned long> >::clear, COMDAT
; _this$ = ecx

; 1217 : 		{	// erase all

  00000	55		 push	 ebp
  00001	8b ec		 mov	 ebp, esp
  00003	51		 push	 ecx

; 1218 : 		erase(begin(), end());

  00004	8b 41 04	 mov	 eax, DWORD PTR [ecx+4]
  00007	8b 11		 mov	 edx, DWORD PTR [ecx]
  00009	50		 push	 eax
  0000a	52		 push	 edx
  0000b	8d 45 fc	 lea	 eax, DWORD PTR $T513831[ebp]
  0000e	50		 push	 eax
  0000f	e8 00 00 00 00	 call	 ?erase@?$vector@KV?$allocator@K@std@@@std@@QAE?AV?$_Vector_iterator@V?$_Vector_val@KV?$allocator@K@std@@@std@@@2@V?$_Vector_const_iterator@V?$_Vector_val@KV?$allocator@K@std@@@std@@@2@0@Z ; std::vector<unsigned long,std::allocator<unsigned long> >::erase

; 1219 : 		}

  00014	c9		 leave
  00015	c3		 ret	 0
?clear@?$vector@KV?$allocator@K@std@@@std@@QAEXXZ ENDP	; std::vector<unsigned long,std::allocator<unsigned long> >::clear
_TEXT	ENDS
PUBLIC	?_Reserve@?$vector@HV?$allocator@H@std@@@std@@IAEXI@Z ; std::vector<int,std::allocator<int> >::_Reserve
; Function compile flags: /Ogsp
;	COMDAT ?_Reserve@?$vector@HV?$allocator@H@std@@@std@@IAEXI@Z
_TEXT	SEGMENT
__Count$ = 8						; size = 4
?_Reserve@?$vector@HV?$allocator@H@std@@@std@@IAEXI@Z PROC ; std::vector<int,std::allocator<int> >::_Reserve, COMDAT
; _this$ = ecx

; 1290 : 		{	// ensure room for _Count new elements, grow exponentially

  00000	55		 push	 ebp
  00001	8b ec		 mov	 ebp, esp
  00003	56		 push	 esi
  00004	8b f1		 mov	 esi, ecx

; 1291 : 		size_type _Size = size();

  00006	8b 0e		 mov	 ecx, DWORD PTR [esi]
  00008	8b 46 04	 mov	 eax, DWORD PTR [esi+4]
  0000b	2b c1		 sub	 eax, ecx

; 1292 : 		if (max_size() - _Count < _Size)

  0000d	ba ff ff ff 3f	 mov	 edx, 1073741823		; 3fffffffH
  00012	2b 55 08	 sub	 edx, DWORD PTR __Count$[ebp]
  00015	c1 f8 02	 sar	 eax, 2
  00018	3b d0		 cmp	 edx, eax
  0001a	73 0b		 jae	 SHORT $LN4@Reserve

; 1293 : 			_Xlen();

  0001c	68 00 00 00 00	 push	 OFFSET ??_C@_0BD@OLBABOEK@vector?$DMT?$DO?5too?5long?$AA@
  00021	ff 15 00 00 00
	00		 call	 DWORD PTR __imp_?_Xlength_error@std@@YAXPBD@Z
$LN21@Reserve:
$LN4@Reserve:

; 1294 : 		else if ((_Size += _Count) <= capacity())

  00027	8b 56 08	 mov	 edx, DWORD PTR [esi+8]
  0002a	03 45 08	 add	 eax, DWORD PTR __Count$[ebp]
  0002d	2b d1		 sub	 edx, ecx
  0002f	c1 fa 02	 sar	 edx, 2
  00032	3b c2		 cmp	 eax, edx
  00034	76 10		 jbe	 SHORT $LN1@Reserve

; 1295 : 			;
; 1296 : 		else
; 1297 : 			reserve(_Grow_to(_Size));

  00036	50		 push	 eax
  00037	8b ce		 mov	 ecx, esi
  00039	e8 00 00 00 00	 call	 ?_Grow_to@?$vector@HV?$allocator@H@std@@@std@@IBEII@Z ; std::vector<int,std::allocator<int> >::_Grow_to
  0003e	50		 push	 eax
  0003f	8b ce		 mov	 ecx, esi
  00041	e8 00 00 00 00	 call	 ?reserve@?$vector@HV?$allocator@H@std@@@std@@QAEXI@Z ; std::vector<int,std::allocator<int> >::reserve
$LN1@Reserve:
  00046	5e		 pop	 esi

; 1298 : 		}

  00047	5d		 pop	 ebp
  00048	c2 04 00	 ret	 4
$LN20@Reserve:
?_Reserve@?$vector@HV?$allocator@H@std@@@std@@IAEXI@Z ENDP ; std::vector<int,std::allocator<int> >::_Reserve
_TEXT	ENDS
PUBLIC	?push_back@?$vector@HV?$allocator@H@std@@@std@@QAEXABH@Z ; std::vector<int,std::allocator<int> >::push_back
; Function compile flags: /Ogsp
;	COMDAT ?push_back@?$vector@HV?$allocator@H@std@@@std@@QAEXABH@Z
_TEXT	SEGMENT
__Val$ = 8						; size = 4
?push_back@?$vector@HV?$allocator@H@std@@@std@@QAEXABH@Z PROC ; std::vector<int,std::allocator<int> >::push_back, COMDAT
; _this$ = ecx

; 976  : 		{	// insert element at end

  00000	55		 push	 ebp
  00001	8b ec		 mov	 ebp, esp
  00003	56		 push	 esi
  00004	8b f1		 mov	 esi, ecx

; 977  : 		if (_Inside(_STD addressof(_Val)))

  00006	8b 46 04	 mov	 eax, DWORD PTR [esi+4]
  00009	57		 push	 edi
  0000a	8b 7d 08	 mov	 edi, DWORD PTR __Val$[ebp]
  0000d	3b f8		 cmp	 edi, eax
  0000f	73 27		 jae	 SHORT $LN4@push_back
  00011	8b 0e		 mov	 ecx, DWORD PTR [esi]
  00013	3b cf		 cmp	 ecx, edi
  00015	77 21		 ja	 SHORT $LN4@push_back

; 978  : 			{	// push back an element
; 979  : 			size_type _Idx = _STD addressof(_Val) - this->_Myfirst;

  00017	2b f9		 sub	 edi, ecx
  00019	c1 ff 02	 sar	 edi, 2

; 980  : 			if (this->_Mylast == this->_Myend)

  0001c	3b 46 08	 cmp	 eax, DWORD PTR [esi+8]
  0001f	75 09		 jne	 SHORT $LN3@push_back

; 981  : 				_Reserve(1);

  00021	6a 01		 push	 1
  00023	8b ce		 mov	 ecx, esi
  00025	e8 00 00 00 00	 call	 ?_Reserve@?$vector@HV?$allocator@H@std@@@std@@IAEXI@Z ; std::vector<int,std::allocator<int> >::_Reserve
$LN3@push_back:

; 982  : 			_Orphan_range(this->_Mylast, this->_Mylast);
; 983  : 			_Cons_val(this->_Alval,
; 984  : 				this->_Mylast,
; 985  : 				this->_Myfirst[_Idx]);

  0002a	8b 46 04	 mov	 eax, DWORD PTR [esi+4]
  0002d	85 c0		 test	 eax, eax
  0002f	74 20		 je	 SHORT $LN39@push_back
  00031	8b 0e		 mov	 ecx, DWORD PTR [esi]
  00033	8b 0c b9	 mov	 ecx, DWORD PTR [ecx+edi*4]

; 986  : 			++this->_Mylast;
; 987  : 			}
; 988  : 		else

  00036	eb 17		 jmp	 SHORT $LN46@push_back
$LN4@push_back:

; 989  : 			{	// push back a non-element
; 990  : 			if (this->_Mylast == this->_Myend)

  00038	3b 46 08	 cmp	 eax, DWORD PTR [esi+8]
  0003b	75 09		 jne	 SHORT $LN1@push_back

; 991  : 				_Reserve(1);

  0003d	6a 01		 push	 1
  0003f	8b ce		 mov	 ecx, esi
  00041	e8 00 00 00 00	 call	 ?_Reserve@?$vector@HV?$allocator@H@std@@@std@@IAEXI@Z ; std::vector<int,std::allocator<int> >::_Reserve
$LN1@push_back:

; 992  : 			_Orphan_range(this->_Mylast, this->_Mylast);
; 993  : 			_Cons_val(this->_Alval,
; 994  : 				this->_Mylast,
; 995  : 				_Val);

  00046	8b 46 04	 mov	 eax, DWORD PTR [esi+4]
  00049	85 c0		 test	 eax, eax
  0004b	74 04		 je	 SHORT $LN39@push_back
  0004d	8b 0f		 mov	 ecx, DWORD PTR [edi]
$LN46@push_back:
  0004f	89 08		 mov	 DWORD PTR [eax], ecx
$LN39@push_back:

; 996  : 			++this->_Mylast;

  00051	83 46 04 04	 add	 DWORD PTR [esi+4], 4
  00055	5f		 pop	 edi
  00056	5e		 pop	 esi

; 997  : 			}
; 998  : 		}

  00057	5d		 pop	 ebp
  00058	c2 04 00	 ret	 4
?push_back@?$vector@HV?$allocator@H@std@@@std@@QAEXABH@Z ENDP ; std::vector<int,std::allocator<int> >::push_back
_TEXT	ENDS
PUBLIC	??4?$vector@KV?$allocator@K@std@@@std@@QAEAAV01@ABV01@@Z ; std::vector<unsigned long,std::allocator<unsigned long> >::operator=
; Function compile flags: /Ogsp
;	COMDAT ??4?$vector@KV?$allocator@K@std@@@std@@QAEAAV01@ABV01@@Z
_TEXT	SEGMENT
__Cat$514271 = 8					; size = 1
__Cat$514211 = 8					; size = 1
__Cat$514189 = 8					; size = 1
__Cat$514134 = 8					; size = 1
$T514117 = 8						; size = 4
__Right$ = 8						; size = 4
??4?$vector@KV?$allocator@K@std@@@std@@QAEAAV01@ABV01@@Z PROC ; std::vector<unsigned long,std::allocator<unsigned long> >::operator=, COMDAT
; _this$ = ecx

; 709  : 		{	// assign _Right

  00000	55		 push	 ebp
  00001	8b ec		 mov	 ebp, esp
  00003	56		 push	 esi
  00004	57		 push	 edi

; 710  : 		if (this != &_Right)

  00005	8b 7d 08	 mov	 edi, DWORD PTR __Right$[ebp]
  00008	8b f1		 mov	 esi, ecx
  0000a	3b f7		 cmp	 esi, edi
  0000c	0f 84 c7 00 00
	00		 je	 $LN1@operator

; 711  : 			{	// worth doing
; 712  : 			this->_Orphan_all();

  00012	53		 push	 ebx
  00013	ff 15 00 00 00
	00		 call	 DWORD PTR __imp_?_Orphan_all@_Container_base0@std@@QAEXXZ

; 713  : 
; 714  : 			if (_Right.size() == 0)

  00019	8b 5f 04	 mov	 ebx, DWORD PTR [edi+4]

; 715  : 				clear();	// new sequence empty, erase existing sequence

  0001c	8b 46 04	 mov	 eax, DWORD PTR [esi+4]
  0001f	8b cb		 mov	 ecx, ebx
  00021	2b 0f		 sub	 ecx, DWORD PTR [edi]
  00023	c1 f9 02	 sar	 ecx, 2
  00026	85 c9		 test	 ecx, ecx
  00028	75 14		 jne	 SHORT $LN8@operator
  0002a	8b 0e		 mov	 ecx, DWORD PTR [esi]
  0002c	50		 push	 eax
  0002d	51		 push	 ecx
  0002e	8d 45 08	 lea	 eax, DWORD PTR $T514117[ebp]
  00031	50		 push	 eax
  00032	8b ce		 mov	 ecx, esi
  00034	e8 00 00 00 00	 call	 ?erase@?$vector@KV?$allocator@K@std@@@std@@QAE?AV?$_Vector_iterator@V?$_Vector_val@KV?$allocator@K@std@@@std@@@2@V?$_Vector_const_iterator@V?$_Vector_val@KV?$allocator@K@std@@@std@@@2@0@Z ; std::vector<unsigned long,std::allocator<unsigned long> >::erase

; 716  : 			else if (_Right.size() <= size())

  00039	e9 9a 00 00 00	 jmp	 $LN84@operator
$LN8@operator:
  0003e	8b 16		 mov	 edx, DWORD PTR [esi]
  00040	2b c2		 sub	 eax, edx
  00042	c1 f8 02	 sar	 eax, 2
  00045	3b c8		 cmp	 ecx, eax
  00047	77 1e		 ja	 SHORT $LN6@operator

; 717  : 				{	// enough elements, copy new and destroy old
; 718  : 				pointer _Ptr = _STD _Copy_impl(_Right._Myfirst, _Right._Mylast,
; 719  : 					this->_Myfirst);	// copy new

  00049	ff 75 08	 push	 DWORD PTR __Cat$514134[ebp]
  0004c	52		 push	 edx
  0004d	53		 push	 ebx
  0004e	ff 37		 push	 DWORD PTR [edi]
  00050	e8 00 00 00 00	 call	 ??$_Copy_impl@PAKPAK@std@@YAPAKPAK00U_Scalar_ptr_iterator_tag@0@@Z ; std::_Copy_impl<unsigned long *,unsigned long *>

; 720  : 				_Destroy(_Ptr, this->_Mylast);	// destroy old
; 721  : 				this->_Mylast = this->_Myfirst + _Right.size();

  00055	8b 47 04	 mov	 eax, DWORD PTR [edi+4]
  00058	2b 07		 sub	 eax, DWORD PTR [edi]
  0005a	8b 0e		 mov	 ecx, DWORD PTR [esi]
  0005c	83 c4 10	 add	 esp, 16			; 00000010H
  0005f	c1 f8 02	 sar	 eax, 2
  00062	8d 04 81	 lea	 eax, DWORD PTR [ecx+eax*4]

; 722  : 				}
; 723  : 			else if (_Right.size() <= capacity())

  00065	eb 6e		 jmp	 SHORT $LN85@operator
$LN6@operator:
  00067	8b 5e 08	 mov	 ebx, DWORD PTR [esi+8]
  0006a	2b da		 sub	 ebx, edx
  0006c	c1 fb 02	 sar	 ebx, 2
  0006f	3b cb		 cmp	 ecx, ebx
  00071	77 2a		 ja	 SHORT $LN4@operator

; 724  : 				{	// enough room, copy and construct new
; 725  : 				pointer _Ptr = _Right._Myfirst + size();
; 726  : 				_STD _Copy_impl(_Right._Myfirst, _Ptr, this->_Myfirst);

  00073	ff 75 08	 push	 DWORD PTR __Cat$514189[ebp]
  00076	8b 0f		 mov	 ecx, DWORD PTR [edi]
  00078	52		 push	 edx
  00079	8d 1c 81	 lea	 ebx, DWORD PTR [ecx+eax*4]
  0007c	53		 push	 ebx
  0007d	51		 push	 ecx
  0007e	e8 00 00 00 00	 call	 ??$_Copy_impl@PAKPAK@std@@YAPAKPAK00U_Scalar_ptr_iterator_tag@0@@Z ; std::_Copy_impl<unsigned long *,unsigned long *>

; 727  : 				this->_Mylast = _Ucopy(_Ptr, _Right._Mylast, this->_Mylast);

  00083	ff 75 08	 push	 DWORD PTR __Cat$514211[ebp]
  00086	8b 46 04	 mov	 eax, DWORD PTR [esi+4]
  00089	8b 7f 04	 mov	 edi, DWORD PTR [edi+4]
  0008c	8d 4e 0c	 lea	 ecx, DWORD PTR [esi+12]
  0008f	51		 push	 ecx
  00090	50		 push	 eax
  00091	57		 push	 edi
  00092	53		 push	 ebx
  00093	e8 00 00 00 00	 call	 ??$_Uninit_copy@KK@std@@YAPAKPAK00AAV?$allocator@K@0@U_Scalar_ptr_iterator_tag@0@@Z ; std::_Uninit_copy<unsigned long,unsigned long>
  00098	83 c4 24	 add	 esp, 36			; 00000024H

; 728  : 				}
; 729  : 			else

  0009b	eb 38		 jmp	 SHORT $LN85@operator
$LN4@operator:

; 730  : 				{	// not enough room, allocate new array and construct new
; 731  : 				if (this->_Myfirst != 0)

  0009d	85 d2		 test	 edx, edx
  0009f	74 07		 je	 SHORT $LN74@operator

; 732  : 					{	// discard old array
; 733  : 					_Destroy(this->_Myfirst, this->_Mylast);
; 734  : 					this->_Alval.deallocate(this->_Myfirst,
; 735  : 						this->_Myend - this->_Myfirst);

  000a1	52		 push	 edx
  000a2	e8 00 00 00 00	 call	 ??3@YAXPAX@Z		; operator delete
  000a7	59		 pop	 ecx
$LN74@operator:

; 736  : 					}
; 737  : 				if (_Buy(_Right.size()))

  000a8	8b 47 04	 mov	 eax, DWORD PTR [edi+4]
  000ab	2b 07		 sub	 eax, DWORD PTR [edi]
  000ad	8b ce		 mov	 ecx, esi
  000af	c1 f8 02	 sar	 eax, 2
  000b2	50		 push	 eax
  000b3	e8 00 00 00 00	 call	 ?_Buy@?$vector@KV?$allocator@K@std@@@std@@IAE_NI@Z ; std::vector<unsigned long,std::allocator<unsigned long> >::_Buy
  000b8	84 c0		 test	 al, al
  000ba	74 1c		 je	 SHORT $LN84@operator

; 738  : 					this->_Mylast = _Ucopy(_Right._Myfirst, _Right._Mylast,
; 739  : 						this->_Myfirst);

  000bc	ff 75 08	 push	 DWORD PTR __Cat$514271[ebp]
  000bf	8b 06		 mov	 eax, DWORD PTR [esi]
  000c1	8b 4f 04	 mov	 ecx, DWORD PTR [edi+4]
  000c4	8b 3f		 mov	 edi, DWORD PTR [edi]
  000c6	8d 56 0c	 lea	 edx, DWORD PTR [esi+12]
  000c9	52		 push	 edx
  000ca	50		 push	 eax
  000cb	51		 push	 ecx
  000cc	57		 push	 edi
  000cd	e8 00 00 00 00	 call	 ??$_Uninit_copy@KK@std@@YAPAKPAK00AAV?$allocator@K@0@U_Scalar_ptr_iterator_tag@0@@Z ; std::_Uninit_copy<unsigned long,unsigned long>
  000d2	83 c4 14	 add	 esp, 20			; 00000014H
$LN85@operator:
  000d5	89 46 04	 mov	 DWORD PTR [esi+4], eax
$LN84@operator:
  000d8	5b		 pop	 ebx
$LN1@operator:
  000d9	5f		 pop	 edi

; 740  : 				}
; 741  : 			}
; 742  : 		return (*this);

  000da	8b c6		 mov	 eax, esi
  000dc	5e		 pop	 esi

; 743  : 		}

  000dd	5d		 pop	 ebp
  000de	c2 04 00	 ret	 4
??4?$vector@KV?$allocator@K@std@@@std@@QAEAAV01@ABV01@@Z ENDP ; std::vector<unsigned long,std::allocator<unsigned long> >::operator=
_TEXT	ENDS
PUBLIC	??$_Ucopy@V?$_Vector_const_iterator@V?$_Vector_val@KV?$allocator@K@std@@@std@@@std@@@?$vector@KV?$allocator@K@std@@@std@@IAEPAKV?$_Vector_const_iterator@V?$_Vector_val@KV?$allocator@K@std@@@std@@@1@0PAK@Z ; std::vector<unsigned long,std::allocator<unsigned long> >::_Ucopy<std::_Vector_const_iterator<std::_Vector_val<unsigned long,std::allocator<unsigned long> > > >
; Function compile flags: /Ogsp
;	COMDAT ??$_Ucopy@V?$_Vector_const_iterator@V?$_Vector_val@KV?$allocator@K@std@@@std@@@std@@@?$vector@KV?$allocator@K@std@@@std@@IAEPAKV?$_Vector_const_iterator@V?$_Vector_val@KV?$allocator@K@std@@@std@@@1@0PAK@Z
_TEXT	SEGMENT
__First$ = 8						; size = 4
__Last$ = 12						; size = 4
__Cat$514291 = 16					; size = 1
__Ptr$ = 16						; size = 4
??$_Ucopy@V?$_Vector_const_iterator@V?$_Vector_val@KV?$allocator@K@std@@@std@@@std@@@?$vector@KV?$allocator@K@std@@@std@@IAEPAKV?$_Vector_const_iterator@V?$_Vector_val@KV?$allocator@K@std@@@std@@@1@0PAK@Z PROC ; std::vector<unsigned long,std::allocator<unsigned long> >::_Ucopy<std::_Vector_const_iterator<std::_Vector_val<unsigned long,std::allocator<unsigned long> > > >, COMDAT
; _this$ = ecx

; 1315 : 		pointer _Ucopy(_Iter _First, _Iter _Last, pointer _Ptr)

  00000	55		 push	 ebp
  00001	8b ec		 mov	 ebp, esp

; 1316 : 		{	// copy initializing [_First, _Last), using allocator
; 1317 : 		return (_Uninitialized_copy(_First, _Last,
; 1318 : 			_Ptr, this->_Alval));

  00003	ff 75 10	 push	 DWORD PTR __Cat$514291[ebp]
  00006	83 c1 0c	 add	 ecx, 12			; 0000000cH
  00009	51		 push	 ecx
  0000a	ff 75 10	 push	 DWORD PTR __Ptr$[ebp]
  0000d	ff 75 0c	 push	 DWORD PTR __Last$[ebp]
  00010	ff 75 08	 push	 DWORD PTR __First$[ebp]
  00013	e8 00 00 00 00	 call	 ??$_Uninit_copy@V?$_Vector_const_iterator@V?$_Vector_val@KV?$allocator@K@std@@@std@@@std@@PAKV?$allocator@K@2@@std@@YAPAKV?$_Vector_const_iterator@V?$_Vector_val@KV?$allocator@K@std@@@std@@@0@0PAKAAV?$allocator@K@0@U_Nonscalar_ptr_iterator_tag@0@@Z ; std::_Uninit_copy<std::_Vector_const_iterator<std::_Vector_val<unsigned long,std::allocator<unsigned long> > >,unsigned long *,std::allocator<unsigned long> >
  00018	83 c4 14	 add	 esp, 20			; 00000014H

; 1319 : 		}

  0001b	5d		 pop	 ebp
  0001c	c2 0c 00	 ret	 12			; 0000000cH
??$_Ucopy@V?$_Vector_const_iterator@V?$_Vector_val@KV?$allocator@K@std@@@std@@@std@@@?$vector@KV?$allocator@K@std@@@std@@IAEPAKV?$_Vector_const_iterator@V?$_Vector_val@KV?$allocator@K@std@@@std@@@1@0PAK@Z ENDP ; std::vector<unsigned long,std::allocator<unsigned long> >::_Ucopy<std::_Vector_const_iterator<std::_Vector_val<unsigned long,std::allocator<unsigned long> > > >
_TEXT	ENDS
PUBLIC	??1RentalData@@QAE@XZ				; RentalData::~RentalData
;	COMDAT xdata$x
xdata$x	SEGMENT
__unwindtable$??1RentalData@@QAE@XZ DD 0ffffffffH
	DD	FLAT:__unwindfunclet$??1RentalData@@QAE@XZ$0
__ehfuncinfo$??1RentalData@@QAE@XZ DD 019930522H
	DD	01H
	DD	FLAT:__unwindtable$??1RentalData@@QAE@XZ
	DD	2 DUP(00H)
	DD	2 DUP(00H)
	DD	00H
	DD	01H
; Function compile flags: /Ogsp
xdata$x	ENDS
;	COMDAT ??1RentalData@@QAE@XZ
_TEXT	SEGMENT
_this$ = -16						; size = 4
__$EHRec$ = -12						; size = 12
??1RentalData@@QAE@XZ PROC				; RentalData::~RentalData, COMDAT
; _this$ = ecx
  00000	6a 04		 push	 4
  00002	b8 00 00 00 00	 mov	 eax, __ehhandler$??1RentalData@@QAE@XZ
  00007	e8 00 00 00 00	 call	 __EH_prolog3
  0000c	8b f1		 mov	 esi, ecx
  0000e	89 75 f0	 mov	 DWORD PTR _this$[ebp], esi
  00011	83 65 fc 00	 and	 DWORD PTR __$EHRec$[ebp+8], 0
  00015	8d 4e 68	 lea	 ecx, DWORD PTR [esi+104]
  00018	e8 00 00 00 00	 call	 ?_Tidy@?$vector@KV?$allocator@K@std@@@std@@IAEXXZ ; std::vector<unsigned long,std::allocator<unsigned long> >::_Tidy
  0001d	83 4d fc ff	 or	 DWORD PTR __$EHRec$[ebp+8], -1
  00021	8b ce		 mov	 ecx, esi
  00023	ff 15 00 00 00
	00		 call	 DWORD PTR __imp_??1ioHashString@@QAE@XZ
  00029	e8 00 00 00 00	 call	 __EH_epilog3
  0002e	c3		 ret	 0
_TEXT	ENDS
;	COMDAT text$x
text$x	SEGMENT
__unwindfunclet$??1RentalData@@QAE@XZ$0:
  00000	8b 4d f0	 mov	 ecx, DWORD PTR _this$[ebp]
  00003	ff 25 00 00 00
	00		 jmp	 DWORD PTR __imp_??1ioHashString@@QAE@XZ
__ehhandler$??1RentalData@@QAE@XZ:
  00009	8b 54 24 08	 mov	 edx, DWORD PTR [esp+8]
  0000d	8d 42 0c	 lea	 eax, DWORD PTR [edx+12]
  00010	8b 4a ec	 mov	 ecx, DWORD PTR [edx-20]
  00013	33 c8		 xor	 ecx, eax
  00015	e8 00 00 00 00	 call	 @__security_check_cookie@4
  0001a	b8 00 00 00 00	 mov	 eax, OFFSET __ehfuncinfo$??1RentalData@@QAE@XZ
  0001f	e9 00 00 00 00	 jmp	 ___CxxFrameHandler3
text$x	ENDS
??1RentalData@@QAE@XZ ENDP				; RentalData::~RentalData
PUBLIC	?GetEquipMedal@ioCharRentalData@@QAEXKAAV?$vector@HV?$allocator@H@std@@@std@@@Z ; ioCharRentalData::GetEquipMedal
; Function compile flags: /Ogsp
; File d:\lost saga for developer\youtube\tutorial\source\src\lsclient\iocharrentaldata.cpp
;	COMDAT ?GetEquipMedal@ioCharRentalData@@QAEXKAAV?$vector@HV?$allocator@H@std@@@std@@@Z
_TEXT	SEGMENT
$T514316 = 8						; size = 4
_dwCharIndex$ = 8					; size = 4
_rkEquipMedal$ = 12					; size = 4
?GetEquipMedal@ioCharRentalData@@QAEXKAAV?$vector@HV?$allocator@H@std@@@std@@@Z PROC ; ioCharRentalData::GetEquipMedal, COMDAT
; _this$ = ecx

; 98   : {

  00000	55		 push	 ebp
  00001	8b ec		 mov	 ebp, esp
  00003	56		 push	 esi

; 99   : 	RentalDataList::iterator iter = m_RentalDataList.begin();

  00004	8b 71 04	 mov	 esi, DWORD PTR [ecx+4]

; 100  : 	for(;iter != m_RentalDataList.end();++iter)

  00007	8b 49 08	 mov	 ecx, DWORD PTR [ecx+8]
  0000a	eb 0e		 jmp	 SHORT $LN50@GetEquipMe
$LL20@GetEquipMe:

; 101  : 	{
; 102  : 		RentalData &rkRentalData = *iter;
; 103  : 		if( rkRentalData.m_dwCharIndex == dwCharIndex )

  0000c	8b 46 10	 mov	 eax, DWORD PTR [esi+16]
  0000f	3b 45 08	 cmp	 eax, DWORD PTR _dwCharIndex$[ebp]
  00012	74 0c		 je	 SHORT $LN46@GetEquipMe

; 100  : 	for(;iter != m_RentalDataList.end();++iter)

  00014	81 c6 f0 00 00
	00		 add	 esi, 240		; 000000f0H
$LN50@GetEquipMe:
  0001a	3b f1		 cmp	 esi, ecx
  0001c	75 ee		 jne	 SHORT $LL20@GetEquipMe

; 101  : 	{
; 102  : 		RentalData &rkRentalData = *iter;
; 103  : 		if( rkRentalData.m_dwCharIndex == dwCharIndex )

  0001e	eb 34		 jmp	 SHORT $LN1@GetEquipMe
$LN46@GetEquipMe:

; 104  : 		{
; 105  : 			for(int i = 0;i < (int)rkRentalData.m_EquipMedal.size();i++)

  00020	8b 46 6c	 mov	 eax, DWORD PTR [esi+108]
  00023	2b 46 68	 sub	 eax, DWORD PTR [esi+104]
  00026	57		 push	 edi
  00027	33 ff		 xor	 edi, edi
  00029	a9 fc ff ff ff	 test	 eax, -4			; fffffffcH
  0002e	7e 23		 jle	 SHORT $LN49@GetEquipMe
$LL3@GetEquipMe:

; 106  : 			{
; 107  : 				rkEquipMedal.push_back( rkRentalData.m_EquipMedal[i] );

  00030	8b 46 68	 mov	 eax, DWORD PTR [esi+104]
  00033	8b 04 b8	 mov	 eax, DWORD PTR [eax+edi*4]
  00036	8b 4d 0c	 mov	 ecx, DWORD PTR _rkEquipMedal$[ebp]
  00039	89 45 08	 mov	 DWORD PTR $T514316[ebp], eax
  0003c	8d 45 08	 lea	 eax, DWORD PTR $T514316[ebp]
  0003f	50		 push	 eax
  00040	e8 00 00 00 00	 call	 ?push_back@?$vector@HV?$allocator@H@std@@@std@@QAEXABH@Z ; std::vector<int,std::allocator<int> >::push_back
  00045	8b 46 6c	 mov	 eax, DWORD PTR [esi+108]
  00048	2b 46 68	 sub	 eax, DWORD PTR [esi+104]
  0004b	47		 inc	 edi
  0004c	c1 f8 02	 sar	 eax, 2
  0004f	3b f8		 cmp	 edi, eax
  00051	7c dd		 jl	 SHORT $LL3@GetEquipMe
$LN49@GetEquipMe:
  00053	5f		 pop	 edi
$LN1@GetEquipMe:
  00054	5e		 pop	 esi

; 108  : 			}
; 109  : 			break;
; 110  : 		}
; 111  : 	}
; 112  : }

  00055	5d		 pop	 ebp
  00056	c2 08 00	 ret	 8
?GetEquipMedal@ioCharRentalData@@QAEXKAAV?$vector@HV?$allocator@H@std@@@std@@@Z ENDP ; ioCharRentalData::GetEquipMedal
_TEXT	ENDS
PUBLIC	??4RentalData@@QAEAAU0@ABU0@@Z			; RentalData::operator=
; Function compile flags: /Ogsp
;	COMDAT ??4RentalData@@QAEAAU0@ABU0@@Z
_TEXT	SEGMENT
tv297 = -8						; size = 4
tv177 = -4						; size = 4
tv293 = 8						; size = 4
___that$ = 8						; size = 4
??4RentalData@@QAEAAU0@ABU0@@Z PROC			; RentalData::operator=, COMDAT
; _this$ = ecx
  00000	55		 push	 ebp
  00001	8b ec		 mov	 ebp, esp
  00003	51		 push	 ecx
  00004	51		 push	 ecx
  00005	53		 push	 ebx
  00006	56		 push	 esi
  00007	8b 75 08	 mov	 esi, DWORD PTR ___that$[ebp]
  0000a	57		 push	 edi
  0000b	56		 push	 esi
  0000c	8b d9		 mov	 ebx, ecx
  0000e	ff 15 00 00 00
	00		 call	 DWORD PTR __imp_??4ioHashString@@QAEAAV0@ABV0@@Z
  00014	8b 46 10	 mov	 eax, DWORD PTR [esi+16]
  00017	8b fe		 mov	 edi, esi
  00019	89 43 10	 mov	 DWORD PTR [ebx+16], eax
  0001c	8b 46 14	 mov	 eax, DWORD PTR [esi+20]
  0001f	8d 4b 18	 lea	 ecx, DWORD PTR [ebx+24]
  00022	2b fb		 sub	 edi, ebx
  00024	89 43 14	 mov	 DWORD PTR [ebx+20], eax
  00027	89 4d 08	 mov	 DWORD PTR tv293[ebp], ecx
  0002a	89 7d f8	 mov	 DWORD PTR tv297[ebp], edi
  0002d	c7 45 fc 04 00
	00 00		 mov	 DWORD PTR tv177[ebp], 4
  00034	eb 03		 jmp	 SHORT $LN15@operator@2
$LL29@operator@2:
  00036	8b 4d 08	 mov	 ecx, DWORD PTR tv293[ebp]
$LN15@operator@2:
  00039	8d 04 0f	 lea	 eax, DWORD PTR [edi+ecx]
  0003c	50		 push	 eax
  0003d	e8 00 00 00 00	 call	 ??4ITEM_DATA@@QAEAAU0@ABU0@@Z ; ITEM_DATA::operator=
  00042	83 45 08 14	 add	 DWORD PTR tv293[ebp], 20 ; 00000014H
  00046	ff 4d fc	 dec	 DWORD PTR tv177[ebp]
  00049	75 eb		 jne	 SHORT $LL29@operator@2
  0004b	83 c6 68	 add	 esi, 104		; 00000068H
  0004e	56		 push	 esi
  0004f	8d 4b 68	 lea	 ecx, DWORD PTR [ebx+104]
  00052	e8 00 00 00 00	 call	 ??4?$vector@KV?$allocator@K@std@@@std@@QAEAAV01@ABV01@@Z ; std::vector<unsigned long,std::allocator<unsigned long> >::operator=
  00057	6a 04		 push	 4
  00059	59		 pop	 ecx
  0005a	8d 43 78	 lea	 eax, DWORD PTR [ebx+120]
  0005d	8b f1		 mov	 esi, ecx
$LL12@operator@2:
  0005f	8a 14 38	 mov	 dl, BYTE PTR [eax+edi]
  00062	88 10		 mov	 BYTE PTR [eax], dl
  00064	40		 inc	 eax
  00065	4e		 dec	 esi
  00066	75 f7		 jne	 SHORT $LL12@operator@2
  00068	8d 43 7c	 lea	 eax, DWORD PTR [ebx+124]
  0006b	8b f1		 mov	 esi, ecx
$LL9@operator@2:
  0006d	8a 14 38	 mov	 dl, BYTE PTR [eax+edi]
  00070	88 10		 mov	 BYTE PTR [eax], dl
  00072	40		 inc	 eax
  00073	4e		 dec	 esi
  00074	75 f7		 jne	 SHORT $LL9@operator@2
  00076	8d 83 80 00 00
	00		 lea	 eax, DWORD PTR [ebx+128]
  0007c	eb 03		 jmp	 SHORT $LN6@operator@2
$LL28@operator@2:
  0007e	8b 7d f8	 mov	 edi, DWORD PTR tv297[ebp]
$LN6@operator@2:
  00081	8d 34 38	 lea	 esi, DWORD PTR [eax+edi]
  00084	8b f8		 mov	 edi, eax
  00086	a5		 movsd
  00087	a5		 movsd
  00088	a5		 movsd
  00089	83 c0 10	 add	 eax, 16			; 00000010H
  0008c	49		 dec	 ecx
  0008d	a5		 movsd
  0008e	75 ee		 jne	 SHORT $LL28@operator@2
  00090	6a 04		 push	 4
  00092	8d 83 c0 00 00
	00		 lea	 eax, DWORD PTR [ebx+192]
  00098	59		 pop	 ecx
$LL3@operator@2:
  00099	8b 55 f8	 mov	 edx, DWORD PTR tv297[ebp]
  0009c	8d 34 10	 lea	 esi, DWORD PTR [eax+edx]
  0009f	8b f8		 mov	 edi, eax
  000a1	a5		 movsd
  000a2	a5		 movsd
  000a3	83 c0 0c	 add	 eax, 12			; 0000000cH
  000a6	49		 dec	 ecx
  000a7	a5		 movsd
  000a8	75 ef		 jne	 SHORT $LL3@operator@2
  000aa	5f		 pop	 edi
  000ab	5e		 pop	 esi
  000ac	8b c3		 mov	 eax, ebx
  000ae	5b		 pop	 ebx
  000af	c9		 leave
  000b0	c2 04 00	 ret	 4
??4RentalData@@QAEAAU0@ABU0@@Z ENDP			; RentalData::operator=
_TEXT	ENDS
PUBLIC	??0?$vector@KV?$allocator@K@std@@@std@@QAE@ABV01@@Z ; std::vector<unsigned long,std::allocator<unsigned long> >::vector<unsigned long,std::allocator<unsigned long> >
EXTRN	__EH_prolog3_catch:PROC
;	COMDAT xdata$x
; File c:\program files (x86)\microsoft visual studio 10.0\vc\include\xutility
xdata$x	SEGMENT
__catchsym$??0?$vector@KV?$allocator@K@std@@@std@@QAE@ABV01@@Z$2 DD 040H
	DD	00H
	DD	00H
	DD	FLAT:__catch$??0?$vector@KV?$allocator@K@std@@@std@@QAE@ABV01@@Z$0
__unwindtable$??0?$vector@KV?$allocator@K@std@@@std@@QAE@ABV01@@Z DD 0ffffffffH
	DD	00H
	DD	0ffffffffH
	DD	00H
__tryblocktable$??0?$vector@KV?$allocator@K@std@@@std@@QAE@ABV01@@Z DD 00H
	DD	00H
	DD	01H
	DD	01H
	DD	FLAT:__catchsym$??0?$vector@KV?$allocator@K@std@@@std@@QAE@ABV01@@Z$2
__ehfuncinfo$??0?$vector@KV?$allocator@K@std@@@std@@QAE@ABV01@@Z DD 019930522H
	DD	02H
	DD	FLAT:__unwindtable$??0?$vector@KV?$allocator@K@std@@@std@@QAE@ABV01@@Z
	DD	01H
	DD	FLAT:__tryblocktable$??0?$vector@KV?$allocator@K@std@@@std@@QAE@ABV01@@Z
	DD	2 DUP(00H)
	DD	00H
	DD	01H
; Function compile flags: /Ogsp
; File c:\program files (x86)\microsoft visual studio 10.0\vc\include\vector
xdata$x	ENDS
;	COMDAT ??0?$vector@KV?$allocator@K@std@@@std@@QAE@ABV01@@Z
_TEXT	SEGMENT
_this$ = -20						; size = 4
__$EHRec$ = -16						; size = 16
__Cat$514504 = 8					; size = 1
__Right$ = 8						; size = 4
??0?$vector@KV?$allocator@K@std@@@std@@QAE@ABV01@@Z PROC ; std::vector<unsigned long,std::allocator<unsigned long> >::vector<unsigned long,std::allocator<unsigned long> >, COMDAT
; _this$ = ecx

; 535  : 		{	// construct by copying _Right

  00000	6a 08		 push	 8
  00002	b8 00 00 00 00	 mov	 eax, __ehhandler$??0?$vector@KV?$allocator@K@std@@@std@@QAE@ABV01@@Z
  00007	e8 00 00 00 00	 call	 __EH_prolog3_catch
  0000c	8b f1		 mov	 esi, ecx
  0000e	89 75 ec	 mov	 DWORD PTR _this$[ebp], esi

; 536  : 		if (_Buy(_Right.size()))

  00011	8b 7d 08	 mov	 edi, DWORD PTR __Right$[ebp]
  00014	33 db		 xor	 ebx, ebx
  00016	89 1e		 mov	 DWORD PTR [esi], ebx
  00018	89 5e 04	 mov	 DWORD PTR [esi+4], ebx
  0001b	89 5e 08	 mov	 DWORD PTR [esi+8], ebx
  0001e	8b 47 04	 mov	 eax, DWORD PTR [edi+4]
  00021	2b 07		 sub	 eax, DWORD PTR [edi]
  00023	c1 f8 02	 sar	 eax, 2
  00026	50		 push	 eax
  00027	e8 00 00 00 00	 call	 ?_Buy@?$vector@KV?$allocator@K@std@@@std@@IAE_NI@Z ; std::vector<unsigned long,std::allocator<unsigned long> >::_Buy
  0002c	84 c0		 test	 al, al
  0002e	74 1f		 je	 SHORT $LN7@vector@2

; 537  : 			_TRY_BEGIN
; 538  : 			this->_Mylast = _Ucopy(_Right.begin(), _Right.end(),
; 539  : 				this->_Myfirst);

  00030	ff 75 08	 push	 DWORD PTR __Cat$514504[ebp]
  00033	8b 0e		 mov	 ecx, DWORD PTR [esi]
  00035	8b 47 04	 mov	 eax, DWORD PTR [edi+4]
  00038	8b 3f		 mov	 edi, DWORD PTR [edi]
  0003a	8d 56 0c	 lea	 edx, DWORD PTR [esi+12]
  0003d	52		 push	 edx
  0003e	51		 push	 ecx
  0003f	50		 push	 eax
  00040	57		 push	 edi
  00041	89 5d fc	 mov	 DWORD PTR __$EHRec$[ebp+12], ebx
  00044	e8 00 00 00 00	 call	 ??$_Uninit_copy@V?$_Vector_const_iterator@V?$_Vector_val@KV?$allocator@K@std@@@std@@@std@@PAKV?$allocator@K@2@@std@@YAPAKV?$_Vector_const_iterator@V?$_Vector_val@KV?$allocator@K@std@@@std@@@0@0PAKAAV?$allocator@K@0@U_Nonscalar_ptr_iterator_tag@0@@Z ; std::_Uninit_copy<std::_Vector_const_iterator<std::_Vector_val<unsigned long,std::allocator<unsigned long> > >,unsigned long *,std::allocator<unsigned long> >
  00049	83 c4 14	 add	 esp, 20			; 00000014H
  0004c	89 46 04	 mov	 DWORD PTR [esi+4], eax
$LN7@vector@2:

; 543  : 			_CATCH_END
; 544  : 		}

  0004f	8b c6		 mov	 eax, esi
  00051	e8 00 00 00 00	 call	 __EH_epilog3
  00056	c2 04 00	 ret	 4
__catch$??0?$vector@KV?$allocator@K@std@@@std@@QAE@ABV01@@Z$0:

; 540  : 			_CATCH_ALL
; 541  : 			_Tidy();

  00059	8b 4d ec	 mov	 ecx, DWORD PTR _this$[ebp]
  0005c	e8 00 00 00 00	 call	 ?_Tidy@?$vector@KV?$allocator@K@std@@@std@@IAEXXZ ; std::vector<unsigned long,std::allocator<unsigned long> >::_Tidy

; 542  : 			_RERAISE;

  00061	33 db		 xor	 ebx, ebx
  00063	53		 push	 ebx
  00064	53		 push	 ebx
  00065	e8 00 00 00 00	 call	 __CxxThrowException@8
$LN38@vector@2:
$LN37@vector@2:
  0006a	cc		 int	 3
_TEXT	ENDS
;	COMDAT text$x
text$x	SEGMENT
__ehhandler$??0?$vector@KV?$allocator@K@std@@@std@@QAE@ABV01@@Z:
  00000	8b 54 24 08	 mov	 edx, DWORD PTR [esp+8]
  00004	8d 42 0c	 lea	 eax, DWORD PTR [edx+12]
  00007	8b 4a e8	 mov	 ecx, DWORD PTR [edx-24]
  0000a	33 c8		 xor	 ecx, eax
  0000c	e8 00 00 00 00	 call	 @__security_check_cookie@4
  00011	b8 00 00 00 00	 mov	 eax, OFFSET __ehfuncinfo$??0?$vector@KV?$allocator@K@std@@@std@@QAE@ABV01@@Z
  00016	e9 00 00 00 00	 jmp	 ___CxxFrameHandler3
text$x	ENDS
??0?$vector@KV?$allocator@K@std@@@std@@QAE@ABV01@@Z ENDP ; std::vector<unsigned long,std::allocator<unsigned long> >::vector<unsigned long,std::allocator<unsigned long> >
PUBLIC	??_GRentalData@@QAEPAXI@Z			; RentalData::`scalar deleting destructor'
; Function compile flags: /Ogsp
;	COMDAT ??_GRentalData@@QAEPAXI@Z
_TEXT	SEGMENT
___flags$ = 8						; size = 4
??_GRentalData@@QAEPAXI@Z PROC				; RentalData::`scalar deleting destructor', COMDAT
; _this$ = ecx
  00000	55		 push	 ebp
  00001	8b ec		 mov	 ebp, esp
  00003	56		 push	 esi
  00004	8b f1		 mov	 esi, ecx
  00006	e8 00 00 00 00	 call	 ??1RentalData@@QAE@XZ
  0000b	f6 45 08 01	 test	 BYTE PTR ___flags$[ebp], 1
  0000f	74 07		 je	 SHORT $LN1@scalar@2
  00011	56		 push	 esi
  00012	e8 00 00 00 00	 call	 ??3@YAXPAX@Z		; operator delete
  00017	59		 pop	 ecx
$LN1@scalar@2:
  00018	8b c6		 mov	 eax, esi
  0001a	5e		 pop	 esi
  0001b	5d		 pop	 ebp
  0001c	c2 04 00	 ret	 4
??_GRentalData@@QAEPAXI@Z ENDP				; RentalData::`scalar deleting destructor'
_TEXT	ENDS
PUBLIC	??$_Move@PAURentalData@@PAU1@@std@@YAPAURentalData@@PAU1@00U_Nonscalar_ptr_iterator_tag@0@@Z ; std::_Move<RentalData *,RentalData *>
; Function compile flags: /Ogsp
; File c:\program files (x86)\microsoft visual studio 10.0\vc\include\xutility
;	COMDAT ??$_Move@PAURentalData@@PAU1@@std@@YAPAURentalData@@PAU1@00U_Nonscalar_ptr_iterator_tag@0@@Z
_TEXT	SEGMENT
__First$ = 8						; size = 4
__Last$ = 12						; size = 4
__Dest$ = 16						; size = 4
___formal$ = 20						; size = 1
??$_Move@PAURentalData@@PAU1@@std@@YAPAURentalData@@PAU1@00U_Nonscalar_ptr_iterator_tag@0@@Z PROC ; std::_Move<RentalData *,RentalData *>, COMDAT

; 2512 : 	{	// move [_First, _Last) to [_Dest, ...), arbitrary iterators

  00000	55		 push	 ebp
  00001	8b ec		 mov	 ebp, esp
  00003	57		 push	 edi

; 2513 : 	for (; _First != _Last; ++_Dest, ++_First)

  00004	8b 7d 08	 mov	 edi, DWORD PTR __First$[ebp]
  00007	3b 7d 0c	 cmp	 edi, DWORD PTR __Last$[ebp]
  0000a	74 1a		 je	 SHORT $LN10@Move
  0000c	56		 push	 esi
  0000d	be f0 00 00 00	 mov	 esi, 240		; 000000f0H
$LL3@Move:

; 2514 : 		*_Dest = _STD move(*_First);

  00012	8b 4d 10	 mov	 ecx, DWORD PTR __Dest$[ebp]
  00015	57		 push	 edi
  00016	e8 00 00 00 00	 call	 ??4RentalData@@QAEAAU0@ABU0@@Z
  0001b	01 75 10	 add	 DWORD PTR __Dest$[ebp], esi
  0001e	03 fe		 add	 edi, esi
  00020	3b 7d 0c	 cmp	 edi, DWORD PTR __Last$[ebp]
  00023	75 ed		 jne	 SHORT $LL3@Move
  00025	5e		 pop	 esi
$LN10@Move:

; 2515 : 	return (_Dest);

  00026	8b 45 10	 mov	 eax, DWORD PTR __Dest$[ebp]
  00029	5f		 pop	 edi

; 2516 : 	}

  0002a	5d		 pop	 ebp
  0002b	c3		 ret	 0
??$_Move@PAURentalData@@PAU1@@std@@YAPAURentalData@@PAU1@00U_Nonscalar_ptr_iterator_tag@0@@Z ENDP ; std::_Move<RentalData *,RentalData *>
_TEXT	ENDS
PUBLIC	??0RentalData@@QAE@ABU0@@Z			; RentalData::RentalData
EXTRN	__imp_??0ioHashString@@QAE@ABV0@@Z:PROC
;	COMDAT xdata$x
xdata$x	SEGMENT
__unwindtable$??0RentalData@@QAE@ABU0@@Z DD 0ffffffffH
	DD	FLAT:__unwindfunclet$??0RentalData@@QAE@ABU0@@Z$0
__ehfuncinfo$??0RentalData@@QAE@ABU0@@Z DD 019930522H
	DD	01H
	DD	FLAT:__unwindtable$??0RentalData@@QAE@ABU0@@Z
	DD	2 DUP(00H)
	DD	2 DUP(00H)
	DD	00H
	DD	01H
; Function compile flags: /Ogsp
xdata$x	ENDS
;	COMDAT ??0RentalData@@QAE@ABU0@@Z
_TEXT	SEGMENT
_this$ = -16						; size = 4
__$EHRec$ = -12						; size = 12
$T514548 = 8						; size = 4
___that$ = 8						; size = 4
??0RentalData@@QAE@ABU0@@Z PROC				; RentalData::RentalData, COMDAT
; _this$ = ecx
  00000	6a 04		 push	 4
  00002	b8 00 00 00 00	 mov	 eax, __ehhandler$??0RentalData@@QAE@ABU0@@Z
  00007	e8 00 00 00 00	 call	 __EH_prolog3
  0000c	8b f9		 mov	 edi, ecx
  0000e	89 7d f0	 mov	 DWORD PTR _this$[ebp], edi
  00011	8b 5d 08	 mov	 ebx, DWORD PTR ___that$[ebp]
  00014	53		 push	 ebx
  00015	ff 15 00 00 00
	00		 call	 DWORD PTR __imp_??0ioHashString@@QAE@ABV0@@Z
  0001b	8b 43 10	 mov	 eax, DWORD PTR [ebx+16]
  0001e	83 65 fc 00	 and	 DWORD PTR __$EHRec$[ebp+8], 0
  00022	89 47 10	 mov	 DWORD PTR [edi+16], eax
  00025	8b 43 14	 mov	 eax, DWORD PTR [ebx+20]
  00028	89 47 14	 mov	 DWORD PTR [edi+20], eax
  0002b	6a 14		 push	 20			; 00000014H
  0002d	59		 pop	 ecx
  0002e	8d 73 18	 lea	 esi, DWORD PTR [ebx+24]
  00031	83 c7 18	 add	 edi, 24			; 00000018H
  00034	f3 a5		 rep movsd
  00036	8b 75 f0	 mov	 esi, DWORD PTR _this$[ebp]
  00039	8d 43 68	 lea	 eax, DWORD PTR [ebx+104]
  0003c	50		 push	 eax
  0003d	8d 4e 68	 lea	 ecx, DWORD PTR [esi+104]
  00040	e8 00 00 00 00	 call	 ??0?$vector@KV?$allocator@K@std@@@std@@QAE@ABV01@@Z ; std::vector<unsigned long,std::allocator<unsigned long> >::vector<unsigned long,std::allocator<unsigned long> >
  00045	8b 43 78	 mov	 eax, DWORD PTR [ebx+120]
  00048	89 46 78	 mov	 DWORD PTR [esi+120], eax
  0004b	8b 43 7c	 mov	 eax, DWORD PTR [ebx+124]
  0004e	89 46 7c	 mov	 DWORD PTR [esi+124], eax
  00051	8d 8b 80 00 00
	00		 lea	 ecx, DWORD PTR [ebx+128]
  00057	8b c1		 mov	 eax, ecx
  00059	2b c3		 sub	 eax, ebx
  0005b	8b d3		 mov	 edx, ebx
  0005d	c7 45 08 03 00
	00 00		 mov	 DWORD PTR $T514548[ebp], 3
  00064	8d 44 30 08	 lea	 eax, DWORD PTR [eax+esi+8]
  00068	2b d6		 sub	 edx, esi
$LL6@RentalData:
  0006a	8b 39		 mov	 edi, DWORD PTR [ecx]
  0006c	89 78 f8	 mov	 DWORD PTR [eax-8], edi
  0006f	8b 79 04	 mov	 edi, DWORD PTR [ecx+4]
  00072	89 78 fc	 mov	 DWORD PTR [eax-4], edi
  00075	8b 3c 02	 mov	 edi, DWORD PTR [edx+eax]
  00078	89 38		 mov	 DWORD PTR [eax], edi
  0007a	8b 79 0c	 mov	 edi, DWORD PTR [ecx+12]
  0007d	89 78 04	 mov	 DWORD PTR [eax+4], edi
  00080	83 c1 10	 add	 ecx, 16			; 00000010H
  00083	83 c0 10	 add	 eax, 16			; 00000010H
  00086	ff 4d 08	 dec	 DWORD PTR $T514548[ebp]
  00089	79 df		 jns	 SHORT $LL6@RentalData
  0008b	8d 8b c0 00 00
	00		 lea	 ecx, DWORD PTR [ebx+192]
  00091	8b c1		 mov	 eax, ecx
  00093	6a 03		 push	 3
  00095	2b c3		 sub	 eax, ebx
  00097	5f		 pop	 edi
  00098	8d 44 30 08	 lea	 eax, DWORD PTR [eax+esi+8]
$LL12@RentalData:
  0009c	8b 19		 mov	 ebx, DWORD PTR [ecx]
  0009e	89 58 f8	 mov	 DWORD PTR [eax-8], ebx
  000a1	8b 59 04	 mov	 ebx, DWORD PTR [ecx+4]
  000a4	89 58 fc	 mov	 DWORD PTR [eax-4], ebx
  000a7	8b 1c 10	 mov	 ebx, DWORD PTR [eax+edx]
  000aa	89 18		 mov	 DWORD PTR [eax], ebx
  000ac	83 c1 0c	 add	 ecx, 12			; 0000000cH
  000af	83 c0 0c	 add	 eax, 12			; 0000000cH
  000b2	4f		 dec	 edi
  000b3	79 e7		 jns	 SHORT $LL12@RentalData
  000b5	8b c6		 mov	 eax, esi
  000b7	e8 00 00 00 00	 call	 __EH_epilog3
  000bc	c2 04 00	 ret	 4
_TEXT	ENDS
;	COMDAT text$x
text$x	SEGMENT
__unwindfunclet$??0RentalData@@QAE@ABU0@@Z$0:
  00000	8b 4d f0	 mov	 ecx, DWORD PTR _this$[ebp]
  00003	ff 25 00 00 00
	00		 jmp	 DWORD PTR __imp_??1ioHashString@@QAE@XZ
__ehhandler$??0RentalData@@QAE@ABU0@@Z:
  00009	8b 54 24 08	 mov	 edx, DWORD PTR [esp+8]
  0000d	8d 42 0c	 lea	 eax, DWORD PTR [edx+12]
  00010	8b 4a ec	 mov	 ecx, DWORD PTR [edx-20]
  00013	33 c8		 xor	 ecx, eax
  00015	e8 00 00 00 00	 call	 @__security_check_cookie@4
  0001a	b8 00 00 00 00	 mov	 eax, OFFSET __ehfuncinfo$??0RentalData@@QAE@ABU0@@Z
  0001f	e9 00 00 00 00	 jmp	 ___CxxFrameHandler3
text$x	ENDS
??0RentalData@@QAE@ABU0@@Z ENDP				; RentalData::RentalData
PUBLIC	??$_Destroy@URentalData@@@std@@YAXPAURentalData@@@Z ; std::_Destroy<RentalData>
; Function compile flags: /Ogsp
; File c:\program files (x86)\microsoft visual studio 10.0\vc\include\xmemory
;	COMDAT ??$_Destroy@URentalData@@@std@@YAXPAURentalData@@@Z
_TEXT	SEGMENT
__Ptr$ = 8						; size = 4
??$_Destroy@URentalData@@@std@@YAXPAURentalData@@@Z PROC ; std::_Destroy<RentalData>, COMDAT

; 62   : 	{	// destroy object at _Ptr

  00000	55		 push	 ebp
  00001	8b ec		 mov	 ebp, esp

; 63   : 	_Ptr->~_Ty();

  00003	8b 4d 08	 mov	 ecx, DWORD PTR __Ptr$[ebp]

; 64   : 	}

  00006	5d		 pop	 ebp

; 63   : 	_Ptr->~_Ty();

  00007	e9 00 00 00 00	 jmp	 ??1RentalData@@QAE@XZ
??$_Destroy@URentalData@@@std@@YAXPAURentalData@@@Z ENDP ; std::_Destroy<RentalData>
_TEXT	ENDS
PUBLIC	?construct@?$allocator@URentalData@@@std@@QAEXPAURentalData@@$$QAU3@@Z ; std::allocator<RentalData>::construct
;	COMDAT xdata$x
; File c:\program files (x86)\microsoft visual studio 10.0\vc\include\utility
xdata$x	SEGMENT
__unwindtable$?construct@?$allocator@URentalData@@@std@@QAEXPAURentalData@@$$QAU3@@Z DD 0ffffffffH
	DD	FLAT:__unwindfunclet$?construct@?$allocator@URentalData@@@std@@QAEXPAURentalData@@$$QAU3@@Z$0
__ehfuncinfo$?construct@?$allocator@URentalData@@@std@@QAEXPAURentalData@@$$QAU3@@Z DD 019930522H
	DD	01H
	DD	FLAT:__unwindtable$?construct@?$allocator@URentalData@@@std@@QAEXPAURentalData@@$$QAU3@@Z
	DD	2 DUP(00H)
	DD	2 DUP(00H)
	DD	00H
	DD	01H
; Function compile flags: /Ogsp
; File c:\program files (x86)\microsoft visual studio 10.0\vc\include\xmemory
xdata$x	ENDS
;	COMDAT ?construct@?$allocator@URentalData@@@std@@QAEXPAURentalData@@$$QAU3@@Z
_TEXT	SEGMENT
$T514583 = -16						; size = 4
__$EHRec$ = -12						; size = 12
__Ptr$ = 8						; size = 4
__Val$ = 12						; size = 4
?construct@?$allocator@URentalData@@@std@@QAEXPAURentalData@@$$QAU3@@Z PROC ; std::allocator<RentalData>::construct, COMDAT
; _this$ = ecx

; 201  : 		{	// construct object at _Ptr with value _Val

  00000	6a 04		 push	 4
  00002	b8 00 00 00 00	 mov	 eax, __ehhandler$?construct@?$allocator@URentalData@@@std@@QAEXPAURentalData@@$$QAU3@@Z
  00007	e8 00 00 00 00	 call	 __EH_prolog3

; 202  : 		::new ((void _FARQ *)_Ptr) _Ty(_STD forward<_Ty>(_Val));

  0000c	8b 4d 08	 mov	 ecx, DWORD PTR __Ptr$[ebp]
  0000f	89 4d f0	 mov	 DWORD PTR $T514583[ebp], ecx
  00012	83 65 fc 00	 and	 DWORD PTR __$EHRec$[ebp+8], 0
  00016	85 c9		 test	 ecx, ecx
  00018	74 08		 je	 SHORT $LN3@construct@4
  0001a	ff 75 0c	 push	 DWORD PTR __Val$[ebp]
  0001d	e8 00 00 00 00	 call	 ??0RentalData@@QAE@ABU0@@Z
$LN3@construct@4:

; 203  : 		}

  00022	e8 00 00 00 00	 call	 __EH_epilog3
  00027	c2 08 00	 ret	 8
_TEXT	ENDS
;	COMDAT text$x
text$x	SEGMENT
__unwindfunclet$?construct@?$allocator@URentalData@@@std@@QAEXPAURentalData@@$$QAU3@@Z$0:
  00000	ff 75 08	 push	 DWORD PTR __Ptr$[ebp]
  00003	ff 75 f0	 push	 DWORD PTR $T514583[ebp]
  00006	e8 00 00 00 00	 call	 ??3@YAXPAX0@Z		; operator delete
  0000b	59		 pop	 ecx
  0000c	59		 pop	 ecx
  0000d	c3		 ret	 0
__ehhandler$?construct@?$allocator@URentalData@@@std@@QAEXPAURentalData@@$$QAU3@@Z:
  0000e	8b 54 24 08	 mov	 edx, DWORD PTR [esp+8]
  00012	8d 42 0c	 lea	 eax, DWORD PTR [edx+12]
  00015	8b 4a ec	 mov	 ecx, DWORD PTR [edx-20]
  00018	33 c8		 xor	 ecx, eax
  0001a	e8 00 00 00 00	 call	 @__security_check_cookie@4
  0001f	b8 00 00 00 00	 mov	 eax, OFFSET __ehfuncinfo$?construct@?$allocator@URentalData@@@std@@QAEXPAURentalData@@$$QAU3@@Z
  00024	e9 00 00 00 00	 jmp	 ___CxxFrameHandler3
text$x	ENDS
?construct@?$allocator@URentalData@@@std@@QAEXPAURentalData@@$$QAU3@@Z ENDP ; std::allocator<RentalData>::construct
PUBLIC	??$_Move@PAURentalData@@PAU1@@std@@YAPAURentalData@@PAU1@00@Z ; std::_Move<RentalData *,RentalData *>
; Function compile flags: /Ogsp
; File c:\program files (x86)\microsoft visual studio 10.0\vc\include\xutility
;	COMDAT ??$_Move@PAURentalData@@PAU1@@std@@YAPAURentalData@@PAU1@00@Z
_TEXT	SEGMENT
__Cat$514604 = -4					; size = 1
__First$ = 8						; size = 4
__Last$ = 12						; size = 4
__Dest$ = 16						; size = 4
??$_Move@PAURentalData@@PAU1@@std@@YAPAURentalData@@PAU1@00@Z PROC ; std::_Move<RentalData *,RentalData *>, COMDAT

; 2533 : 	{	// move [_First, _Last) to [_Dest, ...), unchecked

  00000	55		 push	 ebp
  00001	8b ec		 mov	 ebp, esp
  00003	51		 push	 ecx

; 2534 : 	return (_Move(_First, _Last,
; 2535 : 		_Dest, _Ptr_cat(_First, _Dest)));

  00004	ff 75 fc	 push	 DWORD PTR __Cat$514604[ebp]
  00007	ff 75 10	 push	 DWORD PTR __Dest$[ebp]
  0000a	ff 75 0c	 push	 DWORD PTR __Last$[ebp]
  0000d	ff 75 08	 push	 DWORD PTR __First$[ebp]
  00010	e8 00 00 00 00	 call	 ??$_Move@PAURentalData@@PAU1@@std@@YAPAURentalData@@PAU1@00U_Nonscalar_ptr_iterator_tag@0@@Z ; std::_Move<RentalData *,RentalData *>
  00015	83 c4 10	 add	 esp, 16			; 00000010H

; 2536 : 	}

  00018	c9		 leave
  00019	c3		 ret	 0
??$_Move@PAURentalData@@PAU1@@std@@YAPAURentalData@@PAU1@00@Z ENDP ; std::_Move<RentalData *,RentalData *>
_TEXT	ENDS
PUBLIC	??$construct@AAURentalData@@@?$allocator@URentalData@@@std@@QAEXPAURentalData@@AAU2@@Z ; std::allocator<RentalData>::construct<RentalData &>
;	COMDAT xdata$x
; File c:\program files (x86)\microsoft visual studio 10.0\vc\include\utility
xdata$x	SEGMENT
__unwindtable$??$construct@AAURentalData@@@?$allocator@URentalData@@@std@@QAEXPAURentalData@@AAU2@@Z DD 0ffffffffH
	DD	FLAT:__unwindfunclet$??$construct@AAURentalData@@@?$allocator@URentalData@@@std@@QAEXPAURentalData@@AAU2@@Z$0
__ehfuncinfo$??$construct@AAURentalData@@@?$allocator@URentalData@@@std@@QAEXPAURentalData@@AAU2@@Z DD 019930522H
	DD	01H
	DD	FLAT:__unwindtable$??$construct@AAURentalData@@@?$allocator@URentalData@@@std@@QAEXPAURentalData@@AAU2@@Z
	DD	2 DUP(00H)
	DD	2 DUP(00H)
	DD	00H
	DD	01H
; Function compile flags: /Ogsp
; File c:\program files (x86)\microsoft visual studio 10.0\vc\include\xmemory
xdata$x	ENDS
;	COMDAT ??$construct@AAURentalData@@@?$allocator@URentalData@@@std@@QAEXPAURentalData@@AAU2@@Z
_TEXT	SEGMENT
$T514609 = -16						; size = 4
__$EHRec$ = -12						; size = 12
__Ptr$ = 8						; size = 4
__Val$ = 12						; size = 4
??$construct@AAURentalData@@@?$allocator@URentalData@@@std@@QAEXPAURentalData@@AAU2@@Z PROC ; std::allocator<RentalData>::construct<RentalData &>, COMDAT
; _this$ = ecx

; 206  : 		void construct(pointer _Ptr, _Other&& _Val)

  00000	6a 04		 push	 4
  00002	b8 00 00 00 00	 mov	 eax, __ehhandler$??$construct@AAURentalData@@@?$allocator@URentalData@@@std@@QAEXPAURentalData@@AAU2@@Z
  00007	e8 00 00 00 00	 call	 __EH_prolog3

; 207  : 		{	// construct object at _Ptr with value _Val
; 208  : 		::new ((void _FARQ *)_Ptr) _Ty(_STD forward<_Other>(_Val));

  0000c	8b 4d 08	 mov	 ecx, DWORD PTR __Ptr$[ebp]
  0000f	89 4d f0	 mov	 DWORD PTR $T514609[ebp], ecx
  00012	83 65 fc 00	 and	 DWORD PTR __$EHRec$[ebp+8], 0
  00016	85 c9		 test	 ecx, ecx
  00018	74 08		 je	 SHORT $LN3@construct@5
  0001a	ff 75 0c	 push	 DWORD PTR __Val$[ebp]
  0001d	e8 00 00 00 00	 call	 ??0RentalData@@QAE@ABU0@@Z
$LN3@construct@5:

; 209  : 		}

  00022	e8 00 00 00 00	 call	 __EH_epilog3
  00027	c2 08 00	 ret	 8
_TEXT	ENDS
;	COMDAT text$x
text$x	SEGMENT
__unwindfunclet$??$construct@AAURentalData@@@?$allocator@URentalData@@@std@@QAEXPAURentalData@@AAU2@@Z$0:
  00000	ff 75 08	 push	 DWORD PTR __Ptr$[ebp]
  00003	ff 75 f0	 push	 DWORD PTR $T514609[ebp]
  00006	e8 00 00 00 00	 call	 ??3@YAXPAX0@Z		; operator delete
  0000b	59		 pop	 ecx
  0000c	59		 pop	 ecx
  0000d	c3		 ret	 0
__ehhandler$??$construct@AAURentalData@@@?$allocator@URentalData@@@std@@QAEXPAURentalData@@AAU2@@Z:
  0000e	8b 54 24 08	 mov	 edx, DWORD PTR [esp+8]
  00012	8d 42 0c	 lea	 eax, DWORD PTR [edx+12]
  00015	8b 4a ec	 mov	 ecx, DWORD PTR [edx-20]
  00018	33 c8		 xor	 ecx, eax
  0001a	e8 00 00 00 00	 call	 @__security_check_cookie@4
  0001f	b8 00 00 00 00	 mov	 eax, OFFSET __ehfuncinfo$??$construct@AAURentalData@@@?$allocator@URentalData@@@std@@QAEXPAURentalData@@AAU2@@Z
  00024	e9 00 00 00 00	 jmp	 ___CxxFrameHandler3
text$x	ENDS
??$construct@AAURentalData@@@?$allocator@URentalData@@@std@@QAEXPAURentalData@@AAU2@@Z ENDP ; std::allocator<RentalData>::construct<RentalData &>
PUBLIC	??$_Construct@URentalData@@ABU1@@std@@YAXPAURentalData@@ABU1@@Z ; std::_Construct<RentalData,RentalData const &>
;	COMDAT xdata$x
; File c:\program files (x86)\microsoft visual studio 10.0\vc\include\utility
xdata$x	SEGMENT
__unwindtable$??$_Construct@URentalData@@ABU1@@std@@YAXPAURentalData@@ABU1@@Z DD 0ffffffffH
	DD	FLAT:__unwindfunclet$??$_Construct@URentalData@@ABU1@@std@@YAXPAURentalData@@ABU1@@Z$0
__ehfuncinfo$??$_Construct@URentalData@@ABU1@@std@@YAXPAURentalData@@ABU1@@Z DD 019930522H
	DD	01H
	DD	FLAT:__unwindtable$??$_Construct@URentalData@@ABU1@@std@@YAXPAURentalData@@ABU1@@Z
	DD	2 DUP(00H)
	DD	2 DUP(00H)
	DD	00H
	DD	01H
; Function compile flags: /Ogsp
; File c:\program files (x86)\microsoft visual studio 10.0\vc\include\xmemory
xdata$x	ENDS
;	COMDAT ??$_Construct@URentalData@@ABU1@@std@@YAXPAURentalData@@ABU1@@Z
_TEXT	SEGMENT
$T514628 = -16						; size = 4
__$EHRec$ = -12						; size = 12
__Vptr$ = 8						; size = 4
__Ptr$ = 8						; size = 4
__Val$ = 12						; size = 4
??$_Construct@URentalData@@ABU1@@std@@YAXPAURentalData@@ABU1@@Z PROC ; std::_Construct<RentalData,RentalData const &>, COMDAT

; 46   : 	{	// construct object at _Ptr with value _Val

  00000	6a 04		 push	 4
  00002	b8 00 00 00 00	 mov	 eax, __ehhandler$??$_Construct@URentalData@@ABU1@@std@@YAXPAURentalData@@ABU1@@Z
  00007	e8 00 00 00 00	 call	 __EH_prolog3

; 47   : 	void _FARQ *_Vptr = _Ptr;

  0000c	8b 4d 08	 mov	 ecx, DWORD PTR __Ptr$[ebp]
  0000f	89 4d 08	 mov	 DWORD PTR __Vptr$[ebp], ecx

; 48   : 	::new (_Vptr) _Ty1(_STD forward<_Ty2>(_Val));

  00012	89 4d f0	 mov	 DWORD PTR $T514628[ebp], ecx
  00015	83 65 fc 00	 and	 DWORD PTR __$EHRec$[ebp+8], 0
  00019	85 c9		 test	 ecx, ecx
  0001b	74 08		 je	 SHORT $LN3@Construct@3
  0001d	ff 75 0c	 push	 DWORD PTR __Val$[ebp]
  00020	e8 00 00 00 00	 call	 ??0RentalData@@QAE@ABU0@@Z
$LN3@Construct@3:

; 49   : 	}

  00025	e8 00 00 00 00	 call	 __EH_epilog3
  0002a	c3		 ret	 0
_TEXT	ENDS
;	COMDAT text$x
text$x	SEGMENT
__unwindfunclet$??$_Construct@URentalData@@ABU1@@std@@YAXPAURentalData@@ABU1@@Z$0:
  00000	ff 75 08	 push	 DWORD PTR __Vptr$[ebp]
  00003	ff 75 f0	 push	 DWORD PTR $T514628[ebp]
  00006	e8 00 00 00 00	 call	 ??3@YAXPAX0@Z		; operator delete
  0000b	59		 pop	 ecx
  0000c	59		 pop	 ecx
  0000d	c3		 ret	 0
__ehhandler$??$_Construct@URentalData@@ABU1@@std@@YAXPAURentalData@@ABU1@@Z:
  0000e	8b 54 24 08	 mov	 edx, DWORD PTR [esp+8]
  00012	8d 42 0c	 lea	 eax, DWORD PTR [edx+12]
  00015	8b 4a ec	 mov	 ecx, DWORD PTR [edx-20]
  00018	33 c8		 xor	 ecx, eax
  0001a	e8 00 00 00 00	 call	 @__security_check_cookie@4
  0001f	b8 00 00 00 00	 mov	 eax, OFFSET __ehfuncinfo$??$_Construct@URentalData@@ABU1@@std@@YAXPAURentalData@@ABU1@@Z
  00024	e9 00 00 00 00	 jmp	 ___CxxFrameHandler3
text$x	ENDS
??$_Construct@URentalData@@ABU1@@std@@YAXPAURentalData@@ABU1@@Z ENDP ; std::_Construct<RentalData,RentalData const &>
PUBLIC	?destroy@?$allocator@URentalData@@@std@@QAEXPAURentalData@@@Z ; std::allocator<RentalData>::destroy
; Function compile flags: /Ogsp
;	COMDAT ?destroy@?$allocator@URentalData@@@std@@QAEXPAURentalData@@@Z
_TEXT	SEGMENT
__Ptr$ = 8						; size = 4
?destroy@?$allocator@URentalData@@@std@@QAEXPAURentalData@@@Z PROC ; std::allocator<RentalData>::destroy, COMDAT
; _this$ = ecx

; 212  : 		{	// destroy object at _Ptr

  00000	55		 push	 ebp
  00001	8b ec		 mov	 ebp, esp

; 213  : 		_Destroy(_Ptr);

  00003	8b 4d 08	 mov	 ecx, DWORD PTR __Ptr$[ebp]
  00006	e8 00 00 00 00	 call	 ??1RentalData@@QAE@XZ

; 214  : 		}

  0000b	5d		 pop	 ebp
  0000c	c2 04 00	 ret	 4
?destroy@?$allocator@URentalData@@@std@@QAEXPAURentalData@@@Z ENDP ; std::allocator<RentalData>::destroy
_TEXT	ENDS
PUBLIC	??$_Cons_val@V?$allocator@URentalData@@@std@@URentalData@@U3@@std@@YAXAAV?$allocator@URentalData@@@0@PAURentalData@@$$QAU2@@Z ; std::_Cons_val<std::allocator<RentalData>,RentalData,RentalData>
;	COMDAT xdata$x
; File c:\program files (x86)\microsoft visual studio 10.0\vc\include\utility
xdata$x	SEGMENT
__unwindtable$??$_Cons_val@V?$allocator@URentalData@@@std@@URentalData@@U3@@std@@YAXAAV?$allocator@URentalData@@@0@PAURentalData@@$$QAU2@@Z DD 0ffffffffH
	DD	FLAT:__unwindfunclet$??$_Cons_val@V?$allocator@URentalData@@@std@@URentalData@@U3@@std@@YAXAAV?$allocator@URentalData@@@0@PAURentalData@@$$QAU2@@Z$0
__ehfuncinfo$??$_Cons_val@V?$allocator@URentalData@@@std@@URentalData@@U3@@std@@YAXAAV?$allocator@URentalData@@@0@PAURentalData@@$$QAU2@@Z DD 019930522H
	DD	01H
	DD	FLAT:__unwindtable$??$_Cons_val@V?$allocator@URentalData@@@std@@URentalData@@U3@@std@@YAXAAV?$allocator@URentalData@@@0@PAURentalData@@$$QAU2@@Z
	DD	2 DUP(00H)
	DD	2 DUP(00H)
	DD	00H
	DD	01H
; Function compile flags: /Ogsp
; File c:\program files (x86)\microsoft visual studio 10.0\vc\include\xmemory
xdata$x	ENDS
;	COMDAT ??$_Cons_val@V?$allocator@URentalData@@@std@@URentalData@@U3@@std@@YAXAAV?$allocator@URentalData@@@0@PAURentalData@@$$QAU2@@Z
_TEXT	SEGMENT
$T514675 = -16						; size = 4
__$EHRec$ = -12						; size = 12
__Alval$ = 8						; size = 4
__Pdest$ = 12						; size = 4
__Src$ = 16						; size = 4
