; Listing generated by Microsoft (R) Optimizing Compiler Version 16.00.30319.01 

	TITLE	D:\Lost Saga For Developer\Youtube\Tutorial\Source\src\LSClient\ioChargeFlashJump.cpp
	.686P
	.XMM
	include listing.inc
	.model	flat

INCLUDELIB MSVCRT
INCLUDELIB OLDNAMES

PUBLIC	?return1@@YAIXZ					; return1
; Function compile flags: /Ogsp
; File d:\lost saga for developer\youtube\tutorial\source\src\lsclient\stdafx.h
;	COMDAT ?return1@@YAIXZ
_TEXT	SEGMENT
?return1@@YAIXZ PROC					; return1, COMDAT

; 17   : 	__forceinline unsigned int return1() { __asm mov eax, 1 };

  00000	b8 01 00 00 00	 mov	 eax, 1
  00005	c3		 ret	 0
?return1@@YAIXZ ENDP					; return1
_TEXT	ENDS
PUBLIC	?return5@@YAIXZ					; return5
; Function compile flags: /Ogsp
;	COMDAT ?return5@@YAIXZ
_TEXT	SEGMENT
?return5@@YAIXZ PROC					; return5, COMDAT

; 18   : 	__forceinline unsigned int return5() { __asm mov eax, 5 };

  00000	b8 05 00 00 00	 mov	 eax, 5
  00005	c3		 ret	 0
?return5@@YAIXZ ENDP					; return5
_TEXT	ENDS
PUBLIC	?return10@@YAIXZ				; return10
; Function compile flags: /Ogsp
;	COMDAT ?return10@@YAIXZ
_TEXT	SEGMENT
?return10@@YAIXZ PROC					; return10, COMDAT

; 21   : 	__forceinline unsigned int return10() { __asm mov eax, 10 };

  00000	b8 0a 00 00 00	 mov	 eax, 10			; 0000000aH
  00005	c3		 ret	 0
?return10@@YAIXZ ENDP					; return10
_TEXT	ENDS
PUBLIC	?return90@@YAIXZ				; return90
; Function compile flags: /Ogsp
;	COMDAT ?return90@@YAIXZ
_TEXT	SEGMENT
?return90@@YAIXZ PROC					; return90, COMDAT

; 24   : 	__forceinline unsigned int return90() { __asm mov eax, 90 };

  00000	b8 5a 00 00 00	 mov	 eax, 90			; 0000005aH
  00005	c3		 ret	 0
?return90@@YAIXZ ENDP					; return90
_TEXT	ENDS
PUBLIC	?return100@@YAIXZ				; return100
; Function compile flags: /Ogsp
;	COMDAT ?return100@@YAIXZ
_TEXT	SEGMENT
?return100@@YAIXZ PROC					; return100, COMDAT

; 25   : 	__forceinline unsigned int return100() { __asm mov eax, 100 };

  00000	b8 64 00 00 00	 mov	 eax, 100		; 00000064H
  00005	c3		 ret	 0
?return100@@YAIXZ ENDP					; return100
_TEXT	ENDS
PUBLIC	?return360@@YAIXZ				; return360
; Function compile flags: /Ogsp
;	COMDAT ?return360@@YAIXZ
_TEXT	SEGMENT
?return360@@YAIXZ PROC					; return360, COMDAT

; 27   : 	__forceinline unsigned int return360() { __asm mov eax, 360 };

  00000	b8 68 01 00 00	 mov	 eax, 360		; 00000168H
  00005	c3		 ret	 0
?return360@@YAIXZ ENDP					; return360
_TEXT	ENDS
PUBLIC	?IsCatchMode@ioBaseChar@@QBE_NXZ		; ioBaseChar::IsCatchMode
; Function compile flags: /Ogsp
; File d:\lost saga for developer\youtube\tutorial\source\src\lsclient\iobasechar.h
;	COMDAT ?IsCatchMode@ioBaseChar@@QBE_NXZ
_TEXT	SEGMENT
?IsCatchMode@ioBaseChar@@QBE_NXZ PROC			; ioBaseChar::IsCatchMode, COMDAT
; _this$ = ecx

; 2131 : 	inline bool IsCatchMode() const { return m_bCatchState; }

  00000	8a 81 78 23 00
	00		 mov	 al, BYTE PTR [ecx+9080]
  00006	c3		 ret	 0
?IsCatchMode@ioBaseChar@@QBE_NXZ ENDP			; ioBaseChar::IsCatchMode
_TEXT	ENDS
PUBLIC	?GetActionStopTotalDelay@ioBaseChar@@QBEKXZ	; ioBaseChar::GetActionStopTotalDelay
; Function compile flags: /Ogsp
;	COMDAT ?GetActionStopTotalDelay@ioBaseChar@@QBEKXZ
_TEXT	SEGMENT
?GetActionStopTotalDelay@ioBaseChar@@QBEKXZ PROC	; ioBaseChar::GetActionStopTotalDelay, COMDAT
; _this$ = ecx

; 2399 : 	DWORD GetActionStopTotalDelay() const { return m_dwActionStopTotalDelay; }	// kaseton : action delay

  00000	8b 81 b8 15 00
	00		 mov	 eax, DWORD PTR [ecx+5560]
  00006	c3		 ret	 0
?GetActionStopTotalDelay@ioBaseChar@@QBEKXZ ENDP	; ioBaseChar::GetActionStopTotalDelay
_TEXT	ENDS
PUBLIC	?GetCharName@ioBaseChar@@QBEABVioHashString@@XZ	; ioBaseChar::GetCharName
; Function compile flags: /Ogsp
;	COMDAT ?GetCharName@ioBaseChar@@QBEABVioHashString@@XZ
_TEXT	SEGMENT
?GetCharName@ioBaseChar@@QBEABVioHashString@@XZ PROC	; ioBaseChar::GetCharName, COMDAT
; _this$ = ecx

; 2594 : 	inline const ioHashString& GetCharName() const { return m_Name; }

  00000	8d 81 d4 02 00
	00		 lea	 eax, DWORD PTR [ecx+724]
  00006	c3		 ret	 0
?GetCharName@ioBaseChar@@QBEABVioHashString@@XZ ENDP	; ioBaseChar::GetCharName
_TEXT	ENDS
PUBLIC	?GetMoveDir@ioBaseChar@@QBEABUD3DXVECTOR3@@XZ	; ioBaseChar::GetMoveDir
; Function compile flags: /Ogsp
;	COMDAT ?GetMoveDir@ioBaseChar@@QBEABUD3DXVECTOR3@@XZ
_TEXT	SEGMENT
?GetMoveDir@ioBaseChar@@QBEABUD3DXVECTOR3@@XZ PROC	; ioBaseChar::GetMoveDir, COMDAT
; _this$ = ecx

; 2596 : 	inline const D3DXVECTOR3& GetMoveDir() const { return m_vMoveDir; }

  00000	8d 81 b4 06 00
	00		 lea	 eax, DWORD PTR [ecx+1716]
  00006	c3		 ret	 0
?GetMoveDir@ioBaseChar@@QBEABUD3DXVECTOR3@@XZ ENDP	; ioBaseChar::GetMoveDir
_TEXT	ENDS
PUBLIC	?GetInputDir@ioBaseChar@@QBEABUD3DXVECTOR3@@XZ	; ioBaseChar::GetInputDir
; Function compile flags: /Ogsp
;	COMDAT ?GetInputDir@ioBaseChar@@QBEABUD3DXVECTOR3@@XZ
_TEXT	SEGMENT
?GetInputDir@ioBaseChar@@QBEABUD3DXVECTOR3@@XZ PROC	; ioBaseChar::GetInputDir, COMDAT
; _this$ = ecx

; 2597 : 	inline const D3DXVECTOR3& GetInputDir() const { return m_vInputDir; }

  00000	8d 81 c0 06 00
	00		 lea	 eax, DWORD PTR [ecx+1728]
  00006	c3		 ret	 0
?GetInputDir@ioBaseChar@@QBEABUD3DXVECTOR3@@XZ ENDP	; ioBaseChar::GetInputDir
_TEXT	ENDS
PUBLIC	?GetTargetRot@ioBaseChar@@QBEABUD3DXQUATERNION@@XZ ; ioBaseChar::GetTargetRot
; Function compile flags: /Ogsp
;	COMDAT ?GetTargetRot@ioBaseChar@@QBEABUD3DXQUATERNION@@XZ
_TEXT	SEGMENT
?GetTargetRot@ioBaseChar@@QBEABUD3DXQUATERNION@@XZ PROC	; ioBaseChar::GetTargetRot, COMDAT
; _this$ = ecx

; 2599 : 	inline const D3DXQUATERNION& GetTargetRot() const { return m_qtTargetRot; }

  00000	8d 81 a4 06 00
	00		 lea	 eax, DWORD PTR [ecx+1700]
  00006	c3		 ret	 0
?GetTargetRot@ioBaseChar@@QBEABUD3DXQUATERNION@@XZ ENDP	; ioBaseChar::GetTargetRot
_TEXT	ENDS
PUBLIC	?GetUsedJumpAttack@ioBaseChar@@QBE_NXZ		; ioBaseChar::GetUsedJumpAttack
; Function compile flags: /Ogsp
;	COMDAT ?GetUsedJumpAttack@ioBaseChar@@QBE_NXZ
_TEXT	SEGMENT
?GetUsedJumpAttack@ioBaseChar@@QBE_NXZ PROC		; ioBaseChar::GetUsedJumpAttack, COMDAT
; _this$ = ecx

; 2617 : 	inline bool GetUsedJumpAttack() const { return m_bUsedJumpAttack; }

  00000	8a 81 98 0e 00
	00		 mov	 al, BYTE PTR [ecx+3736]
  00006	c3		 ret	 0
?GetUsedJumpAttack@ioBaseChar@@QBE_NXZ ENDP		; ioBaseChar::GetUsedJumpAttack
_TEXT	ENDS
PUBLIC	?GetUsedBuffJump@ioBaseChar@@QBEHXZ		; ioBaseChar::GetUsedBuffJump
; Function compile flags: /Ogsp
;	COMDAT ?GetUsedBuffJump@ioBaseChar@@QBEHXZ
_TEXT	SEGMENT
?GetUsedBuffJump@ioBaseChar@@QBEHXZ PROC		; ioBaseChar::GetUsedBuffJump, COMDAT
; _this$ = ecx

; 2622 : 	inline int GetUsedBuffJump() const { return m_UsedBuffJump; }

  00000	8b 81 ac 0e 00
	00		 mov	 eax, DWORD PTR [ecx+3756]
  00006	c3		 ret	 0
?GetUsedBuffJump@ioBaseChar@@QBEHXZ ENDP		; ioBaseChar::GetUsedBuffJump
_TEXT	ENDS
PUBLIC	_fabsf
EXTRN	__fltused:DWORD
; Function compile flags: /Ogsp
; File c:\program files (x86)\microsoft visual studio 10.0\vc\include\math.h
;	COMDAT _fabsf
_TEXT	SEGMENT
tv129 = 8						; size = 4
__X$ = 8						; size = 4
_fabsf	PROC						; COMDAT

; 395  :         {return ((float)fabs((double)_X)); }

  00000	55		 push	 ebp
  00001	8b ec		 mov	 ebp, esp
  00003	d9 45 08	 fld	 DWORD PTR __X$[ebp]
  00006	d9 e1		 fabs
  00008	d9 5d 08	 fstp	 DWORD PTR tv129[ebp]
  0000b	d9 45 08	 fld	 DWORD PTR tv129[ebp]
  0000e	5d		 pop	 ebp
  0000f	c3		 ret	 0
_fabsf	ENDP
_TEXT	ENDS
PUBLIC	?GetUsedBuffFlyJump@ioBaseChar@@QBEHXZ		; ioBaseChar::GetUsedBuffFlyJump
; Function compile flags: /Ogsp
; File d:\lost saga for developer\youtube\tutorial\source\src\lsclient\iobasechar.h
;	COMDAT ?GetUsedBuffFlyJump@ioBaseChar@@QBEHXZ
_TEXT	SEGMENT
?GetUsedBuffFlyJump@ioBaseChar@@QBEHXZ PROC		; ioBaseChar::GetUsedBuffFlyJump, COMDAT
; _this$ = ecx

; 2623 : 	inline int GetUsedBuffFlyJump() const { return m_UsedBuffFlyJump; }

  00000	8b 81 b0 0e 00
	00		 mov	 eax, DWORD PTR [ecx+3760]
  00006	c3		 ret	 0
?GetUsedBuffFlyJump@ioBaseChar@@QBEHXZ ENDP		; ioBaseChar::GetUsedBuffFlyJump
_TEXT	ENDS
PUBLIC	?GetUsedBuffMultiFlyJump@ioBaseChar@@QBEHXZ	; ioBaseChar::GetUsedBuffMultiFlyJump
; Function compile flags: /Ogsp
;	COMDAT ?GetUsedBuffMultiFlyJump@ioBaseChar@@QBEHXZ
_TEXT	SEGMENT
?GetUsedBuffMultiFlyJump@ioBaseChar@@QBEHXZ PROC	; ioBaseChar::GetUsedBuffMultiFlyJump, COMDAT
; _this$ = ecx

; 2624 : 	inline int GetUsedBuffMultiFlyJump() const { return m_UsedBuffMultiFlyJump; }

  00000	8b 81 b4 0e 00
	00		 mov	 eax, DWORD PTR [ecx+3764]
  00006	c3		 ret	 0
?GetUsedBuffMultiFlyJump@ioBaseChar@@QBEHXZ ENDP	; ioBaseChar::GetUsedBuffMultiFlyJump
_TEXT	ENDS
PUBLIC	?GetJumpMoveStartTime@ioBaseChar@@QAEKXZ	; ioBaseChar::GetJumpMoveStartTime
; Function compile flags: /Ogsp
;	COMDAT ?GetJumpMoveStartTime@ioBaseChar@@QAEKXZ
_TEXT	SEGMENT
?GetJumpMoveStartTime@ioBaseChar@@QAEKXZ PROC		; ioBaseChar::GetJumpMoveStartTime, COMDAT
; _this$ = ecx

; 2625 : 	inline DWORD GetJumpMoveStartTime() { return m_dwJumpMoveStartTime; }

  00000	8b 81 80 0e 00
	00		 mov	 eax, DWORD PTR [ecx+3712]
  00006	c3		 ret	 0
?GetJumpMoveStartTime@ioBaseChar@@QAEKXZ ENDP		; ioBaseChar::GetJumpMoveStartTime
_TEXT	ENDS
PUBLIC	?SetUsedFlashJump@ioBaseChar@@QAEX_N@Z		; ioBaseChar::SetUsedFlashJump
; Function compile flags: /Ogsp
;	COMDAT ?SetUsedFlashJump@ioBaseChar@@QAEX_N@Z
_TEXT	SEGMENT
_bFlashJump$ = 8					; size = 1
?SetUsedFlashJump@ioBaseChar@@QAEX_N@Z PROC		; ioBaseChar::SetUsedFlashJump, COMDAT
; _this$ = ecx

; 2626 : 	inline void SetUsedFlashJump( bool bFlashJump ) { m_bUsedFlashJump = bFlashJump; }

  00000	55		 push	 ebp
  00001	8b ec		 mov	 ebp, esp
  00003	8a 45 08	 mov	 al, BYTE PTR _bFlashJump$[ebp]
  00006	88 81 9c 0e 00
	00		 mov	 BYTE PTR [ecx+3740], al
  0000c	5d		 pop	 ebp
  0000d	c2 04 00	 ret	 4
?SetUsedFlashJump@ioBaseChar@@QAEX_N@Z ENDP		; ioBaseChar::SetUsedFlashJump
_TEXT	ENDS
PUBLIC	?SetCurJumpPowerAmt@ioBaseChar@@QAEXM@Z		; ioBaseChar::SetCurJumpPowerAmt
; Function compile flags: /Ogsp
;	COMDAT ?SetCurJumpPowerAmt@ioBaseChar@@QAEXM@Z
_TEXT	SEGMENT
_fAmt$ = 8						; size = 4
?SetCurJumpPowerAmt@ioBaseChar@@QAEXM@Z PROC		; ioBaseChar::SetCurJumpPowerAmt, COMDAT
; _this$ = ecx

; 2628 : 	inline void SetCurJumpPowerAmt( float fAmt ) { m_fCurJumpPowerAmt = fAmt; }

  00000	55		 push	 ebp
  00001	8b ec		 mov	 ebp, esp
  00003	f3 0f 10 45 08	 movss	 xmm0, DWORD PTR _fAmt$[ebp]
  00008	f3 0f 11 81 90
	0e 00 00	 movss	 DWORD PTR [ecx+3728], xmm0
  00010	5d		 pop	 ebp
  00011	c2 04 00	 ret	 4
?SetCurJumpPowerAmt@ioBaseChar@@QAEXM@Z ENDP		; ioBaseChar::SetCurJumpPowerAmt
_TEXT	ENDS
PUBLIC	?fabs@@YAMM@Z					; fabs
; Function compile flags: /Ogsp
; File c:\program files (x86)\microsoft visual studio 10.0\vc\include\math.h
;	COMDAT ?fabs@@YAMM@Z
_TEXT	SEGMENT
tv131 = 8						; size = 4
__X$ = 8						; size = 4
?fabs@@YAMM@Z PROC					; fabs, COMDAT

; 518  :         {return (fabsf(_X)); }

  00000	55		 push	 ebp
  00001	8b ec		 mov	 ebp, esp
  00003	d9 45 08	 fld	 DWORD PTR __X$[ebp]
  00006	d9 e1		 fabs
  00008	d9 5d 08	 fstp	 DWORD PTR tv131[ebp]
  0000b	d9 45 08	 fld	 DWORD PTR tv131[ebp]
  0000e	5d		 pop	 ebp
  0000f	c3		 ret	 0
?fabs@@YAMM@Z ENDP					; fabs
_TEXT	ENDS
PUBLIC	??_7bad_alloc@std@@6B@				; std::bad_alloc::`vftable'
PUBLIC	??0bad_alloc@std@@QAE@PBD@Z			; std::bad_alloc::bad_alloc
PUBLIC	??_R4bad_alloc@std@@6B@				; std::bad_alloc::`RTTI Complete Object Locator'
PUBLIC	??_R0?AVbad_alloc@std@@@8			; std::bad_alloc `RTTI Type Descriptor'
PUBLIC	??_R3bad_alloc@std@@8				; std::bad_alloc::`RTTI Class Hierarchy Descriptor'
PUBLIC	??_R2bad_alloc@std@@8				; std::bad_alloc::`RTTI Base Class Array'
PUBLIC	??_R1A@?0A@EA@bad_alloc@std@@8			; std::bad_alloc::`RTTI Base Class Descriptor at (0,-1,0,64)'
PUBLIC	??_R1A@?0A@EA@exception@std@@8			; std::exception::`RTTI Base Class Descriptor at (0,-1,0,64)'
PUBLIC	??_R0?AVexception@std@@@8			; std::exception `RTTI Type Descriptor'
PUBLIC	??_R3exception@std@@8				; std::exception::`RTTI Class Hierarchy Descriptor'
PUBLIC	??_R2exception@std@@8				; std::exception::`RTTI Base Class Array'
EXTRN	__imp_??0exception@std@@QAE@ABQBD@Z:PROC
EXTRN	??_7type_info@@6B@:QWORD			; type_info::`vftable'
EXTRN	??_Ebad_alloc@std@@UAEPAXI@Z:PROC		; std::bad_alloc::`vector deleting destructor'
EXTRN	?what@exception@std@@UBEPBDXZ:PROC		; std::exception::what
;	COMDAT ??_R2exception@std@@8
; File c:\program files (x86)\microsoft visual studio 10.0\vc\include\exception
rdata$r	SEGMENT
??_R2exception@std@@8 DD FLAT:??_R1A@?0A@EA@exception@std@@8 ; std::exception::`RTTI Base Class Array'
rdata$r	ENDS
;	COMDAT ??_R3exception@std@@8
rdata$r	SEGMENT
??_R3exception@std@@8 DD 00H				; std::exception::`RTTI Class Hierarchy Descriptor'
	DD	00H
	DD	01H
	DD	FLAT:??_R2exception@std@@8
rdata$r	ENDS
;	COMDAT ??_R0?AVexception@std@@@8
_DATA	SEGMENT
??_R0?AVexception@std@@@8 DD FLAT:??_7type_info@@6B@	; std::exception `RTTI Type Descriptor'
	DD	00H
	DB	'.?AVexception@std@@', 00H
_DATA	ENDS
;	COMDAT ??_R1A@?0A@EA@exception@std@@8
rdata$r	SEGMENT
??_R1A@?0A@EA@exception@std@@8 DD FLAT:??_R0?AVexception@std@@@8 ; std::exception::`RTTI Base Class Descriptor at (0,-1,0,64)'
	DD	00H
	DD	00H
	DD	0ffffffffH
	DD	00H
	DD	040H
	DD	FLAT:??_R3exception@std@@8
rdata$r	ENDS
;	COMDAT ??_R1A@?0A@EA@bad_alloc@std@@8
rdata$r	SEGMENT
??_R1A@?0A@EA@bad_alloc@std@@8 DD FLAT:??_R0?AVbad_alloc@std@@@8 ; std::bad_alloc::`RTTI Base Class Descriptor at (0,-1,0,64)'
	DD	01H
	DD	00H
	DD	0ffffffffH
	DD	00H
	DD	040H
	DD	FLAT:??_R3bad_alloc@std@@8
rdata$r	ENDS
;	COMDAT ??_R2bad_alloc@std@@8
rdata$r	SEGMENT
??_R2bad_alloc@std@@8 DD FLAT:??_R1A@?0A@EA@bad_alloc@std@@8 ; std::bad_alloc::`RTTI Base Class Array'
	DD	FLAT:??_R1A@?0A@EA@exception@std@@8
rdata$r	ENDS
;	COMDAT ??_R3bad_alloc@std@@8
rdata$r	SEGMENT
??_R3bad_alloc@std@@8 DD 00H				; std::bad_alloc::`RTTI Class Hierarchy Descriptor'
	DD	00H
	DD	02H
	DD	FLAT:??_R2bad_alloc@std@@8
rdata$r	ENDS
;	COMDAT ??_R0?AVbad_alloc@std@@@8
_DATA	SEGMENT
??_R0?AVbad_alloc@std@@@8 DD FLAT:??_7type_info@@6B@	; std::bad_alloc `RTTI Type Descriptor'
	DD	00H
	DB	'.?AVbad_alloc@std@@', 00H
_DATA	ENDS
;	COMDAT ??_R4bad_alloc@std@@6B@
rdata$r	SEGMENT
??_R4bad_alloc@std@@6B@ DD 00H				; std::bad_alloc::`RTTI Complete Object Locator'
	DD	00H
	DD	00H
	DD	FLAT:??_R0?AVbad_alloc@std@@@8
	DD	FLAT:??_R3bad_alloc@std@@8
rdata$r	ENDS
;	COMDAT ??_7bad_alloc@std@@6B@
CONST	SEGMENT
??_7bad_alloc@std@@6B@ DD FLAT:??_R4bad_alloc@std@@6B@	; std::bad_alloc::`vftable'
	DD	FLAT:??_Ebad_alloc@std@@UAEPAXI@Z
	DD	FLAT:?what@exception@std@@UBEPBDXZ
; Function compile flags: /Ogsp
CONST	ENDS
;	COMDAT ??0bad_alloc@std@@QAE@PBD@Z
_TEXT	SEGMENT
__Message$ = 8						; size = 4
??0bad_alloc@std@@QAE@PBD@Z PROC			; std::bad_alloc::bad_alloc, COMDAT
; _this$ = ecx

; 345  : 		{	// construct from message string

  00000	55		 push	 ebp
  00001	8b ec		 mov	 ebp, esp
  00003	56		 push	 esi
  00004	8d 45 08	 lea	 eax, DWORD PTR __Message$[ebp]
  00007	50		 push	 eax
  00008	8b f1		 mov	 esi, ecx
  0000a	ff 15 00 00 00
	00		 call	 DWORD PTR __imp_??0exception@std@@QAE@ABQBD@Z
  00010	c7 06 00 00 00
	00		 mov	 DWORD PTR [esi], OFFSET ??_7bad_alloc@std@@6B@

; 346  : 		}

  00016	8b c6		 mov	 eax, esi
  00018	5e		 pop	 esi
  00019	5d		 pop	 ebp
  0001a	c2 04 00	 ret	 4
??0bad_alloc@std@@QAE@PBD@Z ENDP			; std::bad_alloc::bad_alloc
_TEXT	ENDS
PUBLIC	?IsDirKeyDoubleClick@ioBaseChar@@QBE_NXZ	; ioBaseChar::IsDirKeyDoubleClick
EXTRN	?IsDirDoubleClick@ioUserKeyInput@@QBE_NXZ:PROC	; ioUserKeyInput::IsDirDoubleClick
; Function compile flags: /Ogsp
; File d:\lost saga for developer\youtube\tutorial\source\src\lsclient\iobasechar.h
;	COMDAT ?IsDirKeyDoubleClick@ioBaseChar@@QBE_NXZ
_TEXT	SEGMENT
?IsDirKeyDoubleClick@ioBaseChar@@QBE_NXZ PROC		; ioBaseChar::IsDirKeyDoubleClick, COMDAT
; _this$ = ecx

; 3398 : 	bool IsDirKeyDoubleClick() const { return m_KeyInput.IsDirDoubleClick(); }

  00000	81 c1 80 0c 00
	00		 add	 ecx, 3200		; 00000c80H
  00006	e9 00 00 00 00	 jmp	 ?IsDirDoubleClick@ioUserKeyInput@@QBE_NXZ ; ioUserKeyInput::IsDirDoubleClick
?IsDirKeyDoubleClick@ioBaseChar@@QBE_NXZ ENDP		; ioBaseChar::IsDirKeyDoubleClick
_TEXT	ENDS
PUBLIC	??1bad_alloc@std@@UAE@XZ			; std::bad_alloc::~bad_alloc
EXTRN	__imp_??1exception@std@@UAE@XZ:PROC
; Function compile flags: /Ogsp
; File c:\program files (x86)\microsoft visual studio 10.0\vc\include\exception
;	COMDAT ??1bad_alloc@std@@UAE@XZ
_TEXT	SEGMENT
??1bad_alloc@std@@UAE@XZ PROC				; std::bad_alloc::~bad_alloc, COMDAT
; _this$ = ecx

; 354  : 		{	// destroy the object

  00000	c7 01 00 00 00
	00		 mov	 DWORD PTR [ecx], OFFSET ??_7bad_alloc@std@@6B@

; 355  : 		}

  00006	ff 25 00 00 00
	00		 jmp	 DWORD PTR __imp_??1exception@std@@UAE@XZ
??1bad_alloc@std@@UAE@XZ ENDP				; std::bad_alloc::~bad_alloc
_TEXT	ENDS
EXTRN	??3@YAXPAX@Z:PROC				; operator delete
; Function compile flags: /Ogsp
;	COMDAT ??_Gbad_alloc@std@@UAEPAXI@Z
_TEXT	SEGMENT
___flags$ = 8						; size = 4
??_Gbad_alloc@std@@UAEPAXI@Z PROC			; std::bad_alloc::`scalar deleting destructor', COMDAT
; _this$ = ecx
  00000	55		 push	 ebp
  00001	8b ec		 mov	 ebp, esp
  00003	56		 push	 esi
  00004	8b f1		 mov	 esi, ecx
  00006	c7 06 00 00 00
	00		 mov	 DWORD PTR [esi], OFFSET ??_7bad_alloc@std@@6B@
  0000c	ff 15 00 00 00
	00		 call	 DWORD PTR __imp_??1exception@std@@UAE@XZ
  00012	f6 45 08 01	 test	 BYTE PTR ___flags$[ebp], 1
  00016	74 07		 je	 SHORT $LN1@scalar
  00018	56		 push	 esi
  00019	e8 00 00 00 00	 call	 ??3@YAXPAX@Z		; operator delete
  0001e	59		 pop	 ecx
$LN1@scalar:
  0001f	8b c6		 mov	 eax, esi
  00021	5e		 pop	 esi
  00022	5d		 pop	 ebp
  00023	c2 04 00	 ret	 4
??_Gbad_alloc@std@@UAEPAXI@Z ENDP			; std::bad_alloc::`scalar deleting destructor'
_TEXT	ENDS
PUBLIC	??2@YAPAXIPAX@Z					; operator new
; Function compile flags: /Ogsp
; File c:\program files (x86)\microsoft visual studio 10.0\vc\include\new
;	COMDAT ??2@YAPAXIPAX@Z
_TEXT	SEGMENT
___formal$ = 8						; size = 4
__Where$ = 12						; size = 4
??2@YAPAXIPAX@Z PROC					; operator new, COMDAT

; 56   : 	{	// construct array with placement at _Where

  00000	55		 push	 ebp
  00001	8b ec		 mov	 ebp, esp

; 57   : 	return (_Where);

  00003	8b 45 0c	 mov	 eax, DWORD PTR __Where$[ebp]

; 58   : 	}

  00006	5d		 pop	 ebp
  00007	c3		 ret	 0
??2@YAPAXIPAX@Z ENDP					; operator new
_TEXT	ENDS
PUBLIC	??3@YAXPAX0@Z					; operator delete
; Function compile flags: /Ogsp
;	COMDAT ??3@YAXPAX0@Z
_TEXT	SEGMENT
___formal$ = 8						; size = 4
___formal$ = 12						; size = 4
??3@YAXPAX0@Z PROC					; operator delete, COMDAT

; 62   : 	}

  00000	c3		 ret	 0
??3@YAXPAX0@Z ENDP					; operator delete
_TEXT	ENDS
PUBLIC	?GetType@ioChargeFlashJump@@UBE?AW4JumpType@@XZ	; ioChargeFlashJump::GetType
; Function compile flags: /Ogsp
; File d:\lost saga for developer\youtube\tutorial\source\src\lsclient\iochargeflashjump.cpp
;	COMDAT ?GetType@ioChargeFlashJump@@UBE?AW4JumpType@@XZ
_TEXT	SEGMENT
?GetType@ioChargeFlashJump@@UBE?AW4JumpType@@XZ PROC	; ioChargeFlashJump::GetType, COMDAT
; _this$ = ecx

; 86   : 	return JT_CHARGE_FLASH_JUMP;

  00000	6a 1a		 push	 26			; 0000001aH
  00002	58		 pop	 eax

; 87   : }

  00003	c3		 ret	 0
?GetType@ioChargeFlashJump@@UBE?AW4JumpType@@XZ ENDP	; ioChargeFlashJump::GetType
_TEXT	ENDS
PUBLIC	?SetJumpping@ioChargeFlashJump@@UAEXPAVioBaseChar@@_N@Z ; ioChargeFlashJump::SetJumpping
; Function compile flags: /Ogsp
;	COMDAT ?SetJumpping@ioChargeFlashJump@@UAEXPAVioBaseChar@@_N@Z
_TEXT	SEGMENT
_pOwner$ = 8						; size = 4
_bFullTime$ = 12					; size = 1
?SetJumpping@ioChargeFlashJump@@UAEXPAVioBaseChar@@_N@Z PROC ; ioChargeFlashJump::SetJumpping, COMDAT
; _this$ = ecx

; 166  : 	m_FlashJumpState = FJS_NONE;

  00000	33 c0		 xor	 eax, eax
  00002	89 81 24 01 00
	00		 mov	 DWORD PTR [ecx+292], eax

; 167  : 	m_dwFlashDelayEndTime = 0;

  00008	89 81 c8 01 00
	00		 mov	 DWORD PTR [ecx+456], eax

; 168  : 	m_dwFlashEndTime = 0;

  0000e	89 81 cc 01 00
	00		 mov	 DWORD PTR [ecx+460], eax

; 169  : 
; 170  : 	m_bUseExtendJump = false;

  00014	88 41 10	 mov	 BYTE PTR [ecx+16], al

; 171  : 
; 172  : 	m_bUsedDoubleJump = false;

  00017	88 81 bc 02 00
	00		 mov	 BYTE PTR [ecx+700], al

; 173  : 	m_iCurJumpCnt = 1;

  0001d	c7 81 c4 02 00
	00 01 00 00 00	 mov	 DWORD PTR [ecx+708], 1

; 174  : 
; 175  : 	m_dwChargingStartTime = 0;

  00027	89 81 d0 01 00
	00		 mov	 DWORD PTR [ecx+464], eax

; 176  : 	m_bUseExtendJumpAttack = false;

  0002d	88 81 e8 01 00
	00		 mov	 BYTE PTR [ecx+488], al

; 177  : 
; 178  : 	m_dwDashStartTime = 0;

  00033	89 81 28 03 00
	00		 mov	 DWORD PTR [ecx+808], eax

; 179  : 	m_dwDashEndTime = 0;

  00039	89 81 2c 03 00
	00		 mov	 DWORD PTR [ecx+812], eax

; 180  : 
; 181  : 	m_dwReserveEnableTime = 0;

  0003f	89 81 e8 00 00
	00		 mov	 DWORD PTR [ecx+232], eax

; 182  : 	m_bJumpAttackReserve = false;

  00045	88 81 44 03 00
	00		 mov	 BYTE PTR [ecx+836], al

; 183  : }

  0004b	c2 08 00	 ret	 8
?SetJumpping@ioChargeFlashJump@@UAEXPAVioBaseChar@@_N@Z ENDP ; ioChargeFlashJump::SetJumpping
_TEXT	ENDS
PUBLIC	?_Adopt@_Iterator_base0@std@@QAEXPBX@Z		; std::_Iterator_base0::_Adopt
; Function compile flags: /Ogsp
; File c:\program files (x86)\microsoft visual studio 10.0\vc\include\xutility
;	COMDAT ?_Adopt@_Iterator_base0@std@@QAEXPBX@Z
_TEXT	SEGMENT
___formal$ = 8						; size = 4
?_Adopt@_Iterator_base0@std@@QAEXPBX@Z PROC		; std::_Iterator_base0::_Adopt, COMDAT
; _this$ = ecx

; 49   : 		}

  00000	c2 04 00	 ret	 4
?_Adopt@_Iterator_base0@std@@QAEXPBX@Z ENDP		; std::_Iterator_base0::_Adopt
_TEXT	ENDS
PUBLIC	?SetLandingState@ioChargeFlashJump@@UAEXPAVioBaseChar@@@Z ; ioChargeFlashJump::SetLandingState
; Function compile flags: /Ogsp
; File d:\lost saga for developer\youtube\tutorial\source\src\lsclient\iochargeflashjump.cpp
;	COMDAT ?SetLandingState@ioChargeFlashJump@@UAEXPAVioBaseChar@@@Z
_TEXT	SEGMENT
_pOwner$ = 8						; size = 4
?SetLandingState@ioChargeFlashJump@@UAEXPAVioBaseChar@@@Z PROC ; ioChargeFlashJump::SetLandingState, COMDAT
; _this$ = ecx

; 596  : {

  00000	55		 push	 ebp
  00001	8b ec		 mov	 ebp, esp

; 597  : 	m_bUseExtendJump = false;
; 598  : 	m_bUseExtendJumpAttack = false;
; 599  : 
; 600  : 	m_FlashJumpState = FJS_NONE;
; 601  : 	pOwner->SetUsedFlashJump( false );

  00003	8b 55 08	 mov	 edx, DWORD PTR _pOwner$[ebp]
  00006	33 c0		 xor	 eax, eax
  00008	88 41 10	 mov	 BYTE PTR [ecx+16], al
  0000b	88 81 e8 01 00
	00		 mov	 BYTE PTR [ecx+488], al
  00011	89 81 24 01 00
	00		 mov	 DWORD PTR [ecx+292], eax
  00017	88 82 9c 0e 00
	00		 mov	 BYTE PTR [edx+3740], al

; 602  : 
; 603  : 	m_dwDashStartTime = 0;

  0001d	89 81 28 03 00
	00		 mov	 DWORD PTR [ecx+808], eax

; 604  : 	m_dwDashEndTime = 0;

  00023	89 81 2c 03 00
	00		 mov	 DWORD PTR [ecx+812], eax

; 605  : }

  00029	5d		 pop	 ebp
  0002a	c2 04 00	 ret	 4
?SetLandingState@ioChargeFlashJump@@UAEXPAVioBaseChar@@@Z ENDP ; ioChargeFlashJump::SetLandingState
_TEXT	ENDS
PUBLIC	?IsNoFlashProcessMove@ioChargeFlashJump@@QAE_NXZ ; ioChargeFlashJump::IsNoFlashProcessMove
; Function compile flags: /Ogsp
;	COMDAT ?IsNoFlashProcessMove@ioChargeFlashJump@@QAE_NXZ
_TEXT	SEGMENT
?IsNoFlashProcessMove@ioChargeFlashJump@@QAE_NXZ PROC	; ioChargeFlashJump::IsNoFlashProcessMove, COMDAT
; _this$ = ecx

; 631  : 	switch( m_FlashJumpState )

  00000	83 b9 24 01 00
	00 03		 cmp	 DWORD PTR [ecx+292], 3
  00007	0f 94 c0	 sete	 al

; 632  : 	{
; 633  : 	case FJS_DELAY:
; 634  : 		return true;
; 635  : 	}
; 636  : 
; 637  : 	return false;
; 638  : }

  0000a	c3		 ret	 0
?IsNoFlashProcessMove@ioChargeFlashJump@@QAE_NXZ ENDP	; ioChargeFlashJump::IsNoFlashProcessMove
_TEXT	ENDS
PUBLIC	?IsCanFlashJumpAttack@ioChargeFlashJump@@QAE_NPAVioBaseChar@@@Z ; ioChargeFlashJump::IsCanFlashJumpAttack
EXTRN	?GetCurChangeJumppingCnt@ioBaseChar@@QAEHXZ:PROC ; ioBaseChar::GetCurChangeJumppingCnt
; Function compile flags: /Ogsp
;	COMDAT ?IsCanFlashJumpAttack@ioChargeFlashJump@@QAE_NPAVioBaseChar@@@Z
_TEXT	SEGMENT
_pOwner$ = 8						; size = 4
?IsCanFlashJumpAttack@ioChargeFlashJump@@QAE_NPAVioBaseChar@@@Z PROC ; ioChargeFlashJump::IsCanFlashJumpAttack, COMDAT
; _this$ = ecx

; 804  : {

  00000	55		 push	 ebp
  00001	8b ec		 mov	 ebp, esp
  00003	56		 push	 esi
  00004	8b f1		 mov	 esi, ecx

; 805  : 	if( !pOwner ) return false;

  00006	8b 4d 08	 mov	 ecx, DWORD PTR _pOwner$[ebp]
  00009	85 c9		 test	 ecx, ecx
  0000b	75 04		 jne	 SHORT $LN3@IsCanFlash
$LN6@IsCanFlash:
  0000d	32 c0		 xor	 al, al
  0000f	eb 14		 jmp	 SHORT $LN4@IsCanFlash
$LN3@IsCanFlash:

; 806  : 
; 807  : 	int iCurCnt = pOwner->GetCurChangeJumppingCnt();

  00011	e8 00 00 00 00	 call	 ?GetCurChangeJumppingCnt@ioBaseChar@@QAEHXZ ; ioBaseChar::GetCurChangeJumppingCnt

; 808  : 	if( iCurCnt > 0 || m_iCurJumpCnt > 1 )

  00016	85 c0		 test	 eax, eax
  00018	7f 09		 jg	 SHORT $LN1@IsCanFlash
  0001a	83 be c4 02 00
	00 01		 cmp	 DWORD PTR [esi+708], 1

; 811  : 	}
; 812  : 
; 813  : 	return false;

  00021	7e ea		 jle	 SHORT $LN6@IsCanFlash
$LN1@IsCanFlash:

; 809  : 	{
; 810  : 		return true;

  00023	b0 01		 mov	 al, 1
$LN4@IsCanFlash:
  00025	5e		 pop	 esi

; 814  : }

  00026	5d		 pop	 ebp
  00027	c2 04 00	 ret	 4
?IsCanFlashJumpAttack@ioChargeFlashJump@@QAE_NPAVioBaseChar@@@Z ENDP ; ioChargeFlashJump::IsCanFlashJumpAttack
_TEXT	ENDS
PUBLIC	?SetNewJumpTypeDashAttack@ioChargeFlashJump@@IAEXPAVioBaseChar@@KK@Z ; ioChargeFlashJump::SetNewJumpTypeDashAttack
EXTRN	?SetNewJumpAttackStateInfo@ioBaseChar@@QAEXKKM_N@Z:PROC ; ioBaseChar::SetNewJumpAttackStateInfo
; Function compile flags: /Ogsp
;	COMDAT ?SetNewJumpTypeDashAttack@ioChargeFlashJump@@IAEXPAVioBaseChar@@KK@Z
_TEXT	SEGMENT
_pOwner$ = 8						; size = 4
_dwEndTime$ = 12					; size = 4
_dwReserveTime$ = 16					; size = 4
?SetNewJumpTypeDashAttack@ioChargeFlashJump@@IAEXPAVioBaseChar@@KK@Z PROC ; ioChargeFlashJump::SetNewJumpTypeDashAttack, COMDAT
; _this$ = ecx

; 1077 : {

  00000	55		 push	 ebp
  00001	8b ec		 mov	 ebp, esp

; 1078 : 	if( !pOwner ) return;

  00003	33 c0		 xor	 eax, eax
  00005	39 45 08	 cmp	 DWORD PTR _pOwner$[ebp], eax
  00008	74 2a		 je	 SHORT $LN2@SetNewJump

; 1079 : 
; 1080 : 	m_bUseExtendJump = false;
; 1081 : 	m_FlashJumpState = FJS_NEW_JUMP;
; 1082 : 
; 1083 : 	pOwner->SetNewJumpAttackStateInfo( dwEndTime, dwReserveTime, m_fDashGravityAmt );

  0000a	f3 0f 10 81 24
	03 00 00	 movss	 xmm0, DWORD PTR [ecx+804]
  00012	50		 push	 eax
  00013	51		 push	 ecx
  00014	f3 0f 11 04 24	 movss	 DWORD PTR [esp], xmm0
  00019	ff 75 10	 push	 DWORD PTR _dwReserveTime$[ebp]
  0001c	88 41 10	 mov	 BYTE PTR [ecx+16], al
  0001f	ff 75 0c	 push	 DWORD PTR _dwEndTime$[ebp]
  00022	c7 81 24 01 00
	00 09 00 00 00	 mov	 DWORD PTR [ecx+292], 9
  0002c	8b 4d 08	 mov	 ecx, DWORD PTR _pOwner$[ebp]
  0002f	e8 00 00 00 00	 call	 ?SetNewJumpAttackStateInfo@ioBaseChar@@QAEXKKM_N@Z ; ioBaseChar::SetNewJumpAttackStateInfo
$LN2@SetNewJump:

; 1084 : }

  00034	5d		 pop	 ebp
  00035	c2 0c 00	 ret	 12			; 0000000cH
?SetNewJumpTypeDashAttack@ioChargeFlashJump@@IAEXPAVioBaseChar@@KK@Z ENDP ; ioChargeFlashJump::SetNewJumpTypeDashAttack
_TEXT	ENDS
PUBLIC	?IsEnableJumpLandEndDash@ioChargeFlashJump@@UAE_NXZ ; ioChargeFlashJump::IsEnableJumpLandEndDash
; Function compile flags: /Ogsp
;	COMDAT ?IsEnableJumpLandEndDash@ioChargeFlashJump@@UAE_NXZ
_TEXT	SEGMENT
?IsEnableJumpLandEndDash@ioChargeFlashJump@@UAE_NXZ PROC ; ioChargeFlashJump::IsEnableJumpLandEndDash, COMDAT
; _this$ = ecx

; 1088 : 	if( m_FlashJumpState == FJS_DASH || m_FlashJumpState == FJS_DASH_END )

  00000	8b 81 24 01 00
	00		 mov	 eax, DWORD PTR [ecx+292]
  00006	83 f8 07	 cmp	 eax, 7
  00009	74 08		 je	 SHORT $LN1@IsEnableJu
  0000b	83 f8 08	 cmp	 eax, 8
  0000e	74 03		 je	 SHORT $LN1@IsEnableJu

; 1090 : 
; 1091 : 	return false;

  00010	32 c0		 xor	 al, al

; 1092 : }

  00012	c3		 ret	 0
$LN1@IsEnableJu:

; 1089 : 		return true;

  00013	b0 01		 mov	 al, 1

; 1092 : }

  00015	c3		 ret	 0
?IsEnableJumpLandEndDash@ioChargeFlashJump@@UAE_NXZ ENDP ; ioChargeFlashJump::IsEnableJumpLandEndDash
_TEXT	ENDS
PUBLIC	?IsEnableJumpDash@ioChargeFlashJump@@UAE_NPAVioBaseChar@@@Z ; ioChargeFlashJump::IsEnableJumpDash
; Function compile flags: /Ogsp
;	COMDAT ?IsEnableJumpDash@ioChargeFlashJump@@UAE_NPAVioBaseChar@@@Z
_TEXT	SEGMENT
_pOwner$ = 8						; size = 4
?IsEnableJumpDash@ioChargeFlashJump@@UAE_NPAVioBaseChar@@@Z PROC ; ioChargeFlashJump::IsEnableJumpDash, COMDAT
; _this$ = ecx

; 1096 : 	return m_bEnableJumpDash;

  00000	8a 81 cc 02 00
	00		 mov	 al, BYTE PTR [ecx+716]

; 1097 : }

  00006	c2 04 00	 ret	 4
?IsEnableJumpDash@ioChargeFlashJump@@UAE_NPAVioBaseChar@@@Z ENDP ; ioChargeFlashJump::IsEnableJumpDash
_TEXT	ENDS
PUBLIC	?IsDashState@ioChargeFlashJump@@QAE_NXZ		; ioChargeFlashJump::IsDashState
; Function compile flags: /Ogsp
;	COMDAT ?IsDashState@ioChargeFlashJump@@QAE_NXZ
_TEXT	SEGMENT
?IsDashState@ioChargeFlashJump@@QAE_NXZ PROC		; ioChargeFlashJump::IsDashState, COMDAT
; _this$ = ecx

; 1101 : 	switch( m_FlashJumpState )

  00000	8b 81 24 01 00
	00		 mov	 eax, DWORD PTR [ecx+292]
  00006	33 c9		 xor	 ecx, ecx
  00008	83 c0 f9	 add	 eax, -7			; fffffff9H
  0000b	41		 inc	 ecx
  0000c	3b c8		 cmp	 ecx, eax
  0000e	1a c0		 sbb	 al, al
  00010	fe c0		 inc	 al

; 1102 : 	{
; 1103 : 	case FJS_DASH:
; 1104 : 	case FJS_DASH_END:
; 1105 : 		return true;
; 1106 : 	}
; 1107 : 
; 1108 : 	return false;
; 1109 : }

  00012	c3		 ret	 0
?IsDashState@ioChargeFlashJump@@QAE_NXZ ENDP		; ioChargeFlashJump::IsDashState
_TEXT	ENDS
PUBLIC	__real@00000000
PUBLIC	__real@4f800000
PUBLIC	?GetCurGravityAmt@ioChargeFlashJump@@QAEMXZ	; ioChargeFlashJump::GetCurGravityAmt
;	COMDAT __real@00000000
; File d:\lost saga for developer\youtube\tutorial\source\src\lsclient\stdafx.h
CONST	SEGMENT
__real@00000000 DD 000000000r			; 0
CONST	ENDS
;	COMDAT __real@4f800000
CONST	SEGMENT
__real@4f800000 DD 04f800000r			; 4.29497e+009
; Function compile flags: /Ogsp
; File d:\lost saga for developer\youtube\tutorial\source\src\lsclient\iochargeflashjump.cpp
CONST	ENDS
;	COMDAT ?GetCurGravityAmt@ioChargeFlashJump@@QAEMXZ
_TEXT	SEGMENT
tv145 = -4						; size = 4
?GetCurGravityAmt@ioChargeFlashJump@@QAEMXZ PROC	; ioChargeFlashJump::GetCurGravityAmt, COMDAT
; _this$ = ecx

; 1159 : {

  00000	55		 push	 ebp
  00001	8b ec		 mov	 ebp, esp
  00003	51		 push	 ecx

; 1160 : 	if( m_FlashJumpState == FJS_DASH )

  00004	83 b9 24 01 00
	00 07		 cmp	 DWORD PTR [ecx+292], 7
  0000b	75 31		 jne	 SHORT $LN1@GetCurGrav

; 1161 : 	{
; 1162 : 		if( m_DashType == LDT_GRAVITY )

  0000d	8b 81 d0 02 00
	00		 mov	 eax, DWORD PTR [ecx+720]
  00013	83 f8 01	 cmp	 eax, 1
  00016	75 08		 jne	 SHORT $LN3@GetCurGrav

; 1163 : 			return m_fDashGravityAmt;

  00018	d9 81 24 03 00
	00		 fld	 DWORD PTR [ecx+804]

; 1169 : }

  0001e	c9		 leave
  0001f	c3		 ret	 0
$LN3@GetCurGrav:

; 1164 : 		else if( m_DashType == LDT_NO_GRAVITY )

  00020	83 f8 02	 cmp	 eax, 2
  00023	75 19		 jne	 SHORT $LN1@GetCurGrav

; 1165 : 			return -FLOAT1;

  00025	b8 01 00 00 00	 mov	 eax, 1
  0002a	89 45 fc	 mov	 DWORD PTR tv145[ebp], eax
  0002d	db 45 fc	 fild	 DWORD PTR tv145[ebp]
  00030	85 c0		 test	 eax, eax
  00032	79 06		 jns	 SHORT $LN9@GetCurGrav
  00034	d8 05 00 00 00
	00		 fadd	 DWORD PTR __real@4f800000
$LN9@GetCurGrav:
  0003a	d9 e0		 fchs

; 1169 : }

  0003c	c9		 leave
  0003d	c3		 ret	 0
$LN1@GetCurGrav:

; 1166 : 	}
; 1167 : 
; 1168 : 	return 0.0f;

  0003e	d9 ee		 fldz

; 1169 : }

  00040	c9		 leave
  00041	c3		 ret	 0
?GetCurGravityAmt@ioChargeFlashJump@@QAEMXZ ENDP	; ioChargeFlashJump::GetCurGravityAmt
_TEXT	ENDS
PUBLIC	?CheckKeyReserve@ioChargeFlashJump@@MAEXPAVioBaseChar@@@Z ; ioChargeFlashJump::CheckKeyReserve
EXTRN	?IsChatModeState@ioBaseChar@@QBE_N_N@Z:PROC	; ioBaseChar::IsChatModeState
EXTRN	?IsAttackKey@ioBaseChar@@QBE_NXZ:PROC		; ioBaseChar::IsAttackKey
; Function compile flags: /Ogsp
;	COMDAT ?CheckKeyReserve@ioChargeFlashJump@@MAEXPAVioBaseChar@@@Z
_TEXT	SEGMENT
_pOwner$ = 8						; size = 4
?CheckKeyReserve@ioChargeFlashJump@@MAEXPAVioBaseChar@@@Z PROC ; ioChargeFlashJump::CheckKeyReserve, COMDAT
; _this$ = ecx

; 1172 : {

  00000	55		 push	 ebp
  00001	8b ec		 mov	 ebp, esp
  00003	56		 push	 esi
  00004	8b f1		 mov	 esi, ecx

; 1173 : 	bool bReserveSkill = false;
; 1174 : 
; 1175 : 	if( pOwner->IsAttackKey() && !m_bJumpAttackReserve && !pOwner->IsChatModeState( true ) )

  00006	8b 4d 08	 mov	 ecx, DWORD PTR _pOwner$[ebp]
  00009	e8 00 00 00 00	 call	 ?IsAttackKey@ioBaseChar@@QBE_NXZ ; ioBaseChar::IsAttackKey
  0000e	84 c0		 test	 al, al
  00010	74 1e		 je	 SHORT $LN1@CheckKeyRe
  00012	80 be 44 03 00
	00 00		 cmp	 BYTE PTR [esi+836], 0
  00019	75 15		 jne	 SHORT $LN1@CheckKeyRe
  0001b	8b 4d 08	 mov	 ecx, DWORD PTR _pOwner$[ebp]
  0001e	6a 01		 push	 1
  00020	e8 00 00 00 00	 call	 ?IsChatModeState@ioBaseChar@@QBE_N_N@Z ; ioBaseChar::IsChatModeState
  00025	84 c0		 test	 al, al
  00027	75 07		 jne	 SHORT $LN1@CheckKeyRe

; 1176 : 	{
; 1177 : 		m_bJumpAttackReserve = true;

  00029	c6 86 44 03 00
	00 01		 mov	 BYTE PTR [esi+836], 1
$LN1@CheckKeyRe:
  00030	5e		 pop	 esi

; 1178 : 	}
; 1179 : }

  00031	5d		 pop	 ebp
  00032	c2 04 00	 ret	 4
?CheckKeyReserve@ioChargeFlashJump@@MAEXPAVioBaseChar@@@Z ENDP ; ioChargeFlashJump::CheckKeyReserve
_TEXT	ENDS
PUBLIC	?IsJumpAttackReserve@ioChargeFlashJump@@QAE_NXZ	; ioChargeFlashJump::IsJumpAttackReserve
; Function compile flags: /Ogsp
;	COMDAT ?IsJumpAttackReserve@ioChargeFlashJump@@QAE_NXZ
_TEXT	SEGMENT
?IsJumpAttackReserve@ioChargeFlashJump@@QAE_NXZ PROC	; ioChargeFlashJump::IsJumpAttackReserve, COMDAT
; _this$ = ecx

; 1183 : 	return m_bJumpAttackReserve;

  00000	8a 81 44 03 00
	00		 mov	 al, BYTE PTR [ecx+836]

; 1184 : }

  00006	c3		 ret	 0
?IsJumpAttackReserve@ioChargeFlashJump@@QAE_NXZ ENDP	; ioChargeFlashJump::IsJumpAttackReserve
_TEXT	ENDS
PUBLIC	??A?$vector@VioHashString@@V?$allocator@VioHashString@@@std@@@std@@QAEAAVioHashString@@I@Z ; std::vector<ioHashString,std::allocator<ioHashString> >::operator[]
; Function compile flags: /Ogsp
; File c:\program files (x86)\microsoft visual studio 10.0\vc\include\vector
;	COMDAT ??A?$vector@VioHashString@@V?$allocator@VioHashString@@@std@@@std@@QAEAAVioHashString@@I@Z
_TEXT	SEGMENT
__Pos$ = 8						; size = 4
??A?$vector@VioHashString@@V?$allocator@VioHashString@@@std@@@std@@QAEAAVioHashString@@I@Z PROC ; std::vector<ioHashString,std::allocator<ioHashString> >::operator[], COMDAT
; _this$ = ecx

; 928  : 		{	// subscript mutable sequence

  00000	55		 push	 ebp
  00001	8b ec		 mov	 ebp, esp

; 929  :  #if _ITERATOR_DEBUG_LEVEL == 2
; 930  : 		if (size() <= _Pos)
; 931  : 			{	// report error
; 932  : 			_DEBUG_ERROR("vector subscript out of range");
; 933  : 			_SCL_SECURE_OUT_OF_RANGE;
; 934  : 			}
; 935  : 
; 936  :  #elif _ITERATOR_DEBUG_LEVEL == 1
; 937  : 		_SCL_SECURE_VALIDATE_RANGE(_Pos < size());
; 938  :  #endif /* _ITERATOR_DEBUG_LEVEL */
; 939  : 
; 940  : 		return (*(this->_Myfirst + _Pos));

  00003	8b 45 08	 mov	 eax, DWORD PTR __Pos$[ebp]
  00006	c1 e0 04	 shl	 eax, 4
  00009	03 01		 add	 eax, DWORD PTR [ecx]

; 941  : 		}

  0000b	5d		 pop	 ebp
  0000c	c2 04 00	 ret	 4
??A?$vector@VioHashString@@V?$allocator@VioHashString@@@std@@@std@@QAEAAVioHashString@@I@Z ENDP ; std::vector<ioHashString,std::allocator<ioHashString> >::operator[]
_TEXT	ENDS
PUBLIC	?capacity@?$vector@VioHashString@@V?$allocator@VioHashString@@@std@@@std@@QBEIXZ ; std::vector<ioHashString,std::allocator<ioHashString> >::capacity
; Function compile flags: /Ogsp
;	COMDAT ?capacity@?$vector@VioHashString@@V?$allocator@VioHashString@@@std@@@std@@QBEIXZ
_TEXT	SEGMENT
?capacity@?$vector@VioHashString@@V?$allocator@VioHashString@@@std@@@std@@QBEIXZ PROC ; std::vector<ioHashString,std::allocator<ioHashString> >::capacity, COMDAT
; _this$ = ecx

; 777  : 		return (this->_Myend - this->_Myfirst);

  00000	8b 41 08	 mov	 eax, DWORD PTR [ecx+8]
  00003	2b 01		 sub	 eax, DWORD PTR [ecx]
  00005	c1 f8 04	 sar	 eax, 4

; 778  : 		}

  00008	c3		 ret	 0
?capacity@?$vector@VioHashString@@V?$allocator@VioHashString@@@std@@@std@@QBEIXZ ENDP ; std::vector<ioHashString,std::allocator<ioHashString> >::capacity
_TEXT	ENDS
PUBLIC	?_Inside@?$vector@VioHashString@@V?$allocator@VioHashString@@@std@@@std@@IBE_NPBVioHashString@@@Z ; std::vector<ioHashString,std::allocator<ioHashString> >::_Inside
; Function compile flags: /Ogsp
;	COMDAT ?_Inside@?$vector@VioHashString@@V?$allocator@VioHashString@@@std@@@std@@IBE_NPBVioHashString@@@Z
_TEXT	SEGMENT
__Ptr$ = 8						; size = 4
?_Inside@?$vector@VioHashString@@V?$allocator@VioHashString@@@std@@@std@@IBE_NPBVioHashString@@@Z PROC ; std::vector<ioHashString,std::allocator<ioHashString> >::_Inside, COMDAT
; _this$ = ecx

; 1285 : 		{	// test if _Ptr points inside vector

  00000	55		 push	 ebp
  00001	8b ec		 mov	 ebp, esp

; 1286 : 		return (_Ptr < this->_Mylast && this->_Myfirst <= _Ptr);

  00003	8b 45 08	 mov	 eax, DWORD PTR __Ptr$[ebp]
  00006	3b 41 04	 cmp	 eax, DWORD PTR [ecx+4]
  00009	73 09		 jae	 SHORT $LN3@Inside
  0000b	39 01		 cmp	 DWORD PTR [ecx], eax
  0000d	77 05		 ja	 SHORT $LN3@Inside
  0000f	33 c0		 xor	 eax, eax
  00011	40		 inc	 eax
  00012	eb 02		 jmp	 SHORT $LN4@Inside
$LN3@Inside:
  00014	33 c0		 xor	 eax, eax
$LN4@Inside:

; 1287 : 		}

  00016	5d		 pop	 ebp
  00017	c2 04 00	 ret	 4
?_Inside@?$vector@VioHashString@@V?$allocator@VioHashString@@@std@@@std@@IBE_NPBVioHashString@@@Z ENDP ; std::vector<ioHashString,std::allocator<ioHashString> >::_Inside
_TEXT	ENDS
PUBLIC	?_Orphan_range@?$vector@VioHashString@@V?$allocator@VioHashString@@@std@@@std@@IBEXPAVioHashString@@0@Z ; std::vector<ioHashString,std::allocator<ioHashString> >::_Orphan_range
; Function compile flags: /Ogsp
;	COMDAT ?_Orphan_range@?$vector@VioHashString@@V?$allocator@VioHashString@@@std@@@std@@IBEXPAVioHashString@@0@Z
_TEXT	SEGMENT
___formal$ = 8						; size = 4
___formal$ = 12						; size = 4
?_Orphan_range@?$vector@VioHashString@@V?$allocator@VioHashString@@@std@@@std@@IBEXPAVioHashString@@0@Z PROC ; std::vector<ioHashString,std::allocator<ioHashString> >::_Orphan_range, COMDAT
; _this$ = ecx

; 1454 : 		}

  00000	c2 08 00	 ret	 8
?_Orphan_range@?$vector@VioHashString@@V?$allocator@VioHashString@@@std@@@std@@IBEXPAVioHashString@@0@Z ENDP ; std::vector<ioHashString,std::allocator<ioHashString> >::_Orphan_range
_TEXT	ENDS
PUBLIC	??0D3DXVECTOR3@@QAE@XZ				; D3DXVECTOR3::D3DXVECTOR3
; Function compile flags: /Ogsp
; File c:\program files (x86)\microsoft directx sdk (june 2010)\include\d3dx9math.h
;	COMDAT ??0D3DXVECTOR3@@QAE@XZ
_TEXT	SEGMENT
??0D3DXVECTOR3@@QAE@XZ PROC				; D3DXVECTOR3::D3DXVECTOR3, COMDAT
; _this$ = ecx

; 165  :     D3DXVECTOR3() {};

  00000	8b c1		 mov	 eax, ecx
  00002	c3		 ret	 0
??0D3DXVECTOR3@@QAE@XZ ENDP				; D3DXVECTOR3::D3DXVECTOR3
_TEXT	ENDS
PUBLIC	??0D3DXQUATERNION@@QAE@XZ			; D3DXQUATERNION::D3DXQUATERNION
; Function compile flags: /Ogsp
;	COMDAT ??0D3DXQUATERNION@@QAE@XZ
_TEXT	SEGMENT
??0D3DXQUATERNION@@QAE@XZ PROC				; D3DXQUATERNION::D3DXQUATERNION, COMDAT
; _this$ = ecx

; 429  :     D3DXQUATERNION() {}

  00000	8b c1		 mov	 eax, ecx
  00002	c3		 ret	 0
??0D3DXQUATERNION@@QAE@XZ ENDP				; D3DXQUATERNION::D3DXQUATERNION
_TEXT	ENDS
PUBLIC	??0D3DXVECTOR3@@QAE@MMM@Z			; D3DXVECTOR3::D3DXVECTOR3
; Function compile flags: /Ogsp
; File c:\program files (x86)\microsoft directx sdk (june 2010)\include\d3dx9math.inl
;	COMDAT ??0D3DXVECTOR3@@QAE@MMM@Z
_TEXT	SEGMENT
_fx$ = 8						; size = 4
_fy$ = 12						; size = 4
_fz$ = 16						; size = 4
??0D3DXVECTOR3@@QAE@MMM@Z PROC				; D3DXVECTOR3::D3DXVECTOR3, COMDAT
; _this$ = ecx

; 303  : {

  00000	55		 push	 ebp
  00001	8b ec		 mov	 ebp, esp

; 304  :     x = fx;

  00003	f3 0f 10 45 08	 movss	 xmm0, DWORD PTR _fx$[ebp]
  00008	8b c1		 mov	 eax, ecx
  0000a	f3 0f 11 00	 movss	 DWORD PTR [eax], xmm0

; 305  :     y = fy;

  0000e	f3 0f 10 45 0c	 movss	 xmm0, DWORD PTR _fy$[ebp]
  00013	f3 0f 11 40 04	 movss	 DWORD PTR [eax+4], xmm0

; 306  :     z = fz;

  00018	f3 0f 10 45 10	 movss	 xmm0, DWORD PTR _fz$[ebp]
  0001d	f3 0f 11 40 08	 movss	 DWORD PTR [eax+8], xmm0

; 307  : }

  00022	5d		 pop	 ebp
  00023	c2 0c 00	 ret	 12			; 0000000cH
??0D3DXVECTOR3@@QAE@MMM@Z ENDP				; D3DXVECTOR3::D3DXVECTOR3
_TEXT	ENDS
PUBLIC	__mask@@NegFloat@
PUBLIC	??GD3DXVECTOR3@@QBE?AU0@XZ			; D3DXVECTOR3::operator-
;	COMDAT __mask@@NegFloat@
CONST	SEGMENT
__mask@@NegFloat@ DB 00H, 00H, 00H, 080H, 00H, 00H, 00H, 080H, 00H, 00H, 00H
	DB	080H, 00H, 00H, 00H, 080H
; Function compile flags: /Ogsp
CONST	ENDS
;	COMDAT ??GD3DXVECTOR3@@QBE?AU0@XZ
_TEXT	SEGMENT
___$ReturnUdt$ = 8					; size = 4
??GD3DXVECTOR3@@QBE?AU0@XZ PROC				; D3DXVECTOR3::operator-, COMDAT
; _this$ = ecx

; 372  : {

  00000	55		 push	 ebp
  00001	8b ec		 mov	 ebp, esp

; 373  :     return D3DXVECTOR3(-x, -y, -z);

  00003	f3 0f 10 05 00
	00 00 00	 movss	 xmm0, DWORD PTR __mask@@NegFloat@
  0000b	8b 45 08	 mov	 eax, DWORD PTR ___$ReturnUdt$[ebp]
  0000e	f3 0f 10 09	 movss	 xmm1, DWORD PTR [ecx]
  00012	0f 57 c8	 xorps	 xmm1, xmm0
  00015	f3 0f 11 08	 movss	 DWORD PTR [eax], xmm1
  00019	f3 0f 10 49 04	 movss	 xmm1, DWORD PTR [ecx+4]
  0001e	0f 57 c8	 xorps	 xmm1, xmm0
  00021	f3 0f 11 48 04	 movss	 DWORD PTR [eax+4], xmm1
  00026	f3 0f 10 49 08	 movss	 xmm1, DWORD PTR [ecx+8]
  0002b	0f 57 c8	 xorps	 xmm1, xmm0
  0002e	f3 0f 11 48 08	 movss	 DWORD PTR [eax+8], xmm1

; 374  : }

  00033	5d		 pop	 ebp
  00034	c2 04 00	 ret	 4
??GD3DXVECTOR3@@QBE?AU0@XZ ENDP				; D3DXVECTOR3::operator-
_TEXT	ENDS
PUBLIC	__real@3f91df46a2526c7a
PUBLIC	??$DEGtoRAD@M@@YAMM@Z				; DEGtoRAD<float>
;	COMDAT __real@3f91df46a2526c7a
; File d:\lost saga for developer\youtube\tutorial\source\src\lsclient\veryoftenusedefine.h
CONST	SEGMENT
__real@3f91df46a2526c7a DQ 03f91df46a2526c7ar	; 0.0174533
; Function compile flags: /Ogsp
CONST	ENDS
;	COMDAT ??$DEGtoRAD@M@@YAMM@Z
_TEXT	SEGMENT
tv129 = 8						; size = 4
_val$ = 8						; size = 4
??$DEGtoRAD@M@@YAMM@Z PROC				; DEGtoRAD<float>, COMDAT

; 20   : type  DEGtoRAD (type val) {return (type) (val * 0.0174532925199);}

  00000	55		 push	 ebp
  00001	8b ec		 mov	 ebp, esp
  00003	d9 45 08	 fld	 DWORD PTR _val$[ebp]
  00006	dc 0d 00 00 00
	00		 fmul	 QWORD PTR __real@3f91df46a2526c7a
  0000c	d9 5d 08	 fstp	 DWORD PTR tv129[ebp]
  0000f	d9 45 08	 fld	 DWORD PTR tv129[ebp]
  00012	5d		 pop	 ebp
  00013	c3		 ret	 0
??$DEGtoRAD@M@@YAMM@Z ENDP				; DEGtoRAD<float>
_TEXT	ENDS
PUBLIC	??$addressof@VioHashString@@@std@@YAPAVioHashString@@AAV1@@Z ; std::addressof<ioHashString>
; Function compile flags: /Ogsp
; File c:\program files (x86)\microsoft visual studio 10.0\vc\include\xmemory
;	COMDAT ??$addressof@VioHashString@@@std@@YAPAVioHashString@@AAV1@@Z
_TEXT	SEGMENT
__Val$ = 8						; size = 4
??$addressof@VioHashString@@@std@@YAPAVioHashString@@AAV1@@Z PROC ; std::addressof<ioHashString>, COMDAT

; 110  : 	{	// return address of _Val

  00000	55		 push	 ebp
  00001	8b ec		 mov	 ebp, esp

; 111  : 	return ((_Ty *) &(char&)_Val);

  00003	8b 45 08	 mov	 eax, DWORD PTR __Val$[ebp]

; 112  : 	}

  00006	5d		 pop	 ebp
  00007	c3		 ret	 0
??$addressof@VioHashString@@@std@@YAPAVioHashString@@AAV1@@Z ENDP ; std::addressof<ioHashString>
_TEXT	ENDS
PUBLIC	??$forward@VioHashString@@@std@@YA$$QAVioHashString@@AAV1@@Z ; std::forward<ioHashString>
; Function compile flags: /Ogsp
; File c:\program files (x86)\microsoft visual studio 10.0\vc\include\utility
;	COMDAT ??$forward@VioHashString@@@std@@YA$$QAVioHashString@@AAV1@@Z
_TEXT	SEGMENT
__Arg$ = 8						; size = 4
??$forward@VioHashString@@@std@@YA$$QAVioHashString@@AAV1@@Z PROC ; std::forward<ioHashString>, COMDAT

; 78   : 	{	// forward _Arg, given explicitly specified type parameter

  00000	55		 push	 ebp
  00001	8b ec		 mov	 ebp, esp

; 79   : 	return ((_Ty&&)_Arg);

  00003	8b 45 08	 mov	 eax, DWORD PTR __Arg$[ebp]

; 80   : 	}

  00006	5d		 pop	 ebp
  00007	c3		 ret	 0
??$forward@VioHashString@@@std@@YA$$QAVioHashString@@AAV1@@Z ENDP ; std::forward<ioHashString>
_TEXT	ENDS
PUBLIC	?construct@?$allocator@VioHashString@@@std@@QAEXPAVioHashString@@$$QAV3@@Z ; std::allocator<ioHashString>::construct
EXTRN	__imp_??0ioHashString@@QAE@ABV0@@Z:PROC
EXTRN	___CxxFrameHandler3:PROC
EXTRN	@__security_check_cookie@4:PROC
EXTRN	__EH_epilog3:PROC
EXTRN	__EH_prolog3:PROC
;	COMDAT xdata$x
xdata$x	SEGMENT
__unwindtable$?construct@?$allocator@VioHashString@@@std@@QAEXPAVioHashString@@$$QAV3@@Z DD 0ffffffffH
	DD	FLAT:__unwindfunclet$?construct@?$allocator@VioHashString@@@std@@QAEXPAVioHashString@@$$QAV3@@Z$0
__ehfuncinfo$?construct@?$allocator@VioHashString@@@std@@QAEXPAVioHashString@@$$QAV3@@Z DD 019930522H
	DD	01H
	DD	FLAT:__unwindtable$?construct@?$allocator@VioHashString@@@std@@QAEXPAVioHashString@@$$QAV3@@Z
	DD	2 DUP(00H)
	DD	2 DUP(00H)
	DD	00H
	DD	01H
; Function compile flags: /Ogsp
; File c:\program files (x86)\microsoft visual studio 10.0\vc\include\xmemory
xdata$x	ENDS
;	COMDAT ?construct@?$allocator@VioHashString@@@std@@QAEXPAVioHashString@@$$QAV3@@Z
_TEXT	SEGMENT
$T529217 = -16						; size = 4
__$EHRec$ = -12						; size = 12
__Ptr$ = 8						; size = 4
__Val$ = 12						; size = 4
?construct@?$allocator@VioHashString@@@std@@QAEXPAVioHashString@@$$QAV3@@Z PROC ; std::allocator<ioHashString>::construct, COMDAT
; _this$ = ecx

; 201  : 		{	// construct object at _Ptr with value _Val

  00000	6a 04		 push	 4
  00002	b8 00 00 00 00	 mov	 eax, __ehhandler$?construct@?$allocator@VioHashString@@@std@@QAEXPAVioHashString@@$$QAV3@@Z
  00007	e8 00 00 00 00	 call	 __EH_prolog3

; 202  : 		::new ((void _FARQ *)_Ptr) _Ty(_STD forward<_Ty>(_Val));

  0000c	8b 4d 08	 mov	 ecx, DWORD PTR __Ptr$[ebp]
  0000f	89 4d f0	 mov	 DWORD PTR $T529217[ebp], ecx
  00012	83 65 fc 00	 and	 DWORD PTR __$EHRec$[ebp+8], 0
  00016	85 c9		 test	 ecx, ecx
  00018	74 09		 je	 SHORT $LN3@construct
  0001a	ff 75 0c	 push	 DWORD PTR __Val$[ebp]
  0001d	ff 15 00 00 00
	00		 call	 DWORD PTR __imp_??0ioHashString@@QAE@ABV0@@Z
$LN3@construct:

; 203  : 		}

  00023	e8 00 00 00 00	 call	 __EH_epilog3
  00028	c2 08 00	 ret	 8
_TEXT	ENDS
;	COMDAT text$x
text$x	SEGMENT
__unwindfunclet$?construct@?$allocator@VioHashString@@@std@@QAEXPAVioHashString@@$$QAV3@@Z$0:
  00000	ff 75 08	 push	 DWORD PTR __Ptr$[ebp]
  00003	ff 75 f0	 push	 DWORD PTR $T529217[ebp]
  00006	e8 00 00 00 00	 call	 ??3@YAXPAX0@Z		; operator delete
  0000b	59		 pop	 ecx
  0000c	59		 pop	 ecx
  0000d	c3		 ret	 0
__ehhandler$?construct@?$allocator@VioHashString@@@std@@QAEXPAVioHashString@@$$QAV3@@Z:
  0000e	8b 54 24 08	 mov	 edx, DWORD PTR [esp+8]
  00012	8d 42 0c	 lea	 eax, DWORD PTR [edx+12]
  00015	8b 4a ec	 mov	 ecx, DWORD PTR [edx-20]
  00018	33 c8		 xor	 ecx, eax
  0001a	e8 00 00 00 00	 call	 @__security_check_cookie@4
  0001f	b8 00 00 00 00	 mov	 eax, OFFSET __ehfuncinfo$?construct@?$allocator@VioHashString@@@std@@QAEXPAVioHashString@@$$QAV3@@Z
  00024	e9 00 00 00 00	 jmp	 ___CxxFrameHandler3
text$x	ENDS
?construct@?$allocator@VioHashString@@@std@@QAEXPAVioHashString@@$$QAV3@@Z ENDP ; std::allocator<ioHashString>::construct
PUBLIC	??$_Val_type@PAVioHashString@@@std@@YAPAVioHashString@@PAV1@@Z ; std::_Val_type<ioHashString *>
; Function compile flags: /Ogsp
; File c:\program files (x86)\microsoft visual studio 10.0\vc\include\xutility
;	COMDAT ??$_Val_type@PAVioHashString@@@std@@YAPAVioHashString@@PAV1@@Z
_TEXT	SEGMENT
___formal$ = 8						; size = 4
??$_Val_type@PAVioHashString@@@std@@YAPAVioHashString@@PAV1@@Z PROC ; std::_Val_type<ioHashString *>, COMDAT

; 790  : 	return (0);

  00000	33 c0		 xor	 eax, eax

; 791  : 	}

  00002	c3		 ret	 0
??$_Val_type@PAVioHashString@@@std@@YAPAVioHashString@@PAV1@@Z ENDP ; std::_Val_type<ioHashString *>
_TEXT	ENDS
PUBLIC	??$_Ptr_cat@V?$_Vector_const_iterator@V?$_Vector_val@UWeaponInfo@@V?$allocator@UWeaponInfo@@@std@@@std@@@std@@PAUWeaponInfo@@@std@@YA?AU_Nonscalar_ptr_iterator_tag@0@AAV?$_Vector_const_iterator@V?$_Vector_val@UWeaponInfo@@V?$allocator@UWeaponInfo@@@std@@@std@@@0@AAPAUWeaponInfo@@@Z ; std::_Ptr_cat<std::_Vector_const_iterator<std::_Vector_val<WeaponInfo,std::allocator<WeaponInfo> > >,WeaponInfo *>
; Function compile flags: /Ogsp
;	COMDAT ??$_Ptr_cat@V?$_Vector_const_iterator@V?$_Vector_val@UWeaponInfo@@V?$allocator@UWeaponInfo@@@std@@@std@@@std@@PAUWeaponInfo@@@std@@YA?AU_Nonscalar_ptr_iterator_tag@0@AAV?$_Vector_const_iterator@V?$_Vector_val@UWeaponInfo@@V?$allocator@UWeaponInfo@@@std@@@std@@@0@AAPAUWeaponInfo@@@Z
_TEXT	SEGMENT
__Cat$ = -1						; size = 1
___formal$ = 8						; size = 4
___formal$ = 12						; size = 4
??$_Ptr_cat@V?$_Vector_const_iterator@V?$_Vector_val@UWeaponInfo@@V?$allocator@UWeaponInfo@@@std@@@std@@@std@@PAUWeaponInfo@@@std@@YA?AU_Nonscalar_ptr_iterator_tag@0@AAV?$_Vector_const_iterator@V?$_Vector_val@UWeaponInfo@@V?$allocator@UWeaponInfo@@@std@@@std@@@0@AAPAUWeaponInfo@@@Z PROC ; std::_Ptr_cat<std::_Vector_const_iterator<std::_Vector_val<WeaponInfo,std::allocator<WeaponInfo> > >,WeaponInfo *>, COMDAT

; 485  : 	{	// return pointer category from arbitrary arguments

  00000	55		 push	 ebp
  00001	8b ec		 mov	 ebp, esp
  00003	51		 push	 ecx

; 486  : 	_Nonscalar_ptr_iterator_tag _Cat;
; 487  : 	return (_Cat);

  00004	8a 45 ff	 mov	 al, BYTE PTR __Cat$[ebp]

; 488  : 	}

  00007	c9		 leave
  00008	c3		 ret	 0
??$_Ptr_cat@V?$_Vector_const_iterator@V?$_Vector_val@UWeaponInfo@@V?$allocator@UWeaponInfo@@@std@@@std@@@std@@PAUWeaponInfo@@@std@@YA?AU_Nonscalar_ptr_iterator_tag@0@AAV?$_Vector_const_iterator@V?$_Vector_val@UWeaponInfo@@V?$allocator@UWeaponInfo@@@std@@@std@@@0@AAPAUWeaponInfo@@@Z ENDP ; std::_Ptr_cat<std::_Vector_const_iterator<std::_Vector_val<WeaponInfo,std::allocator<WeaponInfo> > >,WeaponInfo *>
_TEXT	ENDS
PUBLIC	??$_Ptr_cat@V?$_Vector_const_iterator@V?$_Vector_val@UForceInfo@@V?$allocator@UForceInfo@@@std@@@std@@@std@@PAUForceInfo@@@std@@YA?AU_Nonscalar_ptr_iterator_tag@0@AAV?$_Vector_const_iterator@V?$_Vector_val@UForceInfo@@V?$allocator@UForceInfo@@@std@@@std@@@0@AAPAUForceInfo@@@Z ; std::_Ptr_cat<std::_Vector_const_iterator<std::_Vector_val<ForceInfo,std::allocator<ForceInfo> > >,ForceInfo *>
; Function compile flags: /Ogsp
;	COMDAT ??$_Ptr_cat@V?$_Vector_const_iterator@V?$_Vector_val@UForceInfo@@V?$allocator@UForceInfo@@@std@@@std@@@std@@PAUForceInfo@@@std@@YA?AU_Nonscalar_ptr_iterator_tag@0@AAV?$_Vector_const_iterator@V?$_Vector_val@UForceInfo@@V?$allocator@UForceInfo@@@std@@@std@@@0@AAPAUForceInfo@@@Z
_TEXT	SEGMENT
__Cat$ = -1						; size = 1
___formal$ = 8						; size = 4
___formal$ = 12						; size = 4
??$_Ptr_cat@V?$_Vector_const_iterator@V?$_Vector_val@UForceInfo@@V?$allocator@UForceInfo@@@std@@@std@@@std@@PAUForceInfo@@@std@@YA?AU_Nonscalar_ptr_iterator_tag@0@AAV?$_Vector_const_iterator@V?$_Vector_val@UForceInfo@@V?$allocator@UForceInfo@@@std@@@std@@@0@AAPAUForceInfo@@@Z PROC ; std::_Ptr_cat<std::_Vector_const_iterator<std::_Vector_val<ForceInfo,std::allocator<ForceInfo> > >,ForceInfo *>, COMDAT

; 485  : 	{	// return pointer category from arbitrary arguments

  00000	55		 push	 ebp
  00001	8b ec		 mov	 ebp, esp
  00003	51		 push	 ecx

; 486  : 	_Nonscalar_ptr_iterator_tag _Cat;
; 487  : 	return (_Cat);

  00004	8a 45 ff	 mov	 al, BYTE PTR __Cat$[ebp]

; 488  : 	}

  00007	c9		 leave
  00008	c3		 ret	 0
??$_Ptr_cat@V?$_Vector_const_iterator@V?$_Vector_val@UForceInfo@@V?$allocator@UForceInfo@@@std@@@std@@@std@@PAUForceInfo@@@std@@YA?AU_Nonscalar_ptr_iterator_tag@0@AAV?$_Vector_const_iterator@V?$_Vector_val@UForceInfo@@V?$allocator@UForceInfo@@@std@@@std@@@0@AAPAUForceInfo@@@Z ENDP ; std::_Ptr_cat<std::_Vector_const_iterator<std::_Vector_val<ForceInfo,std::allocator<ForceInfo> > >,ForceInfo *>
_TEXT	ENDS
PUBLIC	??D?$_Vector_const_iterator@V?$_Vector_val@UWeaponInfo@@V?$allocator@UWeaponInfo@@@std@@@std@@@std@@QBEABUWeaponInfo@@XZ ; std::_Vector_const_iterator<std::_Vector_val<WeaponInfo,std::allocator<WeaponInfo> > >::operator*
; Function compile flags: /Ogsp
; File c:\program files (x86)\microsoft visual studio 10.0\vc\include\vector
;	COMDAT ??D?$_Vector_const_iterator@V?$_Vector_val@UWeaponInfo@@V?$allocator@UWeaponInfo@@@std@@@std@@@std@@QBEABUWeaponInfo@@XZ
_TEXT	SEGMENT
??D?$_Vector_const_iterator@V?$_Vector_val@UWeaponInfo@@V?$allocator@UWeaponInfo@@@std@@@std@@@std@@QBEABUWeaponInfo@@XZ PROC ; std::_Vector_const_iterator<std::_Vector_val<WeaponInfo,std::allocator<WeaponInfo> > >::operator*, COMDAT
; _this$ = ecx

; 64   :  #if _ITERATOR_DEBUG_LEVEL == 2
; 65   : 		if (this->_Getcont() == 0
; 66   : 			|| this->_Ptr == 0
; 67   : 			|| this->_Ptr < ((_Myvec *)this->_Getcont())->_Myfirst
; 68   : 			|| ((_Myvec *)this->_Getcont())->_Mylast <= this->_Ptr)
; 69   : 			{	// report error
; 70   : 			_DEBUG_ERROR("vector iterator not dereferencable");
; 71   : 			_SCL_SECURE_OUT_OF_RANGE;
; 72   : 			}
; 73   : 
; 74   :  #elif _ITERATOR_DEBUG_LEVEL == 1
; 75   : 		_SCL_SECURE_VALIDATE(this->_Getcont() != 0);
; 76   : 		_SCL_SECURE_VALIDATE_RANGE(
; 77   : 			this->_Ptr != 0
; 78   : 			&& ((_Myvec *)this->_Getcont())->_Myfirst <= this->_Ptr
; 79   : 			&& this->_Ptr < ((_Myvec *)this->_Getcont())->_Mylast);
; 80   :  #endif /* _ITERATOR_DEBUG_LEVEL */
; 81   : 
; 82   : 		__analysis_assume(this->_Ptr != 0);
; 83   : 
; 84   : 		return (*this->_Ptr);

  00000	8b 01		 mov	 eax, DWORD PTR [ecx]

; 85   : 		}

  00002	c3		 ret	 0
??D?$_Vector_const_iterator@V?$_Vector_val@UWeaponInfo@@V?$allocator@UWeaponInfo@@@std@@@std@@@std@@QBEABUWeaponInfo@@XZ ENDP ; std::_Vector_const_iterator<std::_Vector_val<WeaponInfo,std::allocator<WeaponInfo> > >::operator*
_TEXT	ENDS
PUBLIC	??E?$_Vector_const_iterator@V?$_Vector_val@UWeaponInfo@@V?$allocator@UWeaponInfo@@@std@@@std@@@std@@QAEAAV01@XZ ; std::_Vector_const_iterator<std::_Vector_val<WeaponInfo,std::allocator<WeaponInfo> > >::operator++
; Function compile flags: /Ogsp
;	COMDAT ??E?$_Vector_const_iterator@V?$_Vector_val@UWeaponInfo@@V?$allocator@UWeaponInfo@@@std@@@std@@@std@@QAEAAV01@XZ
_TEXT	SEGMENT
??E?$_Vector_const_iterator@V?$_Vector_val@UWeaponInfo@@V?$allocator@UWeaponInfo@@@std@@@std@@@std@@QAEAAV01@XZ PROC ; std::_Vector_const_iterator<std::_Vector_val<WeaponInfo,std::allocator<WeaponInfo> > >::operator++, COMDAT
; _this$ = ecx

; 93   : 		{	// preincrement

  00000	8b c1		 mov	 eax, ecx

; 94   :  #if _ITERATOR_DEBUG_LEVEL == 2
; 95   : 		if (this->_Getcont() == 0
; 96   : 			|| this->_Ptr == 0
; 97   : 			|| ((_Myvec *)this->_Getcont())->_Mylast <= this->_Ptr)
; 98   : 			{	// report error
; 99   : 			_DEBUG_ERROR("vector iterator not incrementable");
; 100  : 			_SCL_SECURE_OUT_OF_RANGE;
; 101  : 			}
; 102  : 
; 103  :  #elif _ITERATOR_DEBUG_LEVEL == 1
; 104  : 		_SCL_SECURE_VALIDATE(this->_Getcont() != 0);
; 105  : 		_SCL_SECURE_VALIDATE_RANGE(
; 106  : 			this->_Ptr != 0
; 107  : 			&& this->_Ptr < ((_Myvec *)this->_Getcont())->_Mylast);
; 108  :  #endif /* _ITERATOR_DEBUG_LEVEL */
; 109  : 
; 110  : 		++this->_Ptr;

  00002	83 00 28	 add	 DWORD PTR [eax], 40	; 00000028H

; 111  : 		return (*this);
; 112  : 		}

  00005	c3		 ret	 0
??E?$_Vector_const_iterator@V?$_Vector_val@UWeaponInfo@@V?$allocator@UWeaponInfo@@@std@@@std@@@std@@QAEAAV01@XZ ENDP ; std::_Vector_const_iterator<std::_Vector_val<WeaponInfo,std::allocator<WeaponInfo> > >::operator++
_TEXT	ENDS
PUBLIC	??D?$_Vector_const_iterator@V?$_Vector_val@UForceInfo@@V?$allocator@UForceInfo@@@std@@@std@@@std@@QBEABUForceInfo@@XZ ; std::_Vector_const_iterator<std::_Vector_val<ForceInfo,std::allocator<ForceInfo> > >::operator*
; Function compile flags: /Ogsp
;	COMDAT ??D?$_Vector_const_iterator@V?$_Vector_val@UForceInfo@@V?$allocator@UForceInfo@@@std@@@std@@@std@@QBEABUForceInfo@@XZ
_TEXT	SEGMENT
??D?$_Vector_const_iterator@V?$_Vector_val@UForceInfo@@V?$allocator@UForceInfo@@@std@@@std@@@std@@QBEABUForceInfo@@XZ PROC ; std::_Vector_const_iterator<std::_Vector_val<ForceInfo,std::allocator<ForceInfo> > >::operator*, COMDAT
; _this$ = ecx

; 64   :  #if _ITERATOR_DEBUG_LEVEL == 2
; 65   : 		if (this->_Getcont() == 0
; 66   : 			|| this->_Ptr == 0
; 67   : 			|| this->_Ptr < ((_Myvec *)this->_Getcont())->_Myfirst
; 68   : 			|| ((_Myvec *)this->_Getcont())->_Mylast <= this->_Ptr)
; 69   : 			{	// report error
; 70   : 			_DEBUG_ERROR("vector iterator not dereferencable");
; 71   : 			_SCL_SECURE_OUT_OF_RANGE;
; 72   : 			}
; 73   : 
; 74   :  #elif _ITERATOR_DEBUG_LEVEL == 1
; 75   : 		_SCL_SECURE_VALIDATE(this->_Getcont() != 0);
; 76   : 		_SCL_SECURE_VALIDATE_RANGE(
; 77   : 			this->_Ptr != 0
; 78   : 			&& ((_Myvec *)this->_Getcont())->_Myfirst <= this->_Ptr
; 79   : 			&& this->_Ptr < ((_Myvec *)this->_Getcont())->_Mylast);
; 80   :  #endif /* _ITERATOR_DEBUG_LEVEL */
; 81   : 
; 82   : 		__analysis_assume(this->_Ptr != 0);
; 83   : 
; 84   : 		return (*this->_Ptr);

  00000	8b 01		 mov	 eax, DWORD PTR [ecx]

; 85   : 		}

  00002	c3		 ret	 0
??D?$_Vector_const_iterator@V?$_Vector_val@UForceInfo@@V?$allocator@UForceInfo@@@std@@@std@@@std@@QBEABUForceInfo@@XZ ENDP ; std::_Vector_const_iterator<std::_Vector_val<ForceInfo,std::allocator<ForceInfo> > >::operator*
_TEXT	ENDS
PUBLIC	??E?$_Vector_const_iterator@V?$_Vector_val@UForceInfo@@V?$allocator@UForceInfo@@@std@@@std@@@std@@QAEAAV01@XZ ; std::_Vector_const_iterator<std::_Vector_val<ForceInfo,std::allocator<ForceInfo> > >::operator++
; Function compile flags: /Ogsp
;	COMDAT ??E?$_Vector_const_iterator@V?$_Vector_val@UForceInfo@@V?$allocator@UForceInfo@@@std@@@std@@@std@@QAEAAV01@XZ
_TEXT	SEGMENT
??E?$_Vector_const_iterator@V?$_Vector_val@UForceInfo@@V?$allocator@UForceInfo@@@std@@@std@@@std@@QAEAAV01@XZ PROC ; std::_Vector_const_iterator<std::_Vector_val<ForceInfo,std::allocator<ForceInfo> > >::operator++, COMDAT
; _this$ = ecx

; 93   : 		{	// preincrement

  00000	8b c1		 mov	 eax, ecx

; 94   :  #if _ITERATOR_DEBUG_LEVEL == 2
; 95   : 		if (this->_Getcont() == 0
; 96   : 			|| this->_Ptr == 0
; 97   : 			|| ((_Myvec *)this->_Getcont())->_Mylast <= this->_Ptr)
; 98   : 			{	// report error
; 99   : 			_DEBUG_ERROR("vector iterator not incrementable");
; 100  : 			_SCL_SECURE_OUT_OF_RANGE;
; 101  : 			}
; 102  : 
; 103  :  #elif _ITERATOR_DEBUG_LEVEL == 1
; 104  : 		_SCL_SECURE_VALIDATE(this->_Getcont() != 0);
; 105  : 		_SCL_SECURE_VALIDATE_RANGE(
; 106  : 			this->_Ptr != 0
; 107  : 			&& this->_Ptr < ((_Myvec *)this->_Getcont())->_Mylast);
; 108  :  #endif /* _ITERATOR_DEBUG_LEVEL */
; 109  : 
; 110  : 		++this->_Ptr;

  00002	83 00 0c	 add	 DWORD PTR [eax], 12	; 0000000cH

; 111  : 		return (*this);
; 112  : 		}

  00005	c3		 ret	 0
??E?$_Vector_const_iterator@V?$_Vector_val@UForceInfo@@V?$allocator@UForceInfo@@@std@@@std@@@std@@QAEAAV01@XZ ENDP ; std::_Vector_const_iterator<std::_Vector_val<ForceInfo,std::allocator<ForceInfo> > >::operator++
_TEXT	ENDS
PUBLIC	??$forward@ABUWeaponInfo@@@std@@YAABUWeaponInfo@@ABU1@@Z ; std::forward<WeaponInfo const &>
; Function compile flags: /Ogsp
; File c:\program files (x86)\microsoft visual studio 10.0\vc\include\utility
;	COMDAT ??$forward@ABUWeaponInfo@@@std@@YAABUWeaponInfo@@ABU1@@Z
_TEXT	SEGMENT
__Arg$ = 8						; size = 4
??$forward@ABUWeaponInfo@@@std@@YAABUWeaponInfo@@ABU1@@Z PROC ; std::forward<WeaponInfo const &>, COMDAT

; 78   : 	{	// forward _Arg, given explicitly specified type parameter

  00000	55		 push	 ebp
  00001	8b ec		 mov	 ebp, esp

; 79   : 	return ((_Ty&&)_Arg);

  00003	8b 45 08	 mov	 eax, DWORD PTR __Arg$[ebp]

; 80   : 	}

  00006	5d		 pop	 ebp
  00007	c3		 ret	 0
??$forward@ABUWeaponInfo@@@std@@YAABUWeaponInfo@@ABU1@@Z ENDP ; std::forward<WeaponInfo const &>
_TEXT	ENDS
PUBLIC	??$forward@ABUForceInfo@@@std@@YAABUForceInfo@@ABU1@@Z ; std::forward<ForceInfo const &>
; Function compile flags: /Ogsp
;	COMDAT ??$forward@ABUForceInfo@@@std@@YAABUForceInfo@@ABU1@@Z
_TEXT	SEGMENT
__Arg$ = 8						; size = 4
??$forward@ABUForceInfo@@@std@@YAABUForceInfo@@ABU1@@Z PROC ; std::forward<ForceInfo const &>, COMDAT

; 78   : 	{	// forward _Arg, given explicitly specified type parameter

  00000	55		 push	 ebp
  00001	8b ec		 mov	 ebp, esp

; 79   : 	return ((_Ty&&)_Arg);

  00003	8b 45 08	 mov	 eax, DWORD PTR __Arg$[ebp]

; 80   : 	}

  00006	5d		 pop	 ebp
  00007	c3		 ret	 0
??$forward@ABUForceInfo@@@std@@YAABUForceInfo@@ABU1@@Z ENDP ; std::forward<ForceInfo const &>
_TEXT	ENDS
PUBLIC	??$_Construct@UForceInfo@@ABU1@@std@@YAXPAUForceInfo@@ABU1@@Z ; std::_Construct<ForceInfo,ForceInfo const &>
; Function compile flags: /Ogsp
; File c:\program files (x86)\microsoft visual studio 10.0\vc\include\xmemory
;	COMDAT ??$_Construct@UForceInfo@@ABU1@@std@@YAXPAUForceInfo@@ABU1@@Z
_TEXT	SEGMENT
__Ptr$ = 8						; size = 4
__Val$ = 12						; size = 4
??$_Construct@UForceInfo@@ABU1@@std@@YAXPAUForceInfo@@ABU1@@Z PROC ; std::_Construct<ForceInfo,ForceInfo const &>, COMDAT

; 46   : 	{	// construct object at _Ptr with value _Val

  00000	55		 push	 ebp
  00001	8b ec		 mov	 ebp, esp
  00003	57		 push	 edi

; 47   : 	void _FARQ *_Vptr = _Ptr;
; 48   : 	::new (_Vptr) _Ty1(_STD forward<_Ty2>(_Val));

  00004	8b 7d 08	 mov	 edi, DWORD PTR __Ptr$[ebp]
  00007	85 ff		 test	 edi, edi
  00009	74 08		 je	 SHORT $LN3@Construct
  0000b	56		 push	 esi
  0000c	8b 75 0c	 mov	 esi, DWORD PTR __Val$[ebp]
  0000f	a5		 movsd
  00010	a5		 movsd
  00011	a5		 movsd
  00012	5e		 pop	 esi
$LN3@Construct:
  00013	5f		 pop	 edi

; 49   : 	}

  00014	5d		 pop	 ebp
  00015	c3		 ret	 0
??$_Construct@UForceInfo@@ABU1@@std@@YAXPAUForceInfo@@ABU1@@Z ENDP ; std::_Construct<ForceInfo,ForceInfo const &>
_TEXT	ENDS
PUBLIC	?_DECSTR@@YAXPADH@Z				; _DECSTR
; Function compile flags: /Ogsp
; File d:\lost saga for developer\youtube\tutorial\source\src\lsclient\stringprotect.h
;	COMDAT ?_DECSTR@@YAXPADH@Z
_TEXT	SEGMENT
_s$ = 8							; size = 4
_l$ = 12						; size = 4
?_DECSTR@@YAXPADH@Z PROC				; _DECSTR, COMDAT

; 40   : __forceinline void _DECSTR(char* s, int l){int i=0,l4=(l-1)/4,*p=(int*)s;s[l-1]=0;for(;i<l4;++i)*(p++)^=0xEAEBECED;for(i=l4*4;i<l-1;++i)s[i]^=0xED-i%4;}

  00000	55		 push	 ebp
  00001	8b ec		 mov	 ebp, esp
  00003	8b 4d 0c	 mov	 ecx, DWORD PTR _l$[ebp]
  00006	56		 push	 esi
  00007	8b 75 08	 mov	 esi, DWORD PTR _s$[ebp]
  0000a	57		 push	 edi
  0000b	8d 79 ff	 lea	 edi, DWORD PTR [ecx-1]
  0000e	8b c7		 mov	 eax, edi
  00010	99		 cdq
  00011	83 e2 03	 and	 edx, 3
  00014	03 c2		 add	 eax, edx
  00016	c1 f8 02	 sar	 eax, 2
  00019	8b d6		 mov	 edx, esi
  0001b	c6 44 0e ff 00	 mov	 BYTE PTR [esi+ecx-1], 0
  00020	85 c0		 test	 eax, eax
  00022	7e 0e		 jle	 SHORT $LN4@DECSTR
  00024	8b c8		 mov	 ecx, eax
$LL6@DECSTR:
  00026	81 32 ed ec eb
	ea		 xor	 DWORD PTR [edx], -353637139 ; eaebecedH
  0002c	83 c2 04	 add	 edx, 4
  0002f	49		 dec	 ecx
  00030	75 f4		 jne	 SHORT $LL6@DECSTR
$LN4@DECSTR:
  00032	c1 e0 02	 shl	 eax, 2
  00035	eb 17		 jmp	 SHORT $LN14@DECSTR
$LL3@DECSTR:
  00037	8b c8		 mov	 ecx, eax
  00039	81 e1 03 00 00
	80		 and	 ecx, -2147483645	; 80000003H
  0003f	79 05		 jns	 SHORT $LN13@DECSTR
  00041	49		 dec	 ecx
  00042	83 c9 fc	 or	 ecx, -4			; fffffffcH
  00045	41		 inc	 ecx
$LN13@DECSTR:
  00046	b2 ed		 mov	 dl, -19			; ffffffedH
  00048	2a d1		 sub	 dl, cl
  0004a	30 14 30	 xor	 BYTE PTR [eax+esi], dl
  0004d	40		 inc	 eax
$LN14@DECSTR:
  0004e	3b c7		 cmp	 eax, edi
  00050	7c e5		 jl	 SHORT $LL3@DECSTR
  00052	5f		 pop	 edi
  00053	5e		 pop	 esi
  00054	5d		 pop	 ebp
  00055	c3		 ret	 0
?_DECSTR@@YAXPADH@Z ENDP				; _DECSTR
_TEXT	ENDS
PUBLIC	?return57@@YAIXZ				; return57
; Function compile flags: /Ogsp
; File d:\lost saga for developer\youtube\tutorial\source\src\lsclient\veryoftenusedefine.h
;	COMDAT ?return57@@YAIXZ
_TEXT	SEGMENT
?return57@@YAIXZ PROC					; return57, COMDAT

; 15   : __forceinline unsigned int return57() { __asm mov eax, 57 };

  00000	b8 39 00 00 00	 mov	 eax, 57			; 00000039H
  00005	c3		 ret	 0
?return57@@YAIXZ ENDP					; return57
_TEXT	ENDS
PUBLIC	?GetGroup@ioGameEntity@@QBEPAVioEntityGroup@@XZ	; ioGameEntity::GetGroup
; Function compile flags: /Ogsp
; File d:\lost saga for developer\youtube\tutorial\source\src\lsclient\iogameentity.h
;	COMDAT ?GetGroup@ioGameEntity@@QBEPAVioEntityGroup@@XZ
_TEXT	SEGMENT
?GetGroup@ioGameEntity@@QBEPAVioEntityGroup@@XZ PROC	; ioGameEntity::GetGroup, COMDAT
; _this$ = ecx

; 166  : 	inline ioEntityGroup* GetGroup() const { return m_pGroup; }

  00000	8b 41 04	 mov	 eax, DWORD PTR [ecx+4]
  00003	c3		 ret	 0
?GetGroup@ioGameEntity@@QBEPAVioEntityGroup@@XZ ENDP	; ioGameEntity::GetGroup
_TEXT	ENDS
PUBLIC	??1WeaponInfo@@QAE@XZ				; WeaponInfo::~WeaponInfo
EXTRN	__imp_??1ioHashString@@QAE@XZ:PROC
; Function compile flags: /Ogsp
;	COMDAT ??1WeaponInfo@@QAE@XZ
_TEXT	SEGMENT
??1WeaponInfo@@QAE@XZ PROC				; WeaponInfo::~WeaponInfo, COMDAT
; _this$ = ecx
  00000	83 c1 08	 add	 ecx, 8
  00003	ff 25 00 00 00
	00		 jmp	 DWORD PTR __imp_??1ioHashString@@QAE@XZ
??1WeaponInfo@@QAE@XZ ENDP				; WeaponInfo::~WeaponInfo
_TEXT	ENDS
PUBLIC	?GetHP@ioPlayEntity@@QAEAAUStatusValue@@XZ	; ioPlayEntity::GetHP
; Function compile flags: /Ogsp
; File d:\lost saga for developer\youtube\tutorial\source\src\lsclient\ioplayentity.h
;	COMDAT ?GetHP@ioPlayEntity@@QAEAAUStatusValue@@XZ
_TEXT	SEGMENT
?GetHP@ioPlayEntity@@QAEAAUStatusValue@@XZ PROC		; ioPlayEntity::GetHP, COMDAT
; _this$ = ecx

; 96   : 	inline StatusValue& GetHP() { return m_HP; }

  00000	8d 81 c0 00 00
	00		 lea	 eax, DWORD PTR [ecx+192]
  00006	c3		 ret	 0
?GetHP@ioPlayEntity@@QAEAAUStatusValue@@XZ ENDP		; ioPlayEntity::GetHP
_TEXT	ENDS
PUBLIC	?size@?$vector@VioHashString@@V?$allocator@VioHashString@@@std@@@std@@QBEIXZ ; std::vector<ioHashString,std::allocator<ioHashString> >::size
; Function compile flags: /Ogsp
; File c:\program files (x86)\microsoft visual studio 10.0\vc\include\vector
;	COMDAT ?size@?$vector@VioHashString@@V?$allocator@VioHashString@@@std@@@std@@QBEIXZ
_TEXT	SEGMENT
?size@?$vector@VioHashString@@V?$allocator@VioHashString@@@std@@@std@@QBEIXZ PROC ; std::vector<ioHashString,std::allocator<ioHashString> >::size, COMDAT
; _this$ = ecx

; 879  : 		return (this->_Mylast - this->_Myfirst);

  00000	8b 41 04	 mov	 eax, DWORD PTR [ecx+4]
  00003	2b 01		 sub	 eax, DWORD PTR [ecx]
  00005	c1 f8 04	 sar	 eax, 4

; 880  : 		}

  00008	c3		 ret	 0
?size@?$vector@VioHashString@@V?$allocator@VioHashString@@@std@@@std@@QBEIXZ ENDP ; std::vector<ioHashString,std::allocator<ioHashString> >::size
_TEXT	ENDS
PUBLIC	??_7?$CEncrypt@M@@6B@				; CEncrypt<float>::`vftable'
PUBLIC	??1?$CEncrypt@M@@UAE@XZ				; CEncrypt<float>::~CEncrypt<float>
PUBLIC	??_R4?$CEncrypt@M@@6B@				; CEncrypt<float>::`RTTI Complete Object Locator'
PUBLIC	??_R0?AV?$CEncrypt@M@@@8			; CEncrypt<float> `RTTI Type Descriptor'
PUBLIC	??_R3?$CEncrypt@M@@8				; CEncrypt<float>::`RTTI Class Hierarchy Descriptor'
PUBLIC	??_R2?$CEncrypt@M@@8				; CEncrypt<float>::`RTTI Base Class Array'
PUBLIC	??_R1A@?0A@EA@?$CEncrypt@M@@8			; CEncrypt<float>::`RTTI Base Class Descriptor at (0,-1,0,64)'
EXTRN	??1ccddaabb@@UAE@XZ:PROC			; ccddaabb::~ccddaabb
EXTRN	??_E?$CEncrypt@M@@UAEPAXI@Z:PROC		; CEncrypt<float>::`vector deleting destructor'
;	COMDAT ??_R1A@?0A@EA@?$CEncrypt@M@@8
; File d:\lost saga for developer\youtube\tutorial\source\src\lsclient\encryptvalue.h
rdata$r	SEGMENT
??_R1A@?0A@EA@?$CEncrypt@M@@8 DD FLAT:??_R0?AV?$CEncrypt@M@@@8 ; CEncrypt<float>::`RTTI Base Class Descriptor at (0,-1,0,64)'
	DD	00H
	DD	00H
	DD	0ffffffffH
	DD	00H
	DD	040H
	DD	FLAT:??_R3?$CEncrypt@M@@8
rdata$r	ENDS
;	COMDAT ??_R2?$CEncrypt@M@@8
rdata$r	SEGMENT
??_R2?$CEncrypt@M@@8 DD FLAT:??_R1A@?0A@EA@?$CEncrypt@M@@8 ; CEncrypt<float>::`RTTI Base Class Array'
rdata$r	ENDS
;	COMDAT ??_R3?$CEncrypt@M@@8
rdata$r	SEGMENT
??_R3?$CEncrypt@M@@8 DD 00H				; CEncrypt<float>::`RTTI Class Hierarchy Descriptor'
	DD	00H
	DD	01H
	DD	FLAT:??_R2?$CEncrypt@M@@8
rdata$r	ENDS
;	COMDAT ??_R0?AV?$CEncrypt@M@@@8
_DATA	SEGMENT
??_R0?AV?$CEncrypt@M@@@8 DD FLAT:??_7type_info@@6B@	; CEncrypt<float> `RTTI Type Descriptor'
	DD	00H
	DB	'.?AV?$CEncrypt@M@@', 00H
_DATA	ENDS
;	COMDAT ??_R4?$CEncrypt@M@@6B@
rdata$r	SEGMENT
??_R4?$CEncrypt@M@@6B@ DD 00H				; CEncrypt<float>::`RTTI Complete Object Locator'
	DD	00H
	DD	00H
	DD	FLAT:??_R0?AV?$CEncrypt@M@@@8
	DD	FLAT:??_R3?$CEncrypt@M@@8
rdata$r	ENDS
;	COMDAT ??_7?$CEncrypt@M@@6B@
CONST	SEGMENT
??_7?$CEncrypt@M@@6B@ DD FLAT:??_R4?$CEncrypt@M@@6B@	; CEncrypt<float>::`vftable'
	DD	FLAT:??_E?$CEncrypt@M@@UAEPAXI@Z
; Function compile flags: /Ogsp
CONST	ENDS
;	COMDAT ??1?$CEncrypt@M@@UAE@XZ
_TEXT	SEGMENT
??1?$CEncrypt@M@@UAE@XZ PROC				; CEncrypt<float>::~CEncrypt<float>, COMDAT
; _this$ = ecx

; 127  : 	{

  00000	c7 01 00 00 00
	00		 mov	 DWORD PTR [ecx], OFFSET ??_7?$CEncrypt@M@@6B@

; 128  : 	}

  00006	83 c1 0c	 add	 ecx, 12			; 0000000cH
  00009	e9 00 00 00 00	 jmp	 ??1ccddaabb@@UAE@XZ	; ccddaabb::~ccddaabb
??1?$CEncrypt@M@@UAE@XZ ENDP				; CEncrypt<float>::~CEncrypt<float>
; Function compile flags: /Ogsp
_TEXT	ENDS
;	COMDAT ??_G?$CEncrypt@M@@UAEPAXI@Z
_TEXT	SEGMENT
___flags$ = 8						; size = 4
??_G?$CEncrypt@M@@UAEPAXI@Z PROC			; CEncrypt<float>::`scalar deleting destructor', COMDAT
; _this$ = ecx
  00000	55		 push	 ebp
  00001	8b ec		 mov	 ebp, esp
  00003	56		 push	 esi
  00004	8b f1		 mov	 esi, ecx
  00006	8d 4e 0c	 lea	 ecx, DWORD PTR [esi+12]
  00009	c7 06 00 00 00
	00		 mov	 DWORD PTR [esi], OFFSET ??_7?$CEncrypt@M@@6B@
  0000f	e8 00 00 00 00	 call	 ??1ccddaabb@@UAE@XZ	; ccddaabb::~ccddaabb
  00014	f6 45 08 01	 test	 BYTE PTR ___flags$[ebp], 1
  00018	74 07		 je	 SHORT $LN1@scalar@2
  0001a	56		 push	 esi
  0001b	e8 00 00 00 00	 call	 ??3@YAXPAX@Z		; operator delete
  00020	59		 pop	 ecx
$LN1@scalar@2:
  00021	8b c6		 mov	 eax, esi
  00023	5e		 pop	 esi
  00024	5d		 pop	 ebp
  00025	c2 04 00	 ret	 4
??_G?$CEncrypt@M@@UAEPAXI@Z ENDP			; CEncrypt<float>::`scalar deleting destructor'
_TEXT	ENDS
PUBLIC	??1?$_Vector_val@VioHashString@@V?$allocator@VioHashString@@@std@@@std@@QAE@XZ ; std::_Vector_val<ioHashString,std::allocator<ioHashString> >::~_Vector_val<ioHashString,std::allocator<ioHashString> >
; Function compile flags: /Ogsp
; File c:\program files (x86)\microsoft visual studio 10.0\vc\include\vector
;	COMDAT ??1?$_Vector_val@VioHashString@@V?$allocator@VioHashString@@@std@@@std@@QAE@XZ
_TEXT	SEGMENT
??1?$_Vector_val@VioHashString@@V?$allocator@VioHashString@@@std@@@std@@QAE@XZ PROC ; std::_Vector_val<ioHashString,std::allocator<ioHashString> >::~_Vector_val<ioHashString,std::allocator<ioHashString> >, COMDAT
; _this$ = ecx

; 434  : 		}

  00000	c3		 ret	 0
??1?$_Vector_val@VioHashString@@V?$allocator@VioHashString@@@std@@@std@@QAE@XZ ENDP ; std::_Vector_val<ioHashString,std::allocator<ioHashString> >::~_Vector_val<ioHashString,std::allocator<ioHashString> >
_TEXT	ENDS
PUBLIC	??0?$allocator@VioHashString@@@std@@QAE@XZ	; std::allocator<ioHashString>::allocator<ioHashString>
; Function compile flags: /Ogsp
; File c:\program files (x86)\microsoft visual studio 10.0\vc\include\xmemory
;	COMDAT ??0?$allocator@VioHashString@@@std@@QAE@XZ
_TEXT	SEGMENT
??0?$allocator@VioHashString@@@std@@QAE@XZ PROC		; std::allocator<ioHashString>::allocator<ioHashString>, COMDAT
; _this$ = ecx

; 161  : 	_ALLOCATOR() _THROW0()

  00000	8b c1		 mov	 eax, ecx

; 162  : 		{	// construct default allocator (do nothing)
; 163  : 		}

  00002	c3		 ret	 0
??0?$allocator@VioHashString@@@std@@QAE@XZ ENDP		; std::allocator<ioHashString>::allocator<ioHashString>
_TEXT	ENDS
PUBLIC	??0?$allocator@VioHashString@@@std@@QAE@ABV01@@Z ; std::allocator<ioHashString>::allocator<ioHashString>
; Function compile flags: /Ogsp
;	COMDAT ??0?$allocator@VioHashString@@@std@@QAE@ABV01@@Z
_TEXT	SEGMENT
___formal$ = 8						; size = 4
??0?$allocator@VioHashString@@@std@@QAE@ABV01@@Z PROC	; std::allocator<ioHashString>::allocator<ioHashString>, COMDAT
; _this$ = ecx

; 165  : 	_ALLOCATOR(const _ALLOCATOR<_Ty>&) _THROW0()

  00000	8b c1		 mov	 eax, ecx

; 166  : 		{	// construct by copying (do nothing)
; 167  : 		}

  00002	c2 04 00	 ret	 4
??0?$allocator@VioHashString@@@std@@QAE@ABV01@@Z ENDP	; std::allocator<ioHashString>::allocator<ioHashString>
_TEXT	ENDS
PUBLIC	??1?$_Vector_val@UWeaponInfo@@V?$allocator@UWeaponInfo@@@std@@@std@@QAE@XZ ; std::_Vector_val<WeaponInfo,std::allocator<WeaponInfo> >::~_Vector_val<WeaponInfo,std::allocator<WeaponInfo> >
; Function compile flags: /Ogsp
; File c:\program files (x86)\microsoft visual studio 10.0\vc\include\vector
;	COMDAT ??1?$_Vector_val@UWeaponInfo@@V?$allocator@UWeaponInfo@@@std@@@std@@QAE@XZ
_TEXT	SEGMENT
??1?$_Vector_val@UWeaponInfo@@V?$allocator@UWeaponInfo@@@std@@@std@@QAE@XZ PROC ; std::_Vector_val<WeaponInfo,std::allocator<WeaponInfo> >::~_Vector_val<WeaponInfo,std::allocator<WeaponInfo> >, COMDAT
; _this$ = ecx

; 434  : 		}

  00000	c3		 ret	 0
??1?$_Vector_val@UWeaponInfo@@V?$allocator@UWeaponInfo@@@std@@@std@@QAE@XZ ENDP ; std::_Vector_val<WeaponInfo,std::allocator<WeaponInfo> >::~_Vector_val<WeaponInfo,std::allocator<WeaponInfo> >
_TEXT	ENDS
PUBLIC	??0?$allocator@UWeaponInfo@@@std@@QAE@XZ	; std::allocator<WeaponInfo>::allocator<WeaponInfo>
; Function compile flags: /Ogsp
; File c:\program files (x86)\microsoft visual studio 10.0\vc\include\xmemory
;	COMDAT ??0?$allocator@UWeaponInfo@@@std@@QAE@XZ
_TEXT	SEGMENT
??0?$allocator@UWeaponInfo@@@std@@QAE@XZ PROC		; std::allocator<WeaponInfo>::allocator<WeaponInfo>, COMDAT
; _this$ = ecx

; 161  : 	_ALLOCATOR() _THROW0()

  00000	8b c1		 mov	 eax, ecx

; 162  : 		{	// construct default allocator (do nothing)
; 163  : 		}

  00002	c3		 ret	 0
??0?$allocator@UWeaponInfo@@@std@@QAE@XZ ENDP		; std::allocator<WeaponInfo>::allocator<WeaponInfo>
_TEXT	ENDS
PUBLIC	??1?$_Vector_val@UForceInfo@@V?$allocator@UForceInfo@@@std@@@std@@QAE@XZ ; std::_Vector_val<ForceInfo,std::allocator<ForceInfo> >::~_Vector_val<ForceInfo,std::allocator<ForceInfo> >
; Function compile flags: /Ogsp
; File c:\program files (x86)\microsoft visual studio 10.0\vc\include\vector
;	COMDAT ??1?$_Vector_val@UForceInfo@@V?$allocator@UForceInfo@@@std@@@std@@QAE@XZ
_TEXT	SEGMENT
??1?$_Vector_val@UForceInfo@@V?$allocator@UForceInfo@@@std@@@std@@QAE@XZ PROC ; std::_Vector_val<ForceInfo,std::allocator<ForceInfo> >::~_Vector_val<ForceInfo,std::allocator<ForceInfo> >, COMDAT
; _this$ = ecx

; 434  : 		}

  00000	c3		 ret	 0
??1?$_Vector_val@UForceInfo@@V?$allocator@UForceInfo@@@std@@@std@@QAE@XZ ENDP ; std::_Vector_val<ForceInfo,std::allocator<ForceInfo> >::~_Vector_val<ForceInfo,std::allocator<ForceInfo> >
_TEXT	ENDS
PUBLIC	??0?$allocator@UForceInfo@@@std@@QAE@XZ		; std::allocator<ForceInfo>::allocator<ForceInfo>
; Function compile flags: /Ogsp
; File c:\program files (x86)\microsoft visual studio 10.0\vc\include\xmemory
;	COMDAT ??0?$allocator@UForceInfo@@@std@@QAE@XZ
_TEXT	SEGMENT
??0?$allocator@UForceInfo@@@std@@QAE@XZ PROC		; std::allocator<ForceInfo>::allocator<ForceInfo>, COMDAT
; _this$ = ecx

; 161  : 	_ALLOCATOR() _THROW0()

  00000	8b c1		 mov	 eax, ecx

; 162  : 		{	// construct default allocator (do nothing)
; 163  : 		}

  00002	c3		 ret	 0
??0?$allocator@UForceInfo@@@std@@QAE@XZ ENDP		; std::allocator<ForceInfo>::allocator<ForceInfo>
_TEXT	ENDS
PUBLIC	?EncryptValueToPool@?$CEncrypt@M@@AAEXPBD@Z	; CEncrypt<float>::EncryptValueToPool
EXTRN	?EncryptByte@ccddaabb@@QAEXPBDPADH@Z:PROC	; ccddaabb::EncryptByte
; Function compile flags: /Ogsp
; File d:\lost saga for developer\youtube\tutorial\source\src\lsclient\encryptvalue.h
;	COMDAT ?EncryptValueToPool@?$CEncrypt@M@@AAEXPBD@Z
_TEXT	SEGMENT
_value$ = 8						; size = 4
?EncryptValueToPool@?$CEncrypt@M@@AAEXPBD@Z PROC	; CEncrypt<float>::EncryptValueToPool, COMDAT
; _this$ = ecx

; 67   : 	{

  00000	55		 push	 ebp
  00001	8b ec		 mov	 ebp, esp

; 68   : 		m_RC5.EncryptByte( value, m_MemPool, max(m_ValueSize, DEFAULT_ENCRYPT) );

  00003	0f b7 41 06	 movzx	 eax, WORD PTR [ecx+6]
  00007	83 f8 04	 cmp	 eax, 4
  0000a	77 03		 ja	 SHORT $LN4@EncryptVal
  0000c	6a 04		 push	 4
  0000e	58		 pop	 eax
$LN4@EncryptVal:
  0000f	50		 push	 eax
  00010	8d 41 1c	 lea	 eax, DWORD PTR [ecx+28]
  00013	50		 push	 eax
  00014	ff 75 08	 push	 DWORD PTR _value$[ebp]
  00017	83 c1 0c	 add	 ecx, 12			; 0000000cH
  0001a	e8 00 00 00 00	 call	 ?EncryptByte@ccddaabb@@QAEXPBDPADH@Z ; ccddaabb::EncryptByte

; 69   : 		
; 70   : 	}

  0001f	5d		 pop	 ebp
  00020	c2 04 00	 ret	 4
?EncryptValueToPool@?$CEncrypt@M@@AAEXPBD@Z ENDP	; CEncrypt<float>::EncryptValueToPool
_TEXT	ENDS
PUBLIC	?Init@?$CEncrypt@M@@AAEXXZ			; CEncrypt<float>::Init
EXTRN	?Setup@ccddaabb@@QAEXPBDHH@Z:PROC		; ccddaabb::Setup
EXTRN	__imp__rand:PROC
EXTRN	__imp__timeGetTime@0:PROC
EXTRN	__imp__GetCurrentProcessId@0:PROC
; Function compile flags: /Ogsp
;	COMDAT ?Init@?$CEncrypt@M@@AAEXXZ
_TEXT	SEGMENT
_pid$ = -8						; size = 4
_tick$ = -4						; size = 4
?Init@?$CEncrypt@M@@AAEXXZ PROC				; CEncrypt<float>::Init, COMDAT
; _this$ = ecx

; 73   : 	{

  00000	55		 push	 ebp
  00001	8b ec		 mov	 ebp, esp
  00003	51		 push	 ecx
  00004	51		 push	 ecx
  00005	53		 push	 ebx
  00006	56		 push	 esi
  00007	57		 push	 edi
  00008	8b f1		 mov	 esi, ecx

; 74   : 		DWORD pid = GetCurrentProcessId();

  0000a	ff 15 00 00 00
	00		 call	 DWORD PTR __imp__GetCurrentProcessId@0
  00010	89 45 f8	 mov	 DWORD PTR _pid$[ebp], eax

; 75   : 		DWORD tick = timeGetTime();

  00013	ff 15 00 00 00
	00		 call	 DWORD PTR __imp__timeGetTime@0

; 76   : 		m_ValueSize    = sizeof(type);
; 77   : 		m_MemPoolPos   = (unsigned short)( rand()+pid+tick )%(MAX_MEM_POOL-m_ValueSize);

  00019	8b 3d 00 00 00
	00		 mov	 edi, DWORD PTR __imp__rand
  0001f	89 45 fc	 mov	 DWORD PTR _tick$[ebp], eax
  00022	6a 04		 push	 4
  00024	58		 pop	 eax
  00025	66 89 46 06	 mov	 WORD PTR [esi+6], ax
  00029	ff d7		 call	 edi
  0002b	03 45 f8	 add	 eax, DWORD PTR _pid$[ebp]
  0002e	0f b7 4e 06	 movzx	 ecx, WORD PTR [esi+6]
  00032	03 45 fc	 add	 eax, DWORD PTR _tick$[ebp]
  00035	6a 0c		 push	 12			; 0000000cH
  00037	0f b7 c0	 movzx	 eax, ax
  0003a	5b		 pop	 ebx
  0003b	99		 cdq
  0003c	2b d9		 sub	 ebx, ecx
  0003e	f7 fb		 idiv	 ebx
  00040	66 89 56 04	 mov	 WORD PTR [esi+4], dx

; 78   : 		m_EncryptSeed  = (char)( rand()+pid+tick )%256;

  00044	ff d7		 call	 edi
  00046	02 45 f8	 add	 al, BYTE PTR _pid$[ebp]
  00049	02 45 fc	 add	 al, BYTE PTR _tick$[ebp]
  0004c	0f be c0	 movsx	 eax, al
  0004f	25 ff 00 00 80	 and	 eax, -2147483393	; 800000ffH
  00054	79 07		 jns	 SHORT $LN8@Init
  00056	48		 dec	 eax
  00057	0d 00 ff ff ff	 or	 eax, -256		; ffffff00H
  0005c	40		 inc	 eax
$LN8@Init:
  0005d	88 46 08	 mov	 BYTE PTR [esi+8], al

; 79   : 
; 80   : 		for (int i = 0; i < MAX_MEM_POOL ; i++)

  00060	33 db		 xor	 ebx, ebx
$LL3@Init:

; 81   : 			m_MemPool[i] = (char)( rand()+pid+tick )%256; // 

  00062	ff d7		 call	 edi
  00064	02 45 f8	 add	 al, BYTE PTR _pid$[ebp]
  00067	02 45 fc	 add	 al, BYTE PTR _tick$[ebp]
  0006a	0f be c0	 movsx	 eax, al
  0006d	25 ff 00 00 80	 and	 eax, -2147483393	; 800000ffH
  00072	79 07		 jns	 SHORT $LN9@Init
  00074	48		 dec	 eax
  00075	0d 00 ff ff ff	 or	 eax, -256		; ffffff00H
  0007a	40		 inc	 eax
$LN9@Init:
  0007b	88 44 1e 1c	 mov	 BYTE PTR [esi+ebx+28], al
  0007f	43		 inc	 ebx
  00080	83 fb 0c	 cmp	 ebx, 12			; 0000000cH
  00083	7c dd		 jl	 SHORT $LL3@Init

; 82   : 
; 83   : 		//UJ 130913, : szKey  
; 84   : 		//char szKey[ccddaabb::KEY_SIZE];//="";
; 85   : 		//for (int i = 0; i < ccddaabb::KEY_SIZE  ; i++)
; 86   : 		//	szKey[i] = (char)( rand()+pid+tick )%256; // 
; 87   : 		m_RC5.Setup( NULL, pid, tick );

  00085	ff 75 fc	 push	 DWORD PTR _tick$[ebp]
  00088	8d 4e 0c	 lea	 ecx, DWORD PTR [esi+12]
  0008b	ff 75 f8	 push	 DWORD PTR _pid$[ebp]
  0008e	6a 00		 push	 0
  00090	e8 00 00 00 00	 call	 ?Setup@ccddaabb@@QAEXPBDHH@Z ; ccddaabb::Setup
  00095	5f		 pop	 edi
  00096	5e		 pop	 esi
  00097	5b		 pop	 ebx

; 88   : 
; 89   : #ifdef _NOTUSE
; 90   : 		m_value        = 0;
; 91   : 		EncryptValueToPool((char*)&m_value);
; 92   : 		Debug();
; 93   : #endif
; 94   : 	}

  00098	c9		 leave
  00099	c3		 ret	 0
?Init@?$CEncrypt@M@@AAEXXZ ENDP				; CEncrypt<float>::Init
_TEXT	ENDS
PUBLIC	?DecryptValueToPool@?$CEncrypt@M@@QAEXPAM@Z	; CEncrypt<float>::DecryptValueToPool
EXTRN	?DecryptByte@ccddaabb@@QBEXPBDPADH@Z:PROC	; ccddaabb::DecryptByte
; Function compile flags: /Ogsp
;	COMDAT ?DecryptValueToPool@?$CEncrypt@M@@QAEXPAM@Z
_TEXT	SEGMENT
_value$ = 8						; size = 4
?DecryptValueToPool@?$CEncrypt@M@@QAEXPAM@Z PROC	; CEncrypt<float>::DecryptValueToPool, COMDAT
; _this$ = ecx

; 1648 : 	{

  00000	55		 push	 ebp
  00001	8b ec		 mov	 ebp, esp
  00003	56		 push	 esi

; 1649 : 		m_RC5.DecryptByte( m_MemPool, m_TempMem, 4 );

  00004	8d 71 28	 lea	 esi, DWORD PTR [ecx+40]
  00007	6a 04		 push	 4
  00009	8d 41 1c	 lea	 eax, DWORD PTR [ecx+28]
  0000c	56		 push	 esi
  0000d	50		 push	 eax
  0000e	83 c1 0c	 add	 ecx, 12			; 0000000cH
  00011	e8 00 00 00 00	 call	 ?DecryptByte@ccddaabb@@QBEXPBDPADH@Z ; ccddaabb::DecryptByte

; 1650 : 		*value = *((float*)m_TempMem);

  00016	d9 06		 fld	 DWORD PTR [esi]
  00018	8b 45 08	 mov	 eax, DWORD PTR _value$[ebp]
  0001b	d9 18		 fstp	 DWORD PTR [eax]
  0001d	5e		 pop	 esi

; 1651 : 	}

  0001e	5d		 pop	 ebp
  0001f	c2 04 00	 ret	 4
?DecryptValueToPool@?$CEncrypt@M@@QAEXPAM@Z ENDP	; CEncrypt<float>::DecryptValueToPool
_TEXT	ENDS
PUBLIC	?DecryptValueToPool@?$CEncrypt@_N@@QAEXPA_N@Z	; CEncrypt<bool>::DecryptValueToPool
; Function compile flags: /Ogsp
;	COMDAT ?DecryptValueToPool@?$CEncrypt@_N@@QAEXPA_N@Z
_TEXT	SEGMENT
_value$ = 8						; size = 4
?DecryptValueToPool@?$CEncrypt@_N@@QAEXPA_N@Z PROC	; CEncrypt<bool>::DecryptValueToPool, COMDAT
; _this$ = ecx

; 219  : 	{

  00000	55		 push	 ebp
  00001	8b ec		 mov	 ebp, esp
  00003	56		 push	 esi

; 220  : 		m_RC5.DecryptByte( m_MemPool, m_TempMem, 4 );

  00004	8d 71 28	 lea	 esi, DWORD PTR [ecx+40]
  00007	6a 04		 push	 4
  00009	8d 41 1c	 lea	 eax, DWORD PTR [ecx+28]
  0000c	56		 push	 esi
  0000d	50		 push	 eax
  0000e	83 c1 0c	 add	 ecx, 12			; 0000000cH
  00011	e8 00 00 00 00	 call	 ?DecryptByte@ccddaabb@@QBEXPBDPADH@Z ; ccddaabb::DecryptByte

; 221  : 		*value = *((bool*)m_TempMem);

  00016	8a 06		 mov	 al, BYTE PTR [esi]
  00018	8b 4d 08	 mov	 ecx, DWORD PTR _value$[ebp]
  0001b	88 01		 mov	 BYTE PTR [ecx], al
  0001d	5e		 pop	 esi

; 222  : 	}

  0001e	5d		 pop	 ebp
  0001f	c2 04 00	 ret	 4
?DecryptValueToPool@?$CEncrypt@_N@@QAEXPA_N@Z ENDP	; CEncrypt<bool>::DecryptValueToPool
_TEXT	ENDS
PUBLIC	??_C@_0BD@OLBABOEK@vector?$DMT?$DO?5too?5long?$AA@ ; `string'
PUBLIC	?_Xlen@?$vector@VioHashString@@V?$allocator@VioHashString@@@std@@@std@@IBEXXZ ; std::vector<ioHashString,std::allocator<ioHashString> >::_Xlen
EXTRN	__imp_?_Xlength_error@std@@YAXPBD@Z:PROC
;	COMDAT ??_C@_0BD@OLBABOEK@vector?$DMT?$DO?5too?5long?$AA@
; File c:\program files (x86)\microsoft visual studio 10.0\vc\include\vector
CONST	SEGMENT
??_C@_0BD@OLBABOEK@vector?$DMT?$DO?5too?5long?$AA@ DB 'vector<T> too long'
	DB	00H						; `string'
; Function compile flags: /Ogsp
CONST	ENDS
;	COMDAT ?_Xlen@?$vector@VioHashString@@V?$allocator@VioHashString@@@std@@@std@@IBEXXZ
_TEXT	SEGMENT
?_Xlen@?$vector@VioHashString@@V?$allocator@VioHashString@@@std@@@std@@IBEXXZ PROC ; std::vector<ioHashString,std::allocator<ioHashString> >::_Xlen, COMDAT
; _this$ = ecx

; 1427 : 		_Xlength_error("vector<T> too long");

  00000	68 00 00 00 00	 push	 OFFSET ??_C@_0BD@OLBABOEK@vector?$DMT?$DO?5too?5long?$AA@
  00005	ff 15 00 00 00
	00		 call	 DWORD PTR __imp_?_Xlength_error@std@@YAXPBD@Z
$LN4@Xlen:
$LN3@Xlen:
  0000b	cc		 int	 3
?_Xlen@?$vector@VioHashString@@V?$allocator@VioHashString@@@std@@@std@@IBEXXZ ENDP ; std::vector<ioHashString,std::allocator<ioHashString> >::_Xlen
_TEXT	ENDS
PUBLIC	?deallocate@?$allocator@VioHashString@@@std@@QAEXPAVioHashString@@I@Z ; std::allocator<ioHashString>::deallocate
; Function compile flags: /Ogsp
; File c:\program files (x86)\microsoft visual studio 10.0\vc\include\xmemory
;	COMDAT ?deallocate@?$allocator@VioHashString@@@std@@QAEXPAVioHashString@@I@Z
_TEXT	SEGMENT
__Ptr$ = 8						; size = 4
___formal$ = 12						; size = 4
?deallocate@?$allocator@VioHashString@@@std@@QAEXPAVioHashString@@I@Z PROC ; std::allocator<ioHashString>::deallocate, COMDAT
; _this$ = ecx

; 181  : 		{	// deallocate object at _Ptr, ignore size

  00000	55		 push	 ebp
  00001	8b ec		 mov	 ebp, esp

; 182  : 		::operator delete(_Ptr);

  00003	ff 75 08	 push	 DWORD PTR __Ptr$[ebp]
  00006	e8 00 00 00 00	 call	 ??3@YAXPAX@Z		; operator delete
  0000b	59		 pop	 ecx

; 183  : 		}

  0000c	5d		 pop	 ebp
  0000d	c2 08 00	 ret	 8
?deallocate@?$allocator@VioHashString@@@std@@QAEXPAVioHashString@@I@Z ENDP ; std::allocator<ioHashString>::deallocate
_TEXT	ENDS
PUBLIC	??0?$allocator@UWeaponInfo@@@std@@QAE@ABV01@@Z	; std::allocator<WeaponInfo>::allocator<WeaponInfo>
; Function compile flags: /Ogsp
;	COMDAT ??0?$allocator@UWeaponInfo@@@std@@QAE@ABV01@@Z
_TEXT	SEGMENT
___formal$ = 8						; size = 4
??0?$allocator@UWeaponInfo@@@std@@QAE@ABV01@@Z PROC	; std::allocator<WeaponInfo>::allocator<WeaponInfo>, COMDAT
; _this$ = ecx

; 165  : 	_ALLOCATOR(const _ALLOCATOR<_Ty>&) _THROW0()

  00000	8b c1		 mov	 eax, ecx

; 166  : 		{	// construct by copying (do nothing)
; 167  : 		}

  00002	c2 04 00	 ret	 4
??0?$allocator@UWeaponInfo@@@std@@QAE@ABV01@@Z ENDP	; std::allocator<WeaponInfo>::allocator<WeaponInfo>
_TEXT	ENDS
PUBLIC	?deallocate@?$allocator@UWeaponInfo@@@std@@QAEXPAUWeaponInfo@@I@Z ; std::allocator<WeaponInfo>::deallocate
; Function compile flags: /Ogsp
;	COMDAT ?deallocate@?$allocator@UWeaponInfo@@@std@@QAEXPAUWeaponInfo@@I@Z
_TEXT	SEGMENT
__Ptr$ = 8						; size = 4
___formal$ = 12						; size = 4
?deallocate@?$allocator@UWeaponInfo@@@std@@QAEXPAUWeaponInfo@@I@Z PROC ; std::allocator<WeaponInfo>::deallocate, COMDAT
; _this$ = ecx

; 181  : 		{	// deallocate object at _Ptr, ignore size

  00000	55		 push	 ebp
  00001	8b ec		 mov	 ebp, esp

; 182  : 		::operator delete(_Ptr);

  00003	ff 75 08	 push	 DWORD PTR __Ptr$[ebp]
  00006	e8 00 00 00 00	 call	 ??3@YAXPAX@Z		; operator delete
  0000b	59		 pop	 ecx

; 183  : 		}

  0000c	5d		 pop	 ebp
  0000d	c2 08 00	 ret	 8
?deallocate@?$allocator@UWeaponInfo@@@std@@QAEXPAUWeaponInfo@@I@Z ENDP ; std::allocator<WeaponInfo>::deallocate
_TEXT	ENDS
PUBLIC	??0?$allocator@UForceInfo@@@std@@QAE@ABV01@@Z	; std::allocator<ForceInfo>::allocator<ForceInfo>
; Function compile flags: /Ogsp
;	COMDAT ??0?$allocator@UForceInfo@@@std@@QAE@ABV01@@Z
_TEXT	SEGMENT
___formal$ = 8						; size = 4
??0?$allocator@UForceInfo@@@std@@QAE@ABV01@@Z PROC	; std::allocator<ForceInfo>::allocator<ForceInfo>, COMDAT
; _this$ = ecx

; 165  : 	_ALLOCATOR(const _ALLOCATOR<_Ty>&) _THROW0()

  00000	8b c1		 mov	 eax, ecx

; 166  : 		{	// construct by copying (do nothing)
; 167  : 		}

  00002	c2 04 00	 ret	 4
??0?$allocator@UForceInfo@@@std@@QAE@ABV01@@Z ENDP	; std::allocator<ForceInfo>::allocator<ForceInfo>
_TEXT	ENDS
PUBLIC	?deallocate@?$allocator@UForceInfo@@@std@@QAEXPAUForceInfo@@I@Z ; std::allocator<ForceInfo>::deallocate
; Function compile flags: /Ogsp
;	COMDAT ?deallocate@?$allocator@UForceInfo@@@std@@QAEXPAUForceInfo@@I@Z
_TEXT	SEGMENT
__Ptr$ = 8						; size = 4
___formal$ = 12						; size = 4
?deallocate@?$allocator@UForceInfo@@@std@@QAEXPAUForceInfo@@I@Z PROC ; std::allocator<ForceInfo>::deallocate, COMDAT
; _this$ = ecx

; 181  : 		{	// deallocate object at _Ptr, ignore size

  00000	55		 push	 ebp
  00001	8b ec		 mov	 ebp, esp

; 182  : 		::operator delete(_Ptr);

  00003	ff 75 08	 push	 DWORD PTR __Ptr$[ebp]
  00006	e8 00 00 00 00	 call	 ??3@YAXPAX@Z		; operator delete
  0000b	59		 pop	 ecx

; 183  : 		}

  0000c	5d		 pop	 ebp
  0000d	c2 08 00	 ret	 8
?deallocate@?$allocator@UForceInfo@@@std@@QAEXPAUForceInfo@@I@Z ENDP ; std::allocator<ForceInfo>::deallocate
_TEXT	ENDS
PUBLIC	??0?$_Vector_const_iterator@V?$_Vector_val@VioHashString@@V?$allocator@VioHashString@@@std@@@std@@@std@@QAE@PAVioHashString@@PBU_Container_base0@1@@Z ; std::_Vector_const_iterator<std::_Vector_val<ioHashString,std::allocator<ioHashString> > >::_Vector_const_iterator<std::_Vector_val<ioHashString,std::allocator<ioHashString> > >
; Function compile flags: /Ogsp
; File c:\program files (x86)\microsoft visual studio 10.0\vc\include\vector
;	COMDAT ??0?$_Vector_const_iterator@V?$_Vector_val@VioHashString@@V?$allocator@VioHashString@@@std@@@std@@@std@@QAE@PAVioHashString@@PBU_Container_base0@1@@Z
_TEXT	SEGMENT
__Parg$ = 8						; size = 4
__Pvector$ = 12						; size = 4
??0?$_Vector_const_iterator@V?$_Vector_val@VioHashString@@V?$allocator@VioHashString@@@std@@@std@@@std@@QAE@PAVioHashString@@PBU_Container_base0@1@@Z PROC ; std::_Vector_const_iterator<std::_Vector_val<ioHashString,std::allocator<ioHashString> > >::_Vector_const_iterator<std::_Vector_val<ioHashString,std::allocator<ioHashString> > >, COMDAT
; _this$ = ecx

; 45   : 		{	// construct with pointer _Parg

  00000	55		 push	 ebp
  00001	8b ec		 mov	 ebp, esp
  00003	8b c1		 mov	 eax, ecx
  00005	8b 4d 08	 mov	 ecx, DWORD PTR __Parg$[ebp]
  00008	89 08		 mov	 DWORD PTR [eax], ecx

; 46   : 		this->_Adopt(_Pvector);
; 47   : 		}

  0000a	5d		 pop	 ebp
  0000b	c2 08 00	 ret	 8
??0?$_Vector_const_iterator@V?$_Vector_val@VioHashString@@V?$allocator@VioHashString@@@std@@@std@@@std@@QAE@PAVioHashString@@PBU_Container_base0@1@@Z ENDP ; std::_Vector_const_iterator<std::_Vector_val<ioHashString,std::allocator<ioHashString> > >::_Vector_const_iterator<std::_Vector_val<ioHashString,std::allocator<ioHashString> > >
_TEXT	ENDS
PUBLIC	??0?$_Vector_iterator@V?$_Vector_val@VioHashString@@V?$allocator@VioHashString@@@std@@@std@@@std@@QAE@PAVioHashString@@PBU_Container_base0@1@@Z ; std::_Vector_iterator<std::_Vector_val<ioHashString,std::allocator<ioHashString> > >::_Vector_iterator<std::_Vector_val<ioHashString,std::allocator<ioHashString> > >
; Function compile flags: /Ogsp
;	COMDAT ??0?$_Vector_iterator@V?$_Vector_val@VioHashString@@V?$allocator@VioHashString@@@std@@@std@@@std@@QAE@PAVioHashString@@PBU_Container_base0@1@@Z
_TEXT	SEGMENT
__Parg$ = 8						; size = 4
__Pvector$ = 12						; size = 4
??0?$_Vector_iterator@V?$_Vector_val@VioHashString@@V?$allocator@VioHashString@@@std@@@std@@@std@@QAE@PAVioHashString@@PBU_Container_base0@1@@Z PROC ; std::_Vector_iterator<std::_Vector_val<ioHashString,std::allocator<ioHashString> > >::_Vector_iterator<std::_Vector_val<ioHashString,std::allocator<ioHashString> > >, COMDAT
; _this$ = ecx

; 304  : 		{	// construct with pointer _Parg

  00000	55		 push	 ebp
  00001	8b ec		 mov	 ebp, esp
  00003	8b c1		 mov	 eax, ecx
  00005	8b 4d 08	 mov	 ecx, DWORD PTR __Parg$[ebp]
  00008	89 08		 mov	 DWORD PTR [eax], ecx

; 305  : 		}

  0000a	5d		 pop	 ebp
  0000b	c2 08 00	 ret	 8
??0?$_Vector_iterator@V?$_Vector_val@VioHashString@@V?$allocator@VioHashString@@@std@@@std@@@std@@QAE@PAVioHashString@@PBU_Container_base0@1@@Z ENDP ; std::_Vector_iterator<std::_Vector_val<ioHashString,std::allocator<ioHashString> > >::_Vector_iterator<std::_Vector_val<ioHashString,std::allocator<ioHashString> > >
_TEXT	ENDS
PUBLIC	?max_size@?$allocator@VioHashString@@@std@@QBEIXZ ; std::allocator<ioHashString>::max_size
; Function compile flags: /Ogsp
; File c:\program files (x86)\microsoft visual studio 10.0\vc\include\xmemory
;	COMDAT ?max_size@?$allocator@VioHashString@@@std@@QBEIXZ
_TEXT	SEGMENT
?max_size@?$allocator@VioHashString@@@std@@QBEIXZ PROC	; std::allocator<ioHashString>::max_size, COMDAT
; _this$ = ecx

; 218  : 		_SIZT _Count = (_SIZT)(-1) / sizeof (_Ty);
; 219  : 		return (0 < _Count ? _Count : 1);

  00000	b8 ff ff ff 0f	 mov	 eax, 268435455		; 0fffffffH

; 220  : 		}

  00005	c3		 ret	 0
?max_size@?$allocator@VioHashString@@@std@@QBEIXZ ENDP	; std::allocator<ioHashString>::max_size
_TEXT	ENDS
PUBLIC	?_Compat@?$_Vector_const_iterator@V?$_Vector_val@VioHashString@@V?$allocator@VioHashString@@@std@@@std@@@std@@QBEXABV12@@Z ; std::_Vector_const_iterator<std::_Vector_val<ioHashString,std::allocator<ioHashString> > >::_Compat
; Function compile flags: /Ogsp
; File c:\program files (x86)\microsoft visual studio 10.0\vc\include\vector
;	COMDAT ?_Compat@?$_Vector_const_iterator@V?$_Vector_val@VioHashString@@V?$allocator@VioHashString@@@std@@@std@@@std@@QBEXABV12@@Z
_TEXT	SEGMENT
___formal$ = 8						; size = 4
?_Compat@?$_Vector_const_iterator@V?$_Vector_val@VioHashString@@V?$allocator@VioHashString@@@std@@@std@@@std@@QBEXABV12@@Z PROC ; std::_Vector_const_iterator<std::_Vector_val<ioHashString,std::allocator<ioHashString> > >::_Compat, COMDAT
; _this$ = ecx

; 253  : 		}

  00000	c2 04 00	 ret	 4
?_Compat@?$_Vector_const_iterator@V?$_Vector_val@VioHashString@@V?$allocator@VioHashString@@@std@@@std@@@std@@QBEXABV12@@Z ENDP ; std::_Vector_const_iterator<std::_Vector_val<ioHashString,std::allocator<ioHashString> > >::_Compat
_TEXT	ENDS
PUBLIC	__TI2?AVbad_alloc@std@@
PUBLIC	??$_Allocate@VioHashString@@@std@@YAPAVioHashString@@IPAV1@@Z ; std::_Allocate<ioHashString>
PUBLIC	__CTA2?AVbad_alloc@std@@
PUBLIC	__CT??_R0?AVbad_alloc@std@@@8??0bad_alloc@std@@QAE@ABV01@@Z12
PUBLIC	??0bad_alloc@std@@QAE@ABV01@@Z			; std::bad_alloc::bad_alloc
PUBLIC	__CT??_R0?AVexception@std@@@8??0exception@std@@QAE@ABV01@@Z12
EXTRN	??2@YAPAXI@Z:PROC				; operator new
EXTRN	__CxxThrowException@8:PROC
EXTRN	??0exception@std@@QAE@ABV01@@Z:PROC		; std::exception::exception
;	COMDAT __CT??_R0?AVexception@std@@@8??0exception@std@@QAE@ABV01@@Z12
; File c:\program files (x86)\microsoft visual studio 10.0\vc\include\exception
xdata$x	SEGMENT
__CT??_R0?AVexception@std@@@8??0exception@std@@QAE@ABV01@@Z12 DD 00H
	DD	FLAT:??_R0?AVexception@std@@@8
	DD	00H
	DD	0ffffffffH
	ORG $+4
	DD	0cH
	DD	FLAT:??0exception@std@@QAE@ABV01@@Z
xdata$x	ENDS
;	COMDAT __CT??_R0?AVbad_alloc@std@@@8??0bad_alloc@std@@QAE@ABV01@@Z12
xdata$x	SEGMENT
__CT??_R0?AVbad_alloc@std@@@8??0bad_alloc@std@@QAE@ABV01@@Z12 DD 00H
	DD	FLAT:??_R0?AVbad_alloc@std@@@8
	DD	00H
	DD	0ffffffffH
	ORG $+4
	DD	0cH
	DD	FLAT:??0bad_alloc@std@@QAE@ABV01@@Z
xdata$x	ENDS
;	COMDAT __CTA2?AVbad_alloc@std@@
xdata$x	SEGMENT
__CTA2?AVbad_alloc@std@@ DD 02H
	DD	FLAT:__CT??_R0?AVbad_alloc@std@@@8??0bad_alloc@std@@QAE@ABV01@@Z12
	DD	FLAT:__CT??_R0?AVexception@std@@@8??0exception@std@@QAE@ABV01@@Z12
xdata$x	ENDS
;	COMDAT __TI2?AVbad_alloc@std@@
xdata$x	SEGMENT
__TI2?AVbad_alloc@std@@ DD 00H
	DD	FLAT:??1bad_alloc@std@@UAE@XZ
	DD	00H
	DD	FLAT:__CTA2?AVbad_alloc@std@@
; Function compile flags: /Ogsp
; File c:\program files (x86)\microsoft visual studio 10.0\vc\include\xmemory
xdata$x	ENDS
;	COMDAT ??$_Allocate@VioHashString@@@std@@YAPAVioHashString@@IPAV1@@Z
_TEXT	SEGMENT
$T529387 = -12						; size = 12
$T529392 = 8						; size = 4
__Count$ = 8						; size = 4
___formal$ = 12						; size = 4
??$_Allocate@VioHashString@@@std@@YAPAVioHashString@@IPAV1@@Z PROC ; std::_Allocate<ioHashString>, COMDAT

; 30   : 	{	// allocate storage for _Count elements of type _Ty

  00000	55		 push	 ebp
  00001	8b ec		 mov	 ebp, esp

; 31   : 	void *_Ptr = 0;
; 32   : 
; 33   : 	if (_Count <= 0)

  00003	8b 4d 08	 mov	 ecx, DWORD PTR __Count$[ebp]
  00006	83 ec 0c	 sub	 esp, 12			; 0000000cH
  00009	33 c0		 xor	 eax, eax
  0000b	85 c9		 test	 ecx, ecx

; 34   : 		_Count = 0;
; 35   : 	else if (((_SIZT)(-1) / sizeof (_Ty) < _Count)

  0000d	74 3c		 je	 SHORT $LN5@Allocate

; 36   : 		|| (_Ptr = ::operator new(_Count * sizeof (_Ty))) == 0)

  0000f	81 f9 ff ff ff
	0f		 cmp	 ecx, 268435455		; 0fffffffH
  00015	77 0e		 ja	 SHORT $LN1@Allocate
  00017	c1 e1 04	 shl	 ecx, 4
  0001a	51		 push	 ecx
  0001b	e8 00 00 00 00	 call	 ??2@YAPAXI@Z		; operator new
  00020	59		 pop	 ecx
  00021	85 c0		 test	 eax, eax

; 38   : 
; 39   : 	return ((_Ty _FARQ *)_Ptr);

  00023	75 26		 jne	 SHORT $LN5@Allocate
$LN1@Allocate:

; 37   : 		_THROW_NCEE(bad_alloc, 0);

  00025	83 65 08 00	 and	 DWORD PTR $T529392[ebp], 0
  00029	8d 45 08	 lea	 eax, DWORD PTR $T529392[ebp]
  0002c	50		 push	 eax
  0002d	8d 4d f4	 lea	 ecx, DWORD PTR $T529387[ebp]
  00030	ff 15 00 00 00
	00		 call	 DWORD PTR __imp_??0exception@std@@QAE@ABQBD@Z
  00036	68 00 00 00 00	 push	 OFFSET __TI2?AVbad_alloc@std@@
  0003b	8d 45 f4	 lea	 eax, DWORD PTR $T529387[ebp]
  0003e	50		 push	 eax
  0003f	c7 45 f4 00 00
	00 00		 mov	 DWORD PTR $T529387[ebp], OFFSET ??_7bad_alloc@std@@6B@
  00046	e8 00 00 00 00	 call	 __CxxThrowException@8
$LN10@Allocate:
$LN5@Allocate:

; 40   : 	}

  0004b	c9		 leave
  0004c	c3		 ret	 0
$LN9@Allocate:
??$_Allocate@VioHashString@@@std@@YAPAVioHashString@@IPAV1@@Z ENDP ; std::_Allocate<ioHashString>
_TEXT	ENDS
EXTRN	__imp_??0exception@std@@QAE@ABV01@@Z:PROC
; Function compile flags: /Ogsp
;	COMDAT ??0bad_alloc@std@@QAE@ABV01@@Z
_TEXT	SEGMENT
___that$ = 8						; size = 4
??0bad_alloc@std@@QAE@ABV01@@Z PROC			; std::bad_alloc::bad_alloc, COMDAT
; _this$ = ecx
  00000	55		 push	 ebp
  00001	8b ec		 mov	 ebp, esp
  00003	56		 push	 esi
  00004	ff 75 08	 push	 DWORD PTR ___that$[ebp]
  00007	8b f1		 mov	 esi, ecx
  00009	ff 15 00 00 00
	00		 call	 DWORD PTR __imp_??0exception@std@@QAE@ABV01@@Z
  0000f	c7 06 00 00 00
	00		 mov	 DWORD PTR [esi], OFFSET ??_7bad_alloc@std@@6B@
  00015	8b c6		 mov	 eax, esi
  00017	5e		 pop	 esi
  00018	5d		 pop	 ebp
  00019	c2 04 00	 ret	 4
??0bad_alloc@std@@QAE@ABV01@@Z ENDP			; std::bad_alloc::bad_alloc
_TEXT	ENDS
PUBLIC	??$forward@ABVioHashString@@@std@@YAABVioHashString@@ABV1@@Z ; std::forward<ioHashString const &>
; Function compile flags: /Ogsp
; File c:\program files (x86)\microsoft visual studio 10.0\vc\include\utility
;	COMDAT ??$forward@ABVioHashString@@@std@@YAABVioHashString@@ABV1@@Z
_TEXT	SEGMENT
__Arg$ = 8						; size = 4
??$forward@ABVioHashString@@@std@@YAABVioHashString@@ABV1@@Z PROC ; std::forward<ioHashString const &>, COMDAT

; 78   : 	{	// forward _Arg, given explicitly specified type parameter

  00000	55		 push	 ebp
  00001	8b ec		 mov	 ebp, esp

; 79   : 	return ((_Ty&&)_Arg);

  00003	8b 45 08	 mov	 eax, DWORD PTR __Arg$[ebp]

; 80   : 	}

  00006	5d		 pop	 ebp
  00007	c3		 ret	 0
??$forward@ABVioHashString@@@std@@YAABVioHashString@@ABV1@@Z ENDP ; std::forward<ioHashString const &>
_TEXT	ENDS
PUBLIC	??$_Ptr_cat@VioHashString@@V1@@std@@YA?AU_Nonscalar_ptr_iterator_tag@0@PAVioHashString@@0@Z ; std::_Ptr_cat<ioHashString,ioHashString>
; Function compile flags: /Ogsp
; File c:\program files (x86)\microsoft visual studio 10.0\vc\include\xutility
;	COMDAT ??$_Ptr_cat@VioHashString@@V1@@std@@YA?AU_Nonscalar_ptr_iterator_tag@0@PAVioHashString@@0@Z
_TEXT	SEGMENT
__Cat$ = -1						; size = 1
___formal$ = 8						; size = 4
___formal$ = 12						; size = 4
??$_Ptr_cat@VioHashString@@V1@@std@@YA?AU_Nonscalar_ptr_iterator_tag@0@PAVioHashString@@0@Z PROC ; std::_Ptr_cat<ioHashString,ioHashString>, COMDAT

; 516  : 	{	// return pointer category from pointers

  00000	55		 push	 ebp
  00001	8b ec		 mov	 ebp, esp
  00003	51		 push	 ecx

; 517  : 	typename _Ptr_cat_helper<_Elem1, _Elem2>::_Type _Cat;
; 518  : 	return (_Cat);

  00004	8a 45 ff	 mov	 al, BYTE PTR __Cat$[ebp]

; 519  : 	}

  00007	c9		 leave
  00008	c3		 ret	 0
??$_Ptr_cat@VioHashString@@V1@@std@@YA?AU_Nonscalar_ptr_iterator_tag@0@PAVioHashString@@0@Z ENDP ; std::_Ptr_cat<ioHashString,ioHashString>
_TEXT	ENDS
PUBLIC	??$_Ptr_cat@UWeaponInfo@@U1@@std@@YA?AU_Nonscalar_ptr_iterator_tag@0@PAUWeaponInfo@@0@Z ; std::_Ptr_cat<WeaponInfo,WeaponInfo>
; Function compile flags: /Ogsp
;	COMDAT ??$_Ptr_cat@UWeaponInfo@@U1@@std@@YA?AU_Nonscalar_ptr_iterator_tag@0@PAUWeaponInfo@@0@Z
_TEXT	SEGMENT
__Cat$ = -1						; size = 1
___formal$ = 8						; size = 4
___formal$ = 12						; size = 4
??$_Ptr_cat@UWeaponInfo@@U1@@std@@YA?AU_Nonscalar_ptr_iterator_tag@0@PAUWeaponInfo@@0@Z PROC ; std::_Ptr_cat<WeaponInfo,WeaponInfo>, COMDAT

; 516  : 	{	// return pointer category from pointers

  00000	55		 push	 ebp
  00001	8b ec		 mov	 ebp, esp
  00003	51		 push	 ecx

; 517  : 	typename _Ptr_cat_helper<_Elem1, _Elem2>::_Type _Cat;
; 518  : 	return (_Cat);

  00004	8a 45 ff	 mov	 al, BYTE PTR __Cat$[ebp]

; 519  : 	}

  00007	c9		 leave
  00008	c3		 ret	 0
??$_Ptr_cat@UWeaponInfo@@U1@@std@@YA?AU_Nonscalar_ptr_iterator_tag@0@PAUWeaponInfo@@0@Z ENDP ; std::_Ptr_cat<WeaponInfo,WeaponInfo>
_TEXT	ENDS
PUBLIC	??$_Ptr_cat@UForceInfo@@U1@@std@@YA?AU_Nonscalar_ptr_iterator_tag@0@PAUForceInfo@@0@Z ; std::_Ptr_cat<ForceInfo,ForceInfo>
; Function compile flags: /Ogsp
;	COMDAT ??$_Ptr_cat@UForceInfo@@U1@@std@@YA?AU_Nonscalar_ptr_iterator_tag@0@PAUForceInfo@@0@Z
_TEXT	SEGMENT
__Cat$ = -1						; size = 1
___formal$ = 8						; size = 4
___formal$ = 12						; size = 4
??$_Ptr_cat@UForceInfo@@U1@@std@@YA?AU_Nonscalar_ptr_iterator_tag@0@PAUForceInfo@@0@Z PROC ; std::_Ptr_cat<ForceInfo,ForceInfo>, COMDAT

; 516  : 	{	// return pointer category from pointers

  00000	55		 push	 ebp
  00001	8b ec		 mov	 ebp, esp
  00003	51		 push	 ecx

; 517  : 	typename _Ptr_cat_helper<_Elem1, _Elem2>::_Type _Cat;
; 518  : 	return (_Cat);

  00004	8a 45 ff	 mov	 al, BYTE PTR __Cat$[ebp]

; 519  : 	}

  00007	c9		 leave
  00008	c3		 ret	 0
??$_Ptr_cat@UForceInfo@@U1@@std@@YA?AU_Nonscalar_ptr_iterator_tag@0@PAUForceInfo@@0@Z ENDP ; std::_Ptr_cat<ForceInfo,ForceInfo>
_TEXT	ENDS
PUBLIC	?size@?$vector@UWeaponInfo@@V?$allocator@UWeaponInfo@@@std@@@std@@QBEIXZ ; std::vector<WeaponInfo,std::allocator<WeaponInfo> >::size
; Function compile flags: /Ogsp
; File c:\program files (x86)\microsoft visual studio 10.0\vc\include\vector
;	COMDAT ?size@?$vector@UWeaponInfo@@V?$allocator@UWeaponInfo@@@std@@@std@@QBEIXZ
_TEXT	SEGMENT
?size@?$vector@UWeaponInfo@@V?$allocator@UWeaponInfo@@@std@@@std@@QBEIXZ PROC ; std::vector<WeaponInfo,std::allocator<WeaponInfo> >::size, COMDAT
; _this$ = ecx

; 879  : 		return (this->_Mylast - this->_Myfirst);

  00000	8b 41 04	 mov	 eax, DWORD PTR [ecx+4]
  00003	2b 01		 sub	 eax, DWORD PTR [ecx]
  00005	6a 28		 push	 40			; 00000028H
  00007	99		 cdq
  00008	59		 pop	 ecx
  00009	f7 f9		 idiv	 ecx

; 880  : 		}

  0000b	c3		 ret	 0
?size@?$vector@UWeaponInfo@@V?$allocator@UWeaponInfo@@@std@@@std@@QBEIXZ ENDP ; std::vector<WeaponInfo,std::allocator<WeaponInfo> >::size
_TEXT	ENDS
PUBLIC	?size@?$vector@UForceInfo@@V?$allocator@UForceInfo@@@std@@@std@@QBEIXZ ; std::vector<ForceInfo,std::allocator<ForceInfo> >::size
; Function compile flags: /Ogsp
;	COMDAT ?size@?$vector@UForceInfo@@V?$allocator@UForceInfo@@@std@@@std@@QBEIXZ
_TEXT	SEGMENT
?size@?$vector@UForceInfo@@V?$allocator@UForceInfo@@@std@@@std@@QBEIXZ PROC ; std::vector<ForceInfo,std::allocator<ForceInfo> >::size, COMDAT
; _this$ = ecx

; 879  : 		return (this->_Mylast - this->_Myfirst);

  00000	8b 41 04	 mov	 eax, DWORD PTR [ecx+4]
  00003	2b 01		 sub	 eax, DWORD PTR [ecx]
  00005	6a 0c		 push	 12			; 0000000cH
  00007	99		 cdq
  00008	59		 pop	 ecx
  00009	f7 f9		 idiv	 ecx

; 880  : 		}

  0000b	c3		 ret	 0
?size@?$vector@UForceInfo@@V?$allocator@UForceInfo@@@std@@@std@@QBEIXZ ENDP ; std::vector<ForceInfo,std::allocator<ForceInfo> >::size
_TEXT	ENDS
PUBLIC	?_Xlen@?$vector@UWeaponInfo@@V?$allocator@UWeaponInfo@@@std@@@std@@IBEXXZ ; std::vector<WeaponInfo,std::allocator<WeaponInfo> >::_Xlen
; Function compile flags: /Ogsp
;	COMDAT ?_Xlen@?$vector@UWeaponInfo@@V?$allocator@UWeaponInfo@@@std@@@std@@IBEXXZ
_TEXT	SEGMENT
?_Xlen@?$vector@UWeaponInfo@@V?$allocator@UWeaponInfo@@@std@@@std@@IBEXXZ PROC ; std::vector<WeaponInfo,std::allocator<WeaponInfo> >::_Xlen, COMDAT
; _this$ = ecx

; 1427 : 		_Xlength_error("vector<T> too long");

  00000	68 00 00 00 00	 push	 OFFSET ??_C@_0BD@OLBABOEK@vector?$DMT?$DO?5too?5long?$AA@
  00005	ff 15 00 00 00
	00		 call	 DWORD PTR __imp_?_Xlength_error@std@@YAXPBD@Z
$LN4@Xlen@2:
$LN3@Xlen@2:
  0000b	cc		 int	 3
?_Xlen@?$vector@UWeaponInfo@@V?$allocator@UWeaponInfo@@@std@@@std@@IBEXXZ ENDP ; std::vector<WeaponInfo,std::allocator<WeaponInfo> >::_Xlen
_TEXT	ENDS
PUBLIC	?_Xlen@?$vector@UForceInfo@@V?$allocator@UForceInfo@@@std@@@std@@IBEXXZ ; std::vector<ForceInfo,std::allocator<ForceInfo> >::_Xlen
; Function compile flags: /Ogsp
;	COMDAT ?_Xlen@?$vector@UForceInfo@@V?$allocator@UForceInfo@@@std@@@std@@IBEXXZ
_TEXT	SEGMENT
?_Xlen@?$vector@UForceInfo@@V?$allocator@UForceInfo@@@std@@@std@@IBEXXZ PROC ; std::vector<ForceInfo,std::allocator<ForceInfo> >::_Xlen, COMDAT
; _this$ = ecx

; 1427 : 		_Xlength_error("vector<T> too long");

  00000	68 00 00 00 00	 push	 OFFSET ??_C@_0BD@OLBABOEK@vector?$DMT?$DO?5too?5long?$AA@
  00005	ff 15 00 00 00
	00		 call	 DWORD PTR __imp_?_Xlength_error@std@@YAXPBD@Z
$LN4@Xlen@3:
$LN3@Xlen@3:
  0000b	cc		 int	 3
?_Xlen@?$vector@UForceInfo@@V?$allocator@UForceInfo@@@std@@@std@@IBEXXZ ENDP ; std::vector<ForceInfo,std::allocator<ForceInfo> >::_Xlen
_TEXT	ENDS
PUBLIC	?max_size@?$allocator@UWeaponInfo@@@std@@QBEIXZ	; std::allocator<WeaponInfo>::max_size
; Function compile flags: /Ogsp
; File c:\program files (x86)\microsoft visual studio 10.0\vc\include\xmemory
;	COMDAT ?max_size@?$allocator@UWeaponInfo@@@std@@QBEIXZ
_TEXT	SEGMENT
?max_size@?$allocator@UWeaponInfo@@@std@@QBEIXZ PROC	; std::allocator<WeaponInfo>::max_size, COMDAT
; _this$ = ecx

; 218  : 		_SIZT _Count = (_SIZT)(-1) / sizeof (_Ty);
; 219  : 		return (0 < _Count ? _Count : 1);

  00000	b8 66 66 66 06	 mov	 eax, 107374182		; 06666666H

; 220  : 		}

  00005	c3		 ret	 0
?max_size@?$allocator@UWeaponInfo@@@std@@QBEIXZ ENDP	; std::allocator<WeaponInfo>::max_size
_TEXT	ENDS
PUBLIC	?max_size@?$allocator@UForceInfo@@@std@@QBEIXZ	; std::allocator<ForceInfo>::max_size
; Function compile flags: /Ogsp
;	COMDAT ?max_size@?$allocator@UForceInfo@@@std@@QBEIXZ
_TEXT	SEGMENT
?max_size@?$allocator@UForceInfo@@@std@@QBEIXZ PROC	; std::allocator<ForceInfo>::max_size, COMDAT
; _this$ = ecx

; 218  : 		_SIZT _Count = (_SIZT)(-1) / sizeof (_Ty);
; 219  : 		return (0 < _Count ? _Count : 1);

  00000	b8 55 55 55 15	 mov	 eax, 357913941		; 15555555H

; 220  : 		}

  00005	c3		 ret	 0
?max_size@?$allocator@UForceInfo@@@std@@QBEIXZ ENDP	; std::allocator<ForceInfo>::max_size
_TEXT	ENDS
PUBLIC	??0?$_Vector_const_iterator@V?$_Vector_val@UWeaponInfo@@V?$allocator@UWeaponInfo@@@std@@@std@@@std@@QAE@PAUWeaponInfo@@PBU_Container_base0@1@@Z ; std::_Vector_const_iterator<std::_Vector_val<WeaponInfo,std::allocator<WeaponInfo> > >::_Vector_const_iterator<std::_Vector_val<WeaponInfo,std::allocator<WeaponInfo> > >
; Function compile flags: /Ogsp
; File c:\program files (x86)\microsoft visual studio 10.0\vc\include\vector
;	COMDAT ??0?$_Vector_const_iterator@V?$_Vector_val@UWeaponInfo@@V?$allocator@UWeaponInfo@@@std@@@std@@@std@@QAE@PAUWeaponInfo@@PBU_Container_base0@1@@Z
_TEXT	SEGMENT
__Parg$ = 8						; size = 4
__Pvector$ = 12						; size = 4
??0?$_Vector_const_iterator@V?$_Vector_val@UWeaponInfo@@V?$allocator@UWeaponInfo@@@std@@@std@@@std@@QAE@PAUWeaponInfo@@PBU_Container_base0@1@@Z PROC ; std::_Vector_const_iterator<std::_Vector_val<WeaponInfo,std::allocator<WeaponInfo> > >::_Vector_const_iterator<std::_Vector_val<WeaponInfo,std::allocator<WeaponInfo> > >, COMDAT
; _this$ = ecx

; 45   : 		{	// construct with pointer _Parg

  00000	55		 push	 ebp
  00001	8b ec		 mov	 ebp, esp
  00003	8b c1		 mov	 eax, ecx
  00005	8b 4d 08	 mov	 ecx, DWORD PTR __Parg$[ebp]
  00008	89 08		 mov	 DWORD PTR [eax], ecx

; 46   : 		this->_Adopt(_Pvector);
; 47   : 		}

  0000a	5d		 pop	 ebp
  0000b	c2 08 00	 ret	 8
??0?$_Vector_const_iterator@V?$_Vector_val@UWeaponInfo@@V?$allocator@UWeaponInfo@@@std@@@std@@@std@@QAE@PAUWeaponInfo@@PBU_Container_base0@1@@Z ENDP ; std::_Vector_const_iterator<std::_Vector_val<WeaponInfo,std::allocator<WeaponInfo> > >::_Vector_const_iterator<std::_Vector_val<WeaponInfo,std::allocator<WeaponInfo> > >
_TEXT	ENDS
PUBLIC	??0?$_Vector_const_iterator@V?$_Vector_val@UForceInfo@@V?$allocator@UForceInfo@@@std@@@std@@@std@@QAE@PAUForceInfo@@PBU_Container_base0@1@@Z ; std::_Vector_const_iterator<std::_Vector_val<ForceInfo,std::allocator<ForceInfo> > >::_Vector_const_iterator<std::_Vector_val<ForceInfo,std::allocator<ForceInfo> > >
; Function compile flags: /Ogsp
;	COMDAT ??0?$_Vector_const_iterator@V?$_Vector_val@UForceInfo@@V?$allocator@UForceInfo@@@std@@@std@@@std@@QAE@PAUForceInfo@@PBU_Container_base0@1@@Z
_TEXT	SEGMENT
__Parg$ = 8						; size = 4
__Pvector$ = 12						; size = 4
??0?$_Vector_const_iterator@V?$_Vector_val@UForceInfo@@V?$allocator@UForceInfo@@@std@@@std@@@std@@QAE@PAUForceInfo@@PBU_Container_base0@1@@Z PROC ; std::_Vector_const_iterator<std::_Vector_val<ForceInfo,std::allocator<ForceInfo> > >::_Vector_const_iterator<std::_Vector_val<ForceInfo,std::allocator<ForceInfo> > >, COMDAT
; _this$ = ecx

; 45   : 		{	// construct with pointer _Parg

  00000	55		 push	 ebp
  00001	8b ec		 mov	 ebp, esp
  00003	8b c1		 mov	 eax, ecx
  00005	8b 4d 08	 mov	 ecx, DWORD PTR __Parg$[ebp]
  00008	89 08		 mov	 DWORD PTR [eax], ecx

; 46   : 		this->_Adopt(_Pvector);
; 47   : 		}

  0000a	5d		 pop	 ebp
  0000b	c2 08 00	 ret	 8
??0?$_Vector_const_iterator@V?$_Vector_val@UForceInfo@@V?$allocator@UForceInfo@@@std@@@std@@@std@@QAE@PAUForceInfo@@PBU_Container_base0@1@@Z ENDP ; std::_Vector_const_iterator<std::_Vector_val<ForceInfo,std::allocator<ForceInfo> > >::_Vector_const_iterator<std::_Vector_val<ForceInfo,std::allocator<ForceInfo> > >
_TEXT	ENDS
PUBLIC	?_Compat@?$_Vector_const_iterator@V?$_Vector_val@UWeaponInfo@@V?$allocator@UWeaponInfo@@@std@@@std@@@std@@QBEXABV12@@Z ; std::_Vector_const_iterator<std::_Vector_val<WeaponInfo,std::allocator<WeaponInfo> > >::_Compat
; Function compile flags: /Ogsp
;	COMDAT ?_Compat@?$_Vector_const_iterator@V?$_Vector_val@UWeaponInfo@@V?$allocator@UWeaponInfo@@@std@@@std@@@std@@QBEXABV12@@Z
_TEXT	SEGMENT
___formal$ = 8						; size = 4
?_Compat@?$_Vector_const_iterator@V?$_Vector_val@UWeaponInfo@@V?$allocator@UWeaponInfo@@@std@@@std@@@std@@QBEXABV12@@Z PROC ; std::_Vector_const_iterator<std::_Vector_val<WeaponInfo,std::allocator<WeaponInfo> > >::_Compat, COMDAT
; _this$ = ecx

; 253  : 		}

  00000	c2 04 00	 ret	 4
?_Compat@?$_Vector_const_iterator@V?$_Vector_val@UWeaponInfo@@V?$allocator@UWeaponInfo@@@std@@@std@@@std@@QBEXABV12@@Z ENDP ; std::_Vector_const_iterator<std::_Vector_val<WeaponInfo,std::allocator<WeaponInfo> > >::_Compat
_TEXT	ENDS
PUBLIC	?_Compat@?$_Vector_const_iterator@V?$_Vector_val@UForceInfo@@V?$allocator@UForceInfo@@@std@@@std@@@std@@QBEXABV12@@Z ; std::_Vector_const_iterator<std::_Vector_val<ForceInfo,std::allocator<ForceInfo> > >::_Compat
; Function compile flags: /Ogsp
;	COMDAT ?_Compat@?$_Vector_const_iterator@V?$_Vector_val@UForceInfo@@V?$allocator@UForceInfo@@@std@@@std@@@std@@QBEXABV12@@Z
_TEXT	SEGMENT
___formal$ = 8						; size = 4
?_Compat@?$_Vector_const_iterator@V?$_Vector_val@UForceInfo@@V?$allocator@UForceInfo@@@std@@@std@@@std@@QBEXABV12@@Z PROC ; std::_Vector_const_iterator<std::_Vector_val<ForceInfo,std::allocator<ForceInfo> > >::_Compat, COMDAT
; _this$ = ecx

; 253  : 		}

  00000	c2 04 00	 ret	 4
?_Compat@?$_Vector_const_iterator@V?$_Vector_val@UForceInfo@@V?$allocator@UForceInfo@@@std@@@std@@@std@@QBEXABV12@@Z ENDP ; std::_Vector_const_iterator<std::_Vector_val<ForceInfo,std::allocator<ForceInfo> > >::_Compat
_TEXT	ENDS
PUBLIC	??$_Ptr_cat@V?$_Vector_const_iterator@V?$_Vector_val@VioHashString@@V?$allocator@VioHashString@@@std@@@std@@@std@@PAVioHashString@@@std@@YA?AU_Nonscalar_ptr_iterator_tag@0@AAV?$_Vector_const_iterator@V?$_Vector_val@VioHashString@@V?$allocator@VioHashString@@@std@@@std@@@0@AAPAVioHashString@@@Z ; std::_Ptr_cat<std::_Vector_const_iterator<std::_Vector_val<ioHashString,std::allocator<ioHashString> > >,ioHashString *>
; Function compile flags: /Ogsp
; File c:\program files (x86)\microsoft visual studio 10.0\vc\include\xutility
;	COMDAT ??$_Ptr_cat@V?$_Vector_const_iterator@V?$_Vector_val@VioHashString@@V?$allocator@VioHashString@@@std@@@std@@@std@@PAVioHashString@@@std@@YA?AU_Nonscalar_ptr_iterator_tag@0@AAV?$_Vector_const_iterator@V?$_Vector_val@VioHashString@@V?$allocator@VioHashString@@@std@@@std@@@0@AAPAVioHashString@@@Z
_TEXT	SEGMENT
__Cat$ = -1						; size = 1
___formal$ = 8						; size = 4
___formal$ = 12						; size = 4
??$_Ptr_cat@V?$_Vector_const_iterator@V?$_Vector_val@VioHashString@@V?$allocator@VioHashString@@@std@@@std@@@std@@PAVioHashString@@@std@@YA?AU_Nonscalar_ptr_iterator_tag@0@AAV?$_Vector_const_iterator@V?$_Vector_val@VioHashString@@V?$allocator@VioHashString@@@std@@@std@@@0@AAPAVioHashString@@@Z PROC ; std::_Ptr_cat<std::_Vector_const_iterator<std::_Vector_val<ioHashString,std::allocator<ioHashString> > >,ioHashString *>, COMDAT

; 485  : 	{	// return pointer category from arbitrary arguments

  00000	55		 push	 ebp
  00001	8b ec		 mov	 ebp, esp
  00003	51		 push	 ecx

; 486  : 	_Nonscalar_ptr_iterator_tag _Cat;
; 487  : 	return (_Cat);

  00004	8a 45 ff	 mov	 al, BYTE PTR __Cat$[ebp]

; 488  : 	}

  00007	c9		 leave
  00008	c3		 ret	 0
??$_Ptr_cat@V?$_Vector_const_iterator@V?$_Vector_val@VioHashString@@V?$allocator@VioHashString@@@std@@@std@@@std@@PAVioHashString@@@std@@YA?AU_Nonscalar_ptr_iterator_tag@0@AAV?$_Vector_const_iterator@V?$_Vector_val@VioHashString@@V?$allocator@VioHashString@@@std@@@std@@@0@AAPAVioHashString@@@Z ENDP ; std::_Ptr_cat<std::_Vector_const_iterator<std::_Vector_val<ioHashString,std::allocator<ioHashString> > >,ioHashString *>
_TEXT	ENDS
PUBLIC	??$move@AAVioHashString@@@std@@YA$$QAVioHashString@@AAV1@@Z ; std::move<ioHashString &>
; Function compile flags: /Ogsp
; File c:\program files (x86)\microsoft visual studio 10.0\vc\include\utility
;	COMDAT ??$move@AAVioHashString@@@std@@YA$$QAVioHashString@@AAV1@@Z
_TEXT	SEGMENT
__Arg$ = 8						; size = 4
??$move@AAVioHashString@@@std@@YA$$QAVioHashString@@AAV1@@Z PROC ; std::move<ioHashString &>, COMDAT

; 86   : 	{	// forward _Arg as movable

  00000	55		 push	 ebp
  00001	8b ec		 mov	 ebp, esp

; 87   : 	return ((typename tr1::_Remove_reference<_Ty>::_Type&&)_Arg);

  00003	8b 45 08	 mov	 eax, DWORD PTR __Arg$[ebp]

; 88   : 	}

  00006	5d		 pop	 ebp
  00007	c3		 ret	 0
??$move@AAVioHashString@@@std@@YA$$QAVioHashString@@AAV1@@Z ENDP ; std::move<ioHashString &>
_TEXT	ENDS
PUBLIC	??$_Allocate@UWeaponInfo@@@std@@YAPAUWeaponInfo@@IPAU1@@Z ; std::_Allocate<WeaponInfo>
; Function compile flags: /Ogsp
; File c:\program files (x86)\microsoft visual studio 10.0\vc\include\xmemory
;	COMDAT ??$_Allocate@UWeaponInfo@@@std@@YAPAUWeaponInfo@@IPAU1@@Z
_TEXT	SEGMENT
$T529454 = -12						; size = 12
$T529458 = 8						; size = 4
__Count$ = 8						; size = 4
___formal$ = 12						; size = 4
??$_Allocate@UWeaponInfo@@@std@@YAPAUWeaponInfo@@IPAU1@@Z PROC ; std::_Allocate<WeaponInfo>, COMDAT

; 30   : 	{	// allocate storage for _Count elements of type _Ty

  00000	55		 push	 ebp
  00001	8b ec		 mov	 ebp, esp

; 31   : 	void *_Ptr = 0;
; 32   : 
; 33   : 	if (_Count <= 0)

  00003	8b 4d 08	 mov	 ecx, DWORD PTR __Count$[ebp]
  00006	83 ec 0c	 sub	 esp, 12			; 0000000cH
  00009	33 c0		 xor	 eax, eax
  0000b	85 c9		 test	 ecx, ecx

; 34   : 		_Count = 0;
; 35   : 	else if (((_SIZT)(-1) / sizeof (_Ty) < _Count)

  0000d	74 3c		 je	 SHORT $LN5@Allocate@2

; 36   : 		|| (_Ptr = ::operator new(_Count * sizeof (_Ty))) == 0)

  0000f	81 f9 66 66 66
	06		 cmp	 ecx, 107374182		; 06666666H
  00015	77 0e		 ja	 SHORT $LN1@Allocate@2
  00017	6b c9 28	 imul	 ecx, 40			; 00000028H
  0001a	51		 push	 ecx
  0001b	e8 00 00 00 00	 call	 ??2@YAPAXI@Z		; operator new
  00020	59		 pop	 ecx
  00021	85 c0		 test	 eax, eax

; 38   : 
; 39   : 	return ((_Ty _FARQ *)_Ptr);

  00023	75 26		 jne	 SHORT $LN5@Allocate@2
$LN1@Allocate@2:

; 37   : 		_THROW_NCEE(bad_alloc, 0);

  00025	83 65 08 00	 and	 DWORD PTR $T529458[ebp], 0
  00029	8d 45 08	 lea	 eax, DWORD PTR $T529458[ebp]
  0002c	50		 push	 eax
  0002d	8d 4d f4	 lea	 ecx, DWORD PTR $T529454[ebp]
  00030	ff 15 00 00 00
	00		 call	 DWORD PTR __imp_??0exception@std@@QAE@ABQBD@Z
  00036	68 00 00 00 00	 push	 OFFSET __TI2?AVbad_alloc@std@@
  0003b	8d 45 f4	 lea	 eax, DWORD PTR $T529454[ebp]
  0003e	50		 push	 eax
  0003f	c7 45 f4 00 00
	00 00		 mov	 DWORD PTR $T529454[ebp], OFFSET ??_7bad_alloc@std@@6B@
  00046	e8 00 00 00 00	 call	 __CxxThrowException@8
$LN10@Allocate@2:
$LN5@Allocate@2:

; 40   : 	}

  0004b	c9		 leave
  0004c	c3		 ret	 0
$LN9@Allocate@2:
??$_Allocate@UWeaponInfo@@@std@@YAPAUWeaponInfo@@IPAU1@@Z ENDP ; std::_Allocate<WeaponInfo>
_TEXT	ENDS
PUBLIC	??$_Allocate@UForceInfo@@@std@@YAPAUForceInfo@@IPAU1@@Z ; std::_Allocate<ForceInfo>
; Function compile flags: /Ogsp
;	COMDAT ??$_Allocate@UForceInfo@@@std@@YAPAUForceInfo@@IPAU1@@Z
_TEXT	SEGMENT
$T529463 = -12						; size = 12
$T529467 = 8						; size = 4
__Count$ = 8						; size = 4
___formal$ = 12						; size = 4
??$_Allocate@UForceInfo@@@std@@YAPAUForceInfo@@IPAU1@@Z PROC ; std::_Allocate<ForceInfo>, COMDAT

; 30   : 	{	// allocate storage for _Count elements of type _Ty

  00000	55		 push	 ebp
  00001	8b ec		 mov	 ebp, esp

; 31   : 	void *_Ptr = 0;
; 32   : 
; 33   : 	if (_Count <= 0)

  00003	8b 4d 08	 mov	 ecx, DWORD PTR __Count$[ebp]
  00006	83 ec 0c	 sub	 esp, 12			; 0000000cH
  00009	33 c0		 xor	 eax, eax
  0000b	85 c9		 test	 ecx, ecx

; 34   : 		_Count = 0;
; 35   : 	else if (((_SIZT)(-1) / sizeof (_Ty) < _Count)

  0000d	74 3c		 je	 SHORT $LN5@Allocate@3

; 36   : 		|| (_Ptr = ::operator new(_Count * sizeof (_Ty))) == 0)

  0000f	81 f9 55 55 55
	15		 cmp	 ecx, 357913941		; 15555555H
  00015	77 0e		 ja	 SHORT $LN1@Allocate@3
  00017	6b c9 0c	 imul	 ecx, 12			; 0000000cH
  0001a	51		 push	 ecx
  0001b	e8 00 00 00 00	 call	 ??2@YAPAXI@Z		; operator new
  00020	59		 pop	 ecx
  00021	85 c0		 test	 eax, eax

; 38   : 
; 39   : 	return ((_Ty _FARQ *)_Ptr);

  00023	75 26		 jne	 SHORT $LN5@Allocate@3
$LN1@Allocate@3:

; 37   : 		_THROW_NCEE(bad_alloc, 0);

  00025	83 65 08 00	 and	 DWORD PTR $T529467[ebp], 0
  00029	8d 45 08	 lea	 eax, DWORD PTR $T529467[ebp]
  0002c	50		 push	 eax
  0002d	8d 4d f4	 lea	 ecx, DWORD PTR $T529463[ebp]
  00030	ff 15 00 00 00
	00		 call	 DWORD PTR __imp_??0exception@std@@QAE@ABQBD@Z
  00036	68 00 00 00 00	 push	 OFFSET __TI2?AVbad_alloc@std@@
  0003b	8d 45 f4	 lea	 eax, DWORD PTR $T529463[ebp]
  0003e	50		 push	 eax
  0003f	c7 45 f4 00 00
	00 00		 mov	 DWORD PTR $T529463[ebp], OFFSET ??_7bad_alloc@std@@6B@
  00046	e8 00 00 00 00	 call	 __CxxThrowException@8
$LN10@Allocate@3:
$LN5@Allocate@3:

; 40   : 	}

  0004b	c9		 leave
  0004c	c3		 ret	 0
$LN9@Allocate@3:
??$_Allocate@UForceInfo@@@std@@YAPAUForceInfo@@IPAU1@@Z ENDP ; std::_Allocate<ForceInfo>
_TEXT	ENDS
PUBLIC	??D?$_Vector_const_iterator@V?$_Vector_val@VioHashString@@V?$allocator@VioHashString@@@std@@@std@@@std@@QBEABVioHashString@@XZ ; std::_Vector_const_iterator<std::_Vector_val<ioHashString,std::allocator<ioHashString> > >::operator*
; Function compile flags: /Ogsp
; File c:\program files (x86)\microsoft visual studio 10.0\vc\include\vector
;	COMDAT ??D?$_Vector_const_iterator@V?$_Vector_val@VioHashString@@V?$allocator@VioHashString@@@std@@@std@@@std@@QBEABVioHashString@@XZ
_TEXT	SEGMENT
??D?$_Vector_const_iterator@V?$_Vector_val@VioHashString@@V?$allocator@VioHashString@@@std@@@std@@@std@@QBEABVioHashString@@XZ PROC ; std::_Vector_const_iterator<std::_Vector_val<ioHashString,std::allocator<ioHashString> > >::operator*, COMDAT
; _this$ = ecx

; 64   :  #if _ITERATOR_DEBUG_LEVEL == 2
; 65   : 		if (this->_Getcont() == 0
; 66   : 			|| this->_Ptr == 0
; 67   : 			|| this->_Ptr < ((_Myvec *)this->_Getcont())->_Myfirst
; 68   : 			|| ((_Myvec *)this->_Getcont())->_Mylast <= this->_Ptr)
; 69   : 			{	// report error
; 70   : 			_DEBUG_ERROR("vector iterator not dereferencable");
; 71   : 			_SCL_SECURE_OUT_OF_RANGE;
; 72   : 			}
; 73   : 
; 74   :  #elif _ITERATOR_DEBUG_LEVEL == 1
; 75   : 		_SCL_SECURE_VALIDATE(this->_Getcont() != 0);
; 76   : 		_SCL_SECURE_VALIDATE_RANGE(
; 77   : 			this->_Ptr != 0
; 78   : 			&& ((_Myvec *)this->_Getcont())->_Myfirst <= this->_Ptr
; 79   : 			&& this->_Ptr < ((_Myvec *)this->_Getcont())->_Mylast);
; 80   :  #endif /* _ITERATOR_DEBUG_LEVEL */
; 81   : 
; 82   : 		__analysis_assume(this->_Ptr != 0);
; 83   : 
; 84   : 		return (*this->_Ptr);

  00000	8b 01		 mov	 eax, DWORD PTR [ecx]

; 85   : 		}

  00002	c3		 ret	 0
??D?$_Vector_const_iterator@V?$_Vector_val@VioHashString@@V?$allocator@VioHashString@@@std@@@std@@@std@@QBEABVioHashString@@XZ ENDP ; std::_Vector_const_iterator<std::_Vector_val<ioHashString,std::allocator<ioHashString> > >::operator*
_TEXT	ENDS
PUBLIC	??E?$_Vector_const_iterator@V?$_Vector_val@VioHashString@@V?$allocator@VioHashString@@@std@@@std@@@std@@QAEAAV01@XZ ; std::_Vector_const_iterator<std::_Vector_val<ioHashString,std::allocator<ioHashString> > >::operator++
; Function compile flags: /Ogsp
;	COMDAT ??E?$_Vector_const_iterator@V?$_Vector_val@VioHashString@@V?$allocator@VioHashString@@@std@@@std@@@std@@QAEAAV01@XZ
_TEXT	SEGMENT
??E?$_Vector_const_iterator@V?$_Vector_val@VioHashString@@V?$allocator@VioHashString@@@std@@@std@@@std@@QAEAAV01@XZ PROC ; std::_Vector_const_iterator<std::_Vector_val<ioHashString,std::allocator<ioHashString> > >::operator++, COMDAT
; _this$ = ecx

; 93   : 		{	// preincrement

  00000	8b c1		 mov	 eax, ecx

; 94   :  #if _ITERATOR_DEBUG_LEVEL == 2
; 95   : 		if (this->_Getcont() == 0
; 96   : 			|| this->_Ptr == 0
; 97   : 			|| ((_Myvec *)this->_Getcont())->_Mylast <= this->_Ptr)
; 98   : 			{	// report error
; 99   : 			_DEBUG_ERROR("vector iterator not incrementable");
; 100  : 			_SCL_SECURE_OUT_OF_RANGE;
; 101  : 			}
; 102  : 
; 103  :  #elif _ITERATOR_DEBUG_LEVEL == 1
; 104  : 		_SCL_SECURE_VALIDATE(this->_Getcont() != 0);
; 105  : 		_SCL_SECURE_VALIDATE_RANGE(
; 106  : 			this->_Ptr != 0
; 107  : 			&& this->_Ptr < ((_Myvec *)this->_Getcont())->_Mylast);
; 108  :  #endif /* _ITERATOR_DEBUG_LEVEL */
; 109  : 
; 110  : 		++this->_Ptr;

  00002	83 00 10	 add	 DWORD PTR [eax], 16	; 00000010H

; 111  : 		return (*this);
; 112  : 		}

  00005	c3		 ret	 0
??E?$_Vector_const_iterator@V?$_Vector_val@VioHashString@@V?$allocator@VioHashString@@@std@@@std@@@std@@QAEAAV01@XZ ENDP ; std::_Vector_const_iterator<std::_Vector_val<ioHashString,std::allocator<ioHashString> > >::operator++
_TEXT	ENDS
PUBLIC	??$_Destroy@UForceInfo@@@std@@YAXPAUForceInfo@@@Z ; std::_Destroy<ForceInfo>
; Function compile flags: /Ogsp
; File c:\program files (x86)\microsoft visual studio 10.0\vc\include\xmemory
;	COMDAT ??$_Destroy@UForceInfo@@@std@@YAXPAUForceInfo@@@Z
_TEXT	SEGMENT
__Ptr$ = 8						; size = 4
??$_Destroy@UForceInfo@@@std@@YAXPAUForceInfo@@@Z PROC	; std::_Destroy<ForceInfo>, COMDAT

; 63   : 	_Ptr->~_Ty();
; 64   : 	}

  00000	c3		 ret	 0
??$_Destroy@UForceInfo@@@std@@YAXPAUForceInfo@@@Z ENDP	; std::_Destroy<ForceInfo>
_TEXT	ENDS
PUBLIC	??_GioHashString@@QAEPAXI@Z			; ioHashString::`scalar deleting destructor'
; Function compile flags: /Ogsp
;	COMDAT ??_GioHashString@@QAEPAXI@Z
_TEXT	SEGMENT
___flags$ = 8						; size = 4
??_GioHashString@@QAEPAXI@Z PROC			; ioHashString::`scalar deleting destructor', COMDAT
; _this$ = ecx
  00000	55		 push	 ebp
  00001	8b ec		 mov	 ebp, esp
  00003	56		 push	 esi
  00004	8b f1		 mov	 esi, ecx
  00006	ff 15 00 00 00
	00		 call	 DWORD PTR __imp_??1ioHashString@@QAE@XZ
  0000c	f6 45 08 01	 test	 BYTE PTR ___flags$[ebp], 1
  00010	74 07		 je	 SHORT $LN1@scalar@3
  00012	56		 push	 esi
  00013	e8 00 00 00 00	 call	 ??3@YAXPAX@Z		; operator delete
  00018	59		 pop	 ecx
$LN1@scalar@3:
  00019	8b c6		 mov	 eax, esi
  0001b	5e		 pop	 esi
  0001c	5d		 pop	 ebp
  0001d	c2 04 00	 ret	 4
??_GioHashString@@QAEPAXI@Z ENDP			; ioHashString::`scalar deleting destructor'
_TEXT	ENDS
PUBLIC	??_GWeaponInfo@@QAEPAXI@Z			; WeaponInfo::`scalar deleting destructor'
; Function compile flags: /Ogsp
;	COMDAT ??_GWeaponInfo@@QAEPAXI@Z
_TEXT	SEGMENT
___flags$ = 8						; size = 4
??_GWeaponInfo@@QAEPAXI@Z PROC				; WeaponInfo::`scalar deleting destructor', COMDAT
; _this$ = ecx
  00000	55		 push	 ebp
  00001	8b ec		 mov	 ebp, esp
  00003	56		 push	 esi
  00004	8b f1		 mov	 esi, ecx
  00006	8d 4e 08	 lea	 ecx, DWORD PTR [esi+8]
  00009	ff 15 00 00 00
	00		 call	 DWORD PTR __imp_??1ioHashString@@QAE@XZ
  0000f	f6 45 08 01	 test	 BYTE PTR ___flags$[ebp], 1
  00013	74 07		 je	 SHORT $LN1@scalar@4
  00015	56		 push	 esi
  00016	e8 00 00 00 00	 call	 ??3@YAXPAX@Z		; operator delete
  0001b	59		 pop	 ecx
$LN1@scalar@4:
  0001c	8b c6		 mov	 eax, esi
  0001e	5e		 pop	 esi
  0001f	5d		 pop	 ebp
  00020	c2 04 00	 ret	 4
??_GWeaponInfo@@QAEPAXI@Z ENDP				; WeaponInfo::`scalar deleting destructor'
_TEXT	ENDS
PUBLIC	??$_Construct@VioHashString@@ABV1@@std@@YAXPAVioHashString@@ABV1@@Z ; std::_Construct<ioHashString,ioHashString const &>
;	COMDAT xdata$x
; File c:\program files (x86)\microsoft visual studio 10.0\vc\include\utility
xdata$x	SEGMENT
__unwindtable$??$_Construct@VioHashString@@ABV1@@std@@YAXPAVioHashString@@ABV1@@Z DD 0ffffffffH
	DD	FLAT:__unwindfunclet$??$_Construct@VioHashString@@ABV1@@std@@YAXPAVioHashString@@ABV1@@Z$0
__ehfuncinfo$??$_Construct@VioHashString@@ABV1@@std@@YAXPAVioHashString@@ABV1@@Z DD 019930522H
	DD	01H
	DD	FLAT:__unwindtable$??$_Construct@VioHashString@@ABV1@@std@@YAXPAVioHashString@@ABV1@@Z
	DD	2 DUP(00H)
	DD	2 DUP(00H)
	DD	00H
	DD	01H
; Function compile flags: /Ogsp
; File c:\program files (x86)\microsoft visual studio 10.0\vc\include\xmemory
xdata$x	ENDS
;	COMDAT ??$_Construct@VioHashString@@ABV1@@std@@YAXPAVioHashString@@ABV1@@Z
_TEXT	SEGMENT
$T529490 = -16						; size = 4
__$EHRec$ = -12						; size = 12
__Vptr$ = 8						; size = 4
__Ptr$ = 8						; size = 4
__Val$ = 12						; size = 4
??$_Construct@VioHashString@@ABV1@@std@@YAXPAVioHashString@@ABV1@@Z PROC ; std::_Construct<ioHashString,ioHashString const &>, COMDAT

; 46   : 	{	// construct object at _Ptr with value _Val

  00000	6a 04		 push	 4
  00002	b8 00 00 00 00	 mov	 eax, __ehhandler$??$_Construct@VioHashString@@ABV1@@std@@YAXPAVioHashString@@ABV1@@Z
  00007	e8 00 00 00 00	 call	 __EH_prolog3

; 47   : 	void _FARQ *_Vptr = _Ptr;

  0000c	8b 4d 08	 mov	 ecx, DWORD PTR __Ptr$[ebp]
  0000f	89 4d 08	 mov	 DWORD PTR __Vptr$[ebp], ecx

; 48   : 	::new (_Vptr) _Ty1(_STD forward<_Ty2>(_Val));

  00012	89 4d f0	 mov	 DWORD PTR $T529490[ebp], ecx
  00015	83 65 fc 00	 and	 DWORD PTR __$EHRec$[ebp+8], 0
  00019	85 c9		 test	 ecx, ecx
  0001b	74 09		 je	 SHORT $LN3@Construct@2
  0001d	ff 75 0c	 push	 DWORD PTR __Val$[ebp]
  00020	ff 15 00 00 00
	00		 call	 DWORD PTR __imp_??0ioHashString@@QAE@ABV0@@Z
$LN3@Construct@2:

; 49   : 	}

  00026	e8 00 00 00 00	 call	 __EH_epilog3
  0002b	c3		 ret	 0
_TEXT	ENDS
;	COMDAT text$x
text$x	SEGMENT
__unwindfunclet$??$_Construct@VioHashString@@ABV1@@std@@YAXPAVioHashString@@ABV1@@Z$0:
  00000	ff 75 08	 push	 DWORD PTR __Vptr$[ebp]
  00003	ff 75 f0	 push	 DWORD PTR $T529490[ebp]
  00006	e8 00 00 00 00	 call	 ??3@YAXPAX0@Z		; operator delete
  0000b	59		 pop	 ecx
  0000c	59		 pop	 ecx
  0000d	c3		 ret	 0
__ehhandler$??$_Construct@VioHashString@@ABV1@@std@@YAXPAVioHashString@@ABV1@@Z:
  0000e	8b 54 24 08	 mov	 edx, DWORD PTR [esp+8]
  00012	8d 42 0c	 lea	 eax, DWORD PTR [edx+12]
  00015	8b 4a ec	 mov	 ecx, DWORD PTR [edx-20]
  00018	33 c8		 xor	 ecx, eax
  0001a	e8 00 00 00 00	 call	 @__security_check_cookie@4
  0001f	b8 00 00 00 00	 mov	 eax, OFFSET __ehfuncinfo$??$_Construct@VioHashString@@ABV1@@std@@YAXPAVioHashString@@ABV1@@Z
  00024	e9 00 00 00 00	 jmp	 ___CxxFrameHandler3
text$x	ENDS
??$_Construct@VioHashString@@ABV1@@std@@YAXPAVioHashString@@ABV1@@Z ENDP ; std::_Construct<ioHashString,ioHashString const &>
PUBLIC	??0WeaponInfo@@QAE@ABU0@@Z			; WeaponInfo::WeaponInfo
; Function compile flags: /Ogsp
;	COMDAT ??0WeaponInfo@@QAE@ABU0@@Z
_TEXT	SEGMENT
___that$ = 8						; size = 4
??0WeaponInfo@@QAE@ABU0@@Z PROC				; WeaponInfo::WeaponInfo, COMDAT
; _this$ = ecx
  00000	55		 push	 ebp
  00001	8b ec		 mov	 ebp, esp
  00003	56		 push	 esi
  00004	57		 push	 edi
  00005	8b 7d 08	 mov	 edi, DWORD PTR ___that$[ebp]
  00008	8b 07		 mov	 eax, DWORD PTR [edi]
  0000a	8b f1		 mov	 esi, ecx
  0000c	89 06		 mov	 DWORD PTR [esi], eax
  0000e	8b 47 04	 mov	 eax, DWORD PTR [edi+4]
  00011	89 46 04	 mov	 DWORD PTR [esi+4], eax
  00014	8d 47 08	 lea	 eax, DWORD PTR [edi+8]
  00017	50		 push	 eax
  00018	8d 4e 08	 lea	 ecx, DWORD PTR [esi+8]
  0001b	ff 15 00 00 00
	00		 call	 DWORD PTR __imp_??0ioHashString@@QAE@ABV0@@Z
  00021	8b 47 18	 mov	 eax, DWORD PTR [edi+24]
  00024	89 46 18	 mov	 DWORD PTR [esi+24], eax
  00027	8b 47 1c	 mov	 eax, DWORD PTR [edi+28]
  0002a	89 46 1c	 mov	 DWORD PTR [esi+28], eax
  0002d	8a 47 20	 mov	 al, BYTE PTR [edi+32]
  00030	88 46 20	 mov	 BYTE PTR [esi+32], al
  00033	8b 47 24	 mov	 eax, DWORD PTR [edi+36]
  00036	89 46 24	 mov	 DWORD PTR [esi+36], eax
  00039	5f		 pop	 edi
  0003a	8b c6		 mov	 eax, esi
  0003c	5e		 pop	 esi
  0003d	5d		 pop	 ebp
  0003e	c2 04 00	 ret	 4
??0WeaponInfo@@QAE@ABU0@@Z ENDP				; WeaponInfo::WeaponInfo
_TEXT	ENDS
PUBLIC	?ProcessNormalMove@ioChargeFlashJump@@IAEXPAVioBaseChar@@@Z ; ioChargeFlashJump::ProcessNormalMove
; Function compile flags: /Ogsp
; File d:\lost saga for developer\youtube\tutorial\source\src\lsclient\iochargeflashjump.cpp
;	COMDAT ?ProcessNormalMove@ioChargeFlashJump@@IAEXPAVioBaseChar@@@Z
_TEXT	SEGMENT
_pOwner$ = 8						; size = 4
?ProcessNormalMove@ioChargeFlashJump@@IAEXPAVioBaseChar@@@Z PROC ; ioChargeFlashJump::ProcessNormalMove, COMDAT
; _this$ = ecx

; 360  : 	if( !pOwner ) return;
; 361  : 
; 362  : 	ioEntityGroup *pGrp = pOwner->GetGroup();
; 363  : 	if( !pGrp ) return;
; 364  : }

  00000	c2 04 00	 ret	 4
?ProcessNormalMove@ioChargeFlashJump@@IAEXPAVioBaseChar@@@Z ENDP ; ioChargeFlashJump::ProcessNormalMove
_TEXT	ENDS
PUBLIC	??_C@_00CNPNBAHC@?$AA@				; `string'
PUBLIC	_pOwner$GSCopy$
PUBLIC	__$ArrayPad$
PUBLIC	?SetPowerChargeJumpAttack@ioChargeFlashJump@@QAE_NPAVioBaseChar@@@Z ; ioChargeFlashJump::SetPowerChargeJumpAttack
EXTRN	??1SP2Packet@@UAE@XZ:PROC			; SP2Packet::~SP2Packet
EXTRN	?SendToAllPlayingUser@P2PNetwork@@YAXAAVSP2Packet@@PAVioBaseChar@@@Z:PROC ; P2PNetwork::SendToAllPlayingUser
EXTRN	?FillAutoTargetInfo@ioBaseChar@@QAEXAAVSP2Packet@@@Z:PROC ; ioBaseChar::FillAutoTargetInfo
EXTRN	??6SP2Packet@@QAEAAV0@ABUD3DXQUATERNION@@@Z:PROC ; SP2Packet::operator<<
EXTRN	??6SP2Packet@@QAEAAV0@AAV?$CEncrypt@M@@@Z:PROC	; SP2Packet::operator<<
EXTRN	??6SP2Packet@@QAEAAV0@H@Z:PROC			; SP2Packet::operator<<
EXTRN	??6SP2Packet@@QAEAAV0@ABVioHashString@@@Z:PROC	; SP2Packet::operator<<
EXTRN	??0SP2Packet@@QAE@K@Z:PROC			; SP2Packet::SP2Packet
EXTRN	?SetJumpAttackState@ioBaseChar@@QAEXXZ:PROC	; ioBaseChar::SetJumpAttackState
EXTRN	?SetChangeJumpMotion@ioBaseChar@@QAEX_NABVioHashString@@11M@Z:PROC ; ioBaseChar::SetChangeJumpMotion
EXTRN	?SetEnableChangeTeam@ioBaseChar@@QAEX_N@Z:PROC	; ioBaseChar::SetEnableChangeTeam
EXTRN	?SetNoWoundState@ioBaseChar@@QAEX_N@Z:PROC	; ioBaseChar::SetNoWoundState
EXTRN	?SetEnableHide@ioBaseChar@@QAEX_NVioHashString@@1@Z:PROC ; ioBaseChar::SetEnableHide
EXTRN	__imp_??0ioHashString@@QAE@PBD@Z:PROC
EXTRN	?SetAutoTargetTrackingEndTime@ioBaseChar@@QAEXK@Z:PROC ; ioBaseChar::SetAutoTargetTrackingEndTime
EXTRN	__imp_?SetActionAni@ioEntityGroup@@QAE_NHMMMMMM_N0@Z:PROC
EXTRN	__imp_?GetAnimationFullTime@ioEntityGroup@@QAEMH@Z:PROC
EXTRN	__imp_?GetAnimationIdx@ioEntityGroup@@QAEHABVioHashString@@@Z:PROC
EXTRN	?SetAutoTarget@ioBaseChar@@QAEXW4AutoTargetType@@@Z:PROC ; ioBaseChar::SetAutoTarget
EXTRN	__imp_?ClearAllActionAni@ioEntityGroup@@QAEXM_N@Z:PROC
EXTRN	__imp_?ClearAllLoopAni@ioEntityGroup@@QAEXM_N@Z:PROC
EXTRN	__imp_?GetLoopSec@ioFrameTimer@@QBEKXZ:PROC
EXTRN	__imp_?GetSingleton@ioFrameTimer@@SAAAV1@XZ:PROC
EXTRN	___security_cookie:DWORD
EXTRN	__chkstk:PROC
;	COMDAT ??_C@_00CNPNBAHC@?$AA@
; File d:\lost saga for developer\youtube\tutorial\source\src\lsclient\iobasechar.h
CONST	SEGMENT
??_C@_00CNPNBAHC@?$AA@ DB 00H				; `string'
CONST	ENDS
;	COMDAT xdata$x
xdata$x	SEGMENT
__ehfuncinfo$?SetPowerChargeJumpAttack@ioChargeFlashJump@@QAE_NPAVioBaseChar@@@Z DD 019930522H
	DD	05H
	DD	FLAT:__unwindtable$?SetPowerChargeJumpAttack@ioChargeFlashJump@@QAE_NPAVioBaseChar@@@Z
	DD	2 DUP(00H)
	DD	2 DUP(00H)
	DD	00H
	DD	01H
__unwindtable$?SetPowerChargeJumpAttack@ioChargeFlashJump@@QAE_NPAVioBaseChar@@@Z DD 0ffffffffH
	DD	FLAT:__unwindfunclet$?SetPowerChargeJumpAttack@ioChargeFlashJump@@QAE_NPAVioBaseChar@@@Z$0
	DD	0ffffffffH
	DD	FLAT:__unwindfunclet$?SetPowerChargeJumpAttack@ioChargeFlashJump@@QAE_NPAVioBaseChar@@@Z$2
	DD	01H
	DD	FLAT:__unwindfunclet$?SetPowerChargeJumpAttack@ioChargeFlashJump@@QAE_NPAVioBaseChar@@@Z$3
	DD	02H
	DD	FLAT:__unwindfunclet$?SetPowerChargeJumpAttack@ioChargeFlashJump@@QAE_NPAVioBaseChar@@@Z$4
	DD	0ffffffffH
	DD	FLAT:__unwindfunclet$?SetPowerChargeJumpAttack@ioChargeFlashJump@@QAE_NPAVioBaseChar@@@Z$5
; Function compile flags: /Ogsp
; File d:\lost saga for developer\youtube\tutorial\source\src\lsclient\iochargeflashjump.cpp
xdata$x	ENDS
;	COMDAT ?SetPowerChargeJumpAttack@ioChargeFlashJump@@QAE_NPAVioBaseChar@@@Z
_TEXT	SEGMENT
$T529521 = -32876					; size = 16
$T529520 = -32860					; size = 16
$T529522 = -32844					; size = 16
tv132 = -32836						; size = 8
tv309 = -32832						; size = 4
tv304 = -32832						; size = 4
tv302 = -32832						; size = 4
tv300 = -32832						; size = 4
$T529518 = -32832					; size = 4
tv321 = -32828						; size = 4
$T529551 = -32828					; size = 4
_dwCurTime$ = -32824					; size = 4
tv306 = -32820						; size = 4
_fTimeRate$ = -32820					; size = 4
tv331 = -32816						; size = 4
tv326 = -32816						; size = 4
$T529519 = -32816					; size = 4
_iAniID$ = -32816					; size = 4
_pOwner$GSCopy$ = -32812				; size = 4
_kPacket$524413 = -32808				; size = 32792
__$ArrayPad$ = -16					; size = 4
__$EHRec$ = -12						; size = 12
_pOwner$ = 8						; size = 4
?SetPowerChargeJumpAttack@ioChargeFlashJump@@QAE_NPAVioBaseChar@@@Z PROC ; ioChargeFlashJump::SetPowerChargeJumpAttack, COMDAT
; _this$ = ecx

; 833  : {

  00000	55		 push	 ebp
  00001	8b ec		 mov	 ebp, esp
  00003	6a ff		 push	 -1
  00005	68 00 00 00 00	 push	 __ehhandler$?SetPowerChargeJumpAttack@ioChargeFlashJump@@QAE_NPAVioBaseChar@@@Z
  0000a	64 a1 00 00 00
	00		 mov	 eax, DWORD PTR fs:0
  00010	50		 push	 eax
  00011	b8 60 80 00 00	 mov	 eax, 32864		; 00008060H
  00016	e8 00 00 00 00	 call	 __chkstk
  0001b	a1 00 00 00 00	 mov	 eax, DWORD PTR ___security_cookie
  00020	33 c5		 xor	 eax, ebp
  00022	89 45 f0	 mov	 DWORD PTR __$ArrayPad$[ebp], eax
  00025	53		 push	 ebx
  00026	56		 push	 esi
  00027	57		 push	 edi
  00028	50		 push	 eax
  00029	8d 45 f4	 lea	 eax, DWORD PTR __$EHRec$[ebp]
  0002c	64 a3 00 00 00
	00		 mov	 DWORD PTR fs:0, eax
  00032	8b 45 08	 mov	 eax, DWORD PTR _pOwner$[ebp]
  00035	8b d9		 mov	 ebx, ecx

; 867  : 	{
; 868  : 		SP2Packet kPacket( CUPK_EXTEND_JUMP );

  00037	89 85 d4 7f ff
	ff		 mov	 DWORD PTR _pOwner$GSCopy$[ebp], eax
  0003d	85 c0		 test	 eax, eax
  0003f	75 07		 jne	 SHORT $LN3@SetPowerCh
$LN40@SetPowerCh:

; 834  : 	if( !pOwner ) return false;

  00041	32 c0		 xor	 al, al
  00043	e9 3c 03 00 00	 jmp	 $LN4@SetPowerCh
$LN3@SetPowerCh:

; 835  : 
; 836  : 	ioEntityGroup *pGrp = pOwner->GetGroup();

  00048	8b 70 04	 mov	 esi, DWORD PTR [eax+4]

; 837  : 	if( !pGrp ) return false;

  0004b	85 f6		 test	 esi, esi
  0004d	74 f2		 je	 SHORT $LN40@SetPowerCh

; 838  : 
; 839  : 	DWORD dwDelayTime = 0;
; 840  : 	DWORD dwCurTime = FRAMEGETTIME();

  0004f	ff 15 00 00 00
	00		 call	 DWORD PTR __imp_?GetSingleton@ioFrameTimer@@SAAAV1@XZ
  00055	8b c8		 mov	 ecx, eax
  00057	ff 15 00 00 00
	00		 call	 DWORD PTR __imp_?GetLoopSec@ioFrameTimer@@QBEKXZ
  0005d	89 85 c8 7f ff
	ff		 mov	 DWORD PTR _dwCurTime$[ebp], eax

; 841  : 
; 842  : 	pGrp->ClearAllLoopAni( FLOAT100, true );

  00063	b8 64 00 00 00	 mov	 eax, 100		; 00000064H
  00068	33 ff		 xor	 edi, edi
  0006a	47		 inc	 edi
  0006b	89 85 d0 7f ff
	ff		 mov	 DWORD PTR tv331[ebp], eax
  00071	db 85 d0 7f ff
	ff		 fild	 DWORD PTR tv331[ebp]
  00077	57		 push	 edi
  00078	85 c0		 test	 eax, eax
  0007a	79 06		 jns	 SHORT $LN33@SetPowerCh
  0007c	d8 05 00 00 00
	00		 fadd	 DWORD PTR __real@4f800000
$LN33@SetPowerCh:
  00082	51		 push	 ecx
  00083	8b ce		 mov	 ecx, esi
  00085	d9 1c 24	 fstp	 DWORD PTR [esp]
  00088	ff 15 00 00 00
	00		 call	 DWORD PTR __imp_?ClearAllLoopAni@ioEntityGroup@@QAEXM_N@Z

; 843  : 	pGrp->ClearAllActionAni( FLOAT100, true );

  0008e	b8 64 00 00 00	 mov	 eax, 100		; 00000064H
  00093	89 85 d0 7f ff
	ff		 mov	 DWORD PTR tv326[ebp], eax
  00099	db 85 d0 7f ff
	ff		 fild	 DWORD PTR tv326[ebp]
  0009f	57		 push	 edi
  000a0	85 c0		 test	 eax, eax
  000a2	79 06		 jns	 SHORT $LN34@SetPowerCh
  000a4	d8 05 00 00 00
	00		 fadd	 DWORD PTR __real@4f800000
$LN34@SetPowerCh:
  000aa	51		 push	 ecx
  000ab	8b ce		 mov	 ecx, esi
  000ad	d9 1c 24	 fstp	 DWORD PTR [esp]
  000b0	ff 15 00 00 00
	00		 call	 DWORD PTR __imp_?ClearAllActionAni@ioEntityGroup@@QAEXM_N@Z

; 844  : 
; 845  : 	pOwner->SetAutoTarget( ATT_JUMP );

  000b6	8b 8d d4 7f ff
	ff		 mov	 ecx, DWORD PTR _pOwner$GSCopy$[ebp]
  000bc	6a 03		 push	 3
  000be	e8 00 00 00 00	 call	 ?SetAutoTarget@ioBaseChar@@QAEXW4AutoTargetType@@@Z ; ioBaseChar::SetAutoTarget

; 846  : 
; 847  : 	int iAniID = pGrp->GetAnimationIdx( m_szChargingAni );

  000c3	8d 83 d8 01 00
	00		 lea	 eax, DWORD PTR [ebx+472]
  000c9	50		 push	 eax
  000ca	8b ce		 mov	 ecx, esi
  000cc	ff 15 00 00 00
	00		 call	 DWORD PTR __imp_?GetAnimationIdx@ioEntityGroup@@QAEHABVioHashString@@@Z

; 848  : 	float fTimeRate = (float)m_dwChargingTime / pGrp->GetAnimationFullTime( iAniID );

  000d2	db 83 d4 01 00
	00		 fild	 DWORD PTR [ebx+468]
  000d8	8b 8b d4 01 00
	00		 mov	 ecx, DWORD PTR [ebx+468]
  000de	89 85 d0 7f ff
	ff		 mov	 DWORD PTR _iAniID$[ebp], eax
  000e4	85 c9		 test	 ecx, ecx
  000e6	79 06		 jns	 SHORT $LN35@SetPowerCh
  000e8	d8 05 00 00 00
	00		 fadd	 DWORD PTR __real@4f800000
$LN35@SetPowerCh:
  000ee	50		 push	 eax
  000ef	dd 9d bc 7f ff
	ff		 fstp	 QWORD PTR tv132[ebp]
  000f5	8b ce		 mov	 ecx, esi
  000f7	ff 15 00 00 00
	00		 call	 DWORD PTR __imp_?GetAnimationFullTime@ioEntityGroup@@QAEMH@Z
  000fd	dc bd bc 7f ff
	ff		 fdivr	 QWORD PTR tv132[ebp]
  00103	d9 9d cc 7f ff
	ff		 fstp	 DWORD PTR _fTimeRate$[ebp]

; 849  : 	pGrp->SetActionAni( iAniID, FLOAT100, FLOAT100, FLOAT1, FLOAT1/fTimeRate, 0.0f, 0.0f, true );

  00109	b8 01 00 00 00	 mov	 eax, 1
  0010e	8b c8		 mov	 ecx, eax
  00110	b8 01 00 00 00	 mov	 eax, 1
  00115	8b d0		 mov	 edx, eax
  00117	b8 64 00 00 00	 mov	 eax, 100		; 00000064H
  0011c	89 85 c4 7f ff
	ff		 mov	 DWORD PTR $T529551[ebp], eax
  00122	b8 64 00 00 00	 mov	 eax, 100		; 00000064H
  00127	0f 57 c0	 xorps	 xmm0, xmm0
  0012a	57		 push	 edi
  0012b	57		 push	 edi
  0012c	83 ec 18	 sub	 esp, 24			; 00000018H
  0012f	f3 0f 11 44 24
	14		 movss	 DWORD PTR [esp+20], xmm0
  00135	89 8d c0 7f ff
	ff		 mov	 DWORD PTR tv309[ebp], ecx
  0013b	db 85 c0 7f ff
	ff		 fild	 DWORD PTR tv309[ebp]
  00141	f3 0f 11 44 24
	10		 movss	 DWORD PTR [esp+16], xmm0
  00147	85 c9		 test	 ecx, ecx
  00149	79 06		 jns	 SHORT $LN36@SetPowerCh
  0014b	d8 05 00 00 00
	00		 fadd	 DWORD PTR __real@4f800000
$LN36@SetPowerCh:
  00151	d8 b5 cc 7f ff
	ff		 fdiv	 DWORD PTR _fTimeRate$[ebp]
  00157	89 95 c0 7f ff
	ff		 mov	 DWORD PTR tv304[ebp], edx
  0015d	d9 9d cc 7f ff
	ff		 fstp	 DWORD PTR tv306[ebp]
  00163	d9 85 cc 7f ff
	ff		 fld	 DWORD PTR tv306[ebp]
  00169	d9 5c 24 0c	 fstp	 DWORD PTR [esp+12]
  0016d	db 85 c0 7f ff
	ff		 fild	 DWORD PTR tv304[ebp]
  00173	85 d2		 test	 edx, edx
  00175	79 06		 jns	 SHORT $LN37@SetPowerCh
  00177	d8 05 00 00 00
	00		 fadd	 DWORD PTR __real@4f800000
$LN37@SetPowerCh:
  0017d	8b 8d c4 7f ff
	ff		 mov	 ecx, DWORD PTR $T529551[ebp]
  00183	d9 5c 24 08	 fstp	 DWORD PTR [esp+8]
  00187	db 85 c4 7f ff
	ff		 fild	 DWORD PTR $T529551[ebp]
  0018d	85 c9		 test	 ecx, ecx
  0018f	79 06		 jns	 SHORT $LN38@SetPowerCh
  00191	d8 05 00 00 00
	00		 fadd	 DWORD PTR __real@4f800000
$LN38@SetPowerCh:
  00197	d9 5c 24 04	 fstp	 DWORD PTR [esp+4]
  0019b	89 85 c0 7f ff
	ff		 mov	 DWORD PTR tv300[ebp], eax
  001a1	db 85 c0 7f ff
	ff		 fild	 DWORD PTR tv300[ebp]
  001a7	85 c0		 test	 eax, eax
  001a9	79 06		 jns	 SHORT $LN39@SetPowerCh
  001ab	d8 05 00 00 00
	00		 fadd	 DWORD PTR __real@4f800000
$LN39@SetPowerCh:
  001b1	d9 1c 24	 fstp	 DWORD PTR [esp]
  001b4	ff b5 d0 7f ff
	ff		 push	 DWORD PTR _iAniID$[ebp]
  001ba	8b ce		 mov	 ecx, esi
  001bc	ff 15 00 00 00
	00		 call	 DWORD PTR __imp_?SetActionAni@ioEntityGroup@@QAE_NHMMMMMM_N0@Z

; 850  : 
; 851  : 	pOwner->SetAutoTargetTrackingEndTime( dwCurTime );

  001c2	ff b5 c8 7f ff
	ff		 push	 DWORD PTR _dwCurTime$[ebp]
  001c8	8b 8d d4 7f ff
	ff		 mov	 ecx, DWORD PTR _pOwner$GSCopy$[ebp]
  001ce	e8 00 00 00 00	 call	 ?SetAutoTargetTrackingEndTime@ioBaseChar@@QAEXK@Z ; ioBaseChar::SetAutoTargetTrackingEndTime

; 852  : 
; 853  : 	m_bUseExtendJump = true;
; 854  : 	m_bUseExtendJumpAttack = false;
; 855  : 
; 856  : 	pOwner->SetEnableHide( false );

  001d3	8b 35 00 00 00
	00		 mov	 esi, DWORD PTR __imp_??0ioHashString@@QAE@PBD@Z
  001d9	83 ec 10	 sub	 esp, 16			; 00000010H
  001dc	8b cc		 mov	 ecx, esp
  001de	89 a5 c0 7f ff
	ff		 mov	 DWORD PTR $T529518[ebp], esp
  001e4	bf 00 00 00 00	 mov	 edi, OFFSET ??_C@_00CNPNBAHC@?$AA@
  001e9	57		 push	 edi
  001ea	c6 43 10 01	 mov	 BYTE PTR [ebx+16], 1
  001ee	c6 83 e8 01 00
	00 00		 mov	 BYTE PTR [ebx+488], 0
  001f5	ff d6		 call	 esi
  001f7	83 65 fc 00	 and	 DWORD PTR __$EHRec$[ebp+8], 0
  001fb	83 ec 10	 sub	 esp, 16			; 00000010H
  001fe	8b cc		 mov	 ecx, esp
  00200	89 a5 d0 7f ff
	ff		 mov	 DWORD PTR $T529519[ebp], esp
  00206	57		 push	 edi
  00207	ff d6		 call	 esi
  00209	8b 8d d4 7f ff
	ff		 mov	 ecx, DWORD PTR _pOwner$GSCopy$[ebp]
  0020f	83 4d fc ff	 or	 DWORD PTR __$EHRec$[ebp+8], -1
  00213	6a 00		 push	 0
  00215	e8 00 00 00 00	 call	 ?SetEnableHide@ioBaseChar@@QAEX_NVioHashString@@1@Z ; ioBaseChar::SetEnableHide

; 857  : 	pOwner->SetNoWoundState( false );

  0021a	8b 8d d4 7f ff
	ff		 mov	 ecx, DWORD PTR _pOwner$GSCopy$[ebp]
  00220	6a 00		 push	 0
  00222	e8 00 00 00 00	 call	 ?SetNoWoundState@ioBaseChar@@QAEX_N@Z ; ioBaseChar::SetNoWoundState

; 858  : 	pOwner->SetEnableChangeTeam( false );

  00227	8b 8d d4 7f ff
	ff		 mov	 ecx, DWORD PTR _pOwner$GSCopy$[ebp]
  0022d	6a 00		 push	 0
  0022f	e8 00 00 00 00	 call	 ?SetEnableChangeTeam@ioBaseChar@@QAEX_N@Z ; ioBaseChar::SetEnableChangeTeam

; 859  : 
; 860  : 	pOwner->SetChangeJumpMotion( false, "", "", "", 0.0f );

  00234	57		 push	 edi
  00235	8d 8d a4 7f ff
	ff		 lea	 ecx, DWORD PTR $T529520[ebp]
  0023b	ff d6		 call	 esi
  0023d	57		 push	 edi
  0023e	8d 8d 94 7f ff
	ff		 lea	 ecx, DWORD PTR $T529521[ebp]
  00244	c7 45 fc 01 00
	00 00		 mov	 DWORD PTR __$EHRec$[ebp+8], 1
  0024b	ff d6		 call	 esi
  0024d	57		 push	 edi
  0024e	8d 8d b4 7f ff
	ff		 lea	 ecx, DWORD PTR $T529522[ebp]
  00254	c6 45 fc 02	 mov	 BYTE PTR __$EHRec$[ebp+8], 2
  00258	ff d6		 call	 esi
  0025a	0f 57 c0	 xorps	 xmm0, xmm0
  0025d	8b bd d4 7f ff
	ff		 mov	 edi, DWORD PTR _pOwner$GSCopy$[ebp]
  00263	51		 push	 ecx
  00264	f3 0f 11 04 24	 movss	 DWORD PTR [esp], xmm0
  00269	8d 85 a4 7f ff
	ff		 lea	 eax, DWORD PTR $T529520[ebp]
  0026f	50		 push	 eax
  00270	8d 85 94 7f ff
	ff		 lea	 eax, DWORD PTR $T529521[ebp]
  00276	50		 push	 eax
  00277	8d 85 b4 7f ff
	ff		 lea	 eax, DWORD PTR $T529522[ebp]
  0027d	50		 push	 eax
  0027e	6a 00		 push	 0
  00280	8b cf		 mov	 ecx, edi
  00282	c6 45 fc 03	 mov	 BYTE PTR __$EHRec$[ebp+8], 3
  00286	e8 00 00 00 00	 call	 ?SetChangeJumpMotion@ioBaseChar@@QAEX_NABVioHashString@@11M@Z ; ioBaseChar::SetChangeJumpMotion
  0028b	8b 35 00 00 00
	00		 mov	 esi, DWORD PTR __imp_??1ioHashString@@QAE@XZ
  00291	8d 8d b4 7f ff
	ff		 lea	 ecx, DWORD PTR $T529522[ebp]
  00297	c6 45 fc 02	 mov	 BYTE PTR __$EHRec$[ebp+8], 2
  0029b	ff d6		 call	 esi
  0029d	8d 8d 94 7f ff
	ff		 lea	 ecx, DWORD PTR $T529521[ebp]
  002a3	c6 45 fc 01	 mov	 BYTE PTR __$EHRec$[ebp+8], 1
  002a7	ff d6		 call	 esi
  002a9	83 4d fc ff	 or	 DWORD PTR __$EHRec$[ebp+8], -1
  002ad	8d 8d a4 7f ff
	ff		 lea	 ecx, DWORD PTR $T529520[ebp]
  002b3	ff d6		 call	 esi

; 861  : 	pOwner->SetJumpAttackState();

  002b5	8b cf		 mov	 ecx, edi
  002b7	e8 00 00 00 00	 call	 ?SetJumpAttackState@ioBaseChar@@QAEXXZ ; ioBaseChar::SetJumpAttackState

; 862  : 
; 863  : 	m_FlashJumpState = FJS_CHARGING;
; 864  : 	m_dwChargingStartTime = dwCurTime;

  002bc	8b 85 c8 7f ff
	ff		 mov	 eax, DWORD PTR _dwCurTime$[ebp]
  002c2	c7 83 24 01 00
	00 01 00 00 00	 mov	 DWORD PTR [ebx+292], 1
  002cc	89 83 d0 01 00
	00		 mov	 DWORD PTR [ebx+464], eax

; 865  : 
; 866  : 	if( pOwner->IsNeedSendNetwork() )

  002d2	8b 07		 mov	 eax, DWORD PTR [edi]
  002d4	8b cf		 mov	 ecx, edi
  002d6	ff 90 04 01 00
	00		 call	 DWORD PTR [eax+260]
  002dc	84 c0		 test	 al, al
  002de	0f 84 9e 00 00
	00		 je	 $LN1@SetPowerCh

; 867  : 	{
; 868  : 		SP2Packet kPacket( CUPK_EXTEND_JUMP );

  002e4	68 46 41 00 00	 push	 16710			; 00004146H
  002e9	8d 8d d8 7f ff
	ff		 lea	 ecx, DWORD PTR _kPacket$524413[ebp]
  002ef	e8 00 00 00 00	 call	 ??0SP2Packet@@QAE@K@Z	; SP2Packet::SP2Packet

; 869  : 		kPacket << pOwner->GetCharName();

  002f4	8d 87 d4 02 00
	00		 lea	 eax, DWORD PTR [edi+724]
  002fa	50		 push	 eax
  002fb	8d 8d d8 7f ff
	ff		 lea	 ecx, DWORD PTR _kPacket$524413[ebp]
  00301	c7 45 fc 04 00
	00 00		 mov	 DWORD PTR __$EHRec$[ebp+8], 4
  00308	e8 00 00 00 00	 call	 ??6SP2Packet@@QAEAAV0@ABVioHashString@@@Z ; SP2Packet::operator<<

; 870  : 		kPacket << (int)GetType();

  0030d	8b 03		 mov	 eax, DWORD PTR [ebx]
  0030f	8b cb		 mov	 ecx, ebx
  00311	ff 50 08	 call	 DWORD PTR [eax+8]
  00314	50		 push	 eax
  00315	8d 8d d8 7f ff
	ff		 lea	 ecx, DWORD PTR _kPacket$524413[ebp]
  0031b	e8 00 00 00 00	 call	 ??6SP2Packet@@QAEAAV0@H@Z ; SP2Packet::operator<<

; 871  : 		kPacket << pOwner->GetHP().m_fCurValue;

  00320	8d 87 c0 00 00
	00		 lea	 eax, DWORD PTR [edi+192]
  00326	50		 push	 eax
  00327	8d 8d d8 7f ff
	ff		 lea	 ecx, DWORD PTR _kPacket$524413[ebp]
  0032d	e8 00 00 00 00	 call	 ??6SP2Packet@@QAEAAV0@AAV?$CEncrypt@M@@@Z ; SP2Packet::operator<<

; 872  : 		kPacket << (int)m_FlashJumpState;

  00332	ff b3 24 01 00
	00		 push	 DWORD PTR [ebx+292]
  00338	8d 8d d8 7f ff
	ff		 lea	 ecx, DWORD PTR _kPacket$524413[ebp]
  0033e	e8 00 00 00 00	 call	 ??6SP2Packet@@QAEAAV0@H@Z ; SP2Packet::operator<<

; 873  : 		kPacket << pOwner->GetTargetRot();

  00343	8d 87 a4 06 00
	00		 lea	 eax, DWORD PTR [edi+1700]
  00349	50		 push	 eax
  0034a	8d 8d d8 7f ff
	ff		 lea	 ecx, DWORD PTR _kPacket$524413[ebp]
  00350	e8 00 00 00 00	 call	 ??6SP2Packet@@QAEAAV0@ABUD3DXQUATERNION@@@Z ; SP2Packet::operator<<

; 874  : 		pOwner->FillAutoTargetInfo( kPacket );

  00355	8d 85 d8 7f ff
	ff		 lea	 eax, DWORD PTR _kPacket$524413[ebp]
  0035b	50		 push	 eax
  0035c	8b cf		 mov	 ecx, edi
  0035e	e8 00 00 00 00	 call	 ?FillAutoTargetInfo@ioBaseChar@@QAEXAAVSP2Packet@@@Z ; ioBaseChar::FillAutoTargetInfo

; 875  : 		P2PNetwork::SendToAllPlayingUser( kPacket );

  00363	8d 85 d8 7f ff
	ff		 lea	 eax, DWORD PTR _kPacket$524413[ebp]
  00369	6a 00		 push	 0
  0036b	50		 push	 eax
  0036c	e8 00 00 00 00	 call	 ?SendToAllPlayingUser@P2PNetwork@@YAXAAVSP2Packet@@PAVioBaseChar@@@Z ; P2PNetwork::SendToAllPlayingUser

; 876  : 	}

  00371	83 4d fc ff	 or	 DWORD PTR __$EHRec$[ebp+8], -1
  00375	59		 pop	 ecx
  00376	59		 pop	 ecx
  00377	8d 8d d8 7f ff
	ff		 lea	 ecx, DWORD PTR _kPacket$524413[ebp]
  0037d	e8 00 00 00 00	 call	 ??1SP2Packet@@UAE@XZ	; SP2Packet::~SP2Packet
$LN1@SetPowerCh:

; 877  : 
; 878  : 	return true;

  00382	b0 01		 mov	 al, 1
$LN4@SetPowerCh:

; 879  : }

  00384	8b 4d f4	 mov	 ecx, DWORD PTR __$EHRec$[ebp]
  00387	64 89 0d 00 00
	00 00		 mov	 DWORD PTR fs:0, ecx
  0038e	59		 pop	 ecx
  0038f	5f		 pop	 edi
  00390	5e		 pop	 esi
  00391	5b		 pop	 ebx
  00392	8b 4d f0	 mov	 ecx, DWORD PTR __$ArrayPad$[ebp]
  00395	33 cd		 xor	 ecx, ebp
  00397	e8 00 00 00 00	 call	 @__security_check_cookie@4
  0039c	c9		 leave
  0039d	c2 04 00	 ret	 4
_TEXT	ENDS
;	COMDAT text$x
text$x	SEGMENT
__unwindfunclet$?SetPowerChargeJumpAttack@ioChargeFlashJump@@QAE_NPAVioBaseChar@@@Z$0:
  00000	8b 8d c0 7f ff
	ff		 mov	 ecx, DWORD PTR $T529518[ebp]
  00006	ff 25 00 00 00
	00		 jmp	 DWORD PTR __imp_??1ioHashString@@QAE@XZ
__unwindfunclet$?SetPowerChargeJumpAttack@ioChargeFlashJump@@QAE_NPAVioBaseChar@@@Z$2:
  0000c	8d 8d a4 7f ff
	ff		 lea	 ecx, DWORD PTR $T529520[ebp]
  00012	ff 25 00 00 00
	00		 jmp	 DWORD PTR __imp_??1ioHashString@@QAE@XZ
__unwindfunclet$?SetPowerChargeJumpAttack@ioChargeFlashJump@@QAE_NPAVioBaseChar@@@Z$3:
  00018	8d 8d 94 7f ff
	ff		 lea	 ecx, DWORD PTR $T529521[ebp]
  0001e	ff 25 00 00 00
	00		 jmp	 DWORD PTR __imp_??1ioHashString@@QAE@XZ
__unwindfunclet$?SetPowerChargeJumpAttack@ioChargeFlashJump@@QAE_NPAVioBaseChar@@@Z$4:
  00024	8d 8d b4 7f ff
	ff		 lea	 ecx, DWORD PTR $T529522[ebp]
  0002a	ff 25 00 00 00
	00		 jmp	 DWORD PTR __imp_??1ioHashString@@QAE@XZ
__unwindfunclet$?SetPowerChargeJumpAttack@ioChargeFlashJump@@QAE_NPAVioBaseChar@@@Z$5:
  00030	8d 8d d8 7f ff
	ff		 lea	 ecx, DWORD PTR _kPacket$524413[ebp]
  00036	e9 00 00 00 00	 jmp	 ??1SP2Packet@@UAE@XZ	; SP2Packet::~SP2Packet
__ehhandler$?SetPowerChargeJumpAttack@ioChargeFlashJump@@QAE_NPAVioBaseChar@@@Z:
  0003b	8b 54 24 08	 mov	 edx, DWORD PTR [esp+8]
  0003f	8d 42 0c	 lea	 eax, DWORD PTR [edx+12]
  00042	8b 8a 90 7f ff
	ff		 mov	 ecx, DWORD PTR [edx-32880]
  00048	33 c8		 xor	 ecx, eax
  0004a	e8 00 00 00 00	 call	 @__security_check_cookie@4
  0004f	8b 4a fc	 mov	 ecx, DWORD PTR [edx-4]
  00052	33 c8		 xor	 ecx, eax
  00054	e8 00 00 00 00	 call	 @__security_check_cookie@4
  00059	b8 00 00 00 00	 mov	 eax, OFFSET __ehfuncinfo$?SetPowerChargeJumpAttack@ioChargeFlashJump@@QAE_NPAVioBaseChar@@@Z
  0005e	e9 00 00 00 00	 jmp	 ___CxxFrameHandler3
text$x	ENDS
?SetPowerChargeJumpAttack@ioChargeFlashJump@@QAE_NPAVioBaseChar@@@Z ENDP ; ioChargeFlashJump::SetPowerChargeJumpAttack
PUBLIC	__real@4066800000000000
PUBLIC	__real@4046800000000000
PUBLIC	__$ArrayPad$
PUBLIC	?ChangeToPowerChargeJumpAttack@ioChargeFlashJump@@IAEXPAVioBaseChar@@@Z ; ioChargeFlashJump::ChangeToPowerChargeJumpAttack
EXTRN	??6SP2Packet@@QAEAAV0@ABUD3DXVECTOR3@@@Z:PROC	; SP2Packet::operator<<
EXTRN	?IncreaseWeaponIndexBase@ioBaseChar@@QAEKXZ:PROC ; ioBaseChar::IncreaseWeaponIndexBase
EXTRN	?RefreshFireTimeList@ioBaseChar@@QAEXHABV?$vector@UWeaponInfo@@V?$allocator@UWeaponInfo@@@std@@@std@@W4FireTimeType@@MK_N@Z:PROC ; ioBaseChar::RefreshFireTimeList
EXTRN	?SetInputDirection@ioBaseChar@@QAEXABUD3DXVECTOR3@@@Z:PROC ; ioBaseChar::SetInputDirection
EXTRN	?SetTargetRotToRotate@ioBaseChar@@QAEXABUD3DXQUATERNION@@_N1@Z:PROC ; ioBaseChar::SetTargetRotToRotate
EXTRN	_D3DXQuaternionRotationYawPitchRoll@16:PROC
EXTRN	__imp_?ArrangeHead@ioMath@@SAMM@Z:PROC
EXTRN	?CheckCurDirKey@ioBaseChar@@QAE?AW4DirKeyInput@ioUserKeyInput@@XZ:PROC ; ioBaseChar::CheckCurDirKey
EXTRN	?IsCanRotateJumpAttack@ioBaseChar@@QAE_NXZ:PROC	; ioBaseChar::IsCanRotateJumpAttack
;	COMDAT __real@4066800000000000
; File d:\lost saga for developer\youtube\tutorial\source\src\lsclient\iobasechar.h
CONST	SEGMENT
__real@4066800000000000 DQ 04066800000000000r	; 180
CONST	ENDS
;	COMDAT __real@4046800000000000
CONST	SEGMENT
__real@4046800000000000 DQ 04046800000000000r	; 45
CONST	ENDS
;	COMDAT xdata$x
xdata$x	SEGMENT
__unwindtable$?ChangeToPowerChargeJumpAttack@ioChargeFlashJump@@IAEXPAVioBaseChar@@@Z DD 0ffffffffH
	DD	FLAT:__unwindfunclet$?ChangeToPowerChargeJumpAttack@ioChargeFlashJump@@IAEXPAVioBaseChar@@@Z$0
__ehfuncinfo$?ChangeToPowerChargeJumpAttack@ioChargeFlashJump@@IAEXPAVioBaseChar@@@Z DD 019930522H
	DD	01H
	DD	FLAT:__unwindtable$?ChangeToPowerChargeJumpAttack@ioChargeFlashJump@@IAEXPAVioBaseChar@@@Z
	DD	2 DUP(00H)
	DD	2 DUP(00H)
	DD	00H
	DD	01H
; Function compile flags: /Ogsp
; File d:\lost saga for developer\youtube\tutorial\source\src\lsclient\iochargeflashjump.cpp
xdata$x	ENDS
;	COMDAT ?ChangeToPowerChargeJumpAttack@ioChargeFlashJump@@IAEXPAVioBaseChar@@@Z
_TEXT	SEGMENT
_qtRotate$524444 = -32848				; size = 16
_dwPreDelay$ = -32832					; size = 4
tv304 = -32828						; size = 4
$T529622 = -32828					; size = 4
_iAniID$ = -32824					; size = 4
_fTimeRate$ = -32820					; size = 4
tv346 = -32816						; size = 4
tv326 = -32816						; size = 4
tv321 = -32816						; size = 4
tv302 = -32816						; size = 4
$T529626 = -32816					; size = 4
tv313 = -32812						; size = 4
tv311 = -32812						; size = 4
tv308 = -32812						; size = 4
tv306 = -32812						; size = 4
_fYawD$524442 = -32812					; size = 4
_kPacket$524453 = -32808				; size = 32792
__$ArrayPad$ = -16					; size = 4
__$EHRec$ = -12						; size = 12
_pOwner$ = 8						; size = 4
?ChangeToPowerChargeJumpAttack@ioChargeFlashJump@@IAEXPAVioBaseChar@@@Z PROC ; ioChargeFlashJump::ChangeToPowerChargeJumpAttack, COMDAT
; _this$ = ecx

; 907  : {

  00000	55		 push	 ebp
  00001	8b ec		 mov	 ebp, esp
  00003	6a ff		 push	 -1
  00005	68 00 00 00 00	 push	 __ehhandler$?ChangeToPowerChargeJumpAttack@ioChargeFlashJump@@IAEXPAVioBaseChar@@@Z
  0000a	64 a1 00 00 00
	00		 mov	 eax, DWORD PTR fs:0
  00010	50		 push	 eax
  00011	b8 44 80 00 00	 mov	 eax, 32836		; 00008044H
  00016	e8 00 00 00 00	 call	 __chkstk
  0001b	a1 00 00 00 00	 mov	 eax, DWORD PTR ___security_cookie
  00020	33 c5		 xor	 eax, ebp
  00022	89 45 f0	 mov	 DWORD PTR __$ArrayPad$[ebp], eax
  00025	53		 push	 ebx
  00026	56		 push	 esi
  00027	57		 push	 edi
  00028	50		 push	 eax
  00029	8d 45 f4	 lea	 eax, DWORD PTR __$EHRec$[ebp]
  0002c	64 a3 00 00 00
	00		 mov	 DWORD PTR fs:0, eax
  00032	8b 7d 08	 mov	 edi, DWORD PTR _pOwner$[ebp]

; 908  : 	ioEntityGroup *pGrp = pOwner->GetGroup();

  00035	8b 5f 04	 mov	 ebx, DWORD PTR [edi+4]
  00038	8b f1		 mov	 esi, ecx

; 909  : 	if( !pGrp ) return;

  0003a	85 db		 test	 ebx, ebx
  0003c	0f 84 6a 03 00
	00		 je	 $LN1@ChangeToPo

; 910  : 
; 911  : 	int iAniID = pGrp->GetAnimationIdx( m_ExtendJumpAttack.m_AttackAnimation );

  00042	8d 86 3c 02 00
	00		 lea	 eax, DWORD PTR [esi+572]
  00048	50		 push	 eax
  00049	8b cb		 mov	 ecx, ebx
  0004b	ff 15 00 00 00
	00		 call	 DWORD PTR __imp_?GetAnimationIdx@ioEntityGroup@@QAEHABVioHashString@@@Z

; 912  : 	float fTimeRate = m_ExtendJumpAttack.m_fAttackAniRate;

  00051	f3 0f 10 86 4c
	02 00 00	 movss	 xmm0, DWORD PTR [esi+588]

; 913  : 	DWORD dwPreDelay = m_ExtendJumpAttack.m_dwPreDelay;
; 914  : 
; 915  : 	if( fTimeRate <= 0.0f )

  00059	0f 57 c9	 xorps	 xmm1, xmm1
  0005c	0f 2f c8	 comiss	 xmm1, xmm0
  0005f	89 85 c8 7f ff
	ff		 mov	 DWORD PTR _iAniID$[ebp], eax
  00065	8b 86 84 02 00
	00		 mov	 eax, DWORD PTR [esi+644]
  0006b	f3 0f 11 85 cc
	7f ff ff	 movss	 DWORD PTR _fTimeRate$[ebp], xmm0
  00073	89 85 c0 7f ff
	ff		 mov	 DWORD PTR _dwPreDelay$[ebp], eax
  00079	72 21		 jb	 SHORT $LN4@ChangeToPo

; 916  : 		fTimeRate = FLOAT1;

  0007b	b8 01 00 00 00	 mov	 eax, 1
  00080	89 85 d0 7f ff
	ff		 mov	 DWORD PTR tv346[ebp], eax
  00086	db 85 d0 7f ff
	ff		 fild	 DWORD PTR tv346[ebp]
  0008c	85 c0		 test	 eax, eax
  0008e	79 06		 jns	 SHORT $LN42@ChangeToPo
  00090	d8 05 00 00 00
	00		 fadd	 DWORD PTR __real@4f800000
$LN42@ChangeToPo:
  00096	d9 9d cc 7f ff
	ff		 fstp	 DWORD PTR _fTimeRate$[ebp]
$LN4@ChangeToPo:

; 917  : 
; 918  : 	if( pOwner->IsNeedProcess() && pOwner->IsCanRotateJumpAttack() )

  0009c	8b 07		 mov	 eax, DWORD PTR [edi]
  0009e	8b cf		 mov	 ecx, edi
  000a0	ff 90 00 01 00
	00		 call	 DWORD PTR [eax+256]
  000a6	84 c0		 test	 al, al
  000a8	0f 84 a7 00 00
	00		 je	 $LN2@ChangeToPo
  000ae	8b cf		 mov	 ecx, edi
  000b0	e8 00 00 00 00	 call	 ?IsCanRotateJumpAttack@ioBaseChar@@QAE_NXZ ; ioBaseChar::IsCanRotateJumpAttack
  000b5	84 c0		 test	 al, al
  000b7	0f 84 98 00 00
	00		 je	 $LN2@ChangeToPo

; 919  : 	{
; 920  : 		ioUserKeyInput::DirKeyInput eDir = pOwner->CheckCurDirKey();

  000bd	8b cf		 mov	 ecx, edi
  000bf	e8 00 00 00 00	 call	 ?CheckCurDirKey@ioBaseChar@@QAE?AW4DirKeyInput@ioUserKeyInput@@XZ ; ioBaseChar::CheckCurDirKey

; 921  : 		if( eDir != ioUserKeyInput::DKI_NONE )

  000c4	85 c0		 test	 eax, eax
  000c6	0f 84 89 00 00
	00		 je	 $LN2@ChangeToPo

; 922  : 		{
; 923  : 			float fYawD = 180.0f + 45.0f * ( eDir - ioUserKeyInput::DKI_UP );
; 924  : 			fYawD = ioMath::ArrangeHead( fYawD );

  000cc	0f 57 c0	 xorps	 xmm0, xmm0
  000cf	48		 dec	 eax
  000d0	f3 0f 2a c0	 cvtsi2ss xmm0, eax
  000d4	0f 5a c0	 cvtps2pd xmm0, xmm0
  000d7	f2 0f 59 05 00
	00 00 00	 mulsd	 xmm0, QWORD PTR __real@4046800000000000
  000df	f2 0f 58 05 00
	00 00 00	 addsd	 xmm0, QWORD PTR __real@4066800000000000
  000e7	51		 push	 ecx
  000e8	66 0f 5a c0	 cvtpd2ps xmm0, xmm0
  000ec	f3 0f 11 04 24	 movss	 DWORD PTR [esp], xmm0
  000f1	ff 15 00 00 00
	00		 call	 DWORD PTR __imp_?ArrangeHead@ioMath@@SAMM@Z
  000f7	d9 9d d4 7f ff
	ff		 fstp	 DWORD PTR _fYawD$524442[ebp]

; 925  : 
; 926  : 			float fYawR = DEGtoRAD( fYawD );

  000fd	f3 0f 10 85 d4
	7f ff ff	 movss	 xmm0, DWORD PTR _fYawD$524442[ebp]
  00105	0f 5a c0	 cvtps2pd xmm0, xmm0
  00108	f2 0f 59 05 00
	00 00 00	 mulsd	 xmm0, QWORD PTR __real@3f91df46a2526c7a
  00110	66 0f 5a c8	 cvtpd2ps xmm1, xmm0

; 927  : 			D3DXQUATERNION qtRotate;
; 928  : 			D3DXQuaternionRotationYawPitchRoll( &qtRotate, fYawR, 0.0f, 0.0f );

  00114	0f 57 c0	 xorps	 xmm0, xmm0
  00117	f3 0f 11 04 24	 movss	 DWORD PTR [esp], xmm0
  0011c	51		 push	 ecx
  0011d	51		 push	 ecx
  0011e	f3 0f 11 44 24
	04		 movss	 DWORD PTR [esp+4], xmm0
  00124	8d 85 b0 7f ff
	ff		 lea	 eax, DWORD PTR _qtRotate$524444[ebp]
  0012a	f3 0f 11 0c 24	 movss	 DWORD PTR [esp], xmm1
  0012f	50		 push	 eax
  00130	e8 00 00 00 00	 call	 _D3DXQuaternionRotationYawPitchRoll@16

; 929  : 
; 930  : 			pOwner->SetTargetRotToRotate( qtRotate, false, false );

  00135	6a 00		 push	 0
  00137	6a 00		 push	 0
  00139	8d 85 b0 7f ff
	ff		 lea	 eax, DWORD PTR _qtRotate$524444[ebp]
  0013f	50		 push	 eax
  00140	8b cf		 mov	 ecx, edi
  00142	e8 00 00 00 00	 call	 ?SetTargetRotToRotate@ioBaseChar@@QAEXABUD3DXQUATERNION@@_N1@Z ; ioBaseChar::SetTargetRotToRotate

; 931  : 			pOwner->SetInputDirection( pOwner->GetMoveDir() );

  00147	8d 87 b4 06 00
	00		 lea	 eax, DWORD PTR [edi+1716]
  0014d	50		 push	 eax
  0014e	8b cf		 mov	 ecx, edi
  00150	e8 00 00 00 00	 call	 ?SetInputDirection@ioBaseChar@@QAEXABUD3DXVECTOR3@@@Z ; ioBaseChar::SetInputDirection
$LN2@ChangeToPo:

; 932  : 		}
; 933  : 	}
; 934  : 
; 935  : 	pGrp->ClearAllActionAni( FLOAT100, true );

  00155	b8 64 00 00 00	 mov	 eax, 100		; 00000064H
  0015a	89 85 d0 7f ff
	ff		 mov	 DWORD PTR tv326[ebp], eax
  00160	db 85 d0 7f ff
	ff		 fild	 DWORD PTR tv326[ebp]
  00166	6a 01		 push	 1
  00168	85 c0		 test	 eax, eax
  0016a	79 06		 jns	 SHORT $LN43@ChangeToPo
  0016c	d8 05 00 00 00
	00		 fadd	 DWORD PTR __real@4f800000
$LN43@ChangeToPo:
  00172	51		 push	 ecx
  00173	8b cb		 mov	 ecx, ebx
  00175	d9 1c 24	 fstp	 DWORD PTR [esp]
  00178	ff 15 00 00 00
	00		 call	 DWORD PTR __imp_?ClearAllActionAni@ioEntityGroup@@QAEXM_N@Z

; 936  : 	pGrp->ClearAllLoopAni( FLOAT100, true );

  0017e	b8 64 00 00 00	 mov	 eax, 100		; 00000064H
  00183	89 85 d0 7f ff
	ff		 mov	 DWORD PTR tv321[ebp], eax
  00189	db 85 d0 7f ff
	ff		 fild	 DWORD PTR tv321[ebp]
  0018f	6a 01		 push	 1
  00191	85 c0		 test	 eax, eax
  00193	79 06		 jns	 SHORT $LN44@ChangeToPo
  00195	d8 05 00 00 00
	00		 fadd	 DWORD PTR __real@4f800000
$LN44@ChangeToPo:
  0019b	51		 push	 ecx
  0019c	8b cb		 mov	 ecx, ebx
  0019e	d9 1c 24	 fstp	 DWORD PTR [esp]
  001a1	ff 15 00 00 00
	00		 call	 DWORD PTR __imp_?ClearAllLoopAni@ioEntityGroup@@QAEXM_N@Z

; 937  : 
; 938  : 	pGrp->SetActionAni( iAniID, FLOAT100, FLOAT100, FLOAT1, FLOAT1/fTimeRate, 0.0f, dwPreDelay, true );

  001a7	b8 01 00 00 00	 mov	 eax, 1
  001ac	8b c8		 mov	 ecx, eax
  001ae	b8 01 00 00 00	 mov	 eax, 1
  001b3	8b d0		 mov	 edx, eax
  001b5	b8 64 00 00 00	 mov	 eax, 100		; 00000064H
  001ba	89 85 c4 7f ff
	ff		 mov	 DWORD PTR $T529622[ebp], eax
  001c0	b8 64 00 00 00	 mov	 eax, 100		; 00000064H
  001c5	db 85 c0 7f ff
	ff		 fild	 DWORD PTR _dwPreDelay$[ebp]
  001cb	89 85 d0 7f ff
	ff		 mov	 DWORD PTR $T529626[ebp], eax
  001d1	8b 85 c0 7f ff
	ff		 mov	 eax, DWORD PTR _dwPreDelay$[ebp]
  001d7	6a 01		 push	 1
  001d9	6a 01		 push	 1
  001db	85 c0		 test	 eax, eax
  001dd	79 06		 jns	 SHORT $LN45@ChangeToPo
  001df	d8 05 00 00 00
	00		 fadd	 DWORD PTR __real@4f800000
$LN45@ChangeToPo:
  001e5	0f 57 c0	 xorps	 xmm0, xmm0
  001e8	83 ec 18	 sub	 esp, 24			; 00000018H
  001eb	d9 5c 24 14	 fstp	 DWORD PTR [esp+20]
  001ef	89 8d d4 7f ff
	ff		 mov	 DWORD PTR tv311[ebp], ecx
  001f5	db 85 d4 7f ff
	ff		 fild	 DWORD PTR tv311[ebp]
  001fb	f3 0f 11 44 24
	10		 movss	 DWORD PTR [esp+16], xmm0
  00201	85 c9		 test	 ecx, ecx
  00203	79 06		 jns	 SHORT $LN46@ChangeToPo
  00205	d8 05 00 00 00
	00		 fadd	 DWORD PTR __real@4f800000
$LN46@ChangeToPo:
  0020b	d8 b5 cc 7f ff
	ff		 fdiv	 DWORD PTR _fTimeRate$[ebp]
  00211	d9 9d d4 7f ff
	ff		 fstp	 DWORD PTR tv308[ebp]
  00217	d9 85 d4 7f ff
	ff		 fld	 DWORD PTR tv308[ebp]
  0021d	d9 5c 24 0c	 fstp	 DWORD PTR [esp+12]
  00221	89 95 d4 7f ff
	ff		 mov	 DWORD PTR tv306[ebp], edx
  00227	db 85 d4 7f ff
	ff		 fild	 DWORD PTR tv306[ebp]
  0022d	85 d2		 test	 edx, edx
  0022f	79 06		 jns	 SHORT $LN47@ChangeToPo
  00231	d8 05 00 00 00
	00		 fadd	 DWORD PTR __real@4f800000
$LN47@ChangeToPo:
  00237	8b 85 c4 7f ff
	ff		 mov	 eax, DWORD PTR $T529622[ebp]
  0023d	d9 5c 24 08	 fstp	 DWORD PTR [esp+8]
  00241	db 85 c4 7f ff
	ff		 fild	 DWORD PTR $T529622[ebp]
  00247	85 c0		 test	 eax, eax
  00249	79 06		 jns	 SHORT $LN48@ChangeToPo
  0024b	d8 05 00 00 00
	00		 fadd	 DWORD PTR __real@4f800000
$LN48@ChangeToPo:
  00251	8b 85 d0 7f ff
	ff		 mov	 eax, DWORD PTR $T529626[ebp]
  00257	d9 5c 24 04	 fstp	 DWORD PTR [esp+4]
  0025b	db 85 d0 7f ff
	ff		 fild	 DWORD PTR $T529626[ebp]
  00261	85 c0		 test	 eax, eax
  00263	79 06		 jns	 SHORT $LN49@ChangeToPo
  00265	d8 05 00 00 00
	00		 fadd	 DWORD PTR __real@4f800000
$LN49@ChangeToPo:
  0026b	d9 1c 24	 fstp	 DWORD PTR [esp]
  0026e	ff b5 c8 7f ff
	ff		 push	 DWORD PTR _iAniID$[ebp]
  00274	8b cb		 mov	 ecx, ebx
  00276	ff 15 00 00 00
	00		 call	 DWORD PTR __imp_?SetActionAni@ioEntityGroup@@QAE_NHMMMMMM_N0@Z

; 939  : 
; 940  : 	pOwner->RefreshFireTimeList( iAniID, m_ExtendJumpAttack.m_vWeaponInfoList, FTT_JUMP_ATTACK, fTimeRate, dwPreDelay );

  0027c	f3 0f 10 85 cc
	7f ff ff	 movss	 xmm0, DWORD PTR _fTimeRate$[ebp]
  00284	33 db		 xor	 ebx, ebx
  00286	53		 push	 ebx
  00287	ff b5 c0 7f ff
	ff		 push	 DWORD PTR _dwPreDelay$[ebp]
  0028d	8d 86 64 02 00
	00		 lea	 eax, DWORD PTR [esi+612]
  00293	51		 push	 ecx
  00294	f3 0f 11 04 24	 movss	 DWORD PTR [esp], xmm0
  00299	6a 03		 push	 3
  0029b	50		 push	 eax
  0029c	ff b5 c8 7f ff
	ff		 push	 DWORD PTR _iAniID$[ebp]
  002a2	8b cf		 mov	 ecx, edi
  002a4	e8 00 00 00 00	 call	 ?RefreshFireTimeList@ioBaseChar@@QAEXHABV?$vector@UWeaponInfo@@V?$allocator@UWeaponInfo@@@std@@@std@@W4FireTimeType@@MK_N@Z ; ioBaseChar::RefreshFireTimeList

; 941  : 	pOwner->IncreaseWeaponIndexBase();

  002a9	8b cf		 mov	 ecx, edi
  002ab	e8 00 00 00 00	 call	 ?IncreaseWeaponIndexBase@ioBaseChar@@QAEKXZ ; ioBaseChar::IncreaseWeaponIndexBase

; 942  : 
; 943  : 	m_FlashJumpState = FJS_EXTEND_ATTACK;

  002b0	c7 86 24 01 00
	00 02 00 00 00	 mov	 DWORD PTR [esi+292], 2

; 944  : 	m_bUseExtendJumpAttack = true;

  002ba	c6 86 e8 01 00
	00 01		 mov	 BYTE PTR [esi+488], 1

; 945  : 
; 946  : 	// For AirJumpPower
; 947  : 	DWORD dwStartTime = FRAMEGETTIME() + dwPreDelay;

  002c1	ff 15 00 00 00
	00		 call	 DWORD PTR __imp_?GetSingleton@ioFrameTimer@@SAAAV1@XZ
  002c7	8b c8		 mov	 ecx, eax
  002c9	ff 15 00 00 00
	00		 call	 DWORD PTR __imp_?GetLoopSec@ioFrameTimer@@QBEKXZ

; 948  : 
; 949  : 	SetAirJump( pOwner, iAniID, fTimeRate );

  002cf	f3 0f 10 85 cc
	7f ff ff	 movss	 xmm0, DWORD PTR _fTimeRate$[ebp]
  002d7	8b 06		 mov	 eax, DWORD PTR [esi]
  002d9	51		 push	 ecx
  002da	f3 0f 11 04 24	 movss	 DWORD PTR [esp], xmm0
  002df	ff b5 c8 7f ff
	ff		 push	 DWORD PTR _iAniID$[ebp]
  002e5	8b ce		 mov	 ecx, esi
  002e7	57		 push	 edi
  002e8	ff 50 78	 call	 DWORD PTR [eax+120]

; 950  : 
; 951  : 	if( pOwner->IsNeedSendNetwork() )

  002eb	8b 07		 mov	 eax, DWORD PTR [edi]
  002ed	8b cf		 mov	 ecx, edi
  002ef	ff 90 04 01 00
	00		 call	 DWORD PTR [eax+260]
  002f5	84 c0		 test	 al, al
  002f7	0f 84 af 00 00
	00		 je	 $LN1@ChangeToPo

; 952  : 	{
; 953  : 		SP2Packet kPacket( CUPK_EXTEND_JUMP );

  002fd	68 46 41 00 00	 push	 16710			; 00004146H
  00302	8d 8d d8 7f ff
	ff		 lea	 ecx, DWORD PTR _kPacket$524453[ebp]
  00308	e8 00 00 00 00	 call	 ??0SP2Packet@@QAE@K@Z	; SP2Packet::SP2Packet

; 954  : 		kPacket << pOwner->GetCharName();

  0030d	8d 87 d4 02 00
	00		 lea	 eax, DWORD PTR [edi+724]
  00313	50		 push	 eax
  00314	8d 8d d8 7f ff
	ff		 lea	 ecx, DWORD PTR _kPacket$524453[ebp]
  0031a	89 5d fc	 mov	 DWORD PTR __$EHRec$[ebp+8], ebx
  0031d	e8 00 00 00 00	 call	 ??6SP2Packet@@QAEAAV0@ABVioHashString@@@Z ; SP2Packet::operator<<

; 955  : 		kPacket << (int)GetType();

  00322	8b 06		 mov	 eax, DWORD PTR [esi]
  00324	8b ce		 mov	 ecx, esi
  00326	ff 50 08	 call	 DWORD PTR [eax+8]
  00329	50		 push	 eax
  0032a	8d 8d d8 7f ff
	ff		 lea	 ecx, DWORD PTR _kPacket$524453[ebp]
  00330	e8 00 00 00 00	 call	 ??6SP2Packet@@QAEAAV0@H@Z ; SP2Packet::operator<<

; 956  : 		kPacket << pOwner->GetHP().m_fCurValue;

  00335	8d 87 c0 00 00
	00		 lea	 eax, DWORD PTR [edi+192]
  0033b	50		 push	 eax
  0033c	8d 8d d8 7f ff
	ff		 lea	 ecx, DWORD PTR _kPacket$524453[ebp]
  00342	e8 00 00 00 00	 call	 ??6SP2Packet@@QAEAAV0@AAV?$CEncrypt@M@@@Z ; SP2Packet::operator<<

; 957  : 		kPacket << (int)m_FlashJumpState;

  00347	ff b6 24 01 00
	00		 push	 DWORD PTR [esi+292]
  0034d	8d 8d d8 7f ff
	ff		 lea	 ecx, DWORD PTR _kPacket$524453[ebp]
  00353	e8 00 00 00 00	 call	 ??6SP2Packet@@QAEAAV0@H@Z ; SP2Packet::operator<<

; 958  : 		kPacket << pOwner->GetTargetRot();

  00358	8d 87 a4 06 00
	00		 lea	 eax, DWORD PTR [edi+1700]
  0035e	50		 push	 eax
  0035f	8d 8d d8 7f ff
	ff		 lea	 ecx, DWORD PTR _kPacket$524453[ebp]
  00365	e8 00 00 00 00	 call	 ??6SP2Packet@@QAEAAV0@ABUD3DXQUATERNION@@@Z ; SP2Packet::operator<<

; 959  : 		kPacket << pOwner->GetMoveDir();

  0036a	8d 87 b4 06 00
	00		 lea	 eax, DWORD PTR [edi+1716]
  00370	50		 push	 eax
  00371	8d 8d d8 7f ff
	ff		 lea	 ecx, DWORD PTR _kPacket$524453[ebp]
  00377	e8 00 00 00 00	 call	 ??6SP2Packet@@QAEAAV0@ABUD3DXVECTOR3@@@Z ; SP2Packet::operator<<

; 960  : 		kPacket << pOwner->GetInputDir();

  0037c	81 c7 c0 06 00
	00		 add	 edi, 1728		; 000006c0H
  00382	57		 push	 edi
  00383	8d 8d d8 7f ff
	ff		 lea	 ecx, DWORD PTR _kPacket$524453[ebp]
  00389	e8 00 00 00 00	 call	 ??6SP2Packet@@QAEAAV0@ABUD3DXVECTOR3@@@Z ; SP2Packet::operator<<

; 961  : 		P2PNetwork::SendToAllPlayingUser( kPacket );

  0038e	8d 85 d8 7f ff
	ff		 lea	 eax, DWORD PTR _kPacket$524453[ebp]
  00394	53		 push	 ebx
  00395	50		 push	 eax
  00396	e8 00 00 00 00	 call	 ?SendToAllPlayingUser@P2PNetwork@@YAXAAVSP2Packet@@PAVioBaseChar@@@Z ; P2PNetwork::SendToAllPlayingUser

; 962  : 	}

  0039b	83 4d fc ff	 or	 DWORD PTR __$EHRec$[ebp+8], -1
  0039f	59		 pop	 ecx
  003a0	59		 pop	 ecx
  003a1	8d 8d d8 7f ff
	ff		 lea	 ecx, DWORD PTR _kPacket$524453[ebp]
  003a7	e8 00 00 00 00	 call	 ??1SP2Packet@@UAE@XZ	; SP2Packet::~SP2Packet
$LN1@ChangeToPo:

; 963  : }

  003ac	8b 4d f4	 mov	 ecx, DWORD PTR __$EHRec$[ebp]
  003af	64 89 0d 00 00
	00 00		 mov	 DWORD PTR fs:0, ecx
  003b6	59		 pop	 ecx
  003b7	5f		 pop	 edi
  003b8	5e		 pop	 esi
  003b9	5b		 pop	 ebx
  003ba	8b 4d f0	 mov	 ecx, DWORD PTR __$ArrayPad$[ebp]
  003bd	33 cd		 xor	 ecx, ebp
  003bf	e8 00 00 00 00	 call	 @__security_check_cookie@4
  003c4	c9		 leave
  003c5	c2 04 00	 ret	 4
_TEXT	ENDS
;	COMDAT text$x
text$x	SEGMENT
__unwindfunclet$?ChangeToPowerChargeJumpAttack@ioChargeFlashJump@@IAEXPAVioBaseChar@@@Z$0:
  00000	8d 8d d8 7f ff
	ff		 lea	 ecx, DWORD PTR _kPacket$524453[ebp]
  00006	e9 00 00 00 00	 jmp	 ??1SP2Packet@@UAE@XZ	; SP2Packet::~SP2Packet
__ehhandler$?ChangeToPowerChargeJumpAttack@ioChargeFlashJump@@IAEXPAVioBaseChar@@@Z:
  0000b	8b 54 24 08	 mov	 edx, DWORD PTR [esp+8]
  0000f	8d 42 0c	 lea	 eax, DWORD PTR [edx+12]
  00012	8b 8a ac 7f ff
	ff		 mov	 ecx, DWORD PTR [edx-32852]
  00018	33 c8		 xor	 ecx, eax
  0001a	e8 00 00 00 00	 call	 @__security_check_cookie@4
  0001f	8b 4a fc	 mov	 ecx, DWORD PTR [edx-4]
  00022	33 c8		 xor	 ecx, eax
  00024	e8 00 00 00 00	 call	 @__security_check_cookie@4
  00029	b8 00 00 00 00	 mov	 eax, OFFSET __ehfuncinfo$?ChangeToPowerChargeJumpAttack@ioChargeFlashJump@@IAEXPAVioBaseChar@@@Z
  0002e	e9 00 00 00 00	 jmp	 ___CxxFrameHandler3
text$x	ENDS
?ChangeToPowerChargeJumpAttack@ioChargeFlashJump@@IAEXPAVioBaseChar@@@Z ENDP ; ioChargeFlashJump::ChangeToPowerChargeJumpAttack
PUBLIC	__$ArrayPad$
PUBLIC	?ProcessDash@ioChargeFlashJump@@QAEXPAVioBaseChar@@@Z ; ioChargeFlashJump::ProcessDash
;	COMDAT xdata$x
; File d:\lost saga for developer\youtube\tutorial\source\src\lsclient\iobasechar.h
xdata$x	SEGMENT
__unwindtable$?ProcessDash@ioChargeFlashJump@@QAEXPAVioBaseChar@@@Z DD 0ffffffffH
	DD	FLAT:__unwindfunclet$?ProcessDash@ioChargeFlashJump@@QAEXPAVioBaseChar@@@Z$0
__ehfuncinfo$?ProcessDash@ioChargeFlashJump@@QAEXPAVioBaseChar@@@Z DD 019930522H
	DD	01H
	DD	FLAT:__unwindtable$?ProcessDash@ioChargeFlashJump@@QAEXPAVioBaseChar@@@Z
	DD	2 DUP(00H)
	DD	2 DUP(00H)
	DD	00H
	DD	01H
; Function compile flags: /Ogsp
; File d:\lost saga for developer\youtube\tutorial\source\src\lsclient\iochargeflashjump.cpp
xdata$x	ENDS
;	COMDAT ?ProcessDash@ioChargeFlashJump@@QAEXPAVioBaseChar@@@Z
_TEXT	SEGMENT
_iAniID$524540 = -32816					; size = 4
tv272 = -32812						; size = 4
tv267 = -32812						; size = 4
tv261 = -32812						; size = 4
tv259 = -32812						; size = 4
_kPacket$524548 = -32808				; size = 32792
__$ArrayPad$ = -16					; size = 4
__$EHRec$ = -12						; size = 12
_pOwner$ = 8						; size = 4
?ProcessDash@ioChargeFlashJump@@QAEXPAVioBaseChar@@@Z PROC ; ioChargeFlashJump::ProcessDash, COMDAT
; _this$ = ecx

; 1112 : {

  00000	55		 push	 ebp
  00001	8b ec		 mov	 ebp, esp
  00003	6a ff		 push	 -1
  00005	68 00 00 00 00	 push	 __ehhandler$?ProcessDash@ioChargeFlashJump@@QAEXPAVioBaseChar@@@Z
  0000a	64 a1 00 00 00
	00		 mov	 eax, DWORD PTR fs:0
  00010	50		 push	 eax
  00011	b8 24 80 00 00	 mov	 eax, 32804		; 00008024H
  00016	e8 00 00 00 00	 call	 __chkstk
  0001b	a1 00 00 00 00	 mov	 eax, DWORD PTR ___security_cookie
  00020	33 c5		 xor	 eax, ebp
  00022	89 45 f0	 mov	 DWORD PTR __$ArrayPad$[ebp], eax
  00025	53		 push	 ebx
  00026	56		 push	 esi
  00027	57		 push	 edi
  00028	50		 push	 eax
  00029	8d 45 f4	 lea	 eax, DWORD PTR __$EHRec$[ebp]
  0002c	64 a3 00 00 00
	00		 mov	 DWORD PTR fs:0, eax
  00032	8b 7d 08	 mov	 edi, DWORD PTR _pOwner$[ebp]
  00035	8b f1		 mov	 esi, ecx

; 1113 : 	if( !pOwner ) return;

  00037	85 ff		 test	 edi, edi
  00039	0f 84 e9 01 00
	00		 je	 $LN3@ProcessDas

; 1114 : 
; 1115 : 	if( m_DashType != LDT_NO_GRAVITY )

  0003f	83 be d0 02 00
	00 02		 cmp	 DWORD PTR [esi+720], 2
  00046	0f 85 dc 01 00
	00		 jne	 $LN3@ProcessDas

; 1116 : 		return;
; 1117 : 
; 1118 : 	DWORD dwCurTime = FRAMEGETTIME();

  0004c	ff 15 00 00 00
	00		 call	 DWORD PTR __imp_?GetSingleton@ioFrameTimer@@SAAAV1@XZ
  00052	8b c8		 mov	 ecx, eax
  00054	ff 15 00 00 00
	00		 call	 DWORD PTR __imp_?GetLoopSec@ioFrameTimer@@QBEKXZ

; 1119 : 
; 1120 : 	switch( m_FlashJumpState )

  0005a	8b 8e 24 01 00
	00		 mov	 ecx, DWORD PTR [esi+292]
  00060	83 e9 07	 sub	 ecx, 7
  00063	74 35		 je	 SHORT $LN6@ProcessDas
  00065	49		 dec	 ecx
  00066	0f 85 bc 01 00
	00		 jne	 $LN3@ProcessDas

; 1146 : 		}
; 1147 : 		break;
; 1148 : 	case FJS_DASH_END:
; 1149 : 		if( m_dwReserveEnableTime > 0 && m_dwReserveEnableTime + pOwner->GetActionStopTotalDelay() < dwCurTime )

  0006c	8b 8e e8 00 00
	00		 mov	 ecx, DWORD PTR [esi+232]
  00072	85 c9		 test	 ecx, ecx
  00074	0f 84 ae 01 00
	00		 je	 $LN3@ProcessDas
  0007a	8b 97 b8 15 00
	00		 mov	 edx, DWORD PTR [edi+5560]
  00080	03 d1		 add	 edx, ecx
  00082	3b d0		 cmp	 edx, eax
  00084	0f 83 9e 01 00
	00		 jae	 $LN3@ProcessDas

; 1150 : 		{
; 1151 : 			// 
; 1152 : 			CheckKeyReserve( pOwner );

  0008a	8b 06		 mov	 eax, DWORD PTR [esi]
  0008c	57		 push	 edi
  0008d	8b ce		 mov	 ecx, esi
  0008f	ff 90 88 00 00
	00		 call	 DWORD PTR [eax+136]

; 1153 : 		}
; 1154 : 		break;

  00095	e9 8e 01 00 00	 jmp	 $LN3@ProcessDas
$LN6@ProcessDas:

; 1121 : 	{
; 1122 : 	case FJS_DASH:
; 1123 : 		if( m_dwDashEndTime > 0 && m_dwDashEndTime < dwCurTime )

  0009a	8b 96 2c 03 00
	00		 mov	 edx, DWORD PTR [esi+812]
  000a0	85 d2		 test	 edx, edx
  000a2	0f 84 80 01 00
	00		 je	 $LN3@ProcessDas
  000a8	3b d0		 cmp	 edx, eax
  000aa	0f 83 78 01 00
	00		 jae	 $LN3@ProcessDas

; 1124 : 		{
; 1125 : 			m_dwDashEndTime = 0;

  000b0	83 a6 2c 03 00
	00 00		 and	 DWORD PTR [esi+812], 0

; 1126 : 			m_FlashJumpState = FJS_DASH_END;

  000b7	c7 86 24 01 00
	00 08 00 00 00	 mov	 DWORD PTR [esi+292], 8

; 1127 : 
; 1128 : 			int iAniID = pOwner->GetJumppingAnimationIdx();

  000c1	8b 07		 mov	 eax, DWORD PTR [edi]
  000c3	6a 00		 push	 0
  000c5	8b cf		 mov	 ecx, edi
  000c7	ff 90 6c 01 00
	00		 call	 DWORD PTR [eax+364]

; 1129 : 			ioEntityGroup *pGrp = pOwner->GetGroup();

  000cd	8b 5f 04	 mov	 ebx, DWORD PTR [edi+4]
  000d0	89 85 d0 7f ff
	ff		 mov	 DWORD PTR _iAniID$524540[ebp], eax

; 1130 : 			if( pGrp )

  000d6	85 db		 test	 ebx, ebx
  000d8	0f 84 c1 00 00
	00		 je	 $LN4@ProcessDas

; 1131 : 			{
; 1132 : 				pGrp->ClearAllActionAni( FLOAT100, true );

  000de	b8 64 00 00 00	 mov	 eax, 100		; 00000064H
  000e3	89 85 d4 7f ff
	ff		 mov	 DWORD PTR tv272[ebp], eax
  000e9	db 85 d4 7f ff
	ff		 fild	 DWORD PTR tv272[ebp]
  000ef	6a 01		 push	 1
  000f1	85 c0		 test	 eax, eax
  000f3	79 06		 jns	 SHORT $LN31@ProcessDas
  000f5	d8 05 00 00 00
	00		 fadd	 DWORD PTR __real@4f800000
$LN31@ProcessDas:
  000fb	51		 push	 ecx
  000fc	8b cb		 mov	 ecx, ebx
  000fe	d9 1c 24	 fstp	 DWORD PTR [esp]
  00101	ff 15 00 00 00
	00		 call	 DWORD PTR __imp_?ClearAllActionAni@ioEntityGroup@@QAEXM_N@Z

; 1133 : 				pGrp->ClearAllLoopAni( FLOAT100, true );

  00107	b8 64 00 00 00	 mov	 eax, 100		; 00000064H
  0010c	89 85 d4 7f ff
	ff		 mov	 DWORD PTR tv267[ebp], eax
  00112	db 85 d4 7f ff
	ff		 fild	 DWORD PTR tv267[ebp]
  00118	6a 01		 push	 1
  0011a	85 c0		 test	 eax, eax
  0011c	79 06		 jns	 SHORT $LN32@ProcessDas
  0011e	d8 05 00 00 00
	00		 fadd	 DWORD PTR __real@4f800000
$LN32@ProcessDas:
  00124	51		 push	 ecx
  00125	8b cb		 mov	 ecx, ebx
  00127	d9 1c 24	 fstp	 DWORD PTR [esp]
  0012a	ff 15 00 00 00
	00		 call	 DWORD PTR __imp_?ClearAllLoopAni@ioEntityGroup@@QAEXM_N@Z

; 1134 : 				pGrp->SetActionAni( iAniID,	0.0f, 0.0f, FLOAT1, FLOAT1,	0.0f, 0.0f,	true );

  00130	b8 01 00 00 00	 mov	 eax, 1
  00135	8b c8		 mov	 ecx, eax
  00137	b8 01 00 00 00	 mov	 eax, 1
  0013c	0f 57 c0	 xorps	 xmm0, xmm0
  0013f	6a 01		 push	 1
  00141	6a 01		 push	 1
  00143	83 ec 18	 sub	 esp, 24			; 00000018H
  00146	89 8d d4 7f ff
	ff		 mov	 DWORD PTR tv261[ebp], ecx
  0014c	db 85 d4 7f ff
	ff		 fild	 DWORD PTR tv261[ebp]
  00152	f3 0f 11 44 24
	14		 movss	 DWORD PTR [esp+20], xmm0
  00158	f3 0f 11 44 24
	10		 movss	 DWORD PTR [esp+16], xmm0
  0015e	85 c9		 test	 ecx, ecx
  00160	79 06		 jns	 SHORT $LN33@ProcessDas
  00162	d8 05 00 00 00
	00		 fadd	 DWORD PTR __real@4f800000
$LN33@ProcessDas:
  00168	89 85 d4 7f ff
	ff		 mov	 DWORD PTR tv259[ebp], eax
  0016e	d9 5c 24 0c	 fstp	 DWORD PTR [esp+12]
  00172	db 85 d4 7f ff
	ff		 fild	 DWORD PTR tv259[ebp]
  00178	85 c0		 test	 eax, eax
  0017a	79 06		 jns	 SHORT $LN34@ProcessDas
  0017c	d8 05 00 00 00
	00		 fadd	 DWORD PTR __real@4f800000
$LN34@ProcessDas:
  00182	d9 5c 24 08	 fstp	 DWORD PTR [esp+8]
  00186	f3 0f 11 44 24
	04		 movss	 DWORD PTR [esp+4], xmm0
  0018c	f3 0f 11 04 24	 movss	 DWORD PTR [esp], xmm0
  00191	ff b5 d0 7f ff
	ff		 push	 DWORD PTR _iAniID$524540[ebp]
  00197	8b cb		 mov	 ecx, ebx
  00199	ff 15 00 00 00
	00		 call	 DWORD PTR __imp_?SetActionAni@ioEntityGroup@@QAE_NHMMMMMM_N0@Z
$LN4@ProcessDas:

; 1135 : 			}
; 1136 : 
; 1137 : 			if( pOwner->IsNeedSendNetwork() )

  0019f	8b 07		 mov	 eax, DWORD PTR [edi]
  001a1	8b cf		 mov	 ecx, edi
  001a3	ff 90 04 01 00
	00		 call	 DWORD PTR [eax+260]
  001a9	84 c0		 test	 al, al
  001ab	74 7b		 je	 SHORT $LN3@ProcessDas

; 1138 : 			{
; 1139 : 				SP2Packet kPacket( CUPK_EXTEND_JUMP );

  001ad	68 46 41 00 00	 push	 16710			; 00004146H
  001b2	8d 8d d8 7f ff
	ff		 lea	 ecx, DWORD PTR _kPacket$524548[ebp]
  001b8	e8 00 00 00 00	 call	 ??0SP2Packet@@QAE@K@Z	; SP2Packet::SP2Packet
  001bd	83 65 fc 00	 and	 DWORD PTR __$EHRec$[ebp+8], 0

; 1140 : 				kPacket << pOwner->GetCharName();

  001c1	8d 87 d4 02 00
	00		 lea	 eax, DWORD PTR [edi+724]
  001c7	50		 push	 eax
  001c8	8d 8d d8 7f ff
	ff		 lea	 ecx, DWORD PTR _kPacket$524548[ebp]
  001ce	e8 00 00 00 00	 call	 ??6SP2Packet@@QAEAAV0@ABVioHashString@@@Z ; SP2Packet::operator<<

; 1141 : 				kPacket << (int)GetType();

  001d3	8b 06		 mov	 eax, DWORD PTR [esi]
  001d5	8b ce		 mov	 ecx, esi
  001d7	ff 50 08	 call	 DWORD PTR [eax+8]
  001da	50		 push	 eax
  001db	8d 8d d8 7f ff
	ff		 lea	 ecx, DWORD PTR _kPacket$524548[ebp]
  001e1	e8 00 00 00 00	 call	 ??6SP2Packet@@QAEAAV0@H@Z ; SP2Packet::operator<<

; 1142 : 				kPacket << pOwner->GetHP().m_fCurValue;

  001e6	81 c7 c0 00 00
	00		 add	 edi, 192		; 000000c0H
  001ec	57		 push	 edi
  001ed	8d 8d d8 7f ff
	ff		 lea	 ecx, DWORD PTR _kPacket$524548[ebp]
  001f3	e8 00 00 00 00	 call	 ??6SP2Packet@@QAEAAV0@AAV?$CEncrypt@M@@@Z ; SP2Packet::operator<<

; 1143 : 				kPacket << m_FlashJumpState;

  001f8	ff b6 24 01 00
	00		 push	 DWORD PTR [esi+292]
  001fe	8d 8d d8 7f ff
	ff		 lea	 ecx, DWORD PTR _kPacket$524548[ebp]
  00204	e8 00 00 00 00	 call	 ??6SP2Packet@@QAEAAV0@H@Z ; SP2Packet::operator<<

; 1144 : 				P2PNetwork::SendToAllPlayingUser( kPacket );

  00209	8d 85 d8 7f ff
	ff		 lea	 eax, DWORD PTR _kPacket$524548[ebp]
  0020f	6a 00		 push	 0
  00211	50		 push	 eax
  00212	e8 00 00 00 00	 call	 ?SendToAllPlayingUser@P2PNetwork@@YAXAAVSP2Packet@@PAVioBaseChar@@@Z ; P2PNetwork::SendToAllPlayingUser

; 1145 : 			}

  00217	83 4d fc ff	 or	 DWORD PTR __$EHRec$[ebp+8], -1
  0021b	59		 pop	 ecx
  0021c	59		 pop	 ecx
  0021d	8d 8d d8 7f ff
	ff		 lea	 ecx, DWORD PTR _kPacket$524548[ebp]
  00223	e8 00 00 00 00	 call	 ??1SP2Packet@@UAE@XZ	; SP2Packet::~SP2Packet
$LN3@ProcessDas:

; 1155 : 	}
; 1156 : }

  00228	8b 4d f4	 mov	 ecx, DWORD PTR __$EHRec$[ebp]
  0022b	64 89 0d 00 00
	00 00		 mov	 DWORD PTR fs:0, ecx
  00232	59		 pop	 ecx
  00233	5f		 pop	 edi
  00234	5e		 pop	 esi
  00235	5b		 pop	 ebx
  00236	8b 4d f0	 mov	 ecx, DWORD PTR __$ArrayPad$[ebp]
  00239	33 cd		 xor	 ecx, ebp
  0023b	e8 00 00 00 00	 call	 @__security_check_cookie@4
  00240	c9		 leave
  00241	c2 04 00	 ret	 4
_TEXT	ENDS
;	COMDAT text$x
text$x	SEGMENT
__unwindfunclet$?ProcessDash@ioChargeFlashJump@@QAEXPAVioBaseChar@@@Z$0:
  00000	8d 8d d8 7f ff
	ff		 lea	 ecx, DWORD PTR _kPacket$524548[ebp]
  00006	e9 00 00 00 00	 jmp	 ??1SP2Packet@@UAE@XZ	; SP2Packet::~SP2Packet
__ehhandler$?ProcessDash@ioChargeFlashJump@@QAEXPAVioBaseChar@@@Z:
  0000b	8b 54 24 08	 mov	 edx, DWORD PTR [esp+8]
  0000f	8d 42 0c	 lea	 eax, DWORD PTR [edx+12]
  00012	8b 8a cc 7f ff
	ff		 mov	 ecx, DWORD PTR [edx-32820]
  00018	33 c8		 xor	 ecx, eax
  0001a	e8 00 00 00 00	 call	 @__security_check_cookie@4
  0001f	8b 4a fc	 mov	 ecx, DWORD PTR [edx-4]
  00022	33 c8		 xor	 ecx, eax
  00024	e8 00 00 00 00	 call	 @__security_check_cookie@4
  00029	b8 00 00 00 00	 mov	 eax, OFFSET __ehfuncinfo$?ProcessDash@ioChargeFlashJump@@QAEXPAVioBaseChar@@@Z
  0002e	e9 00 00 00 00	 jmp	 ___CxxFrameHandler3
text$x	ENDS
?ProcessDash@ioChargeFlashJump@@QAEXPAVioBaseChar@@@Z ENDP ; ioChargeFlashJump::ProcessDash
PUBLIC	?begin@?$vector@UWeaponInfo@@V?$allocator@UWeaponInfo@@@std@@@std@@QBE?AV?$_Vector_const_iterator@V?$_Vector_val@UWeaponInfo@@V?$allocator@UWeaponInfo@@@std@@@std@@@2@XZ ; std::vector<WeaponInfo,std::allocator<WeaponInfo> >::begin
; Function compile flags: /Ogsp
; File c:\program files (x86)\microsoft visual studio 10.0\vc\include\vector
;	COMDAT ?begin@?$vector@UWeaponInfo@@V?$allocator@UWeaponInfo@@@std@@@std@@QBE?AV?$_Vector_const_iterator@V?$_Vector_val@UWeaponInfo@@V?$allocator@UWeaponInfo@@@std@@@std@@@2@XZ
_TEXT	SEGMENT
___$ReturnUdt$ = 8					; size = 4
?begin@?$vector@UWeaponInfo@@V?$allocator@UWeaponInfo@@@std@@@std@@QBE?AV?$_Vector_const_iterator@V?$_Vector_val@UWeaponInfo@@V?$allocator@UWeaponInfo@@@std@@@std@@@2@XZ PROC ; std::vector<WeaponInfo,std::allocator<WeaponInfo> >::begin, COMDAT
; _this$ = ecx

; 786  : 		{	// return iterator for beginning of nonmutable sequence

  00000	55		 push	 ebp
  00001	8b ec		 mov	 ebp, esp

; 787  : 		return (const_iterator(this->_Myfirst, this));

  00003	8b 09		 mov	 ecx, DWORD PTR [ecx]
  00005	8b 45 08	 mov	 eax, DWORD PTR ___$ReturnUdt$[ebp]
  00008	89 08		 mov	 DWORD PTR [eax], ecx

; 788  : 		}

  0000a	5d		 pop	 ebp
  0000b	c2 04 00	 ret	 4
?begin@?$vector@UWeaponInfo@@V?$allocator@UWeaponInfo@@@std@@@std@@QBE?AV?$_Vector_const_iterator@V?$_Vector_val@UWeaponInfo@@V?$allocator@UWeaponInfo@@@std@@@std@@@2@XZ ENDP ; std::vector<WeaponInfo,std::allocator<WeaponInfo> >::begin
_TEXT	ENDS
PUBLIC	?end@?$vector@UWeaponInfo@@V?$allocator@UWeaponInfo@@@std@@@std@@QBE?AV?$_Vector_const_iterator@V?$_Vector_val@UWeaponInfo@@V?$allocator@UWeaponInfo@@@std@@@std@@@2@XZ ; std::vector<WeaponInfo,std::allocator<WeaponInfo> >::end
; Function compile flags: /Ogsp
;	COMDAT ?end@?$vector@UWeaponInfo@@V?$allocator@UWeaponInfo@@@std@@@std@@QBE?AV?$_Vector_const_iterator@V?$_Vector_val@UWeaponInfo@@V?$allocator@UWeaponInfo@@@std@@@std@@@2@XZ
_TEXT	SEGMENT
___$ReturnUdt$ = 8					; size = 4
?end@?$vector@UWeaponInfo@@V?$allocator@UWeaponInfo@@@std@@@std@@QBE?AV?$_Vector_const_iterator@V?$_Vector_val@UWeaponInfo@@V?$allocator@UWeaponInfo@@@std@@@std@@@2@XZ PROC ; std::vector<WeaponInfo,std::allocator<WeaponInfo> >::end, COMDAT
; _this$ = ecx

; 796  : 		{	// return iterator for end of nonmutable sequence

  00000	55		 push	 ebp
  00001	8b ec		 mov	 ebp, esp

; 797  : 		return (const_iterator(this->_Mylast, this));

  00003	8b 49 04	 mov	 ecx, DWORD PTR [ecx+4]
  00006	8b 45 08	 mov	 eax, DWORD PTR ___$ReturnUdt$[ebp]
  00009	89 08		 mov	 DWORD PTR [eax], ecx

; 798  : 		}

  0000b	5d		 pop	 ebp
  0000c	c2 04 00	 ret	 4
?end@?$vector@UWeaponInfo@@V?$allocator@UWeaponInfo@@@std@@@std@@QBE?AV?$_Vector_const_iterator@V?$_Vector_val@UWeaponInfo@@V?$allocator@UWeaponInfo@@@std@@@std@@@2@XZ ENDP ; std::vector<WeaponInfo,std::allocator<WeaponInfo> >::end
_TEXT	ENDS
PUBLIC	?begin@?$vector@UForceInfo@@V?$allocator@UForceInfo@@@std@@@std@@QBE?AV?$_Vector_const_iterator@V?$_Vector_val@UForceInfo@@V?$allocator@UForceInfo@@@std@@@std@@@2@XZ ; std::vector<ForceInfo,std::allocator<ForceInfo> >::begin
; Function compile flags: /Ogsp
;	COMDAT ?begin@?$vector@UForceInfo@@V?$allocator@UForceInfo@@@std@@@std@@QBE?AV?$_Vector_const_iterator@V?$_Vector_val@UForceInfo@@V?$allocator@UForceInfo@@@std@@@std@@@2@XZ
_TEXT	SEGMENT
___$ReturnUdt$ = 8					; size = 4
?begin@?$vector@UForceInfo@@V?$allocator@UForceInfo@@@std@@@std@@QBE?AV?$_Vector_const_iterator@V?$_Vector_val@UForceInfo@@V?$allocator@UForceInfo@@@std@@@std@@@2@XZ PROC ; std::vector<ForceInfo,std::allocator<ForceInfo> >::begin, COMDAT
; _this$ = ecx

; 786  : 		{	// return iterator for beginning of nonmutable sequence

  00000	55		 push	 ebp
  00001	8b ec		 mov	 ebp, esp

; 787  : 		return (const_iterator(this->_Myfirst, this));

  00003	8b 09		 mov	 ecx, DWORD PTR [ecx]
  00005	8b 45 08	 mov	 eax, DWORD PTR ___$ReturnUdt$[ebp]
  00008	89 08		 mov	 DWORD PTR [eax], ecx

; 788  : 		}

  0000a	5d		 pop	 ebp
  0000b	c2 04 00	 ret	 4
?begin@?$vector@UForceInfo@@V?$allocator@UForceInfo@@@std@@@std@@QBE?AV?$_Vector_const_iterator@V?$_Vector_val@UForceInfo@@V?$allocator@UForceInfo@@@std@@@std@@@2@XZ ENDP ; std::vector<ForceInfo,std::allocator<ForceInfo> >::begin
_TEXT	ENDS
PUBLIC	?end@?$vector@UForceInfo@@V?$allocator@UForceInfo@@@std@@@std@@QBE?AV?$_Vector_const_iterator@V?$_Vector_val@UForceInfo@@V?$allocator@UForceInfo@@@std@@@std@@@2@XZ ; std::vector<ForceInfo,std::allocator<ForceInfo> >::end
; Function compile flags: /Ogsp
;	COMDAT ?end@?$vector@UForceInfo@@V?$allocator@UForceInfo@@@std@@@std@@QBE?AV?$_Vector_const_iterator@V?$_Vector_val@UForceInfo@@V?$allocator@UForceInfo@@@std@@@std@@@2@XZ
_TEXT	SEGMENT
___$ReturnUdt$ = 8					; size = 4
?end@?$vector@UForceInfo@@V?$allocator@UForceInfo@@@std@@@std@@QBE?AV?$_Vector_const_iterator@V?$_Vector_val@UForceInfo@@V?$allocator@UForceInfo@@@std@@@std@@@2@XZ PROC ; std::vector<ForceInfo,std::allocator<ForceInfo> >::end, COMDAT
; _this$ = ecx

; 796  : 		{	// return iterator for end of nonmutable sequence

  00000	55		 push	 ebp
  00001	8b ec		 mov	 ebp, esp

; 797  : 		return (const_iterator(this->_Mylast, this));

  00003	8b 49 04	 mov	 ecx, DWORD PTR [ecx+4]
  00006	8b 45 08	 mov	 eax, DWORD PTR ___$ReturnUdt$[ebp]
  00009	89 08		 mov	 DWORD PTR [eax], ecx

; 798  : 		}

  0000b	5d		 pop	 ebp
  0000c	c2 04 00	 ret	 4
?end@?$vector@UForceInfo@@V?$allocator@UForceInfo@@@std@@@std@@QBE?AV?$_Vector_const_iterator@V?$_Vector_val@UForceInfo@@V?$allocator@UForceInfo@@@std@@@std@@@2@XZ ENDP ; std::vector<ForceInfo,std::allocator<ForceInfo> >::end
_TEXT	ENDS
PUBLIC	__$ArrayPad$
PUBLIC	??$LoadInt_e@$0BD@@ioINILoader@@QAEHAAY0BD@$$CBDH@Z ; ioINILoader::LoadInt_e<19>
EXTRN	__imp_?LoadInt@ioINILoader@@QAEHPBDH@Z:PROC
; Function compile flags: /Ogsp
; File d:\lost saga for developer\youtube\tutorial\source\src\io3dengine\ioiniloader.h
;	COMDAT ??$LoadInt_e@$0BD@@ioINILoader@@QAEHAAY0BD@$$CBDH@Z
_TEXT	SEGMENT
__k$ = -28						; size = 19
__$ArrayPad$ = -4					; size = 4
_k$ = 8							; size = 4
_i$ = 12						; size = 4
??$LoadInt_e@$0BD@@ioINILoader@@QAEHAAY0BD@$$CBDH@Z PROC ; ioINILoader::LoadInt_e<19>, COMDAT
; _this$ = ecx

; 118  : 	{

  00000	55		 push	 ebp
  00001	8b ec		 mov	 ebp, esp
  00003	83 ec 1c	 sub	 esp, 28			; 0000001cH
  00006	a1 00 00 00 00	 mov	 eax, DWORD PTR ___security_cookie
  0000b	33 c5		 xor	 eax, ebp
  0000d	89 45 fc	 mov	 DWORD PTR __$ArrayPad$[ebp], eax
  00010	8b 45 08	 mov	 eax, DWORD PTR _k$[ebp]

; 119  : 		_ENCSTR(k, _k);

  00013	8a 10		 mov	 dl, BYTE PTR [eax]
  00015	56		 push	 esi
  00016	8b f1		 mov	 esi, ecx
  00018	84 d2		 test	 dl, dl
  0001a	0f 84 cf 01 00
	00		 je	 $LN96@LoadInt_e
  00020	80 f2 ed	 xor	 dl, -19			; ffffffedH
  00023	88 55 e4	 mov	 BYTE PTR __k$[ebp], dl
  00026	8a 50 01	 mov	 dl, BYTE PTR [eax+1]
  00029	84 d2		 test	 dl, dl
  0002b	0f 84 b8 01 00
	00		 je	 $LN95@LoadInt_e
  00031	b1 ec		 mov	 cl, -20			; ffffffecH
  00033	32 d1		 xor	 dl, cl
  00035	88 55 e5	 mov	 BYTE PTR __k$[ebp+1], dl
  00038	8a 50 02	 mov	 dl, BYTE PTR [eax+2]
  0003b	84 d2		 test	 dl, dl
  0003d	0f 84 a0 01 00
	00		 je	 $LN94@LoadInt_e
  00043	80 f2 eb	 xor	 dl, -21			; ffffffebH
  00046	88 55 e6	 mov	 BYTE PTR __k$[ebp+2], dl
  00049	8a 50 03	 mov	 dl, BYTE PTR [eax+3]
  0004c	84 d2		 test	 dl, dl
  0004e	0f 84 89 01 00
	00		 je	 $LN93@LoadInt_e
  00054	80 f2 ea	 xor	 dl, -22			; ffffffeaH
  00057	88 55 e7	 mov	 BYTE PTR __k$[ebp+3], dl
  0005a	8a 50 04	 mov	 dl, BYTE PTR [eax+4]
  0005d	84 d2		 test	 dl, dl
  0005f	0f 84 72 01 00
	00		 je	 $LN92@LoadInt_e
  00065	80 f2 ed	 xor	 dl, -19			; ffffffedH
  00068	88 55 e8	 mov	 BYTE PTR __k$[ebp+4], dl
  0006b	8a 50 05	 mov	 dl, BYTE PTR [eax+5]
  0006e	84 d2		 test	 dl, dl
  00070	0f 84 5c 01 00
	00		 je	 $LN91@LoadInt_e
  00076	32 d1		 xor	 dl, cl
  00078	88 55 e9	 mov	 BYTE PTR __k$[ebp+5], dl
  0007b	8a 50 06	 mov	 dl, BYTE PTR [eax+6]
  0007e	84 d2		 test	 dl, dl
  00080	0f 84 46 01 00
	00		 je	 $LN90@LoadInt_e
  00086	80 f2 eb	 xor	 dl, -21			; ffffffebH
  00089	88 55 ea	 mov	 BYTE PTR __k$[ebp+6], dl
  0008c	8a 50 07	 mov	 dl, BYTE PTR [eax+7]
  0008f	84 d2		 test	 dl, dl
  00091	0f 84 2f 01 00
	00		 je	 $LN89@LoadInt_e
  00097	80 f2 ea	 xor	 dl, -22			; ffffffeaH
  0009a	88 55 eb	 mov	 BYTE PTR __k$[ebp+7], dl
  0009d	8a 50 08	 mov	 dl, BYTE PTR [eax+8]
  000a0	84 d2		 test	 dl, dl
  000a2	0f 84 18 01 00
	00		 je	 $LN88@LoadInt_e
  000a8	80 f2 ed	 xor	 dl, -19			; ffffffedH
  000ab	88 55 ec	 mov	 BYTE PTR __k$[ebp+8], dl
  000ae	8a 50 09	 mov	 dl, BYTE PTR [eax+9]
  000b1	84 d2		 test	 dl, dl
  000b3	0f 84 02 01 00
	00		 je	 $LN87@LoadInt_e
  000b9	32 d1		 xor	 dl, cl
  000bb	88 55 ed	 mov	 BYTE PTR __k$[ebp+9], dl
  000be	8a 50 0a	 mov	 dl, BYTE PTR [eax+10]
  000c1	84 d2		 test	 dl, dl
  000c3	0f 84 ec 00 00
	00		 je	 $LN86@LoadInt_e
  000c9	80 f2 eb	 xor	 dl, -21			; ffffffebH
  000cc	88 55 ee	 mov	 BYTE PTR __k$[ebp+10], dl
  000cf	8a 50 0b	 mov	 dl, BYTE PTR [eax+11]
  000d2	84 d2		 test	 dl, dl
  000d4	0f 84 d5 00 00
	00		 je	 $LN85@LoadInt_e
  000da	80 f2 ea	 xor	 dl, -22			; ffffffeaH
  000dd	88 55 ef	 mov	 BYTE PTR __k$[ebp+11], dl
  000e0	8a 50 0c	 mov	 dl, BYTE PTR [eax+12]
  000e3	84 d2		 test	 dl, dl
  000e5	0f 84 be 00 00
	00		 je	 $LN84@LoadInt_e
  000eb	80 f2 ed	 xor	 dl, -19			; ffffffedH
  000ee	88 55 f0	 mov	 BYTE PTR __k$[ebp+12], dl
  000f1	8a 50 0d	 mov	 dl, BYTE PTR [eax+13]
  000f4	84 d2		 test	 dl, dl
  000f6	0f 84 a8 00 00
	00		 je	 $LN83@LoadInt_e
  000fc	32 d1		 xor	 dl, cl
  000fe	88 55 f1	 mov	 BYTE PTR __k$[ebp+13], dl
  00101	8a 50 0e	 mov	 dl, BYTE PTR [eax+14]
  00104	84 d2		 test	 dl, dl
  00106	0f 84 92 00 00
	00		 je	 $LN82@LoadInt_e
  0010c	80 f2 eb	 xor	 dl, -21			; ffffffebH
  0010f	88 55 f2	 mov	 BYTE PTR __k$[ebp+14], dl
  00112	8a 50 0f	 mov	 dl, BYTE PTR [eax+15]
  00115	84 d2		 test	 dl, dl
  00117	74 7f		 je	 SHORT $LN81@LoadInt_e
  00119	80 f2 ea	 xor	 dl, -22			; ffffffeaH
  0011c	88 55 f3	 mov	 BYTE PTR __k$[ebp+15], dl
  0011f	8a 50 10	 mov	 dl, BYTE PTR [eax+16]
  00122	84 d2		 test	 dl, dl
  00124	74 6c		 je	 SHORT $LN80@LoadInt_e
  00126	80 f2 ed	 xor	 dl, -19			; ffffffedH
  00129	88 55 f4	 mov	 BYTE PTR __k$[ebp+16], dl
  0012c	8a 50 11	 mov	 dl, BYTE PTR [eax+17]
  0012f	84 d2		 test	 dl, dl
  00131	74 5a		 je	 SHORT $LN79@LoadInt_e
  00133	32 d1		 xor	 dl, cl
  00135	80 78 12 00	 cmp	 BYTE PTR [eax+18], 0
  00139	88 55 f5	 mov	 BYTE PTR __k$[ebp+17], dl
  0013c	0f 84 b1 00 00
	00		 je	 $LN1@LoadInt_e
  00142	8a 50 13	 mov	 dl, BYTE PTR [eax+19]
  00145	84 d2		 test	 dl, dl
  00147	74 3e		 je	 SHORT $LN77@LoadInt_e
  00149	80 f2 ea	 xor	 dl, -22			; ffffffeaH
  0014c	88 55 f7	 mov	 BYTE PTR __k$[ebp+19], dl
  0014f	8a 50 14	 mov	 dl, BYTE PTR [eax+20]
  00152	84 d2		 test	 dl, dl
  00154	74 2b		 je	 SHORT $LN76@LoadInt_e
  00156	80 f2 ed	 xor	 dl, -19			; ffffffedH
  00159	88 55 f8	 mov	 BYTE PTR __k$[ebp+20], dl
  0015c	8a 50 15	 mov	 dl, BYTE PTR [eax+21]
  0015f	84 d2		 test	 dl, dl
  00161	74 19		 je	 SHORT $LN75@LoadInt_e
  00163	8a 40 16	 mov	 al, BYTE PTR [eax+22]
  00166	32 d1		 xor	 dl, cl
  00168	88 55 f9	 mov	 BYTE PTR __k$[ebp+21], dl
  0016b	84 c0		 test	 al, al
  0016d	74 07		 je	 SHORT $LN74@LoadInt_e
  0016f	34 eb		 xor	 al, -21			; ffffffebH
  00171	88 45 fa	 mov	 BYTE PTR __k$[ebp+22], al
  00174	eb 7d		 jmp	 SHORT $LN1@LoadInt_e
$LN74@LoadInt_e:
  00176	c6 45 fa eb	 mov	 BYTE PTR __k$[ebp+22], -21 ; ffffffebH
  0017a	eb 77		 jmp	 SHORT $LN1@LoadInt_e
$LN75@LoadInt_e:
  0017c	88 4d f9	 mov	 BYTE PTR __k$[ebp+21], cl
  0017f	eb 72		 jmp	 SHORT $LN1@LoadInt_e
$LN76@LoadInt_e:
  00181	c6 45 f8 ed	 mov	 BYTE PTR __k$[ebp+20], -19 ; ffffffedH
  00185	eb 6c		 jmp	 SHORT $LN1@LoadInt_e
$LN77@LoadInt_e:
  00187	c6 45 f7 ea	 mov	 BYTE PTR __k$[ebp+19], -22 ; ffffffeaH
  0018b	eb 66		 jmp	 SHORT $LN1@LoadInt_e
$LN79@LoadInt_e:
  0018d	88 4d f5	 mov	 BYTE PTR __k$[ebp+17], cl
  00190	eb 61		 jmp	 SHORT $LN1@LoadInt_e
$LN80@LoadInt_e:
  00192	c6 45 f4 ed	 mov	 BYTE PTR __k$[ebp+16], -19 ; ffffffedH
  00196	eb 5b		 jmp	 SHORT $LN1@LoadInt_e
$LN81@LoadInt_e:
  00198	c6 45 f3 ea	 mov	 BYTE PTR __k$[ebp+15], -22 ; ffffffeaH
  0019c	eb 55		 jmp	 SHORT $LN1@LoadInt_e
$LN82@LoadInt_e:
  0019e	c6 45 f2 eb	 mov	 BYTE PTR __k$[ebp+14], -21 ; ffffffebH
  001a2	eb 4f		 jmp	 SHORT $LN1@LoadInt_e
$LN83@LoadInt_e:
  001a4	88 4d f1	 mov	 BYTE PTR __k$[ebp+13], cl
  001a7	eb 4a		 jmp	 SHORT $LN1@LoadInt_e
$LN84@LoadInt_e:
  001a9	c6 45 f0 ed	 mov	 BYTE PTR __k$[ebp+12], -19 ; ffffffedH
  001ad	eb 44		 jmp	 SHORT $LN1@LoadInt_e
$LN85@LoadInt_e:
  001af	c6 45 ef ea	 mov	 BYTE PTR __k$[ebp+11], -22 ; ffffffeaH
  001b3	eb 3e		 jmp	 SHORT $LN1@LoadInt_e
$LN86@LoadInt_e:
  001b5	c6 45 ee eb	 mov	 BYTE PTR __k$[ebp+10], -21 ; ffffffebH
  001b9	eb 38		 jmp	 SHORT $LN1@LoadInt_e
$LN87@LoadInt_e:
  001bb	88 4d ed	 mov	 BYTE PTR __k$[ebp+9], cl
  001be	eb 33		 jmp	 SHORT $LN1@LoadInt_e
$LN88@LoadInt_e:
  001c0	c6 45 ec ed	 mov	 BYTE PTR __k$[ebp+8], -19 ; ffffffedH
  001c4	eb 2d		 jmp	 SHORT $LN1@LoadInt_e
$LN89@LoadInt_e:
  001c6	c6 45 eb ea	 mov	 BYTE PTR __k$[ebp+7], -22 ; ffffffeaH
  001ca	eb 27		 jmp	 SHORT $LN1@LoadInt_e
$LN90@LoadInt_e:
  001cc	c6 45 ea eb	 mov	 BYTE PTR __k$[ebp+6], -21 ; ffffffebH
  001d0	eb 21		 jmp	 SHORT $LN1@LoadInt_e
$LN91@LoadInt_e:
  001d2	88 4d e9	 mov	 BYTE PTR __k$[ebp+5], cl
  001d5	eb 1c		 jmp	 SHORT $LN1@LoadInt_e
$LN92@LoadInt_e:
  001d7	c6 45 e8 ed	 mov	 BYTE PTR __k$[ebp+4], -19 ; ffffffedH
  001db	eb 16		 jmp	 SHORT $LN1@LoadInt_e
$LN93@LoadInt_e:
  001dd	c6 45 e7 ea	 mov	 BYTE PTR __k$[ebp+3], -22 ; ffffffeaH
  001e1	eb 10		 jmp	 SHORT $LN1@LoadInt_e
$LN94@LoadInt_e:
  001e3	c6 45 e6 eb	 mov	 BYTE PTR __k$[ebp+2], -21 ; ffffffebH
  001e7	eb 0a		 jmp	 SHORT $LN1@LoadInt_e
$LN95@LoadInt_e:
  001e9	c6 45 e5 ec	 mov	 BYTE PTR __k$[ebp+1], -20 ; ffffffecH
  001ed	eb 04		 jmp	 SHORT $LN1@LoadInt_e
$LN96@LoadInt_e:
  001ef	c6 45 e4 ed	 mov	 BYTE PTR __k$[ebp], -19	; ffffffedH
$LN1@LoadInt_e:
  001f3	6a 04		 push	 4
  001f5	8d 45 e4	 lea	 eax, DWORD PTR __k$[ebp]
  001f8	c6 45 f6 00	 mov	 BYTE PTR __k$[ebp+18], 0
  001fc	5a		 pop	 edx
$LL104@LoadInt_e:
  001fd	81 30 ed ec eb
	ea		 xor	 DWORD PTR [eax], -353637139 ; eaebecedH
  00203	83 c0 04	 add	 eax, 4
  00206	4a		 dec	 edx
  00207	75 f4		 jne	 SHORT $LL104@LoadInt_e
  00209	6a 10		 push	 16			; 00000010H
  0020b	58		 pop	 eax
$LL101@LoadInt_e:
  0020c	8b c8		 mov	 ecx, eax
  0020e	81 e1 03 00 00
	80		 and	 ecx, -2147483645	; 80000003H
  00214	79 05		 jns	 SHORT $LN111@LoadInt_e
  00216	49		 dec	 ecx
  00217	83 c9 fc	 or	 ecx, -4			; fffffffcH
  0021a	41		 inc	 ecx
$LN111@LoadInt_e:
  0021b	b2 ed		 mov	 dl, -19			; ffffffedH
  0021d	2a d1		 sub	 dl, cl
  0021f	30 54 05 e4	 xor	 BYTE PTR __k$[ebp+eax], dl
  00223	40		 inc	 eax
  00224	83 f8 12	 cmp	 eax, 18			; 00000012H
  00227	7c e3		 jl	 SHORT $LL101@LoadInt_e

; 120  : 		return LoadInt(_k, i);

  00229	ff 75 0c	 push	 DWORD PTR _i$[ebp]
  0022c	8d 45 e4	 lea	 eax, DWORD PTR __k$[ebp]
  0022f	50		 push	 eax
  00230	8b ce		 mov	 ecx, esi
  00232	ff 15 00 00 00
	00		 call	 DWORD PTR __imp_?LoadInt@ioINILoader@@QAEHPBDH@Z

; 121  : 	}

  00238	8b 4d fc	 mov	 ecx, DWORD PTR __$ArrayPad$[ebp]
  0023b	33 cd		 xor	 ecx, ebp
  0023d	5e		 pop	 esi
  0023e	e8 00 00 00 00	 call	 @__security_check_cookie@4
  00243	c9		 leave
  00244	c2 08 00	 ret	 8
??$LoadInt_e@$0BD@@ioINILoader@@QAEHAAY0BD@$$CBDH@Z ENDP ; ioINILoader::LoadInt_e<19>
_TEXT	ENDS
PUBLIC	_this$GSCopy$
PUBLIC	__$ArrayPad$
PUBLIC	??$LoadString_e@$0BM@@ioINILoader@@QAEXAAY0BM@$$CBDAAY00$$CBDPADH@Z ; ioINILoader::LoadString_e<28>
EXTRN	__imp_?LoadStringA@ioINILoader@@QAEXPBD0PADH@Z:PROC
; Function compile flags: /Ogsp
;	COMDAT ??$LoadString_e@$0BM@@ioINILoader@@QAEXAAY0BM@$$CBDAAY00$$CBDPADH@Z
_TEXT	SEGMENT
_this$GSCopy$ = -40					; size = 4
__k$ = -36						; size = 28
__$ArrayPad$ = -4					; size = 4
_k$ = 8							; size = 4
_d$ = 12						; size = 4
_b$ = 16						; size = 4
_i$ = 20						; size = 4
??$LoadString_e@$0BM@@ioINILoader@@QAEXAAY0BM@$$CBDAAY00$$CBDPADH@Z PROC ; ioINILoader::LoadString_e<28>, COMDAT
; _this$ = ecx

; 161  : 	{

  00000	55		 push	 ebp
  00001	8b ec		 mov	 ebp, esp
  00003	83 ec 28	 sub	 esp, 40			; 00000028H
  00006	a1 00 00 00 00	 mov	 eax, DWORD PTR ___security_cookie
  0000b	33 c5		 xor	 eax, ebp
  0000d	89 45 fc	 mov	 DWORD PTR __$ArrayPad$[ebp], eax
  00010	8b 45 08	 mov	 eax, DWORD PTR _k$[ebp]

; 162  : 		_ENCSTR(k, _k);

  00013	8a 10		 mov	 dl, BYTE PTR [eax]
  00015	53		 push	 ebx
  00016	56		 push	 esi
  00017	8b 75 0c	 mov	 esi, DWORD PTR _d$[ebp]
  0001a	57		 push	 edi
  0001b	8b 7d 10	 mov	 edi, DWORD PTR _b$[ebp]
  0001e	89 4d d8	 mov	 DWORD PTR _this$GSCopy$[ebp], ecx
  00021	84 d2		 test	 dl, dl
  00023	0f 84 a9 02 00
	00		 je	 $LN96@LoadString
  00029	80 f2 ed	 xor	 dl, -19			; ffffffedH
  0002c	88 55 dc	 mov	 BYTE PTR __k$[ebp], dl
  0002f	8a 50 01	 mov	 dl, BYTE PTR [eax+1]
  00032	84 d2		 test	 dl, dl
  00034	0f 84 92 02 00
	00		 je	 $LN95@LoadString
  0003a	b3 ec		 mov	 bl, -20			; ffffffecH
  0003c	32 d3		 xor	 dl, bl
  0003e	88 55 dd	 mov	 BYTE PTR __k$[ebp+1], dl
  00041	8a 50 02	 mov	 dl, BYTE PTR [eax+2]
  00044	84 d2		 test	 dl, dl
  00046	0f 84 7a 02 00
	00		 je	 $LN94@LoadString
  0004c	b1 eb		 mov	 cl, -21			; ffffffebH
  0004e	32 d1		 xor	 dl, cl
  00050	88 55 de	 mov	 BYTE PTR __k$[ebp+2], dl
  00053	8a 50 03	 mov	 dl, BYTE PTR [eax+3]
  00056	84 d2		 test	 dl, dl
  00058	0f 84 62 02 00
	00		 je	 $LN93@LoadString
  0005e	80 f2 ea	 xor	 dl, -22			; ffffffeaH
  00061	88 55 df	 mov	 BYTE PTR __k$[ebp+3], dl
  00064	8a 50 04	 mov	 dl, BYTE PTR [eax+4]
  00067	84 d2		 test	 dl, dl
  00069	0f 84 4b 02 00
	00		 je	 $LN92@LoadString
  0006f	80 f2 ed	 xor	 dl, -19			; ffffffedH
  00072	88 55 e0	 mov	 BYTE PTR __k$[ebp+4], dl
  00075	8a 50 05	 mov	 dl, BYTE PTR [eax+5]
  00078	84 d2		 test	 dl, dl
  0007a	0f 84 35 02 00
	00		 je	 $LN91@LoadString
  00080	32 d3		 xor	 dl, bl
  00082	88 55 e1	 mov	 BYTE PTR __k$[ebp+5], dl
  00085	8a 50 06	 mov	 dl, BYTE PTR [eax+6]
  00088	84 d2		 test	 dl, dl
  0008a	0f 84 20 02 00
	00		 je	 $LN90@LoadString
  00090	32 d1		 xor	 dl, cl
  00092	88 55 e2	 mov	 BYTE PTR __k$[ebp+6], dl
  00095	8a 50 07	 mov	 dl, BYTE PTR [eax+7]
  00098	84 d2		 test	 dl, dl
  0009a	0f 84 0a 02 00
	00		 je	 $LN89@LoadString
  000a0	80 f2 ea	 xor	 dl, -22			; ffffffeaH
  000a3	88 55 e3	 mov	 BYTE PTR __k$[ebp+7], dl
  000a6	8a 50 08	 mov	 dl, BYTE PTR [eax+8]
  000a9	84 d2		 test	 dl, dl
  000ab	0f 84 f3 01 00
	00		 je	 $LN88@LoadString
  000b1	80 f2 ed	 xor	 dl, -19			; ffffffedH
  000b4	88 55 e4	 mov	 BYTE PTR __k$[ebp+8], dl
  000b7	8a 50 09	 mov	 dl, BYTE PTR [eax+9]
  000ba	84 d2		 test	 dl, dl
  000bc	0f 84 dd 01 00
	00		 je	 $LN87@LoadString
  000c2	32 d3		 xor	 dl, bl
  000c4	88 55 e5	 mov	 BYTE PTR __k$[ebp+9], dl
  000c7	8a 50 0a	 mov	 dl, BYTE PTR [eax+10]
  000ca	84 d2		 test	 dl, dl
  000cc	0f 84 c8 01 00
	00		 je	 $LN86@LoadString
  000d2	32 d1		 xor	 dl, cl
  000d4	88 55 e6	 mov	 BYTE PTR __k$[ebp+10], dl
  000d7	8a 50 0b	 mov	 dl, BYTE PTR [eax+11]
  000da	84 d2		 test	 dl, dl
  000dc	0f 84 b2 01 00
	00		 je	 $LN85@LoadString
  000e2	80 f2 ea	 xor	 dl, -22			; ffffffeaH
  000e5	88 55 e7	 mov	 BYTE PTR __k$[ebp+11], dl
  000e8	8a 50 0c	 mov	 dl, BYTE PTR [eax+12]
  000eb	84 d2		 test	 dl, dl
  000ed	0f 84 9b 01 00
	00		 je	 $LN84@LoadString
  000f3	80 f2 ed	 xor	 dl, -19			; ffffffedH
  000f6	88 55 e8	 mov	 BYTE PTR __k$[ebp+12], dl
  000f9	8a 50 0d	 mov	 dl, BYTE PTR [eax+13]
  000fc	84 d2		 test	 dl, dl
  000fe	0f 84 85 01 00
	00		 je	 $LN83@LoadString
  00104	32 d3		 xor	 dl, bl
  00106	88 55 e9	 mov	 BYTE PTR __k$[ebp+13], dl
  00109	8a 50 0e	 mov	 dl, BYTE PTR [eax+14]
  0010c	84 d2		 test	 dl, dl
  0010e	0f 84 70 01 00
	00		 je	 $LN82@LoadString
  00114	32 d1		 xor	 dl, cl
  00116	88 55 ea	 mov	 BYTE PTR __k$[ebp+14], dl
  00119	8a 50 0f	 mov	 dl, BYTE PTR [eax+15]
  0011c	84 d2		 test	 dl, dl
  0011e	0f 84 5a 01 00
	00		 je	 $LN81@LoadString
  00124	80 f2 ea	 xor	 dl, -22			; ffffffeaH
  00127	88 55 eb	 mov	 BYTE PTR __k$[ebp+15], dl
  0012a	8a 50 10	 mov	 dl, BYTE PTR [eax+16]
  0012d	84 d2		 test	 dl, dl
  0012f	0f 84 43 01 00
	00		 je	 $LN80@LoadString
  00135	80 f2 ed	 xor	 dl, -19			; ffffffedH
  00138	88 55 ec	 mov	 BYTE PTR __k$[ebp+16], dl
  0013b	8a 50 11	 mov	 dl, BYTE PTR [eax+17]
  0013e	84 d2		 test	 dl, dl
  00140	0f 84 2d 01 00
	00		 je	 $LN79@LoadString
  00146	32 d3		 xor	 dl, bl
  00148	88 55 ed	 mov	 BYTE PTR __k$[ebp+17], dl
  0014b	8a 50 12	 mov	 dl, BYTE PTR [eax+18]
  0014e	84 d2		 test	 dl, dl
  00150	0f 84 18 01 00
	00		 je	 $LN78@LoadString
  00156	32 d1		 xor	 dl, cl
  00158	88 55 ee	 mov	 BYTE PTR __k$[ebp+18], dl
  0015b	8a 50 13	 mov	 dl, BYTE PTR [eax+19]
  0015e	84 d2		 test	 dl, dl
  00160	0f 84 02 01 00
	00		 je	 $LN77@LoadString
  00166	80 f2 ea	 xor	 dl, -22			; ffffffeaH
  00169	88 55 ef	 mov	 BYTE PTR __k$[ebp+19], dl
  0016c	8a 50 14	 mov	 dl, BYTE PTR [eax+20]
  0016f	84 d2		 test	 dl, dl
  00171	0f 84 eb 00 00
	00		 je	 $LN76@LoadString
  00177	80 f2 ed	 xor	 dl, -19			; ffffffedH
  0017a	88 55 f0	 mov	 BYTE PTR __k$[ebp+20], dl
  0017d	8a 50 15	 mov	 dl, BYTE PTR [eax+21]
  00180	84 d2		 test	 dl, dl
  00182	0f 84 d5 00 00
	00		 je	 $LN75@LoadString
  00188	32 d3		 xor	 dl, bl
  0018a	88 55 f1	 mov	 BYTE PTR __k$[ebp+21], dl
  0018d	8a 50 16	 mov	 dl, BYTE PTR [eax+22]
  00190	84 d2		 test	 dl, dl
  00192	0f 84 c0 00 00
	00		 je	 $LN74@LoadString
  00198	32 d1		 xor	 dl, cl
  0019a	88 55 f2	 mov	 BYTE PTR __k$[ebp+22], dl
  0019d	8a 50 17	 mov	 dl, BYTE PTR [eax+23]
  001a0	84 d2		 test	 dl, dl
  001a2	0f 84 aa 00 00
	00		 je	 $LN73@LoadString
  001a8	80 f2 ea	 xor	 dl, -22			; ffffffeaH
  001ab	88 55 f3	 mov	 BYTE PTR __k$[ebp+23], dl
  001ae	8a 50 18	 mov	 dl, BYTE PTR [eax+24]
  001b1	84 d2		 test	 dl, dl
  001b3	0f 84 90 00 00
	00		 je	 $LN72@LoadString
  001b9	80 f2 ed	 xor	 dl, -19			; ffffffedH
  001bc	88 55 f4	 mov	 BYTE PTR __k$[ebp+24], dl
  001bf	8a 50 19	 mov	 dl, BYTE PTR [eax+25]
  001c2	84 d2		 test	 dl, dl
  001c4	74 7b		 je	 SHORT $LN71@LoadString
  001c6	32 d3		 xor	 dl, bl
  001c8	88 55 f5	 mov	 BYTE PTR __k$[ebp+25], dl
  001cb	8a 50 1a	 mov	 dl, BYTE PTR [eax+26]
  001ce	84 d2		 test	 dl, dl
  001d0	74 67		 je	 SHORT $LN70@LoadString
  001d2	32 d1		 xor	 dl, cl
  001d4	80 78 1b 00	 cmp	 BYTE PTR [eax+27], 0
  001d8	88 55 f6	 mov	 BYTE PTR __k$[ebp+26], dl
  001db	0f 84 f5 00 00
	00		 je	 $LN111@LoadString
  001e1	8a 50 1c	 mov	 dl, BYTE PTR [eax+28]
  001e4	84 d2		 test	 dl, dl
  001e6	74 48		 je	 SHORT $LN68@LoadString
  001e8	80 f2 ed	 xor	 dl, -19			; ffffffedH
  001eb	88 55 f8	 mov	 BYTE PTR __k$[ebp+28], dl
  001ee	8a 50 1d	 mov	 dl, BYTE PTR [eax+29]
  001f1	84 d2		 test	 dl, dl
  001f3	74 33		 je	 SHORT $LN67@LoadString
  001f5	32 d3		 xor	 dl, bl
  001f7	88 55 f9	 mov	 BYTE PTR __k$[ebp+29], dl
  001fa	8a 50 1e	 mov	 dl, BYTE PTR [eax+30]
  001fd	84 d2		 test	 dl, dl
  001ff	74 1f		 je	 SHORT $LN66@LoadString
  00201	8a 40 1f	 mov	 al, BYTE PTR [eax+31]
  00204	32 d1		 xor	 dl, cl
  00206	88 55 fa	 mov	 BYTE PTR __k$[ebp+30], dl
  00209	84 c0		 test	 al, al
  0020b	74 0a		 je	 SHORT $LN65@LoadString
  0020d	34 ea		 xor	 al, -22			; ffffffeaH
  0020f	88 45 fb	 mov	 BYTE PTR __k$[ebp+31], al
  00212	e9 bf 00 00 00	 jmp	 $LN111@LoadString
$LN65@LoadString:
  00217	c6 45 fb ea	 mov	 BYTE PTR __k$[ebp+31], -22 ; ffffffeaH
  0021b	e9 b6 00 00 00	 jmp	 $LN111@LoadString
$LN66@LoadString:
  00220	88 4d fa	 mov	 BYTE PTR __k$[ebp+30], cl
  00223	e9 ae 00 00 00	 jmp	 $LN111@LoadString
$LN67@LoadString:
  00228	88 5d f9	 mov	 BYTE PTR __k$[ebp+29], bl
  0022b	e9 a6 00 00 00	 jmp	 $LN111@LoadString
$LN68@LoadString:
  00230	c6 45 f8 ed	 mov	 BYTE PTR __k$[ebp+28], -19 ; ffffffedH
  00234	e9 9d 00 00 00	 jmp	 $LN111@LoadString
$LN70@LoadString:
  00239	88 4d f6	 mov	 BYTE PTR __k$[ebp+26], cl
  0023c	e9 95 00 00 00	 jmp	 $LN111@LoadString
$LN71@LoadString:
  00241	88 5d f5	 mov	 BYTE PTR __k$[ebp+25], bl
  00244	e9 8d 00 00 00	 jmp	 $LN111@LoadString
$LN72@LoadString:
  00249	c6 45 f4 ed	 mov	 BYTE PTR __k$[ebp+24], -19 ; ffffffedH
  0024d	e9 84 00 00 00	 jmp	 $LN111@LoadString
$LN73@LoadString:
  00252	c6 45 f3 ea	 mov	 BYTE PTR __k$[ebp+23], -22 ; ffffffeaH
  00256	eb 7e		 jmp	 SHORT $LN111@LoadString
$LN74@LoadString:
  00258	88 4d f2	 mov	 BYTE PTR __k$[ebp+22], cl
  0025b	eb 79		 jmp	 SHORT $LN111@LoadString
$LN75@LoadString:
  0025d	88 5d f1	 mov	 BYTE PTR __k$[ebp+21], bl
  00260	eb 74		 jmp	 SHORT $LN111@LoadString
$LN76@LoadString:
  00262	c6 45 f0 ed	 mov	 BYTE PTR __k$[ebp+20], -19 ; ffffffedH
  00266	eb 6e		 jmp	 SHORT $LN111@LoadString
$LN77@LoadString:
  00268	c6 45 ef ea	 mov	 BYTE PTR __k$[ebp+19], -22 ; ffffffeaH
  0026c	eb 68		 jmp	 SHORT $LN111@LoadString
$LN78@LoadString:
  0026e	88 4d ee	 mov	 BYTE PTR __k$[ebp+18], cl
  00271	eb 63		 jmp	 SHORT $LN111@LoadString
$LN79@LoadString:
  00273	88 5d ed	 mov	 BYTE PTR __k$[ebp+17], bl
  00276	eb 5e		 jmp	 SHORT $LN111@LoadString
$LN80@LoadString:
  00278	c6 45 ec ed	 mov	 BYTE PTR __k$[ebp+16], -19 ; ffffffedH
  0027c	eb 58		 jmp	 SHORT $LN111@LoadString
$LN81@LoadString:
  0027e	c6 45 eb ea	 mov	 BYTE PTR __k$[ebp+15], -22 ; ffffffeaH
  00282	eb 52		 jmp	 SHORT $LN111@LoadString
$LN82@LoadString:
  00284	88 4d ea	 mov	 BYTE PTR __k$[ebp+14], cl
  00287	eb 4d		 jmp	 SHORT $LN111@LoadString
$LN83@LoadString:
  00289	88 5d e9	 mov	 BYTE PTR __k$[ebp+13], bl
  0028c	eb 48		 jmp	 SHORT $LN111@LoadString
$LN84@LoadString:
  0028e	c6 45 e8 ed	 mov	 BYTE PTR __k$[ebp+12], -19 ; ffffffedH
  00292	eb 42		 jmp	 SHORT $LN111@LoadString
$LN85@LoadString:
  00294	c6 45 e7 ea	 mov	 BYTE PTR __k$[ebp+11], -22 ; ffffffeaH
  00298	eb 3c		 jmp	 SHORT $LN111@LoadString
$LN86@LoadString:
  0029a	88 4d e6	 mov	 BYTE PTR __k$[ebp+10], cl
  0029d	eb 37		 jmp	 SHORT $LN111@LoadString
$LN87@LoadString:
  0029f	88 5d e5	 mov	 BYTE PTR __k$[ebp+9], bl
  002a2	eb 32		 jmp	 SHORT $LN111@LoadString
$LN88@LoadString:
  002a4	c6 45 e4 ed	 mov	 BYTE PTR __k$[ebp+8], -19 ; ffffffedH
  002a8	eb 2c		 jmp	 SHORT $LN111@LoadString
$LN89@LoadString:
  002aa	c6 45 e3 ea	 mov	 BYTE PTR __k$[ebp+7], -22 ; ffffffeaH
  002ae	eb 26		 jmp	 SHORT $LN111@LoadString
$LN90@LoadString:
  002b0	88 4d e2	 mov	 BYTE PTR __k$[ebp+6], cl
  002b3	eb 21		 jmp	 SHORT $LN111@LoadString
$LN91@LoadString:
  002b5	88 5d e1	 mov	 BYTE PTR __k$[ebp+5], bl
  002b8	eb 1c		 jmp	 SHORT $LN111@LoadString
$LN92@LoadString:
  002ba	c6 45 e0 ed	 mov	 BYTE PTR __k$[ebp+4], -19 ; ffffffedH
  002be	eb 16		 jmp	 SHORT $LN111@LoadString
$LN93@LoadString:
  002c0	c6 45 df ea	 mov	 BYTE PTR __k$[ebp+3], -22 ; ffffffeaH
  002c4	eb 10		 jmp	 SHORT $LN111@LoadString
$LN94@LoadString:
  002c6	c6 45 de eb	 mov	 BYTE PTR __k$[ebp+2], -21 ; ffffffebH
  002ca	eb 0a		 jmp	 SHORT $LN111@LoadString
$LN95@LoadString:
  002cc	c6 45 dd ec	 mov	 BYTE PTR __k$[ebp+1], -20 ; ffffffecH
  002d0	eb 04		 jmp	 SHORT $LN111@LoadString
$LN96@LoadString:
  002d2	c6 45 dc ed	 mov	 BYTE PTR __k$[ebp], -19	; ffffffedH
$LN111@LoadString:
  002d6	6a 06		 push	 6
  002d8	8d 45 dc	 lea	 eax, DWORD PTR __k$[ebp]
  002db	c6 45 f7 00	 mov	 BYTE PTR __k$[ebp+27], 0
  002df	5a		 pop	 edx
$LL104@LoadString:
  002e0	81 30 ed ec eb
	ea		 xor	 DWORD PTR [eax], -353637139 ; eaebecedH
  002e6	83 c0 04	 add	 eax, 4
  002e9	4a		 dec	 edx
  002ea	75 f4		 jne	 SHORT $LL104@LoadString
  002ec	6a 18		 push	 24			; 00000018H
  002ee	58		 pop	 eax
$LL101@LoadString:
  002ef	8b c8		 mov	 ecx, eax
  002f1	81 e1 03 00 00
	80		 and	 ecx, -2147483645	; 80000003H
  002f7	79 05		 jns	 SHORT $LN112@LoadString
  002f9	49		 dec	 ecx
  002fa	83 c9 fc	 or	 ecx, -4			; fffffffcH
  002fd	41		 inc	 ecx
$LN112@LoadString:
  002fe	b2 ed		 mov	 dl, -19			; ffffffedH
  00300	2a d1		 sub	 dl, cl
  00302	30 54 05 dc	 xor	 BYTE PTR __k$[ebp+eax], dl
  00306	40		 inc	 eax
  00307	83 f8 1b	 cmp	 eax, 27			; 0000001bH
  0030a	7c e3		 jl	 SHORT $LL101@LoadString

; 163  : 		LoadString(_k, d, b, i);

  0030c	ff 75 14	 push	 DWORD PTR _i$[ebp]
  0030f	8b 4d d8	 mov	 ecx, DWORD PTR _this$GSCopy$[ebp]
  00312	57		 push	 edi
  00313	56		 push	 esi
  00314	8d 45 dc	 lea	 eax, DWORD PTR __k$[ebp]
  00317	50		 push	 eax
  00318	ff 15 00 00 00
	00		 call	 DWORD PTR __imp_?LoadStringA@ioINILoader@@QAEXPBD0PADH@Z

; 164  : 	}

  0031e	8b 4d fc	 mov	 ecx, DWORD PTR __$ArrayPad$[ebp]
  00321	5f		 pop	 edi
  00322	5e		 pop	 esi
  00323	33 cd		 xor	 ecx, ebp
  00325	5b		 pop	 ebx
  00326	e8 00 00 00 00	 call	 @__security_check_cookie@4
  0032b	c9		 leave
  0032c	c2 10 00	 ret	 16			; 00000010H
??$LoadString_e@$0BM@@ioINILoader@@QAEXAAY0BM@$$CBDAAY00$$CBDPADH@Z ENDP ; ioINILoader::LoadString_e<28>
_TEXT	ENDS
PUBLIC	_this$GSCopy$
PUBLIC	__$ArrayPad$
PUBLIC	??$LoadString_e@$0BL@@ioINILoader@@QAEXAAY0BL@$$CBDAAY00$$CBDPADH@Z ; ioINILoader::LoadString_e<27>
; Function compile flags: /Ogsp
;	COMDAT ??$LoadString_e@$0BL@@ioINILoader@@QAEXAAY0BL@$$CBDAAY00$$CBDPADH@Z
_TEXT	SEGMENT
_this$GSCopy$ = -40					; size = 4
__k$ = -36						; size = 27
__$ArrayPad$ = -4					; size = 4
_k$ = 8							; size = 4
_d$ = 12						; size = 4
_b$ = 16						; size = 4
_i$ = 20						; size = 4
??$LoadString_e@$0BL@@ioINILoader@@QAEXAAY0BL@$$CBDAAY00$$CBDPADH@Z PROC ; ioINILoader::LoadString_e<27>, COMDAT
; _this$ = ecx

; 161  : 	{

  00000	55		 push	 ebp
  00001	8b ec		 mov	 ebp, esp
  00003	83 ec 28	 sub	 esp, 40			; 00000028H
  00006	a1 00 00 00 00	 mov	 eax, DWORD PTR ___security_cookie
  0000b	33 c5		 xor	 eax, ebp
  0000d	89 45 fc	 mov	 DWORD PTR __$ArrayPad$[ebp], eax
  00010	8b 45 08	 mov	 eax, DWORD PTR _k$[ebp]

; 162  : 		_ENCSTR(k, _k);

  00013	8a 10		 mov	 dl, BYTE PTR [eax]
  00015	53		 push	 ebx
  00016	56		 push	 esi
  00017	8b 75 0c	 mov	 esi, DWORD PTR _d$[ebp]
  0001a	57		 push	 edi
  0001b	8b 7d 10	 mov	 edi, DWORD PTR _b$[ebp]
  0001e	89 4d d8	 mov	 DWORD PTR _this$GSCopy$[ebp], ecx
  00021	84 d2		 test	 dl, dl
  00023	0f 84 91 02 00
	00		 je	 $LN96@LoadString@2
  00029	80 f2 ed	 xor	 dl, -19			; ffffffedH
  0002c	88 55 dc	 mov	 BYTE PTR __k$[ebp], dl
  0002f	8a 50 01	 mov	 dl, BYTE PTR [eax+1]
  00032	84 d2		 test	 dl, dl
  00034	0f 84 7a 02 00
	00		 je	 $LN95@LoadString@2
  0003a	b1 ec		 mov	 cl, -20			; ffffffecH
  0003c	32 d1		 xor	 dl, cl
  0003e	88 55 dd	 mov	 BYTE PTR __k$[ebp+1], dl
  00041	8a 50 02	 mov	 dl, BYTE PTR [eax+2]
  00044	84 d2		 test	 dl, dl
  00046	0f 84 62 02 00
	00		 je	 $LN94@LoadString@2
  0004c	80 f2 eb	 xor	 dl, -21			; ffffffebH
  0004f	88 55 de	 mov	 BYTE PTR __k$[ebp+2], dl
  00052	8a 50 03	 mov	 dl, BYTE PTR [eax+3]
  00055	84 d2		 test	 dl, dl
  00057	0f 84 4b 02 00
	00		 je	 $LN93@LoadString@2
  0005d	b3 ea		 mov	 bl, -22			; ffffffeaH
  0005f	32 d3		 xor	 dl, bl
  00061	88 55 df	 mov	 BYTE PTR __k$[ebp+3], dl
  00064	8a 50 04	 mov	 dl, BYTE PTR [eax+4]
  00067	84 d2		 test	 dl, dl
  00069	0f 84 33 02 00
	00		 je	 $LN92@LoadString@2
  0006f	80 f2 ed	 xor	 dl, -19			; ffffffedH
  00072	88 55 e0	 mov	 BYTE PTR __k$[ebp+4], dl
  00075	8a 50 05	 mov	 dl, BYTE PTR [eax+5]
  00078	84 d2		 test	 dl, dl
  0007a	0f 84 1d 02 00
	00		 je	 $LN91@LoadString@2
  00080	32 d1		 xor	 dl, cl
  00082	88 55 e1	 mov	 BYTE PTR __k$[ebp+5], dl
  00085	8a 50 06	 mov	 dl, BYTE PTR [eax+6]
  00088	84 d2		 test	 dl, dl
  0008a	0f 84 07 02 00
	00		 je	 $LN90@LoadString@2
  00090	80 f2 eb	 xor	 dl, -21			; ffffffebH
  00093	88 55 e2	 mov	 BYTE PTR __k$[ebp+6], dl
  00096	8a 50 07	 mov	 dl, BYTE PTR [eax+7]
  00099	84 d2		 test	 dl, dl
  0009b	0f 84 f1 01 00
	00		 je	 $LN89@LoadString@2
  000a1	32 d3		 xor	 dl, bl
  000a3	88 55 e3	 mov	 BYTE PTR __k$[ebp+7], dl
  000a6	8a 50 08	 mov	 dl, BYTE PTR [eax+8]
  000a9	84 d2		 test	 dl, dl
  000ab	0f 84 db 01 00
	00		 je	 $LN88@LoadString@2
  000b1	80 f2 ed	 xor	 dl, -19			; ffffffedH
  000b4	88 55 e4	 mov	 BYTE PTR __k$[ebp+8], dl
  000b7	8a 50 09	 mov	 dl, BYTE PTR [eax+9]
  000ba	84 d2		 test	 dl, dl
  000bc	0f 84 c5 01 00
	00		 je	 $LN87@LoadString@2
  000c2	32 d1		 xor	 dl, cl
  000c4	88 55 e5	 mov	 BYTE PTR __k$[ebp+9], dl
  000c7	8a 50 0a	 mov	 dl, BYTE PTR [eax+10]
  000ca	84 d2		 test	 dl, dl
  000cc	0f 84 af 01 00
	00		 je	 $LN86@LoadString@2
  000d2	80 f2 eb	 xor	 dl, -21			; ffffffebH
  000d5	88 55 e6	 mov	 BYTE PTR __k$[ebp+10], dl
  000d8	8a 50 0b	 mov	 dl, BYTE PTR [eax+11]
  000db	84 d2		 test	 dl, dl
  000dd	0f 84 99 01 00
	00		 je	 $LN85@LoadString@2
  000e3	32 d3		 xor	 dl, bl
  000e5	88 55 e7	 mov	 BYTE PTR __k$[ebp+11], dl
  000e8	8a 50 0c	 mov	 dl, BYTE PTR [eax+12]
  000eb	84 d2		 test	 dl, dl
  000ed	0f 84 83 01 00
	00		 je	 $LN84@LoadString@2
  000f3	80 f2 ed	 xor	 dl, -19			; ffffffedH
  000f6	88 55 e8	 mov	 BYTE PTR __k$[ebp+12], dl
  000f9	8a 50 0d	 mov	 dl, BYTE PTR [eax+13]
  000fc	84 d2		 test	 dl, dl
  000fe	0f 84 6d 01 00
	00		 je	 $LN83@LoadString@2
  00104	32 d1		 xor	 dl, cl
  00106	88 55 e9	 mov	 BYTE PTR __k$[ebp+13], dl
  00109	8a 50 0e	 mov	 dl, BYTE PTR [eax+14]
  0010c	84 d2		 test	 dl, dl
  0010e	0f 84 57 01 00
	00		 je	 $LN82@LoadString@2
  00114	80 f2 eb	 xor	 dl, -21			; ffffffebH
  00117	88 55 ea	 mov	 BYTE PTR __k$[ebp+14], dl
  0011a	8a 50 0f	 mov	 dl, BYTE PTR [eax+15]
  0011d	84 d2		 test	 dl, dl
  0011f	0f 84 41 01 00
	00		 je	 $LN81@LoadString@2
  00125	32 d3		 xor	 dl, bl
  00127	88 55 eb	 mov	 BYTE PTR __k$[ebp+15], dl
  0012a	8a 50 10	 mov	 dl, BYTE PTR [eax+16]
  0012d	84 d2		 test	 dl, dl
  0012f	0f 84 2b 01 00
	00		 je	 $LN80@LoadString@2
  00135	80 f2 ed	 xor	 dl, -19			; ffffffedH
  00138	88 55 ec	 mov	 BYTE PTR __k$[ebp+16], dl
  0013b	8a 50 11	 mov	 dl, BYTE PTR [eax+17]
  0013e	84 d2		 test	 dl, dl
  00140	0f 84 15 01 00
	00		 je	 $LN79@LoadString@2
  00146	32 d1		 xor	 dl, cl
  00148	88 55 ed	 mov	 BYTE PTR __k$[ebp+17], dl
  0014b	8a 50 12	 mov	 dl, BYTE PTR [eax+18]
  0014e	84 d2		 test	 dl, dl
  00150	0f 84 ff 00 00
	00		 je	 $LN78@LoadString@2
  00156	80 f2 eb	 xor	 dl, -21			; ffffffebH
  00159	88 55 ee	 mov	 BYTE PTR __k$[ebp+18], dl
  0015c	8a 50 13	 mov	 dl, BYTE PTR [eax+19]
  0015f	84 d2		 test	 dl, dl
  00161	0f 84 e9 00 00
	00		 je	 $LN77@LoadString@2
  00167	32 d3		 xor	 dl, bl
  00169	88 55 ef	 mov	 BYTE PTR __k$[ebp+19], dl
  0016c	8a 50 14	 mov	 dl, BYTE PTR [eax+20]
  0016f	84 d2		 test	 dl, dl
  00171	0f 84 d3 00 00
	00		 je	 $LN76@LoadString@2
  00177	80 f2 ed	 xor	 dl, -19			; ffffffedH
  0017a	88 55 f0	 mov	 BYTE PTR __k$[ebp+20], dl
  0017d	8a 50 15	 mov	 dl, BYTE PTR [eax+21]
  00180	84 d2		 test	 dl, dl
  00182	0f 84 bd 00 00
	00		 je	 $LN75@LoadString@2
  00188	32 d1		 xor	 dl, cl
  0018a	88 55 f1	 mov	 BYTE PTR __k$[ebp+21], dl
  0018d	8a 50 16	 mov	 dl, BYTE PTR [eax+22]
  00190	84 d2		 test	 dl, dl
  00192	0f 84 a7 00 00
	00		 je	 $LN74@LoadString@2
  00198	80 f2 eb	 xor	 dl, -21			; ffffffebH
  0019b	88 55 f2	 mov	 BYTE PTR __k$[ebp+22], dl
  0019e	8a 50 17	 mov	 dl, BYTE PTR [eax+23]
  001a1	84 d2		 test	 dl, dl
  001a3	0f 84 91 00 00
	00		 je	 $LN73@LoadString@2
  001a9	32 d3		 xor	 dl, bl
  001ab	88 55 f3	 mov	 BYTE PTR __k$[ebp+23], dl
  001ae	8a 50 18	 mov	 dl, BYTE PTR [eax+24]
  001b1	84 d2		 test	 dl, dl
  001b3	74 7c		 je	 SHORT $LN72@LoadString@2
  001b5	80 f2 ed	 xor	 dl, -19			; ffffffedH
  001b8	88 55 f4	 mov	 BYTE PTR __k$[ebp+24], dl
  001bb	8a 50 19	 mov	 dl, BYTE PTR [eax+25]
  001be	84 d2		 test	 dl, dl
  001c0	74 67		 je	 SHORT $LN71@LoadString@2
  001c2	32 d1		 xor	 dl, cl
  001c4	80 78 1a 00	 cmp	 BYTE PTR [eax+26], 0
  001c8	88 55 f5	 mov	 BYTE PTR __k$[ebp+25], dl
  001cb	0f 84 ed 00 00
	00		 je	 $LN111@LoadString@2
  001d1	8a 50 1b	 mov	 dl, BYTE PTR [eax+27]
  001d4	84 d2		 test	 dl, dl
  001d6	74 49		 je	 SHORT $LN69@LoadString@2
  001d8	32 d3		 xor	 dl, bl
  001da	88 55 f7	 mov	 BYTE PTR __k$[ebp+27], dl
  001dd	8a 50 1c	 mov	 dl, BYTE PTR [eax+28]
  001e0	84 d2		 test	 dl, dl
  001e2	74 34		 je	 SHORT $LN68@LoadString@2
  001e4	80 f2 ed	 xor	 dl, -19			; ffffffedH
  001e7	88 55 f8	 mov	 BYTE PTR __k$[ebp+28], dl
  001ea	8a 50 1d	 mov	 dl, BYTE PTR [eax+29]
  001ed	84 d2		 test	 dl, dl
  001ef	74 1f		 je	 SHORT $LN67@LoadString@2
  001f1	8a 40 1e	 mov	 al, BYTE PTR [eax+30]
  001f4	32 d1		 xor	 dl, cl
  001f6	88 55 f9	 mov	 BYTE PTR __k$[ebp+29], dl
  001f9	84 c0		 test	 al, al
  001fb	74 0a		 je	 SHORT $LN66@LoadString@2
  001fd	34 eb		 xor	 al, -21			; ffffffebH
  001ff	88 45 fa	 mov	 BYTE PTR __k$[ebp+30], al
  00202	e9 b7 00 00 00	 jmp	 $LN111@LoadString@2
$LN66@LoadString@2:
  00207	c6 45 fa eb	 mov	 BYTE PTR __k$[ebp+30], -21 ; ffffffebH
  0020b	e9 ae 00 00 00	 jmp	 $LN111@LoadString@2
$LN67@LoadString@2:
  00210	88 4d f9	 mov	 BYTE PTR __k$[ebp+29], cl
  00213	e9 a6 00 00 00	 jmp	 $LN111@LoadString@2
$LN68@LoadString@2:
  00218	c6 45 f8 ed	 mov	 BYTE PTR __k$[ebp+28], -19 ; ffffffedH
  0021c	e9 9d 00 00 00	 jmp	 $LN111@LoadString@2
$LN69@LoadString@2:
  00221	88 5d f7	 mov	 BYTE PTR __k$[ebp+27], bl
  00224	e9 95 00 00 00	 jmp	 $LN111@LoadString@2
$LN71@LoadString@2:
  00229	88 4d f5	 mov	 BYTE PTR __k$[ebp+25], cl
  0022c	e9 8d 00 00 00	 jmp	 $LN111@LoadString@2
$LN72@LoadString@2:
  00231	c6 45 f4 ed	 mov	 BYTE PTR __k$[ebp+24], -19 ; ffffffedH
  00235	e9 84 00 00 00	 jmp	 $LN111@LoadString@2
$LN73@LoadString@2:
  0023a	88 5d f3	 mov	 BYTE PTR __k$[ebp+23], bl
  0023d	eb 7f		 jmp	 SHORT $LN111@LoadString@2
$LN74@LoadString@2:
  0023f	c6 45 f2 eb	 mov	 BYTE PTR __k$[ebp+22], -21 ; ffffffebH
  00243	eb 79		 jmp	 SHORT $LN111@LoadString@2
$LN75@LoadString@2:
  00245	88 4d f1	 mov	 BYTE PTR __k$[ebp+21], cl
  00248	eb 74		 jmp	 SHORT $LN111@LoadString@2
$LN76@LoadString@2:
  0024a	c6 45 f0 ed	 mov	 BYTE PTR __k$[ebp+20], -19 ; ffffffedH
  0024e	eb 6e		 jmp	 SHORT $LN111@LoadString@2
$LN77@LoadString@2:
  00250	88 5d ef	 mov	 BYTE PTR __k$[ebp+19], bl
  00253	eb 69		 jmp	 SHORT $LN111@LoadString@2
$LN78@LoadString@2:
  00255	c6 45 ee eb	 mov	 BYTE PTR __k$[ebp+18], -21 ; ffffffebH
  00259	eb 63		 jmp	 SHORT $LN111@LoadString@2
$LN79@LoadString@2:
  0025b	88 4d ed	 mov	 BYTE PTR __k$[ebp+17], cl
  0025e	eb 5e		 jmp	 SHORT $LN111@LoadString@2
$LN80@LoadString@2:
  00260	c6 45 ec ed	 mov	 BYTE PTR __k$[ebp+16], -19 ; ffffffedH
  00264	eb 58		 jmp	 SHORT $LN111@LoadString@2
$LN81@LoadString@2:
  00266	88 5d eb	 mov	 BYTE PTR __k$[ebp+15], bl
  00269	eb 53		 jmp	 SHORT $LN111@LoadString@2
$LN82@LoadString@2:
  0026b	c6 45 ea eb	 mov	 BYTE PTR __k$[ebp+14], -21 ; ffffffebH
  0026f	eb 4d		 jmp	 SHORT $LN111@LoadString@2
$LN83@LoadString@2:
  00271	88 4d e9	 mov	 BYTE PTR __k$[ebp+13], cl
  00274	eb 48		 jmp	 SHORT $LN111@LoadString@2
$LN84@LoadString@2:
  00276	c6 45 e8 ed	 mov	 BYTE PTR __k$[ebp+12], -19 ; ffffffedH
  0027a	eb 42		 jmp	 SHORT $LN111@LoadString@2
$LN85@LoadString@2:
  0027c	88 5d e7	 mov	 BYTE PTR __k$[ebp+11], bl
  0027f	eb 3d		 jmp	 SHORT $LN111@LoadString@2
$LN86@LoadString@2:
  00281	c6 45 e6 eb	 mov	 BYTE PTR __k$[ebp+10], -21 ; ffffffebH
  00285	eb 37		 jmp	 SHORT $LN111@LoadString@2
$LN87@LoadString@2:
  00287	88 4d e5	 mov	 BYTE PTR __k$[ebp+9], cl
  0028a	eb 32		 jmp	 SHORT $LN111@LoadString@2
$LN88@LoadString@2:
  0028c	c6 45 e4 ed	 mov	 BYTE PTR __k$[ebp+8], -19 ; ffffffedH
  00290	eb 2c		 jmp	 SHORT $LN111@LoadString@2
$LN89@LoadString@2:
  00292	88 5d e3	 mov	 BYTE PTR __k$[ebp+7], bl
  00295	eb 27		 jmp	 SHORT $LN111@LoadString@2
$LN90@LoadString@2:
  00297	c6 45 e2 eb	 mov	 BYTE PTR __k$[ebp+6], -21 ; ffffffebH
  0029b	eb 21		 jmp	 SHORT $LN111@LoadString@2
$LN91@LoadString@2:
  0029d	88 4d e1	 mov	 BYTE PTR __k$[ebp+5], cl
  002a0	eb 1c		 jmp	 SHORT $LN111@LoadString@2
$LN92@LoadString@2:
  002a2	c6 45 e0 ed	 mov	 BYTE PTR __k$[ebp+4], -19 ; ffffffedH
  002a6	eb 16		 jmp	 SHORT $LN111@LoadString@2
$LN93@LoadString@2:
  002a8	c6 45 df ea	 mov	 BYTE PTR __k$[ebp+3], -22 ; ffffffeaH
  002ac	eb 10		 jmp	 SHORT $LN111@LoadString@2
$LN94@LoadString@2:
  002ae	c6 45 de eb	 mov	 BYTE PTR __k$[ebp+2], -21 ; ffffffebH
  002b2	eb 0a		 jmp	 SHORT $LN111@LoadString@2
$LN95@LoadString@2:
  002b4	c6 45 dd ec	 mov	 BYTE PTR __k$[ebp+1], -20 ; ffffffecH
  002b8	eb 04		 jmp	 SHORT $LN111@LoadString@2
$LN96@LoadString@2:
  002ba	c6 45 dc ed	 mov	 BYTE PTR __k$[ebp], -19	; ffffffedH
$LN111@LoadString@2:
  002be	6a 06		 push	 6
  002c0	8d 45 dc	 lea	 eax, DWORD PTR __k$[ebp]
  002c3	c6 45 f6 00	 mov	 BYTE PTR __k$[ebp+26], 0
  002c7	5a		 pop	 edx
$LL104@LoadString@2:
  002c8	81 30 ed ec eb
	ea		 xor	 DWORD PTR [eax], -353637139 ; eaebecedH
  002ce	83 c0 04	 add	 eax, 4
  002d1	4a		 dec	 edx
  002d2	75 f4		 jne	 SHORT $LL104@LoadString@2
  002d4	6a 18		 push	 24			; 00000018H
  002d6	58		 pop	 eax
$LL101@LoadString@2:
  002d7	8b c8		 mov	 ecx, eax
  002d9	81 e1 03 00 00
	80		 and	 ecx, -2147483645	; 80000003H
  002df	79 05		 jns	 SHORT $LN112@LoadString@2
  002e1	49		 dec	 ecx
  002e2	83 c9 fc	 or	 ecx, -4			; fffffffcH
  002e5	41		 inc	 ecx
$LN112@LoadString@2:
  002e6	b2 ed		 mov	 dl, -19			; ffffffedH
  002e8	2a d1		 sub	 dl, cl
  002ea	30 54 05 dc	 xor	 BYTE PTR __k$[ebp+eax], dl
  002ee	40		 inc	 eax
  002ef	83 f8 1a	 cmp	 eax, 26			; 0000001aH
  002f2	7c e3		 jl	 SHORT $LL101@LoadString@2

; 163  : 		LoadString(_k, d, b, i);

  002f4	ff 75 14	 push	 DWORD PTR _i$[ebp]
  002f7	8b 4d d8	 mov	 ecx, DWORD PTR _this$GSCopy$[ebp]
  002fa	57		 push	 edi
  002fb	56		 push	 esi
  002fc	8d 45 dc	 lea	 eax, DWORD PTR __k$[ebp]
  002ff	50		 push	 eax
  00300	ff 15 00 00 00
	00		 call	 DWORD PTR __imp_?LoadStringA@ioINILoader@@QAEXPBD0PADH@Z

; 164  : 	}

  00306	8b 4d fc	 mov	 ecx, DWORD PTR __$ArrayPad$[ebp]
  00309	5f		 pop	 edi
  0030a	5e		 pop	 esi
  0030b	33 cd		 xor	 ecx, ebp
  0030d	5b		 pop	 ebx
  0030e	e8 00 00 00 00	 call	 @__security_check_cookie@4
  00313	c9		 leave
  00314	c2 10 00	 ret	 16			; 00000010H
??$LoadString_e@$0BL@@ioINILoader@@QAEXAAY0BL@$$CBDAAY00$$CBDPADH@Z ENDP ; ioINILoader::LoadString_e<27>
_TEXT	ENDS
PUBLIC	__$ArrayPad$
PUBLIC	??$LoadFloat_e@$0BK@@ioINILoader@@QAEMAAY0BK@$$CBDM@Z ; ioINILoader::LoadFloat_e<26>
EXTRN	__imp_?LoadFloat@ioINILoader@@QAEMPBDM@Z:PROC
; Function compile flags: /Ogsp
;	COMDAT ??$LoadFloat_e@$0BK@@ioINILoader@@QAEMAAY0BK@$$CBDM@Z
_TEXT	SEGMENT
__k$ = -36						; size = 26
__$ArrayPad$ = -4					; size = 4
_k$ = 8							; size = 4
_f$ = 12						; size = 4
??$LoadFloat_e@$0BK@@ioINILoader@@QAEMAAY0BK@$$CBDM@Z PROC ; ioINILoader::LoadFloat_e<26>, COMDAT
; _this$ = ecx

; 135  : 	{

  00000	55		 push	 ebp
  00001	8b ec		 mov	 ebp, esp
  00003	83 ec 24	 sub	 esp, 36			; 00000024H
  00006	a1 00 00 00 00	 mov	 eax, DWORD PTR ___security_cookie
  0000b	33 c5		 xor	 eax, ebp
  0000d	89 45 fc	 mov	 DWORD PTR __$ArrayPad$[ebp], eax
  00010	8b 45 08	 mov	 eax, DWORD PTR _k$[ebp]

; 136  : 		_ENCSTR(k, _k);

  00013	8a 10		 mov	 dl, BYTE PTR [eax]
  00015	53		 push	 ebx
  00016	56		 push	 esi
  00017	8b f1		 mov	 esi, ecx
  00019	84 d2		 test	 dl, dl
  0001b	0f 84 79 02 00
	00		 je	 $LN96@LoadFloat_
  00021	80 f2 ed	 xor	 dl, -19			; ffffffedH
  00024	88 55 dc	 mov	 BYTE PTR __k$[ebp], dl
  00027	8a 50 01	 mov	 dl, BYTE PTR [eax+1]
  0002a	84 d2		 test	 dl, dl
  0002c	0f 84 62 02 00
	00		 je	 $LN95@LoadFloat_
  00032	80 f2 ec	 xor	 dl, -20			; ffffffecH
  00035	88 55 dd	 mov	 BYTE PTR __k$[ebp+1], dl
  00038	8a 50 02	 mov	 dl, BYTE PTR [eax+2]
  0003b	84 d2		 test	 dl, dl
  0003d	0f 84 4b 02 00
	00		 je	 $LN94@LoadFloat_
  00043	b1 eb		 mov	 cl, -21			; ffffffebH
  00045	32 d1		 xor	 dl, cl
  00047	88 55 de	 mov	 BYTE PTR __k$[ebp+2], dl
  0004a	8a 50 03	 mov	 dl, BYTE PTR [eax+3]
  0004d	84 d2		 test	 dl, dl
  0004f	0f 84 33 02 00
	00		 je	 $LN93@LoadFloat_
  00055	b3 ea		 mov	 bl, -22			; ffffffeaH
  00057	32 d3		 xor	 dl, bl
  00059	88 55 df	 mov	 BYTE PTR __k$[ebp+3], dl
  0005c	8a 50 04	 mov	 dl, BYTE PTR [eax+4]
  0005f	84 d2		 test	 dl, dl
  00061	0f 84 1b 02 00
	00		 je	 $LN92@LoadFloat_
  00067	80 f2 ed	 xor	 dl, -19			; ffffffedH
  0006a	88 55 e0	 mov	 BYTE PTR __k$[ebp+4], dl
  0006d	8a 50 05	 mov	 dl, BYTE PTR [eax+5]
  00070	84 d2		 test	 dl, dl
  00072	0f 84 04 02 00
	00		 je	 $LN91@LoadFloat_
  00078	80 f2 ec	 xor	 dl, -20			; ffffffecH
  0007b	88 55 e1	 mov	 BYTE PTR __k$[ebp+5], dl
  0007e	8a 50 06	 mov	 dl, BYTE PTR [eax+6]
  00081	84 d2		 test	 dl, dl
  00083	0f 84 ee 01 00
	00		 je	 $LN90@LoadFloat_
  00089	32 d1		 xor	 dl, cl
  0008b	88 55 e2	 mov	 BYTE PTR __k$[ebp+6], dl
  0008e	8a 50 07	 mov	 dl, BYTE PTR [eax+7]
  00091	84 d2		 test	 dl, dl
  00093	0f 84 d9 01 00
	00		 je	 $LN89@LoadFloat_
  00099	32 d3		 xor	 dl, bl
  0009b	88 55 e3	 mov	 BYTE PTR __k$[ebp+7], dl
  0009e	8a 50 08	 mov	 dl, BYTE PTR [eax+8]
  000a1	84 d2		 test	 dl, dl
  000a3	0f 84 c3 01 00
	00		 je	 $LN88@LoadFloat_
  000a9	80 f2 ed	 xor	 dl, -19			; ffffffedH
  000ac	88 55 e4	 mov	 BYTE PTR __k$[ebp+8], dl
  000af	8a 50 09	 mov	 dl, BYTE PTR [eax+9]
  000b2	84 d2		 test	 dl, dl
  000b4	0f 84 ac 01 00
	00		 je	 $LN87@LoadFloat_
  000ba	80 f2 ec	 xor	 dl, -20			; ffffffecH
  000bd	88 55 e5	 mov	 BYTE PTR __k$[ebp+9], dl
  000c0	8a 50 0a	 mov	 dl, BYTE PTR [eax+10]
  000c3	84 d2		 test	 dl, dl
  000c5	0f 84 96 01 00
	00		 je	 $LN86@LoadFloat_
  000cb	32 d1		 xor	 dl, cl
  000cd	88 55 e6	 mov	 BYTE PTR __k$[ebp+10], dl
  000d0	8a 50 0b	 mov	 dl, BYTE PTR [eax+11]
  000d3	84 d2		 test	 dl, dl
  000d5	0f 84 81 01 00
	00		 je	 $LN85@LoadFloat_
  000db	32 d3		 xor	 dl, bl
  000dd	88 55 e7	 mov	 BYTE PTR __k$[ebp+11], dl
  000e0	8a 50 0c	 mov	 dl, BYTE PTR [eax+12]
  000e3	84 d2		 test	 dl, dl
  000e5	0f 84 6b 01 00
	00		 je	 $LN84@LoadFloat_
  000eb	80 f2 ed	 xor	 dl, -19			; ffffffedH
  000ee	88 55 e8	 mov	 BYTE PTR __k$[ebp+12], dl
  000f1	8a 50 0d	 mov	 dl, BYTE PTR [eax+13]
  000f4	84 d2		 test	 dl, dl
  000f6	0f 84 54 01 00
	00		 je	 $LN83@LoadFloat_
  000fc	80 f2 ec	 xor	 dl, -20			; ffffffecH
  000ff	88 55 e9	 mov	 BYTE PTR __k$[ebp+13], dl
  00102	8a 50 0e	 mov	 dl, BYTE PTR [eax+14]
  00105	84 d2		 test	 dl, dl
  00107	0f 84 3e 01 00
	00		 je	 $LN82@LoadFloat_
  0010d	32 d1		 xor	 dl, cl
  0010f	88 55 ea	 mov	 BYTE PTR __k$[ebp+14], dl
  00112	8a 50 0f	 mov	 dl, BYTE PTR [eax+15]
  00115	84 d2		 test	 dl, dl
  00117	0f 84 29 01 00
	00		 je	 $LN81@LoadFloat_
  0011d	32 d3		 xor	 dl, bl
  0011f	88 55 eb	 mov	 BYTE PTR __k$[ebp+15], dl
  00122	8a 50 10	 mov	 dl, BYTE PTR [eax+16]
  00125	84 d2		 test	 dl, dl
  00127	0f 84 13 01 00
	00		 je	 $LN80@LoadFloat_
  0012d	80 f2 ed	 xor	 dl, -19			; ffffffedH
  00130	88 55 ec	 mov	 BYTE PTR __k$[ebp+16], dl
  00133	8a 50 11	 mov	 dl, BYTE PTR [eax+17]
  00136	84 d2		 test	 dl, dl
  00138	0f 84 fc 00 00
	00		 je	 $LN79@LoadFloat_
  0013e	80 f2 ec	 xor	 dl, -20			; ffffffecH
  00141	88 55 ed	 mov	 BYTE PTR __k$[ebp+17], dl
  00144	8a 50 12	 mov	 dl, BYTE PTR [eax+18]
  00147	84 d2		 test	 dl, dl
  00149	0f 84 e6 00 00
	00		 je	 $LN78@LoadFloat_
  0014f	32 d1		 xor	 dl, cl
  00151	88 55 ee	 mov	 BYTE PTR __k$[ebp+18], dl
  00154	8a 50 13	 mov	 dl, BYTE PTR [eax+19]
  00157	84 d2		 test	 dl, dl
  00159	0f 84 d1 00 00
	00		 je	 $LN77@LoadFloat_
  0015f	32 d3		 xor	 dl, bl
  00161	88 55 ef	 mov	 BYTE PTR __k$[ebp+19], dl
  00164	8a 50 14	 mov	 dl, BYTE PTR [eax+20]
  00167	84 d2		 test	 dl, dl
  00169	0f 84 bb 00 00
	00		 je	 $LN76@LoadFloat_
  0016f	80 f2 ed	 xor	 dl, -19			; ffffffedH
  00172	88 55 f0	 mov	 BYTE PTR __k$[ebp+20], dl
  00175	8a 50 15	 mov	 dl, BYTE PTR [eax+21]
  00178	84 d2		 test	 dl, dl
  0017a	0f 84 a4 00 00
	00		 je	 $LN75@LoadFloat_
  00180	80 f2 ec	 xor	 dl, -20			; ffffffecH
  00183	88 55 f1	 mov	 BYTE PTR __k$[ebp+21], dl
  00186	8a 50 16	 mov	 dl, BYTE PTR [eax+22]
  00189	84 d2		 test	 dl, dl
  0018b	0f 84 8e 00 00
	00		 je	 $LN74@LoadFloat_
  00191	32 d1		 xor	 dl, cl
  00193	88 55 f2	 mov	 BYTE PTR __k$[ebp+22], dl
  00196	8a 50 17	 mov	 dl, BYTE PTR [eax+23]
  00199	84 d2		 test	 dl, dl
  0019b	74 7d		 je	 SHORT $LN73@LoadFloat_
  0019d	32 d3		 xor	 dl, bl
  0019f	88 55 f3	 mov	 BYTE PTR __k$[ebp+23], dl
  001a2	8a 50 18	 mov	 dl, BYTE PTR [eax+24]
  001a5	84 d2		 test	 dl, dl
  001a7	74 68		 je	 SHORT $LN72@LoadFloat_
  001a9	80 f2 ed	 xor	 dl, -19			; ffffffedH
  001ac	80 78 19 00	 cmp	 BYTE PTR [eax+25], 0
  001b0	88 55 f4	 mov	 BYTE PTR __k$[ebp+24], dl
  001b3	0f 84 e5 00 00
	00		 je	 $LN1@LoadFloat_
  001b9	8a 50 1a	 mov	 dl, BYTE PTR [eax+26]
  001bc	84 d2		 test	 dl, dl
  001be	74 49		 je	 SHORT $LN70@LoadFloat_
  001c0	32 d1		 xor	 dl, cl
  001c2	88 55 f6	 mov	 BYTE PTR __k$[ebp+26], dl
  001c5	8a 50 1b	 mov	 dl, BYTE PTR [eax+27]
  001c8	84 d2		 test	 dl, dl
  001ca	74 35		 je	 SHORT $LN69@LoadFloat_
  001cc	32 d3		 xor	 dl, bl
  001ce	88 55 f7	 mov	 BYTE PTR __k$[ebp+27], dl
  001d1	8a 50 1c	 mov	 dl, BYTE PTR [eax+28]
  001d4	84 d2		 test	 dl, dl
  001d6	74 20		 je	 SHORT $LN68@LoadFloat_
  001d8	8a 40 1d	 mov	 al, BYTE PTR [eax+29]
  001db	80 f2 ed	 xor	 dl, -19			; ffffffedH
  001de	88 55 f8	 mov	 BYTE PTR __k$[ebp+28], dl
  001e1	84 c0		 test	 al, al
  001e3	74 0a		 je	 SHORT $LN67@LoadFloat_
  001e5	34 ec		 xor	 al, -20			; ffffffecH
  001e7	88 45 f9	 mov	 BYTE PTR __k$[ebp+29], al
  001ea	e9 af 00 00 00	 jmp	 $LN1@LoadFloat_
$LN67@LoadFloat_:
  001ef	c6 45 f9 ec	 mov	 BYTE PTR __k$[ebp+29], -20 ; ffffffecH
  001f3	e9 a6 00 00 00	 jmp	 $LN1@LoadFloat_
$LN68@LoadFloat_:
  001f8	c6 45 f8 ed	 mov	 BYTE PTR __k$[ebp+28], -19 ; ffffffedH
  001fc	e9 9d 00 00 00	 jmp	 $LN1@LoadFloat_
$LN69@LoadFloat_:
  00201	88 5d f7	 mov	 BYTE PTR __k$[ebp+27], bl
  00204	e9 95 00 00 00	 jmp	 $LN1@LoadFloat_
$LN70@LoadFloat_:
  00209	88 4d f6	 mov	 BYTE PTR __k$[ebp+26], cl
  0020c	e9 8d 00 00 00	 jmp	 $LN1@LoadFloat_
$LN72@LoadFloat_:
  00211	c6 45 f4 ed	 mov	 BYTE PTR __k$[ebp+24], -19 ; ffffffedH
  00215	e9 84 00 00 00	 jmp	 $LN1@LoadFloat_
$LN73@LoadFloat_:
  0021a	88 5d f3	 mov	 BYTE PTR __k$[ebp+23], bl
  0021d	eb 7f		 jmp	 SHORT $LN1@LoadFloat_
$LN74@LoadFloat_:
  0021f	88 4d f2	 mov	 BYTE PTR __k$[ebp+22], cl
  00222	eb 7a		 jmp	 SHORT $LN1@LoadFloat_
$LN75@LoadFloat_:
  00224	c6 45 f1 ec	 mov	 BYTE PTR __k$[ebp+21], -20 ; ffffffecH
  00228	eb 74		 jmp	 SHORT $LN1@LoadFloat_
$LN76@LoadFloat_:
  0022a	c6 45 f0 ed	 mov	 BYTE PTR __k$[ebp+20], -19 ; ffffffedH
  0022e	eb 6e		 jmp	 SHORT $LN1@LoadFloat_
$LN77@LoadFloat_:
  00230	88 5d ef	 mov	 BYTE PTR __k$[ebp+19], bl
  00233	eb 69		 jmp	 SHORT $LN1@LoadFloat_
$LN78@LoadFloat_:
  00235	88 4d ee	 mov	 BYTE PTR __k$[ebp+18], cl
  00238	eb 64		 jmp	 SHORT $LN1@LoadFloat_
$LN79@LoadFloat_:
  0023a	c6 45 ed ec	 mov	 BYTE PTR __k$[ebp+17], -20 ; ffffffecH
  0023e	eb 5e		 jmp	 SHORT $LN1@LoadFloat_
$LN80@LoadFloat_:
  00240	c6 45 ec ed	 mov	 BYTE PTR __k$[ebp+16], -19 ; ffffffedH
  00244	eb 58		 jmp	 SHORT $LN1@LoadFloat_
$LN81@LoadFloat_:
  00246	88 5d eb	 mov	 BYTE PTR __k$[ebp+15], bl
  00249	eb 53		 jmp	 SHORT $LN1@LoadFloat_
$LN82@LoadFloat_:
  0024b	88 4d ea	 mov	 BYTE PTR __k$[ebp+14], cl
  0024e	eb 4e		 jmp	 SHORT $LN1@LoadFloat_
$LN83@LoadFloat_:
  00250	c6 45 e9 ec	 mov	 BYTE PTR __k$[ebp+13], -20 ; ffffffecH
  00254	eb 48		 jmp	 SHORT $LN1@LoadFloat_
$LN84@LoadFloat_:
  00256	c6 45 e8 ed	 mov	 BYTE PTR __k$[ebp+12], -19 ; ffffffedH
  0025a	eb 42		 jmp	 SHORT $LN1@LoadFloat_
$LN85@LoadFloat_:
  0025c	88 5d e7	 mov	 BYTE PTR __k$[ebp+11], bl
  0025f	eb 3d		 jmp	 SHORT $LN1@LoadFloat_
$LN86@LoadFloat_:
  00261	88 4d e6	 mov	 BYTE PTR __k$[ebp+10], cl
  00264	eb 38		 jmp	 SHORT $LN1@LoadFloat_
$LN87@LoadFloat_:
  00266	c6 45 e5 ec	 mov	 BYTE PTR __k$[ebp+9], -20 ; ffffffecH
  0026a	eb 32		 jmp	 SHORT $LN1@LoadFloat_
$LN88@LoadFloat_:
  0026c	c6 45 e4 ed	 mov	 BYTE PTR __k$[ebp+8], -19 ; ffffffedH
  00270	eb 2c		 jmp	 SHORT $LN1@LoadFloat_
$LN89@LoadFloat_:
  00272	88 5d e3	 mov	 BYTE PTR __k$[ebp+7], bl
  00275	eb 27		 jmp	 SHORT $LN1@LoadFloat_
$LN90@LoadFloat_:
  00277	88 4d e2	 mov	 BYTE PTR __k$[ebp+6], cl
  0027a	eb 22		 jmp	 SHORT $LN1@LoadFloat_
$LN91@LoadFloat_:
  0027c	c6 45 e1 ec	 mov	 BYTE PTR __k$[ebp+5], -20 ; ffffffecH
  00280	eb 1c		 jmp	 SHORT $LN1@LoadFloat_
$LN92@LoadFloat_:
  00282	c6 45 e0 ed	 mov	 BYTE PTR __k$[ebp+4], -19 ; ffffffedH
  00286	eb 16		 jmp	 SHORT $LN1@LoadFloat_
$LN93@LoadFloat_:
  00288	c6 45 df ea	 mov	 BYTE PTR __k$[ebp+3], -22 ; ffffffeaH
  0028c	eb 10		 jmp	 SHORT $LN1@LoadFloat_
$LN94@LoadFloat_:
  0028e	c6 45 de eb	 mov	 BYTE PTR __k$[ebp+2], -21 ; ffffffebH
  00292	eb 0a		 jmp	 SHORT $LN1@LoadFloat_
$LN95@LoadFloat_:
  00294	c6 45 dd ec	 mov	 BYTE PTR __k$[ebp+1], -20 ; ffffffecH
  00298	eb 04		 jmp	 SHORT $LN1@LoadFloat_
$LN96@LoadFloat_:
  0029a	c6 45 dc ed	 mov	 BYTE PTR __k$[ebp], -19	; ffffffedH
$LN1@LoadFloat_:
  0029e	6a 06		 push	 6
  002a0	8d 45 dc	 lea	 eax, DWORD PTR __k$[ebp]
  002a3	c6 45 f5 00	 mov	 BYTE PTR __k$[ebp+25], 0
  002a7	5a		 pop	 edx
$LL104@LoadFloat_:
  002a8	81 30 ed ec eb
	ea		 xor	 DWORD PTR [eax], -353637139 ; eaebecedH
  002ae	83 c0 04	 add	 eax, 4
  002b1	4a		 dec	 edx
  002b2	75 f4		 jne	 SHORT $LL104@LoadFloat_

; 137  : 		return LoadFloat(_k, f);

  002b4	f3 0f 10 45 0c	 movss	 xmm0, DWORD PTR _f$[ebp]
  002b9	80 75 f4 ed	 xor	 BYTE PTR __k$[ebp+24], -19 ; ffffffedH
  002bd	51		 push	 ecx
  002be	8d 45 dc	 lea	 eax, DWORD PTR __k$[ebp]
  002c1	f3 0f 11 04 24	 movss	 DWORD PTR [esp], xmm0
  002c6	50		 push	 eax
  002c7	8b ce		 mov	 ecx, esi
  002c9	ff 15 00 00 00
	00		 call	 DWORD PTR __imp_?LoadFloat@ioINILoader@@QAEMPBDM@Z

; 138  : 	}

  002cf	8b 4d fc	 mov	 ecx, DWORD PTR __$ArrayPad$[ebp]
  002d2	5e		 pop	 esi
  002d3	33 cd		 xor	 ecx, ebp
  002d5	5b		 pop	 ebx
  002d6	e8 00 00 00 00	 call	 @__security_check_cookie@4
  002db	c9		 leave
  002dc	c2 08 00	 ret	 8
??$LoadFloat_e@$0BK@@ioINILoader@@QAEMAAY0BK@$$CBDM@Z ENDP ; ioINILoader::LoadFloat_e<26>
_TEXT	ENDS
PUBLIC	__$ArrayPad$
PUBLIC	??$LoadFloat_e@$0BB@@ioINILoader@@QAEMAAY0BB@$$CBDM@Z ; ioINILoader::LoadFloat_e<17>
; Function compile flags: /Ogsp
;	COMDAT ??$LoadFloat_e@$0BB@@ioINILoader@@QAEMAAY0BB@$$CBDM@Z
_TEXT	SEGMENT
__k$ = -28						; size = 17
__$ArrayPad$ = -4					; size = 4
_k$ = 8							; size = 4
_f$ = 12						; size = 4
??$LoadFloat_e@$0BB@@ioINILoader@@QAEMAAY0BB@$$CBDM@Z PROC ; ioINILoader::LoadFloat_e<17>, COMDAT
; _this$ = ecx

; 135  : 	{

  00000	55		 push	 ebp
  00001	8b ec		 mov	 ebp, esp
  00003	83 ec 1c	 sub	 esp, 28			; 0000001cH
  00006	a1 00 00 00 00	 mov	 eax, DWORD PTR ___security_cookie
  0000b	33 c5		 xor	 eax, ebp
  0000d	89 45 fc	 mov	 DWORD PTR __$ArrayPad$[ebp], eax
  00010	8b 45 08	 mov	 eax, DWORD PTR _k$[ebp]

; 136  : 		_ENCSTR(k, _k);

  00013	8a 10		 mov	 dl, BYTE PTR [eax]
  00015	56		 push	 esi
  00016	8b f1		 mov	 esi, ecx
  00018	84 d2		 test	 dl, dl
  0001a	0f 84 a7 01 00
	00		 je	 $LN96@LoadFloat_@2
  00020	80 f2 ed	 xor	 dl, -19			; ffffffedH
  00023	88 55 e4	 mov	 BYTE PTR __k$[ebp], dl
  00026	8a 50 01	 mov	 dl, BYTE PTR [eax+1]
  00029	84 d2		 test	 dl, dl
  0002b	0f 84 90 01 00
	00		 je	 $LN95@LoadFloat_@2
  00031	b1 ec		 mov	 cl, -20			; ffffffecH
  00033	32 d1		 xor	 dl, cl
  00035	88 55 e5	 mov	 BYTE PTR __k$[ebp+1], dl
  00038	8a 50 02	 mov	 dl, BYTE PTR [eax+2]
  0003b	84 d2		 test	 dl, dl
  0003d	0f 84 78 01 00
	00		 je	 $LN94@LoadFloat_@2
  00043	80 f2 eb	 xor	 dl, -21			; ffffffebH
  00046	88 55 e6	 mov	 BYTE PTR __k$[ebp+2], dl
  00049	8a 50 03	 mov	 dl, BYTE PTR [eax+3]
  0004c	84 d2		 test	 dl, dl
  0004e	0f 84 61 01 00
	00		 je	 $LN93@LoadFloat_@2
  00054	80 f2 ea	 xor	 dl, -22			; ffffffeaH
  00057	88 55 e7	 mov	 BYTE PTR __k$[ebp+3], dl
  0005a	8a 50 04	 mov	 dl, BYTE PTR [eax+4]
  0005d	84 d2		 test	 dl, dl
  0005f	0f 84 4a 01 00
	00		 je	 $LN92@LoadFloat_@2
  00065	80 f2 ed	 xor	 dl, -19			; ffffffedH
  00068	88 55 e8	 mov	 BYTE PTR __k$[ebp+4], dl
  0006b	8a 50 05	 mov	 dl, BYTE PTR [eax+5]
  0006e	84 d2		 test	 dl, dl
  00070	0f 84 34 01 00
	00		 je	 $LN91@LoadFloat_@2
  00076	32 d1		 xor	 dl, cl
  00078	88 55 e9	 mov	 BYTE PTR __k$[ebp+5], dl
  0007b	8a 50 06	 mov	 dl, BYTE PTR [eax+6]
  0007e	84 d2		 test	 dl, dl
  00080	0f 84 1e 01 00
	00		 je	 $LN90@LoadFloat_@2
  00086	80 f2 eb	 xor	 dl, -21			; ffffffebH
  00089	88 55 ea	 mov	 BYTE PTR __k$[ebp+6], dl
  0008c	8a 50 07	 mov	 dl, BYTE PTR [eax+7]
  0008f	84 d2		 test	 dl, dl
  00091	0f 84 07 01 00
	00		 je	 $LN89@LoadFloat_@2
  00097	80 f2 ea	 xor	 dl, -22			; ffffffeaH
  0009a	88 55 eb	 mov	 BYTE PTR __k$[ebp+7], dl
  0009d	8a 50 08	 mov	 dl, BYTE PTR [eax+8]
  000a0	84 d2		 test	 dl, dl
  000a2	0f 84 f0 00 00
	00		 je	 $LN88@LoadFloat_@2
  000a8	80 f2 ed	 xor	 dl, -19			; ffffffedH
  000ab	88 55 ec	 mov	 BYTE PTR __k$[ebp+8], dl
  000ae	8a 50 09	 mov	 dl, BYTE PTR [eax+9]
  000b1	84 d2		 test	 dl, dl
  000b3	0f 84 da 00 00
	00		 je	 $LN87@LoadFloat_@2
  000b9	32 d1		 xor	 dl, cl
  000bb	88 55 ed	 mov	 BYTE PTR __k$[ebp+9], dl
  000be	8a 50 0a	 mov	 dl, BYTE PTR [eax+10]
  000c1	84 d2		 test	 dl, dl
  000c3	0f 84 c4 00 00
	00		 je	 $LN86@LoadFloat_@2
  000c9	80 f2 eb	 xor	 dl, -21			; ffffffebH
  000cc	88 55 ee	 mov	 BYTE PTR __k$[ebp+10], dl
  000cf	8a 50 0b	 mov	 dl, BYTE PTR [eax+11]
  000d2	84 d2		 test	 dl, dl
  000d4	0f 84 ad 00 00
	00		 je	 $LN85@LoadFloat_@2
  000da	80 f2 ea	 xor	 dl, -22			; ffffffeaH
  000dd	88 55 ef	 mov	 BYTE PTR __k$[ebp+11], dl
  000e0	8a 50 0c	 mov	 dl, BYTE PTR [eax+12]
  000e3	84 d2		 test	 dl, dl
  000e5	0f 84 96 00 00
	00		 je	 $LN84@LoadFloat_@2
  000eb	80 f2 ed	 xor	 dl, -19			; ffffffedH
  000ee	88 55 f0	 mov	 BYTE PTR __k$[ebp+12], dl
  000f1	8a 50 0d	 mov	 dl, BYTE PTR [eax+13]
  000f4	84 d2		 test	 dl, dl
  000f6	0f 84 80 00 00
	00		 je	 $LN83@LoadFloat_@2
  000fc	32 d1		 xor	 dl, cl
  000fe	88 55 f1	 mov	 BYTE PTR __k$[ebp+13], dl
  00101	8a 50 0e	 mov	 dl, BYTE PTR [eax+14]
  00104	84 d2		 test	 dl, dl
  00106	74 6e		 je	 SHORT $LN82@LoadFloat_@2
  00108	80 f2 eb	 xor	 dl, -21			; ffffffebH
  0010b	88 55 f2	 mov	 BYTE PTR __k$[ebp+14], dl
  0010e	8a 50 0f	 mov	 dl, BYTE PTR [eax+15]
  00111	84 d2		 test	 dl, dl
  00113	74 5b		 je	 SHORT $LN81@LoadFloat_@2
  00115	80 f2 ea	 xor	 dl, -22			; ffffffeaH
  00118	80 78 10 00	 cmp	 BYTE PTR [eax+16], 0
  0011c	88 55 f3	 mov	 BYTE PTR __k$[ebp+15], dl
  0011f	0f 84 a6 00 00
	00		 je	 $LN1@LoadFloat_@2
  00125	8a 50 11	 mov	 dl, BYTE PTR [eax+17]
  00128	84 d2		 test	 dl, dl
  0012a	74 3f		 je	 SHORT $LN79@LoadFloat_@2
  0012c	32 d1		 xor	 dl, cl
  0012e	88 55 f5	 mov	 BYTE PTR __k$[ebp+17], dl
  00131	8a 50 12	 mov	 dl, BYTE PTR [eax+18]
  00134	84 d2		 test	 dl, dl
  00136	74 2d		 je	 SHORT $LN78@LoadFloat_@2
  00138	80 f2 eb	 xor	 dl, -21			; ffffffebH
  0013b	88 55 f6	 mov	 BYTE PTR __k$[ebp+18], dl
  0013e	8a 50 13	 mov	 dl, BYTE PTR [eax+19]
  00141	84 d2		 test	 dl, dl
  00143	74 1a		 je	 SHORT $LN77@LoadFloat_@2
  00145	8a 40 14	 mov	 al, BYTE PTR [eax+20]
  00148	80 f2 ea	 xor	 dl, -22			; ffffffeaH
  0014b	88 55 f7	 mov	 BYTE PTR __k$[ebp+19], dl
  0014e	84 c0		 test	 al, al
  00150	74 07		 je	 SHORT $LN76@LoadFloat_@2
  00152	34 ed		 xor	 al, -19			; ffffffedH
  00154	88 45 f8	 mov	 BYTE PTR __k$[ebp+20], al
  00157	eb 72		 jmp	 SHORT $LN1@LoadFloat_@2
$LN76@LoadFloat_@2:
  00159	c6 45 f8 ed	 mov	 BYTE PTR __k$[ebp+20], -19 ; ffffffedH
  0015d	eb 6c		 jmp	 SHORT $LN1@LoadFloat_@2
$LN77@LoadFloat_@2:
  0015f	c6 45 f7 ea	 mov	 BYTE PTR __k$[ebp+19], -22 ; ffffffeaH
  00163	eb 66		 jmp	 SHORT $LN1@LoadFloat_@2
$LN78@LoadFloat_@2:
  00165	c6 45 f6 eb	 mov	 BYTE PTR __k$[ebp+18], -21 ; ffffffebH
  00169	eb 60		 jmp	 SHORT $LN1@LoadFloat_@2
$LN79@LoadFloat_@2:
  0016b	88 4d f5	 mov	 BYTE PTR __k$[ebp+17], cl
  0016e	eb 5b		 jmp	 SHORT $LN1@LoadFloat_@2
$LN81@LoadFloat_@2:
  00170	c6 45 f3 ea	 mov	 BYTE PTR __k$[ebp+15], -22 ; ffffffeaH
  00174	eb 55		 jmp	 SHORT $LN1@LoadFloat_@2
$LN82@LoadFloat_@2:
  00176	c6 45 f2 eb	 mov	 BYTE PTR __k$[ebp+14], -21 ; ffffffebH
  0017a	eb 4f		 jmp	 SHORT $LN1@LoadFloat_@2
$LN83@LoadFloat_@2:
  0017c	88 4d f1	 mov	 BYTE PTR __k$[ebp+13], cl
  0017f	eb 4a		 jmp	 SHORT $LN1@LoadFloat_@2
$LN84@LoadFloat_@2:
  00181	c6 45 f0 ed	 mov	 BYTE PTR __k$[ebp+12], -19 ; ffffffedH
  00185	eb 44		 jmp	 SHORT $LN1@LoadFloat_@2
$LN85@LoadFloat_@2:
  00187	c6 45 ef ea	 mov	 BYTE PTR __k$[ebp+11], -22 ; ffffffeaH
  0018b	eb 3e		 jmp	 SHORT $LN1@LoadFloat_@2
$LN86@LoadFloat_@2:
  0018d	c6 45 ee eb	 mov	 BYTE PTR __k$[ebp+10], -21 ; ffffffebH
  00191	eb 38		 jmp	 SHORT $LN1@LoadFloat_@2
$LN87@LoadFloat_@2:
  00193	88 4d ed	 mov	 BYTE PTR __k$[ebp+9], cl
  00196	eb 33		 jmp	 SHORT $LN1@LoadFloat_@2
$LN88@LoadFloat_@2:
  00198	c6 45 ec ed	 mov	 BYTE PTR __k$[ebp+8], -19 ; ffffffedH
  0019c	eb 2d		 jmp	 SHORT $LN1@LoadFloat_@2
$LN89@LoadFloat_@2:
  0019e	c6 45 eb ea	 mov	 BYTE PTR __k$[ebp+7], -22 ; ffffffeaH
  001a2	eb 27		 jmp	 SHORT $LN1@LoadFloat_@2
$LN90@LoadFloat_@2:
  001a4	c6 45 ea eb	 mov	 BYTE PTR __k$[ebp+6], -21 ; ffffffebH
  001a8	eb 21		 jmp	 SHORT $LN1@LoadFloat_@2
$LN91@LoadFloat_@2:
  001aa	88 4d e9	 mov	 BYTE PTR __k$[ebp+5], cl
  001ad	eb 1c		 jmp	 SHORT $LN1@LoadFloat_@2
$LN92@LoadFloat_@2:
  001af	c6 45 e8 ed	 mov	 BYTE PTR __k$[ebp+4], -19 ; ffffffedH
  001b3	eb 16		 jmp	 SHORT $LN1@LoadFloat_@2
$LN93@LoadFloat_@2:
  001b5	c6 45 e7 ea	 mov	 BYTE PTR __k$[ebp+3], -22 ; ffffffeaH
  001b9	eb 10		 jmp	 SHORT $LN1@LoadFloat_@2
$LN94@LoadFloat_@2:
  001bb	c6 45 e6 eb	 mov	 BYTE PTR __k$[ebp+2], -21 ; ffffffebH
  001bf	eb 0a		 jmp	 SHORT $LN1@LoadFloat_@2
$LN95@LoadFloat_@2:
  001c1	c6 45 e5 ec	 mov	 BYTE PTR __k$[ebp+1], -20 ; ffffffecH
  001c5	eb 04		 jmp	 SHORT $LN1@LoadFloat_@2
$LN96@LoadFloat_@2:
  001c7	c6 45 e4 ed	 mov	 BYTE PTR __k$[ebp], -19	; ffffffedH
$LN1@LoadFloat_@2:
  001cb	6a 04		 push	 4
  001cd	8d 45 e4	 lea	 eax, DWORD PTR __k$[ebp]
  001d0	c6 45 f4 00	 mov	 BYTE PTR __k$[ebp+16], 0
  001d4	5a		 pop	 edx
$LL104@LoadFloat_@2:
  001d5	81 30 ed ec eb
	ea		 xor	 DWORD PTR [eax], -353637139 ; eaebecedH
  001db	83 c0 04	 add	 eax, 4
  001de	4a		 dec	 edx
  001df	75 f4		 jne	 SHORT $LL104@LoadFloat_@2

; 137  : 		return LoadFloat(_k, f);

  001e1	f3 0f 10 45 0c	 movss	 xmm0, DWORD PTR _f$[ebp]
  001e6	51		 push	 ecx
  001e7	8d 45 e4	 lea	 eax, DWORD PTR __k$[ebp]
  001ea	f3 0f 11 04 24	 movss	 DWORD PTR [esp], xmm0
  001ef	50		 push	 eax
  001f0	8b ce		 mov	 ecx, esi
  001f2	ff 15 00 00 00
	00		 call	 DWORD PTR __imp_?LoadFloat@ioINILoader@@QAEMPBDM@Z

; 138  : 	}

  001f8	8b 4d fc	 mov	 ecx, DWORD PTR __$ArrayPad$[ebp]
  001fb	33 cd		 xor	 ecx, ebp
  001fd	5e		 pop	 esi
  001fe	e8 00 00 00 00	 call	 @__security_check_cookie@4
  00203	c9		 leave
  00204	c2 08 00	 ret	 8
??$LoadFloat_e@$0BB@@ioINILoader@@QAEMAAY0BB@$$CBDM@Z ENDP ; ioINILoader::LoadFloat_e<17>
_TEXT	ENDS
PUBLIC	__$ArrayPad$
PUBLIC	??$LoadFloat_e@$0BH@@ioINILoader@@QAEMAAY0BH@$$CBDM@Z ; ioINILoader::LoadFloat_e<23>
; Function compile flags: /Ogsp
;	COMDAT ??$LoadFloat_e@$0BH@@ioINILoader@@QAEMAAY0BH@$$CBDM@Z
_TEXT	SEGMENT
__k$ = -32						; size = 23
__$ArrayPad$ = -4					; size = 4
_k$ = 8							; size = 4
_f$ = 12						; size = 4
??$LoadFloat_e@$0BH@@ioINILoader@@QAEMAAY0BH@$$CBDM@Z PROC ; ioINILoader::LoadFloat_e<23>, COMDAT
; _this$ = ecx

; 135  : 	{

  00000	55		 push	 ebp
  00001	8b ec		 mov	 ebp, esp
  00003	83 ec 20	 sub	 esp, 32			; 00000020H
  00006	a1 00 00 00 00	 mov	 eax, DWORD PTR ___security_cookie
  0000b	33 c5		 xor	 eax, ebp
  0000d	89 45 fc	 mov	 DWORD PTR __$ArrayPad$[ebp], eax
  00010	8b 45 08	 mov	 eax, DWORD PTR _k$[ebp]

; 136  : 		_ENCSTR(k, _k);

  00013	8a 10		 mov	 dl, BYTE PTR [eax]
  00015	53		 push	 ebx
  00016	56		 push	 esi
  00017	8b f1		 mov	 esi, ecx
  00019	84 d2		 test	 dl, dl
  0001b	0f 84 2d 02 00
	00		 je	 $LN96@LoadFloat_@3
  00021	80 f2 ed	 xor	 dl, -19			; ffffffedH
  00024	88 55 e0	 mov	 BYTE PTR __k$[ebp], dl
  00027	8a 50 01	 mov	 dl, BYTE PTR [eax+1]
  0002a	84 d2		 test	 dl, dl
  0002c	0f 84 16 02 00
	00		 je	 $LN95@LoadFloat_@3
  00032	b1 ec		 mov	 cl, -20			; ffffffecH
  00034	32 d1		 xor	 dl, cl
  00036	88 55 e1	 mov	 BYTE PTR __k$[ebp+1], dl
  00039	8a 50 02	 mov	 dl, BYTE PTR [eax+2]
  0003c	84 d2		 test	 dl, dl
  0003e	0f 84 fe 01 00
	00		 je	 $LN94@LoadFloat_@3
  00044	80 f2 eb	 xor	 dl, -21			; ffffffebH
  00047	88 55 e2	 mov	 BYTE PTR __k$[ebp+2], dl
  0004a	8a 50 03	 mov	 dl, BYTE PTR [eax+3]
  0004d	84 d2		 test	 dl, dl
  0004f	0f 84 e7 01 00
	00		 je	 $LN93@LoadFloat_@3
  00055	b3 ea		 mov	 bl, -22			; ffffffeaH
  00057	32 d3		 xor	 dl, bl
  00059	88 55 e3	 mov	 BYTE PTR __k$[ebp+3], dl
  0005c	8a 50 04	 mov	 dl, BYTE PTR [eax+4]
  0005f	84 d2		 test	 dl, dl
  00061	0f 84 cf 01 00
	00		 je	 $LN92@LoadFloat_@3
  00067	80 f2 ed	 xor	 dl, -19			; ffffffedH
  0006a	88 55 e4	 mov	 BYTE PTR __k$[ebp+4], dl
  0006d	8a 50 05	 mov	 dl, BYTE PTR [eax+5]
  00070	84 d2		 test	 dl, dl
  00072	0f 84 b9 01 00
	00		 je	 $LN91@LoadFloat_@3
  00078	32 d1		 xor	 dl, cl
  0007a	88 55 e5	 mov	 BYTE PTR __k$[ebp+5], dl
  0007d	8a 50 06	 mov	 dl, BYTE PTR [eax+6]
  00080	84 d2		 test	 dl, dl
  00082	0f 84 a3 01 00
	00		 je	 $LN90@LoadFloat_@3
  00088	80 f2 eb	 xor	 dl, -21			; ffffffebH
  0008b	88 55 e6	 mov	 BYTE PTR __k$[ebp+6], dl
  0008e	8a 50 07	 mov	 dl, BYTE PTR [eax+7]
  00091	84 d2		 test	 dl, dl
  00093	0f 84 8d 01 00
	00		 je	 $LN89@LoadFloat_@3
  00099	32 d3		 xor	 dl, bl
  0009b	88 55 e7	 mov	 BYTE PTR __k$[ebp+7], dl
  0009e	8a 50 08	 mov	 dl, BYTE PTR [eax+8]
  000a1	84 d2		 test	 dl, dl
  000a3	0f 84 77 01 00
	00		 je	 $LN88@LoadFloat_@3
  000a9	80 f2 ed	 xor	 dl, -19			; ffffffedH
  000ac	88 55 e8	 mov	 BYTE PTR __k$[ebp+8], dl
  000af	8a 50 09	 mov	 dl, BYTE PTR [eax+9]
  000b2	84 d2		 test	 dl, dl
  000b4	0f 84 61 01 00
	00		 je	 $LN87@LoadFloat_@3
  000ba	32 d1		 xor	 dl, cl
  000bc	88 55 e9	 mov	 BYTE PTR __k$[ebp+9], dl
  000bf	8a 50 0a	 mov	 dl, BYTE PTR [eax+10]
  000c2	84 d2		 test	 dl, dl
  000c4	0f 84 4b 01 00
	00		 je	 $LN86@LoadFloat_@3
  000ca	80 f2 eb	 xor	 dl, -21			; ffffffebH
  000cd	88 55 ea	 mov	 BYTE PTR __k$[ebp+10], dl
  000d0	8a 50 0b	 mov	 dl, BYTE PTR [eax+11]
  000d3	84 d2		 test	 dl, dl
  000d5	0f 84 35 01 00
	00		 je	 $LN85@LoadFloat_@3
  000db	32 d3		 xor	 dl, bl
  000dd	88 55 eb	 mov	 BYTE PTR __k$[ebp+11], dl
  000e0	8a 50 0c	 mov	 dl, BYTE PTR [eax+12]
  000e3	84 d2		 test	 dl, dl
  000e5	0f 84 1f 01 00
	00		 je	 $LN84@LoadFloat_@3
  000eb	80 f2 ed	 xor	 dl, -19			; ffffffedH
  000ee	88 55 ec	 mov	 BYTE PTR __k$[ebp+12], dl
  000f1	8a 50 0d	 mov	 dl, BYTE PTR [eax+13]
  000f4	84 d2		 test	 dl, dl
  000f6	0f 84 09 01 00
	00		 je	 $LN83@LoadFloat_@3
  000fc	32 d1		 xor	 dl, cl
  000fe	88 55 ed	 mov	 BYTE PTR __k$[ebp+13], dl
  00101	8a 50 0e	 mov	 dl, BYTE PTR [eax+14]
  00104	84 d2		 test	 dl, dl
  00106	0f 84 f3 00 00
	00		 je	 $LN82@LoadFloat_@3
  0010c	80 f2 eb	 xor	 dl, -21			; ffffffebH
  0010f	88 55 ee	 mov	 BYTE PTR __k$[ebp+14], dl
  00112	8a 50 0f	 mov	 dl, BYTE PTR [eax+15]
  00115	84 d2		 test	 dl, dl
  00117	0f 84 dd 00 00
	00		 je	 $LN81@LoadFloat_@3
  0011d	32 d3		 xor	 dl, bl
  0011f	88 55 ef	 mov	 BYTE PTR __k$[ebp+15], dl
  00122	8a 50 10	 mov	 dl, BYTE PTR [eax+16]
  00125	84 d2		 test	 dl, dl
  00127	0f 84 c7 00 00
	00		 je	 $LN80@LoadFloat_@3
  0012d	80 f2 ed	 xor	 dl, -19			; ffffffedH
  00130	88 55 f0	 mov	 BYTE PTR __k$[ebp+16], dl
  00133	8a 50 11	 mov	 dl, BYTE PTR [eax+17]
  00136	84 d2		 test	 dl, dl
  00138	0f 84 b1 00 00
	00		 je	 $LN79@LoadFloat_@3
  0013e	32 d1		 xor	 dl, cl
  00140	88 55 f1	 mov	 BYTE PTR __k$[ebp+17], dl
  00143	8a 50 12	 mov	 dl, BYTE PTR [eax+18]
  00146	84 d2		 test	 dl, dl
  00148	0f 84 9b 00 00
	00		 je	 $LN78@LoadFloat_@3
  0014e	80 f2 eb	 xor	 dl, -21			; ffffffebH
  00151	88 55 f2	 mov	 BYTE PTR __k$[ebp+18], dl
  00154	8a 50 13	 mov	 dl, BYTE PTR [eax+19]
  00157	84 d2		 test	 dl, dl
  00159	0f 84 85 00 00
	00		 je	 $LN77@LoadFloat_@3
  0015f	32 d3		 xor	 dl, bl
  00161	88 55 f3	 mov	 BYTE PTR __k$[ebp+19], dl
  00164	8a 50 14	 mov	 dl, BYTE PTR [eax+20]
  00167	84 d2		 test	 dl, dl
  00169	74 73		 je	 SHORT $LN76@LoadFloat_@3
  0016b	80 f2 ed	 xor	 dl, -19			; ffffffedH
  0016e	88 55 f4	 mov	 BYTE PTR __k$[ebp+20], dl
  00171	8a 50 15	 mov	 dl, BYTE PTR [eax+21]
  00174	84 d2		 test	 dl, dl
  00176	74 61		 je	 SHORT $LN75@LoadFloat_@3
  00178	32 d1		 xor	 dl, cl
  0017a	80 78 16 00	 cmp	 BYTE PTR [eax+22], 0
  0017e	88 55 f5	 mov	 BYTE PTR __k$[ebp+21], dl
  00181	0f 84 cb 00 00
	00		 je	 $LN1@LoadFloat_@3
  00187	8a 50 17	 mov	 dl, BYTE PTR [eax+23]
  0018a	84 d2		 test	 dl, dl
  0018c	74 46		 je	 SHORT $LN73@LoadFloat_@3
  0018e	32 d3		 xor	 dl, bl
  00190	88 55 f7	 mov	 BYTE PTR __k$[ebp+23], dl
  00193	8a 50 18	 mov	 dl, BYTE PTR [eax+24]
  00196	84 d2		 test	 dl, dl
  00198	74 34		 je	 SHORT $LN72@LoadFloat_@3
  0019a	80 f2 ed	 xor	 dl, -19			; ffffffedH
  0019d	88 55 f8	 mov	 BYTE PTR __k$[ebp+24], dl
  001a0	8a 50 19	 mov	 dl, BYTE PTR [eax+25]
  001a3	84 d2		 test	 dl, dl
  001a5	74 1f		 je	 SHORT $LN71@LoadFloat_@3
  001a7	8a 40 1a	 mov	 al, BYTE PTR [eax+26]
  001aa	32 d1		 xor	 dl, cl
  001ac	88 55 f9	 mov	 BYTE PTR __k$[ebp+25], dl
  001af	84 c0		 test	 al, al
  001b1	74 0a		 je	 SHORT $LN70@LoadFloat_@3
  001b3	34 eb		 xor	 al, -21			; ffffffebH
  001b5	88 45 fa	 mov	 BYTE PTR __k$[ebp+26], al
  001b8	e9 95 00 00 00	 jmp	 $LN1@LoadFloat_@3
$LN70@LoadFloat_@3:
  001bd	c6 45 fa eb	 mov	 BYTE PTR __k$[ebp+26], -21 ; ffffffebH
  001c1	e9 8c 00 00 00	 jmp	 $LN1@LoadFloat_@3
$LN71@LoadFloat_@3:
  001c6	88 4d f9	 mov	 BYTE PTR __k$[ebp+25], cl
  001c9	e9 84 00 00 00	 jmp	 $LN1@LoadFloat_@3
$LN72@LoadFloat_@3:
  001ce	c6 45 f8 ed	 mov	 BYTE PTR __k$[ebp+24], -19 ; ffffffedH
  001d2	eb 7e		 jmp	 SHORT $LN1@LoadFloat_@3
$LN73@LoadFloat_@3:
  001d4	88 5d f7	 mov	 BYTE PTR __k$[ebp+23], bl
  001d7	eb 79		 jmp	 SHORT $LN1@LoadFloat_@3
$LN75@LoadFloat_@3:
  001d9	88 4d f5	 mov	 BYTE PTR __k$[ebp+21], cl
  001dc	eb 74		 jmp	 SHORT $LN1@LoadFloat_@3
$LN76@LoadFloat_@3:
  001de	c6 45 f4 ed	 mov	 BYTE PTR __k$[ebp+20], -19 ; ffffffedH
  001e2	eb 6e		 jmp	 SHORT $LN1@LoadFloat_@3
$LN77@LoadFloat_@3:
  001e4	88 5d f3	 mov	 BYTE PTR __k$[ebp+19], bl
  001e7	eb 69		 jmp	 SHORT $LN1@LoadFloat_@3
$LN78@LoadFloat_@3:
  001e9	c6 45 f2 eb	 mov	 BYTE PTR __k$[ebp+18], -21 ; ffffffebH
  001ed	eb 63		 jmp	 SHORT $LN1@LoadFloat_@3
$LN79@LoadFloat_@3:
  001ef	88 4d f1	 mov	 BYTE PTR __k$[ebp+17], cl
  001f2	eb 5e		 jmp	 SHORT $LN1@LoadFloat_@3
$LN80@LoadFloat_@3:
  001f4	c6 45 f0 ed	 mov	 BYTE PTR __k$[ebp+16], -19 ; ffffffedH
  001f8	eb 58		 jmp	 SHORT $LN1@LoadFloat_@3
$LN81@LoadFloat_@3:
  001fa	88 5d ef	 mov	 BYTE PTR __k$[ebp+15], bl
  001fd	eb 53		 jmp	 SHORT $LN1@LoadFloat_@3
$LN82@LoadFloat_@3:
  001ff	c6 45 ee eb	 mov	 BYTE PTR __k$[ebp+14], -21 ; ffffffebH
  00203	eb 4d		 jmp	 SHORT $LN1@LoadFloat_@3
$LN83@LoadFloat_@3:
  00205	88 4d ed	 mov	 BYTE PTR __k$[ebp+13], cl
  00208	eb 48		 jmp	 SHORT $LN1@LoadFloat_@3
$LN84@LoadFloat_@3:
  0020a	c6 45 ec ed	 mov	 BYTE PTR __k$[ebp+12], -19 ; ffffffedH
  0020e	eb 42		 jmp	 SHORT $LN1@LoadFloat_@3
$LN85@LoadFloat_@3:
  00210	88 5d eb	 mov	 BYTE PTR __k$[ebp+11], bl
  00213	eb 3d		 jmp	 SHORT $LN1@LoadFloat_@3
$LN86@LoadFloat_@3:
  00215	c6 45 ea eb	 mov	 BYTE PTR __k$[ebp+10], -21 ; ffffffebH
  00219	eb 37		 jmp	 SHORT $LN1@LoadFloat_@3
$LN87@LoadFloat_@3:
  0021b	88 4d e9	 mov	 BYTE PTR __k$[ebp+9], cl
  0021e	eb 32		 jmp	 SHORT $LN1@LoadFloat_@3
$LN88@LoadFloat_@3:
  00220	c6 45 e8 ed	 mov	 BYTE PTR __k$[ebp+8], -19 ; ffffffedH
  00224	eb 2c		 jmp	 SHORT $LN1@LoadFloat_@3
$LN89@LoadFloat_@3:
  00226	88 5d e7	 mov	 BYTE PTR __k$[ebp+7], bl
  00229	eb 27		 jmp	 SHORT $LN1@LoadFloat_@3
$LN90@LoadFloat_@3:
  0022b	c6 45 e6 eb	 mov	 BYTE PTR __k$[ebp+6], -21 ; ffffffebH
  0022f	eb 21		 jmp	 SHORT $LN1@LoadFloat_@3
$LN91@LoadFloat_@3:
  00231	88 4d e5	 mov	 BYTE PTR __k$[ebp+5], cl
  00234	eb 1c		 jmp	 SHORT $LN1@LoadFloat_@3
$LN92@LoadFloat_@3:
  00236	c6 45 e4 ed	 mov	 BYTE PTR __k$[ebp+4], -19 ; ffffffedH
  0023a	eb 16		 jmp	 SHORT $LN1@LoadFloat_@3
$LN93@LoadFloat_@3:
  0023c	c6 45 e3 ea	 mov	 BYTE PTR __k$[ebp+3], -22 ; ffffffeaH
  00240	eb 10		 jmp	 SHORT $LN1@LoadFloat_@3
$LN94@LoadFloat_@3:
  00242	c6 45 e2 eb	 mov	 BYTE PTR __k$[ebp+2], -21 ; ffffffebH
  00246	eb 0a		 jmp	 SHORT $LN1@LoadFloat_@3
$LN95@LoadFloat_@3:
  00248	c6 45 e1 ec	 mov	 BYTE PTR __k$[ebp+1], -20 ; ffffffecH
  0024c	eb 04		 jmp	 SHORT $LN1@LoadFloat_@3
$LN96@LoadFloat_@3:
  0024e	c6 45 e0 ed	 mov	 BYTE PTR __k$[ebp], -19	; ffffffedH
$LN1@LoadFloat_@3:
  00252	6a 05		 push	 5
  00254	8d 45 e0	 lea	 eax, DWORD PTR __k$[ebp]
  00257	c6 45 f6 00	 mov	 BYTE PTR __k$[ebp+22], 0
  0025b	5a		 pop	 edx
$LL104@LoadFloat_@3:
  0025c	81 30 ed ec eb
	ea		 xor	 DWORD PTR [eax], -353637139 ; eaebecedH
  00262	83 c0 04	 add	 eax, 4
  00265	4a		 dec	 edx
  00266	75 f4		 jne	 SHORT $LL104@LoadFloat_@3
  00268	6a 14		 push	 20			; 00000014H
  0026a	58		 pop	 eax
$LL101@LoadFloat_@3:
  0026b	8b c8		 mov	 ecx, eax
  0026d	81 e1 03 00 00
	80		 and	 ecx, -2147483645	; 80000003H
  00273	79 05		 jns	 SHORT $LN111@LoadFloat_@3
  00275	49		 dec	 ecx
  00276	83 c9 fc	 or	 ecx, -4			; fffffffcH
  00279	41		 inc	 ecx
$LN111@LoadFloat_@3:
  0027a	b2 ed		 mov	 dl, -19			; ffffffedH
  0027c	2a d1		 sub	 dl, cl
  0027e	30 54 05 e0	 xor	 BYTE PTR __k$[ebp+eax], dl
  00282	40		 inc	 eax
  00283	83 f8 16	 cmp	 eax, 22			; 00000016H
  00286	7c e3		 jl	 SHORT $LL101@LoadFloat_@3

; 137  : 		return LoadFloat(_k, f);

  00288	f3 0f 10 45 0c	 movss	 xmm0, DWORD PTR _f$[ebp]
  0028d	51		 push	 ecx
  0028e	8d 45 e0	 lea	 eax, DWORD PTR __k$[ebp]
  00291	f3 0f 11 04 24	 movss	 DWORD PTR [esp], xmm0
  00296	50		 push	 eax
  00297	8b ce		 mov	 ecx, esi
  00299	ff 15 00 00 00
	00		 call	 DWORD PTR __imp_?LoadFloat@ioINILoader@@QAEMPBDM@Z

; 138  : 	}

  0029f	8b 4d fc	 mov	 ecx, DWORD PTR __$ArrayPad$[ebp]
  002a2	5e		 pop	 esi
  002a3	33 cd		 xor	 ecx, ebp
  002a5	5b		 pop	 ebx
  002a6	e8 00 00 00 00	 call	 @__security_check_cookie@4
  002ab	c9		 leave
  002ac	c2 08 00	 ret	 8
??$LoadFloat_e@$0BH@@ioINILoader@@QAEMAAY0BH@$$CBDM@Z ENDP ; ioINILoader::LoadFloat_e<23>
_TEXT	ENDS
PUBLIC	__$ArrayPad$
PUBLIC	??$LoadInt_e@$0N@@ioINILoader@@QAEHAAY0N@$$CBDH@Z ; ioINILoader::LoadInt_e<13>
; Function compile flags: /Ogsp
;	COMDAT ??$LoadInt_e@$0N@@ioINILoader@@QAEHAAY0N@$$CBDH@Z
_TEXT	SEGMENT
__k$ = -24						; size = 13
__$ArrayPad$ = -4					; size = 4
_k$ = 8							; size = 4
_i$ = 12						; size = 4
??$LoadInt_e@$0N@@ioINILoader@@QAEHAAY0N@$$CBDH@Z PROC	; ioINILoader::LoadInt_e<13>, COMDAT
; _this$ = ecx

; 118  : 	{

  00000	55		 push	 ebp
  00001	8b ec		 mov	 ebp, esp
  00003	83 ec 18	 sub	 esp, 24			; 00000018H
  00006	a1 00 00 00 00	 mov	 eax, DWORD PTR ___security_cookie
  0000b	33 c5		 xor	 eax, ebp
  0000d	89 45 fc	 mov	 DWORD PTR __$ArrayPad$[ebp], eax
  00010	8b 45 08	 mov	 eax, DWORD PTR _k$[ebp]

; 119  : 		_ENCSTR(k, _k);

  00013	8a 10		 mov	 dl, BYTE PTR [eax]
  00015	56		 push	 esi
  00016	8b f1		 mov	 esi, ecx
  00018	84 d2		 test	 dl, dl
  0001a	0f 84 4d 01 00
	00		 je	 $LN96@LoadInt_e@2
  00020	80 f2 ed	 xor	 dl, -19			; ffffffedH
  00023	88 55 e8	 mov	 BYTE PTR __k$[ebp], dl
  00026	8a 50 01	 mov	 dl, BYTE PTR [eax+1]
  00029	84 d2		 test	 dl, dl
  0002b	0f 84 36 01 00
	00		 je	 $LN95@LoadInt_e@2
  00031	b1 ec		 mov	 cl, -20			; ffffffecH
  00033	32 d1		 xor	 dl, cl
  00035	88 55 e9	 mov	 BYTE PTR __k$[ebp+1], dl
  00038	8a 50 02	 mov	 dl, BYTE PTR [eax+2]
  0003b	84 d2		 test	 dl, dl
  0003d	0f 84 1e 01 00
	00		 je	 $LN94@LoadInt_e@2
  00043	80 f2 eb	 xor	 dl, -21			; ffffffebH
  00046	88 55 ea	 mov	 BYTE PTR __k$[ebp+2], dl
  00049	8a 50 03	 mov	 dl, BYTE PTR [eax+3]
  0004c	84 d2		 test	 dl, dl
  0004e	0f 84 07 01 00
	00		 je	 $LN93@LoadInt_e@2
  00054	80 f2 ea	 xor	 dl, -22			; ffffffeaH
  00057	88 55 eb	 mov	 BYTE PTR __k$[ebp+3], dl
  0005a	8a 50 04	 mov	 dl, BYTE PTR [eax+4]
  0005d	84 d2		 test	 dl, dl
  0005f	0f 84 f0 00 00
	00		 je	 $LN92@LoadInt_e@2
  00065	80 f2 ed	 xor	 dl, -19			; ffffffedH
  00068	88 55 ec	 mov	 BYTE PTR __k$[ebp+4], dl
  0006b	8a 50 05	 mov	 dl, BYTE PTR [eax+5]
  0006e	84 d2		 test	 dl, dl
  00070	0f 84 da 00 00
	00		 je	 $LN91@LoadInt_e@2
  00076	32 d1		 xor	 dl, cl
  00078	88 55 ed	 mov	 BYTE PTR __k$[ebp+5], dl
  0007b	8a 50 06	 mov	 dl, BYTE PTR [eax+6]
  0007e	84 d2		 test	 dl, dl
  00080	0f 84 c4 00 00
	00		 je	 $LN90@LoadInt_e@2
  00086	80 f2 eb	 xor	 dl, -21			; ffffffebH
  00089	88 55 ee	 mov	 BYTE PTR __k$[ebp+6], dl
  0008c	8a 50 07	 mov	 dl, BYTE PTR [eax+7]
  0008f	84 d2		 test	 dl, dl
  00091	0f 84 ad 00 00
	00		 je	 $LN89@LoadInt_e@2
  00097	80 f2 ea	 xor	 dl, -22			; ffffffeaH
  0009a	88 55 ef	 mov	 BYTE PTR __k$[ebp+7], dl
  0009d	8a 50 08	 mov	 dl, BYTE PTR [eax+8]
  000a0	84 d2		 test	 dl, dl
  000a2	0f 84 96 00 00
	00		 je	 $LN88@LoadInt_e@2
  000a8	80 f2 ed	 xor	 dl, -19			; ffffffedH
  000ab	88 55 f0	 mov	 BYTE PTR __k$[ebp+8], dl
  000ae	8a 50 09	 mov	 dl, BYTE PTR [eax+9]
  000b1	84 d2		 test	 dl, dl
  000b3	0f 84 80 00 00
	00		 je	 $LN87@LoadInt_e@2
  000b9	32 d1		 xor	 dl, cl
  000bb	88 55 f1	 mov	 BYTE PTR __k$[ebp+9], dl
  000be	8a 50 0a	 mov	 dl, BYTE PTR [eax+10]
  000c1	84 d2		 test	 dl, dl
  000c3	74 6e		 je	 SHORT $LN86@LoadInt_e@2
  000c5	80 f2 eb	 xor	 dl, -21			; ffffffebH
  000c8	88 55 f2	 mov	 BYTE PTR __k$[ebp+10], dl
  000cb	8a 50 0b	 mov	 dl, BYTE PTR [eax+11]
  000ce	84 d2		 test	 dl, dl
  000d0	74 5b		 je	 SHORT $LN85@LoadInt_e@2
  000d2	80 f2 ea	 xor	 dl, -22			; ffffffeaH
  000d5	80 78 0c 00	 cmp	 BYTE PTR [eax+12], 0
  000d9	88 55 f3	 mov	 BYTE PTR __k$[ebp+11], dl
  000dc	0f 84 8f 00 00
	00		 je	 $LN1@LoadInt_e@2
  000e2	8a 50 0d	 mov	 dl, BYTE PTR [eax+13]
  000e5	84 d2		 test	 dl, dl
  000e7	74 3f		 je	 SHORT $LN83@LoadInt_e@2
  000e9	32 d1		 xor	 dl, cl
  000eb	88 55 f5	 mov	 BYTE PTR __k$[ebp+13], dl
  000ee	8a 50 0e	 mov	 dl, BYTE PTR [eax+14]
  000f1	84 d2		 test	 dl, dl
  000f3	74 2d		 je	 SHORT $LN82@LoadInt_e@2
  000f5	80 f2 eb	 xor	 dl, -21			; ffffffebH
  000f8	88 55 f6	 mov	 BYTE PTR __k$[ebp+14], dl
  000fb	8a 50 0f	 mov	 dl, BYTE PTR [eax+15]
  000fe	84 d2		 test	 dl, dl
  00100	74 1a		 je	 SHORT $LN81@LoadInt_e@2
  00102	8a 40 10	 mov	 al, BYTE PTR [eax+16]
  00105	80 f2 ea	 xor	 dl, -22			; ffffffeaH
  00108	88 55 f7	 mov	 BYTE PTR __k$[ebp+15], dl
  0010b	84 c0		 test	 al, al
  0010d	74 07		 je	 SHORT $LN80@LoadInt_e@2
  0010f	34 ed		 xor	 al, -19			; ffffffedH
  00111	88 45 f8	 mov	 BYTE PTR __k$[ebp+16], al
  00114	eb 5b		 jmp	 SHORT $LN1@LoadInt_e@2
$LN80@LoadInt_e@2:
  00116	c6 45 f8 ed	 mov	 BYTE PTR __k$[ebp+16], -19 ; ffffffedH
  0011a	eb 55		 jmp	 SHORT $LN1@LoadInt_e@2
$LN81@LoadInt_e@2:
  0011c	c6 45 f7 ea	 mov	 BYTE PTR __k$[ebp+15], -22 ; ffffffeaH
  00120	eb 4f		 jmp	 SHORT $LN1@LoadInt_e@2
$LN82@LoadInt_e@2:
  00122	c6 45 f6 eb	 mov	 BYTE PTR __k$[ebp+14], -21 ; ffffffebH
  00126	eb 49		 jmp	 SHORT $LN1@LoadInt_e@2
$LN83@LoadInt_e@2:
  00128	88 4d f5	 mov	 BYTE PTR __k$[ebp+13], cl
  0012b	eb 44		 jmp	 SHORT $LN1@LoadInt_e@2
$LN85@LoadInt_e@2:
  0012d	c6 45 f3 ea	 mov	 BYTE PTR __k$[ebp+11], -22 ; ffffffeaH
  00131	eb 3e		 jmp	 SHORT $LN1@LoadInt_e@2
$LN86@LoadInt_e@2:
  00133	c6 45 f2 eb	 mov	 BYTE PTR __k$[ebp+10], -21 ; ffffffebH
  00137	eb 38		 jmp	 SHORT $LN1@LoadInt_e@2
$LN87@LoadInt_e@2:
  00139	88 4d f1	 mov	 BYTE PTR __k$[ebp+9], cl
  0013c	eb 33		 jmp	 SHORT $LN1@LoadInt_e@2
$LN88@LoadInt_e@2:
  0013e	c6 45 f0 ed	 mov	 BYTE PTR __k$[ebp+8], -19 ; ffffffedH
  00142	eb 2d		 jmp	 SHORT $LN1@LoadInt_e@2
$LN89@LoadInt_e@2:
  00144	c6 45 ef ea	 mov	 BYTE PTR __k$[ebp+7], -22 ; ffffffeaH
  00148	eb 27		 jmp	 SHORT $LN1@LoadInt_e@2
$LN90@LoadInt_e@2:
  0014a	c6 45 ee eb	 mov	 BYTE PTR __k$[ebp+6], -21 ; ffffffebH
  0014e	eb 21		 jmp	 SHORT $LN1@LoadInt_e@2
$LN91@LoadInt_e@2:
  00150	88 4d ed	 mov	 BYTE PTR __k$[ebp+5], cl
  00153	eb 1c		 jmp	 SHORT $LN1@LoadInt_e@2
$LN92@LoadInt_e@2:
  00155	c6 45 ec ed	 mov	 BYTE PTR __k$[ebp+4], -19 ; ffffffedH
  00159	eb 16		 jmp	 SHORT $LN1@LoadInt_e@2
$LN93@LoadInt_e@2:
  0015b	c6 45 eb ea	 mov	 BYTE PTR __k$[ebp+3], -22 ; ffffffeaH
  0015f	eb 10		 jmp	 SHORT $LN1@LoadInt_e@2
$LN94@LoadInt_e@2:
  00161	c6 45 ea eb	 mov	 BYTE PTR __k$[ebp+2], -21 ; ffffffebH
  00165	eb 0a		 jmp	 SHORT $LN1@LoadInt_e@2
$LN95@LoadInt_e@2:
  00167	c6 45 e9 ec	 mov	 BYTE PTR __k$[ebp+1], -20 ; ffffffecH
  0016b	eb 04		 jmp	 SHORT $LN1@LoadInt_e@2
$LN96@LoadInt_e@2:
  0016d	c6 45 e8 ed	 mov	 BYTE PTR __k$[ebp], -19	; ffffffedH
$LN1@LoadInt_e@2:
  00171	6a 03		 push	 3
  00173	8d 45 e8	 lea	 eax, DWORD PTR __k$[ebp]
  00176	c6 45 f4 00	 mov	 BYTE PTR __k$[ebp+12], 0
  0017a	5a		 pop	 edx
$LL104@LoadInt_e@2:
  0017b	81 30 ed ec eb
	ea		 xor	 DWORD PTR [eax], -353637139 ; eaebecedH
  00181	83 c0 04	 add	 eax, 4
  00184	4a		 dec	 edx
  00185	75 f4		 jne	 SHORT $LL104@LoadInt_e@2

; 120  : 		return LoadInt(_k, i);

  00187	ff 75 0c	 push	 DWORD PTR _i$[ebp]
  0018a	8d 45 e8	 lea	 eax, DWORD PTR __k$[ebp]
  0018d	50		 push	 eax
  0018e	8b ce		 mov	 ecx, esi
  00190	ff 15 00 00 00
	00		 call	 DWORD PTR __imp_?LoadInt@ioINILoader@@QAEHPBDH@Z

; 121  : 	}

  00196	8b 4d fc	 mov	 ecx, DWORD PTR __$ArrayPad$[ebp]
  00199	33 cd		 xor	 ecx, ebp
  0019b	5e		 pop	 esi
  0019c	e8 00 00 00 00	 call	 @__security_check_cookie@4
  001a1	c9		 leave
  001a2	c2 08 00	 ret	 8
??$LoadInt_e@$0N@@ioINILoader@@QAEHAAY0N@$$CBDH@Z ENDP	; ioINILoader::LoadInt_e<13>
_TEXT	ENDS
PUBLIC	__$ArrayPad$
PUBLIC	??$LoadFloat_e@$0BC@@ioINILoader@@QAEMAAY0BC@$$CBDM@Z ; ioINILoader::LoadFloat_e<18>
; Function compile flags: /Ogsp
;	COMDAT ??$LoadFloat_e@$0BC@@ioINILoader@@QAEMAAY0BC@$$CBDM@Z
_TEXT	SEGMENT
__k$ = -28						; size = 18
__$ArrayPad$ = -4					; size = 4
_k$ = 8							; size = 4
_f$ = 12						; size = 4
??$LoadFloat_e@$0BC@@ioINILoader@@QAEMAAY0BC@$$CBDM@Z PROC ; ioINILoader::LoadFloat_e<18>, COMDAT
; _this$ = ecx

; 135  : 	{

  00000	55		 push	 ebp
  00001	8b ec		 mov	 ebp, esp
  00003	83 ec 1c	 sub	 esp, 28			; 0000001cH
  00006	a1 00 00 00 00	 mov	 eax, DWORD PTR ___security_cookie
  0000b	33 c5		 xor	 eax, ebp
  0000d	89 45 fc	 mov	 DWORD PTR __$ArrayPad$[ebp], eax
  00010	8b 45 08	 mov	 eax, DWORD PTR _k$[ebp]

; 136  : 		_ENCSTR(k, _k);

  00013	8a 10		 mov	 dl, BYTE PTR [eax]
  00015	56		 push	 esi
  00016	8b f1		 mov	 esi, ecx
  00018	84 d2		 test	 dl, dl
  0001a	0f 84 be 01 00
	00		 je	 $LN96@LoadFloat_@4
  00020	80 f2 ed	 xor	 dl, -19			; ffffffedH
  00023	88 55 e4	 mov	 BYTE PTR __k$[ebp], dl
  00026	8a 50 01	 mov	 dl, BYTE PTR [eax+1]
  00029	84 d2		 test	 dl, dl
  0002b	0f 84 a7 01 00
	00		 je	 $LN95@LoadFloat_@4
  00031	80 f2 ec	 xor	 dl, -20			; ffffffecH
  00034	88 55 e5	 mov	 BYTE PTR __k$[ebp+1], dl
  00037	8a 50 02	 mov	 dl, BYTE PTR [eax+2]
  0003a	84 d2		 test	 dl, dl
  0003c	0f 84 90 01 00
	00		 je	 $LN94@LoadFloat_@4
  00042	b1 eb		 mov	 cl, -21			; ffffffebH
  00044	32 d1		 xor	 dl, cl
  00046	88 55 e6	 mov	 BYTE PTR __k$[ebp+2], dl
  00049	8a 50 03	 mov	 dl, BYTE PTR [eax+3]
  0004c	84 d2		 test	 dl, dl
  0004e	0f 84 78 01 00
	00		 je	 $LN93@LoadFloat_@4
  00054	80 f2 ea	 xor	 dl, -22			; ffffffeaH
  00057	88 55 e7	 mov	 BYTE PTR __k$[ebp+3], dl
  0005a	8a 50 04	 mov	 dl, BYTE PTR [eax+4]
  0005d	84 d2		 test	 dl, dl
  0005f	0f 84 61 01 00
	00		 je	 $LN92@LoadFloat_@4
  00065	80 f2 ed	 xor	 dl, -19			; ffffffedH
  00068	88 55 e8	 mov	 BYTE PTR __k$[ebp+4], dl
  0006b	8a 50 05	 mov	 dl, BYTE PTR [eax+5]
  0006e	84 d2		 test	 dl, dl
  00070	0f 84 4a 01 00
	00		 je	 $LN91@LoadFloat_@4
  00076	80 f2 ec	 xor	 dl, -20			; ffffffecH
  00079	88 55 e9	 mov	 BYTE PTR __k$[ebp+5], dl
  0007c	8a 50 06	 mov	 dl, BYTE PTR [eax+6]
  0007f	84 d2		 test	 dl, dl
  00081	0f 84 34 01 00
	00		 je	 $LN90@LoadFloat_@4
  00087	32 d1		 xor	 dl, cl
  00089	88 55 ea	 mov	 BYTE PTR __k$[ebp+6], dl
  0008c	8a 50 07	 mov	 dl, BYTE PTR [eax+7]
  0008f	84 d2		 test	 dl, dl
  00091	0f 84 1e 01 00
	00		 je	 $LN89@LoadFloat_@4
  00097	80 f2 ea	 xor	 dl, -22			; ffffffeaH
  0009a	88 55 eb	 mov	 BYTE PTR __k$[ebp+7], dl
  0009d	8a 50 08	 mov	 dl, BYTE PTR [eax+8]
  000a0	84 d2		 test	 dl, dl
  000a2	0f 84 07 01 00
	00		 je	 $LN88@LoadFloat_@4
  000a8	80 f2 ed	 xor	 dl, -19			; ffffffedH
  000ab	88 55 ec	 mov	 BYTE PTR __k$[ebp+8], dl
  000ae	8a 50 09	 mov	 dl, BYTE PTR [eax+9]
  000b1	84 d2		 test	 dl, dl
  000b3	0f 84 f0 00 00
	00		 je	 $LN87@LoadFloat_@4
  000b9	80 f2 ec	 xor	 dl, -20			; ffffffecH
  000bc	88 55 ed	 mov	 BYTE PTR __k$[ebp+9], dl
  000bf	8a 50 0a	 mov	 dl, BYTE PTR [eax+10]
  000c2	84 d2		 test	 dl, dl
  000c4	0f 84 da 00 00
	00		 je	 $LN86@LoadFloat_@4
  000ca	32 d1		 xor	 dl, cl
  000cc	88 55 ee	 mov	 BYTE PTR __k$[ebp+10], dl
  000cf	8a 50 0b	 mov	 dl, BYTE PTR [eax+11]
  000d2	84 d2		 test	 dl, dl
  000d4	0f 84 c4 00 00
	00		 je	 $LN85@LoadFloat_@4
  000da	80 f2 ea	 xor	 dl, -22			; ffffffeaH
  000dd	88 55 ef	 mov	 BYTE PTR __k$[ebp+11], dl
  000e0	8a 50 0c	 mov	 dl, BYTE PTR [eax+12]
  000e3	84 d2		 test	 dl, dl
  000e5	0f 84 ad 00 00
	00		 je	 $LN84@LoadFloat_@4
  000eb	80 f2 ed	 xor	 dl, -19			; ffffffedH
  000ee	88 55 f0	 mov	 BYTE PTR __k$[ebp+12], dl
  000f1	8a 50 0d	 mov	 dl, BYTE PTR [eax+13]
  000f4	84 d2		 test	 dl, dl
  000f6	0f 84 96 00 00
	00		 je	 $LN83@LoadFloat_@4
  000fc	80 f2 ec	 xor	 dl, -20			; ffffffecH
  000ff	88 55 f1	 mov	 BYTE PTR __k$[ebp+13], dl
  00102	8a 50 0e	 mov	 dl, BYTE PTR [eax+14]
  00105	84 d2		 test	 dl, dl
  00107	0f 84 80 00 00
	00		 je	 $LN82@LoadFloat_@4
  0010d	32 d1		 xor	 dl, cl
  0010f	88 55 f2	 mov	 BYTE PTR __k$[ebp+14], dl
  00112	8a 50 0f	 mov	 dl, BYTE PTR [eax+15]
  00115	84 d2		 test	 dl, dl
  00117	74 6e		 je	 SHORT $LN81@LoadFloat_@4
  00119	80 f2 ea	 xor	 dl, -22			; ffffffeaH
  0011c	88 55 f3	 mov	 BYTE PTR __k$[ebp+15], dl
  0011f	8a 50 10	 mov	 dl, BYTE PTR [eax+16]
  00122	84 d2		 test	 dl, dl
  00124	74 5b		 je	 SHORT $LN80@LoadFloat_@4
  00126	80 f2 ed	 xor	 dl, -19			; ffffffedH
  00129	80 78 11 00	 cmp	 BYTE PTR [eax+17], 0
  0012d	88 55 f4	 mov	 BYTE PTR __k$[ebp+16], dl
  00130	0f 84 ac 00 00
	00		 je	 $LN1@LoadFloat_@4
  00136	8a 50 12	 mov	 dl, BYTE PTR [eax+18]
  00139	84 d2		 test	 dl, dl
  0013b	74 3f		 je	 SHORT $LN78@LoadFloat_@4
  0013d	32 d1		 xor	 dl, cl
  0013f	88 55 f6	 mov	 BYTE PTR __k$[ebp+18], dl
  00142	8a 50 13	 mov	 dl, BYTE PTR [eax+19]
  00145	84 d2		 test	 dl, dl
  00147	74 2d		 je	 SHORT $LN77@LoadFloat_@4
  00149	80 f2 ea	 xor	 dl, -22			; ffffffeaH
  0014c	88 55 f7	 mov	 BYTE PTR __k$[ebp+19], dl
  0014f	8a 50 14	 mov	 dl, BYTE PTR [eax+20]
  00152	84 d2		 test	 dl, dl
  00154	74 1a		 je	 SHORT $LN76@LoadFloat_@4
  00156	8a 40 15	 mov	 al, BYTE PTR [eax+21]
  00159	80 f2 ed	 xor	 dl, -19			; ffffffedH
  0015c	88 55 f8	 mov	 BYTE PTR __k$[ebp+20], dl
  0015f	84 c0		 test	 al, al
  00161	74 07		 je	 SHORT $LN75@LoadFloat_@4
  00163	34 ec		 xor	 al, -20			; ffffffecH
  00165	88 45 f9	 mov	 BYTE PTR __k$[ebp+21], al
  00168	eb 78		 jmp	 SHORT $LN1@LoadFloat_@4
$LN75@LoadFloat_@4:
  0016a	c6 45 f9 ec	 mov	 BYTE PTR __k$[ebp+21], -20 ; ffffffecH
  0016e	eb 72		 jmp	 SHORT $LN1@LoadFloat_@4
$LN76@LoadFloat_@4:
  00170	c6 45 f8 ed	 mov	 BYTE PTR __k$[ebp+20], -19 ; ffffffedH
  00174	eb 6c		 jmp	 SHORT $LN1@LoadFloat_@4
$LN77@LoadFloat_@4:
  00176	c6 45 f7 ea	 mov	 BYTE PTR __k$[ebp+19], -22 ; ffffffeaH
  0017a	eb 66		 jmp	 SHORT $LN1@LoadFloat_@4
$LN78@LoadFloat_@4:
  0017c	88 4d f6	 mov	 BYTE PTR __k$[ebp+18], cl
  0017f	eb 61		 jmp	 SHORT $LN1@LoadFloat_@4
$LN80@LoadFloat_@4:
  00181	c6 45 f4 ed	 mov	 BYTE PTR __k$[ebp+16], -19 ; ffffffedH
  00185	eb 5b		 jmp	 SHORT $LN1@LoadFloat_@4
$LN81@LoadFloat_@4:
  00187	c6 45 f3 ea	 mov	 BYTE PTR __k$[ebp+15], -22 ; ffffffeaH
  0018b	eb 55		 jmp	 SHORT $LN1@LoadFloat_@4
$LN82@LoadFloat_@4:
  0018d	88 4d f2	 mov	 BYTE PTR __k$[ebp+14], cl
  00190	eb 50		 jmp	 SHORT $LN1@LoadFloat_@4
$LN83@LoadFloat_@4:
  00192	c6 45 f1 ec	 mov	 BYTE PTR __k$[ebp+13], -20 ; ffffffecH
  00196	eb 4a		 jmp	 SHORT $LN1@LoadFloat_@4
$LN84@LoadFloat_@4:
  00198	c6 45 f0 ed	 mov	 BYTE PTR __k$[ebp+12], -19 ; ffffffedH
  0019c	eb 44		 jmp	 SHORT $LN1@LoadFloat_@4
$LN85@LoadFloat_@4:
  0019e	c6 45 ef ea	 mov	 BYTE PTR __k$[ebp+11], -22 ; ffffffeaH
  001a2	eb 3e		 jmp	 SHORT $LN1@LoadFloat_@4
$LN86@LoadFloat_@4:
  001a4	88 4d ee	 mov	 BYTE PTR __k$[ebp+10], cl
  001a7	eb 39		 jmp	 SHORT $LN1@LoadFloat_@4
$LN87@LoadFloat_@4:
  001a9	c6 45 ed ec	 mov	 BYTE PTR __k$[ebp+9], -20 ; ffffffecH
  001ad	eb 33		 jmp	 SHORT $LN1@LoadFloat_@4
$LN88@LoadFloat_@4:
  001af	c6 45 ec ed	 mov	 BYTE PTR __k$[ebp+8], -19 ; ffffffedH
  001b3	eb 2d		 jmp	 SHORT $LN1@LoadFloat_@4
$LN89@LoadFloat_@4:
  001b5	c6 45 eb ea	 mov	 BYTE PTR __k$[ebp+7], -22 ; ffffffeaH
  001b9	eb 27		 jmp	 SHORT $LN1@LoadFloat_@4
$LN90@LoadFloat_@4:
  001bb	88 4d ea	 mov	 BYTE PTR __k$[ebp+6], cl
  001be	eb 22		 jmp	 SHORT $LN1@LoadFloat_@4
$LN91@LoadFloat_@4:
  001c0	c6 45 e9 ec	 mov	 BYTE PTR __k$[ebp+5], -20 ; ffffffecH
  001c4	eb 1c		 jmp	 SHORT $LN1@LoadFloat_@4
$LN92@LoadFloat_@4:
  001c6	c6 45 e8 ed	 mov	 BYTE PTR __k$[ebp+4], -19 ; ffffffedH
  001ca	eb 16		 jmp	 SHORT $LN1@LoadFloat_@4
$LN93@LoadFloat_@4:
  001cc	c6 45 e7 ea	 mov	 BYTE PTR __k$[ebp+3], -22 ; ffffffeaH
  001d0	eb 10		 jmp	 SHORT $LN1@LoadFloat_@4
$LN94@LoadFloat_@4:
  001d2	c6 45 e6 eb	 mov	 BYTE PTR __k$[ebp+2], -21 ; ffffffebH
  001d6	eb 0a		 jmp	 SHORT $LN1@LoadFloat_@4
$LN95@LoadFloat_@4:
  001d8	c6 45 e5 ec	 mov	 BYTE PTR __k$[ebp+1], -20 ; ffffffecH
  001dc	eb 04		 jmp	 SHORT $LN1@LoadFloat_@4
$LN96@LoadFloat_@4:
  001de	c6 45 e4 ed	 mov	 BYTE PTR __k$[ebp], -19	; ffffffedH
$LN1@LoadFloat_@4:
  001e2	6a 04		 push	 4
  001e4	8d 45 e4	 lea	 eax, DWORD PTR __k$[ebp]
  001e7	c6 45 f5 00	 mov	 BYTE PTR __k$[ebp+17], 0
  001eb	5a		 pop	 edx
$LL104@LoadFloat_@4:
  001ec	81 30 ed ec eb
	ea		 xor	 DWORD PTR [eax], -353637139 ; eaebecedH
  001f2	83 c0 04	 add	 eax, 4
  001f5	4a		 dec	 edx
  001f6	75 f4		 jne	 SHORT $LL104@LoadFloat_@4

; 137  : 		return LoadFloat(_k, f);

  001f8	f3 0f 10 45 0c	 movss	 xmm0, DWORD PTR _f$[ebp]
  001fd	80 75 f4 ed	 xor	 BYTE PTR __k$[ebp+16], -19 ; ffffffedH
  00201	51		 push	 ecx
  00202	8d 45 e4	 lea	 eax, DWORD PTR __k$[ebp]
  00205	f3 0f 11 04 24	 movss	 DWORD PTR [esp], xmm0
  0020a	50		 push	 eax
  0020b	8b ce		 mov	 ecx, esi
  0020d	ff 15 00 00 00
	00		 call	 DWORD PTR __imp_?LoadFloat@ioINILoader@@QAEMPBDM@Z

; 138  : 	}

  00213	8b 4d fc	 mov	 ecx, DWORD PTR __$ArrayPad$[ebp]
  00216	33 cd		 xor	 ecx, ebp
  00218	5e		 pop	 esi
  00219	e8 00 00 00 00	 call	 @__security_check_cookie@4
  0021e	c9		 leave
  0021f	c2 08 00	 ret	 8
??$LoadFloat_e@$0BC@@ioINILoader@@QAEMAAY0BC@$$CBDM@Z ENDP ; ioINILoader::LoadFloat_e<18>
_TEXT	ENDS
PUBLIC	__$ArrayPad$
PUBLIC	??$LoadInt_e@$0BI@@ioINILoader@@QAEHAAY0BI@$$CBDH@Z ; ioINILoader::LoadInt_e<24>
; Function compile flags: /Ogsp
;	COMDAT ??$LoadInt_e@$0BI@@ioINILoader@@QAEHAAY0BI@$$CBDH@Z
_TEXT	SEGMENT
__k$ = -32						; size = 24
__$ArrayPad$ = -4					; size = 4
_k$ = 8							; size = 4
_i$ = 12						; size = 4
??$LoadInt_e@$0BI@@ioINILoader@@QAEHAAY0BI@$$CBDH@Z PROC ; ioINILoader::LoadInt_e<24>, COMDAT
; _this$ = ecx

; 118  : 	{

  00000	55		 push	 ebp
  00001	8b ec		 mov	 ebp, esp
  00003	83 ec 20	 sub	 esp, 32			; 00000020H
  00006	a1 00 00 00 00	 mov	 eax, DWORD PTR ___security_cookie
  0000b	33 c5		 xor	 eax, ebp
  0000d	89 45 fc	 mov	 DWORD PTR __$ArrayPad$[ebp], eax
  00010	8b 45 08	 mov	 eax, DWORD PTR _k$[ebp]

; 119  : 		_ENCSTR(k, _k);

  00013	8a 10		 mov	 dl, BYTE PTR [eax]
  00015	53		 push	 ebx
  00016	56		 push	 esi
  00017	8b f1		 mov	 esi, ecx
  00019	84 d2		 test	 dl, dl
  0001b	0f 84 45 02 00
	00		 je	 $LN96@LoadInt_e@3
  00021	80 f2 ed	 xor	 dl, -19			; ffffffedH
  00024	88 55 e0	 mov	 BYTE PTR __k$[ebp], dl
  00027	8a 50 01	 mov	 dl, BYTE PTR [eax+1]
  0002a	84 d2		 test	 dl, dl
  0002c	0f 84 2e 02 00
	00		 je	 $LN95@LoadInt_e@3
  00032	b3 ec		 mov	 bl, -20			; ffffffecH
  00034	32 d3		 xor	 dl, bl
  00036	88 55 e1	 mov	 BYTE PTR __k$[ebp+1], dl
  00039	8a 50 02	 mov	 dl, BYTE PTR [eax+2]
  0003c	84 d2		 test	 dl, dl
  0003e	0f 84 16 02 00
	00		 je	 $LN94@LoadInt_e@3
  00044	b1 eb		 mov	 cl, -21			; ffffffebH
  00046	32 d1		 xor	 dl, cl
  00048	88 55 e2	 mov	 BYTE PTR __k$[ebp+2], dl
  0004b	8a 50 03	 mov	 dl, BYTE PTR [eax+3]
  0004e	84 d2		 test	 dl, dl
  00050	0f 84 fe 01 00
	00		 je	 $LN93@LoadInt_e@3
  00056	80 f2 ea	 xor	 dl, -22			; ffffffeaH
  00059	88 55 e3	 mov	 BYTE PTR __k$[ebp+3], dl
  0005c	8a 50 04	 mov	 dl, BYTE PTR [eax+4]
  0005f	84 d2		 test	 dl, dl
  00061	0f 84 e7 01 00
	00		 je	 $LN92@LoadInt_e@3
  00067	80 f2 ed	 xor	 dl, -19			; ffffffedH
  0006a	88 55 e4	 mov	 BYTE PTR __k$[ebp+4], dl
  0006d	8a 50 05	 mov	 dl, BYTE PTR [eax+5]
  00070	84 d2		 test	 dl, dl
  00072	0f 84 d1 01 00
	00		 je	 $LN91@LoadInt_e@3
  00078	32 d3		 xor	 dl, bl
  0007a	88 55 e5	 mov	 BYTE PTR __k$[ebp+5], dl
  0007d	8a 50 06	 mov	 dl, BYTE PTR [eax+6]
  00080	84 d2		 test	 dl, dl
  00082	0f 84 bc 01 00
	00		 je	 $LN90@LoadInt_e@3
  00088	32 d1		 xor	 dl, cl
  0008a	88 55 e6	 mov	 BYTE PTR __k$[ebp+6], dl
  0008d	8a 50 07	 mov	 dl, BYTE PTR [eax+7]
  00090	84 d2		 test	 dl, dl
  00092	0f 84 a6 01 00
	00		 je	 $LN89@LoadInt_e@3
  00098	80 f2 ea	 xor	 dl, -22			; ffffffeaH
  0009b	88 55 e7	 mov	 BYTE PTR __k$[ebp+7], dl
  0009e	8a 50 08	 mov	 dl, BYTE PTR [eax+8]
  000a1	84 d2		 test	 dl, dl
  000a3	0f 84 8f 01 00
	00		 je	 $LN88@LoadInt_e@3
  000a9	80 f2 ed	 xor	 dl, -19			; ffffffedH
  000ac	88 55 e8	 mov	 BYTE PTR __k$[ebp+8], dl
  000af	8a 50 09	 mov	 dl, BYTE PTR [eax+9]
  000b2	84 d2		 test	 dl, dl
  000b4	0f 84 79 01 00
	00		 je	 $LN87@LoadInt_e@3
  000ba	32 d3		 xor	 dl, bl
  000bc	88 55 e9	 mov	 BYTE PTR __k$[ebp+9], dl
  000bf	8a 50 0a	 mov	 dl, BYTE PTR [eax+10]
  000c2	84 d2		 test	 dl, dl
  000c4	0f 84 64 01 00
	00		 je	 $LN86@LoadInt_e@3
  000ca	32 d1		 xor	 dl, cl
  000cc	88 55 ea	 mov	 BYTE PTR __k$[ebp+10], dl
  000cf	8a 50 0b	 mov	 dl, BYTE PTR [eax+11]
  000d2	84 d2		 test	 dl, dl
  000d4	0f 84 4e 01 00
	00		 je	 $LN85@LoadInt_e@3
  000da	80 f2 ea	 xor	 dl, -22			; ffffffeaH
  000dd	88 55 eb	 mov	 BYTE PTR __k$[ebp+11], dl
  000e0	8a 50 0c	 mov	 dl, BYTE PTR [eax+12]
  000e3	84 d2		 test	 dl, dl
  000e5	0f 84 37 01 00
	00		 je	 $LN84@LoadInt_e@3
  000eb	80 f2 ed	 xor	 dl, -19			; ffffffedH
  000ee	88 55 ec	 mov	 BYTE PTR __k$[ebp+12], dl
  000f1	8a 50 0d	 mov	 dl, BYTE PTR [eax+13]
  000f4	84 d2		 test	 dl, dl
  000f6	0f 84 21 01 00
	00		 je	 $LN83@LoadInt_e@3
  000fc	32 d3		 xor	 dl, bl
  000fe	88 55 ed	 mov	 BYTE PTR __k$[ebp+13], dl
  00101	8a 50 0e	 mov	 dl, BYTE PTR [eax+14]
  00104	84 d2		 test	 dl, dl
  00106	0f 84 0c 01 00
	00		 je	 $LN82@LoadInt_e@3
  0010c	32 d1		 xor	 dl, cl
  0010e	88 55 ee	 mov	 BYTE PTR __k$[ebp+14], dl
  00111	8a 50 0f	 mov	 dl, BYTE PTR [eax+15]
  00114	84 d2		 test	 dl, dl
  00116	0f 84 f6 00 00
	00		 je	 $LN81@LoadInt_e@3
  0011c	80 f2 ea	 xor	 dl, -22			; ffffffeaH
  0011f	88 55 ef	 mov	 BYTE PTR __k$[ebp+15], dl
  00122	8a 50 10	 mov	 dl, BYTE PTR [eax+16]
  00125	84 d2		 test	 dl, dl
  00127	0f 84 df 00 00
	00		 je	 $LN80@LoadInt_e@3
  0012d	80 f2 ed	 xor	 dl, -19			; ffffffedH
  00130	88 55 f0	 mov	 BYTE PTR __k$[ebp+16], dl
  00133	8a 50 11	 mov	 dl, BYTE PTR [eax+17]
  00136	84 d2		 test	 dl, dl
  00138	0f 84 c9 00 00
	00		 je	 $LN79@LoadInt_e@3
  0013e	32 d3		 xor	 dl, bl
  00140	88 55 f1	 mov	 BYTE PTR __k$[ebp+17], dl
  00143	8a 50 12	 mov	 dl, BYTE PTR [eax+18]
  00146	84 d2		 test	 dl, dl
  00148	0f 84 b4 00 00
	00		 je	 $LN78@LoadInt_e@3
  0014e	32 d1		 xor	 dl, cl
  00150	88 55 f2	 mov	 BYTE PTR __k$[ebp+18], dl
  00153	8a 50 13	 mov	 dl, BYTE PTR [eax+19]
  00156	84 d2		 test	 dl, dl
  00158	0f 84 9e 00 00
	00		 je	 $LN77@LoadInt_e@3
  0015e	80 f2 ea	 xor	 dl, -22			; ffffffeaH
  00161	88 55 f3	 mov	 BYTE PTR __k$[ebp+19], dl
  00164	8a 50 14	 mov	 dl, BYTE PTR [eax+20]
  00167	84 d2		 test	 dl, dl
  00169	0f 84 87 00 00
	00		 je	 $LN76@LoadInt_e@3
  0016f	80 f2 ed	 xor	 dl, -19			; ffffffedH
  00172	88 55 f4	 mov	 BYTE PTR __k$[ebp+20], dl
  00175	8a 50 15	 mov	 dl, BYTE PTR [eax+21]
  00178	84 d2		 test	 dl, dl
  0017a	74 75		 je	 SHORT $LN75@LoadInt_e@3
  0017c	32 d3		 xor	 dl, bl
  0017e	88 55 f5	 mov	 BYTE PTR __k$[ebp+21], dl
  00181	8a 50 16	 mov	 dl, BYTE PTR [eax+22]
  00184	84 d2		 test	 dl, dl
  00186	74 64		 je	 SHORT $LN74@LoadInt_e@3
  00188	32 d1		 xor	 dl, cl
  0018a	80 78 17 00	 cmp	 BYTE PTR [eax+23], 0
  0018e	88 55 f6	 mov	 BYTE PTR __k$[ebp+22], dl
  00191	0f 84 d3 00 00
	00		 je	 $LN1@LoadInt_e@3
  00197	8a 50 18	 mov	 dl, BYTE PTR [eax+24]
  0019a	84 d2		 test	 dl, dl
  0019c	74 48		 je	 SHORT $LN72@LoadInt_e@3
  0019e	80 f2 ed	 xor	 dl, -19			; ffffffedH
  001a1	88 55 f8	 mov	 BYTE PTR __k$[ebp+24], dl
  001a4	8a 50 19	 mov	 dl, BYTE PTR [eax+25]
  001a7	84 d2		 test	 dl, dl
  001a9	74 33		 je	 SHORT $LN71@LoadInt_e@3
  001ab	32 d3		 xor	 dl, bl
  001ad	88 55 f9	 mov	 BYTE PTR __k$[ebp+25], dl
  001b0	8a 50 1a	 mov	 dl, BYTE PTR [eax+26]
  001b3	84 d2		 test	 dl, dl
  001b5	74 1f		 je	 SHORT $LN70@LoadInt_e@3
  001b7	8a 40 1b	 mov	 al, BYTE PTR [eax+27]
  001ba	32 d1		 xor	 dl, cl
  001bc	88 55 fa	 mov	 BYTE PTR __k$[ebp+26], dl
  001bf	84 c0		 test	 al, al
  001c1	74 0a		 je	 SHORT $LN69@LoadInt_e@3
  001c3	34 ea		 xor	 al, -22			; ffffffeaH
  001c5	88 45 fb	 mov	 BYTE PTR __k$[ebp+27], al
  001c8	e9 9d 00 00 00	 jmp	 $LN1@LoadInt_e@3
$LN69@LoadInt_e@3:
  001cd	c6 45 fb ea	 mov	 BYTE PTR __k$[ebp+27], -22 ; ffffffeaH
  001d1	e9 94 00 00 00	 jmp	 $LN1@LoadInt_e@3
$LN70@LoadInt_e@3:
  001d6	88 4d fa	 mov	 BYTE PTR __k$[ebp+26], cl
  001d9	e9 8c 00 00 00	 jmp	 $LN1@LoadInt_e@3
$LN71@LoadInt_e@3:
  001de	88 5d f9	 mov	 BYTE PTR __k$[ebp+25], bl
  001e1	e9 84 00 00 00	 jmp	 $LN1@LoadInt_e@3
$LN72@LoadInt_e@3:
  001e6	c6 45 f8 ed	 mov	 BYTE PTR __k$[ebp+24], -19 ; ffffffedH
  001ea	eb 7e		 jmp	 SHORT $LN1@LoadInt_e@3
$LN74@LoadInt_e@3:
  001ec	88 4d f6	 mov	 BYTE PTR __k$[ebp+22], cl
  001ef	eb 79		 jmp	 SHORT $LN1@LoadInt_e@3
$LN75@LoadInt_e@3:
  001f1	88 5d f5	 mov	 BYTE PTR __k$[ebp+21], bl
  001f4	eb 74		 jmp	 SHORT $LN1@LoadInt_e@3
$LN76@LoadInt_e@3:
  001f6	c6 45 f4 ed	 mov	 BYTE PTR __k$[ebp+20], -19 ; ffffffedH
  001fa	eb 6e		 jmp	 SHORT $LN1@LoadInt_e@3
$LN77@LoadInt_e@3:
  001fc	c6 45 f3 ea	 mov	 BYTE PTR __k$[ebp+19], -22 ; ffffffeaH
  00200	eb 68		 jmp	 SHORT $LN1@LoadInt_e@3
$LN78@LoadInt_e@3:
  00202	88 4d f2	 mov	 BYTE PTR __k$[ebp+18], cl
  00205	eb 63		 jmp	 SHORT $LN1@LoadInt_e@3
$LN79@LoadInt_e@3:
  00207	88 5d f1	 mov	 BYTE PTR __k$[ebp+17], bl
  0020a	eb 5e		 jmp	 SHORT $LN1@LoadInt_e@3
$LN80@LoadInt_e@3:
  0020c	c6 45 f0 ed	 mov	 BYTE PTR __k$[ebp+16], -19 ; ffffffedH
  00210	eb 58		 jmp	 SHORT $LN1@LoadInt_e@3
$LN81@LoadInt_e@3:
  00212	c6 45 ef ea	 mov	 BYTE PTR __k$[ebp+15], -22 ; ffffffeaH
  00216	eb 52		 jmp	 SHORT $LN1@LoadInt_e@3
$LN82@LoadInt_e@3:
  00218	88 4d ee	 mov	 BYTE PTR __k$[ebp+14], cl
  0021b	eb 4d		 jmp	 SHORT $LN1@LoadInt_e@3
$LN83@LoadInt_e@3:
  0021d	88 5d ed	 mov	 BYTE PTR __k$[ebp+13], bl
  00220	eb 48		 jmp	 SHORT $LN1@LoadInt_e@3
$LN84@LoadInt_e@3:
  00222	c6 45 ec ed	 mov	 BYTE PTR __k$[ebp+12], -19 ; ffffffedH
  00226	eb 42		 jmp	 SHORT $LN1@LoadInt_e@3
$LN85@LoadInt_e@3:
  00228	c6 45 eb ea	 mov	 BYTE PTR __k$[ebp+11], -22 ; ffffffeaH
  0022c	eb 3c		 jmp	 SHORT $LN1@LoadInt_e@3
$LN86@LoadInt_e@3:
  0022e	88 4d ea	 mov	 BYTE PTR __k$[ebp+10], cl
  00231	eb 37		 jmp	 SHORT $LN1@LoadInt_e@3
$LN87@LoadInt_e@3:
  00233	88 5d e9	 mov	 BYTE PTR __k$[ebp+9], bl
  00236	eb 32		 jmp	 SHORT $LN1@LoadInt_e@3
$LN88@LoadInt_e@3:
  00238	c6 45 e8 ed	 mov	 BYTE PTR __k$[ebp+8], -19 ; ffffffedH
  0023c	eb 2c		 jmp	 SHORT $LN1@LoadInt_e@3
$LN89@LoadInt_e@3:
  0023e	c6 45 e7 ea	 mov	 BYTE PTR __k$[ebp+7], -22 ; ffffffeaH
  00242	eb 26		 jmp	 SHORT $LN1@LoadInt_e@3
$LN90@LoadInt_e@3:
  00244	88 4d e6	 mov	 BYTE PTR __k$[ebp+6], cl
  00247	eb 21		 jmp	 SHORT $LN1@LoadInt_e@3
$LN91@LoadInt_e@3:
  00249	88 5d e5	 mov	 BYTE PTR __k$[ebp+5], bl
  0024c	eb 1c		 jmp	 SHORT $LN1@LoadInt_e@3
$LN92@LoadInt_e@3:
  0024e	c6 45 e4 ed	 mov	 BYTE PTR __k$[ebp+4], -19 ; ffffffedH
  00252	eb 16		 jmp	 SHORT $LN1@LoadInt_e@3
$LN93@LoadInt_e@3:
  00254	c6 45 e3 ea	 mov	 BYTE PTR __k$[ebp+3], -22 ; ffffffeaH
  00258	eb 10		 jmp	 SHORT $LN1@LoadInt_e@3
$LN94@LoadInt_e@3:
  0025a	c6 45 e2 eb	 mov	 BYTE PTR __k$[ebp+2], -21 ; ffffffebH
  0025e	eb 0a		 jmp	 SHORT $LN1@LoadInt_e@3
$LN95@LoadInt_e@3:
  00260	c6 45 e1 ec	 mov	 BYTE PTR __k$[ebp+1], -20 ; ffffffecH
  00264	eb 04		 jmp	 SHORT $LN1@LoadInt_e@3
$LN96@LoadInt_e@3:
  00266	c6 45 e0 ed	 mov	 BYTE PTR __k$[ebp], -19	; ffffffedH
$LN1@LoadInt_e@3:
  0026a	6a 05		 push	 5
  0026c	8d 45 e0	 lea	 eax, DWORD PTR __k$[ebp]
  0026f	c6 45 f7 00	 mov	 BYTE PTR __k$[ebp+23], 0
  00273	5a		 pop	 edx
$LL104@LoadInt_e@3:
  00274	81 30 ed ec eb
	ea		 xor	 DWORD PTR [eax], -353637139 ; eaebecedH
  0027a	83 c0 04	 add	 eax, 4
  0027d	4a		 dec	 edx
  0027e	75 f4		 jne	 SHORT $LL104@LoadInt_e@3
  00280	6a 14		 push	 20			; 00000014H
  00282	58		 pop	 eax
$LL101@LoadInt_e@3:
  00283	8b c8		 mov	 ecx, eax
  00285	81 e1 03 00 00
	80		 and	 ecx, -2147483645	; 80000003H
  0028b	79 05		 jns	 SHORT $LN111@LoadInt_e@3
  0028d	49		 dec	 ecx
  0028e	83 c9 fc	 or	 ecx, -4			; fffffffcH
  00291	41		 inc	 ecx
$LN111@LoadInt_e@3:
  00292	b2 ed		 mov	 dl, -19			; ffffffedH
  00294	2a d1		 sub	 dl, cl
  00296	30 54 05 e0	 xor	 BYTE PTR __k$[ebp+eax], dl
  0029a	40		 inc	 eax
  0029b	83 f8 17	 cmp	 eax, 23			; 00000017H
  0029e	7c e3		 jl	 SHORT $LL101@LoadInt_e@3

; 120  : 		return LoadInt(_k, i);

  002a0	ff 75 0c	 push	 DWORD PTR _i$[ebp]
  002a3	8d 45 e0	 lea	 eax, DWORD PTR __k$[ebp]
  002a6	50		 push	 eax
  002a7	8b ce		 mov	 ecx, esi
  002a9	ff 15 00 00 00
	00		 call	 DWORD PTR __imp_?LoadInt@ioINILoader@@QAEHPBDH@Z

; 121  : 	}

  002af	8b 4d fc	 mov	 ecx, DWORD PTR __$ArrayPad$[ebp]
  002b2	5e		 pop	 esi
  002b3	33 cd		 xor	 ecx, ebp
  002b5	5b		 pop	 ebx
  002b6	e8 00 00 00 00	 call	 @__security_check_cookie@4
  002bb	c9		 leave
  002bc	c2 08 00	 ret	 8
??$LoadInt_e@$0BI@@ioINILoader@@QAEHAAY0BI@$$CBDH@Z ENDP ; ioINILoader::LoadInt_e<24>
_TEXT	ENDS
PUBLIC	__$ArrayPad$
PUBLIC	??$LoadFloat_e@$0BN@@ioINILoader@@QAEMAAY0BN@$$CBDM@Z ; ioINILoader::LoadFloat_e<29>
; Function compile flags: /Ogsp
;	COMDAT ??$LoadFloat_e@$0BN@@ioINILoader@@QAEMAAY0BN@$$CBDM@Z
_TEXT	SEGMENT
__k$ = -40						; size = 29
__$ArrayPad$ = -4					; size = 4
_k$ = 8							; size = 4
_f$ = 12						; size = 4
??$LoadFloat_e@$0BN@@ioINILoader@@QAEMAAY0BN@$$CBDM@Z PROC ; ioINILoader::LoadFloat_e<29>, COMDAT
; _this$ = ecx

; 135  : 	{

  00000	55		 push	 ebp
  00001	8b ec		 mov	 ebp, esp
  00003	83 ec 28	 sub	 esp, 40			; 00000028H
  00006	a1 00 00 00 00	 mov	 eax, DWORD PTR ___security_cookie
  0000b	33 c5		 xor	 eax, ebp
  0000d	89 45 fc	 mov	 DWORD PTR __$ArrayPad$[ebp], eax
  00010	8b 45 08	 mov	 eax, DWORD PTR _k$[ebp]

; 136  : 		_ENCSTR(k, _k);

  00013	8a 10		 mov	 dl, BYTE PTR [eax]
  00015	53		 push	 ebx
  00016	56		 push	 esi
  00017	8b f1		 mov	 esi, ecx
  00019	84 d2		 test	 dl, dl
  0001b	0f 84 c3 02 00
	00		 je	 $LN96@LoadFloat_@5
  00021	80 f2 ed	 xor	 dl, -19			; ffffffedH
  00024	88 55 d8	 mov	 BYTE PTR __k$[ebp], dl
  00027	8a 50 01	 mov	 dl, BYTE PTR [eax+1]
  0002a	84 d2		 test	 dl, dl
  0002c	0f 84 ac 02 00
	00		 je	 $LN95@LoadFloat_@5
  00032	b1 ec		 mov	 cl, -20			; ffffffecH
  00034	32 d1		 xor	 dl, cl
  00036	88 55 d9	 mov	 BYTE PTR __k$[ebp+1], dl
  00039	8a 50 02	 mov	 dl, BYTE PTR [eax+2]
  0003c	84 d2		 test	 dl, dl
  0003e	0f 84 94 02 00
	00		 je	 $LN94@LoadFloat_@5
  00044	b3 eb		 mov	 bl, -21			; ffffffebH
  00046	32 d3		 xor	 dl, bl
  00048	88 55 da	 mov	 BYTE PTR __k$[ebp+2], dl
  0004b	8a 50 03	 mov	 dl, BYTE PTR [eax+3]
  0004e	84 d2		 test	 dl, dl
  00050	0f 84 7c 02 00
	00		 je	 $LN93@LoadFloat_@5
  00056	80 f2 ea	 xor	 dl, -22			; ffffffeaH
  00059	88 55 db	 mov	 BYTE PTR __k$[ebp+3], dl
  0005c	8a 50 04	 mov	 dl, BYTE PTR [eax+4]
  0005f	84 d2		 test	 dl, dl
  00061	0f 84 65 02 00
	00		 je	 $LN92@LoadFloat_@5
  00067	80 f2 ed	 xor	 dl, -19			; ffffffedH
  0006a	88 55 dc	 mov	 BYTE PTR __k$[ebp+4], dl
  0006d	8a 50 05	 mov	 dl, BYTE PTR [eax+5]
  00070	84 d2		 test	 dl, dl
  00072	0f 84 4f 02 00
	00		 je	 $LN91@LoadFloat_@5
  00078	32 d1		 xor	 dl, cl
  0007a	88 55 dd	 mov	 BYTE PTR __k$[ebp+5], dl
  0007d	8a 50 06	 mov	 dl, BYTE PTR [eax+6]
  00080	84 d2		 test	 dl, dl
  00082	0f 84 3a 02 00
	00		 je	 $LN90@LoadFloat_@5
  00088	32 d3		 xor	 dl, bl
  0008a	88 55 de	 mov	 BYTE PTR __k$[ebp+6], dl
  0008d	8a 50 07	 mov	 dl, BYTE PTR [eax+7]
  00090	84 d2		 test	 dl, dl
  00092	0f 84 24 02 00
	00		 je	 $LN89@LoadFloat_@5
  00098	80 f2 ea	 xor	 dl, -22			; ffffffeaH
  0009b	88 55 df	 mov	 BYTE PTR __k$[ebp+7], dl
  0009e	8a 50 08	 mov	 dl, BYTE PTR [eax+8]
  000a1	84 d2		 test	 dl, dl
  000a3	0f 84 0d 02 00
	00		 je	 $LN88@LoadFloat_@5
  000a9	80 f2 ed	 xor	 dl, -19			; ffffffedH
  000ac	88 55 e0	 mov	 BYTE PTR __k$[ebp+8], dl
  000af	8a 50 09	 mov	 dl, BYTE PTR [eax+9]
  000b2	84 d2		 test	 dl, dl
  000b4	0f 84 f7 01 00
	00		 je	 $LN87@LoadFloat_@5
  000ba	32 d1		 xor	 dl, cl
  000bc	88 55 e1	 mov	 BYTE PTR __k$[ebp+9], dl
  000bf	8a 50 0a	 mov	 dl, BYTE PTR [eax+10]
  000c2	84 d2		 test	 dl, dl
  000c4	0f 84 e2 01 00
	00		 je	 $LN86@LoadFloat_@5
  000ca	32 d3		 xor	 dl, bl
  000cc	88 55 e2	 mov	 BYTE PTR __k$[ebp+10], dl
  000cf	8a 50 0b	 mov	 dl, BYTE PTR [eax+11]
  000d2	84 d2		 test	 dl, dl
  000d4	0f 84 cc 01 00
	00		 je	 $LN85@LoadFloat_@5
  000da	80 f2 ea	 xor	 dl, -22			; ffffffeaH
  000dd	88 55 e3	 mov	 BYTE PTR __k$[ebp+11], dl
  000e0	8a 50 0c	 mov	 dl, BYTE PTR [eax+12]
  000e3	84 d2		 test	 dl, dl
  000e5	0f 84 b5 01 00
	00		 je	 $LN84@LoadFloat_@5
  000eb	80 f2 ed	 xor	 dl, -19			; ffffffedH
  000ee	88 55 e4	 mov	 BYTE PTR __k$[ebp+12], dl
  000f1	8a 50 0d	 mov	 dl, BYTE PTR [eax+13]
  000f4	84 d2		 test	 dl, dl
  000f6	0f 84 9f 01 00
	00		 je	 $LN83@LoadFloat_@5
  000fc	32 d1		 xor	 dl, cl
  000fe	88 55 e5	 mov	 BYTE PTR __k$[ebp+13], dl
  00101	8a 50 0e	 mov	 dl, BYTE PTR [eax+14]
  00104	84 d2		 test	 dl, dl
  00106	0f 84 8a 01 00
	00		 je	 $LN82@LoadFloat_@5
  0010c	32 d3		 xor	 dl, bl
  0010e	88 55 e6	 mov	 BYTE PTR __k$[ebp+14], dl
  00111	8a 50 0f	 mov	 dl, BYTE PTR [eax+15]
  00114	84 d2		 test	 dl, dl
  00116	0f 84 74 01 00
	00		 je	 $LN81@LoadFloat_@5
  0011c	80 f2 ea	 xor	 dl, -22			; ffffffeaH
  0011f	88 55 e7	 mov	 BYTE PTR __k$[ebp+15], dl
  00122	8a 50 10	 mov	 dl, BYTE PTR [eax+16]
  00125	84 d2		 test	 dl, dl
  00127	0f 84 5d 01 00
	00		 je	 $LN80@LoadFloat_@5
  0012d	80 f2 ed	 xor	 dl, -19			; ffffffedH
  00130	88 55 e8	 mov	 BYTE PTR __k$[ebp+16], dl
  00133	8a 50 11	 mov	 dl, BYTE PTR [eax+17]
  00136	84 d2		 test	 dl, dl
  00138	0f 84 47 01 00
	00		 je	 $LN79@LoadFloat_@5
  0013e	32 d1		 xor	 dl, cl
  00140	88 55 e9	 mov	 BYTE PTR __k$[ebp+17], dl
  00143	8a 50 12	 mov	 dl, BYTE PTR [eax+18]
  00146	84 d2		 test	 dl, dl
  00148	0f 84 32 01 00
	00		 je	 $LN78@LoadFloat_@5
  0014e	32 d3		 xor	 dl, bl
  00150	88 55 ea	 mov	 BYTE PTR __k$[ebp+18], dl
  00153	8a 50 13	 mov	 dl, BYTE PTR [eax+19]
  00156	84 d2		 test	 dl, dl
  00158	0f 84 1c 01 00
	00		 je	 $LN77@LoadFloat_@5
  0015e	80 f2 ea	 xor	 dl, -22			; ffffffeaH
  00161	88 55 eb	 mov	 BYTE PTR __k$[ebp+19], dl
  00164	8a 50 14	 mov	 dl, BYTE PTR [eax+20]
  00167	84 d2		 test	 dl, dl
  00169	0f 84 05 01 00
	00		 je	 $LN76@LoadFloat_@5
  0016f	80 f2 ed	 xor	 dl, -19			; ffffffedH
  00172	88 55 ec	 mov	 BYTE PTR __k$[ebp+20], dl
  00175	8a 50 15	 mov	 dl, BYTE PTR [eax+21]
  00178	84 d2		 test	 dl, dl
  0017a	0f 84 ef 00 00
	00		 je	 $LN75@LoadFloat_@5
  00180	32 d1		 xor	 dl, cl
  00182	88 55 ed	 mov	 BYTE PTR __k$[ebp+21], dl
  00185	8a 50 16	 mov	 dl, BYTE PTR [eax+22]
  00188	84 d2		 test	 dl, dl
  0018a	0f 84 da 00 00
	00		 je	 $LN74@LoadFloat_@5
  00190	32 d3		 xor	 dl, bl
  00192	88 55 ee	 mov	 BYTE PTR __k$[ebp+22], dl
  00195	8a 50 17	 mov	 dl, BYTE PTR [eax+23]
  00198	84 d2		 test	 dl, dl
  0019a	0f 84 c4 00 00
	00		 je	 $LN73@LoadFloat_@5
  001a0	80 f2 ea	 xor	 dl, -22			; ffffffeaH
  001a3	88 55 ef	 mov	 BYTE PTR __k$[ebp+23], dl
  001a6	8a 50 18	 mov	 dl, BYTE PTR [eax+24]
  001a9	84 d2		 test	 dl, dl
  001ab	0f 84 aa 00 00
	00		 je	 $LN72@LoadFloat_@5
  001b1	80 f2 ed	 xor	 dl, -19			; ffffffedH
  001b4	88 55 f0	 mov	 BYTE PTR __k$[ebp+24], dl
  001b7	8a 50 19	 mov	 dl, BYTE PTR [eax+25]
  001ba	84 d2		 test	 dl, dl
  001bc	0f 84 91 00 00
	00		 je	 $LN71@LoadFloat_@5
  001c2	32 d1		 xor	 dl, cl
  001c4	88 55 f1	 mov	 BYTE PTR __k$[ebp+25], dl
  001c7	8a 50 1a	 mov	 dl, BYTE PTR [eax+26]
  001ca	84 d2		 test	 dl, dl
  001cc	74 7d		 je	 SHORT $LN70@LoadFloat_@5
  001ce	32 d3		 xor	 dl, bl
  001d0	88 55 f2	 mov	 BYTE PTR __k$[ebp+26], dl
  001d3	8a 50 1b	 mov	 dl, BYTE PTR [eax+27]
  001d6	84 d2		 test	 dl, dl
  001d8	74 68		 je	 SHORT $LN69@LoadFloat_@5
  001da	80 f2 ea	 xor	 dl, -22			; ffffffeaH
  001dd	80 78 1c 00	 cmp	 BYTE PTR [eax+28], 0
  001e1	88 55 f3	 mov	 BYTE PTR __k$[ebp+27], dl
  001e4	0f 84 fe 00 00
	00		 je	 $LN1@LoadFloat_@5
  001ea	8a 50 1d	 mov	 dl, BYTE PTR [eax+29]
  001ed	84 d2		 test	 dl, dl
  001ef	74 49		 je	 SHORT $LN67@LoadFloat_@5
  001f1	32 d1		 xor	 dl, cl
  001f3	88 55 f5	 mov	 BYTE PTR __k$[ebp+29], dl
  001f6	8a 50 1e	 mov	 dl, BYTE PTR [eax+30]
  001f9	84 d2		 test	 dl, dl
  001fb	74 35		 je	 SHORT $LN66@LoadFloat_@5
  001fd	32 d3		 xor	 dl, bl
  001ff	88 55 f6	 mov	 BYTE PTR __k$[ebp+30], dl
  00202	8a 50 1f	 mov	 dl, BYTE PTR [eax+31]
  00205	84 d2		 test	 dl, dl
  00207	74 20		 je	 SHORT $LN65@LoadFloat_@5
  00209	8a 40 20	 mov	 al, BYTE PTR [eax+32]
  0020c	80 f2 ea	 xor	 dl, -22			; ffffffeaH
  0020f	88 55 f7	 mov	 BYTE PTR __k$[ebp+31], dl
  00212	84 c0		 test	 al, al
  00214	74 0a		 je	 SHORT $LN64@LoadFloat_@5
  00216	34 ed		 xor	 al, -19			; ffffffedH
  00218	88 45 f8	 mov	 BYTE PTR __k$[ebp+32], al
  0021b	e9 c8 00 00 00	 jmp	 $LN1@LoadFloat_@5
$LN64@LoadFloat_@5:
  00220	c6 45 f8 ed	 mov	 BYTE PTR __k$[ebp+32], -19 ; ffffffedH
  00224	e9 bf 00 00 00	 jmp	 $LN1@LoadFloat_@5
$LN65@LoadFloat_@5:
  00229	c6 45 f7 ea	 mov	 BYTE PTR __k$[ebp+31], -22 ; ffffffeaH
  0022d	e9 b6 00 00 00	 jmp	 $LN1@LoadFloat_@5
$LN66@LoadFloat_@5:
  00232	88 5d f6	 mov	 BYTE PTR __k$[ebp+30], bl
  00235	e9 ae 00 00 00	 jmp	 $LN1@LoadFloat_@5
$LN67@LoadFloat_@5:
  0023a	88 4d f5	 mov	 BYTE PTR __k$[ebp+29], cl
  0023d	e9 a6 00 00 00	 jmp	 $LN1@LoadFloat_@5
$LN69@LoadFloat_@5:
  00242	c6 45 f3 ea	 mov	 BYTE PTR __k$[ebp+27], -22 ; ffffffeaH
  00246	e9 9d 00 00 00	 jmp	 $LN1@LoadFloat_@5
$LN70@LoadFloat_@5:
  0024b	88 5d f2	 mov	 BYTE PTR __k$[ebp+26], bl
  0024e	e9 95 00 00 00	 jmp	 $LN1@LoadFloat_@5
$LN71@LoadFloat_@5:
  00253	88 4d f1	 mov	 BYTE PTR __k$[ebp+25], cl
  00256	e9 8d 00 00 00	 jmp	 $LN1@LoadFloat_@5
$LN72@LoadFloat_@5:
  0025b	c6 45 f0 ed	 mov	 BYTE PTR __k$[ebp+24], -19 ; ffffffedH
  0025f	e9 84 00 00 00	 jmp	 $LN1@LoadFloat_@5
$LN73@LoadFloat_@5:
  00264	c6 45 ef ea	 mov	 BYTE PTR __k$[ebp+23], -22 ; ffffffeaH
  00268	eb 7e		 jmp	 SHORT $LN1@LoadFloat_@5
$LN74@LoadFloat_@5:
  0026a	88 5d ee	 mov	 BYTE PTR __k$[ebp+22], bl
  0026d	eb 79		 jmp	 SHORT $LN1@LoadFloat_@5
$LN75@LoadFloat_@5:
  0026f	88 4d ed	 mov	 BYTE PTR __k$[ebp+21], cl
  00272	eb 74		 jmp	 SHORT $LN1@LoadFloat_@5
$LN76@LoadFloat_@5:
  00274	c6 45 ec ed	 mov	 BYTE PTR __k$[ebp+20], -19 ; ffffffedH
  00278	eb 6e		 jmp	 SHORT $LN1@LoadFloat_@5
$LN77@LoadFloat_@5:
  0027a	c6 45 eb ea	 mov	 BYTE PTR __k$[ebp+19], -22 ; ffffffeaH
  0027e	eb 68		 jmp	 SHORT $LN1@LoadFloat_@5
$LN78@LoadFloat_@5:
  00280	88 5d ea	 mov	 BYTE PTR __k$[ebp+18], bl
  00283	eb 63		 jmp	 SHORT $LN1@LoadFloat_@5
$LN79@LoadFloat_@5:
  00285	88 4d e9	 mov	 BYTE PTR __k$[ebp+17], cl
  00288	eb 5e		 jmp	 SHORT $LN1@LoadFloat_@5
$LN80@LoadFloat_@5:
  0028a	c6 45 e8 ed	 mov	 BYTE PTR __k$[ebp+16], -19 ; ffffffedH
  0028e	eb 58		 jmp	 SHORT $LN1@LoadFloat_@5
$LN81@LoadFloat_@5:
  00290	c6 45 e7 ea	 mov	 BYTE PTR __k$[ebp+15], -22 ; ffffffeaH
  00294	eb 52		 jmp	 SHORT $LN1@LoadFloat_@5
$LN82@LoadFloat_@5:
  00296	88 5d e6	 mov	 BYTE PTR __k$[ebp+14], bl
  00299	eb 4d		 jmp	 SHORT $LN1@LoadFloat_@5
$LN83@LoadFloat_@5:
  0029b	88 4d e5	 mov	 BYTE PTR __k$[ebp+13], cl
  0029e	eb 48		 jmp	 SHORT $LN1@LoadFloat_@5
$LN84@LoadFloat_@5:
  002a0	c6 45 e4 ed	 mov	 BYTE PTR __k$[ebp+12], -19 ; ffffffedH
  002a4	eb 42		 jmp	 SHORT $LN1@LoadFloat_@5
$LN85@LoadFloat_@5:
  002a6	c6 45 e3 ea	 mov	 BYTE PTR __k$[ebp+11], -22 ; ffffffeaH
  002aa	eb 3c		 jmp	 SHORT $LN1@LoadFloat_@5
$LN86@LoadFloat_@5:
  002ac	88 5d e2	 mov	 BYTE PTR __k$[ebp+10], bl
  002af	eb 37		 jmp	 SHORT $LN1@LoadFloat_@5
$LN87@LoadFloat_@5:
  002b1	88 4d e1	 mov	 BYTE PTR __k$[ebp+9], cl
  002b4	eb 32		 jmp	 SHORT $LN1@LoadFloat_@5
$LN88@LoadFloat_@5:
  002b6	c6 45 e0 ed	 mov	 BYTE PTR __k$[ebp+8], -19 ; ffffffedH
  002ba	eb 2c		 jmp	 SHORT $LN1@LoadFloat_@5
$LN89@LoadFloat_@5:
  002bc	c6 45 df ea	 mov	 BYTE PTR __k$[ebp+7], -22 ; ffffffeaH
  002c0	eb 26		 jmp	 SHORT $LN1@LoadFloat_@5
$LN90@LoadFloat_@5:
  002c2	88 5d de	 mov	 BYTE PTR __k$[ebp+6], bl
  002c5	eb 21		 jmp	 SHORT $LN1@LoadFloat_@5
$LN91@LoadFloat_@5:
  002c7	88 4d dd	 mov	 BYTE PTR __k$[ebp+5], cl
  002ca	eb 1c		 jmp	 SHORT $LN1@LoadFloat_@5
$LN92@LoadFloat_@5:
  002cc	c6 45 dc ed	 mov	 BYTE PTR __k$[ebp+4], -19 ; ffffffedH
  002d0	eb 16		 jmp	 SHORT $LN1@LoadFloat_@5
$LN93@LoadFloat_@5:
  002d2	c6 45 db ea	 mov	 BYTE PTR __k$[ebp+3], -22 ; ffffffeaH
  002d6	eb 10		 jmp	 SHORT $LN1@LoadFloat_@5
$LN94@LoadFloat_@5:
  002d8	c6 45 da eb	 mov	 BYTE PTR __k$[ebp+2], -21 ; ffffffebH
  002dc	eb 0a		 jmp	 SHORT $LN1@LoadFloat_@5
$LN95@LoadFloat_@5:
  002de	c6 45 d9 ec	 mov	 BYTE PTR __k$[ebp+1], -20 ; ffffffecH
  002e2	eb 04		 jmp	 SHORT $LN1@LoadFloat_@5
$LN96@LoadFloat_@5:
  002e4	c6 45 d8 ed	 mov	 BYTE PTR __k$[ebp], -19	; ffffffedH
$LN1@LoadFloat_@5:
  002e8	6a 07		 push	 7
  002ea	8d 45 d8	 lea	 eax, DWORD PTR __k$[ebp]
  002ed	c6 45 f4 00	 mov	 BYTE PTR __k$[ebp+28], 0
  002f1	5a		 pop	 edx
$LL104@LoadFloat_@5:
  002f2	81 30 ed ec eb
	ea		 xor	 DWORD PTR [eax], -353637139 ; eaebecedH
  002f8	83 c0 04	 add	 eax, 4
  002fb	4a		 dec	 edx
  002fc	75 f4		 jne	 SHORT $LL104@LoadFloat_@5

; 137  : 		return LoadFloat(_k, f);

  002fe	f3 0f 10 45 0c	 movss	 xmm0, DWORD PTR _f$[ebp]
  00303	51		 push	 ecx
  00304	8d 45 d8	 lea	 eax, DWORD PTR __k$[ebp]
  00307	f3 0f 11 04 24	 movss	 DWORD PTR [esp], xmm0
  0030c	50		 push	 eax
  0030d	8b ce		 mov	 ecx, esi
  0030f	ff 15 00 00 00
	00		 call	 DWORD PTR __imp_?LoadFloat@ioINILoader@@QAEMPBDM@Z

; 138  : 	}

  00315	8b 4d fc	 mov	 ecx, DWORD PTR __$ArrayPad$[ebp]
  00318	5e		 pop	 esi
  00319	33 cd		 xor	 ecx, ebp
  0031b	5b		 pop	 ebx
  0031c	e8 00 00 00 00	 call	 @__security_check_cookie@4
  00321	c9		 leave
  00322	c2 08 00	 ret	 8
??$LoadFloat_e@$0BN@@ioINILoader@@QAEMAAY0BN@$$CBDM@Z ENDP ; ioINILoader::LoadFloat_e<29>
_TEXT	ENDS
PUBLIC	__$ArrayPad$
PUBLIC	??$LoadFloat_e@$0BM@@ioINILoader@@QAEMAAY0BM@$$CBDM@Z ; ioINILoader::LoadFloat_e<28>
; Function compile flags: /Ogsp
;	COMDAT ??$LoadFloat_e@$0BM@@ioINILoader@@QAEMAAY0BM@$$CBDM@Z
_TEXT	SEGMENT
__k$ = -36						; size = 28
__$ArrayPad$ = -4					; size = 4
_k$ = 8							; size = 4
_f$ = 12						; size = 4
??$LoadFloat_e@$0BM@@ioINILoader@@QAEMAAY0BM@$$CBDM@Z PROC ; ioINILoader::LoadFloat_e<28>, COMDAT
; _this$ = ecx

; 135  : 	{

  00000	55		 push	 ebp
  00001	8b ec		 mov	 ebp, esp
  00003	83 ec 24	 sub	 esp, 36			; 00000024H
  00006	a1 00 00 00 00	 mov	 eax, DWORD PTR ___security_cookie
  0000b	33 c5		 xor	 eax, ebp
  0000d	89 45 fc	 mov	 DWORD PTR __$ArrayPad$[ebp], eax
  00010	8b 45 08	 mov	 eax, DWORD PTR _k$[ebp]

; 136  : 		_ENCSTR(k, _k);

  00013	8a 10		 mov	 dl, BYTE PTR [eax]
  00015	53		 push	 ebx
  00016	56		 push	 esi
  00017	8b f1		 mov	 esi, ecx
  00019	84 d2		 test	 dl, dl
  0001b	0f 84 a9 02 00
	00		 je	 $LN96@LoadFloat_@6
  00021	80 f2 ed	 xor	 dl, -19			; ffffffedH
  00024	88 55 dc	 mov	 BYTE PTR __k$[ebp], dl
  00027	8a 50 01	 mov	 dl, BYTE PTR [eax+1]
  0002a	84 d2		 test	 dl, dl
  0002c	0f 84 92 02 00
	00		 je	 $LN95@LoadFloat_@6
  00032	b3 ec		 mov	 bl, -20			; ffffffecH
  00034	32 d3		 xor	 dl, bl
  00036	88 55 dd	 mov	 BYTE PTR __k$[ebp+1], dl
  00039	8a 50 02	 mov	 dl, BYTE PTR [eax+2]
  0003c	84 d2		 test	 dl, dl
  0003e	0f 84 7a 02 00
	00		 je	 $LN94@LoadFloat_@6
  00044	b1 eb		 mov	 cl, -21			; ffffffebH
  00046	32 d1		 xor	 dl, cl
  00048	88 55 de	 mov	 BYTE PTR __k$[ebp+2], dl
  0004b	8a 50 03	 mov	 dl, BYTE PTR [eax+3]
  0004e	84 d2		 test	 dl, dl
  00050	0f 84 62 02 00
	00		 je	 $LN93@LoadFloat_@6
  00056	80 f2 ea	 xor	 dl, -22			; ffffffeaH
  00059	88 55 df	 mov	 BYTE PTR __k$[ebp+3], dl
  0005c	8a 50 04	 mov	 dl, BYTE PTR [eax+4]
  0005f	84 d2		 test	 dl, dl
  00061	0f 84 4b 02 00
	00		 je	 $LN92@LoadFloat_@6
  00067	80 f2 ed	 xor	 dl, -19			; ffffffedH
  0006a	88 55 e0	 mov	 BYTE PTR __k$[ebp+4], dl
  0006d	8a 50 05	 mov	 dl, BYTE PTR [eax+5]
  00070	84 d2		 test	 dl, dl
  00072	0f 84 35 02 00
	00		 je	 $LN91@LoadFloat_@6
  00078	32 d3		 xor	 dl, bl
  0007a	88 55 e1	 mov	 BYTE PTR __k$[ebp+5], dl
  0007d	8a 50 06	 mov	 dl, BYTE PTR [eax+6]
  00080	84 d2		 test	 dl, dl
  00082	0f 84 20 02 00
	00		 je	 $LN90@LoadFloat_@6
  00088	32 d1		 xor	 dl, cl
  0008a	88 55 e2	 mov	 BYTE PTR __k$[ebp+6], dl
  0008d	8a 50 07	 mov	 dl, BYTE PTR [eax+7]
  00090	84 d2		 test	 dl, dl
  00092	0f 84 0a 02 00
	00		 je	 $LN89@LoadFloat_@6
  00098	80 f2 ea	 xor	 dl, -22			; ffffffeaH
  0009b	88 55 e3	 mov	 BYTE PTR __k$[ebp+7], dl
  0009e	8a 50 08	 mov	 dl, BYTE PTR [eax+8]
  000a1	84 d2		 test	 dl, dl
  000a3	0f 84 f3 01 00
	00		 je	 $LN88@LoadFloat_@6
  000a9	80 f2 ed	 xor	 dl, -19			; ffffffedH
  000ac	88 55 e4	 mov	 BYTE PTR __k$[ebp+8], dl
  000af	8a 50 09	 mov	 dl, BYTE PTR [eax+9]
  000b2	84 d2		 test	 dl, dl
  000b4	0f 84 dd 01 00
	00		 je	 $LN87@LoadFloat_@6
  000ba	32 d3		 xor	 dl, bl
  000bc	88 55 e5	 mov	 BYTE PTR __k$[ebp+9], dl
  000bf	8a 50 0a	 mov	 dl, BYTE PTR [eax+10]
  000c2	84 d2		 test	 dl, dl
  000c4	0f 84 c8 01 00
	00		 je	 $LN86@LoadFloat_@6
  000ca	32 d1		 xor	 dl, cl
  000cc	88 55 e6	 mov	 BYTE PTR __k$[ebp+10], dl
  000cf	8a 50 0b	 mov	 dl, BYTE PTR [eax+11]
  000d2	84 d2		 test	 dl, dl
  000d4	0f 84 b2 01 00
	00		 je	 $LN85@LoadFloat_@6
  000da	80 f2 ea	 xor	 dl, -22			; ffffffeaH
  000dd	88 55 e7	 mov	 BYTE PTR __k$[ebp+11], dl
  000e0	8a 50 0c	 mov	 dl, BYTE PTR [eax+12]
  000e3	84 d2		 test	 dl, dl
  000e5	0f 84 9b 01 00
	00		 je	 $LN84@LoadFloat_@6
  000eb	80 f2 ed	 xor	 dl, -19			; ffffffedH
  000ee	88 55 e8	 mov	 BYTE PTR __k$[ebp+12], dl
  000f1	8a 50 0d	 mov	 dl, BYTE PTR [eax+13]
  000f4	84 d2		 test	 dl, dl
  000f6	0f 84 85 01 00
	00		 je	 $LN83@LoadFloat_@6
  000fc	32 d3		 xor	 dl, bl
  000fe	88 55 e9	 mov	 BYTE PTR __k$[ebp+13], dl
  00101	8a 50 0e	 mov	 dl, BYTE PTR [eax+14]
  00104	84 d2		 test	 dl, dl
  00106	0f 84 70 01 00
	00		 je	 $LN82@LoadFloat_@6
  0010c	32 d1		 xor	 dl, cl
  0010e	88 55 ea	 mov	 BYTE PTR __k$[ebp+14], dl
  00111	8a 50 0f	 mov	 dl, BYTE PTR [eax+15]
  00114	84 d2		 test	 dl, dl
  00116	0f 84 5a 01 00
	00		 je	 $LN81@LoadFloat_@6
  0011c	80 f2 ea	 xor	 dl, -22			; ffffffeaH
  0011f	88 55 eb	 mov	 BYTE PTR __k$[ebp+15], dl
  00122	8a 50 10	 mov	 dl, BYTE PTR [eax+16]
  00125	84 d2		 test	 dl, dl
  00127	0f 84 43 01 00
	00		 je	 $LN80@LoadFloat_@6
  0012d	80 f2 ed	 xor	 dl, -19			; ffffffedH
  00130	88 55 ec	 mov	 BYTE PTR __k$[ebp+16], dl
  00133	8a 50 11	 mov	 dl, BYTE PTR [eax+17]
  00136	84 d2		 test	 dl, dl
  00138	0f 84 2d 01 00
	00		 je	 $LN79@LoadFloat_@6
  0013e	32 d3		 xor	 dl, bl
  00140	88 55 ed	 mov	 BYTE PTR __k$[ebp+17], dl
  00143	8a 50 12	 mov	 dl, BYTE PTR [eax+18]
  00146	84 d2		 test	 dl, dl
  00148	0f 84 18 01 00
	00		 je	 $LN78@LoadFloat_@6
  0014e	32 d1		 xor	 dl, cl
  00150	88 55 ee	 mov	 BYTE PTR __k$[ebp+18], dl
  00153	8a 50 13	 mov	 dl, BYTE PTR [eax+19]
  00156	84 d2		 test	 dl, dl
  00158	0f 84 02 01 00
	00		 je	 $LN77@LoadFloat_@6
  0015e	80 f2 ea	 xor	 dl, -22			; ffffffeaH
  00161	88 55 ef	 mov	 BYTE PTR __k$[ebp+19], dl
  00164	8a 50 14	 mov	 dl, BYTE PTR [eax+20]
  00167	84 d2		 test	 dl, dl
  00169	0f 84 eb 00 00
	00		 je	 $LN76@LoadFloat_@6
  0016f	80 f2 ed	 xor	 dl, -19			; ffffffedH
  00172	88 55 f0	 mov	 BYTE PTR __k$[ebp+20], dl
  00175	8a 50 15	 mov	 dl, BYTE PTR [eax+21]
  00178	84 d2		 test	 dl, dl
  0017a	0f 84 d5 00 00
	00		 je	 $LN75@LoadFloat_@6
  00180	32 d3		 xor	 dl, bl
  00182	88 55 f1	 mov	 BYTE PTR __k$[ebp+21], dl
  00185	8a 50 16	 mov	 dl, BYTE PTR [eax+22]
  00188	84 d2		 test	 dl, dl
  0018a	0f 84 c0 00 00
	00		 je	 $LN74@LoadFloat_@6
  00190	32 d1		 xor	 dl, cl
  00192	88 55 f2	 mov	 BYTE PTR __k$[ebp+22], dl
  00195	8a 50 17	 mov	 dl, BYTE PTR [eax+23]
  00198	84 d2		 test	 dl, dl
  0019a	0f 84 aa 00 00
	00		 je	 $LN73@LoadFloat_@6
  001a0	80 f2 ea	 xor	 dl, -22			; ffffffeaH
  001a3	88 55 f3	 mov	 BYTE PTR __k$[ebp+23], dl
  001a6	8a 50 18	 mov	 dl, BYTE PTR [eax+24]
  001a9	84 d2		 test	 dl, dl
  001ab	0f 84 90 00 00
	00		 je	 $LN72@LoadFloat_@6
  001b1	80 f2 ed	 xor	 dl, -19			; ffffffedH
  001b4	88 55 f4	 mov	 BYTE PTR __k$[ebp+24], dl
  001b7	8a 50 19	 mov	 dl, BYTE PTR [eax+25]
  001ba	84 d2		 test	 dl, dl
  001bc	74 7b		 je	 SHORT $LN71@LoadFloat_@6
  001be	32 d3		 xor	 dl, bl
  001c0	88 55 f5	 mov	 BYTE PTR __k$[ebp+25], dl
  001c3	8a 50 1a	 mov	 dl, BYTE PTR [eax+26]
  001c6	84 d2		 test	 dl, dl
  001c8	74 67		 je	 SHORT $LN70@LoadFloat_@6
  001ca	32 d1		 xor	 dl, cl
  001cc	80 78 1b 00	 cmp	 BYTE PTR [eax+27], 0
  001d0	88 55 f6	 mov	 BYTE PTR __k$[ebp+26], dl
  001d3	0f 84 f5 00 00
	00		 je	 $LN1@LoadFloat_@6
  001d9	8a 50 1c	 mov	 dl, BYTE PTR [eax+28]
  001dc	84 d2		 test	 dl, dl
  001de	74 48		 je	 SHORT $LN68@LoadFloat_@6
  001e0	80 f2 ed	 xor	 dl, -19			; ffffffedH
  001e3	88 55 f8	 mov	 BYTE PTR __k$[ebp+28], dl
  001e6	8a 50 1d	 mov	 dl, BYTE PTR [eax+29]
  001e9	84 d2		 test	 dl, dl
  001eb	74 33		 je	 SHORT $LN67@LoadFloat_@6
  001ed	32 d3		 xor	 dl, bl
  001ef	88 55 f9	 mov	 BYTE PTR __k$[ebp+29], dl
  001f2	8a 50 1e	 mov	 dl, BYTE PTR [eax+30]
  001f5	84 d2		 test	 dl, dl
  001f7	74 1f		 je	 SHORT $LN66@LoadFloat_@6
  001f9	8a 40 1f	 mov	 al, BYTE PTR [eax+31]
  001fc	32 d1		 xor	 dl, cl
  001fe	88 55 fa	 mov	 BYTE PTR __k$[ebp+30], dl
  00201	84 c0		 test	 al, al
  00203	74 0a		 je	 SHORT $LN65@LoadFloat_@6
  00205	34 ea		 xor	 al, -22			; ffffffeaH
  00207	88 45 fb	 mov	 BYTE PTR __k$[ebp+31], al
  0020a	e9 bf 00 00 00	 jmp	 $LN1@LoadFloat_@6
$LN65@LoadFloat_@6:
  0020f	c6 45 fb ea	 mov	 BYTE PTR __k$[ebp+31], -22 ; ffffffeaH
  00213	e9 b6 00 00 00	 jmp	 $LN1@LoadFloat_@6
$LN66@LoadFloat_@6:
  00218	88 4d fa	 mov	 BYTE PTR __k$[ebp+30], cl
  0021b	e9 ae 00 00 00	 jmp	 $LN1@LoadFloat_@6
$LN67@LoadFloat_@6:
  00220	88 5d f9	 mov	 BYTE PTR __k$[ebp+29], bl
  00223	e9 a6 00 00 00	 jmp	 $LN1@LoadFloat_@6
$LN68@LoadFloat_@6:
  00228	c6 45 f8 ed	 mov	 BYTE PTR __k$[ebp+28], -19 ; ffffffedH
  0022c	e9 9d 00 00 00	 jmp	 $LN1@LoadFloat_@6
$LN70@LoadFloat_@6:
  00231	88 4d f6	 mov	 BYTE PTR __k$[ebp+26], cl
  00234	e9 95 00 00 00	 jmp	 $LN1@LoadFloat_@6
$LN71@LoadFloat_@6:
  00239	88 5d f5	 mov	 BYTE PTR __k$[ebp+25], bl
  0023c	e9 8d 00 00 00	 jmp	 $LN1@LoadFloat_@6
$LN72@LoadFloat_@6:
  00241	c6 45 f4 ed	 mov	 BYTE PTR __k$[ebp+24], -19 ; ffffffedH
  00245	e9 84 00 00 00	 jmp	 $LN1@LoadFloat_@6
$LN73@LoadFloat_@6:
  0024a	c6 45 f3 ea	 mov	 BYTE PTR __k$[ebp+23], -22 ; ffffffeaH
  0024e	eb 7e		 jmp	 SHORT $LN1@LoadFloat_@6
$LN74@LoadFloat_@6:
  00250	88 4d f2	 mov	 BYTE PTR __k$[ebp+22], cl
  00253	eb 79		 jmp	 SHORT $LN1@LoadFloat_@6
$LN75@LoadFloat_@6:
  00255	88 5d f1	 mov	 BYTE PTR __k$[ebp+21], bl
  00258	eb 74		 jmp	 SHORT $LN1@LoadFloat_@6
$LN76@LoadFloat_@6:
  0025a	c6 45 f0 ed	 mov	 BYTE PTR __k$[ebp+20], -19 ; ffffffedH
  0025e	eb 6e		 jmp	 SHORT $LN1@LoadFloat_@6
$LN77@LoadFloat_@6:
  00260	c6 45 ef ea	 mov	 BYTE PTR __k$[ebp+19], -22 ; ffffffeaH
  00264	eb 68		 jmp	 SHORT $LN1@LoadFloat_@6
$LN78@LoadFloat_@6:
  00266	88 4d ee	 mov	 BYTE PTR __k$[ebp+18], cl
  00269	eb 63		 jmp	 SHORT $LN1@LoadFloat_@6
$LN79@LoadFloat_@6:
  0026b	88 5d ed	 mov	 BYTE PTR __k$[ebp+17], bl
  0026e	eb 5e		 jmp	 SHORT $LN1@LoadFloat_@6
$LN80@LoadFloat_@6:
  00270	c6 45 ec ed	 mov	 BYTE PTR __k$[ebp+16], -19 ; ffffffedH
  00274	eb 58		 jmp	 SHORT $LN1@LoadFloat_@6
$LN81@LoadFloat_@6:
  00276	c6 45 eb ea	 mov	 BYTE PTR __k$[ebp+15], -22 ; ffffffeaH
  0027a	eb 52		 jmp	 SHORT $LN1@LoadFloat_@6
$LN82@LoadFloat_@6:
  0027c	88 4d ea	 mov	 BYTE PTR __k$[ebp+14], cl
  0027f	eb 4d		 jmp	 SHORT $LN1@LoadFloat_@6
$LN83@LoadFloat_@6:
  00281	88 5d e9	 mov	 BYTE PTR __k$[ebp+13], bl
  00284	eb 48		 jmp	 SHORT $LN1@LoadFloat_@6
$LN84@LoadFloat_@6:
  00286	c6 45 e8 ed	 mov	 BYTE PTR __k$[ebp+12], -19 ; ffffffedH
  0028a	eb 42		 jmp	 SHORT $LN1@LoadFloat_@6
$LN85@LoadFloat_@6:
  0028c	c6 45 e7 ea	 mov	 BYTE PTR __k$[ebp+11], -22 ; ffffffeaH
  00290	eb 3c		 jmp	 SHORT $LN1@LoadFloat_@6
$LN86@LoadFloat_@6:
  00292	88 4d e6	 mov	 BYTE PTR __k$[ebp+10], cl
  00295	eb 37		 jmp	 SHORT $LN1@LoadFloat_@6
$LN87@LoadFloat_@6:
  00297	88 5d e5	 mov	 BYTE PTR __k$[ebp+9], bl
  0029a	eb 32		 jmp	 SHORT $LN1@LoadFloat_@6
$LN88@LoadFloat_@6:
  0029c	c6 45 e4 ed	 mov	 BYTE PTR __k$[ebp+8], -19 ; ffffffedH
  002a0	eb 2c		 jmp	 SHORT $LN1@LoadFloat_@6
$LN89@LoadFloat_@6:
  002a2	c6 45 e3 ea	 mov	 BYTE PTR __k$[ebp+7], -22 ; ffffffeaH
  002a6	eb 26		 jmp	 SHORT $LN1@LoadFloat_@6
$LN90@LoadFloat_@6:
  002a8	88 4d e2	 mov	 BYTE PTR __k$[ebp+6], cl
  002ab	eb 21		 jmp	 SHORT $LN1@LoadFloat_@6
$LN91@LoadFloat_@6:
  002ad	88 5d e1	 mov	 BYTE PTR __k$[ebp+5], bl
  002b0	eb 1c		 jmp	 SHORT $LN1@LoadFloat_@6
$LN92@LoadFloat_@6:
  002b2	c6 45 e0 ed	 mov	 BYTE PTR __k$[ebp+4], -19 ; ffffffedH
  002b6	eb 16		 jmp	 SHORT $LN1@LoadFloat_@6
$LN93@LoadFloat_@6:
  002b8	c6 45 df ea	 mov	 BYTE PTR __k$[ebp+3], -22 ; ffffffeaH
  002bc	eb 10		 jmp	 SHORT $LN1@LoadFloat_@6
$LN94@LoadFloat_@6:
  002be	c6 45 de eb	 mov	 BYTE PTR __k$[ebp+2], -21 ; ffffffebH
  002c2	eb 0a		 jmp	 SHORT $LN1@LoadFloat_@6
$LN95@LoadFloat_@6:
  002c4	c6 45 dd ec	 mov	 BYTE PTR __k$[ebp+1], -20 ; ffffffecH
  002c8	eb 04		 jmp	 SHORT $LN1@LoadFloat_@6
$LN96@LoadFloat_@6:
  002ca	c6 45 dc ed	 mov	 BYTE PTR __k$[ebp], -19	; ffffffedH
$LN1@LoadFloat_@6:
  002ce	6a 06		 push	 6
  002d0	8d 45 dc	 lea	 eax, DWORD PTR __k$[ebp]
  002d3	c6 45 f7 00	 mov	 BYTE PTR __k$[ebp+27], 0
  002d7	5a		 pop	 edx
$LL104@LoadFloat_@6:
  002d8	81 30 ed ec eb
	ea		 xor	 DWORD PTR [eax], -353637139 ; eaebecedH
  002de	83 c0 04	 add	 eax, 4
  002e1	4a		 dec	 edx
  002e2	75 f4		 jne	 SHORT $LL104@LoadFloat_@6
  002e4	6a 18		 push	 24			; 00000018H
  002e6	58		 pop	 eax
$LL101@LoadFloat_@6:
  002e7	8b c8		 mov	 ecx, eax
  002e9	81 e1 03 00 00
	80		 and	 ecx, -2147483645	; 80000003H
  002ef	79 05		 jns	 SHORT $LN111@LoadFloat_@6
  002f1	49		 dec	 ecx
  002f2	83 c9 fc	 or	 ecx, -4			; fffffffcH
  002f5	41		 inc	 ecx
$LN111@LoadFloat_@6:
  002f6	b2 ed		 mov	 dl, -19			; ffffffedH
  002f8	2a d1		 sub	 dl, cl
  002fa	30 54 05 dc	 xor	 BYTE PTR __k$[ebp+eax], dl
  002fe	40		 inc	 eax
  002ff	83 f8 1b	 cmp	 eax, 27			; 0000001bH
  00302	7c e3		 jl	 SHORT $LL101@LoadFloat_@6

; 137  : 		return LoadFloat(_k, f);

  00304	f3 0f 10 45 0c	 movss	 xmm0, DWORD PTR _f$[ebp]
  00309	51		 push	 ecx
  0030a	8d 45 dc	 lea	 eax, DWORD PTR __k$[ebp]
  0030d	f3 0f 11 04 24	 movss	 DWORD PTR [esp], xmm0
  00312	50		 push	 eax
  00313	8b ce		 mov	 ecx, esi
  00315	ff 15 00 00 00
	00		 call	 DWORD PTR __imp_?LoadFloat@ioINILoader@@QAEMPBDM@Z

; 138  : 	}

  0031b	8b 4d fc	 mov	 ecx, DWORD PTR __$ArrayPad$[ebp]
  0031e	5e		 pop	 esi
  0031f	33 cd		 xor	 ecx, ebp
  00321	5b		 pop	 ebx
  00322	e8 00 00 00 00	 call	 @__security_check_cookie@4
  00327	c9		 leave
  00328	c2 08 00	 ret	 8
??$LoadFloat_e@$0BM@@ioINILoader@@QAEMAAY0BM@$$CBDM@Z ENDP ; ioINILoader::LoadFloat_e<28>
_TEXT	ENDS
PUBLIC	__$ArrayPad$
PUBLIC	??$LoadFloat_e@$0BF@@ioINILoader@@QAEMAAY0BF@$$CBDM@Z ; ioINILoader::LoadFloat_e<21>
; Function compile flags: /Ogsp
;	COMDAT ??$LoadFloat_e@$0BF@@ioINILoader@@QAEMAAY0BF@$$CBDM@Z
_TEXT	SEGMENT
__k$ = -32						; size = 21
__$ArrayPad$ = -4					; size = 4
_k$ = 8							; size = 4
_f$ = 12						; size = 4
??$LoadFloat_e@$0BF@@ioINILoader@@QAEMAAY0BF@$$CBDM@Z PROC ; ioINILoader::LoadFloat_e<21>, COMDAT
; _this$ = ecx

; 135  : 	{

  00000	55		 push	 ebp
  00001	8b ec		 mov	 ebp, esp
  00003	83 ec 20	 sub	 esp, 32			; 00000020H
  00006	a1 00 00 00 00	 mov	 eax, DWORD PTR ___security_cookie
  0000b	33 c5		 xor	 eax, ebp
  0000d	89 45 fc	 mov	 DWORD PTR __$ArrayPad$[ebp], eax
  00010	8b 45 08	 mov	 eax, DWORD PTR _k$[ebp]

; 136  : 		_ENCSTR(k, _k);

  00013	8a 10		 mov	 dl, BYTE PTR [eax]
  00015	53		 push	 ebx
  00016	56		 push	 esi
  00017	8b f1		 mov	 esi, ecx
  00019	84 d2		 test	 dl, dl
  0001b	0f 84 f7 01 00
	00		 je	 $LN96@LoadFloat_@7
  00021	80 f2 ed	 xor	 dl, -19			; ffffffedH
  00024	88 55 e0	 mov	 BYTE PTR __k$[ebp], dl
  00027	8a 50 01	 mov	 dl, BYTE PTR [eax+1]
  0002a	84 d2		 test	 dl, dl
  0002c	0f 84 e0 01 00
	00		 je	 $LN95@LoadFloat_@7
  00032	b1 ec		 mov	 cl, -20			; ffffffecH
  00034	32 d1		 xor	 dl, cl
  00036	88 55 e1	 mov	 BYTE PTR __k$[ebp+1], dl
  00039	8a 50 02	 mov	 dl, BYTE PTR [eax+2]
  0003c	84 d2		 test	 dl, dl
  0003e	0f 84 c8 01 00
	00		 je	 $LN94@LoadFloat_@7
  00044	b3 eb		 mov	 bl, -21			; ffffffebH
  00046	32 d3		 xor	 dl, bl
  00048	88 55 e2	 mov	 BYTE PTR __k$[ebp+2], dl
  0004b	8a 50 03	 mov	 dl, BYTE PTR [eax+3]
  0004e	84 d2		 test	 dl, dl
  00050	0f 84 b0 01 00
	00		 je	 $LN93@LoadFloat_@7
  00056	80 f2 ea	 xor	 dl, -22			; ffffffeaH
  00059	88 55 e3	 mov	 BYTE PTR __k$[ebp+3], dl
  0005c	8a 50 04	 mov	 dl, BYTE PTR [eax+4]
  0005f	84 d2		 test	 dl, dl
  00061	0f 84 99 01 00
	00		 je	 $LN92@LoadFloat_@7
  00067	80 f2 ed	 xor	 dl, -19			; ffffffedH
  0006a	88 55 e4	 mov	 BYTE PTR __k$[ebp+4], dl
  0006d	8a 50 05	 mov	 dl, BYTE PTR [eax+5]
  00070	84 d2		 test	 dl, dl
  00072	0f 84 83 01 00
	00		 je	 $LN91@LoadFloat_@7
  00078	32 d1		 xor	 dl, cl
  0007a	88 55 e5	 mov	 BYTE PTR __k$[ebp+5], dl
  0007d	8a 50 06	 mov	 dl, BYTE PTR [eax+6]
  00080	84 d2		 test	 dl, dl
  00082	0f 84 6e 01 00
	00		 je	 $LN90@LoadFloat_@7
  00088	32 d3		 xor	 dl, bl
  0008a	88 55 e6	 mov	 BYTE PTR __k$[ebp+6], dl
  0008d	8a 50 07	 mov	 dl, BYTE PTR [eax+7]
  00090	84 d2		 test	 dl, dl
  00092	0f 84 58 01 00
	00		 je	 $LN89@LoadFloat_@7
  00098	80 f2 ea	 xor	 dl, -22			; ffffffeaH
  0009b	88 55 e7	 mov	 BYTE PTR __k$[ebp+7], dl
  0009e	8a 50 08	 mov	 dl, BYTE PTR [eax+8]
  000a1	84 d2		 test	 dl, dl
  000a3	0f 84 41 01 00
	00		 je	 $LN88@LoadFloat_@7
  000a9	80 f2 ed	 xor	 dl, -19			; ffffffedH
  000ac	88 55 e8	 mov	 BYTE PTR __k$[ebp+8], dl
  000af	8a 50 09	 mov	 dl, BYTE PTR [eax+9]
  000b2	84 d2		 test	 dl, dl
  000b4	0f 84 2b 01 00
	00		 je	 $LN87@LoadFloat_@7
  000ba	32 d1		 xor	 dl, cl
  000bc	88 55 e9	 mov	 BYTE PTR __k$[ebp+9], dl
  000bf	8a 50 0a	 mov	 dl, BYTE PTR [eax+10]
  000c2	84 d2		 test	 dl, dl
  000c4	0f 84 16 01 00
	00		 je	 $LN86@LoadFloat_@7
  000ca	32 d3		 xor	 dl, bl
  000cc	88 55 ea	 mov	 BYTE PTR __k$[ebp+10], dl
  000cf	8a 50 0b	 mov	 dl, BYTE PTR [eax+11]
  000d2	84 d2		 test	 dl, dl
  000d4	0f 84 00 01 00
	00		 je	 $LN85@LoadFloat_@7
  000da	80 f2 ea	 xor	 dl, -22			; ffffffeaH
  000dd	88 55 eb	 mov	 BYTE PTR __k$[ebp+11], dl
  000e0	8a 50 0c	 mov	 dl, BYTE PTR [eax+12]
  000e3	84 d2		 test	 dl, dl
  000e5	0f 84 e9 00 00
	00		 je	 $LN84@LoadFloat_@7
  000eb	80 f2 ed	 xor	 dl, -19			; ffffffedH
  000ee	88 55 ec	 mov	 BYTE PTR __k$[ebp+12], dl
  000f1	8a 50 0d	 mov	 dl, BYTE PTR [eax+13]
  000f4	84 d2		 test	 dl, dl
  000f6	0f 84 d3 00 00
	00		 je	 $LN83@LoadFloat_@7
  000fc	32 d1		 xor	 dl, cl
  000fe	88 55 ed	 mov	 BYTE PTR __k$[ebp+13], dl
  00101	8a 50 0e	 mov	 dl, BYTE PTR [eax+14]
  00104	84 d2		 test	 dl, dl
  00106	0f 84 be 00 00
	00		 je	 $LN82@LoadFloat_@7
  0010c	32 d3		 xor	 dl, bl
  0010e	88 55 ee	 mov	 BYTE PTR __k$[ebp+14], dl
  00111	8a 50 0f	 mov	 dl, BYTE PTR [eax+15]
  00114	84 d2		 test	 dl, dl
  00116	0f 84 a8 00 00
	00		 je	 $LN81@LoadFloat_@7
  0011c	80 f2 ea	 xor	 dl, -22			; ffffffeaH
  0011f	88 55 ef	 mov	 BYTE PTR __k$[ebp+15], dl
  00122	8a 50 10	 mov	 dl, BYTE PTR [eax+16]
  00125	84 d2		 test	 dl, dl
  00127	0f 84 91 00 00
	00		 je	 $LN80@LoadFloat_@7
  0012d	80 f2 ed	 xor	 dl, -19			; ffffffedH
  00130	88 55 f0	 mov	 BYTE PTR __k$[ebp+16], dl
  00133	8a 50 11	 mov	 dl, BYTE PTR [eax+17]
  00136	84 d2		 test	 dl, dl
  00138	74 7f		 je	 SHORT $LN79@LoadFloat_@7
  0013a	32 d1		 xor	 dl, cl
  0013c	88 55 f1	 mov	 BYTE PTR __k$[ebp+17], dl
  0013f	8a 50 12	 mov	 dl, BYTE PTR [eax+18]
  00142	84 d2		 test	 dl, dl
  00144	74 6e		 je	 SHORT $LN78@LoadFloat_@7
  00146	32 d3		 xor	 dl, bl
  00148	88 55 f2	 mov	 BYTE PTR __k$[ebp+18], dl
  0014b	8a 50 13	 mov	 dl, BYTE PTR [eax+19]
  0014e	84 d2		 test	 dl, dl
  00150	74 5c		 je	 SHORT $LN77@LoadFloat_@7
  00152	80 f2 ea	 xor	 dl, -22			; ffffffeaH
  00155	80 78 14 00	 cmp	 BYTE PTR [eax+20], 0
  00159	88 55 f3	 mov	 BYTE PTR __k$[ebp+19], dl
  0015c	0f 84 ba 00 00
	00		 je	 $LN1@LoadFloat_@7
  00162	8a 50 15	 mov	 dl, BYTE PTR [eax+21]
  00165	84 d2		 test	 dl, dl
  00167	74 40		 je	 SHORT $LN75@LoadFloat_@7
  00169	32 d1		 xor	 dl, cl
  0016b	88 55 f5	 mov	 BYTE PTR __k$[ebp+21], dl
  0016e	8a 50 16	 mov	 dl, BYTE PTR [eax+22]
  00171	84 d2		 test	 dl, dl
  00173	74 2f		 je	 SHORT $LN74@LoadFloat_@7
  00175	32 d3		 xor	 dl, bl
  00177	88 55 f6	 mov	 BYTE PTR __k$[ebp+22], dl
  0017a	8a 50 17	 mov	 dl, BYTE PTR [eax+23]
  0017d	84 d2		 test	 dl, dl
  0017f	74 1d		 je	 SHORT $LN73@LoadFloat_@7
  00181	8a 40 18	 mov	 al, BYTE PTR [eax+24]
  00184	80 f2 ea	 xor	 dl, -22			; ffffffeaH
  00187	88 55 f7	 mov	 BYTE PTR __k$[ebp+23], dl
  0018a	84 c0		 test	 al, al
  0018c	74 0a		 je	 SHORT $LN72@LoadFloat_@7
  0018e	34 ed		 xor	 al, -19			; ffffffedH
  00190	88 45 f8	 mov	 BYTE PTR __k$[ebp+24], al
  00193	e9 84 00 00 00	 jmp	 $LN1@LoadFloat_@7
$LN72@LoadFloat_@7:
  00198	c6 45 f8 ed	 mov	 BYTE PTR __k$[ebp+24], -19 ; ffffffedH
  0019c	eb 7e		 jmp	 SHORT $LN1@LoadFloat_@7
$LN73@LoadFloat_@7:
  0019e	c6 45 f7 ea	 mov	 BYTE PTR __k$[ebp+23], -22 ; ffffffeaH
  001a2	eb 78		 jmp	 SHORT $LN1@LoadFloat_@7
$LN74@LoadFloat_@7:
  001a4	88 5d f6	 mov	 BYTE PTR __k$[ebp+22], bl
  001a7	eb 73		 jmp	 SHORT $LN1@LoadFloat_@7
$LN75@LoadFloat_@7:
  001a9	88 4d f5	 mov	 BYTE PTR __k$[ebp+21], cl
  001ac	eb 6e		 jmp	 SHORT $LN1@LoadFloat_@7
$LN77@LoadFloat_@7:
  001ae	c6 45 f3 ea	 mov	 BYTE PTR __k$[ebp+19], -22 ; ffffffeaH
  001b2	eb 68		 jmp	 SHORT $LN1@LoadFloat_@7
$LN78@LoadFloat_@7:
  001b4	88 5d f2	 mov	 BYTE PTR __k$[ebp+18], bl
  001b7	eb 63		 jmp	 SHORT $LN1@LoadFloat_@7
$LN79@LoadFloat_@7:
  001b9	88 4d f1	 mov	 BYTE PTR __k$[ebp+17], cl
  001bc	eb 5e		 jmp	 SHORT $LN1@LoadFloat_@7
$LN80@LoadFloat_@7:
  001be	c6 45 f0 ed	 mov	 BYTE PTR __k$[ebp+16], -19 ; ffffffedH
  001c2	eb 58		 jmp	 SHORT $LN1@LoadFloat_@7
$LN81@LoadFloat_@7:
  001c4	c6 45 ef ea	 mov	 BYTE PTR __k$[ebp+15], -22 ; ffffffeaH
  001c8	eb 52		 jmp	 SHORT $LN1@LoadFloat_@7
$LN82@LoadFloat_@7:
  001ca	88 5d ee	 mov	 BYTE PTR __k$[ebp+14], bl
  001cd	eb 4d		 jmp	 SHORT $LN1@LoadFloat_@7
$LN83@LoadFloat_@7:
  001cf	88 4d ed	 mov	 BYTE PTR __k$[ebp+13], cl
  001d2	eb 48		 jmp	 SHORT $LN1@LoadFloat_@7
$LN84@LoadFloat_@7:
  001d4	c6 45 ec ed	 mov	 BYTE PTR __k$[ebp+12], -19 ; ffffffedH
  001d8	eb 42		 jmp	 SHORT $LN1@LoadFloat_@7
$LN85@LoadFloat_@7:
  001da	c6 45 eb ea	 mov	 BYTE PTR __k$[ebp+11], -22 ; ffffffeaH
  001de	eb 3c		 jmp	 SHORT $LN1@LoadFloat_@7
$LN86@LoadFloat_@7:
  001e0	88 5d ea	 mov	 BYTE PTR __k$[ebp+10], bl
  001e3	eb 37		 jmp	 SHORT $LN1@LoadFloat_@7
$LN87@LoadFloat_@7:
  001e5	88 4d e9	 mov	 BYTE PTR __k$[ebp+9], cl
  001e8	eb 32		 jmp	 SHORT $LN1@LoadFloat_@7
$LN88@LoadFloat_@7:
  001ea	c6 45 e8 ed	 mov	 BYTE PTR __k$[ebp+8], -19 ; ffffffedH
  001ee	eb 2c		 jmp	 SHORT $LN1@LoadFloat_@7
$LN89@LoadFloat_@7:
  001f0	c6 45 e7 ea	 mov	 BYTE PTR __k$[ebp+7], -22 ; ffffffeaH
  001f4	eb 26		 jmp	 SHORT $LN1@LoadFloat_@7
$LN90@LoadFloat_@7:
  001f6	88 5d e6	 mov	 BYTE PTR __k$[ebp+6], bl
  001f9	eb 21		 jmp	 SHORT $LN1@LoadFloat_@7
$LN91@LoadFloat_@7:
  001fb	88 4d e5	 mov	 BYTE PTR __k$[ebp+5], cl
  001fe	eb 1c		 jmp	 SHORT $LN1@LoadFloat_@7
$LN92@LoadFloat_@7:
  00200	c6 45 e4 ed	 mov	 BYTE PTR __k$[ebp+4], -19 ; ffffffedH
  00204	eb 16		 jmp	 SHORT $LN1@LoadFloat_@7
$LN93@LoadFloat_@7:
  00206	c6 45 e3 ea	 mov	 BYTE PTR __k$[ebp+3], -22 ; ffffffeaH
  0020a	eb 10		 jmp	 SHORT $LN1@LoadFloat_@7
$LN94@LoadFloat_@7:
  0020c	c6 45 e2 eb	 mov	 BYTE PTR __k$[ebp+2], -21 ; ffffffebH
  00210	eb 0a		 jmp	 SHORT $LN1@LoadFloat_@7
$LN95@LoadFloat_@7:
  00212	c6 45 e1 ec	 mov	 BYTE PTR __k$[ebp+1], -20 ; ffffffecH
  00216	eb 04		 jmp	 SHORT $LN1@LoadFloat_@7
$LN96@LoadFloat_@7:
  00218	c6 45 e0 ed	 mov	 BYTE PTR __k$[ebp], -19	; ffffffedH
$LN1@LoadFloat_@7:
  0021c	6a 05		 push	 5
  0021e	8d 45 e0	 lea	 eax, DWORD PTR __k$[ebp]
  00221	c6 45 f4 00	 mov	 BYTE PTR __k$[ebp+20], 0
  00225	5a		 pop	 edx
$LL104@LoadFloat_@7:
  00226	81 30 ed ec eb
	ea		 xor	 DWORD PTR [eax], -353637139 ; eaebecedH
  0022c	83 c0 04	 add	 eax, 4
  0022f	4a		 dec	 edx
  00230	75 f4		 jne	 SHORT $LL104@LoadFloat_@7

; 137  : 		return LoadFloat(_k, f);

  00232	f3 0f 10 45 0c	 movss	 xmm0, DWORD PTR _f$[ebp]
  00237	51		 push	 ecx
  00238	8d 45 e0	 lea	 eax, DWORD PTR __k$[ebp]
  0023b	f3 0f 11 04 24	 movss	 DWORD PTR [esp], xmm0
  00240	50		 push	 eax
  00241	8b ce		 mov	 ecx, esi
  00243	ff 15 00 00 00
	00		 call	 DWORD PTR __imp_?LoadFloat@ioINILoader@@QAEMPBDM@Z

; 138  : 	}

  00249	8b 4d fc	 mov	 ecx, DWORD PTR __$ArrayPad$[ebp]
  0024c	5e		 pop	 esi
  0024d	33 cd		 xor	 ecx, ebp
  0024f	5b		 pop	 ebx
  00250	e8 00 00 00 00	 call	 @__security_check_cookie@4
  00255	c9		 leave
  00256	c2 08 00	 ret	 8
??$LoadFloat_e@$0BF@@ioINILoader@@QAEMAAY0BF@$$CBDM@Z ENDP ; ioINILoader::LoadFloat_e<21>
_TEXT	ENDS
PUBLIC	__$ArrayPad$
PUBLIC	??$LoadAttackAttribute_e@$0BC@@@YAXAAY0BC@$$CBDAAUAttackAttribute@@AAVioINILoader@@@Z ; LoadAttackAttribute_e<18>
EXTRN	?LoadAttackAttribute@@YAXPBDAAUAttackAttribute@@AAVioINILoader@@@Z:PROC ; LoadAttackAttribute
; Function compile flags: /Ogsp
; File d:\lost saga for developer\youtube\tutorial\source\src\lsclient\ioattackattribute.h
;	COMDAT ??$LoadAttackAttribute_e@$0BC@@@YAXAAY0BC@$$CBDAAUAttackAttribute@@AAVioINILoader@@@Z
_TEXT	SEGMENT
_szEncAttack$ = -28					; size = 18
__$ArrayPad$ = -4					; size = 4
_szAttack$ = 8						; size = 4
_rkAttribute$ = 12					; size = 4
_rkLoader$ = 16						; size = 4
??$LoadAttackAttribute_e@$0BC@@@YAXAAY0BC@$$CBDAAUAttackAttribute@@AAVioINILoader@@@Z PROC ; LoadAttackAttribute_e<18>, COMDAT

; 131  : {

  00000	55		 push	 ebp
  00001	8b ec		 mov	 ebp, esp
  00003	83 ec 1c	 sub	 esp, 28			; 0000001cH
  00006	a1 00 00 00 00	 mov	 eax, DWORD PTR ___security_cookie
  0000b	33 c5		 xor	 eax, ebp
  0000d	89 45 fc	 mov	 DWORD PTR __$ArrayPad$[ebp], eax
  00010	8b 45 08	 mov	 eax, DWORD PTR _szAttack$[ebp]

; 132  : 	_ENCSTR(szAttack, szEncAttack);

  00013	8a 08		 mov	 cl, BYTE PTR [eax]
  00015	56		 push	 esi
  00016	8b 75 0c	 mov	 esi, DWORD PTR _rkAttribute$[ebp]
  00019	57		 push	 edi
  0001a	8b 7d 10	 mov	 edi, DWORD PTR _rkLoader$[ebp]
  0001d	84 c9		 test	 cl, cl
  0001f	0f 84 ba 01 00
	00		 je	 $LN96@LoadAttack
  00025	80 f1 ed	 xor	 cl, -19			; ffffffedH
  00028	88 4d e4	 mov	 BYTE PTR _szEncAttack$[ebp], cl
  0002b	8a 48 01	 mov	 cl, BYTE PTR [eax+1]
  0002e	84 c9		 test	 cl, cl
  00030	0f 84 a3 01 00
	00		 je	 $LN95@LoadAttack
  00036	80 f1 ec	 xor	 cl, -20			; ffffffecH
  00039	88 4d e5	 mov	 BYTE PTR _szEncAttack$[ebp+1], cl
  0003c	8a 48 02	 mov	 cl, BYTE PTR [eax+2]
  0003f	84 c9		 test	 cl, cl
  00041	0f 84 8c 01 00
	00		 je	 $LN94@LoadAttack
  00047	80 f1 eb	 xor	 cl, -21			; ffffffebH
  0004a	88 4d e6	 mov	 BYTE PTR _szEncAttack$[ebp+2], cl
  0004d	8a 48 03	 mov	 cl, BYTE PTR [eax+3]
  00050	84 c9		 test	 cl, cl
  00052	0f 84 75 01 00
	00		 je	 $LN93@LoadAttack
  00058	b2 ea		 mov	 dl, -22			; ffffffeaH
  0005a	32 ca		 xor	 cl, dl
  0005c	88 4d e7	 mov	 BYTE PTR _szEncAttack$[ebp+3], cl
  0005f	8a 48 04	 mov	 cl, BYTE PTR [eax+4]
  00062	84 c9		 test	 cl, cl
  00064	0f 84 5d 01 00
	00		 je	 $LN92@LoadAttack
  0006a	80 f1 ed	 xor	 cl, -19			; ffffffedH
  0006d	88 4d e8	 mov	 BYTE PTR _szEncAttack$[ebp+4], cl
  00070	8a 48 05	 mov	 cl, BYTE PTR [eax+5]
  00073	84 c9		 test	 cl, cl
  00075	0f 84 46 01 00
	00		 je	 $LN91@LoadAttack
  0007b	80 f1 ec	 xor	 cl, -20			; ffffffecH
  0007e	88 4d e9	 mov	 BYTE PTR _szEncAttack$[ebp+5], cl
  00081	8a 48 06	 mov	 cl, BYTE PTR [eax+6]
  00084	84 c9		 test	 cl, cl
  00086	0f 84 2f 01 00
	00		 je	 $LN90@LoadAttack
  0008c	80 f1 eb	 xor	 cl, -21			; ffffffebH
  0008f	88 4d ea	 mov	 BYTE PTR _szEncAttack$[ebp+6], cl
  00092	8a 48 07	 mov	 cl, BYTE PTR [eax+7]
  00095	84 c9		 test	 cl, cl
  00097	0f 84 19 01 00
	00		 je	 $LN89@LoadAttack
  0009d	32 ca		 xor	 cl, dl
  0009f	88 4d eb	 mov	 BYTE PTR _szEncAttack$[ebp+7], cl
  000a2	8a 48 08	 mov	 cl, BYTE PTR [eax+8]
  000a5	84 c9		 test	 cl, cl
  000a7	0f 84 03 01 00
	00		 je	 $LN88@LoadAttack
  000ad	80 f1 ed	 xor	 cl, -19			; ffffffedH
  000b0	88 4d ec	 mov	 BYTE PTR _szEncAttack$[ebp+8], cl
  000b3	8a 48 09	 mov	 cl, BYTE PTR [eax+9]
  000b6	84 c9		 test	 cl, cl
  000b8	0f 84 ec 00 00
	00		 je	 $LN87@LoadAttack
  000be	80 f1 ec	 xor	 cl, -20			; ffffffecH
  000c1	88 4d ed	 mov	 BYTE PTR _szEncAttack$[ebp+9], cl
  000c4	8a 48 0a	 mov	 cl, BYTE PTR [eax+10]
  000c7	84 c9		 test	 cl, cl
  000c9	0f 84 d5 00 00
	00		 je	 $LN86@LoadAttack
  000cf	80 f1 eb	 xor	 cl, -21			; ffffffebH
  000d2	88 4d ee	 mov	 BYTE PTR _szEncAttack$[ebp+10], cl
  000d5	8a 48 0b	 mov	 cl, BYTE PTR [eax+11]
  000d8	84 c9		 test	 cl, cl
  000da	0f 84 bf 00 00
	00		 je	 $LN85@LoadAttack
  000e0	32 ca		 xor	 cl, dl
  000e2	88 4d ef	 mov	 BYTE PTR _szEncAttack$[ebp+11], cl
  000e5	8a 48 0c	 mov	 cl, BYTE PTR [eax+12]
  000e8	84 c9		 test	 cl, cl
  000ea	0f 84 a9 00 00
	00		 je	 $LN84@LoadAttack
  000f0	80 f1 ed	 xor	 cl, -19			; ffffffedH
  000f3	88 4d f0	 mov	 BYTE PTR _szEncAttack$[ebp+12], cl
  000f6	8a 48 0d	 mov	 cl, BYTE PTR [eax+13]
  000f9	84 c9		 test	 cl, cl
  000fb	0f 84 92 00 00
	00		 je	 $LN83@LoadAttack
  00101	80 f1 ec	 xor	 cl, -20			; ffffffecH
  00104	88 4d f1	 mov	 BYTE PTR _szEncAttack$[ebp+13], cl
  00107	8a 48 0e	 mov	 cl, BYTE PTR [eax+14]
  0010a	84 c9		 test	 cl, cl
  0010c	74 7f		 je	 SHORT $LN82@LoadAttack
  0010e	80 f1 eb	 xor	 cl, -21			; ffffffebH
  00111	88 4d f2	 mov	 BYTE PTR _szEncAttack$[ebp+14], cl
  00114	8a 48 0f	 mov	 cl, BYTE PTR [eax+15]
  00117	84 c9		 test	 cl, cl
  00119	74 6d		 je	 SHORT $LN81@LoadAttack
  0011b	32 ca		 xor	 cl, dl
  0011d	88 4d f3	 mov	 BYTE PTR _szEncAttack$[ebp+15], cl
  00120	8a 48 10	 mov	 cl, BYTE PTR [eax+16]
  00123	84 c9		 test	 cl, cl
  00125	74 5b		 je	 SHORT $LN80@LoadAttack
  00127	80 f1 ed	 xor	 cl, -19			; ffffffedH
  0012a	80 78 11 00	 cmp	 BYTE PTR [eax+17], 0
  0012e	88 4d f4	 mov	 BYTE PTR _szEncAttack$[ebp+16], cl
  00131	0f 84 ac 00 00
	00		 je	 $LN1@LoadAttack
  00137	8a 48 12	 mov	 cl, BYTE PTR [eax+18]
  0013a	84 c9		 test	 cl, cl
  0013c	74 3e		 je	 SHORT $LN78@LoadAttack
  0013e	80 f1 eb	 xor	 cl, -21			; ffffffebH
  00141	88 4d f6	 mov	 BYTE PTR _szEncAttack$[ebp+18], cl
  00144	8a 48 13	 mov	 cl, BYTE PTR [eax+19]
  00147	84 c9		 test	 cl, cl
  00149	74 2c		 je	 SHORT $LN77@LoadAttack
  0014b	32 ca		 xor	 cl, dl
  0014d	88 4d f7	 mov	 BYTE PTR _szEncAttack$[ebp+19], cl
  00150	8a 48 14	 mov	 cl, BYTE PTR [eax+20]
  00153	84 c9		 test	 cl, cl
  00155	74 1a		 je	 SHORT $LN76@LoadAttack
  00157	8a 40 15	 mov	 al, BYTE PTR [eax+21]
  0015a	80 f1 ed	 xor	 cl, -19			; ffffffedH
  0015d	88 4d f8	 mov	 BYTE PTR _szEncAttack$[ebp+20], cl
  00160	84 c0		 test	 al, al
  00162	74 07		 je	 SHORT $LN75@LoadAttack
  00164	34 ec		 xor	 al, -20			; ffffffecH
  00166	88 45 f9	 mov	 BYTE PTR _szEncAttack$[ebp+21], al
  00169	eb 78		 jmp	 SHORT $LN1@LoadAttack
$LN75@LoadAttack:
  0016b	c6 45 f9 ec	 mov	 BYTE PTR _szEncAttack$[ebp+21], -20 ; ffffffecH
  0016f	eb 72		 jmp	 SHORT $LN1@LoadAttack
$LN76@LoadAttack:
  00171	c6 45 f8 ed	 mov	 BYTE PTR _szEncAttack$[ebp+20], -19 ; ffffffedH
  00175	eb 6c		 jmp	 SHORT $LN1@LoadAttack
$LN77@LoadAttack:
  00177	88 55 f7	 mov	 BYTE PTR _szEncAttack$[ebp+19], dl
  0017a	eb 67		 jmp	 SHORT $LN1@LoadAttack
$LN78@LoadAttack:
  0017c	c6 45 f6 eb	 mov	 BYTE PTR _szEncAttack$[ebp+18], -21 ; ffffffebH
  00180	eb 61		 jmp	 SHORT $LN1@LoadAttack
$LN80@LoadAttack:
  00182	c6 45 f4 ed	 mov	 BYTE PTR _szEncAttack$[ebp+16], -19 ; ffffffedH
  00186	eb 5b		 jmp	 SHORT $LN1@LoadAttack
$LN81@LoadAttack:
  00188	88 55 f3	 mov	 BYTE PTR _szEncAttack$[ebp+15], dl
  0018b	eb 56		 jmp	 SHORT $LN1@LoadAttack
$LN82@LoadAttack:
  0018d	c6 45 f2 eb	 mov	 BYTE PTR _szEncAttack$[ebp+14], -21 ; ffffffebH
  00191	eb 50		 jmp	 SHORT $LN1@LoadAttack
$LN83@LoadAttack:
  00193	c6 45 f1 ec	 mov	 BYTE PTR _szEncAttack$[ebp+13], -20 ; ffffffecH
  00197	eb 4a		 jmp	 SHORT $LN1@LoadAttack
$LN84@LoadAttack:
  00199	c6 45 f0 ed	 mov	 BYTE PTR _szEncAttack$[ebp+12], -19 ; ffffffedH
  0019d	eb 44		 jmp	 SHORT $LN1@LoadAttack
$LN85@LoadAttack:
  0019f	88 55 ef	 mov	 BYTE PTR _szEncAttack$[ebp+11], dl
  001a2	eb 3f		 jmp	 SHORT $LN1@LoadAttack
$LN86@LoadAttack:
  001a4	c6 45 ee eb	 mov	 BYTE PTR _szEncAttack$[ebp+10], -21 ; ffffffebH
  001a8	eb 39		 jmp	 SHORT $LN1@LoadAttack
$LN87@LoadAttack:
  001aa	c6 45 ed ec	 mov	 BYTE PTR _szEncAttack$[ebp+9], -20 ; ffffffecH
  001ae	eb 33		 jmp	 SHORT $LN1@LoadAttack
$LN88@LoadAttack:
  001b0	c6 45 ec ed	 mov	 BYTE PTR _szEncAttack$[ebp+8], -19 ; ffffffedH
  001b4	eb 2d		 jmp	 SHORT $LN1@LoadAttack
$LN89@LoadAttack:
  001b6	88 55 eb	 mov	 BYTE PTR _szEncAttack$[ebp+7], dl
  001b9	eb 28		 jmp	 SHORT $LN1@LoadAttack
$LN90@LoadAttack:
  001bb	c6 45 ea eb	 mov	 BYTE PTR _szEncAttack$[ebp+6], -21 ; ffffffebH
  001bf	eb 22		 jmp	 SHORT $LN1@LoadAttack
$LN91@LoadAttack:
  001c1	c6 45 e9 ec	 mov	 BYTE PTR _szEncAttack$[ebp+5], -20 ; ffffffecH
  001c5	eb 1c		 jmp	 SHORT $LN1@LoadAttack
$LN92@LoadAttack:
  001c7	c6 45 e8 ed	 mov	 BYTE PTR _szEncAttack$[ebp+4], -19 ; ffffffedH
  001cb	eb 16		 jmp	 SHORT $LN1@LoadAttack
$LN93@LoadAttack:
  001cd	c6 45 e7 ea	 mov	 BYTE PTR _szEncAttack$[ebp+3], -22 ; ffffffeaH
  001d1	eb 10		 jmp	 SHORT $LN1@LoadAttack
$LN94@LoadAttack:
  001d3	c6 45 e6 eb	 mov	 BYTE PTR _szEncAttack$[ebp+2], -21 ; ffffffebH
  001d7	eb 0a		 jmp	 SHORT $LN1@LoadAttack
$LN95@LoadAttack:
  001d9	c6 45 e5 ec	 mov	 BYTE PTR _szEncAttack$[ebp+1], -20 ; ffffffecH
  001dd	eb 04		 jmp	 SHORT $LN1@LoadAttack
$LN96@LoadAttack:
  001df	c6 45 e4 ed	 mov	 BYTE PTR _szEncAttack$[ebp], -19 ; ffffffedH
$LN1@LoadAttack:
  001e3	6a 04		 push	 4
  001e5	8d 45 e4	 lea	 eax, DWORD PTR _szEncAttack$[ebp]
  001e8	c6 45 f5 00	 mov	 BYTE PTR _szEncAttack$[ebp+17], 0
  001ec	59		 pop	 ecx
$LL104@LoadAttack:
  001ed	81 30 ed ec eb
	ea		 xor	 DWORD PTR [eax], -353637139 ; eaebecedH
  001f3	83 c0 04	 add	 eax, 4
  001f6	49		 dec	 ecx
  001f7	75 f4		 jne	 SHORT $LL104@LoadAttack
  001f9	80 75 f4 ed	 xor	 BYTE PTR _szEncAttack$[ebp+16], -19 ; ffffffedH

; 133  : 	LoadAttackAttribute(szEncAttack, rkAttribute, rkLoader);

  001fd	57		 push	 edi
  001fe	8d 45 e4	 lea	 eax, DWORD PTR _szEncAttack$[ebp]
  00201	56		 push	 esi
  00202	50		 push	 eax
  00203	e8 00 00 00 00	 call	 ?LoadAttackAttribute@@YAXPBDAAUAttackAttribute@@AAVioINILoader@@@Z ; LoadAttackAttribute

; 134  : }

  00208	8b 4d fc	 mov	 ecx, DWORD PTR __$ArrayPad$[ebp]
  0020b	83 c4 0c	 add	 esp, 12			; 0000000cH
  0020e	5f		 pop	 edi
  0020f	33 cd		 xor	 ecx, ebp
  00211	5e		 pop	 esi
  00212	e8 00 00 00 00	 call	 @__security_check_cookie@4
  00217	c9		 leave
  00218	c3		 ret	 0
??$LoadAttackAttribute_e@$0BC@@@YAXAAY0BC@$$CBDAAUAttackAttribute@@AAVioINILoader@@@Z ENDP ; LoadAttackAttribute_e<18>
_TEXT	ENDS
PUBLIC	__$ArrayPad$
PUBLIC	??$LoadAttackAttribute_e@$0BD@@@YAXAAY0BD@$$CBDAAUAttackAttribute@@AAVioINILoader@@@Z ; LoadAttackAttribute_e<19>
; Function compile flags: /Ogsp
;	COMDAT ??$LoadAttackAttribute_e@$0BD@@@YAXAAY0BD@$$CBDAAUAttackAttribute@@AAVioINILoader@@@Z
_TEXT	SEGMENT
_szEncAttack$ = -28					; size = 19
__$ArrayPad$ = -4					; size = 4
_szAttack$ = 8						; size = 4
_rkAttribute$ = 12					; size = 4
_rkLoader$ = 16						; size = 4
??$LoadAttackAttribute_e@$0BD@@@YAXAAY0BD@$$CBDAAUAttackAttribute@@AAVioINILoader@@@Z PROC ; LoadAttackAttribute_e<19>, COMDAT

; 131  : {

  00000	55		 push	 ebp
  00001	8b ec		 mov	 ebp, esp
  00003	83 ec 1c	 sub	 esp, 28			; 0000001cH
  00006	a1 00 00 00 00	 mov	 eax, DWORD PTR ___security_cookie
  0000b	33 c5		 xor	 eax, ebp
  0000d	89 45 fc	 mov	 DWORD PTR __$ArrayPad$[ebp], eax
  00010	8b 45 08	 mov	 eax, DWORD PTR _szAttack$[ebp]

; 132  : 	_ENCSTR(szAttack, szEncAttack);

  00013	8a 08		 mov	 cl, BYTE PTR [eax]
  00015	53		 push	 ebx
  00016	56		 push	 esi
  00017	8b 75 0c	 mov	 esi, DWORD PTR _rkAttribute$[ebp]
  0001a	57		 push	 edi
  0001b	8b 7d 10	 mov	 edi, DWORD PTR _rkLoader$[ebp]
  0001e	84 c9		 test	 cl, cl
  00020	0f 84 c8 01 00
	00		 je	 $LN96@LoadAttack@2
  00026	80 f1 ed	 xor	 cl, -19			; ffffffedH
  00029	88 4d e4	 mov	 BYTE PTR _szEncAttack$[ebp], cl
  0002c	8a 48 01	 mov	 cl, BYTE PTR [eax+1]
  0002f	84 c9		 test	 cl, cl
  00031	0f 84 b1 01 00
	00		 je	 $LN95@LoadAttack@2
  00037	b3 ec		 mov	 bl, -20			; ffffffecH
  00039	32 cb		 xor	 cl, bl
  0003b	88 4d e5	 mov	 BYTE PTR _szEncAttack$[ebp+1], cl
  0003e	8a 48 02	 mov	 cl, BYTE PTR [eax+2]
  00041	84 c9		 test	 cl, cl
  00043	0f 84 99 01 00
	00		 je	 $LN94@LoadAttack@2
  00049	80 f1 eb	 xor	 cl, -21			; ffffffebH
  0004c	88 4d e6	 mov	 BYTE PTR _szEncAttack$[ebp+2], cl
  0004f	8a 48 03	 mov	 cl, BYTE PTR [eax+3]
  00052	84 c9		 test	 cl, cl
  00054	0f 84 82 01 00
	00		 je	 $LN93@LoadAttack@2
  0005a	b2 ea		 mov	 dl, -22			; ffffffeaH
  0005c	32 ca		 xor	 cl, dl
  0005e	88 4d e7	 mov	 BYTE PTR _szEncAttack$[ebp+3], cl
  00061	8a 48 04	 mov	 cl, BYTE PTR [eax+4]
  00064	84 c9		 test	 cl, cl
  00066	0f 84 6a 01 00
	00		 je	 $LN92@LoadAttack@2
  0006c	80 f1 ed	 xor	 cl, -19			; ffffffedH
  0006f	88 4d e8	 mov	 BYTE PTR _szEncAttack$[ebp+4], cl
  00072	8a 48 05	 mov	 cl, BYTE PTR [eax+5]
  00075	84 c9		 test	 cl, cl
  00077	0f 84 54 01 00
	00		 je	 $LN91@LoadAttack@2
  0007d	32 cb		 xor	 cl, bl
  0007f	88 4d e9	 mov	 BYTE PTR _szEncAttack$[ebp+5], cl
  00082	8a 48 06	 mov	 cl, BYTE PTR [eax+6]
  00085	84 c9		 test	 cl, cl
  00087	0f 84 3e 01 00
	00		 je	 $LN90@LoadAttack@2
  0008d	80 f1 eb	 xor	 cl, -21			; ffffffebH
  00090	88 4d ea	 mov	 BYTE PTR _szEncAttack$[ebp+6], cl
  00093	8a 48 07	 mov	 cl, BYTE PTR [eax+7]
  00096	84 c9		 test	 cl, cl
  00098	0f 84 28 01 00
	00		 je	 $LN89@LoadAttack@2
  0009e	32 ca		 xor	 cl, dl
  000a0	88 4d eb	 mov	 BYTE PTR _szEncAttack$[ebp+7], cl
  000a3	8a 48 08	 mov	 cl, BYTE PTR [eax+8]
  000a6	84 c9		 test	 cl, cl
  000a8	0f 84 12 01 00
	00		 je	 $LN88@LoadAttack@2
  000ae	80 f1 ed	 xor	 cl, -19			; ffffffedH
  000b1	88 4d ec	 mov	 BYTE PTR _szEncAttack$[ebp+8], cl
  000b4	8a 48 09	 mov	 cl, BYTE PTR [eax+9]
  000b7	84 c9		 test	 cl, cl
  000b9	0f 84 fc 00 00
	00		 je	 $LN87@LoadAttack@2
  000bf	32 cb		 xor	 cl, bl
  000c1	88 4d ed	 mov	 BYTE PTR _szEncAttack$[ebp+9], cl
  000c4	8a 48 0a	 mov	 cl, BYTE PTR [eax+10]
  000c7	84 c9		 test	 cl, cl
  000c9	0f 84 e6 00 00
	00		 je	 $LN86@LoadAttack@2
  000cf	80 f1 eb	 xor	 cl, -21			; ffffffebH
  000d2	88 4d ee	 mov	 BYTE PTR _szEncAttack$[ebp+10], cl
  000d5	8a 48 0b	 mov	 cl, BYTE PTR [eax+11]
  000d8	84 c9		 test	 cl, cl
  000da	0f 84 d0 00 00
	00		 je	 $LN85@LoadAttack@2
  000e0	32 ca		 xor	 cl, dl
  000e2	88 4d ef	 mov	 BYTE PTR _szEncAttack$[ebp+11], cl
  000e5	8a 48 0c	 mov	 cl, BYTE PTR [eax+12]
  000e8	84 c9		 test	 cl, cl
  000ea	0f 84 ba 00 00
	00		 je	 $LN84@LoadAttack@2
  000f0	80 f1 ed	 xor	 cl, -19			; ffffffedH
  000f3	88 4d f0	 mov	 BYTE PTR _szEncAttack$[ebp+12], cl
  000f6	8a 48 0d	 mov	 cl, BYTE PTR [eax+13]
  000f9	84 c9		 test	 cl, cl
  000fb	0f 84 a4 00 00
	00		 je	 $LN83@LoadAttack@2
  00101	32 cb		 xor	 cl, bl
  00103	88 4d f1	 mov	 BYTE PTR _szEncAttack$[ebp+13], cl
  00106	8a 48 0e	 mov	 cl, BYTE PTR [eax+14]
  00109	84 c9		 test	 cl, cl
  0010b	0f 84 8e 00 00
	00		 je	 $LN82@LoadAttack@2
  00111	80 f1 eb	 xor	 cl, -21			; ffffffebH
  00114	88 4d f2	 mov	 BYTE PTR _szEncAttack$[ebp+14], cl
  00117	8a 48 0f	 mov	 cl, BYTE PTR [eax+15]
  0011a	84 c9		 test	 cl, cl
  0011c	74 7c		 je	 SHORT $LN81@LoadAttack@2
  0011e	32 ca		 xor	 cl, dl
  00120	88 4d f3	 mov	 BYTE PTR _szEncAttack$[ebp+15], cl
  00123	8a 48 10	 mov	 cl, BYTE PTR [eax+16]
  00126	84 c9		 test	 cl, cl
  00128	74 6a		 je	 SHORT $LN80@LoadAttack@2
  0012a	80 f1 ed	 xor	 cl, -19			; ffffffedH
  0012d	88 4d f4	 mov	 BYTE PTR _szEncAttack$[ebp+16], cl
  00130	8a 48 11	 mov	 cl, BYTE PTR [eax+17]
  00133	84 c9		 test	 cl, cl
  00135	74 58		 je	 SHORT $LN79@LoadAttack@2
  00137	32 cb		 xor	 cl, bl
  00139	80 78 12 00	 cmp	 BYTE PTR [eax+18], 0
  0013d	88 4d f5	 mov	 BYTE PTR _szEncAttack$[ebp+17], cl
  00140	0f 84 ac 00 00
	00		 je	 $LN1@LoadAttack@2
  00146	8a 48 13	 mov	 cl, BYTE PTR [eax+19]
  00149	84 c9		 test	 cl, cl
  0014b	74 3d		 je	 SHORT $LN77@LoadAttack@2
  0014d	32 ca		 xor	 cl, dl
  0014f	88 4d f7	 mov	 BYTE PTR _szEncAttack$[ebp+19], cl
  00152	8a 48 14	 mov	 cl, BYTE PTR [eax+20]
  00155	84 c9		 test	 cl, cl
  00157	74 2b		 je	 SHORT $LN76@LoadAttack@2
  00159	80 f1 ed	 xor	 cl, -19			; ffffffedH
  0015c	88 4d f8	 mov	 BYTE PTR _szEncAttack$[ebp+20], cl
  0015f	8a 48 15	 mov	 cl, BYTE PTR [eax+21]
  00162	84 c9		 test	 cl, cl
  00164	74 19		 je	 SHORT $LN75@LoadAttack@2
  00166	8a 40 16	 mov	 al, BYTE PTR [eax+22]
  00169	32 cb		 xor	 cl, bl
  0016b	88 4d f9	 mov	 BYTE PTR _szEncAttack$[ebp+21], cl
  0016e	84 c0		 test	 al, al
  00170	74 07		 je	 SHORT $LN74@LoadAttack@2
  00172	34 eb		 xor	 al, -21			; ffffffebH
  00174	88 45 fa	 mov	 BYTE PTR _szEncAttack$[ebp+22], al
  00177	eb 79		 jmp	 SHORT $LN1@LoadAttack@2
$LN74@LoadAttack@2:
  00179	c6 45 fa eb	 mov	 BYTE PTR _szEncAttack$[ebp+22], -21 ; ffffffebH
  0017d	eb 73		 jmp	 SHORT $LN1@LoadAttack@2
$LN75@LoadAttack@2:
  0017f	88 5d f9	 mov	 BYTE PTR _szEncAttack$[ebp+21], bl
  00182	eb 6e		 jmp	 SHORT $LN1@LoadAttack@2
$LN76@LoadAttack@2:
  00184	c6 45 f8 ed	 mov	 BYTE PTR _szEncAttack$[ebp+20], -19 ; ffffffedH
  00188	eb 68		 jmp	 SHORT $LN1@LoadAttack@2
$LN77@LoadAttack@2:
  0018a	88 55 f7	 mov	 BYTE PTR _szEncAttack$[ebp+19], dl
  0018d	eb 63		 jmp	 SHORT $LN1@LoadAttack@2
$LN79@LoadAttack@2:
  0018f	88 5d f5	 mov	 BYTE PTR _szEncAttack$[ebp+17], bl
  00192	eb 5e		 jmp	 SHORT $LN1@LoadAttack@2
$LN80@LoadAttack@2:
  00194	c6 45 f4 ed	 mov	 BYTE PTR _szEncAttack$[ebp+16], -19 ; ffffffedH
  00198	eb 58		 jmp	 SHORT $LN1@LoadAttack@2
$LN81@LoadAttack@2:
  0019a	88 55 f3	 mov	 BYTE PTR _szEncAttack$[ebp+15], dl
  0019d	eb 53		 jmp	 SHORT $LN1@LoadAttack@2
$LN82@LoadAttack@2:
  0019f	c6 45 f2 eb	 mov	 BYTE PTR _szEncAttack$[ebp+14], -21 ; ffffffebH
  001a3	eb 4d		 jmp	 SHORT $LN1@LoadAttack@2
$LN83@LoadAttack@2:
  001a5	88 5d f1	 mov	 BYTE PTR _szEncAttack$[ebp+13], bl
  001a8	eb 48		 jmp	 SHORT $LN1@LoadAttack@2
$LN84@LoadAttack@2:
  001aa	c6 45 f0 ed	 mov	 BYTE PTR _szEncAttack$[ebp+12], -19 ; ffffffedH
  001ae	eb 42		 jmp	 SHORT $LN1@LoadAttack@2
$LN85@LoadAttack@2:
  001b0	88 55 ef	 mov	 BYTE PTR _szEncAttack$[ebp+11], dl
  001b3	eb 3d		 jmp	 SHORT $LN1@LoadAttack@2
$LN86@LoadAttack@2:
  001b5	c6 45 ee eb	 mov	 BYTE PTR _szEncAttack$[ebp+10], -21 ; ffffffebH
  001b9	eb 37		 jmp	 SHORT $LN1@LoadAttack@2
$LN87@LoadAttack@2:
  001bb	88 5d ed	 mov	 BYTE PTR _szEncAttack$[ebp+9], bl
  001be	eb 32		 jmp	 SHORT $LN1@LoadAttack@2
$LN88@LoadAttack@2:
  001c0	c6 45 ec ed	 mov	 BYTE PTR _szEncAttack$[ebp+8], -19 ; ffffffedH
  001c4	eb 2c		 jmp	 SHORT $LN1@LoadAttack@2
$LN89@LoadAttack@2:
  001c6	88 55 eb	 mov	 BYTE PTR _szEncAttack$[ebp+7], dl
  001c9	eb 27		 jmp	 SHORT $LN1@LoadAttack@2
$LN90@LoadAttack@2:
  001cb	c6 45 ea eb	 mov	 BYTE PTR _szEncAttack$[ebp+6], -21 ; ffffffebH
  001cf	eb 21		 jmp	 SHORT $LN1@LoadAttack@2
$LN91@LoadAttack@2:
  001d1	88 5d e9	 mov	 BYTE PTR _szEncAttack$[ebp+5], bl
  001d4	eb 1c		 jmp	 SHORT $LN1@LoadAttack@2
$LN92@LoadAttack@2:
  001d6	c6 45 e8 ed	 mov	 BYTE PTR _szEncAttack$[ebp+4], -19 ; ffffffedH
  001da	eb 16		 jmp	 SHORT $LN1@LoadAttack@2
$LN93@LoadAttack@2:
  001dc	c6 45 e7 ea	 mov	 BYTE PTR _szEncAttack$[ebp+3], -22 ; ffffffeaH
  001e0	eb 10		 jmp	 SHORT $LN1@LoadAttack@2
$LN94@LoadAttack@2:
  001e2	c6 45 e6 eb	 mov	 BYTE PTR _szEncAttack$[ebp+2], -21 ; ffffffebH
  001e6	eb 0a		 jmp	 SHORT $LN1@LoadAttack@2
$LN95@LoadAttack@2:
  001e8	c6 45 e5 ec	 mov	 BYTE PTR _szEncAttack$[ebp+1], -20 ; ffffffecH
  001ec	eb 04		 jmp	 SHORT $LN1@LoadAttack@2
$LN96@LoadAttack@2:
  001ee	c6 45 e4 ed	 mov	 BYTE PTR _szEncAttack$[ebp], -19 ; ffffffedH
$LN1@LoadAttack@2:
  001f2	6a 04		 push	 4
  001f4	8d 45 e4	 lea	 eax, DWORD PTR _szEncAttack$[ebp]
  001f7	c6 45 f6 00	 mov	 BYTE PTR _szEncAttack$[ebp+18], 0
  001fb	59		 pop	 ecx
$LL104@LoadAttack@2:
  001fc	81 30 ed ec eb
	ea		 xor	 DWORD PTR [eax], -353637139 ; eaebecedH
  00202	83 c0 04	 add	 eax, 4
  00205	49		 dec	 ecx
  00206	75 f4		 jne	 SHORT $LL104@LoadAttack@2
  00208	6a 10		 push	 16			; 00000010H
  0020a	58		 pop	 eax
$LL101@LoadAttack@2:
  0020b	8b c8		 mov	 ecx, eax
  0020d	81 e1 03 00 00
	80		 and	 ecx, -2147483645	; 80000003H
  00213	79 05		 jns	 SHORT $LN111@LoadAttack@2
  00215	49		 dec	 ecx
  00216	83 c9 fc	 or	 ecx, -4			; fffffffcH
  00219	41		 inc	 ecx
$LN111@LoadAttack@2:
  0021a	b2 ed		 mov	 dl, -19			; ffffffedH
  0021c	2a d1		 sub	 dl, cl
  0021e	30 54 05 e4	 xor	 BYTE PTR _szEncAttack$[ebp+eax], dl
  00222	40		 inc	 eax
  00223	83 f8 12	 cmp	 eax, 18			; 00000012H
  00226	7c e3		 jl	 SHORT $LL101@LoadAttack@2

; 133  : 	LoadAttackAttribute(szEncAttack, rkAttribute, rkLoader);

  00228	57		 push	 edi
  00229	8d 45 e4	 lea	 eax, DWORD PTR _szEncAttack$[ebp]
  0022c	56		 push	 esi
  0022d	50		 push	 eax
  0022e	e8 00 00 00 00	 call	 ?LoadAttackAttribute@@YAXPBDAAUAttackAttribute@@AAVioINILoader@@@Z ; LoadAttackAttribute

; 134  : }

  00233	8b 4d fc	 mov	 ecx, DWORD PTR __$ArrayPad$[ebp]
  00236	83 c4 0c	 add	 esp, 12			; 0000000cH
  00239	5f		 pop	 edi
  0023a	5e		 pop	 esi
  0023b	33 cd		 xor	 ecx, ebp
  0023d	5b		 pop	 ebx
  0023e	e8 00 00 00 00	 call	 @__security_check_cookie@4
  00243	c9		 leave
  00244	c3		 ret	 0
??$LoadAttackAttribute_e@$0BD@@@YAXAAY0BD@$$CBDAAUAttackAttribute@@AAVioINILoader@@@Z ENDP ; LoadAttackAttribute_e<19>
_TEXT	ENDS
PUBLIC	__$ArrayPad$
PUBLIC	??$LoadBool_e@$0BI@@ioINILoader@@QAE_NAAY0BI@$$CBD_N@Z ; ioINILoader::LoadBool_e<24>
EXTRN	__imp_?LoadBool@ioINILoader@@QAE_NPBD_N@Z:PROC
; Function compile flags: /Ogsp
; File d:\lost saga for developer\youtube\tutorial\source\src\io3dengine\ioiniloader.h
;	COMDAT ??$LoadBool_e@$0BI@@ioINILoader@@QAE_NAAY0BI@$$CBD_N@Z
_TEXT	SEGMENT
__k$ = -32						; size = 24
__$ArrayPad$ = -4					; size = 4
_k$ = 8							; size = 4
_b$ = 12						; size = 1
??$LoadBool_e@$0BI@@ioINILoader@@QAE_NAAY0BI@$$CBD_N@Z PROC ; ioINILoader::LoadBool_e<24>, COMDAT
; _this$ = ecx

; 101  : 	{

  00000	55		 push	 ebp
  00001	8b ec		 mov	 ebp, esp
  00003	83 ec 20	 sub	 esp, 32			; 00000020H
  00006	a1 00 00 00 00	 mov	 eax, DWORD PTR ___security_cookie
  0000b	33 c5		 xor	 eax, ebp
  0000d	89 45 fc	 mov	 DWORD PTR __$ArrayPad$[ebp], eax
  00010	8b 45 08	 mov	 eax, DWORD PTR _k$[ebp]

; 102  : 		_ENCSTR(k, _k);

  00013	8a 10		 mov	 dl, BYTE PTR [eax]
  00015	53		 push	 ebx
  00016	56		 push	 esi
  00017	8b f1		 mov	 esi, ecx
  00019	84 d2		 test	 dl, dl
  0001b	0f 84 45 02 00
	00		 je	 $LN96@LoadBool_e
  00021	80 f2 ed	 xor	 dl, -19			; ffffffedH
  00024	88 55 e0	 mov	 BYTE PTR __k$[ebp], dl
  00027	8a 50 01	 mov	 dl, BYTE PTR [eax+1]
  0002a	84 d2		 test	 dl, dl
  0002c	0f 84 2e 02 00
	00		 je	 $LN95@LoadBool_e
  00032	b3 ec		 mov	 bl, -20			; ffffffecH
  00034	32 d3		 xor	 dl, bl
  00036	88 55 e1	 mov	 BYTE PTR __k$[ebp+1], dl
  00039	8a 50 02	 mov	 dl, BYTE PTR [eax+2]
  0003c	84 d2		 test	 dl, dl
  0003e	0f 84 16 02 00
	00		 je	 $LN94@LoadBool_e
  00044	b1 eb		 mov	 cl, -21			; ffffffebH
  00046	32 d1		 xor	 dl, cl
  00048	88 55 e2	 mov	 BYTE PTR __k$[ebp+2], dl
  0004b	8a 50 03	 mov	 dl, BYTE PTR [eax+3]
  0004e	84 d2		 test	 dl, dl
  00050	0f 84 fe 01 00
	00		 je	 $LN93@LoadBool_e
  00056	80 f2 ea	 xor	 dl, -22			; ffffffeaH
  00059	88 55 e3	 mov	 BYTE PTR __k$[ebp+3], dl
  0005c	8a 50 04	 mov	 dl, BYTE PTR [eax+4]
  0005f	84 d2		 test	 dl, dl
  00061	0f 84 e7 01 00
	00		 je	 $LN92@LoadBool_e
  00067	80 f2 ed	 xor	 dl, -19			; ffffffedH
  0006a	88 55 e4	 mov	 BYTE PTR __k$[ebp+4], dl
  0006d	8a 50 05	 mov	 dl, BYTE PTR [eax+5]
  00070	84 d2		 test	 dl, dl
  00072	0f 84 d1 01 00
	00		 je	 $LN91@LoadBool_e
  00078	32 d3		 xor	 dl, bl
  0007a	88 55 e5	 mov	 BYTE PTR __k$[ebp+5], dl
  0007d	8a 50 06	 mov	 dl, BYTE PTR [eax+6]
  00080	84 d2		 test	 dl, dl
  00082	0f 84 bc 01 00
	00		 je	 $LN90@LoadBool_e
  00088	32 d1		 xor	 dl, cl
  0008a	88 55 e6	 mov	 BYTE PTR __k$[ebp+6], dl
  0008d	8a 50 07	 mov	 dl, BYTE PTR [eax+7]
  00090	84 d2		 test	 dl, dl
  00092	0f 84 a6 01 00
	00		 je	 $LN89@LoadBool_e
  00098	80 f2 ea	 xor	 dl, -22			; ffffffeaH
  0009b	88 55 e7	 mov	 BYTE PTR __k$[ebp+7], dl
  0009e	8a 50 08	 mov	 dl, BYTE PTR [eax+8]
  000a1	84 d2		 test	 dl, dl
  000a3	0f 84 8f 01 00
	00		 je	 $LN88@LoadBool_e
  000a9	80 f2 ed	 xor	 dl, -19			; ffffffedH
  000ac	88 55 e8	 mov	 BYTE PTR __k$[ebp+8], dl
  000af	8a 50 09	 mov	 dl, BYTE PTR [eax+9]
  000b2	84 d2		 test	 dl, dl
  000b4	0f 84 79 01 00
	00		 je	 $LN87@LoadBool_e
  000ba	32 d3		 xor	 dl, bl
  000bc	88 55 e9	 mov	 BYTE PTR __k$[ebp+9], dl
  000bf	8a 50 0a	 mov	 dl, BYTE PTR [eax+10]
  000c2	84 d2		 test	 dl, dl
  000c4	0f 84 64 01 00
	00		 je	 $LN86@LoadBool_e
  000ca	32 d1		 xor	 dl, cl
  000cc	88 55 ea	 mov	 BYTE PTR __k$[ebp+10], dl
  000cf	8a 50 0b	 mov	 dl, BYTE PTR [eax+11]
  000d2	84 d2		 test	 dl, dl
  000d4	0f 84 4e 01 00
	00		 je	 $LN85@LoadBool_e
  000da	80 f2 ea	 xor	 dl, -22			; ffffffeaH
  000dd	88 55 eb	 mov	 BYTE PTR __k$[ebp+11], dl
  000e0	8a 50 0c	 mov	 dl, BYTE PTR [eax+12]
  000e3	84 d2		 test	 dl, dl
  000e5	0f 84 37 01 00
	00		 je	 $LN84@LoadBool_e
  000eb	80 f2 ed	 xor	 dl, -19			; ffffffedH
  000ee	88 55 ec	 mov	 BYTE PTR __k$[ebp+12], dl
  000f1	8a 50 0d	 mov	 dl, BYTE PTR [eax+13]
  000f4	84 d2		 test	 dl, dl
  000f6	0f 84 21 01 00
	00		 je	 $LN83@LoadBool_e
  000fc	32 d3		 xor	 dl, bl
  000fe	88 55 ed	 mov	 BYTE PTR __k$[ebp+13], dl
  00101	8a 50 0e	 mov	 dl, BYTE PTR [eax+14]
  00104	84 d2		 test	 dl, dl
  00106	0f 84 0c 01 00
	00		 je	 $LN82@LoadBool_e
  0010c	32 d1		 xor	 dl, cl
  0010e	88 55 ee	 mov	 BYTE PTR __k$[ebp+14], dl
  00111	8a 50 0f	 mov	 dl, BYTE PTR [eax+15]
  00114	84 d2		 test	 dl, dl
  00116	0f 84 f6 00 00
	00		 je	 $LN81@LoadBool_e
  0011c	80 f2 ea	 xor	 dl, -22			; ffffffeaH
  0011f	88 55 ef	 mov	 BYTE PTR __k$[ebp+15], dl
  00122	8a 50 10	 mov	 dl, BYTE PTR [eax+16]
  00125	84 d2		 test	 dl, dl
  00127	0f 84 df 00 00
	00		 je	 $LN80@LoadBool_e
  0012d	80 f2 ed	 xor	 dl, -19			; ffffffedH
  00130	88 55 f0	 mov	 BYTE PTR __k$[ebp+16], dl
  00133	8a 50 11	 mov	 dl, BYTE PTR [eax+17]
  00136	84 d2		 test	 dl, dl
  00138	0f 84 c9 00 00
	00		 je	 $LN79@LoadBool_e
  0013e	32 d3		 xor	 dl, bl
  00140	88 55 f1	 mov	 BYTE PTR __k$[ebp+17], dl
  00143	8a 50 12	 mov	 dl, BYTE PTR [eax+18]
  00146	84 d2		 test	 dl, dl
  00148	0f 84 b4 00 00
	00		 je	 $LN78@LoadBool_e
  0014e	32 d1		 xor	 dl, cl
  00150	88 55 f2	 mov	 BYTE PTR __k$[ebp+18], dl
  00153	8a 50 13	 mov	 dl, BYTE PTR [eax+19]
  00156	84 d2		 test	 dl, dl
  00158	0f 84 9e 00 00
	00		 je	 $LN77@LoadBool_e
  0015e	80 f2 ea	 xor	 dl, -22			; ffffffeaH
  00161	88 55 f3	 mov	 BYTE PTR __k$[ebp+19], dl
  00164	8a 50 14	 mov	 dl, BYTE PTR [eax+20]
  00167	84 d2		 test	 dl, dl
  00169	0f 84 87 00 00
	00		 je	 $LN76@LoadBool_e
  0016f	80 f2 ed	 xor	 dl, -19			; ffffffedH
  00172	88 55 f4	 mov	 BYTE PTR __k$[ebp+20], dl
  00175	8a 50 15	 mov	 dl, BYTE PTR [eax+21]
  00178	84 d2		 test	 dl, dl
  0017a	74 75		 je	 SHORT $LN75@LoadBool_e
  0017c	32 d3		 xor	 dl, bl
  0017e	88 55 f5	 mov	 BYTE PTR __k$[ebp+21], dl
  00181	8a 50 16	 mov	 dl, BYTE PTR [eax+22]
  00184	84 d2		 test	 dl, dl
  00186	74 64		 je	 SHORT $LN74@LoadBool_e
  00188	32 d1		 xor	 dl, cl
  0018a	80 78 17 00	 cmp	 BYTE PTR [eax+23], 0
  0018e	88 55 f6	 mov	 BYTE PTR __k$[ebp+22], dl
  00191	0f 84 d3 00 00
	00		 je	 $LN1@LoadBool_e
  00197	8a 50 18	 mov	 dl, BYTE PTR [eax+24]
  0019a	84 d2		 test	 dl, dl
  0019c	74 48		 je	 SHORT $LN72@LoadBool_e
  0019e	80 f2 ed	 xor	 dl, -19			; ffffffedH
  001a1	88 55 f8	 mov	 BYTE PTR __k$[ebp+24], dl
  001a4	8a 50 19	 mov	 dl, BYTE PTR [eax+25]
  001a7	84 d2		 test	 dl, dl
  001a9	74 33		 je	 SHORT $LN71@LoadBool_e
  001ab	32 d3		 xor	 dl, bl
  001ad	88 55 f9	 mov	 BYTE PTR __k$[ebp+25], dl
  001b0	8a 50 1a	 mov	 dl, BYTE PTR [eax+26]
  001b3	84 d2		 test	 dl, dl
  001b5	74 1f		 je	 SHORT $LN70@LoadBool_e
  001b7	8a 40 1b	 mov	 al, BYTE PTR [eax+27]
  001ba	32 d1		 xor	 dl, cl
  001bc	88 55 fa	 mov	 BYTE PTR __k$[ebp+26], dl
  001bf	84 c0		 test	 al, al
  001c1	74 0a		 je	 SHORT $LN69@LoadBool_e
  001c3	34 ea		 xor	 al, -22			; ffffffeaH
  001c5	88 45 fb	 mov	 BYTE PTR __k$[ebp+27], al
  001c8	e9 9d 00 00 00	 jmp	 $LN1@LoadBool_e
$LN69@LoadBool_e:
  001cd	c6 45 fb ea	 mov	 BYTE PTR __k$[ebp+27], -22 ; ffffffeaH
  001d1	e9 94 00 00 00	 jmp	 $LN1@LoadBool_e
$LN70@LoadBool_e:
  001d6	88 4d fa	 mov	 BYTE PTR __k$[ebp+26], cl
  001d9	e9 8c 00 00 00	 jmp	 $LN1@LoadBool_e
$LN71@LoadBool_e:
  001de	88 5d f9	 mov	 BYTE PTR __k$[ebp+25], bl
  001e1	e9 84 00 00 00	 jmp	 $LN1@LoadBool_e
$LN72@LoadBool_e:
  001e6	c6 45 f8 ed	 mov	 BYTE PTR __k$[ebp+24], -19 ; ffffffedH
  001ea	eb 7e		 jmp	 SHORT $LN1@LoadBool_e
$LN74@LoadBool_e:
  001ec	88 4d f6	 mov	 BYTE PTR __k$[ebp+22], cl
  001ef	eb 79		 jmp	 SHORT $LN1@LoadBool_e
$LN75@LoadBool_e:
  001f1	88 5d f5	 mov	 BYTE PTR __k$[ebp+21], bl
  001f4	eb 74		 jmp	 SHORT $LN1@LoadBool_e
$LN76@LoadBool_e:
  001f6	c6 45 f4 ed	 mov	 BYTE PTR __k$[ebp+20], -19 ; ffffffedH
  001fa	eb 6e		 jmp	 SHORT $LN1@LoadBool_e
$LN77@LoadBool_e:
  001fc	c6 45 f3 ea	 mov	 BYTE PTR __k$[ebp+19], -22 ; ffffffeaH
  00200	eb 68		 jmp	 SHORT $LN1@LoadBool_e
$LN78@LoadBool_e:
  00202	88 4d f2	 mov	 BYTE PTR __k$[ebp+18], cl
  00205	eb 63		 jmp	 SHORT $LN1@LoadBool_e
$LN79@LoadBool_e:
  00207	88 5d f1	 mov	 BYTE PTR __k$[ebp+17], bl
  0020a	eb 5e		 jmp	 SHORT $LN1@LoadBool_e
$LN80@LoadBool_e:
  0020c	c6 45 f0 ed	 mov	 BYTE PTR __k$[ebp+16], -19 ; ffffffedH
  00210	eb 58		 jmp	 SHORT $LN1@LoadBool_e
$LN81@LoadBool_e:
  00212	c6 45 ef ea	 mov	 BYTE PTR __k$[ebp+15], -22 ; ffffffeaH
  00216	eb 52		 jmp	 SHORT $LN1@LoadBool_e
$LN82@LoadBool_e:
  00218	88 4d ee	 mov	 BYTE PTR __k$[ebp+14], cl
  0021b	eb 4d		 jmp	 SHORT $LN1@LoadBool_e
$LN83@LoadBool_e:
  0021d	88 5d ed	 mov	 BYTE PTR __k$[ebp+13], bl
  00220	eb 48		 jmp	 SHORT $LN1@LoadBool_e
$LN84@LoadBool_e:
  00222	c6 45 ec ed	 mov	 BYTE PTR __k$[ebp+12], -19 ; ffffffedH
  00226	eb 42		 jmp	 SHORT $LN1@LoadBool_e
$LN85@LoadBool_e:
  00228	c6 45 eb ea	 mov	 BYTE PTR __k$[ebp+11], -22 ; ffffffeaH
  0022c	eb 3c		 jmp	 SHORT $LN1@LoadBool_e
$LN86@LoadBool_e:
  0022e	88 4d ea	 mov	 BYTE PTR __k$[ebp+10], cl
  00231	eb 37		 jmp	 SHORT $LN1@LoadBool_e
$LN87@LoadBool_e:
  00233	88 5d e9	 mov	 BYTE PTR __k$[ebp+9], bl
  00236	eb 32		 jmp	 SHORT $LN1@LoadBool_e
$LN88@LoadBool_e:
  00238	c6 45 e8 ed	 mov	 BYTE PTR __k$[ebp+8], -19 ; ffffffedH
  0023c	eb 2c		 jmp	 SHORT $LN1@LoadBool_e
$LN89@LoadBool_e:
  0023e	c6 45 e7 ea	 mov	 BYTE PTR __k$[ebp+7], -22 ; ffffffeaH
  00242	eb 26		 jmp	 SHORT $LN1@LoadBool_e
$LN90@LoadBool_e:
  00244	88 4d e6	 mov	 BYTE PTR __k$[ebp+6], cl
  00247	eb 21		 jmp	 SHORT $LN1@LoadBool_e
$LN91@LoadBool_e:
  00249	88 5d e5	 mov	 BYTE PTR __k$[ebp+5], bl
  0024c	eb 1c		 jmp	 SHORT $LN1@LoadBool_e
$LN92@LoadBool_e:
  0024e	c6 45 e4 ed	 mov	 BYTE PTR __k$[ebp+4], -19 ; ffffffedH
  00252	eb 16		 jmp	 SHORT $LN1@LoadBool_e
$LN93@LoadBool_e:
  00254	c6 45 e3 ea	 mov	 BYTE PTR __k$[ebp+3], -22 ; ffffffeaH
  00258	eb 10		 jmp	 SHORT $LN1@LoadBool_e
$LN94@LoadBool_e:
  0025a	c6 45 e2 eb	 mov	 BYTE PTR __k$[ebp+2], -21 ; ffffffebH
  0025e	eb 0a		 jmp	 SHORT $LN1@LoadBool_e
$LN95@LoadBool_e:
  00260	c6 45 e1 ec	 mov	 BYTE PTR __k$[ebp+1], -20 ; ffffffecH
  00264	eb 04		 jmp	 SHORT $LN1@LoadBool_e
$LN96@LoadBool_e:
  00266	c6 45 e0 ed	 mov	 BYTE PTR __k$[ebp], -19	; ffffffedH
$LN1@LoadBool_e:
  0026a	6a 05		 push	 5
  0026c	8d 45 e0	 lea	 eax, DWORD PTR __k$[ebp]
  0026f	c6 45 f7 00	 mov	 BYTE PTR __k$[ebp+23], 0
  00273	5a		 pop	 edx
$LL104@LoadBool_e:
  00274	81 30 ed ec eb
	ea		 xor	 DWORD PTR [eax], -353637139 ; eaebecedH
  0027a	83 c0 04	 add	 eax, 4
  0027d	4a		 dec	 edx
  0027e	75 f4		 jne	 SHORT $LL104@LoadBool_e
  00280	6a 14		 push	 20			; 00000014H
  00282	58		 pop	 eax
$LL101@LoadBool_e:
  00283	8b c8		 mov	 ecx, eax
  00285	81 e1 03 00 00
	80		 and	 ecx, -2147483645	; 80000003H
  0028b	79 05		 jns	 SHORT $LN111@LoadBool_e
  0028d	49		 dec	 ecx
  0028e	83 c9 fc	 or	 ecx, -4			; fffffffcH
  00291	41		 inc	 ecx
$LN111@LoadBool_e:
  00292	b2 ed		 mov	 dl, -19			; ffffffedH
  00294	2a d1		 sub	 dl, cl
  00296	30 54 05 e0	 xor	 BYTE PTR __k$[ebp+eax], dl
  0029a	40		 inc	 eax
  0029b	83 f8 17	 cmp	 eax, 23			; 00000017H
  0029e	7c e3		 jl	 SHORT $LL101@LoadBool_e

; 103  : 		return LoadBool(_k, b);

  002a0	ff 75 0c	 push	 DWORD PTR _b$[ebp]
  002a3	8d 45 e0	 lea	 eax, DWORD PTR __k$[ebp]
  002a6	50		 push	 eax
  002a7	8b ce		 mov	 ecx, esi
  002a9	ff 15 00 00 00
	00		 call	 DWORD PTR __imp_?LoadBool@ioINILoader@@QAE_NPBD_N@Z

; 104  : 	}

  002af	8b 4d fc	 mov	 ecx, DWORD PTR __$ArrayPad$[ebp]
  002b2	5e		 pop	 esi
  002b3	33 cd		 xor	 ecx, ebp
  002b5	5b		 pop	 ebx
  002b6	e8 00 00 00 00	 call	 @__security_check_cookie@4
  002bb	c9		 leave
  002bc	c2 08 00	 ret	 8
??$LoadBool_e@$0BI@@ioINILoader@@QAE_NAAY0BI@$$CBD_N@Z ENDP ; ioINILoader::LoadBool_e<24>
_TEXT	ENDS
PUBLIC	__$ArrayPad$
PUBLIC	??$LoadBool_e@$0BB@@ioINILoader@@QAE_NAAY0BB@$$CBD_N@Z ; ioINILoader::LoadBool_e<17>
; Function compile flags: /Ogsp
;	COMDAT ??$LoadBool_e@$0BB@@ioINILoader@@QAE_NAAY0BB@$$CBD_N@Z
_TEXT	SEGMENT
__k$ = -28						; size = 17
__$ArrayPad$ = -4					; size = 4
_k$ = 8							; size = 4
_b$ = 12						; size = 1
??$LoadBool_e@$0BB@@ioINILoader@@QAE_NAAY0BB@$$CBD_N@Z PROC ; ioINILoader::LoadBool_e<17>, COMDAT
; _this$ = ecx

; 101  : 	{

  00000	55		 push	 ebp
  00001	8b ec		 mov	 ebp, esp
  00003	83 ec 1c	 sub	 esp, 28			; 0000001cH
  00006	a1 00 00 00 00	 mov	 eax, DWORD PTR ___security_cookie
  0000b	33 c5		 xor	 eax, ebp
  0000d	89 45 fc	 mov	 DWORD PTR __$ArrayPad$[ebp], eax
  00010	8b 45 08	 mov	 eax, DWORD PTR _k$[ebp]

; 102  : 		_ENCSTR(k, _k);

  00013	8a 10		 mov	 dl, BYTE PTR [eax]
  00015	56		 push	 esi
  00016	8b f1		 mov	 esi, ecx
  00018	84 d2		 test	 dl, dl
  0001a	0f 84 a7 01 00
	00		 je	 $LN96@LoadBool_e@2
  00020	80 f2 ed	 xor	 dl, -19			; ffffffedH
  00023	88 55 e4	 mov	 BYTE PTR __k$[ebp], dl
  00026	8a 50 01	 mov	 dl, BYTE PTR [eax+1]
  00029	84 d2		 test	 dl, dl
  0002b	0f 84 90 01 00
	00		 je	 $LN95@LoadBool_e@2
  00031	b1 ec		 mov	 cl, -20			; ffffffecH
  00033	32 d1		 xor	 dl, cl
  00035	88 55 e5	 mov	 BYTE PTR __k$[ebp+1], dl
  00038	8a 50 02	 mov	 dl, BYTE PTR [eax+2]
  0003b	84 d2		 test	 dl, dl
  0003d	0f 84 78 01 00
	00		 je	 $LN94@LoadBool_e@2
  00043	80 f2 eb	 xor	 dl, -21			; ffffffebH
  00046	88 55 e6	 mov	 BYTE PTR __k$[ebp+2], dl
  00049	8a 50 03	 mov	 dl, BYTE PTR [eax+3]
  0004c	84 d2		 test	 dl, dl
  0004e	0f 84 61 01 00
	00		 je	 $LN93@LoadBool_e@2
  00054	80 f2 ea	 xor	 dl, -22			; ffffffeaH
  00057	88 55 e7	 mov	 BYTE PTR __k$[ebp+3], dl
  0005a	8a 50 04	 mov	 dl, BYTE PTR [eax+4]
  0005d	84 d2		 test	 dl, dl
  0005f	0f 84 4a 01 00
	00		 je	 $LN92@LoadBool_e@2
  00065	80 f2 ed	 xor	 dl, -19			; ffffffedH
  00068	88 55 e8	 mov	 BYTE PTR __k$[ebp+4], dl
  0006b	8a 50 05	 mov	 dl, BYTE PTR [eax+5]
  0006e	84 d2		 test	 dl, dl
  00070	0f 84 34 01 00
	00		 je	 $LN91@LoadBool_e@2
  00076	32 d1		 xor	 dl, cl
  00078	88 55 e9	 mov	 BYTE PTR __k$[ebp+5], dl
  0007b	8a 50 06	 mov	 dl, BYTE PTR [eax+6]
  0007e	84 d2		 test	 dl, dl
  00080	0f 84 1e 01 00
	00		 je	 $LN90@LoadBool_e@2
  00086	80 f2 eb	 xor	 dl, -21			; ffffffebH
  00089	88 55 ea	 mov	 BYTE PTR __k$[ebp+6], dl
  0008c	8a 50 07	 mov	 dl, BYTE PTR [eax+7]
  0008f	84 d2		 test	 dl, dl
  00091	0f 84 07 01 00
	00		 je	 $LN89@LoadBool_e@2
  00097	80 f2 ea	 xor	 dl, -22			; ffffffeaH
  0009a	88 55 eb	 mov	 BYTE PTR __k$[ebp+7], dl
  0009d	8a 50 08	 mov	 dl, BYTE PTR [eax+8]
  000a0	84 d2		 test	 dl, dl
  000a2	0f 84 f0 00 00
	00		 je	 $LN88@LoadBool_e@2
  000a8	80 f2 ed	 xor	 dl, -19			; ffffffedH
  000ab	88 55 ec	 mov	 BYTE PTR __k$[ebp+8], dl
  000ae	8a 50 09	 mov	 dl, BYTE PTR [eax+9]
  000b1	84 d2		 test	 dl, dl
  000b3	0f 84 da 00 00
	00		 je	 $LN87@LoadBool_e@2
  000b9	32 d1		 xor	 dl, cl
  000bb	88 55 ed	 mov	 BYTE PTR __k$[ebp+9], dl
  000be	8a 50 0a	 mov	 dl, BYTE PTR [eax+10]
  000c1	84 d2		 test	 dl, dl
  000c3	0f 84 c4 00 00
	00		 je	 $LN86@LoadBool_e@2
  000c9	80 f2 eb	 xor	 dl, -21			; ffffffebH
  000cc	88 55 ee	 mov	 BYTE PTR __k$[ebp+10], dl
  000cf	8a 50 0b	 mov	 dl, BYTE PTR [eax+11]
  000d2	84 d2		 test	 dl, dl
  000d4	0f 84 ad 00 00
	00		 je	 $LN85@LoadBool_e@2
  000da	80 f2 ea	 xor	 dl, -22			; ffffffeaH
  000dd	88 55 ef	 mov	 BYTE PTR __k$[ebp+11], dl
  000e0	8a 50 0c	 mov	 dl, BYTE PTR [eax+12]
  000e3	84 d2		 test	 dl, dl
  000e5	0f 84 96 00 00
	00		 je	 $LN84@LoadBool_e@2
  000eb	80 f2 ed	 xor	 dl, -19			; ffffffedH
  000ee	88 55 f0	 mov	 BYTE PTR __k$[ebp+12], dl
  000f1	8a 50 0d	 mov	 dl, BYTE PTR [eax+13]
  000f4	84 d2		 test	 dl, dl
  000f6	0f 84 80 00 00
	00		 je	 $LN83@LoadBool_e@2
  000fc	32 d1		 xor	 dl, cl
  000fe	88 55 f1	 mov	 BYTE PTR __k$[ebp+13], dl
  00101	8a 50 0e	 mov	 dl, BYTE PTR [eax+14]
  00104	84 d2		 test	 dl, dl
  00106	74 6e		 je	 SHORT $LN82@LoadBool_e@2
  00108	80 f2 eb	 xor	 dl, -21			; ffffffebH
  0010b	88 55 f2	 mov	 BYTE PTR __k$[ebp+14], dl
  0010e	8a 50 0f	 mov	 dl, BYTE PTR [eax+15]
  00111	84 d2		 test	 dl, dl
  00113	74 5b		 je	 SHORT $LN81@LoadBool_e@2
  00115	80 f2 ea	 xor	 dl, -22			; ffffffeaH
  00118	80 78 10 00	 cmp	 BYTE PTR [eax+16], 0
  0011c	88 55 f3	 mov	 BYTE PTR __k$[ebp+15], dl
  0011f	0f 84 a6 00 00
	00		 je	 $LN1@LoadBool_e@2
  00125	8a 50 11	 mov	 dl, BYTE PTR [eax+17]
  00128	84 d2		 test	 dl, dl
  0012a	74 3f		 je	 SHORT $LN79@LoadBool_e@2
  0012c	32 d1		 xor	 dl, cl
  0012e	88 55 f5	 mov	 BYTE PTR __k$[ebp+17], dl
  00131	8a 50 12	 mov	 dl, BYTE PTR [eax+18]
  00134	84 d2		 test	 dl, dl
  00136	74 2d		 je	 SHORT $LN78@LoadBool_e@2
  00138	80 f2 eb	 xor	 dl, -21			; ffffffebH
  0013b	88 55 f6	 mov	 BYTE PTR __k$[ebp+18], dl
  0013e	8a 50 13	 mov	 dl, BYTE PTR [eax+19]
  00141	84 d2		 test	 dl, dl
  00143	74 1a		 je	 SHORT $LN77@LoadBool_e@2
  00145	8a 40 14	 mov	 al, BYTE PTR [eax+20]
  00148	80 f2 ea	 xor	 dl, -22			; ffffffeaH
  0014b	88 55 f7	 mov	 BYTE PTR __k$[ebp+19], dl
  0014e	84 c0		 test	 al, al
  00150	74 07		 je	 SHORT $LN76@LoadBool_e@2
  00152	34 ed		 xor	 al, -19			; ffffffedH
  00154	88 45 f8	 mov	 BYTE PTR __k$[ebp+20], al
  00157	eb 72		 jmp	 SHORT $LN1@LoadBool_e@2
$LN76@LoadBool_e@2:
  00159	c6 45 f8 ed	 mov	 BYTE PTR __k$[ebp+20], -19 ; ffffffedH
  0015d	eb 6c		 jmp	 SHORT $LN1@LoadBool_e@2
$LN77@LoadBool_e@2:
  0015f	c6 45 f7 ea	 mov	 BYTE PTR __k$[ebp+19], -22 ; ffffffeaH
  00163	eb 66		 jmp	 SHORT $LN1@LoadBool_e@2
$LN78@LoadBool_e@2:
  00165	c6 45 f6 eb	 mov	 BYTE PTR __k$[ebp+18], -21 ; ffffffebH
  00169	eb 60		 jmp	 SHORT $LN1@LoadBool_e@2
$LN79@LoadBool_e@2:
  0016b	88 4d f5	 mov	 BYTE PTR __k$[ebp+17], cl
  0016e	eb 5b		 jmp	 SHORT $LN1@LoadBool_e@2
$LN81@LoadBool_e@2:
  00170	c6 45 f3 ea	 mov	 BYTE PTR __k$[ebp+15], -22 ; ffffffeaH
  00174	eb 55		 jmp	 SHORT $LN1@LoadBool_e@2
$LN82@LoadBool_e@2:
  00176	c6 45 f2 eb	 mov	 BYTE PTR __k$[ebp+14], -21 ; ffffffebH
  0017a	eb 4f		 jmp	 SHORT $LN1@LoadBool_e@2
$LN83@LoadBool_e@2:
  0017c	88 4d f1	 mov	 BYTE PTR __k$[ebp+13], cl
  0017f	eb 4a		 jmp	 SHORT $LN1@LoadBool_e@2
$LN84@LoadBool_e@2:
  00181	c6 45 f0 ed	 mov	 BYTE PTR __k$[ebp+12], -19 ; ffffffedH
  00185	eb 44		 jmp	 SHORT $LN1@LoadBool_e@2
$LN85@LoadBool_e@2:
  00187	c6 45 ef ea	 mov	 BYTE PTR __k$[ebp+11], -22 ; ffffffeaH
  0018b	eb 3e		 jmp	 SHORT $LN1@LoadBool_e@2
$LN86@LoadBool_e@2:
  0018d	c6 45 ee eb	 mov	 BYTE PTR __k$[ebp+10], -21 ; ffffffebH
  00191	eb 38		 jmp	 SHORT $LN1@LoadBool_e@2
$LN87@LoadBool_e@2:
  00193	88 4d ed	 mov	 BYTE PTR __k$[ebp+9], cl
  00196	eb 33		 jmp	 SHORT $LN1@LoadBool_e@2
$LN88@LoadBool_e@2:
  00198	c6 45 ec ed	 mov	 BYTE PTR __k$[ebp+8], -19 ; ffffffedH
  0019c	eb 2d		 jmp	 SHORT $LN1@LoadBool_e@2
$LN89@LoadBool_e@2:
  0019e	c6 45 eb ea	 mov	 BYTE PTR __k$[ebp+7], -22 ; ffffffeaH
  001a2	eb 27		 jmp	 SHORT $LN1@LoadBool_e@2
$LN90@LoadBool_e@2:
  001a4	c6 45 ea eb	 mov	 BYTE PTR __k$[ebp+6], -21 ; ffffffebH
  001a8	eb 21		 jmp	 SHORT $LN1@LoadBool_e@2
$LN91@LoadBool_e@2:
  001aa	88 4d e9	 mov	 BYTE PTR __k$[ebp+5], cl
  001ad	eb 1c		 jmp	 SHORT $LN1@LoadBool_e@2
$LN92@LoadBool_e@2:
  001af	c6 45 e8 ed	 mov	 BYTE PTR __k$[ebp+4], -19 ; ffffffedH
  001b3	eb 16		 jmp	 SHORT $LN1@LoadBool_e@2
$LN93@LoadBool_e@2:
  001b5	c6 45 e7 ea	 mov	 BYTE PTR __k$[ebp+3], -22 ; ffffffeaH
  001b9	eb 10		 jmp	 SHORT $LN1@LoadBool_e@2
$LN94@LoadBool_e@2:
  001bb	c6 45 e6 eb	 mov	 BYTE PTR __k$[ebp+2], -21 ; ffffffebH
  001bf	eb 0a		 jmp	 SHORT $LN1@LoadBool_e@2
$LN95@LoadBool_e@2:
  001c1	c6 45 e5 ec	 mov	 BYTE PTR __k$[ebp+1], -20 ; ffffffecH
  001c5	eb 04		 jmp	 SHORT $LN1@LoadBool_e@2
$LN96@LoadBool_e@2:
  001c7	c6 45 e4 ed	 mov	 BYTE PTR __k$[ebp], -19	; ffffffedH
$LN1@LoadBool_e@2:
  001cb	6a 04		 push	 4
  001cd	8d 45 e4	 lea	 eax, DWORD PTR __k$[ebp]
  001d0	c6 45 f4 00	 mov	 BYTE PTR __k$[ebp+16], 0
  001d4	5a		 pop	 edx
$LL104@LoadBool_e@2:
  001d5	81 30 ed ec eb
	ea		 xor	 DWORD PTR [eax], -353637139 ; eaebecedH
  001db	83 c0 04	 add	 eax, 4
  001de	4a		 dec	 edx
  001df	75 f4		 jne	 SHORT $LL104@LoadBool_e@2

; 103  : 		return LoadBool(_k, b);

  001e1	ff 75 0c	 push	 DWORD PTR _b$[ebp]
  001e4	8d 45 e4	 lea	 eax, DWORD PTR __k$[ebp]
  001e7	50		 push	 eax
  001e8	8b ce		 mov	 ecx, esi
  001ea	ff 15 00 00 00
	00		 call	 DWORD PTR __imp_?LoadBool@ioINILoader@@QAE_NPBD_N@Z

; 104  : 	}

  001f0	8b 4d fc	 mov	 ecx, DWORD PTR __$ArrayPad$[ebp]
  001f3	33 cd		 xor	 ecx, ebp
  001f5	5e		 pop	 esi
  001f6	e8 00 00 00 00	 call	 @__security_check_cookie@4
  001fb	c9		 leave
  001fc	c2 08 00	 ret	 8
??$LoadBool_e@$0BB@@ioINILoader@@QAE_NAAY0BB@$$CBD_N@Z ENDP ; ioINILoader::LoadBool_e<17>
_TEXT	ENDS
PUBLIC	__$ArrayPad$
PUBLIC	??$LoadInt_e@$0P@@ioINILoader@@QAEHAAY0P@$$CBDH@Z ; ioINILoader::LoadInt_e<15>
; Function compile flags: /Ogsp
;	COMDAT ??$LoadInt_e@$0P@@ioINILoader@@QAEHAAY0P@$$CBDH@Z
_TEXT	SEGMENT
__k$ = -24						; size = 15
__$ArrayPad$ = -4					; size = 4
_k$ = 8							; size = 4
_i$ = 12						; size = 4
??$LoadInt_e@$0P@@ioINILoader@@QAEHAAY0P@$$CBDH@Z PROC	; ioINILoader::LoadInt_e<15>, COMDAT
; _this$ = ecx

; 118  : 	{

  00000	55		 push	 ebp
  00001	8b ec		 mov	 ebp, esp
  00003	83 ec 18	 sub	 esp, 24			; 00000018H
  00006	a1 00 00 00 00	 mov	 eax, DWORD PTR ___security_cookie
  0000b	33 c5		 xor	 eax, ebp
  0000d	89 45 fc	 mov	 DWORD PTR __$ArrayPad$[ebp], eax
  00010	8b 45 08	 mov	 eax, DWORD PTR _k$[ebp]

; 119  : 		_ENCSTR(k, _k);

  00013	8a 10		 mov	 dl, BYTE PTR [eax]
  00015	56		 push	 esi
  00016	8b f1		 mov	 esi, ecx
  00018	84 d2		 test	 dl, dl
  0001a	0f 84 75 01 00
	00		 je	 $LN96@LoadInt_e@4
  00020	80 f2 ed	 xor	 dl, -19			; ffffffedH
  00023	88 55 e8	 mov	 BYTE PTR __k$[ebp], dl
  00026	8a 50 01	 mov	 dl, BYTE PTR [eax+1]
  00029	84 d2		 test	 dl, dl
  0002b	0f 84 5e 01 00
	00		 je	 $LN95@LoadInt_e@4
  00031	b1 ec		 mov	 cl, -20			; ffffffecH
  00033	32 d1		 xor	 dl, cl
  00035	88 55 e9	 mov	 BYTE PTR __k$[ebp+1], dl
  00038	8a 50 02	 mov	 dl, BYTE PTR [eax+2]
  0003b	84 d2		 test	 dl, dl
  0003d	0f 84 46 01 00
	00		 je	 $LN94@LoadInt_e@4
  00043	80 f2 eb	 xor	 dl, -21			; ffffffebH
  00046	88 55 ea	 mov	 BYTE PTR __k$[ebp+2], dl
  00049	8a 50 03	 mov	 dl, BYTE PTR [eax+3]
  0004c	84 d2		 test	 dl, dl
  0004e	0f 84 2f 01 00
	00		 je	 $LN93@LoadInt_e@4
  00054	80 f2 ea	 xor	 dl, -22			; ffffffeaH
  00057	88 55 eb	 mov	 BYTE PTR __k$[ebp+3], dl
  0005a	8a 50 04	 mov	 dl, BYTE PTR [eax+4]
  0005d	84 d2		 test	 dl, dl
  0005f	0f 84 18 01 00
	00		 je	 $LN92@LoadInt_e@4
  00065	80 f2 ed	 xor	 dl, -19			; ffffffedH
  00068	88 55 ec	 mov	 BYTE PTR __k$[ebp+4], dl
  0006b	8a 50 05	 mov	 dl, BYTE PTR [eax+5]
  0006e	84 d2		 test	 dl, dl
  00070	0f 84 02 01 00
	00		 je	 $LN91@LoadInt_e@4
  00076	32 d1		 xor	 dl, cl
  00078	88 55 ed	 mov	 BYTE PTR __k$[ebp+5], dl
  0007b	8a 50 06	 mov	 dl, BYTE PTR [eax+6]
  0007e	84 d2		 test	 dl, dl
  00080	0f 84 ec 00 00
	00		 je	 $LN90@LoadInt_e@4
  00086	80 f2 eb	 xor	 dl, -21			; ffffffebH
  00089	88 55 ee	 mov	 BYTE PTR __k$[ebp+6], dl
  0008c	8a 50 07	 mov	 dl, BYTE PTR [eax+7]
  0008f	84 d2		 test	 dl, dl
  00091	0f 84 d5 00 00
	00		 je	 $LN89@LoadInt_e@4
  00097	80 f2 ea	 xor	 dl, -22			; ffffffeaH
  0009a	88 55 ef	 mov	 BYTE PTR __k$[ebp+7], dl
  0009d	8a 50 08	 mov	 dl, BYTE PTR [eax+8]
  000a0	84 d2		 test	 dl, dl
  000a2	0f 84 be 00 00
	00		 je	 $LN88@LoadInt_e@4
  000a8	80 f2 ed	 xor	 dl, -19			; ffffffedH
  000ab	88 55 f0	 mov	 BYTE PTR __k$[ebp+8], dl
  000ae	8a 50 09	 mov	 dl, BYTE PTR [eax+9]
  000b1	84 d2		 test	 dl, dl
  000b3	0f 84 a8 00 00
	00		 je	 $LN87@LoadInt_e@4
  000b9	32 d1		 xor	 dl, cl
  000bb	88 55 f1	 mov	 BYTE PTR __k$[ebp+9], dl
  000be	8a 50 0a	 mov	 dl, BYTE PTR [eax+10]
  000c1	84 d2		 test	 dl, dl
  000c3	0f 84 92 00 00
	00		 je	 $LN86@LoadInt_e@4
  000c9	80 f2 eb	 xor	 dl, -21			; ffffffebH
  000cc	88 55 f2	 mov	 BYTE PTR __k$[ebp+10], dl
  000cf	8a 50 0b	 mov	 dl, BYTE PTR [eax+11]
  000d2	84 d2		 test	 dl, dl
  000d4	74 7f		 je	 SHORT $LN85@LoadInt_e@4
  000d6	80 f2 ea	 xor	 dl, -22			; ffffffeaH
  000d9	88 55 f3	 mov	 BYTE PTR __k$[ebp+11], dl
  000dc	8a 50 0c	 mov	 dl, BYTE PTR [eax+12]
  000df	84 d2		 test	 dl, dl
  000e1	74 6c		 je	 SHORT $LN84@LoadInt_e@4
  000e3	80 f2 ed	 xor	 dl, -19			; ffffffedH
  000e6	88 55 f4	 mov	 BYTE PTR __k$[ebp+12], dl
  000e9	8a 50 0d	 mov	 dl, BYTE PTR [eax+13]
  000ec	84 d2		 test	 dl, dl
  000ee	74 5a		 je	 SHORT $LN83@LoadInt_e@4
  000f0	32 d1		 xor	 dl, cl
  000f2	80 78 0e 00	 cmp	 BYTE PTR [eax+14], 0
  000f6	88 55 f5	 mov	 BYTE PTR __k$[ebp+13], dl
  000f9	0f 84 9a 00 00
	00		 je	 $LN1@LoadInt_e@4
  000ff	8a 50 0f	 mov	 dl, BYTE PTR [eax+15]
  00102	84 d2		 test	 dl, dl
  00104	74 3e		 je	 SHORT $LN81@LoadInt_e@4
  00106	80 f2 ea	 xor	 dl, -22			; ffffffeaH
  00109	88 55 f7	 mov	 BYTE PTR __k$[ebp+15], dl
  0010c	8a 50 10	 mov	 dl, BYTE PTR [eax+16]
  0010f	84 d2		 test	 dl, dl
  00111	74 2b		 je	 SHORT $LN80@LoadInt_e@4
  00113	80 f2 ed	 xor	 dl, -19			; ffffffedH
  00116	88 55 f8	 mov	 BYTE PTR __k$[ebp+16], dl
  00119	8a 50 11	 mov	 dl, BYTE PTR [eax+17]
  0011c	84 d2		 test	 dl, dl
  0011e	74 19		 je	 SHORT $LN79@LoadInt_e@4
  00120	8a 40 12	 mov	 al, BYTE PTR [eax+18]
  00123	32 d1		 xor	 dl, cl
  00125	88 55 f9	 mov	 BYTE PTR __k$[ebp+17], dl
  00128	84 c0		 test	 al, al
  0012a	74 07		 je	 SHORT $LN78@LoadInt_e@4
  0012c	34 eb		 xor	 al, -21			; ffffffebH
  0012e	88 45 fa	 mov	 BYTE PTR __k$[ebp+18], al
  00131	eb 66		 jmp	 SHORT $LN1@LoadInt_e@4
$LN78@LoadInt_e@4:
  00133	c6 45 fa eb	 mov	 BYTE PTR __k$[ebp+18], -21 ; ffffffebH
  00137	eb 60		 jmp	 SHORT $LN1@LoadInt_e@4
$LN79@LoadInt_e@4:
  00139	88 4d f9	 mov	 BYTE PTR __k$[ebp+17], cl
  0013c	eb 5b		 jmp	 SHORT $LN1@LoadInt_e@4
$LN80@LoadInt_e@4:
  0013e	c6 45 f8 ed	 mov	 BYTE PTR __k$[ebp+16], -19 ; ffffffedH
  00142	eb 55		 jmp	 SHORT $LN1@LoadInt_e@4
$LN81@LoadInt_e@4:
  00144	c6 45 f7 ea	 mov	 BYTE PTR __k$[ebp+15], -22 ; ffffffeaH
  00148	eb 4f		 jmp	 SHORT $LN1@LoadInt_e@4
$LN83@LoadInt_e@4:
  0014a	88 4d f5	 mov	 BYTE PTR __k$[ebp+13], cl
  0014d	eb 4a		 jmp	 SHORT $LN1@LoadInt_e@4
$LN84@LoadInt_e@4:
  0014f	c6 45 f4 ed	 mov	 BYTE PTR __k$[ebp+12], -19 ; ffffffedH
  00153	eb 44		 jmp	 SHORT $LN1@LoadInt_e@4
$LN85@LoadInt_e@4:
  00155	c6 45 f3 ea	 mov	 BYTE PTR __k$[ebp+11], -22 ; ffffffeaH
  00159	eb 3e		 jmp	 SHORT $LN1@LoadInt_e@4
$LN86@LoadInt_e@4:
  0015b	c6 45 f2 eb	 mov	 BYTE PTR __k$[ebp+10], -21 ; ffffffebH
  0015f	eb 38		 jmp	 SHORT $LN1@LoadInt_e@4
$LN87@LoadInt_e@4:
  00161	88 4d f1	 mov	 BYTE PTR __k$[ebp+9], cl
  00164	eb 33		 jmp	 SHORT $LN1@LoadInt_e@4
$LN88@LoadInt_e@4:
  00166	c6 45 f0 ed	 mov	 BYTE PTR __k$[ebp+8], -19 ; ffffffedH
  0016a	eb 2d		 jmp	 SHORT $LN1@LoadInt_e@4
$LN89@LoadInt_e@4:
  0016c	c6 45 ef ea	 mov	 BYTE PTR __k$[ebp+7], -22 ; ffffffeaH
  00170	eb 27		 jmp	 SHORT $LN1@LoadInt_e@4
$LN90@LoadInt_e@4:
  00172	c6 45 ee eb	 mov	 BYTE PTR __k$[ebp+6], -21 ; ffffffebH
  00176	eb 21		 jmp	 SHORT $LN1@LoadInt_e@4
$LN91@LoadInt_e@4:
  00178	88 4d ed	 mov	 BYTE PTR __k$[ebp+5], cl
  0017b	eb 1c		 jmp	 SHORT $LN1@LoadInt_e@4
$LN92@LoadInt_e@4:
  0017d	c6 45 ec ed	 mov	 BYTE PTR __k$[ebp+4], -19 ; ffffffedH
  00181	eb 16		 jmp	 SHORT $LN1@LoadInt_e@4
$LN93@LoadInt_e@4:
  00183	c6 45 eb ea	 mov	 BYTE PTR __k$[ebp+3], -22 ; ffffffeaH
  00187	eb 10		 jmp	 SHORT $LN1@LoadInt_e@4
$LN94@LoadInt_e@4:
  00189	c6 45 ea eb	 mov	 BYTE PTR __k$[ebp+2], -21 ; ffffffebH
  0018d	eb 0a		 jmp	 SHORT $LN1@LoadInt_e@4
$LN95@LoadInt_e@4:
  0018f	c6 45 e9 ec	 mov	 BYTE PTR __k$[ebp+1], -20 ; ffffffecH
  00193	eb 04		 jmp	 SHORT $LN1@LoadInt_e@4
$LN96@LoadInt_e@4:
  00195	c6 45 e8 ed	 mov	 BYTE PTR __k$[ebp], -19	; ffffffedH
$LN1@LoadInt_e@4:
  00199	6a 03		 push	 3
  0019b	8d 45 e8	 lea	 eax, DWORD PTR __k$[ebp]
  0019e	c6 45 f6 00	 mov	 BYTE PTR __k$[ebp+14], 0
  001a2	5a		 pop	 edx
$LL104@LoadInt_e@4:
  001a3	81 30 ed ec eb
	ea		 xor	 DWORD PTR [eax], -353637139 ; eaebecedH
  001a9	83 c0 04	 add	 eax, 4
  001ac	4a		 dec	 edx
  001ad	75 f4		 jne	 SHORT $LL104@LoadInt_e@4
  001af	6a 0c		 push	 12			; 0000000cH
  001b1	58		 pop	 eax
$LL101@LoadInt_e@4:
  001b2	8b c8		 mov	 ecx, eax
  001b4	81 e1 03 00 00
	80		 and	 ecx, -2147483645	; 80000003H
  001ba	79 05		 jns	 SHORT $LN111@LoadInt_e@4
  001bc	49		 dec	 ecx
  001bd	83 c9 fc	 or	 ecx, -4			; fffffffcH
  001c0	41		 inc	 ecx
$LN111@LoadInt_e@4:
  001c1	b2 ed		 mov	 dl, -19			; ffffffedH
  001c3	2a d1		 sub	 dl, cl
  001c5	30 54 05 e8	 xor	 BYTE PTR __k$[ebp+eax], dl
  001c9	40		 inc	 eax
  001ca	83 f8 0e	 cmp	 eax, 14			; 0000000eH
  001cd	7c e3		 jl	 SHORT $LL101@LoadInt_e@4

; 120  : 		return LoadInt(_k, i);

  001cf	ff 75 0c	 push	 DWORD PTR _i$[ebp]
  001d2	8d 45 e8	 lea	 eax, DWORD PTR __k$[ebp]
  001d5	50		 push	 eax
  001d6	8b ce		 mov	 ecx, esi
  001d8	ff 15 00 00 00
	00		 call	 DWORD PTR __imp_?LoadInt@ioINILoader@@QAEHPBDH@Z

; 121  : 	}

  001de	8b 4d fc	 mov	 ecx, DWORD PTR __$ArrayPad$[ebp]
  001e1	33 cd		 xor	 ecx, ebp
  001e3	5e		 pop	 esi
  001e4	e8 00 00 00 00	 call	 @__security_check_cookie@4
  001e9	c9		 leave
  001ea	c2 08 00	 ret	 8
??$LoadInt_e@$0P@@ioINILoader@@QAEHAAY0P@$$CBDH@Z ENDP	; ioINILoader::LoadInt_e<15>
_TEXT	ENDS
PUBLIC	__$ArrayPad$
PUBLIC	??$LoadAttackAttribute_e@$0BB@@@YAXAAY0BB@$$CBDAAUAttackAttribute@@AAVioINILoader@@@Z ; LoadAttackAttribute_e<17>
; Function compile flags: /Ogsp
; File d:\lost saga for developer\youtube\tutorial\source\src\lsclient\ioattackattribute.h
;	COMDAT ??$LoadAttackAttribute_e@$0BB@@@YAXAAY0BB@$$CBDAAUAttackAttribute@@AAVioINILoader@@@Z
_TEXT	SEGMENT
_szEncAttack$ = -28					; size = 17
__$ArrayPad$ = -4					; size = 4
_szAttack$ = 8						; size = 4
_rkAttribute$ = 12					; size = 4
_rkLoader$ = 16						; size = 4
??$LoadAttackAttribute_e@$0BB@@@YAXAAY0BB@$$CBDAAUAttackAttribute@@AAVioINILoader@@@Z PROC ; LoadAttackAttribute_e<17>, COMDAT

; 131  : {

  00000	55		 push	 ebp
  00001	8b ec		 mov	 ebp, esp
  00003	83 ec 1c	 sub	 esp, 28			; 0000001cH
  00006	a1 00 00 00 00	 mov	 eax, DWORD PTR ___security_cookie
  0000b	33 c5		 xor	 eax, ebp
  0000d	89 45 fc	 mov	 DWORD PTR __$ArrayPad$[ebp], eax
  00010	8b 45 08	 mov	 eax, DWORD PTR _szAttack$[ebp]

; 132  : 	_ENCSTR(szAttack, szEncAttack);

  00013	8a 08		 mov	 cl, BYTE PTR [eax]
  00015	56		 push	 esi
  00016	8b 75 0c	 mov	 esi, DWORD PTR _rkAttribute$[ebp]
  00019	57		 push	 edi
  0001a	8b 7d 10	 mov	 edi, DWORD PTR _rkLoader$[ebp]
  0001d	84 c9		 test	 cl, cl
  0001f	0f 84 a3 01 00
	00		 je	 $LN96@LoadAttack@3
  00025	80 f1 ed	 xor	 cl, -19			; ffffffedH
  00028	88 4d e4	 mov	 BYTE PTR _szEncAttack$[ebp], cl
  0002b	8a 48 01	 mov	 cl, BYTE PTR [eax+1]
  0002e	84 c9		 test	 cl, cl
  00030	0f 84 8c 01 00
	00		 je	 $LN95@LoadAttack@3
  00036	80 f1 ec	 xor	 cl, -20			; ffffffecH
  00039	88 4d e5	 mov	 BYTE PTR _szEncAttack$[ebp+1], cl
  0003c	8a 48 02	 mov	 cl, BYTE PTR [eax+2]
  0003f	84 c9		 test	 cl, cl
  00041	0f 84 75 01 00
	00		 je	 $LN94@LoadAttack@3
  00047	b2 eb		 mov	 dl, -21			; ffffffebH
  00049	32 ca		 xor	 cl, dl
  0004b	88 4d e6	 mov	 BYTE PTR _szEncAttack$[ebp+2], cl
  0004e	8a 48 03	 mov	 cl, BYTE PTR [eax+3]
  00051	84 c9		 test	 cl, cl
  00053	0f 84 5d 01 00
	00		 je	 $LN93@LoadAttack@3
  00059	80 f1 ea	 xor	 cl, -22			; ffffffeaH
  0005c	88 4d e7	 mov	 BYTE PTR _szEncAttack$[ebp+3], cl
  0005f	8a 48 04	 mov	 cl, BYTE PTR [eax+4]
  00062	84 c9		 test	 cl, cl
  00064	0f 84 46 01 00
	00		 je	 $LN92@LoadAttack@3
  0006a	80 f1 ed	 xor	 cl, -19			; ffffffedH
  0006d	88 4d e8	 mov	 BYTE PTR _szEncAttack$[ebp+4], cl
  00070	8a 48 05	 mov	 cl, BYTE PTR [eax+5]
  00073	84 c9		 test	 cl, cl
  00075	0f 84 2f 01 00
	00		 je	 $LN91@LoadAttack@3
  0007b	80 f1 ec	 xor	 cl, -20			; ffffffecH
  0007e	88 4d e9	 mov	 BYTE PTR _szEncAttack$[ebp+5], cl
  00081	8a 48 06	 mov	 cl, BYTE PTR [eax+6]
  00084	84 c9		 test	 cl, cl
  00086	0f 84 19 01 00
	00		 je	 $LN90@LoadAttack@3
  0008c	32 ca		 xor	 cl, dl
  0008e	88 4d ea	 mov	 BYTE PTR _szEncAttack$[ebp+6], cl
  00091	8a 48 07	 mov	 cl, BYTE PTR [eax+7]
  00094	84 c9		 test	 cl, cl
  00096	0f 84 03 01 00
	00		 je	 $LN89@LoadAttack@3
  0009c	80 f1 ea	 xor	 cl, -22			; ffffffeaH
  0009f	88 4d eb	 mov	 BYTE PTR _szEncAttack$[ebp+7], cl
  000a2	8a 48 08	 mov	 cl, BYTE PTR [eax+8]
  000a5	84 c9		 test	 cl, cl
  000a7	0f 84 ec 00 00
	00		 je	 $LN88@LoadAttack@3
  000ad	80 f1 ed	 xor	 cl, -19			; ffffffedH
  000b0	88 4d ec	 mov	 BYTE PTR _szEncAttack$[ebp+8], cl
  000b3	8a 48 09	 mov	 cl, BYTE PTR [eax+9]
  000b6	84 c9		 test	 cl, cl
  000b8	0f 84 d5 00 00
	00		 je	 $LN87@LoadAttack@3
  000be	80 f1 ec	 xor	 cl, -20			; ffffffecH
  000c1	88 4d ed	 mov	 BYTE PTR _szEncAttack$[ebp+9], cl
  000c4	8a 48 0a	 mov	 cl, BYTE PTR [eax+10]
  000c7	84 c9		 test	 cl, cl
  000c9	0f 84 bf 00 00
	00		 je	 $LN86@LoadAttack@3
  000cf	32 ca		 xor	 cl, dl
  000d1	88 4d ee	 mov	 BYTE PTR _szEncAttack$[ebp+10], cl
  000d4	8a 48 0b	 mov	 cl, BYTE PTR [eax+11]
  000d7	84 c9		 test	 cl, cl
  000d9	0f 84 a9 00 00
	00		 je	 $LN85@LoadAttack@3
  000df	80 f1 ea	 xor	 cl, -22			; ffffffeaH
  000e2	88 4d ef	 mov	 BYTE PTR _szEncAttack$[ebp+11], cl
  000e5	8a 48 0c	 mov	 cl, BYTE PTR [eax+12]
  000e8	84 c9		 test	 cl, cl
  000ea	0f 84 92 00 00
	00		 je	 $LN84@LoadAttack@3
  000f0	80 f1 ed	 xor	 cl, -19			; ffffffedH
  000f3	88 4d f0	 mov	 BYTE PTR _szEncAttack$[ebp+12], cl
  000f6	8a 48 0d	 mov	 cl, BYTE PTR [eax+13]
  000f9	84 c9		 test	 cl, cl
  000fb	74 7f		 je	 SHORT $LN83@LoadAttack@3
  000fd	80 f1 ec	 xor	 cl, -20			; ffffffecH
  00100	88 4d f1	 mov	 BYTE PTR _szEncAttack$[ebp+13], cl
  00103	8a 48 0e	 mov	 cl, BYTE PTR [eax+14]
  00106	84 c9		 test	 cl, cl
  00108	74 6d		 je	 SHORT $LN82@LoadAttack@3
  0010a	32 ca		 xor	 cl, dl
  0010c	88 4d f2	 mov	 BYTE PTR _szEncAttack$[ebp+14], cl
  0010f	8a 48 0f	 mov	 cl, BYTE PTR [eax+15]
  00112	84 c9		 test	 cl, cl
  00114	74 5b		 je	 SHORT $LN81@LoadAttack@3
  00116	80 f1 ea	 xor	 cl, -22			; ffffffeaH
  00119	80 78 10 00	 cmp	 BYTE PTR [eax+16], 0
  0011d	88 4d f3	 mov	 BYTE PTR _szEncAttack$[ebp+15], cl
  00120	0f 84 a6 00 00
	00		 je	 $LN1@LoadAttack@3
  00126	8a 48 11	 mov	 cl, BYTE PTR [eax+17]
  00129	84 c9		 test	 cl, cl
  0012b	74 3e		 je	 SHORT $LN79@LoadAttack@3
  0012d	80 f1 ec	 xor	 cl, -20			; ffffffecH
  00130	88 4d f5	 mov	 BYTE PTR _szEncAttack$[ebp+17], cl
  00133	8a 48 12	 mov	 cl, BYTE PTR [eax+18]
  00136	84 c9		 test	 cl, cl
  00138	74 2c		 je	 SHORT $LN78@LoadAttack@3
  0013a	32 ca		 xor	 cl, dl
  0013c	88 4d f6	 mov	 BYTE PTR _szEncAttack$[ebp+18], cl
  0013f	8a 48 13	 mov	 cl, BYTE PTR [eax+19]
  00142	84 c9		 test	 cl, cl
  00144	74 1a		 je	 SHORT $LN77@LoadAttack@3
  00146	8a 40 14	 mov	 al, BYTE PTR [eax+20]
  00149	80 f1 ea	 xor	 cl, -22			; ffffffeaH
  0014c	88 4d f7	 mov	 BYTE PTR _szEncAttack$[ebp+19], cl
  0014f	84 c0		 test	 al, al
  00151	74 07		 je	 SHORT $LN76@LoadAttack@3
  00153	34 ed		 xor	 al, -19			; ffffffedH
  00155	88 45 f8	 mov	 BYTE PTR _szEncAttack$[ebp+20], al
  00158	eb 72		 jmp	 SHORT $LN1@LoadAttack@3
$LN76@LoadAttack@3:
  0015a	c6 45 f8 ed	 mov	 BYTE PTR _szEncAttack$[ebp+20], -19 ; ffffffedH
  0015e	eb 6c		 jmp	 SHORT $LN1@LoadAttack@3
$LN77@LoadAttack@3:
  00160	c6 45 f7 ea	 mov	 BYTE PTR _szEncAttack$[ebp+19], -22 ; ffffffeaH
  00164	eb 66		 jmp	 SHORT $LN1@LoadAttack@3
$LN78@LoadAttack@3:
  00166	88 55 f6	 mov	 BYTE PTR _szEncAttack$[ebp+18], dl
  00169	eb 61		 jmp	 SHORT $LN1@LoadAttack@3
$LN79@LoadAttack@3:
  0016b	c6 45 f5 ec	 mov	 BYTE PTR _szEncAttack$[ebp+17], -20 ; ffffffecH
  0016f	eb 5b		 jmp	 SHORT $LN1@LoadAttack@3
$LN81@LoadAttack@3:
  00171	c6 45 f3 ea	 mov	 BYTE PTR _szEncAttack$[ebp+15], -22 ; ffffffeaH
  00175	eb 55		 jmp	 SHORT $LN1@LoadAttack@3
$LN82@LoadAttack@3:
  00177	88 55 f2	 mov	 BYTE PTR _szEncAttack$[ebp+14], dl
  0017a	eb 50		 jmp	 SHORT $LN1@LoadAttack@3
$LN83@LoadAttack@3:
  0017c	c6 45 f1 ec	 mov	 BYTE PTR _szEncAttack$[ebp+13], -20 ; ffffffecH
  00180	eb 4a		 jmp	 SHORT $LN1@LoadAttack@3
$LN84@LoadAttack@3:
  00182	c6 45 f0 ed	 mov	 BYTE PTR _szEncAttack$[ebp+12], -19 ; ffffffedH
  00186	eb 44		 jmp	 SHORT $LN1@LoadAttack@3
$LN85@LoadAttack@3:
  00188	c6 45 ef ea	 mov	 BYTE PTR _szEncAttack$[ebp+11], -22 ; ffffffeaH
  0018c	eb 3e		 jmp	 SHORT $LN1@LoadAttack@3
$LN86@LoadAttack@3:
  0018e	88 55 ee	 mov	 BYTE PTR _szEncAttack$[ebp+10], dl
  00191	eb 39		 jmp	 SHORT $LN1@LoadAttack@3
$LN87@LoadAttack@3:
  00193	c6 45 ed ec	 mov	 BYTE PTR _szEncAttack$[ebp+9], -20 ; ffffffecH
  00197	eb 33		 jmp	 SHORT $LN1@LoadAttack@3
$LN88@LoadAttack@3:
  00199	c6 45 ec ed	 mov	 BYTE PTR _szEncAttack$[ebp+8], -19 ; ffffffedH
  0019d	eb 2d		 jmp	 SHORT $LN1@LoadAttack@3
$LN89@LoadAttack@3:
  0019f	c6 45 eb ea	 mov	 BYTE PTR _szEncAttack$[ebp+7], -22 ; ffffffeaH
  001a3	eb 27		 jmp	 SHORT $LN1@LoadAttack@3
$LN90@LoadAttack@3:
  001a5	88 55 ea	 mov	 BYTE PTR _szEncAttack$[ebp+6], dl
  001a8	eb 22		 jmp	 SHORT $LN1@LoadAttack@3
$LN91@LoadAttack@3:
  001aa	c6 45 e9 ec	 mov	 BYTE PTR _szEncAttack$[ebp+5], -20 ; ffffffecH
  001ae	eb 1c		 jmp	 SHORT $LN1@LoadAttack@3
$LN92@LoadAttack@3:
  001b0	c6 45 e8 ed	 mov	 BYTE PTR _szEncAttack$[ebp+4], -19 ; ffffffedH
  001b4	eb 16		 jmp	 SHORT $LN1@LoadAttack@3
$LN93@LoadAttack@3:
  001b6	c6 45 e7 ea	 mov	 BYTE PTR _szEncAttack$[ebp+3], -22 ; ffffffeaH
  001ba	eb 10		 jmp	 SHORT $LN1@LoadAttack@3
$LN94@LoadAttack@3:
  001bc	c6 45 e6 eb	 mov	 BYTE PTR _szEncAttack$[ebp+2], -21 ; ffffffebH
  001c0	eb 0a		 jmp	 SHORT $LN1@LoadAttack@3
$LN95@LoadAttack@3:
  001c2	c6 45 e5 ec	 mov	 BYTE PTR _szEncAttack$[ebp+1], -20 ; ffffffecH
  001c6	eb 04		 jmp	 SHORT $LN1@LoadAttack@3
$LN96@LoadAttack@3:
  001c8	c6 45 e4 ed	 mov	 BYTE PTR _szEncAttack$[ebp], -19 ; ffffffedH
$LN1@LoadAttack@3:
  001cc	6a 04		 push	 4
  001ce	8d 45 e4	 lea	 eax, DWORD PTR _szEncAttack$[ebp]
  001d1	c6 45 f4 00	 mov	 BYTE PTR _szEncAttack$[ebp+16], 0
  001d5	59		 pop	 ecx
$LL104@LoadAttack@3:
  001d6	81 30 ed ec eb
	ea		 xor	 DWORD PTR [eax], -353637139 ; eaebecedH
  001dc	83 c0 04	 add	 eax, 4
  001df	49		 dec	 ecx
  001e0	75 f4		 jne	 SHORT $LL104@LoadAttack@3

; 133  : 	LoadAttackAttribute(szEncAttack, rkAttribute, rkLoader);

  001e2	57		 push	 edi
  001e3	8d 45 e4	 lea	 eax, DWORD PTR _szEncAttack$[ebp]
  001e6	56		 push	 esi
  001e7	50		 push	 eax
  001e8	e8 00 00 00 00	 call	 ?LoadAttackAttribute@@YAXPBDAAUAttackAttribute@@AAVioINILoader@@@Z ; LoadAttackAttribute

; 134  : }

  001ed	8b 4d fc	 mov	 ecx, DWORD PTR __$ArrayPad$[ebp]
  001f0	83 c4 0c	 add	 esp, 12			; 0000000cH
  001f3	5f		 pop	 edi
  001f4	33 cd		 xor	 ecx, ebp
  001f6	5e		 pop	 esi
  001f7	e8 00 00 00 00	 call	 @__security_check_cookie@4
  001fc	c9		 leave
  001fd	c3		 ret	 0
??$LoadAttackAttribute_e@$0BB@@@YAXAAY0BB@$$CBDAAUAttackAttribute@@AAVioINILoader@@@Z ENDP ; LoadAttackAttribute_e<17>
_TEXT	ENDS
PUBLIC	_this$GSCopy$
PUBLIC	__$ArrayPad$
PUBLIC	??$LoadString_e@$0BD@@ioINILoader@@QAEXAAY0BD@$$CBDAAY00$$CBDPADH@Z ; ioINILoader::LoadString_e<19>
; Function compile flags: /Ogsp
; File d:\lost saga for developer\youtube\tutorial\source\src\io3dengine\ioiniloader.h
;	COMDAT ??$LoadString_e@$0BD@@ioINILoader@@QAEXAAY0BD@$$CBDAAY00$$CBDPADH@Z
_TEXT	SEGMENT
_this$GSCopy$ = -32					; size = 4
__k$ = -28						; size = 19
__$ArrayPad$ = -4					; size = 4
_k$ = 8							; size = 4
_d$ = 12						; size = 4
_b$ = 16						; size = 4
_i$ = 20						; size = 4
??$LoadString_e@$0BD@@ioINILoader@@QAEXAAY0BD@$$CBDAAY00$$CBDPADH@Z PROC ; ioINILoader::LoadString_e<19>, COMDAT
; _this$ = ecx

; 161  : 	{

  00000	55		 push	 ebp
  00001	8b ec		 mov	 ebp, esp
  00003	83 ec 20	 sub	 esp, 32			; 00000020H
  00006	a1 00 00 00 00	 mov	 eax, DWORD PTR ___security_cookie
  0000b	33 c5		 xor	 eax, ebp
  0000d	89 45 fc	 mov	 DWORD PTR __$ArrayPad$[ebp], eax
  00010	8b 45 08	 mov	 eax, DWORD PTR _k$[ebp]

; 162  : 		_ENCSTR(k, _k);

  00013	8a 10		 mov	 dl, BYTE PTR [eax]
  00015	56		 push	 esi
  00016	8b 75 0c	 mov	 esi, DWORD PTR _d$[ebp]
  00019	57		 push	 edi
  0001a	8b 7d 10	 mov	 edi, DWORD PTR _b$[ebp]
  0001d	89 4d e0	 mov	 DWORD PTR _this$GSCopy$[ebp], ecx
  00020	84 d2		 test	 dl, dl
  00022	0f 84 cf 01 00
	00		 je	 $LN96@LoadString@3
  00028	80 f2 ed	 xor	 dl, -19			; ffffffedH
  0002b	88 55 e4	 mov	 BYTE PTR __k$[ebp], dl
  0002e	8a 50 01	 mov	 dl, BYTE PTR [eax+1]
  00031	84 d2		 test	 dl, dl
  00033	0f 84 b8 01 00
	00		 je	 $LN95@LoadString@3
  00039	b1 ec		 mov	 cl, -20			; ffffffecH
  0003b	32 d1		 xor	 dl, cl
  0003d	88 55 e5	 mov	 BYTE PTR __k$[ebp+1], dl
  00040	8a 50 02	 mov	 dl, BYTE PTR [eax+2]
  00043	84 d2		 test	 dl, dl
  00045	0f 84 a0 01 00
	00		 je	 $LN94@LoadString@3
  0004b	80 f2 eb	 xor	 dl, -21			; ffffffebH
  0004e	88 55 e6	 mov	 BYTE PTR __k$[ebp+2], dl
  00051	8a 50 03	 mov	 dl, BYTE PTR [eax+3]
  00054	84 d2		 test	 dl, dl
  00056	0f 84 89 01 00
	00		 je	 $LN93@LoadString@3
  0005c	80 f2 ea	 xor	 dl, -22			; ffffffeaH
  0005f	88 55 e7	 mov	 BYTE PTR __k$[ebp+3], dl
  00062	8a 50 04	 mov	 dl, BYTE PTR [eax+4]
  00065	84 d2		 test	 dl, dl
  00067	0f 84 72 01 00
	00		 je	 $LN92@LoadString@3
  0006d	80 f2 ed	 xor	 dl, -19			; ffffffedH
  00070	88 55 e8	 mov	 BYTE PTR __k$[ebp+4], dl
  00073	8a 50 05	 mov	 dl, BYTE PTR [eax+5]
  00076	84 d2		 test	 dl, dl
  00078	0f 84 5c 01 00
	00		 je	 $LN91@LoadString@3
  0007e	32 d1		 xor	 dl, cl
  00080	88 55 e9	 mov	 BYTE PTR __k$[ebp+5], dl
  00083	8a 50 06	 mov	 dl, BYTE PTR [eax+6]
  00086	84 d2		 test	 dl, dl
  00088	0f 84 46 01 00
	00		 je	 $LN90@LoadString@3
  0008e	80 f2 eb	 xor	 dl, -21			; ffffffebH
  00091	88 55 ea	 mov	 BYTE PTR __k$[ebp+6], dl
  00094	8a 50 07	 mov	 dl, BYTE PTR [eax+7]
  00097	84 d2		 test	 dl, dl
  00099	0f 84 2f 01 00
	00		 je	 $LN89@LoadString@3
  0009f	80 f2 ea	 xor	 dl, -22			; ffffffeaH
  000a2	88 55 eb	 mov	 BYTE PTR __k$[ebp+7], dl
  000a5	8a 50 08	 mov	 dl, BYTE PTR [eax+8]
  000a8	84 d2		 test	 dl, dl
  000aa	0f 84 18 01 00
	00		 je	 $LN88@LoadString@3
  000b0	80 f2 ed	 xor	 dl, -19			; ffffffedH
  000b3	88 55 ec	 mov	 BYTE PTR __k$[ebp+8], dl
  000b6	8a 50 09	 mov	 dl, BYTE PTR [eax+9]
  000b9	84 d2		 test	 dl, dl
  000bb	0f 84 02 01 00
	00		 je	 $LN87@LoadString@3
  000c1	32 d1		 xor	 dl, cl
  000c3	88 55 ed	 mov	 BYTE PTR __k$[ebp+9], dl
  000c6	8a 50 0a	 mov	 dl, BYTE PTR [eax+10]
  000c9	84 d2		 test	 dl, dl
  000cb	0f 84 ec 00 00
	00		 je	 $LN86@LoadString@3
  000d1	80 f2 eb	 xor	 dl, -21			; ffffffebH
  000d4	88 55 ee	 mov	 BYTE PTR __k$[ebp+10], dl
  000d7	8a 50 0b	 mov	 dl, BYTE PTR [eax+11]
  000da	84 d2		 test	 dl, dl
  000dc	0f 84 d5 00 00
	00		 je	 $LN85@LoadString@3
  000e2	80 f2 ea	 xor	 dl, -22			; ffffffeaH
  000e5	88 55 ef	 mov	 BYTE PTR __k$[ebp+11], dl
  000e8	8a 50 0c	 mov	 dl, BYTE PTR [eax+12]
  000eb	84 d2		 test	 dl, dl
  000ed	0f 84 be 00 00
	00		 je	 $LN84@LoadString@3
  000f3	80 f2 ed	 xor	 dl, -19			; ffffffedH
  000f6	88 55 f0	 mov	 BYTE PTR __k$[ebp+12], dl
  000f9	8a 50 0d	 mov	 dl, BYTE PTR [eax+13]
  000fc	84 d2		 test	 dl, dl
  000fe	0f 84 a8 00 00
	00		 je	 $LN83@LoadString@3
  00104	32 d1		 xor	 dl, cl
  00106	88 55 f1	 mov	 BYTE PTR __k$[ebp+13], dl
  00109	8a 50 0e	 mov	 dl, BYTE PTR [eax+14]
  0010c	84 d2		 test	 dl, dl
  0010e	0f 84 92 00 00
	00		 je	 $LN82@LoadString@3
  00114	80 f2 eb	 xor	 dl, -21			; ffffffebH
  00117	88 55 f2	 mov	 BYTE PTR __k$[ebp+14], dl
  0011a	8a 50 0f	 mov	 dl, BYTE PTR [eax+15]
  0011d	84 d2		 test	 dl, dl
  0011f	74 7f		 je	 SHORT $LN81@LoadString@3
  00121	80 f2 ea	 xor	 dl, -22			; ffffffeaH
  00124	88 55 f3	 mov	 BYTE PTR __k$[ebp+15], dl
  00127	8a 50 10	 mov	 dl, BYTE PTR [eax+16]
  0012a	84 d2		 test	 dl, dl
  0012c	74 6c		 je	 SHORT $LN80@LoadString@3
  0012e	80 f2 ed	 xor	 dl, -19			; ffffffedH
  00131	88 55 f4	 mov	 BYTE PTR __k$[ebp+16], dl
  00134	8a 50 11	 mov	 dl, BYTE PTR [eax+17]
  00137	84 d2		 test	 dl, dl
  00139	74 5a		 je	 SHORT $LN79@LoadString@3
  0013b	32 d1		 xor	 dl, cl
  0013d	80 78 12 00	 cmp	 BYTE PTR [eax+18], 0
  00141	88 55 f5	 mov	 BYTE PTR __k$[ebp+17], dl
  00144	0f 84 b1 00 00
	00		 je	 $LN111@LoadString@3
  0014a	8a 50 13	 mov	 dl, BYTE PTR [eax+19]
  0014d	84 d2		 test	 dl, dl
  0014f	74 3e		 je	 SHORT $LN77@LoadString@3
  00151	80 f2 ea	 xor	 dl, -22			; ffffffeaH
  00154	88 55 f7	 mov	 BYTE PTR __k$[ebp+19], dl
  00157	8a 50 14	 mov	 dl, BYTE PTR [eax+20]
  0015a	84 d2		 test	 dl, dl
  0015c	74 2b		 je	 SHORT $LN76@LoadString@3
  0015e	80 f2 ed	 xor	 dl, -19			; ffffffedH
  00161	88 55 f8	 mov	 BYTE PTR __k$[ebp+20], dl
  00164	8a 50 15	 mov	 dl, BYTE PTR [eax+21]
  00167	84 d2		 test	 dl, dl
  00169	74 19		 je	 SHORT $LN75@LoadString@3
  0016b	8a 40 16	 mov	 al, BYTE PTR [eax+22]
  0016e	32 d1		 xor	 dl, cl
  00170	88 55 f9	 mov	 BYTE PTR __k$[ebp+21], dl
  00173	84 c0		 test	 al, al
  00175	74 07		 je	 SHORT $LN74@LoadString@3
  00177	34 eb		 xor	 al, -21			; ffffffebH
  00179	88 45 fa	 mov	 BYTE PTR __k$[ebp+22], al
  0017c	eb 7d		 jmp	 SHORT $LN111@LoadString@3
$LN74@LoadString@3:
  0017e	c6 45 fa eb	 mov	 BYTE PTR __k$[ebp+22], -21 ; ffffffebH
  00182	eb 77		 jmp	 SHORT $LN111@LoadString@3
$LN75@LoadString@3:
  00184	88 4d f9	 mov	 BYTE PTR __k$[ebp+21], cl
  00187	eb 72		 jmp	 SHORT $LN111@LoadString@3
$LN76@LoadString@3:
  00189	c6 45 f8 ed	 mov	 BYTE PTR __k$[ebp+20], -19 ; ffffffedH
  0018d	eb 6c		 jmp	 SHORT $LN111@LoadString@3
$LN77@LoadString@3:
  0018f	c6 45 f7 ea	 mov	 BYTE PTR __k$[ebp+19], -22 ; ffffffeaH
  00193	eb 66		 jmp	 SHORT $LN111@LoadString@3
$LN79@LoadString@3:
  00195	88 4d f5	 mov	 BYTE PTR __k$[ebp+17], cl
  00198	eb 61		 jmp	 SHORT $LN111@LoadString@3
$LN80@LoadString@3:
  0019a	c6 45 f4 ed	 mov	 BYTE PTR __k$[ebp+16], -19 ; ffffffedH
  0019e	eb 5b		 jmp	 SHORT $LN111@LoadString@3
$LN81@LoadString@3:
  001a0	c6 45 f3 ea	 mov	 BYTE PTR __k$[ebp+15], -22 ; ffffffeaH
  001a4	eb 55		 jmp	 SHORT $LN111@LoadString@3
$LN82@LoadString@3:
  001a6	c6 45 f2 eb	 mov	 BYTE PTR __k$[ebp+14], -21 ; ffffffebH
  001aa	eb 4f		 jmp	 SHORT $LN111@LoadString@3
$LN83@LoadString@3:
  001ac	88 4d f1	 mov	 BYTE PTR __k$[ebp+13], cl
  001af	eb 4a		 jmp	 SHORT $LN111@LoadString@3
$LN84@LoadString@3:
  001b1	c6 45 f0 ed	 mov	 BYTE PTR __k$[ebp+12], -19 ; ffffffedH
  001b5	eb 44		 jmp	 SHORT $LN111@LoadString@3
$LN85@LoadString@3:
  001b7	c6 45 ef ea	 mov	 BYTE PTR __k$[ebp+11], -22 ; ffffffeaH
  001bb	eb 3e		 jmp	 SHORT $LN111@LoadString@3
$LN86@LoadString@3:
  001bd	c6 45 ee eb	 mov	 BYTE PTR __k$[ebp+10], -21 ; ffffffebH
  001c1	eb 38		 jmp	 SHORT $LN111@LoadString@3
$LN87@LoadString@3:
  001c3	88 4d ed	 mov	 BYTE PTR __k$[ebp+9], cl
  001c6	eb 33		 jmp	 SHORT $LN111@LoadString@3
$LN88@LoadString@3:
  001c8	c6 45 ec ed	 mov	 BYTE PTR __k$[ebp+8], -19 ; ffffffedH
  001cc	eb 2d		 jmp	 SHORT $LN111@LoadString@3
$LN89@LoadString@3:
  001ce	c6 45 eb ea	 mov	 BYTE PTR __k$[ebp+7], -22 ; ffffffeaH
  001d2	eb 27		 jmp	 SHORT $LN111@LoadString@3
$LN90@LoadString@3:
  001d4	c6 45 ea eb	 mov	 BYTE PTR __k$[ebp+6], -21 ; ffffffebH
  001d8	eb 21		 jmp	 SHORT $LN111@LoadString@3
$LN91@LoadString@3:
  001da	88 4d e9	 mov	 BYTE PTR __k$[ebp+5], cl
  001dd	eb 1c		 jmp	 SHORT $LN111@LoadString@3
$LN92@LoadString@3:
  001df	c6 45 e8 ed	 mov	 BYTE PTR __k$[ebp+4], -19 ; ffffffedH
  001e3	eb 16		 jmp	 SHORT $LN111@LoadString@3
$LN93@LoadString@3:
  001e5	c6 45 e7 ea	 mov	 BYTE PTR __k$[ebp+3], -22 ; ffffffeaH
  001e9	eb 10		 jmp	 SHORT $LN111@LoadString@3
$LN94@LoadString@3:
  001eb	c6 45 e6 eb	 mov	 BYTE PTR __k$[ebp+2], -21 ; ffffffebH
  001ef	eb 0a		 jmp	 SHORT $LN111@LoadString@3
$LN95@LoadString@3:
  001f1	c6 45 e5 ec	 mov	 BYTE PTR __k$[ebp+1], -20 ; ffffffecH
  001f5	eb 04		 jmp	 SHORT $LN111@LoadString@3
$LN96@LoadString@3:
  001f7	c6 45 e4 ed	 mov	 BYTE PTR __k$[ebp], -19	; ffffffedH
$LN111@LoadString@3:
  001fb	6a 04		 push	 4
  001fd	8d 45 e4	 lea	 eax, DWORD PTR __k$[ebp]
  00200	c6 45 f6 00	 mov	 BYTE PTR __k$[ebp+18], 0
  00204	5a		 pop	 edx
$LL104@LoadString@3:
  00205	81 30 ed ec eb
	ea		 xor	 DWORD PTR [eax], -353637139 ; eaebecedH
  0020b	83 c0 04	 add	 eax, 4
  0020e	4a		 dec	 edx
  0020f	75 f4		 jne	 SHORT $LL104@LoadString@3
  00211	6a 10		 push	 16			; 00000010H
  00213	58		 pop	 eax
$LL101@LoadString@3:
  00214	8b c8		 mov	 ecx, eax
  00216	81 e1 03 00 00
	80		 and	 ecx, -2147483645	; 80000003H
  0021c	79 05		 jns	 SHORT $LN112@LoadString@3
  0021e	49		 dec	 ecx
  0021f	83 c9 fc	 or	 ecx, -4			; fffffffcH
  00222	41		 inc	 ecx
$LN112@LoadString@3:
  00223	b2 ed		 mov	 dl, -19			; ffffffedH
  00225	2a d1		 sub	 dl, cl
  00227	30 54 05 e4	 xor	 BYTE PTR __k$[ebp+eax], dl
  0022b	40		 inc	 eax
  0022c	83 f8 12	 cmp	 eax, 18			; 00000012H
  0022f	7c e3		 jl	 SHORT $LL101@LoadString@3

; 163  : 		LoadString(_k, d, b, i);

  00231	ff 75 14	 push	 DWORD PTR _i$[ebp]
  00234	8b 4d e0	 mov	 ecx, DWORD PTR _this$GSCopy$[ebp]
  00237	57		 push	 edi
  00238	56		 push	 esi
  00239	8d 45 e4	 lea	 eax, DWORD PTR __k$[ebp]
  0023c	50		 push	 eax
  0023d	ff 15 00 00 00
	00		 call	 DWORD PTR __imp_?LoadStringA@ioINILoader@@QAEXPBD0PADH@Z

; 164  : 	}

  00243	8b 4d fc	 mov	 ecx, DWORD PTR __$ArrayPad$[ebp]
  00246	5f		 pop	 edi
  00247	33 cd		 xor	 ecx, ebp
  00249	5e		 pop	 esi
  0024a	e8 00 00 00 00	 call	 @__security_check_cookie@4
  0024f	c9		 leave
  00250	c2 10 00	 ret	 16			; 00000010H
??$LoadString_e@$0BD@@ioINILoader@@QAEXAAY0BD@$$CBDAAY00$$CBDPADH@Z ENDP ; ioINILoader::LoadString_e<19>
_TEXT	ENDS
PUBLIC	__$ArrayPad$
PUBLIC	??$LoadFloat_e@$0BI@@ioINILoader@@QAEMAAY0BI@$$CBDM@Z ; ioINILoader::LoadFloat_e<24>
; Function compile flags: /Ogsp
;	COMDAT ??$LoadFloat_e@$0BI@@ioINILoader@@QAEMAAY0BI@$$CBDM@Z
_TEXT	SEGMENT
__k$ = -32						; size = 24
__$ArrayPad$ = -4					; size = 4
_k$ = 8							; size = 4
_f$ = 12						; size = 4
??$LoadFloat_e@$0BI@@ioINILoader@@QAEMAAY0BI@$$CBDM@Z PROC ; ioINILoader::LoadFloat_e<24>, COMDAT
; _this$ = ecx

; 135  : 	{

  00000	55		 push	 ebp
  00001	8b ec		 mov	 ebp, esp
  00003	83 ec 20	 sub	 esp, 32			; 00000020H
  00006	a1 00 00 00 00	 mov	 eax, DWORD PTR ___security_cookie
  0000b	33 c5		 xor	 eax, ebp
  0000d	89 45 fc	 mov	 DWORD PTR __$ArrayPad$[ebp], eax
  00010	8b 45 08	 mov	 eax, DWORD PTR _k$[ebp]

; 136  : 		_ENCSTR(k, _k);

  00013	8a 10		 mov	 dl, BYTE PTR [eax]
  00015	53		 push	 ebx
  00016	56		 push	 esi
  00017	8b f1		 mov	 esi, ecx
  00019	84 d2		 test	 dl, dl
  0001b	0f 84 45 02 00
	00		 je	 $LN96@LoadFloat_@8
  00021	80 f2 ed	 xor	 dl, -19			; ffffffedH
  00024	88 55 e0	 mov	 BYTE PTR __k$[ebp], dl
  00027	8a 50 01	 mov	 dl, BYTE PTR [eax+1]
  0002a	84 d2		 test	 dl, dl
  0002c	0f 84 2e 02 00
	00		 je	 $LN95@LoadFloat_@8
  00032	b3 ec		 mov	 bl, -20			; ffffffecH
  00034	32 d3		 xor	 dl, bl
  00036	88 55 e1	 mov	 BYTE PTR __k$[ebp+1], dl
  00039	8a 50 02	 mov	 dl, BYTE PTR [eax+2]
  0003c	84 d2		 test	 dl, dl
  0003e	0f 84 16 02 00
	00		 je	 $LN94@LoadFloat_@8
  00044	b1 eb		 mov	 cl, -21			; ffffffebH
  00046	32 d1		 xor	 dl, cl
  00048	88 55 e2	 mov	 BYTE PTR __k$[ebp+2], dl
  0004b	8a 50 03	 mov	 dl, BYTE PTR [eax+3]
  0004e	84 d2		 test	 dl, dl
  00050	0f 84 fe 01 00
	00		 je	 $LN93@LoadFloat_@8
  00056	80 f2 ea	 xor	 dl, -22			; ffffffeaH
  00059	88 55 e3	 mov	 BYTE PTR __k$[ebp+3], dl
  0005c	8a 50 04	 mov	 dl, BYTE PTR [eax+4]
  0005f	84 d2		 test	 dl, dl
  00061	0f 84 e7 01 00
	00		 je	 $LN92@LoadFloat_@8
  00067	80 f2 ed	 xor	 dl, -19			; ffffffedH
  0006a	88 55 e4	 mov	 BYTE PTR __k$[ebp+4], dl
  0006d	8a 50 05	 mov	 dl, BYTE PTR [eax+5]
  00070	84 d2		 test	 dl, dl
  00072	0f 84 d1 01 00
	00		 je	 $LN91@LoadFloat_@8
  00078	32 d3		 xor	 dl, bl
  0007a	88 55 e5	 mov	 BYTE PTR __k$[ebp+5], dl
  0007d	8a 50 06	 mov	 dl, BYTE PTR [eax+6]
  00080	84 d2		 test	 dl, dl
  00082	0f 84 bc 01 00
	00		 je	 $LN90@LoadFloat_@8
  00088	32 d1		 xor	 dl, cl
  0008a	88 55 e6	 mov	 BYTE PTR __k$[ebp+6], dl
  0008d	8a 50 07	 mov	 dl, BYTE PTR [eax+7]
  00090	84 d2		 test	 dl, dl
  00092	0f 84 a6 01 00
	00		 je	 $LN89@LoadFloat_@8
  00098	80 f2 ea	 xor	 dl, -22			; ffffffeaH
  0009b	88 55 e7	 mov	 BYTE PTR __k$[ebp+7], dl
  0009e	8a 50 08	 mov	 dl, BYTE PTR [eax+8]
  000a1	84 d2		 test	 dl, dl
  000a3	0f 84 8f 01 00
	00		 je	 $LN88@LoadFloat_@8
  000a9	80 f2 ed	 xor	 dl, -19			; ffffffedH
  000ac	88 55 e8	 mov	 BYTE PTR __k$[ebp+8], dl
  000af	8a 50 09	 mov	 dl, BYTE PTR [eax+9]
  000b2	84 d2		 test	 dl, dl
  000b4	0f 84 79 01 00
	00		 je	 $LN87@LoadFloat_@8
  000ba	32 d3		 xor	 dl, bl
  000bc	88 55 e9	 mov	 BYTE PTR __k$[ebp+9], dl
  000bf	8a 50 0a	 mov	 dl, BYTE PTR [eax+10]
  000c2	84 d2		 test	 dl, dl
  000c4	0f 84 64 01 00
	00		 je	 $LN86@LoadFloat_@8
  000ca	32 d1		 xor	 dl, cl
  000cc	88 55 ea	 mov	 BYTE PTR __k$[ebp+10], dl
  000cf	8a 50 0b	 mov	 dl, BYTE PTR [eax+11]
  000d2	84 d2		 test	 dl, dl
  000d4	0f 84 4e 01 00
	00		 je	 $LN85@LoadFloat_@8
  000da	80 f2 ea	 xor	 dl, -22			; ffffffeaH
  000dd	88 55 eb	 mov	 BYTE PTR __k$[ebp+11], dl
  000e0	8a 50 0c	 mov	 dl, BYTE PTR [eax+12]
  000e3	84 d2		 test	 dl, dl
  000e5	0f 84 37 01 00
	00		 je	 $LN84@LoadFloat_@8
  000eb	80 f2 ed	 xor	 dl, -19			; ffffffedH
  000ee	88 55 ec	 mov	 BYTE PTR __k$[ebp+12], dl
  000f1	8a 50 0d	 mov	 dl, BYTE PTR [eax+13]
  000f4	84 d2		 test	 dl, dl
  000f6	0f 84 21 01 00
	00		 je	 $LN83@LoadFloat_@8
  000fc	32 d3		 xor	 dl, bl
  000fe	88 55 ed	 mov	 BYTE PTR __k$[ebp+13], dl
  00101	8a 50 0e	 mov	 dl, BYTE PTR [eax+14]
  00104	84 d2		 test	 dl, dl
  00106	0f 84 0c 01 00
	00		 je	 $LN82@LoadFloat_@8
  0010c	32 d1		 xor	 dl, cl
  0010e	88 55 ee	 mov	 BYTE PTR __k$[ebp+14], dl
  00111	8a 50 0f	 mov	 dl, BYTE PTR [eax+15]
  00114	84 d2		 test	 dl, dl
  00116	0f 84 f6 00 00
	00		 je	 $LN81@LoadFloat_@8
  0011c	80 f2 ea	 xor	 dl, -22			; ffffffeaH
  0011f	88 55 ef	 mov	 BYTE PTR __k$[ebp+15], dl
  00122	8a 50 10	 mov	 dl, BYTE PTR [eax+16]
  00125	84 d2		 test	 dl, dl
  00127	0f 84 df 00 00
	00		 je	 $LN80@LoadFloat_@8
  0012d	80 f2 ed	 xor	 dl, -19			; ffffffedH
  00130	88 55 f0	 mov	 BYTE PTR __k$[ebp+16], dl
  00133	8a 50 11	 mov	 dl, BYTE PTR [eax+17]
  00136	84 d2		 test	 dl, dl
  00138	0f 84 c9 00 00
	00		 je	 $LN79@LoadFloat_@8
  0013e	32 d3		 xor	 dl, bl
  00140	88 55 f1	 mov	 BYTE PTR __k$[ebp+17], dl
  00143	8a 50 12	 mov	 dl, BYTE PTR [eax+18]
  00146	84 d2		 test	 dl, dl
  00148	0f 84 b4 00 00
	00		 je	 $LN78@LoadFloat_@8
  0014e	32 d1		 xor	 dl, cl
  00150	88 55 f2	 mov	 BYTE PTR __k$[ebp+18], dl
  00153	8a 50 13	 mov	 dl, BYTE PTR [eax+19]
  00156	84 d2		 test	 dl, dl
  00158	0f 84 9e 00 00
	00		 je	 $LN77@LoadFloat_@8
  0015e	80 f2 ea	 xor	 dl, -22			; ffffffeaH
  00161	88 55 f3	 mov	 BYTE PTR __k$[ebp+19], dl
  00164	8a 50 14	 mov	 dl, BYTE PTR [eax+20]
  00167	84 d2		 test	 dl, dl
  00169	0f 84 87 00 00
	00		 je	 $LN76@LoadFloat_@8
  0016f	80 f2 ed	 xor	 dl, -19			; ffffffedH
  00172	88 55 f4	 mov	 BYTE PTR __k$[ebp+20], dl
  00175	8a 50 15	 mov	 dl, BYTE PTR [eax+21]
  00178	84 d2		 test	 dl, dl
  0017a	74 75		 je	 SHORT $LN75@LoadFloat_@8
  0017c	32 d3		 xor	 dl, bl
  0017e	88 55 f5	 mov	 BYTE PTR __k$[ebp+21], dl
  00181	8a 50 16	 mov	 dl, BYTE PTR [eax+22]
  00184	84 d2		 test	 dl, dl
  00186	74 64		 je	 SHORT $LN74@LoadFloat_@8
  00188	32 d1		 xor	 dl, cl
  0018a	80 78 17 00	 cmp	 BYTE PTR [eax+23], 0
  0018e	88 55 f6	 mov	 BYTE PTR __k$[ebp+22], dl
  00191	0f 84 d3 00 00
	00		 je	 $LN1@LoadFloat_@8
  00197	8a 50 18	 mov	 dl, BYTE PTR [eax+24]
  0019a	84 d2		 test	 dl, dl
  0019c	74 48		 je	 SHORT $LN72@LoadFloat_@8
  0019e	80 f2 ed	 xor	 dl, -19			; ffffffedH
  001a1	88 55 f8	 mov	 BYTE PTR __k$[ebp+24], dl
  001a4	8a 50 19	 mov	 dl, BYTE PTR [eax+25]
  001a7	84 d2		 test	 dl, dl
  001a9	74 33		 je	 SHORT $LN71@LoadFloat_@8
  001ab	32 d3		 xor	 dl, bl
  001ad	88 55 f9	 mov	 BYTE PTR __k$[ebp+25], dl
  001b0	8a 50 1a	 mov	 dl, BYTE PTR [eax+26]
  001b3	84 d2		 test	 dl, dl
  001b5	74 1f		 je	 SHORT $LN70@LoadFloat_@8
  001b7	8a 40 1b	 mov	 al, BYTE PTR [eax+27]
  001ba	32 d1		 xor	 dl, cl
  001bc	88 55 fa	 mov	 BYTE PTR __k$[ebp+26], dl
  001bf	84 c0		 test	 al, al
  001c1	74 0a		 je	 SHORT $LN69@LoadFloat_@8
  001c3	34 ea		 xor	 al, -22			; ffffffeaH
  001c5	88 45 fb	 mov	 BYTE PTR __k$[ebp+27], al
  001c8	e9 9d 00 00 00	 jmp	 $LN1@LoadFloat_@8
$LN69@LoadFloat_@8:
  001cd	c6 45 fb ea	 mov	 BYTE PTR __k$[ebp+27], -22 ; ffffffeaH
  001d1	e9 94 00 00 00	 jmp	 $LN1@LoadFloat_@8
$LN70@LoadFloat_@8:
  001d6	88 4d fa	 mov	 BYTE PTR __k$[ebp+26], cl
  001d9	e9 8c 00 00 00	 jmp	 $LN1@LoadFloat_@8
$LN71@LoadFloat_@8:
  001de	88 5d f9	 mov	 BYTE PTR __k$[ebp+25], bl
  001e1	e9 84 00 00 00	 jmp	 $LN1@LoadFloat_@8
$LN72@LoadFloat_@8:
  001e6	c6 45 f8 ed	 mov	 BYTE PTR __k$[ebp+24], -19 ; ffffffedH
  001ea	eb 7e		 jmp	 SHORT $LN1@LoadFloat_@8
$LN74@LoadFloat_@8:
  001ec	88 4d f6	 mov	 BYTE PTR __k$[ebp+22], cl
  001ef	eb 79		 jmp	 SHORT $LN1@LoadFloat_@8
$LN75@LoadFloat_@8:
  001f1	88 5d f5	 mov	 BYTE PTR __k$[ebp+21], bl
  001f4	eb 74		 jmp	 SHORT $LN1@LoadFloat_@8
$LN76@LoadFloat_@8:
  001f6	c6 45 f4 ed	 mov	 BYTE PTR __k$[ebp+20], -19 ; ffffffedH
  001fa	eb 6e		 jmp	 SHORT $LN1@LoadFloat_@8
$LN77@LoadFloat_@8:
  001fc	c6 45 f3 ea	 mov	 BYTE PTR __k$[ebp+19], -22 ; ffffffeaH
  00200	eb 68		 jmp	 SHORT $LN1@LoadFloat_@8
$LN78@LoadFloat_@8:
  00202	88 4d f2	 mov	 BYTE PTR __k$[ebp+18], cl
  00205	eb 63		 jmp	 SHORT $LN1@LoadFloat_@8
$LN79@LoadFloat_@8:
  00207	88 5d f1	 mov	 BYTE PTR __k$[ebp+17], bl
  0020a	eb 5e		 jmp	 SHORT $LN1@LoadFloat_@8
$LN80@LoadFloat_@8:
  0020c	c6 45 f0 ed	 mov	 BYTE PTR __k$[ebp+16], -19 ; ffffffedH
  00210	eb 58		 jmp	 SHORT $LN1@LoadFloat_@8
$LN81@LoadFloat_@8:
  00212	c6 45 ef ea	 mov	 BYTE PTR __k$[ebp+15], -22 ; ffffffeaH
  00216	eb 52		 jmp	 SHORT $LN1@LoadFloat_@8
$LN82@LoadFloat_@8:
  00218	88 4d ee	 mov	 BYTE PTR __k$[ebp+14], cl
  0021b	eb 4d		 jmp	 SHORT $LN1@LoadFloat_@8
$LN83@LoadFloat_@8:
  0021d	88 5d ed	 mov	 BYTE PTR __k$[ebp+13], bl
  00220	eb 48		 jmp	 SHORT $LN1@LoadFloat_@8
$LN84@LoadFloat_@8:
  00222	c6 45 ec ed	 mov	 BYTE PTR __k$[ebp+12], -19 ; ffffffedH
  00226	eb 42		 jmp	 SHORT $LN1@LoadFloat_@8
$LN85@LoadFloat_@8:
  00228	c6 45 eb ea	 mov	 BYTE PTR __k$[ebp+11], -22 ; ffffffeaH
  0022c	eb 3c		 jmp	 SHORT $LN1@LoadFloat_@8
$LN86@LoadFloat_@8:
  0022e	88 4d ea	 mov	 BYTE PTR __k$[ebp+10], cl
  00231	eb 37		 jmp	 SHORT $LN1@LoadFloat_@8
$LN87@LoadFloat_@8:
  00233	88 5d e9	 mov	 BYTE PTR __k$[ebp+9], bl
  00236	eb 32		 jmp	 SHORT $LN1@LoadFloat_@8
$LN88@LoadFloat_@8:
  00238	c6 45 e8 ed	 mov	 BYTE PTR __k$[ebp+8], -19 ; ffffffedH
  0023c	eb 2c		 jmp	 SHORT $LN1@LoadFloat_@8
$LN89@LoadFloat_@8:
  0023e	c6 45 e7 ea	 mov	 BYTE PTR __k$[ebp+7], -22 ; ffffffeaH
  00242	eb 26		 jmp	 SHORT $LN1@LoadFloat_@8
$LN90@LoadFloat_@8:
  00244	88 4d e6	 mov	 BYTE PTR __k$[ebp+6], cl
  00247	eb 21		 jmp	 SHORT $LN1@LoadFloat_@8
$LN91@LoadFloat_@8:
  00249	88 5d e5	 mov	 BYTE PTR __k$[ebp+5], bl
  0024c	eb 1c		 jmp	 SHORT $LN1@LoadFloat_@8
$LN92@LoadFloat_@8:
  0024e	c6 45 e4 ed	 mov	 BYTE PTR __k$[ebp+4], -19 ; ffffffedH
  00252	eb 16		 jmp	 SHORT $LN1@LoadFloat_@8
$LN93@LoadFloat_@8:
  00254	c6 45 e3 ea	 mov	 BYTE PTR __k$[ebp+3], -22 ; ffffffeaH
  00258	eb 10		 jmp	 SHORT $LN1@LoadFloat_@8
$LN94@LoadFloat_@8:
  0025a	c6 45 e2 eb	 mov	 BYTE PTR __k$[ebp+2], -21 ; ffffffebH
  0025e	eb 0a		 jmp	 SHORT $LN1@LoadFloat_@8
$LN95@LoadFloat_@8:
  00260	c6 45 e1 ec	 mov	 BYTE PTR __k$[ebp+1], -20 ; ffffffecH
  00264	eb 04		 jmp	 SHORT $LN1@LoadFloat_@8
$LN96@LoadFloat_@8:
  00266	c6 45 e0 ed	 mov	 BYTE PTR __k$[ebp], -19	; ffffffedH
$LN1@LoadFloat_@8:
  0026a	6a 05		 push	 5
  0026c	8d 45 e0	 lea	 eax, DWORD PTR __k$[ebp]
  0026f	c6 45 f7 00	 mov	 BYTE PTR __k$[ebp+23], 0
  00273	5a		 pop	 edx
$LL104@LoadFloat_@8:
  00274	81 30 ed ec eb
	ea		 xor	 DWORD PTR [eax], -353637139 ; eaebecedH
  0027a	83 c0 04	 add	 eax, 4
  0027d	4a		 dec	 edx
  0027e	75 f4		 jne	 SHORT $LL104@LoadFloat_@8
  00280	6a 14		 push	 20			; 00000014H
  00282	58		 pop	 eax
$LL101@LoadFloat_@8:
  00283	8b c8		 mov	 ecx, eax
  00285	81 e1 03 00 00
	80		 and	 ecx, -2147483645	; 80000003H
  0028b	79 05		 jns	 SHORT $LN111@LoadFloat_@8
  0028d	49		 dec	 ecx
  0028e	83 c9 fc	 or	 ecx, -4			; fffffffcH
  00291	41		 inc	 ecx
$LN111@LoadFloat_@8:
  00292	b2 ed		 mov	 dl, -19			; ffffffedH
  00294	2a d1		 sub	 dl, cl
  00296	30 54 05 e0	 xor	 BYTE PTR __k$[ebp+eax], dl
  0029a	40		 inc	 eax
  0029b	83 f8 17	 cmp	 eax, 23			; 00000017H
  0029e	7c e3		 jl	 SHORT $LL101@LoadFloat_@8

; 137  : 		return LoadFloat(_k, f);

  002a0	f3 0f 10 45 0c	 movss	 xmm0, DWORD PTR _f$[ebp]
  002a5	51		 push	 ecx
  002a6	8d 45 e0	 lea	 eax, DWORD PTR __k$[ebp]
  002a9	f3 0f 11 04 24	 movss	 DWORD PTR [esp], xmm0
  002ae	50		 push	 eax
  002af	8b ce		 mov	 ecx, esi
  002b1	ff 15 00 00 00
	00		 call	 DWORD PTR __imp_?LoadFloat@ioINILoader@@QAEMPBDM@Z

; 138  : 	}

  002b7	8b 4d fc	 mov	 ecx, DWORD PTR __$ArrayPad$[ebp]
  002ba	5e		 pop	 esi
  002bb	33 cd		 xor	 ecx, ebp
  002bd	5b		 pop	 ebx
  002be	e8 00 00 00 00	 call	 @__security_check_cookie@4
  002c3	c9		 leave
  002c4	c2 08 00	 ret	 8
??$LoadFloat_e@$0BI@@ioINILoader@@QAEMAAY0BI@$$CBDM@Z ENDP ; ioINILoader::LoadFloat_e<24>
_TEXT	ENDS
PUBLIC	__$ArrayPad$
PUBLIC	??$LoadFloat_e@$0BG@@ioINILoader@@QAEMAAY0BG@$$CBDM@Z ; ioINILoader::LoadFloat_e<22>
; Function compile flags: /Ogsp
;	COMDAT ??$LoadFloat_e@$0BG@@ioINILoader@@QAEMAAY0BG@$$CBDM@Z
_TEXT	SEGMENT
__k$ = -32						; size = 22
__$ArrayPad$ = -4					; size = 4
_k$ = 8							; size = 4
_f$ = 12						; size = 4
??$LoadFloat_e@$0BG@@ioINILoader@@QAEMAAY0BG@$$CBDM@Z PROC ; ioINILoader::LoadFloat_e<22>, COMDAT
; _this$ = ecx

; 135  : 	{

  00000	55		 push	 ebp
  00001	8b ec		 mov	 ebp, esp
  00003	83 ec 20	 sub	 esp, 32			; 00000020H
  00006	a1 00 00 00 00	 mov	 eax, DWORD PTR ___security_cookie
  0000b	33 c5		 xor	 eax, ebp
  0000d	89 45 fc	 mov	 DWORD PTR __$ArrayPad$[ebp], eax
  00010	8b 45 08	 mov	 eax, DWORD PTR _k$[ebp]

; 136  : 		_ENCSTR(k, _k);

  00013	8a 10		 mov	 dl, BYTE PTR [eax]
  00015	53		 push	 ebx
  00016	56		 push	 esi
  00017	8b f1		 mov	 esi, ecx
  00019	84 d2		 test	 dl, dl
  0001b	0f 84 15 02 00
	00		 je	 $LN96@LoadFloat_@9
  00021	80 f2 ed	 xor	 dl, -19			; ffffffedH
  00024	88 55 e0	 mov	 BYTE PTR __k$[ebp], dl
  00027	8a 50 01	 mov	 dl, BYTE PTR [eax+1]
  0002a	84 d2		 test	 dl, dl
  0002c	0f 84 fe 01 00
	00		 je	 $LN95@LoadFloat_@9
  00032	80 f2 ec	 xor	 dl, -20			; ffffffecH
  00035	88 55 e1	 mov	 BYTE PTR __k$[ebp+1], dl
  00038	8a 50 02	 mov	 dl, BYTE PTR [eax+2]
  0003b	84 d2		 test	 dl, dl
  0003d	0f 84 e7 01 00
	00		 je	 $LN94@LoadFloat_@9
  00043	b1 eb		 mov	 cl, -21			; ffffffebH
  00045	32 d1		 xor	 dl, cl
  00047	88 55 e2	 mov	 BYTE PTR __k$[ebp+2], dl
  0004a	8a 50 03	 mov	 dl, BYTE PTR [eax+3]
  0004d	84 d2		 test	 dl, dl
  0004f	0f 84 cf 01 00
	00		 je	 $LN93@LoadFloat_@9
  00055	b3 ea		 mov	 bl, -22			; ffffffeaH
  00057	32 d3		 xor	 dl, bl
  00059	88 55 e3	 mov	 BYTE PTR __k$[ebp+3], dl
  0005c	8a 50 04	 mov	 dl, BYTE PTR [eax+4]
  0005f	84 d2		 test	 dl, dl
  00061	0f 84 b7 01 00
	00		 je	 $LN92@LoadFloat_@9
  00067	80 f2 ed	 xor	 dl, -19			; ffffffedH
  0006a	88 55 e4	 mov	 BYTE PTR __k$[ebp+4], dl
  0006d	8a 50 05	 mov	 dl, BYTE PTR [eax+5]
  00070	84 d2		 test	 dl, dl
  00072	0f 84 a0 01 00
	00		 je	 $LN91@LoadFloat_@9
  00078	80 f2 ec	 xor	 dl, -20			; ffffffecH
  0007b	88 55 e5	 mov	 BYTE PTR __k$[ebp+5], dl
  0007e	8a 50 06	 mov	 dl, BYTE PTR [eax+6]
  00081	84 d2		 test	 dl, dl
  00083	0f 84 8a 01 00
	00		 je	 $LN90@LoadFloat_@9
  00089	32 d1		 xor	 dl, cl
  0008b	88 55 e6	 mov	 BYTE PTR __k$[ebp+6], dl
  0008e	8a 50 07	 mov	 dl, BYTE PTR [eax+7]
  00091	84 d2		 test	 dl, dl
  00093	0f 84 75 01 00
	00		 je	 $LN89@LoadFloat_@9
  00099	32 d3		 xor	 dl, bl
  0009b	88 55 e7	 mov	 BYTE PTR __k$[ebp+7], dl
  0009e	8a 50 08	 mov	 dl, BYTE PTR [eax+8]
  000a1	84 d2		 test	 dl, dl
  000a3	0f 84 5f 01 00
	00		 je	 $LN88@LoadFloat_@9
  000a9	80 f2 ed	 xor	 dl, -19			; ffffffedH
  000ac	88 55 e8	 mov	 BYTE PTR __k$[ebp+8], dl
  000af	8a 50 09	 mov	 dl, BYTE PTR [eax+9]
  000b2	84 d2		 test	 dl, dl
  000b4	0f 84 48 01 00
	00		 je	 $LN87@LoadFloat_@9
  000ba	80 f2 ec	 xor	 dl, -20			; ffffffecH
  000bd	88 55 e9	 mov	 BYTE PTR __k$[ebp+9], dl
  000c0	8a 50 0a	 mov	 dl, BYTE PTR [eax+10]
  000c3	84 d2		 test	 dl, dl
  000c5	0f 84 32 01 00
	00		 je	 $LN86@LoadFloat_@9
  000cb	32 d1		 xor	 dl, cl
  000cd	88 55 ea	 mov	 BYTE PTR __k$[ebp+10], dl
  000d0	8a 50 0b	 mov	 dl, BYTE PTR [eax+11]
  000d3	84 d2		 test	 dl, dl
  000d5	0f 84 1d 01 00
	00		 je	 $LN85@LoadFloat_@9
  000db	32 d3		 xor	 dl, bl
  000dd	88 55 eb	 mov	 BYTE PTR __k$[ebp+11], dl
  000e0	8a 50 0c	 mov	 dl, BYTE PTR [eax+12]
  000e3	84 d2		 test	 dl, dl
  000e5	0f 84 07 01 00
	00		 je	 $LN84@LoadFloat_@9
  000eb	80 f2 ed	 xor	 dl, -19			; ffffffedH
  000ee	88 55 ec	 mov	 BYTE PTR __k$[ebp+12], dl
  000f1	8a 50 0d	 mov	 dl, BYTE PTR [eax+13]
  000f4	84 d2		 test	 dl, dl
  000f6	0f 84 f0 00 00
	00		 je	 $LN83@LoadFloat_@9
  000fc	80 f2 ec	 xor	 dl, -20			; ffffffecH
  000ff	88 55 ed	 mov	 BYTE PTR __k$[ebp+13], dl
  00102	8a 50 0e	 mov	 dl, BYTE PTR [eax+14]
  00105	84 d2		 test	 dl, dl
  00107	0f 84 da 00 00
	00		 je	 $LN82@LoadFloat_@9
  0010d	32 d1		 xor	 dl, cl
  0010f	88 55 ee	 mov	 BYTE PTR __k$[ebp+14], dl
  00112	8a 50 0f	 mov	 dl, BYTE PTR [eax+15]
  00115	84 d2		 test	 dl, dl
  00117	0f 84 c5 00 00
	00		 je	 $LN81@LoadFloat_@9
  0011d	32 d3		 xor	 dl, bl
  0011f	88 55 ef	 mov	 BYTE PTR __k$[ebp+15], dl
  00122	8a 50 10	 mov	 dl, BYTE PTR [eax+16]
  00125	84 d2		 test	 dl, dl
  00127	0f 84 af 00 00
	00		 je	 $LN80@LoadFloat_@9
  0012d	80 f2 ed	 xor	 dl, -19			; ffffffedH
  00130	88 55 f0	 mov	 BYTE PTR __k$[ebp+16], dl
  00133	8a 50 11	 mov	 dl, BYTE PTR [eax+17]
  00136	84 d2		 test	 dl, dl
  00138	0f 84 98 00 00
	00		 je	 $LN79@LoadFloat_@9
  0013e	80 f2 ec	 xor	 dl, -20			; ffffffecH
  00141	88 55 f1	 mov	 BYTE PTR __k$[ebp+17], dl
  00144	8a 50 12	 mov	 dl, BYTE PTR [eax+18]
  00147	84 d2		 test	 dl, dl
  00149	0f 84 82 00 00
	00		 je	 $LN78@LoadFloat_@9
  0014f	32 d1		 xor	 dl, cl
  00151	88 55 f2	 mov	 BYTE PTR __k$[ebp+18], dl
  00154	8a 50 13	 mov	 dl, BYTE PTR [eax+19]
  00157	84 d2		 test	 dl, dl
  00159	74 71		 je	 SHORT $LN77@LoadFloat_@9
  0015b	32 d3		 xor	 dl, bl
  0015d	88 55 f3	 mov	 BYTE PTR __k$[ebp+19], dl
  00160	8a 50 14	 mov	 dl, BYTE PTR [eax+20]
  00163	84 d2		 test	 dl, dl
  00165	74 5f		 je	 SHORT $LN76@LoadFloat_@9
  00167	80 f2 ed	 xor	 dl, -19			; ffffffedH
  0016a	80 78 15 00	 cmp	 BYTE PTR [eax+21], 0
  0016e	88 55 f4	 mov	 BYTE PTR __k$[ebp+20], dl
  00171	0f 84 c3 00 00
	00		 je	 $LN1@LoadFloat_@9
  00177	8a 50 16	 mov	 dl, BYTE PTR [eax+22]
  0017a	84 d2		 test	 dl, dl
  0017c	74 43		 je	 SHORT $LN74@LoadFloat_@9
  0017e	32 d1		 xor	 dl, cl
  00180	88 55 f6	 mov	 BYTE PTR __k$[ebp+22], dl
  00183	8a 50 17	 mov	 dl, BYTE PTR [eax+23]
  00186	84 d2		 test	 dl, dl
  00188	74 32		 je	 SHORT $LN73@LoadFloat_@9
  0018a	32 d3		 xor	 dl, bl
  0018c	88 55 f7	 mov	 BYTE PTR __k$[ebp+23], dl
  0018f	8a 50 18	 mov	 dl, BYTE PTR [eax+24]
  00192	84 d2		 test	 dl, dl
  00194	74 20		 je	 SHORT $LN72@LoadFloat_@9
  00196	8a 40 19	 mov	 al, BYTE PTR [eax+25]
  00199	80 f2 ed	 xor	 dl, -19			; ffffffedH
  0019c	88 55 f8	 mov	 BYTE PTR __k$[ebp+24], dl
  0019f	84 c0		 test	 al, al
  001a1	74 0a		 je	 SHORT $LN71@LoadFloat_@9
  001a3	34 ec		 xor	 al, -20			; ffffffecH
  001a5	88 45 f9	 mov	 BYTE PTR __k$[ebp+25], al
  001a8	e9 8d 00 00 00	 jmp	 $LN1@LoadFloat_@9
$LN71@LoadFloat_@9:
  001ad	c6 45 f9 ec	 mov	 BYTE PTR __k$[ebp+25], -20 ; ffffffecH
  001b1	e9 84 00 00 00	 jmp	 $LN1@LoadFloat_@9
$LN72@LoadFloat_@9:
  001b6	c6 45 f8 ed	 mov	 BYTE PTR __k$[ebp+24], -19 ; ffffffedH
  001ba	eb 7e		 jmp	 SHORT $LN1@LoadFloat_@9
$LN73@LoadFloat_@9:
  001bc	88 5d f7	 mov	 BYTE PTR __k$[ebp+23], bl
  001bf	eb 79		 jmp	 SHORT $LN1@LoadFloat_@9
$LN74@LoadFloat_@9:
  001c1	88 4d f6	 mov	 BYTE PTR __k$[ebp+22], cl
  001c4	eb 74		 jmp	 SHORT $LN1@LoadFloat_@9
$LN76@LoadFloat_@9:
  001c6	c6 45 f4 ed	 mov	 BYTE PTR __k$[ebp+20], -19 ; ffffffedH
  001ca	eb 6e		 jmp	 SHORT $LN1@LoadFloat_@9
$LN77@LoadFloat_@9:
  001cc	88 5d f3	 mov	 BYTE PTR __k$[ebp+19], bl
  001cf	eb 69		 jmp	 SHORT $LN1@LoadFloat_@9
$LN78@LoadFloat_@9:
  001d1	88 4d f2	 mov	 BYTE PTR __k$[ebp+18], cl
  001d4	eb 64		 jmp	 SHORT $LN1@LoadFloat_@9
$LN79@LoadFloat_@9:
  001d6	c6 45 f1 ec	 mov	 BYTE PTR __k$[ebp+17], -20 ; ffffffecH
  001da	eb 5e		 jmp	 SHORT $LN1@LoadFloat_@9
$LN80@LoadFloat_@9:
  001dc	c6 45 f0 ed	 mov	 BYTE PTR __k$[ebp+16], -19 ; ffffffedH
  001e0	eb 58		 jmp	 SHORT $LN1@LoadFloat_@9
$LN81@LoadFloat_@9:
  001e2	88 5d ef	 mov	 BYTE PTR __k$[ebp+15], bl
  001e5	eb 53		 jmp	 SHORT $LN1@LoadFloat_@9
$LN82@LoadFloat_@9:
  001e7	88 4d ee	 mov	 BYTE PTR __k$[ebp+14], cl
  001ea	eb 4e		 jmp	 SHORT $LN1@LoadFloat_@9
$LN83@LoadFloat_@9:
  001ec	c6 45 ed ec	 mov	 BYTE PTR __k$[ebp+13], -20 ; ffffffecH
  001f0	eb 48		 jmp	 SHORT $LN1@LoadFloat_@9
$LN84@LoadFloat_@9:
  001f2	c6 45 ec ed	 mov	 BYTE PTR __k$[ebp+12], -19 ; ffffffedH
  001f6	eb 42		 jmp	 SHORT $LN1@LoadFloat_@9
$LN85@LoadFloat_@9:
  001f8	88 5d eb	 mov	 BYTE PTR __k$[ebp+11], bl
  001fb	eb 3d		 jmp	 SHORT $LN1@LoadFloat_@9
$LN86@LoadFloat_@9:
  001fd	88 4d ea	 mov	 BYTE PTR __k$[ebp+10], cl
  00200	eb 38		 jmp	 SHORT $LN1@LoadFloat_@9
$LN87@LoadFloat_@9:
  00202	c6 45 e9 ec	 mov	 BYTE PTR __k$[ebp+9], -20 ; ffffffecH
  00206	eb 32		 jmp	 SHORT $LN1@LoadFloat_@9
$LN88@LoadFloat_@9:
  00208	c6 45 e8 ed	 mov	 BYTE PTR __k$[ebp+8], -19 ; ffffffedH
  0020c	eb 2c		 jmp	 SHORT $LN1@LoadFloat_@9
$LN89@LoadFloat_@9:
  0020e	88 5d e7	 mov	 BYTE PTR __k$[ebp+7], bl
  00211	eb 27		 jmp	 SHORT $LN1@LoadFloat_@9
$LN90@LoadFloat_@9:
  00213	88 4d e6	 mov	 BYTE PTR __k$[ebp+6], cl
  00216	eb 22		 jmp	 SHORT $LN1@LoadFloat_@9
$LN91@LoadFloat_@9:
  00218	c6 45 e5 ec	 mov	 BYTE PTR __k$[ebp+5], -20 ; ffffffecH
  0021c	eb 1c		 jmp	 SHORT $LN1@LoadFloat_@9
$LN92@LoadFloat_@9:
  0021e	c6 45 e4 ed	 mov	 BYTE PTR __k$[ebp+4], -19 ; ffffffedH
  00222	eb 16		 jmp	 SHORT $LN1@LoadFloat_@9
$LN93@LoadFloat_@9:
  00224	c6 45 e3 ea	 mov	 BYTE PTR __k$[ebp+3], -22 ; ffffffeaH
  00228	eb 10		 jmp	 SHORT $LN1@LoadFloat_@9
$LN94@LoadFloat_@9:
  0022a	c6 45 e2 eb	 mov	 BYTE PTR __k$[ebp+2], -21 ; ffffffebH
  0022e	eb 0a		 jmp	 SHORT $LN1@LoadFloat_@9
$LN95@LoadFloat_@9:
  00230	c6 45 e1 ec	 mov	 BYTE PTR __k$[ebp+1], -20 ; ffffffecH
  00234	eb 04		 jmp	 SHORT $LN1@LoadFloat_@9
$LN96@LoadFloat_@9:
  00236	c6 45 e0 ed	 mov	 BYTE PTR __k$[ebp], -19	; ffffffedH
$LN1@LoadFloat_@9:
  0023a	6a 05		 push	 5
  0023c	8d 45 e0	 lea	 eax, DWORD PTR __k$[ebp]
  0023f	c6 45 f5 00	 mov	 BYTE PTR __k$[ebp+21], 0
  00243	5a		 pop	 edx
$LL104@LoadFloat_@9:
  00244	81 30 ed ec eb
	ea		 xor	 DWORD PTR [eax], -353637139 ; eaebecedH
  0024a	83 c0 04	 add	 eax, 4
  0024d	4a		 dec	 edx
  0024e	75 f4		 jne	 SHORT $LL104@LoadFloat_@9

; 137  : 		return LoadFloat(_k, f);

  00250	f3 0f 10 45 0c	 movss	 xmm0, DWORD PTR _f$[ebp]
  00255	80 75 f4 ed	 xor	 BYTE PTR __k$[ebp+20], -19 ; ffffffedH
  00259	51		 push	 ecx
  0025a	8d 45 e0	 lea	 eax, DWORD PTR __k$[ebp]
  0025d	f3 0f 11 04 24	 movss	 DWORD PTR [esp], xmm0
  00262	50		 push	 eax
  00263	8b ce		 mov	 ecx, esi
  00265	ff 15 00 00 00
	00		 call	 DWORD PTR __imp_?LoadFloat@ioINILoader@@QAEMPBDM@Z

; 138  : 	}

  0026b	8b 4d fc	 mov	 ecx, DWORD PTR __$ArrayPad$[ebp]
  0026e	5e		 pop	 esi
  0026f	33 cd		 xor	 ecx, ebp
  00271	5b		 pop	 ebx
  00272	e8 00 00 00 00	 call	 @__security_check_cookie@4
  00277	c9		 leave
  00278	c2 08 00	 ret	 8
??$LoadFloat_e@$0BG@@ioINILoader@@QAEMAAY0BG@$$CBDM@Z ENDP ; ioINILoader::LoadFloat_e<22>
_TEXT	ENDS
PUBLIC	__$ArrayPad$
PUBLIC	??$LoadBool_e@$0BH@@ioINILoader@@QAE_NAAY0BH@$$CBD_N@Z ; ioINILoader::LoadBool_e<23>
; Function compile flags: /Ogsp
;	COMDAT ??$LoadBool_e@$0BH@@ioINILoader@@QAE_NAAY0BH@$$CBD_N@Z
_TEXT	SEGMENT
__k$ = -32						; size = 23
__$ArrayPad$ = -4					; size = 4
_k$ = 8							; size = 4
_b$ = 12						; size = 1
??$LoadBool_e@$0BH@@ioINILoader@@QAE_NAAY0BH@$$CBD_N@Z PROC ; ioINILoader::LoadBool_e<23>, COMDAT
; _this$ = ecx

; 101  : 	{

  00000	55		 push	 ebp
  00001	8b ec		 mov	 ebp, esp
  00003	83 ec 20	 sub	 esp, 32			; 00000020H
  00006	a1 00 00 00 00	 mov	 eax, DWORD PTR ___security_cookie
  0000b	33 c5		 xor	 eax, ebp
  0000d	89 45 fc	 mov	 DWORD PTR __$ArrayPad$[ebp], eax
  00010	8b 45 08	 mov	 eax, DWORD PTR _k$[ebp]

; 102  : 		_ENCSTR(k, _k);

  00013	8a 10		 mov	 dl, BYTE PTR [eax]
  00015	53		 push	 ebx
  00016	56		 push	 esi
  00017	8b f1		 mov	 esi, ecx
  00019	84 d2		 test	 dl, dl
  0001b	0f 84 2d 02 00
	00		 je	 $LN96@LoadBool_e@3
  00021	80 f2 ed	 xor	 dl, -19			; ffffffedH
  00024	88 55 e0	 mov	 BYTE PTR __k$[ebp], dl
  00027	8a 50 01	 mov	 dl, BYTE PTR [eax+1]
  0002a	84 d2		 test	 dl, dl
  0002c	0f 84 16 02 00
	00		 je	 $LN95@LoadBool_e@3
  00032	b1 ec		 mov	 cl, -20			; ffffffecH
  00034	32 d1		 xor	 dl, cl
  00036	88 55 e1	 mov	 BYTE PTR __k$[ebp+1], dl
  00039	8a 50 02	 mov	 dl, BYTE PTR [eax+2]
  0003c	84 d2		 test	 dl, dl
  0003e	0f 84 fe 01 00
	00		 je	 $LN94@LoadBool_e@3
  00044	80 f2 eb	 xor	 dl, -21			; ffffffebH
  00047	88 55 e2	 mov	 BYTE PTR __k$[ebp+2], dl
  0004a	8a 50 03	 mov	 dl, BYTE PTR [eax+3]
  0004d	84 d2		 test	 dl, dl
  0004f	0f 84 e7 01 00
	00		 je	 $LN93@LoadBool_e@3
  00055	b3 ea		 mov	 bl, -22			; ffffffeaH
  00057	32 d3		 xor	 dl, bl
  00059	88 55 e3	 mov	 BYTE PTR __k$[ebp+3], dl
  0005c	8a 50 04	 mov	 dl, BYTE PTR [eax+4]
  0005f	84 d2		 test	 dl, dl
  00061	0f 84 cf 01 00
	00		 je	 $LN92@LoadBool_e@3
  00067	80 f2 ed	 xor	 dl, -19			; ffffffedH
  0006a	88 55 e4	 mov	 BYTE PTR __k$[ebp+4], dl
  0006d	8a 50 05	 mov	 dl, BYTE PTR [eax+5]
  00070	84 d2		 test	 dl, dl
  00072	0f 84 b9 01 00
	00		 je	 $LN91@LoadBool_e@3
  00078	32 d1		 xor	 dl, cl
  0007a	88 55 e5	 mov	 BYTE PTR __k$[ebp+5], dl
  0007d	8a 50 06	 mov	 dl, BYTE PTR [eax+6]
  00080	84 d2		 test	 dl, dl
  00082	0f 84 a3 01 00
	00		 je	 $LN90@LoadBool_e@3
  00088	80 f2 eb	 xor	 dl, -21			; ffffffebH
  0008b	88 55 e6	 mov	 BYTE PTR __k$[ebp+6], dl
  0008e	8a 50 07	 mov	 dl, BYTE PTR [eax+7]
  00091	84 d2		 test	 dl, dl
  00093	0f 84 8d 01 00
	00		 je	 $LN89@LoadBool_e@3
  00099	32 d3		 xor	 dl, bl
  0009b	88 55 e7	 mov	 BYTE PTR __k$[ebp+7], dl
  0009e	8a 50 08	 mov	 dl, BYTE PTR [eax+8]
  000a1	84 d2		 test	 dl, dl
  000a3	0f 84 77 01 00
	00		 je	 $LN88@LoadBool_e@3
  000a9	80 f2 ed	 xor	 dl, -19			; ffffffedH
  000ac	88 55 e8	 mov	 BYTE PTR __k$[ebp+8], dl
  000af	8a 50 09	 mov	 dl, BYTE PTR [eax+9]
  000b2	84 d2		 test	 dl, dl
  000b4	0f 84 61 01 00
	00		 je	 $LN87@LoadBool_e@3
  000ba	32 d1		 xor	 dl, cl
  000bc	88 55 e9	 mov	 BYTE PTR __k$[ebp+9], dl
  000bf	8a 50 0a	 mov	 dl, BYTE PTR [eax+10]
  000c2	84 d2		 test	 dl, dl
  000c4	0f 84 4b 01 00
	00		 je	 $LN86@LoadBool_e@3
  000ca	80 f2 eb	 xor	 dl, -21			; ffffffebH
  000cd	88 55 ea	 mov	 BYTE PTR __k$[ebp+10], dl
  000d0	8a 50 0b	 mov	 dl, BYTE PTR [eax+11]
  000d3	84 d2		 test	 dl, dl
  000d5	0f 84 35 01 00
	00		 je	 $LN85@LoadBool_e@3
  000db	32 d3		 xor	 dl, bl
  000dd	88 55 eb	 mov	 BYTE PTR __k$[ebp+11], dl
  000e0	8a 50 0c	 mov	 dl, BYTE PTR [eax+12]
  000e3	84 d2		 test	 dl, dl
  000e5	0f 84 1f 01 00
	00		 je	 $LN84@LoadBool_e@3
  000eb	80 f2 ed	 xor	 dl, -19			; ffffffedH
  000ee	88 55 ec	 mov	 BYTE PTR __k$[ebp+12], dl
  000f1	8a 50 0d	 mov	 dl, BYTE PTR [eax+13]
  000f4	84 d2		 test	 dl, dl
  000f6	0f 84 09 01 00
	00		 je	 $LN83@LoadBool_e@3
  000fc	32 d1		 xor	 dl, cl
  000fe	88 55 ed	 mov	 BYTE PTR __k$[ebp+13], dl
  00101	8a 50 0e	 mov	 dl, BYTE PTR [eax+14]
  00104	84 d2		 test	 dl, dl
  00106	0f 84 f3 00 00
	00		 je	 $LN82@LoadBool_e@3
  0010c	80 f2 eb	 xor	 dl, -21			; ffffffebH
  0010f	88 55 ee	 mov	 BYTE PTR __k$[ebp+14], dl
  00112	8a 50 0f	 mov	 dl, BYTE PTR [eax+15]
  00115	84 d2		 test	 dl, dl
  00117	0f 84 dd 00 00
	00		 je	 $LN81@LoadBool_e@3
  0011d	32 d3		 xor	 dl, bl
  0011f	88 55 ef	 mov	 BYTE PTR __k$[ebp+15], dl
  00122	8a 50 10	 mov	 dl, BYTE PTR [eax+16]
  00125	84 d2		 test	 dl, dl
  00127	0f 84 c7 00 00
	00		 je	 $LN80@LoadBool_e@3
  0012d	80 f2 ed	 xor	 dl, -19			; ffffffedH
  00130	88 55 f0	 mov	 BYTE PTR __k$[ebp+16], dl
  00133	8a 50 11	 mov	 dl, BYTE PTR [eax+17]
  00136	84 d2		 test	 dl, dl
  00138	0f 84 b1 00 00
	00		 je	 $LN79@LoadBool_e@3
  0013e	32 d1		 xor	 dl, cl
  00140	88 55 f1	 mov	 BYTE PTR __k$[ebp+17], dl
  00143	8a 50 12	 mov	 dl, BYTE PTR [eax+18]
  00146	84 d2		 test	 dl, dl
  00148	0f 84 9b 00 00
	00		 je	 $LN78@LoadBool_e@3
  0014e	80 f2 eb	 xor	 dl, -21			; ffffffebH
  00151	88 55 f2	 mov	 BYTE PTR __k$[ebp+18], dl
  00154	8a 50 13	 mov	 dl, BYTE PTR [eax+19]
  00157	84 d2		 test	 dl, dl
  00159	0f 84 85 00 00
	00		 je	 $LN77@LoadBool_e@3
  0015f	32 d3		 xor	 dl, bl
  00161	88 55 f3	 mov	 BYTE PTR __k$[ebp+19], dl
  00164	8a 50 14	 mov	 dl, BYTE PTR [eax+20]
  00167	84 d2		 test	 dl, dl
  00169	74 73		 je	 SHORT $LN76@LoadBool_e@3
  0016b	80 f2 ed	 xor	 dl, -19			; ffffffedH
  0016e	88 55 f4	 mov	 BYTE PTR __k$[ebp+20], dl
  00171	8a 50 15	 mov	 dl, BYTE PTR [eax+21]
  00174	84 d2		 test	 dl, dl
  00176	74 61		 je	 SHORT $LN75@LoadBool_e@3
  00178	32 d1		 xor	 dl, cl
  0017a	80 78 16 00	 cmp	 BYTE PTR [eax+22], 0
  0017e	88 55 f5	 mov	 BYTE PTR __k$[ebp+21], dl
  00181	0f 84 cb 00 00
	00		 je	 $LN1@LoadBool_e@3
  00187	8a 50 17	 mov	 dl, BYTE PTR [eax+23]
  0018a	84 d2		 test	 dl, dl
  0018c	74 46		 je	 SHORT $LN73@LoadBool_e@3
  0018e	32 d3		 xor	 dl, bl
  00190	88 55 f7	 mov	 BYTE PTR __k$[ebp+23], dl
  00193	8a 50 18	 mov	 dl, BYTE PTR [eax+24]
  00196	84 d2		 test	 dl, dl
  00198	74 34		 je	 SHORT $LN72@LoadBool_e@3
  0019a	80 f2 ed	 xor	 dl, -19			; ffffffedH
  0019d	88 55 f8	 mov	 BYTE PTR __k$[ebp+24], dl
  001a0	8a 50 19	 mov	 dl, BYTE PTR [eax+25]
  001a3	84 d2		 test	 dl, dl
  001a5	74 1f		 je	 SHORT $LN71@LoadBool_e@3
  001a7	8a 40 1a	 mov	 al, BYTE PTR [eax+26]
  001aa	32 d1		 xor	 dl, cl
  001ac	88 55 f9	 mov	 BYTE PTR __k$[ebp+25], dl
  001af	84 c0		 test	 al, al
  001b1	74 0a		 je	 SHORT $LN70@LoadBool_e@3
  001b3	34 eb		 xor	 al, -21			; ffffffebH
  001b5	88 45 fa	 mov	 BYTE PTR __k$[ebp+26], al
  001b8	e9 95 00 00 00	 jmp	 $LN1@LoadBool_e@3
$LN70@LoadBool_e@3:
  001bd	c6 45 fa eb	 mov	 BYTE PTR __k$[ebp+26], -21 ; ffffffebH
  001c1	e9 8c 00 00 00	 jmp	 $LN1@LoadBool_e@3
$LN71@LoadBool_e@3:
  001c6	88 4d f9	 mov	 BYTE PTR __k$[ebp+25], cl
  001c9	e9 84 00 00 00	 jmp	 $LN1@LoadBool_e@3
$LN72@LoadBool_e@3:
  001ce	c6 45 f8 ed	 mov	 BYTE PTR __k$[ebp+24], -19 ; ffffffedH
  001d2	eb 7e		 jmp	 SHORT $LN1@LoadBool_e@3
$LN73@LoadBool_e@3:
  001d4	88 5d f7	 mov	 BYTE PTR __k$[ebp+23], bl
  001d7	eb 79		 jmp	 SHORT $LN1@LoadBool_e@3
$LN75@LoadBool_e@3:
  001d9	88 4d f5	 mov	 BYTE PTR __k$[ebp+21], cl
  001dc	eb 74		 jmp	 SHORT $LN1@LoadBool_e@3
$LN76@LoadBool_e@3:
  001de	c6 45 f4 ed	 mov	 BYTE PTR __k$[ebp+20], -19 ; ffffffedH
  001e2	eb 6e		 jmp	 SHORT $LN1@LoadBool_e@3
$LN77@LoadBool_e@3:
  001e4	88 5d f3	 mov	 BYTE PTR __k$[ebp+19], bl
  001e7	eb 69		 jmp	 SHORT $LN1@LoadBool_e@3
$LN78@LoadBool_e@3:
  001e9	c6 45 f2 eb	 mov	 BYTE PTR __k$[ebp+18], -21 ; ffffffebH
  001ed	eb 63		 jmp	 SHORT $LN1@LoadBool_e@3
$LN79@LoadBool_e@3:
  001ef	88 4d f1	 mov	 BYTE PTR __k$[ebp+17], cl
  001f2	eb 5e		 jmp	 SHORT $LN1@LoadBool_e@3
$LN80@LoadBool_e@3:
  001f4	c6 45 f0 ed	 mov	 BYTE PTR __k$[ebp+16], -19 ; ffffffedH
  001f8	eb 58		 jmp	 SHORT $LN1@LoadBool_e@3
$LN81@LoadBool_e@3:
  001fa	88 5d ef	 mov	 BYTE PTR __k$[ebp+15], bl
  001fd	eb 53		 jmp	 SHORT $LN1@LoadBool_e@3
$LN82@LoadBool_e@3:
  001ff	c6 45 ee eb	 mov	 BYTE PTR __k$[ebp+14], -21 ; ffffffebH
  00203	eb 4d		 jmp	 SHORT $LN1@LoadBool_e@3
$LN83@LoadBool_e@3:
  00205	88 4d ed	 mov	 BYTE PTR __k$[ebp+13], cl
  00208	eb 48		 jmp	 SHORT $LN1@LoadBool_e@3
$LN84@LoadBool_e@3:
  0020a	c6 45 ec ed	 mov	 BYTE PTR __k$[ebp+12], -19 ; ffffffedH
  0020e	eb 42		 jmp	 SHORT $LN1@LoadBool_e@3
$LN85@LoadBool_e@3:
  00210	88 5d eb	 mov	 BYTE PTR __k$[ebp+11], bl
  00213	eb 3d		 jmp	 SHORT $LN1@LoadBool_e@3
$LN86@LoadBool_e@3:
  00215	c6 45 ea eb	 mov	 BYTE PTR __k$[ebp+10], -21 ; ffffffebH
  00219	eb 37		 jmp	 SHORT $LN1@LoadBool_e@3
$LN87@LoadBool_e@3:
  0021b	88 4d e9	 mov	 BYTE PTR __k$[ebp+9], cl
  0021e	eb 32		 jmp	 SHORT $LN1@LoadBool_e@3
$LN88@LoadBool_e@3:
  00220	c6 45 e8 ed	 mov	 BYTE PTR __k$[ebp+8], -19 ; ffffffedH
  00224	eb 2c		 jmp	 SHORT $LN1@LoadBool_e@3
$LN89@LoadBool_e@3:
  00226	88 5d e7	 mov	 BYTE PTR __k$[ebp+7], bl
  00229	eb 27		 jmp	 SHORT $LN1@LoadBool_e@3
$LN90@LoadBool_e@3:
  0022b	c6 45 e6 eb	 mov	 BYTE PTR __k$[ebp+6], -21 ; ffffffebH
  0022f	eb 21		 jmp	 SHORT $LN1@LoadBool_e@3
$LN91@LoadBool_e@3:
  00231	88 4d e5	 mov	 BYTE PTR __k$[ebp+5], cl
  00234	eb 1c		 jmp	 SHORT $LN1@LoadBool_e@3
$LN92@LoadBool_e@3:
  00236	c6 45 e4 ed	 mov	 BYTE PTR __k$[ebp+4], -19 ; ffffffedH
  0023a	eb 16		 jmp	 SHORT $LN1@LoadBool_e@3
$LN93@LoadBool_e@3:
  0023c	c6 45 e3 ea	 mov	 BYTE PTR __k$[ebp+3], -22 ; ffffffeaH
  00240	eb 10		 jmp	 SHORT $LN1@LoadBool_e@3
$LN94@LoadBool_e@3:
  00242	c6 45 e2 eb	 mov	 BYTE PTR __k$[ebp+2], -21 ; ffffffebH
  00246	eb 0a		 jmp	 SHORT $LN1@LoadBool_e@3
$LN95@LoadBool_e@3:
  00248	c6 45 e1 ec	 mov	 BYTE PTR __k$[ebp+1], -20 ; ffffffecH
  0024c	eb 04		 jmp	 SHORT $LN1@LoadBool_e@3
$LN96@LoadBool_e@3:
  0024e	c6 45 e0 ed	 mov	 BYTE PTR __k$[ebp], -19	; ffffffedH
$LN1@LoadBool_e@3:
  00252	6a 05		 push	 5
  00254	8d 45 e0	 lea	 eax, DWORD PTR __k$[ebp]
  00257	c6 45 f6 00	 mov	 BYTE PTR __k$[ebp+22], 0
  0025b	5a		 pop	 edx
$LL104@LoadBool_e@3:
  0025c	81 30 ed ec eb
	ea		 xor	 DWORD PTR [eax], -353637139 ; eaebecedH
  00262	83 c0 04	 add	 eax, 4
  00265	4a		 dec	 edx
  00266	75 f4		 jne	 SHORT $LL104@LoadBool_e@3
  00268	6a 14		 push	 20			; 00000014H
  0026a	58		 pop	 eax
$LL101@LoadBool_e@3:
  0026b	8b c8		 mov	 ecx, eax
  0026d	81 e1 03 00 00
	80		 and	 ecx, -2147483645	; 80000003H
  00273	79 05		 jns	 SHORT $LN111@LoadBool_e@3
  00275	49		 dec	 ecx
  00276	83 c9 fc	 or	 ecx, -4			; fffffffcH
  00279	41		 inc	 ecx
$LN111@LoadBool_e@3:
  0027a	b2 ed		 mov	 dl, -19			; ffffffedH
  0027c	2a d1		 sub	 dl, cl
  0027e	30 54 05 e0	 xor	 BYTE PTR __k$[ebp+eax], dl
  00282	40		 inc	 eax
  00283	83 f8 16	 cmp	 eax, 22			; 00000016H
  00286	7c e3		 jl	 SHORT $LL101@LoadBool_e@3

; 103  : 		return LoadBool(_k, b);

  00288	ff 75 0c	 push	 DWORD PTR _b$[ebp]
  0028b	8d 45 e0	 lea	 eax, DWORD PTR __k$[ebp]
  0028e	50		 push	 eax
  0028f	8b ce		 mov	 ecx, esi
  00291	ff 15 00 00 00
	00		 call	 DWORD PTR __imp_?LoadBool@ioINILoader@@QAE_NPBD_N@Z

; 104  : 	}

  00297	8b 4d fc	 mov	 ecx, DWORD PTR __$ArrayPad$[ebp]
  0029a	5e		 pop	 esi
  0029b	33 cd		 xor	 ecx, ebp
  0029d	5b		 pop	 ebx
  0029e	e8 00 00 00 00	 call	 @__security_check_cookie@4
  002a3	c9		 leave
  002a4	c2 08 00	 ret	 8
??$LoadBool_e@$0BH@@ioINILoader@@QAE_NAAY0BH@$$CBD_N@Z ENDP ; ioINILoader::LoadBool_e<23>
_TEXT	ENDS
PUBLIC	??$GetAnimationEventTime_e@$0L@@ioEntityGroup@@QAEMHAAY0L@$$CBD@Z ; ioEntityGroup::GetAnimationEventTime_e<11>
EXTRN	__imp_?GetAnimationEventTime@ioEntityGroup@@QAEMHABVioHashString@@@Z:PROC
EXTRN	__EH_epilog3_GS:PROC
EXTRN	__EH_prolog3_GS:PROC
;	COMDAT xdata$x
; File d:\lost saga for developer\youtube\tutorial\source\src\lsclient\stringprotect.h
xdata$x	SEGMENT
__unwindtable$??$GetAnimationEventTime_e@$0L@@ioEntityGroup@@QAEMHAAY0L@$$CBD@Z DD 0ffffffffH
	DD	FLAT:__unwindfunclet$??$GetAnimationEventTime_e@$0L@@ioEntityGroup@@QAEMHAAY0L@$$CBD@Z$0
__ehfuncinfo$??$GetAnimationEventTime_e@$0L@@ioEntityGroup@@QAEMHAAY0L@$$CBD@Z DD 019930522H
	DD	01H
	DD	FLAT:__unwindtable$??$GetAnimationEventTime_e@$0L@@ioEntityGroup@@QAEMHAAY0L@$$CBD@Z
	DD	2 DUP(00H)
	DD	2 DUP(00H)
	DD	00H
	DD	01H
; Function compile flags: /Ogsp
; File d:\lost saga for developer\youtube\tutorial\source\src\io3dengine\ioentitygroup.h
xdata$x	ENDS
;	COMDAT ??$GetAnimationEventTime_e@$0L@@ioEntityGroup@@QAEMHAAY0L@$$CBD@Z
_TEXT	SEGMENT
$T530241 = -52						; size = 16
$T530240 = -36						; size = 4
_szEncEventType$ = -32					; size = 11
__$EHRec$ = -12						; size = 12
_id$ = 8						; size = 4
_szEventType$ = 12					; size = 4
??$GetAnimationEventTime_e@$0L@@ioEntityGroup@@QAEMHAAY0L@$$CBD@Z PROC ; ioEntityGroup::GetAnimationEventTime_e<11>, COMDAT
; _this$ = ecx

; 414  : 	{

  00000	6a 28		 push	 40			; 00000028H
  00002	b8 00 00 00 00	 mov	 eax, __ehhandler$??$GetAnimationEventTime_e@$0L@@ioEntityGroup@@QAEMHAAY0L@$$CBD@Z
  00007	e8 00 00 00 00	 call	 __EH_prolog3_GS
  0000c	8b 45 0c	 mov	 eax, DWORD PTR _szEventType$[ebp]
  0000f	8b f1		 mov	 esi, ecx

; 415  : 		_ENCSTR(szEventType, szEncEventType);

  00011	8a 08		 mov	 cl, BYTE PTR [eax]
  00013	84 c9		 test	 cl, cl
  00015	0f 84 1b 01 00
	00		 je	 $LN96@GetAnimati
  0001b	b2 ed		 mov	 dl, -19			; ffffffedH
  0001d	32 ca		 xor	 cl, dl
  0001f	88 4d e0	 mov	 BYTE PTR _szEncEventType$[ebp], cl
  00022	8a 48 01	 mov	 cl, BYTE PTR [eax+1]
  00025	84 c9		 test	 cl, cl
  00027	0f 84 03 01 00
	00		 je	 $LN95@GetAnimati
  0002d	80 f1 ec	 xor	 cl, -20			; ffffffecH
  00030	88 4d e1	 mov	 BYTE PTR _szEncEventType$[ebp+1], cl
  00033	8a 48 02	 mov	 cl, BYTE PTR [eax+2]
  00036	84 c9		 test	 cl, cl
  00038	0f 84 ec 00 00
	00		 je	 $LN94@GetAnimati
  0003e	80 f1 eb	 xor	 cl, -21			; ffffffebH
  00041	88 4d e2	 mov	 BYTE PTR _szEncEventType$[ebp+2], cl
  00044	8a 48 03	 mov	 cl, BYTE PTR [eax+3]
  00047	84 c9		 test	 cl, cl
  00049	0f 84 d5 00 00
	00		 je	 $LN93@GetAnimati
  0004f	80 f1 ea	 xor	 cl, -22			; ffffffeaH
  00052	88 4d e3	 mov	 BYTE PTR _szEncEventType$[ebp+3], cl
  00055	8a 48 04	 mov	 cl, BYTE PTR [eax+4]
  00058	84 c9		 test	 cl, cl
  0005a	0f 84 bf 00 00
	00		 je	 $LN92@GetAnimati
  00060	32 ca		 xor	 cl, dl
  00062	88 4d e4	 mov	 BYTE PTR _szEncEventType$[ebp+4], cl
  00065	8a 48 05	 mov	 cl, BYTE PTR [eax+5]
  00068	84 c9		 test	 cl, cl
  0006a	0f 84 a9 00 00
	00		 je	 $LN91@GetAnimati
  00070	80 f1 ec	 xor	 cl, -20			; ffffffecH
  00073	88 4d e5	 mov	 BYTE PTR _szEncEventType$[ebp+5], cl
  00076	8a 48 06	 mov	 cl, BYTE PTR [eax+6]
  00079	84 c9		 test	 cl, cl
  0007b	0f 84 92 00 00
	00		 je	 $LN90@GetAnimati
  00081	80 f1 eb	 xor	 cl, -21			; ffffffebH
  00084	88 4d e6	 mov	 BYTE PTR _szEncEventType$[ebp+6], cl
  00087	8a 48 07	 mov	 cl, BYTE PTR [eax+7]
  0008a	84 c9		 test	 cl, cl
  0008c	74 7f		 je	 SHORT $LN89@GetAnimati
  0008e	80 f1 ea	 xor	 cl, -22			; ffffffeaH
  00091	88 4d e7	 mov	 BYTE PTR _szEncEventType$[ebp+7], cl
  00094	8a 48 08	 mov	 cl, BYTE PTR [eax+8]
  00097	84 c9		 test	 cl, cl
  00099	74 6d		 je	 SHORT $LN88@GetAnimati
  0009b	32 ca		 xor	 cl, dl
  0009d	88 4d e8	 mov	 BYTE PTR _szEncEventType$[ebp+8], cl
  000a0	8a 48 09	 mov	 cl, BYTE PTR [eax+9]
  000a3	84 c9		 test	 cl, cl
  000a5	74 5b		 je	 SHORT $LN87@GetAnimati
  000a7	80 f1 ec	 xor	 cl, -20			; ffffffecH
  000aa	80 78 0a 00	 cmp	 BYTE PTR [eax+10], 0
  000ae	88 4d e9	 mov	 BYTE PTR _szEncEventType$[ebp+9], cl
  000b1	0f 84 83 00 00
	00		 je	 $LN1@GetAnimati
  000b7	8a 48 0b	 mov	 cl, BYTE PTR [eax+11]
  000ba	84 c9		 test	 cl, cl
  000bc	74 3e		 je	 SHORT $LN85@GetAnimati
  000be	80 f1 ea	 xor	 cl, -22			; ffffffeaH
  000c1	88 4d eb	 mov	 BYTE PTR _szEncEventType$[ebp+11], cl
  000c4	8a 48 0c	 mov	 cl, BYTE PTR [eax+12]
  000c7	84 c9		 test	 cl, cl
  000c9	74 2c		 je	 SHORT $LN84@GetAnimati
  000cb	32 ca		 xor	 cl, dl
  000cd	88 4d ec	 mov	 BYTE PTR _szEncEventType$[ebp+12], cl
  000d0	8a 48 0d	 mov	 cl, BYTE PTR [eax+13]
  000d3	84 c9		 test	 cl, cl
  000d5	74 1a		 je	 SHORT $LN83@GetAnimati
  000d7	8a 40 0e	 mov	 al, BYTE PTR [eax+14]
  000da	80 f1 ec	 xor	 cl, -20			; ffffffecH
  000dd	88 4d ed	 mov	 BYTE PTR _szEncEventType$[ebp+13], cl
  000e0	84 c0		 test	 al, al
  000e2	74 07		 je	 SHORT $LN82@GetAnimati
  000e4	34 eb		 xor	 al, -21			; ffffffebH
  000e6	88 45 ee	 mov	 BYTE PTR _szEncEventType$[ebp+14], al
  000e9	eb 4f		 jmp	 SHORT $LN1@GetAnimati
$LN82@GetAnimati:
  000eb	c6 45 ee eb	 mov	 BYTE PTR _szEncEventType$[ebp+14], -21 ; ffffffebH
  000ef	eb 49		 jmp	 SHORT $LN1@GetAnimati
$LN83@GetAnimati:
  000f1	c6 45 ed ec	 mov	 BYTE PTR _szEncEventType$[ebp+13], -20 ; ffffffecH
  000f5	eb 43		 jmp	 SHORT $LN1@GetAnimati
$LN84@GetAnimati:
  000f7	88 55 ec	 mov	 BYTE PTR _szEncEventType$[ebp+12], dl
  000fa	eb 3e		 jmp	 SHORT $LN1@GetAnimati
$LN85@GetAnimati:
  000fc	c6 45 eb ea	 mov	 BYTE PTR _szEncEventType$[ebp+11], -22 ; ffffffeaH
  00100	eb 38		 jmp	 SHORT $LN1@GetAnimati
$LN87@GetAnimati:
  00102	c6 45 e9 ec	 mov	 BYTE PTR _szEncEventType$[ebp+9], -20 ; ffffffecH
  00106	eb 32		 jmp	 SHORT $LN1@GetAnimati
$LN88@GetAnimati:
  00108	88 55 e8	 mov	 BYTE PTR _szEncEventType$[ebp+8], dl
  0010b	eb 2d		 jmp	 SHORT $LN1@GetAnimati
$LN89@GetAnimati:
  0010d	c6 45 e7 ea	 mov	 BYTE PTR _szEncEventType$[ebp+7], -22 ; ffffffeaH
  00111	eb 27		 jmp	 SHORT $LN1@GetAnimati
$LN90@GetAnimati:
  00113	c6 45 e6 eb	 mov	 BYTE PTR _szEncEventType$[ebp+6], -21 ; ffffffebH
  00117	eb 21		 jmp	 SHORT $LN1@GetAnimati
$LN91@GetAnimati:
  00119	c6 45 e5 ec	 mov	 BYTE PTR _szEncEventType$[ebp+5], -20 ; ffffffecH
  0011d	eb 1b		 jmp	 SHORT $LN1@GetAnimati
$LN92@GetAnimati:
  0011f	88 55 e4	 mov	 BYTE PTR _szEncEventType$[ebp+4], dl
  00122	eb 16		 jmp	 SHORT $LN1@GetAnimati
$LN93@GetAnimati:
  00124	c6 45 e3 ea	 mov	 BYTE PTR _szEncEventType$[ebp+3], -22 ; ffffffeaH
  00128	eb 10		 jmp	 SHORT $LN1@GetAnimati
$LN94@GetAnimati:
  0012a	c6 45 e2 eb	 mov	 BYTE PTR _szEncEventType$[ebp+2], -21 ; ffffffebH
  0012e	eb 0a		 jmp	 SHORT $LN1@GetAnimati
$LN95@GetAnimati:
  00130	c6 45 e1 ec	 mov	 BYTE PTR _szEncEventType$[ebp+1], -20 ; ffffffecH
  00134	eb 04		 jmp	 SHORT $LN1@GetAnimati
$LN96@GetAnimati:
  00136	c6 45 e0 ed	 mov	 BYTE PTR _szEncEventType$[ebp], -19 ; ffffffedH
$LN1@GetAnimati:
  0013a	6a 02		 push	 2
  0013c	8d 45 e0	 lea	 eax, DWORD PTR _szEncEventType$[ebp]
  0013f	c6 45 ea 00	 mov	 BYTE PTR _szEncEventType$[ebp+10], 0
  00143	59		 pop	 ecx
$LL105@GetAnimati:
  00144	81 30 ed ec eb
	ea		 xor	 DWORD PTR [eax], -353637139 ; eaebecedH
  0014a	83 c0 04	 add	 eax, 4
  0014d	49		 dec	 ecx
  0014e	75 f4		 jne	 SHORT $LL105@GetAnimati
  00150	6a 08		 push	 8
  00152	58		 pop	 eax
$LL102@GetAnimati:
  00153	8b c8		 mov	 ecx, eax
  00155	81 e1 03 00 00
	80		 and	 ecx, -2147483645	; 80000003H
  0015b	79 05		 jns	 SHORT $LN113@GetAnimati
  0015d	49		 dec	 ecx
  0015e	83 c9 fc	 or	 ecx, -4			; fffffffcH
  00161	41		 inc	 ecx
$LN113@GetAnimati:
  00162	b2 ed		 mov	 dl, -19			; ffffffedH
  00164	2a d1		 sub	 dl, cl
  00166	30 54 05 e0	 xor	 BYTE PTR _szEncEventType$[ebp+eax], dl
  0016a	40		 inc	 eax
  0016b	83 f8 0a	 cmp	 eax, 10			; 0000000aH
  0016e	7c e3		 jl	 SHORT $LL102@GetAnimati

; 416  : 		return GetAnimationEventTime(id, szEncEventType);

  00170	8d 45 e0	 lea	 eax, DWORD PTR _szEncEventType$[ebp]
  00173	50		 push	 eax
  00174	8d 4d cc	 lea	 ecx, DWORD PTR $T530241[ebp]
  00177	ff 15 00 00 00
	00		 call	 DWORD PTR __imp_??0ioHashString@@QAE@PBD@Z
  0017d	83 65 fc 00	 and	 DWORD PTR __$EHRec$[ebp+8], 0
  00181	8d 45 cc	 lea	 eax, DWORD PTR $T530241[ebp]
  00184	50		 push	 eax
  00185	ff 75 08	 push	 DWORD PTR _id$[ebp]
  00188	8b ce		 mov	 ecx, esi
  0018a	ff 15 00 00 00
	00		 call	 DWORD PTR __imp_?GetAnimationEventTime@ioEntityGroup@@QAEMHABVioHashString@@@Z
  00190	d9 5d dc	 fstp	 DWORD PTR $T530240[ebp]
  00193	83 4d fc ff	 or	 DWORD PTR __$EHRec$[ebp+8], -1
  00197	8d 4d cc	 lea	 ecx, DWORD PTR $T530241[ebp]
  0019a	ff 15 00 00 00
	00		 call	 DWORD PTR __imp_??1ioHashString@@QAE@XZ
  001a0	d9 45 dc	 fld	 DWORD PTR $T530240[ebp]

; 417  : 	}

  001a3	e8 00 00 00 00	 call	 __EH_epilog3_GS
  001a8	c2 08 00	 ret	 8
_TEXT	ENDS
;	COMDAT text$x
text$x	SEGMENT
__unwindfunclet$??$GetAnimationEventTime_e@$0L@@ioEntityGroup@@QAEMHAAY0L@$$CBD@Z$0:
  00000	8d 4d cc	 lea	 ecx, DWORD PTR $T530241[ebp]
  00003	ff 25 00 00 00
	00		 jmp	 DWORD PTR __imp_??1ioHashString@@QAE@XZ
__ehhandler$??$GetAnimationEventTime_e@$0L@@ioEntityGroup@@QAEMHAAY0L@$$CBD@Z:
  00009	8b 54 24 08	 mov	 edx, DWORD PTR [esp+8]
  0000d	8d 42 0c	 lea	 eax, DWORD PTR [edx+12]
  00010	8b 4a c8	 mov	 ecx, DWORD PTR [edx-56]
  00013	33 c8		 xor	 ecx, eax
  00015	e8 00 00 00 00	 call	 @__security_check_cookie@4
  0001a	8b 4a fc	 mov	 ecx, DWORD PTR [edx-4]
  0001d	33 c8		 xor	 ecx, eax
  0001f	e8 00 00 00 00	 call	 @__security_check_cookie@4
  00024	b8 00 00 00 00	 mov	 eax, OFFSET __ehfuncinfo$??$GetAnimationEventTime_e@$0L@@ioEntityGroup@@QAEMHAAY0L@$$CBD@Z
  00029	e9 00 00 00 00	 jmp	 ___CxxFrameHandler3
text$x	ENDS
??$GetAnimationEventTime_e@$0L@@ioEntityGroup@@QAEMHAAY0L@$$CBD@Z ENDP ; ioEntityGroup::GetAnimationEventTime_e<11>
PUBLIC	__real@3fd2ee0d320154cb
PUBLIC	__real@41f0000000000000
PUBLIC	??$RADtoDEG@M@@YAMM@Z				; RADtoDEG<float>
;	COMDAT __real@3fd2ee0d320154cb
; File d:\lost saga for developer\youtube\tutorial\source\src\lsclient\veryoftenusedefine.h
CONST	SEGMENT
__real@3fd2ee0d320154cb DQ 03fd2ee0d320154cbr	; 0.29578
CONST	ENDS
;	COMDAT __real@41f0000000000000
CONST	SEGMENT
__real@41f0000000000000 DQ 041f0000000000000r	; 4.29497e+009
; Function compile flags: /Ogsp
CONST	ENDS
;	COMDAT ??$RADtoDEG@M@@YAMM@Z
_TEXT	SEGMENT
tv130 = -4						; size = 4
tv75 = 8						; size = 4
_val$ = 8						; size = 4
??$RADtoDEG@M@@YAMM@Z PROC				; RADtoDEG<float>, COMDAT

; 18   : type  RADtoDEG (type val) {return (type) (val * (return57() + 0.2957795132)); }

  00000	55		 push	 ebp
  00001	8b ec		 mov	 ebp, esp
  00003	51		 push	 ecx
  00004	b8 39 00 00 00	 mov	 eax, 57			; 00000039H
  00009	89 45 fc	 mov	 DWORD PTR tv130[ebp], eax
  0000c	db 45 fc	 fild	 DWORD PTR tv130[ebp]
  0000f	85 c0		 test	 eax, eax
  00011	79 06		 jns	 SHORT $LN5@RADtoDEG
  00013	dc 05 00 00 00
	00		 fadd	 QWORD PTR __real@41f0000000000000
$LN5@RADtoDEG:
  00019	dc 05 00 00 00
	00		 fadd	 QWORD PTR __real@3fd2ee0d320154cb
  0001f	d8 4d 08	 fmul	 DWORD PTR _val$[ebp]
  00022	d9 5d 08	 fstp	 DWORD PTR tv75[ebp]
  00025	d9 45 08	 fld	 DWORD PTR tv75[ebp]
  00028	c9		 leave
  00029	c3		 ret	 0
??$RADtoDEG@M@@YAMM@Z ENDP				; RADtoDEG<float>
_TEXT	ENDS
PUBLIC	??$_Cons_val@V?$allocator@VioHashString@@@std@@VioHashString@@V3@@std@@YAXAAV?$allocator@VioHashString@@@0@PAVioHashString@@$$QAV2@@Z ; std::_Cons_val<std::allocator<ioHashString>,ioHashString,ioHashString>
; Function compile flags: /Ogsp
; File c:\program files (x86)\microsoft visual studio 10.0\vc\include\xmemory
;	COMDAT ??$_Cons_val@V?$allocator@VioHashString@@@std@@VioHashString@@V3@@std@@YAXAAV?$allocator@VioHashString@@@0@PAVioHashString@@$$QAV2@@Z
_TEXT	SEGMENT
__Alval$ = 8						; size = 4
__Pdest$ = 12						; size = 4
__Src$ = 16						; size = 4
??$_Cons_val@V?$allocator@VioHashString@@@std@@VioHashString@@V3@@std@@YAXAAV?$allocator@VioHashString@@@0@PAVioHashString@@$$QAV2@@Z PROC ; std::_Cons_val<std::allocator<ioHashString>,ioHashString,ioHashString>, COMDAT

; 279  : 	{	// construct using allocator

  00000	55		 push	 ebp
  00001	8b ec		 mov	 ebp, esp

; 280  : 	_Alval.construct(_Pdest, _STD forward<_Ty2>(_Src));

  00003	ff 75 10	 push	 DWORD PTR __Src$[ebp]
  00006	8b 4d 08	 mov	 ecx, DWORD PTR __Alval$[ebp]
  00009	ff 75 0c	 push	 DWORD PTR __Pdest$[ebp]
  0000c	e8 00 00 00 00	 call	 ?construct@?$allocator@VioHashString@@@std@@QAEXPAVioHashString@@$$QAV3@@Z ; std::allocator<ioHashString>::construct

; 281  : 	}

  00011	5d		 pop	 ebp
  00012	c3		 ret	 0
??$_Cons_val@V?$allocator@VioHashString@@@std@@VioHashString@@V3@@std@@YAXAAV?$allocator@VioHashString@@@0@PAVioHashString@@$$QAV2@@Z ENDP ; std::_Cons_val<std::allocator<ioHashString>,ioHashString,ioHashString>
_TEXT	ENDS
PUBLIC	?construct@?$allocator@UForceInfo@@@std@@QAEXPAUForceInfo@@ABU3@@Z ; std::allocator<ForceInfo>::construct
; Function compile flags: /Ogsp
;	COMDAT ?construct@?$allocator@UForceInfo@@@std@@QAEXPAUForceInfo@@ABU3@@Z
_TEXT	SEGMENT
__Ptr$ = 8						; size = 4
__Val$ = 12						; size = 4
?construct@?$allocator@UForceInfo@@@std@@QAEXPAUForceInfo@@ABU3@@Z PROC ; std::allocator<ForceInfo>::construct, COMDAT
; _this$ = ecx

; 196  : 		{	// construct object at _Ptr with value _Val

  00000	55		 push	 ebp
  00001	8b ec		 mov	 ebp, esp
  00003	57		 push	 edi

; 197  : 		_Construct(_Ptr, _Val);

  00004	8b 7d 08	 mov	 edi, DWORD PTR __Ptr$[ebp]
  00007	85 ff		 test	 edi, edi
  00009	74 08		 je	 SHORT $LN5@construct@2
  0000b	56		 push	 esi
  0000c	8b 75 0c	 mov	 esi, DWORD PTR __Val$[ebp]
  0000f	a5		 movsd
  00010	a5		 movsd
  00011	a5		 movsd
  00012	5e		 pop	 esi
$LN5@construct@2:
  00013	5f		 pop	 edi

; 198  : 		}

  00014	5d		 pop	 ebp
  00015	c2 08 00	 ret	 8
?construct@?$allocator@UForceInfo@@@std@@QAEXPAUForceInfo@@ABU3@@Z ENDP ; std::allocator<ForceInfo>::construct
_TEXT	ENDS
PUBLIC	??$_Construct@UWeaponInfo@@ABU1@@std@@YAXPAUWeaponInfo@@ABU1@@Z ; std::_Construct<WeaponInfo,WeaponInfo const &>
;	COMDAT xdata$x
; File c:\program files (x86)\microsoft visual studio 10.0\vc\include\utility
xdata$x	SEGMENT
__unwindtable$??$_Construct@UWeaponInfo@@ABU1@@std@@YAXPAUWeaponInfo@@ABU1@@Z DD 0ffffffffH
	DD	FLAT:__unwindfunclet$??$_Construct@UWeaponInfo@@ABU1@@std@@YAXPAUWeaponInfo@@ABU1@@Z$0
__ehfuncinfo$??$_Construct@UWeaponInfo@@ABU1@@std@@YAXPAUWeaponInfo@@ABU1@@Z DD 019930522H
	DD	01H
	DD	FLAT:__unwindtable$??$_Construct@UWeaponInfo@@ABU1@@std@@YAXPAUWeaponInfo@@ABU1@@Z
	DD	2 DUP(00H)
	DD	2 DUP(00H)
	DD	00H
	DD	01H
; Function compile flags: /Ogsp
; File c:\program files (x86)\microsoft visual studio 10.0\vc\include\xmemory
xdata$x	ENDS
;	COMDAT ??$_Construct@UWeaponInfo@@ABU1@@std@@YAXPAUWeaponInfo@@ABU1@@Z
_TEXT	SEGMENT
$T530313 = -16						; size = 4
__$EHRec$ = -12						; size = 12
__Vptr$ = 8						; size = 4
__Ptr$ = 8						; size = 4
__Val$ = 12						; size = 4
??$_Construct@UWeaponInfo@@ABU1@@std@@YAXPAUWeaponInfo@@ABU1@@Z PROC ; std::_Construct<WeaponInfo,WeaponInfo const &>, COMDAT

; 46   : 	{	// construct object at _Ptr with value _Val

  00000	6a 04		 push	 4
  00002	b8 00 00 00 00	 mov	 eax, __ehhandler$??$_Construct@UWeaponInfo@@ABU1@@std@@YAXPAUWeaponInfo@@ABU1@@Z
  00007	e8 00 00 00 00	 call	 __EH_prolog3

; 47   : 	void _FARQ *_Vptr = _Ptr;

  0000c	8b 4d 08	 mov	 ecx, DWORD PTR __Ptr$[ebp]
  0000f	89 4d 08	 mov	 DWORD PTR __Vptr$[ebp], ecx

; 48   : 	::new (_Vptr) _Ty1(_STD forward<_Ty2>(_Val));

  00012	89 4d f0	 mov	 DWORD PTR $T530313[ebp], ecx
  00015	83 65 fc 00	 and	 DWORD PTR __$EHRec$[ebp+8], 0
  00019	85 c9		 test	 ecx, ecx
  0001b	74 08		 je	 SHORT $LN3@Construct@3
  0001d	ff 75 0c	 push	 DWORD PTR __Val$[ebp]
  00020	e8 00 00 00 00	 call	 ??0WeaponInfo@@QAE@ABU0@@Z
$LN3@Construct@3:

; 49   : 	}

  00025	e8 00 00 00 00	 call	 __EH_epilog3
  0002a	c3		 ret	 0
_TEXT	ENDS
;	COMDAT text$x
text$x	SEGMENT
__unwindfunclet$??$_Construct@UWeaponInfo@@ABU1@@std@@YAXPAUWeaponInfo@@ABU1@@Z$0:
  00000	ff 75 08	 push	 DWORD PTR __Vptr$[ebp]
  00003	ff 75 f0	 push	 DWORD PTR $T530313[ebp]
  00006	e8 00 00 00 00	 call	 ??3@YAXPAX0@Z		; operator delete
  0000b	59		 pop	 ecx
  0000c	59		 pop	 ecx
  0000d	c3		 ret	 0
__ehhandler$??$_Construct@UWeaponInfo@@ABU1@@std@@YAXPAUWeaponInfo@@ABU1@@Z:
  0000e	8b 54 24 08	 mov	 edx, DWORD PTR [esp+8]
  00012	8d 42 0c	 lea	 eax, DWORD PTR [edx+12]
  00015	8b 4a ec	 mov	 ecx, DWORD PTR [edx-20]
  00018	33 c8		 xor	 ecx, eax
  0001a	e8 00 00 00 00	 call	 @__security_check_cookie@4
  0001f	b8 00 00 00 00	 mov	 eax, OFFSET __ehfuncinfo$??$_Construct@UWeaponInfo@@ABU1@@std@@YAXPAUWeaponInfo@@ABU1@@Z
  00024	e9 00 00 00 00	 jmp	 ___CxxFrameHandler3
text$x	ENDS
??$_Construct@UWeaponInfo@@ABU1@@std@@YAXPAUWeaponInfo@@ABU1@@Z ENDP ; std::_Construct<WeaponInfo,WeaponInfo const &>
PUBLIC	??0?$CEncrypt@M@@QAE@XZ				; CEncrypt<float>::CEncrypt<float>
EXTRN	??0ccddaabb@@QAE@XZ:PROC			; ccddaabb::ccddaabb
;	COMDAT xdata$x
; File d:\lost saga for developer\youtube\tutorial\source\src\lsclient\encryptvalue.h
xdata$x	SEGMENT
__unwindtable$??0?$CEncrypt@M@@QAE@XZ DD 0ffffffffH
	DD	FLAT:__unwindfunclet$??0?$CEncrypt@M@@QAE@XZ$0
__ehfuncinfo$??0?$CEncrypt@M@@QAE@XZ DD 019930522H
	DD	01H
	DD	FLAT:__unwindtable$??0?$CEncrypt@M@@QAE@XZ
	DD	2 DUP(00H)
	DD	2 DUP(00H)
	DD	00H
	DD	01H
; Function compile flags: /Ogsp
xdata$x	ENDS
;	COMDAT ??0?$CEncrypt@M@@QAE@XZ
_TEXT	SEGMENT
_this$ = -16						; size = 4
__$EHRec$ = -12						; size = 12
??0?$CEncrypt@M@@QAE@XZ PROC				; CEncrypt<float>::CEncrypt<float>, COMDAT
; _this$ = ecx

; 109  : 	CEncrypt()

  00000	6a 04		 push	 4
  00002	b8 00 00 00 00	 mov	 eax, __ehhandler$??0?$CEncrypt@M@@QAE@XZ
  00007	e8 00 00 00 00	 call	 __EH_prolog3
  0000c	8b f1		 mov	 esi, ecx
  0000e	89 75 f0	 mov	 DWORD PTR _this$[ebp], esi
  00011	8d 4e 0c	 lea	 ecx, DWORD PTR [esi+12]
  00014	c7 06 00 00 00
	00		 mov	 DWORD PTR [esi], OFFSET ??_7?$CEncrypt@M@@6B@
  0001a	e8 00 00 00 00	 call	 ??0ccddaabb@@QAE@XZ	; ccddaabb::ccddaabb
  0001f	83 65 fc 00	 and	 DWORD PTR __$EHRec$[ebp+8], 0

; 110  : 	{
; 111  : 		Init();

  00023	8b ce		 mov	 ecx, esi
  00025	e8 00 00 00 00	 call	 ?Init@?$CEncrypt@M@@AAEXXZ ; CEncrypt<float>::Init

; 112  : 	}

  0002a	8b c6		 mov	 eax, esi
  0002c	e8 00 00 00 00	 call	 __EH_epilog3
  00031	c3		 ret	 0
_TEXT	ENDS
;	COMDAT text$x
text$x	SEGMENT
__unwindfunclet$??0?$CEncrypt@M@@QAE@XZ$0:
  00000	8b 4d f0	 mov	 ecx, DWORD PTR _this$[ebp]
  00003	83 c1 0c	 add	 ecx, 12			; 0000000cH
  00006	e9 00 00 00 00	 jmp	 ??1ccddaabb@@UAE@XZ	; ccddaabb::~ccddaabb
__ehhandler$??0?$CEncrypt@M@@QAE@XZ:
  0000b	8b 54 24 08	 mov	 edx, DWORD PTR [esp+8]
  0000f	8d 42 0c	 lea	 eax, DWORD PTR [edx+12]
  00012	8b 4a ec	 mov	 ecx, DWORD PTR [edx-20]
  00015	33 c8		 xor	 ecx, eax
  00017	e8 00 00 00 00	 call	 @__security_check_cookie@4
  0001c	b8 00 00 00 00	 mov	 eax, OFFSET __ehfuncinfo$??0?$CEncrypt@M@@QAE@XZ
  00021	e9 00 00 00 00	 jmp	 ___CxxFrameHandler3
text$x	ENDS
??0?$CEncrypt@M@@QAE@XZ ENDP				; CEncrypt<float>::CEncrypt<float>
PUBLIC	??B?$CEncrypt@M@@QAEMXZ				; CEncrypt<float>::operator float
; Function compile flags: /Ogsp
;	COMDAT ??B?$CEncrypt@M@@QAEMXZ
_TEXT	SEGMENT
_value$ = -4						; size = 4
??B?$CEncrypt@M@@QAEMXZ PROC				; CEncrypt<float>::operator float, COMDAT
; _this$ = ecx

; 134  : 	{

  00000	55		 push	 ebp
  00001	8b ec		 mov	 ebp, esp
  00003	51		 push	 ecx

; 135  : 		type value;
; 136  : 		DecryptValueToPool(&value);

  00004	8d 45 fc	 lea	 eax, DWORD PTR _value$[ebp]
  00007	50		 push	 eax
  00008	e8 00 00 00 00	 call	 ?DecryptValueToPool@?$CEncrypt@M@@QAEXPAM@Z ; CEncrypt<float>::DecryptValueToPool

; 137  : 
; 138  : #ifdef _NOTUSE
; 139  : 		Debug();
; 140  : #endif
; 141  : 		return value;

  0000d	d9 45 fc	 fld	 DWORD PTR _value$[ebp]

; 142  : 	}

  00010	c9		 leave
  00011	c3		 ret	 0
??B?$CEncrypt@M@@QAEMXZ ENDP				; CEncrypt<float>::operator float
_TEXT	ENDS
PUBLIC	??B?$CEncrypt@M@@QBEMXZ				; CEncrypt<float>::operator float
; Function compile flags: /Ogsp
;	COMDAT ??B?$CEncrypt@M@@QBEMXZ
_TEXT	SEGMENT
_value$ = -4						; size = 4
??B?$CEncrypt@M@@QBEMXZ PROC				; CEncrypt<float>::operator float, COMDAT
; _this$ = ecx

; 145  : 	{

  00000	55		 push	 ebp
  00001	8b ec		 mov	 ebp, esp
  00003	51		 push	 ecx

; 146  : 		//UJ 130829, const    --start
; 147  : 		type value;
; 148  : 		CEncrypt<type>* pThis = const_cast<CEncrypt<type>*>(this);
; 149  : 		pThis->DecryptValueToPool(&value);

  00004	8d 45 fc	 lea	 eax, DWORD PTR _value$[ebp]
  00007	50		 push	 eax
  00008	e8 00 00 00 00	 call	 ?DecryptValueToPool@?$CEncrypt@M@@QAEXPAM@Z ; CEncrypt<float>::DecryptValueToPool

; 150  : 		//// const DecryptValueToPool     .
; 151  :  		//type value;
; 152  : 		//char szTempMem[MAX_ENCRYPT];
; 153  : 		//m_RC5.DecryptByte( m_MemPool, szTempMem, max(m_ValueSize, DEFAULT_ENCRYPT) );
; 154  : 		//memcpy( &value, szTempMem, m_ValueSize );
; 155  : 		//UJ --end
; 156  : 
; 157  : #ifdef _NOTUSE
; 158  : 		Debug();
; 159  : #endif
; 160  : 		return value;

  0000d	d9 45 fc	 fld	 DWORD PTR _value$[ebp]

; 161  : 	}

  00010	c9		 leave
  00011	c3		 ret	 0
??B?$CEncrypt@M@@QBEMXZ ENDP				; CEncrypt<float>::operator float
_TEXT	ENDS
PUBLIC	??4?$CEncrypt@M@@QAEMM@Z			; CEncrypt<float>::operator=
; Function compile flags: /Ogsp
;	COMDAT ??4?$CEncrypt@M@@QAEMM@Z
_TEXT	SEGMENT
_value$ = 8						; size = 4
_inValue$ = 8						; size = 4
??4?$CEncrypt@M@@QAEMM@Z PROC				; CEncrypt<float>::operator=, COMDAT
; _this$ = ecx

; 1654 : 	{	

  00000	55		 push	 ebp
  00001	8b ec		 mov	 ebp, esp

; 1655 : 		type value = inValue;

  00003	d9 45 08	 fld	 DWORD PTR _inValue$[ebp]

; 1656 : 		EncryptValueToPool((char*)&value);

  00006	8d 45 08	 lea	 eax, DWORD PTR _value$[ebp]
  00009	50		 push	 eax
  0000a	d9 5d 08	 fstp	 DWORD PTR _value$[ebp]
  0000d	e8 00 00 00 00	 call	 ?EncryptValueToPool@?$CEncrypt@M@@AAEXPBD@Z ; CEncrypt<float>::EncryptValueToPool

; 1657 : #ifdef _NOTUSE
; 1658 : 		m_value = inValue;
; 1659 : 		Debug();
; 1660 : #endif
; 1661 : 		return value;

  00012	d9 45 08	 fld	 DWORD PTR _value$[ebp]

; 1662 : 	}

  00015	5d		 pop	 ebp
  00016	c2 04 00	 ret	 4
??4?$CEncrypt@M@@QAEMM@Z ENDP				; CEncrypt<float>::operator=
_TEXT	ENDS
PUBLIC	??B?$CEncrypt@_N@@QBE_NXZ			; CEncrypt<bool>::operator bool
; Function compile flags: /Ogsp
;	COMDAT ??B?$CEncrypt@_N@@QBE_NXZ
_TEXT	SEGMENT
_value$ = -1						; size = 1
??B?$CEncrypt@_N@@QBE_NXZ PROC				; CEncrypt<bool>::operator bool, COMDAT
; _this$ = ecx

; 145  : 	{

  00000	55		 push	 ebp
  00001	8b ec		 mov	 ebp, esp
  00003	51		 push	 ecx

; 146  : 		//UJ 130829, const    --start
; 147  : 		type value;
; 148  : 		CEncrypt<type>* pThis = const_cast<CEncrypt<type>*>(this);
; 149  : 		pThis->DecryptValueToPool(&value);

  00004	8d 45 ff	 lea	 eax, DWORD PTR _value$[ebp]
  00007	50		 push	 eax
  00008	e8 00 00 00 00	 call	 ?DecryptValueToPool@?$CEncrypt@_N@@QAEXPA_N@Z ; CEncrypt<bool>::DecryptValueToPool

; 150  : 		//// const DecryptValueToPool     .
; 151  :  		//type value;
; 152  : 		//char szTempMem[MAX_ENCRYPT];
; 153  : 		//m_RC5.DecryptByte( m_MemPool, szTempMem, max(m_ValueSize, DEFAULT_ENCRYPT) );
; 154  : 		//memcpy( &value, szTempMem, m_ValueSize );
; 155  : 		//UJ --end
; 156  : 
; 157  : #ifdef _NOTUSE
; 158  : 		Debug();
; 159  : #endif
; 160  : 		return value;

  0000d	8a 45 ff	 mov	 al, BYTE PTR _value$[ebp]

; 161  : 	}

  00010	c9		 leave
  00011	c3		 ret	 0
??B?$CEncrypt@_N@@QBE_NXZ ENDP				; CEncrypt<bool>::operator bool
_TEXT	ENDS
PUBLIC	?begin@?$vector@VioHashString@@V?$allocator@VioHashString@@@std@@@std@@QAE?AV?$_Vector_iterator@V?$_Vector_val@VioHashString@@V?$allocator@VioHashString@@@std@@@std@@@2@XZ ; std::vector<ioHashString,std::allocator<ioHashString> >::begin
; Function compile flags: /Ogsp
; File c:\program files (x86)\microsoft visual studio 10.0\vc\include\vector
;	COMDAT ?begin@?$vector@VioHashString@@V?$allocator@VioHashString@@@std@@@std@@QAE?AV?$_Vector_iterator@V?$_Vector_val@VioHashString@@V?$allocator@VioHashString@@@std@@@std@@@2@XZ
_TEXT	SEGMENT
___$ReturnUdt$ = 8					; size = 4
?begin@?$vector@VioHashString@@V?$allocator@VioHashString@@@std@@@std@@QAE?AV?$_Vector_iterator@V?$_Vector_val@VioHashString@@V?$allocator@VioHashString@@@std@@@std@@@2@XZ PROC ; std::vector<ioHashString,std::allocator<ioHashString> >::begin, COMDAT
; _this$ = ecx

; 781  : 		{	// return iterator for beginning of mutable sequence

  00000	55		 push	 ebp
  00001	8b ec		 mov	 ebp, esp

; 782  : 		return (iterator(this->_Myfirst, this));

  00003	8b 09		 mov	 ecx, DWORD PTR [ecx]
  00005	8b 45 08	 mov	 eax, DWORD PTR ___$ReturnUdt$[ebp]
  00008	89 08		 mov	 DWORD PTR [eax], ecx

; 783  : 		}

  0000a	5d		 pop	 ebp
  0000b	c2 04 00	 ret	 4
?begin@?$vector@VioHashString@@V?$allocator@VioHashString@@@std@@@std@@QAE?AV?$_Vector_iterator@V?$_Vector_val@VioHashString@@V?$allocator@VioHashString@@@std@@@std@@@2@XZ ENDP ; std::vector<ioHashString,std::allocator<ioHashString> >::begin
_TEXT	ENDS
PUBLIC	?begin@?$vector@VioHashString@@V?$allocator@VioHashString@@@std@@@std@@QBE?AV?$_Vector_const_iterator@V?$_Vector_val@VioHashString@@V?$allocator@VioHashString@@@std@@@std@@@2@XZ ; std::vector<ioHashString,std::allocator<ioHashString> >::begin
; Function compile flags: /Ogsp
;	COMDAT ?begin@?$vector@VioHashString@@V?$allocator@VioHashString@@@std@@@std@@QBE?AV?$_Vector_const_iterator@V?$_Vector_val@VioHashString@@V?$allocator@VioHashString@@@std@@@std@@@2@XZ
_TEXT	SEGMENT
___$ReturnUdt$ = 8					; size = 4
?begin@?$vector@VioHashString@@V?$allocator@VioHashString@@@std@@@std@@QBE?AV?$_Vector_const_iterator@V?$_Vector_val@VioHashString@@V?$allocator@VioHashString@@@std@@@std@@@2@XZ PROC ; std::vector<ioHashString,std::allocator<ioHashString> >::begin, COMDAT
; _this$ = ecx

; 786  : 		{	// return iterator for beginning of nonmutable sequence

  00000	55		 push	 ebp
  00001	8b ec		 mov	 ebp, esp

; 787  : 		return (const_iterator(this->_Myfirst, this));

  00003	8b 09		 mov	 ecx, DWORD PTR [ecx]
  00005	8b 45 08	 mov	 eax, DWORD PTR ___$ReturnUdt$[ebp]
  00008	89 08		 mov	 DWORD PTR [eax], ecx

; 788  : 		}

  0000a	5d		 pop	 ebp
  0000b	c2 04 00	 ret	 4
?begin@?$vector@VioHashString@@V?$allocator@VioHashString@@@std@@@std@@QBE?AV?$_Vector_const_iterator@V?$_Vector_val@VioHashString@@V?$allocator@VioHashString@@@std@@@std@@@2@XZ ENDP ; std::vector<ioHashString,std::allocator<ioHashString> >::begin
_TEXT	ENDS
PUBLIC	?end@?$vector@VioHashString@@V?$allocator@VioHashString@@@std@@@std@@QAE?AV?$_Vector_iterator@V?$_Vector_val@VioHashString@@V?$allocator@VioHashString@@@std@@@std@@@2@XZ ; std::vector<ioHashString,std::allocator<ioHashString> >::end
; Function compile flags: /Ogsp
;	COMDAT ?end@?$vector@VioHashString@@V?$allocator@VioHashString@@@std@@@std@@QAE?AV?$_Vector_iterator@V?$_Vector_val@VioHashString@@V?$allocator@VioHashString@@@std@@@std@@@2@XZ
_TEXT	SEGMENT
___$ReturnUdt$ = 8					; size = 4
?end@?$vector@VioHashString@@V?$allocator@VioHashString@@@std@@@std@@QAE?AV?$_Vector_iterator@V?$_Vector_val@VioHashString@@V?$allocator@VioHashString@@@std@@@std@@@2@XZ PROC ; std::vector<ioHashString,std::allocator<ioHashString> >::end, COMDAT
; _this$ = ecx

; 791  : 		{	// return iterator for end of mutable sequence

  00000	55		 push	 ebp
  00001	8b ec		 mov	 ebp, esp

; 792  : 		return (iterator(this->_Mylast, this));

  00003	8b 49 04	 mov	 ecx, DWORD PTR [ecx+4]
  00006	8b 45 08	 mov	 eax, DWORD PTR ___$ReturnUdt$[ebp]
  00009	89 08		 mov	 DWORD PTR [eax], ecx

; 793  : 		}

  0000b	5d		 pop	 ebp
  0000c	c2 04 00	 ret	 4
?end@?$vector@VioHashString@@V?$allocator@VioHashString@@@std@@@std@@QAE?AV?$_Vector_iterator@V?$_Vector_val@VioHashString@@V?$allocator@VioHashString@@@std@@@std@@@2@XZ ENDP ; std::vector<ioHashString,std::allocator<ioHashString> >::end
_TEXT	ENDS
PUBLIC	?end@?$vector@VioHashString@@V?$allocator@VioHashString@@@std@@@std@@QBE?AV?$_Vector_const_iterator@V?$_Vector_val@VioHashString@@V?$allocator@VioHashString@@@std@@@std@@@2@XZ ; std::vector<ioHashString,std::allocator<ioHashString> >::end
; Function compile flags: /Ogsp
;	COMDAT ?end@?$vector@VioHashString@@V?$allocator@VioHashString@@@std@@@std@@QBE?AV?$_Vector_const_iterator@V?$_Vector_val@VioHashString@@V?$allocator@VioHashString@@@std@@@std@@@2@XZ
_TEXT	SEGMENT
___$ReturnUdt$ = 8					; size = 4
?end@?$vector@VioHashString@@V?$allocator@VioHashString@@@std@@@std@@QBE?AV?$_Vector_const_iterator@V?$_Vector_val@VioHashString@@V?$allocator@VioHashString@@@std@@@std@@@2@XZ PROC ; std::vector<ioHashString,std::allocator<ioHashString> >::end, COMDAT
; _this$ = ecx

; 796  : 		{	// return iterator for end of nonmutable sequence

  00000	55		 push	 ebp
  00001	8b ec		 mov	 ebp, esp

; 797  : 		return (const_iterator(this->_Mylast, this));

  00003	8b 49 04	 mov	 ecx, DWORD PTR [ecx+4]
  00006	8b 45 08	 mov	 eax, DWORD PTR ___$ReturnUdt$[ebp]
  00009	89 08		 mov	 DWORD PTR [eax], ecx

; 798  : 		}

  0000b	5d		 pop	 ebp
  0000c	c2 04 00	 ret	 4
?end@?$vector@VioHashString@@V?$allocator@VioHashString@@@std@@@std@@QBE?AV?$_Vector_const_iterator@V?$_Vector_val@VioHashString@@V?$allocator@VioHashString@@@std@@@std@@@2@XZ ENDP ; std::vector<ioHashString,std::allocator<ioHashString> >::end
_TEXT	ENDS
PUBLIC	??0?$_Vector_val@VioHashString@@V?$allocator@VioHashString@@@std@@@std@@QAE@V?$allocator@VioHashString@@@1@@Z ; std::_Vector_val<ioHashString,std::allocator<ioHashString> >::_Vector_val<ioHashString,std::allocator<ioHashString> >
; Function compile flags: /Ogsp
;	COMDAT ??0?$_Vector_val@VioHashString@@V?$allocator@VioHashString@@@std@@@std@@QAE@V?$allocator@VioHashString@@@1@@Z
_TEXT	SEGMENT
__Al$ = 8						; size = 1
??0?$_Vector_val@VioHashString@@V?$allocator@VioHashString@@@std@@@std@@QAE@V?$allocator@VioHashString@@@1@@Z PROC ; std::_Vector_val<ioHashString,std::allocator<ioHashString> >::_Vector_val<ioHashString,std::allocator<ioHashString> >, COMDAT
; _this$ = ecx

; 426  : 		{	// construct allocator from _Al

  00000	8b c1		 mov	 eax, ecx

; 427  : 		_Myfirst = 0;

  00002	33 c9		 xor	 ecx, ecx
  00004	89 08		 mov	 DWORD PTR [eax], ecx

; 428  : 		_Mylast = 0;

  00006	89 48 04	 mov	 DWORD PTR [eax+4], ecx

; 429  : 		_Myend = 0;

  00009	89 48 08	 mov	 DWORD PTR [eax+8], ecx

; 430  : 		}

  0000c	c2 04 00	 ret	 4
??0?$_Vector_val@VioHashString@@V?$allocator@VioHashString@@@std@@@std@@QAE@V?$allocator@VioHashString@@@1@@Z ENDP ; std::_Vector_val<ioHashString,std::allocator<ioHashString> >::_Vector_val<ioHashString,std::allocator<ioHashString> >
_TEXT	ENDS
PUBLIC	??0?$_Vector_val@UWeaponInfo@@V?$allocator@UWeaponInfo@@@std@@@std@@QAE@V?$allocator@UWeaponInfo@@@1@@Z ; std::_Vector_val<WeaponInfo,std::allocator<WeaponInfo> >::_Vector_val<WeaponInfo,std::allocator<WeaponInfo> >
; Function compile flags: /Ogsp
;	COMDAT ??0?$_Vector_val@UWeaponInfo@@V?$allocator@UWeaponInfo@@@std@@@std@@QAE@V?$allocator@UWeaponInfo@@@1@@Z
_TEXT	SEGMENT
__Al$ = 8						; size = 1
??0?$_Vector_val@UWeaponInfo@@V?$allocator@UWeaponInfo@@@std@@@std@@QAE@V?$allocator@UWeaponInfo@@@1@@Z PROC ; std::_Vector_val<WeaponInfo,std::allocator<WeaponInfo> >::_Vector_val<WeaponInfo,std::allocator<WeaponInfo> >, COMDAT
; _this$ = ecx

; 426  : 		{	// construct allocator from _Al

  00000	8b c1		 mov	 eax, ecx

; 427  : 		_Myfirst = 0;

  00002	33 c9		 xor	 ecx, ecx
  00004	89 08		 mov	 DWORD PTR [eax], ecx

; 428  : 		_Mylast = 0;

  00006	89 48 04	 mov	 DWORD PTR [eax+4], ecx

; 429  : 		_Myend = 0;

  00009	89 48 08	 mov	 DWORD PTR [eax+8], ecx

; 430  : 		}

  0000c	c2 04 00	 ret	 4
??0?$_Vector_val@UWeaponInfo@@V?$allocator@UWeaponInfo@@@std@@@std@@QAE@V?$allocator@UWeaponInfo@@@1@@Z ENDP ; std::_Vector_val<WeaponInfo,std::allocator<WeaponInfo> >::_Vector_val<WeaponInfo,std::allocator<WeaponInfo> >
_TEXT	ENDS
PUBLIC	??0?$_Vector_val@UForceInfo@@V?$allocator@UForceInfo@@@std@@@std@@QAE@V?$allocator@UForceInfo@@@1@@Z ; std::_Vector_val<ForceInfo,std::allocator<ForceInfo> >::_Vector_val<ForceInfo,std::allocator<ForceInfo> >
; Function compile flags: /Ogsp
;	COMDAT ??0?$_Vector_val@UForceInfo@@V?$allocator@UForceInfo@@@std@@@std@@QAE@V?$allocator@UForceInfo@@@1@@Z
_TEXT	SEGMENT
__Al$ = 8						; size = 1
??0?$_Vector_val@UForceInfo@@V?$allocator@UForceInfo@@@std@@@std@@QAE@V?$allocator@UForceInfo@@@1@@Z PROC ; std::_Vector_val<ForceInfo,std::allocator<ForceInfo> >::_Vector_val<ForceInfo,std::allocator<ForceInfo> >, COMDAT
; _this$ = ecx

; 426  : 		{	// construct allocator from _Al

  00000	8b c1		 mov	 eax, ecx

; 427  : 		_Myfirst = 0;

  00002	33 c9		 xor	 ecx, ecx
  00004	89 08		 mov	 DWORD PTR [eax], ecx

; 428  : 		_Mylast = 0;

  00006	89 48 04	 mov	 DWORD PTR [eax+4], ecx

; 429  : 		_Myend = 0;

  00009	89 48 08	 mov	 DWORD PTR [eax+8], ecx

; 430  : 		}

  0000c	c2 04 00	 ret	 4
??0?$_Vector_val@UForceInfo@@V?$allocator@UForceInfo@@@std@@@std@@QAE@V?$allocator@UForceInfo@@@1@@Z ENDP ; std::_Vector_val<ForceInfo,std::allocator<ForceInfo> >::_Vector_val<ForceInfo,std::allocator<ForceInfo> >
_TEXT	ENDS
PUBLIC	?_Make_iter@?$vector@VioHashString@@V?$allocator@VioHashString@@@std@@@std@@QBE?AV?$_Vector_iterator@V?$_Vector_val@VioHashString@@V?$allocator@VioHashString@@@std@@@std@@@2@V?$_Vector_const_iterator@V?$_Vector_val@VioHashString@@V?$allocator@VioHashString@@@std@@@std@@@2@@Z ; std::vector<ioHashString,std::allocator<ioHashString> >::_Make_iter
; Function compile flags: /Ogsp
;	COMDAT ?_Make_iter@?$vector@VioHashString@@V?$allocator@VioHashString@@@std@@@std@@QBE?AV?$_Vector_iterator@V?$_Vector_val@VioHashString@@V?$allocator@VioHashString@@@std@@@std@@@2@V?$_Vector_const_iterator@V?$_Vector_val@VioHashString@@V?$allocator@VioHashString@@@std@@@std@@@2@@Z
_TEXT	SEGMENT
___$ReturnUdt$ = 8					; size = 4
__Where$ = 12						; size = 4
?_Make_iter@?$vector@VioHashString@@V?$allocator@VioHashString@@@std@@@std@@QBE?AV?$_Vector_iterator@V?$_Vector_val@VioHashString@@V?$allocator@VioHashString@@@std@@@std@@@2@V?$_Vector_const_iterator@V?$_Vector_val@VioHashString@@V?$allocator@VioHashString@@@std@@@std@@@2@@Z PROC ; std::vector<ioHashString,std::allocator<ioHashString> >::_Make_iter, COMDAT
; _this$ = ecx

; 801  : 		{	// make iterator from const_iterator

  00000	55		 push	 ebp
  00001	8b ec		 mov	 ebp, esp

; 802  : 		return (iterator(_Where._Ptr, this));

  00003	8b 45 08	 mov	 eax, DWORD PTR ___$ReturnUdt$[ebp]
  00006	8b 4d 0c	 mov	 ecx, DWORD PTR __Where$[ebp]
  00009	89 08		 mov	 DWORD PTR [eax], ecx

; 803  : 		}

  0000b	5d		 pop	 ebp
  0000c	c2 08 00	 ret	 8
?_Make_iter@?$vector@VioHashString@@V?$allocator@VioHashString@@@std@@@std@@QBE?AV?$_Vector_iterator@V?$_Vector_val@VioHashString@@V?$allocator@VioHashString@@@std@@@std@@@2@V?$_Vector_const_iterator@V?$_Vector_val@VioHashString@@V?$allocator@VioHashString@@@std@@@std@@@2@@Z ENDP ; std::vector<ioHashString,std::allocator<ioHashString> >::_Make_iter
_TEXT	ENDS
PUBLIC	?max_size@?$vector@VioHashString@@V?$allocator@VioHashString@@@std@@@std@@QBEIXZ ; std::vector<ioHashString,std::allocator<ioHashString> >::max_size
; Function compile flags: /Ogsp
;	COMDAT ?max_size@?$vector@VioHashString@@V?$allocator@VioHashString@@@std@@@std@@QBEIXZ
_TEXT	SEGMENT
?max_size@?$vector@VioHashString@@V?$allocator@VioHashString@@@std@@@std@@QBEIXZ PROC ; std::vector<ioHashString,std::allocator<ioHashString> >::max_size, COMDAT
; _this$ = ecx

; 884  : 		return (this->_Alval.max_size());

  00000	b8 ff ff ff 0f	 mov	 eax, 268435455		; 0fffffffH

; 885  : 		}

  00005	c3		 ret	 0
?max_size@?$vector@VioHashString@@V?$allocator@VioHashString@@@std@@@std@@QBEIXZ ENDP ; std::vector<ioHashString,std::allocator<ioHashString> >::max_size
_TEXT	ENDS
PUBLIC	?allocate@?$allocator@VioHashString@@@std@@QAEPAVioHashString@@I@Z ; std::allocator<ioHashString>::allocate
; Function compile flags: /Ogsp
; File c:\program files (x86)\microsoft visual studio 10.0\vc\include\xmemory
;	COMDAT ?allocate@?$allocator@VioHashString@@@std@@QAEPAVioHashString@@I@Z
_TEXT	SEGMENT
__Count$ = 8						; size = 4
?allocate@?$allocator@VioHashString@@@std@@QAEPAVioHashString@@I@Z PROC ; std::allocator<ioHashString>::allocate, COMDAT
; _this$ = ecx

; 186  : 		{	// allocate array of _Count elements

  00000	55		 push	 ebp
  00001	8b ec		 mov	 ebp, esp

; 187  : 		return (_Allocate(_Count, (pointer)0));

  00003	6a 00		 push	 0
  00005	ff 75 08	 push	 DWORD PTR __Count$[ebp]
  00008	e8 00 00 00 00	 call	 ??$_Allocate@VioHashString@@@std@@YAPAVioHashString@@IPAV1@@Z ; std::_Allocate<ioHashString>
  0000d	59		 pop	 ecx
  0000e	59		 pop	 ecx

; 188  : 		}

  0000f	5d		 pop	 ebp
  00010	c2 04 00	 ret	 4
?allocate@?$allocator@VioHashString@@@std@@QAEPAVioHashString@@I@Z ENDP ; std::allocator<ioHashString>::allocate
_TEXT	ENDS
PUBLIC	??8?$_Vector_const_iterator@V?$_Vector_val@VioHashString@@V?$allocator@VioHashString@@@std@@@std@@@std@@QBE_NABV01@@Z ; std::_Vector_const_iterator<std::_Vector_val<ioHashString,std::allocator<ioHashString> > >::operator==
; Function compile flags: /Ogsp
; File c:\program files (x86)\microsoft visual studio 10.0\vc\include\vector
;	COMDAT ??8?$_Vector_const_iterator@V?$_Vector_val@VioHashString@@V?$allocator@VioHashString@@@std@@@std@@@std@@QBE_NABV01@@Z
_TEXT	SEGMENT
__Right$ = 8						; size = 4
??8?$_Vector_const_iterator@V?$_Vector_val@VioHashString@@V?$allocator@VioHashString@@@std@@@std@@@std@@QBE_NABV01@@Z PROC ; std::_Vector_const_iterator<std::_Vector_val<ioHashString,std::allocator<ioHashString> > >::operator==, COMDAT
; _this$ = ecx

; 201  : 		{	// test for iterator equality

  00000	55		 push	 ebp
  00001	8b ec		 mov	 ebp, esp

; 202  : 		_Compat(_Right);
; 203  : 		return (this->_Ptr == _Right._Ptr);

  00003	8b 01		 mov	 eax, DWORD PTR [ecx]
  00005	8b 4d 08	 mov	 ecx, DWORD PTR __Right$[ebp]
  00008	2b 01		 sub	 eax, DWORD PTR [ecx]
  0000a	f7 d8		 neg	 eax
  0000c	1b c0		 sbb	 eax, eax
  0000e	40		 inc	 eax

; 204  : 		}

  0000f	5d		 pop	 ebp
  00010	c2 04 00	 ret	 4
??8?$_Vector_const_iterator@V?$_Vector_val@VioHashString@@V?$allocator@VioHashString@@@std@@@std@@@std@@QBE_NABV01@@Z ENDP ; std::_Vector_const_iterator<std::_Vector_val<ioHashString,std::allocator<ioHashString> > >::operator==
_TEXT	ENDS
PUBLIC	??$_Move@PAVioHashString@@PAV1@@std@@YAPAVioHashString@@PAV1@00U_Nonscalar_ptr_iterator_tag@0@@Z ; std::_Move<ioHashString *,ioHashString *>
EXTRN	__imp_??4ioHashString@@QAEAAV0@ABV0@@Z:PROC
; Function compile flags: /Ogsp
; File c:\program files (x86)\microsoft visual studio 10.0\vc\include\xutility
;	COMDAT ??$_Move@PAVioHashString@@PAV1@@std@@YAPAVioHashString@@PAV1@00U_Nonscalar_ptr_iterator_tag@0@@Z
_TEXT	SEGMENT
__First$ = 8						; size = 4
__Last$ = 12						; size = 4
__Dest$ = 16						; size = 4
___formal$ = 20						; size = 1
??$_Move@PAVioHashString@@PAV1@@std@@YAPAVioHashString@@PAV1@00U_Nonscalar_ptr_iterator_tag@0@@Z PROC ; std::_Move<ioHashString *,ioHashString *>, COMDAT

; 2512 : 	{	// move [_First, _Last) to [_Dest, ...), arbitrary iterators

  00000	55		 push	 ebp
  00001	8b ec		 mov	 ebp, esp
  00003	56		 push	 esi

; 2513 : 	for (; _First != _Last; ++_Dest, ++_First)

  00004	8b 75 08	 mov	 esi, DWORD PTR __First$[ebp]
  00007	eb 11		 jmp	 SHORT $LN11@Move
$LL3@Move:

; 2514 : 		*_Dest = _STD move(*_First);

  00009	8b 4d 10	 mov	 ecx, DWORD PTR __Dest$[ebp]
  0000c	56		 push	 esi
  0000d	ff 15 00 00 00
	00		 call	 DWORD PTR __imp_??4ioHashString@@QAEAAV0@ABV0@@Z
  00013	83 45 10 10	 add	 DWORD PTR __Dest$[ebp], 16 ; 00000010H
  00017	83 c6 10	 add	 esi, 16			; 00000010H
$LN11@Move:

; 2513 : 	for (; _First != _Last; ++_Dest, ++_First)

  0001a	3b 75 0c	 cmp	 esi, DWORD PTR __Last$[ebp]
  0001d	75 ea		 jne	 SHORT $LL3@Move

; 2515 : 	return (_Dest);

  0001f	8b 45 10	 mov	 eax, DWORD PTR __Dest$[ebp]
  00022	5e		 pop	 esi

; 2516 : 	}

  00023	5d		 pop	 ebp
  00024	c3		 ret	 0
??$_Move@PAVioHashString@@PAV1@@std@@YAPAVioHashString@@PAV1@00U_Nonscalar_ptr_iterator_tag@0@@Z ENDP ; std::_Move<ioHashString *,ioHashString *>
_TEXT	ENDS
PUBLIC	?max_size@?$vector@UWeaponInfo@@V?$allocator@UWeaponInfo@@@std@@@std@@QBEIXZ ; std::vector<WeaponInfo,std::allocator<WeaponInfo> >::max_size
; Function compile flags: /Ogsp
; File c:\program files (x86)\microsoft visual studio 10.0\vc\include\vector
;	COMDAT ?max_size@?$vector@UWeaponInfo@@V?$allocator@UWeaponInfo@@@std@@@std@@QBEIXZ
_TEXT	SEGMENT
?max_size@?$vector@UWeaponInfo@@V?$allocator@UWeaponInfo@@@std@@@std@@QBEIXZ PROC ; std::vector<WeaponInfo,std::allocator<WeaponInfo> >::max_size, COMDAT
; _this$ = ecx

; 884  : 		return (this->_Alval.max_size());

  00000	b8 66 66 66 06	 mov	 eax, 107374182		; 06666666H

; 885  : 		}

  00005	c3		 ret	 0
?max_size@?$vector@UWeaponInfo@@V?$allocator@UWeaponInfo@@@std@@@std@@QBEIXZ ENDP ; std::vector<WeaponInfo,std::allocator<WeaponInfo> >::max_size
_TEXT	ENDS
PUBLIC	?allocate@?$allocator@UWeaponInfo@@@std@@QAEPAUWeaponInfo@@I@Z ; std::allocator<WeaponInfo>::allocate
; Function compile flags: /Ogsp
; File c:\program files (x86)\microsoft visual studio 10.0\vc\include\xmemory
;	COMDAT ?allocate@?$allocator@UWeaponInfo@@@std@@QAEPAUWeaponInfo@@I@Z
_TEXT	SEGMENT
__Count$ = 8						; size = 4
?allocate@?$allocator@UWeaponInfo@@@std@@QAEPAUWeaponInfo@@I@Z PROC ; std::allocator<WeaponInfo>::allocate, COMDAT
; _this$ = ecx

; 186  : 		{	// allocate array of _Count elements

  00000	55		 push	 ebp
  00001	8b ec		 mov	 ebp, esp

; 187  : 		return (_Allocate(_Count, (pointer)0));

  00003	6a 00		 push	 0
  00005	ff 75 08	 push	 DWORD PTR __Count$[ebp]
  00008	e8 00 00 00 00	 call	 ??$_Allocate@UWeaponInfo@@@std@@YAPAUWeaponInfo@@IPAU1@@Z ; std::_Allocate<WeaponInfo>
  0000d	59		 pop	 ecx
  0000e	59		 pop	 ecx

; 188  : 		}

  0000f	5d		 pop	 ebp
  00010	c2 04 00	 ret	 4
?allocate@?$allocator@UWeaponInfo@@@std@@QAEPAUWeaponInfo@@I@Z ENDP ; std::allocator<WeaponInfo>::allocate
_TEXT	ENDS
PUBLIC	?max_size@?$vector@UForceInfo@@V?$allocator@UForceInfo@@@std@@@std@@QBEIXZ ; std::vector<ForceInfo,std::allocator<ForceInfo> >::max_size
; Function compile flags: /Ogsp
; File c:\program files (x86)\microsoft visual studio 10.0\vc\include\vector
;	COMDAT ?max_size@?$vector@UForceInfo@@V?$allocator@UForceInfo@@@std@@@std@@QBEIXZ
_TEXT	SEGMENT
?max_size@?$vector@UForceInfo@@V?$allocator@UForceInfo@@@std@@@std@@QBEIXZ PROC ; std::vector<ForceInfo,std::allocator<ForceInfo> >::max_size, COMDAT
; _this$ = ecx

; 884  : 		return (this->_Alval.max_size());

  00000	b8 55 55 55 15	 mov	 eax, 357913941		; 15555555H

; 885  : 		}

  00005	c3		 ret	 0
?max_size@?$vector@UForceInfo@@V?$allocator@UForceInfo@@@std@@@std@@QBEIXZ ENDP ; std::vector<ForceInfo,std::allocator<ForceInfo> >::max_size
_TEXT	ENDS
PUBLIC	?allocate@?$allocator@UForceInfo@@@std@@QAEPAUForceInfo@@I@Z ; std::allocator<ForceInfo>::allocate
; Function compile flags: /Ogsp
; File c:\program files (x86)\microsoft visual studio 10.0\vc\include\xmemory
;	COMDAT ?allocate@?$allocator@UForceInfo@@@std@@QAEPAUForceInfo@@I@Z
_TEXT	SEGMENT
__Count$ = 8						; size = 4
?allocate@?$allocator@UForceInfo@@@std@@QAEPAUForceInfo@@I@Z PROC ; std::allocator<ForceInfo>::allocate, COMDAT
; _this$ = ecx

; 186  : 		{	// allocate array of _Count elements

  00000	55		 push	 ebp
  00001	8b ec		 mov	 ebp, esp

; 187  : 		return (_Allocate(_Count, (pointer)0));

  00003	6a 00		 push	 0
  00005	ff 75 08	 push	 DWORD PTR __Count$[ebp]
  00008	e8 00 00 00 00	 call	 ??$_Allocate@UForceInfo@@@std@@YAPAUForceInfo@@IPAU1@@Z ; std::_Allocate<ForceInfo>
  0000d	59		 pop	 ecx
  0000e	59		 pop	 ecx

; 188  : 		}

  0000f	5d		 pop	 ebp
  00010	c2 04 00	 ret	 4
?allocate@?$allocator@UForceInfo@@@std@@QAEPAUForceInfo@@I@Z ENDP ; std::allocator<ForceInfo>::allocate
_TEXT	ENDS
PUBLIC	??8?$_Vector_const_iterator@V?$_Vector_val@UWeaponInfo@@V?$allocator@UWeaponInfo@@@std@@@std@@@std@@QBE_NABV01@@Z ; std::_Vector_const_iterator<std::_Vector_val<WeaponInfo,std::allocator<WeaponInfo> > >::operator==
; Function compile flags: /Ogsp
; File c:\program files (x86)\microsoft visual studio 10.0\vc\include\vector
;	COMDAT ??8?$_Vector_const_iterator@V?$_Vector_val@UWeaponInfo@@V?$allocator@UWeaponInfo@@@std@@@std@@@std@@QBE_NABV01@@Z
_TEXT	SEGMENT
__Right$ = 8						; size = 4
??8?$_Vector_const_iterator@V?$_Vector_val@UWeaponInfo@@V?$allocator@UWeaponInfo@@@std@@@std@@@std@@QBE_NABV01@@Z PROC ; std::_Vector_const_iterator<std::_Vector_val<WeaponInfo,std::allocator<WeaponInfo> > >::operator==, COMDAT
; _this$ = ecx

; 201  : 		{	// test for iterator equality

  00000	55		 push	 ebp
  00001	8b ec		 mov	 ebp, esp

; 202  : 		_Compat(_Right);
; 203  : 		return (this->_Ptr == _Right._Ptr);

  00003	8b 01		 mov	 eax, DWORD PTR [ecx]
  00005	8b 4d 08	 mov	 ecx, DWORD PTR __Right$[ebp]
  00008	2b 01		 sub	 eax, DWORD PTR [ecx]
  0000a	f7 d8		 neg	 eax
  0000c	1b c0		 sbb	 eax, eax
  0000e	40		 inc	 eax

; 204  : 		}

  0000f	5d		 pop	 ebp
  00010	c2 04 00	 ret	 4
??8?$_Vector_const_iterator@V?$_Vector_val@UWeaponInfo@@V?$allocator@UWeaponInfo@@@std@@@std@@@std@@QBE_NABV01@@Z ENDP ; std::_Vector_const_iterator<std::_Vector_val<WeaponInfo,std::allocator<WeaponInfo> > >::operator==
_TEXT	ENDS
PUBLIC	??8?$_Vector_const_iterator@V?$_Vector_val@UForceInfo@@V?$allocator@UForceInfo@@@std@@@std@@@std@@QBE_NABV01@@Z ; std::_Vector_const_iterator<std::_Vector_val<ForceInfo,std::allocator<ForceInfo> > >::operator==
; Function compile flags: /Ogsp
;	COMDAT ??8?$_Vector_const_iterator@V?$_Vector_val@UForceInfo@@V?$allocator@UForceInfo@@@std@@@std@@@std@@QBE_NABV01@@Z
_TEXT	SEGMENT
__Right$ = 8						; size = 4
??8?$_Vector_const_iterator@V?$_Vector_val@UForceInfo@@V?$allocator@UForceInfo@@@std@@@std@@@std@@QBE_NABV01@@Z PROC ; std::_Vector_const_iterator<std::_Vector_val<ForceInfo,std::allocator<ForceInfo> > >::operator==, COMDAT
; _this$ = ecx

; 201  : 		{	// test for iterator equality

  00000	55		 push	 ebp
  00001	8b ec		 mov	 ebp, esp

; 202  : 		_Compat(_Right);
; 203  : 		return (this->_Ptr == _Right._Ptr);

  00003	8b 01		 mov	 eax, DWORD PTR [ecx]
  00005	8b 4d 08	 mov	 ecx, DWORD PTR __Right$[ebp]
  00008	2b 01		 sub	 eax, DWORD PTR [ecx]
  0000a	f7 d8		 neg	 eax
  0000c	1b c0		 sbb	 eax, eax
  0000e	40		 inc	 eax

; 204  : 		}

  0000f	5d		 pop	 ebp
  00010	c2 04 00	 ret	 4
??8?$_Vector_const_iterator@V?$_Vector_val@UForceInfo@@V?$allocator@UForceInfo@@@std@@@std@@@std@@QBE_NABV01@@Z ENDP ; std::_Vector_const_iterator<std::_Vector_val<ForceInfo,std::allocator<ForceInfo> > >::operator==
_TEXT	ENDS
PUBLIC	?destroy@?$allocator@UForceInfo@@@std@@QAEXPAUForceInfo@@@Z ; std::allocator<ForceInfo>::destroy
; Function compile flags: /Ogsp
; File c:\program files (x86)\microsoft visual studio 10.0\vc\include\xmemory
;	COMDAT ?destroy@?$allocator@UForceInfo@@@std@@QAEXPAUForceInfo@@@Z
_TEXT	SEGMENT
__Ptr$ = 8						; size = 4
?destroy@?$allocator@UForceInfo@@@std@@QAEXPAUForceInfo@@@Z PROC ; std::allocator<ForceInfo>::destroy, COMDAT
; _this$ = ecx

; 213  : 		_Destroy(_Ptr);
; 214  : 		}

  00000	c2 04 00	 ret	 4
?destroy@?$allocator@UForceInfo@@@std@@QAEXPAUForceInfo@@@Z ENDP ; std::allocator<ForceInfo>::destroy
_TEXT	ENDS
PUBLIC	??$_Destroy@VioHashString@@@std@@YAXPAVioHashString@@@Z ; std::_Destroy<ioHashString>
; Function compile flags: /Ogsp
;	COMDAT ??$_Destroy@VioHashString@@@std@@YAXPAVioHashString@@@Z
_TEXT	SEGMENT
__Ptr$ = 8						; size = 4
??$_Destroy@VioHashString@@@std@@YAXPAVioHashString@@@Z PROC ; std::_Destroy<ioHashString>, COMDAT

; 62   : 	{	// destroy object at _Ptr

  00000	55		 push	 ebp
  00001	8b ec		 mov	 ebp, esp

; 63   : 	_Ptr->~_Ty();

  00003	8b 4d 08	 mov	 ecx, DWORD PTR __Ptr$[ebp]

; 64   : 	}

  00006	5d		 pop	 ebp

; 63   : 	_Ptr->~_Ty();

  00007	ff 25 00 00 00
	00		 jmp	 DWORD PTR __imp_??1ioHashString@@QAE@XZ
??$_Destroy@VioHashString@@@std@@YAXPAVioHashString@@@Z ENDP ; std::_Destroy<ioHashString>
_TEXT	ENDS
PUBLIC	??$_Destroy@UWeaponInfo@@@std@@YAXPAUWeaponInfo@@@Z ; std::_Destroy<WeaponInfo>
; Function compile flags: /Ogsp
;	COMDAT ??$_Destroy@UWeaponInfo@@@std@@YAXPAUWeaponInfo@@@Z
_TEXT	SEGMENT
__Ptr$ = 8						; size = 4
??$_Destroy@UWeaponInfo@@@std@@YAXPAUWeaponInfo@@@Z PROC ; std::_Destroy<WeaponInfo>, COMDAT

; 62   : 	{	// destroy object at _Ptr

  00000	55		 push	 ebp
  00001	8b ec		 mov	 ebp, esp

; 63   : 	_Ptr->~_Ty();

  00003	8b 4d 08	 mov	 ecx, DWORD PTR __Ptr$[ebp]
  00006	83 c1 08	 add	 ecx, 8

; 64   : 	}

  00009	5d		 pop	 ebp

; 63   : 	_Ptr->~_Ty();

  0000a	ff 25 00 00 00
	00		 jmp	 DWORD PTR __imp_??1ioHashString@@QAE@XZ
??$_Destroy@UWeaponInfo@@@std@@YAXPAUWeaponInfo@@@Z ENDP ; std::_Destroy<WeaponInfo>
_TEXT	ENDS
PUBLIC	?construct@?$allocator@VioHashString@@@std@@QAEXPAVioHashString@@ABV3@@Z ; std::allocator<ioHashString>::construct
; Function compile flags: /Ogsp
;	COMDAT ?construct@?$allocator@VioHashString@@@std@@QAEXPAVioHashString@@ABV3@@Z
_TEXT	SEGMENT
__Ptr$ = 8						; size = 4
__Val$ = 12						; size = 4
?construct@?$allocator@VioHashString@@@std@@QAEXPAVioHashString@@ABV3@@Z PROC ; std::allocator<ioHashString>::construct, COMDAT
; _this$ = ecx

; 196  : 		{	// construct object at _Ptr with value _Val

  00000	55		 push	 ebp
  00001	8b ec		 mov	 ebp, esp

; 197  : 		_Construct(_Ptr, _Val);

  00003	ff 75 0c	 push	 DWORD PTR __Val$[ebp]
  00006	ff 75 08	 push	 DWORD PTR __Ptr$[ebp]
  00009	e8 00 00 00 00	 call	 ??$_Construct@VioHashString@@ABV1@@std@@YAXPAVioHashString@@ABV1@@Z ; std::_Construct<ioHashString,ioHashString const &>
  0000e	59		 pop	 ecx
  0000f	59		 pop	 ecx

; 198  : 		}

  00010	5d		 pop	 ebp
  00011	c2 08 00	 ret	 8
?construct@?$allocator@VioHashString@@@std@@QAEXPAVioHashString@@ABV3@@Z ENDP ; std::allocator<ioHashString>::construct
_TEXT	ENDS
PUBLIC	?IsPrisonerMode@ioBaseChar@@QBE_NXZ		; ioBaseChar::IsPrisonerMode
; Function compile flags: /Ogsp
; File d:\lost saga for developer\youtube\tutorial\source\src\lsclient\iobasechar.h
;	COMDAT ?IsPrisonerMode@ioBaseChar@@QBE_NXZ
_TEXT	SEGMENT
_value$530535 = -1					; size = 1
?IsPrisonerMode@ioBaseChar@@QBE_NXZ PROC		; ioBaseChar::IsPrisonerMode, COMDAT
; _this$ = ecx

; 2130 : 	inline bool IsPrisonerMode() const { return m_bPrisonerMode; }

  00000	55		 push	 ebp
  00001	8b ec		 mov	 ebp, esp
  00003	51		 push	 ecx
  00004	8d 45 ff	 lea	 eax, DWORD PTR _value$530535[ebp]
  00007	50		 push	 eax
  00008	81 c1 cc 14 00
	00		 add	 ecx, 5324		; 000014ccH
  0000e	e8 00 00 00 00	 call	 ?DecryptValueToPool@?$CEncrypt@_N@@QAEXPA_N@Z ; CEncrypt<bool>::DecryptValueToPool
  00013	8a 45 ff	 mov	 al, BYTE PTR _value$530535[ebp]
  00016	c9		 leave
  00017	c3		 ret	 0
?IsPrisonerMode@ioBaseChar@@QBE_NXZ ENDP		; ioBaseChar::IsPrisonerMode
_TEXT	ENDS
PUBLIC	?SetGravityAmt@ioBaseChar@@QAEXM@Z		; ioBaseChar::SetGravityAmt
; Function compile flags: /Ogsp
;	COMDAT ?SetGravityAmt@ioBaseChar@@QAEXM@Z
_TEXT	SEGMENT
_value$530542 = 8					; size = 4
_fAmt$ = 8						; size = 4
?SetGravityAmt@ioBaseChar@@QAEXM@Z PROC			; ioBaseChar::SetGravityAmt, COMDAT
; _this$ = ecx

; 2631 : 	inline void SetGravityAmt( float fAmt ) { m_fGravityAmt = fAmt; }

  00000	55		 push	 ebp
  00001	8b ec		 mov	 ebp, esp
  00003	f3 0f 10 45 08	 movss	 xmm0, DWORD PTR _fAmt$[ebp]
  00008	8d 45 08	 lea	 eax, DWORD PTR _value$530542[ebp]
  0000b	50		 push	 eax
  0000c	81 c1 e8 0b 00
	00		 add	 ecx, 3048		; 00000be8H
  00012	f3 0f 11 45 08	 movss	 DWORD PTR _value$530542[ebp], xmm0
  00017	e8 00 00 00 00	 call	 ?EncryptValueToPool@?$CEncrypt@M@@AAEXPBD@Z ; CEncrypt<float>::EncryptValueToPool
  0001c	5d		 pop	 ebp
  0001d	c2 04 00	 ret	 4
?SetGravityAmt@ioBaseChar@@QAEXM@Z ENDP			; ioBaseChar::SetGravityAmt
_TEXT	ENDS
PUBLIC	?SetForcePowerAmt@ioBaseChar@@QAEXM@Z		; ioBaseChar::SetForcePowerAmt
; Function compile flags: /Ogsp
;	COMDAT ?SetForcePowerAmt@ioBaseChar@@QAEXM@Z
_TEXT	SEGMENT
_value$530548 = 8					; size = 4
_fAmt$ = 8						; size = 4
?SetForcePowerAmt@ioBaseChar@@QAEXM@Z PROC		; ioBaseChar::SetForcePowerAmt, COMDAT
; _this$ = ecx

; 2641 : 	inline void SetForcePowerAmt( float fAmt ) { m_fForceAmt = fAmt; }

  00000	55		 push	 ebp
  00001	8b ec		 mov	 ebp, esp
  00003	f3 0f 10 45 08	 movss	 xmm0, DWORD PTR _fAmt$[ebp]
  00008	8d 45 08	 lea	 eax, DWORD PTR _value$530548[ebp]
  0000b	50		 push	 eax
  0000c	81 c1 88 0b 00
	00		 add	 ecx, 2952		; 00000b88H
  00012	f3 0f 11 45 08	 movss	 DWORD PTR _value$530548[ebp], xmm0
  00017	e8 00 00 00 00	 call	 ?EncryptValueToPool@?$CEncrypt@M@@AAEXPBD@Z ; CEncrypt<float>::EncryptValueToPool
  0001c	5d		 pop	 ebp
  0001d	c2 04 00	 ret	 4
?SetForcePowerAmt@ioBaseChar@@QAEXM@Z ENDP		; ioBaseChar::SetForcePowerAmt
_TEXT	ENDS
PUBLIC	__real@3f800000
PUBLIC	__$ArrayPad$
PUBLIC	?SetFlashJumpAttack@ioChargeFlashJump@@QAE_NPAVioBaseChar@@@Z ; ioChargeFlashJump::SetFlashJumpAttack
EXTRN	__imp_?IsEmpty@ioHashString@@QBE_NXZ:PROC
EXTRN	__ftol2:PROC
;	COMDAT __real@3f800000
CONST	SEGMENT
__real@3f800000 DD 03f800000r			; 1
CONST	ENDS
;	COMDAT xdata$x
xdata$x	SEGMENT
__ehfuncinfo$?SetFlashJumpAttack@ioChargeFlashJump@@QAE_NPAVioBaseChar@@@Z DD 019930522H
	DD	06H
	DD	FLAT:__unwindtable$?SetFlashJumpAttack@ioChargeFlashJump@@QAE_NPAVioBaseChar@@@Z
	DD	2 DUP(00H)
	DD	2 DUP(00H)
	DD	00H
	DD	01H
__unwindtable$?SetFlashJumpAttack@ioChargeFlashJump@@QAE_NPAVioBaseChar@@@Z DD 0ffffffffH
	DD	FLAT:__unwindfunclet$?SetFlashJumpAttack@ioChargeFlashJump@@QAE_NPAVioBaseChar@@@Z$6
	DD	0ffffffffH
	DD	FLAT:__unwindfunclet$?SetFlashJumpAttack@ioChargeFlashJump@@QAE_NPAVioBaseChar@@@Z$0
	DD	0ffffffffH
	DD	FLAT:__unwindfunclet$?SetFlashJumpAttack@ioChargeFlashJump@@QAE_NPAVioBaseChar@@@Z$2
	DD	02H
	DD	FLAT:__unwindfunclet$?SetFlashJumpAttack@ioChargeFlashJump@@QAE_NPAVioBaseChar@@@Z$3
	DD	03H
	DD	FLAT:__unwindfunclet$?SetFlashJumpAttack@ioChargeFlashJump@@QAE_NPAVioBaseChar@@@Z$4
	DD	0ffffffffH
	DD	FLAT:__unwindfunclet$?SetFlashJumpAttack@ioChargeFlashJump@@QAE_NPAVioBaseChar@@@Z$5
; Function compile flags: /Ogsp
; File d:\lost saga for developer\youtube\tutorial\source\src\lsclient\iochargeflashjump.cpp
xdata$x	ENDS
;	COMDAT ?SetFlashJumpAttack@ioChargeFlashJump@@QAE_NPAVioBaseChar@@@Z
_TEXT	SEGMENT
$T530554 = -32876					; size = 16
_qtRotate$524067 = -32876				; size = 16
$T530625 = -32860					; size = 16
$T530556 = -32860					; size = 16
_dwCurTime$ = -32844					; size = 4
tv1337 = -32840						; size = 4
$T530586 = -32840					; size = 4
_dwDelayTime$ = -32840					; size = 4
_pGrp$ = -32836						; size = 4
_value$530738 = -32832					; size = 4
$T530553 = -32832					; size = 4
_iAniID$524071 = -32832					; size = 4
_fYawD$524061 = -32832					; size = 4
tv1351 = -32828						; size = 4
tv1346 = -32828						; size = 4
tv1334 = -32828						; size = 4
tv1332 = -32828						; size = 4
tv1330 = -32828						; size = 4
tv1302 = -32828						; size = 4
_value$530760 = -32828					; size = 4
_value$530750 = -32828					; size = 4
$T530624 = -32828					; size = 4
_value$530603 = -32828					; size = 4
_value$530590 = -32828					; size = 4
$T530552 = -32828					; size = 4
_kPacket$524087 = -32824				; size = 32792
_szEncEventType$530638 = -32				; size = 11
$T530555 = -32						; size = 16
__$ArrayPad$ = -16					; size = 4
__$EHRec$ = -12						; size = 12
_pOwner$ = 8						; size = 4
?SetFlashJumpAttack@ioChargeFlashJump@@QAE_NPAVioBaseChar@@@Z PROC ; ioChargeFlashJump::SetFlashJumpAttack, COMDAT
; _this$ = ecx

; 186  : {

  00000	55		 push	 ebp
  00001	8b ec		 mov	 ebp, esp
  00003	6a ff		 push	 -1
  00005	68 00 00 00 00	 push	 __ehhandler$?SetFlashJumpAttack@ioChargeFlashJump@@QAE_NPAVioBaseChar@@@Z
  0000a	64 a1 00 00 00
	00		 mov	 eax, DWORD PTR fs:0
  00010	50		 push	 eax
  00011	b8 60 80 00 00	 mov	 eax, 32864		; 00008060H
  00016	e8 00 00 00 00	 call	 __chkstk
  0001b	a1 00 00 00 00	 mov	 eax, DWORD PTR ___security_cookie
  00020	33 c5		 xor	 eax, ebp
  00022	89 45 f0	 mov	 DWORD PTR __$ArrayPad$[ebp], eax
  00025	53		 push	 ebx
  00026	56		 push	 esi
  00027	57		 push	 edi
  00028	50		 push	 eax
  00029	8d 45 f4	 lea	 eax, DWORD PTR __$EHRec$[ebp]
  0002c	64 a3 00 00 00
	00		 mov	 DWORD PTR fs:0, eax
  00032	8b 75 08	 mov	 esi, DWORD PTR _pOwner$[ebp]

; 187  : 	if( !pOwner ) return false;

  00035	33 db		 xor	 ebx, ebx
  00037	8b f9		 mov	 edi, ecx
  00039	3b f3		 cmp	 esi, ebx
  0003b	75 07		 jne	 SHORT $LN6@SetFlashJu
$LN180@SetFlashJu:
  0003d	32 c0		 xor	 al, al
  0003f	e9 7a 05 00 00	 jmp	 $LN7@SetFlashJu
$LN6@SetFlashJu:

; 188  : 
; 189  : 	ioEntityGroup *pGrp = pOwner->GetGroup();

  00044	8b 46 04	 mov	 eax, DWORD PTR [esi+4]
  00047	89 85 bc 7f ff
	ff		 mov	 DWORD PTR _pGrp$[ebp], eax

; 190  : 	if( !pGrp ) return false;

  0004d	3b c3		 cmp	 eax, ebx
  0004f	74 ec		 je	 SHORT $LN180@SetFlashJu

; 191  : 
; 192  : 	DWORD dwDelayTime = 0;

  00051	89 9d b8 7f ff
	ff		 mov	 DWORD PTR _dwDelayTime$[ebp], ebx

; 193  : 	DWORD dwCurTime = FRAMEGETTIME();

  00057	ff 15 00 00 00
	00		 call	 DWORD PTR __imp_?GetSingleton@ioFrameTimer@@SAAAV1@XZ
  0005d	8b c8		 mov	 ecx, eax
  0005f	ff 15 00 00 00
	00		 call	 DWORD PTR __imp_?GetLoopSec@ioFrameTimer@@QBEKXZ
  00065	89 85 b4 7f ff
	ff		 mov	 DWORD PTR _dwCurTime$[ebp], eax

; 194  : 
; 195  : 	if( pOwner->IsNeedProcess() && pOwner->IsCanRotateJumpAttack() )

  0006b	8b 06		 mov	 eax, DWORD PTR [esi]
  0006d	8b ce		 mov	 ecx, esi
  0006f	ff 90 00 01 00
	00		 call	 DWORD PTR [eax+256]
  00075	84 c0		 test	 al, al
  00077	0f 84 a5 00 00
	00		 je	 $LN3@SetFlashJu
  0007d	8b ce		 mov	 ecx, esi
  0007f	e8 00 00 00 00	 call	 ?IsCanRotateJumpAttack@ioBaseChar@@QAE_NXZ ; ioBaseChar::IsCanRotateJumpAttack
  00084	84 c0		 test	 al, al
  00086	0f 84 96 00 00
	00		 je	 $LN3@SetFlashJu

; 196  : 	{
; 197  : 		ioUserKeyInput::DirKeyInput eDir = pOwner->CheckCurDirKey();

  0008c	8b ce		 mov	 ecx, esi
  0008e	e8 00 00 00 00	 call	 ?CheckCurDirKey@ioBaseChar@@QAE?AW4DirKeyInput@ioUserKeyInput@@XZ ; ioBaseChar::CheckCurDirKey

; 198  : 		if( eDir != ioUserKeyInput::DKI_NONE )

  00093	3b c3		 cmp	 eax, ebx
  00095	0f 84 87 00 00
	00		 je	 $LN3@SetFlashJu

; 199  : 		{
; 200  : 			float fYawD = 180.0f + 45.0f * ( eDir - ioUserKeyInput::DKI_UP );
; 201  : 			fYawD = ioMath::ArrangeHead( fYawD );

  0009b	0f 57 c0	 xorps	 xmm0, xmm0
  0009e	48		 dec	 eax
  0009f	f3 0f 2a c0	 cvtsi2ss xmm0, eax
  000a3	0f 5a c0	 cvtps2pd xmm0, xmm0
  000a6	f2 0f 59 05 00
	00 00 00	 mulsd	 xmm0, QWORD PTR __real@4046800000000000
  000ae	f2 0f 58 05 00
	00 00 00	 addsd	 xmm0, QWORD PTR __real@4066800000000000
  000b6	51		 push	 ecx
  000b7	66 0f 5a c0	 cvtpd2ps xmm0, xmm0
  000bb	f3 0f 11 04 24	 movss	 DWORD PTR [esp], xmm0
  000c0	ff 15 00 00 00
	00		 call	 DWORD PTR __imp_?ArrangeHead@ioMath@@SAMM@Z
  000c6	d9 9d c0 7f ff
	ff		 fstp	 DWORD PTR _fYawD$524061[ebp]

; 202  : 
; 203  : 			float fYawR = DEGtoRAD( fYawD );

  000cc	f3 0f 10 85 c0
	7f ff ff	 movss	 xmm0, DWORD PTR _fYawD$524061[ebp]
  000d4	0f 5a c0	 cvtps2pd xmm0, xmm0
  000d7	f2 0f 59 05 00
	00 00 00	 mulsd	 xmm0, QWORD PTR __real@3f91df46a2526c7a
  000df	66 0f 5a c8	 cvtpd2ps xmm1, xmm0

; 204  : 			D3DXQUATERNION qtRotate;
; 205  : 			D3DXQuaternionRotationYawPitchRoll( &qtRotate, fYawR, 0.0f, 0.0f );

  000e3	0f 57 c0	 xorps	 xmm0, xmm0
  000e6	f3 0f 11 04 24	 movss	 DWORD PTR [esp], xmm0
  000eb	51		 push	 ecx
  000ec	51		 push	 ecx
  000ed	f3 0f 11 44 24
	04		 movss	 DWORD PTR [esp+4], xmm0
  000f3	8d 85 94 7f ff
	ff		 lea	 eax, DWORD PTR _qtRotate$524067[ebp]
  000f9	f3 0f 11 0c 24	 movss	 DWORD PTR [esp], xmm1
  000fe	50		 push	 eax
  000ff	e8 00 00 00 00	 call	 _D3DXQuaternionRotationYawPitchRoll@16

; 206  : 
; 207  : 			pOwner->SetTargetRotToRotate( qtRotate, false, false );

  00104	53		 push	 ebx
  00105	53		 push	 ebx
  00106	8d 85 94 7f ff
	ff		 lea	 eax, DWORD PTR _qtRotate$524067[ebp]
  0010c	50		 push	 eax
  0010d	8b ce		 mov	 ecx, esi
  0010f	e8 00 00 00 00	 call	 ?SetTargetRotToRotate@ioBaseChar@@QAEXABUD3DXQUATERNION@@_N1@Z ; ioBaseChar::SetTargetRotToRotate

; 208  : 			pOwner->SetInputDirection( pOwner->GetMoveDir() );

  00114	8d 86 b4 06 00
	00		 lea	 eax, DWORD PTR [esi+1716]
  0011a	50		 push	 eax
  0011b	8b ce		 mov	 ecx, esi
  0011d	e8 00 00 00 00	 call	 ?SetInputDirection@ioBaseChar@@QAEXABUD3DXVECTOR3@@@Z ; ioBaseChar::SetInputDirection
$LN3@SetFlashJu:

; 209  : 		}
; 210  : 	}
; 211  : 
; 212  : 	if( !m_FlashDelayAni.IsEmpty() )

  00122	8d 8f 28 01 00
	00		 lea	 ecx, DWORD PTR [edi+296]
  00128	ff 15 00 00 00
	00		 call	 DWORD PTR __imp_?IsEmpty@ioHashString@@QBE_NXZ
  0012e	8b 1d 00 00 00
	00		 mov	 ebx, DWORD PTR __imp_??0ioHashString@@QAE@PBD@Z
  00134	84 c0		 test	 al, al
  00136	0f 85 3b 02 00
	00		 jne	 $LN2@SetFlashJu

; 213  : 	{
; 214  : 		pGrp->ClearAllActionAni( FLOAT100, true );

  0013c	b8 64 00 00 00	 mov	 eax, 100		; 00000064H
  00141	89 85 c4 7f ff
	ff		 mov	 DWORD PTR tv1351[ebp], eax
  00147	db 85 c4 7f ff
	ff		 fild	 DWORD PTR tv1351[ebp]
  0014d	6a 01		 push	 1
  0014f	85 c0		 test	 eax, eax
  00151	79 06		 jns	 SHORT $LN173@SetFlashJu
  00153	d8 05 00 00 00
	00		 fadd	 DWORD PTR __real@4f800000
$LN173@SetFlashJu:
  00159	51		 push	 ecx
  0015a	8b 8d bc 7f ff
	ff		 mov	 ecx, DWORD PTR _pGrp$[ebp]
  00160	d9 1c 24	 fstp	 DWORD PTR [esp]
  00163	ff 15 00 00 00
	00		 call	 DWORD PTR __imp_?ClearAllActionAni@ioEntityGroup@@QAEXM_N@Z

; 215  : 		pGrp->ClearAllLoopAni( FLOAT100, true );

  00169	b8 64 00 00 00	 mov	 eax, 100		; 00000064H
  0016e	89 85 c4 7f ff
	ff		 mov	 DWORD PTR tv1346[ebp], eax
  00174	db 85 c4 7f ff
	ff		 fild	 DWORD PTR tv1346[ebp]
  0017a	6a 01		 push	 1
  0017c	85 c0		 test	 eax, eax
  0017e	79 06		 jns	 SHORT $LN174@SetFlashJu
  00180	d8 05 00 00 00
	00		 fadd	 DWORD PTR __real@4f800000
$LN174@SetFlashJu:
  00186	51		 push	 ecx
  00187	8b 8d bc 7f ff
	ff		 mov	 ecx, DWORD PTR _pGrp$[ebp]
  0018d	d9 1c 24	 fstp	 DWORD PTR [esp]
  00190	ff 15 00 00 00
	00		 call	 DWORD PTR __imp_?ClearAllLoopAni@ioEntityGroup@@QAEXM_N@Z

; 216  : 
; 217  : 		pOwner->SetAutoTarget( ATT_JUMP );

  00196	6a 03		 push	 3
  00198	8b ce		 mov	 ecx, esi
  0019a	e8 00 00 00 00	 call	 ?SetAutoTarget@ioBaseChar@@QAEXW4AutoTargetType@@@Z ; ioBaseChar::SetAutoTarget

; 218  : 
; 219  : 		int iAniID = pGrp->GetAnimationIdx( m_FlashDelayAni );

  0019f	8b 8d bc 7f ff
	ff		 mov	 ecx, DWORD PTR _pGrp$[ebp]
  001a5	8d 87 28 01 00
	00		 lea	 eax, DWORD PTR [edi+296]
  001ab	50		 push	 eax
  001ac	ff 15 00 00 00
	00		 call	 DWORD PTR __imp_?GetAnimationIdx@ioEntityGroup@@QAEHABVioHashString@@@Z
  001b2	89 85 c0 7f ff
	ff		 mov	 DWORD PTR _iAniID$524071[ebp], eax

; 220  : 		pGrp->SetActionAni( iAniID, FLOAT100, FLOAT100, FLOAT1/m_fFlashDelayRate );

  001b8	b8 01 00 00 00	 mov	 eax, 1
  001bd	89 85 b8 7f ff
	ff		 mov	 DWORD PTR $T530586[ebp], eax
  001c3	8d 85 c4 7f ff
	ff		 lea	 eax, DWORD PTR _value$530590[ebp]
  001c9	8d 8f 38 01 00
	00		 lea	 ecx, DWORD PTR [edi+312]
  001cf	50		 push	 eax
  001d0	e8 00 00 00 00	 call	 ?DecryptValueToPool@?$CEncrypt@M@@QAEXPAM@Z ; CEncrypt<float>::DecryptValueToPool
  001d5	b8 64 00 00 00	 mov	 eax, 100		; 00000064H
  001da	8b c8		 mov	 ecx, eax
  001dc	b8 64 00 00 00	 mov	 eax, 100		; 00000064H
  001e1	db 85 b8 7f ff
	ff		 fild	 DWORD PTR $T530586[ebp]
  001e7	0f 57 c0	 xorps	 xmm0, xmm0
  001ea	8b 95 b8 7f ff
	ff		 mov	 edx, DWORD PTR $T530586[ebp]
  001f0	6a 01		 push	 1
  001f2	6a 00		 push	 0
  001f4	83 ec 18	 sub	 esp, 24			; 00000018H
  001f7	f3 0f 11 44 24
	14		 movss	 DWORD PTR [esp+20], xmm0
  001fd	f3 0f 11 44 24
	10		 movss	 DWORD PTR [esp+16], xmm0
  00203	f3 0f 10 05 00
	00 00 00	 movss	 xmm0, DWORD PTR __real@3f800000
  0020b	f3 0f 11 44 24
	0c		 movss	 DWORD PTR [esp+12], xmm0
  00211	85 d2		 test	 edx, edx
  00213	79 06		 jns	 SHORT $LN175@SetFlashJu
  00215	d8 05 00 00 00
	00		 fadd	 DWORD PTR __real@4f800000
$LN175@SetFlashJu:
  0021b	d8 b5 c4 7f ff
	ff		 fdiv	 DWORD PTR _value$530590[ebp]
  00221	d9 9d c4 7f ff
	ff		 fstp	 DWORD PTR tv1334[ebp]
  00227	d9 85 c4 7f ff
	ff		 fld	 DWORD PTR tv1334[ebp]
  0022d	d9 5c 24 08	 fstp	 DWORD PTR [esp+8]
  00231	89 8d c4 7f ff
	ff		 mov	 DWORD PTR tv1332[ebp], ecx
  00237	db 85 c4 7f ff
	ff		 fild	 DWORD PTR tv1332[ebp]
  0023d	85 c9		 test	 ecx, ecx
  0023f	79 06		 jns	 SHORT $LN176@SetFlashJu
  00241	d8 05 00 00 00
	00		 fadd	 DWORD PTR __real@4f800000
$LN176@SetFlashJu:
  00247	d9 5c 24 04	 fstp	 DWORD PTR [esp+4]
  0024b	89 85 c4 7f ff
	ff		 mov	 DWORD PTR tv1330[ebp], eax
  00251	db 85 c4 7f ff
	ff		 fild	 DWORD PTR tv1330[ebp]
  00257	85 c0		 test	 eax, eax
  00259	79 06		 jns	 SHORT $LN177@SetFlashJu
  0025b	d8 05 00 00 00
	00		 fadd	 DWORD PTR __real@4f800000
$LN177@SetFlashJu:
  00261	8b 8d bc 7f ff
	ff		 mov	 ecx, DWORD PTR _pGrp$[ebp]
  00267	d9 1c 24	 fstp	 DWORD PTR [esp]
  0026a	ff b5 c0 7f ff
	ff		 push	 DWORD PTR _iAniID$524071[ebp]
  00270	ff 15 00 00 00
	00		 call	 DWORD PTR __imp_?SetActionAni@ioEntityGroup@@QAE_NHMMMMMM_N0@Z

; 221  : 
; 222  : 		dwDelayTime = pGrp->GetAnimationFullTime( iAniID ) * m_fFlashDelayRate;

  00276	8d 85 c4 7f ff
	ff		 lea	 eax, DWORD PTR _value$530603[ebp]
  0027c	50		 push	 eax
  0027d	8d 8f 38 01 00
	00		 lea	 ecx, DWORD PTR [edi+312]
  00283	e8 00 00 00 00	 call	 ?DecryptValueToPool@?$CEncrypt@M@@QAEXPAM@Z ; CEncrypt<float>::DecryptValueToPool
  00288	ff b5 c0 7f ff
	ff		 push	 DWORD PTR _iAniID$524071[ebp]
  0028e	8b 8d bc 7f ff
	ff		 mov	 ecx, DWORD PTR _pGrp$[ebp]
  00294	ff 15 00 00 00
	00		 call	 DWORD PTR __imp_?GetAnimationFullTime@ioEntityGroup@@QAEMH@Z
  0029a	d8 8d c4 7f ff
	ff		 fmul	 DWORD PTR _value$530603[ebp]
  002a0	e8 00 00 00 00	 call	 __ftol2
  002a5	6a 02		 push	 2
  002a7	89 85 b8 7f ff
	ff		 mov	 DWORD PTR _dwDelayTime$[ebp], eax

; 223  : 
; 224  : 		DWORD dwTrackingTime = dwCurTime;
; 225  : 		dwTrackingTime += pGrp->GetAnimationEventTime_e( iAniID, "tracking_e" ) * m_fFlashDelayRate;

  002ad	c7 45 e0 99 9e
	8a 89		 mov	 DWORD PTR _szEncEventType$530638[ebp], -1987404135 ; 898a9e99H
  002b4	c7 45 e4 86 85
	85 8d		 mov	 DWORD PTR _szEncEventType$530638[ebp+4], -1920629370 ; 8d858586H
  002bb	66 c7 45 e8 b2
	89		 mov	 WORD PTR _szEncEventType$530638[ebp+8], 35250 ; 000089b2H
  002c1	8d 45 e0	 lea	 eax, DWORD PTR _szEncEventType$530638[ebp]
  002c4	c6 45 ea 00	 mov	 BYTE PTR _szEncEventType$530638[ebp+10], 0
  002c8	59		 pop	 ecx
$LL141@SetFlashJu:
  002c9	81 30 ed ec eb
	ea		 xor	 DWORD PTR [eax], -353637139 ; eaebecedH
  002cf	83 c0 04	 add	 eax, 4
  002d2	49		 dec	 ecx
  002d3	75 f4		 jne	 SHORT $LL141@SetFlashJu
  002d5	6a 08		 push	 8
  002d7	58		 pop	 eax
$LL138@SetFlashJu:
  002d8	8b c8		 mov	 ecx, eax
  002da	81 e1 03 00 00
	80		 and	 ecx, -2147483645	; 80000003H
  002e0	79 05		 jns	 SHORT $LN178@SetFlashJu
  002e2	49		 dec	 ecx
  002e3	83 c9 fc	 or	 ecx, -4			; fffffffcH
  002e6	41		 inc	 ecx
$LN178@SetFlashJu:
  002e7	b2 ed		 mov	 dl, -19			; ffffffedH
  002e9	2a d1		 sub	 dl, cl
  002eb	30 54 05 e0	 xor	 BYTE PTR _szEncEventType$530638[ebp+eax], dl
  002ef	40		 inc	 eax
  002f0	83 f8 0a	 cmp	 eax, 10			; 0000000aH
  002f3	7c e3		 jl	 SHORT $LL138@SetFlashJu
  002f5	8d 45 e0	 lea	 eax, DWORD PTR _szEncEventType$530638[ebp]
  002f8	50		 push	 eax
  002f9	8d 8d a4 7f ff
	ff		 lea	 ecx, DWORD PTR $T530625[ebp]
  002ff	ff d3		 call	 ebx
  00301	8b 8d bc 7f ff
	ff		 mov	 ecx, DWORD PTR _pGrp$[ebp]
  00307	83 65 fc 00	 and	 DWORD PTR __$EHRec$[ebp+8], 0
  0030b	8d 85 a4 7f ff
	ff		 lea	 eax, DWORD PTR $T530625[ebp]
  00311	50		 push	 eax
  00312	ff b5 c0 7f ff
	ff		 push	 DWORD PTR _iAniID$524071[ebp]
  00318	ff 15 00 00 00
	00		 call	 DWORD PTR __imp_?GetAnimationEventTime@ioEntityGroup@@QAEMHABVioHashString@@@Z
  0031e	d9 9d c4 7f ff
	ff		 fstp	 DWORD PTR $T530624[ebp]
  00324	83 4d fc ff	 or	 DWORD PTR __$EHRec$[ebp+8], -1
  00328	8d 8d a4 7f ff
	ff		 lea	 ecx, DWORD PTR $T530625[ebp]
  0032e	ff 15 00 00 00
	00		 call	 DWORD PTR __imp_??1ioHashString@@QAE@XZ
  00334	8d 85 c0 7f ff
	ff		 lea	 eax, DWORD PTR _value$530738[ebp]
  0033a	50		 push	 eax
  0033b	8d 8f 38 01 00
	00		 lea	 ecx, DWORD PTR [edi+312]
  00341	e8 00 00 00 00	 call	 ?DecryptValueToPool@?$CEncrypt@M@@QAEXPAM@Z ; CEncrypt<float>::DecryptValueToPool
  00346	d9 85 c4 7f ff
	ff		 fld	 DWORD PTR $T530624[ebp]
  0034c	8b 85 b4 7f ff
	ff		 mov	 eax, DWORD PTR _dwCurTime$[ebp]
  00352	d8 8d c0 7f ff
	ff		 fmul	 DWORD PTR _value$530738[ebp]
  00358	db 85 b4 7f ff
	ff		 fild	 DWORD PTR _dwCurTime$[ebp]
  0035e	85 c0		 test	 eax, eax
  00360	79 06		 jns	 SHORT $LN179@SetFlashJu
  00362	dc 05 00 00 00
	00		 fadd	 QWORD PTR __real@41f0000000000000
$LN179@SetFlashJu:
  00368	de c1		 faddp	 ST(1), ST(0)
  0036a	e8 00 00 00 00	 call	 __ftol2

; 226  : 
; 227  : 		pOwner->SetAutoTargetTrackingEndTime( dwTrackingTime );

  0036f	50		 push	 eax
  00370	8b ce		 mov	 ecx, esi
  00372	e8 00 00 00 00	 call	 ?SetAutoTargetTrackingEndTime@ioBaseChar@@QAEXK@Z ; ioBaseChar::SetAutoTargetTrackingEndTime
$LN2@SetFlashJu:

; 228  : 	}
; 229  : 
; 230  : 	m_bUseExtendJump = true;
; 231  : 	m_bUseExtendJumpAttack = false;
; 232  : 	pOwner->SetUsedFlashJump( true );
; 233  : 
; 234  : 	pOwner->SetEnableHide( false );

  00377	83 ec 10	 sub	 esp, 16			; 00000010H
  0037a	8b cc		 mov	 ecx, esp
  0037c	89 a5 c4 7f ff
	ff		 mov	 DWORD PTR $T530552[ebp], esp
  00382	c6 47 10 01	 mov	 BYTE PTR [edi+16], 1
  00386	c6 87 e8 01 00
	00 00		 mov	 BYTE PTR [edi+488], 0
  0038d	68 00 00 00 00	 push	 OFFSET ??_C@_00CNPNBAHC@?$AA@
  00392	c6 86 9c 0e 00
	00 01		 mov	 BYTE PTR [esi+3740], 1
  00399	ff d3		 call	 ebx
  0039b	83 ec 10	 sub	 esp, 16			; 00000010H
  0039e	8b cc		 mov	 ecx, esp
  003a0	89 a5 c0 7f ff
	ff		 mov	 DWORD PTR $T530553[ebp], esp
  003a6	68 00 00 00 00	 push	 OFFSET ??_C@_00CNPNBAHC@?$AA@
  003ab	c7 45 fc 01 00
	00 00		 mov	 DWORD PTR __$EHRec$[ebp+8], 1
  003b2	ff d3		 call	 ebx
  003b4	83 4d fc ff	 or	 DWORD PTR __$EHRec$[ebp+8], -1
  003b8	6a 00		 push	 0
  003ba	8b ce		 mov	 ecx, esi
  003bc	e8 00 00 00 00	 call	 ?SetEnableHide@ioBaseChar@@QAEX_NVioHashString@@1@Z ; ioBaseChar::SetEnableHide

; 235  : 	pOwner->SetNoWoundState( false );

  003c1	6a 00		 push	 0
  003c3	8b ce		 mov	 ecx, esi
  003c5	e8 00 00 00 00	 call	 ?SetNoWoundState@ioBaseChar@@QAEX_N@Z ; ioBaseChar::SetNoWoundState

; 236  : 	pOwner->SetEnableChangeTeam( false );

  003ca	6a 00		 push	 0
  003cc	8b ce		 mov	 ecx, esi
  003ce	e8 00 00 00 00	 call	 ?SetEnableChangeTeam@ioBaseChar@@QAEX_N@Z ; ioBaseChar::SetEnableChangeTeam

; 237  : 
; 238  : 	pOwner->SetChangeJumpMotion( false, "", "", "", 0.0f );

  003d3	68 00 00 00 00	 push	 OFFSET ??_C@_00CNPNBAHC@?$AA@
  003d8	8d 8d 94 7f ff
	ff		 lea	 ecx, DWORD PTR $T530554[ebp]
  003de	ff d3		 call	 ebx
  003e0	68 00 00 00 00	 push	 OFFSET ??_C@_00CNPNBAHC@?$AA@
  003e5	8d 4d e0	 lea	 ecx, DWORD PTR $T530555[ebp]
  003e8	c7 45 fc 02 00
	00 00		 mov	 DWORD PTR __$EHRec$[ebp+8], 2
  003ef	ff d3		 call	 ebx
  003f1	68 00 00 00 00	 push	 OFFSET ??_C@_00CNPNBAHC@?$AA@
  003f6	8d 8d a4 7f ff
	ff		 lea	 ecx, DWORD PTR $T530556[ebp]
  003fc	c6 45 fc 03	 mov	 BYTE PTR __$EHRec$[ebp+8], 3
  00400	ff d3		 call	 ebx
  00402	0f 57 c0	 xorps	 xmm0, xmm0
  00405	51		 push	 ecx
  00406	f3 0f 11 04 24	 movss	 DWORD PTR [esp], xmm0
  0040b	8d 85 94 7f ff
	ff		 lea	 eax, DWORD PTR $T530554[ebp]
  00411	50		 push	 eax
  00412	8d 45 e0	 lea	 eax, DWORD PTR $T530555[ebp]
  00415	50		 push	 eax
  00416	8d 85 a4 7f ff
	ff		 lea	 eax, DWORD PTR $T530556[ebp]
  0041c	50		 push	 eax
  0041d	6a 00		 push	 0
  0041f	8b ce		 mov	 ecx, esi
  00421	c6 45 fc 04	 mov	 BYTE PTR __$EHRec$[ebp+8], 4
  00425	e8 00 00 00 00	 call	 ?SetChangeJumpMotion@ioBaseChar@@QAEX_NABVioHashString@@11M@Z ; ioBaseChar::SetChangeJumpMotion
  0042a	8b 1d 00 00 00
	00		 mov	 ebx, DWORD PTR __imp_??1ioHashString@@QAE@XZ
  00430	8d 8d a4 7f ff
	ff		 lea	 ecx, DWORD PTR $T530556[ebp]
  00436	c6 45 fc 03	 mov	 BYTE PTR __$EHRec$[ebp+8], 3
  0043a	ff d3		 call	 ebx
  0043c	8d 4d e0	 lea	 ecx, DWORD PTR $T530555[ebp]
  0043f	c6 45 fc 02	 mov	 BYTE PTR __$EHRec$[ebp+8], 2
  00443	ff d3		 call	 ebx
  00445	83 4d fc ff	 or	 DWORD PTR __$EHRec$[ebp+8], -1
  00449	8d 8d 94 7f ff
	ff		 lea	 ecx, DWORD PTR $T530554[ebp]
  0044f	ff d3		 call	 ebx

; 239  : 	pOwner->SetJumpAttackState();

  00451	8b ce		 mov	 ecx, esi
  00453	e8 00 00 00 00	 call	 ?SetJumpAttackState@ioBaseChar@@QAEXXZ ; ioBaseChar::SetJumpAttackState

; 240  : 	
; 241  : 	pOwner->SetGravityAmt( 0.0f );

  00458	0f 57 c0	 xorps	 xmm0, xmm0
  0045b	8d 85 c4 7f ff
	ff		 lea	 eax, DWORD PTR _value$530750[ebp]
  00461	50		 push	 eax
  00462	8d 8e e8 0b 00
	00		 lea	 ecx, DWORD PTR [esi+3048]
  00468	f3 0f 11 85 c4
	7f ff ff	 movss	 DWORD PTR _value$530750[ebp], xmm0
  00470	e8 00 00 00 00	 call	 ?EncryptValueToPool@?$CEncrypt@M@@AAEXPBD@Z ; CEncrypt<float>::EncryptValueToPool

; 242  : 	pOwner->SetForcePowerAmt( 0.0f );

  00475	0f 57 c0	 xorps	 xmm0, xmm0
  00478	8d 85 c4 7f ff
	ff		 lea	 eax, DWORD PTR _value$530760[ebp]
  0047e	50		 push	 eax
  0047f	8d 8e 88 0b 00
	00		 lea	 ecx, DWORD PTR [esi+2952]
  00485	f3 0f 11 85 c4
	7f ff ff	 movss	 DWORD PTR _value$530760[ebp], xmm0
  0048d	e8 00 00 00 00	 call	 ?EncryptValueToPool@?$CEncrypt@M@@AAEXPBD@Z ; CEncrypt<float>::EncryptValueToPool

; 243  : 	pOwner->SetCurJumpPowerAmt( 0.0f );

  00492	0f 57 c0	 xorps	 xmm0, xmm0

; 244  : 
; 245  : 	m_FlashJumpState = FJS_DELAY;
; 246  : 	m_dwFlashDelayEndTime = dwCurTime + dwDelayTime;

  00495	8b 85 b4 7f ff
	ff		 mov	 eax, DWORD PTR _dwCurTime$[ebp]
  0049b	03 85 b8 7f ff
	ff		 add	 eax, DWORD PTR _dwDelayTime$[ebp]
  004a1	f3 0f 11 86 90
	0e 00 00	 movss	 DWORD PTR [esi+3728], xmm0
  004a9	c7 87 24 01 00
	00 03 00 00 00	 mov	 DWORD PTR [edi+292], 3

; 247  : 
; 248  : 	m_iCurChangeJumpCnt = pOwner->GetCurChangeJumppingCnt();

  004b3	8b ce		 mov	 ecx, esi
  004b5	89 87 c8 01 00
	00		 mov	 DWORD PTR [edi+456], eax
  004bb	e8 00 00 00 00	 call	 ?GetCurChangeJumppingCnt@ioBaseChar@@QAEHXZ ; ioBaseChar::GetCurChangeJumppingCnt
  004c0	89 87 c8 02 00
	00		 mov	 DWORD PTR [edi+712], eax

; 249  : 
; 250  : 	if( pOwner->IsNeedSendNetwork() )

  004c6	8b 06		 mov	 eax, DWORD PTR [esi]
  004c8	8b ce		 mov	 ecx, esi
  004ca	ff 90 04 01 00
	00		 call	 DWORD PTR [eax+260]
  004d0	84 c0		 test	 al, al
  004d2	0f 84 e4 00 00
	00		 je	 $LN1@SetFlashJu

; 251  : 	{
; 252  : 		SP2Packet kPacket( CUPK_EXTEND_JUMP );

  004d8	68 46 41 00 00	 push	 16710			; 00004146H
  004dd	8d 8d c8 7f ff
	ff		 lea	 ecx, DWORD PTR _kPacket$524087[ebp]
  004e3	e8 00 00 00 00	 call	 ??0SP2Packet@@QAE@K@Z	; SP2Packet::SP2Packet

; 253  : 		kPacket << pOwner->GetCharName();

  004e8	8d 86 d4 02 00
	00		 lea	 eax, DWORD PTR [esi+724]
  004ee	50		 push	 eax
  004ef	8d 8d c8 7f ff
	ff		 lea	 ecx, DWORD PTR _kPacket$524087[ebp]
  004f5	c7 45 fc 05 00
	00 00		 mov	 DWORD PTR __$EHRec$[ebp+8], 5
  004fc	e8 00 00 00 00	 call	 ??6SP2Packet@@QAEAAV0@ABVioHashString@@@Z ; SP2Packet::operator<<

; 254  : 		kPacket << (int)GetType();

  00501	8b 07		 mov	 eax, DWORD PTR [edi]
  00503	8b cf		 mov	 ecx, edi
  00505	ff 50 08	 call	 DWORD PTR [eax+8]
  00508	50		 push	 eax
  00509	8d 8d c8 7f ff
	ff		 lea	 ecx, DWORD PTR _kPacket$524087[ebp]
  0050f	e8 00 00 00 00	 call	 ??6SP2Packet@@QAEAAV0@H@Z ; SP2Packet::operator<<

; 255  : 		kPacket << pOwner->GetHP().m_fCurValue;

  00514	8d 86 c0 00 00
	00		 lea	 eax, DWORD PTR [esi+192]
  0051a	50		 push	 eax
  0051b	8d 8d c8 7f ff
	ff		 lea	 ecx, DWORD PTR _kPacket$524087[ebp]
  00521	e8 00 00 00 00	 call	 ??6SP2Packet@@QAEAAV0@AAV?$CEncrypt@M@@@Z ; SP2Packet::operator<<

; 256  : 		kPacket << (int)m_FlashJumpState;

  00526	ff b7 24 01 00
	00		 push	 DWORD PTR [edi+292]
  0052c	8d 8d c8 7f ff
	ff		 lea	 ecx, DWORD PTR _kPacket$524087[ebp]
  00532	e8 00 00 00 00	 call	 ??6SP2Packet@@QAEAAV0@H@Z ; SP2Packet::operator<<

; 257  : 		kPacket << m_iCurJumpCnt;

  00537	ff b7 c4 02 00
	00		 push	 DWORD PTR [edi+708]
  0053d	8d 8d c8 7f ff
	ff		 lea	 ecx, DWORD PTR _kPacket$524087[ebp]
  00543	e8 00 00 00 00	 call	 ??6SP2Packet@@QAEAAV0@H@Z ; SP2Packet::operator<<

; 258  : 		kPacket << m_iCurChangeJumpCnt;

  00548	ff b7 c8 02 00
	00		 push	 DWORD PTR [edi+712]
  0054e	8d 8d c8 7f ff
	ff		 lea	 ecx, DWORD PTR _kPacket$524087[ebp]
  00554	e8 00 00 00 00	 call	 ??6SP2Packet@@QAEAAV0@H@Z ; SP2Packet::operator<<

; 259  : 		kPacket << pOwner->GetTargetRot();

  00559	8d 86 a4 06 00
	00		 lea	 eax, DWORD PTR [esi+1700]
  0055f	50		 push	 eax
  00560	8d 8d c8 7f ff
	ff		 lea	 ecx, DWORD PTR _kPacket$524087[ebp]
  00566	e8 00 00 00 00	 call	 ??6SP2Packet@@QAEAAV0@ABUD3DXQUATERNION@@@Z ; SP2Packet::operator<<

; 260  : 		kPacket << pOwner->GetMoveDir();

  0056b	8d 86 b4 06 00
	00		 lea	 eax, DWORD PTR [esi+1716]
  00571	50		 push	 eax
  00572	8d 8d c8 7f ff
	ff		 lea	 ecx, DWORD PTR _kPacket$524087[ebp]
  00578	e8 00 00 00 00	 call	 ??6SP2Packet@@QAEAAV0@ABUD3DXVECTOR3@@@Z ; SP2Packet::operator<<

; 261  : 		kPacket << pOwner->GetInputDir();

  0057d	8d 86 c0 06 00
	00		 lea	 eax, DWORD PTR [esi+1728]
  00583	50		 push	 eax
  00584	8d 8d c8 7f ff
	ff		 lea	 ecx, DWORD PTR _kPacket$524087[ebp]
  0058a	e8 00 00 00 00	 call	 ??6SP2Packet@@QAEAAV0@ABUD3DXVECTOR3@@@Z ; SP2Packet::operator<<

; 262  : 		pOwner->FillAutoTargetInfo( kPacket );

  0058f	8d 85 c8 7f ff
	ff		 lea	 eax, DWORD PTR _kPacket$524087[ebp]
  00595	50		 push	 eax
  00596	8b ce		 mov	 ecx, esi
  00598	e8 00 00 00 00	 call	 ?FillAutoTargetInfo@ioBaseChar@@QAEXAAVSP2Packet@@@Z ; ioBaseChar::FillAutoTargetInfo

; 263  : 		P2PNetwork::SendToAllPlayingUser( kPacket );

  0059d	8d 85 c8 7f ff
	ff		 lea	 eax, DWORD PTR _kPacket$524087[ebp]
  005a3	6a 00		 push	 0
  005a5	50		 push	 eax
  005a6	e8 00 00 00 00	 call	 ?SendToAllPlayingUser@P2PNetwork@@YAXAAVSP2Packet@@PAVioBaseChar@@@Z ; P2PNetwork::SendToAllPlayingUser

; 264  : 	}

  005ab	83 4d fc ff	 or	 DWORD PTR __$EHRec$[ebp+8], -1
  005af	59		 pop	 ecx
  005b0	59		 pop	 ecx
  005b1	8d 8d c8 7f ff
	ff		 lea	 ecx, DWORD PTR _kPacket$524087[ebp]
  005b7	e8 00 00 00 00	 call	 ??1SP2Packet@@UAE@XZ	; SP2Packet::~SP2Packet
$LN1@SetFlashJu:

; 265  : 
; 266  : 	return true;

  005bc	b0 01		 mov	 al, 1
$LN7@SetFlashJu:

; 267  : }

  005be	8b 4d f4	 mov	 ecx, DWORD PTR __$EHRec$[ebp]
  005c1	64 89 0d 00 00
	00 00		 mov	 DWORD PTR fs:0, ecx
  005c8	59		 pop	 ecx
  005c9	5f		 pop	 edi
  005ca	5e		 pop	 esi
  005cb	5b		 pop	 ebx
  005cc	8b 4d f0	 mov	 ecx, DWORD PTR __$ArrayPad$[ebp]
  005cf	33 cd		 xor	 ecx, ebp
  005d1	e8 00 00 00 00	 call	 @__security_check_cookie@4
  005d6	c9		 leave
  005d7	c2 04 00	 ret	 4
_TEXT	ENDS
;	COMDAT text$x
text$x	SEGMENT
__unwindfunclet$?SetFlashJumpAttack@ioChargeFlashJump@@QAE_NPAVioBaseChar@@@Z$6:
  00000	8d 8d a4 7f ff
	ff		 lea	 ecx, DWORD PTR $T530625[ebp]
  00006	ff 25 00 00 00
	00		 jmp	 DWORD PTR __imp_??1ioHashString@@QAE@XZ
__unwindfunclet$?SetFlashJumpAttack@ioChargeFlashJump@@QAE_NPAVioBaseChar@@@Z$0:
  0000c	8b 8d c4 7f ff
	ff		 mov	 ecx, DWORD PTR $T530552[ebp]
  00012	ff 25 00 00 00
	00		 jmp	 DWORD PTR __imp_??1ioHashString@@QAE@XZ
__unwindfunclet$?SetFlashJumpAttack@ioChargeFlashJump@@QAE_NPAVioBaseChar@@@Z$2:
  00018	8d 8d 94 7f ff
	ff		 lea	 ecx, DWORD PTR $T530554[ebp]
  0001e	ff 25 00 00 00
	00		 jmp	 DWORD PTR __imp_??1ioHashString@@QAE@XZ
__unwindfunclet$?SetFlashJumpAttack@ioChargeFlashJump@@QAE_NPAVioBaseChar@@@Z$3:
  00024	8d 4d e0	 lea	 ecx, DWORD PTR $T530555[ebp]
  00027	ff 25 00 00 00
	00		 jmp	 DWORD PTR __imp_??1ioHashString@@QAE@XZ
__unwindfunclet$?SetFlashJumpAttack@ioChargeFlashJump@@QAE_NPAVioBaseChar@@@Z$4:
  0002d	8d 8d a4 7f ff
	ff		 lea	 ecx, DWORD PTR $T530556[ebp]
  00033	ff 25 00 00 00
	00		 jmp	 DWORD PTR __imp_??1ioHashString@@QAE@XZ
__unwindfunclet$?SetFlashJumpAttack@ioChargeFlashJump@@QAE_NPAVioBaseChar@@@Z$5:
  00039	8d 8d c8 7f ff
	ff		 lea	 ecx, DWORD PTR _kPacket$524087[ebp]
  0003f	e9 00 00 00 00	 jmp	 ??1SP2Packet@@UAE@XZ	; SP2Packet::~SP2Packet
__ehhandler$?SetFlashJumpAttack@ioChargeFlashJump@@QAE_NPAVioBaseChar@@@Z:
  00044	8b 54 24 08	 mov	 edx, DWORD PTR [esp+8]
  00048	8d 42 0c	 lea	 eax, DWORD PTR [edx+12]
  0004b	8b 8a 90 7f ff
	ff		 mov	 ecx, DWORD PTR [edx-32880]
  00051	33 c8		 xor	 ecx, eax
  00053	e8 00 00 00 00	 call	 @__security_check_cookie@4
  00058	8b 4a fc	 mov	 ecx, DWORD PTR [edx-4]
  0005b	33 c8		 xor	 ecx, eax
  0005d	e8 00 00 00 00	 call	 @__security_check_cookie@4
  00062	b8 00 00 00 00	 mov	 eax, OFFSET __ehfuncinfo$?SetFlashJumpAttack@ioChargeFlashJump@@QAE_NPAVioBaseChar@@@Z
  00067	e9 00 00 00 00	 jmp	 ___CxxFrameHandler3
text$x	ENDS
?SetFlashJumpAttack@ioChargeFlashJump@@QAE_NPAVioBaseChar@@@Z ENDP ; ioChargeFlashJump::SetFlashJumpAttack
PUBLIC	?ProcessFlashMove@ioChargeFlashJump@@IAEXPAVioBaseChar@@@Z ; ioChargeFlashJump::ProcessFlashMove
EXTRN	?SetMoveDirByRotate@ioBaseChar@@QAEXABUD3DXQUATERNION@@@Z:PROC ; ioBaseChar::SetMoveDirByRotate
EXTRN	?SetCharCollisionSkipTime@ioBaseChar@@QAEXKK_N@Z:PROC ; ioBaseChar::SetCharCollisionSkipTime
; Function compile flags: /Ogsp
;	COMDAT ?ProcessFlashMove@ioChargeFlashJump@@IAEXPAVioBaseChar@@@Z
_TEXT	SEGMENT
_value$530820 = 8					; size = 4
_pOwner$ = 8						; size = 4
?ProcessFlashMove@ioChargeFlashJump@@IAEXPAVioBaseChar@@@Z PROC ; ioChargeFlashJump::ProcessFlashMove, COMDAT
; _this$ = ecx

; 338  : {

  00000	55		 push	 ebp
  00001	8b ec		 mov	 ebp, esp
  00003	53		 push	 ebx
  00004	56		 push	 esi

; 339  : 	if( !pOwner ) return;

  00005	8b 75 08	 mov	 esi, DWORD PTR _pOwner$[ebp]
  00008	33 db		 xor	 ebx, ebx
  0000a	57		 push	 edi
  0000b	8b f9		 mov	 edi, ecx
  0000d	3b f3		 cmp	 esi, ebx
  0000f	74 60		 je	 SHORT $LN1@ProcessFla

; 340  : 
; 341  : 	ioEntityGroup *pGrp = pOwner->GetGroup();
; 342  : 	if( !pGrp ) return;

  00011	39 5e 04	 cmp	 DWORD PTR [esi+4], ebx
  00014	74 5b		 je	 SHORT $LN1@ProcessFla

; 343  : 
; 344  : 	DWORD dwCurTime = FRAMEGETTIME();

  00016	ff 15 00 00 00
	00		 call	 DWORD PTR __imp_?GetSingleton@ioFrameTimer@@SAAAV1@XZ
  0001c	8b c8		 mov	 ecx, eax
  0001e	ff 15 00 00 00
	00		 call	 DWORD PTR __imp_?GetLoopSec@ioFrameTimer@@QBEKXZ

; 345  : 
; 346  : 	if( m_dwFlashEndTime > 0 && m_dwFlashEndTime < dwCurTime )

  00024	8b 8f cc 01 00
	00		 mov	 ecx, DWORD PTR [edi+460]
  0002a	3b cb		 cmp	 ecx, ebx
  0002c	76 43		 jbe	 SHORT $LN1@ProcessFla
  0002e	3b c8		 cmp	 ecx, eax
  00030	73 3f		 jae	 SHORT $LN1@ProcessFla

; 347  : 	{
; 348  : 		m_FlashJumpState = FJS_NORMAL;
; 349  : 
; 350  : 		pOwner->SetUsedFlashJump( false );
; 351  : 		pOwner->SetGravityAmt( 0.0f );

  00032	0f 57 c0	 xorps	 xmm0, xmm0
  00035	8d 45 08	 lea	 eax, DWORD PTR _value$530820[ebp]
  00038	c7 87 24 01 00
	00 05 00 00 00	 mov	 DWORD PTR [edi+292], 5
  00042	50		 push	 eax
  00043	8d 8e e8 0b 00
	00		 lea	 ecx, DWORD PTR [esi+3048]
  00049	88 9e 9c 0e 00
	00		 mov	 BYTE PTR [esi+3740], bl
  0004f	f3 0f 11 45 08	 movss	 DWORD PTR _value$530820[ebp], xmm0
  00054	e8 00 00 00 00	 call	 ?EncryptValueToPool@?$CEncrypt@M@@AAEXPBD@Z ; CEncrypt<float>::EncryptValueToPool

; 352  : 
; 353  : 		pOwner->SetCharCollisionSkipTime( 0, 0 );

  00059	53		 push	 ebx
  0005a	53		 push	 ebx
  0005b	53		 push	 ebx
  0005c	8b ce		 mov	 ecx, esi
  0005e	e8 00 00 00 00	 call	 ?SetCharCollisionSkipTime@ioBaseChar@@QAEXKK_N@Z ; ioBaseChar::SetCharCollisionSkipTime

; 354  : 		pOwner->SetMoveDirByRotate( pOwner->GetTargetRot() );

  00063	8d 86 a4 06 00
	00		 lea	 eax, DWORD PTR [esi+1700]
  00069	50		 push	 eax
  0006a	8b ce		 mov	 ecx, esi
  0006c	e8 00 00 00 00	 call	 ?SetMoveDirByRotate@ioBaseChar@@QAEXABUD3DXQUATERNION@@@Z ; ioBaseChar::SetMoveDirByRotate
$LN1@ProcessFla:
  00071	5f		 pop	 edi
  00072	5e		 pop	 esi
  00073	5b		 pop	 ebx

; 355  : 	}
; 356  : }

  00074	5d		 pop	 ebp
  00075	c2 04 00	 ret	 4
?ProcessFlashMove@ioChargeFlashJump@@IAEXPAVioBaseChar@@@Z ENDP ; ioChargeFlashJump::ProcessFlashMove
_TEXT	ENDS
PUBLIC	?GetCurFlashForceAmt@ioChargeFlashJump@@QAEMXZ	; ioChargeFlashJump::GetCurFlashForceAmt
; Function compile flags: /Ogsp
;	COMDAT ?GetCurFlashForceAmt@ioChargeFlashJump@@QAEMXZ
_TEXT	SEGMENT
_value$530829 = -4					; size = 4
?GetCurFlashForceAmt@ioChargeFlashJump@@QAEMXZ PROC	; ioChargeFlashJump::GetCurFlashForceAmt, COMDAT
; _this$ = ecx

; 608  : {

  00000	55		 push	 ebp
  00001	8b ec		 mov	 ebp, esp
  00003	51		 push	 ecx

; 609  : 	switch( m_FlashJumpState )

  00004	83 b9 24 01 00
	00 04		 cmp	 DWORD PTR [ecx+292], 4
  0000b	74 04		 je	 SHORT $LN1@GetCurFlas

; 613  : 	}
; 614  : 
; 615  : 	return 0.0f;

  0000d	d9 ee		 fldz

; 616  : }

  0000f	c9		 leave
  00010	c3		 ret	 0
$LN1@GetCurFlas:

; 610  : 	{
; 611  : 	case FJS_FLASH:
; 612  : 		return m_fFlashForce;

  00011	8d 45 fc	 lea	 eax, DWORD PTR _value$530829[ebp]
  00014	50		 push	 eax
  00015	81 c1 68 01 00
	00		 add	 ecx, 360		; 00000168H
  0001b	e8 00 00 00 00	 call	 ?DecryptValueToPool@?$CEncrypt@M@@QAEXPAM@Z ; CEncrypt<float>::DecryptValueToPool
  00020	d9 45 fc	 fld	 DWORD PTR _value$530829[ebp]

; 616  : }

  00023	c9		 leave
  00024	c3		 ret	 0
?GetCurFlashForceAmt@ioChargeFlashJump@@QAEMXZ ENDP	; ioChargeFlashJump::GetCurFlashForceAmt
_TEXT	ENDS
PUBLIC	?GetCurFlashGravityAmt@ioChargeFlashJump@@QAEMXZ ; ioChargeFlashJump::GetCurFlashGravityAmt
; Function compile flags: /Ogsp
;	COMDAT ?GetCurFlashGravityAmt@ioChargeFlashJump@@QAEMXZ
_TEXT	SEGMENT
_value$530835 = -4					; size = 4
?GetCurFlashGravityAmt@ioChargeFlashJump@@QAEMXZ PROC	; ioChargeFlashJump::GetCurFlashGravityAmt, COMDAT
; _this$ = ecx

; 619  : {

  00000	55		 push	 ebp
  00001	8b ec		 mov	 ebp, esp
  00003	51		 push	 ecx

; 620  : 	switch( m_FlashJumpState )

  00004	83 b9 24 01 00
	00 04		 cmp	 DWORD PTR [ecx+292], 4
  0000b	74 04		 je	 SHORT $LN1@GetCurFlas@2

; 624  : 	}
; 625  : 
; 626  : 	return 0.0f;

  0000d	d9 ee		 fldz

; 627  : }

  0000f	c9		 leave
  00010	c3		 ret	 0
$LN1@GetCurFlas@2:

; 621  : 	{
; 622  : 	case FJS_FLASH:
; 623  : 		return m_fFlashGravityAmt;

  00011	8d 45 fc	 lea	 eax, DWORD PTR _value$530835[ebp]
  00014	50		 push	 eax
  00015	81 c1 98 01 00
	00		 add	 ecx, 408		; 00000198H
  0001b	e8 00 00 00 00	 call	 ?DecryptValueToPool@?$CEncrypt@M@@QAEXPAM@Z ; CEncrypt<float>::DecryptValueToPool
  00020	d9 45 fc	 fld	 DWORD PTR _value$530835[ebp]

; 627  : }

  00023	c9		 leave
  00024	c3		 ret	 0
?GetCurFlashGravityAmt@ioChargeFlashJump@@QAEMXZ ENDP	; ioChargeFlashJump::GetCurFlashGravityAmt
_TEXT	ENDS
PUBLIC	?IsCanDoubleJump@ioChargeFlashJump@@IAE_NPAVioBaseChar@@M@Z ; ioChargeFlashJump::IsCanDoubleJump
EXTRN	?IsBuffLimitExtendJump@ioBaseChar@@QBE_NXZ:PROC	; ioBaseChar::IsBuffLimitExtendJump
EXTRN	?HasBuff@ioBaseChar@@QBE_NH@Z:PROC		; ioBaseChar::HasBuff
EXTRN	?IsHasCrown@ioBaseChar@@QBE_NXZ:PROC		; ioBaseChar::IsHasCrown
EXTRN	?IsJumpKeyPress@ioBaseChar@@QBE_NXZ:PROC	; ioBaseChar::IsJumpKeyPress
; Function compile flags: /Ogsp
;	COMDAT ?IsCanDoubleJump@ioChargeFlashJump@@IAE_NPAVioBaseChar@@M@Z
_TEXT	SEGMENT
_pOwner$ = 8						; size = 4
_value$530852 = 11					; size = 1
_fHeightGap$ = 12					; size = 4
?IsCanDoubleJump@ioChargeFlashJump@@IAE_NPAVioBaseChar@@M@Z PROC ; ioChargeFlashJump::IsCanDoubleJump, COMDAT
; _this$ = ecx

; 641  : {

  00000	55		 push	 ebp
  00001	8b ec		 mov	 ebp, esp
  00003	53		 push	 ebx
  00004	56		 push	 esi

; 642  : 	if( !pOwner ) return false;

  00005	8b 75 08	 mov	 esi, DWORD PTR _pOwner$[ebp]
  00008	33 db		 xor	 ebx, ebx
  0000a	57		 push	 edi
  0000b	8b f9		 mov	 edi, ecx
  0000d	3b f3		 cmp	 esi, ebx
  0000f	0f 84 1c 01 00
	00		 je	 $LN10@IsCanDoubl

; 643  : 	if( !pOwner->IsNeedProcess() ) return false;

  00015	8b 06		 mov	 eax, DWORD PTR [esi]
  00017	8b ce		 mov	 ecx, esi
  00019	ff 90 00 01 00
	00		 call	 DWORD PTR [eax+256]
  0001f	84 c0		 test	 al, al
  00021	0f 84 0a 01 00
	00		 je	 $LN10@IsCanDoubl

; 644  : 
; 645  : 	if( !pOwner->IsJumpKeyPress() ||
; 646  : 		pOwner->IsHasCrown() ||
; 647  : 		pOwner->IsCatchMode() ||
; 648  : 		pOwner->IsPrisonerMode() ||
; 649  : 		(pOwner->GetUsedBuffJump() != BJUT_NONE) ||
; 650  : 		(pOwner->GetUsedBuffFlyJump() != BJUT_NONE) ||
; 651  : 		(pOwner->GetUsedBuffMultiFlyJump() != BJUT_NONE) ||
; 652  : 		pOwner->GetUsedJumpAttack()	)

  00027	8b ce		 mov	 ecx, esi
  00029	e8 00 00 00 00	 call	 ?IsJumpKeyPress@ioBaseChar@@QBE_NXZ ; ioBaseChar::IsJumpKeyPress
  0002e	84 c0		 test	 al, al
  00030	0f 84 fb 00 00
	00		 je	 $LN10@IsCanDoubl
  00036	8b ce		 mov	 ecx, esi
  00038	e8 00 00 00 00	 call	 ?IsHasCrown@ioBaseChar@@QBE_NXZ ; ioBaseChar::IsHasCrown
  0003d	84 c0		 test	 al, al
  0003f	0f 85 ec 00 00
	00		 jne	 $LN10@IsCanDoubl
  00045	38 9e 78 23 00
	00		 cmp	 BYTE PTR [esi+9080], bl
  0004b	0f 85 e0 00 00
	00		 jne	 $LN10@IsCanDoubl
  00051	8d 45 0b	 lea	 eax, DWORD PTR _value$530852[ebp]
  00054	50		 push	 eax
  00055	8d 8e cc 14 00
	00		 lea	 ecx, DWORD PTR [esi+5324]
  0005b	e8 00 00 00 00	 call	 ?DecryptValueToPool@?$CEncrypt@_N@@QAEXPA_N@Z ; CEncrypt<bool>::DecryptValueToPool
  00060	38 5d 0b	 cmp	 BYTE PTR _value$530852[ebp], bl
  00063	0f 85 c8 00 00
	00		 jne	 $LN10@IsCanDoubl
  00069	39 9e ac 0e 00
	00		 cmp	 DWORD PTR [esi+3756], ebx
  0006f	0f 85 bc 00 00
	00		 jne	 $LN10@IsCanDoubl
  00075	39 9e b0 0e 00
	00		 cmp	 DWORD PTR [esi+3760], ebx
  0007b	0f 85 b0 00 00
	00		 jne	 $LN10@IsCanDoubl
  00081	39 9e b4 0e 00
	00		 cmp	 DWORD PTR [esi+3764], ebx
  00087	0f 85 a4 00 00
	00		 jne	 $LN10@IsCanDoubl
  0008d	38 9e 98 0e 00
	00		 cmp	 BYTE PTR [esi+3736], bl
  00093	0f 85 98 00 00
	00		 jne	 $LN10@IsCanDoubl

; 654  : 
; 655  : 	if( pOwner->HasBuff( BT_BUFF_MULTI_FLY_JUMP ) )

  00099	68 83 00 00 00	 push	 131			; 00000083H
  0009e	8b ce		 mov	 ecx, esi
  000a0	e8 00 00 00 00	 call	 ?HasBuff@ioBaseChar@@QBE_NH@Z ; ioBaseChar::HasBuff
  000a5	84 c0		 test	 al, al

; 656  : 		return false;

  000a7	0f 85 84 00 00
	00		 jne	 $LN10@IsCanDoubl

; 657  : 
; 658  : 	if( pOwner->HasBuff( BT_BUFF_FLY_JUMP ) || pOwner->HasBuff( BT_BUFF_FLY_JUMP2 ) )

  000ad	6a 3b		 push	 59			; 0000003bH
  000af	8b ce		 mov	 ecx, esi
  000b1	e8 00 00 00 00	 call	 ?HasBuff@ioBaseChar@@QBE_NH@Z ; ioBaseChar::HasBuff
  000b6	84 c0		 test	 al, al
  000b8	75 77		 jne	 SHORT $LN10@IsCanDoubl
  000ba	68 98 00 00 00	 push	 152			; 00000098H
  000bf	8b ce		 mov	 ecx, esi
  000c1	e8 00 00 00 00	 call	 ?HasBuff@ioBaseChar@@QBE_NH@Z ; ioBaseChar::HasBuff
  000c6	84 c0		 test	 al, al
  000c8	75 67		 jne	 SHORT $LN10@IsCanDoubl

; 659  : 		return false;
; 660  : 
; 661  : 	if( pOwner->IsBuffLimitExtendJump() )

  000ca	8b ce		 mov	 ecx, esi
  000cc	e8 00 00 00 00	 call	 ?IsBuffLimitExtendJump@ioBaseChar@@QBE_NXZ ; ioBaseChar::IsBuffLimitExtendJump
  000d1	84 c0		 test	 al, al

; 662  : 		return false;

  000d3	75 5c		 jne	 SHORT $LN10@IsCanDoubl

; 663  : 
; 664  : 	if( m_iCurJumpCnt >= m_iMaxJumpCnt )

  000d5	8b 87 c4 02 00
	00		 mov	 eax, DWORD PTR [edi+708]
  000db	3b 87 c0 02 00
	00		 cmp	 eax, DWORD PTR [edi+704]

; 665  : 		return false;

  000e1	7d 4e		 jge	 SHORT $LN10@IsCanDoubl

; 666  : 
; 667  : 	if( m_FlashJumpState != FJS_NONE && m_FlashJumpState != FJS_DOUBLE )

  000e3	8b 87 24 01 00
	00		 mov	 eax, DWORD PTR [edi+292]
  000e9	3b c3		 cmp	 eax, ebx
  000eb	74 05		 je	 SHORT $LN4@IsCanDoubl
  000ed	83 f8 06	 cmp	 eax, 6

; 668  : 		return false;

  000f0	75 3f		 jne	 SHORT $LN10@IsCanDoubl
$LN4@IsCanDoubl:

; 669  : 
; 670  : 	DWORD dwMoveStartTime = pOwner->GetJumpMoveStartTime();

  000f2	8b b6 80 0e 00
	00		 mov	 esi, DWORD PTR [esi+3712]

; 671  : 	if( dwMoveStartTime == 0 ) return false;

  000f8	3b f3		 cmp	 esi, ebx
  000fa	74 35		 je	 SHORT $LN10@IsCanDoubl

; 672  : 
; 673  : 	if( FRAMEGETTIME() - dwMoveStartTime < m_dwDoubleJumpEnableTime )

  000fc	ff 15 00 00 00
	00		 call	 DWORD PTR __imp_?GetSingleton@ioFrameTimer@@SAAAV1@XZ
  00102	8b c8		 mov	 ecx, eax
  00104	ff 15 00 00 00
	00		 call	 DWORD PTR __imp_?GetLoopSec@ioFrameTimer@@QBEKXZ
  0010a	2b c6		 sub	 eax, esi
  0010c	3b 87 98 02 00
	00		 cmp	 eax, DWORD PTR [edi+664]

; 674  : 		return false;

  00112	72 1d		 jb	 SHORT $LN10@IsCanDoubl

; 675  : 
; 676  : 	if( fHeightGap < m_fDoubleJumpEnableHeight )

  00114	f3 0f 10 45 0c	 movss	 xmm0, DWORD PTR _fHeightGap$[ebp]
  00119	f3 0f 10 8f 94
	02 00 00	 movss	 xmm1, DWORD PTR [edi+660]
  00121	0f 5a c0	 cvtps2pd xmm0, xmm0
  00124	0f 5a c9	 cvtps2pd xmm1, xmm1
  00127	66 0f 2f c8	 comisd	 xmm1, xmm0

; 677  : 		return false;

  0012b	77 04		 ja	 SHORT $LN10@IsCanDoubl

; 678  : 
; 679  : 	return true;

  0012d	b0 01		 mov	 al, 1
  0012f	eb 02		 jmp	 SHORT $LN14@IsCanDoubl
$LN10@IsCanDoubl:

; 653  : 		return false;

  00131	32 c0		 xor	 al, al
$LN14@IsCanDoubl:
  00133	5f		 pop	 edi
  00134	5e		 pop	 esi
  00135	5b		 pop	 ebx

; 680  : }

  00136	5d		 pop	 ebp
  00137	c2 08 00	 ret	 8
?IsCanDoubleJump@ioChargeFlashJump@@IAE_NPAVioBaseChar@@M@Z ENDP ; ioChargeFlashJump::IsCanDoubleJump
_TEXT	ENDS
PUBLIC	_pOwner$GSCopy$
PUBLIC	__$ArrayPad$
PUBLIC	?SetDoubleJumpAni@ioChargeFlashJump@@IAEXPAVioBaseChar@@@Z ; ioChargeFlashJump::SetDoubleJumpAni
EXTRN	__imp_?SetActionAni@ioEntityGroup@@QAE_NABVioHashString@@MMMMMM_N1@Z:PROC
EXTRN	__imp_?AngleGap@ioMath@@SAMMM@Z:PROC
EXTRN	__imp_?QuaterToYaw@ioMath@@SAMABUD3DXQUATERNION@@@Z:PROC
EXTRN	__imp_?CalcDirectionQuaternion@ioMath@@SAXAAUD3DXQUATERNION@@ABUD3DXVECTOR3@@@Z:PROC
EXTRN	_D3DXVec3Normalize@8:PROC
EXTRN	__ftol2_sse:PROC
; Function compile flags: /Ogsp
;	COMDAT ?SetDoubleJumpAni@ioChargeFlashJump@@IAEXPAVioBaseChar@@@Z
_TEXT	SEGMENT
_pGrp$ = -64						; size = 4
_fRate$ = -60						; size = 4
_fCurYaw$ = -60						; size = 4
tv743 = -56						; size = 4
tv184 = -56						; size = 4
_fTargetYaw$ = -56					; size = 4
_qtTargetRot$ = -52					; size = 16
tv759 = -36						; size = 4
tv742 = -36						; size = 4
tv708 = -36						; size = 4
tv704 = -36						; size = 4
tv660 = -36						; size = 4
tv568 = -36						; size = 4
tv565 = -36						; size = 4
tv561 = -36						; size = 4
tv559 = -36						; size = 4
tv555 = -36						; size = 4
$T531049 = -36						; size = 4
$T531033 = -36						; size = 4
tv452 = -36						; size = 4
tv149 = -36						; size = 4
tv146 = -36						; size = 4
tv92 = -36						; size = 4
_iIndex2$ = -36						; size = 4
tv756 = -32						; size = 4
tv748 = -32						; size = 4
tv733 = -32						; size = 4
tv726 = -32						; size = 4
tv672 = -32						; size = 4
tv669 = -32						; size = 4
tv667 = -32						; size = 4
tv664 = -32						; size = 4
tv633 = -32						; size = 4
tv630 = -32						; size = 4
tv628 = -32						; size = 4
tv626 = -32						; size = 4
tv624 = -32						; size = 4
tv547 = -32						; size = 4
_pOwner$GSCopy$ = -32					; size = 4
tv489 = -32						; size = 4
tv484 = -32						; size = 4
tv482 = -32						; size = 4
tv478 = -32						; size = 4
tv476 = -32						; size = 4
tv456 = -32						; size = 4
tv453 = -32						; size = 4
tv450 = -32						; size = 4
tv448 = -32						; size = 4
tv446 = -32						; size = 4
tv296 = -32						; size = 4
_iTest$ = -32						; size = 4
_fAngleGap$ = -32					; size = 4
$T524313 = -28						; size = 12
_vSightDir$ = -28					; size = 12
_vXZDir$ = -16						; size = 12
__$ArrayPad$ = -4					; size = 4
_pOwner$ = 8						; size = 4
?SetDoubleJumpAni@ioChargeFlashJump@@IAEXPAVioBaseChar@@@Z PROC ; ioChargeFlashJump::SetDoubleJumpAni, COMDAT
; _this$ = ecx

; 740  : {

  00000	55		 push	 ebp
  00001	8b ec		 mov	 ebp, esp
  00003	83 ec 40	 sub	 esp, 64			; 00000040H
  00006	a1 00 00 00 00	 mov	 eax, DWORD PTR ___security_cookie
  0000b	33 c5		 xor	 eax, ebp
  0000d	89 45 fc	 mov	 DWORD PTR __$ArrayPad$[ebp], eax
  00010	8b 45 08	 mov	 eax, DWORD PTR _pOwner$[ebp]
  00013	53		 push	 ebx
  00014	56		 push	 esi
  00015	57		 push	 edi

; 741  : 	ioEntityGroup *pGrp = pOwner->GetGroup();
; 742  : 	D3DXVECTOR3 vSightDir = pOwner->GetMoveDir();

  00016	8d b0 b4 06 00
	00		 lea	 esi, DWORD PTR [eax+1716]
  0001c	8d 7d e4	 lea	 edi, DWORD PTR _vSightDir$[ebp]
  0001f	a5		 movsd
  00020	a5		 movsd
  00021	8b d9		 mov	 ebx, ecx
  00023	8b 48 04	 mov	 ecx, DWORD PTR [eax+4]
  00026	a5		 movsd

; 743  : 
; 744  : 	D3DXVECTOR3 vXZDir( vSightDir.x, 0.0f, vSightDir.z );

  00027	f3 0f 10 45 e4	 movss	 xmm0, DWORD PTR _vSightDir$[ebp]
  0002c	89 45 e0	 mov	 DWORD PTR _pOwner$GSCopy$[ebp], eax

; 745  : 	D3DXVec3Normalize( &vXZDir, &vXZDir );

  0002f	8d 45 f0	 lea	 eax, DWORD PTR _vXZDir$[ebp]
  00032	f3 0f 11 45 f0	 movss	 DWORD PTR _vXZDir$[ebp], xmm0
  00037	0f 57 c0	 xorps	 xmm0, xmm0
  0003a	50		 push	 eax
  0003b	f3 0f 11 45 f4	 movss	 DWORD PTR _vXZDir$[ebp+4], xmm0
  00040	f3 0f 10 45 ec	 movss	 xmm0, DWORD PTR _vSightDir$[ebp+8]
  00045	50		 push	 eax
  00046	89 4d c0	 mov	 DWORD PTR _pGrp$[ebp], ecx
  00049	f3 0f 11 45 f8	 movss	 DWORD PTR _vXZDir$[ebp+8], xmm0
  0004e	e8 00 00 00 00	 call	 _D3DXVec3Normalize@8

; 746  : 
; 747  : 	D3DXQUATERNION qtTargetRot;
; 748  : 	ioMath::CalcDirectionQuaternion( qtTargetRot, -vXZDir );

  00053	f3 0f 10 05 00
	00 00 00	 movss	 xmm0, DWORD PTR __mask@@NegFloat@
  0005b	f3 0f 10 4d f0	 movss	 xmm1, DWORD PTR _vXZDir$[ebp]
  00060	0f 57 c8	 xorps	 xmm1, xmm0
  00063	f3 0f 11 4d e4	 movss	 DWORD PTR $T524313[ebp], xmm1
  00068	f3 0f 10 4d f4	 movss	 xmm1, DWORD PTR _vXZDir$[ebp+4]
  0006d	0f 57 c8	 xorps	 xmm1, xmm0
  00070	8d 45 e4	 lea	 eax, DWORD PTR $T524313[ebp]
  00073	50		 push	 eax
  00074	f3 0f 11 4d e8	 movss	 DWORD PTR $T524313[ebp+4], xmm1
  00079	f3 0f 10 4d f8	 movss	 xmm1, DWORD PTR _vXZDir$[ebp+8]
  0007e	8d 45 cc	 lea	 eax, DWORD PTR _qtTargetRot$[ebp]
  00081	0f 57 c8	 xorps	 xmm1, xmm0
  00084	50		 push	 eax
  00085	f3 0f 11 4d ec	 movss	 DWORD PTR $T524313[ebp+8], xmm1
  0008a	ff 15 00 00 00
	00		 call	 DWORD PTR __imp_?CalcDirectionQuaternion@ioMath@@SAXAAUD3DXQUATERNION@@ABUD3DXVECTOR3@@@Z

; 749  : 
; 750  : 	float fCurYaw, fTargetYaw;
; 751  : 	fTargetYaw = RADtoDEG( ioMath::QuaterToYaw( qtTargetRot ) );

  00090	8d 45 cc	 lea	 eax, DWORD PTR _qtTargetRot$[ebp]
  00093	50		 push	 eax
  00094	ff 15 00 00 00
	00		 call	 DWORD PTR __imp_?QuaterToYaw@ioMath@@SAMABUD3DXQUATERNION@@@Z
  0009a	59		 pop	 ecx
  0009b	59		 pop	 ecx
  0009c	d9 1c 24	 fstp	 DWORD PTR [esp]
  0009f	e8 00 00 00 00	 call	 ??$RADtoDEG@M@@YAMM@Z	; RADtoDEG<float>
  000a4	d9 5d c8	 fstp	 DWORD PTR _fTargetYaw$[ebp]

; 752  : 	fTargetYaw = ioMath::ArrangeHead( fTargetYaw );

  000a7	f3 0f 10 45 c8	 movss	 xmm0, DWORD PTR _fTargetYaw$[ebp]
  000ac	f3 0f 11 04 24	 movss	 DWORD PTR [esp], xmm0
  000b1	ff 15 00 00 00
	00		 call	 DWORD PTR __imp_?ArrangeHead@ioMath@@SAMM@Z
  000b7	d9 5d c8	 fstp	 DWORD PTR _fTargetYaw$[ebp]

; 753  : 	fCurYaw = RADtoDEG( ioMath::QuaterToYaw( pOwner->GetTargetRot() ) );

  000ba	8b 75 e0	 mov	 esi, DWORD PTR _pOwner$GSCopy$[ebp]
  000bd	8d 86 a4 06 00
	00		 lea	 eax, DWORD PTR [esi+1700]
  000c3	50		 push	 eax
  000c4	ff 15 00 00 00
	00		 call	 DWORD PTR __imp_?QuaterToYaw@ioMath@@SAMABUD3DXQUATERNION@@@Z
  000ca	59		 pop	 ecx
  000cb	d9 1c 24	 fstp	 DWORD PTR [esp]
  000ce	e8 00 00 00 00	 call	 ??$RADtoDEG@M@@YAMM@Z	; RADtoDEG<float>
  000d3	d9 5d c4	 fstp	 DWORD PTR _fCurYaw$[ebp]

; 754  : 	fCurYaw = ioMath::ArrangeHead( fCurYaw );

  000d6	f3 0f 10 45 c4	 movss	 xmm0, DWORD PTR _fCurYaw$[ebp]
  000db	f3 0f 11 04 24	 movss	 DWORD PTR [esp], xmm0
  000e0	ff 15 00 00 00
	00		 call	 DWORD PTR __imp_?ArrangeHead@ioMath@@SAMM@Z
  000e6	d9 5d c4	 fstp	 DWORD PTR _fCurYaw$[ebp]

; 755  : 
; 756  : 	float fAngleGap = ioMath::AngleGap( fCurYaw, fTargetYaw );

  000e9	f3 0f 10 45 c8	 movss	 xmm0, DWORD PTR _fTargetYaw$[ebp]
  000ee	f3 0f 11 04 24	 movss	 DWORD PTR [esp], xmm0
  000f3	f3 0f 10 45 c4	 movss	 xmm0, DWORD PTR _fCurYaw$[ebp]
  000f8	51		 push	 ecx
  000f9	f3 0f 11 04 24	 movss	 DWORD PTR [esp], xmm0
  000fe	ff 15 00 00 00
	00		 call	 DWORD PTR __imp_?AngleGap@ioMath@@SAMMM@Z
  00104	d9 5d e0	 fstp	 DWORD PTR _fAngleGap$[ebp]
  00107	59		 pop	 ecx
  00108	59		 pop	 ecx

; 757  : 	fAngleGap += FLOAT360;

  00109	b8 68 01 00 00	 mov	 eax, 360		; 00000168H

; 758  : 	int iTest = (int)fAngleGap % 360;

  0010e	89 45 dc	 mov	 DWORD PTR tv759[ebp], eax
  00111	db 45 dc	 fild	 DWORD PTR tv759[ebp]
  00114	85 c0		 test	 eax, eax
  00116	79 06		 jns	 SHORT $LN105@SetDoubleJ
  00118	d8 05 00 00 00
	00		 fadd	 DWORD PTR __real@4f800000
$LN105@SetDoubleJ:
  0011e	d8 45 e0	 fadd	 DWORD PTR _fAngleGap$[ebp]
  00121	d9 5d e0	 fstp	 DWORD PTR tv756[ebp]
  00124	d9 45 e0	 fld	 DWORD PTR tv756[ebp]
  00127	e8 00 00 00 00	 call	 __ftol2_sse
  0012c	99		 cdq
  0012d	b9 68 01 00 00	 mov	 ecx, 360		; 00000168H
  00132	f7 f9		 idiv	 ecx
  00134	89 55 e0	 mov	 DWORD PTR _iTest$[ebp], edx

; 759  : 
; 760  : 	pGrp->ClearAllActionAni( FLOAT100, true );

  00137	b8 64 00 00 00	 mov	 eax, 100		; 00000064H
  0013c	33 ff		 xor	 edi, edi
  0013e	47		 inc	 edi
  0013f	89 45 dc	 mov	 DWORD PTR tv742[ebp], eax
  00142	db 45 dc	 fild	 DWORD PTR tv742[ebp]
  00145	57		 push	 edi
  00146	85 c0		 test	 eax, eax
  00148	79 06		 jns	 SHORT $LN106@SetDoubleJ
  0014a	d8 05 00 00 00
	00		 fadd	 DWORD PTR __real@4f800000
$LN106@SetDoubleJ:
  00150	51		 push	 ecx
  00151	8b 4d c0	 mov	 ecx, DWORD PTR _pGrp$[ebp]
  00154	d9 1c 24	 fstp	 DWORD PTR [esp]
  00157	ff 15 00 00 00
	00		 call	 DWORD PTR __imp_?ClearAllActionAni@ioEntityGroup@@QAEXM_N@Z

; 761  : 
; 762  : 	float fRate = 0.0f;
; 763  : 	int iIndex = -1;
; 764  : 	int iIndex2 = -1;
; 765  : 	iIndex = iTest / 90;

  0015d	8b 45 e0	 mov	 eax, DWORD PTR _iTest$[ebp]
  00160	6a 5a		 push	 90			; 0000005aH
  00162	99		 cdq
  00163	59		 pop	 ecx
  00164	f7 f9		 idiv	 ecx

; 766  : 	iTest = iTest % 90;
; 767  : 
; 768  : 	int iCnt = m_vDoubleJumpAniList.size();

  00166	8b 8b b0 02 00
	00		 mov	 ecx, DWORD PTR [ebx+688]
  0016c	2b 8b ac 02 00
	00		 sub	 ecx, DWORD PTR [ebx+684]
  00172	c1 f9 04	 sar	 ecx, 4
  00175	89 55 e0	 mov	 DWORD PTR tv733[ebp], edx
  00178	8b d0		 mov	 edx, eax
  0017a	89 55 c8	 mov	 DWORD PTR tv184[ebp], edx

; 769  : 	if( COMPARE( iIndex, 0, iCnt ) )

  0017d	85 d2		 test	 edx, edx
  0017f	0f 88 d4 03 00
	00		 js	 $LN10@SetDoubleJ
  00185	3b d1		 cmp	 edx, ecx
  00187	0f 8d cc 03 00
	00		 jge	 $LN10@SetDoubleJ

; 770  : 	{
; 771  : 		fRate = (float)iTest / FLOAT90;

  0018d	b8 5a 00 00 00	 mov	 eax, 90			; 0000005aH
  00192	db 45 e0	 fild	 DWORD PTR tv733[ebp]
  00195	89 45 e0	 mov	 DWORD PTR tv726[ebp], eax
  00198	db 45 e0	 fild	 DWORD PTR tv726[ebp]
  0019b	85 c0		 test	 eax, eax
  0019d	79 06		 jns	 SHORT $LN107@SetDoubleJ
  0019f	d8 05 00 00 00
	00		 fadd	 DWORD PTR __real@4f800000
$LN107@SetDoubleJ:

; 772  : 		iIndex2 = (iIndex+1) % iCnt;

  001a5	8d 42 01	 lea	 eax, DWORD PTR [edx+1]
  001a8	de f9		 fdivp	 ST(1), ST(0)
  001aa	99		 cdq
  001ab	f7 f9		 idiv	 ecx

; 773  : 
; 774  : 		if( !m_vDoubleJumpAniList[iIndex].IsEmpty() && !m_vDoubleJumpAniList[iIndex2].IsEmpty() )

  001ad	8b 45 c8	 mov	 eax, DWORD PTR tv184[ebp]
  001b0	8b 8b ac 02 00
	00		 mov	 ecx, DWORD PTR [ebx+684]
  001b6	c1 e0 04	 shl	 eax, 4
  001b9	03 c8		 add	 ecx, eax
  001bb	89 45 c8	 mov	 DWORD PTR tv743[ebp], eax
  001be	d9 5d c4	 fstp	 DWORD PTR _fRate$[ebp]
  001c1	89 55 dc	 mov	 DWORD PTR _iIndex2$[ebp], edx
  001c4	ff 15 00 00 00
	00		 call	 DWORD PTR __imp_?IsEmpty@ioHashString@@QBE_NXZ
  001ca	84 c0		 test	 al, al
  001cc	0f 85 6e 01 00
	00		 jne	 $LN9@SetDoubleJ
  001d2	8b 45 dc	 mov	 eax, DWORD PTR _iIndex2$[ebp]
  001d5	8b 8b ac 02 00
	00		 mov	 ecx, DWORD PTR [ebx+684]
  001db	c1 e0 04	 shl	 eax, 4
  001de	03 c8		 add	 ecx, eax
  001e0	89 45 e0	 mov	 DWORD PTR tv748[ebp], eax
  001e3	ff 15 00 00 00
	00		 call	 DWORD PTR __imp_?IsEmpty@ioHashString@@QBE_NXZ
  001e9	84 c0		 test	 al, al
  001eb	0f 85 4f 01 00
	00		 jne	 $LN9@SetDoubleJ

; 775  : 		{
; 776  : 			if( fRate <= FLOAT05 )

  001f1	b8 05 00 00 00	 mov	 eax, 5
  001f6	8b c8		 mov	 ecx, eax
  001f8	b8 0a 00 00 00	 mov	 eax, 10			; 0000000aH
  001fd	d9 45 c4	 fld	 DWORD PTR _fRate$[ebp]
  00200	89 4d dc	 mov	 DWORD PTR tv708[ebp], ecx
  00203	db 45 dc	 fild	 DWORD PTR tv708[ebp]
  00206	85 c9		 test	 ecx, ecx
  00208	79 06		 jns	 SHORT $LN108@SetDoubleJ
  0020a	d8 05 00 00 00
	00		 fadd	 DWORD PTR __real@4f800000
$LN108@SetDoubleJ:
  00210	89 45 dc	 mov	 DWORD PTR tv704[ebp], eax
  00213	db 45 dc	 fild	 DWORD PTR tv704[ebp]
  00216	85 c0		 test	 eax, eax
  00218	79 06		 jns	 SHORT $LN109@SetDoubleJ
  0021a	d8 05 00 00 00
	00		 fadd	 DWORD PTR __real@4f800000
$LN109@SetDoubleJ:
  00220	de f9		 fdivp	 ST(1), ST(0)
  00222	d9 5d dc	 fstp	 DWORD PTR tv660[ebp]
  00225	d9 45 dc	 fld	 DWORD PTR tv660[ebp]
  00228	df f1		 fcomip	 ST(1)
  0022a	dd d8		 fstp	 ST(0)
  0022c	0f 82 9d 00 00
	00		 jb	 $LN8@SetDoubleJ

; 777  : 				pGrp->SetActionAni( m_vDoubleJumpAniList[iIndex], FLOAT100, FLOAT100, (FLOAT1 - fRate), FLOAT1/m_fDoubleJumpAniRate, 0.0f, 0, true );

  00232	b8 01 00 00 00	 mov	 eax, 1
  00237	8b c8		 mov	 ecx, eax
  00239	b8 01 00 00 00	 mov	 eax, 1
  0023e	8b d0		 mov	 edx, eax
  00240	b8 64 00 00 00	 mov	 eax, 100		; 00000064H
  00245	8b f0		 mov	 esi, eax
  00247	b8 64 00 00 00	 mov	 eax, 100		; 00000064H
  0024c	0f 57 c0	 xorps	 xmm0, xmm0
  0024f	57		 push	 edi
  00250	57		 push	 edi
  00251	83 ec 18	 sub	 esp, 24			; 00000018H
  00254	89 4d e0	 mov	 DWORD PTR tv664[ebp], ecx
  00257	db 45 e0	 fild	 DWORD PTR tv664[ebp]
  0025a	f3 0f 11 44 24
	14		 movss	 DWORD PTR [esp+20], xmm0
  00260	f3 0f 11 44 24
	10		 movss	 DWORD PTR [esp+16], xmm0
  00266	85 c9		 test	 ecx, ecx
  00268	79 06		 jns	 SHORT $LN110@SetDoubleJ
  0026a	d8 05 00 00 00
	00		 fadd	 DWORD PTR __real@4f800000
$LN110@SetDoubleJ:
  00270	d8 b3 a8 02 00
	00		 fdiv	 DWORD PTR [ebx+680]
  00276	d9 5d e0	 fstp	 DWORD PTR tv667[ebp]
  00279	d9 45 e0	 fld	 DWORD PTR tv667[ebp]
  0027c	d9 5c 24 0c	 fstp	 DWORD PTR [esp+12]
  00280	89 55 e0	 mov	 DWORD PTR tv669[ebp], edx
  00283	db 45 e0	 fild	 DWORD PTR tv669[ebp]
  00286	85 d2		 test	 edx, edx
  00288	79 06		 jns	 SHORT $LN111@SetDoubleJ
  0028a	d8 05 00 00 00
	00		 fadd	 DWORD PTR __real@4f800000
$LN111@SetDoubleJ:
  00290	d8 65 c4	 fsub	 DWORD PTR _fRate$[ebp]
  00293	d9 5d e0	 fstp	 DWORD PTR tv672[ebp]
  00296	d9 45 e0	 fld	 DWORD PTR tv672[ebp]
  00299	89 75 e0	 mov	 DWORD PTR tv547[ebp], esi
  0029c	d9 5c 24 08	 fstp	 DWORD PTR [esp+8]
  002a0	db 45 e0	 fild	 DWORD PTR tv547[ebp]
  002a3	85 f6		 test	 esi, esi
  002a5	79 06		 jns	 SHORT $LN112@SetDoubleJ
  002a7	d8 05 00 00 00
	00		 fadd	 DWORD PTR __real@4f800000
$LN112@SetDoubleJ:
  002ad	89 45 e0	 mov	 DWORD PTR tv296[ebp], eax
  002b0	d9 5c 24 04	 fstp	 DWORD PTR [esp+4]
  002b4	db 45 e0	 fild	 DWORD PTR tv296[ebp]
$LN139@SetDoubleJ:
  002b7	85 c0		 test	 eax, eax
  002b9	79 06		 jns	 SHORT $LN113@SetDoubleJ
  002bb	d8 05 00 00 00
	00		 fadd	 DWORD PTR __real@4f800000
$LN113@SetDoubleJ:
  002c1	8b 83 ac 02 00
	00		 mov	 eax, DWORD PTR [ebx+684]
  002c7	03 45 c8	 add	 eax, DWORD PTR tv743[ebp]

; 778  : 			else

  002ca	e9 e8 01 00 00	 jmp	 $LN137@SetDoubleJ
$LN8@SetDoubleJ:

; 779  : 				pGrp->SetActionAni( m_vDoubleJumpAniList[iIndex2], FLOAT100, FLOAT100, fRate, FLOAT1/m_fDoubleJumpAniRate, 0.0f, 0, true );

  002cf	b8 01 00 00 00	 mov	 eax, 1
  002d4	8b c8		 mov	 ecx, eax
  002d6	b8 64 00 00 00	 mov	 eax, 100		; 00000064H
  002db	8b d0		 mov	 edx, eax
  002dd	b8 64 00 00 00	 mov	 eax, 100		; 00000064H
  002e2	0f 57 c0	 xorps	 xmm0, xmm0
  002e5	57		 push	 edi
  002e6	57		 push	 edi
  002e7	83 ec 18	 sub	 esp, 24			; 00000018H
  002ea	89 4d dc	 mov	 DWORD PTR tv149[ebp], ecx
  002ed	db 45 dc	 fild	 DWORD PTR tv149[ebp]
  002f0	f3 0f 11 44 24
	14		 movss	 DWORD PTR [esp+20], xmm0
  002f6	f3 0f 11 44 24
	10		 movss	 DWORD PTR [esp+16], xmm0
  002fc	85 c9		 test	 ecx, ecx
  002fe	79 06		 jns	 SHORT $LN114@SetDoubleJ
  00300	d8 05 00 00 00
	00		 fadd	 DWORD PTR __real@4f800000
$LN114@SetDoubleJ:
  00306	d8 b3 a8 02 00
	00		 fdiv	 DWORD PTR [ebx+680]
  0030c	f3 0f 10 45 c4	 movss	 xmm0, DWORD PTR _fRate$[ebp]
  00311	d9 5d dc	 fstp	 DWORD PTR tv146[ebp]
  00314	d9 45 dc	 fld	 DWORD PTR tv146[ebp]
  00317	d9 5c 24 0c	 fstp	 DWORD PTR [esp+12]
  0031b	89 55 dc	 mov	 DWORD PTR tv92[ebp], edx
  0031e	db 45 dc	 fild	 DWORD PTR tv92[ebp]
  00321	f3 0f 11 44 24
	08		 movss	 DWORD PTR [esp+8], xmm0
  00327	85 d2		 test	 edx, edx
  00329	79 06		 jns	 SHORT $LN115@SetDoubleJ
  0032b	d8 05 00 00 00
	00		 fadd	 DWORD PTR __real@4f800000
$LN115@SetDoubleJ:
  00331	89 45 dc	 mov	 DWORD PTR tv452[ebp], eax
  00334	d9 5c 24 04	 fstp	 DWORD PTR [esp+4]
  00338	db 45 dc	 fild	 DWORD PTR tv452[ebp]
  0033b	e9 64 01 00 00	 jmp	 $LN138@SetDoubleJ
$LN9@SetDoubleJ:

; 780  : 		}
; 781  : 		else if( !m_vDoubleJumpAniList[iIndex].IsEmpty() && m_vDoubleJumpAniList[iIndex2].IsEmpty() )

  00340	8b 8b ac 02 00
	00		 mov	 ecx, DWORD PTR [ebx+684]
  00346	03 4d c8	 add	 ecx, DWORD PTR tv743[ebp]
  00349	ff 15 00 00 00
	00		 call	 DWORD PTR __imp_?IsEmpty@ioHashString@@QBE_NXZ
  0034f	84 c0		 test	 al, al
  00351	0f 85 9b 00 00
	00		 jne	 $LN5@SetDoubleJ
  00357	8b 4d dc	 mov	 ecx, DWORD PTR _iIndex2$[ebp]
  0035a	c1 e1 04	 shl	 ecx, 4
  0035d	03 8b ac 02 00
	00		 add	 ecx, DWORD PTR [ebx+684]
  00363	ff 15 00 00 00
	00		 call	 DWORD PTR __imp_?IsEmpty@ioHashString@@QBE_NXZ
  00369	84 c0		 test	 al, al
  0036b	0f 84 81 00 00
	00		 je	 $LN5@SetDoubleJ

; 782  : 		{
; 783  : 			pGrp->SetActionAni( m_vDoubleJumpAniList[iIndex], FLOAT100, FLOAT100, FLOAT1, FLOAT1/m_fDoubleJumpAniRate, 0.0f, 0, true );

  00371	b8 01 00 00 00	 mov	 eax, 1
  00376	8b c8		 mov	 ecx, eax
  00378	b8 01 00 00 00	 mov	 eax, 1
  0037d	8b d0		 mov	 edx, eax
  0037f	b8 64 00 00 00	 mov	 eax, 100		; 00000064H
  00384	8b f0		 mov	 esi, eax
  00386	b8 64 00 00 00	 mov	 eax, 100		; 00000064H
  0038b	0f 57 c0	 xorps	 xmm0, xmm0
  0038e	57		 push	 edi
  0038f	57		 push	 edi
  00390	83 ec 18	 sub	 esp, 24			; 00000018H
  00393	89 4d e0	 mov	 DWORD PTR tv633[ebp], ecx
  00396	db 45 e0	 fild	 DWORD PTR tv633[ebp]
  00399	f3 0f 11 44 24
	14		 movss	 DWORD PTR [esp+20], xmm0
  0039f	f3 0f 11 44 24
	10		 movss	 DWORD PTR [esp+16], xmm0
  003a5	85 c9		 test	 ecx, ecx
  003a7	79 06		 jns	 SHORT $LN117@SetDoubleJ
  003a9	d8 05 00 00 00
	00		 fadd	 DWORD PTR __real@4f800000
$LN117@SetDoubleJ:
  003af	d8 b3 a8 02 00
	00		 fdiv	 DWORD PTR [ebx+680]
  003b5	d9 5d e0	 fstp	 DWORD PTR tv630[ebp]
  003b8	d9 45 e0	 fld	 DWORD PTR tv630[ebp]
  003bb	d9 5c 24 0c	 fstp	 DWORD PTR [esp+12]
  003bf	89 55 e0	 mov	 DWORD PTR tv628[ebp], edx
  003c2	db 45 e0	 fild	 DWORD PTR tv628[ebp]
  003c5	85 d2		 test	 edx, edx
  003c7	79 06		 jns	 SHORT $LN118@SetDoubleJ
  003c9	d8 05 00 00 00
	00		 fadd	 DWORD PTR __real@4f800000
$LN118@SetDoubleJ:
  003cf	89 75 e0	 mov	 DWORD PTR tv626[ebp], esi
  003d2	d9 5c 24 08	 fstp	 DWORD PTR [esp+8]
  003d6	db 45 e0	 fild	 DWORD PTR tv626[ebp]
  003d9	85 f6		 test	 esi, esi
  003db	79 06		 jns	 SHORT $LN119@SetDoubleJ
  003dd	d8 05 00 00 00
	00		 fadd	 DWORD PTR __real@4f800000
$LN119@SetDoubleJ:
  003e3	89 45 e0	 mov	 DWORD PTR tv624[ebp], eax
  003e6	d9 5c 24 04	 fstp	 DWORD PTR [esp+4]
  003ea	db 45 e0	 fild	 DWORD PTR tv624[ebp]
  003ed	e9 c5 fe ff ff	 jmp	 $LN139@SetDoubleJ
$LN5@SetDoubleJ:

; 784  : 		}
; 785  : 		else if( !m_vDoubleJumpAniList[iIndex2].IsEmpty() && m_vDoubleJumpAniList[iIndex].IsEmpty() )

  003f2	8b 45 dc	 mov	 eax, DWORD PTR _iIndex2$[ebp]
  003f5	8b 8b ac 02 00
	00		 mov	 ecx, DWORD PTR [ebx+684]
  003fb	c1 e0 04	 shl	 eax, 4
  003fe	03 c8		 add	 ecx, eax
  00400	89 45 e0	 mov	 DWORD PTR tv748[ebp], eax
  00403	ff 15 00 00 00
	00		 call	 DWORD PTR __imp_?IsEmpty@ioHashString@@QBE_NXZ
  00409	84 c0		 test	 al, al
  0040b	0f 85 b8 00 00
	00		 jne	 $LN3@SetDoubleJ
  00411	8b 8b ac 02 00
	00		 mov	 ecx, DWORD PTR [ebx+684]
  00417	03 4d c8	 add	 ecx, DWORD PTR tv743[ebp]
  0041a	ff 15 00 00 00
	00		 call	 DWORD PTR __imp_?IsEmpty@ioHashString@@QBE_NXZ
  00420	84 c0		 test	 al, al
  00422	0f 84 a1 00 00
	00		 je	 $LN3@SetDoubleJ

; 786  : 		{
; 787  : 			pGrp->SetActionAni( m_vDoubleJumpAniList[iIndex2], FLOAT100, FLOAT100, FLOAT1, FLOAT1/m_fDoubleJumpAniRate, 0.0f, 0, true );

  00428	b8 01 00 00 00	 mov	 eax, 1
  0042d	8b c8		 mov	 ecx, eax
  0042f	b8 01 00 00 00	 mov	 eax, 1
  00434	8b d0		 mov	 edx, eax
  00436	b8 64 00 00 00	 mov	 eax, 100		; 00000064H
  0043b	8b f0		 mov	 esi, eax
  0043d	b8 64 00 00 00	 mov	 eax, 100		; 00000064H
  00442	0f 57 c0	 xorps	 xmm0, xmm0
  00445	57		 push	 edi
  00446	57		 push	 edi
  00447	83 ec 18	 sub	 esp, 24			; 00000018H
  0044a	89 4d dc	 mov	 DWORD PTR tv568[ebp], ecx
  0044d	db 45 dc	 fild	 DWORD PTR tv568[ebp]
  00450	f3 0f 11 44 24
	14		 movss	 DWORD PTR [esp+20], xmm0
  00456	f3 0f 11 44 24
	10		 movss	 DWORD PTR [esp+16], xmm0
  0045c	85 c9		 test	 ecx, ecx
  0045e	79 06		 jns	 SHORT $LN121@SetDoubleJ
  00460	d8 05 00 00 00
	00		 fadd	 DWORD PTR __real@4f800000
$LN121@SetDoubleJ:
  00466	d8 b3 a8 02 00
	00		 fdiv	 DWORD PTR [ebx+680]
  0046c	d9 5d dc	 fstp	 DWORD PTR tv565[ebp]
  0046f	d9 45 dc	 fld	 DWORD PTR tv565[ebp]
  00472	d9 5c 24 0c	 fstp	 DWORD PTR [esp+12]
  00476	89 55 dc	 mov	 DWORD PTR tv561[ebp], edx
  00479	db 45 dc	 fild	 DWORD PTR tv561[ebp]
  0047c	85 d2		 test	 edx, edx
  0047e	79 06		 jns	 SHORT $LN122@SetDoubleJ
  00480	d8 05 00 00 00
	00		 fadd	 DWORD PTR __real@4f800000
$LN122@SetDoubleJ:
  00486	89 75 dc	 mov	 DWORD PTR tv559[ebp], esi
  00489	d9 5c 24 08	 fstp	 DWORD PTR [esp+8]
  0048d	db 45 dc	 fild	 DWORD PTR tv559[ebp]
  00490	85 f6		 test	 esi, esi
  00492	79 06		 jns	 SHORT $LN123@SetDoubleJ
  00494	d8 05 00 00 00
	00		 fadd	 DWORD PTR __real@4f800000
$LN123@SetDoubleJ:
  0049a	89 45 dc	 mov	 DWORD PTR tv555[ebp], eax
  0049d	d9 5c 24 04	 fstp	 DWORD PTR [esp+4]
  004a1	db 45 dc	 fild	 DWORD PTR tv555[ebp]
$LN138@SetDoubleJ:
  004a4	85 c0		 test	 eax, eax
  004a6	79 06		 jns	 SHORT $LN124@SetDoubleJ
  004a8	d8 05 00 00 00
	00		 fadd	 DWORD PTR __real@4f800000
$LN124@SetDoubleJ:
  004ae	8b 83 ac 02 00
	00		 mov	 eax, DWORD PTR [ebx+684]
  004b4	03 45 e0	 add	 eax, DWORD PTR tv748[ebp]
$LN137@SetDoubleJ:
  004b7	8b 4d c0	 mov	 ecx, DWORD PTR _pGrp$[ebp]
  004ba	d9 1c 24	 fstp	 DWORD PTR [esp]
  004bd	50		 push	 eax
  004be	ff 15 00 00 00
	00		 call	 DWORD PTR __imp_?SetActionAni@ioEntityGroup@@QAE_NABVioHashString@@MMMMMM_N1@Z

; 788  : 		}
; 789  : 		else

  004c4	e9 32 01 00 00	 jmp	 $LN1@SetDoubleJ
$LN3@SetDoubleJ:

; 790  : 		{
; 791  : 			int iAniID = pOwner->GetJumppingAnimationIdx();

  004c9	8b 06		 mov	 eax, DWORD PTR [esi]
  004cb	6a 00		 push	 0
  004cd	8b ce		 mov	 ecx, esi
  004cf	ff 90 6c 01 00
	00		 call	 DWORD PTR [eax+364]
  004d5	8b c8		 mov	 ecx, eax

; 792  : 			pGrp->SetActionAni( iAniID, FLOAT100, FLOAT100, FLOAT1, FLOAT1/m_fDoubleJumpAniRate, 0.0f, 0, true );

  004d7	b8 01 00 00 00	 mov	 eax, 1
  004dc	8b d0		 mov	 edx, eax
  004de	b8 01 00 00 00	 mov	 eax, 1
  004e3	8b f0		 mov	 esi, eax
  004e5	b8 64 00 00 00	 mov	 eax, 100		; 00000064H
  004ea	89 45 dc	 mov	 DWORD PTR $T531033[ebp], eax
  004ed	b8 64 00 00 00	 mov	 eax, 100		; 00000064H
  004f2	0f 57 c0	 xorps	 xmm0, xmm0
  004f5	57		 push	 edi
  004f6	57		 push	 edi
  004f7	83 ec 18	 sub	 esp, 24			; 00000018H
  004fa	89 55 e0	 mov	 DWORD PTR tv489[ebp], edx
  004fd	db 45 e0	 fild	 DWORD PTR tv489[ebp]
  00500	f3 0f 11 44 24
	14		 movss	 DWORD PTR [esp+20], xmm0
  00506	f3 0f 11 44 24
	10		 movss	 DWORD PTR [esp+16], xmm0
  0050c	85 d2		 test	 edx, edx
  0050e	79 06		 jns	 SHORT $LN125@SetDoubleJ
  00510	d8 05 00 00 00
	00		 fadd	 DWORD PTR __real@4f800000
$LN125@SetDoubleJ:
  00516	d8 b3 a8 02 00
	00		 fdiv	 DWORD PTR [ebx+680]
  0051c	d9 5d e0	 fstp	 DWORD PTR tv484[ebp]
  0051f	d9 45 e0	 fld	 DWORD PTR tv484[ebp]
  00522	d9 5c 24 0c	 fstp	 DWORD PTR [esp+12]
  00526	89 75 e0	 mov	 DWORD PTR tv482[ebp], esi
  00529	db 45 e0	 fild	 DWORD PTR tv482[ebp]
  0052c	85 f6		 test	 esi, esi
  0052e	79 06		 jns	 SHORT $LN126@SetDoubleJ
  00530	d8 05 00 00 00
	00		 fadd	 DWORD PTR __real@4f800000
$LN126@SetDoubleJ:
  00536	8b 55 dc	 mov	 edx, DWORD PTR $T531033[ebp]
  00539	d9 5c 24 08	 fstp	 DWORD PTR [esp+8]
  0053d	db 45 dc	 fild	 DWORD PTR $T531033[ebp]
  00540	85 d2		 test	 edx, edx
  00542	79 06		 jns	 SHORT $LN127@SetDoubleJ
  00544	d8 05 00 00 00
	00		 fadd	 DWORD PTR __real@4f800000
$LN127@SetDoubleJ:
  0054a	89 45 e0	 mov	 DWORD PTR tv476[ebp], eax
  0054d	d9 5c 24 04	 fstp	 DWORD PTR [esp+4]
  00551	db 45 e0	 fild	 DWORD PTR tv476[ebp]

; 793  : 		}
; 794  : 	}
; 795  : 	else

  00554	e9 8b 00 00 00	 jmp	 $LN134@SetDoubleJ
$LN10@SetDoubleJ:

; 796  : 	{
; 797  : 		int iAniID = pOwner->GetJumppingAnimationIdx();

  00559	8b 06		 mov	 eax, DWORD PTR [esi]
  0055b	6a 00		 push	 0
  0055d	8b ce		 mov	 ecx, esi
  0055f	ff 90 6c 01 00
	00		 call	 DWORD PTR [eax+364]
  00565	8b c8		 mov	 ecx, eax

; 798  : 		pGrp->SetActionAni( iAniID, FLOAT100, FLOAT100, FLOAT1, FLOAT1/m_fDoubleJumpAniRate, 0.0f, 0, true );

  00567	b8 01 00 00 00	 mov	 eax, 1
  0056c	8b d0		 mov	 edx, eax
  0056e	b8 01 00 00 00	 mov	 eax, 1
  00573	8b f0		 mov	 esi, eax
  00575	b8 64 00 00 00	 mov	 eax, 100		; 00000064H
  0057a	89 45 dc	 mov	 DWORD PTR $T531049[ebp], eax
  0057d	b8 64 00 00 00	 mov	 eax, 100		; 00000064H
  00582	0f 57 c0	 xorps	 xmm0, xmm0
  00585	57		 push	 edi
  00586	57		 push	 edi
  00587	83 ec 18	 sub	 esp, 24			; 00000018H
  0058a	89 55 e0	 mov	 DWORD PTR tv456[ebp], edx
  0058d	db 45 e0	 fild	 DWORD PTR tv456[ebp]
  00590	f3 0f 11 44 24
	14		 movss	 DWORD PTR [esp+20], xmm0
  00596	f3 0f 11 44 24
	10		 movss	 DWORD PTR [esp+16], xmm0
  0059c	85 d2		 test	 edx, edx
  0059e	79 06		 jns	 SHORT $LN129@SetDoubleJ
  005a0	d8 05 00 00 00
	00		 fadd	 DWORD PTR __real@4f800000
$LN129@SetDoubleJ:
  005a6	d8 b3 a8 02 00
	00		 fdiv	 DWORD PTR [ebx+680]
  005ac	d9 5d e0	 fstp	 DWORD PTR tv453[ebp]
  005af	d9 45 e0	 fld	 DWORD PTR tv453[ebp]
  005b2	d9 5c 24 0c	 fstp	 DWORD PTR [esp+12]
  005b6	89 75 e0	 mov	 DWORD PTR tv450[ebp], esi
  005b9	db 45 e0	 fild	 DWORD PTR tv450[ebp]
  005bc	85 f6		 test	 esi, esi
  005be	79 06		 jns	 SHORT $LN130@SetDoubleJ
  005c0	d8 05 00 00 00
	00		 fadd	 DWORD PTR __real@4f800000
$LN130@SetDoubleJ:
  005c6	8b 55 dc	 mov	 edx, DWORD PTR $T531049[ebp]
  005c9	d9 5c 24 08	 fstp	 DWORD PTR [esp+8]
  005cd	db 45 dc	 fild	 DWORD PTR $T531049[ebp]
  005d0	85 d2		 test	 edx, edx
  005d2	79 06		 jns	 SHORT $LN131@SetDoubleJ
  005d4	d8 05 00 00 00
	00		 fadd	 DWORD PTR __real@4f800000
$LN131@SetDoubleJ:
  005da	89 45 e0	 mov	 DWORD PTR tv446[ebp], eax
  005dd	d9 5c 24 04	 fstp	 DWORD PTR [esp+4]
  005e1	db 45 e0	 fild	 DWORD PTR tv446[ebp]
$LN134@SetDoubleJ:
  005e4	85 c0		 test	 eax, eax
  005e6	79 06		 jns	 SHORT $LN132@SetDoubleJ
  005e8	d8 05 00 00 00
	00		 fadd	 DWORD PTR __real@4f800000
$LN132@SetDoubleJ:
  005ee	d9 1c 24	 fstp	 DWORD PTR [esp]
  005f1	51		 push	 ecx
  005f2	8b 4d c0	 mov	 ecx, DWORD PTR _pGrp$[ebp]
  005f5	ff 15 00 00 00
	00		 call	 DWORD PTR __imp_?SetActionAni@ioEntityGroup@@QAE_NHMMMMMM_N0@Z
$LN1@SetDoubleJ:

; 799  : 	}
; 800  : 	//
; 801  : }

  005fb	8b 4d fc	 mov	 ecx, DWORD PTR __$ArrayPad$[ebp]
  005fe	5f		 pop	 edi
  005ff	5e		 pop	 esi
  00600	33 cd		 xor	 ecx, ebp
  00602	5b		 pop	 ebx
  00603	e8 00 00 00 00	 call	 @__security_check_cookie@4
  00608	c9		 leave
  00609	c2 04 00	 ret	 4
?SetDoubleJumpAni@ioChargeFlashJump@@IAEXPAVioBaseChar@@@Z ENDP ; ioChargeFlashJump::SetDoubleJumpAni
_TEXT	ENDS
PUBLIC	__$ArrayPad$
PUBLIC	?SetNewJumpTypeFlashAttack@ioChargeFlashJump@@IAEXPAVioBaseChar@@KK@Z ; ioChargeFlashJump::SetNewJumpTypeFlashAttack
EXTRN	?SetForcePower@ioBaseChar@@QAEXABUD3DXVECTOR3@@MM_N@Z:PROC ; ioBaseChar::SetForcePower
EXTRN	__imp_??D@YA?AUD3DXVECTOR3@@ABUD3DXQUATERNION@@ABU0@@Z:PROC
; Function compile flags: /Ogsp
;	COMDAT ?SetNewJumpTypeFlashAttack@ioChargeFlashJump@@IAEXPAVioBaseChar@@KK@Z
_TEXT	SEGMENT
tv165 = -36						; size = 4
tv174 = -32						; size = 4
_value$531119 = -32					; size = 4
_value$531101 = -32					; size = 4
$T524386 = -28						; size = 12
_vForceDir$ = -16					; size = 12
__$ArrayPad$ = -4					; size = 4
_pOwner$ = 8						; size = 4
_dwEndTime$ = 12					; size = 4
_dwReserveTime$ = 16					; size = 4
?SetNewJumpTypeFlashAttack@ioChargeFlashJump@@IAEXPAVioBaseChar@@KK@Z PROC ; ioChargeFlashJump::SetNewJumpTypeFlashAttack, COMDAT
; _this$ = ecx

; 817  : {

  00000	55		 push	 ebp
  00001	8b ec		 mov	 ebp, esp
  00003	83 ec 24	 sub	 esp, 36			; 00000024H
  00006	a1 00 00 00 00	 mov	 eax, DWORD PTR ___security_cookie
  0000b	33 c5		 xor	 eax, ebp
  0000d	89 45 fc	 mov	 DWORD PTR __$ArrayPad$[ebp], eax
  00010	53		 push	 ebx
  00011	56		 push	 esi
  00012	57		 push	 edi
  00013	8b 7d 08	 mov	 edi, DWORD PTR _pOwner$[ebp]

; 818  : 	if( !pOwner ) return;

  00016	33 db		 xor	 ebx, ebx
  00018	8b f1		 mov	 esi, ecx
  0001a	3b fb		 cmp	 edi, ebx
  0001c	0f 84 c3 00 00
	00		 je	 $LN2@SetNewJump@2

; 819  : 
; 820  : 	m_bUseExtendJump = false;
; 821  : 	m_FlashJumpState = FJS_NONE;
; 822  : 	pOwner->SetUsedFlashJump( false );
; 823  : 
; 824  : 	pOwner->SetNewJumpAttackStateInfo( dwEndTime, dwReserveTime, m_fFlashGravityAmt );

  00022	8d 45 e0	 lea	 eax, DWORD PTR _value$531101[ebp]
  00025	88 5e 10	 mov	 BYTE PTR [esi+16], bl
  00028	89 9e 24 01 00
	00		 mov	 DWORD PTR [esi+292], ebx
  0002e	50		 push	 eax
  0002f	8d 8e 98 01 00
	00		 lea	 ecx, DWORD PTR [esi+408]
  00035	88 9f 9c 0e 00
	00		 mov	 BYTE PTR [edi+3740], bl
  0003b	e8 00 00 00 00	 call	 ?DecryptValueToPool@?$CEncrypt@M@@QAEXPAM@Z ; CEncrypt<float>::DecryptValueToPool
  00040	f3 0f 10 45 e0	 movss	 xmm0, DWORD PTR _value$531101[ebp]
  00045	53		 push	 ebx
  00046	51		 push	 ecx
  00047	f3 0f 11 04 24	 movss	 DWORD PTR [esp], xmm0
  0004c	ff 75 10	 push	 DWORD PTR _dwReserveTime$[ebp]
  0004f	8b cf		 mov	 ecx, edi
  00051	ff 75 0c	 push	 DWORD PTR _dwEndTime$[ebp]
  00054	e8 00 00 00 00	 call	 ?SetNewJumpAttackStateInfo@ioBaseChar@@QAEXKKM_N@Z ; ioBaseChar::SetNewJumpAttackStateInfo

; 825  : 
; 826  : 	D3DXVECTOR3 vForceDir = pOwner->GetTargetRot() * D3DXVECTOR3( 0.0f, 0.0f, -FLOAT1 );

  00059	b8 01 00 00 00	 mov	 eax, 1
  0005e	0f 57 c0	 xorps	 xmm0, xmm0
  00061	89 45 e0	 mov	 DWORD PTR tv174[ebp], eax
  00064	db 45 e0	 fild	 DWORD PTR tv174[ebp]
  00067	f3 0f 11 45 e4	 movss	 DWORD PTR $T524386[ebp], xmm0
  0006c	f3 0f 11 45 e8	 movss	 DWORD PTR $T524386[ebp+4], xmm0
  00071	85 c0		 test	 eax, eax
  00073	79 06		 jns	 SHORT $LN18@SetNewJump@2
  00075	d8 05 00 00 00
	00		 fadd	 DWORD PTR __real@4f800000
$LN18@SetNewJump@2:
  0007b	8d 45 e4	 lea	 eax, DWORD PTR $T524386[ebp]
  0007e	d9 e0		 fchs
  00080	50		 push	 eax
  00081	d9 5d ec	 fstp	 DWORD PTR $T524386[ebp+8]
  00084	8d 87 a4 06 00
	00		 lea	 eax, DWORD PTR [edi+1700]
  0008a	50		 push	 eax
  0008b	8d 45 f0	 lea	 eax, DWORD PTR _vForceDir$[ebp]
  0008e	50		 push	 eax
  0008f	ff 15 00 00 00
	00		 call	 DWORD PTR __imp_??D@YA?AUD3DXVECTOR3@@ABUD3DXQUATERNION@@ABU0@@Z
  00095	83 c4 0c	 add	 esp, 12			; 0000000cH

; 827  : 	D3DXVec3Normalize( &vForceDir, &vForceDir );

  00098	8d 45 f0	 lea	 eax, DWORD PTR _vForceDir$[ebp]
  0009b	50		 push	 eax
  0009c	50		 push	 eax
  0009d	e8 00 00 00 00	 call	 _D3DXVec3Normalize@8

; 828  : 
; 829  : 	pOwner->SetForcePower( vForceDir, m_fFlashForce, FLOAT1, true );

  000a2	b8 01 00 00 00	 mov	 eax, 1
  000a7	8b d8		 mov	 ebx, eax
  000a9	8d 45 e0	 lea	 eax, DWORD PTR _value$531119[ebp]
  000ac	50		 push	 eax
  000ad	8d 8e 68 01 00
	00		 lea	 ecx, DWORD PTR [esi+360]
  000b3	e8 00 00 00 00	 call	 ?DecryptValueToPool@?$CEncrypt@M@@QAEXPAM@Z ; CEncrypt<float>::DecryptValueToPool
  000b8	89 5d dc	 mov	 DWORD PTR tv165[ebp], ebx
  000bb	db 45 dc	 fild	 DWORD PTR tv165[ebp]
  000be	6a 01		 push	 1
  000c0	85 db		 test	 ebx, ebx
  000c2	79 06		 jns	 SHORT $LN19@SetNewJump@2
  000c4	d8 05 00 00 00
	00		 fadd	 DWORD PTR __real@4f800000
$LN19@SetNewJump@2:
  000ca	f3 0f 10 45 e0	 movss	 xmm0, DWORD PTR _value$531119[ebp]
  000cf	51		 push	 ecx
  000d0	51		 push	 ecx
  000d1	d9 5c 24 04	 fstp	 DWORD PTR [esp+4]
  000d5	8d 45 f0	 lea	 eax, DWORD PTR _vForceDir$[ebp]
  000d8	f3 0f 11 04 24	 movss	 DWORD PTR [esp], xmm0
  000dd	50		 push	 eax
  000de	8b cf		 mov	 ecx, edi
  000e0	e8 00 00 00 00	 call	 ?SetForcePower@ioBaseChar@@QAEXABUD3DXVECTOR3@@MM_N@Z ; ioBaseChar::SetForcePower
$LN2@SetNewJump@2:

; 830  : }

  000e5	8b 4d fc	 mov	 ecx, DWORD PTR __$ArrayPad$[ebp]
  000e8	5f		 pop	 edi
  000e9	5e		 pop	 esi
  000ea	33 cd		 xor	 ecx, ebp
  000ec	5b		 pop	 ebx
  000ed	e8 00 00 00 00	 call	 @__security_check_cookie@4
  000f2	c9		 leave
  000f3	c2 0c 00	 ret	 12			; 0000000cH
?SetNewJumpTypeFlashAttack@ioChargeFlashJump@@IAEXPAVioBaseChar@@KK@Z ENDP ; ioChargeFlashJump::SetNewJumpTypeFlashAttack
_TEXT	ENDS
PUBLIC	?ProcessCharging@ioChargeFlashJump@@IAEXPAVioBaseChar@@@Z ; ioChargeFlashJump::ProcessCharging
EXTRN	?IsAttackKeyDown@ioBaseChar@@QBE_NXZ:PROC	; ioBaseChar::IsAttackKeyDown
; Function compile flags: /Ogsp
;	COMDAT ?ProcessCharging@ioChargeFlashJump@@IAEXPAVioBaseChar@@@Z
_TEXT	SEGMENT
_pOwner$ = 8						; size = 4
?ProcessCharging@ioChargeFlashJump@@IAEXPAVioBaseChar@@@Z PROC ; ioChargeFlashJump::ProcessCharging, COMDAT
; _this$ = ecx

; 882  : {

  00000	55		 push	 ebp
  00001	8b ec		 mov	 ebp, esp
  00003	56		 push	 esi

; 883  : 	if( !pOwner ) return;

  00004	8b 75 08	 mov	 esi, DWORD PTR _pOwner$[ebp]
  00007	57		 push	 edi
  00008	8b f9		 mov	 edi, ecx
  0000a	85 f6		 test	 esi, esi
  0000c	74 53		 je	 SHORT $LN1@ProcessCha

; 884  : 	if( !pOwner->IsNeedProcess() )

  0000e	8b 06		 mov	 eax, DWORD PTR [esi]
  00010	8b ce		 mov	 ecx, esi
  00012	ff 90 00 01 00
	00		 call	 DWORD PTR [eax+256]
  00018	84 c0		 test	 al, al
  0001a	74 45		 je	 SHORT $LN1@ProcessCha

; 885  : 		return;
; 886  : 
; 887  : 	ioEntityGroup *pGrp = pOwner->GetGroup();
; 888  : 	if( !pGrp ) return;

  0001c	83 7e 04 00	 cmp	 DWORD PTR [esi+4], 0
  00020	74 3f		 je	 SHORT $LN1@ProcessCha

; 889  : 
; 890  : 	DWORD dwCurTime = FRAMEGETTIME();

  00022	53		 push	 ebx
  00023	ff 15 00 00 00
	00		 call	 DWORD PTR __imp_?GetSingleton@ioFrameTimer@@SAAAV1@XZ
  00029	8b c8		 mov	 ecx, eax
  0002b	ff 15 00 00 00
	00		 call	 DWORD PTR __imp_?GetLoopSec@ioFrameTimer@@QBEKXZ

; 891  : 	if( pOwner->IsAttackKeyDown() )

  00031	8b ce		 mov	 ecx, esi
  00033	8b d8		 mov	 ebx, eax
  00035	e8 00 00 00 00	 call	 ?IsAttackKeyDown@ioBaseChar@@QBE_NXZ ; ioBaseChar::IsAttackKeyDown
  0003a	84 c0		 test	 al, al
  0003c	74 1a		 je	 SHORT $LN3@ProcessCha

; 892  : 	{
; 893  : 		if( m_dwChargingStartTime+m_dwChargingTime < dwCurTime )

  0003e	8b 87 d4 01 00
	00		 mov	 eax, DWORD PTR [edi+468]
  00044	03 87 d0 01 00
	00		 add	 eax, DWORD PTR [edi+464]
  0004a	3b c3		 cmp	 eax, ebx
  0004c	73 12		 jae	 SHORT $LN11@ProcessCha

; 894  : 		{
; 895  : 			ChangeToPowerChargeJumpAttack( pOwner );

  0004e	56		 push	 esi
  0004f	8b cf		 mov	 ecx, edi
  00051	e8 00 00 00 00	 call	 ?ChangeToPowerChargeJumpAttack@ioChargeFlashJump@@IAEXPAVioBaseChar@@@Z ; ioChargeFlashJump::ChangeToPowerChargeJumpAttack

; 896  : 			return;

  00056	eb 08		 jmp	 SHORT $LN11@ProcessCha
$LN3@ProcessCha:

; 897  : 		}
; 898  : 	}
; 899  : 	else
; 900  : 	{
; 901  : 		SetFlashJumpAttack( pOwner );

  00058	56		 push	 esi
  00059	8b cf		 mov	 ecx, edi
  0005b	e8 00 00 00 00	 call	 ?SetFlashJumpAttack@ioChargeFlashJump@@QAE_NPAVioBaseChar@@@Z ; ioChargeFlashJump::SetFlashJumpAttack
$LN11@ProcessCha:
  00060	5b		 pop	 ebx
$LN1@ProcessCha:
  00061	5f		 pop	 edi
  00062	5e		 pop	 esi

; 902  : 		return;
; 903  : 	}
; 904  : }

  00063	5d		 pop	 ebp
  00064	c2 04 00	 ret	 4
?ProcessCharging@ioChargeFlashJump@@IAEXPAVioBaseChar@@@Z ENDP ; ioChargeFlashJump::ProcessCharging
_TEXT	ENDS
PUBLIC	?IsCanDash@ioChargeFlashJump@@IAE_NPAVioBaseChar@@M@Z ; ioChargeFlashJump::IsCanDash
EXTRN	?IsCanJumpAttackEnableTime@ioBaseChar@@QAE_NXZ:PROC ; ioBaseChar::IsCanJumpAttackEnableTime
; Function compile flags: /Ogsp
;	COMDAT ?IsCanDash@ioChargeFlashJump@@IAE_NPAVioBaseChar@@M@Z
_TEXT	SEGMENT
_pOwner$ = 8						; size = 4
_value$531146 = 11					; size = 1
_fHeightGap$ = 12					; size = 4
?IsCanDash@ioChargeFlashJump@@IAE_NPAVioBaseChar@@M@Z PROC ; ioChargeFlashJump::IsCanDash, COMDAT
; _this$ = ecx

; 966  : {

  00000	55		 push	 ebp
  00001	8b ec		 mov	 ebp, esp
  00003	53		 push	 ebx
  00004	56		 push	 esi

; 967  : 	if( !pOwner ) return false;

  00005	8b 75 08	 mov	 esi, DWORD PTR _pOwner$[ebp]
  00008	33 db		 xor	 ebx, ebx
  0000a	57		 push	 edi
  0000b	8b f9		 mov	 edi, ecx
  0000d	3b f3		 cmp	 esi, ebx
  0000f	0f 84 b2 00 00
	00		 je	 $LN9@IsCanDash

; 968  : 	if( !pOwner->IsNeedProcess() ) return false;

  00015	8b 06		 mov	 eax, DWORD PTR [esi]
  00017	8b ce		 mov	 ecx, esi
  00019	ff 90 00 01 00
	00		 call	 DWORD PTR [eax+256]
  0001f	84 c0		 test	 al, al
  00021	0f 84 a0 00 00
	00		 je	 $LN9@IsCanDash

; 969  : 
; 970  : 	if( pOwner->IsHasCrown() ||
; 971  : 		pOwner->IsCatchMode() ||
; 972  : 		pOwner->IsPrisonerMode() ||
; 973  : 		(pOwner->GetUsedBuffJump() != BJUT_NONE) ||
; 974  : 		(pOwner->GetUsedBuffMultiFlyJump() != BJUT_NONE && pOwner->GetUsedBuffMultiFlyJump() != BJUT_USED) ||
; 975  : 		(pOwner->GetUsedBuffFlyJump() != BJUT_NONE) )

  00027	8b ce		 mov	 ecx, esi
  00029	e8 00 00 00 00	 call	 ?IsHasCrown@ioBaseChar@@QBE_NXZ ; ioBaseChar::IsHasCrown
  0002e	84 c0		 test	 al, al
  00030	0f 85 91 00 00
	00		 jne	 $LN9@IsCanDash
  00036	38 9e 78 23 00
	00		 cmp	 BYTE PTR [esi+9080], bl
  0003c	0f 85 85 00 00
	00		 jne	 $LN9@IsCanDash
  00042	8d 45 0b	 lea	 eax, DWORD PTR _value$531146[ebp]
  00045	50		 push	 eax
  00046	8d 8e cc 14 00
	00		 lea	 ecx, DWORD PTR [esi+5324]
  0004c	e8 00 00 00 00	 call	 ?DecryptValueToPool@?$CEncrypt@_N@@QAEXPA_N@Z ; CEncrypt<bool>::DecryptValueToPool
  00051	38 5d 0b	 cmp	 BYTE PTR _value$531146[ebp], bl
  00054	75 71		 jne	 SHORT $LN9@IsCanDash
  00056	39 9e ac 0e 00
	00		 cmp	 DWORD PTR [esi+3756], ebx
  0005c	75 69		 jne	 SHORT $LN9@IsCanDash
  0005e	8b 86 b4 0e 00
	00		 mov	 eax, DWORD PTR [esi+3764]
  00064	3b c3		 cmp	 eax, ebx
  00066	74 05		 je	 SHORT $LN8@IsCanDash
  00068	83 f8 03	 cmp	 eax, 3
  0006b	75 5a		 jne	 SHORT $LN9@IsCanDash
$LN8@IsCanDash:
  0006d	39 9e b0 0e 00
	00		 cmp	 DWORD PTR [esi+3760], ebx
  00073	75 52		 jne	 SHORT $LN9@IsCanDash

; 977  : 
; 978  : 	if( pOwner->IsChatModeState( true ) )

  00075	6a 01		 push	 1
  00077	8b ce		 mov	 ecx, esi
  00079	e8 00 00 00 00	 call	 ?IsChatModeState@ioBaseChar@@QBE_N_N@Z ; ioBaseChar::IsChatModeState
  0007e	84 c0		 test	 al, al

; 979  : 		return false;

  00080	75 45		 jne	 SHORT $LN9@IsCanDash

; 980  : 
; 981  : 	if( pOwner->IsBuffLimitExtendJump() )

  00082	8b ce		 mov	 ecx, esi
  00084	e8 00 00 00 00	 call	 ?IsBuffLimitExtendJump@ioBaseChar@@QBE_NXZ ; ioBaseChar::IsBuffLimitExtendJump
  00089	84 c0		 test	 al, al

; 982  : 		return false;

  0008b	75 3a		 jne	 SHORT $LN9@IsCanDash

; 983  : 
; 984  : 	if( pOwner->HasBuff(BT_AIR_ATTACK) )

  0008d	6a 46		 push	 70			; 00000046H
  0008f	8b ce		 mov	 ecx, esi
  00091	e8 00 00 00 00	 call	 ?HasBuff@ioBaseChar@@QBE_NH@Z ; ioBaseChar::HasBuff
  00096	84 c0		 test	 al, al

; 985  : 		return false;

  00098	75 2d		 jne	 SHORT $LN9@IsCanDash

; 986  : 
; 987  : 	if( m_FlashJumpState != FJS_NONE )

  0009a	39 9f 24 01 00
	00		 cmp	 DWORD PTR [edi+292], ebx

; 988  : 		return false;

  000a0	75 25		 jne	 SHORT $LN9@IsCanDash

; 989  : 
; 990  : 	if( !pOwner->IsCanJumpAttackEnableTime() )

  000a2	8b ce		 mov	 ecx, esi
  000a4	e8 00 00 00 00	 call	 ?IsCanJumpAttackEnableTime@ioBaseChar@@QAE_NXZ ; ioBaseChar::IsCanJumpAttackEnableTime
  000a9	84 c0		 test	 al, al

; 991  : 		return false;

  000ab	74 1a		 je	 SHORT $LN9@IsCanDash

; 992  : 
; 993  : 	DWORD dwMoveStartTime = pOwner->GetJumpMoveStartTime();
; 994  : 	if( dwMoveStartTime == 0 ) return false;

  000ad	39 9e 80 0e 00
	00		 cmp	 DWORD PTR [esi+3712], ebx
  000b3	74 12		 je	 SHORT $LN9@IsCanDash

; 995  : 
; 996  : 	if( !pOwner->IsDirKeyDoubleClick() )

  000b5	8d 8e 80 0c 00
	00		 lea	 ecx, DWORD PTR [esi+3200]
  000bb	e8 00 00 00 00	 call	 ?IsDirDoubleClick@ioUserKeyInput@@QBE_NXZ ; ioUserKeyInput::IsDirDoubleClick
  000c0	84 c0		 test	 al, al
  000c2	0f 95 c0	 setne	 al

; 997  : 		return false;
; 998  : 
; 999  : 	return true;

  000c5	eb 02		 jmp	 SHORT $LN13@IsCanDash
$LN9@IsCanDash:

; 976  : 		return false;

  000c7	32 c0		 xor	 al, al
$LN13@IsCanDash:
  000c9	5f		 pop	 edi
  000ca	5e		 pop	 esi
  000cb	5b		 pop	 ebx

; 1000 : }

  000cc	5d		 pop	 ebp
  000cd	c2 08 00	 ret	 8
?IsCanDash@ioChargeFlashJump@@IAE_NPAVioBaseChar@@M@Z ENDP ; ioChargeFlashJump::IsCanDash
_TEXT	ENDS
PUBLIC	_pOwner$GSCopy$
PUBLIC	__$ArrayPad$
PUBLIC	?SetDash@ioChargeFlashJump@@IAEXPAVioBaseChar@@M@Z ; ioChargeFlashJump::SetDash
EXTRN	?SetReservedSliding@ioBaseChar@@QAEXABV?$vector@UForceInfo@@V?$allocator@UForceInfo@@@std@@@std@@HMKM_N@Z:PROC ; ioBaseChar::SetReservedSliding
EXTRN	?CheckCharColSkipTime@ioBaseChar@@QAEXHMK@Z:PROC ; ioBaseChar::CheckCharColSkipTime
EXTRN	?ChangeDirectionByInputDir@ioBaseChar@@QAE_N_N0@Z:PROC ; ioBaseChar::ChangeDirectionByInputDir
;	COMDAT xdata$x
; File d:\lost saga for developer\youtube\tutorial\source\src\lsclient\iobasechar.h
xdata$x	SEGMENT
__ehfuncinfo$?SetDash@ioChargeFlashJump@@IAEXPAVioBaseChar@@M@Z DD 019930522H
	DD	06H
	DD	FLAT:__unwindtable$?SetDash@ioChargeFlashJump@@IAEXPAVioBaseChar@@M@Z
	DD	2 DUP(00H)
	DD	2 DUP(00H)
	DD	00H
	DD	01H
__unwindtable$?SetDash@ioChargeFlashJump@@IAEXPAVioBaseChar@@M@Z DD 0ffffffffH
	DD	FLAT:__unwindfunclet$?SetDash@ioChargeFlashJump@@IAEXPAVioBaseChar@@M@Z$0
	DD	0ffffffffH
	DD	FLAT:__unwindfunclet$?SetDash@ioChargeFlashJump@@IAEXPAVioBaseChar@@M@Z$2
	DD	01H
	DD	FLAT:__unwindfunclet$?SetDash@ioChargeFlashJump@@IAEXPAVioBaseChar@@M@Z$3
	DD	02H
	DD	FLAT:__unwindfunclet$?SetDash@ioChargeFlashJump@@IAEXPAVioBaseChar@@M@Z$4
	DD	0ffffffffH
	DD	FLAT:__unwindfunclet$?SetDash@ioChargeFlashJump@@IAEXPAVioBaseChar@@M@Z$6
	DD	0ffffffffH
	DD	FLAT:__unwindfunclet$?SetDash@ioChargeFlashJump@@IAEXPAVioBaseChar@@M@Z$5
; Function compile flags: /Ogsp
; File d:\lost saga for developer\youtube\tutorial\source\src\lsclient\iochargeflashjump.cpp
xdata$x	ENDS
;	COMDAT ?SetDash@ioChargeFlashJump@@IAEXPAVioBaseChar@@M@Z
_TEXT	SEGMENT
$T531176 = -32904					; size = 16
$T531326 = -32888					; size = 16
$T531175 = -32888					; size = 16
tv1283 = -32872						; size = 4
$T531232 = -32872					; size = 4
$T531174 = -32872					; size = 4
_dwCurTime$ = -32868					; size = 4
_dwPreDelay$ = -32864					; size = 4
tv1263 = -32860						; size = 4
tv1246 = -32860						; size = 4
tv1234 = -32860						; size = 4
$T531325 = -32860					; size = 4
_dwEndDelay$ = -32860					; size = 4
_pGrp$ = -32856						; size = 4
_iAniID$ = -32852					; size = 4
_fTimeRate$ = -32848					; size = 4
tv1305 = -32844						; size = 4
tv1300 = -32844						; size = 4
tv1281 = -32844						; size = 4
$T531236 = -32844					; size = 4
_dwKeyReserveTime$ = -32844				; size = 4
$T531173 = -32844					; size = 4
tv1292 = -32840						; size = 4
tv1290 = -32840						; size = 4
tv1287 = -32840						; size = 4
tv1285 = -32840						; size = 4
_pOwner$GSCopy$ = -32840				; size = 4
_value$531211 = -32840					; size = 4
_value$531201 = -32840					; size = 4
_kPacket$524500 = -32836				; size = 32792
_vMoveDir$ = -44					; size = 12
_szEncEventType$531255 = -32				; size = 11
$T531177 = -32						; size = 16
__$ArrayPad$ = -16					; size = 4
__$EHRec$ = -12						; size = 12
_pOwner$ = 8						; size = 4
_fHeightGap$ = 12					; size = 4
?SetDash@ioChargeFlashJump@@IAEXPAVioBaseChar@@M@Z PROC	; ioChargeFlashJump::SetDash, COMDAT
; _this$ = ecx

; 1003 : {

  00000	55		 push	 ebp
  00001	8b ec		 mov	 ebp, esp
  00003	6a ff		 push	 -1
  00005	68 00 00 00 00	 push	 __ehhandler$?SetDash@ioChargeFlashJump@@IAEXPAVioBaseChar@@M@Z
  0000a	64 a1 00 00 00
	00		 mov	 eax, DWORD PTR fs:0
  00010	50		 push	 eax
  00011	b8 7c 80 00 00	 mov	 eax, 32892		; 0000807cH
  00016	e8 00 00 00 00	 call	 __chkstk
  0001b	a1 00 00 00 00	 mov	 eax, DWORD PTR ___security_cookie
  00020	33 c5		 xor	 eax, ebp
  00022	89 45 f0	 mov	 DWORD PTR __$ArrayPad$[ebp], eax
  00025	53		 push	 ebx
  00026	56		 push	 esi
  00027	57		 push	 edi
  00028	50		 push	 eax
  00029	8d 45 f4	 lea	 eax, DWORD PTR __$EHRec$[ebp]
  0002c	64 a3 00 00 00
	00		 mov	 DWORD PTR fs:0, eax
  00032	8b 75 08	 mov	 esi, DWORD PTR _pOwner$[ebp]

; 1004 : 	ioEntityGroup *pGrp = pOwner->GetGroup();

  00035	8b 46 04	 mov	 eax, DWORD PTR [esi+4]
  00038	8b d9		 mov	 ebx, ecx
  0003a	89 b5 b8 7f ff
	ff		 mov	 DWORD PTR _pOwner$GSCopy$[ebp], esi
  00040	89 85 a8 7f ff
	ff		 mov	 DWORD PTR _pGrp$[ebp], eax

; 1005 : 
; 1006 : 	DWORD dwCurTime = FRAMEGETTIME();

  00046	ff 15 00 00 00
	00		 call	 DWORD PTR __imp_?GetSingleton@ioFrameTimer@@SAAAV1@XZ
  0004c	8b c8		 mov	 ecx, eax
  0004e	ff 15 00 00 00
	00		 call	 DWORD PTR __imp_?GetLoopSec@ioFrameTimer@@QBEKXZ

; 1007 : 	D3DXVECTOR3 vMoveDir = pOwner->GetMoveDir();
; 1008 : 
; 1009 : 	int iAniID = pGrp->GetAnimationIdx( m_DashJumpAttack.m_AttackAnimation );

  00054	8b 8d a8 7f ff
	ff		 mov	 ecx, DWORD PTR _pGrp$[ebp]
  0005a	81 c6 b4 06 00
	00		 add	 esi, 1716		; 000006b4H
  00060	8d 7d d4	 lea	 edi, DWORD PTR _vMoveDir$[ebp]
  00063	a5		 movsd
  00064	a5		 movsd
  00065	89 85 9c 7f ff
	ff		 mov	 DWORD PTR _dwCurTime$[ebp], eax
  0006b	8d 83 d4 02 00
	00		 lea	 eax, DWORD PTR [ebx+724]
  00071	50		 push	 eax
  00072	a5		 movsd
  00073	ff 15 00 00 00
	00		 call	 DWORD PTR __imp_?GetAnimationIdx@ioEntityGroup@@QAEHABVioHashString@@@Z

; 1010 : 	float fTimeRate = m_DashJumpAttack.m_fAttackAniRate;

  00079	f3 0f 10 83 e4
	02 00 00	 movss	 xmm0, DWORD PTR [ebx+740]

; 1011 : 	DWORD dwPreDelay = m_DashJumpAttack.m_dwPreDelay;
; 1012 : 	DWORD dwEndDelay = m_DashJumpAttack.m_dwEndDelay;
; 1013 : 
; 1014 : 	m_bUseExtendJump = true;
; 1015 : 
; 1016 : 	pOwner->SetCurJumpPowerAmt( 0.0f );

  00081	8b b5 b8 7f ff
	ff		 mov	 esi, DWORD PTR _pOwner$GSCopy$[ebp]
  00087	89 85 ac 7f ff
	ff		 mov	 DWORD PTR _iAniID$[ebp], eax
  0008d	8b 83 1c 03 00
	00		 mov	 eax, DWORD PTR [ebx+796]
  00093	89 85 a0 7f ff
	ff		 mov	 DWORD PTR _dwPreDelay$[ebp], eax
  00099	8b 83 20 03 00
	00		 mov	 eax, DWORD PTR [ebx+800]
  0009f	89 85 a4 7f ff
	ff		 mov	 DWORD PTR _dwEndDelay$[ebp], eax

; 1017 : 	pOwner->SetForcePowerAmt( 0.0f );

  000a5	8d 85 b8 7f ff
	ff		 lea	 eax, DWORD PTR _value$531201[ebp]
  000ab	f3 0f 11 85 b0
	7f ff ff	 movss	 DWORD PTR _fTimeRate$[ebp], xmm0
  000b3	0f 57 c0	 xorps	 xmm0, xmm0
  000b6	c6 43 10 01	 mov	 BYTE PTR [ebx+16], 1
  000ba	50		 push	 eax
  000bb	8d 8e 88 0b 00
	00		 lea	 ecx, DWORD PTR [esi+2952]
  000c1	f3 0f 11 86 90
	0e 00 00	 movss	 DWORD PTR [esi+3728], xmm0
  000c9	f3 0f 11 85 b8
	7f ff ff	 movss	 DWORD PTR _value$531201[ebp], xmm0
  000d1	e8 00 00 00 00	 call	 ?EncryptValueToPool@?$CEncrypt@M@@AAEXPBD@Z ; CEncrypt<float>::EncryptValueToPool

; 1018 : 	pOwner->SetGravityAmt( 0.0f );

  000d6	0f 57 c0	 xorps	 xmm0, xmm0
  000d9	8d 85 b8 7f ff
	ff		 lea	 eax, DWORD PTR _value$531211[ebp]
  000df	50		 push	 eax
  000e0	8d 8e e8 0b 00
	00		 lea	 ecx, DWORD PTR [esi+3048]
  000e6	f3 0f 11 85 b8
	7f ff ff	 movss	 DWORD PTR _value$531211[ebp], xmm0
  000ee	e8 00 00 00 00	 call	 ?EncryptValueToPool@?$CEncrypt@M@@AAEXPBD@Z ; CEncrypt<float>::EncryptValueToPool

; 1019 : 
; 1020 : 	pOwner->SetEnableHide( false );

  000f3	8b 3d 00 00 00
	00		 mov	 edi, DWORD PTR __imp_??0ioHashString@@QAE@PBD@Z
  000f9	83 ec 10	 sub	 esp, 16			; 00000010H
  000fc	8b cc		 mov	 ecx, esp
  000fe	89 a5 b4 7f ff
	ff		 mov	 DWORD PTR $T531173[ebp], esp
  00104	68 00 00 00 00	 push	 OFFSET ??_C@_00CNPNBAHC@?$AA@
  00109	ff d7		 call	 edi
  0010b	83 65 fc 00	 and	 DWORD PTR __$EHRec$[ebp+8], 0
  0010f	83 ec 10	 sub	 esp, 16			; 00000010H
  00112	8b cc		 mov	 ecx, esp
  00114	89 a5 98 7f ff
	ff		 mov	 DWORD PTR $T531174[ebp], esp
  0011a	68 00 00 00 00	 push	 OFFSET ??_C@_00CNPNBAHC@?$AA@
  0011f	ff d7		 call	 edi
  00121	83 4d fc ff	 or	 DWORD PTR __$EHRec$[ebp+8], -1
  00125	6a 00		 push	 0
  00127	8b ce		 mov	 ecx, esi
  00129	e8 00 00 00 00	 call	 ?SetEnableHide@ioBaseChar@@QAEX_NVioHashString@@1@Z ; ioBaseChar::SetEnableHide

; 1021 : 	pOwner->SetEnableChangeTeam( false );

  0012e	6a 00		 push	 0
  00130	8b ce		 mov	 ecx, esi
  00132	e8 00 00 00 00	 call	 ?SetEnableChangeTeam@ioBaseChar@@QAEX_N@Z ; ioBaseChar::SetEnableChangeTeam

; 1022 : 	pOwner->SetChangeJumpMotion( false, "", "", "", 0.0f );

  00137	68 00 00 00 00	 push	 OFFSET ??_C@_00CNPNBAHC@?$AA@
  0013c	8d 8d 88 7f ff
	ff		 lea	 ecx, DWORD PTR $T531175[ebp]
  00142	ff d7		 call	 edi
  00144	68 00 00 00 00	 push	 OFFSET ??_C@_00CNPNBAHC@?$AA@
  00149	8d 8d 78 7f ff
	ff		 lea	 ecx, DWORD PTR $T531176[ebp]
  0014f	c7 45 fc 01 00
	00 00		 mov	 DWORD PTR __$EHRec$[ebp+8], 1
  00156	ff d7		 call	 edi
  00158	68 00 00 00 00	 push	 OFFSET ??_C@_00CNPNBAHC@?$AA@
  0015d	8d 4d e0	 lea	 ecx, DWORD PTR $T531177[ebp]
  00160	c6 45 fc 02	 mov	 BYTE PTR __$EHRec$[ebp+8], 2
  00164	ff d7		 call	 edi
  00166	0f 57 c0	 xorps	 xmm0, xmm0
  00169	51		 push	 ecx
  0016a	8d 85 88 7f ff
	ff		 lea	 eax, DWORD PTR $T531175[ebp]
  00170	f3 0f 11 04 24	 movss	 DWORD PTR [esp], xmm0
  00175	50		 push	 eax
  00176	c6 45 fc 03	 mov	 BYTE PTR __$EHRec$[ebp+8], 3
  0017a	8d 85 78 7f ff
	ff		 lea	 eax, DWORD PTR $T531176[ebp]
  00180	50		 push	 eax
  00181	8d 45 e0	 lea	 eax, DWORD PTR $T531177[ebp]
  00184	50		 push	 eax
  00185	6a 00		 push	 0
  00187	8b ce		 mov	 ecx, esi
  00189	e8 00 00 00 00	 call	 ?SetChangeJumpMotion@ioBaseChar@@QAEX_NABVioHashString@@11M@Z ; ioBaseChar::SetChangeJumpMotion
  0018e	8d 4d e0	 lea	 ecx, DWORD PTR $T531177[ebp]
  00191	c6 45 fc 02	 mov	 BYTE PTR __$EHRec$[ebp+8], 2
  00195	ff 15 00 00 00
	00		 call	 DWORD PTR __imp_??1ioHashString@@QAE@XZ
  0019b	8d 8d 78 7f ff
	ff		 lea	 ecx, DWORD PTR $T531176[ebp]
  001a1	c6 45 fc 01	 mov	 BYTE PTR __$EHRec$[ebp+8], 1
  001a5	ff 15 00 00 00
	00		 call	 DWORD PTR __imp_??1ioHashString@@QAE@XZ
  001ab	83 4d fc ff	 or	 DWORD PTR __$EHRec$[ebp+8], -1
  001af	8d 8d 88 7f ff
	ff		 lea	 ecx, DWORD PTR $T531175[ebp]
  001b5	ff 15 00 00 00
	00		 call	 DWORD PTR __imp_??1ioHashString@@QAE@XZ

; 1023 : 
; 1024 : 	pOwner->ChangeDirectionByInputDir( false );

  001bb	6a 01		 push	 1
  001bd	6a 00		 push	 0
  001bf	8b ce		 mov	 ecx, esi
  001c1	e8 00 00 00 00	 call	 ?ChangeDirectionByInputDir@ioBaseChar@@QAE_N_N0@Z ; ioBaseChar::ChangeDirectionByInputDir

; 1025 : 
; 1026 : 	pGrp->ClearAllActionAni( FLOAT100, true );

  001c6	b8 64 00 00 00	 mov	 eax, 100		; 00000064H
  001cb	89 85 b4 7f ff
	ff		 mov	 DWORD PTR tv1305[ebp], eax
  001d1	db 85 b4 7f ff
	ff		 fild	 DWORD PTR tv1305[ebp]
  001d7	6a 01		 push	 1
  001d9	85 c0		 test	 eax, eax
  001db	79 06		 jns	 SHORT $LN155@SetDash
  001dd	d8 05 00 00 00
	00		 fadd	 DWORD PTR __real@4f800000
$LN155@SetDash:
  001e3	51		 push	 ecx
  001e4	8b 8d a8 7f ff
	ff		 mov	 ecx, DWORD PTR _pGrp$[ebp]
  001ea	d9 1c 24	 fstp	 DWORD PTR [esp]
  001ed	ff 15 00 00 00
	00		 call	 DWORD PTR __imp_?ClearAllActionAni@ioEntityGroup@@QAEXM_N@Z

; 1027 : 	pGrp->ClearAllLoopAni( FLOAT100, true );

  001f3	b8 64 00 00 00	 mov	 eax, 100		; 00000064H
  001f8	89 85 b4 7f ff
	ff		 mov	 DWORD PTR tv1300[ebp], eax
  001fe	db 85 b4 7f ff
	ff		 fild	 DWORD PTR tv1300[ebp]
  00204	6a 01		 push	 1
  00206	85 c0		 test	 eax, eax
  00208	79 06		 jns	 SHORT $LN156@SetDash
  0020a	d8 05 00 00 00
	00		 fadd	 DWORD PTR __real@4f800000
$LN156@SetDash:
  00210	51		 push	 ecx
  00211	8b 8d a8 7f ff
	ff		 mov	 ecx, DWORD PTR _pGrp$[ebp]
  00217	d9 1c 24	 fstp	 DWORD PTR [esp]
  0021a	ff 15 00 00 00
	00		 call	 DWORD PTR __imp_?ClearAllLoopAni@ioEntityGroup@@QAEXM_N@Z

; 1028 : 
; 1029 : 	pOwner->SetAutoTarget( ATT_JUMP );

  00220	6a 03		 push	 3
  00222	8b ce		 mov	 ecx, esi
  00224	e8 00 00 00 00	 call	 ?SetAutoTarget@ioBaseChar@@QAEXW4AutoTargetType@@@Z ; ioBaseChar::SetAutoTarget

; 1030 : 	pGrp->SetActionAni( iAniID, FLOAT100, FLOAT100, FLOAT1, FLOAT1/fTimeRate, 0.0f, dwPreDelay, true );

  00229	b8 01 00 00 00	 mov	 eax, 1
  0022e	8b c8		 mov	 ecx, eax
  00230	b8 01 00 00 00	 mov	 eax, 1
  00235	8b d0		 mov	 edx, eax
  00237	b8 64 00 00 00	 mov	 eax, 100		; 00000064H
  0023c	89 85 98 7f ff
	ff		 mov	 DWORD PTR $T531232[ebp], eax
  00242	b8 64 00 00 00	 mov	 eax, 100		; 00000064H
  00247	db 85 a0 7f ff
	ff		 fild	 DWORD PTR _dwPreDelay$[ebp]
  0024d	89 85 b4 7f ff
	ff		 mov	 DWORD PTR $T531236[ebp], eax
  00253	8b 85 a0 7f ff
	ff		 mov	 eax, DWORD PTR _dwPreDelay$[ebp]
  00259	6a 01		 push	 1
  0025b	6a 01		 push	 1
  0025d	85 c0		 test	 eax, eax
  0025f	79 06		 jns	 SHORT $LN157@SetDash
  00261	d8 05 00 00 00
	00		 fadd	 DWORD PTR __real@4f800000
$LN157@SetDash:
  00267	0f 57 c0	 xorps	 xmm0, xmm0
  0026a	83 ec 18	 sub	 esp, 24			; 00000018H
  0026d	d9 5c 24 14	 fstp	 DWORD PTR [esp+20]
  00271	89 8d b8 7f ff
	ff		 mov	 DWORD PTR tv1290[ebp], ecx
  00277	db 85 b8 7f ff
	ff		 fild	 DWORD PTR tv1290[ebp]
  0027d	f3 0f 11 44 24
	10		 movss	 DWORD PTR [esp+16], xmm0
  00283	85 c9		 test	 ecx, ecx
  00285	79 06		 jns	 SHORT $LN158@SetDash
  00287	d8 05 00 00 00
	00		 fadd	 DWORD PTR __real@4f800000
$LN158@SetDash:
  0028d	d8 b5 b0 7f ff
	ff		 fdiv	 DWORD PTR _fTimeRate$[ebp]
  00293	d9 9d b8 7f ff
	ff		 fstp	 DWORD PTR tv1287[ebp]
  00299	d9 85 b8 7f ff
	ff		 fld	 DWORD PTR tv1287[ebp]
  0029f	d9 5c 24 0c	 fstp	 DWORD PTR [esp+12]
  002a3	89 95 b8 7f ff
	ff		 mov	 DWORD PTR tv1285[ebp], edx
  002a9	db 85 b8 7f ff
	ff		 fild	 DWORD PTR tv1285[ebp]
  002af	85 d2		 test	 edx, edx
  002b1	79 06		 jns	 SHORT $LN159@SetDash
  002b3	d8 05 00 00 00
	00		 fadd	 DWORD PTR __real@4f800000
$LN159@SetDash:
  002b9	8b 85 98 7f ff
	ff		 mov	 eax, DWORD PTR $T531232[ebp]
  002bf	d9 5c 24 08	 fstp	 DWORD PTR [esp+8]
  002c3	db 85 98 7f ff
	ff		 fild	 DWORD PTR $T531232[ebp]
  002c9	85 c0		 test	 eax, eax
  002cb	79 06		 jns	 SHORT $LN160@SetDash
  002cd	d8 05 00 00 00
	00		 fadd	 DWORD PTR __real@4f800000
$LN160@SetDash:
  002d3	8b 85 b4 7f ff
	ff		 mov	 eax, DWORD PTR $T531236[ebp]
  002d9	d9 5c 24 04	 fstp	 DWORD PTR [esp+4]
  002dd	db 85 b4 7f ff
	ff		 fild	 DWORD PTR $T531236[ebp]
  002e3	85 c0		 test	 eax, eax
  002e5	79 06		 jns	 SHORT $LN161@SetDash
  002e7	d8 05 00 00 00
	00		 fadd	 DWORD PTR __real@4f800000
$LN161@SetDash:
  002ed	8b 8d a8 7f ff
	ff		 mov	 ecx, DWORD PTR _pGrp$[ebp]
  002f3	d9 1c 24	 fstp	 DWORD PTR [esp]
  002f6	ff b5 ac 7f ff
	ff		 push	 DWORD PTR _iAniID$[ebp]
  002fc	ff 15 00 00 00
	00		 call	 DWORD PTR __imp_?SetActionAni@ioEntityGroup@@QAE_NHMMMMMM_N0@Z

; 1031 : 
; 1032 : 	pOwner->RefreshFireTimeList( iAniID,
; 1033 : 								 m_DashJumpAttack.m_vWeaponInfoList,
; 1034 : 								 FTT_JUMP_ATTACK,
; 1035 : 								 fTimeRate,
; 1036 : 								 dwPreDelay );

  00302	f3 0f 10 85 b0
	7f ff ff	 movss	 xmm0, DWORD PTR _fTimeRate$[ebp]
  0030a	6a 00		 push	 0
  0030c	ff b5 a0 7f ff
	ff		 push	 DWORD PTR _dwPreDelay$[ebp]
  00312	8d 83 fc 02 00
	00		 lea	 eax, DWORD PTR [ebx+764]
  00318	51		 push	 ecx
  00319	f3 0f 11 04 24	 movss	 DWORD PTR [esp], xmm0
  0031e	6a 03		 push	 3
  00320	50		 push	 eax
  00321	ff b5 ac 7f ff
	ff		 push	 DWORD PTR _iAniID$[ebp]
  00327	8b ce		 mov	 ecx, esi
  00329	e8 00 00 00 00	 call	 ?RefreshFireTimeList@ioBaseChar@@QAEXHABV?$vector@UWeaponInfo@@V?$allocator@UWeaponInfo@@@std@@@std@@W4FireTimeType@@MK_N@Z ; ioBaseChar::RefreshFireTimeList

; 1037 : 
; 1038 : 	pOwner->IncreaseWeaponIndexBase();

  0032e	8b ce		 mov	 ecx, esi
  00330	e8 00 00 00 00	 call	 ?IncreaseWeaponIndexBase@ioBaseChar@@QAEKXZ ; ioBaseChar::IncreaseWeaponIndexBase

; 1039 : 	//
; 1040 : 	m_dwDashStartTime = dwCurTime;

  00335	8b 85 9c 7f ff
	ff		 mov	 eax, DWORD PTR _dwCurTime$[ebp]

; 1041 : 	m_dwDashEndTime = dwCurTime + dwPreDelay + dwEndDelay + pGrp->GetAnimationFullTime( iAniID ) * fTimeRate;

  0033b	ff b5 ac 7f ff
	ff		 push	 DWORD PTR _iAniID$[ebp]
  00341	8b 8d a8 7f ff
	ff		 mov	 ecx, DWORD PTR _pGrp$[ebp]
  00347	89 83 28 03 00
	00		 mov	 DWORD PTR [ebx+808], eax
  0034d	ff 15 00 00 00
	00		 call	 DWORD PTR __imp_?GetAnimationFullTime@ioEntityGroup@@QAEMH@Z
  00353	d8 8d b0 7f ff
	ff		 fmul	 DWORD PTR _fTimeRate$[ebp]
  00359	8b 85 a4 7f ff
	ff		 mov	 eax, DWORD PTR _dwEndDelay$[ebp]
  0035f	8b 8d a0 7f ff
	ff		 mov	 ecx, DWORD PTR _dwPreDelay$[ebp]
  00365	03 c1		 add	 eax, ecx
  00367	03 85 9c 7f ff
	ff		 add	 eax, DWORD PTR _dwCurTime$[ebp]
  0036d	89 85 a4 7f ff
	ff		 mov	 DWORD PTR tv1263[ebp], eax
  00373	db 85 a4 7f ff
	ff		 fild	 DWORD PTR tv1263[ebp]
  00379	79 06		 jns	 SHORT $LN162@SetDash
  0037b	d8 05 00 00 00
	00		 fadd	 DWORD PTR __real@4f800000
$LN162@SetDash:
  00381	de c1		 faddp	 ST(1), ST(0)
  00383	e8 00 00 00 00	 call	 __ftol2

; 1042 : 
; 1043 : 	pOwner->CheckCharColSkipTime( iAniID, fTimeRate, dwPreDelay );

  00388	ff b5 a0 7f ff
	ff		 push	 DWORD PTR _dwPreDelay$[ebp]
  0038e	f3 0f 10 85 b0
	7f ff ff	 movss	 xmm0, DWORD PTR _fTimeRate$[ebp]
  00396	51		 push	 ecx
  00397	f3 0f 11 04 24	 movss	 DWORD PTR [esp], xmm0
  0039c	ff b5 ac 7f ff
	ff		 push	 DWORD PTR _iAniID$[ebp]
  003a2	8b ce		 mov	 ecx, esi
  003a4	89 83 2c 03 00
	00		 mov	 DWORD PTR [ebx+812], eax
  003aa	e8 00 00 00 00	 call	 ?CheckCharColSkipTime@ioBaseChar@@QAEXHMK@Z ; ioBaseChar::CheckCharColSkipTime

; 1044 : 
; 1045 : 	pOwner->SetReservedSliding( m_DashJumpAttack.m_vForceInfoList, iAniID, fTimeRate, dwPreDelay );

  003af	f3 0f 10 05 00
	00 00 00	 movss	 xmm0, DWORD PTR __real@3f800000
  003b7	6a 01		 push	 1
  003b9	51		 push	 ecx
  003ba	f3 0f 11 04 24	 movss	 DWORD PTR [esp], xmm0
  003bf	ff b5 a0 7f ff
	ff		 push	 DWORD PTR _dwPreDelay$[ebp]
  003c5	f3 0f 10 85 b0
	7f ff ff	 movss	 xmm0, DWORD PTR _fTimeRate$[ebp]
  003cd	51		 push	 ecx
  003ce	f3 0f 11 04 24	 movss	 DWORD PTR [esp], xmm0
  003d3	ff b5 ac 7f ff
	ff		 push	 DWORD PTR _iAniID$[ebp]
  003d9	8d 83 0c 03 00
	00		 lea	 eax, DWORD PTR [ebx+780]
  003df	50		 push	 eax
  003e0	8b ce		 mov	 ecx, esi
  003e2	e8 00 00 00 00	 call	 ?SetReservedSliding@ioBaseChar@@QAEXABV?$vector@UForceInfo@@V?$allocator@UForceInfo@@@std@@@std@@HMKM_N@Z ; ioBaseChar::SetReservedSliding

; 1046 : 
; 1047 : 	DWORD dwKeyReserveTime = dwCurTime + CheckKeyReserveTime( pOwner, iAniID, fTimeRate );

  003e7	f3 0f 10 85 b0
	7f ff ff	 movss	 xmm0, DWORD PTR _fTimeRate$[ebp]
  003ef	8b 03		 mov	 eax, DWORD PTR [ebx]
  003f1	6a 00		 push	 0
  003f3	51		 push	 ecx
  003f4	f3 0f 11 04 24	 movss	 DWORD PTR [esp], xmm0
  003f9	ff b5 ac 7f ff
	ff		 push	 DWORD PTR _iAniID$[ebp]
  003ff	8b cb		 mov	 ecx, ebx
  00401	56		 push	 esi
  00402	ff 90 84 00 00
	00		 call	 DWORD PTR [eax+132]
  00408	db 85 9c 7f ff
	ff		 fild	 DWORD PTR _dwCurTime$[ebp]
  0040e	8b 85 9c 7f ff
	ff		 mov	 eax, DWORD PTR _dwCurTime$[ebp]
  00414	85 c0		 test	 eax, eax
  00416	79 06		 jns	 SHORT $LN163@SetDash
  00418	d8 05 00 00 00
	00		 fadd	 DWORD PTR __real@4f800000
$LN163@SetDash:
  0041e	de c1		 faddp	 ST(1), ST(0)
  00420	e8 00 00 00 00	 call	 __ftol2

; 1048 : 
; 1049 : 	DWORD dwTrackingTime = dwCurTime;
; 1050 : 	dwTrackingTime += pGrp->GetAnimationEventTime_e( iAniID, "tracking_e" ) * fTimeRate;

  00425	6a 02		 push	 2
  00427	89 85 b4 7f ff
	ff		 mov	 DWORD PTR _dwKeyReserveTime$[ebp], eax
  0042d	c7 45 e0 99 9e
	8a 89		 mov	 DWORD PTR _szEncEventType$531255[ebp], -1987404135 ; 898a9e99H
  00434	c7 45 e4 86 85
	85 8d		 mov	 DWORD PTR _szEncEventType$531255[ebp+4], -1920629370 ; 8d858586H
  0043b	66 c7 45 e8 b2
	89		 mov	 WORD PTR _szEncEventType$531255[ebp+8], 35250 ; 000089b2H
  00441	8d 45 e0	 lea	 eax, DWORD PTR _szEncEventType$531255[ebp]
  00444	c6 45 ea 00	 mov	 BYTE PTR _szEncEventType$531255[ebp+10], 0
  00448	59		 pop	 ecx
$LL141@SetDash:
  00449	81 30 ed ec eb
	ea		 xor	 DWORD PTR [eax], -353637139 ; eaebecedH
  0044f	83 c0 04	 add	 eax, 4
  00452	49		 dec	 ecx
  00453	75 f4		 jne	 SHORT $LL141@SetDash
  00455	6a 08		 push	 8
  00457	58		 pop	 eax
$LL138@SetDash:
  00458	8b c8		 mov	 ecx, eax
  0045a	81 e1 03 00 00
	80		 and	 ecx, -2147483645	; 80000003H
  00460	79 05		 jns	 SHORT $LN164@SetDash
  00462	49		 dec	 ecx
  00463	83 c9 fc	 or	 ecx, -4			; fffffffcH
  00466	41		 inc	 ecx
$LN164@SetDash:
  00467	b2 ed		 mov	 dl, -19			; ffffffedH
  00469	2a d1		 sub	 dl, cl
  0046b	30 54 05 e0	 xor	 BYTE PTR _szEncEventType$531255[ebp+eax], dl
  0046f	40		 inc	 eax
  00470	83 f8 0a	 cmp	 eax, 10			; 0000000aH
  00473	7c e3		 jl	 SHORT $LL138@SetDash
  00475	8d 45 e0	 lea	 eax, DWORD PTR _szEncEventType$531255[ebp]
  00478	50		 push	 eax
  00479	8d 8d 88 7f ff
	ff		 lea	 ecx, DWORD PTR $T531326[ebp]
  0047f	ff d7		 call	 edi
  00481	8b 8d a8 7f ff
	ff		 mov	 ecx, DWORD PTR _pGrp$[ebp]
  00487	8d 85 88 7f ff
	ff		 lea	 eax, DWORD PTR $T531326[ebp]
  0048d	50		 push	 eax
  0048e	ff b5 ac 7f ff
	ff		 push	 DWORD PTR _iAniID$[ebp]
  00494	c7 45 fc 04 00
	00 00		 mov	 DWORD PTR __$EHRec$[ebp+8], 4
  0049b	ff 15 00 00 00
	00		 call	 DWORD PTR __imp_?GetAnimationEventTime@ioEntityGroup@@QAEMHABVioHashString@@@Z
  004a1	d9 9d a4 7f ff
	ff		 fstp	 DWORD PTR $T531325[ebp]
  004a7	83 4d fc ff	 or	 DWORD PTR __$EHRec$[ebp+8], -1
  004ab	8d 8d 88 7f ff
	ff		 lea	 ecx, DWORD PTR $T531326[ebp]
  004b1	ff 15 00 00 00
	00		 call	 DWORD PTR __imp_??1ioHashString@@QAE@XZ
  004b7	d9 85 a4 7f ff
	ff		 fld	 DWORD PTR $T531325[ebp]
  004bd	8b 85 9c 7f ff
	ff		 mov	 eax, DWORD PTR _dwCurTime$[ebp]
  004c3	d8 8d b0 7f ff
	ff		 fmul	 DWORD PTR _fTimeRate$[ebp]
  004c9	db 85 9c 7f ff
	ff		 fild	 DWORD PTR _dwCurTime$[ebp]
  004cf	85 c0		 test	 eax, eax
  004d1	79 06		 jns	 SHORT $LN165@SetDash
  004d3	dc 05 00 00 00
	00		 fadd	 QWORD PTR __real@41f0000000000000
$LN165@SetDash:
  004d9	de c1		 faddp	 ST(1), ST(0)
  004db	e8 00 00 00 00	 call	 __ftol2

; 1051 : 	pOwner->SetAutoTargetTrackingEndTime( dwTrackingTime );

  004e0	50		 push	 eax
  004e1	8b ce		 mov	 ecx, esi
  004e3	e8 00 00 00 00	 call	 ?SetAutoTargetTrackingEndTime@ioBaseChar@@QAEXK@Z ; ioBaseChar::SetAutoTargetTrackingEndTime

; 1052 : 
; 1053 : 	m_FlashJumpState = FJS_DASH;

  004e8	c7 83 24 01 00
	00 07 00 00 00	 mov	 DWORD PTR [ebx+292], 7

; 1054 : 
; 1055 : 	if( pOwner->IsNeedSendNetwork() )

  004f2	8b 06		 mov	 eax, DWORD PTR [esi]
  004f4	8b ce		 mov	 ecx, esi
  004f6	ff 90 04 01 00
	00		 call	 DWORD PTR [eax+260]
  004fc	84 c0		 test	 al, al
  004fe	0f 84 ad 00 00
	00		 je	 $LN2@SetDash

; 1056 : 	{
; 1057 : 		SP2Packet kPacket( CUPK_EXTEND_JUMP );

  00504	68 46 41 00 00	 push	 16710			; 00004146H
  00509	8d 8d bc 7f ff
	ff		 lea	 ecx, DWORD PTR _kPacket$524500[ebp]
  0050f	e8 00 00 00 00	 call	 ??0SP2Packet@@QAE@K@Z	; SP2Packet::SP2Packet

; 1058 : 		kPacket << pOwner->GetCharName();

  00514	8d 86 d4 02 00
	00		 lea	 eax, DWORD PTR [esi+724]
  0051a	50		 push	 eax
  0051b	8d 8d bc 7f ff
	ff		 lea	 ecx, DWORD PTR _kPacket$524500[ebp]
  00521	c7 45 fc 05 00
	00 00		 mov	 DWORD PTR __$EHRec$[ebp+8], 5
  00528	e8 00 00 00 00	 call	 ??6SP2Packet@@QAEAAV0@ABVioHashString@@@Z ; SP2Packet::operator<<

; 1059 : 		kPacket << (int)GetType();

  0052d	8b 03		 mov	 eax, DWORD PTR [ebx]
  0052f	8b cb		 mov	 ecx, ebx
  00531	ff 50 08	 call	 DWORD PTR [eax+8]
  00534	50		 push	 eax
  00535	8d 8d bc 7f ff
	ff		 lea	 ecx, DWORD PTR _kPacket$524500[ebp]
  0053b	e8 00 00 00 00	 call	 ??6SP2Packet@@QAEAAV0@H@Z ; SP2Packet::operator<<

; 1060 : 		kPacket << pOwner->GetHP().m_fCurValue;

  00540	8d 86 c0 00 00
	00		 lea	 eax, DWORD PTR [esi+192]
  00546	50		 push	 eax
  00547	8d 8d bc 7f ff
	ff		 lea	 ecx, DWORD PTR _kPacket$524500[ebp]
  0054d	e8 00 00 00 00	 call	 ??6SP2Packet@@QAEAAV0@AAV?$CEncrypt@M@@@Z ; SP2Packet::operator<<

; 1061 : 		kPacket << m_FlashJumpState;

  00552	ff b3 24 01 00
	00		 push	 DWORD PTR [ebx+292]
  00558	8d 8d bc 7f ff
	ff		 lea	 ecx, DWORD PTR _kPacket$524500[ebp]
  0055e	e8 00 00 00 00	 call	 ??6SP2Packet@@QAEAAV0@H@Z ; SP2Packet::operator<<

; 1062 : 
; 1063 : 		kPacket << vMoveDir;

  00563	8d 45 d4	 lea	 eax, DWORD PTR _vMoveDir$[ebp]
  00566	50		 push	 eax
  00567	8d 8d bc 7f ff
	ff		 lea	 ecx, DWORD PTR _kPacket$524500[ebp]
  0056d	e8 00 00 00 00	 call	 ??6SP2Packet@@QAEAAV0@ABUD3DXVECTOR3@@@Z ; SP2Packet::operator<<

; 1064 : 		kPacket << pOwner->GetTargetRot();

  00572	8d 86 a4 06 00
	00		 lea	 eax, DWORD PTR [esi+1700]
  00578	50		 push	 eax
  00579	8d 8d bc 7f ff
	ff		 lea	 ecx, DWORD PTR _kPacket$524500[ebp]
  0057f	e8 00 00 00 00	 call	 ??6SP2Packet@@QAEAAV0@ABUD3DXQUATERNION@@@Z ; SP2Packet::operator<<

; 1065 : 		pOwner->FillAutoTargetInfo( kPacket );

  00584	8d 85 bc 7f ff
	ff		 lea	 eax, DWORD PTR _kPacket$524500[ebp]
  0058a	50		 push	 eax
  0058b	8b ce		 mov	 ecx, esi
  0058d	e8 00 00 00 00	 call	 ?FillAutoTargetInfo@ioBaseChar@@QAEXAAVSP2Packet@@@Z ; ioBaseChar::FillAutoTargetInfo

; 1066 : 		P2PNetwork::SendToAllPlayingUser( kPacket );

  00592	8d 85 bc 7f ff
	ff		 lea	 eax, DWORD PTR _kPacket$524500[ebp]
  00598	6a 00		 push	 0
  0059a	50		 push	 eax
  0059b	e8 00 00 00 00	 call	 ?SendToAllPlayingUser@P2PNetwork@@YAXAAVSP2Packet@@PAVioBaseChar@@@Z ; P2PNetwork::SendToAllPlayingUser

; 1067 : 	}

  005a0	83 4d fc ff	 or	 DWORD PTR __$EHRec$[ebp+8], -1
  005a4	59		 pop	 ecx
  005a5	59		 pop	 ecx
  005a6	8d 8d bc 7f ff
	ff		 lea	 ecx, DWORD PTR _kPacket$524500[ebp]
  005ac	e8 00 00 00 00	 call	 ??1SP2Packet@@UAE@XZ	; SP2Packet::~SP2Packet
$LN2@SetDash:

; 1068 : 
; 1069 : 	if( m_bUseNewJumpTypeDash )

  005b1	80 bb 45 03 00
	00 00		 cmp	 BYTE PTR [ebx+837], 0
  005b8	74 14		 je	 SHORT $LN1@SetDash

; 1070 : 	{
; 1071 : 		SetNewJumpTypeDashAttack( pOwner, m_dwDashEndTime, dwKeyReserveTime );

  005ba	ff b5 b4 7f ff
	ff		 push	 DWORD PTR _dwKeyReserveTime$[ebp]
  005c0	8b cb		 mov	 ecx, ebx
  005c2	ff b3 2c 03 00
	00		 push	 DWORD PTR [ebx+812]
  005c8	56		 push	 esi
  005c9	e8 00 00 00 00	 call	 ?SetNewJumpTypeDashAttack@ioChargeFlashJump@@IAEXPAVioBaseChar@@KK@Z ; ioChargeFlashJump::SetNewJumpTypeDashAttack
$LN1@SetDash:

; 1072 : 		return;
; 1073 : 	}
; 1074 : }

  005ce	8b 4d f4	 mov	 ecx, DWORD PTR __$EHRec$[ebp]
  005d1	64 89 0d 00 00
	00 00		 mov	 DWORD PTR fs:0, ecx
  005d8	59		 pop	 ecx
  005d9	5f		 pop	 edi
  005da	5e		 pop	 esi
  005db	5b		 pop	 ebx
  005dc	8b 4d f0	 mov	 ecx, DWORD PTR __$ArrayPad$[ebp]
  005df	33 cd		 xor	 ecx, ebp
  005e1	e8 00 00 00 00	 call	 @__security_check_cookie@4
  005e6	c9		 leave
  005e7	c2 08 00	 ret	 8
_TEXT	ENDS
;	COMDAT text$x
text$x	SEGMENT
__unwindfunclet$?SetDash@ioChargeFlashJump@@IAEXPAVioBaseChar@@M@Z$0:
  00000	8b 8d b4 7f ff
	ff		 mov	 ecx, DWORD PTR $T531173[ebp]
  00006	ff 25 00 00 00
	00		 jmp	 DWORD PTR __imp_??1ioHashString@@QAE@XZ
__unwindfunclet$?SetDash@ioChargeFlashJump@@IAEXPAVioBaseChar@@M@Z$2:
  0000c	8d 8d 88 7f ff
	ff		 lea	 ecx, DWORD PTR $T531175[ebp]
  00012	ff 25 00 00 00
	00		 jmp	 DWORD PTR __imp_??1ioHashString@@QAE@XZ
__unwindfunclet$?SetDash@ioChargeFlashJump@@IAEXPAVioBaseChar@@M@Z$3:
  00018	8d 8d 78 7f ff
	ff		 lea	 ecx, DWORD PTR $T531176[ebp]
  0001e	ff 25 00 00 00
	00		 jmp	 DWORD PTR __imp_??1ioHashString@@QAE@XZ
__unwindfunclet$?SetDash@ioChargeFlashJump@@IAEXPAVioBaseChar@@M@Z$4:
  00024	8d 4d e0	 lea	 ecx, DWORD PTR $T531177[ebp]
  00027	ff 25 00 00 00
	00		 jmp	 DWORD PTR __imp_??1ioHashString@@QAE@XZ
__unwindfunclet$?SetDash@ioChargeFlashJump@@IAEXPAVioBaseChar@@M@Z$6:
  0002d	8d 8d 88 7f ff
	ff		 lea	 ecx, DWORD PTR $T531326[ebp]
  00033	ff 25 00 00 00
	00		 jmp	 DWORD PTR __imp_??1ioHashString@@QAE@XZ
__unwindfunclet$?SetDash@ioChargeFlashJump@@IAEXPAVioBaseChar@@M@Z$5:
  00039	8d 8d bc 7f ff
	ff		 lea	 ecx, DWORD PTR _kPacket$524500[ebp]
  0003f	e9 00 00 00 00	 jmp	 ??1SP2Packet@@UAE@XZ	; SP2Packet::~SP2Packet
__ehhandler$?SetDash@ioChargeFlashJump@@IAEXPAVioBaseChar@@M@Z:
  00044	8b 54 24 08	 mov	 edx, DWORD PTR [esp+8]
  00048	8d 42 0c	 lea	 eax, DWORD PTR [edx+12]
  0004b	8b 8a 74 7f ff
	ff		 mov	 ecx, DWORD PTR [edx-32908]
  00051	33 c8		 xor	 ecx, eax
  00053	e8 00 00 00 00	 call	 @__security_check_cookie@4
  00058	8b 4a fc	 mov	 ecx, DWORD PTR [edx-4]
  0005b	33 c8		 xor	 ecx, eax
  0005d	e8 00 00 00 00	 call	 @__security_check_cookie@4
  00062	b8 00 00 00 00	 mov	 eax, OFFSET __ehfuncinfo$?SetDash@ioChargeFlashJump@@IAEXPAVioBaseChar@@M@Z
  00067	e9 00 00 00 00	 jmp	 ___CxxFrameHandler3
text$x	ENDS
?SetDash@ioChargeFlashJump@@IAEXPAVioBaseChar@@M@Z ENDP	; ioChargeFlashJump::SetDash
PUBLIC	?_Grow_to@?$vector@VioHashString@@V?$allocator@VioHashString@@@std@@@std@@IBEII@Z ; std::vector<ioHashString,std::allocator<ioHashString> >::_Grow_to
; Function compile flags: /Ogsp
; File c:\program files (x86)\microsoft visual studio 10.0\vc\include\vector
;	COMDAT ?_Grow_to@?$vector@VioHashString@@V?$allocator@VioHashString@@@std@@@std@@IBEII@Z
_TEXT	SEGMENT
__Count$ = 8						; size = 4
?_Grow_to@?$vector@VioHashString@@V?$allocator@VioHashString@@@std@@@std@@IBEII@Z PROC ; std::vector<ioHashString,std::allocator<ioHashString> >::_Grow_to, COMDAT
; _this$ = ecx

; 1274 : 		{	// grow by 50% or at least to _Count

  00000	55		 push	 ebp
  00001	8b ec		 mov	 ebp, esp

; 1275 : 		size_type _Capacity = capacity();

  00003	8b 41 08	 mov	 eax, DWORD PTR [ecx+8]
  00006	2b 01		 sub	 eax, DWORD PTR [ecx]

; 1276 : 
; 1277 : 		_Capacity = max_size() - _Capacity / 2 < _Capacity
; 1278 : 			? 0 : _Capacity + _Capacity / 2;	// try to grow by 50%

  00008	ba ff ff ff 0f	 mov	 edx, 268435455		; 0fffffffH
  0000d	c1 f8 04	 sar	 eax, 4
  00010	8b c8		 mov	 ecx, eax
  00012	d1 e9		 shr	 ecx, 1
  00014	2b d1		 sub	 edx, ecx
  00016	3b d0		 cmp	 edx, eax
  00018	73 04		 jae	 SHORT $LN4@Grow_to
  0001a	33 c0		 xor	 eax, eax
  0001c	eb 02		 jmp	 SHORT $LN5@Grow_to
$LN4@Grow_to:
  0001e	03 c1		 add	 eax, ecx
$LN5@Grow_to:

; 1279 : 		if (_Capacity < _Count)

  00020	3b 45 08	 cmp	 eax, DWORD PTR __Count$[ebp]

; 1280 : 			_Capacity = _Count;

  00023	0f 42 45 08	 cmovb	 eax, DWORD PTR __Count$[ebp]

; 1281 : 		return (_Capacity);
; 1282 : 		}

  00027	5d		 pop	 ebp
  00028	c2 04 00	 ret	 4
?_Grow_to@?$vector@VioHashString@@V?$allocator@VioHashString@@@std@@@std@@IBEII@Z ENDP ; std::vector<ioHashString,std::allocator<ioHashString> >::_Grow_to
_TEXT	ENDS
PUBLIC	??$_Cons_val@V?$allocator@UForceInfo@@@std@@UForceInfo@@ABU3@@std@@YAXAAV?$allocator@UForceInfo@@@0@PAUForceInfo@@ABU2@@Z ; std::_Cons_val<std::allocator<ForceInfo>,ForceInfo,ForceInfo const &>
; Function compile flags: /Ogsp
; File c:\program files (x86)\microsoft visual studio 10.0\vc\include\xmemory
;	COMDAT ??$_Cons_val@V?$allocator@UForceInfo@@@std@@UForceInfo@@ABU3@@std@@YAXAAV?$allocator@UForceInfo@@@0@PAUForceInfo@@ABU2@@Z
_TEXT	SEGMENT
__Alval$ = 8						; size = 4
__Pdest$ = 12						; size = 4
__Src$ = 16						; size = 4
??$_Cons_val@V?$allocator@UForceInfo@@@std@@UForceInfo@@ABU3@@std@@YAXAAV?$allocator@UForceInfo@@@0@PAUForceInfo@@ABU2@@Z PROC ; std::_Cons_val<std::allocator<ForceInfo>,ForceInfo,ForceInfo const &>, COMDAT

; 279  : 	{	// construct using allocator

  00000	55		 push	 ebp
  00001	8b ec		 mov	 ebp, esp
  00003	57		 push	 edi

; 280  : 	_Alval.construct(_Pdest, _STD forward<_Ty2>(_Src));

  00004	8b 7d 0c	 mov	 edi, DWORD PTR __Pdest$[ebp]
  00007	85 ff		 test	 edi, edi
  00009	74 08		 je	 SHORT $LN9@Cons_val
  0000b	56		 push	 esi
  0000c	8b 75 10	 mov	 esi, DWORD PTR __Src$[ebp]
  0000f	a5		 movsd
  00010	a5		 movsd
  00011	a5		 movsd
  00012	5e		 pop	 esi
$LN9@Cons_val:
  00013	5f		 pop	 edi

; 281  : 	}

  00014	5d		 pop	 ebp
  00015	c3		 ret	 0
??$_Cons_val@V?$allocator@UForceInfo@@@std@@UForceInfo@@ABU3@@std@@YAXAAV?$allocator@UForceInfo@@@0@PAUForceInfo@@ABU2@@Z ENDP ; std::_Cons_val<std::allocator<ForceInfo>,ForceInfo,ForceInfo const &>
_TEXT	ENDS
PUBLIC	?construct@?$allocator@UWeaponInfo@@@std@@QAEXPAUWeaponInfo@@ABU3@@Z ; std::allocator<WeaponInfo>::construct
; Function compile flags: /Ogsp
;	COMDAT ?construct@?$allocator@UWeaponInfo@@@std@@QAEXPAUWeaponInfo@@ABU3@@Z
_TEXT	SEGMENT
__Ptr$ = 8						; size = 4
__Val$ = 12						; size = 4
?construct@?$allocator@UWeaponInfo@@@std@@QAEXPAUWeaponInfo@@ABU3@@Z PROC ; std::allocator<WeaponInfo>::construct, COMDAT
; _this$ = ecx

; 196  : 		{	// construct object at _Ptr with value _Val

  00000	55		 push	 ebp
  00001	8b ec		 mov	 ebp, esp

; 197  : 		_Construct(_Ptr, _Val);

  00003	ff 75 0c	 push	 DWORD PTR __Val$[ebp]
  00006	ff 75 08	 push	 DWORD PTR __Ptr$[ebp]
  00009	e8 00 00 00 00	 call	 ??$_Construct@UWeaponInfo@@ABU1@@std@@YAXPAUWeaponInfo@@ABU1@@Z ; std::_Construct<WeaponInfo,WeaponInfo const &>
  0000e	59		 pop	 ecx
  0000f	59		 pop	 ecx

; 198  : 		}

  00010	5d		 pop	 ebp
  00011	c2 08 00	 ret	 8
?construct@?$allocator@UWeaponInfo@@@std@@QAEXPAUWeaponInfo@@ABU3@@Z ENDP ; std::allocator<WeaponInfo>::construct
_TEXT	ENDS
PUBLIC	??0?$vector@VioHashString@@V?$allocator@VioHashString@@@std@@@std@@QAE@XZ ; std::vector<ioHashString,std::allocator<ioHashString> >::vector<ioHashString,std::allocator<ioHashString> >
; Function compile flags: /Ogsp
; File c:\program files (x86)\microsoft visual studio 10.0\vc\include\vector
;	COMDAT ??0?$vector@VioHashString@@V?$allocator@VioHashString@@@std@@@std@@QAE@XZ
_TEXT	SEGMENT
??0?$vector@VioHashString@@V?$allocator@VioHashString@@@std@@@std@@QAE@XZ PROC ; std::vector<ioHashString,std::allocator<ioHashString> >::vector<ioHashString,std::allocator<ioHashString> >, COMDAT
; _this$ = ecx

; 507  : 		{	// construct empty vector

  00000	8b c1		 mov	 eax, ecx
  00002	33 c9		 xor	 ecx, ecx
  00004	89 08		 mov	 DWORD PTR [eax], ecx
  00006	89 48 04	 mov	 DWORD PTR [eax+4], ecx
  00009	89 48 08	 mov	 DWORD PTR [eax+8], ecx

; 508  : 		}

  0000c	c3		 ret	 0
??0?$vector@VioHashString@@V?$allocator@VioHashString@@@std@@@std@@QAE@XZ ENDP ; std::vector<ioHashString,std::allocator<ioHashString> >::vector<ioHashString,std::allocator<ioHashString> >
_TEXT	ENDS
PUBLIC	??0?$vector@UWeaponInfo@@V?$allocator@UWeaponInfo@@@std@@@std@@QAE@XZ ; std::vector<WeaponInfo,std::allocator<WeaponInfo> >::vector<WeaponInfo,std::allocator<WeaponInfo> >
; Function compile flags: /Ogsp
;	COMDAT ??0?$vector@UWeaponInfo@@V?$allocator@UWeaponInfo@@@std@@@std@@QAE@XZ
_TEXT	SEGMENT
??0?$vector@UWeaponInfo@@V?$allocator@UWeaponInfo@@@std@@@std@@QAE@XZ PROC ; std::vector<WeaponInfo,std::allocator<WeaponInfo> >::vector<WeaponInfo,std::allocator<WeaponInfo> >, COMDAT
; _this$ = ecx

; 507  : 		{	// construct empty vector

  00000	8b c1		 mov	 eax, ecx
  00002	33 c9		 xor	 ecx, ecx
  00004	89 08		 mov	 DWORD PTR [eax], ecx
  00006	89 48 04	 mov	 DWORD PTR [eax+4], ecx
  00009	89 48 08	 mov	 DWORD PTR [eax+8], ecx

; 508  : 		}

  0000c	c3		 ret	 0
??0?$vector@UWeaponInfo@@V?$allocator@UWeaponInfo@@@std@@@std@@QAE@XZ ENDP ; std::vector<WeaponInfo,std::allocator<WeaponInfo> >::vector<WeaponInfo,std::allocator<WeaponInfo> >
_TEXT	ENDS
PUBLIC	??0?$vector@UForceInfo@@V?$allocator@UForceInfo@@@std@@@std@@QAE@XZ ; std::vector<ForceInfo,std::allocator<ForceInfo> >::vector<ForceInfo,std::allocator<ForceInfo> >
; Function compile flags: /Ogsp
;	COMDAT ??0?$vector@UForceInfo@@V?$allocator@UForceInfo@@@std@@@std@@QAE@XZ
_TEXT	SEGMENT
??0?$vector@UForceInfo@@V?$allocator@UForceInfo@@@std@@@std@@QAE@XZ PROC ; std::vector<ForceInfo,std::allocator<ForceInfo> >::vector<ForceInfo,std::allocator<ForceInfo> >, COMDAT
; _this$ = ecx

; 507  : 		{	// construct empty vector

  00000	8b c1		 mov	 eax, ecx
  00002	33 c9		 xor	 ecx, ecx
  00004	89 08		 mov	 DWORD PTR [eax], ecx
  00006	89 48 04	 mov	 DWORD PTR [eax+4], ecx
  00009	89 48 08	 mov	 DWORD PTR [eax+8], ecx

; 508  : 		}

  0000c	c3		 ret	 0
??0?$vector@UForceInfo@@V?$allocator@UForceInfo@@@std@@@std@@QAE@XZ ENDP ; std::vector<ForceInfo,std::allocator<ForceInfo> >::vector<ForceInfo,std::allocator<ForceInfo> >
_TEXT	ENDS
PUBLIC	??0?$CEncrypt@M@@QAE@ABV0@@Z			; CEncrypt<float>::CEncrypt<float>
;	COMDAT xdata$x
; File d:\lost saga for developer\youtube\tutorial\source\src\lsclient\encryptvalue.h
xdata$x	SEGMENT
__unwindtable$??0?$CEncrypt@M@@QAE@ABV0@@Z DD 0ffffffffH
	DD	FLAT:__unwindfunclet$??0?$CEncrypt@M@@QAE@ABV0@@Z$0
__ehfuncinfo$??0?$CEncrypt@M@@QAE@ABV0@@Z DD 019930522H
	DD	01H
	DD	FLAT:__unwindtable$??0?$CEncrypt@M@@QAE@ABV0@@Z
	DD	2 DUP(00H)
	DD	2 DUP(00H)
	DD	00H
	DD	01H
; Function compile flags: /Ogsp
xdata$x	ENDS
;	COMDAT ??0?$CEncrypt@M@@QAE@ABV0@@Z
_TEXT	SEGMENT
_this$ = -16						; size = 4
__$EHRec$ = -12						; size = 12
_value$531527 = 8					; size = 4
_value$531522 = 8					; size = 4
_inValue$ = 8						; size = 4
??0?$CEncrypt@M@@QAE@ABV0@@Z PROC			; CEncrypt<float>::CEncrypt<float>, COMDAT
; _this$ = ecx

; 120  : 	CEncrypt( const CEncrypt<type> &inValue )   //     

  00000	6a 04		 push	 4
  00002	b8 00 00 00 00	 mov	 eax, __ehhandler$??0?$CEncrypt@M@@QAE@ABV0@@Z
  00007	e8 00 00 00 00	 call	 __EH_prolog3
  0000c	8b f1		 mov	 esi, ecx
  0000e	89 75 f0	 mov	 DWORD PTR _this$[ebp], esi
  00011	8d 4e 0c	 lea	 ecx, DWORD PTR [esi+12]
  00014	c7 06 00 00 00
	00		 mov	 DWORD PTR [esi], OFFSET ??_7?$CEncrypt@M@@6B@
  0001a	e8 00 00 00 00	 call	 ??0ccddaabb@@QAE@XZ	; ccddaabb::ccddaabb
  0001f	83 65 fc 00	 and	 DWORD PTR __$EHRec$[ebp+8], 0

; 121  : 	{
; 122  : 		Init();

  00023	8b ce		 mov	 ecx, esi
  00025	e8 00 00 00 00	 call	 ?Init@?$CEncrypt@M@@AAEXXZ ; CEncrypt<float>::Init

; 123  : 		*this = inValue;

  0002a	8b 4d 08	 mov	 ecx, DWORD PTR _inValue$[ebp]
  0002d	8d 45 08	 lea	 eax, DWORD PTR _value$531522[ebp]
  00030	50		 push	 eax
  00031	e8 00 00 00 00	 call	 ?DecryptValueToPool@?$CEncrypt@M@@QAEXPAM@Z ; CEncrypt<float>::DecryptValueToPool
  00036	f3 0f 10 45 08	 movss	 xmm0, DWORD PTR _value$531522[ebp]
  0003b	8d 45 08	 lea	 eax, DWORD PTR _value$531527[ebp]
  0003e	50		 push	 eax
  0003f	8b ce		 mov	 ecx, esi
  00041	f3 0f 11 45 08	 movss	 DWORD PTR _value$531527[ebp], xmm0
  00046	e8 00 00 00 00	 call	 ?EncryptValueToPool@?$CEncrypt@M@@AAEXPBD@Z ; CEncrypt<float>::EncryptValueToPool

; 124  : 	}

  0004b	8b c6		 mov	 eax, esi
  0004d	e8 00 00 00 00	 call	 __EH_epilog3
  00052	c2 04 00	 ret	 4
_TEXT	ENDS
;	COMDAT text$x
text$x	SEGMENT
__unwindfunclet$??0?$CEncrypt@M@@QAE@ABV0@@Z$0:
  00000	8b 4d f0	 mov	 ecx, DWORD PTR _this$[ebp]
  00003	83 c1 0c	 add	 ecx, 12			; 0000000cH
  00006	e9 00 00 00 00	 jmp	 ??1ccddaabb@@UAE@XZ	; ccddaabb::~ccddaabb
__ehhandler$??0?$CEncrypt@M@@QAE@ABV0@@Z:
  0000b	8b 54 24 08	 mov	 edx, DWORD PTR [esp+8]
  0000f	8d 42 0c	 lea	 eax, DWORD PTR [edx+12]
  00012	8b 4a ec	 mov	 ecx, DWORD PTR [edx-20]
  00015	33 c8		 xor	 ecx, eax
  00017	e8 00 00 00 00	 call	 @__security_check_cookie@4
  0001c	b8 00 00 00 00	 mov	 eax, OFFSET __ehfuncinfo$??0?$CEncrypt@M@@QAE@ABV0@@Z
  00021	e9 00 00 00 00	 jmp	 ___CxxFrameHandler3
text$x	ENDS
??0?$CEncrypt@M@@QAE@ABV0@@Z ENDP			; CEncrypt<float>::CEncrypt<float>
PUBLIC	?_Buy@?$vector@VioHashString@@V?$allocator@VioHashString@@@std@@@std@@IAE_NI@Z ; std::vector<ioHashString,std::allocator<ioHashString> >::_Buy
; Function compile flags: /Ogsp
; File c:\program files (x86)\microsoft visual studio 10.0\vc\include\vector
;	COMDAT ?_Buy@?$vector@VioHashString@@V?$allocator@VioHashString@@@std@@@std@@IAE_NI@Z
_TEXT	SEGMENT
__Capacity$ = 8						; size = 4
?_Buy@?$vector@VioHashString@@V?$allocator@VioHashString@@@std@@@std@@IAE_NI@Z PROC ; std::vector<ioHashString,std::allocator<ioHashString> >::_Buy, COMDAT
; _this$ = ecx

; 1250 : 		{	// allocate array with _Capacity elements

  00000	55		 push	 ebp
  00001	8b ec		 mov	 ebp, esp
  00003	56		 push	 esi

; 1251 : 		this->_Myfirst = 0;

  00004	33 c0		 xor	 eax, eax
  00006	57		 push	 edi

; 1252 : 		this->_Mylast = 0;
; 1253 : 		this->_Myend = 0;
; 1254 : 
; 1255 : 		if (_Capacity == 0)

  00007	8b 7d 08	 mov	 edi, DWORD PTR __Capacity$[ebp]
  0000a	8b f1		 mov	 esi, ecx
  0000c	89 06		 mov	 DWORD PTR [esi], eax
  0000e	89 46 04	 mov	 DWORD PTR [esi+4], eax
  00011	89 46 08	 mov	 DWORD PTR [esi+8], eax
  00014	3b f8		 cmp	 edi, eax
  00016	75 04		 jne	 SHORT $LN4@Buy

; 1256 : 			return (false);

  00018	32 c0		 xor	 al, al
  0001a	eb 2b		 jmp	 SHORT $LN5@Buy
$LN4@Buy:

; 1257 : 		else if (max_size() < _Capacity)

  0001c	81 ff ff ff ff
	0f		 cmp	 edi, 268435455		; 0fffffffH
  00022	76 0b		 jbe	 SHORT $LN2@Buy

; 1258 : 			_Xlen();	// result too long

  00024	68 00 00 00 00	 push	 OFFSET ??_C@_0BD@OLBABOEK@vector?$DMT?$DO?5too?5long?$AA@
  00029	ff 15 00 00 00
	00		 call	 DWORD PTR __imp_?_Xlength_error@std@@YAXPBD@Z
$LN19@Buy:
$LN2@Buy:

; 1259 : 		else
; 1260 : 			{	// nonempty array, allocate storage
; 1261 : 			this->_Myfirst = this->_Alval.allocate(_Capacity);

  0002f	50		 push	 eax
  00030	57		 push	 edi
  00031	e8 00 00 00 00	 call	 ??$_Allocate@VioHashString@@@std@@YAPAVioHashString@@IPAV1@@Z ; std::_Allocate<ioHashString>

; 1262 : 			this->_Mylast = this->_Myfirst;
; 1263 : 			this->_Myend = this->_Myfirst + _Capacity;

  00036	c1 e7 04	 shl	 edi, 4
  00039	03 f8		 add	 edi, eax
  0003b	59		 pop	 ecx
  0003c	89 06		 mov	 DWORD PTR [esi], eax
  0003e	89 46 04	 mov	 DWORD PTR [esi+4], eax
  00041	59		 pop	 ecx
  00042	89 7e 08	 mov	 DWORD PTR [esi+8], edi

; 1264 : 			}
; 1265 : 		return (true);

  00045	b0 01		 mov	 al, 1
$LN5@Buy:
  00047	5f		 pop	 edi
  00048	5e		 pop	 esi

; 1266 : 		}

  00049	5d		 pop	 ebp
  0004a	c2 04 00	 ret	 4
$LN18@Buy:
?_Buy@?$vector@VioHashString@@V?$allocator@VioHashString@@@std@@@std@@IAE_NI@Z ENDP ; std::vector<ioHashString,std::allocator<ioHashString> >::_Buy
_TEXT	ENDS
PUBLIC	??9?$_Vector_const_iterator@V?$_Vector_val@VioHashString@@V?$allocator@VioHashString@@@std@@@std@@@std@@QBE_NABV01@@Z ; std::_Vector_const_iterator<std::_Vector_val<ioHashString,std::allocator<ioHashString> > >::operator!=
; Function compile flags: /Ogsp
;	COMDAT ??9?$_Vector_const_iterator@V?$_Vector_val@VioHashString@@V?$allocator@VioHashString@@@std@@@std@@@std@@QBE_NABV01@@Z
_TEXT	SEGMENT
__Right$ = 8						; size = 4
??9?$_Vector_const_iterator@V?$_Vector_val@VioHashString@@V?$allocator@VioHashString@@@std@@@std@@@std@@QBE_NABV01@@Z PROC ; std::_Vector_const_iterator<std::_Vector_val<ioHashString,std::allocator<ioHashString> > >::operator!=, COMDAT
; _this$ = ecx

; 207  : 		{	// test for iterator inequality

  00000	55		 push	 ebp
  00001	8b ec		 mov	 ebp, esp

; 208  : 		return (!(*this == _Right));

  00003	8b 01		 mov	 eax, DWORD PTR [ecx]
  00005	8b 55 08	 mov	 edx, DWORD PTR __Right$[ebp]
  00008	33 c9		 xor	 ecx, ecx
  0000a	3b 02		 cmp	 eax, DWORD PTR [edx]
  0000c	0f 95 c0	 setne	 al

; 209  : 		}

  0000f	5d		 pop	 ebp
  00010	c2 04 00	 ret	 4
??9?$_Vector_const_iterator@V?$_Vector_val@VioHashString@@V?$allocator@VioHashString@@@std@@@std@@@std@@QBE_NABV01@@Z ENDP ; std::_Vector_const_iterator<std::_Vector_val<ioHashString,std::allocator<ioHashString> > >::operator!=
_TEXT	ENDS
PUBLIC	??$_Move@PAVioHashString@@PAV1@@std@@YAPAVioHashString@@PAV1@00@Z ; std::_Move<ioHashString *,ioHashString *>
; Function compile flags: /Ogsp
; File c:\program files (x86)\microsoft visual studio 10.0\vc\include\xutility
;	COMDAT ??$_Move@PAVioHashString@@PAV1@@std@@YAPAVioHashString@@PAV1@00@Z
_TEXT	SEGMENT
__Cat$531578 = -4					; size = 1
__First$ = 8						; size = 4
__Last$ = 12						; size = 4
__Dest$ = 16						; size = 4
??$_Move@PAVioHashString@@PAV1@@std@@YAPAVioHashString@@PAV1@00@Z PROC ; std::_Move<ioHashString *,ioHashString *>, COMDAT

; 2533 : 	{	// move [_First, _Last) to [_Dest, ...), unchecked

  00000	55		 push	 ebp
  00001	8b ec		 mov	 ebp, esp
  00003	51		 push	 ecx

; 2534 : 	return (_Move(_First, _Last,
; 2535 : 		_Dest, _Ptr_cat(_First, _Dest)));

  00004	ff 75 fc	 push	 DWORD PTR __Cat$531578[ebp]
  00007	ff 75 10	 push	 DWORD PTR __Dest$[ebp]
  0000a	ff 75 0c	 push	 DWORD PTR __Last$[ebp]
  0000d	ff 75 08	 push	 DWORD PTR __First$[ebp]
  00010	e8 00 00 00 00	 call	 ??$_Move@PAVioHashString@@PAV1@@std@@YAPAVioHashString@@PAV1@00U_Nonscalar_ptr_iterator_tag@0@@Z ; std::_Move<ioHashString *,ioHashString *>
  00015	83 c4 10	 add	 esp, 16			; 00000010H

; 2536 : 	}

  00018	c9		 leave
  00019	c3		 ret	 0
??$_Move@PAVioHashString@@PAV1@@std@@YAPAVioHashString@@PAV1@00@Z ENDP ; std::_Move<ioHashString *,ioHashString *>
_TEXT	ENDS
PUBLIC	?_Buy@?$vector@UWeaponInfo@@V?$allocator@UWeaponInfo@@@std@@@std@@IAE_NI@Z ; std::vector<WeaponInfo,std::allocator<WeaponInfo> >::_Buy
; Function compile flags: /Ogsp
; File c:\program files (x86)\microsoft visual studio 10.0\vc\include\vector
;	COMDAT ?_Buy@?$vector@UWeaponInfo@@V?$allocator@UWeaponInfo@@@std@@@std@@IAE_NI@Z
_TEXT	SEGMENT
__Capacity$ = 8						; size = 4
?_Buy@?$vector@UWeaponInfo@@V?$allocator@UWeaponInfo@@@std@@@std@@IAE_NI@Z PROC ; std::vector<WeaponInfo,std::allocator<WeaponInfo> >::_Buy, COMDAT
; _this$ = ecx

; 1250 : 		{	// allocate array with _Capacity elements

  00000	55		 push	 ebp
  00001	8b ec		 mov	 ebp, esp
  00003	56		 push	 esi

; 1251 : 		this->_Myfirst = 0;

  00004	33 c0		 xor	 eax, eax
  00006	57		 push	 edi

; 1252 : 		this->_Mylast = 0;
; 1253 : 		this->_Myend = 0;
; 1254 : 
; 1255 : 		if (_Capacity == 0)

  00007	8b 7d 08	 mov	 edi, DWORD PTR __Capacity$[ebp]
  0000a	8b f1		 mov	 esi, ecx
  0000c	89 06		 mov	 DWORD PTR [esi], eax
  0000e	89 46 04	 mov	 DWORD PTR [esi+4], eax
  00011	89 46 08	 mov	 DWORD PTR [esi+8], eax
  00014	3b f8		 cmp	 edi, eax
  00016	75 04		 jne	 SHORT $LN4@Buy@2

; 1256 : 			return (false);

  00018	32 c0		 xor	 al, al
  0001a	eb 2b		 jmp	 SHORT $LN5@Buy@2
$LN4@Buy@2:

; 1257 : 		else if (max_size() < _Capacity)

  0001c	81 ff 66 66 66
	06		 cmp	 edi, 107374182		; 06666666H
  00022	76 0b		 jbe	 SHORT $LN2@Buy@2

; 1258 : 			_Xlen();	// result too long

  00024	68 00 00 00 00	 push	 OFFSET ??_C@_0BD@OLBABOEK@vector?$DMT?$DO?5too?5long?$AA@
  00029	ff 15 00 00 00
	00		 call	 DWORD PTR __imp_?_Xlength_error@std@@YAXPBD@Z
$LN19@Buy@2:
$LN2@Buy@2:

; 1259 : 		else
; 1260 : 			{	// nonempty array, allocate storage
; 1261 : 			this->_Myfirst = this->_Alval.allocate(_Capacity);

  0002f	50		 push	 eax
  00030	57		 push	 edi
  00031	e8 00 00 00 00	 call	 ??$_Allocate@UWeaponInfo@@@std@@YAPAUWeaponInfo@@IPAU1@@Z ; std::_Allocate<WeaponInfo>

; 1262 : 			this->_Mylast = this->_Myfirst;
; 1263 : 			this->_Myend = this->_Myfirst + _Capacity;

  00036	6b ff 28	 imul	 edi, 40			; 00000028H
  00039	03 f8		 add	 edi, eax
  0003b	59		 pop	 ecx
  0003c	89 06		 mov	 DWORD PTR [esi], eax
  0003e	89 46 04	 mov	 DWORD PTR [esi+4], eax
  00041	59		 pop	 ecx
  00042	89 7e 08	 mov	 DWORD PTR [esi+8], edi

; 1264 : 			}
; 1265 : 		return (true);

  00045	b0 01		 mov	 al, 1
$LN5@Buy@2:
  00047	5f		 pop	 edi
  00048	5e		 pop	 esi

; 1266 : 		}

  00049	5d		 pop	 ebp
  0004a	c2 04 00	 ret	 4
$LN18@Buy@2:
?_Buy@?$vector@UWeaponInfo@@V?$allocator@UWeaponInfo@@@std@@@std@@IAE_NI@Z ENDP ; std::vector<WeaponInfo,std::allocator<WeaponInfo> >::_Buy
_TEXT	ENDS
PUBLIC	?_Buy@?$vector@UForceInfo@@V?$allocator@UForceInfo@@@std@@@std@@IAE_NI@Z ; std::vector<ForceInfo,std::allocator<ForceInfo> >::_Buy
; Function compile flags: /Ogsp
;	COMDAT ?_Buy@?$vector@UForceInfo@@V?$allocator@UForceInfo@@@std@@@std@@IAE_NI@Z
_TEXT	SEGMENT
__Capacity$ = 8						; size = 4
?_Buy@?$vector@UForceInfo@@V?$allocator@UForceInfo@@@std@@@std@@IAE_NI@Z PROC ; std::vector<ForceInfo,std::allocator<ForceInfo> >::_Buy, COMDAT
; _this$ = ecx

; 1250 : 		{	// allocate array with _Capacity elements

  00000	55		 push	 ebp
  00001	8b ec		 mov	 ebp, esp
  00003	56		 push	 esi

; 1251 : 		this->_Myfirst = 0;

  00004	33 c0		 xor	 eax, eax
  00006	57		 push	 edi

; 1252 : 		this->_Mylast = 0;
; 1253 : 		this->_Myend = 0;
; 1254 : 
; 1255 : 		if (_Capacity == 0)

  00007	8b 7d 08	 mov	 edi, DWORD PTR __Capacity$[ebp]
  0000a	8b f1		 mov	 esi, ecx
  0000c	89 06		 mov	 DWORD PTR [esi], eax
  0000e	89 46 04	 mov	 DWORD PTR [esi+4], eax
  00011	89 46 08	 mov	 DWORD PTR [esi+8], eax
  00014	3b f8		 cmp	 edi, eax
  00016	75 04		 jne	 SHORT $LN4@Buy@3

; 1256 : 			return (false);

  00018	32 c0		 xor	 al, al
  0001a	eb 2b		 jmp	 SHORT $LN5@Buy@3
$LN4@Buy@3:

; 1257 : 		else if (max_size() < _Capacity)

  0001c	81 ff 55 55 55
	15		 cmp	 edi, 357913941		; 15555555H
  00022	76 0b		 jbe	 SHORT $LN2@Buy@3

; 1258 : 			_Xlen();	// result too long

  00024	68 00 00 00 00	 push	 OFFSET ??_C@_0BD@OLBABOEK@vector?$DMT?$DO?5too?5long?$AA@
  00029	ff 15 00 00 00
	00		 call	 DWORD PTR __imp_?_Xlength_error@std@@YAXPBD@Z
$LN19@Buy@3:
$LN2@Buy@3:

; 1259 : 		else
; 1260 : 			{	// nonempty array, allocate storage
; 1261 : 			this->_Myfirst = this->_Alval.allocate(_Capacity);

  0002f	50		 push	 eax
  00030	57		 push	 edi
  00031	e8 00 00 00 00	 call	 ??$_Allocate@UForceInfo@@@std@@YAPAUForceInfo@@IPAU1@@Z ; std::_Allocate<ForceInfo>

; 1262 : 			this->_Mylast = this->_Myfirst;
; 1263 : 			this->_Myend = this->_Myfirst + _Capacity;

  00036	6b ff 0c	 imul	 edi, 12			; 0000000cH
  00039	03 f8		 add	 edi, eax
  0003b	59		 pop	 ecx
  0003c	89 06		 mov	 DWORD PTR [esi], eax
  0003e	89 46 04	 mov	 DWORD PTR [esi+4], eax
  00041	59		 pop	 ecx
  00042	89 7e 08	 mov	 DWORD PTR [esi+8], edi

; 1264 : 			}
; 1265 : 		return (true);

  00045	b0 01		 mov	 al, 1
$LN5@Buy@3:
  00047	5f		 pop	 edi
  00048	5e		 pop	 esi

; 1266 : 		}

  00049	5d		 pop	 ebp
  0004a	c2 04 00	 ret	 4
$LN18@Buy@3:
?_Buy@?$vector@UForceInfo@@V?$allocator@UForceInfo@@@std@@@std@@IAE_NI@Z ENDP ; std::vector<ForceInfo,std::allocator<ForceInfo> >::_Buy
_TEXT	ENDS
PUBLIC	??9?$_Vector_const_iterator@V?$_Vector_val@UWeaponInfo@@V?$allocator@UWeaponInfo@@@std@@@std@@@std@@QBE_NABV01@@Z ; std::_Vector_const_iterator<std::_Vector_val<WeaponInfo,std::allocator<WeaponInfo> > >::operator!=
; Function compile flags: /Ogsp
;	COMDAT ??9?$_Vector_const_iterator@V?$_Vector_val@UWeaponInfo@@V?$allocator@UWeaponInfo@@@std@@@std@@@std@@QBE_NABV01@@Z
_TEXT	SEGMENT
__Right$ = 8						; size = 4
??9?$_Vector_const_iterator@V?$_Vector_val@UWeaponInfo@@V?$allocator@UWeaponInfo@@@std@@@std@@@std@@QBE_NABV01@@Z PROC ; std::_Vector_const_iterator<std::_Vector_val<WeaponInfo,std::allocator<WeaponInfo> > >::operator!=, COMDAT
; _this$ = ecx

; 207  : 		{	// test for iterator inequality

  00000	55		 push	 ebp
  00001	8b ec		 mov	 ebp, esp

; 208  : 		return (!(*this == _Right));

  00003	8b 01		 mov	 eax, DWORD PTR [ecx]
  00005	8b 55 08	 mov	 edx, DWORD PTR __Right$[ebp]
  00008	33 c9		 xor	 ecx, ecx
  0000a	3b 02		 cmp	 eax, DWORD PTR [edx]
  0000c	0f 95 c0	 setne	 al

; 209  : 		}

  0000f	5d		 pop	 ebp
  00010	c2 04 00	 ret	 4
??9?$_Vector_const_iterator@V?$_Vector_val@UWeaponInfo@@V?$allocator@UWeaponInfo@@@std@@@std@@@std@@QBE_NABV01@@Z ENDP ; std::_Vector_const_iterator<std::_Vector_val<WeaponInfo,std::allocator<WeaponInfo> > >::operator!=
_TEXT	ENDS
PUBLIC	??9?$_Vector_const_iterator@V?$_Vector_val@UForceInfo@@V?$allocator@UForceInfo@@@std@@@std@@@std@@QBE_NABV01@@Z ; std::_Vector_const_iterator<std::_Vector_val<ForceInfo,std::allocator<ForceInfo> > >::operator!=
; Function compile flags: /Ogsp
;	COMDAT ??9?$_Vector_const_iterator@V?$_Vector_val@UForceInfo@@V?$allocator@UForceInfo@@@std@@@std@@@std@@QBE_NABV01@@Z
_TEXT	SEGMENT
__Right$ = 8						; size = 4
??9?$_Vector_const_iterator@V?$_Vector_val@UForceInfo@@V?$allocator@UForceInfo@@@std@@@std@@@std@@QBE_NABV01@@Z PROC ; std::_Vector_const_iterator<std::_Vector_val<ForceInfo,std::allocator<ForceInfo> > >::operator!=, COMDAT
; _this$ = ecx

; 207  : 		{	// test for iterator inequality

  00000	55		 push	 ebp
  00001	8b ec		 mov	 ebp, esp

; 208  : 		return (!(*this == _Right));

  00003	8b 01		 mov	 eax, DWORD PTR [ecx]
  00005	8b 55 08	 mov	 edx, DWORD PTR __Right$[ebp]
  00008	33 c9		 xor	 ecx, ecx
  0000a	3b 02		 cmp	 eax, DWORD PTR [edx]
  0000c	0f 95 c0	 setne	 al

; 209  : 		}

  0000f	5d		 pop	 ebp
  00010	c2 04 00	 ret	 4
??9?$_Vector_const_iterator@V?$_Vector_val@UForceInfo@@V?$allocator@UForceInfo@@@std@@@std@@@std@@QBE_NABV01@@Z ENDP ; std::_Vector_const_iterator<std::_Vector_val<ForceInfo,std::allocator<ForceInfo> > >::operator!=
_TEXT	ENDS
PUBLIC	??$_Dest_val@V?$allocator@UForceInfo@@@std@@UForceInfo@@@std@@YAXAAV?$allocator@UForceInfo@@@0@PAUForceInfo@@@Z ; std::_Dest_val<std::allocator<ForceInfo>,ForceInfo>
; Function compile flags: /Ogsp
; File c:\program files (x86)\microsoft visual studio 10.0\vc\include\xmemory
;	COMDAT ??$_Dest_val@V?$allocator@UForceInfo@@@std@@UForceInfo@@@std@@YAXAAV?$allocator@UForceInfo@@@0@PAUForceInfo@@@Z
_TEXT	SEGMENT
__Alval$ = 8						; size = 4
__Pdest$ = 12						; size = 4
??$_Dest_val@V?$allocator@UForceInfo@@@std@@UForceInfo@@@std@@YAXAAV?$allocator@UForceInfo@@@0@PAUForceInfo@@@Z PROC ; std::_Dest_val<std::allocator<ForceInfo>,ForceInfo>, COMDAT

; 287  : 	_Alval.destroy(_Pdest);
; 288  : 	}

  00000	c3		 ret	 0
??$_Dest_val@V?$allocator@UForceInfo@@@std@@UForceInfo@@@std@@YAXAAV?$allocator@UForceInfo@@@0@PAUForceInfo@@@Z ENDP ; std::_Dest_val<std::allocator<ForceInfo>,ForceInfo>
_TEXT	ENDS
PUBLIC	?destroy@?$allocator@VioHashString@@@std@@QAEXPAVioHashString@@@Z ; std::allocator<ioHashString>::destroy
; Function compile flags: /Ogsp
;	COMDAT ?destroy@?$allocator@VioHashString@@@std@@QAEXPAVioHashString@@@Z
_TEXT	SEGMENT
__Ptr$ = 8						; size = 4
?destroy@?$allocator@VioHashString@@@std@@QAEXPAVioHashString@@@Z PROC ; std::allocator<ioHashString>::destroy, COMDAT
; _this$ = ecx

; 212  : 		{	// destroy object at _Ptr

  00000	55		 push	 ebp
  00001	8b ec		 mov	 ebp, esp

; 213  : 		_Destroy(_Ptr);

  00003	8b 4d 08	 mov	 ecx, DWORD PTR __Ptr$[ebp]
  00006	ff 15 00 00 00
	00		 call	 DWORD PTR __imp_??1ioHashString@@QAE@XZ

; 214  : 		}

  0000c	5d		 pop	 ebp
  0000d	c2 04 00	 ret	 4
?destroy@?$allocator@VioHashString@@@std@@QAEXPAVioHashString@@@Z ENDP ; std::allocator<ioHashString>::destroy
_TEXT	ENDS
PUBLIC	?destroy@?$allocator@UWeaponInfo@@@std@@QAEXPAUWeaponInfo@@@Z ; std::allocator<WeaponInfo>::destroy
; Function compile flags: /Ogsp
;	COMDAT ?destroy@?$allocator@UWeaponInfo@@@std@@QAEXPAUWeaponInfo@@@Z
_TEXT	SEGMENT
__Ptr$ = 8						; size = 4
?destroy@?$allocator@UWeaponInfo@@@std@@QAEXPAUWeaponInfo@@@Z PROC ; std::allocator<WeaponInfo>::destroy, COMDAT
; _this$ = ecx

; 212  : 		{	// destroy object at _Ptr

  00000	55		 push	 ebp
  00001	8b ec		 mov	 ebp, esp

; 213  : 		_Destroy(_Ptr);

  00003	8b 4d 08	 mov	 ecx, DWORD PTR __Ptr$[ebp]
  00006	83 c1 08	 add	 ecx, 8
  00009	ff 15 00 00 00
	00		 call	 DWORD PTR __imp_??1ioHashString@@QAE@XZ

; 214  : 		}

  0000f	5d		 pop	 ebp
  00010	c2 04 00	 ret	 4
?destroy@?$allocator@UWeaponInfo@@@std@@QAEXPAUWeaponInfo@@@Z ENDP ; std::allocator<WeaponInfo>::destroy
_TEXT	ENDS
PUBLIC	??$_Cons_val@V?$allocator@VioHashString@@@std@@VioHashString@@ABV3@@std@@YAXAAV?$allocator@VioHashString@@@0@PAVioHashString@@ABV2@@Z ; std::_Cons_val<std::allocator<ioHashString>,ioHashString,ioHashString const &>
; Function compile flags: /Ogsp
;	COMDAT ??$_Cons_val@V?$allocator@VioHashString@@@std@@VioHashString@@ABV3@@std@@YAXAAV?$allocator@VioHashString@@@0@PAVioHashString@@ABV2@@Z
_TEXT	SEGMENT
__Alval$ = 8						; size = 4
__Pdest$ = 12						; size = 4
__Src$ = 16						; size = 4
??$_Cons_val@V?$allocator@VioHashString@@@std@@VioHashString@@ABV3@@std@@YAXAAV?$allocator@VioHashString@@@0@PAVioHashString@@ABV2@@Z PROC ; std::_Cons_val<std::allocator<ioHashString>,ioHashString,ioHashString const &>, COMDAT

; 279  : 	{	// construct using allocator

  00000	55		 push	 ebp
  00001	8b ec		 mov	 ebp, esp

; 280  : 	_Alval.construct(_Pdest, _STD forward<_Ty2>(_Src));

  00003	ff 75 10	 push	 DWORD PTR __Src$[ebp]
  00006	ff 75 0c	 push	 DWORD PTR __Pdest$[ebp]
  00009	e8 00 00 00 00	 call	 ??$_Construct@VioHashString@@ABV1@@std@@YAXPAVioHashString@@ABV1@@Z ; std::_Construct<ioHashString,ioHashString const &>
  0000e	59		 pop	 ecx
  0000f	59		 pop	 ecx

; 281  : 	}

  00010	5d		 pop	 ebp
  00011	c3		 ret	 0
??$_Cons_val@V?$allocator@VioHashString@@@std@@VioHashString@@ABV3@@std@@YAXAAV?$allocator@VioHashString@@@0@PAVioHashString@@ABV2@@Z ENDP ; std::_Cons_val<std::allocator<ioHashString>,ioHashString,ioHashString const &>
_TEXT	ENDS
PUBLIC	?ProcessDelay@ioChargeFlashJump@@IAEXPAVioBaseChar@@@Z ; ioChargeFlashJump::ProcessDelay
; Function compile flags: /Ogsp
; File d:\lost saga for developer\youtube\tutorial\source\src\lsclient\iochargeflashjump.cpp
;	COMDAT ?ProcessDelay@ioChargeFlashJump@@IAEXPAVioBaseChar@@@Z
_TEXT	SEGMENT
tv259 = -28						; size = 4
tv233 = -28						; size = 4
_dwEndDelay$524116 = -28				; size = 4
tv303 = -24						; size = 4
tv297 = -24						; size = 4
tv278 = -24						; size = 4
$T531732 = -24						; size = 4
tv280 = -20						; size = 4
$T531728 = -20						; size = 4
tv289 = -16						; size = 4
tv287 = -16						; size = 4
tv284 = -16						; size = 4
tv282 = -16						; size = 4
_dwCurTime$ = -12					; size = 4
_pGrp$ = -8						; size = 4
_fTimeRate$524114 = -4					; size = 4
_pOwner$ = 8						; size = 4
?ProcessDelay@ioChargeFlashJump@@IAEXPAVioBaseChar@@@Z PROC ; ioChargeFlashJump::ProcessDelay, COMDAT
; _this$ = ecx

; 292  : {

  00000	55		 push	 ebp
  00001	8b ec		 mov	 ebp, esp

; 293  : 	if( !pOwner ) return;

  00003	8b 45 08	 mov	 eax, DWORD PTR _pOwner$[ebp]
  00006	83 ec 1c	 sub	 esp, 28			; 0000001cH
  00009	56		 push	 esi
  0000a	8b f1		 mov	 esi, ecx
  0000c	85 c0		 test	 eax, eax
  0000e	0f 84 14 02 00
	00		 je	 $LN1@ProcessDel

; 294  : 
; 295  : 	ioEntityGroup *pGrp = pOwner->GetGroup();

  00014	57		 push	 edi
  00015	8b 78 04	 mov	 edi, DWORD PTR [eax+4]
  00018	89 7d f8	 mov	 DWORD PTR _pGrp$[ebp], edi

; 296  : 	if( !pGrp ) return;

  0001b	85 ff		 test	 edi, edi
  0001d	0f 84 04 02 00
	00		 je	 $LN21@ProcessDel

; 297  : 
; 298  : 	DWORD dwCurTime = FRAMEGETTIME();

  00023	ff 15 00 00 00
	00		 call	 DWORD PTR __imp_?GetSingleton@ioFrameTimer@@SAAAV1@XZ
  00029	8b c8		 mov	 ecx, eax
  0002b	ff 15 00 00 00
	00		 call	 DWORD PTR __imp_?GetLoopSec@ioFrameTimer@@QBEKXZ
  00031	89 45 f4	 mov	 DWORD PTR _dwCurTime$[ebp], eax

; 299  : 
; 300  : 	if( m_dwFlashDelayEndTime > 0 && m_dwFlashDelayEndTime < dwCurTime )

  00034	8b 86 c8 01 00
	00		 mov	 eax, DWORD PTR [esi+456]
  0003a	85 c0		 test	 eax, eax
  0003c	0f 84 e5 01 00
	00		 je	 $LN21@ProcessDel
  00042	3b 45 f4	 cmp	 eax, DWORD PTR _dwCurTime$[ebp]
  00045	0f 83 dc 01 00
	00		 jae	 $LN21@ProcessDel

; 301  : 	{
; 302  : 		m_FlashJumpState = FJS_FLASH;
; 303  : 
; 304  : 		int iAniID = pGrp->GetAnimationIdx( m_FlashJumpAttack.m_AttackAnimation );

  0004b	53		 push	 ebx
  0004c	8d 86 ec 01 00
	00		 lea	 eax, DWORD PTR [esi+492]
  00052	50		 push	 eax
  00053	8b cf		 mov	 ecx, edi
  00055	c7 86 24 01 00
	00 04 00 00 00	 mov	 DWORD PTR [esi+292], 4
  0005f	ff 15 00 00 00
	00		 call	 DWORD PTR __imp_?GetAnimationIdx@ioEntityGroup@@QAEHABVioHashString@@@Z

; 305  : 		float fTimeRate = m_FlashJumpAttack.m_fAttackAniRate;

  00065	d9 86 fc 01 00
	00		 fld	 DWORD PTR [esi+508]

; 306  : 		DWORD dwPreDelay = m_FlashJumpAttack.m_dwPreDelay;

  0006b	8b be 34 02 00
	00		 mov	 edi, DWORD PTR [esi+564]
  00071	d9 5d fc	 fstp	 DWORD PTR _fTimeRate$524114[ebp]
  00074	8b d8		 mov	 ebx, eax

; 307  : 		DWORD dwEndDelay = m_FlashJumpAttack.m_dwEndDelay;

  00076	8b 86 38 02 00
	00		 mov	 eax, DWORD PTR [esi+568]
  0007c	89 45 e4	 mov	 DWORD PTR _dwEndDelay$524116[ebp], eax

; 308  : 
; 309  : 		pGrp->ClearAllActionAni( FLOAT100, true );

  0007f	b8 64 00 00 00	 mov	 eax, 100		; 00000064H
  00084	89 45 e8	 mov	 DWORD PTR tv303[ebp], eax
  00087	db 45 e8	 fild	 DWORD PTR tv303[ebp]
  0008a	6a 01		 push	 1
  0008c	85 c0		 test	 eax, eax
  0008e	79 06		 jns	 SHORT $LN22@ProcessDel
  00090	d8 05 00 00 00
	00		 fadd	 DWORD PTR __real@4f800000
$LN22@ProcessDel:
  00096	51		 push	 ecx
  00097	8b 4d f8	 mov	 ecx, DWORD PTR _pGrp$[ebp]
  0009a	d9 1c 24	 fstp	 DWORD PTR [esp]
  0009d	ff 15 00 00 00
	00		 call	 DWORD PTR __imp_?ClearAllActionAni@ioEntityGroup@@QAEXM_N@Z

; 310  : 		pGrp->ClearAllLoopAni( FLOAT100, true );

  000a3	b8 64 00 00 00	 mov	 eax, 100		; 00000064H
  000a8	89 45 e8	 mov	 DWORD PTR tv297[ebp], eax
  000ab	db 45 e8	 fild	 DWORD PTR tv297[ebp]
  000ae	6a 01		 push	 1
  000b0	85 c0		 test	 eax, eax
  000b2	79 06		 jns	 SHORT $LN23@ProcessDel
  000b4	d8 05 00 00 00
	00		 fadd	 DWORD PTR __real@4f800000
$LN23@ProcessDel:
  000ba	51		 push	 ecx
  000bb	8b 4d f8	 mov	 ecx, DWORD PTR _pGrp$[ebp]
  000be	d9 1c 24	 fstp	 DWORD PTR [esp]
  000c1	ff 15 00 00 00
	00		 call	 DWORD PTR __imp_?ClearAllLoopAni@ioEntityGroup@@QAEXM_N@Z

; 311  : 
; 312  : 		pGrp->SetActionAni( iAniID, FLOAT100, FLOAT100, FLOAT1, FLOAT1/fTimeRate, 0.0f, dwPreDelay, true );		

  000c7	b8 01 00 00 00	 mov	 eax, 1
  000cc	8b c8		 mov	 ecx, eax
  000ce	b8 01 00 00 00	 mov	 eax, 1
  000d3	8b d0		 mov	 edx, eax
  000d5	b8 64 00 00 00	 mov	 eax, 100		; 00000064H
  000da	89 45 ec	 mov	 DWORD PTR $T531728[ebp], eax
  000dd	b8 64 00 00 00	 mov	 eax, 100		; 00000064H
  000e2	89 45 e8	 mov	 DWORD PTR $T531732[ebp], eax
  000e5	8b c7		 mov	 eax, edi
  000e7	6a 01		 push	 1
  000e9	89 45 f0	 mov	 DWORD PTR tv289[ebp], eax
  000ec	db 45 f0	 fild	 DWORD PTR tv289[ebp]
  000ef	6a 01		 push	 1
  000f1	85 c0		 test	 eax, eax
  000f3	79 06		 jns	 SHORT $LN24@ProcessDel
  000f5	d8 05 00 00 00
	00		 fadd	 DWORD PTR __real@4f800000
$LN24@ProcessDel:
  000fb	0f 57 c0	 xorps	 xmm0, xmm0
  000fe	83 ec 18	 sub	 esp, 24			; 00000018H
  00101	d9 5c 24 14	 fstp	 DWORD PTR [esp+20]
  00105	89 4d f0	 mov	 DWORD PTR tv287[ebp], ecx
  00108	db 45 f0	 fild	 DWORD PTR tv287[ebp]
  0010b	f3 0f 11 44 24
	10		 movss	 DWORD PTR [esp+16], xmm0
  00111	85 c9		 test	 ecx, ecx
  00113	79 06		 jns	 SHORT $LN25@ProcessDel
  00115	d8 05 00 00 00
	00		 fadd	 DWORD PTR __real@4f800000
$LN25@ProcessDel:
  0011b	d8 75 fc	 fdiv	 DWORD PTR _fTimeRate$524114[ebp]
  0011e	d9 5d f0	 fstp	 DWORD PTR tv284[ebp]
  00121	d9 45 f0	 fld	 DWORD PTR tv284[ebp]
  00124	d9 5c 24 0c	 fstp	 DWORD PTR [esp+12]
  00128	89 55 f0	 mov	 DWORD PTR tv282[ebp], edx
  0012b	db 45 f0	 fild	 DWORD PTR tv282[ebp]
  0012e	85 d2		 test	 edx, edx
  00130	79 06		 jns	 SHORT $LN26@ProcessDel
  00132	d8 05 00 00 00
	00		 fadd	 DWORD PTR __real@4f800000
$LN26@ProcessDel:
  00138	8b 45 ec	 mov	 eax, DWORD PTR $T531728[ebp]
  0013b	d9 5c 24 08	 fstp	 DWORD PTR [esp+8]
  0013f	db 45 ec	 fild	 DWORD PTR $T531728[ebp]
  00142	85 c0		 test	 eax, eax
  00144	79 06		 jns	 SHORT $LN27@ProcessDel
  00146	d8 05 00 00 00
	00		 fadd	 DWORD PTR __real@4f800000
$LN27@ProcessDel:
  0014c	8b 45 e8	 mov	 eax, DWORD PTR $T531732[ebp]
  0014f	d9 5c 24 04	 fstp	 DWORD PTR [esp+4]
  00153	db 45 e8	 fild	 DWORD PTR $T531732[ebp]
  00156	85 c0		 test	 eax, eax
  00158	79 06		 jns	 SHORT $LN28@ProcessDel
  0015a	d8 05 00 00 00
	00		 fadd	 DWORD PTR __real@4f800000
$LN28@ProcessDel:
  00160	8b 4d f8	 mov	 ecx, DWORD PTR _pGrp$[ebp]
  00163	d9 1c 24	 fstp	 DWORD PTR [esp]
  00166	53		 push	 ebx
  00167	ff 15 00 00 00
	00		 call	 DWORD PTR __imp_?SetActionAni@ioEntityGroup@@QAE_NHMMMMMM_N0@Z

; 313  : 
; 314  : 		pOwner->RefreshFireTimeList( iAniID,
; 315  : 			m_FlashJumpAttack.m_vWeaponInfoList,
; 316  : 			FTT_JUMP_ATTACK,
; 317  : 			fTimeRate,
; 318  : 			dwPreDelay );

  0016d	f3 0f 10 45 fc	 movss	 xmm0, DWORD PTR _fTimeRate$524114[ebp]
  00172	6a 00		 push	 0
  00174	57		 push	 edi
  00175	51		 push	 ecx
  00176	8b 4d 08	 mov	 ecx, DWORD PTR _pOwner$[ebp]
  00179	f3 0f 11 04 24	 movss	 DWORD PTR [esp], xmm0
  0017e	6a 03		 push	 3
  00180	8d 86 14 02 00
	00		 lea	 eax, DWORD PTR [esi+532]
  00186	50		 push	 eax
  00187	53		 push	 ebx
  00188	e8 00 00 00 00	 call	 ?RefreshFireTimeList@ioBaseChar@@QAEXHABV?$vector@UWeaponInfo@@V?$allocator@UWeaponInfo@@@std@@@std@@W4FireTimeType@@MK_N@Z ; ioBaseChar::RefreshFireTimeList

; 319  : 
; 320  : 		pOwner->IncreaseWeaponIndexBase();

  0018d	8b 4d 08	 mov	 ecx, DWORD PTR _pOwner$[ebp]
  00190	e8 00 00 00 00	 call	 ?IncreaseWeaponIndexBase@ioBaseChar@@QAEKXZ ; ioBaseChar::IncreaseWeaponIndexBase

; 321  : 		//
; 322  : 
; 323  : 		m_dwFlashEndTime = dwCurTime + dwPreDelay + dwEndDelay + pGrp->GetAnimationFullTime( iAniID ) * fTimeRate;

  00195	8b 4d f8	 mov	 ecx, DWORD PTR _pGrp$[ebp]
  00198	53		 push	 ebx
  00199	ff 15 00 00 00
	00		 call	 DWORD PTR __imp_?GetAnimationFullTime@ioEntityGroup@@QAEMH@Z
  0019f	d8 4d fc	 fmul	 DWORD PTR _fTimeRate$524114[ebp]
  001a2	8b 45 e4	 mov	 eax, DWORD PTR _dwEndDelay$524116[ebp]
  001a5	03 c7		 add	 eax, edi
  001a7	03 45 f4	 add	 eax, DWORD PTR _dwCurTime$[ebp]
  001aa	89 45 e4	 mov	 DWORD PTR tv259[ebp], eax
  001ad	db 45 e4	 fild	 DWORD PTR tv259[ebp]
  001b0	79 06		 jns	 SHORT $LN29@ProcessDel
  001b2	d8 05 00 00 00
	00		 fadd	 DWORD PTR __real@4f800000
$LN29@ProcessDel:
  001b8	de c1		 faddp	 ST(1), ST(0)
  001ba	e8 00 00 00 00	 call	 __ftol2

; 324  : 
; 325  : 		pOwner->CheckCharColSkipTime( iAniID, fTimeRate, dwPreDelay );

  001bf	f3 0f 10 45 fc	 movss	 xmm0, DWORD PTR _fTimeRate$524114[ebp]
  001c4	57		 push	 edi
  001c5	51		 push	 ecx
  001c6	8b 4d 08	 mov	 ecx, DWORD PTR _pOwner$[ebp]
  001c9	f3 0f 11 04 24	 movss	 DWORD PTR [esp], xmm0
  001ce	53		 push	 ebx
  001cf	89 86 cc 01 00
	00		 mov	 DWORD PTR [esi+460], eax
  001d5	e8 00 00 00 00	 call	 ?CheckCharColSkipTime@ioBaseChar@@QAEXHMK@Z ; ioBaseChar::CheckCharColSkipTime

; 326  : 
; 327  : 		DWORD dwKeyReserveTime = dwCurTime + CheckKeyReserveTime( pOwner, iAniID, fTimeRate );

  001da	f3 0f 10 45 fc	 movss	 xmm0, DWORD PTR _fTimeRate$524114[ebp]
  001df	8b 06		 mov	 eax, DWORD PTR [esi]
  001e1	6a 00		 push	 0
  001e3	51		 push	 ecx
  001e4	f3 0f 11 04 24	 movss	 DWORD PTR [esp], xmm0
  001e9	53		 push	 ebx
  001ea	ff 75 08	 push	 DWORD PTR _pOwner$[ebp]
  001ed	8b ce		 mov	 ecx, esi
  001ef	ff 90 84 00 00
	00		 call	 DWORD PTR [eax+132]
  001f5	db 45 f4	 fild	 DWORD PTR _dwCurTime$[ebp]
  001f8	8b 45 f4	 mov	 eax, DWORD PTR _dwCurTime$[ebp]
  001fb	85 c0		 test	 eax, eax
  001fd	79 06		 jns	 SHORT $LN30@ProcessDel
  001ff	d8 05 00 00 00
	00		 fadd	 DWORD PTR __real@4f800000
$LN30@ProcessDel:
  00205	de c1		 faddp	 ST(1), ST(0)
  00207	e8 00 00 00 00	 call	 __ftol2

; 328  : 
; 329  : 		if( m_bUseNewJumpTypeFlash )

  0020c	80 be 46 03 00
	00 00		 cmp	 BYTE PTR [esi+838], 0
  00213	5b		 pop	 ebx
  00214	74 11		 je	 SHORT $LN21@ProcessDel

; 330  : 		{
; 331  : 			SetNewJumpTypeFlashAttack( pOwner, m_dwFlashEndTime, dwKeyReserveTime );

  00216	50		 push	 eax
  00217	ff b6 cc 01 00
	00		 push	 DWORD PTR [esi+460]
  0021d	8b ce		 mov	 ecx, esi
  0021f	ff 75 08	 push	 DWORD PTR _pOwner$[ebp]
  00222	e8 00 00 00 00	 call	 ?SetNewJumpTypeFlashAttack@ioChargeFlashJump@@IAEXPAVioBaseChar@@KK@Z ; ioChargeFlashJump::SetNewJumpTypeFlashAttack
$LN21@ProcessDel:
  00227	5f		 pop	 edi
$LN1@ProcessDel:
  00228	5e		 pop	 esi

; 332  : 			return;
; 333  : 		}
; 334  : 	}
; 335  : }

  00229	c9		 leave
  0022a	c2 04 00	 ret	 4
?ProcessDelay@ioChargeFlashJump@@IAEXPAVioBaseChar@@@Z ENDP ; ioChargeFlashJump::ProcessDelay
_TEXT	ENDS
PUBLIC	__mask@@AbsDouble@
PUBLIC	_rkPacket$GSCopy$
PUBLIC	_pOwner$GSCopy$
PUBLIC	?ApplyJump@ioChargeFlashJump@@UAEXPAVioBaseChar@@AAVSP2Packet@@@Z ; ioChargeFlashJump::ApplyJump
EXTRN	?SetJumpAttckTargetRot@ioBaseChar@@QAEXABUD3DXQUATERNION@@ABUD3DXVECTOR3@@1@Z:PROC ; ioBaseChar::SetJumpAttckTargetRot
EXTRN	?SetJumpPower@ioBaseChar@@QAEXM@Z:PROC		; ioBaseChar::SetJumpPower
EXTRN	?SetTargetRot@ioBaseChar@@QAEXABUD3DXQUATERNION@@@Z:PROC ; ioBaseChar::SetTargetRot
EXTRN	??5SP2Packet@@QAEAAV0@AAM@Z:PROC		; SP2Packet::operator>>
EXTRN	?ApplyAutoTargetInfo@ioBaseChar@@QAEXAAVSP2Packet@@@Z:PROC ; ioBaseChar::ApplyAutoTargetInfo
EXTRN	?SetTargetRotAndMoveDirChange@ioBaseChar@@QAEXABUD3DXQUATERNION@@_N@Z:PROC ; ioBaseChar::SetTargetRotAndMoveDirChange
EXTRN	??5SP2Packet@@QAEAAV0@AAUD3DXQUATERNION@@@Z:PROC ; SP2Packet::operator>>
EXTRN	?SetMoveDirection@ioBaseChar@@QAEXABUD3DXVECTOR3@@@Z:PROC ; ioBaseChar::SetMoveDirection
EXTRN	??5SP2Packet@@QAEAAV0@AAUD3DXVECTOR3@@@Z:PROC	; SP2Packet::operator>>
EXTRN	??5SP2Packet@@QAEAAV0@AAH@Z:PROC		; SP2Packet::operator>>
;	COMDAT __mask@@AbsDouble@
; File c:\program files (x86)\microsoft directx sdk (june 2010)\include\d3dx9math.h
CONST	SEGMENT
__mask@@AbsDouble@ DB 0ffH, 0ffH, 0ffH, 0ffH, 0ffH, 0ffH, 0ffH, 07fH, 0ffH
	DB	0ffH, 0ffH, 0ffH, 0ffH, 0ffH, 0ffH, 07fH
CONST	ENDS
;	COMDAT xdata$x
xdata$x	SEGMENT
__ehfuncinfo$?ApplyJump@ioChargeFlashJump@@UAEXPAVioBaseChar@@AAVSP2Packet@@@Z DD 019930522H
	DD	0eH
	DD	FLAT:__unwindtable$?ApplyJump@ioChargeFlashJump@@UAEXPAVioBaseChar@@AAVSP2Packet@@@Z
	DD	2 DUP(00H)
	DD	2 DUP(00H)
	DD	00H
	DD	01H
__unwindtable$?ApplyJump@ioChargeFlashJump@@UAEXPAVioBaseChar@@AAVSP2Packet@@@Z DD 0ffffffffH
	DD	FLAT:__unwindfunclet$?ApplyJump@ioChargeFlashJump@@UAEXPAVioBaseChar@@AAVSP2Packet@@@Z$0
	DD	0ffffffffH
	DD	FLAT:__unwindfunclet$?ApplyJump@ioChargeFlashJump@@UAEXPAVioBaseChar@@AAVSP2Packet@@@Z$2
	DD	01H
	DD	FLAT:__unwindfunclet$?ApplyJump@ioChargeFlashJump@@UAEXPAVioBaseChar@@AAVSP2Packet@@@Z$3
	DD	02H
	DD	FLAT:__unwindfunclet$?ApplyJump@ioChargeFlashJump@@UAEXPAVioBaseChar@@AAVSP2Packet@@@Z$4
	DD	0ffffffffH
	DD	FLAT:__unwindfunclet$?ApplyJump@ioChargeFlashJump@@UAEXPAVioBaseChar@@AAVSP2Packet@@@Z$15
	DD	0ffffffffH
	DD	FLAT:__unwindfunclet$?ApplyJump@ioChargeFlashJump@@UAEXPAVioBaseChar@@AAVSP2Packet@@@Z$5
	DD	0ffffffffH
	DD	FLAT:__unwindfunclet$?ApplyJump@ioChargeFlashJump@@UAEXPAVioBaseChar@@AAVSP2Packet@@@Z$7
	DD	06H
	DD	FLAT:__unwindfunclet$?ApplyJump@ioChargeFlashJump@@UAEXPAVioBaseChar@@AAVSP2Packet@@@Z$8
	DD	07H
	DD	FLAT:__unwindfunclet$?ApplyJump@ioChargeFlashJump@@UAEXPAVioBaseChar@@AAVSP2Packet@@@Z$9
	DD	0ffffffffH
	DD	FLAT:__unwindfunclet$?ApplyJump@ioChargeFlashJump@@UAEXPAVioBaseChar@@AAVSP2Packet@@@Z$16
	DD	0ffffffffH
	DD	FLAT:__unwindfunclet$?ApplyJump@ioChargeFlashJump@@UAEXPAVioBaseChar@@AAVSP2Packet@@@Z$10
	DD	0ffffffffH
	DD	FLAT:__unwindfunclet$?ApplyJump@ioChargeFlashJump@@UAEXPAVioBaseChar@@AAVSP2Packet@@@Z$12
	DD	0bH
	DD	FLAT:__unwindfunclet$?ApplyJump@ioChargeFlashJump@@UAEXPAVioBaseChar@@AAVSP2Packet@@@Z$13
	DD	0cH
	DD	FLAT:__unwindfunclet$?ApplyJump@ioChargeFlashJump@@UAEXPAVioBaseChar@@AAVSP2Packet@@@Z$14
; Function compile flags: /Ogsp
; File d:\lost saga for developer\youtube\tutorial\source\src\lsclient\iochargeflashjump.cpp
xdata$x	ENDS
;	COMDAT ?ApplyJump@ioChargeFlashJump@@UAEXPAVioBaseChar@@AAVSP2Packet@@@Z
_TEXT	SEGMENT
_qtRot$524231 = -332					; size = 16
$T531932 = -316						; size = 16
$T532125 = -300						; size = 16
_qtRot$524184 = -300					; size = 16
_qtRotate$524175 = -300					; size = 16
tv2632 = -284						; size = 4
tv2630 = -284						; size = 4
tv2627 = -284						; size = 4
tv2625 = -284						; size = 4
tv2406 = -284						; size = 4
tv2623 = -280						; size = 4
$T532100 = -280						; size = 4
$T531757 = -280						; size = 4
_iAniID$524160 = -280					; size = 4
_dwCurTime$ = -276					; size = 4
_pOwner$GSCopy$ = -272					; size = 4
_iAniID$524204 = -272					; size = 4
$T531750 = -268						; size = 16
$T531749 = -252						; size = 16
$T531753 = -236						; size = 16
$T531759 = -220						; size = 16
$T531755 = -204						; size = 16
$T531748 = -188						; size = 16
$T531758 = -172						; size = 16
$T531754 = -156						; size = 16
$T531760 = -140						; size = 16
tv2645 = -124						; size = 4
tv2640 = -124						; size = 4
tv2621 = -124						; size = 4
$T532104 = -124						; size = 4
_value$532045 = -124					; size = 4
_value$531897 = -124					; size = 4
$T531801 = -124						; size = 4
_dwKeyReserveTime$524214 = -124				; size = 4
$T531752 = -124						; size = 4
$T531747 = -124						; size = 4
_pGrp$524203 = -120					; size = 4
_iAniID$524190 = -120					; size = 4
_fJumpForce$524174 = -120				; size = 4
_rkPacket$GSCopy$ = -116				; size = 4
_fTimeRate$524205 = -112				; size = 4
_fJumpPower$524173 = -112				; size = 4
_dwDelayTime$ = -112					; size = 4
tv782 = -108						; size = 8
tv2679 = -104						; size = 4
tv2674 = -104						; size = 4
tv2668 = -104						; size = 4
tv2666 = -104						; size = 4
tv2603 = -104						; size = 4
tv2586 = -104						; size = 4
tv2574 = -104						; size = 4
tv2535 = -104						; size = 4
tv2523 = -104						; size = 4
tv2506 = -104						; size = 4
tv2501 = -104						; size = 4
tv2492 = -104						; size = 4
tv2489 = -104						; size = 4
tv2487 = -104						; size = 4
tv2485 = -104						; size = 4
tv2457 = -104						; size = 4
tv2430 = -104						; size = 4
tv2425 = -104						; size = 4
tv2419 = -104						; size = 4
tv2403 = -104						; size = 4
tv2400 = -104						; size = 4
tv2398 = -104						; size = 4
tv2396 = -104						; size = 4
_value$532253 = -104					; size = 4
_value$532243 = -104					; size = 4
$T532124 = -104						; size = 4
_value$532068 = -104					; size = 4
_value$532058 = -104					; size = 4
$T531931 = -104						; size = 4
_value$531910 = -104					; size = 4
$T531893 = -104						; size = 4
_value$531831 = -104					; size = 4
_value$531821 = -104					; size = 4
$T531756 = -104						; size = 4
_dwEndDelay$524207 = -104				; size = 4
$T531751 = -104						; size = 4
$T531746 = -104						; size = 4
_fTimeRate$524161 = -104				; size = 4
_iType$ = -100						; size = 4
_vMoveDir$524232 = -96					; size = 12
_vInputDir$524233 = -84					; size = 12
_vDir$524201 = -72					; size = 12
_vInputDir$524186 = -72					; size = 12
$T524181 = -60						; size = 12
_szEncEventType$532138 = -48				; size = 11
_vMoveDir$524185 = -48					; size = 12
_vJumpDir$524177 = -48					; size = 12
_szEncEventType$531945 = -32				; size = 11
_qtRotate$524202 = -32					; size = 16
_qtRot$524157 = -32					; size = 16
__$EHRec$ = -12						; size = 12
_pOwner$ = 8						; size = 4
_rkPacket$ = 12						; size = 4
?ApplyJump@ioChargeFlashJump@@UAEXPAVioBaseChar@@AAVSP2Packet@@@Z PROC ; ioChargeFlashJump::ApplyJump, COMDAT
; _this$ = ecx

; 367  : {

  00000	68 40 01 00 00	 push	 320			; 00000140H
  00005	b8 00 00 00 00	 mov	 eax, __ehhandler$?ApplyJump@ioChargeFlashJump@@UAEXPAVioBaseChar@@AAVSP2Packet@@@Z
  0000a	e8 00 00 00 00	 call	 __EH_prolog3_GS
  0000f	8b 7d 08	 mov	 edi, DWORD PTR _pOwner$[ebp]

; 374  : 	DWORD dwCurTime = FRAMEGETTIME();

  00012	8b 45 0c	 mov	 eax, DWORD PTR _rkPacket$[ebp]
  00015	8b d9		 mov	 ebx, ecx

; 380  : 	{
; 381  : 	case FJS_CHARGING:
; 382  : 		{
; 383  : 			D3DXQUATERNION qtRot;
; 384  : 			rkPacket >> qtRot;

  00017	89 bd f0 fe ff
	ff		 mov	 DWORD PTR _pOwner$GSCopy$[ebp], edi
  0001d	89 45 8c	 mov	 DWORD PTR _rkPacket$GSCopy$[ebp], eax
  00020	85 ff		 test	 edi, edi
  00022	0f 84 17 0d 00
	00		 je	 $LN13@ApplyJump

; 368  : 	if( !pOwner ) return;
; 369  : 
; 370  : 	ioEntityGroup *pGrp = pOwner->GetGroup();
; 371  : 	if( !pGrp ) return;

  00028	8b 77 04	 mov	 esi, DWORD PTR [edi+4]
  0002b	85 f6		 test	 esi, esi
  0002d	0f 84 0c 0d 00
	00		 je	 $LN13@ApplyJump

; 372  : 
; 373  : 	DWORD dwDelayTime = 0;

  00033	83 65 90 00	 and	 DWORD PTR _dwDelayTime$[ebp], 0

; 374  : 	DWORD dwCurTime = FRAMEGETTIME();

  00037	ff 15 00 00 00
	00		 call	 DWORD PTR __imp_?GetSingleton@ioFrameTimer@@SAAAV1@XZ
  0003d	8b c8		 mov	 ecx, eax
  0003f	ff 15 00 00 00
	00		 call	 DWORD PTR __imp_?GetLoopSec@ioFrameTimer@@QBEKXZ

; 375  : 
; 376  : 	int iType;
; 377  : 	rkPacket >> iType;

  00045	8b 4d 8c	 mov	 ecx, DWORD PTR _rkPacket$GSCopy$[ebp]
  00048	89 85 ec fe ff
	ff		 mov	 DWORD PTR _dwCurTime$[ebp], eax
  0004e	8d 45 9c	 lea	 eax, DWORD PTR _iType$[ebp]
  00051	50		 push	 eax
  00052	e8 00 00 00 00	 call	 ??5SP2Packet@@QAEAAV0@AAH@Z ; SP2Packet::operator>>

; 378  : 
; 379  : 	switch( iType )

  00057	8b 45 9c	 mov	 eax, DWORD PTR _iType$[ebp]
  0005a	48		 dec	 eax
  0005b	0f 84 92 0a 00
	00		 je	 $LN12@ApplyJump
  00061	48		 dec	 eax
  00062	0f 84 42 0a 00
	00		 je	 $LN1@ApplyJump
  00068	48		 dec	 eax
  00069	0f 84 b8 06 00
	00		 je	 $LN7@ApplyJump
  0006f	83 e8 03	 sub	 eax, 3
  00072	0f 84 4e 05 00
	00		 je	 $LN11@ApplyJump
  00078	48		 dec	 eax
  00079	0f 84 d8 00 00
	00		 je	 $LN5@ApplyJump
  0007f	48		 dec	 eax
  00080	0f 85 b9 0c 00
	00		 jne	 $LN13@ApplyJump

; 564  : 	case FJS_DASH_END:
; 565  : 		{
; 566  : 			m_dwDashEndTime = 0;

  00086	21 83 2c 03 00
	00		 and	 DWORD PTR [ebx+812], eax

; 567  : 			m_FlashJumpState = FJS_DASH_END;

  0008c	c7 83 24 01 00
	00 08 00 00 00	 mov	 DWORD PTR [ebx+292], 8

; 568  : 
; 569  : 			int iAniID = pOwner->GetJumppingAnimationIdx();

  00096	8b 07		 mov	 eax, DWORD PTR [edi]
  00098	6a 00		 push	 0
  0009a	8b cf		 mov	 ecx, edi
  0009c	ff 90 6c 01 00
	00		 call	 DWORD PTR [eax+364]

; 570  : 			ioEntityGroup *pGrp = pOwner->GetGroup();

  000a2	8b 7f 04	 mov	 edi, DWORD PTR [edi+4]
  000a5	8b d8		 mov	 ebx, eax

; 571  : 			if( pGrp )

  000a7	85 ff		 test	 edi, edi
  000a9	0f 84 90 0c 00
	00		 je	 $LN13@ApplyJump

; 572  : 			{
; 573  : 				pGrp->ClearAllActionAni( FLOAT100, true );

  000af	b8 64 00 00 00	 mov	 eax, 100		; 00000064H
  000b4	33 f6		 xor	 esi, esi
  000b6	46		 inc	 esi
  000b7	89 45 98	 mov	 DWORD PTR tv2679[ebp], eax
  000ba	db 45 98	 fild	 DWORD PTR tv2679[ebp]
  000bd	56		 push	 esi
  000be	85 c0		 test	 eax, eax
  000c0	79 06		 jns	 SHORT $LN382@ApplyJump
  000c2	d8 05 00 00 00
	00		 fadd	 DWORD PTR __real@4f800000
$LN382@ApplyJump:
  000c8	51		 push	 ecx
  000c9	8b cf		 mov	 ecx, edi
  000cb	d9 1c 24	 fstp	 DWORD PTR [esp]
  000ce	ff 15 00 00 00
	00		 call	 DWORD PTR __imp_?ClearAllActionAni@ioEntityGroup@@QAEXM_N@Z

; 574  : 				pGrp->ClearAllLoopAni( FLOAT100, true );

  000d4	b8 64 00 00 00	 mov	 eax, 100		; 00000064H
  000d9	89 45 98	 mov	 DWORD PTR tv2674[ebp], eax
  000dc	db 45 98	 fild	 DWORD PTR tv2674[ebp]
  000df	56		 push	 esi
  000e0	85 c0		 test	 eax, eax
  000e2	79 06		 jns	 SHORT $LN383@ApplyJump
  000e4	d8 05 00 00 00
	00		 fadd	 DWORD PTR __real@4f800000
$LN383@ApplyJump:
  000ea	51		 push	 ecx
  000eb	8b cf		 mov	 ecx, edi
  000ed	d9 1c 24	 fstp	 DWORD PTR [esp]
  000f0	ff 15 00 00 00
	00		 call	 DWORD PTR __imp_?ClearAllLoopAni@ioEntityGroup@@QAEXM_N@Z

; 575  : 				pGrp->SetActionAni( iAniID,	0.0f, 0.0f, FLOAT1, FLOAT1,	0.0f, 0.0f,	true );

  000f6	b8 01 00 00 00	 mov	 eax, 1
  000fb	8b c8		 mov	 ecx, eax
  000fd	b8 01 00 00 00	 mov	 eax, 1
  00102	0f 57 c0	 xorps	 xmm0, xmm0
  00105	56		 push	 esi
  00106	56		 push	 esi
  00107	83 ec 18	 sub	 esp, 24			; 00000018H
  0010a	f3 0f 11 44 24
	14		 movss	 DWORD PTR [esp+20], xmm0
  00110	89 4d 98	 mov	 DWORD PTR tv2668[ebp], ecx
  00113	db 45 98	 fild	 DWORD PTR tv2668[ebp]
  00116	f3 0f 11 44 24
	10		 movss	 DWORD PTR [esp+16], xmm0
  0011c	85 c9		 test	 ecx, ecx
  0011e	79 06		 jns	 SHORT $LN384@ApplyJump
  00120	d8 05 00 00 00
	00		 fadd	 DWORD PTR __real@4f800000
$LN384@ApplyJump:
  00126	d9 5c 24 0c	 fstp	 DWORD PTR [esp+12]
  0012a	89 45 98	 mov	 DWORD PTR tv2666[ebp], eax
  0012d	db 45 98	 fild	 DWORD PTR tv2666[ebp]
  00130	85 c0		 test	 eax, eax
  00132	79 06		 jns	 SHORT $LN385@ApplyJump
  00134	d8 05 00 00 00
	00		 fadd	 DWORD PTR __real@4f800000
$LN385@ApplyJump:
  0013a	d9 5c 24 08	 fstp	 DWORD PTR [esp+8]
  0013e	f3 0f 11 44 24
	04		 movss	 DWORD PTR [esp+4], xmm0
  00144	f3 0f 11 04 24	 movss	 DWORD PTR [esp], xmm0
  00149	53		 push	 ebx
  0014a	8b cf		 mov	 ecx, edi
  0014c	ff 15 00 00 00
	00		 call	 DWORD PTR __imp_?SetActionAni@ioEntityGroup@@QAE_NHMMMMMM_N0@Z

; 576  : 			}
; 577  : 		}
; 578  : 		break;

  00152	e9 e8 0b 00 00	 jmp	 $LN13@ApplyJump
$LN5@ApplyJump:

; 497  : 	case FJS_DASH:
; 498  : 		{
; 499  : 			D3DXVECTOR3 vDir;
; 500  : 			rkPacket >> vDir;

  00157	8b 4d 8c	 mov	 ecx, DWORD PTR _rkPacket$GSCopy$[ebp]
  0015a	8d 45 b8	 lea	 eax, DWORD PTR _vDir$524201[ebp]
  0015d	50		 push	 eax
  0015e	e8 00 00 00 00	 call	 ??5SP2Packet@@QAEAAV0@AAUD3DXVECTOR3@@@Z ; SP2Packet::operator>>

; 501  : 
; 502  : 			pOwner->SetMoveDirection( vDir );

  00163	8d 45 b8	 lea	 eax, DWORD PTR _vDir$524201[ebp]
  00166	50		 push	 eax
  00167	8b cf		 mov	 ecx, edi
  00169	e8 00 00 00 00	 call	 ?SetMoveDirection@ioBaseChar@@QAEXABUD3DXVECTOR3@@@Z ; ioBaseChar::SetMoveDirection

; 503  : 
; 504  : 			D3DXQUATERNION qtRotate;
; 505  : 			rkPacket >> qtRotate;

  0016e	8b 4d 8c	 mov	 ecx, DWORD PTR _rkPacket$GSCopy$[ebp]
  00171	8d 45 e0	 lea	 eax, DWORD PTR _qtRotate$524202[ebp]
  00174	50		 push	 eax
  00175	e8 00 00 00 00	 call	 ??5SP2Packet@@QAEAAV0@AAUD3DXQUATERNION@@@Z ; SP2Packet::operator>>

; 506  : 
; 507  : 			pOwner->SetTargetRotAndMoveDirChange( qtRotate );

  0017a	6a 00		 push	 0
  0017c	8d 45 e0	 lea	 eax, DWORD PTR _qtRotate$524202[ebp]
  0017f	50		 push	 eax
  00180	8b cf		 mov	 ecx, edi
  00182	e8 00 00 00 00	 call	 ?SetTargetRotAndMoveDirChange@ioBaseChar@@QAEXABUD3DXQUATERNION@@_N@Z ; ioBaseChar::SetTargetRotAndMoveDirChange

; 508  : 
; 509  : 			ioEntityGroup *pGrp = pOwner->GetGroup();

  00187	8b 4f 04	 mov	 ecx, DWORD PTR [edi+4]

; 510  : 			int iAniID = pGrp->GetAnimationIdx( m_DashJumpAttack.m_AttackAnimation );

  0018a	8d 83 d4 02 00
	00		 lea	 eax, DWORD PTR [ebx+724]
  00190	50		 push	 eax
  00191	89 4d 88	 mov	 DWORD PTR _pGrp$524203[ebp], ecx
  00194	ff 15 00 00 00
	00		 call	 DWORD PTR __imp_?GetAnimationIdx@ioEntityGroup@@QAEHABVioHashString@@@Z

; 511  : 			float fTimeRate = m_DashJumpAttack.m_fAttackAniRate;

  0019a	d9 83 e4 02 00
	00		 fld	 DWORD PTR [ebx+740]

; 512  : 			DWORD dwPreDelay = m_DashJumpAttack.m_dwPreDelay;

  001a0	8b b3 1c 03 00
	00		 mov	 esi, DWORD PTR [ebx+796]
  001a6	d9 5d 90	 fstp	 DWORD PTR _fTimeRate$524205[ebp]
  001a9	89 85 f0 fe ff
	ff		 mov	 DWORD PTR _iAniID$524204[ebp], eax

; 513  : 			DWORD dwEndDelay = m_DashJumpAttack.m_dwEndDelay;

  001af	8b 83 20 03 00
	00		 mov	 eax, DWORD PTR [ebx+800]
  001b5	89 45 98	 mov	 DWORD PTR _dwEndDelay$524207[ebp], eax

; 514  : 
; 515  : 			pGrp->ClearAllActionAni( FLOAT100, true );

  001b8	b8 64 00 00 00	 mov	 eax, 100		; 00000064H
  001bd	89 45 84	 mov	 DWORD PTR tv2645[ebp], eax
  001c0	db 45 84	 fild	 DWORD PTR tv2645[ebp]
  001c3	6a 01		 push	 1
  001c5	85 c0		 test	 eax, eax
  001c7	79 06		 jns	 SHORT $LN386@ApplyJump
  001c9	d8 05 00 00 00
	00		 fadd	 DWORD PTR __real@4f800000
$LN386@ApplyJump:
  001cf	51		 push	 ecx
  001d0	8b 4d 88	 mov	 ecx, DWORD PTR _pGrp$524203[ebp]
  001d3	d9 1c 24	 fstp	 DWORD PTR [esp]
  001d6	ff 15 00 00 00
	00		 call	 DWORD PTR __imp_?ClearAllActionAni@ioEntityGroup@@QAEXM_N@Z

; 516  : 			pGrp->ClearAllLoopAni( FLOAT100, true );

  001dc	b8 64 00 00 00	 mov	 eax, 100		; 00000064H
  001e1	89 45 84	 mov	 DWORD PTR tv2640[ebp], eax
  001e4	db 45 84	 fild	 DWORD PTR tv2640[ebp]
  001e7	6a 01		 push	 1
  001e9	85 c0		 test	 eax, eax
  001eb	79 06		 jns	 SHORT $LN387@ApplyJump
  001ed	d8 05 00 00 00
	00		 fadd	 DWORD PTR __real@4f800000
$LN387@ApplyJump:
  001f3	51		 push	 ecx
  001f4	8b 4d 88	 mov	 ecx, DWORD PTR _pGrp$524203[ebp]
  001f7	d9 1c 24	 fstp	 DWORD PTR [esp]
  001fa	ff 15 00 00 00
	00		 call	 DWORD PTR __imp_?ClearAllLoopAni@ioEntityGroup@@QAEXM_N@Z

; 517  : 
; 518  : 			pOwner->SetAutoTarget( ATT_JUMP );

  00200	6a 03		 push	 3
  00202	8b cf		 mov	 ecx, edi
  00204	e8 00 00 00 00	 call	 ?SetAutoTarget@ioBaseChar@@QAEXW4AutoTargetType@@@Z ; ioBaseChar::SetAutoTarget

; 519  : 
; 520  : 			pGrp->SetActionAni( iAniID, FLOAT100, FLOAT100, FLOAT1, FLOAT1/fTimeRate, 0.0f, dwPreDelay, true );		

  00209	b8 01 00 00 00	 mov	 eax, 1
  0020e	8b c8		 mov	 ecx, eax
  00210	b8 01 00 00 00	 mov	 eax, 1
  00215	8b d0		 mov	 edx, eax
  00217	b8 64 00 00 00	 mov	 eax, 100		; 00000064H
  0021c	89 85 e8 fe ff
	ff		 mov	 DWORD PTR $T532100[ebp], eax
  00222	b8 64 00 00 00	 mov	 eax, 100		; 00000064H
  00227	89 45 84	 mov	 DWORD PTR $T532104[ebp], eax
  0022a	8b c6		 mov	 eax, esi
  0022c	6a 01		 push	 1
  0022e	89 85 e4 fe ff
	ff		 mov	 DWORD PTR tv2632[ebp], eax
  00234	db 85 e4 fe ff
	ff		 fild	 DWORD PTR tv2632[ebp]
  0023a	6a 01		 push	 1
  0023c	85 c0		 test	 eax, eax
  0023e	79 06		 jns	 SHORT $LN388@ApplyJump
  00240	d8 05 00 00 00
	00		 fadd	 DWORD PTR __real@4f800000
$LN388@ApplyJump:
  00246	0f 57 c0	 xorps	 xmm0, xmm0
  00249	83 ec 18	 sub	 esp, 24			; 00000018H
  0024c	d9 5c 24 14	 fstp	 DWORD PTR [esp+20]
  00250	89 8d e4 fe ff
	ff		 mov	 DWORD PTR tv2630[ebp], ecx
  00256	db 85 e4 fe ff
	ff		 fild	 DWORD PTR tv2630[ebp]
  0025c	f3 0f 11 44 24
	10		 movss	 DWORD PTR [esp+16], xmm0
  00262	85 c9		 test	 ecx, ecx
  00264	79 06		 jns	 SHORT $LN389@ApplyJump
  00266	d8 05 00 00 00
	00		 fadd	 DWORD PTR __real@4f800000
$LN389@ApplyJump:
  0026c	d8 75 90	 fdiv	 DWORD PTR _fTimeRate$524205[ebp]
  0026f	d9 9d e4 fe ff
	ff		 fstp	 DWORD PTR tv2627[ebp]
  00275	d9 85 e4 fe ff
	ff		 fld	 DWORD PTR tv2627[ebp]
  0027b	d9 5c 24 0c	 fstp	 DWORD PTR [esp+12]
  0027f	89 95 e4 fe ff
	ff		 mov	 DWORD PTR tv2625[ebp], edx
  00285	db 85 e4 fe ff
	ff		 fild	 DWORD PTR tv2625[ebp]
  0028b	85 d2		 test	 edx, edx
  0028d	79 06		 jns	 SHORT $LN390@ApplyJump
  0028f	d8 05 00 00 00
	00		 fadd	 DWORD PTR __real@4f800000
$LN390@ApplyJump:
  00295	8b 85 e8 fe ff
	ff		 mov	 eax, DWORD PTR $T532100[ebp]
  0029b	d9 5c 24 08	 fstp	 DWORD PTR [esp+8]
  0029f	db 85 e8 fe ff
	ff		 fild	 DWORD PTR $T532100[ebp]
  002a5	85 c0		 test	 eax, eax
  002a7	79 06		 jns	 SHORT $LN391@ApplyJump
  002a9	d8 05 00 00 00
	00		 fadd	 DWORD PTR __real@4f800000
$LN391@ApplyJump:
  002af	8b 45 84	 mov	 eax, DWORD PTR $T532104[ebp]
  002b2	d9 5c 24 04	 fstp	 DWORD PTR [esp+4]
  002b6	db 45 84	 fild	 DWORD PTR $T532104[ebp]
  002b9	85 c0		 test	 eax, eax
  002bb	79 06		 jns	 SHORT $LN392@ApplyJump
  002bd	d8 05 00 00 00
	00		 fadd	 DWORD PTR __real@4f800000
$LN392@ApplyJump:
  002c3	8b 4d 88	 mov	 ecx, DWORD PTR _pGrp$524203[ebp]
  002c6	d9 1c 24	 fstp	 DWORD PTR [esp]
  002c9	ff b5 f0 fe ff
	ff		 push	 DWORD PTR _iAniID$524204[ebp]
  002cf	ff 15 00 00 00
	00		 call	 DWORD PTR __imp_?SetActionAni@ioEntityGroup@@QAE_NHMMMMMM_N0@Z

; 521  : 
; 522  : 			pOwner->RefreshFireTimeList( iAniID,
; 523  : 										 m_DashJumpAttack.m_vWeaponInfoList,
; 524  : 										 FTT_JUMP_ATTACK,
; 525  : 										 fTimeRate,
; 526  : 										 dwPreDelay );

  002d5	f3 0f 10 45 90	 movss	 xmm0, DWORD PTR _fTimeRate$524205[ebp]
  002da	6a 00		 push	 0
  002dc	56		 push	 esi
  002dd	51		 push	 ecx
  002de	f3 0f 11 04 24	 movss	 DWORD PTR [esp], xmm0
  002e3	6a 03		 push	 3
  002e5	8d 83 fc 02 00
	00		 lea	 eax, DWORD PTR [ebx+764]
  002eb	50		 push	 eax
  002ec	ff b5 f0 fe ff
	ff		 push	 DWORD PTR _iAniID$524204[ebp]
  002f2	8b cf		 mov	 ecx, edi
  002f4	e8 00 00 00 00	 call	 ?RefreshFireTimeList@ioBaseChar@@QAEXHABV?$vector@UWeaponInfo@@V?$allocator@UWeaponInfo@@@std@@@std@@W4FireTimeType@@MK_N@Z ; ioBaseChar::RefreshFireTimeList

; 527  : 			pOwner->IncreaseWeaponIndexBase();

  002f9	8b cf		 mov	 ecx, edi
  002fb	e8 00 00 00 00	 call	 ?IncreaseWeaponIndexBase@ioBaseChar@@QAEKXZ ; ioBaseChar::IncreaseWeaponIndexBase

; 528  : 			//
; 529  : 			m_dwDashStartTime = dwCurTime;

  00300	8b 85 ec fe ff
	ff		 mov	 eax, DWORD PTR _dwCurTime$[ebp]

; 530  : 			m_dwDashEndTime = dwCurTime + dwPreDelay + dwEndDelay + pGrp->GetAnimationFullTime( iAniID ) * fTimeRate;

  00306	ff b5 f0 fe ff
	ff		 push	 DWORD PTR _iAniID$524204[ebp]
  0030c	8b 4d 88	 mov	 ecx, DWORD PTR _pGrp$524203[ebp]
  0030f	89 83 28 03 00
	00		 mov	 DWORD PTR [ebx+808], eax
  00315	ff 15 00 00 00
	00		 call	 DWORD PTR __imp_?GetAnimationFullTime@ioEntityGroup@@QAEMH@Z
  0031b	d8 4d 90	 fmul	 DWORD PTR _fTimeRate$524205[ebp]
  0031e	8b 45 98	 mov	 eax, DWORD PTR _dwEndDelay$524207[ebp]
  00321	03 c6		 add	 eax, esi
  00323	03 85 ec fe ff
	ff		 add	 eax, DWORD PTR _dwCurTime$[ebp]
  00329	89 45 98	 mov	 DWORD PTR tv2603[ebp], eax
  0032c	db 45 98	 fild	 DWORD PTR tv2603[ebp]
  0032f	79 06		 jns	 SHORT $LN393@ApplyJump
  00331	d8 05 00 00 00
	00		 fadd	 DWORD PTR __real@4f800000
$LN393@ApplyJump:
  00337	de c1		 faddp	 ST(1), ST(0)
  00339	e8 00 00 00 00	 call	 __ftol2

; 531  : 
; 532  : 			pOwner->CheckCharColSkipTime( iAniID, fTimeRate, dwPreDelay );

  0033e	f3 0f 10 45 90	 movss	 xmm0, DWORD PTR _fTimeRate$524205[ebp]
  00343	56		 push	 esi
  00344	51		 push	 ecx
  00345	f3 0f 11 04 24	 movss	 DWORD PTR [esp], xmm0
  0034a	ff b5 f0 fe ff
	ff		 push	 DWORD PTR _iAniID$524204[ebp]
  00350	8b cf		 mov	 ecx, edi
  00352	89 83 2c 03 00
	00		 mov	 DWORD PTR [ebx+812], eax
  00358	e8 00 00 00 00	 call	 ?CheckCharColSkipTime@ioBaseChar@@QAEXHMK@Z ; ioBaseChar::CheckCharColSkipTime

; 533  : 
; 534  : 			pOwner->SetReservedSliding( m_DashJumpAttack.m_vForceInfoList, iAniID, fTimeRate, dwPreDelay );

  0035d	f3 0f 10 05 00
	00 00 00	 movss	 xmm0, DWORD PTR __real@3f800000
  00365	6a 01		 push	 1
  00367	51		 push	 ecx
  00368	f3 0f 11 04 24	 movss	 DWORD PTR [esp], xmm0
  0036d	f3 0f 10 45 90	 movss	 xmm0, DWORD PTR _fTimeRate$524205[ebp]
  00372	56		 push	 esi
  00373	51		 push	 ecx
  00374	f3 0f 11 04 24	 movss	 DWORD PTR [esp], xmm0
  00379	ff b5 f0 fe ff
	ff		 push	 DWORD PTR _iAniID$524204[ebp]
  0037f	8d 83 0c 03 00
	00		 lea	 eax, DWORD PTR [ebx+780]
  00385	50		 push	 eax
  00386	8b cf		 mov	 ecx, edi
  00388	e8 00 00 00 00	 call	 ?SetReservedSliding@ioBaseChar@@QAEXABV?$vector@UForceInfo@@V?$allocator@UForceInfo@@@std@@@std@@HMKM_N@Z ; ioBaseChar::SetReservedSliding

; 535  : 
; 536  : 			DWORD dwKeyReserveTime = dwCurTime + CheckKeyReserveTime( pOwner, iAniID, fTimeRate );

  0038d	f3 0f 10 45 90	 movss	 xmm0, DWORD PTR _fTimeRate$524205[ebp]
  00392	8b 03		 mov	 eax, DWORD PTR [ebx]
  00394	6a 00		 push	 0
  00396	51		 push	 ecx
  00397	f3 0f 11 04 24	 movss	 DWORD PTR [esp], xmm0
  0039c	ff b5 f0 fe ff
	ff		 push	 DWORD PTR _iAniID$524204[ebp]
  003a2	8b cb		 mov	 ecx, ebx
  003a4	57		 push	 edi
  003a5	ff 90 84 00 00
	00		 call	 DWORD PTR [eax+132]
  003ab	db 85 ec fe ff
	ff		 fild	 DWORD PTR _dwCurTime$[ebp]
  003b1	8b 85 ec fe ff
	ff		 mov	 eax, DWORD PTR _dwCurTime$[ebp]
  003b7	85 c0		 test	 eax, eax
  003b9	79 06		 jns	 SHORT $LN394@ApplyJump
  003bb	d8 05 00 00 00
	00		 fadd	 DWORD PTR __real@4f800000
$LN394@ApplyJump:
  003c1	de c1		 faddp	 ST(1), ST(0)
  003c3	e8 00 00 00 00	 call	 __ftol2
  003c8	6a 02		 push	 2
  003ca	89 45 84	 mov	 DWORD PTR _dwKeyReserveTime$524214[ebp], eax

; 537  : 
; 538  : 			DWORD dwTrackingTime = dwCurTime;
; 539  : 			dwTrackingTime += pGrp->GetAnimationEventTime_e( iAniID, "tracking_e" ) * fTimeRate;

  003cd	c7 45 d0 99 9e
	8a 89		 mov	 DWORD PTR _szEncEventType$532138[ebp], -1987404135 ; 898a9e99H
  003d4	c7 45 d4 86 85
	85 8d		 mov	 DWORD PTR _szEncEventType$532138[ebp+4], -1920629370 ; 8d858586H
  003db	66 c7 45 d8 b2
	89		 mov	 WORD PTR _szEncEventType$532138[ebp+8], 35250 ; 000089b2H
  003e1	8d 45 d0	 lea	 eax, DWORD PTR _szEncEventType$532138[ebp]
  003e4	c6 45 da 00	 mov	 BYTE PTR _szEncEventType$532138[ebp+10], 0
  003e8	59		 pop	 ecx
$LL343@ApplyJump:
  003e9	81 30 ed ec eb
	ea		 xor	 DWORD PTR [eax], -353637139 ; eaebecedH
  003ef	83 c0 04	 add	 eax, 4
  003f2	49		 dec	 ecx
  003f3	75 f4		 jne	 SHORT $LL343@ApplyJump
  003f5	6a 08		 push	 8
  003f7	5e		 pop	 esi
$LL340@ApplyJump:
  003f8	8b c6		 mov	 eax, esi
  003fa	25 03 00 00 80	 and	 eax, -2147483645	; 80000003H
  003ff	79 05		 jns	 SHORT $LN395@ApplyJump
  00401	48		 dec	 eax
  00402	83 c8 fc	 or	 eax, -4			; fffffffcH
  00405	40		 inc	 eax
$LN395@ApplyJump:
  00406	b1 ed		 mov	 cl, -19			; ffffffedH
  00408	2a c8		 sub	 cl, al
  0040a	30 4c 35 d0	 xor	 BYTE PTR _szEncEventType$532138[ebp+esi], cl
  0040e	46		 inc	 esi
  0040f	83 fe 0a	 cmp	 esi, 10			; 0000000aH
  00412	7c e4		 jl	 SHORT $LL340@ApplyJump
  00414	8d 45 d0	 lea	 eax, DWORD PTR _szEncEventType$532138[ebp]
  00417	50		 push	 eax
  00418	8d 8d d4 fe ff
	ff		 lea	 ecx, DWORD PTR $T532125[ebp]
  0041e	ff 15 00 00 00
	00		 call	 DWORD PTR __imp_??0ioHashString@@QAE@PBD@Z
  00424	8b 4d 88	 mov	 ecx, DWORD PTR _pGrp$524203[ebp]
  00427	8d 85 d4 fe ff
	ff		 lea	 eax, DWORD PTR $T532125[ebp]
  0042d	50		 push	 eax
  0042e	ff b5 f0 fe ff
	ff		 push	 DWORD PTR _iAniID$524204[ebp]
  00434	c7 45 fc 09 00
	00 00		 mov	 DWORD PTR __$EHRec$[ebp+8], 9
  0043b	ff 15 00 00 00
	00		 call	 DWORD PTR __imp_?GetAnimationEventTime@ioEntityGroup@@QAEMHABVioHashString@@@Z
  00441	d9 5d 98	 fstp	 DWORD PTR $T532124[ebp]
  00444	83 4d fc ff	 or	 DWORD PTR __$EHRec$[ebp+8], -1
  00448	8d 8d d4 fe ff
	ff		 lea	 ecx, DWORD PTR $T532125[ebp]
  0044e	ff 15 00 00 00
	00		 call	 DWORD PTR __imp_??1ioHashString@@QAE@XZ
  00454	d9 45 98	 fld	 DWORD PTR $T532124[ebp]
  00457	8b 85 ec fe ff
	ff		 mov	 eax, DWORD PTR _dwCurTime$[ebp]
  0045d	d8 4d 90	 fmul	 DWORD PTR _fTimeRate$524205[ebp]
  00460	db 85 ec fe ff
	ff		 fild	 DWORD PTR _dwCurTime$[ebp]
  00466	85 c0		 test	 eax, eax
  00468	79 06		 jns	 SHORT $LN396@ApplyJump
  0046a	dc 05 00 00 00
	00		 fadd	 QWORD PTR __real@41f0000000000000
$LN396@ApplyJump:
  00470	de c1		 faddp	 ST(1), ST(0)
  00472	e8 00 00 00 00	 call	 __ftol2

; 540  : 			pOwner->SetAutoTargetTrackingEndTime( dwTrackingTime );

  00477	50		 push	 eax
  00478	8b cf		 mov	 ecx, edi
  0047a	e8 00 00 00 00	 call	 ?SetAutoTargetTrackingEndTime@ioBaseChar@@QAEXK@Z ; ioBaseChar::SetAutoTargetTrackingEndTime

; 541  : 
; 542  : 			m_bUseExtendJump = true;
; 543  : 
; 544  : 			pOwner->SetEnableHide( false );

  0047f	83 ec 10	 sub	 esp, 16			; 00000010H
  00482	8b cc		 mov	 ecx, esp
  00484	89 65 98	 mov	 DWORD PTR $T531756[ebp], esp
  00487	be 00 00 00 00	 mov	 esi, OFFSET ??_C@_00CNPNBAHC@?$AA@
  0048c	56		 push	 esi
  0048d	c6 43 10 01	 mov	 BYTE PTR [ebx+16], 1
  00491	ff 15 00 00 00
	00		 call	 DWORD PTR __imp_??0ioHashString@@QAE@PBD@Z
  00497	83 ec 10	 sub	 esp, 16			; 00000010H
  0049a	8b cc		 mov	 ecx, esp
  0049c	89 a5 e8 fe ff
	ff		 mov	 DWORD PTR $T531757[ebp], esp
  004a2	56		 push	 esi
  004a3	c7 45 fc 0a 00
	00 00		 mov	 DWORD PTR __$EHRec$[ebp+8], 10 ; 0000000aH
  004aa	ff 15 00 00 00
	00		 call	 DWORD PTR __imp_??0ioHashString@@QAE@PBD@Z
  004b0	83 4d fc ff	 or	 DWORD PTR __$EHRec$[ebp+8], -1
  004b4	6a 00		 push	 0
  004b6	8b cf		 mov	 ecx, edi
  004b8	e8 00 00 00 00	 call	 ?SetEnableHide@ioBaseChar@@QAEX_NVioHashString@@1@Z ; ioBaseChar::SetEnableHide

; 545  : 			pOwner->SetNoWoundState( false );

  004bd	6a 00		 push	 0
  004bf	8b cf		 mov	 ecx, edi
  004c1	e8 00 00 00 00	 call	 ?SetNoWoundState@ioBaseChar@@QAEX_N@Z ; ioBaseChar::SetNoWoundState

; 546  : 			pOwner->SetEnableChangeTeam( false );

  004c6	6a 00		 push	 0
  004c8	8b cf		 mov	 ecx, edi
  004ca	e8 00 00 00 00	 call	 ?SetEnableChangeTeam@ioBaseChar@@QAEX_N@Z ; ioBaseChar::SetEnableChangeTeam

; 547  : 
; 548  : 			pOwner->SetChangeJumpMotion( false, "", "", "", 0.0f );

  004cf	56		 push	 esi
  004d0	8d 8d 54 ff ff
	ff		 lea	 ecx, DWORD PTR $T531758[ebp]
  004d6	ff 15 00 00 00
	00		 call	 DWORD PTR __imp_??0ioHashString@@QAE@PBD@Z
  004dc	56		 push	 esi
  004dd	8d 8d 24 ff ff
	ff		 lea	 ecx, DWORD PTR $T531759[ebp]
  004e3	c7 45 fc 0b 00
	00 00		 mov	 DWORD PTR __$EHRec$[ebp+8], 11 ; 0000000bH
  004ea	ff 15 00 00 00
	00		 call	 DWORD PTR __imp_??0ioHashString@@QAE@PBD@Z
  004f0	56		 push	 esi
  004f1	8d 8d 74 ff ff
	ff		 lea	 ecx, DWORD PTR $T531760[ebp]
  004f7	c6 45 fc 0c	 mov	 BYTE PTR __$EHRec$[ebp+8], 12 ; 0000000cH
  004fb	ff 15 00 00 00
	00		 call	 DWORD PTR __imp_??0ioHashString@@QAE@PBD@Z
  00501	0f 57 c0	 xorps	 xmm0, xmm0
  00504	51		 push	 ecx
  00505	f3 0f 11 04 24	 movss	 DWORD PTR [esp], xmm0
  0050a	8d 85 54 ff ff
	ff		 lea	 eax, DWORD PTR $T531758[ebp]
  00510	50		 push	 eax
  00511	8d 85 24 ff ff
	ff		 lea	 eax, DWORD PTR $T531759[ebp]
  00517	50		 push	 eax
  00518	8d 85 74 ff ff
	ff		 lea	 eax, DWORD PTR $T531760[ebp]
  0051e	50		 push	 eax
  0051f	6a 00		 push	 0
  00521	8b cf		 mov	 ecx, edi
  00523	c6 45 fc 0d	 mov	 BYTE PTR __$EHRec$[ebp+8], 13 ; 0000000dH
  00527	e8 00 00 00 00	 call	 ?SetChangeJumpMotion@ioBaseChar@@QAEX_NABVioHashString@@11M@Z ; ioBaseChar::SetChangeJumpMotion
  0052c	8b 35 00 00 00
	00		 mov	 esi, DWORD PTR __imp_??1ioHashString@@QAE@XZ
  00532	8d 8d 74 ff ff
	ff		 lea	 ecx, DWORD PTR $T531760[ebp]
  00538	c6 45 fc 0c	 mov	 BYTE PTR __$EHRec$[ebp+8], 12 ; 0000000cH
  0053c	ff d6		 call	 esi
  0053e	8d 8d 24 ff ff
	ff		 lea	 ecx, DWORD PTR $T531759[ebp]
  00544	c6 45 fc 0b	 mov	 BYTE PTR __$EHRec$[ebp+8], 11 ; 0000000bH
  00548	ff d6		 call	 esi
  0054a	83 4d fc ff	 or	 DWORD PTR __$EHRec$[ebp+8], -1
  0054e	8d 8d 54 ff ff
	ff		 lea	 ecx, DWORD PTR $T531758[ebp]
  00554	ff d6		 call	 esi

; 549  : 
; 550  : 			pOwner->SetGravityAmt( 0.0f );

  00556	0f 57 c0	 xorps	 xmm0, xmm0
  00559	8d 45 98	 lea	 eax, DWORD PTR _value$532243[ebp]
  0055c	50		 push	 eax
  0055d	8d 8f e8 0b 00
	00		 lea	 ecx, DWORD PTR [edi+3048]
  00563	f3 0f 11 45 98	 movss	 DWORD PTR _value$532243[ebp], xmm0
  00568	e8 00 00 00 00	 call	 ?EncryptValueToPool@?$CEncrypt@M@@AAEXPBD@Z ; CEncrypt<float>::EncryptValueToPool

; 551  : 			pOwner->SetForcePowerAmt( 0.0f );

  0056d	0f 57 c0	 xorps	 xmm0, xmm0
  00570	8d 45 98	 lea	 eax, DWORD PTR _value$532253[ebp]
  00573	50		 push	 eax
  00574	8d 8f 88 0b 00
	00		 lea	 ecx, DWORD PTR [edi+2952]
  0057a	f3 0f 11 45 98	 movss	 DWORD PTR _value$532253[ebp], xmm0
  0057f	e8 00 00 00 00	 call	 ?EncryptValueToPool@?$CEncrypt@M@@AAEXPBD@Z ; CEncrypt<float>::EncryptValueToPool

; 552  : 			pOwner->SetCurJumpPowerAmt( 0.0f );

  00584	0f 57 c0	 xorps	 xmm0, xmm0
  00587	f3 0f 11 87 90
	0e 00 00	 movss	 DWORD PTR [edi+3728], xmm0

; 553  : 
; 554  : 			m_FlashJumpState = FJS_DASH;

  0058f	c7 83 24 01 00
	00 07 00 00 00	 mov	 DWORD PTR [ebx+292], 7

; 555  : 
; 556  : 			pOwner->ApplyAutoTargetInfo( rkPacket );

  00599	ff 75 8c	 push	 DWORD PTR _rkPacket$GSCopy$[ebp]
  0059c	8b cf		 mov	 ecx, edi
  0059e	e8 00 00 00 00	 call	 ?ApplyAutoTargetInfo@ioBaseChar@@QAEXAAVSP2Packet@@@Z ; ioBaseChar::ApplyAutoTargetInfo

; 557  : 
; 558  : 			if( m_bUseNewJumpTypeDash )

  005a3	80 bb 45 03 00
	00 00		 cmp	 BYTE PTR [ebx+837], 0
  005aa	0f 84 8f 07 00
	00		 je	 $LN13@ApplyJump

; 559  : 			{
; 560  : 				SetNewJumpTypeDashAttack( pOwner, m_dwDashEndTime, dwKeyReserveTime );

  005b0	ff 75 84	 push	 DWORD PTR _dwKeyReserveTime$524214[ebp]
  005b3	8b cb		 mov	 ecx, ebx
  005b5	ff b3 2c 03 00
	00		 push	 DWORD PTR [ebx+812]
  005bb	57		 push	 edi
  005bc	e8 00 00 00 00	 call	 ?SetNewJumpTypeDashAttack@ioChargeFlashJump@@IAEXPAVioBaseChar@@KK@Z ; ioChargeFlashJump::SetNewJumpTypeDashAttack

; 561  : 			}
; 562  : 		}
; 563  : 		break;

  005c1	e9 79 07 00 00	 jmp	 $LN13@ApplyJump
$LN11@ApplyJump:

; 412  : 		}
; 413  : 		break;
; 414  : 	case FJS_DOUBLE:
; 415  : 		{
; 416  : 			float fJumpPower, fJumpForce;
; 417  : 			D3DXQUATERNION qtRotate;
; 418  : 
; 419  : 			rkPacket >> fJumpPower >> fJumpForce;

  005c6	8b 4d 8c	 mov	 ecx, DWORD PTR _rkPacket$GSCopy$[ebp]
  005c9	8d 45 88	 lea	 eax, DWORD PTR _fJumpForce$524174[ebp]
  005cc	50		 push	 eax
  005cd	8d 45 90	 lea	 eax, DWORD PTR _fJumpPower$524173[ebp]
  005d0	50		 push	 eax
  005d1	e8 00 00 00 00	 call	 ??5SP2Packet@@QAEAAV0@AAM@Z ; SP2Packet::operator>>
  005d6	8b c8		 mov	 ecx, eax
  005d8	e8 00 00 00 00	 call	 ??5SP2Packet@@QAEAAV0@AAM@Z ; SP2Packet::operator>>

; 420  : 			rkPacket >> qtRotate;

  005dd	8b 4d 8c	 mov	 ecx, DWORD PTR _rkPacket$GSCopy$[ebp]
  005e0	8d 85 d4 fe ff
	ff		 lea	 eax, DWORD PTR _qtRotate$524175[ebp]
  005e6	50		 push	 eax
  005e7	e8 00 00 00 00	 call	 ??5SP2Packet@@QAEAAV0@AAUD3DXQUATERNION@@@Z ; SP2Packet::operator>>

; 421  : 
; 422  : 			if( fJumpPower >= 0.0f )

  005ec	f3 0f 10 4d 90	 movss	 xmm1, DWORD PTR _fJumpPower$524173[ebp]
  005f1	0f 57 c0	 xorps	 xmm0, xmm0
  005f4	0f 2f c8	 comiss	 xmm1, xmm0
  005f7	0f 82 42 07 00
	00		 jb	 $LN13@ApplyJump

; 423  : 			{
; 424  : 				m_FlashJumpState = FJS_DOUBLE;
; 425  : 
; 426  : 				m_bUsedDoubleJump = true;
; 427  : 				m_bUseExtendJump = true;
; 428  : 
; 429  : 				pOwner->SetCurJumpPowerAmt( 0.0f );
; 430  : 				pOwner->SetForcePowerAmt( 0.0f );

  005fd	8d 45 98	 lea	 eax, DWORD PTR _value$531821[ebp]
  00600	c7 83 24 01 00
	00 06 00 00 00	 mov	 DWORD PTR [ebx+292], 6
  0060a	c6 83 bc 02 00
	00 01		 mov	 BYTE PTR [ebx+700], 1
  00611	c6 43 10 01	 mov	 BYTE PTR [ebx+16], 1
  00615	50		 push	 eax
  00616	8d 8f 88 0b 00
	00		 lea	 ecx, DWORD PTR [edi+2952]
  0061c	f3 0f 11 87 90
	0e 00 00	 movss	 DWORD PTR [edi+3728], xmm0
  00624	f3 0f 11 45 98	 movss	 DWORD PTR _value$531821[ebp], xmm0
  00629	e8 00 00 00 00	 call	 ?EncryptValueToPool@?$CEncrypt@M@@AAEXPBD@Z ; CEncrypt<float>::EncryptValueToPool

; 431  : 				pOwner->SetGravityAmt( 0.0f );

  0062e	0f 57 c0	 xorps	 xmm0, xmm0
  00631	8d 45 98	 lea	 eax, DWORD PTR _value$531831[ebp]
  00634	50		 push	 eax
  00635	8d 8f e8 0b 00
	00		 lea	 ecx, DWORD PTR [edi+3048]
  0063b	f3 0f 11 45 98	 movss	 DWORD PTR _value$531831[ebp], xmm0
  00640	e8 00 00 00 00	 call	 ?EncryptValueToPool@?$CEncrypt@M@@AAEXPBD@Z ; CEncrypt<float>::EncryptValueToPool

; 432  : 
; 433  : 				pOwner->SetTargetRot( qtRotate );

  00645	8d 85 d4 fe ff
	ff		 lea	 eax, DWORD PTR _qtRotate$524175[ebp]
  0064b	50		 push	 eax
  0064c	8b cf		 mov	 ecx, edi
  0064e	e8 00 00 00 00	 call	 ?SetTargetRot@ioBaseChar@@QAEXABUD3DXQUATERNION@@@Z ; ioBaseChar::SetTargetRot

; 434  : 				pOwner->SetJumpPower( fJumpPower );

  00653	f3 0f 10 45 90	 movss	 xmm0, DWORD PTR _fJumpPower$524173[ebp]
  00658	51		 push	 ecx
  00659	8b cf		 mov	 ecx, edi
  0065b	f3 0f 11 04 24	 movss	 DWORD PTR [esp], xmm0
  00660	e8 00 00 00 00	 call	 ?SetJumpPower@ioBaseChar@@QAEXM@Z ; ioBaseChar::SetJumpPower

; 435  : 
; 436  : 				D3DXVECTOR3 vJumpDir = pOwner->GetMoveDir();
; 437  : 				if( m_fDoubleJumpForce > 0.0f )

  00665	f3 0f 10 83 90
	02 00 00	 movss	 xmm0, DWORD PTR [ebx+656]
  0066d	0f 2f 05 00 00
	00 00		 comiss	 xmm0, DWORD PTR __real@00000000
  00674	8d b7 b4 06 00
	00		 lea	 esi, DWORD PTR [edi+1716]
  0067a	8d 7d d0	 lea	 edi, DWORD PTR _vJumpDir$524177[ebp]
  0067d	a5		 movsd
  0067e	a5		 movsd
  0067f	a5		 movsd
  00680	76 1c		 jbe	 SHORT $LN9@ApplyJump

; 438  : 					pOwner->SetForcePower( vJumpDir, fabs(m_fDoubleJumpForce), FLOAT1, true );

  00682	b8 01 00 00 00	 mov	 eax, 1
  00687	89 45 98	 mov	 DWORD PTR tv2535[ebp], eax
  0068a	db 45 98	 fild	 DWORD PTR tv2535[ebp]
  0068d	6a 01		 push	 1
  0068f	85 c0		 test	 eax, eax
  00691	79 06		 jns	 SHORT $LN397@ApplyJump
  00693	d8 05 00 00 00
	00		 fadd	 DWORD PTR __real@4f800000
$LN397@ApplyJump:
  00699	8d 45 d0	 lea	 eax, DWORD PTR _vJumpDir$524177[ebp]

; 439  : 				else

  0069c	eb 49		 jmp	 SHORT $LN413@ApplyJump
$LN9@ApplyJump:

; 440  : 					pOwner->SetForcePower( -vJumpDir, fabs(m_fDoubleJumpForce), FLOAT1, true );

  0069e	b8 01 00 00 00	 mov	 eax, 1
  006a3	f3 0f 10 05 00
	00 00 00	 movss	 xmm0, DWORD PTR __mask@@NegFloat@
  006ab	f3 0f 10 4d d0	 movss	 xmm1, DWORD PTR _vJumpDir$524177[ebp]
  006b0	0f 57 c8	 xorps	 xmm1, xmm0
  006b3	f3 0f 11 4d c4	 movss	 DWORD PTR $T524181[ebp], xmm1
  006b8	f3 0f 10 4d d4	 movss	 xmm1, DWORD PTR _vJumpDir$524177[ebp+4]
  006bd	0f 57 c8	 xorps	 xmm1, xmm0
  006c0	f3 0f 11 4d c8	 movss	 DWORD PTR $T524181[ebp+4], xmm1
  006c5	f3 0f 10 4d d8	 movss	 xmm1, DWORD PTR _vJumpDir$524177[ebp+8]
  006ca	0f 57 c8	 xorps	 xmm1, xmm0
  006cd	89 45 98	 mov	 DWORD PTR tv2523[ebp], eax
  006d0	db 45 98	 fild	 DWORD PTR tv2523[ebp]
  006d3	f3 0f 11 4d cc	 movss	 DWORD PTR $T524181[ebp+8], xmm1
  006d8	6a 01		 push	 1
  006da	85 c0		 test	 eax, eax
  006dc	79 06		 jns	 SHORT $LN398@ApplyJump
  006de	d8 05 00 00 00
	00		 fadd	 DWORD PTR __real@4f800000
$LN398@ApplyJump:
  006e4	8d 45 c4	 lea	 eax, DWORD PTR $T524181[ebp]
$LN413@ApplyJump:
  006e7	f3 0f 10 83 90
	02 00 00	 movss	 xmm0, DWORD PTR [ebx+656]
  006ef	51		 push	 ecx
  006f0	51		 push	 ecx
  006f1	8b 8d f0 fe ff
	ff		 mov	 ecx, DWORD PTR _pOwner$GSCopy$[ebp]
  006f7	d9 5c 24 04	 fstp	 DWORD PTR [esp+4]
  006fb	0f 5a c0	 cvtps2pd xmm0, xmm0
  006fe	66 0f 54 05 00
	00 00 00	 andpd	 xmm0, QWORD PTR __mask@@AbsDouble@
  00706	f2 0f 5a c0	 cvtsd2ss xmm0, xmm0
  0070a	f3 0f 11 04 24	 movss	 DWORD PTR [esp], xmm0
  0070f	50		 push	 eax
  00710	e8 00 00 00 00	 call	 ?SetForcePower@ioBaseChar@@QAEXABUD3DXVECTOR3@@MM_N@Z ; ioBaseChar::SetForcePower

; 441  : 
; 442  : 				SetDoubleJumpAni( pOwner );

  00715	ff b5 f0 fe ff
	ff		 push	 DWORD PTR _pOwner$GSCopy$[ebp]
  0071b	8b cb		 mov	 ecx, ebx
  0071d	e8 00 00 00 00	 call	 ?SetDoubleJumpAni@ioChargeFlashJump@@IAEXPAVioBaseChar@@@Z ; ioChargeFlashJump::SetDoubleJumpAni

; 443  : 			}
; 444  : 		}
; 445  : 		break;

  00722	e9 18 06 00 00	 jmp	 $LN13@ApplyJump
$LN7@ApplyJump:

; 446  : 	case FJS_DELAY:
; 447  : 		{
; 448  : 			rkPacket >> m_iCurJumpCnt;

  00727	8b 4d 8c	 mov	 ecx, DWORD PTR _rkPacket$GSCopy$[ebp]
  0072a	8d 83 c4 02 00
	00		 lea	 eax, DWORD PTR [ebx+708]
  00730	50		 push	 eax
  00731	e8 00 00 00 00	 call	 ??5SP2Packet@@QAEAAV0@AAH@Z ; SP2Packet::operator>>

; 449  : 			rkPacket >> m_iCurChangeJumpCnt;

  00736	8b 4d 8c	 mov	 ecx, DWORD PTR _rkPacket$GSCopy$[ebp]
  00739	8d 83 c8 02 00
	00		 lea	 eax, DWORD PTR [ebx+712]
  0073f	50		 push	 eax
  00740	e8 00 00 00 00	 call	 ??5SP2Packet@@QAEAAV0@AAH@Z ; SP2Packet::operator>>

; 450  : 
; 451  : 			D3DXQUATERNION qtRot;
; 452  : 			rkPacket >> qtRot;

  00745	8b 4d 8c	 mov	 ecx, DWORD PTR _rkPacket$GSCopy$[ebp]
  00748	8d 85 d4 fe ff
	ff		 lea	 eax, DWORD PTR _qtRot$524184[ebp]
  0074e	50		 push	 eax
  0074f	e8 00 00 00 00	 call	 ??5SP2Packet@@QAEAAV0@AAUD3DXQUATERNION@@@Z ; SP2Packet::operator>>

; 453  : 
; 454  : 			D3DXVECTOR3 vMoveDir, vInputDir;
; 455  : 			rkPacket >> vMoveDir >> vInputDir;

  00754	8b 4d 8c	 mov	 ecx, DWORD PTR _rkPacket$GSCopy$[ebp]
  00757	8d 45 b8	 lea	 eax, DWORD PTR _vInputDir$524186[ebp]
  0075a	50		 push	 eax
  0075b	8d 45 d0	 lea	 eax, DWORD PTR _vMoveDir$524185[ebp]
  0075e	50		 push	 eax
  0075f	e8 00 00 00 00	 call	 ??5SP2Packet@@QAEAAV0@AAUD3DXVECTOR3@@@Z ; SP2Packet::operator>>
  00764	8b c8		 mov	 ecx, eax
  00766	e8 00 00 00 00	 call	 ??5SP2Packet@@QAEAAV0@AAUD3DXVECTOR3@@@Z ; SP2Packet::operator>>

; 456  : 
; 457  : 			pOwner->SetJumpAttckTargetRot( qtRot, vMoveDir, vInputDir );

  0076b	8d 45 b8	 lea	 eax, DWORD PTR _vInputDir$524186[ebp]
  0076e	50		 push	 eax
  0076f	8d 45 d0	 lea	 eax, DWORD PTR _vMoveDir$524185[ebp]
  00772	50		 push	 eax
  00773	8d 85 d4 fe ff
	ff		 lea	 eax, DWORD PTR _qtRot$524184[ebp]
  00779	50		 push	 eax
  0077a	8b cf		 mov	 ecx, edi
  0077c	e8 00 00 00 00	 call	 ?SetJumpAttckTargetRot@ioBaseChar@@QAEXABUD3DXQUATERNION@@ABUD3DXVECTOR3@@1@Z ; ioBaseChar::SetJumpAttckTargetRot

; 458  : 
; 459  : 			if( !m_FlashDelayAni.IsEmpty() )

  00781	8d 8b 28 01 00
	00		 lea	 ecx, DWORD PTR [ebx+296]
  00787	ff 15 00 00 00
	00		 call	 DWORD PTR __imp_?IsEmpty@ioHashString@@QBE_NXZ
  0078d	84 c0		 test	 al, al
  0078f	0f 85 dc 01 00
	00		 jne	 $LN6@ApplyJump

; 460  : 			{
; 461  : 				pGrp->ClearAllActionAni( FLOAT100, true );

  00795	b8 64 00 00 00	 mov	 eax, 100		; 00000064H
  0079a	89 45 98	 mov	 DWORD PTR tv2506[ebp], eax
  0079d	db 45 98	 fild	 DWORD PTR tv2506[ebp]
  007a0	6a 01		 push	 1
  007a2	85 c0		 test	 eax, eax
  007a4	79 06		 jns	 SHORT $LN399@ApplyJump
  007a6	d8 05 00 00 00
	00		 fadd	 DWORD PTR __real@4f800000
$LN399@ApplyJump:
  007ac	51		 push	 ecx
  007ad	8b ce		 mov	 ecx, esi
  007af	d9 1c 24	 fstp	 DWORD PTR [esp]
  007b2	ff 15 00 00 00
	00		 call	 DWORD PTR __imp_?ClearAllActionAni@ioEntityGroup@@QAEXM_N@Z

; 462  : 				pGrp->ClearAllLoopAni( FLOAT100, true );

  007b8	b8 64 00 00 00	 mov	 eax, 100		; 00000064H
  007bd	89 45 98	 mov	 DWORD PTR tv2501[ebp], eax
  007c0	db 45 98	 fild	 DWORD PTR tv2501[ebp]
  007c3	6a 01		 push	 1
  007c5	85 c0		 test	 eax, eax
  007c7	79 06		 jns	 SHORT $LN400@ApplyJump
  007c9	d8 05 00 00 00
	00		 fadd	 DWORD PTR __real@4f800000
$LN400@ApplyJump:
  007cf	51		 push	 ecx
  007d0	8b ce		 mov	 ecx, esi
  007d2	d9 1c 24	 fstp	 DWORD PTR [esp]
  007d5	ff 15 00 00 00
	00		 call	 DWORD PTR __imp_?ClearAllLoopAni@ioEntityGroup@@QAEXM_N@Z

; 463  : 
; 464  : 				pOwner->SetAutoTarget( ATT_JUMP );

  007db	6a 03		 push	 3
  007dd	8b cf		 mov	 ecx, edi
  007df	e8 00 00 00 00	 call	 ?SetAutoTarget@ioBaseChar@@QAEXW4AutoTargetType@@@Z ; ioBaseChar::SetAutoTarget

; 465  : 
; 466  : 				int iAniID = pGrp->GetAnimationIdx( m_FlashDelayAni );

  007e4	8d 83 28 01 00
	00		 lea	 eax, DWORD PTR [ebx+296]
  007ea	50		 push	 eax
  007eb	8b ce		 mov	 ecx, esi
  007ed	ff 15 00 00 00
	00		 call	 DWORD PTR __imp_?GetAnimationIdx@ioEntityGroup@@QAEHABVioHashString@@@Z
  007f3	89 45 88	 mov	 DWORD PTR _iAniID$524190[ebp], eax

; 467  : 				pGrp->SetActionAni( iAniID, FLOAT100, FLOAT100, FLOAT1/m_fFlashDelayRate );

  007f6	b8 01 00 00 00	 mov	 eax, 1
  007fb	89 45 98	 mov	 DWORD PTR $T531893[ebp], eax
  007fe	8d 45 84	 lea	 eax, DWORD PTR _value$531897[ebp]
  00801	8d 8b 38 01 00
	00		 lea	 ecx, DWORD PTR [ebx+312]
  00807	50		 push	 eax
  00808	e8 00 00 00 00	 call	 ?DecryptValueToPool@?$CEncrypt@M@@QAEXPAM@Z ; CEncrypt<float>::DecryptValueToPool
  0080d	b8 64 00 00 00	 mov	 eax, 100		; 00000064H
  00812	8b c8		 mov	 ecx, eax
  00814	b8 64 00 00 00	 mov	 eax, 100		; 00000064H
  00819	db 45 98	 fild	 DWORD PTR $T531893[ebp]
  0081c	0f 57 c0	 xorps	 xmm0, xmm0
  0081f	8b 55 98	 mov	 edx, DWORD PTR $T531893[ebp]
  00822	6a 01		 push	 1
  00824	6a 00		 push	 0
  00826	83 ec 18	 sub	 esp, 24			; 00000018H
  00829	f3 0f 11 44 24
	14		 movss	 DWORD PTR [esp+20], xmm0
  0082f	f3 0f 11 44 24
	10		 movss	 DWORD PTR [esp+16], xmm0
  00835	f3 0f 10 05 00
	00 00 00	 movss	 xmm0, DWORD PTR __real@3f800000
  0083d	f3 0f 11 44 24
	0c		 movss	 DWORD PTR [esp+12], xmm0
  00843	85 d2		 test	 edx, edx
  00845	79 06		 jns	 SHORT $LN401@ApplyJump
  00847	d8 05 00 00 00
	00		 fadd	 DWORD PTR __real@4f800000
$LN401@ApplyJump:
  0084d	d8 75 84	 fdiv	 DWORD PTR _value$531897[ebp]
  00850	d9 5d 98	 fstp	 DWORD PTR tv2489[ebp]
  00853	d9 45 98	 fld	 DWORD PTR tv2489[ebp]
  00856	d9 5c 24 08	 fstp	 DWORD PTR [esp+8]
  0085a	89 4d 98	 mov	 DWORD PTR tv2487[ebp], ecx
  0085d	db 45 98	 fild	 DWORD PTR tv2487[ebp]
  00860	85 c9		 test	 ecx, ecx
  00862	79 06		 jns	 SHORT $LN402@ApplyJump
  00864	d8 05 00 00 00
	00		 fadd	 DWORD PTR __real@4f800000
$LN402@ApplyJump:
  0086a	d9 5c 24 04	 fstp	 DWORD PTR [esp+4]
  0086e	89 45 98	 mov	 DWORD PTR tv2485[ebp], eax
  00871	db 45 98	 fild	 DWORD PTR tv2485[ebp]
  00874	85 c0		 test	 eax, eax
  00876	79 06		 jns	 SHORT $LN403@ApplyJump
  00878	d8 05 00 00 00
	00		 fadd	 DWORD PTR __real@4f800000
$LN403@ApplyJump:
  0087e	d9 1c 24	 fstp	 DWORD PTR [esp]
  00881	ff 75 88	 push	 DWORD PTR _iAniID$524190[ebp]
  00884	8b ce		 mov	 ecx, esi
  00886	ff 15 00 00 00
	00		 call	 DWORD PTR __imp_?SetActionAni@ioEntityGroup@@QAE_NHMMMMMM_N0@Z

; 468  : 
; 469  : 				dwDelayTime = pGrp->GetAnimationFullTime( iAniID ) * m_fFlashDelayRate;

  0088c	8d 45 98	 lea	 eax, DWORD PTR _value$531910[ebp]
  0088f	50		 push	 eax
  00890	8d 8b 38 01 00
	00		 lea	 ecx, DWORD PTR [ebx+312]
  00896	e8 00 00 00 00	 call	 ?DecryptValueToPool@?$CEncrypt@M@@QAEXPAM@Z ; CEncrypt<float>::DecryptValueToPool
  0089b	ff 75 88	 push	 DWORD PTR _iAniID$524190[ebp]
  0089e	8b ce		 mov	 ecx, esi
  008a0	ff 15 00 00 00
	00		 call	 DWORD PTR __imp_?GetAnimationFullTime@ioEntityGroup@@QAEMH@Z
  008a6	d8 4d 98	 fmul	 DWORD PTR _value$531910[ebp]
  008a9	e8 00 00 00 00	 call	 __ftol2
  008ae	6a 02		 push	 2
  008b0	89 45 90	 mov	 DWORD PTR _dwDelayTime$[ebp], eax

; 470  : 
; 471  : 				DWORD dwTrackingTime = dwCurTime;
; 472  : 				dwTrackingTime += pGrp->GetAnimationEventTime_e( iAniID, "tracking_e" ) * m_fFlashDelayRate;

  008b3	c7 45 e0 99 9e
	8a 89		 mov	 DWORD PTR _szEncEventType$531945[ebp], -1987404135 ; 898a9e99H
  008ba	c7 45 e4 86 85
	85 8d		 mov	 DWORD PTR _szEncEventType$531945[ebp+4], -1920629370 ; 8d858586H
  008c1	66 c7 45 e8 b2
	89		 mov	 WORD PTR _szEncEventType$531945[ebp+8], 35250 ; 000089b2H
  008c7	8d 45 e0	 lea	 eax, DWORD PTR _szEncEventType$531945[ebp]
  008ca	c6 45 ea 00	 mov	 BYTE PTR _szEncEventType$531945[ebp+10], 0
  008ce	59		 pop	 ecx
$LL204@ApplyJump:
  008cf	81 30 ed ec eb
	ea		 xor	 DWORD PTR [eax], -353637139 ; eaebecedH
  008d5	83 c0 04	 add	 eax, 4
  008d8	49		 dec	 ecx
  008d9	75 f4		 jne	 SHORT $LL204@ApplyJump
  008db	6a 08		 push	 8
  008dd	58		 pop	 eax
$LL201@ApplyJump:
  008de	8b c8		 mov	 ecx, eax
  008e0	81 e1 03 00 00
	80		 and	 ecx, -2147483645	; 80000003H
  008e6	79 05		 jns	 SHORT $LN404@ApplyJump
  008e8	49		 dec	 ecx
  008e9	83 c9 fc	 or	 ecx, -4			; fffffffcH
  008ec	41		 inc	 ecx
$LN404@ApplyJump:
  008ed	b2 ed		 mov	 dl, -19			; ffffffedH
  008ef	2a d1		 sub	 dl, cl
  008f1	30 54 05 e0	 xor	 BYTE PTR _szEncEventType$531945[ebp+eax], dl
  008f5	40		 inc	 eax
  008f6	83 f8 0a	 cmp	 eax, 10			; 0000000aH
  008f9	7c e3		 jl	 SHORT $LL201@ApplyJump
  008fb	8d 45 e0	 lea	 eax, DWORD PTR _szEncEventType$531945[ebp]
  008fe	50		 push	 eax
  008ff	8d 8d c4 fe ff
	ff		 lea	 ecx, DWORD PTR $T531932[ebp]
  00905	ff 15 00 00 00
	00		 call	 DWORD PTR __imp_??0ioHashString@@QAE@PBD@Z
  0090b	8d 85 c4 fe ff
	ff		 lea	 eax, DWORD PTR $T531932[ebp]
  00911	50		 push	 eax
  00912	ff 75 88	 push	 DWORD PTR _iAniID$524190[ebp]
  00915	8b ce		 mov	 ecx, esi
  00917	c7 45 fc 04 00
	00 00		 mov	 DWORD PTR __$EHRec$[ebp+8], 4
  0091e	ff 15 00 00 00
	00		 call	 DWORD PTR __imp_?GetAnimationEventTime@ioEntityGroup@@QAEMHABVioHashString@@@Z
  00924	d9 5d 98	 fstp	 DWORD PTR $T531931[ebp]
  00927	83 4d fc ff	 or	 DWORD PTR __$EHRec$[ebp+8], -1
  0092b	8d 8d c4 fe ff
	ff		 lea	 ecx, DWORD PTR $T531932[ebp]
  00931	ff 15 00 00 00
	00		 call	 DWORD PTR __imp_??1ioHashString@@QAE@XZ
  00937	8d 45 84	 lea	 eax, DWORD PTR _value$532045[ebp]
  0093a	50		 push	 eax
  0093b	8d 8b 38 01 00
	00		 lea	 ecx, DWORD PTR [ebx+312]
  00941	e8 00 00 00 00	 call	 ?DecryptValueToPool@?$CEncrypt@M@@QAEXPAM@Z ; CEncrypt<float>::DecryptValueToPool
  00946	d9 45 98	 fld	 DWORD PTR $T531931[ebp]
  00949	8b 85 ec fe ff
	ff		 mov	 eax, DWORD PTR _dwCurTime$[ebp]
  0094f	d8 4d 84	 fmul	 DWORD PTR _value$532045[ebp]
  00952	db 85 ec fe ff
	ff		 fild	 DWORD PTR _dwCurTime$[ebp]
  00958	85 c0		 test	 eax, eax
  0095a	79 06		 jns	 SHORT $LN405@ApplyJump
  0095c	dc 05 00 00 00
	00		 fadd	 QWORD PTR __real@41f0000000000000
$LN405@ApplyJump:
  00962	de c1		 faddp	 ST(1), ST(0)
  00964	e8 00 00 00 00	 call	 __ftol2

; 473  : 
; 474  : 				pOwner->SetAutoTargetTrackingEndTime( dwTrackingTime );

  00969	50		 push	 eax
  0096a	8b cf		 mov	 ecx, edi
  0096c	e8 00 00 00 00	 call	 ?SetAutoTargetTrackingEndTime@ioBaseChar@@QAEXK@Z ; ioBaseChar::SetAutoTargetTrackingEndTime
$LN6@ApplyJump:

; 475  : 			}
; 476  : 
; 477  : 			m_bUseExtendJump = true;
; 478  : 			pOwner->SetUsedFlashJump( true );
; 479  : 
; 480  : 			pOwner->SetEnableHide( false );

  00971	83 ec 10	 sub	 esp, 16			; 00000010H
  00974	8b cc		 mov	 ecx, esp
  00976	89 65 98	 mov	 DWORD PTR $T531751[ebp], esp
  00979	be 00 00 00 00	 mov	 esi, OFFSET ??_C@_00CNPNBAHC@?$AA@
  0097e	c6 43 10 01	 mov	 BYTE PTR [ebx+16], 1
  00982	56		 push	 esi
  00983	c6 87 9c 0e 00
	00 01		 mov	 BYTE PTR [edi+3740], 1
  0098a	ff 15 00 00 00
	00		 call	 DWORD PTR __imp_??0ioHashString@@QAE@PBD@Z
  00990	83 ec 10	 sub	 esp, 16			; 00000010H
  00993	8b cc		 mov	 ecx, esp
  00995	89 65 84	 mov	 DWORD PTR $T531752[ebp], esp
  00998	56		 push	 esi
  00999	c7 45 fc 05 00
	00 00		 mov	 DWORD PTR __$EHRec$[ebp+8], 5
  009a0	ff 15 00 00 00
	00		 call	 DWORD PTR __imp_??0ioHashString@@QAE@PBD@Z
  009a6	83 4d fc ff	 or	 DWORD PTR __$EHRec$[ebp+8], -1
  009aa	6a 00		 push	 0
  009ac	8b cf		 mov	 ecx, edi
  009ae	e8 00 00 00 00	 call	 ?SetEnableHide@ioBaseChar@@QAEX_NVioHashString@@1@Z ; ioBaseChar::SetEnableHide

; 481  : 			pOwner->SetNoWoundState( false );

  009b3	6a 00		 push	 0
  009b5	8b cf		 mov	 ecx, edi
  009b7	e8 00 00 00 00	 call	 ?SetNoWoundState@ioBaseChar@@QAEX_N@Z ; ioBaseChar::SetNoWoundState

; 482  : 			pOwner->SetEnableChangeTeam( false );

  009bc	6a 00		 push	 0
  009be	8b cf		 mov	 ecx, edi
  009c0	e8 00 00 00 00	 call	 ?SetEnableChangeTeam@ioBaseChar@@QAEX_N@Z ; ioBaseChar::SetEnableChangeTeam

; 483  : 
; 484  : 			pOwner->SetChangeJumpMotion( false, "", "", "", 0.0f );

  009c5	56		 push	 esi
  009c6	8d 8d 14 ff ff
	ff		 lea	 ecx, DWORD PTR $T531753[ebp]
  009cc	ff 15 00 00 00
	00		 call	 DWORD PTR __imp_??0ioHashString@@QAE@PBD@Z
  009d2	56		 push	 esi
  009d3	8d 8d 64 ff ff
	ff		 lea	 ecx, DWORD PTR $T531754[ebp]
  009d9	c7 45 fc 06 00
	00 00		 mov	 DWORD PTR __$EHRec$[ebp+8], 6
  009e0	ff 15 00 00 00
	00		 call	 DWORD PTR __imp_??0ioHashString@@QAE@PBD@Z
  009e6	56		 push	 esi
  009e7	8d 8d 34 ff ff
	ff		 lea	 ecx, DWORD PTR $T531755[ebp]
  009ed	c6 45 fc 07	 mov	 BYTE PTR __$EHRec$[ebp+8], 7
  009f1	ff 15 00 00 00
	00		 call	 DWORD PTR __imp_??0ioHashString@@QAE@PBD@Z
  009f7	0f 57 c0	 xorps	 xmm0, xmm0
  009fa	51		 push	 ecx
  009fb	f3 0f 11 04 24	 movss	 DWORD PTR [esp], xmm0
  00a00	8d 85 14 ff ff
	ff		 lea	 eax, DWORD PTR $T531753[ebp]
  00a06	50		 push	 eax
  00a07	8d 85 64 ff ff
	ff		 lea	 eax, DWORD PTR $T531754[ebp]
  00a0d	50		 push	 eax
  00a0e	8d 85 34 ff ff
	ff		 lea	 eax, DWORD PTR $T531755[ebp]
  00a14	50		 push	 eax
  00a15	6a 00		 push	 0
  00a17	8b cf		 mov	 ecx, edi
  00a19	c6 45 fc 08	 mov	 BYTE PTR __$EHRec$[ebp+8], 8
  00a1d	e8 00 00 00 00	 call	 ?SetChangeJumpMotion@ioBaseChar@@QAEX_NABVioHashString@@11M@Z ; ioBaseChar::SetChangeJumpMotion
  00a22	8b 35 00 00 00
	00		 mov	 esi, DWORD PTR __imp_??1ioHashString@@QAE@XZ
  00a28	8d 8d 34 ff ff
	ff		 lea	 ecx, DWORD PTR $T531755[ebp]
  00a2e	c6 45 fc 07	 mov	 BYTE PTR __$EHRec$[ebp+8], 7
  00a32	ff d6		 call	 esi
  00a34	8d 8d 64 ff ff
	ff		 lea	 ecx, DWORD PTR $T531754[ebp]
  00a3a	c6 45 fc 06	 mov	 BYTE PTR __$EHRec$[ebp+8], 6
  00a3e	ff d6		 call	 esi
  00a40	83 4d fc ff	 or	 DWORD PTR __$EHRec$[ebp+8], -1
  00a44	8d 8d 14 ff ff
	ff		 lea	 ecx, DWORD PTR $T531753[ebp]
  00a4a	ff d6		 call	 esi

; 485  : 			pOwner->SetJumpAttackState();

  00a4c	8b cf		 mov	 ecx, edi
  00a4e	e8 00 00 00 00	 call	 ?SetJumpAttackState@ioBaseChar@@QAEXXZ ; ioBaseChar::SetJumpAttackState

; 486  : 
; 487  : 			pOwner->SetGravityAmt( 0.0f );

  00a53	0f 57 c0	 xorps	 xmm0, xmm0
  00a56	8d 45 98	 lea	 eax, DWORD PTR _value$532058[ebp]
  00a59	50		 push	 eax
  00a5a	8d 8f e8 0b 00
	00		 lea	 ecx, DWORD PTR [edi+3048]
  00a60	f3 0f 11 45 98	 movss	 DWORD PTR _value$532058[ebp], xmm0
  00a65	e8 00 00 00 00	 call	 ?EncryptValueToPool@?$CEncrypt@M@@AAEXPBD@Z ; CEncrypt<float>::EncryptValueToPool

; 488  : 			pOwner->SetForcePowerAmt( 0.0f );

  00a6a	0f 57 c0	 xorps	 xmm0, xmm0
  00a6d	8d 45 98	 lea	 eax, DWORD PTR _value$532068[ebp]
  00a70	50		 push	 eax
  00a71	8d 8f 88 0b 00
	00		 lea	 ecx, DWORD PTR [edi+2952]
  00a77	f3 0f 11 45 98	 movss	 DWORD PTR _value$532068[ebp], xmm0
  00a7c	e8 00 00 00 00	 call	 ?EncryptValueToPool@?$CEncrypt@M@@AAEXPBD@Z ; CEncrypt<float>::EncryptValueToPool

; 489  : 			pOwner->SetCurJumpPowerAmt( 0.0f );

  00a81	0f 57 c0	 xorps	 xmm0, xmm0

; 490  : 
; 491  : 			m_FlashJumpState = FJS_DELAY;
; 492  : 			m_dwFlashDelayEndTime = dwCurTime + dwDelayTime;

  00a84	8b 85 ec fe ff
	ff		 mov	 eax, DWORD PTR _dwCurTime$[ebp]
  00a8a	03 45 90	 add	 eax, DWORD PTR _dwDelayTime$[ebp]
  00a8d	f3 0f 11 87 90
	0e 00 00	 movss	 DWORD PTR [edi+3728], xmm0
  00a95	c7 83 24 01 00
	00 03 00 00 00	 mov	 DWORD PTR [ebx+292], 3
  00a9f	89 83 c8 01 00
	00		 mov	 DWORD PTR [ebx+456], eax

; 493  : 
; 494  : 			pOwner->ApplyAutoTargetInfo( rkPacket );
; 495  : 		}
; 496  : 		break;

  00aa5	e9 8b 02 00 00	 jmp	 $LN414@ApplyJump
$LN1@ApplyJump:

; 579  : 	case FJS_EXTEND_ATTACK:
; 580  : 		{
; 581  : 			D3DXQUATERNION qtRot;
; 582  : 			rkPacket >> qtRot;

  00aaa	8b 4d 8c	 mov	 ecx, DWORD PTR _rkPacket$GSCopy$[ebp]
  00aad	8d 85 b4 fe ff
	ff		 lea	 eax, DWORD PTR _qtRot$524231[ebp]
  00ab3	50		 push	 eax
  00ab4	e8 00 00 00 00	 call	 ??5SP2Packet@@QAEAAV0@AAUD3DXQUATERNION@@@Z ; SP2Packet::operator>>

; 583  : 
; 584  : 			D3DXVECTOR3 vMoveDir, vInputDir;
; 585  : 			rkPacket >> vMoveDir >> vInputDir;

  00ab9	8b 4d 8c	 mov	 ecx, DWORD PTR _rkPacket$GSCopy$[ebp]
  00abc	8d 45 ac	 lea	 eax, DWORD PTR _vInputDir$524233[ebp]
  00abf	50		 push	 eax
  00ac0	8d 45 a0	 lea	 eax, DWORD PTR _vMoveDir$524232[ebp]
  00ac3	50		 push	 eax
  00ac4	e8 00 00 00 00	 call	 ??5SP2Packet@@QAEAAV0@AAUD3DXVECTOR3@@@Z ; SP2Packet::operator>>
  00ac9	8b c8		 mov	 ecx, eax
  00acb	e8 00 00 00 00	 call	 ??5SP2Packet@@QAEAAV0@AAUD3DXVECTOR3@@@Z ; SP2Packet::operator>>

; 586  : 
; 587  : 			pOwner->SetJumpAttckTargetRot( qtRot, vMoveDir, vInputDir );

  00ad0	8d 45 ac	 lea	 eax, DWORD PTR _vInputDir$524233[ebp]
  00ad3	50		 push	 eax
  00ad4	8d 45 a0	 lea	 eax, DWORD PTR _vMoveDir$524232[ebp]
  00ad7	50		 push	 eax
  00ad8	8d 85 b4 fe ff
	ff		 lea	 eax, DWORD PTR _qtRot$524231[ebp]
  00ade	50		 push	 eax
  00adf	8b cf		 mov	 ecx, edi
  00ae1	e8 00 00 00 00	 call	 ?SetJumpAttckTargetRot@ioBaseChar@@QAEXABUD3DXQUATERNION@@ABUD3DXVECTOR3@@1@Z ; ioBaseChar::SetJumpAttckTargetRot

; 588  : 			
; 589  : 			ChangeToPowerChargeJumpAttack( pOwner );

  00ae6	57		 push	 edi
  00ae7	8b cb		 mov	 ecx, ebx
  00ae9	e8 00 00 00 00	 call	 ?ChangeToPowerChargeJumpAttack@ioChargeFlashJump@@IAEXPAVioBaseChar@@@Z ; ioChargeFlashJump::ChangeToPowerChargeJumpAttack

; 590  : 		}
; 591  : 		break;

  00aee	e9 4c 02 00 00	 jmp	 $LN13@ApplyJump
$LN12@ApplyJump:

; 380  : 	{
; 381  : 	case FJS_CHARGING:
; 382  : 		{
; 383  : 			D3DXQUATERNION qtRot;
; 384  : 			rkPacket >> qtRot;

  00af3	8b 4d 8c	 mov	 ecx, DWORD PTR _rkPacket$GSCopy$[ebp]
  00af6	8d 45 e0	 lea	 eax, DWORD PTR _qtRot$524157[ebp]
  00af9	50		 push	 eax
  00afa	e8 00 00 00 00	 call	 ??5SP2Packet@@QAEAAV0@AAUD3DXQUATERNION@@@Z ; SP2Packet::operator>>

; 385  : 			pOwner->SetTargetRot( qtRot );

  00aff	8d 45 e0	 lea	 eax, DWORD PTR _qtRot$524157[ebp]
  00b02	50		 push	 eax
  00b03	8b cf		 mov	 ecx, edi
  00b05	e8 00 00 00 00	 call	 ?SetTargetRot@ioBaseChar@@QAEXABUD3DXQUATERNION@@@Z ; ioBaseChar::SetTargetRot

; 386  : 			
; 387  : 			pGrp->ClearAllLoopAni( FLOAT100, true );

  00b0a	b8 64 00 00 00	 mov	 eax, 100		; 00000064H
  00b0f	89 45 98	 mov	 DWORD PTR tv2430[ebp], eax
  00b12	db 45 98	 fild	 DWORD PTR tv2430[ebp]
  00b15	6a 01		 push	 1
  00b17	85 c0		 test	 eax, eax
  00b19	79 06		 jns	 SHORT $LN406@ApplyJump
  00b1b	d8 05 00 00 00
	00		 fadd	 DWORD PTR __real@4f800000
$LN406@ApplyJump:
  00b21	51		 push	 ecx
  00b22	8b ce		 mov	 ecx, esi
  00b24	d9 1c 24	 fstp	 DWORD PTR [esp]
  00b27	ff 15 00 00 00
	00		 call	 DWORD PTR __imp_?ClearAllLoopAni@ioEntityGroup@@QAEXM_N@Z

; 388  : 			pGrp->ClearAllActionAni( FLOAT100, true );

  00b2d	b8 64 00 00 00	 mov	 eax, 100		; 00000064H
  00b32	89 45 98	 mov	 DWORD PTR tv2425[ebp], eax
  00b35	db 45 98	 fild	 DWORD PTR tv2425[ebp]
  00b38	6a 01		 push	 1
  00b3a	85 c0		 test	 eax, eax
  00b3c	79 06		 jns	 SHORT $LN407@ApplyJump
  00b3e	d8 05 00 00 00
	00		 fadd	 DWORD PTR __real@4f800000
$LN407@ApplyJump:
  00b44	51		 push	 ecx
  00b45	8b ce		 mov	 ecx, esi
  00b47	d9 1c 24	 fstp	 DWORD PTR [esp]
  00b4a	ff 15 00 00 00
	00		 call	 DWORD PTR __imp_?ClearAllActionAni@ioEntityGroup@@QAEXM_N@Z

; 389  : 
; 390  : 			pOwner->SetAutoTarget( ATT_JUMP );

  00b50	6a 03		 push	 3
  00b52	8b cf		 mov	 ecx, edi
  00b54	e8 00 00 00 00	 call	 ?SetAutoTarget@ioBaseChar@@QAEXW4AutoTargetType@@@Z ; ioBaseChar::SetAutoTarget

; 391  : 
; 392  : 			int iAniID = pGrp->GetAnimationIdx( m_szChargingAni );

  00b59	8d 83 d8 01 00
	00		 lea	 eax, DWORD PTR [ebx+472]
  00b5f	50		 push	 eax
  00b60	8b ce		 mov	 ecx, esi
  00b62	ff 15 00 00 00
	00		 call	 DWORD PTR __imp_?GetAnimationIdx@ioEntityGroup@@QAEHABVioHashString@@@Z

; 393  : 			float fTimeRate = (float)m_dwChargingTime / pGrp->GetAnimationFullTime( iAniID );

  00b68	db 83 d4 01 00
	00		 fild	 DWORD PTR [ebx+468]
  00b6e	8b 8b d4 01 00
	00		 mov	 ecx, DWORD PTR [ebx+468]
  00b74	89 85 e8 fe ff
	ff		 mov	 DWORD PTR _iAniID$524160[ebp], eax
  00b7a	85 c9		 test	 ecx, ecx
  00b7c	79 06		 jns	 SHORT $LN408@ApplyJump
  00b7e	d8 05 00 00 00
	00		 fadd	 DWORD PTR __real@4f800000
$LN408@ApplyJump:
  00b84	50		 push	 eax
  00b85	dd 5d 94	 fstp	 QWORD PTR tv782[ebp]
  00b88	8b ce		 mov	 ecx, esi
  00b8a	ff 15 00 00 00
	00		 call	 DWORD PTR __imp_?GetAnimationFullTime@ioEntityGroup@@QAEMH@Z
  00b90	dc 7d 94	 fdivr	 QWORD PTR tv782[ebp]
  00b93	d9 5d 98	 fstp	 DWORD PTR _fTimeRate$524161[ebp]

; 394  : 			pGrp->SetActionAni( iAniID, FLOAT100, FLOAT100, FLOAT1, FLOAT1/fTimeRate, 0.0f, 0.0f, true );

  00b96	b8 01 00 00 00	 mov	 eax, 1
  00b9b	8b c8		 mov	 ecx, eax
  00b9d	b8 01 00 00 00	 mov	 eax, 1
  00ba2	8b d0		 mov	 edx, eax
  00ba4	b8 64 00 00 00	 mov	 eax, 100		; 00000064H
  00ba9	89 45 84	 mov	 DWORD PTR $T531801[ebp], eax
  00bac	b8 64 00 00 00	 mov	 eax, 100		; 00000064H
  00bb1	0f 57 c0	 xorps	 xmm0, xmm0
  00bb4	6a 01		 push	 1
  00bb6	6a 01		 push	 1
  00bb8	83 ec 18	 sub	 esp, 24			; 00000018H
  00bbb	89 8d e4 fe ff
	ff		 mov	 DWORD PTR tv2406[ebp], ecx
  00bc1	db 85 e4 fe ff
	ff		 fild	 DWORD PTR tv2406[ebp]
  00bc7	f3 0f 11 44 24
	14		 movss	 DWORD PTR [esp+20], xmm0
  00bcd	f3 0f 11 44 24
	10		 movss	 DWORD PTR [esp+16], xmm0
  00bd3	85 c9		 test	 ecx, ecx
  00bd5	79 06		 jns	 SHORT $LN409@ApplyJump
  00bd7	d8 05 00 00 00
	00		 fadd	 DWORD PTR __real@4f800000
$LN409@ApplyJump:
  00bdd	d8 75 98	 fdiv	 DWORD PTR _fTimeRate$524161[ebp]
  00be0	d9 5d 98	 fstp	 DWORD PTR tv2403[ebp]
  00be3	d9 45 98	 fld	 DWORD PTR tv2403[ebp]
  00be6	d9 5c 24 0c	 fstp	 DWORD PTR [esp+12]
  00bea	89 55 98	 mov	 DWORD PTR tv2400[ebp], edx
  00bed	db 45 98	 fild	 DWORD PTR tv2400[ebp]
  00bf0	85 d2		 test	 edx, edx
  00bf2	79 06		 jns	 SHORT $LN410@ApplyJump
  00bf4	d8 05 00 00 00
	00		 fadd	 DWORD PTR __real@4f800000
$LN410@ApplyJump:
  00bfa	8b 4d 84	 mov	 ecx, DWORD PTR $T531801[ebp]
  00bfd	d9 5c 24 08	 fstp	 DWORD PTR [esp+8]
  00c01	db 45 84	 fild	 DWORD PTR $T531801[ebp]
  00c04	85 c9		 test	 ecx, ecx
  00c06	79 06		 jns	 SHORT $LN411@ApplyJump
  00c08	d8 05 00 00 00
	00		 fadd	 DWORD PTR __real@4f800000
$LN411@ApplyJump:
  00c0e	d9 5c 24 04	 fstp	 DWORD PTR [esp+4]
  00c12	89 45 98	 mov	 DWORD PTR tv2396[ebp], eax
  00c15	db 45 98	 fild	 DWORD PTR tv2396[ebp]
  00c18	85 c0		 test	 eax, eax
  00c1a	79 06		 jns	 SHORT $LN412@ApplyJump
  00c1c	d8 05 00 00 00
	00		 fadd	 DWORD PTR __real@4f800000
$LN412@ApplyJump:
  00c22	d9 1c 24	 fstp	 DWORD PTR [esp]
  00c25	ff b5 e8 fe ff
	ff		 push	 DWORD PTR _iAniID$524160[ebp]
  00c2b	8b ce		 mov	 ecx, esi
  00c2d	ff 15 00 00 00
	00		 call	 DWORD PTR __imp_?SetActionAni@ioEntityGroup@@QAE_NHMMMMMM_N0@Z

; 395  : 
; 396  : 			pOwner->SetAutoTargetTrackingEndTime( dwCurTime );

  00c33	ff b5 ec fe ff
	ff		 push	 DWORD PTR _dwCurTime$[ebp]
  00c39	8b cf		 mov	 ecx, edi
  00c3b	e8 00 00 00 00	 call	 ?SetAutoTargetTrackingEndTime@ioBaseChar@@QAEXK@Z ; ioBaseChar::SetAutoTargetTrackingEndTime

; 397  : 
; 398  : 			m_bUseExtendJump = true;
; 399  : 			m_bUseExtendJumpAttack = false;
; 400  : 
; 401  : 			pOwner->SetEnableHide( false );

  00c40	83 ec 10	 sub	 esp, 16			; 00000010H
  00c43	8b cc		 mov	 ecx, esp
  00c45	89 65 98	 mov	 DWORD PTR $T531746[ebp], esp
  00c48	be 00 00 00 00	 mov	 esi, OFFSET ??_C@_00CNPNBAHC@?$AA@
  00c4d	56		 push	 esi
  00c4e	c6 43 10 01	 mov	 BYTE PTR [ebx+16], 1
  00c52	c6 83 e8 01 00
	00 00		 mov	 BYTE PTR [ebx+488], 0
  00c59	ff 15 00 00 00
	00		 call	 DWORD PTR __imp_??0ioHashString@@QAE@PBD@Z
  00c5f	83 65 fc 00	 and	 DWORD PTR __$EHRec$[ebp+8], 0
  00c63	83 ec 10	 sub	 esp, 16			; 00000010H
  00c66	8b cc		 mov	 ecx, esp
  00c68	89 65 84	 mov	 DWORD PTR $T531747[ebp], esp
  00c6b	56		 push	 esi
  00c6c	ff 15 00 00 00
	00		 call	 DWORD PTR __imp_??0ioHashString@@QAE@PBD@Z
  00c72	83 4d fc ff	 or	 DWORD PTR __$EHRec$[ebp+8], -1
  00c76	6a 00		 push	 0
  00c78	8b cf		 mov	 ecx, edi
  00c7a	e8 00 00 00 00	 call	 ?SetEnableHide@ioBaseChar@@QAEX_NVioHashString@@1@Z ; ioBaseChar::SetEnableHide

; 402  : 			pOwner->SetNoWoundState( false );

  00c7f	6a 00		 push	 0
  00c81	8b cf		 mov	 ecx, edi
  00c83	e8 00 00 00 00	 call	 ?SetNoWoundState@ioBaseChar@@QAEX_N@Z ; ioBaseChar::SetNoWoundState

; 403  : 			pOwner->SetEnableChangeTeam( false );

  00c88	6a 00		 push	 0
  00c8a	8b cf		 mov	 ecx, edi
  00c8c	e8 00 00 00 00	 call	 ?SetEnableChangeTeam@ioBaseChar@@QAEX_N@Z ; ioBaseChar::SetEnableChangeTeam

; 404  : 
; 405  : 			pOwner->SetChangeJumpMotion( false, "", "", "", 0.0f );

  00c91	56		 push	 esi
  00c92	8d 8d 44 ff ff
	ff		 lea	 ecx, DWORD PTR $T531748[ebp]
  00c98	ff 15 00 00 00
	00		 call	 DWORD PTR __imp_??0ioHashString@@QAE@PBD@Z
  00c9e	56		 push	 esi
  00c9f	8d 8d 04 ff ff
	ff		 lea	 ecx, DWORD PTR $T531749[ebp]
  00ca5	c7 45 fc 01 00
	00 00		 mov	 DWORD PTR __$EHRec$[ebp+8], 1
  00cac	ff 15 00 00 00
	00		 call	 DWORD PTR __imp_??0ioHashString@@QAE@PBD@Z
  00cb2	56		 push	 esi
  00cb3	8d 8d f4 fe ff
	ff		 lea	 ecx, DWORD PTR $T531750[ebp]
  00cb9	c6 45 fc 02	 mov	 BYTE PTR __$EHRec$[ebp+8], 2
  00cbd	ff 15 00 00 00
	00		 call	 DWORD PTR __imp_??0ioHashString@@QAE@PBD@Z
  00cc3	0f 57 c0	 xorps	 xmm0, xmm0
  00cc6	51		 push	 ecx
  00cc7	f3 0f 11 04 24	 movss	 DWORD PTR [esp], xmm0
  00ccc	8d 85 44 ff ff
	ff		 lea	 eax, DWORD PTR $T531748[ebp]
  00cd2	50		 push	 eax
  00cd3	8d 85 04 ff ff
	ff		 lea	 eax, DWORD PTR $T531749[ebp]
  00cd9	50		 push	 eax
  00cda	8d 85 f4 fe ff
	ff		 lea	 eax, DWORD PTR $T531750[ebp]
  00ce0	50		 push	 eax
  00ce1	6a 00		 push	 0
  00ce3	8b cf		 mov	 ecx, edi
  00ce5	c6 45 fc 03	 mov	 BYTE PTR __$EHRec$[ebp+8], 3
  00ce9	e8 00 00 00 00	 call	 ?SetChangeJumpMotion@ioBaseChar@@QAEX_NABVioHashString@@11M@Z ; ioBaseChar::SetChangeJumpMotion
  00cee	8b 35 00 00 00
	00		 mov	 esi, DWORD PTR __imp_??1ioHashString@@QAE@XZ
  00cf4	8d 8d f4 fe ff
	ff		 lea	 ecx, DWORD PTR $T531750[ebp]
  00cfa	c6 45 fc 02	 mov	 BYTE PTR __$EHRec$[ebp+8], 2
  00cfe	ff d6		 call	 esi
  00d00	8d 8d 04 ff ff
	ff		 lea	 ecx, DWORD PTR $T531749[ebp]
  00d06	c6 45 fc 01	 mov	 BYTE PTR __$EHRec$[ebp+8], 1
  00d0a	ff d6		 call	 esi
  00d0c	83 4d fc ff	 or	 DWORD PTR __$EHRec$[ebp+8], -1
  00d10	8d 8d 44 ff ff
	ff		 lea	 ecx, DWORD PTR $T531748[ebp]
  00d16	ff d6		 call	 esi

; 406  : 			pOwner->SetJumpAttackState();

  00d18	8b cf		 mov	 ecx, edi
  00d1a	e8 00 00 00 00	 call	 ?SetJumpAttackState@ioBaseChar@@QAEXXZ ; ioBaseChar::SetJumpAttackState

; 407  : 
; 408  : 			m_FlashJumpState = FJS_CHARGING;
; 409  : 			m_dwChargingStartTime = dwCurTime;

  00d1f	8b 85 ec fe ff
	ff		 mov	 eax, DWORD PTR _dwCurTime$[ebp]
  00d25	c7 83 24 01 00
	00 01 00 00 00	 mov	 DWORD PTR [ebx+292], 1
  00d2f	89 83 d0 01 00
	00		 mov	 DWORD PTR [ebx+464], eax
$LN414@ApplyJump:

; 410  : 
; 411  : 			pOwner->ApplyAutoTargetInfo( rkPacket );

  00d35	ff 75 8c	 push	 DWORD PTR _rkPacket$GSCopy$[ebp]
  00d38	8b cf		 mov	 ecx, edi
  00d3a	e8 00 00 00 00	 call	 ?ApplyAutoTargetInfo@ioBaseChar@@QAEXAAVSP2Packet@@@Z ; ioBaseChar::ApplyAutoTargetInfo
$LN13@ApplyJump:

; 592  : 	}
; 593  : }

  00d3f	e8 00 00 00 00	 call	 __EH_epilog3_GS
  00d44	c2 08 00	 ret	 8
_TEXT	ENDS
;	COMDAT text$x
text$x	SEGMENT
__unwindfunclet$?ApplyJump@ioChargeFlashJump@@UAEXPAVioBaseChar@@AAVSP2Packet@@@Z$16:
  00000	8d 8d d4 fe ff
	ff		 lea	 ecx, DWORD PTR $T532125[ebp]
  00006	ff 25 00 00 00
	00		 jmp	 DWORD PTR __imp_??1ioHashString@@QAE@XZ
__unwindfunclet$?ApplyJump@ioChargeFlashJump@@UAEXPAVioBaseChar@@AAVSP2Packet@@@Z$10:
  0000c	8b 4d 98	 mov	 ecx, DWORD PTR $T531756[ebp]
  0000f	ff 25 00 00 00
	00		 jmp	 DWORD PTR __imp_??1ioHashString@@QAE@XZ
__unwindfunclet$?ApplyJump@ioChargeFlashJump@@UAEXPAVioBaseChar@@AAVSP2Packet@@@Z$12:
  00015	8d 8d 54 ff ff
	ff		 lea	 ecx, DWORD PTR $T531758[ebp]
  0001b	ff 25 00 00 00
	00		 jmp	 DWORD PTR __imp_??1ioHashString@@QAE@XZ
__unwindfunclet$?ApplyJump@ioChargeFlashJump@@UAEXPAVioBaseChar@@AAVSP2Packet@@@Z$13:
  00021	8d 8d 24 ff ff
	ff		 lea	 ecx, DWORD PTR $T531759[ebp]
  00027	ff 25 00 00 00
	00		 jmp	 DWORD PTR __imp_??1ioHashString@@QAE@XZ
__unwindfunclet$?ApplyJump@ioChargeFlashJump@@UAEXPAVioBaseChar@@AAVSP2Packet@@@Z$14:
  0002d	8d 8d 74 ff ff
	ff		 lea	 ecx, DWORD PTR $T531760[ebp]
  00033	ff 25 00 00 00
	00		 jmp	 DWORD PTR __imp_??1ioHashString@@QAE@XZ
__unwindfunclet$?ApplyJump@ioChargeFlashJump@@UAEXPAVioBaseChar@@AAVSP2Packet@@@Z$15:
  00039	8d 8d c4 fe ff
	ff		 lea	 ecx, DWORD PTR $T531932[ebp]
  0003f	ff 25 00 00 00
	00		 jmp	 DWORD PTR __imp_??1ioHashString@@QAE@XZ
__unwindfunclet$?ApplyJump@ioChargeFlashJump@@UAEXPAVioBaseChar@@AAVSP2Packet@@@Z$5:
  00045	8b 4d 98	 mov	 ecx, DWORD PTR $T531751[ebp]
  00048	ff 25 00 00 00
	00		 jmp	 DWORD PTR __imp_??1ioHashString@@QAE@XZ
__unwindfunclet$?ApplyJump@ioChargeFlashJump@@UAEXPAVioBaseChar@@AAVSP2Packet@@@Z$7:
  0004e	8d 8d 14 ff ff
	ff		 lea	 ecx, DWORD PTR $T531753[ebp]
  00054	ff 25 00 00 00
	00		 jmp	 DWORD PTR __imp_??1ioHashString@@QAE@XZ
__unwindfunclet$?ApplyJump@ioChargeFlashJump@@UAEXPAVioBaseChar@@AAVSP2Packet@@@Z$8:
  0005a	8d 8d 64 ff ff
	ff		 lea	 ecx, DWORD PTR $T531754[ebp]
  00060	ff 25 00 00 00
	00		 jmp	 DWORD PTR __imp_??1ioHashString@@QAE@XZ
__unwindfunclet$?ApplyJump@ioChargeFlashJump@@UAEXPAVioBaseChar@@AAVSP2Packet@@@Z$9:
  00066	8d 8d 34 ff ff
	ff		 lea	 ecx, DWORD PTR $T531755[ebp]
  0006c	ff 25 00 00 00
	00		 jmp	 DWORD PTR __imp_??1ioHashString@@QAE@XZ
__unwindfunclet$?ApplyJump@ioChargeFlashJump@@UAEXPAVioBaseChar@@AAVSP2Packet@@@Z$0:
  00072	8b 4d 98	 mov	 ecx, DWORD PTR $T531746[ebp]
  00075	ff 25 00 00 00
	00		 jmp	 DWORD PTR __imp_??1ioHashString@@QAE@XZ
__unwindfunclet$?ApplyJump@ioChargeFlashJump@@UAEXPAVioBaseChar@@AAVSP2Packet@@@Z$2:
  0007b	8d 8d 44 ff ff
	ff		 lea	 ecx, DWORD PTR $T531748[ebp]
  00081	ff 25 00 00 00
	00		 jmp	 DWORD PTR __imp_??1ioHashString@@QAE@XZ
__unwindfunclet$?ApplyJump@ioChargeFlashJump@@UAEXPAVioBaseChar@@AAVSP2Packet@@@Z$3:
  00087	8d 8d 04 ff ff
	ff		 lea	 ecx, DWORD PTR $T531749[ebp]
  0008d	ff 25 00 00 00
	00		 jmp	 DWORD PTR __imp_??1ioHashString@@QAE@XZ
__unwindfunclet$?ApplyJump@ioChargeFlashJump@@UAEXPAVioBaseChar@@AAVSP2Packet@@@Z$4:
  00093	8d 8d f4 fe ff
	ff		 lea	 ecx, DWORD PTR $T531750[ebp]
  00099	ff 25 00 00 00
	00		 jmp	 DWORD PTR __imp_??1ioHashString@@QAE@XZ
__ehhandler$?ApplyJump@ioChargeFlashJump@@UAEXPAVioBaseChar@@AAVSP2Packet@@@Z:
  0009f	8b 54 24 08	 mov	 edx, DWORD PTR [esp+8]
  000a3	8d 42 0c	 lea	 eax, DWORD PTR [edx+12]
  000a6	8b 8a b0 fe ff
	ff		 mov	 ecx, DWORD PTR [edx-336]
  000ac	33 c8		 xor	 ecx, eax
  000ae	e8 00 00 00 00	 call	 @__security_check_cookie@4
  000b3	8b 4a fc	 mov	 ecx, DWORD PTR [edx-4]
  000b6	33 c8		 xor	 ecx, eax
  000b8	e8 00 00 00 00	 call	 @__security_check_cookie@4
  000bd	b8 00 00 00 00	 mov	 eax, OFFSET __ehfuncinfo$?ApplyJump@ioChargeFlashJump@@UAEXPAVioBaseChar@@AAVSP2Packet@@@Z
  000c2	e9 00 00 00 00	 jmp	 ___CxxFrameHandler3
text$x	ENDS
?ApplyJump@ioChargeFlashJump@@UAEXPAVioBaseChar@@AAVSP2Packet@@@Z ENDP ; ioChargeFlashJump::ApplyJump
PUBLIC	_pOwner$GSCopy$
PUBLIC	__$ArrayPad$
PUBLIC	?ProcessJumpping@ioChargeFlashJump@@UAEXPAVioBaseChar@@MM@Z ; ioChargeFlashJump::ProcessJumpping
EXTRN	??6SP2Packet@@QAEAAV0@M@Z:PROC			; SP2Packet::operator<<
EXTRN	?ActionDoubleJump@ioTutorialManager@@QAEXXZ:PROC ; ioTutorialManager::ActionDoubleJump
EXTRN	?GetSingleton@ioTutorialManager@@SAAAV1@XZ:PROC	; ioTutorialManager::GetSingleton
;	COMDAT xdata$x
; File d:\lost saga for developer\youtube\tutorial\source\src\lsclient\iobasechar.h
xdata$x	SEGMENT
__ehfuncinfo$?ProcessJumpping@ioChargeFlashJump@@UAEXPAVioBaseChar@@MM@Z DD 019930522H
	DD	05H
	DD	FLAT:__unwindtable$?ProcessJumpping@ioChargeFlashJump@@UAEXPAVioBaseChar@@MM@Z
	DD	2 DUP(00H)
	DD	2 DUP(00H)
	DD	00H
	DD	01H
__unwindtable$?ProcessJumpping@ioChargeFlashJump@@UAEXPAVioBaseChar@@MM@Z DD 0ffffffffH
	DD	FLAT:__unwindfunclet$?ProcessJumpping@ioChargeFlashJump@@UAEXPAVioBaseChar@@MM@Z$0
	DD	0ffffffffH
	DD	FLAT:__unwindfunclet$?ProcessJumpping@ioChargeFlashJump@@UAEXPAVioBaseChar@@MM@Z$2
	DD	01H
	DD	FLAT:__unwindfunclet$?ProcessJumpping@ioChargeFlashJump@@UAEXPAVioBaseChar@@MM@Z$3
	DD	02H
	DD	FLAT:__unwindfunclet$?ProcessJumpping@ioChargeFlashJump@@UAEXPAVioBaseChar@@MM@Z$4
	DD	0ffffffffH
	DD	FLAT:__unwindfunclet$?ProcessJumpping@ioChargeFlashJump@@UAEXPAVioBaseChar@@MM@Z$5
; Function compile flags: /Ogsp
; File d:\lost saga for developer\youtube\tutorial\source\src\lsclient\iochargeflashjump.cpp
xdata$x	ENDS
;	COMDAT ?ProcessJumpping@ioChargeFlashJump@@UAEXPAVioBaseChar@@MM@Z
_TEXT	SEGMENT
$T532346 = -32880					; size = 16
$T532345 = -32864					; size = 16
$T532344 = -32848					; size = 4
tv432 = -32844						; size = 4
tv414 = -32844						; size = 4
_value$532375 = -32844					; size = 4
_value$532365 = -32844					; size = 4
$T532343 = -32844					; size = 4
_pOwner$GSCopy$ = -32840				; size = 4
_kPacket$524302 = -32836				; size = 32792
$T532347 = -44						; size = 16
$T524294 = -40						; size = 12
_vJumpDir$524290 = -28					; size = 12
__$ArrayPad$ = -16					; size = 4
__$EHRec$ = -12						; size = 12
_pOwner$ = 8						; size = 4
_fHeightGap$ = 12					; size = 4
_fNeedGauge$ = 16					; size = 4
?ProcessJumpping@ioChargeFlashJump@@UAEXPAVioBaseChar@@MM@Z PROC ; ioChargeFlashJump::ProcessJumpping, COMDAT
; _this$ = ecx

; 683  : {

  00000	55		 push	 ebp
  00001	8b ec		 mov	 ebp, esp
  00003	6a ff		 push	 -1
  00005	68 00 00 00 00	 push	 __ehhandler$?ProcessJumpping@ioChargeFlashJump@@UAEXPAVioBaseChar@@MM@Z
  0000a	64 a1 00 00 00
	00		 mov	 eax, DWORD PTR fs:0
  00010	50		 push	 eax
  00011	b8 64 80 00 00	 mov	 eax, 32868		; 00008064H
  00016	e8 00 00 00 00	 call	 __chkstk
  0001b	a1 00 00 00 00	 mov	 eax, DWORD PTR ___security_cookie
  00020	33 c5		 xor	 eax, ebp
  00022	89 45 f0	 mov	 DWORD PTR __$ArrayPad$[ebp], eax
  00025	53		 push	 ebx
  00026	56		 push	 esi
  00027	57		 push	 edi
  00028	50		 push	 eax
  00029	8d 45 f4	 lea	 eax, DWORD PTR __$EHRec$[ebp]
  0002c	64 a3 00 00 00
	00		 mov	 DWORD PTR fs:0, eax
  00032	8b 75 08	 mov	 esi, DWORD PTR _pOwner$[ebp]
  00035	8b d9		 mov	 ebx, ecx

; 684  : 	// DashCheck
; 685  : 	if( m_bEnableJumpDash && IsCanDash( pOwner, fHeightGap ) )

  00037	80 bb cc 02 00
	00 00		 cmp	 BYTE PTR [ebx+716], 0

; 733  : 		}
; 734  : 	}
; 735  : 
; 736  : 	ProcessDash( pOwner );

  0003e	89 b5 b8 7f ff
	ff		 mov	 DWORD PTR _pOwner$GSCopy$[ebp], esi
  00044	74 2d		 je	 SHORT $LN6@ProcessJum

; 684  : 	// DashCheck
; 685  : 	if( m_bEnableJumpDash && IsCanDash( pOwner, fHeightGap ) )

  00046	f3 0f 10 45 0c	 movss	 xmm0, DWORD PTR _fHeightGap$[ebp]
  0004b	51		 push	 ecx
  0004c	f3 0f 11 04 24	 movss	 DWORD PTR [esp], xmm0
  00051	56		 push	 esi
  00052	e8 00 00 00 00	 call	 ?IsCanDash@ioChargeFlashJump@@IAE_NPAVioBaseChar@@M@Z ; ioChargeFlashJump::IsCanDash
  00057	84 c0		 test	 al, al
  00059	74 18		 je	 SHORT $LN6@ProcessJum

; 686  : 	{
; 687  : 		SetDash( pOwner, fHeightGap );

  0005b	f3 0f 10 45 0c	 movss	 xmm0, DWORD PTR _fHeightGap$[ebp]
  00060	51		 push	 ecx
  00061	f3 0f 11 04 24	 movss	 DWORD PTR [esp], xmm0
  00066	56		 push	 esi
  00067	8b cb		 mov	 ecx, ebx
  00069	e8 00 00 00 00	 call	 ?SetDash@ioChargeFlashJump@@IAEXPAVioBaseChar@@M@Z ; ioChargeFlashJump::SetDash

; 688  : 		return;

  0006e	e9 35 03 00 00	 jmp	 $LN7@ProcessJum
$LN6@ProcessJum:

; 689  : 	}
; 690  : 
; 691  : 	// DoubleJumpCheck
; 692  : 	if( IsCanDoubleJump( pOwner, fHeightGap ) )

  00073	f3 0f 10 45 0c	 movss	 xmm0, DWORD PTR _fHeightGap$[ebp]
  00078	51		 push	 ecx
  00079	f3 0f 11 04 24	 movss	 DWORD PTR [esp], xmm0
  0007e	56		 push	 esi
  0007f	8b cb		 mov	 ecx, ebx
  00081	e8 00 00 00 00	 call	 ?IsCanDoubleJump@ioChargeFlashJump@@IAE_NPAVioBaseChar@@M@Z ; ioChargeFlashJump::IsCanDoubleJump
  00086	84 c0		 test	 al, al
  00088	0f 84 12 03 00
	00		 je	 $LN1@ProcessJum

; 693  : 	{
; 694  : 		if( m_fDoubleJumpPower >= 0.0f )

  0008e	f3 0f 10 8b 8c
	02 00 00	 movss	 xmm1, DWORD PTR [ebx+652]
  00096	0f 57 c0	 xorps	 xmm0, xmm0
  00099	0f 2f c8	 comiss	 xmm1, xmm0
  0009c	0f 82 fe 02 00
	00		 jb	 $LN1@ProcessJum

; 695  : 		{
; 696  : 			m_FlashJumpState = FJS_DOUBLE;
; 697  : 
; 698  : 			m_bUsedDoubleJump = true;
; 699  : 			m_bUseExtendJump = true;
; 700  : 			m_iCurJumpCnt++;

  000a2	ff 83 c4 02 00
	00		 inc	 DWORD PTR [ebx+708]

; 701  : 
; 702  : 			pOwner->SetCurJumpPowerAmt( 0.0f );
; 703  : 			pOwner->SetForcePowerAmt( 0.0f );

  000a8	8d 85 b4 7f ff
	ff		 lea	 eax, DWORD PTR _value$532365[ebp]
  000ae	c7 83 24 01 00
	00 06 00 00 00	 mov	 DWORD PTR [ebx+292], 6
  000b8	c6 83 bc 02 00
	00 01		 mov	 BYTE PTR [ebx+700], 1
  000bf	c6 43 10 01	 mov	 BYTE PTR [ebx+16], 1
  000c3	50		 push	 eax
  000c4	8d 8e 88 0b 00
	00		 lea	 ecx, DWORD PTR [esi+2952]
  000ca	f3 0f 11 86 90
	0e 00 00	 movss	 DWORD PTR [esi+3728], xmm0
  000d2	f3 0f 11 85 b4
	7f ff ff	 movss	 DWORD PTR _value$532365[ebp], xmm0
  000da	e8 00 00 00 00	 call	 ?EncryptValueToPool@?$CEncrypt@M@@AAEXPBD@Z ; CEncrypt<float>::EncryptValueToPool

; 704  : 			pOwner->SetGravityAmt( 0.0f );

  000df	0f 57 c0	 xorps	 xmm0, xmm0
  000e2	8d 85 b4 7f ff
	ff		 lea	 eax, DWORD PTR _value$532375[ebp]
  000e8	50		 push	 eax
  000e9	8d 8e e8 0b 00
	00		 lea	 ecx, DWORD PTR [esi+3048]
  000ef	f3 0f 11 85 b4
	7f ff ff	 movss	 DWORD PTR _value$532375[ebp], xmm0
  000f7	e8 00 00 00 00	 call	 ?EncryptValueToPool@?$CEncrypt@M@@AAEXPBD@Z ; CEncrypt<float>::EncryptValueToPool

; 705  : 			pOwner->SetJumpPower( m_fDoubleJumpPower );

  000fc	f3 0f 10 83 8c
	02 00 00	 movss	 xmm0, DWORD PTR [ebx+652]
  00104	51		 push	 ecx
  00105	8b ce		 mov	 ecx, esi
  00107	f3 0f 11 04 24	 movss	 DWORD PTR [esp], xmm0
  0010c	e8 00 00 00 00	 call	 ?SetJumpPower@ioBaseChar@@QAEXM@Z ; ioBaseChar::SetJumpPower

; 706  : 
; 707  : 			D3DXVECTOR3 vJumpDir = pOwner->GetMoveDir();
; 708  : 			if( m_fDoubleJumpForce > 0.0f )

  00111	f3 0f 10 83 90
	02 00 00	 movss	 xmm0, DWORD PTR [ebx+656]
  00119	81 c6 b4 06 00
	00		 add	 esi, 1716		; 000006b4H
  0011f	0f 2f 05 00 00
	00 00		 comiss	 xmm0, DWORD PTR __real@00000000
  00126	8d 7d e4	 lea	 edi, DWORD PTR _vJumpDir$524290[ebp]
  00129	a5		 movsd
  0012a	a5		 movsd
  0012b	a5		 movsd
  0012c	76 44		 jbe	 SHORT $LN3@ProcessJum

; 709  : 				pOwner->SetForcePower( vJumpDir, fabs(m_fDoubleJumpForce), FLOAT1, true );

  0012e	b8 01 00 00 00	 mov	 eax, 1
  00133	f3 0f 10 83 90
	02 00 00	 movss	 xmm0, DWORD PTR [ebx+656]
  0013b	89 85 b4 7f ff
	ff		 mov	 DWORD PTR tv432[ebp], eax
  00141	db 85 b4 7f ff
	ff		 fild	 DWORD PTR tv432[ebp]
  00147	6a 01		 push	 1
  00149	85 c0		 test	 eax, eax
  0014b	79 06		 jns	 SHORT $LN50@ProcessJum
  0014d	d8 05 00 00 00
	00		 fadd	 DWORD PTR __real@4f800000
$LN50@ProcessJum:
  00153	51		 push	 ecx
  00154	51		 push	 ecx
  00155	0f 5a c0	 cvtps2pd xmm0, xmm0
  00158	d9 5c 24 04	 fstp	 DWORD PTR [esp+4]
  0015c	66 0f 54 05 00
	00 00 00	 andpd	 xmm0, QWORD PTR __mask@@AbsDouble@
  00164	f2 0f 5a c0	 cvtsd2ss xmm0, xmm0
  00168	f3 0f 11 04 24	 movss	 DWORD PTR [esp], xmm0
  0016d	8d 45 e4	 lea	 eax, DWORD PTR _vJumpDir$524290[ebp]

; 710  : 			else

  00170	eb 74		 jmp	 SHORT $LN52@ProcessJum
$LN3@ProcessJum:

; 711  : 				pOwner->SetForcePower( -vJumpDir, fabs(m_fDoubleJumpForce), FLOAT1, true );

  00172	b8 01 00 00 00	 mov	 eax, 1
  00177	f3 0f 10 83 90
	02 00 00	 movss	 xmm0, DWORD PTR [ebx+656]
  0017f	f3 0f 10 4d e4	 movss	 xmm1, DWORD PTR _vJumpDir$524290[ebp]
  00184	f3 0f 10 55 e8	 movss	 xmm2, DWORD PTR _vJumpDir$524290[ebp+4]
  00189	f3 0f 10 5d ec	 movss	 xmm3, DWORD PTR _vJumpDir$524290[ebp+8]
  0018e	0f 5a c0	 cvtps2pd xmm0, xmm0
  00191	66 0f 54 05 00
	00 00 00	 andpd	 xmm0, QWORD PTR __mask@@AbsDouble@
  00199	0f 57 e4	 xorps	 xmm4, xmm4
  0019c	f2 0f 5a e0	 cvtsd2ss xmm4, xmm0
  001a0	f3 0f 10 05 00
	00 00 00	 movss	 xmm0, DWORD PTR __mask@@NegFloat@
  001a8	0f 57 c8	 xorps	 xmm1, xmm0
  001ab	0f 57 d0	 xorps	 xmm2, xmm0
  001ae	0f 57 d8	 xorps	 xmm3, xmm0
  001b1	89 85 b4 7f ff
	ff		 mov	 DWORD PTR tv414[ebp], eax
  001b7	db 85 b4 7f ff
	ff		 fild	 DWORD PTR tv414[ebp]
  001bd	f3 0f 11 4d d8	 movss	 DWORD PTR $T524294[ebp], xmm1
  001c2	f3 0f 11 55 dc	 movss	 DWORD PTR $T524294[ebp+4], xmm2
  001c7	f3 0f 11 5d e0	 movss	 DWORD PTR $T524294[ebp+8], xmm3
  001cc	6a 01		 push	 1
  001ce	85 c0		 test	 eax, eax
  001d0	79 06		 jns	 SHORT $LN51@ProcessJum
  001d2	d8 05 00 00 00
	00		 fadd	 DWORD PTR __real@4f800000
$LN51@ProcessJum:
  001d8	51		 push	 ecx
  001d9	51		 push	 ecx
  001da	d9 5c 24 04	 fstp	 DWORD PTR [esp+4]
  001de	f3 0f 11 24 24	 movss	 DWORD PTR [esp], xmm4
  001e3	8d 45 d8	 lea	 eax, DWORD PTR $T524294[ebp]
$LN52@ProcessJum:
  001e6	8b 8d b8 7f ff
	ff		 mov	 ecx, DWORD PTR _pOwner$GSCopy$[ebp]
  001ec	50		 push	 eax
  001ed	e8 00 00 00 00	 call	 ?SetForcePower@ioBaseChar@@QAEXABUD3DXVECTOR3@@MM_N@Z ; ioBaseChar::SetForcePower

; 712  : 
; 713  : 			pOwner->SetEnableHide( false );

  001f2	8b 35 00 00 00
	00		 mov	 esi, DWORD PTR __imp_??0ioHashString@@QAE@PBD@Z
  001f8	83 ec 10	 sub	 esp, 16			; 00000010H
  001fb	8b cc		 mov	 ecx, esp
  001fd	89 a5 b4 7f ff
	ff		 mov	 DWORD PTR $T532343[ebp], esp
  00203	bf 00 00 00 00	 mov	 edi, OFFSET ??_C@_00CNPNBAHC@?$AA@
  00208	57		 push	 edi
  00209	ff d6		 call	 esi
  0020b	83 65 fc 00	 and	 DWORD PTR __$EHRec$[ebp+8], 0
  0020f	83 ec 10	 sub	 esp, 16			; 00000010H
  00212	8b cc		 mov	 ecx, esp
  00214	89 a5 b0 7f ff
	ff		 mov	 DWORD PTR $T532344[ebp], esp
  0021a	57		 push	 edi
  0021b	ff d6		 call	 esi
  0021d	8b 8d b8 7f ff
	ff		 mov	 ecx, DWORD PTR _pOwner$GSCopy$[ebp]
  00223	83 4d fc ff	 or	 DWORD PTR __$EHRec$[ebp+8], -1
  00227	6a 00		 push	 0
  00229	e8 00 00 00 00	 call	 ?SetEnableHide@ioBaseChar@@QAEX_NVioHashString@@1@Z ; ioBaseChar::SetEnableHide

; 714  : 			pOwner->SetEnableChangeTeam( false );

  0022e	8b 8d b8 7f ff
	ff		 mov	 ecx, DWORD PTR _pOwner$GSCopy$[ebp]
  00234	6a 00		 push	 0
  00236	e8 00 00 00 00	 call	 ?SetEnableChangeTeam@ioBaseChar@@QAEX_N@Z ; ioBaseChar::SetEnableChangeTeam

; 715  : 			pOwner->SetChangeJumpMotion( false, "", "", "", 0.0f );

  0023b	57		 push	 edi
  0023c	8d 8d a0 7f ff
	ff		 lea	 ecx, DWORD PTR $T532345[ebp]
  00242	ff d6		 call	 esi
  00244	57		 push	 edi
  00245	8d 8d 90 7f ff
	ff		 lea	 ecx, DWORD PTR $T532346[ebp]
  0024b	c7 45 fc 01 00
	00 00		 mov	 DWORD PTR __$EHRec$[ebp+8], 1
  00252	ff d6		 call	 esi
  00254	57		 push	 edi
  00255	8d 4d d4	 lea	 ecx, DWORD PTR $T532347[ebp]
  00258	c6 45 fc 02	 mov	 BYTE PTR __$EHRec$[ebp+8], 2
  0025c	ff d6		 call	 esi
  0025e	0f 57 c0	 xorps	 xmm0, xmm0
  00261	8b bd b8 7f ff
	ff		 mov	 edi, DWORD PTR _pOwner$GSCopy$[ebp]
  00267	51		 push	 ecx
  00268	f3 0f 11 04 24	 movss	 DWORD PTR [esp], xmm0
  0026d	8d 85 a0 7f ff
	ff		 lea	 eax, DWORD PTR $T532345[ebp]
  00273	50		 push	 eax
  00274	8d 85 90 7f ff
	ff		 lea	 eax, DWORD PTR $T532346[ebp]
  0027a	50		 push	 eax
  0027b	8d 45 d4	 lea	 eax, DWORD PTR $T532347[ebp]
  0027e	50		 push	 eax
  0027f	6a 00		 push	 0
  00281	8b cf		 mov	 ecx, edi
  00283	c6 45 fc 03	 mov	 BYTE PTR __$EHRec$[ebp+8], 3
  00287	e8 00 00 00 00	 call	 ?SetChangeJumpMotion@ioBaseChar@@QAEX_NABVioHashString@@11M@Z ; ioBaseChar::SetChangeJumpMotion
  0028c	8b 35 00 00 00
	00		 mov	 esi, DWORD PTR __imp_??1ioHashString@@QAE@XZ
  00292	8d 4d d4	 lea	 ecx, DWORD PTR $T532347[ebp]
  00295	c6 45 fc 02	 mov	 BYTE PTR __$EHRec$[ebp+8], 2
  00299	ff d6		 call	 esi
  0029b	8d 8d 90 7f ff
	ff		 lea	 ecx, DWORD PTR $T532346[ebp]
  002a1	c6 45 fc 01	 mov	 BYTE PTR __$EHRec$[ebp+8], 1
  002a5	ff d6		 call	 esi
  002a7	83 4d fc ff	 or	 DWORD PTR __$EHRec$[ebp+8], -1
  002ab	8d 8d a0 7f ff
	ff		 lea	 ecx, DWORD PTR $T532345[ebp]
  002b1	ff d6		 call	 esi

; 716  : 
; 717  : 			g_TutorialMgr.ActionDoubleJump();

  002b3	e8 00 00 00 00	 call	 ?GetSingleton@ioTutorialManager@@SAAAV1@XZ ; ioTutorialManager::GetSingleton
  002b8	8b c8		 mov	 ecx, eax
  002ba	e8 00 00 00 00	 call	 ?ActionDoubleJump@ioTutorialManager@@QAEXXZ ; ioTutorialManager::ActionDoubleJump

; 718  : 
; 719  : 			SetDoubleJumpAni( pOwner );

  002bf	57		 push	 edi
  002c0	8b cb		 mov	 ecx, ebx
  002c2	e8 00 00 00 00	 call	 ?SetDoubleJumpAni@ioChargeFlashJump@@IAEXPAVioBaseChar@@@Z ; ioChargeFlashJump::SetDoubleJumpAni

; 720  : 
; 721  : 			if( pOwner->IsNeedSendNetwork() )

  002c7	8b 07		 mov	 eax, DWORD PTR [edi]
  002c9	8b cf		 mov	 ecx, edi
  002cb	ff 90 04 01 00
	00		 call	 DWORD PTR [eax+260]
  002d1	84 c0		 test	 al, al
  002d3	0f 84 c5 00 00
	00		 je	 $LN48@ProcessJum

; 722  : 			{
; 723  : 				SP2Packet kPacket( CUPK_DOUBLE_JUMP );

  002d9	68 37 41 00 00	 push	 16695			; 00004137H
  002de	8d 8d bc 7f ff
	ff		 lea	 ecx, DWORD PTR _kPacket$524302[ebp]
  002e4	e8 00 00 00 00	 call	 ??0SP2Packet@@QAE@K@Z	; SP2Packet::SP2Packet

; 724  : 				kPacket << pOwner->GetCharName();

  002e9	8b f7		 mov	 esi, edi
  002eb	8d 86 d4 02 00
	00		 lea	 eax, DWORD PTR [esi+724]
  002f1	50		 push	 eax
  002f2	8d 8d bc 7f ff
	ff		 lea	 ecx, DWORD PTR _kPacket$524302[ebp]
  002f8	c7 45 fc 04 00
	00 00		 mov	 DWORD PTR __$EHRec$[ebp+8], 4
  002ff	e8 00 00 00 00	 call	 ??6SP2Packet@@QAEAAV0@ABVioHashString@@@Z ; SP2Packet::operator<<

; 725  : 				kPacket << (int)GetType();

  00304	8b 03		 mov	 eax, DWORD PTR [ebx]
  00306	8b cb		 mov	 ecx, ebx
  00308	ff 50 08	 call	 DWORD PTR [eax+8]
  0030b	50		 push	 eax
  0030c	8d 8d bc 7f ff
	ff		 lea	 ecx, DWORD PTR _kPacket$524302[ebp]
  00312	e8 00 00 00 00	 call	 ??6SP2Packet@@QAEAAV0@H@Z ; SP2Packet::operator<<

; 726  : 				kPacket << vJumpDir;

  00317	8d 45 e4	 lea	 eax, DWORD PTR _vJumpDir$524290[ebp]
  0031a	50		 push	 eax
  0031b	8d 8d bc 7f ff
	ff		 lea	 ecx, DWORD PTR _kPacket$524302[ebp]
  00321	e8 00 00 00 00	 call	 ??6SP2Packet@@QAEAAV0@ABUD3DXVECTOR3@@@Z ; SP2Packet::operator<<

; 727  : 				kPacket << (int)m_FlashJumpState;

  00326	ff b3 24 01 00
	00		 push	 DWORD PTR [ebx+292]
  0032c	8d 8d bc 7f ff
	ff		 lea	 ecx, DWORD PTR _kPacket$524302[ebp]
  00332	e8 00 00 00 00	 call	 ??6SP2Packet@@QAEAAV0@H@Z ; SP2Packet::operator<<

; 728  : 				kPacket << m_fDoubleJumpPower;

  00337	f3 0f 10 83 8c
	02 00 00	 movss	 xmm0, DWORD PTR [ebx+652]
  0033f	51		 push	 ecx
  00340	8d 8d bc 7f ff
	ff		 lea	 ecx, DWORD PTR _kPacket$524302[ebp]
  00346	f3 0f 11 04 24	 movss	 DWORD PTR [esp], xmm0
  0034b	e8 00 00 00 00	 call	 ??6SP2Packet@@QAEAAV0@M@Z ; SP2Packet::operator<<

; 729  : 				kPacket << m_fDoubleJumpForce;

  00350	f3 0f 10 83 90
	02 00 00	 movss	 xmm0, DWORD PTR [ebx+656]
  00358	51		 push	 ecx
  00359	8d 8d bc 7f ff
	ff		 lea	 ecx, DWORD PTR _kPacket$524302[ebp]
  0035f	f3 0f 11 04 24	 movss	 DWORD PTR [esp], xmm0
  00364	e8 00 00 00 00	 call	 ??6SP2Packet@@QAEAAV0@M@Z ; SP2Packet::operator<<

; 730  : 				kPacket << pOwner->GetTargetRot();

  00369	81 c6 a4 06 00
	00		 add	 esi, 1700		; 000006a4H
  0036f	56		 push	 esi
  00370	8d 8d bc 7f ff
	ff		 lea	 ecx, DWORD PTR _kPacket$524302[ebp]
  00376	e8 00 00 00 00	 call	 ??6SP2Packet@@QAEAAV0@ABUD3DXQUATERNION@@@Z ; SP2Packet::operator<<

; 731  : 				P2PNetwork::SendToAllPlayingUser( kPacket );

  0037b	8d 85 bc 7f ff
	ff		 lea	 eax, DWORD PTR _kPacket$524302[ebp]
  00381	6a 00		 push	 0
  00383	50		 push	 eax
  00384	e8 00 00 00 00	 call	 ?SendToAllPlayingUser@P2PNetwork@@YAXAAVSP2Packet@@PAVioBaseChar@@@Z ; P2PNetwork::SendToAllPlayingUser

; 732  : 			}

  00389	83 4d fc ff	 or	 DWORD PTR __$EHRec$[ebp+8], -1
  0038d	59		 pop	 ecx
  0038e	59		 pop	 ecx
  0038f	8d 8d bc 7f ff
	ff		 lea	 ecx, DWORD PTR _kPacket$524302[ebp]
  00395	e8 00 00 00 00	 call	 ??1SP2Packet@@UAE@XZ	; SP2Packet::~SP2Packet
  0039a	8b f7		 mov	 esi, edi
  0039c	eb 02		 jmp	 SHORT $LN1@ProcessJum
$LN48@ProcessJum:
  0039e	8b f7		 mov	 esi, edi
$LN1@ProcessJum:

; 733  : 		}
; 734  : 	}
; 735  : 
; 736  : 	ProcessDash( pOwner );

  003a0	56		 push	 esi
  003a1	8b cb		 mov	 ecx, ebx
  003a3	e8 00 00 00 00	 call	 ?ProcessDash@ioChargeFlashJump@@QAEXPAVioBaseChar@@@Z ; ioChargeFlashJump::ProcessDash
$LN7@ProcessJum:

; 737  : }

  003a8	8b 4d f4	 mov	 ecx, DWORD PTR __$EHRec$[ebp]
  003ab	64 89 0d 00 00
	00 00		 mov	 DWORD PTR fs:0, ecx
  003b2	59		 pop	 ecx
  003b3	5f		 pop	 edi
  003b4	5e		 pop	 esi
  003b5	5b		 pop	 ebx
  003b6	8b 4d f0	 mov	 ecx, DWORD PTR __$ArrayPad$[ebp]
  003b9	33 cd		 xor	 ecx, ebp
  003bb	e8 00 00 00 00	 call	 @__security_check_cookie@4
  003c0	c9		 leave
  003c1	c2 0c 00	 ret	 12			; 0000000cH
_TEXT	ENDS
;	COMDAT text$x
text$x	SEGMENT
__unwindfunclet$?ProcessJumpping@ioChargeFlashJump@@UAEXPAVioBaseChar@@MM@Z$0:
  00000	8b 8d b4 7f ff
	ff		 mov	 ecx, DWORD PTR $T532343[ebp]
  00006	ff 25 00 00 00
	00		 jmp	 DWORD PTR __imp_??1ioHashString@@QAE@XZ
__unwindfunclet$?ProcessJumpping@ioChargeFlashJump@@UAEXPAVioBaseChar@@MM@Z$2:
  0000c	8d 8d a0 7f ff
	ff		 lea	 ecx, DWORD PTR $T532345[ebp]
  00012	ff 25 00 00 00
	00		 jmp	 DWORD PTR __imp_??1ioHashString@@QAE@XZ
__unwindfunclet$?ProcessJumpping@ioChargeFlashJump@@UAEXPAVioBaseChar@@MM@Z$3:
  00018	8d 8d 90 7f ff
	ff		 lea	 ecx, DWORD PTR $T532346[ebp]
  0001e	ff 25 00 00 00
	00		 jmp	 DWORD PTR __imp_??1ioHashString@@QAE@XZ
__unwindfunclet$?ProcessJumpping@ioChargeFlashJump@@UAEXPAVioBaseChar@@MM@Z$4:
  00024	8d 4d d4	 lea	 ecx, DWORD PTR $T532347[ebp]
  00027	ff 25 00 00 00
	00		 jmp	 DWORD PTR __imp_??1ioHashString@@QAE@XZ
__unwindfunclet$?ProcessJumpping@ioChargeFlashJump@@UAEXPAVioBaseChar@@MM@Z$5:
  0002d	8d 8d bc 7f ff
	ff		 lea	 ecx, DWORD PTR _kPacket$524302[ebp]
  00033	e9 00 00 00 00	 jmp	 ??1SP2Packet@@UAE@XZ	; SP2Packet::~SP2Packet
__ehhandler$?ProcessJumpping@ioChargeFlashJump@@UAEXPAVioBaseChar@@MM@Z:
  00038	8b 54 24 08	 mov	 edx, DWORD PTR [esp+8]
  0003c	8d 42 0c	 lea	 eax, DWORD PTR [edx+12]
  0003f	8b 8a 8c 7f ff
	ff		 mov	 ecx, DWORD PTR [edx-32884]
  00045	33 c8		 xor	 ecx, eax
  00047	e8 00 00 00 00	 call	 @__security_check_cookie@4
  0004c	8b 4a fc	 mov	 ecx, DWORD PTR [edx-4]
  0004f	33 c8		 xor	 ecx, eax
  00051	e8 00 00 00 00	 call	 @__security_check_cookie@4
  00056	b8 00 00 00 00	 mov	 eax, OFFSET __ehfuncinfo$?ProcessJumpping@ioChargeFlashJump@@UAEXPAVioBaseChar@@MM@Z
  0005b	e9 00 00 00 00	 jmp	 ___CxxFrameHandler3
text$x	ENDS
?ProcessJumpping@ioChargeFlashJump@@UAEXPAVioBaseChar@@MM@Z ENDP ; ioChargeFlashJump::ProcessJumpping
PUBLIC	??$_Uninit_copy@V?$_Vector_const_iterator@V?$_Vector_val@UForceInfo@@V?$allocator@UForceInfo@@@std@@@std@@@std@@PAUForceInfo@@V?$allocator@UForceInfo@@@2@@std@@YAPAUForceInfo@@V?$_Vector_const_iterator@V?$_Vector_val@UForceInfo@@V?$allocator@UForceInfo@@@std@@@std@@@0@0PAU1@AAV?$allocator@UForceInfo@@@0@U_Nonscalar_ptr_iterator_tag@0@@Z ; std::_Uninit_copy<std::_Vector_const_iterator<std::_Vector_val<ForceInfo,std::allocator<ForceInfo> > >,ForceInfo *,std::allocator<ForceInfo> >
; Function compile flags: /Ogsp
; File c:\program files (x86)\microsoft visual studio 10.0\vc\include\memory
;	COMDAT ??$_Uninit_copy@V?$_Vector_const_iterator@V?$_Vector_val@UForceInfo@@V?$allocator@UForceInfo@@@std@@@std@@@std@@PAUForceInfo@@V?$allocator@UForceInfo@@@2@@std@@YAPAUForceInfo@@V?$_Vector_const_iterator@V?$_Vector_val@UForceInfo@@V?$allocator@UForceInfo@@@std@@@std@@@0@0PAU1@AAV?$allocator@UForceInfo@@@0@U_Nonscalar_ptr_iterator_tag@0@@Z
_TEXT	SEGMENT
__First$ = 8						; size = 4
__Last$ = 12						; size = 4
__Dest$ = 16						; size = 4
__Al$ = 20						; size = 4
___formal$ = 24						; size = 1
??$_Uninit_copy@V?$_Vector_const_iterator@V?$_Vector_val@UForceInfo@@V?$allocator@UForceInfo@@@std@@@std@@@std@@PAUForceInfo@@V?$allocator@UForceInfo@@@2@@std@@YAPAUForceInfo@@V?$_Vector_const_iterator@V?$_Vector_val@UForceInfo@@V?$allocator@UForceInfo@@@std@@@std@@@0@0PAU1@AAV?$allocator@UForceInfo@@@0@U_Nonscalar_ptr_iterator_tag@0@@Z PROC ; std::_Uninit_copy<std::_Vector_const_iterator<std::_Vector_val<ForceInfo,std::allocator<ForceInfo> > >,ForceInfo *,std::allocator<ForceInfo> >, COMDAT

; 369  : 	{	// copy [_First, _Last) to raw _Dest, using _Al, arbitrary type

  00000	55		 push	 ebp
  00001	8b ec		 mov	 ebp, esp

; 370  : 	_DEBUG_RANGE(_First, _Last);
; 371  : 	_DEBUG_POINTER(_Dest);
; 372  : 	_FwdIt _Next = _Dest;
; 373  : 
; 374  : 	_TRY_BEGIN
; 375  : 	for (; _First != _Last; ++_Dest, ++_First)

  00003	eb 19		 jmp	 SHORT $LN35@Uninit_cop
$LL14@Uninit_cop:

; 376  : 		_Cons_val(_Al, _Dest, *_First);

  00005	ff 75 08	 push	 DWORD PTR __First$[ebp]
  00008	ff 75 10	 push	 DWORD PTR __Dest$[ebp]
  0000b	ff 75 14	 push	 DWORD PTR __Al$[ebp]
  0000e	e8 00 00 00 00	 call	 ??$_Cons_val@V?$allocator@UForceInfo@@@std@@UForceInfo@@ABU3@@std@@YAXAAV?$allocator@UForceInfo@@@0@PAUForceInfo@@ABU2@@Z ; std::_Cons_val<std::allocator<ForceInfo>,ForceInfo,ForceInfo const &>
  00013	83 45 10 0c	 add	 DWORD PTR __Dest$[ebp], 12 ; 0000000cH
  00017	83 c4 0c	 add	 esp, 12			; 0000000cH
  0001a	83 45 08 0c	 add	 DWORD PTR __First$[ebp], 12 ; 0000000cH
$LN35@Uninit_cop:

; 370  : 	_DEBUG_RANGE(_First, _Last);
; 371  : 	_DEBUG_POINTER(_Dest);
; 372  : 	_FwdIt _Next = _Dest;
; 373  : 
; 374  : 	_TRY_BEGIN
; 375  : 	for (; _First != _Last; ++_Dest, ++_First)

  0001e	8b 45 08	 mov	 eax, DWORD PTR __First$[ebp]
  00021	3b 45 0c	 cmp	 eax, DWORD PTR __Last$[ebp]
  00024	75 df		 jne	 SHORT $LL14@Uninit_cop

; 377  : 	_CATCH_ALL
; 378  : 	for (; _Next != _Dest; ++_Next)
; 379  : 		_Dest_val(_Al, _Next);
; 380  : 	_RERAISE;
; 381  : 	_CATCH_END
; 382  : 	return (_Dest);

  00026	8b 45 10	 mov	 eax, DWORD PTR __Dest$[ebp]

; 383  : 	}

  00029	5d		 pop	 ebp
  0002a	c3		 ret	 0
??$_Uninit_copy@V?$_Vector_const_iterator@V?$_Vector_val@UForceInfo@@V?$allocator@UForceInfo@@@std@@@std@@@std@@PAUForceInfo@@V?$allocator@UForceInfo@@@2@@std@@YAPAUForceInfo@@V?$_Vector_const_iterator@V?$_Vector_val@UForceInfo@@V?$allocator@UForceInfo@@@std@@@std@@@0@0PAU1@AAV?$allocator@UForceInfo@@@0@U_Nonscalar_ptr_iterator_tag@0@@Z ENDP ; std::_Uninit_copy<std::_Vector_const_iterator<std::_Vector_val<ForceInfo,std::allocator<ForceInfo> > >,ForceInfo *,std::allocator<ForceInfo> >
_TEXT	ENDS
PUBLIC	??$_Cons_val@V?$allocator@UWeaponInfo@@@std@@UWeaponInfo@@ABU3@@std@@YAXAAV?$allocator@UWeaponInfo@@@0@PAUWeaponInfo@@ABU2@@Z ; std::_Cons_val<std::allocator<WeaponInfo>,WeaponInfo,WeaponInfo const &>
; Function compile flags: /Ogsp
; File c:\program files (x86)\microsoft visual studio 10.0\vc\include\xmemory
;	COMDAT ??$_Cons_val@V?$allocator@UWeaponInfo@@@std@@UWeaponInfo@@ABU3@@std@@YAXAAV?$allocator@UWeaponInfo@@@0@PAUWeaponInfo@@ABU2@@Z
_TEXT	SEGMENT
__Alval$ = 8						; size = 4
__Pdest$ = 12						; size = 4
__Src$ = 16						; size = 4
??$_Cons_val@V?$allocator@UWeaponInfo@@@std@@UWeaponInfo@@ABU3@@std@@YAXAAV?$allocator@UWeaponInfo@@@0@PAUWeaponInfo@@ABU2@@Z PROC ; std::_Cons_val<std::allocator<WeaponInfo>,WeaponInfo,WeaponInfo const &>, COMDAT

; 279  : 	{	// construct using allocator

  00000	55		 push	 ebp
  00001	8b ec		 mov	 ebp, esp

; 280  : 	_Alval.construct(_Pdest, _STD forward<_Ty2>(_Src));

  00003	ff 75 10	 push	 DWORD PTR __Src$[ebp]
  00006	ff 75 0c	 push	 DWORD PTR __Pdest$[ebp]
  00009	e8 00 00 00 00	 call	 ??$_Construct@UWeaponInfo@@ABU1@@std@@YAXPAUWeaponInfo@@ABU1@@Z ; std::_Construct<WeaponInfo,WeaponInfo const &>
  0000e	59		 pop	 ecx
  0000f	59		 pop	 ecx

; 281  : 	}

  00010	5d		 pop	 ebp
  00011	c3		 ret	 0
??$_Cons_val@V?$allocator@UWeaponInfo@@@std@@UWeaponInfo@@ABU3@@std@@YAXAAV?$allocator@UWeaponInfo@@@0@PAUWeaponInfo@@ABU2@@Z ENDP ; std::_Cons_val<std::allocator<WeaponInfo>,WeaponInfo,WeaponInfo const &>
_TEXT	ENDS
PUBLIC	??$_Destroy_range@V?$allocator@UForceInfo@@@std@@@std@@YAXPAUForceInfo@@0AAV?$allocator@UForceInfo@@@0@U_Nonscalar_ptr_iterator_tag@0@@Z ; std::_Destroy_range<std::allocator<ForceInfo> >
; Function compile flags: /Ogsp
;	COMDAT ??$_Destroy_range@V?$allocator@UForceInfo@@@std@@@std@@YAXPAUForceInfo@@0AAV?$allocator@UForceInfo@@@0@U_Nonscalar_ptr_iterator_tag@0@@Z
_TEXT	SEGMENT
__First$ = 8						; size = 4
__Last$ = 12						; size = 4
__Al$ = 16						; size = 4
___formal$ = 20						; size = 1
??$_Destroy_range@V?$allocator@UForceInfo@@@std@@@std@@YAXPAUForceInfo@@0AAV?$allocator@UForceInfo@@@0@U_Nonscalar_ptr_iterator_tag@0@@Z PROC ; std::_Destroy_range<std::allocator<ForceInfo> >, COMDAT

; 96   : 	for (; _First != _Last; ++_First)
; 97   : 		_Dest_val(_Al, _First);
; 98   : 	}

  00000	c3		 ret	 0
??$_Destroy_range@V?$allocator@UForceInfo@@@std@@@std@@YAXPAUForceInfo@@0AAV?$allocator@UForceInfo@@@0@U_Nonscalar_ptr_iterator_tag@0@@Z ENDP ; std::_Destroy_range<std::allocator<ForceInfo> >
_TEXT	ENDS
PUBLIC	??$_Dest_val@V?$allocator@VioHashString@@@std@@VioHashString@@@std@@YAXAAV?$allocator@VioHashString@@@0@PAVioHashString@@@Z ; std::_Dest_val<std::allocator<ioHashString>,ioHashString>
; Function compile flags: /Ogsp
;	COMDAT ??$_Dest_val@V?$allocator@VioHashString@@@std@@VioHashString@@@std@@YAXAAV?$allocator@VioHashString@@@0@PAVioHashString@@@Z
_TEXT	SEGMENT
__Alval$ = 8						; size = 4
__Pdest$ = 12						; size = 4
??$_Dest_val@V?$allocator@VioHashString@@@std@@VioHashString@@@std@@YAXAAV?$allocator@VioHashString@@@0@PAVioHashString@@@Z PROC ; std::_Dest_val<std::allocator<ioHashString>,ioHashString>, COMDAT

; 286  : 	{	// destroy using allocator

  00000	55		 push	 ebp
  00001	8b ec		 mov	 ebp, esp

; 287  : 	_Alval.destroy(_Pdest);

  00003	8b 4d 0c	 mov	 ecx, DWORD PTR __Pdest$[ebp]

; 288  : 	}

  00006	5d		 pop	 ebp

; 287  : 	_Alval.destroy(_Pdest);

  00007	ff 25 00 00 00
	00		 jmp	 DWORD PTR __imp_??1ioHashString@@QAE@XZ
??$_Dest_val@V?$allocator@VioHashString@@@std@@VioHashString@@@std@@YAXAAV?$allocator@VioHashString@@@0@PAVioHashString@@@Z ENDP ; std::_Dest_val<std::allocator<ioHashString>,ioHashString>
_TEXT	ENDS
PUBLIC	??$_Dest_val@V?$allocator@UWeaponInfo@@@std@@UWeaponInfo@@@std@@YAXAAV?$allocator@UWeaponInfo@@@0@PAUWeaponInfo@@@Z ; std::_Dest_val<std::allocator<WeaponInfo>,WeaponInfo>
; Function compile flags: /Ogsp
;	COMDAT ??$_Dest_val@V?$allocator@UWeaponInfo@@@std@@UWeaponInfo@@@std@@YAXAAV?$allocator@UWeaponInfo@@@0@PAUWeaponInfo@@@Z
_TEXT	SEGMENT
__Alval$ = 8						; size = 4
__Pdest$ = 12						; size = 4
??$_Dest_val@V?$allocator@UWeaponInfo@@@std@@UWeaponInfo@@@std@@YAXAAV?$allocator@UWeaponInfo@@@0@PAUWeaponInfo@@@Z PROC ; std::_Dest_val<std::allocator<WeaponInfo>,WeaponInfo>, COMDAT

; 286  : 	{	// destroy using allocator

  00000	55		 push	 ebp
  00001	8b ec		 mov	 ebp, esp

; 287  : 	_Alval.destroy(_Pdest);

  00003	8b 4d 0c	 mov	 ecx, DWORD PTR __Pdest$[ebp]
  00006	83 c1 08	 add	 ecx, 8

; 288  : 	}

  00009	5d		 pop	 ebp

; 287  : 	_Alval.destroy(_Pdest);

  0000a	ff 25 00 00 00
	00		 jmp	 DWORD PTR __imp_??1ioHashString@@QAE@XZ
??$_Dest_val@V?$allocator@UWeaponInfo@@@std@@UWeaponInfo@@@std@@YAXAAV?$allocator@UWeaponInfo@@@0@PAUWeaponInfo@@@Z ENDP ; std::_Dest_val<std::allocator<WeaponInfo>,WeaponInfo>
_TEXT	ENDS
PUBLIC	?ProcessJumpAttack@ioChargeFlashJump@@UAEXPAVioBaseChar@@M@Z ; ioChargeFlashJump::ProcessJumpAttack
; Function compile flags: /Ogsp
; File d:\lost saga for developer\youtube\tutorial\source\src\lsclient\iochargeflashjump.cpp
;	COMDAT ?ProcessJumpAttack@ioChargeFlashJump@@UAEXPAVioBaseChar@@M@Z
_TEXT	SEGMENT
_pOwner$ = 8						; size = 4
_fHeightGap$ = 12					; size = 4
?ProcessJumpAttack@ioChargeFlashJump@@UAEXPAVioBaseChar@@M@Z PROC ; ioChargeFlashJump::ProcessJumpAttack, COMDAT
; _this$ = ecx

; 270  : {

  00000	55		 push	 ebp
  00001	8b ec		 mov	 ebp, esp

; 271  : 	switch( m_FlashJumpState )

  00003	8b 81 24 01 00
	00		 mov	 eax, DWORD PTR [ecx+292]
  00009	48		 dec	 eax
  0000a	74 27		 je	 SHORT $LN5@ProcessJum@2
  0000c	48		 dec	 eax
  0000d	74 1a		 je	 SHORT $LN1@ProcessJum@2
  0000f	48		 dec	 eax
  00010	74 0d		 je	 SHORT $LN4@ProcessJum@2
  00012	48		 dec	 eax
  00013	75 26		 jne	 SHORT $LN6@ProcessJum@2

; 279  : 	case FJS_FLASH:
; 280  : 		ProcessFlashMove( pOwner );

  00015	ff 75 08	 push	 DWORD PTR _pOwner$[ebp]
  00018	e8 00 00 00 00	 call	 ?ProcessFlashMove@ioChargeFlashJump@@IAEXPAVioBaseChar@@@Z ; ioChargeFlashJump::ProcessFlashMove

; 281  : 		break;

  0001d	eb 1c		 jmp	 SHORT $LN6@ProcessJum@2
$LN4@ProcessJum@2:

; 275  : 		break;
; 276  : 	case FJS_DELAY:
; 277  : 		ProcessDelay( pOwner );

  0001f	ff 75 08	 push	 DWORD PTR _pOwner$[ebp]
  00022	e8 00 00 00 00	 call	 ?ProcessDelay@ioChargeFlashJump@@IAEXPAVioBaseChar@@@Z ; ioChargeFlashJump::ProcessDelay

; 278  : 		break;

  00027	eb 12		 jmp	 SHORT $LN6@ProcessJum@2
$LN1@ProcessJum@2:

; 282  : 	case FJS_NORMAL:
; 283  : 		ProcessNormalMove( pOwner );
; 284  : 		break;
; 285  : 	case FJS_EXTEND_ATTACK:
; 286  : 		CheckAirJump( pOwner );

  00029	ff 75 08	 push	 DWORD PTR _pOwner$[ebp]
  0002c	8b 01		 mov	 eax, DWORD PTR [ecx]
  0002e	ff 50 7c	 call	 DWORD PTR [eax+124]

; 287  : 		break;

  00031	eb 08		 jmp	 SHORT $LN6@ProcessJum@2
$LN5@ProcessJum@2:

; 272  : 	{
; 273  : 	case FJS_CHARGING:
; 274  : 		ProcessCharging( pOwner );

  00033	ff 75 08	 push	 DWORD PTR _pOwner$[ebp]
  00036	e8 00 00 00 00	 call	 ?ProcessCharging@ioChargeFlashJump@@IAEXPAVioBaseChar@@@Z ; ioChargeFlashJump::ProcessCharging
$LN6@ProcessJum@2:

; 288  : 	}
; 289  : }

  0003b	5d		 pop	 ebp
  0003c	c2 08 00	 ret	 8
?ProcessJumpAttack@ioChargeFlashJump@@UAEXPAVioBaseChar@@M@Z ENDP ; ioChargeFlashJump::ProcessJumpAttack
_TEXT	ENDS
PUBLIC	??$_Uninitialized_copy@V?$_Vector_const_iterator@V?$_Vector_val@UForceInfo@@V?$allocator@UForceInfo@@@std@@@std@@@std@@PAUForceInfo@@V?$allocator@UForceInfo@@@2@@std@@YAPAUForceInfo@@V?$_Vector_const_iterator@V?$_Vector_val@UForceInfo@@V?$allocator@UForceInfo@@@std@@@std@@@0@0PAU1@AAV?$allocator@UForceInfo@@@0@@Z ; std::_Uninitialized_copy<std::_Vector_const_iterator<std::_Vector_val<ForceInfo,std::allocator<ForceInfo> > >,ForceInfo *,std::allocator<ForceInfo> >
; Function compile flags: /Ogsp
; File c:\program files (x86)\microsoft visual studio 10.0\vc\include\memory
;	COMDAT ??$_Uninitialized_copy@V?$_Vector_const_iterator@V?$_Vector_val@UForceInfo@@V?$allocator@UForceInfo@@@std@@@std@@@std@@PAUForceInfo@@V?$allocator@UForceInfo@@@2@@std@@YAPAUForceInfo@@V?$_Vector_const_iterator@V?$_Vector_val@UForceInfo@@V?$allocator@UForceInfo@@@std@@@std@@@0@0PAU1@AAV?$allocator@UForceInfo@@@0@@Z
_TEXT	SEGMENT
__Cat$532585 = -4					; size = 1
__First$ = 8						; size = 4
__Last$ = 12						; size = 4
__Dest$ = 16						; size = 4
__Al$ = 20						; size = 4
??$_Uninitialized_copy@V?$_Vector_const_iterator@V?$_Vector_val@UForceInfo@@V?$allocator@UForceInfo@@@std@@@std@@@std@@PAUForceInfo@@V?$allocator@UForceInfo@@@2@@std@@YAPAUForceInfo@@V?$_Vector_const_iterator@V?$_Vector_val@UForceInfo@@V?$allocator@UForceInfo@@@std@@@std@@@0@0PAU1@AAV?$allocator@UForceInfo@@@0@@Z PROC ; std::_Uninitialized_copy<std::_Vector_const_iterator<std::_Vector_val<ForceInfo,std::allocator<ForceInfo> > >,ForceInfo *,std::allocator<ForceInfo> >, COMDAT

; 412  : 	{	// copy [_First, _Last) to raw _Dest, using _Al

  00000	55		 push	 ebp
  00001	8b ec		 mov	 ebp, esp
  00003	51		 push	 ecx

; 413  : 	return (_Uninit_copy(_First, _Last, _Dest, _Al,
; 414  : 		_Ptr_cat(_First, _Dest)));

  00004	ff 75 fc	 push	 DWORD PTR __Cat$532585[ebp]
  00007	ff 75 14	 push	 DWORD PTR __Al$[ebp]
  0000a	ff 75 10	 push	 DWORD PTR __Dest$[ebp]
  0000d	ff 75 0c	 push	 DWORD PTR __Last$[ebp]
  00010	ff 75 08	 push	 DWORD PTR __First$[ebp]
  00013	e8 00 00 00 00	 call	 ??$_Uninit_copy@V?$_Vector_const_iterator@V?$_Vector_val@UForceInfo@@V?$allocator@UForceInfo@@@std@@@std@@@std@@PAUForceInfo@@V?$allocator@UForceInfo@@@2@@std@@YAPAUForceInfo@@V?$_Vector_const_iterator@V?$_Vector_val@UForceInfo@@V?$allocator@UForceInfo@@@std@@@std@@@0@0PAU1@AAV?$allocator@UForceInfo@@@0@U_Nonscalar_ptr_iterator_tag@0@@Z ; std::_Uninit_copy<std::_Vector_const_iterator<std::_Vector_val<ForceInfo,std::allocator<ForceInfo> > >,ForceInfo *,std::allocator<ForceInfo> >
  00018	83 c4 14	 add	 esp, 20			; 00000014H

; 415  : 	}

  0001b	c9		 leave
  0001c	c3		 ret	 0
??$_Uninitialized_copy@V?$_Vector_const_iterator@V?$_Vector_val@UForceInfo@@V?$allocator@UForceInfo@@@std@@@std@@@std@@PAUForceInfo@@V?$allocator@UForceInfo@@@2@@std@@YAPAUForceInfo@@V?$_Vector_const_iterator@V?$_Vector_val@UForceInfo@@V?$allocator@UForceInfo@@@std@@@std@@@0@0PAU1@AAV?$allocator@UForceInfo@@@0@@Z ENDP ; std::_Uninitialized_copy<std::_Vector_const_iterator<std::_Vector_val<ForceInfo,std::allocator<ForceInfo> > >,ForceInfo *,std::allocator<ForceInfo> >
_TEXT	ENDS
PUBLIC	??$_Uninit_move@PAVioHashString@@PAV1@V?$allocator@VioHashString@@@std@@V1@@std@@YAPAVioHashString@@PAV1@00AAV?$allocator@VioHashString@@@0@0U_Nonscalar_ptr_iterator_tag@0@@Z ; std::_Uninit_move<ioHashString *,ioHashString *,std::allocator<ioHashString>,ioHashString>
EXTRN	__EH_prolog3_catch:PROC
;	COMDAT xdata$x
; File c:\program files (x86)\microsoft visual studio 10.0\vc\include\vector
xdata$x	SEGMENT
__catchsym$??$_Uninit_move@PAVioHashString@@PAV1@V?$allocator@VioHashString@@@std@@V1@@std@@YAPAVioHashString@@PAV1@00AAV?$allocator@VioHashString@@@0@0U_Nonscalar_ptr_iterator_tag@0@@Z$2 DD 040H
	DD	00H
	DD	00H
	DD	FLAT:__catch$??$_Uninit_move@PAVioHashString@@PAV1@V?$allocator@VioHashString@@@std@@V1@@std@@YAPAVioHashString@@PAV1@00AAV?$allocator@VioHashString@@@0@0U_Nonscalar_ptr_iterator_tag@0@@Z$0
__unwindtable$??$_Uninit_move@PAVioHashString@@PAV1@V?$allocator@VioHashString@@@std@@V1@@std@@YAPAVioHashString@@PAV1@00AAV?$allocator@VioHashString@@@0@0U_Nonscalar_ptr_iterator_tag@0@@Z DD 0ffffffffH
	DD	00H
	DD	0ffffffffH
	DD	00H
__tryblocktable$??$_Uninit_move@PAVioHashString@@PAV1@V?$allocator@VioHashString@@@std@@V1@@std@@YAPAVioHashString@@PAV1@00AAV?$allocator@VioHashString@@@0@0U_Nonscalar_ptr_iterator_tag@0@@Z DD 00H
	DD	00H
	DD	01H
	DD	01H
	DD	FLAT:__catchsym$??$_Uninit_move@PAVioHashString@@PAV1@V?$allocator@VioHashString@@@std@@V1@@std@@YAPAVioHashString@@PAV1@00AAV?$allocator@VioHashString@@@0@0U_Nonscalar_ptr_iterator_tag@0@@Z$2
__ehfuncinfo$??$_Uninit_move@PAVioHashString@@PAV1@V?$allocator@VioHashString@@@std@@V1@@std@@YAPAVioHashString@@PAV1@00AAV?$allocator@VioHashString@@@0@0U_Nonscalar_ptr_iterator_tag@0@@Z DD 019930522H
	DD	02H
	DD	FLAT:__unwindtable$??$_Uninit_move@PAVioHashString@@PAV1@V?$allocator@VioHashString@@@std@@V1@@std@@YAPAVioHashString@@PAV1@00AAV?$allocator@VioHashString@@@0@0U_Nonscalar_ptr_iterator_tag@0@@Z
	DD	01H
	DD	FLAT:__tryblocktable$??$_Uninit_move@PAVioHashString@@PAV1@V?$allocator@VioHashString@@@std@@V1@@std@@YAPAVioHashString@@PAV1@00AAV?$allocator@VioHashString@@@0@0U_Nonscalar_ptr_iterator_tag@0@@Z
	DD	2 DUP(00H)
	DD	00H
	DD	01H
; Function compile flags: /Ogsp
; File c:\program files (x86)\microsoft visual studio 10.0\vc\include\memory
xdata$x	ENDS
;	COMDAT ??$_Uninit_move@PAVioHashString@@PAV1@V?$allocator@VioHashString@@@std@@V1@@std@@YAPAVioHashString@@PAV1@00AAV?$allocator@VioHashString@@@0@0U_Nonscalar_ptr_iterator_tag@0@@Z
_TEXT	SEGMENT
__Next$ = -20						; size = 4
__$EHRec$ = -16						; size = 16
__First$ = 8						; size = 4
__Last$ = 12						; size = 4
__Dest$ = 16						; size = 4
__Al$ = 20						; size = 4
___formal$ = 24						; size = 4
___formal$ = 28						; size = 1
??$_Uninit_move@PAVioHashString@@PAV1@V?$allocator@VioHashString@@@std@@V1@@std@@YAPAVioHashString@@PAV1@00AAV?$allocator@VioHashString@@@0@0U_Nonscalar_ptr_iterator_tag@0@@Z PROC ; std::_Uninit_move<ioHashString *,ioHashString *,std::allocator<ioHashString>,ioHashString>, COMDAT

; 424  : 	{	// move [_First, _Last) to raw _Dest, using _Al, arbitrary type

  00000	6a 08		 push	 8
  00002	b8 00 00 00 00	 mov	 eax, __ehhandler$??$_Uninit_move@PAVioHashString@@PAV1@V?$allocator@VioHashString@@@std@@V1@@std@@YAPAVioHashString@@PAV1@00AAV?$allocator@VioHashString@@@0@0U_Nonscalar_ptr_iterator_tag@0@@Z
  00007	e8 00 00 00 00	 call	 __EH_prolog3_catch

; 425  : 	_DEBUG_RANGE(_First, _Last);
; 426  : 	_DEBUG_POINTER(_Dest);
; 427  : 	_FwdIt _Next = _Dest;

  0000c	8b 45 10	 mov	 eax, DWORD PTR __Dest$[ebp]

; 428  : 
; 429  : 	_TRY_BEGIN

  0000f	83 65 fc 00	 and	 DWORD PTR __$EHRec$[ebp+12], 0
  00013	8b 75 08	 mov	 esi, DWORD PTR __First$[ebp]
  00016	89 45 ec	 mov	 DWORD PTR __Next$[ebp], eax
$LL6@Uninit_mov:

; 430  : 	for (; _First != _Last; ++_Dest, ++_First)

  00019	3b 75 0c	 cmp	 esi, DWORD PTR __Last$[ebp]
  0001c	74 33		 je	 SHORT $LN4@Uninit_mov

; 431  : 		_Cons_val(_Al, _Dest, (_Valty &&)*_First);

  0001e	8b 4d 14	 mov	 ecx, DWORD PTR __Al$[ebp]
  00021	56		 push	 esi
  00022	ff 75 10	 push	 DWORD PTR __Dest$[ebp]
  00025	e8 00 00 00 00	 call	 ?construct@?$allocator@VioHashString@@@std@@QAEXPAVioHashString@@$$QAV3@@Z ; std::allocator<ioHashString>::construct
  0002a	83 45 10 10	 add	 DWORD PTR __Dest$[ebp], 16 ; 00000010H
  0002e	83 c6 10	 add	 esi, 16			; 00000010H
  00031	eb e6		 jmp	 SHORT $LL6@Uninit_mov
__catch$??$_Uninit_move@PAVioHashString@@PAV1@V?$allocator@VioHashString@@@std@@V1@@std@@YAPAVioHashString@@PAV1@00AAV?$allocator@VioHashString@@@0@0U_Nonscalar_ptr_iterator_tag@0@@Z$0:

; 432  : 	_CATCH_ALL
; 433  : 	for (; _Next != _Dest; ++_Next)

  00033	8b 75 ec	 mov	 esi, DWORD PTR __Next$[ebp]
  00036	eb 0b		 jmp	 SHORT $LN33@Uninit_mov
$LL3@Uninit_mov:

; 434  : 		_Dest_val(_Al, _Next);

  00038	8b ce		 mov	 ecx, esi
  0003a	ff 15 00 00 00
	00		 call	 DWORD PTR __imp_??1ioHashString@@QAE@XZ
  00040	83 c6 10	 add	 esi, 16			; 00000010H
$LN33@Uninit_mov:

; 432  : 	_CATCH_ALL
; 433  : 	for (; _Next != _Dest; ++_Next)

  00043	3b 75 10	 cmp	 esi, DWORD PTR __Dest$[ebp]
  00046	75 f0		 jne	 SHORT $LL3@Uninit_mov

; 435  : 	_RERAISE;

  00048	6a 00		 push	 0
  0004a	6a 00		 push	 0
  0004c	e8 00 00 00 00	 call	 __CxxThrowException@8
$LN34@Uninit_mov:
$LN4@Uninit_mov:

; 436  : 	_CATCH_END
; 437  : 	return (_Dest);

  00051	8b 45 10	 mov	 eax, DWORD PTR __Dest$[ebp]

; 438  : 	}

  00054	e8 00 00 00 00	 call	 __EH_epilog3
  00059	c3		 ret	 0
$LN32@Uninit_mov:
_TEXT	ENDS
;	COMDAT text$x
text$x	SEGMENT
__ehhandler$??$_Uninit_move@PAVioHashString@@PAV1@V?$allocator@VioHashString@@@std@@V1@@std@@YAPAVioHashString@@PAV1@00AAV?$allocator@VioHashString@@@0@0U_Nonscalar_ptr_iterator_tag@0@@Z:
  00000	8b 54 24 08	 mov	 edx, DWORD PTR [esp+8]
  00004	8d 42 0c	 lea	 eax, DWORD PTR [edx+12]
  00007	8b 4a e8	 mov	 ecx, DWORD PTR [edx-24]
  0000a	33 c8		 xor	 ecx, eax
  0000c	e8 00 00 00 00	 call	 @__security_check_cookie@4
  00011	b8 00 00 00 00	 mov	 eax, OFFSET __ehfuncinfo$??$_Uninit_move@PAVioHashString@@PAV1@V?$allocator@VioHashString@@@std@@V1@@std@@YAPAVioHashString@@PAV1@00AAV?$allocator@VioHashString@@@0@0U_Nonscalar_ptr_iterator_tag@0@@Z
  00016	e9 00 00 00 00	 jmp	 ___CxxFrameHandler3
text$x	ENDS
??$_Uninit_move@PAVioHashString@@PAV1@V?$allocator@VioHashString@@@std@@V1@@std@@YAPAVioHashString@@PAV1@00AAV?$allocator@VioHashString@@@0@0U_Nonscalar_ptr_iterator_tag@0@@Z ENDP ; std::_Uninit_move<ioHashString *,ioHashString *,std::allocator<ioHashString>,ioHashString>
PUBLIC	??$_Uninit_copy@V?$_Vector_const_iterator@V?$_Vector_val@UWeaponInfo@@V?$allocator@UWeaponInfo@@@std@@@std@@@std@@PAUWeaponInfo@@V?$allocator@UWeaponInfo@@@2@@std@@YAPAUWeaponInfo@@V?$_Vector_const_iterator@V?$_Vector_val@UWeaponInfo@@V?$allocator@UWeaponInfo@@@std@@@std@@@0@0PAU1@AAV?$allocator@UWeaponInfo@@@0@U_Nonscalar_ptr_iterator_tag@0@@Z ; std::_Uninit_copy<std::_Vector_const_iterator<std::_Vector_val<WeaponInfo,std::allocator<WeaponInfo> > >,WeaponInfo *,std::allocator<WeaponInfo> >
;	COMDAT xdata$x
; File d:\lost saga for developer\youtube\tutorial\source\src\lsclient\playentityhelpstruct.h
xdata$x	SEGMENT
__catchsym$??$_Uninit_copy@V?$_Vector_const_iterator@V?$_Vector_val@UWeaponInfo@@V?$allocator@UWeaponInfo@@@std@@@std@@@std@@PAUWeaponInfo@@V?$allocator@UWeaponInfo@@@2@@std@@YAPAUWeaponInfo@@V?$_Vector_const_iterator@V?$_Vector_val@UWeaponInfo@@V?$allocator@UWeaponInfo@@@std@@@std@@@0@0PAU1@AAV?$allocator@UWeaponInfo@@@0@U_Nonscalar_ptr_iterator_tag@0@@Z$3 DD 040H
	DD	00H
	DD	00H
	DD	FLAT:__catch$??$_Uninit_copy@V?$_Vector_const_iterator@V?$_Vector_val@UWeaponInfo@@V?$allocator@UWeaponInfo@@@std@@@std@@@std@@PAUWeaponInfo@@V?$allocator@UWeaponInfo@@@2@@std@@YAPAUWeaponInfo@@V?$_Vector_const_iterator@V?$_Vector_val@UWeaponInfo@@V?$allocator@UWeaponInfo@@@std@@@std@@@0@0PAU1@AAV?$allocator@UWeaponInfo@@@0@U_Nonscalar_ptr_iterator_tag@0@@Z$0
__unwindtable$??$_Uninit_copy@V?$_Vector_const_iterator@V?$_Vector_val@UWeaponInfo@@V?$allocator@UWeaponInfo@@@std@@@std@@@std@@PAUWeaponInfo@@V?$allocator@UWeaponInfo@@@2@@std@@YAPAUWeaponInfo@@V?$_Vector_const_iterator@V?$_Vector_val@UWeaponInfo@@V?$allocator@UWeaponInfo@@@std@@@std@@@0@0PAU1@AAV?$allocator@UWeaponInfo@@@0@U_Nonscalar_ptr_iterator_tag@0@@Z DD 0ffffffffH
	DD	00H
	DD	0ffffffffH
	DD	00H
__tryblocktable$??$_Uninit_copy@V?$_Vector_const_iterator@V?$_Vector_val@UWeaponInfo@@V?$allocator@UWeaponInfo@@@std@@@std@@@std@@PAUWeaponInfo@@V?$allocator@UWeaponInfo@@@2@@std@@YAPAUWeaponInfo@@V?$_Vector_const_iterator@V?$_Vector_val@UWeaponInfo@@V?$allocator@UWeaponInfo@@@std@@@std@@@0@0PAU1@AAV?$allocator@UWeaponInfo@@@0@U_Nonscalar_ptr_iterator_tag@0@@Z DD 00H
	DD	00H
	DD	01H
	DD	01H
	DD	FLAT:__catchsym$??$_Uninit_copy@V?$_Vector_const_iterator@V?$_Vector_val@UWeaponInfo@@V?$allocator@UWeaponInfo@@@std@@@std@@@std@@PAUWeaponInfo@@V?$allocator@UWeaponInfo@@@2@@std@@YAPAUWeaponInfo@@V?$_Vector_const_iterator@V?$_Vector_val@UWeaponInfo@@V?$allocator@UWeaponInfo@@@std@@@std@@@0@0PAU1@AAV?$allocator@UWeaponInfo@@@0@U_Nonscalar_ptr_iterator_tag@0@@Z$3
__ehfuncinfo$??$_Uninit_copy@V?$_Vector_const_iterator@V?$_Vector_val@UWeaponInfo@@V?$allocator@UWeaponInfo@@@std@@@std@@@std@@PAUWeaponInfo@@V?$allocator@UWeaponInfo@@@2@@std@@YAPAUWeaponInfo@@V?$_Vector_const_iterator@V?$_Vector_val@UWeaponInfo@@V?$allocator@UWeaponInfo@@@std@@@std@@@0@0PAU1@AAV?$allocator@UWeaponInfo@@@0@U_Nonscalar_ptr_iterator_tag@0@@Z DD 019930522H
	DD	02H
	DD	FLAT:__unwindtable$??$_Uninit_copy@V?$_Vector_const_iterator@V?$_Vector_val@UWeaponInfo@@V?$allocator@UWeaponInfo@@@std@@@std@@@std@@PAUWeaponInfo@@V?$allocator@UWeaponInfo@@@2@@std@@YAPAUWeaponInfo@@V?$_Vector_const_iterator@V?$_Vector_val@UWeaponInfo@@V?$allocator@UWeaponInfo@@@std@@@std@@@0@0PAU1@AAV?$allocator@UWeaponInfo@@@0@U_Nonscalar_ptr_iterator_tag@0@@Z
	DD	01H
	DD	FLAT:__tryblocktable$??$_Uninit_copy@V?$_Vector_const_iterator@V?$_Vector_val@UWeaponInfo@@V?$allocator@UWeaponInfo@@@std@@@std@@@std@@PAUWeaponInfo@@V?$allocator@UWeaponInfo@@@2@@std@@YAPAUWeaponInfo@@V?$_Vector_const_iterator@V?$_Vector_val@UWeaponInfo@@V?$allocator@UWeaponInfo@@@std@@@std@@@0@0PAU1@AAV?$allocator@UWeaponInfo@@@0@U_Nonscalar_ptr_iterator_tag@0@@Z
	DD	2 DUP(00H)
	DD	00H
	DD	01H
; Function compile flags: /Ogsp
; File c:\program files (x86)\microsoft visual studio 10.0\vc\include\memory
xdata$x	ENDS
;	COMDAT ??$_Uninit_copy@V?$_Vector_const_iterator@V?$_Vector_val@UWeaponInfo@@V?$allocator@UWeaponInfo@@@std@@@std@@@std@@PAUWeaponInfo@@V?$allocator@UWeaponInfo@@@2@@std@@YAPAUWeaponInfo@@V?$_Vector_const_iterator@V?$_Vector_val@UWeaponInfo@@V?$allocator@UWeaponInfo@@@std@@@std@@@0@0PAU1@AAV?$allocator@UWeaponInfo@@@0@U_Nonscalar_ptr_iterator_tag@0@@Z
_TEXT	SEGMENT
__Next$ = -20						; size = 4
__$EHRec$ = -16						; size = 16
__First$ = 8						; size = 4
__Last$ = 12						; size = 4
__Dest$ = 16						; size = 4
__Al$ = 20						; size = 4
___formal$ = 24						; size = 1
??$_Uninit_copy@V?$_Vector_const_iterator@V?$_Vector_val@UWeaponInfo@@V?$allocator@UWeaponInfo@@@std@@@std@@@std@@PAUWeaponInfo@@V?$allocator@UWeaponInfo@@@2@@std@@YAPAUWeaponInfo@@V?$_Vector_const_iterator@V?$_Vector_val@UWeaponInfo@@V?$allocator@UWeaponInfo@@@std@@@std@@@0@0PAU1@AAV?$allocator@UWeaponInfo@@@0@U_Nonscalar_ptr_iterator_tag@0@@Z PROC ; std::_Uninit_copy<std::_Vector_const_iterator<std::_Vector_val<WeaponInfo,std::allocator<WeaponInfo> > >,WeaponInfo *,std::allocator<WeaponInfo> >, COMDAT

; 369  : 	{	// copy [_First, _Last) to raw _Dest, using _Al, arbitrary type

  00000	6a 08		 push	 8
  00002	b8 00 00 00 00	 mov	 eax, __ehhandler$??$_Uninit_copy@V?$_Vector_const_iterator@V?$_Vector_val@UWeaponInfo@@V?$allocator@UWeaponInfo@@@std@@@std@@@std@@PAUWeaponInfo@@V?$allocator@UWeaponInfo@@@2@@std@@YAPAUWeaponInfo@@V?$_Vector_const_iterator@V?$_Vector_val@UWeaponInfo@@V?$allocator@UWeaponInfo@@@std@@@std@@@0@0PAU1@AAV?$allocator@UWeaponInfo@@@0@U_Nonscalar_ptr_iterator_tag@0@@Z
  00007	e8 00 00 00 00	 call	 __EH_prolog3_catch

; 370  : 	_DEBUG_RANGE(_First, _Last);
; 371  : 	_DEBUG_POINTER(_Dest);
; 372  : 	_FwdIt _Next = _Dest;

  0000c	8b 45 10	 mov	 eax, DWORD PTR __Dest$[ebp]

; 373  : 
; 374  : 	_TRY_BEGIN

  0000f	83 65 fc 00	 and	 DWORD PTR __$EHRec$[ebp+12], 0
  00013	89 45 ec	 mov	 DWORD PTR __Next$[ebp], eax

; 375  : 	for (; _First != _Last; ++_Dest, ++_First)

$LL14@Uninit_cop@2:
  00016	8b 45 08	 mov	 eax, DWORD PTR __First$[ebp]
  00019	3b 45 0c	 cmp	 eax, DWORD PTR __Last$[ebp]
  0001c	74 34		 je	 SHORT $LN4@Uninit_cop@2

; 376  : 		_Cons_val(_Al, _Dest, *_First);

  0001e	50		 push	 eax
  0001f	ff 75 10	 push	 DWORD PTR __Dest$[ebp]
  00022	e8 00 00 00 00	 call	 ??$_Construct@UWeaponInfo@@ABU1@@std@@YAXPAUWeaponInfo@@ABU1@@Z ; std::_Construct<WeaponInfo,WeaponInfo const &>
  00027	83 45 10 28	 add	 DWORD PTR __Dest$[ebp], 40 ; 00000028H
  0002b	83 45 08 28	 add	 DWORD PTR __First$[ebp], 40 ; 00000028H
  0002f	59		 pop	 ecx
  00030	59		 pop	 ecx
  00031	eb e3		 jmp	 SHORT $LL14@Uninit_cop@2
__catch$??$_Uninit_copy@V?$_Vector_const_iterator@V?$_Vector_val@UWeaponInfo@@V?$allocator@UWeaponInfo@@@std@@@std@@@std@@PAUWeaponInfo@@V?$allocator@UWeaponInfo@@@2@@std@@YAPAUWeaponInfo@@V?$_Vector_const_iterator@V?$_Vector_val@UWeaponInfo@@V?$allocator@UWeaponInfo@@@std@@@std@@@0@0PAU1@AAV?$allocator@UWeaponInfo@@@0@U_Nonscalar_ptr_iterator_tag@0@@Z$0:

; 377  : 	_CATCH_ALL
; 378  : 	for (; _Next != _Dest; ++_Next)

  00033	8b 75 ec	 mov	 esi, DWORD PTR __Next$[ebp]
  00036	eb 0c		 jmp	 SHORT $LN48@Uninit_cop@2
$LL3@Uninit_cop@2:

; 379  : 		_Dest_val(_Al, _Next);

  00038	8d 4e 08	 lea	 ecx, DWORD PTR [esi+8]
  0003b	ff 15 00 00 00
	00		 call	 DWORD PTR __imp_??1ioHashString@@QAE@XZ
  00041	83 c6 28	 add	 esi, 40			; 00000028H
$LN48@Uninit_cop@2:

; 377  : 	_CATCH_ALL
; 378  : 	for (; _Next != _Dest; ++_Next)

  00044	3b 75 10	 cmp	 esi, DWORD PTR __Dest$[ebp]
  00047	75 ef		 jne	 SHORT $LL3@Uninit_cop@2

; 380  : 	_RERAISE;

  00049	6a 00		 push	 0
  0004b	6a 00		 push	 0
  0004d	e8 00 00 00 00	 call	 __CxxThrowException@8
$LN49@Uninit_cop@2:
$LN4@Uninit_cop@2:

; 381  : 	_CATCH_END
; 382  : 	return (_Dest);

  00052	8b 45 10	 mov	 eax, DWORD PTR __Dest$[ebp]

; 383  : 	}

  00055	e8 00 00 00 00	 call	 __EH_epilog3
  0005a	c3		 ret	 0
$LN47@Uninit_cop@2:
_TEXT	ENDS
;	COMDAT text$x
text$x	SEGMENT
__ehhandler$??$_Uninit_copy@V?$_Vector_const_iterator@V?$_Vector_val@UWeaponInfo@@V?$allocator@UWeaponInfo@@@std@@@std@@@std@@PAUWeaponInfo@@V?$allocator@UWeaponInfo@@@2@@std@@YAPAUWeaponInfo@@V?$_Vector_const_iterator@V?$_Vector_val@UWeaponInfo@@V?$allocator@UWeaponInfo@@@std@@@std@@@0@0PAU1@AAV?$allocator@UWeaponInfo@@@0@U_Nonscalar_ptr_iterator_tag@0@@Z:
  00000	8b 54 24 08	 mov	 edx, DWORD PTR [esp+8]
  00004	8d 42 0c	 lea	 eax, DWORD PTR [edx+12]
  00007	8b 4a e8	 mov	 ecx, DWORD PTR [edx-24]
  0000a	33 c8		 xor	 ecx, eax
  0000c	e8 00 00 00 00	 call	 @__security_check_cookie@4
  00011	b8 00 00 00 00	 mov	 eax, OFFSET __ehfuncinfo$??$_Uninit_copy@V?$_Vector_const_iterator@V?$_Vector_val@UWeaponInfo@@V?$allocator@UWeaponInfo@@@std@@@std@@@std@@PAUWeaponInfo@@V?$allocator@UWeaponInfo@@@2@@std@@YAPAUWeaponInfo@@V?$_Vector_const_iterator@V?$_Vector_val@UWeaponInfo@@V?$allocator@UWeaponInfo@@@std@@@std@@@0@0PAU1@AAV?$allocator@UWeaponInfo@@@0@U_Nonscalar_ptr_iterator_tag@0@@Z
  00016	e9 00 00 00 00	 jmp	 ___CxxFrameHandler3
text$x	ENDS
??$_Uninit_copy@V?$_Vector_const_iterator@V?$_Vector_val@UWeaponInfo@@V?$allocator@UWeaponInfo@@@std@@@std@@@std@@PAUWeaponInfo@@V?$allocator@UWeaponInfo@@@2@@std@@YAPAUWeaponInfo@@V?$_Vector_const_iterator@V?$_Vector_val@UWeaponInfo@@V?$allocator@UWeaponInfo@@@std@@@std@@@0@0PAU1@AAV?$allocator@UWeaponInfo@@@0@U_Nonscalar_ptr_iterator_tag@0@@Z ENDP ; std::_Uninit_copy<std::_Vector_const_iterator<std::_Vector_val<WeaponInfo,std::allocator<WeaponInfo> > >,WeaponInfo *,std::allocator<WeaponInfo> >
PUBLIC	??$_Destroy_range@V?$allocator@UForceInfo@@@std@@@std@@YAXPAUForceInfo@@0AAV?$allocator@UForceInfo@@@0@@Z ; std::_Destroy_range<std::allocator<ForceInfo> >
; Function compile flags: /Ogsp
; File c:\program files (x86)\microsoft visual studio 10.0\vc\include\xmemory
;	COMDAT ??$_Destroy_range@V?$allocator@UForceInfo@@@std@@@std@@YAXPAUForceInfo@@0AAV?$allocator@UForceInfo@@@0@@Z
_TEXT	SEGMENT
__First$ = 8						; size = 4
__Last$ = 12						; size = 4
__Al$ = 16						; size = 4
??$_Destroy_range@V?$allocator@UForceInfo@@@std@@@std@@YAXPAUForceInfo@@0AAV?$allocator@UForceInfo@@@0@@Z PROC ; std::_Destroy_range<std::allocator<ForceInfo> >, COMDAT

; 88   : 	_Destroy_range(_First, _Last, _Al, _Ptr_cat(_First, _Last));
; 89   : 	}

  00000	c3		 ret	 0
??$_Destroy_range@V?$allocator@UForceInfo@@@std@@@std@@YAXPAUForceInfo@@0AAV?$allocator@UForceInfo@@@0@@Z ENDP ; std::_Destroy_range<std::allocator<ForceInfo> >
_TEXT	ENDS
PUBLIC	??$_Destroy_range@V?$allocator@VioHashString@@@std@@@std@@YAXPAVioHashString@@0AAV?$allocator@VioHashString@@@0@U_Nonscalar_ptr_iterator_tag@0@@Z ; std::_Destroy_range<std::allocator<ioHashString> >
; Function compile flags: /Ogsp
;	COMDAT ??$_Destroy_range@V?$allocator@VioHashString@@@std@@@std@@YAXPAVioHashString@@0AAV?$allocator@VioHashString@@@0@U_Nonscalar_ptr_iterator_tag@0@@Z
_TEXT	SEGMENT
__First$ = 8						; size = 4
__Last$ = 12						; size = 4
__Al$ = 16						; size = 4
___formal$ = 20						; size = 1
??$_Destroy_range@V?$allocator@VioHashString@@@std@@@std@@YAXPAVioHashString@@0AAV?$allocator@VioHashString@@@0@U_Nonscalar_ptr_iterator_tag@0@@Z PROC ; std::_Destroy_range<std::allocator<ioHashString> >, COMDAT

; 95   : 	{	// destroy [_First, _Last), arbitrary type

  00000	55		 push	 ebp
  00001	8b ec		 mov	 ebp, esp
  00003	56		 push	 esi

; 96   : 	for (; _First != _Last; ++_First)

  00004	8b 75 08	 mov	 esi, DWORD PTR __First$[ebp]
  00007	eb 0b		 jmp	 SHORT $LN17@Destroy_ra
$LL3@Destroy_ra:

; 97   : 		_Dest_val(_Al, _First);

  00009	8b ce		 mov	 ecx, esi
  0000b	ff 15 00 00 00
	00		 call	 DWORD PTR __imp_??1ioHashString@@QAE@XZ
  00011	83 c6 10	 add	 esi, 16			; 00000010H
$LN17@Destroy_ra:

; 96   : 	for (; _First != _Last; ++_First)

  00014	3b 75 0c	 cmp	 esi, DWORD PTR __Last$[ebp]
  00017	75 f0		 jne	 SHORT $LL3@Destroy_ra
  00019	5e		 pop	 esi

; 98   : 	}

  0001a	5d		 pop	 ebp
  0001b	c3		 ret	 0
??$_Destroy_range@V?$allocator@VioHashString@@@std@@@std@@YAXPAVioHashString@@0AAV?$allocator@VioHashString@@@0@U_Nonscalar_ptr_iterator_tag@0@@Z ENDP ; std::_Destroy_range<std::allocator<ioHashString> >
_TEXT	ENDS
PUBLIC	??$_Destroy_range@V?$allocator@UWeaponInfo@@@std@@@std@@YAXPAUWeaponInfo@@0AAV?$allocator@UWeaponInfo@@@0@U_Nonscalar_ptr_iterator_tag@0@@Z ; std::_Destroy_range<std::allocator<WeaponInfo> >
; Function compile flags: /Ogsp
;	COMDAT ??$_Destroy_range@V?$allocator@UWeaponInfo@@@std@@@std@@YAXPAUWeaponInfo@@0AAV?$allocator@UWeaponInfo@@@0@U_Nonscalar_ptr_iterator_tag@0@@Z
_TEXT	SEGMENT
__First$ = 8						; size = 4
__Last$ = 12						; size = 4
__Al$ = 16						; size = 4
___formal$ = 20						; size = 1
??$_Destroy_range@V?$allocator@UWeaponInfo@@@std@@@std@@YAXPAUWeaponInfo@@0AAV?$allocator@UWeaponInfo@@@0@U_Nonscalar_ptr_iterator_tag@0@@Z PROC ; std::_Destroy_range<std::allocator<WeaponInfo> >, COMDAT

; 95   : 	{	// destroy [_First, _Last), arbitrary type

  00000	55		 push	 ebp
  00001	8b ec		 mov	 ebp, esp
  00003	56		 push	 esi

; 96   : 	for (; _First != _Last; ++_First)

  00004	8b 75 08	 mov	 esi, DWORD PTR __First$[ebp]
  00007	eb 0c		 jmp	 SHORT $LN20@Destroy_ra@2
$LL3@Destroy_ra@2:

; 97   : 		_Dest_val(_Al, _First);

  00009	8d 4e 08	 lea	 ecx, DWORD PTR [esi+8]
  0000c	ff 15 00 00 00
	00		 call	 DWORD PTR __imp_??1ioHashString@@QAE@XZ
  00012	83 c6 28	 add	 esi, 40			; 00000028H
$LN20@Destroy_ra@2:

; 96   : 	for (; _First != _Last; ++_First)

  00015	3b 75 0c	 cmp	 esi, DWORD PTR __Last$[ebp]
  00018	75 ef		 jne	 SHORT $LL3@Destroy_ra@2
  0001a	5e		 pop	 esi

; 98   : 	}

  0001b	5d		 pop	 ebp
  0001c	c3		 ret	 0
??$_Destroy_range@V?$allocator@UWeaponInfo@@@std@@@std@@YAXPAUWeaponInfo@@0AAV?$allocator@UWeaponInfo@@@0@U_Nonscalar_ptr_iterator_tag@0@@Z ENDP ; std::_Destroy_range<std::allocator<WeaponInfo> >
_TEXT	ENDS
PUBLIC	??$_Uninit_copy@V?$_Vector_const_iterator@V?$_Vector_val@VioHashString@@V?$allocator@VioHashString@@@std@@@std@@@std@@PAVioHashString@@V?$allocator@VioHashString@@@2@@std@@YAPAVioHashString@@V?$_Vector_const_iterator@V?$_Vector_val@VioHashString@@V?$allocator@VioHashString@@@std@@@std@@@0@0PAV1@AAV?$allocator@VioHashString@@@0@U_Nonscalar_ptr_iterator_tag@0@@Z ; std::_Uninit_copy<std::_Vector_const_iterator<std::_Vector_val<ioHashString,std::allocator<ioHashString> > >,ioHashString *,std::allocator<ioHashString> >
;	COMDAT xdata$x
; File c:\program files (x86)\microsoft visual studio 10.0\vc\include\vector
xdata$x	SEGMENT
__catchsym$??$_Uninit_copy@V?$_Vector_const_iterator@V?$_Vector_val@VioHashString@@V?$allocator@VioHashString@@@std@@@std@@@std@@PAVioHashString@@V?$allocator@VioHashString@@@2@@std@@YAPAVioHashString@@V?$_Vector_const_iterator@V?$_Vector_val@VioHashString@@V?$allocator@VioHashString@@@std@@@std@@@0@0PAV1@AAV?$allocator@VioHashString@@@0@U_Nonscalar_ptr_iterator_tag@0@@Z$2 DD 040H
	DD	00H
	DD	00H
	DD	FLAT:__catch$??$_Uninit_copy@V?$_Vector_const_iterator@V?$_Vector_val@VioHashString@@V?$allocator@VioHashString@@@std@@@std@@@std@@PAVioHashString@@V?$allocator@VioHashString@@@2@@std@@YAPAVioHashString@@V?$_Vector_const_iterator@V?$_Vector_val@VioHashString@@V?$allocator@VioHashString@@@std@@@std@@@0@0PAV1@AAV?$allocator@VioHashString@@@0@U_Nonscalar_ptr_iterator_tag@0@@Z$0
__unwindtable$??$_Uninit_copy@V?$_Vector_const_iterator@V?$_Vector_val@VioHashString@@V?$allocator@VioHashString@@@std@@@std@@@std@@PAVioHashString@@V?$allocator@VioHashString@@@2@@std@@YAPAVioHashString@@V?$_Vector_const_iterator@V?$_Vector_val@VioHashString@@V?$allocator@VioHashString@@@std@@@std@@@0@0PAV1@AAV?$allocator@VioHashString@@@0@U_Nonscalar_ptr_iterator_tag@0@@Z DD 0ffffffffH
	DD	00H
	DD	0ffffffffH
	DD	00H
__tryblocktable$??$_Uninit_copy@V?$_Vector_const_iterator@V?$_Vector_val@VioHashString@@V?$allocator@VioHashString@@@std@@@std@@@std@@PAVioHashString@@V?$allocator@VioHashString@@@2@@std@@YAPAVioHashString@@V?$_Vector_const_iterator@V?$_Vector_val@VioHashString@@V?$allocator@VioHashString@@@std@@@std@@@0@0PAV1@AAV?$allocator@VioHashString@@@0@U_Nonscalar_ptr_iterator_tag@0@@Z DD 00H
	DD	00H
	DD	01H
	DD	01H
	DD	FLAT:__catchsym$??$_Uninit_copy@V?$_Vector_const_iterator@V?$_Vector_val@VioHashString@@V?$allocator@VioHashString@@@std@@@std@@@std@@PAVioHashString@@V?$allocator@VioHashString@@@2@@std@@YAPAVioHashString@@V?$_Vector_const_iterator@V?$_Vector_val@VioHashString@@V?$allocator@VioHashString@@@std@@@std@@@0@0PAV1@AAV?$allocator@VioHashString@@@0@U_Nonscalar_ptr_iterator_tag@0@@Z$2
__ehfuncinfo$??$_Uninit_copy@V?$_Vector_const_iterator@V?$_Vector_val@VioHashString@@V?$allocator@VioHashString@@@std@@@std@@@std@@PAVioHashString@@V?$allocator@VioHashString@@@2@@std@@YAPAVioHashString@@V?$_Vector_const_iterator@V?$_Vector_val@VioHashString@@V?$allocator@VioHashString@@@std@@@std@@@0@0PAV1@AAV?$allocator@VioHashString@@@0@U_Nonscalar_ptr_iterator_tag@0@@Z DD 019930522H
	DD	02H
	DD	FLAT:__unwindtable$??$_Uninit_copy@V?$_Vector_const_iterator@V?$_Vector_val@VioHashString@@V?$allocator@VioHashString@@@std@@@std@@@std@@PAVioHashString@@V?$allocator@VioHashString@@@2@@std@@YAPAVioHashString@@V?$_Vector_const_iterator@V?$_Vector_val@VioHashString@@V?$allocator@VioHashString@@@std@@@std@@@0@0PAV1@AAV?$allocator@VioHashString@@@0@U_Nonscalar_ptr_iterator_tag@0@@Z
	DD	01H
	DD	FLAT:__tryblocktable$??$_Uninit_copy@V?$_Vector_const_iterator@V?$_Vector_val@VioHashString@@V?$allocator@VioHashString@@@std@@@std@@@std@@PAVioHashString@@V?$allocator@VioHashString@@@2@@std@@YAPAVioHashString@@V?$_Vector_const_iterator@V?$_Vector_val@VioHashString@@V?$allocator@VioHashString@@@std@@@std@@@0@0PAV1@AAV?$allocator@VioHashString@@@0@U_Nonscalar_ptr_iterator_tag@0@@Z
	DD	2 DUP(00H)
	DD	00H
	DD	01H
; Function compile flags: /Ogsp
; File c:\program files (x86)\microsoft visual studio 10.0\vc\include\memory
xdata$x	ENDS
;	COMDAT ??$_Uninit_copy@V?$_Vector_const_iterator@V?$_Vector_val@VioHashString@@V?$allocator@VioHashString@@@std@@@std@@@std@@PAVioHashString@@V?$allocator@VioHashString@@@2@@std@@YAPAVioHashString@@V?$_Vector_const_iterator@V?$_Vector_val@VioHashString@@V?$allocator@VioHashString@@@std@@@std@@@0@0PAV1@AAV?$allocator@VioHashString@@@0@U_Nonscalar_ptr_iterator_tag@0@@Z
_TEXT	SEGMENT
__Next$ = -20						; size = 4
__$EHRec$ = -16						; size = 16
__First$ = 8						; size = 4
__Last$ = 12						; size = 4
__Dest$ = 16						; size = 4
__Al$ = 20						; size = 4
___formal$ = 24						; size = 1
??$_Uninit_copy@V?$_Vector_const_iterator@V?$_Vector_val@VioHashString@@V?$allocator@VioHashString@@@std@@@std@@@std@@PAVioHashString@@V?$allocator@VioHashString@@@2@@std@@YAPAVioHashString@@V?$_Vector_const_iterator@V?$_Vector_val@VioHashString@@V?$allocator@VioHashString@@@std@@@std@@@0@0PAV1@AAV?$allocator@VioHashString@@@0@U_Nonscalar_ptr_iterator_tag@0@@Z PROC ; std::_Uninit_copy<std::_Vector_const_iterator<std::_Vector_val<ioHashString,std::allocator<ioHashString> > >,ioHashString *,std::allocator<ioHashString> >, COMDAT

; 369  : 	{	// copy [_First, _Last) to raw _Dest, using _Al, arbitrary type

  00000	6a 08		 push	 8
  00002	b8 00 00 00 00	 mov	 eax, __ehhandler$??$_Uninit_copy@V?$_Vector_const_iterator@V?$_Vector_val@VioHashString@@V?$allocator@VioHashString@@@std@@@std@@@std@@PAVioHashString@@V?$allocator@VioHashString@@@2@@std@@YAPAVioHashString@@V?$_Vector_const_iterator@V?$_Vector_val@VioHashString@@V?$allocator@VioHashString@@@std@@@std@@@0@0PAV1@AAV?$allocator@VioHashString@@@0@U_Nonscalar_ptr_iterator_tag@0@@Z
  00007	e8 00 00 00 00	 call	 __EH_prolog3_catch

; 370  : 	_DEBUG_RANGE(_First, _Last);
; 371  : 	_DEBUG_POINTER(_Dest);
; 372  : 	_FwdIt _Next = _Dest;

  0000c	8b 45 10	 mov	 eax, DWORD PTR __Dest$[ebp]

; 373  : 
; 374  : 	_TRY_BEGIN

  0000f	83 65 fc 00	 and	 DWORD PTR __$EHRec$[ebp+12], 0
  00013	89 45 ec	 mov	 DWORD PTR __Next$[ebp], eax

; 375  : 	for (; _First != _Last; ++_Dest, ++_First)

$LL14@Uninit_cop@3:
  00016	8b 45 08	 mov	 eax, DWORD PTR __First$[ebp]
  00019	3b 45 0c	 cmp	 eax, DWORD PTR __Last$[ebp]
  0001c	74 33		 je	 SHORT $LN4@Uninit_cop@3

; 376  : 		_Cons_val(_Al, _Dest, *_First);

  0001e	50		 push	 eax
  0001f	ff 75 10	 push	 DWORD PTR __Dest$[ebp]
  00022	e8 00 00 00 00	 call	 ??$_Construct@VioHashString@@ABV1@@std@@YAXPAVioHashString@@ABV1@@Z ; std::_Construct<ioHashString,ioHashString const &>
  00027	83 45 10 10	 add	 DWORD PTR __Dest$[ebp], 16 ; 00000010H
  0002b	83 45 08 10	 add	 DWORD PTR __First$[ebp], 16 ; 00000010H
  0002f	59		 pop	 ecx
  00030	59		 pop	 ecx
  00031	eb e3		 jmp	 SHORT $LL14@Uninit_cop@3
__catch$??$_Uninit_copy@V?$_Vector_const_iterator@V?$_Vector_val@VioHashString@@V?$allocator@VioHashString@@@std@@@std@@@std@@PAVioHashString@@V?$allocator@VioHashString@@@2@@std@@YAPAVioHashString@@V?$_Vector_const_iterator@V?$_Vector_val@VioHashString@@V?$allocator@VioHashString@@@std@@@std@@@0@0PAV1@AAV?$allocator@VioHashString@@@0@U_Nonscalar_ptr_iterator_tag@0@@Z$0:

; 377  : 	_CATCH_ALL
; 378  : 	for (; _Next != _Dest; ++_Next)

  00033	8b 75 ec	 mov	 esi, DWORD PTR __Next$[ebp]
  00036	eb 0b		 jmp	 SHORT $LN45@Uninit_cop@3
$LL3@Uninit_cop@3:

; 379  : 		_Dest_val(_Al, _Next);

  00038	8b ce		 mov	 ecx, esi
  0003a	ff 15 00 00 00
	00		 call	 DWORD PTR __imp_??1ioHashString@@QAE@XZ
  00040	83 c6 10	 add	 esi, 16			; 00000010H
$LN45@Uninit_cop@3:

; 377  : 	_CATCH_ALL
; 378  : 	for (; _Next != _Dest; ++_Next)

  00043	3b 75 10	 cmp	 esi, DWORD PTR __Dest$[ebp]
  00046	75 f0		 jne	 SHORT $LL3@Uninit_cop@3

; 380  : 	_RERAISE;

  00048	6a 00		 push	 0
  0004a	6a 00		 push	 0
  0004c	e8 00 00 00 00	 call	 __CxxThrowException@8
$LN46@Uninit_cop@3:
$LN4@Uninit_cop@3:

; 381  : 	_CATCH_END
; 382  : 	return (_Dest);

  00051	8b 45 10	 mov	 eax, DWORD PTR __Dest$[ebp]

; 383  : 	}

  00054	e8 00 00 00 00	 call	 __EH_epilog3
  00059	c3		 ret	 0
$LN44@Uninit_cop@3:
_TEXT	ENDS
;	COMDAT text$x
text$x	SEGMENT
__ehhandler$??$_Uninit_copy@V?$_Vector_const_iterator@V?$_Vector_val@VioHashString@@V?$allocator@VioHashString@@@std@@@std@@@std@@PAVioHashString@@V?$allocator@VioHashString@@@2@@std@@YAPAVioHashString@@V?$_Vector_const_iterator@V?$_Vector_val@VioHashString@@V?$allocator@VioHashString@@@std@@@std@@@0@0PAV1@AAV?$allocator@VioHashString@@@0@U_Nonscalar_ptr_iterator_tag@0@@Z:
  00000	8b 54 24 08	 mov	 edx, DWORD PTR [esp+8]
  00004	8d 42 0c	 lea	 eax, DWORD PTR [edx+12]
  00007	8b 4a e8	 mov	 ecx, DWORD PTR [edx-24]
  0000a	33 c8		 xor	 ecx, eax
  0000c	e8 00 00 00 00	 call	 @__security_check_cookie@4
  00011	b8 00 00 00 00	 mov	 eax, OFFSET __ehfuncinfo$??$_Uninit_copy@V?$_Vector_const_iterator@V?$_Vector_val@VioHashString@@V?$allocator@VioHashString@@@std@@@std@@@std@@PAVioHashString@@V?$allocator@VioHashString@@@2@@std@@YAPAVioHashString@@V?$_Vector_const_iterator@V?$_Vector_val@VioHashString@@V?$allocator@VioHashString@@@std@@@std@@@0@0PAV1@AAV?$allocator@VioHashString@@@0@U_Nonscalar_ptr_iterator_tag@0@@Z
  00016	e9 00 00 00 00	 jmp	 ___CxxFrameHandler3
text$x	ENDS
??$_Uninit_copy@V?$_Vector_const_iterator@V?$_Vector_val@VioHashString@@V?$allocator@VioHashString@@@std@@@std@@@std@@PAVioHashString@@V?$allocator@VioHashString@@@2@@std@@YAPAVioHashString@@V?$_Vector_const_iterator@V?$_Vector_val@VioHashString@@V?$allocator@VioHashString@@@std@@@std@@@0@0PAV1@AAV?$allocator@VioHashString@@@0@U_Nonscalar_ptr_iterator_tag@0@@Z ENDP ; std::_Uninit_copy<std::_Vector_const_iterator<std::_Vector_val<ioHashString,std::allocator<ioHashString> > >,ioHashString *,std::allocator<ioHashString> >
PUBLIC	??$_Ucopy@V?$_Vector_const_iterator@V?$_Vector_val@UForceInfo@@V?$allocator@UForceInfo@@@std@@@std@@@std@@@?$vector@UForceInfo@@V?$allocator@UForceInfo@@@std@@@std@@IAEPAUForceInfo@@V?$_Vector_const_iterator@V?$_Vector_val@UForceInfo@@V?$allocator@UForceInfo@@@std@@@std@@@1@0PAU2@@Z ; std::vector<ForceInfo,std::allocator<ForceInfo> >::_Ucopy<std::_Vector_const_iterator<std::_Vector_val<ForceInfo,std::allocator<ForceInfo> > > >
; Function compile flags: /Ogsp
; File c:\program files (x86)\microsoft visual studio 10.0\vc\include\vector
;	COMDAT ??$_Ucopy@V?$_Vector_const_iterator@V?$_Vector_val@UForceInfo@@V?$allocator@UForceInfo@@@std@@@std@@@std@@@?$vector@UForceInfo@@V?$allocator@UForceInfo@@@std@@@std@@IAEPAUForceInfo@@V?$_Vector_const_iterator@V?$_Vector_val@UForceInfo@@V?$allocator@UForceInfo@@@std@@@std@@@1@0PAU2@@Z
_TEXT	SEGMENT
__First$ = 8						; size = 4
__Last$ = 12						; size = 4
__Cat$532952 = 16					; size = 1
__Ptr$ = 16						; size = 4
??$_Ucopy@V?$_Vector_const_iterator@V?$_Vector_val@UForceInfo@@V?$allocator@UForceInfo@@@std@@@std@@@std@@@?$vector@UForceInfo@@V?$allocator@UForceInfo@@@std@@@std@@IAEPAUForceInfo@@V?$_Vector_const_iterator@V?$_Vector_val@UForceInfo@@V?$allocator@UForceInfo@@@std@@@std@@@1@0PAU2@@Z PROC ; std::vector<ForceInfo,std::allocator<ForceInfo> >::_Ucopy<std::_Vector_const_iterator<std::_Vector_val<ForceInfo,std::allocator<ForceInfo> > > >, COMDAT
; _this$ = ecx

; 1315 : 		pointer _Ucopy(_Iter _First, _Iter _Last, pointer _Ptr)

  00000	55		 push	 ebp
  00001	8b ec		 mov	 ebp, esp

; 1316 : 		{	// copy initializing [_First, _Last), using allocator
; 1317 : 		return (_Uninitialized_copy(_First, _Last,
; 1318 : 			_Ptr, this->_Alval));

  00003	ff 75 10	 push	 DWORD PTR __Cat$532952[ebp]
  00006	83 c1 0c	 add	 ecx, 12			; 0000000cH
  00009	51		 push	 ecx
  0000a	ff 75 10	 push	 DWORD PTR __Ptr$[ebp]
  0000d	ff 75 0c	 push	 DWORD PTR __Last$[ebp]
  00010	ff 75 08	 push	 DWORD PTR __First$[ebp]
  00013	e8 00 00 00 00	 call	 ??$_Uninit_copy@V?$_Vector_const_iterator@V?$_Vector_val@UForceInfo@@V?$allocator@UForceInfo@@@std@@@std@@@std@@PAUForceInfo@@V?$allocator@UForceInfo@@@2@@std@@YAPAUForceInfo@@V?$_Vector_const_iterator@V?$_Vector_val@UForceInfo@@V?$allocator@UForceInfo@@@std@@@std@@@0@0PAU1@AAV?$allocator@UForceInfo@@@0@U_Nonscalar_ptr_iterator_tag@0@@Z ; std::_Uninit_copy<std::_Vector_const_iterator<std::_Vector_val<ForceInfo,std::allocator<ForceInfo> > >,ForceInfo *,std::allocator<ForceInfo> >
  00018	83 c4 14	 add	 esp, 20			; 00000014H

; 1319 : 		}

  0001b	5d		 pop	 ebp
  0001c	c2 0c 00	 ret	 12			; 0000000cH
??$_Ucopy@V?$_Vector_const_iterator@V?$_Vector_val@UForceInfo@@V?$allocator@UForceInfo@@@std@@@std@@@std@@@?$vector@UForceInfo@@V?$allocator@UForceInfo@@@std@@@std@@IAEPAUForceInfo@@V?$_Vector_const_iterator@V?$_Vector_val@UForceInfo@@V?$allocator@UForceInfo@@@std@@@std@@@1@0PAU2@@Z ENDP ; std::vector<ForceInfo,std::allocator<ForceInfo> >::_Ucopy<std::_Vector_const_iterator<std::_Vector_val<ForceInfo,std::allocator<ForceInfo> > > >
_TEXT	ENDS
PUBLIC	??$_Uninitialized_move@PAVioHashString@@PAV1@V?$allocator@VioHashString@@@std@@@std@@YAPAVioHashString@@PAV1@00AAV?$allocator@VioHashString@@@0@@Z ; std::_Uninitialized_move<ioHashString *,ioHashString *,std::allocator<ioHashString> >
; Function compile flags: /Ogsp
; File c:\program files (x86)\microsoft visual studio 10.0\vc\include\memory
;	COMDAT ??$_Uninitialized_move@PAVioHashString@@PAV1@V?$allocator@VioHashString@@@std@@@std@@YAPAVioHashString@@PAV1@00AAV?$allocator@VioHashString@@@0@@Z
_TEXT	SEGMENT
__Cat$532962 = -4					; size = 1
__First$ = 8						; size = 4
__Last$ = 12						; size = 4
__Dest$ = 16						; size = 4
__Al$ = 20						; size = 4
??$_Uninitialized_move@PAVioHashString@@PAV1@V?$allocator@VioHashString@@@std@@@std@@YAPAVioHashString@@PAV1@00AAV?$allocator@VioHashString@@@0@@Z PROC ; std::_Uninitialized_move<ioHashString *,ioHashString *,std::allocator<ioHashString> >, COMDAT

; 469  : 	{	// move [_First, _Last) to raw _Dest, using _Al

  00000	55		 push	 ebp
  00001	8b ec		 mov	 ebp, esp
  00003	51		 push	 ecx

; 470  : 	return (_Uninit_move(_First, _Last, _Dest, _Al,
; 471  : 		_Val_type(_First), _Ptr_cat(_First, _Dest)));

  00004	ff 75 fc	 push	 DWORD PTR __Cat$532962[ebp]
  00007	6a 00		 push	 0
  00009	ff 75 14	 push	 DWORD PTR __Al$[ebp]
  0000c	ff 75 10	 push	 DWORD PTR __Dest$[ebp]
  0000f	ff 75 0c	 push	 DWORD PTR __Last$[ebp]
  00012	ff 75 08	 push	 DWORD PTR __First$[ebp]
  00015	e8 00 00 00 00	 call	 ??$_Uninit_move@PAVioHashString@@PAV1@V?$allocator@VioHashString@@@std@@V1@@std@@YAPAVioHashString@@PAV1@00AAV?$allocator@VioHashString@@@0@0U_Nonscalar_ptr_iterator_tag@0@@Z ; std::_Uninit_move<ioHashString *,ioHashString *,std::allocator<ioHashString>,ioHashString>
  0001a	83 c4 18	 add	 esp, 24			; 00000018H

; 472  : 	}

  0001d	c9		 leave
  0001e	c3		 ret	 0
??$_Uninitialized_move@PAVioHashString@@PAV1@V?$allocator@VioHashString@@@std@@@std@@YAPAVioHashString@@PAV1@00AAV?$allocator@VioHashString@@@0@@Z ENDP ; std::_Uninitialized_move<ioHashString *,ioHashString *,std::allocator<ioHashString> >
_TEXT	ENDS
PUBLIC	??$_Uninitialized_copy@V?$_Vector_const_iterator@V?$_Vector_val@UWeaponInfo@@V?$allocator@UWeaponInfo@@@std@@@std@@@std@@PAUWeaponInfo@@V?$allocator@UWeaponInfo@@@2@@std@@YAPAUWeaponInfo@@V?$_Vector_const_iterator@V?$_Vector_val@UWeaponInfo@@V?$allocator@UWeaponInfo@@@std@@@std@@@0@0PAU1@AAV?$allocator@UWeaponInfo@@@0@@Z ; std::_Uninitialized_copy<std::_Vector_const_iterator<std::_Vector_val<WeaponInfo,std::allocator<WeaponInfo> > >,WeaponInfo *,std::allocator<WeaponInfo> >
; Function compile flags: /Ogsp
;	COMDAT ??$_Uninitialized_copy@V?$_Vector_const_iterator@V?$_Vector_val@UWeaponInfo@@V?$allocator@UWeaponInfo@@@std@@@std@@@std@@PAUWeaponInfo@@V?$allocator@UWeaponInfo@@@2@@std@@YAPAUWeaponInfo@@V?$_Vector_const_iterator@V?$_Vector_val@UWeaponInfo@@V?$allocator@UWeaponInfo@@@std@@@std@@@0@0PAU1@AAV?$allocator@UWeaponInfo@@@0@@Z
_TEXT	SEGMENT
__Cat$532972 = -4					; size = 1
__First$ = 8						; size = 4
__Last$ = 12						; size = 4
__Dest$ = 16						; size = 4
__Al$ = 20						; size = 4
??$_Uninitialized_copy@V?$_Vector_const_iterator@V?$_Vector_val@UWeaponInfo@@V?$allocator@UWeaponInfo@@@std@@@std@@@std@@PAUWeaponInfo@@V?$allocator@UWeaponInfo@@@2@@std@@YAPAUWeaponInfo@@V?$_Vector_const_iterator@V?$_Vector_val@UWeaponInfo@@V?$allocator@UWeaponInfo@@@std@@@std@@@0@0PAU1@AAV?$allocator@UWeaponInfo@@@0@@Z PROC ; std::_Uninitialized_copy<std::_Vector_const_iterator<std::_Vector_val<WeaponInfo,std::allocator<WeaponInfo> > >,WeaponInfo *,std::allocator<WeaponInfo> >, COMDAT

; 412  : 	{	// copy [_First, _Last) to raw _Dest, using _Al

  00000	55		 push	 ebp
  00001	8b ec		 mov	 ebp, esp
  00003	51		 push	 ecx

; 413  : 	return (_Uninit_copy(_First, _Last, _Dest, _Al,
; 414  : 		_Ptr_cat(_First, _Dest)));

  00004	ff 75 fc	 push	 DWORD PTR __Cat$532972[ebp]
  00007	ff 75 14	 push	 DWORD PTR __Al$[ebp]
  0000a	ff 75 10	 push	 DWORD PTR __Dest$[ebp]
  0000d	ff 75 0c	 push	 DWORD PTR __Last$[ebp]
  00010	ff 75 08	 push	 DWORD PTR __First$[ebp]
  00013	e8 00 00 00 00	 call	 ??$_Uninit_copy@V?$_Vector_const_iterator@V?$_Vector_val@UWeaponInfo@@V?$allocator@UWeaponInfo@@@std@@@std@@@std@@PAUWeaponInfo@@V?$allocator@UWeaponInfo@@@2@@std@@YAPAUWeaponInfo@@V?$_Vector_const_iterator@V?$_Vector_val@UWeaponInfo@@V?$allocator@UWeaponInfo@@@std@@@std@@@0@0PAU1@AAV?$allocator@UWeaponInfo@@@0@U_Nonscalar_ptr_iterator_tag@0@@Z ; std::_Uninit_copy<std::_Vector_const_iterator<std::_Vector_val<WeaponInfo,std::allocator<WeaponInfo> > >,WeaponInfo *,std::allocator<WeaponInfo> >
  00018	83 c4 14	 add	 esp, 20			; 00000014H

; 415  : 	}

  0001b	c9		 leave
  0001c	c3		 ret	 0
??$_Uninitialized_copy@V?$_Vector_const_iterator@V?$_Vector_val@UWeaponInfo@@V?$allocator@UWeaponInfo@@@std@@@std@@@std@@PAUWeaponInfo@@V?$allocator@UWeaponInfo@@@2@@std@@YAPAUWeaponInfo@@V?$_Vector_const_iterator@V?$_Vector_val@UWeaponInfo@@V?$allocator@UWeaponInfo@@@std@@@std@@@0@0PAU1@AAV?$allocator@UWeaponInfo@@@0@@Z ENDP ; std::_Uninitialized_copy<std::_Vector_const_iterator<std::_Vector_val<WeaponInfo,std::allocator<WeaponInfo> > >,WeaponInfo *,std::allocator<WeaponInfo> >
_TEXT	ENDS
PUBLIC	?_Destroy@?$vector@UForceInfo@@V?$allocator@UForceInfo@@@std@@@std@@IAEXPAUForceInfo@@0@Z ; std::vector<ForceInfo,std::allocator<ForceInfo> >::_Destroy
; Function compile flags: /Ogsp
; File c:\program files (x86)\microsoft visual studio 10.0\vc\include\vector
;	COMDAT ?_Destroy@?$vector@UForceInfo@@V?$allocator@UForceInfo@@@std@@@std@@IAEXPAUForceInfo@@0@Z
_TEXT	SEGMENT
__First$ = 8						; size = 4
__Last$ = 12						; size = 4
?_Destroy@?$vector@UForceInfo@@V?$allocator@UForceInfo@@@std@@@std@@IAEXPAUForceInfo@@0@Z PROC ; std::vector<ForceInfo,std::allocator<ForceInfo> >::_Destroy, COMDAT
; _this$ = ecx

; 1270 : 		_Destroy_range(_First, _Last, this->_Alval);
; 1271 : 		}

  00000	c2 08 00	 ret	 8
?_Destroy@?$vector@UForceInfo@@V?$allocator@UForceInfo@@@std@@@std@@IAEXPAUForceInfo@@0@Z ENDP ; std::vector<ForceInfo,std::allocator<ForceInfo> >::_Destroy
_TEXT	ENDS
PUBLIC	??$_Destroy_range@V?$allocator@VioHashString@@@std@@@std@@YAXPAVioHashString@@0AAV?$allocator@VioHashString@@@0@@Z ; std::_Destroy_range<std::allocator<ioHashString> >
; Function compile flags: /Ogsp
; File c:\program files (x86)\microsoft visual studio 10.0\vc\include\xmemory
;	COMDAT ??$_Destroy_range@V?$allocator@VioHashString@@@std@@@std@@YAXPAVioHashString@@0AAV?$allocator@VioHashString@@@0@@Z
_TEXT	SEGMENT
__First$ = 8						; size = 4
__Last$ = 12						; size = 4
__Al$ = 16						; size = 4
??$_Destroy_range@V?$allocator@VioHashString@@@std@@@std@@YAXPAVioHashString@@0AAV?$allocator@VioHashString@@@0@@Z PROC ; std::_Destroy_range<std::allocator<ioHashString> >, COMDAT

; 87   : 	{	// destroy [_First, _Last)

  00000	55		 push	 ebp
  00001	8b ec		 mov	 ebp, esp
  00003	56		 push	 esi

; 88   : 	_Destroy_range(_First, _Last, _Al, _Ptr_cat(_First, _Last));

  00004	8b 75 08	 mov	 esi, DWORD PTR __First$[ebp]
  00007	eb 0b		 jmp	 SHORT $LN21@Destroy_ra@3
$LL7@Destroy_ra@3:
  00009	8b ce		 mov	 ecx, esi
  0000b	ff 15 00 00 00
	00		 call	 DWORD PTR __imp_??1ioHashString@@QAE@XZ
  00011	83 c6 10	 add	 esi, 16			; 00000010H
$LN21@Destroy_ra@3:
  00014	3b 75 0c	 cmp	 esi, DWORD PTR __Last$[ebp]
  00017	75 f0		 jne	 SHORT $LL7@Destroy_ra@3
  00019	5e		 pop	 esi

; 89   : 	}

  0001a	5d		 pop	 ebp
  0001b	c3		 ret	 0
??$_Destroy_range@V?$allocator@VioHashString@@@std@@@std@@YAXPAVioHashString@@0AAV?$allocator@VioHashString@@@0@@Z ENDP ; std::_Destroy_range<std::allocator<ioHashString> >
_TEXT	ENDS
PUBLIC	??$_Destroy_range@V?$allocator@UWeaponInfo@@@std@@@std@@YAXPAUWeaponInfo@@0AAV?$allocator@UWeaponInfo@@@0@@Z ; std::_Destroy_range<std::allocator<WeaponInfo> >
; Function compile flags: /Ogsp
;	COMDAT ??$_Destroy_range@V?$allocator@UWeaponInfo@@@std@@@std@@YAXPAUWeaponInfo@@0AAV?$allocator@UWeaponInfo@@@0@@Z
_TEXT	SEGMENT
__First$ = 8						; size = 4
__Last$ = 12						; size = 4
__Al$ = 16						; size = 4
??$_Destroy_range@V?$allocator@UWeaponInfo@@@std@@@std@@YAXPAUWeaponInfo@@0AAV?$allocator@UWeaponInfo@@@0@@Z PROC ; std::_Destroy_range<std::allocator<WeaponInfo> >, COMDAT

; 87   : 	{	// destroy [_First, _Last)

  00000	55		 push	 ebp
  00001	8b ec		 mov	 ebp, esp
  00003	56		 push	 esi

; 88   : 	_Destroy_range(_First, _Last, _Al, _Ptr_cat(_First, _Last));

  00004	8b 75 08	 mov	 esi, DWORD PTR __First$[ebp]
  00007	eb 0c		 jmp	 SHORT $LN24@Destroy_ra@4
$LL7@Destroy_ra@4:
  00009	8d 4e 08	 lea	 ecx, DWORD PTR [esi+8]
  0000c	ff 15 00 00 00
	00		 call	 DWORD PTR __imp_??1ioHashString@@QAE@XZ
  00012	83 c6 28	 add	 esi, 40			; 00000028H
$LN24@Destroy_ra@4:
  00015	3b 75 0c	 cmp	 esi, DWORD PTR __Last$[ebp]
  00018	75 ef		 jne	 SHORT $LL7@Destroy_ra@4
  0001a	5e		 pop	 esi

; 89   : 	}

  0001b	5d		 pop	 ebp
  0001c	c3		 ret	 0
??$_Destroy_range@V?$allocator@UWeaponInfo@@@std@@@std@@YAXPAUWeaponInfo@@0AAV?$allocator@UWeaponInfo@@@0@@Z ENDP ; std::_Destroy_range<std::allocator<WeaponInfo> >
_TEXT	ENDS
PUBLIC	??$_Uninitialized_copy@V?$_Vector_const_iterator@V?$_Vector_val@VioHashString@@V?$allocator@VioHashString@@@std@@@std@@@std@@PAVioHashString@@V?$allocator@VioHashString@@@2@@std@@YAPAVioHashString@@V?$_Vector_const_iterator@V?$_Vector_val@VioHashString@@V?$allocator@VioHashString@@@std@@@std@@@0@0PAV1@AAV?$allocator@VioHashString@@@0@@Z ; std::_Uninitialized_copy<std::_Vector_const_iterator<std::_Vector_val<ioHashString,std::allocator<ioHashString> > >,ioHashString *,std::allocator<ioHashString> >
; Function compile flags: /Ogsp
; File c:\program files (x86)\microsoft visual studio 10.0\vc\include\memory
;	COMDAT ??$_Uninitialized_copy@V?$_Vector_const_iterator@V?$_Vector_val@VioHashString@@V?$allocator@VioHashString@@@std@@@std@@@std@@PAVioHashString@@V?$allocator@VioHashString@@@2@@std@@YAPAVioHashString@@V?$_Vector_const_iterator@V?$_Vector_val@VioHashString@@V?$allocator@VioHashString@@@std@@@std@@@0@0PAV1@AAV?$allocator@VioHashString@@@0@@Z
_TEXT	SEGMENT
__Cat$533157 = -4					; size = 1
__First$ = 8						; size = 4
__Last$ = 12						; size = 4
__Dest$ = 16						; size = 4
__Al$ = 20						; size = 4
??$_Uninitialized_copy@V?$_Vector_const_iterator@V?$_Vector_val@VioHashString@@V?$allocator@VioHashString@@@std@@@std@@@std@@PAVioHashString@@V?$allocator@VioHashString@@@2@@std@@YAPAVioHashString@@V?$_Vector_const_iterator@V?$_Vector_val@VioHashString@@V?$allocator@VioHashString@@@std@@@std@@@0@0PAV1@AAV?$allocator@VioHashString@@@0@@Z PROC ; std::_Uninitialized_copy<std::_Vector_const_iterator<std::_Vector_val<ioHashString,std::allocator<ioHashString> > >,ioHashString *,std::allocator<ioHashString> >, COMDAT

; 412  : 	{	// copy [_First, _Last) to raw _Dest, using _Al

  00000	55		 push	 ebp
  00001	8b ec		 mov	 ebp, esp
  00003	51		 push	 ecx

; 413  : 	return (_Uninit_copy(_First, _Last, _Dest, _Al,
; 414  : 		_Ptr_cat(_First, _Dest)));

  00004	ff 75 fc	 push	 DWORD PTR __Cat$533157[ebp]
  00007	ff 75 14	 push	 DWORD PTR __Al$[ebp]
  0000a	ff 75 10	 push	 DWORD PTR __Dest$[ebp]
  0000d	ff 75 0c	 push	 DWORD PTR __Last$[ebp]
  00010	ff 75 08	 push	 DWORD PTR __First$[ebp]
  00013	e8 00 00 00 00	 call	 ??$_Uninit_copy@V?$_Vector_const_iterator@V?$_Vector_val@VioHashString@@V?$allocator@VioHashString@@@std@@@std@@@std@@PAVioHashString@@V?$allocator@VioHashString@@@2@@std@@YAPAVioHashString@@V?$_Vector_const_iterator@V?$_Vector_val@VioHashString@@V?$allocator@VioHashString@@@std@@@std@@@0@0PAV1@AAV?$allocator@VioHashString@@@0@U_Nonscalar_ptr_iterator_tag@0@@Z ; std::_Uninit_copy<std::_Vector_const_iterator<std::_Vector_val<ioHashString,std::allocator<ioHashString> > >,ioHashString *,std::allocator<ioHashString> >
  00018	83 c4 14	 add	 esp, 20			; 00000014H

; 415  : 	}

  0001b	c9		 leave
  0001c	c3		 ret	 0
??$_Uninitialized_copy@V?$_Vector_const_iterator@V?$_Vector_val@VioHashString@@V?$allocator@VioHashString@@@std@@@std@@@std@@PAVioHashString@@V?$allocator@VioHashString@@@2@@std@@YAPAVioHashString@@V?$_Vector_const_iterator@V?$_Vector_val@VioHashString@@V?$allocator@VioHashString@@@std@@@std@@@0@0PAV1@AAV?$allocator@VioHashString@@@0@@Z ENDP ; std::_Uninitialized_copy<std::_Vector_const_iterator<std::_Vector_val<ioHashString,std::allocator<ioHashString> > >,ioHashString *,std::allocator<ioHashString> >
_TEXT	ENDS
PUBLIC	??$_Umove@PAVioHashString@@@?$vector@VioHashString@@V?$allocator@VioHashString@@@std@@@std@@IAEPAVioHashString@@PAV2@00@Z ; std::vector<ioHashString,std::allocator<ioHashString> >::_Umove<ioHashString *>
; Function compile flags: /Ogsp
; File c:\program files (x86)\microsoft visual studio 10.0\vc\include\vector
;	COMDAT ??$_Umove@PAVioHashString@@@?$vector@VioHashString@@V?$allocator@VioHashString@@@std@@@std@@IAEPAVioHashString@@PAV2@00@Z
_TEXT	SEGMENT
__First$ = 8						; size = 4
__Last$ = 12						; size = 4
__Ptr$ = 16						; size = 4
??$_Umove@PAVioHashString@@@?$vector@VioHashString@@V?$allocator@VioHashString@@@std@@@std@@IAEPAVioHashString@@PAV2@00@Z PROC ; std::vector<ioHashString,std::allocator<ioHashString> >::_Umove<ioHashString *>, COMDAT
; _this$ = ecx

; 1322 : 		pointer _Umove(_Iter _First, _Iter _Last, pointer _Ptr)

  00000	55		 push	 ebp
  00001	8b ec		 mov	 ebp, esp

; 1323 : 		{	// move initializing [_First, _Last), using allocator
; 1324 : 		return (_Uninitialized_move(_First, _Last,
; 1325 : 			_Ptr, this->_Alval));

  00003	83 c1 0c	 add	 ecx, 12			; 0000000cH
  00006	51		 push	 ecx
  00007	ff 75 10	 push	 DWORD PTR __Ptr$[ebp]
  0000a	ff 75 0c	 push	 DWORD PTR __Last$[ebp]
  0000d	ff 75 08	 push	 DWORD PTR __First$[ebp]
  00010	e8 00 00 00 00	 call	 ??$_Uninitialized_move@PAVioHashString@@PAV1@V?$allocator@VioHashString@@@std@@@std@@YAPAVioHashString@@PAV1@00AAV?$allocator@VioHashString@@@0@@Z ; std::_Uninitialized_move<ioHashString *,ioHashString *,std::allocator<ioHashString> >
  00015	83 c4 10	 add	 esp, 16			; 00000010H

; 1326 : 		}

  00018	5d		 pop	 ebp
  00019	c2 0c 00	 ret	 12			; 0000000cH
??$_Umove@PAVioHashString@@@?$vector@VioHashString@@V?$allocator@VioHashString@@@std@@@std@@IAEPAVioHashString@@PAV2@00@Z ENDP ; std::vector<ioHashString,std::allocator<ioHashString> >::_Umove<ioHashString *>
_TEXT	ENDS
PUBLIC	??$_Ucopy@V?$_Vector_const_iterator@V?$_Vector_val@UWeaponInfo@@V?$allocator@UWeaponInfo@@@std@@@std@@@std@@@?$vector@UWeaponInfo@@V?$allocator@UWeaponInfo@@@std@@@std@@IAEPAUWeaponInfo@@V?$_Vector_const_iterator@V?$_Vector_val@UWeaponInfo@@V?$allocator@UWeaponInfo@@@std@@@std@@@1@0PAU2@@Z ; std::vector<WeaponInfo,std::allocator<WeaponInfo> >::_Ucopy<std::_Vector_const_iterator<std::_Vector_val<WeaponInfo,std::allocator<WeaponInfo> > > >
; Function compile flags: /Ogsp
;	COMDAT ??$_Ucopy@V?$_Vector_const_iterator@V?$_Vector_val@UWeaponInfo@@V?$allocator@UWeaponInfo@@@std@@@std@@@std@@@?$vector@UWeaponInfo@@V?$allocator@UWeaponInfo@@@std@@@std@@IAEPAUWeaponInfo@@V?$_Vector_const_iterator@V?$_Vector_val@UWeaponInfo@@V?$allocator@UWeaponInfo@@@std@@@std@@@1@0PAU2@@Z
_TEXT	SEGMENT
__First$ = 8						; size = 4
__Last$ = 12						; size = 4
__Cat$533172 = 16					; size = 1
__Ptr$ = 16						; size = 4
??$_Ucopy@V?$_Vector_const_iterator@V?$_Vector_val@UWeaponInfo@@V?$allocator@UWeaponInfo@@@std@@@std@@@std@@@?$vector@UWeaponInfo@@V?$allocator@UWeaponInfo@@@std@@@std@@IAEPAUWeaponInfo@@V?$_Vector_const_iterator@V?$_Vector_val@UWeaponInfo@@V?$allocator@UWeaponInfo@@@std@@@std@@@1@0PAU2@@Z PROC ; std::vector<WeaponInfo,std::allocator<WeaponInfo> >::_Ucopy<std::_Vector_const_iterator<std::_Vector_val<WeaponInfo,std::allocator<WeaponInfo> > > >, COMDAT
; _this$ = ecx

; 1315 : 		pointer _Ucopy(_Iter _First, _Iter _Last, pointer _Ptr)

  00000	55		 push	 ebp
  00001	8b ec		 mov	 ebp, esp

; 1316 : 		{	// copy initializing [_First, _Last), using allocator
; 1317 : 		return (_Uninitialized_copy(_First, _Last,
; 1318 : 			_Ptr, this->_Alval));

  00003	ff 75 10	 push	 DWORD PTR __Cat$533172[ebp]
  00006	83 c1 0c	 add	 ecx, 12			; 0000000cH
  00009	51		 push	 ecx
  0000a	ff 75 10	 push	 DWORD PTR __Ptr$[ebp]
  0000d	ff 75 0c	 push	 DWORD PTR __Last$[ebp]
  00010	ff 75 08	 push	 DWORD PTR __First$[ebp]
  00013	e8 00 00 00 00	 call	 ??$_Uninit_copy@V?$_Vector_const_iterator@V?$_Vector_val@UWeaponInfo@@V?$allocator@UWeaponInfo@@@std@@@std@@@std@@PAUWeaponInfo@@V?$allocator@UWeaponInfo@@@2@@std@@YAPAUWeaponInfo@@V?$_Vector_const_iterator@V?$_Vector_val@UWeaponInfo@@V?$allocator@UWeaponInfo@@@std@@@std@@@0@0PAU1@AAV?$allocator@UWeaponInfo@@@0@U_Nonscalar_ptr_iterator_tag@0@@Z ; std::_Uninit_copy<std::_Vector_const_iterator<std::_Vector_val<WeaponInfo,std::allocator<WeaponInfo> > >,WeaponInfo *,std::allocator<WeaponInfo> >
  00018	83 c4 14	 add	 esp, 20			; 00000014H

; 1319 : 		}

  0001b	5d		 pop	 ebp
  0001c	c2 0c 00	 ret	 12			; 0000000cH
??$_Ucopy@V?$_Vector_const_iterator@V?$_Vector_val@UWeaponInfo@@V?$allocator@UWeaponInfo@@@std@@@std@@@std@@@?$vector@UWeaponInfo@@V?$allocator@UWeaponInfo@@@std@@@std@@IAEPAUWeaponInfo@@V?$_Vector_const_iterator@V?$_Vector_val@UWeaponInfo@@V?$allocator@UWeaponInfo@@@std@@@std@@@1@0PAU2@@Z ENDP ; std::vector<WeaponInfo,std::allocator<WeaponInfo> >::_Ucopy<std::_Vector_const_iterator<std::_Vector_val<WeaponInfo,std::allocator<WeaponInfo> > > >
_TEXT	ENDS
PUBLIC	?_Tidy@?$vector@UForceInfo@@V?$allocator@UForceInfo@@@std@@@std@@IAEXXZ ; std::vector<ForceInfo,std::allocator<ForceInfo> >::_Tidy
EXTRN	__imp_?_Orphan_all@_Container_base0@std@@QAEXXZ:PROC
; Function compile flags: /Ogsp
;	COMDAT ?_Tidy@?$vector@UForceInfo@@V?$allocator@UForceInfo@@@std@@@std@@IAEXXZ
_TEXT	SEGMENT
?_Tidy@?$vector@UForceInfo@@V?$allocator@UForceInfo@@@std@@@std@@IAEXXZ PROC ; std::vector<ForceInfo,std::allocator<ForceInfo> >::_Tidy, COMDAT
; _this$ = ecx

; 1301 : 		{	// free all storage

  00000	56		 push	 esi
  00001	8b f1		 mov	 esi, ecx

; 1302 : 		if (this->_Myfirst != 0)

  00003	83 3e 00	 cmp	 DWORD PTR [esi], 0
  00006	74 0e		 je	 SHORT $LN21@Tidy

; 1303 : 			{	// something to free, destroy and deallocate it
; 1304 : 			this->_Orphan_all();

  00008	ff 15 00 00 00
	00		 call	 DWORD PTR __imp_?_Orphan_all@_Container_base0@std@@QAEXXZ

; 1305 : 			_Destroy(this->_Myfirst, this->_Mylast);
; 1306 : 			this->_Alval.deallocate(this->_Myfirst,
; 1307 : 				this->_Myend - this->_Myfirst);

  0000e	ff 36		 push	 DWORD PTR [esi]
  00010	e8 00 00 00 00	 call	 ??3@YAXPAX@Z		; operator delete
  00015	59		 pop	 ecx
$LN21@Tidy:

; 1308 : 			}
; 1309 : 		this->_Myfirst = 0;

  00016	83 26 00	 and	 DWORD PTR [esi], 0

; 1310 : 		this->_Mylast = 0;

  00019	83 66 04 00	 and	 DWORD PTR [esi+4], 0

; 1311 : 		this->_Myend = 0;

  0001d	83 66 08 00	 and	 DWORD PTR [esi+8], 0
  00021	5e		 pop	 esi

; 1312 : 		}

  00022	c3		 ret	 0
?_Tidy@?$vector@UForceInfo@@V?$allocator@UForceInfo@@@std@@@std@@IAEXXZ ENDP ; std::vector<ForceInfo,std::allocator<ForceInfo> >::_Tidy
_TEXT	ENDS
PUBLIC	?_Destroy@?$vector@VioHashString@@V?$allocator@VioHashString@@@std@@@std@@IAEXPAVioHashString@@0@Z ; std::vector<ioHashString,std::allocator<ioHashString> >::_Destroy
; Function compile flags: /Ogsp
;	COMDAT ?_Destroy@?$vector@VioHashString@@V?$allocator@VioHashString@@@std@@@std@@IAEXPAVioHashString@@0@Z
_TEXT	SEGMENT
__First$ = 8						; size = 4
__Last$ = 12						; size = 4
?_Destroy@?$vector@VioHashString@@V?$allocator@VioHashString@@@std@@@std@@IAEXPAVioHashString@@0@Z PROC ; std::vector<ioHashString,std::allocator<ioHashString> >::_Destroy, COMDAT
; _this$ = ecx

; 1269 : 		{	// destroy [_First, _Last) using allocator

  00000	55		 push	 ebp
  00001	8b ec		 mov	 ebp, esp
  00003	56		 push	 esi

; 1270 : 		_Destroy_range(_First, _Last, this->_Alval);

  00004	8b 75 08	 mov	 esi, DWORD PTR __First$[ebp]
  00007	eb 0b		 jmp	 SHORT $LN23@Destroy
$LL9@Destroy:
  00009	8b ce		 mov	 ecx, esi
  0000b	ff 15 00 00 00
	00		 call	 DWORD PTR __imp_??1ioHashString@@QAE@XZ
  00011	83 c6 10	 add	 esi, 16			; 00000010H
$LN23@Destroy:
  00014	3b 75 0c	 cmp	 esi, DWORD PTR __Last$[ebp]
  00017	75 f0		 jne	 SHORT $LL9@Destroy
  00019	5e		 pop	 esi

; 1271 : 		}

  0001a	5d		 pop	 ebp
  0001b	c2 08 00	 ret	 8
?_Destroy@?$vector@VioHashString@@V?$allocator@VioHashString@@@std@@@std@@IAEXPAVioHashString@@0@Z ENDP ; std::vector<ioHashString,std::allocator<ioHashString> >::_Destroy
_TEXT	ENDS
PUBLIC	?_Destroy@?$vector@UWeaponInfo@@V?$allocator@UWeaponInfo@@@std@@@std@@IAEXPAUWeaponInfo@@0@Z ; std::vector<WeaponInfo,std::allocator<WeaponInfo> >::_Destroy
; Function compile flags: /Ogsp
;	COMDAT ?_Destroy@?$vector@UWeaponInfo@@V?$allocator@UWeaponInfo@@@std@@@std@@IAEXPAUWeaponInfo@@0@Z
_TEXT	SEGMENT
__First$ = 8						; size = 4
__Last$ = 12						; size = 4
?_Destroy@?$vector@UWeaponInfo@@V?$allocator@UWeaponInfo@@@std@@@std@@IAEXPAUWeaponInfo@@0@Z PROC ; std::vector<WeaponInfo,std::allocator<WeaponInfo> >::_Destroy, COMDAT
; _this$ = ecx

; 1269 : 		{	// destroy [_First, _Last) using allocator

  00000	55		 push	 ebp
  00001	8b ec		 mov	 ebp, esp

; 1270 : 		_Destroy_range(_First, _Last, this->_Alval);

  00003	83 c1 0c	 add	 ecx, 12			; 0000000cH
  00006	51		 push	 ecx
  00007	ff 75 0c	 push	 DWORD PTR __Last$[ebp]
  0000a	ff 75 08	 push	 DWORD PTR __First$[ebp]
  0000d	e8 00 00 00 00	 call	 ??$_Destroy_range@V?$allocator@UWeaponInfo@@@std@@@std@@YAXPAUWeaponInfo@@0AAV?$allocator@UWeaponInfo@@@0@@Z ; std::_Destroy_range<std::allocator<WeaponInfo> >
  00012	83 c4 0c	 add	 esp, 12			; 0000000cH

; 1271 : 		}

  00015	5d		 pop	 ebp
  00016	c2 08 00	 ret	 8
?_Destroy@?$vector@UWeaponInfo@@V?$allocator@UWeaponInfo@@@std@@@std@@IAEXPAUWeaponInfo@@0@Z ENDP ; std::vector<WeaponInfo,std::allocator<WeaponInfo> >::_Destroy
_TEXT	ENDS
PUBLIC	??$_Ucopy@V?$_Vector_const_iterator@V?$_Vector_val@VioHashString@@V?$allocator@VioHashString@@@std@@@std@@@std@@@?$vector@VioHashString@@V?$allocator@VioHashString@@@std@@@std@@IAEPAVioHashString@@V?$_Vector_const_iterator@V?$_Vector_val@VioHashString@@V?$allocator@VioHashString@@@std@@@std@@@1@0PAV2@@Z ; std::vector<ioHashString,std::allocator<ioHashString> >::_Ucopy<std::_Vector_const_iterator<std::_Vector_val<ioHashString,std::allocator<ioHashString> > > >
; Function compile flags: /Ogsp
;	COMDAT ??$_Ucopy@V?$_Vector_const_iterator@V?$_Vector_val@VioHashString@@V?$allocator@VioHashString@@@std@@@std@@@std@@@?$vector@VioHashString@@V?$allocator@VioHashString@@@std@@@std@@IAEPAVioHashString@@V?$_Vector_const_iterator@V?$_Vector_val@VioHashString@@V?$allocator@VioHashString@@@std@@@std@@@1@0PAV2@@Z
_TEXT	SEGMENT
__First$ = 8						; size = 4
__Last$ = 12						; size = 4
__Cat$533347 = 16					; size = 1
__Ptr$ = 16						; size = 4
??$_Ucopy@V?$_Vector_const_iterator@V?$_Vector_val@VioHashString@@V?$allocator@VioHashString@@@std@@@std@@@std@@@?$vector@VioHashString@@V?$allocator@VioHashString@@@std@@@std@@IAEPAVioHashString@@V?$_Vector_const_iterator@V?$_Vector_val@VioHashString@@V?$allocator@VioHashString@@@std@@@std@@@1@0PAV2@@Z PROC ; std::vector<ioHashString,std::allocator<ioHashString> >::_Ucopy<std::_Vector_const_iterator<std::_Vector_val<ioHashString,std::allocator<ioHashString> > > >, COMDAT
; _this$ = ecx

; 1315 : 		pointer _Ucopy(_Iter _First, _Iter _Last, pointer _Ptr)

  00000	55		 push	 ebp
  00001	8b ec		 mov	 ebp, esp

; 1316 : 		{	// copy initializing [_First, _Last), using allocator
; 1317 : 		return (_Uninitialized_copy(_First, _Last,
; 1318 : 			_Ptr, this->_Alval));

  00003	ff 75 10	 push	 DWORD PTR __Cat$533347[ebp]
  00006	83 c1 0c	 add	 ecx, 12			; 0000000cH
  00009	51		 push	 ecx
  0000a	ff 75 10	 push	 DWORD PTR __Ptr$[ebp]
  0000d	ff 75 0c	 push	 DWORD PTR __Last$[ebp]
  00010	ff 75 08	 push	 DWORD PTR __First$[ebp]
  00013	e8 00 00 00 00	 call	 ??$_Uninit_copy@V?$_Vector_const_iterator@V?$_Vector_val@VioHashString@@V?$allocator@VioHashString@@@std@@@std@@@std@@PAVioHashString@@V?$allocator@VioHashString@@@2@@std@@YAPAVioHashString@@V?$_Vector_const_iterator@V?$_Vector_val@VioHashString@@V?$allocator@VioHashString@@@std@@@std@@@0@0PAV1@AAV?$allocator@VioHashString@@@0@U_Nonscalar_ptr_iterator_tag@0@@Z ; std::_Uninit_copy<std::_Vector_const_iterator<std::_Vector_val<ioHashString,std::allocator<ioHashString> > >,ioHashString *,std::allocator<ioHashString> >
  00018	83 c4 14	 add	 esp, 20			; 00000014H

; 1319 : 		}

  0001b	5d		 pop	 ebp
  0001c	c2 0c 00	 ret	 12			; 0000000cH
??$_Ucopy@V?$_Vector_const_iterator@V?$_Vector_val@VioHashString@@V?$allocator@VioHashString@@@std@@@std@@@std@@@?$vector@VioHashString@@V?$allocator@VioHashString@@@std@@@std@@IAEPAVioHashString@@V?$_Vector_const_iterator@V?$_Vector_val@VioHashString@@V?$allocator@VioHashString@@@std@@@std@@@1@0PAV2@@Z ENDP ; std::vector<ioHashString,std::allocator<ioHashString> >::_Ucopy<std::_Vector_const_iterator<std::_Vector_val<ioHashString,std::allocator<ioHashString> > > >
_TEXT	ENDS
PUBLIC	?reserve@?$vector@VioHashString@@V?$allocator@VioHashString@@@std@@@std@@QAEXI@Z ; std::vector<ioHashString,std::allocator<ioHashString> >::reserve
;	COMDAT xdata$x
; File c:\program files (x86)\microsoft visual studio 10.0\vc\include\xmemory
xdata$x	SEGMENT
__catchsym$?reserve@?$vector@VioHashString@@V?$allocator@VioHashString@@@std@@@std@@QAEXI@Z$2 DD 040H
	DD	00H
	DD	00H
	DD	FLAT:__catch$?reserve@?$vector@VioHashString@@V?$allocator@VioHashString@@@std@@@std@@QAEXI@Z$0
__unwindtable$?reserve@?$vector@VioHashString@@V?$allocator@VioHashString@@@std@@@std@@QAEXI@Z DD 0ffffffffH
	DD	00H
	DD	0ffffffffH
	DD	00H
__tryblocktable$?reserve@?$vector@VioHashString@@V?$allocator@VioHashString@@@std@@@std@@QAEXI@Z DD 00H
	DD	00H
	DD	01H
	DD	01H
	DD	FLAT:__catchsym$?reserve@?$vector@VioHashString@@V?$allocator@VioHashString@@@std@@@std@@QAEXI@Z$2
__ehfuncinfo$?reserve@?$vector@VioHashString@@V?$allocator@VioHashString@@@std@@@std@@QAEXI@Z DD 019930522H
	DD	02H
	DD	FLAT:__unwindtable$?reserve@?$vector@VioHashString@@V?$allocator@VioHashString@@@std@@@std@@QAEXI@Z
	DD	01H
	DD	FLAT:__tryblocktable$?reserve@?$vector@VioHashString@@V?$allocator@VioHashString@@@std@@@std@@QAEXI@Z
	DD	2 DUP(00H)
	DD	00H
	DD	01H
; Function compile flags: /Ogsp
; File c:\program files (x86)\microsoft visual studio 10.0\vc\include\vector
xdata$x	ENDS
;	COMDAT ?reserve@?$vector@VioHashString@@V?$allocator@VioHashString@@@std@@@std@@QAEXI@Z
_TEXT	SEGMENT
tv300 = -24						; size = 4
__Ptr$524611 = -20					; size = 4
__$EHRec$ = -16						; size = 16
$T533444 = 8						; size = 4
__Count$ = 8						; size = 4
?reserve@?$vector@VioHashString@@V?$allocator@VioHashString@@@std@@@std@@QAEXI@Z PROC ; std::vector<ioHashString,std::allocator<ioHashString> >::reserve, COMDAT
; _this$ = ecx

; 746  : 		{	// determine new minimum length of allocated storage

  00000	6a 0c		 push	 12			; 0000000cH
  00002	b8 00 00 00 00	 mov	 eax, __ehhandler$?reserve@?$vector@VioHashString@@V?$allocator@VioHashString@@@std@@@std@@QAEXI@Z
  00007	e8 00 00 00 00	 call	 __EH_prolog3_catch
  0000c	8b f1		 mov	 esi, ecx

; 747  : 		if (max_size() < _Count)

  0000e	8b 5d 08	 mov	 ebx, DWORD PTR __Count$[ebp]
  00011	81 fb ff ff ff
	0f		 cmp	 ebx, 268435455		; 0fffffffH
  00017	76 0b		 jbe	 SHORT $LN5@reserve

; 748  : 			_Xlen();	// result too long

  00019	68 00 00 00 00	 push	 OFFSET ??_C@_0BD@OLBABOEK@vector?$DMT?$DO?5too?5long?$AA@
  0001e	ff 15 00 00 00
	00		 call	 DWORD PTR __imp_?_Xlength_error@std@@YAXPBD@Z
$LN59@reserve:
$LN5@reserve:

; 749  : 		else if (capacity() < _Count)

  00024	8b 46 08	 mov	 eax, DWORD PTR [esi+8]
  00027	2b 06		 sub	 eax, DWORD PTR [esi]
  00029	c1 f8 04	 sar	 eax, 4
  0002c	3b c3		 cmp	 eax, ebx
  0002e	73 7a		 jae	 SHORT $LN3@reserve

; 750  : 			{	// not enough room, reallocate
; 751  : 			pointer _Ptr = this->_Alval.allocate(_Count);

  00030	6a 00		 push	 0
  00032	53		 push	 ebx
  00033	e8 00 00 00 00	 call	 ??$_Allocate@VioHashString@@@std@@YAPAVioHashString@@IPAV1@@Z ; std::_Allocate<ioHashString>

; 752  : 
; 753  : 			_TRY_BEGIN
; 754  : 			_Umove(this->_Myfirst, this->_Mylast, _Ptr);

  00038	8b 0e		 mov	 ecx, DWORD PTR [esi]
  0003a	83 65 fc 00	 and	 DWORD PTR __$EHRec$[ebp+12], 0
  0003e	8d 56 0c	 lea	 edx, DWORD PTR [esi+12]
  00041	52		 push	 edx
  00042	89 45 ec	 mov	 DWORD PTR __Ptr$524611[ebp], eax
  00045	ff 75 ec	 push	 DWORD PTR __Ptr$524611[ebp]
  00048	8b 46 04	 mov	 eax, DWORD PTR [esi+4]
  0004b	50		 push	 eax
  0004c	51		 push	 ecx
  0004d	e8 00 00 00 00	 call	 ??$_Uninitialized_move@PAVioHashString@@PAV1@V?$allocator@VioHashString@@@std@@@std@@YAPAVioHashString@@PAV1@00AAV?$allocator@VioHashString@@@0@@Z ; std::_Uninitialized_move<ioHashString *,ioHashString *,std::allocator<ioHashString> >

; 758  : 			_CATCH_END
; 759  : 
; 760  : 			size_type _Size = size();

  00052	8b 4e 04	 mov	 ecx, DWORD PTR [esi+4]
  00055	8b 06		 mov	 eax, DWORD PTR [esi]
  00057	83 4d fc ff	 or	 DWORD PTR __$EHRec$[ebp+12], -1
  0005b	8b f9		 mov	 edi, ecx
  0005d	83 c4 18	 add	 esp, 24			; 00000018H
  00060	2b f8		 sub	 edi, eax
  00062	89 4d e8	 mov	 DWORD PTR tv300[ebp], ecx
  00065	85 c0		 test	 eax, eax
  00067	74 24		 je	 SHORT $LN51@reserve

; 761  : 			if (this->_Myfirst != 0)
; 762  : 				{	// destroy and deallocate old array
; 763  : 				_Destroy(this->_Myfirst, this->_Mylast);

  00069	89 45 08	 mov	 DWORD PTR $T533444[ebp], eax
  0006c	3b c1		 cmp	 eax, ecx
  0006e	74 15		 je	 SHORT $LN37@reserve
$LN39@reserve:
  00070	8b 4d 08	 mov	 ecx, DWORD PTR $T533444[ebp]
  00073	ff 15 00 00 00
	00		 call	 DWORD PTR __imp_??1ioHashString@@QAE@XZ
  00079	83 45 08 10	 add	 DWORD PTR $T533444[ebp], 16 ; 00000010H
  0007d	8b 45 08	 mov	 eax, DWORD PTR $T533444[ebp]
  00080	3b 45 e8	 cmp	 eax, DWORD PTR tv300[ebp]
  00083	75 eb		 jne	 SHORT $LN39@reserve
$LN37@reserve:

; 764  : 				this->_Alval.deallocate(this->_Myfirst,
; 765  : 					this->_Myend - this->_Myfirst);

  00085	ff 36		 push	 DWORD PTR [esi]
  00087	e8 00 00 00 00	 call	 ??3@YAXPAX@Z		; operator delete
  0008c	59		 pop	 ecx
$LN51@reserve:

; 766  : 				}
; 767  : 
; 768  : 			this->_Orphan_all();

  0008d	8b ce		 mov	 ecx, esi
  0008f	ff 15 00 00 00
	00		 call	 DWORD PTR __imp_?_Orphan_all@_Container_base0@std@@QAEXXZ

; 769  : 			this->_Myend = _Ptr + _Count;

  00095	8b 45 ec	 mov	 eax, DWORD PTR __Ptr$524611[ebp]
  00098	c1 e3 04	 shl	 ebx, 4
  0009b	03 d8		 add	 ebx, eax

; 770  : 			this->_Mylast = _Ptr + _Size;

  0009d	83 e7 f0	 and	 edi, -16		; fffffff0H
  000a0	03 f8		 add	 edi, eax
  000a2	89 5e 08	 mov	 DWORD PTR [esi+8], ebx
  000a5	89 7e 04	 mov	 DWORD PTR [esi+4], edi

; 771  : 			this->_Myfirst = _Ptr;

  000a8	89 06		 mov	 DWORD PTR [esi], eax
$LN3@reserve:

; 772  : 			}
; 773  : 		}

  000aa	e8 00 00 00 00	 call	 __EH_epilog3
  000af	c2 04 00	 ret	 4
__catch$?reserve@?$vector@VioHashString@@V?$allocator@VioHashString@@@std@@@std@@QAEXI@Z$0:

; 755  : 			_CATCH_ALL
; 756  : 			this->_Alval.deallocate(_Ptr, _Count);

  000b2	ff 75 ec	 push	 DWORD PTR __Ptr$524611[ebp]
  000b5	e8 00 00 00 00	 call	 ??3@YAXPAX@Z		; operator delete
  000ba	59		 pop	 ecx

; 757  : 			_RERAISE;

  000bb	6a 00		 push	 0
  000bd	6a 00		 push	 0
  000bf	e8 00 00 00 00	 call	 __CxxThrowException@8
$LN60@reserve:
$LN58@reserve:
  000c4	cc		 int	 3
_TEXT	ENDS
;	COMDAT text$x
text$x	SEGMENT
__ehhandler$?reserve@?$vector@VioHashString@@V?$allocator@VioHashString@@@std@@@std@@QAEXI@Z:
  00000	8b 54 24 08	 mov	 edx, DWORD PTR [esp+8]
  00004	8d 42 0c	 lea	 eax, DWORD PTR [edx+12]
  00007	8b 4a e4	 mov	 ecx, DWORD PTR [edx-28]
  0000a	33 c8		 xor	 ecx, eax
  0000c	e8 00 00 00 00	 call	 @__security_check_cookie@4
  00011	b8 00 00 00 00	 mov	 eax, OFFSET __ehfuncinfo$?reserve@?$vector@VioHashString@@V?$allocator@VioHashString@@@std@@@std@@QAEXI@Z
  00016	e9 00 00 00 00	 jmp	 ___CxxFrameHandler3
text$x	ENDS
?reserve@?$vector@VioHashString@@V?$allocator@VioHashString@@@std@@@std@@QAEXI@Z ENDP ; std::vector<ioHashString,std::allocator<ioHashString> >::reserve
PUBLIC	??0?$vector@UForceInfo@@V?$allocator@UForceInfo@@@std@@@std@@QAE@ABV01@@Z ; std::vector<ForceInfo,std::allocator<ForceInfo> >::vector<ForceInfo,std::allocator<ForceInfo> >
;	COMDAT xdata$x
; File c:\program files (x86)\microsoft visual studio 10.0\vc\include\xutility
xdata$x	SEGMENT
__catchsym$??0?$vector@UForceInfo@@V?$allocator@UForceInfo@@@std@@@std@@QAE@ABV01@@Z$2 DD 040H
	DD	00H
	DD	00H
	DD	FLAT:__catch$??0?$vector@UForceInfo@@V?$allocator@UForceInfo@@@std@@@std@@QAE@ABV01@@Z$0
__unwindtable$??0?$vector@UForceInfo@@V?$allocator@UForceInfo@@@std@@@std@@QAE@ABV01@@Z DD 0ffffffffH
	DD	00H
	DD	0ffffffffH
	DD	00H
__tryblocktable$??0?$vector@UForceInfo@@V?$allocator@UForceInfo@@@std@@@std@@QAE@ABV01@@Z DD 00H
	DD	00H
	DD	01H
	DD	01H
	DD	FLAT:__catchsym$??0?$vector@UForceInfo@@V?$allocator@UForceInfo@@@std@@@std@@QAE@ABV01@@Z$2
__ehfuncinfo$??0?$vector@UForceInfo@@V?$allocator@UForceInfo@@@std@@@std@@QAE@ABV01@@Z DD 019930522H
	DD	02H
	DD	FLAT:__unwindtable$??0?$vector@UForceInfo@@V?$allocator@UForceInfo@@@std@@@std@@QAE@ABV01@@Z
	DD	01H
	DD	FLAT:__tryblocktable$??0?$vector@UForceInfo@@V?$allocator@UForceInfo@@@std@@@std@@QAE@ABV01@@Z
	DD	2 DUP(00H)
	DD	00H
	DD	01H
; Function compile flags: /Ogsp
; File c:\program files (x86)\microsoft visual studio 10.0\vc\include\vector
xdata$x	ENDS
;	COMDAT ??0?$vector@UForceInfo@@V?$allocator@UForceInfo@@@std@@@std@@QAE@ABV01@@Z
_TEXT	SEGMENT
_this$ = -20						; size = 4
__$EHRec$ = -16						; size = 16
__Cat$533586 = 8					; size = 1
__Right$ = 8						; size = 4
??0?$vector@UForceInfo@@V?$allocator@UForceInfo@@@std@@@std@@QAE@ABV01@@Z PROC ; std::vector<ForceInfo,std::allocator<ForceInfo> >::vector<ForceInfo,std::allocator<ForceInfo> >, COMDAT
; _this$ = ecx

; 535  : 		{	// construct by copying _Right

  00000	6a 08		 push	 8
  00002	b8 00 00 00 00	 mov	 eax, __ehhandler$??0?$vector@UForceInfo@@V?$allocator@UForceInfo@@@std@@@std@@QAE@ABV01@@Z
  00007	e8 00 00 00 00	 call	 __EH_prolog3_catch
  0000c	8b f1		 mov	 esi, ecx
  0000e	89 75 ec	 mov	 DWORD PTR _this$[ebp], esi

; 536  : 		if (_Buy(_Right.size()))

  00011	8b 7d 08	 mov	 edi, DWORD PTR __Right$[ebp]
  00014	33 db		 xor	 ebx, ebx
  00016	89 1e		 mov	 DWORD PTR [esi], ebx
  00018	89 5e 04	 mov	 DWORD PTR [esi+4], ebx
  0001b	89 5e 08	 mov	 DWORD PTR [esi+8], ebx
  0001e	8b 47 04	 mov	 eax, DWORD PTR [edi+4]
  00021	2b 07		 sub	 eax, DWORD PTR [edi]
  00023	6a 0c		 push	 12			; 0000000cH
  00025	59		 pop	 ecx
  00026	99		 cdq
  00027	f7 f9		 idiv	 ecx
  00029	8b ce		 mov	 ecx, esi
  0002b	50		 push	 eax
  0002c	e8 00 00 00 00	 call	 ?_Buy@?$vector@UForceInfo@@V?$allocator@UForceInfo@@@std@@@std@@IAE_NI@Z ; std::vector<ForceInfo,std::allocator<ForceInfo> >::_Buy
  00031	84 c0		 test	 al, al
  00033	74 1f		 je	 SHORT $LN7@vector

; 537  : 			_TRY_BEGIN
; 538  : 			this->_Mylast = _Ucopy(_Right.begin(), _Right.end(),
; 539  : 				this->_Myfirst);

  00035	ff 75 08	 push	 DWORD PTR __Cat$533586[ebp]
  00038	8b 0e		 mov	 ecx, DWORD PTR [esi]
  0003a	8b 47 04	 mov	 eax, DWORD PTR [edi+4]
  0003d	8b 3f		 mov	 edi, DWORD PTR [edi]
  0003f	8d 56 0c	 lea	 edx, DWORD PTR [esi+12]
  00042	52		 push	 edx
  00043	51		 push	 ecx
  00044	50		 push	 eax
  00045	57		 push	 edi
  00046	89 5d fc	 mov	 DWORD PTR __$EHRec$[ebp+12], ebx
  00049	e8 00 00 00 00	 call	 ??$_Uninit_copy@V?$_Vector_const_iterator@V?$_Vector_val@UForceInfo@@V?$allocator@UForceInfo@@@std@@@std@@@std@@PAUForceInfo@@V?$allocator@UForceInfo@@@2@@std@@YAPAUForceInfo@@V?$_Vector_const_iterator@V?$_Vector_val@UForceInfo@@V?$allocator@UForceInfo@@@std@@@std@@@0@0PAU1@AAV?$allocator@UForceInfo@@@0@U_Nonscalar_ptr_iterator_tag@0@@Z ; std::_Uninit_copy<std::_Vector_const_iterator<std::_Vector_val<ForceInfo,std::allocator<ForceInfo> > >,ForceInfo *,std::allocator<ForceInfo> >
  0004e	83 c4 14	 add	 esp, 20			; 00000014H
  00051	89 46 04	 mov	 DWORD PTR [esi+4], eax
$LN7@vector:

; 543  : 			_CATCH_END
; 544  : 		}

  00054	8b c6		 mov	 eax, esi
  00056	e8 00 00 00 00	 call	 __EH_epilog3
  0005b	c2 04 00	 ret	 4
__catch$??0?$vector@UForceInfo@@V?$allocator@UForceInfo@@@std@@@std@@QAE@ABV01@@Z$0:

; 540  : 			_CATCH_ALL
; 541  : 			_Tidy();

  0005e	8b 4d ec	 mov	 ecx, DWORD PTR _this$[ebp]
  00061	e8 00 00 00 00	 call	 ?_Tidy@?$vector@UForceInfo@@V?$allocator@UForceInfo@@@std@@@std@@IAEXXZ ; std::vector<ForceInfo,std::allocator<ForceInfo> >::_Tidy

; 542  : 			_RERAISE;

  00066	33 db		 xor	 ebx, ebx
  00068	53		 push	 ebx
  00069	53		 push	 ebx
  0006a	e8 00 00 00 00	 call	 __CxxThrowException@8
$LN38@vector:
$LN37@vector:
  0006f	cc		 int	 3
_TEXT	ENDS
;	COMDAT text$x
text$x	SEGMENT
__ehhandler$??0?$vector@UForceInfo@@V?$allocator@UForceInfo@@@std@@@std@@QAE@ABV01@@Z:
  00000	8b 54 24 08	 mov	 edx, DWORD PTR [esp+8]
  00004	8d 42 0c	 lea	 eax, DWORD PTR [edx+12]
  00007	8b 4a e8	 mov	 ecx, DWORD PTR [edx-24]
  0000a	33 c8		 xor	 ecx, eax
  0000c	e8 00 00 00 00	 call	 @__security_check_cookie@4
  00011	b8 00 00 00 00	 mov	 eax, OFFSET __ehfuncinfo$??0?$vector@UForceInfo@@V?$allocator@UForceInfo@@@std@@@std@@QAE@ABV01@@Z
  00016	e9 00 00 00 00	 jmp	 ___CxxFrameHandler3
text$x	ENDS
??0?$vector@UForceInfo@@V?$allocator@UForceInfo@@@std@@@std@@QAE@ABV01@@Z ENDP ; std::vector<ForceInfo,std::allocator<ForceInfo> >::vector<ForceInfo,std::allocator<ForceInfo> >
PUBLIC	?_Reserve@?$vector@VioHashString@@V?$allocator@VioHashString@@@std@@@std@@IAEXI@Z ; std::vector<ioHashString,std::allocator<ioHashString> >::_Reserve
; Function compile flags: /Ogsp
;	COMDAT ?_Reserve@?$vector@VioHashString@@V?$allocator@VioHashString@@@std@@@std@@IAEXI@Z
_TEXT	SEGMENT
__Count$ = 8						; size = 4
?_Reserve@?$vector@VioHashString@@V?$allocator@VioHashString@@@std@@@std@@IAEXI@Z PROC ; std::vector<ioHashString,std::allocator<ioHashString> >::_Reserve, COMDAT
; _this$ = ecx

; 1290 : 		{	// ensure room for _Count new elements, grow exponentially

  00000	55		 push	 ebp
  00001	8b ec		 mov	 ebp, esp
  00003	56		 push	 esi
  00004	8b f1		 mov	 esi, ecx

; 1291 : 		size_type _Size = size();

  00006	8b 0e		 mov	 ecx, DWORD PTR [esi]
  00008	8b 46 04	 mov	 eax, DWORD PTR [esi+4]
  0000b	2b c1		 sub	 eax, ecx

; 1292 : 		if (max_size() - _Count < _Size)

  0000d	ba ff ff ff 0f	 mov	 edx, 268435455		; 0fffffffH
  00012	2b 55 08	 sub	 edx, DWORD PTR __Count$[ebp]
  00015	c1 f8 04	 sar	 eax, 4
  00018	3b d0		 cmp	 edx, eax
  0001a	73 0b		 jae	 SHORT $LN4@Reserve

; 1293 : 			_Xlen();

  0001c	68 00 00 00 00	 push	 OFFSET ??_C@_0BD@OLBABOEK@vector?$DMT?$DO?5too?5long?$AA@
  00021	ff 15 00 00 00
	00		 call	 DWORD PTR __imp_?_Xlength_error@std@@YAXPBD@Z
$LN21@Reserve:
$LN4@Reserve:

; 1294 : 		else if ((_Size += _Count) <= capacity())

  00027	8b 56 08	 mov	 edx, DWORD PTR [esi+8]
  0002a	03 45 08	 add	 eax, DWORD PTR __Count$[ebp]
  0002d	2b d1		 sub	 edx, ecx
  0002f	c1 fa 04	 sar	 edx, 4
  00032	3b c2		 cmp	 eax, edx
  00034	76 10		 jbe	 SHORT $LN1@Reserve

; 1295 : 			;
; 1296 : 		else
; 1297 : 			reserve(_Grow_to(_Size));

  00036	50		 push	 eax
  00037	8b ce		 mov	 ecx, esi
  00039	e8 00 00 00 00	 call	 ?_Grow_to@?$vector@VioHashString@@V?$allocator@VioHashString@@@std@@@std@@IBEII@Z ; std::vector<ioHashString,std::allocator<ioHashString> >::_Grow_to
  0003e	50		 push	 eax
  0003f	8b ce		 mov	 ecx, esi
  00041	e8 00 00 00 00	 call	 ?reserve@?$vector@VioHashString@@V?$allocator@VioHashString@@@std@@@std@@QAEXI@Z ; std::vector<ioHashString,std::allocator<ioHashString> >::reserve
$LN1@Reserve:
  00046	5e		 pop	 esi

; 1298 : 		}

  00047	5d		 pop	 ebp
  00048	c2 04 00	 ret	 4
$LN20@Reserve:
?_Reserve@?$vector@VioHashString@@V?$allocator@VioHashString@@@std@@@std@@IAEXI@Z ENDP ; std::vector<ioHashString,std::allocator<ioHashString> >::_Reserve
_TEXT	ENDS
PUBLIC	??1?$vector@UForceInfo@@V?$allocator@UForceInfo@@@std@@@std@@QAE@XZ ; std::vector<ForceInfo,std::allocator<ForceInfo> >::~vector<ForceInfo,std::allocator<ForceInfo> >
; Function compile flags: /Ogsp
;	COMDAT ??1?$vector@UForceInfo@@V?$allocator@UForceInfo@@@std@@@std@@QAE@XZ
_TEXT	SEGMENT
??1?$vector@UForceInfo@@V?$allocator@UForceInfo@@@std@@@std@@QAE@XZ PROC ; std::vector<ForceInfo,std::allocator<ForceInfo> >::~vector<ForceInfo,std::allocator<ForceInfo> >, COMDAT
; _this$ = ecx

; 705  : 		_Tidy();

  00000	e9 00 00 00 00	 jmp	 ?_Tidy@?$vector@UForceInfo@@V?$allocator@UForceInfo@@@std@@@std@@IAEXXZ ; std::vector<ForceInfo,std::allocator<ForceInfo> >::_Tidy
??1?$vector@UForceInfo@@V?$allocator@UForceInfo@@@std@@@std@@QAE@XZ ENDP ; std::vector<ForceInfo,std::allocator<ForceInfo> >::~vector<ForceInfo,std::allocator<ForceInfo> >
_TEXT	ENDS
PUBLIC	?erase@?$vector@VioHashString@@V?$allocator@VioHashString@@@std@@@std@@QAE?AV?$_Vector_iterator@V?$_Vector_val@VioHashString@@V?$allocator@VioHashString@@@std@@@std@@@2@V?$_Vector_const_iterator@V?$_Vector_val@VioHashString@@V?$allocator@VioHashString@@@std@@@std@@@2@0@Z ; std::vector<ioHashString,std::allocator<ioHashString> >::erase
; Function compile flags: /Ogsp
;	COMDAT ?erase@?$vector@VioHashString@@V?$allocator@VioHashString@@@std@@@std@@QAE?AV?$_Vector_iterator@V?$_Vector_val@VioHashString@@V?$allocator@VioHashString@@@std@@@std@@@2@V?$_Vector_const_iterator@V?$_Vector_val@VioHashString@@V?$allocator@VioHashString@@@std@@@std@@@2@0@Z
_TEXT	SEGMENT
$T533771 = -4						; size = 4
___$ReturnUdt$ = 8					; size = 4
__First_arg$ = 12					; size = 4
__Cat$533716 = 16					; size = 1
__Last_arg$ = 16					; size = 4
?erase@?$vector@VioHashString@@V?$allocator@VioHashString@@@std@@@std@@QAE?AV?$_Vector_iterator@V?$_Vector_val@VioHashString@@V?$allocator@VioHashString@@@std@@@std@@@2@V?$_Vector_const_iterator@V?$_Vector_val@VioHashString@@V?$allocator@VioHashString@@@std@@@std@@@2@0@Z PROC ; std::vector<ioHashString,std::allocator<ioHashString> >::erase, COMDAT
; _this$ = ecx

; 1190 : 		{	// erase [_First, _Last)

  00000	55		 push	 ebp
  00001	8b ec		 mov	 ebp, esp
  00003	51		 push	 ecx

; 1191 : 		iterator _First = _Make_iter(_First_arg);

  00004	8b 45 08	 mov	 eax, DWORD PTR ___$ReturnUdt$[ebp]
  00007	56		 push	 esi
  00008	8b f1		 mov	 esi, ecx
  0000a	8b 4d 0c	 mov	 ecx, DWORD PTR __First_arg$[ebp]
  0000d	89 08		 mov	 DWORD PTR [eax], ecx

; 1192 : 		iterator _Last = _Make_iter(_Last_arg);
; 1193 : 
; 1194 : 		if (_First != _Last)

  0000f	3b 4d 10	 cmp	 ecx, DWORD PTR __Last_arg$[ebp]
  00012	74 38		 je	 SHORT $LN1@erase

; 1195 : 			{	// worth doing, copy down over hole
; 1196 :  #if _ITERATOR_DEBUG_LEVEL == 2
; 1197 : 			if (_Last < _First || _VICONT(_First) != this
; 1198 : 				|| _VIPTR(_First) < this->_Myfirst
; 1199 : 				|| this->_Mylast < _VIPTR(_Last))
; 1200 : 				_DEBUG_ERROR("vector erase iterator outside range");
; 1201 : 			pointer _Ptr = _Move(_VIPTR(_Last), this->_Mylast,
; 1202 : 				_VIPTR(_First));
; 1203 : 			_Orphan_range(_VIPTR(_First), this->_Mylast);
; 1204 : 
; 1205 :  #else /* _ITERATOR_DEBUG_LEVEL == 2 */
; 1206 : 			pointer _Ptr = _Move(_VIPTR(_Last), this->_Mylast,
; 1207 : 				_VIPTR(_First));

  00014	8b 46 04	 mov	 eax, DWORD PTR [esi+4]
  00017	53		 push	 ebx
  00018	57		 push	 edi
  00019	ff 75 10	 push	 DWORD PTR __Cat$533716[ebp]
  0001c	51		 push	 ecx
  0001d	50		 push	 eax
  0001e	ff 75 10	 push	 DWORD PTR __Last_arg$[ebp]
  00021	e8 00 00 00 00	 call	 ??$_Move@PAVioHashString@@PAV1@@std@@YAPAVioHashString@@PAV1@00U_Nonscalar_ptr_iterator_tag@0@@Z ; std::_Move<ioHashString *,ioHashString *>

; 1208 :  #endif /* _ITERATOR_DEBUG_LEVEL == 2 */
; 1209 : 
; 1210 : 			_Destroy(_Ptr, this->_Mylast);

  00026	8b 7e 04	 mov	 edi, DWORD PTR [esi+4]
  00029	8b d8		 mov	 ebx, eax
  0002b	83 c4 10	 add	 esp, 16			; 00000010H
  0002e	89 5d fc	 mov	 DWORD PTR $T533771[ebp], ebx
  00031	3b df		 cmp	 ebx, edi
  00033	74 12		 je	 SHORT $LN36@erase
$LL52@erase:
  00035	8b 4d fc	 mov	 ecx, DWORD PTR $T533771[ebp]
  00038	ff 15 00 00 00
	00		 call	 DWORD PTR __imp_??1ioHashString@@QAE@XZ
  0003e	83 45 fc 10	 add	 DWORD PTR $T533771[ebp], 16 ; 00000010H
  00042	39 7d fc	 cmp	 DWORD PTR $T533771[ebp], edi
  00045	75 ee		 jne	 SHORT $LL52@erase
$LN36@erase:

; 1211 : 			this->_Mylast = _Ptr;

  00047	5f		 pop	 edi
  00048	89 5e 04	 mov	 DWORD PTR [esi+4], ebx
  0004b	5b		 pop	 ebx
$LN1@erase:

; 1212 : 			}
; 1213 : 		return (_First);

  0004c	8b 45 08	 mov	 eax, DWORD PTR ___$ReturnUdt$[ebp]
  0004f	5e		 pop	 esi

; 1214 : 		}

  00050	c9		 leave
  00051	c2 0c 00	 ret	 12			; 0000000cH
?erase@?$vector@VioHashString@@V?$allocator@VioHashString@@@std@@@std@@QAE?AV?$_Vector_iterator@V?$_Vector_val@VioHashString@@V?$allocator@VioHashString@@@std@@@std@@@2@V?$_Vector_const_iterator@V?$_Vector_val@VioHashString@@V?$allocator@VioHashString@@@std@@@std@@@2@0@Z ENDP ; std::vector<ioHashString,std::allocator<ioHashString> >::erase
_TEXT	ENDS
PUBLIC	?_Tidy@?$vector@VioHashString@@V?$allocator@VioHashString@@@std@@@std@@IAEXXZ ; std::vector<ioHashString,std::allocator<ioHashString> >::_Tidy
; Function compile flags: /Ogsp
;	COMDAT ?_Tidy@?$vector@VioHashString@@V?$allocator@VioHashString@@@std@@@std@@IAEXXZ
_TEXT	SEGMENT
?_Tidy@?$vector@VioHashString@@V?$allocator@VioHashString@@@std@@@std@@IAEXXZ PROC ; std::vector<ioHashString,std::allocator<ioHashString> >::_Tidy, COMDAT
; _this$ = ecx

; 1301 : 		{	// free all storage

  00000	56		 push	 esi
  00001	8b f1		 mov	 esi, ecx

; 1302 : 		if (this->_Myfirst != 0)

  00003	83 3e 00	 cmp	 DWORD PTR [esi], 0
  00006	74 28		 je	 SHORT $LN24@Tidy@2

; 1303 : 			{	// something to free, destroy and deallocate it
; 1304 : 			this->_Orphan_all();

  00008	53		 push	 ebx
  00009	57		 push	 edi
  0000a	ff 15 00 00 00
	00		 call	 DWORD PTR __imp_?_Orphan_all@_Container_base0@std@@QAEXXZ

; 1305 : 			_Destroy(this->_Myfirst, this->_Mylast);

  00010	8b 5e 04	 mov	 ebx, DWORD PTR [esi+4]
  00013	8b 3e		 mov	 edi, DWORD PTR [esi]
  00015	eb 0b		 jmp	 SHORT $LN28@Tidy@2
$LL12@Tidy@2:
  00017	8b cf		 mov	 ecx, edi
  00019	ff 15 00 00 00
	00		 call	 DWORD PTR __imp_??1ioHashString@@QAE@XZ
  0001f	83 c7 10	 add	 edi, 16			; 00000010H
$LN28@Tidy@2:
  00022	3b fb		 cmp	 edi, ebx
  00024	75 f1		 jne	 SHORT $LL12@Tidy@2

; 1306 : 			this->_Alval.deallocate(this->_Myfirst,
; 1307 : 				this->_Myend - this->_Myfirst);

  00026	ff 36		 push	 DWORD PTR [esi]
  00028	e8 00 00 00 00	 call	 ??3@YAXPAX@Z		; operator delete
  0002d	59		 pop	 ecx
  0002e	5f		 pop	 edi
  0002f	5b		 pop	 ebx
$LN24@Tidy@2:

; 1308 : 			}
; 1309 : 		this->_Myfirst = 0;

  00030	33 c0		 xor	 eax, eax
  00032	89 06		 mov	 DWORD PTR [esi], eax

; 1310 : 		this->_Mylast = 0;

  00034	89 46 04	 mov	 DWORD PTR [esi+4], eax

; 1311 : 		this->_Myend = 0;

  00037	89 46 08	 mov	 DWORD PTR [esi+8], eax
  0003a	5e		 pop	 esi

; 1312 : 		}

  0003b	c3		 ret	 0
?_Tidy@?$vector@VioHashString@@V?$allocator@VioHashString@@@std@@@std@@IAEXXZ ENDP ; std::vector<ioHashString,std::allocator<ioHashString> >::_Tidy
_TEXT	ENDS
PUBLIC	?_Tidy@?$vector@UWeaponInfo@@V?$allocator@UWeaponInfo@@@std@@@std@@IAEXXZ ; std::vector<WeaponInfo,std::allocator<WeaponInfo> >::_Tidy
; Function compile flags: /Ogsp
;	COMDAT ?_Tidy@?$vector@UWeaponInfo@@V?$allocator@UWeaponInfo@@@std@@@std@@IAEXXZ
_TEXT	SEGMENT
?_Tidy@?$vector@UWeaponInfo@@V?$allocator@UWeaponInfo@@@std@@@std@@IAEXXZ PROC ; std::vector<WeaponInfo,std::allocator<WeaponInfo> >::_Tidy, COMDAT
; _this$ = ecx

; 1301 : 		{	// free all storage

  00000	56		 push	 esi
  00001	8b f1		 mov	 esi, ecx

; 1302 : 		if (this->_Myfirst != 0)

  00003	83 3e 00	 cmp	 DWORD PTR [esi], 0
  00006	74 1e		 je	 SHORT $LN6@Tidy@3

; 1303 : 			{	// something to free, destroy and deallocate it
; 1304 : 			this->_Orphan_all();

  00008	ff 15 00 00 00
	00		 call	 DWORD PTR __imp_?_Orphan_all@_Container_base0@std@@QAEXXZ

; 1305 : 			_Destroy(this->_Myfirst, this->_Mylast);

  0000e	8d 46 0c	 lea	 eax, DWORD PTR [esi+12]
  00011	50		 push	 eax
  00012	ff 76 04	 push	 DWORD PTR [esi+4]
  00015	ff 36		 push	 DWORD PTR [esi]
  00017	e8 00 00 00 00	 call	 ??$_Destroy_range@V?$allocator@UWeaponInfo@@@std@@@std@@YAXPAUWeaponInfo@@0AAV?$allocator@UWeaponInfo@@@0@@Z ; std::_Destroy_range<std::allocator<WeaponInfo> >

; 1306 : 			this->_Alval.deallocate(this->_Myfirst,
; 1307 : 				this->_Myend - this->_Myfirst);

  0001c	ff 36		 push	 DWORD PTR [esi]
  0001e	e8 00 00 00 00	 call	 ??3@YAXPAX@Z		; operator delete
  00023	83 c4 10	 add	 esp, 16			; 00000010H
$LN6@Tidy@3:

; 1308 : 			}
; 1309 : 		this->_Myfirst = 0;

  00026	83 26 00	 and	 DWORD PTR [esi], 0

; 1310 : 		this->_Mylast = 0;

  00029	83 66 04 00	 and	 DWORD PTR [esi+4], 0

; 1311 : 		this->_Myend = 0;

  0002d	83 66 08 00	 and	 DWORD PTR [esi+8], 0
  00031	5e		 pop	 esi

; 1312 : 		}

  00032	c3		 ret	 0
?_Tidy@?$vector@UWeaponInfo@@V?$allocator@UWeaponInfo@@@std@@@std@@IAEXXZ ENDP ; std::vector<WeaponInfo,std::allocator<WeaponInfo> >::_Tidy
_TEXT	ENDS
PUBLIC	?push_back@?$vector@VioHashString@@V?$allocator@VioHashString@@@std@@@std@@QAEX$$QAVioHashString@@@Z ; std::vector<ioHashString,std::allocator<ioHashString> >::push_back
; Function compile flags: /Ogsp
;	COMDAT ?push_back@?$vector@VioHashString@@V?$allocator@VioHashString@@@std@@@std@@QAEX$$QAVioHashString@@@Z
_TEXT	SEGMENT
__Val$ = 8						; size = 4
?push_back@?$vector@VioHashString@@V?$allocator@VioHashString@@@std@@@std@@QAEX$$QAVioHashString@@@Z PROC ; std::vector<ioHashString,std::allocator<ioHashString> >::push_back, COMDAT
; _this$ = ecx

; 631  : 		{	// insert element at end

  00000	55		 push	 ebp
  00001	8b ec		 mov	 ebp, esp
  00003	56		 push	 esi
  00004	8b f1		 mov	 esi, ecx

; 632  : 		if (_Inside(_STD addressof(_Val)))

  00006	8b 46 04	 mov	 eax, DWORD PTR [esi+4]
  00009	57		 push	 edi
  0000a	8b 7d 08	 mov	 edi, DWORD PTR __Val$[ebp]
  0000d	3b f8		 cmp	 edi, eax
  0000f	73 1d		 jae	 SHORT $LN4@push_back
  00011	8b 0e		 mov	 ecx, DWORD PTR [esi]
  00013	3b cf		 cmp	 ecx, edi
  00015	77 17		 ja	 SHORT $LN4@push_back

; 633  : 			{	// push back an element
; 634  : 			size_type _Idx = _STD addressof(_Val) - this->_Myfirst;

  00017	2b f9		 sub	 edi, ecx

; 635  : 			if (this->_Mylast == this->_Myend)

  00019	3b 46 08	 cmp	 eax, DWORD PTR [esi+8]
  0001c	75 09		 jne	 SHORT $LN3@push_back

; 636  : 				_Reserve(1);

  0001e	6a 01		 push	 1
  00020	8b ce		 mov	 ecx, esi
  00022	e8 00 00 00 00	 call	 ?_Reserve@?$vector@VioHashString@@V?$allocator@VioHashString@@@std@@@std@@IAEXI@Z ; std::vector<ioHashString,std::allocator<ioHashString> >::_Reserve
$LN3@push_back:

; 637  : 			_Orphan_range(this->_Mylast, this->_Mylast);
; 638  : 			_Cons_val(this->_Alval,
; 639  : 				this->_Mylast,
; 640  : 				_STD forward<_Ty>(this->_Myfirst[_Idx]));

  00027	83 e7 f0	 and	 edi, -16		; fffffff0H
  0002a	03 3e		 add	 edi, DWORD PTR [esi]

; 641  : 			++this->_Mylast;
; 642  : 			}
; 643  : 		else

  0002c	eb 0e		 jmp	 SHORT $LN1@push_back
$LN4@push_back:

; 644  : 			{	// push back a non-element
; 645  : 			if (this->_Mylast == this->_Myend)

  0002e	3b 46 08	 cmp	 eax, DWORD PTR [esi+8]
  00031	75 09		 jne	 SHORT $LN1@push_back

; 646  : 				_Reserve(1);

  00033	6a 01		 push	 1
  00035	8b ce		 mov	 ecx, esi
  00037	e8 00 00 00 00	 call	 ?_Reserve@?$vector@VioHashString@@V?$allocator@VioHashString@@@std@@@std@@IAEXI@Z ; std::vector<ioHashString,std::allocator<ioHashString> >::_Reserve
$LN1@push_back:

; 647  : 			_Orphan_range(this->_Mylast, this->_Mylast);
; 648  : 			_Cons_val(this->_Alval,
; 649  : 				this->_Mylast,
; 650  : 				_STD forward<_Ty>(_Val));

  0003c	57		 push	 edi
  0003d	ff 76 04	 push	 DWORD PTR [esi+4]
  00040	8d 4e 0c	 lea	 ecx, DWORD PTR [esi+12]
  00043	e8 00 00 00 00	 call	 ?construct@?$allocator@VioHashString@@@std@@QAEXPAVioHashString@@$$QAV3@@Z ; std::allocator<ioHashString>::construct

; 651  : 			++this->_Mylast;

  00048	83 46 04 10	 add	 DWORD PTR [esi+4], 16	; 00000010H
  0004c	5f		 pop	 edi
  0004d	5e		 pop	 esi

; 652  : 			}
; 653  : 		}

  0004e	5d		 pop	 ebp
  0004f	c2 04 00	 ret	 4
?push_back@?$vector@VioHashString@@V?$allocator@VioHashString@@@std@@@std@@QAEX$$QAVioHashString@@@Z ENDP ; std::vector<ioHashString,std::allocator<ioHashString> >::push_back
_TEXT	ENDS
PUBLIC	??0?$vector@UWeaponInfo@@V?$allocator@UWeaponInfo@@@std@@@std@@QAE@ABV01@@Z ; std::vector<WeaponInfo,std::allocator<WeaponInfo> >::vector<WeaponInfo,std::allocator<WeaponInfo> >
;	COMDAT xdata$x
; File c:\program files (x86)\microsoft visual studio 10.0\vc\include\xutility
xdata$x	SEGMENT
__catchsym$??0?$vector@UWeaponInfo@@V?$allocator@UWeaponInfo@@@std@@@std@@QAE@ABV01@@Z$2 DD 040H
	DD	00H
	DD	00H
	DD	FLAT:__catch$??0?$vector@UWeaponInfo@@V?$allocator@UWeaponInfo@@@std@@@std@@QAE@ABV01@@Z$0
__unwindtable$??0?$vector@UWeaponInfo@@V?$allocator@UWeaponInfo@@@std@@@std@@QAE@ABV01@@Z DD 0ffffffffH
	DD	00H
	DD	0ffffffffH
	DD	00H
__tryblocktable$??0?$vector@UWeaponInfo@@V?$allocator@UWeaponInfo@@@std@@@std@@QAE@ABV01@@Z DD 00H
	DD	00H
	DD	01H
	DD	01H
	DD	FLAT:__catchsym$??0?$vector@UWeaponInfo@@V?$allocator@UWeaponInfo@@@std@@@std@@QAE@ABV01@@Z$2
__ehfuncinfo$??0?$vector@UWeaponInfo@@V?$allocator@UWeaponInfo@@@std@@@std@@QAE@ABV01@@Z DD 019930522H
	DD	02H
	DD	FLAT:__unwindtable$??0?$vector@UWeaponInfo@@V?$allocator@UWeaponInfo@@@std@@@std@@QAE@ABV01@@Z
	DD	01H
	DD	FLAT:__tryblocktable$??0?$vector@UWeaponInfo@@V?$allocator@UWeaponInfo@@@std@@@std@@QAE@ABV01@@Z
	DD	2 DUP(00H)
	DD	00H
	DD	01H
; Function compile flags: /Ogsp
; File c:\program files (x86)\microsoft visual studio 10.0\vc\include\vector
xdata$x	ENDS
;	COMDAT ??0?$vector@UWeaponInfo@@V?$allocator@UWeaponInfo@@@std@@@std@@QAE@ABV01@@Z
_TEXT	SEGMENT
_this$ = -20						; size = 4
__$EHRec$ = -16						; size = 16
__Cat$534061 = 8					; size = 1
__Right$ = 8						; size = 4
??0?$vector@UWeaponInfo@@V?$allocator@UWeaponInfo@@@std@@@std@@QAE@ABV01@@Z PROC ; std::vector<WeaponInfo,std::allocator<WeaponInfo> >::vector<WeaponInfo,std::allocator<WeaponInfo> >, COMDAT
; _this$ = ecx

; 535  : 		{	// construct by copying _Right

  00000	6a 08		 push	 8
  00002	b8 00 00 00 00	 mov	 eax, __ehhandler$??0?$vector@UWeaponInfo@@V?$allocator@UWeaponInfo@@@std@@@std@@QAE@ABV01@@Z
  00007	e8 00 00 00 00	 call	 __EH_prolog3_catch
  0000c	8b f1		 mov	 esi, ecx
  0000e	89 75 ec	 mov	 DWORD PTR _this$[ebp], esi

; 536  : 		if (_Buy(_Right.size()))

  00011	8b 7d 08	 mov	 edi, DWORD PTR __Right$[ebp]
  00014	33 db		 xor	 ebx, ebx
  00016	89 1e		 mov	 DWORD PTR [esi], ebx
  00018	89 5e 04	 mov	 DWORD PTR [esi+4], ebx
  0001b	89 5e 08	 mov	 DWORD PTR [esi+8], ebx
  0001e	8b 47 04	 mov	 eax, DWORD PTR [edi+4]
  00021	2b 07		 sub	 eax, DWORD PTR [edi]
  00023	6a 28		 push	 40			; 00000028H
  00025	59		 pop	 ecx
  00026	99		 cdq
  00027	f7 f9		 idiv	 ecx
  00029	8b ce		 mov	 ecx, esi
  0002b	50		 push	 eax
  0002c	e8 00 00 00 00	 call	 ?_Buy@?$vector@UWeaponInfo@@V?$allocator@UWeaponInfo@@@std@@@std@@IAE_NI@Z ; std::vector<WeaponInfo,std::allocator<WeaponInfo> >::_Buy
  00031	84 c0		 test	 al, al
  00033	74 1f		 je	 SHORT $LN7@vector@2

; 537  : 			_TRY_BEGIN
; 538  : 			this->_Mylast = _Ucopy(_Right.begin(), _Right.end(),
; 539  : 				this->_Myfirst);

  00035	ff 75 08	 push	 DWORD PTR __Cat$534061[ebp]
  00038	8b 0e		 mov	 ecx, DWORD PTR [esi]
  0003a	8b 47 04	 mov	 eax, DWORD PTR [edi+4]
  0003d	8b 3f		 mov	 edi, DWORD PTR [edi]
  0003f	8d 56 0c	 lea	 edx, DWORD PTR [esi+12]
  00042	52		 push	 edx
  00043	51		 push	 ecx
  00044	50		 push	 eax
  00045	57		 push	 edi
  00046	89 5d fc	 mov	 DWORD PTR __$EHRec$[ebp+12], ebx
  00049	e8 00 00 00 00	 call	 ??$_Uninit_copy@V?$_Vector_const_iterator@V?$_Vector_val@UWeaponInfo@@V?$allocator@UWeaponInfo@@@std@@@std@@@std@@PAUWeaponInfo@@V?$allocator@UWeaponInfo@@@2@@std@@YAPAUWeaponInfo@@V?$_Vector_const_iterator@V?$_Vector_val@UWeaponInfo@@V?$allocator@UWeaponInfo@@@std@@@std@@@0@0PAU1@AAV?$allocator@UWeaponInfo@@@0@U_Nonscalar_ptr_iterator_tag@0@@Z ; std::_Uninit_copy<std::_Vector_const_iterator<std::_Vector_val<WeaponInfo,std::allocator<WeaponInfo> > >,WeaponInfo *,std::allocator<WeaponInfo> >
  0004e	83 c4 14	 add	 esp, 20			; 00000014H
  00051	89 46 04	 mov	 DWORD PTR [esi+4], eax
$LN7@vector@2:

; 543  : 			_CATCH_END
; 544  : 		}

  00054	8b c6		 mov	 eax, esi
  00056	e8 00 00 00 00	 call	 __EH_epilog3
  0005b	c2 04 00	 ret	 4
__catch$??0?$vector@UWeaponInfo@@V?$allocator@UWeaponInfo@@@std@@@std@@QAE@ABV01@@Z$0:

; 540  : 			_CATCH_ALL
; 541  : 			_Tidy();

  0005e	8b 4d ec	 mov	 ecx, DWORD PTR _this$[ebp]
  00061	e8 00 00 00 00	 call	 ?_Tidy@?$vector@UWeaponInfo@@V?$allocator@UWeaponInfo@@@std@@@std@@IAEXXZ ; std::vector<WeaponInfo,std::allocator<WeaponInfo> >::_Tidy

; 542  : 			_RERAISE;

  00066	33 db		 xor	 ebx, ebx
  00068	53		 push	 ebx
  00069	53		 push	 ebx
  0006a	e8 00 00 00 00	 call	 __CxxThrowException@8
$LN38@vector@2:
$LN37@vector@2:
  0006f	cc		 int	 3
_TEXT	ENDS
;	COMDAT text$x
text$x	SEGMENT
__ehhandler$??0?$vector@UWeaponInfo@@V?$allocator@UWeaponInfo@@@std@@@std@@QAE@ABV01@@Z:
  00000	8b 54 24 08	 mov	 edx, DWORD PTR [esp+8]
  00004	8d 42 0c	 lea	 eax, DWORD PTR [edx+12]
  00007	8b 4a e8	 mov	 ecx, DWORD PTR [edx-24]
  0000a	33 c8		 xor	 ecx, eax
  0000c	e8 00 00 00 00	 call	 @__security_check_cookie@4
  00011	b8 00 00 00 00	 mov	 eax, OFFSET __ehfuncinfo$??0?$vector@UWeaponInfo@@V?$allocator@UWeaponInfo@@@std@@@std@@QAE@ABV01@@Z
  00016	e9 00 00 00 00	 jmp	 ___CxxFrameHandler3
text$x	ENDS
??0?$vector@UWeaponInfo@@V?$allocator@UWeaponInfo@@@std@@@std@@QAE@ABV01@@Z ENDP ; std::vector<WeaponInfo,std::allocator<WeaponInfo> >::vector<WeaponInfo,std::allocator<WeaponInfo> >
PUBLIC	??0?$vector@VioHashString@@V?$allocator@VioHashString@@@std@@@std@@QAE@ABV01@@Z ; std::vector<ioHashString,std::allocator<ioHashString> >::vector<ioHashString,std::allocator<ioHashString> >
;	COMDAT xdata$x
; File c:\program files (x86)\microsoft visual studio 10.0\vc\include\xutility
xdata$x	SEGMENT
__catchsym$??0?$vector@VioHashString@@V?$allocator@VioHashString@@@std@@@std@@QAE@ABV01@@Z$2 DD 040H
	DD	00H
	DD	00H
	DD	FLAT:__catch$??0?$vector@VioHashString@@V?$allocator@VioHashString@@@std@@@std@@QAE@ABV01@@Z$0
__unwindtable$??0?$vector@VioHashString@@V?$allocator@VioHashString@@@std@@@std@@QAE@ABV01@@Z DD 0ffffffffH
	DD	00H
	DD	0ffffffffH
	DD	00H
__tryblocktable$??0?$vector@VioHashString@@V?$allocator@VioHashString@@@std@@@std@@QAE@ABV01@@Z DD 00H
	DD	00H
	DD	01H
	DD	01H
	DD	FLAT:__catchsym$??0?$vector@VioHashString@@V?$allocator@VioHashString@@@std@@@std@@QAE@ABV01@@Z$2
__ehfuncinfo$??0?$vector@VioHashString@@V?$allocator@VioHashString@@@std@@@std@@QAE@ABV01@@Z DD 019930522H
	DD	02H
	DD	FLAT:__unwindtable$??0?$vector@VioHashString@@V?$allocator@VioHashString@@@std@@@std@@QAE@ABV01@@Z
	DD	01H
	DD	FLAT:__tryblocktable$??0?$vector@VioHashString@@V?$allocator@VioHashString@@@std@@@std@@QAE@ABV01@@Z
	DD	2 DUP(00H)
	DD	00H
	DD	01H
; Function compile flags: /Ogsp
; File c:\program files (x86)\microsoft visual studio 10.0\vc\include\vector
xdata$x	ENDS
;	COMDAT ??0?$vector@VioHashString@@V?$allocator@VioHashString@@@std@@@std@@QAE@ABV01@@Z
_TEXT	SEGMENT
_this$ = -20						; size = 4
__$EHRec$ = -16						; size = 16
__Cat$534157 = 8					; size = 1
__Right$ = 8						; size = 4
??0?$vector@VioHashString@@V?$allocator@VioHashString@@@std@@@std@@QAE@ABV01@@Z PROC ; std::vector<ioHashString,std::allocator<ioHashString> >::vector<ioHashString,std::allocator<ioHashString> >, COMDAT
; _this$ = ecx

; 535  : 		{	// construct by copying _Right

  00000	6a 08		 push	 8
  00002	b8 00 00 00 00	 mov	 eax, __ehhandler$??0?$vector@VioHashString@@V?$allocator@VioHashString@@@std@@@std@@QAE@ABV01@@Z
  00007	e8 00 00 00 00	 call	 __EH_prolog3_catch
  0000c	8b f1		 mov	 esi, ecx
  0000e	89 75 ec	 mov	 DWORD PTR _this$[ebp], esi

; 536  : 		if (_Buy(_Right.size()))

  00011	8b 7d 08	 mov	 edi, DWORD PTR __Right$[ebp]
  00014	33 db		 xor	 ebx, ebx
  00016	89 1e		 mov	 DWORD PTR [esi], ebx
  00018	89 5e 04	 mov	 DWORD PTR [esi+4], ebx
  0001b	89 5e 08	 mov	 DWORD PTR [esi+8], ebx
  0001e	8b 47 04	 mov	 eax, DWORD PTR [edi+4]
  00021	2b 07		 sub	 eax, DWORD PTR [edi]
  00023	c1 f8 04	 sar	 eax, 4
  00026	50		 push	 eax
  00027	e8 00 00 00 00	 call	 ?_Buy@?$vector@VioHashString@@V?$allocator@VioHashString@@@std@@@std@@IAE_NI@Z ; std::vector<ioHashString,std::allocator<ioHashString> >::_Buy
  0002c	84 c0		 test	 al, al
  0002e	74 1f		 je	 SHORT $LN7@vector@3

; 537  : 			_TRY_BEGIN
; 538  : 			this->_Mylast = _Ucopy(_Right.begin(), _Right.end(),
; 539  : 				this->_Myfirst);

  00030	ff 75 08	 push	 DWORD PTR __Cat$534157[ebp]
  00033	8b 0e		 mov	 ecx, DWORD PTR [esi]
  00035	8b 47 04	 mov	 eax, DWORD PTR [edi+4]
  00038	8b 3f		 mov	 edi, DWORD PTR [edi]
  0003a	8d 56 0c	 lea	 edx, DWORD PTR [esi+12]
  0003d	52		 push	 edx
  0003e	51		 push	 ecx
  0003f	50		 push	 eax
  00040	57		 push	 edi
  00041	89 5d fc	 mov	 DWORD PTR __$EHRec$[ebp+12], ebx
  00044	e8 00 00 00 00	 call	 ??$_Uninit_copy@V?$_Vector_const_iterator@V?$_Vector_val@VioHashString@@V?$allocator@VioHashString@@@std@@@std@@@std@@PAVioHashString@@V?$allocator@VioHashString@@@2@@std@@YAPAVioHashString@@V?$_Vector_const_iterator@V?$_Vector_val@VioHashString@@V?$allocator@VioHashString@@@std@@@std@@@0@0PAV1@AAV?$allocator@VioHashString@@@0@U_Nonscalar_ptr_iterator_tag@0@@Z ; std::_Uninit_copy<std::_Vector_const_iterator<std::_Vector_val<ioHashString,std::allocator<ioHashString> > >,ioHashString *,std::allocator<ioHashString> >
  00049	83 c4 14	 add	 esp, 20			; 00000014H
  0004c	89 46 04	 mov	 DWORD PTR [esi+4], eax
$LN7@vector@3:

; 543  : 			_CATCH_END
; 544  : 		}

  0004f	8b c6		 mov	 eax, esi
  00051	e8 00 00 00 00	 call	 __EH_epilog3
  00056	c2 04 00	 ret	 4
__catch$??0?$vector@VioHashString@@V?$allocator@VioHashString@@@std@@@std@@QAE@ABV01@@Z$0:

; 540  : 			_CATCH_ALL
; 541  : 			_Tidy();

  00059	8b 4d ec	 mov	 ecx, DWORD PTR _this$[ebp]
  0005c	e8 00 00 00 00	 call	 ?_Tidy@?$vector@VioHashString@@V?$allocator@VioHashString@@@std@@@std@@IAEXXZ ; std::vector<ioHashString,std::allocator<ioHashString> >::_Tidy

; 542  : 			_RERAISE;

  00061	33 db		 xor	 ebx, ebx
  00063	53		 push	 ebx
  00064	53		 push	 ebx
  00065	e8 00 00 00 00	 call	 __CxxThrowException@8
$LN38@vector@3:
$LN37@vector@3:
  0006a	cc		 int	 3
_TEXT	ENDS
;	COMDAT text$x
text$x	SEGMENT
__ehhandler$??0?$vector@VioHashString@@V?$allocator@VioHashString@@@std@@@std@@QAE@ABV01@@Z:
  00000	8b 54 24 08	 mov	 edx, DWORD PTR [esp+8]
  00004	8d 42 0c	 lea	 eax, DWORD PTR [edx+12]
  00007	8b 4a e8	 mov	 ecx, DWORD PTR [edx-24]
  0000a	33 c8		 xor	 ecx, eax
  0000c	e8 00 00 00 00	 call	 @__security_check_cookie@4
  00011	b8 00 00 00 00	 mov	 eax, OFFSET __ehfuncinfo$??0?$vector@VioHashString@@V?$allocator@VioHashString@@@std@@@std@@QAE@ABV01@@Z
  00016	e9 00 00 00 00	 jmp	 ___CxxFrameHandler3
text$x	ENDS
??0?$vector@VioHashString@@V?$allocator@VioHashString@@@std@@@std@@QAE@ABV01@@Z ENDP ; std::vector<ioHashString,std::allocator<ioHashString> >::vector<ioHashString,std::allocator<ioHashString> >
PUBLIC	??1?$vector@VioHashString@@V?$allocator@VioHashString@@@std@@@std@@QAE@XZ ; std::vector<ioHashString,std::allocator<ioHashString> >::~vector<ioHashString,std::allocator<ioHashString> >
; Function compile flags: /Ogsp
;	COMDAT ??1?$vector@VioHashString@@V?$allocator@VioHashString@@@std@@@std@@QAE@XZ
_TEXT	SEGMENT
??1?$vector@VioHashString@@V?$allocator@VioHashString@@@std@@@std@@QAE@XZ PROC ; std::vector<ioHashString,std::allocator<ioHashString> >::~vector<ioHashString,std::allocator<ioHashString> >, COMDAT
; _this$ = ecx

; 705  : 		_Tidy();

  00000	e9 00 00 00 00	 jmp	 ?_Tidy@?$vector@VioHashString@@V?$allocator@VioHashString@@@std@@@std@@IAEXXZ ; std::vector<ioHashString,std::allocator<ioHashString> >::_Tidy
??1?$vector@VioHashString@@V?$allocator@VioHashString@@@std@@@std@@QAE@XZ ENDP ; std::vector<ioHashString,std::allocator<ioHashString> >::~vector<ioHashString,std::allocator<ioHashString> >
_TEXT	ENDS
PUBLIC	?clear@?$vector@VioHashString@@V?$allocator@VioHashString@@@std@@@std@@QAEXXZ ; std::vector<ioHashString,std::allocator<ioHashString> >::clear
; Function compile flags: /Ogsp
;	COMDAT ?clear@?$vector@VioHashString@@V?$allocator@VioHashString@@@std@@@std@@QAEXXZ
_TEXT	SEGMENT
$T534187 = -4						; size = 4
?clear@?$vector@VioHashString@@V?$allocator@VioHashString@@@std@@@std@@QAEXXZ PROC ; std::vector<ioHashString,std::allocator<ioHashString> >::clear, COMDAT
; _this$ = ecx

; 1217 : 		{	// erase all

  00000	55		 push	 ebp
  00001	8b ec		 mov	 ebp, esp
  00003	51		 push	 ecx

; 1218 : 		erase(begin(), end());

  00004	8b 41 04	 mov	 eax, DWORD PTR [ecx+4]
  00007	8b 11		 mov	 edx, DWORD PTR [ecx]
  00009	50		 push	 eax
  0000a	52		 push	 edx
  0000b	8d 45 fc	 lea	 eax, DWORD PTR $T534187[ebp]
  0000e	50		 push	 eax
  0000f	e8 00 00 00 00	 call	 ?erase@?$vector@VioHashString@@V?$allocator@VioHashString@@@std@@@std@@QAE?AV?$_Vector_iterator@V?$_Vector_val@VioHashString@@V?$allocator@VioHashString@@@std@@@std@@@2@V?$_Vector_const_iterator@V?$_Vector_val@VioHashString@@V?$allocator@VioHashString@@@std@@@std@@@2@0@Z ; std::vector<ioHashString,std::allocator<ioHashString> >::erase

; 1219 : 		}

  00014	c9		 leave
  00015	c3		 ret	 0
?clear@?$vector@VioHashString@@V?$allocator@VioHashString@@@std@@@std@@QAEXXZ ENDP ; std::vector<ioHashString,std::allocator<ioHashString> >::clear
_TEXT	ENDS
PUBLIC	??1?$vector@UWeaponInfo@@V?$allocator@UWeaponInfo@@@std@@@std@@QAE@XZ ; std::vector<WeaponInfo,std::allocator<WeaponInfo> >::~vector<WeaponInfo,std::allocator<WeaponInfo> >
; Function compile flags: /Ogsp
;	COMDAT ??1?$vector@UWeaponInfo@@V?$allocator@UWeaponInfo@@@std@@@std@@QAE@XZ
_TEXT	SEGMENT
??1?$vector@UWeaponInfo@@V?$allocator@UWeaponInfo@@@std@@@std@@QAE@XZ PROC ; std::vector<WeaponInfo,std::allocator<WeaponInfo> >::~vector<WeaponInfo,std::allocator<WeaponInfo> >, COMDAT
; _this$ = ecx

; 705  : 		_Tidy();

  00000	e9 00 00 00 00	 jmp	 ?_Tidy@?$vector@UWeaponInfo@@V?$allocator@UWeaponInfo@@@std@@@std@@IAEXXZ ; std::vector<WeaponInfo,std::allocator<WeaponInfo> >::_Tidy
??1?$vector@UWeaponInfo@@V?$allocator@UWeaponInfo@@@std@@@std@@QAE@XZ ENDP ; std::vector<WeaponInfo,std::allocator<WeaponInfo> >::~vector<WeaponInfo,std::allocator<WeaponInfo> >
_TEXT	ENDS
PUBLIC	??0AttackAttribute@@QAE@ABU0@@Z			; AttackAttribute::AttackAttribute
;	COMDAT xdata$x
xdata$x	SEGMENT
__unwindtable$??0AttackAttribute@@QAE@ABU0@@Z DD 0ffffffffH
	DD	FLAT:__unwindfunclet$??0AttackAttribute@@QAE@ABU0@@Z$0
	DD	00H
	DD	FLAT:__unwindfunclet$??0AttackAttribute@@QAE@ABU0@@Z$1
	DD	01H
	DD	FLAT:__unwindfunclet$??0AttackAttribute@@QAE@ABU0@@Z$2
__ehfuncinfo$??0AttackAttribute@@QAE@ABU0@@Z DD 019930522H
	DD	03H
	DD	FLAT:__unwindtable$??0AttackAttribute@@QAE@ABU0@@Z
	DD	2 DUP(00H)
	DD	2 DUP(00H)
	DD	00H
	DD	01H
; Function compile flags: /Ogsp
xdata$x	ENDS
;	COMDAT ??0AttackAttribute@@QAE@ABU0@@Z
_TEXT	SEGMENT
_this$ = -16						; size = 4
__$EHRec$ = -12						; size = 12
___that$ = 8						; size = 4
??0AttackAttribute@@QAE@ABU0@@Z PROC			; AttackAttribute::AttackAttribute, COMDAT
; _this$ = ecx
  00000	6a 04		 push	 4
  00002	b8 00 00 00 00	 mov	 eax, __ehhandler$??0AttackAttribute@@QAE@ABU0@@Z
  00007	e8 00 00 00 00	 call	 __EH_prolog3
  0000c	8b f1		 mov	 esi, ecx
  0000e	89 75 f0	 mov	 DWORD PTR _this$[ebp], esi
  00011	8b 7d 08	 mov	 edi, DWORD PTR ___that$[ebp]
  00014	8b 1d 00 00 00
	00		 mov	 ebx, DWORD PTR __imp_??0ioHashString@@QAE@ABV0@@Z
  0001a	57		 push	 edi
  0001b	ff d3		 call	 ebx
  0001d	d9 47 10	 fld	 DWORD PTR [edi+16]
  00020	83 65 fc 00	 and	 DWORD PTR __$EHRec$[ebp+8], 0
  00024	d9 5e 10	 fstp	 DWORD PTR [esi+16]
  00027	8d 47 14	 lea	 eax, DWORD PTR [edi+20]
  0002a	50		 push	 eax
  0002b	8d 4e 14	 lea	 ecx, DWORD PTR [esi+20]
  0002e	ff d3		 call	 ebx
  00030	d9 47 24	 fld	 DWORD PTR [edi+36]
  00033	8d 47 28	 lea	 eax, DWORD PTR [edi+40]
  00036	d9 5e 24	 fstp	 DWORD PTR [esi+36]
  00039	50		 push	 eax
  0003a	8d 4e 28	 lea	 ecx, DWORD PTR [esi+40]
  0003d	c6 45 fc 01	 mov	 BYTE PTR __$EHRec$[ebp+8], 1
  00041	e8 00 00 00 00	 call	 ??0?$vector@UWeaponInfo@@V?$allocator@UWeaponInfo@@@std@@@std@@QAE@ABV01@@Z ; std::vector<WeaponInfo,std::allocator<WeaponInfo> >::vector<WeaponInfo,std::allocator<WeaponInfo> >
  00046	8d 47 38	 lea	 eax, DWORD PTR [edi+56]
  00049	50		 push	 eax
  0004a	8d 4e 38	 lea	 ecx, DWORD PTR [esi+56]
  0004d	c6 45 fc 02	 mov	 BYTE PTR __$EHRec$[ebp+8], 2
  00051	e8 00 00 00 00	 call	 ??0?$vector@UForceInfo@@V?$allocator@UForceInfo@@@std@@@std@@QAE@ABV01@@Z ; std::vector<ForceInfo,std::allocator<ForceInfo> >::vector<ForceInfo,std::allocator<ForceInfo> >
  00056	8b 47 48	 mov	 eax, DWORD PTR [edi+72]
  00059	89 46 48	 mov	 DWORD PTR [esi+72], eax
  0005c	8b 47 4c	 mov	 eax, DWORD PTR [edi+76]
  0005f	89 46 4c	 mov	 DWORD PTR [esi+76], eax
  00062	8b c6		 mov	 eax, esi
  00064	e8 00 00 00 00	 call	 __EH_epilog3
  00069	c2 04 00	 ret	 4
_TEXT	ENDS
;	COMDAT text$x
text$x	SEGMENT
__unwindfunclet$??0AttackAttribute@@QAE@ABU0@@Z$0:
  00000	8b 4d f0	 mov	 ecx, DWORD PTR _this$[ebp]
  00003	ff 25 00 00 00
	00		 jmp	 DWORD PTR __imp_??1ioHashString@@QAE@XZ
__unwindfunclet$??0AttackAttribute@@QAE@ABU0@@Z$1:
  00009	8b 4d f0	 mov	 ecx, DWORD PTR _this$[ebp]
  0000c	83 c1 14	 add	 ecx, 20			; 00000014H
  0000f	ff 25 00 00 00
	00		 jmp	 DWORD PTR __imp_??1ioHashString@@QAE@XZ
__unwindfunclet$??0AttackAttribute@@QAE@ABU0@@Z$2:
  00015	8b 4d f0	 mov	 ecx, DWORD PTR _this$[ebp]
  00018	83 c1 28	 add	 ecx, 40			; 00000028H
  0001b	e9 00 00 00 00	 jmp	 ??1?$vector@UWeaponInfo@@V?$allocator@UWeaponInfo@@@std@@@std@@QAE@XZ ; std::vector<WeaponInfo,std::allocator<WeaponInfo> >::~vector<WeaponInfo,std::allocator<WeaponInfo> >
__ehhandler$??0AttackAttribute@@QAE@ABU0@@Z:
  00020	8b 54 24 08	 mov	 edx, DWORD PTR [esp+8]
  00024	8d 42 0c	 lea	 eax, DWORD PTR [edx+12]
  00027	8b 4a ec	 mov	 ecx, DWORD PTR [edx-20]
  0002a	33 c8		 xor	 ecx, eax
  0002c	e8 00 00 00 00	 call	 @__security_check_cookie@4
  00031	b8 00 00 00 00	 mov	 eax, OFFSET __ehfuncinfo$??0AttackAttribute@@QAE@ABU0@@Z
  00036	e9 00 00 00 00	 jmp	 ___CxxFrameHandler3
text$x	ENDS
??0AttackAttribute@@QAE@ABU0@@Z ENDP			; AttackAttribute::AttackAttribute
PUBLIC	?LoadProperty@ioChargeFlashJump@@UAEXAAVioINILoader@@@Z ; ioChargeFlashJump::LoadProperty
EXTRN	?Init@AttackAttribute@@QAEXXZ:PROC		; AttackAttribute::Init
EXTRN	__imp_??4ioHashString@@QAEAAV0@PBD@Z:PROC
EXTRN	?LoadProperty@ioExtendJump@@UAEXAAVioINILoader@@@Z:PROC ; ioExtendJump::LoadProperty
EXTRN	_memset:PROC
;	COMDAT xdata$x
; File d:\lost saga for developer\youtube\tutorial\source\src\lsclient\stringprotect.h
xdata$x	SEGMENT
__unwindtable$?LoadProperty@ioChargeFlashJump@@UAEXAAVioINILoader@@@Z DD 0ffffffffH
	DD	FLAT:__unwindfunclet$?LoadProperty@ioChargeFlashJump@@UAEXAAVioINILoader@@@Z$0
	DD	0ffffffffH
	DD	FLAT:__unwindfunclet$?LoadProperty@ioChargeFlashJump@@UAEXAAVioINILoader@@@Z$1
	DD	0ffffffffH
	DD	FLAT:__unwindfunclet$?LoadProperty@ioChargeFlashJump@@UAEXAAVioINILoader@@@Z$2
	DD	0ffffffffH
	DD	FLAT:__unwindfunclet$?LoadProperty@ioChargeFlashJump@@UAEXAAVioINILoader@@@Z$3
__ehfuncinfo$?LoadProperty@ioChargeFlashJump@@UAEXAAVioINILoader@@@Z DD 019930522H
	DD	04H
	DD	FLAT:__unwindtable$?LoadProperty@ioChargeFlashJump@@UAEXAAVioINILoader@@@Z
	DD	2 DUP(00H)
	DD	2 DUP(00H)
	DD	00H
	DD	01H
; Function compile flags: /Ogsp
; File d:\lost saga for developer\youtube\tutorial\source\src\lsclient\iochargeflashjump.cpp
xdata$x	ENDS
;	COMDAT ?LoadProperty@ioChargeFlashJump@@UAEXAAVioINILoader@@@Z
_TEXT	SEGMENT
$T534262 = -1164					; size = 16
$T534265 = -1148					; size = 16
$T534264 = -1132					; size = 16
$T534263 = -1116					; size = 16
_value$534777 = -1100					; size = 4
_value$535041 = -1096					; size = 4
_value$534907 = -1092					; size = 4
tv27979 = -1088						; size = 4
tv27962 = -1088						; size = 4
tv27931 = -1088						; size = 4
tv27921 = -1088						; size = 4
tv27911 = -1088						; size = 4
tv27903 = -1088						; size = 4
tv27848 = -1088						; size = 4
_i$537661 = -1088					; size = 4
$T536246 = -1088					; size = 4
_i$535993 = -1088					; size = 4
_i$535864 = -1088					; size = 4
_i$535029 = -1088					; size = 4
_szBuf$ = -1084						; size = 260
__k$535700 = -824					; size = 29
__k$535874 = -788					; size = 28
__k$534410 = -756					; size = 28
__k$536003 = -724					; size = 28
__k$536279 = -692					; size = 28
__k$536404 = -660					; size = 28
__k$534541 = -628					; size = 27
__k$536529 = -596					; size = 27
__k$536667 = -564					; size = 27
__k$534709 = -532					; size = 26
__k$535595 = -500					; size = 26
__k$536074 = -468					; size = 21
__k$535433 = -440					; size = 24
__k$537042 = -412					; size = 24
__k$537671 = -384					; size = 24
__k$537921 = -356					; size = 23
__k$534928 = -328					; size = 23
__k$537796 = -300					; size = 22
__k$534794 = -272					; size = 17
_szEncAttack$537483 = -248				; size = 17
__k$537167 = -224					; size = 17
__k$537529 = -200					; size = 19
_szEncAttack$536917 = -176				; size = 19
__k$534285 = -152					; size = 19
__k$535308 = -128					; size = 18
_szEncAttack$536792 = -104				; size = 18
__k$535183 = -80					; size = 18
__k$535058 = -56					; size = 13
__k$537292 = -36					; size = 15
__$EHRec$ = -12						; size = 12
_rkLoader$ = 8						; size = 4
?LoadProperty@ioChargeFlashJump@@UAEXAAVioINILoader@@@Z PROC ; ioChargeFlashJump::LoadProperty, COMDAT
; _this$ = ecx

; 90   : {

  00000	68 80 04 00 00	 push	 1152			; 00000480H
  00005	b8 00 00 00 00	 mov	 eax, __ehhandler$?LoadProperty@ioChargeFlashJump@@UAEXAAVioINILoader@@@Z
  0000a	e8 00 00 00 00	 call	 __EH_prolog3_GS
  0000f	8b 7d 08	 mov	 edi, DWORD PTR _rkLoader$[ebp]

; 91   : 	ioExtendJump::LoadProperty( rkLoader );

  00012	57		 push	 edi
  00013	8b f1		 mov	 esi, ecx
  00015	e8 00 00 00 00	 call	 ?LoadProperty@ioExtendJump@@UAEXAAVioINILoader@@@Z ; ioExtendJump::LoadProperty

; 92   : 
; 93   : 	char szBuf[MAX_PATH] = "";

  0001a	33 db		 xor	 ebx, ebx
  0001c	68 03 01 00 00	 push	 259			; 00000103H
  00021	8d 85 c5 fb ff
	ff		 lea	 eax, DWORD PTR _szBuf$[ebp+1]
  00027	53		 push	 ebx
  00028	50		 push	 eax
  00029	88 9d c4 fb ff
	ff		 mov	 BYTE PTR _szBuf$[ebp], bl
  0002f	e8 00 00 00 00	 call	 _memset
  00034	83 c4 0c	 add	 esp, 12			; 0000000cH

; 94   : 	char szKey[MAX_PATH] = "";
; 95   : 
; 96   : 	// charging
; 97   : 	m_dwChargingTime = rkLoader.LoadInt_e( "jump_charging_time", 0 );

  00037	6a 04		 push	 4
  00039	c7 85 68 ff ff
	ff 87 99 86 9a	 mov	 DWORD PTR __k$534285[ebp], -1702454905 ; 9a869987H
  00043	c7 85 6c ff ff
	ff b2 8f 83 8b	 mov	 DWORD PTR __k$534285[ebp+4], -1954312270 ; 8b838fb2H
  0004d	c7 85 70 ff ff
	ff 9f 8b 82 84	 mov	 DWORD PTR __k$534285[ebp+8], -2071819361 ; 84828b9fH
  00057	c7 85 74 ff ff
	ff 8a b3 9f 83	 mov	 DWORD PTR __k$534285[ebp+12], -2086685814 ; 839fb38aH
  00061	66 c7 85 78 ff
	ff ff 80 89	 mov	 WORD PTR __k$534285[ebp+16], 35200 ; 00008980H
  0006a	8d 85 68 ff ff
	ff		 lea	 eax, DWORD PTR __k$534285[ebp]
  00070	88 9d 7a ff ff
	ff		 mov	 BYTE PTR __k$534285[ebp+18], bl
  00076	59		 pop	 ecx
$LL112@LoadProper:
  00077	81 30 ed ec eb
	ea		 xor	 DWORD PTR [eax], -353637139 ; eaebecedH
  0007d	83 c0 04	 add	 eax, 4
  00080	49		 dec	 ecx
  00081	75 f4		 jne	 SHORT $LL112@LoadProper
  00083	6a 10		 push	 16			; 00000010H
  00085	58		 pop	 eax
$LL109@LoadProper:
  00086	8b c8		 mov	 ecx, eax
  00088	81 e1 03 00 00
	80		 and	 ecx, -2147483645	; 80000003H
  0008e	79 05		 jns	 SHORT $LN3238@LoadProper
  00090	49		 dec	 ecx
  00091	83 c9 fc	 or	 ecx, -4			; fffffffcH
  00094	41		 inc	 ecx
$LN3238@LoadProper:
  00095	b2 ed		 mov	 dl, -19			; ffffffedH
  00097	2a d1		 sub	 dl, cl
  00099	30 94 05 68 ff
	ff ff		 xor	 BYTE PTR __k$534285[ebp+eax], dl
  000a0	40		 inc	 eax
  000a1	83 f8 12	 cmp	 eax, 18			; 00000012H
  000a4	7c e0		 jl	 SHORT $LL109@LoadProper
  000a6	53		 push	 ebx
  000a7	8d 85 68 ff ff
	ff		 lea	 eax, DWORD PTR __k$534285[ebp]
  000ad	50		 push	 eax
  000ae	8b cf		 mov	 ecx, edi
  000b0	ff 15 00 00 00
	00		 call	 DWORD PTR __imp_?LoadInt@ioINILoader@@QAEHPBDH@Z
  000b6	89 86 d4 01 00
	00		 mov	 DWORD PTR [esi+468], eax
  000bc	6a 06		 push	 6

; 98   : 	rkLoader.LoadString_e( "jump_attack_ready_animation", "", szBuf, MAX_PATH );

  000be	c7 85 0c fd ff
	ff 87 99 86 9a	 mov	 DWORD PTR __k$534410[ebp], -1702454905 ; 9a869987H
  000c8	c7 85 10 fd ff
	ff b2 8d 9f 9e	 mov	 DWORD PTR __k$534410[ebp+4], -1633710670 ; 9e9f8db2H
  000d2	c7 85 14 fd ff
	ff 8c 8f 80 b5	 mov	 DWORD PTR __k$534410[ebp+8], -1249865844 ; b5808f8cH
  000dc	c7 85 18 fd ff
	ff 9f 89 8a 8e	 mov	 DWORD PTR __k$534410[ebp+12], -1903523425 ; 8e8a899fH
  000e6	c7 85 1c fd ff
	ff 94 b3 8a 84	 mov	 DWORD PTR __k$534410[ebp+16], -2071284844 ; 848ab394H
  000f0	c7 85 20 fd ff
	ff 84 81 8a 9e	 mov	 DWORD PTR __k$534410[ebp+20], -1635090044 ; 9e8a8184H
  000fa	8d 85 0c fd ff
	ff		 lea	 eax, DWORD PTR __k$534410[ebp]
  00100	c7 85 24 fd ff
	ff 84 83 85 00	 mov	 DWORD PTR __k$534410[ebp+24], 8749956 ; 00858384H
  0010a	59		 pop	 ecx
$LL218@LoadProper:
  0010b	81 30 ed ec eb
	ea		 xor	 DWORD PTR [eax], -353637139 ; eaebecedH
  00111	83 c0 04	 add	 eax, 4
  00114	49		 dec	 ecx
  00115	75 f4		 jne	 SHORT $LL218@LoadProper
  00117	6a 18		 push	 24			; 00000018H
  00119	58		 pop	 eax
$LL215@LoadProper:
  0011a	8b c8		 mov	 ecx, eax
  0011c	81 e1 03 00 00
	80		 and	 ecx, -2147483645	; 80000003H
  00122	79 05		 jns	 SHORT $LN3239@LoadProper
  00124	49		 dec	 ecx
  00125	83 c9 fc	 or	 ecx, -4			; fffffffcH
  00128	41		 inc	 ecx
$LN3239@LoadProper:
  00129	b2 ed		 mov	 dl, -19			; ffffffedH
  0012b	2a d1		 sub	 dl, cl
  0012d	30 94 05 0c fd
	ff ff		 xor	 BYTE PTR __k$534410[ebp+eax], dl
  00134	40		 inc	 eax
  00135	83 f8 1b	 cmp	 eax, 27			; 0000001bH
  00138	7c e0		 jl	 SHORT $LL215@LoadProper
  0013a	68 04 01 00 00	 push	 260			; 00000104H
  0013f	8d 85 c4 fb ff
	ff		 lea	 eax, DWORD PTR _szBuf$[ebp]
  00145	50		 push	 eax
  00146	68 00 00 00 00	 push	 OFFSET ??_C@_00CNPNBAHC@?$AA@
  0014b	8d 85 0c fd ff
	ff		 lea	 eax, DWORD PTR __k$534410[ebp]
  00151	50		 push	 eax
  00152	8b cf		 mov	 ecx, edi
  00154	ff 15 00 00 00
	00		 call	 DWORD PTR __imp_?LoadStringA@ioINILoader@@QAEXPBD0PADH@Z

; 99   : 	m_szChargingAni = szBuf;

  0015a	8d 85 c4 fb ff
	ff		 lea	 eax, DWORD PTR _szBuf$[ebp]
  00160	50		 push	 eax
  00161	8d 8e d8 01 00
	00		 lea	 ecx, DWORD PTR [esi+472]
  00167	ff 15 00 00 00
	00		 call	 DWORD PTR __imp_??4ioHashString@@QAEAAV0@PBD@Z
  0016d	6a 06		 push	 6

; 100  : 
; 101  : 	//
; 102  : 	rkLoader.LoadString_e( "flash_jump_delay_animation", "", szBuf, MAX_PATH );

  0016f	c7 85 8c fd ff
	ff 8b 80 8a 99	 mov	 DWORD PTR __k$534541[ebp], -1718976373 ; 998a808bH
  00179	c7 85 90 fd ff
	ff 85 b3 81 9f	 mov	 DWORD PTR __k$534541[ebp+4], -1618889851 ; 9f81b385H
  00183	c7 85 94 fd ff
	ff 80 9c b4 8e	 mov	 DWORD PTR __k$534541[ebp+8], -1900766080 ; 8eb49c80H
  0018d	c7 85 98 fd ff
	ff 88 80 8a 93	 mov	 DWORD PTR __k$534541[ebp+12], -1819639672 ; 938a8088H
  00197	c7 85 9c fd ff
	ff b2 8d 85 83	 mov	 DWORD PTR __k$534541[ebp+16], -2088399438 ; 83858db2H
  001a1	c7 85 a0 fd ff
	ff 80 8d 9f 83	 mov	 DWORD PTR __k$534541[ebp+20], -2086695552 ; 839f8d80H
  001ab	66 c7 85 a4 fd
	ff ff 82 82	 mov	 WORD PTR __k$534541[ebp+24], 33410 ; 00008282H
  001b4	8d 85 8c fd ff
	ff		 lea	 eax, DWORD PTR __k$534541[ebp]
  001ba	88 9d a6 fd ff
	ff		 mov	 BYTE PTR __k$534541[ebp+26], bl
  001c0	59		 pop	 ecx
$LL324@LoadProper:
  001c1	81 30 ed ec eb
	ea		 xor	 DWORD PTR [eax], -353637139 ; eaebecedH
  001c7	83 c0 04	 add	 eax, 4
  001ca	49		 dec	 ecx
  001cb	75 f4		 jne	 SHORT $LL324@LoadProper
  001cd	6a 18		 push	 24			; 00000018H
  001cf	58		 pop	 eax
$LL321@LoadProper:
  001d0	8b c8		 mov	 ecx, eax
  001d2	81 e1 03 00 00
	80		 and	 ecx, -2147483645	; 80000003H
  001d8	79 05		 jns	 SHORT $LN3240@LoadProper
  001da	49		 dec	 ecx
  001db	83 c9 fc	 or	 ecx, -4			; fffffffcH
  001de	41		 inc	 ecx
$LN3240@LoadProper:
  001df	b2 ed		 mov	 dl, -19			; ffffffedH
  001e1	2a d1		 sub	 dl, cl
  001e3	30 94 05 8c fd
	ff ff		 xor	 BYTE PTR __k$534541[ebp+eax], dl
  001ea	40		 inc	 eax
  001eb	83 f8 1a	 cmp	 eax, 26			; 0000001aH
  001ee	7c e0		 jl	 SHORT $LL321@LoadProper
  001f0	68 04 01 00 00	 push	 260			; 00000104H
  001f5	8d 85 c4 fb ff
	ff		 lea	 eax, DWORD PTR _szBuf$[ebp]
  001fb	50		 push	 eax
  001fc	68 00 00 00 00	 push	 OFFSET ??_C@_00CNPNBAHC@?$AA@
  00201	8d 85 8c fd ff
	ff		 lea	 eax, DWORD PTR __k$534541[ebp]
  00207	50		 push	 eax
  00208	8b cf		 mov	 ecx, edi
  0020a	ff 15 00 00 00
	00		 call	 DWORD PTR __imp_?LoadStringA@ioINILoader@@QAEXPBD0PADH@Z

; 103  : 	m_FlashDelayAni = szBuf;

  00210	8d 85 c4 fb ff
	ff		 lea	 eax, DWORD PTR _szBuf$[ebp]
  00216	50		 push	 eax
  00217	8d 8e 28 01 00
	00		 lea	 ecx, DWORD PTR [esi+296]
  0021d	ff 15 00 00 00
	00		 call	 DWORD PTR __imp_??4ioHashString@@QAEAAV0@PBD@Z

; 104  : 
; 105  : 	m_fFlashDelayRate = rkLoader.LoadFloat_e( "flash_jump_delay_ani_rate", FLOAT1 );

  00223	b8 01 00 00 00	 mov	 eax, 1
  00228	6a 06		 push	 6
  0022a	c7 85 ec fd ff
	ff 8b 80 8a 99	 mov	 DWORD PTR __k$534709[ebp], -1718976373 ; 998a808bH
  00234	c7 85 f0 fd ff
	ff 85 b3 81 9f	 mov	 DWORD PTR __k$534709[ebp+4], -1618889851 ; 9f81b385H
  0023e	c7 85 f4 fd ff
	ff 80 9c b4 8e	 mov	 DWORD PTR __k$534709[ebp+8], -1900766080 ; 8eb49c80H
  00248	c7 85 f8 fd ff
	ff 88 80 8a 93	 mov	 DWORD PTR __k$534709[ebp+12], -1819639672 ; 938a8088H
  00252	c7 85 fc fd ff
	ff b2 8d 85 83	 mov	 DWORD PTR __k$534709[ebp+16], -2088399438 ; 83858db2H
  0025c	c7 85 00 fe ff
	ff b2 9e 8a 9e	 mov	 DWORD PTR __k$534709[ebp+20], -1635082574 ; 9e8a9eb2H
  00266	8d 8d ec fd ff
	ff		 lea	 ecx, DWORD PTR __k$534709[ebp]
  0026c	66 c7 85 04 fe
	ff ff 88 00	 mov	 WORD PTR __k$534709[ebp+24], 136 ; 00000088H
  00275	5a		 pop	 edx
$LL432@LoadProper:
  00276	81 31 ed ec eb
	ea		 xor	 DWORD PTR [ecx], -353637139 ; eaebecedH
  0027c	83 c1 04	 add	 ecx, 4
  0027f	4a		 dec	 edx
  00280	75 f4		 jne	 SHORT $LL432@LoadProper
  00282	80 b5 04 fe ff
	ff ed		 xor	 BYTE PTR __k$534709[ebp+24], -19 ; ffffffedH
  00289	89 85 c0 fb ff
	ff		 mov	 DWORD PTR tv27979[ebp], eax
  0028f	db 85 c0 fb ff
	ff		 fild	 DWORD PTR tv27979[ebp]
  00295	85 c0		 test	 eax, eax
  00297	79 06		 jns	 SHORT $LN3241@LoadProper
  00299	d8 05 00 00 00
	00		 fadd	 DWORD PTR __real@4f800000
$LN3241@LoadProper:
  0029f	51		 push	 ecx
  002a0	8d 85 ec fd ff
	ff		 lea	 eax, DWORD PTR __k$534709[ebp]
  002a6	d9 1c 24	 fstp	 DWORD PTR [esp]
  002a9	50		 push	 eax
  002aa	8b cf		 mov	 ecx, edi
  002ac	ff 15 00 00 00
	00		 call	 DWORD PTR __imp_?LoadFloat@ioINILoader@@QAEMPBDM@Z
  002b2	d9 9d b4 fb ff
	ff		 fstp	 DWORD PTR _value$534777[ebp]
  002b8	8d 85 b4 fb ff
	ff		 lea	 eax, DWORD PTR _value$534777[ebp]
  002be	50		 push	 eax
  002bf	8d 8e 38 01 00
	00		 lea	 ecx, DWORD PTR [esi+312]
  002c5	e8 00 00 00 00	 call	 ?EncryptValueToPool@?$CEncrypt@M@@AAEXPBD@Z ; CEncrypt<float>::EncryptValueToPool
  002ca	6a 04		 push	 4

; 106  : 
; 107  : 	m_fFlashForce = rkLoader.LoadFloat_e( "flash_jump_force", 0.0f );

  002cc	c7 85 f0 fe ff
	ff 8b 80 8a 99	 mov	 DWORD PTR __k$534794[ebp], -1718976373 ; 998a808bH
  002d6	c7 85 f4 fe ff
	ff 85 b3 81 9f	 mov	 DWORD PTR __k$534794[ebp+4], -1618889851 ; 9f81b385H
  002e0	c7 85 f8 fe ff
	ff 80 9c b4 8c	 mov	 DWORD PTR __k$534794[ebp+8], -1934320512 ; 8cb49c80H
  002ea	c7 85 fc fe ff
	ff 82 9e 88 8f	 mov	 DWORD PTR __k$534794[ebp+12], -1886871934 ; 8f889e82H
  002f4	8d 85 f0 fe ff
	ff		 lea	 eax, DWORD PTR __k$534794[ebp]
  002fa	88 9d 00 ff ff
	ff		 mov	 BYTE PTR __k$534794[ebp+16], bl
  00300	59		 pop	 ecx
$LL540@LoadProper:
  00301	81 30 ed ec eb
	ea		 xor	 DWORD PTR [eax], -353637139 ; eaebecedH
  00307	83 c0 04	 add	 eax, 4
  0030a	49		 dec	 ecx
  0030b	75 f4		 jne	 SHORT $LL540@LoadProper
  0030d	0f 57 c0	 xorps	 xmm0, xmm0
  00310	51		 push	 ecx
  00311	8d 85 f0 fe ff
	ff		 lea	 eax, DWORD PTR __k$534794[ebp]
  00317	f3 0f 11 04 24	 movss	 DWORD PTR [esp], xmm0
  0031c	50		 push	 eax
  0031d	8b cf		 mov	 ecx, edi
  0031f	ff 15 00 00 00
	00		 call	 DWORD PTR __imp_?LoadFloat@ioINILoader@@QAEMPBDM@Z
  00325	d9 9d bc fb ff
	ff		 fstp	 DWORD PTR _value$534907[ebp]
  0032b	8d 85 bc fb ff
	ff		 lea	 eax, DWORD PTR _value$534907[ebp]
  00331	50		 push	 eax
  00332	8d 8e 68 01 00
	00		 lea	 ecx, DWORD PTR [esi+360]
  00338	e8 00 00 00 00	 call	 ?EncryptValueToPool@?$CEncrypt@M@@AAEXPBD@Z ; CEncrypt<float>::EncryptValueToPool

; 108  : 	m_fFlashGravityAmt = rkLoader.LoadFloat_e( "flash_jump_gravity_amt", FLOAT1 );

  0033d	b8 01 00 00 00	 mov	 eax, 1
  00342	6a 05		 push	 5
  00344	c7 85 b8 fe ff
	ff 8b 80 8a 99	 mov	 DWORD PTR __k$534928[ebp], -1718976373 ; 998a808bH
  0034e	c7 85 bc fe ff
	ff 85 b3 81 9f	 mov	 DWORD PTR __k$534928[ebp+4], -1618889851 ; 9f81b385H
  00358	c7 85 c0 fe ff
	ff 80 9c b4 8d	 mov	 DWORD PTR __k$534928[ebp+8], -1917543296 ; 8db49c80H
  00362	c7 85 c4 fe ff
	ff 9f 8d 9d 83	 mov	 DWORD PTR __k$534928[ebp+12], -2086826593 ; 839d8d9fH
  0036c	c7 85 c8 fe ff
	ff 99 95 b4 8b	 mov	 DWORD PTR __k$534928[ebp+16], -1951099495 ; 8bb49599H
  00376	66 c7 85 cc fe
	ff ff 80 98	 mov	 WORD PTR __k$534928[ebp+20], 39040 ; 00009880H
  0037f	8d 8d b8 fe ff
	ff		 lea	 ecx, DWORD PTR __k$534928[ebp]
  00385	88 9d ce fe ff
	ff		 mov	 BYTE PTR __k$534928[ebp+22], bl
  0038b	5a		 pop	 edx
$LL650@LoadProper:
  0038c	81 31 ed ec eb
	ea		 xor	 DWORD PTR [ecx], -353637139 ; eaebecedH
  00392	83 c1 04	 add	 ecx, 4
  00395	4a		 dec	 edx
  00396	75 f4		 jne	 SHORT $LL650@LoadProper
  00398	c7 85 c0 fb ff
	ff 14 00 00 00	 mov	 DWORD PTR _i$535029[ebp], 20 ; 00000014H
$LL647@LoadProper:
  003a2	8b 8d c0 fb ff
	ff		 mov	 ecx, DWORD PTR _i$535029[ebp]
  003a8	81 e1 03 00 00
	80		 and	 ecx, -2147483645	; 80000003H
  003ae	79 05		 jns	 SHORT $LN3242@LoadProper
  003b0	49		 dec	 ecx
  003b1	83 c9 fc	 or	 ecx, -4			; fffffffcH
  003b4	41		 inc	 ecx
$LN3242@LoadProper:
  003b5	b2 ed		 mov	 dl, -19			; ffffffedH
  003b7	2a d1		 sub	 dl, cl
  003b9	8b 8d c0 fb ff
	ff		 mov	 ecx, DWORD PTR _i$535029[ebp]
  003bf	30 94 0d b8 fe
	ff ff		 xor	 BYTE PTR __k$534928[ebp+ecx], dl
  003c6	ff 85 c0 fb ff
	ff		 inc	 DWORD PTR _i$535029[ebp]
  003cc	83 bd c0 fb ff
	ff 16		 cmp	 DWORD PTR _i$535029[ebp], 22 ; 00000016H
  003d3	7c cd		 jl	 SHORT $LL647@LoadProper
  003d5	89 85 c0 fb ff
	ff		 mov	 DWORD PTR tv27962[ebp], eax
  003db	db 85 c0 fb ff
	ff		 fild	 DWORD PTR tv27962[ebp]
  003e1	85 c0		 test	 eax, eax
  003e3	79 06		 jns	 SHORT $LN3243@LoadProper
  003e5	d8 05 00 00 00
	00		 fadd	 DWORD PTR __real@4f800000
$LN3243@LoadProper:
  003eb	51		 push	 ecx
  003ec	8d 85 b8 fe ff
	ff		 lea	 eax, DWORD PTR __k$534928[ebp]
  003f2	d9 1c 24	 fstp	 DWORD PTR [esp]
  003f5	50		 push	 eax
  003f6	8b cf		 mov	 ecx, edi
  003f8	ff 15 00 00 00
	00		 call	 DWORD PTR __imp_?LoadFloat@ioINILoader@@QAEMPBDM@Z
  003fe	d9 9d b8 fb ff
	ff		 fstp	 DWORD PTR _value$535041[ebp]
  00404	8d 85 b8 fb ff
	ff		 lea	 eax, DWORD PTR _value$535041[ebp]
  0040a	50		 push	 eax
  0040b	8d 8e 98 01 00
	00		 lea	 ecx, DWORD PTR [esi+408]
  00411	e8 00 00 00 00	 call	 ?EncryptValueToPool@?$CEncrypt@M@@AAEXPBD@Z ; CEncrypt<float>::EncryptValueToPool
  00416	6a 03		 push	 3

; 109  : 
; 110  : 
; 111  : 	// Double
; 112  : 	m_iMaxJumpCnt = rkLoader.LoadInt_e( "max_jump_cnt", 0 );

  00418	c7 45 c8 80 8d
	93 b5		 mov	 DWORD PTR __k$535058[ebp], -1248621184 ; b5938d80H
  0041f	c7 45 cc 87 99
	86 9a		 mov	 DWORD PTR __k$535058[ebp+4], -1702454905 ; 9a869987H
  00426	c7 45 d0 b2 8f
	85 9e		 mov	 DWORD PTR __k$535058[ebp+8], -1635414094 ; 9e858fb2H
  0042d	8d 45 c8	 lea	 eax, DWORD PTR __k$535058[ebp]
  00430	88 5d d4	 mov	 BYTE PTR __k$535058[ebp+12], bl
  00433	59		 pop	 ecx
$LL758@LoadProper:
  00434	81 30 ed ec eb
	ea		 xor	 DWORD PTR [eax], -353637139 ; eaebecedH
  0043a	83 c0 04	 add	 eax, 4
  0043d	49		 dec	 ecx
  0043e	75 f4		 jne	 SHORT $LL758@LoadProper
  00440	53		 push	 ebx
  00441	8d 45 c8	 lea	 eax, DWORD PTR __k$535058[ebp]
  00444	50		 push	 eax
  00445	8b cf		 mov	 ecx, edi
  00447	ff 15 00 00 00
	00		 call	 DWORD PTR __imp_?LoadInt@ioINILoader@@QAEHPBDH@Z
  0044d	89 86 c0 02 00
	00		 mov	 DWORD PTR [esi+704], eax

; 113  : 	m_iMaxJumpCnt = max( 1, m_iMaxJumpCnt );

  00453	83 f8 01	 cmp	 eax, 1
  00456	7d 03		 jge	 SHORT $LN3@LoadProper
  00458	33 c0		 xor	 eax, eax
  0045a	40		 inc	 eax
$LN3@LoadProper:
  0045b	89 86 c0 02 00
	00		 mov	 DWORD PTR [esi+704], eax
  00461	6a 04		 push	 4

; 114  : 
; 115  : 	m_fDoubleJumpPower = rkLoader.LoadFloat_e( "double_jump_power", 0.0f );

  00463	c7 45 b0 89 83
	9e 88		 mov	 DWORD PTR __k$535183[ebp], -2002877559 ; 889e8389H
  0046a	c7 45 b4 81 89
	b4 80		 mov	 DWORD PTR __k$535183[ebp+4], -2135651967 ; 80b48981H
  00471	c7 45 b8 98 81
	9b b5		 mov	 DWORD PTR __k$535183[ebp+8], -1248099944 ; b59b8198H
  00478	c7 45 bc 9d 83
	9c 8f		 mov	 DWORD PTR __k$535183[ebp+12], -1885568099 ; 8f9c839dH
  0047f	8d 45 b0	 lea	 eax, DWORD PTR __k$535183[ebp]
  00482	66 c7 45 c0 9f
	00		 mov	 WORD PTR __k$535183[ebp+16], 159 ; 0000009fH
  00488	59		 pop	 ecx
$LL864@LoadProper:
  00489	81 30 ed ec eb
	ea		 xor	 DWORD PTR [eax], -353637139 ; eaebecedH
  0048f	83 c0 04	 add	 eax, 4
  00492	49		 dec	 ecx
  00493	75 f4		 jne	 SHORT $LL864@LoadProper
  00495	0f 57 c0	 xorps	 xmm0, xmm0
  00498	80 75 c0 ed	 xor	 BYTE PTR __k$535183[ebp+16], -19 ; ffffffedH
  0049c	51		 push	 ecx
  0049d	8d 45 b0	 lea	 eax, DWORD PTR __k$535183[ebp]
  004a0	f3 0f 11 04 24	 movss	 DWORD PTR [esp], xmm0
  004a5	50		 push	 eax
  004a6	8b cf		 mov	 ecx, edi
  004a8	ff 15 00 00 00
	00		 call	 DWORD PTR __imp_?LoadFloat@ioINILoader@@QAEMPBDM@Z
  004ae	d9 9e 8c 02 00
	00		 fstp	 DWORD PTR [esi+652]
  004b4	6a 04		 push	 4

; 116  : 	m_fDoubleJumpForce = rkLoader.LoadFloat_e( "double_jump_force", 0.0f );

  004b6	c7 45 80 89 83
	9e 88		 mov	 DWORD PTR __k$535308[ebp], -2002877559 ; 889e8389H
  004bd	c7 45 84 81 89
	b4 80		 mov	 DWORD PTR __k$535308[ebp+4], -2135651967 ; 80b48981H
  004c4	c7 45 88 98 81
	9b b5		 mov	 DWORD PTR __k$535308[ebp+8], -1248099944 ; b59b8198H
  004cb	c7 45 8c 8b 83
	99 89		 mov	 DWORD PTR __k$535308[ebp+12], -1986428021 ; 8999838bH
  004d2	8d 45 80	 lea	 eax, DWORD PTR __k$535308[ebp]
  004d5	66 c7 45 90 88
	00		 mov	 WORD PTR __k$535308[ebp+16], 136 ; 00000088H
  004db	59		 pop	 ecx
$LL970@LoadProper:
  004dc	81 30 ed ec eb
	ea		 xor	 DWORD PTR [eax], -353637139 ; eaebecedH
  004e2	83 c0 04	 add	 eax, 4
  004e5	49		 dec	 ecx
  004e6	75 f4		 jne	 SHORT $LL970@LoadProper
  004e8	0f 57 c0	 xorps	 xmm0, xmm0
  004eb	80 75 90 ed	 xor	 BYTE PTR __k$535308[ebp+16], -19 ; ffffffedH
  004ef	51		 push	 ecx
  004f0	8d 45 80	 lea	 eax, DWORD PTR __k$535308[ebp]
  004f3	f3 0f 11 04 24	 movss	 DWORD PTR [esp], xmm0
  004f8	50		 push	 eax
  004f9	8b cf		 mov	 ecx, edi
  004fb	ff 15 00 00 00
	00		 call	 DWORD PTR __imp_?LoadFloat@ioINILoader@@QAEMPBDM@Z
  00501	d9 9e 90 02 00
	00		 fstp	 DWORD PTR [esi+656]
  00507	6a 05		 push	 5

; 117  : 	m_dwDoubleJumpEnableTime = rkLoader.LoadInt_e( "double_jump_enable_time", 0 );

  00509	c7 85 48 fe ff
	ff 89 83 9e 88	 mov	 DWORD PTR __k$535433[ebp], -2002877559 ; 889e8389H
  00513	c7 85 4c fe ff
	ff 81 89 b4 80	 mov	 DWORD PTR __k$535433[ebp+4], -2135651967 ; 80b48981H
  0051d	c7 85 50 fe ff
	ff 98 81 9b b5	 mov	 DWORD PTR __k$535433[ebp+8], -1248099944 ; b59b8198H
  00527	c7 85 54 fe ff
	ff 88 82 8a 88	 mov	 DWORD PTR __k$535433[ebp+12], -2004188536 ; 888a8288H
  00531	c7 85 58 fe ff
	ff 81 89 b4 9e	 mov	 DWORD PTR __k$535433[ebp+16], -1632335487 ; 9eb48981H
  0053b	8d 85 48 fe ff
	ff		 lea	 eax, DWORD PTR __k$535433[ebp]
  00541	c7 85 5c fe ff
	ff 84 81 8e 00	 mov	 DWORD PTR __k$535433[ebp+20], 9339268 ; 008e8184H
  0054b	59		 pop	 ecx
$LL1076@LoadProper:
  0054c	81 30 ed ec eb
	ea		 xor	 DWORD PTR [eax], -353637139 ; eaebecedH
  00552	83 c0 04	 add	 eax, 4
  00555	49		 dec	 ecx
  00556	75 f4		 jne	 SHORT $LL1076@LoadProper
  00558	6a 14		 push	 20			; 00000014H
  0055a	58		 pop	 eax
$LL1073@LoadProper:
  0055b	8b c8		 mov	 ecx, eax
  0055d	81 e1 03 00 00
	80		 and	 ecx, -2147483645	; 80000003H
  00563	79 05		 jns	 SHORT $LN3244@LoadProper
  00565	49		 dec	 ecx
  00566	83 c9 fc	 or	 ecx, -4			; fffffffcH
  00569	41		 inc	 ecx
$LN3244@LoadProper:
  0056a	b2 ed		 mov	 dl, -19			; ffffffedH
  0056c	2a d1		 sub	 dl, cl
  0056e	30 94 05 48 fe
	ff ff		 xor	 BYTE PTR __k$535433[ebp+eax], dl
  00575	40		 inc	 eax
  00576	83 f8 17	 cmp	 eax, 23			; 00000017H
  00579	7c e0		 jl	 SHORT $LL1073@LoadProper
  0057b	53		 push	 ebx
  0057c	8d 85 48 fe ff
	ff		 lea	 eax, DWORD PTR __k$535433[ebp]
  00582	50		 push	 eax
  00583	8b cf		 mov	 ecx, edi
  00585	ff 15 00 00 00
	00		 call	 DWORD PTR __imp_?LoadInt@ioINILoader@@QAEHPBDH@Z
  0058b	89 86 98 02 00
	00		 mov	 DWORD PTR [esi+664], eax
  00591	6a 06		 push	 6

; 118  : 	m_fDoubleJumpEnableHeight = rkLoader.LoadFloat_e( "double_jump_enable_height", 0.0f );

  00593	c7 85 0c fe ff
	ff 89 83 9e 88	 mov	 DWORD PTR __k$535595[ebp], -2002877559 ; 889e8389H
  0059d	c7 85 10 fe ff
	ff 81 89 b4 80	 mov	 DWORD PTR __k$535595[ebp+4], -2135651967 ; 80b48981H
  005a7	c7 85 14 fe ff
	ff 98 81 9b b5	 mov	 DWORD PTR __k$535595[ebp+8], -1248099944 ; b59b8198H
  005b1	c7 85 18 fe ff
	ff 88 82 8a 88	 mov	 DWORD PTR __k$535595[ebp+12], -2004188536 ; 888a8288H
  005bb	c7 85 1c fe ff
	ff 81 89 b4 82	 mov	 DWORD PTR __k$535595[ebp+16], -2102097535 ; 82b48981H
  005c5	c7 85 20 fe ff
	ff 88 85 8c 82	 mov	 DWORD PTR __k$535595[ebp+20], -2104719992 ; 828c8588H
  005cf	8d 85 0c fe ff
	ff		 lea	 eax, DWORD PTR __k$535595[ebp]
  005d5	66 c7 85 24 fe
	ff ff 99 00	 mov	 WORD PTR __k$535595[ebp+24], 153 ; 00000099H
  005de	59		 pop	 ecx
$LL1182@LoadProper:
  005df	81 30 ed ec eb
	ea		 xor	 DWORD PTR [eax], -353637139 ; eaebecedH
  005e5	83 c0 04	 add	 eax, 4
  005e8	49		 dec	 ecx
  005e9	75 f4		 jne	 SHORT $LL1182@LoadProper
  005eb	0f 57 c0	 xorps	 xmm0, xmm0
  005ee	80 b5 24 fe ff
	ff ed		 xor	 BYTE PTR __k$535595[ebp+24], -19 ; ffffffedH
  005f5	51		 push	 ecx
  005f6	8d 85 0c fe ff
	ff		 lea	 eax, DWORD PTR __k$535595[ebp]
  005fc	f3 0f 11 04 24	 movss	 DWORD PTR [esp], xmm0
  00601	50		 push	 eax
  00602	8b cf		 mov	 ecx, edi
  00604	ff 15 00 00 00
	00		 call	 DWORD PTR __imp_?LoadFloat@ioINILoader@@QAEMPBDM@Z
  0060a	d9 9e 94 02 00
	00		 fstp	 DWORD PTR [esi+660]

; 119  : 
; 120  : 	m_fDoubleJumpSpeedRateFR = rkLoader.LoadFloat_e( "double_jump_speed_rate_front", FLOAT1 );

  00610	b8 01 00 00 00	 mov	 eax, 1
  00615	6a 07		 push	 7
  00617	c7 85 c8 fc ff
	ff 89 83 9e 88	 mov	 DWORD PTR __k$535700[ebp], -2002877559 ; 889e8389H
  00621	c7 85 cc fc ff
	ff 81 89 b4 80	 mov	 DWORD PTR __k$535700[ebp+4], -2135651967 ; 80b48981H
  0062b	c7 85 d0 fc ff
	ff 98 81 9b b5	 mov	 DWORD PTR __k$535700[ebp+8], -1248099944 ; b59b8198H
  00635	c7 85 d4 fc ff
	ff 9e 9c 8e 8f	 mov	 DWORD PTR __k$535700[ebp+12], -1886479202 ; 8f8e9c9eH
  0063f	c7 85 d8 fc ff
	ff 89 b3 99 8b	 mov	 DWORD PTR __k$535700[ebp+16], -1952861303 ; 8b99b389H
  00649	c7 85 dc fc ff
	ff 99 89 b4 8c	 mov	 DWORD PTR __k$535700[ebp+20], -1934325351 ; 8cb48999H
  00653	c7 85 e0 fc ff
	ff 9f 83 85 9e	 mov	 DWORD PTR __k$535700[ebp+24], -1635417185 ; 9e85839fH
  0065d	8d 8d c8 fc ff
	ff		 lea	 ecx, DWORD PTR __k$535700[ebp]
  00663	88 9d e4 fc ff
	ff		 mov	 BYTE PTR __k$535700[ebp+28], bl
  00669	5a		 pop	 edx
$LL1290@LoadProper:
  0066a	81 31 ed ec eb
	ea		 xor	 DWORD PTR [ecx], -353637139 ; eaebecedH
  00670	83 c1 04	 add	 ecx, 4
  00673	4a		 dec	 edx
  00674	75 f4		 jne	 SHORT $LL1290@LoadProper
  00676	89 85 c0 fb ff
	ff		 mov	 DWORD PTR tv27931[ebp], eax
  0067c	db 85 c0 fb ff
	ff		 fild	 DWORD PTR tv27931[ebp]
  00682	85 c0		 test	 eax, eax
  00684	79 06		 jns	 SHORT $LN3245@LoadProper
  00686	d8 05 00 00 00
	00		 fadd	 DWORD PTR __real@4f800000
$LN3245@LoadProper:
  0068c	51		 push	 ecx
  0068d	8d 85 c8 fc ff
	ff		 lea	 eax, DWORD PTR __k$535700[ebp]
  00693	d9 1c 24	 fstp	 DWORD PTR [esp]
  00696	50		 push	 eax
  00697	8b cf		 mov	 ecx, edi
  00699	ff 15 00 00 00
	00		 call	 DWORD PTR __imp_?LoadFloat@ioINILoader@@QAEMPBDM@Z
  0069f	d9 9e 9c 02 00
	00		 fstp	 DWORD PTR [esi+668]

; 121  : 	m_fDoubleJumpSpeedRateSI = rkLoader.LoadFloat_e( "double_jump_speed_rate_side", FLOAT1 );

  006a5	b8 01 00 00 00	 mov	 eax, 1
  006aa	6a 06		 push	 6
  006ac	c7 85 ec fc ff
	ff 89 83 9e 88	 mov	 DWORD PTR __k$535874[ebp], -2002877559 ; 889e8389H
  006b6	c7 85 f0 fc ff
	ff 81 89 b4 80	 mov	 DWORD PTR __k$535874[ebp+4], -2135651967 ; 80b48981H
  006c0	c7 85 f4 fc ff
	ff 98 81 9b b5	 mov	 DWORD PTR __k$535874[ebp+8], -1248099944 ; b59b8198H
  006ca	c7 85 f8 fc ff
	ff 9e 9c 8e 8f	 mov	 DWORD PTR __k$535874[ebp+12], -1886479202 ; 8f8e9c9eH
  006d4	c7 85 fc fc ff
	ff 89 b3 99 8b	 mov	 DWORD PTR __k$535874[ebp+16], -1952861303 ; 8b99b389H
  006de	c7 85 00 fd ff
	ff 99 89 b4 99	 mov	 DWORD PTR __k$535874[ebp+20], -1716221543 ; 99b48999H
  006e8	8d 8d ec fc ff
	ff		 lea	 ecx, DWORD PTR __k$535874[ebp]
  006ee	c7 85 04 fd ff
	ff 84 88 8e 00	 mov	 DWORD PTR __k$535874[ebp+24], 9341060 ; 008e8884H
  006f8	5a		 pop	 edx
$LL1398@LoadProper:
  006f9	81 31 ed ec eb
	ea		 xor	 DWORD PTR [ecx], -353637139 ; eaebecedH
  006ff	83 c1 04	 add	 ecx, 4
  00702	4a		 dec	 edx
  00703	75 f4		 jne	 SHORT $LL1398@LoadProper
  00705	c7 85 c0 fb ff
	ff 18 00 00 00	 mov	 DWORD PTR _i$535864[ebp], 24 ; 00000018H
$LL1395@LoadProper:
  0070f	8b 8d c0 fb ff
	ff		 mov	 ecx, DWORD PTR _i$535864[ebp]
  00715	81 e1 03 00 00
	80		 and	 ecx, -2147483645	; 80000003H
  0071b	79 05		 jns	 SHORT $LN3246@LoadProper
  0071d	49		 dec	 ecx
  0071e	83 c9 fc	 or	 ecx, -4			; fffffffcH
  00721	41		 inc	 ecx
$LN3246@LoadProper:
  00722	b2 ed		 mov	 dl, -19			; ffffffedH
  00724	2a d1		 sub	 dl, cl
  00726	8b 8d c0 fb ff
	ff		 mov	 ecx, DWORD PTR _i$535864[ebp]
  0072c	30 94 0d ec fc
	ff ff		 xor	 BYTE PTR __k$535874[ebp+ecx], dl
  00733	ff 85 c0 fb ff
	ff		 inc	 DWORD PTR _i$535864[ebp]
  00739	83 bd c0 fb ff
	ff 1b		 cmp	 DWORD PTR _i$535864[ebp], 27 ; 0000001bH
  00740	7c cd		 jl	 SHORT $LL1395@LoadProper
  00742	89 85 c0 fb ff
	ff		 mov	 DWORD PTR tv27921[ebp], eax
  00748	db 85 c0 fb ff
	ff		 fild	 DWORD PTR tv27921[ebp]
  0074e	85 c0		 test	 eax, eax
  00750	79 06		 jns	 SHORT $LN3247@LoadProper
  00752	d8 05 00 00 00
	00		 fadd	 DWORD PTR __real@4f800000
$LN3247@LoadProper:
  00758	51		 push	 ecx
  00759	8d 85 ec fc ff
	ff		 lea	 eax, DWORD PTR __k$535874[ebp]
  0075f	d9 1c 24	 fstp	 DWORD PTR [esp]
  00762	50		 push	 eax
  00763	8b cf		 mov	 ecx, edi
  00765	ff 15 00 00 00
	00		 call	 DWORD PTR __imp_?LoadFloat@ioINILoader@@QAEMPBDM@Z
  0076b	d9 9e a0 02 00
	00		 fstp	 DWORD PTR [esi+672]

; 122  : 	m_fDoubleJumpSpeedRateBG = rkLoader.LoadFloat_e( "double_jump_speed_rate_back", FLOAT1 );

  00771	b8 01 00 00 00	 mov	 eax, 1
  00776	6a 06		 push	 6
  00778	c7 85 2c fd ff
	ff 89 83 9e 88	 mov	 DWORD PTR __k$536003[ebp], -2002877559 ; 889e8389H
  00782	c7 85 30 fd ff
	ff 81 89 b4 80	 mov	 DWORD PTR __k$536003[ebp+4], -2135651967 ; 80b48981H
  0078c	c7 85 34 fd ff
	ff 98 81 9b b5	 mov	 DWORD PTR __k$536003[ebp+8], -1248099944 ; b59b8198H
  00796	c7 85 38 fd ff
	ff 9e 9c 8e 8f	 mov	 DWORD PTR __k$536003[ebp+12], -1886479202 ; 8f8e9c9eH
  007a0	c7 85 3c fd ff
	ff 89 b3 99 8b	 mov	 DWORD PTR __k$536003[ebp+16], -1952861303 ; 8b99b389H
  007aa	c7 85 40 fd ff
	ff 99 89 b4 88	 mov	 DWORD PTR __k$536003[ebp+20], -2001434215 ; 88b48999H
  007b4	8d 8d 2c fd ff
	ff		 lea	 ecx, DWORD PTR __k$536003[ebp]
  007ba	c7 85 44 fd ff
	ff 8c 8f 80 00	 mov	 DWORD PTR __k$536003[ebp+24], 8425356 ; 00808f8cH
  007c4	5a		 pop	 edx
$LL1506@LoadProper:
  007c5	81 31 ed ec eb
	ea		 xor	 DWORD PTR [ecx], -353637139 ; eaebecedH
  007cb	83 c1 04	 add	 ecx, 4
  007ce	4a		 dec	 edx
  007cf	75 f4		 jne	 SHORT $LL1506@LoadProper
  007d1	c7 85 c0 fb ff
	ff 18 00 00 00	 mov	 DWORD PTR _i$535993[ebp], 24 ; 00000018H
$LL1503@LoadProper:
  007db	8b 8d c0 fb ff
	ff		 mov	 ecx, DWORD PTR _i$535993[ebp]
  007e1	81 e1 03 00 00
	80		 and	 ecx, -2147483645	; 80000003H
  007e7	79 05		 jns	 SHORT $LN3248@LoadProper
  007e9	49		 dec	 ecx
  007ea	83 c9 fc	 or	 ecx, -4			; fffffffcH
  007ed	41		 inc	 ecx
$LN3248@LoadProper:
  007ee	b2 ed		 mov	 dl, -19			; ffffffedH
  007f0	2a d1		 sub	 dl, cl
  007f2	8b 8d c0 fb ff
	ff		 mov	 ecx, DWORD PTR _i$535993[ebp]
  007f8	30 94 0d 2c fd
	ff ff		 xor	 BYTE PTR __k$536003[ebp+ecx], dl
  007ff	ff 85 c0 fb ff
	ff		 inc	 DWORD PTR _i$535993[ebp]
  00805	83 bd c0 fb ff
	ff 1b		 cmp	 DWORD PTR _i$535993[ebp], 27 ; 0000001bH
  0080c	7c cd		 jl	 SHORT $LL1503@LoadProper
  0080e	89 85 c0 fb ff
	ff		 mov	 DWORD PTR tv27911[ebp], eax
  00814	db 85 c0 fb ff
	ff		 fild	 DWORD PTR tv27911[ebp]
  0081a	85 c0		 test	 eax, eax
  0081c	79 06		 jns	 SHORT $LN3249@LoadProper
  0081e	d8 05 00 00 00
	00		 fadd	 DWORD PTR __real@4f800000
$LN3249@LoadProper:
  00824	51		 push	 ecx
  00825	8d 85 2c fd ff
	ff		 lea	 eax, DWORD PTR __k$536003[ebp]
  0082b	d9 1c 24	 fstp	 DWORD PTR [esp]
  0082e	50		 push	 eax
  0082f	8b cf		 mov	 ecx, edi
  00831	ff 15 00 00 00
	00		 call	 DWORD PTR __imp_?LoadFloat@ioINILoader@@QAEMPBDM@Z
  00837	d9 9e a4 02 00
	00		 fstp	 DWORD PTR [esi+676]

; 123  : 
; 124  : 	m_fDoubleJumpAniRate = rkLoader.LoadFloat_e( "double_jump_ani_rate", FLOAT1 );

  0083d	b8 01 00 00 00	 mov	 eax, 1
  00842	6a 05		 push	 5
  00844	c7 85 2c fe ff
	ff 89 83 9e 88	 mov	 DWORD PTR __k$536074[ebp], -2002877559 ; 889e8389H
  0084e	c7 85 30 fe ff
	ff 81 89 b4 80	 mov	 DWORD PTR __k$536074[ebp+4], -2135651967 ; 80b48981H
  00858	c7 85 34 fe ff
	ff 98 81 9b b5	 mov	 DWORD PTR __k$536074[ebp+8], -1248099944 ; b59b8198H
  00862	c7 85 38 fe ff
	ff 8c 82 82 b5	 mov	 DWORD PTR __k$536074[ebp+12], -1249738100 ; b582828cH
  0086c	c7 85 3c fe ff
	ff 9f 8d 9f 8f	 mov	 DWORD PTR __k$536074[ebp+16], -1885368929 ; 8f9f8d9fH
  00876	8d 8d 2c fe ff
	ff		 lea	 ecx, DWORD PTR __k$536074[ebp]
  0087c	88 9d 40 fe ff
	ff		 mov	 BYTE PTR __k$536074[ebp+20], bl
  00882	5a		 pop	 edx
$LL1614@LoadProper:
  00883	81 31 ed ec eb
	ea		 xor	 DWORD PTR [ecx], -353637139 ; eaebecedH
  00889	83 c1 04	 add	 ecx, 4
  0088c	4a		 dec	 edx
  0088d	75 f4		 jne	 SHORT $LL1614@LoadProper
  0088f	89 85 c0 fb ff
	ff		 mov	 DWORD PTR tv27903[ebp], eax
  00895	db 85 c0 fb ff
	ff		 fild	 DWORD PTR tv27903[ebp]
  0089b	85 c0		 test	 eax, eax
  0089d	79 06		 jns	 SHORT $LN3250@LoadProper
  0089f	d8 05 00 00 00
	00		 fadd	 DWORD PTR __real@4f800000
$LN3250@LoadProper:
  008a5	51		 push	 ecx
  008a6	8d 85 2c fe ff
	ff		 lea	 eax, DWORD PTR __k$536074[ebp]
  008ac	d9 1c 24	 fstp	 DWORD PTR [esp]
  008af	50		 push	 eax
  008b0	8b cf		 mov	 ecx, edi
  008b2	ff 15 00 00 00
	00		 call	 DWORD PTR __imp_?LoadFloat@ioINILoader@@QAEMPBDM@Z
  008b8	d9 9e a8 02 00
	00		 fstp	 DWORD PTR [esi+680]

; 125  : 
; 126  : 	m_vDoubleJumpAniList.clear();

  008be	8d 8e ac 02 00
	00		 lea	 ecx, DWORD PTR [esi+684]
  008c4	8b 41 04	 mov	 eax, DWORD PTR [ecx+4]
  008c7	8b 11		 mov	 edx, DWORD PTR [ecx]
  008c9	50		 push	 eax
  008ca	52		 push	 edx
  008cb	8d 85 c0 fb ff
	ff		 lea	 eax, DWORD PTR $T536246[ebp]
  008d1	50		 push	 eax
  008d2	e8 00 00 00 00	 call	 ?erase@?$vector@VioHashString@@V?$allocator@VioHashString@@@std@@@std@@QAE?AV?$_Vector_iterator@V?$_Vector_val@VioHashString@@V?$allocator@VioHashString@@@std@@@std@@@2@V?$_Vector_const_iterator@V?$_Vector_val@VioHashString@@V?$allocator@VioHashString@@@std@@@std@@@2@0@Z ; std::vector<ioHashString,std::allocator<ioHashString> >::erase

; 127  : 	m_vDoubleJumpAniList.reserve( 4 );

  008d7	6a 04		 push	 4
  008d9	8d 8e ac 02 00
	00		 lea	 ecx, DWORD PTR [esi+684]
  008df	e8 00 00 00 00	 call	 ?reserve@?$vector@VioHashString@@V?$allocator@VioHashString@@@std@@@std@@QAEXI@Z ; std::vector<ioHashString,std::allocator<ioHashString> >::reserve
  008e4	6a 06		 push	 6

; 128  : 
; 129  : 	rkLoader.LoadString_e( "double_jump_animation_front", "", szBuf, MAX_PATH );

  008e6	c7 85 4c fd ff
	ff 89 83 9e 88	 mov	 DWORD PTR __k$536279[ebp], -2002877559 ; 889e8389H
  008f0	c7 85 50 fd ff
	ff 81 89 b4 80	 mov	 DWORD PTR __k$536279[ebp+4], -2135651967 ; 80b48981H
  008fa	c7 85 54 fd ff
	ff 98 81 9b b5	 mov	 DWORD PTR __k$536279[ebp+8], -1248099944 ; b59b8198H
  00904	c7 85 58 fd ff
	ff 8c 82 82 87	 mov	 DWORD PTR __k$536279[ebp+12], -2021490036 ; 8782828cH
  0090e	c7 85 5c fd ff
	ff 8c 98 82 85	 mov	 DWORD PTR __k$536279[ebp+16], -2055038836 ; 8582988cH
  00918	c7 85 60 fd ff
	ff 83 b3 8d 98	 mov	 DWORD PTR __k$536279[ebp+20], -1735543933 ; 988db383H
  00922	8d 85 4c fd ff
	ff		 lea	 eax, DWORD PTR __k$536279[ebp]
  00928	c7 85 64 fd ff
	ff 82 82 9f 00	 mov	 DWORD PTR __k$536279[ebp+24], 10453634 ; 009f8282H
  00932	59		 pop	 ecx
$LL1738@LoadProper:
  00933	81 30 ed ec eb
	ea		 xor	 DWORD PTR [eax], -353637139 ; eaebecedH
  00939	83 c0 04	 add	 eax, 4
  0093c	49		 dec	 ecx
  0093d	75 f4		 jne	 SHORT $LL1738@LoadProper
  0093f	6a 18		 push	 24			; 00000018H
  00941	58		 pop	 eax
$LL1735@LoadProper:
  00942	8b c8		 mov	 ecx, eax
  00944	81 e1 03 00 00
	80		 and	 ecx, -2147483645	; 80000003H
  0094a	79 05		 jns	 SHORT $LN3251@LoadProper
  0094c	49		 dec	 ecx
  0094d	83 c9 fc	 or	 ecx, -4			; fffffffcH
  00950	41		 inc	 ecx
$LN3251@LoadProper:
  00951	b2 ed		 mov	 dl, -19			; ffffffedH
  00953	2a d1		 sub	 dl, cl
  00955	30 94 05 4c fd
	ff ff		 xor	 BYTE PTR __k$536279[ebp+eax], dl
  0095c	40		 inc	 eax
  0095d	83 f8 1b	 cmp	 eax, 27			; 0000001bH
  00960	7c e0		 jl	 SHORT $LL1735@LoadProper
  00962	68 04 01 00 00	 push	 260			; 00000104H
  00967	8d 85 c4 fb ff
	ff		 lea	 eax, DWORD PTR _szBuf$[ebp]
  0096d	50		 push	 eax
  0096e	68 00 00 00 00	 push	 OFFSET ??_C@_00CNPNBAHC@?$AA@
  00973	8d 85 4c fd ff
	ff		 lea	 eax, DWORD PTR __k$536279[ebp]
  00979	50		 push	 eax
  0097a	8b cf		 mov	 ecx, edi
  0097c	ff 15 00 00 00
	00		 call	 DWORD PTR __imp_?LoadStringA@ioINILoader@@QAEXPBD0PADH@Z

; 130  : 	m_vDoubleJumpAniList.push_back( ioHashString(szBuf) );

  00982	8d 85 c4 fb ff
	ff		 lea	 eax, DWORD PTR _szBuf$[ebp]
  00988	50		 push	 eax
  00989	8d 8d 74 fb ff
	ff		 lea	 ecx, DWORD PTR $T534262[ebp]
  0098f	ff 15 00 00 00
	00		 call	 DWORD PTR __imp_??0ioHashString@@QAE@PBD@Z
  00995	50		 push	 eax
  00996	8d 8e ac 02 00
	00		 lea	 ecx, DWORD PTR [esi+684]
  0099c	89 5d fc	 mov	 DWORD PTR __$EHRec$[ebp+8], ebx
  0099f	e8 00 00 00 00	 call	 ?push_back@?$vector@VioHashString@@V?$allocator@VioHashString@@@std@@@std@@QAEX$$QAVioHashString@@@Z ; std::vector<ioHashString,std::allocator<ioHashString> >::push_back
  009a4	83 4d fc ff	 or	 DWORD PTR __$EHRec$[ebp+8], -1
  009a8	8d 8d 74 fb ff
	ff		 lea	 ecx, DWORD PTR $T534262[ebp]
  009ae	ff 15 00 00 00
	00		 call	 DWORD PTR __imp_??1ioHashString@@QAE@XZ
  009b4	6a 06		 push	 6

; 131  : 	rkLoader.LoadString_e( "double_jump_animation_right", "", szBuf, MAX_PATH );

  009b6	c7 85 6c fd ff
	ff 89 83 9e 88	 mov	 DWORD PTR __k$536404[ebp], -2002877559 ; 889e8389H
  009c0	c7 85 70 fd ff
	ff 81 89 b4 80	 mov	 DWORD PTR __k$536404[ebp+4], -2135651967 ; 80b48981H
  009ca	c7 85 74 fd ff
	ff 98 81 9b b5	 mov	 DWORD PTR __k$536404[ebp+8], -1248099944 ; b59b8198H
  009d4	c7 85 78 fd ff
	ff 8c 82 82 87	 mov	 DWORD PTR __k$536404[ebp+12], -2021490036 ; 8782828cH
  009de	c7 85 7c fd ff
	ff 8c 98 82 85	 mov	 DWORD PTR __k$536404[ebp+16], -2055038836 ; 8582988cH
  009e8	c7 85 80 fd ff
	ff 83 b3 99 83	 mov	 DWORD PTR __k$536404[ebp+20], -2087079037 ; 8399b383H
  009f2	8d 85 6c fd ff
	ff		 lea	 eax, DWORD PTR __k$536404[ebp]
  009f8	c7 85 84 fd ff
	ff 8a 84 9f 00	 mov	 DWORD PTR __k$536404[ebp+24], 10454154 ; 009f848aH
  00a02	59		 pop	 ecx
$LL1844@LoadProper:
  00a03	81 30 ed ec eb
	ea		 xor	 DWORD PTR [eax], -353637139 ; eaebecedH
  00a09	83 c0 04	 add	 eax, 4
  00a0c	49		 dec	 ecx
  00a0d	75 f4		 jne	 SHORT $LL1844@LoadProper
  00a0f	6a 18		 push	 24			; 00000018H
  00a11	58		 pop	 eax
$LL1841@LoadProper:
  00a12	8b c8		 mov	 ecx, eax
  00a14	81 e1 03 00 00
	80		 and	 ecx, -2147483645	; 80000003H
  00a1a	79 05		 jns	 SHORT $LN3252@LoadProper
  00a1c	49		 dec	 ecx
  00a1d	83 c9 fc	 or	 ecx, -4			; fffffffcH
  00a20	41		 inc	 ecx
$LN3252@LoadProper:
  00a21	b2 ed		 mov	 dl, -19			; ffffffedH
  00a23	2a d1		 sub	 dl, cl
  00a25	30 94 05 6c fd
	ff ff		 xor	 BYTE PTR __k$536404[ebp+eax], dl
  00a2c	40		 inc	 eax
  00a2d	83 f8 1b	 cmp	 eax, 27			; 0000001bH
  00a30	7c e0		 jl	 SHORT $LL1841@LoadProper
  00a32	68 04 01 00 00	 push	 260			; 00000104H
  00a37	8d 85 c4 fb ff
	ff		 lea	 eax, DWORD PTR _szBuf$[ebp]
  00a3d	50		 push	 eax
  00a3e	68 00 00 00 00	 push	 OFFSET ??_C@_00CNPNBAHC@?$AA@
  00a43	8d 85 6c fd ff
	ff		 lea	 eax, DWORD PTR __k$536404[ebp]
  00a49	50		 push	 eax
  00a4a	8b cf		 mov	 ecx, edi
  00a4c	ff 15 00 00 00
	00		 call	 DWORD PTR __imp_?LoadStringA@ioINILoader@@QAEXPBD0PADH@Z

; 132  : 	m_vDoubleJumpAniList.push_back( ioHashString(szBuf) );

  00a52	8d 85 c4 fb ff
	ff		 lea	 eax, DWORD PTR _szBuf$[ebp]
  00a58	50		 push	 eax
  00a59	8d 8d a4 fb ff
	ff		 lea	 ecx, DWORD PTR $T534263[ebp]
  00a5f	ff 15 00 00 00
	00		 call	 DWORD PTR __imp_??0ioHashString@@QAE@PBD@Z
  00a65	50		 push	 eax
  00a66	8d 8e ac 02 00
	00		 lea	 ecx, DWORD PTR [esi+684]
  00a6c	c7 45 fc 01 00
	00 00		 mov	 DWORD PTR __$EHRec$[ebp+8], 1
  00a73	e8 00 00 00 00	 call	 ?push_back@?$vector@VioHashString@@V?$allocator@VioHashString@@@std@@@std@@QAEX$$QAVioHashString@@@Z ; std::vector<ioHashString,std::allocator<ioHashString> >::push_back
  00a78	83 4d fc ff	 or	 DWORD PTR __$EHRec$[ebp+8], -1
  00a7c	8d 8d a4 fb ff
	ff		 lea	 ecx, DWORD PTR $T534263[ebp]
  00a82	ff 15 00 00 00
	00		 call	 DWORD PTR __imp_??1ioHashString@@QAE@XZ
  00a88	6a 06		 push	 6

; 133  : 	rkLoader.LoadString_e( "double_jump_animation_back", "", szBuf, MAX_PATH );

  00a8a	c7 85 ac fd ff
	ff 89 83 9e 88	 mov	 DWORD PTR __k$536529[ebp], -2002877559 ; 889e8389H
  00a94	c7 85 b0 fd ff
	ff 81 89 b4 80	 mov	 DWORD PTR __k$536529[ebp+4], -2135651967 ; 80b48981H
  00a9e	c7 85 b4 fd ff
	ff 98 81 9b b5	 mov	 DWORD PTR __k$536529[ebp+8], -1248099944 ; b59b8198H
  00aa8	c7 85 b8 fd ff
	ff 8c 82 82 87	 mov	 DWORD PTR __k$536529[ebp+12], -2021490036 ; 8782828cH
  00ab2	c7 85 bc fd ff
	ff 8c 98 82 85	 mov	 DWORD PTR __k$536529[ebp+16], -2055038836 ; 8582988cH
  00abc	c7 85 c0 fd ff
	ff 83 b3 89 8b	 mov	 DWORD PTR __k$536529[ebp+20], -1953909885 ; 8b89b383H
  00ac6	66 c7 85 c4 fd
	ff ff 8e 87	 mov	 WORD PTR __k$536529[ebp+24], 34702 ; 0000878eH
  00acf	8d 85 ac fd ff
	ff		 lea	 eax, DWORD PTR __k$536529[ebp]
  00ad5	88 9d c6 fd ff
	ff		 mov	 BYTE PTR __k$536529[ebp+26], bl
  00adb	59		 pop	 ecx
$LL1950@LoadProper:
  00adc	81 30 ed ec eb
	ea		 xor	 DWORD PTR [eax], -353637139 ; eaebecedH
  00ae2	83 c0 04	 add	 eax, 4
  00ae5	49		 dec	 ecx
  00ae6	75 f4		 jne	 SHORT $LL1950@LoadProper
  00ae8	6a 18		 push	 24			; 00000018H
  00aea	58		 pop	 eax
$LL1947@LoadProper:
  00aeb	8b c8		 mov	 ecx, eax
  00aed	81 e1 03 00 00
	80		 and	 ecx, -2147483645	; 80000003H
  00af3	79 05		 jns	 SHORT $LN3253@LoadProper
  00af5	49		 dec	 ecx
  00af6	83 c9 fc	 or	 ecx, -4			; fffffffcH
  00af9	41		 inc	 ecx
$LN3253@LoadProper:
  00afa	b2 ed		 mov	 dl, -19			; ffffffedH
  00afc	2a d1		 sub	 dl, cl
  00afe	30 94 05 ac fd
	ff ff		 xor	 BYTE PTR __k$536529[ebp+eax], dl
  00b05	40		 inc	 eax
  00b06	83 f8 1a	 cmp	 eax, 26			; 0000001aH
  00b09	7c e0		 jl	 SHORT $LL1947@LoadProper
  00b0b	68 04 01 00 00	 push	 260			; 00000104H
  00b10	8d 85 c4 fb ff
	ff		 lea	 eax, DWORD PTR _szBuf$[ebp]
  00b16	50		 push	 eax
  00b17	68 00 00 00 00	 push	 OFFSET ??_C@_00CNPNBAHC@?$AA@
  00b1c	8d 85 ac fd ff
	ff		 lea	 eax, DWORD PTR __k$536529[ebp]
  00b22	50		 push	 eax
  00b23	8b cf		 mov	 ecx, edi
  00b25	ff 15 00 00 00
	00		 call	 DWORD PTR __imp_?LoadStringA@ioINILoader@@QAEXPBD0PADH@Z

; 134  : 	m_vDoubleJumpAniList.push_back( ioHashString(szBuf) );

  00b2b	8d 85 c4 fb ff
	ff		 lea	 eax, DWORD PTR _szBuf$[ebp]
  00b31	50		 push	 eax
  00b32	8d 8d 94 fb ff
	ff		 lea	 ecx, DWORD PTR $T534264[ebp]
  00b38	ff 15 00 00 00
	00		 call	 DWORD PTR __imp_??0ioHashString@@QAE@PBD@Z
  00b3e	50		 push	 eax
  00b3f	8d 8e ac 02 00
	00		 lea	 ecx, DWORD PTR [esi+684]
  00b45	c7 45 fc 02 00
	00 00		 mov	 DWORD PTR __$EHRec$[ebp+8], 2
  00b4c	e8 00 00 00 00	 call	 ?push_back@?$vector@VioHashString@@V?$allocator@VioHashString@@@std@@@std@@QAEX$$QAVioHashString@@@Z ; std::vector<ioHashString,std::allocator<ioHashString> >::push_back
  00b51	83 4d fc ff	 or	 DWORD PTR __$EHRec$[ebp+8], -1
  00b55	8d 8d 94 fb ff
	ff		 lea	 ecx, DWORD PTR $T534264[ebp]
  00b5b	ff 15 00 00 00
	00		 call	 DWORD PTR __imp_??1ioHashString@@QAE@XZ
  00b61	6a 06		 push	 6

; 135  : 	rkLoader.LoadString_e( "double_jump_animation_left", "", szBuf, MAX_PATH );

  00b63	c7 85 cc fd ff
	ff 89 83 9e 88	 mov	 DWORD PTR __k$536667[ebp], -2002877559 ; 889e8389H
  00b6d	c7 85 d0 fd ff
	ff 81 89 b4 80	 mov	 DWORD PTR __k$536667[ebp+4], -2135651967 ; 80b48981H
  00b77	c7 85 d4 fd ff
	ff 98 81 9b b5	 mov	 DWORD PTR __k$536667[ebp+8], -1248099944 ; b59b8198H
  00b81	c7 85 d8 fd ff
	ff 8c 82 82 87	 mov	 DWORD PTR __k$536667[ebp+12], -2021490036 ; 8782828cH
  00b8b	c7 85 dc fd ff
	ff 8c 98 82 85	 mov	 DWORD PTR __k$536667[ebp+16], -2055038836 ; 8582988cH
  00b95	c7 85 e0 fd ff
	ff 83 b3 87 8f	 mov	 DWORD PTR __k$536667[ebp+20], -1886932093 ; 8f87b383H
  00b9f	66 c7 85 e4 fd
	ff ff 8b 98	 mov	 WORD PTR __k$536667[ebp+24], 39051 ; 0000988bH
  00ba8	8d 85 cc fd ff
	ff		 lea	 eax, DWORD PTR __k$536667[ebp]
  00bae	88 9d e6 fd ff
	ff		 mov	 BYTE PTR __k$536667[ebp+26], bl
  00bb4	59		 pop	 ecx
$LL2056@LoadProper:
  00bb5	81 30 ed ec eb
	ea		 xor	 DWORD PTR [eax], -353637139 ; eaebecedH
  00bbb	83 c0 04	 add	 eax, 4
  00bbe	49		 dec	 ecx
  00bbf	75 f4		 jne	 SHORT $LL2056@LoadProper
  00bc1	6a 18		 push	 24			; 00000018H
  00bc3	58		 pop	 eax
$LL2053@LoadProper:
  00bc4	8b c8		 mov	 ecx, eax
  00bc6	81 e1 03 00 00
	80		 and	 ecx, -2147483645	; 80000003H
  00bcc	79 05		 jns	 SHORT $LN3254@LoadProper
  00bce	49		 dec	 ecx
  00bcf	83 c9 fc	 or	 ecx, -4			; fffffffcH
  00bd2	41		 inc	 ecx
$LN3254@LoadProper:
  00bd3	b2 ed		 mov	 dl, -19			; ffffffedH
  00bd5	2a d1		 sub	 dl, cl
  00bd7	30 94 05 cc fd
	ff ff		 xor	 BYTE PTR __k$536667[ebp+eax], dl
  00bde	40		 inc	 eax
  00bdf	83 f8 1a	 cmp	 eax, 26			; 0000001aH
  00be2	7c e0		 jl	 SHORT $LL2053@LoadProper
  00be4	68 04 01 00 00	 push	 260			; 00000104H
  00be9	8d 85 c4 fb ff
	ff		 lea	 eax, DWORD PTR _szBuf$[ebp]
  00bef	50		 push	 eax
  00bf0	68 00 00 00 00	 push	 OFFSET ??_C@_00CNPNBAHC@?$AA@
  00bf5	8d 85 cc fd ff
	ff		 lea	 eax, DWORD PTR __k$536667[ebp]
  00bfb	50		 push	 eax
  00bfc	8b cf		 mov	 ecx, edi
  00bfe	ff 15 00 00 00
	00		 call	 DWORD PTR __imp_?LoadStringA@ioINILoader@@QAEXPBD0PADH@Z

; 136  : 	m_vDoubleJumpAniList.push_back( ioHashString(szBuf) );

  00c04	8d 85 c4 fb ff
	ff		 lea	 eax, DWORD PTR _szBuf$[ebp]
  00c0a	50		 push	 eax
  00c0b	8d 8d 84 fb ff
	ff		 lea	 ecx, DWORD PTR $T534265[ebp]
  00c11	ff 15 00 00 00
	00		 call	 DWORD PTR __imp_??0ioHashString@@QAE@PBD@Z
  00c17	50		 push	 eax
  00c18	8d 8e ac 02 00
	00		 lea	 ecx, DWORD PTR [esi+684]
  00c1e	c7 45 fc 03 00
	00 00		 mov	 DWORD PTR __$EHRec$[ebp+8], 3
  00c25	e8 00 00 00 00	 call	 ?push_back@?$vector@VioHashString@@V?$allocator@VioHashString@@@std@@@std@@QAEX$$QAVioHashString@@@Z ; std::vector<ioHashString,std::allocator<ioHashString> >::push_back
  00c2a	83 4d fc ff	 or	 DWORD PTR __$EHRec$[ebp+8], -1
  00c2e	8d 8d 84 fb ff
	ff		 lea	 ecx, DWORD PTR $T534265[ebp]
  00c34	ff 15 00 00 00
	00		 call	 DWORD PTR __imp_??1ioHashString@@QAE@XZ

; 137  : 
; 138  : 	// Flash JumpAttack
; 139  : 	m_FlashJumpAttack.Init();

  00c3a	8d 8e ec 01 00
	00		 lea	 ecx, DWORD PTR [esi+492]
  00c40	e8 00 00 00 00	 call	 ?Init@AttackAttribute@@QAEXXZ ; AttackAttribute::Init
  00c45	6a 04		 push	 4

; 140  : 	LoadAttackAttribute_e( "flash_jump_attack", m_FlashJumpAttack, rkLoader );

  00c47	c7 45 98 8b 80
	8a 99		 mov	 DWORD PTR _szEncAttack$536792[ebp], -1718976373 ; 998a808bH
  00c4e	c7 45 9c 85 b3
	81 9f		 mov	 DWORD PTR _szEncAttack$536792[ebp+4], -1618889851 ; 9f81b385H
  00c55	c7 45 a0 80 9c
	b4 8b		 mov	 DWORD PTR _szEncAttack$536792[ebp+8], -1951097728 ; 8bb49c80H
  00c5c	c7 45 a4 99 98
	8a 89		 mov	 DWORD PTR _szEncAttack$536792[ebp+12], -1987405671 ; 898a9899H
  00c63	8d 45 98	 lea	 eax, DWORD PTR _szEncAttack$536792[ebp]
  00c66	66 c7 45 a8 86
	00		 mov	 WORD PTR _szEncAttack$536792[ebp+16], 134 ; 00000086H
  00c6c	59		 pop	 ecx
$LL2162@LoadProper:
  00c6d	81 30 ed ec eb
	ea		 xor	 DWORD PTR [eax], -353637139 ; eaebecedH
  00c73	83 c0 04	 add	 eax, 4
  00c76	49		 dec	 ecx
  00c77	75 f4		 jne	 SHORT $LL2162@LoadProper
  00c79	80 75 a8 ed	 xor	 BYTE PTR _szEncAttack$536792[ebp+16], -19 ; ffffffedH
  00c7d	57		 push	 edi
  00c7e	8d 86 ec 01 00
	00		 lea	 eax, DWORD PTR [esi+492]
  00c84	50		 push	 eax
  00c85	8d 45 98	 lea	 eax, DWORD PTR _szEncAttack$536792[ebp]
  00c88	50		 push	 eax
  00c89	e8 00 00 00 00	 call	 ?LoadAttackAttribute@@YAXPBDAAUAttackAttribute@@AAVioINILoader@@@Z ; LoadAttackAttribute
  00c8e	83 c4 0c	 add	 esp, 12			; 0000000cH

; 141  : 
; 142  : 	m_ExtendJumpAttack.Init();

  00c91	8d 8e 3c 02 00
	00		 lea	 ecx, DWORD PTR [esi+572]
  00c97	e8 00 00 00 00	 call	 ?Init@AttackAttribute@@QAEXXZ ; AttackAttribute::Init
  00c9c	6a 04		 push	 4

; 143  : 	LoadAttackAttribute_e( "extend_jump_attack", m_ExtendJumpAttack, rkLoader );

  00c9e	c7 85 50 ff ff
	ff 88 94 9f 8f	 mov	 DWORD PTR _szEncAttack$536917[ebp], -1885367160 ; 8f9f9488H
  00ca8	c7 85 54 ff ff
	ff 83 88 b4 80	 mov	 DWORD PTR _szEncAttack$536917[ebp+4], -2135652221 ; 80b48883H
  00cb2	c7 85 58 ff ff
	ff 98 81 9b b5	 mov	 DWORD PTR _szEncAttack$536917[ebp+8], -1248099944 ; b59b8198H
  00cbc	c7 85 5c ff ff
	ff 8c 98 9f 8b	 mov	 DWORD PTR _szEncAttack$536917[ebp+12], -1952474996 ; 8b9f988cH
  00cc6	66 c7 85 60 ff
	ff ff 8e 87	 mov	 WORD PTR _szEncAttack$536917[ebp+16], 34702 ; 0000878eH
  00ccf	8d 85 50 ff ff
	ff		 lea	 eax, DWORD PTR _szEncAttack$536917[ebp]
  00cd5	88 9d 62 ff ff
	ff		 mov	 BYTE PTR _szEncAttack$536917[ebp+18], bl
  00cdb	59		 pop	 ecx
$LL2268@LoadProper:
  00cdc	81 30 ed ec eb
	ea		 xor	 DWORD PTR [eax], -353637139 ; eaebecedH
  00ce2	83 c0 04	 add	 eax, 4
  00ce5	49		 dec	 ecx
  00ce6	75 f4		 jne	 SHORT $LL2268@LoadProper
  00ce8	6a 10		 push	 16			; 00000010H
  00cea	58		 pop	 eax
$LL2265@LoadProper:
  00ceb	8b c8		 mov	 ecx, eax
  00ced	81 e1 03 00 00
	80		 and	 ecx, -2147483645	; 80000003H
  00cf3	79 05		 jns	 SHORT $LN3255@LoadProper
  00cf5	49		 dec	 ecx
  00cf6	83 c9 fc	 or	 ecx, -4			; fffffffcH
  00cf9	41		 inc	 ecx
$LN3255@LoadProper:
  00cfa	b2 ed		 mov	 dl, -19			; ffffffedH
  00cfc	2a d1		 sub	 dl, cl
  00cfe	30 94 05 50 ff
	ff ff		 xor	 BYTE PTR _szEncAttack$536917[ebp+eax], dl
  00d05	40		 inc	 eax
  00d06	83 f8 12	 cmp	 eax, 18			; 00000012H
  00d09	7c e0		 jl	 SHORT $LL2265@LoadProper
  00d0b	57		 push	 edi
  00d0c	8d 86 3c 02 00
	00		 lea	 eax, DWORD PTR [esi+572]
  00d12	50		 push	 eax
  00d13	8d 85 50 ff ff
	ff		 lea	 eax, DWORD PTR _szEncAttack$536917[ebp]
  00d19	50		 push	 eax
  00d1a	e8 00 00 00 00	 call	 ?LoadAttackAttribute@@YAXPBDAAUAttackAttribute@@AAVioINILoader@@@Z ; LoadAttackAttribute
  00d1f	83 c4 0c	 add	 esp, 12			; 0000000cH
  00d22	6a 05		 push	 5

; 144  : 
; 145  : 	// etc
; 146  : 	m_bUseNewJumpTypeFlash = rkLoader.LoadBool_e( "use_new_jump_type_flash", false );

  00d24	c7 85 64 fe ff
	ff 98 9f 8e b5	 mov	 DWORD PTR __k$537042[ebp], -1248944232 ; b58e9f98H
  00d2e	c7 85 68 fe ff
	ff 83 89 9c b5	 mov	 DWORD PTR __k$537042[ebp+4], -1248032381 ; b59c8983H
  00d38	c7 85 6c fe ff
	ff 87 99 86 9a	 mov	 DWORD PTR __k$537042[ebp+8], -1702454905 ; 9a869987H
  00d42	c7 85 70 fe ff
	ff b2 98 92 9a	 mov	 DWORD PTR __k$537042[ebp+12], -1701668686 ; 9a9298b2H
  00d4c	c7 85 74 fe ff
	ff 88 b3 8d 86	 mov	 DWORD PTR __k$537042[ebp+16], -2037533816 ; 868db388H
  00d56	8d 85 64 fe ff
	ff		 lea	 eax, DWORD PTR __k$537042[ebp]
  00d5c	c7 85 78 fe ff
	ff 8c 9f 83 00	 mov	 DWORD PTR __k$537042[ebp+20], 8626060 ; 00839f8cH
  00d66	59		 pop	 ecx
$LL2374@LoadProper:
  00d67	81 30 ed ec eb
	ea		 xor	 DWORD PTR [eax], -353637139 ; eaebecedH
  00d6d	83 c0 04	 add	 eax, 4
  00d70	49		 dec	 ecx
  00d71	75 f4		 jne	 SHORT $LL2374@LoadProper
  00d73	6a 14		 push	 20			; 00000014H
  00d75	58		 pop	 eax
$LL2371@LoadProper:
  00d76	8b c8		 mov	 ecx, eax
  00d78	81 e1 03 00 00
	80		 and	 ecx, -2147483645	; 80000003H
  00d7e	79 05		 jns	 SHORT $LN3256@LoadProper
  00d80	49		 dec	 ecx
  00d81	83 c9 fc	 or	 ecx, -4			; fffffffcH
  00d84	41		 inc	 ecx
$LN3256@LoadProper:
  00d85	b2 ed		 mov	 dl, -19			; ffffffedH
  00d87	2a d1		 sub	 dl, cl
  00d89	30 94 05 64 fe
	ff ff		 xor	 BYTE PTR __k$537042[ebp+eax], dl
  00d90	40		 inc	 eax
  00d91	83 f8 17	 cmp	 eax, 23			; 00000017H
  00d94	7c e0		 jl	 SHORT $LL2371@LoadProper
  00d96	53		 push	 ebx
  00d97	8d 85 64 fe ff
	ff		 lea	 eax, DWORD PTR __k$537042[ebp]
  00d9d	50		 push	 eax
  00d9e	8b cf		 mov	 ecx, edi
  00da0	ff 15 00 00 00
	00		 call	 DWORD PTR __imp_?LoadBool@ioINILoader@@QAE_NPBD_N@Z
  00da6	88 86 46 03 00
	00		 mov	 BYTE PTR [esi+838], al
  00dac	6a 04		 push	 4

; 147  : 
; 148  : 	// dash
; 149  : 	m_bEnableJumpDash = rkLoader.LoadBool_e( "enable_jump_dash", false );

  00dae	c7 85 20 ff ff
	ff 88 82 8a 88	 mov	 DWORD PTR __k$537167[ebp], -2004188536 ; 888a8288H
  00db8	c7 85 24 ff ff
	ff 81 89 b4 80	 mov	 DWORD PTR __k$537167[ebp+4], -2135651967 ; 80b48981H
  00dc2	c7 85 28 ff ff
	ff 98 81 9b b5	 mov	 DWORD PTR __k$537167[ebp+8], -1248099944 ; b59b8198H
  00dcc	c7 85 2c ff ff
	ff 89 8d 98 82	 mov	 DWORD PTR __k$537167[ebp+12], -2103931511 ; 82988d89H
  00dd6	8d 85 20 ff ff
	ff		 lea	 eax, DWORD PTR __k$537167[ebp]
  00ddc	88 9d 30 ff ff
	ff		 mov	 BYTE PTR __k$537167[ebp+16], bl
  00de2	59		 pop	 ecx
$LL2480@LoadProper:
  00de3	81 30 ed ec eb
	ea		 xor	 DWORD PTR [eax], -353637139 ; eaebecedH
  00de9	83 c0 04	 add	 eax, 4
  00dec	49		 dec	 ecx
  00ded	75 f4		 jne	 SHORT $LL2480@LoadProper
  00def	53		 push	 ebx
  00df0	8d 85 20 ff ff
	ff		 lea	 eax, DWORD PTR __k$537167[ebp]
  00df6	50		 push	 eax
  00df7	8b cf		 mov	 ecx, edi
  00df9	ff 15 00 00 00
	00		 call	 DWORD PTR __imp_?LoadBool@ioINILoader@@QAE_NPBD_N@Z
  00dff	88 86 cc 02 00
	00		 mov	 BYTE PTR [esi+716], al
  00e05	6a 03		 push	 3

; 150  : 	m_DashType = (LocalDashType)rkLoader.LoadInt_e( "jump_dash_type", LDT_GRAVITY );

  00e07	c7 45 dc 87 99
	86 9a		 mov	 DWORD PTR __k$537292[ebp], -1702454905 ; 9a869987H
  00e0e	c7 45 e0 b2 88
	8a 99		 mov	 DWORD PTR __k$537292[ebp+4], -1718974286 ; 998a88b2H
  00e15	c7 45 e4 85 b3
	9f 93		 mov	 DWORD PTR __k$537292[ebp+8], -1818250363 ; 939fb385H
  00e1c	66 c7 45 e8 9d
	89		 mov	 WORD PTR __k$537292[ebp+12], 35229 ; 0000899dH
  00e22	8d 45 dc	 lea	 eax, DWORD PTR __k$537292[ebp]
  00e25	88 5d ea	 mov	 BYTE PTR __k$537292[ebp+14], bl
  00e28	59		 pop	 ecx
$LL2586@LoadProper:
  00e29	81 30 ed ec eb
	ea		 xor	 DWORD PTR [eax], -353637139 ; eaebecedH
  00e2f	83 c0 04	 add	 eax, 4
  00e32	49		 dec	 ecx
  00e33	75 f4		 jne	 SHORT $LL2586@LoadProper
  00e35	6a 0c		 push	 12			; 0000000cH
  00e37	58		 pop	 eax
$LL2583@LoadProper:
  00e38	8b c8		 mov	 ecx, eax
  00e3a	81 e1 03 00 00
	80		 and	 ecx, -2147483645	; 80000003H
  00e40	79 05		 jns	 SHORT $LN3257@LoadProper
  00e42	49		 dec	 ecx
  00e43	83 c9 fc	 or	 ecx, -4			; fffffffcH
  00e46	41		 inc	 ecx
$LN3257@LoadProper:
  00e47	b2 ed		 mov	 dl, -19			; ffffffedH
  00e49	2a d1		 sub	 dl, cl
  00e4b	30 54 05 dc	 xor	 BYTE PTR __k$537292[ebp+eax], dl
  00e4f	40		 inc	 eax
  00e50	83 f8 0e	 cmp	 eax, 14			; 0000000eH
  00e53	7c e3		 jl	 SHORT $LL2583@LoadProper
  00e55	6a 01		 push	 1
  00e57	8d 45 dc	 lea	 eax, DWORD PTR __k$537292[ebp]
  00e5a	50		 push	 eax
  00e5b	8b cf		 mov	 ecx, edi
  00e5d	ff 15 00 00 00
	00		 call	 DWORD PTR __imp_?LoadInt@ioINILoader@@QAEHPBDH@Z

; 151  : 
; 152  : 	m_DashJumpAttack.Init();

  00e63	8d 8e d4 02 00
	00		 lea	 ecx, DWORD PTR [esi+724]
  00e69	89 86 d0 02 00
	00		 mov	 DWORD PTR [esi+720], eax
  00e6f	e8 00 00 00 00	 call	 ?Init@AttackAttribute@@QAEXXZ ; AttackAttribute::Init
  00e74	6a 04		 push	 4

; 153  : 	LoadAttackAttribute_e( "dash_jump_attack", m_DashJumpAttack, rkLoader );

  00e76	c7 85 08 ff ff
	ff 89 8d 98 82	 mov	 DWORD PTR _szEncAttack$537483[ebp], -2103931511 ; 82988d89H
  00e80	c7 85 0c ff ff
	ff b2 86 9e 87	 mov	 DWORD PTR _szEncAttack$537483[ebp+4], -2019653966 ; 879e86b2H
  00e8a	c7 85 10 ff ff
	ff 9d b3 8a 9e	 mov	 DWORD PTR _szEncAttack$537483[ebp+8], -1635077219 ; 9e8ab39dH
  00e94	c7 85 14 ff ff
	ff 99 8d 88 81	 mov	 DWORD PTR _szEncAttack$537483[ebp+12], -2121757287 ; 81888d99H
  00e9e	8d 85 08 ff ff
	ff		 lea	 eax, DWORD PTR _szEncAttack$537483[ebp]
  00ea4	88 9d 18 ff ff
	ff		 mov	 BYTE PTR _szEncAttack$537483[ebp+16], bl
  00eaa	59		 pop	 ecx
$LL2692@LoadProper:
  00eab	81 30 ed ec eb
	ea		 xor	 DWORD PTR [eax], -353637139 ; eaebecedH
  00eb1	83 c0 04	 add	 eax, 4
  00eb4	49		 dec	 ecx
  00eb5	75 f4		 jne	 SHORT $LL2692@LoadProper
  00eb7	57		 push	 edi
  00eb8	8d 86 d4 02 00
	00		 lea	 eax, DWORD PTR [esi+724]
  00ebe	50		 push	 eax
  00ebf	8d 85 08 ff ff
	ff		 lea	 eax, DWORD PTR _szEncAttack$537483[ebp]
  00ec5	50		 push	 eax
  00ec6	e8 00 00 00 00	 call	 ?LoadAttackAttribute@@YAXPBDAAUAttackAttribute@@AAVioINILoader@@@Z ; LoadAttackAttribute
  00ecb	83 c4 0c	 add	 esp, 12			; 0000000cH
  00ece	6a 04		 push	 4

; 154  : 
; 155  : 	rkLoader.LoadString_e( "jump_dash_land_ani", "", szBuf, MAX_PATH );

  00ed0	c7 85 38 ff ff
	ff 87 99 86 9a	 mov	 DWORD PTR __k$537529[ebp], -1702454905 ; 9a869987H
  00eda	c7 85 3c ff ff
	ff b2 88 8a 99	 mov	 DWORD PTR __k$537529[ebp+4], -1718974286 ; 998a88b2H
  00ee4	c7 85 40 ff ff
	ff 85 b3 87 8b	 mov	 DWORD PTR __k$537529[ebp+8], -1954040955 ; 8b87b385H
  00eee	c7 85 44 ff ff
	ff 83 88 b4 8b	 mov	 DWORD PTR __k$537529[ebp+12], -1951102845 ; 8bb48883H
  00ef8	66 c7 85 48 ff
	ff ff 83 85	 mov	 WORD PTR __k$537529[ebp+16], 34179 ; 00008583H
  00f01	8d 85 38 ff ff
	ff		 lea	 eax, DWORD PTR __k$537529[ebp]
  00f07	88 9d 4a ff ff
	ff		 mov	 BYTE PTR __k$537529[ebp+18], bl
  00f0d	59		 pop	 ecx
$LL2798@LoadProper:
  00f0e	81 30 ed ec eb
	ea		 xor	 DWORD PTR [eax], -353637139 ; eaebecedH
  00f14	83 c0 04	 add	 eax, 4
  00f17	49		 dec	 ecx
  00f18	75 f4		 jne	 SHORT $LL2798@LoadProper
  00f1a	6a 10		 push	 16			; 00000010H
  00f1c	58		 pop	 eax
$LL2795@LoadProper:
  00f1d	8b c8		 mov	 ecx, eax
  00f1f	81 e1 03 00 00
	80		 and	 ecx, -2147483645	; 80000003H
  00f25	79 05		 jns	 SHORT $LN3258@LoadProper
  00f27	49		 dec	 ecx
  00f28	83 c9 fc	 or	 ecx, -4			; fffffffcH
  00f2b	41		 inc	 ecx
$LN3258@LoadProper:
  00f2c	b2 ed		 mov	 dl, -19			; ffffffedH
  00f2e	2a d1		 sub	 dl, cl
  00f30	30 94 05 38 ff
	ff ff		 xor	 BYTE PTR __k$537529[ebp+eax], dl
  00f37	40		 inc	 eax
  00f38	83 f8 12	 cmp	 eax, 18			; 00000012H
  00f3b	7c e0		 jl	 SHORT $LL2795@LoadProper
  00f3d	68 04 01 00 00	 push	 260			; 00000104H
  00f42	8d 85 c4 fb ff
	ff		 lea	 eax, DWORD PTR _szBuf$[ebp]
  00f48	50		 push	 eax
  00f49	68 00 00 00 00	 push	 OFFSET ??_C@_00CNPNBAHC@?$AA@
  00f4e	8d 85 38 ff ff
	ff		 lea	 eax, DWORD PTR __k$537529[ebp]
  00f54	50		 push	 eax
  00f55	8b cf		 mov	 ecx, edi
  00f57	ff 15 00 00 00
	00		 call	 DWORD PTR __imp_?LoadStringA@ioINILoader@@QAEXPBD0PADH@Z

; 156  : 	m_DashLandAni = szBuf;

  00f5d	8d 85 c4 fb ff
	ff		 lea	 eax, DWORD PTR _szBuf$[ebp]
  00f63	50		 push	 eax
  00f64	8d 8e 30 03 00
	00		 lea	 ecx, DWORD PTR [esi+816]
  00f6a	ff 15 00 00 00
	00		 call	 DWORD PTR __imp_??4ioHashString@@QAEAAV0@PBD@Z

; 157  : 	m_fDashLandAniRate = rkLoader.LoadFloat_e( "jump_dash_land_ani_rate", FLOAT1 );

  00f70	b8 01 00 00 00	 mov	 eax, 1
  00f75	6a 05		 push	 5
  00f77	c7 85 80 fe ff
	ff 87 99 86 9a	 mov	 DWORD PTR __k$537671[ebp], -1702454905 ; 9a869987H
  00f81	c7 85 84 fe ff
	ff b2 88 8a 99	 mov	 DWORD PTR __k$537671[ebp+4], -1718974286 ; 998a88b2H
  00f8b	c7 85 88 fe ff
	ff 85 b3 87 8b	 mov	 DWORD PTR __k$537671[ebp+8], -1954040955 ; 8b87b385H
  00f95	c7 85 8c fe ff
	ff 83 88 b4 8b	 mov	 DWORD PTR __k$537671[ebp+12], -1951102845 ; 8bb48883H
  00f9f	c7 85 90 fe ff
	ff 83 85 b4 98	 mov	 DWORD PTR __k$537671[ebp+16], -1732999805 ; 98b48583H
  00fa9	8d 8d 80 fe ff
	ff		 lea	 ecx, DWORD PTR __k$537671[ebp]
  00faf	c7 85 94 fe ff
	ff 8c 98 8e 00	 mov	 DWORD PTR __k$537671[ebp+20], 9345164 ; 008e988cH
  00fb9	5a		 pop	 edx
$LL2906@LoadProper:
  00fba	81 31 ed ec eb
	ea		 xor	 DWORD PTR [ecx], -353637139 ; eaebecedH
  00fc0	83 c1 04	 add	 ecx, 4
  00fc3	4a		 dec	 edx
  00fc4	75 f4		 jne	 SHORT $LL2906@LoadProper
  00fc6	c7 85 c0 fb ff
	ff 14 00 00 00	 mov	 DWORD PTR _i$537661[ebp], 20 ; 00000014H
$LL2903@LoadProper:
  00fd0	8b 8d c0 fb ff
	ff		 mov	 ecx, DWORD PTR _i$537661[ebp]
  00fd6	81 e1 03 00 00
	80		 and	 ecx, -2147483645	; 80000003H
  00fdc	79 05		 jns	 SHORT $LN3259@LoadProper
  00fde	49		 dec	 ecx
  00fdf	83 c9 fc	 or	 ecx, -4			; fffffffcH
  00fe2	41		 inc	 ecx
$LN3259@LoadProper:
  00fe3	b2 ed		 mov	 dl, -19			; ffffffedH
  00fe5	2a d1		 sub	 dl, cl
  00fe7	8b 8d c0 fb ff
	ff		 mov	 ecx, DWORD PTR _i$537661[ebp]
  00fed	30 94 0d 80 fe
	ff ff		 xor	 BYTE PTR __k$537671[ebp+ecx], dl
  00ff4	ff 85 c0 fb ff
	ff		 inc	 DWORD PTR _i$537661[ebp]
  00ffa	83 bd c0 fb ff
	ff 17		 cmp	 DWORD PTR _i$537661[ebp], 23 ; 00000017H
  01001	7c cd		 jl	 SHORT $LL2903@LoadProper
  01003	89 85 c0 fb ff
	ff		 mov	 DWORD PTR tv27848[ebp], eax
  01009	db 85 c0 fb ff
	ff		 fild	 DWORD PTR tv27848[ebp]
  0100f	85 c0		 test	 eax, eax
  01011	79 06		 jns	 SHORT $LN3260@LoadProper
  01013	d8 05 00 00 00
	00		 fadd	 DWORD PTR __real@4f800000
$LN3260@LoadProper:
  01019	51		 push	 ecx
  0101a	8d 85 80 fe ff
	ff		 lea	 eax, DWORD PTR __k$537671[ebp]
  01020	d9 1c 24	 fstp	 DWORD PTR [esp]
  01023	50		 push	 eax
  01024	8b cf		 mov	 ecx, edi
  01026	ff 15 00 00 00
	00		 call	 DWORD PTR __imp_?LoadFloat@ioINILoader@@QAEMPBDM@Z
  0102c	d9 9e 40 03 00
	00		 fstp	 DWORD PTR [esi+832]
  01032	6a 05		 push	 5

; 158  : 
; 159  : 	m_fDashGravityAmt = rkLoader.LoadFloat_e( "jump_dash_gravity_amt", 0.0f );

  01034	c7 85 d4 fe ff
	ff 87 99 86 9a	 mov	 DWORD PTR __k$537796[ebp], -1702454905 ; 9a869987H
  0103e	c7 85 d8 fe ff
	ff b2 88 8a 99	 mov	 DWORD PTR __k$537796[ebp+4], -1718974286 ; 998a88b2H
  01048	c7 85 dc fe ff
	ff 85 b3 8c 98	 mov	 DWORD PTR __k$537796[ebp+8], -1735609467 ; 988cb385H
  01052	c7 85 e0 fe ff
	ff 8c 9a 82 9e	 mov	 DWORD PTR __k$537796[ebp+12], -1635607924 ; 9e829a8cH
  0105c	c7 85 e4 fe ff
	ff 94 b3 8a 87	 mov	 DWORD PTR __k$537796[ebp+16], -2020953196 ; 878ab394H
  01066	8d 85 d4 fe ff
	ff		 lea	 eax, DWORD PTR __k$537796[ebp]
  0106c	66 c7 85 e8 fe
	ff ff 99 00	 mov	 WORD PTR __k$537796[ebp+20], 153 ; 00000099H
  01075	59		 pop	 ecx
$LL3012@LoadProper:
  01076	81 30 ed ec eb
	ea		 xor	 DWORD PTR [eax], -353637139 ; eaebecedH
  0107c	83 c0 04	 add	 eax, 4
  0107f	49		 dec	 ecx
  01080	75 f4		 jne	 SHORT $LL3012@LoadProper
  01082	0f 57 c0	 xorps	 xmm0, xmm0
  01085	80 b5 e8 fe ff
	ff ed		 xor	 BYTE PTR __k$537796[ebp+20], -19 ; ffffffedH
  0108c	51		 push	 ecx
  0108d	8d 85 d4 fe ff
	ff		 lea	 eax, DWORD PTR __k$537796[ebp]
  01093	f3 0f 11 04 24	 movss	 DWORD PTR [esp], xmm0
  01098	50		 push	 eax
  01099	8b cf		 mov	 ecx, edi
  0109b	ff 15 00 00 00
	00		 call	 DWORD PTR __imp_?LoadFloat@ioINILoader@@QAEMPBDM@Z
  010a1	d9 9e 24 03 00
	00		 fstp	 DWORD PTR [esi+804]
  010a7	6a 05		 push	 5

; 160  : 
; 161  : 	m_bUseNewJumpTypeDash = rkLoader.LoadBool_e( "use_new_jump_type_dash", false );

  010a9	c7 85 9c fe ff
	ff 98 9f 8e b5	 mov	 DWORD PTR __k$537921[ebp], -1248944232 ; b58e9f98H
  010b3	c7 85 a0 fe ff
	ff 83 89 9c b5	 mov	 DWORD PTR __k$537921[ebp+4], -1248032381 ; b59c8983H
  010bd	c7 85 a4 fe ff
	ff 87 99 86 9a	 mov	 DWORD PTR __k$537921[ebp+8], -1702454905 ; 9a869987H
  010c7	c7 85 a8 fe ff
	ff b2 98 92 9a	 mov	 DWORD PTR __k$537921[ebp+12], -1701668686 ; 9a9298b2H
  010d1	c7 85 ac fe ff
	ff 88 b3 8f 8b	 mov	 DWORD PTR __k$537921[ebp+16], -1953516664 ; 8b8fb388H
  010db	66 c7 85 b0 fe
	ff ff 9e 84	 mov	 WORD PTR __k$537921[ebp+20], 33950 ; 0000849eH
  010e4	8d 85 9c fe ff
	ff		 lea	 eax, DWORD PTR __k$537921[ebp]
  010ea	88 9d b2 fe ff
	ff		 mov	 BYTE PTR __k$537921[ebp+22], bl
  010f0	59		 pop	 ecx
$LL3118@LoadProper:
  010f1	81 30 ed ec eb
	ea		 xor	 DWORD PTR [eax], -353637139 ; eaebecedH
  010f7	83 c0 04	 add	 eax, 4
  010fa	49		 dec	 ecx
  010fb	75 f4		 jne	 SHORT $LL3118@LoadProper
  010fd	6a 14		 push	 20			; 00000014H
  010ff	58		 pop	 eax
$LL3115@LoadProper:
  01100	8b c8		 mov	 ecx, eax
  01102	81 e1 03 00 00
	80		 and	 ecx, -2147483645	; 80000003H
  01108	79 05		 jns	 SHORT $LN3261@LoadProper
  0110a	49		 dec	 ecx
  0110b	83 c9 fc	 or	 ecx, -4			; fffffffcH
  0110e	41		 inc	 ecx
$LN3261@LoadProper:
  0110f	b2 ed		 mov	 dl, -19			; ffffffedH
  01111	2a d1		 sub	 dl, cl
  01113	30 94 05 9c fe
	ff ff		 xor	 BYTE PTR __k$537921[ebp+eax], dl
  0111a	40		 inc	 eax
  0111b	83 f8 16	 cmp	 eax, 22			; 00000016H
  0111e	7c e0		 jl	 SHORT $LL3115@LoadProper
  01120	53		 push	 ebx
  01121	8d 85 9c fe ff
	ff		 lea	 eax, DWORD PTR __k$537921[ebp]
  01127	50		 push	 eax
  01128	8b cf		 mov	 ecx, edi
  0112a	ff 15 00 00 00
	00		 call	 DWORD PTR __imp_?LoadBool@ioINILoader@@QAE_NPBD_N@Z
  01130	88 86 45 03 00
	00		 mov	 BYTE PTR [esi+837], al

; 162  : }

  01136	e8 00 00 00 00	 call	 __EH_epilog3_GS
  0113b	c2 04 00	 ret	 4
_TEXT	ENDS
;	COMDAT text$x
text$x	SEGMENT
__unwindfunclet$?LoadProperty@ioChargeFlashJump@@UAEXAAVioINILoader@@@Z$0:
  00000	8d 8d 74 fb ff
	ff		 lea	 ecx, DWORD PTR $T534262[ebp]
  00006	ff 25 00 00 00
	00		 jmp	 DWORD PTR __imp_??1ioHashString@@QAE@XZ
__unwindfunclet$?LoadProperty@ioChargeFlashJump@@UAEXAAVioINILoader@@@Z$1:
  0000c	8d 8d a4 fb ff
	ff		 lea	 ecx, DWORD PTR $T534263[ebp]
  00012	ff 25 00 00 00
	00		 jmp	 DWORD PTR __imp_??1ioHashString@@QAE@XZ
__unwindfunclet$?LoadProperty@ioChargeFlashJump@@UAEXAAVioINILoader@@@Z$2:
  00018	8d 8d 94 fb ff
	ff		 lea	 ecx, DWORD PTR $T534264[ebp]
  0001e	ff 25 00 00 00
	00		 jmp	 DWORD PTR __imp_??1ioHashString@@QAE@XZ
__unwindfunclet$?LoadProperty@ioChargeFlashJump@@UAEXAAVioINILoader@@@Z$3:
  00024	8d 8d 84 fb ff
	ff		 lea	 ecx, DWORD PTR $T534265[ebp]
  0002a	ff 25 00 00 00
	00		 jmp	 DWORD PTR __imp_??1ioHashString@@QAE@XZ
__ehhandler$?LoadProperty@ioChargeFlashJump@@UAEXAAVioINILoader@@@Z:
  00030	8b 54 24 08	 mov	 edx, DWORD PTR [esp+8]
  00034	8d 42 0c	 lea	 eax, DWORD PTR [edx+12]
  00037	8b 8a 70 fb ff
	ff		 mov	 ecx, DWORD PTR [edx-1168]
  0003d	33 c8		 xor	 ecx, eax
  0003f	e8 00 00 00 00	 call	 @__security_check_cookie@4
  00044	8b 4a fc	 mov	 ecx, DWORD PTR [edx-4]
  00047	33 c8		 xor	 ecx, eax
  00049	e8 00 00 00 00	 call	 @__security_check_cookie@4
  0004e	b8 00 00 00 00	 mov	 eax, OFFSET __ehfuncinfo$?LoadProperty@ioChargeFlashJump@@UAEXAAVioINILoader@@@Z
  00053	e9 00 00 00 00	 jmp	 ___CxxFrameHandler3
text$x	ENDS
?LoadProperty@ioChargeFlashJump@@UAEXAAVioINILoader@@@Z ENDP ; ioChargeFlashJump::LoadProperty
PUBLIC	??0AttackAttribute@@QAE@XZ			; AttackAttribute::AttackAttribute
EXTRN	__imp_??0ioHashString@@QAE@XZ:PROC
;	COMDAT xdata$x
; File c:\program files (x86)\microsoft visual studio 10.0\vc\include\xmemory
xdata$x	SEGMENT
__unwindtable$??0AttackAttribute@@QAE@XZ DD 0ffffffffH
	DD	FLAT:__unwindfunclet$??0AttackAttribute@@QAE@XZ$0
	DD	00H
	DD	FLAT:__unwindfunclet$??0AttackAttribute@@QAE@XZ$1
	DD	01H
	DD	FLAT:__unwindfunclet$??0AttackAttribute@@QAE@XZ$2
	DD	02H
	DD	FLAT:__unwindfunclet$??0AttackAttribute@@QAE@XZ$3
__ehfuncinfo$??0AttackAttribute@@QAE@XZ DD 019930522H
	DD	04H
	DD	FLAT:__unwindtable$??0AttackAttribute@@QAE@XZ
	DD	2 DUP(00H)
	DD	2 DUP(00H)
	DD	00H
	DD	01H
; Function compile flags: /Ogsp
; File d:\lost saga for developer\youtube\tutorial\source\src\lsclient\ioattackattribute.h
xdata$x	ENDS
;	COMDAT ??0AttackAttribute@@QAE@XZ
_TEXT	SEGMENT
_this$ = -16						; size = 4
__$EHRec$ = -12						; size = 12
??0AttackAttribute@@QAE@XZ PROC				; AttackAttribute::AttackAttribute, COMDAT
; _this$ = ecx

; 107  : 	AttackAttribute()

  00000	6a 04		 push	 4
  00002	b8 00 00 00 00	 mov	 eax, __ehhandler$??0AttackAttribute@@QAE@XZ
  00007	e8 00 00 00 00	 call	 __EH_prolog3
  0000c	8b f1		 mov	 esi, ecx
  0000e	89 75 f0	 mov	 DWORD PTR _this$[ebp], esi
  00011	8b 3d 00 00 00
	00		 mov	 edi, DWORD PTR __imp_??0ioHashString@@QAE@XZ
  00017	ff d7		 call	 edi
  00019	33 db		 xor	 ebx, ebx
  0001b	8d 4e 14	 lea	 ecx, DWORD PTR [esi+20]
  0001e	89 5d fc	 mov	 DWORD PTR __$EHRec$[ebp+8], ebx
  00021	ff d7		 call	 edi
  00023	89 5e 28	 mov	 DWORD PTR [esi+40], ebx
  00026	89 5e 2c	 mov	 DWORD PTR [esi+44], ebx
  00029	89 5e 30	 mov	 DWORD PTR [esi+48], ebx
  0002c	89 5e 38	 mov	 DWORD PTR [esi+56], ebx
  0002f	89 5e 3c	 mov	 DWORD PTR [esi+60], ebx
  00032	89 5e 40	 mov	 DWORD PTR [esi+64], ebx

; 108  : 	{
; 109  : 		Init();

  00035	8b ce		 mov	 ecx, esi
  00037	c6 45 fc 03	 mov	 BYTE PTR __$EHRec$[ebp+8], 3
  0003b	e8 00 00 00 00	 call	 ?Init@AttackAttribute@@QAEXXZ ; AttackAttribute::Init

; 110  : 	}

  00040	8b c6		 mov	 eax, esi
  00042	e8 00 00 00 00	 call	 __EH_epilog3
  00047	c3		 ret	 0
_TEXT	ENDS
;	COMDAT text$x
text$x	SEGMENT
__unwindfunclet$??0AttackAttribute@@QAE@XZ$0:
  00000	8b 4d f0	 mov	 ecx, DWORD PTR _this$[ebp]
  00003	ff 25 00 00 00
	00		 jmp	 DWORD PTR __imp_??1ioHashString@@QAE@XZ
__unwindfunclet$??0AttackAttribute@@QAE@XZ$1:
  00009	8b 4d f0	 mov	 ecx, DWORD PTR _this$[ebp]
  0000c	83 c1 14	 add	 ecx, 20			; 00000014H
  0000f	ff 25 00 00 00
	00		 jmp	 DWORD PTR __imp_??1ioHashString@@QAE@XZ
__unwindfunclet$??0AttackAttribute@@QAE@XZ$2:
  00015	8b 4d f0	 mov	 ecx, DWORD PTR _this$[ebp]
  00018	83 c1 28	 add	 ecx, 40			; 00000028H
  0001b	e9 00 00 00 00	 jmp	 ??1?$vector@UWeaponInfo@@V?$allocator@UWeaponInfo@@@std@@@std@@QAE@XZ ; std::vector<WeaponInfo,std::allocator<WeaponInfo> >::~vector<WeaponInfo,std::allocator<WeaponInfo> >
__unwindfunclet$??0AttackAttribute@@QAE@XZ$3:
  00020	8b 4d f0	 mov	 ecx, DWORD PTR _this$[ebp]
  00023	83 c1 38	 add	 ecx, 56			; 00000038H
  00026	e9 00 00 00 00	 jmp	 ??1?$vector@UForceInfo@@V?$allocator@UForceInfo@@@std@@@std@@QAE@XZ ; std::vector<ForceInfo,std::allocator<ForceInfo> >::~vector<ForceInfo,std::allocator<ForceInfo> >
__ehhandler$??0AttackAttribute@@QAE@XZ:
  0002b	8b 54 24 08	 mov	 edx, DWORD PTR [esp+8]
  0002f	8d 42 0c	 lea	 eax, DWORD PTR [edx+12]
  00032	8b 4a ec	 mov	 ecx, DWORD PTR [edx-20]
  00035	33 c8		 xor	 ecx, eax
  00037	e8 00 00 00 00	 call	 @__security_check_cookie@4
  0003c	b8 00 00 00 00	 mov	 eax, OFFSET __ehfuncinfo$??0AttackAttribute@@QAE@XZ
  00041	e9 00 00 00 00	 jmp	 ___CxxFrameHandler3
text$x	ENDS
??0AttackAttribute@@QAE@XZ ENDP				; AttackAttribute::AttackAttribute
PUBLIC	??1AttackAttribute@@QAE@XZ			; AttackAttribute::~AttackAttribute
;	COMDAT xdata$x
xdata$x	SEGMENT
__unwindtable$??1AttackAttribute@@QAE@XZ DD 0ffffffffH
	DD	FLAT:__unwindfunclet$??1AttackAttribute@@QAE@XZ$0
	DD	00H
	DD	FLAT:__unwindfunclet$??1AttackAttribute@@QAE@XZ$1
	DD	01H
	DD	FLAT:__unwindfunclet$??1AttackAttribute@@QAE@XZ$2
__ehfuncinfo$??1AttackAttribute@@QAE@XZ DD 019930522H
	DD	03H
	DD	FLAT:__unwindtable$??1AttackAttribute@@QAE@XZ
	DD	2 DUP(00H)
	DD	2 DUP(00H)
	DD	00H
	DD	01H
; Function compile flags: /Ogsp
xdata$x	ENDS
;	COMDAT ??1AttackAttribute@@QAE@XZ
_TEXT	SEGMENT
_this$ = -16						; size = 4
__$EHRec$ = -12						; size = 12
??1AttackAttribute@@QAE@XZ PROC				; AttackAttribute::~AttackAttribute, COMDAT
; _this$ = ecx
  00000	6a 04		 push	 4
  00002	b8 00 00 00 00	 mov	 eax, __ehhandler$??1AttackAttribute@@QAE@XZ
  00007	e8 00 00 00 00	 call	 __EH_prolog3
  0000c	8b f1		 mov	 esi, ecx
  0000e	89 75 f0	 mov	 DWORD PTR _this$[ebp], esi
  00011	8d 4e 38	 lea	 ecx, DWORD PTR [esi+56]
  00014	c7 45 fc 02 00
	00 00		 mov	 DWORD PTR __$EHRec$[ebp+8], 2
  0001b	e8 00 00 00 00	 call	 ?_Tidy@?$vector@UForceInfo@@V?$allocator@UForceInfo@@@std@@@std@@IAEXXZ ; std::vector<ForceInfo,std::allocator<ForceInfo> >::_Tidy
  00020	8d 4e 28	 lea	 ecx, DWORD PTR [esi+40]
  00023	c6 45 fc 01	 mov	 BYTE PTR __$EHRec$[ebp+8], 1
  00027	e8 00 00 00 00	 call	 ?_Tidy@?$vector@UWeaponInfo@@V?$allocator@UWeaponInfo@@@std@@@std@@IAEXXZ ; std::vector<WeaponInfo,std::allocator<WeaponInfo> >::_Tidy
  0002c	8b 3d 00 00 00
	00		 mov	 edi, DWORD PTR __imp_??1ioHashString@@QAE@XZ
  00032	8d 4e 14	 lea	 ecx, DWORD PTR [esi+20]
  00035	c6 45 fc 00	 mov	 BYTE PTR __$EHRec$[ebp+8], 0
  00039	ff d7		 call	 edi
  0003b	83 4d fc ff	 or	 DWORD PTR __$EHRec$[ebp+8], -1
  0003f	8b ce		 mov	 ecx, esi
  00041	ff d7		 call	 edi
  00043	e8 00 00 00 00	 call	 __EH_epilog3
  00048	c3		 ret	 0
_TEXT	ENDS
;	COMDAT text$x
text$x	SEGMENT
__unwindfunclet$??1AttackAttribute@@QAE@XZ$0:
  00000	8b 4d f0	 mov	 ecx, DWORD PTR _this$[ebp]
  00003	ff 25 00 00 00
	00		 jmp	 DWORD PTR __imp_??1ioHashString@@QAE@XZ
__unwindfunclet$??1AttackAttribute@@QAE@XZ$1:
  00009	8b 4d f0	 mov	 ecx, DWORD PTR _this$[ebp]
  0000c	83 c1 14	 add	 ecx, 20			; 00000014H
  0000f	ff 25 00 00 00
	00		 jmp	 DWORD PTR __imp_??1ioHashString@@QAE@XZ
__unwindfunclet$??1AttackAttribute@@QAE@XZ$2:
  00015	8b 4d f0	 mov	 ecx, DWORD PTR _this$[ebp]
  00018	83 c1 28	 add	 ecx, 40			; 00000028H
  0001b	e9 00 00 00 00	 jmp	 ??1?$vector@UWeaponInfo@@V?$allocator@UWeaponInfo@@@std@@@std@@QAE@XZ ; std::vector<WeaponInfo,std::allocator<WeaponInfo> >::~vector<WeaponInfo,std::allocator<WeaponInfo> >
__ehhandler$??1AttackAttribute@@QAE@XZ:
  00020	8b 54 24 08	 mov	 edx, DWORD PTR [esp+8]
  00024	8d 42 0c	 lea	 eax, DWORD PTR [edx+12]
  00027	8b 4a ec	 mov	 ecx, DWORD PTR [edx-20]
  0002a	33 c8		 xor	 ecx, eax
  0002c	e8 00 00 00 00	 call	 @__security_check_cookie@4
  00031	b8 00 00 00 00	 mov	 eax, OFFSET __ehfuncinfo$??1AttackAttribute@@QAE@XZ
  00036	e9 00 00 00 00	 jmp	 ___CxxFrameHandler3
text$x	ENDS
??1AttackAttribute@@QAE@XZ ENDP				; AttackAttribute::~AttackAttribute
PUBLIC	??_7ioChargeFlashJump@@6B@			; ioChargeFlashJump::`vftable'
PUBLIC	??0ioChargeFlashJump@@QAE@XZ			; ioChargeFlashJump::ioChargeFlashJump
PUBLIC	??_R4ioChargeFlashJump@@6B@			; ioChargeFlashJump::`RTTI Complete Object Locator'
PUBLIC	??_R0?AVioChargeFlashJump@@@8			; ioChargeFlashJump `RTTI Type Descriptor'
PUBLIC	??_R3ioChargeFlashJump@@8			; ioChargeFlashJump::`RTTI Class Hierarchy Descriptor'
PUBLIC	??_R2ioChargeFlashJump@@8			; ioChargeFlashJump::`RTTI Base Class Array'
PUBLIC	??_R1A@?0A@EA@ioChargeFlashJump@@8		; ioChargeFlashJump::`RTTI Base Class Descriptor at (0,-1,0,64)'
PUBLIC	??_R1A@?0A@EA@ioExtendJump@@8			; ioExtendJump::`RTTI Base Class Descriptor at (0,-1,0,64)'
PUBLIC	??_R0?AVioExtendJump@@@8			; ioExtendJump `RTTI Type Descriptor'
PUBLIC	??_R3ioExtendJump@@8				; ioExtendJump::`RTTI Class Hierarchy Descriptor'
PUBLIC	??_R2ioExtendJump@@8				; ioExtendJump::`RTTI Base Class Array'
PUBLIC	?Clone@ioChargeFlashJump@@UAEPAVioExtendJump@@XZ ; ioChargeFlashJump::Clone
EXTRN	??1ioExtendJump@@UAE@XZ:PROC			; ioExtendJump::~ioExtendJump
EXTRN	??0ioExtendJump@@QAE@XZ:PROC			; ioExtendJump::ioExtendJump
EXTRN	?SetJumpState@ioExtendJump@@UAEXXZ:PROC		; ioExtendJump::SetJumpState
EXTRN	?ProcessJumpReady@ioExtendJump@@UAEXPAVioBaseChar@@@Z:PROC ; ioExtendJump::ProcessJumpReady
EXTRN	?SetJumpAttack@ioExtendJump@@UAEXPAVioBaseChar@@HM@Z:PROC ; ioExtendJump::SetJumpAttack
EXTRN	?ProcessLanding@ioExtendJump@@UAEXPAVioBaseChar@@@Z:PROC ; ioExtendJump::ProcessLanding
EXTRN	?ProcessAimJump@ioExtendJump@@UAE_NPAVioBaseChar@@M@Z:PROC ; ioExtendJump::ProcessAimJump
EXTRN	?OnEndExtendJump@ioExtendJump@@UAEXPAVioBaseChar@@@Z:PROC ; ioExtendJump::OnEndExtendJump
EXTRN	?CheckComboJumpAttack@ioExtendJump@@UAEXPAVioBaseChar@@@Z:PROC ; ioExtendJump::CheckComboJumpAttack
EXTRN	?GetChargingTime@ioExtendJump@@UAEKPAVioBaseChar@@@Z:PROC ; ioExtendJump::GetChargingTime
EXTRN	?GetJumpAniDefenseWounded@ioExtendJump@@UAE?AVioHashString@@XZ:PROC ; ioExtendJump::GetJumpAniDefenseWounded
EXTRN	?GetJumpAniDefenseCriticalWounded@ioExtendJump@@UAE?AVioHashString@@XZ:PROC ; ioExtendJump::GetJumpAniDefenseCriticalWounded
EXTRN	?IsCanJumpingSkill@ioExtendJump@@UAE_NPAVioBaseChar@@@Z:PROC ; ioExtendJump::IsCanJumpingSkill
EXTRN	?GetExtraJumpSpeedRate@ioExtendJump@@UBEMABUD3DXVECTOR3@@ABUD3DXQUATERNION@@@Z:PROC ; ioExtendJump::GetExtraJumpSpeedRate
EXTRN	?IsCanJumpAttack@ioExtendJump@@UAE_NPAVioBaseChar@@@Z:PROC ; ioExtendJump::IsCanJumpAttack
EXTRN	?IsEnableLandAfterState@ioExtendJump@@UAE_NXZ:PROC ; ioExtendJump::IsEnableLandAfterState
EXTRN	?GetLandAfterAni@ioExtendJump@@UAEABVioHashString@@_N@Z:PROC ; ioExtendJump::GetLandAfterAni
EXTRN	?GetLandAfterAniRate@ioExtendJump@@UAEM_N@Z:PROC ; ioExtendJump::GetLandAfterAniRate
EXTRN	?SetNextJumpItemState@ioExtendJump@@UAEXPAVioBaseChar@@0_NW4ChangeNextItemType@@PAVioWeapon@@M@Z:PROC ; ioExtendJump::SetNextJumpItemState
EXTRN	?SetExtraJump@ioExtendJump@@UAEXPAVioBaseChar@@@Z:PROC ; ioExtendJump::SetExtraJump
EXTRN	?ProcessExtraJump@ioExtendJump@@UAEXPAVioBaseChar@@@Z:PROC ; ioExtendJump::ProcessExtraJump
EXTRN	?ClearAirJump@ioExtendJump@@MAEXXZ:PROC		; ioExtendJump::ClearAirJump
EXTRN	?SetAirJump@ioExtendJump@@MAEXPAVioBaseChar@@HM@Z:PROC ; ioExtendJump::SetAirJump
EXTRN	?CheckAirJump@ioExtendJump@@MAEXPAVioBaseChar@@@Z:PROC ; ioExtendJump::CheckAirJump
EXTRN	?CheckCanUseBuffAirDash@ioExtendJump@@UAE_NXZ:PROC ; ioExtendJump::CheckCanUseBuffAirDash
EXTRN	?CheckKeyReserveTime@ioExtendJump@@MAEMPAVioBaseChar@@HMK@Z:PROC ; ioExtendJump::CheckKeyReserveTime
EXTRN	?CheckUseExtendJump@ioExtendJump@@UAE_NPAVioBaseChar@@@Z:PROC ; ioExtendJump::CheckUseExtendJump
EXTRN	?IsBuffFlyChange@ioExtendJump@@UAE_NPAVioBaseChar@@@Z:PROC ; ioExtendJump::IsBuffFlyChange
EXTRN	?IsNoProcessMove@ioExtendJump@@UAE_NXZ:PROC	; ioExtendJump::IsNoProcessMove
EXTRN	??_EioChargeFlashJump@@UAEPAXI@Z:PROC		; ioChargeFlashJump::`vector deleting destructor'
;	COMDAT ??_R2ioExtendJump@@8
; File c:\program files (x86)\microsoft visual studio 10.0\vc\include\xmemory
rdata$r	SEGMENT
??_R2ioExtendJump@@8 DD FLAT:??_R1A@?0A@EA@ioExtendJump@@8 ; ioExtendJump::`RTTI Base Class Array'
rdata$r	ENDS
;	COMDAT ??_R3ioExtendJump@@8
rdata$r	SEGMENT
??_R3ioExtendJump@@8 DD 00H				; ioExtendJump::`RTTI Class Hierarchy Descriptor'
	DD	00H
	DD	01H
	DD	FLAT:??_R2ioExtendJump@@8
rdata$r	ENDS
;	COMDAT ??_R0?AVioExtendJump@@@8
_DATA	SEGMENT
??_R0?AVioExtendJump@@@8 DD FLAT:??_7type_info@@6B@	; ioExtendJump `RTTI Type Descriptor'
	DD	00H
	DB	'.?AVioExtendJump@@', 00H
_DATA	ENDS
;	COMDAT ??_R1A@?0A@EA@ioExtendJump@@8
rdata$r	SEGMENT
??_R1A@?0A@EA@ioExtendJump@@8 DD FLAT:??_R0?AVioExtendJump@@@8 ; ioExtendJump::`RTTI Base Class Descriptor at (0,-1,0,64)'
	DD	00H
	DD	00H
	DD	0ffffffffH
	DD	00H
	DD	040H
	DD	FLAT:??_R3ioExtendJump@@8
rdata$r	ENDS
;	COMDAT ??_R1A@?0A@EA@ioChargeFlashJump@@8
rdata$r	SEGMENT
??_R1A@?0A@EA@ioChargeFlashJump@@8 DD FLAT:??_R0?AVioChargeFlashJump@@@8 ; ioChargeFlashJump::`RTTI Base Class Descriptor at (0,-1,0,64)'
	DD	01H
	DD	00H
	DD	0ffffffffH
	DD	00H
	DD	040H
	DD	FLAT:??_R3ioChargeFlashJump@@8
rdata$r	ENDS
;	COMDAT ??_R2ioChargeFlashJump@@8
rdata$r	SEGMENT
??_R2ioChargeFlashJump@@8 DD FLAT:??_R1A@?0A@EA@ioChargeFlashJump@@8 ; ioChargeFlashJump::`RTTI Base Class Array'
	DD	FLAT:??_R1A@?0A@EA@ioExtendJump@@8
rdata$r	ENDS
;	COMDAT ??_R3ioChargeFlashJump@@8
rdata$r	SEGMENT
??_R3ioChargeFlashJump@@8 DD 00H			; ioChargeFlashJump::`RTTI Class Hierarchy Descriptor'
	DD	00H
	DD	02H
	DD	FLAT:??_R2ioChargeFlashJump@@8
rdata$r	ENDS
;	COMDAT ??_R0?AVioChargeFlashJump@@@8
_DATA	SEGMENT
??_R0?AVioChargeFlashJump@@@8 DD FLAT:??_7type_info@@6B@ ; ioChargeFlashJump `RTTI Type Descriptor'
	DD	00H
	DB	'.?AVioChargeFlashJump@@', 00H
_DATA	ENDS
;	COMDAT ??_R4ioChargeFlashJump@@6B@
rdata$r	SEGMENT
??_R4ioChargeFlashJump@@6B@ DD 00H			; ioChargeFlashJump::`RTTI Complete Object Locator'
	DD	00H
	DD	00H
	DD	FLAT:??_R0?AVioChargeFlashJump@@@8
	DD	FLAT:??_R3ioChargeFlashJump@@8
rdata$r	ENDS
;	COMDAT ??_7ioChargeFlashJump@@6B@
CONST	SEGMENT
??_7ioChargeFlashJump@@6B@ DD FLAT:??_R4ioChargeFlashJump@@6B@ ; ioChargeFlashJump::`vftable'
	DD	FLAT:?LoadProperty@ioChargeFlashJump@@UAEXAAVioINILoader@@@Z
	DD	FLAT:?Clone@ioChargeFlashJump@@UAEPAVioExtendJump@@XZ
	DD	FLAT:?GetType@ioChargeFlashJump@@UBE?AW4JumpType@@XZ
	DD	FLAT:?SetJumpState@ioExtendJump@@UAEXXZ
	DD	FLAT:?ProcessJumpReady@ioExtendJump@@UAEXPAVioBaseChar@@@Z
	DD	FLAT:?SetJumpping@ioChargeFlashJump@@UAEXPAVioBaseChar@@_N@Z
	DD	FLAT:?SetJumpAttack@ioExtendJump@@UAEXPAVioBaseChar@@HM@Z
	DD	FLAT:?ProcessJumpping@ioChargeFlashJump@@UAEXPAVioBaseChar@@MM@Z
	DD	FLAT:?ProcessLanding@ioExtendJump@@UAEXPAVioBaseChar@@@Z
	DD	FLAT:?ProcessJumpAttack@ioChargeFlashJump@@UAEXPAVioBaseChar@@M@Z
	DD	FLAT:?ProcessAimJump@ioExtendJump@@UAE_NPAVioBaseChar@@M@Z
	DD	FLAT:?ApplyJump@ioChargeFlashJump@@UAEXPAVioBaseChar@@AAVSP2Packet@@@Z
	DD	FLAT:?OnEndExtendJump@ioExtendJump@@UAEXPAVioBaseChar@@@Z
	DD	FLAT:?CheckComboJumpAttack@ioExtendJump@@UAEXPAVioBaseChar@@@Z
	DD	FLAT:?GetChargingTime@ioExtendJump@@UAEKPAVioBaseChar@@@Z
	DD	FLAT:?GetJumpAniDefenseWounded@ioExtendJump@@UAE?AVioHashString@@XZ
	DD	FLAT:?GetJumpAniDefenseCriticalWounded@ioExtendJump@@UAE?AVioHashString@@XZ
	DD	FLAT:?IsCanJumpingSkill@ioExtendJump@@UAE_NPAVioBaseChar@@@Z
	DD	FLAT:?GetExtraJumpSpeedRate@ioExtendJump@@UBEMABUD3DXVECTOR3@@ABUD3DXQUATERNION@@@Z
	DD	FLAT:?SetLandingState@ioChargeFlashJump@@UAEXPAVioBaseChar@@@Z
	DD	FLAT:?IsCanJumpAttack@ioExtendJump@@UAE_NPAVioBaseChar@@@Z
	DD	FLAT:?IsEnableLandAfterState@ioExtendJump@@UAE_NXZ
	DD	FLAT:?IsEnableJumpLandEndDash@ioChargeFlashJump@@UAE_NXZ
	DD	FLAT:?IsEnableJumpDash@ioChargeFlashJump@@UAE_NPAVioBaseChar@@@Z
	DD	FLAT:?GetLandAfterAni@ioExtendJump@@UAEABVioHashString@@_N@Z
	DD	FLAT:?GetLandAfterAniRate@ioExtendJump@@UAEM_N@Z
	DD	FLAT:?SetNextJumpItemState@ioExtendJump@@UAEXPAVioBaseChar@@0_NW4ChangeNextItemType@@PAVioWeapon@@M@Z
	DD	FLAT:?SetExtraJump@ioExtendJump@@UAEXPAVioBaseChar@@@Z
	DD	FLAT:?ProcessExtraJump@ioExtendJump@@UAEXPAVioBaseChar@@@Z
	DD	FLAT:?ClearAirJump@ioExtendJump@@MAEXXZ
	DD	FLAT:?SetAirJump@ioExtendJump@@MAEXPAVioBaseChar@@HM@Z
	DD	FLAT:?CheckAirJump@ioExtendJump@@MAEXPAVioBaseChar@@@Z
	DD	FLAT:?CheckCanUseBuffAirDash@ioExtendJump@@UAE_NXZ
	DD	FLAT:?CheckKeyReserveTime@ioExtendJump@@MAEMPAVioBaseChar@@HMK@Z
	DD	FLAT:?CheckKeyReserve@ioChargeFlashJump@@MAEXPAVioBaseChar@@@Z
	DD	FLAT:?CheckUseExtendJump@ioExtendJump@@UAE_NPAVioBaseChar@@@Z
	DD	FLAT:?IsBuffFlyChange@ioExtendJump@@UAE_NPAVioBaseChar@@@Z
	DD	FLAT:?IsNoProcessMove@ioExtendJump@@UAE_NXZ
	DD	FLAT:??_EioChargeFlashJump@@UAEPAXI@Z
CONST	ENDS
;	COMDAT xdata$x
xdata$x	SEGMENT
__ehfuncinfo$??0ioChargeFlashJump@@QAE@XZ DD 019930522H
	DD	0aH
	DD	FLAT:__unwindtable$??0ioChargeFlashJump@@QAE@XZ
	DD	2 DUP(00H)
	DD	2 DUP(00H)
	DD	00H
	DD	01H
__unwindtable$??0ioChargeFlashJump@@QAE@XZ DD 0ffffffffH
	DD	FLAT:__unwindfunclet$??0ioChargeFlashJump@@QAE@XZ$0
	DD	00H
	DD	FLAT:__unwindfunclet$??0ioChargeFlashJump@@QAE@XZ$1
	DD	01H
	DD	FLAT:__unwindfunclet$??0ioChargeFlashJump@@QAE@XZ$2
	DD	02H
	DD	FLAT:__unwindfunclet$??0ioChargeFlashJump@@QAE@XZ$3
	DD	03H
	DD	FLAT:__unwindfunclet$??0ioChargeFlashJump@@QAE@XZ$4
	DD	04H
	DD	FLAT:__unwindfunclet$??0ioChargeFlashJump@@QAE@XZ$5
	DD	05H
	DD	FLAT:__unwindfunclet$??0ioChargeFlashJump@@QAE@XZ$6
	DD	06H
	DD	FLAT:__unwindfunclet$??0ioChargeFlashJump@@QAE@XZ$7
	DD	07H
	DD	FLAT:__unwindfunclet$??0ioChargeFlashJump@@QAE@XZ$8
	DD	08H
	DD	FLAT:__unwindfunclet$??0ioChargeFlashJump@@QAE@XZ$9
; Function compile flags: /Ogsp
; File d:\lost saga for developer\youtube\tutorial\source\src\lsclient\iochargeflashjump.cpp
xdata$x	ENDS
;	COMDAT ??0ioChargeFlashJump@@QAE@XZ
_TEXT	SEGMENT
_this$ = -16						; size = 4
__$EHRec$ = -12						; size = 12
??0ioChargeFlashJump@@QAE@XZ PROC			; ioChargeFlashJump::ioChargeFlashJump, COMDAT
; _this$ = ecx

; 9    : {

  00000	6a 04		 push	 4
  00002	b8 00 00 00 00	 mov	 eax, __ehhandler$??0ioChargeFlashJump@@QAE@XZ
  00007	e8 00 00 00 00	 call	 __EH_prolog3
  0000c	8b f1		 mov	 esi, ecx
  0000e	89 75 f0	 mov	 DWORD PTR _this$[ebp], esi
  00011	e8 00 00 00 00	 call	 ??0ioExtendJump@@QAE@XZ	; ioExtendJump::ioExtendJump
  00016	8b 3d 00 00 00
	00		 mov	 edi, DWORD PTR __imp_??0ioHashString@@QAE@XZ
  0001c	33 db		 xor	 ebx, ebx
  0001e	8d 8e 28 01 00
	00		 lea	 ecx, DWORD PTR [esi+296]
  00024	89 5d fc	 mov	 DWORD PTR __$EHRec$[ebp+8], ebx
  00027	c7 06 00 00 00
	00		 mov	 DWORD PTR [esi], OFFSET ??_7ioChargeFlashJump@@6B@
  0002d	ff d7		 call	 edi
  0002f	8d 8e 38 01 00
	00		 lea	 ecx, DWORD PTR [esi+312]
  00035	c6 45 fc 01	 mov	 BYTE PTR __$EHRec$[ebp+8], 1
  00039	e8 00 00 00 00	 call	 ??0?$CEncrypt@M@@QAE@XZ	; CEncrypt<float>::CEncrypt<float>
  0003e	8d 8e 68 01 00
	00		 lea	 ecx, DWORD PTR [esi+360]
  00044	c6 45 fc 02	 mov	 BYTE PTR __$EHRec$[ebp+8], 2
  00048	e8 00 00 00 00	 call	 ??0?$CEncrypt@M@@QAE@XZ	; CEncrypt<float>::CEncrypt<float>
  0004d	8d 8e 98 01 00
	00		 lea	 ecx, DWORD PTR [esi+408]
  00053	c6 45 fc 03	 mov	 BYTE PTR __$EHRec$[ebp+8], 3
  00057	e8 00 00 00 00	 call	 ??0?$CEncrypt@M@@QAE@XZ	; CEncrypt<float>::CEncrypt<float>
  0005c	8d 8e d8 01 00
	00		 lea	 ecx, DWORD PTR [esi+472]
  00062	c6 45 fc 04	 mov	 BYTE PTR __$EHRec$[ebp+8], 4
  00066	ff d7		 call	 edi
  00068	8d 8e ec 01 00
	00		 lea	 ecx, DWORD PTR [esi+492]
  0006e	c6 45 fc 05	 mov	 BYTE PTR __$EHRec$[ebp+8], 5
  00072	e8 00 00 00 00	 call	 ??0AttackAttribute@@QAE@XZ ; AttackAttribute::AttackAttribute
  00077	8d 8e 3c 02 00
	00		 lea	 ecx, DWORD PTR [esi+572]
  0007d	c6 45 fc 06	 mov	 BYTE PTR __$EHRec$[ebp+8], 6
  00081	e8 00 00 00 00	 call	 ??0AttackAttribute@@QAE@XZ ; AttackAttribute::AttackAttribute
  00086	89 9e ac 02 00
	00		 mov	 DWORD PTR [esi+684], ebx
  0008c	89 9e b0 02 00
	00		 mov	 DWORD PTR [esi+688], ebx
  00092	89 9e b4 02 00
	00		 mov	 DWORD PTR [esi+692], ebx
  00098	8d 8e d4 02 00
	00		 lea	 ecx, DWORD PTR [esi+724]
  0009e	c6 45 fc 08	 mov	 BYTE PTR __$EHRec$[ebp+8], 8
  000a2	e8 00 00 00 00	 call	 ??0AttackAttribute@@QAE@XZ ; AttackAttribute::AttackAttribute
  000a7	8d 8e 30 03 00
	00		 lea	 ecx, DWORD PTR [esi+816]
  000ad	c6 45 fc 09	 mov	 BYTE PTR __$EHRec$[ebp+8], 9
  000b1	ff d7		 call	 edi

; 10   : 	m_FlashJumpState = FJS_NONE;

  000b3	89 9e 24 01 00
	00		 mov	 DWORD PTR [esi+292], ebx

; 11   : 	m_dwFlashDelayEndTime = 0;

  000b9	89 9e c8 01 00
	00		 mov	 DWORD PTR [esi+456], ebx

; 12   : 	m_dwFlashEndTime = 0;

  000bf	89 9e cc 01 00
	00		 mov	 DWORD PTR [esi+460], ebx

; 13   : 
; 14   : 	m_dwChargingStartTime = 0;

  000c5	89 9e d0 01 00
	00		 mov	 DWORD PTR [esi+464], ebx

; 15   : 	m_bUseExtendJumpAttack = false;

  000cb	88 9e e8 01 00
	00		 mov	 BYTE PTR [esi+488], bl

; 16   : 
; 17   : 	m_bUsedDoubleJump = false;

  000d1	88 9e bc 02 00
	00		 mov	 BYTE PTR [esi+700], bl

; 18   : 	m_iCurJumpCnt = 1;

  000d7	c7 86 c4 02 00
	00 01 00 00 00	 mov	 DWORD PTR [esi+708], 1

; 19   : 	m_iCurChangeJumpCnt = 0;

  000e1	89 9e c8 02 00
	00		 mov	 DWORD PTR [esi+712], ebx

; 20   : 
; 21   : 	m_dwDashStartTime = 0;

  000e7	89 9e 28 03 00
	00		 mov	 DWORD PTR [esi+808], ebx

; 22   : 	m_dwDashEndTime = 0;

  000ed	89 9e 2c 03 00
	00		 mov	 DWORD PTR [esi+812], ebx

; 23   : 
; 24   : 	m_dwReserveEnableTime = 0;

  000f3	89 9e e8 00 00
	00		 mov	 DWORD PTR [esi+232], ebx

; 25   : 	m_bJumpAttackReserve = false;

  000f9	88 9e 44 03 00
	00		 mov	 BYTE PTR [esi+836], bl

; 26   : }

  000ff	8b c6		 mov	 eax, esi
  00101	e8 00 00 00 00	 call	 __EH_epilog3
  00106	c3		 ret	 0
_TEXT	ENDS
;	COMDAT text$x
text$x	SEGMENT
__unwindfunclet$??0ioChargeFlashJump@@QAE@XZ$0:
  00000	8b 4d f0	 mov	 ecx, DWORD PTR _this$[ebp]
  00003	e9 00 00 00 00	 jmp	 ??1ioExtendJump@@UAE@XZ	; ioExtendJump::~ioExtendJump
__unwindfunclet$??0ioChargeFlashJump@@QAE@XZ$1:
  00008	8b 4d f0	 mov	 ecx, DWORD PTR _this$[ebp]
  0000b	81 c1 28 01 00
	00		 add	 ecx, 296		; 00000128H
  00011	ff 25 00 00 00
	00		 jmp	 DWORD PTR __imp_??1ioHashString@@QAE@XZ
__unwindfunclet$??0ioChargeFlashJump@@QAE@XZ$2:
  00017	8b 4d f0	 mov	 ecx, DWORD PTR _this$[ebp]
  0001a	81 c1 38 01 00
	00		 add	 ecx, 312		; 00000138H
  00020	e9 00 00 00 00	 jmp	 ??1?$CEncrypt@M@@UAE@XZ	; CEncrypt<float>::~CEncrypt<float>
__unwindfunclet$??0ioChargeFlashJump@@QAE@XZ$3:
  00025	8b 4d f0	 mov	 ecx, DWORD PTR _this$[ebp]
  00028	81 c1 68 01 00
	00		 add	 ecx, 360		; 00000168H
  0002e	e9 00 00 00 00	 jmp	 ??1?$CEncrypt@M@@UAE@XZ	; CEncrypt<float>::~CEncrypt<float>
__unwindfunclet$??0ioChargeFlashJump@@QAE@XZ$4:
  00033	8b 4d f0	 mov	 ecx, DWORD PTR _this$[ebp]
  00036	81 c1 98 01 00
	00		 add	 ecx, 408		; 00000198H
  0003c	e9 00 00 00 00	 jmp	 ??1?$CEncrypt@M@@UAE@XZ	; CEncrypt<float>::~CEncrypt<float>
__unwindfunclet$??0ioChargeFlashJump@@QAE@XZ$5:
  00041	8b 4d f0	 mov	 ecx, DWORD PTR _this$[ebp]
  00044	81 c1 d8 01 00
	00		 add	 ecx, 472		; 000001d8H
  0004a	ff 25 00 00 00
	00		 jmp	 DWORD PTR __imp_??1ioHashString@@QAE@XZ
__unwindfunclet$??0ioChargeFlashJump@@QAE@XZ$6:
  00050	8b 4d f0	 mov	 ecx, DWORD PTR _this$[ebp]
  00053	81 c1 ec 01 00
	00		 add	 ecx, 492		; 000001ecH
  00059	e9 00 00 00 00	 jmp	 ??1AttackAttribute@@QAE@XZ
__unwindfunclet$??0ioChargeFlashJump@@QAE@XZ$7:
  0005e	8b 4d f0	 mov	 ecx, DWORD PTR _this$[ebp]
  00061	81 c1 3c 02 00
	00		 add	 ecx, 572		; 0000023cH
  00067	e9 00 00 00 00	 jmp	 ??1AttackAttribute@@QAE@XZ
__unwindfunclet$??0ioChargeFlashJump@@QAE@XZ$8:
  0006c	8b 4d f0	 mov	 ecx, DWORD PTR _this$[ebp]
  0006f	81 c1 ac 02 00
	00		 add	 ecx, 684		; 000002acH
  00075	e9 00 00 00 00	 jmp	 ??1?$vector@VioHashString@@V?$allocator@VioHashString@@@std@@@std@@QAE@XZ ; std::vector<ioHashString,std::allocator<ioHashString> >::~vector<ioHashString,std::allocator<ioHashString> >
__unwindfunclet$??0ioChargeFlashJump@@QAE@XZ$9:
  0007a	8b 4d f0	 mov	 ecx, DWORD PTR _this$[ebp]
  0007d	81 c1 d4 02 00
	00		 add	 ecx, 724		; 000002d4H
  00083	e9 00 00 00 00	 jmp	 ??1AttackAttribute@@QAE@XZ
__ehhandler$??0ioChargeFlashJump@@QAE@XZ:
  00088	8b 54 24 08	 mov	 edx, DWORD PTR [esp+8]
  0008c	8d 42 0c	 lea	 eax, DWORD PTR [edx+12]
  0008f	8b 4a ec	 mov	 ecx, DWORD PTR [edx-20]
  00092	33 c8		 xor	 ecx, eax
  00094	e8 00 00 00 00	 call	 @__security_check_cookie@4
  00099	b8 00 00 00 00	 mov	 eax, OFFSET __ehfuncinfo$??0ioChargeFlashJump@@QAE@XZ
  0009e	e9 00 00 00 00	 jmp	 ___CxxFrameHandler3
text$x	ENDS
??0ioChargeFlashJump@@QAE@XZ ENDP			; ioChargeFlashJump::ioChargeFlashJump
PUBLIC	??0ioChargeFlashJump@@QAE@ABV0@@Z		; ioChargeFlashJump::ioChargeFlashJump
EXTRN	??0ioExtendJump@@QAE@ABV0@@Z:PROC		; ioExtendJump::ioExtendJump
;	COMDAT xdata$x
xdata$x	SEGMENT
__ehfuncinfo$??0ioChargeFlashJump@@QAE@ABV0@@Z DD 019930522H
	DD	0aH
	DD	FLAT:__unwindtable$??0ioChargeFlashJump@@QAE@ABV0@@Z
	DD	2 DUP(00H)
	DD	2 DUP(00H)
	DD	00H
	DD	01H
__unwindtable$??0ioChargeFlashJump@@QAE@ABV0@@Z DD 0ffffffffH
	DD	FLAT:__unwindfunclet$??0ioChargeFlashJump@@QAE@ABV0@@Z$0
	DD	00H
	DD	FLAT:__unwindfunclet$??0ioChargeFlashJump@@QAE@ABV0@@Z$1
	DD	01H
	DD	FLAT:__unwindfunclet$??0ioChargeFlashJump@@QAE@ABV0@@Z$2
	DD	02H
	DD	FLAT:__unwindfunclet$??0ioChargeFlashJump@@QAE@ABV0@@Z$3
	DD	03H
	DD	FLAT:__unwindfunclet$??0ioChargeFlashJump@@QAE@ABV0@@Z$4
	DD	04H
	DD	FLAT:__unwindfunclet$??0ioChargeFlashJump@@QAE@ABV0@@Z$5
	DD	05H
	DD	FLAT:__unwindfunclet$??0ioChargeFlashJump@@QAE@ABV0@@Z$6
	DD	06H
	DD	FLAT:__unwindfunclet$??0ioChargeFlashJump@@QAE@ABV0@@Z$7
	DD	07H
	DD	FLAT:__unwindfunclet$??0ioChargeFlashJump@@QAE@ABV0@@Z$8
	DD	08H
	DD	FLAT:__unwindfunclet$??0ioChargeFlashJump@@QAE@ABV0@@Z$9
; Function compile flags: /Ogsp
xdata$x	ENDS
;	COMDAT ??0ioChargeFlashJump@@QAE@ABV0@@Z
_TEXT	SEGMENT
_this$ = -16						; size = 4
__$EHRec$ = -12						; size = 12
_rhs$ = 8						; size = 4
??0ioChargeFlashJump@@QAE@ABV0@@Z PROC			; ioChargeFlashJump::ioChargeFlashJump, COMDAT
; _this$ = ecx

; 56   : {

  00000	6a 04		 push	 4
  00002	b8 00 00 00 00	 mov	 eax, __ehhandler$??0ioChargeFlashJump@@QAE@ABV0@@Z
  00007	e8 00 00 00 00	 call	 __EH_prolog3
  0000c	8b f1		 mov	 esi, ecx
  0000e	89 75 f0	 mov	 DWORD PTR _this$[ebp], esi
  00011	8b 7d 08	 mov	 edi, DWORD PTR _rhs$[ebp]
  00014	57		 push	 edi
  00015	e8 00 00 00 00	 call	 ??0ioExtendJump@@QAE@ABV0@@Z ; ioExtendJump::ioExtendJump
  0001a	8b 1d 00 00 00
	00		 mov	 ebx, DWORD PTR __imp_??0ioHashString@@QAE@ABV0@@Z
  00020	83 65 fc 00	 and	 DWORD PTR __$EHRec$[ebp+8], 0
  00024	8d 87 28 01 00
	00		 lea	 eax, DWORD PTR [edi+296]
  0002a	50		 push	 eax
  0002b	8d 8e 28 01 00
	00		 lea	 ecx, DWORD PTR [esi+296]
  00031	c7 06 00 00 00
	00		 mov	 DWORD PTR [esi], OFFSET ??_7ioChargeFlashJump@@6B@
  00037	ff d3		 call	 ebx
  00039	8d 87 38 01 00
	00		 lea	 eax, DWORD PTR [edi+312]
  0003f	50		 push	 eax
  00040	8d 8e 38 01 00
	00		 lea	 ecx, DWORD PTR [esi+312]
  00046	c6 45 fc 01	 mov	 BYTE PTR __$EHRec$[ebp+8], 1
  0004a	e8 00 00 00 00	 call	 ??0?$CEncrypt@M@@QAE@ABV0@@Z ; CEncrypt<float>::CEncrypt<float>
  0004f	8d 87 68 01 00
	00		 lea	 eax, DWORD PTR [edi+360]
  00055	50		 push	 eax
  00056	8d 8e 68 01 00
	00		 lea	 ecx, DWORD PTR [esi+360]
  0005c	c6 45 fc 02	 mov	 BYTE PTR __$EHRec$[ebp+8], 2
  00060	e8 00 00 00 00	 call	 ??0?$CEncrypt@M@@QAE@ABV0@@Z ; CEncrypt<float>::CEncrypt<float>
  00065	8d 87 98 01 00
	00		 lea	 eax, DWORD PTR [edi+408]
  0006b	50		 push	 eax
  0006c	8d 8e 98 01 00
	00		 lea	 ecx, DWORD PTR [esi+408]
  00072	c6 45 fc 03	 mov	 BYTE PTR __$EHRec$[ebp+8], 3
  00076	e8 00 00 00 00	 call	 ??0?$CEncrypt@M@@QAE@ABV0@@Z ; CEncrypt<float>::CEncrypt<float>
  0007b	8b 87 d4 01 00
	00		 mov	 eax, DWORD PTR [edi+468]
  00081	89 86 d4 01 00
	00		 mov	 DWORD PTR [esi+468], eax
  00087	8d 87 d8 01 00
	00		 lea	 eax, DWORD PTR [edi+472]
  0008d	50		 push	 eax
  0008e	8d 8e d8 01 00
	00		 lea	 ecx, DWORD PTR [esi+472]
  00094	c6 45 fc 04	 mov	 BYTE PTR __$EHRec$[ebp+8], 4
  00098	ff d3		 call	 ebx
  0009a	8d 87 ec 01 00
	00		 lea	 eax, DWORD PTR [edi+492]
  000a0	50		 push	 eax
  000a1	8d 8e ec 01 00
	00		 lea	 ecx, DWORD PTR [esi+492]
  000a7	c6 45 fc 05	 mov	 BYTE PTR __$EHRec$[ebp+8], 5
  000ab	e8 00 00 00 00	 call	 ??0AttackAttribute@@QAE@ABU0@@Z
  000b0	8d 87 3c 02 00
	00		 lea	 eax, DWORD PTR [edi+572]
  000b6	50		 push	 eax
  000b7	8d 8e 3c 02 00
	00		 lea	 ecx, DWORD PTR [esi+572]
  000bd	c6 45 fc 06	 mov	 BYTE PTR __$EHRec$[ebp+8], 6
  000c1	e8 00 00 00 00	 call	 ??0AttackAttribute@@QAE@ABU0@@Z
  000c6	d9 87 8c 02 00
	00		 fld	 DWORD PTR [edi+652]
  000cc	d9 9e 8c 02 00
	00		 fstp	 DWORD PTR [esi+652]
  000d2	8d 8e ac 02 00
	00		 lea	 ecx, DWORD PTR [esi+684]
  000d8	d9 87 90 02 00
	00		 fld	 DWORD PTR [edi+656]
  000de	c6 45 fc 07	 mov	 BYTE PTR __$EHRec$[ebp+8], 7
  000e2	d9 9e 90 02 00
	00		 fstp	 DWORD PTR [esi+656]
  000e8	d9 87 94 02 00
	00		 fld	 DWORD PTR [edi+660]
  000ee	d9 9e 94 02 00
	00		 fstp	 DWORD PTR [esi+660]
  000f4	8b 87 98 02 00
	00		 mov	 eax, DWORD PTR [edi+664]
  000fa	89 86 98 02 00
	00		 mov	 DWORD PTR [esi+664], eax
  00100	d9 87 9c 02 00
	00		 fld	 DWORD PTR [edi+668]
  00106	d9 9e 9c 02 00
	00		 fstp	 DWORD PTR [esi+668]
  0010c	8d 87 ac 02 00
	00		 lea	 eax, DWORD PTR [edi+684]
  00112	d9 87 a0 02 00
	00		 fld	 DWORD PTR [edi+672]
  00118	50		 push	 eax
  00119	d9 9e a0 02 00
	00		 fstp	 DWORD PTR [esi+672]
  0011f	d9 87 a4 02 00
	00		 fld	 DWORD PTR [edi+676]
  00125	d9 9e a4 02 00
	00		 fstp	 DWORD PTR [esi+676]
  0012b	d9 87 a8 02 00
	00		 fld	 DWORD PTR [edi+680]
  00131	d9 9e a8 02 00
	00		 fstp	 DWORD PTR [esi+680]
  00137	e8 00 00 00 00	 call	 ??0?$vector@VioHashString@@V?$allocator@VioHashString@@@std@@@std@@QAE@ABV01@@Z ; std::vector<ioHashString,std::allocator<ioHashString> >::vector<ioHashString,std::allocator<ioHashString> >
  0013c	8b 87 c0 02 00
	00		 mov	 eax, DWORD PTR [edi+704]
  00142	89 86 c0 02 00
	00		 mov	 DWORD PTR [esi+704], eax
  00148	8a 87 cc 02 00
	00		 mov	 al, BYTE PTR [edi+716]
  0014e	88 86 cc 02 00
	00		 mov	 BYTE PTR [esi+716], al
  00154	8b 87 d0 02 00
	00		 mov	 eax, DWORD PTR [edi+720]
  0015a	89 86 d0 02 00
	00		 mov	 DWORD PTR [esi+720], eax
  00160	8d 87 d4 02 00
	00		 lea	 eax, DWORD PTR [edi+724]
  00166	c6 45 fc 08	 mov	 BYTE PTR __$EHRec$[ebp+8], 8
  0016a	50		 push	 eax
  0016b	8d 8e d4 02 00
	00		 lea	 ecx, DWORD PTR [esi+724]
  00171	e8 00 00 00 00	 call	 ??0AttackAttribute@@QAE@ABU0@@Z
  00176	d9 87 24 03 00
	00		 fld	 DWORD PTR [edi+804]
  0017c	8d 87 30 03 00
	00		 lea	 eax, DWORD PTR [edi+816]
  00182	d9 9e 24 03 00
	00		 fstp	 DWORD PTR [esi+804]
  00188	50		 push	 eax
  00189	8d 8e 30 03 00
	00		 lea	 ecx, DWORD PTR [esi+816]
  0018f	c6 45 fc 09	 mov	 BYTE PTR __$EHRec$[ebp+8], 9
  00193	ff d3		 call	 ebx
  00195	d9 87 40 03 00
	00		 fld	 DWORD PTR [edi+832]
  0019b	d9 9e 40 03 00
	00		 fstp	 DWORD PTR [esi+832]
  001a1	8a 87 45 03 00
	00		 mov	 al, BYTE PTR [edi+837]
  001a7	88 86 45 03 00
	00		 mov	 BYTE PTR [esi+837], al
  001ad	8a 87 46 03 00
	00		 mov	 al, BYTE PTR [edi+838]
  001b3	88 86 46 03 00
	00		 mov	 BYTE PTR [esi+838], al

; 57   : 	m_FlashJumpState = FJS_NONE;

  001b9	33 c0		 xor	 eax, eax
  001bb	89 86 24 01 00
	00		 mov	 DWORD PTR [esi+292], eax

; 58   : 	m_dwFlashDelayEndTime = 0;

  001c1	89 86 c8 01 00
	00		 mov	 DWORD PTR [esi+456], eax

; 59   : 	m_dwFlashEndTime = 0;

  001c7	89 86 cc 01 00
	00		 mov	 DWORD PTR [esi+460], eax

; 60   : 
; 61   : 	m_bUsedDoubleJump = false;

  001cd	88 86 bc 02 00
	00		 mov	 BYTE PTR [esi+700], al

; 62   : 	m_iCurJumpCnt = 1;
; 63   : 	m_iCurChangeJumpCnt = 0;

  001d3	89 86 c8 02 00
	00		 mov	 DWORD PTR [esi+712], eax

; 64   : 
; 65   : 	m_dwChargingStartTime = 0;

  001d9	89 86 d0 01 00
	00		 mov	 DWORD PTR [esi+464], eax

; 66   : 	m_bUseExtendJumpAttack = false;

  001df	88 86 e8 01 00
	00		 mov	 BYTE PTR [esi+488], al

; 67   : 
; 68   : 	m_dwDashStartTime = 0;

  001e5	89 86 28 03 00
	00		 mov	 DWORD PTR [esi+808], eax

; 69   : 	m_dwDashEndTime = 0;

  001eb	89 86 2c 03 00
	00		 mov	 DWORD PTR [esi+812], eax

; 70   : 
; 71   : 	m_dwReserveEnableTime = 0;

  001f1	89 86 e8 00 00
	00		 mov	 DWORD PTR [esi+232], eax

; 72   : 	m_bJumpAttackReserve = false;

  001f7	88 86 44 03 00
	00		 mov	 BYTE PTR [esi+836], al
  001fd	c7 86 c4 02 00
	00 01 00 00 00	 mov	 DWORD PTR [esi+708], 1

; 73   : }

  00207	8b c6		 mov	 eax, esi
  00209	e8 00 00 00 00	 call	 __EH_epilog3
  0020e	c2 04 00	 ret	 4
_TEXT	ENDS
;	COMDAT text$x
text$x	SEGMENT
__unwindfunclet$??0ioChargeFlashJump@@QAE@ABV0@@Z$0:
  00000	8b 4d f0	 mov	 ecx, DWORD PTR _this$[ebp]
  00003	e9 00 00 00 00	 jmp	 ??1ioExtendJump@@UAE@XZ	; ioExtendJump::~ioExtendJump
__unwindfunclet$??0ioChargeFlashJump@@QAE@ABV0@@Z$1:
  00008	8b 4d f0	 mov	 ecx, DWORD PTR _this$[ebp]
  0000b	81 c1 28 01 00
	00		 add	 ecx, 296		; 00000128H
  00011	ff 25 00 00 00
	00		 jmp	 DWORD PTR __imp_??1ioHashString@@QAE@XZ
__unwindfunclet$??0ioChargeFlashJump@@QAE@ABV0@@Z$2:
  00017	8b 4d f0	 mov	 ecx, DWORD PTR _this$[ebp]
  0001a	81 c1 38 01 00
	00		 add	 ecx, 312		; 00000138H
  00020	e9 00 00 00 00	 jmp	 ??1?$CEncrypt@M@@UAE@XZ	; CEncrypt<float>::~CEncrypt<float>
__unwindfunclet$??0ioChargeFlashJump@@QAE@ABV0@@Z$3:
  00025	8b 4d f0	 mov	 ecx, DWORD PTR _this$[ebp]
  00028	81 c1 68 01 00
	00		 add	 ecx, 360		; 00000168H
  0002e	e9 00 00 00 00	 jmp	 ??1?$CEncrypt@M@@UAE@XZ	; CEncrypt<float>::~CEncrypt<float>
__unwindfunclet$??0ioChargeFlashJump@@QAE@ABV0@@Z$4:
  00033	8b 4d f0	 mov	 ecx, DWORD PTR _this$[ebp]
  00036	81 c1 98 01 00
	00		 add	 ecx, 408		; 00000198H
  0003c	e9 00 00 00 00	 jmp	 ??1?$CEncrypt@M@@UAE@XZ	; CEncrypt<float>::~CEncrypt<float>
__unwindfunclet$??0ioChargeFlashJump@@QAE@ABV0@@Z$5:
  00041	8b 4d f0	 mov	 ecx, DWORD PTR _this$[ebp]
  00044	81 c1 d8 01 00
	00		 add	 ecx, 472		; 000001d8H
  0004a	ff 25 00 00 00
	00		 jmp	 DWORD PTR __imp_??1ioHashString@@QAE@XZ
__unwindfunclet$??0ioChargeFlashJump@@QAE@ABV0@@Z$6:
  00050	8b 4d f0	 mov	 ecx, DWORD PTR _this$[ebp]
  00053	81 c1 ec 01 00
	00		 add	 ecx, 492		; 000001ecH
  00059	e9 00 00 00 00	 jmp	 ??1AttackAttribute@@QAE@XZ
__unwindfunclet$??0ioChargeFlashJump@@QAE@ABV0@@Z$7:
  0005e	8b 4d f0	 mov	 ecx, DWORD PTR _this$[ebp]
  00061	81 c1 3c 02 00
	00		 add	 ecx, 572		; 0000023cH
  00067	e9 00 00 00 00	 jmp	 ??1AttackAttribute@@QAE@XZ
__unwindfunclet$??0ioChargeFlashJump@@QAE@ABV0@@Z$8:
  0006c	8b 4d f0	 mov	 ecx, DWORD PTR _this$[ebp]
  0006f	81 c1 ac 02 00
	00		 add	 ecx, 684		; 000002acH
  00075	e9 00 00 00 00	 jmp	 ??1?$vector@VioHashString@@V?$allocator@VioHashString@@@std@@@std@@QAE@XZ ; std::vector<ioHashString,std::allocator<ioHashString> >::~vector<ioHashString,std::allocator<ioHashString> >
__unwindfunclet$??0ioChargeFlashJump@@QAE@ABV0@@Z$9:
  0007a	8b 4d f0	 mov	 ecx, DWORD PTR _this$[ebp]
  0007d	81 c1 d4 02 00
	00		 add	 ecx, 724		; 000002d4H
  00083	e9 00 00 00 00	 jmp	 ??1AttackAttribute@@QAE@XZ
__ehhandler$??0ioChargeFlashJump@@QAE@ABV0@@Z:
  00088	8b 54 24 08	 mov	 edx, DWORD PTR [esp+8]
  0008c	8d 42 0c	 lea	 eax, DWORD PTR [edx+12]
  0008f	8b 4a ec	 mov	 ecx, DWORD PTR [edx-20]
  00092	33 c8		 xor	 ecx, eax
  00094	e8 00 00 00 00	 call	 @__security_check_cookie@4
  00099	b8 00 00 00 00	 mov	 eax, OFFSET __ehfuncinfo$??0ioChargeFlashJump@@QAE@ABV0@@Z
  0009e	e9 00 00 00 00	 jmp	 ___CxxFrameHandler3
text$x	ENDS
??0ioChargeFlashJump@@QAE@ABV0@@Z ENDP			; ioChargeFlashJump::ioChargeFlashJump
;	COMDAT xdata$x
xdata$x	SEGMENT
__unwindtable$?Clone@ioChargeFlashJump@@UAEPAVioExtendJump@@XZ DD 0ffffffffH
	DD	FLAT:__unwindfunclet$?Clone@ioChargeFlashJump@@UAEPAVioExtendJump@@XZ$0
__ehfuncinfo$?Clone@ioChargeFlashJump@@UAEPAVioExtendJump@@XZ DD 019930522H
	DD	01H
	DD	FLAT:__unwindtable$?Clone@ioChargeFlashJump@@UAEPAVioExtendJump@@XZ
	DD	2 DUP(00H)
	DD	2 DUP(00H)
	DD	00H
	DD	01H
; Function compile flags: /Ogsp
xdata$x	ENDS
;	COMDAT ?Clone@ioChargeFlashJump@@UAEPAVioExtendJump@@XZ
_TEXT	SEGMENT
$T538323 = -16						; size = 4
__$EHRec$ = -12						; size = 12
?Clone@ioChargeFlashJump@@UAEPAVioExtendJump@@XZ PROC	; ioChargeFlashJump::Clone, COMDAT
; _this$ = ecx

; 76   : {

  00000	6a 04		 push	 4
  00002	b8 00 00 00 00	 mov	 eax, __ehhandler$?Clone@ioChargeFlashJump@@UAEPAVioExtendJump@@XZ
  00007	e8 00 00 00 00	 call	 __EH_prolog3
  0000c	8b f1		 mov	 esi, ecx

; 77   : 	return new ioChargeFlashJump( *this );

  0000e	68 48 03 00 00	 push	 840			; 00000348H
  00013	e8 00 00 00 00	 call	 ??2@YAPAXI@Z		; operator new
  00018	59		 pop	 ecx
  00019	8b c8		 mov	 ecx, eax
  0001b	89 4d f0	 mov	 DWORD PTR $T538323[ebp], ecx
  0001e	33 c0		 xor	 eax, eax
  00020	89 45 fc	 mov	 DWORD PTR __$EHRec$[ebp+8], eax
  00023	3b c8		 cmp	 ecx, eax
  00025	74 06		 je	 SHORT $LN3@Clone
  00027	56		 push	 esi
  00028	e8 00 00 00 00	 call	 ??0ioChargeFlashJump@@QAE@ABV0@@Z ; ioChargeFlashJump::ioChargeFlashJump
$LN3@Clone:

; 78   : }

  0002d	e8 00 00 00 00	 call	 __EH_epilog3
  00032	c3		 ret	 0
_TEXT	ENDS
;	COMDAT text$x
text$x	SEGMENT
__unwindfunclet$?Clone@ioChargeFlashJump@@UAEPAVioExtendJump@@XZ$0:
  00000	ff 75 f0	 push	 DWORD PTR $T538323[ebp]
  00003	e8 00 00 00 00	 call	 ??3@YAXPAX@Z		; operator delete
  00008	59		 pop	 ecx
  00009	c3		 ret	 0
__ehhandler$?Clone@ioChargeFlashJump@@UAEPAVioExtendJump@@XZ:
  0000a	8b 54 24 08	 mov	 edx, DWORD PTR [esp+8]
  0000e	8d 42 0c	 lea	 eax, DWORD PTR [edx+12]
  00011	8b 4a ec	 mov	 ecx, DWORD PTR [edx-20]
  00014	33 c8		 xor	 ecx, eax
  00016	e8 00 00 00 00	 call	 @__security_check_cookie@4
  0001b	b8 00 00 00 00	 mov	 eax, OFFSET __ehfuncinfo$?Clone@ioChargeFlashJump@@UAEPAVioExtendJump@@XZ
  00020	e9 00 00 00 00	 jmp	 ___CxxFrameHandler3
text$x	ENDS
?Clone@ioChargeFlashJump@@UAEPAVioExtendJump@@XZ ENDP	; ioChargeFlashJump::Clone
PUBLIC	??1ioChargeFlashJump@@UAE@XZ			; ioChargeFlashJump::~ioChargeFlashJump
;	COMDAT xdata$x
; File d:\lost saga for developer\youtube\tutorial\source\src\lsclient\encryptvalue.h
xdata$x	SEGMENT
__ehfuncinfo$??1ioChargeFlashJump@@UAE@XZ DD 019930522H
	DD	0aH
	DD	FLAT:__unwindtable$??1ioChargeFlashJump@@UAE@XZ
	DD	2 DUP(00H)
	DD	2 DUP(00H)
	DD	00H
	DD	01H
__unwindtable$??1ioChargeFlashJump@@UAE@XZ DD 0ffffffffH
	DD	FLAT:__unwindfunclet$??1ioChargeFlashJump@@UAE@XZ$0
	DD	00H
	DD	FLAT:__unwindfunclet$??1ioChargeFlashJump@@UAE@XZ$1
	DD	01H
	DD	FLAT:__unwindfunclet$??1ioChargeFlashJump@@UAE@XZ$2
	DD	02H
	DD	FLAT:__unwindfunclet$??1ioChargeFlashJump@@UAE@XZ$3
	DD	03H
	DD	FLAT:__unwindfunclet$??1ioChargeFlashJump@@UAE@XZ$4
	DD	04H
	DD	FLAT:__unwindfunclet$??1ioChargeFlashJump@@UAE@XZ$5
	DD	05H
	DD	FLAT:__unwindfunclet$??1ioChargeFlashJump@@UAE@XZ$6
	DD	06H
	DD	FLAT:__unwindfunclet$??1ioChargeFlashJump@@UAE@XZ$7
	DD	07H
	DD	FLAT:__unwindfunclet$??1ioChargeFlashJump@@UAE@XZ$8
	DD	08H
	DD	FLAT:__unwindfunclet$??1ioChargeFlashJump@@UAE@XZ$9
; Function compile flags: /Ogsp
; File d:\lost saga for developer\youtube\tutorial\source\src\lsclient\iochargeflashjump.cpp
xdata$x	ENDS
;	COMDAT ??1ioChargeFlashJump@@UAE@XZ
_TEXT	SEGMENT
_this$ = -16						; size = 4
__$EHRec$ = -12						; size = 12
??1ioChargeFlashJump@@UAE@XZ PROC			; ioChargeFlashJump::~ioChargeFlashJump, COMDAT
; _this$ = ecx

; 81   : {

  00000	6a 04		 push	 4
  00002	b8 00 00 00 00	 mov	 eax, __ehhandler$??1ioChargeFlashJump@@UAE@XZ
  00007	e8 00 00 00 00	 call	 __EH_prolog3
  0000c	8b f1		 mov	 esi, ecx
  0000e	89 75 f0	 mov	 DWORD PTR _this$[ebp], esi
  00011	c7 06 00 00 00
	00		 mov	 DWORD PTR [esi], OFFSET ??_7ioChargeFlashJump@@6B@

; 82   : }

  00017	8b 3d 00 00 00
	00		 mov	 edi, DWORD PTR __imp_??1ioHashString@@QAE@XZ
  0001d	8d 8e 30 03 00
	00		 lea	 ecx, DWORD PTR [esi+816]
  00023	c7 45 fc 09 00
	00 00		 mov	 DWORD PTR __$EHRec$[ebp+8], 9
  0002a	ff d7		 call	 edi
  0002c	8d 8e d4 02 00
	00		 lea	 ecx, DWORD PTR [esi+724]
  00032	c6 45 fc 08	 mov	 BYTE PTR __$EHRec$[ebp+8], 8
  00036	e8 00 00 00 00	 call	 ??1AttackAttribute@@QAE@XZ
  0003b	8d 8e ac 02 00
	00		 lea	 ecx, DWORD PTR [esi+684]
  00041	c6 45 fc 07	 mov	 BYTE PTR __$EHRec$[ebp+8], 7
  00045	e8 00 00 00 00	 call	 ?_Tidy@?$vector@VioHashString@@V?$allocator@VioHashString@@@std@@@std@@IAEXXZ ; std::vector<ioHashString,std::allocator<ioHashString> >::_Tidy
  0004a	8d 8e 3c 02 00
	00		 lea	 ecx, DWORD PTR [esi+572]
  00050	c6 45 fc 06	 mov	 BYTE PTR __$EHRec$[ebp+8], 6
  00054	e8 00 00 00 00	 call	 ??1AttackAttribute@@QAE@XZ
  00059	8d 8e ec 01 00
	00		 lea	 ecx, DWORD PTR [esi+492]
  0005f	c6 45 fc 05	 mov	 BYTE PTR __$EHRec$[ebp+8], 5
  00063	e8 00 00 00 00	 call	 ??1AttackAttribute@@QAE@XZ
  00068	8d 8e d8 01 00
	00		 lea	 ecx, DWORD PTR [esi+472]
  0006e	c6 45 fc 04	 mov	 BYTE PTR __$EHRec$[ebp+8], 4
  00072	ff d7		 call	 edi
  00074	bb 00 00 00 00	 mov	 ebx, OFFSET ??_7?$CEncrypt@M@@6B@
  00079	8d 8e a4 01 00
	00		 lea	 ecx, DWORD PTR [esi+420]
  0007f	c6 45 fc 03	 mov	 BYTE PTR __$EHRec$[ebp+8], 3
  00083	89 9e 98 01 00
	00		 mov	 DWORD PTR [esi+408], ebx
  00089	e8 00 00 00 00	 call	 ??1ccddaabb@@UAE@XZ	; ccddaabb::~ccddaabb
  0008e	8d 8e 74 01 00
	00		 lea	 ecx, DWORD PTR [esi+372]
  00094	c6 45 fc 02	 mov	 BYTE PTR __$EHRec$[ebp+8], 2
  00098	89 9e 68 01 00
	00		 mov	 DWORD PTR [esi+360], ebx
  0009e	e8 00 00 00 00	 call	 ??1ccddaabb@@UAE@XZ	; ccddaabb::~ccddaabb
  000a3	8d 8e 44 01 00
	00		 lea	 ecx, DWORD PTR [esi+324]
  000a9	c6 45 fc 01	 mov	 BYTE PTR __$EHRec$[ebp+8], 1
  000ad	89 9e 38 01 00
	00		 mov	 DWORD PTR [esi+312], ebx
  000b3	e8 00 00 00 00	 call	 ??1ccddaabb@@UAE@XZ	; ccddaabb::~ccddaabb
  000b8	8d 8e 28 01 00
	00		 lea	 ecx, DWORD PTR [esi+296]
  000be	c6 45 fc 00	 mov	 BYTE PTR __$EHRec$[ebp+8], 0
  000c2	ff d7		 call	 edi
  000c4	83 4d fc ff	 or	 DWORD PTR __$EHRec$[ebp+8], -1
  000c8	8b ce		 mov	 ecx, esi
  000ca	e8 00 00 00 00	 call	 ??1ioExtendJump@@UAE@XZ	; ioExtendJump::~ioExtendJump
  000cf	e8 00 00 00 00	 call	 __EH_epilog3
  000d4	c3		 ret	 0
_TEXT	ENDS
;	COMDAT text$x
text$x	SEGMENT
__unwindfunclet$??1ioChargeFlashJump@@UAE@XZ$0:
  00000	8b 4d f0	 mov	 ecx, DWORD PTR _this$[ebp]
  00003	e9 00 00 00 00	 jmp	 ??1ioExtendJump@@UAE@XZ	; ioExtendJump::~ioExtendJump
__unwindfunclet$??1ioChargeFlashJump@@UAE@XZ$1:
  00008	8b 4d f0	 mov	 ecx, DWORD PTR _this$[ebp]
  0000b	81 c1 28 01 00
	00		 add	 ecx, 296		; 00000128H
  00011	ff 25 00 00 00
	00		 jmp	 DWORD PTR __imp_??1ioHashString@@QAE@XZ
__unwindfunclet$??1ioChargeFlashJump@@UAE@XZ$2:
  00017	8b 4d f0	 mov	 ecx, DWORD PTR _this$[ebp]
  0001a	81 c1 38 01 00
	00		 add	 ecx, 312		; 00000138H
  00020	e9 00 00 00 00	 jmp	 ??1?$CEncrypt@M@@UAE@XZ	; CEncrypt<float>::~CEncrypt<float>
__unwindfunclet$??1ioChargeFlashJump@@UAE@XZ$3:
  00025	8b 4d f0	 mov	 ecx, DWORD PTR _this$[ebp]
  00028	81 c1 68 01 00
	00		 add	 ecx, 360		; 00000168H
  0002e	e9 00 00 00 00	 jmp	 ??1?$CEncrypt@M@@UAE@XZ	; CEncrypt<float>::~CEncrypt<float>
__unwindfunclet$??1ioChargeFlashJump@@UAE@XZ$4:
  00033	8b 4d f0	 mov	 ecx, DWORD PTR _this$[ebp]
  00036	81 c1 98 01 00
	00		 add	 ecx, 408		; 00000198H
  0003c	e9 00 00 00 00	 jmp	 ??1?$CEncrypt@M@@UAE@XZ	; CEncrypt<float>::~CEncrypt<float>
__unwindfunclet$??1ioChargeFlashJump@@UAE@XZ$5:
  00041	8b 4d f0	 mov	 ecx, DWORD PTR _this$[ebp]
  00044	81 c1 d8 01 00
	00		 add	 ecx, 472		; 000001d8H
  0004a	ff 25 00 00 00
	00		 jmp	 DWORD PTR __imp_??1ioHashString@@QAE@XZ
__unwindfunclet$??1ioChargeFlashJump@@UAE@XZ$6:
  00050	8b 4d f0	 mov	 ecx, DWORD PTR _this$[ebp]
  00053	81 c1 ec 01 00
	00		 add	 ecx, 492		; 000001ecH
  00059	e9 00 00 00 00	 jmp	 ??1AttackAttribute@@QAE@XZ
__unwindfunclet$??1ioChargeFlashJump@@UAE@XZ$7:
  0005e	8b 4d f0	 mov	 ecx, DWORD PTR _this$[ebp]
  00061	81 c1 3c 02 00
	00		 add	 ecx, 572		; 0000023cH
  00067	e9 00 00 00 00	 jmp	 ??1AttackAttribute@@QAE@XZ
__unwindfunclet$??1ioChargeFlashJump@@UAE@XZ$8:
  0006c	8b 4d f0	 mov	 ecx, DWORD PTR _this$[ebp]
  0006f	81 c1 ac 02 00
	00		 add	 ecx, 684		; 000002acH
  00075	e9 00 00 00 00	 jmp	 ??1?$vector@VioHashString@@V?$allocator@VioHashString@@@std@@@std@@QAE@XZ ; std::vector<ioHashString,std::allocator<ioHashString> >::~vector<ioHashString,std::allocator<ioHashString> >
__unwindfunclet$??1ioChargeFlashJump@@UAE@XZ$9:
  0007a	8b 4d f0	 mov	 ecx, DWORD PTR _this$[ebp]
  0007d	81 c1 d4 02 00
	00		 add	 ecx, 724		; 000002d4H
  00083	e9 00 00 00 00	 jmp	 ??1AttackAttribute@@QAE@XZ
__ehhandler$??1ioChargeFlashJump@@UAE@XZ:
  00088	8b 54 24 08	 mov	 edx, DWORD PTR [esp+8]
  0008c	8d 42 0c	 lea	 eax, DWORD PTR [edx+12]
  0008f	8b 4a ec	 mov	 ecx, DWORD PTR [edx-20]
  00092	33 c8		 xor	 ecx, eax
  00094	e8 00 00 00 00	 call	 @__security_check_cookie@4
  00099	b8 00 00 00 00	 mov	 eax, OFFSET __ehfuncinfo$??1ioChargeFlashJump@@UAE@XZ
  0009e	e9 00 00 00 00	 jmp	 ___CxxFrameHandler3
text$x	ENDS
??1ioChargeFlashJump@@UAE@XZ ENDP			; ioChargeFlashJump::~ioChargeFlashJump
; Function compile flags: /Ogsp
;	COMDAT ??_GioChargeFlashJump@@UAEPAXI@Z
_TEXT	SEGMENT
___flags$ = 8						; size = 4
??_GioChargeFlashJump@@UAEPAXI@Z PROC			; ioChargeFlashJump::`scalar deleting destructor', COMDAT
; _this$ = ecx
  00000	55		 push	 ebp
  00001	8b ec		 mov	 ebp, esp
  00003	56		 push	 esi
  00004	8b f1		 mov	 esi, ecx
  00006	e8 00 00 00 00	 call	 ??1ioChargeFlashJump@@UAE@XZ ; ioChargeFlashJump::~ioChargeFlashJump
  0000b	f6 45 08 01	 test	 BYTE PTR ___flags$[ebp], 1
  0000f	74 07		 je	 SHORT $LN1@scalar@5
  00011	56		 push	 esi
  00012	e8 00 00 00 00	 call	 ??3@YAXPAX@Z		; operator delete
  00017	59		 pop	 ecx
$LN1@scalar@5:
  00018	8b c6		 mov	 eax, esi
  0001a	5e		 pop	 esi
  0001b	5d		 pop	 ebp
  0001c	c2 04 00	 ret	 4
??_GioChargeFlashJump@@UAEPAXI@Z ENDP			; ioChargeFlashJump::`scalar deleting destructor'
_TEXT	ENDS
END
