; Listing generated by Microsoft (R) Optimizing Compiler Version 16.00.30319.01 

	TITLE	D:\Lost Saga For Developer\Youtube\Tutorial\Source\src\LSClient\ioCircleMoveAttackSkill3.cpp
	.686P
	.XMM
	include listing.inc
	.model	flat

INCLUDELIB MSVCRT
INCLUDELIB OLDNAMES

PUBLIC	?_EEM_DS@?$deque@UD3DXVECTOR3@@V?$allocator@UD3DXVECTOR3@@@std@@@std@@2HB ; std::deque<D3DXVECTOR3,std::allocator<D3DXVECTOR3> >::_EEM_DS
;	COMDAT ?_EEM_DS@?$deque@UD3DXVECTOR3@@V?$allocator@UD3DXVECTOR3@@@std@@@std@@2HB
CONST	SEGMENT
?_EEM_DS@?$deque@UD3DXVECTOR3@@V?$allocator@UD3DXVECTOR3@@@std@@@std@@2HB DD 01H ; std::deque<D3DXVECTOR3,std::allocator<D3DXVECTOR3> >::_EEM_DS
CONST	ENDS
PUBLIC	?return1@@YAIXZ					; return1
; Function compile flags: /Ogsp
; File d:\lost saga for developer\youtube\tutorial\source\src\lsclient\stdafx.h
;	COMDAT ?return1@@YAIXZ
_TEXT	SEGMENT
?return1@@YAIXZ PROC					; return1, COMDAT

; 17   : 	__forceinline unsigned int return1() { __asm mov eax, 1 };

  00000	b8 01 00 00 00	 mov	 eax, 1
  00005	c3		 ret	 0
?return1@@YAIXZ ENDP					; return1
_TEXT	ENDS
PUBLIC	?return100@@YAIXZ				; return100
; Function compile flags: /Ogsp
;	COMDAT ?return100@@YAIXZ
_TEXT	SEGMENT
?return100@@YAIXZ PROC					; return100, COMDAT

; 25   : 	__forceinline unsigned int return100() { __asm mov eax, 100 };

  00000	b8 64 00 00 00	 mov	 eax, 100		; 00000064H
  00005	c3		 ret	 0
?return100@@YAIXZ ENDP					; return100
_TEXT	ENDS
PUBLIC	?return1000@@YAIXZ				; return1000
; Function compile flags: /Ogsp
;	COMDAT ?return1000@@YAIXZ
_TEXT	SEGMENT
?return1000@@YAIXZ PROC					; return1000, COMDAT

; 29   : 	__forceinline unsigned int return1000() { __asm mov eax, 1000 };

  00000	b8 e8 03 00 00	 mov	 eax, 1000		; 000003e8H
  00005	c3		 ret	 0
?return1000@@YAIXZ ENDP					; return1000
_TEXT	ENDS
PUBLIC	?GetCharName@ioBaseChar@@QBEABVioHashString@@XZ	; ioBaseChar::GetCharName
; Function compile flags: /Ogsp
; File d:\lost saga for developer\youtube\tutorial\source\src\lsclient\iobasechar.h
;	COMDAT ?GetCharName@ioBaseChar@@QBEABVioHashString@@XZ
_TEXT	SEGMENT
?GetCharName@ioBaseChar@@QBEABVioHashString@@XZ PROC	; ioBaseChar::GetCharName, COMDAT
; _this$ = ecx

; 2594 : 	inline const ioHashString& GetCharName() const { return m_Name; }

  00000	8d 81 d4 02 00
	00		 lea	 eax, DWORD PTR [ecx+724]
  00006	c3		 ret	 0
?GetCharName@ioBaseChar@@QBEABVioHashString@@XZ ENDP	; ioBaseChar::GetCharName
_TEXT	ENDS
PUBLIC	?GetTargetRot@ioBaseChar@@QBEABUD3DXQUATERNION@@XZ ; ioBaseChar::GetTargetRot
; Function compile flags: /Ogsp
;	COMDAT ?GetTargetRot@ioBaseChar@@QBEABUD3DXQUATERNION@@XZ
_TEXT	SEGMENT
?GetTargetRot@ioBaseChar@@QBEABUD3DXQUATERNION@@XZ PROC	; ioBaseChar::GetTargetRot, COMDAT
; _this$ = ecx

; 2599 : 	inline const D3DXQUATERNION& GetTargetRot() const { return m_qtTargetRot; }

  00000	8d 81 a4 06 00
	00		 lea	 eax, DWORD PTR [ecx+1700]
  00006	c3		 ret	 0
?GetTargetRot@ioBaseChar@@QBEABUD3DXQUATERNION@@XZ ENDP	; ioBaseChar::GetTargetRot
_TEXT	ENDS
PUBLIC	_fabsf
EXTRN	__fltused:DWORD
; Function compile flags: /Ogsp
; File c:\program files (x86)\microsoft visual studio 10.0\vc\include\math.h
;	COMDAT _fabsf
_TEXT	SEGMENT
tv129 = 8						; size = 4
__X$ = 8						; size = 4
_fabsf	PROC						; COMDAT

; 395  :         {return ((float)fabs((double)_X)); }

  00000	55		 push	 ebp
  00001	8b ec		 mov	 ebp, esp
  00003	d9 45 08	 fld	 DWORD PTR __X$[ebp]
  00006	d9 e1		 fabs
  00008	d9 5d 08	 fstp	 DWORD PTR tv129[ebp]
  0000b	d9 45 08	 fld	 DWORD PTR tv129[ebp]
  0000e	5d		 pop	 ebp
  0000f	c3		 ret	 0
_fabsf	ENDP
_TEXT	ENDS
PUBLIC	?SetCurJumpPowerAmt@ioBaseChar@@QAEXM@Z		; ioBaseChar::SetCurJumpPowerAmt
; Function compile flags: /Ogsp
; File d:\lost saga for developer\youtube\tutorial\source\src\lsclient\iobasechar.h
;	COMDAT ?SetCurJumpPowerAmt@ioBaseChar@@QAEXM@Z
_TEXT	SEGMENT
_fAmt$ = 8						; size = 4
?SetCurJumpPowerAmt@ioBaseChar@@QAEXM@Z PROC		; ioBaseChar::SetCurJumpPowerAmt, COMDAT
; _this$ = ecx

; 2628 : 	inline void SetCurJumpPowerAmt( float fAmt ) { m_fCurJumpPowerAmt = fAmt; }

  00000	55		 push	 ebp
  00001	8b ec		 mov	 ebp, esp
  00003	f3 0f 10 45 08	 movss	 xmm0, DWORD PTR _fAmt$[ebp]
  00008	f3 0f 11 81 90
	0e 00 00	 movss	 DWORD PTR [ecx+3728], xmm0
  00010	5d		 pop	 ebp
  00011	c2 04 00	 ret	 4
?SetCurJumpPowerAmt@ioBaseChar@@QAEXM@Z ENDP		; ioBaseChar::SetCurJumpPowerAmt
_TEXT	ENDS
PUBLIC	_sqrtf
EXTRN	__CIsqrt:PROC
; Function compile flags: /Ogsp
; File c:\program files (x86)\microsoft visual studio 10.0\vc\include\math.h
;	COMDAT _sqrtf
_TEXT	SEGMENT
tv69 = 8						; size = 4
__X$ = 8						; size = 4
_sqrtf	PROC						; COMDAT

; 434  :         {return ((float)sqrt((double)_X)); }

  00000	55		 push	 ebp
  00001	8b ec		 mov	 ebp, esp
  00003	d9 45 08	 fld	 DWORD PTR __X$[ebp]
  00006	e8 00 00 00 00	 call	 __CIsqrt
  0000b	d9 5d 08	 fstp	 DWORD PTR tv69[ebp]
  0000e	d9 45 08	 fld	 DWORD PTR tv69[ebp]
  00011	5d		 pop	 ebp
  00012	c3		 ret	 0
_sqrtf	ENDP
_TEXT	ENDS
PUBLIC	?sqrt@@YAMM@Z					; sqrt
; Function compile flags: /Ogsp
;	COMDAT ?sqrt@@YAMM@Z
_TEXT	SEGMENT
tv73 = 8						; size = 4
__X$ = 8						; size = 4
?sqrt@@YAMM@Z PROC					; sqrt, COMDAT

; 542  :         {return (sqrtf(_X)); }

  00000	55		 push	 ebp
  00001	8b ec		 mov	 ebp, esp
  00003	d9 45 08	 fld	 DWORD PTR __X$[ebp]
  00006	e8 00 00 00 00	 call	 __CIsqrt
  0000b	d9 5d 08	 fstp	 DWORD PTR tv73[ebp]
  0000e	d9 45 08	 fld	 DWORD PTR tv73[ebp]
  00011	5d		 pop	 ebp
  00012	c3		 ret	 0
?sqrt@@YAMM@Z ENDP					; sqrt
_TEXT	ENDS
PUBLIC	??_7bad_alloc@std@@6B@				; std::bad_alloc::`vftable'
PUBLIC	??0bad_alloc@std@@QAE@PBD@Z			; std::bad_alloc::bad_alloc
PUBLIC	??_R4bad_alloc@std@@6B@				; std::bad_alloc::`RTTI Complete Object Locator'
PUBLIC	??_R0?AVbad_alloc@std@@@8			; std::bad_alloc `RTTI Type Descriptor'
PUBLIC	??_R3bad_alloc@std@@8				; std::bad_alloc::`RTTI Class Hierarchy Descriptor'
PUBLIC	??_R2bad_alloc@std@@8				; std::bad_alloc::`RTTI Base Class Array'
PUBLIC	??_R1A@?0A@EA@bad_alloc@std@@8			; std::bad_alloc::`RTTI Base Class Descriptor at (0,-1,0,64)'
PUBLIC	??_R1A@?0A@EA@exception@std@@8			; std::exception::`RTTI Base Class Descriptor at (0,-1,0,64)'
PUBLIC	??_R0?AVexception@std@@@8			; std::exception `RTTI Type Descriptor'
PUBLIC	??_R3exception@std@@8				; std::exception::`RTTI Class Hierarchy Descriptor'
PUBLIC	??_R2exception@std@@8				; std::exception::`RTTI Base Class Array'
EXTRN	__imp_??0exception@std@@QAE@ABQBD@Z:PROC
EXTRN	??_7type_info@@6B@:QWORD			; type_info::`vftable'
EXTRN	??_Ebad_alloc@std@@UAEPAXI@Z:PROC		; std::bad_alloc::`vector deleting destructor'
EXTRN	?what@exception@std@@UBEPBDXZ:PROC		; std::exception::what
;	COMDAT ??_R2exception@std@@8
; File c:\program files (x86)\microsoft visual studio 10.0\vc\include\exception
rdata$r	SEGMENT
??_R2exception@std@@8 DD FLAT:??_R1A@?0A@EA@exception@std@@8 ; std::exception::`RTTI Base Class Array'
rdata$r	ENDS
;	COMDAT ??_R3exception@std@@8
rdata$r	SEGMENT
??_R3exception@std@@8 DD 00H				; std::exception::`RTTI Class Hierarchy Descriptor'
	DD	00H
	DD	01H
	DD	FLAT:??_R2exception@std@@8
rdata$r	ENDS
;	COMDAT ??_R0?AVexception@std@@@8
_DATA	SEGMENT
??_R0?AVexception@std@@@8 DD FLAT:??_7type_info@@6B@	; std::exception `RTTI Type Descriptor'
	DD	00H
	DB	'.?AVexception@std@@', 00H
_DATA	ENDS
;	COMDAT ??_R1A@?0A@EA@exception@std@@8
rdata$r	SEGMENT
??_R1A@?0A@EA@exception@std@@8 DD FLAT:??_R0?AVexception@std@@@8 ; std::exception::`RTTI Base Class Descriptor at (0,-1,0,64)'
	DD	00H
	DD	00H
	DD	0ffffffffH
	DD	00H
	DD	040H
	DD	FLAT:??_R3exception@std@@8
rdata$r	ENDS
;	COMDAT ??_R1A@?0A@EA@bad_alloc@std@@8
rdata$r	SEGMENT
??_R1A@?0A@EA@bad_alloc@std@@8 DD FLAT:??_R0?AVbad_alloc@std@@@8 ; std::bad_alloc::`RTTI Base Class Descriptor at (0,-1,0,64)'
	DD	01H
	DD	00H
	DD	0ffffffffH
	DD	00H
	DD	040H
	DD	FLAT:??_R3bad_alloc@std@@8
rdata$r	ENDS
;	COMDAT ??_R2bad_alloc@std@@8
rdata$r	SEGMENT
??_R2bad_alloc@std@@8 DD FLAT:??_R1A@?0A@EA@bad_alloc@std@@8 ; std::bad_alloc::`RTTI Base Class Array'
	DD	FLAT:??_R1A@?0A@EA@exception@std@@8
rdata$r	ENDS
;	COMDAT ??_R3bad_alloc@std@@8
rdata$r	SEGMENT
??_R3bad_alloc@std@@8 DD 00H				; std::bad_alloc::`RTTI Class Hierarchy Descriptor'
	DD	00H
	DD	02H
	DD	FLAT:??_R2bad_alloc@std@@8
rdata$r	ENDS
;	COMDAT ??_R0?AVbad_alloc@std@@@8
_DATA	SEGMENT
??_R0?AVbad_alloc@std@@@8 DD FLAT:??_7type_info@@6B@	; std::bad_alloc `RTTI Type Descriptor'
	DD	00H
	DB	'.?AVbad_alloc@std@@', 00H
_DATA	ENDS
;	COMDAT ??_R4bad_alloc@std@@6B@
rdata$r	SEGMENT
??_R4bad_alloc@std@@6B@ DD 00H				; std::bad_alloc::`RTTI Complete Object Locator'
	DD	00H
	DD	00H
	DD	FLAT:??_R0?AVbad_alloc@std@@@8
	DD	FLAT:??_R3bad_alloc@std@@8
rdata$r	ENDS
;	COMDAT ??_7bad_alloc@std@@6B@
CONST	SEGMENT
??_7bad_alloc@std@@6B@ DD FLAT:??_R4bad_alloc@std@@6B@	; std::bad_alloc::`vftable'
	DD	FLAT:??_Ebad_alloc@std@@UAEPAXI@Z
	DD	FLAT:?what@exception@std@@UBEPBDXZ
; Function compile flags: /Ogsp
CONST	ENDS
;	COMDAT ??0bad_alloc@std@@QAE@PBD@Z
_TEXT	SEGMENT
__Message$ = 8						; size = 4
??0bad_alloc@std@@QAE@PBD@Z PROC			; std::bad_alloc::bad_alloc, COMDAT
; _this$ = ecx

; 345  : 		{	// construct from message string

  00000	55		 push	 ebp
  00001	8b ec		 mov	 ebp, esp
  00003	56		 push	 esi
  00004	8d 45 08	 lea	 eax, DWORD PTR __Message$[ebp]
  00007	50		 push	 eax
  00008	8b f1		 mov	 esi, ecx
  0000a	ff 15 00 00 00
	00		 call	 DWORD PTR __imp_??0exception@std@@QAE@ABQBD@Z
  00010	c7 06 00 00 00
	00		 mov	 DWORD PTR [esi], OFFSET ??_7bad_alloc@std@@6B@

; 346  : 		}

  00016	8b c6		 mov	 eax, esi
  00018	5e		 pop	 esi
  00019	5d		 pop	 ebp
  0001a	c2 04 00	 ret	 4
??0bad_alloc@std@@QAE@PBD@Z ENDP			; std::bad_alloc::bad_alloc
_TEXT	ENDS
PUBLIC	??1bad_alloc@std@@UAE@XZ			; std::bad_alloc::~bad_alloc
EXTRN	__imp_??1exception@std@@UAE@XZ:PROC
; Function compile flags: /Ogsp
;	COMDAT ??1bad_alloc@std@@UAE@XZ
_TEXT	SEGMENT
??1bad_alloc@std@@UAE@XZ PROC				; std::bad_alloc::~bad_alloc, COMDAT
; _this$ = ecx

; 354  : 		{	// destroy the object

  00000	c7 01 00 00 00
	00		 mov	 DWORD PTR [ecx], OFFSET ??_7bad_alloc@std@@6B@

; 355  : 		}

  00006	ff 25 00 00 00
	00		 jmp	 DWORD PTR __imp_??1exception@std@@UAE@XZ
??1bad_alloc@std@@UAE@XZ ENDP				; std::bad_alloc::~bad_alloc
_TEXT	ENDS
EXTRN	??3@YAXPAX@Z:PROC				; operator delete
; Function compile flags: /Ogsp
;	COMDAT ??_Gbad_alloc@std@@UAEPAXI@Z
_TEXT	SEGMENT
___flags$ = 8						; size = 4
??_Gbad_alloc@std@@UAEPAXI@Z PROC			; std::bad_alloc::`scalar deleting destructor', COMDAT
; _this$ = ecx
  00000	55		 push	 ebp
  00001	8b ec		 mov	 ebp, esp
  00003	56		 push	 esi
  00004	8b f1		 mov	 esi, ecx
  00006	c7 06 00 00 00
	00		 mov	 DWORD PTR [esi], OFFSET ??_7bad_alloc@std@@6B@
  0000c	ff 15 00 00 00
	00		 call	 DWORD PTR __imp_??1exception@std@@UAE@XZ
  00012	f6 45 08 01	 test	 BYTE PTR ___flags$[ebp], 1
  00016	74 07		 je	 SHORT $LN1@scalar
  00018	56		 push	 esi
  00019	e8 00 00 00 00	 call	 ??3@YAXPAX@Z		; operator delete
  0001e	59		 pop	 ecx
$LN1@scalar:
  0001f	8b c6		 mov	 eax, esi
  00021	5e		 pop	 esi
  00022	5d		 pop	 ebp
  00023	c2 04 00	 ret	 4
??_Gbad_alloc@std@@UAEPAXI@Z ENDP			; std::bad_alloc::`scalar deleting destructor'
_TEXT	ENDS
PUBLIC	??2@YAPAXIPAX@Z					; operator new
; Function compile flags: /Ogsp
; File c:\program files (x86)\microsoft visual studio 10.0\vc\include\new
;	COMDAT ??2@YAPAXIPAX@Z
_TEXT	SEGMENT
___formal$ = 8						; size = 4
__Where$ = 12						; size = 4
??2@YAPAXIPAX@Z PROC					; operator new, COMDAT

; 56   : 	{	// construct array with placement at _Where

  00000	55		 push	 ebp
  00001	8b ec		 mov	 ebp, esp

; 57   : 	return (_Where);

  00003	8b 45 0c	 mov	 eax, DWORD PTR __Where$[ebp]

; 58   : 	}

  00006	5d		 pop	 ebp
  00007	c3		 ret	 0
??2@YAPAXIPAX@Z ENDP					; operator new
_TEXT	ENDS
PUBLIC	??3@YAXPAX0@Z					; operator delete
; Function compile flags: /Ogsp
;	COMDAT ??3@YAXPAX0@Z
_TEXT	SEGMENT
___formal$ = 8						; size = 4
___formal$ = 12						; size = 4
??3@YAXPAX0@Z PROC					; operator delete, COMDAT

; 62   : 	}

  00000	c3		 ret	 0
??3@YAXPAX0@Z ENDP					; operator delete
_TEXT	ENDS
PUBLIC	?CheckGhostState@ioBaseChar@@QBE_NXZ		; ioBaseChar::CheckGhostState
; Function compile flags: /Ogsp
; File d:\lost saga for developer\youtube\tutorial\source\src\lsclient\iobasechar.h
;	COMDAT ?CheckGhostState@ioBaseChar@@QBE_NXZ
_TEXT	SEGMENT
?CheckGhostState@ioBaseChar@@QBE_NXZ PROC		; ioBaseChar::CheckGhostState, COMDAT
; _this$ = ecx

; 4031 : 	inline bool CheckGhostState() const { return m_bUseGhostState; }

  00000	8a 81 e4 38 00
	00		 mov	 al, BYTE PTR [ecx+14564]
  00006	c3		 ret	 0
?CheckGhostState@ioBaseChar@@QBE_NXZ ENDP		; ioBaseChar::CheckGhostState
_TEXT	ENDS
PUBLIC	?GetPreHeightForGhostState@ioBaseChar@@QBEMXZ	; ioBaseChar::GetPreHeightForGhostState
; Function compile flags: /Ogsp
;	COMDAT ?GetPreHeightForGhostState@ioBaseChar@@QBEMXZ
_TEXT	SEGMENT
?GetPreHeightForGhostState@ioBaseChar@@QBEMXZ PROC	; ioBaseChar::GetPreHeightForGhostState, COMDAT
; _this$ = ecx

; 4033 : 	float GetPreHeightForGhostState() const { return m_fPreHeightForGhostState; }

  00000	d9 81 e0 38 00
	00		 fld	 DWORD PTR [ecx+14560]
  00006	c3		 ret	 0
?GetPreHeightForGhostState@ioBaseChar@@QBEMXZ ENDP	; ioBaseChar::GetPreHeightForGhostState
_TEXT	ENDS
PUBLIC	??_R0?AVioWeapon@@@8				; ioWeapon `RTTI Type Descriptor'
PUBLIC	??_R0?AVioZoneEffectWeapon@@@8			; ioZoneEffectWeapon `RTTI Type Descriptor'
PUBLIC	?ToZoneEffectWeapon@@YAPAVioZoneEffectWeapon@@PAVioWeapon@@@Z ; ToZoneEffectWeapon
EXTRN	___RTDynamicCast:PROC
;	COMDAT ??_R0?AVioWeapon@@@8
; File d:\lost saga for developer\youtube\tutorial\source\src\lsclient\iozoneeffectweapon.h
_DATA	SEGMENT
??_R0?AVioWeapon@@@8 DD FLAT:??_7type_info@@6B@		; ioWeapon `RTTI Type Descriptor'
	DD	00H
	DB	'.?AVioWeapon@@', 00H
_DATA	ENDS
;	COMDAT ??_R0?AVioZoneEffectWeapon@@@8
_DATA	SEGMENT
??_R0?AVioZoneEffectWeapon@@@8 DD FLAT:??_7type_info@@6B@ ; ioZoneEffectWeapon `RTTI Type Descriptor'
	DD	00H
	DB	'.?AVioZoneEffectWeapon@@', 00H
; Function compile flags: /Ogsp
_DATA	ENDS
;	COMDAT ?ToZoneEffectWeapon@@YAPAVioZoneEffectWeapon@@PAVioWeapon@@@Z
_TEXT	SEGMENT
_pWeapon$ = 8						; size = 4
?ToZoneEffectWeapon@@YAPAVioZoneEffectWeapon@@PAVioWeapon@@@Z PROC ; ToZoneEffectWeapon, COMDAT

; 217  : {

  00000	55		 push	 ebp
  00001	8b ec		 mov	 ebp, esp
  00003	56		 push	 esi

; 218  : 	if( !pWeapon || pWeapon->GetType() != ioWeapon::WT_ZONE_EFFECT )

  00004	8b 75 08	 mov	 esi, DWORD PTR _pWeapon$[ebp]
  00007	85 f6		 test	 esi, esi
  00009	74 28		 je	 SHORT $LN1@ToZoneEffe
  0000b	8b 06		 mov	 eax, DWORD PTR [esi]
  0000d	8b ce		 mov	 ecx, esi
  0000f	ff 90 10 01 00
	00		 call	 DWORD PTR [eax+272]
  00015	83 f8 08	 cmp	 eax, 8
  00018	75 19		 jne	 SHORT $LN1@ToZoneEffe

; 220  : 
; 221  : 	return dynamic_cast< ioZoneEffectWeapon* >( pWeapon );

  0001a	6a 00		 push	 0
  0001c	68 00 00 00 00	 push	 OFFSET ??_R0?AVioZoneEffectWeapon@@@8
  00021	68 00 00 00 00	 push	 OFFSET ??_R0?AVioWeapon@@@8
  00026	6a 00		 push	 0
  00028	56		 push	 esi
  00029	e8 00 00 00 00	 call	 ___RTDynamicCast
  0002e	83 c4 14	 add	 esp, 20			; 00000014H
  00031	eb 02		 jmp	 SHORT $LN3@ToZoneEffe
$LN1@ToZoneEffe:

; 219  : 		return NULL;

  00033	33 c0		 xor	 eax, eax
$LN3@ToZoneEffe:
  00035	5e		 pop	 esi

; 222  : }

  00036	5d		 pop	 ebp
  00037	c3		 ret	 0
?ToZoneEffectWeapon@@YAPAVioZoneEffectWeapon@@PAVioWeapon@@@Z ENDP ; ToZoneEffectWeapon
_TEXT	ENDS
PUBLIC	?_Adopt@_Iterator_base0@std@@QAEXPBX@Z		; std::_Iterator_base0::_Adopt
; Function compile flags: /Ogsp
; File c:\program files (x86)\microsoft visual studio 10.0\vc\include\xutility
;	COMDAT ?_Adopt@_Iterator_base0@std@@QAEXPBX@Z
_TEXT	SEGMENT
___formal$ = 8						; size = 4
?_Adopt@_Iterator_base0@std@@QAEXPBX@Z PROC		; std::_Iterator_base0::_Adopt, COMDAT
; _this$ = ecx

; 49   : 		}

  00000	c2 04 00	 ret	 4
?_Adopt@_Iterator_base0@std@@QAEXPBX@Z ENDP		; std::_Iterator_base0::_Adopt
_TEXT	ENDS
PUBLIC	?StartPreDelayAnimation@ioCircleMoveAttackSkill3@@MAE_NPAVioBaseChar@@@Z ; ioCircleMoveAttackSkill3::StartPreDelayAnimation
EXTRN	?StartPreDelayAnimation@ioNormalSkill@@MAE_NPAVioBaseChar@@@Z:PROC ; ioNormalSkill::StartPreDelayAnimation
; Function compile flags: /Ogsp
; File d:\lost saga for developer\youtube\tutorial\source\src\lsclient\iocirclemoveattackskill3.cpp
;	COMDAT ?StartPreDelayAnimation@ioCircleMoveAttackSkill3@@MAE_NPAVioBaseChar@@@Z
_TEXT	SEGMENT
_pChar$ = 8						; size = 4
?StartPreDelayAnimation@ioCircleMoveAttackSkill3@@MAE_NPAVioBaseChar@@@Z PROC ; ioCircleMoveAttackSkill3::StartPreDelayAnimation, COMDAT
; _this$ = ecx

; 292  : {

  00000	55		 push	 ebp
  00001	8b ec		 mov	 ebp, esp

; 293  : 	if( !ioNormalSkill::StartPreDelayAnimation( pChar ) )

  00003	ff 75 08	 push	 DWORD PTR _pChar$[ebp]
  00006	e8 00 00 00 00	 call	 ?StartPreDelayAnimation@ioNormalSkill@@MAE_NPAVioBaseChar@@@Z ; ioNormalSkill::StartPreDelayAnimation
  0000b	84 c0		 test	 al, al
  0000d	0f 95 c0	 setne	 al

; 294  : 		return false;
; 295  : 
; 296  : 	return true;
; 297  : }

  00010	5d		 pop	 ebp
  00011	c2 04 00	 ret	 4
?StartPreDelayAnimation@ioCircleMoveAttackSkill3@@MAE_NPAVioBaseChar@@@Z ENDP ; ioCircleMoveAttackSkill3::StartPreDelayAnimation
_TEXT	ENDS
PUBLIC	?SetPreAction@ioCircleMoveAttackSkill3@@IAEXPAVioBaseChar@@@Z ; ioCircleMoveAttackSkill3::SetPreAction
; Function compile flags: /Ogsp
;	COMDAT ?SetPreAction@ioCircleMoveAttackSkill3@@IAEXPAVioBaseChar@@@Z
_TEXT	SEGMENT
_pChar$ = 8						; size = 4
?SetPreAction@ioCircleMoveAttackSkill3@@IAEXPAVioBaseChar@@@Z PROC ; ioCircleMoveAttackSkill3::SetPreAction, COMDAT
; _this$ = ecx

; 331  : {

  00000	55		 push	 ebp
  00001	8b ec		 mov	 ebp, esp
  00003	56		 push	 esi

; 332  : 	EndPreDelayEffect( pChar );

  00004	ff 75 08	 push	 DWORD PTR _pChar$[ebp]
  00007	8b f1		 mov	 esi, ecx
  00009	8b 06		 mov	 eax, DWORD PTR [esi]
  0000b	ff 90 dc 00 00
	00		 call	 DWORD PTR [eax+220]

; 333  : 	SetNormalSkill( pChar );

  00011	ff 75 08	 push	 DWORD PTR _pChar$[ebp]
  00014	8b 06		 mov	 eax, DWORD PTR [esi]
  00016	8b ce		 mov	 ecx, esi
  00018	ff 90 8c 01 00
	00		 call	 DWORD PTR [eax+396]
  0001e	5e		 pop	 esi

; 334  : }

  0001f	5d		 pop	 ebp
  00020	c2 04 00	 ret	 4
?SetPreAction@ioCircleMoveAttackSkill3@@IAEXPAVioBaseChar@@@Z ENDP ; ioCircleMoveAttackSkill3::SetPreAction
_TEXT	ENDS
PUBLIC	?CheckUseItemMesh@ioCircleMoveAttackSkill3@@UAE_NXZ ; ioCircleMoveAttackSkill3::CheckUseItemMesh
; Function compile flags: /Ogsp
;	COMDAT ?CheckUseItemMesh@ioCircleMoveAttackSkill3@@UAE_NXZ
_TEXT	SEGMENT
?CheckUseItemMesh@ioCircleMoveAttackSkill3@@UAE_NXZ PROC ; ioCircleMoveAttackSkill3::CheckUseItemMesh, COMDAT
; _this$ = ecx

; 535  : 	return m_bUseItemMesh;

  00000	8a 81 08 0f 00
	00		 mov	 al, BYTE PTR [ecx+3848]

; 536  : }

  00006	c3		 ret	 0
?CheckUseItemMesh@ioCircleMoveAttackSkill3@@UAE_NXZ ENDP ; ioCircleMoveAttackSkill3::CheckUseItemMesh
_TEXT	ENDS
PUBLIC	__real@00000000
PUBLIC	?CheckLanding@ioCircleMoveAttackSkill3@@IAE_NPAVioBaseChar@@@Z ; ioCircleMoveAttackSkill3::CheckLanding
EXTRN	?IsDownState@ioBaseChar@@QAE_NXZ:PROC		; ioBaseChar::IsDownState
EXTRN	?GetBottomHeight@ioGameEntity@@QBEMXZ:PROC	; ioGameEntity::GetBottomHeight
EXTRN	__imp_?GetLoopSec@ioFrameTimer@@QBEKXZ:PROC
EXTRN	__imp_?GetSingleton@ioFrameTimer@@SAAAV1@XZ:PROC
;	COMDAT __real@00000000
; File d:\lost saga for developer\youtube\tutorial\source\src\lsclient\iobasechar.h
CONST	SEGMENT
__real@00000000 DD 000000000r			; 0
; Function compile flags: /Ogsp
; File d:\lost saga for developer\youtube\tutorial\source\src\lsclient\iocirclemoveattackskill3.cpp
CONST	ENDS
;	COMDAT ?CheckLanding@ioCircleMoveAttackSkill3@@IAE_NPAVioBaseChar@@@Z
_TEXT	SEGMENT
tv91 = -8						; size = 8
$T552289 = 8						; size = 4
_fHeightGap$ = 8					; size = 4
_pChar$ = 8						; size = 4
?CheckLanding@ioCircleMoveAttackSkill3@@IAE_NPAVioBaseChar@@@Z PROC ; ioCircleMoveAttackSkill3::CheckLanding, COMDAT
; _this$ = ecx

; 539  : {

  00000	55		 push	 ebp
  00001	8b ec		 mov	 ebp, esp
  00003	51		 push	 ecx
  00004	51		 push	 ecx
  00005	56		 push	 esi

; 540  : 	if( !pChar ) return true;

  00006	8b 75 08	 mov	 esi, DWORD PTR _pChar$[ebp]
  00009	85 f6		 test	 esi, esi
  0000b	75 04		 jne	 SHORT $LN5@CheckLandi
$LN12@CheckLandi:
  0000d	b0 01		 mov	 al, 1
  0000f	eb 76		 jmp	 SHORT $LN6@CheckLandi
$LN5@CheckLandi:

; 541  : 
; 542  : 	DWORD dwCurTime = FRAMEGETTIME();

  00011	ff 15 00 00 00
	00		 call	 DWORD PTR __imp_?GetSingleton@ioFrameTimer@@SAAAV1@XZ
  00017	8b c8		 mov	 ecx, eax
  00019	ff 15 00 00 00
	00		 call	 DWORD PTR __imp_?GetLoopSec@ioFrameTimer@@QBEKXZ

; 543  : 
; 544  : 	float fHeightGap = 0.0f;
; 545  : 	if( pChar->CheckGhostState() )

  0001f	80 be e4 38 00
	00 00		 cmp	 BYTE PTR [esi+14564], 0

; 546  : 		fHeightGap = pChar->GetWorldPosition().y - pChar->GetPreHeightForGhostState();

  00026	8b 06		 mov	 eax, DWORD PTR [esi]
  00028	8b ce		 mov	 ecx, esi
  0002a	74 2a		 je	 SHORT $LN4@CheckLandi
  0002c	f3 0f 10 86 e0
	38 00 00	 movss	 xmm0, DWORD PTR [esi+14560]
  00034	f3 0f 11 45 08	 movss	 DWORD PTR $T552289[ebp], xmm0
  00039	ff 50 70	 call	 DWORD PTR [eax+112]
  0003c	f3 0f 10 40 04	 movss	 xmm0, DWORD PTR [eax+4]
  00041	f3 0f 10 4d 08	 movss	 xmm1, DWORD PTR $T552289[ebp]
  00046	0f 5a c0	 cvtps2pd xmm0, xmm0
  00049	0f 5a c9	 cvtps2pd xmm1, xmm1
  0004c	f2 0f 5c c1	 subsd	 xmm0, xmm1
  00050	66 0f 5a c0	 cvtpd2ps xmm0, xmm0

; 547  : 	else

  00054	eb 1b		 jmp	 SHORT $LN3@CheckLandi
$LN4@CheckLandi:

; 548  : 		fHeightGap = pChar->GetWorldPosition().y - pChar->GetBottomHeight();

  00056	ff 50 70	 call	 DWORD PTR [eax+112]
  00059	d9 40 04	 fld	 DWORD PTR [eax+4]
  0005c	8b ce		 mov	 ecx, esi
  0005e	dd 5d f8	 fstp	 QWORD PTR tv91[ebp]
  00061	e8 00 00 00 00	 call	 ?GetBottomHeight@ioGameEntity@@QBEMXZ ; ioGameEntity::GetBottomHeight
  00066	dc 6d f8	 fsubr	 QWORD PTR tv91[ebp]
  00069	d9 5d 08	 fstp	 DWORD PTR _fHeightGap$[ebp]
  0006c	f3 0f 10 45 08	 movss	 xmm0, DWORD PTR _fHeightGap$[ebp]
$LN3@CheckLandi:

; 549  : 	
; 550  : 	if( fHeightGap > 0.0f || !pChar->IsDownState() )

  00071	0f 2f 05 00 00
	00 00		 comiss	 xmm0, DWORD PTR __real@00000000
  00078	77 0b		 ja	 SHORT $LN1@CheckLandi
  0007a	8b ce		 mov	 ecx, esi
  0007c	e8 00 00 00 00	 call	 ?IsDownState@ioBaseChar@@QAE_NXZ ; ioBaseChar::IsDownState
  00081	84 c0		 test	 al, al

; 553  : 	}
; 554  : 
; 555  : 	return true;

  00083	75 88		 jne	 SHORT $LN12@CheckLandi
$LN1@CheckLandi:

; 551  : 	{
; 552  : 		return false;

  00085	32 c0		 xor	 al, al
$LN6@CheckLandi:
  00087	5e		 pop	 esi

; 556  : }

  00088	c9		 leave
  00089	c2 04 00	 ret	 4
?CheckLanding@ioCircleMoveAttackSkill3@@IAE_NPAVioBaseChar@@@Z ENDP ; ioCircleMoveAttackSkill3::CheckLanding
_TEXT	ENDS
PUBLIC	__real@4000000000000000
PUBLIC	__mask@@AbsDouble@
PUBLIC	?GetFlightDuration@ioCircleMoveAttackSkill3@@IAEMABUD3DXVECTOR3@@M@Z ; ioCircleMoveAttackSkill3::GetFlightDuration
;	COMDAT __real@4000000000000000
; File c:\program files (x86)\microsoft visual studio 10.0\vc\include\math.h
CONST	SEGMENT
__real@4000000000000000 DQ 04000000000000000r	; 2
CONST	ENDS
;	COMDAT __mask@@AbsDouble@
CONST	SEGMENT
__mask@@AbsDouble@ DB 0ffH, 0ffH, 0ffH, 0ffH, 0ffH, 0ffH, 0ffH, 07fH, 0ffH
	DB	0ffH, 0ffH, 0ffH, 0ffH, 0ffH, 0ffH, 07fH
; Function compile flags: /Ogsp
; File d:\lost saga for developer\youtube\tutorial\source\src\lsclient\iocirclemoveattackskill3.cpp
CONST	ENDS
;	COMDAT ?GetFlightDuration@ioCircleMoveAttackSkill3@@IAEMABUD3DXVECTOR3@@M@Z
_TEXT	SEGMENT
$T552298 = -8						; size = 4
_fGapTime$ = -4						; size = 4
_fNewGravity$ = 8					; size = 4
_vCharPos$ = 8						; size = 4
_fCurGravity$ = 12					; size = 4
?GetFlightDuration@ioCircleMoveAttackSkill3@@IAEMABUD3DXVECTOR3@@M@Z PROC ; ioCircleMoveAttackSkill3::GetFlightDuration, COMDAT
; _this$ = ecx

; 615  : {

  00000	55		 push	 ebp
  00001	8b ec		 mov	 ebp, esp
  00003	51		 push	 ecx
  00004	51		 push	 ecx

; 616  : 	float fGapHeight = fabsf(vCharPos.y-m_vCirclePos.y);

  00005	8b 45 08	 mov	 eax, DWORD PTR _vCharPos$[ebp]
  00008	f3 0f 10 40 04	 movss	 xmm0, DWORD PTR [eax+4]
  0000d	f3 0f 10 89 5c
	10 00 00	 movss	 xmm1, DWORD PTR [ecx+4188]

; 617  : 	float fGapTime = 0.0f;
; 618  : 
; 619  : 	float fNewGravity = fCurGravity * GetSkillGravityRate();

  00015	8b 01		 mov	 eax, DWORD PTR [ecx]
  00017	0f 5a c0	 cvtps2pd xmm0, xmm0
  0001a	0f 5a c9	 cvtps2pd xmm1, xmm1
  0001d	f2 0f 5c c1	 subsd	 xmm0, xmm1
  00021	66 0f 5a c0	 cvtpd2ps xmm0, xmm0
  00025	f3 0f 11 45 f8	 movss	 DWORD PTR $T552298[ebp], xmm0
  0002a	0f 57 c0	 xorps	 xmm0, xmm0
  0002d	f3 0f 11 45 fc	 movss	 DWORD PTR _fGapTime$[ebp], xmm0
  00032	ff 90 1c 01 00
	00		 call	 DWORD PTR [eax+284]
  00038	d8 4d 0c	 fmul	 DWORD PTR _fCurGravity$[ebp]
  0003b	d9 5d 08	 fstp	 DWORD PTR _fNewGravity$[ebp]

; 620  : 	if( fNewGravity > 0.0f )

  0003e	d9 ee		 fldz
  00040	d9 45 08	 fld	 DWORD PTR _fNewGravity$[ebp]
  00043	df f1		 fcomip	 ST(1)
  00045	dd d8		 fstp	 ST(0)
  00047	76 45		 jbe	 SHORT $LN1@GetFlightD

; 621  : 	{
; 622  : 		fGapTime = sqrt( 2.0f*fGapHeight/fNewGravity );

  00049	f2 0f 10 0d 00
	00 00 00	 movsd	 xmm1, QWORD PTR __mask@@AbsDouble@
  00051	f3 0f 10 45 f8	 movss	 xmm0, DWORD PTR $T552298[ebp]
  00056	0f 5a c0	 cvtps2pd xmm0, xmm0
  00059	66 0f 54 c1	 andpd	 xmm0, xmm1
  0005d	f3 0f 10 4d 08	 movss	 xmm1, DWORD PTR _fNewGravity$[ebp]
  00062	f2 0f 5a c0	 cvtsd2ss xmm0, xmm0
  00066	f3 0f 5a c0	 cvtss2sd xmm0, xmm0
  0006a	f2 0f 59 05 00
	00 00 00	 mulsd	 xmm0, QWORD PTR __real@4000000000000000
  00072	0f 5a c9	 cvtps2pd xmm1, xmm1
  00075	f2 0f 5e c1	 divsd	 xmm0, xmm1
  00079	f2 0f 5a c0	 cvtsd2ss xmm0, xmm0
  0007d	f3 0f 5a c0	 cvtss2sd xmm0, xmm0
  00081	f2 0f 51 c0	 sqrtsd	 xmm0, xmm0
  00085	f2 0f 5a c0	 cvtsd2ss xmm0, xmm0
  00089	f3 0f 11 45 fc	 movss	 DWORD PTR _fGapTime$[ebp], xmm0
$LN1@GetFlightD:

; 623  : 	}
; 624  : 
; 625  : 	return fGapTime;

  0008e	d9 45 fc	 fld	 DWORD PTR _fGapTime$[ebp]

; 626  : }

  00091	c9		 leave
  00092	c2 08 00	 ret	 8
?GetFlightDuration@ioCircleMoveAttackSkill3@@IAEMABUD3DXVECTOR3@@M@Z ENDP ; ioCircleMoveAttackSkill3::GetFlightDuration
_TEXT	ENDS
PUBLIC	??0D3DXVECTOR3@@QAE@XZ				; D3DXVECTOR3::D3DXVECTOR3
; Function compile flags: /Ogsp
; File c:\program files (x86)\microsoft directx sdk (june 2010)\include\d3dx9math.h
;	COMDAT ??0D3DXVECTOR3@@QAE@XZ
_TEXT	SEGMENT
??0D3DXVECTOR3@@QAE@XZ PROC				; D3DXVECTOR3::D3DXVECTOR3, COMDAT
; _this$ = ecx

; 165  :     D3DXVECTOR3() {};

  00000	8b c1		 mov	 eax, ecx
  00002	c3		 ret	 0
??0D3DXVECTOR3@@QAE@XZ ENDP				; D3DXVECTOR3::D3DXVECTOR3
_TEXT	ENDS
PUBLIC	??0D3DXQUATERNION@@QAE@XZ			; D3DXQUATERNION::D3DXQUATERNION
; Function compile flags: /Ogsp
;	COMDAT ??0D3DXQUATERNION@@QAE@XZ
_TEXT	SEGMENT
??0D3DXQUATERNION@@QAE@XZ PROC				; D3DXQUATERNION::D3DXQUATERNION, COMDAT
; _this$ = ecx

; 429  :     D3DXQUATERNION() {}

  00000	8b c1		 mov	 eax, ecx
  00002	c3		 ret	 0
??0D3DXQUATERNION@@QAE@XZ ENDP				; D3DXQUATERNION::D3DXQUATERNION
_TEXT	ENDS
PUBLIC	??0D3DXVECTOR3@@QAE@MMM@Z			; D3DXVECTOR3::D3DXVECTOR3
; Function compile flags: /Ogsp
; File c:\program files (x86)\microsoft directx sdk (june 2010)\include\d3dx9math.inl
;	COMDAT ??0D3DXVECTOR3@@QAE@MMM@Z
_TEXT	SEGMENT
_fx$ = 8						; size = 4
_fy$ = 12						; size = 4
_fz$ = 16						; size = 4
??0D3DXVECTOR3@@QAE@MMM@Z PROC				; D3DXVECTOR3::D3DXVECTOR3, COMDAT
; _this$ = ecx

; 303  : {

  00000	55		 push	 ebp
  00001	8b ec		 mov	 ebp, esp

; 304  :     x = fx;

  00003	f3 0f 10 45 08	 movss	 xmm0, DWORD PTR _fx$[ebp]
  00008	8b c1		 mov	 eax, ecx
  0000a	f3 0f 11 00	 movss	 DWORD PTR [eax], xmm0

; 305  :     y = fy;

  0000e	f3 0f 10 45 0c	 movss	 xmm0, DWORD PTR _fy$[ebp]
  00013	f3 0f 11 40 04	 movss	 DWORD PTR [eax+4], xmm0

; 306  :     z = fz;

  00018	f3 0f 10 45 10	 movss	 xmm0, DWORD PTR _fz$[ebp]
  0001d	f3 0f 11 40 08	 movss	 DWORD PTR [eax+8], xmm0

; 307  : }

  00022	5d		 pop	 ebp
  00023	c2 0c 00	 ret	 12			; 0000000cH
??0D3DXVECTOR3@@QAE@MMM@Z ENDP				; D3DXVECTOR3::D3DXVECTOR3
_TEXT	ENDS
PUBLIC	??YD3DXVECTOR3@@QAEAAU0@ABU0@@Z			; D3DXVECTOR3::operator+=
; Function compile flags: /Ogsp
;	COMDAT ??YD3DXVECTOR3@@QAEAAU0@ABU0@@Z
_TEXT	SEGMENT
_v$ = 8							; size = 4
??YD3DXVECTOR3@@QAEAAU0@ABU0@@Z PROC			; D3DXVECTOR3::operator+=, COMDAT
; _this$ = ecx

; 327  : {

  00000	55		 push	 ebp
  00001	8b ec		 mov	 ebp, esp
  00003	8b c1		 mov	 eax, ecx

; 328  :     x += v.x;

  00005	8b 4d 08	 mov	 ecx, DWORD PTR _v$[ebp]
  00008	f3 0f 10 01	 movss	 xmm0, DWORD PTR [ecx]
  0000c	f3 0f 10 08	 movss	 xmm1, DWORD PTR [eax]
  00010	0f 5a c0	 cvtps2pd xmm0, xmm0
  00013	0f 5a c9	 cvtps2pd xmm1, xmm1
  00016	f2 0f 58 c1	 addsd	 xmm0, xmm1

; 329  :     y += v.y;

  0001a	f3 0f 10 48 04	 movss	 xmm1, DWORD PTR [eax+4]
  0001f	66 0f 5a c0	 cvtpd2ps xmm0, xmm0
  00023	f3 0f 11 00	 movss	 DWORD PTR [eax], xmm0
  00027	f3 0f 10 41 04	 movss	 xmm0, DWORD PTR [ecx+4]
  0002c	0f 5a c0	 cvtps2pd xmm0, xmm0
  0002f	0f 5a c9	 cvtps2pd xmm1, xmm1
  00032	f2 0f 58 c1	 addsd	 xmm0, xmm1

; 330  :     z += v.z;

  00036	f3 0f 10 48 08	 movss	 xmm1, DWORD PTR [eax+8]
  0003b	66 0f 5a c0	 cvtpd2ps xmm0, xmm0
  0003f	f3 0f 11 40 04	 movss	 DWORD PTR [eax+4], xmm0
  00044	f3 0f 10 41 08	 movss	 xmm0, DWORD PTR [ecx+8]
  00049	0f 5a c0	 cvtps2pd xmm0, xmm0
  0004c	0f 5a c9	 cvtps2pd xmm1, xmm1
  0004f	f2 0f 58 c1	 addsd	 xmm0, xmm1
  00053	66 0f 5a c0	 cvtpd2ps xmm0, xmm0
  00057	f3 0f 11 40 08	 movss	 DWORD PTR [eax+8], xmm0

; 331  :     return *this;
; 332  : }

  0005c	5d		 pop	 ebp
  0005d	c2 04 00	 ret	 4
??YD3DXVECTOR3@@QAEAAU0@ABU0@@Z ENDP			; D3DXVECTOR3::operator+=
_TEXT	ENDS
PUBLIC	__mask@@NegFloat@
PUBLIC	??GD3DXVECTOR3@@QBE?AU0@XZ			; D3DXVECTOR3::operator-
;	COMDAT __mask@@NegFloat@
CONST	SEGMENT
__mask@@NegFloat@ DB 00H, 00H, 00H, 080H, 00H, 00H, 00H, 080H, 00H, 00H, 00H
	DB	080H, 00H, 00H, 00H, 080H
; Function compile flags: /Ogsp
CONST	ENDS
;	COMDAT ??GD3DXVECTOR3@@QBE?AU0@XZ
_TEXT	SEGMENT
___$ReturnUdt$ = 8					; size = 4
??GD3DXVECTOR3@@QBE?AU0@XZ PROC				; D3DXVECTOR3::operator-, COMDAT
; _this$ = ecx

; 372  : {

  00000	55		 push	 ebp
  00001	8b ec		 mov	 ebp, esp

; 373  :     return D3DXVECTOR3(-x, -y, -z);

  00003	f3 0f 10 05 00
	00 00 00	 movss	 xmm0, DWORD PTR __mask@@NegFloat@
  0000b	8b 45 08	 mov	 eax, DWORD PTR ___$ReturnUdt$[ebp]
  0000e	f3 0f 10 09	 movss	 xmm1, DWORD PTR [ecx]
  00012	0f 57 c8	 xorps	 xmm1, xmm0
  00015	f3 0f 11 08	 movss	 DWORD PTR [eax], xmm1
  00019	f3 0f 10 49 04	 movss	 xmm1, DWORD PTR [ecx+4]
  0001e	0f 57 c8	 xorps	 xmm1, xmm0
  00021	f3 0f 11 48 04	 movss	 DWORD PTR [eax+4], xmm1
  00026	f3 0f 10 49 08	 movss	 xmm1, DWORD PTR [ecx+8]
  0002b	0f 57 c8	 xorps	 xmm1, xmm0
  0002e	f3 0f 11 48 08	 movss	 DWORD PTR [eax+8], xmm1

; 374  : }

  00033	5d		 pop	 ebp
  00034	c2 04 00	 ret	 4
??GD3DXVECTOR3@@QBE?AU0@XZ ENDP				; D3DXVECTOR3::operator-
_TEXT	ENDS
PUBLIC	??GD3DXVECTOR3@@QBE?AU0@ABU0@@Z			; D3DXVECTOR3::operator-
; Function compile flags: /Ogsp
;	COMDAT ??GD3DXVECTOR3@@QBE?AU0@ABU0@@Z
_TEXT	SEGMENT
___$ReturnUdt$ = 8					; size = 4
_v$ = 12						; size = 4
??GD3DXVECTOR3@@QBE?AU0@ABU0@@Z PROC			; D3DXVECTOR3::operator-, COMDAT
; _this$ = ecx

; 386  : {

  00000	55		 push	 ebp
  00001	8b ec		 mov	 ebp, esp

; 387  :     return D3DXVECTOR3(x - v.x, y - v.y, z - v.z);

  00003	8b 55 0c	 mov	 edx, DWORD PTR _v$[ebp]
  00006	f3 0f 10 01	 movss	 xmm0, DWORD PTR [ecx]
  0000a	f3 0f 10 0a	 movss	 xmm1, DWORD PTR [edx]
  0000e	8b 45 08	 mov	 eax, DWORD PTR ___$ReturnUdt$[ebp]
  00011	0f 5a c0	 cvtps2pd xmm0, xmm0
  00014	0f 5a c9	 cvtps2pd xmm1, xmm1
  00017	f2 0f 5c c1	 subsd	 xmm0, xmm1
  0001b	f3 0f 10 4a 04	 movss	 xmm1, DWORD PTR [edx+4]
  00020	66 0f 5a c0	 cvtpd2ps xmm0, xmm0
  00024	f3 0f 11 00	 movss	 DWORD PTR [eax], xmm0
  00028	f3 0f 10 41 04	 movss	 xmm0, DWORD PTR [ecx+4]
  0002d	0f 5a c0	 cvtps2pd xmm0, xmm0
  00030	0f 5a c9	 cvtps2pd xmm1, xmm1
  00033	f2 0f 5c c1	 subsd	 xmm0, xmm1
  00037	f3 0f 10 4a 08	 movss	 xmm1, DWORD PTR [edx+8]
  0003c	66 0f 5a c0	 cvtpd2ps xmm0, xmm0
  00040	f3 0f 11 40 04	 movss	 DWORD PTR [eax+4], xmm0
  00045	f3 0f 10 41 08	 movss	 xmm0, DWORD PTR [ecx+8]
  0004a	0f 5a c0	 cvtps2pd xmm0, xmm0
  0004d	0f 5a c9	 cvtps2pd xmm1, xmm1
  00050	f2 0f 5c c1	 subsd	 xmm0, xmm1
  00054	66 0f 5a c0	 cvtpd2ps xmm0, xmm0
  00058	f3 0f 11 40 08	 movss	 DWORD PTR [eax+8], xmm0

; 388  : }

  0005d	5d		 pop	 ebp
  0005e	c2 08 00	 ret	 8
??GD3DXVECTOR3@@QBE?AU0@ABU0@@Z ENDP			; D3DXVECTOR3::operator-
_TEXT	ENDS
PUBLIC	??DD3DXVECTOR3@@QBE?AU0@M@Z			; D3DXVECTOR3::operator*
; Function compile flags: /Ogsp
;	COMDAT ??DD3DXVECTOR3@@QBE?AU0@M@Z
_TEXT	SEGMENT
___$ReturnUdt$ = 8					; size = 4
_f$ = 12						; size = 4
??DD3DXVECTOR3@@QBE?AU0@M@Z PROC			; D3DXVECTOR3::operator*, COMDAT
; _this$ = ecx

; 392  : {

  00000	55		 push	 ebp
  00001	8b ec		 mov	 ebp, esp

; 393  :     return D3DXVECTOR3(x * f, y * f, z * f);

  00003	f3 0f 10 4d 0c	 movss	 xmm1, DWORD PTR _f$[ebp]
  00008	f3 0f 10 01	 movss	 xmm0, DWORD PTR [ecx]
  0000c	8b 45 08	 mov	 eax, DWORD PTR ___$ReturnUdt$[ebp]
  0000f	0f 5a c0	 cvtps2pd xmm0, xmm0
  00012	0f 5a c9	 cvtps2pd xmm1, xmm1
  00015	f2 0f 59 c1	 mulsd	 xmm0, xmm1
  00019	f3 0f 10 4d 0c	 movss	 xmm1, DWORD PTR _f$[ebp]
  0001e	66 0f 5a c0	 cvtpd2ps xmm0, xmm0
  00022	f3 0f 11 00	 movss	 DWORD PTR [eax], xmm0
  00026	f3 0f 10 41 04	 movss	 xmm0, DWORD PTR [ecx+4]
  0002b	0f 5a c0	 cvtps2pd xmm0, xmm0
  0002e	0f 5a c9	 cvtps2pd xmm1, xmm1
  00031	f2 0f 59 c1	 mulsd	 xmm0, xmm1
  00035	f3 0f 10 4d 0c	 movss	 xmm1, DWORD PTR _f$[ebp]
  0003a	66 0f 5a c0	 cvtpd2ps xmm0, xmm0
  0003e	f3 0f 11 40 04	 movss	 DWORD PTR [eax+4], xmm0
  00043	f3 0f 10 41 08	 movss	 xmm0, DWORD PTR [ecx+8]
  00048	0f 5a c0	 cvtps2pd xmm0, xmm0
  0004b	0f 5a c9	 cvtps2pd xmm1, xmm1
  0004e	f2 0f 59 c1	 mulsd	 xmm0, xmm1
  00052	66 0f 5a c0	 cvtpd2ps xmm0, xmm0
  00056	f3 0f 11 40 08	 movss	 DWORD PTR [eax+8], xmm0

; 394  : }

  0005b	5d		 pop	 ebp
  0005c	c2 08 00	 ret	 8
??DD3DXVECTOR3@@QBE?AU0@M@Z ENDP			; D3DXVECTOR3::operator*
_TEXT	ENDS
PUBLIC	??9D3DXVECTOR3@@QBEHABU0@@Z			; D3DXVECTOR3::operator!=
; Function compile flags: /Ogsp
;	COMDAT ??9D3DXVECTOR3@@QBEHABU0@@Z
_TEXT	SEGMENT
_v$ = 8							; size = 4
??9D3DXVECTOR3@@QBEHABU0@@Z PROC			; D3DXVECTOR3::operator!=, COMDAT
; _this$ = ecx

; 419  : {

  00000	55		 push	 ebp
  00001	8b ec		 mov	 ebp, esp

; 420  :     return x != v.x || y != v.y || z != v.z;

  00003	8b 55 08	 mov	 edx, DWORD PTR _v$[ebp]
  00006	f3 0f 10 01	 movss	 xmm0, DWORD PTR [ecx]
  0000a	f3 0f 10 0a	 movss	 xmm1, DWORD PTR [edx]
  0000e	0f 5a c0	 cvtps2pd xmm0, xmm0
  00011	0f 5a c9	 cvtps2pd xmm1, xmm1
  00014	66 0f 2e c1	 ucomisd xmm0, xmm1
  00018	9f		 lahf
  00019	f6 c4 44	 test	 ah, 68			; 00000044H
  0001c	7a 38		 jp	 SHORT $LN3@operator
  0001e	f3 0f 10 41 04	 movss	 xmm0, DWORD PTR [ecx+4]
  00023	f3 0f 10 4a 04	 movss	 xmm1, DWORD PTR [edx+4]
  00028	0f 5a c0	 cvtps2pd xmm0, xmm0
  0002b	0f 5a c9	 cvtps2pd xmm1, xmm1
  0002e	66 0f 2e c1	 ucomisd xmm0, xmm1
  00032	9f		 lahf
  00033	f6 c4 44	 test	 ah, 68			; 00000044H
  00036	7a 1e		 jp	 SHORT $LN3@operator
  00038	f3 0f 10 41 08	 movss	 xmm0, DWORD PTR [ecx+8]
  0003d	f3 0f 10 4a 08	 movss	 xmm1, DWORD PTR [edx+8]
  00042	0f 5a c0	 cvtps2pd xmm0, xmm0
  00045	0f 5a c9	 cvtps2pd xmm1, xmm1
  00048	66 0f 2e c1	 ucomisd xmm0, xmm1
  0004c	9f		 lahf
  0004d	f6 c4 44	 test	 ah, 68			; 00000044H
  00050	7a 04		 jp	 SHORT $LN3@operator
  00052	33 c0		 xor	 eax, eax
  00054	eb 03		 jmp	 SHORT $LN4@operator
$LN3@operator:
  00056	33 c0		 xor	 eax, eax
  00058	40		 inc	 eax
$LN4@operator:

; 421  : }

  00059	5d		 pop	 ebp
  0005a	c2 04 00	 ret	 4
??9D3DXVECTOR3@@QBEHABU0@@Z ENDP			; D3DXVECTOR3::operator!=
_TEXT	ENDS
PUBLIC	??$_Ptr_cat@V?$_Vector_const_iterator@V?$_Vector_val@UWeaponInfo@@V?$allocator@UWeaponInfo@@@std@@@std@@@std@@PAUWeaponInfo@@@std@@YA?AU_Nonscalar_ptr_iterator_tag@0@AAV?$_Vector_const_iterator@V?$_Vector_val@UWeaponInfo@@V?$allocator@UWeaponInfo@@@std@@@std@@@0@AAPAUWeaponInfo@@@Z ; std::_Ptr_cat<std::_Vector_const_iterator<std::_Vector_val<WeaponInfo,std::allocator<WeaponInfo> > >,WeaponInfo *>
; Function compile flags: /Ogsp
; File c:\program files (x86)\microsoft visual studio 10.0\vc\include\xutility
;	COMDAT ??$_Ptr_cat@V?$_Vector_const_iterator@V?$_Vector_val@UWeaponInfo@@V?$allocator@UWeaponInfo@@@std@@@std@@@std@@PAUWeaponInfo@@@std@@YA?AU_Nonscalar_ptr_iterator_tag@0@AAV?$_Vector_const_iterator@V?$_Vector_val@UWeaponInfo@@V?$allocator@UWeaponInfo@@@std@@@std@@@0@AAPAUWeaponInfo@@@Z
_TEXT	SEGMENT
__Cat$ = -1						; size = 1
___formal$ = 8						; size = 4
___formal$ = 12						; size = 4
??$_Ptr_cat@V?$_Vector_const_iterator@V?$_Vector_val@UWeaponInfo@@V?$allocator@UWeaponInfo@@@std@@@std@@@std@@PAUWeaponInfo@@@std@@YA?AU_Nonscalar_ptr_iterator_tag@0@AAV?$_Vector_const_iterator@V?$_Vector_val@UWeaponInfo@@V?$allocator@UWeaponInfo@@@std@@@std@@@0@AAPAUWeaponInfo@@@Z PROC ; std::_Ptr_cat<std::_Vector_const_iterator<std::_Vector_val<WeaponInfo,std::allocator<WeaponInfo> > >,WeaponInfo *>, COMDAT

; 485  : 	{	// return pointer category from arbitrary arguments

  00000	55		 push	 ebp
  00001	8b ec		 mov	 ebp, esp
  00003	51		 push	 ecx

; 486  : 	_Nonscalar_ptr_iterator_tag _Cat;
; 487  : 	return (_Cat);

  00004	8a 45 ff	 mov	 al, BYTE PTR __Cat$[ebp]

; 488  : 	}

  00007	c9		 leave
  00008	c3		 ret	 0
??$_Ptr_cat@V?$_Vector_const_iterator@V?$_Vector_val@UWeaponInfo@@V?$allocator@UWeaponInfo@@@std@@@std@@@std@@PAUWeaponInfo@@@std@@YA?AU_Nonscalar_ptr_iterator_tag@0@AAV?$_Vector_const_iterator@V?$_Vector_val@UWeaponInfo@@V?$allocator@UWeaponInfo@@@std@@@std@@@0@AAPAUWeaponInfo@@@Z ENDP ; std::_Ptr_cat<std::_Vector_const_iterator<std::_Vector_val<WeaponInfo,std::allocator<WeaponInfo> > >,WeaponInfo *>
_TEXT	ENDS
PUBLIC	??$_Ptr_cat@V?$_Vector_const_iterator@V?$_Vector_val@UForceInfo@@V?$allocator@UForceInfo@@@std@@@std@@@std@@PAUForceInfo@@@std@@YA?AU_Nonscalar_ptr_iterator_tag@0@AAV?$_Vector_const_iterator@V?$_Vector_val@UForceInfo@@V?$allocator@UForceInfo@@@std@@@std@@@0@AAPAUForceInfo@@@Z ; std::_Ptr_cat<std::_Vector_const_iterator<std::_Vector_val<ForceInfo,std::allocator<ForceInfo> > >,ForceInfo *>
; Function compile flags: /Ogsp
;	COMDAT ??$_Ptr_cat@V?$_Vector_const_iterator@V?$_Vector_val@UForceInfo@@V?$allocator@UForceInfo@@@std@@@std@@@std@@PAUForceInfo@@@std@@YA?AU_Nonscalar_ptr_iterator_tag@0@AAV?$_Vector_const_iterator@V?$_Vector_val@UForceInfo@@V?$allocator@UForceInfo@@@std@@@std@@@0@AAPAUForceInfo@@@Z
_TEXT	SEGMENT
__Cat$ = -1						; size = 1
___formal$ = 8						; size = 4
___formal$ = 12						; size = 4
??$_Ptr_cat@V?$_Vector_const_iterator@V?$_Vector_val@UForceInfo@@V?$allocator@UForceInfo@@@std@@@std@@@std@@PAUForceInfo@@@std@@YA?AU_Nonscalar_ptr_iterator_tag@0@AAV?$_Vector_const_iterator@V?$_Vector_val@UForceInfo@@V?$allocator@UForceInfo@@@std@@@std@@@0@AAPAUForceInfo@@@Z PROC ; std::_Ptr_cat<std::_Vector_const_iterator<std::_Vector_val<ForceInfo,std::allocator<ForceInfo> > >,ForceInfo *>, COMDAT

; 485  : 	{	// return pointer category from arbitrary arguments

  00000	55		 push	 ebp
  00001	8b ec		 mov	 ebp, esp
  00003	51		 push	 ecx

; 486  : 	_Nonscalar_ptr_iterator_tag _Cat;
; 487  : 	return (_Cat);

  00004	8a 45 ff	 mov	 al, BYTE PTR __Cat$[ebp]

; 488  : 	}

  00007	c9		 leave
  00008	c3		 ret	 0
??$_Ptr_cat@V?$_Vector_const_iterator@V?$_Vector_val@UForceInfo@@V?$allocator@UForceInfo@@@std@@@std@@@std@@PAUForceInfo@@@std@@YA?AU_Nonscalar_ptr_iterator_tag@0@AAV?$_Vector_const_iterator@V?$_Vector_val@UForceInfo@@V?$allocator@UForceInfo@@@std@@@std@@@0@AAPAUForceInfo@@@Z ENDP ; std::_Ptr_cat<std::_Vector_const_iterator<std::_Vector_val<ForceInfo,std::allocator<ForceInfo> > >,ForceInfo *>
_TEXT	ENDS
PUBLIC	??D?$_Vector_const_iterator@V?$_Vector_val@UWeaponInfo@@V?$allocator@UWeaponInfo@@@std@@@std@@@std@@QBEABUWeaponInfo@@XZ ; std::_Vector_const_iterator<std::_Vector_val<WeaponInfo,std::allocator<WeaponInfo> > >::operator*
; Function compile flags: /Ogsp
; File c:\program files (x86)\microsoft visual studio 10.0\vc\include\vector
;	COMDAT ??D?$_Vector_const_iterator@V?$_Vector_val@UWeaponInfo@@V?$allocator@UWeaponInfo@@@std@@@std@@@std@@QBEABUWeaponInfo@@XZ
_TEXT	SEGMENT
??D?$_Vector_const_iterator@V?$_Vector_val@UWeaponInfo@@V?$allocator@UWeaponInfo@@@std@@@std@@@std@@QBEABUWeaponInfo@@XZ PROC ; std::_Vector_const_iterator<std::_Vector_val<WeaponInfo,std::allocator<WeaponInfo> > >::operator*, COMDAT
; _this$ = ecx

; 64   :  #if _ITERATOR_DEBUG_LEVEL == 2
; 65   : 		if (this->_Getcont() == 0
; 66   : 			|| this->_Ptr == 0
; 67   : 			|| this->_Ptr < ((_Myvec *)this->_Getcont())->_Myfirst
; 68   : 			|| ((_Myvec *)this->_Getcont())->_Mylast <= this->_Ptr)
; 69   : 			{	// report error
; 70   : 			_DEBUG_ERROR("vector iterator not dereferencable");
; 71   : 			_SCL_SECURE_OUT_OF_RANGE;
; 72   : 			}
; 73   : 
; 74   :  #elif _ITERATOR_DEBUG_LEVEL == 1
; 75   : 		_SCL_SECURE_VALIDATE(this->_Getcont() != 0);
; 76   : 		_SCL_SECURE_VALIDATE_RANGE(
; 77   : 			this->_Ptr != 0
; 78   : 			&& ((_Myvec *)this->_Getcont())->_Myfirst <= this->_Ptr
; 79   : 			&& this->_Ptr < ((_Myvec *)this->_Getcont())->_Mylast);
; 80   :  #endif /* _ITERATOR_DEBUG_LEVEL */
; 81   : 
; 82   : 		__analysis_assume(this->_Ptr != 0);
; 83   : 
; 84   : 		return (*this->_Ptr);

  00000	8b 01		 mov	 eax, DWORD PTR [ecx]

; 85   : 		}

  00002	c3		 ret	 0
??D?$_Vector_const_iterator@V?$_Vector_val@UWeaponInfo@@V?$allocator@UWeaponInfo@@@std@@@std@@@std@@QBEABUWeaponInfo@@XZ ENDP ; std::_Vector_const_iterator<std::_Vector_val<WeaponInfo,std::allocator<WeaponInfo> > >::operator*
_TEXT	ENDS
PUBLIC	??E?$_Vector_const_iterator@V?$_Vector_val@UWeaponInfo@@V?$allocator@UWeaponInfo@@@std@@@std@@@std@@QAEAAV01@XZ ; std::_Vector_const_iterator<std::_Vector_val<WeaponInfo,std::allocator<WeaponInfo> > >::operator++
; Function compile flags: /Ogsp
;	COMDAT ??E?$_Vector_const_iterator@V?$_Vector_val@UWeaponInfo@@V?$allocator@UWeaponInfo@@@std@@@std@@@std@@QAEAAV01@XZ
_TEXT	SEGMENT
??E?$_Vector_const_iterator@V?$_Vector_val@UWeaponInfo@@V?$allocator@UWeaponInfo@@@std@@@std@@@std@@QAEAAV01@XZ PROC ; std::_Vector_const_iterator<std::_Vector_val<WeaponInfo,std::allocator<WeaponInfo> > >::operator++, COMDAT
; _this$ = ecx

; 93   : 		{	// preincrement

  00000	8b c1		 mov	 eax, ecx

; 94   :  #if _ITERATOR_DEBUG_LEVEL == 2
; 95   : 		if (this->_Getcont() == 0
; 96   : 			|| this->_Ptr == 0
; 97   : 			|| ((_Myvec *)this->_Getcont())->_Mylast <= this->_Ptr)
; 98   : 			{	// report error
; 99   : 			_DEBUG_ERROR("vector iterator not incrementable");
; 100  : 			_SCL_SECURE_OUT_OF_RANGE;
; 101  : 			}
; 102  : 
; 103  :  #elif _ITERATOR_DEBUG_LEVEL == 1
; 104  : 		_SCL_SECURE_VALIDATE(this->_Getcont() != 0);
; 105  : 		_SCL_SECURE_VALIDATE_RANGE(
; 106  : 			this->_Ptr != 0
; 107  : 			&& this->_Ptr < ((_Myvec *)this->_Getcont())->_Mylast);
; 108  :  #endif /* _ITERATOR_DEBUG_LEVEL */
; 109  : 
; 110  : 		++this->_Ptr;

  00002	83 00 28	 add	 DWORD PTR [eax], 40	; 00000028H

; 111  : 		return (*this);
; 112  : 		}

  00005	c3		 ret	 0
??E?$_Vector_const_iterator@V?$_Vector_val@UWeaponInfo@@V?$allocator@UWeaponInfo@@@std@@@std@@@std@@QAEAAV01@XZ ENDP ; std::_Vector_const_iterator<std::_Vector_val<WeaponInfo,std::allocator<WeaponInfo> > >::operator++
_TEXT	ENDS
PUBLIC	??D?$_Vector_const_iterator@V?$_Vector_val@UForceInfo@@V?$allocator@UForceInfo@@@std@@@std@@@std@@QBEABUForceInfo@@XZ ; std::_Vector_const_iterator<std::_Vector_val<ForceInfo,std::allocator<ForceInfo> > >::operator*
; Function compile flags: /Ogsp
;	COMDAT ??D?$_Vector_const_iterator@V?$_Vector_val@UForceInfo@@V?$allocator@UForceInfo@@@std@@@std@@@std@@QBEABUForceInfo@@XZ
_TEXT	SEGMENT
??D?$_Vector_const_iterator@V?$_Vector_val@UForceInfo@@V?$allocator@UForceInfo@@@std@@@std@@@std@@QBEABUForceInfo@@XZ PROC ; std::_Vector_const_iterator<std::_Vector_val<ForceInfo,std::allocator<ForceInfo> > >::operator*, COMDAT
; _this$ = ecx

; 64   :  #if _ITERATOR_DEBUG_LEVEL == 2
; 65   : 		if (this->_Getcont() == 0
; 66   : 			|| this->_Ptr == 0
; 67   : 			|| this->_Ptr < ((_Myvec *)this->_Getcont())->_Myfirst
; 68   : 			|| ((_Myvec *)this->_Getcont())->_Mylast <= this->_Ptr)
; 69   : 			{	// report error
; 70   : 			_DEBUG_ERROR("vector iterator not dereferencable");
; 71   : 			_SCL_SECURE_OUT_OF_RANGE;
; 72   : 			}
; 73   : 
; 74   :  #elif _ITERATOR_DEBUG_LEVEL == 1
; 75   : 		_SCL_SECURE_VALIDATE(this->_Getcont() != 0);
; 76   : 		_SCL_SECURE_VALIDATE_RANGE(
; 77   : 			this->_Ptr != 0
; 78   : 			&& ((_Myvec *)this->_Getcont())->_Myfirst <= this->_Ptr
; 79   : 			&& this->_Ptr < ((_Myvec *)this->_Getcont())->_Mylast);
; 80   :  #endif /* _ITERATOR_DEBUG_LEVEL */
; 81   : 
; 82   : 		__analysis_assume(this->_Ptr != 0);
; 83   : 
; 84   : 		return (*this->_Ptr);

  00000	8b 01		 mov	 eax, DWORD PTR [ecx]

; 85   : 		}

  00002	c3		 ret	 0
??D?$_Vector_const_iterator@V?$_Vector_val@UForceInfo@@V?$allocator@UForceInfo@@@std@@@std@@@std@@QBEABUForceInfo@@XZ ENDP ; std::_Vector_const_iterator<std::_Vector_val<ForceInfo,std::allocator<ForceInfo> > >::operator*
_TEXT	ENDS
PUBLIC	??E?$_Vector_const_iterator@V?$_Vector_val@UForceInfo@@V?$allocator@UForceInfo@@@std@@@std@@@std@@QAEAAV01@XZ ; std::_Vector_const_iterator<std::_Vector_val<ForceInfo,std::allocator<ForceInfo> > >::operator++
; Function compile flags: /Ogsp
;	COMDAT ??E?$_Vector_const_iterator@V?$_Vector_val@UForceInfo@@V?$allocator@UForceInfo@@@std@@@std@@@std@@QAEAAV01@XZ
_TEXT	SEGMENT
??E?$_Vector_const_iterator@V?$_Vector_val@UForceInfo@@V?$allocator@UForceInfo@@@std@@@std@@@std@@QAEAAV01@XZ PROC ; std::_Vector_const_iterator<std::_Vector_val<ForceInfo,std::allocator<ForceInfo> > >::operator++, COMDAT
; _this$ = ecx

; 93   : 		{	// preincrement

  00000	8b c1		 mov	 eax, ecx

; 94   :  #if _ITERATOR_DEBUG_LEVEL == 2
; 95   : 		if (this->_Getcont() == 0
; 96   : 			|| this->_Ptr == 0
; 97   : 			|| ((_Myvec *)this->_Getcont())->_Mylast <= this->_Ptr)
; 98   : 			{	// report error
; 99   : 			_DEBUG_ERROR("vector iterator not incrementable");
; 100  : 			_SCL_SECURE_OUT_OF_RANGE;
; 101  : 			}
; 102  : 
; 103  :  #elif _ITERATOR_DEBUG_LEVEL == 1
; 104  : 		_SCL_SECURE_VALIDATE(this->_Getcont() != 0);
; 105  : 		_SCL_SECURE_VALIDATE_RANGE(
; 106  : 			this->_Ptr != 0
; 107  : 			&& this->_Ptr < ((_Myvec *)this->_Getcont())->_Mylast);
; 108  :  #endif /* _ITERATOR_DEBUG_LEVEL */
; 109  : 
; 110  : 		++this->_Ptr;

  00002	83 00 0c	 add	 DWORD PTR [eax], 12	; 0000000cH

; 111  : 		return (*this);
; 112  : 		}

  00005	c3		 ret	 0
??E?$_Vector_const_iterator@V?$_Vector_val@UForceInfo@@V?$allocator@UForceInfo@@@std@@@std@@@std@@QAEAAV01@XZ ENDP ; std::_Vector_const_iterator<std::_Vector_val<ForceInfo,std::allocator<ForceInfo> > >::operator++
_TEXT	ENDS
PUBLIC	??$forward@ABUWeaponInfo@@@std@@YAABUWeaponInfo@@ABU1@@Z ; std::forward<WeaponInfo const &>
; Function compile flags: /Ogsp
; File c:\program files (x86)\microsoft visual studio 10.0\vc\include\utility
;	COMDAT ??$forward@ABUWeaponInfo@@@std@@YAABUWeaponInfo@@ABU1@@Z
_TEXT	SEGMENT
__Arg$ = 8						; size = 4
??$forward@ABUWeaponInfo@@@std@@YAABUWeaponInfo@@ABU1@@Z PROC ; std::forward<WeaponInfo const &>, COMDAT

; 78   : 	{	// forward _Arg, given explicitly specified type parameter

  00000	55		 push	 ebp
  00001	8b ec		 mov	 ebp, esp

; 79   : 	return ((_Ty&&)_Arg);

  00003	8b 45 08	 mov	 eax, DWORD PTR __Arg$[ebp]

; 80   : 	}

  00006	5d		 pop	 ebp
  00007	c3		 ret	 0
??$forward@ABUWeaponInfo@@@std@@YAABUWeaponInfo@@ABU1@@Z ENDP ; std::forward<WeaponInfo const &>
_TEXT	ENDS
PUBLIC	??$forward@ABUForceInfo@@@std@@YAABUForceInfo@@ABU1@@Z ; std::forward<ForceInfo const &>
; Function compile flags: /Ogsp
;	COMDAT ??$forward@ABUForceInfo@@@std@@YAABUForceInfo@@ABU1@@Z
_TEXT	SEGMENT
__Arg$ = 8						; size = 4
??$forward@ABUForceInfo@@@std@@YAABUForceInfo@@ABU1@@Z PROC ; std::forward<ForceInfo const &>, COMDAT

; 78   : 	{	// forward _Arg, given explicitly specified type parameter

  00000	55		 push	 ebp
  00001	8b ec		 mov	 ebp, esp

; 79   : 	return ((_Ty&&)_Arg);

  00003	8b 45 08	 mov	 eax, DWORD PTR __Arg$[ebp]

; 80   : 	}

  00006	5d		 pop	 ebp
  00007	c3		 ret	 0
??$forward@ABUForceInfo@@@std@@YAABUForceInfo@@ABU1@@Z ENDP ; std::forward<ForceInfo const &>
_TEXT	ENDS
PUBLIC	??$_Construct@UForceInfo@@ABU1@@std@@YAXPAUForceInfo@@ABU1@@Z ; std::_Construct<ForceInfo,ForceInfo const &>
; Function compile flags: /Ogsp
; File c:\program files (x86)\microsoft visual studio 10.0\vc\include\xmemory
;	COMDAT ??$_Construct@UForceInfo@@ABU1@@std@@YAXPAUForceInfo@@ABU1@@Z
_TEXT	SEGMENT
__Ptr$ = 8						; size = 4
__Val$ = 12						; size = 4
??$_Construct@UForceInfo@@ABU1@@std@@YAXPAUForceInfo@@ABU1@@Z PROC ; std::_Construct<ForceInfo,ForceInfo const &>, COMDAT

; 46   : 	{	// construct object at _Ptr with value _Val

  00000	55		 push	 ebp
  00001	8b ec		 mov	 ebp, esp
  00003	57		 push	 edi

; 47   : 	void _FARQ *_Vptr = _Ptr;
; 48   : 	::new (_Vptr) _Ty1(_STD forward<_Ty2>(_Val));

  00004	8b 7d 08	 mov	 edi, DWORD PTR __Ptr$[ebp]
  00007	85 ff		 test	 edi, edi
  00009	74 08		 je	 SHORT $LN3@Construct
  0000b	56		 push	 esi
  0000c	8b 75 0c	 mov	 esi, DWORD PTR __Val$[ebp]
  0000f	a5		 movsd
  00010	a5		 movsd
  00011	a5		 movsd
  00012	5e		 pop	 esi
$LN3@Construct:
  00013	5f		 pop	 edi

; 49   : 	}

  00014	5d		 pop	 ebp
  00015	c3		 ret	 0
??$_Construct@UForceInfo@@ABU1@@std@@YAXPAUForceInfo@@ABU1@@Z ENDP ; std::_Construct<ForceInfo,ForceInfo const &>
_TEXT	ENDS
PUBLIC	?D3DXVec3Length@@YAMPBUD3DXVECTOR3@@@Z		; D3DXVec3Length
; Function compile flags: /Ogsp
; File c:\program files (x86)\microsoft directx sdk (june 2010)\include\d3dx9math.inl
;	COMDAT ?D3DXVec3Length@@YAMPBUD3DXVECTOR3@@@Z
_TEXT	SEGMENT
tv169 = 8						; size = 4
tv160 = 8						; size = 4
_pV$ = 8						; size = 4
?D3DXVec3Length@@YAMPBUD3DXVECTOR3@@@Z PROC		; D3DXVec3Length, COMDAT

; 1710 : {

  00000	55		 push	 ebp
  00001	8b ec		 mov	 ebp, esp

; 1711 : #ifdef D3DX_DEBUG
; 1712 :     if(!pV)
; 1713 :         return 0.0f;
; 1714 : #endif
; 1715 : 
; 1716 : #ifdef __cplusplus
; 1717 :     return sqrtf(pV->x * pV->x + pV->y * pV->y + pV->z * pV->z);

  00003	8b 45 08	 mov	 eax, DWORD PTR _pV$[ebp]
  00006	d9 40 04	 fld	 DWORD PTR [eax+4]
  00009	d9 00		 fld	 DWORD PTR [eax]
  0000b	d9 40 08	 fld	 DWORD PTR [eax+8]
  0000e	d9 c1		 fld	 ST(1)
  00010	de ca		 fmulp	 ST(2), ST(0)
  00012	d9 c2		 fld	 ST(2)
  00014	de cb		 fmulp	 ST(3), ST(0)
  00016	d9 c9		 fxch	 ST(1)
  00018	de c2		 faddp	 ST(2), ST(0)
  0001a	d9 c0		 fld	 ST(0)
  0001c	de c9		 fmulp	 ST(1), ST(0)
  0001e	de c1		 faddp	 ST(1), ST(0)
  00020	d9 5d 08	 fstp	 DWORD PTR tv169[ebp]
  00023	d9 45 08	 fld	 DWORD PTR tv169[ebp]
  00026	e8 00 00 00 00	 call	 __CIsqrt
  0002b	d9 5d 08	 fstp	 DWORD PTR tv160[ebp]
  0002e	d9 45 08	 fld	 DWORD PTR tv160[ebp]

; 1718 : #else
; 1719 :     return (FLOAT) sqrt(pV->x * pV->x + pV->y * pV->y + pV->z * pV->z);
; 1720 : #endif
; 1721 : }

  00031	5d		 pop	 ebp
  00032	c3		 ret	 0
?D3DXVec3Length@@YAMPBUD3DXVECTOR3@@@Z ENDP		; D3DXVec3Length
_TEXT	ENDS
PUBLIC	?_DECSTR@@YAXPADH@Z				; _DECSTR
; Function compile flags: /Ogsp
; File d:\lost saga for developer\youtube\tutorial\source\src\lsclient\stringprotect.h
;	COMDAT ?_DECSTR@@YAXPADH@Z
_TEXT	SEGMENT
_s$ = 8							; size = 4
_l$ = 12						; size = 4
?_DECSTR@@YAXPADH@Z PROC				; _DECSTR, COMDAT

; 40   : __forceinline void _DECSTR(char* s, int l){int i=0,l4=(l-1)/4,*p=(int*)s;s[l-1]=0;for(;i<l4;++i)*(p++)^=0xEAEBECED;for(i=l4*4;i<l-1;++i)s[i]^=0xED-i%4;}

  00000	55		 push	 ebp
  00001	8b ec		 mov	 ebp, esp
  00003	8b 4d 0c	 mov	 ecx, DWORD PTR _l$[ebp]
  00006	56		 push	 esi
  00007	8b 75 08	 mov	 esi, DWORD PTR _s$[ebp]
  0000a	57		 push	 edi
  0000b	8d 79 ff	 lea	 edi, DWORD PTR [ecx-1]
  0000e	8b c7		 mov	 eax, edi
  00010	99		 cdq
  00011	83 e2 03	 and	 edx, 3
  00014	03 c2		 add	 eax, edx
  00016	c1 f8 02	 sar	 eax, 2
  00019	8b d6		 mov	 edx, esi
  0001b	c6 44 0e ff 00	 mov	 BYTE PTR [esi+ecx-1], 0
  00020	85 c0		 test	 eax, eax
  00022	7e 0e		 jle	 SHORT $LN4@DECSTR
  00024	8b c8		 mov	 ecx, eax
$LL6@DECSTR:
  00026	81 32 ed ec eb
	ea		 xor	 DWORD PTR [edx], -353637139 ; eaebecedH
  0002c	83 c2 04	 add	 edx, 4
  0002f	49		 dec	 ecx
  00030	75 f4		 jne	 SHORT $LL6@DECSTR
$LN4@DECSTR:
  00032	c1 e0 02	 shl	 eax, 2
  00035	eb 17		 jmp	 SHORT $LN14@DECSTR
$LL3@DECSTR:
  00037	8b c8		 mov	 ecx, eax
  00039	81 e1 03 00 00
	80		 and	 ecx, -2147483645	; 80000003H
  0003f	79 05		 jns	 SHORT $LN13@DECSTR
  00041	49		 dec	 ecx
  00042	83 c9 fc	 or	 ecx, -4			; fffffffcH
  00045	41		 inc	 ecx
$LN13@DECSTR:
  00046	b2 ed		 mov	 dl, -19			; ffffffedH
  00048	2a d1		 sub	 dl, cl
  0004a	30 14 30	 xor	 BYTE PTR [eax+esi], dl
  0004d	40		 inc	 eax
$LN14@DECSTR:
  0004e	3b c7		 cmp	 eax, edi
  00050	7c e5		 jl	 SHORT $LL3@DECSTR
  00052	5f		 pop	 edi
  00053	5e		 pop	 esi
  00054	5d		 pop	 ebp
  00055	c3		 ret	 0
?_DECSTR@@YAXPADH@Z ENDP				; _DECSTR
_TEXT	ENDS
PUBLIC	?GetGroup@ioGameEntity@@QBEPAVioEntityGroup@@XZ	; ioGameEntity::GetGroup
; Function compile flags: /Ogsp
; File d:\lost saga for developer\youtube\tutorial\source\src\lsclient\iogameentity.h
;	COMDAT ?GetGroup@ioGameEntity@@QBEPAVioEntityGroup@@XZ
_TEXT	SEGMENT
?GetGroup@ioGameEntity@@QBEPAVioEntityGroup@@XZ PROC	; ioGameEntity::GetGroup, COMDAT
; _this$ = ecx

; 166  : 	inline ioEntityGroup* GetGroup() const { return m_pGroup; }

  00000	8b 41 04	 mov	 eax, DWORD PTR [ecx+4]
  00003	c3		 ret	 0
?GetGroup@ioGameEntity@@QBEPAVioEntityGroup@@XZ ENDP	; ioGameEntity::GetGroup
_TEXT	ENDS
PUBLIC	??1WeaponInfo@@QAE@XZ				; WeaponInfo::~WeaponInfo
EXTRN	__imp_??1ioHashString@@QAE@XZ:PROC
; Function compile flags: /Ogsp
;	COMDAT ??1WeaponInfo@@QAE@XZ
_TEXT	SEGMENT
??1WeaponInfo@@QAE@XZ PROC				; WeaponInfo::~WeaponInfo, COMDAT
; _this$ = ecx
  00000	83 c1 08	 add	 ecx, 8
  00003	ff 25 00 00 00
	00		 jmp	 DWORD PTR __imp_??1ioHashString@@QAE@XZ
??1WeaponInfo@@QAE@XZ ENDP				; WeaponInfo::~WeaponInfo
_TEXT	ENDS
PUBLIC	?GetOwnerItem@ioSkill@@QBEPAVioItem@@XZ		; ioSkill::GetOwnerItem
; Function compile flags: /Ogsp
; File d:\lost saga for developer\youtube\tutorial\source\src\lsclient\ioskill.h
;	COMDAT ?GetOwnerItem@ioSkill@@QBEPAVioItem@@XZ
_TEXT	SEGMENT
?GetOwnerItem@ioSkill@@QBEPAVioItem@@XZ PROC		; ioSkill::GetOwnerItem, COMDAT
; _this$ = ecx

; 397  : 	inline ioItem *GetOwnerItem() const { return m_pOwnerItem; }

  00000	8b 81 a4 02 00
	00		 mov	 eax, DWORD PTR [ecx+676]
  00006	c3		 ret	 0
?GetOwnerItem@ioSkill@@QBEPAVioItem@@XZ ENDP		; ioSkill::GetOwnerItem
_TEXT	ENDS
PUBLIC	?GetName@ioSkill@@QBEABVioHashString@@XZ	; ioSkill::GetName
; Function compile flags: /Ogsp
;	COMDAT ?GetName@ioSkill@@QBEABVioHashString@@XZ
_TEXT	SEGMENT
?GetName@ioSkill@@QBEABVioHashString@@XZ PROC		; ioSkill::GetName, COMDAT
; _this$ = ecx

; 414  : 	inline const ioHashString& GetName() const { return m_Name; }

  00000	8d 41 24	 lea	 eax, DWORD PTR [ecx+36]
  00003	c3		 ret	 0
?GetName@ioSkill@@QBEABVioHashString@@XZ ENDP		; ioSkill::GetName
_TEXT	ENDS
PUBLIC	??_7?$CEncrypt@K@@6B@				; CEncrypt<unsigned long>::`vftable'
PUBLIC	??1?$CEncrypt@K@@UAE@XZ				; CEncrypt<unsigned long>::~CEncrypt<unsigned long>
PUBLIC	??_R4?$CEncrypt@K@@6B@				; CEncrypt<unsigned long>::`RTTI Complete Object Locator'
PUBLIC	??_R0?AV?$CEncrypt@K@@@8			; CEncrypt<unsigned long> `RTTI Type Descriptor'
PUBLIC	??_R3?$CEncrypt@K@@8				; CEncrypt<unsigned long>::`RTTI Class Hierarchy Descriptor'
PUBLIC	??_R2?$CEncrypt@K@@8				; CEncrypt<unsigned long>::`RTTI Base Class Array'
PUBLIC	??_R1A@?0A@EA@?$CEncrypt@K@@8			; CEncrypt<unsigned long>::`RTTI Base Class Descriptor at (0,-1,0,64)'
EXTRN	??1ccddaabb@@UAE@XZ:PROC			; ccddaabb::~ccddaabb
EXTRN	??_E?$CEncrypt@K@@UAEPAXI@Z:PROC		; CEncrypt<unsigned long>::`vector deleting destructor'
;	COMDAT ??_R1A@?0A@EA@?$CEncrypt@K@@8
; File d:\lost saga for developer\youtube\tutorial\source\src\lsclient\encryptvalue.h
rdata$r	SEGMENT
??_R1A@?0A@EA@?$CEncrypt@K@@8 DD FLAT:??_R0?AV?$CEncrypt@K@@@8 ; CEncrypt<unsigned long>::`RTTI Base Class Descriptor at (0,-1,0,64)'
	DD	00H
	DD	00H
	DD	0ffffffffH
	DD	00H
	DD	040H
	DD	FLAT:??_R3?$CEncrypt@K@@8
rdata$r	ENDS
;	COMDAT ??_R2?$CEncrypt@K@@8
rdata$r	SEGMENT
??_R2?$CEncrypt@K@@8 DD FLAT:??_R1A@?0A@EA@?$CEncrypt@K@@8 ; CEncrypt<unsigned long>::`RTTI Base Class Array'
rdata$r	ENDS
;	COMDAT ??_R3?$CEncrypt@K@@8
rdata$r	SEGMENT
??_R3?$CEncrypt@K@@8 DD 00H				; CEncrypt<unsigned long>::`RTTI Class Hierarchy Descriptor'
	DD	00H
	DD	01H
	DD	FLAT:??_R2?$CEncrypt@K@@8
rdata$r	ENDS
;	COMDAT ??_R0?AV?$CEncrypt@K@@@8
_DATA	SEGMENT
??_R0?AV?$CEncrypt@K@@@8 DD FLAT:??_7type_info@@6B@	; CEncrypt<unsigned long> `RTTI Type Descriptor'
	DD	00H
	DB	'.?AV?$CEncrypt@K@@', 00H
_DATA	ENDS
;	COMDAT ??_R4?$CEncrypt@K@@6B@
rdata$r	SEGMENT
??_R4?$CEncrypt@K@@6B@ DD 00H				; CEncrypt<unsigned long>::`RTTI Complete Object Locator'
	DD	00H
	DD	00H
	DD	FLAT:??_R0?AV?$CEncrypt@K@@@8
	DD	FLAT:??_R3?$CEncrypt@K@@8
rdata$r	ENDS
;	COMDAT ??_7?$CEncrypt@K@@6B@
CONST	SEGMENT
??_7?$CEncrypt@K@@6B@ DD FLAT:??_R4?$CEncrypt@K@@6B@	; CEncrypt<unsigned long>::`vftable'
	DD	FLAT:??_E?$CEncrypt@K@@UAEPAXI@Z
; Function compile flags: /Ogsp
CONST	ENDS
;	COMDAT ??1?$CEncrypt@K@@UAE@XZ
_TEXT	SEGMENT
??1?$CEncrypt@K@@UAE@XZ PROC				; CEncrypt<unsigned long>::~CEncrypt<unsigned long>, COMDAT
; _this$ = ecx

; 127  : 	{

  00000	c7 01 00 00 00
	00		 mov	 DWORD PTR [ecx], OFFSET ??_7?$CEncrypt@K@@6B@

; 128  : 	}

  00006	83 c1 0c	 add	 ecx, 12			; 0000000cH
  00009	e9 00 00 00 00	 jmp	 ??1ccddaabb@@UAE@XZ	; ccddaabb::~ccddaabb
??1?$CEncrypt@K@@UAE@XZ ENDP				; CEncrypt<unsigned long>::~CEncrypt<unsigned long>
_TEXT	ENDS
PUBLIC	??_7?$CEncrypt@H@@6B@				; CEncrypt<int>::`vftable'
PUBLIC	??1?$CEncrypt@H@@UAE@XZ				; CEncrypt<int>::~CEncrypt<int>
PUBLIC	??_R4?$CEncrypt@H@@6B@				; CEncrypt<int>::`RTTI Complete Object Locator'
PUBLIC	??_R0?AV?$CEncrypt@H@@@8			; CEncrypt<int> `RTTI Type Descriptor'
PUBLIC	??_R3?$CEncrypt@H@@8				; CEncrypt<int>::`RTTI Class Hierarchy Descriptor'
PUBLIC	??_R2?$CEncrypt@H@@8				; CEncrypt<int>::`RTTI Base Class Array'
PUBLIC	??_R1A@?0A@EA@?$CEncrypt@H@@8			; CEncrypt<int>::`RTTI Base Class Descriptor at (0,-1,0,64)'
EXTRN	??_E?$CEncrypt@H@@UAEPAXI@Z:PROC		; CEncrypt<int>::`vector deleting destructor'
;	COMDAT ??_R1A@?0A@EA@?$CEncrypt@H@@8
rdata$r	SEGMENT
??_R1A@?0A@EA@?$CEncrypt@H@@8 DD FLAT:??_R0?AV?$CEncrypt@H@@@8 ; CEncrypt<int>::`RTTI Base Class Descriptor at (0,-1,0,64)'
	DD	00H
	DD	00H
	DD	0ffffffffH
	DD	00H
	DD	040H
	DD	FLAT:??_R3?$CEncrypt@H@@8
rdata$r	ENDS
;	COMDAT ??_R2?$CEncrypt@H@@8
rdata$r	SEGMENT
??_R2?$CEncrypt@H@@8 DD FLAT:??_R1A@?0A@EA@?$CEncrypt@H@@8 ; CEncrypt<int>::`RTTI Base Class Array'
rdata$r	ENDS
;	COMDAT ??_R3?$CEncrypt@H@@8
rdata$r	SEGMENT
??_R3?$CEncrypt@H@@8 DD 00H				; CEncrypt<int>::`RTTI Class Hierarchy Descriptor'
	DD	00H
	DD	01H
	DD	FLAT:??_R2?$CEncrypt@H@@8
rdata$r	ENDS
;	COMDAT ??_R0?AV?$CEncrypt@H@@@8
_DATA	SEGMENT
??_R0?AV?$CEncrypt@H@@@8 DD FLAT:??_7type_info@@6B@	; CEncrypt<int> `RTTI Type Descriptor'
	DD	00H
	DB	'.?AV?$CEncrypt@H@@', 00H
_DATA	ENDS
;	COMDAT ??_R4?$CEncrypt@H@@6B@
rdata$r	SEGMENT
??_R4?$CEncrypt@H@@6B@ DD 00H				; CEncrypt<int>::`RTTI Complete Object Locator'
	DD	00H
	DD	00H
	DD	FLAT:??_R0?AV?$CEncrypt@H@@@8
	DD	FLAT:??_R3?$CEncrypt@H@@8
rdata$r	ENDS
;	COMDAT ??_7?$CEncrypt@H@@6B@
CONST	SEGMENT
??_7?$CEncrypt@H@@6B@ DD FLAT:??_R4?$CEncrypt@H@@6B@	; CEncrypt<int>::`vftable'
	DD	FLAT:??_E?$CEncrypt@H@@UAEPAXI@Z
; Function compile flags: /Ogsp
CONST	ENDS
;	COMDAT ??1?$CEncrypt@H@@UAE@XZ
_TEXT	SEGMENT
??1?$CEncrypt@H@@UAE@XZ PROC				; CEncrypt<int>::~CEncrypt<int>, COMDAT
; _this$ = ecx

; 127  : 	{

  00000	c7 01 00 00 00
	00		 mov	 DWORD PTR [ecx], OFFSET ??_7?$CEncrypt@H@@6B@

; 128  : 	}

  00006	83 c1 0c	 add	 ecx, 12			; 0000000cH
  00009	e9 00 00 00 00	 jmp	 ??1ccddaabb@@UAE@XZ	; ccddaabb::~ccddaabb
??1?$CEncrypt@H@@UAE@XZ ENDP				; CEncrypt<int>::~CEncrypt<int>
; Function compile flags: /Ogsp
_TEXT	ENDS
;	COMDAT ??_G?$CEncrypt@K@@UAEPAXI@Z
_TEXT	SEGMENT
___flags$ = 8						; size = 4
??_G?$CEncrypt@K@@UAEPAXI@Z PROC			; CEncrypt<unsigned long>::`scalar deleting destructor', COMDAT
; _this$ = ecx
  00000	55		 push	 ebp
  00001	8b ec		 mov	 ebp, esp
  00003	56		 push	 esi
  00004	8b f1		 mov	 esi, ecx
  00006	8d 4e 0c	 lea	 ecx, DWORD PTR [esi+12]
  00009	c7 06 00 00 00
	00		 mov	 DWORD PTR [esi], OFFSET ??_7?$CEncrypt@K@@6B@
  0000f	e8 00 00 00 00	 call	 ??1ccddaabb@@UAE@XZ	; ccddaabb::~ccddaabb
  00014	f6 45 08 01	 test	 BYTE PTR ___flags$[ebp], 1
  00018	74 07		 je	 SHORT $LN1@scalar@2
  0001a	56		 push	 esi
  0001b	e8 00 00 00 00	 call	 ??3@YAXPAX@Z		; operator delete
  00020	59		 pop	 ecx
$LN1@scalar@2:
  00021	8b c6		 mov	 eax, esi
  00023	5e		 pop	 esi
  00024	5d		 pop	 ebp
  00025	c2 04 00	 ret	 4
??_G?$CEncrypt@K@@UAEPAXI@Z ENDP			; CEncrypt<unsigned long>::`scalar deleting destructor'
; Function compile flags: /Ogsp
_TEXT	ENDS
;	COMDAT ??_G?$CEncrypt@H@@UAEPAXI@Z
_TEXT	SEGMENT
___flags$ = 8						; size = 4
??_G?$CEncrypt@H@@UAEPAXI@Z PROC			; CEncrypt<int>::`scalar deleting destructor', COMDAT
; _this$ = ecx
  00000	55		 push	 ebp
  00001	8b ec		 mov	 ebp, esp
  00003	56		 push	 esi
  00004	8b f1		 mov	 esi, ecx
  00006	8d 4e 0c	 lea	 ecx, DWORD PTR [esi+12]
  00009	c7 06 00 00 00
	00		 mov	 DWORD PTR [esi], OFFSET ??_7?$CEncrypt@H@@6B@
  0000f	e8 00 00 00 00	 call	 ??1ccddaabb@@UAE@XZ	; ccddaabb::~ccddaabb
  00014	f6 45 08 01	 test	 BYTE PTR ___flags$[ebp], 1
  00018	74 07		 je	 SHORT $LN1@scalar@3
  0001a	56		 push	 esi
  0001b	e8 00 00 00 00	 call	 ??3@YAXPAX@Z		; operator delete
  00020	59		 pop	 ecx
$LN1@scalar@3:
  00021	8b c6		 mov	 eax, esi
  00023	5e		 pop	 esi
  00024	5d		 pop	 ebp
  00025	c2 04 00	 ret	 4
??_G?$CEncrypt@H@@UAEPAXI@Z ENDP			; CEncrypt<int>::`scalar deleting destructor'
_TEXT	ENDS
PUBLIC	??1?$_Vector_val@UWeaponInfo@@V?$allocator@UWeaponInfo@@@std@@@std@@QAE@XZ ; std::_Vector_val<WeaponInfo,std::allocator<WeaponInfo> >::~_Vector_val<WeaponInfo,std::allocator<WeaponInfo> >
; Function compile flags: /Ogsp
; File c:\program files (x86)\microsoft visual studio 10.0\vc\include\vector
;	COMDAT ??1?$_Vector_val@UWeaponInfo@@V?$allocator@UWeaponInfo@@@std@@@std@@QAE@XZ
_TEXT	SEGMENT
??1?$_Vector_val@UWeaponInfo@@V?$allocator@UWeaponInfo@@@std@@@std@@QAE@XZ PROC ; std::_Vector_val<WeaponInfo,std::allocator<WeaponInfo> >::~_Vector_val<WeaponInfo,std::allocator<WeaponInfo> >, COMDAT
; _this$ = ecx

; 434  : 		}

  00000	c3		 ret	 0
??1?$_Vector_val@UWeaponInfo@@V?$allocator@UWeaponInfo@@@std@@@std@@QAE@XZ ENDP ; std::_Vector_val<WeaponInfo,std::allocator<WeaponInfo> >::~_Vector_val<WeaponInfo,std::allocator<WeaponInfo> >
_TEXT	ENDS
PUBLIC	??0?$allocator@UWeaponInfo@@@std@@QAE@XZ	; std::allocator<WeaponInfo>::allocator<WeaponInfo>
; Function compile flags: /Ogsp
; File c:\program files (x86)\microsoft visual studio 10.0\vc\include\xmemory
;	COMDAT ??0?$allocator@UWeaponInfo@@@std@@QAE@XZ
_TEXT	SEGMENT
??0?$allocator@UWeaponInfo@@@std@@QAE@XZ PROC		; std::allocator<WeaponInfo>::allocator<WeaponInfo>, COMDAT
; _this$ = ecx

; 161  : 	_ALLOCATOR() _THROW0()

  00000	8b c1		 mov	 eax, ecx

; 162  : 		{	// construct default allocator (do nothing)
; 163  : 		}

  00002	c3		 ret	 0
??0?$allocator@UWeaponInfo@@@std@@QAE@XZ ENDP		; std::allocator<WeaponInfo>::allocator<WeaponInfo>
_TEXT	ENDS
PUBLIC	??1?$_Vector_val@UForceInfo@@V?$allocator@UForceInfo@@@std@@@std@@QAE@XZ ; std::_Vector_val<ForceInfo,std::allocator<ForceInfo> >::~_Vector_val<ForceInfo,std::allocator<ForceInfo> >
; Function compile flags: /Ogsp
; File c:\program files (x86)\microsoft visual studio 10.0\vc\include\vector
;	COMDAT ??1?$_Vector_val@UForceInfo@@V?$allocator@UForceInfo@@@std@@@std@@QAE@XZ
_TEXT	SEGMENT
??1?$_Vector_val@UForceInfo@@V?$allocator@UForceInfo@@@std@@@std@@QAE@XZ PROC ; std::_Vector_val<ForceInfo,std::allocator<ForceInfo> >::~_Vector_val<ForceInfo,std::allocator<ForceInfo> >, COMDAT
; _this$ = ecx

; 434  : 		}

  00000	c3		 ret	 0
??1?$_Vector_val@UForceInfo@@V?$allocator@UForceInfo@@@std@@@std@@QAE@XZ ENDP ; std::_Vector_val<ForceInfo,std::allocator<ForceInfo> >::~_Vector_val<ForceInfo,std::allocator<ForceInfo> >
_TEXT	ENDS
PUBLIC	??0?$allocator@UForceInfo@@@std@@QAE@XZ		; std::allocator<ForceInfo>::allocator<ForceInfo>
; Function compile flags: /Ogsp
; File c:\program files (x86)\microsoft visual studio 10.0\vc\include\xmemory
;	COMDAT ??0?$allocator@UForceInfo@@@std@@QAE@XZ
_TEXT	SEGMENT
??0?$allocator@UForceInfo@@@std@@QAE@XZ PROC		; std::allocator<ForceInfo>::allocator<ForceInfo>, COMDAT
; _this$ = ecx

; 161  : 	_ALLOCATOR() _THROW0()

  00000	8b c1		 mov	 eax, ecx

; 162  : 		{	// construct default allocator (do nothing)
; 163  : 		}

  00002	c3		 ret	 0
??0?$allocator@UForceInfo@@@std@@QAE@XZ ENDP		; std::allocator<ForceInfo>::allocator<ForceInfo>
_TEXT	ENDS
PUBLIC	?EncryptValueToPool@?$CEncrypt@M@@AAEXPBD@Z	; CEncrypt<float>::EncryptValueToPool
EXTRN	?EncryptByte@ccddaabb@@QAEXPBDPADH@Z:PROC	; ccddaabb::EncryptByte
; Function compile flags: /Ogsp
; File d:\lost saga for developer\youtube\tutorial\source\src\lsclient\encryptvalue.h
;	COMDAT ?EncryptValueToPool@?$CEncrypt@M@@AAEXPBD@Z
_TEXT	SEGMENT
_value$ = 8						; size = 4
?EncryptValueToPool@?$CEncrypt@M@@AAEXPBD@Z PROC	; CEncrypt<float>::EncryptValueToPool, COMDAT
; _this$ = ecx

; 67   : 	{

  00000	55		 push	 ebp
  00001	8b ec		 mov	 ebp, esp

; 68   : 		m_RC5.EncryptByte( value, m_MemPool, max(m_ValueSize, DEFAULT_ENCRYPT) );

  00003	0f b7 41 06	 movzx	 eax, WORD PTR [ecx+6]
  00007	83 f8 04	 cmp	 eax, 4
  0000a	77 03		 ja	 SHORT $LN4@EncryptVal
  0000c	6a 04		 push	 4
  0000e	58		 pop	 eax
$LN4@EncryptVal:
  0000f	50		 push	 eax
  00010	8d 41 1c	 lea	 eax, DWORD PTR [ecx+28]
  00013	50		 push	 eax
  00014	ff 75 08	 push	 DWORD PTR _value$[ebp]
  00017	83 c1 0c	 add	 ecx, 12			; 0000000cH
  0001a	e8 00 00 00 00	 call	 ?EncryptByte@ccddaabb@@QAEXPBDPADH@Z ; ccddaabb::EncryptByte

; 69   : 		
; 70   : 	}

  0001f	5d		 pop	 ebp
  00020	c2 04 00	 ret	 4
?EncryptValueToPool@?$CEncrypt@M@@AAEXPBD@Z ENDP	; CEncrypt<float>::EncryptValueToPool
_TEXT	ENDS
PUBLIC	?DecryptValueToPool@?$CEncrypt@M@@QAEXPAM@Z	; CEncrypt<float>::DecryptValueToPool
EXTRN	?DecryptByte@ccddaabb@@QBEXPBDPADH@Z:PROC	; ccddaabb::DecryptByte
; Function compile flags: /Ogsp
;	COMDAT ?DecryptValueToPool@?$CEncrypt@M@@QAEXPAM@Z
_TEXT	SEGMENT
_value$ = 8						; size = 4
?DecryptValueToPool@?$CEncrypt@M@@QAEXPAM@Z PROC	; CEncrypt<float>::DecryptValueToPool, COMDAT
; _this$ = ecx

; 1648 : 	{

  00000	55		 push	 ebp
  00001	8b ec		 mov	 ebp, esp
  00003	56		 push	 esi

; 1649 : 		m_RC5.DecryptByte( m_MemPool, m_TempMem, 4 );

  00004	8d 71 28	 lea	 esi, DWORD PTR [ecx+40]
  00007	6a 04		 push	 4
  00009	8d 41 1c	 lea	 eax, DWORD PTR [ecx+28]
  0000c	56		 push	 esi
  0000d	50		 push	 eax
  0000e	83 c1 0c	 add	 ecx, 12			; 0000000cH
  00011	e8 00 00 00 00	 call	 ?DecryptByte@ccddaabb@@QBEXPBDPADH@Z ; ccddaabb::DecryptByte

; 1650 : 		*value = *((float*)m_TempMem);

  00016	d9 06		 fld	 DWORD PTR [esi]
  00018	8b 45 08	 mov	 eax, DWORD PTR _value$[ebp]
  0001b	d9 18		 fstp	 DWORD PTR [eax]
  0001d	5e		 pop	 esi

; 1651 : 	}

  0001e	5d		 pop	 ebp
  0001f	c2 04 00	 ret	 4
?DecryptValueToPool@?$CEncrypt@M@@QAEXPAM@Z ENDP	; CEncrypt<float>::DecryptValueToPool
_TEXT	ENDS
PUBLIC	?EncryptValueToPool@?$CEncrypt@K@@AAEXPBD@Z	; CEncrypt<unsigned long>::EncryptValueToPool
; Function compile flags: /Ogsp
;	COMDAT ?EncryptValueToPool@?$CEncrypt@K@@AAEXPBD@Z
_TEXT	SEGMENT
_value$ = 8						; size = 4
?EncryptValueToPool@?$CEncrypt@K@@AAEXPBD@Z PROC	; CEncrypt<unsigned long>::EncryptValueToPool, COMDAT
; _this$ = ecx

; 67   : 	{

  00000	55		 push	 ebp
  00001	8b ec		 mov	 ebp, esp

; 68   : 		m_RC5.EncryptByte( value, m_MemPool, max(m_ValueSize, DEFAULT_ENCRYPT) );

  00003	0f b7 41 06	 movzx	 eax, WORD PTR [ecx+6]
  00007	83 f8 04	 cmp	 eax, 4
  0000a	77 03		 ja	 SHORT $LN4@EncryptVal@2
  0000c	6a 04		 push	 4
  0000e	58		 pop	 eax
$LN4@EncryptVal@2:
  0000f	50		 push	 eax
  00010	8d 41 1c	 lea	 eax, DWORD PTR [ecx+28]
  00013	50		 push	 eax
  00014	ff 75 08	 push	 DWORD PTR _value$[ebp]
  00017	83 c1 0c	 add	 ecx, 12			; 0000000cH
  0001a	e8 00 00 00 00	 call	 ?EncryptByte@ccddaabb@@QAEXPBDPADH@Z ; ccddaabb::EncryptByte

; 69   : 		
; 70   : 	}

  0001f	5d		 pop	 ebp
  00020	c2 04 00	 ret	 4
?EncryptValueToPool@?$CEncrypt@K@@AAEXPBD@Z ENDP	; CEncrypt<unsigned long>::EncryptValueToPool
_TEXT	ENDS
PUBLIC	?Init@?$CEncrypt@K@@AAEXXZ			; CEncrypt<unsigned long>::Init
EXTRN	?Setup@ccddaabb@@QAEXPBDHH@Z:PROC		; ccddaabb::Setup
EXTRN	__imp__rand:PROC
EXTRN	__imp__timeGetTime@0:PROC
EXTRN	__imp__GetCurrentProcessId@0:PROC
; Function compile flags: /Ogsp
;	COMDAT ?Init@?$CEncrypt@K@@AAEXXZ
_TEXT	SEGMENT
_pid$ = -8						; size = 4
_tick$ = -4						; size = 4
?Init@?$CEncrypt@K@@AAEXXZ PROC				; CEncrypt<unsigned long>::Init, COMDAT
; _this$ = ecx

; 73   : 	{

  00000	55		 push	 ebp
  00001	8b ec		 mov	 ebp, esp
  00003	51		 push	 ecx
  00004	51		 push	 ecx
  00005	53		 push	 ebx
  00006	56		 push	 esi
  00007	57		 push	 edi
  00008	8b f1		 mov	 esi, ecx

; 74   : 		DWORD pid = GetCurrentProcessId();

  0000a	ff 15 00 00 00
	00		 call	 DWORD PTR __imp__GetCurrentProcessId@0
  00010	89 45 f8	 mov	 DWORD PTR _pid$[ebp], eax

; 75   : 		DWORD tick = timeGetTime();

  00013	ff 15 00 00 00
	00		 call	 DWORD PTR __imp__timeGetTime@0

; 76   : 		m_ValueSize    = sizeof(type);
; 77   : 		m_MemPoolPos   = (unsigned short)( rand()+pid+tick )%(MAX_MEM_POOL-m_ValueSize);

  00019	8b 3d 00 00 00
	00		 mov	 edi, DWORD PTR __imp__rand
  0001f	89 45 fc	 mov	 DWORD PTR _tick$[ebp], eax
  00022	6a 04		 push	 4
  00024	58		 pop	 eax
  00025	66 89 46 06	 mov	 WORD PTR [esi+6], ax
  00029	ff d7		 call	 edi
  0002b	03 45 f8	 add	 eax, DWORD PTR _pid$[ebp]
  0002e	0f b7 4e 06	 movzx	 ecx, WORD PTR [esi+6]
  00032	03 45 fc	 add	 eax, DWORD PTR _tick$[ebp]
  00035	6a 0c		 push	 12			; 0000000cH
  00037	0f b7 c0	 movzx	 eax, ax
  0003a	5b		 pop	 ebx
  0003b	99		 cdq
  0003c	2b d9		 sub	 ebx, ecx
  0003e	f7 fb		 idiv	 ebx
  00040	66 89 56 04	 mov	 WORD PTR [esi+4], dx

; 78   : 		m_EncryptSeed  = (char)( rand()+pid+tick )%256;

  00044	ff d7		 call	 edi
  00046	02 45 f8	 add	 al, BYTE PTR _pid$[ebp]
  00049	02 45 fc	 add	 al, BYTE PTR _tick$[ebp]
  0004c	0f be c0	 movsx	 eax, al
  0004f	25 ff 00 00 80	 and	 eax, -2147483393	; 800000ffH
  00054	79 07		 jns	 SHORT $LN8@Init
  00056	48		 dec	 eax
  00057	0d 00 ff ff ff	 or	 eax, -256		; ffffff00H
  0005c	40		 inc	 eax
$LN8@Init:
  0005d	88 46 08	 mov	 BYTE PTR [esi+8], al

; 79   : 
; 80   : 		for (int i = 0; i < MAX_MEM_POOL ; i++)

  00060	33 db		 xor	 ebx, ebx
$LL3@Init:

; 81   : 			m_MemPool[i] = (char)( rand()+pid+tick )%256; // 

  00062	ff d7		 call	 edi
  00064	02 45 f8	 add	 al, BYTE PTR _pid$[ebp]
  00067	02 45 fc	 add	 al, BYTE PTR _tick$[ebp]
  0006a	0f be c0	 movsx	 eax, al
  0006d	25 ff 00 00 80	 and	 eax, -2147483393	; 800000ffH
  00072	79 07		 jns	 SHORT $LN9@Init
  00074	48		 dec	 eax
  00075	0d 00 ff ff ff	 or	 eax, -256		; ffffff00H
  0007a	40		 inc	 eax
$LN9@Init:
  0007b	88 44 1e 1c	 mov	 BYTE PTR [esi+ebx+28], al
  0007f	43		 inc	 ebx
  00080	83 fb 0c	 cmp	 ebx, 12			; 0000000cH
  00083	7c dd		 jl	 SHORT $LL3@Init

; 82   : 
; 83   : 		//UJ 130913, : szKey  
; 84   : 		//char szKey[ccddaabb::KEY_SIZE];//="";
; 85   : 		//for (int i = 0; i < ccddaabb::KEY_SIZE  ; i++)
; 86   : 		//	szKey[i] = (char)( rand()+pid+tick )%256; // 
; 87   : 		m_RC5.Setup( NULL, pid, tick );

  00085	ff 75 fc	 push	 DWORD PTR _tick$[ebp]
  00088	8d 4e 0c	 lea	 ecx, DWORD PTR [esi+12]
  0008b	ff 75 f8	 push	 DWORD PTR _pid$[ebp]
  0008e	6a 00		 push	 0
  00090	e8 00 00 00 00	 call	 ?Setup@ccddaabb@@QAEXPBDHH@Z ; ccddaabb::Setup
  00095	5f		 pop	 edi
  00096	5e		 pop	 esi
  00097	5b		 pop	 ebx

; 88   : 
; 89   : #ifdef _NOTUSE
; 90   : 		m_value        = 0;
; 91   : 		EncryptValueToPool((char*)&m_value);
; 92   : 		Debug();
; 93   : #endif
; 94   : 	}

  00098	c9		 leave
  00099	c3		 ret	 0
?Init@?$CEncrypt@K@@AAEXXZ ENDP				; CEncrypt<unsigned long>::Init
_TEXT	ENDS
PUBLIC	?DecryptValueToPool@?$CEncrypt@K@@QAEXPAK@Z	; CEncrypt<unsigned long>::DecryptValueToPool
; Function compile flags: /Ogsp
;	COMDAT ?DecryptValueToPool@?$CEncrypt@K@@QAEXPAK@Z
_TEXT	SEGMENT
_value$ = 8						; size = 4
?DecryptValueToPool@?$CEncrypt@K@@QAEXPAK@Z PROC	; CEncrypt<unsigned long>::DecryptValueToPool, COMDAT
; _this$ = ecx

; 1256 : 	{

  00000	55		 push	 ebp
  00001	8b ec		 mov	 ebp, esp
  00003	56		 push	 esi

; 1257 : 		m_RC5.DecryptByte( m_MemPool, m_TempMem, 4 );

  00004	8d 71 28	 lea	 esi, DWORD PTR [ecx+40]
  00007	6a 04		 push	 4
  00009	8d 41 1c	 lea	 eax, DWORD PTR [ecx+28]
  0000c	56		 push	 esi
  0000d	50		 push	 eax
  0000e	83 c1 0c	 add	 ecx, 12			; 0000000cH
  00011	e8 00 00 00 00	 call	 ?DecryptByte@ccddaabb@@QBEXPBDPADH@Z ; ccddaabb::DecryptByte

; 1258 : 		*value = *((DWORD*)m_TempMem);

  00016	8b 06		 mov	 eax, DWORD PTR [esi]
  00018	8b 4d 08	 mov	 ecx, DWORD PTR _value$[ebp]
  0001b	89 01		 mov	 DWORD PTR [ecx], eax
  0001d	5e		 pop	 esi

; 1259 : 	}

  0001e	5d		 pop	 ebp
  0001f	c2 04 00	 ret	 4
?DecryptValueToPool@?$CEncrypt@K@@QAEXPAK@Z ENDP	; CEncrypt<unsigned long>::DecryptValueToPool
_TEXT	ENDS
PUBLIC	?DecryptValueToPool@?$CEncrypt@_N@@QAEXPA_N@Z	; CEncrypt<bool>::DecryptValueToPool
; Function compile flags: /Ogsp
;	COMDAT ?DecryptValueToPool@?$CEncrypt@_N@@QAEXPA_N@Z
_TEXT	SEGMENT
_value$ = 8						; size = 4
?DecryptValueToPool@?$CEncrypt@_N@@QAEXPA_N@Z PROC	; CEncrypt<bool>::DecryptValueToPool, COMDAT
; _this$ = ecx

; 219  : 	{

  00000	55		 push	 ebp
  00001	8b ec		 mov	 ebp, esp
  00003	56		 push	 esi

; 220  : 		m_RC5.DecryptByte( m_MemPool, m_TempMem, 4 );

  00004	8d 71 28	 lea	 esi, DWORD PTR [ecx+40]
  00007	6a 04		 push	 4
  00009	8d 41 1c	 lea	 eax, DWORD PTR [ecx+28]
  0000c	56		 push	 esi
  0000d	50		 push	 eax
  0000e	83 c1 0c	 add	 ecx, 12			; 0000000cH
  00011	e8 00 00 00 00	 call	 ?DecryptByte@ccddaabb@@QBEXPBDPADH@Z ; ccddaabb::DecryptByte

; 221  : 		*value = *((bool*)m_TempMem);

  00016	8a 06		 mov	 al, BYTE PTR [esi]
  00018	8b 4d 08	 mov	 ecx, DWORD PTR _value$[ebp]
  0001b	88 01		 mov	 BYTE PTR [ecx], al
  0001d	5e		 pop	 esi

; 222  : 	}

  0001e	5d		 pop	 ebp
  0001f	c2 04 00	 ret	 4
?DecryptValueToPool@?$CEncrypt@_N@@QAEXPA_N@Z ENDP	; CEncrypt<bool>::DecryptValueToPool
_TEXT	ENDS
PUBLIC	?EncryptValueToPool@?$CEncrypt@H@@AAEXPBD@Z	; CEncrypt<int>::EncryptValueToPool
; Function compile flags: /Ogsp
;	COMDAT ?EncryptValueToPool@?$CEncrypt@H@@AAEXPBD@Z
_TEXT	SEGMENT
_value$ = 8						; size = 4
?EncryptValueToPool@?$CEncrypt@H@@AAEXPBD@Z PROC	; CEncrypt<int>::EncryptValueToPool, COMDAT
; _this$ = ecx

; 67   : 	{

  00000	55		 push	 ebp
  00001	8b ec		 mov	 ebp, esp

; 68   : 		m_RC5.EncryptByte( value, m_MemPool, max(m_ValueSize, DEFAULT_ENCRYPT) );

  00003	0f b7 41 06	 movzx	 eax, WORD PTR [ecx+6]
  00007	83 f8 04	 cmp	 eax, 4
  0000a	77 03		 ja	 SHORT $LN4@EncryptVal@3
  0000c	6a 04		 push	 4
  0000e	58		 pop	 eax
$LN4@EncryptVal@3:
  0000f	50		 push	 eax
  00010	8d 41 1c	 lea	 eax, DWORD PTR [ecx+28]
  00013	50		 push	 eax
  00014	ff 75 08	 push	 DWORD PTR _value$[ebp]
  00017	83 c1 0c	 add	 ecx, 12			; 0000000cH
  0001a	e8 00 00 00 00	 call	 ?EncryptByte@ccddaabb@@QAEXPBDPADH@Z ; ccddaabb::EncryptByte

; 69   : 		
; 70   : 	}

  0001f	5d		 pop	 ebp
  00020	c2 04 00	 ret	 4
?EncryptValueToPool@?$CEncrypt@H@@AAEXPBD@Z ENDP	; CEncrypt<int>::EncryptValueToPool
_TEXT	ENDS
PUBLIC	?Init@?$CEncrypt@H@@AAEXXZ			; CEncrypt<int>::Init
; Function compile flags: /Ogsp
;	COMDAT ?Init@?$CEncrypt@H@@AAEXXZ
_TEXT	SEGMENT
_pid$ = -8						; size = 4
_tick$ = -4						; size = 4
?Init@?$CEncrypt@H@@AAEXXZ PROC				; CEncrypt<int>::Init, COMDAT
; _this$ = ecx

; 73   : 	{

  00000	55		 push	 ebp
  00001	8b ec		 mov	 ebp, esp
  00003	51		 push	 ecx
  00004	51		 push	 ecx
  00005	53		 push	 ebx
  00006	56		 push	 esi
  00007	57		 push	 edi
  00008	8b f1		 mov	 esi, ecx

; 74   : 		DWORD pid = GetCurrentProcessId();

  0000a	ff 15 00 00 00
	00		 call	 DWORD PTR __imp__GetCurrentProcessId@0
  00010	89 45 f8	 mov	 DWORD PTR _pid$[ebp], eax

; 75   : 		DWORD tick = timeGetTime();

  00013	ff 15 00 00 00
	00		 call	 DWORD PTR __imp__timeGetTime@0

; 76   : 		m_ValueSize    = sizeof(type);
; 77   : 		m_MemPoolPos   = (unsigned short)( rand()+pid+tick )%(MAX_MEM_POOL-m_ValueSize);

  00019	8b 3d 00 00 00
	00		 mov	 edi, DWORD PTR __imp__rand
  0001f	89 45 fc	 mov	 DWORD PTR _tick$[ebp], eax
  00022	6a 04		 push	 4
  00024	58		 pop	 eax
  00025	66 89 46 06	 mov	 WORD PTR [esi+6], ax
  00029	ff d7		 call	 edi
  0002b	03 45 f8	 add	 eax, DWORD PTR _pid$[ebp]
  0002e	0f b7 4e 06	 movzx	 ecx, WORD PTR [esi+6]
  00032	03 45 fc	 add	 eax, DWORD PTR _tick$[ebp]
  00035	6a 0c		 push	 12			; 0000000cH
  00037	0f b7 c0	 movzx	 eax, ax
  0003a	5b		 pop	 ebx
  0003b	99		 cdq
  0003c	2b d9		 sub	 ebx, ecx
  0003e	f7 fb		 idiv	 ebx
  00040	66 89 56 04	 mov	 WORD PTR [esi+4], dx

; 78   : 		m_EncryptSeed  = (char)( rand()+pid+tick )%256;

  00044	ff d7		 call	 edi
  00046	02 45 f8	 add	 al, BYTE PTR _pid$[ebp]
  00049	02 45 fc	 add	 al, BYTE PTR _tick$[ebp]
  0004c	0f be c0	 movsx	 eax, al
  0004f	25 ff 00 00 80	 and	 eax, -2147483393	; 800000ffH
  00054	79 07		 jns	 SHORT $LN8@Init@2
  00056	48		 dec	 eax
  00057	0d 00 ff ff ff	 or	 eax, -256		; ffffff00H
  0005c	40		 inc	 eax
$LN8@Init@2:
  0005d	88 46 08	 mov	 BYTE PTR [esi+8], al

; 79   : 
; 80   : 		for (int i = 0; i < MAX_MEM_POOL ; i++)

  00060	33 db		 xor	 ebx, ebx
$LL3@Init@2:

; 81   : 			m_MemPool[i] = (char)( rand()+pid+tick )%256; // 

  00062	ff d7		 call	 edi
  00064	02 45 f8	 add	 al, BYTE PTR _pid$[ebp]
  00067	02 45 fc	 add	 al, BYTE PTR _tick$[ebp]
  0006a	0f be c0	 movsx	 eax, al
  0006d	25 ff 00 00 80	 and	 eax, -2147483393	; 800000ffH
  00072	79 07		 jns	 SHORT $LN9@Init@2
  00074	48		 dec	 eax
  00075	0d 00 ff ff ff	 or	 eax, -256		; ffffff00H
  0007a	40		 inc	 eax
$LN9@Init@2:
  0007b	88 44 1e 1c	 mov	 BYTE PTR [esi+ebx+28], al
  0007f	43		 inc	 ebx
  00080	83 fb 0c	 cmp	 ebx, 12			; 0000000cH
  00083	7c dd		 jl	 SHORT $LL3@Init@2

; 82   : 
; 83   : 		//UJ 130913, : szKey  
; 84   : 		//char szKey[ccddaabb::KEY_SIZE];//="";
; 85   : 		//for (int i = 0; i < ccddaabb::KEY_SIZE  ; i++)
; 86   : 		//	szKey[i] = (char)( rand()+pid+tick )%256; // 
; 87   : 		m_RC5.Setup( NULL, pid, tick );

  00085	ff 75 fc	 push	 DWORD PTR _tick$[ebp]
  00088	8d 4e 0c	 lea	 ecx, DWORD PTR [esi+12]
  0008b	ff 75 f8	 push	 DWORD PTR _pid$[ebp]
  0008e	6a 00		 push	 0
  00090	e8 00 00 00 00	 call	 ?Setup@ccddaabb@@QAEXPBDHH@Z ; ccddaabb::Setup
  00095	5f		 pop	 edi
  00096	5e		 pop	 esi
  00097	5b		 pop	 ebx

; 88   : 
; 89   : #ifdef _NOTUSE
; 90   : 		m_value        = 0;
; 91   : 		EncryptValueToPool((char*)&m_value);
; 92   : 		Debug();
; 93   : #endif
; 94   : 	}

  00098	c9		 leave
  00099	c3		 ret	 0
?Init@?$CEncrypt@H@@AAEXXZ ENDP				; CEncrypt<int>::Init
_TEXT	ENDS
PUBLIC	?DecryptValueToPool@?$CEncrypt@H@@QAEXPAH@Z	; CEncrypt<int>::DecryptValueToPool
; Function compile flags: /Ogsp
;	COMDAT ?DecryptValueToPool@?$CEncrypt@H@@QAEXPAH@Z
_TEXT	SEGMENT
_value$ = 8						; size = 4
?DecryptValueToPool@?$CEncrypt@H@@QAEXPAH@Z PROC	; CEncrypt<int>::DecryptValueToPool, COMDAT
; _this$ = ecx

; 837  : 	{

  00000	55		 push	 ebp
  00001	8b ec		 mov	 ebp, esp
  00003	56		 push	 esi

; 838  : 		m_RC5.DecryptByte( m_MemPool, m_TempMem, 4 );

  00004	8d 71 28	 lea	 esi, DWORD PTR [ecx+40]
  00007	6a 04		 push	 4
  00009	8d 41 1c	 lea	 eax, DWORD PTR [ecx+28]
  0000c	56		 push	 esi
  0000d	50		 push	 eax
  0000e	83 c1 0c	 add	 ecx, 12			; 0000000cH
  00011	e8 00 00 00 00	 call	 ?DecryptByte@ccddaabb@@QBEXPBDPADH@Z ; ccddaabb::DecryptByte

; 839  : 		*value = *((int*)m_TempMem);

  00016	8b 06		 mov	 eax, DWORD PTR [esi]
  00018	8b 4d 08	 mov	 ecx, DWORD PTR _value$[ebp]
  0001b	89 01		 mov	 DWORD PTR [ecx], eax
  0001d	5e		 pop	 esi

; 840  : 	}

  0001e	5d		 pop	 ebp
  0001f	c2 04 00	 ret	 4
?DecryptValueToPool@?$CEncrypt@H@@QAEXPAH@Z ENDP	; CEncrypt<int>::DecryptValueToPool
_TEXT	ENDS
PUBLIC	?DecryptValueToPool@?$CEncrypt@W4TeamType@@@@QAEXPAW4TeamType@@@Z ; CEncrypt<enum TeamType>::DecryptValueToPool
; Function compile flags: /Ogsp
;	COMDAT ?DecryptValueToPool@?$CEncrypt@W4TeamType@@@@QAEXPAW4TeamType@@@Z
_TEXT	SEGMENT
_value$ = 8						; size = 4
?DecryptValueToPool@?$CEncrypt@W4TeamType@@@@QAEXPAW4TeamType@@@Z PROC ; CEncrypt<enum TeamType>::DecryptValueToPool, COMDAT
; _this$ = ecx

; 2959 : 	{

  00000	55		 push	 ebp
  00001	8b ec		 mov	 ebp, esp
  00003	56		 push	 esi

; 2960 : 		m_RC5.DecryptByte( m_MemPool, m_TempMem, sizeof(TeamType) );

  00004	8d 71 28	 lea	 esi, DWORD PTR [ecx+40]
  00007	6a 04		 push	 4
  00009	8d 41 1c	 lea	 eax, DWORD PTR [ecx+28]
  0000c	56		 push	 esi
  0000d	50		 push	 eax
  0000e	83 c1 0c	 add	 ecx, 12			; 0000000cH
  00011	e8 00 00 00 00	 call	 ?DecryptByte@ccddaabb@@QBEXPBDPADH@Z ; ccddaabb::DecryptByte

; 2961 : 		*value = *((TeamType*)m_TempMem);

  00016	8b 06		 mov	 eax, DWORD PTR [esi]
  00018	8b 4d 08	 mov	 ecx, DWORD PTR _value$[ebp]
  0001b	89 01		 mov	 DWORD PTR [ecx], eax
  0001d	5e		 pop	 esi

; 2962 : 	}

  0001e	5d		 pop	 ebp
  0001f	c2 04 00	 ret	 4
?DecryptValueToPool@?$CEncrypt@W4TeamType@@@@QAEXPAW4TeamType@@@Z ENDP ; CEncrypt<enum TeamType>::DecryptValueToPool
_TEXT	ENDS
PUBLIC	??0?$allocator@UWeaponInfo@@@std@@QAE@ABV01@@Z	; std::allocator<WeaponInfo>::allocator<WeaponInfo>
; Function compile flags: /Ogsp
; File c:\program files (x86)\microsoft visual studio 10.0\vc\include\xmemory
;	COMDAT ??0?$allocator@UWeaponInfo@@@std@@QAE@ABV01@@Z
_TEXT	SEGMENT
___formal$ = 8						; size = 4
??0?$allocator@UWeaponInfo@@@std@@QAE@ABV01@@Z PROC	; std::allocator<WeaponInfo>::allocator<WeaponInfo>, COMDAT
; _this$ = ecx

; 165  : 	_ALLOCATOR(const _ALLOCATOR<_Ty>&) _THROW0()

  00000	8b c1		 mov	 eax, ecx

; 166  : 		{	// construct by copying (do nothing)
; 167  : 		}

  00002	c2 04 00	 ret	 4
??0?$allocator@UWeaponInfo@@@std@@QAE@ABV01@@Z ENDP	; std::allocator<WeaponInfo>::allocator<WeaponInfo>
_TEXT	ENDS
PUBLIC	?deallocate@?$allocator@UWeaponInfo@@@std@@QAEXPAUWeaponInfo@@I@Z ; std::allocator<WeaponInfo>::deallocate
; Function compile flags: /Ogsp
;	COMDAT ?deallocate@?$allocator@UWeaponInfo@@@std@@QAEXPAUWeaponInfo@@I@Z
_TEXT	SEGMENT
__Ptr$ = 8						; size = 4
___formal$ = 12						; size = 4
?deallocate@?$allocator@UWeaponInfo@@@std@@QAEXPAUWeaponInfo@@I@Z PROC ; std::allocator<WeaponInfo>::deallocate, COMDAT
; _this$ = ecx

; 181  : 		{	// deallocate object at _Ptr, ignore size

  00000	55		 push	 ebp
  00001	8b ec		 mov	 ebp, esp

; 182  : 		::operator delete(_Ptr);

  00003	ff 75 08	 push	 DWORD PTR __Ptr$[ebp]
  00006	e8 00 00 00 00	 call	 ??3@YAXPAX@Z		; operator delete
  0000b	59		 pop	 ecx

; 183  : 		}

  0000c	5d		 pop	 ebp
  0000d	c2 08 00	 ret	 8
?deallocate@?$allocator@UWeaponInfo@@@std@@QAEXPAUWeaponInfo@@I@Z ENDP ; std::allocator<WeaponInfo>::deallocate
_TEXT	ENDS
PUBLIC	??0?$allocator@UForceInfo@@@std@@QAE@ABV01@@Z	; std::allocator<ForceInfo>::allocator<ForceInfo>
; Function compile flags: /Ogsp
;	COMDAT ??0?$allocator@UForceInfo@@@std@@QAE@ABV01@@Z
_TEXT	SEGMENT
___formal$ = 8						; size = 4
??0?$allocator@UForceInfo@@@std@@QAE@ABV01@@Z PROC	; std::allocator<ForceInfo>::allocator<ForceInfo>, COMDAT
; _this$ = ecx

; 165  : 	_ALLOCATOR(const _ALLOCATOR<_Ty>&) _THROW0()

  00000	8b c1		 mov	 eax, ecx

; 166  : 		{	// construct by copying (do nothing)
; 167  : 		}

  00002	c2 04 00	 ret	 4
??0?$allocator@UForceInfo@@@std@@QAE@ABV01@@Z ENDP	; std::allocator<ForceInfo>::allocator<ForceInfo>
_TEXT	ENDS
PUBLIC	?deallocate@?$allocator@UForceInfo@@@std@@QAEXPAUForceInfo@@I@Z ; std::allocator<ForceInfo>::deallocate
; Function compile flags: /Ogsp
;	COMDAT ?deallocate@?$allocator@UForceInfo@@@std@@QAEXPAUForceInfo@@I@Z
_TEXT	SEGMENT
__Ptr$ = 8						; size = 4
___formal$ = 12						; size = 4
?deallocate@?$allocator@UForceInfo@@@std@@QAEXPAUForceInfo@@I@Z PROC ; std::allocator<ForceInfo>::deallocate, COMDAT
; _this$ = ecx

; 181  : 		{	// deallocate object at _Ptr, ignore size

  00000	55		 push	 ebp
  00001	8b ec		 mov	 ebp, esp

; 182  : 		::operator delete(_Ptr);

  00003	ff 75 08	 push	 DWORD PTR __Ptr$[ebp]
  00006	e8 00 00 00 00	 call	 ??3@YAXPAX@Z		; operator delete
  0000b	59		 pop	 ecx

; 183  : 		}

  0000c	5d		 pop	 ebp
  0000d	c2 08 00	 ret	 8
?deallocate@?$allocator@UForceInfo@@@std@@QAEXPAUForceInfo@@I@Z ENDP ; std::allocator<ForceInfo>::deallocate
_TEXT	ENDS
PUBLIC	??$_Ptr_cat@UWeaponInfo@@U1@@std@@YA?AU_Nonscalar_ptr_iterator_tag@0@PAUWeaponInfo@@0@Z ; std::_Ptr_cat<WeaponInfo,WeaponInfo>
; Function compile flags: /Ogsp
; File c:\program files (x86)\microsoft visual studio 10.0\vc\include\xutility
;	COMDAT ??$_Ptr_cat@UWeaponInfo@@U1@@std@@YA?AU_Nonscalar_ptr_iterator_tag@0@PAUWeaponInfo@@0@Z
_TEXT	SEGMENT
__Cat$ = -1						; size = 1
___formal$ = 8						; size = 4
___formal$ = 12						; size = 4
??$_Ptr_cat@UWeaponInfo@@U1@@std@@YA?AU_Nonscalar_ptr_iterator_tag@0@PAUWeaponInfo@@0@Z PROC ; std::_Ptr_cat<WeaponInfo,WeaponInfo>, COMDAT

; 516  : 	{	// return pointer category from pointers

  00000	55		 push	 ebp
  00001	8b ec		 mov	 ebp, esp
  00003	51		 push	 ecx

; 517  : 	typename _Ptr_cat_helper<_Elem1, _Elem2>::_Type _Cat;
; 518  : 	return (_Cat);

  00004	8a 45 ff	 mov	 al, BYTE PTR __Cat$[ebp]

; 519  : 	}

  00007	c9		 leave
  00008	c3		 ret	 0
??$_Ptr_cat@UWeaponInfo@@U1@@std@@YA?AU_Nonscalar_ptr_iterator_tag@0@PAUWeaponInfo@@0@Z ENDP ; std::_Ptr_cat<WeaponInfo,WeaponInfo>
_TEXT	ENDS
PUBLIC	??$_Ptr_cat@UForceInfo@@U1@@std@@YA?AU_Nonscalar_ptr_iterator_tag@0@PAUForceInfo@@0@Z ; std::_Ptr_cat<ForceInfo,ForceInfo>
; Function compile flags: /Ogsp
;	COMDAT ??$_Ptr_cat@UForceInfo@@U1@@std@@YA?AU_Nonscalar_ptr_iterator_tag@0@PAUForceInfo@@0@Z
_TEXT	SEGMENT
__Cat$ = -1						; size = 1
___formal$ = 8						; size = 4
___formal$ = 12						; size = 4
??$_Ptr_cat@UForceInfo@@U1@@std@@YA?AU_Nonscalar_ptr_iterator_tag@0@PAUForceInfo@@0@Z PROC ; std::_Ptr_cat<ForceInfo,ForceInfo>, COMDAT

; 516  : 	{	// return pointer category from pointers

  00000	55		 push	 ebp
  00001	8b ec		 mov	 ebp, esp
  00003	51		 push	 ecx

; 517  : 	typename _Ptr_cat_helper<_Elem1, _Elem2>::_Type _Cat;
; 518  : 	return (_Cat);

  00004	8a 45 ff	 mov	 al, BYTE PTR __Cat$[ebp]

; 519  : 	}

  00007	c9		 leave
  00008	c3		 ret	 0
??$_Ptr_cat@UForceInfo@@U1@@std@@YA?AU_Nonscalar_ptr_iterator_tag@0@PAUForceInfo@@0@Z ENDP ; std::_Ptr_cat<ForceInfo,ForceInfo>
_TEXT	ENDS
PUBLIC	?size@?$vector@UWeaponInfo@@V?$allocator@UWeaponInfo@@@std@@@std@@QBEIXZ ; std::vector<WeaponInfo,std::allocator<WeaponInfo> >::size
; Function compile flags: /Ogsp
; File c:\program files (x86)\microsoft visual studio 10.0\vc\include\vector
;	COMDAT ?size@?$vector@UWeaponInfo@@V?$allocator@UWeaponInfo@@@std@@@std@@QBEIXZ
_TEXT	SEGMENT
?size@?$vector@UWeaponInfo@@V?$allocator@UWeaponInfo@@@std@@@std@@QBEIXZ PROC ; std::vector<WeaponInfo,std::allocator<WeaponInfo> >::size, COMDAT
; _this$ = ecx

; 879  : 		return (this->_Mylast - this->_Myfirst);

  00000	8b 41 04	 mov	 eax, DWORD PTR [ecx+4]
  00003	2b 01		 sub	 eax, DWORD PTR [ecx]
  00005	6a 28		 push	 40			; 00000028H
  00007	99		 cdq
  00008	59		 pop	 ecx
  00009	f7 f9		 idiv	 ecx

; 880  : 		}

  0000b	c3		 ret	 0
?size@?$vector@UWeaponInfo@@V?$allocator@UWeaponInfo@@@std@@@std@@QBEIXZ ENDP ; std::vector<WeaponInfo,std::allocator<WeaponInfo> >::size
_TEXT	ENDS
PUBLIC	?size@?$vector@UForceInfo@@V?$allocator@UForceInfo@@@std@@@std@@QBEIXZ ; std::vector<ForceInfo,std::allocator<ForceInfo> >::size
; Function compile flags: /Ogsp
;	COMDAT ?size@?$vector@UForceInfo@@V?$allocator@UForceInfo@@@std@@@std@@QBEIXZ
_TEXT	SEGMENT
?size@?$vector@UForceInfo@@V?$allocator@UForceInfo@@@std@@@std@@QBEIXZ PROC ; std::vector<ForceInfo,std::allocator<ForceInfo> >::size, COMDAT
; _this$ = ecx

; 879  : 		return (this->_Mylast - this->_Myfirst);

  00000	8b 41 04	 mov	 eax, DWORD PTR [ecx+4]
  00003	2b 01		 sub	 eax, DWORD PTR [ecx]
  00005	6a 0c		 push	 12			; 0000000cH
  00007	99		 cdq
  00008	59		 pop	 ecx
  00009	f7 f9		 idiv	 ecx

; 880  : 		}

  0000b	c3		 ret	 0
?size@?$vector@UForceInfo@@V?$allocator@UForceInfo@@@std@@@std@@QBEIXZ ENDP ; std::vector<ForceInfo,std::allocator<ForceInfo> >::size
_TEXT	ENDS
PUBLIC	??_C@_0BD@OLBABOEK@vector?$DMT?$DO?5too?5long?$AA@ ; `string'
PUBLIC	?_Xlen@?$vector@UWeaponInfo@@V?$allocator@UWeaponInfo@@@std@@@std@@IBEXXZ ; std::vector<WeaponInfo,std::allocator<WeaponInfo> >::_Xlen
EXTRN	__imp_?_Xlength_error@std@@YAXPBD@Z:PROC
;	COMDAT ??_C@_0BD@OLBABOEK@vector?$DMT?$DO?5too?5long?$AA@
CONST	SEGMENT
??_C@_0BD@OLBABOEK@vector?$DMT?$DO?5too?5long?$AA@ DB 'vector<T> too long'
	DB	00H						; `string'
; Function compile flags: /Ogsp
CONST	ENDS
;	COMDAT ?_Xlen@?$vector@UWeaponInfo@@V?$allocator@UWeaponInfo@@@std@@@std@@IBEXXZ
_TEXT	SEGMENT
?_Xlen@?$vector@UWeaponInfo@@V?$allocator@UWeaponInfo@@@std@@@std@@IBEXXZ PROC ; std::vector<WeaponInfo,std::allocator<WeaponInfo> >::_Xlen, COMDAT
; _this$ = ecx

; 1427 : 		_Xlength_error("vector<T> too long");

  00000	68 00 00 00 00	 push	 OFFSET ??_C@_0BD@OLBABOEK@vector?$DMT?$DO?5too?5long?$AA@
  00005	ff 15 00 00 00
	00		 call	 DWORD PTR __imp_?_Xlength_error@std@@YAXPBD@Z
$LN4@Xlen:
$LN3@Xlen:
  0000b	cc		 int	 3
?_Xlen@?$vector@UWeaponInfo@@V?$allocator@UWeaponInfo@@@std@@@std@@IBEXXZ ENDP ; std::vector<WeaponInfo,std::allocator<WeaponInfo> >::_Xlen
_TEXT	ENDS
PUBLIC	?_Xlen@?$vector@UForceInfo@@V?$allocator@UForceInfo@@@std@@@std@@IBEXXZ ; std::vector<ForceInfo,std::allocator<ForceInfo> >::_Xlen
; Function compile flags: /Ogsp
;	COMDAT ?_Xlen@?$vector@UForceInfo@@V?$allocator@UForceInfo@@@std@@@std@@IBEXXZ
_TEXT	SEGMENT
?_Xlen@?$vector@UForceInfo@@V?$allocator@UForceInfo@@@std@@@std@@IBEXXZ PROC ; std::vector<ForceInfo,std::allocator<ForceInfo> >::_Xlen, COMDAT
; _this$ = ecx

; 1427 : 		_Xlength_error("vector<T> too long");

  00000	68 00 00 00 00	 push	 OFFSET ??_C@_0BD@OLBABOEK@vector?$DMT?$DO?5too?5long?$AA@
  00005	ff 15 00 00 00
	00		 call	 DWORD PTR __imp_?_Xlength_error@std@@YAXPBD@Z
$LN4@Xlen@2:
$LN3@Xlen@2:
  0000b	cc		 int	 3
?_Xlen@?$vector@UForceInfo@@V?$allocator@UForceInfo@@@std@@@std@@IBEXXZ ENDP ; std::vector<ForceInfo,std::allocator<ForceInfo> >::_Xlen
_TEXT	ENDS
PUBLIC	?max_size@?$allocator@UWeaponInfo@@@std@@QBEIXZ	; std::allocator<WeaponInfo>::max_size
; Function compile flags: /Ogsp
; File c:\program files (x86)\microsoft visual studio 10.0\vc\include\xmemory
;	COMDAT ?max_size@?$allocator@UWeaponInfo@@@std@@QBEIXZ
_TEXT	SEGMENT
?max_size@?$allocator@UWeaponInfo@@@std@@QBEIXZ PROC	; std::allocator<WeaponInfo>::max_size, COMDAT
; _this$ = ecx

; 218  : 		_SIZT _Count = (_SIZT)(-1) / sizeof (_Ty);
; 219  : 		return (0 < _Count ? _Count : 1);

  00000	b8 66 66 66 06	 mov	 eax, 107374182		; 06666666H

; 220  : 		}

  00005	c3		 ret	 0
?max_size@?$allocator@UWeaponInfo@@@std@@QBEIXZ ENDP	; std::allocator<WeaponInfo>::max_size
_TEXT	ENDS
PUBLIC	?max_size@?$allocator@UForceInfo@@@std@@QBEIXZ	; std::allocator<ForceInfo>::max_size
; Function compile flags: /Ogsp
;	COMDAT ?max_size@?$allocator@UForceInfo@@@std@@QBEIXZ
_TEXT	SEGMENT
?max_size@?$allocator@UForceInfo@@@std@@QBEIXZ PROC	; std::allocator<ForceInfo>::max_size, COMDAT
; _this$ = ecx

; 218  : 		_SIZT _Count = (_SIZT)(-1) / sizeof (_Ty);
; 219  : 		return (0 < _Count ? _Count : 1);

  00000	b8 55 55 55 15	 mov	 eax, 357913941		; 15555555H

; 220  : 		}

  00005	c3		 ret	 0
?max_size@?$allocator@UForceInfo@@@std@@QBEIXZ ENDP	; std::allocator<ForceInfo>::max_size
_TEXT	ENDS
PUBLIC	??0?$_Vector_const_iterator@V?$_Vector_val@UWeaponInfo@@V?$allocator@UWeaponInfo@@@std@@@std@@@std@@QAE@PAUWeaponInfo@@PBU_Container_base0@1@@Z ; std::_Vector_const_iterator<std::_Vector_val<WeaponInfo,std::allocator<WeaponInfo> > >::_Vector_const_iterator<std::_Vector_val<WeaponInfo,std::allocator<WeaponInfo> > >
; Function compile flags: /Ogsp
; File c:\program files (x86)\microsoft visual studio 10.0\vc\include\vector
;	COMDAT ??0?$_Vector_const_iterator@V?$_Vector_val@UWeaponInfo@@V?$allocator@UWeaponInfo@@@std@@@std@@@std@@QAE@PAUWeaponInfo@@PBU_Container_base0@1@@Z
_TEXT	SEGMENT
__Parg$ = 8						; size = 4
__Pvector$ = 12						; size = 4
??0?$_Vector_const_iterator@V?$_Vector_val@UWeaponInfo@@V?$allocator@UWeaponInfo@@@std@@@std@@@std@@QAE@PAUWeaponInfo@@PBU_Container_base0@1@@Z PROC ; std::_Vector_const_iterator<std::_Vector_val<WeaponInfo,std::allocator<WeaponInfo> > >::_Vector_const_iterator<std::_Vector_val<WeaponInfo,std::allocator<WeaponInfo> > >, COMDAT
; _this$ = ecx

; 45   : 		{	// construct with pointer _Parg

  00000	55		 push	 ebp
  00001	8b ec		 mov	 ebp, esp
  00003	8b c1		 mov	 eax, ecx
  00005	8b 4d 08	 mov	 ecx, DWORD PTR __Parg$[ebp]
  00008	89 08		 mov	 DWORD PTR [eax], ecx

; 46   : 		this->_Adopt(_Pvector);
; 47   : 		}

  0000a	5d		 pop	 ebp
  0000b	c2 08 00	 ret	 8
??0?$_Vector_const_iterator@V?$_Vector_val@UWeaponInfo@@V?$allocator@UWeaponInfo@@@std@@@std@@@std@@QAE@PAUWeaponInfo@@PBU_Container_base0@1@@Z ENDP ; std::_Vector_const_iterator<std::_Vector_val<WeaponInfo,std::allocator<WeaponInfo> > >::_Vector_const_iterator<std::_Vector_val<WeaponInfo,std::allocator<WeaponInfo> > >
_TEXT	ENDS
PUBLIC	??0?$_Vector_const_iterator@V?$_Vector_val@UForceInfo@@V?$allocator@UForceInfo@@@std@@@std@@@std@@QAE@PAUForceInfo@@PBU_Container_base0@1@@Z ; std::_Vector_const_iterator<std::_Vector_val<ForceInfo,std::allocator<ForceInfo> > >::_Vector_const_iterator<std::_Vector_val<ForceInfo,std::allocator<ForceInfo> > >
; Function compile flags: /Ogsp
;	COMDAT ??0?$_Vector_const_iterator@V?$_Vector_val@UForceInfo@@V?$allocator@UForceInfo@@@std@@@std@@@std@@QAE@PAUForceInfo@@PBU_Container_base0@1@@Z
_TEXT	SEGMENT
__Parg$ = 8						; size = 4
__Pvector$ = 12						; size = 4
??0?$_Vector_const_iterator@V?$_Vector_val@UForceInfo@@V?$allocator@UForceInfo@@@std@@@std@@@std@@QAE@PAUForceInfo@@PBU_Container_base0@1@@Z PROC ; std::_Vector_const_iterator<std::_Vector_val<ForceInfo,std::allocator<ForceInfo> > >::_Vector_const_iterator<std::_Vector_val<ForceInfo,std::allocator<ForceInfo> > >, COMDAT
; _this$ = ecx

; 45   : 		{	// construct with pointer _Parg

  00000	55		 push	 ebp
  00001	8b ec		 mov	 ebp, esp
  00003	8b c1		 mov	 eax, ecx
  00005	8b 4d 08	 mov	 ecx, DWORD PTR __Parg$[ebp]
  00008	89 08		 mov	 DWORD PTR [eax], ecx

; 46   : 		this->_Adopt(_Pvector);
; 47   : 		}

  0000a	5d		 pop	 ebp
  0000b	c2 08 00	 ret	 8
??0?$_Vector_const_iterator@V?$_Vector_val@UForceInfo@@V?$allocator@UForceInfo@@@std@@@std@@@std@@QAE@PAUForceInfo@@PBU_Container_base0@1@@Z ENDP ; std::_Vector_const_iterator<std::_Vector_val<ForceInfo,std::allocator<ForceInfo> > >::_Vector_const_iterator<std::_Vector_val<ForceInfo,std::allocator<ForceInfo> > >
_TEXT	ENDS
PUBLIC	?_Compat@?$_Vector_const_iterator@V?$_Vector_val@UWeaponInfo@@V?$allocator@UWeaponInfo@@@std@@@std@@@std@@QBEXABV12@@Z ; std::_Vector_const_iterator<std::_Vector_val<WeaponInfo,std::allocator<WeaponInfo> > >::_Compat
; Function compile flags: /Ogsp
;	COMDAT ?_Compat@?$_Vector_const_iterator@V?$_Vector_val@UWeaponInfo@@V?$allocator@UWeaponInfo@@@std@@@std@@@std@@QBEXABV12@@Z
_TEXT	SEGMENT
___formal$ = 8						; size = 4
?_Compat@?$_Vector_const_iterator@V?$_Vector_val@UWeaponInfo@@V?$allocator@UWeaponInfo@@@std@@@std@@@std@@QBEXABV12@@Z PROC ; std::_Vector_const_iterator<std::_Vector_val<WeaponInfo,std::allocator<WeaponInfo> > >::_Compat, COMDAT
; _this$ = ecx

; 253  : 		}

  00000	c2 04 00	 ret	 4
?_Compat@?$_Vector_const_iterator@V?$_Vector_val@UWeaponInfo@@V?$allocator@UWeaponInfo@@@std@@@std@@@std@@QBEXABV12@@Z ENDP ; std::_Vector_const_iterator<std::_Vector_val<WeaponInfo,std::allocator<WeaponInfo> > >::_Compat
_TEXT	ENDS
PUBLIC	?_Compat@?$_Vector_const_iterator@V?$_Vector_val@UForceInfo@@V?$allocator@UForceInfo@@@std@@@std@@@std@@QBEXABV12@@Z ; std::_Vector_const_iterator<std::_Vector_val<ForceInfo,std::allocator<ForceInfo> > >::_Compat
; Function compile flags: /Ogsp
;	COMDAT ?_Compat@?$_Vector_const_iterator@V?$_Vector_val@UForceInfo@@V?$allocator@UForceInfo@@@std@@@std@@@std@@QBEXABV12@@Z
_TEXT	SEGMENT
___formal$ = 8						; size = 4
?_Compat@?$_Vector_const_iterator@V?$_Vector_val@UForceInfo@@V?$allocator@UForceInfo@@@std@@@std@@@std@@QBEXABV12@@Z PROC ; std::_Vector_const_iterator<std::_Vector_val<ForceInfo,std::allocator<ForceInfo> > >::_Compat, COMDAT
; _this$ = ecx

; 253  : 		}

  00000	c2 04 00	 ret	 4
?_Compat@?$_Vector_const_iterator@V?$_Vector_val@UForceInfo@@V?$allocator@UForceInfo@@@std@@@std@@@std@@QBEXABV12@@Z ENDP ; std::_Vector_const_iterator<std::_Vector_val<ForceInfo,std::allocator<ForceInfo> > >::_Compat
_TEXT	ENDS
PUBLIC	__TI2?AVbad_alloc@std@@
PUBLIC	??$_Allocate@UWeaponInfo@@@std@@YAPAUWeaponInfo@@IPAU1@@Z ; std::_Allocate<WeaponInfo>
PUBLIC	__CTA2?AVbad_alloc@std@@
PUBLIC	__CT??_R0?AVbad_alloc@std@@@8??0bad_alloc@std@@QAE@ABV01@@Z12
PUBLIC	??0bad_alloc@std@@QAE@ABV01@@Z			; std::bad_alloc::bad_alloc
PUBLIC	__CT??_R0?AVexception@std@@@8??0exception@std@@QAE@ABV01@@Z12
EXTRN	??2@YAPAXI@Z:PROC				; operator new
EXTRN	__CxxThrowException@8:PROC
EXTRN	??0exception@std@@QAE@ABV01@@Z:PROC		; std::exception::exception
;	COMDAT __CT??_R0?AVexception@std@@@8??0exception@std@@QAE@ABV01@@Z12
; File c:\program files (x86)\microsoft visual studio 10.0\vc\include\exception
xdata$x	SEGMENT
__CT??_R0?AVexception@std@@@8??0exception@std@@QAE@ABV01@@Z12 DD 00H
	DD	FLAT:??_R0?AVexception@std@@@8
	DD	00H
	DD	0ffffffffH
	ORG $+4
	DD	0cH
	DD	FLAT:??0exception@std@@QAE@ABV01@@Z
xdata$x	ENDS
;	COMDAT __CT??_R0?AVbad_alloc@std@@@8??0bad_alloc@std@@QAE@ABV01@@Z12
xdata$x	SEGMENT
__CT??_R0?AVbad_alloc@std@@@8??0bad_alloc@std@@QAE@ABV01@@Z12 DD 00H
	DD	FLAT:??_R0?AVbad_alloc@std@@@8
	DD	00H
	DD	0ffffffffH
	ORG $+4
	DD	0cH
	DD	FLAT:??0bad_alloc@std@@QAE@ABV01@@Z
xdata$x	ENDS
;	COMDAT __CTA2?AVbad_alloc@std@@
xdata$x	SEGMENT
__CTA2?AVbad_alloc@std@@ DD 02H
	DD	FLAT:__CT??_R0?AVbad_alloc@std@@@8??0bad_alloc@std@@QAE@ABV01@@Z12
	DD	FLAT:__CT??_R0?AVexception@std@@@8??0exception@std@@QAE@ABV01@@Z12
xdata$x	ENDS
;	COMDAT __TI2?AVbad_alloc@std@@
xdata$x	SEGMENT
__TI2?AVbad_alloc@std@@ DD 00H
	DD	FLAT:??1bad_alloc@std@@UAE@XZ
	DD	00H
	DD	FLAT:__CTA2?AVbad_alloc@std@@
; Function compile flags: /Ogsp
; File c:\program files (x86)\microsoft visual studio 10.0\vc\include\xmemory
xdata$x	ENDS
;	COMDAT ??$_Allocate@UWeaponInfo@@@std@@YAPAUWeaponInfo@@IPAU1@@Z
_TEXT	SEGMENT
$T552539 = -12						; size = 12
$T552544 = 8						; size = 4
__Count$ = 8						; size = 4
___formal$ = 12						; size = 4
??$_Allocate@UWeaponInfo@@@std@@YAPAUWeaponInfo@@IPAU1@@Z PROC ; std::_Allocate<WeaponInfo>, COMDAT

; 30   : 	{	// allocate storage for _Count elements of type _Ty

  00000	55		 push	 ebp
  00001	8b ec		 mov	 ebp, esp

; 31   : 	void *_Ptr = 0;
; 32   : 
; 33   : 	if (_Count <= 0)

  00003	8b 4d 08	 mov	 ecx, DWORD PTR __Count$[ebp]
  00006	83 ec 0c	 sub	 esp, 12			; 0000000cH
  00009	33 c0		 xor	 eax, eax
  0000b	85 c9		 test	 ecx, ecx

; 34   : 		_Count = 0;
; 35   : 	else if (((_SIZT)(-1) / sizeof (_Ty) < _Count)

  0000d	74 3c		 je	 SHORT $LN5@Allocate

; 36   : 		|| (_Ptr = ::operator new(_Count * sizeof (_Ty))) == 0)

  0000f	81 f9 66 66 66
	06		 cmp	 ecx, 107374182		; 06666666H
  00015	77 0e		 ja	 SHORT $LN1@Allocate
  00017	6b c9 28	 imul	 ecx, 40			; 00000028H
  0001a	51		 push	 ecx
  0001b	e8 00 00 00 00	 call	 ??2@YAPAXI@Z		; operator new
  00020	59		 pop	 ecx
  00021	85 c0		 test	 eax, eax

; 38   : 
; 39   : 	return ((_Ty _FARQ *)_Ptr);

  00023	75 26		 jne	 SHORT $LN5@Allocate
$LN1@Allocate:

; 37   : 		_THROW_NCEE(bad_alloc, 0);

  00025	83 65 08 00	 and	 DWORD PTR $T552544[ebp], 0
  00029	8d 45 08	 lea	 eax, DWORD PTR $T552544[ebp]
  0002c	50		 push	 eax
  0002d	8d 4d f4	 lea	 ecx, DWORD PTR $T552539[ebp]
  00030	ff 15 00 00 00
	00		 call	 DWORD PTR __imp_??0exception@std@@QAE@ABQBD@Z
  00036	68 00 00 00 00	 push	 OFFSET __TI2?AVbad_alloc@std@@
  0003b	8d 45 f4	 lea	 eax, DWORD PTR $T552539[ebp]
  0003e	50		 push	 eax
  0003f	c7 45 f4 00 00
	00 00		 mov	 DWORD PTR $T552539[ebp], OFFSET ??_7bad_alloc@std@@6B@
  00046	e8 00 00 00 00	 call	 __CxxThrowException@8
$LN10@Allocate:
$LN5@Allocate:

; 40   : 	}

  0004b	c9		 leave
  0004c	c3		 ret	 0
$LN9@Allocate:
??$_Allocate@UWeaponInfo@@@std@@YAPAUWeaponInfo@@IPAU1@@Z ENDP ; std::_Allocate<WeaponInfo>
_TEXT	ENDS
EXTRN	__imp_??0exception@std@@QAE@ABV01@@Z:PROC
; Function compile flags: /Ogsp
;	COMDAT ??0bad_alloc@std@@QAE@ABV01@@Z
_TEXT	SEGMENT
___that$ = 8						; size = 4
??0bad_alloc@std@@QAE@ABV01@@Z PROC			; std::bad_alloc::bad_alloc, COMDAT
; _this$ = ecx
  00000	55		 push	 ebp
  00001	8b ec		 mov	 ebp, esp
  00003	56		 push	 esi
  00004	ff 75 08	 push	 DWORD PTR ___that$[ebp]
  00007	8b f1		 mov	 esi, ecx
  00009	ff 15 00 00 00
	00		 call	 DWORD PTR __imp_??0exception@std@@QAE@ABV01@@Z
  0000f	c7 06 00 00 00
	00		 mov	 DWORD PTR [esi], OFFSET ??_7bad_alloc@std@@6B@
  00015	8b c6		 mov	 eax, esi
  00017	5e		 pop	 esi
  00018	5d		 pop	 ebp
  00019	c2 04 00	 ret	 4
??0bad_alloc@std@@QAE@ABV01@@Z ENDP			; std::bad_alloc::bad_alloc
_TEXT	ENDS
PUBLIC	??$_Allocate@UForceInfo@@@std@@YAPAUForceInfo@@IPAU1@@Z ; std::_Allocate<ForceInfo>
; Function compile flags: /Ogsp
;	COMDAT ??$_Allocate@UForceInfo@@@std@@YAPAUForceInfo@@IPAU1@@Z
_TEXT	SEGMENT
$T552552 = -12						; size = 12
$T552556 = 8						; size = 4
__Count$ = 8						; size = 4
___formal$ = 12						; size = 4
??$_Allocate@UForceInfo@@@std@@YAPAUForceInfo@@IPAU1@@Z PROC ; std::_Allocate<ForceInfo>, COMDAT

; 30   : 	{	// allocate storage for _Count elements of type _Ty

  00000	55		 push	 ebp
  00001	8b ec		 mov	 ebp, esp

; 31   : 	void *_Ptr = 0;
; 32   : 
; 33   : 	if (_Count <= 0)

  00003	8b 4d 08	 mov	 ecx, DWORD PTR __Count$[ebp]
  00006	83 ec 0c	 sub	 esp, 12			; 0000000cH
  00009	33 c0		 xor	 eax, eax
  0000b	85 c9		 test	 ecx, ecx

; 34   : 		_Count = 0;
; 35   : 	else if (((_SIZT)(-1) / sizeof (_Ty) < _Count)

  0000d	74 3c		 je	 SHORT $LN5@Allocate@2

; 36   : 		|| (_Ptr = ::operator new(_Count * sizeof (_Ty))) == 0)

  0000f	81 f9 55 55 55
	15		 cmp	 ecx, 357913941		; 15555555H
  00015	77 0e		 ja	 SHORT $LN1@Allocate@2
  00017	6b c9 0c	 imul	 ecx, 12			; 0000000cH
  0001a	51		 push	 ecx
  0001b	e8 00 00 00 00	 call	 ??2@YAPAXI@Z		; operator new
  00020	59		 pop	 ecx
  00021	85 c0		 test	 eax, eax

; 38   : 
; 39   : 	return ((_Ty _FARQ *)_Ptr);

  00023	75 26		 jne	 SHORT $LN5@Allocate@2
$LN1@Allocate@2:

; 37   : 		_THROW_NCEE(bad_alloc, 0);

  00025	83 65 08 00	 and	 DWORD PTR $T552556[ebp], 0
  00029	8d 45 08	 lea	 eax, DWORD PTR $T552556[ebp]
  0002c	50		 push	 eax
  0002d	8d 4d f4	 lea	 ecx, DWORD PTR $T552552[ebp]
  00030	ff 15 00 00 00
	00		 call	 DWORD PTR __imp_??0exception@std@@QAE@ABQBD@Z
  00036	68 00 00 00 00	 push	 OFFSET __TI2?AVbad_alloc@std@@
  0003b	8d 45 f4	 lea	 eax, DWORD PTR $T552552[ebp]
  0003e	50		 push	 eax
  0003f	c7 45 f4 00 00
	00 00		 mov	 DWORD PTR $T552552[ebp], OFFSET ??_7bad_alloc@std@@6B@
  00046	e8 00 00 00 00	 call	 __CxxThrowException@8
$LN10@Allocate@2:
$LN5@Allocate@2:

; 40   : 	}

  0004b	c9		 leave
  0004c	c3		 ret	 0
$LN9@Allocate@2:
??$_Allocate@UForceInfo@@@std@@YAPAUForceInfo@@IPAU1@@Z ENDP ; std::_Allocate<ForceInfo>
_TEXT	ENDS
PUBLIC	??$_Destroy@UForceInfo@@@std@@YAXPAUForceInfo@@@Z ; std::_Destroy<ForceInfo>
; Function compile flags: /Ogsp
;	COMDAT ??$_Destroy@UForceInfo@@@std@@YAXPAUForceInfo@@@Z
_TEXT	SEGMENT
__Ptr$ = 8						; size = 4
??$_Destroy@UForceInfo@@@std@@YAXPAUForceInfo@@@Z PROC	; std::_Destroy<ForceInfo>, COMDAT

; 63   : 	_Ptr->~_Ty();
; 64   : 	}

  00000	c3		 ret	 0
??$_Destroy@UForceInfo@@@std@@YAXPAUForceInfo@@@Z ENDP	; std::_Destroy<ForceInfo>
_TEXT	ENDS
PUBLIC	??_GWeaponInfo@@QAEPAXI@Z			; WeaponInfo::`scalar deleting destructor'
; Function compile flags: /Ogsp
;	COMDAT ??_GWeaponInfo@@QAEPAXI@Z
_TEXT	SEGMENT
___flags$ = 8						; size = 4
??_GWeaponInfo@@QAEPAXI@Z PROC				; WeaponInfo::`scalar deleting destructor', COMDAT
; _this$ = ecx
  00000	55		 push	 ebp
  00001	8b ec		 mov	 ebp, esp
  00003	56		 push	 esi
  00004	8b f1		 mov	 esi, ecx
  00006	8d 4e 08	 lea	 ecx, DWORD PTR [esi+8]
  00009	ff 15 00 00 00
	00		 call	 DWORD PTR __imp_??1ioHashString@@QAE@XZ
  0000f	f6 45 08 01	 test	 BYTE PTR ___flags$[ebp], 1
  00013	74 07		 je	 SHORT $LN1@scalar@4
  00015	56		 push	 esi
  00016	e8 00 00 00 00	 call	 ??3@YAXPAX@Z		; operator delete
  0001b	59		 pop	 ecx
$LN1@scalar@4:
  0001c	8b c6		 mov	 eax, esi
  0001e	5e		 pop	 esi
  0001f	5d		 pop	 ebp
  00020	c2 04 00	 ret	 4
??_GWeaponInfo@@QAEPAXI@Z ENDP				; WeaponInfo::`scalar deleting destructor'
_TEXT	ENDS
PUBLIC	??0WeaponInfo@@QAE@ABU0@@Z			; WeaponInfo::WeaponInfo
EXTRN	__imp_??0ioHashString@@QAE@ABV0@@Z:PROC
; Function compile flags: /Ogsp
;	COMDAT ??0WeaponInfo@@QAE@ABU0@@Z
_TEXT	SEGMENT
___that$ = 8						; size = 4
??0WeaponInfo@@QAE@ABU0@@Z PROC				; WeaponInfo::WeaponInfo, COMDAT
; _this$ = ecx
  00000	55		 push	 ebp
  00001	8b ec		 mov	 ebp, esp
  00003	56		 push	 esi
  00004	57		 push	 edi
  00005	8b 7d 08	 mov	 edi, DWORD PTR ___that$[ebp]
  00008	8b 07		 mov	 eax, DWORD PTR [edi]
  0000a	8b f1		 mov	 esi, ecx
  0000c	89 06		 mov	 DWORD PTR [esi], eax
  0000e	8b 47 04	 mov	 eax, DWORD PTR [edi+4]
  00011	89 46 04	 mov	 DWORD PTR [esi+4], eax
  00014	8d 47 08	 lea	 eax, DWORD PTR [edi+8]
  00017	50		 push	 eax
  00018	8d 4e 08	 lea	 ecx, DWORD PTR [esi+8]
  0001b	ff 15 00 00 00
	00		 call	 DWORD PTR __imp_??0ioHashString@@QAE@ABV0@@Z
  00021	8b 47 18	 mov	 eax, DWORD PTR [edi+24]
  00024	89 46 18	 mov	 DWORD PTR [esi+24], eax
  00027	8b 47 1c	 mov	 eax, DWORD PTR [edi+28]
  0002a	89 46 1c	 mov	 DWORD PTR [esi+28], eax
  0002d	8a 47 20	 mov	 al, BYTE PTR [edi+32]
  00030	88 46 20	 mov	 BYTE PTR [esi+32], al
  00033	8b 47 24	 mov	 eax, DWORD PTR [edi+36]
  00036	89 46 24	 mov	 DWORD PTR [esi+36], eax
  00039	5f		 pop	 edi
  0003a	8b c6		 mov	 eax, esi
  0003c	5e		 pop	 esi
  0003d	5d		 pop	 ebp
  0003e	c2 04 00	 ret	 4
??0WeaponInfo@@QAE@ABU0@@Z ENDP				; WeaponInfo::WeaponInfo
_TEXT	ENDS
PUBLIC	__real@4040b33340000000
PUBLIC	__real@4205999a
PUBLIC	__real@4f800000
PUBLIC	__$ArrayPad$
PUBLIC	?ProcessMove@ioCircleMoveAttackSkill3@@IAEXPAVioBaseChar@@PAVioPlayStage@@@Z ; ioCircleMoveAttackSkill3::ProcessMove
EXTRN	?CheckAxisLimit@ioBaseChar@@QAE_NPAUD3DXVECTOR3@@@Z:PROC ; ioBaseChar::CheckAxisLimit
EXTRN	?ReCalculateMoveVectorByTerrain@ioPlayStage@@QAE_NPAVioBaseChar@@PAUD3DXVECTOR3@@AA_N@Z:PROC ; ioPlayStage::ReCalculateMoveVectorByTerrain
EXTRN	__imp_?VEC3_ZERO@ioMath@@2UD3DXVECTOR3@@A:BYTE
EXTRN	__imp_?GetSecPerFrame@ioFrameTimer@@QBEMXZ:PROC
EXTRN	___security_cookie:DWORD
EXTRN	@__security_check_cookie@4:PROC
;	COMDAT __real@4040b33340000000
; File c:\program files (x86)\microsoft directx sdk (june 2010)\include\d3dx9math.inl
CONST	SEGMENT
__real@4040b33340000000 DQ 04040b33340000000r	; 33.4
CONST	ENDS
;	COMDAT __real@4205999a
CONST	SEGMENT
__real@4205999a DD 04205999ar			; 33.4
CONST	ENDS
;	COMDAT __real@4f800000
CONST	SEGMENT
__real@4f800000 DD 04f800000r			; 4.29497e+009
; Function compile flags: /Ogsp
; File d:\lost saga for developer\youtube\tutorial\source\src\lsclient\iocirclemoveattackskill3.cpp
CONST	ENDS
;	COMDAT ?ProcessMove@ioCircleMoveAttackSkill3@@IAEXPAVioBaseChar@@PAVioPlayStage@@@Z
_TEXT	SEGMENT
tv87 = -40						; size = 4
_fTimePerSec$ = -40					; size = 4
_bCol$548445 = -33					; size = 1
tv528 = -32						; size = 4
tv513 = -32						; size = 4
tv509 = -32						; size = 4
tv505 = -32						; size = 4
_fDivideTimePerSec$548436 = -32				; size = 4
_fCurTimeGap$ = -32					; size = 4
_vPos$ = -28						; size = 12
_vTotalMove$ = -16					; size = 12
__$ArrayPad$ = -4					; size = 4
_pChar$ = 8						; size = 4
_pStage$ = 12						; size = 4
?ProcessMove@ioCircleMoveAttackSkill3@@IAEXPAVioBaseChar@@PAVioPlayStage@@@Z PROC ; ioCircleMoveAttackSkill3::ProcessMove, COMDAT
; _this$ = ecx

; 559  : {

  00000	55		 push	 ebp
  00001	8b ec		 mov	 ebp, esp
  00003	83 ec 28	 sub	 esp, 40			; 00000028H
  00006	a1 00 00 00 00	 mov	 eax, DWORD PTR ___security_cookie
  0000b	33 c5		 xor	 eax, ebp
  0000d	89 45 fc	 mov	 DWORD PTR __$ArrayPad$[ebp], eax
  00010	53		 push	 ebx
  00011	8b 5d 08	 mov	 ebx, DWORD PTR _pChar$[ebp]
  00014	56		 push	 esi
  00015	57		 push	 edi
  00016	8b 7d 0c	 mov	 edi, DWORD PTR _pStage$[ebp]
  00019	8b f1		 mov	 esi, ecx

; 560  : 	if( !pChar ) return;

  0001b	85 db		 test	 ebx, ebx
  0001d	0f 84 61 02 00
	00		 je	 $LN1@ProcessMov

; 561  : 	if( !pStage ) return;

  00023	85 ff		 test	 edi, edi
  00025	0f 84 59 02 00
	00		 je	 $LN1@ProcessMov

; 562  : 	if( m_fCurCharMoveSpeed == 0.0f ) return;

  0002b	f3 0f 10 86 78
	10 00 00	 movss	 xmm0, DWORD PTR [esi+4216]
  00033	0f 2e 05 00 00
	00 00		 ucomiss xmm0, DWORD PTR __real@00000000
  0003a	9f		 lahf
  0003b	f6 c4 44	 test	 ah, 68			; 00000044H
  0003e	0f 8b 40 02 00
	00		 jnp	 $LN1@ProcessMov

; 563  : 
; 564  : 	float fTimePerSec = g_FrameTimer.GetSecPerFrame();

  00044	ff 15 00 00 00
	00		 call	 DWORD PTR __imp_?GetSingleton@ioFrameTimer@@SAAAV1@XZ
  0004a	8b c8		 mov	 ecx, eax
  0004c	ff 15 00 00 00
	00		 call	 DWORD PTR __imp_?GetSecPerFrame@ioFrameTimer@@QBEMXZ
  00052	d9 5d d8	 fstp	 DWORD PTR _fTimePerSec$[ebp]

; 565  : 
; 566  : 	bool bCurMove = false;
; 567  : 	D3DXVECTOR3 vTotalMove( 0.0f, 0.0f, 0.0f );

  00055	0f 57 ed	 xorps	 xmm5, xmm5
  00058	32 d2		 xor	 dl, dl
  0005a	f3 0f 11 6d f0	 movss	 DWORD PTR _vTotalMove$[ebp], xmm5
  0005f	f3 0f 11 6d f4	 movss	 DWORD PTR _vTotalMove$[ebp+4], xmm5
  00064	f3 0f 11 6d f8	 movss	 DWORD PTR _vTotalMove$[ebp+8], xmm5

; 568  : 
; 569  : 	float fCurTimeGap = fTimePerSec * FLOAT1000;

  00069	b8 e8 03 00 00	 mov	 eax, 1000		; 000003e8H
  0006e	89 45 e0	 mov	 DWORD PTR tv528[ebp], eax
  00071	db 45 e0	 fild	 DWORD PTR tv528[ebp]
  00074	85 c0		 test	 eax, eax
  00076	79 06		 jns	 SHORT $LN37@ProcessMov
  00078	d8 05 00 00 00
	00		 fadd	 DWORD PTR __real@4f800000
$LN37@ProcessMov:
  0007e	d8 4d d8	 fmul	 DWORD PTR _fTimePerSec$[ebp]
  00081	d9 5d e0	 fstp	 DWORD PTR _fCurTimeGap$[ebp]

; 570  : 	while( fCurTimeGap > 0.0f )

  00084	d9 ee		 fldz
  00086	d9 45 e0	 fld	 DWORD PTR _fCurTimeGap$[ebp]
  00089	df f1		 fcomip	 ST(1)
  0008b	dd d8		 fstp	 ST(0)
  0008d	0f 86 c8 01 00
	00		 jbe	 $LN2@ProcessMov

; 573  : 		fCurTimeGap -= MIN_FRAME_TIME;
; 574  : 
; 575  : 		D3DXVECTOR3 vMoveAmt = m_vCharMoveDir * m_fCurCharMoveSpeed * fDivideTimePerSec;

  00093	f3 0f 10 35 00
	00 00 00	 movss	 xmm6, DWORD PTR __real@4205999a
  0009b	f3 0f 10 65 e0	 movss	 xmm4, DWORD PTR _fCurTimeGap$[ebp]
$LL6@ProcessMov:

; 571  : 	{
; 572  : 		float fDivideTimePerSec = min( fCurTimeGap, MIN_FRAME_TIME ) * FLOAT0001;

  000a0	0f 2f f4	 comiss	 xmm6, xmm4
  000a3	76 07		 jbe	 SHORT $LN12@ProcessMov
  000a5	f3 0f 11 65 d8	 movss	 DWORD PTR tv87[ebp], xmm4
  000aa	eb 05		 jmp	 SHORT $LN13@ProcessMov
$LN12@ProcessMov:
  000ac	f3 0f 11 75 d8	 movss	 DWORD PTR tv87[ebp], xmm6
$LN13@ProcessMov:
  000b1	b8 01 00 00 00	 mov	 eax, 1
  000b6	8b c8		 mov	 ecx, eax
  000b8	b8 e8 03 00 00	 mov	 eax, 1000		; 000003e8H
  000bd	89 4d e0	 mov	 DWORD PTR tv513[ebp], ecx
  000c0	db 45 e0	 fild	 DWORD PTR tv513[ebp]
  000c3	85 c9		 test	 ecx, ecx
  000c5	79 06		 jns	 SHORT $LN38@ProcessMov
  000c7	d8 05 00 00 00
	00		 fadd	 DWORD PTR __real@4f800000
$LN38@ProcessMov:
  000cd	89 45 e0	 mov	 DWORD PTR tv509[ebp], eax
  000d0	db 45 e0	 fild	 DWORD PTR tv509[ebp]
  000d3	85 c0		 test	 eax, eax
  000d5	79 06		 jns	 SHORT $LN39@ProcessMov
  000d7	d8 05 00 00 00
	00		 fadd	 DWORD PTR __real@4f800000
$LN39@ProcessMov:
  000dd	de f9		 fdivp	 ST(1), ST(0)

; 573  : 		fCurTimeGap -= MIN_FRAME_TIME;
; 574  : 
; 575  : 		D3DXVECTOR3 vMoveAmt = m_vCharMoveDir * m_fCurCharMoveSpeed * fDivideTimePerSec;

  000df	f3 0f 10 8e 7c
	10 00 00	 movss	 xmm1, DWORD PTR [esi+4220]
  000e7	0f 5a c4	 cvtps2pd xmm0, xmm4
  000ea	f2 0f 5c 05 00
	00 00 00	 subsd	 xmm0, QWORD PTR __real@4040b33340000000
  000f2	0f 5a c9	 cvtps2pd xmm1, xmm1
  000f5	0f 57 e4	 xorps	 xmm4, xmm4
  000f8	66 0f 5a e0	 cvtpd2ps xmm4, xmm0
  000fc	f3 0f 10 86 78
	10 00 00	 movss	 xmm0, DWORD PTR [esi+4216]
  00104	0f 5a d0	 cvtps2pd xmm2, xmm0
  00107	f2 0f 59 ca	 mulsd	 xmm1, xmm2
  0010b	f3 0f 10 96 80
	10 00 00	 movss	 xmm2, DWORD PTR [esi+4224]
  00113	0f 5a d8	 cvtps2pd xmm3, xmm0
  00116	0f 5a d2	 cvtps2pd xmm2, xmm2
  00119	f2 0f 59 d3	 mulsd	 xmm2, xmm3
  0011d	f3 0f 10 9e 84
	10 00 00	 movss	 xmm3, DWORD PTR [esi+4228]

; 576  : 		if( vMoveAmt != ioMath::VEC3_ZERO )

  00125	8b 0d 00 00 00
	00		 mov	 ecx, DWORD PTR __imp_?VEC3_ZERO@ioMath@@2UD3DXVECTOR3@@A
  0012b	0f 5a db	 cvtps2pd xmm3, xmm3
  0012e	f3 0f 10 39	 movss	 xmm7, DWORD PTR [ecx]
  00132	0f 5a c0	 cvtps2pd xmm0, xmm0
  00135	f2 0f 59 c3	 mulsd	 xmm0, xmm3
  00139	66 0f 5a c9	 cvtpd2ps xmm1, xmm1
  0013d	66 0f 5a d2	 cvtpd2ps xmm2, xmm2
  00141	66 0f 5a d8	 cvtpd2ps xmm3, xmm0
  00145	0f 57 c0	 xorps	 xmm0, xmm0
  00148	f3 0f 5a c1	 cvtss2sd xmm0, xmm1
  0014c	0f 5a ff	 cvtps2pd xmm7, xmm7
  0014f	d9 5d e0	 fstp	 DWORD PTR tv505[ebp]
  00152	d9 45 e0	 fld	 DWORD PTR tv505[ebp]
  00155	d8 4d d8	 fmul	 DWORD PTR tv87[ebp]
  00158	d9 5d e0	 fstp	 DWORD PTR _fDivideTimePerSec$548436[ebp]
  0015b	f3 0f 10 4d e0	 movss	 xmm1, DWORD PTR _fDivideTimePerSec$548436[ebp]
  00160	0f 5a c9	 cvtps2pd xmm1, xmm1
  00163	f2 0f 59 c1	 mulsd	 xmm0, xmm1
  00167	0f 57 c9	 xorps	 xmm1, xmm1
  0016a	f3 0f 5a ca	 cvtss2sd xmm1, xmm2
  0016e	f3 0f 10 55 e0	 movss	 xmm2, DWORD PTR _fDivideTimePerSec$548436[ebp]
  00173	0f 5a d2	 cvtps2pd xmm2, xmm2
  00176	f2 0f 59 ca	 mulsd	 xmm1, xmm2
  0017a	66 0f 5a c0	 cvtpd2ps xmm0, xmm0
  0017e	66 0f 5a c9	 cvtpd2ps xmm1, xmm1
  00182	0f 5a d3	 cvtps2pd xmm2, xmm3
  00185	f3 0f 10 5d e0	 movss	 xmm3, DWORD PTR _fDivideTimePerSec$548436[ebp]
  0018a	0f 5a db	 cvtps2pd xmm3, xmm3
  0018d	f2 0f 59 d3	 mulsd	 xmm2, xmm3
  00191	0f 57 db	 xorps	 xmm3, xmm3
  00194	f3 0f 5a d8	 cvtss2sd xmm3, xmm0
  00198	66 0f 2e df	 ucomisd xmm3, xmm7
  0019c	9f		 lahf
  0019d	66 0f 5a d2	 cvtpd2ps xmm2, xmm2
  001a1	f6 c4 44	 test	 ah, 68			; 00000044H
  001a4	7a 32		 jp	 SHORT $LN32@ProcessMov
  001a6	f3 0f 10 79 04	 movss	 xmm7, DWORD PTR [ecx+4]
  001ab	0f 57 db	 xorps	 xmm3, xmm3
  001ae	f3 0f 5a d9	 cvtss2sd xmm3, xmm1
  001b2	0f 5a ff	 cvtps2pd xmm7, xmm7
  001b5	66 0f 2e df	 ucomisd xmm3, xmm7
  001b9	9f		 lahf
  001ba	f6 c4 44	 test	 ah, 68			; 00000044H
  001bd	7a 19		 jp	 SHORT $LN32@ProcessMov
  001bf	f3 0f 10 79 08	 movss	 xmm7, DWORD PTR [ecx+8]
  001c4	0f 57 db	 xorps	 xmm3, xmm3
  001c7	f3 0f 5a da	 cvtss2sd xmm3, xmm2
  001cb	0f 5a ff	 cvtps2pd xmm7, xmm7
  001ce	66 0f 2e df	 ucomisd xmm3, xmm7
  001d2	9f		 lahf
  001d3	f6 c4 44	 test	 ah, 68			; 00000044H
  001d6	7b 53		 jnp	 SHORT $LN4@ProcessMov
$LN32@ProcessMov:

; 577  : 		{
; 578  : 			vTotalMove += vMoveAmt;

  001d8	f3 0f 10 5d f0	 movss	 xmm3, DWORD PTR _vTotalMove$[ebp]
  001dd	f3 0f 5a c0	 cvtss2sd xmm0, xmm0
  001e1	0f 5a db	 cvtps2pd xmm3, xmm3
  001e4	f2 0f 58 c3	 addsd	 xmm0, xmm3
  001e8	66 0f 5a c0	 cvtpd2ps xmm0, xmm0
  001ec	f3 0f 11 45 f0	 movss	 DWORD PTR _vTotalMove$[ebp], xmm0
  001f1	0f 57 c0	 xorps	 xmm0, xmm0
  001f4	f3 0f 5a c1	 cvtss2sd xmm0, xmm1
  001f8	f3 0f 10 4d f4	 movss	 xmm1, DWORD PTR _vTotalMove$[ebp+4]
  001fd	0f 5a c9	 cvtps2pd xmm1, xmm1
  00200	f2 0f 58 c1	 addsd	 xmm0, xmm1
  00204	f3 0f 10 4d f8	 movss	 xmm1, DWORD PTR _vTotalMove$[ebp+8]
  00209	66 0f 5a c0	 cvtpd2ps xmm0, xmm0
  0020d	f3 0f 11 45 f4	 movss	 DWORD PTR _vTotalMove$[ebp+4], xmm0
  00212	0f 57 c0	 xorps	 xmm0, xmm0
  00215	f3 0f 5a c2	 cvtss2sd xmm0, xmm2
  00219	0f 5a c9	 cvtps2pd xmm1, xmm1
  0021c	f2 0f 58 c1	 addsd	 xmm0, xmm1
  00220	66 0f 5a c0	 cvtpd2ps xmm0, xmm0
  00224	f3 0f 11 45 f8	 movss	 DWORD PTR _vTotalMove$[ebp+8], xmm0

; 579  : 			bCurMove = true;

  00229	b2 01		 mov	 dl, 1
$LN4@ProcessMov:

; 570  : 	while( fCurTimeGap > 0.0f )

  0022b	0f 2f e5	 comiss	 xmm4, xmm5
  0022e	0f 87 6c fe ff
	ff		 ja	 $LL6@ProcessMov

; 580  : 		}
; 581  : 	}
; 582  : 
; 583  : 	if( bCurMove )

  00234	84 d2		 test	 dl, dl
  00236	74 23		 je	 SHORT $LN2@ProcessMov

; 584  : 	{
; 585  : 		bool bCol = false;
; 586  : 		if( pStage->ReCalculateMoveVectorByTerrain( pChar, &vTotalMove, bCol ) )

  00238	8d 45 df	 lea	 eax, DWORD PTR _bCol$548445[ebp]
  0023b	50		 push	 eax
  0023c	8d 45 f0	 lea	 eax, DWORD PTR _vTotalMove$[ebp]
  0023f	50		 push	 eax
  00240	53		 push	 ebx
  00241	8b cf		 mov	 ecx, edi
  00243	c6 45 df 00	 mov	 BYTE PTR _bCol$548445[ebp], 0
  00247	e8 00 00 00 00	 call	 ?ReCalculateMoveVectorByTerrain@ioPlayStage@@QAE_NPAVioBaseChar@@PAUD3DXVECTOR3@@AA_N@Z ; ioPlayStage::ReCalculateMoveVectorByTerrain
  0024c	84 c0		 test	 al, al
  0024e	74 0b		 je	 SHORT $LN2@ProcessMov

; 587  : 		{
; 588  : 			pChar->Translate( vTotalMove );

  00250	8b 03		 mov	 eax, DWORD PTR [ebx]
  00252	8d 4d f0	 lea	 ecx, DWORD PTR _vTotalMove$[ebp]
  00255	51		 push	 ecx
  00256	8b cb		 mov	 ecx, ebx
  00258	ff 50 50	 call	 DWORD PTR [eax+80]
$LN2@ProcessMov:

; 589  : 		}
; 590  : 	}
; 591  : 
; 592  : 	D3DXVECTOR3 vPos = pChar->GetWorldPosition();

  0025b	8b 03		 mov	 eax, DWORD PTR [ebx]
  0025d	8b cb		 mov	 ecx, ebx
  0025f	ff 50 70	 call	 DWORD PTR [eax+112]
  00262	8b f0		 mov	 esi, eax
  00264	8d 7d e4	 lea	 edi, DWORD PTR _vPos$[ebp]
  00267	a5		 movsd
  00268	a5		 movsd

; 593  : 	if( pChar->CheckAxisLimit( &vPos ) )

  00269	8d 45 e4	 lea	 eax, DWORD PTR _vPos$[ebp]
  0026c	50		 push	 eax
  0026d	8b cb		 mov	 ecx, ebx
  0026f	a5		 movsd
  00270	e8 00 00 00 00	 call	 ?CheckAxisLimit@ioBaseChar@@QAE_NPAUD3DXVECTOR3@@@Z ; ioBaseChar::CheckAxisLimit
  00275	84 c0		 test	 al, al
  00277	74 0b		 je	 SHORT $LN1@ProcessMov

; 594  : 		pChar->SetWorldPosition( vPos );

  00279	8b 03		 mov	 eax, DWORD PTR [ebx]
  0027b	8d 4d e4	 lea	 ecx, DWORD PTR _vPos$[ebp]
  0027e	51		 push	 ecx
  0027f	8b cb		 mov	 ecx, ebx
  00281	ff 50 44	 call	 DWORD PTR [eax+68]
$LN1@ProcessMov:

; 595  : }

  00284	8b 4d fc	 mov	 ecx, DWORD PTR __$ArrayPad$[ebp]
  00287	5f		 pop	 edi
  00288	5e		 pop	 esi
  00289	33 cd		 xor	 ecx, ebp
  0028b	5b		 pop	 ebx
  0028c	e8 00 00 00 00	 call	 @__security_check_cookie@4
  00291	c9		 leave
  00292	c2 08 00	 ret	 8
?ProcessMove@ioCircleMoveAttackSkill3@@IAEXPAVioBaseChar@@PAVioPlayStage@@@Z ENDP ; ioCircleMoveAttackSkill3::ProcessMove
_TEXT	ENDS
PUBLIC	__$ArrayPad$
PUBLIC	?ApplyAttributeToWeapon@ioCircleMoveAttackSkill3@@UAEXPAVioWeapon@@PAVioPlayStage@@@Z ; ioCircleMoveAttackSkill3::ApplyAttributeToWeapon
EXTRN	?SetZoneValue@ioZoneEffectWeapon@@QAEX_N0@Z:PROC ; ioZoneEffectWeapon::SetZoneValue
EXTRN	?SetCollisionDir@ioZoneEffectWeapon@@QAEXAAUD3DXVECTOR3@@@Z:PROC ; ioZoneEffectWeapon::SetCollisionDir
EXTRN	__imp_??D@YA?AUD3DXVECTOR3@@ABUD3DXQUATERNION@@ABU0@@Z:PROC
EXTRN	?GetOwner@ioWeapon@@QBEPAVioBaseChar@@XZ:PROC	; ioWeapon::GetOwner
EXTRN	?ApplyAttributeToWeapon@ioSkill@@UAEXPAVioWeapon@@PAVioPlayStage@@@Z:PROC ; ioSkill::ApplyAttributeToWeapon
; Function compile flags: /Ogsp
;	COMDAT ?ApplyAttributeToWeapon@ioCircleMoveAttackSkill3@@UAEXPAVioWeapon@@PAVioPlayStage@@@Z
_TEXT	SEGMENT
tv168 = -32						; size = 4
_vDir$548458 = -28					; size = 12
$T548460 = -16						; size = 12
__$ArrayPad$ = -4					; size = 4
_pWeapon$ = 8						; size = 4
_pStage$ = 12						; size = 4
?ApplyAttributeToWeapon@ioCircleMoveAttackSkill3@@UAEXPAVioWeapon@@PAVioPlayStage@@@Z PROC ; ioCircleMoveAttackSkill3::ApplyAttributeToWeapon, COMDAT
; _this$ = ecx

; 598  : {

  00000	55		 push	 ebp
  00001	8b ec		 mov	 ebp, esp
  00003	83 ec 20	 sub	 esp, 32			; 00000020H
  00006	a1 00 00 00 00	 mov	 eax, DWORD PTR ___security_cookie
  0000b	33 c5		 xor	 eax, ebp
  0000d	89 45 fc	 mov	 DWORD PTR __$ArrayPad$[ebp], eax
  00010	8b 45 0c	 mov	 eax, DWORD PTR _pStage$[ebp]
  00013	56		 push	 esi
  00014	8b 75 08	 mov	 esi, DWORD PTR _pWeapon$[ebp]

; 599  : 	ioSkill::ApplyAttributeToWeapon( pWeapon, pStage );

  00017	50		 push	 eax
  00018	56		 push	 esi
  00019	e8 00 00 00 00	 call	 ?ApplyAttributeToWeapon@ioSkill@@UAEXPAVioWeapon@@PAVioPlayStage@@@Z ; ioSkill::ApplyAttributeToWeapon

; 600  : 
; 601  : 	ioZoneEffectWeapon *pZone = ToZoneEffectWeapon( pWeapon );

  0001e	56		 push	 esi
  0001f	e8 00 00 00 00	 call	 ?ToZoneEffectWeapon@@YAPAVioZoneEffectWeapon@@PAVioWeapon@@@Z ; ToZoneEffectWeapon
  00024	8b f0		 mov	 esi, eax
  00026	59		 pop	 ecx

; 602  : 	if( pZone )

  00027	85 f6		 test	 esi, esi
  00029	74 62		 je	 SHORT $LN1@ApplyAttri

; 603  : 	{
; 604  : 		ioBaseChar *pChar = pZone->GetOwner();

  0002b	8b ce		 mov	 ecx, esi
  0002d	e8 00 00 00 00	 call	 ?GetOwner@ioWeapon@@QBEPAVioBaseChar@@XZ ; ioWeapon::GetOwner
  00032	8b c8		 mov	 ecx, eax

; 605  : 		if( pChar )

  00034	85 c9		 test	 ecx, ecx
  00036	74 55		 je	 SHORT $LN1@ApplyAttri

; 606  : 		{
; 607  : 			D3DXVECTOR3 vDir = pChar->GetTargetRot() * D3DXVECTOR3( 0.0f, 0.0f, -FLOAT1 );

  00038	b8 01 00 00 00	 mov	 eax, 1
  0003d	0f 57 c0	 xorps	 xmm0, xmm0
  00040	89 45 e0	 mov	 DWORD PTR tv168[ebp], eax
  00043	db 45 e0	 fild	 DWORD PTR tv168[ebp]
  00046	f3 0f 11 45 f0	 movss	 DWORD PTR $T548460[ebp], xmm0
  0004b	f3 0f 11 45 f4	 movss	 DWORD PTR $T548460[ebp+4], xmm0
  00050	85 c0		 test	 eax, eax
  00052	79 06		 jns	 SHORT $LN11@ApplyAttri
  00054	d8 05 00 00 00
	00		 fadd	 DWORD PTR __real@4f800000
$LN11@ApplyAttri:
  0005a	8d 45 f0	 lea	 eax, DWORD PTR $T548460[ebp]
  0005d	d9 e0		 fchs
  0005f	50		 push	 eax
  00060	d9 5d f8	 fstp	 DWORD PTR $T548460[ebp+8]
  00063	81 c1 a4 06 00
	00		 add	 ecx, 1700		; 000006a4H
  00069	51		 push	 ecx
  0006a	8d 45 e4	 lea	 eax, DWORD PTR _vDir$548458[ebp]
  0006d	50		 push	 eax
  0006e	ff 15 00 00 00
	00		 call	 DWORD PTR __imp_??D@YA?AUD3DXVECTOR3@@ABUD3DXQUATERNION@@ABU0@@Z
  00074	83 c4 0c	 add	 esp, 12			; 0000000cH

; 608  : 			pZone->SetCollisionDir( vDir );

  00077	8d 45 e4	 lea	 eax, DWORD PTR _vDir$548458[ebp]
  0007a	50		 push	 eax
  0007b	8b ce		 mov	 ecx, esi
  0007d	e8 00 00 00 00	 call	 ?SetCollisionDir@ioZoneEffectWeapon@@QAEXAAUD3DXVECTOR3@@@Z ; ioZoneEffectWeapon::SetCollisionDir

; 609  : 			pZone->SetZoneValue( false, true );

  00082	6a 01		 push	 1
  00084	6a 00		 push	 0
  00086	8b ce		 mov	 ecx, esi
  00088	e8 00 00 00 00	 call	 ?SetZoneValue@ioZoneEffectWeapon@@QAEX_N0@Z ; ioZoneEffectWeapon::SetZoneValue
$LN1@ApplyAttri:

; 610  : 		}
; 611  : 	}
; 612  : }

  0008d	8b 4d fc	 mov	 ecx, DWORD PTR __$ArrayPad$[ebp]
  00090	33 cd		 xor	 ecx, ebp
  00092	5e		 pop	 esi
  00093	e8 00 00 00 00	 call	 @__security_check_cookie@4
  00098	c9		 leave
  00099	c2 08 00	 ret	 8
?ApplyAttributeToWeapon@ioCircleMoveAttackSkill3@@UAEXPAVioWeapon@@PAVioPlayStage@@@Z ENDP ; ioCircleMoveAttackSkill3::ApplyAttributeToWeapon
_TEXT	ENDS
PUBLIC	??H?$CEncrypt@K@@QAEKABM@Z			; CEncrypt<unsigned long>::operator+
EXTRN	__ftol2:PROC
; Function compile flags: /Ogsp
; File d:\lost saga for developer\youtube\tutorial\source\src\lsclient\encryptvalue.h
;	COMDAT ??H?$CEncrypt@K@@QAEKABM@Z
_TEXT	SEGMENT
tv129 = -4						; size = 4
_value$ = -4						; size = 4
_inValue$ = 8						; size = 4
??H?$CEncrypt@K@@QAEKABM@Z PROC				; CEncrypt<unsigned long>::operator+, COMDAT
; _this$ = ecx

; 1675 : 	{	

  00000	55		 push	 ebp
  00001	8b ec		 mov	 ebp, esp
  00003	51		 push	 ecx

; 1676 : 		type value;
; 1677 : 		DecryptValueToPool(&value);

  00004	8d 45 fc	 lea	 eax, DWORD PTR _value$[ebp]
  00007	50		 push	 eax
  00008	e8 00 00 00 00	 call	 ?DecryptValueToPool@?$CEncrypt@K@@QAEXPAK@Z ; CEncrypt<unsigned long>::DecryptValueToPool

; 1678 : #ifdef _NOTUSE
; 1679 : 		Debug();
; 1680 : #endif
; 1681 : 		return value + inValue;

  0000d	db 45 fc	 fild	 DWORD PTR _value$[ebp]
  00010	8b 45 fc	 mov	 eax, DWORD PTR _value$[ebp]
  00013	85 c0		 test	 eax, eax
  00015	79 06		 jns	 SHORT $LN3@operator@2
  00017	d8 05 00 00 00
	00		 fadd	 DWORD PTR __real@4f800000
$LN3@operator@2:
  0001d	8b 45 08	 mov	 eax, DWORD PTR _inValue$[ebp]
  00020	d8 00		 fadd	 DWORD PTR [eax]
  00022	e8 00 00 00 00	 call	 __ftol2

; 1682 : 	}

  00027	c9		 leave
  00028	c2 04 00	 ret	 4
??H?$CEncrypt@K@@QAEKABM@Z ENDP				; CEncrypt<unsigned long>::operator+
_TEXT	ENDS
PUBLIC	??9?$CEncrypt@H@@QAE_NABH@Z			; CEncrypt<int>::operator!=
; Function compile flags: /Ogsp
;	COMDAT ??9?$CEncrypt@H@@QAE_NABH@Z
_TEXT	SEGMENT
_value$ = -4						; size = 4
_inValue$ = 8						; size = 4
??9?$CEncrypt@H@@QAE_NABH@Z PROC			; CEncrypt<int>::operator!=, COMDAT
; _this$ = ecx

; 998  : 	{

  00000	55		 push	 ebp
  00001	8b ec		 mov	 ebp, esp
  00003	51		 push	 ecx

; 999  : 		
; 1000 : 		type value;
; 1001 : 		DecryptValueToPool(&value);

  00004	8d 45 fc	 lea	 eax, DWORD PTR _value$[ebp]
  00007	50		 push	 eax
  00008	e8 00 00 00 00	 call	 ?DecryptValueToPool@?$CEncrypt@H@@QAEXPAH@Z ; CEncrypt<int>::DecryptValueToPool

; 1002 : #ifdef _NOTUSE
; 1003 : 		Debug();
; 1004 : #endif
; 1005 : 		return (value != inValue);

  0000d	8b 4d 08	 mov	 ecx, DWORD PTR _inValue$[ebp]
  00010	8b 55 fc	 mov	 edx, DWORD PTR _value$[ebp]
  00013	33 c0		 xor	 eax, eax
  00015	3b 11		 cmp	 edx, DWORD PTR [ecx]
  00017	0f 95 c0	 setne	 al

; 1006 : 	} 		

  0001a	c9		 leave
  0001b	c2 04 00	 ret	 4
??9?$CEncrypt@H@@QAE_NABH@Z ENDP			; CEncrypt<int>::operator!=
_TEXT	ENDS
PUBLIC	?begin@?$vector@UWeaponInfo@@V?$allocator@UWeaponInfo@@@std@@@std@@QBE?AV?$_Vector_const_iterator@V?$_Vector_val@UWeaponInfo@@V?$allocator@UWeaponInfo@@@std@@@std@@@2@XZ ; std::vector<WeaponInfo,std::allocator<WeaponInfo> >::begin
; Function compile flags: /Ogsp
; File c:\program files (x86)\microsoft visual studio 10.0\vc\include\vector
;	COMDAT ?begin@?$vector@UWeaponInfo@@V?$allocator@UWeaponInfo@@@std@@@std@@QBE?AV?$_Vector_const_iterator@V?$_Vector_val@UWeaponInfo@@V?$allocator@UWeaponInfo@@@std@@@std@@@2@XZ
_TEXT	SEGMENT
___$ReturnUdt$ = 8					; size = 4
?begin@?$vector@UWeaponInfo@@V?$allocator@UWeaponInfo@@@std@@@std@@QBE?AV?$_Vector_const_iterator@V?$_Vector_val@UWeaponInfo@@V?$allocator@UWeaponInfo@@@std@@@std@@@2@XZ PROC ; std::vector<WeaponInfo,std::allocator<WeaponInfo> >::begin, COMDAT
; _this$ = ecx

; 786  : 		{	// return iterator for beginning of nonmutable sequence

  00000	55		 push	 ebp
  00001	8b ec		 mov	 ebp, esp

; 787  : 		return (const_iterator(this->_Myfirst, this));

  00003	8b 09		 mov	 ecx, DWORD PTR [ecx]
  00005	8b 45 08	 mov	 eax, DWORD PTR ___$ReturnUdt$[ebp]
  00008	89 08		 mov	 DWORD PTR [eax], ecx

; 788  : 		}

  0000a	5d		 pop	 ebp
  0000b	c2 04 00	 ret	 4
?begin@?$vector@UWeaponInfo@@V?$allocator@UWeaponInfo@@@std@@@std@@QBE?AV?$_Vector_const_iterator@V?$_Vector_val@UWeaponInfo@@V?$allocator@UWeaponInfo@@@std@@@std@@@2@XZ ENDP ; std::vector<WeaponInfo,std::allocator<WeaponInfo> >::begin
_TEXT	ENDS
PUBLIC	?end@?$vector@UWeaponInfo@@V?$allocator@UWeaponInfo@@@std@@@std@@QBE?AV?$_Vector_const_iterator@V?$_Vector_val@UWeaponInfo@@V?$allocator@UWeaponInfo@@@std@@@std@@@2@XZ ; std::vector<WeaponInfo,std::allocator<WeaponInfo> >::end
; Function compile flags: /Ogsp
;	COMDAT ?end@?$vector@UWeaponInfo@@V?$allocator@UWeaponInfo@@@std@@@std@@QBE?AV?$_Vector_const_iterator@V?$_Vector_val@UWeaponInfo@@V?$allocator@UWeaponInfo@@@std@@@std@@@2@XZ
_TEXT	SEGMENT
___$ReturnUdt$ = 8					; size = 4
?end@?$vector@UWeaponInfo@@V?$allocator@UWeaponInfo@@@std@@@std@@QBE?AV?$_Vector_const_iterator@V?$_Vector_val@UWeaponInfo@@V?$allocator@UWeaponInfo@@@std@@@std@@@2@XZ PROC ; std::vector<WeaponInfo,std::allocator<WeaponInfo> >::end, COMDAT
; _this$ = ecx

; 796  : 		{	// return iterator for end of nonmutable sequence

  00000	55		 push	 ebp
  00001	8b ec		 mov	 ebp, esp

; 797  : 		return (const_iterator(this->_Mylast, this));

  00003	8b 49 04	 mov	 ecx, DWORD PTR [ecx+4]
  00006	8b 45 08	 mov	 eax, DWORD PTR ___$ReturnUdt$[ebp]
  00009	89 08		 mov	 DWORD PTR [eax], ecx

; 798  : 		}

  0000b	5d		 pop	 ebp
  0000c	c2 04 00	 ret	 4
?end@?$vector@UWeaponInfo@@V?$allocator@UWeaponInfo@@@std@@@std@@QBE?AV?$_Vector_const_iterator@V?$_Vector_val@UWeaponInfo@@V?$allocator@UWeaponInfo@@@std@@@std@@@2@XZ ENDP ; std::vector<WeaponInfo,std::allocator<WeaponInfo> >::end
_TEXT	ENDS
PUBLIC	?begin@?$vector@UForceInfo@@V?$allocator@UForceInfo@@@std@@@std@@QBE?AV?$_Vector_const_iterator@V?$_Vector_val@UForceInfo@@V?$allocator@UForceInfo@@@std@@@std@@@2@XZ ; std::vector<ForceInfo,std::allocator<ForceInfo> >::begin
; Function compile flags: /Ogsp
;	COMDAT ?begin@?$vector@UForceInfo@@V?$allocator@UForceInfo@@@std@@@std@@QBE?AV?$_Vector_const_iterator@V?$_Vector_val@UForceInfo@@V?$allocator@UForceInfo@@@std@@@std@@@2@XZ
_TEXT	SEGMENT
___$ReturnUdt$ = 8					; size = 4
?begin@?$vector@UForceInfo@@V?$allocator@UForceInfo@@@std@@@std@@QBE?AV?$_Vector_const_iterator@V?$_Vector_val@UForceInfo@@V?$allocator@UForceInfo@@@std@@@std@@@2@XZ PROC ; std::vector<ForceInfo,std::allocator<ForceInfo> >::begin, COMDAT
; _this$ = ecx

; 786  : 		{	// return iterator for beginning of nonmutable sequence

  00000	55		 push	 ebp
  00001	8b ec		 mov	 ebp, esp

; 787  : 		return (const_iterator(this->_Myfirst, this));

  00003	8b 09		 mov	 ecx, DWORD PTR [ecx]
  00005	8b 45 08	 mov	 eax, DWORD PTR ___$ReturnUdt$[ebp]
  00008	89 08		 mov	 DWORD PTR [eax], ecx

; 788  : 		}

  0000a	5d		 pop	 ebp
  0000b	c2 04 00	 ret	 4
?begin@?$vector@UForceInfo@@V?$allocator@UForceInfo@@@std@@@std@@QBE?AV?$_Vector_const_iterator@V?$_Vector_val@UForceInfo@@V?$allocator@UForceInfo@@@std@@@std@@@2@XZ ENDP ; std::vector<ForceInfo,std::allocator<ForceInfo> >::begin
_TEXT	ENDS
PUBLIC	?end@?$vector@UForceInfo@@V?$allocator@UForceInfo@@@std@@@std@@QBE?AV?$_Vector_const_iterator@V?$_Vector_val@UForceInfo@@V?$allocator@UForceInfo@@@std@@@std@@@2@XZ ; std::vector<ForceInfo,std::allocator<ForceInfo> >::end
; Function compile flags: /Ogsp
;	COMDAT ?end@?$vector@UForceInfo@@V?$allocator@UForceInfo@@@std@@@std@@QBE?AV?$_Vector_const_iterator@V?$_Vector_val@UForceInfo@@V?$allocator@UForceInfo@@@std@@@std@@@2@XZ
_TEXT	SEGMENT
___$ReturnUdt$ = 8					; size = 4
?end@?$vector@UForceInfo@@V?$allocator@UForceInfo@@@std@@@std@@QBE?AV?$_Vector_const_iterator@V?$_Vector_val@UForceInfo@@V?$allocator@UForceInfo@@@std@@@std@@@2@XZ PROC ; std::vector<ForceInfo,std::allocator<ForceInfo> >::end, COMDAT
; _this$ = ecx

; 796  : 		{	// return iterator for end of nonmutable sequence

  00000	55		 push	 ebp
  00001	8b ec		 mov	 ebp, esp

; 797  : 		return (const_iterator(this->_Mylast, this));

  00003	8b 49 04	 mov	 ecx, DWORD PTR [ecx+4]
  00006	8b 45 08	 mov	 eax, DWORD PTR ___$ReturnUdt$[ebp]
  00009	89 08		 mov	 DWORD PTR [eax], ecx

; 798  : 		}

  0000b	5d		 pop	 ebp
  0000c	c2 04 00	 ret	 4
?end@?$vector@UForceInfo@@V?$allocator@UForceInfo@@@std@@@std@@QBE?AV?$_Vector_const_iterator@V?$_Vector_val@UForceInfo@@V?$allocator@UForceInfo@@@std@@@std@@@2@XZ ENDP ; std::vector<ForceInfo,std::allocator<ForceInfo> >::end
_TEXT	ENDS
PUBLIC	__$ArrayPad$
PUBLIC	??$LoadFloat_e@$0BD@@ioINILoader@@QAEMAAY0BD@$$CBDM@Z ; ioINILoader::LoadFloat_e<19>
EXTRN	__imp_?LoadFloat@ioINILoader@@QAEMPBDM@Z:PROC
; Function compile flags: /Ogsp
; File d:\lost saga for developer\youtube\tutorial\source\src\io3dengine\ioiniloader.h
;	COMDAT ??$LoadFloat_e@$0BD@@ioINILoader@@QAEMAAY0BD@$$CBDM@Z
_TEXT	SEGMENT
__k$ = -28						; size = 19
__$ArrayPad$ = -4					; size = 4
_k$ = 8							; size = 4
_f$ = 12						; size = 4
??$LoadFloat_e@$0BD@@ioINILoader@@QAEMAAY0BD@$$CBDM@Z PROC ; ioINILoader::LoadFloat_e<19>, COMDAT
; _this$ = ecx

; 135  : 	{

  00000	55		 push	 ebp
  00001	8b ec		 mov	 ebp, esp
  00003	83 ec 1c	 sub	 esp, 28			; 0000001cH
  00006	a1 00 00 00 00	 mov	 eax, DWORD PTR ___security_cookie
  0000b	33 c5		 xor	 eax, ebp
  0000d	89 45 fc	 mov	 DWORD PTR __$ArrayPad$[ebp], eax
  00010	8b 45 08	 mov	 eax, DWORD PTR _k$[ebp]

; 136  : 		_ENCSTR(k, _k);

  00013	8a 10		 mov	 dl, BYTE PTR [eax]
  00015	56		 push	 esi
  00016	8b f1		 mov	 esi, ecx
  00018	84 d2		 test	 dl, dl
  0001a	0f 84 cf 01 00
	00		 je	 $LN96@LoadFloat_
  00020	80 f2 ed	 xor	 dl, -19			; ffffffedH
  00023	88 55 e4	 mov	 BYTE PTR __k$[ebp], dl
  00026	8a 50 01	 mov	 dl, BYTE PTR [eax+1]
  00029	84 d2		 test	 dl, dl
  0002b	0f 84 b8 01 00
	00		 je	 $LN95@LoadFloat_
  00031	b1 ec		 mov	 cl, -20			; ffffffecH
  00033	32 d1		 xor	 dl, cl
  00035	88 55 e5	 mov	 BYTE PTR __k$[ebp+1], dl
  00038	8a 50 02	 mov	 dl, BYTE PTR [eax+2]
  0003b	84 d2		 test	 dl, dl
  0003d	0f 84 a0 01 00
	00		 je	 $LN94@LoadFloat_
  00043	80 f2 eb	 xor	 dl, -21			; ffffffebH
  00046	88 55 e6	 mov	 BYTE PTR __k$[ebp+2], dl
  00049	8a 50 03	 mov	 dl, BYTE PTR [eax+3]
  0004c	84 d2		 test	 dl, dl
  0004e	0f 84 89 01 00
	00		 je	 $LN93@LoadFloat_
  00054	80 f2 ea	 xor	 dl, -22			; ffffffeaH
  00057	88 55 e7	 mov	 BYTE PTR __k$[ebp+3], dl
  0005a	8a 50 04	 mov	 dl, BYTE PTR [eax+4]
  0005d	84 d2		 test	 dl, dl
  0005f	0f 84 72 01 00
	00		 je	 $LN92@LoadFloat_
  00065	80 f2 ed	 xor	 dl, -19			; ffffffedH
  00068	88 55 e8	 mov	 BYTE PTR __k$[ebp+4], dl
  0006b	8a 50 05	 mov	 dl, BYTE PTR [eax+5]
  0006e	84 d2		 test	 dl, dl
  00070	0f 84 5c 01 00
	00		 je	 $LN91@LoadFloat_
  00076	32 d1		 xor	 dl, cl
  00078	88 55 e9	 mov	 BYTE PTR __k$[ebp+5], dl
  0007b	8a 50 06	 mov	 dl, BYTE PTR [eax+6]
  0007e	84 d2		 test	 dl, dl
  00080	0f 84 46 01 00
	00		 je	 $LN90@LoadFloat_
  00086	80 f2 eb	 xor	 dl, -21			; ffffffebH
  00089	88 55 ea	 mov	 BYTE PTR __k$[ebp+6], dl
  0008c	8a 50 07	 mov	 dl, BYTE PTR [eax+7]
  0008f	84 d2		 test	 dl, dl
  00091	0f 84 2f 01 00
	00		 je	 $LN89@LoadFloat_
  00097	80 f2 ea	 xor	 dl, -22			; ffffffeaH
  0009a	88 55 eb	 mov	 BYTE PTR __k$[ebp+7], dl
  0009d	8a 50 08	 mov	 dl, BYTE PTR [eax+8]
  000a0	84 d2		 test	 dl, dl
  000a2	0f 84 18 01 00
	00		 je	 $LN88@LoadFloat_
  000a8	80 f2 ed	 xor	 dl, -19			; ffffffedH
  000ab	88 55 ec	 mov	 BYTE PTR __k$[ebp+8], dl
  000ae	8a 50 09	 mov	 dl, BYTE PTR [eax+9]
  000b1	84 d2		 test	 dl, dl
  000b3	0f 84 02 01 00
	00		 je	 $LN87@LoadFloat_
  000b9	32 d1		 xor	 dl, cl
  000bb	88 55 ed	 mov	 BYTE PTR __k$[ebp+9], dl
  000be	8a 50 0a	 mov	 dl, BYTE PTR [eax+10]
  000c1	84 d2		 test	 dl, dl
  000c3	0f 84 ec 00 00
	00		 je	 $LN86@LoadFloat_
  000c9	80 f2 eb	 xor	 dl, -21			; ffffffebH
  000cc	88 55 ee	 mov	 BYTE PTR __k$[ebp+10], dl
  000cf	8a 50 0b	 mov	 dl, BYTE PTR [eax+11]
  000d2	84 d2		 test	 dl, dl
  000d4	0f 84 d5 00 00
	00		 je	 $LN85@LoadFloat_
  000da	80 f2 ea	 xor	 dl, -22			; ffffffeaH
  000dd	88 55 ef	 mov	 BYTE PTR __k$[ebp+11], dl
  000e0	8a 50 0c	 mov	 dl, BYTE PTR [eax+12]
  000e3	84 d2		 test	 dl, dl
  000e5	0f 84 be 00 00
	00		 je	 $LN84@LoadFloat_
  000eb	80 f2 ed	 xor	 dl, -19			; ffffffedH
  000ee	88 55 f0	 mov	 BYTE PTR __k$[ebp+12], dl
  000f1	8a 50 0d	 mov	 dl, BYTE PTR [eax+13]
  000f4	84 d2		 test	 dl, dl
  000f6	0f 84 a8 00 00
	00		 je	 $LN83@LoadFloat_
  000fc	32 d1		 xor	 dl, cl
  000fe	88 55 f1	 mov	 BYTE PTR __k$[ebp+13], dl
  00101	8a 50 0e	 mov	 dl, BYTE PTR [eax+14]
  00104	84 d2		 test	 dl, dl
  00106	0f 84 92 00 00
	00		 je	 $LN82@LoadFloat_
  0010c	80 f2 eb	 xor	 dl, -21			; ffffffebH
  0010f	88 55 f2	 mov	 BYTE PTR __k$[ebp+14], dl
  00112	8a 50 0f	 mov	 dl, BYTE PTR [eax+15]
  00115	84 d2		 test	 dl, dl
  00117	74 7f		 je	 SHORT $LN81@LoadFloat_
  00119	80 f2 ea	 xor	 dl, -22			; ffffffeaH
  0011c	88 55 f3	 mov	 BYTE PTR __k$[ebp+15], dl
  0011f	8a 50 10	 mov	 dl, BYTE PTR [eax+16]
  00122	84 d2		 test	 dl, dl
  00124	74 6c		 je	 SHORT $LN80@LoadFloat_
  00126	80 f2 ed	 xor	 dl, -19			; ffffffedH
  00129	88 55 f4	 mov	 BYTE PTR __k$[ebp+16], dl
  0012c	8a 50 11	 mov	 dl, BYTE PTR [eax+17]
  0012f	84 d2		 test	 dl, dl
  00131	74 5a		 je	 SHORT $LN79@LoadFloat_
  00133	32 d1		 xor	 dl, cl
  00135	80 78 12 00	 cmp	 BYTE PTR [eax+18], 0
  00139	88 55 f5	 mov	 BYTE PTR __k$[ebp+17], dl
  0013c	0f 84 b1 00 00
	00		 je	 $LN1@LoadFloat_
  00142	8a 50 13	 mov	 dl, BYTE PTR [eax+19]
  00145	84 d2		 test	 dl, dl
  00147	74 3e		 je	 SHORT $LN77@LoadFloat_
  00149	80 f2 ea	 xor	 dl, -22			; ffffffeaH
  0014c	88 55 f7	 mov	 BYTE PTR __k$[ebp+19], dl
  0014f	8a 50 14	 mov	 dl, BYTE PTR [eax+20]
  00152	84 d2		 test	 dl, dl
  00154	74 2b		 je	 SHORT $LN76@LoadFloat_
  00156	80 f2 ed	 xor	 dl, -19			; ffffffedH
  00159	88 55 f8	 mov	 BYTE PTR __k$[ebp+20], dl
  0015c	8a 50 15	 mov	 dl, BYTE PTR [eax+21]
  0015f	84 d2		 test	 dl, dl
  00161	74 19		 je	 SHORT $LN75@LoadFloat_
  00163	8a 40 16	 mov	 al, BYTE PTR [eax+22]
  00166	32 d1		 xor	 dl, cl
  00168	88 55 f9	 mov	 BYTE PTR __k$[ebp+21], dl
  0016b	84 c0		 test	 al, al
  0016d	74 07		 je	 SHORT $LN74@LoadFloat_
  0016f	34 eb		 xor	 al, -21			; ffffffebH
  00171	88 45 fa	 mov	 BYTE PTR __k$[ebp+22], al
  00174	eb 7d		 jmp	 SHORT $LN1@LoadFloat_
$LN74@LoadFloat_:
  00176	c6 45 fa eb	 mov	 BYTE PTR __k$[ebp+22], -21 ; ffffffebH
  0017a	eb 77		 jmp	 SHORT $LN1@LoadFloat_
$LN75@LoadFloat_:
  0017c	88 4d f9	 mov	 BYTE PTR __k$[ebp+21], cl
  0017f	eb 72		 jmp	 SHORT $LN1@LoadFloat_
$LN76@LoadFloat_:
  00181	c6 45 f8 ed	 mov	 BYTE PTR __k$[ebp+20], -19 ; ffffffedH
  00185	eb 6c		 jmp	 SHORT $LN1@LoadFloat_
$LN77@LoadFloat_:
  00187	c6 45 f7 ea	 mov	 BYTE PTR __k$[ebp+19], -22 ; ffffffeaH
  0018b	eb 66		 jmp	 SHORT $LN1@LoadFloat_
$LN79@LoadFloat_:
  0018d	88 4d f5	 mov	 BYTE PTR __k$[ebp+17], cl
  00190	eb 61		 jmp	 SHORT $LN1@LoadFloat_
$LN80@LoadFloat_:
  00192	c6 45 f4 ed	 mov	 BYTE PTR __k$[ebp+16], -19 ; ffffffedH
  00196	eb 5b		 jmp	 SHORT $LN1@LoadFloat_
$LN81@LoadFloat_:
  00198	c6 45 f3 ea	 mov	 BYTE PTR __k$[ebp+15], -22 ; ffffffeaH
  0019c	eb 55		 jmp	 SHORT $LN1@LoadFloat_
$LN82@LoadFloat_:
  0019e	c6 45 f2 eb	 mov	 BYTE PTR __k$[ebp+14], -21 ; ffffffebH
  001a2	eb 4f		 jmp	 SHORT $LN1@LoadFloat_
$LN83@LoadFloat_:
  001a4	88 4d f1	 mov	 BYTE PTR __k$[ebp+13], cl
  001a7	eb 4a		 jmp	 SHORT $LN1@LoadFloat_
$LN84@LoadFloat_:
  001a9	c6 45 f0 ed	 mov	 BYTE PTR __k$[ebp+12], -19 ; ffffffedH
  001ad	eb 44		 jmp	 SHORT $LN1@LoadFloat_
$LN85@LoadFloat_:
  001af	c6 45 ef ea	 mov	 BYTE PTR __k$[ebp+11], -22 ; ffffffeaH
  001b3	eb 3e		 jmp	 SHORT $LN1@LoadFloat_
$LN86@LoadFloat_:
  001b5	c6 45 ee eb	 mov	 BYTE PTR __k$[ebp+10], -21 ; ffffffebH
  001b9	eb 38		 jmp	 SHORT $LN1@LoadFloat_
$LN87@LoadFloat_:
  001bb	88 4d ed	 mov	 BYTE PTR __k$[ebp+9], cl
  001be	eb 33		 jmp	 SHORT $LN1@LoadFloat_
$LN88@LoadFloat_:
  001c0	c6 45 ec ed	 mov	 BYTE PTR __k$[ebp+8], -19 ; ffffffedH
  001c4	eb 2d		 jmp	 SHORT $LN1@LoadFloat_
$LN89@LoadFloat_:
  001c6	c6 45 eb ea	 mov	 BYTE PTR __k$[ebp+7], -22 ; ffffffeaH
  001ca	eb 27		 jmp	 SHORT $LN1@LoadFloat_
$LN90@LoadFloat_:
  001cc	c6 45 ea eb	 mov	 BYTE PTR __k$[ebp+6], -21 ; ffffffebH
  001d0	eb 21		 jmp	 SHORT $LN1@LoadFloat_
$LN91@LoadFloat_:
  001d2	88 4d e9	 mov	 BYTE PTR __k$[ebp+5], cl
  001d5	eb 1c		 jmp	 SHORT $LN1@LoadFloat_
$LN92@LoadFloat_:
  001d7	c6 45 e8 ed	 mov	 BYTE PTR __k$[ebp+4], -19 ; ffffffedH
  001db	eb 16		 jmp	 SHORT $LN1@LoadFloat_
$LN93@LoadFloat_:
  001dd	c6 45 e7 ea	 mov	 BYTE PTR __k$[ebp+3], -22 ; ffffffeaH
  001e1	eb 10		 jmp	 SHORT $LN1@LoadFloat_
$LN94@LoadFloat_:
  001e3	c6 45 e6 eb	 mov	 BYTE PTR __k$[ebp+2], -21 ; ffffffebH
  001e7	eb 0a		 jmp	 SHORT $LN1@LoadFloat_
$LN95@LoadFloat_:
  001e9	c6 45 e5 ec	 mov	 BYTE PTR __k$[ebp+1], -20 ; ffffffecH
  001ed	eb 04		 jmp	 SHORT $LN1@LoadFloat_
$LN96@LoadFloat_:
  001ef	c6 45 e4 ed	 mov	 BYTE PTR __k$[ebp], -19	; ffffffedH
$LN1@LoadFloat_:
  001f3	6a 04		 push	 4
  001f5	8d 45 e4	 lea	 eax, DWORD PTR __k$[ebp]
  001f8	c6 45 f6 00	 mov	 BYTE PTR __k$[ebp+18], 0
  001fc	5a		 pop	 edx
$LL104@LoadFloat_:
  001fd	81 30 ed ec eb
	ea		 xor	 DWORD PTR [eax], -353637139 ; eaebecedH
  00203	83 c0 04	 add	 eax, 4
  00206	4a		 dec	 edx
  00207	75 f4		 jne	 SHORT $LL104@LoadFloat_
  00209	6a 10		 push	 16			; 00000010H
  0020b	58		 pop	 eax
$LL101@LoadFloat_:
  0020c	8b c8		 mov	 ecx, eax
  0020e	81 e1 03 00 00
	80		 and	 ecx, -2147483645	; 80000003H
  00214	79 05		 jns	 SHORT $LN111@LoadFloat_
  00216	49		 dec	 ecx
  00217	83 c9 fc	 or	 ecx, -4			; fffffffcH
  0021a	41		 inc	 ecx
$LN111@LoadFloat_:
  0021b	b2 ed		 mov	 dl, -19			; ffffffedH
  0021d	2a d1		 sub	 dl, cl
  0021f	30 54 05 e4	 xor	 BYTE PTR __k$[ebp+eax], dl
  00223	40		 inc	 eax
  00224	83 f8 12	 cmp	 eax, 18			; 00000012H
  00227	7c e3		 jl	 SHORT $LL101@LoadFloat_

; 137  : 		return LoadFloat(_k, f);

  00229	f3 0f 10 45 0c	 movss	 xmm0, DWORD PTR _f$[ebp]
  0022e	51		 push	 ecx
  0022f	8d 45 e4	 lea	 eax, DWORD PTR __k$[ebp]
  00232	f3 0f 11 04 24	 movss	 DWORD PTR [esp], xmm0
  00237	50		 push	 eax
  00238	8b ce		 mov	 ecx, esi
  0023a	ff 15 00 00 00
	00		 call	 DWORD PTR __imp_?LoadFloat@ioINILoader@@QAEMPBDM@Z

; 138  : 	}

  00240	8b 4d fc	 mov	 ecx, DWORD PTR __$ArrayPad$[ebp]
  00243	33 cd		 xor	 ecx, ebp
  00245	5e		 pop	 esi
  00246	e8 00 00 00 00	 call	 @__security_check_cookie@4
  0024b	c9		 leave
  0024c	c2 08 00	 ret	 8
??$LoadFloat_e@$0BD@@ioINILoader@@QAEMAAY0BD@$$CBDM@Z ENDP ; ioINILoader::LoadFloat_e<19>
_TEXT	ENDS
PUBLIC	__$ArrayPad$
PUBLIC	??$LoadFloat_e@$0BI@@ioINILoader@@QAEMAAY0BI@$$CBDM@Z ; ioINILoader::LoadFloat_e<24>
; Function compile flags: /Ogsp
;	COMDAT ??$LoadFloat_e@$0BI@@ioINILoader@@QAEMAAY0BI@$$CBDM@Z
_TEXT	SEGMENT
__k$ = -32						; size = 24
__$ArrayPad$ = -4					; size = 4
_k$ = 8							; size = 4
_f$ = 12						; size = 4
??$LoadFloat_e@$0BI@@ioINILoader@@QAEMAAY0BI@$$CBDM@Z PROC ; ioINILoader::LoadFloat_e<24>, COMDAT
; _this$ = ecx

; 135  : 	{

  00000	55		 push	 ebp
  00001	8b ec		 mov	 ebp, esp
  00003	83 ec 20	 sub	 esp, 32			; 00000020H
  00006	a1 00 00 00 00	 mov	 eax, DWORD PTR ___security_cookie
  0000b	33 c5		 xor	 eax, ebp
  0000d	89 45 fc	 mov	 DWORD PTR __$ArrayPad$[ebp], eax
  00010	8b 45 08	 mov	 eax, DWORD PTR _k$[ebp]

; 136  : 		_ENCSTR(k, _k);

  00013	8a 10		 mov	 dl, BYTE PTR [eax]
  00015	53		 push	 ebx
  00016	56		 push	 esi
  00017	8b f1		 mov	 esi, ecx
  00019	84 d2		 test	 dl, dl
  0001b	0f 84 45 02 00
	00		 je	 $LN96@LoadFloat_@2
  00021	80 f2 ed	 xor	 dl, -19			; ffffffedH
  00024	88 55 e0	 mov	 BYTE PTR __k$[ebp], dl
  00027	8a 50 01	 mov	 dl, BYTE PTR [eax+1]
  0002a	84 d2		 test	 dl, dl
  0002c	0f 84 2e 02 00
	00		 je	 $LN95@LoadFloat_@2
  00032	b3 ec		 mov	 bl, -20			; ffffffecH
  00034	32 d3		 xor	 dl, bl
  00036	88 55 e1	 mov	 BYTE PTR __k$[ebp+1], dl
  00039	8a 50 02	 mov	 dl, BYTE PTR [eax+2]
  0003c	84 d2		 test	 dl, dl
  0003e	0f 84 16 02 00
	00		 je	 $LN94@LoadFloat_@2
  00044	b1 eb		 mov	 cl, -21			; ffffffebH
  00046	32 d1		 xor	 dl, cl
  00048	88 55 e2	 mov	 BYTE PTR __k$[ebp+2], dl
  0004b	8a 50 03	 mov	 dl, BYTE PTR [eax+3]
  0004e	84 d2		 test	 dl, dl
  00050	0f 84 fe 01 00
	00		 je	 $LN93@LoadFloat_@2
  00056	80 f2 ea	 xor	 dl, -22			; ffffffeaH
  00059	88 55 e3	 mov	 BYTE PTR __k$[ebp+3], dl
  0005c	8a 50 04	 mov	 dl, BYTE PTR [eax+4]
  0005f	84 d2		 test	 dl, dl
  00061	0f 84 e7 01 00
	00		 je	 $LN92@LoadFloat_@2
  00067	80 f2 ed	 xor	 dl, -19			; ffffffedH
  0006a	88 55 e4	 mov	 BYTE PTR __k$[ebp+4], dl
  0006d	8a 50 05	 mov	 dl, BYTE PTR [eax+5]
  00070	84 d2		 test	 dl, dl
  00072	0f 84 d1 01 00
	00		 je	 $LN91@LoadFloat_@2
  00078	32 d3		 xor	 dl, bl
  0007a	88 55 e5	 mov	 BYTE PTR __k$[ebp+5], dl
  0007d	8a 50 06	 mov	 dl, BYTE PTR [eax+6]
  00080	84 d2		 test	 dl, dl
  00082	0f 84 bc 01 00
	00		 je	 $LN90@LoadFloat_@2
  00088	32 d1		 xor	 dl, cl
  0008a	88 55 e6	 mov	 BYTE PTR __k$[ebp+6], dl
  0008d	8a 50 07	 mov	 dl, BYTE PTR [eax+7]
  00090	84 d2		 test	 dl, dl
  00092	0f 84 a6 01 00
	00		 je	 $LN89@LoadFloat_@2
  00098	80 f2 ea	 xor	 dl, -22			; ffffffeaH
  0009b	88 55 e7	 mov	 BYTE PTR __k$[ebp+7], dl
  0009e	8a 50 08	 mov	 dl, BYTE PTR [eax+8]
  000a1	84 d2		 test	 dl, dl
  000a3	0f 84 8f 01 00
	00		 je	 $LN88@LoadFloat_@2
  000a9	80 f2 ed	 xor	 dl, -19			; ffffffedH
  000ac	88 55 e8	 mov	 BYTE PTR __k$[ebp+8], dl
  000af	8a 50 09	 mov	 dl, BYTE PTR [eax+9]
  000b2	84 d2		 test	 dl, dl
  000b4	0f 84 79 01 00
	00		 je	 $LN87@LoadFloat_@2
  000ba	32 d3		 xor	 dl, bl
  000bc	88 55 e9	 mov	 BYTE PTR __k$[ebp+9], dl
  000bf	8a 50 0a	 mov	 dl, BYTE PTR [eax+10]
  000c2	84 d2		 test	 dl, dl
  000c4	0f 84 64 01 00
	00		 je	 $LN86@LoadFloat_@2
  000ca	32 d1		 xor	 dl, cl
  000cc	88 55 ea	 mov	 BYTE PTR __k$[ebp+10], dl
  000cf	8a 50 0b	 mov	 dl, BYTE PTR [eax+11]
  000d2	84 d2		 test	 dl, dl
  000d4	0f 84 4e 01 00
	00		 je	 $LN85@LoadFloat_@2
  000da	80 f2 ea	 xor	 dl, -22			; ffffffeaH
  000dd	88 55 eb	 mov	 BYTE PTR __k$[ebp+11], dl
  000e0	8a 50 0c	 mov	 dl, BYTE PTR [eax+12]
  000e3	84 d2		 test	 dl, dl
  000e5	0f 84 37 01 00
	00		 je	 $LN84@LoadFloat_@2
  000eb	80 f2 ed	 xor	 dl, -19			; ffffffedH
  000ee	88 55 ec	 mov	 BYTE PTR __k$[ebp+12], dl
  000f1	8a 50 0d	 mov	 dl, BYTE PTR [eax+13]
  000f4	84 d2		 test	 dl, dl
  000f6	0f 84 21 01 00
	00		 je	 $LN83@LoadFloat_@2
  000fc	32 d3		 xor	 dl, bl
  000fe	88 55 ed	 mov	 BYTE PTR __k$[ebp+13], dl
  00101	8a 50 0e	 mov	 dl, BYTE PTR [eax+14]
  00104	84 d2		 test	 dl, dl
  00106	0f 84 0c 01 00
	00		 je	 $LN82@LoadFloat_@2
  0010c	32 d1		 xor	 dl, cl
  0010e	88 55 ee	 mov	 BYTE PTR __k$[ebp+14], dl
  00111	8a 50 0f	 mov	 dl, BYTE PTR [eax+15]
  00114	84 d2		 test	 dl, dl
  00116	0f 84 f6 00 00
	00		 je	 $LN81@LoadFloat_@2
  0011c	80 f2 ea	 xor	 dl, -22			; ffffffeaH
  0011f	88 55 ef	 mov	 BYTE PTR __k$[ebp+15], dl
  00122	8a 50 10	 mov	 dl, BYTE PTR [eax+16]
  00125	84 d2		 test	 dl, dl
  00127	0f 84 df 00 00
	00		 je	 $LN80@LoadFloat_@2
  0012d	80 f2 ed	 xor	 dl, -19			; ffffffedH
  00130	88 55 f0	 mov	 BYTE PTR __k$[ebp+16], dl
  00133	8a 50 11	 mov	 dl, BYTE PTR [eax+17]
  00136	84 d2		 test	 dl, dl
  00138	0f 84 c9 00 00
	00		 je	 $LN79@LoadFloat_@2
  0013e	32 d3		 xor	 dl, bl
  00140	88 55 f1	 mov	 BYTE PTR __k$[ebp+17], dl
  00143	8a 50 12	 mov	 dl, BYTE PTR [eax+18]
  00146	84 d2		 test	 dl, dl
  00148	0f 84 b4 00 00
	00		 je	 $LN78@LoadFloat_@2
  0014e	32 d1		 xor	 dl, cl
  00150	88 55 f2	 mov	 BYTE PTR __k$[ebp+18], dl
  00153	8a 50 13	 mov	 dl, BYTE PTR [eax+19]
  00156	84 d2		 test	 dl, dl
  00158	0f 84 9e 00 00
	00		 je	 $LN77@LoadFloat_@2
  0015e	80 f2 ea	 xor	 dl, -22			; ffffffeaH
  00161	88 55 f3	 mov	 BYTE PTR __k$[ebp+19], dl
  00164	8a 50 14	 mov	 dl, BYTE PTR [eax+20]
  00167	84 d2		 test	 dl, dl
  00169	0f 84 87 00 00
	00		 je	 $LN76@LoadFloat_@2
  0016f	80 f2 ed	 xor	 dl, -19			; ffffffedH
  00172	88 55 f4	 mov	 BYTE PTR __k$[ebp+20], dl
  00175	8a 50 15	 mov	 dl, BYTE PTR [eax+21]
  00178	84 d2		 test	 dl, dl
  0017a	74 75		 je	 SHORT $LN75@LoadFloat_@2
  0017c	32 d3		 xor	 dl, bl
  0017e	88 55 f5	 mov	 BYTE PTR __k$[ebp+21], dl
  00181	8a 50 16	 mov	 dl, BYTE PTR [eax+22]
  00184	84 d2		 test	 dl, dl
  00186	74 64		 je	 SHORT $LN74@LoadFloat_@2
  00188	32 d1		 xor	 dl, cl
  0018a	80 78 17 00	 cmp	 BYTE PTR [eax+23], 0
  0018e	88 55 f6	 mov	 BYTE PTR __k$[ebp+22], dl
  00191	0f 84 d3 00 00
	00		 je	 $LN1@LoadFloat_@2
  00197	8a 50 18	 mov	 dl, BYTE PTR [eax+24]
  0019a	84 d2		 test	 dl, dl
  0019c	74 48		 je	 SHORT $LN72@LoadFloat_@2
  0019e	80 f2 ed	 xor	 dl, -19			; ffffffedH
  001a1	88 55 f8	 mov	 BYTE PTR __k$[ebp+24], dl
  001a4	8a 50 19	 mov	 dl, BYTE PTR [eax+25]
  001a7	84 d2		 test	 dl, dl
  001a9	74 33		 je	 SHORT $LN71@LoadFloat_@2
  001ab	32 d3		 xor	 dl, bl
  001ad	88 55 f9	 mov	 BYTE PTR __k$[ebp+25], dl
  001b0	8a 50 1a	 mov	 dl, BYTE PTR [eax+26]
  001b3	84 d2		 test	 dl, dl
  001b5	74 1f		 je	 SHORT $LN70@LoadFloat_@2
  001b7	8a 40 1b	 mov	 al, BYTE PTR [eax+27]
  001ba	32 d1		 xor	 dl, cl
  001bc	88 55 fa	 mov	 BYTE PTR __k$[ebp+26], dl
  001bf	84 c0		 test	 al, al
  001c1	74 0a		 je	 SHORT $LN69@LoadFloat_@2
  001c3	34 ea		 xor	 al, -22			; ffffffeaH
  001c5	88 45 fb	 mov	 BYTE PTR __k$[ebp+27], al
  001c8	e9 9d 00 00 00	 jmp	 $LN1@LoadFloat_@2
$LN69@LoadFloat_@2:
  001cd	c6 45 fb ea	 mov	 BYTE PTR __k$[ebp+27], -22 ; ffffffeaH
  001d1	e9 94 00 00 00	 jmp	 $LN1@LoadFloat_@2
$LN70@LoadFloat_@2:
  001d6	88 4d fa	 mov	 BYTE PTR __k$[ebp+26], cl
  001d9	e9 8c 00 00 00	 jmp	 $LN1@LoadFloat_@2
$LN71@LoadFloat_@2:
  001de	88 5d f9	 mov	 BYTE PTR __k$[ebp+25], bl
  001e1	e9 84 00 00 00	 jmp	 $LN1@LoadFloat_@2
$LN72@LoadFloat_@2:
  001e6	c6 45 f8 ed	 mov	 BYTE PTR __k$[ebp+24], -19 ; ffffffedH
  001ea	eb 7e		 jmp	 SHORT $LN1@LoadFloat_@2
$LN74@LoadFloat_@2:
  001ec	88 4d f6	 mov	 BYTE PTR __k$[ebp+22], cl
  001ef	eb 79		 jmp	 SHORT $LN1@LoadFloat_@2
$LN75@LoadFloat_@2:
  001f1	88 5d f5	 mov	 BYTE PTR __k$[ebp+21], bl
  001f4	eb 74		 jmp	 SHORT $LN1@LoadFloat_@2
$LN76@LoadFloat_@2:
  001f6	c6 45 f4 ed	 mov	 BYTE PTR __k$[ebp+20], -19 ; ffffffedH
  001fa	eb 6e		 jmp	 SHORT $LN1@LoadFloat_@2
$LN77@LoadFloat_@2:
  001fc	c6 45 f3 ea	 mov	 BYTE PTR __k$[ebp+19], -22 ; ffffffeaH
  00200	eb 68		 jmp	 SHORT $LN1@LoadFloat_@2
$LN78@LoadFloat_@2:
  00202	88 4d f2	 mov	 BYTE PTR __k$[ebp+18], cl
  00205	eb 63		 jmp	 SHORT $LN1@LoadFloat_@2
$LN79@LoadFloat_@2:
  00207	88 5d f1	 mov	 BYTE PTR __k$[ebp+17], bl
  0020a	eb 5e		 jmp	 SHORT $LN1@LoadFloat_@2
$LN80@LoadFloat_@2:
  0020c	c6 45 f0 ed	 mov	 BYTE PTR __k$[ebp+16], -19 ; ffffffedH
  00210	eb 58		 jmp	 SHORT $LN1@LoadFloat_@2
$LN81@LoadFloat_@2:
  00212	c6 45 ef ea	 mov	 BYTE PTR __k$[ebp+15], -22 ; ffffffeaH
  00216	eb 52		 jmp	 SHORT $LN1@LoadFloat_@2
$LN82@LoadFloat_@2:
  00218	88 4d ee	 mov	 BYTE PTR __k$[ebp+14], cl
  0021b	eb 4d		 jmp	 SHORT $LN1@LoadFloat_@2
$LN83@LoadFloat_@2:
  0021d	88 5d ed	 mov	 BYTE PTR __k$[ebp+13], bl
  00220	eb 48		 jmp	 SHORT $LN1@LoadFloat_@2
$LN84@LoadFloat_@2:
  00222	c6 45 ec ed	 mov	 BYTE PTR __k$[ebp+12], -19 ; ffffffedH
  00226	eb 42		 jmp	 SHORT $LN1@LoadFloat_@2
$LN85@LoadFloat_@2:
  00228	c6 45 eb ea	 mov	 BYTE PTR __k$[ebp+11], -22 ; ffffffeaH
  0022c	eb 3c		 jmp	 SHORT $LN1@LoadFloat_@2
$LN86@LoadFloat_@2:
  0022e	88 4d ea	 mov	 BYTE PTR __k$[ebp+10], cl
  00231	eb 37		 jmp	 SHORT $LN1@LoadFloat_@2
$LN87@LoadFloat_@2:
  00233	88 5d e9	 mov	 BYTE PTR __k$[ebp+9], bl
  00236	eb 32		 jmp	 SHORT $LN1@LoadFloat_@2
$LN88@LoadFloat_@2:
  00238	c6 45 e8 ed	 mov	 BYTE PTR __k$[ebp+8], -19 ; ffffffedH
  0023c	eb 2c		 jmp	 SHORT $LN1@LoadFloat_@2
$LN89@LoadFloat_@2:
  0023e	c6 45 e7 ea	 mov	 BYTE PTR __k$[ebp+7], -22 ; ffffffeaH
  00242	eb 26		 jmp	 SHORT $LN1@LoadFloat_@2
$LN90@LoadFloat_@2:
  00244	88 4d e6	 mov	 BYTE PTR __k$[ebp+6], cl
  00247	eb 21		 jmp	 SHORT $LN1@LoadFloat_@2
$LN91@LoadFloat_@2:
  00249	88 5d e5	 mov	 BYTE PTR __k$[ebp+5], bl
  0024c	eb 1c		 jmp	 SHORT $LN1@LoadFloat_@2
$LN92@LoadFloat_@2:
  0024e	c6 45 e4 ed	 mov	 BYTE PTR __k$[ebp+4], -19 ; ffffffedH
  00252	eb 16		 jmp	 SHORT $LN1@LoadFloat_@2
$LN93@LoadFloat_@2:
  00254	c6 45 e3 ea	 mov	 BYTE PTR __k$[ebp+3], -22 ; ffffffeaH
  00258	eb 10		 jmp	 SHORT $LN1@LoadFloat_@2
$LN94@LoadFloat_@2:
  0025a	c6 45 e2 eb	 mov	 BYTE PTR __k$[ebp+2], -21 ; ffffffebH
  0025e	eb 0a		 jmp	 SHORT $LN1@LoadFloat_@2
$LN95@LoadFloat_@2:
  00260	c6 45 e1 ec	 mov	 BYTE PTR __k$[ebp+1], -20 ; ffffffecH
  00264	eb 04		 jmp	 SHORT $LN1@LoadFloat_@2
$LN96@LoadFloat_@2:
  00266	c6 45 e0 ed	 mov	 BYTE PTR __k$[ebp], -19	; ffffffedH
$LN1@LoadFloat_@2:
  0026a	6a 05		 push	 5
  0026c	8d 45 e0	 lea	 eax, DWORD PTR __k$[ebp]
  0026f	c6 45 f7 00	 mov	 BYTE PTR __k$[ebp+23], 0
  00273	5a		 pop	 edx
$LL104@LoadFloat_@2:
  00274	81 30 ed ec eb
	ea		 xor	 DWORD PTR [eax], -353637139 ; eaebecedH
  0027a	83 c0 04	 add	 eax, 4
  0027d	4a		 dec	 edx
  0027e	75 f4		 jne	 SHORT $LL104@LoadFloat_@2
  00280	6a 14		 push	 20			; 00000014H
  00282	58		 pop	 eax
$LL101@LoadFloat_@2:
  00283	8b c8		 mov	 ecx, eax
  00285	81 e1 03 00 00
	80		 and	 ecx, -2147483645	; 80000003H
  0028b	79 05		 jns	 SHORT $LN111@LoadFloat_@2
  0028d	49		 dec	 ecx
  0028e	83 c9 fc	 or	 ecx, -4			; fffffffcH
  00291	41		 inc	 ecx
$LN111@LoadFloat_@2:
  00292	b2 ed		 mov	 dl, -19			; ffffffedH
  00294	2a d1		 sub	 dl, cl
  00296	30 54 05 e0	 xor	 BYTE PTR __k$[ebp+eax], dl
  0029a	40		 inc	 eax
  0029b	83 f8 17	 cmp	 eax, 23			; 00000017H
  0029e	7c e3		 jl	 SHORT $LL101@LoadFloat_@2

; 137  : 		return LoadFloat(_k, f);

  002a0	f3 0f 10 45 0c	 movss	 xmm0, DWORD PTR _f$[ebp]
  002a5	51		 push	 ecx
  002a6	8d 45 e0	 lea	 eax, DWORD PTR __k$[ebp]
  002a9	f3 0f 11 04 24	 movss	 DWORD PTR [esp], xmm0
  002ae	50		 push	 eax
  002af	8b ce		 mov	 ecx, esi
  002b1	ff 15 00 00 00
	00		 call	 DWORD PTR __imp_?LoadFloat@ioINILoader@@QAEMPBDM@Z

; 138  : 	}

  002b7	8b 4d fc	 mov	 ecx, DWORD PTR __$ArrayPad$[ebp]
  002ba	5e		 pop	 esi
  002bb	33 cd		 xor	 ecx, ebp
  002bd	5b		 pop	 ebx
  002be	e8 00 00 00 00	 call	 @__security_check_cookie@4
  002c3	c9		 leave
  002c4	c2 08 00	 ret	 8
??$LoadFloat_e@$0BI@@ioINILoader@@QAEMAAY0BI@$$CBDM@Z ENDP ; ioINILoader::LoadFloat_e<24>
_TEXT	ENDS
PUBLIC	__$ArrayPad$
PUBLIC	??$LoadFloat_e@$0BE@@ioINILoader@@QAEMAAY0BE@$$CBDM@Z ; ioINILoader::LoadFloat_e<20>
; Function compile flags: /Ogsp
;	COMDAT ??$LoadFloat_e@$0BE@@ioINILoader@@QAEMAAY0BE@$$CBDM@Z
_TEXT	SEGMENT
__k$ = -28						; size = 20
__$ArrayPad$ = -4					; size = 4
_k$ = 8							; size = 4
_f$ = 12						; size = 4
??$LoadFloat_e@$0BE@@ioINILoader@@QAEMAAY0BE@$$CBDM@Z PROC ; ioINILoader::LoadFloat_e<20>, COMDAT
; _this$ = ecx

; 135  : 	{

  00000	55		 push	 ebp
  00001	8b ec		 mov	 ebp, esp
  00003	83 ec 1c	 sub	 esp, 28			; 0000001cH
  00006	a1 00 00 00 00	 mov	 eax, DWORD PTR ___security_cookie
  0000b	33 c5		 xor	 eax, ebp
  0000d	89 45 fc	 mov	 DWORD PTR __$ArrayPad$[ebp], eax
  00010	8b 45 08	 mov	 eax, DWORD PTR _k$[ebp]

; 136  : 		_ENCSTR(k, _k);

  00013	8a 10		 mov	 dl, BYTE PTR [eax]
  00015	53		 push	 ebx
  00016	56		 push	 esi
  00017	8b f1		 mov	 esi, ecx
  00019	84 d2		 test	 dl, dl
  0001b	0f 84 dd 01 00
	00		 je	 $LN96@LoadFloat_@3
  00021	80 f2 ed	 xor	 dl, -19			; ffffffedH
  00024	88 55 e4	 mov	 BYTE PTR __k$[ebp], dl
  00027	8a 50 01	 mov	 dl, BYTE PTR [eax+1]
  0002a	84 d2		 test	 dl, dl
  0002c	0f 84 c6 01 00
	00		 je	 $LN95@LoadFloat_@3
  00032	b3 ec		 mov	 bl, -20			; ffffffecH
  00034	32 d3		 xor	 dl, bl
  00036	88 55 e5	 mov	 BYTE PTR __k$[ebp+1], dl
  00039	8a 50 02	 mov	 dl, BYTE PTR [eax+2]
  0003c	84 d2		 test	 dl, dl
  0003e	0f 84 ae 01 00
	00		 je	 $LN94@LoadFloat_@3
  00044	b1 eb		 mov	 cl, -21			; ffffffebH
  00046	32 d1		 xor	 dl, cl
  00048	88 55 e6	 mov	 BYTE PTR __k$[ebp+2], dl
  0004b	8a 50 03	 mov	 dl, BYTE PTR [eax+3]
  0004e	84 d2		 test	 dl, dl
  00050	0f 84 96 01 00
	00		 je	 $LN93@LoadFloat_@3
  00056	80 f2 ea	 xor	 dl, -22			; ffffffeaH
  00059	88 55 e7	 mov	 BYTE PTR __k$[ebp+3], dl
  0005c	8a 50 04	 mov	 dl, BYTE PTR [eax+4]
  0005f	84 d2		 test	 dl, dl
  00061	0f 84 7f 01 00
	00		 je	 $LN92@LoadFloat_@3
  00067	80 f2 ed	 xor	 dl, -19			; ffffffedH
  0006a	88 55 e8	 mov	 BYTE PTR __k$[ebp+4], dl
  0006d	8a 50 05	 mov	 dl, BYTE PTR [eax+5]
  00070	84 d2		 test	 dl, dl
  00072	0f 84 69 01 00
	00		 je	 $LN91@LoadFloat_@3
  00078	32 d3		 xor	 dl, bl
  0007a	88 55 e9	 mov	 BYTE PTR __k$[ebp+5], dl
  0007d	8a 50 06	 mov	 dl, BYTE PTR [eax+6]
  00080	84 d2		 test	 dl, dl
  00082	0f 84 54 01 00
	00		 je	 $LN90@LoadFloat_@3
  00088	32 d1		 xor	 dl, cl
  0008a	88 55 ea	 mov	 BYTE PTR __k$[ebp+6], dl
  0008d	8a 50 07	 mov	 dl, BYTE PTR [eax+7]
  00090	84 d2		 test	 dl, dl
  00092	0f 84 3e 01 00
	00		 je	 $LN89@LoadFloat_@3
  00098	80 f2 ea	 xor	 dl, -22			; ffffffeaH
  0009b	88 55 eb	 mov	 BYTE PTR __k$[ebp+7], dl
  0009e	8a 50 08	 mov	 dl, BYTE PTR [eax+8]
  000a1	84 d2		 test	 dl, dl
  000a3	0f 84 27 01 00
	00		 je	 $LN88@LoadFloat_@3
  000a9	80 f2 ed	 xor	 dl, -19			; ffffffedH
  000ac	88 55 ec	 mov	 BYTE PTR __k$[ebp+8], dl
  000af	8a 50 09	 mov	 dl, BYTE PTR [eax+9]
  000b2	84 d2		 test	 dl, dl
  000b4	0f 84 11 01 00
	00		 je	 $LN87@LoadFloat_@3
  000ba	32 d3		 xor	 dl, bl
  000bc	88 55 ed	 mov	 BYTE PTR __k$[ebp+9], dl
  000bf	8a 50 0a	 mov	 dl, BYTE PTR [eax+10]
  000c2	84 d2		 test	 dl, dl
  000c4	0f 84 fc 00 00
	00		 je	 $LN86@LoadFloat_@3
  000ca	32 d1		 xor	 dl, cl
  000cc	88 55 ee	 mov	 BYTE PTR __k$[ebp+10], dl
  000cf	8a 50 0b	 mov	 dl, BYTE PTR [eax+11]
  000d2	84 d2		 test	 dl, dl
  000d4	0f 84 e6 00 00
	00		 je	 $LN85@LoadFloat_@3
  000da	80 f2 ea	 xor	 dl, -22			; ffffffeaH
  000dd	88 55 ef	 mov	 BYTE PTR __k$[ebp+11], dl
  000e0	8a 50 0c	 mov	 dl, BYTE PTR [eax+12]
  000e3	84 d2		 test	 dl, dl
  000e5	0f 84 cf 00 00
	00		 je	 $LN84@LoadFloat_@3
  000eb	80 f2 ed	 xor	 dl, -19			; ffffffedH
  000ee	88 55 f0	 mov	 BYTE PTR __k$[ebp+12], dl
  000f1	8a 50 0d	 mov	 dl, BYTE PTR [eax+13]
  000f4	84 d2		 test	 dl, dl
  000f6	0f 84 b9 00 00
	00		 je	 $LN83@LoadFloat_@3
  000fc	32 d3		 xor	 dl, bl
  000fe	88 55 f1	 mov	 BYTE PTR __k$[ebp+13], dl
  00101	8a 50 0e	 mov	 dl, BYTE PTR [eax+14]
  00104	84 d2		 test	 dl, dl
  00106	0f 84 a4 00 00
	00		 je	 $LN82@LoadFloat_@3
  0010c	32 d1		 xor	 dl, cl
  0010e	88 55 f2	 mov	 BYTE PTR __k$[ebp+14], dl
  00111	8a 50 0f	 mov	 dl, BYTE PTR [eax+15]
  00114	84 d2		 test	 dl, dl
  00116	0f 84 8e 00 00
	00		 je	 $LN81@LoadFloat_@3
  0011c	80 f2 ea	 xor	 dl, -22			; ffffffeaH
  0011f	88 55 f3	 mov	 BYTE PTR __k$[ebp+15], dl
  00122	8a 50 10	 mov	 dl, BYTE PTR [eax+16]
  00125	84 d2		 test	 dl, dl
  00127	74 7b		 je	 SHORT $LN80@LoadFloat_@3
  00129	80 f2 ed	 xor	 dl, -19			; ffffffedH
  0012c	88 55 f4	 mov	 BYTE PTR __k$[ebp+16], dl
  0012f	8a 50 11	 mov	 dl, BYTE PTR [eax+17]
  00132	84 d2		 test	 dl, dl
  00134	74 69		 je	 SHORT $LN79@LoadFloat_@3
  00136	32 d3		 xor	 dl, bl
  00138	88 55 f5	 mov	 BYTE PTR __k$[ebp+17], dl
  0013b	8a 50 12	 mov	 dl, BYTE PTR [eax+18]
  0013e	84 d2		 test	 dl, dl
  00140	74 58		 je	 SHORT $LN78@LoadFloat_@3
  00142	32 d1		 xor	 dl, cl
  00144	80 78 13 00	 cmp	 BYTE PTR [eax+19], 0
  00148	88 55 f6	 mov	 BYTE PTR __k$[ebp+18], dl
  0014b	0f 84 b1 00 00
	00		 je	 $LN1@LoadFloat_@3
  00151	8a 50 14	 mov	 dl, BYTE PTR [eax+20]
  00154	84 d2		 test	 dl, dl
  00156	74 3c		 je	 SHORT $LN76@LoadFloat_@3
  00158	80 f2 ed	 xor	 dl, -19			; ffffffedH
  0015b	88 55 f8	 mov	 BYTE PTR __k$[ebp+20], dl
  0015e	8a 50 15	 mov	 dl, BYTE PTR [eax+21]
  00161	84 d2		 test	 dl, dl
  00163	74 2a		 je	 SHORT $LN75@LoadFloat_@3
  00165	32 d3		 xor	 dl, bl
  00167	88 55 f9	 mov	 BYTE PTR __k$[ebp+21], dl
  0016a	8a 50 16	 mov	 dl, BYTE PTR [eax+22]
  0016d	84 d2		 test	 dl, dl
  0016f	74 19		 je	 SHORT $LN74@LoadFloat_@3
  00171	8a 40 17	 mov	 al, BYTE PTR [eax+23]
  00174	32 d1		 xor	 dl, cl
  00176	88 55 fa	 mov	 BYTE PTR __k$[ebp+22], dl
  00179	84 c0		 test	 al, al
  0017b	74 07		 je	 SHORT $LN73@LoadFloat_@3
  0017d	34 ea		 xor	 al, -22			; ffffffeaH
  0017f	88 45 fb	 mov	 BYTE PTR __k$[ebp+23], al
  00182	eb 7e		 jmp	 SHORT $LN1@LoadFloat_@3
$LN73@LoadFloat_@3:
  00184	c6 45 fb ea	 mov	 BYTE PTR __k$[ebp+23], -22 ; ffffffeaH
  00188	eb 78		 jmp	 SHORT $LN1@LoadFloat_@3
$LN74@LoadFloat_@3:
  0018a	88 4d fa	 mov	 BYTE PTR __k$[ebp+22], cl
  0018d	eb 73		 jmp	 SHORT $LN1@LoadFloat_@3
$LN75@LoadFloat_@3:
  0018f	88 5d f9	 mov	 BYTE PTR __k$[ebp+21], bl
  00192	eb 6e		 jmp	 SHORT $LN1@LoadFloat_@3
$LN76@LoadFloat_@3:
  00194	c6 45 f8 ed	 mov	 BYTE PTR __k$[ebp+20], -19 ; ffffffedH
  00198	eb 68		 jmp	 SHORT $LN1@LoadFloat_@3
$LN78@LoadFloat_@3:
  0019a	88 4d f6	 mov	 BYTE PTR __k$[ebp+18], cl
  0019d	eb 63		 jmp	 SHORT $LN1@LoadFloat_@3
$LN79@LoadFloat_@3:
  0019f	88 5d f5	 mov	 BYTE PTR __k$[ebp+17], bl
  001a2	eb 5e		 jmp	 SHORT $LN1@LoadFloat_@3
$LN80@LoadFloat_@3:
  001a4	c6 45 f4 ed	 mov	 BYTE PTR __k$[ebp+16], -19 ; ffffffedH
  001a8	eb 58		 jmp	 SHORT $LN1@LoadFloat_@3
$LN81@LoadFloat_@3:
  001aa	c6 45 f3 ea	 mov	 BYTE PTR __k$[ebp+15], -22 ; ffffffeaH
  001ae	eb 52		 jmp	 SHORT $LN1@LoadFloat_@3
$LN82@LoadFloat_@3:
  001b0	88 4d f2	 mov	 BYTE PTR __k$[ebp+14], cl
  001b3	eb 4d		 jmp	 SHORT $LN1@LoadFloat_@3
$LN83@LoadFloat_@3:
  001b5	88 5d f1	 mov	 BYTE PTR __k$[ebp+13], bl
  001b8	eb 48		 jmp	 SHORT $LN1@LoadFloat_@3
$LN84@LoadFloat_@3:
  001ba	c6 45 f0 ed	 mov	 BYTE PTR __k$[ebp+12], -19 ; ffffffedH
  001be	eb 42		 jmp	 SHORT $LN1@LoadFloat_@3
$LN85@LoadFloat_@3:
  001c0	c6 45 ef ea	 mov	 BYTE PTR __k$[ebp+11], -22 ; ffffffeaH
  001c4	eb 3c		 jmp	 SHORT $LN1@LoadFloat_@3
$LN86@LoadFloat_@3:
  001c6	88 4d ee	 mov	 BYTE PTR __k$[ebp+10], cl
  001c9	eb 37		 jmp	 SHORT $LN1@LoadFloat_@3
$LN87@LoadFloat_@3:
  001cb	88 5d ed	 mov	 BYTE PTR __k$[ebp+9], bl
  001ce	eb 32		 jmp	 SHORT $LN1@LoadFloat_@3
$LN88@LoadFloat_@3:
  001d0	c6 45 ec ed	 mov	 BYTE PTR __k$[ebp+8], -19 ; ffffffedH
  001d4	eb 2c		 jmp	 SHORT $LN1@LoadFloat_@3
$LN89@LoadFloat_@3:
  001d6	c6 45 eb ea	 mov	 BYTE PTR __k$[ebp+7], -22 ; ffffffeaH
  001da	eb 26		 jmp	 SHORT $LN1@LoadFloat_@3
$LN90@LoadFloat_@3:
  001dc	88 4d ea	 mov	 BYTE PTR __k$[ebp+6], cl
  001df	eb 21		 jmp	 SHORT $LN1@LoadFloat_@3
$LN91@LoadFloat_@3:
  001e1	88 5d e9	 mov	 BYTE PTR __k$[ebp+5], bl
  001e4	eb 1c		 jmp	 SHORT $LN1@LoadFloat_@3
$LN92@LoadFloat_@3:
  001e6	c6 45 e8 ed	 mov	 BYTE PTR __k$[ebp+4], -19 ; ffffffedH
  001ea	eb 16		 jmp	 SHORT $LN1@LoadFloat_@3
$LN93@LoadFloat_@3:
  001ec	c6 45 e7 ea	 mov	 BYTE PTR __k$[ebp+3], -22 ; ffffffeaH
  001f0	eb 10		 jmp	 SHORT $LN1@LoadFloat_@3
$LN94@LoadFloat_@3:
  001f2	c6 45 e6 eb	 mov	 BYTE PTR __k$[ebp+2], -21 ; ffffffebH
  001f6	eb 0a		 jmp	 SHORT $LN1@LoadFloat_@3
$LN95@LoadFloat_@3:
  001f8	c6 45 e5 ec	 mov	 BYTE PTR __k$[ebp+1], -20 ; ffffffecH
  001fc	eb 04		 jmp	 SHORT $LN1@LoadFloat_@3
$LN96@LoadFloat_@3:
  001fe	c6 45 e4 ed	 mov	 BYTE PTR __k$[ebp], -19	; ffffffedH
$LN1@LoadFloat_@3:
  00202	6a 04		 push	 4
  00204	8d 45 e4	 lea	 eax, DWORD PTR __k$[ebp]
  00207	c6 45 f7 00	 mov	 BYTE PTR __k$[ebp+19], 0
  0020b	5a		 pop	 edx
$LL104@LoadFloat_@3:
  0020c	81 30 ed ec eb
	ea		 xor	 DWORD PTR [eax], -353637139 ; eaebecedH
  00212	83 c0 04	 add	 eax, 4
  00215	4a		 dec	 edx
  00216	75 f4		 jne	 SHORT $LL104@LoadFloat_@3
  00218	6a 10		 push	 16			; 00000010H
  0021a	58		 pop	 eax
$LL101@LoadFloat_@3:
  0021b	8b c8		 mov	 ecx, eax
  0021d	81 e1 03 00 00
	80		 and	 ecx, -2147483645	; 80000003H
  00223	79 05		 jns	 SHORT $LN111@LoadFloat_@3
  00225	49		 dec	 ecx
  00226	83 c9 fc	 or	 ecx, -4			; fffffffcH
  00229	41		 inc	 ecx
$LN111@LoadFloat_@3:
  0022a	b2 ed		 mov	 dl, -19			; ffffffedH
  0022c	2a d1		 sub	 dl, cl
  0022e	30 54 05 e4	 xor	 BYTE PTR __k$[ebp+eax], dl
  00232	40		 inc	 eax
  00233	83 f8 13	 cmp	 eax, 19			; 00000013H
  00236	7c e3		 jl	 SHORT $LL101@LoadFloat_@3

; 137  : 		return LoadFloat(_k, f);

  00238	f3 0f 10 45 0c	 movss	 xmm0, DWORD PTR _f$[ebp]
  0023d	51		 push	 ecx
  0023e	8d 45 e4	 lea	 eax, DWORD PTR __k$[ebp]
  00241	f3 0f 11 04 24	 movss	 DWORD PTR [esp], xmm0
  00246	50		 push	 eax
  00247	8b ce		 mov	 ecx, esi
  00249	ff 15 00 00 00
	00		 call	 DWORD PTR __imp_?LoadFloat@ioINILoader@@QAEMPBDM@Z

; 138  : 	}

  0024f	8b 4d fc	 mov	 ecx, DWORD PTR __$ArrayPad$[ebp]
  00252	5e		 pop	 esi
  00253	33 cd		 xor	 ecx, ebp
  00255	5b		 pop	 ebx
  00256	e8 00 00 00 00	 call	 @__security_check_cookie@4
  0025b	c9		 leave
  0025c	c2 08 00	 ret	 8
??$LoadFloat_e@$0BE@@ioINILoader@@QAEMAAY0BE@$$CBDM@Z ENDP ; ioINILoader::LoadFloat_e<20>
_TEXT	ENDS
PUBLIC	_this$GSCopy$
PUBLIC	__$ArrayPad$
PUBLIC	??$LoadString_e@$0N@@ioINILoader@@QAEXAAY0N@$$CBDAAY00$$CBDPADH@Z ; ioINILoader::LoadString_e<13>
EXTRN	__imp_?LoadStringA@ioINILoader@@QAEXPBD0PADH@Z:PROC
; Function compile flags: /Ogsp
;	COMDAT ??$LoadString_e@$0N@@ioINILoader@@QAEXAAY0N@$$CBDAAY00$$CBDPADH@Z
_TEXT	SEGMENT
_this$GSCopy$ = -28					; size = 4
__k$ = -24						; size = 13
__$ArrayPad$ = -4					; size = 4
_k$ = 8							; size = 4
_d$ = 12						; size = 4
_b$ = 16						; size = 4
_i$ = 20						; size = 4
??$LoadString_e@$0N@@ioINILoader@@QAEXAAY0N@$$CBDAAY00$$CBDPADH@Z PROC ; ioINILoader::LoadString_e<13>, COMDAT
; _this$ = ecx

; 161  : 	{

  00000	55		 push	 ebp
  00001	8b ec		 mov	 ebp, esp
  00003	83 ec 1c	 sub	 esp, 28			; 0000001cH
  00006	a1 00 00 00 00	 mov	 eax, DWORD PTR ___security_cookie
  0000b	33 c5		 xor	 eax, ebp
  0000d	89 45 fc	 mov	 DWORD PTR __$ArrayPad$[ebp], eax
  00010	8b 45 08	 mov	 eax, DWORD PTR _k$[ebp]

; 162  : 		_ENCSTR(k, _k);

  00013	8a 10		 mov	 dl, BYTE PTR [eax]
  00015	56		 push	 esi
  00016	8b 75 0c	 mov	 esi, DWORD PTR _d$[ebp]
  00019	57		 push	 edi
  0001a	8b 7d 10	 mov	 edi, DWORD PTR _b$[ebp]
  0001d	89 4d e4	 mov	 DWORD PTR _this$GSCopy$[ebp], ecx
  00020	84 d2		 test	 dl, dl
  00022	0f 84 4d 01 00
	00		 je	 $LN96@LoadString
  00028	80 f2 ed	 xor	 dl, -19			; ffffffedH
  0002b	88 55 e8	 mov	 BYTE PTR __k$[ebp], dl
  0002e	8a 50 01	 mov	 dl, BYTE PTR [eax+1]
  00031	84 d2		 test	 dl, dl
  00033	0f 84 36 01 00
	00		 je	 $LN95@LoadString
  00039	b1 ec		 mov	 cl, -20			; ffffffecH
  0003b	32 d1		 xor	 dl, cl
  0003d	88 55 e9	 mov	 BYTE PTR __k$[ebp+1], dl
  00040	8a 50 02	 mov	 dl, BYTE PTR [eax+2]
  00043	84 d2		 test	 dl, dl
  00045	0f 84 1e 01 00
	00		 je	 $LN94@LoadString
  0004b	80 f2 eb	 xor	 dl, -21			; ffffffebH
  0004e	88 55 ea	 mov	 BYTE PTR __k$[ebp+2], dl
  00051	8a 50 03	 mov	 dl, BYTE PTR [eax+3]
  00054	84 d2		 test	 dl, dl
  00056	0f 84 07 01 00
	00		 je	 $LN93@LoadString
  0005c	80 f2 ea	 xor	 dl, -22			; ffffffeaH
  0005f	88 55 eb	 mov	 BYTE PTR __k$[ebp+3], dl
  00062	8a 50 04	 mov	 dl, BYTE PTR [eax+4]
  00065	84 d2		 test	 dl, dl
  00067	0f 84 f0 00 00
	00		 je	 $LN92@LoadString
  0006d	80 f2 ed	 xor	 dl, -19			; ffffffedH
  00070	88 55 ec	 mov	 BYTE PTR __k$[ebp+4], dl
  00073	8a 50 05	 mov	 dl, BYTE PTR [eax+5]
  00076	84 d2		 test	 dl, dl
  00078	0f 84 da 00 00
	00		 je	 $LN91@LoadString
  0007e	32 d1		 xor	 dl, cl
  00080	88 55 ed	 mov	 BYTE PTR __k$[ebp+5], dl
  00083	8a 50 06	 mov	 dl, BYTE PTR [eax+6]
  00086	84 d2		 test	 dl, dl
  00088	0f 84 c4 00 00
	00		 je	 $LN90@LoadString
  0008e	80 f2 eb	 xor	 dl, -21			; ffffffebH
  00091	88 55 ee	 mov	 BYTE PTR __k$[ebp+6], dl
  00094	8a 50 07	 mov	 dl, BYTE PTR [eax+7]
  00097	84 d2		 test	 dl, dl
  00099	0f 84 ad 00 00
	00		 je	 $LN89@LoadString
  0009f	80 f2 ea	 xor	 dl, -22			; ffffffeaH
  000a2	88 55 ef	 mov	 BYTE PTR __k$[ebp+7], dl
  000a5	8a 50 08	 mov	 dl, BYTE PTR [eax+8]
  000a8	84 d2		 test	 dl, dl
  000aa	0f 84 96 00 00
	00		 je	 $LN88@LoadString
  000b0	80 f2 ed	 xor	 dl, -19			; ffffffedH
  000b3	88 55 f0	 mov	 BYTE PTR __k$[ebp+8], dl
  000b6	8a 50 09	 mov	 dl, BYTE PTR [eax+9]
  000b9	84 d2		 test	 dl, dl
  000bb	0f 84 80 00 00
	00		 je	 $LN87@LoadString
  000c1	32 d1		 xor	 dl, cl
  000c3	88 55 f1	 mov	 BYTE PTR __k$[ebp+9], dl
  000c6	8a 50 0a	 mov	 dl, BYTE PTR [eax+10]
  000c9	84 d2		 test	 dl, dl
  000cb	74 6e		 je	 SHORT $LN86@LoadString
  000cd	80 f2 eb	 xor	 dl, -21			; ffffffebH
  000d0	88 55 f2	 mov	 BYTE PTR __k$[ebp+10], dl
  000d3	8a 50 0b	 mov	 dl, BYTE PTR [eax+11]
  000d6	84 d2		 test	 dl, dl
  000d8	74 5b		 je	 SHORT $LN85@LoadString
  000da	80 f2 ea	 xor	 dl, -22			; ffffffeaH
  000dd	80 78 0c 00	 cmp	 BYTE PTR [eax+12], 0
  000e1	88 55 f3	 mov	 BYTE PTR __k$[ebp+11], dl
  000e4	0f 84 8f 00 00
	00		 je	 $LN111@LoadString
  000ea	8a 50 0d	 mov	 dl, BYTE PTR [eax+13]
  000ed	84 d2		 test	 dl, dl
  000ef	74 3f		 je	 SHORT $LN83@LoadString
  000f1	32 d1		 xor	 dl, cl
  000f3	88 55 f5	 mov	 BYTE PTR __k$[ebp+13], dl
  000f6	8a 50 0e	 mov	 dl, BYTE PTR [eax+14]
  000f9	84 d2		 test	 dl, dl
  000fb	74 2d		 je	 SHORT $LN82@LoadString
  000fd	80 f2 eb	 xor	 dl, -21			; ffffffebH
  00100	88 55 f6	 mov	 BYTE PTR __k$[ebp+14], dl
  00103	8a 50 0f	 mov	 dl, BYTE PTR [eax+15]
  00106	84 d2		 test	 dl, dl
  00108	74 1a		 je	 SHORT $LN81@LoadString
  0010a	8a 40 10	 mov	 al, BYTE PTR [eax+16]
  0010d	80 f2 ea	 xor	 dl, -22			; ffffffeaH
  00110	88 55 f7	 mov	 BYTE PTR __k$[ebp+15], dl
  00113	84 c0		 test	 al, al
  00115	74 07		 je	 SHORT $LN80@LoadString
  00117	34 ed		 xor	 al, -19			; ffffffedH
  00119	88 45 f8	 mov	 BYTE PTR __k$[ebp+16], al
  0011c	eb 5b		 jmp	 SHORT $LN111@LoadString
$LN80@LoadString:
  0011e	c6 45 f8 ed	 mov	 BYTE PTR __k$[ebp+16], -19 ; ffffffedH
  00122	eb 55		 jmp	 SHORT $LN111@LoadString
$LN81@LoadString:
  00124	c6 45 f7 ea	 mov	 BYTE PTR __k$[ebp+15], -22 ; ffffffeaH
  00128	eb 4f		 jmp	 SHORT $LN111@LoadString
$LN82@LoadString:
  0012a	c6 45 f6 eb	 mov	 BYTE PTR __k$[ebp+14], -21 ; ffffffebH
  0012e	eb 49		 jmp	 SHORT $LN111@LoadString
$LN83@LoadString:
  00130	88 4d f5	 mov	 BYTE PTR __k$[ebp+13], cl
  00133	eb 44		 jmp	 SHORT $LN111@LoadString
$LN85@LoadString:
  00135	c6 45 f3 ea	 mov	 BYTE PTR __k$[ebp+11], -22 ; ffffffeaH
  00139	eb 3e		 jmp	 SHORT $LN111@LoadString
$LN86@LoadString:
  0013b	c6 45 f2 eb	 mov	 BYTE PTR __k$[ebp+10], -21 ; ffffffebH
  0013f	eb 38		 jmp	 SHORT $LN111@LoadString
$LN87@LoadString:
  00141	88 4d f1	 mov	 BYTE PTR __k$[ebp+9], cl
  00144	eb 33		 jmp	 SHORT $LN111@LoadString
$LN88@LoadString:
  00146	c6 45 f0 ed	 mov	 BYTE PTR __k$[ebp+8], -19 ; ffffffedH
  0014a	eb 2d		 jmp	 SHORT $LN111@LoadString
$LN89@LoadString:
  0014c	c6 45 ef ea	 mov	 BYTE PTR __k$[ebp+7], -22 ; ffffffeaH
  00150	eb 27		 jmp	 SHORT $LN111@LoadString
$LN90@LoadString:
  00152	c6 45 ee eb	 mov	 BYTE PTR __k$[ebp+6], -21 ; ffffffebH
  00156	eb 21		 jmp	 SHORT $LN111@LoadString
$LN91@LoadString:
  00158	88 4d ed	 mov	 BYTE PTR __k$[ebp+5], cl
  0015b	eb 1c		 jmp	 SHORT $LN111@LoadString
$LN92@LoadString:
  0015d	c6 45 ec ed	 mov	 BYTE PTR __k$[ebp+4], -19 ; ffffffedH
  00161	eb 16		 jmp	 SHORT $LN111@LoadString
$LN93@LoadString:
  00163	c6 45 eb ea	 mov	 BYTE PTR __k$[ebp+3], -22 ; ffffffeaH
  00167	eb 10		 jmp	 SHORT $LN111@LoadString
$LN94@LoadString:
  00169	c6 45 ea eb	 mov	 BYTE PTR __k$[ebp+2], -21 ; ffffffebH
  0016d	eb 0a		 jmp	 SHORT $LN111@LoadString
$LN95@LoadString:
  0016f	c6 45 e9 ec	 mov	 BYTE PTR __k$[ebp+1], -20 ; ffffffecH
  00173	eb 04		 jmp	 SHORT $LN111@LoadString
$LN96@LoadString:
  00175	c6 45 e8 ed	 mov	 BYTE PTR __k$[ebp], -19	; ffffffedH
$LN111@LoadString:
  00179	6a 03		 push	 3
  0017b	8d 45 e8	 lea	 eax, DWORD PTR __k$[ebp]
  0017e	c6 45 f4 00	 mov	 BYTE PTR __k$[ebp+12], 0
  00182	5a		 pop	 edx
$LL104@LoadString:
  00183	81 30 ed ec eb
	ea		 xor	 DWORD PTR [eax], -353637139 ; eaebecedH
  00189	83 c0 04	 add	 eax, 4
  0018c	4a		 dec	 edx
  0018d	75 f4		 jne	 SHORT $LL104@LoadString

; 163  : 		LoadString(_k, d, b, i);

  0018f	ff 75 14	 push	 DWORD PTR _i$[ebp]
  00192	8b 4d e4	 mov	 ecx, DWORD PTR _this$GSCopy$[ebp]
  00195	57		 push	 edi
  00196	56		 push	 esi
  00197	8d 45 e8	 lea	 eax, DWORD PTR __k$[ebp]
  0019a	50		 push	 eax
  0019b	ff 15 00 00 00
	00		 call	 DWORD PTR __imp_?LoadStringA@ioINILoader@@QAEXPBD0PADH@Z

; 164  : 	}

  001a1	8b 4d fc	 mov	 ecx, DWORD PTR __$ArrayPad$[ebp]
  001a4	5f		 pop	 edi
  001a5	33 cd		 xor	 ecx, ebp
  001a7	5e		 pop	 esi
  001a8	e8 00 00 00 00	 call	 @__security_check_cookie@4
  001ad	c9		 leave
  001ae	c2 10 00	 ret	 16			; 00000010H
??$LoadString_e@$0N@@ioINILoader@@QAEXAAY0N@$$CBDAAY00$$CBDPADH@Z ENDP ; ioINILoader::LoadString_e<13>
_TEXT	ENDS
PUBLIC	_this$GSCopy$
PUBLIC	__$ArrayPad$
PUBLIC	??$LoadString_e@$0BF@@ioINILoader@@QAEXAAY0BF@$$CBDAAY00$$CBDPADH@Z ; ioINILoader::LoadString_e<21>
; Function compile flags: /Ogsp
;	COMDAT ??$LoadString_e@$0BF@@ioINILoader@@QAEXAAY0BF@$$CBDAAY00$$CBDPADH@Z
_TEXT	SEGMENT
_this$GSCopy$ = -36					; size = 4
__k$ = -32						; size = 21
__$ArrayPad$ = -4					; size = 4
_k$ = 8							; size = 4
_d$ = 12						; size = 4
_b$ = 16						; size = 4
_i$ = 20						; size = 4
??$LoadString_e@$0BF@@ioINILoader@@QAEXAAY0BF@$$CBDAAY00$$CBDPADH@Z PROC ; ioINILoader::LoadString_e<21>, COMDAT
; _this$ = ecx

; 161  : 	{

  00000	55		 push	 ebp
  00001	8b ec		 mov	 ebp, esp
  00003	83 ec 24	 sub	 esp, 36			; 00000024H
  00006	a1 00 00 00 00	 mov	 eax, DWORD PTR ___security_cookie
  0000b	33 c5		 xor	 eax, ebp
  0000d	89 45 fc	 mov	 DWORD PTR __$ArrayPad$[ebp], eax
  00010	8b 45 08	 mov	 eax, DWORD PTR _k$[ebp]

; 162  : 		_ENCSTR(k, _k);

  00013	8a 10		 mov	 dl, BYTE PTR [eax]
  00015	53		 push	 ebx
  00016	56		 push	 esi
  00017	8b 75 0c	 mov	 esi, DWORD PTR _d$[ebp]
  0001a	57		 push	 edi
  0001b	8b 7d 10	 mov	 edi, DWORD PTR _b$[ebp]
  0001e	89 4d dc	 mov	 DWORD PTR _this$GSCopy$[ebp], ecx
  00021	84 d2		 test	 dl, dl
  00023	0f 84 f7 01 00
	00		 je	 $LN96@LoadString@2
  00029	80 f2 ed	 xor	 dl, -19			; ffffffedH
  0002c	88 55 e0	 mov	 BYTE PTR __k$[ebp], dl
  0002f	8a 50 01	 mov	 dl, BYTE PTR [eax+1]
  00032	84 d2		 test	 dl, dl
  00034	0f 84 e0 01 00
	00		 je	 $LN95@LoadString@2
  0003a	b1 ec		 mov	 cl, -20			; ffffffecH
  0003c	32 d1		 xor	 dl, cl
  0003e	88 55 e1	 mov	 BYTE PTR __k$[ebp+1], dl
  00041	8a 50 02	 mov	 dl, BYTE PTR [eax+2]
  00044	84 d2		 test	 dl, dl
  00046	0f 84 c8 01 00
	00		 je	 $LN94@LoadString@2
  0004c	b3 eb		 mov	 bl, -21			; ffffffebH
  0004e	32 d3		 xor	 dl, bl
  00050	88 55 e2	 mov	 BYTE PTR __k$[ebp+2], dl
  00053	8a 50 03	 mov	 dl, BYTE PTR [eax+3]
  00056	84 d2		 test	 dl, dl
  00058	0f 84 b0 01 00
	00		 je	 $LN93@LoadString@2
  0005e	80 f2 ea	 xor	 dl, -22			; ffffffeaH
  00061	88 55 e3	 mov	 BYTE PTR __k$[ebp+3], dl
  00064	8a 50 04	 mov	 dl, BYTE PTR [eax+4]
  00067	84 d2		 test	 dl, dl
  00069	0f 84 99 01 00
	00		 je	 $LN92@LoadString@2
  0006f	80 f2 ed	 xor	 dl, -19			; ffffffedH
  00072	88 55 e4	 mov	 BYTE PTR __k$[ebp+4], dl
  00075	8a 50 05	 mov	 dl, BYTE PTR [eax+5]
  00078	84 d2		 test	 dl, dl
  0007a	0f 84 83 01 00
	00		 je	 $LN91@LoadString@2
  00080	32 d1		 xor	 dl, cl
  00082	88 55 e5	 mov	 BYTE PTR __k$[ebp+5], dl
  00085	8a 50 06	 mov	 dl, BYTE PTR [eax+6]
  00088	84 d2		 test	 dl, dl
  0008a	0f 84 6e 01 00
	00		 je	 $LN90@LoadString@2
  00090	32 d3		 xor	 dl, bl
  00092	88 55 e6	 mov	 BYTE PTR __k$[ebp+6], dl
  00095	8a 50 07	 mov	 dl, BYTE PTR [eax+7]
  00098	84 d2		 test	 dl, dl
  0009a	0f 84 58 01 00
	00		 je	 $LN89@LoadString@2
  000a0	80 f2 ea	 xor	 dl, -22			; ffffffeaH
  000a3	88 55 e7	 mov	 BYTE PTR __k$[ebp+7], dl
  000a6	8a 50 08	 mov	 dl, BYTE PTR [eax+8]
  000a9	84 d2		 test	 dl, dl
  000ab	0f 84 41 01 00
	00		 je	 $LN88@LoadString@2
  000b1	80 f2 ed	 xor	 dl, -19			; ffffffedH
  000b4	88 55 e8	 mov	 BYTE PTR __k$[ebp+8], dl
  000b7	8a 50 09	 mov	 dl, BYTE PTR [eax+9]
  000ba	84 d2		 test	 dl, dl
  000bc	0f 84 2b 01 00
	00		 je	 $LN87@LoadString@2
  000c2	32 d1		 xor	 dl, cl
  000c4	88 55 e9	 mov	 BYTE PTR __k$[ebp+9], dl
  000c7	8a 50 0a	 mov	 dl, BYTE PTR [eax+10]
  000ca	84 d2		 test	 dl, dl
  000cc	0f 84 16 01 00
	00		 je	 $LN86@LoadString@2
  000d2	32 d3		 xor	 dl, bl
  000d4	88 55 ea	 mov	 BYTE PTR __k$[ebp+10], dl
  000d7	8a 50 0b	 mov	 dl, BYTE PTR [eax+11]
  000da	84 d2		 test	 dl, dl
  000dc	0f 84 00 01 00
	00		 je	 $LN85@LoadString@2
  000e2	80 f2 ea	 xor	 dl, -22			; ffffffeaH
  000e5	88 55 eb	 mov	 BYTE PTR __k$[ebp+11], dl
  000e8	8a 50 0c	 mov	 dl, BYTE PTR [eax+12]
  000eb	84 d2		 test	 dl, dl
  000ed	0f 84 e9 00 00
	00		 je	 $LN84@LoadString@2
  000f3	80 f2 ed	 xor	 dl, -19			; ffffffedH
  000f6	88 55 ec	 mov	 BYTE PTR __k$[ebp+12], dl
  000f9	8a 50 0d	 mov	 dl, BYTE PTR [eax+13]
  000fc	84 d2		 test	 dl, dl
  000fe	0f 84 d3 00 00
	00		 je	 $LN83@LoadString@2
  00104	32 d1		 xor	 dl, cl
  00106	88 55 ed	 mov	 BYTE PTR __k$[ebp+13], dl
  00109	8a 50 0e	 mov	 dl, BYTE PTR [eax+14]
  0010c	84 d2		 test	 dl, dl
  0010e	0f 84 be 00 00
	00		 je	 $LN82@LoadString@2
  00114	32 d3		 xor	 dl, bl
  00116	88 55 ee	 mov	 BYTE PTR __k$[ebp+14], dl
  00119	8a 50 0f	 mov	 dl, BYTE PTR [eax+15]
  0011c	84 d2		 test	 dl, dl
  0011e	0f 84 a8 00 00
	00		 je	 $LN81@LoadString@2
  00124	80 f2 ea	 xor	 dl, -22			; ffffffeaH
  00127	88 55 ef	 mov	 BYTE PTR __k$[ebp+15], dl
  0012a	8a 50 10	 mov	 dl, BYTE PTR [eax+16]
  0012d	84 d2		 test	 dl, dl
  0012f	0f 84 91 00 00
	00		 je	 $LN80@LoadString@2
  00135	80 f2 ed	 xor	 dl, -19			; ffffffedH
  00138	88 55 f0	 mov	 BYTE PTR __k$[ebp+16], dl
  0013b	8a 50 11	 mov	 dl, BYTE PTR [eax+17]
  0013e	84 d2		 test	 dl, dl
  00140	74 7f		 je	 SHORT $LN79@LoadString@2
  00142	32 d1		 xor	 dl, cl
  00144	88 55 f1	 mov	 BYTE PTR __k$[ebp+17], dl
  00147	8a 50 12	 mov	 dl, BYTE PTR [eax+18]
  0014a	84 d2		 test	 dl, dl
  0014c	74 6e		 je	 SHORT $LN78@LoadString@2
  0014e	32 d3		 xor	 dl, bl
  00150	88 55 f2	 mov	 BYTE PTR __k$[ebp+18], dl
  00153	8a 50 13	 mov	 dl, BYTE PTR [eax+19]
  00156	84 d2		 test	 dl, dl
  00158	74 5c		 je	 SHORT $LN77@LoadString@2
  0015a	80 f2 ea	 xor	 dl, -22			; ffffffeaH
  0015d	80 78 14 00	 cmp	 BYTE PTR [eax+20], 0
  00161	88 55 f3	 mov	 BYTE PTR __k$[ebp+19], dl
  00164	0f 84 ba 00 00
	00		 je	 $LN111@LoadString@2
  0016a	8a 50 15	 mov	 dl, BYTE PTR [eax+21]
  0016d	84 d2		 test	 dl, dl
  0016f	74 40		 je	 SHORT $LN75@LoadString@2
  00171	32 d1		 xor	 dl, cl
  00173	88 55 f5	 mov	 BYTE PTR __k$[ebp+21], dl
  00176	8a 50 16	 mov	 dl, BYTE PTR [eax+22]
  00179	84 d2		 test	 dl, dl
  0017b	74 2f		 je	 SHORT $LN74@LoadString@2
  0017d	32 d3		 xor	 dl, bl
  0017f	88 55 f6	 mov	 BYTE PTR __k$[ebp+22], dl
  00182	8a 50 17	 mov	 dl, BYTE PTR [eax+23]
  00185	84 d2		 test	 dl, dl
  00187	74 1d		 je	 SHORT $LN73@LoadString@2
  00189	8a 40 18	 mov	 al, BYTE PTR [eax+24]
  0018c	80 f2 ea	 xor	 dl, -22			; ffffffeaH
  0018f	88 55 f7	 mov	 BYTE PTR __k$[ebp+23], dl
  00192	84 c0		 test	 al, al
  00194	74 0a		 je	 SHORT $LN72@LoadString@2
  00196	34 ed		 xor	 al, -19			; ffffffedH
  00198	88 45 f8	 mov	 BYTE PTR __k$[ebp+24], al
  0019b	e9 84 00 00 00	 jmp	 $LN111@LoadString@2
$LN72@LoadString@2:
  001a0	c6 45 f8 ed	 mov	 BYTE PTR __k$[ebp+24], -19 ; ffffffedH
  001a4	eb 7e		 jmp	 SHORT $LN111@LoadString@2
$LN73@LoadString@2:
  001a6	c6 45 f7 ea	 mov	 BYTE PTR __k$[ebp+23], -22 ; ffffffeaH
  001aa	eb 78		 jmp	 SHORT $LN111@LoadString@2
$LN74@LoadString@2:
  001ac	88 5d f6	 mov	 BYTE PTR __k$[ebp+22], bl
  001af	eb 73		 jmp	 SHORT $LN111@LoadString@2
$LN75@LoadString@2:
  001b1	88 4d f5	 mov	 BYTE PTR __k$[ebp+21], cl
  001b4	eb 6e		 jmp	 SHORT $LN111@LoadString@2
$LN77@LoadString@2:
  001b6	c6 45 f3 ea	 mov	 BYTE PTR __k$[ebp+19], -22 ; ffffffeaH
  001ba	eb 68		 jmp	 SHORT $LN111@LoadString@2
$LN78@LoadString@2:
  001bc	88 5d f2	 mov	 BYTE PTR __k$[ebp+18], bl
  001bf	eb 63		 jmp	 SHORT $LN111@LoadString@2
$LN79@LoadString@2:
  001c1	88 4d f1	 mov	 BYTE PTR __k$[ebp+17], cl
  001c4	eb 5e		 jmp	 SHORT $LN111@LoadString@2
$LN80@LoadString@2:
  001c6	c6 45 f0 ed	 mov	 BYTE PTR __k$[ebp+16], -19 ; ffffffedH
  001ca	eb 58		 jmp	 SHORT $LN111@LoadString@2
$LN81@LoadString@2:
  001cc	c6 45 ef ea	 mov	 BYTE PTR __k$[ebp+15], -22 ; ffffffeaH
  001d0	eb 52		 jmp	 SHORT $LN111@LoadString@2
$LN82@LoadString@2:
  001d2	88 5d ee	 mov	 BYTE PTR __k$[ebp+14], bl
  001d5	eb 4d		 jmp	 SHORT $LN111@LoadString@2
$LN83@LoadString@2:
  001d7	88 4d ed	 mov	 BYTE PTR __k$[ebp+13], cl
  001da	eb 48		 jmp	 SHORT $LN111@LoadString@2
$LN84@LoadString@2:
  001dc	c6 45 ec ed	 mov	 BYTE PTR __k$[ebp+12], -19 ; ffffffedH
  001e0	eb 42		 jmp	 SHORT $LN111@LoadString@2
$LN85@LoadString@2:
  001e2	c6 45 eb ea	 mov	 BYTE PTR __k$[ebp+11], -22 ; ffffffeaH
  001e6	eb 3c		 jmp	 SHORT $LN111@LoadString@2
$LN86@LoadString@2:
  001e8	88 5d ea	 mov	 BYTE PTR __k$[ebp+10], bl
  001eb	eb 37		 jmp	 SHORT $LN111@LoadString@2
$LN87@LoadString@2:
  001ed	88 4d e9	 mov	 BYTE PTR __k$[ebp+9], cl
  001f0	eb 32		 jmp	 SHORT $LN111@LoadString@2
$LN88@LoadString@2:
  001f2	c6 45 e8 ed	 mov	 BYTE PTR __k$[ebp+8], -19 ; ffffffedH
  001f6	eb 2c		 jmp	 SHORT $LN111@LoadString@2
$LN89@LoadString@2:
  001f8	c6 45 e7 ea	 mov	 BYTE PTR __k$[ebp+7], -22 ; ffffffeaH
  001fc	eb 26		 jmp	 SHORT $LN111@LoadString@2
$LN90@LoadString@2:
  001fe	88 5d e6	 mov	 BYTE PTR __k$[ebp+6], bl
  00201	eb 21		 jmp	 SHORT $LN111@LoadString@2
$LN91@LoadString@2:
  00203	88 4d e5	 mov	 BYTE PTR __k$[ebp+5], cl
  00206	eb 1c		 jmp	 SHORT $LN111@LoadString@2
$LN92@LoadString@2:
  00208	c6 45 e4 ed	 mov	 BYTE PTR __k$[ebp+4], -19 ; ffffffedH
  0020c	eb 16		 jmp	 SHORT $LN111@LoadString@2
$LN93@LoadString@2:
  0020e	c6 45 e3 ea	 mov	 BYTE PTR __k$[ebp+3], -22 ; ffffffeaH
  00212	eb 10		 jmp	 SHORT $LN111@LoadString@2
$LN94@LoadString@2:
  00214	c6 45 e2 eb	 mov	 BYTE PTR __k$[ebp+2], -21 ; ffffffebH
  00218	eb 0a		 jmp	 SHORT $LN111@LoadString@2
$LN95@LoadString@2:
  0021a	c6 45 e1 ec	 mov	 BYTE PTR __k$[ebp+1], -20 ; ffffffecH
  0021e	eb 04		 jmp	 SHORT $LN111@LoadString@2
$LN96@LoadString@2:
  00220	c6 45 e0 ed	 mov	 BYTE PTR __k$[ebp], -19	; ffffffedH
$LN111@LoadString@2:
  00224	6a 05		 push	 5
  00226	8d 45 e0	 lea	 eax, DWORD PTR __k$[ebp]
  00229	c6 45 f4 00	 mov	 BYTE PTR __k$[ebp+20], 0
  0022d	5a		 pop	 edx
$LL104@LoadString@2:
  0022e	81 30 ed ec eb
	ea		 xor	 DWORD PTR [eax], -353637139 ; eaebecedH
  00234	83 c0 04	 add	 eax, 4
  00237	4a		 dec	 edx
  00238	75 f4		 jne	 SHORT $LL104@LoadString@2

; 163  : 		LoadString(_k, d, b, i);

  0023a	ff 75 14	 push	 DWORD PTR _i$[ebp]
  0023d	8b 4d dc	 mov	 ecx, DWORD PTR _this$GSCopy$[ebp]
  00240	57		 push	 edi
  00241	56		 push	 esi
  00242	8d 45 e0	 lea	 eax, DWORD PTR __k$[ebp]
  00245	50		 push	 eax
  00246	ff 15 00 00 00
	00		 call	 DWORD PTR __imp_?LoadStringA@ioINILoader@@QAEXPBD0PADH@Z

; 164  : 	}

  0024c	8b 4d fc	 mov	 ecx, DWORD PTR __$ArrayPad$[ebp]
  0024f	5f		 pop	 edi
  00250	5e		 pop	 esi
  00251	33 cd		 xor	 ecx, ebp
  00253	5b		 pop	 ebx
  00254	e8 00 00 00 00	 call	 @__security_check_cookie@4
  00259	c9		 leave
  0025a	c2 10 00	 ret	 16			; 00000010H
??$LoadString_e@$0BF@@ioINILoader@@QAEXAAY0BF@$$CBDAAY00$$CBDPADH@Z ENDP ; ioINILoader::LoadString_e<21>
_TEXT	ENDS
PUBLIC	_this$GSCopy$
PUBLIC	__$ArrayPad$
PUBLIC	??$LoadString_e@$0BA@@ioINILoader@@QAEXAAY0BA@$$CBDAAY00$$CBDPADH@Z ; ioINILoader::LoadString_e<16>
; Function compile flags: /Ogsp
;	COMDAT ??$LoadString_e@$0BA@@ioINILoader@@QAEXAAY0BA@$$CBDAAY00$$CBDPADH@Z
_TEXT	SEGMENT
_this$GSCopy$ = -28					; size = 4
__k$ = -24						; size = 16
__$ArrayPad$ = -4					; size = 4
_k$ = 8							; size = 4
_d$ = 12						; size = 4
_b$ = 16						; size = 4
_i$ = 20						; size = 4
??$LoadString_e@$0BA@@ioINILoader@@QAEXAAY0BA@$$CBDAAY00$$CBDPADH@Z PROC ; ioINILoader::LoadString_e<16>, COMDAT
; _this$ = ecx

; 161  : 	{

  00000	55		 push	 ebp
  00001	8b ec		 mov	 ebp, esp
  00003	83 ec 1c	 sub	 esp, 28			; 0000001cH
  00006	a1 00 00 00 00	 mov	 eax, DWORD PTR ___security_cookie
  0000b	33 c5		 xor	 eax, ebp
  0000d	89 45 fc	 mov	 DWORD PTR __$ArrayPad$[ebp], eax
  00010	8b 45 08	 mov	 eax, DWORD PTR _k$[ebp]

; 162  : 		_ENCSTR(k, _k);

  00013	8a 10		 mov	 dl, BYTE PTR [eax]
  00015	56		 push	 esi
  00016	8b 75 0c	 mov	 esi, DWORD PTR _d$[ebp]
  00019	57		 push	 edi
  0001a	8b 7d 10	 mov	 edi, DWORD PTR _b$[ebp]
  0001d	89 4d e4	 mov	 DWORD PTR _this$GSCopy$[ebp], ecx
  00020	84 d2		 test	 dl, dl
  00022	0f 84 8c 01 00
	00		 je	 $LN96@LoadString@3
  00028	80 f2 ed	 xor	 dl, -19			; ffffffedH
  0002b	88 55 e8	 mov	 BYTE PTR __k$[ebp], dl
  0002e	8a 50 01	 mov	 dl, BYTE PTR [eax+1]
  00031	84 d2		 test	 dl, dl
  00033	0f 84 75 01 00
	00		 je	 $LN95@LoadString@3
  00039	80 f2 ec	 xor	 dl, -20			; ffffffecH
  0003c	88 55 e9	 mov	 BYTE PTR __k$[ebp+1], dl
  0003f	8a 50 02	 mov	 dl, BYTE PTR [eax+2]
  00042	84 d2		 test	 dl, dl
  00044	0f 84 5e 01 00
	00		 je	 $LN94@LoadString@3
  0004a	b1 eb		 mov	 cl, -21			; ffffffebH
  0004c	32 d1		 xor	 dl, cl
  0004e	88 55 ea	 mov	 BYTE PTR __k$[ebp+2], dl
  00051	8a 50 03	 mov	 dl, BYTE PTR [eax+3]
  00054	84 d2		 test	 dl, dl
  00056	0f 84 46 01 00
	00		 je	 $LN93@LoadString@3
  0005c	80 f2 ea	 xor	 dl, -22			; ffffffeaH
  0005f	88 55 eb	 mov	 BYTE PTR __k$[ebp+3], dl
  00062	8a 50 04	 mov	 dl, BYTE PTR [eax+4]
  00065	84 d2		 test	 dl, dl
  00067	0f 84 2f 01 00
	00		 je	 $LN92@LoadString@3
  0006d	80 f2 ed	 xor	 dl, -19			; ffffffedH
  00070	88 55 ec	 mov	 BYTE PTR __k$[ebp+4], dl
  00073	8a 50 05	 mov	 dl, BYTE PTR [eax+5]
  00076	84 d2		 test	 dl, dl
  00078	0f 84 18 01 00
	00		 je	 $LN91@LoadString@3
  0007e	80 f2 ec	 xor	 dl, -20			; ffffffecH
  00081	88 55 ed	 mov	 BYTE PTR __k$[ebp+5], dl
  00084	8a 50 06	 mov	 dl, BYTE PTR [eax+6]
  00087	84 d2		 test	 dl, dl
  00089	0f 84 02 01 00
	00		 je	 $LN90@LoadString@3
  0008f	32 d1		 xor	 dl, cl
  00091	88 55 ee	 mov	 BYTE PTR __k$[ebp+6], dl
  00094	8a 50 07	 mov	 dl, BYTE PTR [eax+7]
  00097	84 d2		 test	 dl, dl
  00099	0f 84 ec 00 00
	00		 je	 $LN89@LoadString@3
  0009f	80 f2 ea	 xor	 dl, -22			; ffffffeaH
  000a2	88 55 ef	 mov	 BYTE PTR __k$[ebp+7], dl
  000a5	8a 50 08	 mov	 dl, BYTE PTR [eax+8]
  000a8	84 d2		 test	 dl, dl
  000aa	0f 84 d5 00 00
	00		 je	 $LN88@LoadString@3
  000b0	80 f2 ed	 xor	 dl, -19			; ffffffedH
  000b3	88 55 f0	 mov	 BYTE PTR __k$[ebp+8], dl
  000b6	8a 50 09	 mov	 dl, BYTE PTR [eax+9]
  000b9	84 d2		 test	 dl, dl
  000bb	0f 84 be 00 00
	00		 je	 $LN87@LoadString@3
  000c1	80 f2 ec	 xor	 dl, -20			; ffffffecH
  000c4	88 55 f1	 mov	 BYTE PTR __k$[ebp+9], dl
  000c7	8a 50 0a	 mov	 dl, BYTE PTR [eax+10]
  000ca	84 d2		 test	 dl, dl
  000cc	0f 84 a8 00 00
	00		 je	 $LN86@LoadString@3
  000d2	32 d1		 xor	 dl, cl
  000d4	88 55 f2	 mov	 BYTE PTR __k$[ebp+10], dl
  000d7	8a 50 0b	 mov	 dl, BYTE PTR [eax+11]
  000da	84 d2		 test	 dl, dl
  000dc	0f 84 92 00 00
	00		 je	 $LN85@LoadString@3
  000e2	80 f2 ea	 xor	 dl, -22			; ffffffeaH
  000e5	88 55 f3	 mov	 BYTE PTR __k$[ebp+11], dl
  000e8	8a 50 0c	 mov	 dl, BYTE PTR [eax+12]
  000eb	84 d2		 test	 dl, dl
  000ed	74 7f		 je	 SHORT $LN84@LoadString@3
  000ef	80 f2 ed	 xor	 dl, -19			; ffffffedH
  000f2	88 55 f4	 mov	 BYTE PTR __k$[ebp+12], dl
  000f5	8a 50 0d	 mov	 dl, BYTE PTR [eax+13]
  000f8	84 d2		 test	 dl, dl
  000fa	74 6c		 je	 SHORT $LN83@LoadString@3
  000fc	80 f2 ec	 xor	 dl, -20			; ffffffecH
  000ff	88 55 f5	 mov	 BYTE PTR __k$[ebp+13], dl
  00102	8a 50 0e	 mov	 dl, BYTE PTR [eax+14]
  00105	84 d2		 test	 dl, dl
  00107	74 5a		 je	 SHORT $LN82@LoadString@3
  00109	32 d1		 xor	 dl, cl
  0010b	80 78 0f 00	 cmp	 BYTE PTR [eax+15], 0
  0010f	88 55 f6	 mov	 BYTE PTR __k$[ebp+14], dl
  00112	0f 84 a0 00 00
	00		 je	 $LN111@LoadString@3
  00118	8a 50 10	 mov	 dl, BYTE PTR [eax+16]
  0011b	84 d2		 test	 dl, dl
  0011d	74 3e		 je	 SHORT $LN80@LoadString@3
  0011f	80 f2 ed	 xor	 dl, -19			; ffffffedH
  00122	88 55 f8	 mov	 BYTE PTR __k$[ebp+16], dl
  00125	8a 50 11	 mov	 dl, BYTE PTR [eax+17]
  00128	84 d2		 test	 dl, dl
  0012a	74 2b		 je	 SHORT $LN79@LoadString@3
  0012c	80 f2 ec	 xor	 dl, -20			; ffffffecH
  0012f	88 55 f9	 mov	 BYTE PTR __k$[ebp+17], dl
  00132	8a 50 12	 mov	 dl, BYTE PTR [eax+18]
  00135	84 d2		 test	 dl, dl
  00137	74 19		 je	 SHORT $LN78@LoadString@3
  00139	8a 40 13	 mov	 al, BYTE PTR [eax+19]
  0013c	32 d1		 xor	 dl, cl
  0013e	88 55 fa	 mov	 BYTE PTR __k$[ebp+18], dl
  00141	84 c0		 test	 al, al
  00143	74 07		 je	 SHORT $LN77@LoadString@3
  00145	34 ea		 xor	 al, -22			; ffffffeaH
  00147	88 45 fb	 mov	 BYTE PTR __k$[ebp+19], al
  0014a	eb 6c		 jmp	 SHORT $LN111@LoadString@3
$LN77@LoadString@3:
  0014c	c6 45 fb ea	 mov	 BYTE PTR __k$[ebp+19], -22 ; ffffffeaH
  00150	eb 66		 jmp	 SHORT $LN111@LoadString@3
$LN78@LoadString@3:
  00152	88 4d fa	 mov	 BYTE PTR __k$[ebp+18], cl
  00155	eb 61		 jmp	 SHORT $LN111@LoadString@3
$LN79@LoadString@3:
  00157	c6 45 f9 ec	 mov	 BYTE PTR __k$[ebp+17], -20 ; ffffffecH
  0015b	eb 5b		 jmp	 SHORT $LN111@LoadString@3
$LN80@LoadString@3:
  0015d	c6 45 f8 ed	 mov	 BYTE PTR __k$[ebp+16], -19 ; ffffffedH
  00161	eb 55		 jmp	 SHORT $LN111@LoadString@3
$LN82@LoadString@3:
  00163	88 4d f6	 mov	 BYTE PTR __k$[ebp+14], cl
  00166	eb 50		 jmp	 SHORT $LN111@LoadString@3
$LN83@LoadString@3:
  00168	c6 45 f5 ec	 mov	 BYTE PTR __k$[ebp+13], -20 ; ffffffecH
  0016c	eb 4a		 jmp	 SHORT $LN111@LoadString@3
$LN84@LoadString@3:
  0016e	c6 45 f4 ed	 mov	 BYTE PTR __k$[ebp+12], -19 ; ffffffedH
  00172	eb 44		 jmp	 SHORT $LN111@LoadString@3
$LN85@LoadString@3:
  00174	c6 45 f3 ea	 mov	 BYTE PTR __k$[ebp+11], -22 ; ffffffeaH
  00178	eb 3e		 jmp	 SHORT $LN111@LoadString@3
$LN86@LoadString@3:
  0017a	88 4d f2	 mov	 BYTE PTR __k$[ebp+10], cl
  0017d	eb 39		 jmp	 SHORT $LN111@LoadString@3
$LN87@LoadString@3:
  0017f	c6 45 f1 ec	 mov	 BYTE PTR __k$[ebp+9], -20 ; ffffffecH
  00183	eb 33		 jmp	 SHORT $LN111@LoadString@3
$LN88@LoadString@3:
  00185	c6 45 f0 ed	 mov	 BYTE PTR __k$[ebp+8], -19 ; ffffffedH
  00189	eb 2d		 jmp	 SHORT $LN111@LoadString@3
$LN89@LoadString@3:
  0018b	c6 45 ef ea	 mov	 BYTE PTR __k$[ebp+7], -22 ; ffffffeaH
  0018f	eb 27		 jmp	 SHORT $LN111@LoadString@3
$LN90@LoadString@3:
  00191	88 4d ee	 mov	 BYTE PTR __k$[ebp+6], cl
  00194	eb 22		 jmp	 SHORT $LN111@LoadString@3
$LN91@LoadString@3:
  00196	c6 45 ed ec	 mov	 BYTE PTR __k$[ebp+5], -20 ; ffffffecH
  0019a	eb 1c		 jmp	 SHORT $LN111@LoadString@3
$LN92@LoadString@3:
  0019c	c6 45 ec ed	 mov	 BYTE PTR __k$[ebp+4], -19 ; ffffffedH
  001a0	eb 16		 jmp	 SHORT $LN111@LoadString@3
$LN93@LoadString@3:
  001a2	c6 45 eb ea	 mov	 BYTE PTR __k$[ebp+3], -22 ; ffffffeaH
  001a6	eb 10		 jmp	 SHORT $LN111@LoadString@3
$LN94@LoadString@3:
  001a8	c6 45 ea eb	 mov	 BYTE PTR __k$[ebp+2], -21 ; ffffffebH
  001ac	eb 0a		 jmp	 SHORT $LN111@LoadString@3
$LN95@LoadString@3:
  001ae	c6 45 e9 ec	 mov	 BYTE PTR __k$[ebp+1], -20 ; ffffffecH
  001b2	eb 04		 jmp	 SHORT $LN111@LoadString@3
$LN96@LoadString@3:
  001b4	c6 45 e8 ed	 mov	 BYTE PTR __k$[ebp], -19	; ffffffedH
$LN111@LoadString@3:
  001b8	6a 03		 push	 3
  001ba	8d 45 e8	 lea	 eax, DWORD PTR __k$[ebp]
  001bd	c6 45 f7 00	 mov	 BYTE PTR __k$[ebp+15], 0
  001c1	5a		 pop	 edx
$LL104@LoadString@3:
  001c2	81 30 ed ec eb
	ea		 xor	 DWORD PTR [eax], -353637139 ; eaebecedH
  001c8	83 c0 04	 add	 eax, 4
  001cb	4a		 dec	 edx
  001cc	75 f4		 jne	 SHORT $LL104@LoadString@3
  001ce	6a 0c		 push	 12			; 0000000cH
  001d0	58		 pop	 eax
$LL101@LoadString@3:
  001d1	8b c8		 mov	 ecx, eax
  001d3	81 e1 03 00 00
	80		 and	 ecx, -2147483645	; 80000003H
  001d9	79 05		 jns	 SHORT $LN112@LoadString@3
  001db	49		 dec	 ecx
  001dc	83 c9 fc	 or	 ecx, -4			; fffffffcH
  001df	41		 inc	 ecx
$LN112@LoadString@3:
  001e0	b2 ed		 mov	 dl, -19			; ffffffedH
  001e2	2a d1		 sub	 dl, cl
  001e4	30 54 05 e8	 xor	 BYTE PTR __k$[ebp+eax], dl
  001e8	40		 inc	 eax
  001e9	83 f8 0f	 cmp	 eax, 15			; 0000000fH
  001ec	7c e3		 jl	 SHORT $LL101@LoadString@3

; 163  : 		LoadString(_k, d, b, i);

  001ee	ff 75 14	 push	 DWORD PTR _i$[ebp]
  001f1	8b 4d e4	 mov	 ecx, DWORD PTR _this$GSCopy$[ebp]
  001f4	57		 push	 edi
  001f5	56		 push	 esi
  001f6	8d 45 e8	 lea	 eax, DWORD PTR __k$[ebp]
  001f9	50		 push	 eax
  001fa	ff 15 00 00 00
	00		 call	 DWORD PTR __imp_?LoadStringA@ioINILoader@@QAEXPBD0PADH@Z

; 164  : 	}

  00200	8b 4d fc	 mov	 ecx, DWORD PTR __$ArrayPad$[ebp]
  00203	5f		 pop	 edi
  00204	33 cd		 xor	 ecx, ebp
  00206	5e		 pop	 esi
  00207	e8 00 00 00 00	 call	 @__security_check_cookie@4
  0020c	c9		 leave
  0020d	c2 10 00	 ret	 16			; 00000010H
??$LoadString_e@$0BA@@ioINILoader@@QAEXAAY0BA@$$CBDAAY00$$CBDPADH@Z ENDP ; ioINILoader::LoadString_e<16>
_TEXT	ENDS
PUBLIC	_this$GSCopy$
PUBLIC	__$ArrayPad$
PUBLIC	??$LoadString_e@$0BB@@ioINILoader@@QAEXAAY0BB@$$CBDAAY00$$CBDPADH@Z ; ioINILoader::LoadString_e<17>
; Function compile flags: /Ogsp
;	COMDAT ??$LoadString_e@$0BB@@ioINILoader@@QAEXAAY0BB@$$CBDAAY00$$CBDPADH@Z
_TEXT	SEGMENT
_this$GSCopy$ = -32					; size = 4
__k$ = -28						; size = 17
__$ArrayPad$ = -4					; size = 4
_k$ = 8							; size = 4
_d$ = 12						; size = 4
_b$ = 16						; size = 4
_i$ = 20						; size = 4
??$LoadString_e@$0BB@@ioINILoader@@QAEXAAY0BB@$$CBDAAY00$$CBDPADH@Z PROC ; ioINILoader::LoadString_e<17>, COMDAT
; _this$ = ecx

; 161  : 	{

  00000	55		 push	 ebp
  00001	8b ec		 mov	 ebp, esp
  00003	83 ec 20	 sub	 esp, 32			; 00000020H
  00006	a1 00 00 00 00	 mov	 eax, DWORD PTR ___security_cookie
  0000b	33 c5		 xor	 eax, ebp
  0000d	89 45 fc	 mov	 DWORD PTR __$ArrayPad$[ebp], eax
  00010	8b 45 08	 mov	 eax, DWORD PTR _k$[ebp]

; 162  : 		_ENCSTR(k, _k);

  00013	8a 10		 mov	 dl, BYTE PTR [eax]
  00015	56		 push	 esi
  00016	8b 75 0c	 mov	 esi, DWORD PTR _d$[ebp]
  00019	57		 push	 edi
  0001a	8b 7d 10	 mov	 edi, DWORD PTR _b$[ebp]
  0001d	89 4d e0	 mov	 DWORD PTR _this$GSCopy$[ebp], ecx
  00020	84 d2		 test	 dl, dl
  00022	0f 84 a7 01 00
	00		 je	 $LN96@LoadString@4
  00028	80 f2 ed	 xor	 dl, -19			; ffffffedH
  0002b	88 55 e4	 mov	 BYTE PTR __k$[ebp], dl
  0002e	8a 50 01	 mov	 dl, BYTE PTR [eax+1]
  00031	84 d2		 test	 dl, dl
  00033	0f 84 90 01 00
	00		 je	 $LN95@LoadString@4
  00039	b1 ec		 mov	 cl, -20			; ffffffecH
  0003b	32 d1		 xor	 dl, cl
  0003d	88 55 e5	 mov	 BYTE PTR __k$[ebp+1], dl
  00040	8a 50 02	 mov	 dl, BYTE PTR [eax+2]
  00043	84 d2		 test	 dl, dl
  00045	0f 84 78 01 00
	00		 je	 $LN94@LoadString@4
  0004b	80 f2 eb	 xor	 dl, -21			; ffffffebH
  0004e	88 55 e6	 mov	 BYTE PTR __k$[ebp+2], dl
  00051	8a 50 03	 mov	 dl, BYTE PTR [eax+3]
  00054	84 d2		 test	 dl, dl
  00056	0f 84 61 01 00
	00		 je	 $LN93@LoadString@4
  0005c	80 f2 ea	 xor	 dl, -22			; ffffffeaH
  0005f	88 55 e7	 mov	 BYTE PTR __k$[ebp+3], dl
  00062	8a 50 04	 mov	 dl, BYTE PTR [eax+4]
  00065	84 d2		 test	 dl, dl
  00067	0f 84 4a 01 00
	00		 je	 $LN92@LoadString@4
  0006d	80 f2 ed	 xor	 dl, -19			; ffffffedH
  00070	88 55 e8	 mov	 BYTE PTR __k$[ebp+4], dl
  00073	8a 50 05	 mov	 dl, BYTE PTR [eax+5]
  00076	84 d2		 test	 dl, dl
  00078	0f 84 34 01 00
	00		 je	 $LN91@LoadString@4
  0007e	32 d1		 xor	 dl, cl
  00080	88 55 e9	 mov	 BYTE PTR __k$[ebp+5], dl
  00083	8a 50 06	 mov	 dl, BYTE PTR [eax+6]
  00086	84 d2		 test	 dl, dl
  00088	0f 84 1e 01 00
	00		 je	 $LN90@LoadString@4
  0008e	80 f2 eb	 xor	 dl, -21			; ffffffebH
  00091	88 55 ea	 mov	 BYTE PTR __k$[ebp+6], dl
  00094	8a 50 07	 mov	 dl, BYTE PTR [eax+7]
  00097	84 d2		 test	 dl, dl
  00099	0f 84 07 01 00
	00		 je	 $LN89@LoadString@4
  0009f	80 f2 ea	 xor	 dl, -22			; ffffffeaH
  000a2	88 55 eb	 mov	 BYTE PTR __k$[ebp+7], dl
  000a5	8a 50 08	 mov	 dl, BYTE PTR [eax+8]
  000a8	84 d2		 test	 dl, dl
  000aa	0f 84 f0 00 00
	00		 je	 $LN88@LoadString@4
  000b0	80 f2 ed	 xor	 dl, -19			; ffffffedH
  000b3	88 55 ec	 mov	 BYTE PTR __k$[ebp+8], dl
  000b6	8a 50 09	 mov	 dl, BYTE PTR [eax+9]
  000b9	84 d2		 test	 dl, dl
  000bb	0f 84 da 00 00
	00		 je	 $LN87@LoadString@4
  000c1	32 d1		 xor	 dl, cl
  000c3	88 55 ed	 mov	 BYTE PTR __k$[ebp+9], dl
  000c6	8a 50 0a	 mov	 dl, BYTE PTR [eax+10]
  000c9	84 d2		 test	 dl, dl
  000cb	0f 84 c4 00 00
	00		 je	 $LN86@LoadString@4
  000d1	80 f2 eb	 xor	 dl, -21			; ffffffebH
  000d4	88 55 ee	 mov	 BYTE PTR __k$[ebp+10], dl
  000d7	8a 50 0b	 mov	 dl, BYTE PTR [eax+11]
  000da	84 d2		 test	 dl, dl
  000dc	0f 84 ad 00 00
	00		 je	 $LN85@LoadString@4
  000e2	80 f2 ea	 xor	 dl, -22			; ffffffeaH
  000e5	88 55 ef	 mov	 BYTE PTR __k$[ebp+11], dl
  000e8	8a 50 0c	 mov	 dl, BYTE PTR [eax+12]
  000eb	84 d2		 test	 dl, dl
  000ed	0f 84 96 00 00
	00		 je	 $LN84@LoadString@4
  000f3	80 f2 ed	 xor	 dl, -19			; ffffffedH
  000f6	88 55 f0	 mov	 BYTE PTR __k$[ebp+12], dl
  000f9	8a 50 0d	 mov	 dl, BYTE PTR [eax+13]
  000fc	84 d2		 test	 dl, dl
  000fe	0f 84 80 00 00
	00		 je	 $LN83@LoadString@4
  00104	32 d1		 xor	 dl, cl
  00106	88 55 f1	 mov	 BYTE PTR __k$[ebp+13], dl
  00109	8a 50 0e	 mov	 dl, BYTE PTR [eax+14]
  0010c	84 d2		 test	 dl, dl
  0010e	74 6e		 je	 SHORT $LN82@LoadString@4
  00110	80 f2 eb	 xor	 dl, -21			; ffffffebH
  00113	88 55 f2	 mov	 BYTE PTR __k$[ebp+14], dl
  00116	8a 50 0f	 mov	 dl, BYTE PTR [eax+15]
  00119	84 d2		 test	 dl, dl
  0011b	74 5b		 je	 SHORT $LN81@LoadString@4
  0011d	80 f2 ea	 xor	 dl, -22			; ffffffeaH
  00120	80 78 10 00	 cmp	 BYTE PTR [eax+16], 0
  00124	88 55 f3	 mov	 BYTE PTR __k$[ebp+15], dl
  00127	0f 84 a6 00 00
	00		 je	 $LN111@LoadString@4
  0012d	8a 50 11	 mov	 dl, BYTE PTR [eax+17]
  00130	84 d2		 test	 dl, dl
  00132	74 3f		 je	 SHORT $LN79@LoadString@4
  00134	32 d1		 xor	 dl, cl
  00136	88 55 f5	 mov	 BYTE PTR __k$[ebp+17], dl
  00139	8a 50 12	 mov	 dl, BYTE PTR [eax+18]
  0013c	84 d2		 test	 dl, dl
  0013e	74 2d		 je	 SHORT $LN78@LoadString@4
  00140	80 f2 eb	 xor	 dl, -21			; ffffffebH
  00143	88 55 f6	 mov	 BYTE PTR __k$[ebp+18], dl
  00146	8a 50 13	 mov	 dl, BYTE PTR [eax+19]
  00149	84 d2		 test	 dl, dl
  0014b	74 1a		 je	 SHORT $LN77@LoadString@4
  0014d	8a 40 14	 mov	 al, BYTE PTR [eax+20]
  00150	80 f2 ea	 xor	 dl, -22			; ffffffeaH
  00153	88 55 f7	 mov	 BYTE PTR __k$[ebp+19], dl
  00156	84 c0		 test	 al, al
  00158	74 07		 je	 SHORT $LN76@LoadString@4
  0015a	34 ed		 xor	 al, -19			; ffffffedH
  0015c	88 45 f8	 mov	 BYTE PTR __k$[ebp+20], al
  0015f	eb 72		 jmp	 SHORT $LN111@LoadString@4
$LN76@LoadString@4:
  00161	c6 45 f8 ed	 mov	 BYTE PTR __k$[ebp+20], -19 ; ffffffedH
  00165	eb 6c		 jmp	 SHORT $LN111@LoadString@4
$LN77@LoadString@4:
  00167	c6 45 f7 ea	 mov	 BYTE PTR __k$[ebp+19], -22 ; ffffffeaH
  0016b	eb 66		 jmp	 SHORT $LN111@LoadString@4
$LN78@LoadString@4:
  0016d	c6 45 f6 eb	 mov	 BYTE PTR __k$[ebp+18], -21 ; ffffffebH
  00171	eb 60		 jmp	 SHORT $LN111@LoadString@4
$LN79@LoadString@4:
  00173	88 4d f5	 mov	 BYTE PTR __k$[ebp+17], cl
  00176	eb 5b		 jmp	 SHORT $LN111@LoadString@4
$LN81@LoadString@4:
  00178	c6 45 f3 ea	 mov	 BYTE PTR __k$[ebp+15], -22 ; ffffffeaH
  0017c	eb 55		 jmp	 SHORT $LN111@LoadString@4
$LN82@LoadString@4:
  0017e	c6 45 f2 eb	 mov	 BYTE PTR __k$[ebp+14], -21 ; ffffffebH
  00182	eb 4f		 jmp	 SHORT $LN111@LoadString@4
$LN83@LoadString@4:
  00184	88 4d f1	 mov	 BYTE PTR __k$[ebp+13], cl
  00187	eb 4a		 jmp	 SHORT $LN111@LoadString@4
$LN84@LoadString@4:
  00189	c6 45 f0 ed	 mov	 BYTE PTR __k$[ebp+12], -19 ; ffffffedH
  0018d	eb 44		 jmp	 SHORT $LN111@LoadString@4
$LN85@LoadString@4:
  0018f	c6 45 ef ea	 mov	 BYTE PTR __k$[ebp+11], -22 ; ffffffeaH
  00193	eb 3e		 jmp	 SHORT $LN111@LoadString@4
$LN86@LoadString@4:
  00195	c6 45 ee eb	 mov	 BYTE PTR __k$[ebp+10], -21 ; ffffffebH
  00199	eb 38		 jmp	 SHORT $LN111@LoadString@4
$LN87@LoadString@4:
  0019b	88 4d ed	 mov	 BYTE PTR __k$[ebp+9], cl
  0019e	eb 33		 jmp	 SHORT $LN111@LoadString@4
$LN88@LoadString@4:
  001a0	c6 45 ec ed	 mov	 BYTE PTR __k$[ebp+8], -19 ; ffffffedH
  001a4	eb 2d		 jmp	 SHORT $LN111@LoadString@4
$LN89@LoadString@4:
  001a6	c6 45 eb ea	 mov	 BYTE PTR __k$[ebp+7], -22 ; ffffffeaH
  001aa	eb 27		 jmp	 SHORT $LN111@LoadString@4
$LN90@LoadString@4:
  001ac	c6 45 ea eb	 mov	 BYTE PTR __k$[ebp+6], -21 ; ffffffebH
  001b0	eb 21		 jmp	 SHORT $LN111@LoadString@4
$LN91@LoadString@4:
  001b2	88 4d e9	 mov	 BYTE PTR __k$[ebp+5], cl
  001b5	eb 1c		 jmp	 SHORT $LN111@LoadString@4
$LN92@LoadString@4:
  001b7	c6 45 e8 ed	 mov	 BYTE PTR __k$[ebp+4], -19 ; ffffffedH
  001bb	eb 16		 jmp	 SHORT $LN111@LoadString@4
$LN93@LoadString@4:
  001bd	c6 45 e7 ea	 mov	 BYTE PTR __k$[ebp+3], -22 ; ffffffeaH
  001c1	eb 10		 jmp	 SHORT $LN111@LoadString@4
$LN94@LoadString@4:
  001c3	c6 45 e6 eb	 mov	 BYTE PTR __k$[ebp+2], -21 ; ffffffebH
  001c7	eb 0a		 jmp	 SHORT $LN111@LoadString@4
$LN95@LoadString@4:
  001c9	c6 45 e5 ec	 mov	 BYTE PTR __k$[ebp+1], -20 ; ffffffecH
  001cd	eb 04		 jmp	 SHORT $LN111@LoadString@4
$LN96@LoadString@4:
  001cf	c6 45 e4 ed	 mov	 BYTE PTR __k$[ebp], -19	; ffffffedH
$LN111@LoadString@4:
  001d3	6a 04		 push	 4
  001d5	8d 45 e4	 lea	 eax, DWORD PTR __k$[ebp]
  001d8	c6 45 f4 00	 mov	 BYTE PTR __k$[ebp+16], 0
  001dc	5a		 pop	 edx
$LL104@LoadString@4:
  001dd	81 30 ed ec eb
	ea		 xor	 DWORD PTR [eax], -353637139 ; eaebecedH
  001e3	83 c0 04	 add	 eax, 4
  001e6	4a		 dec	 edx
  001e7	75 f4		 jne	 SHORT $LL104@LoadString@4

; 163  : 		LoadString(_k, d, b, i);

  001e9	ff 75 14	 push	 DWORD PTR _i$[ebp]
  001ec	8b 4d e0	 mov	 ecx, DWORD PTR _this$GSCopy$[ebp]
  001ef	57		 push	 edi
  001f0	56		 push	 esi
  001f1	8d 45 e4	 lea	 eax, DWORD PTR __k$[ebp]
  001f4	50		 push	 eax
  001f5	ff 15 00 00 00
	00		 call	 DWORD PTR __imp_?LoadStringA@ioINILoader@@QAEXPBD0PADH@Z

; 164  : 	}

  001fb	8b 4d fc	 mov	 ecx, DWORD PTR __$ArrayPad$[ebp]
  001fe	5f		 pop	 edi
  001ff	33 cd		 xor	 ecx, ebp
  00201	5e		 pop	 esi
  00202	e8 00 00 00 00	 call	 @__security_check_cookie@4
  00207	c9		 leave
  00208	c2 10 00	 ret	 16			; 00000010H
??$LoadString_e@$0BB@@ioINILoader@@QAEXAAY0BB@$$CBDAAY00$$CBDPADH@Z ENDP ; ioINILoader::LoadString_e<17>
_TEXT	ENDS
PUBLIC	__$ArrayPad$
PUBLIC	??$LoadFloat_e@$0BB@@ioINILoader@@QAEMAAY0BB@$$CBDM@Z ; ioINILoader::LoadFloat_e<17>
; Function compile flags: /Ogsp
;	COMDAT ??$LoadFloat_e@$0BB@@ioINILoader@@QAEMAAY0BB@$$CBDM@Z
_TEXT	SEGMENT
__k$ = -28						; size = 17
__$ArrayPad$ = -4					; size = 4
_k$ = 8							; size = 4
_f$ = 12						; size = 4
??$LoadFloat_e@$0BB@@ioINILoader@@QAEMAAY0BB@$$CBDM@Z PROC ; ioINILoader::LoadFloat_e<17>, COMDAT
; _this$ = ecx

; 135  : 	{

  00000	55		 push	 ebp
  00001	8b ec		 mov	 ebp, esp
  00003	83 ec 1c	 sub	 esp, 28			; 0000001cH
  00006	a1 00 00 00 00	 mov	 eax, DWORD PTR ___security_cookie
  0000b	33 c5		 xor	 eax, ebp
  0000d	89 45 fc	 mov	 DWORD PTR __$ArrayPad$[ebp], eax
  00010	8b 45 08	 mov	 eax, DWORD PTR _k$[ebp]

; 136  : 		_ENCSTR(k, _k);

  00013	8a 10		 mov	 dl, BYTE PTR [eax]
  00015	56		 push	 esi
  00016	8b f1		 mov	 esi, ecx
  00018	84 d2		 test	 dl, dl
  0001a	0f 84 a7 01 00
	00		 je	 $LN96@LoadFloat_@4
  00020	80 f2 ed	 xor	 dl, -19			; ffffffedH
  00023	88 55 e4	 mov	 BYTE PTR __k$[ebp], dl
  00026	8a 50 01	 mov	 dl, BYTE PTR [eax+1]
  00029	84 d2		 test	 dl, dl
  0002b	0f 84 90 01 00
	00		 je	 $LN95@LoadFloat_@4
  00031	b1 ec		 mov	 cl, -20			; ffffffecH
  00033	32 d1		 xor	 dl, cl
  00035	88 55 e5	 mov	 BYTE PTR __k$[ebp+1], dl
  00038	8a 50 02	 mov	 dl, BYTE PTR [eax+2]
  0003b	84 d2		 test	 dl, dl
  0003d	0f 84 78 01 00
	00		 je	 $LN94@LoadFloat_@4
  00043	80 f2 eb	 xor	 dl, -21			; ffffffebH
  00046	88 55 e6	 mov	 BYTE PTR __k$[ebp+2], dl
  00049	8a 50 03	 mov	 dl, BYTE PTR [eax+3]
  0004c	84 d2		 test	 dl, dl
  0004e	0f 84 61 01 00
	00		 je	 $LN93@LoadFloat_@4
  00054	80 f2 ea	 xor	 dl, -22			; ffffffeaH
  00057	88 55 e7	 mov	 BYTE PTR __k$[ebp+3], dl
  0005a	8a 50 04	 mov	 dl, BYTE PTR [eax+4]
  0005d	84 d2		 test	 dl, dl
  0005f	0f 84 4a 01 00
	00		 je	 $LN92@LoadFloat_@4
  00065	80 f2 ed	 xor	 dl, -19			; ffffffedH
  00068	88 55 e8	 mov	 BYTE PTR __k$[ebp+4], dl
  0006b	8a 50 05	 mov	 dl, BYTE PTR [eax+5]
  0006e	84 d2		 test	 dl, dl
  00070	0f 84 34 01 00
	00		 je	 $LN91@LoadFloat_@4
  00076	32 d1		 xor	 dl, cl
  00078	88 55 e9	 mov	 BYTE PTR __k$[ebp+5], dl
  0007b	8a 50 06	 mov	 dl, BYTE PTR [eax+6]
  0007e	84 d2		 test	 dl, dl
  00080	0f 84 1e 01 00
	00		 je	 $LN90@LoadFloat_@4
  00086	80 f2 eb	 xor	 dl, -21			; ffffffebH
  00089	88 55 ea	 mov	 BYTE PTR __k$[ebp+6], dl
  0008c	8a 50 07	 mov	 dl, BYTE PTR [eax+7]
  0008f	84 d2		 test	 dl, dl
  00091	0f 84 07 01 00
	00		 je	 $LN89@LoadFloat_@4
  00097	80 f2 ea	 xor	 dl, -22			; ffffffeaH
  0009a	88 55 eb	 mov	 BYTE PTR __k$[ebp+7], dl
  0009d	8a 50 08	 mov	 dl, BYTE PTR [eax+8]
  000a0	84 d2		 test	 dl, dl
  000a2	0f 84 f0 00 00
	00		 je	 $LN88@LoadFloat_@4
  000a8	80 f2 ed	 xor	 dl, -19			; ffffffedH
  000ab	88 55 ec	 mov	 BYTE PTR __k$[ebp+8], dl
  000ae	8a 50 09	 mov	 dl, BYTE PTR [eax+9]
  000b1	84 d2		 test	 dl, dl
  000b3	0f 84 da 00 00
	00		 je	 $LN87@LoadFloat_@4
  000b9	32 d1		 xor	 dl, cl
  000bb	88 55 ed	 mov	 BYTE PTR __k$[ebp+9], dl
  000be	8a 50 0a	 mov	 dl, BYTE PTR [eax+10]
  000c1	84 d2		 test	 dl, dl
  000c3	0f 84 c4 00 00
	00		 je	 $LN86@LoadFloat_@4
  000c9	80 f2 eb	 xor	 dl, -21			; ffffffebH
  000cc	88 55 ee	 mov	 BYTE PTR __k$[ebp+10], dl
  000cf	8a 50 0b	 mov	 dl, BYTE PTR [eax+11]
  000d2	84 d2		 test	 dl, dl
  000d4	0f 84 ad 00 00
	00		 je	 $LN85@LoadFloat_@4
  000da	80 f2 ea	 xor	 dl, -22			; ffffffeaH
  000dd	88 55 ef	 mov	 BYTE PTR __k$[ebp+11], dl
  000e0	8a 50 0c	 mov	 dl, BYTE PTR [eax+12]
  000e3	84 d2		 test	 dl, dl
  000e5	0f 84 96 00 00
	00		 je	 $LN84@LoadFloat_@4
  000eb	80 f2 ed	 xor	 dl, -19			; ffffffedH
  000ee	88 55 f0	 mov	 BYTE PTR __k$[ebp+12], dl
  000f1	8a 50 0d	 mov	 dl, BYTE PTR [eax+13]
  000f4	84 d2		 test	 dl, dl
  000f6	0f 84 80 00 00
	00		 je	 $LN83@LoadFloat_@4
  000fc	32 d1		 xor	 dl, cl
  000fe	88 55 f1	 mov	 BYTE PTR __k$[ebp+13], dl
  00101	8a 50 0e	 mov	 dl, BYTE PTR [eax+14]
  00104	84 d2		 test	 dl, dl
  00106	74 6e		 je	 SHORT $LN82@LoadFloat_@4
  00108	80 f2 eb	 xor	 dl, -21			; ffffffebH
  0010b	88 55 f2	 mov	 BYTE PTR __k$[ebp+14], dl
  0010e	8a 50 0f	 mov	 dl, BYTE PTR [eax+15]
  00111	84 d2		 test	 dl, dl
  00113	74 5b		 je	 SHORT $LN81@LoadFloat_@4
  00115	80 f2 ea	 xor	 dl, -22			; ffffffeaH
  00118	80 78 10 00	 cmp	 BYTE PTR [eax+16], 0
  0011c	88 55 f3	 mov	 BYTE PTR __k$[ebp+15], dl
  0011f	0f 84 a6 00 00
	00		 je	 $LN1@LoadFloat_@4
  00125	8a 50 11	 mov	 dl, BYTE PTR [eax+17]
  00128	84 d2		 test	 dl, dl
  0012a	74 3f		 je	 SHORT $LN79@LoadFloat_@4
  0012c	32 d1		 xor	 dl, cl
  0012e	88 55 f5	 mov	 BYTE PTR __k$[ebp+17], dl
  00131	8a 50 12	 mov	 dl, BYTE PTR [eax+18]
  00134	84 d2		 test	 dl, dl
  00136	74 2d		 je	 SHORT $LN78@LoadFloat_@4
  00138	80 f2 eb	 xor	 dl, -21			; ffffffebH
  0013b	88 55 f6	 mov	 BYTE PTR __k$[ebp+18], dl
  0013e	8a 50 13	 mov	 dl, BYTE PTR [eax+19]
  00141	84 d2		 test	 dl, dl
  00143	74 1a		 je	 SHORT $LN77@LoadFloat_@4
  00145	8a 40 14	 mov	 al, BYTE PTR [eax+20]
  00148	80 f2 ea	 xor	 dl, -22			; ffffffeaH
  0014b	88 55 f7	 mov	 BYTE PTR __k$[ebp+19], dl
  0014e	84 c0		 test	 al, al
  00150	74 07		 je	 SHORT $LN76@LoadFloat_@4
  00152	34 ed		 xor	 al, -19			; ffffffedH
  00154	88 45 f8	 mov	 BYTE PTR __k$[ebp+20], al
  00157	eb 72		 jmp	 SHORT $LN1@LoadFloat_@4
$LN76@LoadFloat_@4:
  00159	c6 45 f8 ed	 mov	 BYTE PTR __k$[ebp+20], -19 ; ffffffedH
  0015d	eb 6c		 jmp	 SHORT $LN1@LoadFloat_@4
$LN77@LoadFloat_@4:
  0015f	c6 45 f7 ea	 mov	 BYTE PTR __k$[ebp+19], -22 ; ffffffeaH
  00163	eb 66		 jmp	 SHORT $LN1@LoadFloat_@4
$LN78@LoadFloat_@4:
  00165	c6 45 f6 eb	 mov	 BYTE PTR __k$[ebp+18], -21 ; ffffffebH
  00169	eb 60		 jmp	 SHORT $LN1@LoadFloat_@4
$LN79@LoadFloat_@4:
  0016b	88 4d f5	 mov	 BYTE PTR __k$[ebp+17], cl
  0016e	eb 5b		 jmp	 SHORT $LN1@LoadFloat_@4
$LN81@LoadFloat_@4:
  00170	c6 45 f3 ea	 mov	 BYTE PTR __k$[ebp+15], -22 ; ffffffeaH
  00174	eb 55		 jmp	 SHORT $LN1@LoadFloat_@4
$LN82@LoadFloat_@4:
  00176	c6 45 f2 eb	 mov	 BYTE PTR __k$[ebp+14], -21 ; ffffffebH
  0017a	eb 4f		 jmp	 SHORT $LN1@LoadFloat_@4
$LN83@LoadFloat_@4:
  0017c	88 4d f1	 mov	 BYTE PTR __k$[ebp+13], cl
  0017f	eb 4a		 jmp	 SHORT $LN1@LoadFloat_@4
$LN84@LoadFloat_@4:
  00181	c6 45 f0 ed	 mov	 BYTE PTR __k$[ebp+12], -19 ; ffffffedH
  00185	eb 44		 jmp	 SHORT $LN1@LoadFloat_@4
$LN85@LoadFloat_@4:
  00187	c6 45 ef ea	 mov	 BYTE PTR __k$[ebp+11], -22 ; ffffffeaH
  0018b	eb 3e		 jmp	 SHORT $LN1@LoadFloat_@4
$LN86@LoadFloat_@4:
  0018d	c6 45 ee eb	 mov	 BYTE PTR __k$[ebp+10], -21 ; ffffffebH
  00191	eb 38		 jmp	 SHORT $LN1@LoadFloat_@4
$LN87@LoadFloat_@4:
  00193	88 4d ed	 mov	 BYTE PTR __k$[ebp+9], cl
  00196	eb 33		 jmp	 SHORT $LN1@LoadFloat_@4
$LN88@LoadFloat_@4:
  00198	c6 45 ec ed	 mov	 BYTE PTR __k$[ebp+8], -19 ; ffffffedH
  0019c	eb 2d		 jmp	 SHORT $LN1@LoadFloat_@4
$LN89@LoadFloat_@4:
  0019e	c6 45 eb ea	 mov	 BYTE PTR __k$[ebp+7], -22 ; ffffffeaH
  001a2	eb 27		 jmp	 SHORT $LN1@LoadFloat_@4
$LN90@LoadFloat_@4:
  001a4	c6 45 ea eb	 mov	 BYTE PTR __k$[ebp+6], -21 ; ffffffebH
  001a8	eb 21		 jmp	 SHORT $LN1@LoadFloat_@4
$LN91@LoadFloat_@4:
  001aa	88 4d e9	 mov	 BYTE PTR __k$[ebp+5], cl
  001ad	eb 1c		 jmp	 SHORT $LN1@LoadFloat_@4
$LN92@LoadFloat_@4:
  001af	c6 45 e8 ed	 mov	 BYTE PTR __k$[ebp+4], -19 ; ffffffedH
  001b3	eb 16		 jmp	 SHORT $LN1@LoadFloat_@4
$LN93@LoadFloat_@4:
  001b5	c6 45 e7 ea	 mov	 BYTE PTR __k$[ebp+3], -22 ; ffffffeaH
  001b9	eb 10		 jmp	 SHORT $LN1@LoadFloat_@4
$LN94@LoadFloat_@4:
  001bb	c6 45 e6 eb	 mov	 BYTE PTR __k$[ebp+2], -21 ; ffffffebH
  001bf	eb 0a		 jmp	 SHORT $LN1@LoadFloat_@4
$LN95@LoadFloat_@4:
  001c1	c6 45 e5 ec	 mov	 BYTE PTR __k$[ebp+1], -20 ; ffffffecH
  001c5	eb 04		 jmp	 SHORT $LN1@LoadFloat_@4
$LN96@LoadFloat_@4:
  001c7	c6 45 e4 ed	 mov	 BYTE PTR __k$[ebp], -19	; ffffffedH
$LN1@LoadFloat_@4:
  001cb	6a 04		 push	 4
  001cd	8d 45 e4	 lea	 eax, DWORD PTR __k$[ebp]
  001d0	c6 45 f4 00	 mov	 BYTE PTR __k$[ebp+16], 0
  001d4	5a		 pop	 edx
$LL104@LoadFloat_@4:
  001d5	81 30 ed ec eb
	ea		 xor	 DWORD PTR [eax], -353637139 ; eaebecedH
  001db	83 c0 04	 add	 eax, 4
  001de	4a		 dec	 edx
  001df	75 f4		 jne	 SHORT $LL104@LoadFloat_@4

; 137  : 		return LoadFloat(_k, f);

  001e1	f3 0f 10 45 0c	 movss	 xmm0, DWORD PTR _f$[ebp]
  001e6	51		 push	 ecx
  001e7	8d 45 e4	 lea	 eax, DWORD PTR __k$[ebp]
  001ea	f3 0f 11 04 24	 movss	 DWORD PTR [esp], xmm0
  001ef	50		 push	 eax
  001f0	8b ce		 mov	 ecx, esi
  001f2	ff 15 00 00 00
	00		 call	 DWORD PTR __imp_?LoadFloat@ioINILoader@@QAEMPBDM@Z

; 138  : 	}

  001f8	8b 4d fc	 mov	 ecx, DWORD PTR __$ArrayPad$[ebp]
  001fb	33 cd		 xor	 ecx, ebp
  001fd	5e		 pop	 esi
  001fe	e8 00 00 00 00	 call	 @__security_check_cookie@4
  00203	c9		 leave
  00204	c2 08 00	 ret	 8
??$LoadFloat_e@$0BB@@ioINILoader@@QAEMAAY0BB@$$CBDM@Z ENDP ; ioINILoader::LoadFloat_e<17>
_TEXT	ENDS
PUBLIC	__$ArrayPad$
PUBLIC	??$LoadString_e@$08@ioINILoader@@QAEXAAY08$$CBDAAY00$$CBDPADH@Z ; ioINILoader::LoadString_e<9>
; Function compile flags: /Ogsp
;	COMDAT ??$LoadString_e@$08@ioINILoader@@QAEXAAY08$$CBDAAY00$$CBDPADH@Z
_TEXT	SEGMENT
__k$ = -20						; size = 9
__$ArrayPad$ = -4					; size = 4
_k$ = 8							; size = 4
_d$ = 12						; size = 4
_b$ = 16						; size = 4
_i$ = 20						; size = 4
??$LoadString_e@$08@ioINILoader@@QAEXAAY08$$CBDAAY00$$CBDPADH@Z PROC ; ioINILoader::LoadString_e<9>, COMDAT
; _this$ = ecx

; 161  : 	{

  00000	55		 push	 ebp
  00001	8b ec		 mov	 ebp, esp
  00003	83 ec 14	 sub	 esp, 20			; 00000014H
  00006	a1 00 00 00 00	 mov	 eax, DWORD PTR ___security_cookie
  0000b	33 c5		 xor	 eax, ebp
  0000d	89 45 fc	 mov	 DWORD PTR __$ArrayPad$[ebp], eax
  00010	8b 45 08	 mov	 eax, DWORD PTR _k$[ebp]

; 162  : 		_ENCSTR(k, _k);

  00013	8a 10		 mov	 dl, BYTE PTR [eax]
  00015	56		 push	 esi
  00016	8b 75 0c	 mov	 esi, DWORD PTR _d$[ebp]
  00019	57		 push	 edi
  0001a	8b 7d 10	 mov	 edi, DWORD PTR _b$[ebp]
  0001d	84 d2		 test	 dl, dl
  0001f	0f 84 ee 00 00
	00		 je	 $LN96@LoadString@5
  00025	80 f2 ed	 xor	 dl, -19			; ffffffedH
  00028	88 55 ec	 mov	 BYTE PTR __k$[ebp], dl
  0002b	8a 50 01	 mov	 dl, BYTE PTR [eax+1]
  0002e	84 d2		 test	 dl, dl
  00030	0f 84 d7 00 00
	00		 je	 $LN95@LoadString@5
  00036	80 f2 ec	 xor	 dl, -20			; ffffffecH
  00039	88 55 ed	 mov	 BYTE PTR __k$[ebp+1], dl
  0003c	8a 50 02	 mov	 dl, BYTE PTR [eax+2]
  0003f	84 d2		 test	 dl, dl
  00041	0f 84 c0 00 00
	00		 je	 $LN94@LoadString@5
  00047	80 f2 eb	 xor	 dl, -21			; ffffffebH
  0004a	88 55 ee	 mov	 BYTE PTR __k$[ebp+2], dl
  0004d	8a 50 03	 mov	 dl, BYTE PTR [eax+3]
  00050	84 d2		 test	 dl, dl
  00052	0f 84 a9 00 00
	00		 je	 $LN93@LoadString@5
  00058	80 f2 ea	 xor	 dl, -22			; ffffffeaH
  0005b	88 55 ef	 mov	 BYTE PTR __k$[ebp+3], dl
  0005e	8a 50 04	 mov	 dl, BYTE PTR [eax+4]
  00061	84 d2		 test	 dl, dl
  00063	0f 84 92 00 00
	00		 je	 $LN92@LoadString@5
  00069	80 f2 ed	 xor	 dl, -19			; ffffffedH
  0006c	88 55 f0	 mov	 BYTE PTR __k$[ebp+4], dl
  0006f	8a 50 05	 mov	 dl, BYTE PTR [eax+5]
  00072	84 d2		 test	 dl, dl
  00074	74 7f		 je	 SHORT $LN91@LoadString@5
  00076	80 f2 ec	 xor	 dl, -20			; ffffffecH
  00079	88 55 f1	 mov	 BYTE PTR __k$[ebp+5], dl
  0007c	8a 50 06	 mov	 dl, BYTE PTR [eax+6]
  0007f	84 d2		 test	 dl, dl
  00081	74 6c		 je	 SHORT $LN90@LoadString@5
  00083	80 f2 eb	 xor	 dl, -21			; ffffffebH
  00086	88 55 f2	 mov	 BYTE PTR __k$[ebp+6], dl
  00089	8a 50 07	 mov	 dl, BYTE PTR [eax+7]
  0008c	84 d2		 test	 dl, dl
  0008e	74 59		 je	 SHORT $LN89@LoadString@5
  00090	80 f2 ea	 xor	 dl, -22			; ffffffeaH
  00093	80 78 08 00	 cmp	 BYTE PTR [eax+8], 0
  00097	88 55 f3	 mov	 BYTE PTR __k$[ebp+7], dl
  0009a	74 7b		 je	 SHORT $LN1@LoadString@5
  0009c	8a 50 09	 mov	 dl, BYTE PTR [eax+9]
  0009f	84 d2		 test	 dl, dl
  000a1	74 40		 je	 SHORT $LN87@LoadString@5
  000a3	80 f2 ec	 xor	 dl, -20			; ffffffecH
  000a6	88 55 f5	 mov	 BYTE PTR __k$[ebp+9], dl
  000a9	8a 50 0a	 mov	 dl, BYTE PTR [eax+10]
  000ac	84 d2		 test	 dl, dl
  000ae	74 2d		 je	 SHORT $LN86@LoadString@5
  000b0	80 f2 eb	 xor	 dl, -21			; ffffffebH
  000b3	88 55 f6	 mov	 BYTE PTR __k$[ebp+10], dl
  000b6	8a 50 0b	 mov	 dl, BYTE PTR [eax+11]
  000b9	84 d2		 test	 dl, dl
  000bb	74 1a		 je	 SHORT $LN85@LoadString@5
  000bd	8a 40 0c	 mov	 al, BYTE PTR [eax+12]
  000c0	80 f2 ea	 xor	 dl, -22			; ffffffeaH
  000c3	88 55 f7	 mov	 BYTE PTR __k$[ebp+11], dl
  000c6	84 c0		 test	 al, al
  000c8	74 07		 je	 SHORT $LN84@LoadString@5
  000ca	34 ed		 xor	 al, -19			; ffffffedH
  000cc	88 45 f8	 mov	 BYTE PTR __k$[ebp+12], al
  000cf	eb 46		 jmp	 SHORT $LN1@LoadString@5
$LN84@LoadString@5:
  000d1	c6 45 f8 ed	 mov	 BYTE PTR __k$[ebp+12], -19 ; ffffffedH
  000d5	eb 40		 jmp	 SHORT $LN1@LoadString@5
$LN85@LoadString@5:
  000d7	c6 45 f7 ea	 mov	 BYTE PTR __k$[ebp+11], -22 ; ffffffeaH
  000db	eb 3a		 jmp	 SHORT $LN1@LoadString@5
$LN86@LoadString@5:
  000dd	c6 45 f6 eb	 mov	 BYTE PTR __k$[ebp+10], -21 ; ffffffebH
  000e1	eb 34		 jmp	 SHORT $LN1@LoadString@5
$LN87@LoadString@5:
  000e3	c6 45 f5 ec	 mov	 BYTE PTR __k$[ebp+9], -20 ; ffffffecH
  000e7	eb 2e		 jmp	 SHORT $LN1@LoadString@5
$LN89@LoadString@5:
  000e9	c6 45 f3 ea	 mov	 BYTE PTR __k$[ebp+7], -22 ; ffffffeaH
  000ed	eb 28		 jmp	 SHORT $LN1@LoadString@5
$LN90@LoadString@5:
  000ef	c6 45 f2 eb	 mov	 BYTE PTR __k$[ebp+6], -21 ; ffffffebH
  000f3	eb 22		 jmp	 SHORT $LN1@LoadString@5
$LN91@LoadString@5:
  000f5	c6 45 f1 ec	 mov	 BYTE PTR __k$[ebp+5], -20 ; ffffffecH
  000f9	eb 1c		 jmp	 SHORT $LN1@LoadString@5
$LN92@LoadString@5:
  000fb	c6 45 f0 ed	 mov	 BYTE PTR __k$[ebp+4], -19 ; ffffffedH
  000ff	eb 16		 jmp	 SHORT $LN1@LoadString@5
$LN93@LoadString@5:
  00101	c6 45 ef ea	 mov	 BYTE PTR __k$[ebp+3], -22 ; ffffffeaH
  00105	eb 10		 jmp	 SHORT $LN1@LoadString@5
$LN94@LoadString@5:
  00107	c6 45 ee eb	 mov	 BYTE PTR __k$[ebp+2], -21 ; ffffffebH
  0010b	eb 0a		 jmp	 SHORT $LN1@LoadString@5
$LN95@LoadString@5:
  0010d	c6 45 ed ec	 mov	 BYTE PTR __k$[ebp+1], -20 ; ffffffecH
  00111	eb 04		 jmp	 SHORT $LN1@LoadString@5
$LN96@LoadString@5:
  00113	c6 45 ec ed	 mov	 BYTE PTR __k$[ebp], -19	; ffffffedH
$LN1@LoadString@5:
  00117	6a 02		 push	 2
  00119	8d 45 ec	 lea	 eax, DWORD PTR __k$[ebp]
  0011c	c6 45 f4 00	 mov	 BYTE PTR __k$[ebp+8], 0
  00120	5a		 pop	 edx
$LL104@LoadString@5:
  00121	81 30 ed ec eb
	ea		 xor	 DWORD PTR [eax], -353637139 ; eaebecedH
  00127	83 c0 04	 add	 eax, 4
  0012a	4a		 dec	 edx
  0012b	75 f4		 jne	 SHORT $LL104@LoadString@5

; 163  : 		LoadString(_k, d, b, i);

  0012d	ff 75 14	 push	 DWORD PTR _i$[ebp]
  00130	8d 45 ec	 lea	 eax, DWORD PTR __k$[ebp]
  00133	57		 push	 edi
  00134	56		 push	 esi
  00135	50		 push	 eax
  00136	ff 15 00 00 00
	00		 call	 DWORD PTR __imp_?LoadStringA@ioINILoader@@QAEXPBD0PADH@Z

; 164  : 	}

  0013c	8b 4d fc	 mov	 ecx, DWORD PTR __$ArrayPad$[ebp]
  0013f	5f		 pop	 edi
  00140	33 cd		 xor	 ecx, ebp
  00142	5e		 pop	 esi
  00143	e8 00 00 00 00	 call	 @__security_check_cookie@4
  00148	c9		 leave
  00149	c2 10 00	 ret	 16			; 00000010H
??$LoadString_e@$08@ioINILoader@@QAEXAAY08$$CBDAAY00$$CBDPADH@Z ENDP ; ioINILoader::LoadString_e<9>
_TEXT	ENDS
PUBLIC	__$ArrayPad$
PUBLIC	??$LoadInt_e@$0O@@ioINILoader@@QAEHAAY0O@$$CBDH@Z ; ioINILoader::LoadInt_e<14>
EXTRN	__imp_?LoadInt@ioINILoader@@QAEHPBDH@Z:PROC
; Function compile flags: /Ogsp
;	COMDAT ??$LoadInt_e@$0O@@ioINILoader@@QAEHAAY0O@$$CBDH@Z
_TEXT	SEGMENT
__k$ = -24						; size = 14
__$ArrayPad$ = -4					; size = 4
_k$ = 8							; size = 4
_i$ = 12						; size = 4
??$LoadInt_e@$0O@@ioINILoader@@QAEHAAY0O@$$CBDH@Z PROC	; ioINILoader::LoadInt_e<14>, COMDAT
; _this$ = ecx

; 118  : 	{

  00000	55		 push	 ebp
  00001	8b ec		 mov	 ebp, esp
  00003	83 ec 18	 sub	 esp, 24			; 00000018H
  00006	a1 00 00 00 00	 mov	 eax, DWORD PTR ___security_cookie
  0000b	33 c5		 xor	 eax, ebp
  0000d	89 45 fc	 mov	 DWORD PTR __$ArrayPad$[ebp], eax
  00010	8b 45 08	 mov	 eax, DWORD PTR _k$[ebp]

; 119  : 		_ENCSTR(k, _k);

  00013	8a 10		 mov	 dl, BYTE PTR [eax]
  00015	56		 push	 esi
  00016	8b f1		 mov	 esi, ecx
  00018	84 d2		 test	 dl, dl
  0001a	0f 84 64 01 00
	00		 je	 $LN96@LoadInt_e
  00020	80 f2 ed	 xor	 dl, -19			; ffffffedH
  00023	88 55 e8	 mov	 BYTE PTR __k$[ebp], dl
  00026	8a 50 01	 mov	 dl, BYTE PTR [eax+1]
  00029	84 d2		 test	 dl, dl
  0002b	0f 84 4d 01 00
	00		 je	 $LN95@LoadInt_e
  00031	80 f2 ec	 xor	 dl, -20			; ffffffecH
  00034	88 55 e9	 mov	 BYTE PTR __k$[ebp+1], dl
  00037	8a 50 02	 mov	 dl, BYTE PTR [eax+2]
  0003a	84 d2		 test	 dl, dl
  0003c	0f 84 36 01 00
	00		 je	 $LN94@LoadInt_e
  00042	b1 eb		 mov	 cl, -21			; ffffffebH
  00044	32 d1		 xor	 dl, cl
  00046	88 55 ea	 mov	 BYTE PTR __k$[ebp+2], dl
  00049	8a 50 03	 mov	 dl, BYTE PTR [eax+3]
  0004c	84 d2		 test	 dl, dl
  0004e	0f 84 1e 01 00
	00		 je	 $LN93@LoadInt_e
  00054	80 f2 ea	 xor	 dl, -22			; ffffffeaH
  00057	88 55 eb	 mov	 BYTE PTR __k$[ebp+3], dl
  0005a	8a 50 04	 mov	 dl, BYTE PTR [eax+4]
  0005d	84 d2		 test	 dl, dl
  0005f	0f 84 07 01 00
	00		 je	 $LN92@LoadInt_e
  00065	80 f2 ed	 xor	 dl, -19			; ffffffedH
  00068	88 55 ec	 mov	 BYTE PTR __k$[ebp+4], dl
  0006b	8a 50 05	 mov	 dl, BYTE PTR [eax+5]
  0006e	84 d2		 test	 dl, dl
  00070	0f 84 f0 00 00
	00		 je	 $LN91@LoadInt_e
  00076	80 f2 ec	 xor	 dl, -20			; ffffffecH
  00079	88 55 ed	 mov	 BYTE PTR __k$[ebp+5], dl
  0007c	8a 50 06	 mov	 dl, BYTE PTR [eax+6]
  0007f	84 d2		 test	 dl, dl
  00081	0f 84 da 00 00
	00		 je	 $LN90@LoadInt_e
  00087	32 d1		 xor	 dl, cl
  00089	88 55 ee	 mov	 BYTE PTR __k$[ebp+6], dl
  0008c	8a 50 07	 mov	 dl, BYTE PTR [eax+7]
  0008f	84 d2		 test	 dl, dl
  00091	0f 84 c4 00 00
	00		 je	 $LN89@LoadInt_e
  00097	80 f2 ea	 xor	 dl, -22			; ffffffeaH
  0009a	88 55 ef	 mov	 BYTE PTR __k$[ebp+7], dl
  0009d	8a 50 08	 mov	 dl, BYTE PTR [eax+8]
  000a0	84 d2		 test	 dl, dl
  000a2	0f 84 ad 00 00
	00		 je	 $LN88@LoadInt_e
  000a8	80 f2 ed	 xor	 dl, -19			; ffffffedH
  000ab	88 55 f0	 mov	 BYTE PTR __k$[ebp+8], dl
  000ae	8a 50 09	 mov	 dl, BYTE PTR [eax+9]
  000b1	84 d2		 test	 dl, dl
  000b3	0f 84 96 00 00
	00		 je	 $LN87@LoadInt_e
  000b9	80 f2 ec	 xor	 dl, -20			; ffffffecH
  000bc	88 55 f1	 mov	 BYTE PTR __k$[ebp+9], dl
  000bf	8a 50 0a	 mov	 dl, BYTE PTR [eax+10]
  000c2	84 d2		 test	 dl, dl
  000c4	0f 84 80 00 00
	00		 je	 $LN86@LoadInt_e
  000ca	32 d1		 xor	 dl, cl
  000cc	88 55 f2	 mov	 BYTE PTR __k$[ebp+10], dl
  000cf	8a 50 0b	 mov	 dl, BYTE PTR [eax+11]
  000d2	84 d2		 test	 dl, dl
  000d4	74 6e		 je	 SHORT $LN85@LoadInt_e
  000d6	80 f2 ea	 xor	 dl, -22			; ffffffeaH
  000d9	88 55 f3	 mov	 BYTE PTR __k$[ebp+11], dl
  000dc	8a 50 0c	 mov	 dl, BYTE PTR [eax+12]
  000df	84 d2		 test	 dl, dl
  000e1	74 5b		 je	 SHORT $LN84@LoadInt_e
  000e3	80 f2 ed	 xor	 dl, -19			; ffffffedH
  000e6	80 78 0d 00	 cmp	 BYTE PTR [eax+13], 0
  000ea	88 55 f4	 mov	 BYTE PTR __k$[ebp+12], dl
  000ed	0f 84 95 00 00
	00		 je	 $LN1@LoadInt_e
  000f3	8a 50 0e	 mov	 dl, BYTE PTR [eax+14]
  000f6	84 d2		 test	 dl, dl
  000f8	74 3f		 je	 SHORT $LN82@LoadInt_e
  000fa	32 d1		 xor	 dl, cl
  000fc	88 55 f6	 mov	 BYTE PTR __k$[ebp+14], dl
  000ff	8a 50 0f	 mov	 dl, BYTE PTR [eax+15]
  00102	84 d2		 test	 dl, dl
  00104	74 2d		 je	 SHORT $LN81@LoadInt_e
  00106	80 f2 ea	 xor	 dl, -22			; ffffffeaH
  00109	88 55 f7	 mov	 BYTE PTR __k$[ebp+15], dl
  0010c	8a 50 10	 mov	 dl, BYTE PTR [eax+16]
  0010f	84 d2		 test	 dl, dl
  00111	74 1a		 je	 SHORT $LN80@LoadInt_e
  00113	8a 40 11	 mov	 al, BYTE PTR [eax+17]
  00116	80 f2 ed	 xor	 dl, -19			; ffffffedH
  00119	88 55 f8	 mov	 BYTE PTR __k$[ebp+16], dl
  0011c	84 c0		 test	 al, al
  0011e	74 07		 je	 SHORT $LN79@LoadInt_e
  00120	34 ec		 xor	 al, -20			; ffffffecH
  00122	88 45 f9	 mov	 BYTE PTR __k$[ebp+17], al
  00125	eb 61		 jmp	 SHORT $LN1@LoadInt_e
$LN79@LoadInt_e:
  00127	c6 45 f9 ec	 mov	 BYTE PTR __k$[ebp+17], -20 ; ffffffecH
  0012b	eb 5b		 jmp	 SHORT $LN1@LoadInt_e
$LN80@LoadInt_e:
  0012d	c6 45 f8 ed	 mov	 BYTE PTR __k$[ebp+16], -19 ; ffffffedH
  00131	eb 55		 jmp	 SHORT $LN1@LoadInt_e
$LN81@LoadInt_e:
  00133	c6 45 f7 ea	 mov	 BYTE PTR __k$[ebp+15], -22 ; ffffffeaH
  00137	eb 4f		 jmp	 SHORT $LN1@LoadInt_e
$LN82@LoadInt_e:
  00139	88 4d f6	 mov	 BYTE PTR __k$[ebp+14], cl
  0013c	eb 4a		 jmp	 SHORT $LN1@LoadInt_e
$LN84@LoadInt_e:
  0013e	c6 45 f4 ed	 mov	 BYTE PTR __k$[ebp+12], -19 ; ffffffedH
  00142	eb 44		 jmp	 SHORT $LN1@LoadInt_e
$LN85@LoadInt_e:
  00144	c6 45 f3 ea	 mov	 BYTE PTR __k$[ebp+11], -22 ; ffffffeaH
  00148	eb 3e		 jmp	 SHORT $LN1@LoadInt_e
$LN86@LoadInt_e:
  0014a	88 4d f2	 mov	 BYTE PTR __k$[ebp+10], cl
  0014d	eb 39		 jmp	 SHORT $LN1@LoadInt_e
$LN87@LoadInt_e:
  0014f	c6 45 f1 ec	 mov	 BYTE PTR __k$[ebp+9], -20 ; ffffffecH
  00153	eb 33		 jmp	 SHORT $LN1@LoadInt_e
$LN88@LoadInt_e:
  00155	c6 45 f0 ed	 mov	 BYTE PTR __k$[ebp+8], -19 ; ffffffedH
  00159	eb 2d		 jmp	 SHORT $LN1@LoadInt_e
$LN89@LoadInt_e:
  0015b	c6 45 ef ea	 mov	 BYTE PTR __k$[ebp+7], -22 ; ffffffeaH
  0015f	eb 27		 jmp	 SHORT $LN1@LoadInt_e
$LN90@LoadInt_e:
  00161	88 4d ee	 mov	 BYTE PTR __k$[ebp+6], cl
  00164	eb 22		 jmp	 SHORT $LN1@LoadInt_e
$LN91@LoadInt_e:
  00166	c6 45 ed ec	 mov	 BYTE PTR __k$[ebp+5], -20 ; ffffffecH
  0016a	eb 1c		 jmp	 SHORT $LN1@LoadInt_e
$LN92@LoadInt_e:
  0016c	c6 45 ec ed	 mov	 BYTE PTR __k$[ebp+4], -19 ; ffffffedH
  00170	eb 16		 jmp	 SHORT $LN1@LoadInt_e
$LN93@LoadInt_e:
  00172	c6 45 eb ea	 mov	 BYTE PTR __k$[ebp+3], -22 ; ffffffeaH
  00176	eb 10		 jmp	 SHORT $LN1@LoadInt_e
$LN94@LoadInt_e:
  00178	c6 45 ea eb	 mov	 BYTE PTR __k$[ebp+2], -21 ; ffffffebH
  0017c	eb 0a		 jmp	 SHORT $LN1@LoadInt_e
$LN95@LoadInt_e:
  0017e	c6 45 e9 ec	 mov	 BYTE PTR __k$[ebp+1], -20 ; ffffffecH
  00182	eb 04		 jmp	 SHORT $LN1@LoadInt_e
$LN96@LoadInt_e:
  00184	c6 45 e8 ed	 mov	 BYTE PTR __k$[ebp], -19	; ffffffedH
$LN1@LoadInt_e:
  00188	6a 03		 push	 3
  0018a	8d 45 e8	 lea	 eax, DWORD PTR __k$[ebp]
  0018d	c6 45 f5 00	 mov	 BYTE PTR __k$[ebp+13], 0
  00191	5a		 pop	 edx
$LL104@LoadInt_e:
  00192	81 30 ed ec eb
	ea		 xor	 DWORD PTR [eax], -353637139 ; eaebecedH
  00198	83 c0 04	 add	 eax, 4
  0019b	4a		 dec	 edx
  0019c	75 f4		 jne	 SHORT $LL104@LoadInt_e

; 120  : 		return LoadInt(_k, i);

  0019e	ff 75 0c	 push	 DWORD PTR _i$[ebp]
  001a1	80 75 f4 ed	 xor	 BYTE PTR __k$[ebp+12], -19 ; ffffffedH
  001a5	8d 45 e8	 lea	 eax, DWORD PTR __k$[ebp]
  001a8	50		 push	 eax
  001a9	8b ce		 mov	 ecx, esi
  001ab	ff 15 00 00 00
	00		 call	 DWORD PTR __imp_?LoadInt@ioINILoader@@QAEHPBDH@Z

; 121  : 	}

  001b1	8b 4d fc	 mov	 ecx, DWORD PTR __$ArrayPad$[ebp]
  001b4	33 cd		 xor	 ecx, ebp
  001b6	5e		 pop	 esi
  001b7	e8 00 00 00 00	 call	 @__security_check_cookie@4
  001bc	c9		 leave
  001bd	c2 08 00	 ret	 8
??$LoadInt_e@$0O@@ioINILoader@@QAEHAAY0O@$$CBDH@Z ENDP	; ioINILoader::LoadInt_e<14>
_TEXT	ENDS
PUBLIC	__$ArrayPad$
PUBLIC	??$LoadInt_e@$0BF@@ioINILoader@@QAEHAAY0BF@$$CBDH@Z ; ioINILoader::LoadInt_e<21>
; Function compile flags: /Ogsp
;	COMDAT ??$LoadInt_e@$0BF@@ioINILoader@@QAEHAAY0BF@$$CBDH@Z
_TEXT	SEGMENT
__k$ = -32						; size = 21
__$ArrayPad$ = -4					; size = 4
_k$ = 8							; size = 4
_i$ = 12						; size = 4
??$LoadInt_e@$0BF@@ioINILoader@@QAEHAAY0BF@$$CBDH@Z PROC ; ioINILoader::LoadInt_e<21>, COMDAT
; _this$ = ecx

; 118  : 	{

  00000	55		 push	 ebp
  00001	8b ec		 mov	 ebp, esp
  00003	83 ec 20	 sub	 esp, 32			; 00000020H
  00006	a1 00 00 00 00	 mov	 eax, DWORD PTR ___security_cookie
  0000b	33 c5		 xor	 eax, ebp
  0000d	89 45 fc	 mov	 DWORD PTR __$ArrayPad$[ebp], eax
  00010	8b 45 08	 mov	 eax, DWORD PTR _k$[ebp]

; 119  : 		_ENCSTR(k, _k);

  00013	8a 10		 mov	 dl, BYTE PTR [eax]
  00015	53		 push	 ebx
  00016	56		 push	 esi
  00017	8b f1		 mov	 esi, ecx
  00019	84 d2		 test	 dl, dl
  0001b	0f 84 f7 01 00
	00		 je	 $LN96@LoadInt_e@2
  00021	80 f2 ed	 xor	 dl, -19			; ffffffedH
  00024	88 55 e0	 mov	 BYTE PTR __k$[ebp], dl
  00027	8a 50 01	 mov	 dl, BYTE PTR [eax+1]
  0002a	84 d2		 test	 dl, dl
  0002c	0f 84 e0 01 00
	00		 je	 $LN95@LoadInt_e@2
  00032	b1 ec		 mov	 cl, -20			; ffffffecH
  00034	32 d1		 xor	 dl, cl
  00036	88 55 e1	 mov	 BYTE PTR __k$[ebp+1], dl
  00039	8a 50 02	 mov	 dl, BYTE PTR [eax+2]
  0003c	84 d2		 test	 dl, dl
  0003e	0f 84 c8 01 00
	00		 je	 $LN94@LoadInt_e@2
  00044	b3 eb		 mov	 bl, -21			; ffffffebH
  00046	32 d3		 xor	 dl, bl
  00048	88 55 e2	 mov	 BYTE PTR __k$[ebp+2], dl
  0004b	8a 50 03	 mov	 dl, BYTE PTR [eax+3]
  0004e	84 d2		 test	 dl, dl
  00050	0f 84 b0 01 00
	00		 je	 $LN93@LoadInt_e@2
  00056	80 f2 ea	 xor	 dl, -22			; ffffffeaH
  00059	88 55 e3	 mov	 BYTE PTR __k$[ebp+3], dl
  0005c	8a 50 04	 mov	 dl, BYTE PTR [eax+4]
  0005f	84 d2		 test	 dl, dl
  00061	0f 84 99 01 00
	00		 je	 $LN92@LoadInt_e@2
  00067	80 f2 ed	 xor	 dl, -19			; ffffffedH
  0006a	88 55 e4	 mov	 BYTE PTR __k$[ebp+4], dl
  0006d	8a 50 05	 mov	 dl, BYTE PTR [eax+5]
  00070	84 d2		 test	 dl, dl
  00072	0f 84 83 01 00
	00		 je	 $LN91@LoadInt_e@2
  00078	32 d1		 xor	 dl, cl
  0007a	88 55 e5	 mov	 BYTE PTR __k$[ebp+5], dl
  0007d	8a 50 06	 mov	 dl, BYTE PTR [eax+6]
  00080	84 d2		 test	 dl, dl
  00082	0f 84 6e 01 00
	00		 je	 $LN90@LoadInt_e@2
  00088	32 d3		 xor	 dl, bl
  0008a	88 55 e6	 mov	 BYTE PTR __k$[ebp+6], dl
  0008d	8a 50 07	 mov	 dl, BYTE PTR [eax+7]
  00090	84 d2		 test	 dl, dl
  00092	0f 84 58 01 00
	00		 je	 $LN89@LoadInt_e@2
  00098	80 f2 ea	 xor	 dl, -22			; ffffffeaH
  0009b	88 55 e7	 mov	 BYTE PTR __k$[ebp+7], dl
  0009e	8a 50 08	 mov	 dl, BYTE PTR [eax+8]
  000a1	84 d2		 test	 dl, dl
  000a3	0f 84 41 01 00
	00		 je	 $LN88@LoadInt_e@2
  000a9	80 f2 ed	 xor	 dl, -19			; ffffffedH
  000ac	88 55 e8	 mov	 BYTE PTR __k$[ebp+8], dl
  000af	8a 50 09	 mov	 dl, BYTE PTR [eax+9]
  000b2	84 d2		 test	 dl, dl
  000b4	0f 84 2b 01 00
	00		 je	 $LN87@LoadInt_e@2
  000ba	32 d1		 xor	 dl, cl
  000bc	88 55 e9	 mov	 BYTE PTR __k$[ebp+9], dl
  000bf	8a 50 0a	 mov	 dl, BYTE PTR [eax+10]
  000c2	84 d2		 test	 dl, dl
  000c4	0f 84 16 01 00
	00		 je	 $LN86@LoadInt_e@2
  000ca	32 d3		 xor	 dl, bl
  000cc	88 55 ea	 mov	 BYTE PTR __k$[ebp+10], dl
  000cf	8a 50 0b	 mov	 dl, BYTE PTR [eax+11]
  000d2	84 d2		 test	 dl, dl
  000d4	0f 84 00 01 00
	00		 je	 $LN85@LoadInt_e@2
  000da	80 f2 ea	 xor	 dl, -22			; ffffffeaH
  000dd	88 55 eb	 mov	 BYTE PTR __k$[ebp+11], dl
  000e0	8a 50 0c	 mov	 dl, BYTE PTR [eax+12]
  000e3	84 d2		 test	 dl, dl
  000e5	0f 84 e9 00 00
	00		 je	 $LN84@LoadInt_e@2
  000eb	80 f2 ed	 xor	 dl, -19			; ffffffedH
  000ee	88 55 ec	 mov	 BYTE PTR __k$[ebp+12], dl
  000f1	8a 50 0d	 mov	 dl, BYTE PTR [eax+13]
  000f4	84 d2		 test	 dl, dl
  000f6	0f 84 d3 00 00
	00		 je	 $LN83@LoadInt_e@2
  000fc	32 d1		 xor	 dl, cl
  000fe	88 55 ed	 mov	 BYTE PTR __k$[ebp+13], dl
  00101	8a 50 0e	 mov	 dl, BYTE PTR [eax+14]
  00104	84 d2		 test	 dl, dl
  00106	0f 84 be 00 00
	00		 je	 $LN82@LoadInt_e@2
  0010c	32 d3		 xor	 dl, bl
  0010e	88 55 ee	 mov	 BYTE PTR __k$[ebp+14], dl
  00111	8a 50 0f	 mov	 dl, BYTE PTR [eax+15]
  00114	84 d2		 test	 dl, dl
  00116	0f 84 a8 00 00
	00		 je	 $LN81@LoadInt_e@2
  0011c	80 f2 ea	 xor	 dl, -22			; ffffffeaH
  0011f	88 55 ef	 mov	 BYTE PTR __k$[ebp+15], dl
  00122	8a 50 10	 mov	 dl, BYTE PTR [eax+16]
  00125	84 d2		 test	 dl, dl
  00127	0f 84 91 00 00
	00		 je	 $LN80@LoadInt_e@2
  0012d	80 f2 ed	 xor	 dl, -19			; ffffffedH
  00130	88 55 f0	 mov	 BYTE PTR __k$[ebp+16], dl
  00133	8a 50 11	 mov	 dl, BYTE PTR [eax+17]
  00136	84 d2		 test	 dl, dl
  00138	74 7f		 je	 SHORT $LN79@LoadInt_e@2
  0013a	32 d1		 xor	 dl, cl
  0013c	88 55 f1	 mov	 BYTE PTR __k$[ebp+17], dl
  0013f	8a 50 12	 mov	 dl, BYTE PTR [eax+18]
  00142	84 d2		 test	 dl, dl
  00144	74 6e		 je	 SHORT $LN78@LoadInt_e@2
  00146	32 d3		 xor	 dl, bl
  00148	88 55 f2	 mov	 BYTE PTR __k$[ebp+18], dl
  0014b	8a 50 13	 mov	 dl, BYTE PTR [eax+19]
  0014e	84 d2		 test	 dl, dl
  00150	74 5c		 je	 SHORT $LN77@LoadInt_e@2
  00152	80 f2 ea	 xor	 dl, -22			; ffffffeaH
  00155	80 78 14 00	 cmp	 BYTE PTR [eax+20], 0
  00159	88 55 f3	 mov	 BYTE PTR __k$[ebp+19], dl
  0015c	0f 84 ba 00 00
	00		 je	 $LN1@LoadInt_e@2
  00162	8a 50 15	 mov	 dl, BYTE PTR [eax+21]
  00165	84 d2		 test	 dl, dl
  00167	74 40		 je	 SHORT $LN75@LoadInt_e@2
  00169	32 d1		 xor	 dl, cl
  0016b	88 55 f5	 mov	 BYTE PTR __k$[ebp+21], dl
  0016e	8a 50 16	 mov	 dl, BYTE PTR [eax+22]
  00171	84 d2		 test	 dl, dl
  00173	74 2f		 je	 SHORT $LN74@LoadInt_e@2
  00175	32 d3		 xor	 dl, bl
  00177	88 55 f6	 mov	 BYTE PTR __k$[ebp+22], dl
  0017a	8a 50 17	 mov	 dl, BYTE PTR [eax+23]
  0017d	84 d2		 test	 dl, dl
  0017f	74 1d		 je	 SHORT $LN73@LoadInt_e@2
  00181	8a 40 18	 mov	 al, BYTE PTR [eax+24]
  00184	80 f2 ea	 xor	 dl, -22			; ffffffeaH
  00187	88 55 f7	 mov	 BYTE PTR __k$[ebp+23], dl
  0018a	84 c0		 test	 al, al
  0018c	74 0a		 je	 SHORT $LN72@LoadInt_e@2
  0018e	34 ed		 xor	 al, -19			; ffffffedH
  00190	88 45 f8	 mov	 BYTE PTR __k$[ebp+24], al
  00193	e9 84 00 00 00	 jmp	 $LN1@LoadInt_e@2
$LN72@LoadInt_e@2:
  00198	c6 45 f8 ed	 mov	 BYTE PTR __k$[ebp+24], -19 ; ffffffedH
  0019c	eb 7e		 jmp	 SHORT $LN1@LoadInt_e@2
$LN73@LoadInt_e@2:
  0019e	c6 45 f7 ea	 mov	 BYTE PTR __k$[ebp+23], -22 ; ffffffeaH
  001a2	eb 78		 jmp	 SHORT $LN1@LoadInt_e@2
$LN74@LoadInt_e@2:
  001a4	88 5d f6	 mov	 BYTE PTR __k$[ebp+22], bl
  001a7	eb 73		 jmp	 SHORT $LN1@LoadInt_e@2
$LN75@LoadInt_e@2:
  001a9	88 4d f5	 mov	 BYTE PTR __k$[ebp+21], cl
  001ac	eb 6e		 jmp	 SHORT $LN1@LoadInt_e@2
$LN77@LoadInt_e@2:
  001ae	c6 45 f3 ea	 mov	 BYTE PTR __k$[ebp+19], -22 ; ffffffeaH
  001b2	eb 68		 jmp	 SHORT $LN1@LoadInt_e@2
$LN78@LoadInt_e@2:
  001b4	88 5d f2	 mov	 BYTE PTR __k$[ebp+18], bl
  001b7	eb 63		 jmp	 SHORT $LN1@LoadInt_e@2
$LN79@LoadInt_e@2:
  001b9	88 4d f1	 mov	 BYTE PTR __k$[ebp+17], cl
  001bc	eb 5e		 jmp	 SHORT $LN1@LoadInt_e@2
$LN80@LoadInt_e@2:
  001be	c6 45 f0 ed	 mov	 BYTE PTR __k$[ebp+16], -19 ; ffffffedH
  001c2	eb 58		 jmp	 SHORT $LN1@LoadInt_e@2
$LN81@LoadInt_e@2:
  001c4	c6 45 ef ea	 mov	 BYTE PTR __k$[ebp+15], -22 ; ffffffeaH
  001c8	eb 52		 jmp	 SHORT $LN1@LoadInt_e@2
$LN82@LoadInt_e@2:
  001ca	88 5d ee	 mov	 BYTE PTR __k$[ebp+14], bl
  001cd	eb 4d		 jmp	 SHORT $LN1@LoadInt_e@2
$LN83@LoadInt_e@2:
  001cf	88 4d ed	 mov	 BYTE PTR __k$[ebp+13], cl
  001d2	eb 48		 jmp	 SHORT $LN1@LoadInt_e@2
$LN84@LoadInt_e@2:
  001d4	c6 45 ec ed	 mov	 BYTE PTR __k$[ebp+12], -19 ; ffffffedH
  001d8	eb 42		 jmp	 SHORT $LN1@LoadInt_e@2
$LN85@LoadInt_e@2:
  001da	c6 45 eb ea	 mov	 BYTE PTR __k$[ebp+11], -22 ; ffffffeaH
  001de	eb 3c		 jmp	 SHORT $LN1@LoadInt_e@2
$LN86@LoadInt_e@2:
  001e0	88 5d ea	 mov	 BYTE PTR __k$[ebp+10], bl
  001e3	eb 37		 jmp	 SHORT $LN1@LoadInt_e@2
$LN87@LoadInt_e@2:
  001e5	88 4d e9	 mov	 BYTE PTR __k$[ebp+9], cl
  001e8	eb 32		 jmp	 SHORT $LN1@LoadInt_e@2
$LN88@LoadInt_e@2:
  001ea	c6 45 e8 ed	 mov	 BYTE PTR __k$[ebp+8], -19 ; ffffffedH
  001ee	eb 2c		 jmp	 SHORT $LN1@LoadInt_e@2
$LN89@LoadInt_e@2:
  001f0	c6 45 e7 ea	 mov	 BYTE PTR __k$[ebp+7], -22 ; ffffffeaH
  001f4	eb 26		 jmp	 SHORT $LN1@LoadInt_e@2
$LN90@LoadInt_e@2:
  001f6	88 5d e6	 mov	 BYTE PTR __k$[ebp+6], bl
  001f9	eb 21		 jmp	 SHORT $LN1@LoadInt_e@2
$LN91@LoadInt_e@2:
  001fb	88 4d e5	 mov	 BYTE PTR __k$[ebp+5], cl
  001fe	eb 1c		 jmp	 SHORT $LN1@LoadInt_e@2
$LN92@LoadInt_e@2:
  00200	c6 45 e4 ed	 mov	 BYTE PTR __k$[ebp+4], -19 ; ffffffedH
  00204	eb 16		 jmp	 SHORT $LN1@LoadInt_e@2
$LN93@LoadInt_e@2:
  00206	c6 45 e3 ea	 mov	 BYTE PTR __k$[ebp+3], -22 ; ffffffeaH
  0020a	eb 10		 jmp	 SHORT $LN1@LoadInt_e@2
$LN94@LoadInt_e@2:
  0020c	c6 45 e2 eb	 mov	 BYTE PTR __k$[ebp+2], -21 ; ffffffebH
  00210	eb 0a		 jmp	 SHORT $LN1@LoadInt_e@2
$LN95@LoadInt_e@2:
  00212	c6 45 e1 ec	 mov	 BYTE PTR __k$[ebp+1], -20 ; ffffffecH
  00216	eb 04		 jmp	 SHORT $LN1@LoadInt_e@2
$LN96@LoadInt_e@2:
  00218	c6 45 e0 ed	 mov	 BYTE PTR __k$[ebp], -19	; ffffffedH
$LN1@LoadInt_e@2:
  0021c	6a 05		 push	 5
  0021e	8d 45 e0	 lea	 eax, DWORD PTR __k$[ebp]
  00221	c6 45 f4 00	 mov	 BYTE PTR __k$[ebp+20], 0
  00225	5a		 pop	 edx
$LL104@LoadInt_e@2:
  00226	81 30 ed ec eb
	ea		 xor	 DWORD PTR [eax], -353637139 ; eaebecedH
  0022c	83 c0 04	 add	 eax, 4
  0022f	4a		 dec	 edx
  00230	75 f4		 jne	 SHORT $LL104@LoadInt_e@2

; 120  : 		return LoadInt(_k, i);

  00232	ff 75 0c	 push	 DWORD PTR _i$[ebp]
  00235	8d 45 e0	 lea	 eax, DWORD PTR __k$[ebp]
  00238	50		 push	 eax
  00239	8b ce		 mov	 ecx, esi
  0023b	ff 15 00 00 00
	00		 call	 DWORD PTR __imp_?LoadInt@ioINILoader@@QAEHPBDH@Z

; 121  : 	}

  00241	8b 4d fc	 mov	 ecx, DWORD PTR __$ArrayPad$[ebp]
  00244	5e		 pop	 esi
  00245	33 cd		 xor	 ecx, ebp
  00247	5b		 pop	 ebx
  00248	e8 00 00 00 00	 call	 @__security_check_cookie@4
  0024d	c9		 leave
  0024e	c2 08 00	 ret	 8
??$LoadInt_e@$0BF@@ioINILoader@@QAEHAAY0BF@$$CBDH@Z ENDP ; ioINILoader::LoadInt_e<21>
_TEXT	ENDS
PUBLIC	__$ArrayPad$
PUBLIC	??$LoadAttackAttribute_e@$0O@@@YAXAAY0O@$$CBDAAUAttackAttribute@@AAVioINILoader@@@Z ; LoadAttackAttribute_e<14>
EXTRN	?LoadAttackAttribute@@YAXPBDAAUAttackAttribute@@AAVioINILoader@@@Z:PROC ; LoadAttackAttribute
; Function compile flags: /Ogsp
; File d:\lost saga for developer\youtube\tutorial\source\src\lsclient\ioattackattribute.h
;	COMDAT ??$LoadAttackAttribute_e@$0O@@@YAXAAY0O@$$CBDAAUAttackAttribute@@AAVioINILoader@@@Z
_TEXT	SEGMENT
_szEncAttack$ = -24					; size = 14
__$ArrayPad$ = -4					; size = 4
_szAttack$ = 8						; size = 4
_rkAttribute$ = 12					; size = 4
_rkLoader$ = 16						; size = 4
??$LoadAttackAttribute_e@$0O@@@YAXAAY0O@$$CBDAAUAttackAttribute@@AAVioINILoader@@@Z PROC ; LoadAttackAttribute_e<14>, COMDAT

; 131  : {

  00000	55		 push	 ebp
  00001	8b ec		 mov	 ebp, esp
  00003	83 ec 18	 sub	 esp, 24			; 00000018H
  00006	a1 00 00 00 00	 mov	 eax, DWORD PTR ___security_cookie
  0000b	33 c5		 xor	 eax, ebp
  0000d	89 45 fc	 mov	 DWORD PTR __$ArrayPad$[ebp], eax
  00010	8b 45 08	 mov	 eax, DWORD PTR _szAttack$[ebp]

; 132  : 	_ENCSTR(szAttack, szEncAttack);

  00013	8a 08		 mov	 cl, BYTE PTR [eax]
  00015	56		 push	 esi
  00016	8b 75 0c	 mov	 esi, DWORD PTR _rkAttribute$[ebp]
  00019	57		 push	 edi
  0001a	8b 7d 10	 mov	 edi, DWORD PTR _rkLoader$[ebp]
  0001d	84 c9		 test	 cl, cl
  0001f	0f 84 60 01 00
	00		 je	 $LN96@LoadAttack
  00025	80 f1 ed	 xor	 cl, -19			; ffffffedH
  00028	88 4d e8	 mov	 BYTE PTR _szEncAttack$[ebp], cl
  0002b	8a 48 01	 mov	 cl, BYTE PTR [eax+1]
  0002e	84 c9		 test	 cl, cl
  00030	0f 84 49 01 00
	00		 je	 $LN95@LoadAttack
  00036	80 f1 ec	 xor	 cl, -20			; ffffffecH
  00039	88 4d e9	 mov	 BYTE PTR _szEncAttack$[ebp+1], cl
  0003c	8a 48 02	 mov	 cl, BYTE PTR [eax+2]
  0003f	84 c9		 test	 cl, cl
  00041	0f 84 32 01 00
	00		 je	 $LN94@LoadAttack
  00047	80 f1 eb	 xor	 cl, -21			; ffffffebH
  0004a	88 4d ea	 mov	 BYTE PTR _szEncAttack$[ebp+2], cl
  0004d	8a 48 03	 mov	 cl, BYTE PTR [eax+3]
  00050	84 c9		 test	 cl, cl
  00052	0f 84 1b 01 00
	00		 je	 $LN93@LoadAttack
  00058	b2 ea		 mov	 dl, -22			; ffffffeaH
  0005a	32 ca		 xor	 cl, dl
  0005c	88 4d eb	 mov	 BYTE PTR _szEncAttack$[ebp+3], cl
  0005f	8a 48 04	 mov	 cl, BYTE PTR [eax+4]
  00062	84 c9		 test	 cl, cl
  00064	0f 84 03 01 00
	00		 je	 $LN92@LoadAttack
  0006a	80 f1 ed	 xor	 cl, -19			; ffffffedH
  0006d	88 4d ec	 mov	 BYTE PTR _szEncAttack$[ebp+4], cl
  00070	8a 48 05	 mov	 cl, BYTE PTR [eax+5]
  00073	84 c9		 test	 cl, cl
  00075	0f 84 ec 00 00
	00		 je	 $LN91@LoadAttack
  0007b	80 f1 ec	 xor	 cl, -20			; ffffffecH
  0007e	88 4d ed	 mov	 BYTE PTR _szEncAttack$[ebp+5], cl
  00081	8a 48 06	 mov	 cl, BYTE PTR [eax+6]
  00084	84 c9		 test	 cl, cl
  00086	0f 84 d5 00 00
	00		 je	 $LN90@LoadAttack
  0008c	80 f1 eb	 xor	 cl, -21			; ffffffebH
  0008f	88 4d ee	 mov	 BYTE PTR _szEncAttack$[ebp+6], cl
  00092	8a 48 07	 mov	 cl, BYTE PTR [eax+7]
  00095	84 c9		 test	 cl, cl
  00097	0f 84 bf 00 00
	00		 je	 $LN89@LoadAttack
  0009d	32 ca		 xor	 cl, dl
  0009f	88 4d ef	 mov	 BYTE PTR _szEncAttack$[ebp+7], cl
  000a2	8a 48 08	 mov	 cl, BYTE PTR [eax+8]
  000a5	84 c9		 test	 cl, cl
  000a7	0f 84 a9 00 00
	00		 je	 $LN88@LoadAttack
  000ad	80 f1 ed	 xor	 cl, -19			; ffffffedH
  000b0	88 4d f0	 mov	 BYTE PTR _szEncAttack$[ebp+8], cl
  000b3	8a 48 09	 mov	 cl, BYTE PTR [eax+9]
  000b6	84 c9		 test	 cl, cl
  000b8	0f 84 92 00 00
	00		 je	 $LN87@LoadAttack
  000be	80 f1 ec	 xor	 cl, -20			; ffffffecH
  000c1	88 4d f1	 mov	 BYTE PTR _szEncAttack$[ebp+9], cl
  000c4	8a 48 0a	 mov	 cl, BYTE PTR [eax+10]
  000c7	84 c9		 test	 cl, cl
  000c9	74 7f		 je	 SHORT $LN86@LoadAttack
  000cb	80 f1 eb	 xor	 cl, -21			; ffffffebH
  000ce	88 4d f2	 mov	 BYTE PTR _szEncAttack$[ebp+10], cl
  000d1	8a 48 0b	 mov	 cl, BYTE PTR [eax+11]
  000d4	84 c9		 test	 cl, cl
  000d6	74 6d		 je	 SHORT $LN85@LoadAttack
  000d8	32 ca		 xor	 cl, dl
  000da	88 4d f3	 mov	 BYTE PTR _szEncAttack$[ebp+11], cl
  000dd	8a 48 0c	 mov	 cl, BYTE PTR [eax+12]
  000e0	84 c9		 test	 cl, cl
  000e2	74 5b		 je	 SHORT $LN84@LoadAttack
  000e4	80 f1 ed	 xor	 cl, -19			; ffffffedH
  000e7	80 78 0d 00	 cmp	 BYTE PTR [eax+13], 0
  000eb	88 4d f4	 mov	 BYTE PTR _szEncAttack$[ebp+12], cl
  000ee	0f 84 95 00 00
	00		 je	 $LN1@LoadAttack
  000f4	8a 48 0e	 mov	 cl, BYTE PTR [eax+14]
  000f7	84 c9		 test	 cl, cl
  000f9	74 3e		 je	 SHORT $LN82@LoadAttack
  000fb	80 f1 eb	 xor	 cl, -21			; ffffffebH
  000fe	88 4d f6	 mov	 BYTE PTR _szEncAttack$[ebp+14], cl
  00101	8a 48 0f	 mov	 cl, BYTE PTR [eax+15]
  00104	84 c9		 test	 cl, cl
  00106	74 2c		 je	 SHORT $LN81@LoadAttack
  00108	32 ca		 xor	 cl, dl
  0010a	88 4d f7	 mov	 BYTE PTR _szEncAttack$[ebp+15], cl
  0010d	8a 48 10	 mov	 cl, BYTE PTR [eax+16]
  00110	84 c9		 test	 cl, cl
  00112	74 1a		 je	 SHORT $LN80@LoadAttack
  00114	8a 40 11	 mov	 al, BYTE PTR [eax+17]
  00117	80 f1 ed	 xor	 cl, -19			; ffffffedH
  0011a	88 4d f8	 mov	 BYTE PTR _szEncAttack$[ebp+16], cl
  0011d	84 c0		 test	 al, al
  0011f	74 07		 je	 SHORT $LN79@LoadAttack
  00121	34 ec		 xor	 al, -20			; ffffffecH
  00123	88 45 f9	 mov	 BYTE PTR _szEncAttack$[ebp+17], al
  00126	eb 61		 jmp	 SHORT $LN1@LoadAttack
$LN79@LoadAttack:
  00128	c6 45 f9 ec	 mov	 BYTE PTR _szEncAttack$[ebp+17], -20 ; ffffffecH
  0012c	eb 5b		 jmp	 SHORT $LN1@LoadAttack
$LN80@LoadAttack:
  0012e	c6 45 f8 ed	 mov	 BYTE PTR _szEncAttack$[ebp+16], -19 ; ffffffedH
  00132	eb 55		 jmp	 SHORT $LN1@LoadAttack
$LN81@LoadAttack:
  00134	88 55 f7	 mov	 BYTE PTR _szEncAttack$[ebp+15], dl
  00137	eb 50		 jmp	 SHORT $LN1@LoadAttack
$LN82@LoadAttack:
  00139	c6 45 f6 eb	 mov	 BYTE PTR _szEncAttack$[ebp+14], -21 ; ffffffebH
  0013d	eb 4a		 jmp	 SHORT $LN1@LoadAttack
$LN84@LoadAttack:
  0013f	c6 45 f4 ed	 mov	 BYTE PTR _szEncAttack$[ebp+12], -19 ; ffffffedH
  00143	eb 44		 jmp	 SHORT $LN1@LoadAttack
$LN85@LoadAttack:
  00145	88 55 f3	 mov	 BYTE PTR _szEncAttack$[ebp+11], dl
  00148	eb 3f		 jmp	 SHORT $LN1@LoadAttack
$LN86@LoadAttack:
  0014a	c6 45 f2 eb	 mov	 BYTE PTR _szEncAttack$[ebp+10], -21 ; ffffffebH
  0014e	eb 39		 jmp	 SHORT $LN1@LoadAttack
$LN87@LoadAttack:
  00150	c6 45 f1 ec	 mov	 BYTE PTR _szEncAttack$[ebp+9], -20 ; ffffffecH
  00154	eb 33		 jmp	 SHORT $LN1@LoadAttack
$LN88@LoadAttack:
  00156	c6 45 f0 ed	 mov	 BYTE PTR _szEncAttack$[ebp+8], -19 ; ffffffedH
  0015a	eb 2d		 jmp	 SHORT $LN1@LoadAttack
$LN89@LoadAttack:
  0015c	88 55 ef	 mov	 BYTE PTR _szEncAttack$[ebp+7], dl
  0015f	eb 28		 jmp	 SHORT $LN1@LoadAttack
$LN90@LoadAttack:
  00161	c6 45 ee eb	 mov	 BYTE PTR _szEncAttack$[ebp+6], -21 ; ffffffebH
  00165	eb 22		 jmp	 SHORT $LN1@LoadAttack
$LN91@LoadAttack:
  00167	c6 45 ed ec	 mov	 BYTE PTR _szEncAttack$[ebp+5], -20 ; ffffffecH
  0016b	eb 1c		 jmp	 SHORT $LN1@LoadAttack
$LN92@LoadAttack:
  0016d	c6 45 ec ed	 mov	 BYTE PTR _szEncAttack$[ebp+4], -19 ; ffffffedH
  00171	eb 16		 jmp	 SHORT $LN1@LoadAttack
$LN93@LoadAttack:
  00173	c6 45 eb ea	 mov	 BYTE PTR _szEncAttack$[ebp+3], -22 ; ffffffeaH
  00177	eb 10		 jmp	 SHORT $LN1@LoadAttack
$LN94@LoadAttack:
  00179	c6 45 ea eb	 mov	 BYTE PTR _szEncAttack$[ebp+2], -21 ; ffffffebH
  0017d	eb 0a		 jmp	 SHORT $LN1@LoadAttack
$LN95@LoadAttack:
  0017f	c6 45 e9 ec	 mov	 BYTE PTR _szEncAttack$[ebp+1], -20 ; ffffffecH
  00183	eb 04		 jmp	 SHORT $LN1@LoadAttack
$LN96@LoadAttack:
  00185	c6 45 e8 ed	 mov	 BYTE PTR _szEncAttack$[ebp], -19 ; ffffffedH
$LN1@LoadAttack:
  00189	6a 03		 push	 3
  0018b	8d 45 e8	 lea	 eax, DWORD PTR _szEncAttack$[ebp]
  0018e	c6 45 f5 00	 mov	 BYTE PTR _szEncAttack$[ebp+13], 0
  00192	59		 pop	 ecx
$LL104@LoadAttack:
  00193	81 30 ed ec eb
	ea		 xor	 DWORD PTR [eax], -353637139 ; eaebecedH
  00199	83 c0 04	 add	 eax, 4
  0019c	49		 dec	 ecx
  0019d	75 f4		 jne	 SHORT $LL104@LoadAttack
  0019f	80 75 f4 ed	 xor	 BYTE PTR _szEncAttack$[ebp+12], -19 ; ffffffedH

; 133  : 	LoadAttackAttribute(szEncAttack, rkAttribute, rkLoader);

  001a3	57		 push	 edi
  001a4	8d 45 e8	 lea	 eax, DWORD PTR _szEncAttack$[ebp]
  001a7	56		 push	 esi
  001a8	50		 push	 eax
  001a9	e8 00 00 00 00	 call	 ?LoadAttackAttribute@@YAXPBDAAUAttackAttribute@@AAVioINILoader@@@Z ; LoadAttackAttribute

; 134  : }

  001ae	8b 4d fc	 mov	 ecx, DWORD PTR __$ArrayPad$[ebp]
  001b1	83 c4 0c	 add	 esp, 12			; 0000000cH
  001b4	5f		 pop	 edi
  001b5	33 cd		 xor	 ecx, ebp
  001b7	5e		 pop	 esi
  001b8	e8 00 00 00 00	 call	 @__security_check_cookie@4
  001bd	c9		 leave
  001be	c3		 ret	 0
??$LoadAttackAttribute_e@$0O@@@YAXAAY0O@$$CBDAAUAttackAttribute@@AAVioINILoader@@@Z ENDP ; LoadAttackAttribute_e<14>
_TEXT	ENDS
PUBLIC	__$ArrayPad$
PUBLIC	??$LoadAttackAttribute_e@$0BE@@@YAXAAY0BE@$$CBDAAUAttackAttribute@@AAVioINILoader@@@Z ; LoadAttackAttribute_e<20>
; Function compile flags: /Ogsp
;	COMDAT ??$LoadAttackAttribute_e@$0BE@@@YAXAAY0BE@$$CBDAAUAttackAttribute@@AAVioINILoader@@@Z
_TEXT	SEGMENT
_szEncAttack$ = -28					; size = 20
__$ArrayPad$ = -4					; size = 4
_szAttack$ = 8						; size = 4
_rkAttribute$ = 12					; size = 4
_rkLoader$ = 16						; size = 4
??$LoadAttackAttribute_e@$0BE@@@YAXAAY0BE@$$CBDAAUAttackAttribute@@AAVioINILoader@@@Z PROC ; LoadAttackAttribute_e<20>, COMDAT

; 131  : {

  00000	55		 push	 ebp
  00001	8b ec		 mov	 ebp, esp
  00003	83 ec 1c	 sub	 esp, 28			; 0000001cH
  00006	a1 00 00 00 00	 mov	 eax, DWORD PTR ___security_cookie
  0000b	33 c5		 xor	 eax, ebp
  0000d	89 45 fc	 mov	 DWORD PTR __$ArrayPad$[ebp], eax
  00010	8b 45 08	 mov	 eax, DWORD PTR _szAttack$[ebp]

; 132  : 	_ENCSTR(szAttack, szEncAttack);

  00013	8a 08		 mov	 cl, BYTE PTR [eax]
  00015	53		 push	 ebx
  00016	56		 push	 esi
  00017	8b 75 0c	 mov	 esi, DWORD PTR _rkAttribute$[ebp]
  0001a	57		 push	 edi
  0001b	8b 7d 10	 mov	 edi, DWORD PTR _rkLoader$[ebp]
  0001e	84 c9		 test	 cl, cl
  00020	0f 84 dd 01 00
	00		 je	 $LN96@LoadAttack@2
  00026	80 f1 ed	 xor	 cl, -19			; ffffffedH
  00029	88 4d e4	 mov	 BYTE PTR _szEncAttack$[ebp], cl
  0002c	8a 48 01	 mov	 cl, BYTE PTR [eax+1]
  0002f	84 c9		 test	 cl, cl
  00031	0f 84 c6 01 00
	00		 je	 $LN95@LoadAttack@2
  00037	b2 ec		 mov	 dl, -20			; ffffffecH
  00039	32 ca		 xor	 cl, dl
  0003b	88 4d e5	 mov	 BYTE PTR _szEncAttack$[ebp+1], cl
  0003e	8a 48 02	 mov	 cl, BYTE PTR [eax+2]
  00041	84 c9		 test	 cl, cl
  00043	0f 84 ae 01 00
	00		 je	 $LN94@LoadAttack@2
  00049	b3 eb		 mov	 bl, -21			; ffffffebH
  0004b	32 cb		 xor	 cl, bl
  0004d	88 4d e6	 mov	 BYTE PTR _szEncAttack$[ebp+2], cl
  00050	8a 48 03	 mov	 cl, BYTE PTR [eax+3]
  00053	84 c9		 test	 cl, cl
  00055	0f 84 96 01 00
	00		 je	 $LN93@LoadAttack@2
  0005b	80 f1 ea	 xor	 cl, -22			; ffffffeaH
  0005e	88 4d e7	 mov	 BYTE PTR _szEncAttack$[ebp+3], cl
  00061	8a 48 04	 mov	 cl, BYTE PTR [eax+4]
  00064	84 c9		 test	 cl, cl
  00066	0f 84 7f 01 00
	00		 je	 $LN92@LoadAttack@2
  0006c	80 f1 ed	 xor	 cl, -19			; ffffffedH
  0006f	88 4d e8	 mov	 BYTE PTR _szEncAttack$[ebp+4], cl
  00072	8a 48 05	 mov	 cl, BYTE PTR [eax+5]
  00075	84 c9		 test	 cl, cl
  00077	0f 84 69 01 00
	00		 je	 $LN91@LoadAttack@2
  0007d	32 ca		 xor	 cl, dl
  0007f	88 4d e9	 mov	 BYTE PTR _szEncAttack$[ebp+5], cl
  00082	8a 48 06	 mov	 cl, BYTE PTR [eax+6]
  00085	84 c9		 test	 cl, cl
  00087	0f 84 54 01 00
	00		 je	 $LN90@LoadAttack@2
  0008d	32 cb		 xor	 cl, bl
  0008f	88 4d ea	 mov	 BYTE PTR _szEncAttack$[ebp+6], cl
  00092	8a 48 07	 mov	 cl, BYTE PTR [eax+7]
  00095	84 c9		 test	 cl, cl
  00097	0f 84 3e 01 00
	00		 je	 $LN89@LoadAttack@2
  0009d	80 f1 ea	 xor	 cl, -22			; ffffffeaH
  000a0	88 4d eb	 mov	 BYTE PTR _szEncAttack$[ebp+7], cl
  000a3	8a 48 08	 mov	 cl, BYTE PTR [eax+8]
  000a6	84 c9		 test	 cl, cl
  000a8	0f 84 27 01 00
	00		 je	 $LN88@LoadAttack@2
  000ae	80 f1 ed	 xor	 cl, -19			; ffffffedH
  000b1	88 4d ec	 mov	 BYTE PTR _szEncAttack$[ebp+8], cl
  000b4	8a 48 09	 mov	 cl, BYTE PTR [eax+9]
  000b7	84 c9		 test	 cl, cl
  000b9	0f 84 11 01 00
	00		 je	 $LN87@LoadAttack@2
  000bf	32 ca		 xor	 cl, dl
  000c1	88 4d ed	 mov	 BYTE PTR _szEncAttack$[ebp+9], cl
  000c4	8a 48 0a	 mov	 cl, BYTE PTR [eax+10]
  000c7	84 c9		 test	 cl, cl
  000c9	0f 84 fc 00 00
	00		 je	 $LN86@LoadAttack@2
  000cf	32 cb		 xor	 cl, bl
  000d1	88 4d ee	 mov	 BYTE PTR _szEncAttack$[ebp+10], cl
  000d4	8a 48 0b	 mov	 cl, BYTE PTR [eax+11]
  000d7	84 c9		 test	 cl, cl
  000d9	0f 84 e6 00 00
	00		 je	 $LN85@LoadAttack@2
  000df	80 f1 ea	 xor	 cl, -22			; ffffffeaH
  000e2	88 4d ef	 mov	 BYTE PTR _szEncAttack$[ebp+11], cl
  000e5	8a 48 0c	 mov	 cl, BYTE PTR [eax+12]
  000e8	84 c9		 test	 cl, cl
  000ea	0f 84 cf 00 00
	00		 je	 $LN84@LoadAttack@2
  000f0	80 f1 ed	 xor	 cl, -19			; ffffffedH
  000f3	88 4d f0	 mov	 BYTE PTR _szEncAttack$[ebp+12], cl
  000f6	8a 48 0d	 mov	 cl, BYTE PTR [eax+13]
  000f9	84 c9		 test	 cl, cl
  000fb	0f 84 b9 00 00
	00		 je	 $LN83@LoadAttack@2
  00101	32 ca		 xor	 cl, dl
  00103	88 4d f1	 mov	 BYTE PTR _szEncAttack$[ebp+13], cl
  00106	8a 48 0e	 mov	 cl, BYTE PTR [eax+14]
  00109	84 c9		 test	 cl, cl
  0010b	0f 84 a4 00 00
	00		 je	 $LN82@LoadAttack@2
  00111	32 cb		 xor	 cl, bl
  00113	88 4d f2	 mov	 BYTE PTR _szEncAttack$[ebp+14], cl
  00116	8a 48 0f	 mov	 cl, BYTE PTR [eax+15]
  00119	84 c9		 test	 cl, cl
  0011b	0f 84 8e 00 00
	00		 je	 $LN81@LoadAttack@2
  00121	80 f1 ea	 xor	 cl, -22			; ffffffeaH
  00124	88 4d f3	 mov	 BYTE PTR _szEncAttack$[ebp+15], cl
  00127	8a 48 10	 mov	 cl, BYTE PTR [eax+16]
  0012a	84 c9		 test	 cl, cl
  0012c	74 7b		 je	 SHORT $LN80@LoadAttack@2
  0012e	80 f1 ed	 xor	 cl, -19			; ffffffedH
  00131	88 4d f4	 mov	 BYTE PTR _szEncAttack$[ebp+16], cl
  00134	8a 48 11	 mov	 cl, BYTE PTR [eax+17]
  00137	84 c9		 test	 cl, cl
  00139	74 69		 je	 SHORT $LN79@LoadAttack@2
  0013b	32 ca		 xor	 cl, dl
  0013d	88 4d f5	 mov	 BYTE PTR _szEncAttack$[ebp+17], cl
  00140	8a 48 12	 mov	 cl, BYTE PTR [eax+18]
  00143	84 c9		 test	 cl, cl
  00145	74 58		 je	 SHORT $LN78@LoadAttack@2
  00147	32 cb		 xor	 cl, bl
  00149	80 78 13 00	 cmp	 BYTE PTR [eax+19], 0
  0014d	88 4d f6	 mov	 BYTE PTR _szEncAttack$[ebp+18], cl
  00150	0f 84 b1 00 00
	00		 je	 $LN1@LoadAttack@2
  00156	8a 48 14	 mov	 cl, BYTE PTR [eax+20]
  00159	84 c9		 test	 cl, cl
  0015b	74 3c		 je	 SHORT $LN76@LoadAttack@2
  0015d	80 f1 ed	 xor	 cl, -19			; ffffffedH
  00160	88 4d f8	 mov	 BYTE PTR _szEncAttack$[ebp+20], cl
  00163	8a 48 15	 mov	 cl, BYTE PTR [eax+21]
  00166	84 c9		 test	 cl, cl
  00168	74 2a		 je	 SHORT $LN75@LoadAttack@2
  0016a	32 ca		 xor	 cl, dl
  0016c	88 4d f9	 mov	 BYTE PTR _szEncAttack$[ebp+21], cl
  0016f	8a 48 16	 mov	 cl, BYTE PTR [eax+22]
  00172	84 c9		 test	 cl, cl
  00174	74 19		 je	 SHORT $LN74@LoadAttack@2
  00176	8a 40 17	 mov	 al, BYTE PTR [eax+23]
  00179	32 cb		 xor	 cl, bl
  0017b	88 4d fa	 mov	 BYTE PTR _szEncAttack$[ebp+22], cl
  0017e	84 c0		 test	 al, al
  00180	74 07		 je	 SHORT $LN73@LoadAttack@2
  00182	34 ea		 xor	 al, -22			; ffffffeaH
  00184	88 45 fb	 mov	 BYTE PTR _szEncAttack$[ebp+23], al
  00187	eb 7e		 jmp	 SHORT $LN1@LoadAttack@2
$LN73@LoadAttack@2:
  00189	c6 45 fb ea	 mov	 BYTE PTR _szEncAttack$[ebp+23], -22 ; ffffffeaH
  0018d	eb 78		 jmp	 SHORT $LN1@LoadAttack@2
$LN74@LoadAttack@2:
  0018f	88 5d fa	 mov	 BYTE PTR _szEncAttack$[ebp+22], bl
  00192	eb 73		 jmp	 SHORT $LN1@LoadAttack@2
$LN75@LoadAttack@2:
  00194	88 55 f9	 mov	 BYTE PTR _szEncAttack$[ebp+21], dl
  00197	eb 6e		 jmp	 SHORT $LN1@LoadAttack@2
$LN76@LoadAttack@2:
  00199	c6 45 f8 ed	 mov	 BYTE PTR _szEncAttack$[ebp+20], -19 ; ffffffedH
  0019d	eb 68		 jmp	 SHORT $LN1@LoadAttack@2
$LN78@LoadAttack@2:
  0019f	88 5d f6	 mov	 BYTE PTR _szEncAttack$[ebp+18], bl
  001a2	eb 63		 jmp	 SHORT $LN1@LoadAttack@2
$LN79@LoadAttack@2:
  001a4	88 55 f5	 mov	 BYTE PTR _szEncAttack$[ebp+17], dl
  001a7	eb 5e		 jmp	 SHORT $LN1@LoadAttack@2
$LN80@LoadAttack@2:
  001a9	c6 45 f4 ed	 mov	 BYTE PTR _szEncAttack$[ebp+16], -19 ; ffffffedH
  001ad	eb 58		 jmp	 SHORT $LN1@LoadAttack@2
$LN81@LoadAttack@2:
  001af	c6 45 f3 ea	 mov	 BYTE PTR _szEncAttack$[ebp+15], -22 ; ffffffeaH
  001b3	eb 52		 jmp	 SHORT $LN1@LoadAttack@2
$LN82@LoadAttack@2:
  001b5	88 5d f2	 mov	 BYTE PTR _szEncAttack$[ebp+14], bl
  001b8	eb 4d		 jmp	 SHORT $LN1@LoadAttack@2
$LN83@LoadAttack@2:
  001ba	88 55 f1	 mov	 BYTE PTR _szEncAttack$[ebp+13], dl
  001bd	eb 48		 jmp	 SHORT $LN1@LoadAttack@2
$LN84@LoadAttack@2:
  001bf	c6 45 f0 ed	 mov	 BYTE PTR _szEncAttack$[ebp+12], -19 ; ffffffedH
  001c3	eb 42		 jmp	 SHORT $LN1@LoadAttack@2
$LN85@LoadAttack@2:
  001c5	c6 45 ef ea	 mov	 BYTE PTR _szEncAttack$[ebp+11], -22 ; ffffffeaH
  001c9	eb 3c		 jmp	 SHORT $LN1@LoadAttack@2
$LN86@LoadAttack@2:
  001cb	88 5d ee	 mov	 BYTE PTR _szEncAttack$[ebp+10], bl
  001ce	eb 37		 jmp	 SHORT $LN1@LoadAttack@2
$LN87@LoadAttack@2:
  001d0	88 55 ed	 mov	 BYTE PTR _szEncAttack$[ebp+9], dl
  001d3	eb 32		 jmp	 SHORT $LN1@LoadAttack@2
$LN88@LoadAttack@2:
  001d5	c6 45 ec ed	 mov	 BYTE PTR _szEncAttack$[ebp+8], -19 ; ffffffedH
  001d9	eb 2c		 jmp	 SHORT $LN1@LoadAttack@2
$LN89@LoadAttack@2:
  001db	c6 45 eb ea	 mov	 BYTE PTR _szEncAttack$[ebp+7], -22 ; ffffffeaH
  001df	eb 26		 jmp	 SHORT $LN1@LoadAttack@2
$LN90@LoadAttack@2:
  001e1	88 5d ea	 mov	 BYTE PTR _szEncAttack$[ebp+6], bl
  001e4	eb 21		 jmp	 SHORT $LN1@LoadAttack@2
$LN91@LoadAttack@2:
  001e6	88 55 e9	 mov	 BYTE PTR _szEncAttack$[ebp+5], dl
  001e9	eb 1c		 jmp	 SHORT $LN1@LoadAttack@2
$LN92@LoadAttack@2:
  001eb	c6 45 e8 ed	 mov	 BYTE PTR _szEncAttack$[ebp+4], -19 ; ffffffedH
  001ef	eb 16		 jmp	 SHORT $LN1@LoadAttack@2
$LN93@LoadAttack@2:
  001f1	c6 45 e7 ea	 mov	 BYTE PTR _szEncAttack$[ebp+3], -22 ; ffffffeaH
  001f5	eb 10		 jmp	 SHORT $LN1@LoadAttack@2
$LN94@LoadAttack@2:
  001f7	c6 45 e6 eb	 mov	 BYTE PTR _szEncAttack$[ebp+2], -21 ; ffffffebH
  001fb	eb 0a		 jmp	 SHORT $LN1@LoadAttack@2
$LN95@LoadAttack@2:
  001fd	c6 45 e5 ec	 mov	 BYTE PTR _szEncAttack$[ebp+1], -20 ; ffffffecH
  00201	eb 04		 jmp	 SHORT $LN1@LoadAttack@2
$LN96@LoadAttack@2:
  00203	c6 45 e4 ed	 mov	 BYTE PTR _szEncAttack$[ebp], -19 ; ffffffedH
$LN1@LoadAttack@2:
  00207	6a 04		 push	 4
  00209	8d 45 e4	 lea	 eax, DWORD PTR _szEncAttack$[ebp]
  0020c	c6 45 f7 00	 mov	 BYTE PTR _szEncAttack$[ebp+19], 0
  00210	59		 pop	 ecx
$LL104@LoadAttack@2:
  00211	81 30 ed ec eb
	ea		 xor	 DWORD PTR [eax], -353637139 ; eaebecedH
  00217	83 c0 04	 add	 eax, 4
  0021a	49		 dec	 ecx
  0021b	75 f4		 jne	 SHORT $LL104@LoadAttack@2
  0021d	6a 10		 push	 16			; 00000010H
  0021f	58		 pop	 eax
$LL101@LoadAttack@2:
  00220	8b c8		 mov	 ecx, eax
  00222	81 e1 03 00 00
	80		 and	 ecx, -2147483645	; 80000003H
  00228	79 05		 jns	 SHORT $LN111@LoadAttack@2
  0022a	49		 dec	 ecx
  0022b	83 c9 fc	 or	 ecx, -4			; fffffffcH
  0022e	41		 inc	 ecx
$LN111@LoadAttack@2:
  0022f	b2 ed		 mov	 dl, -19			; ffffffedH
  00231	2a d1		 sub	 dl, cl
  00233	30 54 05 e4	 xor	 BYTE PTR _szEncAttack$[ebp+eax], dl
  00237	40		 inc	 eax
  00238	83 f8 13	 cmp	 eax, 19			; 00000013H
  0023b	7c e3		 jl	 SHORT $LL101@LoadAttack@2

; 133  : 	LoadAttackAttribute(szEncAttack, rkAttribute, rkLoader);

  0023d	57		 push	 edi
  0023e	8d 45 e4	 lea	 eax, DWORD PTR _szEncAttack$[ebp]
  00241	56		 push	 esi
  00242	50		 push	 eax
  00243	e8 00 00 00 00	 call	 ?LoadAttackAttribute@@YAXPBDAAUAttackAttribute@@AAVioINILoader@@@Z ; LoadAttackAttribute

; 134  : }

  00248	8b 4d fc	 mov	 ecx, DWORD PTR __$ArrayPad$[ebp]
  0024b	83 c4 0c	 add	 esp, 12			; 0000000cH
  0024e	5f		 pop	 edi
  0024f	5e		 pop	 esi
  00250	33 cd		 xor	 ecx, ebp
  00252	5b		 pop	 ebx
  00253	e8 00 00 00 00	 call	 @__security_check_cookie@4
  00258	c9		 leave
  00259	c3		 ret	 0
??$LoadAttackAttribute_e@$0BE@@@YAXAAY0BE@$$CBDAAUAttackAttribute@@AAVioINILoader@@@Z ENDP ; LoadAttackAttribute_e<20>
_TEXT	ENDS
PUBLIC	??$GetAnimationEventTime_e@$0N@@ioEntityGroup@@QAEMHAAY0N@$$CBD@Z ; ioEntityGroup::GetAnimationEventTime_e<13>
EXTRN	__imp_?GetAnimationEventTime@ioEntityGroup@@QAEMHABVioHashString@@@Z:PROC
EXTRN	__imp_??0ioHashString@@QAE@PBD@Z:PROC
EXTRN	___CxxFrameHandler3:PROC
EXTRN	__EH_epilog3_GS:PROC
EXTRN	__EH_prolog3_GS:PROC
;	COMDAT xdata$x
; File d:\lost saga for developer\youtube\tutorial\source\src\lsclient\stringprotect.h
xdata$x	SEGMENT
__unwindtable$??$GetAnimationEventTime_e@$0N@@ioEntityGroup@@QAEMHAAY0N@$$CBD@Z DD 0ffffffffH
	DD	FLAT:__unwindfunclet$??$GetAnimationEventTime_e@$0N@@ioEntityGroup@@QAEMHAAY0N@$$CBD@Z$0
__ehfuncinfo$??$GetAnimationEventTime_e@$0N@@ioEntityGroup@@QAEMHAAY0N@$$CBD@Z DD 019930522H
	DD	01H
	DD	FLAT:__unwindtable$??$GetAnimationEventTime_e@$0N@@ioEntityGroup@@QAEMHAAY0N@$$CBD@Z
	DD	2 DUP(00H)
	DD	2 DUP(00H)
	DD	00H
	DD	01H
; Function compile flags: /Ogsp
; File d:\lost saga for developer\youtube\tutorial\source\src\io3dengine\ioentitygroup.h
xdata$x	ENDS
;	COMDAT ??$GetAnimationEventTime_e@$0N@@ioEntityGroup@@QAEMHAAY0N@$$CBD@Z
_TEXT	SEGMENT
$T553005 = -56						; size = 16
$T553004 = -40						; size = 4
_szEncEventType$ = -36					; size = 13
__$EHRec$ = -12						; size = 12
_id$ = 8						; size = 4
_szEventType$ = 12					; size = 4
??$GetAnimationEventTime_e@$0N@@ioEntityGroup@@QAEMHAAY0N@$$CBD@Z PROC ; ioEntityGroup::GetAnimationEventTime_e<13>, COMDAT
; _this$ = ecx

; 414  : 	{

  00000	6a 2c		 push	 44			; 0000002cH
  00002	b8 00 00 00 00	 mov	 eax, __ehhandler$??$GetAnimationEventTime_e@$0N@@ioEntityGroup@@QAEMHAAY0N@$$CBD@Z
  00007	e8 00 00 00 00	 call	 __EH_prolog3_GS
  0000c	8b 45 0c	 mov	 eax, DWORD PTR _szEventType$[ebp]
  0000f	8b f1		 mov	 esi, ecx

; 415  : 		_ENCSTR(szEventType, szEncEventType);

  00011	8a 08		 mov	 cl, BYTE PTR [eax]
  00013	84 c9		 test	 cl, cl
  00015	0f 84 49 01 00
	00		 je	 $LN96@GetAnimati
  0001b	80 f1 ed	 xor	 cl, -19			; ffffffedH
  0001e	88 4d dc	 mov	 BYTE PTR _szEncEventType$[ebp], cl
  00021	8a 48 01	 mov	 cl, BYTE PTR [eax+1]
  00024	84 c9		 test	 cl, cl
  00026	0f 84 32 01 00
	00		 je	 $LN95@GetAnimati
  0002c	80 f1 ec	 xor	 cl, -20			; ffffffecH
  0002f	88 4d dd	 mov	 BYTE PTR _szEncEventType$[ebp+1], cl
  00032	8a 48 02	 mov	 cl, BYTE PTR [eax+2]
  00035	84 c9		 test	 cl, cl
  00037	0f 84 1b 01 00
	00		 je	 $LN94@GetAnimati
  0003d	b2 eb		 mov	 dl, -21			; ffffffebH
  0003f	32 ca		 xor	 cl, dl
  00041	88 4d de	 mov	 BYTE PTR _szEncEventType$[ebp+2], cl
  00044	8a 48 03	 mov	 cl, BYTE PTR [eax+3]
  00047	84 c9		 test	 cl, cl
  00049	0f 84 03 01 00
	00		 je	 $LN93@GetAnimati
  0004f	80 f1 ea	 xor	 cl, -22			; ffffffeaH
  00052	88 4d df	 mov	 BYTE PTR _szEncEventType$[ebp+3], cl
  00055	8a 48 04	 mov	 cl, BYTE PTR [eax+4]
  00058	84 c9		 test	 cl, cl
  0005a	0f 84 ec 00 00
	00		 je	 $LN92@GetAnimati
  00060	80 f1 ed	 xor	 cl, -19			; ffffffedH
  00063	88 4d e0	 mov	 BYTE PTR _szEncEventType$[ebp+4], cl
  00066	8a 48 05	 mov	 cl, BYTE PTR [eax+5]
  00069	84 c9		 test	 cl, cl
  0006b	0f 84 d5 00 00
	00		 je	 $LN91@GetAnimati
  00071	80 f1 ec	 xor	 cl, -20			; ffffffecH
  00074	88 4d e1	 mov	 BYTE PTR _szEncEventType$[ebp+5], cl
  00077	8a 48 06	 mov	 cl, BYTE PTR [eax+6]
  0007a	84 c9		 test	 cl, cl
  0007c	0f 84 bf 00 00
	00		 je	 $LN90@GetAnimati
  00082	32 ca		 xor	 cl, dl
  00084	88 4d e2	 mov	 BYTE PTR _szEncEventType$[ebp+6], cl
  00087	8a 48 07	 mov	 cl, BYTE PTR [eax+7]
  0008a	84 c9		 test	 cl, cl
  0008c	0f 84 a9 00 00
	00		 je	 $LN89@GetAnimati
  00092	80 f1 ea	 xor	 cl, -22			; ffffffeaH
  00095	88 4d e3	 mov	 BYTE PTR _szEncEventType$[ebp+7], cl
  00098	8a 48 08	 mov	 cl, BYTE PTR [eax+8]
  0009b	84 c9		 test	 cl, cl
  0009d	0f 84 92 00 00
	00		 je	 $LN88@GetAnimati
  000a3	80 f1 ed	 xor	 cl, -19			; ffffffedH
  000a6	88 4d e4	 mov	 BYTE PTR _szEncEventType$[ebp+8], cl
  000a9	8a 48 09	 mov	 cl, BYTE PTR [eax+9]
  000ac	84 c9		 test	 cl, cl
  000ae	74 7f		 je	 SHORT $LN87@GetAnimati
  000b0	80 f1 ec	 xor	 cl, -20			; ffffffecH
  000b3	88 4d e5	 mov	 BYTE PTR _szEncEventType$[ebp+9], cl
  000b6	8a 48 0a	 mov	 cl, BYTE PTR [eax+10]
  000b9	84 c9		 test	 cl, cl
  000bb	74 6d		 je	 SHORT $LN86@GetAnimati
  000bd	32 ca		 xor	 cl, dl
  000bf	88 4d e6	 mov	 BYTE PTR _szEncEventType$[ebp+10], cl
  000c2	8a 48 0b	 mov	 cl, BYTE PTR [eax+11]
  000c5	84 c9		 test	 cl, cl
  000c7	74 5b		 je	 SHORT $LN85@GetAnimati
  000c9	80 f1 ea	 xor	 cl, -22			; ffffffeaH
  000cc	80 78 0c 00	 cmp	 BYTE PTR [eax+12], 0
  000d0	88 4d e7	 mov	 BYTE PTR _szEncEventType$[ebp+11], cl
  000d3	0f 84 8f 00 00
	00		 je	 $LN1@GetAnimati
  000d9	8a 48 0d	 mov	 cl, BYTE PTR [eax+13]
  000dc	84 c9		 test	 cl, cl
  000de	74 3e		 je	 SHORT $LN83@GetAnimati
  000e0	80 f1 ec	 xor	 cl, -20			; ffffffecH
  000e3	88 4d e9	 mov	 BYTE PTR _szEncEventType$[ebp+13], cl
  000e6	8a 48 0e	 mov	 cl, BYTE PTR [eax+14]
  000e9	84 c9		 test	 cl, cl
  000eb	74 2c		 je	 SHORT $LN82@GetAnimati
  000ed	32 ca		 xor	 cl, dl
  000ef	88 4d ea	 mov	 BYTE PTR _szEncEventType$[ebp+14], cl
  000f2	8a 48 0f	 mov	 cl, BYTE PTR [eax+15]
  000f5	84 c9		 test	 cl, cl
  000f7	74 1a		 je	 SHORT $LN81@GetAnimati
  000f9	8a 40 10	 mov	 al, BYTE PTR [eax+16]
  000fc	80 f1 ea	 xor	 cl, -22			; ffffffeaH
  000ff	88 4d eb	 mov	 BYTE PTR _szEncEventType$[ebp+15], cl
  00102	84 c0		 test	 al, al
  00104	74 07		 je	 SHORT $LN80@GetAnimati
  00106	34 ed		 xor	 al, -19			; ffffffedH
  00108	88 45 ec	 mov	 BYTE PTR _szEncEventType$[ebp+16], al
  0010b	eb 5b		 jmp	 SHORT $LN1@GetAnimati
$LN80@GetAnimati:
  0010d	c6 45 ec ed	 mov	 BYTE PTR _szEncEventType$[ebp+16], -19 ; ffffffedH
  00111	eb 55		 jmp	 SHORT $LN1@GetAnimati
$LN81@GetAnimati:
  00113	c6 45 eb ea	 mov	 BYTE PTR _szEncEventType$[ebp+15], -22 ; ffffffeaH
  00117	eb 4f		 jmp	 SHORT $LN1@GetAnimati
$LN82@GetAnimati:
  00119	88 55 ea	 mov	 BYTE PTR _szEncEventType$[ebp+14], dl
  0011c	eb 4a		 jmp	 SHORT $LN1@GetAnimati
$LN83@GetAnimati:
  0011e	c6 45 e9 ec	 mov	 BYTE PTR _szEncEventType$[ebp+13], -20 ; ffffffecH
  00122	eb 44		 jmp	 SHORT $LN1@GetAnimati
$LN85@GetAnimati:
  00124	c6 45 e7 ea	 mov	 BYTE PTR _szEncEventType$[ebp+11], -22 ; ffffffeaH
  00128	eb 3e		 jmp	 SHORT $LN1@GetAnimati
$LN86@GetAnimati:
  0012a	88 55 e6	 mov	 BYTE PTR _szEncEventType$[ebp+10], dl
  0012d	eb 39		 jmp	 SHORT $LN1@GetAnimati
$LN87@GetAnimati:
  0012f	c6 45 e5 ec	 mov	 BYTE PTR _szEncEventType$[ebp+9], -20 ; ffffffecH
  00133	eb 33		 jmp	 SHORT $LN1@GetAnimati
$LN88@GetAnimati:
  00135	c6 45 e4 ed	 mov	 BYTE PTR _szEncEventType$[ebp+8], -19 ; ffffffedH
  00139	eb 2d		 jmp	 SHORT $LN1@GetAnimati
$LN89@GetAnimati:
  0013b	c6 45 e3 ea	 mov	 BYTE PTR _szEncEventType$[ebp+7], -22 ; ffffffeaH
  0013f	eb 27		 jmp	 SHORT $LN1@GetAnimati
$LN90@GetAnimati:
  00141	88 55 e2	 mov	 BYTE PTR _szEncEventType$[ebp+6], dl
  00144	eb 22		 jmp	 SHORT $LN1@GetAnimati
$LN91@GetAnimati:
  00146	c6 45 e1 ec	 mov	 BYTE PTR _szEncEventType$[ebp+5], -20 ; ffffffecH
  0014a	eb 1c		 jmp	 SHORT $LN1@GetAnimati
$LN92@GetAnimati:
  0014c	c6 45 e0 ed	 mov	 BYTE PTR _szEncEventType$[ebp+4], -19 ; ffffffedH
  00150	eb 16		 jmp	 SHORT $LN1@GetAnimati
$LN93@GetAnimati:
  00152	c6 45 df ea	 mov	 BYTE PTR _szEncEventType$[ebp+3], -22 ; ffffffeaH
  00156	eb 10		 jmp	 SHORT $LN1@GetAnimati
$LN94@GetAnimati:
  00158	c6 45 de eb	 mov	 BYTE PTR _szEncEventType$[ebp+2], -21 ; ffffffebH
  0015c	eb 0a		 jmp	 SHORT $LN1@GetAnimati
$LN95@GetAnimati:
  0015e	c6 45 dd ec	 mov	 BYTE PTR _szEncEventType$[ebp+1], -20 ; ffffffecH
  00162	eb 04		 jmp	 SHORT $LN1@GetAnimati
$LN96@GetAnimati:
  00164	c6 45 dc ed	 mov	 BYTE PTR _szEncEventType$[ebp], -19 ; ffffffedH
$LN1@GetAnimati:
  00168	6a 03		 push	 3
  0016a	8d 45 dc	 lea	 eax, DWORD PTR _szEncEventType$[ebp]
  0016d	c6 45 e8 00	 mov	 BYTE PTR _szEncEventType$[ebp+12], 0
  00171	59		 pop	 ecx
$LL105@GetAnimati:
  00172	81 30 ed ec eb
	ea		 xor	 DWORD PTR [eax], -353637139 ; eaebecedH
  00178	83 c0 04	 add	 eax, 4
  0017b	49		 dec	 ecx
  0017c	75 f4		 jne	 SHORT $LL105@GetAnimati

; 416  : 		return GetAnimationEventTime(id, szEncEventType);

  0017e	8d 45 dc	 lea	 eax, DWORD PTR _szEncEventType$[ebp]
  00181	50		 push	 eax
  00182	8d 4d c8	 lea	 ecx, DWORD PTR $T553005[ebp]
  00185	ff 15 00 00 00
	00		 call	 DWORD PTR __imp_??0ioHashString@@QAE@PBD@Z
  0018b	83 65 fc 00	 and	 DWORD PTR __$EHRec$[ebp+8], 0
  0018f	8d 45 c8	 lea	 eax, DWORD PTR $T553005[ebp]
  00192	50		 push	 eax
  00193	ff 75 08	 push	 DWORD PTR _id$[ebp]
  00196	8b ce		 mov	 ecx, esi
  00198	ff 15 00 00 00
	00		 call	 DWORD PTR __imp_?GetAnimationEventTime@ioEntityGroup@@QAEMHABVioHashString@@@Z
  0019e	d9 5d d8	 fstp	 DWORD PTR $T553004[ebp]
  001a1	83 4d fc ff	 or	 DWORD PTR __$EHRec$[ebp+8], -1
  001a5	8d 4d c8	 lea	 ecx, DWORD PTR $T553005[ebp]
  001a8	ff 15 00 00 00
	00		 call	 DWORD PTR __imp_??1ioHashString@@QAE@XZ
  001ae	d9 45 d8	 fld	 DWORD PTR $T553004[ebp]

; 417  : 	}

  001b1	e8 00 00 00 00	 call	 __EH_epilog3_GS
  001b6	c2 08 00	 ret	 8
_TEXT	ENDS
;	COMDAT text$x
text$x	SEGMENT
__unwindfunclet$??$GetAnimationEventTime_e@$0N@@ioEntityGroup@@QAEMHAAY0N@$$CBD@Z$0:
  00000	8d 4d c8	 lea	 ecx, DWORD PTR $T553005[ebp]
  00003	ff 25 00 00 00
	00		 jmp	 DWORD PTR __imp_??1ioHashString@@QAE@XZ
__ehhandler$??$GetAnimationEventTime_e@$0N@@ioEntityGroup@@QAEMHAAY0N@$$CBD@Z:
  00009	8b 54 24 08	 mov	 edx, DWORD PTR [esp+8]
  0000d	8d 42 0c	 lea	 eax, DWORD PTR [edx+12]
  00010	8b 4a c4	 mov	 ecx, DWORD PTR [edx-60]
  00013	33 c8		 xor	 ecx, eax
  00015	e8 00 00 00 00	 call	 @__security_check_cookie@4
  0001a	8b 4a fc	 mov	 ecx, DWORD PTR [edx-4]
  0001d	33 c8		 xor	 ecx, eax
  0001f	e8 00 00 00 00	 call	 @__security_check_cookie@4
  00024	b8 00 00 00 00	 mov	 eax, OFFSET __ehfuncinfo$??$GetAnimationEventTime_e@$0N@@ioEntityGroup@@QAEMHAAY0N@$$CBD@Z
  00029	e9 00 00 00 00	 jmp	 ___CxxFrameHandler3
text$x	ENDS
??$GetAnimationEventTime_e@$0N@@ioEntityGroup@@QAEMHAAY0N@$$CBD@Z ENDP ; ioEntityGroup::GetAnimationEventTime_e<13>
PUBLIC	??$GetAnimationEventTime_e@$0M@@ioEntityGroup@@QAEMHAAY0M@$$CBD@Z ; ioEntityGroup::GetAnimationEventTime_e<12>
;	COMDAT xdata$x
; File d:\lost saga for developer\youtube\tutorial\source\src\lsclient\stringprotect.h
xdata$x	SEGMENT
__unwindtable$??$GetAnimationEventTime_e@$0M@@ioEntityGroup@@QAEMHAAY0M@$$CBD@Z DD 0ffffffffH
	DD	FLAT:__unwindfunclet$??$GetAnimationEventTime_e@$0M@@ioEntityGroup@@QAEMHAAY0M@$$CBD@Z$0
__ehfuncinfo$??$GetAnimationEventTime_e@$0M@@ioEntityGroup@@QAEMHAAY0M@$$CBD@Z DD 019930522H
	DD	01H
	DD	FLAT:__unwindtable$??$GetAnimationEventTime_e@$0M@@ioEntityGroup@@QAEMHAAY0M@$$CBD@Z
	DD	2 DUP(00H)
	DD	2 DUP(00H)
	DD	00H
	DD	01H
; Function compile flags: /Ogsp
; File d:\lost saga for developer\youtube\tutorial\source\src\io3dengine\ioentitygroup.h
xdata$x	ENDS
;	COMDAT ??$GetAnimationEventTime_e@$0M@@ioEntityGroup@@QAEMHAAY0M@$$CBD@Z
_TEXT	SEGMENT
$T553040 = -52						; size = 16
$T553039 = -36						; size = 4
_szEncEventType$ = -32					; size = 12
__$EHRec$ = -12						; size = 12
_id$ = 8						; size = 4
_szEventType$ = 12					; size = 4
??$GetAnimationEventTime_e@$0M@@ioEntityGroup@@QAEMHAAY0M@$$CBD@Z PROC ; ioEntityGroup::GetAnimationEventTime_e<12>, COMDAT
; _this$ = ecx

; 414  : 	{

  00000	6a 28		 push	 40			; 00000028H
  00002	b8 00 00 00 00	 mov	 eax, __ehhandler$??$GetAnimationEventTime_e@$0M@@ioEntityGroup@@QAEMHAAY0M@$$CBD@Z
  00007	e8 00 00 00 00	 call	 __EH_prolog3_GS
  0000c	8b 45 0c	 mov	 eax, DWORD PTR _szEventType$[ebp]
  0000f	8b f1		 mov	 esi, ecx

; 415  : 		_ENCSTR(szEventType, szEncEventType);

  00011	8a 08		 mov	 cl, BYTE PTR [eax]
  00013	84 c9		 test	 cl, cl
  00015	0f 84 36 01 00
	00		 je	 $LN96@GetAnimati@2
  0001b	b2 ed		 mov	 dl, -19			; ffffffedH
  0001d	32 ca		 xor	 cl, dl
  0001f	88 4d e0	 mov	 BYTE PTR _szEncEventType$[ebp], cl
  00022	8a 48 01	 mov	 cl, BYTE PTR [eax+1]
  00025	84 c9		 test	 cl, cl
  00027	0f 84 1e 01 00
	00		 je	 $LN95@GetAnimati@2
  0002d	80 f1 ec	 xor	 cl, -20			; ffffffecH
  00030	88 4d e1	 mov	 BYTE PTR _szEncEventType$[ebp+1], cl
  00033	8a 48 02	 mov	 cl, BYTE PTR [eax+2]
  00036	84 c9		 test	 cl, cl
  00038	0f 84 07 01 00
	00		 je	 $LN94@GetAnimati@2
  0003e	80 f1 eb	 xor	 cl, -21			; ffffffebH
  00041	88 4d e2	 mov	 BYTE PTR _szEncEventType$[ebp+2], cl
  00044	8a 48 03	 mov	 cl, BYTE PTR [eax+3]
  00047	84 c9		 test	 cl, cl
  00049	0f 84 f0 00 00
	00		 je	 $LN93@GetAnimati@2
  0004f	80 f1 ea	 xor	 cl, -22			; ffffffeaH
  00052	88 4d e3	 mov	 BYTE PTR _szEncEventType$[ebp+3], cl
  00055	8a 48 04	 mov	 cl, BYTE PTR [eax+4]
  00058	84 c9		 test	 cl, cl
  0005a	0f 84 da 00 00
	00		 je	 $LN92@GetAnimati@2
  00060	32 ca		 xor	 cl, dl
  00062	88 4d e4	 mov	 BYTE PTR _szEncEventType$[ebp+4], cl
  00065	8a 48 05	 mov	 cl, BYTE PTR [eax+5]
  00068	84 c9		 test	 cl, cl
  0006a	0f 84 c4 00 00
	00		 je	 $LN91@GetAnimati@2
  00070	80 f1 ec	 xor	 cl, -20			; ffffffecH
  00073	88 4d e5	 mov	 BYTE PTR _szEncEventType$[ebp+5], cl
  00076	8a 48 06	 mov	 cl, BYTE PTR [eax+6]
  00079	84 c9		 test	 cl, cl
  0007b	0f 84 ad 00 00
	00		 je	 $LN90@GetAnimati@2
  00081	80 f1 eb	 xor	 cl, -21			; ffffffebH
  00084	88 4d e6	 mov	 BYTE PTR _szEncEventType$[ebp+6], cl
  00087	8a 48 07	 mov	 cl, BYTE PTR [eax+7]
  0008a	84 c9		 test	 cl, cl
  0008c	0f 84 96 00 00
	00		 je	 $LN89@GetAnimati@2
  00092	80 f1 ea	 xor	 cl, -22			; ffffffeaH
  00095	88 4d e7	 mov	 BYTE PTR _szEncEventType$[ebp+7], cl
  00098	8a 48 08	 mov	 cl, BYTE PTR [eax+8]
  0009b	84 c9		 test	 cl, cl
  0009d	0f 84 80 00 00
	00		 je	 $LN88@GetAnimati@2
  000a3	32 ca		 xor	 cl, dl
  000a5	88 4d e8	 mov	 BYTE PTR _szEncEventType$[ebp+8], cl
  000a8	8a 48 09	 mov	 cl, BYTE PTR [eax+9]
  000ab	84 c9		 test	 cl, cl
  000ad	74 6e		 je	 SHORT $LN87@GetAnimati@2
  000af	80 f1 ec	 xor	 cl, -20			; ffffffecH
  000b2	88 4d e9	 mov	 BYTE PTR _szEncEventType$[ebp+9], cl
  000b5	8a 48 0a	 mov	 cl, BYTE PTR [eax+10]
  000b8	84 c9		 test	 cl, cl
  000ba	74 5b		 je	 SHORT $LN86@GetAnimati@2
  000bc	80 f1 eb	 xor	 cl, -21			; ffffffebH
  000bf	80 78 0b 00	 cmp	 BYTE PTR [eax+11], 0
  000c3	88 4d ea	 mov	 BYTE PTR _szEncEventType$[ebp+10], cl
  000c6	0f 84 89 00 00
	00		 je	 $LN1@GetAnimati@2
  000cc	8a 48 0c	 mov	 cl, BYTE PTR [eax+12]
  000cf	84 c9		 test	 cl, cl
  000d1	74 3f		 je	 SHORT $LN84@GetAnimati@2
  000d3	32 ca		 xor	 cl, dl
  000d5	88 4d ec	 mov	 BYTE PTR _szEncEventType$[ebp+12], cl
  000d8	8a 48 0d	 mov	 cl, BYTE PTR [eax+13]
  000db	84 c9		 test	 cl, cl
  000dd	74 2d		 je	 SHORT $LN83@GetAnimati@2
  000df	80 f1 ec	 xor	 cl, -20			; ffffffecH
  000e2	88 4d ed	 mov	 BYTE PTR _szEncEventType$[ebp+13], cl
  000e5	8a 48 0e	 mov	 cl, BYTE PTR [eax+14]
  000e8	84 c9		 test	 cl, cl
  000ea	74 1a		 je	 SHORT $LN82@GetAnimati@2
  000ec	8a 40 0f	 mov	 al, BYTE PTR [eax+15]
  000ef	80 f1 eb	 xor	 cl, -21			; ffffffebH
  000f2	88 4d ee	 mov	 BYTE PTR _szEncEventType$[ebp+14], cl
  000f5	84 c0		 test	 al, al
  000f7	74 07		 je	 SHORT $LN81@GetAnimati@2
  000f9	34 ea		 xor	 al, -22			; ffffffeaH
  000fb	88 45 ef	 mov	 BYTE PTR _szEncEventType$[ebp+15], al
  000fe	eb 55		 jmp	 SHORT $LN1@GetAnimati@2
$LN81@GetAnimati@2:
  00100	c6 45 ef ea	 mov	 BYTE PTR _szEncEventType$[ebp+15], -22 ; ffffffeaH
  00104	eb 4f		 jmp	 SHORT $LN1@GetAnimati@2
$LN82@GetAnimati@2:
  00106	c6 45 ee eb	 mov	 BYTE PTR _szEncEventType$[ebp+14], -21 ; ffffffebH
  0010a	eb 49		 jmp	 SHORT $LN1@GetAnimati@2
$LN83@GetAnimati@2:
  0010c	c6 45 ed ec	 mov	 BYTE PTR _szEncEventType$[ebp+13], -20 ; ffffffecH
  00110	eb 43		 jmp	 SHORT $LN1@GetAnimati@2
$LN84@GetAnimati@2:
  00112	88 55 ec	 mov	 BYTE PTR _szEncEventType$[ebp+12], dl
  00115	eb 3e		 jmp	 SHORT $LN1@GetAnimati@2
$LN86@GetAnimati@2:
  00117	c6 45 ea eb	 mov	 BYTE PTR _szEncEventType$[ebp+10], -21 ; ffffffebH
  0011b	eb 38		 jmp	 SHORT $LN1@GetAnimati@2
$LN87@GetAnimati@2:
  0011d	c6 45 e9 ec	 mov	 BYTE PTR _szEncEventType$[ebp+9], -20 ; ffffffecH
  00121	eb 32		 jmp	 SHORT $LN1@GetAnimati@2
$LN88@GetAnimati@2:
  00123	88 55 e8	 mov	 BYTE PTR _szEncEventType$[ebp+8], dl
  00126	eb 2d		 jmp	 SHORT $LN1@GetAnimati@2
$LN89@GetAnimati@2:
  00128	c6 45 e7 ea	 mov	 BYTE PTR _szEncEventType$[ebp+7], -22 ; ffffffeaH
  0012c	eb 27		 jmp	 SHORT $LN1@GetAnimati@2
$LN90@GetAnimati@2:
  0012e	c6 45 e6 eb	 mov	 BYTE PTR _szEncEventType$[ebp+6], -21 ; ffffffebH
  00132	eb 21		 jmp	 SHORT $LN1@GetAnimati@2
$LN91@GetAnimati@2:
  00134	c6 45 e5 ec	 mov	 BYTE PTR _szEncEventType$[ebp+5], -20 ; ffffffecH
  00138	eb 1b		 jmp	 SHORT $LN1@GetAnimati@2
$LN92@GetAnimati@2:
  0013a	88 55 e4	 mov	 BYTE PTR _szEncEventType$[ebp+4], dl
  0013d	eb 16		 jmp	 SHORT $LN1@GetAnimati@2
$LN93@GetAnimati@2:
  0013f	c6 45 e3 ea	 mov	 BYTE PTR _szEncEventType$[ebp+3], -22 ; ffffffeaH
  00143	eb 10		 jmp	 SHORT $LN1@GetAnimati@2
$LN94@GetAnimati@2:
  00145	c6 45 e2 eb	 mov	 BYTE PTR _szEncEventType$[ebp+2], -21 ; ffffffebH
  00149	eb 0a		 jmp	 SHORT $LN1@GetAnimati@2
$LN95@GetAnimati@2:
  0014b	c6 45 e1 ec	 mov	 BYTE PTR _szEncEventType$[ebp+1], -20 ; ffffffecH
  0014f	eb 04		 jmp	 SHORT $LN1@GetAnimati@2
$LN96@GetAnimati@2:
  00151	c6 45 e0 ed	 mov	 BYTE PTR _szEncEventType$[ebp], -19 ; ffffffedH
$LN1@GetAnimati@2:
  00155	6a 02		 push	 2
  00157	8d 45 e0	 lea	 eax, DWORD PTR _szEncEventType$[ebp]
  0015a	c6 45 eb 00	 mov	 BYTE PTR _szEncEventType$[ebp+11], 0
  0015e	59		 pop	 ecx
$LL105@GetAnimati@2:
  0015f	81 30 ed ec eb
	ea		 xor	 DWORD PTR [eax], -353637139 ; eaebecedH
  00165	83 c0 04	 add	 eax, 4
  00168	49		 dec	 ecx
  00169	75 f4		 jne	 SHORT $LL105@GetAnimati@2
  0016b	6a 08		 push	 8
  0016d	58		 pop	 eax
$LL102@GetAnimati@2:
  0016e	8b c8		 mov	 ecx, eax
  00170	81 e1 03 00 00
	80		 and	 ecx, -2147483645	; 80000003H
  00176	79 05		 jns	 SHORT $LN113@GetAnimati@2
  00178	49		 dec	 ecx
  00179	83 c9 fc	 or	 ecx, -4			; fffffffcH
  0017c	41		 inc	 ecx
$LN113@GetAnimati@2:
  0017d	b2 ed		 mov	 dl, -19			; ffffffedH
  0017f	2a d1		 sub	 dl, cl
  00181	30 54 05 e0	 xor	 BYTE PTR _szEncEventType$[ebp+eax], dl
  00185	40		 inc	 eax
  00186	83 f8 0b	 cmp	 eax, 11			; 0000000bH
  00189	7c e3		 jl	 SHORT $LL102@GetAnimati@2

; 416  : 		return GetAnimationEventTime(id, szEncEventType);

  0018b	8d 45 e0	 lea	 eax, DWORD PTR _szEncEventType$[ebp]
  0018e	50		 push	 eax
  0018f	8d 4d cc	 lea	 ecx, DWORD PTR $T553040[ebp]
  00192	ff 15 00 00 00
	00		 call	 DWORD PTR __imp_??0ioHashString@@QAE@PBD@Z
  00198	83 65 fc 00	 and	 DWORD PTR __$EHRec$[ebp+8], 0
  0019c	8d 45 cc	 lea	 eax, DWORD PTR $T553040[ebp]
  0019f	50		 push	 eax
  001a0	ff 75 08	 push	 DWORD PTR _id$[ebp]
  001a3	8b ce		 mov	 ecx, esi
  001a5	ff 15 00 00 00
	00		 call	 DWORD PTR __imp_?GetAnimationEventTime@ioEntityGroup@@QAEMHABVioHashString@@@Z
  001ab	d9 5d dc	 fstp	 DWORD PTR $T553039[ebp]
  001ae	83 4d fc ff	 or	 DWORD PTR __$EHRec$[ebp+8], -1
  001b2	8d 4d cc	 lea	 ecx, DWORD PTR $T553040[ebp]
  001b5	ff 15 00 00 00
	00		 call	 DWORD PTR __imp_??1ioHashString@@QAE@XZ
  001bb	d9 45 dc	 fld	 DWORD PTR $T553039[ebp]

; 417  : 	}

  001be	e8 00 00 00 00	 call	 __EH_epilog3_GS
  001c3	c2 08 00	 ret	 8
_TEXT	ENDS
;	COMDAT text$x
text$x	SEGMENT
__unwindfunclet$??$GetAnimationEventTime_e@$0M@@ioEntityGroup@@QAEMHAAY0M@$$CBD@Z$0:
  00000	8d 4d cc	 lea	 ecx, DWORD PTR $T553040[ebp]
  00003	ff 25 00 00 00
	00		 jmp	 DWORD PTR __imp_??1ioHashString@@QAE@XZ
__ehhandler$??$GetAnimationEventTime_e@$0M@@ioEntityGroup@@QAEMHAAY0M@$$CBD@Z:
  00009	8b 54 24 08	 mov	 edx, DWORD PTR [esp+8]
  0000d	8d 42 0c	 lea	 eax, DWORD PTR [edx+12]
  00010	8b 4a c8	 mov	 ecx, DWORD PTR [edx-56]
  00013	33 c8		 xor	 ecx, eax
  00015	e8 00 00 00 00	 call	 @__security_check_cookie@4
  0001a	8b 4a fc	 mov	 ecx, DWORD PTR [edx-4]
  0001d	33 c8		 xor	 ecx, eax
  0001f	e8 00 00 00 00	 call	 @__security_check_cookie@4
  00024	b8 00 00 00 00	 mov	 eax, OFFSET __ehfuncinfo$??$GetAnimationEventTime_e@$0M@@ioEntityGroup@@QAEMHAAY0M@$$CBD@Z
  00029	e9 00 00 00 00	 jmp	 ___CxxFrameHandler3
text$x	ENDS
??$GetAnimationEventTime_e@$0M@@ioEntityGroup@@QAEMHAAY0M@$$CBD@Z ENDP ; ioEntityGroup::GetAnimationEventTime_e<12>
PUBLIC	?construct@?$allocator@UForceInfo@@@std@@QAEXPAUForceInfo@@ABU3@@Z ; std::allocator<ForceInfo>::construct
; Function compile flags: /Ogsp
; File c:\program files (x86)\microsoft visual studio 10.0\vc\include\xmemory
;	COMDAT ?construct@?$allocator@UForceInfo@@@std@@QAEXPAUForceInfo@@ABU3@@Z
_TEXT	SEGMENT
__Ptr$ = 8						; size = 4
__Val$ = 12						; size = 4
?construct@?$allocator@UForceInfo@@@std@@QAEXPAUForceInfo@@ABU3@@Z PROC ; std::allocator<ForceInfo>::construct, COMDAT
; _this$ = ecx

; 196  : 		{	// construct object at _Ptr with value _Val

  00000	55		 push	 ebp
  00001	8b ec		 mov	 ebp, esp
  00003	57		 push	 edi

; 197  : 		_Construct(_Ptr, _Val);

  00004	8b 7d 08	 mov	 edi, DWORD PTR __Ptr$[ebp]
  00007	85 ff		 test	 edi, edi
  00009	74 08		 je	 SHORT $LN5@construct
  0000b	56		 push	 esi
  0000c	8b 75 0c	 mov	 esi, DWORD PTR __Val$[ebp]
  0000f	a5		 movsd
  00010	a5		 movsd
  00011	a5		 movsd
  00012	5e		 pop	 esi
$LN5@construct:
  00013	5f		 pop	 edi

; 198  : 		}

  00014	5d		 pop	 ebp
  00015	c2 08 00	 ret	 8
?construct@?$allocator@UForceInfo@@@std@@QAEXPAUForceInfo@@ABU3@@Z ENDP ; std::allocator<ForceInfo>::construct
_TEXT	ENDS
PUBLIC	??$_Construct@UWeaponInfo@@ABU1@@std@@YAXPAUWeaponInfo@@ABU1@@Z ; std::_Construct<WeaponInfo,WeaponInfo const &>
EXTRN	__EH_epilog3:PROC
EXTRN	__EH_prolog3:PROC
;	COMDAT xdata$x
; File c:\program files (x86)\microsoft visual studio 10.0\vc\include\utility
xdata$x	SEGMENT
__unwindtable$??$_Construct@UWeaponInfo@@ABU1@@std@@YAXPAUWeaponInfo@@ABU1@@Z DD 0ffffffffH
	DD	FLAT:__unwindfunclet$??$_Construct@UWeaponInfo@@ABU1@@std@@YAXPAUWeaponInfo@@ABU1@@Z$0
__ehfuncinfo$??$_Construct@UWeaponInfo@@ABU1@@std@@YAXPAUWeaponInfo@@ABU1@@Z DD 019930522H
	DD	01H
	DD	FLAT:__unwindtable$??$_Construct@UWeaponInfo@@ABU1@@std@@YAXPAUWeaponInfo@@ABU1@@Z
	DD	2 DUP(00H)
	DD	2 DUP(00H)
	DD	00H
	DD	01H
; Function compile flags: /Ogsp
; File c:\program files (x86)\microsoft visual studio 10.0\vc\include\xmemory
xdata$x	ENDS
;	COMDAT ??$_Construct@UWeaponInfo@@ABU1@@std@@YAXPAUWeaponInfo@@ABU1@@Z
_TEXT	SEGMENT
$T553094 = -16						; size = 4
__$EHRec$ = -12						; size = 12
__Vptr$ = 8						; size = 4
__Ptr$ = 8						; size = 4
__Val$ = 12						; size = 4
??$_Construct@UWeaponInfo@@ABU1@@std@@YAXPAUWeaponInfo@@ABU1@@Z PROC ; std::_Construct<WeaponInfo,WeaponInfo const &>, COMDAT

; 46   : 	{	// construct object at _Ptr with value _Val

  00000	6a 04		 push	 4
  00002	b8 00 00 00 00	 mov	 eax, __ehhandler$??$_Construct@UWeaponInfo@@ABU1@@std@@YAXPAUWeaponInfo@@ABU1@@Z
  00007	e8 00 00 00 00	 call	 __EH_prolog3

; 47   : 	void _FARQ *_Vptr = _Ptr;

  0000c	8b 4d 08	 mov	 ecx, DWORD PTR __Ptr$[ebp]
  0000f	89 4d 08	 mov	 DWORD PTR __Vptr$[ebp], ecx

; 48   : 	::new (_Vptr) _Ty1(_STD forward<_Ty2>(_Val));

  00012	89 4d f0	 mov	 DWORD PTR $T553094[ebp], ecx
  00015	83 65 fc 00	 and	 DWORD PTR __$EHRec$[ebp+8], 0
  00019	85 c9		 test	 ecx, ecx
  0001b	74 08		 je	 SHORT $LN3@Construct@2
  0001d	ff 75 0c	 push	 DWORD PTR __Val$[ebp]
  00020	e8 00 00 00 00	 call	 ??0WeaponInfo@@QAE@ABU0@@Z
$LN3@Construct@2:

; 49   : 	}

  00025	e8 00 00 00 00	 call	 __EH_epilog3
  0002a	c3		 ret	 0
_TEXT	ENDS
;	COMDAT text$x
text$x	SEGMENT
__unwindfunclet$??$_Construct@UWeaponInfo@@ABU1@@std@@YAXPAUWeaponInfo@@ABU1@@Z$0:
  00000	ff 75 08	 push	 DWORD PTR __Vptr$[ebp]
  00003	ff 75 f0	 push	 DWORD PTR $T553094[ebp]
  00006	e8 00 00 00 00	 call	 ??3@YAXPAX0@Z		; operator delete
  0000b	59		 pop	 ecx
  0000c	59		 pop	 ecx
  0000d	c3		 ret	 0
__ehhandler$??$_Construct@UWeaponInfo@@ABU1@@std@@YAXPAUWeaponInfo@@ABU1@@Z:
  0000e	8b 54 24 08	 mov	 edx, DWORD PTR [esp+8]
  00012	8d 42 0c	 lea	 eax, DWORD PTR [edx+12]
  00015	8b 4a ec	 mov	 ecx, DWORD PTR [edx-20]
  00018	33 c8		 xor	 ecx, eax
  0001a	e8 00 00 00 00	 call	 @__security_check_cookie@4
  0001f	b8 00 00 00 00	 mov	 eax, OFFSET __ehfuncinfo$??$_Construct@UWeaponInfo@@ABU1@@std@@YAXPAUWeaponInfo@@ABU1@@Z
  00024	e9 00 00 00 00	 jmp	 ___CxxFrameHandler3
text$x	ENDS
??$_Construct@UWeaponInfo@@ABU1@@std@@YAXPAUWeaponInfo@@ABU1@@Z ENDP ; std::_Construct<WeaponInfo,WeaponInfo const &>
PUBLIC	??B?$CEncrypt@M@@QAEMXZ				; CEncrypt<float>::operator float
; Function compile flags: /Ogsp
; File d:\lost saga for developer\youtube\tutorial\source\src\lsclient\encryptvalue.h
;	COMDAT ??B?$CEncrypt@M@@QAEMXZ
_TEXT	SEGMENT
_value$ = -4						; size = 4
??B?$CEncrypt@M@@QAEMXZ PROC				; CEncrypt<float>::operator float, COMDAT
; _this$ = ecx

; 134  : 	{

  00000	55		 push	 ebp
  00001	8b ec		 mov	 ebp, esp
  00003	51		 push	 ecx

; 135  : 		type value;
; 136  : 		DecryptValueToPool(&value);

  00004	8d 45 fc	 lea	 eax, DWORD PTR _value$[ebp]
  00007	50		 push	 eax
  00008	e8 00 00 00 00	 call	 ?DecryptValueToPool@?$CEncrypt@M@@QAEXPAM@Z ; CEncrypt<float>::DecryptValueToPool

; 137  : 
; 138  : #ifdef _NOTUSE
; 139  : 		Debug();
; 140  : #endif
; 141  : 		return value;

  0000d	d9 45 fc	 fld	 DWORD PTR _value$[ebp]

; 142  : 	}

  00010	c9		 leave
  00011	c3		 ret	 0
??B?$CEncrypt@M@@QAEMXZ ENDP				; CEncrypt<float>::operator float
_TEXT	ENDS
PUBLIC	??4?$CEncrypt@M@@QAEMM@Z			; CEncrypt<float>::operator=
; Function compile flags: /Ogsp
;	COMDAT ??4?$CEncrypt@M@@QAEMM@Z
_TEXT	SEGMENT
_value$ = 8						; size = 4
_inValue$ = 8						; size = 4
??4?$CEncrypt@M@@QAEMM@Z PROC				; CEncrypt<float>::operator=, COMDAT
; _this$ = ecx

; 1654 : 	{	

  00000	55		 push	 ebp
  00001	8b ec		 mov	 ebp, esp

; 1655 : 		type value = inValue;

  00003	d9 45 08	 fld	 DWORD PTR _inValue$[ebp]

; 1656 : 		EncryptValueToPool((char*)&value);

  00006	8d 45 08	 lea	 eax, DWORD PTR _value$[ebp]
  00009	50		 push	 eax
  0000a	d9 5d 08	 fstp	 DWORD PTR _value$[ebp]
  0000d	e8 00 00 00 00	 call	 ?EncryptValueToPool@?$CEncrypt@M@@AAEXPBD@Z ; CEncrypt<float>::EncryptValueToPool

; 1657 : #ifdef _NOTUSE
; 1658 : 		m_value = inValue;
; 1659 : 		Debug();
; 1660 : #endif
; 1661 : 		return value;

  00012	d9 45 08	 fld	 DWORD PTR _value$[ebp]

; 1662 : 	}

  00015	5d		 pop	 ebp
  00016	c2 04 00	 ret	 4
??4?$CEncrypt@M@@QAEMM@Z ENDP				; CEncrypt<float>::operator=
_TEXT	ENDS
PUBLIC	??O?$CEncrypt@M@@QAE_NABM@Z			; CEncrypt<float>::operator>
; Function compile flags: /Ogsp
;	COMDAT ??O?$CEncrypt@M@@QAE_NABM@Z
_TEXT	SEGMENT
_value$ = -4						; size = 4
_inValue$ = 8						; size = 4
??O?$CEncrypt@M@@QAE_NABM@Z PROC			; CEncrypt<float>::operator>, COMDAT
; _this$ = ecx

; 1811 : 	{

  00000	55		 push	 ebp
  00001	8b ec		 mov	 ebp, esp
  00003	51		 push	 ecx

; 1812 : 		type value;
; 1813 : 		DecryptValueToPool(&value);

  00004	8d 45 fc	 lea	 eax, DWORD PTR _value$[ebp]
  00007	50		 push	 eax
  00008	e8 00 00 00 00	 call	 ?DecryptValueToPool@?$CEncrypt@M@@QAEXPAM@Z ; CEncrypt<float>::DecryptValueToPool

; 1814 : #ifdef _NOTUSE
; 1815 : 		Debug();
; 1816 : #endif
; 1817 : 		return (value > inValue);

  0000d	8b 45 08	 mov	 eax, DWORD PTR _inValue$[ebp]
  00010	f3 0f 10 08	 movss	 xmm1, DWORD PTR [eax]
  00014	f3 0f 10 45 fc	 movss	 xmm0, DWORD PTR _value$[ebp]
  00019	0f 5a c0	 cvtps2pd xmm0, xmm0
  0001c	0f 5a c9	 cvtps2pd xmm1, xmm1
  0001f	33 c0		 xor	 eax, eax
  00021	66 0f 2f c1	 comisd	 xmm0, xmm1
  00025	76 01		 jbe	 SHORT $LN4@operator@3
  00027	40		 inc	 eax
$LN4@operator@3:

; 1818 : 	}		

  00028	c9		 leave
  00029	c2 04 00	 ret	 4
??O?$CEncrypt@M@@QAE_NABM@Z ENDP			; CEncrypt<float>::operator>
_TEXT	ENDS
PUBLIC	??0?$CEncrypt@K@@QAE@XZ				; CEncrypt<unsigned long>::CEncrypt<unsigned long>
EXTRN	??0ccddaabb@@QAE@XZ:PROC			; ccddaabb::ccddaabb
;	COMDAT xdata$x
xdata$x	SEGMENT
__unwindtable$??0?$CEncrypt@K@@QAE@XZ DD 0ffffffffH
	DD	FLAT:__unwindfunclet$??0?$CEncrypt@K@@QAE@XZ$0
__ehfuncinfo$??0?$CEncrypt@K@@QAE@XZ DD 019930522H
	DD	01H
	DD	FLAT:__unwindtable$??0?$CEncrypt@K@@QAE@XZ
	DD	2 DUP(00H)
	DD	2 DUP(00H)
	DD	00H
	DD	01H
; Function compile flags: /Ogsp
xdata$x	ENDS
;	COMDAT ??0?$CEncrypt@K@@QAE@XZ
_TEXT	SEGMENT
_this$ = -16						; size = 4
__$EHRec$ = -12						; size = 12
??0?$CEncrypt@K@@QAE@XZ PROC				; CEncrypt<unsigned long>::CEncrypt<unsigned long>, COMDAT
; _this$ = ecx

; 109  : 	CEncrypt()

  00000	6a 04		 push	 4
  00002	b8 00 00 00 00	 mov	 eax, __ehhandler$??0?$CEncrypt@K@@QAE@XZ
  00007	e8 00 00 00 00	 call	 __EH_prolog3
  0000c	8b f1		 mov	 esi, ecx
  0000e	89 75 f0	 mov	 DWORD PTR _this$[ebp], esi
  00011	8d 4e 0c	 lea	 ecx, DWORD PTR [esi+12]
  00014	c7 06 00 00 00
	00		 mov	 DWORD PTR [esi], OFFSET ??_7?$CEncrypt@K@@6B@
  0001a	e8 00 00 00 00	 call	 ??0ccddaabb@@QAE@XZ	; ccddaabb::ccddaabb
  0001f	83 65 fc 00	 and	 DWORD PTR __$EHRec$[ebp+8], 0

; 110  : 	{
; 111  : 		Init();

  00023	8b ce		 mov	 ecx, esi
  00025	e8 00 00 00 00	 call	 ?Init@?$CEncrypt@K@@AAEXXZ ; CEncrypt<unsigned long>::Init

; 112  : 	}

  0002a	8b c6		 mov	 eax, esi
  0002c	e8 00 00 00 00	 call	 __EH_epilog3
  00031	c3		 ret	 0
_TEXT	ENDS
;	COMDAT text$x
text$x	SEGMENT
__unwindfunclet$??0?$CEncrypt@K@@QAE@XZ$0:
  00000	8b 4d f0	 mov	 ecx, DWORD PTR _this$[ebp]
  00003	83 c1 0c	 add	 ecx, 12			; 0000000cH
  00006	e9 00 00 00 00	 jmp	 ??1ccddaabb@@UAE@XZ	; ccddaabb::~ccddaabb
__ehhandler$??0?$CEncrypt@K@@QAE@XZ:
  0000b	8b 54 24 08	 mov	 edx, DWORD PTR [esp+8]
  0000f	8d 42 0c	 lea	 eax, DWORD PTR [edx+12]
  00012	8b 4a ec	 mov	 ecx, DWORD PTR [edx-20]
  00015	33 c8		 xor	 ecx, eax
  00017	e8 00 00 00 00	 call	 @__security_check_cookie@4
  0001c	b8 00 00 00 00	 mov	 eax, OFFSET __ehfuncinfo$??0?$CEncrypt@K@@QAE@XZ
  00021	e9 00 00 00 00	 jmp	 ___CxxFrameHandler3
text$x	ENDS
??0?$CEncrypt@K@@QAE@XZ ENDP				; CEncrypt<unsigned long>::CEncrypt<unsigned long>
PUBLIC	??B?$CEncrypt@K@@QAEKXZ				; CEncrypt<unsigned long>::operator unsigned long
; Function compile flags: /Ogsp
;	COMDAT ??B?$CEncrypt@K@@QAEKXZ
_TEXT	SEGMENT
_value$ = -4						; size = 4
??B?$CEncrypt@K@@QAEKXZ PROC				; CEncrypt<unsigned long>::operator unsigned long, COMDAT
; _this$ = ecx

; 134  : 	{

  00000	55		 push	 ebp
  00001	8b ec		 mov	 ebp, esp
  00003	51		 push	 ecx

; 135  : 		type value;
; 136  : 		DecryptValueToPool(&value);

  00004	8d 45 fc	 lea	 eax, DWORD PTR _value$[ebp]
  00007	50		 push	 eax
  00008	e8 00 00 00 00	 call	 ?DecryptValueToPool@?$CEncrypt@K@@QAEXPAK@Z ; CEncrypt<unsigned long>::DecryptValueToPool

; 137  : 
; 138  : #ifdef _NOTUSE
; 139  : 		Debug();
; 140  : #endif
; 141  : 		return value;

  0000d	8b 45 fc	 mov	 eax, DWORD PTR _value$[ebp]

; 142  : 	}

  00010	c9		 leave
  00011	c3		 ret	 0
??B?$CEncrypt@K@@QAEKXZ ENDP				; CEncrypt<unsigned long>::operator unsigned long
_TEXT	ENDS
PUBLIC	??B?$CEncrypt@K@@QBEKXZ				; CEncrypt<unsigned long>::operator unsigned long
; Function compile flags: /Ogsp
;	COMDAT ??B?$CEncrypt@K@@QBEKXZ
_TEXT	SEGMENT
_value$ = -4						; size = 4
??B?$CEncrypt@K@@QBEKXZ PROC				; CEncrypt<unsigned long>::operator unsigned long, COMDAT
; _this$ = ecx

; 145  : 	{

  00000	55		 push	 ebp
  00001	8b ec		 mov	 ebp, esp
  00003	51		 push	 ecx

; 146  : 		//UJ 130829, const    --start
; 147  : 		type value;
; 148  : 		CEncrypt<type>* pThis = const_cast<CEncrypt<type>*>(this);
; 149  : 		pThis->DecryptValueToPool(&value);

  00004	8d 45 fc	 lea	 eax, DWORD PTR _value$[ebp]
  00007	50		 push	 eax
  00008	e8 00 00 00 00	 call	 ?DecryptValueToPool@?$CEncrypt@K@@QAEXPAK@Z ; CEncrypt<unsigned long>::DecryptValueToPool

; 150  : 		//// const DecryptValueToPool     .
; 151  :  		//type value;
; 152  : 		//char szTempMem[MAX_ENCRYPT];
; 153  : 		//m_RC5.DecryptByte( m_MemPool, szTempMem, max(m_ValueSize, DEFAULT_ENCRYPT) );
; 154  : 		//memcpy( &value, szTempMem, m_ValueSize );
; 155  : 		//UJ --end
; 156  : 
; 157  : #ifdef _NOTUSE
; 158  : 		Debug();
; 159  : #endif
; 160  : 		return value;

  0000d	8b 45 fc	 mov	 eax, DWORD PTR _value$[ebp]

; 161  : 	}

  00010	c9		 leave
  00011	c3		 ret	 0
??B?$CEncrypt@K@@QBEKXZ ENDP				; CEncrypt<unsigned long>::operator unsigned long
_TEXT	ENDS
PUBLIC	??4?$CEncrypt@K@@QAEKH@Z			; CEncrypt<unsigned long>::operator=
; Function compile flags: /Ogsp
;	COMDAT ??4?$CEncrypt@K@@QAEKH@Z
_TEXT	SEGMENT
_value$ = 8						; size = 4
_inValue$ = 8						; size = 4
??4?$CEncrypt@K@@QAEKH@Z PROC				; CEncrypt<unsigned long>::operator=, COMDAT
; _this$ = ecx

; 843  : 	{

  00000	55		 push	 ebp
  00001	8b ec		 mov	 ebp, esp

; 844  : 		type value = inValue;

  00003	8b 45 08	 mov	 eax, DWORD PTR _inValue$[ebp]
  00006	89 45 08	 mov	 DWORD PTR _value$[ebp], eax

; 845  : 		EncryptValueToPool((char*)&value);

  00009	8d 45 08	 lea	 eax, DWORD PTR _value$[ebp]
  0000c	50		 push	 eax
  0000d	e8 00 00 00 00	 call	 ?EncryptValueToPool@?$CEncrypt@K@@AAEXPBD@Z ; CEncrypt<unsigned long>::EncryptValueToPool

; 846  : #ifdef _NOTUSE
; 847  : 		m_value = inValue;
; 848  : 		Debug();
; 849  : #endif
; 850  : 		return value;

  00012	8b 45 08	 mov	 eax, DWORD PTR _value$[ebp]

; 851  : 	}

  00015	5d		 pop	 ebp
  00016	c2 04 00	 ret	 4
??4?$CEncrypt@K@@QAEKH@Z ENDP				; CEncrypt<unsigned long>::operator=
_TEXT	ENDS
PUBLIC	??4?$CEncrypt@K@@QAEKK@Z			; CEncrypt<unsigned long>::operator=
; Function compile flags: /Ogsp
;	COMDAT ??4?$CEncrypt@K@@QAEKK@Z
_TEXT	SEGMENT
_value$ = 8						; size = 4
_inValue$ = 8						; size = 4
??4?$CEncrypt@K@@QAEKK@Z PROC				; CEncrypt<unsigned long>::operator=, COMDAT
; _this$ = ecx

; 1262 : 	{

  00000	55		 push	 ebp
  00001	8b ec		 mov	 ebp, esp

; 1263 : 		
; 1264 : 		type value = inValue;

  00003	8b 45 08	 mov	 eax, DWORD PTR _inValue$[ebp]
  00006	89 45 08	 mov	 DWORD PTR _value$[ebp], eax

; 1265 : 		EncryptValueToPool((char*)&value);

  00009	8d 45 08	 lea	 eax, DWORD PTR _value$[ebp]
  0000c	50		 push	 eax
  0000d	e8 00 00 00 00	 call	 ?EncryptValueToPool@?$CEncrypt@K@@AAEXPBD@Z ; CEncrypt<unsigned long>::EncryptValueToPool

; 1266 : #ifdef _NOTUSE
; 1267 : 		m_value = inValue;
; 1268 : 		Debug();
; 1269 : #endif
; 1270 : 		return value;

  00012	8b 45 08	 mov	 eax, DWORD PTR _value$[ebp]

; 1271 : 	}

  00015	5d		 pop	 ebp
  00016	c2 04 00	 ret	 4
??4?$CEncrypt@K@@QAEKK@Z ENDP				; CEncrypt<unsigned long>::operator=
_TEXT	ENDS
PUBLIC	??B?$CEncrypt@_N@@QAE_NXZ			; CEncrypt<bool>::operator bool
; Function compile flags: /Ogsp
;	COMDAT ??B?$CEncrypt@_N@@QAE_NXZ
_TEXT	SEGMENT
_value$ = -1						; size = 1
??B?$CEncrypt@_N@@QAE_NXZ PROC				; CEncrypt<bool>::operator bool, COMDAT
; _this$ = ecx

; 134  : 	{

  00000	55		 push	 ebp
  00001	8b ec		 mov	 ebp, esp
  00003	51		 push	 ecx

; 135  : 		type value;
; 136  : 		DecryptValueToPool(&value);

  00004	8d 45 ff	 lea	 eax, DWORD PTR _value$[ebp]
  00007	50		 push	 eax
  00008	e8 00 00 00 00	 call	 ?DecryptValueToPool@?$CEncrypt@_N@@QAEXPA_N@Z ; CEncrypt<bool>::DecryptValueToPool

; 137  : 
; 138  : #ifdef _NOTUSE
; 139  : 		Debug();
; 140  : #endif
; 141  : 		return value;

  0000d	8a 45 ff	 mov	 al, BYTE PTR _value$[ebp]

; 142  : 	}

  00010	c9		 leave
  00011	c3		 ret	 0
??B?$CEncrypt@_N@@QAE_NXZ ENDP				; CEncrypt<bool>::operator bool
_TEXT	ENDS
PUBLIC	??B?$CEncrypt@_N@@QBE_NXZ			; CEncrypt<bool>::operator bool
; Function compile flags: /Ogsp
;	COMDAT ??B?$CEncrypt@_N@@QBE_NXZ
_TEXT	SEGMENT
_value$ = -1						; size = 1
??B?$CEncrypt@_N@@QBE_NXZ PROC				; CEncrypt<bool>::operator bool, COMDAT
; _this$ = ecx

; 145  : 	{

  00000	55		 push	 ebp
  00001	8b ec		 mov	 ebp, esp
  00003	51		 push	 ecx

; 146  : 		//UJ 130829, const    --start
; 147  : 		type value;
; 148  : 		CEncrypt<type>* pThis = const_cast<CEncrypt<type>*>(this);
; 149  : 		pThis->DecryptValueToPool(&value);

  00004	8d 45 ff	 lea	 eax, DWORD PTR _value$[ebp]
  00007	50		 push	 eax
  00008	e8 00 00 00 00	 call	 ?DecryptValueToPool@?$CEncrypt@_N@@QAEXPA_N@Z ; CEncrypt<bool>::DecryptValueToPool

; 150  : 		//// const DecryptValueToPool     .
; 151  :  		//type value;
; 152  : 		//char szTempMem[MAX_ENCRYPT];
; 153  : 		//m_RC5.DecryptByte( m_MemPool, szTempMem, max(m_ValueSize, DEFAULT_ENCRYPT) );
; 154  : 		//memcpy( &value, szTempMem, m_ValueSize );
; 155  : 		//UJ --end
; 156  : 
; 157  : #ifdef _NOTUSE
; 158  : 		Debug();
; 159  : #endif
; 160  : 		return value;

  0000d	8a 45 ff	 mov	 al, BYTE PTR _value$[ebp]

; 161  : 	}

  00010	c9		 leave
  00011	c3		 ret	 0
??B?$CEncrypt@_N@@QBE_NXZ ENDP				; CEncrypt<bool>::operator bool
_TEXT	ENDS
PUBLIC	??0?$CEncrypt@H@@QAE@XZ				; CEncrypt<int>::CEncrypt<int>
;	COMDAT xdata$x
xdata$x	SEGMENT
__unwindtable$??0?$CEncrypt@H@@QAE@XZ DD 0ffffffffH
	DD	FLAT:__unwindfunclet$??0?$CEncrypt@H@@QAE@XZ$0
__ehfuncinfo$??0?$CEncrypt@H@@QAE@XZ DD 019930522H
	DD	01H
	DD	FLAT:__unwindtable$??0?$CEncrypt@H@@QAE@XZ
	DD	2 DUP(00H)
	DD	2 DUP(00H)
	DD	00H
	DD	01H
; Function compile flags: /Ogsp
xdata$x	ENDS
;	COMDAT ??0?$CEncrypt@H@@QAE@XZ
_TEXT	SEGMENT
_this$ = -16						; size = 4
__$EHRec$ = -12						; size = 12
??0?$CEncrypt@H@@QAE@XZ PROC				; CEncrypt<int>::CEncrypt<int>, COMDAT
; _this$ = ecx

; 109  : 	CEncrypt()

  00000	6a 04		 push	 4
  00002	b8 00 00 00 00	 mov	 eax, __ehhandler$??0?$CEncrypt@H@@QAE@XZ
  00007	e8 00 00 00 00	 call	 __EH_prolog3
  0000c	8b f1		 mov	 esi, ecx
  0000e	89 75 f0	 mov	 DWORD PTR _this$[ebp], esi
  00011	8d 4e 0c	 lea	 ecx, DWORD PTR [esi+12]
  00014	c7 06 00 00 00
	00		 mov	 DWORD PTR [esi], OFFSET ??_7?$CEncrypt@H@@6B@
  0001a	e8 00 00 00 00	 call	 ??0ccddaabb@@QAE@XZ	; ccddaabb::ccddaabb
  0001f	83 65 fc 00	 and	 DWORD PTR __$EHRec$[ebp+8], 0

; 110  : 	{
; 111  : 		Init();

  00023	8b ce		 mov	 ecx, esi
  00025	e8 00 00 00 00	 call	 ?Init@?$CEncrypt@H@@AAEXXZ ; CEncrypt<int>::Init

; 112  : 	}

  0002a	8b c6		 mov	 eax, esi
  0002c	e8 00 00 00 00	 call	 __EH_epilog3
  00031	c3		 ret	 0
_TEXT	ENDS
;	COMDAT text$x
text$x	SEGMENT
__unwindfunclet$??0?$CEncrypt@H@@QAE@XZ$0:
  00000	8b 4d f0	 mov	 ecx, DWORD PTR _this$[ebp]
  00003	83 c1 0c	 add	 ecx, 12			; 0000000cH
  00006	e9 00 00 00 00	 jmp	 ??1ccddaabb@@UAE@XZ	; ccddaabb::~ccddaabb
__ehhandler$??0?$CEncrypt@H@@QAE@XZ:
  0000b	8b 54 24 08	 mov	 edx, DWORD PTR [esp+8]
  0000f	8d 42 0c	 lea	 eax, DWORD PTR [edx+12]
  00012	8b 4a ec	 mov	 ecx, DWORD PTR [edx-20]
  00015	33 c8		 xor	 ecx, eax
  00017	e8 00 00 00 00	 call	 @__security_check_cookie@4
  0001c	b8 00 00 00 00	 mov	 eax, OFFSET __ehfuncinfo$??0?$CEncrypt@H@@QAE@XZ
  00021	e9 00 00 00 00	 jmp	 ___CxxFrameHandler3
text$x	ENDS
??0?$CEncrypt@H@@QAE@XZ ENDP				; CEncrypt<int>::CEncrypt<int>
PUBLIC	??B?$CEncrypt@H@@QAEHXZ				; CEncrypt<int>::operator int
; Function compile flags: /Ogsp
;	COMDAT ??B?$CEncrypt@H@@QAEHXZ
_TEXT	SEGMENT
_value$ = -4						; size = 4
??B?$CEncrypt@H@@QAEHXZ PROC				; CEncrypt<int>::operator int, COMDAT
; _this$ = ecx

; 134  : 	{

  00000	55		 push	 ebp
  00001	8b ec		 mov	 ebp, esp
  00003	51		 push	 ecx

; 135  : 		type value;
; 136  : 		DecryptValueToPool(&value);

  00004	8d 45 fc	 lea	 eax, DWORD PTR _value$[ebp]
  00007	50		 push	 eax
  00008	e8 00 00 00 00	 call	 ?DecryptValueToPool@?$CEncrypt@H@@QAEXPAH@Z ; CEncrypt<int>::DecryptValueToPool

; 137  : 
; 138  : #ifdef _NOTUSE
; 139  : 		Debug();
; 140  : #endif
; 141  : 		return value;

  0000d	8b 45 fc	 mov	 eax, DWORD PTR _value$[ebp]

; 142  : 	}

  00010	c9		 leave
  00011	c3		 ret	 0
??B?$CEncrypt@H@@QAEHXZ ENDP				; CEncrypt<int>::operator int
_TEXT	ENDS
PUBLIC	??B?$CEncrypt@H@@QBEHXZ				; CEncrypt<int>::operator int
; Function compile flags: /Ogsp
;	COMDAT ??B?$CEncrypt@H@@QBEHXZ
_TEXT	SEGMENT
_value$ = -4						; size = 4
??B?$CEncrypt@H@@QBEHXZ PROC				; CEncrypt<int>::operator int, COMDAT
; _this$ = ecx

; 145  : 	{

  00000	55		 push	 ebp
  00001	8b ec		 mov	 ebp, esp
  00003	51		 push	 ecx

; 146  : 		//UJ 130829, const    --start
; 147  : 		type value;
; 148  : 		CEncrypt<type>* pThis = const_cast<CEncrypt<type>*>(this);
; 149  : 		pThis->DecryptValueToPool(&value);

  00004	8d 45 fc	 lea	 eax, DWORD PTR _value$[ebp]
  00007	50		 push	 eax
  00008	e8 00 00 00 00	 call	 ?DecryptValueToPool@?$CEncrypt@H@@QAEXPAH@Z ; CEncrypt<int>::DecryptValueToPool

; 150  : 		//// const DecryptValueToPool     .
; 151  :  		//type value;
; 152  : 		//char szTempMem[MAX_ENCRYPT];
; 153  : 		//m_RC5.DecryptByte( m_MemPool, szTempMem, max(m_ValueSize, DEFAULT_ENCRYPT) );
; 154  : 		//memcpy( &value, szTempMem, m_ValueSize );
; 155  : 		//UJ --end
; 156  : 
; 157  : #ifdef _NOTUSE
; 158  : 		Debug();
; 159  : #endif
; 160  : 		return value;

  0000d	8b 45 fc	 mov	 eax, DWORD PTR _value$[ebp]

; 161  : 	}

  00010	c9		 leave
  00011	c3		 ret	 0
??B?$CEncrypt@H@@QBEHXZ ENDP				; CEncrypt<int>::operator int
_TEXT	ENDS
PUBLIC	??4?$CEncrypt@H@@QAEHH@Z			; CEncrypt<int>::operator=
; Function compile flags: /Ogsp
;	COMDAT ??4?$CEncrypt@H@@QAEHH@Z
_TEXT	SEGMENT
_value$ = 8						; size = 4
_inValue$ = 8						; size = 4
??4?$CEncrypt@H@@QAEHH@Z PROC				; CEncrypt<int>::operator=, COMDAT
; _this$ = ecx

; 843  : 	{

  00000	55		 push	 ebp
  00001	8b ec		 mov	 ebp, esp

; 844  : 		type value = inValue;

  00003	8b 45 08	 mov	 eax, DWORD PTR _inValue$[ebp]
  00006	89 45 08	 mov	 DWORD PTR _value$[ebp], eax

; 845  : 		EncryptValueToPool((char*)&value);

  00009	8d 45 08	 lea	 eax, DWORD PTR _value$[ebp]
  0000c	50		 push	 eax
  0000d	e8 00 00 00 00	 call	 ?EncryptValueToPool@?$CEncrypt@H@@AAEXPBD@Z ; CEncrypt<int>::EncryptValueToPool

; 846  : #ifdef _NOTUSE
; 847  : 		m_value = inValue;
; 848  : 		Debug();
; 849  : #endif
; 850  : 		return value;

  00012	8b 45 08	 mov	 eax, DWORD PTR _value$[ebp]

; 851  : 	}

  00015	5d		 pop	 ebp
  00016	c2 04 00	 ret	 4
??4?$CEncrypt@H@@QAEHH@Z ENDP				; CEncrypt<int>::operator=
_TEXT	ENDS
PUBLIC	??B?$CEncrypt@W4TeamType@@@@QBE?AW4TeamType@@XZ	; CEncrypt<enum TeamType>::operator enum TeamType
; Function compile flags: /Ogsp
;	COMDAT ??B?$CEncrypt@W4TeamType@@@@QBE?AW4TeamType@@XZ
_TEXT	SEGMENT
_value$ = -4						; size = 4
??B?$CEncrypt@W4TeamType@@@@QBE?AW4TeamType@@XZ PROC	; CEncrypt<enum TeamType>::operator enum TeamType, COMDAT
; _this$ = ecx

; 145  : 	{

  00000	55		 push	 ebp
  00001	8b ec		 mov	 ebp, esp
  00003	51		 push	 ecx

; 146  : 		//UJ 130829, const    --start
; 147  : 		type value;
; 148  : 		CEncrypt<type>* pThis = const_cast<CEncrypt<type>*>(this);
; 149  : 		pThis->DecryptValueToPool(&value);

  00004	8d 45 fc	 lea	 eax, DWORD PTR _value$[ebp]
  00007	50		 push	 eax
  00008	e8 00 00 00 00	 call	 ?DecryptValueToPool@?$CEncrypt@W4TeamType@@@@QAEXPAW4TeamType@@@Z ; CEncrypt<enum TeamType>::DecryptValueToPool

; 150  : 		//// const DecryptValueToPool     .
; 151  :  		//type value;
; 152  : 		//char szTempMem[MAX_ENCRYPT];
; 153  : 		//m_RC5.DecryptByte( m_MemPool, szTempMem, max(m_ValueSize, DEFAULT_ENCRYPT) );
; 154  : 		//memcpy( &value, szTempMem, m_ValueSize );
; 155  : 		//UJ --end
; 156  : 
; 157  : #ifdef _NOTUSE
; 158  : 		Debug();
; 159  : #endif
; 160  : 		return value;

  0000d	8b 45 fc	 mov	 eax, DWORD PTR _value$[ebp]

; 161  : 	}

  00010	c9		 leave
  00011	c3		 ret	 0
??B?$CEncrypt@W4TeamType@@@@QBE?AW4TeamType@@XZ ENDP	; CEncrypt<enum TeamType>::operator enum TeamType
_TEXT	ENDS
PUBLIC	??0?$_Vector_val@UWeaponInfo@@V?$allocator@UWeaponInfo@@@std@@@std@@QAE@V?$allocator@UWeaponInfo@@@1@@Z ; std::_Vector_val<WeaponInfo,std::allocator<WeaponInfo> >::_Vector_val<WeaponInfo,std::allocator<WeaponInfo> >
; Function compile flags: /Ogsp
; File c:\program files (x86)\microsoft visual studio 10.0\vc\include\vector
;	COMDAT ??0?$_Vector_val@UWeaponInfo@@V?$allocator@UWeaponInfo@@@std@@@std@@QAE@V?$allocator@UWeaponInfo@@@1@@Z
_TEXT	SEGMENT
__Al$ = 8						; size = 1
??0?$_Vector_val@UWeaponInfo@@V?$allocator@UWeaponInfo@@@std@@@std@@QAE@V?$allocator@UWeaponInfo@@@1@@Z PROC ; std::_Vector_val<WeaponInfo,std::allocator<WeaponInfo> >::_Vector_val<WeaponInfo,std::allocator<WeaponInfo> >, COMDAT
; _this$ = ecx

; 426  : 		{	// construct allocator from _Al

  00000	8b c1		 mov	 eax, ecx

; 427  : 		_Myfirst = 0;

  00002	33 c9		 xor	 ecx, ecx
  00004	89 08		 mov	 DWORD PTR [eax], ecx

; 428  : 		_Mylast = 0;

  00006	89 48 04	 mov	 DWORD PTR [eax+4], ecx

; 429  : 		_Myend = 0;

  00009	89 48 08	 mov	 DWORD PTR [eax+8], ecx

; 430  : 		}

  0000c	c2 04 00	 ret	 4
??0?$_Vector_val@UWeaponInfo@@V?$allocator@UWeaponInfo@@@std@@@std@@QAE@V?$allocator@UWeaponInfo@@@1@@Z ENDP ; std::_Vector_val<WeaponInfo,std::allocator<WeaponInfo> >::_Vector_val<WeaponInfo,std::allocator<WeaponInfo> >
_TEXT	ENDS
PUBLIC	??0?$_Vector_val@UForceInfo@@V?$allocator@UForceInfo@@@std@@@std@@QAE@V?$allocator@UForceInfo@@@1@@Z ; std::_Vector_val<ForceInfo,std::allocator<ForceInfo> >::_Vector_val<ForceInfo,std::allocator<ForceInfo> >
; Function compile flags: /Ogsp
;	COMDAT ??0?$_Vector_val@UForceInfo@@V?$allocator@UForceInfo@@@std@@@std@@QAE@V?$allocator@UForceInfo@@@1@@Z
_TEXT	SEGMENT
__Al$ = 8						; size = 1
??0?$_Vector_val@UForceInfo@@V?$allocator@UForceInfo@@@std@@@std@@QAE@V?$allocator@UForceInfo@@@1@@Z PROC ; std::_Vector_val<ForceInfo,std::allocator<ForceInfo> >::_Vector_val<ForceInfo,std::allocator<ForceInfo> >, COMDAT
; _this$ = ecx

; 426  : 		{	// construct allocator from _Al

  00000	8b c1		 mov	 eax, ecx

; 427  : 		_Myfirst = 0;

  00002	33 c9		 xor	 ecx, ecx
  00004	89 08		 mov	 DWORD PTR [eax], ecx

; 428  : 		_Mylast = 0;

  00006	89 48 04	 mov	 DWORD PTR [eax+4], ecx

; 429  : 		_Myend = 0;

  00009	89 48 08	 mov	 DWORD PTR [eax+8], ecx

; 430  : 		}

  0000c	c2 04 00	 ret	 4
??0?$_Vector_val@UForceInfo@@V?$allocator@UForceInfo@@@std@@@std@@QAE@V?$allocator@UForceInfo@@@1@@Z ENDP ; std::_Vector_val<ForceInfo,std::allocator<ForceInfo> >::_Vector_val<ForceInfo,std::allocator<ForceInfo> >
_TEXT	ENDS
PUBLIC	?max_size@?$vector@UWeaponInfo@@V?$allocator@UWeaponInfo@@@std@@@std@@QBEIXZ ; std::vector<WeaponInfo,std::allocator<WeaponInfo> >::max_size
; Function compile flags: /Ogsp
;	COMDAT ?max_size@?$vector@UWeaponInfo@@V?$allocator@UWeaponInfo@@@std@@@std@@QBEIXZ
_TEXT	SEGMENT
?max_size@?$vector@UWeaponInfo@@V?$allocator@UWeaponInfo@@@std@@@std@@QBEIXZ PROC ; std::vector<WeaponInfo,std::allocator<WeaponInfo> >::max_size, COMDAT
; _this$ = ecx

; 884  : 		return (this->_Alval.max_size());

  00000	b8 66 66 66 06	 mov	 eax, 107374182		; 06666666H

; 885  : 		}

  00005	c3		 ret	 0
?max_size@?$vector@UWeaponInfo@@V?$allocator@UWeaponInfo@@@std@@@std@@QBEIXZ ENDP ; std::vector<WeaponInfo,std::allocator<WeaponInfo> >::max_size
_TEXT	ENDS
PUBLIC	?allocate@?$allocator@UWeaponInfo@@@std@@QAEPAUWeaponInfo@@I@Z ; std::allocator<WeaponInfo>::allocate
; Function compile flags: /Ogsp
; File c:\program files (x86)\microsoft visual studio 10.0\vc\include\xmemory
;	COMDAT ?allocate@?$allocator@UWeaponInfo@@@std@@QAEPAUWeaponInfo@@I@Z
_TEXT	SEGMENT
__Count$ = 8						; size = 4
?allocate@?$allocator@UWeaponInfo@@@std@@QAEPAUWeaponInfo@@I@Z PROC ; std::allocator<WeaponInfo>::allocate, COMDAT
; _this$ = ecx

; 186  : 		{	// allocate array of _Count elements

  00000	55		 push	 ebp
  00001	8b ec		 mov	 ebp, esp

; 187  : 		return (_Allocate(_Count, (pointer)0));

  00003	6a 00		 push	 0
  00005	ff 75 08	 push	 DWORD PTR __Count$[ebp]
  00008	e8 00 00 00 00	 call	 ??$_Allocate@UWeaponInfo@@@std@@YAPAUWeaponInfo@@IPAU1@@Z ; std::_Allocate<WeaponInfo>
  0000d	59		 pop	 ecx
  0000e	59		 pop	 ecx

; 188  : 		}

  0000f	5d		 pop	 ebp
  00010	c2 04 00	 ret	 4
?allocate@?$allocator@UWeaponInfo@@@std@@QAEPAUWeaponInfo@@I@Z ENDP ; std::allocator<WeaponInfo>::allocate
_TEXT	ENDS
PUBLIC	?max_size@?$vector@UForceInfo@@V?$allocator@UForceInfo@@@std@@@std@@QBEIXZ ; std::vector<ForceInfo,std::allocator<ForceInfo> >::max_size
; Function compile flags: /Ogsp
; File c:\program files (x86)\microsoft visual studio 10.0\vc\include\vector
;	COMDAT ?max_size@?$vector@UForceInfo@@V?$allocator@UForceInfo@@@std@@@std@@QBEIXZ
_TEXT	SEGMENT
?max_size@?$vector@UForceInfo@@V?$allocator@UForceInfo@@@std@@@std@@QBEIXZ PROC ; std::vector<ForceInfo,std::allocator<ForceInfo> >::max_size, COMDAT
; _this$ = ecx

; 884  : 		return (this->_Alval.max_size());

  00000	b8 55 55 55 15	 mov	 eax, 357913941		; 15555555H

; 885  : 		}

  00005	c3		 ret	 0
?max_size@?$vector@UForceInfo@@V?$allocator@UForceInfo@@@std@@@std@@QBEIXZ ENDP ; std::vector<ForceInfo,std::allocator<ForceInfo> >::max_size
_TEXT	ENDS
PUBLIC	?allocate@?$allocator@UForceInfo@@@std@@QAEPAUForceInfo@@I@Z ; std::allocator<ForceInfo>::allocate
; Function compile flags: /Ogsp
; File c:\program files (x86)\microsoft visual studio 10.0\vc\include\xmemory
;	COMDAT ?allocate@?$allocator@UForceInfo@@@std@@QAEPAUForceInfo@@I@Z
_TEXT	SEGMENT
__Count$ = 8						; size = 4
?allocate@?$allocator@UForceInfo@@@std@@QAEPAUForceInfo@@I@Z PROC ; std::allocator<ForceInfo>::allocate, COMDAT
; _this$ = ecx

; 186  : 		{	// allocate array of _Count elements

  00000	55		 push	 ebp
  00001	8b ec		 mov	 ebp, esp

; 187  : 		return (_Allocate(_Count, (pointer)0));

  00003	6a 00		 push	 0
  00005	ff 75 08	 push	 DWORD PTR __Count$[ebp]
  00008	e8 00 00 00 00	 call	 ??$_Allocate@UForceInfo@@@std@@YAPAUForceInfo@@IPAU1@@Z ; std::_Allocate<ForceInfo>
  0000d	59		 pop	 ecx
  0000e	59		 pop	 ecx

; 188  : 		}

  0000f	5d		 pop	 ebp
  00010	c2 04 00	 ret	 4
?allocate@?$allocator@UForceInfo@@@std@@QAEPAUForceInfo@@I@Z ENDP ; std::allocator<ForceInfo>::allocate
_TEXT	ENDS
PUBLIC	??8?$_Vector_const_iterator@V?$_Vector_val@UWeaponInfo@@V?$allocator@UWeaponInfo@@@std@@@std@@@std@@QBE_NABV01@@Z ; std::_Vector_const_iterator<std::_Vector_val<WeaponInfo,std::allocator<WeaponInfo> > >::operator==
; Function compile flags: /Ogsp
; File c:\program files (x86)\microsoft visual studio 10.0\vc\include\vector
;	COMDAT ??8?$_Vector_const_iterator@V?$_Vector_val@UWeaponInfo@@V?$allocator@UWeaponInfo@@@std@@@std@@@std@@QBE_NABV01@@Z
_TEXT	SEGMENT
__Right$ = 8						; size = 4
??8?$_Vector_const_iterator@V?$_Vector_val@UWeaponInfo@@V?$allocator@UWeaponInfo@@@std@@@std@@@std@@QBE_NABV01@@Z PROC ; std::_Vector_const_iterator<std::_Vector_val<WeaponInfo,std::allocator<WeaponInfo> > >::operator==, COMDAT
; _this$ = ecx

; 201  : 		{	// test for iterator equality

  00000	55		 push	 ebp
  00001	8b ec		 mov	 ebp, esp

; 202  : 		_Compat(_Right);
; 203  : 		return (this->_Ptr == _Right._Ptr);

  00003	8b 01		 mov	 eax, DWORD PTR [ecx]
  00005	8b 4d 08	 mov	 ecx, DWORD PTR __Right$[ebp]
  00008	2b 01		 sub	 eax, DWORD PTR [ecx]
  0000a	f7 d8		 neg	 eax
  0000c	1b c0		 sbb	 eax, eax
  0000e	40		 inc	 eax

; 204  : 		}

  0000f	5d		 pop	 ebp
  00010	c2 04 00	 ret	 4
??8?$_Vector_const_iterator@V?$_Vector_val@UWeaponInfo@@V?$allocator@UWeaponInfo@@@std@@@std@@@std@@QBE_NABV01@@Z ENDP ; std::_Vector_const_iterator<std::_Vector_val<WeaponInfo,std::allocator<WeaponInfo> > >::operator==
_TEXT	ENDS
PUBLIC	??8?$_Vector_const_iterator@V?$_Vector_val@UForceInfo@@V?$allocator@UForceInfo@@@std@@@std@@@std@@QBE_NABV01@@Z ; std::_Vector_const_iterator<std::_Vector_val<ForceInfo,std::allocator<ForceInfo> > >::operator==
; Function compile flags: /Ogsp
;	COMDAT ??8?$_Vector_const_iterator@V?$_Vector_val@UForceInfo@@V?$allocator@UForceInfo@@@std@@@std@@@std@@QBE_NABV01@@Z
_TEXT	SEGMENT
__Right$ = 8						; size = 4
??8?$_Vector_const_iterator@V?$_Vector_val@UForceInfo@@V?$allocator@UForceInfo@@@std@@@std@@@std@@QBE_NABV01@@Z PROC ; std::_Vector_const_iterator<std::_Vector_val<ForceInfo,std::allocator<ForceInfo> > >::operator==, COMDAT
; _this$ = ecx

; 201  : 		{	// test for iterator equality

  00000	55		 push	 ebp
  00001	8b ec		 mov	 ebp, esp

; 202  : 		_Compat(_Right);
; 203  : 		return (this->_Ptr == _Right._Ptr);

  00003	8b 01		 mov	 eax, DWORD PTR [ecx]
  00005	8b 4d 08	 mov	 ecx, DWORD PTR __Right$[ebp]
  00008	2b 01		 sub	 eax, DWORD PTR [ecx]
  0000a	f7 d8		 neg	 eax
  0000c	1b c0		 sbb	 eax, eax
  0000e	40		 inc	 eax

; 204  : 		}

  0000f	5d		 pop	 ebp
  00010	c2 04 00	 ret	 4
??8?$_Vector_const_iterator@V?$_Vector_val@UForceInfo@@V?$allocator@UForceInfo@@@std@@@std@@@std@@QBE_NABV01@@Z ENDP ; std::_Vector_const_iterator<std::_Vector_val<ForceInfo,std::allocator<ForceInfo> > >::operator==
_TEXT	ENDS
PUBLIC	?destroy@?$allocator@UForceInfo@@@std@@QAEXPAUForceInfo@@@Z ; std::allocator<ForceInfo>::destroy
; Function compile flags: /Ogsp
; File c:\program files (x86)\microsoft visual studio 10.0\vc\include\xmemory
;	COMDAT ?destroy@?$allocator@UForceInfo@@@std@@QAEXPAUForceInfo@@@Z
_TEXT	SEGMENT
__Ptr$ = 8						; size = 4
?destroy@?$allocator@UForceInfo@@@std@@QAEXPAUForceInfo@@@Z PROC ; std::allocator<ForceInfo>::destroy, COMDAT
; _this$ = ecx

; 213  : 		_Destroy(_Ptr);
; 214  : 		}

  00000	c2 04 00	 ret	 4
?destroy@?$allocator@UForceInfo@@@std@@QAEXPAUForceInfo@@@Z ENDP ; std::allocator<ForceInfo>::destroy
_TEXT	ENDS
PUBLIC	??$_Destroy@UWeaponInfo@@@std@@YAXPAUWeaponInfo@@@Z ; std::_Destroy<WeaponInfo>
; Function compile flags: /Ogsp
;	COMDAT ??$_Destroy@UWeaponInfo@@@std@@YAXPAUWeaponInfo@@@Z
_TEXT	SEGMENT
__Ptr$ = 8						; size = 4
??$_Destroy@UWeaponInfo@@@std@@YAXPAUWeaponInfo@@@Z PROC ; std::_Destroy<WeaponInfo>, COMDAT

; 62   : 	{	// destroy object at _Ptr

  00000	55		 push	 ebp
  00001	8b ec		 mov	 ebp, esp

; 63   : 	_Ptr->~_Ty();

  00003	8b 4d 08	 mov	 ecx, DWORD PTR __Ptr$[ebp]
  00006	83 c1 08	 add	 ecx, 8

; 64   : 	}

  00009	5d		 pop	 ebp

; 63   : 	_Ptr->~_Ty();

  0000a	ff 25 00 00 00
	00		 jmp	 DWORD PTR __imp_??1ioHashString@@QAE@XZ
??$_Destroy@UWeaponInfo@@@std@@YAXPAUWeaponInfo@@@Z ENDP ; std::_Destroy<WeaponInfo>
_TEXT	ENDS
PUBLIC	?SetGravityAmt@ioBaseChar@@QAEXM@Z		; ioBaseChar::SetGravityAmt
; Function compile flags: /Ogsp
; File d:\lost saga for developer\youtube\tutorial\source\src\lsclient\iobasechar.h
;	COMDAT ?SetGravityAmt@ioBaseChar@@QAEXM@Z
_TEXT	SEGMENT
_value$553230 = 8					; size = 4
_fAmt$ = 8						; size = 4
?SetGravityAmt@ioBaseChar@@QAEXM@Z PROC			; ioBaseChar::SetGravityAmt, COMDAT
; _this$ = ecx

; 2631 : 	inline void SetGravityAmt( float fAmt ) { m_fGravityAmt = fAmt; }

  00000	55		 push	 ebp
  00001	8b ec		 mov	 ebp, esp
  00003	f3 0f 10 45 08	 movss	 xmm0, DWORD PTR _fAmt$[ebp]
  00008	8d 45 08	 lea	 eax, DWORD PTR _value$553230[ebp]
  0000b	50		 push	 eax
  0000c	81 c1 e8 0b 00
	00		 add	 ecx, 3048		; 00000be8H
  00012	f3 0f 11 45 08	 movss	 DWORD PTR _value$553230[ebp], xmm0
  00017	e8 00 00 00 00	 call	 ?EncryptValueToPool@?$CEncrypt@M@@AAEXPBD@Z ; CEncrypt<float>::EncryptValueToPool
  0001c	5d		 pop	 ebp
  0001d	c2 04 00	 ret	 4
?SetGravityAmt@ioBaseChar@@QAEXM@Z ENDP			; ioBaseChar::SetGravityAmt
_TEXT	ENDS
PUBLIC	?SetForcePowerAmt@ioBaseChar@@QAEXM@Z		; ioBaseChar::SetForcePowerAmt
; Function compile flags: /Ogsp
;	COMDAT ?SetForcePowerAmt@ioBaseChar@@QAEXM@Z
_TEXT	SEGMENT
_value$553236 = 8					; size = 4
_fAmt$ = 8						; size = 4
?SetForcePowerAmt@ioBaseChar@@QAEXM@Z PROC		; ioBaseChar::SetForcePowerAmt, COMDAT
; _this$ = ecx

; 2641 : 	inline void SetForcePowerAmt( float fAmt ) { m_fForceAmt = fAmt; }

  00000	55		 push	 ebp
  00001	8b ec		 mov	 ebp, esp
  00003	f3 0f 10 45 08	 movss	 xmm0, DWORD PTR _fAmt$[ebp]
  00008	8d 45 08	 lea	 eax, DWORD PTR _value$553236[ebp]
  0000b	50		 push	 eax
  0000c	81 c1 88 0b 00
	00		 add	 ecx, 2952		; 00000b88H
  00012	f3 0f 11 45 08	 movss	 DWORD PTR _value$553236[ebp], xmm0
  00017	e8 00 00 00 00	 call	 ?EncryptValueToPool@?$CEncrypt@M@@AAEXPBD@Z ; CEncrypt<float>::EncryptValueToPool
  0001c	5d		 pop	 ebp
  0001d	c2 04 00	 ret	 4
?SetForcePowerAmt@ioBaseChar@@QAEXM@Z ENDP		; ioBaseChar::SetForcePowerAmt
_TEXT	ENDS
PUBLIC	??_C@_00CNPNBAHC@?$AA@				; `string'
PUBLIC	_rkLoader$GSCopy$
PUBLIC	__$ArrayPad$
PUBLIC	?LoadProperty@ioCircleMoveAttackSkill3@@UAEXAAVioINILoader@@@Z ; ioCircleMoveAttackSkill3::LoadProperty
EXTRN	?Init@AttackAttribute@@QAEXXZ:PROC		; AttackAttribute::Init
EXTRN	__imp_??4ioHashString@@QAEAAV0@PBD@Z:PROC
EXTRN	?LoadProperty@ioNormalSkill@@UAEXAAVioINILoader@@@Z:PROC ; ioNormalSkill::LoadProperty
;	COMDAT ??_C@_00CNPNBAHC@?$AA@
; File d:\lost saga for developer\youtube\tutorial\source\src\lsclient\stringprotect.h
CONST	SEGMENT
??_C@_00CNPNBAHC@?$AA@ DB 00H				; `string'
; Function compile flags: /Ogsp
; File d:\lost saga for developer\youtube\tutorial\source\src\lsclient\iocirclemoveattackskill3.cpp
CONST	ENDS
;	COMDAT ?LoadProperty@ioCircleMoveAttackSkill3@@UAEXAAVioINILoader@@@Z
_TEXT	SEGMENT
_value$554748 = -300					; size = 4
_value$554618 = -300					; size = 4
_rkLoader$GSCopy$ = -296				; size = 4
_szBuf$ = -292						; size = 260
__k$554635 = -32					; size = 21
__k$553880 = -32					; size = 21
__k$553505 = -32					; size = 24
__k$553380 = -32					; size = 24
_szEncAttack$555021 = -28				; size = 20
__k$554325 = -28					; size = 17
__k$554143 = -28					; size = 17
__k$553630 = -28					; size = 20
__k$553307 = -28					; size = 19
_szEncAttack$554890 = -24				; size = 14
__k$554765 = -24					; size = 16
__k$554505 = -24					; size = 14
__k$554018 = -24					; size = 16
__k$553755 = -24					; size = 13
__k$554380 = -20					; size = 9
__$ArrayPad$ = -4					; size = 4
_rkLoader$ = 8						; size = 4
?LoadProperty@ioCircleMoveAttackSkill3@@UAEXAAVioINILoader@@@Z PROC ; ioCircleMoveAttackSkill3::LoadProperty, COMDAT
; _this$ = ecx

; 64   : {

  00000	55		 push	 ebp
  00001	8b ec		 mov	 ebp, esp
  00003	81 ec 2c 01 00
	00		 sub	 esp, 300		; 0000012cH
  00009	a1 00 00 00 00	 mov	 eax, DWORD PTR ___security_cookie
  0000e	33 c5		 xor	 eax, ebp
  00010	89 45 fc	 mov	 DWORD PTR __$ArrayPad$[ebp], eax
  00013	53		 push	 ebx
  00014	56		 push	 esi
  00015	57		 push	 edi
  00016	8b 7d 08	 mov	 edi, DWORD PTR _rkLoader$[ebp]

; 65   : 	ioNormalSkill::LoadProperty( rkLoader );

  00019	57		 push	 edi
  0001a	8b f1		 mov	 esi, ecx

; 93   : 
; 94   : 	// action loop
; 95   : 	rkLoader.LoadString_e( "action_loop_ani", "", szBuf, MAX_PATH );

  0001c	89 bd d8 fe ff
	ff		 mov	 DWORD PTR _rkLoader$GSCopy$[ebp], edi
  00022	e8 00 00 00 00	 call	 ?LoadProperty@ioNormalSkill@@UAEXAAVioINILoader@@@Z ; ioNormalSkill::LoadProperty
  00027	6a 04		 push	 4
  00029	5b		 pop	 ebx
  0002a	c7 45 e4 80 8d
	8c 83		 mov	 DWORD PTR __k$553307[ebp], -2087940736 ; 838c8d80H
  00031	c7 45 e8 8e b3
	88 83		 mov	 DWORD PTR __k$553307[ebp+4], -2088193138 ; 8388b38eH
  00038	c7 45 ec 9f 8f
	87 8f		 mov	 DWORD PTR __k$553307[ebp+8], -1886941281 ; 8f878f9fH
  0003f	c7 45 f0 b2 9e
	8a 84		 mov	 DWORD PTR __k$553307[ebp+12], -2071290190 ; 848a9eb2H
  00046	66 c7 45 f4 8a
	89		 mov	 WORD PTR __k$553307[ebp+16], 35210 ; 0000898aH
  0004c	8d 45 e4	 lea	 eax, DWORD PTR __k$553307[ebp]
  0004f	c6 45 f6 00	 mov	 BYTE PTR __k$553307[ebp+18], 0
  00053	8b cb		 mov	 ecx, ebx
$LL106@LoadProper:

; 66   : 
; 67   : 	char szBuf[MAX_PATH];
; 68   : 
; 69   : 	m_fCircleRange = rkLoader.LoadFloat_e( "magic_circle_range", 0.0f );

  00055	81 30 ed ec eb
	ea		 xor	 DWORD PTR [eax], -353637139 ; eaebecedH
  0005b	03 c3		 add	 eax, ebx
  0005d	49		 dec	 ecx
  0005e	75 f5		 jne	 SHORT $LL106@LoadProper
  00060	6a 10		 push	 16			; 00000010H
  00062	58		 pop	 eax
$LL103@LoadProper:
  00063	8b c8		 mov	 ecx, eax
  00065	81 e1 03 00 00
	80		 and	 ecx, -2147483645	; 80000003H
  0006b	79 05		 jns	 SHORT $LN1657@LoadProper
  0006d	49		 dec	 ecx
  0006e	83 c9 fc	 or	 ecx, -4			; fffffffcH
  00071	41		 inc	 ecx
$LN1657@LoadProper:
  00072	b2 ed		 mov	 dl, -19			; ffffffedH
  00074	2a d1		 sub	 dl, cl
  00076	30 54 05 e4	 xor	 BYTE PTR __k$553307[ebp+eax], dl
  0007a	40		 inc	 eax
  0007b	83 f8 12	 cmp	 eax, 18			; 00000012H
  0007e	7c e3		 jl	 SHORT $LL103@LoadProper
  00080	0f 57 c0	 xorps	 xmm0, xmm0
  00083	51		 push	 ecx
  00084	8d 45 e4	 lea	 eax, DWORD PTR __k$553307[ebp]
  00087	f3 0f 11 04 24	 movss	 DWORD PTR [esp], xmm0
  0008c	50		 push	 eax
  0008d	8b cf		 mov	 ecx, edi
  0008f	ff 15 00 00 00
	00		 call	 DWORD PTR __imp_?LoadFloat@ioINILoader@@QAEMPBDM@Z
  00095	d9 9e 00 10 00
	00		 fstp	 DWORD PTR [esi+4096]
  0009b	6a 05		 push	 5

; 70   : 	m_fCircleMoveSpeed = rkLoader.LoadFloat_e( "magic_circle_move_speed", 0.0f );

  0009d	c7 45 e0 80 8d
	8c 83		 mov	 DWORD PTR __k$553380[ebp], -2087940736 ; 838c8d80H
  000a4	c7 45 e4 8e b3
	88 83		 mov	 DWORD PTR __k$553380[ebp+4], -2088193138 ; 8388b38eH
  000ab	c7 45 e8 9f 8f
	87 8f		 mov	 DWORD PTR __k$553380[ebp+8], -1886941281 ; 8f878f9fH
  000b2	c7 45 ec b2 81
	84 9c		 mov	 DWORD PTR __k$553380[ebp+12], -1669037646 ; 9c8481b2H
  000b9	c7 45 f0 88 b3
	98 9a		 mov	 DWORD PTR __k$553380[ebp+16], -1701268600 ; 9a98b388H
  000c0	8d 45 e0	 lea	 eax, DWORD PTR __k$553380[ebp]
  000c3	c7 45 f4 88 89
	8f 00		 mov	 DWORD PTR __k$553380[ebp+20], 9406856 ; 008f8988H
  000ca	59		 pop	 ecx
$LL212@LoadProper:
  000cb	81 30 ed ec eb
	ea		 xor	 DWORD PTR [eax], -353637139 ; eaebecedH
  000d1	03 c3		 add	 eax, ebx
  000d3	49		 dec	 ecx
  000d4	75 f5		 jne	 SHORT $LL212@LoadProper
  000d6	6a 14		 push	 20			; 00000014H
  000d8	58		 pop	 eax
$LL209@LoadProper:
  000d9	8b c8		 mov	 ecx, eax
  000db	81 e1 03 00 00
	80		 and	 ecx, -2147483645	; 80000003H
  000e1	79 05		 jns	 SHORT $LN1658@LoadProper
  000e3	49		 dec	 ecx
  000e4	83 c9 fc	 or	 ecx, -4			; fffffffcH
  000e7	41		 inc	 ecx
$LN1658@LoadProper:
  000e8	b2 ed		 mov	 dl, -19			; ffffffedH
  000ea	2a d1		 sub	 dl, cl
  000ec	30 54 05 e0	 xor	 BYTE PTR __k$553380[ebp+eax], dl
  000f0	40		 inc	 eax
  000f1	83 f8 17	 cmp	 eax, 23			; 00000017H
  000f4	7c e3		 jl	 SHORT $LL209@LoadProper
  000f6	0f 57 c0	 xorps	 xmm0, xmm0
  000f9	51		 push	 ecx
  000fa	8d 45 e0	 lea	 eax, DWORD PTR __k$553380[ebp]
  000fd	f3 0f 11 04 24	 movss	 DWORD PTR [esp], xmm0
  00102	50		 push	 eax
  00103	8b cf		 mov	 ecx, edi
  00105	ff 15 00 00 00
	00		 call	 DWORD PTR __imp_?LoadFloat@ioINILoader@@QAEMPBDM@Z
  0010b	d9 9e 04 10 00
	00		 fstp	 DWORD PTR [esi+4100]
  00111	6a 05		 push	 5

; 71   : 	m_fCircleHeightGap = rkLoader.LoadFloat_e( "magic_circle_height_gap", 0.0f );

  00113	c7 45 e0 80 8d
	8c 83		 mov	 DWORD PTR __k$553505[ebp], -2087940736 ; 838c8d80H
  0011a	c7 45 e4 8e b3
	88 83		 mov	 DWORD PTR __k$553505[ebp+4], -2088193138 ; 8388b38eH
  00121	c7 45 e8 9f 8f
	87 8f		 mov	 DWORD PTR __k$553505[ebp+8], -1886941281 ; 8f878f9fH
  00128	c7 45 ec b2 84
	8e 83		 mov	 DWORD PTR __k$553505[ebp+12], -2087811918 ; 838e84b2H
  0012f	c7 45 f0 8a 84
	9f b5		 mov	 DWORD PTR __k$553505[ebp+16], -1247837046 ; b59f848aH
  00136	8d 45 e0	 lea	 eax, DWORD PTR __k$553505[ebp]
  00139	c7 45 f4 8a 8d
	9b 00		 mov	 DWORD PTR __k$553505[ebp+20], 10194314 ; 009b8d8aH
  00140	59		 pop	 ecx
$LL318@LoadProper:
  00141	81 30 ed ec eb
	ea		 xor	 DWORD PTR [eax], -353637139 ; eaebecedH
  00147	03 c3		 add	 eax, ebx
  00149	49		 dec	 ecx
  0014a	75 f5		 jne	 SHORT $LL318@LoadProper
  0014c	6a 14		 push	 20			; 00000014H
  0014e	58		 pop	 eax
$LL315@LoadProper:
  0014f	8b c8		 mov	 ecx, eax
  00151	81 e1 03 00 00
	80		 and	 ecx, -2147483645	; 80000003H
  00157	79 05		 jns	 SHORT $LN1659@LoadProper
  00159	49		 dec	 ecx
  0015a	83 c9 fc	 or	 ecx, -4			; fffffffcH
  0015d	41		 inc	 ecx
$LN1659@LoadProper:
  0015e	b2 ed		 mov	 dl, -19			; ffffffedH
  00160	2a d1		 sub	 dl, cl
  00162	30 54 05 e0	 xor	 BYTE PTR __k$553505[ebp+eax], dl
  00166	40		 inc	 eax
  00167	83 f8 17	 cmp	 eax, 23			; 00000017H
  0016a	7c e3		 jl	 SHORT $LL315@LoadProper
  0016c	0f 57 c0	 xorps	 xmm0, xmm0
  0016f	51		 push	 ecx
  00170	8d 45 e0	 lea	 eax, DWORD PTR __k$553505[ebp]
  00173	f3 0f 11 04 24	 movss	 DWORD PTR [esp], xmm0
  00178	50		 push	 eax
  00179	8b cf		 mov	 ecx, edi
  0017b	ff 15 00 00 00
	00		 call	 DWORD PTR __imp_?LoadFloat@ioINILoader@@QAEMPBDM@Z
  00181	d9 9e 08 10 00
	00		 fstp	 DWORD PTR [esi+4104]

; 72   : 	m_fCircleOffSet = rkLoader.LoadFloat_e( "magic_circle_offset", 0.0f );

  00187	c7 45 e4 80 8d
	8c 83		 mov	 DWORD PTR __k$553630[ebp], -2087940736 ; 838c8d80H
  0018e	c7 45 e8 8e b3
	88 83		 mov	 DWORD PTR __k$553630[ebp+4], -2088193138 ; 8388b38eH
  00195	c7 45 ec 9f 8f
	87 8f		 mov	 DWORD PTR __k$553630[ebp+8], -1886941281 ; 8f878f9fH
  0019c	c7 45 f0 b2 83
	8d 8c		 mov	 DWORD PTR __k$553630[ebp+12], -1936882766 ; 8c8d83b2H
  001a3	8d 45 e4	 lea	 eax, DWORD PTR __k$553630[ebp]
  001a6	c7 45 f4 9e 89
	9f 00		 mov	 DWORD PTR __k$553630[ebp+16], 10455454 ; 009f899eH
  001ad	8b cb		 mov	 ecx, ebx
$LL424@LoadProper:
  001af	81 30 ed ec eb
	ea		 xor	 DWORD PTR [eax], -353637139 ; eaebecedH
  001b5	03 c3		 add	 eax, ebx
  001b7	49		 dec	 ecx
  001b8	75 f5		 jne	 SHORT $LL424@LoadProper
  001ba	6a 10		 push	 16			; 00000010H
  001bc	58		 pop	 eax
$LL421@LoadProper:
  001bd	8b c8		 mov	 ecx, eax
  001bf	81 e1 03 00 00
	80		 and	 ecx, -2147483645	; 80000003H
  001c5	79 05		 jns	 SHORT $LN1660@LoadProper
  001c7	49		 dec	 ecx
  001c8	83 c9 fc	 or	 ecx, -4			; fffffffcH
  001cb	41		 inc	 ecx
$LN1660@LoadProper:
  001cc	b2 ed		 mov	 dl, -19			; ffffffedH
  001ce	2a d1		 sub	 dl, cl
  001d0	30 54 05 e4	 xor	 BYTE PTR __k$553630[ebp+eax], dl
  001d4	40		 inc	 eax
  001d5	83 f8 13	 cmp	 eax, 19			; 00000013H
  001d8	7c e3		 jl	 SHORT $LL421@LoadProper
  001da	0f 57 c0	 xorps	 xmm0, xmm0
  001dd	51		 push	 ecx
  001de	8d 45 e4	 lea	 eax, DWORD PTR __k$553630[ebp]
  001e1	f3 0f 11 04 24	 movss	 DWORD PTR [esp], xmm0
  001e6	50		 push	 eax
  001e7	8b cf		 mov	 ecx, edi
  001e9	ff 15 00 00 00
	00		 call	 DWORD PTR __imp_?LoadFloat@ioINILoader@@QAEMPBDM@Z
  001ef	d9 9e 0c 10 00
	00		 fstp	 DWORD PTR [esi+4108]
  001f5	6a 03		 push	 3

; 73   : 
; 74   : 	rkLoader.LoadString_e( "ready_circle", "", szBuf, MAX_PATH );

  001f7	c7 45 e8 9f 89
	8a 8e		 mov	 DWORD PTR __k$553755[ebp], -1903523425 ; 8e8a899fH
  001fe	c7 45 ec 94 b3
	88 83		 mov	 DWORD PTR __k$553755[ebp+4], -2088193132 ; 8388b394H
  00205	c7 45 f0 9f 8f
	87 8f		 mov	 DWORD PTR __k$553755[ebp+8], -1886941281 ; 8f878f9fH
  0020c	8d 45 e8	 lea	 eax, DWORD PTR __k$553755[ebp]
  0020f	c6 45 f4 00	 mov	 BYTE PTR __k$553755[ebp+12], 0
  00213	59		 pop	 ecx
$LL530@LoadProper:
  00214	81 30 ed ec eb
	ea		 xor	 DWORD PTR [eax], -353637139 ; eaebecedH
  0021a	03 c3		 add	 eax, ebx
  0021c	49		 dec	 ecx
  0021d	75 f5		 jne	 SHORT $LL530@LoadProper
  0021f	68 04 01 00 00	 push	 260			; 00000104H
  00224	8d 85 dc fe ff
	ff		 lea	 eax, DWORD PTR _szBuf$[ebp]
  0022a	50		 push	 eax
  0022b	68 00 00 00 00	 push	 OFFSET ??_C@_00CNPNBAHC@?$AA@
  00230	8d 45 e8	 lea	 eax, DWORD PTR __k$553755[ebp]
  00233	8b cf		 mov	 ecx, edi
  00235	8b 3d 00 00 00
	00		 mov	 edi, DWORD PTR __imp_?LoadStringA@ioINILoader@@QAEXPBD0PADH@Z
  0023b	50		 push	 eax
  0023c	ff d7		 call	 edi

; 75   : 	m_ReadyCircle = szBuf;

  0023e	8b 1d 00 00 00
	00		 mov	 ebx, DWORD PTR __imp_??4ioHashString@@QAEAAV0@PBD@Z
  00244	8d 85 dc fe ff
	ff		 lea	 eax, DWORD PTR _szBuf$[ebp]
  0024a	50		 push	 eax
  0024b	8d 8e 10 10 00
	00		 lea	 ecx, DWORD PTR [esi+4112]
  00251	ff d3		 call	 ebx
  00253	6a 05		 push	 5

; 76   : 
; 77   : 	rkLoader.LoadString_e( "target_circle_effect", "", szBuf, MAX_PATH );

  00255	c7 45 e0 99 8d
	99 8d		 mov	 DWORD PTR __k$553880[ebp], -1919316583 ; 8d998d99H
  0025c	c7 45 e4 88 98
	b4 89		 mov	 DWORD PTR __k$553880[ebp+4], -1984653176 ; 89b49888H
  00263	c7 45 e8 84 9e
	88 86		 mov	 DWORD PTR __k$553880[ebp+8], -2037866876 ; 86889e84H
  0026a	c7 45 ec 88 b3
	8e 8c		 mov	 DWORD PTR __k$553880[ebp+12], -1936804984 ; 8c8eb388H
  00271	c7 45 f0 8b 89
	88 9e		 mov	 DWORD PTR __k$553880[ebp+16], -1635219061 ; 9e88898bH
  00278	8d 45 e0	 lea	 eax, DWORD PTR __k$553880[ebp]
  0027b	c6 45 f4 00	 mov	 BYTE PTR __k$553880[ebp+20], 0
  0027f	59		 pop	 ecx
$LL636@LoadProper:
  00280	81 30 ed ec eb
	ea		 xor	 DWORD PTR [eax], -353637139 ; eaebecedH
  00286	83 c0 04	 add	 eax, 4
  00289	49		 dec	 ecx
  0028a	75 f4		 jne	 SHORT $LL636@LoadProper
  0028c	8b 8d d8 fe ff
	ff		 mov	 ecx, DWORD PTR _rkLoader$GSCopy$[ebp]
  00292	68 04 01 00 00	 push	 260			; 00000104H
  00297	8d 85 dc fe ff
	ff		 lea	 eax, DWORD PTR _szBuf$[ebp]
  0029d	50		 push	 eax
  0029e	68 00 00 00 00	 push	 OFFSET ??_C@_00CNPNBAHC@?$AA@
  002a3	8d 45 e0	 lea	 eax, DWORD PTR __k$553880[ebp]
  002a6	50		 push	 eax
  002a7	ff d7		 call	 edi

; 78   : 	m_TargetCircleEffect = szBuf;

  002a9	8d 85 dc fe ff
	ff		 lea	 eax, DWORD PTR _szBuf$[ebp]
  002af	50		 push	 eax
  002b0	8d 8e 20 10 00
	00		 lea	 ecx, DWORD PTR [esi+4128]
  002b6	ff d3		 call	 ebx
  002b8	6a 03		 push	 3

; 79   : 
; 80   : 	rkLoader.LoadString_e( "red_team_circle", "", szBuf, MAX_PATH );

  002ba	c7 45 e8 9f 89
	8f b5		 mov	 DWORD PTR __k$554018[ebp], -1248884321 ; b58f899fH
  002c1	c7 45 ec 99 89
	8a 87		 mov	 DWORD PTR __k$554018[ebp+4], -2020963943 ; 878a8999H
  002c8	c7 45 f0 b2 8f
	82 98		 mov	 DWORD PTR __k$554018[ebp+8], -1736273998 ; 98828fb2H
  002cf	8d 45 e8	 lea	 eax, DWORD PTR __k$554018[ebp]
  002d2	c7 45 f4 8e 80
	8e 00		 mov	 DWORD PTR __k$554018[ebp+12], 9339022 ; 008e808eH
  002d9	59		 pop	 ecx
$LL742@LoadProper:
  002da	81 30 ed ec eb
	ea		 xor	 DWORD PTR [eax], -353637139 ; eaebecedH
  002e0	83 c0 04	 add	 eax, 4
  002e3	49		 dec	 ecx
  002e4	75 f4		 jne	 SHORT $LL742@LoadProper
  002e6	6a 0c		 push	 12			; 0000000cH
  002e8	58		 pop	 eax
$LL739@LoadProper:
  002e9	8b c8		 mov	 ecx, eax
  002eb	81 e1 03 00 00
	80		 and	 ecx, -2147483645	; 80000003H
  002f1	79 05		 jns	 SHORT $LN1661@LoadProper
  002f3	49		 dec	 ecx
  002f4	83 c9 fc	 or	 ecx, -4			; fffffffcH
  002f7	41		 inc	 ecx
$LN1661@LoadProper:
  002f8	b2 ed		 mov	 dl, -19			; ffffffedH
  002fa	2a d1		 sub	 dl, cl
  002fc	30 54 05 e8	 xor	 BYTE PTR __k$554018[ebp+eax], dl
  00300	40		 inc	 eax
  00301	83 f8 0f	 cmp	 eax, 15			; 0000000fH
  00304	7c e3		 jl	 SHORT $LL739@LoadProper
  00306	8b 8d d8 fe ff
	ff		 mov	 ecx, DWORD PTR _rkLoader$GSCopy$[ebp]
  0030c	68 04 01 00 00	 push	 260			; 00000104H
  00311	8d 85 dc fe ff
	ff		 lea	 eax, DWORD PTR _szBuf$[ebp]
  00317	50		 push	 eax
  00318	68 00 00 00 00	 push	 OFFSET ??_C@_00CNPNBAHC@?$AA@
  0031d	8d 45 e8	 lea	 eax, DWORD PTR __k$554018[ebp]
  00320	50		 push	 eax
  00321	ff d7		 call	 edi

; 81   : 	m_RedEffect = szBuf;

  00323	8d 85 dc fe ff
	ff		 lea	 eax, DWORD PTR _szBuf$[ebp]
  00329	50		 push	 eax
  0032a	8d 8e 30 10 00
	00		 lea	 ecx, DWORD PTR [esi+4144]
  00330	ff d3		 call	 ebx
  00332	6a 04		 push	 4

; 82   : 	rkLoader.LoadString_e( "blue_team_circle", "", szBuf, MAX_PATH );

  00334	c7 45 e4 8f 80
	9e 8f		 mov	 DWORD PTR __k$554143[ebp], -1885437809 ; 8f9e808fH
  0033b	c7 45 e8 b2 98
	8e 8b		 mov	 DWORD PTR __k$554143[ebp+4], -1953589070 ; 8b8e98b2H
  00342	c7 45 ec 80 b3
	88 83		 mov	 DWORD PTR __k$554143[ebp+8], -2088193152 ; 8388b380H
  00349	c7 45 f0 9f 8f
	87 8f		 mov	 DWORD PTR __k$554143[ebp+12], -1886941281 ; 8f878f9fH
  00350	8d 45 e4	 lea	 eax, DWORD PTR __k$554143[ebp]
  00353	c6 45 f4 00	 mov	 BYTE PTR __k$554143[ebp+16], 0
  00357	59		 pop	 ecx
$LL848@LoadProper:
  00358	81 30 ed ec eb
	ea		 xor	 DWORD PTR [eax], -353637139 ; eaebecedH
  0035e	83 c0 04	 add	 eax, 4
  00361	49		 dec	 ecx
  00362	75 f4		 jne	 SHORT $LL848@LoadProper
  00364	8b 8d d8 fe ff
	ff		 mov	 ecx, DWORD PTR _rkLoader$GSCopy$[ebp]
  0036a	68 04 01 00 00	 push	 260			; 00000104H
  0036f	8d 85 dc fe ff
	ff		 lea	 eax, DWORD PTR _szBuf$[ebp]
  00375	50		 push	 eax
  00376	68 00 00 00 00	 push	 OFFSET ??_C@_00CNPNBAHC@?$AA@
  0037b	8d 45 e4	 lea	 eax, DWORD PTR __k$554143[ebp]
  0037e	50		 push	 eax
  0037f	ff d7		 call	 edi

; 83   : 	m_BlueEffect = szBuf;

  00381	8d 85 dc fe ff
	ff		 lea	 eax, DWORD PTR _szBuf$[ebp]
  00387	50		 push	 eax
  00388	8d 8e 40 10 00
	00		 lea	 ecx, DWORD PTR [esi+4160]
  0038e	ff d3		 call	 ebx
  00390	6a 04		 push	 4

; 84   : 
; 85   : 	m_fCharJumpPower = rkLoader.LoadFloat_e( "skill_jump_power", 0.0f );

  00392	c7 45 e4 9e 87
	82 86		 mov	 DWORD PTR __k$554325[ebp], -2038265954 ; 8682879eH
  00399	c7 45 e8 81 b3
	81 9f		 mov	 DWORD PTR __k$554325[ebp+4], -1618889855 ; 9f81b381H
  003a0	c7 45 ec 80 9c
	b4 9a		 mov	 DWORD PTR __k$554325[ebp+8], -1699439488 ; 9ab49c80H
  003a7	c7 45 f0 82 9b
	8e 98		 mov	 DWORD PTR __k$554325[ebp+12], -1735484542 ; 988e9b82H
  003ae	8d 45 e4	 lea	 eax, DWORD PTR __k$554325[ebp]
  003b1	c6 45 f4 00	 mov	 BYTE PTR __k$554325[ebp+16], 0
  003b5	59		 pop	 ecx
$LL954@LoadProper:
  003b6	81 30 ed ec eb
	ea		 xor	 DWORD PTR [eax], -353637139 ; eaebecedH
  003bc	83 c0 04	 add	 eax, 4
  003bf	49		 dec	 ecx
  003c0	75 f4		 jne	 SHORT $LL954@LoadProper
  003c2	0f 57 c0	 xorps	 xmm0, xmm0
  003c5	51		 push	 ecx
  003c6	8b 8d d8 fe ff
	ff		 mov	 ecx, DWORD PTR _rkLoader$GSCopy$[ebp]
  003cc	8d 45 e4	 lea	 eax, DWORD PTR __k$554325[ebp]
  003cf	f3 0f 11 04 24	 movss	 DWORD PTR [esp], xmm0
  003d4	50		 push	 eax
  003d5	ff 15 00 00 00
	00		 call	 DWORD PTR __imp_?LoadFloat@ioINILoader@@QAEMPBDM@Z
  003db	d9 9e 74 10 00
	00		 fstp	 DWORD PTR [esi+4212]
  003e1	6a 02		 push	 2

; 86   : 
; 87   : 	// wait
; 88   : 	rkLoader.LoadString_e( "wait_ani", "", szBuf, MAX_PATH );

  003e3	c7 45 ec 9a 8d
	82 9e		 mov	 DWORD PTR __k$554380[ebp], -1635611238 ; 9e828d9aH
  003ea	c7 45 f0 b2 8d
	85 83		 mov	 DWORD PTR __k$554380[ebp+4], -2088399438 ; 83858db2H
  003f1	8d 45 ec	 lea	 eax, DWORD PTR __k$554380[ebp]
  003f4	c6 45 f4 00	 mov	 BYTE PTR __k$554380[ebp+8], 0
  003f8	59		 pop	 ecx
$LL1060@LoadProper:
  003f9	81 30 ed ec eb
	ea		 xor	 DWORD PTR [eax], -353637139 ; eaebecedH
  003ff	83 c0 04	 add	 eax, 4
  00402	49		 dec	 ecx
  00403	75 f4		 jne	 SHORT $LL1060@LoadProper
  00405	8b 8d d8 fe ff
	ff		 mov	 ecx, DWORD PTR _rkLoader$GSCopy$[ebp]
  0040b	68 04 01 00 00	 push	 260			; 00000104H
  00410	8d 85 dc fe ff
	ff		 lea	 eax, DWORD PTR _szBuf$[ebp]
  00416	50		 push	 eax
  00417	68 00 00 00 00	 push	 OFFSET ??_C@_00CNPNBAHC@?$AA@
  0041c	8d 45 ec	 lea	 eax, DWORD PTR __k$554380[ebp]
  0041f	50		 push	 eax
  00420	ff d7		 call	 edi

; 89   : 	m_WaitAni = szBuf;

  00422	8d 85 dc fe ff
	ff		 lea	 eax, DWORD PTR _szBuf$[ebp]
  00428	50		 push	 eax
  00429	8d 8e 8c 0f 00
	00		 lea	 ecx, DWORD PTR [esi+3980]
  0042f	ff d3		 call	 ebx
  00431	6a 03		 push	 3

; 90   : 
; 91   : 	m_dwWaitDuration = (DWORD)rkLoader.LoadInt_e( "wait_duration", 0 );

  00433	c7 45 e8 9a 8d
	82 9e		 mov	 DWORD PTR __k$554505[ebp], -1635611238 ; 9e828d9aH
  0043a	c7 45 ec b2 88
	9e 98		 mov	 DWORD PTR __k$554505[ebp+4], -1734440782 ; 989e88b2H
  00441	c7 45 f0 8c 98
	82 85		 mov	 DWORD PTR __k$554505[ebp+8], -2055038836 ; 8582988cH
  00448	8d 45 e8	 lea	 eax, DWORD PTR __k$554505[ebp]
  0044b	66 c7 45 f4 83
	00		 mov	 WORD PTR __k$554505[ebp+12], 131 ; 00000083H
  00451	59		 pop	 ecx
$LL1166@LoadProper:
  00452	81 30 ed ec eb
	ea		 xor	 DWORD PTR [eax], -353637139 ; eaebecedH
  00458	83 c0 04	 add	 eax, 4
  0045b	49		 dec	 ecx
  0045c	75 f4		 jne	 SHORT $LL1166@LoadProper
  0045e	80 75 f4 ed	 xor	 BYTE PTR __k$554505[ebp+12], -19 ; ffffffedH
  00462	51		 push	 ecx
  00463	8b 8d d8 fe ff
	ff		 mov	 ecx, DWORD PTR _rkLoader$GSCopy$[ebp]
  00469	8d 45 e8	 lea	 eax, DWORD PTR __k$554505[ebp]
  0046c	50		 push	 eax
  0046d	ff 15 00 00 00
	00		 call	 DWORD PTR __imp_?LoadInt@ioINILoader@@QAEHPBDH@Z
  00473	89 85 d4 fe ff
	ff		 mov	 DWORD PTR _value$554618[ebp], eax
  00479	8d 85 d4 fe ff
	ff		 lea	 eax, DWORD PTR _value$554618[ebp]
  0047f	50		 push	 eax
  00480	8d 8e d0 0f 00
	00		 lea	 ecx, DWORD PTR [esi+4048]
  00486	e8 00 00 00 00	 call	 ?EncryptValueToPool@?$CEncrypt@K@@AAEXPBD@Z ; CEncrypt<unsigned long>::EncryptValueToPool
  0048b	6a 05		 push	 5

; 92   : 	m_dwWaitProtectionTime = (DWORD)rkLoader.LoadInt_e( "wait_protection_time", 0 );

  0048d	c7 45 e0 9a 8d
	82 9e		 mov	 DWORD PTR __k$554635[ebp], -1635611238 ; 9e828d9aH
  00494	c7 45 e4 b2 9c
	99 85		 mov	 DWORD PTR __k$554635[ebp+4], -2053530446 ; 85999cb2H
  0049b	c7 45 e8 99 89
	88 9e		 mov	 DWORD PTR __k$554635[ebp+8], -1635219047 ; 9e888999H
  004a2	c7 45 ec 84 83
	85 b5		 mov	 DWORD PTR __k$554635[ebp+12], -1249541244 ; b5858384H
  004a9	c7 45 f0 99 85
	86 8f		 mov	 DWORD PTR __k$554635[ebp+16], -1887009383 ; 8f868599H
  004b0	8d 45 e0	 lea	 eax, DWORD PTR __k$554635[ebp]
  004b3	c6 45 f4 00	 mov	 BYTE PTR __k$554635[ebp+20], 0
  004b7	59		 pop	 ecx
$LL1274@LoadProper:
  004b8	81 30 ed ec eb
	ea		 xor	 DWORD PTR [eax], -353637139 ; eaebecedH
  004be	83 c0 04	 add	 eax, 4
  004c1	49		 dec	 ecx
  004c2	75 f4		 jne	 SHORT $LL1274@LoadProper
  004c4	51		 push	 ecx
  004c5	8b 8d d8 fe ff
	ff		 mov	 ecx, DWORD PTR _rkLoader$GSCopy$[ebp]
  004cb	8d 45 e0	 lea	 eax, DWORD PTR __k$554635[ebp]
  004ce	50		 push	 eax
  004cf	ff 15 00 00 00
	00		 call	 DWORD PTR __imp_?LoadInt@ioINILoader@@QAEHPBDH@Z
  004d5	89 85 d4 fe ff
	ff		 mov	 DWORD PTR _value$554748[ebp], eax
  004db	8d 85 d4 fe ff
	ff		 lea	 eax, DWORD PTR _value$554748[ebp]
  004e1	50		 push	 eax
  004e2	8d 8e a0 0f 00
	00		 lea	 ecx, DWORD PTR [esi+4000]
  004e8	e8 00 00 00 00	 call	 ?EncryptValueToPool@?$CEncrypt@K@@AAEXPBD@Z ; CEncrypt<unsigned long>::EncryptValueToPool
  004ed	6a 03		 push	 3

; 93   : 
; 94   : 	// action loop
; 95   : 	rkLoader.LoadString_e( "action_loop_ani", "", szBuf, MAX_PATH );

  004ef	c7 45 e8 8c 8f
	9f 83		 mov	 DWORD PTR __k$554765[ebp], -2086695028 ; 839f8f8cH
  004f6	c7 45 ec 82 82
	b4 86		 mov	 DWORD PTR __k$554765[ebp+4], -2034990462 ; 86b48282H
  004fd	c7 45 f0 82 83
	9b b5		 mov	 DWORD PTR __k$554765[ebp+8], -1248099454 ; b59b8382H
  00504	8d 45 e8	 lea	 eax, DWORD PTR __k$554765[ebp]
  00507	c7 45 f4 8c 82
	82 00		 mov	 DWORD PTR __k$554765[ebp+12], 8553100 ; 0082828cH
  0050e	59		 pop	 ecx
$LL1382@LoadProper:
  0050f	81 30 ed ec eb
	ea		 xor	 DWORD PTR [eax], -353637139 ; eaebecedH
  00515	83 c0 04	 add	 eax, 4
  00518	49		 dec	 ecx
  00519	75 f4		 jne	 SHORT $LL1382@LoadProper
  0051b	6a 0c		 push	 12			; 0000000cH
  0051d	58		 pop	 eax
$LL1379@LoadProper:
  0051e	8b c8		 mov	 ecx, eax
  00520	81 e1 03 00 00
	80		 and	 ecx, -2147483645	; 80000003H
  00526	79 05		 jns	 SHORT $LN1662@LoadProper
  00528	49		 dec	 ecx
  00529	83 c9 fc	 or	 ecx, -4			; fffffffcH
  0052c	41		 inc	 ecx
$LN1662@LoadProper:
  0052d	b2 ed		 mov	 dl, -19			; ffffffedH
  0052f	2a d1		 sub	 dl, cl
  00531	30 54 05 e8	 xor	 BYTE PTR __k$554765[ebp+eax], dl
  00535	40		 inc	 eax
  00536	83 f8 0f	 cmp	 eax, 15			; 0000000fH
  00539	7c e3		 jl	 SHORT $LL1379@LoadProper
  0053b	8b 8d d8 fe ff
	ff		 mov	 ecx, DWORD PTR _rkLoader$GSCopy$[ebp]
  00541	68 04 01 00 00	 push	 260			; 00000104H
  00546	8d 85 dc fe ff
	ff		 lea	 eax, DWORD PTR _szBuf$[ebp]
  0054c	50		 push	 eax
  0054d	68 00 00 00 00	 push	 OFFSET ??_C@_00CNPNBAHC@?$AA@
  00552	8d 45 e8	 lea	 eax, DWORD PTR __k$554765[ebp]
  00555	50		 push	 eax
  00556	ff d7		 call	 edi

; 96   : 	m_ActionLoopAni = szBuf;

  00558	8d 85 dc fe ff
	ff		 lea	 eax, DWORD PTR _szBuf$[ebp]
  0055e	50		 push	 eax
  0055f	8d 8e 64 10 00
	00		 lea	 ecx, DWORD PTR [esi+4196]
  00565	ff d3		 call	 ebx

; 97   : 
; 98   : 	// Action Attack
; 99   : 	m_LandAttackAttribute.Init();

  00567	8d be 88 10 00
	00		 lea	 edi, DWORD PTR [esi+4232]
  0056d	8b cf		 mov	 ecx, edi
  0056f	e8 00 00 00 00	 call	 ?Init@AttackAttribute@@QAEXXZ ; AttackAttribute::Init
  00574	6a 03		 push	 3

; 100  : 	LoadAttackAttribute_e( "action_attack", m_LandAttackAttribute, rkLoader );

  00576	c7 45 e8 8c 8f
	9f 83		 mov	 DWORD PTR _szEncAttack$554890[ebp], -2086695028 ; 839f8f8cH
  0057d	c7 45 ec 82 82
	b4 8b		 mov	 DWORD PTR _szEncAttack$554890[ebp+4], -1951104382 ; 8bb48282H
  00584	c7 45 f0 99 98
	8a 89		 mov	 DWORD PTR _szEncAttack$554890[ebp+8], -1987405671 ; 898a9899H
  0058b	8d 45 e8	 lea	 eax, DWORD PTR _szEncAttack$554890[ebp]
  0058e	66 c7 45 f4 86
	00		 mov	 WORD PTR _szEncAttack$554890[ebp+12], 134 ; 00000086H
  00594	59		 pop	 ecx
$LL1488@LoadProper:
  00595	81 30 ed ec eb
	ea		 xor	 DWORD PTR [eax], -353637139 ; eaebecedH
  0059b	83 c0 04	 add	 eax, 4
  0059e	49		 dec	 ecx
  0059f	75 f4		 jne	 SHORT $LL1488@LoadProper
  005a1	ff b5 d8 fe ff
	ff		 push	 DWORD PTR _rkLoader$GSCopy$[ebp]
  005a7	80 75 f4 ed	 xor	 BYTE PTR _szEncAttack$554890[ebp+12], -19 ; ffffffedH
  005ab	8d 45 e8	 lea	 eax, DWORD PTR _szEncAttack$554890[ebp]
  005ae	57		 push	 edi
  005af	50		 push	 eax
  005b0	e8 00 00 00 00	 call	 ?LoadAttackAttribute@@YAXPBDAAUAttackAttribute@@AAVioINILoader@@@Z ; LoadAttackAttribute

; 101  : 
; 102  : 	// ExtraAction Attack
; 103  : 	m_ExtraAttackAttribute.Init();

  005b5	81 c6 d8 10 00
	00		 add	 esi, 4312		; 000010d8H
  005bb	83 c4 0c	 add	 esp, 12			; 0000000cH
  005be	8b ce		 mov	 ecx, esi
  005c0	e8 00 00 00 00	 call	 ?Init@AttackAttribute@@QAEXXZ ; AttackAttribute::Init
  005c5	6a 04		 push	 4

; 104  : 	LoadAttackAttribute_e( "extra_action_attack", m_ExtraAttackAttribute, rkLoader );

  005c7	c7 45 e4 88 94
	9f 98		 mov	 DWORD PTR _szEncAttack$555021[ebp], -1734372216 ; 989f9488H
  005ce	c7 45 e8 8c b3
	8a 89		 mov	 DWORD PTR _szEncAttack$555021[ebp+4], -1987398772 ; 898ab38cH
  005d5	c7 45 ec 99 85
	84 84		 mov	 DWORD PTR _szEncAttack$555021[ebp+8], -2071689831 ; 84848599H
  005dc	c7 45 f0 b2 8d
	9f 9e		 mov	 DWORD PTR _szEncAttack$555021[ebp+12], -1633710670 ; 9e9f8db2H
  005e3	8d 45 e4	 lea	 eax, DWORD PTR _szEncAttack$555021[ebp]
  005e6	c7 45 f4 8c 8f
	80 00		 mov	 DWORD PTR _szEncAttack$555021[ebp+16], 8425356 ; 00808f8cH
  005ed	59		 pop	 ecx
$LL1594@LoadProper:
  005ee	81 30 ed ec eb
	ea		 xor	 DWORD PTR [eax], -353637139 ; eaebecedH
  005f4	83 c0 04	 add	 eax, 4
  005f7	49		 dec	 ecx
  005f8	75 f4		 jne	 SHORT $LL1594@LoadProper
  005fa	6a 10		 push	 16			; 00000010H
  005fc	58		 pop	 eax
$LL1591@LoadProper:
  005fd	8b c8		 mov	 ecx, eax
  005ff	81 e1 03 00 00
	80		 and	 ecx, -2147483645	; 80000003H
  00605	79 05		 jns	 SHORT $LN1663@LoadProper
  00607	49		 dec	 ecx
  00608	83 c9 fc	 or	 ecx, -4			; fffffffcH
  0060b	41		 inc	 ecx
$LN1663@LoadProper:
  0060c	b2 ed		 mov	 dl, -19			; ffffffedH
  0060e	2a d1		 sub	 dl, cl
  00610	30 54 05 e4	 xor	 BYTE PTR _szEncAttack$555021[ebp+eax], dl
  00614	40		 inc	 eax
  00615	83 f8 13	 cmp	 eax, 19			; 00000013H
  00618	7c e3		 jl	 SHORT $LL1591@LoadProper
  0061a	ff b5 d8 fe ff
	ff		 push	 DWORD PTR _rkLoader$GSCopy$[ebp]
  00620	8d 45 e4	 lea	 eax, DWORD PTR _szEncAttack$555021[ebp]
  00623	56		 push	 esi
  00624	50		 push	 eax
  00625	e8 00 00 00 00	 call	 ?LoadAttackAttribute@@YAXPBDAAUAttackAttribute@@AAVioINILoader@@@Z ; LoadAttackAttribute

; 105  : }

  0062a	8b 4d fc	 mov	 ecx, DWORD PTR __$ArrayPad$[ebp]
  0062d	83 c4 0c	 add	 esp, 12			; 0000000cH
  00630	5f		 pop	 edi
  00631	5e		 pop	 esi
  00632	33 cd		 xor	 ecx, ebp
  00634	5b		 pop	 ebx
  00635	e8 00 00 00 00	 call	 @__security_check_cookie@4
  0063a	c9		 leave
  0063b	c2 04 00	 ret	 4
?LoadProperty@ioCircleMoveAttackSkill3@@UAEXAAVioINILoader@@@Z ENDP ; ioCircleMoveAttackSkill3::LoadProperty
_TEXT	ENDS
PUBLIC	?OnSkillStart@ioCircleMoveAttackSkill3@@UAE_NPAVioBaseChar@@@Z ; ioCircleMoveAttackSkill3::OnSkillStart
EXTRN	?SetSkillNameChatBubble@ioSkill@@IAEXPAVioBaseChar@@@Z:PROC ; ioSkill::SetSkillNameChatBubble
EXTRN	?CheckSkillDesc@ioSkill@@IAEXPAVioBaseChar@@@Z:PROC ; ioSkill::CheckSkillDesc
EXTRN	?SetCameraBuff@ioSkill@@IAEXPAVioBaseChar@@@Z:PROC ; ioSkill::SetCameraBuff
EXTRN	?SetSkillProtection@ioBaseChar@@QAEXXZ:PROC	; ioBaseChar::SetSkillProtection
EXTRN	?IncreaseWeaponIndexBase@ioBaseChar@@QAEKXZ:PROC ; ioBaseChar::IncreaseWeaponIndexBase
EXTRN	?ShowWeaponItemMesh@ioBaseChar@@QAEX_N0@Z:PROC	; ioBaseChar::ShowWeaponItemMesh
EXTRN	?AttachEffect@ioBaseChar@@QAEPAVioEffect@@ABVioHashString@@PAVioEntityEvent@@_N@Z:PROC ; ioBaseChar::AttachEffect
; Function compile flags: /Ogsp
;	COMDAT ?OnSkillStart@ioCircleMoveAttackSkill3@@UAE_NPAVioBaseChar@@@Z
_TEXT	SEGMENT
_value$555207 = -4					; size = 4
_value$555203 = -4					; size = 4
_value$555199 = -4					; size = 4
_value$555225 = 8					; size = 4
_pChar$ = 8						; size = 4
_value$555212 = 11					; size = 1
?OnSkillStart@ioCircleMoveAttackSkill3@@UAE_NPAVioBaseChar@@@Z PROC ; ioCircleMoveAttackSkill3::OnSkillStart, COMDAT
; _this$ = ecx

; 113  : {	

  00000	55		 push	 ebp
  00001	8b ec		 mov	 ebp, esp
  00003	51		 push	 ecx
  00004	56		 push	 esi
  00005	8b f1		 mov	 esi, ecx

; 114  : 	if( !HasSkillMotion() )

  00007	8b 06		 mov	 eax, DWORD PTR [esi]
  00009	ff 90 24 01 00
	00		 call	 DWORD PTR [eax+292]
  0000f	84 c0		 test	 al, al
  00011	0f 84 6a 01 00
	00		 je	 $LN7@OnSkillSta
$LN6@OnSkillSta:
  00017	53		 push	 ebx
  00018	57		 push	 edi

; 115  : 		return false;
; 116  : 
; 117  : 	m_State = SS_NONE;

  00019	8d 45 fc	 lea	 eax, DWORD PTR _value$555199[ebp]
  0001c	33 db		 xor	 ebx, ebx
  0001e	50		 push	 eax
  0001f	8d 8e 58 0f 00
	00		 lea	 ecx, DWORD PTR [esi+3928]
  00025	89 5d fc	 mov	 DWORD PTR _value$555199[ebp], ebx
  00028	e8 00 00 00 00	 call	 ?EncryptValueToPool@?$CEncrypt@H@@AAEXPBD@Z ; CEncrypt<int>::EncryptValueToPool

; 118  : 	m_bReduceGauge = false;
; 119  : 
; 120  : 	m_dwEnableSwitchTime = 0;
; 121  : 	m_dwEnableSemiSwitchTime = 0;
; 122  : 
; 123  : 	m_dwWaitStartTime = 0;
; 124  : 	m_fCurChargeRate = 0.0f;

  0002d	0f 57 c0	 xorps	 xmm0, xmm0
  00030	8d 45 fc	 lea	 eax, DWORD PTR _value$555203[ebp]
  00033	50		 push	 eax
  00034	8d 8e a4 09 00
	00		 lea	 ecx, DWORD PTR [esi+2468]
  0003a	88 9e 50 03 00
	00		 mov	 BYTE PTR [esi+848], bl
  00040	89 9e 5c 03 00
	00		 mov	 DWORD PTR [esi+860], ebx
  00046	89 9e 64 03 00
	00		 mov	 DWORD PTR [esi+868], ebx
  0004c	89 9e 9c 0f 00
	00		 mov	 DWORD PTR [esi+3996], ebx
  00052	f3 0f 11 45 fc	 movss	 DWORD PTR _value$555203[ebp], xmm0
  00057	e8 00 00 00 00	 call	 ?EncryptValueToPool@?$CEncrypt@M@@AAEXPBD@Z ; CEncrypt<float>::EncryptValueToPool

; 125  : 
; 126  : 	m_dwCurMapEffect = -1;

  0005c	83 8e 50 10 00
	00 ff		 or	 DWORD PTR [esi+4176], -1

; 127  : 	m_dwTargetCircleEffect = -1;

  00063	83 8e 54 10 00
	00 ff		 or	 DWORD PTR [esi+4180], -1

; 128  : 
; 129  : 	m_bSetHandMesh = false;
; 130  : 
; 131  : 	m_dwPreActionEndTime = 0;
; 132  : 	m_dwWaitStartTime = 0;
; 133  : 
; 134  : 	m_fCurCharMoveSpeed = 0.0f;

  0006a	0f 57 c0	 xorps	 xmm0, xmm0

; 135  : 
; 136  : 	if( m_dwSwitchSkill > 0 )

  0006d	8b 3d 00 00 00
	00		 mov	 edi, DWORD PTR __imp_?GetSingleton@ioFrameTimer@@SAAAV1@XZ
  00073	88 9e 0a 0f 00
	00		 mov	 BYTE PTR [esi+3850], bl
  00079	89 9e 88 0f 00
	00		 mov	 DWORD PTR [esi+3976], ebx
  0007f	89 9e 9c 0f 00
	00		 mov	 DWORD PTR [esi+3996], ebx
  00085	f3 0f 11 86 78
	10 00 00	 movss	 DWORD PTR [esi+4216], xmm0
  0008d	39 9e 58 03 00
	00		 cmp	 DWORD PTR [esi+856], ebx
  00093	76 16		 jbe	 SHORT $LN5@OnSkillSta

; 137  : 		m_dwEnableSwitchTime = FRAMEGETTIME() + m_dwSwitchSkill;

  00095	ff d7		 call	 edi
  00097	8b c8		 mov	 ecx, eax
  00099	ff 15 00 00 00
	00		 call	 DWORD PTR __imp_?GetLoopSec@ioFrameTimer@@QBEKXZ
  0009f	03 86 58 03 00
	00		 add	 eax, DWORD PTR [esi+856]
  000a5	89 86 5c 03 00
	00		 mov	 DWORD PTR [esi+860], eax
$LN5@OnSkillSta:

; 138  : 	if( m_dwSemiSwitchSkill > 0 )

  000ab	39 9e 60 03 00
	00		 cmp	 DWORD PTR [esi+864], ebx
  000b1	76 16		 jbe	 SHORT $LN4@OnSkillSta

; 139  : 		m_dwEnableSemiSwitchTime = FRAMEGETTIME() + m_dwSemiSwitchSkill;

  000b3	ff d7		 call	 edi
  000b5	8b c8		 mov	 ecx, eax
  000b7	ff 15 00 00 00
	00		 call	 DWORD PTR __imp_?GetLoopSec@ioFrameTimer@@QBEKXZ
  000bd	03 86 60 03 00
	00		 add	 eax, DWORD PTR [esi+864]
  000c3	89 86 64 03 00
	00		 mov	 DWORD PTR [esi+868], eax
$LN4@OnSkillSta:

; 140  : 
; 141  : 	m_dwSkillStartTime = FRAMEGETTIME();

  000c9	ff d7		 call	 edi
  000cb	8b c8		 mov	 ecx, eax
  000cd	ff 15 00 00 00
	00		 call	 DWORD PTR __imp_?GetLoopSec@ioFrameTimer@@QBEKXZ
  000d3	89 45 fc	 mov	 DWORD PTR _value$555207[ebp], eax
  000d6	8d 45 fc	 lea	 eax, DWORD PTR _value$555207[ebp]
  000d9	50		 push	 eax
  000da	8d 8e 94 0e 00
	00		 lea	 ecx, DWORD PTR [esi+3732]
  000e0	e8 00 00 00 00	 call	 ?EncryptValueToPool@?$CEncrypt@K@@AAEXPBD@Z ; CEncrypt<unsigned long>::EncryptValueToPool

; 142  : 
; 143  : 	pChar->AttachEffect( m_SkillEffectName );

  000e5	8b 7d 08	 mov	 edi, DWORD PTR _pChar$[ebp]
  000e8	6a 01		 push	 1
  000ea	53		 push	 ebx
  000eb	8d 86 b8 01 00
	00		 lea	 eax, DWORD PTR [esi+440]
  000f1	50		 push	 eax
  000f2	8b cf		 mov	 ecx, edi
  000f4	e8 00 00 00 00	 call	 ?AttachEffect@ioBaseChar@@QAEPAVioEffect@@ABVioHashString@@PAVioEntityEvent@@_N@Z ; ioBaseChar::AttachEffect

; 144  : 
; 145  : 	//    
; 146  : 	if( m_bUseItemMesh )

  000f9	38 9e 08 0f 00
	00		 cmp	 BYTE PTR [esi+3848], bl
  000ff	74 09		 je	 SHORT $LN3@OnSkillSta

; 147  : 	{
; 148  : 		pChar->ShowWeaponItemMesh( false );

  00101	53		 push	 ebx
  00102	53		 push	 ebx
  00103	8b cf		 mov	 ecx, edi
  00105	e8 00 00 00 00	 call	 ?ShowWeaponItemMesh@ioBaseChar@@QAEX_N0@Z ; ioBaseChar::ShowWeaponItemMesh
$LN3@OnSkillSta:

; 149  : 	}
; 150  : 
; 151  : 	m_dwWeaponBaseIndex = pChar->IncreaseWeaponIndexBase();

  0010a	8b cf		 mov	 ecx, edi
  0010c	e8 00 00 00 00	 call	 ?IncreaseWeaponIndexBase@ioBaseChar@@QAEKXZ ; ioBaseChar::IncreaseWeaponIndexBase

; 152  : 
; 153  : 	pChar->SetSkillProtection();

  00111	8b cf		 mov	 ecx, edi
  00113	89 46 78	 mov	 DWORD PTR [esi+120], eax
  00116	e8 00 00 00 00	 call	 ?SetSkillProtection@ioBaseChar@@QAEXXZ ; ioBaseChar::SetSkillProtection

; 154  : 
; 155  : 	SetCameraBuff( pChar );

  0011b	57		 push	 edi
  0011c	8b ce		 mov	 ecx, esi
  0011e	e8 00 00 00 00	 call	 ?SetCameraBuff@ioSkill@@IAEXPAVioBaseChar@@@Z ; ioSkill::SetCameraBuff

; 156  : 
; 157  : 	CheckSkillDesc( pChar );

  00123	57		 push	 edi
  00124	8b ce		 mov	 ecx, esi
  00126	e8 00 00 00 00	 call	 ?CheckSkillDesc@ioSkill@@IAEXPAVioBaseChar@@@Z ; ioSkill::CheckSkillDesc

; 158  : 
; 159  : 	if( m_bInitJumpPower )

  0012b	8d 45 0b	 lea	 eax, DWORD PTR _value$555212[ebp]
  0012e	50		 push	 eax
  0012f	8d 8e f4 05 00
	00		 lea	 ecx, DWORD PTR [esi+1524]
  00135	e8 00 00 00 00	 call	 ?DecryptValueToPool@?$CEncrypt@_N@@QAEXPA_N@Z ; CEncrypt<bool>::DecryptValueToPool
  0013a	38 5d 0b	 cmp	 BYTE PTR _value$555212[ebp], bl
  0013d	74 1f		 je	 SHORT $LN21@OnSkillSta

; 160  : 	{
; 161  : 		pChar->SetCurJumpPowerAmt( 0.0f );

  0013f	0f 57 c0	 xorps	 xmm0, xmm0

; 162  : 		pChar->SetGravityAmt( 0.0f );

  00142	8d 45 08	 lea	 eax, DWORD PTR _value$555225[ebp]
  00145	50		 push	 eax
  00146	8d 8f e8 0b 00
	00		 lea	 ecx, DWORD PTR [edi+3048]
  0014c	f3 0f 11 87 90
	0e 00 00	 movss	 DWORD PTR [edi+3728], xmm0
  00154	f3 0f 11 45 08	 movss	 DWORD PTR _value$555225[ebp], xmm0
  00159	e8 00 00 00 00	 call	 ?EncryptValueToPool@?$CEncrypt@M@@AAEXPBD@Z ; CEncrypt<float>::EncryptValueToPool
$LN21@OnSkillSta:

; 163  : 	}
; 164  : 
; 165  : 	if( !StartPreDelayAnimation( pChar ) )	// Delay Animation 

  0015e	8b 06		 mov	 eax, DWORD PTR [esi]
  00160	57		 push	 edi
  00161	8b ce		 mov	 ecx, esi
  00163	ff 90 88 01 00
	00		 call	 DWORD PTR [eax+392]
  00169	84 c0		 test	 al, al
  0016b	75 08		 jne	 SHORT $LN1@OnSkillSta

; 166  : 	{
; 167  : 		SetPreAction( pChar );

  0016d	57		 push	 edi
  0016e	8b ce		 mov	 ecx, esi
  00170	e8 00 00 00 00	 call	 ?SetPreAction@ioCircleMoveAttackSkill3@@IAEXPAVioBaseChar@@@Z ; ioCircleMoveAttackSkill3::SetPreAction
$LN1@OnSkillSta:

; 168  : 	}
; 169  : 
; 170  : 	SetSkillNameChatBubble( pChar );

  00175	57		 push	 edi
  00176	8b ce		 mov	 ecx, esi
  00178	e8 00 00 00 00	 call	 ?SetSkillNameChatBubble@ioSkill@@IAEXPAVioBaseChar@@@Z ; ioSkill::SetSkillNameChatBubble
  0017d	5f		 pop	 edi

; 171  : 
; 172  : 	return true;

  0017e	b0 01		 mov	 al, 1
  00180	5b		 pop	 ebx
$LN7@OnSkillSta:
  00181	5e		 pop	 esi

; 173  : }

  00182	c9		 leave
  00183	c2 04 00	 ret	 4
?OnSkillStart@ioCircleMoveAttackSkill3@@UAE_NPAVioBaseChar@@@Z ENDP ; ioCircleMoveAttackSkill3::OnSkillStart
_TEXT	ENDS
PUBLIC	?OnSkillEnd@ioCircleMoveAttackSkill3@@UAEXPAVioBaseChar@@@Z ; ioCircleMoveAttackSkill3::OnSkillEnd
EXTRN	?DestroyMagicCircle@ioBaseGUISupport@@QAEXXZ:PROC ; ioBaseGUISupport::DestroyMagicCircle
EXTRN	?EndMapEffect@ioBaseChar@@QAEXK_N@Z:PROC	; ioBaseChar::EndMapEffect
EXTRN	?SetMagicCircleTarget@ioBaseGUISupport@@QAEXABVioHashString@@@Z:PROC ; ioBaseGUISupport::SetMagicCircleTarget
EXTRN	?EndCameraBuff@ioSkill@@IAEXPAVioBaseChar@@@Z:PROC ; ioSkill::EndCameraBuff
EXTRN	?RestoreSkillWeaponMesh@ioBaseChar@@QAE_NPAVioSkill@@ABVioHashString@@_N2@Z:PROC ; ioBaseChar::RestoreSkillWeaponMesh
EXTRN	__imp_?IsEmpty@ioHashString@@QBE_NXZ:PROC
EXTRN	?OnSkillEnd@ioNormalSkill@@UAEXPAVioBaseChar@@@Z:PROC ; ioNormalSkill::OnSkillEnd
;	COMDAT xdata$x
; File d:\lost saga for developer\youtube\tutorial\source\src\lsclient\encryptvalue.h
xdata$x	SEGMENT
__unwindtable$?OnSkillEnd@ioCircleMoveAttackSkill3@@UAEXPAVioBaseChar@@@Z DD 0ffffffffH
	DD	FLAT:__unwindfunclet$?OnSkillEnd@ioCircleMoveAttackSkill3@@UAEXPAVioBaseChar@@@Z$0
__ehfuncinfo$?OnSkillEnd@ioCircleMoveAttackSkill3@@UAEXPAVioBaseChar@@@Z DD 019930522H
	DD	01H
	DD	FLAT:__unwindtable$?OnSkillEnd@ioCircleMoveAttackSkill3@@UAEXPAVioBaseChar@@@Z
	DD	2 DUP(00H)
	DD	2 DUP(00H)
	DD	00H
	DD	01H
; Function compile flags: /Ogsp
; File d:\lost saga for developer\youtube\tutorial\source\src\lsclient\iocirclemoveattackskill3.cpp
xdata$x	ENDS
;	COMDAT ?OnSkillEnd@ioCircleMoveAttackSkill3@@UAEXPAVioBaseChar@@@Z
_TEXT	SEGMENT
$T555228 = -36						; size = 16
_value$555237 = -20					; size = 4
tv235 = -16						; size = 4
__$EHRec$ = -12						; size = 12
_value$555233 = 8					; size = 4
_pChar$ = 8						; size = 4
?OnSkillEnd@ioCircleMoveAttackSkill3@@UAEXPAVioBaseChar@@@Z PROC ; ioCircleMoveAttackSkill3::OnSkillEnd, COMDAT
; _this$ = ecx

; 176  : {

  00000	6a 18		 push	 24			; 00000018H
  00002	b8 00 00 00 00	 mov	 eax, __ehhandler$?OnSkillEnd@ioCircleMoveAttackSkill3@@UAEXPAVioBaseChar@@@Z
  00007	e8 00 00 00 00	 call	 __EH_prolog3
  0000c	8b f1		 mov	 esi, ecx

; 177  : 	ioNormalSkill::OnSkillEnd( pChar );

  0000e	8b 7d 08	 mov	 edi, DWORD PTR _pChar$[ebp]
  00011	57		 push	 edi
  00012	e8 00 00 00 00	 call	 ?OnSkillEnd@ioNormalSkill@@UAEXPAVioBaseChar@@@Z ; ioNormalSkill::OnSkillEnd

; 178  : 
; 179  : 	//  
; 180  : 	if( m_bUseItemMesh )

  00017	33 db		 xor	 ebx, ebx
  00019	38 9e 08 0f 00
	00		 cmp	 BYTE PTR [esi+3848], bl
  0001f	74 0a		 je	 SHORT $LN4@OnSkillEnd

; 181  : 	{
; 182  : 		pChar->ShowWeaponItemMesh( true );

  00021	53		 push	 ebx
  00022	6a 01		 push	 1
  00024	8b cf		 mov	 ecx, edi
  00026	e8 00 00 00 00	 call	 ?ShowWeaponItemMesh@ioBaseChar@@QAEX_N0@Z ; ioBaseChar::ShowWeaponItemMesh
$LN4@OnSkillEnd:

; 183  : 	}
; 184  : 
; 185  : 	//      
; 186  : 	m_bSetHandMesh = false;
; 187  : 	if( !m_HandMesh.IsEmpty() )

  0002b	8d 8e f8 0e 00
	00		 lea	 ecx, DWORD PTR [esi+3832]
  00031	88 9e 0a 0f 00
	00		 mov	 BYTE PTR [esi+3850], bl
  00037	ff 15 00 00 00
	00		 call	 DWORD PTR __imp_?IsEmpty@ioHashString@@QBE_NXZ
  0003d	84 c0		 test	 al, al
  0003f	75 18		 jne	 SHORT $LN3@OnSkillEnd

; 188  : 		pChar->RestoreSkillWeaponMesh( this, m_HandMesh, m_bVisibleEquipMesh );

  00041	0f b6 86 09 0f
	00 00		 movzx	 eax, BYTE PTR [esi+3849]
  00048	53		 push	 ebx
  00049	50		 push	 eax
  0004a	8d 86 f8 0e 00
	00		 lea	 eax, DWORD PTR [esi+3832]
  00050	50		 push	 eax
  00051	56		 push	 esi
  00052	8b cf		 mov	 ecx, edi
  00054	e8 00 00 00 00	 call	 ?RestoreSkillWeaponMesh@ioBaseChar@@QAE_NPAVioSkill@@ABVioHashString@@_N2@Z ; ioBaseChar::RestoreSkillWeaponMesh
$LN3@OnSkillEnd:

; 189  : 
; 190  : 	EndCameraBuff( pChar );

  00059	57		 push	 edi
  0005a	8b ce		 mov	 ecx, esi
  0005c	e8 00 00 00 00	 call	 ?EndCameraBuff@ioSkill@@IAEXPAVioBaseChar@@@Z ; ioSkill::EndCameraBuff

; 191  : 
; 192  : 	pChar->SetMagicCircleTarget( "" );

  00061	68 00 00 00 00	 push	 OFFSET ??_C@_00CNPNBAHC@?$AA@
  00066	8d 4d dc	 lea	 ecx, DWORD PTR $T555228[ebp]
  00069	ff 15 00 00 00
	00		 call	 DWORD PTR __imp_??0ioHashString@@QAE@PBD@Z
  0006f	8d 45 dc	 lea	 eax, DWORD PTR $T555228[ebp]
  00072	8d 8f cc 01 00
	00		 lea	 ecx, DWORD PTR [edi+460]
  00078	50		 push	 eax
  00079	89 5d fc	 mov	 DWORD PTR __$EHRec$[ebp+8], ebx
  0007c	89 4d f0	 mov	 DWORD PTR tv235[ebp], ecx
  0007f	e8 00 00 00 00	 call	 ?SetMagicCircleTarget@ioBaseGUISupport@@QAEXABVioHashString@@@Z ; ioBaseGUISupport::SetMagicCircleTarget
  00084	83 4d fc ff	 or	 DWORD PTR __$EHRec$[ebp+8], -1
  00088	8d 4d dc	 lea	 ecx, DWORD PTR $T555228[ebp]
  0008b	ff 15 00 00 00
	00		 call	 DWORD PTR __imp_??1ioHashString@@QAE@XZ

; 193  : 
; 194  : 	//DestroyMapEffect
; 195  : 	if( m_dwCurMapEffect != -1 )

  00091	8b 86 50 10 00
	00		 mov	 eax, DWORD PTR [esi+4176]
  00097	83 f8 ff	 cmp	 eax, -1
  0009a	74 09		 je	 SHORT $LN2@OnSkillEnd

; 196  : 		pChar->EndMapEffect( m_dwCurMapEffect, false );

  0009c	53		 push	 ebx
  0009d	50		 push	 eax
  0009e	8b cf		 mov	 ecx, edi
  000a0	e8 00 00 00 00	 call	 ?EndMapEffect@ioBaseChar@@QAEXK_N@Z ; ioBaseChar::EndMapEffect
$LN2@OnSkillEnd:

; 197  : 
; 198  : 	if( m_dwTargetCircleEffect != -1 )

  000a5	8b 86 54 10 00
	00		 mov	 eax, DWORD PTR [esi+4180]
  000ab	83 f8 ff	 cmp	 eax, -1
  000ae	74 0a		 je	 SHORT $LN1@OnSkillEnd

; 199  : 		pChar->EndMapEffect( m_dwTargetCircleEffect, false );

  000b0	8b 4d 08	 mov	 ecx, DWORD PTR _pChar$[ebp]
  000b3	53		 push	 ebx
  000b4	50		 push	 eax
  000b5	e8 00 00 00 00	 call	 ?EndMapEffect@ioBaseChar@@QAEXK_N@Z ; ioBaseChar::EndMapEffect
$LN1@OnSkillEnd:

; 200  : 
; 201  : 	m_dwCurMapEffect = -1;
; 202  : 	m_dwTargetCircleEffect = -1;
; 203  : 
; 204  : 	pChar->DestroyMagicCircle();

  000ba	8b 4d f0	 mov	 ecx, DWORD PTR tv235[ebp]
  000bd	83 8e 50 10 00
	00 ff		 or	 DWORD PTR [esi+4176], -1
  000c4	83 8e 54 10 00
	00 ff		 or	 DWORD PTR [esi+4180], -1
  000cb	e8 00 00 00 00	 call	 ?DestroyMagicCircle@ioBaseGUISupport@@QAEXXZ ; ioBaseGUISupport::DestroyMagicCircle

; 205  : 
; 206  : 	m_dwWaitStartTime = 0;
; 207  : 	m_dwMotionEndTime = 0;
; 208  : 	m_dwMotionStartTime = 0;

  000d0	8d 45 08	 lea	 eax, DWORD PTR _value$555233[ebp]
  000d3	50		 push	 eax
  000d4	8d 8e a8 02 00
	00		 lea	 ecx, DWORD PTR [esi+680]
  000da	89 9e 9c 0f 00
	00		 mov	 DWORD PTR [esi+3996], ebx
  000e0	89 9e d8 02 00
	00		 mov	 DWORD PTR [esi+728], ebx
  000e6	89 5d 08	 mov	 DWORD PTR _value$555233[ebp], ebx
  000e9	e8 00 00 00 00	 call	 ?EncryptValueToPool@?$CEncrypt@K@@AAEXPBD@Z ; CEncrypt<unsigned long>::EncryptValueToPool

; 209  : 	m_State = SS_NONE;

  000ee	8d 45 ec	 lea	 eax, DWORD PTR _value$555237[ebp]
  000f1	50		 push	 eax
  000f2	8d 8e 58 0f 00
	00		 lea	 ecx, DWORD PTR [esi+3928]
  000f8	89 5d ec	 mov	 DWORD PTR _value$555237[ebp], ebx
  000fb	e8 00 00 00 00	 call	 ?EncryptValueToPool@?$CEncrypt@H@@AAEXPBD@Z ; CEncrypt<int>::EncryptValueToPool

; 210  : }

  00100	e8 00 00 00 00	 call	 __EH_epilog3
  00105	c2 04 00	 ret	 4
_TEXT	ENDS
;	COMDAT text$x
text$x	SEGMENT
__unwindfunclet$?OnSkillEnd@ioCircleMoveAttackSkill3@@UAEXPAVioBaseChar@@@Z$0:
  00000	8d 4d dc	 lea	 ecx, DWORD PTR $T555228[ebp]
  00003	ff 25 00 00 00
	00		 jmp	 DWORD PTR __imp_??1ioHashString@@QAE@XZ
__ehhandler$?OnSkillEnd@ioCircleMoveAttackSkill3@@UAEXPAVioBaseChar@@@Z:
  00009	8b 54 24 08	 mov	 edx, DWORD PTR [esp+8]
  0000d	8d 42 0c	 lea	 eax, DWORD PTR [edx+12]
  00010	8b 4a d8	 mov	 ecx, DWORD PTR [edx-40]
  00013	33 c8		 xor	 ecx, eax
  00015	e8 00 00 00 00	 call	 @__security_check_cookie@4
  0001a	b8 00 00 00 00	 mov	 eax, OFFSET __ehfuncinfo$?OnSkillEnd@ioCircleMoveAttackSkill3@@UAEXPAVioBaseChar@@@Z
  0001f	e9 00 00 00 00	 jmp	 ___CxxFrameHandler3
text$x	ENDS
?OnSkillEnd@ioCircleMoveAttackSkill3@@UAEXPAVioBaseChar@@@Z ENDP ; ioCircleMoveAttackSkill3::OnSkillEnd
PUBLIC	__real@40a00000
PUBLIC	?SetNormalSkill@ioCircleMoveAttackSkill3@@MAEXPAVioBaseChar@@@Z ; ioCircleMoveAttackSkill3::SetNormalSkill
EXTRN	?ReduceNeedGaugeBySkill@ioBaseChar@@QAEMPAVioSkill@@M@Z:PROC ; ioBaseChar::ReduceNeedGaugeBySkill
EXTRN	?GetNeedGauge@ioSkill@@QAEMABVioHashString@@@Z:PROC ; ioSkill::GetNeedGauge
EXTRN	__imp_?GetAnimationFullTime@ioEntityGroup@@QAEMH@Z:PROC
EXTRN	?SetJumpPower@ioBaseChar@@QAEXM@Z:PROC		; ioBaseChar::SetJumpPower
EXTRN	__imp_?SetActionAni@ioEntityGroup@@QAE_NHMMMMMM_N0@Z:PROC
EXTRN	__imp_?ClearAllActionAni@ioEntityGroup@@QAEXM_N@Z:PROC
EXTRN	__imp_?ClearAllLoopAni@ioEntityGroup@@QAEXM_N@Z:PROC
EXTRN	__imp_?GetAnimationIdx@ioEntityGroup@@QAEHABVioHashString@@@Z:PROC
;	COMDAT __real@40a00000
; File d:\lost saga for developer\youtube\tutorial\source\src\lsclient\iobasechar.h
CONST	SEGMENT
__real@40a00000 DD 040a00000r			; 5
CONST	ENDS
;	COMDAT xdata$x
xdata$x	SEGMENT
__unwindtable$?SetNormalSkill@ioCircleMoveAttackSkill3@@MAEXPAVioBaseChar@@@Z DD 0ffffffffH
	DD	FLAT:__unwindfunclet$?SetNormalSkill@ioCircleMoveAttackSkill3@@MAEXPAVioBaseChar@@@Z$0
__ehfuncinfo$?SetNormalSkill@ioCircleMoveAttackSkill3@@MAEXPAVioBaseChar@@@Z DD 019930522H
	DD	01H
	DD	FLAT:__unwindtable$?SetNormalSkill@ioCircleMoveAttackSkill3@@MAEXPAVioBaseChar@@@Z
	DD	2 DUP(00H)
	DD	2 DUP(00H)
	DD	00H
	DD	01H
; Function compile flags: /Ogsp
; File d:\lost saga for developer\youtube\tutorial\source\src\lsclient\iocirclemoveattackskill3.cpp
xdata$x	ENDS
;	COMDAT ?SetNormalSkill@ioCircleMoveAttackSkill3@@MAEXPAVioBaseChar@@@Z
_TEXT	SEGMENT
_szSkillMotion$ = -40					; size = 16
tv288 = -24						; size = 4
tv283 = -24						; size = 4
tv276 = -24						; size = 4
tv273 = -24						; size = 4
tv271 = -24						; size = 4
tv269 = -24						; size = 4
tv77 = -24						; size = 4
_value$555273 = -24					; size = 4
_dwCurTime$ = -24					; size = 4
_fTimeRate$ = -20					; size = 4
_fAniRate$ = -20					; size = 4
_iCurSkillAniID$ = -16					; size = 4
__$EHRec$ = -12						; size = 12
_pChar$ = 8						; size = 4
?SetNormalSkill@ioCircleMoveAttackSkill3@@MAEXPAVioBaseChar@@@Z PROC ; ioCircleMoveAttackSkill3::SetNormalSkill, COMDAT
; _this$ = ecx

; 300  : {

  00000	6a 1c		 push	 28			; 0000001cH
  00002	b8 00 00 00 00	 mov	 eax, __ehhandler$?SetNormalSkill@ioCircleMoveAttackSkill3@@MAEXPAVioBaseChar@@@Z
  00007	e8 00 00 00 00	 call	 __EH_prolog3
  0000c	8b f1		 mov	 esi, ecx

; 301  : 	ioEntityGroup *pGrp = pChar->GetGroup();

  0000e	8b 45 08	 mov	 eax, DWORD PTR _pChar$[ebp]
  00011	8b 78 04	 mov	 edi, DWORD PTR [eax+4]

; 302  : 	ioHashString szSkillMotion = GetSkillMotionName();

  00014	8b 06		 mov	 eax, DWORD PTR [esi]
  00016	ff 90 20 01 00
	00		 call	 DWORD PTR [eax+288]
  0001c	50		 push	 eax
  0001d	8d 4d d8	 lea	 ecx, DWORD PTR _szSkillMotion$[ebp]
  00020	ff 15 00 00 00
	00		 call	 DWORD PTR __imp_??0ioHashString@@QAE@ABV0@@Z
  00026	83 65 fc 00	 and	 DWORD PTR __$EHRec$[ebp+8], 0

; 303  : 
; 304  : 	int iCurSkillAniID = pGrp->GetAnimationIdx( szSkillMotion );

  0002a	8d 45 d8	 lea	 eax, DWORD PTR _szSkillMotion$[ebp]
  0002d	50		 push	 eax
  0002e	8b cf		 mov	 ecx, edi
  00030	ff 15 00 00 00
	00		 call	 DWORD PTR __imp_?GetAnimationIdx@ioEntityGroup@@QAEHABVioHashString@@@Z
  00036	89 45 f0	 mov	 DWORD PTR _iCurSkillAniID$[ebp], eax

; 305  : 	if( iCurSkillAniID == -1 )	return;

  00039	83 f8 ff	 cmp	 eax, -1
  0003c	0f 84 76 01 00
	00		 je	 $LN1@SetNormalS

; 306  : 
; 307  : 	float fAniRate = GetSkillMotionRate();

  00042	8b 06		 mov	 eax, DWORD PTR [esi]
  00044	8b ce		 mov	 ecx, esi
  00046	ff 90 28 01 00
	00		 call	 DWORD PTR [eax+296]
  0004c	d9 5d ec	 fstp	 DWORD PTR _fAniRate$[ebp]

; 308  : 
; 309  : 	float fTimeRate = fAniRate * m_fExtraAniRate;

  0004f	d9 86 68 03 00
	00		 fld	 DWORD PTR [esi+872]
  00055	d8 4d ec	 fmul	 DWORD PTR _fAniRate$[ebp]
  00058	d9 5d ec	 fstp	 DWORD PTR _fTimeRate$[ebp]

; 310  : 	
; 311  : 	pGrp->ClearAllLoopAni( FLOAT100, true );

  0005b	b8 64 00 00 00	 mov	 eax, 100		; 00000064H
  00060	33 db		 xor	 ebx, ebx
  00062	43		 inc	 ebx
  00063	89 45 e8	 mov	 DWORD PTR tv288[ebp], eax
  00066	db 45 e8	 fild	 DWORD PTR tv288[ebp]
  00069	53		 push	 ebx
  0006a	85 c0		 test	 eax, eax
  0006c	79 06		 jns	 SHORT $LN23@SetNormalS
  0006e	d8 05 00 00 00
	00		 fadd	 DWORD PTR __real@4f800000
$LN23@SetNormalS:
  00074	51		 push	 ecx
  00075	8b cf		 mov	 ecx, edi
  00077	d9 1c 24	 fstp	 DWORD PTR [esp]
  0007a	ff 15 00 00 00
	00		 call	 DWORD PTR __imp_?ClearAllLoopAni@ioEntityGroup@@QAEXM_N@Z

; 312  : 	pGrp->ClearAllActionAni( FLOAT100, true );

  00080	b8 64 00 00 00	 mov	 eax, 100		; 00000064H
  00085	89 45 e8	 mov	 DWORD PTR tv283[ebp], eax
  00088	db 45 e8	 fild	 DWORD PTR tv283[ebp]
  0008b	53		 push	 ebx
  0008c	85 c0		 test	 eax, eax
  0008e	79 06		 jns	 SHORT $LN24@SetNormalS
  00090	d8 05 00 00 00
	00		 fadd	 DWORD PTR __real@4f800000
$LN24@SetNormalS:
  00096	51		 push	 ecx
  00097	8b cf		 mov	 ecx, edi
  00099	d9 1c 24	 fstp	 DWORD PTR [esp]
  0009c	ff 15 00 00 00
	00		 call	 DWORD PTR __imp_?ClearAllActionAni@ioEntityGroup@@QAEXM_N@Z

; 313  : 	pGrp->SetActionAni( iCurSkillAniID, FLOAT100, 5.0f, FLOAT1, FLOAT1/fTimeRate, 0.0f, 0.0f, true );

  000a2	b8 01 00 00 00	 mov	 eax, 1
  000a7	8b c8		 mov	 ecx, eax
  000a9	b8 01 00 00 00	 mov	 eax, 1
  000ae	8b d0		 mov	 edx, eax
  000b0	b8 64 00 00 00	 mov	 eax, 100		; 00000064H
  000b5	0f 57 c0	 xorps	 xmm0, xmm0
  000b8	53		 push	 ebx
  000b9	53		 push	 ebx
  000ba	83 ec 18	 sub	 esp, 24			; 00000018H
  000bd	f3 0f 11 44 24
	14		 movss	 DWORD PTR [esp+20], xmm0
  000c3	89 4d e8	 mov	 DWORD PTR tv276[ebp], ecx
  000c6	db 45 e8	 fild	 DWORD PTR tv276[ebp]
  000c9	f3 0f 11 44 24
	10		 movss	 DWORD PTR [esp+16], xmm0
  000cf	85 c9		 test	 ecx, ecx
  000d1	79 06		 jns	 SHORT $LN25@SetNormalS
  000d3	d8 05 00 00 00
	00		 fadd	 DWORD PTR __real@4f800000
$LN25@SetNormalS:
  000d9	d8 75 ec	 fdiv	 DWORD PTR _fTimeRate$[ebp]
  000dc	d9 5d e8	 fstp	 DWORD PTR tv273[ebp]
  000df	d9 45 e8	 fld	 DWORD PTR tv273[ebp]
  000e2	d9 5c 24 0c	 fstp	 DWORD PTR [esp+12]
  000e6	89 55 e8	 mov	 DWORD PTR tv271[ebp], edx
  000e9	db 45 e8	 fild	 DWORD PTR tv271[ebp]
  000ec	85 d2		 test	 edx, edx
  000ee	79 06		 jns	 SHORT $LN26@SetNormalS
  000f0	d8 05 00 00 00
	00		 fadd	 DWORD PTR __real@4f800000
$LN26@SetNormalS:
  000f6	f3 0f 10 05 00
	00 00 00	 movss	 xmm0, DWORD PTR __real@40a00000
  000fe	d9 5c 24 08	 fstp	 DWORD PTR [esp+8]
  00102	89 45 e8	 mov	 DWORD PTR tv269[ebp], eax
  00105	db 45 e8	 fild	 DWORD PTR tv269[ebp]
  00108	f3 0f 11 44 24
	04		 movss	 DWORD PTR [esp+4], xmm0
  0010e	85 c0		 test	 eax, eax
  00110	79 06		 jns	 SHORT $LN27@SetNormalS
  00112	d8 05 00 00 00
	00		 fadd	 DWORD PTR __real@4f800000
$LN27@SetNormalS:
  00118	d9 1c 24	 fstp	 DWORD PTR [esp]
  0011b	ff 75 f0	 push	 DWORD PTR _iCurSkillAniID$[ebp]
  0011e	8b cf		 mov	 ecx, edi
  00120	ff 15 00 00 00
	00		 call	 DWORD PTR __imp_?SetActionAni@ioEntityGroup@@QAE_NHMMMMMM_N0@Z

; 314  : 
; 315  : 	pChar->SetJumpPower( m_fCharJumpPower );

  00126	f3 0f 10 86 74
	10 00 00	 movss	 xmm0, DWORD PTR [esi+4212]
  0012e	51		 push	 ecx
  0012f	8b 4d 08	 mov	 ecx, DWORD PTR _pChar$[ebp]
  00132	f3 0f 11 04 24	 movss	 DWORD PTR [esp], xmm0
  00137	e8 00 00 00 00	 call	 ?SetJumpPower@ioBaseChar@@QAEXM@Z ; ioBaseChar::SetJumpPower

; 316  : 
; 317  : 	DWORD dwCurTime = FRAMEGETTIME();

  0013c	ff 15 00 00 00
	00		 call	 DWORD PTR __imp_?GetSingleton@ioFrameTimer@@SAAAV1@XZ
  00142	8b c8		 mov	 ecx, eax
  00144	ff 15 00 00 00
	00		 call	 DWORD PTR __imp_?GetLoopSec@ioFrameTimer@@QBEKXZ

; 318  : 
; 319  : 	m_dwPreActionEndTime = dwCurTime + pGrp->GetAnimationFullTime( iCurSkillAniID ) * fTimeRate;

  0014a	ff 75 f0	 push	 DWORD PTR _iCurSkillAniID$[ebp]
  0014d	8b cf		 mov	 ecx, edi
  0014f	89 45 e8	 mov	 DWORD PTR _dwCurTime$[ebp], eax
  00152	ff 15 00 00 00
	00		 call	 DWORD PTR __imp_?GetAnimationFullTime@ioEntityGroup@@QAEMH@Z
  00158	d8 4d ec	 fmul	 DWORD PTR _fTimeRate$[ebp]
  0015b	8b 45 e8	 mov	 eax, DWORD PTR _dwCurTime$[ebp]
  0015e	db 45 e8	 fild	 DWORD PTR _dwCurTime$[ebp]
  00161	85 c0		 test	 eax, eax
  00163	79 06		 jns	 SHORT $LN28@SetNormalS
  00165	d8 05 00 00 00
	00		 fadd	 DWORD PTR __real@4f800000
$LN28@SetNormalS:
  0016b	de c1		 faddp	 ST(1), ST(0)
  0016d	e8 00 00 00 00	 call	 __ftol2
  00172	89 86 88 0f 00
	00		 mov	 DWORD PTR [esi+3976], eax

; 320  : 
; 321  : 	m_State = SS_PRE_ACTION;

  00178	8d 45 e8	 lea	 eax, DWORD PTR _value$555273[ebp]
  0017b	50		 push	 eax
  0017c	8d 8e 58 0f 00
	00		 lea	 ecx, DWORD PTR [esi+3928]
  00182	89 5d e8	 mov	 DWORD PTR _value$555273[ebp], ebx
  00185	e8 00 00 00 00	 call	 ?EncryptValueToPool@?$CEncrypt@H@@AAEXPBD@Z ; CEncrypt<int>::EncryptValueToPool

; 322  : 
; 323  : 	if( !m_bReduceGauge )

  0018a	80 be 50 03 00
	00 00		 cmp	 BYTE PTR [esi+848], 0
  00191	75 25		 jne	 SHORT $LN1@SetNormalS

; 324  : 	{
; 325  : 		pChar->ReduceNeedGaugeBySkill( this, GetNeedGauge(pChar->GetCharName()) );

  00193	8b 7d 08	 mov	 edi, DWORD PTR _pChar$[ebp]
  00196	8d 87 d4 02 00
	00		 lea	 eax, DWORD PTR [edi+724]
  0019c	50		 push	 eax
  0019d	8b ce		 mov	 ecx, esi
  0019f	e8 00 00 00 00	 call	 ?GetNeedGauge@ioSkill@@QAEMABVioHashString@@@Z ; ioSkill::GetNeedGauge
  001a4	51		 push	 ecx
  001a5	d9 1c 24	 fstp	 DWORD PTR [esp]
  001a8	56		 push	 esi
  001a9	8b cf		 mov	 ecx, edi
  001ab	e8 00 00 00 00	 call	 ?ReduceNeedGaugeBySkill@ioBaseChar@@QAEMPAVioSkill@@M@Z ; ioBaseChar::ReduceNeedGaugeBySkill
  001b0	dd d8		 fstp	 ST(0)

; 326  : 		m_bReduceGauge = true;

  001b2	88 9e 50 03 00
	00		 mov	 BYTE PTR [esi+848], bl
$LN1@SetNormalS:

; 327  : 	}
; 328  : }

  001b8	83 4d fc ff	 or	 DWORD PTR __$EHRec$[ebp+8], -1
  001bc	8d 4d d8	 lea	 ecx, DWORD PTR _szSkillMotion$[ebp]
  001bf	ff 15 00 00 00
	00		 call	 DWORD PTR __imp_??1ioHashString@@QAE@XZ
  001c5	e8 00 00 00 00	 call	 __EH_epilog3
  001ca	c2 04 00	 ret	 4
_TEXT	ENDS
;	COMDAT text$x
text$x	SEGMENT
__unwindfunclet$?SetNormalSkill@ioCircleMoveAttackSkill3@@MAEXPAVioBaseChar@@@Z$0:
  00000	8d 4d d8	 lea	 ecx, DWORD PTR _szSkillMotion$[ebp]
  00003	ff 25 00 00 00
	00		 jmp	 DWORD PTR __imp_??1ioHashString@@QAE@XZ
__ehhandler$?SetNormalSkill@ioCircleMoveAttackSkill3@@MAEXPAVioBaseChar@@@Z:
  00009	8b 54 24 08	 mov	 edx, DWORD PTR [esp+8]
  0000d	8d 42 0c	 lea	 eax, DWORD PTR [edx+12]
  00010	8b 4a d4	 mov	 ecx, DWORD PTR [edx-44]
  00013	33 c8		 xor	 ecx, eax
  00015	e8 00 00 00 00	 call	 @__security_check_cookie@4
  0001a	b8 00 00 00 00	 mov	 eax, OFFSET __ehfuncinfo$?SetNormalSkill@ioCircleMoveAttackSkill3@@MAEXPAVioBaseChar@@@Z
  0001f	e9 00 00 00 00	 jmp	 ___CxxFrameHandler3
text$x	ENDS
?SetNormalSkill@ioCircleMoveAttackSkill3@@MAEXPAVioBaseChar@@@Z ENDP ; ioCircleMoveAttackSkill3::SetNormalSkill
PUBLIC	__real@3f800000
PUBLIC	_this$GSCopy$
PUBLIC	?SetWaitState@ioCircleMoveAttackSkill3@@IAEXPAVioBaseChar@@@Z ; ioCircleMoveAttackSkill3::SetWaitState
EXTRN	?GetUniqueID@ioMapEffect@@QBEKXZ:PROC		; ioMapEffect::GetUniqueID
EXTRN	?CreateMapEffectBySkill@ioBaseChar@@QAEPAVioMapEffect@@ABVioHashString@@ABUD3DXVECTOR3@@AAU4@@Z:PROC ; ioBaseChar::CreateMapEffectBySkill
EXTRN	__imp_??0ioHashString@@QAE@XZ:PROC
EXTRN	?CheckMagicCircle@ioBaseGUISupport@@QBE_NXZ:PROC ; ioBaseGUISupport::CheckMagicCircle
EXTRN	__imp_?SetLoopAni@ioEntityGroup@@QAE_NHMMMM@Z:PROC
;	COMDAT __real@3f800000
; File c:\program files (x86)\microsoft directx sdk (june 2010)\include\d3dx9math.inl
CONST	SEGMENT
__real@3f800000 DD 03f800000r			; 1
CONST	ENDS
;	COMDAT xdata$x
xdata$x	SEGMENT
__unwindtable$?SetWaitState@ioCircleMoveAttackSkill3@@IAEXPAVioBaseChar@@@Z DD 0ffffffffH
	DD	FLAT:__unwindfunclet$?SetWaitState@ioCircleMoveAttackSkill3@@IAEXPAVioBaseChar@@@Z$0
__ehfuncinfo$?SetWaitState@ioCircleMoveAttackSkill3@@IAEXPAVioBaseChar@@@Z DD 019930522H
	DD	01H
	DD	FLAT:__unwindtable$?SetWaitState@ioCircleMoveAttackSkill3@@IAEXPAVioBaseChar@@@Z
	DD	2 DUP(00H)
	DD	2 DUP(00H)
	DD	00H
	DD	01H
; Function compile flags: /Ogsp
; File d:\lost saga for developer\youtube\tutorial\source\src\lsclient\iocirclemoveattackskill3.cpp
xdata$x	ENDS
;	COMDAT ?SetWaitState@ioCircleMoveAttackSkill3@@IAEXPAVioBaseChar@@@Z
_TEXT	SEGMENT
_szDummyCircle$548319 = -64				; size = 16
$T555294 = -48						; size = 12
_this$GSCopy$ = -36					; size = 4
_value$555325 = -32					; size = 4
_value$555315 = -32					; size = 4
_value$555302 = -32					; size = 4
_iCurSkillAniID$ = -32					; size = 4
_vPos$548321 = -28					; size = 12
__$EHRec$ = -12						; size = 12
_pChar$ = 8						; size = 4
?SetWaitState@ioCircleMoveAttackSkill3@@IAEXPAVioBaseChar@@@Z PROC ; ioCircleMoveAttackSkill3::SetWaitState, COMDAT
; _this$ = ecx

; 337  : {

  00000	6a 34		 push	 52			; 00000034H
  00002	b8 00 00 00 00	 mov	 eax, __ehhandler$?SetWaitState@ioCircleMoveAttackSkill3@@IAEXPAVioBaseChar@@@Z
  00007	e8 00 00 00 00	 call	 __EH_prolog3_GS
  0000c	8b 5d 08	 mov	 ebx, DWORD PTR _pChar$[ebp]
  0000f	8b f1		 mov	 esi, ecx

; 374  : 				pChar->EndMapEffect( m_dwTargetCircleEffect, false );

  00011	89 75 dc	 mov	 DWORD PTR _this$GSCopy$[ebp], esi
  00014	85 db		 test	 ebx, ebx
  00016	0f 84 b5 01 00
	00		 je	 $LN2@SetWaitSta

; 338  : 	if( !pChar )
; 339  : 		return;
; 340  : 
; 341  : 	ioEntityGroup *pGrp = pChar->GetGroup();
; 342  : 	if( !pGrp )

  0001c	8b 7b 04	 mov	 edi, DWORD PTR [ebx+4]
  0001f	85 ff		 test	 edi, edi
  00021	0f 84 aa 01 00
	00		 je	 $LN2@SetWaitSta

; 343  : 		return;
; 344  : 
; 345  : 	DWORD dwCurTime = FRAMEGETTIME();

  00027	ff 15 00 00 00
	00		 call	 DWORD PTR __imp_?GetSingleton@ioFrameTimer@@SAAAV1@XZ
  0002d	8b c8		 mov	 ecx, eax
  0002f	ff 15 00 00 00
	00		 call	 DWORD PTR __imp_?GetLoopSec@ioFrameTimer@@QBEKXZ

; 346  : 	m_dwWaitStartTime = dwCurTime;

  00035	89 86 9c 0f 00
	00		 mov	 DWORD PTR [esi+3996], eax

; 347  : 	m_State = SS_WAIT;

  0003b	8d 45 e0	 lea	 eax, DWORD PTR _value$555302[ebp]
  0003e	50		 push	 eax
  0003f	8d 8e 58 0f 00
	00		 lea	 ecx, DWORD PTR [esi+3928]
  00045	c7 45 e0 02 00
	00 00		 mov	 DWORD PTR _value$555302[ebp], 2
  0004c	e8 00 00 00 00	 call	 ?EncryptValueToPool@?$CEncrypt@H@@AAEXPBD@Z ; CEncrypt<int>::EncryptValueToPool

; 348  : 
; 349  : 	pChar->SetCurJumpPowerAmt( 0.0f );

  00051	0f 57 c0	 xorps	 xmm0, xmm0

; 350  : 	pChar->SetGravityAmt( 0.0f );

  00054	8d 45 e0	 lea	 eax, DWORD PTR _value$555315[ebp]
  00057	50		 push	 eax
  00058	8d 8b e8 0b 00
	00		 lea	 ecx, DWORD PTR [ebx+3048]
  0005e	f3 0f 11 83 90
	0e 00 00	 movss	 DWORD PTR [ebx+3728], xmm0
  00066	f3 0f 11 45 e0	 movss	 DWORD PTR _value$555315[ebp], xmm0
  0006b	e8 00 00 00 00	 call	 ?EncryptValueToPool@?$CEncrypt@M@@AAEXPBD@Z ; CEncrypt<float>::EncryptValueToPool

; 351  : 	pChar->SetForcePowerAmt( 0.0f );

  00070	0f 57 c0	 xorps	 xmm0, xmm0
  00073	8d 45 e0	 lea	 eax, DWORD PTR _value$555325[ebp]
  00076	50		 push	 eax
  00077	8d 8b 88 0b 00
	00		 lea	 ecx, DWORD PTR [ebx+2952]
  0007d	f3 0f 11 45 e0	 movss	 DWORD PTR _value$555325[ebp], xmm0
  00082	e8 00 00 00 00	 call	 ?EncryptValueToPool@?$CEncrypt@M@@AAEXPBD@Z ; CEncrypt<float>::EncryptValueToPool

; 352  : 
; 353  : 	int iCurSkillAniID = pGrp->GetAnimationIdx( m_WaitAni );

  00087	8d 86 8c 0f 00
	00		 lea	 eax, DWORD PTR [esi+3980]
  0008d	50		 push	 eax
  0008e	8b cf		 mov	 ecx, edi
  00090	ff 15 00 00 00
	00		 call	 DWORD PTR __imp_?GetAnimationIdx@ioEntityGroup@@QAEHABVioHashString@@@Z
  00096	89 45 e0	 mov	 DWORD PTR _iCurSkillAniID$[ebp], eax

; 354  : 	float fTimeRate = FLOAT1;

  00099	b8 01 00 00 00	 mov	 eax, 1

; 355  : 
; 356  : 	pGrp->ClearAllLoopAni( 5.0f );

  0009e	f3 0f 10 05 00
	00 00 00	 movss	 xmm0, DWORD PTR __real@40a00000
  000a6	6a 00		 push	 0
  000a8	51		 push	 ecx
  000a9	8b cf		 mov	 ecx, edi
  000ab	f3 0f 11 04 24	 movss	 DWORD PTR [esp], xmm0
  000b0	ff 15 00 00 00
	00		 call	 DWORD PTR __imp_?ClearAllLoopAni@ioEntityGroup@@QAEXM_N@Z

; 357  : 	pGrp->ClearAllActionAni( 5.0f );

  000b6	f3 0f 10 05 00
	00 00 00	 movss	 xmm0, DWORD PTR __real@40a00000
  000be	6a 00		 push	 0
  000c0	51		 push	 ecx
  000c1	8b cf		 mov	 ecx, edi
  000c3	f3 0f 11 04 24	 movss	 DWORD PTR [esp], xmm0
  000c8	ff 15 00 00 00
	00		 call	 DWORD PTR __imp_?ClearAllActionAni@ioEntityGroup@@QAEXM_N@Z

; 358  : 	pGrp->SetLoopAni( iCurSkillAniID, 5.0f );

  000ce	0f 57 c0	 xorps	 xmm0, xmm0
  000d1	83 ec 10	 sub	 esp, 16			; 00000010H
  000d4	f3 0f 11 44 24
	0c		 movss	 DWORD PTR [esp+12], xmm0
  000da	f3 0f 10 05 00
	00 00 00	 movss	 xmm0, DWORD PTR __real@3f800000
  000e2	f3 0f 11 44 24
	08		 movss	 DWORD PTR [esp+8], xmm0
  000e8	f3 0f 11 44 24
	04		 movss	 DWORD PTR [esp+4], xmm0
  000ee	f3 0f 10 05 00
	00 00 00	 movss	 xmm0, DWORD PTR __real@40a00000
  000f6	f3 0f 11 04 24	 movss	 DWORD PTR [esp], xmm0
  000fb	ff 75 e0	 push	 DWORD PTR _iCurSkillAniID$[ebp]
  000fe	8b cf		 mov	 ecx, edi
  00100	ff 15 00 00 00
	00		 call	 DWORD PTR __imp_?SetLoopAni@ioEntityGroup@@QAE_NHMMMM@Z

; 359  : 
; 360  : 	if( !pChar->CheckMagicCircle() )

  00106	8d 8b cc 01 00
	00		 lea	 ecx, DWORD PTR [ebx+460]
  0010c	e8 00 00 00 00	 call	 ?CheckMagicCircle@ioBaseGUISupport@@QBE_NXZ ; ioBaseGUISupport::CheckMagicCircle
  00111	84 c0		 test	 al, al
  00113	75 43		 jne	 SHORT $LN4@SetWaitSta

; 361  : 	{
; 362  : 		ioHashString szDummyCircle;

  00115	8d 4d c0	 lea	 ecx, DWORD PTR _szDummyCircle$548319[ebp]
  00118	ff 15 00 00 00
	00		 call	 DWORD PTR __imp_??0ioHashString@@QAE@XZ

; 363  : 		pChar->CreateMagicCircle( m_ReadyCircle, m_ReadyCircle, szDummyCircle, m_fCircleOffSet );

  0011e	f3 0f 10 86 0c
	10 00 00	 movss	 xmm0, DWORD PTR [esi+4108]
  00126	8b 93 cc 01 00
	00		 mov	 edx, DWORD PTR [ebx+460]
  0012c	83 65 fc 00	 and	 DWORD PTR __$EHRec$[ebp+8], 0
  00130	51		 push	 ecx
  00131	f3 0f 11 04 24	 movss	 DWORD PTR [esp], xmm0
  00136	8d 4d c0	 lea	 ecx, DWORD PTR _szDummyCircle$548319[ebp]
  00139	51		 push	 ecx
  0013a	8d 86 10 10 00
	00		 lea	 eax, DWORD PTR [esi+4112]
  00140	50		 push	 eax
  00141	50		 push	 eax
  00142	8d 8b cc 01 00
	00		 lea	 ecx, DWORD PTR [ebx+460]
  00148	ff 52 04	 call	 DWORD PTR [edx+4]

; 364  : 	}

  0014b	83 4d fc ff	 or	 DWORD PTR __$EHRec$[ebp+8], -1
  0014f	8d 4d c0	 lea	 ecx, DWORD PTR _szDummyCircle$548319[ebp]
  00152	ff 15 00 00 00
	00		 call	 DWORD PTR __imp_??1ioHashString@@QAE@XZ
$LN4@SetWaitSta:

; 365  : 
; 366  : 	if( !m_TargetCircleEffect.IsEmpty() )

  00158	8d 8e 20 10 00
	00		 lea	 ecx, DWORD PTR [esi+4128]
  0015e	ff 15 00 00 00
	00		 call	 DWORD PTR __imp_?IsEmpty@ioHashString@@QBE_NXZ
  00164	84 c0		 test	 al, al
  00166	75 69		 jne	 SHORT $LN2@SetWaitSta

; 367  : 	{
; 368  : 		D3DXVECTOR3 vPos = pChar->GetWorldPosition();

  00168	8b 03		 mov	 eax, DWORD PTR [ebx]
  0016a	8b cb		 mov	 ecx, ebx
  0016c	ff 50 70	 call	 DWORD PTR [eax+112]

; 369  : 		ioMapEffect *pMapEffect = pChar->CreateMapEffectBySkill( m_TargetCircleEffect, vPos );

  0016f	f3 0f 10 05 00
	00 00 00	 movss	 xmm0, DWORD PTR __real@3f800000
  00177	8b f0		 mov	 esi, eax
  00179	8d 7d e4	 lea	 edi, DWORD PTR _vPos$548321[ebp]
  0017c	a5		 movsd
  0017d	8d 45 d0	 lea	 eax, DWORD PTR $T555294[ebp]
  00180	50		 push	 eax
  00181	8d 45 e4	 lea	 eax, DWORD PTR _vPos$548321[ebp]
  00184	50		 push	 eax
  00185	8b 45 dc	 mov	 eax, DWORD PTR _this$GSCopy$[ebp]
  00188	a5		 movsd
  00189	05 20 10 00 00	 add	 eax, 4128		; 00001020H
  0018e	50		 push	 eax
  0018f	8b cb		 mov	 ecx, ebx
  00191	a5		 movsd
  00192	f3 0f 11 45 d0	 movss	 DWORD PTR $T555294[ebp], xmm0
  00197	f3 0f 11 45 d4	 movss	 DWORD PTR $T555294[ebp+4], xmm0
  0019c	f3 0f 11 45 d8	 movss	 DWORD PTR $T555294[ebp+8], xmm0
  001a1	e8 00 00 00 00	 call	 ?CreateMapEffectBySkill@ioBaseChar@@QAEPAVioMapEffect@@ABVioHashString@@ABUD3DXVECTOR3@@AAU4@@Z ; ioBaseChar::CreateMapEffectBySkill
  001a6	8b f8		 mov	 edi, eax

; 370  : 
; 371  : 		if( pMapEffect )

  001a8	85 ff		 test	 edi, edi
  001aa	74 25		 je	 SHORT $LN2@SetWaitSta

; 372  : 		{
; 373  : 			if( m_dwTargetCircleEffect != -1 )

  001ac	8b 75 dc	 mov	 esi, DWORD PTR _this$GSCopy$[ebp]
  001af	8b 86 54 10 00
	00		 mov	 eax, DWORD PTR [esi+4180]
  001b5	83 f8 ff	 cmp	 eax, -1
  001b8	74 0a		 je	 SHORT $LN1@SetWaitSta

; 374  : 				pChar->EndMapEffect( m_dwTargetCircleEffect, false );

  001ba	6a 00		 push	 0
  001bc	50		 push	 eax
  001bd	8b cb		 mov	 ecx, ebx
  001bf	e8 00 00 00 00	 call	 ?EndMapEffect@ioBaseChar@@QAEXK_N@Z ; ioBaseChar::EndMapEffect
$LN1@SetWaitSta:

; 375  : 
; 376  : 			m_dwTargetCircleEffect = pMapEffect->GetUniqueID();

  001c4	8b cf		 mov	 ecx, edi
  001c6	e8 00 00 00 00	 call	 ?GetUniqueID@ioMapEffect@@QBEKXZ ; ioMapEffect::GetUniqueID
  001cb	89 86 54 10 00
	00		 mov	 DWORD PTR [esi+4180], eax
$LN2@SetWaitSta:

; 377  : 		}
; 378  : 	}
; 379  : }

  001d1	e8 00 00 00 00	 call	 __EH_epilog3_GS
  001d6	c2 04 00	 ret	 4
_TEXT	ENDS
;	COMDAT text$x
text$x	SEGMENT
__unwindfunclet$?SetWaitState@ioCircleMoveAttackSkill3@@IAEXPAVioBaseChar@@@Z$0:
  00000	8d 4d c0	 lea	 ecx, DWORD PTR _szDummyCircle$548319[ebp]
  00003	ff 25 00 00 00
	00		 jmp	 DWORD PTR __imp_??1ioHashString@@QAE@XZ
__ehhandler$?SetWaitState@ioCircleMoveAttackSkill3@@IAEXPAVioBaseChar@@@Z:
  00009	8b 54 24 08	 mov	 edx, DWORD PTR [esp+8]
  0000d	8d 42 0c	 lea	 eax, DWORD PTR [edx+12]
  00010	8b 4a bc	 mov	 ecx, DWORD PTR [edx-68]
  00013	33 c8		 xor	 ecx, eax
  00015	e8 00 00 00 00	 call	 @__security_check_cookie@4
  0001a	8b 4a fc	 mov	 ecx, DWORD PTR [edx-4]
  0001d	33 c8		 xor	 ecx, eax
  0001f	e8 00 00 00 00	 call	 @__security_check_cookie@4
  00024	b8 00 00 00 00	 mov	 eax, OFFSET __ehfuncinfo$?SetWaitState@ioCircleMoveAttackSkill3@@IAEXPAVioBaseChar@@@Z
  00029	e9 00 00 00 00	 jmp	 ___CxxFrameHandler3
text$x	ENDS
?SetWaitState@ioCircleMoveAttackSkill3@@IAEXPAVioBaseChar@@@Z ENDP ; ioCircleMoveAttackSkill3::SetWaitState
PUBLIC	__real@41f0000000000000
PUBLIC	_pChar$GSCopy$
PUBLIC	?SetActionState@ioCircleMoveAttackSkill3@@IAEXPAVioBaseChar@@@Z ; ioCircleMoveAttackSkill3::SetActionState
EXTRN	?SetReservedSliding@ioBaseChar@@QAEXABV?$vector@UForceInfo@@V?$allocator@UForceInfo@@@std@@@std@@HMKM_N@Z:PROC ; ioBaseChar::SetReservedSliding
EXTRN	?CheckCharColSkipSkillTime@ioBaseChar@@QAEXHMK@Z:PROC ; ioBaseChar::CheckCharColSkipSkillTime
EXTRN	?RefreshFireTimeListWithBase@ioBaseChar@@QAEXKHABV?$vector@UWeaponInfo@@V?$allocator@UWeaponInfo@@@std@@@std@@W4FireTimeType@@MK_N@Z:PROC ; ioBaseChar::RefreshFireTimeListWithBase
;	COMDAT __real@41f0000000000000
; File d:\lost saga for developer\youtube\tutorial\source\src\lsclient\stringprotect.h
CONST	SEGMENT
__real@41f0000000000000 DQ 041f0000000000000r	; 4.29497e+009
CONST	ENDS
;	COMDAT xdata$x
xdata$x	SEGMENT
__unwindtable$?SetActionState@ioCircleMoveAttackSkill3@@IAEXPAVioBaseChar@@@Z DD 0ffffffffH
	DD	FLAT:__unwindfunclet$?SetActionState@ioCircleMoveAttackSkill3@@IAEXPAVioBaseChar@@@Z$0
	DD	0ffffffffH
	DD	FLAT:__unwindfunclet$?SetActionState@ioCircleMoveAttackSkill3@@IAEXPAVioBaseChar@@@Z$1
__ehfuncinfo$?SetActionState@ioCircleMoveAttackSkill3@@IAEXPAVioBaseChar@@@Z DD 019930522H
	DD	02H
	DD	FLAT:__unwindtable$?SetActionState@ioCircleMoveAttackSkill3@@IAEXPAVioBaseChar@@@Z
	DD	2 DUP(00H)
	DD	2 DUP(00H)
	DD	00H
	DD	01H
; Function compile flags: /Ogsp
; File d:\lost saga for developer\youtube\tutorial\source\src\lsclient\iocirclemoveattackskill3.cpp
xdata$x	ENDS
;	COMDAT ?SetActionState@ioCircleMoveAttackSkill3@@IAEXPAVioBaseChar@@@Z
_TEXT	SEGMENT
$T555615 = -104						; size = 16
$T555402 = -88						; size = 16
_pChar$GSCopy$ = -72					; size = 4
tv2064 = -68						; size = 4
_pGrp$ = -68						; size = 4
_fTimeRate$ = -64					; size = 4
_value$555365 = -60					; size = 4
_value$555352 = -60					; size = 4
_iCurSkillAniID$ = -60					; size = 4
tv2120 = -56						; size = 4
tv2111 = -56						; size = 4
tv2108 = -56						; size = 4
tv2106 = -56						; size = 4
tv2076 = -56						; size = 4
$T555614 = -56						; size = 4
$T555401 = -56						; size = 4
_value$555381 = -56					; size = 4
$T555345 = -56						; size = 4
_szEncEventType$555415 = -52				; size = 13
_szEncEventType$555628 = -32				; size = 12
__$EHRec$ = -12						; size = 12
_pChar$ = 8						; size = 4
?SetActionState@ioCircleMoveAttackSkill3@@IAEXPAVioBaseChar@@@Z PROC ; ioCircleMoveAttackSkill3::SetActionState, COMDAT
; _this$ = ecx

; 382  : {

  00000	6a 5c		 push	 92			; 0000005cH
  00002	b8 00 00 00 00	 mov	 eax, __ehhandler$?SetActionState@ioCircleMoveAttackSkill3@@IAEXPAVioBaseChar@@@Z
  00007	e8 00 00 00 00	 call	 __EH_prolog3_GS
  0000c	8b 7d 08	 mov	 edi, DWORD PTR _pChar$[ebp]
  0000f	8b f1		 mov	 esi, ecx

; 431  : 	m_dwFireMotionEndTime += pGrp->GetAnimationEventTime_e( iCurSkillAniID, "firemotion_e" ) * fTimeRate;

  00011	89 7d b8	 mov	 DWORD PTR _pChar$GSCopy$[ebp], edi
  00014	85 ff		 test	 edi, edi
  00016	0f 84 59 03 00
	00		 je	 $LN6@SetActionS

; 383  : 	if( !pChar )
; 384  : 		return;
; 385  : 
; 386  : 	ioEntityGroup *pGrp = pChar->GetGroup();

  0001c	8b 47 04	 mov	 eax, DWORD PTR [edi+4]
  0001f	89 45 bc	 mov	 DWORD PTR _pGrp$[ebp], eax

; 387  : 	if( !pGrp )

  00022	85 c0		 test	 eax, eax
  00024	0f 84 4b 03 00
	00		 je	 $LN6@SetActionS

; 388  : 		return;
; 389  : 
; 390  : 	DWORD dwCurTime = FRAMEGETTIME();

  0002a	ff 15 00 00 00
	00		 call	 DWORD PTR __imp_?GetSingleton@ioFrameTimer@@SAAAV1@XZ
  00030	8b c8		 mov	 ecx, eax
  00032	ff 15 00 00 00
	00		 call	 DWORD PTR __imp_?GetLoopSec@ioFrameTimer@@QBEKXZ
  00038	8b d8		 mov	 ebx, eax

; 391  : 
; 392  : 	//DestroyMapEffect
; 393  : 	if( m_dwCurMapEffect != -1 )

  0003a	8b 86 50 10 00
	00		 mov	 eax, DWORD PTR [esi+4176]
  00040	83 f8 ff	 cmp	 eax, -1
  00043	74 0a		 je	 SHORT $LN3@SetActionS

; 394  : 		pChar->EndMapEffect( m_dwCurMapEffect, false );

  00045	6a 00		 push	 0
  00047	50		 push	 eax
  00048	8b cf		 mov	 ecx, edi
  0004a	e8 00 00 00 00	 call	 ?EndMapEffect@ioBaseChar@@QAEXK_N@Z ; ioBaseChar::EndMapEffect
$LN3@SetActionS:

; 395  : 
; 396  : 	if( m_dwTargetCircleEffect != -1 )

  0004f	8b 86 54 10 00
	00		 mov	 eax, DWORD PTR [esi+4180]
  00055	83 f8 ff	 cmp	 eax, -1
  00058	74 11		 je	 SHORT $LN2@SetActionS

; 397  : 	{
; 398  : 		pChar->EndMapEffect( m_dwTargetCircleEffect, false );

  0005a	6a 00		 push	 0
  0005c	50		 push	 eax
  0005d	8b cf		 mov	 ecx, edi
  0005f	e8 00 00 00 00	 call	 ?EndMapEffect@ioBaseChar@@QAEXK_N@Z ; ioBaseChar::EndMapEffect

; 399  : 		m_dwTargetCircleEffect = -1;

  00064	83 8e 54 10 00
	00 ff		 or	 DWORD PTR [esi+4180], -1
$LN2@SetActionS:

; 400  : 	}
; 401  : 
; 402  : 	pChar->DestroyMagicCircle();

  0006b	8d 8f cc 01 00
	00		 lea	 ecx, DWORD PTR [edi+460]
  00071	e8 00 00 00 00	 call	 ?DestroyMagicCircle@ioBaseGUISupport@@QAEXXZ ; ioBaseGUISupport::DestroyMagicCircle

; 403  : 
; 404  : 	m_State = SS_ACTION;

  00076	8d 45 c4	 lea	 eax, DWORD PTR _value$555352[ebp]
  00079	50		 push	 eax
  0007a	8d 8e 58 0f 00
	00		 lea	 ecx, DWORD PTR [esi+3928]
  00080	c7 45 c4 04 00
	00 00		 mov	 DWORD PTR _value$555352[ebp], 4
  00087	e8 00 00 00 00	 call	 ?EncryptValueToPool@?$CEncrypt@H@@AAEXPBD@Z ; CEncrypt<int>::EncryptValueToPool

; 405  : 
; 406  : 	pChar->SetCurJumpPowerAmt( 0.0f );

  0008c	0f 57 c0	 xorps	 xmm0, xmm0

; 407  : 	pChar->SetGravityAmt( 0.0f );

  0008f	8d 45 c4	 lea	 eax, DWORD PTR _value$555365[ebp]
  00092	50		 push	 eax
  00093	8d 8f e8 0b 00
	00		 lea	 ecx, DWORD PTR [edi+3048]
  00099	f3 0f 11 87 90
	0e 00 00	 movss	 DWORD PTR [edi+3728], xmm0
  000a1	f3 0f 11 45 c4	 movss	 DWORD PTR _value$555365[ebp], xmm0
  000a6	e8 00 00 00 00	 call	 ?EncryptValueToPool@?$CEncrypt@M@@AAEXPBD@Z ; CEncrypt<float>::EncryptValueToPool

; 408  : 
; 409  : 	int iCurSkillAniID = pGrp->GetAnimationIdx( m_LandAttackAttribute.m_AttackAnimation );

  000ab	8b 7d bc	 mov	 edi, DWORD PTR _pGrp$[ebp]
  000ae	8d 86 88 10 00
	00		 lea	 eax, DWORD PTR [esi+4232]
  000b4	50		 push	 eax
  000b5	8b cf		 mov	 ecx, edi
  000b7	ff 15 00 00 00
	00		 call	 DWORD PTR __imp_?GetAnimationIdx@ioEntityGroup@@QAEHABVioHashString@@@Z

; 410  : 
; 411  : 	float fTimeRate = m_LandAttackAttribute.m_fAttackAniRate;

  000bd	f3 0f 10 86 98
	10 00 00	 movss	 xmm0, DWORD PTR [esi+4248]

; 412  : 	if( fTimeRate <= 0.0f )

  000c5	0f 57 c9	 xorps	 xmm1, xmm1
  000c8	0f 2f c8	 comiss	 xmm1, xmm0
  000cb	89 45 c4	 mov	 DWORD PTR _iCurSkillAniID$[ebp], eax
  000ce	f3 0f 11 45 c0	 movss	 DWORD PTR _fTimeRate$[ebp], xmm0
  000d3	72 18		 jb	 SHORT $LN1@SetActionS

; 413  : 		fTimeRate = FLOAT1;

  000d5	b8 01 00 00 00	 mov	 eax, 1
  000da	89 45 c8	 mov	 DWORD PTR tv2120[ebp], eax
  000dd	db 45 c8	 fild	 DWORD PTR tv2120[ebp]
  000e0	85 c0		 test	 eax, eax
  000e2	79 06		 jns	 SHORT $LN249@SetActionS
  000e4	d8 05 00 00 00
	00		 fadd	 DWORD PTR __real@4f800000
$LN249@SetActionS:
  000ea	d9 5d c0	 fstp	 DWORD PTR _fTimeRate$[ebp]
$LN1@SetActionS:

; 414  : 
; 415  : 	pGrp->ClearAllLoopAni( 5.0f );

  000ed	f3 0f 10 05 00
	00 00 00	 movss	 xmm0, DWORD PTR __real@40a00000
  000f5	6a 00		 push	 0
  000f7	51		 push	 ecx
  000f8	8b cf		 mov	 ecx, edi
  000fa	f3 0f 11 04 24	 movss	 DWORD PTR [esp], xmm0
  000ff	ff 15 00 00 00
	00		 call	 DWORD PTR __imp_?ClearAllLoopAni@ioEntityGroup@@QAEXM_N@Z

; 416  : 	pGrp->ClearAllActionAni( 5.0f );

  00105	f3 0f 10 05 00
	00 00 00	 movss	 xmm0, DWORD PTR __real@40a00000
  0010d	6a 00		 push	 0
  0010f	51		 push	 ecx
  00110	8b cf		 mov	 ecx, edi
  00112	f3 0f 11 04 24	 movss	 DWORD PTR [esp], xmm0
  00117	ff 15 00 00 00
	00		 call	 DWORD PTR __imp_?ClearAllActionAni@ioEntityGroup@@QAEXM_N@Z

; 417  : 	pGrp->SetActionAni( iCurSkillAniID, 5.0f, 5.0f, FLOAT1, FLOAT1/fTimeRate );

  0011d	b8 01 00 00 00	 mov	 eax, 1
  00122	8b c8		 mov	 ecx, eax
  00124	b8 01 00 00 00	 mov	 eax, 1
  00129	0f 57 c0	 xorps	 xmm0, xmm0
  0012c	6a 01		 push	 1
  0012e	6a 00		 push	 0
  00130	83 ec 18	 sub	 esp, 24			; 00000018H
  00133	f3 0f 11 44 24
	14		 movss	 DWORD PTR [esp+20], xmm0
  00139	89 4d c8	 mov	 DWORD PTR tv2111[ebp], ecx
  0013c	db 45 c8	 fild	 DWORD PTR tv2111[ebp]
  0013f	f3 0f 11 44 24
	10		 movss	 DWORD PTR [esp+16], xmm0
  00145	85 c9		 test	 ecx, ecx
  00147	79 06		 jns	 SHORT $LN250@SetActionS
  00149	d8 05 00 00 00
	00		 fadd	 DWORD PTR __real@4f800000
$LN250@SetActionS:
  0014f	d8 75 c0	 fdiv	 DWORD PTR _fTimeRate$[ebp]
  00152	d9 5d c8	 fstp	 DWORD PTR tv2108[ebp]
  00155	d9 45 c8	 fld	 DWORD PTR tv2108[ebp]
  00158	d9 5c 24 0c	 fstp	 DWORD PTR [esp+12]
  0015c	89 45 c8	 mov	 DWORD PTR tv2106[ebp], eax
  0015f	db 45 c8	 fild	 DWORD PTR tv2106[ebp]
  00162	85 c0		 test	 eax, eax
  00164	79 06		 jns	 SHORT $LN251@SetActionS
  00166	d8 05 00 00 00
	00		 fadd	 DWORD PTR __real@4f800000
$LN251@SetActionS:
  0016c	f3 0f 10 05 00
	00 00 00	 movss	 xmm0, DWORD PTR __real@40a00000
  00174	d9 5c 24 08	 fstp	 DWORD PTR [esp+8]
  00178	f3 0f 11 44 24
	04		 movss	 DWORD PTR [esp+4], xmm0
  0017e	f3 0f 11 04 24	 movss	 DWORD PTR [esp], xmm0
  00183	ff 75 c4	 push	 DWORD PTR _iCurSkillAniID$[ebp]
  00186	8b cf		 mov	 ecx, edi
  00188	ff 15 00 00 00
	00		 call	 DWORD PTR __imp_?SetActionAni@ioEntityGroup@@QAE_NHMMMMMM_N0@Z

; 418  : 
; 419  : 	m_dwMotionStartTime = dwCurTime;

  0018e	8d 45 c8	 lea	 eax, DWORD PTR _value$555381[ebp]
  00191	50		 push	 eax
  00192	8d 8e a8 02 00
	00		 lea	 ecx, DWORD PTR [esi+680]
  00198	89 5d c8	 mov	 DWORD PTR _value$555381[ebp], ebx
  0019b	e8 00 00 00 00	 call	 ?EncryptValueToPool@?$CEncrypt@K@@AAEXPBD@Z ; CEncrypt<unsigned long>::EncryptValueToPool

; 420  : 	m_dwMotionEndTime = m_dwMotionStartTime + pGrp->GetAnimationFullTime( iCurSkillAniID ) * fTimeRate;

  001a0	ff 75 c4	 push	 DWORD PTR _iCurSkillAniID$[ebp]
  001a3	8b cf		 mov	 ecx, edi
  001a5	ff 15 00 00 00
	00		 call	 DWORD PTR __imp_?GetAnimationFullTime@ioEntityGroup@@QAEMH@Z
  001ab	d8 4d c0	 fmul	 DWORD PTR _fTimeRate$[ebp]
  001ae	8d 45 c8	 lea	 eax, DWORD PTR $T555345[ebp]
  001b1	50		 push	 eax
  001b2	8d 8e a8 02 00
	00		 lea	 ecx, DWORD PTR [esi+680]
  001b8	d9 5d c8	 fstp	 DWORD PTR $T555345[ebp]
  001bb	e8 00 00 00 00	 call	 ??H?$CEncrypt@K@@QAEKABM@Z ; CEncrypt<unsigned long>::operator+

; 421  : 	m_dwMotionEndTime += m_dwAnimationEndDelay;

  001c0	8b 8e 54 0f 00
	00		 mov	 ecx, DWORD PTR [esi+3924]

; 422  : 
; 423  : 	pChar->RefreshFireTimeListWithBase( m_dwWeaponBaseIndex,
; 424  : 										iCurSkillAniID,
; 425  : 										m_LandAttackAttribute.m_vWeaponInfoList,
; 426  : 										FTT_SKILL_ATTACK,
; 427  : 										fTimeRate,
; 428  : 										m_LandAttackAttribute.m_dwPreDelay );

  001c6	f3 0f 10 45 c0	 movss	 xmm0, DWORD PTR _fTimeRate$[ebp]
  001cb	6a 00		 push	 0
  001cd	ff b6 d0 10 00
	00		 push	 DWORD PTR [esi+4304]
  001d3	03 c8		 add	 ecx, eax
  001d5	51		 push	 ecx
  001d6	f3 0f 11 04 24	 movss	 DWORD PTR [esp], xmm0
  001db	6a 04		 push	 4
  001dd	8d 86 b0 10 00
	00		 lea	 eax, DWORD PTR [esi+4272]
  001e3	50		 push	 eax
  001e4	ff 75 c4	 push	 DWORD PTR _iCurSkillAniID$[ebp]
  001e7	89 8e d8 02 00
	00		 mov	 DWORD PTR [esi+728], ecx
  001ed	ff 76 78	 push	 DWORD PTR [esi+120]
  001f0	8b 4d b8	 mov	 ecx, DWORD PTR _pChar$GSCopy$[ebp]
  001f3	e8 00 00 00 00	 call	 ?RefreshFireTimeListWithBase@ioBaseChar@@QAEXKHABV?$vector@UWeaponInfo@@V?$allocator@UWeaponInfo@@@std@@@std@@W4FireTimeType@@MK_N@Z ; ioBaseChar::RefreshFireTimeListWithBase
  001f8	6a 03		 push	 3

; 429  : 
; 430  : 	m_dwFireMotionEndTime = dwCurTime;

  001fa	89 9e 24 02 00
	00		 mov	 DWORD PTR [esi+548], ebx

; 431  : 	m_dwFireMotionEndTime += pGrp->GetAnimationEventTime_e( iCurSkillAniID, "firemotion_e" ) * fTimeRate;

  00200	c7 45 cc 8b 85
	99 8f		 mov	 DWORD PTR _szEncEventType$555415[ebp], -1885764213 ; 8f99858bH
  00207	c7 45 d0 80 83
	9f 83		 mov	 DWORD PTR _szEncEventType$555415[ebp+4], -2086698112 ; 839f8380H
  0020e	c7 45 d4 82 82
	b4 8f		 mov	 DWORD PTR _szEncEventType$555415[ebp+8], -1883995518 ; 8fb48282H
  00215	8d 45 cc	 lea	 eax, DWORD PTR _szEncEventType$555415[ebp]
  00218	c6 45 d8 00	 mov	 BYTE PTR _szEncEventType$555415[ebp+12], 0
  0021c	59		 pop	 ecx
$LL130@SetActionS:
  0021d	81 30 ed ec eb
	ea		 xor	 DWORD PTR [eax], -353637139 ; eaebecedH
  00223	83 c0 04	 add	 eax, 4
  00226	49		 dec	 ecx
  00227	75 f4		 jne	 SHORT $LL130@SetActionS
  00229	8d 45 cc	 lea	 eax, DWORD PTR _szEncEventType$555415[ebp]
  0022c	50		 push	 eax
  0022d	8d 4d a8	 lea	 ecx, DWORD PTR $T555402[ebp]
  00230	ff 15 00 00 00
	00		 call	 DWORD PTR __imp_??0ioHashString@@QAE@PBD@Z
  00236	8b 4d bc	 mov	 ecx, DWORD PTR _pGrp$[ebp]
  00239	83 65 fc 00	 and	 DWORD PTR __$EHRec$[ebp+8], 0
  0023d	8d 45 a8	 lea	 eax, DWORD PTR $T555402[ebp]
  00240	50		 push	 eax
  00241	ff 75 c4	 push	 DWORD PTR _iCurSkillAniID$[ebp]
  00244	ff 15 00 00 00
	00		 call	 DWORD PTR __imp_?GetAnimationEventTime@ioEntityGroup@@QAEMHABVioHashString@@@Z
  0024a	d9 5d c8	 fstp	 DWORD PTR $T555401[ebp]
  0024d	83 4d fc ff	 or	 DWORD PTR __$EHRec$[ebp+8], -1
  00251	8d 4d a8	 lea	 ecx, DWORD PTR $T555402[ebp]
  00254	ff 15 00 00 00
	00		 call	 DWORD PTR __imp_??1ioHashString@@QAE@XZ
  0025a	d9 45 c8	 fld	 DWORD PTR $T555401[ebp]
  0025d	8b 86 24 02 00
	00		 mov	 eax, DWORD PTR [esi+548]
  00263	d8 4d c0	 fmul	 DWORD PTR _fTimeRate$[ebp]
  00266	db 86 24 02 00
	00		 fild	 DWORD PTR [esi+548]
  0026c	85 c0		 test	 eax, eax
  0026e	79 06		 jns	 SHORT $LN252@SetActionS
  00270	dc 05 00 00 00
	00		 fadd	 QWORD PTR __real@41f0000000000000
$LN252@SetActionS:
  00276	de c1		 faddp	 ST(1), ST(0)
  00278	e8 00 00 00 00	 call	 __ftol2
  0027d	6a 02		 push	 2
  0027f	89 86 24 02 00
	00		 mov	 DWORD PTR [esi+548], eax

; 432  : 
; 433  : 	// Key Reserve
; 434  : 	m_dwEnableReserveTime = dwCurTime;

  00285	89 9e dc 02 00
	00		 mov	 DWORD PTR [esi+732], ebx

; 435  : 	m_dwEnableReserveTime += pGrp->GetAnimationEventTime_e( iCurSkillAniID, "key_reserve" );

  0028b	c7 45 e0 86 89
	92 b5		 mov	 DWORD PTR _szEncEventType$555628[ebp], -1248687738 ; b5928986H
  00292	c7 45 e4 9f 89
	98 8f		 mov	 DWORD PTR _szEncEventType$555628[ebp+4], -1885828705 ; 8f98899fH
  00299	8d 45 e0	 lea	 eax, DWORD PTR _szEncEventType$555628[ebp]
  0029c	c7 45 e8 9f 9a
	8e 00		 mov	 DWORD PTR _szEncEventType$555628[ebp+8], 9345695 ; 008e9a9fH
  002a3	59		 pop	 ecx
$LL237@SetActionS:
  002a4	81 30 ed ec eb
	ea		 xor	 DWORD PTR [eax], -353637139 ; eaebecedH
  002aa	83 c0 04	 add	 eax, 4
  002ad	49		 dec	 ecx
  002ae	75 f4		 jne	 SHORT $LL237@SetActionS
  002b0	6a 08		 push	 8
  002b2	58		 pop	 eax
$LL234@SetActionS:
  002b3	8b c8		 mov	 ecx, eax
  002b5	81 e1 03 00 00
	80		 and	 ecx, -2147483645	; 80000003H
  002bb	79 05		 jns	 SHORT $LN253@SetActionS
  002bd	49		 dec	 ecx
  002be	83 c9 fc	 or	 ecx, -4			; fffffffcH
  002c1	41		 inc	 ecx
$LN253@SetActionS:
  002c2	b2 ed		 mov	 dl, -19			; ffffffedH
  002c4	2a d1		 sub	 dl, cl
  002c6	30 54 05 e0	 xor	 BYTE PTR _szEncEventType$555628[ebp+eax], dl
  002ca	40		 inc	 eax
  002cb	83 f8 0b	 cmp	 eax, 11			; 0000000bH
  002ce	7c e3		 jl	 SHORT $LL234@SetActionS
  002d0	8d 45 e0	 lea	 eax, DWORD PTR _szEncEventType$555628[ebp]
  002d3	50		 push	 eax
  002d4	8d 4d 98	 lea	 ecx, DWORD PTR $T555615[ebp]
  002d7	ff 15 00 00 00
	00		 call	 DWORD PTR __imp_??0ioHashString@@QAE@PBD@Z
  002dd	8b 4d bc	 mov	 ecx, DWORD PTR _pGrp$[ebp]
  002e0	8d 45 98	 lea	 eax, DWORD PTR $T555615[ebp]
  002e3	50		 push	 eax
  002e4	ff 75 c4	 push	 DWORD PTR _iCurSkillAniID$[ebp]
  002e7	33 db		 xor	 ebx, ebx
  002e9	43		 inc	 ebx
  002ea	89 5d fc	 mov	 DWORD PTR __$EHRec$[ebp+8], ebx
  002ed	ff 15 00 00 00
	00		 call	 DWORD PTR __imp_?GetAnimationEventTime@ioEntityGroup@@QAEMHABVioHashString@@@Z
  002f3	d9 5d c8	 fstp	 DWORD PTR $T555614[ebp]
  002f6	83 4d fc ff	 or	 DWORD PTR __$EHRec$[ebp+8], -1
  002fa	8d 4d 98	 lea	 ecx, DWORD PTR $T555615[ebp]
  002fd	ff 15 00 00 00
	00		 call	 DWORD PTR __imp_??1ioHashString@@QAE@XZ
  00303	db 86 dc 02 00
	00		 fild	 DWORD PTR [esi+732]
  00309	8b 86 dc 02 00
	00		 mov	 eax, DWORD PTR [esi+732]
  0030f	85 c0		 test	 eax, eax
  00311	79 06		 jns	 SHORT $LN254@SetActionS
  00313	d8 05 00 00 00
	00		 fadd	 DWORD PTR __real@4f800000
$LN254@SetActionS:
  00319	d8 45 c8	 fadd	 DWORD PTR $T555614[ebp]
  0031c	e8 00 00 00 00	 call	 __ftol2

; 436  : 
; 437  : 	pChar->CheckCharColSkipSkillTime( iCurSkillAniID, fTimeRate, m_LandAttackAttribute.m_dwPreDelay );

  00321	ff b6 d0 10 00
	00		 push	 DWORD PTR [esi+4304]
  00327	f3 0f 10 45 c0	 movss	 xmm0, DWORD PTR _fTimeRate$[ebp]
  0032c	51		 push	 ecx
  0032d	8b 4d b8	 mov	 ecx, DWORD PTR _pChar$GSCopy$[ebp]
  00330	f3 0f 11 04 24	 movss	 DWORD PTR [esp], xmm0
  00335	ff 75 c4	 push	 DWORD PTR _iCurSkillAniID$[ebp]
  00338	89 86 dc 02 00
	00		 mov	 DWORD PTR [esi+732], eax
  0033e	e8 00 00 00 00	 call	 ?CheckCharColSkipSkillTime@ioBaseChar@@QAEXHMK@Z ; ioBaseChar::CheckCharColSkipSkillTime

; 438  : 	pChar->SetReservedSliding( m_LandAttackAttribute.m_vForceInfoList, iCurSkillAniID, fTimeRate, m_LandAttackAttribute.m_dwPreDelay );

  00343	f3 0f 10 05 00
	00 00 00	 movss	 xmm0, DWORD PTR __real@3f800000
  0034b	53		 push	 ebx
  0034c	51		 push	 ecx
  0034d	f3 0f 11 04 24	 movss	 DWORD PTR [esp], xmm0
  00352	ff b6 d0 10 00
	00		 push	 DWORD PTR [esi+4304]
  00358	f3 0f 10 45 c0	 movss	 xmm0, DWORD PTR _fTimeRate$[ebp]
  0035d	51		 push	 ecx
  0035e	8b 4d b8	 mov	 ecx, DWORD PTR _pChar$GSCopy$[ebp]
  00361	f3 0f 11 04 24	 movss	 DWORD PTR [esp], xmm0
  00366	ff 75 c4	 push	 DWORD PTR _iCurSkillAniID$[ebp]
  00369	81 c6 c0 10 00
	00		 add	 esi, 4288		; 000010c0H
  0036f	56		 push	 esi
  00370	e8 00 00 00 00	 call	 ?SetReservedSliding@ioBaseChar@@QAEXABV?$vector@UForceInfo@@V?$allocator@UForceInfo@@@std@@@std@@HMKM_N@Z ; ioBaseChar::SetReservedSliding
$LN6@SetActionS:

; 439  : }

  00375	e8 00 00 00 00	 call	 __EH_epilog3_GS
  0037a	c2 04 00	 ret	 4
_TEXT	ENDS
;	COMDAT text$x
text$x	SEGMENT
__unwindfunclet$?SetActionState@ioCircleMoveAttackSkill3@@IAEXPAVioBaseChar@@@Z$0:
  00000	8d 4d a8	 lea	 ecx, DWORD PTR $T555402[ebp]
  00003	ff 25 00 00 00
	00		 jmp	 DWORD PTR __imp_??1ioHashString@@QAE@XZ
__unwindfunclet$?SetActionState@ioCircleMoveAttackSkill3@@IAEXPAVioBaseChar@@@Z$1:
  00009	8d 4d 98	 lea	 ecx, DWORD PTR $T555615[ebp]
  0000c	ff 25 00 00 00
	00		 jmp	 DWORD PTR __imp_??1ioHashString@@QAE@XZ
__ehhandler$?SetActionState@ioCircleMoveAttackSkill3@@IAEXPAVioBaseChar@@@Z:
  00012	8b 54 24 08	 mov	 edx, DWORD PTR [esp+8]
  00016	8d 42 0c	 lea	 eax, DWORD PTR [edx+12]
  00019	8b 4a 94	 mov	 ecx, DWORD PTR [edx-108]
  0001c	33 c8		 xor	 ecx, eax
  0001e	e8 00 00 00 00	 call	 @__security_check_cookie@4
  00023	8b 4a fc	 mov	 ecx, DWORD PTR [edx-4]
  00026	33 c8		 xor	 ecx, eax
  00028	e8 00 00 00 00	 call	 @__security_check_cookie@4
  0002d	b8 00 00 00 00	 mov	 eax, OFFSET __ehfuncinfo$?SetActionState@ioCircleMoveAttackSkill3@@IAEXPAVioBaseChar@@@Z
  00032	e9 00 00 00 00	 jmp	 ___CxxFrameHandler3
text$x	ENDS
?SetActionState@ioCircleMoveAttackSkill3@@IAEXPAVioBaseChar@@@Z ENDP ; ioCircleMoveAttackSkill3::SetActionState
PUBLIC	?IsEndState@ioCircleMoveAttackSkill3@@UBE_NXZ	; ioCircleMoveAttackSkill3::IsEndState
; Function compile flags: /Ogsp
;	COMDAT ?IsEndState@ioCircleMoveAttackSkill3@@UBE_NXZ
_TEXT	SEGMENT
_value$555676 = -4					; size = 4
_value$555671 = -4					; size = 4
?IsEndState@ioCircleMoveAttackSkill3@@UBE_NXZ PROC	; ioCircleMoveAttackSkill3::IsEndState, COMDAT
; _this$ = ecx

; 458  : {

  00000	55		 push	 ebp
  00001	8b ec		 mov	 ebp, esp
  00003	51		 push	 ecx
  00004	56		 push	 esi
  00005	8b f1		 mov	 esi, ecx

; 459  : 	if( m_State == SS_WAIT )

  00007	8d 45 fc	 lea	 eax, DWORD PTR _value$555671[ebp]
  0000a	50		 push	 eax
  0000b	8d 8e 58 0f 00
	00		 lea	 ecx, DWORD PTR [esi+3928]
  00011	e8 00 00 00 00	 call	 ?DecryptValueToPool@?$CEncrypt@H@@QAEXPAH@Z ; CEncrypt<int>::DecryptValueToPool
  00016	83 7d fc 02	 cmp	 DWORD PTR _value$555671[ebp], 2
  0001a	75 2e		 jne	 SHORT $LN1@IsEndState

; 460  : 	{
; 461  : 		if( m_dwWaitStartTime+m_dwWaitDuration < FRAMEGETTIME() )

  0001c	8d 45 fc	 lea	 eax, DWORD PTR _value$555676[ebp]
  0001f	50		 push	 eax
  00020	8d 8e d0 0f 00
	00		 lea	 ecx, DWORD PTR [esi+4048]
  00026	e8 00 00 00 00	 call	 ?DecryptValueToPool@?$CEncrypt@K@@QAEXPAK@Z ; CEncrypt<unsigned long>::DecryptValueToPool
  0002b	ff 15 00 00 00
	00		 call	 DWORD PTR __imp_?GetSingleton@ioFrameTimer@@SAAAV1@XZ
  00031	8b c8		 mov	 ecx, eax
  00033	ff 15 00 00 00
	00		 call	 DWORD PTR __imp_?GetLoopSec@ioFrameTimer@@QBEKXZ
  00039	8b 8e 9c 0f 00
	00		 mov	 ecx, DWORD PTR [esi+3996]
  0003f	03 4d fc	 add	 ecx, DWORD PTR _value$555676[ebp]
  00042	3b c8		 cmp	 ecx, eax
  00044	73 04		 jae	 SHORT $LN1@IsEndState

; 462  : 			return true;

  00046	b0 01		 mov	 al, 1
  00048	eb 02		 jmp	 SHORT $LN3@IsEndState
$LN1@IsEndState:

; 463  : 	}
; 464  : 
; 465  : 	return false;

  0004a	32 c0		 xor	 al, al
$LN3@IsEndState:
  0004c	5e		 pop	 esi

; 466  : }

  0004d	c9		 leave
  0004e	c3		 ret	 0
?IsEndState@ioCircleMoveAttackSkill3@@UBE_NXZ ENDP	; ioCircleMoveAttackSkill3::IsEndState
_TEXT	ENDS
PUBLIC	?IsProtected@ioCircleMoveAttackSkill3@@UBE_NH@Z	; ioCircleMoveAttackSkill3::IsProtected
; Function compile flags: /Ogsp
;	COMDAT ?IsProtected@ioCircleMoveAttackSkill3@@UBE_NH@Z
_TEXT	SEGMENT
_value$555684 = -1					; size = 1
_value$555694 = 8					; size = 4
_value$555689 = 8					; size = 4
_iDefenseBreakType$ = 8					; size = 4
?IsProtected@ioCircleMoveAttackSkill3@@UBE_NH@Z PROC	; ioCircleMoveAttackSkill3::IsProtected, COMDAT
; _this$ = ecx

; 469  : {

  00000	55		 push	 ebp
  00001	8b ec		 mov	 ebp, esp
  00003	51		 push	 ecx
  00004	56		 push	 esi
  00005	8b f1		 mov	 esi, ecx

; 470  : 	if( m_bDisableSkillProtect )

  00007	8d 45 ff	 lea	 eax, DWORD PTR _value$555684[ebp]
  0000a	50		 push	 eax
  0000b	8d 8e a8 00 00
	00		 lea	 ecx, DWORD PTR [esi+168]
  00011	e8 00 00 00 00	 call	 ?DecryptValueToPool@?$CEncrypt@_N@@QAEXPA_N@Z ; CEncrypt<bool>::DecryptValueToPool
  00016	80 7d ff 00	 cmp	 BYTE PTR _value$555684[ebp], 0
  0001a	74 04		 je	 SHORT $LN13@IsProtecte
$LN23@IsProtecte:

; 471  : 		return false;

  0001c	32 c0		 xor	 al, al
  0001e	eb 69		 jmp	 SHORT $LN14@IsProtecte
$LN13@IsProtecte:

; 472  : 
; 473  : 	if( DBT_NONE != (DefenseBreakType)m_ProtectCancelType )

  00020	8b 86 a4 00 00
	00		 mov	 eax, DWORD PTR [esi+164]
  00026	85 c0		 test	 eax, eax
  00028	74 05		 je	 SHORT $LN11@IsProtecte

; 474  : 	{
; 475  : 		if( iDefenseBreakType == m_ProtectCancelType )   //   

  0002a	39 45 08	 cmp	 DWORD PTR _iDefenseBreakType$[ebp], eax

; 476  : 			return false;

  0002d	74 ed		 je	 SHORT $LN23@IsProtecte
$LN11@IsProtecte:

; 477  : 	}
; 478  : 
; 479  : 	if( IsPreDelayProtect() )

  0002f	8b 06		 mov	 eax, DWORD PTR [esi]
  00031	8b ce		 mov	 ecx, esi
  00033	ff 90 2c 01 00
	00		 call	 DWORD PTR [eax+300]
  00039	84 c0		 test	 al, al
  0003b	74 0d		 je	 SHORT $LN9@IsProtecte

; 480  : 	{
; 481  : 		if( m_dwPreDelayStartTime != 0 )

  0003d	83 be 20 02 00
	00 00		 cmp	 DWORD PTR [esi+544], 0
  00044	74 04		 je	 SHORT $LN9@IsProtecte

; 482  : 			return true;

  00046	b0 01		 mov	 al, 1
  00048	eb 3f		 jmp	 SHORT $LN14@IsProtecte
$LN9@IsProtecte:
  0004a	57		 push	 edi

; 483  : 	}
; 484  : 
; 485  : 	DWORD dwCurTime = FRAMEGETTIME();

  0004b	ff 15 00 00 00
	00		 call	 DWORD PTR __imp_?GetSingleton@ioFrameTimer@@SAAAV1@XZ
  00051	8b c8		 mov	 ecx, eax
  00053	ff 15 00 00 00
	00		 call	 DWORD PTR __imp_?GetLoopSec@ioFrameTimer@@QBEKXZ
  00059	8b f8		 mov	 edi, eax

; 486  : 
; 487  : 	switch( m_State )

  0005b	8d 45 08	 lea	 eax, DWORD PTR _value$555689[ebp]
  0005e	50		 push	 eax
  0005f	8d 8e 58 0f 00
	00		 lea	 ecx, DWORD PTR [esi+3928]
  00065	e8 00 00 00 00	 call	 ?DecryptValueToPool@?$CEncrypt@H@@QAEXPAH@Z ; CEncrypt<int>::DecryptValueToPool
  0006a	8b 45 08	 mov	 eax, DWORD PTR _value$555689[ebp]
  0006d	83 f8 01	 cmp	 eax, 1
  00070	74 14		 je	 SHORT $LN5@IsProtecte
  00072	7e 36		 jle	 SHORT $LN3@IsProtecte
  00074	83 f8 03	 cmp	 eax, 3
  00077	7e 15		 jle	 SHORT $LN4@IsProtecte
  00079	83 f8 05	 cmp	 eax, 5
  0007c	7f 2c		 jg	 SHORT $LN3@IsProtecte

; 497  : 		break;
; 498  : 	case SS_ACTION:
; 499  : 	case SS_EXTRA_ACTION:
; 500  : 		if( m_dwFireMotionEndTime > dwCurTime )

  0007e	39 be 24 02 00
	00		 cmp	 DWORD PTR [esi+548], edi
  00084	76 24		 jbe	 SHORT $LN3@IsProtecte
$LN5@IsProtecte:

; 488  : 	{
; 489  : 	case SS_NONE:
; 490  : 		break;
; 491  : 	case SS_PRE_ACTION:
; 492  : 		return true;

  00086	b0 01		 mov	 al, 1
$LN22@IsProtecte:
  00088	5f		 pop	 edi
$LN14@IsProtecte:
  00089	5e		 pop	 esi

; 506  : }

  0008a	c9		 leave
  0008b	c2 04 00	 ret	 4
$LN4@IsProtecte:

; 493  : 	case SS_WAIT:
; 494  : 	case SS_ACTION_LOOP:
; 495  : 		if( m_dwWaitStartTime + m_dwWaitProtectionTime > dwCurTime )

  0008e	8d 45 08	 lea	 eax, DWORD PTR _value$555694[ebp]
  00091	50		 push	 eax
  00092	8d 8e a0 0f 00
	00		 lea	 ecx, DWORD PTR [esi+4000]
  00098	e8 00 00 00 00	 call	 ?DecryptValueToPool@?$CEncrypt@K@@QAEXPAK@Z ; CEncrypt<unsigned long>::DecryptValueToPool
  0009d	8b 86 9c 0f 00
	00		 mov	 eax, DWORD PTR [esi+3996]
  000a3	03 45 08	 add	 eax, DWORD PTR _value$555694[ebp]
  000a6	3b c7		 cmp	 eax, edi

; 496  : 			return true;

  000a8	77 dc		 ja	 SHORT $LN5@IsProtecte
$LN3@IsProtecte:

; 501  : 			return true;
; 502  : 		break;
; 503  : 	}
; 504  : 
; 505  : 	return false;

  000aa	32 c0		 xor	 al, al
  000ac	eb da		 jmp	 SHORT $LN22@IsProtecte
?IsProtected@ioCircleMoveAttackSkill3@@UBE_NH@Z ENDP	; ioCircleMoveAttackSkill3::IsProtected
_TEXT	ENDS
PUBLIC	?IsSkillMotionEnd@ioCircleMoveAttackSkill3@@UBE_NKPAVioBaseChar@@@Z ; ioCircleMoveAttackSkill3::IsSkillMotionEnd
; Function compile flags: /Ogsp
;	COMDAT ?IsSkillMotionEnd@ioCircleMoveAttackSkill3@@UBE_NKPAVioBaseChar@@@Z
_TEXT	SEGMENT
_value$555703 = -4					; size = 4
_dwActionStop$ = 8					; size = 4
_pOwner$ = 12						; size = 4
?IsSkillMotionEnd@ioCircleMoveAttackSkill3@@UBE_NKPAVioBaseChar@@@Z PROC ; ioCircleMoveAttackSkill3::IsSkillMotionEnd, COMDAT
; _this$ = ecx

; 509  : {

  00000	55		 push	 ebp
  00001	8b ec		 mov	 ebp, esp
  00003	51		 push	 ecx
  00004	56		 push	 esi
  00005	8b f1		 mov	 esi, ecx

; 510  : 	if( m_dwPreDelayStartTime > 0 )

  00007	83 be 20 02 00
	00 00		 cmp	 DWORD PTR [esi+544], 0
  0000e	76 04		 jbe	 SHORT $LN6@IsSkillMot

; 511  : 		return false;

  00010	32 c0		 xor	 al, al
  00012	eb 46		 jmp	 SHORT $LN7@IsSkillMot
$LN6@IsSkillMot:
  00014	57		 push	 edi

; 512  : 
; 513  : 	DWORD dwCurTime = FRAMEGETTIME();

  00015	ff 15 00 00 00
	00		 call	 DWORD PTR __imp_?GetSingleton@ioFrameTimer@@SAAAV1@XZ
  0001b	8b c8		 mov	 ecx, eax
  0001d	ff 15 00 00 00
	00		 call	 DWORD PTR __imp_?GetLoopSec@ioFrameTimer@@QBEKXZ
  00023	8b f8		 mov	 edi, eax

; 514  : 
; 515  : 	switch( m_State )

  00025	8d 45 fc	 lea	 eax, DWORD PTR _value$555703[ebp]
  00028	50		 push	 eax
  00029	8d 8e 58 0f 00
	00		 lea	 ecx, DWORD PTR [esi+3928]
  0002f	e8 00 00 00 00	 call	 ?DecryptValueToPool@?$CEncrypt@H@@QAEXPAH@Z ; CEncrypt<int>::DecryptValueToPool
  00034	83 7d fc 00	 cmp	 DWORD PTR _value$555703[ebp], 0
  00038	7c 1d		 jl	 SHORT $LN4@IsSkillMot
  0003a	83 7d fc 03	 cmp	 DWORD PTR _value$555703[ebp], 3
  0003e	7e 17		 jle	 SHORT $LN4@IsSkillMot
  00040	83 7d fc 05	 cmp	 DWORD PTR _value$555703[ebp], 5
  00044	7f 11		 jg	 SHORT $LN4@IsSkillMot

; 516  : 	{
; 517  : 	case SS_NONE:
; 518  : 	case SS_PRE_ACTION:
; 519  : 	case SS_ACTION_LOOP:
; 520  : 	case SS_WAIT:
; 521  : 		return false;
; 522  : 	case SS_ACTION:
; 523  : 	case SS_EXTRA_ACTION:
; 524  : 		if( m_dwMotionEndTime + dwActionStop < dwCurTime )

  00046	8b 86 d8 02 00
	00		 mov	 eax, DWORD PTR [esi+728]
  0004c	03 45 08	 add	 eax, DWORD PTR _dwActionStop$[ebp]
  0004f	3b c7		 cmp	 eax, edi
  00051	73 04		 jae	 SHORT $LN4@IsSkillMot

; 525  : 			return true;

  00053	b0 01		 mov	 al, 1
  00055	eb 02		 jmp	 SHORT $LN11@IsSkillMot
$LN4@IsSkillMot:

; 526  : 
; 527  : 		break;
; 528  : 	}
; 529  : 	
; 530  : 	return false;

  00057	32 c0		 xor	 al, al
$LN11@IsSkillMot:
  00059	5f		 pop	 edi
$LN7@IsSkillMot:
  0005a	5e		 pop	 esi

; 531  : }

  0005b	c9		 leave
  0005c	c2 08 00	 ret	 8
?IsSkillMotionEnd@ioCircleMoveAttackSkill3@@UBE_NKPAVioBaseChar@@@Z ENDP ; ioCircleMoveAttackSkill3::IsSkillMotionEnd
_TEXT	ENDS
PUBLIC	?IsCharSkipState@ioCircleMoveAttackSkill3@@UBE?AW4SkillCharColType@@XZ ; ioCircleMoveAttackSkill3::IsCharSkipState
; Function compile flags: /Ogsp
;	COMDAT ?IsCharSkipState@ioCircleMoveAttackSkill3@@UBE?AW4SkillCharColType@@XZ
_TEXT	SEGMENT
_value$555711 = -4					; size = 4
?IsCharSkipState@ioCircleMoveAttackSkill3@@UBE?AW4SkillCharColType@@XZ PROC ; ioCircleMoveAttackSkill3::IsCharSkipState, COMDAT
; _this$ = ecx

; 629  : {

  00000	55		 push	 ebp
  00001	8b ec		 mov	 ebp, esp
  00003	51		 push	 ecx

; 630  : 	if( m_EnableCharCollisionSkip == SCCT_ALL )

  00004	8b 81 54 03 00
	00		 mov	 eax, DWORD PTR [ecx+852]
  0000a	83 f8 01	 cmp	 eax, 1
  0000d	75 18		 jne	 SHORT $LN6@IsCharSkip

; 631  : 	{
; 632  : 		switch( m_State )

  0000f	8d 45 fc	 lea	 eax, DWORD PTR _value$555711[ebp]
  00012	50		 push	 eax
  00013	81 c1 58 0f 00
	00		 add	 ecx, 3928		; 00000f58H
  00019	e8 00 00 00 00	 call	 ?DecryptValueToPool@?$CEncrypt@H@@QAEXPAH@Z ; CEncrypt<int>::DecryptValueToPool
  0001e	33 c0		 xor	 eax, eax
  00020	83 7d fc 03	 cmp	 DWORD PTR _value$555711[ebp], 3
  00024	0f 94 c0	 sete	 al
$LN6@IsCharSkip:

; 633  : 		{
; 634  : 		case SS_ACTION_LOOP:
; 635  : 			return SCCT_ALL;
; 636  : 		default:
; 637  : 			return SCCT_NONE;
; 638  : 		}
; 639  : 	}
; 640  : 
; 641  : 	return m_EnableCharCollisionSkip;
; 642  : }

  00027	c9		 leave
  00028	c3		 ret	 0
?IsCharSkipState@ioCircleMoveAttackSkill3@@UBE?AW4SkillCharColType@@XZ ENDP ; ioCircleMoveAttackSkill3::IsCharSkipState
_TEXT	ENDS
PUBLIC	_pChar$GSCopy$
PUBLIC	__$ArrayPad$
PUBLIC	?SetExtraActionState@ioCircleMoveAttackSkill3@@IAEXPAVioBaseChar@@@Z ; ioCircleMoveAttackSkill3::SetExtraActionState
EXTRN	??1SP2Packet@@UAE@XZ:PROC			; SP2Packet::~SP2Packet
EXTRN	?SendToAllPlayingUser@P2PNetwork@@YAXAAVSP2Packet@@PAVioBaseChar@@@Z:PROC ; P2PNetwork::SendToAllPlayingUser
EXTRN	??6SP2Packet@@QAEAAV0@H@Z:PROC			; SP2Packet::operator<<
EXTRN	??6SP2Packet@@QAEAAV0@ABVioHashString@@@Z:PROC	; SP2Packet::operator<<
EXTRN	??0SP2Packet@@QAE@K@Z:PROC			; SP2Packet::SP2Packet
EXTRN	?ClearSkillReserveKey@ioBaseChar@@QAEXXZ:PROC	; ioBaseChar::ClearSkillReserveKey
EXTRN	__chkstk:PROC
;	COMDAT xdata$x
; File d:\lost saga for developer\youtube\tutorial\source\src\lsclient\ioskill.h
xdata$x	SEGMENT
__unwindtable$?SetExtraActionState@ioCircleMoveAttackSkill3@@IAEXPAVioBaseChar@@@Z DD 0ffffffffH
	DD	FLAT:__unwindfunclet$?SetExtraActionState@ioCircleMoveAttackSkill3@@IAEXPAVioBaseChar@@@Z$1
	DD	0ffffffffH
	DD	FLAT:__unwindfunclet$?SetExtraActionState@ioCircleMoveAttackSkill3@@IAEXPAVioBaseChar@@@Z$2
	DD	0ffffffffH
	DD	FLAT:__unwindfunclet$?SetExtraActionState@ioCircleMoveAttackSkill3@@IAEXPAVioBaseChar@@@Z$0
__ehfuncinfo$?SetExtraActionState@ioCircleMoveAttackSkill3@@IAEXPAVioBaseChar@@@Z DD 019930522H
	DD	03H
	DD	FLAT:__unwindtable$?SetExtraActionState@ioCircleMoveAttackSkill3@@IAEXPAVioBaseChar@@@Z
	DD	2 DUP(00H)
	DD	2 DUP(00H)
	DD	00H
	DD	01H
; Function compile flags: /Ogsp
; File d:\lost saga for developer\youtube\tutorial\source\src\lsclient\iocirclemoveattackskill3.cpp
xdata$x	ENDS
;	COMDAT ?SetExtraActionState@ioCircleMoveAttackSkill3@@IAEXPAVioBaseChar@@@Z
_TEXT	SEGMENT
_pChar$GSCopy$ = -32864					; size = 4
tv2091 = -32860						; size = 4
_pGrp$ = -32860						; size = 4
_fTimeRate$ = -32856					; size = 4
_value$555737 = -32852					; size = 4
_value$555724 = -32852					; size = 4
_iCurSkillAniID$ = -32852				; size = 4
tv2147 = -32848						; size = 4
tv2138 = -32848						; size = 4
tv2135 = -32848						; size = 4
tv2133 = -32848						; size = 4
tv2103 = -32848						; size = 4
$T555986 = -32848					; size = 4
$T555773 = -32848					; size = 4
_value$555753 = -32848					; size = 4
$T555716 = -32848					; size = 4
_kPacket$548536 = -32844				; size = 32792
$T555987 = -52						; size = 16
_szEncEventType$555787 = -52				; size = 13
_szEncEventType$556000 = -32				; size = 12
$T555774 = -32						; size = 16
__$ArrayPad$ = -16					; size = 4
__$EHRec$ = -12						; size = 12
_pChar$ = 8						; size = 4
?SetExtraActionState@ioCircleMoveAttackSkill3@@IAEXPAVioBaseChar@@@Z PROC ; ioCircleMoveAttackSkill3::SetExtraActionState, COMDAT
; _this$ = ecx

; 746  : {

  00000	55		 push	 ebp
  00001	8b ec		 mov	 ebp, esp
  00003	6a ff		 push	 -1
  00005	68 00 00 00 00	 push	 __ehhandler$?SetExtraActionState@ioCircleMoveAttackSkill3@@IAEXPAVioBaseChar@@@Z
  0000a	64 a1 00 00 00
	00		 mov	 eax, DWORD PTR fs:0
  00010	50		 push	 eax
  00011	b8 54 80 00 00	 mov	 eax, 32852		; 00008054H
  00016	e8 00 00 00 00	 call	 __chkstk
  0001b	a1 00 00 00 00	 mov	 eax, DWORD PTR ___security_cookie
  00020	33 c5		 xor	 eax, ebp
  00022	89 45 f0	 mov	 DWORD PTR __$ArrayPad$[ebp], eax
  00025	53		 push	 ebx
  00026	56		 push	 esi
  00027	57		 push	 edi
  00028	50		 push	 eax
  00029	8d 45 f4	 lea	 eax, DWORD PTR __$EHRec$[ebp]
  0002c	64 a3 00 00 00
	00		 mov	 DWORD PTR fs:0, eax
  00032	8b 7d 08	 mov	 edi, DWORD PTR _pChar$[ebp]
  00035	8b f1		 mov	 esi, ecx

; 784  : 	m_dwFireMotionEndTime += pGrp->GetAnimationEventTime_e( iCurSkillAniID, "firemotion_e" ) * fTimeRate;

  00037	89 bd a0 7f ff
	ff		 mov	 DWORD PTR _pChar$GSCopy$[ebp], edi
  0003d	85 ff		 test	 edi, edi
  0003f	0f 84 15 04 00
	00		 je	 $LN1@SetExtraAc

; 747  : 	if( !pChar )
; 748  : 		return;
; 749  : 
; 750  : 	ioEntityGroup *pGrp = pChar->GetGroup();

  00045	8b 47 04	 mov	 eax, DWORD PTR [edi+4]
  00048	89 85 a4 7f ff
	ff		 mov	 DWORD PTR _pGrp$[ebp], eax

; 751  : 	if( !pGrp )

  0004e	85 c0		 test	 eax, eax
  00050	0f 84 04 04 00
	00		 je	 $LN1@SetExtraAc

; 752  : 		return;
; 753  : 
; 754  : 	DWORD dwCurTime = FRAMEGETTIME();

  00056	ff 15 00 00 00
	00		 call	 DWORD PTR __imp_?GetSingleton@ioFrameTimer@@SAAAV1@XZ
  0005c	8b c8		 mov	 ecx, eax
  0005e	ff 15 00 00 00
	00		 call	 DWORD PTR __imp_?GetLoopSec@ioFrameTimer@@QBEKXZ
  00064	8b d8		 mov	 ebx, eax

; 755  : 	m_State = SS_EXTRA_ACTION;

  00066	8d 85 ac 7f ff
	ff		 lea	 eax, DWORD PTR _value$555724[ebp]
  0006c	50		 push	 eax
  0006d	8d 8e 58 0f 00
	00		 lea	 ecx, DWORD PTR [esi+3928]
  00073	c7 85 ac 7f ff
	ff 05 00 00 00	 mov	 DWORD PTR _value$555724[ebp], 5
  0007d	e8 00 00 00 00	 call	 ?EncryptValueToPool@?$CEncrypt@H@@AAEXPBD@Z ; CEncrypt<int>::EncryptValueToPool

; 756  : 
; 757  : 	pChar->SetCurJumpPowerAmt( 0.0f );

  00082	0f 57 c0	 xorps	 xmm0, xmm0

; 758  : 	pChar->SetGravityAmt( 0.0f );

  00085	8d 85 ac 7f ff
	ff		 lea	 eax, DWORD PTR _value$555737[ebp]
  0008b	50		 push	 eax
  0008c	8d 8f e8 0b 00
	00		 lea	 ecx, DWORD PTR [edi+3048]
  00092	f3 0f 11 87 90
	0e 00 00	 movss	 DWORD PTR [edi+3728], xmm0
  0009a	f3 0f 11 85 ac
	7f ff ff	 movss	 DWORD PTR _value$555737[ebp], xmm0
  000a2	e8 00 00 00 00	 call	 ?EncryptValueToPool@?$CEncrypt@M@@AAEXPBD@Z ; CEncrypt<float>::EncryptValueToPool

; 759  : 
; 760  : 	pChar->ClearSkillReserveKey();

  000a7	8b cf		 mov	 ecx, edi
  000a9	e8 00 00 00 00	 call	 ?ClearSkillReserveKey@ioBaseChar@@QAEXXZ ; ioBaseChar::ClearSkillReserveKey

; 761  : 	
; 762  : 	int iCurSkillAniID = pGrp->GetAnimationIdx( m_ExtraAttackAttribute.m_AttackAnimation );

  000ae	8b bd a4 7f ff
	ff		 mov	 edi, DWORD PTR _pGrp$[ebp]
  000b4	8d 86 d8 10 00
	00		 lea	 eax, DWORD PTR [esi+4312]
  000ba	50		 push	 eax
  000bb	8b cf		 mov	 ecx, edi
  000bd	ff 15 00 00 00
	00		 call	 DWORD PTR __imp_?GetAnimationIdx@ioEntityGroup@@QAEHABVioHashString@@@Z

; 763  : 
; 764  : 	float fTimeRate = m_ExtraAttackAttribute.m_fAttackAniRate;

  000c3	f3 0f 10 86 e8
	10 00 00	 movss	 xmm0, DWORD PTR [esi+4328]

; 765  : 	if( fTimeRate <= 0.0f )

  000cb	0f 57 c9	 xorps	 xmm1, xmm1
  000ce	0f 2f c8	 comiss	 xmm1, xmm0
  000d1	89 85 ac 7f ff
	ff		 mov	 DWORD PTR _iCurSkillAniID$[ebp], eax
  000d7	f3 0f 11 85 a8
	7f ff ff	 movss	 DWORD PTR _fTimeRate$[ebp], xmm0
  000df	72 21		 jb	 SHORT $LN2@SetExtraAc

; 766  : 		fTimeRate = FLOAT1;

  000e1	b8 01 00 00 00	 mov	 eax, 1
  000e6	89 85 b0 7f ff
	ff		 mov	 DWORD PTR tv2147[ebp], eax
  000ec	db 85 b0 7f ff
	ff		 fild	 DWORD PTR tv2147[ebp]
  000f2	85 c0		 test	 eax, eax
  000f4	79 06		 jns	 SHORT $LN253@SetExtraAc
  000f6	d8 05 00 00 00
	00		 fadd	 DWORD PTR __real@4f800000
$LN253@SetExtraAc:
  000fc	d9 9d a8 7f ff
	ff		 fstp	 DWORD PTR _fTimeRate$[ebp]
$LN2@SetExtraAc:

; 767  : 
; 768  : 	pGrp->ClearAllLoopAni( 5.0f );

  00102	f3 0f 10 05 00
	00 00 00	 movss	 xmm0, DWORD PTR __real@40a00000
  0010a	6a 00		 push	 0
  0010c	51		 push	 ecx
  0010d	8b cf		 mov	 ecx, edi
  0010f	f3 0f 11 04 24	 movss	 DWORD PTR [esp], xmm0
  00114	ff 15 00 00 00
	00		 call	 DWORD PTR __imp_?ClearAllLoopAni@ioEntityGroup@@QAEXM_N@Z

; 769  : 	pGrp->ClearAllActionAni( 5.0f );

  0011a	f3 0f 10 05 00
	00 00 00	 movss	 xmm0, DWORD PTR __real@40a00000
  00122	6a 00		 push	 0
  00124	51		 push	 ecx
  00125	8b cf		 mov	 ecx, edi
  00127	f3 0f 11 04 24	 movss	 DWORD PTR [esp], xmm0
  0012c	ff 15 00 00 00
	00		 call	 DWORD PTR __imp_?ClearAllActionAni@ioEntityGroup@@QAEXM_N@Z

; 770  : 	pGrp->SetActionAni( iCurSkillAniID, 5.0f, 5.0f, FLOAT1, FLOAT1/fTimeRate );

  00132	b8 01 00 00 00	 mov	 eax, 1
  00137	8b c8		 mov	 ecx, eax
  00139	b8 01 00 00 00	 mov	 eax, 1
  0013e	0f 57 c0	 xorps	 xmm0, xmm0
  00141	6a 01		 push	 1
  00143	6a 00		 push	 0
  00145	83 ec 18	 sub	 esp, 24			; 00000018H
  00148	f3 0f 11 44 24
	14		 movss	 DWORD PTR [esp+20], xmm0
  0014e	89 8d b0 7f ff
	ff		 mov	 DWORD PTR tv2138[ebp], ecx
  00154	db 85 b0 7f ff
	ff		 fild	 DWORD PTR tv2138[ebp]
  0015a	f3 0f 11 44 24
	10		 movss	 DWORD PTR [esp+16], xmm0
  00160	85 c9		 test	 ecx, ecx
  00162	79 06		 jns	 SHORT $LN254@SetExtraAc
  00164	d8 05 00 00 00
	00		 fadd	 DWORD PTR __real@4f800000
$LN254@SetExtraAc:
  0016a	d8 b5 a8 7f ff
	ff		 fdiv	 DWORD PTR _fTimeRate$[ebp]
  00170	d9 9d b0 7f ff
	ff		 fstp	 DWORD PTR tv2135[ebp]
  00176	d9 85 b0 7f ff
	ff		 fld	 DWORD PTR tv2135[ebp]
  0017c	d9 5c 24 0c	 fstp	 DWORD PTR [esp+12]
  00180	89 85 b0 7f ff
	ff		 mov	 DWORD PTR tv2133[ebp], eax
  00186	db 85 b0 7f ff
	ff		 fild	 DWORD PTR tv2133[ebp]
  0018c	85 c0		 test	 eax, eax
  0018e	79 06		 jns	 SHORT $LN255@SetExtraAc
  00190	d8 05 00 00 00
	00		 fadd	 DWORD PTR __real@4f800000
$LN255@SetExtraAc:
  00196	f3 0f 10 05 00
	00 00 00	 movss	 xmm0, DWORD PTR __real@40a00000
  0019e	d9 5c 24 08	 fstp	 DWORD PTR [esp+8]
  001a2	f3 0f 11 44 24
	04		 movss	 DWORD PTR [esp+4], xmm0
  001a8	f3 0f 11 04 24	 movss	 DWORD PTR [esp], xmm0
  001ad	ff b5 ac 7f ff
	ff		 push	 DWORD PTR _iCurSkillAniID$[ebp]
  001b3	8b cf		 mov	 ecx, edi
  001b5	ff 15 00 00 00
	00		 call	 DWORD PTR __imp_?SetActionAni@ioEntityGroup@@QAE_NHMMMMMM_N0@Z

; 771  : 
; 772  : 	m_dwMotionStartTime = dwCurTime;

  001bb	8d 85 b0 7f ff
	ff		 lea	 eax, DWORD PTR _value$555753[ebp]
  001c1	50		 push	 eax
  001c2	8d 8e a8 02 00
	00		 lea	 ecx, DWORD PTR [esi+680]
  001c8	89 9d b0 7f ff
	ff		 mov	 DWORD PTR _value$555753[ebp], ebx
  001ce	e8 00 00 00 00	 call	 ?EncryptValueToPool@?$CEncrypt@K@@AAEXPBD@Z ; CEncrypt<unsigned long>::EncryptValueToPool

; 773  : 	m_dwMotionEndTime = m_dwMotionStartTime + pGrp->GetAnimationFullTime( iCurSkillAniID ) * fTimeRate;

  001d3	ff b5 ac 7f ff
	ff		 push	 DWORD PTR _iCurSkillAniID$[ebp]
  001d9	8b cf		 mov	 ecx, edi
  001db	ff 15 00 00 00
	00		 call	 DWORD PTR __imp_?GetAnimationFullTime@ioEntityGroup@@QAEMH@Z
  001e1	d8 8d a8 7f ff
	ff		 fmul	 DWORD PTR _fTimeRate$[ebp]
  001e7	8d 85 b0 7f ff
	ff		 lea	 eax, DWORD PTR $T555716[ebp]
  001ed	50		 push	 eax
  001ee	8d 8e a8 02 00
	00		 lea	 ecx, DWORD PTR [esi+680]
  001f4	d9 9d b0 7f ff
	ff		 fstp	 DWORD PTR $T555716[ebp]
  001fa	e8 00 00 00 00	 call	 ??H?$CEncrypt@K@@QAEKABM@Z ; CEncrypt<unsigned long>::operator+

; 774  : 	m_dwMotionEndTime += m_dwAnimationEndDelay;

  001ff	8b 8e 54 0f 00
	00		 mov	 ecx, DWORD PTR [esi+3924]

; 775  : 
; 776  : 	pChar->RefreshFireTimeListWithBase( m_dwWeaponBaseIndex,
; 777  : 										iCurSkillAniID,
; 778  : 										m_ExtraAttackAttribute.m_vWeaponInfoList,
; 779  : 										FTT_SKILL_ATTACK,
; 780  : 										fTimeRate,
; 781  : 										m_ExtraAttackAttribute.m_dwPreDelay );

  00205	f3 0f 10 85 a8
	7f ff ff	 movss	 xmm0, DWORD PTR _fTimeRate$[ebp]
  0020d	6a 00		 push	 0
  0020f	ff b6 20 11 00
	00		 push	 DWORD PTR [esi+4384]
  00215	03 c8		 add	 ecx, eax
  00217	51		 push	 ecx
  00218	f3 0f 11 04 24	 movss	 DWORD PTR [esp], xmm0
  0021d	6a 04		 push	 4
  0021f	8d 86 00 11 00
	00		 lea	 eax, DWORD PTR [esi+4352]
  00225	50		 push	 eax
  00226	ff b5 ac 7f ff
	ff		 push	 DWORD PTR _iCurSkillAniID$[ebp]
  0022c	89 8e d8 02 00
	00		 mov	 DWORD PTR [esi+728], ecx
  00232	ff 76 78	 push	 DWORD PTR [esi+120]
  00235	8b 8d a0 7f ff
	ff		 mov	 ecx, DWORD PTR _pChar$GSCopy$[ebp]
  0023b	e8 00 00 00 00	 call	 ?RefreshFireTimeListWithBase@ioBaseChar@@QAEXKHABV?$vector@UWeaponInfo@@V?$allocator@UWeaponInfo@@@std@@@std@@W4FireTimeType@@MK_N@Z ; ioBaseChar::RefreshFireTimeListWithBase
  00240	6a 03		 push	 3

; 782  : 
; 783  : 	m_dwFireMotionEndTime = dwCurTime;

  00242	89 9e 24 02 00
	00		 mov	 DWORD PTR [esi+548], ebx

; 784  : 	m_dwFireMotionEndTime += pGrp->GetAnimationEventTime_e( iCurSkillAniID, "firemotion_e" ) * fTimeRate;

  00248	c7 45 cc 8b 85
	99 8f		 mov	 DWORD PTR _szEncEventType$555787[ebp], -1885764213 ; 8f99858bH
  0024f	c7 45 d0 80 83
	9f 83		 mov	 DWORD PTR _szEncEventType$555787[ebp+4], -2086698112 ; 839f8380H
  00256	c7 45 d4 82 82
	b4 8f		 mov	 DWORD PTR _szEncEventType$555787[ebp+8], -1883995518 ; 8fb48282H
  0025d	8d 45 cc	 lea	 eax, DWORD PTR _szEncEventType$555787[ebp]
  00260	c6 45 d8 00	 mov	 BYTE PTR _szEncEventType$555787[ebp+12], 0
  00264	59		 pop	 ecx
$LL130@SetExtraAc:
  00265	81 30 ed ec eb
	ea		 xor	 DWORD PTR [eax], -353637139 ; eaebecedH
  0026b	83 c0 04	 add	 eax, 4
  0026e	49		 dec	 ecx
  0026f	75 f4		 jne	 SHORT $LL130@SetExtraAc
  00271	8d 45 cc	 lea	 eax, DWORD PTR _szEncEventType$555787[ebp]
  00274	50		 push	 eax
  00275	8d 4d e0	 lea	 ecx, DWORD PTR $T555774[ebp]
  00278	ff 15 00 00 00
	00		 call	 DWORD PTR __imp_??0ioHashString@@QAE@PBD@Z
  0027e	8b 8d a4 7f ff
	ff		 mov	 ecx, DWORD PTR _pGrp$[ebp]
  00284	83 65 fc 00	 and	 DWORD PTR __$EHRec$[ebp+8], 0
  00288	8d 45 e0	 lea	 eax, DWORD PTR $T555774[ebp]
  0028b	50		 push	 eax
  0028c	ff b5 ac 7f ff
	ff		 push	 DWORD PTR _iCurSkillAniID$[ebp]
  00292	ff 15 00 00 00
	00		 call	 DWORD PTR __imp_?GetAnimationEventTime@ioEntityGroup@@QAEMHABVioHashString@@@Z
  00298	d9 9d b0 7f ff
	ff		 fstp	 DWORD PTR $T555773[ebp]
  0029e	83 4d fc ff	 or	 DWORD PTR __$EHRec$[ebp+8], -1
  002a2	8d 4d e0	 lea	 ecx, DWORD PTR $T555774[ebp]
  002a5	ff 15 00 00 00
	00		 call	 DWORD PTR __imp_??1ioHashString@@QAE@XZ
  002ab	d9 85 b0 7f ff
	ff		 fld	 DWORD PTR $T555773[ebp]
  002b1	8b 86 24 02 00
	00		 mov	 eax, DWORD PTR [esi+548]
  002b7	d8 8d a8 7f ff
	ff		 fmul	 DWORD PTR _fTimeRate$[ebp]
  002bd	db 86 24 02 00
	00		 fild	 DWORD PTR [esi+548]
  002c3	85 c0		 test	 eax, eax
  002c5	79 06		 jns	 SHORT $LN256@SetExtraAc
  002c7	dc 05 00 00 00
	00		 fadd	 QWORD PTR __real@41f0000000000000
$LN256@SetExtraAc:
  002cd	de c1		 faddp	 ST(1), ST(0)
  002cf	e8 00 00 00 00	 call	 __ftol2
  002d4	6a 02		 push	 2
  002d6	89 86 24 02 00
	00		 mov	 DWORD PTR [esi+548], eax

; 785  : 
; 786  : 	// Key Reserve
; 787  : 	m_dwEnableReserveTime = dwCurTime;

  002dc	89 9e dc 02 00
	00		 mov	 DWORD PTR [esi+732], ebx

; 788  : 	m_dwEnableReserveTime += pGrp->GetAnimationEventTime_e( iCurSkillAniID, "key_reserve" );

  002e2	c7 45 e0 86 89
	92 b5		 mov	 DWORD PTR _szEncEventType$556000[ebp], -1248687738 ; b5928986H
  002e9	c7 45 e4 9f 89
	98 8f		 mov	 DWORD PTR _szEncEventType$556000[ebp+4], -1885828705 ; 8f98899fH
  002f0	8d 45 e0	 lea	 eax, DWORD PTR _szEncEventType$556000[ebp]
  002f3	c7 45 e8 9f 9a
	8e 00		 mov	 DWORD PTR _szEncEventType$556000[ebp+8], 9345695 ; 008e9a9fH
  002fa	59		 pop	 ecx
$LL237@SetExtraAc:
  002fb	81 30 ed ec eb
	ea		 xor	 DWORD PTR [eax], -353637139 ; eaebecedH
  00301	83 c0 04	 add	 eax, 4
  00304	49		 dec	 ecx
  00305	75 f4		 jne	 SHORT $LL237@SetExtraAc
  00307	6a 08		 push	 8
  00309	58		 pop	 eax
$LL234@SetExtraAc:
  0030a	8b c8		 mov	 ecx, eax
  0030c	81 e1 03 00 00
	80		 and	 ecx, -2147483645	; 80000003H
  00312	79 05		 jns	 SHORT $LN257@SetExtraAc
  00314	49		 dec	 ecx
  00315	83 c9 fc	 or	 ecx, -4			; fffffffcH
  00318	41		 inc	 ecx
$LN257@SetExtraAc:
  00319	b2 ed		 mov	 dl, -19			; ffffffedH
  0031b	2a d1		 sub	 dl, cl
  0031d	30 54 05 e0	 xor	 BYTE PTR _szEncEventType$556000[ebp+eax], dl
  00321	40		 inc	 eax
  00322	83 f8 0b	 cmp	 eax, 11			; 0000000bH
  00325	7c e3		 jl	 SHORT $LL234@SetExtraAc
  00327	8d 45 e0	 lea	 eax, DWORD PTR _szEncEventType$556000[ebp]
  0032a	50		 push	 eax
  0032b	8d 4d cc	 lea	 ecx, DWORD PTR $T555987[ebp]
  0032e	ff 15 00 00 00
	00		 call	 DWORD PTR __imp_??0ioHashString@@QAE@PBD@Z
  00334	8b 8d a4 7f ff
	ff		 mov	 ecx, DWORD PTR _pGrp$[ebp]
  0033a	8d 45 cc	 lea	 eax, DWORD PTR $T555987[ebp]
  0033d	50		 push	 eax
  0033e	ff b5 ac 7f ff
	ff		 push	 DWORD PTR _iCurSkillAniID$[ebp]
  00344	33 db		 xor	 ebx, ebx
  00346	43		 inc	 ebx
  00347	89 5d fc	 mov	 DWORD PTR __$EHRec$[ebp+8], ebx
  0034a	ff 15 00 00 00
	00		 call	 DWORD PTR __imp_?GetAnimationEventTime@ioEntityGroup@@QAEMHABVioHashString@@@Z
  00350	d9 9d b0 7f ff
	ff		 fstp	 DWORD PTR $T555986[ebp]
  00356	83 4d fc ff	 or	 DWORD PTR __$EHRec$[ebp+8], -1
  0035a	8d 4d cc	 lea	 ecx, DWORD PTR $T555987[ebp]
  0035d	ff 15 00 00 00
	00		 call	 DWORD PTR __imp_??1ioHashString@@QAE@XZ
  00363	db 86 dc 02 00
	00		 fild	 DWORD PTR [esi+732]
  00369	8b 86 dc 02 00
	00		 mov	 eax, DWORD PTR [esi+732]
  0036f	85 c0		 test	 eax, eax
  00371	79 06		 jns	 SHORT $LN258@SetExtraAc
  00373	d8 05 00 00 00
	00		 fadd	 DWORD PTR __real@4f800000
$LN258@SetExtraAc:
  00379	d8 85 b0 7f ff
	ff		 fadd	 DWORD PTR $T555986[ebp]
  0037f	e8 00 00 00 00	 call	 __ftol2

; 789  : 
; 790  : 	pChar->CheckCharColSkipSkillTime( iCurSkillAniID, fTimeRate, m_ExtraAttackAttribute.m_dwPreDelay );

  00384	ff b6 20 11 00
	00		 push	 DWORD PTR [esi+4384]
  0038a	f3 0f 10 85 a8
	7f ff ff	 movss	 xmm0, DWORD PTR _fTimeRate$[ebp]
  00392	8b bd a0 7f ff
	ff		 mov	 edi, DWORD PTR _pChar$GSCopy$[ebp]
  00398	51		 push	 ecx
  00399	f3 0f 11 04 24	 movss	 DWORD PTR [esp], xmm0
  0039e	ff b5 ac 7f ff
	ff		 push	 DWORD PTR _iCurSkillAniID$[ebp]
  003a4	8b cf		 mov	 ecx, edi
  003a6	89 86 dc 02 00
	00		 mov	 DWORD PTR [esi+732], eax
  003ac	e8 00 00 00 00	 call	 ?CheckCharColSkipSkillTime@ioBaseChar@@QAEXHMK@Z ; ioBaseChar::CheckCharColSkipSkillTime

; 791  : 	pChar->SetReservedSliding( m_ExtraAttackAttribute.m_vForceInfoList, iCurSkillAniID, fTimeRate, m_ExtraAttackAttribute.m_dwPreDelay );

  003b1	f3 0f 10 05 00
	00 00 00	 movss	 xmm0, DWORD PTR __real@3f800000
  003b9	53		 push	 ebx
  003ba	51		 push	 ecx
  003bb	f3 0f 11 04 24	 movss	 DWORD PTR [esp], xmm0
  003c0	ff b6 20 11 00
	00		 push	 DWORD PTR [esi+4384]
  003c6	f3 0f 10 85 a8
	7f ff ff	 movss	 xmm0, DWORD PTR _fTimeRate$[ebp]
  003ce	51		 push	 ecx
  003cf	f3 0f 11 04 24	 movss	 DWORD PTR [esp], xmm0
  003d4	ff b5 ac 7f ff
	ff		 push	 DWORD PTR _iCurSkillAniID$[ebp]
  003da	8d 86 10 11 00
	00		 lea	 eax, DWORD PTR [esi+4368]
  003e0	50		 push	 eax
  003e1	8b cf		 mov	 ecx, edi
  003e3	e8 00 00 00 00	 call	 ?SetReservedSliding@ioBaseChar@@QAEXABV?$vector@UForceInfo@@V?$allocator@UForceInfo@@@std@@@std@@HMKM_N@Z ; ioBaseChar::SetReservedSliding

; 792  : 
; 793  : 	if( pChar->IsNeedSendNetwork() )

  003e8	8b 07		 mov	 eax, DWORD PTR [edi]
  003ea	8b cf		 mov	 ecx, edi
  003ec	ff 90 04 01 00
	00		 call	 DWORD PTR [eax+260]
  003f2	84 c0		 test	 al, al
  003f4	74 64		 je	 SHORT $LN1@SetExtraAc

; 794  : 	{
; 795  : 		SP2Packet kPacket( CUPK_SKILL_EXTRA_INFO );

  003f6	68 39 41 00 00	 push	 16697			; 00004139H
  003fb	8d 8d b4 7f ff
	ff		 lea	 ecx, DWORD PTR _kPacket$548536[ebp]
  00401	e8 00 00 00 00	 call	 ??0SP2Packet@@QAE@K@Z	; SP2Packet::SP2Packet

; 796  : 		kPacket << pChar->GetCharName();

  00406	81 c7 d4 02 00
	00		 add	 edi, 724		; 000002d4H
  0040c	57		 push	 edi
  0040d	8d 8d b4 7f ff
	ff		 lea	 ecx, DWORD PTR _kPacket$548536[ebp]
  00413	c7 45 fc 02 00
	00 00		 mov	 DWORD PTR __$EHRec$[ebp+8], 2
  0041a	e8 00 00 00 00	 call	 ??6SP2Packet@@QAEAAV0@ABVioHashString@@@Z ; SP2Packet::operator<<

; 797  : 		kPacket << GetName();

  0041f	83 c6 24	 add	 esi, 36			; 00000024H
  00422	56		 push	 esi
  00423	8d 8d b4 7f ff
	ff		 lea	 ecx, DWORD PTR _kPacket$548536[ebp]
  00429	e8 00 00 00 00	 call	 ??6SP2Packet@@QAEAAV0@ABVioHashString@@@Z ; SP2Packet::operator<<

; 798  : 		kPacket << SS_EXTRA_ACTION;

  0042e	6a 05		 push	 5
  00430	8d 8d b4 7f ff
	ff		 lea	 ecx, DWORD PTR _kPacket$548536[ebp]
  00436	e8 00 00 00 00	 call	 ??6SP2Packet@@QAEAAV0@H@Z ; SP2Packet::operator<<

; 799  : 		P2PNetwork::SendToAllPlayingUser( kPacket );

  0043b	8d 85 b4 7f ff
	ff		 lea	 eax, DWORD PTR _kPacket$548536[ebp]
  00441	6a 00		 push	 0
  00443	50		 push	 eax
  00444	e8 00 00 00 00	 call	 ?SendToAllPlayingUser@P2PNetwork@@YAXAAVSP2Packet@@PAVioBaseChar@@@Z ; P2PNetwork::SendToAllPlayingUser

; 800  : 	}

  00449	83 4d fc ff	 or	 DWORD PTR __$EHRec$[ebp+8], -1
  0044d	59		 pop	 ecx
  0044e	59		 pop	 ecx
  0044f	8d 8d b4 7f ff
	ff		 lea	 ecx, DWORD PTR _kPacket$548536[ebp]
  00455	e8 00 00 00 00	 call	 ??1SP2Packet@@UAE@XZ	; SP2Packet::~SP2Packet
$LN1@SetExtraAc:

; 801  : }

  0045a	8b 4d f4	 mov	 ecx, DWORD PTR __$EHRec$[ebp]
  0045d	64 89 0d 00 00
	00 00		 mov	 DWORD PTR fs:0, ecx
  00464	59		 pop	 ecx
  00465	5f		 pop	 edi
  00466	5e		 pop	 esi
  00467	5b		 pop	 ebx
  00468	8b 4d f0	 mov	 ecx, DWORD PTR __$ArrayPad$[ebp]
  0046b	33 cd		 xor	 ecx, ebp
  0046d	e8 00 00 00 00	 call	 @__security_check_cookie@4
  00472	c9		 leave
  00473	c2 04 00	 ret	 4
_TEXT	ENDS
;	COMDAT text$x
text$x	SEGMENT
__unwindfunclet$?SetExtraActionState@ioCircleMoveAttackSkill3@@IAEXPAVioBaseChar@@@Z$1:
  00000	8d 4d e0	 lea	 ecx, DWORD PTR $T555774[ebp]
  00003	ff 25 00 00 00
	00		 jmp	 DWORD PTR __imp_??1ioHashString@@QAE@XZ
__unwindfunclet$?SetExtraActionState@ioCircleMoveAttackSkill3@@IAEXPAVioBaseChar@@@Z$2:
  00009	8d 4d cc	 lea	 ecx, DWORD PTR $T555987[ebp]
  0000c	ff 25 00 00 00
	00		 jmp	 DWORD PTR __imp_??1ioHashString@@QAE@XZ
__unwindfunclet$?SetExtraActionState@ioCircleMoveAttackSkill3@@IAEXPAVioBaseChar@@@Z$0:
  00012	8d 8d b4 7f ff
	ff		 lea	 ecx, DWORD PTR _kPacket$548536[ebp]
  00018	e9 00 00 00 00	 jmp	 ??1SP2Packet@@UAE@XZ	; SP2Packet::~SP2Packet
__ehhandler$?SetExtraActionState@ioCircleMoveAttackSkill3@@IAEXPAVioBaseChar@@@Z:
  0001d	8b 54 24 08	 mov	 edx, DWORD PTR [esp+8]
  00021	8d 42 0c	 lea	 eax, DWORD PTR [edx+12]
  00024	8b 8a 9c 7f ff
	ff		 mov	 ecx, DWORD PTR [edx-32868]
  0002a	33 c8		 xor	 ecx, eax
  0002c	e8 00 00 00 00	 call	 @__security_check_cookie@4
  00031	8b 4a fc	 mov	 ecx, DWORD PTR [edx-4]
  00034	33 c8		 xor	 ecx, eax
  00036	e8 00 00 00 00	 call	 @__security_check_cookie@4
  0003b	b8 00 00 00 00	 mov	 eax, OFFSET __ehfuncinfo$?SetExtraActionState@ioCircleMoveAttackSkill3@@IAEXPAVioBaseChar@@@Z
  00040	e9 00 00 00 00	 jmp	 ___CxxFrameHandler3
text$x	ENDS
?SetExtraActionState@ioCircleMoveAttackSkill3@@IAEXPAVioBaseChar@@@Z ENDP ; ioCircleMoveAttackSkill3::SetExtraActionState
PUBLIC	?IsNoDropState@ioCircleMoveAttackSkill3@@UBE_NXZ ; ioCircleMoveAttackSkill3::IsNoDropState
; Function compile flags: /Ogsp
;	COMDAT ?IsNoDropState@ioCircleMoveAttackSkill3@@UBE_NXZ
_TEXT	SEGMENT
_value$556048 = -4					; size = 4
?IsNoDropState@ioCircleMoveAttackSkill3@@UBE_NXZ PROC	; ioCircleMoveAttackSkill3::IsNoDropState, COMDAT
; _this$ = ecx

; 804  : {

  00000	55		 push	 ebp
  00001	8b ec		 mov	 ebp, esp
  00003	51		 push	 ecx

; 805  : 	if( m_State == SS_WAIT )

  00004	8d 45 fc	 lea	 eax, DWORD PTR _value$556048[ebp]
  00007	50		 push	 eax
  00008	81 c1 58 0f 00
	00		 add	 ecx, 3928		; 00000f58H
  0000e	e8 00 00 00 00	 call	 ?DecryptValueToPool@?$CEncrypt@H@@QAEXPAH@Z ; CEncrypt<int>::DecryptValueToPool
  00013	83 7d fc 02	 cmp	 DWORD PTR _value$556048[ebp], 2
  00017	0f 94 c0	 sete	 al

; 806  : 		return true;
; 807  : 
; 808  : 	return false;
; 809  : }

  0001a	c9		 leave
  0001b	c3		 ret	 0
?IsNoDropState@ioCircleMoveAttackSkill3@@UBE_NXZ ENDP	; ioCircleMoveAttackSkill3::IsNoDropState
_TEXT	ENDS
PUBLIC	?GetSkillGravityRate@ioCircleMoveAttackSkill3@@UAEMXZ ; ioCircleMoveAttackSkill3::GetSkillGravityRate
; Function compile flags: /Ogsp
;	COMDAT ?GetSkillGravityRate@ioCircleMoveAttackSkill3@@UAEMXZ
_TEXT	SEGMENT
tv250 = -4						; size = 4
_value$556102 = -4					; size = 4
_value$556090 = -4					; size = 4
_value$556074 = -4					; size = 4
_value$556094 = -4					; size = 4
_value$556066 = -4					; size = 4
_value$556058 = -4					; size = 4
_value$556078 = -4					; size = 4
?GetSkillGravityRate@ioCircleMoveAttackSkill3@@UAEMXZ PROC ; ioCircleMoveAttackSkill3::GetSkillGravityRate, COMDAT
; _this$ = ecx

; 812  : {

  00000	55		 push	 ebp
  00001	8b ec		 mov	 ebp, esp
  00003	51		 push	 ecx
  00004	56		 push	 esi
  00005	57		 push	 edi
  00006	8b f1		 mov	 esi, ecx

; 813  : 	if( m_State != SS_ACTION_LOOP )

  00008	8d 45 fc	 lea	 eax, DWORD PTR _value$556058[ebp]
  0000b	50		 push	 eax
  0000c	8d 8e 58 0f 00
	00		 lea	 ecx, DWORD PTR [esi+3928]
  00012	e8 00 00 00 00	 call	 ?DecryptValueToPool@?$CEncrypt@H@@QAEXPAH@Z ; CEncrypt<int>::DecryptValueToPool
  00017	83 7d fc 03	 cmp	 DWORD PTR _value$556058[ebp], 3
  0001b	74 17		 je	 SHORT $LN8@GetSkillGr

; 814  : 		return FLOAT1;

  0001d	b8 01 00 00 00	 mov	 eax, 1
  00022	89 45 fc	 mov	 DWORD PTR tv250[ebp], eax
  00025	db 45 fc	 fild	 DWORD PTR tv250[ebp]
  00028	85 c0		 test	 eax, eax
  0002a	79 7a		 jns	 SHORT $LN9@GetSkillGr
  0002c	d8 05 00 00 00
	00		 fadd	 DWORD PTR __real@4f800000
  00032	eb 72		 jmp	 SHORT $LN9@GetSkillGr
$LN8@GetSkillGr:

; 815  : 
; 816  : 	switch( m_SkillUseType )

  00034	8b 46 74	 mov	 eax, DWORD PTR [esi+116]
  00037	83 e8 00	 sub	 eax, 0
  0003a	74 58		 je	 SHORT $LN5@GetSkillGr
  0003c	48		 dec	 eax
  0003d	74 2c		 je	 SHORT $LN2@GetSkillGr
  0003f	48		 dec	 eax

; 827  : 		return m_fSkillGravityRate;
; 828  : 	}
; 829  : 
; 830  : 	return m_fSkillGravityRate;

  00040	8d 45 fc	 lea	 eax, DWORD PTR _value$556102[ebp]
  00043	50		 push	 eax
  00044	75 52		 jne	 SHORT $LN38@GetSkillGr

; 820  : 	case SUT_DOWN:
; 821  : 		if( m_fSkillGravityDownRate > 0.0f )

  00046	8d 8e b8 06 00
	00		 lea	 ecx, DWORD PTR [esi+1720]
  0004c	e8 00 00 00 00	 call	 ?DecryptValueToPool@?$CEncrypt@M@@QAEXPAM@Z ; CEncrypt<float>::DecryptValueToPool
  00051	f3 0f 10 45 fc	 movss	 xmm0, DWORD PTR _value$556074[ebp]
  00056	0f 2f 05 00 00
	00 00		 comiss	 xmm0, DWORD PTR __real@00000000

; 822  : 			return m_fSkillGravityDownRate;

  0005d	8d 45 fc	 lea	 eax, DWORD PTR _value$556078[ebp]
  00060	50		 push	 eax
  00061	76 35		 jbe	 SHORT $LN38@GetSkillGr
  00063	8d 8e b8 06 00
	00		 lea	 ecx, DWORD PTR [esi+1720]
  00069	eb 33		 jmp	 SHORT $LN39@GetSkillGr
$LN2@GetSkillGr:

; 823  : 		return m_fSkillGravityRate;
; 824  : 	case SUT_JUMP:
; 825  : 		if( m_fSkillGravityJumpRate > 0.0f )

  0006b	8d 45 fc	 lea	 eax, DWORD PTR _value$556090[ebp]
  0006e	50		 push	 eax
  0006f	8d 8e e8 06 00
	00		 lea	 ecx, DWORD PTR [esi+1768]
  00075	e8 00 00 00 00	 call	 ?DecryptValueToPool@?$CEncrypt@M@@QAEXPAM@Z ; CEncrypt<float>::DecryptValueToPool
  0007a	f3 0f 10 45 fc	 movss	 xmm0, DWORD PTR _value$556090[ebp]
  0007f	0f 2f 05 00 00
	00 00		 comiss	 xmm0, DWORD PTR __real@00000000

; 826  : 			return m_fSkillGravityJumpRate;

  00086	8d 45 fc	 lea	 eax, DWORD PTR _value$556094[ebp]
  00089	50		 push	 eax
  0008a	76 0c		 jbe	 SHORT $LN38@GetSkillGr
  0008c	8d 8e e8 06 00
	00		 lea	 ecx, DWORD PTR [esi+1768]
  00092	eb 0a		 jmp	 SHORT $LN39@GetSkillGr
$LN5@GetSkillGr:

; 817  : 	{
; 818  : 	case SUT_NORMAL:
; 819  : 		return m_fSkillGravityRate;

  00094	8d 45 fc	 lea	 eax, DWORD PTR _value$556066[ebp]
  00097	50		 push	 eax
$LN38@GetSkillGr:
  00098	8d 8e 88 06 00
	00		 lea	 ecx, DWORD PTR [esi+1672]
$LN39@GetSkillGr:
  0009e	e8 00 00 00 00	 call	 ?DecryptValueToPool@?$CEncrypt@M@@QAEXPAM@Z ; CEncrypt<float>::DecryptValueToPool
  000a3	d9 45 fc	 fld	 DWORD PTR _value$556066[ebp]
$LN9@GetSkillGr:
  000a6	5f		 pop	 edi
  000a7	5e		 pop	 esi

; 831  : }

  000a8	c9		 leave
  000a9	c3		 ret	 0
?GetSkillGravityRate@ioCircleMoveAttackSkill3@@UAEMXZ ENDP ; ioCircleMoveAttackSkill3::GetSkillGravityRate
_TEXT	ENDS
PUBLIC	?IsEnableReserve@ioCircleMoveAttackSkill3@@UBE_NXZ ; ioCircleMoveAttackSkill3::IsEnableReserve
; Function compile flags: /Ogsp
;	COMDAT ?IsEnableReserve@ioCircleMoveAttackSkill3@@UBE_NXZ
_TEXT	SEGMENT
_value$556118 = -4					; size = 4
_value$556113 = -4					; size = 4
?IsEnableReserve@ioCircleMoveAttackSkill3@@UBE_NXZ PROC	; ioCircleMoveAttackSkill3::IsEnableReserve, COMDAT
; _this$ = ecx

; 834  : {

  00000	55		 push	 ebp
  00001	8b ec		 mov	 ebp, esp
  00003	51		 push	 ecx
  00004	53		 push	 ebx
  00005	56		 push	 esi
  00006	8b f1		 mov	 esi, ecx

; 835  : 	DWORD dwCurTime = FRAMEGETTIME();

  00008	ff 15 00 00 00
	00		 call	 DWORD PTR __imp_?GetSingleton@ioFrameTimer@@SAAAV1@XZ
  0000e	8b c8		 mov	 ecx, eax
  00010	ff 15 00 00 00
	00		 call	 DWORD PTR __imp_?GetLoopSec@ioFrameTimer@@QBEKXZ
  00016	8b d8		 mov	 ebx, eax

; 836  : 
; 837  : 	switch( m_State )

  00018	8d 45 fc	 lea	 eax, DWORD PTR _value$556113[ebp]
  0001b	50		 push	 eax
  0001c	8d 8e 58 0f 00
	00		 lea	 ecx, DWORD PTR [esi+3928]
  00022	e8 00 00 00 00	 call	 ?DecryptValueToPool@?$CEncrypt@H@@QAEXPAH@Z ; CEncrypt<int>::DecryptValueToPool
  00027	83 7d fc 00	 cmp	 DWORD PTR _value$556113[ebp], 0
  0002b	7c 0a		 jl	 SHORT $LN5@IsEnableRe
  0002d	83 7d fc 03	 cmp	 DWORD PTR _value$556113[ebp], 3
  00031	7f 04		 jg	 SHORT $LN5@IsEnableRe

; 838  : 	{
; 839  : 	case SS_NONE:
; 840  : 	case SS_PRE_ACTION:
; 841  : 	case SS_WAIT:
; 842  : 	case SS_ACTION_LOOP:
; 843  : 		return false;

  00033	32 c0		 xor	 al, al
  00035	eb 2e		 jmp	 SHORT $LN7@IsEnableRe
$LN5@IsEnableRe:

; 844  : 	}
; 845  : 
; 846  : 	if( m_dwEnableReserveTime == 0 || m_dwMotionStartTime >= m_dwEnableReserveTime )

  00037	83 be dc 02 00
	00 00		 cmp	 DWORD PTR [esi+732], 0
  0003e	57		 push	 edi
  0003f	74 21		 je	 SHORT $LN2@IsEnableRe
  00041	8d 45 fc	 lea	 eax, DWORD PTR _value$556118[ebp]
  00044	50		 push	 eax
  00045	8d 8e a8 02 00
	00		 lea	 ecx, DWORD PTR [esi+680]
  0004b	e8 00 00 00 00	 call	 ?DecryptValueToPool@?$CEncrypt@K@@QAEXPAK@Z ; CEncrypt<unsigned long>::DecryptValueToPool
  00050	8b be dc 02 00
	00		 mov	 edi, DWORD PTR [esi+732]
  00056	39 7d fc	 cmp	 DWORD PTR _value$556118[ebp], edi
  00059	73 07		 jae	 SHORT $LN2@IsEnableRe

; 848  : 
; 849  : 	if( m_dwEnableReserveTime < dwCurTime )

  0005b	3b fb		 cmp	 edi, ebx
  0005d	0f 92 c0	 setb	 al

; 850  : 		return true;
; 851  : 
; 852  : 	return false;

  00060	eb 02		 jmp	 SHORT $LN13@IsEnableRe
$LN2@IsEnableRe:

; 847  : 		return false;

  00062	32 c0		 xor	 al, al
$LN13@IsEnableRe:
  00064	5f		 pop	 edi
$LN7@IsEnableRe:
  00065	5e		 pop	 esi
  00066	5b		 pop	 ebx

; 853  : }

  00067	c9		 leave
  00068	c3		 ret	 0
?IsEnableReserve@ioCircleMoveAttackSkill3@@UBE_NXZ ENDP	; ioCircleMoveAttackSkill3::IsEnableReserve
_TEXT	ENDS
PUBLIC	??0?$CEncrypt@K@@QAE@ABV0@@Z			; CEncrypt<unsigned long>::CEncrypt<unsigned long>
;	COMDAT xdata$x
; File d:\lost saga for developer\youtube\tutorial\source\src\lsclient\encryptvalue.h
xdata$x	SEGMENT
__unwindtable$??0?$CEncrypt@K@@QAE@ABV0@@Z DD 0ffffffffH
	DD	FLAT:__unwindfunclet$??0?$CEncrypt@K@@QAE@ABV0@@Z$0
__ehfuncinfo$??0?$CEncrypt@K@@QAE@ABV0@@Z DD 019930522H
	DD	01H
	DD	FLAT:__unwindtable$??0?$CEncrypt@K@@QAE@ABV0@@Z
	DD	2 DUP(00H)
	DD	2 DUP(00H)
	DD	00H
	DD	01H
; Function compile flags: /Ogsp
xdata$x	ENDS
;	COMDAT ??0?$CEncrypt@K@@QAE@ABV0@@Z
_TEXT	SEGMENT
_this$ = -16						; size = 4
__$EHRec$ = -12						; size = 12
_value$556132 = 8					; size = 4
_value$556127 = 8					; size = 4
_inValue$ = 8						; size = 4
??0?$CEncrypt@K@@QAE@ABV0@@Z PROC			; CEncrypt<unsigned long>::CEncrypt<unsigned long>, COMDAT
; _this$ = ecx

; 120  : 	CEncrypt( const CEncrypt<type> &inValue )   //     

  00000	6a 04		 push	 4
  00002	b8 00 00 00 00	 mov	 eax, __ehhandler$??0?$CEncrypt@K@@QAE@ABV0@@Z
  00007	e8 00 00 00 00	 call	 __EH_prolog3
  0000c	8b f1		 mov	 esi, ecx
  0000e	89 75 f0	 mov	 DWORD PTR _this$[ebp], esi
  00011	8d 4e 0c	 lea	 ecx, DWORD PTR [esi+12]
  00014	c7 06 00 00 00
	00		 mov	 DWORD PTR [esi], OFFSET ??_7?$CEncrypt@K@@6B@
  0001a	e8 00 00 00 00	 call	 ??0ccddaabb@@QAE@XZ	; ccddaabb::ccddaabb
  0001f	83 65 fc 00	 and	 DWORD PTR __$EHRec$[ebp+8], 0

; 121  : 	{
; 122  : 		Init();

  00023	8b ce		 mov	 ecx, esi
  00025	e8 00 00 00 00	 call	 ?Init@?$CEncrypt@K@@AAEXXZ ; CEncrypt<unsigned long>::Init

; 123  : 		*this = inValue;

  0002a	8b 4d 08	 mov	 ecx, DWORD PTR _inValue$[ebp]
  0002d	8d 45 08	 lea	 eax, DWORD PTR _value$556127[ebp]
  00030	50		 push	 eax
  00031	e8 00 00 00 00	 call	 ?DecryptValueToPool@?$CEncrypt@K@@QAEXPAK@Z ; CEncrypt<unsigned long>::DecryptValueToPool
  00036	8b 45 08	 mov	 eax, DWORD PTR _value$556127[ebp]
  00039	89 45 08	 mov	 DWORD PTR _value$556132[ebp], eax
  0003c	8d 45 08	 lea	 eax, DWORD PTR _value$556132[ebp]
  0003f	50		 push	 eax
  00040	8b ce		 mov	 ecx, esi
  00042	e8 00 00 00 00	 call	 ?EncryptValueToPool@?$CEncrypt@K@@AAEXPBD@Z ; CEncrypt<unsigned long>::EncryptValueToPool

; 124  : 	}

  00047	8b c6		 mov	 eax, esi
  00049	e8 00 00 00 00	 call	 __EH_epilog3
  0004e	c2 04 00	 ret	 4
_TEXT	ENDS
;	COMDAT text$x
text$x	SEGMENT
__unwindfunclet$??0?$CEncrypt@K@@QAE@ABV0@@Z$0:
  00000	8b 4d f0	 mov	 ecx, DWORD PTR _this$[ebp]
  00003	83 c1 0c	 add	 ecx, 12			; 0000000cH
  00006	e9 00 00 00 00	 jmp	 ??1ccddaabb@@UAE@XZ	; ccddaabb::~ccddaabb
__ehhandler$??0?$CEncrypt@K@@QAE@ABV0@@Z:
  0000b	8b 54 24 08	 mov	 edx, DWORD PTR [esp+8]
  0000f	8d 42 0c	 lea	 eax, DWORD PTR [edx+12]
  00012	8b 4a ec	 mov	 ecx, DWORD PTR [edx-20]
  00015	33 c8		 xor	 ecx, eax
  00017	e8 00 00 00 00	 call	 @__security_check_cookie@4
  0001c	b8 00 00 00 00	 mov	 eax, OFFSET __ehfuncinfo$??0?$CEncrypt@K@@QAE@ABV0@@Z
  00021	e9 00 00 00 00	 jmp	 ___CxxFrameHandler3
text$x	ENDS
??0?$CEncrypt@K@@QAE@ABV0@@Z ENDP			; CEncrypt<unsigned long>::CEncrypt<unsigned long>
PUBLIC	??$_Cons_val@V?$allocator@UForceInfo@@@std@@UForceInfo@@ABU3@@std@@YAXAAV?$allocator@UForceInfo@@@0@PAUForceInfo@@ABU2@@Z ; std::_Cons_val<std::allocator<ForceInfo>,ForceInfo,ForceInfo const &>
; Function compile flags: /Ogsp
; File c:\program files (x86)\microsoft visual studio 10.0\vc\include\xmemory
;	COMDAT ??$_Cons_val@V?$allocator@UForceInfo@@@std@@UForceInfo@@ABU3@@std@@YAXAAV?$allocator@UForceInfo@@@0@PAUForceInfo@@ABU2@@Z
_TEXT	SEGMENT
__Alval$ = 8						; size = 4
__Pdest$ = 12						; size = 4
__Src$ = 16						; size = 4
??$_Cons_val@V?$allocator@UForceInfo@@@std@@UForceInfo@@ABU3@@std@@YAXAAV?$allocator@UForceInfo@@@0@PAUForceInfo@@ABU2@@Z PROC ; std::_Cons_val<std::allocator<ForceInfo>,ForceInfo,ForceInfo const &>, COMDAT

; 279  : 	{	// construct using allocator

  00000	55		 push	 ebp
  00001	8b ec		 mov	 ebp, esp
  00003	57		 push	 edi

; 280  : 	_Alval.construct(_Pdest, _STD forward<_Ty2>(_Src));

  00004	8b 7d 0c	 mov	 edi, DWORD PTR __Pdest$[ebp]
  00007	85 ff		 test	 edi, edi
  00009	74 08		 je	 SHORT $LN9@Cons_val
  0000b	56		 push	 esi
  0000c	8b 75 10	 mov	 esi, DWORD PTR __Src$[ebp]
  0000f	a5		 movsd
  00010	a5		 movsd
  00011	a5		 movsd
  00012	5e		 pop	 esi
$LN9@Cons_val:
  00013	5f		 pop	 edi

; 281  : 	}

  00014	5d		 pop	 ebp
  00015	c3		 ret	 0
??$_Cons_val@V?$allocator@UForceInfo@@@std@@UForceInfo@@ABU3@@std@@YAXAAV?$allocator@UForceInfo@@@0@PAUForceInfo@@ABU2@@Z ENDP ; std::_Cons_val<std::allocator<ForceInfo>,ForceInfo,ForceInfo const &>
_TEXT	ENDS
PUBLIC	?construct@?$allocator@UWeaponInfo@@@std@@QAEXPAUWeaponInfo@@ABU3@@Z ; std::allocator<WeaponInfo>::construct
; Function compile flags: /Ogsp
;	COMDAT ?construct@?$allocator@UWeaponInfo@@@std@@QAEXPAUWeaponInfo@@ABU3@@Z
_TEXT	SEGMENT
__Ptr$ = 8						; size = 4
__Val$ = 12						; size = 4
?construct@?$allocator@UWeaponInfo@@@std@@QAEXPAUWeaponInfo@@ABU3@@Z PROC ; std::allocator<WeaponInfo>::construct, COMDAT
; _this$ = ecx

; 196  : 		{	// construct object at _Ptr with value _Val

  00000	55		 push	 ebp
  00001	8b ec		 mov	 ebp, esp

; 197  : 		_Construct(_Ptr, _Val);

  00003	ff 75 0c	 push	 DWORD PTR __Val$[ebp]
  00006	ff 75 08	 push	 DWORD PTR __Ptr$[ebp]
  00009	e8 00 00 00 00	 call	 ??$_Construct@UWeaponInfo@@ABU1@@std@@YAXPAUWeaponInfo@@ABU1@@Z ; std::_Construct<WeaponInfo,WeaponInfo const &>
  0000e	59		 pop	 ecx
  0000f	59		 pop	 ecx

; 198  : 		}

  00010	5d		 pop	 ebp
  00011	c2 08 00	 ret	 8
?construct@?$allocator@UWeaponInfo@@@std@@QAEXPAUWeaponInfo@@ABU3@@Z ENDP ; std::allocator<WeaponInfo>::construct
_TEXT	ENDS
PUBLIC	?GetTeam@ioPlayEntity@@QBE?AW4TeamType@@XZ	; ioPlayEntity::GetTeam
; Function compile flags: /Ogsp
; File d:\lost saga for developer\youtube\tutorial\source\src\lsclient\ioplayentity.h
;	COMDAT ?GetTeam@ioPlayEntity@@QBE?AW4TeamType@@XZ
_TEXT	SEGMENT
_value$556188 = -4					; size = 4
?GetTeam@ioPlayEntity@@QBE?AW4TeamType@@XZ PROC		; ioPlayEntity::GetTeam, COMDAT
; _this$ = ecx

; 107  : 	inline TeamType GetTeam() const { return m_TeamType; }

  00000	55		 push	 ebp
  00001	8b ec		 mov	 ebp, esp
  00003	51		 push	 ecx
  00004	8d 45 fc	 lea	 eax, DWORD PTR _value$556188[ebp]
  00007	50		 push	 eax
  00008	81 c1 90 00 00
	00		 add	 ecx, 144		; 00000090H
  0000e	e8 00 00 00 00	 call	 ?DecryptValueToPool@?$CEncrypt@W4TeamType@@@@QAEXPAW4TeamType@@@Z ; CEncrypt<enum TeamType>::DecryptValueToPool
  00013	8b 45 fc	 mov	 eax, DWORD PTR _value$556188[ebp]
  00016	c9		 leave
  00017	c3		 ret	 0
?GetTeam@ioPlayEntity@@QBE?AW4TeamType@@XZ ENDP		; ioPlayEntity::GetTeam
_TEXT	ENDS
PUBLIC	??0?$vector@UWeaponInfo@@V?$allocator@UWeaponInfo@@@std@@@std@@QAE@XZ ; std::vector<WeaponInfo,std::allocator<WeaponInfo> >::vector<WeaponInfo,std::allocator<WeaponInfo> >
; Function compile flags: /Ogsp
; File c:\program files (x86)\microsoft visual studio 10.0\vc\include\vector
;	COMDAT ??0?$vector@UWeaponInfo@@V?$allocator@UWeaponInfo@@@std@@@std@@QAE@XZ
_TEXT	SEGMENT
??0?$vector@UWeaponInfo@@V?$allocator@UWeaponInfo@@@std@@@std@@QAE@XZ PROC ; std::vector<WeaponInfo,std::allocator<WeaponInfo> >::vector<WeaponInfo,std::allocator<WeaponInfo> >, COMDAT
; _this$ = ecx

; 507  : 		{	// construct empty vector

  00000	8b c1		 mov	 eax, ecx
  00002	33 c9		 xor	 ecx, ecx
  00004	89 08		 mov	 DWORD PTR [eax], ecx
  00006	89 48 04	 mov	 DWORD PTR [eax+4], ecx
  00009	89 48 08	 mov	 DWORD PTR [eax+8], ecx

; 508  : 		}

  0000c	c3		 ret	 0
??0?$vector@UWeaponInfo@@V?$allocator@UWeaponInfo@@@std@@@std@@QAE@XZ ENDP ; std::vector<WeaponInfo,std::allocator<WeaponInfo> >::vector<WeaponInfo,std::allocator<WeaponInfo> >
_TEXT	ENDS
PUBLIC	??0?$vector@UForceInfo@@V?$allocator@UForceInfo@@@std@@@std@@QAE@XZ ; std::vector<ForceInfo,std::allocator<ForceInfo> >::vector<ForceInfo,std::allocator<ForceInfo> >
; Function compile flags: /Ogsp
;	COMDAT ??0?$vector@UForceInfo@@V?$allocator@UForceInfo@@@std@@@std@@QAE@XZ
_TEXT	SEGMENT
??0?$vector@UForceInfo@@V?$allocator@UForceInfo@@@std@@@std@@QAE@XZ PROC ; std::vector<ForceInfo,std::allocator<ForceInfo> >::vector<ForceInfo,std::allocator<ForceInfo> >, COMDAT
; _this$ = ecx

; 507  : 		{	// construct empty vector

  00000	8b c1		 mov	 eax, ecx
  00002	33 c9		 xor	 ecx, ecx
  00004	89 08		 mov	 DWORD PTR [eax], ecx
  00006	89 48 04	 mov	 DWORD PTR [eax+4], ecx
  00009	89 48 08	 mov	 DWORD PTR [eax+8], ecx

; 508  : 		}

  0000c	c3		 ret	 0
??0?$vector@UForceInfo@@V?$allocator@UForceInfo@@@std@@@std@@QAE@XZ ENDP ; std::vector<ForceInfo,std::allocator<ForceInfo> >::vector<ForceInfo,std::allocator<ForceInfo> >
_TEXT	ENDS
PUBLIC	?_Buy@?$vector@UWeaponInfo@@V?$allocator@UWeaponInfo@@@std@@@std@@IAE_NI@Z ; std::vector<WeaponInfo,std::allocator<WeaponInfo> >::_Buy
; Function compile flags: /Ogsp
;	COMDAT ?_Buy@?$vector@UWeaponInfo@@V?$allocator@UWeaponInfo@@@std@@@std@@IAE_NI@Z
_TEXT	SEGMENT
__Capacity$ = 8						; size = 4
?_Buy@?$vector@UWeaponInfo@@V?$allocator@UWeaponInfo@@@std@@@std@@IAE_NI@Z PROC ; std::vector<WeaponInfo,std::allocator<WeaponInfo> >::_Buy, COMDAT
; _this$ = ecx

; 1250 : 		{	// allocate array with _Capacity elements

  00000	55		 push	 ebp
  00001	8b ec		 mov	 ebp, esp
  00003	56		 push	 esi

; 1251 : 		this->_Myfirst = 0;

  00004	33 c0		 xor	 eax, eax
  00006	57		 push	 edi

; 1252 : 		this->_Mylast = 0;
; 1253 : 		this->_Myend = 0;
; 1254 : 
; 1255 : 		if (_Capacity == 0)

  00007	8b 7d 08	 mov	 edi, DWORD PTR __Capacity$[ebp]
  0000a	8b f1		 mov	 esi, ecx
  0000c	89 06		 mov	 DWORD PTR [esi], eax
  0000e	89 46 04	 mov	 DWORD PTR [esi+4], eax
  00011	89 46 08	 mov	 DWORD PTR [esi+8], eax
  00014	3b f8		 cmp	 edi, eax
  00016	75 04		 jne	 SHORT $LN4@Buy

; 1256 : 			return (false);

  00018	32 c0		 xor	 al, al
  0001a	eb 2b		 jmp	 SHORT $LN5@Buy
$LN4@Buy:

; 1257 : 		else if (max_size() < _Capacity)

  0001c	81 ff 66 66 66
	06		 cmp	 edi, 107374182		; 06666666H
  00022	76 0b		 jbe	 SHORT $LN2@Buy

; 1258 : 			_Xlen();	// result too long

  00024	68 00 00 00 00	 push	 OFFSET ??_C@_0BD@OLBABOEK@vector?$DMT?$DO?5too?5long?$AA@
  00029	ff 15 00 00 00
	00		 call	 DWORD PTR __imp_?_Xlength_error@std@@YAXPBD@Z
$LN19@Buy:
$LN2@Buy:

; 1259 : 		else
; 1260 : 			{	// nonempty array, allocate storage
; 1261 : 			this->_Myfirst = this->_Alval.allocate(_Capacity);

  0002f	50		 push	 eax
  00030	57		 push	 edi
  00031	e8 00 00 00 00	 call	 ??$_Allocate@UWeaponInfo@@@std@@YAPAUWeaponInfo@@IPAU1@@Z ; std::_Allocate<WeaponInfo>

; 1262 : 			this->_Mylast = this->_Myfirst;
; 1263 : 			this->_Myend = this->_Myfirst + _Capacity;

  00036	6b ff 28	 imul	 edi, 40			; 00000028H
  00039	03 f8		 add	 edi, eax
  0003b	59		 pop	 ecx
  0003c	89 06		 mov	 DWORD PTR [esi], eax
  0003e	89 46 04	 mov	 DWORD PTR [esi+4], eax
  00041	59		 pop	 ecx
  00042	89 7e 08	 mov	 DWORD PTR [esi+8], edi

; 1264 : 			}
; 1265 : 		return (true);

  00045	b0 01		 mov	 al, 1
$LN5@Buy:
  00047	5f		 pop	 edi
  00048	5e		 pop	 esi

; 1266 : 		}

  00049	5d		 pop	 ebp
  0004a	c2 04 00	 ret	 4
$LN18@Buy:
?_Buy@?$vector@UWeaponInfo@@V?$allocator@UWeaponInfo@@@std@@@std@@IAE_NI@Z ENDP ; std::vector<WeaponInfo,std::allocator<WeaponInfo> >::_Buy
_TEXT	ENDS
PUBLIC	?_Buy@?$vector@UForceInfo@@V?$allocator@UForceInfo@@@std@@@std@@IAE_NI@Z ; std::vector<ForceInfo,std::allocator<ForceInfo> >::_Buy
; Function compile flags: /Ogsp
;	COMDAT ?_Buy@?$vector@UForceInfo@@V?$allocator@UForceInfo@@@std@@@std@@IAE_NI@Z
_TEXT	SEGMENT
__Capacity$ = 8						; size = 4
?_Buy@?$vector@UForceInfo@@V?$allocator@UForceInfo@@@std@@@std@@IAE_NI@Z PROC ; std::vector<ForceInfo,std::allocator<ForceInfo> >::_Buy, COMDAT
; _this$ = ecx

; 1250 : 		{	// allocate array with _Capacity elements

  00000	55		 push	 ebp
  00001	8b ec		 mov	 ebp, esp
  00003	56		 push	 esi

; 1251 : 		this->_Myfirst = 0;

  00004	33 c0		 xor	 eax, eax
  00006	57		 push	 edi

; 1252 : 		this->_Mylast = 0;
; 1253 : 		this->_Myend = 0;
; 1254 : 
; 1255 : 		if (_Capacity == 0)

  00007	8b 7d 08	 mov	 edi, DWORD PTR __Capacity$[ebp]
  0000a	8b f1		 mov	 esi, ecx
  0000c	89 06		 mov	 DWORD PTR [esi], eax
  0000e	89 46 04	 mov	 DWORD PTR [esi+4], eax
  00011	89 46 08	 mov	 DWORD PTR [esi+8], eax
  00014	3b f8		 cmp	 edi, eax
  00016	75 04		 jne	 SHORT $LN4@Buy@2

; 1256 : 			return (false);

  00018	32 c0		 xor	 al, al
  0001a	eb 2b		 jmp	 SHORT $LN5@Buy@2
$LN4@Buy@2:

; 1257 : 		else if (max_size() < _Capacity)

  0001c	81 ff 55 55 55
	15		 cmp	 edi, 357913941		; 15555555H
  00022	76 0b		 jbe	 SHORT $LN2@Buy@2

; 1258 : 			_Xlen();	// result too long

  00024	68 00 00 00 00	 push	 OFFSET ??_C@_0BD@OLBABOEK@vector?$DMT?$DO?5too?5long?$AA@
  00029	ff 15 00 00 00
	00		 call	 DWORD PTR __imp_?_Xlength_error@std@@YAXPBD@Z
$LN19@Buy@2:
$LN2@Buy@2:

; 1259 : 		else
; 1260 : 			{	// nonempty array, allocate storage
; 1261 : 			this->_Myfirst = this->_Alval.allocate(_Capacity);

  0002f	50		 push	 eax
  00030	57		 push	 edi
  00031	e8 00 00 00 00	 call	 ??$_Allocate@UForceInfo@@@std@@YAPAUForceInfo@@IPAU1@@Z ; std::_Allocate<ForceInfo>

; 1262 : 			this->_Mylast = this->_Myfirst;
; 1263 : 			this->_Myend = this->_Myfirst + _Capacity;

  00036	6b ff 0c	 imul	 edi, 12			; 0000000cH
  00039	03 f8		 add	 edi, eax
  0003b	59		 pop	 ecx
  0003c	89 06		 mov	 DWORD PTR [esi], eax
  0003e	89 46 04	 mov	 DWORD PTR [esi+4], eax
  00041	59		 pop	 ecx
  00042	89 7e 08	 mov	 DWORD PTR [esi+8], edi

; 1264 : 			}
; 1265 : 		return (true);

  00045	b0 01		 mov	 al, 1
$LN5@Buy@2:
  00047	5f		 pop	 edi
  00048	5e		 pop	 esi

; 1266 : 		}

  00049	5d		 pop	 ebp
  0004a	c2 04 00	 ret	 4
$LN18@Buy@2:
?_Buy@?$vector@UForceInfo@@V?$allocator@UForceInfo@@@std@@@std@@IAE_NI@Z ENDP ; std::vector<ForceInfo,std::allocator<ForceInfo> >::_Buy
_TEXT	ENDS
PUBLIC	??9?$_Vector_const_iterator@V?$_Vector_val@UWeaponInfo@@V?$allocator@UWeaponInfo@@@std@@@std@@@std@@QBE_NABV01@@Z ; std::_Vector_const_iterator<std::_Vector_val<WeaponInfo,std::allocator<WeaponInfo> > >::operator!=
; Function compile flags: /Ogsp
;	COMDAT ??9?$_Vector_const_iterator@V?$_Vector_val@UWeaponInfo@@V?$allocator@UWeaponInfo@@@std@@@std@@@std@@QBE_NABV01@@Z
_TEXT	SEGMENT
__Right$ = 8						; size = 4
??9?$_Vector_const_iterator@V?$_Vector_val@UWeaponInfo@@V?$allocator@UWeaponInfo@@@std@@@std@@@std@@QBE_NABV01@@Z PROC ; std::_Vector_const_iterator<std::_Vector_val<WeaponInfo,std::allocator<WeaponInfo> > >::operator!=, COMDAT
; _this$ = ecx

; 207  : 		{	// test for iterator inequality

  00000	55		 push	 ebp
  00001	8b ec		 mov	 ebp, esp

; 208  : 		return (!(*this == _Right));

  00003	8b 01		 mov	 eax, DWORD PTR [ecx]
  00005	8b 55 08	 mov	 edx, DWORD PTR __Right$[ebp]
  00008	33 c9		 xor	 ecx, ecx
  0000a	3b 02		 cmp	 eax, DWORD PTR [edx]
  0000c	0f 95 c0	 setne	 al

; 209  : 		}

  0000f	5d		 pop	 ebp
  00010	c2 04 00	 ret	 4
??9?$_Vector_const_iterator@V?$_Vector_val@UWeaponInfo@@V?$allocator@UWeaponInfo@@@std@@@std@@@std@@QBE_NABV01@@Z ENDP ; std::_Vector_const_iterator<std::_Vector_val<WeaponInfo,std::allocator<WeaponInfo> > >::operator!=
_TEXT	ENDS
PUBLIC	??9?$_Vector_const_iterator@V?$_Vector_val@UForceInfo@@V?$allocator@UForceInfo@@@std@@@std@@@std@@QBE_NABV01@@Z ; std::_Vector_const_iterator<std::_Vector_val<ForceInfo,std::allocator<ForceInfo> > >::operator!=
; Function compile flags: /Ogsp
;	COMDAT ??9?$_Vector_const_iterator@V?$_Vector_val@UForceInfo@@V?$allocator@UForceInfo@@@std@@@std@@@std@@QBE_NABV01@@Z
_TEXT	SEGMENT
__Right$ = 8						; size = 4
??9?$_Vector_const_iterator@V?$_Vector_val@UForceInfo@@V?$allocator@UForceInfo@@@std@@@std@@@std@@QBE_NABV01@@Z PROC ; std::_Vector_const_iterator<std::_Vector_val<ForceInfo,std::allocator<ForceInfo> > >::operator!=, COMDAT
; _this$ = ecx

; 207  : 		{	// test for iterator inequality

  00000	55		 push	 ebp
  00001	8b ec		 mov	 ebp, esp

; 208  : 		return (!(*this == _Right));

  00003	8b 01		 mov	 eax, DWORD PTR [ecx]
  00005	8b 55 08	 mov	 edx, DWORD PTR __Right$[ebp]
  00008	33 c9		 xor	 ecx, ecx
  0000a	3b 02		 cmp	 eax, DWORD PTR [edx]
  0000c	0f 95 c0	 setne	 al

; 209  : 		}

  0000f	5d		 pop	 ebp
  00010	c2 04 00	 ret	 4
??9?$_Vector_const_iterator@V?$_Vector_val@UForceInfo@@V?$allocator@UForceInfo@@@std@@@std@@@std@@QBE_NABV01@@Z ENDP ; std::_Vector_const_iterator<std::_Vector_val<ForceInfo,std::allocator<ForceInfo> > >::operator!=
_TEXT	ENDS
PUBLIC	??$_Dest_val@V?$allocator@UForceInfo@@@std@@UForceInfo@@@std@@YAXAAV?$allocator@UForceInfo@@@0@PAUForceInfo@@@Z ; std::_Dest_val<std::allocator<ForceInfo>,ForceInfo>
; Function compile flags: /Ogsp
; File c:\program files (x86)\microsoft visual studio 10.0\vc\include\xmemory
;	COMDAT ??$_Dest_val@V?$allocator@UForceInfo@@@std@@UForceInfo@@@std@@YAXAAV?$allocator@UForceInfo@@@0@PAUForceInfo@@@Z
_TEXT	SEGMENT
__Alval$ = 8						; size = 4
__Pdest$ = 12						; size = 4
??$_Dest_val@V?$allocator@UForceInfo@@@std@@UForceInfo@@@std@@YAXAAV?$allocator@UForceInfo@@@0@PAUForceInfo@@@Z PROC ; std::_Dest_val<std::allocator<ForceInfo>,ForceInfo>, COMDAT

; 287  : 	_Alval.destroy(_Pdest);
; 288  : 	}

  00000	c3		 ret	 0
??$_Dest_val@V?$allocator@UForceInfo@@@std@@UForceInfo@@@std@@YAXAAV?$allocator@UForceInfo@@@0@PAUForceInfo@@@Z ENDP ; std::_Dest_val<std::allocator<ForceInfo>,ForceInfo>
_TEXT	ENDS
PUBLIC	?destroy@?$allocator@UWeaponInfo@@@std@@QAEXPAUWeaponInfo@@@Z ; std::allocator<WeaponInfo>::destroy
; Function compile flags: /Ogsp
;	COMDAT ?destroy@?$allocator@UWeaponInfo@@@std@@QAEXPAUWeaponInfo@@@Z
_TEXT	SEGMENT
__Ptr$ = 8						; size = 4
?destroy@?$allocator@UWeaponInfo@@@std@@QAEXPAUWeaponInfo@@@Z PROC ; std::allocator<WeaponInfo>::destroy, COMDAT
; _this$ = ecx

; 212  : 		{	// destroy object at _Ptr

  00000	55		 push	 ebp
  00001	8b ec		 mov	 ebp, esp

; 213  : 		_Destroy(_Ptr);

  00003	8b 4d 08	 mov	 ecx, DWORD PTR __Ptr$[ebp]
  00006	83 c1 08	 add	 ecx, 8
  00009	ff 15 00 00 00
	00		 call	 DWORD PTR __imp_??1ioHashString@@QAE@XZ

; 214  : 		}

  0000f	5d		 pop	 ebp
  00010	c2 04 00	 ret	 4
?destroy@?$allocator@UWeaponInfo@@@std@@QAEXPAUWeaponInfo@@@Z ENDP ; std::allocator<WeaponInfo>::destroy
_TEXT	ENDS
PUBLIC	_pChar$GSCopy$
PUBLIC	__$ArrayPad$
PUBLIC	?SetActionLoopState@ioCircleMoveAttackSkill3@@IAEXPAVioBaseChar@@@Z ; ioCircleMoveAttackSkill3::SetActionLoopState
EXTRN	?SetTargetRotAndMoveDirChange@ioBaseChar@@QAEXABUD3DXQUATERNION@@_N@Z:PROC ; ioBaseChar::SetTargetRotAndMoveDirChange
EXTRN	__imp_?CalcDirectionQuaternion@ioMath@@SAXAAUD3DXQUATERNION@@ABUD3DXVECTOR3@@@Z:PROC
EXTRN	_D3DXVec3Normalize@8:PROC
EXTRN	?GetCharGravity@ioBaseChar@@QAEMXZ:PROC		; ioBaseChar::GetCharGravity
EXTRN	?GetSingleConvertTeam@ioBaseChar@@QAE?AW4TeamType@@XZ:PROC ; ioBaseChar::GetSingleConvertTeam
EXTRN	?GetMagicCirclePos@ioBaseGUISupport@@QBE?AUD3DXVECTOR3@@M_N@Z:PROC ; ioBaseGUISupport::GetMagicCirclePos
EXTRN	?UpdateMagicCirclePos@ioBaseGUISupport@@QAEXMMM_N0@Z:PROC ; ioBaseGUISupport::UpdateMagicCirclePos
EXTRN	?CheckMagicCircleVisible@ioBaseGUISupport@@QAEX_N@Z:PROC ; ioBaseGUISupport::CheckMagicCircleVisible
;	COMDAT xdata$x
; File d:\lost saga for developer\youtube\tutorial\source\src\lsclient\ioskill.h
xdata$x	SEGMENT
__unwindtable$?SetActionLoopState@ioCircleMoveAttackSkill3@@IAEXPAVioBaseChar@@@Z DD 0ffffffffH
	DD	FLAT:__unwindfunclet$?SetActionLoopState@ioCircleMoveAttackSkill3@@IAEXPAVioBaseChar@@@Z$0
__ehfuncinfo$?SetActionLoopState@ioCircleMoveAttackSkill3@@IAEXPAVioBaseChar@@@Z DD 019930522H
	DD	01H
	DD	FLAT:__unwindtable$?SetActionLoopState@ioCircleMoveAttackSkill3@@IAEXPAVioBaseChar@@@Z
	DD	2 DUP(00H)
	DD	2 DUP(00H)
	DD	00H
	DD	01H
; Function compile flags: /Ogsp
; File d:\lost saga for developer\youtube\tutorial\source\src\lsclient\iocirclemoveattackskill3.cpp
xdata$x	ENDS
;	COMDAT ?SetActionLoopState@ioCircleMoveAttackSkill3@@IAEXPAVioBaseChar@@@Z
_TEXT	SEGMENT
$T556333 = -32880					; size = 12
_qtRot$548516 = -32868					; size = 16
$T556334 = -32864					; size = 12
$T556332 = -32852					; size = 12
tv698 = -32848						; size = 8
_pChar$GSCopy$ = -32840					; size = 4
_value$556351 = -32836					; size = 1
_value$556362 = -32836					; size = 4
_value$556377 = -32836					; size = 4
_value$556343 = -32836					; size = 4
_fFlightDuration$ = -32836				; size = 4
_fCurGravity$ = -32836					; size = 4
_pMapEffect$ = -32836					; size = 4
_fCurRange$ = -32836					; size = 4
_iCurSkillAniID$ = -32836				; size = 4
_kPacket$548519 = -32832				; size = 32792
_vDir$ = -40						; size = 12
$T548517 = -28						; size = 12
_vCharPos$ = -28					; size = 12
$T556335 = -28						; size = 12
$T548493 = -28						; size = 12
__$ArrayPad$ = -16					; size = 4
__$EHRec$ = -12						; size = 12
_pChar$ = 8						; size = 4
?SetActionLoopState@ioCircleMoveAttackSkill3@@IAEXPAVioBaseChar@@@Z PROC ; ioCircleMoveAttackSkill3::SetActionLoopState, COMDAT
; _this$ = ecx

; 645  : {

  00000	55		 push	 ebp
  00001	8b ec		 mov	 ebp, esp
  00003	6a ff		 push	 -1
  00005	68 00 00 00 00	 push	 __ehhandler$?SetActionLoopState@ioCircleMoveAttackSkill3@@IAEXPAVioBaseChar@@@Z
  0000a	64 a1 00 00 00
	00		 mov	 eax, DWORD PTR fs:0
  00010	50		 push	 eax
  00011	b8 64 80 00 00	 mov	 eax, 32868		; 00008064H
  00016	e8 00 00 00 00	 call	 __chkstk
  0001b	a1 00 00 00 00	 mov	 eax, DWORD PTR ___security_cookie
  00020	33 c5		 xor	 eax, ebp
  00022	89 45 f0	 mov	 DWORD PTR __$ArrayPad$[ebp], eax
  00025	53		 push	 ebx
  00026	56		 push	 esi
  00027	57		 push	 edi
  00028	50		 push	 eax
  00029	8d 45 f4	 lea	 eax, DWORD PTR __$EHRec$[ebp]
  0002c	64 a3 00 00 00
	00		 mov	 DWORD PTR fs:0, eax
  00032	8b 7d 08	 mov	 edi, DWORD PTR _pChar$[ebp]
  00035	8b d9		 mov	 ebx, ecx

; 736  : 	{
; 737  : 		SP2Packet kPacket( CUPK_SKILL_EXTRA_INFO );

  00037	89 bd b8 7f ff
	ff		 mov	 DWORD PTR _pChar$GSCopy$[ebp], edi
  0003d	85 ff		 test	 edi, edi
  0003f	0f 84 b1 04 00
	00		 je	 $LN1@SetActionL

; 646  : 	if( !pChar )
; 647  : 		return;
; 648  : 
; 649  : 	ioEntityGroup *pGrp = pChar->GetGroup();
; 650  : 	if( !pGrp )

  00045	8b 77 04	 mov	 esi, DWORD PTR [edi+4]
  00048	85 f6		 test	 esi, esi
  0004a	0f 84 a6 04 00
	00		 je	 $LN1@SetActionL

; 651  : 		return;
; 652  : 
; 653  : 	m_State = SS_ACTION_LOOP;

  00050	8d 85 bc 7f ff
	ff		 lea	 eax, DWORD PTR _value$556343[ebp]
  00056	50		 push	 eax
  00057	8d 8b 58 0f 00
	00		 lea	 ecx, DWORD PTR [ebx+3928]
  0005d	c7 85 bc 7f ff
	ff 03 00 00 00	 mov	 DWORD PTR _value$556343[ebp], 3
  00067	e8 00 00 00 00	 call	 ?EncryptValueToPool@?$CEncrypt@H@@AAEXPBD@Z ; CEncrypt<int>::EncryptValueToPool

; 654  : 
; 655  : 	int iCurSkillAniID = pGrp->GetAnimationIdx( m_ActionLoopAni );

  0006c	8d 83 64 10 00
	00		 lea	 eax, DWORD PTR [ebx+4196]
  00072	50		 push	 eax
  00073	8b ce		 mov	 ecx, esi
  00075	ff 15 00 00 00
	00		 call	 DWORD PTR __imp_?GetAnimationIdx@ioEntityGroup@@QAEHABVioHashString@@@Z
  0007b	89 85 bc 7f ff
	ff		 mov	 DWORD PTR _iCurSkillAniID$[ebp], eax

; 656  : 	float fTimeRate = FLOAT1;

  00081	b8 01 00 00 00	 mov	 eax, 1

; 657  : 
; 658  : 	pGrp->ClearAllLoopAni( 5.0f );

  00086	f3 0f 10 05 00
	00 00 00	 movss	 xmm0, DWORD PTR __real@40a00000
  0008e	6a 00		 push	 0
  00090	51		 push	 ecx
  00091	8b ce		 mov	 ecx, esi
  00093	f3 0f 11 04 24	 movss	 DWORD PTR [esp], xmm0
  00098	ff 15 00 00 00
	00		 call	 DWORD PTR __imp_?ClearAllLoopAni@ioEntityGroup@@QAEXM_N@Z

; 659  : 	pGrp->ClearAllActionAni( 5.0f );

  0009e	f3 0f 10 05 00
	00 00 00	 movss	 xmm0, DWORD PTR __real@40a00000
  000a6	6a 00		 push	 0
  000a8	51		 push	 ecx
  000a9	8b ce		 mov	 ecx, esi
  000ab	f3 0f 11 04 24	 movss	 DWORD PTR [esp], xmm0
  000b0	ff 15 00 00 00
	00		 call	 DWORD PTR __imp_?ClearAllActionAni@ioEntityGroup@@QAEXM_N@Z

; 660  : 	pGrp->SetLoopAni( iCurSkillAniID, 5.0f );

  000b6	0f 57 c0	 xorps	 xmm0, xmm0
  000b9	83 ec 10	 sub	 esp, 16			; 00000010H
  000bc	f3 0f 11 44 24
	0c		 movss	 DWORD PTR [esp+12], xmm0
  000c2	f3 0f 10 05 00
	00 00 00	 movss	 xmm0, DWORD PTR __real@3f800000
  000ca	f3 0f 11 44 24
	08		 movss	 DWORD PTR [esp+8], xmm0
  000d0	f3 0f 11 44 24
	04		 movss	 DWORD PTR [esp+4], xmm0
  000d6	f3 0f 10 05 00
	00 00 00	 movss	 xmm0, DWORD PTR __real@40a00000
  000de	f3 0f 11 04 24	 movss	 DWORD PTR [esp], xmm0
  000e3	ff b5 bc 7f ff
	ff		 push	 DWORD PTR _iCurSkillAniID$[ebp]
  000e9	8b ce		 mov	 ecx, esi
  000eb	ff 15 00 00 00
	00		 call	 DWORD PTR __imp_?SetLoopAni@ioEntityGroup@@QAE_NHMMMM@Z

; 661  : 
; 662  : 	float fCurRange = m_fCircleRange;

  000f1	f3 0f 10 83 00
	10 00 00	 movss	 xmm0, DWORD PTR [ebx+4096]

; 663  : 
; 664  : 	m_dwPreDelayStartTime = 0;

  000f9	83 a3 20 02 00
	00 00		 and	 DWORD PTR [ebx+544], 0

; 665  : 	if( pChar->CheckMagicCircle() )

  00100	8d 8f cc 01 00
	00		 lea	 ecx, DWORD PTR [edi+460]
  00106	f3 0f 11 85 bc
	7f ff ff	 movss	 DWORD PTR _fCurRange$[ebp], xmm0
  0010e	e8 00 00 00 00	 call	 ?CheckMagicCircle@ioBaseGUISupport@@QBE_NXZ ; ioBaseGUISupport::CheckMagicCircle
  00113	84 c0		 test	 al, al
  00115	74 48		 je	 SHORT $LN13@SetActionL

; 666  : 	{
; 667  : 		pChar->CheckMagicCircleVisible( false );

  00117	6a 00		 push	 0
  00119	8d 8f cc 01 00
	00		 lea	 ecx, DWORD PTR [edi+460]
  0011f	e8 00 00 00 00	 call	 ?CheckMagicCircleVisible@ioBaseGUISupport@@QAEX_N@Z ; ioBaseGUISupport::CheckMagicCircleVisible

; 668  : 		pChar->UpdateMagicCirclePos( m_fCircleMoveSpeed, fCurRange, m_fCircleHeightGap, true, true );

  00124	f3 0f 10 83 08
	10 00 00	 movss	 xmm0, DWORD PTR [ebx+4104]
  0012c	6a 01		 push	 1
  0012e	6a 01		 push	 1
  00130	83 ec 0c	 sub	 esp, 12			; 0000000cH
  00133	f3 0f 11 44 24
	08		 movss	 DWORD PTR [esp+8], xmm0
  00139	f3 0f 10 85 bc
	7f ff ff	 movss	 xmm0, DWORD PTR _fCurRange$[ebp]
  00141	f3 0f 11 44 24
	04		 movss	 DWORD PTR [esp+4], xmm0
  00147	f3 0f 10 83 04
	10 00 00	 movss	 xmm0, DWORD PTR [ebx+4100]
  0014f	8d 8f cc 01 00
	00		 lea	 ecx, DWORD PTR [edi+460]
  00155	f3 0f 11 04 24	 movss	 DWORD PTR [esp], xmm0
  0015a	e8 00 00 00 00	 call	 ?UpdateMagicCirclePos@ioBaseGUISupport@@QAEXMMM_N0@Z ; ioBaseGUISupport::UpdateMagicCirclePos
$LN13@SetActionL:

; 669  : 	}
; 670  : 
; 671  : 	m_vCirclePos = pChar->GetMagicCirclePos( m_fCircleOffSet, m_bCircleNoChangeY );

  0015f	8d 85 bc 7f ff
	ff		 lea	 eax, DWORD PTR _value$556351[ebp]
  00165	50		 push	 eax
  00166	8d 8b 24 06 00
	00		 lea	 ecx, DWORD PTR [ebx+1572]
  0016c	e8 00 00 00 00	 call	 ?DecryptValueToPool@?$CEncrypt@_N@@QAEXPA_N@Z ; CEncrypt<bool>::DecryptValueToPool
  00171	ff b5 bc 7f ff
	ff		 push	 DWORD PTR _value$556351[ebp]
  00177	f3 0f 10 83 0c
	10 00 00	 movss	 xmm0, DWORD PTR [ebx+4108]
  0017f	51		 push	 ecx
  00180	8d 45 e4	 lea	 eax, DWORD PTR $T548493[ebp]
  00183	f3 0f 11 04 24	 movss	 DWORD PTR [esp], xmm0
  00188	50		 push	 eax
  00189	8d 8f cc 01 00
	00		 lea	 ecx, DWORD PTR [edi+460]
  0018f	e8 00 00 00 00	 call	 ?GetMagicCirclePos@ioBaseGUISupport@@QBE?AUD3DXVECTOR3@@M_N@Z ; ioBaseGUISupport::GetMagicCirclePos
  00194	8b f0		 mov	 esi, eax
  00196	8d bb 58 10 00
	00		 lea	 edi, DWORD PTR [ebx+4184]
  0019c	a5		 movsd
  0019d	a5		 movsd
  0019e	a5		 movsd

; 672  : 
; 673  : 	ioMapEffect *pMapEffect = NULL;
; 674  : 	if( pChar->GetTeam() == TEAM_RED )

  0019f	8b bd b8 7f ff
	ff		 mov	 edi, DWORD PTR _pChar$GSCopy$[ebp]
  001a5	8d 85 bc 7f ff
	ff		 lea	 eax, DWORD PTR _value$556362[ebp]
  001ab	50		 push	 eax
  001ac	8d 8f 90 00 00
	00		 lea	 ecx, DWORD PTR [edi+144]
  001b2	e8 00 00 00 00	 call	 ?DecryptValueToPool@?$CEncrypt@W4TeamType@@@@QAEXPAW4TeamType@@@Z ; CEncrypt<enum TeamType>::DecryptValueToPool
  001b7	83 bd bc 7f ff
	ff 01		 cmp	 DWORD PTR _value$556362[ebp], 1
  001be	75 2b		 jne	 SHORT $LN12@SetActionL

; 675  : 	{
; 676  : 		pMapEffect = pChar->CreateMapEffectBySkill( m_RedEffect, m_vCirclePos );

  001c0	f3 0f 10 05 00
	00 00 00	 movss	 xmm0, DWORD PTR __real@3f800000
  001c8	f3 0f 11 85 ac
	7f ff ff	 movss	 DWORD PTR $T556332[ebp], xmm0
  001d0	f3 0f 11 85 b0
	7f ff ff	 movss	 DWORD PTR $T556332[ebp+4], xmm0
  001d8	f3 0f 11 85 b4
	7f ff ff	 movss	 DWORD PTR $T556332[ebp+8], xmm0
  001e0	8d 85 ac 7f ff
	ff		 lea	 eax, DWORD PTR $T556332[ebp]
  001e6	e9 a5 00 00 00	 jmp	 $LN63@SetActionL
$LN12@SetActionL:

; 677  : 	}
; 678  : 	else if( pChar->GetTeam() == TEAM_BLUE )

  001eb	8d 85 bc 7f ff
	ff		 lea	 eax, DWORD PTR _value$556377[ebp]
  001f1	50		 push	 eax
  001f2	8d 8f 90 00 00
	00		 lea	 ecx, DWORD PTR [edi+144]
  001f8	e8 00 00 00 00	 call	 ?DecryptValueToPool@?$CEncrypt@W4TeamType@@@@QAEXPAW4TeamType@@@Z ; CEncrypt<enum TeamType>::DecryptValueToPool
  001fd	83 bd bc 7f ff
	ff 02		 cmp	 DWORD PTR _value$556377[ebp], 2

; 679  : 	{
; 680  : 		pMapEffect = pChar->CreateMapEffectBySkill( m_BlueEffect, m_vCirclePos );

  00204	8b cf		 mov	 ecx, edi
  00206	75 36		 jne	 SHORT $LN10@SetActionL
  00208	f3 0f 10 05 00
	00 00 00	 movss	 xmm0, DWORD PTR __real@3f800000
  00210	8d 85 90 7f ff
	ff		 lea	 eax, DWORD PTR $T556333[ebp]
  00216	50		 push	 eax
  00217	8d 83 58 10 00
	00		 lea	 eax, DWORD PTR [ebx+4184]
  0021d	50		 push	 eax
  0021e	f3 0f 11 85 90
	7f ff ff	 movss	 DWORD PTR $T556333[ebp], xmm0
  00226	f3 0f 11 85 94
	7f ff ff	 movss	 DWORD PTR $T556333[ebp+4], xmm0
  0022e	f3 0f 11 85 98
	7f ff ff	 movss	 DWORD PTR $T556333[ebp+8], xmm0
  00236	8d 83 40 10 00
	00		 lea	 eax, DWORD PTR [ebx+4160]

; 681  : 	}
; 682  : 	else

  0023c	eb 62		 jmp	 SHORT $LN64@SetActionL
$LN10@SetActionL:

; 683  : 	{
; 684  : 		if( pChar->GetSingleConvertTeam() == TEAM_BLUE )

  0023e	e8 00 00 00 00	 call	 ?GetSingleConvertTeam@ioBaseChar@@QAE?AW4TeamType@@XZ ; ioBaseChar::GetSingleConvertTeam

; 685  : 		{
; 686  : 			pMapEffect = pChar->CreateMapEffectBySkill( m_BlueEffect, m_vCirclePos );

  00243	f3 0f 10 05 00
	00 00 00	 movss	 xmm0, DWORD PTR __real@3f800000
  0024b	83 f8 02	 cmp	 eax, 2
  0024e	75 2e		 jne	 SHORT $LN8@SetActionL
  00250	8d 85 a0 7f ff
	ff		 lea	 eax, DWORD PTR $T556334[ebp]
  00256	50		 push	 eax
  00257	8d 83 58 10 00
	00		 lea	 eax, DWORD PTR [ebx+4184]
  0025d	50		 push	 eax
  0025e	f3 0f 11 85 a0
	7f ff ff	 movss	 DWORD PTR $T556334[ebp], xmm0
  00266	f3 0f 11 85 a4
	7f ff ff	 movss	 DWORD PTR $T556334[ebp+4], xmm0
  0026e	f3 0f 11 85 a8
	7f ff ff	 movss	 DWORD PTR $T556334[ebp+8], xmm0
  00276	8d 83 40 10 00
	00		 lea	 eax, DWORD PTR [ebx+4160]

; 687  : 		}
; 688  : 		else

  0027c	eb 20		 jmp	 SHORT $LN65@SetActionL
$LN8@SetActionL:

; 689  : 		{
; 690  : 			pMapEffect = pChar->CreateMapEffectBySkill( m_RedEffect, m_vCirclePos );

  0027e	f3 0f 11 45 e4	 movss	 DWORD PTR $T556335[ebp], xmm0
  00283	f3 0f 11 45 e8	 movss	 DWORD PTR $T556335[ebp+4], xmm0
  00288	f3 0f 11 45 ec	 movss	 DWORD PTR $T556335[ebp+8], xmm0
  0028d	8d 45 e4	 lea	 eax, DWORD PTR $T556335[ebp]
$LN63@SetActionL:
  00290	50		 push	 eax
  00291	8d 83 58 10 00
	00		 lea	 eax, DWORD PTR [ebx+4184]
  00297	50		 push	 eax
  00298	8d 83 30 10 00
	00		 lea	 eax, DWORD PTR [ebx+4144]
$LN65@SetActionL:
  0029e	8b cf		 mov	 ecx, edi
$LN64@SetActionL:
  002a0	50		 push	 eax
  002a1	e8 00 00 00 00	 call	 ?CreateMapEffectBySkill@ioBaseChar@@QAEPAVioMapEffect@@ABVioHashString@@ABUD3DXVECTOR3@@AAU4@@Z ; ioBaseChar::CreateMapEffectBySkill
  002a6	89 85 bc 7f ff
	ff		 mov	 DWORD PTR _pMapEffect$[ebp], eax

; 691  : 		}
; 692  : 	}
; 693  : 
; 694  : 	if( pMapEffect )

  002ac	85 c0		 test	 eax, eax
  002ae	74 42		 je	 SHORT $LN4@SetActionL

; 695  : 	{
; 696  : 		if( m_dwCurMapEffect != -1 )

  002b0	8b 83 50 10 00
	00		 mov	 eax, DWORD PTR [ebx+4176]
  002b6	83 f8 ff	 cmp	 eax, -1
  002b9	74 0a		 je	 SHORT $LN5@SetActionL

; 697  : 			pChar->EndMapEffect( m_dwCurMapEffect, false );

  002bb	6a 00		 push	 0
  002bd	50		 push	 eax
  002be	8b cf		 mov	 ecx, edi
  002c0	e8 00 00 00 00	 call	 ?EndMapEffect@ioBaseChar@@QAEXK_N@Z ; ioBaseChar::EndMapEffect
$LN5@SetActionL:

; 698  : 
; 699  : 		m_dwCurMapEffect = pMapEffect->GetUniqueID();

  002c5	8b 8d bc 7f ff
	ff		 mov	 ecx, DWORD PTR _pMapEffect$[ebp]
  002cb	e8 00 00 00 00	 call	 ?GetUniqueID@ioMapEffect@@QBEKXZ ; ioMapEffect::GetUniqueID
  002d0	89 83 50 10 00
	00		 mov	 DWORD PTR [ebx+4176], eax

; 700  : 
; 701  : 		if( m_dwTargetCircleEffect != -1 )

  002d6	8b 83 54 10 00
	00		 mov	 eax, DWORD PTR [ebx+4180]
  002dc	83 f8 ff	 cmp	 eax, -1
  002df	74 11		 je	 SHORT $LN4@SetActionL

; 702  : 		{
; 703  : 			pChar->EndMapEffect( m_dwTargetCircleEffect, false );

  002e1	6a 00		 push	 0
  002e3	50		 push	 eax
  002e4	8b cf		 mov	 ecx, edi
  002e6	e8 00 00 00 00	 call	 ?EndMapEffect@ioBaseChar@@QAEXK_N@Z ; ioBaseChar::EndMapEffect

; 704  : 			m_dwTargetCircleEffect = -1;

  002eb	83 8b 54 10 00
	00 ff		 or	 DWORD PTR [ebx+4180], -1
$LN4@SetActionL:

; 705  : 		}
; 706  : 	}
; 707  : 
; 708  : 	// CharMove
; 709  : 	D3DXVECTOR3 vCharPos = pChar->GetWorldPosition();

  002f2	8b 07		 mov	 eax, DWORD PTR [edi]
  002f4	8b cf		 mov	 ecx, edi
  002f6	ff 50 70	 call	 DWORD PTR [eax+112]

; 710  : 	float fCurGravity = pChar->GetCharGravity();

  002f9	8b 8d b8 7f ff
	ff		 mov	 ecx, DWORD PTR _pChar$GSCopy$[ebp]
  002ff	8b f0		 mov	 esi, eax
  00301	8d 7d e4	 lea	 edi, DWORD PTR _vCharPos$[ebp]
  00304	a5		 movsd
  00305	a5		 movsd
  00306	a5		 movsd
  00307	e8 00 00 00 00	 call	 ?GetCharGravity@ioBaseChar@@QAEMXZ ; ioBaseChar::GetCharGravity

; 711  : 	float fFlightDuration = GetFlightDuration( vCharPos, fCurGravity );

  0030c	51		 push	 ecx
  0030d	d9 9d bc 7f ff
	ff		 fstp	 DWORD PTR _fCurGravity$[ebp]
  00313	f3 0f 10 85 bc
	7f ff ff	 movss	 xmm0, DWORD PTR _fCurGravity$[ebp]
  0031b	8d 45 e4	 lea	 eax, DWORD PTR _vCharPos$[ebp]
  0031e	f3 0f 11 04 24	 movss	 DWORD PTR [esp], xmm0
  00323	50		 push	 eax
  00324	8b cb		 mov	 ecx, ebx
  00326	e8 00 00 00 00	 call	 ?GetFlightDuration@ioCircleMoveAttackSkill3@@IAEMABUD3DXVECTOR3@@M@Z ; ioCircleMoveAttackSkill3::GetFlightDuration
  0032b	d9 9d bc 7f ff
	ff		 fstp	 DWORD PTR _fFlightDuration$[ebp]

; 712  : 
; 713  : 	m_vCharMoveDir = ioMath::VEC3_ZERO;

  00331	8b 35 00 00 00
	00		 mov	 esi, DWORD PTR __imp_?VEC3_ZERO@ioMath@@2UD3DXVECTOR3@@A

; 714  : 
; 715  : 	D3DXVECTOR3 vDir = m_vCirclePos - vCharPos;

  00337	f3 0f 10 4d e4	 movss	 xmm1, DWORD PTR _vCharPos$[ebp]
  0033c	f3 0f 10 55 ec	 movss	 xmm2, DWORD PTR _vCharPos$[ebp+8]
  00341	8d 8b 7c 10 00
	00		 lea	 ecx, DWORD PTR [ebx+4220]
  00347	8b f9		 mov	 edi, ecx
  00349	a5		 movsd
  0034a	a5		 movsd
  0034b	a5		 movsd
  0034c	f3 0f 10 83 58
	10 00 00	 movss	 xmm0, DWORD PTR [ebx+4184]
  00354	0f 5a c0	 cvtps2pd xmm0, xmm0
  00357	0f 5a c9	 cvtps2pd xmm1, xmm1
  0035a	f2 0f 5c c1	 subsd	 xmm0, xmm1
  0035e	f3 0f 10 8b 60
	10 00 00	 movss	 xmm1, DWORD PTR [ebx+4192]
  00366	66 0f 5a c0	 cvtpd2ps xmm0, xmm0
  0036a	f3 0f 11 45 d8	 movss	 DWORD PTR _vDir$[ebp], xmm0

; 716  : 	vDir.y = 0.0f;
; 717  : 
; 718  : 	float fRange = D3DXVec3Length( &vDir );

  0036f	f3 0f 5a c0	 cvtss2sd xmm0, xmm0
  00373	f2 0f 59 c0	 mulsd	 xmm0, xmm0
  00377	0f 5a d2	 cvtps2pd xmm2, xmm2
  0037a	f2 0f 11 85 b0
	7f ff ff	 movsd	 QWORD PTR tv698[ebp], xmm0
  00382	0f 57 c0	 xorps	 xmm0, xmm0
  00385	f2 0f 10 9d b0
	7f ff ff	 movsd	 xmm3, QWORD PTR tv698[ebp]
  0038d	0f 5a c9	 cvtps2pd xmm1, xmm1
  00390	f2 0f 5c ca	 subsd	 xmm1, xmm2
  00394	0f 57 d2	 xorps	 xmm2, xmm2
  00397	66 0f 5a d1	 cvtpd2ps xmm2, xmm1
  0039b	0f 57 c9	 xorps	 xmm1, xmm1
  0039e	f2 0f 59 c0	 mulsd	 xmm0, xmm0
  003a2	f2 0f 58 d8	 addsd	 xmm3, xmm0
  003a6	f3 0f 11 55 e0	 movss	 DWORD PTR _vDir$[ebp+8], xmm2
  003ab	0f 57 c0	 xorps	 xmm0, xmm0
  003ae	0f 5a d2	 cvtps2pd xmm2, xmm2
  003b1	f2 0f 59 d2	 mulsd	 xmm2, xmm2
  003b5	f2 0f 58 da	 addsd	 xmm3, xmm2
  003b9	66 0f 5a c3	 cvtpd2ps xmm0, xmm3
  003bd	0f 5a c0	 cvtps2pd xmm0, xmm0
  003c0	f2 0f 51 c0	 sqrtsd	 xmm0, xmm0
  003c4	66 0f 5a c0	 cvtpd2ps xmm0, xmm0

; 719  : 	if( fRange > 5.0f )

  003c8	0f 2f 05 00 00
	00 00		 comiss	 xmm0, DWORD PTR __real@40a00000
  003cf	f3 0f 11 4d dc	 movss	 DWORD PTR _vDir$[ebp+4], xmm1
  003d4	0f 86 a7 00 00
	00		 jbe	 $LN61@SetActionL

; 720  : 	{
; 721  : 		m_fCurCharMoveSpeed = 0.0f;
; 722  : 		if( fFlightDuration > 0.0f )

  003da	f3 0f 10 95 bc
	7f ff ff	 movss	 xmm2, DWORD PTR _fFlightDuration$[ebp]
  003e2	0f 2f d1	 comiss	 xmm2, xmm1
  003e5	f3 0f 11 8b 78
	10 00 00	 movss	 DWORD PTR [ebx+4216], xmm1
  003ed	76 17		 jbe	 SHORT $LN2@SetActionL

; 723  : 		{
; 724  : 			m_fCurCharMoveSpeed = fRange / fFlightDuration;

  003ef	f3 0f 5a c0	 cvtss2sd xmm0, xmm0
  003f3	0f 5a ca	 cvtps2pd xmm1, xmm2
  003f6	f2 0f 5e c1	 divsd	 xmm0, xmm1
  003fa	66 0f 5a c0	 cvtpd2ps xmm0, xmm0
  003fe	f3 0f 11 83 78
	10 00 00	 movss	 DWORD PTR [ebx+4216], xmm0
$LN2@SetActionL:

; 725  : 		}
; 726  : 
; 727  : 		D3DXVec3Normalize( &m_vCharMoveDir, &vDir );

  00406	8d 45 d8	 lea	 eax, DWORD PTR _vDir$[ebp]
  00409	50		 push	 eax
  0040a	51		 push	 ecx
  0040b	e8 00 00 00 00	 call	 _D3DXVec3Normalize@8

; 728  : 
; 729  : 		D3DXQUATERNION qtRot;
; 730  : 		ioMath::CalcDirectionQuaternion( qtRot, -m_vCharMoveDir );

  00410	f3 0f 10 05 00
	00 00 00	 movss	 xmm0, DWORD PTR __mask@@NegFloat@
  00418	f3 0f 10 8b 7c
	10 00 00	 movss	 xmm1, DWORD PTR [ebx+4220]
  00420	f3 0f 10 93 80
	10 00 00	 movss	 xmm2, DWORD PTR [ebx+4224]
  00428	f3 0f 10 9b 84
	10 00 00	 movss	 xmm3, DWORD PTR [ebx+4228]
  00430	8d 45 e4	 lea	 eax, DWORD PTR $T548517[ebp]
  00433	50		 push	 eax
  00434	8d 85 9c 7f ff
	ff		 lea	 eax, DWORD PTR _qtRot$548516[ebp]
  0043a	0f 57 c8	 xorps	 xmm1, xmm0
  0043d	0f 57 d0	 xorps	 xmm2, xmm0
  00440	0f 57 d8	 xorps	 xmm3, xmm0
  00443	50		 push	 eax
  00444	f3 0f 11 4d e4	 movss	 DWORD PTR $T548517[ebp], xmm1
  00449	f3 0f 11 55 e8	 movss	 DWORD PTR $T548517[ebp+4], xmm2
  0044e	f3 0f 11 5d ec	 movss	 DWORD PTR $T548517[ebp+8], xmm3
  00453	ff 15 00 00 00
	00		 call	 DWORD PTR __imp_?CalcDirectionQuaternion@ioMath@@SAXAAUD3DXQUATERNION@@ABUD3DXVECTOR3@@@Z

; 731  : 		pChar->SetTargetRotAndMoveDirChange( qtRot, false );

  00459	8b b5 b8 7f ff
	ff		 mov	 esi, DWORD PTR _pChar$GSCopy$[ebp]
  0045f	59		 pop	 ecx
  00460	59		 pop	 ecx
  00461	6a 00		 push	 0
  00463	8d 85 9c 7f ff
	ff		 lea	 eax, DWORD PTR _qtRot$548516[ebp]
  00469	50		 push	 eax
  0046a	8b ce		 mov	 ecx, esi
  0046c	e8 00 00 00 00	 call	 ?SetTargetRotAndMoveDirChange@ioBaseChar@@QAEXABUD3DXQUATERNION@@_N@Z ; ioBaseChar::SetTargetRotAndMoveDirChange

; 732  : 		pChar->SetWorldOrientation( qtRot );

  00471	8b 06		 mov	 eax, DWORD PTR [esi]
  00473	8d 8d 9c 7f ff
	ff		 lea	 ecx, DWORD PTR _qtRot$548516[ebp]
  00479	51		 push	 ecx
  0047a	8b ce		 mov	 ecx, esi
  0047c	ff 50 48	 call	 DWORD PTR [eax+72]
  0047f	eb 06		 jmp	 SHORT $LN3@SetActionL
$LN61@SetActionL:
  00481	8b b5 b8 7f ff
	ff		 mov	 esi, DWORD PTR _pChar$GSCopy$[ebp]
$LN3@SetActionL:

; 733  : 	}
; 734  : 
; 735  : 	if( pChar->IsNeedSendNetwork() )

  00487	8b 06		 mov	 eax, DWORD PTR [esi]
  00489	8b ce		 mov	 ecx, esi
  0048b	ff 90 04 01 00
	00		 call	 DWORD PTR [eax+260]
  00491	84 c0		 test	 al, al
  00493	74 61		 je	 SHORT $LN1@SetActionL

; 736  : 	{
; 737  : 		SP2Packet kPacket( CUPK_SKILL_EXTRA_INFO );

  00495	68 39 41 00 00	 push	 16697			; 00004139H
  0049a	8d 8d c0 7f ff
	ff		 lea	 ecx, DWORD PTR _kPacket$548519[ebp]
  004a0	e8 00 00 00 00	 call	 ??0SP2Packet@@QAE@K@Z	; SP2Packet::SP2Packet
  004a5	83 65 fc 00	 and	 DWORD PTR __$EHRec$[ebp+8], 0

; 738  : 		kPacket << pChar->GetCharName();

  004a9	81 c6 d4 02 00
	00		 add	 esi, 724		; 000002d4H
  004af	56		 push	 esi
  004b0	8d 8d c0 7f ff
	ff		 lea	 ecx, DWORD PTR _kPacket$548519[ebp]
  004b6	e8 00 00 00 00	 call	 ??6SP2Packet@@QAEAAV0@ABVioHashString@@@Z ; SP2Packet::operator<<

; 739  : 		kPacket << GetName();

  004bb	83 c3 24	 add	 ebx, 36			; 00000024H
  004be	53		 push	 ebx
  004bf	8d 8d c0 7f ff
	ff		 lea	 ecx, DWORD PTR _kPacket$548519[ebp]
  004c5	e8 00 00 00 00	 call	 ??6SP2Packet@@QAEAAV0@ABVioHashString@@@Z ; SP2Packet::operator<<

; 740  : 		kPacket << SS_ACTION_LOOP;

  004ca	6a 03		 push	 3
  004cc	8d 8d c0 7f ff
	ff		 lea	 ecx, DWORD PTR _kPacket$548519[ebp]
  004d2	e8 00 00 00 00	 call	 ??6SP2Packet@@QAEAAV0@H@Z ; SP2Packet::operator<<

; 741  : 		P2PNetwork::SendToAllPlayingUser( kPacket );

  004d7	8d 85 c0 7f ff
	ff		 lea	 eax, DWORD PTR _kPacket$548519[ebp]
  004dd	6a 00		 push	 0
  004df	50		 push	 eax
  004e0	e8 00 00 00 00	 call	 ?SendToAllPlayingUser@P2PNetwork@@YAXAAVSP2Packet@@PAVioBaseChar@@@Z ; P2PNetwork::SendToAllPlayingUser

; 742  : 	}

  004e5	83 4d fc ff	 or	 DWORD PTR __$EHRec$[ebp+8], -1
  004e9	59		 pop	 ecx
  004ea	59		 pop	 ecx
  004eb	8d 8d c0 7f ff
	ff		 lea	 ecx, DWORD PTR _kPacket$548519[ebp]
  004f1	e8 00 00 00 00	 call	 ??1SP2Packet@@UAE@XZ	; SP2Packet::~SP2Packet
$LN1@SetActionL:

; 743  : }

  004f6	8b 4d f4	 mov	 ecx, DWORD PTR __$EHRec$[ebp]
  004f9	64 89 0d 00 00
	00 00		 mov	 DWORD PTR fs:0, ecx
  00500	59		 pop	 ecx
  00501	5f		 pop	 edi
  00502	5e		 pop	 esi
  00503	5b		 pop	 ebx
  00504	8b 4d f0	 mov	 ecx, DWORD PTR __$ArrayPad$[ebp]
  00507	33 cd		 xor	 ecx, ebp
  00509	e8 00 00 00 00	 call	 @__security_check_cookie@4
  0050e	c9		 leave
  0050f	c2 04 00	 ret	 4
_TEXT	ENDS
;	COMDAT text$x
text$x	SEGMENT
__unwindfunclet$?SetActionLoopState@ioCircleMoveAttackSkill3@@IAEXPAVioBaseChar@@@Z$0:
  00000	8d 8d c0 7f ff
	ff		 lea	 ecx, DWORD PTR _kPacket$548519[ebp]
  00006	e9 00 00 00 00	 jmp	 ??1SP2Packet@@UAE@XZ	; SP2Packet::~SP2Packet
__ehhandler$?SetActionLoopState@ioCircleMoveAttackSkill3@@IAEXPAVioBaseChar@@@Z:
  0000b	8b 54 24 08	 mov	 edx, DWORD PTR [esp+8]
  0000f	8d 42 0c	 lea	 eax, DWORD PTR [edx+12]
  00012	8b 8a 8c 7f ff
	ff		 mov	 ecx, DWORD PTR [edx-32884]
  00018	33 c8		 xor	 ecx, eax
  0001a	e8 00 00 00 00	 call	 @__security_check_cookie@4
  0001f	8b 4a fc	 mov	 ecx, DWORD PTR [edx-4]
  00022	33 c8		 xor	 ecx, eax
  00024	e8 00 00 00 00	 call	 @__security_check_cookie@4
  00029	b8 00 00 00 00	 mov	 eax, OFFSET __ehfuncinfo$?SetActionLoopState@ioCircleMoveAttackSkill3@@IAEXPAVioBaseChar@@@Z
  0002e	e9 00 00 00 00	 jmp	 ___CxxFrameHandler3
text$x	ENDS
?SetActionLoopState@ioCircleMoveAttackSkill3@@IAEXPAVioBaseChar@@@Z ENDP ; ioCircleMoveAttackSkill3::SetActionLoopState
PUBLIC	??$_Uninit_copy@V?$_Vector_const_iterator@V?$_Vector_val@UForceInfo@@V?$allocator@UForceInfo@@@std@@@std@@@std@@PAUForceInfo@@V?$allocator@UForceInfo@@@2@@std@@YAPAUForceInfo@@V?$_Vector_const_iterator@V?$_Vector_val@UForceInfo@@V?$allocator@UForceInfo@@@std@@@std@@@0@0PAU1@AAV?$allocator@UForceInfo@@@0@U_Nonscalar_ptr_iterator_tag@0@@Z ; std::_Uninit_copy<std::_Vector_const_iterator<std::_Vector_val<ForceInfo,std::allocator<ForceInfo> > >,ForceInfo *,std::allocator<ForceInfo> >
; Function compile flags: /Ogsp
; File c:\program files (x86)\microsoft visual studio 10.0\vc\include\memory
;	COMDAT ??$_Uninit_copy@V?$_Vector_const_iterator@V?$_Vector_val@UForceInfo@@V?$allocator@UForceInfo@@@std@@@std@@@std@@PAUForceInfo@@V?$allocator@UForceInfo@@@2@@std@@YAPAUForceInfo@@V?$_Vector_const_iterator@V?$_Vector_val@UForceInfo@@V?$allocator@UForceInfo@@@std@@@std@@@0@0PAU1@AAV?$allocator@UForceInfo@@@0@U_Nonscalar_ptr_iterator_tag@0@@Z
_TEXT	SEGMENT
__First$ = 8						; size = 4
__Last$ = 12						; size = 4
__Dest$ = 16						; size = 4
__Al$ = 20						; size = 4
___formal$ = 24						; size = 1
??$_Uninit_copy@V?$_Vector_const_iterator@V?$_Vector_val@UForceInfo@@V?$allocator@UForceInfo@@@std@@@std@@@std@@PAUForceInfo@@V?$allocator@UForceInfo@@@2@@std@@YAPAUForceInfo@@V?$_Vector_const_iterator@V?$_Vector_val@UForceInfo@@V?$allocator@UForceInfo@@@std@@@std@@@0@0PAU1@AAV?$allocator@UForceInfo@@@0@U_Nonscalar_ptr_iterator_tag@0@@Z PROC ; std::_Uninit_copy<std::_Vector_const_iterator<std::_Vector_val<ForceInfo,std::allocator<ForceInfo> > >,ForceInfo *,std::allocator<ForceInfo> >, COMDAT

; 369  : 	{	// copy [_First, _Last) to raw _Dest, using _Al, arbitrary type

  00000	55		 push	 ebp
  00001	8b ec		 mov	 ebp, esp

; 370  : 	_DEBUG_RANGE(_First, _Last);
; 371  : 	_DEBUG_POINTER(_Dest);
; 372  : 	_FwdIt _Next = _Dest;
; 373  : 
; 374  : 	_TRY_BEGIN
; 375  : 	for (; _First != _Last; ++_Dest, ++_First)

  00003	eb 19		 jmp	 SHORT $LN35@Uninit_cop
$LL14@Uninit_cop:

; 376  : 		_Cons_val(_Al, _Dest, *_First);

  00005	ff 75 08	 push	 DWORD PTR __First$[ebp]
  00008	ff 75 10	 push	 DWORD PTR __Dest$[ebp]
  0000b	ff 75 14	 push	 DWORD PTR __Al$[ebp]
  0000e	e8 00 00 00 00	 call	 ??$_Cons_val@V?$allocator@UForceInfo@@@std@@UForceInfo@@ABU3@@std@@YAXAAV?$allocator@UForceInfo@@@0@PAUForceInfo@@ABU2@@Z ; std::_Cons_val<std::allocator<ForceInfo>,ForceInfo,ForceInfo const &>
  00013	83 45 10 0c	 add	 DWORD PTR __Dest$[ebp], 12 ; 0000000cH
  00017	83 c4 0c	 add	 esp, 12			; 0000000cH
  0001a	83 45 08 0c	 add	 DWORD PTR __First$[ebp], 12 ; 0000000cH
$LN35@Uninit_cop:

; 370  : 	_DEBUG_RANGE(_First, _Last);
; 371  : 	_DEBUG_POINTER(_Dest);
; 372  : 	_FwdIt _Next = _Dest;
; 373  : 
; 374  : 	_TRY_BEGIN
; 375  : 	for (; _First != _Last; ++_Dest, ++_First)

  0001e	8b 45 08	 mov	 eax, DWORD PTR __First$[ebp]
  00021	3b 45 0c	 cmp	 eax, DWORD PTR __Last$[ebp]
  00024	75 df		 jne	 SHORT $LL14@Uninit_cop

; 377  : 	_CATCH_ALL
; 378  : 	for (; _Next != _Dest; ++_Next)
; 379  : 		_Dest_val(_Al, _Next);
; 380  : 	_RERAISE;
; 381  : 	_CATCH_END
; 382  : 	return (_Dest);

  00026	8b 45 10	 mov	 eax, DWORD PTR __Dest$[ebp]

; 383  : 	}

  00029	5d		 pop	 ebp
  0002a	c3		 ret	 0
??$_Uninit_copy@V?$_Vector_const_iterator@V?$_Vector_val@UForceInfo@@V?$allocator@UForceInfo@@@std@@@std@@@std@@PAUForceInfo@@V?$allocator@UForceInfo@@@2@@std@@YAPAUForceInfo@@V?$_Vector_const_iterator@V?$_Vector_val@UForceInfo@@V?$allocator@UForceInfo@@@std@@@std@@@0@0PAU1@AAV?$allocator@UForceInfo@@@0@U_Nonscalar_ptr_iterator_tag@0@@Z ENDP ; std::_Uninit_copy<std::_Vector_const_iterator<std::_Vector_val<ForceInfo,std::allocator<ForceInfo> > >,ForceInfo *,std::allocator<ForceInfo> >
_TEXT	ENDS
PUBLIC	??$_Cons_val@V?$allocator@UWeaponInfo@@@std@@UWeaponInfo@@ABU3@@std@@YAXAAV?$allocator@UWeaponInfo@@@0@PAUWeaponInfo@@ABU2@@Z ; std::_Cons_val<std::allocator<WeaponInfo>,WeaponInfo,WeaponInfo const &>
; Function compile flags: /Ogsp
; File c:\program files (x86)\microsoft visual studio 10.0\vc\include\xmemory
;	COMDAT ??$_Cons_val@V?$allocator@UWeaponInfo@@@std@@UWeaponInfo@@ABU3@@std@@YAXAAV?$allocator@UWeaponInfo@@@0@PAUWeaponInfo@@ABU2@@Z
_TEXT	SEGMENT
__Alval$ = 8						; size = 4
__Pdest$ = 12						; size = 4
__Src$ = 16						; size = 4
??$_Cons_val@V?$allocator@UWeaponInfo@@@std@@UWeaponInfo@@ABU3@@std@@YAXAAV?$allocator@UWeaponInfo@@@0@PAUWeaponInfo@@ABU2@@Z PROC ; std::_Cons_val<std::allocator<WeaponInfo>,WeaponInfo,WeaponInfo const &>, COMDAT

; 279  : 	{	// construct using allocator

  00000	55		 push	 ebp
  00001	8b ec		 mov	 ebp, esp

; 280  : 	_Alval.construct(_Pdest, _STD forward<_Ty2>(_Src));

  00003	ff 75 10	 push	 DWORD PTR __Src$[ebp]
  00006	ff 75 0c	 push	 DWORD PTR __Pdest$[ebp]
  00009	e8 00 00 00 00	 call	 ??$_Construct@UWeaponInfo@@ABU1@@std@@YAXPAUWeaponInfo@@ABU1@@Z ; std::_Construct<WeaponInfo,WeaponInfo const &>
  0000e	59		 pop	 ecx
  0000f	59		 pop	 ecx

; 281  : 	}

  00010	5d		 pop	 ebp
  00011	c3		 ret	 0
??$_Cons_val@V?$allocator@UWeaponInfo@@@std@@UWeaponInfo@@ABU3@@std@@YAXAAV?$allocator@UWeaponInfo@@@0@PAUWeaponInfo@@ABU2@@Z ENDP ; std::_Cons_val<std::allocator<WeaponInfo>,WeaponInfo,WeaponInfo const &>
_TEXT	ENDS
PUBLIC	??$_Destroy_range@V?$allocator@UForceInfo@@@std@@@std@@YAXPAUForceInfo@@0AAV?$allocator@UForceInfo@@@0@U_Nonscalar_ptr_iterator_tag@0@@Z ; std::_Destroy_range<std::allocator<ForceInfo> >
; Function compile flags: /Ogsp
;	COMDAT ??$_Destroy_range@V?$allocator@UForceInfo@@@std@@@std@@YAXPAUForceInfo@@0AAV?$allocator@UForceInfo@@@0@U_Nonscalar_ptr_iterator_tag@0@@Z
_TEXT	SEGMENT
__First$ = 8						; size = 4
__Last$ = 12						; size = 4
__Al$ = 16						; size = 4
___formal$ = 20						; size = 1
??$_Destroy_range@V?$allocator@UForceInfo@@@std@@@std@@YAXPAUForceInfo@@0AAV?$allocator@UForceInfo@@@0@U_Nonscalar_ptr_iterator_tag@0@@Z PROC ; std::_Destroy_range<std::allocator<ForceInfo> >, COMDAT

; 96   : 	for (; _First != _Last; ++_First)
; 97   : 		_Dest_val(_Al, _First);
; 98   : 	}

  00000	c3		 ret	 0
??$_Destroy_range@V?$allocator@UForceInfo@@@std@@@std@@YAXPAUForceInfo@@0AAV?$allocator@UForceInfo@@@0@U_Nonscalar_ptr_iterator_tag@0@@Z ENDP ; std::_Destroy_range<std::allocator<ForceInfo> >
_TEXT	ENDS
PUBLIC	??$_Dest_val@V?$allocator@UWeaponInfo@@@std@@UWeaponInfo@@@std@@YAXAAV?$allocator@UWeaponInfo@@@0@PAUWeaponInfo@@@Z ; std::_Dest_val<std::allocator<WeaponInfo>,WeaponInfo>
; Function compile flags: /Ogsp
;	COMDAT ??$_Dest_val@V?$allocator@UWeaponInfo@@@std@@UWeaponInfo@@@std@@YAXAAV?$allocator@UWeaponInfo@@@0@PAUWeaponInfo@@@Z
_TEXT	SEGMENT
__Alval$ = 8						; size = 4
__Pdest$ = 12						; size = 4
??$_Dest_val@V?$allocator@UWeaponInfo@@@std@@UWeaponInfo@@@std@@YAXAAV?$allocator@UWeaponInfo@@@0@PAUWeaponInfo@@@Z PROC ; std::_Dest_val<std::allocator<WeaponInfo>,WeaponInfo>, COMDAT

; 286  : 	{	// destroy using allocator

  00000	55		 push	 ebp
  00001	8b ec		 mov	 ebp, esp

; 287  : 	_Alval.destroy(_Pdest);

  00003	8b 4d 0c	 mov	 ecx, DWORD PTR __Pdest$[ebp]
  00006	83 c1 08	 add	 ecx, 8

; 288  : 	}

  00009	5d		 pop	 ebp

; 287  : 	_Alval.destroy(_Pdest);

  0000a	ff 25 00 00 00
	00		 jmp	 DWORD PTR __imp_??1ioHashString@@QAE@XZ
??$_Dest_val@V?$allocator@UWeaponInfo@@@std@@UWeaponInfo@@@std@@YAXAAV?$allocator@UWeaponInfo@@@0@PAUWeaponInfo@@@Z ENDP ; std::_Dest_val<std::allocator<WeaponInfo>,WeaponInfo>
_TEXT	ENDS
PUBLIC	_pStage$GSCopy$
PUBLIC	_pChar$GSCopy$
PUBLIC	__$ArrayPad$
PUBLIC	?OnProcessState@ioCircleMoveAttackSkill3@@UAEXPAVioBaseChar@@PAVioPlayStage@@@Z ; ioCircleMoveAttackSkill3::OnProcessState
EXTRN	?GetSkillKeyInput@ioBaseChar@@QAEHXZ:PROC	; ioBaseChar::GetSkillKeyInput
EXTRN	?IsJumpKey@ioBaseChar@@QBE_NXZ:PROC		; ioBaseChar::IsJumpKey
EXTRN	?IsDefenseKey@ioBaseChar@@QBE_NXZ:PROC		; ioBaseChar::IsDefenseKey
EXTRN	?SetTargetRotToTargetPos@ioBaseChar@@QAEXABUD3DXVECTOR3@@_N1@Z:PROC ; ioBaseChar::SetTargetRotToTargetPos
EXTRN	?UpdateMagicCirclePosAll2@ioBaseGUISupport@@QAEXMMM_N@Z:PROC ; ioBaseGUISupport::UpdateMagicCirclePosAll2
EXTRN	?CheckChangeDirectionForMagicCircle@ioBaseGUISupport@@QAE_NXZ:PROC ; ioBaseGUISupport::CheckChangeDirectionForMagicCircle
EXTRN	?IsAttackKey@ioBaseChar@@QBE_NXZ:PROC		; ioBaseChar::IsAttackKey
; Function compile flags: /Ogsp
; File d:\lost saga for developer\youtube\tutorial\source\src\lsclient\iocirclemoveattackskill3.cpp
;	COMDAT ?OnProcessState@ioCircleMoveAttackSkill3@@UAEXPAVioBaseChar@@PAVioPlayStage@@@Z
_TEXT	SEGMENT
_vCharPos$548268 = -44					; size = 12
_value$556564 = -32					; size = 4
_iSlot$ = -28						; size = 4
_pChar$GSCopy$ = -24					; size = 4
_pStage$GSCopy$ = -20					; size = 4
_value$556568 = -20					; size = 4
_vTargetPos$548269 = -16				; size = 12
__$ArrayPad$ = -4					; size = 4
_pChar$ = 8						; size = 4
_pStage$ = 12						; size = 4
?OnProcessState@ioCircleMoveAttackSkill3@@UAEXPAVioBaseChar@@PAVioPlayStage@@@Z PROC ; ioCircleMoveAttackSkill3::OnProcessState, COMDAT
; _this$ = ecx

; 213  : {

  00000	55		 push	 ebp
  00001	8b ec		 mov	 ebp, esp
  00003	83 ec 2c	 sub	 esp, 44			; 0000002cH
  00006	a1 00 00 00 00	 mov	 eax, DWORD PTR ___security_cookie
  0000b	33 c5		 xor	 eax, ebp
  0000d	89 45 fc	 mov	 DWORD PTR __$ArrayPad$[ebp], eax
  00010	8b 45 0c	 mov	 eax, DWORD PTR _pStage$[ebp]
  00013	53		 push	 ebx
  00014	56		 push	 esi
  00015	8b 75 08	 mov	 esi, DWORD PTR _pChar$[ebp]
  00018	8b d9		 mov	 ebx, ecx

; 226  : 			{
; 227  : 				m_dwPreDelayStartTime = 0;

  0001a	89 75 e8	 mov	 DWORD PTR _pChar$GSCopy$[ebp], esi
  0001d	89 45 ec	 mov	 DWORD PTR _pStage$GSCopy$[ebp], eax
  00020	85 f6		 test	 esi, esi
  00022	0f 84 c8 01 00
	00		 je	 $LN15@OnProcessS

; 214  : 	if( !pChar )
; 215  : 		return;
; 216  : 
; 217  : 	int iSlot = GetOwnerItem()->GetType() - 1;

  00028	8b 8b a4 02 00
	00		 mov	 ecx, DWORD PTR [ebx+676]
  0002e	8b 01		 mov	 eax, DWORD PTR [ecx]
  00030	57		 push	 edi
  00031	ff 50 08	 call	 DWORD PTR [eax+8]
  00034	48		 dec	 eax
  00035	89 45 e4	 mov	 DWORD PTR _iSlot$[ebp], eax

; 218  : 	DWORD dwCurTime = FRAMEGETTIME();

  00038	ff 15 00 00 00
	00		 call	 DWORD PTR __imp_?GetSingleton@ioFrameTimer@@SAAAV1@XZ
  0003e	8b c8		 mov	 ecx, eax
  00040	ff 15 00 00 00
	00		 call	 DWORD PTR __imp_?GetLoopSec@ioFrameTimer@@QBEKXZ
  00046	8b f8		 mov	 edi, eax

; 219  : 
; 220  : 	switch( m_State )

  00048	8d 45 e0	 lea	 eax, DWORD PTR _value$556564[ebp]
  0004b	50		 push	 eax
  0004c	8d 8b 58 0f 00
	00		 lea	 ecx, DWORD PTR [ebx+3928]
  00052	e8 00 00 00 00	 call	 ?DecryptValueToPool@?$CEncrypt@H@@QAEXPAH@Z ; CEncrypt<int>::DecryptValueToPool
  00057	8b 45 e0	 mov	 eax, DWORD PTR _value$556564[ebp]
  0005a	83 e8 00	 sub	 eax, 0
  0005d	0f 84 67 01 00
	00		 je	 $LN16@OnProcessS
  00063	48		 dec	 eax
  00064	0f 84 4e 01 00
	00		 je	 $LN14@OnProcessS
  0006a	48		 dec	 eax
  0006b	74 6b		 je	 SHORT $LN12@OnProcessS
  0006d	48		 dec	 eax
  0006e	74 41		 je	 SHORT $LN7@OnProcessS
  00070	48		 dec	 eax
  00071	0f 85 78 01 00
	00		 jne	 $LN28@OnProcessS

; 274  : 	case SS_ACTION:
; 275  : 		if( m_dwEnableReserveTime < dwCurTime )

  00077	39 bb dc 02 00
	00		 cmp	 DWORD PTR [ebx+732], edi
  0007d	0f 83 6c 01 00
	00		 jae	 $LN28@OnProcessS

; 276  : 		{
; 277  : 			if( pChar->IsNeedProcess() && pChar->IsAttackKey() )

  00083	8b 06		 mov	 eax, DWORD PTR [esi]
  00085	8b ce		 mov	 ecx, esi
  00087	ff 90 00 01 00
	00		 call	 DWORD PTR [eax+256]
  0008d	84 c0		 test	 al, al
  0008f	0f 84 5a 01 00
	00		 je	 $LN28@OnProcessS
  00095	8b ce		 mov	 ecx, esi
  00097	e8 00 00 00 00	 call	 ?IsAttackKey@ioBaseChar@@QBE_NXZ ; ioBaseChar::IsAttackKey
  0009c	84 c0		 test	 al, al
  0009e	0f 84 4b 01 00
	00		 je	 $LN28@OnProcessS

; 278  : 			{
; 279  : 				SetExtraActionState( pChar );

  000a4	56		 push	 esi
  000a5	8b cb		 mov	 ecx, ebx
  000a7	e8 00 00 00 00	 call	 ?SetExtraActionState@ioCircleMoveAttackSkill3@@IAEXPAVioBaseChar@@@Z ; ioCircleMoveAttackSkill3::SetExtraActionState

; 280  : 				return;

  000ac	e9 3e 01 00 00	 jmp	 $LN28@OnProcessS
$LN7@OnProcessS:

; 262  : 				}
; 263  : 			}
; 264  : 		}
; 265  : 		break;
; 266  : 	case SS_ACTION_LOOP:
; 267  : 		{
; 268  : 			if( CheckLanding( pChar ) )

  000b1	56		 push	 esi
  000b2	8b cb		 mov	 ecx, ebx
  000b4	e8 00 00 00 00	 call	 ?CheckLanding@ioCircleMoveAttackSkill3@@IAE_NPAVioBaseChar@@@Z ; ioCircleMoveAttackSkill3::CheckLanding

; 269  : 				SetActionState( pChar );

  000b9	8b cb		 mov	 ecx, ebx
  000bb	84 c0		 test	 al, al
  000bd	74 0b		 je	 SHORT $LN6@OnProcessS
  000bf	56		 push	 esi
  000c0	e8 00 00 00 00	 call	 ?SetActionState@ioCircleMoveAttackSkill3@@IAEXPAVioBaseChar@@@Z ; ioCircleMoveAttackSkill3::SetActionState

; 270  : 			else

  000c5	e9 25 01 00 00	 jmp	 $LN28@OnProcessS
$LN6@OnProcessS:

; 271  : 				ProcessMove( pChar, pStage );

  000ca	ff 75 ec	 push	 DWORD PTR _pStage$GSCopy$[ebp]
  000cd	56		 push	 esi
  000ce	e8 00 00 00 00	 call	 ?ProcessMove@ioCircleMoveAttackSkill3@@IAEXPAVioBaseChar@@PAVioPlayStage@@@Z ; ioCircleMoveAttackSkill3::ProcessMove

; 272  : 		}
; 273  : 		break;

  000d3	e9 17 01 00 00	 jmp	 $LN28@OnProcessS
$LN12@OnProcessS:

; 239  : 	case SS_WAIT:
; 240  : 		if( m_dwWaitStartTime + m_dwWaitDuration >= dwCurTime )

  000d8	8d 45 ec	 lea	 eax, DWORD PTR _value$556568[ebp]
  000db	50		 push	 eax
  000dc	8d 8b d0 0f 00
	00		 lea	 ecx, DWORD PTR [ebx+4048]
  000e2	e8 00 00 00 00	 call	 ?DecryptValueToPool@?$CEncrypt@K@@QAEXPAK@Z ; CEncrypt<unsigned long>::DecryptValueToPool
  000e7	8b 83 9c 0f 00
	00		 mov	 eax, DWORD PTR [ebx+3996]
  000ed	03 45 ec	 add	 eax, DWORD PTR _value$556568[ebp]
  000f0	3b c7		 cmp	 eax, edi
  000f2	0f 82 f7 00 00
	00		 jb	 $LN28@OnProcessS

; 241  : 		{
; 242  : 			//   
; 243  : 			pChar->CheckChangeDirectionForMagicCircle();

  000f8	8d 8e cc 01 00
	00		 lea	 ecx, DWORD PTR [esi+460]
  000fe	e8 00 00 00 00	 call	 ?CheckChangeDirectionForMagicCircle@ioBaseGUISupport@@QAE_NXZ ; ioBaseGUISupport::CheckChangeDirectionForMagicCircle

; 244  : 
; 245  : 			// MagicCircle  
; 246  : 			D3DXVECTOR3 vCharPos = pChar->GetWorldPosition();

  00103	8b 06		 mov	 eax, DWORD PTR [esi]
  00105	8b ce		 mov	 ecx, esi
  00107	ff 50 70	 call	 DWORD PTR [eax+112]
  0010a	8b f0		 mov	 esi, eax
  0010c	8d 7d d4	 lea	 edi, DWORD PTR _vCharPos$548268[ebp]
  0010f	a5		 movsd
  00110	a5		 movsd
  00111	a5		 movsd

; 247  : 			pChar->UpdateMagicCirclePosAll2( m_fCircleMoveSpeed, m_fCircleRange, vCharPos.y, false );

  00112	f3 0f 10 45 d8	 movss	 xmm0, DWORD PTR _vCharPos$548268[ebp+4]
  00117	8b 75 e8	 mov	 esi, DWORD PTR _pChar$GSCopy$[ebp]
  0011a	33 ff		 xor	 edi, edi
  0011c	57		 push	 edi
  0011d	83 ec 0c	 sub	 esp, 12			; 0000000cH
  00120	f3 0f 11 44 24
	08		 movss	 DWORD PTR [esp+8], xmm0
  00126	f3 0f 10 83 00
	10 00 00	 movss	 xmm0, DWORD PTR [ebx+4096]
  0012e	f3 0f 11 44 24
	04		 movss	 DWORD PTR [esp+4], xmm0
  00134	f3 0f 10 83 04
	10 00 00	 movss	 xmm0, DWORD PTR [ebx+4100]
  0013c	8d 8e cc 01 00
	00		 lea	 ecx, DWORD PTR [esi+460]
  00142	f3 0f 11 04 24	 movss	 DWORD PTR [esp], xmm0
  00147	e8 00 00 00 00	 call	 ?UpdateMagicCirclePosAll2@ioBaseGUISupport@@QAEXMMM_N@Z ; ioBaseGUISupport::UpdateMagicCirclePosAll2

; 248  : 
; 249  : 			// MagicCircle   
; 250  : 			D3DXVECTOR3 vTargetPos = pChar->GetMagicCirclePos();

  0014c	0f 57 c0	 xorps	 xmm0, xmm0
  0014f	57		 push	 edi
  00150	51		 push	 ecx
  00151	8d 45 f0	 lea	 eax, DWORD PTR _vTargetPos$548269[ebp]
  00154	f3 0f 11 04 24	 movss	 DWORD PTR [esp], xmm0
  00159	50		 push	 eax
  0015a	8d 8e cc 01 00
	00		 lea	 ecx, DWORD PTR [esi+460]
  00160	e8 00 00 00 00	 call	 ?GetMagicCirclePos@ioBaseGUISupport@@QBE?AUD3DXVECTOR3@@M_N@Z ; ioBaseGUISupport::GetMagicCirclePos

; 251  : 			pChar->SetTargetRotToTargetPos( vTargetPos, true, false );

  00165	57		 push	 edi
  00166	6a 01		 push	 1
  00168	8d 45 f0	 lea	 eax, DWORD PTR _vTargetPos$548269[ebp]
  0016b	50		 push	 eax
  0016c	8b ce		 mov	 ecx, esi
  0016e	e8 00 00 00 00	 call	 ?SetTargetRotToTargetPos@ioBaseChar@@QAEXABUD3DXVECTOR3@@_N1@Z ; ioBaseChar::SetTargetRotToTargetPos

; 252  : 
; 253  : 			if( pChar->IsNeedProcess() )

  00173	8b 06		 mov	 eax, DWORD PTR [esi]
  00175	8b ce		 mov	 ecx, esi
  00177	ff 90 00 01 00
	00		 call	 DWORD PTR [eax+256]
  0017d	84 c0		 test	 al, al
  0017f	74 6e		 je	 SHORT $LN28@OnProcessS

; 254  : 			{
; 255  : 				if( pChar->IsAttackKey() ||
; 256  : 					pChar->IsDefenseKey() ||
; 257  : 					pChar->IsJumpKey() ||
; 258  : 					pChar->GetSkillKeyInput() == iSlot )

  00181	8b ce		 mov	 ecx, esi
  00183	e8 00 00 00 00	 call	 ?IsAttackKey@ioBaseChar@@QBE_NXZ ; ioBaseChar::IsAttackKey
  00188	84 c0		 test	 al, al
  0018a	75 22		 jne	 SHORT $LN8@OnProcessS
  0018c	8b ce		 mov	 ecx, esi
  0018e	e8 00 00 00 00	 call	 ?IsDefenseKey@ioBaseChar@@QBE_NXZ ; ioBaseChar::IsDefenseKey
  00193	84 c0		 test	 al, al
  00195	75 17		 jne	 SHORT $LN8@OnProcessS
  00197	8b ce		 mov	 ecx, esi
  00199	e8 00 00 00 00	 call	 ?IsJumpKey@ioBaseChar@@QBE_NXZ ; ioBaseChar::IsJumpKey
  0019e	84 c0		 test	 al, al
  001a0	75 0c		 jne	 SHORT $LN8@OnProcessS
  001a2	8b ce		 mov	 ecx, esi
  001a4	e8 00 00 00 00	 call	 ?GetSkillKeyInput@ioBaseChar@@QAEHXZ ; ioBaseChar::GetSkillKeyInput
  001a9	3b 45 e4	 cmp	 eax, DWORD PTR _iSlot$[ebp]
  001ac	75 41		 jne	 SHORT $LN28@OnProcessS
$LN8@OnProcessS:

; 259  : 				{
; 260  : 					SetActionLoopState( pChar );

  001ae	56		 push	 esi
  001af	8b cb		 mov	 ecx, ebx
  001b1	e8 00 00 00 00	 call	 ?SetActionLoopState@ioCircleMoveAttackSkill3@@IAEXPAVioBaseChar@@@Z ; ioCircleMoveAttackSkill3::SetActionLoopState

; 261  : 					return;

  001b6	eb 37		 jmp	 SHORT $LN28@OnProcessS
$LN14@OnProcessS:

; 230  : 			}
; 231  : 		}
; 232  : 		break;
; 233  : 	case SS_PRE_ACTION:
; 234  : 		if( m_dwPreActionEndTime < dwCurTime )

  001b8	39 bb 88 0f 00
	00		 cmp	 DWORD PTR [ebx+3976], edi
  001be	73 2f		 jae	 SHORT $LN28@OnProcessS

; 235  : 		{
; 236  : 			SetWaitState( pChar );

  001c0	56		 push	 esi
  001c1	8b cb		 mov	 ecx, ebx
  001c3	e8 00 00 00 00	 call	 ?SetWaitState@ioCircleMoveAttackSkill3@@IAEXPAVioBaseChar@@@Z ; ioCircleMoveAttackSkill3::SetWaitState

; 237  : 		}
; 238  : 		break;

  001c8	eb 25		 jmp	 SHORT $LN28@OnProcessS
$LN16@OnProcessS:

; 221  : 	{
; 222  : 	case SS_NONE:
; 223  : 		{
; 224  : 			DWORD dwPreDelayTime = GetPreDelayTime();

  001ca	8b 03		 mov	 eax, DWORD PTR [ebx]
  001cc	8b cb		 mov	 ecx, ebx
  001ce	ff 90 34 01 00
	00		 call	 DWORD PTR [eax+308]

; 225  : 			if( m_dwPreDelayStartTime + dwPreDelayTime < dwCurTime )

  001d4	8b 93 20 02 00
	00		 mov	 edx, DWORD PTR [ebx+544]
  001da	03 d0		 add	 edx, eax
  001dc	3b d7		 cmp	 edx, edi
  001de	73 0f		 jae	 SHORT $LN28@OnProcessS

; 226  : 			{
; 227  : 				m_dwPreDelayStartTime = 0;

  001e0	83 a3 20 02 00
	00 00		 and	 DWORD PTR [ebx+544], 0

; 228  : 
; 229  : 				SetPreAction( pChar );

  001e7	56		 push	 esi
  001e8	8b cb		 mov	 ecx, ebx
  001ea	e8 00 00 00 00	 call	 ?SetPreAction@ioCircleMoveAttackSkill3@@IAEXPAVioBaseChar@@@Z ; ioCircleMoveAttackSkill3::SetPreAction
$LN28@OnProcessS:
  001ef	5f		 pop	 edi
$LN15@OnProcessS:

; 281  : 			}
; 282  : 		}
; 283  : 		break;
; 284  : 	case SS_EXTRA_ACTION:
; 285  : 		{
; 286  : 		}
; 287  : 		break;
; 288  : 	}
; 289  : }

  001f0	8b 4d fc	 mov	 ecx, DWORD PTR __$ArrayPad$[ebp]
  001f3	5e		 pop	 esi
  001f4	33 cd		 xor	 ecx, ebp
  001f6	5b		 pop	 ebx
  001f7	e8 00 00 00 00	 call	 @__security_check_cookie@4
  001fc	c9		 leave
  001fd	c2 08 00	 ret	 8
?OnProcessState@ioCircleMoveAttackSkill3@@UAEXPAVioBaseChar@@PAVioPlayStage@@@Z ENDP ; ioCircleMoveAttackSkill3::OnProcessState
_TEXT	ENDS
PUBLIC	?ApplyExtraSkillInfo@ioCircleMoveAttackSkill3@@UAEXPAVioBaseChar@@PAVioPlayStage@@AAVSP2Packet@@@Z ; ioCircleMoveAttackSkill3::ApplyExtraSkillInfo
EXTRN	??5SP2Packet@@QAEAAV0@AAH@Z:PROC		; SP2Packet::operator>>
; Function compile flags: /Ogsp
;	COMDAT ?ApplyExtraSkillInfo@ioCircleMoveAttackSkill3@@UAEXPAVioBaseChar@@PAVioPlayStage@@AAVSP2Packet@@@Z
_TEXT	SEGMENT
_pChar$ = 8						; size = 4
_pStage$ = 12						; size = 4
_iType$ = 16						; size = 4
_rkPacket$ = 16						; size = 4
?ApplyExtraSkillInfo@ioCircleMoveAttackSkill3@@UAEXPAVioBaseChar@@PAVioPlayStage@@AAVSP2Packet@@@Z PROC ; ioCircleMoveAttackSkill3::ApplyExtraSkillInfo, COMDAT
; _this$ = ecx

; 442  : {

  00000	55		 push	 ebp
  00001	8b ec		 mov	 ebp, esp
  00003	56		 push	 esi

; 443  : 	int iType;
; 444  : 	rkPacket >> iType;

  00004	8d 45 10	 lea	 eax, DWORD PTR _iType$[ebp]
  00007	8b f1		 mov	 esi, ecx
  00009	8b 4d 10	 mov	 ecx, DWORD PTR _rkPacket$[ebp]
  0000c	50		 push	 eax
  0000d	e8 00 00 00 00	 call	 ??5SP2Packet@@QAEAAV0@AAH@Z ; SP2Packet::operator>>

; 445  : 
; 446  : 	switch( iType )

  00012	8b 45 10	 mov	 eax, DWORD PTR _iType$[ebp]
  00015	83 e8 03	 sub	 eax, 3
  00018	74 10		 je	 SHORT $LN2@ApplyExtra
  0001a	48		 dec	 eax
  0001b	48		 dec	 eax
  0001c	75 16		 jne	 SHORT $LN3@ApplyExtra

; 450  : 		break;
; 451  : 	case SS_EXTRA_ACTION:
; 452  : 		SetExtraActionState( pChar );

  0001e	ff 75 08	 push	 DWORD PTR _pChar$[ebp]
  00021	8b ce		 mov	 ecx, esi
  00023	e8 00 00 00 00	 call	 ?SetExtraActionState@ioCircleMoveAttackSkill3@@IAEXPAVioBaseChar@@@Z ; ioCircleMoveAttackSkill3::SetExtraActionState

; 453  : 		break;

  00028	eb 0a		 jmp	 SHORT $LN3@ApplyExtra
$LN2@ApplyExtra:

; 447  : 	{
; 448  : 	case SS_ACTION_LOOP:
; 449  : 		SetActionLoopState( pChar );

  0002a	ff 75 08	 push	 DWORD PTR _pChar$[ebp]
  0002d	8b ce		 mov	 ecx, esi
  0002f	e8 00 00 00 00	 call	 ?SetActionLoopState@ioCircleMoveAttackSkill3@@IAEXPAVioBaseChar@@@Z ; ioCircleMoveAttackSkill3::SetActionLoopState
$LN3@ApplyExtra:
  00034	5e		 pop	 esi

; 454  : 	}
; 455  : }

  00035	5d		 pop	 ebp
  00036	c2 0c 00	 ret	 12			; 0000000cH
?ApplyExtraSkillInfo@ioCircleMoveAttackSkill3@@UAEXPAVioBaseChar@@PAVioPlayStage@@AAVSP2Packet@@@Z ENDP ; ioCircleMoveAttackSkill3::ApplyExtraSkillInfo
_TEXT	ENDS
PUBLIC	??$_Uninitialized_copy@V?$_Vector_const_iterator@V?$_Vector_val@UForceInfo@@V?$allocator@UForceInfo@@@std@@@std@@@std@@PAUForceInfo@@V?$allocator@UForceInfo@@@2@@std@@YAPAUForceInfo@@V?$_Vector_const_iterator@V?$_Vector_val@UForceInfo@@V?$allocator@UForceInfo@@@std@@@std@@@0@0PAU1@AAV?$allocator@UForceInfo@@@0@@Z ; std::_Uninitialized_copy<std::_Vector_const_iterator<std::_Vector_val<ForceInfo,std::allocator<ForceInfo> > >,ForceInfo *,std::allocator<ForceInfo> >
; Function compile flags: /Ogsp
; File c:\program files (x86)\microsoft visual studio 10.0\vc\include\memory
;	COMDAT ??$_Uninitialized_copy@V?$_Vector_const_iterator@V?$_Vector_val@UForceInfo@@V?$allocator@UForceInfo@@@std@@@std@@@std@@PAUForceInfo@@V?$allocator@UForceInfo@@@2@@std@@YAPAUForceInfo@@V?$_Vector_const_iterator@V?$_Vector_val@UForceInfo@@V?$allocator@UForceInfo@@@std@@@std@@@0@0PAU1@AAV?$allocator@UForceInfo@@@0@@Z
_TEXT	SEGMENT
__Cat$556580 = -4					; size = 1
__First$ = 8						; size = 4
__Last$ = 12						; size = 4
__Dest$ = 16						; size = 4
__Al$ = 20						; size = 4
??$_Uninitialized_copy@V?$_Vector_const_iterator@V?$_Vector_val@UForceInfo@@V?$allocator@UForceInfo@@@std@@@std@@@std@@PAUForceInfo@@V?$allocator@UForceInfo@@@2@@std@@YAPAUForceInfo@@V?$_Vector_const_iterator@V?$_Vector_val@UForceInfo@@V?$allocator@UForceInfo@@@std@@@std@@@0@0PAU1@AAV?$allocator@UForceInfo@@@0@@Z PROC ; std::_Uninitialized_copy<std::_Vector_const_iterator<std::_Vector_val<ForceInfo,std::allocator<ForceInfo> > >,ForceInfo *,std::allocator<ForceInfo> >, COMDAT

; 412  : 	{	// copy [_First, _Last) to raw _Dest, using _Al

  00000	55		 push	 ebp
  00001	8b ec		 mov	 ebp, esp
  00003	51		 push	 ecx

; 413  : 	return (_Uninit_copy(_First, _Last, _Dest, _Al,
; 414  : 		_Ptr_cat(_First, _Dest)));

  00004	ff 75 fc	 push	 DWORD PTR __Cat$556580[ebp]
  00007	ff 75 14	 push	 DWORD PTR __Al$[ebp]
  0000a	ff 75 10	 push	 DWORD PTR __Dest$[ebp]
  0000d	ff 75 0c	 push	 DWORD PTR __Last$[ebp]
  00010	ff 75 08	 push	 DWORD PTR __First$[ebp]
  00013	e8 00 00 00 00	 call	 ??$_Uninit_copy@V?$_Vector_const_iterator@V?$_Vector_val@UForceInfo@@V?$allocator@UForceInfo@@@std@@@std@@@std@@PAUForceInfo@@V?$allocator@UForceInfo@@@2@@std@@YAPAUForceInfo@@V?$_Vector_const_iterator@V?$_Vector_val@UForceInfo@@V?$allocator@UForceInfo@@@std@@@std@@@0@0PAU1@AAV?$allocator@UForceInfo@@@0@U_Nonscalar_ptr_iterator_tag@0@@Z ; std::_Uninit_copy<std::_Vector_const_iterator<std::_Vector_val<ForceInfo,std::allocator<ForceInfo> > >,ForceInfo *,std::allocator<ForceInfo> >
  00018	83 c4 14	 add	 esp, 20			; 00000014H

; 415  : 	}

  0001b	c9		 leave
  0001c	c3		 ret	 0
??$_Uninitialized_copy@V?$_Vector_const_iterator@V?$_Vector_val@UForceInfo@@V?$allocator@UForceInfo@@@std@@@std@@@std@@PAUForceInfo@@V?$allocator@UForceInfo@@@2@@std@@YAPAUForceInfo@@V?$_Vector_const_iterator@V?$_Vector_val@UForceInfo@@V?$allocator@UForceInfo@@@std@@@std@@@0@0PAU1@AAV?$allocator@UForceInfo@@@0@@Z ENDP ; std::_Uninitialized_copy<std::_Vector_const_iterator<std::_Vector_val<ForceInfo,std::allocator<ForceInfo> > >,ForceInfo *,std::allocator<ForceInfo> >
_TEXT	ENDS
PUBLIC	??$_Uninit_copy@V?$_Vector_const_iterator@V?$_Vector_val@UWeaponInfo@@V?$allocator@UWeaponInfo@@@std@@@std@@@std@@PAUWeaponInfo@@V?$allocator@UWeaponInfo@@@2@@std@@YAPAUWeaponInfo@@V?$_Vector_const_iterator@V?$_Vector_val@UWeaponInfo@@V?$allocator@UWeaponInfo@@@std@@@std@@@0@0PAU1@AAV?$allocator@UWeaponInfo@@@0@U_Nonscalar_ptr_iterator_tag@0@@Z ; std::_Uninit_copy<std::_Vector_const_iterator<std::_Vector_val<WeaponInfo,std::allocator<WeaponInfo> > >,WeaponInfo *,std::allocator<WeaponInfo> >
EXTRN	__EH_prolog3_catch:PROC
;	COMDAT xdata$x
; File d:\lost saga for developer\youtube\tutorial\source\src\lsclient\playentityhelpstruct.h
xdata$x	SEGMENT
__catchsym$??$_Uninit_copy@V?$_Vector_const_iterator@V?$_Vector_val@UWeaponInfo@@V?$allocator@UWeaponInfo@@@std@@@std@@@std@@PAUWeaponInfo@@V?$allocator@UWeaponInfo@@@2@@std@@YAPAUWeaponInfo@@V?$_Vector_const_iterator@V?$_Vector_val@UWeaponInfo@@V?$allocator@UWeaponInfo@@@std@@@std@@@0@0PAU1@AAV?$allocator@UWeaponInfo@@@0@U_Nonscalar_ptr_iterator_tag@0@@Z$3 DD 040H
	DD	00H
	DD	00H
	DD	FLAT:__catch$??$_Uninit_copy@V?$_Vector_const_iterator@V?$_Vector_val@UWeaponInfo@@V?$allocator@UWeaponInfo@@@std@@@std@@@std@@PAUWeaponInfo@@V?$allocator@UWeaponInfo@@@2@@std@@YAPAUWeaponInfo@@V?$_Vector_const_iterator@V?$_Vector_val@UWeaponInfo@@V?$allocator@UWeaponInfo@@@std@@@std@@@0@0PAU1@AAV?$allocator@UWeaponInfo@@@0@U_Nonscalar_ptr_iterator_tag@0@@Z$0
__unwindtable$??$_Uninit_copy@V?$_Vector_const_iterator@V?$_Vector_val@UWeaponInfo@@V?$allocator@UWeaponInfo@@@std@@@std@@@std@@PAUWeaponInfo@@V?$allocator@UWeaponInfo@@@2@@std@@YAPAUWeaponInfo@@V?$_Vector_const_iterator@V?$_Vector_val@UWeaponInfo@@V?$allocator@UWeaponInfo@@@std@@@std@@@0@0PAU1@AAV?$allocator@UWeaponInfo@@@0@U_Nonscalar_ptr_iterator_tag@0@@Z DD 0ffffffffH
	DD	00H
	DD	0ffffffffH
	DD	00H
__tryblocktable$??$_Uninit_copy@V?$_Vector_const_iterator@V?$_Vector_val@UWeaponInfo@@V?$allocator@UWeaponInfo@@@std@@@std@@@std@@PAUWeaponInfo@@V?$allocator@UWeaponInfo@@@2@@std@@YAPAUWeaponInfo@@V?$_Vector_const_iterator@V?$_Vector_val@UWeaponInfo@@V?$allocator@UWeaponInfo@@@std@@@std@@@0@0PAU1@AAV?$allocator@UWeaponInfo@@@0@U_Nonscalar_ptr_iterator_tag@0@@Z DD 00H
	DD	00H
	DD	01H
	DD	01H
	DD	FLAT:__catchsym$??$_Uninit_copy@V?$_Vector_const_iterator@V?$_Vector_val@UWeaponInfo@@V?$allocator@UWeaponInfo@@@std@@@std@@@std@@PAUWeaponInfo@@V?$allocator@UWeaponInfo@@@2@@std@@YAPAUWeaponInfo@@V?$_Vector_const_iterator@V?$_Vector_val@UWeaponInfo@@V?$allocator@UWeaponInfo@@@std@@@std@@@0@0PAU1@AAV?$allocator@UWeaponInfo@@@0@U_Nonscalar_ptr_iterator_tag@0@@Z$3
__ehfuncinfo$??$_Uninit_copy@V?$_Vector_const_iterator@V?$_Vector_val@UWeaponInfo@@V?$allocator@UWeaponInfo@@@std@@@std@@@std@@PAUWeaponInfo@@V?$allocator@UWeaponInfo@@@2@@std@@YAPAUWeaponInfo@@V?$_Vector_const_iterator@V?$_Vector_val@UWeaponInfo@@V?$allocator@UWeaponInfo@@@std@@@std@@@0@0PAU1@AAV?$allocator@UWeaponInfo@@@0@U_Nonscalar_ptr_iterator_tag@0@@Z DD 019930522H
	DD	02H
	DD	FLAT:__unwindtable$??$_Uninit_copy@V?$_Vector_const_iterator@V?$_Vector_val@UWeaponInfo@@V?$allocator@UWeaponInfo@@@std@@@std@@@std@@PAUWeaponInfo@@V?$allocator@UWeaponInfo@@@2@@std@@YAPAUWeaponInfo@@V?$_Vector_const_iterator@V?$_Vector_val@UWeaponInfo@@V?$allocator@UWeaponInfo@@@std@@@std@@@0@0PAU1@AAV?$allocator@UWeaponInfo@@@0@U_Nonscalar_ptr_iterator_tag@0@@Z
	DD	01H
	DD	FLAT:__tryblocktable$??$_Uninit_copy@V?$_Vector_const_iterator@V?$_Vector_val@UWeaponInfo@@V?$allocator@UWeaponInfo@@@std@@@std@@@std@@PAUWeaponInfo@@V?$allocator@UWeaponInfo@@@2@@std@@YAPAUWeaponInfo@@V?$_Vector_const_iterator@V?$_Vector_val@UWeaponInfo@@V?$allocator@UWeaponInfo@@@std@@@std@@@0@0PAU1@AAV?$allocator@UWeaponInfo@@@0@U_Nonscalar_ptr_iterator_tag@0@@Z
	DD	2 DUP(00H)
	DD	00H
	DD	01H
; Function compile flags: /Ogsp
; File c:\program files (x86)\microsoft visual studio 10.0\vc\include\memory
xdata$x	ENDS
;	COMDAT ??$_Uninit_copy@V?$_Vector_const_iterator@V?$_Vector_val@UWeaponInfo@@V?$allocator@UWeaponInfo@@@std@@@std@@@std@@PAUWeaponInfo@@V?$allocator@UWeaponInfo@@@2@@std@@YAPAUWeaponInfo@@V?$_Vector_const_iterator@V?$_Vector_val@UWeaponInfo@@V?$allocator@UWeaponInfo@@@std@@@std@@@0@0PAU1@AAV?$allocator@UWeaponInfo@@@0@U_Nonscalar_ptr_iterator_tag@0@@Z
_TEXT	SEGMENT
__Next$ = -20						; size = 4
__$EHRec$ = -16						; size = 16
__First$ = 8						; size = 4
__Last$ = 12						; size = 4
__Dest$ = 16						; size = 4
__Al$ = 20						; size = 4
___formal$ = 24						; size = 1
??$_Uninit_copy@V?$_Vector_const_iterator@V?$_Vector_val@UWeaponInfo@@V?$allocator@UWeaponInfo@@@std@@@std@@@std@@PAUWeaponInfo@@V?$allocator@UWeaponInfo@@@2@@std@@YAPAUWeaponInfo@@V?$_Vector_const_iterator@V?$_Vector_val@UWeaponInfo@@V?$allocator@UWeaponInfo@@@std@@@std@@@0@0PAU1@AAV?$allocator@UWeaponInfo@@@0@U_Nonscalar_ptr_iterator_tag@0@@Z PROC ; std::_Uninit_copy<std::_Vector_const_iterator<std::_Vector_val<WeaponInfo,std::allocator<WeaponInfo> > >,WeaponInfo *,std::allocator<WeaponInfo> >, COMDAT

; 369  : 	{	// copy [_First, _Last) to raw _Dest, using _Al, arbitrary type

  00000	6a 08		 push	 8
  00002	b8 00 00 00 00	 mov	 eax, __ehhandler$??$_Uninit_copy@V?$_Vector_const_iterator@V?$_Vector_val@UWeaponInfo@@V?$allocator@UWeaponInfo@@@std@@@std@@@std@@PAUWeaponInfo@@V?$allocator@UWeaponInfo@@@2@@std@@YAPAUWeaponInfo@@V?$_Vector_const_iterator@V?$_Vector_val@UWeaponInfo@@V?$allocator@UWeaponInfo@@@std@@@std@@@0@0PAU1@AAV?$allocator@UWeaponInfo@@@0@U_Nonscalar_ptr_iterator_tag@0@@Z
  00007	e8 00 00 00 00	 call	 __EH_prolog3_catch

; 370  : 	_DEBUG_RANGE(_First, _Last);
; 371  : 	_DEBUG_POINTER(_Dest);
; 372  : 	_FwdIt _Next = _Dest;

  0000c	8b 45 10	 mov	 eax, DWORD PTR __Dest$[ebp]

; 373  : 
; 374  : 	_TRY_BEGIN

  0000f	83 65 fc 00	 and	 DWORD PTR __$EHRec$[ebp+12], 0
  00013	89 45 ec	 mov	 DWORD PTR __Next$[ebp], eax

; 375  : 	for (; _First != _Last; ++_Dest, ++_First)

$LL14@Uninit_cop@2:
  00016	8b 45 08	 mov	 eax, DWORD PTR __First$[ebp]
  00019	3b 45 0c	 cmp	 eax, DWORD PTR __Last$[ebp]
  0001c	74 34		 je	 SHORT $LN4@Uninit_cop@2

; 376  : 		_Cons_val(_Al, _Dest, *_First);

  0001e	50		 push	 eax
  0001f	ff 75 10	 push	 DWORD PTR __Dest$[ebp]
  00022	e8 00 00 00 00	 call	 ??$_Construct@UWeaponInfo@@ABU1@@std@@YAXPAUWeaponInfo@@ABU1@@Z ; std::_Construct<WeaponInfo,WeaponInfo const &>
  00027	83 45 10 28	 add	 DWORD PTR __Dest$[ebp], 40 ; 00000028H
  0002b	83 45 08 28	 add	 DWORD PTR __First$[ebp], 40 ; 00000028H
  0002f	59		 pop	 ecx
  00030	59		 pop	 ecx
  00031	eb e3		 jmp	 SHORT $LL14@Uninit_cop@2
__catch$??$_Uninit_copy@V?$_Vector_const_iterator@V?$_Vector_val@UWeaponInfo@@V?$allocator@UWeaponInfo@@@std@@@std@@@std@@PAUWeaponInfo@@V?$allocator@UWeaponInfo@@@2@@std@@YAPAUWeaponInfo@@V?$_Vector_const_iterator@V?$_Vector_val@UWeaponInfo@@V?$allocator@UWeaponInfo@@@std@@@std@@@0@0PAU1@AAV?$allocator@UWeaponInfo@@@0@U_Nonscalar_ptr_iterator_tag@0@@Z$0:

; 377  : 	_CATCH_ALL
; 378  : 	for (; _Next != _Dest; ++_Next)

  00033	8b 75 ec	 mov	 esi, DWORD PTR __Next$[ebp]
  00036	eb 0c		 jmp	 SHORT $LN48@Uninit_cop@2
$LL3@Uninit_cop@2:

; 379  : 		_Dest_val(_Al, _Next);

  00038	8d 4e 08	 lea	 ecx, DWORD PTR [esi+8]
  0003b	ff 15 00 00 00
	00		 call	 DWORD PTR __imp_??1ioHashString@@QAE@XZ
  00041	83 c6 28	 add	 esi, 40			; 00000028H
$LN48@Uninit_cop@2:

; 377  : 	_CATCH_ALL
; 378  : 	for (; _Next != _Dest; ++_Next)

  00044	3b 75 10	 cmp	 esi, DWORD PTR __Dest$[ebp]
  00047	75 ef		 jne	 SHORT $LL3@Uninit_cop@2

; 380  : 	_RERAISE;

  00049	6a 00		 push	 0
  0004b	6a 00		 push	 0
  0004d	e8 00 00 00 00	 call	 __CxxThrowException@8
$LN49@Uninit_cop@2:
$LN4@Uninit_cop@2:

; 381  : 	_CATCH_END
; 382  : 	return (_Dest);

  00052	8b 45 10	 mov	 eax, DWORD PTR __Dest$[ebp]

; 383  : 	}

  00055	e8 00 00 00 00	 call	 __EH_epilog3
  0005a	c3		 ret	 0
$LN47@Uninit_cop@2:
_TEXT	ENDS
;	COMDAT text$x
text$x	SEGMENT
__ehhandler$??$_Uninit_copy@V?$_Vector_const_iterator@V?$_Vector_val@UWeaponInfo@@V?$allocator@UWeaponInfo@@@std@@@std@@@std@@PAUWeaponInfo@@V?$allocator@UWeaponInfo@@@2@@std@@YAPAUWeaponInfo@@V?$_Vector_const_iterator@V?$_Vector_val@UWeaponInfo@@V?$allocator@UWeaponInfo@@@std@@@std@@@0@0PAU1@AAV?$allocator@UWeaponInfo@@@0@U_Nonscalar_ptr_iterator_tag@0@@Z:
  00000	8b 54 24 08	 mov	 edx, DWORD PTR [esp+8]
  00004	8d 42 0c	 lea	 eax, DWORD PTR [edx+12]
  00007	8b 4a e8	 mov	 ecx, DWORD PTR [edx-24]
  0000a	33 c8		 xor	 ecx, eax
  0000c	e8 00 00 00 00	 call	 @__security_check_cookie@4
  00011	b8 00 00 00 00	 mov	 eax, OFFSET __ehfuncinfo$??$_Uninit_copy@V?$_Vector_const_iterator@V?$_Vector_val@UWeaponInfo@@V?$allocator@UWeaponInfo@@@std@@@std@@@std@@PAUWeaponInfo@@V?$allocator@UWeaponInfo@@@2@@std@@YAPAUWeaponInfo@@V?$_Vector_const_iterator@V?$_Vector_val@UWeaponInfo@@V?$allocator@UWeaponInfo@@@std@@@std@@@0@0PAU1@AAV?$allocator@UWeaponInfo@@@0@U_Nonscalar_ptr_iterator_tag@0@@Z
  00016	e9 00 00 00 00	 jmp	 ___CxxFrameHandler3
text$x	ENDS
??$_Uninit_copy@V?$_Vector_const_iterator@V?$_Vector_val@UWeaponInfo@@V?$allocator@UWeaponInfo@@@std@@@std@@@std@@PAUWeaponInfo@@V?$allocator@UWeaponInfo@@@2@@std@@YAPAUWeaponInfo@@V?$_Vector_const_iterator@V?$_Vector_val@UWeaponInfo@@V?$allocator@UWeaponInfo@@@std@@@std@@@0@0PAU1@AAV?$allocator@UWeaponInfo@@@0@U_Nonscalar_ptr_iterator_tag@0@@Z ENDP ; std::_Uninit_copy<std::_Vector_const_iterator<std::_Vector_val<WeaponInfo,std::allocator<WeaponInfo> > >,WeaponInfo *,std::allocator<WeaponInfo> >
PUBLIC	??$_Destroy_range@V?$allocator@UForceInfo@@@std@@@std@@YAXPAUForceInfo@@0AAV?$allocator@UForceInfo@@@0@@Z ; std::_Destroy_range<std::allocator<ForceInfo> >
; Function compile flags: /Ogsp
; File c:\program files (x86)\microsoft visual studio 10.0\vc\include\xmemory
;	COMDAT ??$_Destroy_range@V?$allocator@UForceInfo@@@std@@@std@@YAXPAUForceInfo@@0AAV?$allocator@UForceInfo@@@0@@Z
_TEXT	SEGMENT
__First$ = 8						; size = 4
__Last$ = 12						; size = 4
__Al$ = 16						; size = 4
??$_Destroy_range@V?$allocator@UForceInfo@@@std@@@std@@YAXPAUForceInfo@@0AAV?$allocator@UForceInfo@@@0@@Z PROC ; std::_Destroy_range<std::allocator<ForceInfo> >, COMDAT

; 88   : 	_Destroy_range(_First, _Last, _Al, _Ptr_cat(_First, _Last));
; 89   : 	}

  00000	c3		 ret	 0
??$_Destroy_range@V?$allocator@UForceInfo@@@std@@@std@@YAXPAUForceInfo@@0AAV?$allocator@UForceInfo@@@0@@Z ENDP ; std::_Destroy_range<std::allocator<ForceInfo> >
_TEXT	ENDS
PUBLIC	??$_Destroy_range@V?$allocator@UWeaponInfo@@@std@@@std@@YAXPAUWeaponInfo@@0AAV?$allocator@UWeaponInfo@@@0@U_Nonscalar_ptr_iterator_tag@0@@Z ; std::_Destroy_range<std::allocator<WeaponInfo> >
; Function compile flags: /Ogsp
;	COMDAT ??$_Destroy_range@V?$allocator@UWeaponInfo@@@std@@@std@@YAXPAUWeaponInfo@@0AAV?$allocator@UWeaponInfo@@@0@U_Nonscalar_ptr_iterator_tag@0@@Z
_TEXT	SEGMENT
__First$ = 8						; size = 4
__Last$ = 12						; size = 4
__Al$ = 16						; size = 4
___formal$ = 20						; size = 1
??$_Destroy_range@V?$allocator@UWeaponInfo@@@std@@@std@@YAXPAUWeaponInfo@@0AAV?$allocator@UWeaponInfo@@@0@U_Nonscalar_ptr_iterator_tag@0@@Z PROC ; std::_Destroy_range<std::allocator<WeaponInfo> >, COMDAT

; 95   : 	{	// destroy [_First, _Last), arbitrary type

  00000	55		 push	 ebp
  00001	8b ec		 mov	 ebp, esp
  00003	56		 push	 esi

; 96   : 	for (; _First != _Last; ++_First)

  00004	8b 75 08	 mov	 esi, DWORD PTR __First$[ebp]
  00007	eb 0c		 jmp	 SHORT $LN20@Destroy_ra
$LL3@Destroy_ra:

; 97   : 		_Dest_val(_Al, _First);

  00009	8d 4e 08	 lea	 ecx, DWORD PTR [esi+8]
  0000c	ff 15 00 00 00
	00		 call	 DWORD PTR __imp_??1ioHashString@@QAE@XZ
  00012	83 c6 28	 add	 esi, 40			; 00000028H
$LN20@Destroy_ra:

; 96   : 	for (; _First != _Last; ++_First)

  00015	3b 75 0c	 cmp	 esi, DWORD PTR __Last$[ebp]
  00018	75 ef		 jne	 SHORT $LL3@Destroy_ra
  0001a	5e		 pop	 esi

; 98   : 	}

  0001b	5d		 pop	 ebp
  0001c	c3		 ret	 0
??$_Destroy_range@V?$allocator@UWeaponInfo@@@std@@@std@@YAXPAUWeaponInfo@@0AAV?$allocator@UWeaponInfo@@@0@U_Nonscalar_ptr_iterator_tag@0@@Z ENDP ; std::_Destroy_range<std::allocator<WeaponInfo> >
_TEXT	ENDS
PUBLIC	??$_Ucopy@V?$_Vector_const_iterator@V?$_Vector_val@UForceInfo@@V?$allocator@UForceInfo@@@std@@@std@@@std@@@?$vector@UForceInfo@@V?$allocator@UForceInfo@@@std@@@std@@IAEPAUForceInfo@@V?$_Vector_const_iterator@V?$_Vector_val@UForceInfo@@V?$allocator@UForceInfo@@@std@@@std@@@1@0PAU2@@Z ; std::vector<ForceInfo,std::allocator<ForceInfo> >::_Ucopy<std::_Vector_const_iterator<std::_Vector_val<ForceInfo,std::allocator<ForceInfo> > > >
; Function compile flags: /Ogsp
; File c:\program files (x86)\microsoft visual studio 10.0\vc\include\vector
;	COMDAT ??$_Ucopy@V?$_Vector_const_iterator@V?$_Vector_val@UForceInfo@@V?$allocator@UForceInfo@@@std@@@std@@@std@@@?$vector@UForceInfo@@V?$allocator@UForceInfo@@@std@@@std@@IAEPAUForceInfo@@V?$_Vector_const_iterator@V?$_Vector_val@UForceInfo@@V?$allocator@UForceInfo@@@std@@@std@@@1@0PAU2@@Z
_TEXT	SEGMENT
__First$ = 8						; size = 4
__Last$ = 12						; size = 4
__Cat$556774 = 16					; size = 1
__Ptr$ = 16						; size = 4
??$_Ucopy@V?$_Vector_const_iterator@V?$_Vector_val@UForceInfo@@V?$allocator@UForceInfo@@@std@@@std@@@std@@@?$vector@UForceInfo@@V?$allocator@UForceInfo@@@std@@@std@@IAEPAUForceInfo@@V?$_Vector_const_iterator@V?$_Vector_val@UForceInfo@@V?$allocator@UForceInfo@@@std@@@std@@@1@0PAU2@@Z PROC ; std::vector<ForceInfo,std::allocator<ForceInfo> >::_Ucopy<std::_Vector_const_iterator<std::_Vector_val<ForceInfo,std::allocator<ForceInfo> > > >, COMDAT
; _this$ = ecx

; 1315 : 		pointer _Ucopy(_Iter _First, _Iter _Last, pointer _Ptr)

  00000	55		 push	 ebp
  00001	8b ec		 mov	 ebp, esp

; 1316 : 		{	// copy initializing [_First, _Last), using allocator
; 1317 : 		return (_Uninitialized_copy(_First, _Last,
; 1318 : 			_Ptr, this->_Alval));

  00003	ff 75 10	 push	 DWORD PTR __Cat$556774[ebp]
  00006	83 c1 0c	 add	 ecx, 12			; 0000000cH
  00009	51		 push	 ecx
  0000a	ff 75 10	 push	 DWORD PTR __Ptr$[ebp]
  0000d	ff 75 0c	 push	 DWORD PTR __Last$[ebp]
  00010	ff 75 08	 push	 DWORD PTR __First$[ebp]
  00013	e8 00 00 00 00	 call	 ??$_Uninit_copy@V?$_Vector_const_iterator@V?$_Vector_val@UForceInfo@@V?$allocator@UForceInfo@@@std@@@std@@@std@@PAUForceInfo@@V?$allocator@UForceInfo@@@2@@std@@YAPAUForceInfo@@V?$_Vector_const_iterator@V?$_Vector_val@UForceInfo@@V?$allocator@UForceInfo@@@std@@@std@@@0@0PAU1@AAV?$allocator@UForceInfo@@@0@U_Nonscalar_ptr_iterator_tag@0@@Z ; std::_Uninit_copy<std::_Vector_const_iterator<std::_Vector_val<ForceInfo,std::allocator<ForceInfo> > >,ForceInfo *,std::allocator<ForceInfo> >
  00018	83 c4 14	 add	 esp, 20			; 00000014H

; 1319 : 		}

  0001b	5d		 pop	 ebp
  0001c	c2 0c 00	 ret	 12			; 0000000cH
??$_Ucopy@V?$_Vector_const_iterator@V?$_Vector_val@UForceInfo@@V?$allocator@UForceInfo@@@std@@@std@@@std@@@?$vector@UForceInfo@@V?$allocator@UForceInfo@@@std@@@std@@IAEPAUForceInfo@@V?$_Vector_const_iterator@V?$_Vector_val@UForceInfo@@V?$allocator@UForceInfo@@@std@@@std@@@1@0PAU2@@Z ENDP ; std::vector<ForceInfo,std::allocator<ForceInfo> >::_Ucopy<std::_Vector_const_iterator<std::_Vector_val<ForceInfo,std::allocator<ForceInfo> > > >
_TEXT	ENDS
PUBLIC	??$_Uninitialized_copy@V?$_Vector_const_iterator@V?$_Vector_val@UWeaponInfo@@V?$allocator@UWeaponInfo@@@std@@@std@@@std@@PAUWeaponInfo@@V?$allocator@UWeaponInfo@@@2@@std@@YAPAUWeaponInfo@@V?$_Vector_const_iterator@V?$_Vector_val@UWeaponInfo@@V?$allocator@UWeaponInfo@@@std@@@std@@@0@0PAU1@AAV?$allocator@UWeaponInfo@@@0@@Z ; std::_Uninitialized_copy<std::_Vector_const_iterator<std::_Vector_val<WeaponInfo,std::allocator<WeaponInfo> > >,WeaponInfo *,std::allocator<WeaponInfo> >
; Function compile flags: /Ogsp
; File c:\program files (x86)\microsoft visual studio 10.0\vc\include\memory
;	COMDAT ??$_Uninitialized_copy@V?$_Vector_const_iterator@V?$_Vector_val@UWeaponInfo@@V?$allocator@UWeaponInfo@@@std@@@std@@@std@@PAUWeaponInfo@@V?$allocator@UWeaponInfo@@@2@@std@@YAPAUWeaponInfo@@V?$_Vector_const_iterator@V?$_Vector_val@UWeaponInfo@@V?$allocator@UWeaponInfo@@@std@@@std@@@0@0PAU1@AAV?$allocator@UWeaponInfo@@@0@@Z
_TEXT	SEGMENT
__Cat$556783 = -4					; size = 1
__First$ = 8						; size = 4
__Last$ = 12						; size = 4
__Dest$ = 16						; size = 4
__Al$ = 20						; size = 4
??$_Uninitialized_copy@V?$_Vector_const_iterator@V?$_Vector_val@UWeaponInfo@@V?$allocator@UWeaponInfo@@@std@@@std@@@std@@PAUWeaponInfo@@V?$allocator@UWeaponInfo@@@2@@std@@YAPAUWeaponInfo@@V?$_Vector_const_iterator@V?$_Vector_val@UWeaponInfo@@V?$allocator@UWeaponInfo@@@std@@@std@@@0@0PAU1@AAV?$allocator@UWeaponInfo@@@0@@Z PROC ; std::_Uninitialized_copy<std::_Vector_const_iterator<std::_Vector_val<WeaponInfo,std::allocator<WeaponInfo> > >,WeaponInfo *,std::allocator<WeaponInfo> >, COMDAT

; 412  : 	{	// copy [_First, _Last) to raw _Dest, using _Al

  00000	55		 push	 ebp
  00001	8b ec		 mov	 ebp, esp
  00003	51		 push	 ecx

; 413  : 	return (_Uninit_copy(_First, _Last, _Dest, _Al,
; 414  : 		_Ptr_cat(_First, _Dest)));

  00004	ff 75 fc	 push	 DWORD PTR __Cat$556783[ebp]
  00007	ff 75 14	 push	 DWORD PTR __Al$[ebp]
  0000a	ff 75 10	 push	 DWORD PTR __Dest$[ebp]
  0000d	ff 75 0c	 push	 DWORD PTR __Last$[ebp]
  00010	ff 75 08	 push	 DWORD PTR __First$[ebp]
  00013	e8 00 00 00 00	 call	 ??$_Uninit_copy@V?$_Vector_const_iterator@V?$_Vector_val@UWeaponInfo@@V?$allocator@UWeaponInfo@@@std@@@std@@@std@@PAUWeaponInfo@@V?$allocator@UWeaponInfo@@@2@@std@@YAPAUWeaponInfo@@V?$_Vector_const_iterator@V?$_Vector_val@UWeaponInfo@@V?$allocator@UWeaponInfo@@@std@@@std@@@0@0PAU1@AAV?$allocator@UWeaponInfo@@@0@U_Nonscalar_ptr_iterator_tag@0@@Z ; std::_Uninit_copy<std::_Vector_const_iterator<std::_Vector_val<WeaponInfo,std::allocator<WeaponInfo> > >,WeaponInfo *,std::allocator<WeaponInfo> >
  00018	83 c4 14	 add	 esp, 20			; 00000014H

; 415  : 	}

  0001b	c9		 leave
  0001c	c3		 ret	 0
??$_Uninitialized_copy@V?$_Vector_const_iterator@V?$_Vector_val@UWeaponInfo@@V?$allocator@UWeaponInfo@@@std@@@std@@@std@@PAUWeaponInfo@@V?$allocator@UWeaponInfo@@@2@@std@@YAPAUWeaponInfo@@V?$_Vector_const_iterator@V?$_Vector_val@UWeaponInfo@@V?$allocator@UWeaponInfo@@@std@@@std@@@0@0PAU1@AAV?$allocator@UWeaponInfo@@@0@@Z ENDP ; std::_Uninitialized_copy<std::_Vector_const_iterator<std::_Vector_val<WeaponInfo,std::allocator<WeaponInfo> > >,WeaponInfo *,std::allocator<WeaponInfo> >
_TEXT	ENDS
PUBLIC	?_Destroy@?$vector@UForceInfo@@V?$allocator@UForceInfo@@@std@@@std@@IAEXPAUForceInfo@@0@Z ; std::vector<ForceInfo,std::allocator<ForceInfo> >::_Destroy
; Function compile flags: /Ogsp
; File c:\program files (x86)\microsoft visual studio 10.0\vc\include\vector
;	COMDAT ?_Destroy@?$vector@UForceInfo@@V?$allocator@UForceInfo@@@std@@@std@@IAEXPAUForceInfo@@0@Z
_TEXT	SEGMENT
__First$ = 8						; size = 4
__Last$ = 12						; size = 4
?_Destroy@?$vector@UForceInfo@@V?$allocator@UForceInfo@@@std@@@std@@IAEXPAUForceInfo@@0@Z PROC ; std::vector<ForceInfo,std::allocator<ForceInfo> >::_Destroy, COMDAT
; _this$ = ecx

; 1270 : 		_Destroy_range(_First, _Last, this->_Alval);
; 1271 : 		}

  00000	c2 08 00	 ret	 8
?_Destroy@?$vector@UForceInfo@@V?$allocator@UForceInfo@@@std@@@std@@IAEXPAUForceInfo@@0@Z ENDP ; std::vector<ForceInfo,std::allocator<ForceInfo> >::_Destroy
_TEXT	ENDS
PUBLIC	??$_Destroy_range@V?$allocator@UWeaponInfo@@@std@@@std@@YAXPAUWeaponInfo@@0AAV?$allocator@UWeaponInfo@@@0@@Z ; std::_Destroy_range<std::allocator<WeaponInfo> >
; Function compile flags: /Ogsp
; File c:\program files (x86)\microsoft visual studio 10.0\vc\include\xmemory
;	COMDAT ??$_Destroy_range@V?$allocator@UWeaponInfo@@@std@@@std@@YAXPAUWeaponInfo@@0AAV?$allocator@UWeaponInfo@@@0@@Z
_TEXT	SEGMENT
__First$ = 8						; size = 4
__Last$ = 12						; size = 4
__Al$ = 16						; size = 4
??$_Destroy_range@V?$allocator@UWeaponInfo@@@std@@@std@@YAXPAUWeaponInfo@@0AAV?$allocator@UWeaponInfo@@@0@@Z PROC ; std::_Destroy_range<std::allocator<WeaponInfo> >, COMDAT

; 87   : 	{	// destroy [_First, _Last)

  00000	55		 push	 ebp
  00001	8b ec		 mov	 ebp, esp
  00003	56		 push	 esi

; 88   : 	_Destroy_range(_First, _Last, _Al, _Ptr_cat(_First, _Last));

  00004	8b 75 08	 mov	 esi, DWORD PTR __First$[ebp]
  00007	eb 0c		 jmp	 SHORT $LN24@Destroy_ra@2
$LL7@Destroy_ra@2:
  00009	8d 4e 08	 lea	 ecx, DWORD PTR [esi+8]
  0000c	ff 15 00 00 00
	00		 call	 DWORD PTR __imp_??1ioHashString@@QAE@XZ
  00012	83 c6 28	 add	 esi, 40			; 00000028H
$LN24@Destroy_ra@2:
  00015	3b 75 0c	 cmp	 esi, DWORD PTR __Last$[ebp]
  00018	75 ef		 jne	 SHORT $LL7@Destroy_ra@2
  0001a	5e		 pop	 esi

; 89   : 	}

  0001b	5d		 pop	 ebp
  0001c	c3		 ret	 0
??$_Destroy_range@V?$allocator@UWeaponInfo@@@std@@@std@@YAXPAUWeaponInfo@@0AAV?$allocator@UWeaponInfo@@@0@@Z ENDP ; std::_Destroy_range<std::allocator<WeaponInfo> >
_TEXT	ENDS
PUBLIC	??$_Ucopy@V?$_Vector_const_iterator@V?$_Vector_val@UWeaponInfo@@V?$allocator@UWeaponInfo@@@std@@@std@@@std@@@?$vector@UWeaponInfo@@V?$allocator@UWeaponInfo@@@std@@@std@@IAEPAUWeaponInfo@@V?$_Vector_const_iterator@V?$_Vector_val@UWeaponInfo@@V?$allocator@UWeaponInfo@@@std@@@std@@@1@0PAU2@@Z ; std::vector<WeaponInfo,std::allocator<WeaponInfo> >::_Ucopy<std::_Vector_const_iterator<std::_Vector_val<WeaponInfo,std::allocator<WeaponInfo> > > >
; Function compile flags: /Ogsp
; File c:\program files (x86)\microsoft visual studio 10.0\vc\include\vector
;	COMDAT ??$_Ucopy@V?$_Vector_const_iterator@V?$_Vector_val@UWeaponInfo@@V?$allocator@UWeaponInfo@@@std@@@std@@@std@@@?$vector@UWeaponInfo@@V?$allocator@UWeaponInfo@@@std@@@std@@IAEPAUWeaponInfo@@V?$_Vector_const_iterator@V?$_Vector_val@UWeaponInfo@@V?$allocator@UWeaponInfo@@@std@@@std@@@1@0PAU2@@Z
_TEXT	SEGMENT
__First$ = 8						; size = 4
__Last$ = 12						; size = 4
__Cat$556921 = 16					; size = 1
__Ptr$ = 16						; size = 4
??$_Ucopy@V?$_Vector_const_iterator@V?$_Vector_val@UWeaponInfo@@V?$allocator@UWeaponInfo@@@std@@@std@@@std@@@?$vector@UWeaponInfo@@V?$allocator@UWeaponInfo@@@std@@@std@@IAEPAUWeaponInfo@@V?$_Vector_const_iterator@V?$_Vector_val@UWeaponInfo@@V?$allocator@UWeaponInfo@@@std@@@std@@@1@0PAU2@@Z PROC ; std::vector<WeaponInfo,std::allocator<WeaponInfo> >::_Ucopy<std::_Vector_const_iterator<std::_Vector_val<WeaponInfo,std::allocator<WeaponInfo> > > >, COMDAT
; _this$ = ecx

; 1315 : 		pointer _Ucopy(_Iter _First, _Iter _Last, pointer _Ptr)

  00000	55		 push	 ebp
  00001	8b ec		 mov	 ebp, esp

; 1316 : 		{	// copy initializing [_First, _Last), using allocator
; 1317 : 		return (_Uninitialized_copy(_First, _Last,
; 1318 : 			_Ptr, this->_Alval));

  00003	ff 75 10	 push	 DWORD PTR __Cat$556921[ebp]
  00006	83 c1 0c	 add	 ecx, 12			; 0000000cH
  00009	51		 push	 ecx
  0000a	ff 75 10	 push	 DWORD PTR __Ptr$[ebp]
  0000d	ff 75 0c	 push	 DWORD PTR __Last$[ebp]
  00010	ff 75 08	 push	 DWORD PTR __First$[ebp]
  00013	e8 00 00 00 00	 call	 ??$_Uninit_copy@V?$_Vector_const_iterator@V?$_Vector_val@UWeaponInfo@@V?$allocator@UWeaponInfo@@@std@@@std@@@std@@PAUWeaponInfo@@V?$allocator@UWeaponInfo@@@2@@std@@YAPAUWeaponInfo@@V?$_Vector_const_iterator@V?$_Vector_val@UWeaponInfo@@V?$allocator@UWeaponInfo@@@std@@@std@@@0@0PAU1@AAV?$allocator@UWeaponInfo@@@0@U_Nonscalar_ptr_iterator_tag@0@@Z ; std::_Uninit_copy<std::_Vector_const_iterator<std::_Vector_val<WeaponInfo,std::allocator<WeaponInfo> > >,WeaponInfo *,std::allocator<WeaponInfo> >
  00018	83 c4 14	 add	 esp, 20			; 00000014H

; 1319 : 		}

  0001b	5d		 pop	 ebp
  0001c	c2 0c 00	 ret	 12			; 0000000cH
??$_Ucopy@V?$_Vector_const_iterator@V?$_Vector_val@UWeaponInfo@@V?$allocator@UWeaponInfo@@@std@@@std@@@std@@@?$vector@UWeaponInfo@@V?$allocator@UWeaponInfo@@@std@@@std@@IAEPAUWeaponInfo@@V?$_Vector_const_iterator@V?$_Vector_val@UWeaponInfo@@V?$allocator@UWeaponInfo@@@std@@@std@@@1@0PAU2@@Z ENDP ; std::vector<WeaponInfo,std::allocator<WeaponInfo> >::_Ucopy<std::_Vector_const_iterator<std::_Vector_val<WeaponInfo,std::allocator<WeaponInfo> > > >
_TEXT	ENDS
PUBLIC	?_Tidy@?$vector@UForceInfo@@V?$allocator@UForceInfo@@@std@@@std@@IAEXXZ ; std::vector<ForceInfo,std::allocator<ForceInfo> >::_Tidy
EXTRN	__imp_?_Orphan_all@_Container_base0@std@@QAEXXZ:PROC
; Function compile flags: /Ogsp
;	COMDAT ?_Tidy@?$vector@UForceInfo@@V?$allocator@UForceInfo@@@std@@@std@@IAEXXZ
_TEXT	SEGMENT
?_Tidy@?$vector@UForceInfo@@V?$allocator@UForceInfo@@@std@@@std@@IAEXXZ PROC ; std::vector<ForceInfo,std::allocator<ForceInfo> >::_Tidy, COMDAT
; _this$ = ecx

; 1301 : 		{	// free all storage

  00000	56		 push	 esi
  00001	8b f1		 mov	 esi, ecx

; 1302 : 		if (this->_Myfirst != 0)

  00003	83 3e 00	 cmp	 DWORD PTR [esi], 0
  00006	74 0e		 je	 SHORT $LN21@Tidy

; 1303 : 			{	// something to free, destroy and deallocate it
; 1304 : 			this->_Orphan_all();

  00008	ff 15 00 00 00
	00		 call	 DWORD PTR __imp_?_Orphan_all@_Container_base0@std@@QAEXXZ

; 1305 : 			_Destroy(this->_Myfirst, this->_Mylast);
; 1306 : 			this->_Alval.deallocate(this->_Myfirst,
; 1307 : 				this->_Myend - this->_Myfirst);

  0000e	ff 36		 push	 DWORD PTR [esi]
  00010	e8 00 00 00 00	 call	 ??3@YAXPAX@Z		; operator delete
  00015	59		 pop	 ecx
$LN21@Tidy:

; 1308 : 			}
; 1309 : 		this->_Myfirst = 0;

  00016	83 26 00	 and	 DWORD PTR [esi], 0

; 1310 : 		this->_Mylast = 0;

  00019	83 66 04 00	 and	 DWORD PTR [esi+4], 0

; 1311 : 		this->_Myend = 0;

  0001d	83 66 08 00	 and	 DWORD PTR [esi+8], 0
  00021	5e		 pop	 esi

; 1312 : 		}

  00022	c3		 ret	 0
?_Tidy@?$vector@UForceInfo@@V?$allocator@UForceInfo@@@std@@@std@@IAEXXZ ENDP ; std::vector<ForceInfo,std::allocator<ForceInfo> >::_Tidy
_TEXT	ENDS
PUBLIC	?_Destroy@?$vector@UWeaponInfo@@V?$allocator@UWeaponInfo@@@std@@@std@@IAEXPAUWeaponInfo@@0@Z ; std::vector<WeaponInfo,std::allocator<WeaponInfo> >::_Destroy
; Function compile flags: /Ogsp
;	COMDAT ?_Destroy@?$vector@UWeaponInfo@@V?$allocator@UWeaponInfo@@@std@@@std@@IAEXPAUWeaponInfo@@0@Z
_TEXT	SEGMENT
__First$ = 8						; size = 4
__Last$ = 12						; size = 4
?_Destroy@?$vector@UWeaponInfo@@V?$allocator@UWeaponInfo@@@std@@@std@@IAEXPAUWeaponInfo@@0@Z PROC ; std::vector<WeaponInfo,std::allocator<WeaponInfo> >::_Destroy, COMDAT
; _this$ = ecx

; 1269 : 		{	// destroy [_First, _Last) using allocator

  00000	55		 push	 ebp
  00001	8b ec		 mov	 ebp, esp

; 1270 : 		_Destroy_range(_First, _Last, this->_Alval);

  00003	83 c1 0c	 add	 ecx, 12			; 0000000cH
  00006	51		 push	 ecx
  00007	ff 75 0c	 push	 DWORD PTR __Last$[ebp]
  0000a	ff 75 08	 push	 DWORD PTR __First$[ebp]
  0000d	e8 00 00 00 00	 call	 ??$_Destroy_range@V?$allocator@UWeaponInfo@@@std@@@std@@YAXPAUWeaponInfo@@0AAV?$allocator@UWeaponInfo@@@0@@Z ; std::_Destroy_range<std::allocator<WeaponInfo> >
  00012	83 c4 0c	 add	 esp, 12			; 0000000cH

; 1271 : 		}

  00015	5d		 pop	 ebp
  00016	c2 08 00	 ret	 8
?_Destroy@?$vector@UWeaponInfo@@V?$allocator@UWeaponInfo@@@std@@@std@@IAEXPAUWeaponInfo@@0@Z ENDP ; std::vector<WeaponInfo,std::allocator<WeaponInfo> >::_Destroy
_TEXT	ENDS
PUBLIC	??0?$vector@UForceInfo@@V?$allocator@UForceInfo@@@std@@@std@@QAE@ABV01@@Z ; std::vector<ForceInfo,std::allocator<ForceInfo> >::vector<ForceInfo,std::allocator<ForceInfo> >
;	COMDAT xdata$x
; File c:\program files (x86)\microsoft visual studio 10.0\vc\include\xutility
xdata$x	SEGMENT
__catchsym$??0?$vector@UForceInfo@@V?$allocator@UForceInfo@@@std@@@std@@QAE@ABV01@@Z$2 DD 040H
	DD	00H
	DD	00H
	DD	FLAT:__catch$??0?$vector@UForceInfo@@V?$allocator@UForceInfo@@@std@@@std@@QAE@ABV01@@Z$0
__unwindtable$??0?$vector@UForceInfo@@V?$allocator@UForceInfo@@@std@@@std@@QAE@ABV01@@Z DD 0ffffffffH
	DD	00H
	DD	0ffffffffH
	DD	00H
__tryblocktable$??0?$vector@UForceInfo@@V?$allocator@UForceInfo@@@std@@@std@@QAE@ABV01@@Z DD 00H
	DD	00H
	DD	01H
	DD	01H
	DD	FLAT:__catchsym$??0?$vector@UForceInfo@@V?$allocator@UForceInfo@@@std@@@std@@QAE@ABV01@@Z$2
__ehfuncinfo$??0?$vector@UForceInfo@@V?$allocator@UForceInfo@@@std@@@std@@QAE@ABV01@@Z DD 019930522H
	DD	02H
	DD	FLAT:__unwindtable$??0?$vector@UForceInfo@@V?$allocator@UForceInfo@@@std@@@std@@QAE@ABV01@@Z
	DD	01H
	DD	FLAT:__tryblocktable$??0?$vector@UForceInfo@@V?$allocator@UForceInfo@@@std@@@std@@QAE@ABV01@@Z
	DD	2 DUP(00H)
	DD	00H
	DD	01H
; Function compile flags: /Ogsp
; File c:\program files (x86)\microsoft visual studio 10.0\vc\include\vector
xdata$x	ENDS
;	COMDAT ??0?$vector@UForceInfo@@V?$allocator@UForceInfo@@@std@@@std@@QAE@ABV01@@Z
_TEXT	SEGMENT
_this$ = -20						; size = 4
__$EHRec$ = -16						; size = 16
__Cat$557086 = 8					; size = 1
__Right$ = 8						; size = 4
??0?$vector@UForceInfo@@V?$allocator@UForceInfo@@@std@@@std@@QAE@ABV01@@Z PROC ; std::vector<ForceInfo,std::allocator<ForceInfo> >::vector<ForceInfo,std::allocator<ForceInfo> >, COMDAT
; _this$ = ecx

; 535  : 		{	// construct by copying _Right

  00000	6a 08		 push	 8
  00002	b8 00 00 00 00	 mov	 eax, __ehhandler$??0?$vector@UForceInfo@@V?$allocator@UForceInfo@@@std@@@std@@QAE@ABV01@@Z
  00007	e8 00 00 00 00	 call	 __EH_prolog3_catch
  0000c	8b f1		 mov	 esi, ecx
  0000e	89 75 ec	 mov	 DWORD PTR _this$[ebp], esi

; 536  : 		if (_Buy(_Right.size()))

  00011	8b 7d 08	 mov	 edi, DWORD PTR __Right$[ebp]
  00014	33 db		 xor	 ebx, ebx
  00016	89 1e		 mov	 DWORD PTR [esi], ebx
  00018	89 5e 04	 mov	 DWORD PTR [esi+4], ebx
  0001b	89 5e 08	 mov	 DWORD PTR [esi+8], ebx
  0001e	8b 47 04	 mov	 eax, DWORD PTR [edi+4]
  00021	2b 07		 sub	 eax, DWORD PTR [edi]
  00023	6a 0c		 push	 12			; 0000000cH
  00025	59		 pop	 ecx
  00026	99		 cdq
  00027	f7 f9		 idiv	 ecx
  00029	8b ce		 mov	 ecx, esi
  0002b	50		 push	 eax
  0002c	e8 00 00 00 00	 call	 ?_Buy@?$vector@UForceInfo@@V?$allocator@UForceInfo@@@std@@@std@@IAE_NI@Z ; std::vector<ForceInfo,std::allocator<ForceInfo> >::_Buy
  00031	84 c0		 test	 al, al
  00033	74 1f		 je	 SHORT $LN7@vector

; 537  : 			_TRY_BEGIN
; 538  : 			this->_Mylast = _Ucopy(_Right.begin(), _Right.end(),
; 539  : 				this->_Myfirst);

  00035	ff 75 08	 push	 DWORD PTR __Cat$557086[ebp]
  00038	8b 0e		 mov	 ecx, DWORD PTR [esi]
  0003a	8b 47 04	 mov	 eax, DWORD PTR [edi+4]
  0003d	8b 3f		 mov	 edi, DWORD PTR [edi]
  0003f	8d 56 0c	 lea	 edx, DWORD PTR [esi+12]
  00042	52		 push	 edx
  00043	51		 push	 ecx
  00044	50		 push	 eax
  00045	57		 push	 edi
  00046	89 5d fc	 mov	 DWORD PTR __$EHRec$[ebp+12], ebx
  00049	e8 00 00 00 00	 call	 ??$_Uninit_copy@V?$_Vector_const_iterator@V?$_Vector_val@UForceInfo@@V?$allocator@UForceInfo@@@std@@@std@@@std@@PAUForceInfo@@V?$allocator@UForceInfo@@@2@@std@@YAPAUForceInfo@@V?$_Vector_const_iterator@V?$_Vector_val@UForceInfo@@V?$allocator@UForceInfo@@@std@@@std@@@0@0PAU1@AAV?$allocator@UForceInfo@@@0@U_Nonscalar_ptr_iterator_tag@0@@Z ; std::_Uninit_copy<std::_Vector_const_iterator<std::_Vector_val<ForceInfo,std::allocator<ForceInfo> > >,ForceInfo *,std::allocator<ForceInfo> >
  0004e	83 c4 14	 add	 esp, 20			; 00000014H
  00051	89 46 04	 mov	 DWORD PTR [esi+4], eax
$LN7@vector:

; 543  : 			_CATCH_END
; 544  : 		}

  00054	8b c6		 mov	 eax, esi
  00056	e8 00 00 00 00	 call	 __EH_epilog3
  0005b	c2 04 00	 ret	 4
__catch$??0?$vector@UForceInfo@@V?$allocator@UForceInfo@@@std@@@std@@QAE@ABV01@@Z$0:

; 540  : 			_CATCH_ALL
; 541  : 			_Tidy();

  0005e	8b 4d ec	 mov	 ecx, DWORD PTR _this$[ebp]
  00061	e8 00 00 00 00	 call	 ?_Tidy@?$vector@UForceInfo@@V?$allocator@UForceInfo@@@std@@@std@@IAEXXZ ; std::vector<ForceInfo,std::allocator<ForceInfo> >::_Tidy

; 542  : 			_RERAISE;

  00066	33 db		 xor	 ebx, ebx
  00068	53		 push	 ebx
  00069	53		 push	 ebx
  0006a	e8 00 00 00 00	 call	 __CxxThrowException@8
$LN38@vector:
$LN37@vector:
  0006f	cc		 int	 3
_TEXT	ENDS
;	COMDAT text$x
text$x	SEGMENT
__ehhandler$??0?$vector@UForceInfo@@V?$allocator@UForceInfo@@@std@@@std@@QAE@ABV01@@Z:
  00000	8b 54 24 08	 mov	 edx, DWORD PTR [esp+8]
  00004	8d 42 0c	 lea	 eax, DWORD PTR [edx+12]
  00007	8b 4a e8	 mov	 ecx, DWORD PTR [edx-24]
  0000a	33 c8		 xor	 ecx, eax
  0000c	e8 00 00 00 00	 call	 @__security_check_cookie@4
  00011	b8 00 00 00 00	 mov	 eax, OFFSET __ehfuncinfo$??0?$vector@UForceInfo@@V?$allocator@UForceInfo@@@std@@@std@@QAE@ABV01@@Z
  00016	e9 00 00 00 00	 jmp	 ___CxxFrameHandler3
text$x	ENDS
??0?$vector@UForceInfo@@V?$allocator@UForceInfo@@@std@@@std@@QAE@ABV01@@Z ENDP ; std::vector<ForceInfo,std::allocator<ForceInfo> >::vector<ForceInfo,std::allocator<ForceInfo> >
PUBLIC	??1?$vector@UForceInfo@@V?$allocator@UForceInfo@@@std@@@std@@QAE@XZ ; std::vector<ForceInfo,std::allocator<ForceInfo> >::~vector<ForceInfo,std::allocator<ForceInfo> >
; Function compile flags: /Ogsp
;	COMDAT ??1?$vector@UForceInfo@@V?$allocator@UForceInfo@@@std@@@std@@QAE@XZ
_TEXT	SEGMENT
??1?$vector@UForceInfo@@V?$allocator@UForceInfo@@@std@@@std@@QAE@XZ PROC ; std::vector<ForceInfo,std::allocator<ForceInfo> >::~vector<ForceInfo,std::allocator<ForceInfo> >, COMDAT
; _this$ = ecx

; 705  : 		_Tidy();

  00000	e9 00 00 00 00	 jmp	 ?_Tidy@?$vector@UForceInfo@@V?$allocator@UForceInfo@@@std@@@std@@IAEXXZ ; std::vector<ForceInfo,std::allocator<ForceInfo> >::_Tidy
??1?$vector@UForceInfo@@V?$allocator@UForceInfo@@@std@@@std@@QAE@XZ ENDP ; std::vector<ForceInfo,std::allocator<ForceInfo> >::~vector<ForceInfo,std::allocator<ForceInfo> >
_TEXT	ENDS
PUBLIC	?_Tidy@?$vector@UWeaponInfo@@V?$allocator@UWeaponInfo@@@std@@@std@@IAEXXZ ; std::vector<WeaponInfo,std::allocator<WeaponInfo> >::_Tidy
; Function compile flags: /Ogsp
;	COMDAT ?_Tidy@?$vector@UWeaponInfo@@V?$allocator@UWeaponInfo@@@std@@@std@@IAEXXZ
_TEXT	SEGMENT
?_Tidy@?$vector@UWeaponInfo@@V?$allocator@UWeaponInfo@@@std@@@std@@IAEXXZ PROC ; std::vector<WeaponInfo,std::allocator<WeaponInfo> >::_Tidy, COMDAT
; _this$ = ecx

; 1301 : 		{	// free all storage

  00000	56		 push	 esi
  00001	8b f1		 mov	 esi, ecx

; 1302 : 		if (this->_Myfirst != 0)

  00003	83 3e 00	 cmp	 DWORD PTR [esi], 0
  00006	74 1e		 je	 SHORT $LN6@Tidy@2

; 1303 : 			{	// something to free, destroy and deallocate it
; 1304 : 			this->_Orphan_all();

  00008	ff 15 00 00 00
	00		 call	 DWORD PTR __imp_?_Orphan_all@_Container_base0@std@@QAEXXZ

; 1305 : 			_Destroy(this->_Myfirst, this->_Mylast);

  0000e	8d 46 0c	 lea	 eax, DWORD PTR [esi+12]
  00011	50		 push	 eax
  00012	ff 76 04	 push	 DWORD PTR [esi+4]
  00015	ff 36		 push	 DWORD PTR [esi]
  00017	e8 00 00 00 00	 call	 ??$_Destroy_range@V?$allocator@UWeaponInfo@@@std@@@std@@YAXPAUWeaponInfo@@0AAV?$allocator@UWeaponInfo@@@0@@Z ; std::_Destroy_range<std::allocator<WeaponInfo> >

; 1306 : 			this->_Alval.deallocate(this->_Myfirst,
; 1307 : 				this->_Myend - this->_Myfirst);

  0001c	ff 36		 push	 DWORD PTR [esi]
  0001e	e8 00 00 00 00	 call	 ??3@YAXPAX@Z		; operator delete
  00023	83 c4 10	 add	 esp, 16			; 00000010H
$LN6@Tidy@2:

; 1308 : 			}
; 1309 : 		this->_Myfirst = 0;

  00026	83 26 00	 and	 DWORD PTR [esi], 0

; 1310 : 		this->_Mylast = 0;

  00029	83 66 04 00	 and	 DWORD PTR [esi+4], 0

; 1311 : 		this->_Myend = 0;

  0002d	83 66 08 00	 and	 DWORD PTR [esi+8], 0
  00031	5e		 pop	 esi

; 1312 : 		}

  00032	c3		 ret	 0
?_Tidy@?$vector@UWeaponInfo@@V?$allocator@UWeaponInfo@@@std@@@std@@IAEXXZ ENDP ; std::vector<WeaponInfo,std::allocator<WeaponInfo> >::_Tidy
_TEXT	ENDS
PUBLIC	??0?$vector@UWeaponInfo@@V?$allocator@UWeaponInfo@@@std@@@std@@QAE@ABV01@@Z ; std::vector<WeaponInfo,std::allocator<WeaponInfo> >::vector<WeaponInfo,std::allocator<WeaponInfo> >
;	COMDAT xdata$x
; File c:\program files (x86)\microsoft visual studio 10.0\vc\include\xutility
xdata$x	SEGMENT
__catchsym$??0?$vector@UWeaponInfo@@V?$allocator@UWeaponInfo@@@std@@@std@@QAE@ABV01@@Z$2 DD 040H
	DD	00H
	DD	00H
	DD	FLAT:__catch$??0?$vector@UWeaponInfo@@V?$allocator@UWeaponInfo@@@std@@@std@@QAE@ABV01@@Z$0
__unwindtable$??0?$vector@UWeaponInfo@@V?$allocator@UWeaponInfo@@@std@@@std@@QAE@ABV01@@Z DD 0ffffffffH
	DD	00H
	DD	0ffffffffH
	DD	00H
__tryblocktable$??0?$vector@UWeaponInfo@@V?$allocator@UWeaponInfo@@@std@@@std@@QAE@ABV01@@Z DD 00H
	DD	00H
	DD	01H
	DD	01H
	DD	FLAT:__catchsym$??0?$vector@UWeaponInfo@@V?$allocator@UWeaponInfo@@@std@@@std@@QAE@ABV01@@Z$2
__ehfuncinfo$??0?$vector@UWeaponInfo@@V?$allocator@UWeaponInfo@@@std@@@std@@QAE@ABV01@@Z DD 019930522H
	DD	02H
	DD	FLAT:__unwindtable$??0?$vector@UWeaponInfo@@V?$allocator@UWeaponInfo@@@std@@@std@@QAE@ABV01@@Z
	DD	01H
	DD	FLAT:__tryblocktable$??0?$vector@UWeaponInfo@@V?$allocator@UWeaponInfo@@@std@@@std@@QAE@ABV01@@Z
	DD	2 DUP(00H)
	DD	00H
	DD	01H
; Function compile flags: /Ogsp
; File c:\program files (x86)\microsoft visual studio 10.0\vc\include\vector
xdata$x	ENDS
;	COMDAT ??0?$vector@UWeaponInfo@@V?$allocator@UWeaponInfo@@@std@@@std@@QAE@ABV01@@Z
_TEXT	SEGMENT
_this$ = -20						; size = 4
__$EHRec$ = -16						; size = 16
__Cat$557201 = 8					; size = 1
__Right$ = 8						; size = 4
??0?$vector@UWeaponInfo@@V?$allocator@UWeaponInfo@@@std@@@std@@QAE@ABV01@@Z PROC ; std::vector<WeaponInfo,std::allocator<WeaponInfo> >::vector<WeaponInfo,std::allocator<WeaponInfo> >, COMDAT
; _this$ = ecx

; 535  : 		{	// construct by copying _Right

  00000	6a 08		 push	 8
  00002	b8 00 00 00 00	 mov	 eax, __ehhandler$??0?$vector@UWeaponInfo@@V?$allocator@UWeaponInfo@@@std@@@std@@QAE@ABV01@@Z
  00007	e8 00 00 00 00	 call	 __EH_prolog3_catch
  0000c	8b f1		 mov	 esi, ecx
  0000e	89 75 ec	 mov	 DWORD PTR _this$[ebp], esi

; 536  : 		if (_Buy(_Right.size()))

  00011	8b 7d 08	 mov	 edi, DWORD PTR __Right$[ebp]
  00014	33 db		 xor	 ebx, ebx
  00016	89 1e		 mov	 DWORD PTR [esi], ebx
  00018	89 5e 04	 mov	 DWORD PTR [esi+4], ebx
  0001b	89 5e 08	 mov	 DWORD PTR [esi+8], ebx
  0001e	8b 47 04	 mov	 eax, DWORD PTR [edi+4]
  00021	2b 07		 sub	 eax, DWORD PTR [edi]
  00023	6a 28		 push	 40			; 00000028H
  00025	59		 pop	 ecx
  00026	99		 cdq
  00027	f7 f9		 idiv	 ecx
  00029	8b ce		 mov	 ecx, esi
  0002b	50		 push	 eax
  0002c	e8 00 00 00 00	 call	 ?_Buy@?$vector@UWeaponInfo@@V?$allocator@UWeaponInfo@@@std@@@std@@IAE_NI@Z ; std::vector<WeaponInfo,std::allocator<WeaponInfo> >::_Buy
  00031	84 c0		 test	 al, al
  00033	74 1f		 je	 SHORT $LN7@vector@2

; 537  : 			_TRY_BEGIN
; 538  : 			this->_Mylast = _Ucopy(_Right.begin(), _Right.end(),
; 539  : 				this->_Myfirst);

  00035	ff 75 08	 push	 DWORD PTR __Cat$557201[ebp]
  00038	8b 0e		 mov	 ecx, DWORD PTR [esi]
  0003a	8b 47 04	 mov	 eax, DWORD PTR [edi+4]
  0003d	8b 3f		 mov	 edi, DWORD PTR [edi]
  0003f	8d 56 0c	 lea	 edx, DWORD PTR [esi+12]
  00042	52		 push	 edx
  00043	51		 push	 ecx
  00044	50		 push	 eax
  00045	57		 push	 edi
  00046	89 5d fc	 mov	 DWORD PTR __$EHRec$[ebp+12], ebx
  00049	e8 00 00 00 00	 call	 ??$_Uninit_copy@V?$_Vector_const_iterator@V?$_Vector_val@UWeaponInfo@@V?$allocator@UWeaponInfo@@@std@@@std@@@std@@PAUWeaponInfo@@V?$allocator@UWeaponInfo@@@2@@std@@YAPAUWeaponInfo@@V?$_Vector_const_iterator@V?$_Vector_val@UWeaponInfo@@V?$allocator@UWeaponInfo@@@std@@@std@@@0@0PAU1@AAV?$allocator@UWeaponInfo@@@0@U_Nonscalar_ptr_iterator_tag@0@@Z ; std::_Uninit_copy<std::_Vector_const_iterator<std::_Vector_val<WeaponInfo,std::allocator<WeaponInfo> > >,WeaponInfo *,std::allocator<WeaponInfo> >
  0004e	83 c4 14	 add	 esp, 20			; 00000014H
  00051	89 46 04	 mov	 DWORD PTR [esi+4], eax
$LN7@vector@2:

; 543  : 			_CATCH_END
; 544  : 		}

  00054	8b c6		 mov	 eax, esi
  00056	e8 00 00 00 00	 call	 __EH_epilog3
  0005b	c2 04 00	 ret	 4
__catch$??0?$vector@UWeaponInfo@@V?$allocator@UWeaponInfo@@@std@@@std@@QAE@ABV01@@Z$0:

; 540  : 			_CATCH_ALL
; 541  : 			_Tidy();

  0005e	8b 4d ec	 mov	 ecx, DWORD PTR _this$[ebp]
  00061	e8 00 00 00 00	 call	 ?_Tidy@?$vector@UWeaponInfo@@V?$allocator@UWeaponInfo@@@std@@@std@@IAEXXZ ; std::vector<WeaponInfo,std::allocator<WeaponInfo> >::_Tidy

; 542  : 			_RERAISE;

  00066	33 db		 xor	 ebx, ebx
  00068	53		 push	 ebx
  00069	53		 push	 ebx
  0006a	e8 00 00 00 00	 call	 __CxxThrowException@8
$LN38@vector@2:
$LN37@vector@2:
  0006f	cc		 int	 3
_TEXT	ENDS
;	COMDAT text$x
text$x	SEGMENT
__ehhandler$??0?$vector@UWeaponInfo@@V?$allocator@UWeaponInfo@@@std@@@std@@QAE@ABV01@@Z:
  00000	8b 54 24 08	 mov	 edx, DWORD PTR [esp+8]
  00004	8d 42 0c	 lea	 eax, DWORD PTR [edx+12]
  00007	8b 4a e8	 mov	 ecx, DWORD PTR [edx-24]
  0000a	33 c8		 xor	 ecx, eax
  0000c	e8 00 00 00 00	 call	 @__security_check_cookie@4
  00011	b8 00 00 00 00	 mov	 eax, OFFSET __ehfuncinfo$??0?$vector@UWeaponInfo@@V?$allocator@UWeaponInfo@@@std@@@std@@QAE@ABV01@@Z
  00016	e9 00 00 00 00	 jmp	 ___CxxFrameHandler3
text$x	ENDS
??0?$vector@UWeaponInfo@@V?$allocator@UWeaponInfo@@@std@@@std@@QAE@ABV01@@Z ENDP ; std::vector<WeaponInfo,std::allocator<WeaponInfo> >::vector<WeaponInfo,std::allocator<WeaponInfo> >
PUBLIC	??1?$vector@UWeaponInfo@@V?$allocator@UWeaponInfo@@@std@@@std@@QAE@XZ ; std::vector<WeaponInfo,std::allocator<WeaponInfo> >::~vector<WeaponInfo,std::allocator<WeaponInfo> >
; Function compile flags: /Ogsp
;	COMDAT ??1?$vector@UWeaponInfo@@V?$allocator@UWeaponInfo@@@std@@@std@@QAE@XZ
_TEXT	SEGMENT
??1?$vector@UWeaponInfo@@V?$allocator@UWeaponInfo@@@std@@@std@@QAE@XZ PROC ; std::vector<WeaponInfo,std::allocator<WeaponInfo> >::~vector<WeaponInfo,std::allocator<WeaponInfo> >, COMDAT
; _this$ = ecx

; 705  : 		_Tidy();

  00000	e9 00 00 00 00	 jmp	 ?_Tidy@?$vector@UWeaponInfo@@V?$allocator@UWeaponInfo@@@std@@@std@@IAEXXZ ; std::vector<WeaponInfo,std::allocator<WeaponInfo> >::_Tidy
??1?$vector@UWeaponInfo@@V?$allocator@UWeaponInfo@@@std@@@std@@QAE@XZ ENDP ; std::vector<WeaponInfo,std::allocator<WeaponInfo> >::~vector<WeaponInfo,std::allocator<WeaponInfo> >
_TEXT	ENDS
PUBLIC	??0AttackAttribute@@QAE@ABU0@@Z			; AttackAttribute::AttackAttribute
;	COMDAT xdata$x
xdata$x	SEGMENT
__unwindtable$??0AttackAttribute@@QAE@ABU0@@Z DD 0ffffffffH
	DD	FLAT:__unwindfunclet$??0AttackAttribute@@QAE@ABU0@@Z$0
	DD	00H
	DD	FLAT:__unwindfunclet$??0AttackAttribute@@QAE@ABU0@@Z$1
	DD	01H
	DD	FLAT:__unwindfunclet$??0AttackAttribute@@QAE@ABU0@@Z$2
__ehfuncinfo$??0AttackAttribute@@QAE@ABU0@@Z DD 019930522H
	DD	03H
	DD	FLAT:__unwindtable$??0AttackAttribute@@QAE@ABU0@@Z
	DD	2 DUP(00H)
	DD	2 DUP(00H)
	DD	00H
	DD	01H
; Function compile flags: /Ogsp
xdata$x	ENDS
;	COMDAT ??0AttackAttribute@@QAE@ABU0@@Z
_TEXT	SEGMENT
_this$ = -16						; size = 4
__$EHRec$ = -12						; size = 12
___that$ = 8						; size = 4
??0AttackAttribute@@QAE@ABU0@@Z PROC			; AttackAttribute::AttackAttribute, COMDAT
; _this$ = ecx
  00000	6a 04		 push	 4
  00002	b8 00 00 00 00	 mov	 eax, __ehhandler$??0AttackAttribute@@QAE@ABU0@@Z
  00007	e8 00 00 00 00	 call	 __EH_prolog3
  0000c	8b f1		 mov	 esi, ecx
  0000e	89 75 f0	 mov	 DWORD PTR _this$[ebp], esi
  00011	8b 7d 08	 mov	 edi, DWORD PTR ___that$[ebp]
  00014	8b 1d 00 00 00
	00		 mov	 ebx, DWORD PTR __imp_??0ioHashString@@QAE@ABV0@@Z
  0001a	57		 push	 edi
  0001b	ff d3		 call	 ebx
  0001d	d9 47 10	 fld	 DWORD PTR [edi+16]
  00020	83 65 fc 00	 and	 DWORD PTR __$EHRec$[ebp+8], 0
  00024	d9 5e 10	 fstp	 DWORD PTR [esi+16]
  00027	8d 47 14	 lea	 eax, DWORD PTR [edi+20]
  0002a	50		 push	 eax
  0002b	8d 4e 14	 lea	 ecx, DWORD PTR [esi+20]
  0002e	ff d3		 call	 ebx
  00030	d9 47 24	 fld	 DWORD PTR [edi+36]
  00033	8d 47 28	 lea	 eax, DWORD PTR [edi+40]
  00036	d9 5e 24	 fstp	 DWORD PTR [esi+36]
  00039	50		 push	 eax
  0003a	8d 4e 28	 lea	 ecx, DWORD PTR [esi+40]
  0003d	c6 45 fc 01	 mov	 BYTE PTR __$EHRec$[ebp+8], 1
  00041	e8 00 00 00 00	 call	 ??0?$vector@UWeaponInfo@@V?$allocator@UWeaponInfo@@@std@@@std@@QAE@ABV01@@Z ; std::vector<WeaponInfo,std::allocator<WeaponInfo> >::vector<WeaponInfo,std::allocator<WeaponInfo> >
  00046	8d 47 38	 lea	 eax, DWORD PTR [edi+56]
  00049	50		 push	 eax
  0004a	8d 4e 38	 lea	 ecx, DWORD PTR [esi+56]
  0004d	c6 45 fc 02	 mov	 BYTE PTR __$EHRec$[ebp+8], 2
  00051	e8 00 00 00 00	 call	 ??0?$vector@UForceInfo@@V?$allocator@UForceInfo@@@std@@@std@@QAE@ABV01@@Z ; std::vector<ForceInfo,std::allocator<ForceInfo> >::vector<ForceInfo,std::allocator<ForceInfo> >
  00056	8b 47 48	 mov	 eax, DWORD PTR [edi+72]
  00059	89 46 48	 mov	 DWORD PTR [esi+72], eax
  0005c	8b 47 4c	 mov	 eax, DWORD PTR [edi+76]
  0005f	89 46 4c	 mov	 DWORD PTR [esi+76], eax
  00062	8b c6		 mov	 eax, esi
  00064	e8 00 00 00 00	 call	 __EH_epilog3
  00069	c2 04 00	 ret	 4
_TEXT	ENDS
;	COMDAT text$x
text$x	SEGMENT
__unwindfunclet$??0AttackAttribute@@QAE@ABU0@@Z$0:
  00000	8b 4d f0	 mov	 ecx, DWORD PTR _this$[ebp]
  00003	ff 25 00 00 00
	00		 jmp	 DWORD PTR __imp_??1ioHashString@@QAE@XZ
__unwindfunclet$??0AttackAttribute@@QAE@ABU0@@Z$1:
  00009	8b 4d f0	 mov	 ecx, DWORD PTR _this$[ebp]
  0000c	83 c1 14	 add	 ecx, 20			; 00000014H
  0000f	ff 25 00 00 00
	00		 jmp	 DWORD PTR __imp_??1ioHashString@@QAE@XZ
__unwindfunclet$??0AttackAttribute@@QAE@ABU0@@Z$2:
  00015	8b 4d f0	 mov	 ecx, DWORD PTR _this$[ebp]
  00018	83 c1 28	 add	 ecx, 40			; 00000028H
  0001b	e9 00 00 00 00	 jmp	 ??1?$vector@UWeaponInfo@@V?$allocator@UWeaponInfo@@@std@@@std@@QAE@XZ ; std::vector<WeaponInfo,std::allocator<WeaponInfo> >::~vector<WeaponInfo,std::allocator<WeaponInfo> >
__ehhandler$??0AttackAttribute@@QAE@ABU0@@Z:
  00020	8b 54 24 08	 mov	 edx, DWORD PTR [esp+8]
  00024	8d 42 0c	 lea	 eax, DWORD PTR [edx+12]
  00027	8b 4a ec	 mov	 ecx, DWORD PTR [edx-20]
  0002a	33 c8		 xor	 ecx, eax
  0002c	e8 00 00 00 00	 call	 @__security_check_cookie@4
  00031	b8 00 00 00 00	 mov	 eax, OFFSET __ehfuncinfo$??0AttackAttribute@@QAE@ABU0@@Z
  00036	e9 00 00 00 00	 jmp	 ___CxxFrameHandler3
text$x	ENDS
??0AttackAttribute@@QAE@ABU0@@Z ENDP			; AttackAttribute::AttackAttribute
PUBLIC	??0AttackAttribute@@QAE@XZ			; AttackAttribute::AttackAttribute
;	COMDAT xdata$x
; File c:\program files (x86)\microsoft visual studio 10.0\vc\include\xmemory
xdata$x	SEGMENT
__unwindtable$??0AttackAttribute@@QAE@XZ DD 0ffffffffH
	DD	FLAT:__unwindfunclet$??0AttackAttribute@@QAE@XZ$0
	DD	00H
	DD	FLAT:__unwindfunclet$??0AttackAttribute@@QAE@XZ$1
	DD	01H
	DD	FLAT:__unwindfunclet$??0AttackAttribute@@QAE@XZ$2
	DD	02H
	DD	FLAT:__unwindfunclet$??0AttackAttribute@@QAE@XZ$3
__ehfuncinfo$??0AttackAttribute@@QAE@XZ DD 019930522H
	DD	04H
	DD	FLAT:__unwindtable$??0AttackAttribute@@QAE@XZ
	DD	2 DUP(00H)
	DD	2 DUP(00H)
	DD	00H
	DD	01H
; Function compile flags: /Ogsp
; File d:\lost saga for developer\youtube\tutorial\source\src\lsclient\ioattackattribute.h
xdata$x	ENDS
;	COMDAT ??0AttackAttribute@@QAE@XZ
_TEXT	SEGMENT
_this$ = -16						; size = 4
__$EHRec$ = -12						; size = 12
??0AttackAttribute@@QAE@XZ PROC				; AttackAttribute::AttackAttribute, COMDAT
; _this$ = ecx

; 107  : 	AttackAttribute()

  00000	6a 04		 push	 4
  00002	b8 00 00 00 00	 mov	 eax, __ehhandler$??0AttackAttribute@@QAE@XZ
  00007	e8 00 00 00 00	 call	 __EH_prolog3
  0000c	8b f1		 mov	 esi, ecx
  0000e	89 75 f0	 mov	 DWORD PTR _this$[ebp], esi
  00011	8b 3d 00 00 00
	00		 mov	 edi, DWORD PTR __imp_??0ioHashString@@QAE@XZ
  00017	ff d7		 call	 edi
  00019	33 db		 xor	 ebx, ebx
  0001b	8d 4e 14	 lea	 ecx, DWORD PTR [esi+20]
  0001e	89 5d fc	 mov	 DWORD PTR __$EHRec$[ebp+8], ebx
  00021	ff d7		 call	 edi
  00023	89 5e 28	 mov	 DWORD PTR [esi+40], ebx
  00026	89 5e 2c	 mov	 DWORD PTR [esi+44], ebx
  00029	89 5e 30	 mov	 DWORD PTR [esi+48], ebx
  0002c	89 5e 38	 mov	 DWORD PTR [esi+56], ebx
  0002f	89 5e 3c	 mov	 DWORD PTR [esi+60], ebx
  00032	89 5e 40	 mov	 DWORD PTR [esi+64], ebx

; 108  : 	{
; 109  : 		Init();

  00035	8b ce		 mov	 ecx, esi
  00037	c6 45 fc 03	 mov	 BYTE PTR __$EHRec$[ebp+8], 3
  0003b	e8 00 00 00 00	 call	 ?Init@AttackAttribute@@QAEXXZ ; AttackAttribute::Init

; 110  : 	}

  00040	8b c6		 mov	 eax, esi
  00042	e8 00 00 00 00	 call	 __EH_epilog3
  00047	c3		 ret	 0
_TEXT	ENDS
;	COMDAT text$x
text$x	SEGMENT
__unwindfunclet$??0AttackAttribute@@QAE@XZ$0:
  00000	8b 4d f0	 mov	 ecx, DWORD PTR _this$[ebp]
  00003	ff 25 00 00 00
	00		 jmp	 DWORD PTR __imp_??1ioHashString@@QAE@XZ
__unwindfunclet$??0AttackAttribute@@QAE@XZ$1:
  00009	8b 4d f0	 mov	 ecx, DWORD PTR _this$[ebp]
  0000c	83 c1 14	 add	 ecx, 20			; 00000014H
  0000f	ff 25 00 00 00
	00		 jmp	 DWORD PTR __imp_??1ioHashString@@QAE@XZ
__unwindfunclet$??0AttackAttribute@@QAE@XZ$2:
  00015	8b 4d f0	 mov	 ecx, DWORD PTR _this$[ebp]
  00018	83 c1 28	 add	 ecx, 40			; 00000028H
  0001b	e9 00 00 00 00	 jmp	 ??1?$vector@UWeaponInfo@@V?$allocator@UWeaponInfo@@@std@@@std@@QAE@XZ ; std::vector<WeaponInfo,std::allocator<WeaponInfo> >::~vector<WeaponInfo,std::allocator<WeaponInfo> >
__unwindfunclet$??0AttackAttribute@@QAE@XZ$3:
  00020	8b 4d f0	 mov	 ecx, DWORD PTR _this$[ebp]
  00023	83 c1 38	 add	 ecx, 56			; 00000038H
  00026	e9 00 00 00 00	 jmp	 ??1?$vector@UForceInfo@@V?$allocator@UForceInfo@@@std@@@std@@QAE@XZ ; std::vector<ForceInfo,std::allocator<ForceInfo> >::~vector<ForceInfo,std::allocator<ForceInfo> >
__ehhandler$??0AttackAttribute@@QAE@XZ:
  0002b	8b 54 24 08	 mov	 edx, DWORD PTR [esp+8]
  0002f	8d 42 0c	 lea	 eax, DWORD PTR [edx+12]
  00032	8b 4a ec	 mov	 ecx, DWORD PTR [edx-20]
  00035	33 c8		 xor	 ecx, eax
  00037	e8 00 00 00 00	 call	 @__security_check_cookie@4
  0003c	b8 00 00 00 00	 mov	 eax, OFFSET __ehfuncinfo$??0AttackAttribute@@QAE@XZ
  00041	e9 00 00 00 00	 jmp	 ___CxxFrameHandler3
text$x	ENDS
??0AttackAttribute@@QAE@XZ ENDP				; AttackAttribute::AttackAttribute
PUBLIC	??1AttackAttribute@@QAE@XZ			; AttackAttribute::~AttackAttribute
;	COMDAT xdata$x
xdata$x	SEGMENT
__unwindtable$??1AttackAttribute@@QAE@XZ DD 0ffffffffH
	DD	FLAT:__unwindfunclet$??1AttackAttribute@@QAE@XZ$0
	DD	00H
	DD	FLAT:__unwindfunclet$??1AttackAttribute@@QAE@XZ$1
	DD	01H
	DD	FLAT:__unwindfunclet$??1AttackAttribute@@QAE@XZ$2
__ehfuncinfo$??1AttackAttribute@@QAE@XZ DD 019930522H
	DD	03H
	DD	FLAT:__unwindtable$??1AttackAttribute@@QAE@XZ
	DD	2 DUP(00H)
	DD	2 DUP(00H)
	DD	00H
	DD	01H
; Function compile flags: /Ogsp
xdata$x	ENDS
;	COMDAT ??1AttackAttribute@@QAE@XZ
_TEXT	SEGMENT
_this$ = -16						; size = 4
__$EHRec$ = -12						; size = 12
??1AttackAttribute@@QAE@XZ PROC				; AttackAttribute::~AttackAttribute, COMDAT
; _this$ = ecx
  00000	6a 04		 push	 4
  00002	b8 00 00 00 00	 mov	 eax, __ehhandler$??1AttackAttribute@@QAE@XZ
  00007	e8 00 00 00 00	 call	 __EH_prolog3
  0000c	8b f1		 mov	 esi, ecx
  0000e	89 75 f0	 mov	 DWORD PTR _this$[ebp], esi
  00011	8d 4e 38	 lea	 ecx, DWORD PTR [esi+56]
  00014	c7 45 fc 02 00
	00 00		 mov	 DWORD PTR __$EHRec$[ebp+8], 2
  0001b	e8 00 00 00 00	 call	 ?_Tidy@?$vector@UForceInfo@@V?$allocator@UForceInfo@@@std@@@std@@IAEXXZ ; std::vector<ForceInfo,std::allocator<ForceInfo> >::_Tidy
  00020	8d 4e 28	 lea	 ecx, DWORD PTR [esi+40]
  00023	c6 45 fc 01	 mov	 BYTE PTR __$EHRec$[ebp+8], 1
  00027	e8 00 00 00 00	 call	 ?_Tidy@?$vector@UWeaponInfo@@V?$allocator@UWeaponInfo@@@std@@@std@@IAEXXZ ; std::vector<WeaponInfo,std::allocator<WeaponInfo> >::_Tidy
  0002c	8b 3d 00 00 00
	00		 mov	 edi, DWORD PTR __imp_??1ioHashString@@QAE@XZ
  00032	8d 4e 14	 lea	 ecx, DWORD PTR [esi+20]
  00035	c6 45 fc 00	 mov	 BYTE PTR __$EHRec$[ebp+8], 0
  00039	ff d7		 call	 edi
  0003b	83 4d fc ff	 or	 DWORD PTR __$EHRec$[ebp+8], -1
  0003f	8b ce		 mov	 ecx, esi
  00041	ff d7		 call	 edi
  00043	e8 00 00 00 00	 call	 __EH_epilog3
  00048	c3		 ret	 0
_TEXT	ENDS
;	COMDAT text$x
text$x	SEGMENT
__unwindfunclet$??1AttackAttribute@@QAE@XZ$0:
  00000	8b 4d f0	 mov	 ecx, DWORD PTR _this$[ebp]
  00003	ff 25 00 00 00
	00		 jmp	 DWORD PTR __imp_??1ioHashString@@QAE@XZ
__unwindfunclet$??1AttackAttribute@@QAE@XZ$1:
  00009	8b 4d f0	 mov	 ecx, DWORD PTR _this$[ebp]
  0000c	83 c1 14	 add	 ecx, 20			; 00000014H
  0000f	ff 25 00 00 00
	00		 jmp	 DWORD PTR __imp_??1ioHashString@@QAE@XZ
__unwindfunclet$??1AttackAttribute@@QAE@XZ$2:
  00015	8b 4d f0	 mov	 ecx, DWORD PTR _this$[ebp]
  00018	83 c1 28	 add	 ecx, 40			; 00000028H
  0001b	e9 00 00 00 00	 jmp	 ??1?$vector@UWeaponInfo@@V?$allocator@UWeaponInfo@@@std@@@std@@QAE@XZ ; std::vector<WeaponInfo,std::allocator<WeaponInfo> >::~vector<WeaponInfo,std::allocator<WeaponInfo> >
__ehhandler$??1AttackAttribute@@QAE@XZ:
  00020	8b 54 24 08	 mov	 edx, DWORD PTR [esp+8]
  00024	8d 42 0c	 lea	 eax, DWORD PTR [edx+12]
  00027	8b 4a ec	 mov	 ecx, DWORD PTR [edx-20]
  0002a	33 c8		 xor	 ecx, eax
  0002c	e8 00 00 00 00	 call	 @__security_check_cookie@4
  00031	b8 00 00 00 00	 mov	 eax, OFFSET __ehfuncinfo$??1AttackAttribute@@QAE@XZ
  00036	e9 00 00 00 00	 jmp	 ___CxxFrameHandler3
text$x	ENDS
??1AttackAttribute@@QAE@XZ ENDP				; AttackAttribute::~AttackAttribute
PUBLIC	??_7ioCircleMoveAttackSkill3@@6B@		; ioCircleMoveAttackSkill3::`vftable'
PUBLIC	??0ioCircleMoveAttackSkill3@@QAE@XZ		; ioCircleMoveAttackSkill3::ioCircleMoveAttackSkill3
PUBLIC	??_R4ioCircleMoveAttackSkill3@@6B@		; ioCircleMoveAttackSkill3::`RTTI Complete Object Locator'
PUBLIC	??_R0?AVioCircleMoveAttackSkill3@@@8		; ioCircleMoveAttackSkill3 `RTTI Type Descriptor'
PUBLIC	??_R3ioCircleMoveAttackSkill3@@8		; ioCircleMoveAttackSkill3::`RTTI Class Hierarchy Descriptor'
PUBLIC	??_R2ioCircleMoveAttackSkill3@@8		; ioCircleMoveAttackSkill3::`RTTI Base Class Array'
PUBLIC	??_R1A@?0A@EA@ioCircleMoveAttackSkill3@@8	; ioCircleMoveAttackSkill3::`RTTI Base Class Descriptor at (0,-1,0,64)'
PUBLIC	??_R1A@?0A@EA@ioNormalSkill@@8			; ioNormalSkill::`RTTI Base Class Descriptor at (0,-1,0,64)'
PUBLIC	??_R0?AVioNormalSkill@@@8			; ioNormalSkill `RTTI Type Descriptor'
PUBLIC	??_R3ioNormalSkill@@8				; ioNormalSkill::`RTTI Class Hierarchy Descriptor'
PUBLIC	??_R2ioNormalSkill@@8				; ioNormalSkill::`RTTI Base Class Array'
PUBLIC	??_R1A@?0A@EA@ioSkill@@8			; ioSkill::`RTTI Base Class Descriptor at (0,-1,0,64)'
PUBLIC	??_R0?AVioSkill@@@8				; ioSkill `RTTI Type Descriptor'
PUBLIC	??_R3ioSkill@@8					; ioSkill::`RTTI Class Hierarchy Descriptor'
PUBLIC	??_R2ioSkill@@8					; ioSkill::`RTTI Base Class Array'
PUBLIC	?Clone@ioCircleMoveAttackSkill3@@UAEPAVioSkill@@XZ ; ioCircleMoveAttackSkill3::Clone
PUBLIC	?GetDefenseSkillBreakeType@ioSkill@@UBE?AW4DefenseBreakType@@XZ ; ioSkill::GetDefenseSkillBreakeType
PUBLIC	?GetSkillEndNextJumpAmt@ioSkill@@UBEMXZ		; ioSkill::GetSkillEndNextJumpAmt
PUBLIC	?GetSkillEndNextLandRate@ioSkill@@UBEMXZ	; ioSkill::GetSkillEndNextLandRate
PUBLIC	?GetSkillEndNextJumpMustEnable@ioSkill@@UAE?AW4SkillEndJumpType@@XZ ; ioSkill::GetSkillEndNextJumpMustEnable
PUBLIC	?EnableChangeGrapplingTargetPos@ioSkill@@UBE_NXZ ; ioSkill::EnableChangeGrapplingTargetPos
PUBLIC	?IsInvisibleBottomCircle@ioSkill@@UAE_NPAVioBaseChar@@@Z ; ioSkill::IsInvisibleBottomCircle
PUBLIC	?IsCanJumpingSkill@ioSkill@@UBE_NXZ		; ioSkill::IsCanJumpingSkill
PUBLIC	?IsCanJumpingSkillOnBlowWound@ioSkill@@UBE_NXZ	; ioSkill::IsCanJumpingSkillOnBlowWound
PUBLIC	?IsCanDownSkill@ioSkill@@UBE_NXZ		; ioSkill::IsCanDownSkill
PUBLIC	?IsCanBlowWoundSkill@ioSkill@@UBE_NXZ		; ioSkill::IsCanBlowWoundSkill
PUBLIC	?IsCanWoundSkill@ioSkill@@UBE_NXZ		; ioSkill::IsCanWoundSkill
PUBLIC	?IsUseActiveCnt@ioSkill@@UBE_NXZ		; ioSkill::IsUseActiveCnt
PUBLIC	?GetMaxActiveCnt@ioSkill@@UBEHPAVioBaseChar@@@Z	; ioSkill::GetMaxActiveCnt
PUBLIC	?GetCurActiveCnt@ioSkill@@UBEHPAVioBaseChar@@@Z	; ioSkill::GetCurActiveCnt
EXTRN	??1ioNormalSkill@@UAE@XZ:PROC			; ioNormalSkill::~ioNormalSkill
EXTRN	??0ioNormalSkill@@QAE@XZ:PROC			; ioNormalSkill::ioNormalSkill
EXTRN	?GetTypeID@ioNormalSkill@@UBEHXZ:PROC		; ioNormalSkill::GetTypeID
EXTRN	?IsCanSwitchSkill@ioSkill@@UBE_NXZ:PROC		; ioSkill::IsCanSwitchSkill
EXTRN	?IsCanSemiSwitchSkill@ioSkill@@UBE_NXZ:PROC	; ioSkill::IsCanSemiSwitchSkill
EXTRN	?IsCanCancelBySkill@ioSkill@@UBE_NPAVioBaseChar@@AAH@Z:PROC ; ioSkill::IsCanCancelBySkill
EXTRN	?IsCanUseZeroHP@ioSkill@@UBE_NPAVioBaseChar@@@Z:PROC ; ioSkill::IsCanUseZeroHP
EXTRN	?IsCanUseSkillWithCrown@ioSkill@@UAE_NPAVioBaseChar@@@Z:PROC ; ioSkill::IsCanUseSkillWithCrown
EXTRN	?IsCanUseBoss@ioSkill@@UBE_NPAVioBaseChar@@@Z:PROC ; ioSkill::IsCanUseBoss
EXTRN	?IsCanUseFootball@ioSkill@@UBE_NXZ:PROC		; ioSkill::IsCanUseFootball
EXTRN	?IsCanUseGangSiMode@ioSkill@@UBE_NXZ:PROC	; ioSkill::IsCanUseGangSiMode
EXTRN	?IsCanUseByWeaponType@ioSkill@@UBE_NPAVioBaseChar@@@Z:PROC ; ioSkill::IsCanUseByWeaponType
EXTRN	?IsCanUseThunderBirdHold@ioSkill@@UBE_NPAVioBaseChar@@@Z:PROC ; ioSkill::IsCanUseThunderBirdHold
EXTRN	?IsCanUseLimitHP@ioSkill@@UBE_NPAVioBaseChar@@@Z:PROC ; ioSkill::IsCanUseLimitHP
EXTRN	?IsCanUseSkill@ioNormalSkill@@UAE_NPAVioBaseChar@@_N@Z:PROC ; ioNormalSkill::IsCanUseSkill
EXTRN	?IsOnOffEnable@ioSkill@@UAE_NXZ:PROC		; ioSkill::IsOnOffEnable
EXTRN	?IsCanDefenseStateSkill@ioSkill@@UAE_NXZ:PROC	; ioSkill::IsCanDefenseStateSkill
EXTRN	?SetDefenseStateSkill@ioSkill@@UAEXPAVioBaseChar@@@Z:PROC ; ioSkill::SetDefenseStateSkill
EXTRN	?HasBuff@ioSkill@@UBE_NH@Z:PROC			; ioSkill::HasBuff
EXTRN	?GetBuffType@ioSkill@@UAEHH@Z:PROC		; ioSkill::GetBuffType
EXTRN	?IsEntityCollisionSkipState@ioSkill@@UBE_NXZ:PROC ; ioSkill::IsEntityCollisionSkipState
EXTRN	?IsAttackEndState@ioNormalSkill@@UBE_NXZ:PROC	; ioNormalSkill::IsAttackEndState
EXTRN	?IsJumpState@ioSkill@@UBE_NXZ:PROC		; ioSkill::IsJumpState
EXTRN	?IsDownState@ioSkill@@UBE_NXZ:PROC		; ioSkill::IsDownState
EXTRN	?IsCanSendControl@ioSkill@@UBE_NXZ:PROC		; ioSkill::IsCanSendControl
EXTRN	?IsSkipState@ioSkill@@UBE_NXZ:PROC		; ioSkill::IsSkipState
EXTRN	?GetSkillMoveRate@ioSkill@@UBEMXZ:PROC		; ioSkill::GetSkillMoveRate
EXTRN	?SetSkillGrapplingState@ioSkill@@UAE_NPAVioBaseChar@@ABVioHashString@@@Z:PROC ; ioSkill::SetSkillGrapplingState
EXTRN	?GetGrapplingTargetPos@ioSkill@@UAE?AUD3DXVECTOR3@@PAVioBaseChar@@0@Z:PROC ; ioSkill::GetGrapplingTargetPos
EXTRN	?GetGrapplingTargetPos@ioSkill@@UAE?AUD3DXVECTOR3@@PAVioBaseChar@@@Z:PROC ; ioSkill::GetGrapplingTargetPos
EXTRN	?GetSkillWoundGrapplingInfo@ioSkill@@UAE?AUGrapplingSkillWoundedInfo@@XZ:PROC ; ioSkill::GetSkillWoundGrapplingInfo
EXTRN	?SetCreateWeaponDependency@ioSkill@@UAEXPAVioBaseChar@@PAVioPlayStage@@@Z:PROC ; ioSkill::SetCreateWeaponDependency
EXTRN	?SetNextSkillState@ioSkill@@UAEXPAVioBaseChar@@PAVioWeapon@@@Z:PROC ; ioSkill::SetNextSkillState
EXTRN	?OnSkillEndByWounded@ioSkill@@UAEXPAVioBaseChar@@@Z:PROC ; ioSkill::OnSkillEndByWounded
EXTRN	?OnProcessNotUseSkill@ioSkill@@UAEXPAVioBaseChar@@PAVioPlayStage@@@Z:PROC ; ioSkill::OnProcessNotUseSkill
EXTRN	?OnSkillItemRelease@ioSkill@@UAEXPAVioBaseChar@@@Z:PROC ; ioSkill::OnSkillItemRelease
EXTRN	?ApplyEquipSlotSkillExtraInfo@ioSkill@@UAEXPAVioBaseChar@@PAVioPlayStage@@AAVSP2Packet@@@Z:PROC ; ioSkill::ApplyEquipSlotSkillExtraInfo
EXTRN	?ApplyExtraPassiveSkillInfo@ioSkill@@UAEXPAVioBaseChar@@PAVioPlayStage@@AAVSP2Packet@@@Z:PROC ; ioSkill::ApplyExtraPassiveSkillInfo
EXTRN	?StartPreDelayEffect@ioNormalSkill@@UAEXPAVioBaseChar@@@Z:PROC ; ioNormalSkill::StartPreDelayEffect
EXTRN	?EndPreDelayEffect@ioNormalSkill@@UAEXPAVioBaseChar@@@Z:PROC ; ioNormalSkill::EndPreDelayEffect
EXTRN	?IsUseAutoTargetValue@ioSkill@@UAE_NXZ:PROC	; ioSkill::IsUseAutoTargetValue
EXTRN	?IsAutoTargetDownState@ioSkill@@UAE_NXZ:PROC	; ioSkill::IsAutoTargetDownState
EXTRN	?CheckUseBuff@ioSkill@@UAE_NPAVioBaseChar@@@Z:PROC ; ioSkill::CheckUseBuff
EXTRN	?CheckUseActiveCount@ioSkill@@UAE_NXZ:PROC	; ioSkill::CheckUseActiveCount
EXTRN	?CheckAniRotate@ioSkill@@UAEXPAVioBaseChar@@@Z:PROC ; ioSkill::CheckAniRotate
EXTRN	?IsEnableDashCheck@ioSkill@@UAE_NPAVioBaseChar@@@Z:PROC ; ioSkill::IsEnableDashCheck
EXTRN	?IsEnableMultiActive@ioSkill@@UAE_NPAVioBaseChar@@@Z:PROC ; ioSkill::IsEnableMultiActive
EXTRN	?GetAutoTargetValue@ioSkill@@UAEXAAM00@Z:PROC	; ioSkill::GetAutoTargetValue
EXTRN	?GetSkillMotionName@ioSkill@@UBEABVioHashString@@XZ:PROC ; ioSkill::GetSkillMotionName
EXTRN	?HasSkillMotion@ioSkill@@UBE_NXZ:PROC		; ioSkill::HasSkillMotion
EXTRN	?GetSkillMotionRate@ioSkill@@UBEMXZ:PROC	; ioSkill::GetSkillMotionRate
EXTRN	?IsPreDelayProtect@ioSkill@@UBE_NXZ:PROC	; ioSkill::IsPreDelayProtect
EXTRN	?GetPreDelayAniName@ioSkill@@UBEABVioHashString@@XZ:PROC ; ioSkill::GetPreDelayAniName
EXTRN	?GetPreDelayTime@ioSkill@@UBEKXZ:PROC		; ioSkill::GetPreDelayTime
EXTRN	?GetPreDelayOwnerEffect@ioSkill@@UBEABVioHashString@@XZ:PROC ; ioSkill::GetPreDelayOwnerEffect
EXTRN	?GetPreDelayOtherEffect@ioSkill@@UBEABVioHashString@@XZ:PROC ; ioSkill::GetPreDelayOtherEffect
EXTRN	?SetCancelSkill@ioSkill@@UAEXPAVioBaseChar@@@Z:PROC ; ioSkill::SetCancelSkill
EXTRN	?ClearAirJump@ioSkill@@MAEXXZ:PROC		; ioSkill::ClearAirJump
EXTRN	?SetAirJump@ioSkill@@MAEXPAVioBaseChar@@HM@Z:PROC ; ioSkill::SetAirJump
EXTRN	?CheckAirJump@ioSkill@@MAEXPAVioBaseChar@@@Z:PROC ; ioSkill::CheckAirJump
EXTRN	?UseActiveCount@ioSkill@@UAE_NPAVioBaseChar@@@Z:PROC ; ioSkill::UseActiveCount
EXTRN	?GetMaxActiveCount@ioSkill@@UAEHPAVioBaseChar@@@Z:PROC ; ioSkill::GetMaxActiveCount
EXTRN	?GetCurActiveCount@ioSkill@@UAEHPAVioBaseChar@@@Z:PROC ; ioSkill::GetCurActiveCount
EXTRN	?HideHPGauge@ioSkill@@UAE_NXZ:PROC		; ioSkill::HideHPGauge
EXTRN	?SetInfoByApplyWeapon@ioSkill@@UAEXPAVioBaseChar@@0K_N@Z:PROC ; ioSkill::SetInfoByApplyWeapon
EXTRN	?SetCollisionByApplySkill@ioSkill@@UAEXXZ:PROC	; ioSkill::SetCollisionByApplySkill
EXTRN	?SetChargingRateForWeapon@ioSkill@@UAEXPAVioWeapon@@@Z:PROC ; ioSkill::SetChargingRateForWeapon
EXTRN	?CheckExceptionCamera@ioSkill@@UAE_NXZ:PROC	; ioSkill::CheckExceptionCamera
EXTRN	?GetExceptionCameraPos@ioSkill@@UAE?AUD3DXVECTOR3@@PAVioBaseChar@@@Z:PROC ; ioSkill::GetExceptionCameraPos
EXTRN	?IsFixedExceptionCamera@ioSkill@@UAE_NXZ:PROC	; ioSkill::IsFixedExceptionCamera
EXTRN	??_EioCircleMoveAttackSkill3@@UAEPAXI@Z:PROC	; ioCircleMoveAttackSkill3::`vector deleting destructor'
;	COMDAT ??_R2ioSkill@@8
; File d:\lost saga for developer\youtube\tutorial\source\src\lsclient\encryptvalue.h
rdata$r	SEGMENT
??_R2ioSkill@@8 DD FLAT:??_R1A@?0A@EA@ioSkill@@8	; ioSkill::`RTTI Base Class Array'
rdata$r	ENDS
;	COMDAT ??_R3ioSkill@@8
rdata$r	SEGMENT
??_R3ioSkill@@8 DD 00H					; ioSkill::`RTTI Class Hierarchy Descriptor'
	DD	00H
	DD	01H
	DD	FLAT:??_R2ioSkill@@8
rdata$r	ENDS
;	COMDAT ??_R0?AVioSkill@@@8
_DATA	SEGMENT
??_R0?AVioSkill@@@8 DD FLAT:??_7type_info@@6B@		; ioSkill `RTTI Type Descriptor'
	DD	00H
	DB	'.?AVioSkill@@', 00H
_DATA	ENDS
;	COMDAT ??_R1A@?0A@EA@ioSkill@@8
rdata$r	SEGMENT
??_R1A@?0A@EA@ioSkill@@8 DD FLAT:??_R0?AVioSkill@@@8	; ioSkill::`RTTI Base Class Descriptor at (0,-1,0,64)'
	DD	00H
	DD	00H
	DD	0ffffffffH
	DD	00H
	DD	040H
	DD	FLAT:??_R3ioSkill@@8
rdata$r	ENDS
;	COMDAT ??_R2ioNormalSkill@@8
rdata$r	SEGMENT
??_R2ioNormalSkill@@8 DD FLAT:??_R1A@?0A@EA@ioNormalSkill@@8 ; ioNormalSkill::`RTTI Base Class Array'
	DD	FLAT:??_R1A@?0A@EA@ioSkill@@8
rdata$r	ENDS
;	COMDAT ??_R3ioNormalSkill@@8
rdata$r	SEGMENT
??_R3ioNormalSkill@@8 DD 00H				; ioNormalSkill::`RTTI Class Hierarchy Descriptor'
	DD	00H
	DD	02H
	DD	FLAT:??_R2ioNormalSkill@@8
rdata$r	ENDS
;	COMDAT ??_R0?AVioNormalSkill@@@8
_DATA	SEGMENT
??_R0?AVioNormalSkill@@@8 DD FLAT:??_7type_info@@6B@	; ioNormalSkill `RTTI Type Descriptor'
	DD	00H
	DB	'.?AVioNormalSkill@@', 00H
_DATA	ENDS
;	COMDAT ??_R1A@?0A@EA@ioNormalSkill@@8
rdata$r	SEGMENT
??_R1A@?0A@EA@ioNormalSkill@@8 DD FLAT:??_R0?AVioNormalSkill@@@8 ; ioNormalSkill::`RTTI Base Class Descriptor at (0,-1,0,64)'
	DD	01H
	DD	00H
	DD	0ffffffffH
	DD	00H
	DD	040H
	DD	FLAT:??_R3ioNormalSkill@@8
rdata$r	ENDS
;	COMDAT ??_R1A@?0A@EA@ioCircleMoveAttackSkill3@@8
rdata$r	SEGMENT
??_R1A@?0A@EA@ioCircleMoveAttackSkill3@@8 DD FLAT:??_R0?AVioCircleMoveAttackSkill3@@@8 ; ioCircleMoveAttackSkill3::`RTTI Base Class Descriptor at (0,-1,0,64)'
	DD	02H
	DD	00H
	DD	0ffffffffH
	DD	00H
	DD	040H
	DD	FLAT:??_R3ioCircleMoveAttackSkill3@@8
rdata$r	ENDS
;	COMDAT ??_R2ioCircleMoveAttackSkill3@@8
rdata$r	SEGMENT
??_R2ioCircleMoveAttackSkill3@@8 DD FLAT:??_R1A@?0A@EA@ioCircleMoveAttackSkill3@@8 ; ioCircleMoveAttackSkill3::`RTTI Base Class Array'
	DD	FLAT:??_R1A@?0A@EA@ioNormalSkill@@8
	DD	FLAT:??_R1A@?0A@EA@ioSkill@@8
rdata$r	ENDS
;	COMDAT ??_R3ioCircleMoveAttackSkill3@@8
rdata$r	SEGMENT
??_R3ioCircleMoveAttackSkill3@@8 DD 00H			; ioCircleMoveAttackSkill3::`RTTI Class Hierarchy Descriptor'
	DD	00H
	DD	03H
	DD	FLAT:??_R2ioCircleMoveAttackSkill3@@8
rdata$r	ENDS
;	COMDAT ??_R0?AVioCircleMoveAttackSkill3@@@8
_DATA	SEGMENT
??_R0?AVioCircleMoveAttackSkill3@@@8 DD FLAT:??_7type_info@@6B@ ; ioCircleMoveAttackSkill3 `RTTI Type Descriptor'
	DD	00H
	DB	'.?AVioCircleMoveAttackSkill3@@', 00H
_DATA	ENDS
;	COMDAT ??_R4ioCircleMoveAttackSkill3@@6B@
rdata$r	SEGMENT
??_R4ioCircleMoveAttackSkill3@@6B@ DD 00H		; ioCircleMoveAttackSkill3::`RTTI Complete Object Locator'
	DD	00H
	DD	00H
	DD	FLAT:??_R0?AVioCircleMoveAttackSkill3@@@8
	DD	FLAT:??_R3ioCircleMoveAttackSkill3@@8
rdata$r	ENDS
;	COMDAT ??_7ioCircleMoveAttackSkill3@@6B@
CONST	SEGMENT
??_7ioCircleMoveAttackSkill3@@6B@ DD FLAT:??_R4ioCircleMoveAttackSkill3@@6B@ ; ioCircleMoveAttackSkill3::`vftable'
	DD	FLAT:?LoadProperty@ioCircleMoveAttackSkill3@@UAEXAAVioINILoader@@@Z
	DD	FLAT:?Clone@ioCircleMoveAttackSkill3@@UAEPAVioSkill@@XZ
	DD	FLAT:?GetTypeID@ioNormalSkill@@UBEHXZ
	DD	FLAT:?IsProtected@ioCircleMoveAttackSkill3@@UBE_NH@Z
	DD	FLAT:?IsCanSwitchSkill@ioSkill@@UBE_NXZ
	DD	FLAT:?IsCanSemiSwitchSkill@ioSkill@@UBE_NXZ
	DD	FLAT:?IsCanCancelBySkill@ioSkill@@UBE_NPAVioBaseChar@@AAH@Z
	DD	FLAT:?IsCanUseZeroHP@ioSkill@@UBE_NPAVioBaseChar@@@Z
	DD	FLAT:?IsCanUseSkillWithCrown@ioSkill@@UAE_NPAVioBaseChar@@@Z
	DD	FLAT:?IsCanUseBoss@ioSkill@@UBE_NPAVioBaseChar@@@Z
	DD	FLAT:?IsCanUseFootball@ioSkill@@UBE_NXZ
	DD	FLAT:?IsCanUseGangSiMode@ioSkill@@UBE_NXZ
	DD	FLAT:?IsCanUseByWeaponType@ioSkill@@UBE_NPAVioBaseChar@@@Z
	DD	FLAT:?IsCanUseThunderBirdHold@ioSkill@@UBE_NPAVioBaseChar@@@Z
	DD	FLAT:?IsCanUseLimitHP@ioSkill@@UBE_NPAVioBaseChar@@@Z
	DD	FLAT:?IsCanUseSkill@ioNormalSkill@@UAE_NPAVioBaseChar@@_N@Z
	DD	FLAT:?IsOnOffEnable@ioSkill@@UAE_NXZ
	DD	FLAT:?IsCanDefenseStateSkill@ioSkill@@UAE_NXZ
	DD	FLAT:?SetDefenseStateSkill@ioSkill@@UAEXPAVioBaseChar@@@Z
	DD	FLAT:?GetDefenseSkillBreakeType@ioSkill@@UBE?AW4DefenseBreakType@@XZ
	DD	FLAT:?HasBuff@ioSkill@@UBE_NH@Z
	DD	FLAT:?GetBuffType@ioSkill@@UAEHH@Z
	DD	FLAT:?IsEnableReserve@ioCircleMoveAttackSkill3@@UBE_NXZ
	DD	FLAT:?IsSkillMotionEnd@ioCircleMoveAttackSkill3@@UBE_NKPAVioBaseChar@@@Z
	DD	FLAT:?IsCharSkipState@ioCircleMoveAttackSkill3@@UBE?AW4SkillCharColType@@XZ
	DD	FLAT:?IsEntityCollisionSkipState@ioSkill@@UBE_NXZ
	DD	FLAT:?GetSkillEndNextJumpAmt@ioSkill@@UBEMXZ
	DD	FLAT:?GetSkillEndNextLandRate@ioSkill@@UBEMXZ
	DD	FLAT:?GetSkillEndNextJumpMustEnable@ioSkill@@UAE?AW4SkillEndJumpType@@XZ
	DD	FLAT:?IsEndState@ioCircleMoveAttackSkill3@@UBE_NXZ
	DD	FLAT:?IsAttackEndState@ioNormalSkill@@UBE_NXZ
	DD	FLAT:?IsJumpState@ioSkill@@UBE_NXZ
	DD	FLAT:?IsDownState@ioSkill@@UBE_NXZ
	DD	FLAT:?IsNoDropState@ioCircleMoveAttackSkill3@@UBE_NXZ
	DD	FLAT:?IsCanSendControl@ioSkill@@UBE_NXZ
	DD	FLAT:?IsSkipState@ioSkill@@UBE_NXZ
	DD	FLAT:?GetSkillMoveRate@ioSkill@@UBEMXZ
	DD	FLAT:?SetSkillGrapplingState@ioSkill@@UAE_NPAVioBaseChar@@ABVioHashString@@@Z
	DD	FLAT:?GetGrapplingTargetPos@ioSkill@@UAE?AUD3DXVECTOR3@@PAVioBaseChar@@0@Z
	DD	FLAT:?GetGrapplingTargetPos@ioSkill@@UAE?AUD3DXVECTOR3@@PAVioBaseChar@@@Z
	DD	FLAT:?EnableChangeGrapplingTargetPos@ioSkill@@UBE_NXZ
	DD	FLAT:?GetSkillWoundGrapplingInfo@ioSkill@@UAE?AUGrapplingSkillWoundedInfo@@XZ
	DD	FLAT:?SetCreateWeaponDependency@ioSkill@@UAEXPAVioBaseChar@@PAVioPlayStage@@@Z
	DD	FLAT:?SetNextSkillState@ioSkill@@UAEXPAVioBaseChar@@PAVioWeapon@@@Z
	DD	FLAT:?OnSkillStart@ioCircleMoveAttackSkill3@@UAE_NPAVioBaseChar@@@Z
	DD	FLAT:?OnProcessState@ioCircleMoveAttackSkill3@@UAEXPAVioBaseChar@@PAVioPlayStage@@@Z
	DD	FLAT:?OnSkillEndByWounded@ioSkill@@UAEXPAVioBaseChar@@@Z
	DD	FLAT:?OnSkillEnd@ioCircleMoveAttackSkill3@@UAEXPAVioBaseChar@@@Z
	DD	FLAT:?OnProcessNotUseSkill@ioSkill@@UAEXPAVioBaseChar@@PAVioPlayStage@@@Z
	DD	FLAT:?OnSkillItemRelease@ioSkill@@UAEXPAVioBaseChar@@@Z
	DD	FLAT:?ApplyAttributeToWeapon@ioCircleMoveAttackSkill3@@UAEXPAVioWeapon@@PAVioPlayStage@@@Z
	DD	FLAT:?ApplyExtraSkillInfo@ioCircleMoveAttackSkill3@@UAEXPAVioBaseChar@@PAVioPlayStage@@AAVSP2Packet@@@Z
	DD	FLAT:?ApplyEquipSlotSkillExtraInfo@ioSkill@@UAEXPAVioBaseChar@@PAVioPlayStage@@AAVSP2Packet@@@Z
	DD	FLAT:?ApplyExtraPassiveSkillInfo@ioSkill@@UAEXPAVioBaseChar@@PAVioPlayStage@@AAVSP2Packet@@@Z
	DD	FLAT:?StartPreDelayEffect@ioNormalSkill@@UAEXPAVioBaseChar@@@Z
	DD	FLAT:?EndPreDelayEffect@ioNormalSkill@@UAEXPAVioBaseChar@@@Z
	DD	FLAT:?IsUseAutoTargetValue@ioSkill@@UAE_NXZ
	DD	FLAT:?IsAutoTargetDownState@ioSkill@@UAE_NXZ
	DD	FLAT:?CheckUseBuff@ioSkill@@UAE_NPAVioBaseChar@@@Z
	DD	FLAT:?CheckUseItemMesh@ioCircleMoveAttackSkill3@@UAE_NXZ
	DD	FLAT:?CheckUseActiveCount@ioSkill@@UAE_NXZ
	DD	FLAT:?CheckAniRotate@ioSkill@@UAEXPAVioBaseChar@@@Z
	DD	FLAT:?IsEnableDashCheck@ioSkill@@UAE_NPAVioBaseChar@@@Z
	DD	FLAT:?IsEnableMultiActive@ioSkill@@UAE_NPAVioBaseChar@@@Z
	DD	FLAT:?IsInvisibleBottomCircle@ioSkill@@UAE_NPAVioBaseChar@@@Z
	DD	FLAT:?GetAutoTargetValue@ioSkill@@UAEXAAM00@Z
	DD	FLAT:?IsCanJumpingSkill@ioSkill@@UBE_NXZ
	DD	FLAT:?IsCanJumpingSkillOnBlowWound@ioSkill@@UBE_NXZ
	DD	FLAT:?IsCanDownSkill@ioSkill@@UBE_NXZ
	DD	FLAT:?IsCanBlowWoundSkill@ioSkill@@UBE_NXZ
	DD	FLAT:?IsCanWoundSkill@ioSkill@@UBE_NXZ
	DD	FLAT:?GetSkillGravityRate@ioCircleMoveAttackSkill3@@UAEMXZ
	DD	FLAT:?GetSkillMotionName@ioSkill@@UBEABVioHashString@@XZ
	DD	FLAT:?HasSkillMotion@ioSkill@@UBE_NXZ
	DD	FLAT:?GetSkillMotionRate@ioSkill@@UBEMXZ
	DD	FLAT:?IsPreDelayProtect@ioSkill@@UBE_NXZ
	DD	FLAT:?GetPreDelayAniName@ioSkill@@UBEABVioHashString@@XZ
	DD	FLAT:?GetPreDelayTime@ioSkill@@UBEKXZ
	DD	FLAT:?GetPreDelayOwnerEffect@ioSkill@@UBEABVioHashString@@XZ
	DD	FLAT:?GetPreDelayOtherEffect@ioSkill@@UBEABVioHashString@@XZ
	DD	FLAT:?SetCancelSkill@ioSkill@@UAEXPAVioBaseChar@@@Z
	DD	FLAT:?ClearAirJump@ioSkill@@MAEXXZ
	DD	FLAT:?SetAirJump@ioSkill@@MAEXPAVioBaseChar@@HM@Z
	DD	FLAT:?CheckAirJump@ioSkill@@MAEXPAVioBaseChar@@@Z
	DD	FLAT:?UseActiveCount@ioSkill@@UAE_NPAVioBaseChar@@@Z
	DD	FLAT:?GetMaxActiveCount@ioSkill@@UAEHPAVioBaseChar@@@Z
	DD	FLAT:?GetCurActiveCount@ioSkill@@UAEHPAVioBaseChar@@@Z
	DD	FLAT:?HideHPGauge@ioSkill@@UAE_NXZ
	DD	FLAT:?SetInfoByApplyWeapon@ioSkill@@UAEXPAVioBaseChar@@0K_N@Z
	DD	FLAT:?SetCollisionByApplySkill@ioSkill@@UAEXXZ
	DD	FLAT:?SetChargingRateForWeapon@ioSkill@@UAEXPAVioWeapon@@@Z
	DD	FLAT:?CheckExceptionCamera@ioSkill@@UAE_NXZ
	DD	FLAT:?GetExceptionCameraPos@ioSkill@@UAE?AUD3DXVECTOR3@@PAVioBaseChar@@@Z
	DD	FLAT:?IsFixedExceptionCamera@ioSkill@@UAE_NXZ
	DD	FLAT:?IsUseActiveCnt@ioSkill@@UBE_NXZ
	DD	FLAT:?GetMaxActiveCnt@ioSkill@@UBEHPAVioBaseChar@@@Z
	DD	FLAT:?GetCurActiveCnt@ioSkill@@UBEHPAVioBaseChar@@@Z
	DD	FLAT:??_EioCircleMoveAttackSkill3@@UAEPAXI@Z
	DD	FLAT:?StartPreDelayAnimation@ioCircleMoveAttackSkill3@@MAE_NPAVioBaseChar@@@Z
	DD	FLAT:?SetNormalSkill@ioCircleMoveAttackSkill3@@MAEXPAVioBaseChar@@@Z
CONST	ENDS
;	COMDAT xdata$x
xdata$x	SEGMENT
__ehfuncinfo$??0ioCircleMoveAttackSkill3@@QAE@XZ DD 019930522H
	DD	0cH
	DD	FLAT:__unwindtable$??0ioCircleMoveAttackSkill3@@QAE@XZ
	DD	2 DUP(00H)
	DD	2 DUP(00H)
	DD	00H
	DD	01H
__unwindtable$??0ioCircleMoveAttackSkill3@@QAE@XZ DD 0ffffffffH
	DD	FLAT:__unwindfunclet$??0ioCircleMoveAttackSkill3@@QAE@XZ$0
	DD	00H
	DD	FLAT:__unwindfunclet$??0ioCircleMoveAttackSkill3@@QAE@XZ$1
	DD	01H
	DD	FLAT:__unwindfunclet$??0ioCircleMoveAttackSkill3@@QAE@XZ$2
	DD	02H
	DD	FLAT:__unwindfunclet$??0ioCircleMoveAttackSkill3@@QAE@XZ$3
	DD	03H
	DD	FLAT:__unwindfunclet$??0ioCircleMoveAttackSkill3@@QAE@XZ$4
	DD	04H
	DD	FLAT:__unwindfunclet$??0ioCircleMoveAttackSkill3@@QAE@XZ$5
	DD	05H
	DD	FLAT:__unwindfunclet$??0ioCircleMoveAttackSkill3@@QAE@XZ$6
	DD	06H
	DD	FLAT:__unwindfunclet$??0ioCircleMoveAttackSkill3@@QAE@XZ$7
	DD	07H
	DD	FLAT:__unwindfunclet$??0ioCircleMoveAttackSkill3@@QAE@XZ$8
	DD	08H
	DD	FLAT:__unwindfunclet$??0ioCircleMoveAttackSkill3@@QAE@XZ$9
	DD	09H
	DD	FLAT:__unwindfunclet$??0ioCircleMoveAttackSkill3@@QAE@XZ$10
	DD	0aH
	DD	FLAT:__unwindfunclet$??0ioCircleMoveAttackSkill3@@QAE@XZ$11
; Function compile flags: /Ogsp
; File d:\lost saga for developer\youtube\tutorial\source\src\lsclient\iocirclemoveattackskill3.cpp
xdata$x	ENDS
;	COMDAT ??0ioCircleMoveAttackSkill3@@QAE@XZ
_TEXT	SEGMENT
_this$ = -20						; size = 4
_value$557350 = -16					; size = 4
__$EHRec$ = -12						; size = 12
??0ioCircleMoveAttackSkill3@@QAE@XZ PROC		; ioCircleMoveAttackSkill3::ioCircleMoveAttackSkill3, COMDAT
; _this$ = ecx

; 14   : {

  00000	6a 08		 push	 8
  00002	b8 00 00 00 00	 mov	 eax, __ehhandler$??0ioCircleMoveAttackSkill3@@QAE@XZ
  00007	e8 00 00 00 00	 call	 __EH_prolog3
  0000c	8b f1		 mov	 esi, ecx
  0000e	89 75 ec	 mov	 DWORD PTR _this$[ebp], esi
  00011	e8 00 00 00 00	 call	 ??0ioNormalSkill@@QAE@XZ ; ioNormalSkill::ioNormalSkill
  00016	83 65 fc 00	 and	 DWORD PTR __$EHRec$[ebp+8], 0
  0001a	8d 8e 58 0f 00
	00		 lea	 ecx, DWORD PTR [esi+3928]
  00020	c7 06 00 00 00
	00		 mov	 DWORD PTR [esi], OFFSET ??_7ioCircleMoveAttackSkill3@@6B@
  00026	e8 00 00 00 00	 call	 ??0?$CEncrypt@H@@QAE@XZ	; CEncrypt<int>::CEncrypt<int>
  0002b	8b 3d 00 00 00
	00		 mov	 edi, DWORD PTR __imp_??0ioHashString@@QAE@XZ
  00031	8d 8e 8c 0f 00
	00		 lea	 ecx, DWORD PTR [esi+3980]
  00037	c6 45 fc 01	 mov	 BYTE PTR __$EHRec$[ebp+8], 1
  0003b	ff d7		 call	 edi
  0003d	8d 8e a0 0f 00
	00		 lea	 ecx, DWORD PTR [esi+4000]
  00043	c6 45 fc 02	 mov	 BYTE PTR __$EHRec$[ebp+8], 2
  00047	e8 00 00 00 00	 call	 ??0?$CEncrypt@K@@QAE@XZ	; CEncrypt<unsigned long>::CEncrypt<unsigned long>
  0004c	8d 8e d0 0f 00
	00		 lea	 ecx, DWORD PTR [esi+4048]
  00052	c6 45 fc 03	 mov	 BYTE PTR __$EHRec$[ebp+8], 3
  00056	e8 00 00 00 00	 call	 ??0?$CEncrypt@K@@QAE@XZ	; CEncrypt<unsigned long>::CEncrypt<unsigned long>
  0005b	8d 8e 10 10 00
	00		 lea	 ecx, DWORD PTR [esi+4112]
  00061	c6 45 fc 04	 mov	 BYTE PTR __$EHRec$[ebp+8], 4
  00065	ff d7		 call	 edi
  00067	8d 8e 20 10 00
	00		 lea	 ecx, DWORD PTR [esi+4128]
  0006d	c6 45 fc 05	 mov	 BYTE PTR __$EHRec$[ebp+8], 5
  00071	ff d7		 call	 edi
  00073	8d 8e 30 10 00
	00		 lea	 ecx, DWORD PTR [esi+4144]
  00079	c6 45 fc 06	 mov	 BYTE PTR __$EHRec$[ebp+8], 6
  0007d	ff d7		 call	 edi
  0007f	8d 8e 40 10 00
	00		 lea	 ecx, DWORD PTR [esi+4160]
  00085	c6 45 fc 07	 mov	 BYTE PTR __$EHRec$[ebp+8], 7
  00089	ff d7		 call	 edi
  0008b	8d 8e 64 10 00
	00		 lea	 ecx, DWORD PTR [esi+4196]
  00091	c6 45 fc 08	 mov	 BYTE PTR __$EHRec$[ebp+8], 8
  00095	ff d7		 call	 edi
  00097	8d 8e 88 10 00
	00		 lea	 ecx, DWORD PTR [esi+4232]
  0009d	c6 45 fc 09	 mov	 BYTE PTR __$EHRec$[ebp+8], 9
  000a1	e8 00 00 00 00	 call	 ??0AttackAttribute@@QAE@XZ ; AttackAttribute::AttackAttribute
  000a6	8d 8e d8 10 00
	00		 lea	 ecx, DWORD PTR [esi+4312]
  000ac	c6 45 fc 0a	 mov	 BYTE PTR __$EHRec$[ebp+8], 10 ; 0000000aH
  000b0	e8 00 00 00 00	 call	 ??0AttackAttribute@@QAE@XZ ; AttackAttribute::AttackAttribute

; 15   : 	m_State = SS_NONE;

  000b5	8d 45 f0	 lea	 eax, DWORD PTR _value$557350[ebp]
  000b8	33 ff		 xor	 edi, edi
  000ba	50		 push	 eax
  000bb	8d 8e 58 0f 00
	00		 lea	 ecx, DWORD PTR [esi+3928]
  000c1	c6 45 fc 0b	 mov	 BYTE PTR __$EHRec$[ebp+8], 11 ; 0000000bH
  000c5	89 7d f0	 mov	 DWORD PTR _value$557350[ebp], edi
  000c8	e8 00 00 00 00	 call	 ?EncryptValueToPool@?$CEncrypt@H@@AAEXPBD@Z ; CEncrypt<int>::EncryptValueToPool

; 16   : 
; 17   : 	m_dwCurMapEffect = -1;

  000cd	83 8e 50 10 00
	00 ff		 or	 DWORD PTR [esi+4176], -1

; 18   : 	m_dwTargetCircleEffect = -1;
; 19   : 
; 20   : 	m_bSetHandMesh = false;
; 21   : 
; 22   : 	m_dwPreActionEndTime = 0;
; 23   : 	m_dwWaitStartTime = 0;
; 24   : 
; 25   : 	m_fCurCharMoveSpeed = 0.0f;

  000d4	0f 57 c0	 xorps	 xmm0, xmm0
  000d7	83 8e 54 10 00
	00 ff		 or	 DWORD PTR [esi+4180], -1
  000de	c6 86 0a 0f 00
	00 00		 mov	 BYTE PTR [esi+3850], 0
  000e5	89 be 88 0f 00
	00		 mov	 DWORD PTR [esi+3976], edi
  000eb	89 be 9c 0f 00
	00		 mov	 DWORD PTR [esi+3996], edi
  000f1	f3 0f 11 86 78
	10 00 00	 movss	 DWORD PTR [esi+4216], xmm0

; 26   : }

  000f9	8b c6		 mov	 eax, esi
  000fb	e8 00 00 00 00	 call	 __EH_epilog3
  00100	c3		 ret	 0
_TEXT	ENDS
;	COMDAT text$x
text$x	SEGMENT
__unwindfunclet$??0ioCircleMoveAttackSkill3@@QAE@XZ$0:
  00000	8b 4d ec	 mov	 ecx, DWORD PTR _this$[ebp]
  00003	e9 00 00 00 00	 jmp	 ??1ioNormalSkill@@UAE@XZ ; ioNormalSkill::~ioNormalSkill
__unwindfunclet$??0ioCircleMoveAttackSkill3@@QAE@XZ$1:
  00008	8b 4d ec	 mov	 ecx, DWORD PTR _this$[ebp]
  0000b	81 c1 58 0f 00
	00		 add	 ecx, 3928		; 00000f58H
  00011	e9 00 00 00 00	 jmp	 ??1?$CEncrypt@H@@UAE@XZ	; CEncrypt<int>::~CEncrypt<int>
__unwindfunclet$??0ioCircleMoveAttackSkill3@@QAE@XZ$2:
  00016	8b 4d ec	 mov	 ecx, DWORD PTR _this$[ebp]
  00019	81 c1 8c 0f 00
	00		 add	 ecx, 3980		; 00000f8cH
  0001f	ff 25 00 00 00
	00		 jmp	 DWORD PTR __imp_??1ioHashString@@QAE@XZ
__unwindfunclet$??0ioCircleMoveAttackSkill3@@QAE@XZ$3:
  00025	8b 4d ec	 mov	 ecx, DWORD PTR _this$[ebp]
  00028	81 c1 a0 0f 00
	00		 add	 ecx, 4000		; 00000fa0H
  0002e	e9 00 00 00 00	 jmp	 ??1?$CEncrypt@K@@UAE@XZ	; CEncrypt<unsigned long>::~CEncrypt<unsigned long>
__unwindfunclet$??0ioCircleMoveAttackSkill3@@QAE@XZ$4:
  00033	8b 4d ec	 mov	 ecx, DWORD PTR _this$[ebp]
  00036	81 c1 d0 0f 00
	00		 add	 ecx, 4048		; 00000fd0H
  0003c	e9 00 00 00 00	 jmp	 ??1?$CEncrypt@K@@UAE@XZ	; CEncrypt<unsigned long>::~CEncrypt<unsigned long>
__unwindfunclet$??0ioCircleMoveAttackSkill3@@QAE@XZ$5:
  00041	8b 4d ec	 mov	 ecx, DWORD PTR _this$[ebp]
  00044	81 c1 10 10 00
	00		 add	 ecx, 4112		; 00001010H
  0004a	ff 25 00 00 00
	00		 jmp	 DWORD PTR __imp_??1ioHashString@@QAE@XZ
__unwindfunclet$??0ioCircleMoveAttackSkill3@@QAE@XZ$6:
  00050	8b 4d ec	 mov	 ecx, DWORD PTR _this$[ebp]
  00053	81 c1 20 10 00
	00		 add	 ecx, 4128		; 00001020H
  00059	ff 25 00 00 00
	00		 jmp	 DWORD PTR __imp_??1ioHashString@@QAE@XZ
__unwindfunclet$??0ioCircleMoveAttackSkill3@@QAE@XZ$7:
  0005f	8b 4d ec	 mov	 ecx, DWORD PTR _this$[ebp]
  00062	81 c1 30 10 00
	00		 add	 ecx, 4144		; 00001030H
  00068	ff 25 00 00 00
	00		 jmp	 DWORD PTR __imp_??1ioHashString@@QAE@XZ
__unwindfunclet$??0ioCircleMoveAttackSkill3@@QAE@XZ$8:
  0006e	8b 4d ec	 mov	 ecx, DWORD PTR _this$[ebp]
  00071	81 c1 40 10 00
	00		 add	 ecx, 4160		; 00001040H
  00077	ff 25 00 00 00
	00		 jmp	 DWORD PTR __imp_??1ioHashString@@QAE@XZ
__unwindfunclet$??0ioCircleMoveAttackSkill3@@QAE@XZ$9:
  0007d	8b 4d ec	 mov	 ecx, DWORD PTR _this$[ebp]
  00080	81 c1 64 10 00
	00		 add	 ecx, 4196		; 00001064H
  00086	ff 25 00 00 00
	00		 jmp	 DWORD PTR __imp_??1ioHashString@@QAE@XZ
__unwindfunclet$??0ioCircleMoveAttackSkill3@@QAE@XZ$10:
  0008c	8b 4d ec	 mov	 ecx, DWORD PTR _this$[ebp]
  0008f	81 c1 88 10 00
	00		 add	 ecx, 4232		; 00001088H
  00095	e9 00 00 00 00	 jmp	 ??1AttackAttribute@@QAE@XZ
__unwindfunclet$??0ioCircleMoveAttackSkill3@@QAE@XZ$11:
  0009a	8b 4d ec	 mov	 ecx, DWORD PTR _this$[ebp]
  0009d	81 c1 d8 10 00
	00		 add	 ecx, 4312		; 000010d8H
  000a3	e9 00 00 00 00	 jmp	 ??1AttackAttribute@@QAE@XZ
__ehhandler$??0ioCircleMoveAttackSkill3@@QAE@XZ:
  000a8	8b 54 24 08	 mov	 edx, DWORD PTR [esp+8]
  000ac	8d 42 0c	 lea	 eax, DWORD PTR [edx+12]
  000af	8b 4a e8	 mov	 ecx, DWORD PTR [edx-24]
  000b2	33 c8		 xor	 ecx, eax
  000b4	e8 00 00 00 00	 call	 @__security_check_cookie@4
  000b9	b8 00 00 00 00	 mov	 eax, OFFSET __ehfuncinfo$??0ioCircleMoveAttackSkill3@@QAE@XZ
  000be	e9 00 00 00 00	 jmp	 ___CxxFrameHandler3
text$x	ENDS
??0ioCircleMoveAttackSkill3@@QAE@XZ ENDP		; ioCircleMoveAttackSkill3::ioCircleMoveAttackSkill3
; Function compile flags: /Ogsp
; File d:\lost saga for developer\youtube\tutorial\source\src\lsclient\ioskill.h
;	COMDAT ?GetDefenseSkillBreakeType@ioSkill@@UBE?AW4DefenseBreakType@@XZ
_TEXT	SEGMENT
?GetDefenseSkillBreakeType@ioSkill@@UBE?AW4DefenseBreakType@@XZ PROC ; ioSkill::GetDefenseSkillBreakeType, COMDAT
; _this$ = ecx

; 327  : 	virtual DefenseBreakType GetDefenseSkillBreakeType() const { return m_eDefenseSkillBreakType; }

  00000	8b 81 30 0e 00
	00		 mov	 eax, DWORD PTR [ecx+3632]
  00006	c3		 ret	 0
?GetDefenseSkillBreakeType@ioSkill@@UBE?AW4DefenseBreakType@@XZ ENDP ; ioSkill::GetDefenseSkillBreakeType
; Function compile flags: /Ogsp
_TEXT	ENDS
;	COMDAT ?GetSkillEndNextJumpAmt@ioSkill@@UBEMXZ
_TEXT	SEGMENT
?GetSkillEndNextJumpAmt@ioSkill@@UBEMXZ PROC		; ioSkill::GetSkillEndNextJumpAmt, COMDAT
; _this$ = ecx

; 335  : 	virtual float GetSkillEndNextJumpAmt() const { return m_fSkillEndNextJumpAmt; }

  00000	d9 81 4c 05 00
	00		 fld	 DWORD PTR [ecx+1356]
  00006	c3		 ret	 0
?GetSkillEndNextJumpAmt@ioSkill@@UBEMXZ ENDP		; ioSkill::GetSkillEndNextJumpAmt
; Function compile flags: /Ogsp
_TEXT	ENDS
;	COMDAT ?GetSkillEndNextLandRate@ioSkill@@UBEMXZ
_TEXT	SEGMENT
?GetSkillEndNextLandRate@ioSkill@@UBEMXZ PROC		; ioSkill::GetSkillEndNextLandRate, COMDAT
; _this$ = ecx

; 336  : 	virtual float GetSkillEndNextLandRate() const { return m_fSkillEndNextLandRate; }

  00000	d9 81 50 05 00
	00		 fld	 DWORD PTR [ecx+1360]
  00006	c3		 ret	 0
?GetSkillEndNextLandRate@ioSkill@@UBEMXZ ENDP		; ioSkill::GetSkillEndNextLandRate
; Function compile flags: /Ogsp
_TEXT	ENDS
;	COMDAT ?GetSkillEndNextJumpMustEnable@ioSkill@@UAE?AW4SkillEndJumpType@@XZ
_TEXT	SEGMENT
?GetSkillEndNextJumpMustEnable@ioSkill@@UAE?AW4SkillEndJumpType@@XZ PROC ; ioSkill::GetSkillEndNextJumpMustEnable, COMDAT
; _this$ = ecx

; 337  : 	virtual SkillEndJumpType GetSkillEndNextJumpMustEnable(){ return SEJT_DEFAULT; }

  00000	33 c0		 xor	 eax, eax
  00002	c3		 ret	 0
?GetSkillEndNextJumpMustEnable@ioSkill@@UAE?AW4SkillEndJumpType@@XZ ENDP ; ioSkill::GetSkillEndNextJumpMustEnable
; Function compile flags: /Ogsp
_TEXT	ENDS
;	COMDAT ?EnableChangeGrapplingTargetPos@ioSkill@@UBE_NXZ
_TEXT	SEGMENT
?EnableChangeGrapplingTargetPos@ioSkill@@UBE_NXZ PROC	; ioSkill::EnableChangeGrapplingTargetPos, COMDAT
; _this$ = ecx

; 355  : 	virtual bool EnableChangeGrapplingTargetPos() const { return m_bChangeGrapplingTargetPos; }

  00000	8a 81 40 09 00
	00		 mov	 al, BYTE PTR [ecx+2368]
  00006	c3		 ret	 0
?EnableChangeGrapplingTargetPos@ioSkill@@UBE_NXZ ENDP	; ioSkill::EnableChangeGrapplingTargetPos
; Function compile flags: /Ogsp
_TEXT	ENDS
;	COMDAT ?IsInvisibleBottomCircle@ioSkill@@UAE_NPAVioBaseChar@@@Z
_TEXT	SEGMENT
_pChar$ = 8						; size = 4
?IsInvisibleBottomCircle@ioSkill@@UAE_NPAVioBaseChar@@@Z PROC ; ioSkill::IsInvisibleBottomCircle, COMDAT
; _this$ = ecx

; 393  : 	virtual bool IsInvisibleBottomCircle( ioBaseChar *pChar ) { return false; }

  00000	32 c0		 xor	 al, al
  00002	c2 04 00	 ret	 4
?IsInvisibleBottomCircle@ioSkill@@UAE_NPAVioBaseChar@@@Z ENDP ; ioSkill::IsInvisibleBottomCircle
; Function compile flags: /Ogsp
_TEXT	ENDS
;	COMDAT ?IsUseActiveCnt@ioSkill@@UBE_NXZ
_TEXT	SEGMENT
?IsUseActiveCnt@ioSkill@@UBE_NXZ PROC			; ioSkill::IsUseActiveCnt, COMDAT
; _this$ = ecx

; 544  : 	virtual bool IsUseActiveCnt() const { return false; }

  00000	32 c0		 xor	 al, al
  00002	c3		 ret	 0
?IsUseActiveCnt@ioSkill@@UBE_NXZ ENDP			; ioSkill::IsUseActiveCnt
; Function compile flags: /Ogsp
_TEXT	ENDS
;	COMDAT ?GetMaxActiveCnt@ioSkill@@UBEHPAVioBaseChar@@@Z
_TEXT	SEGMENT
_pChar$ = 8						; size = 4
?GetMaxActiveCnt@ioSkill@@UBEHPAVioBaseChar@@@Z PROC	; ioSkill::GetMaxActiveCnt, COMDAT
; _this$ = ecx

; 545  : 	virtual int GetMaxActiveCnt( ioBaseChar *pChar ) const { return 0; }

  00000	33 c0		 xor	 eax, eax
  00002	c2 04 00	 ret	 4
?GetMaxActiveCnt@ioSkill@@UBEHPAVioBaseChar@@@Z ENDP	; ioSkill::GetMaxActiveCnt
; Function compile flags: /Ogsp
_TEXT	ENDS
;	COMDAT ?GetCurActiveCnt@ioSkill@@UBEHPAVioBaseChar@@@Z
_TEXT	SEGMENT
_pChar$ = 8						; size = 4
?GetCurActiveCnt@ioSkill@@UBEHPAVioBaseChar@@@Z PROC	; ioSkill::GetCurActiveCnt, COMDAT
; _this$ = ecx

; 546  : 	virtual int GetCurActiveCnt( ioBaseChar *pChar ) const { return 0; }

  00000	33 c0		 xor	 eax, eax
  00002	c2 04 00	 ret	 4
?GetCurActiveCnt@ioSkill@@UBEHPAVioBaseChar@@@Z ENDP	; ioSkill::GetCurActiveCnt
; Function compile flags: /Ogsp
_TEXT	ENDS
;	COMDAT ?IsCanJumpingSkill@ioSkill@@UBE_NXZ
_TEXT	SEGMENT
_value$557389 = -1					; size = 1
?IsCanJumpingSkill@ioSkill@@UBE_NXZ PROC		; ioSkill::IsCanJumpingSkill, COMDAT
; _this$ = ecx

; 431  : 	virtual bool IsCanJumpingSkill() const { return m_bEnableJumpingSkill; }

  00000	55		 push	 ebp
  00001	8b ec		 mov	 ebp, esp
  00003	51		 push	 ecx
  00004	8d 45 ff	 lea	 eax, DWORD PTR _value$557389[ebp]
  00007	50		 push	 eax
  00008	81 c1 9c 03 00
	00		 add	 ecx, 924		; 0000039cH
  0000e	e8 00 00 00 00	 call	 ?DecryptValueToPool@?$CEncrypt@_N@@QAEXPA_N@Z ; CEncrypt<bool>::DecryptValueToPool
  00013	8a 45 ff	 mov	 al, BYTE PTR _value$557389[ebp]
  00016	c9		 leave
  00017	c3		 ret	 0
?IsCanJumpingSkill@ioSkill@@UBE_NXZ ENDP		; ioSkill::IsCanJumpingSkill
; Function compile flags: /Ogsp
_TEXT	ENDS
;	COMDAT ?IsCanJumpingSkillOnBlowWound@ioSkill@@UBE_NXZ
_TEXT	SEGMENT
_value$557396 = -1					; size = 1
?IsCanJumpingSkillOnBlowWound@ioSkill@@UBE_NXZ PROC	; ioSkill::IsCanJumpingSkillOnBlowWound, COMDAT
; _this$ = ecx

; 432  : 	virtual bool IsCanJumpingSkillOnBlowWound() const { return m_bEnableJumpingSkillOnBlowWound; }

  00000	55		 push	 ebp
  00001	8b ec		 mov	 ebp, esp
  00003	51		 push	 ecx
  00004	8d 45 ff	 lea	 eax, DWORD PTR _value$557396[ebp]
  00007	50		 push	 eax
  00008	81 c1 cc 03 00
	00		 add	 ecx, 972		; 000003ccH
  0000e	e8 00 00 00 00	 call	 ?DecryptValueToPool@?$CEncrypt@_N@@QAEXPA_N@Z ; CEncrypt<bool>::DecryptValueToPool
  00013	8a 45 ff	 mov	 al, BYTE PTR _value$557396[ebp]
  00016	c9		 leave
  00017	c3		 ret	 0
?IsCanJumpingSkillOnBlowWound@ioSkill@@UBE_NXZ ENDP	; ioSkill::IsCanJumpingSkillOnBlowWound
; Function compile flags: /Ogsp
_TEXT	ENDS
;	COMDAT ?IsCanDownSkill@ioSkill@@UBE_NXZ
_TEXT	SEGMENT
_value$557403 = -1					; size = 1
?IsCanDownSkill@ioSkill@@UBE_NXZ PROC			; ioSkill::IsCanDownSkill, COMDAT
; _this$ = ecx

; 437  : 	virtual bool IsCanDownSkill() const { return m_bEnableDownSkill; }

  00000	55		 push	 ebp
  00001	8b ec		 mov	 ebp, esp
  00003	51		 push	 ecx
  00004	8d 45 ff	 lea	 eax, DWORD PTR _value$557403[ebp]
  00007	50		 push	 eax
  00008	81 c1 5c 04 00
	00		 add	 ecx, 1116		; 0000045cH
  0000e	e8 00 00 00 00	 call	 ?DecryptValueToPool@?$CEncrypt@_N@@QAEXPA_N@Z ; CEncrypt<bool>::DecryptValueToPool
  00013	8a 45 ff	 mov	 al, BYTE PTR _value$557403[ebp]
  00016	c9		 leave
  00017	c3		 ret	 0
?IsCanDownSkill@ioSkill@@UBE_NXZ ENDP			; ioSkill::IsCanDownSkill
; Function compile flags: /Ogsp
_TEXT	ENDS
;	COMDAT ?IsCanBlowWoundSkill@ioSkill@@UBE_NXZ
_TEXT	SEGMENT
_value$557410 = -1					; size = 1
?IsCanBlowWoundSkill@ioSkill@@UBE_NXZ PROC		; ioSkill::IsCanBlowWoundSkill, COMDAT
; _this$ = ecx

; 440  : 	virtual bool IsCanBlowWoundSkill() const { return m_bEnableBlowWoundSkill; }

  00000	55		 push	 ebp
  00001	8b ec		 mov	 ebp, esp
  00003	51		 push	 ecx
  00004	8d 45 ff	 lea	 eax, DWORD PTR _value$557410[ebp]
  00007	50		 push	 eax
  00008	81 c1 8c 04 00
	00		 add	 ecx, 1164		; 0000048cH
  0000e	e8 00 00 00 00	 call	 ?DecryptValueToPool@?$CEncrypt@_N@@QAEXPA_N@Z ; CEncrypt<bool>::DecryptValueToPool
  00013	8a 45 ff	 mov	 al, BYTE PTR _value$557410[ebp]
  00016	c9		 leave
  00017	c3		 ret	 0
?IsCanBlowWoundSkill@ioSkill@@UBE_NXZ ENDP		; ioSkill::IsCanBlowWoundSkill
; Function compile flags: /Ogsp
_TEXT	ENDS
;	COMDAT ?IsCanWoundSkill@ioSkill@@UBE_NXZ
_TEXT	SEGMENT
_value$557417 = -1					; size = 1
?IsCanWoundSkill@ioSkill@@UBE_NXZ PROC			; ioSkill::IsCanWoundSkill, COMDAT
; _this$ = ecx

; 446  : 	virtual bool IsCanWoundSkill() const { return m_bEnableWoundSkill; }

  00000	55		 push	 ebp
  00001	8b ec		 mov	 ebp, esp
  00003	51		 push	 ecx
  00004	8d 45 ff	 lea	 eax, DWORD PTR _value$557417[ebp]
  00007	50		 push	 eax
  00008	81 c1 54 05 00
	00		 add	 ecx, 1364		; 00000554H
  0000e	e8 00 00 00 00	 call	 ?DecryptValueToPool@?$CEncrypt@_N@@QAEXPA_N@Z ; CEncrypt<bool>::DecryptValueToPool
  00013	8a 45 ff	 mov	 al, BYTE PTR _value$557417[ebp]
  00016	c9		 leave
  00017	c3		 ret	 0
?IsCanWoundSkill@ioSkill@@UBE_NXZ ENDP			; ioSkill::IsCanWoundSkill
_TEXT	ENDS
PUBLIC	??0ioCircleMoveAttackSkill3@@QAE@ABV0@@Z	; ioCircleMoveAttackSkill3::ioCircleMoveAttackSkill3
EXTRN	??0ioNormalSkill@@QAE@ABV0@@Z:PROC		; ioNormalSkill::ioNormalSkill
;	COMDAT xdata$x
; File d:\lost saga for developer\youtube\tutorial\source\src\lsclient\encryptvalue.h
xdata$x	SEGMENT
__ehfuncinfo$??0ioCircleMoveAttackSkill3@@QAE@ABV0@@Z DD 019930522H
	DD	0cH
	DD	FLAT:__unwindtable$??0ioCircleMoveAttackSkill3@@QAE@ABV0@@Z
	DD	2 DUP(00H)
	DD	2 DUP(00H)
	DD	00H
	DD	01H
__unwindtable$??0ioCircleMoveAttackSkill3@@QAE@ABV0@@Z DD 0ffffffffH
	DD	FLAT:__unwindfunclet$??0ioCircleMoveAttackSkill3@@QAE@ABV0@@Z$0
	DD	00H
	DD	FLAT:__unwindfunclet$??0ioCircleMoveAttackSkill3@@QAE@ABV0@@Z$1
	DD	01H
	DD	FLAT:__unwindfunclet$??0ioCircleMoveAttackSkill3@@QAE@ABV0@@Z$2
	DD	02H
	DD	FLAT:__unwindfunclet$??0ioCircleMoveAttackSkill3@@QAE@ABV0@@Z$3
	DD	03H
	DD	FLAT:__unwindfunclet$??0ioCircleMoveAttackSkill3@@QAE@ABV0@@Z$4
	DD	04H
	DD	FLAT:__unwindfunclet$??0ioCircleMoveAttackSkill3@@QAE@ABV0@@Z$5
	DD	05H
	DD	FLAT:__unwindfunclet$??0ioCircleMoveAttackSkill3@@QAE@ABV0@@Z$6
	DD	06H
	DD	FLAT:__unwindfunclet$??0ioCircleMoveAttackSkill3@@QAE@ABV0@@Z$7
	DD	07H
	DD	FLAT:__unwindfunclet$??0ioCircleMoveAttackSkill3@@QAE@ABV0@@Z$8
	DD	08H
	DD	FLAT:__unwindfunclet$??0ioCircleMoveAttackSkill3@@QAE@ABV0@@Z$9
	DD	09H
	DD	FLAT:__unwindfunclet$??0ioCircleMoveAttackSkill3@@QAE@ABV0@@Z$10
	DD	0aH
	DD	FLAT:__unwindfunclet$??0ioCircleMoveAttackSkill3@@QAE@ABV0@@Z$11
; Function compile flags: /Ogsp
; File d:\lost saga for developer\youtube\tutorial\source\src\lsclient\iocirclemoveattackskill3.cpp
xdata$x	ENDS
;	COMDAT ??0ioCircleMoveAttackSkill3@@QAE@ABV0@@Z
_TEXT	SEGMENT
_this$ = -16						; size = 4
__$EHRec$ = -12						; size = 12
_value$557442 = 8					; size = 4
_rhs$ = 8						; size = 4
??0ioCircleMoveAttackSkill3@@QAE@ABV0@@Z PROC		; ioCircleMoveAttackSkill3::ioCircleMoveAttackSkill3, COMDAT
; _this$ = ecx

; 45   : {

  00000	6a 04		 push	 4
  00002	b8 00 00 00 00	 mov	 eax, __ehhandler$??0ioCircleMoveAttackSkill3@@QAE@ABV0@@Z
  00007	e8 00 00 00 00	 call	 __EH_prolog3
  0000c	8b f1		 mov	 esi, ecx
  0000e	89 75 f0	 mov	 DWORD PTR _this$[ebp], esi
  00011	8b 7d 08	 mov	 edi, DWORD PTR _rhs$[ebp]
  00014	57		 push	 edi
  00015	e8 00 00 00 00	 call	 ??0ioNormalSkill@@QAE@ABV0@@Z ; ioNormalSkill::ioNormalSkill
  0001a	83 65 fc 00	 and	 DWORD PTR __$EHRec$[ebp+8], 0
  0001e	8d 8e 58 0f 00
	00		 lea	 ecx, DWORD PTR [esi+3928]
  00024	c7 06 00 00 00
	00		 mov	 DWORD PTR [esi], OFFSET ??_7ioCircleMoveAttackSkill3@@6B@
  0002a	e8 00 00 00 00	 call	 ??0?$CEncrypt@H@@QAE@XZ	; CEncrypt<int>::CEncrypt<int>
  0002f	8b 1d 00 00 00
	00		 mov	 ebx, DWORD PTR __imp_??0ioHashString@@QAE@ABV0@@Z
  00035	8d 87 8c 0f 00
	00		 lea	 eax, DWORD PTR [edi+3980]
  0003b	50		 push	 eax
  0003c	8d 8e 8c 0f 00
	00		 lea	 ecx, DWORD PTR [esi+3980]
  00042	c6 45 fc 01	 mov	 BYTE PTR __$EHRec$[ebp+8], 1
  00046	ff d3		 call	 ebx
  00048	8d 87 a0 0f 00
	00		 lea	 eax, DWORD PTR [edi+4000]
  0004e	50		 push	 eax
  0004f	8d 8e a0 0f 00
	00		 lea	 ecx, DWORD PTR [esi+4000]
  00055	c6 45 fc 02	 mov	 BYTE PTR __$EHRec$[ebp+8], 2
  00059	e8 00 00 00 00	 call	 ??0?$CEncrypt@K@@QAE@ABV0@@Z ; CEncrypt<unsigned long>::CEncrypt<unsigned long>
  0005e	8d 87 d0 0f 00
	00		 lea	 eax, DWORD PTR [edi+4048]
  00064	50		 push	 eax
  00065	8d 8e d0 0f 00
	00		 lea	 ecx, DWORD PTR [esi+4048]
  0006b	c6 45 fc 03	 mov	 BYTE PTR __$EHRec$[ebp+8], 3
  0006f	e8 00 00 00 00	 call	 ??0?$CEncrypt@K@@QAE@ABV0@@Z ; CEncrypt<unsigned long>::CEncrypt<unsigned long>
  00074	d9 87 00 10 00
	00		 fld	 DWORD PTR [edi+4096]
  0007a	d9 9e 00 10 00
	00		 fstp	 DWORD PTR [esi+4096]
  00080	8d 87 10 10 00
	00		 lea	 eax, DWORD PTR [edi+4112]
  00086	d9 87 04 10 00
	00		 fld	 DWORD PTR [edi+4100]
  0008c	50		 push	 eax
  0008d	d9 9e 04 10 00
	00		 fstp	 DWORD PTR [esi+4100]
  00093	8d 8e 10 10 00
	00		 lea	 ecx, DWORD PTR [esi+4112]
  00099	d9 87 08 10 00
	00		 fld	 DWORD PTR [edi+4104]
  0009f	c6 45 fc 04	 mov	 BYTE PTR __$EHRec$[ebp+8], 4
  000a3	d9 9e 08 10 00
	00		 fstp	 DWORD PTR [esi+4104]
  000a9	d9 87 0c 10 00
	00		 fld	 DWORD PTR [edi+4108]
  000af	d9 9e 0c 10 00
	00		 fstp	 DWORD PTR [esi+4108]
  000b5	ff d3		 call	 ebx
  000b7	8d 87 20 10 00
	00		 lea	 eax, DWORD PTR [edi+4128]
  000bd	50		 push	 eax
  000be	8d 8e 20 10 00
	00		 lea	 ecx, DWORD PTR [esi+4128]
  000c4	c6 45 fc 05	 mov	 BYTE PTR __$EHRec$[ebp+8], 5
  000c8	ff d3		 call	 ebx
  000ca	8d 87 30 10 00
	00		 lea	 eax, DWORD PTR [edi+4144]
  000d0	50		 push	 eax
  000d1	8d 8e 30 10 00
	00		 lea	 ecx, DWORD PTR [esi+4144]
  000d7	c6 45 fc 06	 mov	 BYTE PTR __$EHRec$[ebp+8], 6
  000db	ff d3		 call	 ebx
  000dd	8d 87 40 10 00
	00		 lea	 eax, DWORD PTR [edi+4160]
  000e3	50		 push	 eax
  000e4	8d 8e 40 10 00
	00		 lea	 ecx, DWORD PTR [esi+4160]
  000ea	c6 45 fc 07	 mov	 BYTE PTR __$EHRec$[ebp+8], 7
  000ee	ff d3		 call	 ebx
  000f0	8d 87 64 10 00
	00		 lea	 eax, DWORD PTR [edi+4196]
  000f6	50		 push	 eax
  000f7	8d 8e 64 10 00
	00		 lea	 ecx, DWORD PTR [esi+4196]
  000fd	c6 45 fc 08	 mov	 BYTE PTR __$EHRec$[ebp+8], 8
  00101	ff d3		 call	 ebx
  00103	d9 87 74 10 00
	00		 fld	 DWORD PTR [edi+4212]
  00109	8d 87 88 10 00
	00		 lea	 eax, DWORD PTR [edi+4232]
  0010f	d9 9e 74 10 00
	00		 fstp	 DWORD PTR [esi+4212]
  00115	50		 push	 eax
  00116	8d 8e 88 10 00
	00		 lea	 ecx, DWORD PTR [esi+4232]
  0011c	c6 45 fc 09	 mov	 BYTE PTR __$EHRec$[ebp+8], 9
  00120	e8 00 00 00 00	 call	 ??0AttackAttribute@@QAE@ABU0@@Z
  00125	81 c7 d8 10 00
	00		 add	 edi, 4312		; 000010d8H
  0012b	57		 push	 edi
  0012c	8d 8e d8 10 00
	00		 lea	 ecx, DWORD PTR [esi+4312]
  00132	c6 45 fc 0a	 mov	 BYTE PTR __$EHRec$[ebp+8], 10 ; 0000000aH
  00136	e8 00 00 00 00	 call	 ??0AttackAttribute@@QAE@ABU0@@Z
  0013b	c6 45 fc 0b	 mov	 BYTE PTR __$EHRec$[ebp+8], 11 ; 0000000bH

; 46   : 	m_State = SS_NONE;

  0013f	8d 45 08	 lea	 eax, DWORD PTR _value$557442[ebp]
  00142	33 ff		 xor	 edi, edi
  00144	50		 push	 eax
  00145	8d 8e 58 0f 00
	00		 lea	 ecx, DWORD PTR [esi+3928]
  0014b	89 7d 08	 mov	 DWORD PTR _value$557442[ebp], edi
  0014e	e8 00 00 00 00	 call	 ?EncryptValueToPool@?$CEncrypt@H@@AAEXPBD@Z ; CEncrypt<int>::EncryptValueToPool

; 47   : 
; 48   : 	m_dwCurMapEffect = -1;

  00153	83 8e 50 10 00
	00 ff		 or	 DWORD PTR [esi+4176], -1

; 49   : 	m_dwTargetCircleEffect = -1;
; 50   : 
; 51   : 	m_bSetHandMesh = false;
; 52   : 
; 53   : 	m_dwPreActionEndTime = 0;
; 54   : 	m_dwWaitStartTime = 0;
; 55   : 
; 56   : 	m_fCurCharMoveSpeed = 0.0f;

  0015a	0f 57 c0	 xorps	 xmm0, xmm0
  0015d	83 8e 54 10 00
	00 ff		 or	 DWORD PTR [esi+4180], -1
  00164	c6 86 0a 0f 00
	00 00		 mov	 BYTE PTR [esi+3850], 0
  0016b	89 be 88 0f 00
	00		 mov	 DWORD PTR [esi+3976], edi
  00171	89 be 9c 0f 00
	00		 mov	 DWORD PTR [esi+3996], edi
  00177	f3 0f 11 86 78
	10 00 00	 movss	 DWORD PTR [esi+4216], xmm0

; 57   : }

  0017f	8b c6		 mov	 eax, esi
  00181	e8 00 00 00 00	 call	 __EH_epilog3
  00186	c2 04 00	 ret	 4
_TEXT	ENDS
;	COMDAT text$x
text$x	SEGMENT
__unwindfunclet$??0ioCircleMoveAttackSkill3@@QAE@ABV0@@Z$0:
  00000	8b 4d f0	 mov	 ecx, DWORD PTR _this$[ebp]
  00003	e9 00 00 00 00	 jmp	 ??1ioNormalSkill@@UAE@XZ ; ioNormalSkill::~ioNormalSkill
__unwindfunclet$??0ioCircleMoveAttackSkill3@@QAE@ABV0@@Z$1:
  00008	8b 4d f0	 mov	 ecx, DWORD PTR _this$[ebp]
  0000b	81 c1 58 0f 00
	00		 add	 ecx, 3928		; 00000f58H
  00011	e9 00 00 00 00	 jmp	 ??1?$CEncrypt@H@@UAE@XZ	; CEncrypt<int>::~CEncrypt<int>
__unwindfunclet$??0ioCircleMoveAttackSkill3@@QAE@ABV0@@Z$2:
  00016	8b 4d f0	 mov	 ecx, DWORD PTR _this$[ebp]
  00019	81 c1 8c 0f 00
	00		 add	 ecx, 3980		; 00000f8cH
  0001f	ff 25 00 00 00
	00		 jmp	 DWORD PTR __imp_??1ioHashString@@QAE@XZ
__unwindfunclet$??0ioCircleMoveAttackSkill3@@QAE@ABV0@@Z$3:
  00025	8b 4d f0	 mov	 ecx, DWORD PTR _this$[ebp]
  00028	81 c1 a0 0f 00
	00		 add	 ecx, 4000		; 00000fa0H
  0002e	e9 00 00 00 00	 jmp	 ??1?$CEncrypt@K@@UAE@XZ	; CEncrypt<unsigned long>::~CEncrypt<unsigned long>
__unwindfunclet$??0ioCircleMoveAttackSkill3@@QAE@ABV0@@Z$4:
  00033	8b 4d f0	 mov	 ecx, DWORD PTR _this$[ebp]
  00036	81 c1 d0 0f 00
	00		 add	 ecx, 4048		; 00000fd0H
  0003c	e9 00 00 00 00	 jmp	 ??1?$CEncrypt@K@@UAE@XZ	; CEncrypt<unsigned long>::~CEncrypt<unsigned long>
__unwindfunclet$??0ioCircleMoveAttackSkill3@@QAE@ABV0@@Z$5:
  00041	8b 4d f0	 mov	 ecx, DWORD PTR _this$[ebp]
  00044	81 c1 10 10 00
	00		 add	 ecx, 4112		; 00001010H
  0004a	ff 25 00 00 00
	00		 jmp	 DWORD PTR __imp_??1ioHashString@@QAE@XZ
__unwindfunclet$??0ioCircleMoveAttackSkill3@@QAE@ABV0@@Z$6:
  00050	8b 4d f0	 mov	 ecx, DWORD PTR _this$[ebp]
  00053	81 c1 20 10 00
	00		 add	 ecx, 4128		; 00001020H
  00059	ff 25 00 00 00
	00		 jmp	 DWORD PTR __imp_??1ioHashString@@QAE@XZ
__unwindfunclet$??0ioCircleMoveAttackSkill3@@QAE@ABV0@@Z$7:
  0005f	8b 4d f0	 mov	 ecx, DWORD PTR _this$[ebp]
  00062	81 c1 30 10 00
	00		 add	 ecx, 4144		; 00001030H
  00068	ff 25 00 00 00
	00		 jmp	 DWORD PTR __imp_??1ioHashString@@QAE@XZ
__unwindfunclet$??0ioCircleMoveAttackSkill3@@QAE@ABV0@@Z$8:
  0006e	8b 4d f0	 mov	 ecx, DWORD PTR _this$[ebp]
  00071	81 c1 40 10 00
	00		 add	 ecx, 4160		; 00001040H
  00077	ff 25 00 00 00
	00		 jmp	 DWORD PTR __imp_??1ioHashString@@QAE@XZ
__unwindfunclet$??0ioCircleMoveAttackSkill3@@QAE@ABV0@@Z$9:
  0007d	8b 4d f0	 mov	 ecx, DWORD PTR _this$[ebp]
  00080	81 c1 64 10 00
	00		 add	 ecx, 4196		; 00001064H
  00086	ff 25 00 00 00
	00		 jmp	 DWORD PTR __imp_??1ioHashString@@QAE@XZ
__unwindfunclet$??0ioCircleMoveAttackSkill3@@QAE@ABV0@@Z$10:
  0008c	8b 4d f0	 mov	 ecx, DWORD PTR _this$[ebp]
  0008f	81 c1 88 10 00
	00		 add	 ecx, 4232		; 00001088H
  00095	e9 00 00 00 00	 jmp	 ??1AttackAttribute@@QAE@XZ
__unwindfunclet$??0ioCircleMoveAttackSkill3@@QAE@ABV0@@Z$11:
  0009a	8b 4d f0	 mov	 ecx, DWORD PTR _this$[ebp]
  0009d	81 c1 d8 10 00
	00		 add	 ecx, 4312		; 000010d8H
  000a3	e9 00 00 00 00	 jmp	 ??1AttackAttribute@@QAE@XZ
__ehhandler$??0ioCircleMoveAttackSkill3@@QAE@ABV0@@Z:
  000a8	8b 54 24 08	 mov	 edx, DWORD PTR [esp+8]
  000ac	8d 42 0c	 lea	 eax, DWORD PTR [edx+12]
  000af	8b 4a ec	 mov	 ecx, DWORD PTR [edx-20]
  000b2	33 c8		 xor	 ecx, eax
  000b4	e8 00 00 00 00	 call	 @__security_check_cookie@4
  000b9	b8 00 00 00 00	 mov	 eax, OFFSET __ehfuncinfo$??0ioCircleMoveAttackSkill3@@QAE@ABV0@@Z
  000be	e9 00 00 00 00	 jmp	 ___CxxFrameHandler3
text$x	ENDS
??0ioCircleMoveAttackSkill3@@QAE@ABV0@@Z ENDP		; ioCircleMoveAttackSkill3::ioCircleMoveAttackSkill3
PUBLIC	??1ioCircleMoveAttackSkill3@@UAE@XZ		; ioCircleMoveAttackSkill3::~ioCircleMoveAttackSkill3
;	COMDAT xdata$x
; File d:\lost saga for developer\youtube\tutorial\source\src\lsclient\encryptvalue.h
xdata$x	SEGMENT
__ehfuncinfo$??1ioCircleMoveAttackSkill3@@UAE@XZ DD 019930522H
	DD	0bH
	DD	FLAT:__unwindtable$??1ioCircleMoveAttackSkill3@@UAE@XZ
	DD	2 DUP(00H)
	DD	2 DUP(00H)
	DD	00H
	DD	01H
__unwindtable$??1ioCircleMoveAttackSkill3@@UAE@XZ DD 0ffffffffH
	DD	FLAT:__unwindfunclet$??1ioCircleMoveAttackSkill3@@UAE@XZ$0
	DD	00H
	DD	FLAT:__unwindfunclet$??1ioCircleMoveAttackSkill3@@UAE@XZ$1
	DD	01H
	DD	FLAT:__unwindfunclet$??1ioCircleMoveAttackSkill3@@UAE@XZ$2
	DD	02H
	DD	FLAT:__unwindfunclet$??1ioCircleMoveAttackSkill3@@UAE@XZ$3
	DD	03H
	DD	FLAT:__unwindfunclet$??1ioCircleMoveAttackSkill3@@UAE@XZ$4
	DD	04H
	DD	FLAT:__unwindfunclet$??1ioCircleMoveAttackSkill3@@UAE@XZ$5
	DD	05H
	DD	FLAT:__unwindfunclet$??1ioCircleMoveAttackSkill3@@UAE@XZ$6
	DD	06H
	DD	FLAT:__unwindfunclet$??1ioCircleMoveAttackSkill3@@UAE@XZ$7
	DD	07H
	DD	FLAT:__unwindfunclet$??1ioCircleMoveAttackSkill3@@UAE@XZ$8
	DD	08H
	DD	FLAT:__unwindfunclet$??1ioCircleMoveAttackSkill3@@UAE@XZ$9
	DD	09H
	DD	FLAT:__unwindfunclet$??1ioCircleMoveAttackSkill3@@UAE@XZ$10
; Function compile flags: /Ogsp
; File d:\lost saga for developer\youtube\tutorial\source\src\lsclient\iocirclemoveattackskill3.cpp
xdata$x	ENDS
;	COMDAT ??1ioCircleMoveAttackSkill3@@UAE@XZ
_TEXT	SEGMENT
_this$ = -16						; size = 4
__$EHRec$ = -12						; size = 12
??1ioCircleMoveAttackSkill3@@UAE@XZ PROC		; ioCircleMoveAttackSkill3::~ioCircleMoveAttackSkill3, COMDAT
; _this$ = ecx

; 60   : {

  00000	6a 04		 push	 4
  00002	b8 00 00 00 00	 mov	 eax, __ehhandler$??1ioCircleMoveAttackSkill3@@UAE@XZ
  00007	e8 00 00 00 00	 call	 __EH_prolog3
  0000c	8b f1		 mov	 esi, ecx
  0000e	89 75 f0	 mov	 DWORD PTR _this$[ebp], esi
  00011	c7 06 00 00 00
	00		 mov	 DWORD PTR [esi], OFFSET ??_7ioCircleMoveAttackSkill3@@6B@

; 61   : }

  00017	8d 8e d8 10 00
	00		 lea	 ecx, DWORD PTR [esi+4312]
  0001d	c7 45 fc 0a 00
	00 00		 mov	 DWORD PTR __$EHRec$[ebp+8], 10 ; 0000000aH
  00024	e8 00 00 00 00	 call	 ??1AttackAttribute@@QAE@XZ
  00029	8d 8e 88 10 00
	00		 lea	 ecx, DWORD PTR [esi+4232]
  0002f	c6 45 fc 09	 mov	 BYTE PTR __$EHRec$[ebp+8], 9
  00033	e8 00 00 00 00	 call	 ??1AttackAttribute@@QAE@XZ
  00038	8b 3d 00 00 00
	00		 mov	 edi, DWORD PTR __imp_??1ioHashString@@QAE@XZ
  0003e	8d 8e 64 10 00
	00		 lea	 ecx, DWORD PTR [esi+4196]
  00044	c6 45 fc 08	 mov	 BYTE PTR __$EHRec$[ebp+8], 8
  00048	ff d7		 call	 edi
  0004a	8d 8e 40 10 00
	00		 lea	 ecx, DWORD PTR [esi+4160]
  00050	c6 45 fc 07	 mov	 BYTE PTR __$EHRec$[ebp+8], 7
  00054	ff d7		 call	 edi
  00056	8d 8e 30 10 00
	00		 lea	 ecx, DWORD PTR [esi+4144]
  0005c	c6 45 fc 06	 mov	 BYTE PTR __$EHRec$[ebp+8], 6
  00060	ff d7		 call	 edi
  00062	8d 8e 20 10 00
	00		 lea	 ecx, DWORD PTR [esi+4128]
  00068	c6 45 fc 05	 mov	 BYTE PTR __$EHRec$[ebp+8], 5
  0006c	ff d7		 call	 edi
  0006e	8d 8e 10 10 00
	00		 lea	 ecx, DWORD PTR [esi+4112]
  00074	c6 45 fc 04	 mov	 BYTE PTR __$EHRec$[ebp+8], 4
  00078	ff d7		 call	 edi
  0007a	bb 00 00 00 00	 mov	 ebx, OFFSET ??_7?$CEncrypt@K@@6B@
  0007f	8d 8e dc 0f 00
	00		 lea	 ecx, DWORD PTR [esi+4060]
  00085	c6 45 fc 03	 mov	 BYTE PTR __$EHRec$[ebp+8], 3
  00089	89 9e d0 0f 00
	00		 mov	 DWORD PTR [esi+4048], ebx
  0008f	e8 00 00 00 00	 call	 ??1ccddaabb@@UAE@XZ	; ccddaabb::~ccddaabb
  00094	8d 8e ac 0f 00
	00		 lea	 ecx, DWORD PTR [esi+4012]
  0009a	c6 45 fc 02	 mov	 BYTE PTR __$EHRec$[ebp+8], 2
  0009e	89 9e a0 0f 00
	00		 mov	 DWORD PTR [esi+4000], ebx
  000a4	e8 00 00 00 00	 call	 ??1ccddaabb@@UAE@XZ	; ccddaabb::~ccddaabb
  000a9	8d 8e 8c 0f 00
	00		 lea	 ecx, DWORD PTR [esi+3980]
  000af	c6 45 fc 01	 mov	 BYTE PTR __$EHRec$[ebp+8], 1
  000b3	ff d7		 call	 edi
  000b5	8d 8e 64 0f 00
	00		 lea	 ecx, DWORD PTR [esi+3940]
  000bb	c6 45 fc 00	 mov	 BYTE PTR __$EHRec$[ebp+8], 0
  000bf	c7 86 58 0f 00
	00 00 00 00 00	 mov	 DWORD PTR [esi+3928], OFFSET ??_7?$CEncrypt@H@@6B@
  000c9	e8 00 00 00 00	 call	 ??1ccddaabb@@UAE@XZ	; ccddaabb::~ccddaabb
  000ce	83 4d fc ff	 or	 DWORD PTR __$EHRec$[ebp+8], -1
  000d2	8b ce		 mov	 ecx, esi
  000d4	e8 00 00 00 00	 call	 ??1ioNormalSkill@@UAE@XZ ; ioNormalSkill::~ioNormalSkill
  000d9	e8 00 00 00 00	 call	 __EH_epilog3
  000de	c3		 ret	 0
_TEXT	ENDS
;	COMDAT text$x
text$x	SEGMENT
__unwindfunclet$??1ioCircleMoveAttackSkill3@@UAE@XZ$0:
  00000	8b 4d f0	 mov	 ecx, DWORD PTR _this$[ebp]
  00003	e9 00 00 00 00	 jmp	 ??1ioNormalSkill@@UAE@XZ ; ioNormalSkill::~ioNormalSkill
__unwindfunclet$??1ioCircleMoveAttackSkill3@@UAE@XZ$1:
  00008	8b 4d f0	 mov	 ecx, DWORD PTR _this$[ebp]
  0000b	81 c1 58 0f 00
	00		 add	 ecx, 3928		; 00000f58H
  00011	e9 00 00 00 00	 jmp	 ??1?$CEncrypt@H@@UAE@XZ	; CEncrypt<int>::~CEncrypt<int>
__unwindfunclet$??1ioCircleMoveAttackSkill3@@UAE@XZ$2:
  00016	8b 4d f0	 mov	 ecx, DWORD PTR _this$[ebp]
  00019	81 c1 8c 0f 00
	00		 add	 ecx, 3980		; 00000f8cH
  0001f	ff 25 00 00 00
	00		 jmp	 DWORD PTR __imp_??1ioHashString@@QAE@XZ
__unwindfunclet$??1ioCircleMoveAttackSkill3@@UAE@XZ$3:
  00025	8b 4d f0	 mov	 ecx, DWORD PTR _this$[ebp]
  00028	81 c1 a0 0f 00
	00		 add	 ecx, 4000		; 00000fa0H
  0002e	e9 00 00 00 00	 jmp	 ??1?$CEncrypt@K@@UAE@XZ	; CEncrypt<unsigned long>::~CEncrypt<unsigned long>
__unwindfunclet$??1ioCircleMoveAttackSkill3@@UAE@XZ$4:
  00033	8b 4d f0	 mov	 ecx, DWORD PTR _this$[ebp]
  00036	81 c1 d0 0f 00
	00		 add	 ecx, 4048		; 00000fd0H
  0003c	e9 00 00 00 00	 jmp	 ??1?$CEncrypt@K@@UAE@XZ	; CEncrypt<unsigned long>::~CEncrypt<unsigned long>
__unwindfunclet$??1ioCircleMoveAttackSkill3@@UAE@XZ$5:
  00041	8b 4d f0	 mov	 ecx, DWORD PTR _this$[ebp]
  00044	81 c1 10 10 00
	00		 add	 ecx, 4112		; 00001010H
  0004a	ff 25 00 00 00
	00		 jmp	 DWORD PTR __imp_??1ioHashString@@QAE@XZ
__unwindfunclet$??1ioCircleMoveAttackSkill3@@UAE@XZ$6:
  00050	8b 4d f0	 mov	 ecx, DWORD PTR _this$[ebp]
  00053	81 c1 20 10 00
	00		 add	 ecx, 4128		; 00001020H
  00059	ff 25 00 00 00
	00		 jmp	 DWORD PTR __imp_??1ioHashString@@QAE@XZ
__unwindfunclet$??1ioCircleMoveAttackSkill3@@UAE@XZ$7:
  0005f	8b 4d f0	 mov	 ecx, DWORD PTR _this$[ebp]
  00062	81 c1 30 10 00
	00		 add	 ecx, 4144		; 00001030H
  00068	ff 25 00 00 00
	00		 jmp	 DWORD PTR __imp_??1ioHashString@@QAE@XZ
__unwindfunclet$??1ioCircleMoveAttackSkill3@@UAE@XZ$8:
  0006e	8b 4d f0	 mov	 ecx, DWORD PTR _this$[ebp]
  00071	81 c1 40 10 00
	00		 add	 ecx, 4160		; 00001040H
  00077	ff 25 00 00 00
	00		 jmp	 DWORD PTR __imp_??1ioHashString@@QAE@XZ
__unwindfunclet$??1ioCircleMoveAttackSkill3@@UAE@XZ$9:
  0007d	8b 4d f0	 mov	 ecx, DWORD PTR _this$[ebp]
  00080	81 c1 64 10 00
	00		 add	 ecx, 4196		; 00001064H
  00086	ff 25 00 00 00
	00		 jmp	 DWORD PTR __imp_??1ioHashString@@QAE@XZ
__unwindfunclet$??1ioCircleMoveAttackSkill3@@UAE@XZ$10:
  0008c	8b 4d f0	 mov	 ecx, DWORD PTR _this$[ebp]
  0008f	81 c1 88 10 00
	00		 add	 ecx, 4232		; 00001088H
  00095	e9 00 00 00 00	 jmp	 ??1AttackAttribute@@QAE@XZ
__ehhandler$??1ioCircleMoveAttackSkill3@@UAE@XZ:
  0009a	8b 54 24 08	 mov	 edx, DWORD PTR [esp+8]
  0009e	8d 42 0c	 lea	 eax, DWORD PTR [edx+12]
  000a1	8b 4a ec	 mov	 ecx, DWORD PTR [edx-20]
  000a4	33 c8		 xor	 ecx, eax
  000a6	e8 00 00 00 00	 call	 @__security_check_cookie@4
  000ab	b8 00 00 00 00	 mov	 eax, OFFSET __ehfuncinfo$??1ioCircleMoveAttackSkill3@@UAE@XZ
  000b0	e9 00 00 00 00	 jmp	 ___CxxFrameHandler3
text$x	ENDS
??1ioCircleMoveAttackSkill3@@UAE@XZ ENDP		; ioCircleMoveAttackSkill3::~ioCircleMoveAttackSkill3
;	COMDAT xdata$x
xdata$x	SEGMENT
__unwindtable$?Clone@ioCircleMoveAttackSkill3@@UAEPAVioSkill@@XZ DD 0ffffffffH
	DD	FLAT:__unwindfunclet$?Clone@ioCircleMoveAttackSkill3@@UAEPAVioSkill@@XZ$0
__ehfuncinfo$?Clone@ioCircleMoveAttackSkill3@@UAEPAVioSkill@@XZ DD 019930522H
	DD	01H
	DD	FLAT:__unwindtable$?Clone@ioCircleMoveAttackSkill3@@UAEPAVioSkill@@XZ
	DD	2 DUP(00H)
	DD	2 DUP(00H)
	DD	00H
	DD	01H
; Function compile flags: /Ogsp
xdata$x	ENDS
;	COMDAT ?Clone@ioCircleMoveAttackSkill3@@UAEPAVioSkill@@XZ
_TEXT	SEGMENT
$T557487 = -16						; size = 4
__$EHRec$ = -12						; size = 12
?Clone@ioCircleMoveAttackSkill3@@UAEPAVioSkill@@XZ PROC	; ioCircleMoveAttackSkill3::Clone, COMDAT
; _this$ = ecx

; 108  : {

  00000	6a 04		 push	 4
  00002	b8 00 00 00 00	 mov	 eax, __ehhandler$?Clone@ioCircleMoveAttackSkill3@@UAEPAVioSkill@@XZ
  00007	e8 00 00 00 00	 call	 __EH_prolog3
  0000c	8b f1		 mov	 esi, ecx

; 109  : 	return new ioCircleMoveAttackSkill3( *this );

  0000e	68 28 11 00 00	 push	 4392			; 00001128H
  00013	e8 00 00 00 00	 call	 ??2@YAPAXI@Z		; operator new
  00018	59		 pop	 ecx
  00019	8b c8		 mov	 ecx, eax
  0001b	89 4d f0	 mov	 DWORD PTR $T557487[ebp], ecx
  0001e	33 c0		 xor	 eax, eax
  00020	89 45 fc	 mov	 DWORD PTR __$EHRec$[ebp+8], eax
  00023	3b c8		 cmp	 ecx, eax
  00025	74 06		 je	 SHORT $LN3@Clone
  00027	56		 push	 esi
  00028	e8 00 00 00 00	 call	 ??0ioCircleMoveAttackSkill3@@QAE@ABV0@@Z ; ioCircleMoveAttackSkill3::ioCircleMoveAttackSkill3
$LN3@Clone:

; 110  : }

  0002d	e8 00 00 00 00	 call	 __EH_epilog3
  00032	c3		 ret	 0
_TEXT	ENDS
;	COMDAT text$x
text$x	SEGMENT
__unwindfunclet$?Clone@ioCircleMoveAttackSkill3@@UAEPAVioSkill@@XZ$0:
  00000	ff 75 f0	 push	 DWORD PTR $T557487[ebp]
  00003	e8 00 00 00 00	 call	 ??3@YAXPAX@Z		; operator delete
  00008	59		 pop	 ecx
  00009	c3		 ret	 0
__ehhandler$?Clone@ioCircleMoveAttackSkill3@@UAEPAVioSkill@@XZ:
  0000a	8b 54 24 08	 mov	 edx, DWORD PTR [esp+8]
  0000e	8d 42 0c	 lea	 eax, DWORD PTR [edx+12]
  00011	8b 4a ec	 mov	 ecx, DWORD PTR [edx-20]
  00014	33 c8		 xor	 ecx, eax
  00016	e8 00 00 00 00	 call	 @__security_check_cookie@4
  0001b	b8 00 00 00 00	 mov	 eax, OFFSET __ehfuncinfo$?Clone@ioCircleMoveAttackSkill3@@UAEPAVioSkill@@XZ
  00020	e9 00 00 00 00	 jmp	 ___CxxFrameHandler3
text$x	ENDS
?Clone@ioCircleMoveAttackSkill3@@UAEPAVioSkill@@XZ ENDP	; ioCircleMoveAttackSkill3::Clone
; Function compile flags: /Ogsp
;	COMDAT ??_GioCircleMoveAttackSkill3@@UAEPAXI@Z
_TEXT	SEGMENT
___flags$ = 8						; size = 4
??_GioCircleMoveAttackSkill3@@UAEPAXI@Z PROC		; ioCircleMoveAttackSkill3::`scalar deleting destructor', COMDAT
; _this$ = ecx
  00000	55		 push	 ebp
  00001	8b ec		 mov	 ebp, esp
  00003	56		 push	 esi
  00004	8b f1		 mov	 esi, ecx
  00006	e8 00 00 00 00	 call	 ??1ioCircleMoveAttackSkill3@@UAE@XZ ; ioCircleMoveAttackSkill3::~ioCircleMoveAttackSkill3
  0000b	f6 45 08 01	 test	 BYTE PTR ___flags$[ebp], 1
  0000f	74 07		 je	 SHORT $LN1@scalar@5
  00011	56		 push	 esi
  00012	e8 00 00 00 00	 call	 ??3@YAXPAX@Z		; operator delete
  00017	59		 pop	 ecx
$LN1@scalar@5:
  00018	8b c6		 mov	 eax, esi
  0001a	5e		 pop	 esi
  0001b	5d		 pop	 ebp
  0001c	c2 04 00	 ret	 4
??_GioCircleMoveAttackSkill3@@UAEPAXI@Z ENDP		; ioCircleMoveAttackSkill3::`scalar deleting destructor'
_TEXT	ENDS
END
