; Listing generated by Microsoft (R) Optimizing Compiler Version 16.00.30319.01 

	TITLE	D:\Lost Saga For Developer\Youtube\Tutorial\Source\src\LSClient\ioCircleMove6Skill.cpp
	.686P
	.XMM
	include listing.inc
	.model	flat

INCLUDELIB MSVCRT
INCLUDELIB OLDNAMES

PUBLIC	?_EEM_DS@?$deque@UD3DXVECTOR3@@V?$allocator@UD3DXVECTOR3@@@std@@@std@@2HB ; std::deque<D3DXVECTOR3,std::allocator<D3DXVECTOR3> >::_EEM_DS
;	COMDAT ?_EEM_DS@?$deque@UD3DXVECTOR3@@V?$allocator@UD3DXVECTOR3@@@std@@@std@@2HB
CONST	SEGMENT
?_EEM_DS@?$deque@UD3DXVECTOR3@@V?$allocator@UD3DXVECTOR3@@@std@@@std@@2HB DD 01H ; std::deque<D3DXVECTOR3,std::allocator<D3DXVECTOR3> >::_EEM_DS
CONST	ENDS
PUBLIC	?return1@@YAIXZ					; return1
; Function compile flags: /Ogsp
; File d:\lost saga for developer\youtube\tutorial\source\src\lsclient\stdafx.h
;	COMDAT ?return1@@YAIXZ
_TEXT	SEGMENT
?return1@@YAIXZ PROC					; return1, COMDAT

; 17   : 	__forceinline unsigned int return1() { __asm mov eax, 1 };

  00000	b8 01 00 00 00	 mov	 eax, 1
  00005	c3		 ret	 0
?return1@@YAIXZ ENDP					; return1
_TEXT	ENDS
PUBLIC	?return100@@YAIXZ				; return100
; Function compile flags: /Ogsp
;	COMDAT ?return100@@YAIXZ
_TEXT	SEGMENT
?return100@@YAIXZ PROC					; return100, COMDAT

; 25   : 	__forceinline unsigned int return100() { __asm mov eax, 100 };

  00000	b8 64 00 00 00	 mov	 eax, 100		; 00000064H
  00005	c3		 ret	 0
?return100@@YAIXZ ENDP					; return100
_TEXT	ENDS
PUBLIC	?GetCharName@ioBaseChar@@QBEABVioHashString@@XZ	; ioBaseChar::GetCharName
; Function compile flags: /Ogsp
; File d:\lost saga for developer\youtube\tutorial\source\src\lsclient\iobasechar.h
;	COMDAT ?GetCharName@ioBaseChar@@QBEABVioHashString@@XZ
_TEXT	SEGMENT
?GetCharName@ioBaseChar@@QBEABVioHashString@@XZ PROC	; ioBaseChar::GetCharName, COMDAT
; _this$ = ecx

; 2594 : 	inline const ioHashString& GetCharName() const { return m_Name; }

  00000	8d 81 d4 02 00
	00		 lea	 eax, DWORD PTR [ecx+724]
  00006	c3		 ret	 0
?GetCharName@ioBaseChar@@QBEABVioHashString@@XZ ENDP	; ioBaseChar::GetCharName
_TEXT	ENDS
PUBLIC	?GetCreator@ioBaseChar@@QAEPAVioPlayStage@@XZ	; ioBaseChar::GetCreator
; Function compile flags: /Ogsp
;	COMDAT ?GetCreator@ioBaseChar@@QAEPAVioPlayStage@@XZ
_TEXT	SEGMENT
?GetCreator@ioBaseChar@@QAEPAVioPlayStage@@XZ PROC	; ioBaseChar::GetCreator, COMDAT
; _this$ = ecx

; 4013 : 	inline ioPlayStage* GetCreator() { return m_pCreator; }

  00000	8b 81 44 03 00
	00		 mov	 eax, DWORD PTR [ecx+836]
  00006	c3		 ret	 0
?GetCreator@ioBaseChar@@QAEPAVioPlayStage@@XZ ENDP	; ioBaseChar::GetCreator
_TEXT	ENDS
PUBLIC	?GetType@ioGrowthUpInfo@@QBE?AW4GrowthType@@XZ	; ioGrowthUpInfo::GetType
; Function compile flags: /Ogsp
; File d:\lost saga for developer\youtube\tutorial\source\src\lsclient\iogrowthupinfo.h
;	COMDAT ?GetType@ioGrowthUpInfo@@QBE?AW4GrowthType@@XZ
_TEXT	SEGMENT
?GetType@ioGrowthUpInfo@@QBE?AW4GrowthType@@XZ PROC	; ioGrowthUpInfo::GetType, COMDAT
; _this$ = ecx

; 23   : 	inline GrowthType GetType() const { return m_GrowthType; }

  00000	8b 41 04	 mov	 eax, DWORD PTR [ecx+4]
  00003	c3		 ret	 0
?GetType@ioGrowthUpInfo@@QBE?AW4GrowthType@@XZ ENDP	; ioGrowthUpInfo::GetType
_TEXT	ENDS
PUBLIC	??_R0?AVioGrowthUpInfo@@@8			; ioGrowthUpInfo `RTTI Type Descriptor'
PUBLIC	??_R0?AVioGrowthNormalUpInfo@@@8		; ioGrowthNormalUpInfo `RTTI Type Descriptor'
PUBLIC	?ToNormalUpInfo@@YAPAVioGrowthNormalUpInfo@@PAVioGrowthUpInfo@@@Z ; ToNormalUpInfo
EXTRN	___RTDynamicCast:PROC
EXTRN	??_7type_info@@6B@:QWORD			; type_info::`vftable'
;	COMDAT ??_R0?AVioGrowthUpInfo@@@8
_DATA	SEGMENT
??_R0?AVioGrowthUpInfo@@@8 DD FLAT:??_7type_info@@6B@	; ioGrowthUpInfo `RTTI Type Descriptor'
	DD	00H
	DB	'.?AVioGrowthUpInfo@@', 00H
_DATA	ENDS
;	COMDAT ??_R0?AVioGrowthNormalUpInfo@@@8
_DATA	SEGMENT
??_R0?AVioGrowthNormalUpInfo@@@8 DD FLAT:??_7type_info@@6B@ ; ioGrowthNormalUpInfo `RTTI Type Descriptor'
	DD	00H
	DB	'.?AVioGrowthNormalUpInfo@@', 00H
; Function compile flags: /Ogsp
_DATA	ENDS
;	COMDAT ?ToNormalUpInfo@@YAPAVioGrowthNormalUpInfo@@PAVioGrowthUpInfo@@@Z
_TEXT	SEGMENT
_pUpInfo$ = 8						; size = 4
?ToNormalUpInfo@@YAPAVioGrowthNormalUpInfo@@PAVioGrowthUpInfo@@@Z PROC ; ToNormalUpInfo, COMDAT

; 59   : {

  00000	55		 push	 ebp
  00001	8b ec		 mov	 ebp, esp

; 60   : 	if( !pUpInfo || pUpInfo->GetType() == GT_NONE )

  00003	8b 4d 08	 mov	 ecx, DWORD PTR _pUpInfo$[ebp]
  00006	85 c9		 test	 ecx, ecx
  00008	74 39		 je	 SHORT $LN6@ToNormalUp
  0000a	8b 41 04	 mov	 eax, DWORD PTR [ecx+4]
  0000d	85 c0		 test	 eax, eax
  0000f	74 32		 je	 SHORT $LN6@ToNormalUp

; 62   : 
; 63   : 	if( pUpInfo->GetType() == GT_CHAR_ATTACK || pUpInfo->GetType() == GT_SKILL_ATTACK )

  00011	83 f8 01	 cmp	 eax, 1
  00014	74 2d		 je	 SHORT $LN6@ToNormalUp
  00016	83 f8 07	 cmp	 eax, 7
  00019	74 28		 je	 SHORT $LN6@ToNormalUp

; 64   : 		return NULL;
; 65   : 	if( pUpInfo->GetType() == GT_BLOW_PUSH )

  0001b	83 f8 1e	 cmp	 eax, 30			; 0000001eH

; 66   : 		return NULL;

  0001e	74 23		 je	 SHORT $LN6@ToNormalUp

; 67   : 	if( pUpInfo->GetType() == GT_TELEPORT_ANI_RATE )

  00020	83 f8 20	 cmp	 eax, 32			; 00000020H

; 68   : 		return NULL;

  00023	74 1e		 je	 SHORT $LN6@ToNormalUp

; 69   : 	if( pUpInfo->GetType() == GT_SKILL_ATTACK_FORCE )

  00025	83 f8 1c	 cmp	 eax, 28			; 0000001cH

; 70   : 		return NULL;

  00028	74 19		 je	 SHORT $LN6@ToNormalUp

; 71   : 
; 72   : 	return dynamic_cast< ioGrowthNormalUpInfo* >( pUpInfo );

  0002a	6a 00		 push	 0
  0002c	68 00 00 00 00	 push	 OFFSET ??_R0?AVioGrowthNormalUpInfo@@@8
  00031	68 00 00 00 00	 push	 OFFSET ??_R0?AVioGrowthUpInfo@@@8
  00036	6a 00		 push	 0
  00038	51		 push	 ecx
  00039	e8 00 00 00 00	 call	 ___RTDynamicCast
  0003e	83 c4 14	 add	 esp, 20			; 00000014H

; 73   : }

  00041	5d		 pop	 ebp
  00042	c3		 ret	 0
$LN6@ToNormalUp:

; 61   : 		return NULL;

  00043	33 c0		 xor	 eax, eax

; 73   : }

  00045	5d		 pop	 ebp
  00046	c3		 ret	 0
?ToNormalUpInfo@@YAPAVioGrowthNormalUpInfo@@PAVioGrowthUpInfo@@@Z ENDP ; ToNormalUpInfo
_TEXT	ENDS
PUBLIC	??_7ioCircleMove6Skill@@6B@			; ioCircleMove6Skill::`vftable'
PUBLIC	??1ioCircleMove6Skill@@UAE@XZ			; ioCircleMove6Skill::~ioCircleMove6Skill
PUBLIC	??_R4ioCircleMove6Skill@@6B@			; ioCircleMove6Skill::`RTTI Complete Object Locator'
PUBLIC	??_R0?AVioCircleMove6Skill@@@8			; ioCircleMove6Skill `RTTI Type Descriptor'
PUBLIC	??_R3ioCircleMove6Skill@@8			; ioCircleMove6Skill::`RTTI Class Hierarchy Descriptor'
PUBLIC	??_R2ioCircleMove6Skill@@8			; ioCircleMove6Skill::`RTTI Base Class Array'
PUBLIC	??_R1A@?0A@EA@ioCircleMove6Skill@@8		; ioCircleMove6Skill::`RTTI Base Class Descriptor at (0,-1,0,64)'
PUBLIC	??_R1A@?0A@EA@ioNormalSkill@@8			; ioNormalSkill::`RTTI Base Class Descriptor at (0,-1,0,64)'
PUBLIC	??_R0?AVioNormalSkill@@@8			; ioNormalSkill `RTTI Type Descriptor'
PUBLIC	??_R3ioNormalSkill@@8				; ioNormalSkill::`RTTI Class Hierarchy Descriptor'
PUBLIC	??_R2ioNormalSkill@@8				; ioNormalSkill::`RTTI Base Class Array'
PUBLIC	??_R1A@?0A@EA@ioSkill@@8			; ioSkill::`RTTI Base Class Descriptor at (0,-1,0,64)'
PUBLIC	??_R0?AVioSkill@@@8				; ioSkill `RTTI Type Descriptor'
PUBLIC	??_R3ioSkill@@8					; ioSkill::`RTTI Class Hierarchy Descriptor'
PUBLIC	??_R2ioSkill@@8					; ioSkill::`RTTI Base Class Array'
PUBLIC	?LoadProperty@ioCircleMove6Skill@@UAEXAAVioINILoader@@@Z ; ioCircleMove6Skill::LoadProperty
PUBLIC	?Clone@ioCircleMove6Skill@@UAEPAVioSkill@@XZ	; ioCircleMove6Skill::Clone
PUBLIC	?IsProtected@ioCircleMove6Skill@@UBE_NH@Z	; ioCircleMove6Skill::IsProtected
PUBLIC	?GetDefenseSkillBreakeType@ioSkill@@UBE?AW4DefenseBreakType@@XZ ; ioSkill::GetDefenseSkillBreakeType
PUBLIC	?IsSkillMotionEnd@ioCircleMove6Skill@@UBE_NKPAVioBaseChar@@@Z ; ioCircleMove6Skill::IsSkillMotionEnd
PUBLIC	?GetSkillEndNextJumpAmt@ioSkill@@UBEMXZ		; ioSkill::GetSkillEndNextJumpAmt
PUBLIC	?GetSkillEndNextLandRate@ioSkill@@UBEMXZ	; ioSkill::GetSkillEndNextLandRate
PUBLIC	?GetSkillEndNextJumpMustEnable@ioSkill@@UAE?AW4SkillEndJumpType@@XZ ; ioSkill::GetSkillEndNextJumpMustEnable
PUBLIC	?IsEndState@ioCircleMove6Skill@@UBE_NXZ		; ioCircleMove6Skill::IsEndState
PUBLIC	?EnableChangeGrapplingTargetPos@ioSkill@@UBE_NXZ ; ioSkill::EnableChangeGrapplingTargetPos
PUBLIC	?OnSkillStart@ioCircleMove6Skill@@UAE_NPAVioBaseChar@@@Z ; ioCircleMove6Skill::OnSkillStart
PUBLIC	?OnProcessState@ioCircleMove6Skill@@UAEXPAVioBaseChar@@PAVioPlayStage@@@Z ; ioCircleMove6Skill::OnProcessState
PUBLIC	?OnSkillEnd@ioCircleMove6Skill@@UAEXPAVioBaseChar@@@Z ; ioCircleMove6Skill::OnSkillEnd
PUBLIC	?ApplyAttributeToWeapon@ioCircleMove6Skill@@UAEXPAVioWeapon@@PAVioPlayStage@@@Z ; ioCircleMove6Skill::ApplyAttributeToWeapon
PUBLIC	?ApplyExtraSkillInfo@ioCircleMove6Skill@@UAEXPAVioBaseChar@@PAVioPlayStage@@AAVSP2Packet@@@Z ; ioCircleMove6Skill::ApplyExtraSkillInfo
PUBLIC	?CheckUseItemMesh@ioCircleMove6Skill@@UAE_NXZ	; ioCircleMove6Skill::CheckUseItemMesh
PUBLIC	?IsInvisibleBottomCircle@ioSkill@@UAE_NPAVioBaseChar@@@Z ; ioSkill::IsInvisibleBottomCircle
PUBLIC	?IsCanJumpingSkill@ioSkill@@UBE_NXZ		; ioSkill::IsCanJumpingSkill
PUBLIC	?IsCanJumpingSkillOnBlowWound@ioSkill@@UBE_NXZ	; ioSkill::IsCanJumpingSkillOnBlowWound
PUBLIC	?IsCanDownSkill@ioSkill@@UBE_NXZ		; ioSkill::IsCanDownSkill
PUBLIC	?IsCanBlowWoundSkill@ioSkill@@UBE_NXZ		; ioSkill::IsCanBlowWoundSkill
PUBLIC	?IsCanWoundSkill@ioSkill@@UBE_NXZ		; ioSkill::IsCanWoundSkill
PUBLIC	?IsUseActiveCnt@ioSkill@@UBE_NXZ		; ioSkill::IsUseActiveCnt
PUBLIC	?GetMaxActiveCnt@ioSkill@@UBEHPAVioBaseChar@@@Z	; ioSkill::GetMaxActiveCnt
PUBLIC	?GetCurActiveCnt@ioSkill@@UBEHPAVioBaseChar@@@Z	; ioSkill::GetCurActiveCnt
PUBLIC	?SetNormalSkill@ioCircleMove6Skill@@MAEXPAVioBaseChar@@@Z ; ioCircleMove6Skill::SetNormalSkill
EXTRN	??1ioNormalSkill@@UAE@XZ:PROC			; ioNormalSkill::~ioNormalSkill
EXTRN	__imp_??1ioHashString@@QAE@XZ:PROC
EXTRN	___CxxFrameHandler3:PROC
EXTRN	@__security_check_cookie@4:PROC
EXTRN	__EH_epilog3:PROC
EXTRN	__EH_prolog3:PROC
EXTRN	?GetTypeID@ioNormalSkill@@UBEHXZ:PROC		; ioNormalSkill::GetTypeID
EXTRN	?IsCanSwitchSkill@ioSkill@@UBE_NXZ:PROC		; ioSkill::IsCanSwitchSkill
EXTRN	?IsCanSemiSwitchSkill@ioSkill@@UBE_NXZ:PROC	; ioSkill::IsCanSemiSwitchSkill
EXTRN	?IsCanCancelBySkill@ioSkill@@UBE_NPAVioBaseChar@@AAH@Z:PROC ; ioSkill::IsCanCancelBySkill
EXTRN	?IsCanUseZeroHP@ioSkill@@UBE_NPAVioBaseChar@@@Z:PROC ; ioSkill::IsCanUseZeroHP
EXTRN	?IsCanUseSkillWithCrown@ioSkill@@UAE_NPAVioBaseChar@@@Z:PROC ; ioSkill::IsCanUseSkillWithCrown
EXTRN	?IsCanUseBoss@ioSkill@@UBE_NPAVioBaseChar@@@Z:PROC ; ioSkill::IsCanUseBoss
EXTRN	?IsCanUseFootball@ioSkill@@UBE_NXZ:PROC		; ioSkill::IsCanUseFootball
EXTRN	?IsCanUseGangSiMode@ioSkill@@UBE_NXZ:PROC	; ioSkill::IsCanUseGangSiMode
EXTRN	?IsCanUseByWeaponType@ioSkill@@UBE_NPAVioBaseChar@@@Z:PROC ; ioSkill::IsCanUseByWeaponType
EXTRN	?IsCanUseThunderBirdHold@ioSkill@@UBE_NPAVioBaseChar@@@Z:PROC ; ioSkill::IsCanUseThunderBirdHold
EXTRN	?IsCanUseLimitHP@ioSkill@@UBE_NPAVioBaseChar@@@Z:PROC ; ioSkill::IsCanUseLimitHP
EXTRN	?IsCanUseSkill@ioNormalSkill@@UAE_NPAVioBaseChar@@_N@Z:PROC ; ioNormalSkill::IsCanUseSkill
EXTRN	?IsOnOffEnable@ioSkill@@UAE_NXZ:PROC		; ioSkill::IsOnOffEnable
EXTRN	?IsCanDefenseStateSkill@ioSkill@@UAE_NXZ:PROC	; ioSkill::IsCanDefenseStateSkill
EXTRN	?SetDefenseStateSkill@ioSkill@@UAEXPAVioBaseChar@@@Z:PROC ; ioSkill::SetDefenseStateSkill
EXTRN	?HasBuff@ioSkill@@UBE_NH@Z:PROC			; ioSkill::HasBuff
EXTRN	?GetBuffType@ioSkill@@UAEHH@Z:PROC		; ioSkill::GetBuffType
EXTRN	?IsEnableReserve@ioSkill@@UBE_NXZ:PROC		; ioSkill::IsEnableReserve
EXTRN	?IsCharSkipState@ioSkill@@UBE?AW4SkillCharColType@@XZ:PROC ; ioSkill::IsCharSkipState
EXTRN	?IsEntityCollisionSkipState@ioSkill@@UBE_NXZ:PROC ; ioSkill::IsEntityCollisionSkipState
EXTRN	?IsAttackEndState@ioNormalSkill@@UBE_NXZ:PROC	; ioNormalSkill::IsAttackEndState
EXTRN	?IsJumpState@ioSkill@@UBE_NXZ:PROC		; ioSkill::IsJumpState
EXTRN	?IsDownState@ioSkill@@UBE_NXZ:PROC		; ioSkill::IsDownState
EXTRN	?IsNoDropState@ioSkill@@UBE_NXZ:PROC		; ioSkill::IsNoDropState
EXTRN	?IsCanSendControl@ioSkill@@UBE_NXZ:PROC		; ioSkill::IsCanSendControl
EXTRN	?IsSkipState@ioSkill@@UBE_NXZ:PROC		; ioSkill::IsSkipState
EXTRN	?GetSkillMoveRate@ioSkill@@UBEMXZ:PROC		; ioSkill::GetSkillMoveRate
EXTRN	?SetSkillGrapplingState@ioSkill@@UAE_NPAVioBaseChar@@ABVioHashString@@@Z:PROC ; ioSkill::SetSkillGrapplingState
EXTRN	?GetGrapplingTargetPos@ioSkill@@UAE?AUD3DXVECTOR3@@PAVioBaseChar@@0@Z:PROC ; ioSkill::GetGrapplingTargetPos
EXTRN	?GetGrapplingTargetPos@ioSkill@@UAE?AUD3DXVECTOR3@@PAVioBaseChar@@@Z:PROC ; ioSkill::GetGrapplingTargetPos
EXTRN	?GetSkillWoundGrapplingInfo@ioSkill@@UAE?AUGrapplingSkillWoundedInfo@@XZ:PROC ; ioSkill::GetSkillWoundGrapplingInfo
EXTRN	?SetCreateWeaponDependency@ioSkill@@UAEXPAVioBaseChar@@PAVioPlayStage@@@Z:PROC ; ioSkill::SetCreateWeaponDependency
EXTRN	?SetNextSkillState@ioSkill@@UAEXPAVioBaseChar@@PAVioWeapon@@@Z:PROC ; ioSkill::SetNextSkillState
EXTRN	?OnSkillEndByWounded@ioSkill@@UAEXPAVioBaseChar@@@Z:PROC ; ioSkill::OnSkillEndByWounded
EXTRN	?OnProcessNotUseSkill@ioSkill@@UAEXPAVioBaseChar@@PAVioPlayStage@@@Z:PROC ; ioSkill::OnProcessNotUseSkill
EXTRN	?OnSkillItemRelease@ioSkill@@UAEXPAVioBaseChar@@@Z:PROC ; ioSkill::OnSkillItemRelease
EXTRN	?ApplyEquipSlotSkillExtraInfo@ioSkill@@UAEXPAVioBaseChar@@PAVioPlayStage@@AAVSP2Packet@@@Z:PROC ; ioSkill::ApplyEquipSlotSkillExtraInfo
EXTRN	?ApplyExtraPassiveSkillInfo@ioSkill@@UAEXPAVioBaseChar@@PAVioPlayStage@@AAVSP2Packet@@@Z:PROC ; ioSkill::ApplyExtraPassiveSkillInfo
EXTRN	?StartPreDelayEffect@ioNormalSkill@@UAEXPAVioBaseChar@@@Z:PROC ; ioNormalSkill::StartPreDelayEffect
EXTRN	?EndPreDelayEffect@ioNormalSkill@@UAEXPAVioBaseChar@@@Z:PROC ; ioNormalSkill::EndPreDelayEffect
EXTRN	?IsUseAutoTargetValue@ioSkill@@UAE_NXZ:PROC	; ioSkill::IsUseAutoTargetValue
EXTRN	?IsAutoTargetDownState@ioSkill@@UAE_NXZ:PROC	; ioSkill::IsAutoTargetDownState
EXTRN	?CheckUseBuff@ioSkill@@UAE_NPAVioBaseChar@@@Z:PROC ; ioSkill::CheckUseBuff
EXTRN	?CheckUseActiveCount@ioSkill@@UAE_NXZ:PROC	; ioSkill::CheckUseActiveCount
EXTRN	?CheckAniRotate@ioSkill@@UAEXPAVioBaseChar@@@Z:PROC ; ioSkill::CheckAniRotate
EXTRN	?IsEnableDashCheck@ioSkill@@UAE_NPAVioBaseChar@@@Z:PROC ; ioSkill::IsEnableDashCheck
EXTRN	?IsEnableMultiActive@ioSkill@@UAE_NPAVioBaseChar@@@Z:PROC ; ioSkill::IsEnableMultiActive
EXTRN	?GetAutoTargetValue@ioSkill@@UAEXAAM00@Z:PROC	; ioSkill::GetAutoTargetValue
EXTRN	?GetSkillGravityRate@ioSkill@@UAEMXZ:PROC	; ioSkill::GetSkillGravityRate
EXTRN	?GetSkillMotionName@ioSkill@@UBEABVioHashString@@XZ:PROC ; ioSkill::GetSkillMotionName
EXTRN	?HasSkillMotion@ioSkill@@UBE_NXZ:PROC		; ioSkill::HasSkillMotion
EXTRN	?GetSkillMotionRate@ioSkill@@UBEMXZ:PROC	; ioSkill::GetSkillMotionRate
EXTRN	?IsPreDelayProtect@ioSkill@@UBE_NXZ:PROC	; ioSkill::IsPreDelayProtect
EXTRN	?GetPreDelayAniName@ioSkill@@UBEABVioHashString@@XZ:PROC ; ioSkill::GetPreDelayAniName
EXTRN	?GetPreDelayTime@ioSkill@@UBEKXZ:PROC		; ioSkill::GetPreDelayTime
EXTRN	?GetPreDelayOwnerEffect@ioSkill@@UBEABVioHashString@@XZ:PROC ; ioSkill::GetPreDelayOwnerEffect
EXTRN	?GetPreDelayOtherEffect@ioSkill@@UBEABVioHashString@@XZ:PROC ; ioSkill::GetPreDelayOtherEffect
EXTRN	?SetCancelSkill@ioSkill@@UAEXPAVioBaseChar@@@Z:PROC ; ioSkill::SetCancelSkill
EXTRN	?ClearAirJump@ioSkill@@MAEXXZ:PROC		; ioSkill::ClearAirJump
EXTRN	?SetAirJump@ioSkill@@MAEXPAVioBaseChar@@HM@Z:PROC ; ioSkill::SetAirJump
EXTRN	?CheckAirJump@ioSkill@@MAEXPAVioBaseChar@@@Z:PROC ; ioSkill::CheckAirJump
EXTRN	?UseActiveCount@ioSkill@@UAE_NPAVioBaseChar@@@Z:PROC ; ioSkill::UseActiveCount
EXTRN	?GetMaxActiveCount@ioSkill@@UAEHPAVioBaseChar@@@Z:PROC ; ioSkill::GetMaxActiveCount
EXTRN	?GetCurActiveCount@ioSkill@@UAEHPAVioBaseChar@@@Z:PROC ; ioSkill::GetCurActiveCount
EXTRN	?HideHPGauge@ioSkill@@UAE_NXZ:PROC		; ioSkill::HideHPGauge
EXTRN	?SetInfoByApplyWeapon@ioSkill@@UAEXPAVioBaseChar@@0K_N@Z:PROC ; ioSkill::SetInfoByApplyWeapon
EXTRN	?SetCollisionByApplySkill@ioSkill@@UAEXXZ:PROC	; ioSkill::SetCollisionByApplySkill
EXTRN	?SetChargingRateForWeapon@ioSkill@@UAEXPAVioWeapon@@@Z:PROC ; ioSkill::SetChargingRateForWeapon
EXTRN	?CheckExceptionCamera@ioSkill@@UAE_NXZ:PROC	; ioSkill::CheckExceptionCamera
EXTRN	?GetExceptionCameraPos@ioSkill@@UAE?AUD3DXVECTOR3@@PAVioBaseChar@@@Z:PROC ; ioSkill::GetExceptionCameraPos
EXTRN	?IsFixedExceptionCamera@ioSkill@@UAE_NXZ:PROC	; ioSkill::IsFixedExceptionCamera
EXTRN	??_EioCircleMove6Skill@@UAEPAXI@Z:PROC		; ioCircleMove6Skill::`vector deleting destructor'
EXTRN	?StartPreDelayAnimation@ioNormalSkill@@MAE_NPAVioBaseChar@@@Z:PROC ; ioNormalSkill::StartPreDelayAnimation
;	COMDAT ??_R2ioSkill@@8
; File d:\lost saga for developer\youtube\tutorial\source\src\lsclient\iocirclemove6skill.cpp
rdata$r	SEGMENT
??_R2ioSkill@@8 DD FLAT:??_R1A@?0A@EA@ioSkill@@8	; ioSkill::`RTTI Base Class Array'
rdata$r	ENDS
;	COMDAT ??_R3ioSkill@@8
rdata$r	SEGMENT
??_R3ioSkill@@8 DD 00H					; ioSkill::`RTTI Class Hierarchy Descriptor'
	DD	00H
	DD	01H
	DD	FLAT:??_R2ioSkill@@8
rdata$r	ENDS
;	COMDAT ??_R0?AVioSkill@@@8
_DATA	SEGMENT
??_R0?AVioSkill@@@8 DD FLAT:??_7type_info@@6B@		; ioSkill `RTTI Type Descriptor'
	DD	00H
	DB	'.?AVioSkill@@', 00H
_DATA	ENDS
;	COMDAT ??_R1A@?0A@EA@ioSkill@@8
rdata$r	SEGMENT
??_R1A@?0A@EA@ioSkill@@8 DD FLAT:??_R0?AVioSkill@@@8	; ioSkill::`RTTI Base Class Descriptor at (0,-1,0,64)'
	DD	00H
	DD	00H
	DD	0ffffffffH
	DD	00H
	DD	040H
	DD	FLAT:??_R3ioSkill@@8
rdata$r	ENDS
;	COMDAT ??_R2ioNormalSkill@@8
rdata$r	SEGMENT
??_R2ioNormalSkill@@8 DD FLAT:??_R1A@?0A@EA@ioNormalSkill@@8 ; ioNormalSkill::`RTTI Base Class Array'
	DD	FLAT:??_R1A@?0A@EA@ioSkill@@8
rdata$r	ENDS
;	COMDAT ??_R3ioNormalSkill@@8
rdata$r	SEGMENT
??_R3ioNormalSkill@@8 DD 00H				; ioNormalSkill::`RTTI Class Hierarchy Descriptor'
	DD	00H
	DD	02H
	DD	FLAT:??_R2ioNormalSkill@@8
rdata$r	ENDS
;	COMDAT ??_R0?AVioNormalSkill@@@8
_DATA	SEGMENT
??_R0?AVioNormalSkill@@@8 DD FLAT:??_7type_info@@6B@	; ioNormalSkill `RTTI Type Descriptor'
	DD	00H
	DB	'.?AVioNormalSkill@@', 00H
_DATA	ENDS
;	COMDAT ??_R1A@?0A@EA@ioNormalSkill@@8
rdata$r	SEGMENT
??_R1A@?0A@EA@ioNormalSkill@@8 DD FLAT:??_R0?AVioNormalSkill@@@8 ; ioNormalSkill::`RTTI Base Class Descriptor at (0,-1,0,64)'
	DD	01H
	DD	00H
	DD	0ffffffffH
	DD	00H
	DD	040H
	DD	FLAT:??_R3ioNormalSkill@@8
rdata$r	ENDS
;	COMDAT ??_R1A@?0A@EA@ioCircleMove6Skill@@8
rdata$r	SEGMENT
??_R1A@?0A@EA@ioCircleMove6Skill@@8 DD FLAT:??_R0?AVioCircleMove6Skill@@@8 ; ioCircleMove6Skill::`RTTI Base Class Descriptor at (0,-1,0,64)'
	DD	02H
	DD	00H
	DD	0ffffffffH
	DD	00H
	DD	040H
	DD	FLAT:??_R3ioCircleMove6Skill@@8
rdata$r	ENDS
;	COMDAT ??_R2ioCircleMove6Skill@@8
rdata$r	SEGMENT
??_R2ioCircleMove6Skill@@8 DD FLAT:??_R1A@?0A@EA@ioCircleMove6Skill@@8 ; ioCircleMove6Skill::`RTTI Base Class Array'
	DD	FLAT:??_R1A@?0A@EA@ioNormalSkill@@8
	DD	FLAT:??_R1A@?0A@EA@ioSkill@@8
rdata$r	ENDS
;	COMDAT ??_R3ioCircleMove6Skill@@8
rdata$r	SEGMENT
??_R3ioCircleMove6Skill@@8 DD 00H			; ioCircleMove6Skill::`RTTI Class Hierarchy Descriptor'
	DD	00H
	DD	03H
	DD	FLAT:??_R2ioCircleMove6Skill@@8
rdata$r	ENDS
;	COMDAT ??_R0?AVioCircleMove6Skill@@@8
_DATA	SEGMENT
??_R0?AVioCircleMove6Skill@@@8 DD FLAT:??_7type_info@@6B@ ; ioCircleMove6Skill `RTTI Type Descriptor'
	DD	00H
	DB	'.?AVioCircleMove6Skill@@', 00H
_DATA	ENDS
;	COMDAT ??_R4ioCircleMove6Skill@@6B@
rdata$r	SEGMENT
??_R4ioCircleMove6Skill@@6B@ DD 00H			; ioCircleMove6Skill::`RTTI Complete Object Locator'
	DD	00H
	DD	00H
	DD	FLAT:??_R0?AVioCircleMove6Skill@@@8
	DD	FLAT:??_R3ioCircleMove6Skill@@8
rdata$r	ENDS
;	COMDAT ??_7ioCircleMove6Skill@@6B@
CONST	SEGMENT
??_7ioCircleMove6Skill@@6B@ DD FLAT:??_R4ioCircleMove6Skill@@6B@ ; ioCircleMove6Skill::`vftable'
	DD	FLAT:?LoadProperty@ioCircleMove6Skill@@UAEXAAVioINILoader@@@Z
	DD	FLAT:?Clone@ioCircleMove6Skill@@UAEPAVioSkill@@XZ
	DD	FLAT:?GetTypeID@ioNormalSkill@@UBEHXZ
	DD	FLAT:?IsProtected@ioCircleMove6Skill@@UBE_NH@Z
	DD	FLAT:?IsCanSwitchSkill@ioSkill@@UBE_NXZ
	DD	FLAT:?IsCanSemiSwitchSkill@ioSkill@@UBE_NXZ
	DD	FLAT:?IsCanCancelBySkill@ioSkill@@UBE_NPAVioBaseChar@@AAH@Z
	DD	FLAT:?IsCanUseZeroHP@ioSkill@@UBE_NPAVioBaseChar@@@Z
	DD	FLAT:?IsCanUseSkillWithCrown@ioSkill@@UAE_NPAVioBaseChar@@@Z
	DD	FLAT:?IsCanUseBoss@ioSkill@@UBE_NPAVioBaseChar@@@Z
	DD	FLAT:?IsCanUseFootball@ioSkill@@UBE_NXZ
	DD	FLAT:?IsCanUseGangSiMode@ioSkill@@UBE_NXZ
	DD	FLAT:?IsCanUseByWeaponType@ioSkill@@UBE_NPAVioBaseChar@@@Z
	DD	FLAT:?IsCanUseThunderBirdHold@ioSkill@@UBE_NPAVioBaseChar@@@Z
	DD	FLAT:?IsCanUseLimitHP@ioSkill@@UBE_NPAVioBaseChar@@@Z
	DD	FLAT:?IsCanUseSkill@ioNormalSkill@@UAE_NPAVioBaseChar@@_N@Z
	DD	FLAT:?IsOnOffEnable@ioSkill@@UAE_NXZ
	DD	FLAT:?IsCanDefenseStateSkill@ioSkill@@UAE_NXZ
	DD	FLAT:?SetDefenseStateSkill@ioSkill@@UAEXPAVioBaseChar@@@Z
	DD	FLAT:?GetDefenseSkillBreakeType@ioSkill@@UBE?AW4DefenseBreakType@@XZ
	DD	FLAT:?HasBuff@ioSkill@@UBE_NH@Z
	DD	FLAT:?GetBuffType@ioSkill@@UAEHH@Z
	DD	FLAT:?IsEnableReserve@ioSkill@@UBE_NXZ
	DD	FLAT:?IsSkillMotionEnd@ioCircleMove6Skill@@UBE_NKPAVioBaseChar@@@Z
	DD	FLAT:?IsCharSkipState@ioSkill@@UBE?AW4SkillCharColType@@XZ
	DD	FLAT:?IsEntityCollisionSkipState@ioSkill@@UBE_NXZ
	DD	FLAT:?GetSkillEndNextJumpAmt@ioSkill@@UBEMXZ
	DD	FLAT:?GetSkillEndNextLandRate@ioSkill@@UBEMXZ
	DD	FLAT:?GetSkillEndNextJumpMustEnable@ioSkill@@UAE?AW4SkillEndJumpType@@XZ
	DD	FLAT:?IsEndState@ioCircleMove6Skill@@UBE_NXZ
	DD	FLAT:?IsAttackEndState@ioNormalSkill@@UBE_NXZ
	DD	FLAT:?IsJumpState@ioSkill@@UBE_NXZ
	DD	FLAT:?IsDownState@ioSkill@@UBE_NXZ
	DD	FLAT:?IsNoDropState@ioSkill@@UBE_NXZ
	DD	FLAT:?IsCanSendControl@ioSkill@@UBE_NXZ
	DD	FLAT:?IsSkipState@ioSkill@@UBE_NXZ
	DD	FLAT:?GetSkillMoveRate@ioSkill@@UBEMXZ
	DD	FLAT:?SetSkillGrapplingState@ioSkill@@UAE_NPAVioBaseChar@@ABVioHashString@@@Z
	DD	FLAT:?GetGrapplingTargetPos@ioSkill@@UAE?AUD3DXVECTOR3@@PAVioBaseChar@@0@Z
	DD	FLAT:?GetGrapplingTargetPos@ioSkill@@UAE?AUD3DXVECTOR3@@PAVioBaseChar@@@Z
	DD	FLAT:?EnableChangeGrapplingTargetPos@ioSkill@@UBE_NXZ
	DD	FLAT:?GetSkillWoundGrapplingInfo@ioSkill@@UAE?AUGrapplingSkillWoundedInfo@@XZ
	DD	FLAT:?SetCreateWeaponDependency@ioSkill@@UAEXPAVioBaseChar@@PAVioPlayStage@@@Z
	DD	FLAT:?SetNextSkillState@ioSkill@@UAEXPAVioBaseChar@@PAVioWeapon@@@Z
	DD	FLAT:?OnSkillStart@ioCircleMove6Skill@@UAE_NPAVioBaseChar@@@Z
	DD	FLAT:?OnProcessState@ioCircleMove6Skill@@UAEXPAVioBaseChar@@PAVioPlayStage@@@Z
	DD	FLAT:?OnSkillEndByWounded@ioSkill@@UAEXPAVioBaseChar@@@Z
	DD	FLAT:?OnSkillEnd@ioCircleMove6Skill@@UAEXPAVioBaseChar@@@Z
	DD	FLAT:?OnProcessNotUseSkill@ioSkill@@UAEXPAVioBaseChar@@PAVioPlayStage@@@Z
	DD	FLAT:?OnSkillItemRelease@ioSkill@@UAEXPAVioBaseChar@@@Z
	DD	FLAT:?ApplyAttributeToWeapon@ioCircleMove6Skill@@UAEXPAVioWeapon@@PAVioPlayStage@@@Z
	DD	FLAT:?ApplyExtraSkillInfo@ioCircleMove6Skill@@UAEXPAVioBaseChar@@PAVioPlayStage@@AAVSP2Packet@@@Z
	DD	FLAT:?ApplyEquipSlotSkillExtraInfo@ioSkill@@UAEXPAVioBaseChar@@PAVioPlayStage@@AAVSP2Packet@@@Z
	DD	FLAT:?ApplyExtraPassiveSkillInfo@ioSkill@@UAEXPAVioBaseChar@@PAVioPlayStage@@AAVSP2Packet@@@Z
	DD	FLAT:?StartPreDelayEffect@ioNormalSkill@@UAEXPAVioBaseChar@@@Z
	DD	FLAT:?EndPreDelayEffect@ioNormalSkill@@UAEXPAVioBaseChar@@@Z
	DD	FLAT:?IsUseAutoTargetValue@ioSkill@@UAE_NXZ
	DD	FLAT:?IsAutoTargetDownState@ioSkill@@UAE_NXZ
	DD	FLAT:?CheckUseBuff@ioSkill@@UAE_NPAVioBaseChar@@@Z
	DD	FLAT:?CheckUseItemMesh@ioCircleMove6Skill@@UAE_NXZ
	DD	FLAT:?CheckUseActiveCount@ioSkill@@UAE_NXZ
	DD	FLAT:?CheckAniRotate@ioSkill@@UAEXPAVioBaseChar@@@Z
	DD	FLAT:?IsEnableDashCheck@ioSkill@@UAE_NPAVioBaseChar@@@Z
	DD	FLAT:?IsEnableMultiActive@ioSkill@@UAE_NPAVioBaseChar@@@Z
	DD	FLAT:?IsInvisibleBottomCircle@ioSkill@@UAE_NPAVioBaseChar@@@Z
	DD	FLAT:?GetAutoTargetValue@ioSkill@@UAEXAAM00@Z
	DD	FLAT:?IsCanJumpingSkill@ioSkill@@UBE_NXZ
	DD	FLAT:?IsCanJumpingSkillOnBlowWound@ioSkill@@UBE_NXZ
	DD	FLAT:?IsCanDownSkill@ioSkill@@UBE_NXZ
	DD	FLAT:?IsCanBlowWoundSkill@ioSkill@@UBE_NXZ
	DD	FLAT:?IsCanWoundSkill@ioSkill@@UBE_NXZ
	DD	FLAT:?GetSkillGravityRate@ioSkill@@UAEMXZ
	DD	FLAT:?GetSkillMotionName@ioSkill@@UBEABVioHashString@@XZ
	DD	FLAT:?HasSkillMotion@ioSkill@@UBE_NXZ
	DD	FLAT:?GetSkillMotionRate@ioSkill@@UBEMXZ
	DD	FLAT:?IsPreDelayProtect@ioSkill@@UBE_NXZ
	DD	FLAT:?GetPreDelayAniName@ioSkill@@UBEABVioHashString@@XZ
	DD	FLAT:?GetPreDelayTime@ioSkill@@UBEKXZ
	DD	FLAT:?GetPreDelayOwnerEffect@ioSkill@@UBEABVioHashString@@XZ
	DD	FLAT:?GetPreDelayOtherEffect@ioSkill@@UBEABVioHashString@@XZ
	DD	FLAT:?SetCancelSkill@ioSkill@@UAEXPAVioBaseChar@@@Z
	DD	FLAT:?ClearAirJump@ioSkill@@MAEXXZ
	DD	FLAT:?SetAirJump@ioSkill@@MAEXPAVioBaseChar@@HM@Z
	DD	FLAT:?CheckAirJump@ioSkill@@MAEXPAVioBaseChar@@@Z
	DD	FLAT:?UseActiveCount@ioSkill@@UAE_NPAVioBaseChar@@@Z
	DD	FLAT:?GetMaxActiveCount@ioSkill@@UAEHPAVioBaseChar@@@Z
	DD	FLAT:?GetCurActiveCount@ioSkill@@UAEHPAVioBaseChar@@@Z
	DD	FLAT:?HideHPGauge@ioSkill@@UAE_NXZ
	DD	FLAT:?SetInfoByApplyWeapon@ioSkill@@UAEXPAVioBaseChar@@0K_N@Z
	DD	FLAT:?SetCollisionByApplySkill@ioSkill@@UAEXXZ
	DD	FLAT:?SetChargingRateForWeapon@ioSkill@@UAEXPAVioWeapon@@@Z
	DD	FLAT:?CheckExceptionCamera@ioSkill@@UAE_NXZ
	DD	FLAT:?GetExceptionCameraPos@ioSkill@@UAE?AUD3DXVECTOR3@@PAVioBaseChar@@@Z
	DD	FLAT:?IsFixedExceptionCamera@ioSkill@@UAE_NXZ
	DD	FLAT:?IsUseActiveCnt@ioSkill@@UBE_NXZ
	DD	FLAT:?GetMaxActiveCnt@ioSkill@@UBEHPAVioBaseChar@@@Z
	DD	FLAT:?GetCurActiveCnt@ioSkill@@UBEHPAVioBaseChar@@@Z
	DD	FLAT:??_EioCircleMove6Skill@@UAEPAXI@Z
	DD	FLAT:?StartPreDelayAnimation@ioNormalSkill@@MAE_NPAVioBaseChar@@@Z
	DD	FLAT:?SetNormalSkill@ioCircleMove6Skill@@MAEXPAVioBaseChar@@@Z
CONST	ENDS
;	COMDAT xdata$x
xdata$x	SEGMENT
__ehfuncinfo$??1ioCircleMove6Skill@@UAE@XZ DD 019930522H
	DD	07H
	DD	FLAT:__unwindtable$??1ioCircleMove6Skill@@UAE@XZ
	DD	2 DUP(00H)
	DD	2 DUP(00H)
	DD	00H
	DD	01H
__unwindtable$??1ioCircleMove6Skill@@UAE@XZ DD 0ffffffffH
	DD	FLAT:__unwindfunclet$??1ioCircleMove6Skill@@UAE@XZ$0
	DD	00H
	DD	FLAT:__unwindfunclet$??1ioCircleMove6Skill@@UAE@XZ$1
	DD	01H
	DD	FLAT:__unwindfunclet$??1ioCircleMove6Skill@@UAE@XZ$2
	DD	02H
	DD	FLAT:__unwindfunclet$??1ioCircleMove6Skill@@UAE@XZ$3
	DD	03H
	DD	FLAT:__unwindfunclet$??1ioCircleMove6Skill@@UAE@XZ$4
	DD	04H
	DD	FLAT:__unwindfunclet$??1ioCircleMove6Skill@@UAE@XZ$5
	DD	05H
	DD	FLAT:__unwindfunclet$??1ioCircleMove6Skill@@UAE@XZ$6
; Function compile flags: /Ogsp
xdata$x	ENDS
;	COMDAT ??1ioCircleMove6Skill@@UAE@XZ
_TEXT	SEGMENT
_this$ = -16						; size = 4
__$EHRec$ = -12						; size = 12
??1ioCircleMove6Skill@@UAE@XZ PROC			; ioCircleMove6Skill::~ioCircleMove6Skill, COMDAT
; _this$ = ecx

; 52   : {

  00000	6a 04		 push	 4
  00002	b8 00 00 00 00	 mov	 eax, __ehhandler$??1ioCircleMove6Skill@@UAE@XZ
  00007	e8 00 00 00 00	 call	 __EH_prolog3
  0000c	8b f9		 mov	 edi, ecx
  0000e	89 7d f0	 mov	 DWORD PTR _this$[ebp], edi
  00011	c7 07 00 00 00
	00		 mov	 DWORD PTR [edi], OFFSET ??_7ioCircleMove6Skill@@6B@

; 53   : }

  00017	8b 35 00 00 00
	00		 mov	 esi, DWORD PTR __imp_??1ioHashString@@QAE@XZ
  0001d	8d 8f e4 0f 00
	00		 lea	 ecx, DWORD PTR [edi+4068]
  00023	c7 45 fc 06 00
	00 00		 mov	 DWORD PTR __$EHRec$[ebp+8], 6
  0002a	ff d6		 call	 esi
  0002c	8d 8f d0 0f 00
	00		 lea	 ecx, DWORD PTR [edi+4048]
  00032	c6 45 fc 05	 mov	 BYTE PTR __$EHRec$[ebp+8], 5
  00036	ff d6		 call	 esi
  00038	8d 8f a8 0f 00
	00		 lea	 ecx, DWORD PTR [edi+4008]
  0003e	c6 45 fc 04	 mov	 BYTE PTR __$EHRec$[ebp+8], 4
  00042	ff d6		 call	 esi
  00044	8d 8f 98 0f 00
	00		 lea	 ecx, DWORD PTR [edi+3992]
  0004a	c6 45 fc 03	 mov	 BYTE PTR __$EHRec$[ebp+8], 3
  0004e	ff d6		 call	 esi
  00050	8d 8f 88 0f 00
	00		 lea	 ecx, DWORD PTR [edi+3976]
  00056	c6 45 fc 02	 mov	 BYTE PTR __$EHRec$[ebp+8], 2
  0005a	ff d6		 call	 esi
  0005c	8d 8f 78 0f 00
	00		 lea	 ecx, DWORD PTR [edi+3960]
  00062	c6 45 fc 01	 mov	 BYTE PTR __$EHRec$[ebp+8], 1
  00066	ff d6		 call	 esi
  00068	8d 8f 68 0f 00
	00		 lea	 ecx, DWORD PTR [edi+3944]
  0006e	c6 45 fc 00	 mov	 BYTE PTR __$EHRec$[ebp+8], 0
  00072	ff d6		 call	 esi
  00074	83 4d fc ff	 or	 DWORD PTR __$EHRec$[ebp+8], -1
  00078	8b cf		 mov	 ecx, edi
  0007a	e8 00 00 00 00	 call	 ??1ioNormalSkill@@UAE@XZ ; ioNormalSkill::~ioNormalSkill
  0007f	e8 00 00 00 00	 call	 __EH_epilog3
  00084	c3		 ret	 0
_TEXT	ENDS
;	COMDAT text$x
text$x	SEGMENT
__unwindfunclet$??1ioCircleMove6Skill@@UAE@XZ$0:
  00000	8b 4d f0	 mov	 ecx, DWORD PTR _this$[ebp]
  00003	e9 00 00 00 00	 jmp	 ??1ioNormalSkill@@UAE@XZ ; ioNormalSkill::~ioNormalSkill
__unwindfunclet$??1ioCircleMove6Skill@@UAE@XZ$1:
  00008	8b 4d f0	 mov	 ecx, DWORD PTR _this$[ebp]
  0000b	81 c1 68 0f 00
	00		 add	 ecx, 3944		; 00000f68H
  00011	ff 25 00 00 00
	00		 jmp	 DWORD PTR __imp_??1ioHashString@@QAE@XZ
__unwindfunclet$??1ioCircleMove6Skill@@UAE@XZ$2:
  00017	8b 4d f0	 mov	 ecx, DWORD PTR _this$[ebp]
  0001a	81 c1 78 0f 00
	00		 add	 ecx, 3960		; 00000f78H
  00020	ff 25 00 00 00
	00		 jmp	 DWORD PTR __imp_??1ioHashString@@QAE@XZ
__unwindfunclet$??1ioCircleMove6Skill@@UAE@XZ$3:
  00026	8b 4d f0	 mov	 ecx, DWORD PTR _this$[ebp]
  00029	81 c1 88 0f 00
	00		 add	 ecx, 3976		; 00000f88H
  0002f	ff 25 00 00 00
	00		 jmp	 DWORD PTR __imp_??1ioHashString@@QAE@XZ
__unwindfunclet$??1ioCircleMove6Skill@@UAE@XZ$4:
  00035	8b 4d f0	 mov	 ecx, DWORD PTR _this$[ebp]
  00038	81 c1 98 0f 00
	00		 add	 ecx, 3992		; 00000f98H
  0003e	ff 25 00 00 00
	00		 jmp	 DWORD PTR __imp_??1ioHashString@@QAE@XZ
__unwindfunclet$??1ioCircleMove6Skill@@UAE@XZ$5:
  00044	8b 4d f0	 mov	 ecx, DWORD PTR _this$[ebp]
  00047	81 c1 a8 0f 00
	00		 add	 ecx, 4008		; 00000fa8H
  0004d	ff 25 00 00 00
	00		 jmp	 DWORD PTR __imp_??1ioHashString@@QAE@XZ
__unwindfunclet$??1ioCircleMove6Skill@@UAE@XZ$6:
  00053	8b 4d f0	 mov	 ecx, DWORD PTR _this$[ebp]
  00056	81 c1 d0 0f 00
	00		 add	 ecx, 4048		; 00000fd0H
  0005c	ff 25 00 00 00
	00		 jmp	 DWORD PTR __imp_??1ioHashString@@QAE@XZ
__ehhandler$??1ioCircleMove6Skill@@UAE@XZ:
  00062	8b 54 24 08	 mov	 edx, DWORD PTR [esp+8]
  00066	8d 42 0c	 lea	 eax, DWORD PTR [edx+12]
  00069	8b 4a ec	 mov	 ecx, DWORD PTR [edx-20]
  0006c	33 c8		 xor	 ecx, eax
  0006e	e8 00 00 00 00	 call	 @__security_check_cookie@4
  00073	b8 00 00 00 00	 mov	 eax, OFFSET __ehfuncinfo$??1ioCircleMove6Skill@@UAE@XZ
  00078	e9 00 00 00 00	 jmp	 ___CxxFrameHandler3
text$x	ENDS
??1ioCircleMove6Skill@@UAE@XZ ENDP			; ioCircleMove6Skill::~ioCircleMove6Skill
EXTRN	?ChangeSkillWeaponMesh@ioBaseChar@@QAE_NPAVioSkill@@ABVioHashString@@_N@Z:PROC ; ioBaseChar::ChangeSkillWeaponMesh
EXTRN	__imp_?IsEmpty@ioHashString@@QBE_NXZ:PROC
EXTRN	?ShowWeaponItemMesh@ioBaseChar@@QAEX_N0@Z:PROC	; ioBaseChar::ShowWeaponItemMesh
EXTRN	?ReduceNeedGaugeBySkill@ioBaseChar@@QAEMPAVioSkill@@M@Z:PROC ; ioBaseChar::ReduceNeedGaugeBySkill
EXTRN	?GetNeedGauge@ioSkill@@QAEMABVioHashString@@@Z:PROC ; ioSkill::GetNeedGauge
EXTRN	?SetCameraBuff@ioSkill@@IAEXPAVioBaseChar@@@Z:PROC ; ioSkill::SetCameraBuff
EXTRN	__imp_?GetLoopSec@ioFrameTimer@@QBEKXZ:PROC
EXTRN	__imp_?GetSingleton@ioFrameTimer@@SAAAV1@XZ:PROC
EXTRN	?OnSkillStart@ioNormalSkill@@UAE_NPAVioBaseChar@@@Z:PROC ; ioNormalSkill::OnSkillStart
EXTRN	__fltused:DWORD
; Function compile flags: /Ogsp
;	COMDAT ?OnSkillStart@ioCircleMove6Skill@@UAE_NPAVioBaseChar@@@Z
_TEXT	SEGMENT
_pChar$ = 8						; size = 4
?OnSkillStart@ioCircleMove6Skill@@UAE_NPAVioBaseChar@@@Z PROC ; ioCircleMove6Skill::OnSkillStart, COMDAT
; _this$ = ecx

; 108  : {	

  00000	55		 push	 ebp
  00001	8b ec		 mov	 ebp, esp
  00003	56		 push	 esi

; 109  : 	if ( !ioNormalSkill::OnSkillStart( pChar ) )

  00004	ff 75 08	 push	 DWORD PTR _pChar$[ebp]
  00007	8b f1		 mov	 esi, ecx
  00009	e8 00 00 00 00	 call	 ?OnSkillStart@ioNormalSkill@@UAE_NPAVioBaseChar@@@Z ; ioNormalSkill::OnSkillStart
  0000e	84 c0		 test	 al, al
  00010	0f 84 c8 00 00
	00		 je	 $LN5@OnSkillSta
$LN4@OnSkillSta:
  00016	53		 push	 ebx

; 110  : 		return false;
; 111  : 
; 112  : 	m_bSetHandMesh = false;

  00017	33 db		 xor	 ebx, ebx
  00019	57		 push	 edi
  0001a	88 9e 0a 0f 00
	00		 mov	 BYTE PTR [esi+3850], bl

; 113  : 	m_bCreateWeapon = false;

  00020	88 9e 14 10 00
	00		 mov	 BYTE PTR [esi+4116], bl

; 114  : 	m_dwFireStartTime = 0;

  00026	89 9e 10 10 00
	00		 mov	 DWORD PTR [esi+4112], ebx

; 115  : 	m_dwCheckLoopTime = 0;

  0002c	89 9e 00 10 00
	00		 mov	 DWORD PTR [esi+4096], ebx

; 116  : 	m_dwCurSkillProtectTime = 0;

  00032	89 9e fc 0f 00
	00		 mov	 DWORD PTR [esi+4092], ebx

; 117  : 	m_SkillState = SS_NONE;

  00038	89 9e f8 0f 00
	00		 mov	 DWORD PTR [esi+4088], ebx

; 118  : 
; 119  : 	if( m_dwSkillProtectTime > 0 )

  0003e	39 9e c4 0f 00
	00		 cmp	 DWORD PTR [esi+4036], ebx
  00044	76 1a		 jbe	 SHORT $LN3@OnSkillSta

; 120  : 		m_dwCurSkillProtectTime = FRAMEGETTIME() + m_dwSkillProtectTime;

  00046	ff 15 00 00 00
	00		 call	 DWORD PTR __imp_?GetSingleton@ioFrameTimer@@SAAAV1@XZ
  0004c	8b c8		 mov	 ecx, eax
  0004e	ff 15 00 00 00
	00		 call	 DWORD PTR __imp_?GetLoopSec@ioFrameTimer@@QBEKXZ
  00054	03 86 c4 0f 00
	00		 add	 eax, DWORD PTR [esi+4036]
  0005a	89 86 fc 0f 00
	00		 mov	 DWORD PTR [esi+4092], eax
$LN3@OnSkillSta:

; 121  : 
; 122  : 	SetCameraBuff( pChar );

  00060	8b 7d 08	 mov	 edi, DWORD PTR _pChar$[ebp]
  00063	57		 push	 edi
  00064	8b ce		 mov	 ecx, esi
  00066	e8 00 00 00 00	 call	 ?SetCameraBuff@ioSkill@@IAEXPAVioBaseChar@@@Z ; ioSkill::SetCameraBuff

; 123  : 
; 124  : 	//기본 게이지 감소 (마법진 게이지)
; 125  : 	pChar->ReduceNeedGaugeBySkill( this, GetNeedGauge(pChar->GetCharName()) );

  0006b	8d 87 d4 02 00
	00		 lea	 eax, DWORD PTR [edi+724]
  00071	50		 push	 eax
  00072	8b ce		 mov	 ecx, esi
  00074	e8 00 00 00 00	 call	 ?GetNeedGauge@ioSkill@@QAEMABVioHashString@@@Z ; ioSkill::GetNeedGauge
  00079	51		 push	 ecx
  0007a	d9 1c 24	 fstp	 DWORD PTR [esp]
  0007d	56		 push	 esi
  0007e	8b cf		 mov	 ecx, edi
  00080	e8 00 00 00 00	 call	 ?ReduceNeedGaugeBySkill@ioBaseChar@@QAEMPAVioSkill@@M@Z ; ioBaseChar::ReduceNeedGaugeBySkill
  00085	dd d8		 fstp	 ST(0)

; 126  : 	m_bReduceGauge = true;	

  00087	c6 86 50 03 00
	00 01		 mov	 BYTE PTR [esi+848], 1

; 127  : 	
; 128  : 	// 기본 무기 손에서 제거
; 129  : 	if( m_bUseItemMesh )

  0008e	38 9e 08 0f 00
	00		 cmp	 BYTE PTR [esi+3848], bl
  00094	74 44		 je	 SHORT $LN1@OnSkillSta

; 130  : 	{
; 131  : 		pChar->ShowWeaponItemMesh( false );

  00096	53		 push	 ebx
  00097	53		 push	 ebx
  00098	8b cf		 mov	 ecx, edi
  0009a	e8 00 00 00 00	 call	 ?ShowWeaponItemMesh@ioBaseChar@@QAEX_N0@Z ; ioBaseChar::ShowWeaponItemMesh

; 132  : 	}
; 133  : 	//무기 변경
; 134  : 	if( m_bUseItemMesh && !m_bSetHandMesh && !m_HandMesh.IsEmpty() )

  0009f	38 9e 08 0f 00
	00		 cmp	 BYTE PTR [esi+3848], bl
  000a5	74 33		 je	 SHORT $LN1@OnSkillSta
  000a7	38 9e 0a 0f 00
	00		 cmp	 BYTE PTR [esi+3850], bl
  000ad	75 2b		 jne	 SHORT $LN1@OnSkillSta
  000af	8d be f8 0e 00
	00		 lea	 edi, DWORD PTR [esi+3832]
  000b5	8b cf		 mov	 ecx, edi
  000b7	ff 15 00 00 00
	00		 call	 DWORD PTR __imp_?IsEmpty@ioHashString@@QBE_NXZ
  000bd	84 c0		 test	 al, al
  000bf	75 19		 jne	 SHORT $LN1@OnSkillSta

; 135  : 	{
; 136  : 		pChar->ChangeSkillWeaponMesh( this, m_HandMesh, m_bVisibleEquipMesh );

  000c1	0f b6 86 09 0f
	00 00		 movzx	 eax, BYTE PTR [esi+3849]
  000c8	8b 4d 08	 mov	 ecx, DWORD PTR _pChar$[ebp]
  000cb	50		 push	 eax
  000cc	57		 push	 edi
  000cd	56		 push	 esi
  000ce	e8 00 00 00 00	 call	 ?ChangeSkillWeaponMesh@ioBaseChar@@QAE_NPAVioSkill@@ABVioHashString@@_N@Z ; ioBaseChar::ChangeSkillWeaponMesh

; 137  : 		m_bSetHandMesh = true;

  000d3	c6 86 0a 0f 00
	00 01		 mov	 BYTE PTR [esi+3850], 1
$LN1@OnSkillSta:

; 138  : 	}
; 139  : 
; 140  : 	return true;

  000da	5f		 pop	 edi
  000db	b0 01		 mov	 al, 1
  000dd	5b		 pop	 ebx
$LN5@OnSkillSta:
  000de	5e		 pop	 esi

; 141  : }

  000df	5d		 pop	 ebp
  000e0	c2 04 00	 ret	 4
?OnSkillStart@ioCircleMove6Skill@@UAE_NPAVioBaseChar@@@Z ENDP ; ioCircleMove6Skill::OnSkillStart
_TEXT	ENDS
PUBLIC	??_C@_00CNPNBAHC@?$AA@				; `string'
EXTRN	?RestoreSkillWeaponMesh@ioBaseChar@@QAE_NPAVioSkill@@ABVioHashString@@_N2@Z:PROC ; ioBaseChar::RestoreSkillWeaponMesh
EXTRN	?EndEffect@ioBaseChar@@QAEXABVioHashString@@_N1@Z:PROC ; ioBaseChar::EndEffect
EXTRN	?DestroyMagicCircle@ioBaseGUISupport@@QAEXXZ:PROC ; ioBaseGUISupport::DestroyMagicCircle
EXTRN	?SetMagicCircleTarget@ioBaseGUISupport@@QAEXABVioHashString@@@Z:PROC ; ioBaseGUISupport::SetMagicCircleTarget
EXTRN	__imp_??0ioHashString@@QAE@PBD@Z:PROC
EXTRN	?EndCameraBuff@ioSkill@@IAEXPAVioBaseChar@@@Z:PROC ; ioSkill::EndCameraBuff
EXTRN	?OnSkillEnd@ioNormalSkill@@UAEXPAVioBaseChar@@@Z:PROC ; ioNormalSkill::OnSkillEnd
;	COMDAT ??_C@_00CNPNBAHC@?$AA@
CONST	SEGMENT
??_C@_00CNPNBAHC@?$AA@ DB 00H				; `string'
CONST	ENDS
;	COMDAT xdata$x
xdata$x	SEGMENT
__unwindtable$?OnSkillEnd@ioCircleMove6Skill@@UAEXPAVioBaseChar@@@Z DD 0ffffffffH
	DD	FLAT:__unwindfunclet$?OnSkillEnd@ioCircleMove6Skill@@UAEXPAVioBaseChar@@@Z$0
__ehfuncinfo$?OnSkillEnd@ioCircleMove6Skill@@UAEXPAVioBaseChar@@@Z DD 019930522H
	DD	01H
	DD	FLAT:__unwindtable$?OnSkillEnd@ioCircleMove6Skill@@UAEXPAVioBaseChar@@@Z
	DD	2 DUP(00H)
	DD	2 DUP(00H)
	DD	00H
	DD	01H
; Function compile flags: /Ogsp
xdata$x	ENDS
;	COMDAT ?OnSkillEnd@ioCircleMove6Skill@@UAEXPAVioBaseChar@@@Z
_TEXT	SEGMENT
$T533924 = -28						; size = 16
__$EHRec$ = -12						; size = 12
_pChar$ = 8						; size = 4
?OnSkillEnd@ioCircleMove6Skill@@UAEXPAVioBaseChar@@@Z PROC ; ioCircleMove6Skill::OnSkillEnd, COMDAT
; _this$ = ecx

; 196  : {

  00000	6a 10		 push	 16			; 00000010H
  00002	b8 00 00 00 00	 mov	 eax, __ehhandler$?OnSkillEnd@ioCircleMove6Skill@@UAEXPAVioBaseChar@@@Z
  00007	e8 00 00 00 00	 call	 __EH_prolog3
  0000c	8b f1		 mov	 esi, ecx

; 197  : 	ioNormalSkill::OnSkillEnd( pChar );

  0000e	8b 5d 08	 mov	 ebx, DWORD PTR _pChar$[ebp]
  00011	53		 push	 ebx
  00012	e8 00 00 00 00	 call	 ?OnSkillEnd@ioNormalSkill@@UAEXPAVioBaseChar@@@Z ; ioNormalSkill::OnSkillEnd

; 198  : 
; 199  : 	EndCameraBuff( pChar );

  00017	53		 push	 ebx
  00018	8b ce		 mov	 ecx, esi
  0001a	e8 00 00 00 00	 call	 ?EndCameraBuff@ioSkill@@IAEXPAVioBaseChar@@@Z ; ioSkill::EndCameraBuff

; 200  : 
; 201  : 	pChar->SetMagicCircleTarget( "" );

  0001f	68 00 00 00 00	 push	 OFFSET ??_C@_00CNPNBAHC@?$AA@
  00024	8d 4d e4	 lea	 ecx, DWORD PTR $T533924[ebp]
  00027	ff 15 00 00 00
	00		 call	 DWORD PTR __imp_??0ioHashString@@QAE@PBD@Z
  0002d	83 65 fc 00	 and	 DWORD PTR __$EHRec$[ebp+8], 0
  00031	8d 45 e4	 lea	 eax, DWORD PTR $T533924[ebp]
  00034	50		 push	 eax
  00035	8d 8b cc 01 00
	00		 lea	 ecx, DWORD PTR [ebx+460]
  0003b	e8 00 00 00 00	 call	 ?SetMagicCircleTarget@ioBaseGUISupport@@QAEXABVioHashString@@@Z ; ioBaseGUISupport::SetMagicCircleTarget
  00040	83 4d fc ff	 or	 DWORD PTR __$EHRec$[ebp+8], -1
  00044	8d 4d e4	 lea	 ecx, DWORD PTR $T533924[ebp]
  00047	ff 15 00 00 00
	00		 call	 DWORD PTR __imp_??1ioHashString@@QAE@XZ

; 202  : 	pChar->DestroyMagicCircle();

  0004d	8d 8b cc 01 00
	00		 lea	 ecx, DWORD PTR [ebx+460]
  00053	e8 00 00 00 00	 call	 ?DestroyMagicCircle@ioBaseGUISupport@@QAEXXZ ; ioBaseGUISupport::DestroyMagicCircle

; 203  : 
; 204  : 	if( m_dwGuideEffectID != -1 )

  00058	83 be 18 10 00
	00 ff		 cmp	 DWORD PTR [esi+4120], -1
  0005f	74 19		 je	 SHORT $LN3@OnSkillEnd

; 205  : 	{
; 206  : 		pChar->EndEffect( m_GuideEffect, false );

  00061	6a 01		 push	 1
  00063	6a 00		 push	 0
  00065	8d 86 e4 0f 00
	00		 lea	 eax, DWORD PTR [esi+4068]
  0006b	50		 push	 eax
  0006c	8b cb		 mov	 ecx, ebx
  0006e	e8 00 00 00 00	 call	 ?EndEffect@ioBaseChar@@QAEXABVioHashString@@_N1@Z ; ioBaseChar::EndEffect

; 207  : 		m_dwGuideEffectID = -1;

  00073	83 8e 18 10 00
	00 ff		 or	 DWORD PTR [esi+4120], -1
$LN3@OnSkillEnd:

; 208  : 	}
; 209  : 
; 210  : 	// 기본무기 장착
; 211  : 	if( m_bUseItemMesh )

  0007a	80 be 08 0f 00
	00 00		 cmp	 BYTE PTR [esi+3848], 0
  00081	74 0b		 je	 SHORT $LN2@OnSkillEnd

; 212  : 	{
; 213  : 		pChar->ShowWeaponItemMesh( true );

  00083	6a 00		 push	 0
  00085	6a 01		 push	 1
  00087	8b cb		 mov	 ecx, ebx
  00089	e8 00 00 00 00	 call	 ?ShowWeaponItemMesh@ioBaseChar@@QAEX_N0@Z ; ioBaseChar::ShowWeaponItemMesh
$LN2@OnSkillEnd:

; 214  : 	}
; 215  : 
; 216  : 	// 스킬 중간 동작에 사용된 메쉬들 제거
; 217  : 	if( m_bSetHandMesh && !m_HandMesh.IsEmpty() )

  0008e	80 be 0a 0f 00
	00 00		 cmp	 BYTE PTR [esi+3850], 0
  00095	74 2c		 je	 SHORT $LN1@OnSkillEnd
  00097	8d be f8 0e 00
	00		 lea	 edi, DWORD PTR [esi+3832]
  0009d	8b cf		 mov	 ecx, edi
  0009f	ff 15 00 00 00
	00		 call	 DWORD PTR __imp_?IsEmpty@ioHashString@@QBE_NXZ
  000a5	84 c0		 test	 al, al
  000a7	75 1a		 jne	 SHORT $LN1@OnSkillEnd

; 218  : 	{
; 219  : 		pChar->RestoreSkillWeaponMesh( this, m_HandMesh, m_bVisibleEquipMesh );

  000a9	0f b6 86 09 0f
	00 00		 movzx	 eax, BYTE PTR [esi+3849]
  000b0	6a 00		 push	 0
  000b2	50		 push	 eax
  000b3	57		 push	 edi
  000b4	56		 push	 esi
  000b5	8b cb		 mov	 ecx, ebx
  000b7	e8 00 00 00 00	 call	 ?RestoreSkillWeaponMesh@ioBaseChar@@QAE_NPAVioSkill@@ABVioHashString@@_N2@Z ; ioBaseChar::RestoreSkillWeaponMesh

; 220  : 		m_bSetHandMesh = false;

  000bc	c6 86 0a 0f 00
	00 00		 mov	 BYTE PTR [esi+3850], 0
$LN1@OnSkillEnd:

; 221  : 	}
; 222  : }

  000c3	e8 00 00 00 00	 call	 __EH_epilog3
  000c8	c2 04 00	 ret	 4
_TEXT	ENDS
;	COMDAT text$x
text$x	SEGMENT
__unwindfunclet$?OnSkillEnd@ioCircleMove6Skill@@UAEXPAVioBaseChar@@@Z$0:
  00000	8d 4d e4	 lea	 ecx, DWORD PTR $T533924[ebp]
  00003	ff 25 00 00 00
	00		 jmp	 DWORD PTR __imp_??1ioHashString@@QAE@XZ
__ehhandler$?OnSkillEnd@ioCircleMove6Skill@@UAEXPAVioBaseChar@@@Z:
  00009	8b 54 24 08	 mov	 edx, DWORD PTR [esp+8]
  0000d	8d 42 0c	 lea	 eax, DWORD PTR [edx+12]
  00010	8b 4a e0	 mov	 ecx, DWORD PTR [edx-32]
  00013	33 c8		 xor	 ecx, eax
  00015	e8 00 00 00 00	 call	 @__security_check_cookie@4
  0001a	b8 00 00 00 00	 mov	 eax, OFFSET __ehfuncinfo$?OnSkillEnd@ioCircleMove6Skill@@UAEXPAVioBaseChar@@@Z
  0001f	e9 00 00 00 00	 jmp	 ___CxxFrameHandler3
text$x	ENDS
?OnSkillEnd@ioCircleMove6Skill@@UAEXPAVioBaseChar@@@Z ENDP ; ioCircleMove6Skill::OnSkillEnd
; Function compile flags: /Ogsp
;	COMDAT ?IsEndState@ioCircleMove6Skill@@UBE_NXZ
_TEXT	SEGMENT
?IsEndState@ioCircleMove6Skill@@UBE_NXZ PROC		; ioCircleMove6Skill::IsEndState, COMDAT
; _this$ = ecx

; 250  : 	if( m_SkillState == SS_END )

  00000	83 b9 f8 0f 00
	00 03		 cmp	 DWORD PTR [ecx+4088], 3
  00007	0f 94 c0	 sete	 al

; 251  : 		return true;
; 252  : 
; 253  : 	return false;
; 254  : }

  0000a	c3		 ret	 0
?IsEndState@ioCircleMove6Skill@@UBE_NXZ ENDP		; ioCircleMove6Skill::IsEndState
; Function compile flags: /Ogsp
_TEXT	ENDS
;	COMDAT ?IsSkillMotionEnd@ioCircleMove6Skill@@UBE_NKPAVioBaseChar@@@Z
_TEXT	SEGMENT
_dwActionStop$ = 8					; size = 4
_pOwner$ = 12						; size = 4
?IsSkillMotionEnd@ioCircleMove6Skill@@UBE_NKPAVioBaseChar@@@Z PROC ; ioCircleMove6Skill::IsSkillMotionEnd, COMDAT
; _this$ = ecx

; 258  : 	if( m_SkillState == SS_END )

  00000	83 b9 f8 0f 00
	00 03		 cmp	 DWORD PTR [ecx+4088], 3
  00007	0f 94 c0	 sete	 al

; 259  : 		return true;
; 260  : 
; 261  : 	return false;
; 262  : }

  0000a	c2 08 00	 ret	 8
?IsSkillMotionEnd@ioCircleMove6Skill@@UBE_NKPAVioBaseChar@@@Z ENDP ; ioCircleMove6Skill::IsSkillMotionEnd
; Function compile flags: /Ogsp
_TEXT	ENDS
;	COMDAT ?CheckUseItemMesh@ioCircleMove6Skill@@UAE_NXZ
_TEXT	SEGMENT
?CheckUseItemMesh@ioCircleMove6Skill@@UAE_NXZ PROC	; ioCircleMove6Skill::CheckUseItemMesh, COMDAT
; _this$ = ecx

; 266  : 	return m_bUseItemMesh;

  00000	8a 81 08 0f 00
	00		 mov	 al, BYTE PTR [ecx+3848]

; 267  : }

  00006	c3		 ret	 0
?CheckUseItemMesh@ioCircleMove6Skill@@UAE_NXZ ENDP	; ioCircleMove6Skill::CheckUseItemMesh
_TEXT	ENDS
EXTRN	?ApplyAttributeToWeapon@ioSkill@@UAEXPAVioWeapon@@PAVioPlayStage@@@Z:PROC ; ioSkill::ApplyAttributeToWeapon
; Function compile flags: /Ogsp
;	COMDAT ?ApplyAttributeToWeapon@ioCircleMove6Skill@@UAEXPAVioWeapon@@PAVioPlayStage@@@Z
_TEXT	SEGMENT
_pWeapon$ = 8						; size = 4
_pStage$ = 12						; size = 4
?ApplyAttributeToWeapon@ioCircleMove6Skill@@UAEXPAVioWeapon@@PAVioPlayStage@@@Z PROC ; ioCircleMove6Skill::ApplyAttributeToWeapon, COMDAT
; _this$ = ecx

; 270  : {

  00000	55		 push	 ebp
  00001	8b ec		 mov	 ebp, esp

; 272  : }

  00003	5d		 pop	 ebp

; 271  : 	ioSkill::ApplyAttributeToWeapon( pWeapon, pStage );

  00004	e9 00 00 00 00	 jmp	 ?ApplyAttributeToWeapon@ioSkill@@UAEXPAVioWeapon@@PAVioPlayStage@@@Z ; ioSkill::ApplyAttributeToWeapon
?ApplyAttributeToWeapon@ioCircleMove6Skill@@UAEXPAVioWeapon@@PAVioPlayStage@@@Z ENDP ; ioCircleMove6Skill::ApplyAttributeToWeapon
_TEXT	ENDS
PUBLIC	??1FireTime@@QAE@XZ				; FireTime::~FireTime
;	COMDAT xdata$x
xdata$x	SEGMENT
__unwindtable$??1FireTime@@QAE@XZ DD 0ffffffffH
	DD	FLAT:__unwindfunclet$??1FireTime@@QAE@XZ$0
	DD	00H
	DD	FLAT:__unwindfunclet$??1FireTime@@QAE@XZ$1
__ehfuncinfo$??1FireTime@@QAE@XZ DD 019930522H
	DD	02H
	DD	FLAT:__unwindtable$??1FireTime@@QAE@XZ
	DD	2 DUP(00H)
	DD	2 DUP(00H)
	DD	00H
	DD	01H
; Function compile flags: /Ogsp
xdata$x	ENDS
;	COMDAT ??1FireTime@@QAE@XZ
_TEXT	SEGMENT
_this$ = -16						; size = 4
__$EHRec$ = -12						; size = 12
??1FireTime@@QAE@XZ PROC				; FireTime::~FireTime, COMDAT
; _this$ = ecx
  00000	6a 04		 push	 4
  00002	b8 00 00 00 00	 mov	 eax, __ehhandler$??1FireTime@@QAE@XZ
  00007	e8 00 00 00 00	 call	 __EH_prolog3
  0000c	8b f9		 mov	 edi, ecx
  0000e	89 7d f0	 mov	 DWORD PTR _this$[ebp], edi
  00011	8b 35 00 00 00
	00		 mov	 esi, DWORD PTR __imp_??1ioHashString@@QAE@XZ
  00017	8d 4f 44	 lea	 ecx, DWORD PTR [edi+68]
  0001a	c7 45 fc 01 00
	00 00		 mov	 DWORD PTR __$EHRec$[ebp+8], 1
  00021	ff d6		 call	 esi
  00023	8d 4f 30	 lea	 ecx, DWORD PTR [edi+48]
  00026	c6 45 fc 00	 mov	 BYTE PTR __$EHRec$[ebp+8], 0
  0002a	ff d6		 call	 esi
  0002c	83 4d fc ff	 or	 DWORD PTR __$EHRec$[ebp+8], -1
  00030	8d 4f 14	 lea	 ecx, DWORD PTR [edi+20]
  00033	ff d6		 call	 esi
  00035	e8 00 00 00 00	 call	 __EH_epilog3
  0003a	c3		 ret	 0
_TEXT	ENDS
;	COMDAT text$x
text$x	SEGMENT
__unwindfunclet$??1FireTime@@QAE@XZ$0:
  00000	8b 4d f0	 mov	 ecx, DWORD PTR _this$[ebp]
  00003	83 c1 14	 add	 ecx, 20			; 00000014H
  00006	ff 25 00 00 00
	00		 jmp	 DWORD PTR __imp_??1ioHashString@@QAE@XZ
__unwindfunclet$??1FireTime@@QAE@XZ$1:
  0000c	8b 4d f0	 mov	 ecx, DWORD PTR _this$[ebp]
  0000f	83 c1 30	 add	 ecx, 48			; 00000030H
  00012	ff 25 00 00 00
	00		 jmp	 DWORD PTR __imp_??1ioHashString@@QAE@XZ
__ehhandler$??1FireTime@@QAE@XZ:
  00018	8b 54 24 08	 mov	 edx, DWORD PTR [esp+8]
  0001c	8d 42 0c	 lea	 eax, DWORD PTR [edx+12]
  0001f	8b 4a ec	 mov	 ecx, DWORD PTR [edx-20]
  00022	33 c8		 xor	 ecx, eax
  00024	e8 00 00 00 00	 call	 @__security_check_cookie@4
  00029	b8 00 00 00 00	 mov	 eax, OFFSET __ehfuncinfo$??1FireTime@@QAE@XZ
  0002e	e9 00 00 00 00	 jmp	 ___CxxFrameHandler3
text$x	ENDS
??1FireTime@@QAE@XZ ENDP				; FireTime::~FireTime
PUBLIC	__real@00000000
PUBLIC	?GetGrowthCircleRange@ioCircleMove6Skill@@IAEMPAVioBaseChar@@@Z ; ioCircleMove6Skill::GetGrowthCircleRange
EXTRN	?GetValue@ioGrowthNormalUpInfo@@QAEMPAVioPlayStage@@@Z:PROC ; ioGrowthNormalUpInfo::GetValue
EXTRN	?GetGrowthUpInfoByType@ioSkill@@QAEPAVioGrowthUpInfo@@HABVioHashString@@@Z:PROC ; ioSkill::GetGrowthUpInfoByType
;	COMDAT __real@00000000
; File d:\lost saga for developer\youtube\tutorial\source\src\lsclient\iobasechar.h
CONST	SEGMENT
__real@00000000 DD 000000000r			; 0
; Function compile flags: /Ogsp
; File d:\lost saga for developer\youtube\tutorial\source\src\lsclient\iocirclemove6skill.cpp
CONST	ENDS
;	COMDAT ?GetGrowthCircleRange@ioCircleMove6Skill@@IAEMPAVioBaseChar@@@Z
_TEXT	SEGMENT
_fValue$ = -4						; size = 4
_pChar$ = 8						; size = 4
?GetGrowthCircleRange@ioCircleMove6Skill@@IAEMPAVioBaseChar@@@Z PROC ; ioCircleMove6Skill::GetGrowthCircleRange, COMDAT
; _this$ = ecx

; 360  : {

  00000	55		 push	 ebp
  00001	8b ec		 mov	 ebp, esp
  00003	51		 push	 ecx

; 361  : 	float fValue = 0.0f;
; 362  : 
; 363  : 	if ( !pChar )

  00004	8b 45 08	 mov	 eax, DWORD PTR _pChar$[ebp]
  00007	0f 57 c0	 xorps	 xmm0, xmm0
  0000a	f3 0f 11 45 fc	 movss	 DWORD PTR _fValue$[ebp], xmm0
  0000f	85 c0		 test	 eax, eax
  00011	75 04		 jne	 SHORT $LN4@GetGrowthC

; 364  : 		return fValue;

  00013	d9 ee		 fldz
  00015	eb 3a		 jmp	 SHORT $LN5@GetGrowthC
$LN4@GetGrowthC:
  00017	56		 push	 esi

; 365  : 
; 366  : 	ioPlayStage *pStage = pChar->GetCreator();

  00018	8b b0 44 03 00
	00		 mov	 esi, DWORD PTR [eax+836]

; 367  : 	if ( !pStage )

  0001e	85 f6		 test	 esi, esi
  00020	75 04		 jne	 SHORT $LN3@GetGrowthC

; 368  : 		return fValue;

  00022	d9 ee		 fldz
  00024	eb 2a		 jmp	 SHORT $LN11@GetGrowthC
$LN3@GetGrowthC:

; 369  : 
; 370  : 	ioGrowthUpInfo* pGrowthInfo = GetGrowthUpInfoByType( GT_MAGIC_CIRCLE_RANGE, pChar->GetCharName() );

  00026	05 d4 02 00 00	 add	 eax, 724		; 000002d4H
  0002b	50		 push	 eax
  0002c	6a 0e		 push	 14			; 0000000eH
  0002e	e8 00 00 00 00	 call	 ?GetGrowthUpInfoByType@ioSkill@@QAEPAVioGrowthUpInfo@@HABVioHashString@@@Z ; ioSkill::GetGrowthUpInfoByType

; 371  : 	if ( pGrowthInfo )

  00033	85 c0		 test	 eax, eax
  00035	74 16		 je	 SHORT $LN1@GetGrowthC

; 372  : 	{
; 373  : 		ioGrowthNormalUpInfo *pUpInfo = ToNormalUpInfo( pGrowthInfo );

  00037	50		 push	 eax
  00038	e8 00 00 00 00	 call	 ?ToNormalUpInfo@@YAPAVioGrowthNormalUpInfo@@PAVioGrowthUpInfo@@@Z ; ToNormalUpInfo
  0003d	59		 pop	 ecx

; 374  : 		if( pUpInfo )

  0003e	85 c0		 test	 eax, eax
  00040	74 0b		 je	 SHORT $LN1@GetGrowthC

; 375  : 			fValue = pUpInfo->GetValue(pStage);

  00042	56		 push	 esi
  00043	8b c8		 mov	 ecx, eax
  00045	e8 00 00 00 00	 call	 ?GetValue@ioGrowthNormalUpInfo@@QAEMPAVioPlayStage@@@Z ; ioGrowthNormalUpInfo::GetValue
  0004a	d9 5d fc	 fstp	 DWORD PTR _fValue$[ebp]
$LN1@GetGrowthC:

; 376  : 	}
; 377  : 
; 378  : 	return fValue;

  0004d	d9 45 fc	 fld	 DWORD PTR _fValue$[ebp]
$LN11@GetGrowthC:
  00050	5e		 pop	 esi
$LN5@GetGrowthC:

; 379  : }

  00051	c9		 leave
  00052	c2 04 00	 ret	 4
?GetGrowthCircleRange@ioCircleMove6Skill@@IAEMPAVioBaseChar@@@Z ENDP ; ioCircleMove6Skill::GetGrowthCircleRange
_TEXT	ENDS
PUBLIC	?UpdateMagicCircle@ioCircleMove6Skill@@IAEXPAVioBaseChar@@@Z ; ioCircleMove6Skill::UpdateMagicCircle
EXTRN	?UpdateMagicCirclePosAll@ioBaseGUISupport@@QAEXMMM_N@Z:PROC ; ioBaseGUISupport::UpdateMagicCirclePosAll
EXTRN	?CheckChangeDirectionForMagicCircle@ioBaseGUISupport@@QAE_NXZ:PROC ; ioBaseGUISupport::CheckChangeDirectionForMagicCircle
EXTRN	?CheckMagicCircle@ioBaseGUISupport@@QBE_NXZ:PROC ; ioBaseGUISupport::CheckMagicCircle
; Function compile flags: /Ogsp
;	COMDAT ?UpdateMagicCircle@ioCircleMove6Skill@@IAEXPAVioBaseChar@@@Z
_TEXT	SEGMENT
_fCurRange$531069 = 8					; size = 4
_pChar$ = 8						; size = 4
?UpdateMagicCircle@ioCircleMove6Skill@@IAEXPAVioBaseChar@@@Z PROC ; ioCircleMove6Skill::UpdateMagicCircle, COMDAT
; _this$ = ecx

; 431  : {

  00000	55		 push	 ebp
  00001	8b ec		 mov	 ebp, esp
  00003	53		 push	 ebx

; 432  : 	if ( !pChar )

  00004	8b 5d 08	 mov	 ebx, DWORD PTR _pChar$[ebp]
  00007	56		 push	 esi
  00008	8b f1		 mov	 esi, ecx
  0000a	85 db		 test	 ebx, ebx
  0000c	74 63		 je	 SHORT $LN1@UpdateMagi

; 433  : 		return;
; 434  : 		
; 435  : 	if( pChar->CheckMagicCircle() )

  0000e	57		 push	 edi
  0000f	8d 8b cc 01 00
	00		 lea	 ecx, DWORD PTR [ebx+460]
  00015	e8 00 00 00 00	 call	 ?CheckMagicCircle@ioBaseGUISupport@@QBE_NXZ ; ioBaseGUISupport::CheckMagicCircle
  0001a	84 c0		 test	 al, al
  0001c	74 52		 je	 SHORT $LN5@UpdateMagi

; 436  : 	{
; 437  : 		float fCurRange = m_fCircleRange + GetGrowthCircleRange( pChar );

  0001e	53		 push	 ebx
  0001f	8b ce		 mov	 ecx, esi
  00021	e8 00 00 00 00	 call	 ?GetGrowthCircleRange@ioCircleMove6Skill@@IAEMPAVioBaseChar@@@Z ; ioCircleMove6Skill::GetGrowthCircleRange
  00026	d8 86 58 0f 00
	00		 fadd	 DWORD PTR [esi+3928]

; 438  : 
; 439  : 		//향 체크
; 440  : 		pChar->CheckChangeDirectionForMagicCircle();

  0002c	8d 8b cc 01 00
	00		 lea	 ecx, DWORD PTR [ebx+460]
  00032	d9 5d 08	 fstp	 DWORD PTR _fCurRange$531069[ebp]
  00035	e8 00 00 00 00	 call	 ?CheckChangeDirectionForMagicCircle@ioBaseGUISupport@@QAE_NXZ ; ioBaseGUISupport::CheckChangeDirectionForMagicCircle

; 441  : 		//위치 갱신
; 442  : 		pChar->UpdateMagicCirclePosAll( m_fCircleMoveSpeed, fCurRange, m_fCircleHeightGap, false );

  0003a	f3 0f 10 86 60
	0f 00 00	 movss	 xmm0, DWORD PTR [esi+3936]
  00042	6a 00		 push	 0
  00044	83 ec 0c	 sub	 esp, 12			; 0000000cH
  00047	f3 0f 11 44 24
	08		 movss	 DWORD PTR [esp+8], xmm0
  0004d	f3 0f 10 45 08	 movss	 xmm0, DWORD PTR _fCurRange$531069[ebp]
  00052	f3 0f 11 44 24
	04		 movss	 DWORD PTR [esp+4], xmm0
  00058	f3 0f 10 86 5c
	0f 00 00	 movss	 xmm0, DWORD PTR [esi+3932]
  00060	8d 8b cc 01 00
	00		 lea	 ecx, DWORD PTR [ebx+460]
  00066	f3 0f 11 04 24	 movss	 DWORD PTR [esp], xmm0
  0006b	e8 00 00 00 00	 call	 ?UpdateMagicCirclePosAll@ioBaseGUISupport@@QAEXMMM_N@Z ; ioBaseGUISupport::UpdateMagicCirclePosAll
$LN5@UpdateMagi:
  00070	5f		 pop	 edi
$LN1@UpdateMagi:
  00071	5e		 pop	 esi
  00072	5b		 pop	 ebx

; 443  : 	}
; 444  : }

  00073	5d		 pop	 ebp
  00074	c2 04 00	 ret	 4
?UpdateMagicCircle@ioCircleMove6Skill@@IAEXPAVioBaseChar@@@Z ENDP ; ioCircleMove6Skill::UpdateMagicCircle
_TEXT	ENDS
PUBLIC	__$ArrayPad$
PUBLIC	?CheckRotate@ioCircleMove6Skill@@IAEXPAVioBaseChar@@@Z ; ioCircleMove6Skill::CheckRotate
EXTRN	?SetTargetRotToTargetPos@ioBaseChar@@QAEXABUD3DXVECTOR3@@_N1@Z:PROC ; ioBaseChar::SetTargetRotToTargetPos
EXTRN	?GetMagicCirclePos@ioBaseGUISupport@@QBE?AUD3DXVECTOR3@@M_N@Z:PROC ; ioBaseGUISupport::GetMagicCirclePos
EXTRN	___security_cookie:DWORD
; Function compile flags: /Ogsp
;	COMDAT ?CheckRotate@ioCircleMove6Skill@@IAEXPAVioBaseChar@@@Z
_TEXT	SEGMENT
_vTargetPos$ = -16					; size = 12
__$ArrayPad$ = -4					; size = 4
_pChar$ = 8						; size = 4
?CheckRotate@ioCircleMove6Skill@@IAEXPAVioBaseChar@@@Z PROC ; ioCircleMove6Skill::CheckRotate, COMDAT
; _this$ = ecx

; 448  : {

  00000	55		 push	 ebp
  00001	8b ec		 mov	 ebp, esp
  00003	83 ec 10	 sub	 esp, 16			; 00000010H
  00006	a1 00 00 00 00	 mov	 eax, DWORD PTR ___security_cookie
  0000b	33 c5		 xor	 eax, ebp
  0000d	89 45 fc	 mov	 DWORD PTR __$ArrayPad$[ebp], eax
  00010	56		 push	 esi
  00011	8b 75 08	 mov	 esi, DWORD PTR _pChar$[ebp]

; 449  : 	if ( !pChar )

  00014	85 f6		 test	 esi, esi
  00016	74 29		 je	 SHORT $LN2@CheckRotat

; 450  : 		return;
; 451  : 
; 452  : 	//마법진 방향으로 캐릭터 회전
; 453  : 	D3DXVECTOR3 vTargetPos = pChar->GetMagicCirclePos();

  00018	0f 57 c0	 xorps	 xmm0, xmm0
  0001b	6a 00		 push	 0
  0001d	51		 push	 ecx
  0001e	8d 45 f0	 lea	 eax, DWORD PTR _vTargetPos$[ebp]
  00021	f3 0f 11 04 24	 movss	 DWORD PTR [esp], xmm0
  00026	50		 push	 eax
  00027	8d 8e cc 01 00
	00		 lea	 ecx, DWORD PTR [esi+460]
  0002d	e8 00 00 00 00	 call	 ?GetMagicCirclePos@ioBaseGUISupport@@QBE?AUD3DXVECTOR3@@M_N@Z ; ioBaseGUISupport::GetMagicCirclePos

; 454  : 	pChar->SetTargetRotToTargetPos( vTargetPos, true, false );

  00032	6a 00		 push	 0
  00034	6a 01		 push	 1
  00036	8d 45 f0	 lea	 eax, DWORD PTR _vTargetPos$[ebp]
  00039	50		 push	 eax
  0003a	8b ce		 mov	 ecx, esi
  0003c	e8 00 00 00 00	 call	 ?SetTargetRotToTargetPos@ioBaseChar@@QAEXABUD3DXVECTOR3@@_N1@Z ; ioBaseChar::SetTargetRotToTargetPos
$LN2@CheckRotat:

; 455  : }

  00041	8b 4d fc	 mov	 ecx, DWORD PTR __$ArrayPad$[ebp]
  00044	33 cd		 xor	 ecx, ebp
  00046	5e		 pop	 esi
  00047	e8 00 00 00 00	 call	 @__security_check_cookie@4
  0004c	c9		 leave
  0004d	c2 04 00	 ret	 4
?CheckRotate@ioCircleMove6Skill@@IAEXPAVioBaseChar@@@Z ENDP ; ioCircleMove6Skill::CheckRotate
_TEXT	ENDS
PUBLIC	??0D3DXVECTOR3@@QAE@XZ				; D3DXVECTOR3::D3DXVECTOR3
; Function compile flags: /Ogsp
; File c:\program files (x86)\microsoft directx sdk (june 2010)\include\d3dx9math.h
;	COMDAT ??0D3DXVECTOR3@@QAE@XZ
_TEXT	SEGMENT
??0D3DXVECTOR3@@QAE@XZ PROC				; D3DXVECTOR3::D3DXVECTOR3, COMDAT
; _this$ = ecx

; 165  :     D3DXVECTOR3() {};

  00000	8b c1		 mov	 eax, ecx
  00002	c3		 ret	 0
??0D3DXVECTOR3@@QAE@XZ ENDP				; D3DXVECTOR3::D3DXVECTOR3
_TEXT	ENDS
PUBLIC	??0D3DXVECTOR3@@QAE@MMM@Z			; D3DXVECTOR3::D3DXVECTOR3
; Function compile flags: /Ogsp
; File c:\program files (x86)\microsoft directx sdk (june 2010)\include\d3dx9math.inl
;	COMDAT ??0D3DXVECTOR3@@QAE@MMM@Z
_TEXT	SEGMENT
_fx$ = 8						; size = 4
_fy$ = 12						; size = 4
_fz$ = 16						; size = 4
??0D3DXVECTOR3@@QAE@MMM@Z PROC				; D3DXVECTOR3::D3DXVECTOR3, COMDAT
; _this$ = ecx

; 303  : {

  00000	55		 push	 ebp
  00001	8b ec		 mov	 ebp, esp

; 304  :     x = fx;

  00003	f3 0f 10 45 08	 movss	 xmm0, DWORD PTR _fx$[ebp]
  00008	8b c1		 mov	 eax, ecx
  0000a	f3 0f 11 00	 movss	 DWORD PTR [eax], xmm0

; 305  :     y = fy;

  0000e	f3 0f 10 45 0c	 movss	 xmm0, DWORD PTR _fy$[ebp]
  00013	f3 0f 11 40 04	 movss	 DWORD PTR [eax+4], xmm0

; 306  :     z = fz;

  00018	f3 0f 10 45 10	 movss	 xmm0, DWORD PTR _fz$[ebp]
  0001d	f3 0f 11 40 08	 movss	 DWORD PTR [eax+8], xmm0

; 307  : }

  00022	5d		 pop	 ebp
  00023	c2 0c 00	 ret	 12			; 0000000cH
??0D3DXVECTOR3@@QAE@MMM@Z ENDP				; D3DXVECTOR3::D3DXVECTOR3
_TEXT	ENDS
PUBLIC	??HD3DXVECTOR3@@QBE?AU0@ABU0@@Z			; D3DXVECTOR3::operator+
; Function compile flags: /Ogsp
;	COMDAT ??HD3DXVECTOR3@@QBE?AU0@ABU0@@Z
_TEXT	SEGMENT
___$ReturnUdt$ = 8					; size = 4
_v$ = 12						; size = 4
??HD3DXVECTOR3@@QBE?AU0@ABU0@@Z PROC			; D3DXVECTOR3::operator+, COMDAT
; _this$ = ecx

; 380  : {

  00000	55		 push	 ebp
  00001	8b ec		 mov	 ebp, esp

; 381  :     return D3DXVECTOR3(x + v.x, y + v.y, z + v.z);

  00003	8b 55 0c	 mov	 edx, DWORD PTR _v$[ebp]
  00006	f3 0f 10 02	 movss	 xmm0, DWORD PTR [edx]
  0000a	f3 0f 10 09	 movss	 xmm1, DWORD PTR [ecx]
  0000e	8b 45 08	 mov	 eax, DWORD PTR ___$ReturnUdt$[ebp]
  00011	0f 5a c0	 cvtps2pd xmm0, xmm0
  00014	0f 5a c9	 cvtps2pd xmm1, xmm1
  00017	f2 0f 58 c1	 addsd	 xmm0, xmm1
  0001b	f3 0f 10 49 04	 movss	 xmm1, DWORD PTR [ecx+4]
  00020	66 0f 5a c0	 cvtpd2ps xmm0, xmm0
  00024	f3 0f 11 00	 movss	 DWORD PTR [eax], xmm0
  00028	f3 0f 10 42 04	 movss	 xmm0, DWORD PTR [edx+4]
  0002d	0f 5a c0	 cvtps2pd xmm0, xmm0
  00030	0f 5a c9	 cvtps2pd xmm1, xmm1
  00033	f2 0f 58 c1	 addsd	 xmm0, xmm1
  00037	f3 0f 10 49 08	 movss	 xmm1, DWORD PTR [ecx+8]
  0003c	66 0f 5a c0	 cvtpd2ps xmm0, xmm0
  00040	f3 0f 11 40 04	 movss	 DWORD PTR [eax+4], xmm0
  00045	f3 0f 10 42 08	 movss	 xmm0, DWORD PTR [edx+8]
  0004a	0f 5a c0	 cvtps2pd xmm0, xmm0
  0004d	0f 5a c9	 cvtps2pd xmm1, xmm1
  00050	f2 0f 58 c1	 addsd	 xmm0, xmm1
  00054	66 0f 5a c0	 cvtpd2ps xmm0, xmm0
  00058	f3 0f 11 40 08	 movss	 DWORD PTR [eax+8], xmm0

; 382  : }

  0005d	5d		 pop	 ebp
  0005e	c2 08 00	 ret	 8
??HD3DXVECTOR3@@QBE?AU0@ABU0@@Z ENDP			; D3DXVECTOR3::operator+
_TEXT	ENDS
PUBLIC	?_DECSTR@@YAXPADH@Z				; _DECSTR
; Function compile flags: /Ogsp
; File d:\lost saga for developer\youtube\tutorial\source\src\lsclient\stringprotect.h
;	COMDAT ?_DECSTR@@YAXPADH@Z
_TEXT	SEGMENT
_s$ = 8							; size = 4
_l$ = 12						; size = 4
?_DECSTR@@YAXPADH@Z PROC				; _DECSTR, COMDAT

; 40   : __forceinline void _DECSTR(char* s, int l){int i=0,l4=(l-1)/4,*p=(int*)s;s[l-1]=0;for(;i<l4;++i)*(p++)^=0xEAEBECED;for(i=l4*4;i<l-1;++i)s[i]^=0xED-i%4;}

  00000	55		 push	 ebp
  00001	8b ec		 mov	 ebp, esp
  00003	8b 4d 0c	 mov	 ecx, DWORD PTR _l$[ebp]
  00006	56		 push	 esi
  00007	8b 75 08	 mov	 esi, DWORD PTR _s$[ebp]
  0000a	57		 push	 edi
  0000b	8d 79 ff	 lea	 edi, DWORD PTR [ecx-1]
  0000e	8b c7		 mov	 eax, edi
  00010	99		 cdq
  00011	83 e2 03	 and	 edx, 3
  00014	03 c2		 add	 eax, edx
  00016	c1 f8 02	 sar	 eax, 2
  00019	8b d6		 mov	 edx, esi
  0001b	c6 44 0e ff 00	 mov	 BYTE PTR [esi+ecx-1], 0
  00020	85 c0		 test	 eax, eax
  00022	7e 0e		 jle	 SHORT $LN4@DECSTR
  00024	8b c8		 mov	 ecx, eax
$LL6@DECSTR:
  00026	81 32 ed ec eb
	ea		 xor	 DWORD PTR [edx], -353637139 ; eaebecedH
  0002c	83 c2 04	 add	 edx, 4
  0002f	49		 dec	 ecx
  00030	75 f4		 jne	 SHORT $LL6@DECSTR
$LN4@DECSTR:
  00032	c1 e0 02	 shl	 eax, 2
  00035	eb 17		 jmp	 SHORT $LN14@DECSTR
$LL3@DECSTR:
  00037	8b c8		 mov	 ecx, eax
  00039	81 e1 03 00 00
	80		 and	 ecx, -2147483645	; 80000003H
  0003f	79 05		 jns	 SHORT $LN13@DECSTR
  00041	49		 dec	 ecx
  00042	83 c9 fc	 or	 ecx, -4			; fffffffcH
  00045	41		 inc	 ecx
$LN13@DECSTR:
  00046	b2 ed		 mov	 dl, -19			; ffffffedH
  00048	2a d1		 sub	 dl, cl
  0004a	30 14 30	 xor	 BYTE PTR [eax+esi], dl
  0004d	40		 inc	 eax
$LN14@DECSTR:
  0004e	3b c7		 cmp	 eax, edi
  00050	7c e5		 jl	 SHORT $LL3@DECSTR
  00052	5f		 pop	 edi
  00053	5e		 pop	 esi
  00054	5d		 pop	 ebp
  00055	c3		 ret	 0
?_DECSTR@@YAXPADH@Z ENDP				; _DECSTR
_TEXT	ENDS
PUBLIC	?GetGroup@ioGameEntity@@QBEPAVioEntityGroup@@XZ	; ioGameEntity::GetGroup
; Function compile flags: /Ogsp
; File d:\lost saga for developer\youtube\tutorial\source\src\lsclient\iogameentity.h
;	COMDAT ?GetGroup@ioGameEntity@@QBEPAVioEntityGroup@@XZ
_TEXT	SEGMENT
?GetGroup@ioGameEntity@@QBEPAVioEntityGroup@@XZ PROC	; ioGameEntity::GetGroup, COMDAT
; _this$ = ecx

; 166  : 	inline ioEntityGroup* GetGroup() const { return m_pGroup; }

  00000	8b 41 04	 mov	 eax, DWORD PTR [ecx+4]
  00003	c3		 ret	 0
?GetGroup@ioGameEntity@@QBEPAVioEntityGroup@@XZ ENDP	; ioGameEntity::GetGroup
_TEXT	ENDS
PUBLIC	??0FireTime@@QAE@XZ				; FireTime::FireTime
EXTRN	__imp_??0ioHashString@@QAE@XZ:PROC
;	COMDAT xdata$x
; File d:\lost saga for developer\youtube\tutorial\source\src\lsclient\playentityhelpstruct.h
xdata$x	SEGMENT
__unwindtable$??0FireTime@@QAE@XZ DD 0ffffffffH
	DD	FLAT:__unwindfunclet$??0FireTime@@QAE@XZ$0
	DD	00H
	DD	FLAT:__unwindfunclet$??0FireTime@@QAE@XZ$1
__ehfuncinfo$??0FireTime@@QAE@XZ DD 019930522H
	DD	02H
	DD	FLAT:__unwindtable$??0FireTime@@QAE@XZ
	DD	2 DUP(00H)
	DD	2 DUP(00H)
	DD	00H
	DD	01H
; Function compile flags: /Ogsp
xdata$x	ENDS
;	COMDAT ??0FireTime@@QAE@XZ
_TEXT	SEGMENT
_this$ = -16						; size = 4
__$EHRec$ = -12						; size = 12
??0FireTime@@QAE@XZ PROC				; FireTime::FireTime, COMDAT
; _this$ = ecx

; 219  : 	FireTime()

  00000	6a 04		 push	 4
  00002	b8 00 00 00 00	 mov	 eax, __ehhandler$??0FireTime@@QAE@XZ
  00007	e8 00 00 00 00	 call	 __EH_prolog3
  0000c	8b f1		 mov	 esi, ecx
  0000e	89 75 f0	 mov	 DWORD PTR _this$[ebp], esi
  00011	8b 3d 00 00 00
	00		 mov	 edi, DWORD PTR __imp_??0ioHashString@@QAE@XZ
  00017	8d 4e 14	 lea	 ecx, DWORD PTR [esi+20]
  0001a	ff d7		 call	 edi
  0001c	33 db		 xor	 ebx, ebx
  0001e	8d 4e 30	 lea	 ecx, DWORD PTR [esi+48]
  00021	89 5d fc	 mov	 DWORD PTR __$EHRec$[ebp+8], ebx
  00024	ff d7		 call	 edi
  00026	8d 4e 44	 lea	 ecx, DWORD PTR [esi+68]
  00029	c6 45 fc 01	 mov	 BYTE PTR __$EHRec$[ebp+8], 1
  0002d	ff d7		 call	 edi

; 220  : 	{
; 221  : 		dwStart = 0;

  0002f	89 1e		 mov	 DWORD PTR [esi], ebx

; 222  : 		dwDuration = 0;

  00031	89 5e 04	 mov	 DWORD PTR [esi+4], ebx

; 223  : 
; 224  : 		iAttributeIdx = 0;

  00034	89 5e 08	 mov	 DWORD PTR [esi+8], ebx

; 225  : 		iResistanceIdx = 0;

  00037	89 5e 0c	 mov	 DWORD PTR [esi+12], ebx

; 226  : 
; 227  : 		bLoopWoundedAni = false;

  0003a	88 5e 10	 mov	 BYTE PTR [esi+16], bl

; 228  : 		dwWoundedAniDuration = 0;

  0003d	89 5e 24	 mov	 DWORD PTR [esi+36], ebx

; 229  : 
; 230  : 		dwWeaponIdx = 0;

  00040	89 5e 28	 mov	 DWORD PTR [esi+40], ebx

; 231  : 		eCollisionType = ACT_NONE;

  00043	c7 46 2c 06 00
	00 00		 mov	 DWORD PTR [esi+44], 6

; 232  : 		eFireTimeType = FTT_NORMAL_ATTACK;

  0004a	89 5e 40	 mov	 DWORD PTR [esi+64], ebx

; 233  : 
; 234  : 		m_iExtraValue = 0;

  0004d	89 5e 54	 mov	 DWORD PTR [esi+84], ebx

; 235  : 	}

  00050	8b c6		 mov	 eax, esi
  00052	e8 00 00 00 00	 call	 __EH_epilog3
  00057	c3		 ret	 0
_TEXT	ENDS
;	COMDAT text$x
text$x	SEGMENT
__unwindfunclet$??0FireTime@@QAE@XZ$0:
  00000	8b 4d f0	 mov	 ecx, DWORD PTR _this$[ebp]
  00003	83 c1 14	 add	 ecx, 20			; 00000014H
  00006	ff 25 00 00 00
	00		 jmp	 DWORD PTR __imp_??1ioHashString@@QAE@XZ
__unwindfunclet$??0FireTime@@QAE@XZ$1:
  0000c	8b 4d f0	 mov	 ecx, DWORD PTR _this$[ebp]
  0000f	83 c1 30	 add	 ecx, 48			; 00000030H
  00012	ff 25 00 00 00
	00		 jmp	 DWORD PTR __imp_??1ioHashString@@QAE@XZ
__ehhandler$??0FireTime@@QAE@XZ:
  00018	8b 54 24 08	 mov	 edx, DWORD PTR [esp+8]
  0001c	8d 42 0c	 lea	 eax, DWORD PTR [edx+12]
  0001f	8b 4a ec	 mov	 ecx, DWORD PTR [edx-20]
  00022	33 c8		 xor	 ecx, eax
  00024	e8 00 00 00 00	 call	 @__security_check_cookie@4
  00029	b8 00 00 00 00	 mov	 eax, OFFSET __ehfuncinfo$??0FireTime@@QAE@XZ
  0002e	e9 00 00 00 00	 jmp	 ___CxxFrameHandler3
text$x	ENDS
??0FireTime@@QAE@XZ ENDP				; FireTime::FireTime
; Function compile flags: /Ogsp
; File d:\lost saga for developer\youtube\tutorial\source\src\lsclient\ioskill.h
;	COMDAT ?GetDefenseSkillBreakeType@ioSkill@@UBE?AW4DefenseBreakType@@XZ
_TEXT	SEGMENT
?GetDefenseSkillBreakeType@ioSkill@@UBE?AW4DefenseBreakType@@XZ PROC ; ioSkill::GetDefenseSkillBreakeType, COMDAT
; _this$ = ecx

; 327  : 	virtual DefenseBreakType GetDefenseSkillBreakeType() const { return m_eDefenseSkillBreakType; }

  00000	8b 81 30 0e 00
	00		 mov	 eax, DWORD PTR [ecx+3632]
  00006	c3		 ret	 0
?GetDefenseSkillBreakeType@ioSkill@@UBE?AW4DefenseBreakType@@XZ ENDP ; ioSkill::GetDefenseSkillBreakeType
; Function compile flags: /Ogsp
_TEXT	ENDS
;	COMDAT ?GetSkillEndNextJumpAmt@ioSkill@@UBEMXZ
_TEXT	SEGMENT
?GetSkillEndNextJumpAmt@ioSkill@@UBEMXZ PROC		; ioSkill::GetSkillEndNextJumpAmt, COMDAT
; _this$ = ecx

; 335  : 	virtual float GetSkillEndNextJumpAmt() const { return m_fSkillEndNextJumpAmt; }

  00000	d9 81 4c 05 00
	00		 fld	 DWORD PTR [ecx+1356]
  00006	c3		 ret	 0
?GetSkillEndNextJumpAmt@ioSkill@@UBEMXZ ENDP		; ioSkill::GetSkillEndNextJumpAmt
; Function compile flags: /Ogsp
_TEXT	ENDS
;	COMDAT ?GetSkillEndNextLandRate@ioSkill@@UBEMXZ
_TEXT	SEGMENT
?GetSkillEndNextLandRate@ioSkill@@UBEMXZ PROC		; ioSkill::GetSkillEndNextLandRate, COMDAT
; _this$ = ecx

; 336  : 	virtual float GetSkillEndNextLandRate() const { return m_fSkillEndNextLandRate; }

  00000	d9 81 50 05 00
	00		 fld	 DWORD PTR [ecx+1360]
  00006	c3		 ret	 0
?GetSkillEndNextLandRate@ioSkill@@UBEMXZ ENDP		; ioSkill::GetSkillEndNextLandRate
; Function compile flags: /Ogsp
_TEXT	ENDS
;	COMDAT ?GetSkillEndNextJumpMustEnable@ioSkill@@UAE?AW4SkillEndJumpType@@XZ
_TEXT	SEGMENT
?GetSkillEndNextJumpMustEnable@ioSkill@@UAE?AW4SkillEndJumpType@@XZ PROC ; ioSkill::GetSkillEndNextJumpMustEnable, COMDAT
; _this$ = ecx

; 337  : 	virtual SkillEndJumpType GetSkillEndNextJumpMustEnable(){ return SEJT_DEFAULT; }

  00000	33 c0		 xor	 eax, eax
  00002	c3		 ret	 0
?GetSkillEndNextJumpMustEnable@ioSkill@@UAE?AW4SkillEndJumpType@@XZ ENDP ; ioSkill::GetSkillEndNextJumpMustEnable
; Function compile flags: /Ogsp
_TEXT	ENDS
;	COMDAT ?EnableChangeGrapplingTargetPos@ioSkill@@UBE_NXZ
_TEXT	SEGMENT
?EnableChangeGrapplingTargetPos@ioSkill@@UBE_NXZ PROC	; ioSkill::EnableChangeGrapplingTargetPos, COMDAT
; _this$ = ecx

; 355  : 	virtual bool EnableChangeGrapplingTargetPos() const { return m_bChangeGrapplingTargetPos; }

  00000	8a 81 40 09 00
	00		 mov	 al, BYTE PTR [ecx+2368]
  00006	c3		 ret	 0
?EnableChangeGrapplingTargetPos@ioSkill@@UBE_NXZ ENDP	; ioSkill::EnableChangeGrapplingTargetPos
; Function compile flags: /Ogsp
_TEXT	ENDS
;	COMDAT ?IsInvisibleBottomCircle@ioSkill@@UAE_NPAVioBaseChar@@@Z
_TEXT	SEGMENT
_pChar$ = 8						; size = 4
?IsInvisibleBottomCircle@ioSkill@@UAE_NPAVioBaseChar@@@Z PROC ; ioSkill::IsInvisibleBottomCircle, COMDAT
; _this$ = ecx

; 393  : 	virtual bool IsInvisibleBottomCircle( ioBaseChar *pChar ) { return false; }

  00000	32 c0		 xor	 al, al
  00002	c2 04 00	 ret	 4
?IsInvisibleBottomCircle@ioSkill@@UAE_NPAVioBaseChar@@@Z ENDP ; ioSkill::IsInvisibleBottomCircle
_TEXT	ENDS
PUBLIC	?GetOwnerItem@ioSkill@@QBEPAVioItem@@XZ		; ioSkill::GetOwnerItem
; Function compile flags: /Ogsp
;	COMDAT ?GetOwnerItem@ioSkill@@QBEPAVioItem@@XZ
_TEXT	SEGMENT
?GetOwnerItem@ioSkill@@QBEPAVioItem@@XZ PROC		; ioSkill::GetOwnerItem, COMDAT
; _this$ = ecx

; 397  : 	inline ioItem *GetOwnerItem() const { return m_pOwnerItem; }

  00000	8b 81 a4 02 00
	00		 mov	 eax, DWORD PTR [ecx+676]
  00006	c3		 ret	 0
?GetOwnerItem@ioSkill@@QBEPAVioItem@@XZ ENDP		; ioSkill::GetOwnerItem
_TEXT	ENDS
PUBLIC	?GetName@ioSkill@@QBEABVioHashString@@XZ	; ioSkill::GetName
; Function compile flags: /Ogsp
;	COMDAT ?GetName@ioSkill@@QBEABVioHashString@@XZ
_TEXT	SEGMENT
?GetName@ioSkill@@QBEABVioHashString@@XZ PROC		; ioSkill::GetName, COMDAT
; _this$ = ecx

; 414  : 	inline const ioHashString& GetName() const { return m_Name; }

  00000	8d 41 24	 lea	 eax, DWORD PTR [ecx+36]
  00003	c3		 ret	 0
?GetName@ioSkill@@QBEABVioHashString@@XZ ENDP		; ioSkill::GetName
; Function compile flags: /Ogsp
_TEXT	ENDS
;	COMDAT ?IsUseActiveCnt@ioSkill@@UBE_NXZ
_TEXT	SEGMENT
?IsUseActiveCnt@ioSkill@@UBE_NXZ PROC			; ioSkill::IsUseActiveCnt, COMDAT
; _this$ = ecx

; 544  : 	virtual bool IsUseActiveCnt() const { return false; }

  00000	32 c0		 xor	 al, al
  00002	c3		 ret	 0
?IsUseActiveCnt@ioSkill@@UBE_NXZ ENDP			; ioSkill::IsUseActiveCnt
; Function compile flags: /Ogsp
_TEXT	ENDS
;	COMDAT ?GetMaxActiveCnt@ioSkill@@UBEHPAVioBaseChar@@@Z
_TEXT	SEGMENT
_pChar$ = 8						; size = 4
?GetMaxActiveCnt@ioSkill@@UBEHPAVioBaseChar@@@Z PROC	; ioSkill::GetMaxActiveCnt, COMDAT
; _this$ = ecx

; 545  : 	virtual int GetMaxActiveCnt( ioBaseChar *pChar ) const { return 0; }

  00000	33 c0		 xor	 eax, eax
  00002	c2 04 00	 ret	 4
?GetMaxActiveCnt@ioSkill@@UBEHPAVioBaseChar@@@Z ENDP	; ioSkill::GetMaxActiveCnt
; Function compile flags: /Ogsp
_TEXT	ENDS
;	COMDAT ?GetCurActiveCnt@ioSkill@@UBEHPAVioBaseChar@@@Z
_TEXT	SEGMENT
_pChar$ = 8						; size = 4
?GetCurActiveCnt@ioSkill@@UBEHPAVioBaseChar@@@Z PROC	; ioSkill::GetCurActiveCnt, COMDAT
; _this$ = ecx

; 546  : 	virtual int GetCurActiveCnt( ioBaseChar *pChar ) const { return 0; }

  00000	33 c0		 xor	 eax, eax
  00002	c2 04 00	 ret	 4
?GetCurActiveCnt@ioSkill@@UBEHPAVioBaseChar@@@Z ENDP	; ioSkill::GetCurActiveCnt
_TEXT	ENDS
PUBLIC	?DecryptValueToPool@?$CEncrypt@_N@@QAEXPA_N@Z	; CEncrypt<bool>::DecryptValueToPool
EXTRN	?DecryptByte@ccddaabb@@QBEXPBDPADH@Z:PROC	; ccddaabb::DecryptByte
; Function compile flags: /Ogsp
; File d:\lost saga for developer\youtube\tutorial\source\src\lsclient\encryptvalue.h
;	COMDAT ?DecryptValueToPool@?$CEncrypt@_N@@QAEXPA_N@Z
_TEXT	SEGMENT
_value$ = 8						; size = 4
?DecryptValueToPool@?$CEncrypt@_N@@QAEXPA_N@Z PROC	; CEncrypt<bool>::DecryptValueToPool, COMDAT
; _this$ = ecx

; 219  : 	{

  00000	55		 push	 ebp
  00001	8b ec		 mov	 ebp, esp
  00003	56		 push	 esi

; 220  : 		m_RC5.DecryptByte( m_MemPool, m_TempMem, 4 );

  00004	8d 71 28	 lea	 esi, DWORD PTR [ecx+40]
  00007	6a 04		 push	 4
  00009	8d 41 1c	 lea	 eax, DWORD PTR [ecx+28]
  0000c	56		 push	 esi
  0000d	50		 push	 eax
  0000e	83 c1 0c	 add	 ecx, 12			; 0000000cH
  00011	e8 00 00 00 00	 call	 ?DecryptByte@ccddaabb@@QBEXPBDPADH@Z ; ccddaabb::DecryptByte

; 221  : 		*value = *((bool*)m_TempMem);

  00016	8a 06		 mov	 al, BYTE PTR [esi]
  00018	8b 4d 08	 mov	 ecx, DWORD PTR _value$[ebp]
  0001b	88 01		 mov	 BYTE PTR [ecx], al
  0001d	5e		 pop	 esi

; 222  : 	}

  0001e	5d		 pop	 ebp
  0001f	c2 04 00	 ret	 4
?DecryptValueToPool@?$CEncrypt@_N@@QAEXPA_N@Z ENDP	; CEncrypt<bool>::DecryptValueToPool
_TEXT	ENDS
PUBLIC	?DecryptValueToPool@?$CEncrypt@W4TeamType@@@@QAEXPAW4TeamType@@@Z ; CEncrypt<enum TeamType>::DecryptValueToPool
; Function compile flags: /Ogsp
;	COMDAT ?DecryptValueToPool@?$CEncrypt@W4TeamType@@@@QAEXPAW4TeamType@@@Z
_TEXT	SEGMENT
_value$ = 8						; size = 4
?DecryptValueToPool@?$CEncrypt@W4TeamType@@@@QAEXPAW4TeamType@@@Z PROC ; CEncrypt<enum TeamType>::DecryptValueToPool, COMDAT
; _this$ = ecx

; 2959 : 	{

  00000	55		 push	 ebp
  00001	8b ec		 mov	 ebp, esp
  00003	56		 push	 esi

; 2960 : 		m_RC5.DecryptByte( m_MemPool, m_TempMem, sizeof(TeamType) );

  00004	8d 71 28	 lea	 esi, DWORD PTR [ecx+40]
  00007	6a 04		 push	 4
  00009	8d 41 1c	 lea	 eax, DWORD PTR [ecx+28]
  0000c	56		 push	 esi
  0000d	50		 push	 eax
  0000e	83 c1 0c	 add	 ecx, 12			; 0000000cH
  00011	e8 00 00 00 00	 call	 ?DecryptByte@ccddaabb@@QBEXPBDPADH@Z ; ccddaabb::DecryptByte

; 2961 : 		*value = *((TeamType*)m_TempMem);

  00016	8b 06		 mov	 eax, DWORD PTR [esi]
  00018	8b 4d 08	 mov	 ecx, DWORD PTR _value$[ebp]
  0001b	89 01		 mov	 DWORD PTR [ecx], eax
  0001d	5e		 pop	 esi

; 2962 : 	}

  0001e	5d		 pop	 ebp
  0001f	c2 04 00	 ret	 4
?DecryptValueToPool@?$CEncrypt@W4TeamType@@@@QAEXPAW4TeamType@@@Z ENDP ; CEncrypt<enum TeamType>::DecryptValueToPool
_TEXT	ENDS
PUBLIC	??0ioCircleMove6Skill@@QAE@XZ			; ioCircleMove6Skill::ioCircleMove6Skill
EXTRN	??0ioNormalSkill@@QAE@XZ:PROC			; ioNormalSkill::ioNormalSkill
;	COMDAT xdata$x
; File c:\program files (x86)\microsoft directx sdk (june 2010)\include\d3dx9math.h
xdata$x	SEGMENT
__ehfuncinfo$??0ioCircleMove6Skill@@QAE@XZ DD 019930522H
	DD	07H
	DD	FLAT:__unwindtable$??0ioCircleMove6Skill@@QAE@XZ
	DD	2 DUP(00H)
	DD	2 DUP(00H)
	DD	00H
	DD	01H
__unwindtable$??0ioCircleMove6Skill@@QAE@XZ DD 0ffffffffH
	DD	FLAT:__unwindfunclet$??0ioCircleMove6Skill@@QAE@XZ$0
	DD	00H
	DD	FLAT:__unwindfunclet$??0ioCircleMove6Skill@@QAE@XZ$1
	DD	01H
	DD	FLAT:__unwindfunclet$??0ioCircleMove6Skill@@QAE@XZ$2
	DD	02H
	DD	FLAT:__unwindfunclet$??0ioCircleMove6Skill@@QAE@XZ$3
	DD	03H
	DD	FLAT:__unwindfunclet$??0ioCircleMove6Skill@@QAE@XZ$4
	DD	04H
	DD	FLAT:__unwindfunclet$??0ioCircleMove6Skill@@QAE@XZ$5
	DD	05H
	DD	FLAT:__unwindfunclet$??0ioCircleMove6Skill@@QAE@XZ$6
; Function compile flags: /Ogsp
; File d:\lost saga for developer\youtube\tutorial\source\src\lsclient\iocirclemove6skill.cpp
xdata$x	ENDS
;	COMDAT ??0ioCircleMove6Skill@@QAE@XZ
_TEXT	SEGMENT
_this$ = -16						; size = 4
__$EHRec$ = -12						; size = 12
??0ioCircleMove6Skill@@QAE@XZ PROC			; ioCircleMove6Skill::ioCircleMove6Skill, COMDAT
; _this$ = ecx

; 12   : {

  00000	6a 04		 push	 4
  00002	b8 00 00 00 00	 mov	 eax, __ehhandler$??0ioCircleMove6Skill@@QAE@XZ
  00007	e8 00 00 00 00	 call	 __EH_prolog3
  0000c	8b f1		 mov	 esi, ecx
  0000e	89 75 f0	 mov	 DWORD PTR _this$[ebp], esi
  00011	e8 00 00 00 00	 call	 ??0ioNormalSkill@@QAE@XZ ; ioNormalSkill::ioNormalSkill
  00016	8b 3d 00 00 00
	00		 mov	 edi, DWORD PTR __imp_??0ioHashString@@QAE@XZ
  0001c	33 db		 xor	 ebx, ebx
  0001e	8d 8e 68 0f 00
	00		 lea	 ecx, DWORD PTR [esi+3944]
  00024	89 5d fc	 mov	 DWORD PTR __$EHRec$[ebp+8], ebx
  00027	c7 06 00 00 00
	00		 mov	 DWORD PTR [esi], OFFSET ??_7ioCircleMove6Skill@@6B@
  0002d	ff d7		 call	 edi
  0002f	8d 8e 78 0f 00
	00		 lea	 ecx, DWORD PTR [esi+3960]
  00035	c6 45 fc 01	 mov	 BYTE PTR __$EHRec$[ebp+8], 1
  00039	ff d7		 call	 edi
  0003b	8d 8e 88 0f 00
	00		 lea	 ecx, DWORD PTR [esi+3976]
  00041	c6 45 fc 02	 mov	 BYTE PTR __$EHRec$[ebp+8], 2
  00045	ff d7		 call	 edi
  00047	8d 8e 98 0f 00
	00		 lea	 ecx, DWORD PTR [esi+3992]
  0004d	c6 45 fc 03	 mov	 BYTE PTR __$EHRec$[ebp+8], 3
  00051	ff d7		 call	 edi
  00053	8d 8e a8 0f 00
	00		 lea	 ecx, DWORD PTR [esi+4008]
  00059	c6 45 fc 04	 mov	 BYTE PTR __$EHRec$[ebp+8], 4
  0005d	ff d7		 call	 edi
  0005f	8d 8e d0 0f 00
	00		 lea	 ecx, DWORD PTR [esi+4048]
  00065	c6 45 fc 05	 mov	 BYTE PTR __$EHRec$[ebp+8], 5
  00069	ff d7		 call	 edi
  0006b	8d 8e e4 0f 00
	00		 lea	 ecx, DWORD PTR [esi+4068]
  00071	c6 45 fc 06	 mov	 BYTE PTR __$EHRec$[ebp+8], 6
  00075	ff d7		 call	 edi

; 13   : 	m_bSetHandMesh = false;
; 14   : 	m_bCreateWeapon = false;
; 15   : 	m_dwFireStartTime = 0;
; 16   : 	m_dwCheckLoopTime = 0;
; 17   : 	m_dwCurSkillProtectTime = 0;
; 18   : 	m_SkillState = SS_NONE;
; 19   : 	m_dwGuideEffectID = -1;

  00077	83 8e 18 10 00
	00 ff		 or	 DWORD PTR [esi+4120], -1
  0007e	88 9e 0a 0f 00
	00		 mov	 BYTE PTR [esi+3850], bl
  00084	88 9e 14 10 00
	00		 mov	 BYTE PTR [esi+4116], bl
  0008a	89 9e 10 10 00
	00		 mov	 DWORD PTR [esi+4112], ebx
  00090	89 9e 00 10 00
	00		 mov	 DWORD PTR [esi+4096], ebx
  00096	89 9e fc 0f 00
	00		 mov	 DWORD PTR [esi+4092], ebx
  0009c	89 9e f8 0f 00
	00		 mov	 DWORD PTR [esi+4088], ebx

; 20   : }

  000a2	8b c6		 mov	 eax, esi
  000a4	e8 00 00 00 00	 call	 __EH_epilog3
  000a9	c3		 ret	 0
_TEXT	ENDS
;	COMDAT text$x
text$x	SEGMENT
__unwindfunclet$??0ioCircleMove6Skill@@QAE@XZ$0:
  00000	8b 4d f0	 mov	 ecx, DWORD PTR _this$[ebp]
  00003	e9 00 00 00 00	 jmp	 ??1ioNormalSkill@@UAE@XZ ; ioNormalSkill::~ioNormalSkill
__unwindfunclet$??0ioCircleMove6Skill@@QAE@XZ$1:
  00008	8b 4d f0	 mov	 ecx, DWORD PTR _this$[ebp]
  0000b	81 c1 68 0f 00
	00		 add	 ecx, 3944		; 00000f68H
  00011	ff 25 00 00 00
	00		 jmp	 DWORD PTR __imp_??1ioHashString@@QAE@XZ
__unwindfunclet$??0ioCircleMove6Skill@@QAE@XZ$2:
  00017	8b 4d f0	 mov	 ecx, DWORD PTR _this$[ebp]
  0001a	81 c1 78 0f 00
	00		 add	 ecx, 3960		; 00000f78H
  00020	ff 25 00 00 00
	00		 jmp	 DWORD PTR __imp_??1ioHashString@@QAE@XZ
__unwindfunclet$??0ioCircleMove6Skill@@QAE@XZ$3:
  00026	8b 4d f0	 mov	 ecx, DWORD PTR _this$[ebp]
  00029	81 c1 88 0f 00
	00		 add	 ecx, 3976		; 00000f88H
  0002f	ff 25 00 00 00
	00		 jmp	 DWORD PTR __imp_??1ioHashString@@QAE@XZ
__unwindfunclet$??0ioCircleMove6Skill@@QAE@XZ$4:
  00035	8b 4d f0	 mov	 ecx, DWORD PTR _this$[ebp]
  00038	81 c1 98 0f 00
	00		 add	 ecx, 3992		; 00000f98H
  0003e	ff 25 00 00 00
	00		 jmp	 DWORD PTR __imp_??1ioHashString@@QAE@XZ
__unwindfunclet$??0ioCircleMove6Skill@@QAE@XZ$5:
  00044	8b 4d f0	 mov	 ecx, DWORD PTR _this$[ebp]
  00047	81 c1 a8 0f 00
	00		 add	 ecx, 4008		; 00000fa8H
  0004d	ff 25 00 00 00
	00		 jmp	 DWORD PTR __imp_??1ioHashString@@QAE@XZ
__unwindfunclet$??0ioCircleMove6Skill@@QAE@XZ$6:
  00053	8b 4d f0	 mov	 ecx, DWORD PTR _this$[ebp]
  00056	81 c1 d0 0f 00
	00		 add	 ecx, 4048		; 00000fd0H
  0005c	ff 25 00 00 00
	00		 jmp	 DWORD PTR __imp_??1ioHashString@@QAE@XZ
__ehhandler$??0ioCircleMove6Skill@@QAE@XZ:
  00062	8b 54 24 08	 mov	 edx, DWORD PTR [esp+8]
  00066	8d 42 0c	 lea	 eax, DWORD PTR [edx+12]
  00069	8b 4a ec	 mov	 ecx, DWORD PTR [edx-20]
  0006c	33 c8		 xor	 ecx, eax
  0006e	e8 00 00 00 00	 call	 @__security_check_cookie@4
  00073	b8 00 00 00 00	 mov	 eax, OFFSET __ehfuncinfo$??0ioCircleMove6Skill@@QAE@XZ
  00078	e9 00 00 00 00	 jmp	 ___CxxFrameHandler3
text$x	ENDS
??0ioCircleMove6Skill@@QAE@XZ ENDP			; ioCircleMove6Skill::ioCircleMove6Skill
EXTRN	??3@YAXPAX@Z:PROC				; operator delete
; Function compile flags: /Ogsp
;	COMDAT ??_GioCircleMove6Skill@@UAEPAXI@Z
_TEXT	SEGMENT
___flags$ = 8						; size = 4
??_GioCircleMove6Skill@@UAEPAXI@Z PROC			; ioCircleMove6Skill::`scalar deleting destructor', COMDAT
; _this$ = ecx
  00000	55		 push	 ebp
  00001	8b ec		 mov	 ebp, esp
  00003	56		 push	 esi
  00004	8b f1		 mov	 esi, ecx
  00006	e8 00 00 00 00	 call	 ??1ioCircleMove6Skill@@UAE@XZ ; ioCircleMove6Skill::~ioCircleMove6Skill
  0000b	f6 45 08 01	 test	 BYTE PTR ___flags$[ebp], 1
  0000f	74 07		 je	 SHORT $LN1@scalar
  00011	56		 push	 esi
  00012	e8 00 00 00 00	 call	 ??3@YAXPAX@Z		; operator delete
  00017	59		 pop	 ecx
$LN1@scalar:
  00018	8b c6		 mov	 eax, esi
  0001a	5e		 pop	 esi
  0001b	5d		 pop	 ebp
  0001c	c2 04 00	 ret	 4
??_GioCircleMove6Skill@@UAEPAXI@Z ENDP			; ioCircleMove6Skill::`scalar deleting destructor'
_TEXT	ENDS
PUBLIC	??0ioCircleMove6Skill@@QAE@ABV0@@Z		; ioCircleMove6Skill::ioCircleMove6Skill
EXTRN	__imp_??0ioHashString@@QAE@ABV0@@Z:PROC
EXTRN	??0ioNormalSkill@@QAE@ABV0@@Z:PROC		; ioNormalSkill::ioNormalSkill
;	COMDAT xdata$x
; File c:\program files (x86)\microsoft directx sdk (june 2010)\include\d3dx9math.h
xdata$x	SEGMENT
__ehfuncinfo$??0ioCircleMove6Skill@@QAE@ABV0@@Z DD 019930522H
	DD	07H
	DD	FLAT:__unwindtable$??0ioCircleMove6Skill@@QAE@ABV0@@Z
	DD	2 DUP(00H)
	DD	2 DUP(00H)
	DD	00H
	DD	01H
__unwindtable$??0ioCircleMove6Skill@@QAE@ABV0@@Z DD 0ffffffffH
	DD	FLAT:__unwindfunclet$??0ioCircleMove6Skill@@QAE@ABV0@@Z$0
	DD	00H
	DD	FLAT:__unwindfunclet$??0ioCircleMove6Skill@@QAE@ABV0@@Z$1
	DD	01H
	DD	FLAT:__unwindfunclet$??0ioCircleMove6Skill@@QAE@ABV0@@Z$2
	DD	02H
	DD	FLAT:__unwindfunclet$??0ioCircleMove6Skill@@QAE@ABV0@@Z$3
	DD	03H
	DD	FLAT:__unwindfunclet$??0ioCircleMove6Skill@@QAE@ABV0@@Z$4
	DD	04H
	DD	FLAT:__unwindfunclet$??0ioCircleMove6Skill@@QAE@ABV0@@Z$5
	DD	05H
	DD	FLAT:__unwindfunclet$??0ioCircleMove6Skill@@QAE@ABV0@@Z$6
; Function compile flags: /Ogsp
; File d:\lost saga for developer\youtube\tutorial\source\src\lsclient\iocirclemove6skill.cpp
xdata$x	ENDS
;	COMDAT ??0ioCircleMove6Skill@@QAE@ABV0@@Z
_TEXT	SEGMENT
_this$ = -16						; size = 4
__$EHRec$ = -12						; size = 12
_rhs$ = 8						; size = 4
??0ioCircleMove6Skill@@QAE@ABV0@@Z PROC			; ioCircleMove6Skill::ioCircleMove6Skill, COMDAT
; _this$ = ecx

; 41   : {	

  00000	6a 04		 push	 4
  00002	b8 00 00 00 00	 mov	 eax, __ehhandler$??0ioCircleMove6Skill@@QAE@ABV0@@Z
  00007	e8 00 00 00 00	 call	 __EH_prolog3
  0000c	8b d9		 mov	 ebx, ecx
  0000e	89 5d f0	 mov	 DWORD PTR _this$[ebp], ebx
  00011	8b 75 08	 mov	 esi, DWORD PTR _rhs$[ebp]
  00014	56		 push	 esi
  00015	e8 00 00 00 00	 call	 ??0ioNormalSkill@@QAE@ABV0@@Z ; ioNormalSkill::ioNormalSkill
  0001a	8b 3d 00 00 00
	00		 mov	 edi, DWORD PTR __imp_??0ioHashString@@QAE@ABV0@@Z
  00020	83 65 fc 00	 and	 DWORD PTR __$EHRec$[ebp+8], 0
  00024	c7 03 00 00 00
	00		 mov	 DWORD PTR [ebx], OFFSET ??_7ioCircleMove6Skill@@6B@
  0002a	d9 86 58 0f 00
	00		 fld	 DWORD PTR [esi+3928]
  00030	d9 9b 58 0f 00
	00		 fstp	 DWORD PTR [ebx+3928]
  00036	8d 86 68 0f 00
	00		 lea	 eax, DWORD PTR [esi+3944]
  0003c	d9 86 5c 0f 00
	00		 fld	 DWORD PTR [esi+3932]
  00042	50		 push	 eax
  00043	d9 9b 5c 0f 00
	00		 fstp	 DWORD PTR [ebx+3932]
  00049	8d 8b 68 0f 00
	00		 lea	 ecx, DWORD PTR [ebx+3944]
  0004f	d9 86 60 0f 00
	00		 fld	 DWORD PTR [esi+3936]
  00055	d9 9b 60 0f 00
	00		 fstp	 DWORD PTR [ebx+3936]
  0005b	d9 86 64 0f 00
	00		 fld	 DWORD PTR [esi+3940]
  00061	d9 9b 64 0f 00
	00		 fstp	 DWORD PTR [ebx+3940]
  00067	ff d7		 call	 edi
  00069	8d 86 78 0f 00
	00		 lea	 eax, DWORD PTR [esi+3960]
  0006f	50		 push	 eax
  00070	8d 8b 78 0f 00
	00		 lea	 ecx, DWORD PTR [ebx+3960]
  00076	c6 45 fc 01	 mov	 BYTE PTR __$EHRec$[ebp+8], 1
  0007a	ff d7		 call	 edi
  0007c	8d 86 88 0f 00
	00		 lea	 eax, DWORD PTR [esi+3976]
  00082	50		 push	 eax
  00083	8d 8b 88 0f 00
	00		 lea	 ecx, DWORD PTR [ebx+3976]
  00089	c6 45 fc 02	 mov	 BYTE PTR __$EHRec$[ebp+8], 2
  0008d	ff d7		 call	 edi
  0008f	8d 86 98 0f 00
	00		 lea	 eax, DWORD PTR [esi+3992]
  00095	50		 push	 eax
  00096	8d 8b 98 0f 00
	00		 lea	 ecx, DWORD PTR [ebx+3992]
  0009c	c6 45 fc 03	 mov	 BYTE PTR __$EHRec$[ebp+8], 3
  000a0	ff d7		 call	 edi
  000a2	8d 86 a8 0f 00
	00		 lea	 eax, DWORD PTR [esi+4008]
  000a8	50		 push	 eax
  000a9	8d 8b a8 0f 00
	00		 lea	 ecx, DWORD PTR [ebx+4008]
  000af	c6 45 fc 04	 mov	 BYTE PTR __$EHRec$[ebp+8], 4
  000b3	ff d7		 call	 edi
  000b5	81 c6 b8 0f 00
	00		 add	 esi, 4024		; 00000fb8H
  000bb	8d bb b8 0f 00
	00		 lea	 edi, DWORD PTR [ebx+4024]
  000c1	a5		 movsd
  000c2	a5		 movsd
  000c3	a5		 movsd
  000c4	8b 75 08	 mov	 esi, DWORD PTR _rhs$[ebp]
  000c7	8b 86 c4 0f 00
	00		 mov	 eax, DWORD PTR [esi+4036]
  000cd	8b 3d 00 00 00
	00		 mov	 edi, DWORD PTR __imp_??0ioHashString@@QAE@ABV0@@Z
  000d3	89 83 c4 0f 00
	00		 mov	 DWORD PTR [ebx+4036], eax
  000d9	8b 86 c8 0f 00
	00		 mov	 eax, DWORD PTR [esi+4040]
  000df	89 83 c8 0f 00
	00		 mov	 DWORD PTR [ebx+4040], eax
  000e5	8b 86 cc 0f 00
	00		 mov	 eax, DWORD PTR [esi+4044]
  000eb	89 83 cc 0f 00
	00		 mov	 DWORD PTR [ebx+4044], eax
  000f1	8d 86 d0 0f 00
	00		 lea	 eax, DWORD PTR [esi+4048]
  000f7	50		 push	 eax
  000f8	8d 8b d0 0f 00
	00		 lea	 ecx, DWORD PTR [ebx+4048]
  000fe	c6 45 fc 05	 mov	 BYTE PTR __$EHRec$[ebp+8], 5
  00102	ff d7		 call	 edi
  00104	8b 86 e0 0f 00
	00		 mov	 eax, DWORD PTR [esi+4064]
  0010a	89 83 e0 0f 00
	00		 mov	 DWORD PTR [ebx+4064], eax
  00110	8d 86 e4 0f 00
	00		 lea	 eax, DWORD PTR [esi+4068]
  00116	50		 push	 eax
  00117	8d 8b e4 0f 00
	00		 lea	 ecx, DWORD PTR [ebx+4068]
  0011d	c6 45 fc 06	 mov	 BYTE PTR __$EHRec$[ebp+8], 6
  00121	ff d7		 call	 edi
  00123	8a 86 f4 0f 00
	00		 mov	 al, BYTE PTR [esi+4084]
  00129	88 83 f4 0f 00
	00		 mov	 BYTE PTR [ebx+4084], al

; 42   : 	m_bSetHandMesh = false;
; 43   : 	m_bCreateWeapon = false;
; 44   : 	m_dwFireStartTime = 0;

  0012f	33 c0		 xor	 eax, eax

; 45   : 	m_dwCheckLoopTime = 0;
; 46   : 	m_dwCurSkillProtectTime = 0;
; 47   : 	m_SkillState = SS_NONE;
; 48   : 	m_dwGuideEffectID = -1;

  00131	83 8b 18 10 00
	00 ff		 or	 DWORD PTR [ebx+4120], -1
  00138	89 83 10 10 00
	00		 mov	 DWORD PTR [ebx+4112], eax
  0013e	89 83 00 10 00
	00		 mov	 DWORD PTR [ebx+4096], eax
  00144	89 83 fc 0f 00
	00		 mov	 DWORD PTR [ebx+4092], eax
  0014a	89 83 f8 0f 00
	00		 mov	 DWORD PTR [ebx+4088], eax
  00150	c6 83 0a 0f 00
	00 00		 mov	 BYTE PTR [ebx+3850], 0
  00157	c6 83 14 10 00
	00 00		 mov	 BYTE PTR [ebx+4116], 0

; 49   : }

  0015e	8b c3		 mov	 eax, ebx
  00160	e8 00 00 00 00	 call	 __EH_epilog3
  00165	c2 04 00	 ret	 4
_TEXT	ENDS
;	COMDAT text$x
text$x	SEGMENT
__unwindfunclet$??0ioCircleMove6Skill@@QAE@ABV0@@Z$0:
  00000	8b 4d f0	 mov	 ecx, DWORD PTR _this$[ebp]
  00003	e9 00 00 00 00	 jmp	 ??1ioNormalSkill@@UAE@XZ ; ioNormalSkill::~ioNormalSkill
__unwindfunclet$??0ioCircleMove6Skill@@QAE@ABV0@@Z$1:
  00008	8b 4d f0	 mov	 ecx, DWORD PTR _this$[ebp]
  0000b	81 c1 68 0f 00
	00		 add	 ecx, 3944		; 00000f68H
  00011	ff 25 00 00 00
	00		 jmp	 DWORD PTR __imp_??1ioHashString@@QAE@XZ
__unwindfunclet$??0ioCircleMove6Skill@@QAE@ABV0@@Z$2:
  00017	8b 4d f0	 mov	 ecx, DWORD PTR _this$[ebp]
  0001a	81 c1 78 0f 00
	00		 add	 ecx, 3960		; 00000f78H
  00020	ff 25 00 00 00
	00		 jmp	 DWORD PTR __imp_??1ioHashString@@QAE@XZ
__unwindfunclet$??0ioCircleMove6Skill@@QAE@ABV0@@Z$3:
  00026	8b 4d f0	 mov	 ecx, DWORD PTR _this$[ebp]
  00029	81 c1 88 0f 00
	00		 add	 ecx, 3976		; 00000f88H
  0002f	ff 25 00 00 00
	00		 jmp	 DWORD PTR __imp_??1ioHashString@@QAE@XZ
__unwindfunclet$??0ioCircleMove6Skill@@QAE@ABV0@@Z$4:
  00035	8b 4d f0	 mov	 ecx, DWORD PTR _this$[ebp]
  00038	81 c1 98 0f 00
	00		 add	 ecx, 3992		; 00000f98H
  0003e	ff 25 00 00 00
	00		 jmp	 DWORD PTR __imp_??1ioHashString@@QAE@XZ
__unwindfunclet$??0ioCircleMove6Skill@@QAE@ABV0@@Z$5:
  00044	8b 4d f0	 mov	 ecx, DWORD PTR _this$[ebp]
  00047	81 c1 a8 0f 00
	00		 add	 ecx, 4008		; 00000fa8H
  0004d	ff 25 00 00 00
	00		 jmp	 DWORD PTR __imp_??1ioHashString@@QAE@XZ
__unwindfunclet$??0ioCircleMove6Skill@@QAE@ABV0@@Z$6:
  00053	8b 4d f0	 mov	 ecx, DWORD PTR _this$[ebp]
  00056	81 c1 d0 0f 00
	00		 add	 ecx, 4048		; 00000fd0H
  0005c	ff 25 00 00 00
	00		 jmp	 DWORD PTR __imp_??1ioHashString@@QAE@XZ
__ehhandler$??0ioCircleMove6Skill@@QAE@ABV0@@Z:
  00062	8b 54 24 08	 mov	 edx, DWORD PTR [esp+8]
  00066	8d 42 0c	 lea	 eax, DWORD PTR [edx+12]
  00069	8b 4a ec	 mov	 ecx, DWORD PTR [edx-20]
  0006c	33 c8		 xor	 ecx, eax
  0006e	e8 00 00 00 00	 call	 @__security_check_cookie@4
  00073	b8 00 00 00 00	 mov	 eax, OFFSET __ehfuncinfo$??0ioCircleMove6Skill@@QAE@ABV0@@Z
  00078	e9 00 00 00 00	 jmp	 ___CxxFrameHandler3
text$x	ENDS
??0ioCircleMove6Skill@@QAE@ABV0@@Z ENDP			; ioCircleMove6Skill::ioCircleMove6Skill
EXTRN	??2@YAPAXI@Z:PROC				; operator new
;	COMDAT xdata$x
xdata$x	SEGMENT
__unwindtable$?Clone@ioCircleMove6Skill@@UAEPAVioSkill@@XZ DD 0ffffffffH
	DD	FLAT:__unwindfunclet$?Clone@ioCircleMove6Skill@@UAEPAVioSkill@@XZ$0
__ehfuncinfo$?Clone@ioCircleMove6Skill@@UAEPAVioSkill@@XZ DD 019930522H
	DD	01H
	DD	FLAT:__unwindtable$?Clone@ioCircleMove6Skill@@UAEPAVioSkill@@XZ
	DD	2 DUP(00H)
	DD	2 DUP(00H)
	DD	00H
	DD	01H
; Function compile flags: /Ogsp
xdata$x	ENDS
;	COMDAT ?Clone@ioCircleMove6Skill@@UAEPAVioSkill@@XZ
_TEXT	SEGMENT
$T534094 = -16						; size = 4
__$EHRec$ = -12						; size = 12
?Clone@ioCircleMove6Skill@@UAEPAVioSkill@@XZ PROC	; ioCircleMove6Skill::Clone, COMDAT
; _this$ = ecx

; 103  : {

  00000	6a 04		 push	 4
  00002	b8 00 00 00 00	 mov	 eax, __ehhandler$?Clone@ioCircleMove6Skill@@UAEPAVioSkill@@XZ
  00007	e8 00 00 00 00	 call	 __EH_prolog3
  0000c	8b f1		 mov	 esi, ecx

; 104  : 	return new ioCircleMove6Skill( *this );

  0000e	68 1c 10 00 00	 push	 4124			; 0000101cH
  00013	e8 00 00 00 00	 call	 ??2@YAPAXI@Z		; operator new
  00018	59		 pop	 ecx
  00019	8b c8		 mov	 ecx, eax
  0001b	89 4d f0	 mov	 DWORD PTR $T534094[ebp], ecx
  0001e	33 c0		 xor	 eax, eax
  00020	89 45 fc	 mov	 DWORD PTR __$EHRec$[ebp+8], eax
  00023	3b c8		 cmp	 ecx, eax
  00025	74 06		 je	 SHORT $LN3@Clone
  00027	56		 push	 esi
  00028	e8 00 00 00 00	 call	 ??0ioCircleMove6Skill@@QAE@ABV0@@Z ; ioCircleMove6Skill::ioCircleMove6Skill
$LN3@Clone:

; 105  : }

  0002d	e8 00 00 00 00	 call	 __EH_epilog3
  00032	c3		 ret	 0
_TEXT	ENDS
;	COMDAT text$x
text$x	SEGMENT
__unwindfunclet$?Clone@ioCircleMove6Skill@@UAEPAVioSkill@@XZ$0:
  00000	ff 75 f0	 push	 DWORD PTR $T534094[ebp]
  00003	e8 00 00 00 00	 call	 ??3@YAXPAX@Z		; operator delete
  00008	59		 pop	 ecx
  00009	c3		 ret	 0
__ehhandler$?Clone@ioCircleMove6Skill@@UAEPAVioSkill@@XZ:
  0000a	8b 54 24 08	 mov	 edx, DWORD PTR [esp+8]
  0000e	8d 42 0c	 lea	 eax, DWORD PTR [edx+12]
  00011	8b 4a ec	 mov	 ecx, DWORD PTR [edx-20]
  00014	33 c8		 xor	 ecx, eax
  00016	e8 00 00 00 00	 call	 @__security_check_cookie@4
  0001b	b8 00 00 00 00	 mov	 eax, OFFSET __ehfuncinfo$?Clone@ioCircleMove6Skill@@UAEPAVioSkill@@XZ
  00020	e9 00 00 00 00	 jmp	 ___CxxFrameHandler3
text$x	ENDS
?Clone@ioCircleMove6Skill@@UAEPAVioSkill@@XZ ENDP	; ioCircleMove6Skill::Clone
PUBLIC	_pChar$GSCopy$
PUBLIC	__$ArrayPad$
PUBLIC	?CreateWeapon@ioCircleMove6Skill@@IAEXPAVioBaseChar@@@Z ; ioCircleMove6Skill::CreateWeapon
EXTRN	??1SP2Packet@@UAE@XZ:PROC			; SP2Packet::~SP2Packet
EXTRN	?SendToAllPlayingUser@P2PNetwork@@YAXAAVSP2Packet@@PAVioBaseChar@@@Z:PROC ; P2PNetwork::SendToAllPlayingUser
EXTRN	??6SP2Packet@@QAEAAV0@K@Z:PROC			; SP2Packet::operator<<
EXTRN	??6SP2Packet@@QAEAAV0@H@Z:PROC			; SP2Packet::operator<<
EXTRN	??6SP2Packet@@QAEAAV0@ABVioHashString@@@Z:PROC	; SP2Packet::operator<<
EXTRN	??0SP2Packet@@QAE@K@Z:PROC			; SP2Packet::SP2Packet
EXTRN	?ExtendFireExplicit@ioBaseChar@@QAEPAVioWeapon@@ABUFireTime@@ABUD3DXVECTOR3@@1ABVioHashString@@@Z:PROC ; ioBaseChar::ExtendFireExplicit
EXTRN	__imp_?VEC3_ZERO@ioMath@@2UD3DXVECTOR3@@A:BYTE
EXTRN	__imp_??4ioHashString@@QAEAAV0@PBD@Z:PROC
EXTRN	?IncreaseWeaponIndexBase@ioBaseChar@@QAEKXZ:PROC ; ioBaseChar::IncreaseWeaponIndexBase
EXTRN	__chkstk:PROC
;	COMDAT xdata$x
; File d:\lost saga for developer\youtube\tutorial\source\src\lsclient\ioskill.h
xdata$x	SEGMENT
__unwindtable$?CreateWeapon@ioCircleMove6Skill@@IAEXPAVioBaseChar@@@Z DD 0ffffffffH
	DD	FLAT:__unwindfunclet$?CreateWeapon@ioCircleMove6Skill@@IAEXPAVioBaseChar@@@Z$0
	DD	00H
	DD	FLAT:__unwindfunclet$?CreateWeapon@ioCircleMove6Skill@@IAEXPAVioBaseChar@@@Z$1
	DD	00H
	DD	FLAT:__unwindfunclet$?CreateWeapon@ioCircleMove6Skill@@IAEXPAVioBaseChar@@@Z$2
__ehfuncinfo$?CreateWeapon@ioCircleMove6Skill@@IAEXPAVioBaseChar@@@Z DD 019930522H
	DD	03H
	DD	FLAT:__unwindtable$?CreateWeapon@ioCircleMove6Skill@@IAEXPAVioBaseChar@@@Z
	DD	2 DUP(00H)
	DD	2 DUP(00H)
	DD	00H
	DD	01H
; Function compile flags: /Ogsp
; File d:\lost saga for developer\youtube\tutorial\source\src\lsclient\iocirclemove6skill.cpp
xdata$x	ENDS
;	COMDAT ?CreateWeapon@ioCircleMove6Skill@@IAEXPAVioBaseChar@@@Z
_TEXT	SEGMENT
_kFireTime$ = -32944					; size = 88
$T534107 = -32856					; size = 16
_dwWeaponBase$ = -32840					; size = 4
_pChar$GSCopy$ = -32836					; size = 4
_kPacket$531135 = -32832				; size = 32792
_vDir$ = -40						; size = 12
_vPos$ = -28						; size = 12
__$ArrayPad$ = -16					; size = 4
__$EHRec$ = -12						; size = 12
_pChar$ = 8						; size = 4
?CreateWeapon@ioCircleMove6Skill@@IAEXPAVioBaseChar@@@Z PROC ; ioCircleMove6Skill::CreateWeapon, COMDAT
; _this$ = ecx

; 544  : {	

  00000	55		 push	 ebp
  00001	8b ec		 mov	 ebp, esp
  00003	6a ff		 push	 -1
  00005	68 00 00 00 00	 push	 __ehhandler$?CreateWeapon@ioCircleMove6Skill@@IAEXPAVioBaseChar@@@Z
  0000a	64 a1 00 00 00
	00		 mov	 eax, DWORD PTR fs:0
  00010	50		 push	 eax
  00011	b8 a4 80 00 00	 mov	 eax, 32932		; 000080a4H
  00016	e8 00 00 00 00	 call	 __chkstk
  0001b	a1 00 00 00 00	 mov	 eax, DWORD PTR ___security_cookie
  00020	33 c5		 xor	 eax, ebp
  00022	89 45 f0	 mov	 DWORD PTR __$ArrayPad$[ebp], eax
  00025	53		 push	 ebx
  00026	56		 push	 esi
  00027	57		 push	 edi
  00028	50		 push	 eax
  00029	8d 45 f4	 lea	 eax, DWORD PTR __$EHRec$[ebp]
  0002c	64 a3 00 00 00
	00		 mov	 DWORD PTR fs:0, eax
  00032	8b 7d 08	 mov	 edi, DWORD PTR _pChar$[ebp]
  00035	8b d9		 mov	 ebx, ecx

; 575  : 	{
; 576  : 		SP2Packet kPacket( CUPK_SKILL_EXTRA_INFO );

  00037	89 bd bc 7f ff
	ff		 mov	 DWORD PTR _pChar$GSCopy$[ebp], edi
  0003d	85 ff		 test	 edi, edi
  0003f	0f 84 9c 01 00
	00		 je	 $LN3@CreateWeap

; 545  : 	if ( !pChar || !pChar->IsNeedProcess() || m_bCreateWeapon )

  00045	8b 07		 mov	 eax, DWORD PTR [edi]
  00047	8b cf		 mov	 ecx, edi
  00049	ff 90 00 01 00
	00		 call	 DWORD PTR [eax+256]
  0004f	84 c0		 test	 al, al
  00051	0f 84 8a 01 00
	00		 je	 $LN3@CreateWeap
  00057	80 bb 14 10 00
	00 00		 cmp	 BYTE PTR [ebx+4116], 0
  0005e	0f 85 7d 01 00
	00		 jne	 $LN3@CreateWeap

; 546  : 		return;
; 547  : 
; 548  : 	DWORD dwCurTime = FRAMEGETTIME();

  00064	ff 15 00 00 00
	00		 call	 DWORD PTR __imp_?GetSingleton@ioFrameTimer@@SAAAV1@XZ
  0006a	8b c8		 mov	 ecx, eax
  0006c	ff 15 00 00 00
	00		 call	 DWORD PTR __imp_?GetLoopSec@ioFrameTimer@@QBEKXZ
  00072	8b f0		 mov	 esi, eax

; 549  : 	if ( m_dwFireStartTime > dwCurTime )

  00074	39 b3 10 10 00
	00		 cmp	 DWORD PTR [ebx+4112], esi
  0007a	0f 87 61 01 00
	00		 ja	 $LN3@CreateWeap

; 550  : 		return;
; 551  : 
; 552  : 	DWORD dwWeaponBase = pChar->IncreaseWeaponIndexBase();

  00080	8b cf		 mov	 ecx, edi
  00082	e8 00 00 00 00	 call	 ?IncreaseWeaponIndexBase@ioBaseChar@@QAEKXZ ; ioBaseChar::IncreaseWeaponIndexBase
  00087	8b f8		 mov	 edi, eax

; 553  : 
; 554  : 	//무기 생성
; 555  : 	FireTime kFireTime;

  00089	8d 8d 50 7f ff
	ff		 lea	 ecx, DWORD PTR _kFireTime$[ebp]
  0008f	89 bd b8 7f ff
	ff		 mov	 DWORD PTR _dwWeaponBase$[ebp], edi
  00095	e8 00 00 00 00	 call	 ??0FireTime@@QAE@XZ	; FireTime::FireTime

; 556  : 	kFireTime.dwStart = dwCurTime;
; 557  : 
; 558  : 	kFireTime.iAttributeIdx = m_nFireWeaponNum;

  0009a	8b 83 c8 0f 00
	00		 mov	 eax, DWORD PTR [ebx+4040]
  000a0	83 65 fc 00	 and	 DWORD PTR __$EHRec$[ebp+8], 0
  000a4	89 85 58 7f ff
	ff		 mov	 DWORD PTR _kFireTime$[ebp+8], eax

; 559  : 	kFireTime.iResistanceIdx = m_nFireWeaponResist;

  000aa	8b 83 cc 0f 00
	00		 mov	 eax, DWORD PTR [ebx+4044]

; 560  : 	kFireTime.szWoundedAni  = "";

  000b0	68 00 00 00 00	 push	 OFFSET ??_C@_00CNPNBAHC@?$AA@
  000b5	8d 8d 64 7f ff
	ff		 lea	 ecx, DWORD PTR _kFireTime$[ebp+20]
  000bb	89 b5 50 7f ff
	ff		 mov	 DWORD PTR _kFireTime$[ebp], esi
  000c1	89 85 5c 7f ff
	ff		 mov	 DWORD PTR _kFireTime$[ebp+12], eax
  000c7	ff 15 00 00 00
	00		 call	 DWORD PTR __imp_??4ioHashString@@QAEAAV0@PBD@Z

; 561  : 	kFireTime.dwWoundedAniDuration = 0;

  000cd	83 a5 74 7f ff
	ff 00		 and	 DWORD PTR _kFireTime$[ebp+36], 0

; 562  : 	kFireTime.bLoopWoundedAni = false;
; 563  : 
; 564  : 	kFireTime.dwWeaponIdx = dwWeaponBase;

  000d4	89 bd 78 7f ff
	ff		 mov	 DWORD PTR _kFireTime$[ebp+40], edi

; 565  : 	kFireTime.eFireTimeType = FTT_SKILL_ATTACK;
; 566  : 
; 567  : 	D3DXVECTOR3 vPos = m_vCirclePos;

  000da	8d b3 04 10 00
	00		 lea	 esi, DWORD PTR [ebx+4100]
  000e0	8d 7d e4	 lea	 edi, DWORD PTR _vPos$[ebp]
  000e3	a5		 movsd
  000e4	a5		 movsd
  000e5	a5		 movsd

; 568  : 	D3DXVECTOR3 vDir = ioMath::VEC3_ZERO;

  000e6	8b 35 00 00 00
	00		 mov	 esi, DWORD PTR __imp_?VEC3_ZERO@ioMath@@2UD3DXVECTOR3@@A
  000ec	c6 85 60 7f ff
	ff 00		 mov	 BYTE PTR _kFireTime$[ebp+16], 0
  000f3	c7 85 90 7f ff
	ff 04 00 00 00	 mov	 DWORD PTR _kFireTime$[ebp+64], 4
  000fd	8d 7d d8	 lea	 edi, DWORD PTR _vDir$[ebp]
  00100	a5		 movsd
  00101	a5		 movsd

; 569  : 	pChar->ExtendFireExplicit( kFireTime, vPos, vDir, "" );

  00102	68 00 00 00 00	 push	 OFFSET ??_C@_00CNPNBAHC@?$AA@
  00107	8d 8d a8 7f ff
	ff		 lea	 ecx, DWORD PTR $T534107[ebp]
  0010d	a5		 movsd
  0010e	ff 15 00 00 00
	00		 call	 DWORD PTR __imp_??0ioHashString@@QAE@PBD@Z
  00114	8b b5 bc 7f ff
	ff		 mov	 esi, DWORD PTR _pChar$GSCopy$[ebp]
  0011a	8d 85 a8 7f ff
	ff		 lea	 eax, DWORD PTR $T534107[ebp]
  00120	50		 push	 eax
  00121	8d 45 d8	 lea	 eax, DWORD PTR _vDir$[ebp]
  00124	50		 push	 eax
  00125	8d 45 e4	 lea	 eax, DWORD PTR _vPos$[ebp]
  00128	50		 push	 eax
  00129	8d 85 50 7f ff
	ff		 lea	 eax, DWORD PTR _kFireTime$[ebp]
  0012f	50		 push	 eax
  00130	8b ce		 mov	 ecx, esi
  00132	c6 45 fc 01	 mov	 BYTE PTR __$EHRec$[ebp+8], 1
  00136	e8 00 00 00 00	 call	 ?ExtendFireExplicit@ioBaseChar@@QAEPAVioWeapon@@ABUFireTime@@ABUD3DXVECTOR3@@1ABVioHashString@@@Z ; ioBaseChar::ExtendFireExplicit
  0013b	8d 8d a8 7f ff
	ff		 lea	 ecx, DWORD PTR $T534107[ebp]
  00141	c6 45 fc 00	 mov	 BYTE PTR __$EHRec$[ebp+8], 0
  00145	ff 15 00 00 00
	00		 call	 DWORD PTR __imp_??1ioHashString@@QAE@XZ

; 570  : 
; 571  : 	m_bCreateWeapon = true;

  0014b	c6 83 14 10 00
	00 01		 mov	 BYTE PTR [ebx+4116], 1

; 572  : 
; 573  : 	//패킷 전송
; 574  : 	if( pChar->IsNeedSendNetwork() )

  00152	8b 06		 mov	 eax, DWORD PTR [esi]
  00154	8b ce		 mov	 ecx, esi
  00156	ff 90 04 01 00
	00		 call	 DWORD PTR [eax+260]
  0015c	84 c0		 test	 al, al
  0015e	74 72		 je	 SHORT $LN1@CreateWeap

; 575  : 	{
; 576  : 		SP2Packet kPacket( CUPK_SKILL_EXTRA_INFO );

  00160	68 39 41 00 00	 push	 16697			; 00004139H
  00165	8d 8d c0 7f ff
	ff		 lea	 ecx, DWORD PTR _kPacket$531135[ebp]
  0016b	e8 00 00 00 00	 call	 ??0SP2Packet@@QAE@K@Z	; SP2Packet::SP2Packet

; 577  : 		kPacket << pChar->GetCharName();

  00170	81 c6 d4 02 00
	00		 add	 esi, 724		; 000002d4H
  00176	56		 push	 esi
  00177	8d 8d c0 7f ff
	ff		 lea	 ecx, DWORD PTR _kPacket$531135[ebp]
  0017d	c6 45 fc 02	 mov	 BYTE PTR __$EHRec$[ebp+8], 2
  00181	e8 00 00 00 00	 call	 ??6SP2Packet@@QAEAAV0@ABVioHashString@@@Z ; SP2Packet::operator<<

; 578  : 		kPacket << GetName();

  00186	83 c3 24	 add	 ebx, 36			; 00000024H
  00189	53		 push	 ebx
  0018a	8d 8d c0 7f ff
	ff		 lea	 ecx, DWORD PTR _kPacket$531135[ebp]
  00190	e8 00 00 00 00	 call	 ??6SP2Packet@@QAEAAV0@ABVioHashString@@@Z ; SP2Packet::operator<<

; 579  : 		kPacket << SS_CREATE_WEAPON;

  00195	6a 05		 push	 5
  00197	8d 8d c0 7f ff
	ff		 lea	 ecx, DWORD PTR _kPacket$531135[ebp]
  0019d	e8 00 00 00 00	 call	 ??6SP2Packet@@QAEAAV0@H@Z ; SP2Packet::operator<<

; 580  : 		kPacket << dwWeaponBase;

  001a2	ff b5 b8 7f ff
	ff		 push	 DWORD PTR _dwWeaponBase$[ebp]
  001a8	8d 8d c0 7f ff
	ff		 lea	 ecx, DWORD PTR _kPacket$531135[ebp]
  001ae	e8 00 00 00 00	 call	 ??6SP2Packet@@QAEAAV0@K@Z ; SP2Packet::operator<<

; 581  : 		P2PNetwork::SendToAllPlayingUser( kPacket );

  001b3	8d 85 c0 7f ff
	ff		 lea	 eax, DWORD PTR _kPacket$531135[ebp]
  001b9	6a 00		 push	 0
  001bb	50		 push	 eax
  001bc	e8 00 00 00 00	 call	 ?SendToAllPlayingUser@P2PNetwork@@YAXAAVSP2Packet@@PAVioBaseChar@@@Z ; P2PNetwork::SendToAllPlayingUser
  001c1	59		 pop	 ecx
  001c2	59		 pop	 ecx

; 582  : 	}

  001c3	8d 8d c0 7f ff
	ff		 lea	 ecx, DWORD PTR _kPacket$531135[ebp]
  001c9	c6 45 fc 00	 mov	 BYTE PTR __$EHRec$[ebp+8], 0
  001cd	e8 00 00 00 00	 call	 ??1SP2Packet@@UAE@XZ	; SP2Packet::~SP2Packet
$LN1@CreateWeap:

; 583  : }

  001d2	83 4d fc ff	 or	 DWORD PTR __$EHRec$[ebp+8], -1
  001d6	8d 8d 50 7f ff
	ff		 lea	 ecx, DWORD PTR _kFireTime$[ebp]
  001dc	e8 00 00 00 00	 call	 ??1FireTime@@QAE@XZ
$LN3@CreateWeap:
  001e1	8b 4d f4	 mov	 ecx, DWORD PTR __$EHRec$[ebp]
  001e4	64 89 0d 00 00
	00 00		 mov	 DWORD PTR fs:0, ecx
  001eb	59		 pop	 ecx
  001ec	5f		 pop	 edi
  001ed	5e		 pop	 esi
  001ee	5b		 pop	 ebx
  001ef	8b 4d f0	 mov	 ecx, DWORD PTR __$ArrayPad$[ebp]
  001f2	33 cd		 xor	 ecx, ebp
  001f4	e8 00 00 00 00	 call	 @__security_check_cookie@4
  001f9	c9		 leave
  001fa	c2 04 00	 ret	 4
_TEXT	ENDS
;	COMDAT text$x
text$x	SEGMENT
__unwindfunclet$?CreateWeapon@ioCircleMove6Skill@@IAEXPAVioBaseChar@@@Z$0:
  00000	8d 8d 50 7f ff
	ff		 lea	 ecx, DWORD PTR _kFireTime$[ebp]
  00006	e9 00 00 00 00	 jmp	 ??1FireTime@@QAE@XZ
__unwindfunclet$?CreateWeapon@ioCircleMove6Skill@@IAEXPAVioBaseChar@@@Z$1:
  0000b	8d 8d a8 7f ff
	ff		 lea	 ecx, DWORD PTR $T534107[ebp]
  00011	ff 25 00 00 00
	00		 jmp	 DWORD PTR __imp_??1ioHashString@@QAE@XZ
__unwindfunclet$?CreateWeapon@ioCircleMove6Skill@@IAEXPAVioBaseChar@@@Z$2:
  00017	8d 8d c0 7f ff
	ff		 lea	 ecx, DWORD PTR _kPacket$531135[ebp]
  0001d	e9 00 00 00 00	 jmp	 ??1SP2Packet@@UAE@XZ	; SP2Packet::~SP2Packet
__ehhandler$?CreateWeapon@ioCircleMove6Skill@@IAEXPAVioBaseChar@@@Z:
  00022	8b 54 24 08	 mov	 edx, DWORD PTR [esp+8]
  00026	8d 42 0c	 lea	 eax, DWORD PTR [edx+12]
  00029	8b 8a 4c 7f ff
	ff		 mov	 ecx, DWORD PTR [edx-32948]
  0002f	33 c8		 xor	 ecx, eax
  00031	e8 00 00 00 00	 call	 @__security_check_cookie@4
  00036	8b 4a fc	 mov	 ecx, DWORD PTR [edx-4]
  00039	33 c8		 xor	 ecx, eax
  0003b	e8 00 00 00 00	 call	 @__security_check_cookie@4
  00040	b8 00 00 00 00	 mov	 eax, OFFSET __ehfuncinfo$?CreateWeapon@ioCircleMove6Skill@@IAEXPAVioBaseChar@@@Z
  00045	e9 00 00 00 00	 jmp	 ___CxxFrameHandler3
text$x	ENDS
?CreateWeapon@ioCircleMove6Skill@@IAEXPAVioBaseChar@@@Z ENDP ; ioCircleMove6Skill::CreateWeapon
PUBLIC	__$ArrayPad$
PUBLIC	?SetEndState@ioCircleMove6Skill@@IAEXPAVioBaseChar@@@Z ; ioCircleMove6Skill::SetEndState
;	COMDAT xdata$x
; File d:\lost saga for developer\youtube\tutorial\source\src\lsclient\ioskill.h
xdata$x	SEGMENT
__unwindtable$?SetEndState@ioCircleMove6Skill@@IAEXPAVioBaseChar@@@Z DD 0ffffffffH
	DD	FLAT:__unwindfunclet$?SetEndState@ioCircleMove6Skill@@IAEXPAVioBaseChar@@@Z$0
__ehfuncinfo$?SetEndState@ioCircleMove6Skill@@IAEXPAVioBaseChar@@@Z DD 019930522H
	DD	01H
	DD	FLAT:__unwindtable$?SetEndState@ioCircleMove6Skill@@IAEXPAVioBaseChar@@@Z
	DD	2 DUP(00H)
	DD	2 DUP(00H)
	DD	00H
	DD	01H
; Function compile flags: /Ogsp
; File d:\lost saga for developer\youtube\tutorial\source\src\lsclient\iocirclemove6skill.cpp
xdata$x	ENDS
;	COMDAT ?SetEndState@ioCircleMove6Skill@@IAEXPAVioBaseChar@@@Z
_TEXT	SEGMENT
_kPacket$531143 = -32808				; size = 32792
__$ArrayPad$ = -16					; size = 4
__$EHRec$ = -12						; size = 12
_pChar$ = 8						; size = 4
?SetEndState@ioCircleMove6Skill@@IAEXPAVioBaseChar@@@Z PROC ; ioCircleMove6Skill::SetEndState, COMDAT
; _this$ = ecx

; 587  : {

  00000	55		 push	 ebp
  00001	8b ec		 mov	 ebp, esp
  00003	6a ff		 push	 -1
  00005	68 00 00 00 00	 push	 __ehhandler$?SetEndState@ioCircleMove6Skill@@IAEXPAVioBaseChar@@@Z
  0000a	64 a1 00 00 00
	00		 mov	 eax, DWORD PTR fs:0
  00010	50		 push	 eax
  00011	b8 1c 80 00 00	 mov	 eax, 32796		; 0000801cH
  00016	e8 00 00 00 00	 call	 __chkstk
  0001b	a1 00 00 00 00	 mov	 eax, DWORD PTR ___security_cookie
  00020	33 c5		 xor	 eax, ebp
  00022	89 45 f0	 mov	 DWORD PTR __$ArrayPad$[ebp], eax
  00025	56		 push	 esi
  00026	57		 push	 edi
  00027	50		 push	 eax
  00028	8d 45 f4	 lea	 eax, DWORD PTR __$EHRec$[ebp]
  0002b	64 a3 00 00 00
	00		 mov	 DWORD PTR fs:0, eax
  00031	8b 75 08	 mov	 esi, DWORD PTR _pChar$[ebp]
  00034	8b f9		 mov	 edi, ecx

; 588  : 	if ( !pChar || !pChar->IsNeedProcess() )

  00036	85 f6		 test	 esi, esi
  00038	0f 84 87 00 00
	00		 je	 $LN2@SetEndStat
  0003e	8b 06		 mov	 eax, DWORD PTR [esi]
  00040	8b ce		 mov	 ecx, esi
  00042	ff 90 00 01 00
	00		 call	 DWORD PTR [eax+256]
  00048	84 c0		 test	 al, al
  0004a	74 79		 je	 SHORT $LN2@SetEndStat

; 589  : 		return;
; 590  : 
; 591  : 	m_SkillState = SS_END;

  0004c	c7 87 f8 0f 00
	00 03 00 00 00	 mov	 DWORD PTR [edi+4088], 3

; 592  : 	
; 593  : 	//패킷 전송
; 594  : 	if( pChar->IsNeedSendNetwork() )

  00056	8b 06		 mov	 eax, DWORD PTR [esi]
  00058	8b ce		 mov	 ecx, esi
  0005a	ff 90 04 01 00
	00		 call	 DWORD PTR [eax+260]
  00060	84 c0		 test	 al, al
  00062	74 61		 je	 SHORT $LN2@SetEndStat

; 595  : 	{
; 596  : 		SP2Packet kPacket( CUPK_SKILL_EXTRA_INFO );

  00064	68 39 41 00 00	 push	 16697			; 00004139H
  00069	8d 8d d8 7f ff
	ff		 lea	 ecx, DWORD PTR _kPacket$531143[ebp]
  0006f	e8 00 00 00 00	 call	 ??0SP2Packet@@QAE@K@Z	; SP2Packet::SP2Packet
  00074	83 65 fc 00	 and	 DWORD PTR __$EHRec$[ebp+8], 0

; 597  : 		kPacket << pChar->GetCharName();

  00078	81 c6 d4 02 00
	00		 add	 esi, 724		; 000002d4H
  0007e	56		 push	 esi
  0007f	8d 8d d8 7f ff
	ff		 lea	 ecx, DWORD PTR _kPacket$531143[ebp]
  00085	e8 00 00 00 00	 call	 ??6SP2Packet@@QAEAAV0@ABVioHashString@@@Z ; SP2Packet::operator<<

; 598  : 		kPacket << GetName();

  0008a	83 c7 24	 add	 edi, 36			; 00000024H
  0008d	57		 push	 edi
  0008e	8d 8d d8 7f ff
	ff		 lea	 ecx, DWORD PTR _kPacket$531143[ebp]
  00094	e8 00 00 00 00	 call	 ??6SP2Packet@@QAEAAV0@ABVioHashString@@@Z ; SP2Packet::operator<<

; 599  : 		kPacket << SS_END;

  00099	6a 03		 push	 3
  0009b	8d 8d d8 7f ff
	ff		 lea	 ecx, DWORD PTR _kPacket$531143[ebp]
  000a1	e8 00 00 00 00	 call	 ??6SP2Packet@@QAEAAV0@H@Z ; SP2Packet::operator<<

; 600  : 		P2PNetwork::SendToAllPlayingUser( kPacket );

  000a6	8d 85 d8 7f ff
	ff		 lea	 eax, DWORD PTR _kPacket$531143[ebp]
  000ac	6a 00		 push	 0
  000ae	50		 push	 eax
  000af	e8 00 00 00 00	 call	 ?SendToAllPlayingUser@P2PNetwork@@YAXAAVSP2Packet@@PAVioBaseChar@@@Z ; P2PNetwork::SendToAllPlayingUser

; 601  : 	}

  000b4	83 4d fc ff	 or	 DWORD PTR __$EHRec$[ebp+8], -1
  000b8	59		 pop	 ecx
  000b9	59		 pop	 ecx
  000ba	8d 8d d8 7f ff
	ff		 lea	 ecx, DWORD PTR _kPacket$531143[ebp]
  000c0	e8 00 00 00 00	 call	 ??1SP2Packet@@UAE@XZ	; SP2Packet::~SP2Packet
$LN2@SetEndStat:

; 602  : }

  000c5	8b 4d f4	 mov	 ecx, DWORD PTR __$EHRec$[ebp]
  000c8	64 89 0d 00 00
	00 00		 mov	 DWORD PTR fs:0, ecx
  000cf	59		 pop	 ecx
  000d0	5f		 pop	 edi
  000d1	5e		 pop	 esi
  000d2	8b 4d f0	 mov	 ecx, DWORD PTR __$ArrayPad$[ebp]
  000d5	33 cd		 xor	 ecx, ebp
  000d7	e8 00 00 00 00	 call	 @__security_check_cookie@4
  000dc	c9		 leave
  000dd	c2 04 00	 ret	 4
_TEXT	ENDS
;	COMDAT text$x
text$x	SEGMENT
__unwindfunclet$?SetEndState@ioCircleMove6Skill@@IAEXPAVioBaseChar@@@Z$0:
  00000	8d 8d d8 7f ff
	ff		 lea	 ecx, DWORD PTR _kPacket$531143[ebp]
  00006	e9 00 00 00 00	 jmp	 ??1SP2Packet@@UAE@XZ	; SP2Packet::~SP2Packet
__ehhandler$?SetEndState@ioCircleMove6Skill@@IAEXPAVioBaseChar@@@Z:
  0000b	8b 54 24 08	 mov	 edx, DWORD PTR [esp+8]
  0000f	8d 42 0c	 lea	 eax, DWORD PTR [edx+12]
  00012	8b 8a d8 7f ff
	ff		 mov	 ecx, DWORD PTR [edx-32808]
  00018	33 c8		 xor	 ecx, eax
  0001a	e8 00 00 00 00	 call	 @__security_check_cookie@4
  0001f	8b 4a fc	 mov	 ecx, DWORD PTR [edx-4]
  00022	33 c8		 xor	 ecx, eax
  00024	e8 00 00 00 00	 call	 @__security_check_cookie@4
  00029	b8 00 00 00 00	 mov	 eax, OFFSET __ehfuncinfo$?SetEndState@ioCircleMove6Skill@@IAEXPAVioBaseChar@@@Z
  0002e	e9 00 00 00 00	 jmp	 ___CxxFrameHandler3
text$x	ENDS
?SetEndState@ioCircleMove6Skill@@IAEXPAVioBaseChar@@@Z ENDP ; ioCircleMove6Skill::SetEndState
PUBLIC	__$ArrayPad$
PUBLIC	??$LoadInt_e@$0BD@@ioINILoader@@QAEHAAY0BD@$$CBDH@Z ; ioINILoader::LoadInt_e<19>
EXTRN	__imp_?LoadInt@ioINILoader@@QAEHPBDH@Z:PROC
; Function compile flags: /Ogsp
; File d:\lost saga for developer\youtube\tutorial\source\src\io3dengine\ioiniloader.h
;	COMDAT ??$LoadInt_e@$0BD@@ioINILoader@@QAEHAAY0BD@$$CBDH@Z
_TEXT	SEGMENT
__k$ = -28						; size = 19
__$ArrayPad$ = -4					; size = 4
_k$ = 8							; size = 4
_i$ = 12						; size = 4
??$LoadInt_e@$0BD@@ioINILoader@@QAEHAAY0BD@$$CBDH@Z PROC ; ioINILoader::LoadInt_e<19>, COMDAT
; _this$ = ecx

; 118  : 	{

  00000	55		 push	 ebp
  00001	8b ec		 mov	 ebp, esp
  00003	83 ec 1c	 sub	 esp, 28			; 0000001cH
  00006	a1 00 00 00 00	 mov	 eax, DWORD PTR ___security_cookie
  0000b	33 c5		 xor	 eax, ebp
  0000d	89 45 fc	 mov	 DWORD PTR __$ArrayPad$[ebp], eax
  00010	8b 45 08	 mov	 eax, DWORD PTR _k$[ebp]

; 119  : 		_ENCSTR(k, _k);

  00013	8a 10		 mov	 dl, BYTE PTR [eax]
  00015	56		 push	 esi
  00016	8b f1		 mov	 esi, ecx
  00018	84 d2		 test	 dl, dl
  0001a	0f 84 cf 01 00
	00		 je	 $LN96@LoadInt_e
  00020	80 f2 ed	 xor	 dl, -19			; ffffffedH
  00023	88 55 e4	 mov	 BYTE PTR __k$[ebp], dl
  00026	8a 50 01	 mov	 dl, BYTE PTR [eax+1]
  00029	84 d2		 test	 dl, dl
  0002b	0f 84 b8 01 00
	00		 je	 $LN95@LoadInt_e
  00031	b1 ec		 mov	 cl, -20			; ffffffecH
  00033	32 d1		 xor	 dl, cl
  00035	88 55 e5	 mov	 BYTE PTR __k$[ebp+1], dl
  00038	8a 50 02	 mov	 dl, BYTE PTR [eax+2]
  0003b	84 d2		 test	 dl, dl
  0003d	0f 84 a0 01 00
	00		 je	 $LN94@LoadInt_e
  00043	80 f2 eb	 xor	 dl, -21			; ffffffebH
  00046	88 55 e6	 mov	 BYTE PTR __k$[ebp+2], dl
  00049	8a 50 03	 mov	 dl, BYTE PTR [eax+3]
  0004c	84 d2		 test	 dl, dl
  0004e	0f 84 89 01 00
	00		 je	 $LN93@LoadInt_e
  00054	80 f2 ea	 xor	 dl, -22			; ffffffeaH
  00057	88 55 e7	 mov	 BYTE PTR __k$[ebp+3], dl
  0005a	8a 50 04	 mov	 dl, BYTE PTR [eax+4]
  0005d	84 d2		 test	 dl, dl
  0005f	0f 84 72 01 00
	00		 je	 $LN92@LoadInt_e
  00065	80 f2 ed	 xor	 dl, -19			; ffffffedH
  00068	88 55 e8	 mov	 BYTE PTR __k$[ebp+4], dl
  0006b	8a 50 05	 mov	 dl, BYTE PTR [eax+5]
  0006e	84 d2		 test	 dl, dl
  00070	0f 84 5c 01 00
	00		 je	 $LN91@LoadInt_e
  00076	32 d1		 xor	 dl, cl
  00078	88 55 e9	 mov	 BYTE PTR __k$[ebp+5], dl
  0007b	8a 50 06	 mov	 dl, BYTE PTR [eax+6]
  0007e	84 d2		 test	 dl, dl
  00080	0f 84 46 01 00
	00		 je	 $LN90@LoadInt_e
  00086	80 f2 eb	 xor	 dl, -21			; ffffffebH
  00089	88 55 ea	 mov	 BYTE PTR __k$[ebp+6], dl
  0008c	8a 50 07	 mov	 dl, BYTE PTR [eax+7]
  0008f	84 d2		 test	 dl, dl
  00091	0f 84 2f 01 00
	00		 je	 $LN89@LoadInt_e
  00097	80 f2 ea	 xor	 dl, -22			; ffffffeaH
  0009a	88 55 eb	 mov	 BYTE PTR __k$[ebp+7], dl
  0009d	8a 50 08	 mov	 dl, BYTE PTR [eax+8]
  000a0	84 d2		 test	 dl, dl
  000a2	0f 84 18 01 00
	00		 je	 $LN88@LoadInt_e
  000a8	80 f2 ed	 xor	 dl, -19			; ffffffedH
  000ab	88 55 ec	 mov	 BYTE PTR __k$[ebp+8], dl
  000ae	8a 50 09	 mov	 dl, BYTE PTR [eax+9]
  000b1	84 d2		 test	 dl, dl
  000b3	0f 84 02 01 00
	00		 je	 $LN87@LoadInt_e
  000b9	32 d1		 xor	 dl, cl
  000bb	88 55 ed	 mov	 BYTE PTR __k$[ebp+9], dl
  000be	8a 50 0a	 mov	 dl, BYTE PTR [eax+10]
  000c1	84 d2		 test	 dl, dl
  000c3	0f 84 ec 00 00
	00		 je	 $LN86@LoadInt_e
  000c9	80 f2 eb	 xor	 dl, -21			; ffffffebH
  000cc	88 55 ee	 mov	 BYTE PTR __k$[ebp+10], dl
  000cf	8a 50 0b	 mov	 dl, BYTE PTR [eax+11]
  000d2	84 d2		 test	 dl, dl
  000d4	0f 84 d5 00 00
	00		 je	 $LN85@LoadInt_e
  000da	80 f2 ea	 xor	 dl, -22			; ffffffeaH
  000dd	88 55 ef	 mov	 BYTE PTR __k$[ebp+11], dl
  000e0	8a 50 0c	 mov	 dl, BYTE PTR [eax+12]
  000e3	84 d2		 test	 dl, dl
  000e5	0f 84 be 00 00
	00		 je	 $LN84@LoadInt_e
  000eb	80 f2 ed	 xor	 dl, -19			; ffffffedH
  000ee	88 55 f0	 mov	 BYTE PTR __k$[ebp+12], dl
  000f1	8a 50 0d	 mov	 dl, BYTE PTR [eax+13]
  000f4	84 d2		 test	 dl, dl
  000f6	0f 84 a8 00 00
	00		 je	 $LN83@LoadInt_e
  000fc	32 d1		 xor	 dl, cl
  000fe	88 55 f1	 mov	 BYTE PTR __k$[ebp+13], dl
  00101	8a 50 0e	 mov	 dl, BYTE PTR [eax+14]
  00104	84 d2		 test	 dl, dl
  00106	0f 84 92 00 00
	00		 je	 $LN82@LoadInt_e
  0010c	80 f2 eb	 xor	 dl, -21			; ffffffebH
  0010f	88 55 f2	 mov	 BYTE PTR __k$[ebp+14], dl
  00112	8a 50 0f	 mov	 dl, BYTE PTR [eax+15]
  00115	84 d2		 test	 dl, dl
  00117	74 7f		 je	 SHORT $LN81@LoadInt_e
  00119	80 f2 ea	 xor	 dl, -22			; ffffffeaH
  0011c	88 55 f3	 mov	 BYTE PTR __k$[ebp+15], dl
  0011f	8a 50 10	 mov	 dl, BYTE PTR [eax+16]
  00122	84 d2		 test	 dl, dl
  00124	74 6c		 je	 SHORT $LN80@LoadInt_e
  00126	80 f2 ed	 xor	 dl, -19			; ffffffedH
  00129	88 55 f4	 mov	 BYTE PTR __k$[ebp+16], dl
  0012c	8a 50 11	 mov	 dl, BYTE PTR [eax+17]
  0012f	84 d2		 test	 dl, dl
  00131	74 5a		 je	 SHORT $LN79@LoadInt_e
  00133	32 d1		 xor	 dl, cl
  00135	80 78 12 00	 cmp	 BYTE PTR [eax+18], 0
  00139	88 55 f5	 mov	 BYTE PTR __k$[ebp+17], dl
  0013c	0f 84 b1 00 00
	00		 je	 $LN1@LoadInt_e
  00142	8a 50 13	 mov	 dl, BYTE PTR [eax+19]
  00145	84 d2		 test	 dl, dl
  00147	74 3e		 je	 SHORT $LN77@LoadInt_e
  00149	80 f2 ea	 xor	 dl, -22			; ffffffeaH
  0014c	88 55 f7	 mov	 BYTE PTR __k$[ebp+19], dl
  0014f	8a 50 14	 mov	 dl, BYTE PTR [eax+20]
  00152	84 d2		 test	 dl, dl
  00154	74 2b		 je	 SHORT $LN76@LoadInt_e
  00156	80 f2 ed	 xor	 dl, -19			; ffffffedH
  00159	88 55 f8	 mov	 BYTE PTR __k$[ebp+20], dl
  0015c	8a 50 15	 mov	 dl, BYTE PTR [eax+21]
  0015f	84 d2		 test	 dl, dl
  00161	74 19		 je	 SHORT $LN75@LoadInt_e
  00163	8a 40 16	 mov	 al, BYTE PTR [eax+22]
  00166	32 d1		 xor	 dl, cl
  00168	88 55 f9	 mov	 BYTE PTR __k$[ebp+21], dl
  0016b	84 c0		 test	 al, al
  0016d	74 07		 je	 SHORT $LN74@LoadInt_e
  0016f	34 eb		 xor	 al, -21			; ffffffebH
  00171	88 45 fa	 mov	 BYTE PTR __k$[ebp+22], al
  00174	eb 7d		 jmp	 SHORT $LN1@LoadInt_e
$LN74@LoadInt_e:
  00176	c6 45 fa eb	 mov	 BYTE PTR __k$[ebp+22], -21 ; ffffffebH
  0017a	eb 77		 jmp	 SHORT $LN1@LoadInt_e
$LN75@LoadInt_e:
  0017c	88 4d f9	 mov	 BYTE PTR __k$[ebp+21], cl
  0017f	eb 72		 jmp	 SHORT $LN1@LoadInt_e
$LN76@LoadInt_e:
  00181	c6 45 f8 ed	 mov	 BYTE PTR __k$[ebp+20], -19 ; ffffffedH
  00185	eb 6c		 jmp	 SHORT $LN1@LoadInt_e
$LN77@LoadInt_e:
  00187	c6 45 f7 ea	 mov	 BYTE PTR __k$[ebp+19], -22 ; ffffffeaH
  0018b	eb 66		 jmp	 SHORT $LN1@LoadInt_e
$LN79@LoadInt_e:
  0018d	88 4d f5	 mov	 BYTE PTR __k$[ebp+17], cl
  00190	eb 61		 jmp	 SHORT $LN1@LoadInt_e
$LN80@LoadInt_e:
  00192	c6 45 f4 ed	 mov	 BYTE PTR __k$[ebp+16], -19 ; ffffffedH
  00196	eb 5b		 jmp	 SHORT $LN1@LoadInt_e
$LN81@LoadInt_e:
  00198	c6 45 f3 ea	 mov	 BYTE PTR __k$[ebp+15], -22 ; ffffffeaH
  0019c	eb 55		 jmp	 SHORT $LN1@LoadInt_e
$LN82@LoadInt_e:
  0019e	c6 45 f2 eb	 mov	 BYTE PTR __k$[ebp+14], -21 ; ffffffebH
  001a2	eb 4f		 jmp	 SHORT $LN1@LoadInt_e
$LN83@LoadInt_e:
  001a4	88 4d f1	 mov	 BYTE PTR __k$[ebp+13], cl
  001a7	eb 4a		 jmp	 SHORT $LN1@LoadInt_e
$LN84@LoadInt_e:
  001a9	c6 45 f0 ed	 mov	 BYTE PTR __k$[ebp+12], -19 ; ffffffedH
  001ad	eb 44		 jmp	 SHORT $LN1@LoadInt_e
$LN85@LoadInt_e:
  001af	c6 45 ef ea	 mov	 BYTE PTR __k$[ebp+11], -22 ; ffffffeaH
  001b3	eb 3e		 jmp	 SHORT $LN1@LoadInt_e
$LN86@LoadInt_e:
  001b5	c6 45 ee eb	 mov	 BYTE PTR __k$[ebp+10], -21 ; ffffffebH
  001b9	eb 38		 jmp	 SHORT $LN1@LoadInt_e
$LN87@LoadInt_e:
  001bb	88 4d ed	 mov	 BYTE PTR __k$[ebp+9], cl
  001be	eb 33		 jmp	 SHORT $LN1@LoadInt_e
$LN88@LoadInt_e:
  001c0	c6 45 ec ed	 mov	 BYTE PTR __k$[ebp+8], -19 ; ffffffedH
  001c4	eb 2d		 jmp	 SHORT $LN1@LoadInt_e
$LN89@LoadInt_e:
  001c6	c6 45 eb ea	 mov	 BYTE PTR __k$[ebp+7], -22 ; ffffffeaH
  001ca	eb 27		 jmp	 SHORT $LN1@LoadInt_e
$LN90@LoadInt_e:
  001cc	c6 45 ea eb	 mov	 BYTE PTR __k$[ebp+6], -21 ; ffffffebH
  001d0	eb 21		 jmp	 SHORT $LN1@LoadInt_e
$LN91@LoadInt_e:
  001d2	88 4d e9	 mov	 BYTE PTR __k$[ebp+5], cl
  001d5	eb 1c		 jmp	 SHORT $LN1@LoadInt_e
$LN92@LoadInt_e:
  001d7	c6 45 e8 ed	 mov	 BYTE PTR __k$[ebp+4], -19 ; ffffffedH
  001db	eb 16		 jmp	 SHORT $LN1@LoadInt_e
$LN93@LoadInt_e:
  001dd	c6 45 e7 ea	 mov	 BYTE PTR __k$[ebp+3], -22 ; ffffffeaH
  001e1	eb 10		 jmp	 SHORT $LN1@LoadInt_e
$LN94@LoadInt_e:
  001e3	c6 45 e6 eb	 mov	 BYTE PTR __k$[ebp+2], -21 ; ffffffebH
  001e7	eb 0a		 jmp	 SHORT $LN1@LoadInt_e
$LN95@LoadInt_e:
  001e9	c6 45 e5 ec	 mov	 BYTE PTR __k$[ebp+1], -20 ; ffffffecH
  001ed	eb 04		 jmp	 SHORT $LN1@LoadInt_e
$LN96@LoadInt_e:
  001ef	c6 45 e4 ed	 mov	 BYTE PTR __k$[ebp], -19	; ffffffedH
$LN1@LoadInt_e:
  001f3	6a 04		 push	 4
  001f5	8d 45 e4	 lea	 eax, DWORD PTR __k$[ebp]
  001f8	c6 45 f6 00	 mov	 BYTE PTR __k$[ebp+18], 0
  001fc	5a		 pop	 edx
$LL104@LoadInt_e:
  001fd	81 30 ed ec eb
	ea		 xor	 DWORD PTR [eax], -353637139 ; eaebecedH
  00203	83 c0 04	 add	 eax, 4
  00206	4a		 dec	 edx
  00207	75 f4		 jne	 SHORT $LL104@LoadInt_e
  00209	6a 10		 push	 16			; 00000010H
  0020b	58		 pop	 eax
$LL101@LoadInt_e:
  0020c	8b c8		 mov	 ecx, eax
  0020e	81 e1 03 00 00
	80		 and	 ecx, -2147483645	; 80000003H
  00214	79 05		 jns	 SHORT $LN111@LoadInt_e
  00216	49		 dec	 ecx
  00217	83 c9 fc	 or	 ecx, -4			; fffffffcH
  0021a	41		 inc	 ecx
$LN111@LoadInt_e:
  0021b	b2 ed		 mov	 dl, -19			; ffffffedH
  0021d	2a d1		 sub	 dl, cl
  0021f	30 54 05 e4	 xor	 BYTE PTR __k$[ebp+eax], dl
  00223	40		 inc	 eax
  00224	83 f8 12	 cmp	 eax, 18			; 00000012H
  00227	7c e3		 jl	 SHORT $LL101@LoadInt_e

; 120  : 		return LoadInt(_k, i);

  00229	ff 75 0c	 push	 DWORD PTR _i$[ebp]
  0022c	8d 45 e4	 lea	 eax, DWORD PTR __k$[ebp]
  0022f	50		 push	 eax
  00230	8b ce		 mov	 ecx, esi
  00232	ff 15 00 00 00
	00		 call	 DWORD PTR __imp_?LoadInt@ioINILoader@@QAEHPBDH@Z

; 121  : 	}

  00238	8b 4d fc	 mov	 ecx, DWORD PTR __$ArrayPad$[ebp]
  0023b	33 cd		 xor	 ecx, ebp
  0023d	5e		 pop	 esi
  0023e	e8 00 00 00 00	 call	 @__security_check_cookie@4
  00243	c9		 leave
  00244	c2 08 00	 ret	 8
??$LoadInt_e@$0BD@@ioINILoader@@QAEHAAY0BD@$$CBDH@Z ENDP ; ioINILoader::LoadInt_e<19>
_TEXT	ENDS
PUBLIC	__$ArrayPad$
PUBLIC	??$LoadString_e@$08@ioINILoader@@QAEXAAY08$$CBDAAY00$$CBDPADH@Z ; ioINILoader::LoadString_e<9>
EXTRN	__imp_?LoadStringA@ioINILoader@@QAEXPBD0PADH@Z:PROC
; Function compile flags: /Ogsp
;	COMDAT ??$LoadString_e@$08@ioINILoader@@QAEXAAY08$$CBDAAY00$$CBDPADH@Z
_TEXT	SEGMENT
__k$ = -20						; size = 9
__$ArrayPad$ = -4					; size = 4
_k$ = 8							; size = 4
_d$ = 12						; size = 4
_b$ = 16						; size = 4
_i$ = 20						; size = 4
??$LoadString_e@$08@ioINILoader@@QAEXAAY08$$CBDAAY00$$CBDPADH@Z PROC ; ioINILoader::LoadString_e<9>, COMDAT
; _this$ = ecx

; 161  : 	{

  00000	55		 push	 ebp
  00001	8b ec		 mov	 ebp, esp
  00003	83 ec 14	 sub	 esp, 20			; 00000014H
  00006	a1 00 00 00 00	 mov	 eax, DWORD PTR ___security_cookie
  0000b	33 c5		 xor	 eax, ebp
  0000d	89 45 fc	 mov	 DWORD PTR __$ArrayPad$[ebp], eax
  00010	8b 45 08	 mov	 eax, DWORD PTR _k$[ebp]

; 162  : 		_ENCSTR(k, _k);

  00013	8a 10		 mov	 dl, BYTE PTR [eax]
  00015	56		 push	 esi
  00016	8b 75 0c	 mov	 esi, DWORD PTR _d$[ebp]
  00019	57		 push	 edi
  0001a	8b 7d 10	 mov	 edi, DWORD PTR _b$[ebp]
  0001d	84 d2		 test	 dl, dl
  0001f	0f 84 ee 00 00
	00		 je	 $LN96@LoadString
  00025	80 f2 ed	 xor	 dl, -19			; ffffffedH
  00028	88 55 ec	 mov	 BYTE PTR __k$[ebp], dl
  0002b	8a 50 01	 mov	 dl, BYTE PTR [eax+1]
  0002e	84 d2		 test	 dl, dl
  00030	0f 84 d7 00 00
	00		 je	 $LN95@LoadString
  00036	80 f2 ec	 xor	 dl, -20			; ffffffecH
  00039	88 55 ed	 mov	 BYTE PTR __k$[ebp+1], dl
  0003c	8a 50 02	 mov	 dl, BYTE PTR [eax+2]
  0003f	84 d2		 test	 dl, dl
  00041	0f 84 c0 00 00
	00		 je	 $LN94@LoadString
  00047	80 f2 eb	 xor	 dl, -21			; ffffffebH
  0004a	88 55 ee	 mov	 BYTE PTR __k$[ebp+2], dl
  0004d	8a 50 03	 mov	 dl, BYTE PTR [eax+3]
  00050	84 d2		 test	 dl, dl
  00052	0f 84 a9 00 00
	00		 je	 $LN93@LoadString
  00058	80 f2 ea	 xor	 dl, -22			; ffffffeaH
  0005b	88 55 ef	 mov	 BYTE PTR __k$[ebp+3], dl
  0005e	8a 50 04	 mov	 dl, BYTE PTR [eax+4]
  00061	84 d2		 test	 dl, dl
  00063	0f 84 92 00 00
	00		 je	 $LN92@LoadString
  00069	80 f2 ed	 xor	 dl, -19			; ffffffedH
  0006c	88 55 f0	 mov	 BYTE PTR __k$[ebp+4], dl
  0006f	8a 50 05	 mov	 dl, BYTE PTR [eax+5]
  00072	84 d2		 test	 dl, dl
  00074	74 7f		 je	 SHORT $LN91@LoadString
  00076	80 f2 ec	 xor	 dl, -20			; ffffffecH
  00079	88 55 f1	 mov	 BYTE PTR __k$[ebp+5], dl
  0007c	8a 50 06	 mov	 dl, BYTE PTR [eax+6]
  0007f	84 d2		 test	 dl, dl
  00081	74 6c		 je	 SHORT $LN90@LoadString
  00083	80 f2 eb	 xor	 dl, -21			; ffffffebH
  00086	88 55 f2	 mov	 BYTE PTR __k$[ebp+6], dl
  00089	8a 50 07	 mov	 dl, BYTE PTR [eax+7]
  0008c	84 d2		 test	 dl, dl
  0008e	74 59		 je	 SHORT $LN89@LoadString
  00090	80 f2 ea	 xor	 dl, -22			; ffffffeaH
  00093	80 78 08 00	 cmp	 BYTE PTR [eax+8], 0
  00097	88 55 f3	 mov	 BYTE PTR __k$[ebp+7], dl
  0009a	74 7b		 je	 SHORT $LN1@LoadString
  0009c	8a 50 09	 mov	 dl, BYTE PTR [eax+9]
  0009f	84 d2		 test	 dl, dl
  000a1	74 40		 je	 SHORT $LN87@LoadString
  000a3	80 f2 ec	 xor	 dl, -20			; ffffffecH
  000a6	88 55 f5	 mov	 BYTE PTR __k$[ebp+9], dl
  000a9	8a 50 0a	 mov	 dl, BYTE PTR [eax+10]
  000ac	84 d2		 test	 dl, dl
  000ae	74 2d		 je	 SHORT $LN86@LoadString
  000b0	80 f2 eb	 xor	 dl, -21			; ffffffebH
  000b3	88 55 f6	 mov	 BYTE PTR __k$[ebp+10], dl
  000b6	8a 50 0b	 mov	 dl, BYTE PTR [eax+11]
  000b9	84 d2		 test	 dl, dl
  000bb	74 1a		 je	 SHORT $LN85@LoadString
  000bd	8a 40 0c	 mov	 al, BYTE PTR [eax+12]
  000c0	80 f2 ea	 xor	 dl, -22			; ffffffeaH
  000c3	88 55 f7	 mov	 BYTE PTR __k$[ebp+11], dl
  000c6	84 c0		 test	 al, al
  000c8	74 07		 je	 SHORT $LN84@LoadString
  000ca	34 ed		 xor	 al, -19			; ffffffedH
  000cc	88 45 f8	 mov	 BYTE PTR __k$[ebp+12], al
  000cf	eb 46		 jmp	 SHORT $LN1@LoadString
$LN84@LoadString:
  000d1	c6 45 f8 ed	 mov	 BYTE PTR __k$[ebp+12], -19 ; ffffffedH
  000d5	eb 40		 jmp	 SHORT $LN1@LoadString
$LN85@LoadString:
  000d7	c6 45 f7 ea	 mov	 BYTE PTR __k$[ebp+11], -22 ; ffffffeaH
  000db	eb 3a		 jmp	 SHORT $LN1@LoadString
$LN86@LoadString:
  000dd	c6 45 f6 eb	 mov	 BYTE PTR __k$[ebp+10], -21 ; ffffffebH
  000e1	eb 34		 jmp	 SHORT $LN1@LoadString
$LN87@LoadString:
  000e3	c6 45 f5 ec	 mov	 BYTE PTR __k$[ebp+9], -20 ; ffffffecH
  000e7	eb 2e		 jmp	 SHORT $LN1@LoadString
$LN89@LoadString:
  000e9	c6 45 f3 ea	 mov	 BYTE PTR __k$[ebp+7], -22 ; ffffffeaH
  000ed	eb 28		 jmp	 SHORT $LN1@LoadString
$LN90@LoadString:
  000ef	c6 45 f2 eb	 mov	 BYTE PTR __k$[ebp+6], -21 ; ffffffebH
  000f3	eb 22		 jmp	 SHORT $LN1@LoadString
$LN91@LoadString:
  000f5	c6 45 f1 ec	 mov	 BYTE PTR __k$[ebp+5], -20 ; ffffffecH
  000f9	eb 1c		 jmp	 SHORT $LN1@LoadString
$LN92@LoadString:
  000fb	c6 45 f0 ed	 mov	 BYTE PTR __k$[ebp+4], -19 ; ffffffedH
  000ff	eb 16		 jmp	 SHORT $LN1@LoadString
$LN93@LoadString:
  00101	c6 45 ef ea	 mov	 BYTE PTR __k$[ebp+3], -22 ; ffffffeaH
  00105	eb 10		 jmp	 SHORT $LN1@LoadString
$LN94@LoadString:
  00107	c6 45 ee eb	 mov	 BYTE PTR __k$[ebp+2], -21 ; ffffffebH
  0010b	eb 0a		 jmp	 SHORT $LN1@LoadString
$LN95@LoadString:
  0010d	c6 45 ed ec	 mov	 BYTE PTR __k$[ebp+1], -20 ; ffffffecH
  00111	eb 04		 jmp	 SHORT $LN1@LoadString
$LN96@LoadString:
  00113	c6 45 ec ed	 mov	 BYTE PTR __k$[ebp], -19	; ffffffedH
$LN1@LoadString:
  00117	6a 02		 push	 2
  00119	8d 45 ec	 lea	 eax, DWORD PTR __k$[ebp]
  0011c	c6 45 f4 00	 mov	 BYTE PTR __k$[ebp+8], 0
  00120	5a		 pop	 edx
$LL104@LoadString:
  00121	81 30 ed ec eb
	ea		 xor	 DWORD PTR [eax], -353637139 ; eaebecedH
  00127	83 c0 04	 add	 eax, 4
  0012a	4a		 dec	 edx
  0012b	75 f4		 jne	 SHORT $LL104@LoadString

; 163  : 		LoadString(_k, d, b, i);

  0012d	ff 75 14	 push	 DWORD PTR _i$[ebp]
  00130	8d 45 ec	 lea	 eax, DWORD PTR __k$[ebp]
  00133	57		 push	 edi
  00134	56		 push	 esi
  00135	50		 push	 eax
  00136	ff 15 00 00 00
	00		 call	 DWORD PTR __imp_?LoadStringA@ioINILoader@@QAEXPBD0PADH@Z

; 164  : 	}

  0013c	8b 4d fc	 mov	 ecx, DWORD PTR __$ArrayPad$[ebp]
  0013f	5f		 pop	 edi
  00140	33 cd		 xor	 ecx, ebp
  00142	5e		 pop	 esi
  00143	e8 00 00 00 00	 call	 @__security_check_cookie@4
  00148	c9		 leave
  00149	c2 10 00	 ret	 16			; 00000010H
??$LoadString_e@$08@ioINILoader@@QAEXAAY08$$CBDAAY00$$CBDPADH@Z ENDP ; ioINILoader::LoadString_e<9>
_TEXT	ENDS
PUBLIC	__$ArrayPad$
PUBLIC	??$LoadInt_e@$0O@@ioINILoader@@QAEHAAY0O@$$CBDH@Z ; ioINILoader::LoadInt_e<14>
; Function compile flags: /Ogsp
;	COMDAT ??$LoadInt_e@$0O@@ioINILoader@@QAEHAAY0O@$$CBDH@Z
_TEXT	SEGMENT
__k$ = -24						; size = 14
__$ArrayPad$ = -4					; size = 4
_k$ = 8							; size = 4
_i$ = 12						; size = 4
??$LoadInt_e@$0O@@ioINILoader@@QAEHAAY0O@$$CBDH@Z PROC	; ioINILoader::LoadInt_e<14>, COMDAT
; _this$ = ecx

; 118  : 	{

  00000	55		 push	 ebp
  00001	8b ec		 mov	 ebp, esp
  00003	83 ec 18	 sub	 esp, 24			; 00000018H
  00006	a1 00 00 00 00	 mov	 eax, DWORD PTR ___security_cookie
  0000b	33 c5		 xor	 eax, ebp
  0000d	89 45 fc	 mov	 DWORD PTR __$ArrayPad$[ebp], eax
  00010	8b 45 08	 mov	 eax, DWORD PTR _k$[ebp]

; 119  : 		_ENCSTR(k, _k);

  00013	8a 10		 mov	 dl, BYTE PTR [eax]
  00015	56		 push	 esi
  00016	8b f1		 mov	 esi, ecx
  00018	84 d2		 test	 dl, dl
  0001a	0f 84 64 01 00
	00		 je	 $LN96@LoadInt_e@2
  00020	80 f2 ed	 xor	 dl, -19			; ffffffedH
  00023	88 55 e8	 mov	 BYTE PTR __k$[ebp], dl
  00026	8a 50 01	 mov	 dl, BYTE PTR [eax+1]
  00029	84 d2		 test	 dl, dl
  0002b	0f 84 4d 01 00
	00		 je	 $LN95@LoadInt_e@2
  00031	80 f2 ec	 xor	 dl, -20			; ffffffecH
  00034	88 55 e9	 mov	 BYTE PTR __k$[ebp+1], dl
  00037	8a 50 02	 mov	 dl, BYTE PTR [eax+2]
  0003a	84 d2		 test	 dl, dl
  0003c	0f 84 36 01 00
	00		 je	 $LN94@LoadInt_e@2
  00042	b1 eb		 mov	 cl, -21			; ffffffebH
  00044	32 d1		 xor	 dl, cl
  00046	88 55 ea	 mov	 BYTE PTR __k$[ebp+2], dl
  00049	8a 50 03	 mov	 dl, BYTE PTR [eax+3]
  0004c	84 d2		 test	 dl, dl
  0004e	0f 84 1e 01 00
	00		 je	 $LN93@LoadInt_e@2
  00054	80 f2 ea	 xor	 dl, -22			; ffffffeaH
  00057	88 55 eb	 mov	 BYTE PTR __k$[ebp+3], dl
  0005a	8a 50 04	 mov	 dl, BYTE PTR [eax+4]
  0005d	84 d2		 test	 dl, dl
  0005f	0f 84 07 01 00
	00		 je	 $LN92@LoadInt_e@2
  00065	80 f2 ed	 xor	 dl, -19			; ffffffedH
  00068	88 55 ec	 mov	 BYTE PTR __k$[ebp+4], dl
  0006b	8a 50 05	 mov	 dl, BYTE PTR [eax+5]
  0006e	84 d2		 test	 dl, dl
  00070	0f 84 f0 00 00
	00		 je	 $LN91@LoadInt_e@2
  00076	80 f2 ec	 xor	 dl, -20			; ffffffecH
  00079	88 55 ed	 mov	 BYTE PTR __k$[ebp+5], dl
  0007c	8a 50 06	 mov	 dl, BYTE PTR [eax+6]
  0007f	84 d2		 test	 dl, dl
  00081	0f 84 da 00 00
	00		 je	 $LN90@LoadInt_e@2
  00087	32 d1		 xor	 dl, cl
  00089	88 55 ee	 mov	 BYTE PTR __k$[ebp+6], dl
  0008c	8a 50 07	 mov	 dl, BYTE PTR [eax+7]
  0008f	84 d2		 test	 dl, dl
  00091	0f 84 c4 00 00
	00		 je	 $LN89@LoadInt_e@2
  00097	80 f2 ea	 xor	 dl, -22			; ffffffeaH
  0009a	88 55 ef	 mov	 BYTE PTR __k$[ebp+7], dl
  0009d	8a 50 08	 mov	 dl, BYTE PTR [eax+8]
  000a0	84 d2		 test	 dl, dl
  000a2	0f 84 ad 00 00
	00		 je	 $LN88@LoadInt_e@2
  000a8	80 f2 ed	 xor	 dl, -19			; ffffffedH
  000ab	88 55 f0	 mov	 BYTE PTR __k$[ebp+8], dl
  000ae	8a 50 09	 mov	 dl, BYTE PTR [eax+9]
  000b1	84 d2		 test	 dl, dl
  000b3	0f 84 96 00 00
	00		 je	 $LN87@LoadInt_e@2
  000b9	80 f2 ec	 xor	 dl, -20			; ffffffecH
  000bc	88 55 f1	 mov	 BYTE PTR __k$[ebp+9], dl
  000bf	8a 50 0a	 mov	 dl, BYTE PTR [eax+10]
  000c2	84 d2		 test	 dl, dl
  000c4	0f 84 80 00 00
	00		 je	 $LN86@LoadInt_e@2
  000ca	32 d1		 xor	 dl, cl
  000cc	88 55 f2	 mov	 BYTE PTR __k$[ebp+10], dl
  000cf	8a 50 0b	 mov	 dl, BYTE PTR [eax+11]
  000d2	84 d2		 test	 dl, dl
  000d4	74 6e		 je	 SHORT $LN85@LoadInt_e@2
  000d6	80 f2 ea	 xor	 dl, -22			; ffffffeaH
  000d9	88 55 f3	 mov	 BYTE PTR __k$[ebp+11], dl
  000dc	8a 50 0c	 mov	 dl, BYTE PTR [eax+12]
  000df	84 d2		 test	 dl, dl
  000e1	74 5b		 je	 SHORT $LN84@LoadInt_e@2
  000e3	80 f2 ed	 xor	 dl, -19			; ffffffedH
  000e6	80 78 0d 00	 cmp	 BYTE PTR [eax+13], 0
  000ea	88 55 f4	 mov	 BYTE PTR __k$[ebp+12], dl
  000ed	0f 84 95 00 00
	00		 je	 $LN1@LoadInt_e@2
  000f3	8a 50 0e	 mov	 dl, BYTE PTR [eax+14]
  000f6	84 d2		 test	 dl, dl
  000f8	74 3f		 je	 SHORT $LN82@LoadInt_e@2
  000fa	32 d1		 xor	 dl, cl
  000fc	88 55 f6	 mov	 BYTE PTR __k$[ebp+14], dl
  000ff	8a 50 0f	 mov	 dl, BYTE PTR [eax+15]
  00102	84 d2		 test	 dl, dl
  00104	74 2d		 je	 SHORT $LN81@LoadInt_e@2
  00106	80 f2 ea	 xor	 dl, -22			; ffffffeaH
  00109	88 55 f7	 mov	 BYTE PTR __k$[ebp+15], dl
  0010c	8a 50 10	 mov	 dl, BYTE PTR [eax+16]
  0010f	84 d2		 test	 dl, dl
  00111	74 1a		 je	 SHORT $LN80@LoadInt_e@2
  00113	8a 40 11	 mov	 al, BYTE PTR [eax+17]
  00116	80 f2 ed	 xor	 dl, -19			; ffffffedH
  00119	88 55 f8	 mov	 BYTE PTR __k$[ebp+16], dl
  0011c	84 c0		 test	 al, al
  0011e	74 07		 je	 SHORT $LN79@LoadInt_e@2
  00120	34 ec		 xor	 al, -20			; ffffffecH
  00122	88 45 f9	 mov	 BYTE PTR __k$[ebp+17], al
  00125	eb 61		 jmp	 SHORT $LN1@LoadInt_e@2
$LN79@LoadInt_e@2:
  00127	c6 45 f9 ec	 mov	 BYTE PTR __k$[ebp+17], -20 ; ffffffecH
  0012b	eb 5b		 jmp	 SHORT $LN1@LoadInt_e@2
$LN80@LoadInt_e@2:
  0012d	c6 45 f8 ed	 mov	 BYTE PTR __k$[ebp+16], -19 ; ffffffedH
  00131	eb 55		 jmp	 SHORT $LN1@LoadInt_e@2
$LN81@LoadInt_e@2:
  00133	c6 45 f7 ea	 mov	 BYTE PTR __k$[ebp+15], -22 ; ffffffeaH
  00137	eb 4f		 jmp	 SHORT $LN1@LoadInt_e@2
$LN82@LoadInt_e@2:
  00139	88 4d f6	 mov	 BYTE PTR __k$[ebp+14], cl
  0013c	eb 4a		 jmp	 SHORT $LN1@LoadInt_e@2
$LN84@LoadInt_e@2:
  0013e	c6 45 f4 ed	 mov	 BYTE PTR __k$[ebp+12], -19 ; ffffffedH
  00142	eb 44		 jmp	 SHORT $LN1@LoadInt_e@2
$LN85@LoadInt_e@2:
  00144	c6 45 f3 ea	 mov	 BYTE PTR __k$[ebp+11], -22 ; ffffffeaH
  00148	eb 3e		 jmp	 SHORT $LN1@LoadInt_e@2
$LN86@LoadInt_e@2:
  0014a	88 4d f2	 mov	 BYTE PTR __k$[ebp+10], cl
  0014d	eb 39		 jmp	 SHORT $LN1@LoadInt_e@2
$LN87@LoadInt_e@2:
  0014f	c6 45 f1 ec	 mov	 BYTE PTR __k$[ebp+9], -20 ; ffffffecH
  00153	eb 33		 jmp	 SHORT $LN1@LoadInt_e@2
$LN88@LoadInt_e@2:
  00155	c6 45 f0 ed	 mov	 BYTE PTR __k$[ebp+8], -19 ; ffffffedH
  00159	eb 2d		 jmp	 SHORT $LN1@LoadInt_e@2
$LN89@LoadInt_e@2:
  0015b	c6 45 ef ea	 mov	 BYTE PTR __k$[ebp+7], -22 ; ffffffeaH
  0015f	eb 27		 jmp	 SHORT $LN1@LoadInt_e@2
$LN90@LoadInt_e@2:
  00161	88 4d ee	 mov	 BYTE PTR __k$[ebp+6], cl
  00164	eb 22		 jmp	 SHORT $LN1@LoadInt_e@2
$LN91@LoadInt_e@2:
  00166	c6 45 ed ec	 mov	 BYTE PTR __k$[ebp+5], -20 ; ffffffecH
  0016a	eb 1c		 jmp	 SHORT $LN1@LoadInt_e@2
$LN92@LoadInt_e@2:
  0016c	c6 45 ec ed	 mov	 BYTE PTR __k$[ebp+4], -19 ; ffffffedH
  00170	eb 16		 jmp	 SHORT $LN1@LoadInt_e@2
$LN93@LoadInt_e@2:
  00172	c6 45 eb ea	 mov	 BYTE PTR __k$[ebp+3], -22 ; ffffffeaH
  00176	eb 10		 jmp	 SHORT $LN1@LoadInt_e@2
$LN94@LoadInt_e@2:
  00178	c6 45 ea eb	 mov	 BYTE PTR __k$[ebp+2], -21 ; ffffffebH
  0017c	eb 0a		 jmp	 SHORT $LN1@LoadInt_e@2
$LN95@LoadInt_e@2:
  0017e	c6 45 e9 ec	 mov	 BYTE PTR __k$[ebp+1], -20 ; ffffffecH
  00182	eb 04		 jmp	 SHORT $LN1@LoadInt_e@2
$LN96@LoadInt_e@2:
  00184	c6 45 e8 ed	 mov	 BYTE PTR __k$[ebp], -19	; ffffffedH
$LN1@LoadInt_e@2:
  00188	6a 03		 push	 3
  0018a	8d 45 e8	 lea	 eax, DWORD PTR __k$[ebp]
  0018d	c6 45 f5 00	 mov	 BYTE PTR __k$[ebp+13], 0
  00191	5a		 pop	 edx
$LL104@LoadInt_e@2:
  00192	81 30 ed ec eb
	ea		 xor	 DWORD PTR [eax], -353637139 ; eaebecedH
  00198	83 c0 04	 add	 eax, 4
  0019b	4a		 dec	 edx
  0019c	75 f4		 jne	 SHORT $LL104@LoadInt_e@2

; 120  : 		return LoadInt(_k, i);

  0019e	ff 75 0c	 push	 DWORD PTR _i$[ebp]
  001a1	80 75 f4 ed	 xor	 BYTE PTR __k$[ebp+12], -19 ; ffffffedH
  001a5	8d 45 e8	 lea	 eax, DWORD PTR __k$[ebp]
  001a8	50		 push	 eax
  001a9	8b ce		 mov	 ecx, esi
  001ab	ff 15 00 00 00
	00		 call	 DWORD PTR __imp_?LoadInt@ioINILoader@@QAEHPBDH@Z

; 121  : 	}

  001b1	8b 4d fc	 mov	 ecx, DWORD PTR __$ArrayPad$[ebp]
  001b4	33 cd		 xor	 ecx, ebp
  001b6	5e		 pop	 esi
  001b7	e8 00 00 00 00	 call	 @__security_check_cookie@4
  001bc	c9		 leave
  001bd	c2 08 00	 ret	 8
??$LoadInt_e@$0O@@ioINILoader@@QAEHAAY0O@$$CBDH@Z ENDP	; ioINILoader::LoadInt_e<14>
_TEXT	ENDS
PUBLIC	__$ArrayPad$
PUBLIC	??$LoadInt_e@$0BB@@ioINILoader@@QAEHAAY0BB@$$CBDH@Z ; ioINILoader::LoadInt_e<17>
; Function compile flags: /Ogsp
;	COMDAT ??$LoadInt_e@$0BB@@ioINILoader@@QAEHAAY0BB@$$CBDH@Z
_TEXT	SEGMENT
__k$ = -28						; size = 17
__$ArrayPad$ = -4					; size = 4
_k$ = 8							; size = 4
_i$ = 12						; size = 4
??$LoadInt_e@$0BB@@ioINILoader@@QAEHAAY0BB@$$CBDH@Z PROC ; ioINILoader::LoadInt_e<17>, COMDAT
; _this$ = ecx

; 118  : 	{

  00000	55		 push	 ebp
  00001	8b ec		 mov	 ebp, esp
  00003	83 ec 1c	 sub	 esp, 28			; 0000001cH
  00006	a1 00 00 00 00	 mov	 eax, DWORD PTR ___security_cookie
  0000b	33 c5		 xor	 eax, ebp
  0000d	89 45 fc	 mov	 DWORD PTR __$ArrayPad$[ebp], eax
  00010	8b 45 08	 mov	 eax, DWORD PTR _k$[ebp]

; 119  : 		_ENCSTR(k, _k);

  00013	8a 10		 mov	 dl, BYTE PTR [eax]
  00015	56		 push	 esi
  00016	8b f1		 mov	 esi, ecx
  00018	84 d2		 test	 dl, dl
  0001a	0f 84 a7 01 00
	00		 je	 $LN96@LoadInt_e@3
  00020	80 f2 ed	 xor	 dl, -19			; ffffffedH
  00023	88 55 e4	 mov	 BYTE PTR __k$[ebp], dl
  00026	8a 50 01	 mov	 dl, BYTE PTR [eax+1]
  00029	84 d2		 test	 dl, dl
  0002b	0f 84 90 01 00
	00		 je	 $LN95@LoadInt_e@3
  00031	b1 ec		 mov	 cl, -20			; ffffffecH
  00033	32 d1		 xor	 dl, cl
  00035	88 55 e5	 mov	 BYTE PTR __k$[ebp+1], dl
  00038	8a 50 02	 mov	 dl, BYTE PTR [eax+2]
  0003b	84 d2		 test	 dl, dl
  0003d	0f 84 78 01 00
	00		 je	 $LN94@LoadInt_e@3
  00043	80 f2 eb	 xor	 dl, -21			; ffffffebH
  00046	88 55 e6	 mov	 BYTE PTR __k$[ebp+2], dl
  00049	8a 50 03	 mov	 dl, BYTE PTR [eax+3]
  0004c	84 d2		 test	 dl, dl
  0004e	0f 84 61 01 00
	00		 je	 $LN93@LoadInt_e@3
  00054	80 f2 ea	 xor	 dl, -22			; ffffffeaH
  00057	88 55 e7	 mov	 BYTE PTR __k$[ebp+3], dl
  0005a	8a 50 04	 mov	 dl, BYTE PTR [eax+4]
  0005d	84 d2		 test	 dl, dl
  0005f	0f 84 4a 01 00
	00		 je	 $LN92@LoadInt_e@3
  00065	80 f2 ed	 xor	 dl, -19			; ffffffedH
  00068	88 55 e8	 mov	 BYTE PTR __k$[ebp+4], dl
  0006b	8a 50 05	 mov	 dl, BYTE PTR [eax+5]
  0006e	84 d2		 test	 dl, dl
  00070	0f 84 34 01 00
	00		 je	 $LN91@LoadInt_e@3
  00076	32 d1		 xor	 dl, cl
  00078	88 55 e9	 mov	 BYTE PTR __k$[ebp+5], dl
  0007b	8a 50 06	 mov	 dl, BYTE PTR [eax+6]
  0007e	84 d2		 test	 dl, dl
  00080	0f 84 1e 01 00
	00		 je	 $LN90@LoadInt_e@3
  00086	80 f2 eb	 xor	 dl, -21			; ffffffebH
  00089	88 55 ea	 mov	 BYTE PTR __k$[ebp+6], dl
  0008c	8a 50 07	 mov	 dl, BYTE PTR [eax+7]
  0008f	84 d2		 test	 dl, dl
  00091	0f 84 07 01 00
	00		 je	 $LN89@LoadInt_e@3
  00097	80 f2 ea	 xor	 dl, -22			; ffffffeaH
  0009a	88 55 eb	 mov	 BYTE PTR __k$[ebp+7], dl
  0009d	8a 50 08	 mov	 dl, BYTE PTR [eax+8]
  000a0	84 d2		 test	 dl, dl
  000a2	0f 84 f0 00 00
	00		 je	 $LN88@LoadInt_e@3
  000a8	80 f2 ed	 xor	 dl, -19			; ffffffedH
  000ab	88 55 ec	 mov	 BYTE PTR __k$[ebp+8], dl
  000ae	8a 50 09	 mov	 dl, BYTE PTR [eax+9]
  000b1	84 d2		 test	 dl, dl
  000b3	0f 84 da 00 00
	00		 je	 $LN87@LoadInt_e@3
  000b9	32 d1		 xor	 dl, cl
  000bb	88 55 ed	 mov	 BYTE PTR __k$[ebp+9], dl
  000be	8a 50 0a	 mov	 dl, BYTE PTR [eax+10]
  000c1	84 d2		 test	 dl, dl
  000c3	0f 84 c4 00 00
	00		 je	 $LN86@LoadInt_e@3
  000c9	80 f2 eb	 xor	 dl, -21			; ffffffebH
  000cc	88 55 ee	 mov	 BYTE PTR __k$[ebp+10], dl
  000cf	8a 50 0b	 mov	 dl, BYTE PTR [eax+11]
  000d2	84 d2		 test	 dl, dl
  000d4	0f 84 ad 00 00
	00		 je	 $LN85@LoadInt_e@3
  000da	80 f2 ea	 xor	 dl, -22			; ffffffeaH
  000dd	88 55 ef	 mov	 BYTE PTR __k$[ebp+11], dl
  000e0	8a 50 0c	 mov	 dl, BYTE PTR [eax+12]
  000e3	84 d2		 test	 dl, dl
  000e5	0f 84 96 00 00
	00		 je	 $LN84@LoadInt_e@3
  000eb	80 f2 ed	 xor	 dl, -19			; ffffffedH
  000ee	88 55 f0	 mov	 BYTE PTR __k$[ebp+12], dl
  000f1	8a 50 0d	 mov	 dl, BYTE PTR [eax+13]
  000f4	84 d2		 test	 dl, dl
  000f6	0f 84 80 00 00
	00		 je	 $LN83@LoadInt_e@3
  000fc	32 d1		 xor	 dl, cl
  000fe	88 55 f1	 mov	 BYTE PTR __k$[ebp+13], dl
  00101	8a 50 0e	 mov	 dl, BYTE PTR [eax+14]
  00104	84 d2		 test	 dl, dl
  00106	74 6e		 je	 SHORT $LN82@LoadInt_e@3
  00108	80 f2 eb	 xor	 dl, -21			; ffffffebH
  0010b	88 55 f2	 mov	 BYTE PTR __k$[ebp+14], dl
  0010e	8a 50 0f	 mov	 dl, BYTE PTR [eax+15]
  00111	84 d2		 test	 dl, dl
  00113	74 5b		 je	 SHORT $LN81@LoadInt_e@3
  00115	80 f2 ea	 xor	 dl, -22			; ffffffeaH
  00118	80 78 10 00	 cmp	 BYTE PTR [eax+16], 0
  0011c	88 55 f3	 mov	 BYTE PTR __k$[ebp+15], dl
  0011f	0f 84 a6 00 00
	00		 je	 $LN1@LoadInt_e@3
  00125	8a 50 11	 mov	 dl, BYTE PTR [eax+17]
  00128	84 d2		 test	 dl, dl
  0012a	74 3f		 je	 SHORT $LN79@LoadInt_e@3
  0012c	32 d1		 xor	 dl, cl
  0012e	88 55 f5	 mov	 BYTE PTR __k$[ebp+17], dl
  00131	8a 50 12	 mov	 dl, BYTE PTR [eax+18]
  00134	84 d2		 test	 dl, dl
  00136	74 2d		 je	 SHORT $LN78@LoadInt_e@3
  00138	80 f2 eb	 xor	 dl, -21			; ffffffebH
  0013b	88 55 f6	 mov	 BYTE PTR __k$[ebp+18], dl
  0013e	8a 50 13	 mov	 dl, BYTE PTR [eax+19]
  00141	84 d2		 test	 dl, dl
  00143	74 1a		 je	 SHORT $LN77@LoadInt_e@3
  00145	8a 40 14	 mov	 al, BYTE PTR [eax+20]
  00148	80 f2 ea	 xor	 dl, -22			; ffffffeaH
  0014b	88 55 f7	 mov	 BYTE PTR __k$[ebp+19], dl
  0014e	84 c0		 test	 al, al
  00150	74 07		 je	 SHORT $LN76@LoadInt_e@3
  00152	34 ed		 xor	 al, -19			; ffffffedH
  00154	88 45 f8	 mov	 BYTE PTR __k$[ebp+20], al
  00157	eb 72		 jmp	 SHORT $LN1@LoadInt_e@3
$LN76@LoadInt_e@3:
  00159	c6 45 f8 ed	 mov	 BYTE PTR __k$[ebp+20], -19 ; ffffffedH
  0015d	eb 6c		 jmp	 SHORT $LN1@LoadInt_e@3
$LN77@LoadInt_e@3:
  0015f	c6 45 f7 ea	 mov	 BYTE PTR __k$[ebp+19], -22 ; ffffffeaH
  00163	eb 66		 jmp	 SHORT $LN1@LoadInt_e@3
$LN78@LoadInt_e@3:
  00165	c6 45 f6 eb	 mov	 BYTE PTR __k$[ebp+18], -21 ; ffffffebH
  00169	eb 60		 jmp	 SHORT $LN1@LoadInt_e@3
$LN79@LoadInt_e@3:
  0016b	88 4d f5	 mov	 BYTE PTR __k$[ebp+17], cl
  0016e	eb 5b		 jmp	 SHORT $LN1@LoadInt_e@3
$LN81@LoadInt_e@3:
  00170	c6 45 f3 ea	 mov	 BYTE PTR __k$[ebp+15], -22 ; ffffffeaH
  00174	eb 55		 jmp	 SHORT $LN1@LoadInt_e@3
$LN82@LoadInt_e@3:
  00176	c6 45 f2 eb	 mov	 BYTE PTR __k$[ebp+14], -21 ; ffffffebH
  0017a	eb 4f		 jmp	 SHORT $LN1@LoadInt_e@3
$LN83@LoadInt_e@3:
  0017c	88 4d f1	 mov	 BYTE PTR __k$[ebp+13], cl
  0017f	eb 4a		 jmp	 SHORT $LN1@LoadInt_e@3
$LN84@LoadInt_e@3:
  00181	c6 45 f0 ed	 mov	 BYTE PTR __k$[ebp+12], -19 ; ffffffedH
  00185	eb 44		 jmp	 SHORT $LN1@LoadInt_e@3
$LN85@LoadInt_e@3:
  00187	c6 45 ef ea	 mov	 BYTE PTR __k$[ebp+11], -22 ; ffffffeaH
  0018b	eb 3e		 jmp	 SHORT $LN1@LoadInt_e@3
$LN86@LoadInt_e@3:
  0018d	c6 45 ee eb	 mov	 BYTE PTR __k$[ebp+10], -21 ; ffffffebH
  00191	eb 38		 jmp	 SHORT $LN1@LoadInt_e@3
$LN87@LoadInt_e@3:
  00193	88 4d ed	 mov	 BYTE PTR __k$[ebp+9], cl
  00196	eb 33		 jmp	 SHORT $LN1@LoadInt_e@3
$LN88@LoadInt_e@3:
  00198	c6 45 ec ed	 mov	 BYTE PTR __k$[ebp+8], -19 ; ffffffedH
  0019c	eb 2d		 jmp	 SHORT $LN1@LoadInt_e@3
$LN89@LoadInt_e@3:
  0019e	c6 45 eb ea	 mov	 BYTE PTR __k$[ebp+7], -22 ; ffffffeaH
  001a2	eb 27		 jmp	 SHORT $LN1@LoadInt_e@3
$LN90@LoadInt_e@3:
  001a4	c6 45 ea eb	 mov	 BYTE PTR __k$[ebp+6], -21 ; ffffffebH
  001a8	eb 21		 jmp	 SHORT $LN1@LoadInt_e@3
$LN91@LoadInt_e@3:
  001aa	88 4d e9	 mov	 BYTE PTR __k$[ebp+5], cl
  001ad	eb 1c		 jmp	 SHORT $LN1@LoadInt_e@3
$LN92@LoadInt_e@3:
  001af	c6 45 e8 ed	 mov	 BYTE PTR __k$[ebp+4], -19 ; ffffffedH
  001b3	eb 16		 jmp	 SHORT $LN1@LoadInt_e@3
$LN93@LoadInt_e@3:
  001b5	c6 45 e7 ea	 mov	 BYTE PTR __k$[ebp+3], -22 ; ffffffeaH
  001b9	eb 10		 jmp	 SHORT $LN1@LoadInt_e@3
$LN94@LoadInt_e@3:
  001bb	c6 45 e6 eb	 mov	 BYTE PTR __k$[ebp+2], -21 ; ffffffebH
  001bf	eb 0a		 jmp	 SHORT $LN1@LoadInt_e@3
$LN95@LoadInt_e@3:
  001c1	c6 45 e5 ec	 mov	 BYTE PTR __k$[ebp+1], -20 ; ffffffecH
  001c5	eb 04		 jmp	 SHORT $LN1@LoadInt_e@3
$LN96@LoadInt_e@3:
  001c7	c6 45 e4 ed	 mov	 BYTE PTR __k$[ebp], -19	; ffffffedH
$LN1@LoadInt_e@3:
  001cb	6a 04		 push	 4
  001cd	8d 45 e4	 lea	 eax, DWORD PTR __k$[ebp]
  001d0	c6 45 f4 00	 mov	 BYTE PTR __k$[ebp+16], 0
  001d4	5a		 pop	 edx
$LL104@LoadInt_e@3:
  001d5	81 30 ed ec eb
	ea		 xor	 DWORD PTR [eax], -353637139 ; eaebecedH
  001db	83 c0 04	 add	 eax, 4
  001de	4a		 dec	 edx
  001df	75 f4		 jne	 SHORT $LL104@LoadInt_e@3

; 120  : 		return LoadInt(_k, i);

  001e1	ff 75 0c	 push	 DWORD PTR _i$[ebp]
  001e4	8d 45 e4	 lea	 eax, DWORD PTR __k$[ebp]
  001e7	50		 push	 eax
  001e8	8b ce		 mov	 ecx, esi
  001ea	ff 15 00 00 00
	00		 call	 DWORD PTR __imp_?LoadInt@ioINILoader@@QAEHPBDH@Z

; 121  : 	}

  001f0	8b 4d fc	 mov	 ecx, DWORD PTR __$ArrayPad$[ebp]
  001f3	33 cd		 xor	 ecx, ebp
  001f5	5e		 pop	 esi
  001f6	e8 00 00 00 00	 call	 @__security_check_cookie@4
  001fb	c9		 leave
  001fc	c2 08 00	 ret	 8
??$LoadInt_e@$0BB@@ioINILoader@@QAEHAAY0BB@$$CBDH@Z ENDP ; ioINILoader::LoadInt_e<17>
_TEXT	ENDS
PUBLIC	__$ArrayPad$
PUBLIC	??$LoadInt_e@$0BI@@ioINILoader@@QAEHAAY0BI@$$CBDH@Z ; ioINILoader::LoadInt_e<24>
; Function compile flags: /Ogsp
;	COMDAT ??$LoadInt_e@$0BI@@ioINILoader@@QAEHAAY0BI@$$CBDH@Z
_TEXT	SEGMENT
__k$ = -32						; size = 24
__$ArrayPad$ = -4					; size = 4
_k$ = 8							; size = 4
_i$ = 12						; size = 4
??$LoadInt_e@$0BI@@ioINILoader@@QAEHAAY0BI@$$CBDH@Z PROC ; ioINILoader::LoadInt_e<24>, COMDAT
; _this$ = ecx

; 118  : 	{

  00000	55		 push	 ebp
  00001	8b ec		 mov	 ebp, esp
  00003	83 ec 20	 sub	 esp, 32			; 00000020H
  00006	a1 00 00 00 00	 mov	 eax, DWORD PTR ___security_cookie
  0000b	33 c5		 xor	 eax, ebp
  0000d	89 45 fc	 mov	 DWORD PTR __$ArrayPad$[ebp], eax
  00010	8b 45 08	 mov	 eax, DWORD PTR _k$[ebp]

; 119  : 		_ENCSTR(k, _k);

  00013	8a 10		 mov	 dl, BYTE PTR [eax]
  00015	53		 push	 ebx
  00016	56		 push	 esi
  00017	8b f1		 mov	 esi, ecx
  00019	84 d2		 test	 dl, dl
  0001b	0f 84 45 02 00
	00		 je	 $LN96@LoadInt_e@4
  00021	80 f2 ed	 xor	 dl, -19			; ffffffedH
  00024	88 55 e0	 mov	 BYTE PTR __k$[ebp], dl
  00027	8a 50 01	 mov	 dl, BYTE PTR [eax+1]
  0002a	84 d2		 test	 dl, dl
  0002c	0f 84 2e 02 00
	00		 je	 $LN95@LoadInt_e@4
  00032	b3 ec		 mov	 bl, -20			; ffffffecH
  00034	32 d3		 xor	 dl, bl
  00036	88 55 e1	 mov	 BYTE PTR __k$[ebp+1], dl
  00039	8a 50 02	 mov	 dl, BYTE PTR [eax+2]
  0003c	84 d2		 test	 dl, dl
  0003e	0f 84 16 02 00
	00		 je	 $LN94@LoadInt_e@4
  00044	b1 eb		 mov	 cl, -21			; ffffffebH
  00046	32 d1		 xor	 dl, cl
  00048	88 55 e2	 mov	 BYTE PTR __k$[ebp+2], dl
  0004b	8a 50 03	 mov	 dl, BYTE PTR [eax+3]
  0004e	84 d2		 test	 dl, dl
  00050	0f 84 fe 01 00
	00		 je	 $LN93@LoadInt_e@4
  00056	80 f2 ea	 xor	 dl, -22			; ffffffeaH
  00059	88 55 e3	 mov	 BYTE PTR __k$[ebp+3], dl
  0005c	8a 50 04	 mov	 dl, BYTE PTR [eax+4]
  0005f	84 d2		 test	 dl, dl
  00061	0f 84 e7 01 00
	00		 je	 $LN92@LoadInt_e@4
  00067	80 f2 ed	 xor	 dl, -19			; ffffffedH
  0006a	88 55 e4	 mov	 BYTE PTR __k$[ebp+4], dl
  0006d	8a 50 05	 mov	 dl, BYTE PTR [eax+5]
  00070	84 d2		 test	 dl, dl
  00072	0f 84 d1 01 00
	00		 je	 $LN91@LoadInt_e@4
  00078	32 d3		 xor	 dl, bl
  0007a	88 55 e5	 mov	 BYTE PTR __k$[ebp+5], dl
  0007d	8a 50 06	 mov	 dl, BYTE PTR [eax+6]
  00080	84 d2		 test	 dl, dl
  00082	0f 84 bc 01 00
	00		 je	 $LN90@LoadInt_e@4
  00088	32 d1		 xor	 dl, cl
  0008a	88 55 e6	 mov	 BYTE PTR __k$[ebp+6], dl
  0008d	8a 50 07	 mov	 dl, BYTE PTR [eax+7]
  00090	84 d2		 test	 dl, dl
  00092	0f 84 a6 01 00
	00		 je	 $LN89@LoadInt_e@4
  00098	80 f2 ea	 xor	 dl, -22			; ffffffeaH
  0009b	88 55 e7	 mov	 BYTE PTR __k$[ebp+7], dl
  0009e	8a 50 08	 mov	 dl, BYTE PTR [eax+8]
  000a1	84 d2		 test	 dl, dl
  000a3	0f 84 8f 01 00
	00		 je	 $LN88@LoadInt_e@4
  000a9	80 f2 ed	 xor	 dl, -19			; ffffffedH
  000ac	88 55 e8	 mov	 BYTE PTR __k$[ebp+8], dl
  000af	8a 50 09	 mov	 dl, BYTE PTR [eax+9]
  000b2	84 d2		 test	 dl, dl
  000b4	0f 84 79 01 00
	00		 je	 $LN87@LoadInt_e@4
  000ba	32 d3		 xor	 dl, bl
  000bc	88 55 e9	 mov	 BYTE PTR __k$[ebp+9], dl
  000bf	8a 50 0a	 mov	 dl, BYTE PTR [eax+10]
  000c2	84 d2		 test	 dl, dl
  000c4	0f 84 64 01 00
	00		 je	 $LN86@LoadInt_e@4
  000ca	32 d1		 xor	 dl, cl
  000cc	88 55 ea	 mov	 BYTE PTR __k$[ebp+10], dl
  000cf	8a 50 0b	 mov	 dl, BYTE PTR [eax+11]
  000d2	84 d2		 test	 dl, dl
  000d4	0f 84 4e 01 00
	00		 je	 $LN85@LoadInt_e@4
  000da	80 f2 ea	 xor	 dl, -22			; ffffffeaH
  000dd	88 55 eb	 mov	 BYTE PTR __k$[ebp+11], dl
  000e0	8a 50 0c	 mov	 dl, BYTE PTR [eax+12]
  000e3	84 d2		 test	 dl, dl
  000e5	0f 84 37 01 00
	00		 je	 $LN84@LoadInt_e@4
  000eb	80 f2 ed	 xor	 dl, -19			; ffffffedH
  000ee	88 55 ec	 mov	 BYTE PTR __k$[ebp+12], dl
  000f1	8a 50 0d	 mov	 dl, BYTE PTR [eax+13]
  000f4	84 d2		 test	 dl, dl
  000f6	0f 84 21 01 00
	00		 je	 $LN83@LoadInt_e@4
  000fc	32 d3		 xor	 dl, bl
  000fe	88 55 ed	 mov	 BYTE PTR __k$[ebp+13], dl
  00101	8a 50 0e	 mov	 dl, BYTE PTR [eax+14]
  00104	84 d2		 test	 dl, dl
  00106	0f 84 0c 01 00
	00		 je	 $LN82@LoadInt_e@4
  0010c	32 d1		 xor	 dl, cl
  0010e	88 55 ee	 mov	 BYTE PTR __k$[ebp+14], dl
  00111	8a 50 0f	 mov	 dl, BYTE PTR [eax+15]
  00114	84 d2		 test	 dl, dl
  00116	0f 84 f6 00 00
	00		 je	 $LN81@LoadInt_e@4
  0011c	80 f2 ea	 xor	 dl, -22			; ffffffeaH
  0011f	88 55 ef	 mov	 BYTE PTR __k$[ebp+15], dl
  00122	8a 50 10	 mov	 dl, BYTE PTR [eax+16]
  00125	84 d2		 test	 dl, dl
  00127	0f 84 df 00 00
	00		 je	 $LN80@LoadInt_e@4
  0012d	80 f2 ed	 xor	 dl, -19			; ffffffedH
  00130	88 55 f0	 mov	 BYTE PTR __k$[ebp+16], dl
  00133	8a 50 11	 mov	 dl, BYTE PTR [eax+17]
  00136	84 d2		 test	 dl, dl
  00138	0f 84 c9 00 00
	00		 je	 $LN79@LoadInt_e@4
  0013e	32 d3		 xor	 dl, bl
  00140	88 55 f1	 mov	 BYTE PTR __k$[ebp+17], dl
  00143	8a 50 12	 mov	 dl, BYTE PTR [eax+18]
  00146	84 d2		 test	 dl, dl
  00148	0f 84 b4 00 00
	00		 je	 $LN78@LoadInt_e@4
  0014e	32 d1		 xor	 dl, cl
  00150	88 55 f2	 mov	 BYTE PTR __k$[ebp+18], dl
  00153	8a 50 13	 mov	 dl, BYTE PTR [eax+19]
  00156	84 d2		 test	 dl, dl
  00158	0f 84 9e 00 00
	00		 je	 $LN77@LoadInt_e@4
  0015e	80 f2 ea	 xor	 dl, -22			; ffffffeaH
  00161	88 55 f3	 mov	 BYTE PTR __k$[ebp+19], dl
  00164	8a 50 14	 mov	 dl, BYTE PTR [eax+20]
  00167	84 d2		 test	 dl, dl
  00169	0f 84 87 00 00
	00		 je	 $LN76@LoadInt_e@4
  0016f	80 f2 ed	 xor	 dl, -19			; ffffffedH
  00172	88 55 f4	 mov	 BYTE PTR __k$[ebp+20], dl
  00175	8a 50 15	 mov	 dl, BYTE PTR [eax+21]
  00178	84 d2		 test	 dl, dl
  0017a	74 75		 je	 SHORT $LN75@LoadInt_e@4
  0017c	32 d3		 xor	 dl, bl
  0017e	88 55 f5	 mov	 BYTE PTR __k$[ebp+21], dl
  00181	8a 50 16	 mov	 dl, BYTE PTR [eax+22]
  00184	84 d2		 test	 dl, dl
  00186	74 64		 je	 SHORT $LN74@LoadInt_e@4
  00188	32 d1		 xor	 dl, cl
  0018a	80 78 17 00	 cmp	 BYTE PTR [eax+23], 0
  0018e	88 55 f6	 mov	 BYTE PTR __k$[ebp+22], dl
  00191	0f 84 d3 00 00
	00		 je	 $LN1@LoadInt_e@4
  00197	8a 50 18	 mov	 dl, BYTE PTR [eax+24]
  0019a	84 d2		 test	 dl, dl
  0019c	74 48		 je	 SHORT $LN72@LoadInt_e@4
  0019e	80 f2 ed	 xor	 dl, -19			; ffffffedH
  001a1	88 55 f8	 mov	 BYTE PTR __k$[ebp+24], dl
  001a4	8a 50 19	 mov	 dl, BYTE PTR [eax+25]
  001a7	84 d2		 test	 dl, dl
  001a9	74 33		 je	 SHORT $LN71@LoadInt_e@4
  001ab	32 d3		 xor	 dl, bl
  001ad	88 55 f9	 mov	 BYTE PTR __k$[ebp+25], dl
  001b0	8a 50 1a	 mov	 dl, BYTE PTR [eax+26]
  001b3	84 d2		 test	 dl, dl
  001b5	74 1f		 je	 SHORT $LN70@LoadInt_e@4
  001b7	8a 40 1b	 mov	 al, BYTE PTR [eax+27]
  001ba	32 d1		 xor	 dl, cl
  001bc	88 55 fa	 mov	 BYTE PTR __k$[ebp+26], dl
  001bf	84 c0		 test	 al, al
  001c1	74 0a		 je	 SHORT $LN69@LoadInt_e@4
  001c3	34 ea		 xor	 al, -22			; ffffffeaH
  001c5	88 45 fb	 mov	 BYTE PTR __k$[ebp+27], al
  001c8	e9 9d 00 00 00	 jmp	 $LN1@LoadInt_e@4
$LN69@LoadInt_e@4:
  001cd	c6 45 fb ea	 mov	 BYTE PTR __k$[ebp+27], -22 ; ffffffeaH
  001d1	e9 94 00 00 00	 jmp	 $LN1@LoadInt_e@4
$LN70@LoadInt_e@4:
  001d6	88 4d fa	 mov	 BYTE PTR __k$[ebp+26], cl
  001d9	e9 8c 00 00 00	 jmp	 $LN1@LoadInt_e@4
$LN71@LoadInt_e@4:
  001de	88 5d f9	 mov	 BYTE PTR __k$[ebp+25], bl
  001e1	e9 84 00 00 00	 jmp	 $LN1@LoadInt_e@4
$LN72@LoadInt_e@4:
  001e6	c6 45 f8 ed	 mov	 BYTE PTR __k$[ebp+24], -19 ; ffffffedH
  001ea	eb 7e		 jmp	 SHORT $LN1@LoadInt_e@4
$LN74@LoadInt_e@4:
  001ec	88 4d f6	 mov	 BYTE PTR __k$[ebp+22], cl
  001ef	eb 79		 jmp	 SHORT $LN1@LoadInt_e@4
$LN75@LoadInt_e@4:
  001f1	88 5d f5	 mov	 BYTE PTR __k$[ebp+21], bl
  001f4	eb 74		 jmp	 SHORT $LN1@LoadInt_e@4
$LN76@LoadInt_e@4:
  001f6	c6 45 f4 ed	 mov	 BYTE PTR __k$[ebp+20], -19 ; ffffffedH
  001fa	eb 6e		 jmp	 SHORT $LN1@LoadInt_e@4
$LN77@LoadInt_e@4:
  001fc	c6 45 f3 ea	 mov	 BYTE PTR __k$[ebp+19], -22 ; ffffffeaH
  00200	eb 68		 jmp	 SHORT $LN1@LoadInt_e@4
$LN78@LoadInt_e@4:
  00202	88 4d f2	 mov	 BYTE PTR __k$[ebp+18], cl
  00205	eb 63		 jmp	 SHORT $LN1@LoadInt_e@4
$LN79@LoadInt_e@4:
  00207	88 5d f1	 mov	 BYTE PTR __k$[ebp+17], bl
  0020a	eb 5e		 jmp	 SHORT $LN1@LoadInt_e@4
$LN80@LoadInt_e@4:
  0020c	c6 45 f0 ed	 mov	 BYTE PTR __k$[ebp+16], -19 ; ffffffedH
  00210	eb 58		 jmp	 SHORT $LN1@LoadInt_e@4
$LN81@LoadInt_e@4:
  00212	c6 45 ef ea	 mov	 BYTE PTR __k$[ebp+15], -22 ; ffffffeaH
  00216	eb 52		 jmp	 SHORT $LN1@LoadInt_e@4
$LN82@LoadInt_e@4:
  00218	88 4d ee	 mov	 BYTE PTR __k$[ebp+14], cl
  0021b	eb 4d		 jmp	 SHORT $LN1@LoadInt_e@4
$LN83@LoadInt_e@4:
  0021d	88 5d ed	 mov	 BYTE PTR __k$[ebp+13], bl
  00220	eb 48		 jmp	 SHORT $LN1@LoadInt_e@4
$LN84@LoadInt_e@4:
  00222	c6 45 ec ed	 mov	 BYTE PTR __k$[ebp+12], -19 ; ffffffedH
  00226	eb 42		 jmp	 SHORT $LN1@LoadInt_e@4
$LN85@LoadInt_e@4:
  00228	c6 45 eb ea	 mov	 BYTE PTR __k$[ebp+11], -22 ; ffffffeaH
  0022c	eb 3c		 jmp	 SHORT $LN1@LoadInt_e@4
$LN86@LoadInt_e@4:
  0022e	88 4d ea	 mov	 BYTE PTR __k$[ebp+10], cl
  00231	eb 37		 jmp	 SHORT $LN1@LoadInt_e@4
$LN87@LoadInt_e@4:
  00233	88 5d e9	 mov	 BYTE PTR __k$[ebp+9], bl
  00236	eb 32		 jmp	 SHORT $LN1@LoadInt_e@4
$LN88@LoadInt_e@4:
  00238	c6 45 e8 ed	 mov	 BYTE PTR __k$[ebp+8], -19 ; ffffffedH
  0023c	eb 2c		 jmp	 SHORT $LN1@LoadInt_e@4
$LN89@LoadInt_e@4:
  0023e	c6 45 e7 ea	 mov	 BYTE PTR __k$[ebp+7], -22 ; ffffffeaH
  00242	eb 26		 jmp	 SHORT $LN1@LoadInt_e@4
$LN90@LoadInt_e@4:
  00244	88 4d e6	 mov	 BYTE PTR __k$[ebp+6], cl
  00247	eb 21		 jmp	 SHORT $LN1@LoadInt_e@4
$LN91@LoadInt_e@4:
  00249	88 5d e5	 mov	 BYTE PTR __k$[ebp+5], bl
  0024c	eb 1c		 jmp	 SHORT $LN1@LoadInt_e@4
$LN92@LoadInt_e@4:
  0024e	c6 45 e4 ed	 mov	 BYTE PTR __k$[ebp+4], -19 ; ffffffedH
  00252	eb 16		 jmp	 SHORT $LN1@LoadInt_e@4
$LN93@LoadInt_e@4:
  00254	c6 45 e3 ea	 mov	 BYTE PTR __k$[ebp+3], -22 ; ffffffeaH
  00258	eb 10		 jmp	 SHORT $LN1@LoadInt_e@4
$LN94@LoadInt_e@4:
  0025a	c6 45 e2 eb	 mov	 BYTE PTR __k$[ebp+2], -21 ; ffffffebH
  0025e	eb 0a		 jmp	 SHORT $LN1@LoadInt_e@4
$LN95@LoadInt_e@4:
  00260	c6 45 e1 ec	 mov	 BYTE PTR __k$[ebp+1], -20 ; ffffffecH
  00264	eb 04		 jmp	 SHORT $LN1@LoadInt_e@4
$LN96@LoadInt_e@4:
  00266	c6 45 e0 ed	 mov	 BYTE PTR __k$[ebp], -19	; ffffffedH
$LN1@LoadInt_e@4:
  0026a	6a 05		 push	 5
  0026c	8d 45 e0	 lea	 eax, DWORD PTR __k$[ebp]
  0026f	c6 45 f7 00	 mov	 BYTE PTR __k$[ebp+23], 0
  00273	5a		 pop	 edx
$LL104@LoadInt_e@4:
  00274	81 30 ed ec eb
	ea		 xor	 DWORD PTR [eax], -353637139 ; eaebecedH
  0027a	83 c0 04	 add	 eax, 4
  0027d	4a		 dec	 edx
  0027e	75 f4		 jne	 SHORT $LL104@LoadInt_e@4
  00280	6a 14		 push	 20			; 00000014H
  00282	58		 pop	 eax
$LL101@LoadInt_e@4:
  00283	8b c8		 mov	 ecx, eax
  00285	81 e1 03 00 00
	80		 and	 ecx, -2147483645	; 80000003H
  0028b	79 05		 jns	 SHORT $LN111@LoadInt_e@4
  0028d	49		 dec	 ecx
  0028e	83 c9 fc	 or	 ecx, -4			; fffffffcH
  00291	41		 inc	 ecx
$LN111@LoadInt_e@4:
  00292	b2 ed		 mov	 dl, -19			; ffffffedH
  00294	2a d1		 sub	 dl, cl
  00296	30 54 05 e0	 xor	 BYTE PTR __k$[ebp+eax], dl
  0029a	40		 inc	 eax
  0029b	83 f8 17	 cmp	 eax, 23			; 00000017H
  0029e	7c e3		 jl	 SHORT $LL101@LoadInt_e@4

; 120  : 		return LoadInt(_k, i);

  002a0	ff 75 0c	 push	 DWORD PTR _i$[ebp]
  002a3	8d 45 e0	 lea	 eax, DWORD PTR __k$[ebp]
  002a6	50		 push	 eax
  002a7	8b ce		 mov	 ecx, esi
  002a9	ff 15 00 00 00
	00		 call	 DWORD PTR __imp_?LoadInt@ioINILoader@@QAEHPBDH@Z

; 121  : 	}

  002af	8b 4d fc	 mov	 ecx, DWORD PTR __$ArrayPad$[ebp]
  002b2	5e		 pop	 esi
  002b3	33 cd		 xor	 ecx, ebp
  002b5	5b		 pop	 ebx
  002b6	e8 00 00 00 00	 call	 @__security_check_cookie@4
  002bb	c9		 leave
  002bc	c2 08 00	 ret	 8
??$LoadInt_e@$0BI@@ioINILoader@@QAEHAAY0BI@$$CBDH@Z ENDP ; ioINILoader::LoadInt_e<24>
_TEXT	ENDS
PUBLIC	__$ArrayPad$
PUBLIC	??$LoadFloat_e@$0BD@@ioINILoader@@QAEMAAY0BD@$$CBDM@Z ; ioINILoader::LoadFloat_e<19>
EXTRN	__imp_?LoadFloat@ioINILoader@@QAEMPBDM@Z:PROC
; Function compile flags: /Ogsp
;	COMDAT ??$LoadFloat_e@$0BD@@ioINILoader@@QAEMAAY0BD@$$CBDM@Z
_TEXT	SEGMENT
__k$ = -28						; size = 19
__$ArrayPad$ = -4					; size = 4
_k$ = 8							; size = 4
_f$ = 12						; size = 4
??$LoadFloat_e@$0BD@@ioINILoader@@QAEMAAY0BD@$$CBDM@Z PROC ; ioINILoader::LoadFloat_e<19>, COMDAT
; _this$ = ecx

; 135  : 	{

  00000	55		 push	 ebp
  00001	8b ec		 mov	 ebp, esp
  00003	83 ec 1c	 sub	 esp, 28			; 0000001cH
  00006	a1 00 00 00 00	 mov	 eax, DWORD PTR ___security_cookie
  0000b	33 c5		 xor	 eax, ebp
  0000d	89 45 fc	 mov	 DWORD PTR __$ArrayPad$[ebp], eax
  00010	8b 45 08	 mov	 eax, DWORD PTR _k$[ebp]

; 136  : 		_ENCSTR(k, _k);

  00013	8a 10		 mov	 dl, BYTE PTR [eax]
  00015	56		 push	 esi
  00016	8b f1		 mov	 esi, ecx
  00018	84 d2		 test	 dl, dl
  0001a	0f 84 cf 01 00
	00		 je	 $LN96@LoadFloat_
  00020	80 f2 ed	 xor	 dl, -19			; ffffffedH
  00023	88 55 e4	 mov	 BYTE PTR __k$[ebp], dl
  00026	8a 50 01	 mov	 dl, BYTE PTR [eax+1]
  00029	84 d2		 test	 dl, dl
  0002b	0f 84 b8 01 00
	00		 je	 $LN95@LoadFloat_
  00031	b1 ec		 mov	 cl, -20			; ffffffecH
  00033	32 d1		 xor	 dl, cl
  00035	88 55 e5	 mov	 BYTE PTR __k$[ebp+1], dl
  00038	8a 50 02	 mov	 dl, BYTE PTR [eax+2]
  0003b	84 d2		 test	 dl, dl
  0003d	0f 84 a0 01 00
	00		 je	 $LN94@LoadFloat_
  00043	80 f2 eb	 xor	 dl, -21			; ffffffebH
  00046	88 55 e6	 mov	 BYTE PTR __k$[ebp+2], dl
  00049	8a 50 03	 mov	 dl, BYTE PTR [eax+3]
  0004c	84 d2		 test	 dl, dl
  0004e	0f 84 89 01 00
	00		 je	 $LN93@LoadFloat_
  00054	80 f2 ea	 xor	 dl, -22			; ffffffeaH
  00057	88 55 e7	 mov	 BYTE PTR __k$[ebp+3], dl
  0005a	8a 50 04	 mov	 dl, BYTE PTR [eax+4]
  0005d	84 d2		 test	 dl, dl
  0005f	0f 84 72 01 00
	00		 je	 $LN92@LoadFloat_
  00065	80 f2 ed	 xor	 dl, -19			; ffffffedH
  00068	88 55 e8	 mov	 BYTE PTR __k$[ebp+4], dl
  0006b	8a 50 05	 mov	 dl, BYTE PTR [eax+5]
  0006e	84 d2		 test	 dl, dl
  00070	0f 84 5c 01 00
	00		 je	 $LN91@LoadFloat_
  00076	32 d1		 xor	 dl, cl
  00078	88 55 e9	 mov	 BYTE PTR __k$[ebp+5], dl
  0007b	8a 50 06	 mov	 dl, BYTE PTR [eax+6]
  0007e	84 d2		 test	 dl, dl
  00080	0f 84 46 01 00
	00		 je	 $LN90@LoadFloat_
  00086	80 f2 eb	 xor	 dl, -21			; ffffffebH
  00089	88 55 ea	 mov	 BYTE PTR __k$[ebp+6], dl
  0008c	8a 50 07	 mov	 dl, BYTE PTR [eax+7]
  0008f	84 d2		 test	 dl, dl
  00091	0f 84 2f 01 00
	00		 je	 $LN89@LoadFloat_
  00097	80 f2 ea	 xor	 dl, -22			; ffffffeaH
  0009a	88 55 eb	 mov	 BYTE PTR __k$[ebp+7], dl
  0009d	8a 50 08	 mov	 dl, BYTE PTR [eax+8]
  000a0	84 d2		 test	 dl, dl
  000a2	0f 84 18 01 00
	00		 je	 $LN88@LoadFloat_
  000a8	80 f2 ed	 xor	 dl, -19			; ffffffedH
  000ab	88 55 ec	 mov	 BYTE PTR __k$[ebp+8], dl
  000ae	8a 50 09	 mov	 dl, BYTE PTR [eax+9]
  000b1	84 d2		 test	 dl, dl
  000b3	0f 84 02 01 00
	00		 je	 $LN87@LoadFloat_
  000b9	32 d1		 xor	 dl, cl
  000bb	88 55 ed	 mov	 BYTE PTR __k$[ebp+9], dl
  000be	8a 50 0a	 mov	 dl, BYTE PTR [eax+10]
  000c1	84 d2		 test	 dl, dl
  000c3	0f 84 ec 00 00
	00		 je	 $LN86@LoadFloat_
  000c9	80 f2 eb	 xor	 dl, -21			; ffffffebH
  000cc	88 55 ee	 mov	 BYTE PTR __k$[ebp+10], dl
  000cf	8a 50 0b	 mov	 dl, BYTE PTR [eax+11]
  000d2	84 d2		 test	 dl, dl
  000d4	0f 84 d5 00 00
	00		 je	 $LN85@LoadFloat_
  000da	80 f2 ea	 xor	 dl, -22			; ffffffeaH
  000dd	88 55 ef	 mov	 BYTE PTR __k$[ebp+11], dl
  000e0	8a 50 0c	 mov	 dl, BYTE PTR [eax+12]
  000e3	84 d2		 test	 dl, dl
  000e5	0f 84 be 00 00
	00		 je	 $LN84@LoadFloat_
  000eb	80 f2 ed	 xor	 dl, -19			; ffffffedH
  000ee	88 55 f0	 mov	 BYTE PTR __k$[ebp+12], dl
  000f1	8a 50 0d	 mov	 dl, BYTE PTR [eax+13]
  000f4	84 d2		 test	 dl, dl
  000f6	0f 84 a8 00 00
	00		 je	 $LN83@LoadFloat_
  000fc	32 d1		 xor	 dl, cl
  000fe	88 55 f1	 mov	 BYTE PTR __k$[ebp+13], dl
  00101	8a 50 0e	 mov	 dl, BYTE PTR [eax+14]
  00104	84 d2		 test	 dl, dl
  00106	0f 84 92 00 00
	00		 je	 $LN82@LoadFloat_
  0010c	80 f2 eb	 xor	 dl, -21			; ffffffebH
  0010f	88 55 f2	 mov	 BYTE PTR __k$[ebp+14], dl
  00112	8a 50 0f	 mov	 dl, BYTE PTR [eax+15]
  00115	84 d2		 test	 dl, dl
  00117	74 7f		 je	 SHORT $LN81@LoadFloat_
  00119	80 f2 ea	 xor	 dl, -22			; ffffffeaH
  0011c	88 55 f3	 mov	 BYTE PTR __k$[ebp+15], dl
  0011f	8a 50 10	 mov	 dl, BYTE PTR [eax+16]
  00122	84 d2		 test	 dl, dl
  00124	74 6c		 je	 SHORT $LN80@LoadFloat_
  00126	80 f2 ed	 xor	 dl, -19			; ffffffedH
  00129	88 55 f4	 mov	 BYTE PTR __k$[ebp+16], dl
  0012c	8a 50 11	 mov	 dl, BYTE PTR [eax+17]
  0012f	84 d2		 test	 dl, dl
  00131	74 5a		 je	 SHORT $LN79@LoadFloat_
  00133	32 d1		 xor	 dl, cl
  00135	80 78 12 00	 cmp	 BYTE PTR [eax+18], 0
  00139	88 55 f5	 mov	 BYTE PTR __k$[ebp+17], dl
  0013c	0f 84 b1 00 00
	00		 je	 $LN1@LoadFloat_
  00142	8a 50 13	 mov	 dl, BYTE PTR [eax+19]
  00145	84 d2		 test	 dl, dl
  00147	74 3e		 je	 SHORT $LN77@LoadFloat_
  00149	80 f2 ea	 xor	 dl, -22			; ffffffeaH
  0014c	88 55 f7	 mov	 BYTE PTR __k$[ebp+19], dl
  0014f	8a 50 14	 mov	 dl, BYTE PTR [eax+20]
  00152	84 d2		 test	 dl, dl
  00154	74 2b		 je	 SHORT $LN76@LoadFloat_
  00156	80 f2 ed	 xor	 dl, -19			; ffffffedH
  00159	88 55 f8	 mov	 BYTE PTR __k$[ebp+20], dl
  0015c	8a 50 15	 mov	 dl, BYTE PTR [eax+21]
  0015f	84 d2		 test	 dl, dl
  00161	74 19		 je	 SHORT $LN75@LoadFloat_
  00163	8a 40 16	 mov	 al, BYTE PTR [eax+22]
  00166	32 d1		 xor	 dl, cl
  00168	88 55 f9	 mov	 BYTE PTR __k$[ebp+21], dl
  0016b	84 c0		 test	 al, al
  0016d	74 07		 je	 SHORT $LN74@LoadFloat_
  0016f	34 eb		 xor	 al, -21			; ffffffebH
  00171	88 45 fa	 mov	 BYTE PTR __k$[ebp+22], al
  00174	eb 7d		 jmp	 SHORT $LN1@LoadFloat_
$LN74@LoadFloat_:
  00176	c6 45 fa eb	 mov	 BYTE PTR __k$[ebp+22], -21 ; ffffffebH
  0017a	eb 77		 jmp	 SHORT $LN1@LoadFloat_
$LN75@LoadFloat_:
  0017c	88 4d f9	 mov	 BYTE PTR __k$[ebp+21], cl
  0017f	eb 72		 jmp	 SHORT $LN1@LoadFloat_
$LN76@LoadFloat_:
  00181	c6 45 f8 ed	 mov	 BYTE PTR __k$[ebp+20], -19 ; ffffffedH
  00185	eb 6c		 jmp	 SHORT $LN1@LoadFloat_
$LN77@LoadFloat_:
  00187	c6 45 f7 ea	 mov	 BYTE PTR __k$[ebp+19], -22 ; ffffffeaH
  0018b	eb 66		 jmp	 SHORT $LN1@LoadFloat_
$LN79@LoadFloat_:
  0018d	88 4d f5	 mov	 BYTE PTR __k$[ebp+17], cl
  00190	eb 61		 jmp	 SHORT $LN1@LoadFloat_
$LN80@LoadFloat_:
  00192	c6 45 f4 ed	 mov	 BYTE PTR __k$[ebp+16], -19 ; ffffffedH
  00196	eb 5b		 jmp	 SHORT $LN1@LoadFloat_
$LN81@LoadFloat_:
  00198	c6 45 f3 ea	 mov	 BYTE PTR __k$[ebp+15], -22 ; ffffffeaH
  0019c	eb 55		 jmp	 SHORT $LN1@LoadFloat_
$LN82@LoadFloat_:
  0019e	c6 45 f2 eb	 mov	 BYTE PTR __k$[ebp+14], -21 ; ffffffebH
  001a2	eb 4f		 jmp	 SHORT $LN1@LoadFloat_
$LN83@LoadFloat_:
  001a4	88 4d f1	 mov	 BYTE PTR __k$[ebp+13], cl
  001a7	eb 4a		 jmp	 SHORT $LN1@LoadFloat_
$LN84@LoadFloat_:
  001a9	c6 45 f0 ed	 mov	 BYTE PTR __k$[ebp+12], -19 ; ffffffedH
  001ad	eb 44		 jmp	 SHORT $LN1@LoadFloat_
$LN85@LoadFloat_:
  001af	c6 45 ef ea	 mov	 BYTE PTR __k$[ebp+11], -22 ; ffffffeaH
  001b3	eb 3e		 jmp	 SHORT $LN1@LoadFloat_
$LN86@LoadFloat_:
  001b5	c6 45 ee eb	 mov	 BYTE PTR __k$[ebp+10], -21 ; ffffffebH
  001b9	eb 38		 jmp	 SHORT $LN1@LoadFloat_
$LN87@LoadFloat_:
  001bb	88 4d ed	 mov	 BYTE PTR __k$[ebp+9], cl
  001be	eb 33		 jmp	 SHORT $LN1@LoadFloat_
$LN88@LoadFloat_:
  001c0	c6 45 ec ed	 mov	 BYTE PTR __k$[ebp+8], -19 ; ffffffedH
  001c4	eb 2d		 jmp	 SHORT $LN1@LoadFloat_
$LN89@LoadFloat_:
  001c6	c6 45 eb ea	 mov	 BYTE PTR __k$[ebp+7], -22 ; ffffffeaH
  001ca	eb 27		 jmp	 SHORT $LN1@LoadFloat_
$LN90@LoadFloat_:
  001cc	c6 45 ea eb	 mov	 BYTE PTR __k$[ebp+6], -21 ; ffffffebH
  001d0	eb 21		 jmp	 SHORT $LN1@LoadFloat_
$LN91@LoadFloat_:
  001d2	88 4d e9	 mov	 BYTE PTR __k$[ebp+5], cl
  001d5	eb 1c		 jmp	 SHORT $LN1@LoadFloat_
$LN92@LoadFloat_:
  001d7	c6 45 e8 ed	 mov	 BYTE PTR __k$[ebp+4], -19 ; ffffffedH
  001db	eb 16		 jmp	 SHORT $LN1@LoadFloat_
$LN93@LoadFloat_:
  001dd	c6 45 e7 ea	 mov	 BYTE PTR __k$[ebp+3], -22 ; ffffffeaH
  001e1	eb 10		 jmp	 SHORT $LN1@LoadFloat_
$LN94@LoadFloat_:
  001e3	c6 45 e6 eb	 mov	 BYTE PTR __k$[ebp+2], -21 ; ffffffebH
  001e7	eb 0a		 jmp	 SHORT $LN1@LoadFloat_
$LN95@LoadFloat_:
  001e9	c6 45 e5 ec	 mov	 BYTE PTR __k$[ebp+1], -20 ; ffffffecH
  001ed	eb 04		 jmp	 SHORT $LN1@LoadFloat_
$LN96@LoadFloat_:
  001ef	c6 45 e4 ed	 mov	 BYTE PTR __k$[ebp], -19	; ffffffedH
$LN1@LoadFloat_:
  001f3	6a 04		 push	 4
  001f5	8d 45 e4	 lea	 eax, DWORD PTR __k$[ebp]
  001f8	c6 45 f6 00	 mov	 BYTE PTR __k$[ebp+18], 0
  001fc	5a		 pop	 edx
$LL104@LoadFloat_:
  001fd	81 30 ed ec eb
	ea		 xor	 DWORD PTR [eax], -353637139 ; eaebecedH
  00203	83 c0 04	 add	 eax, 4
  00206	4a		 dec	 edx
  00207	75 f4		 jne	 SHORT $LL104@LoadFloat_
  00209	6a 10		 push	 16			; 00000010H
  0020b	58		 pop	 eax
$LL101@LoadFloat_:
  0020c	8b c8		 mov	 ecx, eax
  0020e	81 e1 03 00 00
	80		 and	 ecx, -2147483645	; 80000003H
  00214	79 05		 jns	 SHORT $LN111@LoadFloat_
  00216	49		 dec	 ecx
  00217	83 c9 fc	 or	 ecx, -4			; fffffffcH
  0021a	41		 inc	 ecx
$LN111@LoadFloat_:
  0021b	b2 ed		 mov	 dl, -19			; ffffffedH
  0021d	2a d1		 sub	 dl, cl
  0021f	30 54 05 e4	 xor	 BYTE PTR __k$[ebp+eax], dl
  00223	40		 inc	 eax
  00224	83 f8 12	 cmp	 eax, 18			; 00000012H
  00227	7c e3		 jl	 SHORT $LL101@LoadFloat_

; 137  : 		return LoadFloat(_k, f);

  00229	f3 0f 10 45 0c	 movss	 xmm0, DWORD PTR _f$[ebp]
  0022e	51		 push	 ecx
  0022f	8d 45 e4	 lea	 eax, DWORD PTR __k$[ebp]
  00232	f3 0f 11 04 24	 movss	 DWORD PTR [esp], xmm0
  00237	50		 push	 eax
  00238	8b ce		 mov	 ecx, esi
  0023a	ff 15 00 00 00
	00		 call	 DWORD PTR __imp_?LoadFloat@ioINILoader@@QAEMPBDM@Z

; 138  : 	}

  00240	8b 4d fc	 mov	 ecx, DWORD PTR __$ArrayPad$[ebp]
  00243	33 cd		 xor	 ecx, ebp
  00245	5e		 pop	 esi
  00246	e8 00 00 00 00	 call	 @__security_check_cookie@4
  0024b	c9		 leave
  0024c	c2 08 00	 ret	 8
??$LoadFloat_e@$0BD@@ioINILoader@@QAEMAAY0BD@$$CBDM@Z ENDP ; ioINILoader::LoadFloat_e<19>
_TEXT	ENDS
PUBLIC	__$ArrayPad$
PUBLIC	??$LoadFloat_e@$0BI@@ioINILoader@@QAEMAAY0BI@$$CBDM@Z ; ioINILoader::LoadFloat_e<24>
; Function compile flags: /Ogsp
;	COMDAT ??$LoadFloat_e@$0BI@@ioINILoader@@QAEMAAY0BI@$$CBDM@Z
_TEXT	SEGMENT
__k$ = -32						; size = 24
__$ArrayPad$ = -4					; size = 4
_k$ = 8							; size = 4
_f$ = 12						; size = 4
??$LoadFloat_e@$0BI@@ioINILoader@@QAEMAAY0BI@$$CBDM@Z PROC ; ioINILoader::LoadFloat_e<24>, COMDAT
; _this$ = ecx

; 135  : 	{

  00000	55		 push	 ebp
  00001	8b ec		 mov	 ebp, esp
  00003	83 ec 20	 sub	 esp, 32			; 00000020H
  00006	a1 00 00 00 00	 mov	 eax, DWORD PTR ___security_cookie
  0000b	33 c5		 xor	 eax, ebp
  0000d	89 45 fc	 mov	 DWORD PTR __$ArrayPad$[ebp], eax
  00010	8b 45 08	 mov	 eax, DWORD PTR _k$[ebp]

; 136  : 		_ENCSTR(k, _k);

  00013	8a 10		 mov	 dl, BYTE PTR [eax]
  00015	53		 push	 ebx
  00016	56		 push	 esi
  00017	8b f1		 mov	 esi, ecx
  00019	84 d2		 test	 dl, dl
  0001b	0f 84 45 02 00
	00		 je	 $LN96@LoadFloat_@2
  00021	80 f2 ed	 xor	 dl, -19			; ffffffedH
  00024	88 55 e0	 mov	 BYTE PTR __k$[ebp], dl
  00027	8a 50 01	 mov	 dl, BYTE PTR [eax+1]
  0002a	84 d2		 test	 dl, dl
  0002c	0f 84 2e 02 00
	00		 je	 $LN95@LoadFloat_@2
  00032	b3 ec		 mov	 bl, -20			; ffffffecH
  00034	32 d3		 xor	 dl, bl
  00036	88 55 e1	 mov	 BYTE PTR __k$[ebp+1], dl
  00039	8a 50 02	 mov	 dl, BYTE PTR [eax+2]
  0003c	84 d2		 test	 dl, dl
  0003e	0f 84 16 02 00
	00		 je	 $LN94@LoadFloat_@2
  00044	b1 eb		 mov	 cl, -21			; ffffffebH
  00046	32 d1		 xor	 dl, cl
  00048	88 55 e2	 mov	 BYTE PTR __k$[ebp+2], dl
  0004b	8a 50 03	 mov	 dl, BYTE PTR [eax+3]
  0004e	84 d2		 test	 dl, dl
  00050	0f 84 fe 01 00
	00		 je	 $LN93@LoadFloat_@2
  00056	80 f2 ea	 xor	 dl, -22			; ffffffeaH
  00059	88 55 e3	 mov	 BYTE PTR __k$[ebp+3], dl
  0005c	8a 50 04	 mov	 dl, BYTE PTR [eax+4]
  0005f	84 d2		 test	 dl, dl
  00061	0f 84 e7 01 00
	00		 je	 $LN92@LoadFloat_@2
  00067	80 f2 ed	 xor	 dl, -19			; ffffffedH
  0006a	88 55 e4	 mov	 BYTE PTR __k$[ebp+4], dl
  0006d	8a 50 05	 mov	 dl, BYTE PTR [eax+5]
  00070	84 d2		 test	 dl, dl
  00072	0f 84 d1 01 00
	00		 je	 $LN91@LoadFloat_@2
  00078	32 d3		 xor	 dl, bl
  0007a	88 55 e5	 mov	 BYTE PTR __k$[ebp+5], dl
  0007d	8a 50 06	 mov	 dl, BYTE PTR [eax+6]
  00080	84 d2		 test	 dl, dl
  00082	0f 84 bc 01 00
	00		 je	 $LN90@LoadFloat_@2
  00088	32 d1		 xor	 dl, cl
  0008a	88 55 e6	 mov	 BYTE PTR __k$[ebp+6], dl
  0008d	8a 50 07	 mov	 dl, BYTE PTR [eax+7]
  00090	84 d2		 test	 dl, dl
  00092	0f 84 a6 01 00
	00		 je	 $LN89@LoadFloat_@2
  00098	80 f2 ea	 xor	 dl, -22			; ffffffeaH
  0009b	88 55 e7	 mov	 BYTE PTR __k$[ebp+7], dl
  0009e	8a 50 08	 mov	 dl, BYTE PTR [eax+8]
  000a1	84 d2		 test	 dl, dl
  000a3	0f 84 8f 01 00
	00		 je	 $LN88@LoadFloat_@2
  000a9	80 f2 ed	 xor	 dl, -19			; ffffffedH
  000ac	88 55 e8	 mov	 BYTE PTR __k$[ebp+8], dl
  000af	8a 50 09	 mov	 dl, BYTE PTR [eax+9]
  000b2	84 d2		 test	 dl, dl
  000b4	0f 84 79 01 00
	00		 je	 $LN87@LoadFloat_@2
  000ba	32 d3		 xor	 dl, bl
  000bc	88 55 e9	 mov	 BYTE PTR __k$[ebp+9], dl
  000bf	8a 50 0a	 mov	 dl, BYTE PTR [eax+10]
  000c2	84 d2		 test	 dl, dl
  000c4	0f 84 64 01 00
	00		 je	 $LN86@LoadFloat_@2
  000ca	32 d1		 xor	 dl, cl
  000cc	88 55 ea	 mov	 BYTE PTR __k$[ebp+10], dl
  000cf	8a 50 0b	 mov	 dl, BYTE PTR [eax+11]
  000d2	84 d2		 test	 dl, dl
  000d4	0f 84 4e 01 00
	00		 je	 $LN85@LoadFloat_@2
  000da	80 f2 ea	 xor	 dl, -22			; ffffffeaH
  000dd	88 55 eb	 mov	 BYTE PTR __k$[ebp+11], dl
  000e0	8a 50 0c	 mov	 dl, BYTE PTR [eax+12]
  000e3	84 d2		 test	 dl, dl
  000e5	0f 84 37 01 00
	00		 je	 $LN84@LoadFloat_@2
  000eb	80 f2 ed	 xor	 dl, -19			; ffffffedH
  000ee	88 55 ec	 mov	 BYTE PTR __k$[ebp+12], dl
  000f1	8a 50 0d	 mov	 dl, BYTE PTR [eax+13]
  000f4	84 d2		 test	 dl, dl
  000f6	0f 84 21 01 00
	00		 je	 $LN83@LoadFloat_@2
  000fc	32 d3		 xor	 dl, bl
  000fe	88 55 ed	 mov	 BYTE PTR __k$[ebp+13], dl
  00101	8a 50 0e	 mov	 dl, BYTE PTR [eax+14]
  00104	84 d2		 test	 dl, dl
  00106	0f 84 0c 01 00
	00		 je	 $LN82@LoadFloat_@2
  0010c	32 d1		 xor	 dl, cl
  0010e	88 55 ee	 mov	 BYTE PTR __k$[ebp+14], dl
  00111	8a 50 0f	 mov	 dl, BYTE PTR [eax+15]
  00114	84 d2		 test	 dl, dl
  00116	0f 84 f6 00 00
	00		 je	 $LN81@LoadFloat_@2
  0011c	80 f2 ea	 xor	 dl, -22			; ffffffeaH
  0011f	88 55 ef	 mov	 BYTE PTR __k$[ebp+15], dl
  00122	8a 50 10	 mov	 dl, BYTE PTR [eax+16]
  00125	84 d2		 test	 dl, dl
  00127	0f 84 df 00 00
	00		 je	 $LN80@LoadFloat_@2
  0012d	80 f2 ed	 xor	 dl, -19			; ffffffedH
  00130	88 55 f0	 mov	 BYTE PTR __k$[ebp+16], dl
  00133	8a 50 11	 mov	 dl, BYTE PTR [eax+17]
  00136	84 d2		 test	 dl, dl
  00138	0f 84 c9 00 00
	00		 je	 $LN79@LoadFloat_@2
  0013e	32 d3		 xor	 dl, bl
  00140	88 55 f1	 mov	 BYTE PTR __k$[ebp+17], dl
  00143	8a 50 12	 mov	 dl, BYTE PTR [eax+18]
  00146	84 d2		 test	 dl, dl
  00148	0f 84 b4 00 00
	00		 je	 $LN78@LoadFloat_@2
  0014e	32 d1		 xor	 dl, cl
  00150	88 55 f2	 mov	 BYTE PTR __k$[ebp+18], dl
  00153	8a 50 13	 mov	 dl, BYTE PTR [eax+19]
  00156	84 d2		 test	 dl, dl
  00158	0f 84 9e 00 00
	00		 je	 $LN77@LoadFloat_@2
  0015e	80 f2 ea	 xor	 dl, -22			; ffffffeaH
  00161	88 55 f3	 mov	 BYTE PTR __k$[ebp+19], dl
  00164	8a 50 14	 mov	 dl, BYTE PTR [eax+20]
  00167	84 d2		 test	 dl, dl
  00169	0f 84 87 00 00
	00		 je	 $LN76@LoadFloat_@2
  0016f	80 f2 ed	 xor	 dl, -19			; ffffffedH
  00172	88 55 f4	 mov	 BYTE PTR __k$[ebp+20], dl
  00175	8a 50 15	 mov	 dl, BYTE PTR [eax+21]
  00178	84 d2		 test	 dl, dl
  0017a	74 75		 je	 SHORT $LN75@LoadFloat_@2
  0017c	32 d3		 xor	 dl, bl
  0017e	88 55 f5	 mov	 BYTE PTR __k$[ebp+21], dl
  00181	8a 50 16	 mov	 dl, BYTE PTR [eax+22]
  00184	84 d2		 test	 dl, dl
  00186	74 64		 je	 SHORT $LN74@LoadFloat_@2
  00188	32 d1		 xor	 dl, cl
  0018a	80 78 17 00	 cmp	 BYTE PTR [eax+23], 0
  0018e	88 55 f6	 mov	 BYTE PTR __k$[ebp+22], dl
  00191	0f 84 d3 00 00
	00		 je	 $LN1@LoadFloat_@2
  00197	8a 50 18	 mov	 dl, BYTE PTR [eax+24]
  0019a	84 d2		 test	 dl, dl
  0019c	74 48		 je	 SHORT $LN72@LoadFloat_@2
  0019e	80 f2 ed	 xor	 dl, -19			; ffffffedH
  001a1	88 55 f8	 mov	 BYTE PTR __k$[ebp+24], dl
  001a4	8a 50 19	 mov	 dl, BYTE PTR [eax+25]
  001a7	84 d2		 test	 dl, dl
  001a9	74 33		 je	 SHORT $LN71@LoadFloat_@2
  001ab	32 d3		 xor	 dl, bl
  001ad	88 55 f9	 mov	 BYTE PTR __k$[ebp+25], dl
  001b0	8a 50 1a	 mov	 dl, BYTE PTR [eax+26]
  001b3	84 d2		 test	 dl, dl
  001b5	74 1f		 je	 SHORT $LN70@LoadFloat_@2
  001b7	8a 40 1b	 mov	 al, BYTE PTR [eax+27]
  001ba	32 d1		 xor	 dl, cl
  001bc	88 55 fa	 mov	 BYTE PTR __k$[ebp+26], dl
  001bf	84 c0		 test	 al, al
  001c1	74 0a		 je	 SHORT $LN69@LoadFloat_@2
  001c3	34 ea		 xor	 al, -22			; ffffffeaH
  001c5	88 45 fb	 mov	 BYTE PTR __k$[ebp+27], al
  001c8	e9 9d 00 00 00	 jmp	 $LN1@LoadFloat_@2
$LN69@LoadFloat_@2:
  001cd	c6 45 fb ea	 mov	 BYTE PTR __k$[ebp+27], -22 ; ffffffeaH
  001d1	e9 94 00 00 00	 jmp	 $LN1@LoadFloat_@2
$LN70@LoadFloat_@2:
  001d6	88 4d fa	 mov	 BYTE PTR __k$[ebp+26], cl
  001d9	e9 8c 00 00 00	 jmp	 $LN1@LoadFloat_@2
$LN71@LoadFloat_@2:
  001de	88 5d f9	 mov	 BYTE PTR __k$[ebp+25], bl
  001e1	e9 84 00 00 00	 jmp	 $LN1@LoadFloat_@2
$LN72@LoadFloat_@2:
  001e6	c6 45 f8 ed	 mov	 BYTE PTR __k$[ebp+24], -19 ; ffffffedH
  001ea	eb 7e		 jmp	 SHORT $LN1@LoadFloat_@2
$LN74@LoadFloat_@2:
  001ec	88 4d f6	 mov	 BYTE PTR __k$[ebp+22], cl
  001ef	eb 79		 jmp	 SHORT $LN1@LoadFloat_@2
$LN75@LoadFloat_@2:
  001f1	88 5d f5	 mov	 BYTE PTR __k$[ebp+21], bl
  001f4	eb 74		 jmp	 SHORT $LN1@LoadFloat_@2
$LN76@LoadFloat_@2:
  001f6	c6 45 f4 ed	 mov	 BYTE PTR __k$[ebp+20], -19 ; ffffffedH
  001fa	eb 6e		 jmp	 SHORT $LN1@LoadFloat_@2
$LN77@LoadFloat_@2:
  001fc	c6 45 f3 ea	 mov	 BYTE PTR __k$[ebp+19], -22 ; ffffffeaH
  00200	eb 68		 jmp	 SHORT $LN1@LoadFloat_@2
$LN78@LoadFloat_@2:
  00202	88 4d f2	 mov	 BYTE PTR __k$[ebp+18], cl
  00205	eb 63		 jmp	 SHORT $LN1@LoadFloat_@2
$LN79@LoadFloat_@2:
  00207	88 5d f1	 mov	 BYTE PTR __k$[ebp+17], bl
  0020a	eb 5e		 jmp	 SHORT $LN1@LoadFloat_@2
$LN80@LoadFloat_@2:
  0020c	c6 45 f0 ed	 mov	 BYTE PTR __k$[ebp+16], -19 ; ffffffedH
  00210	eb 58		 jmp	 SHORT $LN1@LoadFloat_@2
$LN81@LoadFloat_@2:
  00212	c6 45 ef ea	 mov	 BYTE PTR __k$[ebp+15], -22 ; ffffffeaH
  00216	eb 52		 jmp	 SHORT $LN1@LoadFloat_@2
$LN82@LoadFloat_@2:
  00218	88 4d ee	 mov	 BYTE PTR __k$[ebp+14], cl
  0021b	eb 4d		 jmp	 SHORT $LN1@LoadFloat_@2
$LN83@LoadFloat_@2:
  0021d	88 5d ed	 mov	 BYTE PTR __k$[ebp+13], bl
  00220	eb 48		 jmp	 SHORT $LN1@LoadFloat_@2
$LN84@LoadFloat_@2:
  00222	c6 45 ec ed	 mov	 BYTE PTR __k$[ebp+12], -19 ; ffffffedH
  00226	eb 42		 jmp	 SHORT $LN1@LoadFloat_@2
$LN85@LoadFloat_@2:
  00228	c6 45 eb ea	 mov	 BYTE PTR __k$[ebp+11], -22 ; ffffffeaH
  0022c	eb 3c		 jmp	 SHORT $LN1@LoadFloat_@2
$LN86@LoadFloat_@2:
  0022e	88 4d ea	 mov	 BYTE PTR __k$[ebp+10], cl
  00231	eb 37		 jmp	 SHORT $LN1@LoadFloat_@2
$LN87@LoadFloat_@2:
  00233	88 5d e9	 mov	 BYTE PTR __k$[ebp+9], bl
  00236	eb 32		 jmp	 SHORT $LN1@LoadFloat_@2
$LN88@LoadFloat_@2:
  00238	c6 45 e8 ed	 mov	 BYTE PTR __k$[ebp+8], -19 ; ffffffedH
  0023c	eb 2c		 jmp	 SHORT $LN1@LoadFloat_@2
$LN89@LoadFloat_@2:
  0023e	c6 45 e7 ea	 mov	 BYTE PTR __k$[ebp+7], -22 ; ffffffeaH
  00242	eb 26		 jmp	 SHORT $LN1@LoadFloat_@2
$LN90@LoadFloat_@2:
  00244	88 4d e6	 mov	 BYTE PTR __k$[ebp+6], cl
  00247	eb 21		 jmp	 SHORT $LN1@LoadFloat_@2
$LN91@LoadFloat_@2:
  00249	88 5d e5	 mov	 BYTE PTR __k$[ebp+5], bl
  0024c	eb 1c		 jmp	 SHORT $LN1@LoadFloat_@2
$LN92@LoadFloat_@2:
  0024e	c6 45 e4 ed	 mov	 BYTE PTR __k$[ebp+4], -19 ; ffffffedH
  00252	eb 16		 jmp	 SHORT $LN1@LoadFloat_@2
$LN93@LoadFloat_@2:
  00254	c6 45 e3 ea	 mov	 BYTE PTR __k$[ebp+3], -22 ; ffffffeaH
  00258	eb 10		 jmp	 SHORT $LN1@LoadFloat_@2
$LN94@LoadFloat_@2:
  0025a	c6 45 e2 eb	 mov	 BYTE PTR __k$[ebp+2], -21 ; ffffffebH
  0025e	eb 0a		 jmp	 SHORT $LN1@LoadFloat_@2
$LN95@LoadFloat_@2:
  00260	c6 45 e1 ec	 mov	 BYTE PTR __k$[ebp+1], -20 ; ffffffecH
  00264	eb 04		 jmp	 SHORT $LN1@LoadFloat_@2
$LN96@LoadFloat_@2:
  00266	c6 45 e0 ed	 mov	 BYTE PTR __k$[ebp], -19	; ffffffedH
$LN1@LoadFloat_@2:
  0026a	6a 05		 push	 5
  0026c	8d 45 e0	 lea	 eax, DWORD PTR __k$[ebp]
  0026f	c6 45 f7 00	 mov	 BYTE PTR __k$[ebp+23], 0
  00273	5a		 pop	 edx
$LL104@LoadFloat_@2:
  00274	81 30 ed ec eb
	ea		 xor	 DWORD PTR [eax], -353637139 ; eaebecedH
  0027a	83 c0 04	 add	 eax, 4
  0027d	4a		 dec	 edx
  0027e	75 f4		 jne	 SHORT $LL104@LoadFloat_@2
  00280	6a 14		 push	 20			; 00000014H
  00282	58		 pop	 eax
$LL101@LoadFloat_@2:
  00283	8b c8		 mov	 ecx, eax
  00285	81 e1 03 00 00
	80		 and	 ecx, -2147483645	; 80000003H
  0028b	79 05		 jns	 SHORT $LN111@LoadFloat_@2
  0028d	49		 dec	 ecx
  0028e	83 c9 fc	 or	 ecx, -4			; fffffffcH
  00291	41		 inc	 ecx
$LN111@LoadFloat_@2:
  00292	b2 ed		 mov	 dl, -19			; ffffffedH
  00294	2a d1		 sub	 dl, cl
  00296	30 54 05 e0	 xor	 BYTE PTR __k$[ebp+eax], dl
  0029a	40		 inc	 eax
  0029b	83 f8 17	 cmp	 eax, 23			; 00000017H
  0029e	7c e3		 jl	 SHORT $LL101@LoadFloat_@2

; 137  : 		return LoadFloat(_k, f);

  002a0	f3 0f 10 45 0c	 movss	 xmm0, DWORD PTR _f$[ebp]
  002a5	51		 push	 ecx
  002a6	8d 45 e0	 lea	 eax, DWORD PTR __k$[ebp]
  002a9	f3 0f 11 04 24	 movss	 DWORD PTR [esp], xmm0
  002ae	50		 push	 eax
  002af	8b ce		 mov	 ecx, esi
  002b1	ff 15 00 00 00
	00		 call	 DWORD PTR __imp_?LoadFloat@ioINILoader@@QAEMPBDM@Z

; 138  : 	}

  002b7	8b 4d fc	 mov	 ecx, DWORD PTR __$ArrayPad$[ebp]
  002ba	5e		 pop	 esi
  002bb	33 cd		 xor	 ecx, ebp
  002bd	5b		 pop	 ebx
  002be	e8 00 00 00 00	 call	 @__security_check_cookie@4
  002c3	c9		 leave
  002c4	c2 08 00	 ret	 8
??$LoadFloat_e@$0BI@@ioINILoader@@QAEMAAY0BI@$$CBDM@Z ENDP ; ioINILoader::LoadFloat_e<24>
_TEXT	ENDS
PUBLIC	__$ArrayPad$
PUBLIC	??$LoadFloat_e@$0BE@@ioINILoader@@QAEMAAY0BE@$$CBDM@Z ; ioINILoader::LoadFloat_e<20>
; Function compile flags: /Ogsp
;	COMDAT ??$LoadFloat_e@$0BE@@ioINILoader@@QAEMAAY0BE@$$CBDM@Z
_TEXT	SEGMENT
__k$ = -28						; size = 20
__$ArrayPad$ = -4					; size = 4
_k$ = 8							; size = 4
_f$ = 12						; size = 4
??$LoadFloat_e@$0BE@@ioINILoader@@QAEMAAY0BE@$$CBDM@Z PROC ; ioINILoader::LoadFloat_e<20>, COMDAT
; _this$ = ecx

; 135  : 	{

  00000	55		 push	 ebp
  00001	8b ec		 mov	 ebp, esp
  00003	83 ec 1c	 sub	 esp, 28			; 0000001cH
  00006	a1 00 00 00 00	 mov	 eax, DWORD PTR ___security_cookie
  0000b	33 c5		 xor	 eax, ebp
  0000d	89 45 fc	 mov	 DWORD PTR __$ArrayPad$[ebp], eax
  00010	8b 45 08	 mov	 eax, DWORD PTR _k$[ebp]

; 136  : 		_ENCSTR(k, _k);

  00013	8a 10		 mov	 dl, BYTE PTR [eax]
  00015	53		 push	 ebx
  00016	56		 push	 esi
  00017	8b f1		 mov	 esi, ecx
  00019	84 d2		 test	 dl, dl
  0001b	0f 84 dd 01 00
	00		 je	 $LN96@LoadFloat_@3
  00021	80 f2 ed	 xor	 dl, -19			; ffffffedH
  00024	88 55 e4	 mov	 BYTE PTR __k$[ebp], dl
  00027	8a 50 01	 mov	 dl, BYTE PTR [eax+1]
  0002a	84 d2		 test	 dl, dl
  0002c	0f 84 c6 01 00
	00		 je	 $LN95@LoadFloat_@3
  00032	b3 ec		 mov	 bl, -20			; ffffffecH
  00034	32 d3		 xor	 dl, bl
  00036	88 55 e5	 mov	 BYTE PTR __k$[ebp+1], dl
  00039	8a 50 02	 mov	 dl, BYTE PTR [eax+2]
  0003c	84 d2		 test	 dl, dl
  0003e	0f 84 ae 01 00
	00		 je	 $LN94@LoadFloat_@3
  00044	b1 eb		 mov	 cl, -21			; ffffffebH
  00046	32 d1		 xor	 dl, cl
  00048	88 55 e6	 mov	 BYTE PTR __k$[ebp+2], dl
  0004b	8a 50 03	 mov	 dl, BYTE PTR [eax+3]
  0004e	84 d2		 test	 dl, dl
  00050	0f 84 96 01 00
	00		 je	 $LN93@LoadFloat_@3
  00056	80 f2 ea	 xor	 dl, -22			; ffffffeaH
  00059	88 55 e7	 mov	 BYTE PTR __k$[ebp+3], dl
  0005c	8a 50 04	 mov	 dl, BYTE PTR [eax+4]
  0005f	84 d2		 test	 dl, dl
  00061	0f 84 7f 01 00
	00		 je	 $LN92@LoadFloat_@3
  00067	80 f2 ed	 xor	 dl, -19			; ffffffedH
  0006a	88 55 e8	 mov	 BYTE PTR __k$[ebp+4], dl
  0006d	8a 50 05	 mov	 dl, BYTE PTR [eax+5]
  00070	84 d2		 test	 dl, dl
  00072	0f 84 69 01 00
	00		 je	 $LN91@LoadFloat_@3
  00078	32 d3		 xor	 dl, bl
  0007a	88 55 e9	 mov	 BYTE PTR __k$[ebp+5], dl
  0007d	8a 50 06	 mov	 dl, BYTE PTR [eax+6]
  00080	84 d2		 test	 dl, dl
  00082	0f 84 54 01 00
	00		 je	 $LN90@LoadFloat_@3
  00088	32 d1		 xor	 dl, cl
  0008a	88 55 ea	 mov	 BYTE PTR __k$[ebp+6], dl
  0008d	8a 50 07	 mov	 dl, BYTE PTR [eax+7]
  00090	84 d2		 test	 dl, dl
  00092	0f 84 3e 01 00
	00		 je	 $LN89@LoadFloat_@3
  00098	80 f2 ea	 xor	 dl, -22			; ffffffeaH
  0009b	88 55 eb	 mov	 BYTE PTR __k$[ebp+7], dl
  0009e	8a 50 08	 mov	 dl, BYTE PTR [eax+8]
  000a1	84 d2		 test	 dl, dl
  000a3	0f 84 27 01 00
	00		 je	 $LN88@LoadFloat_@3
  000a9	80 f2 ed	 xor	 dl, -19			; ffffffedH
  000ac	88 55 ec	 mov	 BYTE PTR __k$[ebp+8], dl
  000af	8a 50 09	 mov	 dl, BYTE PTR [eax+9]
  000b2	84 d2		 test	 dl, dl
  000b4	0f 84 11 01 00
	00		 je	 $LN87@LoadFloat_@3
  000ba	32 d3		 xor	 dl, bl
  000bc	88 55 ed	 mov	 BYTE PTR __k$[ebp+9], dl
  000bf	8a 50 0a	 mov	 dl, BYTE PTR [eax+10]
  000c2	84 d2		 test	 dl, dl
  000c4	0f 84 fc 00 00
	00		 je	 $LN86@LoadFloat_@3
  000ca	32 d1		 xor	 dl, cl
  000cc	88 55 ee	 mov	 BYTE PTR __k$[ebp+10], dl
  000cf	8a 50 0b	 mov	 dl, BYTE PTR [eax+11]
  000d2	84 d2		 test	 dl, dl
  000d4	0f 84 e6 00 00
	00		 je	 $LN85@LoadFloat_@3
  000da	80 f2 ea	 xor	 dl, -22			; ffffffeaH
  000dd	88 55 ef	 mov	 BYTE PTR __k$[ebp+11], dl
  000e0	8a 50 0c	 mov	 dl, BYTE PTR [eax+12]
  000e3	84 d2		 test	 dl, dl
  000e5	0f 84 cf 00 00
	00		 je	 $LN84@LoadFloat_@3
  000eb	80 f2 ed	 xor	 dl, -19			; ffffffedH
  000ee	88 55 f0	 mov	 BYTE PTR __k$[ebp+12], dl
  000f1	8a 50 0d	 mov	 dl, BYTE PTR [eax+13]
  000f4	84 d2		 test	 dl, dl
  000f6	0f 84 b9 00 00
	00		 je	 $LN83@LoadFloat_@3
  000fc	32 d3		 xor	 dl, bl
  000fe	88 55 f1	 mov	 BYTE PTR __k$[ebp+13], dl
  00101	8a 50 0e	 mov	 dl, BYTE PTR [eax+14]
  00104	84 d2		 test	 dl, dl
  00106	0f 84 a4 00 00
	00		 je	 $LN82@LoadFloat_@3
  0010c	32 d1		 xor	 dl, cl
  0010e	88 55 f2	 mov	 BYTE PTR __k$[ebp+14], dl
  00111	8a 50 0f	 mov	 dl, BYTE PTR [eax+15]
  00114	84 d2		 test	 dl, dl
  00116	0f 84 8e 00 00
	00		 je	 $LN81@LoadFloat_@3
  0011c	80 f2 ea	 xor	 dl, -22			; ffffffeaH
  0011f	88 55 f3	 mov	 BYTE PTR __k$[ebp+15], dl
  00122	8a 50 10	 mov	 dl, BYTE PTR [eax+16]
  00125	84 d2		 test	 dl, dl
  00127	74 7b		 je	 SHORT $LN80@LoadFloat_@3
  00129	80 f2 ed	 xor	 dl, -19			; ffffffedH
  0012c	88 55 f4	 mov	 BYTE PTR __k$[ebp+16], dl
  0012f	8a 50 11	 mov	 dl, BYTE PTR [eax+17]
  00132	84 d2		 test	 dl, dl
  00134	74 69		 je	 SHORT $LN79@LoadFloat_@3
  00136	32 d3		 xor	 dl, bl
  00138	88 55 f5	 mov	 BYTE PTR __k$[ebp+17], dl
  0013b	8a 50 12	 mov	 dl, BYTE PTR [eax+18]
  0013e	84 d2		 test	 dl, dl
  00140	74 58		 je	 SHORT $LN78@LoadFloat_@3
  00142	32 d1		 xor	 dl, cl
  00144	80 78 13 00	 cmp	 BYTE PTR [eax+19], 0
  00148	88 55 f6	 mov	 BYTE PTR __k$[ebp+18], dl
  0014b	0f 84 b1 00 00
	00		 je	 $LN1@LoadFloat_@3
  00151	8a 50 14	 mov	 dl, BYTE PTR [eax+20]
  00154	84 d2		 test	 dl, dl
  00156	74 3c		 je	 SHORT $LN76@LoadFloat_@3
  00158	80 f2 ed	 xor	 dl, -19			; ffffffedH
  0015b	88 55 f8	 mov	 BYTE PTR __k$[ebp+20], dl
  0015e	8a 50 15	 mov	 dl, BYTE PTR [eax+21]
  00161	84 d2		 test	 dl, dl
  00163	74 2a		 je	 SHORT $LN75@LoadFloat_@3
  00165	32 d3		 xor	 dl, bl
  00167	88 55 f9	 mov	 BYTE PTR __k$[ebp+21], dl
  0016a	8a 50 16	 mov	 dl, BYTE PTR [eax+22]
  0016d	84 d2		 test	 dl, dl
  0016f	74 19		 je	 SHORT $LN74@LoadFloat_@3
  00171	8a 40 17	 mov	 al, BYTE PTR [eax+23]
  00174	32 d1		 xor	 dl, cl
  00176	88 55 fa	 mov	 BYTE PTR __k$[ebp+22], dl
  00179	84 c0		 test	 al, al
  0017b	74 07		 je	 SHORT $LN73@LoadFloat_@3
  0017d	34 ea		 xor	 al, -22			; ffffffeaH
  0017f	88 45 fb	 mov	 BYTE PTR __k$[ebp+23], al
  00182	eb 7e		 jmp	 SHORT $LN1@LoadFloat_@3
$LN73@LoadFloat_@3:
  00184	c6 45 fb ea	 mov	 BYTE PTR __k$[ebp+23], -22 ; ffffffeaH
  00188	eb 78		 jmp	 SHORT $LN1@LoadFloat_@3
$LN74@LoadFloat_@3:
  0018a	88 4d fa	 mov	 BYTE PTR __k$[ebp+22], cl
  0018d	eb 73		 jmp	 SHORT $LN1@LoadFloat_@3
$LN75@LoadFloat_@3:
  0018f	88 5d f9	 mov	 BYTE PTR __k$[ebp+21], bl
  00192	eb 6e		 jmp	 SHORT $LN1@LoadFloat_@3
$LN76@LoadFloat_@3:
  00194	c6 45 f8 ed	 mov	 BYTE PTR __k$[ebp+20], -19 ; ffffffedH
  00198	eb 68		 jmp	 SHORT $LN1@LoadFloat_@3
$LN78@LoadFloat_@3:
  0019a	88 4d f6	 mov	 BYTE PTR __k$[ebp+18], cl
  0019d	eb 63		 jmp	 SHORT $LN1@LoadFloat_@3
$LN79@LoadFloat_@3:
  0019f	88 5d f5	 mov	 BYTE PTR __k$[ebp+17], bl
  001a2	eb 5e		 jmp	 SHORT $LN1@LoadFloat_@3
$LN80@LoadFloat_@3:
  001a4	c6 45 f4 ed	 mov	 BYTE PTR __k$[ebp+16], -19 ; ffffffedH
  001a8	eb 58		 jmp	 SHORT $LN1@LoadFloat_@3
$LN81@LoadFloat_@3:
  001aa	c6 45 f3 ea	 mov	 BYTE PTR __k$[ebp+15], -22 ; ffffffeaH
  001ae	eb 52		 jmp	 SHORT $LN1@LoadFloat_@3
$LN82@LoadFloat_@3:
  001b0	88 4d f2	 mov	 BYTE PTR __k$[ebp+14], cl
  001b3	eb 4d		 jmp	 SHORT $LN1@LoadFloat_@3
$LN83@LoadFloat_@3:
  001b5	88 5d f1	 mov	 BYTE PTR __k$[ebp+13], bl
  001b8	eb 48		 jmp	 SHORT $LN1@LoadFloat_@3
$LN84@LoadFloat_@3:
  001ba	c6 45 f0 ed	 mov	 BYTE PTR __k$[ebp+12], -19 ; ffffffedH
  001be	eb 42		 jmp	 SHORT $LN1@LoadFloat_@3
$LN85@LoadFloat_@3:
  001c0	c6 45 ef ea	 mov	 BYTE PTR __k$[ebp+11], -22 ; ffffffeaH
  001c4	eb 3c		 jmp	 SHORT $LN1@LoadFloat_@3
$LN86@LoadFloat_@3:
  001c6	88 4d ee	 mov	 BYTE PTR __k$[ebp+10], cl
  001c9	eb 37		 jmp	 SHORT $LN1@LoadFloat_@3
$LN87@LoadFloat_@3:
  001cb	88 5d ed	 mov	 BYTE PTR __k$[ebp+9], bl
  001ce	eb 32		 jmp	 SHORT $LN1@LoadFloat_@3
$LN88@LoadFloat_@3:
  001d0	c6 45 ec ed	 mov	 BYTE PTR __k$[ebp+8], -19 ; ffffffedH
  001d4	eb 2c		 jmp	 SHORT $LN1@LoadFloat_@3
$LN89@LoadFloat_@3:
  001d6	c6 45 eb ea	 mov	 BYTE PTR __k$[ebp+7], -22 ; ffffffeaH
  001da	eb 26		 jmp	 SHORT $LN1@LoadFloat_@3
$LN90@LoadFloat_@3:
  001dc	88 4d ea	 mov	 BYTE PTR __k$[ebp+6], cl
  001df	eb 21		 jmp	 SHORT $LN1@LoadFloat_@3
$LN91@LoadFloat_@3:
  001e1	88 5d e9	 mov	 BYTE PTR __k$[ebp+5], bl
  001e4	eb 1c		 jmp	 SHORT $LN1@LoadFloat_@3
$LN92@LoadFloat_@3:
  001e6	c6 45 e8 ed	 mov	 BYTE PTR __k$[ebp+4], -19 ; ffffffedH
  001ea	eb 16		 jmp	 SHORT $LN1@LoadFloat_@3
$LN93@LoadFloat_@3:
  001ec	c6 45 e7 ea	 mov	 BYTE PTR __k$[ebp+3], -22 ; ffffffeaH
  001f0	eb 10		 jmp	 SHORT $LN1@LoadFloat_@3
$LN94@LoadFloat_@3:
  001f2	c6 45 e6 eb	 mov	 BYTE PTR __k$[ebp+2], -21 ; ffffffebH
  001f6	eb 0a		 jmp	 SHORT $LN1@LoadFloat_@3
$LN95@LoadFloat_@3:
  001f8	c6 45 e5 ec	 mov	 BYTE PTR __k$[ebp+1], -20 ; ffffffecH
  001fc	eb 04		 jmp	 SHORT $LN1@LoadFloat_@3
$LN96@LoadFloat_@3:
  001fe	c6 45 e4 ed	 mov	 BYTE PTR __k$[ebp], -19	; ffffffedH
$LN1@LoadFloat_@3:
  00202	6a 04		 push	 4
  00204	8d 45 e4	 lea	 eax, DWORD PTR __k$[ebp]
  00207	c6 45 f7 00	 mov	 BYTE PTR __k$[ebp+19], 0
  0020b	5a		 pop	 edx
$LL104@LoadFloat_@3:
  0020c	81 30 ed ec eb
	ea		 xor	 DWORD PTR [eax], -353637139 ; eaebecedH
  00212	83 c0 04	 add	 eax, 4
  00215	4a		 dec	 edx
  00216	75 f4		 jne	 SHORT $LL104@LoadFloat_@3
  00218	6a 10		 push	 16			; 00000010H
  0021a	58		 pop	 eax
$LL101@LoadFloat_@3:
  0021b	8b c8		 mov	 ecx, eax
  0021d	81 e1 03 00 00
	80		 and	 ecx, -2147483645	; 80000003H
  00223	79 05		 jns	 SHORT $LN111@LoadFloat_@3
  00225	49		 dec	 ecx
  00226	83 c9 fc	 or	 ecx, -4			; fffffffcH
  00229	41		 inc	 ecx
$LN111@LoadFloat_@3:
  0022a	b2 ed		 mov	 dl, -19			; ffffffedH
  0022c	2a d1		 sub	 dl, cl
  0022e	30 54 05 e4	 xor	 BYTE PTR __k$[ebp+eax], dl
  00232	40		 inc	 eax
  00233	83 f8 13	 cmp	 eax, 19			; 00000013H
  00236	7c e3		 jl	 SHORT $LL101@LoadFloat_@3

; 137  : 		return LoadFloat(_k, f);

  00238	f3 0f 10 45 0c	 movss	 xmm0, DWORD PTR _f$[ebp]
  0023d	51		 push	 ecx
  0023e	8d 45 e4	 lea	 eax, DWORD PTR __k$[ebp]
  00241	f3 0f 11 04 24	 movss	 DWORD PTR [esp], xmm0
  00246	50		 push	 eax
  00247	8b ce		 mov	 ecx, esi
  00249	ff 15 00 00 00
	00		 call	 DWORD PTR __imp_?LoadFloat@ioINILoader@@QAEMPBDM@Z

; 138  : 	}

  0024f	8b 4d fc	 mov	 ecx, DWORD PTR __$ArrayPad$[ebp]
  00252	5e		 pop	 esi
  00253	33 cd		 xor	 ecx, ebp
  00255	5b		 pop	 ebx
  00256	e8 00 00 00 00	 call	 @__security_check_cookie@4
  0025b	c9		 leave
  0025c	c2 08 00	 ret	 8
??$LoadFloat_e@$0BE@@ioINILoader@@QAEMAAY0BE@$$CBDM@Z ENDP ; ioINILoader::LoadFloat_e<20>
_TEXT	ENDS
PUBLIC	_this$GSCopy$
PUBLIC	__$ArrayPad$
PUBLIC	??$LoadString_e@$0N@@ioINILoader@@QAEXAAY0N@$$CBDAAY00$$CBDPADH@Z ; ioINILoader::LoadString_e<13>
; Function compile flags: /Ogsp
;	COMDAT ??$LoadString_e@$0N@@ioINILoader@@QAEXAAY0N@$$CBDAAY00$$CBDPADH@Z
_TEXT	SEGMENT
_this$GSCopy$ = -28					; size = 4
__k$ = -24						; size = 13
__$ArrayPad$ = -4					; size = 4
_k$ = 8							; size = 4
_d$ = 12						; size = 4
_b$ = 16						; size = 4
_i$ = 20						; size = 4
??$LoadString_e@$0N@@ioINILoader@@QAEXAAY0N@$$CBDAAY00$$CBDPADH@Z PROC ; ioINILoader::LoadString_e<13>, COMDAT
; _this$ = ecx

; 161  : 	{

  00000	55		 push	 ebp
  00001	8b ec		 mov	 ebp, esp
  00003	83 ec 1c	 sub	 esp, 28			; 0000001cH
  00006	a1 00 00 00 00	 mov	 eax, DWORD PTR ___security_cookie
  0000b	33 c5		 xor	 eax, ebp
  0000d	89 45 fc	 mov	 DWORD PTR __$ArrayPad$[ebp], eax
  00010	8b 45 08	 mov	 eax, DWORD PTR _k$[ebp]

; 162  : 		_ENCSTR(k, _k);

  00013	8a 10		 mov	 dl, BYTE PTR [eax]
  00015	56		 push	 esi
  00016	8b 75 0c	 mov	 esi, DWORD PTR _d$[ebp]
  00019	57		 push	 edi
  0001a	8b 7d 10	 mov	 edi, DWORD PTR _b$[ebp]
  0001d	89 4d e4	 mov	 DWORD PTR _this$GSCopy$[ebp], ecx
  00020	84 d2		 test	 dl, dl
  00022	0f 84 4d 01 00
	00		 je	 $LN96@LoadString@2
  00028	80 f2 ed	 xor	 dl, -19			; ffffffedH
  0002b	88 55 e8	 mov	 BYTE PTR __k$[ebp], dl
  0002e	8a 50 01	 mov	 dl, BYTE PTR [eax+1]
  00031	84 d2		 test	 dl, dl
  00033	0f 84 36 01 00
	00		 je	 $LN95@LoadString@2
  00039	b1 ec		 mov	 cl, -20			; ffffffecH
  0003b	32 d1		 xor	 dl, cl
  0003d	88 55 e9	 mov	 BYTE PTR __k$[ebp+1], dl
  00040	8a 50 02	 mov	 dl, BYTE PTR [eax+2]
  00043	84 d2		 test	 dl, dl
  00045	0f 84 1e 01 00
	00		 je	 $LN94@LoadString@2
  0004b	80 f2 eb	 xor	 dl, -21			; ffffffebH
  0004e	88 55 ea	 mov	 BYTE PTR __k$[ebp+2], dl
  00051	8a 50 03	 mov	 dl, BYTE PTR [eax+3]
  00054	84 d2		 test	 dl, dl
  00056	0f 84 07 01 00
	00		 je	 $LN93@LoadString@2
  0005c	80 f2 ea	 xor	 dl, -22			; ffffffeaH
  0005f	88 55 eb	 mov	 BYTE PTR __k$[ebp+3], dl
  00062	8a 50 04	 mov	 dl, BYTE PTR [eax+4]
  00065	84 d2		 test	 dl, dl
  00067	0f 84 f0 00 00
	00		 je	 $LN92@LoadString@2
  0006d	80 f2 ed	 xor	 dl, -19			; ffffffedH
  00070	88 55 ec	 mov	 BYTE PTR __k$[ebp+4], dl
  00073	8a 50 05	 mov	 dl, BYTE PTR [eax+5]
  00076	84 d2		 test	 dl, dl
  00078	0f 84 da 00 00
	00		 je	 $LN91@LoadString@2
  0007e	32 d1		 xor	 dl, cl
  00080	88 55 ed	 mov	 BYTE PTR __k$[ebp+5], dl
  00083	8a 50 06	 mov	 dl, BYTE PTR [eax+6]
  00086	84 d2		 test	 dl, dl
  00088	0f 84 c4 00 00
	00		 je	 $LN90@LoadString@2
  0008e	80 f2 eb	 xor	 dl, -21			; ffffffebH
  00091	88 55 ee	 mov	 BYTE PTR __k$[ebp+6], dl
  00094	8a 50 07	 mov	 dl, BYTE PTR [eax+7]
  00097	84 d2		 test	 dl, dl
  00099	0f 84 ad 00 00
	00		 je	 $LN89@LoadString@2
  0009f	80 f2 ea	 xor	 dl, -22			; ffffffeaH
  000a2	88 55 ef	 mov	 BYTE PTR __k$[ebp+7], dl
  000a5	8a 50 08	 mov	 dl, BYTE PTR [eax+8]
  000a8	84 d2		 test	 dl, dl
  000aa	0f 84 96 00 00
	00		 je	 $LN88@LoadString@2
  000b0	80 f2 ed	 xor	 dl, -19			; ffffffedH
  000b3	88 55 f0	 mov	 BYTE PTR __k$[ebp+8], dl
  000b6	8a 50 09	 mov	 dl, BYTE PTR [eax+9]
  000b9	84 d2		 test	 dl, dl
  000bb	0f 84 80 00 00
	00		 je	 $LN87@LoadString@2
  000c1	32 d1		 xor	 dl, cl
  000c3	88 55 f1	 mov	 BYTE PTR __k$[ebp+9], dl
  000c6	8a 50 0a	 mov	 dl, BYTE PTR [eax+10]
  000c9	84 d2		 test	 dl, dl
  000cb	74 6e		 je	 SHORT $LN86@LoadString@2
  000cd	80 f2 eb	 xor	 dl, -21			; ffffffebH
  000d0	88 55 f2	 mov	 BYTE PTR __k$[ebp+10], dl
  000d3	8a 50 0b	 mov	 dl, BYTE PTR [eax+11]
  000d6	84 d2		 test	 dl, dl
  000d8	74 5b		 je	 SHORT $LN85@LoadString@2
  000da	80 f2 ea	 xor	 dl, -22			; ffffffeaH
  000dd	80 78 0c 00	 cmp	 BYTE PTR [eax+12], 0
  000e1	88 55 f3	 mov	 BYTE PTR __k$[ebp+11], dl
  000e4	0f 84 8f 00 00
	00		 je	 $LN111@LoadString@2
  000ea	8a 50 0d	 mov	 dl, BYTE PTR [eax+13]
  000ed	84 d2		 test	 dl, dl
  000ef	74 3f		 je	 SHORT $LN83@LoadString@2
  000f1	32 d1		 xor	 dl, cl
  000f3	88 55 f5	 mov	 BYTE PTR __k$[ebp+13], dl
  000f6	8a 50 0e	 mov	 dl, BYTE PTR [eax+14]
  000f9	84 d2		 test	 dl, dl
  000fb	74 2d		 je	 SHORT $LN82@LoadString@2
  000fd	80 f2 eb	 xor	 dl, -21			; ffffffebH
  00100	88 55 f6	 mov	 BYTE PTR __k$[ebp+14], dl
  00103	8a 50 0f	 mov	 dl, BYTE PTR [eax+15]
  00106	84 d2		 test	 dl, dl
  00108	74 1a		 je	 SHORT $LN81@LoadString@2
  0010a	8a 40 10	 mov	 al, BYTE PTR [eax+16]
  0010d	80 f2 ea	 xor	 dl, -22			; ffffffeaH
  00110	88 55 f7	 mov	 BYTE PTR __k$[ebp+15], dl
  00113	84 c0		 test	 al, al
  00115	74 07		 je	 SHORT $LN80@LoadString@2
  00117	34 ed		 xor	 al, -19			; ffffffedH
  00119	88 45 f8	 mov	 BYTE PTR __k$[ebp+16], al
  0011c	eb 5b		 jmp	 SHORT $LN111@LoadString@2
$LN80@LoadString@2:
  0011e	c6 45 f8 ed	 mov	 BYTE PTR __k$[ebp+16], -19 ; ffffffedH
  00122	eb 55		 jmp	 SHORT $LN111@LoadString@2
$LN81@LoadString@2:
  00124	c6 45 f7 ea	 mov	 BYTE PTR __k$[ebp+15], -22 ; ffffffeaH
  00128	eb 4f		 jmp	 SHORT $LN111@LoadString@2
$LN82@LoadString@2:
  0012a	c6 45 f6 eb	 mov	 BYTE PTR __k$[ebp+14], -21 ; ffffffebH
  0012e	eb 49		 jmp	 SHORT $LN111@LoadString@2
$LN83@LoadString@2:
  00130	88 4d f5	 mov	 BYTE PTR __k$[ebp+13], cl
  00133	eb 44		 jmp	 SHORT $LN111@LoadString@2
$LN85@LoadString@2:
  00135	c6 45 f3 ea	 mov	 BYTE PTR __k$[ebp+11], -22 ; ffffffeaH
  00139	eb 3e		 jmp	 SHORT $LN111@LoadString@2
$LN86@LoadString@2:
  0013b	c6 45 f2 eb	 mov	 BYTE PTR __k$[ebp+10], -21 ; ffffffebH
  0013f	eb 38		 jmp	 SHORT $LN111@LoadString@2
$LN87@LoadString@2:
  00141	88 4d f1	 mov	 BYTE PTR __k$[ebp+9], cl
  00144	eb 33		 jmp	 SHORT $LN111@LoadString@2
$LN88@LoadString@2:
  00146	c6 45 f0 ed	 mov	 BYTE PTR __k$[ebp+8], -19 ; ffffffedH
  0014a	eb 2d		 jmp	 SHORT $LN111@LoadString@2
$LN89@LoadString@2:
  0014c	c6 45 ef ea	 mov	 BYTE PTR __k$[ebp+7], -22 ; ffffffeaH
  00150	eb 27		 jmp	 SHORT $LN111@LoadString@2
$LN90@LoadString@2:
  00152	c6 45 ee eb	 mov	 BYTE PTR __k$[ebp+6], -21 ; ffffffebH
  00156	eb 21		 jmp	 SHORT $LN111@LoadString@2
$LN91@LoadString@2:
  00158	88 4d ed	 mov	 BYTE PTR __k$[ebp+5], cl
  0015b	eb 1c		 jmp	 SHORT $LN111@LoadString@2
$LN92@LoadString@2:
  0015d	c6 45 ec ed	 mov	 BYTE PTR __k$[ebp+4], -19 ; ffffffedH
  00161	eb 16		 jmp	 SHORT $LN111@LoadString@2
$LN93@LoadString@2:
  00163	c6 45 eb ea	 mov	 BYTE PTR __k$[ebp+3], -22 ; ffffffeaH
  00167	eb 10		 jmp	 SHORT $LN111@LoadString@2
$LN94@LoadString@2:
  00169	c6 45 ea eb	 mov	 BYTE PTR __k$[ebp+2], -21 ; ffffffebH
  0016d	eb 0a		 jmp	 SHORT $LN111@LoadString@2
$LN95@LoadString@2:
  0016f	c6 45 e9 ec	 mov	 BYTE PTR __k$[ebp+1], -20 ; ffffffecH
  00173	eb 04		 jmp	 SHORT $LN111@LoadString@2
$LN96@LoadString@2:
  00175	c6 45 e8 ed	 mov	 BYTE PTR __k$[ebp], -19	; ffffffedH
$LN111@LoadString@2:
  00179	6a 03		 push	 3
  0017b	8d 45 e8	 lea	 eax, DWORD PTR __k$[ebp]
  0017e	c6 45 f4 00	 mov	 BYTE PTR __k$[ebp+12], 0
  00182	5a		 pop	 edx
$LL104@LoadString@2:
  00183	81 30 ed ec eb
	ea		 xor	 DWORD PTR [eax], -353637139 ; eaebecedH
  00189	83 c0 04	 add	 eax, 4
  0018c	4a		 dec	 edx
  0018d	75 f4		 jne	 SHORT $LL104@LoadString@2

; 163  : 		LoadString(_k, d, b, i);

  0018f	ff 75 14	 push	 DWORD PTR _i$[ebp]
  00192	8b 4d e4	 mov	 ecx, DWORD PTR _this$GSCopy$[ebp]
  00195	57		 push	 edi
  00196	56		 push	 esi
  00197	8d 45 e8	 lea	 eax, DWORD PTR __k$[ebp]
  0019a	50		 push	 eax
  0019b	ff 15 00 00 00
	00		 call	 DWORD PTR __imp_?LoadStringA@ioINILoader@@QAEXPBD0PADH@Z

; 164  : 	}

  001a1	8b 4d fc	 mov	 ecx, DWORD PTR __$ArrayPad$[ebp]
  001a4	5f		 pop	 edi
  001a5	33 cd		 xor	 ecx, ebp
  001a7	5e		 pop	 esi
  001a8	e8 00 00 00 00	 call	 @__security_check_cookie@4
  001ad	c9		 leave
  001ae	c2 10 00	 ret	 16			; 00000010H
??$LoadString_e@$0N@@ioINILoader@@QAEXAAY0N@$$CBDAAY00$$CBDPADH@Z ENDP ; ioINILoader::LoadString_e<13>
_TEXT	ENDS
PUBLIC	_this$GSCopy$
PUBLIC	__$ArrayPad$
PUBLIC	??$LoadString_e@$0BA@@ioINILoader@@QAEXAAY0BA@$$CBDAAY00$$CBDPADH@Z ; ioINILoader::LoadString_e<16>
; Function compile flags: /Ogsp
;	COMDAT ??$LoadString_e@$0BA@@ioINILoader@@QAEXAAY0BA@$$CBDAAY00$$CBDPADH@Z
_TEXT	SEGMENT
_this$GSCopy$ = -28					; size = 4
__k$ = -24						; size = 16
__$ArrayPad$ = -4					; size = 4
_k$ = 8							; size = 4
_d$ = 12						; size = 4
_b$ = 16						; size = 4
_i$ = 20						; size = 4
??$LoadString_e@$0BA@@ioINILoader@@QAEXAAY0BA@$$CBDAAY00$$CBDPADH@Z PROC ; ioINILoader::LoadString_e<16>, COMDAT
; _this$ = ecx

; 161  : 	{

  00000	55		 push	 ebp
  00001	8b ec		 mov	 ebp, esp
  00003	83 ec 1c	 sub	 esp, 28			; 0000001cH
  00006	a1 00 00 00 00	 mov	 eax, DWORD PTR ___security_cookie
  0000b	33 c5		 xor	 eax, ebp
  0000d	89 45 fc	 mov	 DWORD PTR __$ArrayPad$[ebp], eax
  00010	8b 45 08	 mov	 eax, DWORD PTR _k$[ebp]

; 162  : 		_ENCSTR(k, _k);

  00013	8a 10		 mov	 dl, BYTE PTR [eax]
  00015	56		 push	 esi
  00016	8b 75 0c	 mov	 esi, DWORD PTR _d$[ebp]
  00019	57		 push	 edi
  0001a	8b 7d 10	 mov	 edi, DWORD PTR _b$[ebp]
  0001d	89 4d e4	 mov	 DWORD PTR _this$GSCopy$[ebp], ecx
  00020	84 d2		 test	 dl, dl
  00022	0f 84 8c 01 00
	00		 je	 $LN96@LoadString@3
  00028	80 f2 ed	 xor	 dl, -19			; ffffffedH
  0002b	88 55 e8	 mov	 BYTE PTR __k$[ebp], dl
  0002e	8a 50 01	 mov	 dl, BYTE PTR [eax+1]
  00031	84 d2		 test	 dl, dl
  00033	0f 84 75 01 00
	00		 je	 $LN95@LoadString@3
  00039	80 f2 ec	 xor	 dl, -20			; ffffffecH
  0003c	88 55 e9	 mov	 BYTE PTR __k$[ebp+1], dl
  0003f	8a 50 02	 mov	 dl, BYTE PTR [eax+2]
  00042	84 d2		 test	 dl, dl
  00044	0f 84 5e 01 00
	00		 je	 $LN94@LoadString@3
  0004a	b1 eb		 mov	 cl, -21			; ffffffebH
  0004c	32 d1		 xor	 dl, cl
  0004e	88 55 ea	 mov	 BYTE PTR __k$[ebp+2], dl
  00051	8a 50 03	 mov	 dl, BYTE PTR [eax+3]
  00054	84 d2		 test	 dl, dl
  00056	0f 84 46 01 00
	00		 je	 $LN93@LoadString@3
  0005c	80 f2 ea	 xor	 dl, -22			; ffffffeaH
  0005f	88 55 eb	 mov	 BYTE PTR __k$[ebp+3], dl
  00062	8a 50 04	 mov	 dl, BYTE PTR [eax+4]
  00065	84 d2		 test	 dl, dl
  00067	0f 84 2f 01 00
	00		 je	 $LN92@LoadString@3
  0006d	80 f2 ed	 xor	 dl, -19			; ffffffedH
  00070	88 55 ec	 mov	 BYTE PTR __k$[ebp+4], dl
  00073	8a 50 05	 mov	 dl, BYTE PTR [eax+5]
  00076	84 d2		 test	 dl, dl
  00078	0f 84 18 01 00
	00		 je	 $LN91@LoadString@3
  0007e	80 f2 ec	 xor	 dl, -20			; ffffffecH
  00081	88 55 ed	 mov	 BYTE PTR __k$[ebp+5], dl
  00084	8a 50 06	 mov	 dl, BYTE PTR [eax+6]
  00087	84 d2		 test	 dl, dl
  00089	0f 84 02 01 00
	00		 je	 $LN90@LoadString@3
  0008f	32 d1		 xor	 dl, cl
  00091	88 55 ee	 mov	 BYTE PTR __k$[ebp+6], dl
  00094	8a 50 07	 mov	 dl, BYTE PTR [eax+7]
  00097	84 d2		 test	 dl, dl
  00099	0f 84 ec 00 00
	00		 je	 $LN89@LoadString@3
  0009f	80 f2 ea	 xor	 dl, -22			; ffffffeaH
  000a2	88 55 ef	 mov	 BYTE PTR __k$[ebp+7], dl
  000a5	8a 50 08	 mov	 dl, BYTE PTR [eax+8]
  000a8	84 d2		 test	 dl, dl
  000aa	0f 84 d5 00 00
	00		 je	 $LN88@LoadString@3
  000b0	80 f2 ed	 xor	 dl, -19			; ffffffedH
  000b3	88 55 f0	 mov	 BYTE PTR __k$[ebp+8], dl
  000b6	8a 50 09	 mov	 dl, BYTE PTR [eax+9]
  000b9	84 d2		 test	 dl, dl
  000bb	0f 84 be 00 00
	00		 je	 $LN87@LoadString@3
  000c1	80 f2 ec	 xor	 dl, -20			; ffffffecH
  000c4	88 55 f1	 mov	 BYTE PTR __k$[ebp+9], dl
  000c7	8a 50 0a	 mov	 dl, BYTE PTR [eax+10]
  000ca	84 d2		 test	 dl, dl
  000cc	0f 84 a8 00 00
	00		 je	 $LN86@LoadString@3
  000d2	32 d1		 xor	 dl, cl
  000d4	88 55 f2	 mov	 BYTE PTR __k$[ebp+10], dl
  000d7	8a 50 0b	 mov	 dl, BYTE PTR [eax+11]
  000da	84 d2		 test	 dl, dl
  000dc	0f 84 92 00 00
	00		 je	 $LN85@LoadString@3
  000e2	80 f2 ea	 xor	 dl, -22			; ffffffeaH
  000e5	88 55 f3	 mov	 BYTE PTR __k$[ebp+11], dl
  000e8	8a 50 0c	 mov	 dl, BYTE PTR [eax+12]
  000eb	84 d2		 test	 dl, dl
  000ed	74 7f		 je	 SHORT $LN84@LoadString@3
  000ef	80 f2 ed	 xor	 dl, -19			; ffffffedH
  000f2	88 55 f4	 mov	 BYTE PTR __k$[ebp+12], dl
  000f5	8a 50 0d	 mov	 dl, BYTE PTR [eax+13]
  000f8	84 d2		 test	 dl, dl
  000fa	74 6c		 je	 SHORT $LN83@LoadString@3
  000fc	80 f2 ec	 xor	 dl, -20			; ffffffecH
  000ff	88 55 f5	 mov	 BYTE PTR __k$[ebp+13], dl
  00102	8a 50 0e	 mov	 dl, BYTE PTR [eax+14]
  00105	84 d2		 test	 dl, dl
  00107	74 5a		 je	 SHORT $LN82@LoadString@3
  00109	32 d1		 xor	 dl, cl
  0010b	80 78 0f 00	 cmp	 BYTE PTR [eax+15], 0
  0010f	88 55 f6	 mov	 BYTE PTR __k$[ebp+14], dl
  00112	0f 84 a0 00 00
	00		 je	 $LN111@LoadString@3
  00118	8a 50 10	 mov	 dl, BYTE PTR [eax+16]
  0011b	84 d2		 test	 dl, dl
  0011d	74 3e		 je	 SHORT $LN80@LoadString@3
  0011f	80 f2 ed	 xor	 dl, -19			; ffffffedH
  00122	88 55 f8	 mov	 BYTE PTR __k$[ebp+16], dl
  00125	8a 50 11	 mov	 dl, BYTE PTR [eax+17]
  00128	84 d2		 test	 dl, dl
  0012a	74 2b		 je	 SHORT $LN79@LoadString@3
  0012c	80 f2 ec	 xor	 dl, -20			; ffffffecH
  0012f	88 55 f9	 mov	 BYTE PTR __k$[ebp+17], dl
  00132	8a 50 12	 mov	 dl, BYTE PTR [eax+18]
  00135	84 d2		 test	 dl, dl
  00137	74 19		 je	 SHORT $LN78@LoadString@3
  00139	8a 40 13	 mov	 al, BYTE PTR [eax+19]
  0013c	32 d1		 xor	 dl, cl
  0013e	88 55 fa	 mov	 BYTE PTR __k$[ebp+18], dl
  00141	84 c0		 test	 al, al
  00143	74 07		 je	 SHORT $LN77@LoadString@3
  00145	34 ea		 xor	 al, -22			; ffffffeaH
  00147	88 45 fb	 mov	 BYTE PTR __k$[ebp+19], al
  0014a	eb 6c		 jmp	 SHORT $LN111@LoadString@3
$LN77@LoadString@3:
  0014c	c6 45 fb ea	 mov	 BYTE PTR __k$[ebp+19], -22 ; ffffffeaH
  00150	eb 66		 jmp	 SHORT $LN111@LoadString@3
$LN78@LoadString@3:
  00152	88 4d fa	 mov	 BYTE PTR __k$[ebp+18], cl
  00155	eb 61		 jmp	 SHORT $LN111@LoadString@3
$LN79@LoadString@3:
  00157	c6 45 f9 ec	 mov	 BYTE PTR __k$[ebp+17], -20 ; ffffffecH
  0015b	eb 5b		 jmp	 SHORT $LN111@LoadString@3
$LN80@LoadString@3:
  0015d	c6 45 f8 ed	 mov	 BYTE PTR __k$[ebp+16], -19 ; ffffffedH
  00161	eb 55		 jmp	 SHORT $LN111@LoadString@3
$LN82@LoadString@3:
  00163	88 4d f6	 mov	 BYTE PTR __k$[ebp+14], cl
  00166	eb 50		 jmp	 SHORT $LN111@LoadString@3
$LN83@LoadString@3:
  00168	c6 45 f5 ec	 mov	 BYTE PTR __k$[ebp+13], -20 ; ffffffecH
  0016c	eb 4a		 jmp	 SHORT $LN111@LoadString@3
$LN84@LoadString@3:
  0016e	c6 45 f4 ed	 mov	 BYTE PTR __k$[ebp+12], -19 ; ffffffedH
  00172	eb 44		 jmp	 SHORT $LN111@LoadString@3
$LN85@LoadString@3:
  00174	c6 45 f3 ea	 mov	 BYTE PTR __k$[ebp+11], -22 ; ffffffeaH
  00178	eb 3e		 jmp	 SHORT $LN111@LoadString@3
$LN86@LoadString@3:
  0017a	88 4d f2	 mov	 BYTE PTR __k$[ebp+10], cl
  0017d	eb 39		 jmp	 SHORT $LN111@LoadString@3
$LN87@LoadString@3:
  0017f	c6 45 f1 ec	 mov	 BYTE PTR __k$[ebp+9], -20 ; ffffffecH
  00183	eb 33		 jmp	 SHORT $LN111@LoadString@3
$LN88@LoadString@3:
  00185	c6 45 f0 ed	 mov	 BYTE PTR __k$[ebp+8], -19 ; ffffffedH
  00189	eb 2d		 jmp	 SHORT $LN111@LoadString@3
$LN89@LoadString@3:
  0018b	c6 45 ef ea	 mov	 BYTE PTR __k$[ebp+7], -22 ; ffffffeaH
  0018f	eb 27		 jmp	 SHORT $LN111@LoadString@3
$LN90@LoadString@3:
  00191	88 4d ee	 mov	 BYTE PTR __k$[ebp+6], cl
  00194	eb 22		 jmp	 SHORT $LN111@LoadString@3
$LN91@LoadString@3:
  00196	c6 45 ed ec	 mov	 BYTE PTR __k$[ebp+5], -20 ; ffffffecH
  0019a	eb 1c		 jmp	 SHORT $LN111@LoadString@3
$LN92@LoadString@3:
  0019c	c6 45 ec ed	 mov	 BYTE PTR __k$[ebp+4], -19 ; ffffffedH
  001a0	eb 16		 jmp	 SHORT $LN111@LoadString@3
$LN93@LoadString@3:
  001a2	c6 45 eb ea	 mov	 BYTE PTR __k$[ebp+3], -22 ; ffffffeaH
  001a6	eb 10		 jmp	 SHORT $LN111@LoadString@3
$LN94@LoadString@3:
  001a8	c6 45 ea eb	 mov	 BYTE PTR __k$[ebp+2], -21 ; ffffffebH
  001ac	eb 0a		 jmp	 SHORT $LN111@LoadString@3
$LN95@LoadString@3:
  001ae	c6 45 e9 ec	 mov	 BYTE PTR __k$[ebp+1], -20 ; ffffffecH
  001b2	eb 04		 jmp	 SHORT $LN111@LoadString@3
$LN96@LoadString@3:
  001b4	c6 45 e8 ed	 mov	 BYTE PTR __k$[ebp], -19	; ffffffedH
$LN111@LoadString@3:
  001b8	6a 03		 push	 3
  001ba	8d 45 e8	 lea	 eax, DWORD PTR __k$[ebp]
  001bd	c6 45 f7 00	 mov	 BYTE PTR __k$[ebp+15], 0
  001c1	5a		 pop	 edx
$LL104@LoadString@3:
  001c2	81 30 ed ec eb
	ea		 xor	 DWORD PTR [eax], -353637139 ; eaebecedH
  001c8	83 c0 04	 add	 eax, 4
  001cb	4a		 dec	 edx
  001cc	75 f4		 jne	 SHORT $LL104@LoadString@3
  001ce	6a 0c		 push	 12			; 0000000cH
  001d0	58		 pop	 eax
$LL101@LoadString@3:
  001d1	8b c8		 mov	 ecx, eax
  001d3	81 e1 03 00 00
	80		 and	 ecx, -2147483645	; 80000003H
  001d9	79 05		 jns	 SHORT $LN112@LoadString@3
  001db	49		 dec	 ecx
  001dc	83 c9 fc	 or	 ecx, -4			; fffffffcH
  001df	41		 inc	 ecx
$LN112@LoadString@3:
  001e0	b2 ed		 mov	 dl, -19			; ffffffedH
  001e2	2a d1		 sub	 dl, cl
  001e4	30 54 05 e8	 xor	 BYTE PTR __k$[ebp+eax], dl
  001e8	40		 inc	 eax
  001e9	83 f8 0f	 cmp	 eax, 15			; 0000000fH
  001ec	7c e3		 jl	 SHORT $LL101@LoadString@3

; 163  : 		LoadString(_k, d, b, i);

  001ee	ff 75 14	 push	 DWORD PTR _i$[ebp]
  001f1	8b 4d e4	 mov	 ecx, DWORD PTR _this$GSCopy$[ebp]
  001f4	57		 push	 edi
  001f5	56		 push	 esi
  001f6	8d 45 e8	 lea	 eax, DWORD PTR __k$[ebp]
  001f9	50		 push	 eax
  001fa	ff 15 00 00 00
	00		 call	 DWORD PTR __imp_?LoadStringA@ioINILoader@@QAEXPBD0PADH@Z

; 164  : 	}

  00200	8b 4d fc	 mov	 ecx, DWORD PTR __$ArrayPad$[ebp]
  00203	5f		 pop	 edi
  00204	33 cd		 xor	 ecx, ebp
  00206	5e		 pop	 esi
  00207	e8 00 00 00 00	 call	 @__security_check_cookie@4
  0020c	c9		 leave
  0020d	c2 10 00	 ret	 16			; 00000010H
??$LoadString_e@$0BA@@ioINILoader@@QAEXAAY0BA@$$CBDAAY00$$CBDPADH@Z ENDP ; ioINILoader::LoadString_e<16>
_TEXT	ENDS
PUBLIC	_this$GSCopy$
PUBLIC	__$ArrayPad$
PUBLIC	??$LoadString_e@$0BB@@ioINILoader@@QAEXAAY0BB@$$CBDAAY00$$CBDPADH@Z ; ioINILoader::LoadString_e<17>
; Function compile flags: /Ogsp
;	COMDAT ??$LoadString_e@$0BB@@ioINILoader@@QAEXAAY0BB@$$CBDAAY00$$CBDPADH@Z
_TEXT	SEGMENT
_this$GSCopy$ = -32					; size = 4
__k$ = -28						; size = 17
__$ArrayPad$ = -4					; size = 4
_k$ = 8							; size = 4
_d$ = 12						; size = 4
_b$ = 16						; size = 4
_i$ = 20						; size = 4
??$LoadString_e@$0BB@@ioINILoader@@QAEXAAY0BB@$$CBDAAY00$$CBDPADH@Z PROC ; ioINILoader::LoadString_e<17>, COMDAT
; _this$ = ecx

; 161  : 	{

  00000	55		 push	 ebp
  00001	8b ec		 mov	 ebp, esp
  00003	83 ec 20	 sub	 esp, 32			; 00000020H
  00006	a1 00 00 00 00	 mov	 eax, DWORD PTR ___security_cookie
  0000b	33 c5		 xor	 eax, ebp
  0000d	89 45 fc	 mov	 DWORD PTR __$ArrayPad$[ebp], eax
  00010	8b 45 08	 mov	 eax, DWORD PTR _k$[ebp]

; 162  : 		_ENCSTR(k, _k);

  00013	8a 10		 mov	 dl, BYTE PTR [eax]
  00015	56		 push	 esi
  00016	8b 75 0c	 mov	 esi, DWORD PTR _d$[ebp]
  00019	57		 push	 edi
  0001a	8b 7d 10	 mov	 edi, DWORD PTR _b$[ebp]
  0001d	89 4d e0	 mov	 DWORD PTR _this$GSCopy$[ebp], ecx
  00020	84 d2		 test	 dl, dl
  00022	0f 84 a7 01 00
	00		 je	 $LN96@LoadString@4
  00028	80 f2 ed	 xor	 dl, -19			; ffffffedH
  0002b	88 55 e4	 mov	 BYTE PTR __k$[ebp], dl
  0002e	8a 50 01	 mov	 dl, BYTE PTR [eax+1]
  00031	84 d2		 test	 dl, dl
  00033	0f 84 90 01 00
	00		 je	 $LN95@LoadString@4
  00039	b1 ec		 mov	 cl, -20			; ffffffecH
  0003b	32 d1		 xor	 dl, cl
  0003d	88 55 e5	 mov	 BYTE PTR __k$[ebp+1], dl
  00040	8a 50 02	 mov	 dl, BYTE PTR [eax+2]
  00043	84 d2		 test	 dl, dl
  00045	0f 84 78 01 00
	00		 je	 $LN94@LoadString@4
  0004b	80 f2 eb	 xor	 dl, -21			; ffffffebH
  0004e	88 55 e6	 mov	 BYTE PTR __k$[ebp+2], dl
  00051	8a 50 03	 mov	 dl, BYTE PTR [eax+3]
  00054	84 d2		 test	 dl, dl
  00056	0f 84 61 01 00
	00		 je	 $LN93@LoadString@4
  0005c	80 f2 ea	 xor	 dl, -22			; ffffffeaH
  0005f	88 55 e7	 mov	 BYTE PTR __k$[ebp+3], dl
  00062	8a 50 04	 mov	 dl, BYTE PTR [eax+4]
  00065	84 d2		 test	 dl, dl
  00067	0f 84 4a 01 00
	00		 je	 $LN92@LoadString@4
  0006d	80 f2 ed	 xor	 dl, -19			; ffffffedH
  00070	88 55 e8	 mov	 BYTE PTR __k$[ebp+4], dl
  00073	8a 50 05	 mov	 dl, BYTE PTR [eax+5]
  00076	84 d2		 test	 dl, dl
  00078	0f 84 34 01 00
	00		 je	 $LN91@LoadString@4
  0007e	32 d1		 xor	 dl, cl
  00080	88 55 e9	 mov	 BYTE PTR __k$[ebp+5], dl
  00083	8a 50 06	 mov	 dl, BYTE PTR [eax+6]
  00086	84 d2		 test	 dl, dl
  00088	0f 84 1e 01 00
	00		 je	 $LN90@LoadString@4
  0008e	80 f2 eb	 xor	 dl, -21			; ffffffebH
  00091	88 55 ea	 mov	 BYTE PTR __k$[ebp+6], dl
  00094	8a 50 07	 mov	 dl, BYTE PTR [eax+7]
  00097	84 d2		 test	 dl, dl
  00099	0f 84 07 01 00
	00		 je	 $LN89@LoadString@4
  0009f	80 f2 ea	 xor	 dl, -22			; ffffffeaH
  000a2	88 55 eb	 mov	 BYTE PTR __k$[ebp+7], dl
  000a5	8a 50 08	 mov	 dl, BYTE PTR [eax+8]
  000a8	84 d2		 test	 dl, dl
  000aa	0f 84 f0 00 00
	00		 je	 $LN88@LoadString@4
  000b0	80 f2 ed	 xor	 dl, -19			; ffffffedH
  000b3	88 55 ec	 mov	 BYTE PTR __k$[ebp+8], dl
  000b6	8a 50 09	 mov	 dl, BYTE PTR [eax+9]
  000b9	84 d2		 test	 dl, dl
  000bb	0f 84 da 00 00
	00		 je	 $LN87@LoadString@4
  000c1	32 d1		 xor	 dl, cl
  000c3	88 55 ed	 mov	 BYTE PTR __k$[ebp+9], dl
  000c6	8a 50 0a	 mov	 dl, BYTE PTR [eax+10]
  000c9	84 d2		 test	 dl, dl
  000cb	0f 84 c4 00 00
	00		 je	 $LN86@LoadString@4
  000d1	80 f2 eb	 xor	 dl, -21			; ffffffebH
  000d4	88 55 ee	 mov	 BYTE PTR __k$[ebp+10], dl
  000d7	8a 50 0b	 mov	 dl, BYTE PTR [eax+11]
  000da	84 d2		 test	 dl, dl
  000dc	0f 84 ad 00 00
	00		 je	 $LN85@LoadString@4
  000e2	80 f2 ea	 xor	 dl, -22			; ffffffeaH
  000e5	88 55 ef	 mov	 BYTE PTR __k$[ebp+11], dl
  000e8	8a 50 0c	 mov	 dl, BYTE PTR [eax+12]
  000eb	84 d2		 test	 dl, dl
  000ed	0f 84 96 00 00
	00		 je	 $LN84@LoadString@4
  000f3	80 f2 ed	 xor	 dl, -19			; ffffffedH
  000f6	88 55 f0	 mov	 BYTE PTR __k$[ebp+12], dl
  000f9	8a 50 0d	 mov	 dl, BYTE PTR [eax+13]
  000fc	84 d2		 test	 dl, dl
  000fe	0f 84 80 00 00
	00		 je	 $LN83@LoadString@4
  00104	32 d1		 xor	 dl, cl
  00106	88 55 f1	 mov	 BYTE PTR __k$[ebp+13], dl
  00109	8a 50 0e	 mov	 dl, BYTE PTR [eax+14]
  0010c	84 d2		 test	 dl, dl
  0010e	74 6e		 je	 SHORT $LN82@LoadString@4
  00110	80 f2 eb	 xor	 dl, -21			; ffffffebH
  00113	88 55 f2	 mov	 BYTE PTR __k$[ebp+14], dl
  00116	8a 50 0f	 mov	 dl, BYTE PTR [eax+15]
  00119	84 d2		 test	 dl, dl
  0011b	74 5b		 je	 SHORT $LN81@LoadString@4
  0011d	80 f2 ea	 xor	 dl, -22			; ffffffeaH
  00120	80 78 10 00	 cmp	 BYTE PTR [eax+16], 0
  00124	88 55 f3	 mov	 BYTE PTR __k$[ebp+15], dl
  00127	0f 84 a6 00 00
	00		 je	 $LN111@LoadString@4
  0012d	8a 50 11	 mov	 dl, BYTE PTR [eax+17]
  00130	84 d2		 test	 dl, dl
  00132	74 3f		 je	 SHORT $LN79@LoadString@4
  00134	32 d1		 xor	 dl, cl
  00136	88 55 f5	 mov	 BYTE PTR __k$[ebp+17], dl
  00139	8a 50 12	 mov	 dl, BYTE PTR [eax+18]
  0013c	84 d2		 test	 dl, dl
  0013e	74 2d		 je	 SHORT $LN78@LoadString@4
  00140	80 f2 eb	 xor	 dl, -21			; ffffffebH
  00143	88 55 f6	 mov	 BYTE PTR __k$[ebp+18], dl
  00146	8a 50 13	 mov	 dl, BYTE PTR [eax+19]
  00149	84 d2		 test	 dl, dl
  0014b	74 1a		 je	 SHORT $LN77@LoadString@4
  0014d	8a 40 14	 mov	 al, BYTE PTR [eax+20]
  00150	80 f2 ea	 xor	 dl, -22			; ffffffeaH
  00153	88 55 f7	 mov	 BYTE PTR __k$[ebp+19], dl
  00156	84 c0		 test	 al, al
  00158	74 07		 je	 SHORT $LN76@LoadString@4
  0015a	34 ed		 xor	 al, -19			; ffffffedH
  0015c	88 45 f8	 mov	 BYTE PTR __k$[ebp+20], al
  0015f	eb 72		 jmp	 SHORT $LN111@LoadString@4
$LN76@LoadString@4:
  00161	c6 45 f8 ed	 mov	 BYTE PTR __k$[ebp+20], -19 ; ffffffedH
  00165	eb 6c		 jmp	 SHORT $LN111@LoadString@4
$LN77@LoadString@4:
  00167	c6 45 f7 ea	 mov	 BYTE PTR __k$[ebp+19], -22 ; ffffffeaH
  0016b	eb 66		 jmp	 SHORT $LN111@LoadString@4
$LN78@LoadString@4:
  0016d	c6 45 f6 eb	 mov	 BYTE PTR __k$[ebp+18], -21 ; ffffffebH
  00171	eb 60		 jmp	 SHORT $LN111@LoadString@4
$LN79@LoadString@4:
  00173	88 4d f5	 mov	 BYTE PTR __k$[ebp+17], cl
  00176	eb 5b		 jmp	 SHORT $LN111@LoadString@4
$LN81@LoadString@4:
  00178	c6 45 f3 ea	 mov	 BYTE PTR __k$[ebp+15], -22 ; ffffffeaH
  0017c	eb 55		 jmp	 SHORT $LN111@LoadString@4
$LN82@LoadString@4:
  0017e	c6 45 f2 eb	 mov	 BYTE PTR __k$[ebp+14], -21 ; ffffffebH
  00182	eb 4f		 jmp	 SHORT $LN111@LoadString@4
$LN83@LoadString@4:
  00184	88 4d f1	 mov	 BYTE PTR __k$[ebp+13], cl
  00187	eb 4a		 jmp	 SHORT $LN111@LoadString@4
$LN84@LoadString@4:
  00189	c6 45 f0 ed	 mov	 BYTE PTR __k$[ebp+12], -19 ; ffffffedH
  0018d	eb 44		 jmp	 SHORT $LN111@LoadString@4
$LN85@LoadString@4:
  0018f	c6 45 ef ea	 mov	 BYTE PTR __k$[ebp+11], -22 ; ffffffeaH
  00193	eb 3e		 jmp	 SHORT $LN111@LoadString@4
$LN86@LoadString@4:
  00195	c6 45 ee eb	 mov	 BYTE PTR __k$[ebp+10], -21 ; ffffffebH
  00199	eb 38		 jmp	 SHORT $LN111@LoadString@4
$LN87@LoadString@4:
  0019b	88 4d ed	 mov	 BYTE PTR __k$[ebp+9], cl
  0019e	eb 33		 jmp	 SHORT $LN111@LoadString@4
$LN88@LoadString@4:
  001a0	c6 45 ec ed	 mov	 BYTE PTR __k$[ebp+8], -19 ; ffffffedH
  001a4	eb 2d		 jmp	 SHORT $LN111@LoadString@4
$LN89@LoadString@4:
  001a6	c6 45 eb ea	 mov	 BYTE PTR __k$[ebp+7], -22 ; ffffffeaH
  001aa	eb 27		 jmp	 SHORT $LN111@LoadString@4
$LN90@LoadString@4:
  001ac	c6 45 ea eb	 mov	 BYTE PTR __k$[ebp+6], -21 ; ffffffebH
  001b0	eb 21		 jmp	 SHORT $LN111@LoadString@4
$LN91@LoadString@4:
  001b2	88 4d e9	 mov	 BYTE PTR __k$[ebp+5], cl
  001b5	eb 1c		 jmp	 SHORT $LN111@LoadString@4
$LN92@LoadString@4:
  001b7	c6 45 e8 ed	 mov	 BYTE PTR __k$[ebp+4], -19 ; ffffffedH
  001bb	eb 16		 jmp	 SHORT $LN111@LoadString@4
$LN93@LoadString@4:
  001bd	c6 45 e7 ea	 mov	 BYTE PTR __k$[ebp+3], -22 ; ffffffeaH
  001c1	eb 10		 jmp	 SHORT $LN111@LoadString@4
$LN94@LoadString@4:
  001c3	c6 45 e6 eb	 mov	 BYTE PTR __k$[ebp+2], -21 ; ffffffebH
  001c7	eb 0a		 jmp	 SHORT $LN111@LoadString@4
$LN95@LoadString@4:
  001c9	c6 45 e5 ec	 mov	 BYTE PTR __k$[ebp+1], -20 ; ffffffecH
  001cd	eb 04		 jmp	 SHORT $LN111@LoadString@4
$LN96@LoadString@4:
  001cf	c6 45 e4 ed	 mov	 BYTE PTR __k$[ebp], -19	; ffffffedH
$LN111@LoadString@4:
  001d3	6a 04		 push	 4
  001d5	8d 45 e4	 lea	 eax, DWORD PTR __k$[ebp]
  001d8	c6 45 f4 00	 mov	 BYTE PTR __k$[ebp+16], 0
  001dc	5a		 pop	 edx
$LL104@LoadString@4:
  001dd	81 30 ed ec eb
	ea		 xor	 DWORD PTR [eax], -353637139 ; eaebecedH
  001e3	83 c0 04	 add	 eax, 4
  001e6	4a		 dec	 edx
  001e7	75 f4		 jne	 SHORT $LL104@LoadString@4

; 163  : 		LoadString(_k, d, b, i);

  001e9	ff 75 14	 push	 DWORD PTR _i$[ebp]
  001ec	8b 4d e0	 mov	 ecx, DWORD PTR _this$GSCopy$[ebp]
  001ef	57		 push	 edi
  001f0	56		 push	 esi
  001f1	8d 45 e4	 lea	 eax, DWORD PTR __k$[ebp]
  001f4	50		 push	 eax
  001f5	ff 15 00 00 00
	00		 call	 DWORD PTR __imp_?LoadStringA@ioINILoader@@QAEXPBD0PADH@Z

; 164  : 	}

  001fb	8b 4d fc	 mov	 ecx, DWORD PTR __$ArrayPad$[ebp]
  001fe	5f		 pop	 edi
  001ff	33 cd		 xor	 ecx, ebp
  00201	5e		 pop	 esi
  00202	e8 00 00 00 00	 call	 @__security_check_cookie@4
  00207	c9		 leave
  00208	c2 10 00	 ret	 16			; 00000010H
??$LoadString_e@$0BB@@ioINILoader@@QAEXAAY0BB@$$CBDAAY00$$CBDPADH@Z ENDP ; ioINILoader::LoadString_e<17>
_TEXT	ENDS
PUBLIC	__$ArrayPad$
PUBLIC	??$LoadFloat_e@$0BA@@ioINILoader@@QAEMAAY0BA@$$CBDM@Z ; ioINILoader::LoadFloat_e<16>
; Function compile flags: /Ogsp
;	COMDAT ??$LoadFloat_e@$0BA@@ioINILoader@@QAEMAAY0BA@$$CBDM@Z
_TEXT	SEGMENT
__k$ = -24						; size = 16
__$ArrayPad$ = -4					; size = 4
_k$ = 8							; size = 4
_f$ = 12						; size = 4
??$LoadFloat_e@$0BA@@ioINILoader@@QAEMAAY0BA@$$CBDM@Z PROC ; ioINILoader::LoadFloat_e<16>, COMDAT
; _this$ = ecx

; 135  : 	{

  00000	55		 push	 ebp
  00001	8b ec		 mov	 ebp, esp
  00003	83 ec 18	 sub	 esp, 24			; 00000018H
  00006	a1 00 00 00 00	 mov	 eax, DWORD PTR ___security_cookie
  0000b	33 c5		 xor	 eax, ebp
  0000d	89 45 fc	 mov	 DWORD PTR __$ArrayPad$[ebp], eax
  00010	8b 45 08	 mov	 eax, DWORD PTR _k$[ebp]

; 136  : 		_ENCSTR(k, _k);

  00013	8a 10		 mov	 dl, BYTE PTR [eax]
  00015	56		 push	 esi
  00016	8b f1		 mov	 esi, ecx
  00018	84 d2		 test	 dl, dl
  0001a	0f 84 8c 01 00
	00		 je	 $LN96@LoadFloat_@4
  00020	80 f2 ed	 xor	 dl, -19			; ffffffedH
  00023	88 55 e8	 mov	 BYTE PTR __k$[ebp], dl
  00026	8a 50 01	 mov	 dl, BYTE PTR [eax+1]
  00029	84 d2		 test	 dl, dl
  0002b	0f 84 75 01 00
	00		 je	 $LN95@LoadFloat_@4
  00031	80 f2 ec	 xor	 dl, -20			; ffffffecH
  00034	88 55 e9	 mov	 BYTE PTR __k$[ebp+1], dl
  00037	8a 50 02	 mov	 dl, BYTE PTR [eax+2]
  0003a	84 d2		 test	 dl, dl
  0003c	0f 84 5e 01 00
	00		 je	 $LN94@LoadFloat_@4
  00042	b1 eb		 mov	 cl, -21			; ffffffebH
  00044	32 d1		 xor	 dl, cl
  00046	88 55 ea	 mov	 BYTE PTR __k$[ebp+2], dl
  00049	8a 50 03	 mov	 dl, BYTE PTR [eax+3]
  0004c	84 d2		 test	 dl, dl
  0004e	0f 84 46 01 00
	00		 je	 $LN93@LoadFloat_@4
  00054	80 f2 ea	 xor	 dl, -22			; ffffffeaH
  00057	88 55 eb	 mov	 BYTE PTR __k$[ebp+3], dl
  0005a	8a 50 04	 mov	 dl, BYTE PTR [eax+4]
  0005d	84 d2		 test	 dl, dl
  0005f	0f 84 2f 01 00
	00		 je	 $LN92@LoadFloat_@4
  00065	80 f2 ed	 xor	 dl, -19			; ffffffedH
  00068	88 55 ec	 mov	 BYTE PTR __k$[ebp+4], dl
  0006b	8a 50 05	 mov	 dl, BYTE PTR [eax+5]
  0006e	84 d2		 test	 dl, dl
  00070	0f 84 18 01 00
	00		 je	 $LN91@LoadFloat_@4
  00076	80 f2 ec	 xor	 dl, -20			; ffffffecH
  00079	88 55 ed	 mov	 BYTE PTR __k$[ebp+5], dl
  0007c	8a 50 06	 mov	 dl, BYTE PTR [eax+6]
  0007f	84 d2		 test	 dl, dl
  00081	0f 84 02 01 00
	00		 je	 $LN90@LoadFloat_@4
  00087	32 d1		 xor	 dl, cl
  00089	88 55 ee	 mov	 BYTE PTR __k$[ebp+6], dl
  0008c	8a 50 07	 mov	 dl, BYTE PTR [eax+7]
  0008f	84 d2		 test	 dl, dl
  00091	0f 84 ec 00 00
	00		 je	 $LN89@LoadFloat_@4
  00097	80 f2 ea	 xor	 dl, -22			; ffffffeaH
  0009a	88 55 ef	 mov	 BYTE PTR __k$[ebp+7], dl
  0009d	8a 50 08	 mov	 dl, BYTE PTR [eax+8]
  000a0	84 d2		 test	 dl, dl
  000a2	0f 84 d5 00 00
	00		 je	 $LN88@LoadFloat_@4
  000a8	80 f2 ed	 xor	 dl, -19			; ffffffedH
  000ab	88 55 f0	 mov	 BYTE PTR __k$[ebp+8], dl
  000ae	8a 50 09	 mov	 dl, BYTE PTR [eax+9]
  000b1	84 d2		 test	 dl, dl
  000b3	0f 84 be 00 00
	00		 je	 $LN87@LoadFloat_@4
  000b9	80 f2 ec	 xor	 dl, -20			; ffffffecH
  000bc	88 55 f1	 mov	 BYTE PTR __k$[ebp+9], dl
  000bf	8a 50 0a	 mov	 dl, BYTE PTR [eax+10]
  000c2	84 d2		 test	 dl, dl
  000c4	0f 84 a8 00 00
	00		 je	 $LN86@LoadFloat_@4
  000ca	32 d1		 xor	 dl, cl
  000cc	88 55 f2	 mov	 BYTE PTR __k$[ebp+10], dl
  000cf	8a 50 0b	 mov	 dl, BYTE PTR [eax+11]
  000d2	84 d2		 test	 dl, dl
  000d4	0f 84 92 00 00
	00		 je	 $LN85@LoadFloat_@4
  000da	80 f2 ea	 xor	 dl, -22			; ffffffeaH
  000dd	88 55 f3	 mov	 BYTE PTR __k$[ebp+11], dl
  000e0	8a 50 0c	 mov	 dl, BYTE PTR [eax+12]
  000e3	84 d2		 test	 dl, dl
  000e5	74 7f		 je	 SHORT $LN84@LoadFloat_@4
  000e7	80 f2 ed	 xor	 dl, -19			; ffffffedH
  000ea	88 55 f4	 mov	 BYTE PTR __k$[ebp+12], dl
  000ed	8a 50 0d	 mov	 dl, BYTE PTR [eax+13]
  000f0	84 d2		 test	 dl, dl
  000f2	74 6c		 je	 SHORT $LN83@LoadFloat_@4
  000f4	80 f2 ec	 xor	 dl, -20			; ffffffecH
  000f7	88 55 f5	 mov	 BYTE PTR __k$[ebp+13], dl
  000fa	8a 50 0e	 mov	 dl, BYTE PTR [eax+14]
  000fd	84 d2		 test	 dl, dl
  000ff	74 5a		 je	 SHORT $LN82@LoadFloat_@4
  00101	32 d1		 xor	 dl, cl
  00103	80 78 0f 00	 cmp	 BYTE PTR [eax+15], 0
  00107	88 55 f6	 mov	 BYTE PTR __k$[ebp+14], dl
  0010a	0f 84 a0 00 00
	00		 je	 $LN1@LoadFloat_@4
  00110	8a 50 10	 mov	 dl, BYTE PTR [eax+16]
  00113	84 d2		 test	 dl, dl
  00115	74 3e		 je	 SHORT $LN80@LoadFloat_@4
  00117	80 f2 ed	 xor	 dl, -19			; ffffffedH
  0011a	88 55 f8	 mov	 BYTE PTR __k$[ebp+16], dl
  0011d	8a 50 11	 mov	 dl, BYTE PTR [eax+17]
  00120	84 d2		 test	 dl, dl
  00122	74 2b		 je	 SHORT $LN79@LoadFloat_@4
  00124	80 f2 ec	 xor	 dl, -20			; ffffffecH
  00127	88 55 f9	 mov	 BYTE PTR __k$[ebp+17], dl
  0012a	8a 50 12	 mov	 dl, BYTE PTR [eax+18]
  0012d	84 d2		 test	 dl, dl
  0012f	74 19		 je	 SHORT $LN78@LoadFloat_@4
  00131	8a 40 13	 mov	 al, BYTE PTR [eax+19]
  00134	32 d1		 xor	 dl, cl
  00136	88 55 fa	 mov	 BYTE PTR __k$[ebp+18], dl
  00139	84 c0		 test	 al, al
  0013b	74 07		 je	 SHORT $LN77@LoadFloat_@4
  0013d	34 ea		 xor	 al, -22			; ffffffeaH
  0013f	88 45 fb	 mov	 BYTE PTR __k$[ebp+19], al
  00142	eb 6c		 jmp	 SHORT $LN1@LoadFloat_@4
$LN77@LoadFloat_@4:
  00144	c6 45 fb ea	 mov	 BYTE PTR __k$[ebp+19], -22 ; ffffffeaH
  00148	eb 66		 jmp	 SHORT $LN1@LoadFloat_@4
$LN78@LoadFloat_@4:
  0014a	88 4d fa	 mov	 BYTE PTR __k$[ebp+18], cl
  0014d	eb 61		 jmp	 SHORT $LN1@LoadFloat_@4
$LN79@LoadFloat_@4:
  0014f	c6 45 f9 ec	 mov	 BYTE PTR __k$[ebp+17], -20 ; ffffffecH
  00153	eb 5b		 jmp	 SHORT $LN1@LoadFloat_@4
$LN80@LoadFloat_@4:
  00155	c6 45 f8 ed	 mov	 BYTE PTR __k$[ebp+16], -19 ; ffffffedH
  00159	eb 55		 jmp	 SHORT $LN1@LoadFloat_@4
$LN82@LoadFloat_@4:
  0015b	88 4d f6	 mov	 BYTE PTR __k$[ebp+14], cl
  0015e	eb 50		 jmp	 SHORT $LN1@LoadFloat_@4
$LN83@LoadFloat_@4:
  00160	c6 45 f5 ec	 mov	 BYTE PTR __k$[ebp+13], -20 ; ffffffecH
  00164	eb 4a		 jmp	 SHORT $LN1@LoadFloat_@4
$LN84@LoadFloat_@4:
  00166	c6 45 f4 ed	 mov	 BYTE PTR __k$[ebp+12], -19 ; ffffffedH
  0016a	eb 44		 jmp	 SHORT $LN1@LoadFloat_@4
$LN85@LoadFloat_@4:
  0016c	c6 45 f3 ea	 mov	 BYTE PTR __k$[ebp+11], -22 ; ffffffeaH
  00170	eb 3e		 jmp	 SHORT $LN1@LoadFloat_@4
$LN86@LoadFloat_@4:
  00172	88 4d f2	 mov	 BYTE PTR __k$[ebp+10], cl
  00175	eb 39		 jmp	 SHORT $LN1@LoadFloat_@4
$LN87@LoadFloat_@4:
  00177	c6 45 f1 ec	 mov	 BYTE PTR __k$[ebp+9], -20 ; ffffffecH
  0017b	eb 33		 jmp	 SHORT $LN1@LoadFloat_@4
$LN88@LoadFloat_@4:
  0017d	c6 45 f0 ed	 mov	 BYTE PTR __k$[ebp+8], -19 ; ffffffedH
  00181	eb 2d		 jmp	 SHORT $LN1@LoadFloat_@4
$LN89@LoadFloat_@4:
  00183	c6 45 ef ea	 mov	 BYTE PTR __k$[ebp+7], -22 ; ffffffeaH
  00187	eb 27		 jmp	 SHORT $LN1@LoadFloat_@4
$LN90@LoadFloat_@4:
  00189	88 4d ee	 mov	 BYTE PTR __k$[ebp+6], cl
  0018c	eb 22		 jmp	 SHORT $LN1@LoadFloat_@4
$LN91@LoadFloat_@4:
  0018e	c6 45 ed ec	 mov	 BYTE PTR __k$[ebp+5], -20 ; ffffffecH
  00192	eb 1c		 jmp	 SHORT $LN1@LoadFloat_@4
$LN92@LoadFloat_@4:
  00194	c6 45 ec ed	 mov	 BYTE PTR __k$[ebp+4], -19 ; ffffffedH
  00198	eb 16		 jmp	 SHORT $LN1@LoadFloat_@4
$LN93@LoadFloat_@4:
  0019a	c6 45 eb ea	 mov	 BYTE PTR __k$[ebp+3], -22 ; ffffffeaH
  0019e	eb 10		 jmp	 SHORT $LN1@LoadFloat_@4
$LN94@LoadFloat_@4:
  001a0	c6 45 ea eb	 mov	 BYTE PTR __k$[ebp+2], -21 ; ffffffebH
  001a4	eb 0a		 jmp	 SHORT $LN1@LoadFloat_@4
$LN95@LoadFloat_@4:
  001a6	c6 45 e9 ec	 mov	 BYTE PTR __k$[ebp+1], -20 ; ffffffecH
  001aa	eb 04		 jmp	 SHORT $LN1@LoadFloat_@4
$LN96@LoadFloat_@4:
  001ac	c6 45 e8 ed	 mov	 BYTE PTR __k$[ebp], -19	; ffffffedH
$LN1@LoadFloat_@4:
  001b0	6a 03		 push	 3
  001b2	8d 45 e8	 lea	 eax, DWORD PTR __k$[ebp]
  001b5	c6 45 f7 00	 mov	 BYTE PTR __k$[ebp+15], 0
  001b9	5a		 pop	 edx
$LL104@LoadFloat_@4:
  001ba	81 30 ed ec eb
	ea		 xor	 DWORD PTR [eax], -353637139 ; eaebecedH
  001c0	83 c0 04	 add	 eax, 4
  001c3	4a		 dec	 edx
  001c4	75 f4		 jne	 SHORT $LL104@LoadFloat_@4
  001c6	6a 0c		 push	 12			; 0000000cH
  001c8	58		 pop	 eax
$LL101@LoadFloat_@4:
  001c9	8b c8		 mov	 ecx, eax
  001cb	81 e1 03 00 00
	80		 and	 ecx, -2147483645	; 80000003H
  001d1	79 05		 jns	 SHORT $LN111@LoadFloat_@4
  001d3	49		 dec	 ecx
  001d4	83 c9 fc	 or	 ecx, -4			; fffffffcH
  001d7	41		 inc	 ecx
$LN111@LoadFloat_@4:
  001d8	b2 ed		 mov	 dl, -19			; ffffffedH
  001da	2a d1		 sub	 dl, cl
  001dc	30 54 05 e8	 xor	 BYTE PTR __k$[ebp+eax], dl
  001e0	40		 inc	 eax
  001e1	83 f8 0f	 cmp	 eax, 15			; 0000000fH
  001e4	7c e3		 jl	 SHORT $LL101@LoadFloat_@4

; 137  : 		return LoadFloat(_k, f);

  001e6	f3 0f 10 45 0c	 movss	 xmm0, DWORD PTR _f$[ebp]
  001eb	51		 push	 ecx
  001ec	8d 45 e8	 lea	 eax, DWORD PTR __k$[ebp]
  001ef	f3 0f 11 04 24	 movss	 DWORD PTR [esp], xmm0
  001f4	50		 push	 eax
  001f5	8b ce		 mov	 ecx, esi
  001f7	ff 15 00 00 00
	00		 call	 DWORD PTR __imp_?LoadFloat@ioINILoader@@QAEMPBDM@Z

; 138  : 	}

  001fd	8b 4d fc	 mov	 ecx, DWORD PTR __$ArrayPad$[ebp]
  00200	33 cd		 xor	 ecx, ebp
  00202	5e		 pop	 esi
  00203	e8 00 00 00 00	 call	 @__security_check_cookie@4
  00208	c9		 leave
  00209	c2 08 00	 ret	 8
??$LoadFloat_e@$0BA@@ioINILoader@@QAEMAAY0BA@$$CBDM@Z ENDP ; ioINILoader::LoadFloat_e<16>
_TEXT	ENDS
PUBLIC	_this$GSCopy$
PUBLIC	__$ArrayPad$
PUBLIC	??$LoadString_e@$0BC@@ioINILoader@@QAEXAAY0BC@$$CBDAAY00$$CBDPADH@Z ; ioINILoader::LoadString_e<18>
; Function compile flags: /Ogsp
;	COMDAT ??$LoadString_e@$0BC@@ioINILoader@@QAEXAAY0BC@$$CBDAAY00$$CBDPADH@Z
_TEXT	SEGMENT
_this$GSCopy$ = -32					; size = 4
__k$ = -28						; size = 18
__$ArrayPad$ = -4					; size = 4
_k$ = 8							; size = 4
_d$ = 12						; size = 4
_b$ = 16						; size = 4
_i$ = 20						; size = 4
??$LoadString_e@$0BC@@ioINILoader@@QAEXAAY0BC@$$CBDAAY00$$CBDPADH@Z PROC ; ioINILoader::LoadString_e<18>, COMDAT
; _this$ = ecx

; 161  : 	{

  00000	55		 push	 ebp
  00001	8b ec		 mov	 ebp, esp
  00003	83 ec 20	 sub	 esp, 32			; 00000020H
  00006	a1 00 00 00 00	 mov	 eax, DWORD PTR ___security_cookie
  0000b	33 c5		 xor	 eax, ebp
  0000d	89 45 fc	 mov	 DWORD PTR __$ArrayPad$[ebp], eax
  00010	8b 45 08	 mov	 eax, DWORD PTR _k$[ebp]

; 162  : 		_ENCSTR(k, _k);

  00013	8a 10		 mov	 dl, BYTE PTR [eax]
  00015	56		 push	 esi
  00016	8b 75 0c	 mov	 esi, DWORD PTR _d$[ebp]
  00019	57		 push	 edi
  0001a	8b 7d 10	 mov	 edi, DWORD PTR _b$[ebp]
  0001d	89 4d e0	 mov	 DWORD PTR _this$GSCopy$[ebp], ecx
  00020	84 d2		 test	 dl, dl
  00022	0f 84 be 01 00
	00		 je	 $LN96@LoadString@5
  00028	80 f2 ed	 xor	 dl, -19			; ffffffedH
  0002b	88 55 e4	 mov	 BYTE PTR __k$[ebp], dl
  0002e	8a 50 01	 mov	 dl, BYTE PTR [eax+1]
  00031	84 d2		 test	 dl, dl
  00033	0f 84 a7 01 00
	00		 je	 $LN95@LoadString@5
  00039	80 f2 ec	 xor	 dl, -20			; ffffffecH
  0003c	88 55 e5	 mov	 BYTE PTR __k$[ebp+1], dl
  0003f	8a 50 02	 mov	 dl, BYTE PTR [eax+2]
  00042	84 d2		 test	 dl, dl
  00044	0f 84 90 01 00
	00		 je	 $LN94@LoadString@5
  0004a	b1 eb		 mov	 cl, -21			; ffffffebH
  0004c	32 d1		 xor	 dl, cl
  0004e	88 55 e6	 mov	 BYTE PTR __k$[ebp+2], dl
  00051	8a 50 03	 mov	 dl, BYTE PTR [eax+3]
  00054	84 d2		 test	 dl, dl
  00056	0f 84 78 01 00
	00		 je	 $LN93@LoadString@5
  0005c	80 f2 ea	 xor	 dl, -22			; ffffffeaH
  0005f	88 55 e7	 mov	 BYTE PTR __k$[ebp+3], dl
  00062	8a 50 04	 mov	 dl, BYTE PTR [eax+4]
  00065	84 d2		 test	 dl, dl
  00067	0f 84 61 01 00
	00		 je	 $LN92@LoadString@5
  0006d	80 f2 ed	 xor	 dl, -19			; ffffffedH
  00070	88 55 e8	 mov	 BYTE PTR __k$[ebp+4], dl
  00073	8a 50 05	 mov	 dl, BYTE PTR [eax+5]
  00076	84 d2		 test	 dl, dl
  00078	0f 84 4a 01 00
	00		 je	 $LN91@LoadString@5
  0007e	80 f2 ec	 xor	 dl, -20			; ffffffecH
  00081	88 55 e9	 mov	 BYTE PTR __k$[ebp+5], dl
  00084	8a 50 06	 mov	 dl, BYTE PTR [eax+6]
  00087	84 d2		 test	 dl, dl
  00089	0f 84 34 01 00
	00		 je	 $LN90@LoadString@5
  0008f	32 d1		 xor	 dl, cl
  00091	88 55 ea	 mov	 BYTE PTR __k$[ebp+6], dl
  00094	8a 50 07	 mov	 dl, BYTE PTR [eax+7]
  00097	84 d2		 test	 dl, dl
  00099	0f 84 1e 01 00
	00		 je	 $LN89@LoadString@5
  0009f	80 f2 ea	 xor	 dl, -22			; ffffffeaH
  000a2	88 55 eb	 mov	 BYTE PTR __k$[ebp+7], dl
  000a5	8a 50 08	 mov	 dl, BYTE PTR [eax+8]
  000a8	84 d2		 test	 dl, dl
  000aa	0f 84 07 01 00
	00		 je	 $LN88@LoadString@5
  000b0	80 f2 ed	 xor	 dl, -19			; ffffffedH
  000b3	88 55 ec	 mov	 BYTE PTR __k$[ebp+8], dl
  000b6	8a 50 09	 mov	 dl, BYTE PTR [eax+9]
  000b9	84 d2		 test	 dl, dl
  000bb	0f 84 f0 00 00
	00		 je	 $LN87@LoadString@5
  000c1	80 f2 ec	 xor	 dl, -20			; ffffffecH
  000c4	88 55 ed	 mov	 BYTE PTR __k$[ebp+9], dl
  000c7	8a 50 0a	 mov	 dl, BYTE PTR [eax+10]
  000ca	84 d2		 test	 dl, dl
  000cc	0f 84 da 00 00
	00		 je	 $LN86@LoadString@5
  000d2	32 d1		 xor	 dl, cl
  000d4	88 55 ee	 mov	 BYTE PTR __k$[ebp+10], dl
  000d7	8a 50 0b	 mov	 dl, BYTE PTR [eax+11]
  000da	84 d2		 test	 dl, dl
  000dc	0f 84 c4 00 00
	00		 je	 $LN85@LoadString@5
  000e2	80 f2 ea	 xor	 dl, -22			; ffffffeaH
  000e5	88 55 ef	 mov	 BYTE PTR __k$[ebp+11], dl
  000e8	8a 50 0c	 mov	 dl, BYTE PTR [eax+12]
  000eb	84 d2		 test	 dl, dl
  000ed	0f 84 ad 00 00
	00		 je	 $LN84@LoadString@5
  000f3	80 f2 ed	 xor	 dl, -19			; ffffffedH
  000f6	88 55 f0	 mov	 BYTE PTR __k$[ebp+12], dl
  000f9	8a 50 0d	 mov	 dl, BYTE PTR [eax+13]
  000fc	84 d2		 test	 dl, dl
  000fe	0f 84 96 00 00
	00		 je	 $LN83@LoadString@5
  00104	80 f2 ec	 xor	 dl, -20			; ffffffecH
  00107	88 55 f1	 mov	 BYTE PTR __k$[ebp+13], dl
  0010a	8a 50 0e	 mov	 dl, BYTE PTR [eax+14]
  0010d	84 d2		 test	 dl, dl
  0010f	0f 84 80 00 00
	00		 je	 $LN82@LoadString@5
  00115	32 d1		 xor	 dl, cl
  00117	88 55 f2	 mov	 BYTE PTR __k$[ebp+14], dl
  0011a	8a 50 0f	 mov	 dl, BYTE PTR [eax+15]
  0011d	84 d2		 test	 dl, dl
  0011f	74 6e		 je	 SHORT $LN81@LoadString@5
  00121	80 f2 ea	 xor	 dl, -22			; ffffffeaH
  00124	88 55 f3	 mov	 BYTE PTR __k$[ebp+15], dl
  00127	8a 50 10	 mov	 dl, BYTE PTR [eax+16]
  0012a	84 d2		 test	 dl, dl
  0012c	74 5b		 je	 SHORT $LN80@LoadString@5
  0012e	80 f2 ed	 xor	 dl, -19			; ffffffedH
  00131	80 78 11 00	 cmp	 BYTE PTR [eax+17], 0
  00135	88 55 f4	 mov	 BYTE PTR __k$[ebp+16], dl
  00138	0f 84 ac 00 00
	00		 je	 $LN111@LoadString@5
  0013e	8a 50 12	 mov	 dl, BYTE PTR [eax+18]
  00141	84 d2		 test	 dl, dl
  00143	74 3f		 je	 SHORT $LN78@LoadString@5
  00145	32 d1		 xor	 dl, cl
  00147	88 55 f6	 mov	 BYTE PTR __k$[ebp+18], dl
  0014a	8a 50 13	 mov	 dl, BYTE PTR [eax+19]
  0014d	84 d2		 test	 dl, dl
  0014f	74 2d		 je	 SHORT $LN77@LoadString@5
  00151	80 f2 ea	 xor	 dl, -22			; ffffffeaH
  00154	88 55 f7	 mov	 BYTE PTR __k$[ebp+19], dl
  00157	8a 50 14	 mov	 dl, BYTE PTR [eax+20]
  0015a	84 d2		 test	 dl, dl
  0015c	74 1a		 je	 SHORT $LN76@LoadString@5
  0015e	8a 40 15	 mov	 al, BYTE PTR [eax+21]
  00161	80 f2 ed	 xor	 dl, -19			; ffffffedH
  00164	88 55 f8	 mov	 BYTE PTR __k$[ebp+20], dl
  00167	84 c0		 test	 al, al
  00169	74 07		 je	 SHORT $LN75@LoadString@5
  0016b	34 ec		 xor	 al, -20			; ffffffecH
  0016d	88 45 f9	 mov	 BYTE PTR __k$[ebp+21], al
  00170	eb 78		 jmp	 SHORT $LN111@LoadString@5
$LN75@LoadString@5:
  00172	c6 45 f9 ec	 mov	 BYTE PTR __k$[ebp+21], -20 ; ffffffecH
  00176	eb 72		 jmp	 SHORT $LN111@LoadString@5
$LN76@LoadString@5:
  00178	c6 45 f8 ed	 mov	 BYTE PTR __k$[ebp+20], -19 ; ffffffedH
  0017c	eb 6c		 jmp	 SHORT $LN111@LoadString@5
$LN77@LoadString@5:
  0017e	c6 45 f7 ea	 mov	 BYTE PTR __k$[ebp+19], -22 ; ffffffeaH
  00182	eb 66		 jmp	 SHORT $LN111@LoadString@5
$LN78@LoadString@5:
  00184	88 4d f6	 mov	 BYTE PTR __k$[ebp+18], cl
  00187	eb 61		 jmp	 SHORT $LN111@LoadString@5
$LN80@LoadString@5:
  00189	c6 45 f4 ed	 mov	 BYTE PTR __k$[ebp+16], -19 ; ffffffedH
  0018d	eb 5b		 jmp	 SHORT $LN111@LoadString@5
$LN81@LoadString@5:
  0018f	c6 45 f3 ea	 mov	 BYTE PTR __k$[ebp+15], -22 ; ffffffeaH
  00193	eb 55		 jmp	 SHORT $LN111@LoadString@5
$LN82@LoadString@5:
  00195	88 4d f2	 mov	 BYTE PTR __k$[ebp+14], cl
  00198	eb 50		 jmp	 SHORT $LN111@LoadString@5
$LN83@LoadString@5:
  0019a	c6 45 f1 ec	 mov	 BYTE PTR __k$[ebp+13], -20 ; ffffffecH
  0019e	eb 4a		 jmp	 SHORT $LN111@LoadString@5
$LN84@LoadString@5:
  001a0	c6 45 f0 ed	 mov	 BYTE PTR __k$[ebp+12], -19 ; ffffffedH
  001a4	eb 44		 jmp	 SHORT $LN111@LoadString@5
$LN85@LoadString@5:
  001a6	c6 45 ef ea	 mov	 BYTE PTR __k$[ebp+11], -22 ; ffffffeaH
  001aa	eb 3e		 jmp	 SHORT $LN111@LoadString@5
$LN86@LoadString@5:
  001ac	88 4d ee	 mov	 BYTE PTR __k$[ebp+10], cl
  001af	eb 39		 jmp	 SHORT $LN111@LoadString@5
$LN87@LoadString@5:
  001b1	c6 45 ed ec	 mov	 BYTE PTR __k$[ebp+9], -20 ; ffffffecH
  001b5	eb 33		 jmp	 SHORT $LN111@LoadString@5
$LN88@LoadString@5:
  001b7	c6 45 ec ed	 mov	 BYTE PTR __k$[ebp+8], -19 ; ffffffedH
  001bb	eb 2d		 jmp	 SHORT $LN111@LoadString@5
$LN89@LoadString@5:
  001bd	c6 45 eb ea	 mov	 BYTE PTR __k$[ebp+7], -22 ; ffffffeaH
  001c1	eb 27		 jmp	 SHORT $LN111@LoadString@5
$LN90@LoadString@5:
  001c3	88 4d ea	 mov	 BYTE PTR __k$[ebp+6], cl
  001c6	eb 22		 jmp	 SHORT $LN111@LoadString@5
$LN91@LoadString@5:
  001c8	c6 45 e9 ec	 mov	 BYTE PTR __k$[ebp+5], -20 ; ffffffecH
  001cc	eb 1c		 jmp	 SHORT $LN111@LoadString@5
$LN92@LoadString@5:
  001ce	c6 45 e8 ed	 mov	 BYTE PTR __k$[ebp+4], -19 ; ffffffedH
  001d2	eb 16		 jmp	 SHORT $LN111@LoadString@5
$LN93@LoadString@5:
  001d4	c6 45 e7 ea	 mov	 BYTE PTR __k$[ebp+3], -22 ; ffffffeaH
  001d8	eb 10		 jmp	 SHORT $LN111@LoadString@5
$LN94@LoadString@5:
  001da	c6 45 e6 eb	 mov	 BYTE PTR __k$[ebp+2], -21 ; ffffffebH
  001de	eb 0a		 jmp	 SHORT $LN111@LoadString@5
$LN95@LoadString@5:
  001e0	c6 45 e5 ec	 mov	 BYTE PTR __k$[ebp+1], -20 ; ffffffecH
  001e4	eb 04		 jmp	 SHORT $LN111@LoadString@5
$LN96@LoadString@5:
  001e6	c6 45 e4 ed	 mov	 BYTE PTR __k$[ebp], -19	; ffffffedH
$LN111@LoadString@5:
  001ea	6a 04		 push	 4
  001ec	8d 45 e4	 lea	 eax, DWORD PTR __k$[ebp]
  001ef	c6 45 f5 00	 mov	 BYTE PTR __k$[ebp+17], 0
  001f3	5a		 pop	 edx
$LL104@LoadString@5:
  001f4	81 30 ed ec eb
	ea		 xor	 DWORD PTR [eax], -353637139 ; eaebecedH
  001fa	83 c0 04	 add	 eax, 4
  001fd	4a		 dec	 edx
  001fe	75 f4		 jne	 SHORT $LL104@LoadString@5

; 163  : 		LoadString(_k, d, b, i);

  00200	ff 75 14	 push	 DWORD PTR _i$[ebp]
  00203	8b 4d e0	 mov	 ecx, DWORD PTR _this$GSCopy$[ebp]
  00206	80 75 f4 ed	 xor	 BYTE PTR __k$[ebp+16], -19 ; ffffffedH
  0020a	57		 push	 edi
  0020b	56		 push	 esi
  0020c	8d 45 e4	 lea	 eax, DWORD PTR __k$[ebp]
  0020f	50		 push	 eax
  00210	ff 15 00 00 00
	00		 call	 DWORD PTR __imp_?LoadStringA@ioINILoader@@QAEXPBD0PADH@Z

; 164  : 	}

  00216	8b 4d fc	 mov	 ecx, DWORD PTR __$ArrayPad$[ebp]
  00219	5f		 pop	 edi
  0021a	33 cd		 xor	 ecx, ebp
  0021c	5e		 pop	 esi
  0021d	e8 00 00 00 00	 call	 @__security_check_cookie@4
  00222	c9		 leave
  00223	c2 10 00	 ret	 16			; 00000010H
??$LoadString_e@$0BC@@ioINILoader@@QAEXAAY0BC@$$CBDAAY00$$CBDPADH@Z ENDP ; ioINILoader::LoadString_e<18>
_TEXT	ENDS
PUBLIC	__$ArrayPad$
PUBLIC	??$LoadBool_e@$0CA@@ioINILoader@@QAE_NAAY0CA@$$CBD_N@Z ; ioINILoader::LoadBool_e<32>
EXTRN	__imp_?LoadBool@ioINILoader@@QAE_NPBD_N@Z:PROC
; Function compile flags: /Ogsp
;	COMDAT ??$LoadBool_e@$0CA@@ioINILoader@@QAE_NAAY0CA@$$CBD_N@Z
_TEXT	SEGMENT
__k$ = -40						; size = 32
__$ArrayPad$ = -4					; size = 4
_k$ = 8							; size = 4
_b$ = 12						; size = 1
??$LoadBool_e@$0CA@@ioINILoader@@QAE_NAAY0CA@$$CBD_N@Z PROC ; ioINILoader::LoadBool_e<32>, COMDAT
; _this$ = ecx

; 101  : 	{

  00000	55		 push	 ebp
  00001	8b ec		 mov	 ebp, esp
  00003	83 ec 28	 sub	 esp, 40			; 00000028H
  00006	a1 00 00 00 00	 mov	 eax, DWORD PTR ___security_cookie
  0000b	33 c5		 xor	 eax, ebp
  0000d	89 45 fc	 mov	 DWORD PTR __$ArrayPad$[ebp], eax
  00010	8b 45 08	 mov	 eax, DWORD PTR _k$[ebp]

; 102  : 		_ENCSTR(k, _k);

  00013	8a 10		 mov	 dl, BYTE PTR [eax]
  00015	53		 push	 ebx
  00016	56		 push	 esi
  00017	8b f1		 mov	 esi, ecx
  00019	84 d2		 test	 dl, dl
  0001b	0f 84 0d 03 00
	00		 je	 $LN96@LoadBool_e
  00021	80 f2 ed	 xor	 dl, -19			; ffffffedH
  00024	88 55 d8	 mov	 BYTE PTR __k$[ebp], dl
  00027	8a 50 01	 mov	 dl, BYTE PTR [eax+1]
  0002a	84 d2		 test	 dl, dl
  0002c	0f 84 f6 02 00
	00		 je	 $LN95@LoadBool_e
  00032	b3 ec		 mov	 bl, -20			; ffffffecH
  00034	32 d3		 xor	 dl, bl
  00036	88 55 d9	 mov	 BYTE PTR __k$[ebp+1], dl
  00039	8a 50 02	 mov	 dl, BYTE PTR [eax+2]
  0003c	84 d2		 test	 dl, dl
  0003e	0f 84 de 02 00
	00		 je	 $LN94@LoadBool_e
  00044	b1 eb		 mov	 cl, -21			; ffffffebH
  00046	32 d1		 xor	 dl, cl
  00048	88 55 da	 mov	 BYTE PTR __k$[ebp+2], dl
  0004b	8a 50 03	 mov	 dl, BYTE PTR [eax+3]
  0004e	84 d2		 test	 dl, dl
  00050	0f 84 c6 02 00
	00		 je	 $LN93@LoadBool_e
  00056	80 f2 ea	 xor	 dl, -22			; ffffffeaH
  00059	88 55 db	 mov	 BYTE PTR __k$[ebp+3], dl
  0005c	8a 50 04	 mov	 dl, BYTE PTR [eax+4]
  0005f	84 d2		 test	 dl, dl
  00061	0f 84 af 02 00
	00		 je	 $LN92@LoadBool_e
  00067	80 f2 ed	 xor	 dl, -19			; ffffffedH
  0006a	88 55 dc	 mov	 BYTE PTR __k$[ebp+4], dl
  0006d	8a 50 05	 mov	 dl, BYTE PTR [eax+5]
  00070	84 d2		 test	 dl, dl
  00072	0f 84 99 02 00
	00		 je	 $LN91@LoadBool_e
  00078	32 d3		 xor	 dl, bl
  0007a	88 55 dd	 mov	 BYTE PTR __k$[ebp+5], dl
  0007d	8a 50 06	 mov	 dl, BYTE PTR [eax+6]
  00080	84 d2		 test	 dl, dl
  00082	0f 84 84 02 00
	00		 je	 $LN90@LoadBool_e
  00088	32 d1		 xor	 dl, cl
  0008a	88 55 de	 mov	 BYTE PTR __k$[ebp+6], dl
  0008d	8a 50 07	 mov	 dl, BYTE PTR [eax+7]
  00090	84 d2		 test	 dl, dl
  00092	0f 84 6e 02 00
	00		 je	 $LN89@LoadBool_e
  00098	80 f2 ea	 xor	 dl, -22			; ffffffeaH
  0009b	88 55 df	 mov	 BYTE PTR __k$[ebp+7], dl
  0009e	8a 50 08	 mov	 dl, BYTE PTR [eax+8]
  000a1	84 d2		 test	 dl, dl
  000a3	0f 84 57 02 00
	00		 je	 $LN88@LoadBool_e
  000a9	80 f2 ed	 xor	 dl, -19			; ffffffedH
  000ac	88 55 e0	 mov	 BYTE PTR __k$[ebp+8], dl
  000af	8a 50 09	 mov	 dl, BYTE PTR [eax+9]
  000b2	84 d2		 test	 dl, dl
  000b4	0f 84 41 02 00
	00		 je	 $LN87@LoadBool_e
  000ba	32 d3		 xor	 dl, bl
  000bc	88 55 e1	 mov	 BYTE PTR __k$[ebp+9], dl
  000bf	8a 50 0a	 mov	 dl, BYTE PTR [eax+10]
  000c2	84 d2		 test	 dl, dl
  000c4	0f 84 2c 02 00
	00		 je	 $LN86@LoadBool_e
  000ca	32 d1		 xor	 dl, cl
  000cc	88 55 e2	 mov	 BYTE PTR __k$[ebp+10], dl
  000cf	8a 50 0b	 mov	 dl, BYTE PTR [eax+11]
  000d2	84 d2		 test	 dl, dl
  000d4	0f 84 16 02 00
	00		 je	 $LN85@LoadBool_e
  000da	80 f2 ea	 xor	 dl, -22			; ffffffeaH
  000dd	88 55 e3	 mov	 BYTE PTR __k$[ebp+11], dl
  000e0	8a 50 0c	 mov	 dl, BYTE PTR [eax+12]
  000e3	84 d2		 test	 dl, dl
  000e5	0f 84 ff 01 00
	00		 je	 $LN84@LoadBool_e
  000eb	80 f2 ed	 xor	 dl, -19			; ffffffedH
  000ee	88 55 e4	 mov	 BYTE PTR __k$[ebp+12], dl
  000f1	8a 50 0d	 mov	 dl, BYTE PTR [eax+13]
  000f4	84 d2		 test	 dl, dl
  000f6	0f 84 e9 01 00
	00		 je	 $LN83@LoadBool_e
  000fc	32 d3		 xor	 dl, bl
  000fe	88 55 e5	 mov	 BYTE PTR __k$[ebp+13], dl
  00101	8a 50 0e	 mov	 dl, BYTE PTR [eax+14]
  00104	84 d2		 test	 dl, dl
  00106	0f 84 d4 01 00
	00		 je	 $LN82@LoadBool_e
  0010c	32 d1		 xor	 dl, cl
  0010e	88 55 e6	 mov	 BYTE PTR __k$[ebp+14], dl
  00111	8a 50 0f	 mov	 dl, BYTE PTR [eax+15]
  00114	84 d2		 test	 dl, dl
  00116	0f 84 be 01 00
	00		 je	 $LN81@LoadBool_e
  0011c	80 f2 ea	 xor	 dl, -22			; ffffffeaH
  0011f	88 55 e7	 mov	 BYTE PTR __k$[ebp+15], dl
  00122	8a 50 10	 mov	 dl, BYTE PTR [eax+16]
  00125	84 d2		 test	 dl, dl
  00127	0f 84 a7 01 00
	00		 je	 $LN80@LoadBool_e
  0012d	80 f2 ed	 xor	 dl, -19			; ffffffedH
  00130	88 55 e8	 mov	 BYTE PTR __k$[ebp+16], dl
  00133	8a 50 11	 mov	 dl, BYTE PTR [eax+17]
  00136	84 d2		 test	 dl, dl
  00138	0f 84 91 01 00
	00		 je	 $LN79@LoadBool_e
  0013e	32 d3		 xor	 dl, bl
  00140	88 55 e9	 mov	 BYTE PTR __k$[ebp+17], dl
  00143	8a 50 12	 mov	 dl, BYTE PTR [eax+18]
  00146	84 d2		 test	 dl, dl
  00148	0f 84 7c 01 00
	00		 je	 $LN78@LoadBool_e
  0014e	32 d1		 xor	 dl, cl
  00150	88 55 ea	 mov	 BYTE PTR __k$[ebp+18], dl
  00153	8a 50 13	 mov	 dl, BYTE PTR [eax+19]
  00156	84 d2		 test	 dl, dl
  00158	0f 84 66 01 00
	00		 je	 $LN77@LoadBool_e
  0015e	80 f2 ea	 xor	 dl, -22			; ffffffeaH
  00161	88 55 eb	 mov	 BYTE PTR __k$[ebp+19], dl
  00164	8a 50 14	 mov	 dl, BYTE PTR [eax+20]
  00167	84 d2		 test	 dl, dl
  00169	0f 84 4f 01 00
	00		 je	 $LN76@LoadBool_e
  0016f	80 f2 ed	 xor	 dl, -19			; ffffffedH
  00172	88 55 ec	 mov	 BYTE PTR __k$[ebp+20], dl
  00175	8a 50 15	 mov	 dl, BYTE PTR [eax+21]
  00178	84 d2		 test	 dl, dl
  0017a	0f 84 39 01 00
	00		 je	 $LN75@LoadBool_e
  00180	32 d3		 xor	 dl, bl
  00182	88 55 ed	 mov	 BYTE PTR __k$[ebp+21], dl
  00185	8a 50 16	 mov	 dl, BYTE PTR [eax+22]
  00188	84 d2		 test	 dl, dl
  0018a	0f 84 24 01 00
	00		 je	 $LN74@LoadBool_e
  00190	32 d1		 xor	 dl, cl
  00192	88 55 ee	 mov	 BYTE PTR __k$[ebp+22], dl
  00195	8a 50 17	 mov	 dl, BYTE PTR [eax+23]
  00198	84 d2		 test	 dl, dl
  0019a	0f 84 0e 01 00
	00		 je	 $LN73@LoadBool_e
  001a0	80 f2 ea	 xor	 dl, -22			; ffffffeaH
  001a3	88 55 ef	 mov	 BYTE PTR __k$[ebp+23], dl
  001a6	8a 50 18	 mov	 dl, BYTE PTR [eax+24]
  001a9	84 d2		 test	 dl, dl
  001ab	0f 84 f4 00 00
	00		 je	 $LN72@LoadBool_e
  001b1	80 f2 ed	 xor	 dl, -19			; ffffffedH
  001b4	88 55 f0	 mov	 BYTE PTR __k$[ebp+24], dl
  001b7	8a 50 19	 mov	 dl, BYTE PTR [eax+25]
  001ba	84 d2		 test	 dl, dl
  001bc	0f 84 db 00 00
	00		 je	 $LN71@LoadBool_e
  001c2	32 d3		 xor	 dl, bl
  001c4	88 55 f1	 mov	 BYTE PTR __k$[ebp+25], dl
  001c7	8a 50 1a	 mov	 dl, BYTE PTR [eax+26]
  001ca	84 d2		 test	 dl, dl
  001cc	0f 84 c3 00 00
	00		 je	 $LN70@LoadBool_e
  001d2	32 d1		 xor	 dl, cl
  001d4	88 55 f2	 mov	 BYTE PTR __k$[ebp+26], dl
  001d7	8a 50 1b	 mov	 dl, BYTE PTR [eax+27]
  001da	84 d2		 test	 dl, dl
  001dc	0f 84 aa 00 00
	00		 je	 $LN69@LoadBool_e
  001e2	80 f2 ea	 xor	 dl, -22			; ffffffeaH
  001e5	88 55 f3	 mov	 BYTE PTR __k$[ebp+27], dl
  001e8	8a 50 1c	 mov	 dl, BYTE PTR [eax+28]
  001eb	84 d2		 test	 dl, dl
  001ed	0f 84 90 00 00
	00		 je	 $LN68@LoadBool_e
  001f3	80 f2 ed	 xor	 dl, -19			; ffffffedH
  001f6	88 55 f4	 mov	 BYTE PTR __k$[ebp+28], dl
  001f9	8a 50 1d	 mov	 dl, BYTE PTR [eax+29]
  001fc	84 d2		 test	 dl, dl
  001fe	74 7b		 je	 SHORT $LN67@LoadBool_e
  00200	32 d3		 xor	 dl, bl
  00202	88 55 f5	 mov	 BYTE PTR __k$[ebp+29], dl
  00205	8a 50 1e	 mov	 dl, BYTE PTR [eax+30]
  00208	84 d2		 test	 dl, dl
  0020a	74 67		 je	 SHORT $LN66@LoadBool_e
  0020c	32 d1		 xor	 dl, cl
  0020e	80 78 1f 00	 cmp	 BYTE PTR [eax+31], 0
  00212	88 55 f6	 mov	 BYTE PTR __k$[ebp+30], dl
  00215	0f 84 17 01 00
	00		 je	 $LN1@LoadBool_e
  0021b	8a 50 20	 mov	 dl, BYTE PTR [eax+32]
  0021e	84 d2		 test	 dl, dl
  00220	74 48		 je	 SHORT $LN64@LoadBool_e
  00222	80 f2 ed	 xor	 dl, -19			; ffffffedH
  00225	88 55 f8	 mov	 BYTE PTR __k$[ebp+32], dl
  00228	8a 50 21	 mov	 dl, BYTE PTR [eax+33]
  0022b	84 d2		 test	 dl, dl
  0022d	74 33		 je	 SHORT $LN63@LoadBool_e
  0022f	32 d3		 xor	 dl, bl
  00231	88 55 f9	 mov	 BYTE PTR __k$[ebp+33], dl
  00234	8a 50 22	 mov	 dl, BYTE PTR [eax+34]
  00237	84 d2		 test	 dl, dl
  00239	74 1f		 je	 SHORT $LN62@LoadBool_e
  0023b	8a 40 23	 mov	 al, BYTE PTR [eax+35]
  0023e	32 d1		 xor	 dl, cl
  00240	88 55 fa	 mov	 BYTE PTR __k$[ebp+34], dl
  00243	84 c0		 test	 al, al
  00245	74 0a		 je	 SHORT $LN61@LoadBool_e
  00247	34 ea		 xor	 al, -22			; ffffffeaH
  00249	88 45 fb	 mov	 BYTE PTR __k$[ebp+35], al
  0024c	e9 e1 00 00 00	 jmp	 $LN1@LoadBool_e
$LN61@LoadBool_e:
  00251	c6 45 fb ea	 mov	 BYTE PTR __k$[ebp+35], -22 ; ffffffeaH
  00255	e9 d8 00 00 00	 jmp	 $LN1@LoadBool_e
$LN62@LoadBool_e:
  0025a	88 4d fa	 mov	 BYTE PTR __k$[ebp+34], cl
  0025d	e9 d0 00 00 00	 jmp	 $LN1@LoadBool_e
$LN63@LoadBool_e:
  00262	88 5d f9	 mov	 BYTE PTR __k$[ebp+33], bl
  00265	e9 c8 00 00 00	 jmp	 $LN1@LoadBool_e
$LN64@LoadBool_e:
  0026a	c6 45 f8 ed	 mov	 BYTE PTR __k$[ebp+32], -19 ; ffffffedH
  0026e	e9 bf 00 00 00	 jmp	 $LN1@LoadBool_e
$LN66@LoadBool_e:
  00273	88 4d f6	 mov	 BYTE PTR __k$[ebp+30], cl
  00276	e9 b7 00 00 00	 jmp	 $LN1@LoadBool_e
$LN67@LoadBool_e:
  0027b	88 5d f5	 mov	 BYTE PTR __k$[ebp+29], bl
  0027e	e9 af 00 00 00	 jmp	 $LN1@LoadBool_e
$LN68@LoadBool_e:
  00283	c6 45 f4 ed	 mov	 BYTE PTR __k$[ebp+28], -19 ; ffffffedH
  00287	e9 a6 00 00 00	 jmp	 $LN1@LoadBool_e
$LN69@LoadBool_e:
  0028c	c6 45 f3 ea	 mov	 BYTE PTR __k$[ebp+27], -22 ; ffffffeaH
  00290	e9 9d 00 00 00	 jmp	 $LN1@LoadBool_e
$LN70@LoadBool_e:
  00295	88 4d f2	 mov	 BYTE PTR __k$[ebp+26], cl
  00298	e9 95 00 00 00	 jmp	 $LN1@LoadBool_e
$LN71@LoadBool_e:
  0029d	88 5d f1	 mov	 BYTE PTR __k$[ebp+25], bl
  002a0	e9 8d 00 00 00	 jmp	 $LN1@LoadBool_e
$LN72@LoadBool_e:
  002a5	c6 45 f0 ed	 mov	 BYTE PTR __k$[ebp+24], -19 ; ffffffedH
  002a9	e9 84 00 00 00	 jmp	 $LN1@LoadBool_e
$LN73@LoadBool_e:
  002ae	c6 45 ef ea	 mov	 BYTE PTR __k$[ebp+23], -22 ; ffffffeaH
  002b2	eb 7e		 jmp	 SHORT $LN1@LoadBool_e
$LN74@LoadBool_e:
  002b4	88 4d ee	 mov	 BYTE PTR __k$[ebp+22], cl
  002b7	eb 79		 jmp	 SHORT $LN1@LoadBool_e
$LN75@LoadBool_e:
  002b9	88 5d ed	 mov	 BYTE PTR __k$[ebp+21], bl
  002bc	eb 74		 jmp	 SHORT $LN1@LoadBool_e
$LN76@LoadBool_e:
  002be	c6 45 ec ed	 mov	 BYTE PTR __k$[ebp+20], -19 ; ffffffedH
  002c2	eb 6e		 jmp	 SHORT $LN1@LoadBool_e
$LN77@LoadBool_e:
  002c4	c6 45 eb ea	 mov	 BYTE PTR __k$[ebp+19], -22 ; ffffffeaH
  002c8	eb 68		 jmp	 SHORT $LN1@LoadBool_e
$LN78@LoadBool_e:
  002ca	88 4d ea	 mov	 BYTE PTR __k$[ebp+18], cl
  002cd	eb 63		 jmp	 SHORT $LN1@LoadBool_e
$LN79@LoadBool_e:
  002cf	88 5d e9	 mov	 BYTE PTR __k$[ebp+17], bl
  002d2	eb 5e		 jmp	 SHORT $LN1@LoadBool_e
$LN80@LoadBool_e:
  002d4	c6 45 e8 ed	 mov	 BYTE PTR __k$[ebp+16], -19 ; ffffffedH
  002d8	eb 58		 jmp	 SHORT $LN1@LoadBool_e
$LN81@LoadBool_e:
  002da	c6 45 e7 ea	 mov	 BYTE PTR __k$[ebp+15], -22 ; ffffffeaH
  002de	eb 52		 jmp	 SHORT $LN1@LoadBool_e
$LN82@LoadBool_e:
  002e0	88 4d e6	 mov	 BYTE PTR __k$[ebp+14], cl
  002e3	eb 4d		 jmp	 SHORT $LN1@LoadBool_e
$LN83@LoadBool_e:
  002e5	88 5d e5	 mov	 BYTE PTR __k$[ebp+13], bl
  002e8	eb 48		 jmp	 SHORT $LN1@LoadBool_e
$LN84@LoadBool_e:
  002ea	c6 45 e4 ed	 mov	 BYTE PTR __k$[ebp+12], -19 ; ffffffedH
  002ee	eb 42		 jmp	 SHORT $LN1@LoadBool_e
$LN85@LoadBool_e:
  002f0	c6 45 e3 ea	 mov	 BYTE PTR __k$[ebp+11], -22 ; ffffffeaH
  002f4	eb 3c		 jmp	 SHORT $LN1@LoadBool_e
$LN86@LoadBool_e:
  002f6	88 4d e2	 mov	 BYTE PTR __k$[ebp+10], cl
  002f9	eb 37		 jmp	 SHORT $LN1@LoadBool_e
$LN87@LoadBool_e:
  002fb	88 5d e1	 mov	 BYTE PTR __k$[ebp+9], bl
  002fe	eb 32		 jmp	 SHORT $LN1@LoadBool_e
$LN88@LoadBool_e:
  00300	c6 45 e0 ed	 mov	 BYTE PTR __k$[ebp+8], -19 ; ffffffedH
  00304	eb 2c		 jmp	 SHORT $LN1@LoadBool_e
$LN89@LoadBool_e:
  00306	c6 45 df ea	 mov	 BYTE PTR __k$[ebp+7], -22 ; ffffffeaH
  0030a	eb 26		 jmp	 SHORT $LN1@LoadBool_e
$LN90@LoadBool_e:
  0030c	88 4d de	 mov	 BYTE PTR __k$[ebp+6], cl
  0030f	eb 21		 jmp	 SHORT $LN1@LoadBool_e
$LN91@LoadBool_e:
  00311	88 5d dd	 mov	 BYTE PTR __k$[ebp+5], bl
  00314	eb 1c		 jmp	 SHORT $LN1@LoadBool_e
$LN92@LoadBool_e:
  00316	c6 45 dc ed	 mov	 BYTE PTR __k$[ebp+4], -19 ; ffffffedH
  0031a	eb 16		 jmp	 SHORT $LN1@LoadBool_e
$LN93@LoadBool_e:
  0031c	c6 45 db ea	 mov	 BYTE PTR __k$[ebp+3], -22 ; ffffffeaH
  00320	eb 10		 jmp	 SHORT $LN1@LoadBool_e
$LN94@LoadBool_e:
  00322	c6 45 da eb	 mov	 BYTE PTR __k$[ebp+2], -21 ; ffffffebH
  00326	eb 0a		 jmp	 SHORT $LN1@LoadBool_e
$LN95@LoadBool_e:
  00328	c6 45 d9 ec	 mov	 BYTE PTR __k$[ebp+1], -20 ; ffffffecH
  0032c	eb 04		 jmp	 SHORT $LN1@LoadBool_e
$LN96@LoadBool_e:
  0032e	c6 45 d8 ed	 mov	 BYTE PTR __k$[ebp], -19	; ffffffedH
$LN1@LoadBool_e:
  00332	6a 07		 push	 7
  00334	8d 45 d8	 lea	 eax, DWORD PTR __k$[ebp]
  00337	c6 45 f7 00	 mov	 BYTE PTR __k$[ebp+31], 0
  0033b	5a		 pop	 edx
$LL104@LoadBool_e:
  0033c	81 30 ed ec eb
	ea		 xor	 DWORD PTR [eax], -353637139 ; eaebecedH
  00342	83 c0 04	 add	 eax, 4
  00345	4a		 dec	 edx
  00346	75 f4		 jne	 SHORT $LL104@LoadBool_e
  00348	6a 1c		 push	 28			; 0000001cH
  0034a	58		 pop	 eax
$LL101@LoadBool_e:
  0034b	8b c8		 mov	 ecx, eax
  0034d	81 e1 03 00 00
	80		 and	 ecx, -2147483645	; 80000003H
  00353	79 05		 jns	 SHORT $LN111@LoadBool_e
  00355	49		 dec	 ecx
  00356	83 c9 fc	 or	 ecx, -4			; fffffffcH
  00359	41		 inc	 ecx
$LN111@LoadBool_e:
  0035a	b2 ed		 mov	 dl, -19			; ffffffedH
  0035c	2a d1		 sub	 dl, cl
  0035e	30 54 05 d8	 xor	 BYTE PTR __k$[ebp+eax], dl
  00362	40		 inc	 eax
  00363	83 f8 1f	 cmp	 eax, 31			; 0000001fH
  00366	7c e3		 jl	 SHORT $LL101@LoadBool_e

; 103  : 		return LoadBool(_k, b);

  00368	ff 75 0c	 push	 DWORD PTR _b$[ebp]
  0036b	8d 45 d8	 lea	 eax, DWORD PTR __k$[ebp]
  0036e	50		 push	 eax
  0036f	8b ce		 mov	 ecx, esi
  00371	ff 15 00 00 00
	00		 call	 DWORD PTR __imp_?LoadBool@ioINILoader@@QAE_NPBD_N@Z

; 104  : 	}

  00377	8b 4d fc	 mov	 ecx, DWORD PTR __$ArrayPad$[ebp]
  0037a	5e		 pop	 esi
  0037b	33 cd		 xor	 ecx, ebp
  0037d	5b		 pop	 ebx
  0037e	e8 00 00 00 00	 call	 @__security_check_cookie@4
  00383	c9		 leave
  00384	c2 08 00	 ret	 8
??$LoadBool_e@$0CA@@ioINILoader@@QAE_NAAY0CA@$$CBD_N@Z ENDP ; ioINILoader::LoadBool_e<32>
_TEXT	ENDS
PUBLIC	??$GetAnimationEventTime_e@$06@ioEntityGroup@@QAEMHAAY06$$CBD@Z ; ioEntityGroup::GetAnimationEventTime_e<7>
EXTRN	__imp_?GetAnimationEventTime@ioEntityGroup@@QAEMHABVioHashString@@@Z:PROC
EXTRN	__EH_epilog3_GS:PROC
EXTRN	__EH_prolog3_GS:PROC
;	COMDAT xdata$x
; File d:\lost saga for developer\youtube\tutorial\source\src\lsclient\stringprotect.h
xdata$x	SEGMENT
__unwindtable$??$GetAnimationEventTime_e@$06@ioEntityGroup@@QAEMHAAY06$$CBD@Z DD 0ffffffffH
	DD	FLAT:__unwindfunclet$??$GetAnimationEventTime_e@$06@ioEntityGroup@@QAEMHAAY06$$CBD@Z$0
__ehfuncinfo$??$GetAnimationEventTime_e@$06@ioEntityGroup@@QAEMHAAY06$$CBD@Z DD 019930522H
	DD	01H
	DD	FLAT:__unwindtable$??$GetAnimationEventTime_e@$06@ioEntityGroup@@QAEMHAAY06$$CBD@Z
	DD	2 DUP(00H)
	DD	2 DUP(00H)
	DD	00H
	DD	01H
; Function compile flags: /Ogsp
; File d:\lost saga for developer\youtube\tutorial\source\src\io3dengine\ioentitygroup.h
xdata$x	ENDS
;	COMDAT ??$GetAnimationEventTime_e@$06@ioEntityGroup@@QAEMHAAY06$$CBD@Z
_TEXT	SEGMENT
$T534464 = -48						; size = 16
$T534463 = -32						; size = 4
_szEncEventType$ = -28					; size = 7
__$EHRec$ = -12						; size = 12
_id$ = 8						; size = 4
_szEventType$ = 12					; size = 4
??$GetAnimationEventTime_e@$06@ioEntityGroup@@QAEMHAAY06$$CBD@Z PROC ; ioEntityGroup::GetAnimationEventTime_e<7>, COMDAT
; _this$ = ecx

; 414  : 	{

  00000	6a 24		 push	 36			; 00000024H
  00002	b8 00 00 00 00	 mov	 eax, __ehhandler$??$GetAnimationEventTime_e@$06@ioEntityGroup@@QAEMHAAY06$$CBD@Z
  00007	e8 00 00 00 00	 call	 __EH_prolog3_GS
  0000c	8b 45 0c	 mov	 eax, DWORD PTR _szEventType$[ebp]
  0000f	8b f1		 mov	 esi, ecx

; 415  : 		_ENCSTR(szEventType, szEncEventType);

  00011	8a 08		 mov	 cl, BYTE PTR [eax]
  00013	84 c9		 test	 cl, cl
  00015	0f 84 c0 00 00
	00		 je	 $LN96@GetAnimati
  0001b	80 f1 ed	 xor	 cl, -19			; ffffffedH
  0001e	88 4d e4	 mov	 BYTE PTR _szEncEventType$[ebp], cl
  00021	8a 48 01	 mov	 cl, BYTE PTR [eax+1]
  00024	84 c9		 test	 cl, cl
  00026	0f 84 a9 00 00
	00		 je	 $LN95@GetAnimati
  0002c	80 f1 ec	 xor	 cl, -20			; ffffffecH
  0002f	88 4d e5	 mov	 BYTE PTR _szEncEventType$[ebp+1], cl
  00032	8a 48 02	 mov	 cl, BYTE PTR [eax+2]
  00035	84 c9		 test	 cl, cl
  00037	0f 84 92 00 00
	00		 je	 $LN94@GetAnimati
  0003d	80 f1 eb	 xor	 cl, -21			; ffffffebH
  00040	88 4d e6	 mov	 BYTE PTR _szEncEventType$[ebp+2], cl
  00043	8a 48 03	 mov	 cl, BYTE PTR [eax+3]
  00046	84 c9		 test	 cl, cl
  00048	74 7f		 je	 SHORT $LN93@GetAnimati
  0004a	80 f1 ea	 xor	 cl, -22			; ffffffeaH
  0004d	88 4d e7	 mov	 BYTE PTR _szEncEventType$[ebp+3], cl
  00050	8a 48 04	 mov	 cl, BYTE PTR [eax+4]
  00053	84 c9		 test	 cl, cl
  00055	74 6c		 je	 SHORT $LN92@GetAnimati
  00057	80 f1 ed	 xor	 cl, -19			; ffffffedH
  0005a	88 4d e8	 mov	 BYTE PTR _szEncEventType$[ebp+4], cl
  0005d	8a 48 05	 mov	 cl, BYTE PTR [eax+5]
  00060	84 c9		 test	 cl, cl
  00062	74 59		 je	 SHORT $LN91@GetAnimati
  00064	80 f1 ec	 xor	 cl, -20			; ffffffecH
  00067	80 78 06 00	 cmp	 BYTE PTR [eax+6], 0
  0006b	88 4d e9	 mov	 BYTE PTR _szEncEventType$[ebp+5], cl
  0006e	74 6f		 je	 SHORT $LN1@GetAnimati
  00070	8a 48 07	 mov	 cl, BYTE PTR [eax+7]
  00073	84 c9		 test	 cl, cl
  00075	74 40		 je	 SHORT $LN89@GetAnimati
  00077	80 f1 ea	 xor	 cl, -22			; ffffffeaH
  0007a	88 4d eb	 mov	 BYTE PTR _szEncEventType$[ebp+7], cl
  0007d	8a 48 08	 mov	 cl, BYTE PTR [eax+8]
  00080	84 c9		 test	 cl, cl
  00082	74 2d		 je	 SHORT $LN88@GetAnimati
  00084	80 f1 ed	 xor	 cl, -19			; ffffffedH
  00087	88 4d ec	 mov	 BYTE PTR _szEncEventType$[ebp+8], cl
  0008a	8a 48 09	 mov	 cl, BYTE PTR [eax+9]
  0008d	84 c9		 test	 cl, cl
  0008f	74 1a		 je	 SHORT $LN87@GetAnimati
  00091	8a 40 0a	 mov	 al, BYTE PTR [eax+10]
  00094	80 f1 ec	 xor	 cl, -20			; ffffffecH
  00097	88 4d ed	 mov	 BYTE PTR _szEncEventType$[ebp+9], cl
  0009a	84 c0		 test	 al, al
  0009c	74 07		 je	 SHORT $LN86@GetAnimati
  0009e	34 eb		 xor	 al, -21			; ffffffebH
  000a0	88 45 ee	 mov	 BYTE PTR _szEncEventType$[ebp+10], al
  000a3	eb 3a		 jmp	 SHORT $LN1@GetAnimati
$LN86@GetAnimati:
  000a5	c6 45 ee eb	 mov	 BYTE PTR _szEncEventType$[ebp+10], -21 ; ffffffebH
  000a9	eb 34		 jmp	 SHORT $LN1@GetAnimati
$LN87@GetAnimati:
  000ab	c6 45 ed ec	 mov	 BYTE PTR _szEncEventType$[ebp+9], -20 ; ffffffecH
  000af	eb 2e		 jmp	 SHORT $LN1@GetAnimati
$LN88@GetAnimati:
  000b1	c6 45 ec ed	 mov	 BYTE PTR _szEncEventType$[ebp+8], -19 ; ffffffedH
  000b5	eb 28		 jmp	 SHORT $LN1@GetAnimati
$LN89@GetAnimati:
  000b7	c6 45 eb ea	 mov	 BYTE PTR _szEncEventType$[ebp+7], -22 ; ffffffeaH
  000bb	eb 22		 jmp	 SHORT $LN1@GetAnimati
$LN91@GetAnimati:
  000bd	c6 45 e9 ec	 mov	 BYTE PTR _szEncEventType$[ebp+5], -20 ; ffffffecH
  000c1	eb 1c		 jmp	 SHORT $LN1@GetAnimati
$LN92@GetAnimati:
  000c3	c6 45 e8 ed	 mov	 BYTE PTR _szEncEventType$[ebp+4], -19 ; ffffffedH
  000c7	eb 16		 jmp	 SHORT $LN1@GetAnimati
$LN93@GetAnimati:
  000c9	c6 45 e7 ea	 mov	 BYTE PTR _szEncEventType$[ebp+3], -22 ; ffffffeaH
  000cd	eb 10		 jmp	 SHORT $LN1@GetAnimati
$LN94@GetAnimati:
  000cf	c6 45 e6 eb	 mov	 BYTE PTR _szEncEventType$[ebp+2], -21 ; ffffffebH
  000d3	eb 0a		 jmp	 SHORT $LN1@GetAnimati
$LN95@GetAnimati:
  000d5	c6 45 e5 ec	 mov	 BYTE PTR _szEncEventType$[ebp+1], -20 ; ffffffecH
  000d9	eb 04		 jmp	 SHORT $LN1@GetAnimati
$LN96@GetAnimati:
  000db	c6 45 e4 ed	 mov	 BYTE PTR _szEncEventType$[ebp], -19 ; ffffffedH
$LN1@GetAnimati:
  000df	81 75 e4 ed ec
	eb ea		 xor	 DWORD PTR _szEncEventType$[ebp], -353637139 ; eaebecedH
  000e6	6a 04		 push	 4
  000e8	c6 45 ea 00	 mov	 BYTE PTR _szEncEventType$[ebp+6], 0
  000ec	58		 pop	 eax
$LL102@GetAnimati:
  000ed	8b c8		 mov	 ecx, eax
  000ef	81 e1 03 00 00
	80		 and	 ecx, -2147483645	; 80000003H
  000f5	79 05		 jns	 SHORT $LN113@GetAnimati
  000f7	49		 dec	 ecx
  000f8	83 c9 fc	 or	 ecx, -4			; fffffffcH
  000fb	41		 inc	 ecx
$LN113@GetAnimati:
  000fc	b2 ed		 mov	 dl, -19			; ffffffedH
  000fe	2a d1		 sub	 dl, cl
  00100	30 54 05 e4	 xor	 BYTE PTR _szEncEventType$[ebp+eax], dl
  00104	40		 inc	 eax
  00105	83 f8 06	 cmp	 eax, 6
  00108	7c e3		 jl	 SHORT $LL102@GetAnimati

; 416  : 		return GetAnimationEventTime(id, szEncEventType);

  0010a	8d 45 e4	 lea	 eax, DWORD PTR _szEncEventType$[ebp]
  0010d	50		 push	 eax
  0010e	8d 4d d0	 lea	 ecx, DWORD PTR $T534464[ebp]
  00111	ff 15 00 00 00
	00		 call	 DWORD PTR __imp_??0ioHashString@@QAE@PBD@Z
  00117	83 65 fc 00	 and	 DWORD PTR __$EHRec$[ebp+8], 0
  0011b	8d 45 d0	 lea	 eax, DWORD PTR $T534464[ebp]
  0011e	50		 push	 eax
  0011f	ff 75 08	 push	 DWORD PTR _id$[ebp]
  00122	8b ce		 mov	 ecx, esi
  00124	ff 15 00 00 00
	00		 call	 DWORD PTR __imp_?GetAnimationEventTime@ioEntityGroup@@QAEMHABVioHashString@@@Z
  0012a	d9 5d e0	 fstp	 DWORD PTR $T534463[ebp]
  0012d	83 4d fc ff	 or	 DWORD PTR __$EHRec$[ebp+8], -1
  00131	8d 4d d0	 lea	 ecx, DWORD PTR $T534464[ebp]
  00134	ff 15 00 00 00
	00		 call	 DWORD PTR __imp_??1ioHashString@@QAE@XZ
  0013a	d9 45 e0	 fld	 DWORD PTR $T534463[ebp]

; 417  : 	}

  0013d	e8 00 00 00 00	 call	 __EH_epilog3_GS
  00142	c2 08 00	 ret	 8
_TEXT	ENDS
;	COMDAT text$x
text$x	SEGMENT
__unwindfunclet$??$GetAnimationEventTime_e@$06@ioEntityGroup@@QAEMHAAY06$$CBD@Z$0:
  00000	8d 4d d0	 lea	 ecx, DWORD PTR $T534464[ebp]
  00003	ff 25 00 00 00
	00		 jmp	 DWORD PTR __imp_??1ioHashString@@QAE@XZ
__ehhandler$??$GetAnimationEventTime_e@$06@ioEntityGroup@@QAEMHAAY06$$CBD@Z:
  00009	8b 54 24 08	 mov	 edx, DWORD PTR [esp+8]
  0000d	8d 42 0c	 lea	 eax, DWORD PTR [edx+12]
  00010	8b 4a cc	 mov	 ecx, DWORD PTR [edx-52]
  00013	33 c8		 xor	 ecx, eax
  00015	e8 00 00 00 00	 call	 @__security_check_cookie@4
  0001a	8b 4a fc	 mov	 ecx, DWORD PTR [edx-4]
  0001d	33 c8		 xor	 ecx, eax
  0001f	e8 00 00 00 00	 call	 @__security_check_cookie@4
  00024	b8 00 00 00 00	 mov	 eax, OFFSET __ehfuncinfo$??$GetAnimationEventTime_e@$06@ioEntityGroup@@QAEMHAAY06$$CBD@Z
  00029	e9 00 00 00 00	 jmp	 ___CxxFrameHandler3
text$x	ENDS
??$GetAnimationEventTime_e@$06@ioEntityGroup@@QAEMHAAY06$$CBD@Z ENDP ; ioEntityGroup::GetAnimationEventTime_e<7>
PUBLIC	??B?$CEncrypt@_N@@QAE_NXZ			; CEncrypt<bool>::operator bool
; Function compile flags: /Ogsp
; File d:\lost saga for developer\youtube\tutorial\source\src\lsclient\encryptvalue.h
;	COMDAT ??B?$CEncrypt@_N@@QAE_NXZ
_TEXT	SEGMENT
_value$ = -1						; size = 1
??B?$CEncrypt@_N@@QAE_NXZ PROC				; CEncrypt<bool>::operator bool, COMDAT
; _this$ = ecx

; 134  : 	{

  00000	55		 push	 ebp
  00001	8b ec		 mov	 ebp, esp
  00003	51		 push	 ecx

; 135  : 		type value;
; 136  : 		DecryptValueToPool(&value);

  00004	8d 45 ff	 lea	 eax, DWORD PTR _value$[ebp]
  00007	50		 push	 eax
  00008	e8 00 00 00 00	 call	 ?DecryptValueToPool@?$CEncrypt@_N@@QAEXPA_N@Z ; CEncrypt<bool>::DecryptValueToPool

; 137  : 
; 138  : #ifdef _NOTUSE
; 139  : 		Debug();
; 140  : #endif
; 141  : 		return value;

  0000d	8a 45 ff	 mov	 al, BYTE PTR _value$[ebp]

; 142  : 	}

  00010	c9		 leave
  00011	c3		 ret	 0
??B?$CEncrypt@_N@@QAE_NXZ ENDP				; CEncrypt<bool>::operator bool
_TEXT	ENDS
PUBLIC	??B?$CEncrypt@_N@@QBE_NXZ			; CEncrypt<bool>::operator bool
; Function compile flags: /Ogsp
;	COMDAT ??B?$CEncrypt@_N@@QBE_NXZ
_TEXT	SEGMENT
_value$ = -1						; size = 1
??B?$CEncrypt@_N@@QBE_NXZ PROC				; CEncrypt<bool>::operator bool, COMDAT
; _this$ = ecx

; 145  : 	{

  00000	55		 push	 ebp
  00001	8b ec		 mov	 ebp, esp
  00003	51		 push	 ecx

; 146  : 		//UJ 130829, const도 똑같이 하면 된다 --start
; 147  : 		type value;
; 148  : 		CEncrypt<type>* pThis = const_cast<CEncrypt<type>*>(this);
; 149  : 		pThis->DecryptValueToPool(&value);

  00004	8d 45 ff	 lea	 eax, DWORD PTR _value$[ebp]
  00007	50		 push	 eax
  00008	e8 00 00 00 00	 call	 ?DecryptValueToPool@?$CEncrypt@_N@@QAEXPA_N@Z ; CEncrypt<bool>::DecryptValueToPool

; 150  : 		//// const에서 DecryptValueToPool 사용할 수 없으므로 아래와 같이함.
; 151  :  		//type value;
; 152  : 		//char szTempMem[MAX_ENCRYPT];
; 153  : 		//m_RC5.DecryptByte( m_MemPool, szTempMem, max(m_ValueSize, DEFAULT_ENCRYPT) );
; 154  : 		//memcpy( &value, szTempMem, m_ValueSize );
; 155  : 		//UJ --end
; 156  : 
; 157  : #ifdef _NOTUSE
; 158  : 		Debug();
; 159  : #endif
; 160  : 		return value;

  0000d	8a 45 ff	 mov	 al, BYTE PTR _value$[ebp]

; 161  : 	}

  00010	c9		 leave
  00011	c3		 ret	 0
??B?$CEncrypt@_N@@QBE_NXZ ENDP				; CEncrypt<bool>::operator bool
_TEXT	ENDS
PUBLIC	??B?$CEncrypt@W4TeamType@@@@QBE?AW4TeamType@@XZ	; CEncrypt<enum TeamType>::operator enum TeamType
; Function compile flags: /Ogsp
;	COMDAT ??B?$CEncrypt@W4TeamType@@@@QBE?AW4TeamType@@XZ
_TEXT	SEGMENT
_value$ = -4						; size = 4
??B?$CEncrypt@W4TeamType@@@@QBE?AW4TeamType@@XZ PROC	; CEncrypt<enum TeamType>::operator enum TeamType, COMDAT
; _this$ = ecx

; 145  : 	{

  00000	55		 push	 ebp
  00001	8b ec		 mov	 ebp, esp
  00003	51		 push	 ecx

; 146  : 		//UJ 130829, const도 똑같이 하면 된다 --start
; 147  : 		type value;
; 148  : 		CEncrypt<type>* pThis = const_cast<CEncrypt<type>*>(this);
; 149  : 		pThis->DecryptValueToPool(&value);

  00004	8d 45 fc	 lea	 eax, DWORD PTR _value$[ebp]
  00007	50		 push	 eax
  00008	e8 00 00 00 00	 call	 ?DecryptValueToPool@?$CEncrypt@W4TeamType@@@@QAEXPAW4TeamType@@@Z ; CEncrypt<enum TeamType>::DecryptValueToPool

; 150  : 		//// const에서 DecryptValueToPool 사용할 수 없으므로 아래와 같이함.
; 151  :  		//type value;
; 152  : 		//char szTempMem[MAX_ENCRYPT];
; 153  : 		//m_RC5.DecryptByte( m_MemPool, szTempMem, max(m_ValueSize, DEFAULT_ENCRYPT) );
; 154  : 		//memcpy( &value, szTempMem, m_ValueSize );
; 155  : 		//UJ --end
; 156  : 
; 157  : #ifdef _NOTUSE
; 158  : 		Debug();
; 159  : #endif
; 160  : 		return value;

  0000d	8b 45 fc	 mov	 eax, DWORD PTR _value$[ebp]

; 161  : 	}

  00010	c9		 leave
  00011	c3		 ret	 0
??B?$CEncrypt@W4TeamType@@@@QBE?AW4TeamType@@XZ ENDP	; CEncrypt<enum TeamType>::operator enum TeamType
_TEXT	ENDS
PUBLIC	_rkLoader$GSCopy$
PUBLIC	__$ArrayPad$
EXTRN	?LoadProperty@ioNormalSkill@@UAEXAAVioINILoader@@@Z:PROC ; ioNormalSkill::LoadProperty
; Function compile flags: /Ogsp
; File d:\lost saga for developer\youtube\tutorial\source\src\lsclient\iocirclemove6skill.cpp
;	COMDAT ?LoadProperty@ioCircleMove6Skill@@UAEXAAVioINILoader@@@Z
_TEXT	SEGMENT
_rkLoader$GSCopy$ = -304				; size = 4
_szBuf$ = -300						; size = 260
__k$536780 = -40					; size = 32
__k$535392 = -32					; size = 24
__k$535267 = -32					; size = 24
__k$535017 = -32					; size = 24
__k$536655 = -28					; size = 18
__k$536142 = -28					; size = 17
__k$535892 = -28					; size = 17
__k$535517 = -28					; size = 20
__k$535142 = -28					; size = 19
__k$534892 = -28					; size = 17
__k$534517 = -28					; size = 19
__k$536517 = -24					; size = 16
__k$536392 = -24					; size = 16
__k$536267 = -24					; size = 16
__k$536017 = -24					; size = 16
__k$535767 = -24					; size = 16
__k$535751 = -24					; size = 13
__k$534767 = -24					; size = 14
__k$534725 = -20					; size = 9
__$ArrayPad$ = -4					; size = 4
_rkLoader$ = 8						; size = 4
?LoadProperty@ioCircleMove6Skill@@UAEXAAVioINILoader@@@Z PROC ; ioCircleMove6Skill::LoadProperty, COMDAT
; _this$ = ecx

; 56   : {

  00000	55		 push	 ebp
  00001	8b ec		 mov	 ebp, esp
  00003	81 ec 30 01 00
	00		 sub	 esp, 304		; 00000130H
  00009	a1 00 00 00 00	 mov	 eax, DWORD PTR ___security_cookie
  0000e	33 c5		 xor	 eax, ebp
  00010	89 45 fc	 mov	 DWORD PTR __$ArrayPad$[ebp], eax
  00013	8b 45 08	 mov	 eax, DWORD PTR _rkLoader$[ebp]
  00016	53		 push	 ebx
  00017	56		 push	 esi
  00018	57		 push	 edi

; 57   : 	ioNormalSkill::LoadProperty( rkLoader );

  00019	50		 push	 eax
  0001a	8b f1		 mov	 esi, ecx

; 95   : 
; 96   : 	rkLoader.LoadString_e( "extra_guid_effect", "", szBuf, MAX_PATH );

  0001c	89 85 d0 fe ff
	ff		 mov	 DWORD PTR _rkLoader$GSCopy$[ebp], eax
  00022	e8 00 00 00 00	 call	 ?LoadProperty@ioNormalSkill@@UAEXAAVioINILoader@@@Z ; ioNormalSkill::LoadProperty
  00027	33 db		 xor	 ebx, ebx
  00029	6a 04		 push	 4
  0002b	c7 45 e4 9e 87
	82 86		 mov	 DWORD PTR __k$534517[ebp], -2038265954 ; 8682879eH
  00032	c7 45 e8 81 b3
	9b 98		 mov	 DWORD PTR __k$534517[ebp+4], -1734626431 ; 989bb381H
  00039	c7 45 ec 82 98
	8e 89		 mov	 DWORD PTR __k$534517[ebp+8], -1987143550 ; 898e9882H
  00040	c7 45 f0 99 b3
	9f 83		 mov	 DWORD PTR __k$534517[ebp+12], -2086685799 ; 839fb399H
  00047	66 c7 45 f4 80
	89		 mov	 WORD PTR __k$534517[ebp+16], 35200 ; 00008980H
  0004d	8d 45 e4	 lea	 eax, DWORD PTR __k$534517[ebp]
  00050	88 5d f6	 mov	 BYTE PTR __k$534517[ebp+18], bl
  00053	59		 pop	 ecx
$LL106@LoadProper:

; 58   : 
; 59   : 	char szBuf[MAX_PATH];
; 60   : 	//무적시간 설정
; 61   : 	m_dwSkillProtectTime    = (DWORD)rkLoader.LoadInt_e( "skill_protect_time", 0 );

  00054	81 30 ed ec eb
	ea		 xor	 DWORD PTR [eax], -353637139 ; eaebecedH
  0005a	83 c0 04	 add	 eax, 4
  0005d	49		 dec	 ecx
  0005e	75 f4		 jne	 SHORT $LL106@LoadProper
  00060	6a 10		 push	 16			; 00000010H
  00062	5f		 pop	 edi
$LL103@LoadProper:
  00063	8b c7		 mov	 eax, edi
  00065	25 03 00 00 80	 and	 eax, -2147483645	; 80000003H
  0006a	79 05		 jns	 SHORT $LN2093@LoadProper
  0006c	48		 dec	 eax
  0006d	83 c8 fc	 or	 eax, -4			; fffffffcH
  00070	40		 inc	 eax
$LN2093@LoadProper:
  00071	b1 ed		 mov	 cl, -19			; ffffffedH
  00073	2a c8		 sub	 cl, al
  00075	30 4c 3d e4	 xor	 BYTE PTR __k$534517[ebp+edi], cl
  00079	47		 inc	 edi
  0007a	83 ff 12	 cmp	 edi, 18			; 00000012H
  0007d	7c e4		 jl	 SHORT $LL103@LoadProper
  0007f	8b 8d d0 fe ff
	ff		 mov	 ecx, DWORD PTR _rkLoader$GSCopy$[ebp]
  00085	53		 push	 ebx
  00086	8d 45 e4	 lea	 eax, DWORD PTR __k$534517[ebp]
  00089	50		 push	 eax
  0008a	ff 15 00 00 00
	00		 call	 DWORD PTR __imp_?LoadInt@ioINILoader@@QAEHPBDH@Z
  00090	6a 02		 push	 2
  00092	89 86 c4 0f 00
	00		 mov	 DWORD PTR [esi+4036], eax

; 62   : 
; 63   : 	//루프 설정
; 64   : 	rkLoader.LoadString_e( "loop_ani", "", szBuf, MAX_PATH );

  00098	c7 45 ec 81 83
	84 9a		 mov	 DWORD PTR __k$534725[ebp], -1702591615 ; 9a848381H
  0009f	c7 45 f0 b2 8d
	85 83		 mov	 DWORD PTR __k$534725[ebp+4], -2088399438 ; 83858db2H
  000a6	8d 45 ec	 lea	 eax, DWORD PTR __k$534725[ebp]
  000a9	88 5d f4	 mov	 BYTE PTR __k$534725[ebp+8], bl
  000ac	59		 pop	 ecx
$LL212@LoadProper:
  000ad	81 30 ed ec eb
	ea		 xor	 DWORD PTR [eax], -353637139 ; eaebecedH
  000b3	83 c0 04	 add	 eax, 4
  000b6	49		 dec	 ecx
  000b7	75 f4		 jne	 SHORT $LL212@LoadProper
  000b9	8b 8d d0 fe ff
	ff		 mov	 ecx, DWORD PTR _rkLoader$GSCopy$[ebp]
  000bf	8b 3d 00 00 00
	00		 mov	 edi, DWORD PTR __imp_?LoadStringA@ioINILoader@@QAEXPBD0PADH@Z
  000c5	68 04 01 00 00	 push	 260			; 00000104H
  000ca	8d 85 d4 fe ff
	ff		 lea	 eax, DWORD PTR _szBuf$[ebp]
  000d0	50		 push	 eax
  000d1	68 00 00 00 00	 push	 OFFSET ??_C@_00CNPNBAHC@?$AA@
  000d6	8d 45 ec	 lea	 eax, DWORD PTR __k$534725[ebp]
  000d9	50		 push	 eax
  000da	ff d7		 call	 edi

; 65   : 	m_szLoopAni = szBuf;

  000dc	8d 85 d4 fe ff
	ff		 lea	 eax, DWORD PTR _szBuf$[ebp]
  000e2	50		 push	 eax
  000e3	8d 8e d0 0f 00
	00		 lea	 ecx, DWORD PTR [esi+4048]
  000e9	ff 15 00 00 00
	00		 call	 DWORD PTR __imp_??4ioHashString@@QAEAAV0@PBD@Z
  000ef	6a 03		 push	 3

; 66   : 	//루프 시간 설정
; 67   : 	m_dwLoopDuration = rkLoader.LoadInt_e( "loop_duration", 0 );

  000f1	c7 45 e8 81 83
	84 9a		 mov	 DWORD PTR __k$534767[ebp], -1702591615 ; 9a848381H
  000f8	c7 45 ec b2 88
	9e 98		 mov	 DWORD PTR __k$534767[ebp+4], -1734440782 ; 989e88b2H
  000ff	c7 45 f0 8c 98
	82 85		 mov	 DWORD PTR __k$534767[ebp+8], -2055038836 ; 8582988cH
  00106	8d 45 e8	 lea	 eax, DWORD PTR __k$534767[ebp]
  00109	66 c7 45 f4 83
	00		 mov	 WORD PTR __k$534767[ebp+12], 131 ; 00000083H
  0010f	59		 pop	 ecx
$LL318@LoadProper:
  00110	81 30 ed ec eb
	ea		 xor	 DWORD PTR [eax], -353637139 ; eaebecedH
  00116	83 c0 04	 add	 eax, 4
  00119	49		 dec	 ecx
  0011a	75 f4		 jne	 SHORT $LL318@LoadProper
  0011c	8b 8d d0 fe ff
	ff		 mov	 ecx, DWORD PTR _rkLoader$GSCopy$[ebp]
  00122	80 75 f4 ed	 xor	 BYTE PTR __k$534767[ebp+12], -19 ; ffffffedH
  00126	53		 push	 ebx
  00127	8d 45 e8	 lea	 eax, DWORD PTR __k$534767[ebp]
  0012a	50		 push	 eax
  0012b	ff 15 00 00 00
	00		 call	 DWORD PTR __imp_?LoadInt@ioINILoader@@QAEHPBDH@Z
  00131	6a 04		 push	 4
  00133	89 86 e0 0f 00
	00		 mov	 DWORD PTR [esi+4064], eax

; 68   : 
; 69   : 	//무기 설정
; 70   : 	m_nFireWeaponNum = rkLoader.LoadInt_e( "fire_attack_type", NO_WEAPON_ATTRIBUTE );

  00139	c7 45 e4 8b 85
	99 8f		 mov	 DWORD PTR __k$534892[ebp], -1885764213 ; 8f99858bH
  00140	c7 45 e8 b2 8d
	9f 9e		 mov	 DWORD PTR __k$534892[ebp+4], -1633710670 ; 9e9f8db2H
  00147	c7 45 ec 8c 8f
	80 b5		 mov	 DWORD PTR __k$534892[ebp+8], -1249865844 ; b5808f8cH
  0014e	c7 45 f0 99 95
	9b 8f		 mov	 DWORD PTR __k$534892[ebp+12], -1885629031 ; 8f9b9599H
  00155	8d 45 e4	 lea	 eax, DWORD PTR __k$534892[ebp]
  00158	88 5d f4	 mov	 BYTE PTR __k$534892[ebp+16], bl
  0015b	59		 pop	 ecx
$LL424@LoadProper:
  0015c	81 30 ed ec eb
	ea		 xor	 DWORD PTR [eax], -353637139 ; eaebecedH
  00162	83 c0 04	 add	 eax, 4
  00165	49		 dec	 ecx
  00166	75 f4		 jne	 SHORT $LL424@LoadProper
  00168	8b 8d d0 fe ff
	ff		 mov	 ecx, DWORD PTR _rkLoader$GSCopy$[ebp]
  0016e	53		 push	 ebx
  0016f	8d 45 e4	 lea	 eax, DWORD PTR __k$534892[ebp]
  00172	50		 push	 eax
  00173	ff 15 00 00 00
	00		 call	 DWORD PTR __imp_?LoadInt@ioINILoader@@QAEHPBDH@Z
  00179	6a 05		 push	 5
  0017b	89 86 c8 0f 00
	00		 mov	 DWORD PTR [esi+4040], eax

; 71   : 	m_nFireWeaponResist = rkLoader.LoadInt_e( "fire_attack_type_resist", NO_WEAPON_ATTRIBUTE );

  00181	c7 45 e0 8b 85
	99 8f		 mov	 DWORD PTR __k$535017[ebp], -1885764213 ; 8f99858bH
  00188	c7 45 e4 b2 8d
	9f 9e		 mov	 DWORD PTR __k$535017[ebp+4], -1633710670 ; 9e9f8db2H
  0018f	c7 45 e8 8c 8f
	80 b5		 mov	 DWORD PTR __k$535017[ebp+8], -1249865844 ; b5808f8cH
  00196	c7 45 ec 99 95
	9b 8f		 mov	 DWORD PTR __k$535017[ebp+12], -1885629031 ; 8f9b9599H
  0019d	c7 45 f0 b2 9e
	8e 99		 mov	 DWORD PTR __k$535017[ebp+16], -1718706510 ; 998e9eb2H
  001a4	8d 45 e0	 lea	 eax, DWORD PTR __k$535017[ebp]
  001a7	c7 45 f4 84 9f
	9f 00		 mov	 DWORD PTR __k$535017[ebp+20], 10461060 ; 009f9f84H
  001ae	59		 pop	 ecx
$LL530@LoadProper:
  001af	81 30 ed ec eb
	ea		 xor	 DWORD PTR [eax], -353637139 ; eaebecedH
  001b5	83 c0 04	 add	 eax, 4
  001b8	49		 dec	 ecx
  001b9	75 f4		 jne	 SHORT $LL530@LoadProper
  001bb	6a 14		 push	 20			; 00000014H
  001bd	58		 pop	 eax
$LL527@LoadProper:
  001be	8b c8		 mov	 ecx, eax
  001c0	81 e1 03 00 00
	80		 and	 ecx, -2147483645	; 80000003H
  001c6	79 05		 jns	 SHORT $LN2094@LoadProper
  001c8	49		 dec	 ecx
  001c9	83 c9 fc	 or	 ecx, -4			; fffffffcH
  001cc	41		 inc	 ecx
$LN2094@LoadProper:
  001cd	b2 ed		 mov	 dl, -19			; ffffffedH
  001cf	2a d1		 sub	 dl, cl
  001d1	30 54 05 e0	 xor	 BYTE PTR __k$535017[ebp+eax], dl
  001d5	40		 inc	 eax
  001d6	83 f8 17	 cmp	 eax, 23			; 00000017H
  001d9	7c e3		 jl	 SHORT $LL527@LoadProper
  001db	8b 8d d0 fe ff
	ff		 mov	 ecx, DWORD PTR _rkLoader$GSCopy$[ebp]
  001e1	53		 push	 ebx
  001e2	8d 45 e0	 lea	 eax, DWORD PTR __k$535017[ebp]
  001e5	50		 push	 eax
  001e6	ff 15 00 00 00
	00		 call	 DWORD PTR __imp_?LoadInt@ioINILoader@@QAEHPBDH@Z
  001ec	6a 04		 push	 4
  001ee	89 86 cc 0f 00
	00		 mov	 DWORD PTR [esi+4044], eax

; 72   : 
; 73   : 	//마법진 설정
; 74   : 	m_fCircleRange = rkLoader.LoadFloat_e( "magic_circle_range", 0.0f );

  001f4	c7 45 e4 80 8d
	8c 83		 mov	 DWORD PTR __k$535142[ebp], -2087940736 ; 838c8d80H
  001fb	c7 45 e8 8e b3
	88 83		 mov	 DWORD PTR __k$535142[ebp+4], -2088193138 ; 8388b38eH
  00202	c7 45 ec 9f 8f
	87 8f		 mov	 DWORD PTR __k$535142[ebp+8], -1886941281 ; 8f878f9fH
  00209	c7 45 f0 b2 9e
	8a 84		 mov	 DWORD PTR __k$535142[ebp+12], -2071290190 ; 848a9eb2H
  00210	66 c7 45 f4 8a
	89		 mov	 WORD PTR __k$535142[ebp+16], 35210 ; 0000898aH
  00216	8d 45 e4	 lea	 eax, DWORD PTR __k$535142[ebp]
  00219	88 5d f6	 mov	 BYTE PTR __k$535142[ebp+18], bl
  0021c	59		 pop	 ecx
$LL636@LoadProper:
  0021d	81 30 ed ec eb
	ea		 xor	 DWORD PTR [eax], -353637139 ; eaebecedH
  00223	83 c0 04	 add	 eax, 4
  00226	49		 dec	 ecx
  00227	75 f4		 jne	 SHORT $LL636@LoadProper
  00229	6a 10		 push	 16			; 00000010H
  0022b	58		 pop	 eax
$LL633@LoadProper:
  0022c	8b c8		 mov	 ecx, eax
  0022e	81 e1 03 00 00
	80		 and	 ecx, -2147483645	; 80000003H
  00234	79 05		 jns	 SHORT $LN2095@LoadProper
  00236	49		 dec	 ecx
  00237	83 c9 fc	 or	 ecx, -4			; fffffffcH
  0023a	41		 inc	 ecx
$LN2095@LoadProper:
  0023b	b2 ed		 mov	 dl, -19			; ffffffedH
  0023d	2a d1		 sub	 dl, cl
  0023f	30 54 05 e4	 xor	 BYTE PTR __k$535142[ebp+eax], dl
  00243	40		 inc	 eax
  00244	83 f8 12	 cmp	 eax, 18			; 00000012H
  00247	7c e3		 jl	 SHORT $LL633@LoadProper
  00249	0f 57 c0	 xorps	 xmm0, xmm0
  0024c	51		 push	 ecx
  0024d	8b 8d d0 fe ff
	ff		 mov	 ecx, DWORD PTR _rkLoader$GSCopy$[ebp]
  00253	8d 45 e4	 lea	 eax, DWORD PTR __k$535142[ebp]
  00256	f3 0f 11 04 24	 movss	 DWORD PTR [esp], xmm0
  0025b	50		 push	 eax
  0025c	ff 15 00 00 00
	00		 call	 DWORD PTR __imp_?LoadFloat@ioINILoader@@QAEMPBDM@Z
  00262	d9 9e 58 0f 00
	00		 fstp	 DWORD PTR [esi+3928]
  00268	6a 05		 push	 5

; 75   : 	m_fCircleMoveSpeed = rkLoader.LoadFloat_e( "magic_circle_move_speed", 0.0f );

  0026a	c7 45 e0 80 8d
	8c 83		 mov	 DWORD PTR __k$535267[ebp], -2087940736 ; 838c8d80H
  00271	c7 45 e4 8e b3
	88 83		 mov	 DWORD PTR __k$535267[ebp+4], -2088193138 ; 8388b38eH
  00278	c7 45 e8 9f 8f
	87 8f		 mov	 DWORD PTR __k$535267[ebp+8], -1886941281 ; 8f878f9fH
  0027f	c7 45 ec b2 81
	84 9c		 mov	 DWORD PTR __k$535267[ebp+12], -1669037646 ; 9c8481b2H
  00286	c7 45 f0 88 b3
	98 9a		 mov	 DWORD PTR __k$535267[ebp+16], -1701268600 ; 9a98b388H
  0028d	8d 45 e0	 lea	 eax, DWORD PTR __k$535267[ebp]
  00290	c7 45 f4 88 89
	8f 00		 mov	 DWORD PTR __k$535267[ebp+20], 9406856 ; 008f8988H
  00297	59		 pop	 ecx
$LL742@LoadProper:
  00298	81 30 ed ec eb
	ea		 xor	 DWORD PTR [eax], -353637139 ; eaebecedH
  0029e	83 c0 04	 add	 eax, 4
  002a1	49		 dec	 ecx
  002a2	75 f4		 jne	 SHORT $LL742@LoadProper
  002a4	6a 14		 push	 20			; 00000014H
  002a6	58		 pop	 eax
$LL739@LoadProper:
  002a7	8b c8		 mov	 ecx, eax
  002a9	81 e1 03 00 00
	80		 and	 ecx, -2147483645	; 80000003H
  002af	79 05		 jns	 SHORT $LN2096@LoadProper
  002b1	49		 dec	 ecx
  002b2	83 c9 fc	 or	 ecx, -4			; fffffffcH
  002b5	41		 inc	 ecx
$LN2096@LoadProper:
  002b6	b2 ed		 mov	 dl, -19			; ffffffedH
  002b8	2a d1		 sub	 dl, cl
  002ba	30 54 05 e0	 xor	 BYTE PTR __k$535267[ebp+eax], dl
  002be	40		 inc	 eax
  002bf	83 f8 17	 cmp	 eax, 23			; 00000017H
  002c2	7c e3		 jl	 SHORT $LL739@LoadProper
  002c4	0f 57 c0	 xorps	 xmm0, xmm0
  002c7	51		 push	 ecx
  002c8	8b 8d d0 fe ff
	ff		 mov	 ecx, DWORD PTR _rkLoader$GSCopy$[ebp]
  002ce	8d 45 e0	 lea	 eax, DWORD PTR __k$535267[ebp]
  002d1	f3 0f 11 04 24	 movss	 DWORD PTR [esp], xmm0
  002d6	50		 push	 eax
  002d7	ff 15 00 00 00
	00		 call	 DWORD PTR __imp_?LoadFloat@ioINILoader@@QAEMPBDM@Z
  002dd	d9 9e 5c 0f 00
	00		 fstp	 DWORD PTR [esi+3932]
  002e3	6a 05		 push	 5

; 76   : 	m_fCircleHeightGap = rkLoader.LoadFloat_e( "magic_circle_height_gap", 0.0f );

  002e5	c7 45 e0 80 8d
	8c 83		 mov	 DWORD PTR __k$535392[ebp], -2087940736 ; 838c8d80H
  002ec	c7 45 e4 8e b3
	88 83		 mov	 DWORD PTR __k$535392[ebp+4], -2088193138 ; 8388b38eH
  002f3	c7 45 e8 9f 8f
	87 8f		 mov	 DWORD PTR __k$535392[ebp+8], -1886941281 ; 8f878f9fH
  002fa	c7 45 ec b2 84
	8e 83		 mov	 DWORD PTR __k$535392[ebp+12], -2087811918 ; 838e84b2H
  00301	c7 45 f0 8a 84
	9f b5		 mov	 DWORD PTR __k$535392[ebp+16], -1247837046 ; b59f848aH
  00308	8d 45 e0	 lea	 eax, DWORD PTR __k$535392[ebp]
  0030b	c7 45 f4 8a 8d
	9b 00		 mov	 DWORD PTR __k$535392[ebp+20], 10194314 ; 009b8d8aH
  00312	59		 pop	 ecx
$LL848@LoadProper:
  00313	81 30 ed ec eb
	ea		 xor	 DWORD PTR [eax], -353637139 ; eaebecedH
  00319	83 c0 04	 add	 eax, 4
  0031c	49		 dec	 ecx
  0031d	75 f4		 jne	 SHORT $LL848@LoadProper
  0031f	6a 14		 push	 20			; 00000014H
  00321	58		 pop	 eax
$LL845@LoadProper:
  00322	8b c8		 mov	 ecx, eax
  00324	81 e1 03 00 00
	80		 and	 ecx, -2147483645	; 80000003H
  0032a	79 05		 jns	 SHORT $LN2097@LoadProper
  0032c	49		 dec	 ecx
  0032d	83 c9 fc	 or	 ecx, -4			; fffffffcH
  00330	41		 inc	 ecx
$LN2097@LoadProper:
  00331	b2 ed		 mov	 dl, -19			; ffffffedH
  00333	2a d1		 sub	 dl, cl
  00335	30 54 05 e0	 xor	 BYTE PTR __k$535392[ebp+eax], dl
  00339	40		 inc	 eax
  0033a	83 f8 17	 cmp	 eax, 23			; 00000017H
  0033d	7c e3		 jl	 SHORT $LL845@LoadProper
  0033f	0f 57 c0	 xorps	 xmm0, xmm0
  00342	51		 push	 ecx
  00343	8b 8d d0 fe ff
	ff		 mov	 ecx, DWORD PTR _rkLoader$GSCopy$[ebp]
  00349	8d 45 e0	 lea	 eax, DWORD PTR __k$535392[ebp]
  0034c	f3 0f 11 04 24	 movss	 DWORD PTR [esp], xmm0
  00351	50		 push	 eax
  00352	ff 15 00 00 00
	00		 call	 DWORD PTR __imp_?LoadFloat@ioINILoader@@QAEMPBDM@Z
  00358	d9 9e 60 0f 00
	00		 fstp	 DWORD PTR [esi+3936]
  0035e	6a 04		 push	 4

; 77   : 	m_fCircleOffSet = rkLoader.LoadFloat_e( "magic_circle_offset", 0.0f );

  00360	c7 45 e4 80 8d
	8c 83		 mov	 DWORD PTR __k$535517[ebp], -2087940736 ; 838c8d80H
  00367	c7 45 e8 8e b3
	88 83		 mov	 DWORD PTR __k$535517[ebp+4], -2088193138 ; 8388b38eH
  0036e	c7 45 ec 9f 8f
	87 8f		 mov	 DWORD PTR __k$535517[ebp+8], -1886941281 ; 8f878f9fH
  00375	c7 45 f0 b2 83
	8d 8c		 mov	 DWORD PTR __k$535517[ebp+12], -1936882766 ; 8c8d83b2H
  0037c	8d 45 e4	 lea	 eax, DWORD PTR __k$535517[ebp]
  0037f	c7 45 f4 9e 89
	9f 00		 mov	 DWORD PTR __k$535517[ebp+16], 10455454 ; 009f899eH
  00386	59		 pop	 ecx
$LL954@LoadProper:
  00387	81 30 ed ec eb
	ea		 xor	 DWORD PTR [eax], -353637139 ; eaebecedH
  0038d	83 c0 04	 add	 eax, 4
  00390	49		 dec	 ecx
  00391	75 f4		 jne	 SHORT $LL954@LoadProper
  00393	6a 10		 push	 16			; 00000010H
  00395	58		 pop	 eax
$LL951@LoadProper:
  00396	8b c8		 mov	 ecx, eax
  00398	81 e1 03 00 00
	80		 and	 ecx, -2147483645	; 80000003H
  0039e	79 05		 jns	 SHORT $LN2098@LoadProper
  003a0	49		 dec	 ecx
  003a1	83 c9 fc	 or	 ecx, -4			; fffffffcH
  003a4	41		 inc	 ecx
$LN2098@LoadProper:
  003a5	b2 ed		 mov	 dl, -19			; ffffffedH
  003a7	2a d1		 sub	 dl, cl
  003a9	30 54 05 e4	 xor	 BYTE PTR __k$535517[ebp+eax], dl
  003ad	40		 inc	 eax
  003ae	83 f8 13	 cmp	 eax, 19			; 00000013H
  003b1	7c e3		 jl	 SHORT $LL951@LoadProper
  003b3	0f 57 c0	 xorps	 xmm0, xmm0
  003b6	51		 push	 ecx
  003b7	8b 8d d0 fe ff
	ff		 mov	 ecx, DWORD PTR _rkLoader$GSCopy$[ebp]
  003bd	8d 45 e4	 lea	 eax, DWORD PTR __k$535517[ebp]
  003c0	f3 0f 11 04 24	 movss	 DWORD PTR [esp], xmm0
  003c5	50		 push	 eax
  003c6	ff 15 00 00 00
	00		 call	 DWORD PTR __imp_?LoadFloat@ioINILoader@@QAEMPBDM@Z
  003cc	d9 9e 64 0f 00
	00		 fstp	 DWORD PTR [esi+3940]
  003d2	6a 03		 push	 3

; 78   : 	
; 79   : 	rkLoader.LoadString_e( "ready_circle", "", szBuf, MAX_PATH );

  003d4	c7 45 e8 9f 89
	8a 8e		 mov	 DWORD PTR __k$535751[ebp], -1903523425 ; 8e8a899fH
  003db	c7 45 ec 94 b3
	88 83		 mov	 DWORD PTR __k$535751[ebp+4], -2088193132 ; 8388b394H
  003e2	c7 45 f0 9f 8f
	87 8f		 mov	 DWORD PTR __k$535751[ebp+8], -1886941281 ; 8f878f9fH
  003e9	8d 45 e8	 lea	 eax, DWORD PTR __k$535751[ebp]
  003ec	88 5d f4	 mov	 BYTE PTR __k$535751[ebp+12], bl
  003ef	59		 pop	 ecx
$LL1060@LoadProper:
  003f0	81 30 ed ec eb
	ea		 xor	 DWORD PTR [eax], -353637139 ; eaebecedH
  003f6	83 c0 04	 add	 eax, 4
  003f9	49		 dec	 ecx
  003fa	75 f4		 jne	 SHORT $LL1060@LoadProper
  003fc	8b 8d d0 fe ff
	ff		 mov	 ecx, DWORD PTR _rkLoader$GSCopy$[ebp]
  00402	68 04 01 00 00	 push	 260			; 00000104H
  00407	8d 85 d4 fe ff
	ff		 lea	 eax, DWORD PTR _szBuf$[ebp]
  0040d	50		 push	 eax
  0040e	68 00 00 00 00	 push	 OFFSET ??_C@_00CNPNBAHC@?$AA@
  00413	8d 45 e8	 lea	 eax, DWORD PTR __k$535751[ebp]
  00416	50		 push	 eax
  00417	ff d7		 call	 edi

; 80   : 	m_ReadyCircle = szBuf;

  00419	8d 85 d4 fe ff
	ff		 lea	 eax, DWORD PTR _szBuf$[ebp]
  0041f	50		 push	 eax
  00420	8d 8e 68 0f 00
	00		 lea	 ecx, DWORD PTR [esi+3944]
  00426	ff 15 00 00 00
	00		 call	 DWORD PTR __imp_??4ioHashString@@QAEAAV0@PBD@Z
  0042c	6a 03		 push	 3

; 81   : 	
; 82   : 	rkLoader.LoadString_e( "red_guid_circle", "", szBuf, MAX_PATH );

  0042e	c7 45 e8 9f 89
	8f b5		 mov	 DWORD PTR __k$535767[ebp], -1248884321 ; b58f899fH
  00435	c7 45 ec 8a 99
	82 8e		 mov	 DWORD PTR __k$535767[ebp+4], -1904043638 ; 8e82998aH
  0043c	c7 45 f0 b2 8f
	82 98		 mov	 DWORD PTR __k$535767[ebp+8], -1736273998 ; 98828fb2H
  00443	8d 45 e8	 lea	 eax, DWORD PTR __k$535767[ebp]
  00446	c7 45 f4 8e 80
	8e 00		 mov	 DWORD PTR __k$535767[ebp+12], 9339022 ; 008e808eH
  0044d	59		 pop	 ecx
$LL1166@LoadProper:
  0044e	81 30 ed ec eb
	ea		 xor	 DWORD PTR [eax], -353637139 ; eaebecedH
  00454	83 c0 04	 add	 eax, 4
  00457	49		 dec	 ecx
  00458	75 f4		 jne	 SHORT $LL1166@LoadProper
  0045a	6a 0c		 push	 12			; 0000000cH
  0045c	58		 pop	 eax
$LL1163@LoadProper:
  0045d	8b c8		 mov	 ecx, eax
  0045f	81 e1 03 00 00
	80		 and	 ecx, -2147483645	; 80000003H
  00465	79 05		 jns	 SHORT $LN2099@LoadProper
  00467	49		 dec	 ecx
  00468	83 c9 fc	 or	 ecx, -4			; fffffffcH
  0046b	41		 inc	 ecx
$LN2099@LoadProper:
  0046c	b2 ed		 mov	 dl, -19			; ffffffedH
  0046e	2a d1		 sub	 dl, cl
  00470	30 54 05 e8	 xor	 BYTE PTR __k$535767[ebp+eax], dl
  00474	40		 inc	 eax
  00475	83 f8 0f	 cmp	 eax, 15			; 0000000fH
  00478	7c e3		 jl	 SHORT $LL1163@LoadProper
  0047a	8b 8d d0 fe ff
	ff		 mov	 ecx, DWORD PTR _rkLoader$GSCopy$[ebp]
  00480	68 04 01 00 00	 push	 260			; 00000104H
  00485	8d 85 d4 fe ff
	ff		 lea	 eax, DWORD PTR _szBuf$[ebp]
  0048b	50		 push	 eax
  0048c	68 00 00 00 00	 push	 OFFSET ??_C@_00CNPNBAHC@?$AA@
  00491	8d 45 e8	 lea	 eax, DWORD PTR __k$535767[ebp]
  00494	50		 push	 eax
  00495	ff d7		 call	 edi

; 83   : 	m_RedGuidCircle = szBuf;

  00497	8d 85 d4 fe ff
	ff		 lea	 eax, DWORD PTR _szBuf$[ebp]
  0049d	50		 push	 eax
  0049e	8d 8e 98 0f 00
	00		 lea	 ecx, DWORD PTR [esi+3992]
  004a4	ff 15 00 00 00
	00		 call	 DWORD PTR __imp_??4ioHashString@@QAEAAV0@PBD@Z
  004aa	6a 04		 push	 4

; 84   : 	rkLoader.LoadString_e( "blue_guid_circle", "", szBuf, MAX_PATH );

  004ac	c7 45 e4 8f 80
	9e 8f		 mov	 DWORD PTR __k$535892[ebp], -1885437809 ; 8f9e808fH
  004b3	c7 45 e8 b2 8b
	9e 83		 mov	 DWORD PTR __k$535892[ebp+4], -2086761550 ; 839e8bb2H
  004ba	c7 45 ec 89 b3
	88 83		 mov	 DWORD PTR __k$535892[ebp+8], -2088193143 ; 8388b389H
  004c1	c7 45 f0 9f 8f
	87 8f		 mov	 DWORD PTR __k$535892[ebp+12], -1886941281 ; 8f878f9fH
  004c8	8d 45 e4	 lea	 eax, DWORD PTR __k$535892[ebp]
  004cb	88 5d f4	 mov	 BYTE PTR __k$535892[ebp+16], bl
  004ce	59		 pop	 ecx
$LL1272@LoadProper:
  004cf	81 30 ed ec eb
	ea		 xor	 DWORD PTR [eax], -353637139 ; eaebecedH
  004d5	83 c0 04	 add	 eax, 4
  004d8	49		 dec	 ecx
  004d9	75 f4		 jne	 SHORT $LL1272@LoadProper
  004db	8b 8d d0 fe ff
	ff		 mov	 ecx, DWORD PTR _rkLoader$GSCopy$[ebp]
  004e1	68 04 01 00 00	 push	 260			; 00000104H
  004e6	8d 85 d4 fe ff
	ff		 lea	 eax, DWORD PTR _szBuf$[ebp]
  004ec	50		 push	 eax
  004ed	68 00 00 00 00	 push	 OFFSET ??_C@_00CNPNBAHC@?$AA@
  004f2	8d 45 e4	 lea	 eax, DWORD PTR __k$535892[ebp]
  004f5	50		 push	 eax
  004f6	ff d7		 call	 edi

; 85   : 	m_BlueGuidCircle = szBuf;

  004f8	8d 85 d4 fe ff
	ff		 lea	 eax, DWORD PTR _szBuf$[ebp]
  004fe	50		 push	 eax
  004ff	8d 8e a8 0f 00
	00		 lea	 ecx, DWORD PTR [esi+4008]
  00505	ff 15 00 00 00
	00		 call	 DWORD PTR __imp_??4ioHashString@@QAEAAV0@PBD@Z
  0050b	6a 03		 push	 3

; 86   : 
; 87   : 	rkLoader.LoadString_e( "red_team_effect", "", szBuf, MAX_PATH );

  0050d	c7 45 e8 9f 89
	8f b5		 mov	 DWORD PTR __k$536017[ebp], -1248884321 ; b58f899fH
  00514	c7 45 ec 99 89
	8a 87		 mov	 DWORD PTR __k$536017[ebp+4], -2020963943 ; 878a8999H
  0051b	c7 45 f0 b2 89
	8d 8c		 mov	 DWORD PTR __k$536017[ebp+8], -1936881230 ; 8c8d89b2H
  00522	8d 45 e8	 lea	 eax, DWORD PTR __k$536017[ebp]
  00525	c7 45 f4 88 8f
	9f 00		 mov	 DWORD PTR __k$536017[ebp+12], 10456968 ; 009f8f88H
  0052c	59		 pop	 ecx
$LL1378@LoadProper:
  0052d	81 30 ed ec eb
	ea		 xor	 DWORD PTR [eax], -353637139 ; eaebecedH
  00533	83 c0 04	 add	 eax, 4
  00536	49		 dec	 ecx
  00537	75 f4		 jne	 SHORT $LL1378@LoadProper
  00539	6a 0c		 push	 12			; 0000000cH
  0053b	58		 pop	 eax
$LL1375@LoadProper:
  0053c	8b c8		 mov	 ecx, eax
  0053e	81 e1 03 00 00
	80		 and	 ecx, -2147483645	; 80000003H
  00544	79 05		 jns	 SHORT $LN2100@LoadProper
  00546	49		 dec	 ecx
  00547	83 c9 fc	 or	 ecx, -4			; fffffffcH
  0054a	41		 inc	 ecx
$LN2100@LoadProper:
  0054b	b2 ed		 mov	 dl, -19			; ffffffedH
  0054d	2a d1		 sub	 dl, cl
  0054f	30 54 05 e8	 xor	 BYTE PTR __k$536017[ebp+eax], dl
  00553	40		 inc	 eax
  00554	83 f8 0f	 cmp	 eax, 15			; 0000000fH
  00557	7c e3		 jl	 SHORT $LL1375@LoadProper
  00559	8b 8d d0 fe ff
	ff		 mov	 ecx, DWORD PTR _rkLoader$GSCopy$[ebp]
  0055f	68 04 01 00 00	 push	 260			; 00000104H
  00564	8d 85 d4 fe ff
	ff		 lea	 eax, DWORD PTR _szBuf$[ebp]
  0056a	50		 push	 eax
  0056b	68 00 00 00 00	 push	 OFFSET ??_C@_00CNPNBAHC@?$AA@
  00570	8d 45 e8	 lea	 eax, DWORD PTR __k$536017[ebp]
  00573	50		 push	 eax
  00574	ff d7		 call	 edi

; 88   : 	m_RedEffect = szBuf;

  00576	8d 85 d4 fe ff
	ff		 lea	 eax, DWORD PTR _szBuf$[ebp]
  0057c	50		 push	 eax
  0057d	8d 8e 78 0f 00
	00		 lea	 ecx, DWORD PTR [esi+3960]
  00583	ff 15 00 00 00
	00		 call	 DWORD PTR __imp_??4ioHashString@@QAEAAV0@PBD@Z
  00589	6a 04		 push	 4

; 89   : 	rkLoader.LoadString_e( "blue_team_effect", "", szBuf, MAX_PATH );

  0058b	c7 45 e4 8f 80
	9e 8f		 mov	 DWORD PTR __k$536142[ebp], -1885437809 ; 8f9e808fH
  00592	c7 45 e8 b2 98
	8e 8b		 mov	 DWORD PTR __k$536142[ebp+4], -1953589070 ; 8b8e98b2H
  00599	c7 45 ec 80 b3
	8e 8c		 mov	 DWORD PTR __k$536142[ebp+8], -1936804992 ; 8c8eb380H
  005a0	c7 45 f0 8b 89
	88 9e		 mov	 DWORD PTR __k$536142[ebp+12], -1635219061 ; 9e88898bH
  005a7	8d 45 e4	 lea	 eax, DWORD PTR __k$536142[ebp]
  005aa	88 5d f4	 mov	 BYTE PTR __k$536142[ebp+16], bl
  005ad	59		 pop	 ecx
$LL1484@LoadProper:
  005ae	81 30 ed ec eb
	ea		 xor	 DWORD PTR [eax], -353637139 ; eaebecedH
  005b4	83 c0 04	 add	 eax, 4
  005b7	49		 dec	 ecx
  005b8	75 f4		 jne	 SHORT $LL1484@LoadProper
  005ba	8b 8d d0 fe ff
	ff		 mov	 ecx, DWORD PTR _rkLoader$GSCopy$[ebp]
  005c0	68 04 01 00 00	 push	 260			; 00000104H
  005c5	8d 85 d4 fe ff
	ff		 lea	 eax, DWORD PTR _szBuf$[ebp]
  005cb	50		 push	 eax
  005cc	68 00 00 00 00	 push	 OFFSET ??_C@_00CNPNBAHC@?$AA@
  005d1	8d 45 e4	 lea	 eax, DWORD PTR __k$536142[ebp]
  005d4	50		 push	 eax
  005d5	ff d7		 call	 edi

; 90   : 	m_BlueEffect = szBuf;

  005d7	8d 85 d4 fe ff
	ff		 lea	 eax, DWORD PTR _szBuf$[ebp]
  005dd	50		 push	 eax
  005de	8d 8e 88 0f 00
	00		 lea	 ecx, DWORD PTR [esi+3976]
  005e4	ff 15 00 00 00
	00		 call	 DWORD PTR __imp_??4ioHashString@@QAEAAV0@PBD@Z
  005ea	6a 03		 push	 3

; 91   : 
; 92   : 	m_vEffectOffset.x = rkLoader.LoadFloat_e( "effect_offset_x", 0.0f );

  005ec	c7 45 e8 88 8a
	8d 8f		 mov	 DWORD PTR __k$536267[ebp], -1886549368 ; 8f8d8a88H
  005f3	c7 45 ec 8e 98
	b4 85		 mov	 DWORD PTR __k$536267[ebp+4], -2051762034 ; 85b4988eH
  005fa	c7 45 f0 8b 8a
	98 8f		 mov	 DWORD PTR __k$536267[ebp+8], -1885828469 ; 8f988a8bH
  00601	8d 45 e8	 lea	 eax, DWORD PTR __k$536267[ebp]
  00604	c7 45 f4 99 b3
	93 00		 mov	 DWORD PTR __k$536267[ebp+12], 9679769 ; 0093b399H
  0060b	59		 pop	 ecx
$LL1590@LoadProper:
  0060c	81 30 ed ec eb
	ea		 xor	 DWORD PTR [eax], -353637139 ; eaebecedH
  00612	83 c0 04	 add	 eax, 4
  00615	49		 dec	 ecx
  00616	75 f4		 jne	 SHORT $LL1590@LoadProper
  00618	6a 0c		 push	 12			; 0000000cH
  0061a	58		 pop	 eax
$LL1587@LoadProper:
  0061b	8b c8		 mov	 ecx, eax
  0061d	81 e1 03 00 00
	80		 and	 ecx, -2147483645	; 80000003H
  00623	79 05		 jns	 SHORT $LN2101@LoadProper
  00625	49		 dec	 ecx
  00626	83 c9 fc	 or	 ecx, -4			; fffffffcH
  00629	41		 inc	 ecx
$LN2101@LoadProper:
  0062a	b2 ed		 mov	 dl, -19			; ffffffedH
  0062c	2a d1		 sub	 dl, cl
  0062e	30 54 05 e8	 xor	 BYTE PTR __k$536267[ebp+eax], dl
  00632	40		 inc	 eax
  00633	83 f8 0f	 cmp	 eax, 15			; 0000000fH
  00636	7c e3		 jl	 SHORT $LL1587@LoadProper
  00638	0f 57 c0	 xorps	 xmm0, xmm0
  0063b	51		 push	 ecx
  0063c	8b 8d d0 fe ff
	ff		 mov	 ecx, DWORD PTR _rkLoader$GSCopy$[ebp]
  00642	8d 45 e8	 lea	 eax, DWORD PTR __k$536267[ebp]
  00645	f3 0f 11 04 24	 movss	 DWORD PTR [esp], xmm0
  0064a	50		 push	 eax
  0064b	ff 15 00 00 00
	00		 call	 DWORD PTR __imp_?LoadFloat@ioINILoader@@QAEMPBDM@Z
  00651	d9 9e b8 0f 00
	00		 fstp	 DWORD PTR [esi+4024]
  00657	6a 03		 push	 3

; 93   : 	m_vEffectOffset.y = rkLoader.LoadFloat_e( "effect_offset_y", 0.0f );

  00659	c7 45 e8 88 8a
	8d 8f		 mov	 DWORD PTR __k$536392[ebp], -1886549368 ; 8f8d8a88H
  00660	c7 45 ec 8e 98
	b4 85		 mov	 DWORD PTR __k$536392[ebp+4], -2051762034 ; 85b4988eH
  00667	c7 45 f0 8b 8a
	98 8f		 mov	 DWORD PTR __k$536392[ebp+8], -1885828469 ; 8f988a8bH
  0066e	8d 45 e8	 lea	 eax, DWORD PTR __k$536392[ebp]
  00671	c7 45 f4 99 b3
	92 00		 mov	 DWORD PTR __k$536392[ebp+12], 9614233 ; 0092b399H
  00678	59		 pop	 ecx
$LL1696@LoadProper:
  00679	81 30 ed ec eb
	ea		 xor	 DWORD PTR [eax], -353637139 ; eaebecedH
  0067f	83 c0 04	 add	 eax, 4
  00682	49		 dec	 ecx
  00683	75 f4		 jne	 SHORT $LL1696@LoadProper
  00685	6a 0c		 push	 12			; 0000000cH
  00687	58		 pop	 eax
$LL1693@LoadProper:
  00688	8b c8		 mov	 ecx, eax
  0068a	81 e1 03 00 00
	80		 and	 ecx, -2147483645	; 80000003H
  00690	79 05		 jns	 SHORT $LN2102@LoadProper
  00692	49		 dec	 ecx
  00693	83 c9 fc	 or	 ecx, -4			; fffffffcH
  00696	41		 inc	 ecx
$LN2102@LoadProper:
  00697	b2 ed		 mov	 dl, -19			; ffffffedH
  00699	2a d1		 sub	 dl, cl
  0069b	30 54 05 e8	 xor	 BYTE PTR __k$536392[ebp+eax], dl
  0069f	40		 inc	 eax
  006a0	83 f8 0f	 cmp	 eax, 15			; 0000000fH
  006a3	7c e3		 jl	 SHORT $LL1693@LoadProper
  006a5	0f 57 c0	 xorps	 xmm0, xmm0
  006a8	51		 push	 ecx
  006a9	8b 8d d0 fe ff
	ff		 mov	 ecx, DWORD PTR _rkLoader$GSCopy$[ebp]
  006af	8d 45 e8	 lea	 eax, DWORD PTR __k$536392[ebp]
  006b2	f3 0f 11 04 24	 movss	 DWORD PTR [esp], xmm0
  006b7	50		 push	 eax
  006b8	ff 15 00 00 00
	00		 call	 DWORD PTR __imp_?LoadFloat@ioINILoader@@QAEMPBDM@Z
  006be	d9 9e bc 0f 00
	00		 fstp	 DWORD PTR [esi+4028]
  006c4	6a 03		 push	 3

; 94   : 	m_vEffectOffset.z = rkLoader.LoadFloat_e( "effect_offset_z", 0.0f );

  006c6	c7 45 e8 88 8a
	8d 8f		 mov	 DWORD PTR __k$536517[ebp], -1886549368 ; 8f8d8a88H
  006cd	c7 45 ec 8e 98
	b4 85		 mov	 DWORD PTR __k$536517[ebp+4], -2051762034 ; 85b4988eH
  006d4	c7 45 f0 8b 8a
	98 8f		 mov	 DWORD PTR __k$536517[ebp+8], -1885828469 ; 8f988a8bH
  006db	8d 45 e8	 lea	 eax, DWORD PTR __k$536517[ebp]
  006de	c7 45 f4 99 b3
	91 00		 mov	 DWORD PTR __k$536517[ebp+12], 9548697 ; 0091b399H
  006e5	59		 pop	 ecx
$LL1802@LoadProper:
  006e6	81 30 ed ec eb
	ea		 xor	 DWORD PTR [eax], -353637139 ; eaebecedH
  006ec	83 c0 04	 add	 eax, 4
  006ef	49		 dec	 ecx
  006f0	75 f4		 jne	 SHORT $LL1802@LoadProper
  006f2	6a 0c		 push	 12			; 0000000cH
  006f4	58		 pop	 eax
$LL1799@LoadProper:
  006f5	8b c8		 mov	 ecx, eax
  006f7	81 e1 03 00 00
	80		 and	 ecx, -2147483645	; 80000003H
  006fd	79 05		 jns	 SHORT $LN2103@LoadProper
  006ff	49		 dec	 ecx
  00700	83 c9 fc	 or	 ecx, -4			; fffffffcH
  00703	41		 inc	 ecx
$LN2103@LoadProper:
  00704	b2 ed		 mov	 dl, -19			; ffffffedH
  00706	2a d1		 sub	 dl, cl
  00708	30 54 05 e8	 xor	 BYTE PTR __k$536517[ebp+eax], dl
  0070c	40		 inc	 eax
  0070d	83 f8 0f	 cmp	 eax, 15			; 0000000fH
  00710	7c e3		 jl	 SHORT $LL1799@LoadProper
  00712	0f 57 c0	 xorps	 xmm0, xmm0
  00715	51		 push	 ecx
  00716	8b 8d d0 fe ff
	ff		 mov	 ecx, DWORD PTR _rkLoader$GSCopy$[ebp]
  0071c	8d 45 e8	 lea	 eax, DWORD PTR __k$536517[ebp]
  0071f	f3 0f 11 04 24	 movss	 DWORD PTR [esp], xmm0
  00724	50		 push	 eax
  00725	ff 15 00 00 00
	00		 call	 DWORD PTR __imp_?LoadFloat@ioINILoader@@QAEMPBDM@Z
  0072b	d9 9e c0 0f 00
	00		 fstp	 DWORD PTR [esi+4032]
  00731	6a 04		 push	 4

; 95   : 
; 96   : 	rkLoader.LoadString_e( "extra_guid_effect", "", szBuf, MAX_PATH );

  00733	c7 45 e4 88 94
	9f 98		 mov	 DWORD PTR __k$536655[ebp], -1734372216 ; 989f9488H
  0073a	c7 45 e8 8c b3
	8c 9f		 mov	 DWORD PTR __k$536655[ebp+4], -1618168948 ; 9f8cb38cH
  00741	c7 45 ec 84 88
	b4 8f		 mov	 DWORD PTR __k$536655[ebp+8], -1883993980 ; 8fb48884H
  00748	c7 45 f0 8b 8a
	8e 89		 mov	 DWORD PTR __k$536655[ebp+12], -1987147125 ; 898e8a8bH
  0074f	8d 45 e4	 lea	 eax, DWORD PTR __k$536655[ebp]
  00752	66 c7 45 f4 99
	00		 mov	 WORD PTR __k$536655[ebp+16], 153 ; 00000099H
  00758	59		 pop	 ecx
$LL1908@LoadProper:
  00759	81 30 ed ec eb
	ea		 xor	 DWORD PTR [eax], -353637139 ; eaebecedH
  0075f	83 c0 04	 add	 eax, 4
  00762	49		 dec	 ecx
  00763	75 f4		 jne	 SHORT $LL1908@LoadProper
  00765	8b 8d d0 fe ff
	ff		 mov	 ecx, DWORD PTR _rkLoader$GSCopy$[ebp]
  0076b	80 75 f4 ed	 xor	 BYTE PTR __k$536655[ebp+16], -19 ; ffffffedH
  0076f	68 04 01 00 00	 push	 260			; 00000104H
  00774	8d 85 d4 fe ff
	ff		 lea	 eax, DWORD PTR _szBuf$[ebp]
  0077a	50		 push	 eax
  0077b	68 00 00 00 00	 push	 OFFSET ??_C@_00CNPNBAHC@?$AA@
  00780	8d 45 e4	 lea	 eax, DWORD PTR __k$536655[ebp]
  00783	50		 push	 eax
  00784	ff d7		 call	 edi

; 97   : 	m_GuideEffect = szBuf;

  00786	8d 85 d4 fe ff
	ff		 lea	 eax, DWORD PTR _szBuf$[ebp]
  0078c	50		 push	 eax
  0078d	8d 8e e4 0f 00
	00		 lea	 ecx, DWORD PTR [esi+4068]
  00793	ff 15 00 00 00
	00		 call	 DWORD PTR __imp_??4ioHashString@@QAEAAV0@PBD@Z
  00799	6a 07		 push	 7

; 98   : 
; 99   : 	m_bEnableTeamOnlyVisible = rkLoader.LoadBool_e( "enable_effect_only_team_visible", false );

  0079b	c7 45 d8 88 82
	8a 88		 mov	 DWORD PTR __k$536780[ebp], -2004188536 ; 888a8288H
  007a2	c7 45 dc 81 89
	b4 8f		 mov	 DWORD PTR __k$536780[ebp+4], -1883993727 ; 8fb48981H
  007a9	c7 45 e0 8b 8a
	8e 89		 mov	 DWORD PTR __k$536780[ebp+8], -1987147125 ; 898e8a8bH
  007b0	c7 45 e4 99 b3
	84 84		 mov	 DWORD PTR __k$536780[ebp+12], -2071678055 ; 8484b399H
  007b7	c7 45 e8 81 95
	b4 9e		 mov	 DWORD PTR __k$536780[ebp+16], -1632332415 ; 9eb49581H
  007be	c7 45 ec 88 8d
	86 b5		 mov	 DWORD PTR __k$536780[ebp+20], -1249473144 ; b5868d88H
  007c5	c7 45 f0 9b 85
	98 83		 mov	 DWORD PTR __k$536780[ebp+24], -2087156325 ; 8398859bH
  007cc	8d 45 d8	 lea	 eax, DWORD PTR __k$536780[ebp]
  007cf	c7 45 f4 8f 80
	8e 00		 mov	 DWORD PTR __k$536780[ebp+28], 9339023 ; 008e808fH
  007d6	59		 pop	 ecx
$LL2014@LoadProper:
  007d7	81 30 ed ec eb
	ea		 xor	 DWORD PTR [eax], -353637139 ; eaebecedH
  007dd	83 c0 04	 add	 eax, 4
  007e0	49		 dec	 ecx
  007e1	75 f4		 jne	 SHORT $LL2014@LoadProper
  007e3	6a 1c		 push	 28			; 0000001cH
  007e5	5f		 pop	 edi
$LL2011@LoadProper:
  007e6	8b c7		 mov	 eax, edi
  007e8	25 03 00 00 80	 and	 eax, -2147483645	; 80000003H
  007ed	79 05		 jns	 SHORT $LN2104@LoadProper
  007ef	48		 dec	 eax
  007f0	83 c8 fc	 or	 eax, -4			; fffffffcH
  007f3	40		 inc	 eax
$LN2104@LoadProper:
  007f4	b1 ed		 mov	 cl, -19			; ffffffedH
  007f6	2a c8		 sub	 cl, al
  007f8	30 4c 3d d8	 xor	 BYTE PTR __k$536780[ebp+edi], cl
  007fc	47		 inc	 edi
  007fd	83 ff 1f	 cmp	 edi, 31			; 0000001fH
  00800	7c e4		 jl	 SHORT $LL2011@LoadProper
  00802	8b 8d d0 fe ff
	ff		 mov	 ecx, DWORD PTR _rkLoader$GSCopy$[ebp]
  00808	53		 push	 ebx
  00809	8d 45 d8	 lea	 eax, DWORD PTR __k$536780[ebp]
  0080c	50		 push	 eax
  0080d	ff 15 00 00 00
	00		 call	 DWORD PTR __imp_?LoadBool@ioINILoader@@QAE_NPBD_N@Z

; 100  : }

  00813	8b 4d fc	 mov	 ecx, DWORD PTR __$ArrayPad$[ebp]
  00816	5f		 pop	 edi
  00817	88 86 f4 0f 00
	00		 mov	 BYTE PTR [esi+4084], al
  0081d	5e		 pop	 esi
  0081e	33 cd		 xor	 ecx, ebp
  00820	5b		 pop	 ebx
  00821	e8 00 00 00 00	 call	 @__security_check_cookie@4
  00826	c9		 leave
  00827	c2 04 00	 ret	 4
?LoadProperty@ioCircleMove6Skill@@UAEXAAVioINILoader@@@Z ENDP ; ioCircleMove6Skill::LoadProperty
; Function compile flags: /Ogsp
_TEXT	ENDS
;	COMDAT ?IsProtected@ioCircleMove6Skill@@UBE_NH@Z
_TEXT	SEGMENT
_value$536972 = -1					; size = 1
_iDefenseBreakType$ = 8					; size = 4
?IsProtected@ioCircleMove6Skill@@UBE_NH@Z PROC		; ioCircleMove6Skill::IsProtected, COMDAT
; _this$ = ecx

; 225  : {

  00000	55		 push	 ebp
  00001	8b ec		 mov	 ebp, esp
  00003	51		 push	 ecx
  00004	56		 push	 esi
  00005	8b f1		 mov	 esi, ecx

; 226  : 	if( m_bDisableSkillProtect )

  00007	8d 45 ff	 lea	 eax, DWORD PTR _value$536972[ebp]
  0000a	50		 push	 eax
  0000b	8d 8e a8 00 00
	00		 lea	 ecx, DWORD PTR [esi+168]
  00011	e8 00 00 00 00	 call	 ?DecryptValueToPool@?$CEncrypt@_N@@QAEXPA_N@Z ; CEncrypt<bool>::DecryptValueToPool
  00016	80 7d ff 00	 cmp	 BYTE PTR _value$536972[ebp], 0
  0001a	74 04		 je	 SHORT $LN6@IsProtecte
$LN11@IsProtecte:

; 227  : 		return false;

  0001c	32 c0		 xor	 al, al
  0001e	eb 41		 jmp	 SHORT $LN1@IsProtecte
$LN6@IsProtecte:

; 228  : 
; 229  : 	if( DBT_NONE != (DefenseBreakType)m_ProtectCancelType )

  00020	8b 86 a4 00 00
	00		 mov	 eax, DWORD PTR [esi+164]
  00026	85 c0		 test	 eax, eax
  00028	74 05		 je	 SHORT $LN4@IsProtecte

; 230  : 	{
; 231  : 		if( iDefenseBreakType == m_ProtectCancelType )   // 스킬 무적 파괴

  0002a	39 45 08	 cmp	 DWORD PTR _iDefenseBreakType$[ebp], eax

; 232  : 			return false;

  0002d	74 ed		 je	 SHORT $LN11@IsProtecte
$LN4@IsProtecte:

; 233  : 	}
; 234  : 
; 235  : 	if( IsPreDelayProtect() )

  0002f	8b 06		 mov	 eax, DWORD PTR [esi]
  00031	8b ce		 mov	 ecx, esi
  00033	ff 90 2c 01 00
	00		 call	 DWORD PTR [eax+300]
  00039	84 c0		 test	 al, al
  0003b	74 0d		 je	 SHORT $LN2@IsProtecte

; 236  : 	{
; 237  : 		if( m_dwPreDelayStartTime != 0 )

  0003d	83 be 20 02 00
	00 00		 cmp	 DWORD PTR [esi+544], 0
  00044	74 04		 je	 SHORT $LN2@IsProtecte

; 238  : 			return true;

  00046	b0 01		 mov	 al, 1
  00048	eb 17		 jmp	 SHORT $LN1@IsProtecte
$LN2@IsProtecte:

; 239  : 	}
; 240  : 
; 241  : 	DWORD dwCurTime = FRAMEGETTIME();

  0004a	ff 15 00 00 00
	00		 call	 DWORD PTR __imp_?GetSingleton@ioFrameTimer@@SAAAV1@XZ
  00050	8b c8		 mov	 ecx, eax
  00052	ff 15 00 00 00
	00		 call	 DWORD PTR __imp_?GetLoopSec@ioFrameTimer@@QBEKXZ

; 242  : 	if( m_dwCurSkillProtectTime > dwCurTime )

  00058	39 86 fc 0f 00
	00		 cmp	 DWORD PTR [esi+4092], eax
  0005e	0f 97 c0	 seta	 al
$LN1@IsProtecte:
  00061	5e		 pop	 esi

; 243  : 		return true;
; 244  : 	
; 245  : 	return false;
; 246  : }

  00062	c9		 leave
  00063	c2 04 00	 ret	 4
?IsProtected@ioCircleMove6Skill@@UBE_NH@Z ENDP		; ioCircleMove6Skill::IsProtected
_TEXT	ENDS
PUBLIC	__real@41f0000000000000
PUBLIC	__real@4f800000
PUBLIC	_pChar$GSCopy$
EXTRN	?GetMaxSkillGauge@ioItem@@QAEMABVioHashString@@@Z:PROC ; ioItem::GetMaxSkillGauge
EXTRN	__imp_?GetAnimationFullTime@ioEntityGroup@@QAEMH@Z:PROC
EXTRN	__imp_?SetActionAni@ioEntityGroup@@QAE_NHMMMMMM_N0@Z:PROC
EXTRN	__imp_?ClearAllActionAni@ioEntityGroup@@QAEXM_N@Z:PROC
EXTRN	__imp_?ClearAllLoopAni@ioEntityGroup@@QAEXM_N@Z:PROC
EXTRN	__imp_?GetAnimationIdx@ioEntityGroup@@QAEHABVioHashString@@@Z:PROC
EXTRN	__ftol2:PROC
;	COMDAT __real@41f0000000000000
; File d:\lost saga for developer\youtube\tutorial\source\src\lsclient\iobasechar.h
CONST	SEGMENT
__real@41f0000000000000 DQ 041f0000000000000r	; 4.29497e+009
CONST	ENDS
;	COMDAT __real@4f800000
CONST	SEGMENT
__real@4f800000 DD 04f800000r			; 4.29497e+009
CONST	ENDS
;	COMDAT xdata$x
xdata$x	SEGMENT
__unwindtable$?SetNormalSkill@ioCircleMove6Skill@@MAEXPAVioBaseChar@@@Z DD 0ffffffffH
	DD	FLAT:__unwindfunclet$?SetNormalSkill@ioCircleMove6Skill@@MAEXPAVioBaseChar@@@Z$0
	DD	00H
	DD	FLAT:__unwindfunclet$?SetNormalSkill@ioCircleMove6Skill@@MAEXPAVioBaseChar@@@Z$1
__ehfuncinfo$?SetNormalSkill@ioCircleMove6Skill@@MAEXPAVioBaseChar@@@Z DD 019930522H
	DD	02H
	DD	FLAT:__unwindtable$?SetNormalSkill@ioCircleMove6Skill@@MAEXPAVioBaseChar@@@Z
	DD	2 DUP(00H)
	DD	2 DUP(00H)
	DD	00H
	DD	01H
; Function compile flags: /Ogsp
; File d:\lost saga for developer\youtube\tutorial\source\src\lsclient\iocirclemove6skill.cpp
xdata$x	ENDS
;	COMDAT ?SetNormalSkill@ioCircleMove6Skill@@MAEXPAVioBaseChar@@@Z
_TEXT	SEGMENT
$T537035 = -80						; size = 16
_pChar$GSCopy$ = -64					; size = 4
_fUseGauge$531026 = -64					; size = 4
_szSkillMotion$ = -60					; size = 16
_fTimeRate$ = -44					; size = 4
tv1119 = -40						; size = 4
$T537034 = -40						; size = 4
_iCurSkillAniID$ = -40					; size = 4
tv1173 = -36						; size = 4
tv1168 = -36						; size = 4
tv1153 = -36						; size = 4
tv1151 = -36						; size = 4
tv1132 = -36						; size = 4
$T537000 = -36						; size = 4
tv1160 = -32						; size = 4
tv1157 = -32						; size = 4
tv1155 = -32						; size = 4
_dwCurTime$ = -32					; size = 4
_fAniRate$ = -32					; size = 4
_szEncEventType$537048 = -28				; size = 7
__$EHRec$ = -12						; size = 12
_pChar$ = 8						; size = 4
?SetNormalSkill@ioCircleMove6Skill@@MAEXPAVioBaseChar@@@Z PROC ; ioCircleMove6Skill::SetNormalSkill, COMDAT
; _this$ = ecx

; 323  : {

  00000	6a 44		 push	 68			; 00000044H
  00002	b8 00 00 00 00	 mov	 eax, __ehhandler$?SetNormalSkill@ioCircleMove6Skill@@MAEXPAVioBaseChar@@@Z
  00007	e8 00 00 00 00	 call	 __EH_prolog3_GS
  0000c	8b 45 08	 mov	 eax, DWORD PTR _pChar$[ebp]
  0000f	8b f1		 mov	 esi, ecx

; 344  : 
; 345  : 	m_dwFireStartTime = dwCurTime;
; 346  : 	m_dwFireStartTime += pGrp->GetAnimationEventTime_e( iCurSkillAniID, "fire_s" ) * fTimeRate;

  00011	89 45 c0	 mov	 DWORD PTR _pChar$GSCopy$[ebp], eax
  00014	85 c0		 test	 eax, eax
  00016	0f 84 4e 02 00
	00		 je	 $LN4@SetNormalS

; 324  : 	if ( !pChar )
; 325  : 		return;
; 326  : 
; 327  : 	ioEntityGroup *pGrp = pChar->GetGroup();
; 328  : 	ioHashString szSkillMotion = GetSkillMotionName();

  0001c	8b 58 04	 mov	 ebx, DWORD PTR [eax+4]
  0001f	8b 06		 mov	 eax, DWORD PTR [esi]
  00021	ff 90 20 01 00
	00		 call	 DWORD PTR [eax+288]
  00027	50		 push	 eax
  00028	8d 4d c4	 lea	 ecx, DWORD PTR _szSkillMotion$[ebp]
  0002b	ff 15 00 00 00
	00		 call	 DWORD PTR __imp_??0ioHashString@@QAE@ABV0@@Z
  00031	83 65 fc 00	 and	 DWORD PTR __$EHRec$[ebp+8], 0

; 329  : 
; 330  : 	int iCurSkillAniID = pGrp->GetAnimationIdx( szSkillMotion );

  00035	8d 45 c4	 lea	 eax, DWORD PTR _szSkillMotion$[ebp]
  00038	50		 push	 eax
  00039	8b cb		 mov	 ecx, ebx
  0003b	ff 15 00 00 00
	00		 call	 DWORD PTR __imp_?GetAnimationIdx@ioEntityGroup@@QAEHABVioHashString@@@Z
  00041	8b f8		 mov	 edi, eax
  00043	89 7d d8	 mov	 DWORD PTR _iCurSkillAniID$[ebp], edi

; 331  : 	if( iCurSkillAniID == -1 )	

  00046	83 ff ff	 cmp	 edi, -1
  00049	75 11		 jne	 SHORT $LN2@SetNormalS

; 332  : 		return;

  0004b	09 45 fc	 or	 DWORD PTR __$EHRec$[ebp+8], eax
  0004e	8d 4d c4	 lea	 ecx, DWORD PTR _szSkillMotion$[ebp]
  00051	ff 15 00 00 00
	00		 call	 DWORD PTR __imp_??1ioHashString@@QAE@XZ
  00057	e9 0e 02 00 00	 jmp	 $LN4@SetNormalS
$LN2@SetNormalS:

; 333  : 
; 334  : 	float fAniRate = GetSkillMotionRate();

  0005c	8b 06		 mov	 eax, DWORD PTR [esi]
  0005e	8b ce		 mov	 ecx, esi
  00060	ff 90 28 01 00
	00		 call	 DWORD PTR [eax+296]
  00066	d9 5d e0	 fstp	 DWORD PTR _fAniRate$[ebp]

; 335  : 	float fTimeRate = fAniRate * m_fExtraAniRate;

  00069	d9 86 68 03 00
	00		 fld	 DWORD PTR [esi+872]
  0006f	d8 4d e0	 fmul	 DWORD PTR _fAniRate$[ebp]
  00072	d9 5d d4	 fstp	 DWORD PTR _fTimeRate$[ebp]

; 336  : 	
; 337  : 	pGrp->ClearAllLoopAni( FLOAT100, true );

  00075	b8 64 00 00 00	 mov	 eax, 100		; 00000064H
  0007a	89 45 dc	 mov	 DWORD PTR tv1173[ebp], eax
  0007d	db 45 dc	 fild	 DWORD PTR tv1173[ebp]
  00080	6a 01		 push	 1
  00082	85 c0		 test	 eax, eax
  00084	79 06		 jns	 SHORT $LN137@SetNormalS
  00086	d8 05 00 00 00
	00		 fadd	 DWORD PTR __real@4f800000
$LN137@SetNormalS:
  0008c	51		 push	 ecx
  0008d	8b cb		 mov	 ecx, ebx
  0008f	d9 1c 24	 fstp	 DWORD PTR [esp]
  00092	ff 15 00 00 00
	00		 call	 DWORD PTR __imp_?ClearAllLoopAni@ioEntityGroup@@QAEXM_N@Z

; 338  : 	pGrp->ClearAllActionAni( FLOAT100, true );

  00098	b8 64 00 00 00	 mov	 eax, 100		; 00000064H
  0009d	89 45 dc	 mov	 DWORD PTR tv1168[ebp], eax
  000a0	db 45 dc	 fild	 DWORD PTR tv1168[ebp]
  000a3	6a 01		 push	 1
  000a5	85 c0		 test	 eax, eax
  000a7	79 06		 jns	 SHORT $LN138@SetNormalS
  000a9	d8 05 00 00 00
	00		 fadd	 DWORD PTR __real@4f800000
$LN138@SetNormalS:
  000af	51		 push	 ecx
  000b0	8b cb		 mov	 ecx, ebx
  000b2	d9 1c 24	 fstp	 DWORD PTR [esp]
  000b5	ff 15 00 00 00
	00		 call	 DWORD PTR __imp_?ClearAllActionAni@ioEntityGroup@@QAEXM_N@Z

; 339  : 	pGrp->SetActionAni( iCurSkillAniID, FLOAT100, FLOAT100, FLOAT1, FLOAT1/fTimeRate );

  000bb	b8 01 00 00 00	 mov	 eax, 1
  000c0	8b c8		 mov	 ecx, eax
  000c2	b8 01 00 00 00	 mov	 eax, 1
  000c7	8b d0		 mov	 edx, eax
  000c9	b8 64 00 00 00	 mov	 eax, 100		; 00000064H
  000ce	89 45 dc	 mov	 DWORD PTR $T537000[ebp], eax
  000d1	b8 64 00 00 00	 mov	 eax, 100		; 00000064H
  000d6	0f 57 c0	 xorps	 xmm0, xmm0
  000d9	6a 01		 push	 1
  000db	6a 00		 push	 0
  000dd	83 ec 18	 sub	 esp, 24			; 00000018H
  000e0	89 4d e0	 mov	 DWORD PTR tv1160[ebp], ecx
  000e3	db 45 e0	 fild	 DWORD PTR tv1160[ebp]
  000e6	f3 0f 11 44 24
	14		 movss	 DWORD PTR [esp+20], xmm0
  000ec	f3 0f 11 44 24
	10		 movss	 DWORD PTR [esp+16], xmm0
  000f2	85 c9		 test	 ecx, ecx
  000f4	79 06		 jns	 SHORT $LN139@SetNormalS
  000f6	d8 05 00 00 00
	00		 fadd	 DWORD PTR __real@4f800000
$LN139@SetNormalS:
  000fc	d8 75 d4	 fdiv	 DWORD PTR _fTimeRate$[ebp]
  000ff	d9 5d e0	 fstp	 DWORD PTR tv1157[ebp]
  00102	d9 45 e0	 fld	 DWORD PTR tv1157[ebp]
  00105	d9 5c 24 0c	 fstp	 DWORD PTR [esp+12]
  00109	89 55 e0	 mov	 DWORD PTR tv1155[ebp], edx
  0010c	db 45 e0	 fild	 DWORD PTR tv1155[ebp]
  0010f	85 d2		 test	 edx, edx
  00111	79 06		 jns	 SHORT $LN140@SetNormalS
  00113	d8 05 00 00 00
	00		 fadd	 DWORD PTR __real@4f800000
$LN140@SetNormalS:
  00119	8b 4d dc	 mov	 ecx, DWORD PTR $T537000[ebp]
  0011c	d9 5c 24 08	 fstp	 DWORD PTR [esp+8]
  00120	db 45 dc	 fild	 DWORD PTR $T537000[ebp]
  00123	85 c9		 test	 ecx, ecx
  00125	79 06		 jns	 SHORT $LN141@SetNormalS
  00127	d8 05 00 00 00
	00		 fadd	 DWORD PTR __real@4f800000
$LN141@SetNormalS:
  0012d	89 45 dc	 mov	 DWORD PTR tv1151[ebp], eax
  00130	d9 5c 24 04	 fstp	 DWORD PTR [esp+4]
  00134	db 45 dc	 fild	 DWORD PTR tv1151[ebp]
  00137	85 c0		 test	 eax, eax
  00139	79 06		 jns	 SHORT $LN142@SetNormalS
  0013b	d8 05 00 00 00
	00		 fadd	 DWORD PTR __real@4f800000
$LN142@SetNormalS:
  00141	d9 1c 24	 fstp	 DWORD PTR [esp]
  00144	57		 push	 edi
  00145	8b cb		 mov	 ecx, ebx
  00147	ff 15 00 00 00
	00		 call	 DWORD PTR __imp_?SetActionAni@ioEntityGroup@@QAE_NHMMMMMM_N0@Z

; 340  : 	
; 341  : 	DWORD dwCurTime = FRAMEGETTIME();

  0014d	ff 15 00 00 00
	00		 call	 DWORD PTR __imp_?GetSingleton@ioFrameTimer@@SAAAV1@XZ
  00153	8b c8		 mov	 ecx, eax
  00155	ff 15 00 00 00
	00		 call	 DWORD PTR __imp_?GetLoopSec@ioFrameTimer@@QBEKXZ

; 342  : 	m_dwMotionEndTime = dwCurTime + pGrp->GetAnimationFullTime( iCurSkillAniID ) * fTimeRate;

  0015b	57		 push	 edi
  0015c	8b cb		 mov	 ecx, ebx
  0015e	89 45 e0	 mov	 DWORD PTR _dwCurTime$[ebp], eax
  00161	ff 15 00 00 00
	00		 call	 DWORD PTR __imp_?GetAnimationFullTime@ioEntityGroup@@QAEMH@Z

; 343  : 	m_dwMotionEndTime += m_dwAnimationEndDelay;

  00167	d8 4d d4	 fmul	 DWORD PTR _fTimeRate$[ebp]
  0016a	8b 45 e0	 mov	 eax, DWORD PTR _dwCurTime$[ebp]
  0016d	db 45 e0	 fild	 DWORD PTR _dwCurTime$[ebp]
  00170	85 c0		 test	 eax, eax
  00172	79 06		 jns	 SHORT $LN143@SetNormalS
  00174	d8 05 00 00 00
	00		 fadd	 DWORD PTR __real@4f800000
$LN143@SetNormalS:

; 342  : 	m_dwMotionEndTime = dwCurTime + pGrp->GetAnimationFullTime( iCurSkillAniID ) * fTimeRate;

  0017a	de c1		 faddp	 ST(1), ST(0)

; 343  : 	m_dwMotionEndTime += m_dwAnimationEndDelay;

  0017c	e8 00 00 00 00	 call	 __ftol2
  00181	03 86 54 0f 00
	00		 add	 eax, DWORD PTR [esi+3924]

; 344  : 
; 345  : 	m_dwFireStartTime = dwCurTime;
; 346  : 	m_dwFireStartTime += pGrp->GetAnimationEventTime_e( iCurSkillAniID, "fire_s" ) * fTimeRate;

  00187	6a 04		 push	 4
  00189	89 86 d8 02 00
	00		 mov	 DWORD PTR [esi+728], eax
  0018f	8b 45 e0	 mov	 eax, DWORD PTR _dwCurTime$[ebp]
  00192	89 86 10 10 00
	00		 mov	 DWORD PTR [esi+4112], eax
  00198	c7 45 e4 8b 85
	99 8f		 mov	 DWORD PTR _szEncEventType$537048[ebp], -1885764213 ; 8f99858bH
  0019f	81 75 e4 ed ec
	eb ea		 xor	 DWORD PTR _szEncEventType$537048[ebp], -353637139 ; eaebecedH
  001a6	66 c7 45 e8 b2
	9f		 mov	 WORD PTR _szEncEventType$537048[ebp+4], 40882 ; 00009fb2H
  001ac	c6 45 ea 00	 mov	 BYTE PTR _szEncEventType$537048[ebp+6], 0
  001b0	58		 pop	 eax
$LL122@SetNormalS:
  001b1	8b c8		 mov	 ecx, eax
  001b3	81 e1 03 00 00
	80		 and	 ecx, -2147483645	; 80000003H
  001b9	79 05		 jns	 SHORT $LN144@SetNormalS
  001bb	49		 dec	 ecx
  001bc	83 c9 fc	 or	 ecx, -4			; fffffffcH
  001bf	41		 inc	 ecx
$LN144@SetNormalS:
  001c0	b2 ed		 mov	 dl, -19			; ffffffedH
  001c2	2a d1		 sub	 dl, cl
  001c4	30 54 05 e4	 xor	 BYTE PTR _szEncEventType$537048[ebp+eax], dl
  001c8	40		 inc	 eax
  001c9	83 f8 06	 cmp	 eax, 6
  001cc	7c e3		 jl	 SHORT $LL122@SetNormalS
  001ce	8d 45 e4	 lea	 eax, DWORD PTR _szEncEventType$537048[ebp]
  001d1	50		 push	 eax
  001d2	8d 4d b0	 lea	 ecx, DWORD PTR $T537035[ebp]
  001d5	ff 15 00 00 00
	00		 call	 DWORD PTR __imp_??0ioHashString@@QAE@PBD@Z
  001db	8d 45 b0	 lea	 eax, DWORD PTR $T537035[ebp]
  001de	50		 push	 eax
  001df	ff 75 d8	 push	 DWORD PTR _iCurSkillAniID$[ebp]
  001e2	8b cb		 mov	 ecx, ebx
  001e4	c6 45 fc 01	 mov	 BYTE PTR __$EHRec$[ebp+8], 1
  001e8	ff 15 00 00 00
	00		 call	 DWORD PTR __imp_?GetAnimationEventTime@ioEntityGroup@@QAEMHABVioHashString@@@Z
  001ee	d9 5d d8	 fstp	 DWORD PTR $T537034[ebp]
  001f1	8b 1d 00 00 00
	00		 mov	 ebx, DWORD PTR __imp_??1ioHashString@@QAE@XZ
  001f7	8d 4d b0	 lea	 ecx, DWORD PTR $T537035[ebp]
  001fa	c6 45 fc 00	 mov	 BYTE PTR __$EHRec$[ebp+8], 0
  001fe	ff d3		 call	 ebx
  00200	d9 45 d8	 fld	 DWORD PTR $T537034[ebp]
  00203	8b 86 10 10 00
	00		 mov	 eax, DWORD PTR [esi+4112]
  00209	d8 4d d4	 fmul	 DWORD PTR _fTimeRate$[ebp]
  0020c	db 86 10 10 00
	00		 fild	 DWORD PTR [esi+4112]
  00212	85 c0		 test	 eax, eax
  00214	79 06		 jns	 SHORT $LN145@SetNormalS
  00216	dc 05 00 00 00
	00		 fadd	 QWORD PTR __real@41f0000000000000
$LN145@SetNormalS:
  0021c	de c1		 faddp	 ST(1), ST(0)
  0021e	e8 00 00 00 00	 call	 __ftol2

; 347  : 
; 348  : 	//추가 게이지 감소
; 349  : 	ioItem *pItem = GetOwnerItem();

  00223	8b 8e a4 02 00
	00		 mov	 ecx, DWORD PTR [esi+676]
  00229	89 86 10 10 00
	00		 mov	 DWORD PTR [esi+4112], eax

; 350  : 	if( pItem )

  0022f	85 c9		 test	 ecx, ecx
  00231	74 2e		 je	 SHORT $LN1@SetNormalS

; 351  : 	{
; 352  : 		float fUseGauge = pItem->GetMaxSkillGauge( pChar->GetCharName() );

  00233	8b 7d c0	 mov	 edi, DWORD PTR _pChar$GSCopy$[ebp]
  00236	8d 87 d4 02 00
	00		 lea	 eax, DWORD PTR [edi+724]
  0023c	50		 push	 eax
  0023d	e8 00 00 00 00	 call	 ?GetMaxSkillGauge@ioItem@@QAEMABVioHashString@@@Z ; ioItem::GetMaxSkillGauge
  00242	d9 5d c0	 fstp	 DWORD PTR _fUseGauge$531026[ebp]

; 353  : 		pChar->ReduceNeedGaugeBySkill( this, fUseGauge );

  00245	f3 0f 10 45 c0	 movss	 xmm0, DWORD PTR _fUseGauge$531026[ebp]
  0024a	51		 push	 ecx
  0024b	f3 0f 11 04 24	 movss	 DWORD PTR [esp], xmm0
  00250	56		 push	 esi
  00251	8b cf		 mov	 ecx, edi
  00253	e8 00 00 00 00	 call	 ?ReduceNeedGaugeBySkill@ioBaseChar@@QAEMPAVioSkill@@M@Z ; ioBaseChar::ReduceNeedGaugeBySkill
  00258	dd d8		 fstp	 ST(0)

; 354  : 		m_bReduceGauge = true;

  0025a	c6 86 50 03 00
	00 01		 mov	 BYTE PTR [esi+848], 1
$LN1@SetNormalS:

; 355  : 	}
; 356  : }

  00261	83 4d fc ff	 or	 DWORD PTR __$EHRec$[ebp+8], -1
  00265	8d 4d c4	 lea	 ecx, DWORD PTR _szSkillMotion$[ebp]
  00268	ff d3		 call	 ebx
$LN4@SetNormalS:
  0026a	e8 00 00 00 00	 call	 __EH_epilog3_GS
  0026f	c2 04 00	 ret	 4
_TEXT	ENDS
;	COMDAT text$x
text$x	SEGMENT
__unwindfunclet$?SetNormalSkill@ioCircleMove6Skill@@MAEXPAVioBaseChar@@@Z$0:
  00000	8d 4d c4	 lea	 ecx, DWORD PTR _szSkillMotion$[ebp]
  00003	ff 25 00 00 00
	00		 jmp	 DWORD PTR __imp_??1ioHashString@@QAE@XZ
__unwindfunclet$?SetNormalSkill@ioCircleMove6Skill@@MAEXPAVioBaseChar@@@Z$1:
  00009	8d 4d b0	 lea	 ecx, DWORD PTR $T537035[ebp]
  0000c	ff 25 00 00 00
	00		 jmp	 DWORD PTR __imp_??1ioHashString@@QAE@XZ
__ehhandler$?SetNormalSkill@ioCircleMove6Skill@@MAEXPAVioBaseChar@@@Z:
  00012	8b 54 24 08	 mov	 edx, DWORD PTR [esp+8]
  00016	8d 42 0c	 lea	 eax, DWORD PTR [edx+12]
  00019	8b 4a ac	 mov	 ecx, DWORD PTR [edx-84]
  0001c	33 c8		 xor	 ecx, eax
  0001e	e8 00 00 00 00	 call	 @__security_check_cookie@4
  00023	8b 4a fc	 mov	 ecx, DWORD PTR [edx-4]
  00026	33 c8		 xor	 ecx, eax
  00028	e8 00 00 00 00	 call	 @__security_check_cookie@4
  0002d	b8 00 00 00 00	 mov	 eax, OFFSET __ehfuncinfo$?SetNormalSkill@ioCircleMove6Skill@@MAEXPAVioBaseChar@@@Z
  00032	e9 00 00 00 00	 jmp	 ___CxxFrameHandler3
text$x	ENDS
?SetNormalSkill@ioCircleMove6Skill@@MAEXPAVioBaseChar@@@Z ENDP ; ioCircleMove6Skill::SetNormalSkill
PUBLIC	__$ArrayPad$
PUBLIC	?GetMagicCirclePos@ioCircleMove6Skill@@IAEXPAVioBaseChar@@@Z ; ioCircleMove6Skill::GetMagicCirclePos
EXTRN	?UpdateMagicCirclePos@ioBaseGUISupport@@QAEXMMM_N0@Z:PROC ; ioBaseGUISupport::UpdateMagicCirclePos
EXTRN	?CheckMagicCircleVisible@ioBaseGUISupport@@QAEX_N@Z:PROC ; ioBaseGUISupport::CheckMagicCircleVisible
; Function compile flags: /Ogsp
;	COMDAT ?GetMagicCirclePos@ioCircleMove6Skill@@IAEXPAVioBaseChar@@@Z
_TEXT	SEGMENT
_value$537173 = -20					; size = 1
_fCurRange$531099 = -20					; size = 4
$T531100 = -16						; size = 12
__$ArrayPad$ = -4					; size = 4
_pChar$ = 8						; size = 4
?GetMagicCirclePos@ioCircleMove6Skill@@IAEXPAVioBaseChar@@@Z PROC ; ioCircleMove6Skill::GetMagicCirclePos, COMDAT
; _this$ = ecx

; 501  : {

  00000	55		 push	 ebp
  00001	8b ec		 mov	 ebp, esp
  00003	83 ec 14	 sub	 esp, 20			; 00000014H
  00006	a1 00 00 00 00	 mov	 eax, DWORD PTR ___security_cookie
  0000b	33 c5		 xor	 eax, ebp
  0000d	89 45 fc	 mov	 DWORD PTR __$ArrayPad$[ebp], eax
  00010	56		 push	 esi
  00011	8b 75 08	 mov	 esi, DWORD PTR _pChar$[ebp]
  00014	57		 push	 edi
  00015	8b f9		 mov	 edi, ecx

; 502  : 	if ( !pChar )

  00017	85 f6		 test	 esi, esi
  00019	0f 84 a1 00 00
	00		 je	 $LN3@GetMagicCi

; 503  : 		return;
; 504  : 
; 505  : 	if( pChar->CheckMagicCircle() )

  0001f	53		 push	 ebx
  00020	8d 8e cc 01 00
	00		 lea	 ecx, DWORD PTR [esi+460]
  00026	e8 00 00 00 00	 call	 ?CheckMagicCircle@ioBaseGUISupport@@QBE_NXZ ; ioBaseGUISupport::CheckMagicCircle
  0002b	84 c0		 test	 al, al
  0002d	74 56		 je	 SHORT $LN1@GetMagicCi

; 506  : 	{
; 507  : 		float fCurRange = m_fCircleRange + GetGrowthCircleRange( pChar );

  0002f	56		 push	 esi
  00030	8b cf		 mov	 ecx, edi
  00032	e8 00 00 00 00	 call	 ?GetGrowthCircleRange@ioCircleMove6Skill@@IAEMPAVioBaseChar@@@Z ; ioCircleMove6Skill::GetGrowthCircleRange
  00037	d8 87 58 0f 00
	00		 fadd	 DWORD PTR [edi+3928]

; 508  : 
; 509  : 		pChar->CheckMagicCircleVisible( false );

  0003d	6a 00		 push	 0
  0003f	8d 8e cc 01 00
	00		 lea	 ecx, DWORD PTR [esi+460]
  00045	d9 5d ec	 fstp	 DWORD PTR _fCurRange$531099[ebp]
  00048	e8 00 00 00 00	 call	 ?CheckMagicCircleVisible@ioBaseGUISupport@@QAEX_N@Z ; ioBaseGUISupport::CheckMagicCircleVisible

; 510  : 		pChar->UpdateMagicCirclePos( m_fCircleMoveSpeed, fCurRange, m_fCircleHeightGap, true, true );

  0004d	f3 0f 10 87 60
	0f 00 00	 movss	 xmm0, DWORD PTR [edi+3936]
  00055	6a 01		 push	 1
  00057	6a 01		 push	 1
  00059	83 ec 0c	 sub	 esp, 12			; 0000000cH
  0005c	f3 0f 11 44 24
	08		 movss	 DWORD PTR [esp+8], xmm0
  00062	f3 0f 10 45 ec	 movss	 xmm0, DWORD PTR _fCurRange$531099[ebp]
  00067	f3 0f 11 44 24
	04		 movss	 DWORD PTR [esp+4], xmm0
  0006d	f3 0f 10 87 5c
	0f 00 00	 movss	 xmm0, DWORD PTR [edi+3932]
  00075	8d 8e cc 01 00
	00		 lea	 ecx, DWORD PTR [esi+460]
  0007b	f3 0f 11 04 24	 movss	 DWORD PTR [esp], xmm0
  00080	e8 00 00 00 00	 call	 ?UpdateMagicCirclePos@ioBaseGUISupport@@QAEXMMM_N0@Z ; ioBaseGUISupport::UpdateMagicCirclePos
$LN1@GetMagicCi:

; 511  : 	}
; 512  : 
; 513  : 	m_vCirclePos = pChar->GetMagicCirclePos( m_fCircleOffSet, m_bCircleNoChangeY );

  00085	8d 45 ec	 lea	 eax, DWORD PTR _value$537173[ebp]
  00088	50		 push	 eax
  00089	8d 8f 24 06 00
	00		 lea	 ecx, DWORD PTR [edi+1572]
  0008f	e8 00 00 00 00	 call	 ?DecryptValueToPool@?$CEncrypt@_N@@QAEXPA_N@Z ; CEncrypt<bool>::DecryptValueToPool
  00094	ff 75 ec	 push	 DWORD PTR _value$537173[ebp]
  00097	f3 0f 10 87 64
	0f 00 00	 movss	 xmm0, DWORD PTR [edi+3940]
  0009f	51		 push	 ecx
  000a0	8d 45 f0	 lea	 eax, DWORD PTR $T531100[ebp]
  000a3	f3 0f 11 04 24	 movss	 DWORD PTR [esp], xmm0
  000a8	50		 push	 eax
  000a9	8d 8e cc 01 00
	00		 lea	 ecx, DWORD PTR [esi+460]
  000af	e8 00 00 00 00	 call	 ?GetMagicCirclePos@ioBaseGUISupport@@QBE?AUD3DXVECTOR3@@M_N@Z ; ioBaseGUISupport::GetMagicCirclePos
  000b4	81 c7 04 10 00
	00		 add	 edi, 4100		; 00001004H
  000ba	8b f0		 mov	 esi, eax
  000bc	a5		 movsd
  000bd	a5		 movsd
  000be	a5		 movsd
  000bf	5b		 pop	 ebx
$LN3@GetMagicCi:

; 514  : }

  000c0	8b 4d fc	 mov	 ecx, DWORD PTR __$ArrayPad$[ebp]
  000c3	5f		 pop	 edi
  000c4	33 cd		 xor	 ecx, ebp
  000c6	5e		 pop	 esi
  000c7	e8 00 00 00 00	 call	 @__security_check_cookie@4
  000cc	c9		 leave
  000cd	c2 04 00	 ret	 4
?GetMagicCirclePos@ioCircleMove6Skill@@IAEXPAVioBaseChar@@@Z ENDP ; ioCircleMove6Skill::GetMagicCirclePos
_TEXT	ENDS
PUBLIC	?GetTeam@ioPlayEntity@@QBE?AW4TeamType@@XZ	; ioPlayEntity::GetTeam
; Function compile flags: /Ogsp
; File d:\lost saga for developer\youtube\tutorial\source\src\lsclient\ioplayentity.h
;	COMDAT ?GetTeam@ioPlayEntity@@QBE?AW4TeamType@@XZ
_TEXT	SEGMENT
_value$537182 = -4					; size = 4
?GetTeam@ioPlayEntity@@QBE?AW4TeamType@@XZ PROC		; ioPlayEntity::GetTeam, COMDAT
; _this$ = ecx

; 107  : 	inline TeamType GetTeam() const { return m_TeamType; }

  00000	55		 push	 ebp
  00001	8b ec		 mov	 ebp, esp
  00003	51		 push	 ecx
  00004	8d 45 fc	 lea	 eax, DWORD PTR _value$537182[ebp]
  00007	50		 push	 eax
  00008	81 c1 90 00 00
	00		 add	 ecx, 144		; 00000090H
  0000e	e8 00 00 00 00	 call	 ?DecryptValueToPool@?$CEncrypt@W4TeamType@@@@QAEXPAW4TeamType@@@Z ; CEncrypt<enum TeamType>::DecryptValueToPool
  00013	8b 45 fc	 mov	 eax, DWORD PTR _value$537182[ebp]
  00016	c9		 leave
  00017	c3		 ret	 0
?GetTeam@ioPlayEntity@@QBE?AW4TeamType@@XZ ENDP		; ioPlayEntity::GetTeam
; Function compile flags: /Ogsp
; File d:\lost saga for developer\youtube\tutorial\source\src\lsclient\ioskill.h
_TEXT	ENDS
;	COMDAT ?IsCanJumpingSkill@ioSkill@@UBE_NXZ
_TEXT	SEGMENT
_value$537189 = -1					; size = 1
?IsCanJumpingSkill@ioSkill@@UBE_NXZ PROC		; ioSkill::IsCanJumpingSkill, COMDAT
; _this$ = ecx

; 431  : 	virtual bool IsCanJumpingSkill() const { return m_bEnableJumpingSkill; }

  00000	55		 push	 ebp
  00001	8b ec		 mov	 ebp, esp
  00003	51		 push	 ecx
  00004	8d 45 ff	 lea	 eax, DWORD PTR _value$537189[ebp]
  00007	50		 push	 eax
  00008	81 c1 9c 03 00
	00		 add	 ecx, 924		; 0000039cH
  0000e	e8 00 00 00 00	 call	 ?DecryptValueToPool@?$CEncrypt@_N@@QAEXPA_N@Z ; CEncrypt<bool>::DecryptValueToPool
  00013	8a 45 ff	 mov	 al, BYTE PTR _value$537189[ebp]
  00016	c9		 leave
  00017	c3		 ret	 0
?IsCanJumpingSkill@ioSkill@@UBE_NXZ ENDP		; ioSkill::IsCanJumpingSkill
; Function compile flags: /Ogsp
_TEXT	ENDS
;	COMDAT ?IsCanJumpingSkillOnBlowWound@ioSkill@@UBE_NXZ
_TEXT	SEGMENT
_value$537196 = -1					; size = 1
?IsCanJumpingSkillOnBlowWound@ioSkill@@UBE_NXZ PROC	; ioSkill::IsCanJumpingSkillOnBlowWound, COMDAT
; _this$ = ecx

; 432  : 	virtual bool IsCanJumpingSkillOnBlowWound() const { return m_bEnableJumpingSkillOnBlowWound; }

  00000	55		 push	 ebp
  00001	8b ec		 mov	 ebp, esp
  00003	51		 push	 ecx
  00004	8d 45 ff	 lea	 eax, DWORD PTR _value$537196[ebp]
  00007	50		 push	 eax
  00008	81 c1 cc 03 00
	00		 add	 ecx, 972		; 000003ccH
  0000e	e8 00 00 00 00	 call	 ?DecryptValueToPool@?$CEncrypt@_N@@QAEXPA_N@Z ; CEncrypt<bool>::DecryptValueToPool
  00013	8a 45 ff	 mov	 al, BYTE PTR _value$537196[ebp]
  00016	c9		 leave
  00017	c3		 ret	 0
?IsCanJumpingSkillOnBlowWound@ioSkill@@UBE_NXZ ENDP	; ioSkill::IsCanJumpingSkillOnBlowWound
; Function compile flags: /Ogsp
_TEXT	ENDS
;	COMDAT ?IsCanDownSkill@ioSkill@@UBE_NXZ
_TEXT	SEGMENT
_value$537203 = -1					; size = 1
?IsCanDownSkill@ioSkill@@UBE_NXZ PROC			; ioSkill::IsCanDownSkill, COMDAT
; _this$ = ecx

; 437  : 	virtual bool IsCanDownSkill() const { return m_bEnableDownSkill; }

  00000	55		 push	 ebp
  00001	8b ec		 mov	 ebp, esp
  00003	51		 push	 ecx
  00004	8d 45 ff	 lea	 eax, DWORD PTR _value$537203[ebp]
  00007	50		 push	 eax
  00008	81 c1 5c 04 00
	00		 add	 ecx, 1116		; 0000045cH
  0000e	e8 00 00 00 00	 call	 ?DecryptValueToPool@?$CEncrypt@_N@@QAEXPA_N@Z ; CEncrypt<bool>::DecryptValueToPool
  00013	8a 45 ff	 mov	 al, BYTE PTR _value$537203[ebp]
  00016	c9		 leave
  00017	c3		 ret	 0
?IsCanDownSkill@ioSkill@@UBE_NXZ ENDP			; ioSkill::IsCanDownSkill
; Function compile flags: /Ogsp
_TEXT	ENDS
;	COMDAT ?IsCanBlowWoundSkill@ioSkill@@UBE_NXZ
_TEXT	SEGMENT
_value$537210 = -1					; size = 1
?IsCanBlowWoundSkill@ioSkill@@UBE_NXZ PROC		; ioSkill::IsCanBlowWoundSkill, COMDAT
; _this$ = ecx

; 440  : 	virtual bool IsCanBlowWoundSkill() const { return m_bEnableBlowWoundSkill; }

  00000	55		 push	 ebp
  00001	8b ec		 mov	 ebp, esp
  00003	51		 push	 ecx
  00004	8d 45 ff	 lea	 eax, DWORD PTR _value$537210[ebp]
  00007	50		 push	 eax
  00008	81 c1 8c 04 00
	00		 add	 ecx, 1164		; 0000048cH
  0000e	e8 00 00 00 00	 call	 ?DecryptValueToPool@?$CEncrypt@_N@@QAEXPA_N@Z ; CEncrypt<bool>::DecryptValueToPool
  00013	8a 45 ff	 mov	 al, BYTE PTR _value$537210[ebp]
  00016	c9		 leave
  00017	c3		 ret	 0
?IsCanBlowWoundSkill@ioSkill@@UBE_NXZ ENDP		; ioSkill::IsCanBlowWoundSkill
; Function compile flags: /Ogsp
_TEXT	ENDS
;	COMDAT ?IsCanWoundSkill@ioSkill@@UBE_NXZ
_TEXT	SEGMENT
_value$537217 = -1					; size = 1
?IsCanWoundSkill@ioSkill@@UBE_NXZ PROC			; ioSkill::IsCanWoundSkill, COMDAT
; _this$ = ecx

; 446  : 	virtual bool IsCanWoundSkill() const { return m_bEnableWoundSkill; }

  00000	55		 push	 ebp
  00001	8b ec		 mov	 ebp, esp
  00003	51		 push	 ecx
  00004	8d 45 ff	 lea	 eax, DWORD PTR _value$537217[ebp]
  00007	50		 push	 eax
  00008	81 c1 54 05 00
	00		 add	 ecx, 1364		; 00000554H
  0000e	e8 00 00 00 00	 call	 ?DecryptValueToPool@?$CEncrypt@_N@@QAEXPA_N@Z ; CEncrypt<bool>::DecryptValueToPool
  00013	8a 45 ff	 mov	 al, BYTE PTR _value$537217[ebp]
  00016	c9		 leave
  00017	c3		 ret	 0
?IsCanWoundSkill@ioSkill@@UBE_NXZ ENDP			; ioSkill::IsCanWoundSkill
_TEXT	ENDS
PUBLIC	?CreateMagicCircle@ioCircleMove6Skill@@IAEXPAVioBaseChar@@@Z ; ioCircleMove6Skill::CreateMagicCircle
EXTRN	?GetSingleConvertTeam@ioBaseChar@@QAE?AW4TeamType@@XZ:PROC ; ioBaseChar::GetSingleConvertTeam
; Function compile flags: /Ogsp
; File d:\lost saga for developer\youtube\tutorial\source\src\lsclient\iocirclemove6skill.cpp
;	COMDAT ?CreateMagicCircle@ioCircleMove6Skill@@IAEXPAVioBaseChar@@@Z
_TEXT	SEGMENT
_value$537242 = 8					; size = 4
_value$537230 = 8					; size = 4
_pChar$ = 8						; size = 4
?CreateMagicCircle@ioCircleMove6Skill@@IAEXPAVioBaseChar@@@Z PROC ; ioCircleMove6Skill::CreateMagicCircle, COMDAT
; _this$ = ecx

; 408  : {

  00000	55		 push	 ebp
  00001	8b ec		 mov	 ebp, esp
  00003	53		 push	 ebx

; 409  : 	if ( !pChar )

  00004	8b 5d 08	 mov	 ebx, DWORD PTR _pChar$[ebp]
  00007	56		 push	 esi
  00008	8b f1		 mov	 esi, ecx
  0000a	85 db		 test	 ebx, ebx
  0000c	0f 84 89 00 00
	00		 je	 $LN1@CreateMagi

; 410  : 		return;
; 411  : 
; 412  : 	if( !pChar->CheckMagicCircle() )

  00012	57		 push	 edi
  00013	8d 8b cc 01 00
	00		 lea	 ecx, DWORD PTR [ebx+460]
  00019	e8 00 00 00 00	 call	 ?CheckMagicCircle@ioBaseGUISupport@@QBE_NXZ ; ioBaseGUISupport::CheckMagicCircle
  0001e	84 c0		 test	 al, al
  00020	75 78		 jne	 SHORT $LN19@CreateMagi

; 413  : 	{
; 414  : 		// 팀 체크
; 415  : 		if( pChar->GetTeam() == TEAM_RED )

  00022	8d 45 08	 lea	 eax, DWORD PTR _value$537230[ebp]
  00025	8d 8b 90 00 00
	00		 lea	 ecx, DWORD PTR [ebx+144]
  0002b	50		 push	 eax
  0002c	e8 00 00 00 00	 call	 ?DecryptValueToPool@?$CEncrypt@W4TeamType@@@@QAEXPAW4TeamType@@@Z ; CEncrypt<enum TeamType>::DecryptValueToPool
  00031	83 7d 08 01	 cmp	 DWORD PTR _value$537230[ebp], 1

; 416  : 			pChar->CreateMagicCircle( m_ReadyCircle, m_ReadyCircle, m_RedGuidCircle, m_fCircleOffSet );

  00035	74 37		 je	 SHORT $LN2@CreateMagi

; 417  : 		else if( pChar->GetTeam() == TEAM_BLUE )

  00037	8d 45 08	 lea	 eax, DWORD PTR _value$537242[ebp]
  0003a	50		 push	 eax
  0003b	8d 8b 90 00 00
	00		 lea	 ecx, DWORD PTR [ebx+144]
  00041	e8 00 00 00 00	 call	 ?DecryptValueToPool@?$CEncrypt@W4TeamType@@@@QAEXPAW4TeamType@@@Z ; CEncrypt<enum TeamType>::DecryptValueToPool
  00046	83 7d 08 02	 cmp	 DWORD PTR _value$537242[ebp], 2
  0004a	75 16		 jne	 SHORT $LN4@CreateMagi
$LN21@CreateMagi:

; 418  : 			pChar->CreateMagicCircle( m_ReadyCircle, m_ReadyCircle, m_BlueGuidCircle, m_fCircleOffSet );

  0004c	f3 0f 10 86 64
	0f 00 00	 movss	 xmm0, DWORD PTR [esi+3940]
  00054	8d 86 68 0f 00
	00		 lea	 eax, DWORD PTR [esi+3944]
  0005a	81 c6 a8 0f 00
	00		 add	 esi, 4008		; 00000fa8H

; 419  : 		else

  00060	eb 20		 jmp	 SHORT $LN20@CreateMagi
$LN4@CreateMagi:

; 420  : 		{
; 421  : 			if( pChar->GetSingleConvertTeam() == TEAM_BLUE )			

  00062	8b cb		 mov	 ecx, ebx
  00064	e8 00 00 00 00	 call	 ?GetSingleConvertTeam@ioBaseChar@@QAE?AW4TeamType@@XZ ; ioBaseChar::GetSingleConvertTeam
  00069	83 f8 02	 cmp	 eax, 2

; 422  : 				pChar->CreateMagicCircle( m_ReadyCircle, m_ReadyCircle, m_BlueGuidCircle, m_fCircleOffSet );
; 423  : 			else

  0006c	74 de		 je	 SHORT $LN21@CreateMagi
$LN2@CreateMagi:

; 424  : 				pChar->CreateMagicCircle( m_ReadyCircle, m_ReadyCircle, m_RedGuidCircle, m_fCircleOffSet );

  0006e	f3 0f 10 86 64
	0f 00 00	 movss	 xmm0, DWORD PTR [esi+3940]
  00076	8d 86 68 0f 00
	00		 lea	 eax, DWORD PTR [esi+3944]
  0007c	81 c6 98 0f 00
	00		 add	 esi, 3992		; 00000f98H
$LN20@CreateMagi:
  00082	8b 93 cc 01 00
	00		 mov	 edx, DWORD PTR [ebx+460]
  00088	51		 push	 ecx
  00089	f3 0f 11 04 24	 movss	 DWORD PTR [esp], xmm0
  0008e	56		 push	 esi
  0008f	50		 push	 eax
  00090	50		 push	 eax
  00091	8d 8b cc 01 00
	00		 lea	 ecx, DWORD PTR [ebx+460]
  00097	ff 52 04	 call	 DWORD PTR [edx+4]
$LN19@CreateMagi:
  0009a	5f		 pop	 edi
$LN1@CreateMagi:
  0009b	5e		 pop	 esi
  0009c	5b		 pop	 ebx

; 425  : 		}
; 426  : 	}
; 427  : }

  0009d	5d		 pop	 ebp
  0009e	c2 04 00	 ret	 4
?CreateMagicCircle@ioCircleMove6Skill@@IAEXPAVioBaseChar@@@Z ENDP ; ioCircleMove6Skill::CreateMagicCircle
_TEXT	ENDS
PUBLIC	__$ArrayPad$
PUBLIC	?CreateEffect@ioCircleMove6Skill@@IAEXPAVioBaseChar@@@Z ; ioCircleMove6Skill::CreateEffect
EXTRN	?CreateMapEffect@ioPlayStage@@QAEPAVioMapEffect@@ABVioHashString@@ABUD3DXVECTOR3@@1@Z:PROC ; ioPlayStage::CreateMapEffect
; Function compile flags: /Ogsp
;	COMDAT ?CreateEffect@ioCircleMove6Skill@@IAEXPAVioBaseChar@@@Z
_TEXT	SEGMENT
_pStage$ = -36						; size = 4
tv299 = -32						; size = 4
tv295 = -32						; size = 4
tv292 = -32						; size = 4
_value$537303 = -32					; size = 4
_value$537291 = -32					; size = 4
_vScale$ = -28						; size = 12
_vPos$ = -16						; size = 12
__$ArrayPad$ = -4					; size = 4
_pChar$ = 8						; size = 4
?CreateEffect@ioCircleMove6Skill@@IAEXPAVioBaseChar@@@Z PROC ; ioCircleMove6Skill::CreateEffect, COMDAT
; _this$ = ecx

; 518  : {

  00000	55		 push	 ebp
  00001	8b ec		 mov	 ebp, esp
  00003	83 ec 24	 sub	 esp, 36			; 00000024H
  00006	a1 00 00 00 00	 mov	 eax, DWORD PTR ___security_cookie
  0000b	33 c5		 xor	 eax, ebp
  0000d	89 45 fc	 mov	 DWORD PTR __$ArrayPad$[ebp], eax
  00010	56		 push	 esi
  00011	57		 push	 edi
  00012	8b 7d 08	 mov	 edi, DWORD PTR _pChar$[ebp]
  00015	8b f1		 mov	 esi, ecx

; 519  : 	if ( !pChar )

  00017	85 ff		 test	 edi, edi
  00019	0f 84 1d 01 00
	00		 je	 $LN1@CreateEffe

; 520  : 		return;
; 521  : 
; 522  : 	ioPlayStage *pStage = pChar->GetCreator();

  0001f	8b 87 44 03 00
	00		 mov	 eax, DWORD PTR [edi+836]
  00025	89 45 dc	 mov	 DWORD PTR _pStage$[ebp], eax

; 523  : 	if ( !pStage )

  00028	85 c0		 test	 eax, eax
  0002a	0f 84 0c 01 00
	00		 je	 $LN1@CreateEffe

; 524  : 		return;
; 525  : 
; 526  : 	D3DXVECTOR3 vPos = m_vCirclePos + m_vEffectOffset;

  00030	f3 0f 10 86 04
	10 00 00	 movss	 xmm0, DWORD PTR [esi+4100]
  00038	f3 0f 10 8e b8
	0f 00 00	 movss	 xmm1, DWORD PTR [esi+4024]
  00040	0f 5a c0	 cvtps2pd xmm0, xmm0
  00043	0f 5a c9	 cvtps2pd xmm1, xmm1
  00046	f2 0f 58 c1	 addsd	 xmm0, xmm1
  0004a	f3 0f 10 8e 08
	10 00 00	 movss	 xmm1, DWORD PTR [esi+4104]
  00052	66 0f 5a c0	 cvtpd2ps xmm0, xmm0
  00056	f3 0f 11 45 f0	 movss	 DWORD PTR _vPos$[ebp], xmm0
  0005b	f3 0f 10 86 bc
	0f 00 00	 movss	 xmm0, DWORD PTR [esi+4028]
  00063	0f 5a c0	 cvtps2pd xmm0, xmm0
  00066	0f 5a c9	 cvtps2pd xmm1, xmm1
  00069	f2 0f 58 c1	 addsd	 xmm0, xmm1
  0006d	f3 0f 10 8e 0c
	10 00 00	 movss	 xmm1, DWORD PTR [esi+4108]
  00075	66 0f 5a c0	 cvtpd2ps xmm0, xmm0
  00079	f3 0f 11 45 f4	 movss	 DWORD PTR _vPos$[ebp+4], xmm0
  0007e	f3 0f 10 86 c0
	0f 00 00	 movss	 xmm0, DWORD PTR [esi+4032]
  00086	0f 5a c0	 cvtps2pd xmm0, xmm0
  00089	0f 5a c9	 cvtps2pd xmm1, xmm1
  0008c	f2 0f 58 c1	 addsd	 xmm0, xmm1
  00090	66 0f 5a c0	 cvtpd2ps xmm0, xmm0
  00094	53		 push	 ebx
  00095	f3 0f 11 45 f8	 movss	 DWORD PTR _vPos$[ebp+8], xmm0

; 527  : 	D3DXVECTOR3 vScale = D3DXVECTOR3( FLOAT1, FLOAT1, FLOAT1 );

  0009a	b8 01 00 00 00	 mov	 eax, 1
  0009f	8b c8		 mov	 ecx, eax
  000a1	b8 01 00 00 00	 mov	 eax, 1
  000a6	8b d0		 mov	 edx, eax
  000a8	b8 01 00 00 00	 mov	 eax, 1
  000ad	89 45 e0	 mov	 DWORD PTR tv299[ebp], eax
  000b0	db 45 e0	 fild	 DWORD PTR tv299[ebp]
  000b3	85 c0		 test	 eax, eax
  000b5	79 06		 jns	 SHORT $LN34@CreateEffe
  000b7	d8 05 00 00 00
	00		 fadd	 DWORD PTR __real@4f800000
$LN34@CreateEffe:
  000bd	d9 5d e4	 fstp	 DWORD PTR _vScale$[ebp]
  000c0	89 55 e0	 mov	 DWORD PTR tv295[ebp], edx
  000c3	db 45 e0	 fild	 DWORD PTR tv295[ebp]
  000c6	85 d2		 test	 edx, edx
  000c8	79 06		 jns	 SHORT $LN35@CreateEffe
  000ca	d8 05 00 00 00
	00		 fadd	 DWORD PTR __real@4f800000
$LN35@CreateEffe:
  000d0	d9 5d e8	 fstp	 DWORD PTR _vScale$[ebp+4]
  000d3	89 4d e0	 mov	 DWORD PTR tv292[ebp], ecx
  000d6	db 45 e0	 fild	 DWORD PTR tv292[ebp]
  000d9	85 c9		 test	 ecx, ecx
  000db	79 06		 jns	 SHORT $LN36@CreateEffe
  000dd	d8 05 00 00 00
	00		 fadd	 DWORD PTR __real@4f800000
$LN36@CreateEffe:

; 528  : 
; 529  : 	if( pChar->GetTeam() == TEAM_RED )

  000e3	8d 45 e0	 lea	 eax, DWORD PTR _value$537291[ebp]
  000e6	d9 5d ec	 fstp	 DWORD PTR _vScale$[ebp+8]
  000e9	50		 push	 eax
  000ea	8d 8f 90 00 00
	00		 lea	 ecx, DWORD PTR [edi+144]
  000f0	e8 00 00 00 00	 call	 ?DecryptValueToPool@?$CEncrypt@W4TeamType@@@@QAEXPAW4TeamType@@@Z ; CEncrypt<enum TeamType>::DecryptValueToPool
  000f5	83 7d e0 01	 cmp	 DWORD PTR _value$537291[ebp], 1

; 530  : 		pStage->CreateMapEffect( m_RedEffect, vPos, vScale );

  000f9	74 29		 je	 SHORT $LN2@CreateEffe

; 531  : 	else if( pChar->GetTeam() == TEAM_BLUE )

  000fb	8d 45 e0	 lea	 eax, DWORD PTR _value$537303[ebp]
  000fe	50		 push	 eax
  000ff	8d 8f 90 00 00
	00		 lea	 ecx, DWORD PTR [edi+144]
  00105	e8 00 00 00 00	 call	 ?DecryptValueToPool@?$CEncrypt@W4TeamType@@@@QAEXPAW4TeamType@@@Z ; CEncrypt<enum TeamType>::DecryptValueToPool
  0010a	83 7d e0 02	 cmp	 DWORD PTR _value$537303[ebp], 2
  0010e	75 08		 jne	 SHORT $LN4@CreateEffe
$LN38@CreateEffe:

; 532  : 		pStage->CreateMapEffect( m_BlueEffect, vPos, vScale );

  00110	81 c6 88 0f 00
	00		 add	 esi, 3976		; 00000f88H

; 533  : 	else

  00116	eb 12		 jmp	 SHORT $LN37@CreateEffe
$LN4@CreateEffe:

; 534  : 	{
; 535  : 		if( pChar->GetSingleConvertTeam() == TEAM_BLUE )

  00118	8b cf		 mov	 ecx, edi
  0011a	e8 00 00 00 00	 call	 ?GetSingleConvertTeam@ioBaseChar@@QAE?AW4TeamType@@XZ ; ioBaseChar::GetSingleConvertTeam
  0011f	83 f8 02	 cmp	 eax, 2

; 536  : 			pStage->CreateMapEffect( m_BlueEffect, vPos, vScale );
; 537  : 		else

  00122	74 ec		 je	 SHORT $LN38@CreateEffe
$LN2@CreateEffe:

; 538  : 			pStage->CreateMapEffect( m_RedEffect, vPos, vScale );

  00124	81 c6 78 0f 00
	00		 add	 esi, 3960		; 00000f78H
$LN37@CreateEffe:
  0012a	8b 4d dc	 mov	 ecx, DWORD PTR _pStage$[ebp]
  0012d	8d 45 e4	 lea	 eax, DWORD PTR _vScale$[ebp]
  00130	50		 push	 eax
  00131	8d 45 f0	 lea	 eax, DWORD PTR _vPos$[ebp]
  00134	50		 push	 eax
  00135	56		 push	 esi
  00136	e8 00 00 00 00	 call	 ?CreateMapEffect@ioPlayStage@@QAEPAVioMapEffect@@ABVioHashString@@ABUD3DXVECTOR3@@1@Z ; ioPlayStage::CreateMapEffect
  0013b	5b		 pop	 ebx
$LN1@CreateEffe:

; 539  : 	}
; 540  : }

  0013c	8b 4d fc	 mov	 ecx, DWORD PTR __$ArrayPad$[ebp]
  0013f	5f		 pop	 edi
  00140	33 cd		 xor	 ecx, ebp
  00142	5e		 pop	 esi
  00143	e8 00 00 00 00	 call	 @__security_check_cookie@4
  00148	c9		 leave
  00149	c2 04 00	 ret	 4
?CreateEffect@ioCircleMove6Skill@@IAEXPAVioBaseChar@@@Z ENDP ; ioCircleMove6Skill::CreateEffect
_TEXT	ENDS
PUBLIC	?CreateGuideEffect@ioCircleMove6Skill@@IAEXPAVioBaseChar@@@Z ; ioCircleMove6Skill::CreateGuideEffect
EXTRN	__imp_?GetUniqueID@ioMovableObject@@QBEKXZ:PROC
EXTRN	?AttachEffect@ioBaseChar@@QAEPAVioEffect@@ABVioHashString@@PAVioEntityEvent@@_N@Z:PROC ; ioBaseChar::AttachEffect
EXTRN	?GetOwnerChar@ioPlayStage@@QAEPAVioBaseChar@@XZ:PROC ; ioPlayStage::GetOwnerChar
; Function compile flags: /Ogsp
;	COMDAT ?CreateGuideEffect@ioCircleMove6Skill@@IAEXPAVioBaseChar@@@Z
_TEXT	SEGMENT
_value$537341 = -8					; size = 4
_value$537328 = -4					; size = 4
_bVisible$ = 8						; size = 1
_pChar$ = 8						; size = 4
?CreateGuideEffect@ioCircleMove6Skill@@IAEXPAVioBaseChar@@@Z PROC ; ioCircleMove6Skill::CreateGuideEffect, COMDAT
; _this$ = ecx

; 605  : {

  00000	55		 push	 ebp
  00001	8b ec		 mov	 ebp, esp
  00003	51		 push	 ecx
  00004	51		 push	 ecx
  00005	56		 push	 esi
  00006	57		 push	 edi

; 606  : 	if ( !pChar )

  00007	8b 7d 08	 mov	 edi, DWORD PTR _pChar$[ebp]
  0000a	8b f1		 mov	 esi, ecx
  0000c	85 ff		 test	 edi, edi
  0000e	0f 84 92 00 00
	00		 je	 $LN1@CreateGuid

; 607  : 		return;
; 608  : 
; 609  : 	ioPlayStage *pStage = pChar->GetCreator();

  00014	8b 8f 44 03 00
	00		 mov	 ecx, DWORD PTR [edi+836]

; 610  : 	if ( !pStage )

  0001a	85 c9		 test	 ecx, ecx
  0001c	0f 84 84 00 00
	00		 je	 $LN1@CreateGuid

; 611  : 		return;
; 612  : 
; 613  : 	bool bVisible = false;
; 614  : 	if( m_bEnableTeamOnlyVisible )

  00022	80 be f4 0f 00
	00 00		 cmp	 BYTE PTR [esi+4084], 0
  00029	53		 push	 ebx
  0002a	c6 45 08 00	 mov	 BYTE PTR _bVisible$[ebp], 0
  0002e	74 33		 je	 SHORT $LN5@CreateGuid

; 615  : 	{
; 616  : 		ioBaseChar* pOwnerChar = pStage->GetOwnerChar();		

  00030	e8 00 00 00 00	 call	 ?GetOwnerChar@ioPlayStage@@QAEPAVioBaseChar@@XZ ; ioPlayStage::GetOwnerChar
  00035	8b d8		 mov	 ebx, eax

; 617  : 		if( pOwnerChar && pChar->GetTeam() == pOwnerChar->GetTeam() )

  00037	85 db		 test	 ebx, ebx
  00039	74 3a		 je	 SHORT $LN20@CreateGuid
  0003b	8d 45 fc	 lea	 eax, DWORD PTR _value$537328[ebp]
  0003e	50		 push	 eax
  0003f	8d 8f 90 00 00
	00		 lea	 ecx, DWORD PTR [edi+144]
  00045	e8 00 00 00 00	 call	 ?DecryptValueToPool@?$CEncrypt@W4TeamType@@@@QAEXPAW4TeamType@@@Z ; CEncrypt<enum TeamType>::DecryptValueToPool
  0004a	8d 45 f8	 lea	 eax, DWORD PTR _value$537341[ebp]
  0004d	50		 push	 eax
  0004e	8d 8b 90 00 00
	00		 lea	 ecx, DWORD PTR [ebx+144]
  00054	e8 00 00 00 00	 call	 ?DecryptValueToPool@?$CEncrypt@W4TeamType@@@@QAEXPAW4TeamType@@@Z ; CEncrypt<enum TeamType>::DecryptValueToPool
  00059	8b 45 fc	 mov	 eax, DWORD PTR _value$537328[ebp]
  0005c	3b 45 f8	 cmp	 eax, DWORD PTR _value$537341[ebp]
  0005f	75 14		 jne	 SHORT $LN20@CreateGuid

; 618  : 		{
; 619  : 			bVisible = true;
; 620  : 		}
; 621  : 	}

  00061	eb 0e		 jmp	 SHORT $LN21@CreateGuid
$LN5@CreateGuid:

; 622  : 	else if( pChar->IsNeedProcess() )

  00063	8b 07		 mov	 eax, DWORD PTR [edi]
  00065	8b cf		 mov	 ecx, edi
  00067	ff 90 00 01 00
	00		 call	 DWORD PTR [eax+256]
  0006d	84 c0		 test	 al, al
  0006f	74 04		 je	 SHORT $LN20@CreateGuid
$LN21@CreateGuid:

; 623  : 	{
; 624  : 		bVisible = true;

  00071	c6 45 08 01	 mov	 BYTE PTR _bVisible$[ebp], 1
$LN20@CreateGuid:

; 625  : 	}
; 626  : 	
; 627  : 	ioEffect *pEffect = pChar->AttachEffect( m_GuideEffect );

  00075	6a 01		 push	 1
  00077	6a 00		 push	 0
  00079	8d 86 e4 0f 00
	00		 lea	 eax, DWORD PTR [esi+4068]
  0007f	50		 push	 eax
  00080	8b cf		 mov	 ecx, edi
  00082	e8 00 00 00 00	 call	 ?AttachEffect@ioBaseChar@@QAEPAVioEffect@@ABVioHashString@@PAVioEntityEvent@@_N@Z ; ioBaseChar::AttachEffect
  00087	5b		 pop	 ebx

; 628  : 	if( pEffect )

  00088	85 c0		 test	 eax, eax
  0008a	74 1a		 je	 SHORT $LN1@CreateGuid

; 629  : 	{
; 630  : 		pEffect->SetVisible( bVisible );

  0008c	ff 75 08	 push	 DWORD PTR _bVisible$[ebp]
  0008f	8d 78 14	 lea	 edi, DWORD PTR [eax+20]
  00092	8b 07		 mov	 eax, DWORD PTR [edi]
  00094	8b cf		 mov	 ecx, edi
  00096	ff 10		 call	 DWORD PTR [eax]

; 631  : 		m_dwGuideEffectID = pEffect->GetUniqueID();		

  00098	8b cf		 mov	 ecx, edi
  0009a	ff 15 00 00 00
	00		 call	 DWORD PTR __imp_?GetUniqueID@ioMovableObject@@QBEKXZ
  000a0	89 86 18 10 00
	00		 mov	 DWORD PTR [esi+4120], eax
$LN1@CreateGuid:
  000a6	5f		 pop	 edi
  000a7	5e		 pop	 esi

; 632  : 	}
; 633  : }

  000a8	c9		 leave
  000a9	c2 04 00	 ret	 4
?CreateGuideEffect@ioCircleMove6Skill@@IAEXPAVioBaseChar@@@Z ENDP ; ioCircleMove6Skill::CreateGuideEffect
_TEXT	ENDS
PUBLIC	_pChar$GSCopy$
EXTRN	??5SP2Packet@@QAEAAV0@AAUD3DXVECTOR3@@@Z:PROC	; SP2Packet::operator>>
EXTRN	??5SP2Packet@@QAEAAV0@AAK@Z:PROC		; SP2Packet::operator>>
EXTRN	??5SP2Packet@@QAEAAV0@AAH@Z:PROC		; SP2Packet::operator>>
;	COMDAT xdata$x
xdata$x	SEGMENT
__unwindtable$?ApplyExtraSkillInfo@ioCircleMove6Skill@@UAEXPAVioBaseChar@@PAVioPlayStage@@AAVSP2Packet@@@Z DD 0ffffffffH
	DD	FLAT:__unwindfunclet$?ApplyExtraSkillInfo@ioCircleMove6Skill@@UAEXPAVioBaseChar@@PAVioPlayStage@@AAVSP2Packet@@@Z$0
	DD	00H
	DD	FLAT:__unwindfunclet$?ApplyExtraSkillInfo@ioCircleMove6Skill@@UAEXPAVioBaseChar@@PAVioPlayStage@@AAVSP2Packet@@@Z$1
__ehfuncinfo$?ApplyExtraSkillInfo@ioCircleMove6Skill@@UAEXPAVioBaseChar@@PAVioPlayStage@@AAVSP2Packet@@@Z DD 019930522H
	DD	02H
	DD	FLAT:__unwindtable$?ApplyExtraSkillInfo@ioCircleMove6Skill@@UAEXPAVioBaseChar@@PAVioPlayStage@@AAVSP2Packet@@@Z
	DD	2 DUP(00H)
	DD	2 DUP(00H)
	DD	00H
	DD	01H
; Function compile flags: /Ogsp
xdata$x	ENDS
;	COMDAT ?ApplyExtraSkillInfo@ioCircleMove6Skill@@UAEXPAVioBaseChar@@PAVioPlayStage@@AAVSP2Packet@@@Z
_TEXT	SEGMENT
_kFireTime$530994 = -156				; size = 88
$T537349 = -68						; size = 16
_dwWeaponBase$530993 = -52				; size = 4
_pChar$GSCopy$ = -48					; size = 4
_nState$ = -44						; size = 4
_vPos$530995 = -40					; size = 12
_vDir$530996 = -28					; size = 12
__$EHRec$ = -12						; size = 12
_pChar$ = 8						; size = 4
_pStage$ = 12						; size = 4
_rkPacket$ = 16						; size = 4
?ApplyExtraSkillInfo@ioCircleMove6Skill@@UAEXPAVioBaseChar@@PAVioPlayStage@@AAVSP2Packet@@@Z PROC ; ioCircleMove6Skill::ApplyExtraSkillInfo, COMDAT
; _this$ = ecx

; 275  : {

  00000	68 90 00 00 00	 push	 144			; 00000090H
  00005	b8 00 00 00 00	 mov	 eax, __ehhandler$?ApplyExtraSkillInfo@ioCircleMove6Skill@@UAEXPAVioBaseChar@@PAVioPlayStage@@AAVSP2Packet@@@Z
  0000a	e8 00 00 00 00	 call	 __EH_prolog3_GS
  0000f	8b 7d 10	 mov	 edi, DWORD PTR _rkPacket$[ebp]
  00012	8b 5d 08	 mov	 ebx, DWORD PTR _pChar$[ebp]

; 276  : 	int nState;
; 277  : 	rkPacket >> nState;

  00015	8d 45 d4	 lea	 eax, DWORD PTR _nState$[ebp]
  00018	8b f1		 mov	 esi, ecx
  0001a	50		 push	 eax
  0001b	8b cf		 mov	 ecx, edi

; 289  : 		}
; 290  : 		break;
; 291  : 	case SS_CREATE_WEAPON:
; 292  : 		{
; 293  : 			DWORD dwWeaponBase;
; 294  : 			rkPacket >> dwWeaponBase;

  0001d	89 5d d0	 mov	 DWORD PTR _pChar$GSCopy$[ebp], ebx
  00020	e8 00 00 00 00	 call	 ??5SP2Packet@@QAEAAV0@AAH@Z ; SP2Packet::operator>>
  00025	8b 45 d4	 mov	 eax, DWORD PTR _nState$[ebp]
  00028	48		 dec	 eax
  00029	48		 dec	 eax
  0002a	0f 84 e4 00 00
	00		 je	 $LN3@ApplyExtra

; 278  : 
; 279  : 	switch( (SkillState)nState )

  00030	48		 dec	 eax
  00031	0f 84 d1 00 00
	00		 je	 $LN1@ApplyExtra
  00037	48		 dec	 eax
  00038	48		 dec	 eax
  00039	0f 85 00 01 00
	00		 jne	 $LN4@ApplyExtra

; 289  : 		}
; 290  : 		break;
; 291  : 	case SS_CREATE_WEAPON:
; 292  : 		{
; 293  : 			DWORD dwWeaponBase;
; 294  : 			rkPacket >> dwWeaponBase;

  0003f	8d 45 cc	 lea	 eax, DWORD PTR _dwWeaponBase$530993[ebp]
  00042	50		 push	 eax
  00043	8b cf		 mov	 ecx, edi
  00045	e8 00 00 00 00	 call	 ??5SP2Packet@@QAEAAV0@AAK@Z ; SP2Packet::operator>>

; 295  : 
; 296  : 			//무기 생성
; 297  : 			FireTime kFireTime;

  0004a	8d 8d 64 ff ff
	ff		 lea	 ecx, DWORD PTR _kFireTime$530994[ebp]
  00050	e8 00 00 00 00	 call	 ??0FireTime@@QAE@XZ	; FireTime::FireTime
  00055	33 ff		 xor	 edi, edi
  00057	89 7d fc	 mov	 DWORD PTR __$EHRec$[ebp+8], edi

; 298  : 			kFireTime.dwStart = FRAMEGETTIME();

  0005a	ff 15 00 00 00
	00		 call	 DWORD PTR __imp_?GetSingleton@ioFrameTimer@@SAAAV1@XZ
  00060	8b c8		 mov	 ecx, eax
  00062	ff 15 00 00 00
	00		 call	 DWORD PTR __imp_?GetLoopSec@ioFrameTimer@@QBEKXZ
  00068	89 85 64 ff ff
	ff		 mov	 DWORD PTR _kFireTime$530994[ebp], eax

; 299  : 
; 300  : 			kFireTime.iAttributeIdx = m_nFireWeaponNum;

  0006e	8b 86 c8 0f 00
	00		 mov	 eax, DWORD PTR [esi+4040]

; 301  : 			kFireTime.iResistanceIdx = 0;
; 302  : 			kFireTime.szWoundedAni  = "";

  00074	bb 00 00 00 00	 mov	 ebx, OFFSET ??_C@_00CNPNBAHC@?$AA@
  00079	53		 push	 ebx
  0007a	8d 8d 78 ff ff
	ff		 lea	 ecx, DWORD PTR _kFireTime$530994[ebp+20]
  00080	89 85 6c ff ff
	ff		 mov	 DWORD PTR _kFireTime$530994[ebp+8], eax
  00086	89 bd 70 ff ff
	ff		 mov	 DWORD PTR _kFireTime$530994[ebp+12], edi
  0008c	ff 15 00 00 00
	00		 call	 DWORD PTR __imp_??4ioHashString@@QAEAAV0@PBD@Z

; 303  : 			kFireTime.dwWoundedAniDuration = 0;
; 304  : 			kFireTime.bLoopWoundedAni = false;
; 305  : 
; 306  : 			kFireTime.dwWeaponIdx = dwWeaponBase;

  00092	8b 45 cc	 mov	 eax, DWORD PTR _dwWeaponBase$530993[ebp]
  00095	89 7d 88	 mov	 DWORD PTR _kFireTime$530994[ebp+36], edi

; 307  : 			kFireTime.eFireTimeType = FTT_SKILL_ATTACK;
; 308  : 
; 309  : 			D3DXVECTOR3 vPos = m_vCirclePos;

  00098	81 c6 04 10 00
	00		 add	 esi, 4100		; 00001004H
  0009e	8d 7d d8	 lea	 edi, DWORD PTR _vPos$530995[ebp]
  000a1	a5		 movsd
  000a2	a5		 movsd
  000a3	a5		 movsd

; 310  : 			D3DXVECTOR3 vDir = ioMath::VEC3_ZERO;

  000a4	8b 35 00 00 00
	00		 mov	 esi, DWORD PTR __imp_?VEC3_ZERO@ioMath@@2UD3DXVECTOR3@@A
  000aa	c6 85 74 ff ff
	ff 00		 mov	 BYTE PTR _kFireTime$530994[ebp+16], 0
  000b1	89 45 8c	 mov	 DWORD PTR _kFireTime$530994[ebp+40], eax
  000b4	c7 45 a4 04 00
	00 00		 mov	 DWORD PTR _kFireTime$530994[ebp+64], 4
  000bb	8d 7d e4	 lea	 edi, DWORD PTR _vDir$530996[ebp]
  000be	a5		 movsd
  000bf	a5		 movsd

; 311  : 			pChar->ExtendFireExplicit( kFireTime, vPos, vDir, "" );

  000c0	53		 push	 ebx
  000c1	8d 4d bc	 lea	 ecx, DWORD PTR $T537349[ebp]
  000c4	a5		 movsd
  000c5	ff 15 00 00 00
	00		 call	 DWORD PTR __imp_??0ioHashString@@QAE@PBD@Z
  000cb	8b 4d d0	 mov	 ecx, DWORD PTR _pChar$GSCopy$[ebp]
  000ce	8d 45 bc	 lea	 eax, DWORD PTR $T537349[ebp]
  000d1	50		 push	 eax
  000d2	8d 45 e4	 lea	 eax, DWORD PTR _vDir$530996[ebp]
  000d5	50		 push	 eax
  000d6	8d 45 d8	 lea	 eax, DWORD PTR _vPos$530995[ebp]
  000d9	50		 push	 eax
  000da	8d 85 64 ff ff
	ff		 lea	 eax, DWORD PTR _kFireTime$530994[ebp]
  000e0	50		 push	 eax
  000e1	c6 45 fc 01	 mov	 BYTE PTR __$EHRec$[ebp+8], 1
  000e5	e8 00 00 00 00	 call	 ?ExtendFireExplicit@ioBaseChar@@QAEPAVioWeapon@@ABUFireTime@@ABUD3DXVECTOR3@@1ABVioHashString@@@Z ; ioBaseChar::ExtendFireExplicit
  000ea	8d 4d bc	 lea	 ecx, DWORD PTR $T537349[ebp]
  000ed	c6 45 fc 00	 mov	 BYTE PTR __$EHRec$[ebp+8], 0
  000f1	ff 15 00 00 00
	00		 call	 DWORD PTR __imp_??1ioHashString@@QAE@XZ

; 312  : 		}

  000f7	83 4d fc ff	 or	 DWORD PTR __$EHRec$[ebp+8], -1
  000fb	8d 8d 64 ff ff
	ff		 lea	 ecx, DWORD PTR _kFireTime$530994[ebp]
  00101	e8 00 00 00 00	 call	 ??1FireTime@@QAE@XZ

; 313  : 		break;

  00106	eb 37		 jmp	 SHORT $LN4@ApplyExtra
$LN1@ApplyExtra:

; 314  : 	case SS_END:
; 315  : 		{
; 316  : 			m_SkillState = SS_END;

  00108	c7 86 f8 0f 00
	00 03 00 00 00	 mov	 DWORD PTR [esi+4088], 3

; 317  : 		}
; 318  : 		break;

  00112	eb 2b		 jmp	 SHORT $LN4@ApplyExtra
$LN3@ApplyExtra:

; 280  : 	{
; 281  : 	case SS_ACTION:
; 282  : 		{
; 283  : 			rkPacket >> m_vCirclePos;

  00114	8d 86 04 10 00
	00		 lea	 eax, DWORD PTR [esi+4100]
  0011a	50		 push	 eax
  0011b	8b cf		 mov	 ecx, edi
  0011d	e8 00 00 00 00	 call	 ??5SP2Packet@@QAEAAV0@AAUD3DXVECTOR3@@@Z ; SP2Packet::operator>>

; 284  : 
; 285  : 			CreateEffect( pChar );

  00122	53		 push	 ebx
  00123	8b ce		 mov	 ecx, esi
  00125	e8 00 00 00 00	 call	 ?CreateEffect@ioCircleMove6Skill@@IAEXPAVioBaseChar@@@Z ; ioCircleMove6Skill::CreateEffect

; 286  : 			SetNormalSkill( pChar );

  0012a	8b 06		 mov	 eax, DWORD PTR [esi]
  0012c	53		 push	 ebx
  0012d	8b ce		 mov	 ecx, esi
  0012f	ff 90 8c 01 00
	00		 call	 DWORD PTR [eax+396]

; 287  : 			
; 288  : 			m_SkillState = SS_WAIT;

  00135	c7 86 f8 0f 00
	00 04 00 00 00	 mov	 DWORD PTR [esi+4088], 4
$LN4@ApplyExtra:

; 319  : 	}
; 320  : }

  0013f	e8 00 00 00 00	 call	 __EH_epilog3_GS
  00144	c2 0c 00	 ret	 12			; 0000000cH
_TEXT	ENDS
;	COMDAT text$x
text$x	SEGMENT
__unwindfunclet$?ApplyExtraSkillInfo@ioCircleMove6Skill@@UAEXPAVioBaseChar@@PAVioPlayStage@@AAVSP2Packet@@@Z$0:
  00000	8d 8d 64 ff ff
	ff		 lea	 ecx, DWORD PTR _kFireTime$530994[ebp]
  00006	e9 00 00 00 00	 jmp	 ??1FireTime@@QAE@XZ
__unwindfunclet$?ApplyExtraSkillInfo@ioCircleMove6Skill@@UAEXPAVioBaseChar@@PAVioPlayStage@@AAVSP2Packet@@@Z$1:
  0000b	8d 4d bc	 lea	 ecx, DWORD PTR $T537349[ebp]
  0000e	ff 25 00 00 00
	00		 jmp	 DWORD PTR __imp_??1ioHashString@@QAE@XZ
__ehhandler$?ApplyExtraSkillInfo@ioCircleMove6Skill@@UAEXPAVioBaseChar@@PAVioPlayStage@@AAVSP2Packet@@@Z:
  00014	8b 54 24 08	 mov	 edx, DWORD PTR [esp+8]
  00018	8d 42 0c	 lea	 eax, DWORD PTR [edx+12]
  0001b	8b 8a 60 ff ff
	ff		 mov	 ecx, DWORD PTR [edx-160]
  00021	33 c8		 xor	 ecx, eax
  00023	e8 00 00 00 00	 call	 @__security_check_cookie@4
  00028	8b 4a fc	 mov	 ecx, DWORD PTR [edx-4]
  0002b	33 c8		 xor	 ecx, eax
  0002d	e8 00 00 00 00	 call	 @__security_check_cookie@4
  00032	b8 00 00 00 00	 mov	 eax, OFFSET __ehfuncinfo$?ApplyExtraSkillInfo@ioCircleMove6Skill@@UAEXPAVioBaseChar@@PAVioPlayStage@@AAVSP2Packet@@@Z
  00037	e9 00 00 00 00	 jmp	 ___CxxFrameHandler3
text$x	ENDS
?ApplyExtraSkillInfo@ioCircleMove6Skill@@UAEXPAVioBaseChar@@PAVioPlayStage@@AAVSP2Packet@@@Z ENDP ; ioCircleMove6Skill::ApplyExtraSkillInfo
PUBLIC	__real@3f800000
PUBLIC	?SetLoopState@ioCircleMove6Skill@@IAEXPAVioBaseChar@@@Z ; ioCircleMove6Skill::SetLoopState
EXTRN	__imp_?SetLoopAni@ioEntityGroup@@QAE_NHMMMM@Z:PROC
;	COMDAT __real@3f800000
; File d:\lost saga for developer\youtube\tutorial\source\src\lsclient\stdafx.h
CONST	SEGMENT
__real@3f800000 DD 03f800000r			; 1
; Function compile flags: /Ogsp
; File d:\lost saga for developer\youtube\tutorial\source\src\lsclient\iocirclemove6skill.cpp
CONST	ENDS
;	COMDAT ?SetLoopState@ioCircleMove6Skill@@IAEXPAVioBaseChar@@@Z
_TEXT	SEGMENT
tv173 = -8						; size = 4
tv168 = -8						; size = 4
tv163 = -8						; size = 4
_iAniID$ = -4						; size = 4
_pChar$ = 8						; size = 4
?SetLoopState@ioCircleMove6Skill@@IAEXPAVioBaseChar@@@Z PROC ; ioCircleMove6Skill::SetLoopState, COMDAT
; _this$ = ecx

; 383  : {

  00000	55		 push	 ebp
  00001	8b ec		 mov	 ebp, esp
  00003	51		 push	 ecx
  00004	51		 push	 ecx

; 384  : 	if ( !pChar )

  00005	8b 45 08	 mov	 eax, DWORD PTR _pChar$[ebp]
  00008	56		 push	 esi
  00009	8b f1		 mov	 esi, ecx
  0000b	85 c0		 test	 eax, eax
  0000d	0f 84 db 00 00
	00		 je	 $LN3@SetLoopSta

; 385  : 		return;
; 386  : 
; 387  : 	ioEntityGroup *pGrp = pChar->GetGroup();

  00013	57		 push	 edi
  00014	8b 78 04	 mov	 edi, DWORD PTR [eax+4]

; 388  : 	int iAniID = pGrp->GetAnimationIdx( m_szLoopAni );

  00017	8d 86 d0 0f 00
	00		 lea	 eax, DWORD PTR [esi+4048]
  0001d	50		 push	 eax
  0001e	8b cf		 mov	 ecx, edi
  00020	ff 15 00 00 00
	00		 call	 DWORD PTR __imp_?GetAnimationIdx@ioEntityGroup@@QAEHABVioHashString@@@Z
  00026	89 45 fc	 mov	 DWORD PTR _iAniID$[ebp], eax

; 389  : 	if( iAniID == -1 )	

  00029	83 f8 ff	 cmp	 eax, -1
  0002c	0f 84 bb 00 00
	00		 je	 $LN13@SetLoopSta

; 390  : 		return;
; 391  : 	
; 392  : 	pGrp->ClearAllLoopAni( FLOAT100, true );

  00032	b8 64 00 00 00	 mov	 eax, 100		; 00000064H
  00037	89 45 f8	 mov	 DWORD PTR tv173[ebp], eax
  0003a	db 45 f8	 fild	 DWORD PTR tv173[ebp]
  0003d	6a 01		 push	 1
  0003f	85 c0		 test	 eax, eax
  00041	79 06		 jns	 SHORT $LN14@SetLoopSta
  00043	d8 05 00 00 00
	00		 fadd	 DWORD PTR __real@4f800000
$LN14@SetLoopSta:
  00049	51		 push	 ecx
  0004a	8b cf		 mov	 ecx, edi
  0004c	d9 1c 24	 fstp	 DWORD PTR [esp]
  0004f	ff 15 00 00 00
	00		 call	 DWORD PTR __imp_?ClearAllLoopAni@ioEntityGroup@@QAEXM_N@Z

; 393  : 	pGrp->ClearAllActionAni( FLOAT100, true );

  00055	b8 64 00 00 00	 mov	 eax, 100		; 00000064H
  0005a	89 45 f8	 mov	 DWORD PTR tv168[ebp], eax
  0005d	db 45 f8	 fild	 DWORD PTR tv168[ebp]
  00060	6a 01		 push	 1
  00062	85 c0		 test	 eax, eax
  00064	79 06		 jns	 SHORT $LN15@SetLoopSta
  00066	d8 05 00 00 00
	00		 fadd	 DWORD PTR __real@4f800000
$LN15@SetLoopSta:
  0006c	51		 push	 ecx
  0006d	8b cf		 mov	 ecx, edi
  0006f	d9 1c 24	 fstp	 DWORD PTR [esp]
  00072	ff 15 00 00 00
	00		 call	 DWORD PTR __imp_?ClearAllActionAni@ioEntityGroup@@QAEXM_N@Z

; 394  : 	pGrp->SetLoopAni( iAniID, FLOAT100 );	

  00078	b8 64 00 00 00	 mov	 eax, 100		; 00000064H
  0007d	0f 57 c0	 xorps	 xmm0, xmm0
  00080	83 ec 10	 sub	 esp, 16			; 00000010H
  00083	f3 0f 11 44 24
	0c		 movss	 DWORD PTR [esp+12], xmm0
  00089	f3 0f 10 05 00
	00 00 00	 movss	 xmm0, DWORD PTR __real@3f800000
  00091	89 45 f8	 mov	 DWORD PTR tv163[ebp], eax
  00094	db 45 f8	 fild	 DWORD PTR tv163[ebp]
  00097	f3 0f 11 44 24
	08		 movss	 DWORD PTR [esp+8], xmm0
  0009d	f3 0f 11 44 24
	04		 movss	 DWORD PTR [esp+4], xmm0
  000a3	85 c0		 test	 eax, eax
  000a5	79 06		 jns	 SHORT $LN16@SetLoopSta
  000a7	d8 05 00 00 00
	00		 fadd	 DWORD PTR __real@4f800000
$LN16@SetLoopSta:
  000ad	d9 1c 24	 fstp	 DWORD PTR [esp]
  000b0	ff 75 fc	 push	 DWORD PTR _iAniID$[ebp]
  000b3	8b cf		 mov	 ecx, edi
  000b5	ff 15 00 00 00
	00		 call	 DWORD PTR __imp_?SetLoopAni@ioEntityGroup@@QAE_NHMMMM@Z

; 395  : 
; 396  : 	//마법진 생성
; 397  : 	CreateMagicCircle( pChar );

  000bb	ff 75 08	 push	 DWORD PTR _pChar$[ebp]
  000be	8b ce		 mov	 ecx, esi
  000c0	e8 00 00 00 00	 call	 ?CreateMagicCircle@ioCircleMove6Skill@@IAEXPAVioBaseChar@@@Z ; ioCircleMove6Skill::CreateMagicCircle

; 398  : 	//가이드 이펙트 생성
; 399  : 	CreateGuideEffect( pChar );

  000c5	ff 75 08	 push	 DWORD PTR _pChar$[ebp]
  000c8	8b ce		 mov	 ecx, esi
  000ca	e8 00 00 00 00	 call	 ?CreateGuideEffect@ioCircleMove6Skill@@IAEXPAVioBaseChar@@@Z ; ioCircleMove6Skill::CreateGuideEffect

; 400  : 
; 401  : 	DWORD dwCurTime = FRAMEGETTIME();

  000cf	ff 15 00 00 00
	00		 call	 DWORD PTR __imp_?GetSingleton@ioFrameTimer@@SAAAV1@XZ
  000d5	8b c8		 mov	 ecx, eax
  000d7	ff 15 00 00 00
	00		 call	 DWORD PTR __imp_?GetLoopSec@ioFrameTimer@@QBEKXZ

; 402  : 	m_dwCheckLoopTime = dwCurTime;

  000dd	89 86 00 10 00
	00		 mov	 DWORD PTR [esi+4096], eax

; 403  : 	m_SkillState = SS_LOOP;	

  000e3	c7 86 f8 0f 00
	00 01 00 00 00	 mov	 DWORD PTR [esi+4088], 1
$LN13@SetLoopSta:
  000ed	5f		 pop	 edi
$LN3@SetLoopSta:
  000ee	5e		 pop	 esi

; 404  : }

  000ef	c9		 leave
  000f0	c2 04 00	 ret	 4
?SetLoopState@ioCircleMove6Skill@@IAEXPAVioBaseChar@@@Z ENDP ; ioCircleMove6Skill::SetLoopState
_TEXT	ENDS
PUBLIC	__$ArrayPad$
PUBLIC	?SetActionState@ioCircleMove6Skill@@IAEXPAVioBaseChar@@@Z ; ioCircleMove6Skill::SetActionState
EXTRN	??6SP2Packet@@QAEAAV0@ABUD3DXVECTOR3@@@Z:PROC	; SP2Packet::operator<<
;	COMDAT xdata$x
; File d:\lost saga for developer\youtube\tutorial\source\src\lsclient\ioskill.h
xdata$x	SEGMENT
__unwindtable$?SetActionState@ioCircleMove6Skill@@IAEXPAVioBaseChar@@@Z DD 0ffffffffH
	DD	FLAT:__unwindfunclet$?SetActionState@ioCircleMove6Skill@@IAEXPAVioBaseChar@@@Z$0
__ehfuncinfo$?SetActionState@ioCircleMove6Skill@@IAEXPAVioBaseChar@@@Z DD 019930522H
	DD	01H
	DD	FLAT:__unwindtable$?SetActionState@ioCircleMove6Skill@@IAEXPAVioBaseChar@@@Z
	DD	2 DUP(00H)
	DD	2 DUP(00H)
	DD	00H
	DD	01H
; Function compile flags: /Ogsp
; File d:\lost saga for developer\youtube\tutorial\source\src\lsclient\iocirclemove6skill.cpp
xdata$x	ENDS
;	COMDAT ?SetActionState@ioCircleMove6Skill@@IAEXPAVioBaseChar@@@Z
_TEXT	SEGMENT
_kPacket$531092 = -32808				; size = 32792
__$ArrayPad$ = -16					; size = 4
__$EHRec$ = -12						; size = 12
_pChar$ = 8						; size = 4
?SetActionState@ioCircleMove6Skill@@IAEXPAVioBaseChar@@@Z PROC ; ioCircleMove6Skill::SetActionState, COMDAT
; _this$ = ecx

; 471  : {

  00000	55		 push	 ebp
  00001	8b ec		 mov	 ebp, esp
  00003	6a ff		 push	 -1
  00005	68 00 00 00 00	 push	 __ehhandler$?SetActionState@ioCircleMove6Skill@@IAEXPAVioBaseChar@@@Z
  0000a	64 a1 00 00 00
	00		 mov	 eax, DWORD PTR fs:0
  00010	50		 push	 eax
  00011	b8 1c 80 00 00	 mov	 eax, 32796		; 0000801cH
  00016	e8 00 00 00 00	 call	 __chkstk
  0001b	a1 00 00 00 00	 mov	 eax, DWORD PTR ___security_cookie
  00020	33 c5		 xor	 eax, ebp
  00022	89 45 f0	 mov	 DWORD PTR __$ArrayPad$[ebp], eax
  00025	53		 push	 ebx
  00026	56		 push	 esi
  00027	57		 push	 edi
  00028	50		 push	 eax
  00029	8d 45 f4	 lea	 eax, DWORD PTR __$EHRec$[ebp]
  0002c	64 a3 00 00 00
	00		 mov	 DWORD PTR fs:0, eax
  00032	8b 7d 08	 mov	 edi, DWORD PTR _pChar$[ebp]
  00035	8b f1		 mov	 esi, ecx

; 472  : 	if ( !pChar || !pChar->IsNeedProcess() )

  00037	85 ff		 test	 edi, edi
  00039	0f 84 d8 00 00
	00		 je	 $LN3@SetActionS
  0003f	8b 07		 mov	 eax, DWORD PTR [edi]
  00041	8b cf		 mov	 ecx, edi
  00043	ff 90 00 01 00
	00		 call	 DWORD PTR [eax+256]
  00049	84 c0		 test	 al, al
  0004b	0f 84 c6 00 00
	00		 je	 $LN3@SetActionS

; 473  : 		return;
; 474  : 
; 475  : 	GetMagicCirclePos( pChar );

  00051	57		 push	 edi
  00052	8b ce		 mov	 ecx, esi
  00054	e8 00 00 00 00	 call	 ?GetMagicCirclePos@ioCircleMove6Skill@@IAEXPAVioBaseChar@@@Z ; ioCircleMove6Skill::GetMagicCirclePos

; 476  : 	CreateEffect( pChar );

  00059	57		 push	 edi
  0005a	8b ce		 mov	 ecx, esi
  0005c	e8 00 00 00 00	 call	 ?CreateEffect@ioCircleMove6Skill@@IAEXPAVioBaseChar@@@Z ; ioCircleMove6Skill::CreateEffect

; 477  : 
; 478  : 	if( m_dwGuideEffectID != -1 )

  00061	83 be 18 10 00
	00 ff		 cmp	 DWORD PTR [esi+4120], -1
  00068	74 19		 je	 SHORT $LN2@SetActionS

; 479  : 	{
; 480  : 		pChar->EndEffect( m_GuideEffect, false );

  0006a	6a 01		 push	 1
  0006c	6a 00		 push	 0
  0006e	8d 86 e4 0f 00
	00		 lea	 eax, DWORD PTR [esi+4068]
  00074	50		 push	 eax
  00075	8b cf		 mov	 ecx, edi
  00077	e8 00 00 00 00	 call	 ?EndEffect@ioBaseChar@@QAEXABVioHashString@@_N1@Z ; ioBaseChar::EndEffect

; 481  : 		m_dwGuideEffectID = -1;

  0007c	83 8e 18 10 00
	00 ff		 or	 DWORD PTR [esi+4120], -1
$LN2@SetActionS:

; 482  : 	}
; 483  : 
; 484  : 	SetNormalSkill( pChar );

  00083	8b 06		 mov	 eax, DWORD PTR [esi]
  00085	57		 push	 edi
  00086	8b ce		 mov	 ecx, esi
  00088	ff 90 8c 01 00
	00		 call	 DWORD PTR [eax+396]

; 485  : 
; 486  : 	m_SkillState = SS_ACTION;

  0008e	6a 02		 push	 2
  00090	5b		 pop	 ebx
  00091	89 9e f8 0f 00
	00		 mov	 DWORD PTR [esi+4088], ebx

; 487  : 
; 488  : 	if( pChar->IsNeedSendNetwork() )

  00097	8b 07		 mov	 eax, DWORD PTR [edi]
  00099	8b cf		 mov	 ecx, edi
  0009b	ff 90 04 01 00
	00		 call	 DWORD PTR [eax+260]
  000a1	84 c0		 test	 al, al
  000a3	74 72		 je	 SHORT $LN3@SetActionS

; 489  : 	{
; 490  : 		SP2Packet kPacket( CUPK_SKILL_EXTRA_INFO );

  000a5	68 39 41 00 00	 push	 16697			; 00004139H
  000aa	8d 8d d8 7f ff
	ff		 lea	 ecx, DWORD PTR _kPacket$531092[ebp]
  000b0	e8 00 00 00 00	 call	 ??0SP2Packet@@QAE@K@Z	; SP2Packet::SP2Packet
  000b5	83 65 fc 00	 and	 DWORD PTR __$EHRec$[ebp+8], 0

; 491  : 		kPacket << pChar->GetCharName();

  000b9	81 c7 d4 02 00
	00		 add	 edi, 724		; 000002d4H
  000bf	57		 push	 edi
  000c0	8d 8d d8 7f ff
	ff		 lea	 ecx, DWORD PTR _kPacket$531092[ebp]
  000c6	e8 00 00 00 00	 call	 ??6SP2Packet@@QAEAAV0@ABVioHashString@@@Z ; SP2Packet::operator<<

; 492  : 		kPacket << GetName();

  000cb	8d 46 24	 lea	 eax, DWORD PTR [esi+36]
  000ce	50		 push	 eax
  000cf	8d 8d d8 7f ff
	ff		 lea	 ecx, DWORD PTR _kPacket$531092[ebp]
  000d5	e8 00 00 00 00	 call	 ??6SP2Packet@@QAEAAV0@ABVioHashString@@@Z ; SP2Packet::operator<<

; 493  : 		kPacket << SS_ACTION;

  000da	53		 push	 ebx
  000db	8d 8d d8 7f ff
	ff		 lea	 ecx, DWORD PTR _kPacket$531092[ebp]
  000e1	e8 00 00 00 00	 call	 ??6SP2Packet@@QAEAAV0@H@Z ; SP2Packet::operator<<

; 494  : 		kPacket << m_vCirclePos;

  000e6	81 c6 04 10 00
	00		 add	 esi, 4100		; 00001004H
  000ec	56		 push	 esi
  000ed	8d 8d d8 7f ff
	ff		 lea	 ecx, DWORD PTR _kPacket$531092[ebp]
  000f3	e8 00 00 00 00	 call	 ??6SP2Packet@@QAEAAV0@ABUD3DXVECTOR3@@@Z ; SP2Packet::operator<<

; 495  : 		P2PNetwork::SendToAllPlayingUser( kPacket );

  000f8	8d 85 d8 7f ff
	ff		 lea	 eax, DWORD PTR _kPacket$531092[ebp]
  000fe	6a 00		 push	 0
  00100	50		 push	 eax
  00101	e8 00 00 00 00	 call	 ?SendToAllPlayingUser@P2PNetwork@@YAXAAVSP2Packet@@PAVioBaseChar@@@Z ; P2PNetwork::SendToAllPlayingUser

; 496  : 	}

  00106	83 4d fc ff	 or	 DWORD PTR __$EHRec$[ebp+8], -1
  0010a	59		 pop	 ecx
  0010b	59		 pop	 ecx
  0010c	8d 8d d8 7f ff
	ff		 lea	 ecx, DWORD PTR _kPacket$531092[ebp]
  00112	e8 00 00 00 00	 call	 ??1SP2Packet@@UAE@XZ	; SP2Packet::~SP2Packet
$LN3@SetActionS:

; 497  : }

  00117	8b 4d f4	 mov	 ecx, DWORD PTR __$EHRec$[ebp]
  0011a	64 89 0d 00 00
	00 00		 mov	 DWORD PTR fs:0, ecx
  00121	59		 pop	 ecx
  00122	5f		 pop	 edi
  00123	5e		 pop	 esi
  00124	5b		 pop	 ebx
  00125	8b 4d f0	 mov	 ecx, DWORD PTR __$ArrayPad$[ebp]
  00128	33 cd		 xor	 ecx, ebp
  0012a	e8 00 00 00 00	 call	 @__security_check_cookie@4
  0012f	c9		 leave
  00130	c2 04 00	 ret	 4
_TEXT	ENDS
;	COMDAT text$x
text$x	SEGMENT
__unwindfunclet$?SetActionState@ioCircleMove6Skill@@IAEXPAVioBaseChar@@@Z$0:
  00000	8d 8d d8 7f ff
	ff		 lea	 ecx, DWORD PTR _kPacket$531092[ebp]
  00006	e9 00 00 00 00	 jmp	 ??1SP2Packet@@UAE@XZ	; SP2Packet::~SP2Packet
__ehhandler$?SetActionState@ioCircleMove6Skill@@IAEXPAVioBaseChar@@@Z:
  0000b	8b 54 24 08	 mov	 edx, DWORD PTR [esp+8]
  0000f	8d 42 0c	 lea	 eax, DWORD PTR [edx+12]
  00012	8b 8a d4 7f ff
	ff		 mov	 ecx, DWORD PTR [edx-32812]
  00018	33 c8		 xor	 ecx, eax
  0001a	e8 00 00 00 00	 call	 @__security_check_cookie@4
  0001f	8b 4a fc	 mov	 ecx, DWORD PTR [edx-4]
  00022	33 c8		 xor	 ecx, eax
  00024	e8 00 00 00 00	 call	 @__security_check_cookie@4
  00029	b8 00 00 00 00	 mov	 eax, OFFSET __ehfuncinfo$?SetActionState@ioCircleMove6Skill@@IAEXPAVioBaseChar@@@Z
  0002e	e9 00 00 00 00	 jmp	 ___CxxFrameHandler3
text$x	ENDS
?SetActionState@ioCircleMove6Skill@@IAEXPAVioBaseChar@@@Z ENDP ; ioCircleMove6Skill::SetActionState
PUBLIC	?CheckInputKey@ioCircleMove6Skill@@IAEXPAVioBaseChar@@@Z ; ioCircleMove6Skill::CheckInputKey
EXTRN	?IsAttackKey@ioBaseChar@@QBE_NXZ:PROC		; ioBaseChar::IsAttackKey
; Function compile flags: /Ogsp
;	COMDAT ?CheckInputKey@ioCircleMove6Skill@@IAEXPAVioBaseChar@@@Z
_TEXT	SEGMENT
_pChar$ = 8						; size = 4
?CheckInputKey@ioCircleMove6Skill@@IAEXPAVioBaseChar@@@Z PROC ; ioCircleMove6Skill::CheckInputKey, COMDAT
; _this$ = ecx

; 459  : {

  00000	55		 push	 ebp
  00001	8b ec		 mov	 ebp, esp
  00003	56		 push	 esi

; 460  : 	if ( !pChar || !pChar->IsNeedProcess() )

  00004	8b 75 08	 mov	 esi, DWORD PTR _pChar$[ebp]
  00007	57		 push	 edi
  00008	8b f9		 mov	 edi, ecx
  0000a	85 f6		 test	 esi, esi
  0000c	74 21		 je	 SHORT $LN2@CheckInput
  0000e	8b 06		 mov	 eax, DWORD PTR [esi]
  00010	8b ce		 mov	 ecx, esi
  00012	ff 90 00 01 00
	00		 call	 DWORD PTR [eax+256]
  00018	84 c0		 test	 al, al
  0001a	74 13		 je	 SHORT $LN2@CheckInput

; 461  : 		return;	
; 462  : 
; 463  : 	if( pChar->IsAttackKey() )

  0001c	8b ce		 mov	 ecx, esi
  0001e	e8 00 00 00 00	 call	 ?IsAttackKey@ioBaseChar@@QBE_NXZ ; ioBaseChar::IsAttackKey
  00023	84 c0		 test	 al, al
  00025	74 08		 je	 SHORT $LN2@CheckInput

; 464  : 	{
; 465  : 		SetActionState( pChar );

  00027	56		 push	 esi
  00028	8b cf		 mov	 ecx, edi
  0002a	e8 00 00 00 00	 call	 ?SetActionState@ioCircleMove6Skill@@IAEXPAVioBaseChar@@@Z ; ioCircleMove6Skill::SetActionState
$LN2@CheckInput:
  0002f	5f		 pop	 edi
  00030	5e		 pop	 esi

; 466  : 	}
; 467  : }

  00031	5d		 pop	 ebp
  00032	c2 04 00	 ret	 4
?CheckInputKey@ioCircleMove6Skill@@IAEXPAVioBaseChar@@@Z ENDP ; ioCircleMove6Skill::CheckInputKey
; Function compile flags: /Ogsp
_TEXT	ENDS
;	COMDAT ?OnProcessState@ioCircleMove6Skill@@UAEXPAVioBaseChar@@PAVioPlayStage@@@Z
_TEXT	SEGMENT
_pChar$ = 8						; size = 4
_pStage$ = 12						; size = 4
?OnProcessState@ioCircleMove6Skill@@UAEXPAVioBaseChar@@PAVioPlayStage@@@Z PROC ; ioCircleMove6Skill::OnProcessState, COMDAT
; _this$ = ecx

; 144  : {

  00000	55		 push	 ebp
  00001	8b ec		 mov	 ebp, esp
  00003	53		 push	 ebx
  00004	56		 push	 esi
  00005	57		 push	 edi
  00006	8b f1		 mov	 esi, ecx

; 145  : 	DWORD dwCurTime = FRAMEGETTIME();

  00008	ff 15 00 00 00
	00		 call	 DWORD PTR __imp_?GetSingleton@ioFrameTimer@@SAAAV1@XZ
  0000e	8b c8		 mov	 ecx, eax
  00010	ff 15 00 00 00
	00		 call	 DWORD PTR __imp_?GetLoopSec@ioFrameTimer@@QBEKXZ
  00016	8b f8		 mov	 edi, eax

; 146  : 	
; 147  : 	switch( m_SkillState )

  00018	8b 86 f8 0f 00
	00		 mov	 eax, DWORD PTR [esi+4088]
  0001e	83 e8 00	 sub	 eax, 0
  00021	74 56		 je	 SHORT $LN7@OnProcessS
  00023	48		 dec	 eax
  00024	74 1e		 je	 SHORT $LN5@OnProcessS
  00026	48		 dec	 eax
  00027	0f 85 80 00 00
	00		 jne	 $LN6@OnProcessS

; 178  : 	case SS_ACTION:
; 179  : 		{
; 180  : 			//무기 생성
; 181  : 			CreateWeapon( pChar );

  0002d	ff 75 08	 push	 DWORD PTR _pChar$[ebp]
  00030	8b ce		 mov	 ecx, esi
  00032	e8 00 00 00 00	 call	 ?CreateWeapon@ioCircleMove6Skill@@IAEXPAVioBaseChar@@@Z ; ioCircleMove6Skill::CreateWeapon

; 182  : 
; 183  : 			//모션 종료
; 184  : 			if ( m_dwMotionEndTime < dwCurTime )

  00037	39 be d8 02 00
	00		 cmp	 DWORD PTR [esi+728], edi
  0003d	73 6e		 jae	 SHORT $LN6@OnProcessS

; 185  : 			{
; 186  : 				SetEndState( pChar );

  0003f	ff 75 08	 push	 DWORD PTR _pChar$[ebp]

; 187  : 			}
; 188  : 		}
; 189  : 		break;

  00042	eb 2c		 jmp	 SHORT $LN12@OnProcessS
$LN5@OnProcessS:

; 159  : 			}
; 160  : 		}
; 161  : 		break;
; 162  : 	case SS_LOOP:
; 163  : 		{
; 164  : 			//마법진 갱신
; 165  : 			UpdateMagicCircle( pChar );

  00044	8b 5d 08	 mov	 ebx, DWORD PTR _pChar$[ebp]
  00047	53		 push	 ebx
  00048	8b ce		 mov	 ecx, esi
  0004a	e8 00 00 00 00	 call	 ?UpdateMagicCircle@ioCircleMove6Skill@@IAEXPAVioBaseChar@@@Z ; ioCircleMove6Skill::UpdateMagicCircle

; 166  : 			//마법진 방향으로 회전
; 167  : 			CheckRotate( pChar );

  0004f	53		 push	 ebx
  00050	8b ce		 mov	 ecx, esi
  00052	e8 00 00 00 00	 call	 ?CheckRotate@ioCircleMove6Skill@@IAEXPAVioBaseChar@@@Z ; ioCircleMove6Skill::CheckRotate

; 168  : 			//키입력
; 169  : 			CheckInputKey( pChar );

  00057	53		 push	 ebx
  00058	8b ce		 mov	 ecx, esi
  0005a	e8 00 00 00 00	 call	 ?CheckInputKey@ioCircleMove6Skill@@IAEXPAVioBaseChar@@@Z ; ioCircleMove6Skill::CheckInputKey

; 170  : 
; 171  : 			//루프 종료
; 172  : 			if ( m_dwCheckLoopTime + m_dwLoopDuration < dwCurTime )

  0005f	8b 86 00 10 00
	00		 mov	 eax, DWORD PTR [esi+4096]
  00065	03 86 e0 0f 00
	00		 add	 eax, DWORD PTR [esi+4064]
  0006b	3b c7		 cmp	 eax, edi
  0006d	73 3e		 jae	 SHORT $LN6@OnProcessS

; 173  : 			{
; 174  : 				SetEndState( pChar );

  0006f	53		 push	 ebx
$LN12@OnProcessS:
  00070	8b ce		 mov	 ecx, esi
  00072	e8 00 00 00 00	 call	 ?SetEndState@ioCircleMove6Skill@@IAEXPAVioBaseChar@@@Z ; ioCircleMove6Skill::SetEndState

; 175  : 			}
; 176  : 		}
; 177  : 		break;

  00077	eb 34		 jmp	 SHORT $LN6@OnProcessS
$LN7@OnProcessS:

; 148  : 	{
; 149  : 	case SS_NONE:
; 150  : 		{
; 151  : 			DWORD dwPreDelay = GetPreDelayTime();

  00079	8b 06		 mov	 eax, DWORD PTR [esi]
  0007b	8b ce		 mov	 ecx, esi
  0007d	ff 90 34 01 00
	00		 call	 DWORD PTR [eax+308]

; 152  : 			if( m_dwPreDelayStartTime + dwPreDelay < dwCurTime )

  00083	8b 96 20 02 00
	00		 mov	 edx, DWORD PTR [esi+544]
  00089	03 d0		 add	 edx, eax
  0008b	3b d7		 cmp	 edx, edi
  0008d	73 1e		 jae	 SHORT $LN6@OnProcessS

; 153  : 			{
; 154  : 				m_dwPreDelayStartTime = 0;
; 155  : 				EndPreDelayEffect( pChar );

  0008f	ff 75 08	 push	 DWORD PTR _pChar$[ebp]
  00092	8b 06		 mov	 eax, DWORD PTR [esi]
  00094	83 a6 20 02 00
	00 00		 and	 DWORD PTR [esi+544], 0
  0009b	8b ce		 mov	 ecx, esi
  0009d	ff 90 dc 00 00
	00		 call	 DWORD PTR [eax+220]

; 156  : 
; 157  : 				//루프 상태로 전환
; 158  : 				SetLoopState( pChar );

  000a3	ff 75 08	 push	 DWORD PTR _pChar$[ebp]
  000a6	8b ce		 mov	 ecx, esi
  000a8	e8 00 00 00 00	 call	 ?SetLoopState@ioCircleMove6Skill@@IAEXPAVioBaseChar@@@Z ; ioCircleMove6Skill::SetLoopState
$LN6@OnProcessS:
  000ad	5f		 pop	 edi
  000ae	5e		 pop	 esi
  000af	5b		 pop	 ebx

; 190  : 	case SS_WAIT:
; 191  : 		break;
; 192  : 	}
; 193  : }

  000b0	5d		 pop	 ebp
  000b1	c2 08 00	 ret	 8
?OnProcessState@ioCircleMove6Skill@@UAEXPAVioBaseChar@@PAVioPlayStage@@@Z ENDP ; ioCircleMove6Skill::OnProcessState
_TEXT	ENDS
END
