; Listing generated by Microsoft (R) Optimizing Compiler Version 16.00.30319.01 

	TITLE	D:\Lost Saga For Developer\Youtube\Tutorial\Source\src\LSClient\ioCircleMoveAttackSkill.cpp
	.686P
	.XMM
	include listing.inc
	.model	flat

INCLUDELIB MSVCRT
INCLUDELIB OLDNAMES

PUBLIC	?_EEM_DS@?$deque@UD3DXVECTOR3@@V?$allocator@UD3DXVECTOR3@@@std@@@std@@2HB ; std::deque<D3DXVECTOR3,std::allocator<D3DXVECTOR3> >::_EEM_DS
;	COMDAT ?_EEM_DS@?$deque@UD3DXVECTOR3@@V?$allocator@UD3DXVECTOR3@@@std@@@std@@2HB
CONST	SEGMENT
?_EEM_DS@?$deque@UD3DXVECTOR3@@V?$allocator@UD3DXVECTOR3@@@std@@@std@@2HB DD 01H ; std::deque<D3DXVECTOR3,std::allocator<D3DXVECTOR3> >::_EEM_DS
CONST	ENDS
PUBLIC	?return1@@YAIXZ					; return1
; Function compile flags: /Ogsp
; File d:\lost saga for developer\youtube\tutorial\source\src\lsclient\stdafx.h
;	COMDAT ?return1@@YAIXZ
_TEXT	SEGMENT
?return1@@YAIXZ PROC					; return1, COMDAT

; 17   : 	__forceinline unsigned int return1() { __asm mov eax, 1 };

  00000	b8 01 00 00 00	 mov	 eax, 1
  00005	c3		 ret	 0
?return1@@YAIXZ ENDP					; return1
_TEXT	ENDS
PUBLIC	?return5@@YAIXZ					; return5
; Function compile flags: /Ogsp
;	COMDAT ?return5@@YAIXZ
_TEXT	SEGMENT
?return5@@YAIXZ PROC					; return5, COMDAT

; 18   : 	__forceinline unsigned int return5() { __asm mov eax, 5 };

  00000	b8 05 00 00 00	 mov	 eax, 5
  00005	c3		 ret	 0
?return5@@YAIXZ ENDP					; return5
_TEXT	ENDS
PUBLIC	?return10@@YAIXZ				; return10
; Function compile flags: /Ogsp
;	COMDAT ?return10@@YAIXZ
_TEXT	SEGMENT
?return10@@YAIXZ PROC					; return10, COMDAT

; 21   : 	__forceinline unsigned int return10() { __asm mov eax, 10 };

  00000	b8 0a 00 00 00	 mov	 eax, 10			; 0000000aH
  00005	c3		 ret	 0
?return10@@YAIXZ ENDP					; return10
_TEXT	ENDS
PUBLIC	?return100@@YAIXZ				; return100
; Function compile flags: /Ogsp
;	COMDAT ?return100@@YAIXZ
_TEXT	SEGMENT
?return100@@YAIXZ PROC					; return100, COMDAT

; 25   : 	__forceinline unsigned int return100() { __asm mov eax, 100 };

  00000	b8 64 00 00 00	 mov	 eax, 100		; 00000064H
  00005	c3		 ret	 0
?return100@@YAIXZ ENDP					; return100
_TEXT	ENDS
PUBLIC	?return360@@YAIXZ				; return360
; Function compile flags: /Ogsp
;	COMDAT ?return360@@YAIXZ
_TEXT	SEGMENT
?return360@@YAIXZ PROC					; return360, COMDAT

; 27   : 	__forceinline unsigned int return360() { __asm mov eax, 360 };

  00000	b8 68 01 00 00	 mov	 eax, 360		; 00000168H
  00005	c3		 ret	 0
?return360@@YAIXZ ENDP					; return360
_TEXT	ENDS
PUBLIC	?return1000@@YAIXZ				; return1000
; Function compile flags: /Ogsp
;	COMDAT ?return1000@@YAIXZ
_TEXT	SEGMENT
?return1000@@YAIXZ PROC					; return1000, COMDAT

; 29   : 	__forceinline unsigned int return1000() { __asm mov eax, 1000 };

  00000	b8 e8 03 00 00	 mov	 eax, 1000		; 000003e8H
  00005	c3		 ret	 0
?return1000@@YAIXZ ENDP					; return1000
_TEXT	ENDS
PUBLIC	?GetCharName@ioBaseChar@@QBEABVioHashString@@XZ	; ioBaseChar::GetCharName
; Function compile flags: /Ogsp
; File d:\lost saga for developer\youtube\tutorial\source\src\lsclient\iobasechar.h
;	COMDAT ?GetCharName@ioBaseChar@@QBEABVioHashString@@XZ
_TEXT	SEGMENT
?GetCharName@ioBaseChar@@QBEABVioHashString@@XZ PROC	; ioBaseChar::GetCharName, COMDAT
; _this$ = ecx

; 2594 : 	inline const ioHashString& GetCharName() const { return m_Name; }

  00000	8d 81 d4 02 00
	00		 lea	 eax, DWORD PTR [ecx+724]
  00006	c3		 ret	 0
?GetCharName@ioBaseChar@@QBEABVioHashString@@XZ ENDP	; ioBaseChar::GetCharName
_TEXT	ENDS
PUBLIC	?GetTargetRot@ioBaseChar@@QBEABUD3DXQUATERNION@@XZ ; ioBaseChar::GetTargetRot
; Function compile flags: /Ogsp
;	COMDAT ?GetTargetRot@ioBaseChar@@QBEABUD3DXQUATERNION@@XZ
_TEXT	SEGMENT
?GetTargetRot@ioBaseChar@@QBEABUD3DXQUATERNION@@XZ PROC	; ioBaseChar::GetTargetRot, COMDAT
; _this$ = ecx

; 2599 : 	inline const D3DXQUATERNION& GetTargetRot() const { return m_qtTargetRot; }

  00000	8d 81 a4 06 00
	00		 lea	 eax, DWORD PTR [ecx+1700]
  00006	c3		 ret	 0
?GetTargetRot@ioBaseChar@@QBEABUD3DXQUATERNION@@XZ ENDP	; ioBaseChar::GetTargetRot
_TEXT	ENDS
PUBLIC	?SetCurJumpPowerAmt@ioBaseChar@@QAEXM@Z		; ioBaseChar::SetCurJumpPowerAmt
EXTRN	__fltused:DWORD
; Function compile flags: /Ogsp
;	COMDAT ?SetCurJumpPowerAmt@ioBaseChar@@QAEXM@Z
_TEXT	SEGMENT
_fAmt$ = 8						; size = 4
?SetCurJumpPowerAmt@ioBaseChar@@QAEXM@Z PROC		; ioBaseChar::SetCurJumpPowerAmt, COMDAT
; _this$ = ecx

; 2628 : 	inline void SetCurJumpPowerAmt( float fAmt ) { m_fCurJumpPowerAmt = fAmt; }

  00000	55		 push	 ebp
  00001	8b ec		 mov	 ebp, esp
  00003	f3 0f 10 45 08	 movss	 xmm0, DWORD PTR _fAmt$[ebp]
  00008	f3 0f 11 81 90
	0e 00 00	 movss	 DWORD PTR [ecx+3728], xmm0
  00010	5d		 pop	 ebp
  00011	c2 04 00	 ret	 4
?SetCurJumpPowerAmt@ioBaseChar@@QAEXM@Z ENDP		; ioBaseChar::SetCurJumpPowerAmt
_TEXT	ENDS
PUBLIC	_acosf
EXTRN	__CIacos:PROC
; Function compile flags: /Ogsp
; File c:\program files (x86)\microsoft visual studio 10.0\vc\include\math.h
;	COMDAT _acosf
_TEXT	SEGMENT
tv69 = 8						; size = 4
__X$ = 8						; size = 4
_acosf	PROC						; COMDAT

; 400  :         {return ((float)acos((double)_X)); }

  00000	55		 push	 ebp
  00001	8b ec		 mov	 ebp, esp
  00003	d9 45 08	 fld	 DWORD PTR __X$[ebp]
  00006	e8 00 00 00 00	 call	 __CIacos
  0000b	d9 5d 08	 fstp	 DWORD PTR tv69[ebp]
  0000e	d9 45 08	 fld	 DWORD PTR tv69[ebp]
  00011	5d		 pop	 ebp
  00012	c3		 ret	 0
_acosf	ENDP
_TEXT	ENDS
PUBLIC	_sqrtf
EXTRN	__CIsqrt:PROC
; Function compile flags: /Ogsp
;	COMDAT _sqrtf
_TEXT	SEGMENT
tv69 = 8						; size = 4
__X$ = 8						; size = 4
_sqrtf	PROC						; COMDAT

; 434  :         {return ((float)sqrt((double)_X)); }

  00000	55		 push	 ebp
  00001	8b ec		 mov	 ebp, esp
  00003	d9 45 08	 fld	 DWORD PTR __X$[ebp]
  00006	e8 00 00 00 00	 call	 __CIsqrt
  0000b	d9 5d 08	 fstp	 DWORD PTR tv69[ebp]
  0000e	d9 45 08	 fld	 DWORD PTR tv69[ebp]
  00011	5d		 pop	 ebp
  00012	c3		 ret	 0
_sqrtf	ENDP
_TEXT	ENDS
PUBLIC	??_7bad_alloc@std@@6B@				; std::bad_alloc::`vftable'
PUBLIC	??0bad_alloc@std@@QAE@PBD@Z			; std::bad_alloc::bad_alloc
PUBLIC	??_R4bad_alloc@std@@6B@				; std::bad_alloc::`RTTI Complete Object Locator'
PUBLIC	??_R0?AVbad_alloc@std@@@8			; std::bad_alloc `RTTI Type Descriptor'
PUBLIC	??_R3bad_alloc@std@@8				; std::bad_alloc::`RTTI Class Hierarchy Descriptor'
PUBLIC	??_R2bad_alloc@std@@8				; std::bad_alloc::`RTTI Base Class Array'
PUBLIC	??_R1A@?0A@EA@bad_alloc@std@@8			; std::bad_alloc::`RTTI Base Class Descriptor at (0,-1,0,64)'
PUBLIC	??_R1A@?0A@EA@exception@std@@8			; std::exception::`RTTI Base Class Descriptor at (0,-1,0,64)'
PUBLIC	??_R0?AVexception@std@@@8			; std::exception `RTTI Type Descriptor'
PUBLIC	??_R3exception@std@@8				; std::exception::`RTTI Class Hierarchy Descriptor'
PUBLIC	??_R2exception@std@@8				; std::exception::`RTTI Base Class Array'
EXTRN	__imp_??0exception@std@@QAE@ABQBD@Z:PROC
EXTRN	??_7type_info@@6B@:QWORD			; type_info::`vftable'
EXTRN	??_Ebad_alloc@std@@UAEPAXI@Z:PROC		; std::bad_alloc::`vector deleting destructor'
EXTRN	?what@exception@std@@UBEPBDXZ:PROC		; std::exception::what
;	COMDAT ??_R2exception@std@@8
; File c:\program files (x86)\microsoft visual studio 10.0\vc\include\exception
rdata$r	SEGMENT
??_R2exception@std@@8 DD FLAT:??_R1A@?0A@EA@exception@std@@8 ; std::exception::`RTTI Base Class Array'
rdata$r	ENDS
;	COMDAT ??_R3exception@std@@8
rdata$r	SEGMENT
??_R3exception@std@@8 DD 00H				; std::exception::`RTTI Class Hierarchy Descriptor'
	DD	00H
	DD	01H
	DD	FLAT:??_R2exception@std@@8
rdata$r	ENDS
;	COMDAT ??_R0?AVexception@std@@@8
_DATA	SEGMENT
??_R0?AVexception@std@@@8 DD FLAT:??_7type_info@@6B@	; std::exception `RTTI Type Descriptor'
	DD	00H
	DB	'.?AVexception@std@@', 00H
_DATA	ENDS
;	COMDAT ??_R1A@?0A@EA@exception@std@@8
rdata$r	SEGMENT
??_R1A@?0A@EA@exception@std@@8 DD FLAT:??_R0?AVexception@std@@@8 ; std::exception::`RTTI Base Class Descriptor at (0,-1,0,64)'
	DD	00H
	DD	00H
	DD	0ffffffffH
	DD	00H
	DD	040H
	DD	FLAT:??_R3exception@std@@8
rdata$r	ENDS
;	COMDAT ??_R1A@?0A@EA@bad_alloc@std@@8
rdata$r	SEGMENT
??_R1A@?0A@EA@bad_alloc@std@@8 DD FLAT:??_R0?AVbad_alloc@std@@@8 ; std::bad_alloc::`RTTI Base Class Descriptor at (0,-1,0,64)'
	DD	01H
	DD	00H
	DD	0ffffffffH
	DD	00H
	DD	040H
	DD	FLAT:??_R3bad_alloc@std@@8
rdata$r	ENDS
;	COMDAT ??_R2bad_alloc@std@@8
rdata$r	SEGMENT
??_R2bad_alloc@std@@8 DD FLAT:??_R1A@?0A@EA@bad_alloc@std@@8 ; std::bad_alloc::`RTTI Base Class Array'
	DD	FLAT:??_R1A@?0A@EA@exception@std@@8
rdata$r	ENDS
;	COMDAT ??_R3bad_alloc@std@@8
rdata$r	SEGMENT
??_R3bad_alloc@std@@8 DD 00H				; std::bad_alloc::`RTTI Class Hierarchy Descriptor'
	DD	00H
	DD	02H
	DD	FLAT:??_R2bad_alloc@std@@8
rdata$r	ENDS
;	COMDAT ??_R0?AVbad_alloc@std@@@8
_DATA	SEGMENT
??_R0?AVbad_alloc@std@@@8 DD FLAT:??_7type_info@@6B@	; std::bad_alloc `RTTI Type Descriptor'
	DD	00H
	DB	'.?AVbad_alloc@std@@', 00H
_DATA	ENDS
;	COMDAT ??_R4bad_alloc@std@@6B@
rdata$r	SEGMENT
??_R4bad_alloc@std@@6B@ DD 00H				; std::bad_alloc::`RTTI Complete Object Locator'
	DD	00H
	DD	00H
	DD	FLAT:??_R0?AVbad_alloc@std@@@8
	DD	FLAT:??_R3bad_alloc@std@@8
rdata$r	ENDS
;	COMDAT ??_7bad_alloc@std@@6B@
CONST	SEGMENT
??_7bad_alloc@std@@6B@ DD FLAT:??_R4bad_alloc@std@@6B@	; std::bad_alloc::`vftable'
	DD	FLAT:??_Ebad_alloc@std@@UAEPAXI@Z
	DD	FLAT:?what@exception@std@@UBEPBDXZ
; Function compile flags: /Ogsp
CONST	ENDS
;	COMDAT ??0bad_alloc@std@@QAE@PBD@Z
_TEXT	SEGMENT
__Message$ = 8						; size = 4
??0bad_alloc@std@@QAE@PBD@Z PROC			; std::bad_alloc::bad_alloc, COMDAT
; _this$ = ecx

; 345  : 		{	// construct from message string

  00000	55		 push	 ebp
  00001	8b ec		 mov	 ebp, esp
  00003	56		 push	 esi
  00004	8d 45 08	 lea	 eax, DWORD PTR __Message$[ebp]
  00007	50		 push	 eax
  00008	8b f1		 mov	 esi, ecx
  0000a	ff 15 00 00 00
	00		 call	 DWORD PTR __imp_??0exception@std@@QAE@ABQBD@Z
  00010	c7 06 00 00 00
	00		 mov	 DWORD PTR [esi], OFFSET ??_7bad_alloc@std@@6B@

; 346  : 		}

  00016	8b c6		 mov	 eax, esi
  00018	5e		 pop	 esi
  00019	5d		 pop	 ebp
  0001a	c2 04 00	 ret	 4
??0bad_alloc@std@@QAE@PBD@Z ENDP			; std::bad_alloc::bad_alloc
_TEXT	ENDS
PUBLIC	??1bad_alloc@std@@UAE@XZ			; std::bad_alloc::~bad_alloc
EXTRN	__imp_??1exception@std@@UAE@XZ:PROC
; Function compile flags: /Ogsp
;	COMDAT ??1bad_alloc@std@@UAE@XZ
_TEXT	SEGMENT
??1bad_alloc@std@@UAE@XZ PROC				; std::bad_alloc::~bad_alloc, COMDAT
; _this$ = ecx

; 354  : 		{	// destroy the object

  00000	c7 01 00 00 00
	00		 mov	 DWORD PTR [ecx], OFFSET ??_7bad_alloc@std@@6B@

; 355  : 		}

  00006	ff 25 00 00 00
	00		 jmp	 DWORD PTR __imp_??1exception@std@@UAE@XZ
??1bad_alloc@std@@UAE@XZ ENDP				; std::bad_alloc::~bad_alloc
_TEXT	ENDS
EXTRN	??3@YAXPAX@Z:PROC				; operator delete
; Function compile flags: /Ogsp
;	COMDAT ??_Gbad_alloc@std@@UAEPAXI@Z
_TEXT	SEGMENT
___flags$ = 8						; size = 4
??_Gbad_alloc@std@@UAEPAXI@Z PROC			; std::bad_alloc::`scalar deleting destructor', COMDAT
; _this$ = ecx
  00000	55		 push	 ebp
  00001	8b ec		 mov	 ebp, esp
  00003	56		 push	 esi
  00004	8b f1		 mov	 esi, ecx
  00006	c7 06 00 00 00
	00		 mov	 DWORD PTR [esi], OFFSET ??_7bad_alloc@std@@6B@
  0000c	ff 15 00 00 00
	00		 call	 DWORD PTR __imp_??1exception@std@@UAE@XZ
  00012	f6 45 08 01	 test	 BYTE PTR ___flags$[ebp], 1
  00016	74 07		 je	 SHORT $LN1@scalar
  00018	56		 push	 esi
  00019	e8 00 00 00 00	 call	 ??3@YAXPAX@Z		; operator delete
  0001e	59		 pop	 ecx
$LN1@scalar:
  0001f	8b c6		 mov	 eax, esi
  00021	5e		 pop	 esi
  00022	5d		 pop	 ebp
  00023	c2 04 00	 ret	 4
??_Gbad_alloc@std@@UAEPAXI@Z ENDP			; std::bad_alloc::`scalar deleting destructor'
_TEXT	ENDS
PUBLIC	??2@YAPAXIPAX@Z					; operator new
; Function compile flags: /Ogsp
; File c:\program files (x86)\microsoft visual studio 10.0\vc\include\new
;	COMDAT ??2@YAPAXIPAX@Z
_TEXT	SEGMENT
___formal$ = 8						; size = 4
__Where$ = 12						; size = 4
??2@YAPAXIPAX@Z PROC					; operator new, COMDAT

; 56   : 	{	// construct array with placement at _Where

  00000	55		 push	 ebp
  00001	8b ec		 mov	 ebp, esp

; 57   : 	return (_Where);

  00003	8b 45 0c	 mov	 eax, DWORD PTR __Where$[ebp]

; 58   : 	}

  00006	5d		 pop	 ebp
  00007	c3		 ret	 0
??2@YAPAXIPAX@Z ENDP					; operator new
_TEXT	ENDS
PUBLIC	??3@YAXPAX0@Z					; operator delete
; Function compile flags: /Ogsp
;	COMDAT ??3@YAXPAX0@Z
_TEXT	SEGMENT
___formal$ = 8						; size = 4
___formal$ = 12						; size = 4
??3@YAXPAX0@Z PROC					; operator delete, COMDAT

; 62   : 	}

  00000	c3		 ret	 0
??3@YAXPAX0@Z ENDP					; operator delete
_TEXT	ENDS
PUBLIC	?CheckGhostState@ioBaseChar@@QBE_NXZ		; ioBaseChar::CheckGhostState
; Function compile flags: /Ogsp
; File d:\lost saga for developer\youtube\tutorial\source\src\lsclient\iobasechar.h
;	COMDAT ?CheckGhostState@ioBaseChar@@QBE_NXZ
_TEXT	SEGMENT
?CheckGhostState@ioBaseChar@@QBE_NXZ PROC		; ioBaseChar::CheckGhostState, COMDAT
; _this$ = ecx

; 4031 : 	inline bool CheckGhostState() const { return m_bUseGhostState; }

  00000	8a 81 e4 38 00
	00		 mov	 al, BYTE PTR [ecx+14564]
  00006	c3		 ret	 0
?CheckGhostState@ioBaseChar@@QBE_NXZ ENDP		; ioBaseChar::CheckGhostState
_TEXT	ENDS
PUBLIC	?GetPreHeightForGhostState@ioBaseChar@@QBEMXZ	; ioBaseChar::GetPreHeightForGhostState
; Function compile flags: /Ogsp
;	COMDAT ?GetPreHeightForGhostState@ioBaseChar@@QBEMXZ
_TEXT	SEGMENT
?GetPreHeightForGhostState@ioBaseChar@@QBEMXZ PROC	; ioBaseChar::GetPreHeightForGhostState, COMDAT
; _this$ = ecx

; 4033 : 	float GetPreHeightForGhostState() const { return m_fPreHeightForGhostState; }

  00000	d9 81 e0 38 00
	00		 fld	 DWORD PTR [ecx+14560]
  00006	c3		 ret	 0
?GetPreHeightForGhostState@ioBaseChar@@QBEMXZ ENDP	; ioBaseChar::GetPreHeightForGhostState
_TEXT	ENDS
PUBLIC	??_R0?AVioWeapon@@@8				; ioWeapon `RTTI Type Descriptor'
PUBLIC	??_R0?AVioZoneEffectWeapon@@@8			; ioZoneEffectWeapon `RTTI Type Descriptor'
PUBLIC	?ToZoneEffectWeapon@@YAPAVioZoneEffectWeapon@@PAVioWeapon@@@Z ; ToZoneEffectWeapon
EXTRN	___RTDynamicCast:PROC
;	COMDAT ??_R0?AVioWeapon@@@8
; File d:\lost saga for developer\youtube\tutorial\source\src\lsclient\iozoneeffectweapon.h
_DATA	SEGMENT
??_R0?AVioWeapon@@@8 DD FLAT:??_7type_info@@6B@		; ioWeapon `RTTI Type Descriptor'
	DD	00H
	DB	'.?AVioWeapon@@', 00H
_DATA	ENDS
;	COMDAT ??_R0?AVioZoneEffectWeapon@@@8
_DATA	SEGMENT
??_R0?AVioZoneEffectWeapon@@@8 DD FLAT:??_7type_info@@6B@ ; ioZoneEffectWeapon `RTTI Type Descriptor'
	DD	00H
	DB	'.?AVioZoneEffectWeapon@@', 00H
; Function compile flags: /Ogsp
_DATA	ENDS
;	COMDAT ?ToZoneEffectWeapon@@YAPAVioZoneEffectWeapon@@PAVioWeapon@@@Z
_TEXT	SEGMENT
_pWeapon$ = 8						; size = 4
?ToZoneEffectWeapon@@YAPAVioZoneEffectWeapon@@PAVioWeapon@@@Z PROC ; ToZoneEffectWeapon, COMDAT

; 217  : {

  00000	55		 push	 ebp
  00001	8b ec		 mov	 ebp, esp
  00003	56		 push	 esi

; 218  : 	if( !pWeapon || pWeapon->GetType() != ioWeapon::WT_ZONE_EFFECT )

  00004	8b 75 08	 mov	 esi, DWORD PTR _pWeapon$[ebp]
  00007	85 f6		 test	 esi, esi
  00009	74 28		 je	 SHORT $LN1@ToZoneEffe
  0000b	8b 06		 mov	 eax, DWORD PTR [esi]
  0000d	8b ce		 mov	 ecx, esi
  0000f	ff 90 10 01 00
	00		 call	 DWORD PTR [eax+272]
  00015	83 f8 08	 cmp	 eax, 8
  00018	75 19		 jne	 SHORT $LN1@ToZoneEffe

; 220  : 
; 221  : 	return dynamic_cast< ioZoneEffectWeapon* >( pWeapon );

  0001a	6a 00		 push	 0
  0001c	68 00 00 00 00	 push	 OFFSET ??_R0?AVioZoneEffectWeapon@@@8
  00021	68 00 00 00 00	 push	 OFFSET ??_R0?AVioWeapon@@@8
  00026	6a 00		 push	 0
  00028	56		 push	 esi
  00029	e8 00 00 00 00	 call	 ___RTDynamicCast
  0002e	83 c4 14	 add	 esp, 20			; 00000014H
  00031	eb 02		 jmp	 SHORT $LN3@ToZoneEffe
$LN1@ToZoneEffe:

; 219  : 		return NULL;

  00033	33 c0		 xor	 eax, eax
$LN3@ToZoneEffe:
  00035	5e		 pop	 esi

; 222  : }

  00036	5d		 pop	 ebp
  00037	c3		 ret	 0
?ToZoneEffectWeapon@@YAPAVioZoneEffectWeapon@@PAVioWeapon@@@Z ENDP ; ToZoneEffectWeapon
_TEXT	ENDS
PUBLIC	?_Adopt@_Iterator_base0@std@@QAEXPBX@Z		; std::_Iterator_base0::_Adopt
; Function compile flags: /Ogsp
; File c:\program files (x86)\microsoft visual studio 10.0\vc\include\xutility
;	COMDAT ?_Adopt@_Iterator_base0@std@@QAEXPBX@Z
_TEXT	SEGMENT
___formal$ = 8						; size = 4
?_Adopt@_Iterator_base0@std@@QAEXPBX@Z PROC		; std::_Iterator_base0::_Adopt, COMDAT
; _this$ = ecx

; 49   : 		}

  00000	c2 04 00	 ret	 4
?_Adopt@_Iterator_base0@std@@QAEXPBX@Z ENDP		; std::_Iterator_base0::_Adopt
_TEXT	ENDS
PUBLIC	??0D3DXVECTOR3@@QAE@XZ				; D3DXVECTOR3::D3DXVECTOR3
; Function compile flags: /Ogsp
; File c:\program files (x86)\microsoft directx sdk (june 2010)\include\d3dx9math.h
;	COMDAT ??0D3DXVECTOR3@@QAE@XZ
_TEXT	SEGMENT
??0D3DXVECTOR3@@QAE@XZ PROC				; D3DXVECTOR3::D3DXVECTOR3, COMDAT
; _this$ = ecx

; 165  :     D3DXVECTOR3() {};

  00000	8b c1		 mov	 eax, ecx
  00002	c3		 ret	 0
??0D3DXVECTOR3@@QAE@XZ ENDP				; D3DXVECTOR3::D3DXVECTOR3
_TEXT	ENDS
PUBLIC	??0D3DXQUATERNION@@QAE@XZ			; D3DXQUATERNION::D3DXQUATERNION
; Function compile flags: /Ogsp
;	COMDAT ??0D3DXQUATERNION@@QAE@XZ
_TEXT	SEGMENT
??0D3DXQUATERNION@@QAE@XZ PROC				; D3DXQUATERNION::D3DXQUATERNION, COMDAT
; _this$ = ecx

; 429  :     D3DXQUATERNION() {}

  00000	8b c1		 mov	 eax, ecx
  00002	c3		 ret	 0
??0D3DXQUATERNION@@QAE@XZ ENDP				; D3DXQUATERNION::D3DXQUATERNION
_TEXT	ENDS
PUBLIC	?StartPreDelayAnimation@ioCircleMoveAttackSkill@@MAE_NPAVioBaseChar@@@Z ; ioCircleMoveAttackSkill::StartPreDelayAnimation
EXTRN	?StartPreDelayAnimation@ioNormalSkill@@MAE_NPAVioBaseChar@@@Z:PROC ; ioNormalSkill::StartPreDelayAnimation
; Function compile flags: /Ogsp
; File d:\lost saga for developer\youtube\tutorial\source\src\lsclient\iocirclemoveattackskill.cpp
;	COMDAT ?StartPreDelayAnimation@ioCircleMoveAttackSkill@@MAE_NPAVioBaseChar@@@Z
_TEXT	SEGMENT
_pChar$ = 8						; size = 4
?StartPreDelayAnimation@ioCircleMoveAttackSkill@@MAE_NPAVioBaseChar@@@Z PROC ; ioCircleMoveAttackSkill::StartPreDelayAnimation, COMDAT
; _this$ = ecx

; 466  : {

  00000	55		 push	 ebp
  00001	8b ec		 mov	 ebp, esp

; 467  : 	if( !ioNormalSkill::StartPreDelayAnimation( pChar ) )

  00003	ff 75 08	 push	 DWORD PTR _pChar$[ebp]
  00006	e8 00 00 00 00	 call	 ?StartPreDelayAnimation@ioNormalSkill@@MAE_NPAVioBaseChar@@@Z ; ioNormalSkill::StartPreDelayAnimation
  0000b	84 c0		 test	 al, al
  0000d	0f 95 c0	 setne	 al

; 468  : 		return false;
; 469  : 
; 470  : 	return true;
; 471  : }

  00010	5d		 pop	 ebp
  00011	c2 04 00	 ret	 4
?StartPreDelayAnimation@ioCircleMoveAttackSkill@@MAE_NPAVioBaseChar@@@Z ENDP ; ioCircleMoveAttackSkill::StartPreDelayAnimation
_TEXT	ENDS
PUBLIC	??0D3DXVECTOR3@@QAE@MMM@Z			; D3DXVECTOR3::D3DXVECTOR3
; Function compile flags: /Ogsp
; File c:\program files (x86)\microsoft directx sdk (june 2010)\include\d3dx9math.inl
;	COMDAT ??0D3DXVECTOR3@@QAE@MMM@Z
_TEXT	SEGMENT
_fx$ = 8						; size = 4
_fy$ = 12						; size = 4
_fz$ = 16						; size = 4
??0D3DXVECTOR3@@QAE@MMM@Z PROC				; D3DXVECTOR3::D3DXVECTOR3, COMDAT
; _this$ = ecx

; 303  : {

  00000	55		 push	 ebp
  00001	8b ec		 mov	 ebp, esp

; 304  :     x = fx;

  00003	f3 0f 10 45 08	 movss	 xmm0, DWORD PTR _fx$[ebp]
  00008	8b c1		 mov	 eax, ecx
  0000a	f3 0f 11 00	 movss	 DWORD PTR [eax], xmm0

; 305  :     y = fy;

  0000e	f3 0f 10 45 0c	 movss	 xmm0, DWORD PTR _fy$[ebp]
  00013	f3 0f 11 40 04	 movss	 DWORD PTR [eax+4], xmm0

; 306  :     z = fz;

  00018	f3 0f 10 45 10	 movss	 xmm0, DWORD PTR _fz$[ebp]
  0001d	f3 0f 11 40 08	 movss	 DWORD PTR [eax+8], xmm0

; 307  : }

  00022	5d		 pop	 ebp
  00023	c2 0c 00	 ret	 12			; 0000000cH
??0D3DXVECTOR3@@QAE@MMM@Z ENDP				; D3DXVECTOR3::D3DXVECTOR3
_TEXT	ENDS
PUBLIC	??YD3DXVECTOR3@@QAEAAU0@ABU0@@Z			; D3DXVECTOR3::operator+=
; Function compile flags: /Ogsp
;	COMDAT ??YD3DXVECTOR3@@QAEAAU0@ABU0@@Z
_TEXT	SEGMENT
_v$ = 8							; size = 4
??YD3DXVECTOR3@@QAEAAU0@ABU0@@Z PROC			; D3DXVECTOR3::operator+=, COMDAT
; _this$ = ecx

; 327  : {

  00000	55		 push	 ebp
  00001	8b ec		 mov	 ebp, esp
  00003	8b c1		 mov	 eax, ecx

; 328  :     x += v.x;

  00005	8b 4d 08	 mov	 ecx, DWORD PTR _v$[ebp]
  00008	f3 0f 10 01	 movss	 xmm0, DWORD PTR [ecx]
  0000c	f3 0f 10 08	 movss	 xmm1, DWORD PTR [eax]
  00010	0f 5a c0	 cvtps2pd xmm0, xmm0
  00013	0f 5a c9	 cvtps2pd xmm1, xmm1
  00016	f2 0f 58 c1	 addsd	 xmm0, xmm1

; 329  :     y += v.y;

  0001a	f3 0f 10 48 04	 movss	 xmm1, DWORD PTR [eax+4]
  0001f	66 0f 5a c0	 cvtpd2ps xmm0, xmm0
  00023	f3 0f 11 00	 movss	 DWORD PTR [eax], xmm0
  00027	f3 0f 10 41 04	 movss	 xmm0, DWORD PTR [ecx+4]
  0002c	0f 5a c0	 cvtps2pd xmm0, xmm0
  0002f	0f 5a c9	 cvtps2pd xmm1, xmm1
  00032	f2 0f 58 c1	 addsd	 xmm0, xmm1

; 330  :     z += v.z;

  00036	f3 0f 10 48 08	 movss	 xmm1, DWORD PTR [eax+8]
  0003b	66 0f 5a c0	 cvtpd2ps xmm0, xmm0
  0003f	f3 0f 11 40 04	 movss	 DWORD PTR [eax+4], xmm0
  00044	f3 0f 10 41 08	 movss	 xmm0, DWORD PTR [ecx+8]
  00049	0f 5a c0	 cvtps2pd xmm0, xmm0
  0004c	0f 5a c9	 cvtps2pd xmm1, xmm1
  0004f	f2 0f 58 c1	 addsd	 xmm0, xmm1
  00053	66 0f 5a c0	 cvtpd2ps xmm0, xmm0
  00057	f3 0f 11 40 08	 movss	 DWORD PTR [eax+8], xmm0

; 331  :     return *this;
; 332  : }

  0005c	5d		 pop	 ebp
  0005d	c2 04 00	 ret	 4
??YD3DXVECTOR3@@QAEAAU0@ABU0@@Z ENDP			; D3DXVECTOR3::operator+=
_TEXT	ENDS
PUBLIC	??XD3DXVECTOR3@@QAEAAU0@M@Z			; D3DXVECTOR3::operator*=
; Function compile flags: /Ogsp
;	COMDAT ??XD3DXVECTOR3@@QAEAAU0@M@Z
_TEXT	SEGMENT
_f$ = 8							; size = 4
??XD3DXVECTOR3@@QAEAAU0@M@Z PROC			; D3DXVECTOR3::operator*=, COMDAT
; _this$ = ecx

; 345  : {

  00000	55		 push	 ebp
  00001	8b ec		 mov	 ebp, esp

; 346  :     x *= f;

  00003	f3 0f 10 4d 08	 movss	 xmm1, DWORD PTR _f$[ebp]
  00008	8b c1		 mov	 eax, ecx
  0000a	f3 0f 10 00	 movss	 xmm0, DWORD PTR [eax]
  0000e	0f 5a c0	 cvtps2pd xmm0, xmm0
  00011	0f 5a c9	 cvtps2pd xmm1, xmm1
  00014	f2 0f 59 c1	 mulsd	 xmm0, xmm1

; 347  :     y *= f;

  00018	f3 0f 10 4d 08	 movss	 xmm1, DWORD PTR _f$[ebp]
  0001d	66 0f 5a c0	 cvtpd2ps xmm0, xmm0
  00021	f3 0f 11 00	 movss	 DWORD PTR [eax], xmm0
  00025	f3 0f 10 40 04	 movss	 xmm0, DWORD PTR [eax+4]
  0002a	0f 5a c0	 cvtps2pd xmm0, xmm0
  0002d	0f 5a c9	 cvtps2pd xmm1, xmm1
  00030	f2 0f 59 c1	 mulsd	 xmm0, xmm1

; 348  :     z *= f;

  00034	f3 0f 10 48 08	 movss	 xmm1, DWORD PTR [eax+8]
  00039	66 0f 5a c0	 cvtpd2ps xmm0, xmm0
  0003d	f3 0f 11 40 04	 movss	 DWORD PTR [eax+4], xmm0
  00042	f3 0f 10 45 08	 movss	 xmm0, DWORD PTR _f$[ebp]
  00047	0f 5a c0	 cvtps2pd xmm0, xmm0
  0004a	0f 5a c9	 cvtps2pd xmm1, xmm1
  0004d	f2 0f 59 c1	 mulsd	 xmm0, xmm1
  00051	f2 0f 5a c0	 cvtsd2ss xmm0, xmm0
  00055	f3 0f 11 40 08	 movss	 DWORD PTR [eax+8], xmm0

; 349  :     return *this;
; 350  : }

  0005a	5d		 pop	 ebp
  0005b	c2 04 00	 ret	 4
??XD3DXVECTOR3@@QAEAAU0@M@Z ENDP			; D3DXVECTOR3::operator*=
_TEXT	ENDS
PUBLIC	__mask@@NegFloat@
PUBLIC	??GD3DXVECTOR3@@QBE?AU0@XZ			; D3DXVECTOR3::operator-
;	COMDAT __mask@@NegFloat@
CONST	SEGMENT
__mask@@NegFloat@ DB 00H, 00H, 00H, 080H, 00H, 00H, 00H, 080H, 00H, 00H, 00H
	DB	080H, 00H, 00H, 00H, 080H
; Function compile flags: /Ogsp
CONST	ENDS
;	COMDAT ??GD3DXVECTOR3@@QBE?AU0@XZ
_TEXT	SEGMENT
___$ReturnUdt$ = 8					; size = 4
??GD3DXVECTOR3@@QBE?AU0@XZ PROC				; D3DXVECTOR3::operator-, COMDAT
; _this$ = ecx

; 372  : {

  00000	55		 push	 ebp
  00001	8b ec		 mov	 ebp, esp

; 373  :     return D3DXVECTOR3(-x, -y, -z);

  00003	f3 0f 10 05 00
	00 00 00	 movss	 xmm0, DWORD PTR __mask@@NegFloat@
  0000b	8b 45 08	 mov	 eax, DWORD PTR ___$ReturnUdt$[ebp]
  0000e	f3 0f 10 09	 movss	 xmm1, DWORD PTR [ecx]
  00012	0f 57 c8	 xorps	 xmm1, xmm0
  00015	f3 0f 11 08	 movss	 DWORD PTR [eax], xmm1
  00019	f3 0f 10 49 04	 movss	 xmm1, DWORD PTR [ecx+4]
  0001e	0f 57 c8	 xorps	 xmm1, xmm0
  00021	f3 0f 11 48 04	 movss	 DWORD PTR [eax+4], xmm1
  00026	f3 0f 10 49 08	 movss	 xmm1, DWORD PTR [ecx+8]
  0002b	0f 57 c8	 xorps	 xmm1, xmm0
  0002e	f3 0f 11 48 08	 movss	 DWORD PTR [eax+8], xmm1

; 374  : }

  00033	5d		 pop	 ebp
  00034	c2 04 00	 ret	 4
??GD3DXVECTOR3@@QBE?AU0@XZ ENDP				; D3DXVECTOR3::operator-
_TEXT	ENDS
PUBLIC	??HD3DXVECTOR3@@QBE?AU0@ABU0@@Z			; D3DXVECTOR3::operator+
; Function compile flags: /Ogsp
;	COMDAT ??HD3DXVECTOR3@@QBE?AU0@ABU0@@Z
_TEXT	SEGMENT
___$ReturnUdt$ = 8					; size = 4
_v$ = 12						; size = 4
??HD3DXVECTOR3@@QBE?AU0@ABU0@@Z PROC			; D3DXVECTOR3::operator+, COMDAT
; _this$ = ecx

; 380  : {

  00000	55		 push	 ebp
  00001	8b ec		 mov	 ebp, esp

; 381  :     return D3DXVECTOR3(x + v.x, y + v.y, z + v.z);

  00003	8b 55 0c	 mov	 edx, DWORD PTR _v$[ebp]
  00006	f3 0f 10 02	 movss	 xmm0, DWORD PTR [edx]
  0000a	f3 0f 10 09	 movss	 xmm1, DWORD PTR [ecx]
  0000e	8b 45 08	 mov	 eax, DWORD PTR ___$ReturnUdt$[ebp]
  00011	0f 5a c0	 cvtps2pd xmm0, xmm0
  00014	0f 5a c9	 cvtps2pd xmm1, xmm1
  00017	f2 0f 58 c1	 addsd	 xmm0, xmm1
  0001b	f3 0f 10 49 04	 movss	 xmm1, DWORD PTR [ecx+4]
  00020	66 0f 5a c0	 cvtpd2ps xmm0, xmm0
  00024	f3 0f 11 00	 movss	 DWORD PTR [eax], xmm0
  00028	f3 0f 10 42 04	 movss	 xmm0, DWORD PTR [edx+4]
  0002d	0f 5a c0	 cvtps2pd xmm0, xmm0
  00030	0f 5a c9	 cvtps2pd xmm1, xmm1
  00033	f2 0f 58 c1	 addsd	 xmm0, xmm1
  00037	f3 0f 10 49 08	 movss	 xmm1, DWORD PTR [ecx+8]
  0003c	66 0f 5a c0	 cvtpd2ps xmm0, xmm0
  00040	f3 0f 11 40 04	 movss	 DWORD PTR [eax+4], xmm0
  00045	f3 0f 10 42 08	 movss	 xmm0, DWORD PTR [edx+8]
  0004a	0f 5a c0	 cvtps2pd xmm0, xmm0
  0004d	0f 5a c9	 cvtps2pd xmm1, xmm1
  00050	f2 0f 58 c1	 addsd	 xmm0, xmm1
  00054	66 0f 5a c0	 cvtpd2ps xmm0, xmm0
  00058	f3 0f 11 40 08	 movss	 DWORD PTR [eax+8], xmm0

; 382  : }

  0005d	5d		 pop	 ebp
  0005e	c2 08 00	 ret	 8
??HD3DXVECTOR3@@QBE?AU0@ABU0@@Z ENDP			; D3DXVECTOR3::operator+
_TEXT	ENDS
PUBLIC	??GD3DXVECTOR3@@QBE?AU0@ABU0@@Z			; D3DXVECTOR3::operator-
; Function compile flags: /Ogsp
;	COMDAT ??GD3DXVECTOR3@@QBE?AU0@ABU0@@Z
_TEXT	SEGMENT
___$ReturnUdt$ = 8					; size = 4
_v$ = 12						; size = 4
??GD3DXVECTOR3@@QBE?AU0@ABU0@@Z PROC			; D3DXVECTOR3::operator-, COMDAT
; _this$ = ecx

; 386  : {

  00000	55		 push	 ebp
  00001	8b ec		 mov	 ebp, esp

; 387  :     return D3DXVECTOR3(x - v.x, y - v.y, z - v.z);

  00003	8b 55 0c	 mov	 edx, DWORD PTR _v$[ebp]
  00006	f3 0f 10 01	 movss	 xmm0, DWORD PTR [ecx]
  0000a	f3 0f 10 0a	 movss	 xmm1, DWORD PTR [edx]
  0000e	8b 45 08	 mov	 eax, DWORD PTR ___$ReturnUdt$[ebp]
  00011	0f 5a c0	 cvtps2pd xmm0, xmm0
  00014	0f 5a c9	 cvtps2pd xmm1, xmm1
  00017	f2 0f 5c c1	 subsd	 xmm0, xmm1
  0001b	f3 0f 10 4a 04	 movss	 xmm1, DWORD PTR [edx+4]
  00020	66 0f 5a c0	 cvtpd2ps xmm0, xmm0
  00024	f3 0f 11 00	 movss	 DWORD PTR [eax], xmm0
  00028	f3 0f 10 41 04	 movss	 xmm0, DWORD PTR [ecx+4]
  0002d	0f 5a c0	 cvtps2pd xmm0, xmm0
  00030	0f 5a c9	 cvtps2pd xmm1, xmm1
  00033	f2 0f 5c c1	 subsd	 xmm0, xmm1
  00037	f3 0f 10 4a 08	 movss	 xmm1, DWORD PTR [edx+8]
  0003c	66 0f 5a c0	 cvtpd2ps xmm0, xmm0
  00040	f3 0f 11 40 04	 movss	 DWORD PTR [eax+4], xmm0
  00045	f3 0f 10 41 08	 movss	 xmm0, DWORD PTR [ecx+8]
  0004a	0f 5a c0	 cvtps2pd xmm0, xmm0
  0004d	0f 5a c9	 cvtps2pd xmm1, xmm1
  00050	f2 0f 5c c1	 subsd	 xmm0, xmm1
  00054	66 0f 5a c0	 cvtpd2ps xmm0, xmm0
  00058	f3 0f 11 40 08	 movss	 DWORD PTR [eax+8], xmm0

; 388  : }

  0005d	5d		 pop	 ebp
  0005e	c2 08 00	 ret	 8
??GD3DXVECTOR3@@QBE?AU0@ABU0@@Z ENDP			; D3DXVECTOR3::operator-
_TEXT	ENDS
PUBLIC	??DD3DXVECTOR3@@QBE?AU0@M@Z			; D3DXVECTOR3::operator*
; Function compile flags: /Ogsp
;	COMDAT ??DD3DXVECTOR3@@QBE?AU0@M@Z
_TEXT	SEGMENT
___$ReturnUdt$ = 8					; size = 4
_f$ = 12						; size = 4
??DD3DXVECTOR3@@QBE?AU0@M@Z PROC			; D3DXVECTOR3::operator*, COMDAT
; _this$ = ecx

; 392  : {

  00000	55		 push	 ebp
  00001	8b ec		 mov	 ebp, esp

; 393  :     return D3DXVECTOR3(x * f, y * f, z * f);

  00003	f3 0f 10 4d 0c	 movss	 xmm1, DWORD PTR _f$[ebp]
  00008	f3 0f 10 01	 movss	 xmm0, DWORD PTR [ecx]
  0000c	8b 45 08	 mov	 eax, DWORD PTR ___$ReturnUdt$[ebp]
  0000f	0f 5a c0	 cvtps2pd xmm0, xmm0
  00012	0f 5a c9	 cvtps2pd xmm1, xmm1
  00015	f2 0f 59 c1	 mulsd	 xmm0, xmm1
  00019	f3 0f 10 4d 0c	 movss	 xmm1, DWORD PTR _f$[ebp]
  0001e	66 0f 5a c0	 cvtpd2ps xmm0, xmm0
  00022	f3 0f 11 00	 movss	 DWORD PTR [eax], xmm0
  00026	f3 0f 10 41 04	 movss	 xmm0, DWORD PTR [ecx+4]
  0002b	0f 5a c0	 cvtps2pd xmm0, xmm0
  0002e	0f 5a c9	 cvtps2pd xmm1, xmm1
  00031	f2 0f 59 c1	 mulsd	 xmm0, xmm1
  00035	f3 0f 10 4d 0c	 movss	 xmm1, DWORD PTR _f$[ebp]
  0003a	66 0f 5a c0	 cvtpd2ps xmm0, xmm0
  0003e	f3 0f 11 40 04	 movss	 DWORD PTR [eax+4], xmm0
  00043	f3 0f 10 41 08	 movss	 xmm0, DWORD PTR [ecx+8]
  00048	0f 5a c0	 cvtps2pd xmm0, xmm0
  0004b	0f 5a c9	 cvtps2pd xmm1, xmm1
  0004e	f2 0f 59 c1	 mulsd	 xmm0, xmm1
  00052	66 0f 5a c0	 cvtpd2ps xmm0, xmm0
  00056	f3 0f 11 40 08	 movss	 DWORD PTR [eax+8], xmm0

; 394  : }

  0005b	5d		 pop	 ebp
  0005c	c2 08 00	 ret	 8
??DD3DXVECTOR3@@QBE?AU0@M@Z ENDP			; D3DXVECTOR3::operator*
_TEXT	ENDS
PUBLIC	??8D3DXVECTOR3@@QBEHABU0@@Z			; D3DXVECTOR3::operator==
; Function compile flags: /Ogsp
;	COMDAT ??8D3DXVECTOR3@@QBEHABU0@@Z
_TEXT	SEGMENT
_v$ = 8							; size = 4
??8D3DXVECTOR3@@QBEHABU0@@Z PROC			; D3DXVECTOR3::operator==, COMDAT
; _this$ = ecx

; 413  : {

  00000	55		 push	 ebp
  00001	8b ec		 mov	 ebp, esp

; 414  :     return x == v.x && y == v.y && z == v.z;

  00003	8b 55 08	 mov	 edx, DWORD PTR _v$[ebp]
  00006	f3 0f 10 01	 movss	 xmm0, DWORD PTR [ecx]
  0000a	f3 0f 10 0a	 movss	 xmm1, DWORD PTR [edx]
  0000e	0f 5a c0	 cvtps2pd xmm0, xmm0
  00011	0f 5a c9	 cvtps2pd xmm1, xmm1
  00014	66 0f 2e c1	 ucomisd xmm0, xmm1
  00018	9f		 lahf
  00019	f6 c4 44	 test	 ah, 68			; 00000044H
  0001c	7a 39		 jp	 SHORT $LN3@operator
  0001e	f3 0f 10 41 04	 movss	 xmm0, DWORD PTR [ecx+4]
  00023	f3 0f 10 4a 04	 movss	 xmm1, DWORD PTR [edx+4]
  00028	0f 5a c0	 cvtps2pd xmm0, xmm0
  0002b	0f 5a c9	 cvtps2pd xmm1, xmm1
  0002e	66 0f 2e c1	 ucomisd xmm0, xmm1
  00032	9f		 lahf
  00033	f6 c4 44	 test	 ah, 68			; 00000044H
  00036	7a 1f		 jp	 SHORT $LN3@operator
  00038	f3 0f 10 41 08	 movss	 xmm0, DWORD PTR [ecx+8]
  0003d	f3 0f 10 4a 08	 movss	 xmm1, DWORD PTR [edx+8]
  00042	0f 5a c0	 cvtps2pd xmm0, xmm0
  00045	0f 5a c9	 cvtps2pd xmm1, xmm1
  00048	66 0f 2e c1	 ucomisd xmm0, xmm1
  0004c	9f		 lahf
  0004d	f6 c4 44	 test	 ah, 68			; 00000044H
  00050	7a 05		 jp	 SHORT $LN3@operator
  00052	33 c0		 xor	 eax, eax
  00054	40		 inc	 eax
  00055	eb 02		 jmp	 SHORT $LN4@operator
$LN3@operator:
  00057	33 c0		 xor	 eax, eax
$LN4@operator:

; 415  : }

  00059	5d		 pop	 ebp
  0005a	c2 04 00	 ret	 4
??8D3DXVECTOR3@@QBEHABU0@@Z ENDP			; D3DXVECTOR3::operator==
_TEXT	ENDS
PUBLIC	??9D3DXVECTOR3@@QBEHABU0@@Z			; D3DXVECTOR3::operator!=
; Function compile flags: /Ogsp
;	COMDAT ??9D3DXVECTOR3@@QBEHABU0@@Z
_TEXT	SEGMENT
_v$ = 8							; size = 4
??9D3DXVECTOR3@@QBEHABU0@@Z PROC			; D3DXVECTOR3::operator!=, COMDAT
; _this$ = ecx

; 419  : {

  00000	55		 push	 ebp
  00001	8b ec		 mov	 ebp, esp

; 420  :     return x != v.x || y != v.y || z != v.z;

  00003	8b 55 08	 mov	 edx, DWORD PTR _v$[ebp]
  00006	f3 0f 10 01	 movss	 xmm0, DWORD PTR [ecx]
  0000a	f3 0f 10 0a	 movss	 xmm1, DWORD PTR [edx]
  0000e	0f 5a c0	 cvtps2pd xmm0, xmm0
  00011	0f 5a c9	 cvtps2pd xmm1, xmm1
  00014	66 0f 2e c1	 ucomisd xmm0, xmm1
  00018	9f		 lahf
  00019	f6 c4 44	 test	 ah, 68			; 00000044H
  0001c	7a 38		 jp	 SHORT $LN3@operator@2
  0001e	f3 0f 10 41 04	 movss	 xmm0, DWORD PTR [ecx+4]
  00023	f3 0f 10 4a 04	 movss	 xmm1, DWORD PTR [edx+4]
  00028	0f 5a c0	 cvtps2pd xmm0, xmm0
  0002b	0f 5a c9	 cvtps2pd xmm1, xmm1
  0002e	66 0f 2e c1	 ucomisd xmm0, xmm1
  00032	9f		 lahf
  00033	f6 c4 44	 test	 ah, 68			; 00000044H
  00036	7a 1e		 jp	 SHORT $LN3@operator@2
  00038	f3 0f 10 41 08	 movss	 xmm0, DWORD PTR [ecx+8]
  0003d	f3 0f 10 4a 08	 movss	 xmm1, DWORD PTR [edx+8]
  00042	0f 5a c0	 cvtps2pd xmm0, xmm0
  00045	0f 5a c9	 cvtps2pd xmm1, xmm1
  00048	66 0f 2e c1	 ucomisd xmm0, xmm1
  0004c	9f		 lahf
  0004d	f6 c4 44	 test	 ah, 68			; 00000044H
  00050	7a 04		 jp	 SHORT $LN3@operator@2
  00052	33 c0		 xor	 eax, eax
  00054	eb 03		 jmp	 SHORT $LN4@operator@2
$LN3@operator@2:
  00056	33 c0		 xor	 eax, eax
  00058	40		 inc	 eax
$LN4@operator@2:

; 421  : }

  00059	5d		 pop	 ebp
  0005a	c2 04 00	 ret	 4
??9D3DXVECTOR3@@QBEHABU0@@Z ENDP			; D3DXVECTOR3::operator!=
_TEXT	ENDS
PUBLIC	?CheckUseItemMesh@ioCircleMoveAttackSkill@@UAE_NXZ ; ioCircleMoveAttackSkill::CheckUseItemMesh
; Function compile flags: /Ogsp
; File d:\lost saga for developer\youtube\tutorial\source\src\lsclient\iocirclemoveattackskill.cpp
;	COMDAT ?CheckUseItemMesh@ioCircleMoveAttackSkill@@UAE_NXZ
_TEXT	SEGMENT
?CheckUseItemMesh@ioCircleMoveAttackSkill@@UAE_NXZ PROC	; ioCircleMoveAttackSkill::CheckUseItemMesh, COMDAT
; _this$ = ecx

; 782  : 	return m_bUseItemMesh;

  00000	8a 81 08 0f 00
	00		 mov	 al, BYTE PTR [ecx+3848]

; 783  : }

  00006	c3		 ret	 0
?CheckUseItemMesh@ioCircleMoveAttackSkill@@UAE_NXZ ENDP	; ioCircleMoveAttackSkill::CheckUseItemMesh
_TEXT	ENDS
PUBLIC	__real@00000000
PUBLIC	?CheckLanding@ioCircleMoveAttackSkill@@IAE_NPAVioBaseChar@@@Z ; ioCircleMoveAttackSkill::CheckLanding
EXTRN	?IsDownState@ioBaseChar@@QAE_NXZ:PROC		; ioBaseChar::IsDownState
EXTRN	?GetBottomHeight@ioGameEntity@@QBEMXZ:PROC	; ioGameEntity::GetBottomHeight
EXTRN	__imp_?GetLoopSec@ioFrameTimer@@QBEKXZ:PROC
EXTRN	__imp_?GetSingleton@ioFrameTimer@@SAAAV1@XZ:PROC
;	COMDAT __real@00000000
; File d:\lost saga for developer\youtube\tutorial\source\src\lsclient\iobasechar.h
CONST	SEGMENT
__real@00000000 DD 000000000r			; 0
; Function compile flags: /Ogsp
; File d:\lost saga for developer\youtube\tutorial\source\src\lsclient\iocirclemoveattackskill.cpp
CONST	ENDS
;	COMDAT ?CheckLanding@ioCircleMoveAttackSkill@@IAE_NPAVioBaseChar@@@Z
_TEXT	SEGMENT
tv95 = -8						; size = 8
$T555921 = 8						; size = 4
_fHeightGap$ = 8					; size = 4
_pChar$ = 8						; size = 4
?CheckLanding@ioCircleMoveAttackSkill@@IAE_NPAVioBaseChar@@@Z PROC ; ioCircleMoveAttackSkill::CheckLanding, COMDAT
; _this$ = ecx

; 786  : {

  00000	55		 push	 ebp
  00001	8b ec		 mov	 ebp, esp
  00003	51		 push	 ecx
  00004	51		 push	 ecx
  00005	56		 push	 esi

; 787  : 	if( !pChar )

  00006	8b 75 08	 mov	 esi, DWORD PTR _pChar$[ebp]
  00009	57		 push	 edi
  0000a	8b f9		 mov	 edi, ecx
  0000c	85 f6		 test	 esi, esi
  0000e	75 07		 jne	 SHORT $LN6@CheckLandi
$LN13@CheckLandi:

; 788  : 		return true;

  00010	b0 01		 mov	 al, 1
  00012	e9 8a 00 00 00	 jmp	 $LN7@CheckLandi
$LN6@CheckLandi:

; 789  : 
; 790  : 	DWORD dwCurTime = FRAMEGETTIME();

  00017	ff 15 00 00 00
	00		 call	 DWORD PTR __imp_?GetSingleton@ioFrameTimer@@SAAAV1@XZ
  0001d	8b c8		 mov	 ecx, eax
  0001f	ff 15 00 00 00
	00		 call	 DWORD PTR __imp_?GetLoopSec@ioFrameTimer@@QBEKXZ

; 791  : 
; 792  : 	if( m_dwActionStartTime + m_dwCheckLandingMaxTime < dwCurTime )

  00025	8b 8f 28 11 00
	00		 mov	 ecx, DWORD PTR [edi+4392]
  0002b	03 8f 24 11 00
	00		 add	 ecx, DWORD PTR [edi+4388]
  00031	3b c8		 cmp	 ecx, eax

; 793  : 	{
; 794  : 		return true;

  00033	72 db		 jb	 SHORT $LN13@CheckLandi

; 795  : 	}
; 796  : 
; 797  : 	float fHeightGap = 0.0f;
; 798  : 	if( pChar->CheckGhostState() )

  00035	80 be e4 38 00
	00 00		 cmp	 BYTE PTR [esi+14564], 0

; 799  : 		fHeightGap = pChar->GetWorldPosition().y - pChar->GetPreHeightForGhostState();

  0003c	8b 06		 mov	 eax, DWORD PTR [esi]
  0003e	8b ce		 mov	 ecx, esi
  00040	74 2a		 je	 SHORT $LN4@CheckLandi
  00042	f3 0f 10 86 e0
	38 00 00	 movss	 xmm0, DWORD PTR [esi+14560]
  0004a	f3 0f 11 45 08	 movss	 DWORD PTR $T555921[ebp], xmm0
  0004f	ff 50 70	 call	 DWORD PTR [eax+112]
  00052	f3 0f 10 40 04	 movss	 xmm0, DWORD PTR [eax+4]
  00057	f3 0f 10 4d 08	 movss	 xmm1, DWORD PTR $T555921[ebp]
  0005c	0f 5a c0	 cvtps2pd xmm0, xmm0
  0005f	0f 5a c9	 cvtps2pd xmm1, xmm1
  00062	f2 0f 5c c1	 subsd	 xmm0, xmm1
  00066	66 0f 5a c0	 cvtpd2ps xmm0, xmm0

; 800  : 	else

  0006a	eb 1b		 jmp	 SHORT $LN3@CheckLandi
$LN4@CheckLandi:

; 801  : 		fHeightGap = pChar->GetWorldPosition().y - pChar->GetBottomHeight();

  0006c	ff 50 70	 call	 DWORD PTR [eax+112]
  0006f	d9 40 04	 fld	 DWORD PTR [eax+4]
  00072	8b ce		 mov	 ecx, esi
  00074	dd 5d f8	 fstp	 QWORD PTR tv95[ebp]
  00077	e8 00 00 00 00	 call	 ?GetBottomHeight@ioGameEntity@@QBEMXZ ; ioGameEntity::GetBottomHeight
  0007c	dc 6d f8	 fsubr	 QWORD PTR tv95[ebp]
  0007f	d9 5d 08	 fstp	 DWORD PTR _fHeightGap$[ebp]
  00082	f3 0f 10 45 08	 movss	 xmm0, DWORD PTR _fHeightGap$[ebp]
$LN3@CheckLandi:

; 802  : 
; 803  : 	if( fHeightGap > 0.0f || !pChar->IsDownState() )

  00087	0f 2f 05 00 00
	00 00		 comiss	 xmm0, DWORD PTR __real@00000000
  0008e	77 0f		 ja	 SHORT $LN1@CheckLandi
  00090	8b ce		 mov	 ecx, esi
  00092	e8 00 00 00 00	 call	 ?IsDownState@ioBaseChar@@QAE_NXZ ; ioBaseChar::IsDownState
  00097	84 c0		 test	 al, al

; 806  : 	}
; 807  : 
; 808  : 	return true;

  00099	0f 85 71 ff ff
	ff		 jne	 $LN13@CheckLandi
$LN1@CheckLandi:

; 804  : 	{
; 805  : 		return false;

  0009f	32 c0		 xor	 al, al
$LN7@CheckLandi:
  000a1	5f		 pop	 edi
  000a2	5e		 pop	 esi

; 809  : }

  000a3	c9		 leave
  000a4	c2 04 00	 ret	 4
?CheckLanding@ioCircleMoveAttackSkill@@IAE_NPAVioBaseChar@@@Z ENDP ; ioCircleMoveAttackSkill::CheckLanding
_TEXT	ENDS
PUBLIC	__real@4040b33340000000
PUBLIC	__real@4205999a
PUBLIC	__real@4f800000
PUBLIC	__$ArrayPad$
PUBLIC	?ProcessMove@ioCircleMoveAttackSkill@@IAEXPAVioBaseChar@@PAVioPlayStage@@@Z ; ioCircleMoveAttackSkill::ProcessMove
EXTRN	?CheckAxisLimit@ioBaseChar@@QAE_NPAUD3DXVECTOR3@@@Z:PROC ; ioBaseChar::CheckAxisLimit
EXTRN	?ReCalculateMoveVectorByTerrain@ioPlayStage@@QAE_NPAVioBaseChar@@PAUD3DXVECTOR3@@AA_N@Z:PROC ; ioPlayStage::ReCalculateMoveVectorByTerrain
EXTRN	__imp_?VEC3_ZERO@ioMath@@2UD3DXVECTOR3@@A:BYTE
EXTRN	__imp_?GetSecPerFrame@ioFrameTimer@@QBEMXZ:PROC
EXTRN	___security_cookie:DWORD
EXTRN	@__security_check_cookie@4:PROC
;	COMDAT __real@4040b33340000000
; File c:\program files (x86)\microsoft directx sdk (june 2010)\include\d3dx9math.inl
CONST	SEGMENT
__real@4040b33340000000 DQ 04040b33340000000r	; 33.4
CONST	ENDS
;	COMDAT __real@4205999a
CONST	SEGMENT
__real@4205999a DD 04205999ar			; 33.4
CONST	ENDS
;	COMDAT __real@4f800000
CONST	SEGMENT
__real@4f800000 DD 04f800000r			; 4.29497e+009
; Function compile flags: /Ogsp
; File d:\lost saga for developer\youtube\tutorial\source\src\lsclient\iocirclemoveattackskill.cpp
CONST	ENDS
;	COMDAT ?ProcessMove@ioCircleMoveAttackSkill@@IAEXPAVioBaseChar@@PAVioPlayStage@@@Z
_TEXT	SEGMENT
tv87 = -40						; size = 4
_fTimePerSec$ = -40					; size = 4
_bCol$550981 = -33					; size = 1
tv528 = -32						; size = 4
tv513 = -32						; size = 4
tv509 = -32						; size = 4
tv505 = -32						; size = 4
_fDivideTimePerSec$550972 = -32				; size = 4
_fCurTimeGap$ = -32					; size = 4
_vPos$ = -28						; size = 12
_vTotalMove$ = -16					; size = 12
__$ArrayPad$ = -4					; size = 4
_pChar$ = 8						; size = 4
_pStage$ = 12						; size = 4
?ProcessMove@ioCircleMoveAttackSkill@@IAEXPAVioBaseChar@@PAVioPlayStage@@@Z PROC ; ioCircleMoveAttackSkill::ProcessMove, COMDAT
; _this$ = ecx

; 812  : {

  00000	55		 push	 ebp
  00001	8b ec		 mov	 ebp, esp
  00003	83 ec 28	 sub	 esp, 40			; 00000028H
  00006	a1 00 00 00 00	 mov	 eax, DWORD PTR ___security_cookie
  0000b	33 c5		 xor	 eax, ebp
  0000d	89 45 fc	 mov	 DWORD PTR __$ArrayPad$[ebp], eax
  00010	53		 push	 ebx
  00011	8b 5d 08	 mov	 ebx, DWORD PTR _pChar$[ebp]
  00014	56		 push	 esi
  00015	57		 push	 edi
  00016	8b 7d 0c	 mov	 edi, DWORD PTR _pStage$[ebp]
  00019	8b f1		 mov	 esi, ecx

; 813  : 	if( !pChar ) return;

  0001b	85 db		 test	 ebx, ebx
  0001d	0f 84 61 02 00
	00		 je	 $LN1@ProcessMov

; 814  : 	if( !pStage ) return;

  00023	85 ff		 test	 edi, edi
  00025	0f 84 59 02 00
	00		 je	 $LN1@ProcessMov

; 815  : 	if( m_fCurCharMoveSpeed == 0.0f ) return;

  0002b	f3 0f 10 86 4c
	10 00 00	 movss	 xmm0, DWORD PTR [esi+4172]
  00033	0f 2e 05 00 00
	00 00		 ucomiss xmm0, DWORD PTR __real@00000000
  0003a	9f		 lahf
  0003b	f6 c4 44	 test	 ah, 68			; 00000044H
  0003e	0f 8b 40 02 00
	00		 jnp	 $LN1@ProcessMov

; 816  : 
; 817  : 	float fTimePerSec = g_FrameTimer.GetSecPerFrame();

  00044	ff 15 00 00 00
	00		 call	 DWORD PTR __imp_?GetSingleton@ioFrameTimer@@SAAAV1@XZ
  0004a	8b c8		 mov	 ecx, eax
  0004c	ff 15 00 00 00
	00		 call	 DWORD PTR __imp_?GetSecPerFrame@ioFrameTimer@@QBEMXZ
  00052	d9 5d d8	 fstp	 DWORD PTR _fTimePerSec$[ebp]

; 818  : 
; 819  : 	bool bCurMove = false;
; 820  : 	D3DXVECTOR3 vTotalMove( 0.0f, 0.0f, 0.0f );

  00055	0f 57 ed	 xorps	 xmm5, xmm5
  00058	32 d2		 xor	 dl, dl
  0005a	f3 0f 11 6d f0	 movss	 DWORD PTR _vTotalMove$[ebp], xmm5
  0005f	f3 0f 11 6d f4	 movss	 DWORD PTR _vTotalMove$[ebp+4], xmm5
  00064	f3 0f 11 6d f8	 movss	 DWORD PTR _vTotalMove$[ebp+8], xmm5

; 821  : 
; 822  : 	float fCurTimeGap = fTimePerSec * FLOAT1000;

  00069	b8 e8 03 00 00	 mov	 eax, 1000		; 000003e8H
  0006e	89 45 e0	 mov	 DWORD PTR tv528[ebp], eax
  00071	db 45 e0	 fild	 DWORD PTR tv528[ebp]
  00074	85 c0		 test	 eax, eax
  00076	79 06		 jns	 SHORT $LN37@ProcessMov
  00078	d8 05 00 00 00
	00		 fadd	 DWORD PTR __real@4f800000
$LN37@ProcessMov:
  0007e	d8 4d d8	 fmul	 DWORD PTR _fTimePerSec$[ebp]
  00081	d9 5d e0	 fstp	 DWORD PTR _fCurTimeGap$[ebp]

; 823  : 	while( fCurTimeGap > 0.0f )

  00084	d9 ee		 fldz
  00086	d9 45 e0	 fld	 DWORD PTR _fCurTimeGap$[ebp]
  00089	df f1		 fcomip	 ST(1)
  0008b	dd d8		 fstp	 ST(0)
  0008d	0f 86 c8 01 00
	00		 jbe	 $LN2@ProcessMov

; 826  : 		fCurTimeGap -= MIN_FRAME_TIME;
; 827  : 
; 828  : 		D3DXVECTOR3 vMoveAmt = m_vCharMoveDir * m_fCurCharMoveSpeed * fDivideTimePerSec;

  00093	f3 0f 10 35 00
	00 00 00	 movss	 xmm6, DWORD PTR __real@4205999a
  0009b	f3 0f 10 65 e0	 movss	 xmm4, DWORD PTR _fCurTimeGap$[ebp]
$LL6@ProcessMov:

; 824  : 	{
; 825  : 		float fDivideTimePerSec = min( fCurTimeGap, MIN_FRAME_TIME ) * FLOAT0001;

  000a0	0f 2f f4	 comiss	 xmm6, xmm4
  000a3	76 07		 jbe	 SHORT $LN12@ProcessMov
  000a5	f3 0f 11 65 d8	 movss	 DWORD PTR tv87[ebp], xmm4
  000aa	eb 05		 jmp	 SHORT $LN13@ProcessMov
$LN12@ProcessMov:
  000ac	f3 0f 11 75 d8	 movss	 DWORD PTR tv87[ebp], xmm6
$LN13@ProcessMov:
  000b1	b8 01 00 00 00	 mov	 eax, 1
  000b6	8b c8		 mov	 ecx, eax
  000b8	b8 e8 03 00 00	 mov	 eax, 1000		; 000003e8H
  000bd	89 4d e0	 mov	 DWORD PTR tv513[ebp], ecx
  000c0	db 45 e0	 fild	 DWORD PTR tv513[ebp]
  000c3	85 c9		 test	 ecx, ecx
  000c5	79 06		 jns	 SHORT $LN38@ProcessMov
  000c7	d8 05 00 00 00
	00		 fadd	 DWORD PTR __real@4f800000
$LN38@ProcessMov:
  000cd	89 45 e0	 mov	 DWORD PTR tv509[ebp], eax
  000d0	db 45 e0	 fild	 DWORD PTR tv509[ebp]
  000d3	85 c0		 test	 eax, eax
  000d5	79 06		 jns	 SHORT $LN39@ProcessMov
  000d7	d8 05 00 00 00
	00		 fadd	 DWORD PTR __real@4f800000
$LN39@ProcessMov:
  000dd	de f9		 fdivp	 ST(1), ST(0)

; 826  : 		fCurTimeGap -= MIN_FRAME_TIME;
; 827  : 
; 828  : 		D3DXVECTOR3 vMoveAmt = m_vCharMoveDir * m_fCurCharMoveSpeed * fDivideTimePerSec;

  000df	f3 0f 10 8e 54
	10 00 00	 movss	 xmm1, DWORD PTR [esi+4180]
  000e7	0f 5a c4	 cvtps2pd xmm0, xmm4
  000ea	f2 0f 5c 05 00
	00 00 00	 subsd	 xmm0, QWORD PTR __real@4040b33340000000
  000f2	0f 5a c9	 cvtps2pd xmm1, xmm1
  000f5	0f 57 e4	 xorps	 xmm4, xmm4
  000f8	66 0f 5a e0	 cvtpd2ps xmm4, xmm0
  000fc	f3 0f 10 86 4c
	10 00 00	 movss	 xmm0, DWORD PTR [esi+4172]
  00104	0f 5a d0	 cvtps2pd xmm2, xmm0
  00107	f2 0f 59 ca	 mulsd	 xmm1, xmm2
  0010b	f3 0f 10 96 58
	10 00 00	 movss	 xmm2, DWORD PTR [esi+4184]
  00113	0f 5a d8	 cvtps2pd xmm3, xmm0
  00116	0f 5a d2	 cvtps2pd xmm2, xmm2
  00119	f2 0f 59 d3	 mulsd	 xmm2, xmm3
  0011d	f3 0f 10 9e 5c
	10 00 00	 movss	 xmm3, DWORD PTR [esi+4188]

; 829  : 		if( vMoveAmt != ioMath::VEC3_ZERO )

  00125	8b 0d 00 00 00
	00		 mov	 ecx, DWORD PTR __imp_?VEC3_ZERO@ioMath@@2UD3DXVECTOR3@@A
  0012b	0f 5a db	 cvtps2pd xmm3, xmm3
  0012e	f3 0f 10 39	 movss	 xmm7, DWORD PTR [ecx]
  00132	0f 5a c0	 cvtps2pd xmm0, xmm0
  00135	f2 0f 59 c3	 mulsd	 xmm0, xmm3
  00139	66 0f 5a c9	 cvtpd2ps xmm1, xmm1
  0013d	66 0f 5a d2	 cvtpd2ps xmm2, xmm2
  00141	66 0f 5a d8	 cvtpd2ps xmm3, xmm0
  00145	0f 57 c0	 xorps	 xmm0, xmm0
  00148	f3 0f 5a c1	 cvtss2sd xmm0, xmm1
  0014c	0f 5a ff	 cvtps2pd xmm7, xmm7
  0014f	d9 5d e0	 fstp	 DWORD PTR tv505[ebp]
  00152	d9 45 e0	 fld	 DWORD PTR tv505[ebp]
  00155	d8 4d d8	 fmul	 DWORD PTR tv87[ebp]
  00158	d9 5d e0	 fstp	 DWORD PTR _fDivideTimePerSec$550972[ebp]
  0015b	f3 0f 10 4d e0	 movss	 xmm1, DWORD PTR _fDivideTimePerSec$550972[ebp]
  00160	0f 5a c9	 cvtps2pd xmm1, xmm1
  00163	f2 0f 59 c1	 mulsd	 xmm0, xmm1
  00167	0f 57 c9	 xorps	 xmm1, xmm1
  0016a	f3 0f 5a ca	 cvtss2sd xmm1, xmm2
  0016e	f3 0f 10 55 e0	 movss	 xmm2, DWORD PTR _fDivideTimePerSec$550972[ebp]
  00173	0f 5a d2	 cvtps2pd xmm2, xmm2
  00176	f2 0f 59 ca	 mulsd	 xmm1, xmm2
  0017a	66 0f 5a c0	 cvtpd2ps xmm0, xmm0
  0017e	66 0f 5a c9	 cvtpd2ps xmm1, xmm1
  00182	0f 5a d3	 cvtps2pd xmm2, xmm3
  00185	f3 0f 10 5d e0	 movss	 xmm3, DWORD PTR _fDivideTimePerSec$550972[ebp]
  0018a	0f 5a db	 cvtps2pd xmm3, xmm3
  0018d	f2 0f 59 d3	 mulsd	 xmm2, xmm3
  00191	0f 57 db	 xorps	 xmm3, xmm3
  00194	f3 0f 5a d8	 cvtss2sd xmm3, xmm0
  00198	66 0f 2e df	 ucomisd xmm3, xmm7
  0019c	9f		 lahf
  0019d	66 0f 5a d2	 cvtpd2ps xmm2, xmm2
  001a1	f6 c4 44	 test	 ah, 68			; 00000044H
  001a4	7a 32		 jp	 SHORT $LN32@ProcessMov
  001a6	f3 0f 10 79 04	 movss	 xmm7, DWORD PTR [ecx+4]
  001ab	0f 57 db	 xorps	 xmm3, xmm3
  001ae	f3 0f 5a d9	 cvtss2sd xmm3, xmm1
  001b2	0f 5a ff	 cvtps2pd xmm7, xmm7
  001b5	66 0f 2e df	 ucomisd xmm3, xmm7
  001b9	9f		 lahf
  001ba	f6 c4 44	 test	 ah, 68			; 00000044H
  001bd	7a 19		 jp	 SHORT $LN32@ProcessMov
  001bf	f3 0f 10 79 08	 movss	 xmm7, DWORD PTR [ecx+8]
  001c4	0f 57 db	 xorps	 xmm3, xmm3
  001c7	f3 0f 5a da	 cvtss2sd xmm3, xmm2
  001cb	0f 5a ff	 cvtps2pd xmm7, xmm7
  001ce	66 0f 2e df	 ucomisd xmm3, xmm7
  001d2	9f		 lahf
  001d3	f6 c4 44	 test	 ah, 68			; 00000044H
  001d6	7b 53		 jnp	 SHORT $LN4@ProcessMov
$LN32@ProcessMov:

; 830  : 		{
; 831  : 			vTotalMove += vMoveAmt;

  001d8	f3 0f 10 5d f0	 movss	 xmm3, DWORD PTR _vTotalMove$[ebp]
  001dd	f3 0f 5a c0	 cvtss2sd xmm0, xmm0
  001e1	0f 5a db	 cvtps2pd xmm3, xmm3
  001e4	f2 0f 58 c3	 addsd	 xmm0, xmm3
  001e8	66 0f 5a c0	 cvtpd2ps xmm0, xmm0
  001ec	f3 0f 11 45 f0	 movss	 DWORD PTR _vTotalMove$[ebp], xmm0
  001f1	0f 57 c0	 xorps	 xmm0, xmm0
  001f4	f3 0f 5a c1	 cvtss2sd xmm0, xmm1
  001f8	f3 0f 10 4d f4	 movss	 xmm1, DWORD PTR _vTotalMove$[ebp+4]
  001fd	0f 5a c9	 cvtps2pd xmm1, xmm1
  00200	f2 0f 58 c1	 addsd	 xmm0, xmm1
  00204	f3 0f 10 4d f8	 movss	 xmm1, DWORD PTR _vTotalMove$[ebp+8]
  00209	66 0f 5a c0	 cvtpd2ps xmm0, xmm0
  0020d	f3 0f 11 45 f4	 movss	 DWORD PTR _vTotalMove$[ebp+4], xmm0
  00212	0f 57 c0	 xorps	 xmm0, xmm0
  00215	f3 0f 5a c2	 cvtss2sd xmm0, xmm2
  00219	0f 5a c9	 cvtps2pd xmm1, xmm1
  0021c	f2 0f 58 c1	 addsd	 xmm0, xmm1
  00220	66 0f 5a c0	 cvtpd2ps xmm0, xmm0
  00224	f3 0f 11 45 f8	 movss	 DWORD PTR _vTotalMove$[ebp+8], xmm0

; 832  : 			bCurMove = true;

  00229	b2 01		 mov	 dl, 1
$LN4@ProcessMov:

; 823  : 	while( fCurTimeGap > 0.0f )

  0022b	0f 2f e5	 comiss	 xmm4, xmm5
  0022e	0f 87 6c fe ff
	ff		 ja	 $LL6@ProcessMov

; 833  : 		}
; 834  : 	}
; 835  : 
; 836  : 	if( bCurMove )

  00234	84 d2		 test	 dl, dl
  00236	74 23		 je	 SHORT $LN2@ProcessMov

; 837  : 	{
; 838  : 		bool bCol = false;
; 839  : 		if( pStage->ReCalculateMoveVectorByTerrain( pChar, &vTotalMove, bCol ) )

  00238	8d 45 df	 lea	 eax, DWORD PTR _bCol$550981[ebp]
  0023b	50		 push	 eax
  0023c	8d 45 f0	 lea	 eax, DWORD PTR _vTotalMove$[ebp]
  0023f	50		 push	 eax
  00240	53		 push	 ebx
  00241	8b cf		 mov	 ecx, edi
  00243	c6 45 df 00	 mov	 BYTE PTR _bCol$550981[ebp], 0
  00247	e8 00 00 00 00	 call	 ?ReCalculateMoveVectorByTerrain@ioPlayStage@@QAE_NPAVioBaseChar@@PAUD3DXVECTOR3@@AA_N@Z ; ioPlayStage::ReCalculateMoveVectorByTerrain
  0024c	84 c0		 test	 al, al
  0024e	74 0b		 je	 SHORT $LN2@ProcessMov

; 840  : 		{
; 841  : 			pChar->Translate( vTotalMove );

  00250	8b 03		 mov	 eax, DWORD PTR [ebx]
  00252	8d 4d f0	 lea	 ecx, DWORD PTR _vTotalMove$[ebp]
  00255	51		 push	 ecx
  00256	8b cb		 mov	 ecx, ebx
  00258	ff 50 50	 call	 DWORD PTR [eax+80]
$LN2@ProcessMov:

; 842  : 		}
; 843  : 	}
; 844  : 
; 845  : 	D3DXVECTOR3 vPos = pChar->GetWorldPosition();

  0025b	8b 03		 mov	 eax, DWORD PTR [ebx]
  0025d	8b cb		 mov	 ecx, ebx
  0025f	ff 50 70	 call	 DWORD PTR [eax+112]
  00262	8b f0		 mov	 esi, eax
  00264	8d 7d e4	 lea	 edi, DWORD PTR _vPos$[ebp]
  00267	a5		 movsd
  00268	a5		 movsd

; 846  : 	if( pChar->CheckAxisLimit( &vPos ) )

  00269	8d 45 e4	 lea	 eax, DWORD PTR _vPos$[ebp]
  0026c	50		 push	 eax
  0026d	8b cb		 mov	 ecx, ebx
  0026f	a5		 movsd
  00270	e8 00 00 00 00	 call	 ?CheckAxisLimit@ioBaseChar@@QAE_NPAUD3DXVECTOR3@@@Z ; ioBaseChar::CheckAxisLimit
  00275	84 c0		 test	 al, al
  00277	74 0b		 je	 SHORT $LN1@ProcessMov

; 847  : 		pChar->SetWorldPosition( vPos );

  00279	8b 03		 mov	 eax, DWORD PTR [ebx]
  0027b	8d 4d e4	 lea	 ecx, DWORD PTR _vPos$[ebp]
  0027e	51		 push	 ecx
  0027f	8b cb		 mov	 ecx, ebx
  00281	ff 50 44	 call	 DWORD PTR [eax+68]
$LN1@ProcessMov:

; 848  : }

  00284	8b 4d fc	 mov	 ecx, DWORD PTR __$ArrayPad$[ebp]
  00287	5f		 pop	 edi
  00288	5e		 pop	 esi
  00289	33 cd		 xor	 ecx, ebp
  0028b	5b		 pop	 ebx
  0028c	e8 00 00 00 00	 call	 @__security_check_cookie@4
  00291	c9		 leave
  00292	c2 08 00	 ret	 8
?ProcessMove@ioCircleMoveAttackSkill@@IAEXPAVioBaseChar@@PAVioPlayStage@@@Z ENDP ; ioCircleMoveAttackSkill::ProcessMove
_TEXT	ENDS
PUBLIC	__$ArrayPad$
PUBLIC	?ApplyAttributeToWeapon@ioCircleMoveAttackSkill@@UAEXPAVioWeapon@@PAVioPlayStage@@@Z ; ioCircleMoveAttackSkill::ApplyAttributeToWeapon
EXTRN	?SetZoneValue@ioZoneEffectWeapon@@QAEX_N0@Z:PROC ; ioZoneEffectWeapon::SetZoneValue
EXTRN	?SetCollisionDir@ioZoneEffectWeapon@@QAEXAAUD3DXVECTOR3@@@Z:PROC ; ioZoneEffectWeapon::SetCollisionDir
EXTRN	__imp_??D@YA?AUD3DXVECTOR3@@ABUD3DXQUATERNION@@ABU0@@Z:PROC
EXTRN	?GetOwner@ioWeapon@@QBEPAVioBaseChar@@XZ:PROC	; ioWeapon::GetOwner
EXTRN	?ApplyAttributeToWeapon@ioSkill@@UAEXPAVioWeapon@@PAVioPlayStage@@@Z:PROC ; ioSkill::ApplyAttributeToWeapon
; Function compile flags: /Ogsp
;	COMDAT ?ApplyAttributeToWeapon@ioCircleMoveAttackSkill@@UAEXPAVioWeapon@@PAVioPlayStage@@@Z
_TEXT	SEGMENT
tv168 = -32						; size = 4
_vDir$551018 = -28					; size = 12
$T551020 = -16						; size = 12
__$ArrayPad$ = -4					; size = 4
_pWeapon$ = 8						; size = 4
_pStage$ = 12						; size = 4
?ApplyAttributeToWeapon@ioCircleMoveAttackSkill@@UAEXPAVioWeapon@@PAVioPlayStage@@@Z PROC ; ioCircleMoveAttackSkill::ApplyAttributeToWeapon, COMDAT
; _this$ = ecx

; 891  : {

  00000	55		 push	 ebp
  00001	8b ec		 mov	 ebp, esp
  00003	83 ec 20	 sub	 esp, 32			; 00000020H
  00006	a1 00 00 00 00	 mov	 eax, DWORD PTR ___security_cookie
  0000b	33 c5		 xor	 eax, ebp
  0000d	89 45 fc	 mov	 DWORD PTR __$ArrayPad$[ebp], eax
  00010	8b 45 0c	 mov	 eax, DWORD PTR _pStage$[ebp]
  00013	56		 push	 esi
  00014	8b 75 08	 mov	 esi, DWORD PTR _pWeapon$[ebp]

; 892  : 	ioSkill::ApplyAttributeToWeapon( pWeapon, pStage );

  00017	50		 push	 eax
  00018	56		 push	 esi
  00019	e8 00 00 00 00	 call	 ?ApplyAttributeToWeapon@ioSkill@@UAEXPAVioWeapon@@PAVioPlayStage@@@Z ; ioSkill::ApplyAttributeToWeapon

; 893  : 
; 894  : 	ioZoneEffectWeapon *pZone = ToZoneEffectWeapon( pWeapon );

  0001e	56		 push	 esi
  0001f	e8 00 00 00 00	 call	 ?ToZoneEffectWeapon@@YAPAVioZoneEffectWeapon@@PAVioWeapon@@@Z ; ToZoneEffectWeapon
  00024	8b f0		 mov	 esi, eax
  00026	59		 pop	 ecx

; 895  : 	if( pZone )

  00027	85 f6		 test	 esi, esi
  00029	74 62		 je	 SHORT $LN1@ApplyAttri

; 896  : 	{
; 897  : 		ioBaseChar *pChar = pZone->GetOwner();

  0002b	8b ce		 mov	 ecx, esi
  0002d	e8 00 00 00 00	 call	 ?GetOwner@ioWeapon@@QBEPAVioBaseChar@@XZ ; ioWeapon::GetOwner
  00032	8b c8		 mov	 ecx, eax

; 898  : 		if( pChar )

  00034	85 c9		 test	 ecx, ecx
  00036	74 55		 je	 SHORT $LN1@ApplyAttri

; 899  : 		{
; 900  : 			D3DXVECTOR3 vDir = pChar->GetTargetRot() * D3DXVECTOR3( 0.0f, 0.0f, -FLOAT1 );

  00038	b8 01 00 00 00	 mov	 eax, 1
  0003d	0f 57 c0	 xorps	 xmm0, xmm0
  00040	89 45 e0	 mov	 DWORD PTR tv168[ebp], eax
  00043	db 45 e0	 fild	 DWORD PTR tv168[ebp]
  00046	f3 0f 11 45 f0	 movss	 DWORD PTR $T551020[ebp], xmm0
  0004b	f3 0f 11 45 f4	 movss	 DWORD PTR $T551020[ebp+4], xmm0
  00050	85 c0		 test	 eax, eax
  00052	79 06		 jns	 SHORT $LN11@ApplyAttri
  00054	d8 05 00 00 00
	00		 fadd	 DWORD PTR __real@4f800000
$LN11@ApplyAttri:
  0005a	8d 45 f0	 lea	 eax, DWORD PTR $T551020[ebp]
  0005d	d9 e0		 fchs
  0005f	50		 push	 eax
  00060	d9 5d f8	 fstp	 DWORD PTR $T551020[ebp+8]
  00063	81 c1 a4 06 00
	00		 add	 ecx, 1700		; 000006a4H
  00069	51		 push	 ecx
  0006a	8d 45 e4	 lea	 eax, DWORD PTR _vDir$551018[ebp]
  0006d	50		 push	 eax
  0006e	ff 15 00 00 00
	00		 call	 DWORD PTR __imp_??D@YA?AUD3DXVECTOR3@@ABUD3DXQUATERNION@@ABU0@@Z
  00074	83 c4 0c	 add	 esp, 12			; 0000000cH

; 901  : 			pZone->SetCollisionDir( vDir );

  00077	8d 45 e4	 lea	 eax, DWORD PTR _vDir$551018[ebp]
  0007a	50		 push	 eax
  0007b	8b ce		 mov	 ecx, esi
  0007d	e8 00 00 00 00	 call	 ?SetCollisionDir@ioZoneEffectWeapon@@QAEXAAUD3DXVECTOR3@@@Z ; ioZoneEffectWeapon::SetCollisionDir

; 902  : 			pZone->SetZoneValue( false, true );

  00082	6a 01		 push	 1
  00084	6a 00		 push	 0
  00086	8b ce		 mov	 ecx, esi
  00088	e8 00 00 00 00	 call	 ?SetZoneValue@ioZoneEffectWeapon@@QAEX_N0@Z ; ioZoneEffectWeapon::SetZoneValue
$LN1@ApplyAttri:

; 903  : 		}
; 904  : 	}
; 905  : }

  0008d	8b 4d fc	 mov	 ecx, DWORD PTR __$ArrayPad$[ebp]
  00090	33 cd		 xor	 ecx, ebp
  00092	5e		 pop	 esi
  00093	e8 00 00 00 00	 call	 @__security_check_cookie@4
  00098	c9		 leave
  00099	c2 08 00	 ret	 8
?ApplyAttributeToWeapon@ioCircleMoveAttackSkill@@UAEXPAVioWeapon@@PAVioPlayStage@@@Z ENDP ; ioCircleMoveAttackSkill::ApplyAttributeToWeapon
_TEXT	ENDS
PUBLIC	?empty@?$vector@UWeaponInfo@@V?$allocator@UWeaponInfo@@@std@@@std@@QBE_NXZ ; std::vector<WeaponInfo,std::allocator<WeaponInfo> >::empty
; Function compile flags: /Ogsp
; File c:\program files (x86)\microsoft visual studio 10.0\vc\include\vector
;	COMDAT ?empty@?$vector@UWeaponInfo@@V?$allocator@UWeaponInfo@@@std@@@std@@QBE_NXZ
_TEXT	SEGMENT
?empty@?$vector@UWeaponInfo@@V?$allocator@UWeaponInfo@@@std@@@std@@QBE_NXZ PROC ; std::vector<WeaponInfo,std::allocator<WeaponInfo> >::empty, COMDAT
; _this$ = ecx

; 889  : 		return (this->_Myfirst == this->_Mylast);

  00000	8b 01		 mov	 eax, DWORD PTR [ecx]
  00002	2b 41 04	 sub	 eax, DWORD PTR [ecx+4]
  00005	f7 d8		 neg	 eax
  00007	1b c0		 sbb	 eax, eax
  00009	40		 inc	 eax

; 890  : 		}

  0000a	c3		 ret	 0
?empty@?$vector@UWeaponInfo@@V?$allocator@UWeaponInfo@@@std@@@std@@QBE_NXZ ENDP ; std::vector<WeaponInfo,std::allocator<WeaponInfo> >::empty
_TEXT	ENDS
PUBLIC	?_Inside@?$vector@UWeaponInfo@@V?$allocator@UWeaponInfo@@@std@@@std@@IBE_NPBUWeaponInfo@@@Z ; std::vector<WeaponInfo,std::allocator<WeaponInfo> >::_Inside
; Function compile flags: /Ogsp
;	COMDAT ?_Inside@?$vector@UWeaponInfo@@V?$allocator@UWeaponInfo@@@std@@@std@@IBE_NPBUWeaponInfo@@@Z
_TEXT	SEGMENT
__Ptr$ = 8						; size = 4
?_Inside@?$vector@UWeaponInfo@@V?$allocator@UWeaponInfo@@@std@@@std@@IBE_NPBUWeaponInfo@@@Z PROC ; std::vector<WeaponInfo,std::allocator<WeaponInfo> >::_Inside, COMDAT
; _this$ = ecx

; 1285 : 		{	// test if _Ptr points inside vector

  00000	55		 push	 ebp
  00001	8b ec		 mov	 ebp, esp

; 1286 : 		return (_Ptr < this->_Mylast && this->_Myfirst <= _Ptr);

  00003	8b 45 08	 mov	 eax, DWORD PTR __Ptr$[ebp]
  00006	3b 41 04	 cmp	 eax, DWORD PTR [ecx+4]
  00009	73 09		 jae	 SHORT $LN3@Inside
  0000b	39 01		 cmp	 DWORD PTR [ecx], eax
  0000d	77 05		 ja	 SHORT $LN3@Inside
  0000f	33 c0		 xor	 eax, eax
  00011	40		 inc	 eax
  00012	eb 02		 jmp	 SHORT $LN4@Inside
$LN3@Inside:
  00014	33 c0		 xor	 eax, eax
$LN4@Inside:

; 1287 : 		}

  00016	5d		 pop	 ebp
  00017	c2 04 00	 ret	 4
?_Inside@?$vector@UWeaponInfo@@V?$allocator@UWeaponInfo@@@std@@@std@@IBE_NPBUWeaponInfo@@@Z ENDP ; std::vector<WeaponInfo,std::allocator<WeaponInfo> >::_Inside
_TEXT	ENDS
PUBLIC	?_Orphan_range@?$vector@UWeaponInfo@@V?$allocator@UWeaponInfo@@@std@@@std@@IBEXPAUWeaponInfo@@0@Z ; std::vector<WeaponInfo,std::allocator<WeaponInfo> >::_Orphan_range
; Function compile flags: /Ogsp
;	COMDAT ?_Orphan_range@?$vector@UWeaponInfo@@V?$allocator@UWeaponInfo@@@std@@@std@@IBEXPAUWeaponInfo@@0@Z
_TEXT	SEGMENT
___formal$ = 8						; size = 4
___formal$ = 12						; size = 4
?_Orphan_range@?$vector@UWeaponInfo@@V?$allocator@UWeaponInfo@@@std@@@std@@IBEXPAUWeaponInfo@@0@Z PROC ; std::vector<WeaponInfo,std::allocator<WeaponInfo> >::_Orphan_range, COMDAT
; _this$ = ecx

; 1454 : 		}

  00000	c2 08 00	 ret	 8
?_Orphan_range@?$vector@UWeaponInfo@@V?$allocator@UWeaponInfo@@@std@@@std@@IBEXPAUWeaponInfo@@0@Z ENDP ; std::vector<WeaponInfo,std::allocator<WeaponInfo> >::_Orphan_range
_TEXT	ENDS
PUBLIC	?_Inside@?$vector@UForceInfo@@V?$allocator@UForceInfo@@@std@@@std@@IBE_NPBUForceInfo@@@Z ; std::vector<ForceInfo,std::allocator<ForceInfo> >::_Inside
; Function compile flags: /Ogsp
;	COMDAT ?_Inside@?$vector@UForceInfo@@V?$allocator@UForceInfo@@@std@@@std@@IBE_NPBUForceInfo@@@Z
_TEXT	SEGMENT
__Ptr$ = 8						; size = 4
?_Inside@?$vector@UForceInfo@@V?$allocator@UForceInfo@@@std@@@std@@IBE_NPBUForceInfo@@@Z PROC ; std::vector<ForceInfo,std::allocator<ForceInfo> >::_Inside, COMDAT
; _this$ = ecx

; 1285 : 		{	// test if _Ptr points inside vector

  00000	55		 push	 ebp
  00001	8b ec		 mov	 ebp, esp

; 1286 : 		return (_Ptr < this->_Mylast && this->_Myfirst <= _Ptr);

  00003	8b 45 08	 mov	 eax, DWORD PTR __Ptr$[ebp]
  00006	3b 41 04	 cmp	 eax, DWORD PTR [ecx+4]
  00009	73 09		 jae	 SHORT $LN3@Inside@2
  0000b	39 01		 cmp	 DWORD PTR [ecx], eax
  0000d	77 05		 ja	 SHORT $LN3@Inside@2
  0000f	33 c0		 xor	 eax, eax
  00011	40		 inc	 eax
  00012	eb 02		 jmp	 SHORT $LN4@Inside@2
$LN3@Inside@2:
  00014	33 c0		 xor	 eax, eax
$LN4@Inside@2:

; 1287 : 		}

  00016	5d		 pop	 ebp
  00017	c2 04 00	 ret	 4
?_Inside@?$vector@UForceInfo@@V?$allocator@UForceInfo@@@std@@@std@@IBE_NPBUForceInfo@@@Z ENDP ; std::vector<ForceInfo,std::allocator<ForceInfo> >::_Inside
_TEXT	ENDS
PUBLIC	?_Orphan_range@?$vector@UForceInfo@@V?$allocator@UForceInfo@@@std@@@std@@IBEXPAUForceInfo@@0@Z ; std::vector<ForceInfo,std::allocator<ForceInfo> >::_Orphan_range
; Function compile flags: /Ogsp
;	COMDAT ?_Orphan_range@?$vector@UForceInfo@@V?$allocator@UForceInfo@@@std@@@std@@IBEXPAUForceInfo@@0@Z
_TEXT	SEGMENT
___formal$ = 8						; size = 4
___formal$ = 12						; size = 4
?_Orphan_range@?$vector@UForceInfo@@V?$allocator@UForceInfo@@@std@@@std@@IBEXPAUForceInfo@@0@Z PROC ; std::vector<ForceInfo,std::allocator<ForceInfo> >::_Orphan_range, COMDAT
; _this$ = ecx

; 1454 : 		}

  00000	c2 08 00	 ret	 8
?_Orphan_range@?$vector@UForceInfo@@V?$allocator@UForceInfo@@@std@@@std@@IBEXPAUForceInfo@@0@Z ENDP ; std::vector<ForceInfo,std::allocator<ForceInfo> >::_Orphan_range
_TEXT	ENDS
PUBLIC	??D?$_Vector_const_iterator@V?$_Vector_val@UWeaponInfo@@V?$allocator@UWeaponInfo@@@std@@@std@@@std@@QBEABUWeaponInfo@@XZ ; std::_Vector_const_iterator<std::_Vector_val<WeaponInfo,std::allocator<WeaponInfo> > >::operator*
; Function compile flags: /Ogsp
;	COMDAT ??D?$_Vector_const_iterator@V?$_Vector_val@UWeaponInfo@@V?$allocator@UWeaponInfo@@@std@@@std@@@std@@QBEABUWeaponInfo@@XZ
_TEXT	SEGMENT
??D?$_Vector_const_iterator@V?$_Vector_val@UWeaponInfo@@V?$allocator@UWeaponInfo@@@std@@@std@@@std@@QBEABUWeaponInfo@@XZ PROC ; std::_Vector_const_iterator<std::_Vector_val<WeaponInfo,std::allocator<WeaponInfo> > >::operator*, COMDAT
; _this$ = ecx

; 64   :  #if _ITERATOR_DEBUG_LEVEL == 2
; 65   : 		if (this->_Getcont() == 0
; 66   : 			|| this->_Ptr == 0
; 67   : 			|| this->_Ptr < ((_Myvec *)this->_Getcont())->_Myfirst
; 68   : 			|| ((_Myvec *)this->_Getcont())->_Mylast <= this->_Ptr)
; 69   : 			{	// report error
; 70   : 			_DEBUG_ERROR("vector iterator not dereferencable");
; 71   : 			_SCL_SECURE_OUT_OF_RANGE;
; 72   : 			}
; 73   : 
; 74   :  #elif _ITERATOR_DEBUG_LEVEL == 1
; 75   : 		_SCL_SECURE_VALIDATE(this->_Getcont() != 0);
; 76   : 		_SCL_SECURE_VALIDATE_RANGE(
; 77   : 			this->_Ptr != 0
; 78   : 			&& ((_Myvec *)this->_Getcont())->_Myfirst <= this->_Ptr
; 79   : 			&& this->_Ptr < ((_Myvec *)this->_Getcont())->_Mylast);
; 80   :  #endif /* _ITERATOR_DEBUG_LEVEL */
; 81   : 
; 82   : 		__analysis_assume(this->_Ptr != 0);
; 83   : 
; 84   : 		return (*this->_Ptr);

  00000	8b 01		 mov	 eax, DWORD PTR [ecx]

; 85   : 		}

  00002	c3		 ret	 0
??D?$_Vector_const_iterator@V?$_Vector_val@UWeaponInfo@@V?$allocator@UWeaponInfo@@@std@@@std@@@std@@QBEABUWeaponInfo@@XZ ENDP ; std::_Vector_const_iterator<std::_Vector_val<WeaponInfo,std::allocator<WeaponInfo> > >::operator*
_TEXT	ENDS
PUBLIC	?D3DXVec3Length@@YAMPBUD3DXVECTOR3@@@Z		; D3DXVec3Length
; Function compile flags: /Ogsp
; File c:\program files (x86)\microsoft directx sdk (june 2010)\include\d3dx9math.inl
;	COMDAT ?D3DXVec3Length@@YAMPBUD3DXVECTOR3@@@Z
_TEXT	SEGMENT
tv169 = 8						; size = 4
tv160 = 8						; size = 4
_pV$ = 8						; size = 4
?D3DXVec3Length@@YAMPBUD3DXVECTOR3@@@Z PROC		; D3DXVec3Length, COMDAT

; 1710 : {

  00000	55		 push	 ebp
  00001	8b ec		 mov	 ebp, esp

; 1711 : #ifdef D3DX_DEBUG
; 1712 :     if(!pV)
; 1713 :         return 0.0f;
; 1714 : #endif
; 1715 : 
; 1716 : #ifdef __cplusplus
; 1717 :     return sqrtf(pV->x * pV->x + pV->y * pV->y + pV->z * pV->z);

  00003	8b 45 08	 mov	 eax, DWORD PTR _pV$[ebp]
  00006	d9 40 04	 fld	 DWORD PTR [eax+4]
  00009	d9 00		 fld	 DWORD PTR [eax]
  0000b	d9 40 08	 fld	 DWORD PTR [eax+8]
  0000e	d9 c1		 fld	 ST(1)
  00010	de ca		 fmulp	 ST(2), ST(0)
  00012	d9 c2		 fld	 ST(2)
  00014	de cb		 fmulp	 ST(3), ST(0)
  00016	d9 c9		 fxch	 ST(1)
  00018	de c2		 faddp	 ST(2), ST(0)
  0001a	d9 c0		 fld	 ST(0)
  0001c	de c9		 fmulp	 ST(1), ST(0)
  0001e	de c1		 faddp	 ST(1), ST(0)
  00020	d9 5d 08	 fstp	 DWORD PTR tv169[ebp]
  00023	d9 45 08	 fld	 DWORD PTR tv169[ebp]
  00026	e8 00 00 00 00	 call	 __CIsqrt
  0002b	d9 5d 08	 fstp	 DWORD PTR tv160[ebp]
  0002e	d9 45 08	 fld	 DWORD PTR tv160[ebp]

; 1718 : #else
; 1719 :     return (FLOAT) sqrt(pV->x * pV->x + pV->y * pV->y + pV->z * pV->z);
; 1720 : #endif
; 1721 : }

  00031	5d		 pop	 ebp
  00032	c3		 ret	 0
?D3DXVec3Length@@YAMPBUD3DXVECTOR3@@@Z ENDP		; D3DXVec3Length
_TEXT	ENDS
PUBLIC	?D3DXVec3Dot@@YAMPBUD3DXVECTOR3@@0@Z		; D3DXVec3Dot
; Function compile flags: /Ogsp
;	COMDAT ?D3DXVec3Dot@@YAMPBUD3DXVECTOR3@@0@Z
_TEXT	SEGMENT
tv188 = 8						; size = 4
_pV1$ = 8						; size = 4
_pV2$ = 12						; size = 4
?D3DXVec3Dot@@YAMPBUD3DXVECTOR3@@0@Z PROC		; D3DXVec3Dot, COMDAT

; 1736 : {

  00000	55		 push	 ebp
  00001	8b ec		 mov	 ebp, esp

; 1737 : #ifdef D3DX_DEBUG
; 1738 :     if(!pV1 || !pV2)
; 1739 :         return 0.0f;
; 1740 : #endif
; 1741 : 
; 1742 :     return pV1->x * pV2->x + pV1->y * pV2->y + pV1->z * pV2->z;

  00003	8b 45 08	 mov	 eax, DWORD PTR _pV1$[ebp]
  00006	8b 4d 0c	 mov	 ecx, DWORD PTR _pV2$[ebp]
  00009	d9 40 04	 fld	 DWORD PTR [eax+4]
  0000c	d8 49 04	 fmul	 DWORD PTR [ecx+4]
  0000f	d9 00		 fld	 DWORD PTR [eax]
  00011	d8 09		 fmul	 DWORD PTR [ecx]
  00013	de c1		 faddp	 ST(1), ST(0)
  00015	d9 40 08	 fld	 DWORD PTR [eax+8]
  00018	d8 49 08	 fmul	 DWORD PTR [ecx+8]
  0001b	de c1		 faddp	 ST(1), ST(0)
  0001d	d9 5d 08	 fstp	 DWORD PTR tv188[ebp]
  00020	d9 45 08	 fld	 DWORD PTR tv188[ebp]

; 1743 : }

  00023	5d		 pop	 ebp
  00024	c3		 ret	 0
?D3DXVec3Dot@@YAMPBUD3DXVECTOR3@@0@Z ENDP		; D3DXVec3Dot
_TEXT	ENDS
PUBLIC	?D3DXVec3Cross@@YAPAUD3DXVECTOR3@@PAU1@PBU1@1@Z	; D3DXVec3Cross
; Function compile flags: /Ogsp
;	COMDAT ?D3DXVec3Cross@@YAPAUD3DXVECTOR3@@PAU1@PBU1@1@Z
_TEXT	SEGMENT
_v$ = -12						; size = 12
_pOut$ = 8						; size = 4
_pV1$ = 12						; size = 4
_pV2$ = 16						; size = 4
?D3DXVec3Cross@@YAPAUD3DXVECTOR3@@PAU1@PBU1@1@Z PROC	; D3DXVec3Cross, COMDAT

; 1747 : {

  00000	55		 push	 ebp
  00001	8b ec		 mov	 ebp, esp
  00003	83 ec 0c	 sub	 esp, 12			; 0000000cH

; 1757 :     v.z = pV1->x * pV2->y - pV1->y * pV2->x;
; 1758 : 
; 1759 :     *pOut = v;

  00006	56		 push	 esi
  00007	57		 push	 edi

; 1748 :     D3DXVECTOR3 v;
; 1749 : 
; 1750 : #ifdef D3DX_DEBUG
; 1751 :     if(!pOut || !pV1 || !pV2)
; 1752 :         return NULL;
; 1753 : #endif
; 1754 : 
; 1755 :     v.x = pV1->y * pV2->z - pV1->z * pV2->y;

  00008	8b 45 0c	 mov	 eax, DWORD PTR _pV1$[ebp]
  0000b	f3 0f 10 40 04	 movss	 xmm0, DWORD PTR [eax+4]
  00010	f3 0f 10 50 08	 movss	 xmm2, DWORD PTR [eax+8]
  00015	8b 4d 10	 mov	 ecx, DWORD PTR _pV2$[ebp]
  00018	f3 0f 10 49 08	 movss	 xmm1, DWORD PTR [ecx+8]
  0001d	f3 0f 10 59 04	 movss	 xmm3, DWORD PTR [ecx+4]
  00022	0f 5a e8	 cvtps2pd xmm5, xmm0
  00025	0f 5a e1	 cvtps2pd xmm4, xmm1
  00028	0f 5a f2	 cvtps2pd xmm6, xmm2
  0002b	f2 0f 59 e5	 mulsd	 xmm4, xmm5

; 1756 :     v.y = pV1->z * pV2->x - pV1->x * pV2->z;

  0002f	0f 5a d2	 cvtps2pd xmm2, xmm2
  00032	0f 5a c9	 cvtps2pd xmm1, xmm1
  00035	0f 5a eb	 cvtps2pd xmm5, xmm3
  00038	f2 0f 59 ee	 mulsd	 xmm5, xmm6
  0003c	f2 0f 5c e5	 subsd	 xmm4, xmm5
  00040	f3 0f 10 28	 movss	 xmm5, DWORD PTR [eax]

; 1757 :     v.z = pV1->x * pV2->y - pV1->y * pV2->x;
; 1758 : 
; 1759 :     *pOut = v;

  00044	8b 45 08	 mov	 eax, DWORD PTR _pOut$[ebp]
  00047	66 0f 5a e4	 cvtpd2ps xmm4, xmm4
  0004b	f3 0f 11 65 f4	 movss	 DWORD PTR _v$[ebp], xmm4
  00050	f3 0f 10 21	 movss	 xmm4, DWORD PTR [ecx]
  00054	0f 5a f4	 cvtps2pd xmm6, xmm4
  00057	f2 0f 59 f2	 mulsd	 xmm6, xmm2
  0005b	0f 5a d5	 cvtps2pd xmm2, xmm5
  0005e	f2 0f 59 d1	 mulsd	 xmm2, xmm1
  00062	f2 0f 5c f2	 subsd	 xmm6, xmm2
  00066	66 0f 5a ce	 cvtpd2ps xmm1, xmm6
  0006a	f3 0f 11 4d f8	 movss	 DWORD PTR _v$[ebp+4], xmm1
  0006f	0f 5a c0	 cvtps2pd xmm0, xmm0
  00072	0f 5a d3	 cvtps2pd xmm2, xmm3
  00075	0f 5a cd	 cvtps2pd xmm1, xmm5
  00078	f2 0f 59 ca	 mulsd	 xmm1, xmm2
  0007c	8d 75 f4	 lea	 esi, DWORD PTR _v$[ebp]
  0007f	8b f8		 mov	 edi, eax
  00081	0f 5a d4	 cvtps2pd xmm2, xmm4
  00084	f2 0f 59 d0	 mulsd	 xmm2, xmm0
  00088	f2 0f 5c ca	 subsd	 xmm1, xmm2
  0008c	66 0f 5a c1	 cvtpd2ps xmm0, xmm1
  00090	f3 0f 11 45 fc	 movss	 DWORD PTR _v$[ebp+8], xmm0
  00095	a5		 movsd
  00096	a5		 movsd
  00097	a5		 movsd
  00098	5f		 pop	 edi
  00099	5e		 pop	 esi

; 1760 :     return pOut;
; 1761 : }

  0009a	c9		 leave
  0009b	c3		 ret	 0
?D3DXVec3Cross@@YAPAUD3DXVECTOR3@@PAU1@PBU1@1@Z ENDP	; D3DXVec3Cross
_TEXT	ENDS
PUBLIC	__real@3f91df46a2526c7a
PUBLIC	??$DEGtoRAD@M@@YAMM@Z				; DEGtoRAD<float>
;	COMDAT __real@3f91df46a2526c7a
; File d:\lost saga for developer\youtube\tutorial\source\src\lsclient\veryoftenusedefine.h
CONST	SEGMENT
__real@3f91df46a2526c7a DQ 03f91df46a2526c7ar	; 0.0174533
; Function compile flags: /Ogsp
CONST	ENDS
;	COMDAT ??$DEGtoRAD@M@@YAMM@Z
_TEXT	SEGMENT
tv129 = 8						; size = 4
_val$ = 8						; size = 4
??$DEGtoRAD@M@@YAMM@Z PROC				; DEGtoRAD<float>, COMDAT

; 20   : type  DEGtoRAD (type val) {return (type) (val * 0.0174532925199);}

  00000	55		 push	 ebp
  00001	8b ec		 mov	 ebp, esp
  00003	d9 45 08	 fld	 DWORD PTR _val$[ebp]
  00006	dc 0d 00 00 00
	00		 fmul	 QWORD PTR __real@3f91df46a2526c7a
  0000c	d9 5d 08	 fstp	 DWORD PTR tv129[ebp]
  0000f	d9 45 08	 fld	 DWORD PTR tv129[ebp]
  00012	5d		 pop	 ebp
  00013	c3		 ret	 0
??$DEGtoRAD@M@@YAMM@Z ENDP				; DEGtoRAD<float>
_TEXT	ENDS
PUBLIC	??$addressof@$$CBUWeaponInfo@@@std@@YAPBUWeaponInfo@@ABU1@@Z ; std::addressof<WeaponInfo const >
; Function compile flags: /Ogsp
; File c:\program files (x86)\microsoft visual studio 10.0\vc\include\xmemory
;	COMDAT ??$addressof@$$CBUWeaponInfo@@@std@@YAPBUWeaponInfo@@ABU1@@Z
_TEXT	SEGMENT
__Val$ = 8						; size = 4
??$addressof@$$CBUWeaponInfo@@@std@@YAPBUWeaponInfo@@ABU1@@Z PROC ; std::addressof<WeaponInfo const >, COMDAT

; 110  : 	{	// return address of _Val

  00000	55		 push	 ebp
  00001	8b ec		 mov	 ebp, esp

; 111  : 	return ((_Ty *) &(char&)_Val);

  00003	8b 45 08	 mov	 eax, DWORD PTR __Val$[ebp]

; 112  : 	}

  00006	5d		 pop	 ebp
  00007	c3		 ret	 0
??$addressof@$$CBUWeaponInfo@@@std@@YAPBUWeaponInfo@@ABU1@@Z ENDP ; std::addressof<WeaponInfo const >
_TEXT	ENDS
PUBLIC	??$addressof@$$CBUForceInfo@@@std@@YAPBUForceInfo@@ABU1@@Z ; std::addressof<ForceInfo const >
; Function compile flags: /Ogsp
;	COMDAT ??$addressof@$$CBUForceInfo@@@std@@YAPBUForceInfo@@ABU1@@Z
_TEXT	SEGMENT
__Val$ = 8						; size = 4
??$addressof@$$CBUForceInfo@@@std@@YAPBUForceInfo@@ABU1@@Z PROC ; std::addressof<ForceInfo const >, COMDAT

; 110  : 	{	// return address of _Val

  00000	55		 push	 ebp
  00001	8b ec		 mov	 ebp, esp

; 111  : 	return ((_Ty *) &(char&)_Val);

  00003	8b 45 08	 mov	 eax, DWORD PTR __Val$[ebp]

; 112  : 	}

  00006	5d		 pop	 ebp
  00007	c3		 ret	 0
??$addressof@$$CBUForceInfo@@@std@@YAPBUForceInfo@@ABU1@@Z ENDP ; std::addressof<ForceInfo const >
_TEXT	ENDS
PUBLIC	??$forward@ABUWeaponInfo@@@std@@YAABUWeaponInfo@@ABU1@@Z ; std::forward<WeaponInfo const &>
; Function compile flags: /Ogsp
; File c:\program files (x86)\microsoft visual studio 10.0\vc\include\utility
;	COMDAT ??$forward@ABUWeaponInfo@@@std@@YAABUWeaponInfo@@ABU1@@Z
_TEXT	SEGMENT
__Arg$ = 8						; size = 4
??$forward@ABUWeaponInfo@@@std@@YAABUWeaponInfo@@ABU1@@Z PROC ; std::forward<WeaponInfo const &>, COMDAT

; 78   : 	{	// forward _Arg, given explicitly specified type parameter

  00000	55		 push	 ebp
  00001	8b ec		 mov	 ebp, esp

; 79   : 	return ((_Ty&&)_Arg);

  00003	8b 45 08	 mov	 eax, DWORD PTR __Arg$[ebp]

; 80   : 	}

  00006	5d		 pop	 ebp
  00007	c3		 ret	 0
??$forward@ABUWeaponInfo@@@std@@YAABUWeaponInfo@@ABU1@@Z ENDP ; std::forward<WeaponInfo const &>
_TEXT	ENDS
PUBLIC	??$forward@ABUForceInfo@@@std@@YAABUForceInfo@@ABU1@@Z ; std::forward<ForceInfo const &>
; Function compile flags: /Ogsp
;	COMDAT ??$forward@ABUForceInfo@@@std@@YAABUForceInfo@@ABU1@@Z
_TEXT	SEGMENT
__Arg$ = 8						; size = 4
??$forward@ABUForceInfo@@@std@@YAABUForceInfo@@ABU1@@Z PROC ; std::forward<ForceInfo const &>, COMDAT

; 78   : 	{	// forward _Arg, given explicitly specified type parameter

  00000	55		 push	 ebp
  00001	8b ec		 mov	 ebp, esp

; 79   : 	return ((_Ty&&)_Arg);

  00003	8b 45 08	 mov	 eax, DWORD PTR __Arg$[ebp]

; 80   : 	}

  00006	5d		 pop	 ebp
  00007	c3		 ret	 0
??$forward@ABUForceInfo@@@std@@YAABUForceInfo@@ABU1@@Z ENDP ; std::forward<ForceInfo const &>
_TEXT	ENDS
PUBLIC	??$_Construct@UForceInfo@@ABU1@@std@@YAXPAUForceInfo@@ABU1@@Z ; std::_Construct<ForceInfo,ForceInfo const &>
; Function compile flags: /Ogsp
; File c:\program files (x86)\microsoft visual studio 10.0\vc\include\xmemory
;	COMDAT ??$_Construct@UForceInfo@@ABU1@@std@@YAXPAUForceInfo@@ABU1@@Z
_TEXT	SEGMENT
__Ptr$ = 8						; size = 4
__Val$ = 12						; size = 4
??$_Construct@UForceInfo@@ABU1@@std@@YAXPAUForceInfo@@ABU1@@Z PROC ; std::_Construct<ForceInfo,ForceInfo const &>, COMDAT

; 46   : 	{	// construct object at _Ptr with value _Val

  00000	55		 push	 ebp
  00001	8b ec		 mov	 ebp, esp
  00003	57		 push	 edi

; 47   : 	void _FARQ *_Vptr = _Ptr;
; 48   : 	::new (_Vptr) _Ty1(_STD forward<_Ty2>(_Val));

  00004	8b 7d 08	 mov	 edi, DWORD PTR __Ptr$[ebp]
  00007	85 ff		 test	 edi, edi
  00009	74 08		 je	 SHORT $LN3@Construct
  0000b	56		 push	 esi
  0000c	8b 75 0c	 mov	 esi, DWORD PTR __Val$[ebp]
  0000f	a5		 movsd
  00010	a5		 movsd
  00011	a5		 movsd
  00012	5e		 pop	 esi
$LN3@Construct:
  00013	5f		 pop	 edi

; 49   : 	}

  00014	5d		 pop	 ebp
  00015	c3		 ret	 0
??$_Construct@UForceInfo@@ABU1@@std@@YAXPAUForceInfo@@ABU1@@Z ENDP ; std::_Construct<ForceInfo,ForceInfo const &>
_TEXT	ENDS
PUBLIC	??$_Ptr_cat@V?$_Vector_const_iterator@V?$_Vector_val@UWeaponInfo@@V?$allocator@UWeaponInfo@@@std@@@std@@@std@@PAUWeaponInfo@@@std@@YA?AU_Nonscalar_ptr_iterator_tag@0@AAV?$_Vector_const_iterator@V?$_Vector_val@UWeaponInfo@@V?$allocator@UWeaponInfo@@@std@@@std@@@0@AAPAUWeaponInfo@@@Z ; std::_Ptr_cat<std::_Vector_const_iterator<std::_Vector_val<WeaponInfo,std::allocator<WeaponInfo> > >,WeaponInfo *>
; Function compile flags: /Ogsp
; File c:\program files (x86)\microsoft visual studio 10.0\vc\include\xutility
;	COMDAT ??$_Ptr_cat@V?$_Vector_const_iterator@V?$_Vector_val@UWeaponInfo@@V?$allocator@UWeaponInfo@@@std@@@std@@@std@@PAUWeaponInfo@@@std@@YA?AU_Nonscalar_ptr_iterator_tag@0@AAV?$_Vector_const_iterator@V?$_Vector_val@UWeaponInfo@@V?$allocator@UWeaponInfo@@@std@@@std@@@0@AAPAUWeaponInfo@@@Z
_TEXT	SEGMENT
__Cat$ = -1						; size = 1
___formal$ = 8						; size = 4
___formal$ = 12						; size = 4
??$_Ptr_cat@V?$_Vector_const_iterator@V?$_Vector_val@UWeaponInfo@@V?$allocator@UWeaponInfo@@@std@@@std@@@std@@PAUWeaponInfo@@@std@@YA?AU_Nonscalar_ptr_iterator_tag@0@AAV?$_Vector_const_iterator@V?$_Vector_val@UWeaponInfo@@V?$allocator@UWeaponInfo@@@std@@@std@@@0@AAPAUWeaponInfo@@@Z PROC ; std::_Ptr_cat<std::_Vector_const_iterator<std::_Vector_val<WeaponInfo,std::allocator<WeaponInfo> > >,WeaponInfo *>, COMDAT

; 485  : 	{	// return pointer category from arbitrary arguments

  00000	55		 push	 ebp
  00001	8b ec		 mov	 ebp, esp
  00003	51		 push	 ecx

; 486  : 	_Nonscalar_ptr_iterator_tag _Cat;
; 487  : 	return (_Cat);

  00004	8a 45 ff	 mov	 al, BYTE PTR __Cat$[ebp]

; 488  : 	}

  00007	c9		 leave
  00008	c3		 ret	 0
??$_Ptr_cat@V?$_Vector_const_iterator@V?$_Vector_val@UWeaponInfo@@V?$allocator@UWeaponInfo@@@std@@@std@@@std@@PAUWeaponInfo@@@std@@YA?AU_Nonscalar_ptr_iterator_tag@0@AAV?$_Vector_const_iterator@V?$_Vector_val@UWeaponInfo@@V?$allocator@UWeaponInfo@@@std@@@std@@@0@AAPAUWeaponInfo@@@Z ENDP ; std::_Ptr_cat<std::_Vector_const_iterator<std::_Vector_val<WeaponInfo,std::allocator<WeaponInfo> > >,WeaponInfo *>
_TEXT	ENDS
PUBLIC	??$_Val_type@PAUWeaponInfo@@@std@@YAPAUWeaponInfo@@PAU1@@Z ; std::_Val_type<WeaponInfo *>
; Function compile flags: /Ogsp
;	COMDAT ??$_Val_type@PAUWeaponInfo@@@std@@YAPAUWeaponInfo@@PAU1@@Z
_TEXT	SEGMENT
___formal$ = 8						; size = 4
??$_Val_type@PAUWeaponInfo@@@std@@YAPAUWeaponInfo@@PAU1@@Z PROC ; std::_Val_type<WeaponInfo *>, COMDAT

; 790  : 	return (0);

  00000	33 c0		 xor	 eax, eax

; 791  : 	}

  00002	c3		 ret	 0
??$_Val_type@PAUWeaponInfo@@@std@@YAPAUWeaponInfo@@PAU1@@Z ENDP ; std::_Val_type<WeaponInfo *>
_TEXT	ENDS
PUBLIC	??$_Ptr_cat@V?$_Vector_const_iterator@V?$_Vector_val@UForceInfo@@V?$allocator@UForceInfo@@@std@@@std@@@std@@PAUForceInfo@@@std@@YA?AU_Nonscalar_ptr_iterator_tag@0@AAV?$_Vector_const_iterator@V?$_Vector_val@UForceInfo@@V?$allocator@UForceInfo@@@std@@@std@@@0@AAPAUForceInfo@@@Z ; std::_Ptr_cat<std::_Vector_const_iterator<std::_Vector_val<ForceInfo,std::allocator<ForceInfo> > >,ForceInfo *>
; Function compile flags: /Ogsp
;	COMDAT ??$_Ptr_cat@V?$_Vector_const_iterator@V?$_Vector_val@UForceInfo@@V?$allocator@UForceInfo@@@std@@@std@@@std@@PAUForceInfo@@@std@@YA?AU_Nonscalar_ptr_iterator_tag@0@AAV?$_Vector_const_iterator@V?$_Vector_val@UForceInfo@@V?$allocator@UForceInfo@@@std@@@std@@@0@AAPAUForceInfo@@@Z
_TEXT	SEGMENT
__Cat$ = -1						; size = 1
___formal$ = 8						; size = 4
___formal$ = 12						; size = 4
??$_Ptr_cat@V?$_Vector_const_iterator@V?$_Vector_val@UForceInfo@@V?$allocator@UForceInfo@@@std@@@std@@@std@@PAUForceInfo@@@std@@YA?AU_Nonscalar_ptr_iterator_tag@0@AAV?$_Vector_const_iterator@V?$_Vector_val@UForceInfo@@V?$allocator@UForceInfo@@@std@@@std@@@0@AAPAUForceInfo@@@Z PROC ; std::_Ptr_cat<std::_Vector_const_iterator<std::_Vector_val<ForceInfo,std::allocator<ForceInfo> > >,ForceInfo *>, COMDAT

; 485  : 	{	// return pointer category from arbitrary arguments

  00000	55		 push	 ebp
  00001	8b ec		 mov	 ebp, esp
  00003	51		 push	 ecx

; 486  : 	_Nonscalar_ptr_iterator_tag _Cat;
; 487  : 	return (_Cat);

  00004	8a 45 ff	 mov	 al, BYTE PTR __Cat$[ebp]

; 488  : 	}

  00007	c9		 leave
  00008	c3		 ret	 0
??$_Ptr_cat@V?$_Vector_const_iterator@V?$_Vector_val@UForceInfo@@V?$allocator@UForceInfo@@@std@@@std@@@std@@PAUForceInfo@@@std@@YA?AU_Nonscalar_ptr_iterator_tag@0@AAV?$_Vector_const_iterator@V?$_Vector_val@UForceInfo@@V?$allocator@UForceInfo@@@std@@@std@@@0@AAPAUForceInfo@@@Z ENDP ; std::_Ptr_cat<std::_Vector_const_iterator<std::_Vector_val<ForceInfo,std::allocator<ForceInfo> > >,ForceInfo *>
_TEXT	ENDS
PUBLIC	??$_Val_type@PAUForceInfo@@@std@@YAPAUForceInfo@@PAU1@@Z ; std::_Val_type<ForceInfo *>
; Function compile flags: /Ogsp
;	COMDAT ??$_Val_type@PAUForceInfo@@@std@@YAPAUForceInfo@@PAU1@@Z
_TEXT	SEGMENT
___formal$ = 8						; size = 4
??$_Val_type@PAUForceInfo@@@std@@YAPAUForceInfo@@PAU1@@Z PROC ; std::_Val_type<ForceInfo *>, COMDAT

; 790  : 	return (0);

  00000	33 c0		 xor	 eax, eax

; 791  : 	}

  00002	c3		 ret	 0
??$_Val_type@PAUForceInfo@@@std@@YAPAUForceInfo@@PAU1@@Z ENDP ; std::_Val_type<ForceInfo *>
_TEXT	ENDS
PUBLIC	??E?$_Vector_const_iterator@V?$_Vector_val@UWeaponInfo@@V?$allocator@UWeaponInfo@@@std@@@std@@@std@@QAEAAV01@XZ ; std::_Vector_const_iterator<std::_Vector_val<WeaponInfo,std::allocator<WeaponInfo> > >::operator++
; Function compile flags: /Ogsp
; File c:\program files (x86)\microsoft visual studio 10.0\vc\include\vector
;	COMDAT ??E?$_Vector_const_iterator@V?$_Vector_val@UWeaponInfo@@V?$allocator@UWeaponInfo@@@std@@@std@@@std@@QAEAAV01@XZ
_TEXT	SEGMENT
??E?$_Vector_const_iterator@V?$_Vector_val@UWeaponInfo@@V?$allocator@UWeaponInfo@@@std@@@std@@@std@@QAEAAV01@XZ PROC ; std::_Vector_const_iterator<std::_Vector_val<WeaponInfo,std::allocator<WeaponInfo> > >::operator++, COMDAT
; _this$ = ecx

; 93   : 		{	// preincrement

  00000	8b c1		 mov	 eax, ecx

; 94   :  #if _ITERATOR_DEBUG_LEVEL == 2
; 95   : 		if (this->_Getcont() == 0
; 96   : 			|| this->_Ptr == 0
; 97   : 			|| ((_Myvec *)this->_Getcont())->_Mylast <= this->_Ptr)
; 98   : 			{	// report error
; 99   : 			_DEBUG_ERROR("vector iterator not incrementable");
; 100  : 			_SCL_SECURE_OUT_OF_RANGE;
; 101  : 			}
; 102  : 
; 103  :  #elif _ITERATOR_DEBUG_LEVEL == 1
; 104  : 		_SCL_SECURE_VALIDATE(this->_Getcont() != 0);
; 105  : 		_SCL_SECURE_VALIDATE_RANGE(
; 106  : 			this->_Ptr != 0
; 107  : 			&& this->_Ptr < ((_Myvec *)this->_Getcont())->_Mylast);
; 108  :  #endif /* _ITERATOR_DEBUG_LEVEL */
; 109  : 
; 110  : 		++this->_Ptr;

  00002	83 00 28	 add	 DWORD PTR [eax], 40	; 00000028H

; 111  : 		return (*this);
; 112  : 		}

  00005	c3		 ret	 0
??E?$_Vector_const_iterator@V?$_Vector_val@UWeaponInfo@@V?$allocator@UWeaponInfo@@@std@@@std@@@std@@QAEAAV01@XZ ENDP ; std::_Vector_const_iterator<std::_Vector_val<WeaponInfo,std::allocator<WeaponInfo> > >::operator++
_TEXT	ENDS
PUBLIC	??D?$_Vector_const_iterator@V?$_Vector_val@UForceInfo@@V?$allocator@UForceInfo@@@std@@@std@@@std@@QBEABUForceInfo@@XZ ; std::_Vector_const_iterator<std::_Vector_val<ForceInfo,std::allocator<ForceInfo> > >::operator*
; Function compile flags: /Ogsp
;	COMDAT ??D?$_Vector_const_iterator@V?$_Vector_val@UForceInfo@@V?$allocator@UForceInfo@@@std@@@std@@@std@@QBEABUForceInfo@@XZ
_TEXT	SEGMENT
??D?$_Vector_const_iterator@V?$_Vector_val@UForceInfo@@V?$allocator@UForceInfo@@@std@@@std@@@std@@QBEABUForceInfo@@XZ PROC ; std::_Vector_const_iterator<std::_Vector_val<ForceInfo,std::allocator<ForceInfo> > >::operator*, COMDAT
; _this$ = ecx

; 64   :  #if _ITERATOR_DEBUG_LEVEL == 2
; 65   : 		if (this->_Getcont() == 0
; 66   : 			|| this->_Ptr == 0
; 67   : 			|| this->_Ptr < ((_Myvec *)this->_Getcont())->_Myfirst
; 68   : 			|| ((_Myvec *)this->_Getcont())->_Mylast <= this->_Ptr)
; 69   : 			{	// report error
; 70   : 			_DEBUG_ERROR("vector iterator not dereferencable");
; 71   : 			_SCL_SECURE_OUT_OF_RANGE;
; 72   : 			}
; 73   : 
; 74   :  #elif _ITERATOR_DEBUG_LEVEL == 1
; 75   : 		_SCL_SECURE_VALIDATE(this->_Getcont() != 0);
; 76   : 		_SCL_SECURE_VALIDATE_RANGE(
; 77   : 			this->_Ptr != 0
; 78   : 			&& ((_Myvec *)this->_Getcont())->_Myfirst <= this->_Ptr
; 79   : 			&& this->_Ptr < ((_Myvec *)this->_Getcont())->_Mylast);
; 80   :  #endif /* _ITERATOR_DEBUG_LEVEL */
; 81   : 
; 82   : 		__analysis_assume(this->_Ptr != 0);
; 83   : 
; 84   : 		return (*this->_Ptr);

  00000	8b 01		 mov	 eax, DWORD PTR [ecx]

; 85   : 		}

  00002	c3		 ret	 0
??D?$_Vector_const_iterator@V?$_Vector_val@UForceInfo@@V?$allocator@UForceInfo@@@std@@@std@@@std@@QBEABUForceInfo@@XZ ENDP ; std::_Vector_const_iterator<std::_Vector_val<ForceInfo,std::allocator<ForceInfo> > >::operator*
_TEXT	ENDS
PUBLIC	??E?$_Vector_const_iterator@V?$_Vector_val@UForceInfo@@V?$allocator@UForceInfo@@@std@@@std@@@std@@QAEAAV01@XZ ; std::_Vector_const_iterator<std::_Vector_val<ForceInfo,std::allocator<ForceInfo> > >::operator++
; Function compile flags: /Ogsp
;	COMDAT ??E?$_Vector_const_iterator@V?$_Vector_val@UForceInfo@@V?$allocator@UForceInfo@@@std@@@std@@@std@@QAEAAV01@XZ
_TEXT	SEGMENT
??E?$_Vector_const_iterator@V?$_Vector_val@UForceInfo@@V?$allocator@UForceInfo@@@std@@@std@@@std@@QAEAAV01@XZ PROC ; std::_Vector_const_iterator<std::_Vector_val<ForceInfo,std::allocator<ForceInfo> > >::operator++, COMDAT
; _this$ = ecx

; 93   : 		{	// preincrement

  00000	8b c1		 mov	 eax, ecx

; 94   :  #if _ITERATOR_DEBUG_LEVEL == 2
; 95   : 		if (this->_Getcont() == 0
; 96   : 			|| this->_Ptr == 0
; 97   : 			|| ((_Myvec *)this->_Getcont())->_Mylast <= this->_Ptr)
; 98   : 			{	// report error
; 99   : 			_DEBUG_ERROR("vector iterator not incrementable");
; 100  : 			_SCL_SECURE_OUT_OF_RANGE;
; 101  : 			}
; 102  : 
; 103  :  #elif _ITERATOR_DEBUG_LEVEL == 1
; 104  : 		_SCL_SECURE_VALIDATE(this->_Getcont() != 0);
; 105  : 		_SCL_SECURE_VALIDATE_RANGE(
; 106  : 			this->_Ptr != 0
; 107  : 			&& this->_Ptr < ((_Myvec *)this->_Getcont())->_Mylast);
; 108  :  #endif /* _ITERATOR_DEBUG_LEVEL */
; 109  : 
; 110  : 		++this->_Ptr;

  00002	83 00 0c	 add	 DWORD PTR [eax], 12	; 0000000cH

; 111  : 		return (*this);
; 112  : 		}

  00005	c3		 ret	 0
??E?$_Vector_const_iterator@V?$_Vector_val@UForceInfo@@V?$allocator@UForceInfo@@@std@@@std@@@std@@QAEAAV01@XZ ENDP ; std::_Vector_const_iterator<std::_Vector_val<ForceInfo,std::allocator<ForceInfo> > >::operator++
_TEXT	ENDS
PUBLIC	??$forward@UWeaponInfo@@@std@@YA$$QAUWeaponInfo@@AAU1@@Z ; std::forward<WeaponInfo>
; Function compile flags: /Ogsp
; File c:\program files (x86)\microsoft visual studio 10.0\vc\include\utility
;	COMDAT ??$forward@UWeaponInfo@@@std@@YA$$QAUWeaponInfo@@AAU1@@Z
_TEXT	SEGMENT
__Arg$ = 8						; size = 4
??$forward@UWeaponInfo@@@std@@YA$$QAUWeaponInfo@@AAU1@@Z PROC ; std::forward<WeaponInfo>, COMDAT

; 78   : 	{	// forward _Arg, given explicitly specified type parameter

  00000	55		 push	 ebp
  00001	8b ec		 mov	 ebp, esp

; 79   : 	return ((_Ty&&)_Arg);

  00003	8b 45 08	 mov	 eax, DWORD PTR __Arg$[ebp]

; 80   : 	}

  00006	5d		 pop	 ebp
  00007	c3		 ret	 0
??$forward@UWeaponInfo@@@std@@YA$$QAUWeaponInfo@@AAU1@@Z ENDP ; std::forward<WeaponInfo>
_TEXT	ENDS
PUBLIC	??$forward@UForceInfo@@@std@@YA$$QAUForceInfo@@AAU1@@Z ; std::forward<ForceInfo>
; Function compile flags: /Ogsp
;	COMDAT ??$forward@UForceInfo@@@std@@YA$$QAUForceInfo@@AAU1@@Z
_TEXT	SEGMENT
__Arg$ = 8						; size = 4
??$forward@UForceInfo@@@std@@YA$$QAUForceInfo@@AAU1@@Z PROC ; std::forward<ForceInfo>, COMDAT

; 78   : 	{	// forward _Arg, given explicitly specified type parameter

  00000	55		 push	 ebp
  00001	8b ec		 mov	 ebp, esp

; 79   : 	return ((_Ty&&)_Arg);

  00003	8b 45 08	 mov	 eax, DWORD PTR __Arg$[ebp]

; 80   : 	}

  00006	5d		 pop	 ebp
  00007	c3		 ret	 0
??$forward@UForceInfo@@@std@@YA$$QAUForceInfo@@AAU1@@Z ENDP ; std::forward<ForceInfo>
_TEXT	ENDS
PUBLIC	?_DECSTR@@YAXPADH@Z				; _DECSTR
; Function compile flags: /Ogsp
; File d:\lost saga for developer\youtube\tutorial\source\src\lsclient\stringprotect.h
;	COMDAT ?_DECSTR@@YAXPADH@Z
_TEXT	SEGMENT
_s$ = 8							; size = 4
_l$ = 12						; size = 4
?_DECSTR@@YAXPADH@Z PROC				; _DECSTR, COMDAT

; 40   : __forceinline void _DECSTR(char* s, int l){int i=0,l4=(l-1)/4,*p=(int*)s;s[l-1]=0;for(;i<l4;++i)*(p++)^=0xEAEBECED;for(i=l4*4;i<l-1;++i)s[i]^=0xED-i%4;}

  00000	55		 push	 ebp
  00001	8b ec		 mov	 ebp, esp
  00003	8b 4d 0c	 mov	 ecx, DWORD PTR _l$[ebp]
  00006	56		 push	 esi
  00007	8b 75 08	 mov	 esi, DWORD PTR _s$[ebp]
  0000a	57		 push	 edi
  0000b	8d 79 ff	 lea	 edi, DWORD PTR [ecx-1]
  0000e	8b c7		 mov	 eax, edi
  00010	99		 cdq
  00011	83 e2 03	 and	 edx, 3
  00014	03 c2		 add	 eax, edx
  00016	c1 f8 02	 sar	 eax, 2
  00019	8b d6		 mov	 edx, esi
  0001b	c6 44 0e ff 00	 mov	 BYTE PTR [esi+ecx-1], 0
  00020	85 c0		 test	 eax, eax
  00022	7e 0e		 jle	 SHORT $LN4@DECSTR
  00024	8b c8		 mov	 ecx, eax
$LL6@DECSTR:
  00026	81 32 ed ec eb
	ea		 xor	 DWORD PTR [edx], -353637139 ; eaebecedH
  0002c	83 c2 04	 add	 edx, 4
  0002f	49		 dec	 ecx
  00030	75 f4		 jne	 SHORT $LL6@DECSTR
$LN4@DECSTR:
  00032	c1 e0 02	 shl	 eax, 2
  00035	eb 17		 jmp	 SHORT $LN14@DECSTR
$LL3@DECSTR:
  00037	8b c8		 mov	 ecx, eax
  00039	81 e1 03 00 00
	80		 and	 ecx, -2147483645	; 80000003H
  0003f	79 05		 jns	 SHORT $LN13@DECSTR
  00041	49		 dec	 ecx
  00042	83 c9 fc	 or	 ecx, -4			; fffffffcH
  00045	41		 inc	 ecx
$LN13@DECSTR:
  00046	b2 ed		 mov	 dl, -19			; ffffffedH
  00048	2a d1		 sub	 dl, cl
  0004a	30 14 30	 xor	 BYTE PTR [eax+esi], dl
  0004d	40		 inc	 eax
$LN14@DECSTR:
  0004e	3b c7		 cmp	 eax, edi
  00050	7c e5		 jl	 SHORT $LL3@DECSTR
  00052	5f		 pop	 edi
  00053	5e		 pop	 esi
  00054	5d		 pop	 ebp
  00055	c3		 ret	 0
?_DECSTR@@YAXPADH@Z ENDP				; _DECSTR
_TEXT	ENDS
PUBLIC	?return57@@YAIXZ				; return57
; Function compile flags: /Ogsp
; File d:\lost saga for developer\youtube\tutorial\source\src\lsclient\veryoftenusedefine.h
;	COMDAT ?return57@@YAIXZ
_TEXT	SEGMENT
?return57@@YAIXZ PROC					; return57, COMDAT

; 15   : __forceinline unsigned int return57() { __asm mov eax, 57 };

  00000	b8 39 00 00 00	 mov	 eax, 57			; 00000039H
  00005	c3		 ret	 0
?return57@@YAIXZ ENDP					; return57
_TEXT	ENDS
PUBLIC	?GetGroup@ioGameEntity@@QBEPAVioEntityGroup@@XZ	; ioGameEntity::GetGroup
; Function compile flags: /Ogsp
; File d:\lost saga for developer\youtube\tutorial\source\src\lsclient\iogameentity.h
;	COMDAT ?GetGroup@ioGameEntity@@QBEPAVioEntityGroup@@XZ
_TEXT	SEGMENT
?GetGroup@ioGameEntity@@QBEPAVioEntityGroup@@XZ PROC	; ioGameEntity::GetGroup, COMDAT
; _this$ = ecx

; 166  : 	inline ioEntityGroup* GetGroup() const { return m_pGroup; }

  00000	8b 41 04	 mov	 eax, DWORD PTR [ecx+4]
  00003	c3		 ret	 0
?GetGroup@ioGameEntity@@QBEPAVioEntityGroup@@XZ ENDP	; ioGameEntity::GetGroup
_TEXT	ENDS
PUBLIC	??0ForceInfo@@QAE@XZ				; ForceInfo::ForceInfo
; Function compile flags: /Ogsp
; File d:\lost saga for developer\youtube\tutorial\source\src\lsclient\ioattackattribute.h
;	COMDAT ??0ForceInfo@@QAE@XZ
_TEXT	SEGMENT
tv134 = -4						; size = 4
??0ForceInfo@@QAE@XZ PROC				; ForceInfo::ForceInfo, COMDAT
; _this$ = ecx

; 45   : 	ForceInfo()

  00000	55		 push	 ebp
  00001	8b ec		 mov	 ebp, esp
  00003	51		 push	 ecx

; 46   : 	{
; 47   : 		m_fForceMovePower = 0.0f;

  00004	0f 57 c0	 xorps	 xmm0, xmm0
  00007	f3 0f 11 01	 movss	 DWORD PTR [ecx], xmm0

; 48   : 		m_fForceMoveFriction = FLOAT1;

  0000b	b8 01 00 00 00	 mov	 eax, 1
  00010	89 45 fc	 mov	 DWORD PTR tv134[ebp], eax
  00013	db 45 fc	 fild	 DWORD PTR tv134[ebp]
  00016	85 c0		 test	 eax, eax
  00018	79 06		 jns	 SHORT $LN5@ForceInfo
  0001a	d8 05 00 00 00
	00		 fadd	 DWORD PTR __real@4f800000
$LN5@ForceInfo:
  00020	d9 59 04	 fstp	 DWORD PTR [ecx+4]

; 49   : 		m_fForceAngle = 0.0f;

  00023	f3 0f 11 41 08	 movss	 DWORD PTR [ecx+8], xmm0

; 50   : 	}

  00028	8b c1		 mov	 eax, ecx
  0002a	c9		 leave
  0002b	c3		 ret	 0
??0ForceInfo@@QAE@XZ ENDP				; ForceInfo::ForceInfo
_TEXT	ENDS
PUBLIC	?Init@WeaponInfo@@QAEXXZ			; WeaponInfo::Init
; Function compile flags: /Ogsp
;	COMDAT ?Init@WeaponInfo@@QAEXXZ
_TEXT	SEGMENT
?Init@WeaponInfo@@QAEXXZ PROC				; WeaponInfo::Init, COMDAT
; _this$ = ecx

; 71   : 		m_iWeaponIdx = 0;

  00000	33 c0		 xor	 eax, eax
  00002	89 01		 mov	 DWORD PTR [ecx], eax

; 72   : 		m_iResistanceIdx = 0;

  00004	89 41 04	 mov	 DWORD PTR [ecx+4], eax

; 73   : 
; 74   : 		m_dwWoundedDuration = 0;

  00007	89 41 18	 mov	 DWORD PTR [ecx+24], eax

; 75   : 		m_dwCallTime = 0;

  0000a	89 41 1c	 mov	 DWORD PTR [ecx+28], eax

; 76   : 
; 77   : 		m_bWoundedLoopAni = false;

  0000d	88 41 20	 mov	 BYTE PTR [ecx+32], al

; 78   : 
; 79   : 		m_dwDuration = 0;

  00010	89 41 24	 mov	 DWORD PTR [ecx+36], eax

; 80   : 	}

  00013	c3		 ret	 0
?Init@WeaponInfo@@QAEXXZ ENDP				; WeaponInfo::Init
_TEXT	ENDS
PUBLIC	??1WeaponInfo@@QAE@XZ				; WeaponInfo::~WeaponInfo
EXTRN	__imp_??1ioHashString@@QAE@XZ:PROC
; Function compile flags: /Ogsp
;	COMDAT ??1WeaponInfo@@QAE@XZ
_TEXT	SEGMENT
??1WeaponInfo@@QAE@XZ PROC				; WeaponInfo::~WeaponInfo, COMDAT
; _this$ = ecx
  00000	83 c1 08	 add	 ecx, 8
  00003	ff 25 00 00 00
	00		 jmp	 DWORD PTR __imp_??1ioHashString@@QAE@XZ
??1WeaponInfo@@QAE@XZ ENDP				; WeaponInfo::~WeaponInfo
_TEXT	ENDS
PUBLIC	?GetOwnerItem@ioSkill@@QBEPAVioItem@@XZ		; ioSkill::GetOwnerItem
; Function compile flags: /Ogsp
; File d:\lost saga for developer\youtube\tutorial\source\src\lsclient\ioskill.h
;	COMDAT ?GetOwnerItem@ioSkill@@QBEPAVioItem@@XZ
_TEXT	SEGMENT
?GetOwnerItem@ioSkill@@QBEPAVioItem@@XZ PROC		; ioSkill::GetOwnerItem, COMDAT
; _this$ = ecx

; 397  : 	inline ioItem *GetOwnerItem() const { return m_pOwnerItem; }

  00000	8b 81 a4 02 00
	00		 mov	 eax, DWORD PTR [ecx+676]
  00006	c3		 ret	 0
?GetOwnerItem@ioSkill@@QBEPAVioItem@@XZ ENDP		; ioSkill::GetOwnerItem
_TEXT	ENDS
PUBLIC	?GetName@ioSkill@@QBEABVioHashString@@XZ	; ioSkill::GetName
; Function compile flags: /Ogsp
;	COMDAT ?GetName@ioSkill@@QBEABVioHashString@@XZ
_TEXT	SEGMENT
?GetName@ioSkill@@QBEABVioHashString@@XZ PROC		; ioSkill::GetName, COMDAT
; _this$ = ecx

; 414  : 	inline const ioHashString& GetName() const { return m_Name; }

  00000	8d 41 24	 lea	 eax, DWORD PTR [ecx+36]
  00003	c3		 ret	 0
?GetName@ioSkill@@QBEABVioHashString@@XZ ENDP		; ioSkill::GetName
_TEXT	ENDS
PUBLIC	??_7?$CEncrypt@K@@6B@				; CEncrypt<unsigned long>::`vftable'
PUBLIC	??1?$CEncrypt@K@@UAE@XZ				; CEncrypt<unsigned long>::~CEncrypt<unsigned long>
PUBLIC	??_R4?$CEncrypt@K@@6B@				; CEncrypt<unsigned long>::`RTTI Complete Object Locator'
PUBLIC	??_R0?AV?$CEncrypt@K@@@8			; CEncrypt<unsigned long> `RTTI Type Descriptor'
PUBLIC	??_R3?$CEncrypt@K@@8				; CEncrypt<unsigned long>::`RTTI Class Hierarchy Descriptor'
PUBLIC	??_R2?$CEncrypt@K@@8				; CEncrypt<unsigned long>::`RTTI Base Class Array'
PUBLIC	??_R1A@?0A@EA@?$CEncrypt@K@@8			; CEncrypt<unsigned long>::`RTTI Base Class Descriptor at (0,-1,0,64)'
EXTRN	??1ccddaabb@@UAE@XZ:PROC			; ccddaabb::~ccddaabb
EXTRN	??_E?$CEncrypt@K@@UAEPAXI@Z:PROC		; CEncrypt<unsigned long>::`vector deleting destructor'
;	COMDAT ??_R1A@?0A@EA@?$CEncrypt@K@@8
; File d:\lost saga for developer\youtube\tutorial\source\src\lsclient\encryptvalue.h
rdata$r	SEGMENT
??_R1A@?0A@EA@?$CEncrypt@K@@8 DD FLAT:??_R0?AV?$CEncrypt@K@@@8 ; CEncrypt<unsigned long>::`RTTI Base Class Descriptor at (0,-1,0,64)'
	DD	00H
	DD	00H
	DD	0ffffffffH
	DD	00H
	DD	040H
	DD	FLAT:??_R3?$CEncrypt@K@@8
rdata$r	ENDS
;	COMDAT ??_R2?$CEncrypt@K@@8
rdata$r	SEGMENT
??_R2?$CEncrypt@K@@8 DD FLAT:??_R1A@?0A@EA@?$CEncrypt@K@@8 ; CEncrypt<unsigned long>::`RTTI Base Class Array'
rdata$r	ENDS
;	COMDAT ??_R3?$CEncrypt@K@@8
rdata$r	SEGMENT
??_R3?$CEncrypt@K@@8 DD 00H				; CEncrypt<unsigned long>::`RTTI Class Hierarchy Descriptor'
	DD	00H
	DD	01H
	DD	FLAT:??_R2?$CEncrypt@K@@8
rdata$r	ENDS
;	COMDAT ??_R0?AV?$CEncrypt@K@@@8
_DATA	SEGMENT
??_R0?AV?$CEncrypt@K@@@8 DD FLAT:??_7type_info@@6B@	; CEncrypt<unsigned long> `RTTI Type Descriptor'
	DD	00H
	DB	'.?AV?$CEncrypt@K@@', 00H
_DATA	ENDS
;	COMDAT ??_R4?$CEncrypt@K@@6B@
rdata$r	SEGMENT
??_R4?$CEncrypt@K@@6B@ DD 00H				; CEncrypt<unsigned long>::`RTTI Complete Object Locator'
	DD	00H
	DD	00H
	DD	FLAT:??_R0?AV?$CEncrypt@K@@@8
	DD	FLAT:??_R3?$CEncrypt@K@@8
rdata$r	ENDS
;	COMDAT ??_7?$CEncrypt@K@@6B@
CONST	SEGMENT
??_7?$CEncrypt@K@@6B@ DD FLAT:??_R4?$CEncrypt@K@@6B@	; CEncrypt<unsigned long>::`vftable'
	DD	FLAT:??_E?$CEncrypt@K@@UAEPAXI@Z
; Function compile flags: /Ogsp
CONST	ENDS
;	COMDAT ??1?$CEncrypt@K@@UAE@XZ
_TEXT	SEGMENT
??1?$CEncrypt@K@@UAE@XZ PROC				; CEncrypt<unsigned long>::~CEncrypt<unsigned long>, COMDAT
; _this$ = ecx

; 127  : 	{

  00000	c7 01 00 00 00
	00		 mov	 DWORD PTR [ecx], OFFSET ??_7?$CEncrypt@K@@6B@

; 128  : 	}

  00006	83 c1 0c	 add	 ecx, 12			; 0000000cH
  00009	e9 00 00 00 00	 jmp	 ??1ccddaabb@@UAE@XZ	; ccddaabb::~ccddaabb
??1?$CEncrypt@K@@UAE@XZ ENDP				; CEncrypt<unsigned long>::~CEncrypt<unsigned long>
_TEXT	ENDS
PUBLIC	??_7?$CEncrypt@H@@6B@				; CEncrypt<int>::`vftable'
PUBLIC	??1?$CEncrypt@H@@UAE@XZ				; CEncrypt<int>::~CEncrypt<int>
PUBLIC	??_R4?$CEncrypt@H@@6B@				; CEncrypt<int>::`RTTI Complete Object Locator'
PUBLIC	??_R0?AV?$CEncrypt@H@@@8			; CEncrypt<int> `RTTI Type Descriptor'
PUBLIC	??_R3?$CEncrypt@H@@8				; CEncrypt<int>::`RTTI Class Hierarchy Descriptor'
PUBLIC	??_R2?$CEncrypt@H@@8				; CEncrypt<int>::`RTTI Base Class Array'
PUBLIC	??_R1A@?0A@EA@?$CEncrypt@H@@8			; CEncrypt<int>::`RTTI Base Class Descriptor at (0,-1,0,64)'
EXTRN	??_E?$CEncrypt@H@@UAEPAXI@Z:PROC		; CEncrypt<int>::`vector deleting destructor'
;	COMDAT ??_R1A@?0A@EA@?$CEncrypt@H@@8
rdata$r	SEGMENT
??_R1A@?0A@EA@?$CEncrypt@H@@8 DD FLAT:??_R0?AV?$CEncrypt@H@@@8 ; CEncrypt<int>::`RTTI Base Class Descriptor at (0,-1,0,64)'
	DD	00H
	DD	00H
	DD	0ffffffffH
	DD	00H
	DD	040H
	DD	FLAT:??_R3?$CEncrypt@H@@8
rdata$r	ENDS
;	COMDAT ??_R2?$CEncrypt@H@@8
rdata$r	SEGMENT
??_R2?$CEncrypt@H@@8 DD FLAT:??_R1A@?0A@EA@?$CEncrypt@H@@8 ; CEncrypt<int>::`RTTI Base Class Array'
rdata$r	ENDS
;	COMDAT ??_R3?$CEncrypt@H@@8
rdata$r	SEGMENT
??_R3?$CEncrypt@H@@8 DD 00H				; CEncrypt<int>::`RTTI Class Hierarchy Descriptor'
	DD	00H
	DD	01H
	DD	FLAT:??_R2?$CEncrypt@H@@8
rdata$r	ENDS
;	COMDAT ??_R0?AV?$CEncrypt@H@@@8
_DATA	SEGMENT
??_R0?AV?$CEncrypt@H@@@8 DD FLAT:??_7type_info@@6B@	; CEncrypt<int> `RTTI Type Descriptor'
	DD	00H
	DB	'.?AV?$CEncrypt@H@@', 00H
_DATA	ENDS
;	COMDAT ??_R4?$CEncrypt@H@@6B@
rdata$r	SEGMENT
??_R4?$CEncrypt@H@@6B@ DD 00H				; CEncrypt<int>::`RTTI Complete Object Locator'
	DD	00H
	DD	00H
	DD	FLAT:??_R0?AV?$CEncrypt@H@@@8
	DD	FLAT:??_R3?$CEncrypt@H@@8
rdata$r	ENDS
;	COMDAT ??_7?$CEncrypt@H@@6B@
CONST	SEGMENT
??_7?$CEncrypt@H@@6B@ DD FLAT:??_R4?$CEncrypt@H@@6B@	; CEncrypt<int>::`vftable'
	DD	FLAT:??_E?$CEncrypt@H@@UAEPAXI@Z
; Function compile flags: /Ogsp
CONST	ENDS
;	COMDAT ??1?$CEncrypt@H@@UAE@XZ
_TEXT	SEGMENT
??1?$CEncrypt@H@@UAE@XZ PROC				; CEncrypt<int>::~CEncrypt<int>, COMDAT
; _this$ = ecx

; 127  : 	{

  00000	c7 01 00 00 00
	00		 mov	 DWORD PTR [ecx], OFFSET ??_7?$CEncrypt@H@@6B@

; 128  : 	}

  00006	83 c1 0c	 add	 ecx, 12			; 0000000cH
  00009	e9 00 00 00 00	 jmp	 ??1ccddaabb@@UAE@XZ	; ccddaabb::~ccddaabb
??1?$CEncrypt@H@@UAE@XZ ENDP				; CEncrypt<int>::~CEncrypt<int>
; Function compile flags: /Ogsp
_TEXT	ENDS
;	COMDAT ??_G?$CEncrypt@K@@UAEPAXI@Z
_TEXT	SEGMENT
___flags$ = 8						; size = 4
??_G?$CEncrypt@K@@UAEPAXI@Z PROC			; CEncrypt<unsigned long>::`scalar deleting destructor', COMDAT
; _this$ = ecx
  00000	55		 push	 ebp
  00001	8b ec		 mov	 ebp, esp
  00003	56		 push	 esi
  00004	8b f1		 mov	 esi, ecx
  00006	8d 4e 0c	 lea	 ecx, DWORD PTR [esi+12]
  00009	c7 06 00 00 00
	00		 mov	 DWORD PTR [esi], OFFSET ??_7?$CEncrypt@K@@6B@
  0000f	e8 00 00 00 00	 call	 ??1ccddaabb@@UAE@XZ	; ccddaabb::~ccddaabb
  00014	f6 45 08 01	 test	 BYTE PTR ___flags$[ebp], 1
  00018	74 07		 je	 SHORT $LN1@scalar@2
  0001a	56		 push	 esi
  0001b	e8 00 00 00 00	 call	 ??3@YAXPAX@Z		; operator delete
  00020	59		 pop	 ecx
$LN1@scalar@2:
  00021	8b c6		 mov	 eax, esi
  00023	5e		 pop	 esi
  00024	5d		 pop	 ebp
  00025	c2 04 00	 ret	 4
??_G?$CEncrypt@K@@UAEPAXI@Z ENDP			; CEncrypt<unsigned long>::`scalar deleting destructor'
; Function compile flags: /Ogsp
_TEXT	ENDS
;	COMDAT ??_G?$CEncrypt@H@@UAEPAXI@Z
_TEXT	SEGMENT
___flags$ = 8						; size = 4
??_G?$CEncrypt@H@@UAEPAXI@Z PROC			; CEncrypt<int>::`scalar deleting destructor', COMDAT
; _this$ = ecx
  00000	55		 push	 ebp
  00001	8b ec		 mov	 ebp, esp
  00003	56		 push	 esi
  00004	8b f1		 mov	 esi, ecx
  00006	8d 4e 0c	 lea	 ecx, DWORD PTR [esi+12]
  00009	c7 06 00 00 00
	00		 mov	 DWORD PTR [esi], OFFSET ??_7?$CEncrypt@H@@6B@
  0000f	e8 00 00 00 00	 call	 ??1ccddaabb@@UAE@XZ	; ccddaabb::~ccddaabb
  00014	f6 45 08 01	 test	 BYTE PTR ___flags$[ebp], 1
  00018	74 07		 je	 SHORT $LN1@scalar@3
  0001a	56		 push	 esi
  0001b	e8 00 00 00 00	 call	 ??3@YAXPAX@Z		; operator delete
  00020	59		 pop	 ecx
$LN1@scalar@3:
  00021	8b c6		 mov	 eax, esi
  00023	5e		 pop	 esi
  00024	5d		 pop	 ebp
  00025	c2 04 00	 ret	 4
??_G?$CEncrypt@H@@UAEPAXI@Z ENDP			; CEncrypt<int>::`scalar deleting destructor'
_TEXT	ENDS
PUBLIC	??1?$_Vector_val@UWeaponInfo@@V?$allocator@UWeaponInfo@@@std@@@std@@QAE@XZ ; std::_Vector_val<WeaponInfo,std::allocator<WeaponInfo> >::~_Vector_val<WeaponInfo,std::allocator<WeaponInfo> >
; Function compile flags: /Ogsp
; File c:\program files (x86)\microsoft visual studio 10.0\vc\include\vector
;	COMDAT ??1?$_Vector_val@UWeaponInfo@@V?$allocator@UWeaponInfo@@@std@@@std@@QAE@XZ
_TEXT	SEGMENT
??1?$_Vector_val@UWeaponInfo@@V?$allocator@UWeaponInfo@@@std@@@std@@QAE@XZ PROC ; std::_Vector_val<WeaponInfo,std::allocator<WeaponInfo> >::~_Vector_val<WeaponInfo,std::allocator<WeaponInfo> >, COMDAT
; _this$ = ecx

; 434  : 		}

  00000	c3		 ret	 0
??1?$_Vector_val@UWeaponInfo@@V?$allocator@UWeaponInfo@@@std@@@std@@QAE@XZ ENDP ; std::_Vector_val<WeaponInfo,std::allocator<WeaponInfo> >::~_Vector_val<WeaponInfo,std::allocator<WeaponInfo> >
_TEXT	ENDS
PUBLIC	??0?$allocator@UWeaponInfo@@@std@@QAE@XZ	; std::allocator<WeaponInfo>::allocator<WeaponInfo>
; Function compile flags: /Ogsp
; File c:\program files (x86)\microsoft visual studio 10.0\vc\include\xmemory
;	COMDAT ??0?$allocator@UWeaponInfo@@@std@@QAE@XZ
_TEXT	SEGMENT
??0?$allocator@UWeaponInfo@@@std@@QAE@XZ PROC		; std::allocator<WeaponInfo>::allocator<WeaponInfo>, COMDAT
; _this$ = ecx

; 161  : 	_ALLOCATOR() _THROW0()

  00000	8b c1		 mov	 eax, ecx

; 162  : 		{	// construct default allocator (do nothing)
; 163  : 		}

  00002	c3		 ret	 0
??0?$allocator@UWeaponInfo@@@std@@QAE@XZ ENDP		; std::allocator<WeaponInfo>::allocator<WeaponInfo>
_TEXT	ENDS
PUBLIC	??1?$_Vector_val@UForceInfo@@V?$allocator@UForceInfo@@@std@@@std@@QAE@XZ ; std::_Vector_val<ForceInfo,std::allocator<ForceInfo> >::~_Vector_val<ForceInfo,std::allocator<ForceInfo> >
; Function compile flags: /Ogsp
; File c:\program files (x86)\microsoft visual studio 10.0\vc\include\vector
;	COMDAT ??1?$_Vector_val@UForceInfo@@V?$allocator@UForceInfo@@@std@@@std@@QAE@XZ
_TEXT	SEGMENT
??1?$_Vector_val@UForceInfo@@V?$allocator@UForceInfo@@@std@@@std@@QAE@XZ PROC ; std::_Vector_val<ForceInfo,std::allocator<ForceInfo> >::~_Vector_val<ForceInfo,std::allocator<ForceInfo> >, COMDAT
; _this$ = ecx

; 434  : 		}

  00000	c3		 ret	 0
??1?$_Vector_val@UForceInfo@@V?$allocator@UForceInfo@@@std@@@std@@QAE@XZ ENDP ; std::_Vector_val<ForceInfo,std::allocator<ForceInfo> >::~_Vector_val<ForceInfo,std::allocator<ForceInfo> >
_TEXT	ENDS
PUBLIC	??0?$allocator@UForceInfo@@@std@@QAE@XZ		; std::allocator<ForceInfo>::allocator<ForceInfo>
; Function compile flags: /Ogsp
; File c:\program files (x86)\microsoft visual studio 10.0\vc\include\xmemory
;	COMDAT ??0?$allocator@UForceInfo@@@std@@QAE@XZ
_TEXT	SEGMENT
??0?$allocator@UForceInfo@@@std@@QAE@XZ PROC		; std::allocator<ForceInfo>::allocator<ForceInfo>, COMDAT
; _this$ = ecx

; 161  : 	_ALLOCATOR() _THROW0()

  00000	8b c1		 mov	 eax, ecx

; 162  : 		{	// construct default allocator (do nothing)
; 163  : 		}

  00002	c3		 ret	 0
??0?$allocator@UForceInfo@@@std@@QAE@XZ ENDP		; std::allocator<ForceInfo>::allocator<ForceInfo>
_TEXT	ENDS
PUBLIC	?EncryptValueToPool@?$CEncrypt@M@@AAEXPBD@Z	; CEncrypt<float>::EncryptValueToPool
EXTRN	?EncryptByte@ccddaabb@@QAEXPBDPADH@Z:PROC	; ccddaabb::EncryptByte
; Function compile flags: /Ogsp
; File d:\lost saga for developer\youtube\tutorial\source\src\lsclient\encryptvalue.h
;	COMDAT ?EncryptValueToPool@?$CEncrypt@M@@AAEXPBD@Z
_TEXT	SEGMENT
_value$ = 8						; size = 4
?EncryptValueToPool@?$CEncrypt@M@@AAEXPBD@Z PROC	; CEncrypt<float>::EncryptValueToPool, COMDAT
; _this$ = ecx

; 67   : 	{

  00000	55		 push	 ebp
  00001	8b ec		 mov	 ebp, esp

; 68   : 		m_RC5.EncryptByte( value, m_MemPool, max(m_ValueSize, DEFAULT_ENCRYPT) );

  00003	0f b7 41 06	 movzx	 eax, WORD PTR [ecx+6]
  00007	83 f8 04	 cmp	 eax, 4
  0000a	77 03		 ja	 SHORT $LN4@EncryptVal
  0000c	6a 04		 push	 4
  0000e	58		 pop	 eax
$LN4@EncryptVal:
  0000f	50		 push	 eax
  00010	8d 41 1c	 lea	 eax, DWORD PTR [ecx+28]
  00013	50		 push	 eax
  00014	ff 75 08	 push	 DWORD PTR _value$[ebp]
  00017	83 c1 0c	 add	 ecx, 12			; 0000000cH
  0001a	e8 00 00 00 00	 call	 ?EncryptByte@ccddaabb@@QAEXPBDPADH@Z ; ccddaabb::EncryptByte

; 69   : 		
; 70   : 	}

  0001f	5d		 pop	 ebp
  00020	c2 04 00	 ret	 4
?EncryptValueToPool@?$CEncrypt@M@@AAEXPBD@Z ENDP	; CEncrypt<float>::EncryptValueToPool
_TEXT	ENDS
PUBLIC	?DecryptValueToPool@?$CEncrypt@M@@QAEXPAM@Z	; CEncrypt<float>::DecryptValueToPool
EXTRN	?DecryptByte@ccddaabb@@QBEXPBDPADH@Z:PROC	; ccddaabb::DecryptByte
; Function compile flags: /Ogsp
;	COMDAT ?DecryptValueToPool@?$CEncrypt@M@@QAEXPAM@Z
_TEXT	SEGMENT
_value$ = 8						; size = 4
?DecryptValueToPool@?$CEncrypt@M@@QAEXPAM@Z PROC	; CEncrypt<float>::DecryptValueToPool, COMDAT
; _this$ = ecx

; 1648 : 	{

  00000	55		 push	 ebp
  00001	8b ec		 mov	 ebp, esp
  00003	56		 push	 esi

; 1649 : 		m_RC5.DecryptByte( m_MemPool, m_TempMem, 4 );

  00004	8d 71 28	 lea	 esi, DWORD PTR [ecx+40]
  00007	6a 04		 push	 4
  00009	8d 41 1c	 lea	 eax, DWORD PTR [ecx+28]
  0000c	56		 push	 esi
  0000d	50		 push	 eax
  0000e	83 c1 0c	 add	 ecx, 12			; 0000000cH
  00011	e8 00 00 00 00	 call	 ?DecryptByte@ccddaabb@@QBEXPBDPADH@Z ; ccddaabb::DecryptByte

; 1650 : 		*value = *((float*)m_TempMem);

  00016	d9 06		 fld	 DWORD PTR [esi]
  00018	8b 45 08	 mov	 eax, DWORD PTR _value$[ebp]
  0001b	d9 18		 fstp	 DWORD PTR [eax]
  0001d	5e		 pop	 esi

; 1651 : 	}

  0001e	5d		 pop	 ebp
  0001f	c2 04 00	 ret	 4
?DecryptValueToPool@?$CEncrypt@M@@QAEXPAM@Z ENDP	; CEncrypt<float>::DecryptValueToPool
_TEXT	ENDS
PUBLIC	?EncryptValueToPool@?$CEncrypt@K@@AAEXPBD@Z	; CEncrypt<unsigned long>::EncryptValueToPool
; Function compile flags: /Ogsp
;	COMDAT ?EncryptValueToPool@?$CEncrypt@K@@AAEXPBD@Z
_TEXT	SEGMENT
_value$ = 8						; size = 4
?EncryptValueToPool@?$CEncrypt@K@@AAEXPBD@Z PROC	; CEncrypt<unsigned long>::EncryptValueToPool, COMDAT
; _this$ = ecx

; 67   : 	{

  00000	55		 push	 ebp
  00001	8b ec		 mov	 ebp, esp

; 68   : 		m_RC5.EncryptByte( value, m_MemPool, max(m_ValueSize, DEFAULT_ENCRYPT) );

  00003	0f b7 41 06	 movzx	 eax, WORD PTR [ecx+6]
  00007	83 f8 04	 cmp	 eax, 4
  0000a	77 03		 ja	 SHORT $LN4@EncryptVal@2
  0000c	6a 04		 push	 4
  0000e	58		 pop	 eax
$LN4@EncryptVal@2:
  0000f	50		 push	 eax
  00010	8d 41 1c	 lea	 eax, DWORD PTR [ecx+28]
  00013	50		 push	 eax
  00014	ff 75 08	 push	 DWORD PTR _value$[ebp]
  00017	83 c1 0c	 add	 ecx, 12			; 0000000cH
  0001a	e8 00 00 00 00	 call	 ?EncryptByte@ccddaabb@@QAEXPBDPADH@Z ; ccddaabb::EncryptByte

; 69   : 		
; 70   : 	}

  0001f	5d		 pop	 ebp
  00020	c2 04 00	 ret	 4
?EncryptValueToPool@?$CEncrypt@K@@AAEXPBD@Z ENDP	; CEncrypt<unsigned long>::EncryptValueToPool
_TEXT	ENDS
PUBLIC	?Init@?$CEncrypt@K@@AAEXXZ			; CEncrypt<unsigned long>::Init
EXTRN	?Setup@ccddaabb@@QAEXPBDHH@Z:PROC		; ccddaabb::Setup
EXTRN	__imp__rand:PROC
EXTRN	__imp__timeGetTime@0:PROC
EXTRN	__imp__GetCurrentProcessId@0:PROC
; Function compile flags: /Ogsp
;	COMDAT ?Init@?$CEncrypt@K@@AAEXXZ
_TEXT	SEGMENT
_pid$ = -8						; size = 4
_tick$ = -4						; size = 4
?Init@?$CEncrypt@K@@AAEXXZ PROC				; CEncrypt<unsigned long>::Init, COMDAT
; _this$ = ecx

; 73   : 	{

  00000	55		 push	 ebp
  00001	8b ec		 mov	 ebp, esp
  00003	51		 push	 ecx
  00004	51		 push	 ecx
  00005	53		 push	 ebx
  00006	56		 push	 esi
  00007	57		 push	 edi
  00008	8b f1		 mov	 esi, ecx

; 74   : 		DWORD pid = GetCurrentProcessId();

  0000a	ff 15 00 00 00
	00		 call	 DWORD PTR __imp__GetCurrentProcessId@0
  00010	89 45 f8	 mov	 DWORD PTR _pid$[ebp], eax

; 75   : 		DWORD tick = timeGetTime();

  00013	ff 15 00 00 00
	00		 call	 DWORD PTR __imp__timeGetTime@0

; 76   : 		m_ValueSize    = sizeof(type);
; 77   : 		m_MemPoolPos   = (unsigned short)( rand()+pid+tick )%(MAX_MEM_POOL-m_ValueSize);

  00019	8b 3d 00 00 00
	00		 mov	 edi, DWORD PTR __imp__rand
  0001f	89 45 fc	 mov	 DWORD PTR _tick$[ebp], eax
  00022	6a 04		 push	 4
  00024	58		 pop	 eax
  00025	66 89 46 06	 mov	 WORD PTR [esi+6], ax
  00029	ff d7		 call	 edi
  0002b	03 45 f8	 add	 eax, DWORD PTR _pid$[ebp]
  0002e	0f b7 4e 06	 movzx	 ecx, WORD PTR [esi+6]
  00032	03 45 fc	 add	 eax, DWORD PTR _tick$[ebp]
  00035	6a 0c		 push	 12			; 0000000cH
  00037	0f b7 c0	 movzx	 eax, ax
  0003a	5b		 pop	 ebx
  0003b	99		 cdq
  0003c	2b d9		 sub	 ebx, ecx
  0003e	f7 fb		 idiv	 ebx
  00040	66 89 56 04	 mov	 WORD PTR [esi+4], dx

; 78   : 		m_EncryptSeed  = (char)( rand()+pid+tick )%256;

  00044	ff d7		 call	 edi
  00046	02 45 f8	 add	 al, BYTE PTR _pid$[ebp]
  00049	02 45 fc	 add	 al, BYTE PTR _tick$[ebp]
  0004c	0f be c0	 movsx	 eax, al
  0004f	25 ff 00 00 80	 and	 eax, -2147483393	; 800000ffH
  00054	79 07		 jns	 SHORT $LN8@Init
  00056	48		 dec	 eax
  00057	0d 00 ff ff ff	 or	 eax, -256		; ffffff00H
  0005c	40		 inc	 eax
$LN8@Init:
  0005d	88 46 08	 mov	 BYTE PTR [esi+8], al

; 79   : 
; 80   : 		for (int i = 0; i < MAX_MEM_POOL ; i++)

  00060	33 db		 xor	 ebx, ebx
$LL3@Init:

; 81   : 			m_MemPool[i] = (char)( rand()+pid+tick )%256; // 

  00062	ff d7		 call	 edi
  00064	02 45 f8	 add	 al, BYTE PTR _pid$[ebp]
  00067	02 45 fc	 add	 al, BYTE PTR _tick$[ebp]
  0006a	0f be c0	 movsx	 eax, al
  0006d	25 ff 00 00 80	 and	 eax, -2147483393	; 800000ffH
  00072	79 07		 jns	 SHORT $LN9@Init
  00074	48		 dec	 eax
  00075	0d 00 ff ff ff	 or	 eax, -256		; ffffff00H
  0007a	40		 inc	 eax
$LN9@Init:
  0007b	88 44 1e 1c	 mov	 BYTE PTR [esi+ebx+28], al
  0007f	43		 inc	 ebx
  00080	83 fb 0c	 cmp	 ebx, 12			; 0000000cH
  00083	7c dd		 jl	 SHORT $LL3@Init

; 82   : 
; 83   : 		//UJ 130913, : szKey  
; 84   : 		//char szKey[ccddaabb::KEY_SIZE];//="";
; 85   : 		//for (int i = 0; i < ccddaabb::KEY_SIZE  ; i++)
; 86   : 		//	szKey[i] = (char)( rand()+pid+tick )%256; // 
; 87   : 		m_RC5.Setup( NULL, pid, tick );

  00085	ff 75 fc	 push	 DWORD PTR _tick$[ebp]
  00088	8d 4e 0c	 lea	 ecx, DWORD PTR [esi+12]
  0008b	ff 75 f8	 push	 DWORD PTR _pid$[ebp]
  0008e	6a 00		 push	 0
  00090	e8 00 00 00 00	 call	 ?Setup@ccddaabb@@QAEXPBDHH@Z ; ccddaabb::Setup
  00095	5f		 pop	 edi
  00096	5e		 pop	 esi
  00097	5b		 pop	 ebx

; 88   : 
; 89   : #ifdef _NOTUSE
; 90   : 		m_value        = 0;
; 91   : 		EncryptValueToPool((char*)&m_value);
; 92   : 		Debug();
; 93   : #endif
; 94   : 	}

  00098	c9		 leave
  00099	c3		 ret	 0
?Init@?$CEncrypt@K@@AAEXXZ ENDP				; CEncrypt<unsigned long>::Init
_TEXT	ENDS
PUBLIC	?DecryptValueToPool@?$CEncrypt@K@@QAEXPAK@Z	; CEncrypt<unsigned long>::DecryptValueToPool
; Function compile flags: /Ogsp
;	COMDAT ?DecryptValueToPool@?$CEncrypt@K@@QAEXPAK@Z
_TEXT	SEGMENT
_value$ = 8						; size = 4
?DecryptValueToPool@?$CEncrypt@K@@QAEXPAK@Z PROC	; CEncrypt<unsigned long>::DecryptValueToPool, COMDAT
; _this$ = ecx

; 1256 : 	{

  00000	55		 push	 ebp
  00001	8b ec		 mov	 ebp, esp
  00003	56		 push	 esi

; 1257 : 		m_RC5.DecryptByte( m_MemPool, m_TempMem, 4 );

  00004	8d 71 28	 lea	 esi, DWORD PTR [ecx+40]
  00007	6a 04		 push	 4
  00009	8d 41 1c	 lea	 eax, DWORD PTR [ecx+28]
  0000c	56		 push	 esi
  0000d	50		 push	 eax
  0000e	83 c1 0c	 add	 ecx, 12			; 0000000cH
  00011	e8 00 00 00 00	 call	 ?DecryptByte@ccddaabb@@QBEXPBDPADH@Z ; ccddaabb::DecryptByte

; 1258 : 		*value = *((DWORD*)m_TempMem);

  00016	8b 06		 mov	 eax, DWORD PTR [esi]
  00018	8b 4d 08	 mov	 ecx, DWORD PTR _value$[ebp]
  0001b	89 01		 mov	 DWORD PTR [ecx], eax
  0001d	5e		 pop	 esi

; 1259 : 	}

  0001e	5d		 pop	 ebp
  0001f	c2 04 00	 ret	 4
?DecryptValueToPool@?$CEncrypt@K@@QAEXPAK@Z ENDP	; CEncrypt<unsigned long>::DecryptValueToPool
_TEXT	ENDS
PUBLIC	?DecryptValueToPool@?$CEncrypt@_N@@QAEXPA_N@Z	; CEncrypt<bool>::DecryptValueToPool
; Function compile flags: /Ogsp
;	COMDAT ?DecryptValueToPool@?$CEncrypt@_N@@QAEXPA_N@Z
_TEXT	SEGMENT
_value$ = 8						; size = 4
?DecryptValueToPool@?$CEncrypt@_N@@QAEXPA_N@Z PROC	; CEncrypt<bool>::DecryptValueToPool, COMDAT
; _this$ = ecx

; 219  : 	{

  00000	55		 push	 ebp
  00001	8b ec		 mov	 ebp, esp
  00003	56		 push	 esi

; 220  : 		m_RC5.DecryptByte( m_MemPool, m_TempMem, 4 );

  00004	8d 71 28	 lea	 esi, DWORD PTR [ecx+40]
  00007	6a 04		 push	 4
  00009	8d 41 1c	 lea	 eax, DWORD PTR [ecx+28]
  0000c	56		 push	 esi
  0000d	50		 push	 eax
  0000e	83 c1 0c	 add	 ecx, 12			; 0000000cH
  00011	e8 00 00 00 00	 call	 ?DecryptByte@ccddaabb@@QBEXPBDPADH@Z ; ccddaabb::DecryptByte

; 221  : 		*value = *((bool*)m_TempMem);

  00016	8a 06		 mov	 al, BYTE PTR [esi]
  00018	8b 4d 08	 mov	 ecx, DWORD PTR _value$[ebp]
  0001b	88 01		 mov	 BYTE PTR [ecx], al
  0001d	5e		 pop	 esi

; 222  : 	}

  0001e	5d		 pop	 ebp
  0001f	c2 04 00	 ret	 4
?DecryptValueToPool@?$CEncrypt@_N@@QAEXPA_N@Z ENDP	; CEncrypt<bool>::DecryptValueToPool
_TEXT	ENDS
PUBLIC	?EncryptValueToPool@?$CEncrypt@H@@AAEXPBD@Z	; CEncrypt<int>::EncryptValueToPool
; Function compile flags: /Ogsp
;	COMDAT ?EncryptValueToPool@?$CEncrypt@H@@AAEXPBD@Z
_TEXT	SEGMENT
_value$ = 8						; size = 4
?EncryptValueToPool@?$CEncrypt@H@@AAEXPBD@Z PROC	; CEncrypt<int>::EncryptValueToPool, COMDAT
; _this$ = ecx

; 67   : 	{

  00000	55		 push	 ebp
  00001	8b ec		 mov	 ebp, esp

; 68   : 		m_RC5.EncryptByte( value, m_MemPool, max(m_ValueSize, DEFAULT_ENCRYPT) );

  00003	0f b7 41 06	 movzx	 eax, WORD PTR [ecx+6]
  00007	83 f8 04	 cmp	 eax, 4
  0000a	77 03		 ja	 SHORT $LN4@EncryptVal@3
  0000c	6a 04		 push	 4
  0000e	58		 pop	 eax
$LN4@EncryptVal@3:
  0000f	50		 push	 eax
  00010	8d 41 1c	 lea	 eax, DWORD PTR [ecx+28]
  00013	50		 push	 eax
  00014	ff 75 08	 push	 DWORD PTR _value$[ebp]
  00017	83 c1 0c	 add	 ecx, 12			; 0000000cH
  0001a	e8 00 00 00 00	 call	 ?EncryptByte@ccddaabb@@QAEXPBDPADH@Z ; ccddaabb::EncryptByte

; 69   : 		
; 70   : 	}

  0001f	5d		 pop	 ebp
  00020	c2 04 00	 ret	 4
?EncryptValueToPool@?$CEncrypt@H@@AAEXPBD@Z ENDP	; CEncrypt<int>::EncryptValueToPool
_TEXT	ENDS
PUBLIC	?Init@?$CEncrypt@H@@AAEXXZ			; CEncrypt<int>::Init
; Function compile flags: /Ogsp
;	COMDAT ?Init@?$CEncrypt@H@@AAEXXZ
_TEXT	SEGMENT
_pid$ = -8						; size = 4
_tick$ = -4						; size = 4
?Init@?$CEncrypt@H@@AAEXXZ PROC				; CEncrypt<int>::Init, COMDAT
; _this$ = ecx

; 73   : 	{

  00000	55		 push	 ebp
  00001	8b ec		 mov	 ebp, esp
  00003	51		 push	 ecx
  00004	51		 push	 ecx
  00005	53		 push	 ebx
  00006	56		 push	 esi
  00007	57		 push	 edi
  00008	8b f1		 mov	 esi, ecx

; 74   : 		DWORD pid = GetCurrentProcessId();

  0000a	ff 15 00 00 00
	00		 call	 DWORD PTR __imp__GetCurrentProcessId@0
  00010	89 45 f8	 mov	 DWORD PTR _pid$[ebp], eax

; 75   : 		DWORD tick = timeGetTime();

  00013	ff 15 00 00 00
	00		 call	 DWORD PTR __imp__timeGetTime@0

; 76   : 		m_ValueSize    = sizeof(type);
; 77   : 		m_MemPoolPos   = (unsigned short)( rand()+pid+tick )%(MAX_MEM_POOL-m_ValueSize);

  00019	8b 3d 00 00 00
	00		 mov	 edi, DWORD PTR __imp__rand
  0001f	89 45 fc	 mov	 DWORD PTR _tick$[ebp], eax
  00022	6a 04		 push	 4
  00024	58		 pop	 eax
  00025	66 89 46 06	 mov	 WORD PTR [esi+6], ax
  00029	ff d7		 call	 edi
  0002b	03 45 f8	 add	 eax, DWORD PTR _pid$[ebp]
  0002e	0f b7 4e 06	 movzx	 ecx, WORD PTR [esi+6]
  00032	03 45 fc	 add	 eax, DWORD PTR _tick$[ebp]
  00035	6a 0c		 push	 12			; 0000000cH
  00037	0f b7 c0	 movzx	 eax, ax
  0003a	5b		 pop	 ebx
  0003b	99		 cdq
  0003c	2b d9		 sub	 ebx, ecx
  0003e	f7 fb		 idiv	 ebx
  00040	66 89 56 04	 mov	 WORD PTR [esi+4], dx

; 78   : 		m_EncryptSeed  = (char)( rand()+pid+tick )%256;

  00044	ff d7		 call	 edi
  00046	02 45 f8	 add	 al, BYTE PTR _pid$[ebp]
  00049	02 45 fc	 add	 al, BYTE PTR _tick$[ebp]
  0004c	0f be c0	 movsx	 eax, al
  0004f	25 ff 00 00 80	 and	 eax, -2147483393	; 800000ffH
  00054	79 07		 jns	 SHORT $LN8@Init@2
  00056	48		 dec	 eax
  00057	0d 00 ff ff ff	 or	 eax, -256		; ffffff00H
  0005c	40		 inc	 eax
$LN8@Init@2:
  0005d	88 46 08	 mov	 BYTE PTR [esi+8], al

; 79   : 
; 80   : 		for (int i = 0; i < MAX_MEM_POOL ; i++)

  00060	33 db		 xor	 ebx, ebx
$LL3@Init@2:

; 81   : 			m_MemPool[i] = (char)( rand()+pid+tick )%256; // 

  00062	ff d7		 call	 edi
  00064	02 45 f8	 add	 al, BYTE PTR _pid$[ebp]
  00067	02 45 fc	 add	 al, BYTE PTR _tick$[ebp]
  0006a	0f be c0	 movsx	 eax, al
  0006d	25 ff 00 00 80	 and	 eax, -2147483393	; 800000ffH
  00072	79 07		 jns	 SHORT $LN9@Init@2
  00074	48		 dec	 eax
  00075	0d 00 ff ff ff	 or	 eax, -256		; ffffff00H
  0007a	40		 inc	 eax
$LN9@Init@2:
  0007b	88 44 1e 1c	 mov	 BYTE PTR [esi+ebx+28], al
  0007f	43		 inc	 ebx
  00080	83 fb 0c	 cmp	 ebx, 12			; 0000000cH
  00083	7c dd		 jl	 SHORT $LL3@Init@2

; 82   : 
; 83   : 		//UJ 130913, : szKey  
; 84   : 		//char szKey[ccddaabb::KEY_SIZE];//="";
; 85   : 		//for (int i = 0; i < ccddaabb::KEY_SIZE  ; i++)
; 86   : 		//	szKey[i] = (char)( rand()+pid+tick )%256; // 
; 87   : 		m_RC5.Setup( NULL, pid, tick );

  00085	ff 75 fc	 push	 DWORD PTR _tick$[ebp]
  00088	8d 4e 0c	 lea	 ecx, DWORD PTR [esi+12]
  0008b	ff 75 f8	 push	 DWORD PTR _pid$[ebp]
  0008e	6a 00		 push	 0
  00090	e8 00 00 00 00	 call	 ?Setup@ccddaabb@@QAEXPBDHH@Z ; ccddaabb::Setup
  00095	5f		 pop	 edi
  00096	5e		 pop	 esi
  00097	5b		 pop	 ebx

; 88   : 
; 89   : #ifdef _NOTUSE
; 90   : 		m_value        = 0;
; 91   : 		EncryptValueToPool((char*)&m_value);
; 92   : 		Debug();
; 93   : #endif
; 94   : 	}

  00098	c9		 leave
  00099	c3		 ret	 0
?Init@?$CEncrypt@H@@AAEXXZ ENDP				; CEncrypt<int>::Init
_TEXT	ENDS
PUBLIC	?DecryptValueToPool@?$CEncrypt@H@@QAEXPAH@Z	; CEncrypt<int>::DecryptValueToPool
; Function compile flags: /Ogsp
;	COMDAT ?DecryptValueToPool@?$CEncrypt@H@@QAEXPAH@Z
_TEXT	SEGMENT
_value$ = 8						; size = 4
?DecryptValueToPool@?$CEncrypt@H@@QAEXPAH@Z PROC	; CEncrypt<int>::DecryptValueToPool, COMDAT
; _this$ = ecx

; 837  : 	{

  00000	55		 push	 ebp
  00001	8b ec		 mov	 ebp, esp
  00003	56		 push	 esi

; 838  : 		m_RC5.DecryptByte( m_MemPool, m_TempMem, 4 );

  00004	8d 71 28	 lea	 esi, DWORD PTR [ecx+40]
  00007	6a 04		 push	 4
  00009	8d 41 1c	 lea	 eax, DWORD PTR [ecx+28]
  0000c	56		 push	 esi
  0000d	50		 push	 eax
  0000e	83 c1 0c	 add	 ecx, 12			; 0000000cH
  00011	e8 00 00 00 00	 call	 ?DecryptByte@ccddaabb@@QBEXPBDPADH@Z ; ccddaabb::DecryptByte

; 839  : 		*value = *((int*)m_TempMem);

  00016	8b 06		 mov	 eax, DWORD PTR [esi]
  00018	8b 4d 08	 mov	 ecx, DWORD PTR _value$[ebp]
  0001b	89 01		 mov	 DWORD PTR [ecx], eax
  0001d	5e		 pop	 esi

; 840  : 	}

  0001e	5d		 pop	 ebp
  0001f	c2 04 00	 ret	 4
?DecryptValueToPool@?$CEncrypt@H@@QAEXPAH@Z ENDP	; CEncrypt<int>::DecryptValueToPool
_TEXT	ENDS
PUBLIC	?DecryptValueToPool@?$CEncrypt@W4TeamType@@@@QAEXPAW4TeamType@@@Z ; CEncrypt<enum TeamType>::DecryptValueToPool
; Function compile flags: /Ogsp
;	COMDAT ?DecryptValueToPool@?$CEncrypt@W4TeamType@@@@QAEXPAW4TeamType@@@Z
_TEXT	SEGMENT
_value$ = 8						; size = 4
?DecryptValueToPool@?$CEncrypt@W4TeamType@@@@QAEXPAW4TeamType@@@Z PROC ; CEncrypt<enum TeamType>::DecryptValueToPool, COMDAT
; _this$ = ecx

; 2959 : 	{

  00000	55		 push	 ebp
  00001	8b ec		 mov	 ebp, esp
  00003	56		 push	 esi

; 2960 : 		m_RC5.DecryptByte( m_MemPool, m_TempMem, sizeof(TeamType) );

  00004	8d 71 28	 lea	 esi, DWORD PTR [ecx+40]
  00007	6a 04		 push	 4
  00009	8d 41 1c	 lea	 eax, DWORD PTR [ecx+28]
  0000c	56		 push	 esi
  0000d	50		 push	 eax
  0000e	83 c1 0c	 add	 ecx, 12			; 0000000cH
  00011	e8 00 00 00 00	 call	 ?DecryptByte@ccddaabb@@QBEXPBDPADH@Z ; ccddaabb::DecryptByte

; 2961 : 		*value = *((TeamType*)m_TempMem);

  00016	8b 06		 mov	 eax, DWORD PTR [esi]
  00018	8b 4d 08	 mov	 ecx, DWORD PTR _value$[ebp]
  0001b	89 01		 mov	 DWORD PTR [ecx], eax
  0001d	5e		 pop	 esi

; 2962 : 	}

  0001e	5d		 pop	 ebp
  0001f	c2 04 00	 ret	 4
?DecryptValueToPool@?$CEncrypt@W4TeamType@@@@QAEXPAW4TeamType@@@Z ENDP ; CEncrypt<enum TeamType>::DecryptValueToPool
_TEXT	ENDS
PUBLIC	??0?$allocator@UWeaponInfo@@@std@@QAE@ABV01@@Z	; std::allocator<WeaponInfo>::allocator<WeaponInfo>
; Function compile flags: /Ogsp
; File c:\program files (x86)\microsoft visual studio 10.0\vc\include\xmemory
;	COMDAT ??0?$allocator@UWeaponInfo@@@std@@QAE@ABV01@@Z
_TEXT	SEGMENT
___formal$ = 8						; size = 4
??0?$allocator@UWeaponInfo@@@std@@QAE@ABV01@@Z PROC	; std::allocator<WeaponInfo>::allocator<WeaponInfo>, COMDAT
; _this$ = ecx

; 165  : 	_ALLOCATOR(const _ALLOCATOR<_Ty>&) _THROW0()

  00000	8b c1		 mov	 eax, ecx

; 166  : 		{	// construct by copying (do nothing)
; 167  : 		}

  00002	c2 04 00	 ret	 4
??0?$allocator@UWeaponInfo@@@std@@QAE@ABV01@@Z ENDP	; std::allocator<WeaponInfo>::allocator<WeaponInfo>
_TEXT	ENDS
PUBLIC	?deallocate@?$allocator@UWeaponInfo@@@std@@QAEXPAUWeaponInfo@@I@Z ; std::allocator<WeaponInfo>::deallocate
; Function compile flags: /Ogsp
;	COMDAT ?deallocate@?$allocator@UWeaponInfo@@@std@@QAEXPAUWeaponInfo@@I@Z
_TEXT	SEGMENT
__Ptr$ = 8						; size = 4
___formal$ = 12						; size = 4
?deallocate@?$allocator@UWeaponInfo@@@std@@QAEXPAUWeaponInfo@@I@Z PROC ; std::allocator<WeaponInfo>::deallocate, COMDAT
; _this$ = ecx

; 181  : 		{	// deallocate object at _Ptr, ignore size

  00000	55		 push	 ebp
  00001	8b ec		 mov	 ebp, esp

; 182  : 		::operator delete(_Ptr);

  00003	ff 75 08	 push	 DWORD PTR __Ptr$[ebp]
  00006	e8 00 00 00 00	 call	 ??3@YAXPAX@Z		; operator delete
  0000b	59		 pop	 ecx

; 183  : 		}

  0000c	5d		 pop	 ebp
  0000d	c2 08 00	 ret	 8
?deallocate@?$allocator@UWeaponInfo@@@std@@QAEXPAUWeaponInfo@@I@Z ENDP ; std::allocator<WeaponInfo>::deallocate
_TEXT	ENDS
PUBLIC	??0?$allocator@UForceInfo@@@std@@QAE@ABV01@@Z	; std::allocator<ForceInfo>::allocator<ForceInfo>
; Function compile flags: /Ogsp
;	COMDAT ??0?$allocator@UForceInfo@@@std@@QAE@ABV01@@Z
_TEXT	SEGMENT
___formal$ = 8						; size = 4
??0?$allocator@UForceInfo@@@std@@QAE@ABV01@@Z PROC	; std::allocator<ForceInfo>::allocator<ForceInfo>, COMDAT
; _this$ = ecx

; 165  : 	_ALLOCATOR(const _ALLOCATOR<_Ty>&) _THROW0()

  00000	8b c1		 mov	 eax, ecx

; 166  : 		{	// construct by copying (do nothing)
; 167  : 		}

  00002	c2 04 00	 ret	 4
??0?$allocator@UForceInfo@@@std@@QAE@ABV01@@Z ENDP	; std::allocator<ForceInfo>::allocator<ForceInfo>
_TEXT	ENDS
PUBLIC	?deallocate@?$allocator@UForceInfo@@@std@@QAEXPAUForceInfo@@I@Z ; std::allocator<ForceInfo>::deallocate
; Function compile flags: /Ogsp
;	COMDAT ?deallocate@?$allocator@UForceInfo@@@std@@QAEXPAUForceInfo@@I@Z
_TEXT	SEGMENT
__Ptr$ = 8						; size = 4
___formal$ = 12						; size = 4
?deallocate@?$allocator@UForceInfo@@@std@@QAEXPAUForceInfo@@I@Z PROC ; std::allocator<ForceInfo>::deallocate, COMDAT
; _this$ = ecx

; 181  : 		{	// deallocate object at _Ptr, ignore size

  00000	55		 push	 ebp
  00001	8b ec		 mov	 ebp, esp

; 182  : 		::operator delete(_Ptr);

  00003	ff 75 08	 push	 DWORD PTR __Ptr$[ebp]
  00006	e8 00 00 00 00	 call	 ??3@YAXPAX@Z		; operator delete
  0000b	59		 pop	 ecx

; 183  : 		}

  0000c	5d		 pop	 ebp
  0000d	c2 08 00	 ret	 8
?deallocate@?$allocator@UForceInfo@@@std@@QAEXPAUForceInfo@@I@Z ENDP ; std::allocator<ForceInfo>::deallocate
_TEXT	ENDS
PUBLIC	??$_Ptr_cat@UWeaponInfo@@U1@@std@@YA?AU_Nonscalar_ptr_iterator_tag@0@PAUWeaponInfo@@0@Z ; std::_Ptr_cat<WeaponInfo,WeaponInfo>
; Function compile flags: /Ogsp
; File c:\program files (x86)\microsoft visual studio 10.0\vc\include\xutility
;	COMDAT ??$_Ptr_cat@UWeaponInfo@@U1@@std@@YA?AU_Nonscalar_ptr_iterator_tag@0@PAUWeaponInfo@@0@Z
_TEXT	SEGMENT
__Cat$ = -1						; size = 1
___formal$ = 8						; size = 4
___formal$ = 12						; size = 4
??$_Ptr_cat@UWeaponInfo@@U1@@std@@YA?AU_Nonscalar_ptr_iterator_tag@0@PAUWeaponInfo@@0@Z PROC ; std::_Ptr_cat<WeaponInfo,WeaponInfo>, COMDAT

; 516  : 	{	// return pointer category from pointers

  00000	55		 push	 ebp
  00001	8b ec		 mov	 ebp, esp
  00003	51		 push	 ecx

; 517  : 	typename _Ptr_cat_helper<_Elem1, _Elem2>::_Type _Cat;
; 518  : 	return (_Cat);

  00004	8a 45 ff	 mov	 al, BYTE PTR __Cat$[ebp]

; 519  : 	}

  00007	c9		 leave
  00008	c3		 ret	 0
??$_Ptr_cat@UWeaponInfo@@U1@@std@@YA?AU_Nonscalar_ptr_iterator_tag@0@PAUWeaponInfo@@0@Z ENDP ; std::_Ptr_cat<WeaponInfo,WeaponInfo>
_TEXT	ENDS
PUBLIC	??$_Ptr_cat@UForceInfo@@U1@@std@@YA?AU_Nonscalar_ptr_iterator_tag@0@PAUForceInfo@@0@Z ; std::_Ptr_cat<ForceInfo,ForceInfo>
; Function compile flags: /Ogsp
;	COMDAT ??$_Ptr_cat@UForceInfo@@U1@@std@@YA?AU_Nonscalar_ptr_iterator_tag@0@PAUForceInfo@@0@Z
_TEXT	SEGMENT
__Cat$ = -1						; size = 1
___formal$ = 8						; size = 4
___formal$ = 12						; size = 4
??$_Ptr_cat@UForceInfo@@U1@@std@@YA?AU_Nonscalar_ptr_iterator_tag@0@PAUForceInfo@@0@Z PROC ; std::_Ptr_cat<ForceInfo,ForceInfo>, COMDAT

; 516  : 	{	// return pointer category from pointers

  00000	55		 push	 ebp
  00001	8b ec		 mov	 ebp, esp
  00003	51		 push	 ecx

; 517  : 	typename _Ptr_cat_helper<_Elem1, _Elem2>::_Type _Cat;
; 518  : 	return (_Cat);

  00004	8a 45 ff	 mov	 al, BYTE PTR __Cat$[ebp]

; 519  : 	}

  00007	c9		 leave
  00008	c3		 ret	 0
??$_Ptr_cat@UForceInfo@@U1@@std@@YA?AU_Nonscalar_ptr_iterator_tag@0@PAUForceInfo@@0@Z ENDP ; std::_Ptr_cat<ForceInfo,ForceInfo>
_TEXT	ENDS
PUBLIC	?capacity@?$vector@UWeaponInfo@@V?$allocator@UWeaponInfo@@@std@@@std@@QBEIXZ ; std::vector<WeaponInfo,std::allocator<WeaponInfo> >::capacity
; Function compile flags: /Ogsp
; File c:\program files (x86)\microsoft visual studio 10.0\vc\include\vector
;	COMDAT ?capacity@?$vector@UWeaponInfo@@V?$allocator@UWeaponInfo@@@std@@@std@@QBEIXZ
_TEXT	SEGMENT
?capacity@?$vector@UWeaponInfo@@V?$allocator@UWeaponInfo@@@std@@@std@@QBEIXZ PROC ; std::vector<WeaponInfo,std::allocator<WeaponInfo> >::capacity, COMDAT
; _this$ = ecx

; 777  : 		return (this->_Myend - this->_Myfirst);

  00000	8b 41 08	 mov	 eax, DWORD PTR [ecx+8]
  00003	2b 01		 sub	 eax, DWORD PTR [ecx]
  00005	6a 28		 push	 40			; 00000028H
  00007	99		 cdq
  00008	59		 pop	 ecx
  00009	f7 f9		 idiv	 ecx

; 778  : 		}

  0000b	c3		 ret	 0
?capacity@?$vector@UWeaponInfo@@V?$allocator@UWeaponInfo@@@std@@@std@@QBEIXZ ENDP ; std::vector<WeaponInfo,std::allocator<WeaponInfo> >::capacity
_TEXT	ENDS
PUBLIC	?size@?$vector@UWeaponInfo@@V?$allocator@UWeaponInfo@@@std@@@std@@QBEIXZ ; std::vector<WeaponInfo,std::allocator<WeaponInfo> >::size
; Function compile flags: /Ogsp
;	COMDAT ?size@?$vector@UWeaponInfo@@V?$allocator@UWeaponInfo@@@std@@@std@@QBEIXZ
_TEXT	SEGMENT
?size@?$vector@UWeaponInfo@@V?$allocator@UWeaponInfo@@@std@@@std@@QBEIXZ PROC ; std::vector<WeaponInfo,std::allocator<WeaponInfo> >::size, COMDAT
; _this$ = ecx

; 879  : 		return (this->_Mylast - this->_Myfirst);

  00000	8b 41 04	 mov	 eax, DWORD PTR [ecx+4]
  00003	2b 01		 sub	 eax, DWORD PTR [ecx]
  00005	6a 28		 push	 40			; 00000028H
  00007	99		 cdq
  00008	59		 pop	 ecx
  00009	f7 f9		 idiv	 ecx

; 880  : 		}

  0000b	c3		 ret	 0
?size@?$vector@UWeaponInfo@@V?$allocator@UWeaponInfo@@@std@@@std@@QBEIXZ ENDP ; std::vector<WeaponInfo,std::allocator<WeaponInfo> >::size
_TEXT	ENDS
PUBLIC	?capacity@?$vector@UForceInfo@@V?$allocator@UForceInfo@@@std@@@std@@QBEIXZ ; std::vector<ForceInfo,std::allocator<ForceInfo> >::capacity
; Function compile flags: /Ogsp
;	COMDAT ?capacity@?$vector@UForceInfo@@V?$allocator@UForceInfo@@@std@@@std@@QBEIXZ
_TEXT	SEGMENT
?capacity@?$vector@UForceInfo@@V?$allocator@UForceInfo@@@std@@@std@@QBEIXZ PROC ; std::vector<ForceInfo,std::allocator<ForceInfo> >::capacity, COMDAT
; _this$ = ecx

; 777  : 		return (this->_Myend - this->_Myfirst);

  00000	8b 41 08	 mov	 eax, DWORD PTR [ecx+8]
  00003	2b 01		 sub	 eax, DWORD PTR [ecx]
  00005	6a 0c		 push	 12			; 0000000cH
  00007	99		 cdq
  00008	59		 pop	 ecx
  00009	f7 f9		 idiv	 ecx

; 778  : 		}

  0000b	c3		 ret	 0
?capacity@?$vector@UForceInfo@@V?$allocator@UForceInfo@@@std@@@std@@QBEIXZ ENDP ; std::vector<ForceInfo,std::allocator<ForceInfo> >::capacity
_TEXT	ENDS
PUBLIC	?size@?$vector@UForceInfo@@V?$allocator@UForceInfo@@@std@@@std@@QBEIXZ ; std::vector<ForceInfo,std::allocator<ForceInfo> >::size
; Function compile flags: /Ogsp
;	COMDAT ?size@?$vector@UForceInfo@@V?$allocator@UForceInfo@@@std@@@std@@QBEIXZ
_TEXT	SEGMENT
?size@?$vector@UForceInfo@@V?$allocator@UForceInfo@@@std@@@std@@QBEIXZ PROC ; std::vector<ForceInfo,std::allocator<ForceInfo> >::size, COMDAT
; _this$ = ecx

; 879  : 		return (this->_Mylast - this->_Myfirst);

  00000	8b 41 04	 mov	 eax, DWORD PTR [ecx+4]
  00003	2b 01		 sub	 eax, DWORD PTR [ecx]
  00005	6a 0c		 push	 12			; 0000000cH
  00007	99		 cdq
  00008	59		 pop	 ecx
  00009	f7 f9		 idiv	 ecx

; 880  : 		}

  0000b	c3		 ret	 0
?size@?$vector@UForceInfo@@V?$allocator@UForceInfo@@@std@@@std@@QBEIXZ ENDP ; std::vector<ForceInfo,std::allocator<ForceInfo> >::size
_TEXT	ENDS
PUBLIC	??_C@_0BD@OLBABOEK@vector?$DMT?$DO?5too?5long?$AA@ ; `string'
PUBLIC	?_Xlen@?$vector@UWeaponInfo@@V?$allocator@UWeaponInfo@@@std@@@std@@IBEXXZ ; std::vector<WeaponInfo,std::allocator<WeaponInfo> >::_Xlen
EXTRN	__imp_?_Xlength_error@std@@YAXPBD@Z:PROC
;	COMDAT ??_C@_0BD@OLBABOEK@vector?$DMT?$DO?5too?5long?$AA@
CONST	SEGMENT
??_C@_0BD@OLBABOEK@vector?$DMT?$DO?5too?5long?$AA@ DB 'vector<T> too long'
	DB	00H						; `string'
; Function compile flags: /Ogsp
CONST	ENDS
;	COMDAT ?_Xlen@?$vector@UWeaponInfo@@V?$allocator@UWeaponInfo@@@std@@@std@@IBEXXZ
_TEXT	SEGMENT
?_Xlen@?$vector@UWeaponInfo@@V?$allocator@UWeaponInfo@@@std@@@std@@IBEXXZ PROC ; std::vector<WeaponInfo,std::allocator<WeaponInfo> >::_Xlen, COMDAT
; _this$ = ecx

; 1427 : 		_Xlength_error("vector<T> too long");

  00000	68 00 00 00 00	 push	 OFFSET ??_C@_0BD@OLBABOEK@vector?$DMT?$DO?5too?5long?$AA@
  00005	ff 15 00 00 00
	00		 call	 DWORD PTR __imp_?_Xlength_error@std@@YAXPBD@Z
$LN4@Xlen:
$LN3@Xlen:
  0000b	cc		 int	 3
?_Xlen@?$vector@UWeaponInfo@@V?$allocator@UWeaponInfo@@@std@@@std@@IBEXXZ ENDP ; std::vector<WeaponInfo,std::allocator<WeaponInfo> >::_Xlen
_TEXT	ENDS
PUBLIC	?_Xlen@?$vector@UForceInfo@@V?$allocator@UForceInfo@@@std@@@std@@IBEXXZ ; std::vector<ForceInfo,std::allocator<ForceInfo> >::_Xlen
; Function compile flags: /Ogsp
;	COMDAT ?_Xlen@?$vector@UForceInfo@@V?$allocator@UForceInfo@@@std@@@std@@IBEXXZ
_TEXT	SEGMENT
?_Xlen@?$vector@UForceInfo@@V?$allocator@UForceInfo@@@std@@@std@@IBEXXZ PROC ; std::vector<ForceInfo,std::allocator<ForceInfo> >::_Xlen, COMDAT
; _this$ = ecx

; 1427 : 		_Xlength_error("vector<T> too long");

  00000	68 00 00 00 00	 push	 OFFSET ??_C@_0BD@OLBABOEK@vector?$DMT?$DO?5too?5long?$AA@
  00005	ff 15 00 00 00
	00		 call	 DWORD PTR __imp_?_Xlength_error@std@@YAXPBD@Z
$LN4@Xlen@2:
$LN3@Xlen@2:
  0000b	cc		 int	 3
?_Xlen@?$vector@UForceInfo@@V?$allocator@UForceInfo@@@std@@@std@@IBEXXZ ENDP ; std::vector<ForceInfo,std::allocator<ForceInfo> >::_Xlen
_TEXT	ENDS
PUBLIC	?max_size@?$allocator@UWeaponInfo@@@std@@QBEIXZ	; std::allocator<WeaponInfo>::max_size
; Function compile flags: /Ogsp
; File c:\program files (x86)\microsoft visual studio 10.0\vc\include\xmemory
;	COMDAT ?max_size@?$allocator@UWeaponInfo@@@std@@QBEIXZ
_TEXT	SEGMENT
?max_size@?$allocator@UWeaponInfo@@@std@@QBEIXZ PROC	; std::allocator<WeaponInfo>::max_size, COMDAT
; _this$ = ecx

; 218  : 		_SIZT _Count = (_SIZT)(-1) / sizeof (_Ty);
; 219  : 		return (0 < _Count ? _Count : 1);

  00000	b8 66 66 66 06	 mov	 eax, 107374182		; 06666666H

; 220  : 		}

  00005	c3		 ret	 0
?max_size@?$allocator@UWeaponInfo@@@std@@QBEIXZ ENDP	; std::allocator<WeaponInfo>::max_size
_TEXT	ENDS
PUBLIC	?max_size@?$allocator@UForceInfo@@@std@@QBEIXZ	; std::allocator<ForceInfo>::max_size
; Function compile flags: /Ogsp
;	COMDAT ?max_size@?$allocator@UForceInfo@@@std@@QBEIXZ
_TEXT	SEGMENT
?max_size@?$allocator@UForceInfo@@@std@@QBEIXZ PROC	; std::allocator<ForceInfo>::max_size, COMDAT
; _this$ = ecx

; 218  : 		_SIZT _Count = (_SIZT)(-1) / sizeof (_Ty);
; 219  : 		return (0 < _Count ? _Count : 1);

  00000	b8 55 55 55 15	 mov	 eax, 357913941		; 15555555H

; 220  : 		}

  00005	c3		 ret	 0
?max_size@?$allocator@UForceInfo@@@std@@QBEIXZ ENDP	; std::allocator<ForceInfo>::max_size
_TEXT	ENDS
PUBLIC	??0?$_Vector_const_iterator@V?$_Vector_val@UWeaponInfo@@V?$allocator@UWeaponInfo@@@std@@@std@@@std@@QAE@PAUWeaponInfo@@PBU_Container_base0@1@@Z ; std::_Vector_const_iterator<std::_Vector_val<WeaponInfo,std::allocator<WeaponInfo> > >::_Vector_const_iterator<std::_Vector_val<WeaponInfo,std::allocator<WeaponInfo> > >
; Function compile flags: /Ogsp
; File c:\program files (x86)\microsoft visual studio 10.0\vc\include\vector
;	COMDAT ??0?$_Vector_const_iterator@V?$_Vector_val@UWeaponInfo@@V?$allocator@UWeaponInfo@@@std@@@std@@@std@@QAE@PAUWeaponInfo@@PBU_Container_base0@1@@Z
_TEXT	SEGMENT
__Parg$ = 8						; size = 4
__Pvector$ = 12						; size = 4
??0?$_Vector_const_iterator@V?$_Vector_val@UWeaponInfo@@V?$allocator@UWeaponInfo@@@std@@@std@@@std@@QAE@PAUWeaponInfo@@PBU_Container_base0@1@@Z PROC ; std::_Vector_const_iterator<std::_Vector_val<WeaponInfo,std::allocator<WeaponInfo> > >::_Vector_const_iterator<std::_Vector_val<WeaponInfo,std::allocator<WeaponInfo> > >, COMDAT
; _this$ = ecx

; 45   : 		{	// construct with pointer _Parg

  00000	55		 push	 ebp
  00001	8b ec		 mov	 ebp, esp
  00003	8b c1		 mov	 eax, ecx
  00005	8b 4d 08	 mov	 ecx, DWORD PTR __Parg$[ebp]
  00008	89 08		 mov	 DWORD PTR [eax], ecx

; 46   : 		this->_Adopt(_Pvector);
; 47   : 		}

  0000a	5d		 pop	 ebp
  0000b	c2 08 00	 ret	 8
??0?$_Vector_const_iterator@V?$_Vector_val@UWeaponInfo@@V?$allocator@UWeaponInfo@@@std@@@std@@@std@@QAE@PAUWeaponInfo@@PBU_Container_base0@1@@Z ENDP ; std::_Vector_const_iterator<std::_Vector_val<WeaponInfo,std::allocator<WeaponInfo> > >::_Vector_const_iterator<std::_Vector_val<WeaponInfo,std::allocator<WeaponInfo> > >
_TEXT	ENDS
PUBLIC	??0?$_Vector_const_iterator@V?$_Vector_val@UForceInfo@@V?$allocator@UForceInfo@@@std@@@std@@@std@@QAE@PAUForceInfo@@PBU_Container_base0@1@@Z ; std::_Vector_const_iterator<std::_Vector_val<ForceInfo,std::allocator<ForceInfo> > >::_Vector_const_iterator<std::_Vector_val<ForceInfo,std::allocator<ForceInfo> > >
; Function compile flags: /Ogsp
;	COMDAT ??0?$_Vector_const_iterator@V?$_Vector_val@UForceInfo@@V?$allocator@UForceInfo@@@std@@@std@@@std@@QAE@PAUForceInfo@@PBU_Container_base0@1@@Z
_TEXT	SEGMENT
__Parg$ = 8						; size = 4
__Pvector$ = 12						; size = 4
??0?$_Vector_const_iterator@V?$_Vector_val@UForceInfo@@V?$allocator@UForceInfo@@@std@@@std@@@std@@QAE@PAUForceInfo@@PBU_Container_base0@1@@Z PROC ; std::_Vector_const_iterator<std::_Vector_val<ForceInfo,std::allocator<ForceInfo> > >::_Vector_const_iterator<std::_Vector_val<ForceInfo,std::allocator<ForceInfo> > >, COMDAT
; _this$ = ecx

; 45   : 		{	// construct with pointer _Parg

  00000	55		 push	 ebp
  00001	8b ec		 mov	 ebp, esp
  00003	8b c1		 mov	 eax, ecx
  00005	8b 4d 08	 mov	 ecx, DWORD PTR __Parg$[ebp]
  00008	89 08		 mov	 DWORD PTR [eax], ecx

; 46   : 		this->_Adopt(_Pvector);
; 47   : 		}

  0000a	5d		 pop	 ebp
  0000b	c2 08 00	 ret	 8
??0?$_Vector_const_iterator@V?$_Vector_val@UForceInfo@@V?$allocator@UForceInfo@@@std@@@std@@@std@@QAE@PAUForceInfo@@PBU_Container_base0@1@@Z ENDP ; std::_Vector_const_iterator<std::_Vector_val<ForceInfo,std::allocator<ForceInfo> > >::_Vector_const_iterator<std::_Vector_val<ForceInfo,std::allocator<ForceInfo> > >
_TEXT	ENDS
PUBLIC	?_Compat@?$_Vector_const_iterator@V?$_Vector_val@UWeaponInfo@@V?$allocator@UWeaponInfo@@@std@@@std@@@std@@QBEXABV12@@Z ; std::_Vector_const_iterator<std::_Vector_val<WeaponInfo,std::allocator<WeaponInfo> > >::_Compat
; Function compile flags: /Ogsp
;	COMDAT ?_Compat@?$_Vector_const_iterator@V?$_Vector_val@UWeaponInfo@@V?$allocator@UWeaponInfo@@@std@@@std@@@std@@QBEXABV12@@Z
_TEXT	SEGMENT
___formal$ = 8						; size = 4
?_Compat@?$_Vector_const_iterator@V?$_Vector_val@UWeaponInfo@@V?$allocator@UWeaponInfo@@@std@@@std@@@std@@QBEXABV12@@Z PROC ; std::_Vector_const_iterator<std::_Vector_val<WeaponInfo,std::allocator<WeaponInfo> > >::_Compat, COMDAT
; _this$ = ecx

; 253  : 		}

  00000	c2 04 00	 ret	 4
?_Compat@?$_Vector_const_iterator@V?$_Vector_val@UWeaponInfo@@V?$allocator@UWeaponInfo@@@std@@@std@@@std@@QBEXABV12@@Z ENDP ; std::_Vector_const_iterator<std::_Vector_val<WeaponInfo,std::allocator<WeaponInfo> > >::_Compat
_TEXT	ENDS
PUBLIC	?_Compat@?$_Vector_const_iterator@V?$_Vector_val@UForceInfo@@V?$allocator@UForceInfo@@@std@@@std@@@std@@QBEXABV12@@Z ; std::_Vector_const_iterator<std::_Vector_val<ForceInfo,std::allocator<ForceInfo> > >::_Compat
; Function compile flags: /Ogsp
;	COMDAT ?_Compat@?$_Vector_const_iterator@V?$_Vector_val@UForceInfo@@V?$allocator@UForceInfo@@@std@@@std@@@std@@QBEXABV12@@Z
_TEXT	SEGMENT
___formal$ = 8						; size = 4
?_Compat@?$_Vector_const_iterator@V?$_Vector_val@UForceInfo@@V?$allocator@UForceInfo@@@std@@@std@@@std@@QBEXABV12@@Z PROC ; std::_Vector_const_iterator<std::_Vector_val<ForceInfo,std::allocator<ForceInfo> > >::_Compat, COMDAT
; _this$ = ecx

; 253  : 		}

  00000	c2 04 00	 ret	 4
?_Compat@?$_Vector_const_iterator@V?$_Vector_val@UForceInfo@@V?$allocator@UForceInfo@@@std@@@std@@@std@@QBEXABV12@@Z ENDP ; std::_Vector_const_iterator<std::_Vector_val<ForceInfo,std::allocator<ForceInfo> > >::_Compat
_TEXT	ENDS
PUBLIC	__TI2?AVbad_alloc@std@@
PUBLIC	??$_Allocate@UWeaponInfo@@@std@@YAPAUWeaponInfo@@IPAU1@@Z ; std::_Allocate<WeaponInfo>
PUBLIC	__CTA2?AVbad_alloc@std@@
PUBLIC	__CT??_R0?AVbad_alloc@std@@@8??0bad_alloc@std@@QAE@ABV01@@Z12
PUBLIC	??0bad_alloc@std@@QAE@ABV01@@Z			; std::bad_alloc::bad_alloc
PUBLIC	__CT??_R0?AVexception@std@@@8??0exception@std@@QAE@ABV01@@Z12
EXTRN	??2@YAPAXI@Z:PROC				; operator new
EXTRN	__CxxThrowException@8:PROC
EXTRN	??0exception@std@@QAE@ABV01@@Z:PROC		; std::exception::exception
;	COMDAT __CT??_R0?AVexception@std@@@8??0exception@std@@QAE@ABV01@@Z12
; File c:\program files (x86)\microsoft visual studio 10.0\vc\include\exception
xdata$x	SEGMENT
__CT??_R0?AVexception@std@@@8??0exception@std@@QAE@ABV01@@Z12 DD 00H
	DD	FLAT:??_R0?AVexception@std@@@8
	DD	00H
	DD	0ffffffffH
	ORG $+4
	DD	0cH
	DD	FLAT:??0exception@std@@QAE@ABV01@@Z
xdata$x	ENDS
;	COMDAT __CT??_R0?AVbad_alloc@std@@@8??0bad_alloc@std@@QAE@ABV01@@Z12
xdata$x	SEGMENT
__CT??_R0?AVbad_alloc@std@@@8??0bad_alloc@std@@QAE@ABV01@@Z12 DD 00H
	DD	FLAT:??_R0?AVbad_alloc@std@@@8
	DD	00H
	DD	0ffffffffH
	ORG $+4
	DD	0cH
	DD	FLAT:??0bad_alloc@std@@QAE@ABV01@@Z
xdata$x	ENDS
;	COMDAT __CTA2?AVbad_alloc@std@@
xdata$x	SEGMENT
__CTA2?AVbad_alloc@std@@ DD 02H
	DD	FLAT:__CT??_R0?AVbad_alloc@std@@@8??0bad_alloc@std@@QAE@ABV01@@Z12
	DD	FLAT:__CT??_R0?AVexception@std@@@8??0exception@std@@QAE@ABV01@@Z12
xdata$x	ENDS
;	COMDAT __TI2?AVbad_alloc@std@@
xdata$x	SEGMENT
__TI2?AVbad_alloc@std@@ DD 00H
	DD	FLAT:??1bad_alloc@std@@UAE@XZ
	DD	00H
	DD	FLAT:__CTA2?AVbad_alloc@std@@
; Function compile flags: /Ogsp
; File c:\program files (x86)\microsoft visual studio 10.0\vc\include\xmemory
xdata$x	ENDS
;	COMDAT ??$_Allocate@UWeaponInfo@@@std@@YAPAUWeaponInfo@@IPAU1@@Z
_TEXT	SEGMENT
$T556259 = -12						; size = 12
$T556264 = 8						; size = 4
__Count$ = 8						; size = 4
___formal$ = 12						; size = 4
??$_Allocate@UWeaponInfo@@@std@@YAPAUWeaponInfo@@IPAU1@@Z PROC ; std::_Allocate<WeaponInfo>, COMDAT

; 30   : 	{	// allocate storage for _Count elements of type _Ty

  00000	55		 push	 ebp
  00001	8b ec		 mov	 ebp, esp

; 31   : 	void *_Ptr = 0;
; 32   : 
; 33   : 	if (_Count <= 0)

  00003	8b 4d 08	 mov	 ecx, DWORD PTR __Count$[ebp]
  00006	83 ec 0c	 sub	 esp, 12			; 0000000cH
  00009	33 c0		 xor	 eax, eax
  0000b	85 c9		 test	 ecx, ecx

; 34   : 		_Count = 0;
; 35   : 	else if (((_SIZT)(-1) / sizeof (_Ty) < _Count)

  0000d	74 3c		 je	 SHORT $LN5@Allocate

; 36   : 		|| (_Ptr = ::operator new(_Count * sizeof (_Ty))) == 0)

  0000f	81 f9 66 66 66
	06		 cmp	 ecx, 107374182		; 06666666H
  00015	77 0e		 ja	 SHORT $LN1@Allocate
  00017	6b c9 28	 imul	 ecx, 40			; 00000028H
  0001a	51		 push	 ecx
  0001b	e8 00 00 00 00	 call	 ??2@YAPAXI@Z		; operator new
  00020	59		 pop	 ecx
  00021	85 c0		 test	 eax, eax

; 38   : 
; 39   : 	return ((_Ty _FARQ *)_Ptr);

  00023	75 26		 jne	 SHORT $LN5@Allocate
$LN1@Allocate:

; 37   : 		_THROW_NCEE(bad_alloc, 0);

  00025	83 65 08 00	 and	 DWORD PTR $T556264[ebp], 0
  00029	8d 45 08	 lea	 eax, DWORD PTR $T556264[ebp]
  0002c	50		 push	 eax
  0002d	8d 4d f4	 lea	 ecx, DWORD PTR $T556259[ebp]
  00030	ff 15 00 00 00
	00		 call	 DWORD PTR __imp_??0exception@std@@QAE@ABQBD@Z
  00036	68 00 00 00 00	 push	 OFFSET __TI2?AVbad_alloc@std@@
  0003b	8d 45 f4	 lea	 eax, DWORD PTR $T556259[ebp]
  0003e	50		 push	 eax
  0003f	c7 45 f4 00 00
	00 00		 mov	 DWORD PTR $T556259[ebp], OFFSET ??_7bad_alloc@std@@6B@
  00046	e8 00 00 00 00	 call	 __CxxThrowException@8
$LN10@Allocate:
$LN5@Allocate:

; 40   : 	}

  0004b	c9		 leave
  0004c	c3		 ret	 0
$LN9@Allocate:
??$_Allocate@UWeaponInfo@@@std@@YAPAUWeaponInfo@@IPAU1@@Z ENDP ; std::_Allocate<WeaponInfo>
_TEXT	ENDS
EXTRN	__imp_??0exception@std@@QAE@ABV01@@Z:PROC
; Function compile flags: /Ogsp
;	COMDAT ??0bad_alloc@std@@QAE@ABV01@@Z
_TEXT	SEGMENT
___that$ = 8						; size = 4
??0bad_alloc@std@@QAE@ABV01@@Z PROC			; std::bad_alloc::bad_alloc, COMDAT
; _this$ = ecx
  00000	55		 push	 ebp
  00001	8b ec		 mov	 ebp, esp
  00003	56		 push	 esi
  00004	ff 75 08	 push	 DWORD PTR ___that$[ebp]
  00007	8b f1		 mov	 esi, ecx
  00009	ff 15 00 00 00
	00		 call	 DWORD PTR __imp_??0exception@std@@QAE@ABV01@@Z
  0000f	c7 06 00 00 00
	00		 mov	 DWORD PTR [esi], OFFSET ??_7bad_alloc@std@@6B@
  00015	8b c6		 mov	 eax, esi
  00017	5e		 pop	 esi
  00018	5d		 pop	 ebp
  00019	c2 04 00	 ret	 4
??0bad_alloc@std@@QAE@ABV01@@Z ENDP			; std::bad_alloc::bad_alloc
_TEXT	ENDS
PUBLIC	??$_Allocate@UForceInfo@@@std@@YAPAUForceInfo@@IPAU1@@Z ; std::_Allocate<ForceInfo>
; Function compile flags: /Ogsp
;	COMDAT ??$_Allocate@UForceInfo@@@std@@YAPAUForceInfo@@IPAU1@@Z
_TEXT	SEGMENT
$T556272 = -12						; size = 12
$T556276 = 8						; size = 4
__Count$ = 8						; size = 4
___formal$ = 12						; size = 4
??$_Allocate@UForceInfo@@@std@@YAPAUForceInfo@@IPAU1@@Z PROC ; std::_Allocate<ForceInfo>, COMDAT

; 30   : 	{	// allocate storage for _Count elements of type _Ty

  00000	55		 push	 ebp
  00001	8b ec		 mov	 ebp, esp

; 31   : 	void *_Ptr = 0;
; 32   : 
; 33   : 	if (_Count <= 0)

  00003	8b 4d 08	 mov	 ecx, DWORD PTR __Count$[ebp]
  00006	83 ec 0c	 sub	 esp, 12			; 0000000cH
  00009	33 c0		 xor	 eax, eax
  0000b	85 c9		 test	 ecx, ecx

; 34   : 		_Count = 0;
; 35   : 	else if (((_SIZT)(-1) / sizeof (_Ty) < _Count)

  0000d	74 3c		 je	 SHORT $LN5@Allocate@2

; 36   : 		|| (_Ptr = ::operator new(_Count * sizeof (_Ty))) == 0)

  0000f	81 f9 55 55 55
	15		 cmp	 ecx, 357913941		; 15555555H
  00015	77 0e		 ja	 SHORT $LN1@Allocate@2
  00017	6b c9 0c	 imul	 ecx, 12			; 0000000cH
  0001a	51		 push	 ecx
  0001b	e8 00 00 00 00	 call	 ??2@YAPAXI@Z		; operator new
  00020	59		 pop	 ecx
  00021	85 c0		 test	 eax, eax

; 38   : 
; 39   : 	return ((_Ty _FARQ *)_Ptr);

  00023	75 26		 jne	 SHORT $LN5@Allocate@2
$LN1@Allocate@2:

; 37   : 		_THROW_NCEE(bad_alloc, 0);

  00025	83 65 08 00	 and	 DWORD PTR $T556276[ebp], 0
  00029	8d 45 08	 lea	 eax, DWORD PTR $T556276[ebp]
  0002c	50		 push	 eax
  0002d	8d 4d f4	 lea	 ecx, DWORD PTR $T556272[ebp]
  00030	ff 15 00 00 00
	00		 call	 DWORD PTR __imp_??0exception@std@@QAE@ABQBD@Z
  00036	68 00 00 00 00	 push	 OFFSET __TI2?AVbad_alloc@std@@
  0003b	8d 45 f4	 lea	 eax, DWORD PTR $T556272[ebp]
  0003e	50		 push	 eax
  0003f	c7 45 f4 00 00
	00 00		 mov	 DWORD PTR $T556272[ebp], OFFSET ??_7bad_alloc@std@@6B@
  00046	e8 00 00 00 00	 call	 __CxxThrowException@8
$LN10@Allocate@2:
$LN5@Allocate@2:

; 40   : 	}

  0004b	c9		 leave
  0004c	c3		 ret	 0
$LN9@Allocate@2:
??$_Allocate@UForceInfo@@@std@@YAPAUForceInfo@@IPAU1@@Z ENDP ; std::_Allocate<ForceInfo>
_TEXT	ENDS
PUBLIC	??$_Destroy@UForceInfo@@@std@@YAXPAUForceInfo@@@Z ; std::_Destroy<ForceInfo>
; Function compile flags: /Ogsp
;	COMDAT ??$_Destroy@UForceInfo@@@std@@YAXPAUForceInfo@@@Z
_TEXT	SEGMENT
__Ptr$ = 8						; size = 4
??$_Destroy@UForceInfo@@@std@@YAXPAUForceInfo@@@Z PROC	; std::_Destroy<ForceInfo>, COMDAT

; 63   : 	_Ptr->~_Ty();
; 64   : 	}

  00000	c3		 ret	 0
??$_Destroy@UForceInfo@@@std@@YAXPAUForceInfo@@@Z ENDP	; std::_Destroy<ForceInfo>
_TEXT	ENDS
PUBLIC	??4WeaponInfo@@QAEAAU0@ABU0@@Z			; WeaponInfo::operator=
EXTRN	__imp_??4ioHashString@@QAEAAV0@ABV0@@Z:PROC
; Function compile flags: /Ogsp
;	COMDAT ??4WeaponInfo@@QAEAAU0@ABU0@@Z
_TEXT	SEGMENT
___that$ = 8						; size = 4
??4WeaponInfo@@QAEAAU0@ABU0@@Z PROC			; WeaponInfo::operator=, COMDAT
; _this$ = ecx
  00000	55		 push	 ebp
  00001	8b ec		 mov	 ebp, esp
  00003	56		 push	 esi
  00004	57		 push	 edi
  00005	8b 7d 08	 mov	 edi, DWORD PTR ___that$[ebp]
  00008	8b 07		 mov	 eax, DWORD PTR [edi]
  0000a	8b f1		 mov	 esi, ecx
  0000c	89 06		 mov	 DWORD PTR [esi], eax
  0000e	8b 47 04	 mov	 eax, DWORD PTR [edi+4]
  00011	89 46 04	 mov	 DWORD PTR [esi+4], eax
  00014	8d 47 08	 lea	 eax, DWORD PTR [edi+8]
  00017	50		 push	 eax
  00018	8d 4e 08	 lea	 ecx, DWORD PTR [esi+8]
  0001b	ff 15 00 00 00
	00		 call	 DWORD PTR __imp_??4ioHashString@@QAEAAV0@ABV0@@Z
  00021	8b 47 18	 mov	 eax, DWORD PTR [edi+24]
  00024	89 46 18	 mov	 DWORD PTR [esi+24], eax
  00027	8b 47 1c	 mov	 eax, DWORD PTR [edi+28]
  0002a	89 46 1c	 mov	 DWORD PTR [esi+28], eax
  0002d	8a 47 20	 mov	 al, BYTE PTR [edi+32]
  00030	88 46 20	 mov	 BYTE PTR [esi+32], al
  00033	8b 47 24	 mov	 eax, DWORD PTR [edi+36]
  00036	89 46 24	 mov	 DWORD PTR [esi+36], eax
  00039	5f		 pop	 edi
  0003a	8b c6		 mov	 eax, esi
  0003c	5e		 pop	 esi
  0003d	5d		 pop	 ebp
  0003e	c2 04 00	 ret	 4
??4WeaponInfo@@QAEAAU0@ABU0@@Z ENDP			; WeaponInfo::operator=
_TEXT	ENDS
PUBLIC	??_GWeaponInfo@@QAEPAXI@Z			; WeaponInfo::`scalar deleting destructor'
; Function compile flags: /Ogsp
;	COMDAT ??_GWeaponInfo@@QAEPAXI@Z
_TEXT	SEGMENT
___flags$ = 8						; size = 4
??_GWeaponInfo@@QAEPAXI@Z PROC				; WeaponInfo::`scalar deleting destructor', COMDAT
; _this$ = ecx
  00000	55		 push	 ebp
  00001	8b ec		 mov	 ebp, esp
  00003	56		 push	 esi
  00004	8b f1		 mov	 esi, ecx
  00006	8d 4e 08	 lea	 ecx, DWORD PTR [esi+8]
  00009	ff 15 00 00 00
	00		 call	 DWORD PTR __imp_??1ioHashString@@QAE@XZ
  0000f	f6 45 08 01	 test	 BYTE PTR ___flags$[ebp], 1
  00013	74 07		 je	 SHORT $LN1@scalar@4
  00015	56		 push	 esi
  00016	e8 00 00 00 00	 call	 ??3@YAXPAX@Z		; operator delete
  0001b	59		 pop	 ecx
$LN1@scalar@4:
  0001c	8b c6		 mov	 eax, esi
  0001e	5e		 pop	 esi
  0001f	5d		 pop	 ebp
  00020	c2 04 00	 ret	 4
??_GWeaponInfo@@QAEPAXI@Z ENDP				; WeaponInfo::`scalar deleting destructor'
_TEXT	ENDS
PUBLIC	??$move@AAUWeaponInfo@@@std@@YA$$QAUWeaponInfo@@AAU1@@Z ; std::move<WeaponInfo &>
; Function compile flags: /Ogsp
; File c:\program files (x86)\microsoft visual studio 10.0\vc\include\utility
;	COMDAT ??$move@AAUWeaponInfo@@@std@@YA$$QAUWeaponInfo@@AAU1@@Z
_TEXT	SEGMENT
__Arg$ = 8						; size = 4
??$move@AAUWeaponInfo@@@std@@YA$$QAUWeaponInfo@@AAU1@@Z PROC ; std::move<WeaponInfo &>, COMDAT

; 86   : 	{	// forward _Arg as movable

  00000	55		 push	 ebp
  00001	8b ec		 mov	 ebp, esp

; 87   : 	return ((typename tr1::_Remove_reference<_Ty>::_Type&&)_Arg);

  00003	8b 45 08	 mov	 eax, DWORD PTR __Arg$[ebp]

; 88   : 	}

  00006	5d		 pop	 ebp
  00007	c3		 ret	 0
??$move@AAUWeaponInfo@@@std@@YA$$QAUWeaponInfo@@AAU1@@Z ENDP ; std::move<WeaponInfo &>
_TEXT	ENDS
PUBLIC	??$move@AAUForceInfo@@@std@@YA$$QAUForceInfo@@AAU1@@Z ; std::move<ForceInfo &>
; Function compile flags: /Ogsp
;	COMDAT ??$move@AAUForceInfo@@@std@@YA$$QAUForceInfo@@AAU1@@Z
_TEXT	SEGMENT
__Arg$ = 8						; size = 4
??$move@AAUForceInfo@@@std@@YA$$QAUForceInfo@@AAU1@@Z PROC ; std::move<ForceInfo &>, COMDAT

; 86   : 	{	// forward _Arg as movable

  00000	55		 push	 ebp
  00001	8b ec		 mov	 ebp, esp

; 87   : 	return ((typename tr1::_Remove_reference<_Ty>::_Type&&)_Arg);

  00003	8b 45 08	 mov	 eax, DWORD PTR __Arg$[ebp]

; 88   : 	}

  00006	5d		 pop	 ebp
  00007	c3		 ret	 0
??$move@AAUForceInfo@@@std@@YA$$QAUForceInfo@@AAU1@@Z ENDP ; std::move<ForceInfo &>
_TEXT	ENDS
PUBLIC	??$forward@AAUWeaponInfo@@@std@@YAAAUWeaponInfo@@AAU1@@Z ; std::forward<WeaponInfo &>
; Function compile flags: /Ogsp
;	COMDAT ??$forward@AAUWeaponInfo@@@std@@YAAAUWeaponInfo@@AAU1@@Z
_TEXT	SEGMENT
__Arg$ = 8						; size = 4
??$forward@AAUWeaponInfo@@@std@@YAAAUWeaponInfo@@AAU1@@Z PROC ; std::forward<WeaponInfo &>, COMDAT

; 78   : 	{	// forward _Arg, given explicitly specified type parameter

  00000	55		 push	 ebp
  00001	8b ec		 mov	 ebp, esp

; 79   : 	return ((_Ty&&)_Arg);

  00003	8b 45 08	 mov	 eax, DWORD PTR __Arg$[ebp]

; 80   : 	}

  00006	5d		 pop	 ebp
  00007	c3		 ret	 0
??$forward@AAUWeaponInfo@@@std@@YAAAUWeaponInfo@@AAU1@@Z ENDP ; std::forward<WeaponInfo &>
_TEXT	ENDS
PUBLIC	??$forward@AAUForceInfo@@@std@@YAAAUForceInfo@@AAU1@@Z ; std::forward<ForceInfo &>
; Function compile flags: /Ogsp
;	COMDAT ??$forward@AAUForceInfo@@@std@@YAAAUForceInfo@@AAU1@@Z
_TEXT	SEGMENT
__Arg$ = 8						; size = 4
??$forward@AAUForceInfo@@@std@@YAAAUForceInfo@@AAU1@@Z PROC ; std::forward<ForceInfo &>, COMDAT

; 78   : 	{	// forward _Arg, given explicitly specified type parameter

  00000	55		 push	 ebp
  00001	8b ec		 mov	 ebp, esp

; 79   : 	return ((_Ty&&)_Arg);

  00003	8b 45 08	 mov	 eax, DWORD PTR __Arg$[ebp]

; 80   : 	}

  00006	5d		 pop	 ebp
  00007	c3		 ret	 0
??$forward@AAUForceInfo@@@std@@YAAAUForceInfo@@AAU1@@Z ENDP ; std::forward<ForceInfo &>
_TEXT	ENDS
PUBLIC	??$construct@AAUForceInfo@@@?$allocator@UForceInfo@@@std@@QAEXPAUForceInfo@@AAU2@@Z ; std::allocator<ForceInfo>::construct<ForceInfo &>
; Function compile flags: /Ogsp
; File c:\program files (x86)\microsoft visual studio 10.0\vc\include\xmemory
;	COMDAT ??$construct@AAUForceInfo@@@?$allocator@UForceInfo@@@std@@QAEXPAUForceInfo@@AAU2@@Z
_TEXT	SEGMENT
__Ptr$ = 8						; size = 4
__Val$ = 12						; size = 4
??$construct@AAUForceInfo@@@?$allocator@UForceInfo@@@std@@QAEXPAUForceInfo@@AAU2@@Z PROC ; std::allocator<ForceInfo>::construct<ForceInfo &>, COMDAT
; _this$ = ecx

; 206  : 		void construct(pointer _Ptr, _Other&& _Val)

  00000	55		 push	 ebp
  00001	8b ec		 mov	 ebp, esp
  00003	57		 push	 edi

; 207  : 		{	// construct object at _Ptr with value _Val
; 208  : 		::new ((void _FARQ *)_Ptr) _Ty(_STD forward<_Other>(_Val));

  00004	8b 7d 08	 mov	 edi, DWORD PTR __Ptr$[ebp]
  00007	85 ff		 test	 edi, edi
  00009	74 08		 je	 SHORT $LN3@construct
  0000b	56		 push	 esi
  0000c	8b 75 0c	 mov	 esi, DWORD PTR __Val$[ebp]
  0000f	a5		 movsd
  00010	a5		 movsd
  00011	a5		 movsd
  00012	5e		 pop	 esi
$LN3@construct:
  00013	5f		 pop	 edi

; 209  : 		}

  00014	5d		 pop	 ebp
  00015	c2 08 00	 ret	 8
??$construct@AAUForceInfo@@@?$allocator@UForceInfo@@@std@@QAEXPAUForceInfo@@AAU2@@Z ENDP ; std::allocator<ForceInfo>::construct<ForceInfo &>
_TEXT	ENDS
PUBLIC	??0WeaponInfo@@QAE@ABU0@@Z			; WeaponInfo::WeaponInfo
EXTRN	__imp_??0ioHashString@@QAE@ABV0@@Z:PROC
; Function compile flags: /Ogsp
;	COMDAT ??0WeaponInfo@@QAE@ABU0@@Z
_TEXT	SEGMENT
___that$ = 8						; size = 4
??0WeaponInfo@@QAE@ABU0@@Z PROC				; WeaponInfo::WeaponInfo, COMDAT
; _this$ = ecx
  00000	55		 push	 ebp
  00001	8b ec		 mov	 ebp, esp
  00003	56		 push	 esi
  00004	57		 push	 edi
  00005	8b 7d 08	 mov	 edi, DWORD PTR ___that$[ebp]
  00008	8b 07		 mov	 eax, DWORD PTR [edi]
  0000a	8b f1		 mov	 esi, ecx
  0000c	89 06		 mov	 DWORD PTR [esi], eax
  0000e	8b 47 04	 mov	 eax, DWORD PTR [edi+4]
  00011	89 46 04	 mov	 DWORD PTR [esi+4], eax
  00014	8d 47 08	 lea	 eax, DWORD PTR [edi+8]
  00017	50		 push	 eax
  00018	8d 4e 08	 lea	 ecx, DWORD PTR [esi+8]
  0001b	ff 15 00 00 00
	00		 call	 DWORD PTR __imp_??0ioHashString@@QAE@ABV0@@Z
  00021	8b 47 18	 mov	 eax, DWORD PTR [edi+24]
  00024	89 46 18	 mov	 DWORD PTR [esi+24], eax
  00027	8b 47 1c	 mov	 eax, DWORD PTR [edi+28]
  0002a	89 46 1c	 mov	 DWORD PTR [esi+28], eax
  0002d	8a 47 20	 mov	 al, BYTE PTR [edi+32]
  00030	88 46 20	 mov	 BYTE PTR [esi+32], al
  00033	8b 47 24	 mov	 eax, DWORD PTR [edi+36]
  00036	89 46 24	 mov	 DWORD PTR [esi+36], eax
  00039	5f		 pop	 edi
  0003a	8b c6		 mov	 eax, esi
  0003c	5e		 pop	 esi
  0003d	5d		 pop	 ebp
  0003e	c2 04 00	 ret	 4
??0WeaponInfo@@QAE@ABU0@@Z ENDP				; WeaponInfo::WeaponInfo
_TEXT	ENDS
PUBLIC	__$ArrayPad$
PUBLIC	?CheckCharDirKey@ioCircleMoveAttackSkill@@IAEXPAVioBaseChar@@@Z ; ioCircleMoveAttackSkill::CheckCharDirKey
EXTRN	??1SP2Packet@@UAE@XZ:PROC			; SP2Packet::~SP2Packet
EXTRN	?SendToAllPlayingUser@P2PNetwork@@YAXAAVSP2Packet@@PAVioBaseChar@@@Z:PROC ; P2PNetwork::SendToAllPlayingUser
EXTRN	??6SP2Packet@@QAEAAV0@H@Z:PROC			; SP2Packet::operator<<
EXTRN	??6SP2Packet@@QAEAAV0@ABVioHashString@@@Z:PROC	; SP2Packet::operator<<
EXTRN	??0SP2Packet@@QAE@K@Z:PROC			; SP2Packet::SP2Packet
EXTRN	?CheckCurDirKey@ioBaseChar@@QAE?AW4DirKeyInput@ioUserKeyInput@@XZ:PROC ; ioBaseChar::CheckCurDirKey
EXTRN	___CxxFrameHandler3:PROC
EXTRN	__chkstk:PROC
;	COMDAT xdata$x
; File d:\lost saga for developer\youtube\tutorial\source\src\lsclient\ioskill.h
xdata$x	SEGMENT
__unwindtable$?CheckCharDirKey@ioCircleMoveAttackSkill@@IAEXPAVioBaseChar@@@Z DD 0ffffffffH
	DD	FLAT:__unwindfunclet$?CheckCharDirKey@ioCircleMoveAttackSkill@@IAEXPAVioBaseChar@@@Z$0
__ehfuncinfo$?CheckCharDirKey@ioCircleMoveAttackSkill@@IAEXPAVioBaseChar@@@Z DD 019930522H
	DD	01H
	DD	FLAT:__unwindtable$?CheckCharDirKey@ioCircleMoveAttackSkill@@IAEXPAVioBaseChar@@@Z
	DD	2 DUP(00H)
	DD	2 DUP(00H)
	DD	00H
	DD	01H
; Function compile flags: /Ogsp
; File d:\lost saga for developer\youtube\tutorial\source\src\lsclient\iocirclemoveattackskill.cpp
xdata$x	ENDS
;	COMDAT ?CheckCharDirKey@ioCircleMoveAttackSkill@@IAEXPAVioBaseChar@@@Z
_TEXT	SEGMENT
_kPacket$551054 = -32808				; size = 32792
__$ArrayPad$ = -16					; size = 4
__$EHRec$ = -12						; size = 12
_pChar$ = 8						; size = 4
?CheckCharDirKey@ioCircleMoveAttackSkill@@IAEXPAVioBaseChar@@@Z PROC ; ioCircleMoveAttackSkill::CheckCharDirKey, COMDAT
; _this$ = ecx

; 949  : {

  00000	55		 push	 ebp
  00001	8b ec		 mov	 ebp, esp
  00003	6a ff		 push	 -1
  00005	68 00 00 00 00	 push	 __ehhandler$?CheckCharDirKey@ioCircleMoveAttackSkill@@IAEXPAVioBaseChar@@@Z
  0000a	64 a1 00 00 00
	00		 mov	 eax, DWORD PTR fs:0
  00010	50		 push	 eax
  00011	b8 1c 80 00 00	 mov	 eax, 32796		; 0000801cH
  00016	e8 00 00 00 00	 call	 __chkstk
  0001b	a1 00 00 00 00	 mov	 eax, DWORD PTR ___security_cookie
  00020	33 c5		 xor	 eax, ebp
  00022	89 45 f0	 mov	 DWORD PTR __$ArrayPad$[ebp], eax
  00025	56		 push	 esi
  00026	57		 push	 edi
  00027	50		 push	 eax
  00028	8d 45 f4	 lea	 eax, DWORD PTR __$EHRec$[ebp]
  0002b	64 a3 00 00 00
	00		 mov	 DWORD PTR fs:0, eax
  00031	8b 7d 08	 mov	 edi, DWORD PTR _pChar$[ebp]
  00034	8b f1		 mov	 esi, ecx

; 950  : 	if( !pChar ) return;

  00036	85 ff		 test	 edi, edi
  00038	0f 84 b2 00 00
	00		 je	 $LN1@CheckCharD

; 951  : 	if( !pChar->IsNeedProcess() )

  0003e	8b 07		 mov	 eax, DWORD PTR [edi]
  00040	8b cf		 mov	 ecx, edi
  00042	ff 90 00 01 00
	00		 call	 DWORD PTR [eax+256]
  00048	84 c0		 test	 al, al
  0004a	0f 84 a0 00 00
	00		 je	 $LN1@CheckCharD

; 952  : 		return;
; 953  : 
; 954  : 	ioUserKeyInput::DirKeyInput eNewDirKey = pChar->CheckCurDirKey();

  00050	8b cf		 mov	 ecx, edi
  00052	e8 00 00 00 00	 call	 ?CheckCurDirKey@ioBaseChar@@QAE?AW4DirKeyInput@ioUserKeyInput@@XZ ; ioBaseChar::CheckCurDirKey

; 955  : 	if( eNewDirKey != m_CurDirKey )

  00057	3b 86 20 11 00
	00		 cmp	 eax, DWORD PTR [esi+4384]
  0005d	0f 84 8d 00 00
	00		 je	 $LN1@CheckCharD

; 956  : 	{
; 957  : 		m_bTargetRot = false;

  00063	c6 86 1c 11 00
	00 00		 mov	 BYTE PTR [esi+4380], 0

; 958  : 		m_CurDirKey = eNewDirKey;

  0006a	89 86 20 11 00
	00		 mov	 DWORD PTR [esi+4384], eax

; 959  : 
; 960  : 		if( pChar->IsNeedSendNetwork() )

  00070	8b 07		 mov	 eax, DWORD PTR [edi]
  00072	8b cf		 mov	 ecx, edi
  00074	ff 90 04 01 00
	00		 call	 DWORD PTR [eax+260]
  0007a	84 c0		 test	 al, al
  0007c	74 72		 je	 SHORT $LN1@CheckCharD

; 961  : 		{
; 962  : 			SP2Packet kPacket( CUPK_SKILL_EXTRA_INFO );

  0007e	68 39 41 00 00	 push	 16697			; 00004139H
  00083	8d 8d d8 7f ff
	ff		 lea	 ecx, DWORD PTR _kPacket$551054[ebp]
  00089	e8 00 00 00 00	 call	 ??0SP2Packet@@QAE@K@Z	; SP2Packet::SP2Packet
  0008e	83 65 fc 00	 and	 DWORD PTR __$EHRec$[ebp+8], 0

; 963  : 			kPacket << pChar->GetCharName();

  00092	81 c7 d4 02 00
	00		 add	 edi, 724		; 000002d4H
  00098	57		 push	 edi
  00099	8d 8d d8 7f ff
	ff		 lea	 ecx, DWORD PTR _kPacket$551054[ebp]
  0009f	e8 00 00 00 00	 call	 ??6SP2Packet@@QAEAAV0@ABVioHashString@@@Z ; SP2Packet::operator<<

; 964  : 			kPacket << GetName();

  000a4	8d 46 24	 lea	 eax, DWORD PTR [esi+36]
  000a7	50		 push	 eax
  000a8	8d 8d d8 7f ff
	ff		 lea	 ecx, DWORD PTR _kPacket$551054[ebp]
  000ae	e8 00 00 00 00	 call	 ??6SP2Packet@@QAEAAV0@ABVioHashString@@@Z ; SP2Packet::operator<<

; 965  : 			kPacket << SSC_DIR;

  000b3	6a 01		 push	 1
  000b5	8d 8d d8 7f ff
	ff		 lea	 ecx, DWORD PTR _kPacket$551054[ebp]
  000bb	e8 00 00 00 00	 call	 ??6SP2Packet@@QAEAAV0@H@Z ; SP2Packet::operator<<

; 966  : 			kPacket << (int)m_CurDirKey;

  000c0	ff b6 20 11 00
	00		 push	 DWORD PTR [esi+4384]
  000c6	8d 8d d8 7f ff
	ff		 lea	 ecx, DWORD PTR _kPacket$551054[ebp]
  000cc	e8 00 00 00 00	 call	 ??6SP2Packet@@QAEAAV0@H@Z ; SP2Packet::operator<<

; 967  : 			P2PNetwork::SendToAllPlayingUser( kPacket );

  000d1	8d 85 d8 7f ff
	ff		 lea	 eax, DWORD PTR _kPacket$551054[ebp]
  000d7	6a 00		 push	 0
  000d9	50		 push	 eax
  000da	e8 00 00 00 00	 call	 ?SendToAllPlayingUser@P2PNetwork@@YAXAAVSP2Packet@@PAVioBaseChar@@@Z ; P2PNetwork::SendToAllPlayingUser

; 968  : 		}

  000df	83 4d fc ff	 or	 DWORD PTR __$EHRec$[ebp+8], -1
  000e3	59		 pop	 ecx
  000e4	59		 pop	 ecx
  000e5	8d 8d d8 7f ff
	ff		 lea	 ecx, DWORD PTR _kPacket$551054[ebp]
  000eb	e8 00 00 00 00	 call	 ??1SP2Packet@@UAE@XZ	; SP2Packet::~SP2Packet
$LN1@CheckCharD:

; 969  : 	}
; 970  : }

  000f0	8b 4d f4	 mov	 ecx, DWORD PTR __$EHRec$[ebp]
  000f3	64 89 0d 00 00
	00 00		 mov	 DWORD PTR fs:0, ecx
  000fa	59		 pop	 ecx
  000fb	5f		 pop	 edi
  000fc	5e		 pop	 esi
  000fd	8b 4d f0	 mov	 ecx, DWORD PTR __$ArrayPad$[ebp]
  00100	33 cd		 xor	 ecx, ebp
  00102	e8 00 00 00 00	 call	 @__security_check_cookie@4
  00107	c9		 leave
  00108	c2 04 00	 ret	 4
_TEXT	ENDS
;	COMDAT text$x
text$x	SEGMENT
__unwindfunclet$?CheckCharDirKey@ioCircleMoveAttackSkill@@IAEXPAVioBaseChar@@@Z$0:
  00000	8d 8d d8 7f ff
	ff		 lea	 ecx, DWORD PTR _kPacket$551054[ebp]
  00006	e9 00 00 00 00	 jmp	 ??1SP2Packet@@UAE@XZ	; SP2Packet::~SP2Packet
__ehhandler$?CheckCharDirKey@ioCircleMoveAttackSkill@@IAEXPAVioBaseChar@@@Z:
  0000b	8b 54 24 08	 mov	 edx, DWORD PTR [esp+8]
  0000f	8d 42 0c	 lea	 eax, DWORD PTR [edx+12]
  00012	8b 8a d8 7f ff
	ff		 mov	 ecx, DWORD PTR [edx-32808]
  00018	33 c8		 xor	 ecx, eax
  0001a	e8 00 00 00 00	 call	 @__security_check_cookie@4
  0001f	8b 4a fc	 mov	 ecx, DWORD PTR [edx-4]
  00022	33 c8		 xor	 ecx, eax
  00024	e8 00 00 00 00	 call	 @__security_check_cookie@4
  00029	b8 00 00 00 00	 mov	 eax, OFFSET __ehfuncinfo$?CheckCharDirKey@ioCircleMoveAttackSkill@@IAEXPAVioBaseChar@@@Z
  0002e	e9 00 00 00 00	 jmp	 ___CxxFrameHandler3
text$x	ENDS
?CheckCharDirKey@ioCircleMoveAttackSkill@@IAEXPAVioBaseChar@@@Z ENDP ; ioCircleMoveAttackSkill::CheckCharDirKey
PUBLIC	??H?$CEncrypt@K@@QAEKABM@Z			; CEncrypt<unsigned long>::operator+
EXTRN	__ftol2:PROC
; Function compile flags: /Ogsp
; File d:\lost saga for developer\youtube\tutorial\source\src\lsclient\encryptvalue.h
;	COMDAT ??H?$CEncrypt@K@@QAEKABM@Z
_TEXT	SEGMENT
tv129 = -4						; size = 4
_value$ = -4						; size = 4
_inValue$ = 8						; size = 4
??H?$CEncrypt@K@@QAEKABM@Z PROC				; CEncrypt<unsigned long>::operator+, COMDAT
; _this$ = ecx

; 1675 : 	{	

  00000	55		 push	 ebp
  00001	8b ec		 mov	 ebp, esp
  00003	51		 push	 ecx

; 1676 : 		type value;
; 1677 : 		DecryptValueToPool(&value);

  00004	8d 45 fc	 lea	 eax, DWORD PTR _value$[ebp]
  00007	50		 push	 eax
  00008	e8 00 00 00 00	 call	 ?DecryptValueToPool@?$CEncrypt@K@@QAEXPAK@Z ; CEncrypt<unsigned long>::DecryptValueToPool

; 1678 : #ifdef _NOTUSE
; 1679 : 		Debug();
; 1680 : #endif
; 1681 : 		return value + inValue;

  0000d	db 45 fc	 fild	 DWORD PTR _value$[ebp]
  00010	8b 45 fc	 mov	 eax, DWORD PTR _value$[ebp]
  00013	85 c0		 test	 eax, eax
  00015	79 06		 jns	 SHORT $LN3@operator@3
  00017	d8 05 00 00 00
	00		 fadd	 DWORD PTR __real@4f800000
$LN3@operator@3:
  0001d	8b 45 08	 mov	 eax, DWORD PTR _inValue$[ebp]
  00020	d8 00		 fadd	 DWORD PTR [eax]
  00022	e8 00 00 00 00	 call	 __ftol2

; 1682 : 	}

  00027	c9		 leave
  00028	c2 04 00	 ret	 4
??H?$CEncrypt@K@@QAEKABM@Z ENDP				; CEncrypt<unsigned long>::operator+
_TEXT	ENDS
PUBLIC	??9?$CEncrypt@H@@QAE_NABH@Z			; CEncrypt<int>::operator!=
; Function compile flags: /Ogsp
;	COMDAT ??9?$CEncrypt@H@@QAE_NABH@Z
_TEXT	SEGMENT
_value$ = -4						; size = 4
_inValue$ = 8						; size = 4
??9?$CEncrypt@H@@QAE_NABH@Z PROC			; CEncrypt<int>::operator!=, COMDAT
; _this$ = ecx

; 998  : 	{

  00000	55		 push	 ebp
  00001	8b ec		 mov	 ebp, esp
  00003	51		 push	 ecx

; 999  : 		
; 1000 : 		type value;
; 1001 : 		DecryptValueToPool(&value);

  00004	8d 45 fc	 lea	 eax, DWORD PTR _value$[ebp]
  00007	50		 push	 eax
  00008	e8 00 00 00 00	 call	 ?DecryptValueToPool@?$CEncrypt@H@@QAEXPAH@Z ; CEncrypt<int>::DecryptValueToPool

; 1002 : #ifdef _NOTUSE
; 1003 : 		Debug();
; 1004 : #endif
; 1005 : 		return (value != inValue);

  0000d	8b 4d 08	 mov	 ecx, DWORD PTR _inValue$[ebp]
  00010	8b 55 fc	 mov	 edx, DWORD PTR _value$[ebp]
  00013	33 c0		 xor	 eax, eax
  00015	3b 11		 cmp	 edx, DWORD PTR [ecx]
  00017	0f 95 c0	 setne	 al

; 1006 : 	} 		

  0001a	c9		 leave
  0001b	c2 04 00	 ret	 4
??9?$CEncrypt@H@@QAE_NABH@Z ENDP			; CEncrypt<int>::operator!=
_TEXT	ENDS
PUBLIC	?begin@?$vector@UWeaponInfo@@V?$allocator@UWeaponInfo@@@std@@@std@@QBE?AV?$_Vector_const_iterator@V?$_Vector_val@UWeaponInfo@@V?$allocator@UWeaponInfo@@@std@@@std@@@2@XZ ; std::vector<WeaponInfo,std::allocator<WeaponInfo> >::begin
; Function compile flags: /Ogsp
; File c:\program files (x86)\microsoft visual studio 10.0\vc\include\vector
;	COMDAT ?begin@?$vector@UWeaponInfo@@V?$allocator@UWeaponInfo@@@std@@@std@@QBE?AV?$_Vector_const_iterator@V?$_Vector_val@UWeaponInfo@@V?$allocator@UWeaponInfo@@@std@@@std@@@2@XZ
_TEXT	SEGMENT
___$ReturnUdt$ = 8					; size = 4
?begin@?$vector@UWeaponInfo@@V?$allocator@UWeaponInfo@@@std@@@std@@QBE?AV?$_Vector_const_iterator@V?$_Vector_val@UWeaponInfo@@V?$allocator@UWeaponInfo@@@std@@@std@@@2@XZ PROC ; std::vector<WeaponInfo,std::allocator<WeaponInfo> >::begin, COMDAT
; _this$ = ecx

; 786  : 		{	// return iterator for beginning of nonmutable sequence

  00000	55		 push	 ebp
  00001	8b ec		 mov	 ebp, esp

; 787  : 		return (const_iterator(this->_Myfirst, this));

  00003	8b 09		 mov	 ecx, DWORD PTR [ecx]
  00005	8b 45 08	 mov	 eax, DWORD PTR ___$ReturnUdt$[ebp]
  00008	89 08		 mov	 DWORD PTR [eax], ecx

; 788  : 		}

  0000a	5d		 pop	 ebp
  0000b	c2 04 00	 ret	 4
?begin@?$vector@UWeaponInfo@@V?$allocator@UWeaponInfo@@@std@@@std@@QBE?AV?$_Vector_const_iterator@V?$_Vector_val@UWeaponInfo@@V?$allocator@UWeaponInfo@@@std@@@std@@@2@XZ ENDP ; std::vector<WeaponInfo,std::allocator<WeaponInfo> >::begin
_TEXT	ENDS
PUBLIC	?end@?$vector@UWeaponInfo@@V?$allocator@UWeaponInfo@@@std@@@std@@QBE?AV?$_Vector_const_iterator@V?$_Vector_val@UWeaponInfo@@V?$allocator@UWeaponInfo@@@std@@@std@@@2@XZ ; std::vector<WeaponInfo,std::allocator<WeaponInfo> >::end
; Function compile flags: /Ogsp
;	COMDAT ?end@?$vector@UWeaponInfo@@V?$allocator@UWeaponInfo@@@std@@@std@@QBE?AV?$_Vector_const_iterator@V?$_Vector_val@UWeaponInfo@@V?$allocator@UWeaponInfo@@@std@@@std@@@2@XZ
_TEXT	SEGMENT
___$ReturnUdt$ = 8					; size = 4
?end@?$vector@UWeaponInfo@@V?$allocator@UWeaponInfo@@@std@@@std@@QBE?AV?$_Vector_const_iterator@V?$_Vector_val@UWeaponInfo@@V?$allocator@UWeaponInfo@@@std@@@std@@@2@XZ PROC ; std::vector<WeaponInfo,std::allocator<WeaponInfo> >::end, COMDAT
; _this$ = ecx

; 796  : 		{	// return iterator for end of nonmutable sequence

  00000	55		 push	 ebp
  00001	8b ec		 mov	 ebp, esp

; 797  : 		return (const_iterator(this->_Mylast, this));

  00003	8b 49 04	 mov	 ecx, DWORD PTR [ecx+4]
  00006	8b 45 08	 mov	 eax, DWORD PTR ___$ReturnUdt$[ebp]
  00009	89 08		 mov	 DWORD PTR [eax], ecx

; 798  : 		}

  0000b	5d		 pop	 ebp
  0000c	c2 04 00	 ret	 4
?end@?$vector@UWeaponInfo@@V?$allocator@UWeaponInfo@@@std@@@std@@QBE?AV?$_Vector_const_iterator@V?$_Vector_val@UWeaponInfo@@V?$allocator@UWeaponInfo@@@std@@@std@@@2@XZ ENDP ; std::vector<WeaponInfo,std::allocator<WeaponInfo> >::end
_TEXT	ENDS
PUBLIC	?begin@?$vector@UForceInfo@@V?$allocator@UForceInfo@@@std@@@std@@QBE?AV?$_Vector_const_iterator@V?$_Vector_val@UForceInfo@@V?$allocator@UForceInfo@@@std@@@std@@@2@XZ ; std::vector<ForceInfo,std::allocator<ForceInfo> >::begin
; Function compile flags: /Ogsp
;	COMDAT ?begin@?$vector@UForceInfo@@V?$allocator@UForceInfo@@@std@@@std@@QBE?AV?$_Vector_const_iterator@V?$_Vector_val@UForceInfo@@V?$allocator@UForceInfo@@@std@@@std@@@2@XZ
_TEXT	SEGMENT
___$ReturnUdt$ = 8					; size = 4
?begin@?$vector@UForceInfo@@V?$allocator@UForceInfo@@@std@@@std@@QBE?AV?$_Vector_const_iterator@V?$_Vector_val@UForceInfo@@V?$allocator@UForceInfo@@@std@@@std@@@2@XZ PROC ; std::vector<ForceInfo,std::allocator<ForceInfo> >::begin, COMDAT
; _this$ = ecx

; 786  : 		{	// return iterator for beginning of nonmutable sequence

  00000	55		 push	 ebp
  00001	8b ec		 mov	 ebp, esp

; 787  : 		return (const_iterator(this->_Myfirst, this));

  00003	8b 09		 mov	 ecx, DWORD PTR [ecx]
  00005	8b 45 08	 mov	 eax, DWORD PTR ___$ReturnUdt$[ebp]
  00008	89 08		 mov	 DWORD PTR [eax], ecx

; 788  : 		}

  0000a	5d		 pop	 ebp
  0000b	c2 04 00	 ret	 4
?begin@?$vector@UForceInfo@@V?$allocator@UForceInfo@@@std@@@std@@QBE?AV?$_Vector_const_iterator@V?$_Vector_val@UForceInfo@@V?$allocator@UForceInfo@@@std@@@std@@@2@XZ ENDP ; std::vector<ForceInfo,std::allocator<ForceInfo> >::begin
_TEXT	ENDS
PUBLIC	?end@?$vector@UForceInfo@@V?$allocator@UForceInfo@@@std@@@std@@QBE?AV?$_Vector_const_iterator@V?$_Vector_val@UForceInfo@@V?$allocator@UForceInfo@@@std@@@std@@@2@XZ ; std::vector<ForceInfo,std::allocator<ForceInfo> >::end
; Function compile flags: /Ogsp
;	COMDAT ?end@?$vector@UForceInfo@@V?$allocator@UForceInfo@@@std@@@std@@QBE?AV?$_Vector_const_iterator@V?$_Vector_val@UForceInfo@@V?$allocator@UForceInfo@@@std@@@std@@@2@XZ
_TEXT	SEGMENT
___$ReturnUdt$ = 8					; size = 4
?end@?$vector@UForceInfo@@V?$allocator@UForceInfo@@@std@@@std@@QBE?AV?$_Vector_const_iterator@V?$_Vector_val@UForceInfo@@V?$allocator@UForceInfo@@@std@@@std@@@2@XZ PROC ; std::vector<ForceInfo,std::allocator<ForceInfo> >::end, COMDAT
; _this$ = ecx

; 796  : 		{	// return iterator for end of nonmutable sequence

  00000	55		 push	 ebp
  00001	8b ec		 mov	 ebp, esp

; 797  : 		return (const_iterator(this->_Mylast, this));

  00003	8b 49 04	 mov	 ecx, DWORD PTR [ecx+4]
  00006	8b 45 08	 mov	 eax, DWORD PTR ___$ReturnUdt$[ebp]
  00009	89 08		 mov	 DWORD PTR [eax], ecx

; 798  : 		}

  0000b	5d		 pop	 ebp
  0000c	c2 04 00	 ret	 4
?end@?$vector@UForceInfo@@V?$allocator@UForceInfo@@@std@@@std@@QBE?AV?$_Vector_const_iterator@V?$_Vector_val@UForceInfo@@V?$allocator@UForceInfo@@@std@@@std@@@2@XZ ENDP ; std::vector<ForceInfo,std::allocator<ForceInfo> >::end
_TEXT	ENDS
PUBLIC	??D?$_Vector_iterator@V?$_Vector_val@UWeaponInfo@@V?$allocator@UWeaponInfo@@@std@@@std@@@std@@QBEAAUWeaponInfo@@XZ ; std::_Vector_iterator<std::_Vector_val<WeaponInfo,std::allocator<WeaponInfo> > >::operator*
; Function compile flags: /Ogsp
;	COMDAT ??D?$_Vector_iterator@V?$_Vector_val@UWeaponInfo@@V?$allocator@UWeaponInfo@@@std@@@std@@@std@@QBEAAUWeaponInfo@@XZ
_TEXT	SEGMENT
??D?$_Vector_iterator@V?$_Vector_val@UWeaponInfo@@V?$allocator@UWeaponInfo@@@std@@@std@@@std@@QBEAAUWeaponInfo@@XZ PROC ; std::_Vector_iterator<std::_Vector_val<WeaponInfo,std::allocator<WeaponInfo> > >::operator*, COMDAT
; _this$ = ecx

; 322  : 		return ((reference)**(_Mybase *)this);

  00000	8b 01		 mov	 eax, DWORD PTR [ecx]

; 323  : 		}

  00002	c3		 ret	 0
??D?$_Vector_iterator@V?$_Vector_val@UWeaponInfo@@V?$allocator@UWeaponInfo@@@std@@@std@@@std@@QBEAAUWeaponInfo@@XZ ENDP ; std::_Vector_iterator<std::_Vector_val<WeaponInfo,std::allocator<WeaponInfo> > >::operator*
_TEXT	ENDS
PUBLIC	__$ArrayPad$
PUBLIC	??$LoadFloat_e@$0BD@@ioINILoader@@QAEMAAY0BD@$$CBDM@Z ; ioINILoader::LoadFloat_e<19>
EXTRN	__imp_?LoadFloat@ioINILoader@@QAEMPBDM@Z:PROC
; Function compile flags: /Ogsp
; File d:\lost saga for developer\youtube\tutorial\source\src\io3dengine\ioiniloader.h
;	COMDAT ??$LoadFloat_e@$0BD@@ioINILoader@@QAEMAAY0BD@$$CBDM@Z
_TEXT	SEGMENT
__k$ = -28						; size = 19
__$ArrayPad$ = -4					; size = 4
_k$ = 8							; size = 4
_f$ = 12						; size = 4
??$LoadFloat_e@$0BD@@ioINILoader@@QAEMAAY0BD@$$CBDM@Z PROC ; ioINILoader::LoadFloat_e<19>, COMDAT
; _this$ = ecx

; 135  : 	{

  00000	55		 push	 ebp
  00001	8b ec		 mov	 ebp, esp
  00003	83 ec 1c	 sub	 esp, 28			; 0000001cH
  00006	a1 00 00 00 00	 mov	 eax, DWORD PTR ___security_cookie
  0000b	33 c5		 xor	 eax, ebp
  0000d	89 45 fc	 mov	 DWORD PTR __$ArrayPad$[ebp], eax
  00010	8b 45 08	 mov	 eax, DWORD PTR _k$[ebp]

; 136  : 		_ENCSTR(k, _k);

  00013	8a 10		 mov	 dl, BYTE PTR [eax]
  00015	56		 push	 esi
  00016	8b f1		 mov	 esi, ecx
  00018	84 d2		 test	 dl, dl
  0001a	0f 84 cf 01 00
	00		 je	 $LN96@LoadFloat_
  00020	80 f2 ed	 xor	 dl, -19			; ffffffedH
  00023	88 55 e4	 mov	 BYTE PTR __k$[ebp], dl
  00026	8a 50 01	 mov	 dl, BYTE PTR [eax+1]
  00029	84 d2		 test	 dl, dl
  0002b	0f 84 b8 01 00
	00		 je	 $LN95@LoadFloat_
  00031	b1 ec		 mov	 cl, -20			; ffffffecH
  00033	32 d1		 xor	 dl, cl
  00035	88 55 e5	 mov	 BYTE PTR __k$[ebp+1], dl
  00038	8a 50 02	 mov	 dl, BYTE PTR [eax+2]
  0003b	84 d2		 test	 dl, dl
  0003d	0f 84 a0 01 00
	00		 je	 $LN94@LoadFloat_
  00043	80 f2 eb	 xor	 dl, -21			; ffffffebH
  00046	88 55 e6	 mov	 BYTE PTR __k$[ebp+2], dl
  00049	8a 50 03	 mov	 dl, BYTE PTR [eax+3]
  0004c	84 d2		 test	 dl, dl
  0004e	0f 84 89 01 00
	00		 je	 $LN93@LoadFloat_
  00054	80 f2 ea	 xor	 dl, -22			; ffffffeaH
  00057	88 55 e7	 mov	 BYTE PTR __k$[ebp+3], dl
  0005a	8a 50 04	 mov	 dl, BYTE PTR [eax+4]
  0005d	84 d2		 test	 dl, dl
  0005f	0f 84 72 01 00
	00		 je	 $LN92@LoadFloat_
  00065	80 f2 ed	 xor	 dl, -19			; ffffffedH
  00068	88 55 e8	 mov	 BYTE PTR __k$[ebp+4], dl
  0006b	8a 50 05	 mov	 dl, BYTE PTR [eax+5]
  0006e	84 d2		 test	 dl, dl
  00070	0f 84 5c 01 00
	00		 je	 $LN91@LoadFloat_
  00076	32 d1		 xor	 dl, cl
  00078	88 55 e9	 mov	 BYTE PTR __k$[ebp+5], dl
  0007b	8a 50 06	 mov	 dl, BYTE PTR [eax+6]
  0007e	84 d2		 test	 dl, dl
  00080	0f 84 46 01 00
	00		 je	 $LN90@LoadFloat_
  00086	80 f2 eb	 xor	 dl, -21			; ffffffebH
  00089	88 55 ea	 mov	 BYTE PTR __k$[ebp+6], dl
  0008c	8a 50 07	 mov	 dl, BYTE PTR [eax+7]
  0008f	84 d2		 test	 dl, dl
  00091	0f 84 2f 01 00
	00		 je	 $LN89@LoadFloat_
  00097	80 f2 ea	 xor	 dl, -22			; ffffffeaH
  0009a	88 55 eb	 mov	 BYTE PTR __k$[ebp+7], dl
  0009d	8a 50 08	 mov	 dl, BYTE PTR [eax+8]
  000a0	84 d2		 test	 dl, dl
  000a2	0f 84 18 01 00
	00		 je	 $LN88@LoadFloat_
  000a8	80 f2 ed	 xor	 dl, -19			; ffffffedH
  000ab	88 55 ec	 mov	 BYTE PTR __k$[ebp+8], dl
  000ae	8a 50 09	 mov	 dl, BYTE PTR [eax+9]
  000b1	84 d2		 test	 dl, dl
  000b3	0f 84 02 01 00
	00		 je	 $LN87@LoadFloat_
  000b9	32 d1		 xor	 dl, cl
  000bb	88 55 ed	 mov	 BYTE PTR __k$[ebp+9], dl
  000be	8a 50 0a	 mov	 dl, BYTE PTR [eax+10]
  000c1	84 d2		 test	 dl, dl
  000c3	0f 84 ec 00 00
	00		 je	 $LN86@LoadFloat_
  000c9	80 f2 eb	 xor	 dl, -21			; ffffffebH
  000cc	88 55 ee	 mov	 BYTE PTR __k$[ebp+10], dl
  000cf	8a 50 0b	 mov	 dl, BYTE PTR [eax+11]
  000d2	84 d2		 test	 dl, dl
  000d4	0f 84 d5 00 00
	00		 je	 $LN85@LoadFloat_
  000da	80 f2 ea	 xor	 dl, -22			; ffffffeaH
  000dd	88 55 ef	 mov	 BYTE PTR __k$[ebp+11], dl
  000e0	8a 50 0c	 mov	 dl, BYTE PTR [eax+12]
  000e3	84 d2		 test	 dl, dl
  000e5	0f 84 be 00 00
	00		 je	 $LN84@LoadFloat_
  000eb	80 f2 ed	 xor	 dl, -19			; ffffffedH
  000ee	88 55 f0	 mov	 BYTE PTR __k$[ebp+12], dl
  000f1	8a 50 0d	 mov	 dl, BYTE PTR [eax+13]
  000f4	84 d2		 test	 dl, dl
  000f6	0f 84 a8 00 00
	00		 je	 $LN83@LoadFloat_
  000fc	32 d1		 xor	 dl, cl
  000fe	88 55 f1	 mov	 BYTE PTR __k$[ebp+13], dl
  00101	8a 50 0e	 mov	 dl, BYTE PTR [eax+14]
  00104	84 d2		 test	 dl, dl
  00106	0f 84 92 00 00
	00		 je	 $LN82@LoadFloat_
  0010c	80 f2 eb	 xor	 dl, -21			; ffffffebH
  0010f	88 55 f2	 mov	 BYTE PTR __k$[ebp+14], dl
  00112	8a 50 0f	 mov	 dl, BYTE PTR [eax+15]
  00115	84 d2		 test	 dl, dl
  00117	74 7f		 je	 SHORT $LN81@LoadFloat_
  00119	80 f2 ea	 xor	 dl, -22			; ffffffeaH
  0011c	88 55 f3	 mov	 BYTE PTR __k$[ebp+15], dl
  0011f	8a 50 10	 mov	 dl, BYTE PTR [eax+16]
  00122	84 d2		 test	 dl, dl
  00124	74 6c		 je	 SHORT $LN80@LoadFloat_
  00126	80 f2 ed	 xor	 dl, -19			; ffffffedH
  00129	88 55 f4	 mov	 BYTE PTR __k$[ebp+16], dl
  0012c	8a 50 11	 mov	 dl, BYTE PTR [eax+17]
  0012f	84 d2		 test	 dl, dl
  00131	74 5a		 je	 SHORT $LN79@LoadFloat_
  00133	32 d1		 xor	 dl, cl
  00135	80 78 12 00	 cmp	 BYTE PTR [eax+18], 0
  00139	88 55 f5	 mov	 BYTE PTR __k$[ebp+17], dl
  0013c	0f 84 b1 00 00
	00		 je	 $LN1@LoadFloat_
  00142	8a 50 13	 mov	 dl, BYTE PTR [eax+19]
  00145	84 d2		 test	 dl, dl
  00147	74 3e		 je	 SHORT $LN77@LoadFloat_
  00149	80 f2 ea	 xor	 dl, -22			; ffffffeaH
  0014c	88 55 f7	 mov	 BYTE PTR __k$[ebp+19], dl
  0014f	8a 50 14	 mov	 dl, BYTE PTR [eax+20]
  00152	84 d2		 test	 dl, dl
  00154	74 2b		 je	 SHORT $LN76@LoadFloat_
  00156	80 f2 ed	 xor	 dl, -19			; ffffffedH
  00159	88 55 f8	 mov	 BYTE PTR __k$[ebp+20], dl
  0015c	8a 50 15	 mov	 dl, BYTE PTR [eax+21]
  0015f	84 d2		 test	 dl, dl
  00161	74 19		 je	 SHORT $LN75@LoadFloat_
  00163	8a 40 16	 mov	 al, BYTE PTR [eax+22]
  00166	32 d1		 xor	 dl, cl
  00168	88 55 f9	 mov	 BYTE PTR __k$[ebp+21], dl
  0016b	84 c0		 test	 al, al
  0016d	74 07		 je	 SHORT $LN74@LoadFloat_
  0016f	34 eb		 xor	 al, -21			; ffffffebH
  00171	88 45 fa	 mov	 BYTE PTR __k$[ebp+22], al
  00174	eb 7d		 jmp	 SHORT $LN1@LoadFloat_
$LN74@LoadFloat_:
  00176	c6 45 fa eb	 mov	 BYTE PTR __k$[ebp+22], -21 ; ffffffebH
  0017a	eb 77		 jmp	 SHORT $LN1@LoadFloat_
$LN75@LoadFloat_:
  0017c	88 4d f9	 mov	 BYTE PTR __k$[ebp+21], cl
  0017f	eb 72		 jmp	 SHORT $LN1@LoadFloat_
$LN76@LoadFloat_:
  00181	c6 45 f8 ed	 mov	 BYTE PTR __k$[ebp+20], -19 ; ffffffedH
  00185	eb 6c		 jmp	 SHORT $LN1@LoadFloat_
$LN77@LoadFloat_:
  00187	c6 45 f7 ea	 mov	 BYTE PTR __k$[ebp+19], -22 ; ffffffeaH
  0018b	eb 66		 jmp	 SHORT $LN1@LoadFloat_
$LN79@LoadFloat_:
  0018d	88 4d f5	 mov	 BYTE PTR __k$[ebp+17], cl
  00190	eb 61		 jmp	 SHORT $LN1@LoadFloat_
$LN80@LoadFloat_:
  00192	c6 45 f4 ed	 mov	 BYTE PTR __k$[ebp+16], -19 ; ffffffedH
  00196	eb 5b		 jmp	 SHORT $LN1@LoadFloat_
$LN81@LoadFloat_:
  00198	c6 45 f3 ea	 mov	 BYTE PTR __k$[ebp+15], -22 ; ffffffeaH
  0019c	eb 55		 jmp	 SHORT $LN1@LoadFloat_
$LN82@LoadFloat_:
  0019e	c6 45 f2 eb	 mov	 BYTE PTR __k$[ebp+14], -21 ; ffffffebH
  001a2	eb 4f		 jmp	 SHORT $LN1@LoadFloat_
$LN83@LoadFloat_:
  001a4	88 4d f1	 mov	 BYTE PTR __k$[ebp+13], cl
  001a7	eb 4a		 jmp	 SHORT $LN1@LoadFloat_
$LN84@LoadFloat_:
  001a9	c6 45 f0 ed	 mov	 BYTE PTR __k$[ebp+12], -19 ; ffffffedH
  001ad	eb 44		 jmp	 SHORT $LN1@LoadFloat_
$LN85@LoadFloat_:
  001af	c6 45 ef ea	 mov	 BYTE PTR __k$[ebp+11], -22 ; ffffffeaH
  001b3	eb 3e		 jmp	 SHORT $LN1@LoadFloat_
$LN86@LoadFloat_:
  001b5	c6 45 ee eb	 mov	 BYTE PTR __k$[ebp+10], -21 ; ffffffebH
  001b9	eb 38		 jmp	 SHORT $LN1@LoadFloat_
$LN87@LoadFloat_:
  001bb	88 4d ed	 mov	 BYTE PTR __k$[ebp+9], cl
  001be	eb 33		 jmp	 SHORT $LN1@LoadFloat_
$LN88@LoadFloat_:
  001c0	c6 45 ec ed	 mov	 BYTE PTR __k$[ebp+8], -19 ; ffffffedH
  001c4	eb 2d		 jmp	 SHORT $LN1@LoadFloat_
$LN89@LoadFloat_:
  001c6	c6 45 eb ea	 mov	 BYTE PTR __k$[ebp+7], -22 ; ffffffeaH
  001ca	eb 27		 jmp	 SHORT $LN1@LoadFloat_
$LN90@LoadFloat_:
  001cc	c6 45 ea eb	 mov	 BYTE PTR __k$[ebp+6], -21 ; ffffffebH
  001d0	eb 21		 jmp	 SHORT $LN1@LoadFloat_
$LN91@LoadFloat_:
  001d2	88 4d e9	 mov	 BYTE PTR __k$[ebp+5], cl
  001d5	eb 1c		 jmp	 SHORT $LN1@LoadFloat_
$LN92@LoadFloat_:
  001d7	c6 45 e8 ed	 mov	 BYTE PTR __k$[ebp+4], -19 ; ffffffedH
  001db	eb 16		 jmp	 SHORT $LN1@LoadFloat_
$LN93@LoadFloat_:
  001dd	c6 45 e7 ea	 mov	 BYTE PTR __k$[ebp+3], -22 ; ffffffeaH
  001e1	eb 10		 jmp	 SHORT $LN1@LoadFloat_
$LN94@LoadFloat_:
  001e3	c6 45 e6 eb	 mov	 BYTE PTR __k$[ebp+2], -21 ; ffffffebH
  001e7	eb 0a		 jmp	 SHORT $LN1@LoadFloat_
$LN95@LoadFloat_:
  001e9	c6 45 e5 ec	 mov	 BYTE PTR __k$[ebp+1], -20 ; ffffffecH
  001ed	eb 04		 jmp	 SHORT $LN1@LoadFloat_
$LN96@LoadFloat_:
  001ef	c6 45 e4 ed	 mov	 BYTE PTR __k$[ebp], -19	; ffffffedH
$LN1@LoadFloat_:
  001f3	6a 04		 push	 4
  001f5	8d 45 e4	 lea	 eax, DWORD PTR __k$[ebp]
  001f8	c6 45 f6 00	 mov	 BYTE PTR __k$[ebp+18], 0
  001fc	5a		 pop	 edx
$LL104@LoadFloat_:
  001fd	81 30 ed ec eb
	ea		 xor	 DWORD PTR [eax], -353637139 ; eaebecedH
  00203	83 c0 04	 add	 eax, 4
  00206	4a		 dec	 edx
  00207	75 f4		 jne	 SHORT $LL104@LoadFloat_
  00209	6a 10		 push	 16			; 00000010H
  0020b	58		 pop	 eax
$LL101@LoadFloat_:
  0020c	8b c8		 mov	 ecx, eax
  0020e	81 e1 03 00 00
	80		 and	 ecx, -2147483645	; 80000003H
  00214	79 05		 jns	 SHORT $LN111@LoadFloat_
  00216	49		 dec	 ecx
  00217	83 c9 fc	 or	 ecx, -4			; fffffffcH
  0021a	41		 inc	 ecx
$LN111@LoadFloat_:
  0021b	b2 ed		 mov	 dl, -19			; ffffffedH
  0021d	2a d1		 sub	 dl, cl
  0021f	30 54 05 e4	 xor	 BYTE PTR __k$[ebp+eax], dl
  00223	40		 inc	 eax
  00224	83 f8 12	 cmp	 eax, 18			; 00000012H
  00227	7c e3		 jl	 SHORT $LL101@LoadFloat_

; 137  : 		return LoadFloat(_k, f);

  00229	f3 0f 10 45 0c	 movss	 xmm0, DWORD PTR _f$[ebp]
  0022e	51		 push	 ecx
  0022f	8d 45 e4	 lea	 eax, DWORD PTR __k$[ebp]
  00232	f3 0f 11 04 24	 movss	 DWORD PTR [esp], xmm0
  00237	50		 push	 eax
  00238	8b ce		 mov	 ecx, esi
  0023a	ff 15 00 00 00
	00		 call	 DWORD PTR __imp_?LoadFloat@ioINILoader@@QAEMPBDM@Z

; 138  : 	}

  00240	8b 4d fc	 mov	 ecx, DWORD PTR __$ArrayPad$[ebp]
  00243	33 cd		 xor	 ecx, ebp
  00245	5e		 pop	 esi
  00246	e8 00 00 00 00	 call	 @__security_check_cookie@4
  0024b	c9		 leave
  0024c	c2 08 00	 ret	 8
??$LoadFloat_e@$0BD@@ioINILoader@@QAEMAAY0BD@$$CBDM@Z ENDP ; ioINILoader::LoadFloat_e<19>
_TEXT	ENDS
PUBLIC	__$ArrayPad$
PUBLIC	??$LoadFloat_e@$0BI@@ioINILoader@@QAEMAAY0BI@$$CBDM@Z ; ioINILoader::LoadFloat_e<24>
; Function compile flags: /Ogsp
;	COMDAT ??$LoadFloat_e@$0BI@@ioINILoader@@QAEMAAY0BI@$$CBDM@Z
_TEXT	SEGMENT
__k$ = -32						; size = 24
__$ArrayPad$ = -4					; size = 4
_k$ = 8							; size = 4
_f$ = 12						; size = 4
??$LoadFloat_e@$0BI@@ioINILoader@@QAEMAAY0BI@$$CBDM@Z PROC ; ioINILoader::LoadFloat_e<24>, COMDAT
; _this$ = ecx

; 135  : 	{

  00000	55		 push	 ebp
  00001	8b ec		 mov	 ebp, esp
  00003	83 ec 20	 sub	 esp, 32			; 00000020H
  00006	a1 00 00 00 00	 mov	 eax, DWORD PTR ___security_cookie
  0000b	33 c5		 xor	 eax, ebp
  0000d	89 45 fc	 mov	 DWORD PTR __$ArrayPad$[ebp], eax
  00010	8b 45 08	 mov	 eax, DWORD PTR _k$[ebp]

; 136  : 		_ENCSTR(k, _k);

  00013	8a 10		 mov	 dl, BYTE PTR [eax]
  00015	53		 push	 ebx
  00016	56		 push	 esi
  00017	8b f1		 mov	 esi, ecx
  00019	84 d2		 test	 dl, dl
  0001b	0f 84 45 02 00
	00		 je	 $LN96@LoadFloat_@2
  00021	80 f2 ed	 xor	 dl, -19			; ffffffedH
  00024	88 55 e0	 mov	 BYTE PTR __k$[ebp], dl
  00027	8a 50 01	 mov	 dl, BYTE PTR [eax+1]
  0002a	84 d2		 test	 dl, dl
  0002c	0f 84 2e 02 00
	00		 je	 $LN95@LoadFloat_@2
  00032	b3 ec		 mov	 bl, -20			; ffffffecH
  00034	32 d3		 xor	 dl, bl
  00036	88 55 e1	 mov	 BYTE PTR __k$[ebp+1], dl
  00039	8a 50 02	 mov	 dl, BYTE PTR [eax+2]
  0003c	84 d2		 test	 dl, dl
  0003e	0f 84 16 02 00
	00		 je	 $LN94@LoadFloat_@2
  00044	b1 eb		 mov	 cl, -21			; ffffffebH
  00046	32 d1		 xor	 dl, cl
  00048	88 55 e2	 mov	 BYTE PTR __k$[ebp+2], dl
  0004b	8a 50 03	 mov	 dl, BYTE PTR [eax+3]
  0004e	84 d2		 test	 dl, dl
  00050	0f 84 fe 01 00
	00		 je	 $LN93@LoadFloat_@2
  00056	80 f2 ea	 xor	 dl, -22			; ffffffeaH
  00059	88 55 e3	 mov	 BYTE PTR __k$[ebp+3], dl
  0005c	8a 50 04	 mov	 dl, BYTE PTR [eax+4]
  0005f	84 d2		 test	 dl, dl
  00061	0f 84 e7 01 00
	00		 je	 $LN92@LoadFloat_@2
  00067	80 f2 ed	 xor	 dl, -19			; ffffffedH
  0006a	88 55 e4	 mov	 BYTE PTR __k$[ebp+4], dl
  0006d	8a 50 05	 mov	 dl, BYTE PTR [eax+5]
  00070	84 d2		 test	 dl, dl
  00072	0f 84 d1 01 00
	00		 je	 $LN91@LoadFloat_@2
  00078	32 d3		 xor	 dl, bl
  0007a	88 55 e5	 mov	 BYTE PTR __k$[ebp+5], dl
  0007d	8a 50 06	 mov	 dl, BYTE PTR [eax+6]
  00080	84 d2		 test	 dl, dl
  00082	0f 84 bc 01 00
	00		 je	 $LN90@LoadFloat_@2
  00088	32 d1		 xor	 dl, cl
  0008a	88 55 e6	 mov	 BYTE PTR __k$[ebp+6], dl
  0008d	8a 50 07	 mov	 dl, BYTE PTR [eax+7]
  00090	84 d2		 test	 dl, dl
  00092	0f 84 a6 01 00
	00		 je	 $LN89@LoadFloat_@2
  00098	80 f2 ea	 xor	 dl, -22			; ffffffeaH
  0009b	88 55 e7	 mov	 BYTE PTR __k$[ebp+7], dl
  0009e	8a 50 08	 mov	 dl, BYTE PTR [eax+8]
  000a1	84 d2		 test	 dl, dl
  000a3	0f 84 8f 01 00
	00		 je	 $LN88@LoadFloat_@2
  000a9	80 f2 ed	 xor	 dl, -19			; ffffffedH
  000ac	88 55 e8	 mov	 BYTE PTR __k$[ebp+8], dl
  000af	8a 50 09	 mov	 dl, BYTE PTR [eax+9]
  000b2	84 d2		 test	 dl, dl
  000b4	0f 84 79 01 00
	00		 je	 $LN87@LoadFloat_@2
  000ba	32 d3		 xor	 dl, bl
  000bc	88 55 e9	 mov	 BYTE PTR __k$[ebp+9], dl
  000bf	8a 50 0a	 mov	 dl, BYTE PTR [eax+10]
  000c2	84 d2		 test	 dl, dl
  000c4	0f 84 64 01 00
	00		 je	 $LN86@LoadFloat_@2
  000ca	32 d1		 xor	 dl, cl
  000cc	88 55 ea	 mov	 BYTE PTR __k$[ebp+10], dl
  000cf	8a 50 0b	 mov	 dl, BYTE PTR [eax+11]
  000d2	84 d2		 test	 dl, dl
  000d4	0f 84 4e 01 00
	00		 je	 $LN85@LoadFloat_@2
  000da	80 f2 ea	 xor	 dl, -22			; ffffffeaH
  000dd	88 55 eb	 mov	 BYTE PTR __k$[ebp+11], dl
  000e0	8a 50 0c	 mov	 dl, BYTE PTR [eax+12]
  000e3	84 d2		 test	 dl, dl
  000e5	0f 84 37 01 00
	00		 je	 $LN84@LoadFloat_@2
  000eb	80 f2 ed	 xor	 dl, -19			; ffffffedH
  000ee	88 55 ec	 mov	 BYTE PTR __k$[ebp+12], dl
  000f1	8a 50 0d	 mov	 dl, BYTE PTR [eax+13]
  000f4	84 d2		 test	 dl, dl
  000f6	0f 84 21 01 00
	00		 je	 $LN83@LoadFloat_@2
  000fc	32 d3		 xor	 dl, bl
  000fe	88 55 ed	 mov	 BYTE PTR __k$[ebp+13], dl
  00101	8a 50 0e	 mov	 dl, BYTE PTR [eax+14]
  00104	84 d2		 test	 dl, dl
  00106	0f 84 0c 01 00
	00		 je	 $LN82@LoadFloat_@2
  0010c	32 d1		 xor	 dl, cl
  0010e	88 55 ee	 mov	 BYTE PTR __k$[ebp+14], dl
  00111	8a 50 0f	 mov	 dl, BYTE PTR [eax+15]
  00114	84 d2		 test	 dl, dl
  00116	0f 84 f6 00 00
	00		 je	 $LN81@LoadFloat_@2
  0011c	80 f2 ea	 xor	 dl, -22			; ffffffeaH
  0011f	88 55 ef	 mov	 BYTE PTR __k$[ebp+15], dl
  00122	8a 50 10	 mov	 dl, BYTE PTR [eax+16]
  00125	84 d2		 test	 dl, dl
  00127	0f 84 df 00 00
	00		 je	 $LN80@LoadFloat_@2
  0012d	80 f2 ed	 xor	 dl, -19			; ffffffedH
  00130	88 55 f0	 mov	 BYTE PTR __k$[ebp+16], dl
  00133	8a 50 11	 mov	 dl, BYTE PTR [eax+17]
  00136	84 d2		 test	 dl, dl
  00138	0f 84 c9 00 00
	00		 je	 $LN79@LoadFloat_@2
  0013e	32 d3		 xor	 dl, bl
  00140	88 55 f1	 mov	 BYTE PTR __k$[ebp+17], dl
  00143	8a 50 12	 mov	 dl, BYTE PTR [eax+18]
  00146	84 d2		 test	 dl, dl
  00148	0f 84 b4 00 00
	00		 je	 $LN78@LoadFloat_@2
  0014e	32 d1		 xor	 dl, cl
  00150	88 55 f2	 mov	 BYTE PTR __k$[ebp+18], dl
  00153	8a 50 13	 mov	 dl, BYTE PTR [eax+19]
  00156	84 d2		 test	 dl, dl
  00158	0f 84 9e 00 00
	00		 je	 $LN77@LoadFloat_@2
  0015e	80 f2 ea	 xor	 dl, -22			; ffffffeaH
  00161	88 55 f3	 mov	 BYTE PTR __k$[ebp+19], dl
  00164	8a 50 14	 mov	 dl, BYTE PTR [eax+20]
  00167	84 d2		 test	 dl, dl
  00169	0f 84 87 00 00
	00		 je	 $LN76@LoadFloat_@2
  0016f	80 f2 ed	 xor	 dl, -19			; ffffffedH
  00172	88 55 f4	 mov	 BYTE PTR __k$[ebp+20], dl
  00175	8a 50 15	 mov	 dl, BYTE PTR [eax+21]
  00178	84 d2		 test	 dl, dl
  0017a	74 75		 je	 SHORT $LN75@LoadFloat_@2
  0017c	32 d3		 xor	 dl, bl
  0017e	88 55 f5	 mov	 BYTE PTR __k$[ebp+21], dl
  00181	8a 50 16	 mov	 dl, BYTE PTR [eax+22]
  00184	84 d2		 test	 dl, dl
  00186	74 64		 je	 SHORT $LN74@LoadFloat_@2
  00188	32 d1		 xor	 dl, cl
  0018a	80 78 17 00	 cmp	 BYTE PTR [eax+23], 0
  0018e	88 55 f6	 mov	 BYTE PTR __k$[ebp+22], dl
  00191	0f 84 d3 00 00
	00		 je	 $LN1@LoadFloat_@2
  00197	8a 50 18	 mov	 dl, BYTE PTR [eax+24]
  0019a	84 d2		 test	 dl, dl
  0019c	74 48		 je	 SHORT $LN72@LoadFloat_@2
  0019e	80 f2 ed	 xor	 dl, -19			; ffffffedH
  001a1	88 55 f8	 mov	 BYTE PTR __k$[ebp+24], dl
  001a4	8a 50 19	 mov	 dl, BYTE PTR [eax+25]
  001a7	84 d2		 test	 dl, dl
  001a9	74 33		 je	 SHORT $LN71@LoadFloat_@2
  001ab	32 d3		 xor	 dl, bl
  001ad	88 55 f9	 mov	 BYTE PTR __k$[ebp+25], dl
  001b0	8a 50 1a	 mov	 dl, BYTE PTR [eax+26]
  001b3	84 d2		 test	 dl, dl
  001b5	74 1f		 je	 SHORT $LN70@LoadFloat_@2
  001b7	8a 40 1b	 mov	 al, BYTE PTR [eax+27]
  001ba	32 d1		 xor	 dl, cl
  001bc	88 55 fa	 mov	 BYTE PTR __k$[ebp+26], dl
  001bf	84 c0		 test	 al, al
  001c1	74 0a		 je	 SHORT $LN69@LoadFloat_@2
  001c3	34 ea		 xor	 al, -22			; ffffffeaH
  001c5	88 45 fb	 mov	 BYTE PTR __k$[ebp+27], al
  001c8	e9 9d 00 00 00	 jmp	 $LN1@LoadFloat_@2
$LN69@LoadFloat_@2:
  001cd	c6 45 fb ea	 mov	 BYTE PTR __k$[ebp+27], -22 ; ffffffeaH
  001d1	e9 94 00 00 00	 jmp	 $LN1@LoadFloat_@2
$LN70@LoadFloat_@2:
  001d6	88 4d fa	 mov	 BYTE PTR __k$[ebp+26], cl
  001d9	e9 8c 00 00 00	 jmp	 $LN1@LoadFloat_@2
$LN71@LoadFloat_@2:
  001de	88 5d f9	 mov	 BYTE PTR __k$[ebp+25], bl
  001e1	e9 84 00 00 00	 jmp	 $LN1@LoadFloat_@2
$LN72@LoadFloat_@2:
  001e6	c6 45 f8 ed	 mov	 BYTE PTR __k$[ebp+24], -19 ; ffffffedH
  001ea	eb 7e		 jmp	 SHORT $LN1@LoadFloat_@2
$LN74@LoadFloat_@2:
  001ec	88 4d f6	 mov	 BYTE PTR __k$[ebp+22], cl
  001ef	eb 79		 jmp	 SHORT $LN1@LoadFloat_@2
$LN75@LoadFloat_@2:
  001f1	88 5d f5	 mov	 BYTE PTR __k$[ebp+21], bl
  001f4	eb 74		 jmp	 SHORT $LN1@LoadFloat_@2
$LN76@LoadFloat_@2:
  001f6	c6 45 f4 ed	 mov	 BYTE PTR __k$[ebp+20], -19 ; ffffffedH
  001fa	eb 6e		 jmp	 SHORT $LN1@LoadFloat_@2
$LN77@LoadFloat_@2:
  001fc	c6 45 f3 ea	 mov	 BYTE PTR __k$[ebp+19], -22 ; ffffffeaH
  00200	eb 68		 jmp	 SHORT $LN1@LoadFloat_@2
$LN78@LoadFloat_@2:
  00202	88 4d f2	 mov	 BYTE PTR __k$[ebp+18], cl
  00205	eb 63		 jmp	 SHORT $LN1@LoadFloat_@2
$LN79@LoadFloat_@2:
  00207	88 5d f1	 mov	 BYTE PTR __k$[ebp+17], bl
  0020a	eb 5e		 jmp	 SHORT $LN1@LoadFloat_@2
$LN80@LoadFloat_@2:
  0020c	c6 45 f0 ed	 mov	 BYTE PTR __k$[ebp+16], -19 ; ffffffedH
  00210	eb 58		 jmp	 SHORT $LN1@LoadFloat_@2
$LN81@LoadFloat_@2:
  00212	c6 45 ef ea	 mov	 BYTE PTR __k$[ebp+15], -22 ; ffffffeaH
  00216	eb 52		 jmp	 SHORT $LN1@LoadFloat_@2
$LN82@LoadFloat_@2:
  00218	88 4d ee	 mov	 BYTE PTR __k$[ebp+14], cl
  0021b	eb 4d		 jmp	 SHORT $LN1@LoadFloat_@2
$LN83@LoadFloat_@2:
  0021d	88 5d ed	 mov	 BYTE PTR __k$[ebp+13], bl
  00220	eb 48		 jmp	 SHORT $LN1@LoadFloat_@2
$LN84@LoadFloat_@2:
  00222	c6 45 ec ed	 mov	 BYTE PTR __k$[ebp+12], -19 ; ffffffedH
  00226	eb 42		 jmp	 SHORT $LN1@LoadFloat_@2
$LN85@LoadFloat_@2:
  00228	c6 45 eb ea	 mov	 BYTE PTR __k$[ebp+11], -22 ; ffffffeaH
  0022c	eb 3c		 jmp	 SHORT $LN1@LoadFloat_@2
$LN86@LoadFloat_@2:
  0022e	88 4d ea	 mov	 BYTE PTR __k$[ebp+10], cl
  00231	eb 37		 jmp	 SHORT $LN1@LoadFloat_@2
$LN87@LoadFloat_@2:
  00233	88 5d e9	 mov	 BYTE PTR __k$[ebp+9], bl
  00236	eb 32		 jmp	 SHORT $LN1@LoadFloat_@2
$LN88@LoadFloat_@2:
  00238	c6 45 e8 ed	 mov	 BYTE PTR __k$[ebp+8], -19 ; ffffffedH
  0023c	eb 2c		 jmp	 SHORT $LN1@LoadFloat_@2
$LN89@LoadFloat_@2:
  0023e	c6 45 e7 ea	 mov	 BYTE PTR __k$[ebp+7], -22 ; ffffffeaH
  00242	eb 26		 jmp	 SHORT $LN1@LoadFloat_@2
$LN90@LoadFloat_@2:
  00244	88 4d e6	 mov	 BYTE PTR __k$[ebp+6], cl
  00247	eb 21		 jmp	 SHORT $LN1@LoadFloat_@2
$LN91@LoadFloat_@2:
  00249	88 5d e5	 mov	 BYTE PTR __k$[ebp+5], bl
  0024c	eb 1c		 jmp	 SHORT $LN1@LoadFloat_@2
$LN92@LoadFloat_@2:
  0024e	c6 45 e4 ed	 mov	 BYTE PTR __k$[ebp+4], -19 ; ffffffedH
  00252	eb 16		 jmp	 SHORT $LN1@LoadFloat_@2
$LN93@LoadFloat_@2:
  00254	c6 45 e3 ea	 mov	 BYTE PTR __k$[ebp+3], -22 ; ffffffeaH
  00258	eb 10		 jmp	 SHORT $LN1@LoadFloat_@2
$LN94@LoadFloat_@2:
  0025a	c6 45 e2 eb	 mov	 BYTE PTR __k$[ebp+2], -21 ; ffffffebH
  0025e	eb 0a		 jmp	 SHORT $LN1@LoadFloat_@2
$LN95@LoadFloat_@2:
  00260	c6 45 e1 ec	 mov	 BYTE PTR __k$[ebp+1], -20 ; ffffffecH
  00264	eb 04		 jmp	 SHORT $LN1@LoadFloat_@2
$LN96@LoadFloat_@2:
  00266	c6 45 e0 ed	 mov	 BYTE PTR __k$[ebp], -19	; ffffffedH
$LN1@LoadFloat_@2:
  0026a	6a 05		 push	 5
  0026c	8d 45 e0	 lea	 eax, DWORD PTR __k$[ebp]
  0026f	c6 45 f7 00	 mov	 BYTE PTR __k$[ebp+23], 0
  00273	5a		 pop	 edx
$LL104@LoadFloat_@2:
  00274	81 30 ed ec eb
	ea		 xor	 DWORD PTR [eax], -353637139 ; eaebecedH
  0027a	83 c0 04	 add	 eax, 4
  0027d	4a		 dec	 edx
  0027e	75 f4		 jne	 SHORT $LL104@LoadFloat_@2
  00280	6a 14		 push	 20			; 00000014H
  00282	58		 pop	 eax
$LL101@LoadFloat_@2:
  00283	8b c8		 mov	 ecx, eax
  00285	81 e1 03 00 00
	80		 and	 ecx, -2147483645	; 80000003H
  0028b	79 05		 jns	 SHORT $LN111@LoadFloat_@2
  0028d	49		 dec	 ecx
  0028e	83 c9 fc	 or	 ecx, -4			; fffffffcH
  00291	41		 inc	 ecx
$LN111@LoadFloat_@2:
  00292	b2 ed		 mov	 dl, -19			; ffffffedH
  00294	2a d1		 sub	 dl, cl
  00296	30 54 05 e0	 xor	 BYTE PTR __k$[ebp+eax], dl
  0029a	40		 inc	 eax
  0029b	83 f8 17	 cmp	 eax, 23			; 00000017H
  0029e	7c e3		 jl	 SHORT $LL101@LoadFloat_@2

; 137  : 		return LoadFloat(_k, f);

  002a0	f3 0f 10 45 0c	 movss	 xmm0, DWORD PTR _f$[ebp]
  002a5	51		 push	 ecx
  002a6	8d 45 e0	 lea	 eax, DWORD PTR __k$[ebp]
  002a9	f3 0f 11 04 24	 movss	 DWORD PTR [esp], xmm0
  002ae	50		 push	 eax
  002af	8b ce		 mov	 ecx, esi
  002b1	ff 15 00 00 00
	00		 call	 DWORD PTR __imp_?LoadFloat@ioINILoader@@QAEMPBDM@Z

; 138  : 	}

  002b7	8b 4d fc	 mov	 ecx, DWORD PTR __$ArrayPad$[ebp]
  002ba	5e		 pop	 esi
  002bb	33 cd		 xor	 ecx, ebp
  002bd	5b		 pop	 ebx
  002be	e8 00 00 00 00	 call	 @__security_check_cookie@4
  002c3	c9		 leave
  002c4	c2 08 00	 ret	 8
??$LoadFloat_e@$0BI@@ioINILoader@@QAEMAAY0BI@$$CBDM@Z ENDP ; ioINILoader::LoadFloat_e<24>
_TEXT	ENDS
PUBLIC	__$ArrayPad$
PUBLIC	??$LoadFloat_e@$0BE@@ioINILoader@@QAEMAAY0BE@$$CBDM@Z ; ioINILoader::LoadFloat_e<20>
; Function compile flags: /Ogsp
;	COMDAT ??$LoadFloat_e@$0BE@@ioINILoader@@QAEMAAY0BE@$$CBDM@Z
_TEXT	SEGMENT
__k$ = -28						; size = 20
__$ArrayPad$ = -4					; size = 4
_k$ = 8							; size = 4
_f$ = 12						; size = 4
??$LoadFloat_e@$0BE@@ioINILoader@@QAEMAAY0BE@$$CBDM@Z PROC ; ioINILoader::LoadFloat_e<20>, COMDAT
; _this$ = ecx

; 135  : 	{

  00000	55		 push	 ebp
  00001	8b ec		 mov	 ebp, esp
  00003	83 ec 1c	 sub	 esp, 28			; 0000001cH
  00006	a1 00 00 00 00	 mov	 eax, DWORD PTR ___security_cookie
  0000b	33 c5		 xor	 eax, ebp
  0000d	89 45 fc	 mov	 DWORD PTR __$ArrayPad$[ebp], eax
  00010	8b 45 08	 mov	 eax, DWORD PTR _k$[ebp]

; 136  : 		_ENCSTR(k, _k);

  00013	8a 10		 mov	 dl, BYTE PTR [eax]
  00015	53		 push	 ebx
  00016	56		 push	 esi
  00017	8b f1		 mov	 esi, ecx
  00019	84 d2		 test	 dl, dl
  0001b	0f 84 dd 01 00
	00		 je	 $LN96@LoadFloat_@3
  00021	80 f2 ed	 xor	 dl, -19			; ffffffedH
  00024	88 55 e4	 mov	 BYTE PTR __k$[ebp], dl
  00027	8a 50 01	 mov	 dl, BYTE PTR [eax+1]
  0002a	84 d2		 test	 dl, dl
  0002c	0f 84 c6 01 00
	00		 je	 $LN95@LoadFloat_@3
  00032	b3 ec		 mov	 bl, -20			; ffffffecH
  00034	32 d3		 xor	 dl, bl
  00036	88 55 e5	 mov	 BYTE PTR __k$[ebp+1], dl
  00039	8a 50 02	 mov	 dl, BYTE PTR [eax+2]
  0003c	84 d2		 test	 dl, dl
  0003e	0f 84 ae 01 00
	00		 je	 $LN94@LoadFloat_@3
  00044	b1 eb		 mov	 cl, -21			; ffffffebH
  00046	32 d1		 xor	 dl, cl
  00048	88 55 e6	 mov	 BYTE PTR __k$[ebp+2], dl
  0004b	8a 50 03	 mov	 dl, BYTE PTR [eax+3]
  0004e	84 d2		 test	 dl, dl
  00050	0f 84 96 01 00
	00		 je	 $LN93@LoadFloat_@3
  00056	80 f2 ea	 xor	 dl, -22			; ffffffeaH
  00059	88 55 e7	 mov	 BYTE PTR __k$[ebp+3], dl
  0005c	8a 50 04	 mov	 dl, BYTE PTR [eax+4]
  0005f	84 d2		 test	 dl, dl
  00061	0f 84 7f 01 00
	00		 je	 $LN92@LoadFloat_@3
  00067	80 f2 ed	 xor	 dl, -19			; ffffffedH
  0006a	88 55 e8	 mov	 BYTE PTR __k$[ebp+4], dl
  0006d	8a 50 05	 mov	 dl, BYTE PTR [eax+5]
  00070	84 d2		 test	 dl, dl
  00072	0f 84 69 01 00
	00		 je	 $LN91@LoadFloat_@3
  00078	32 d3		 xor	 dl, bl
  0007a	88 55 e9	 mov	 BYTE PTR __k$[ebp+5], dl
  0007d	8a 50 06	 mov	 dl, BYTE PTR [eax+6]
  00080	84 d2		 test	 dl, dl
  00082	0f 84 54 01 00
	00		 je	 $LN90@LoadFloat_@3
  00088	32 d1		 xor	 dl, cl
  0008a	88 55 ea	 mov	 BYTE PTR __k$[ebp+6], dl
  0008d	8a 50 07	 mov	 dl, BYTE PTR [eax+7]
  00090	84 d2		 test	 dl, dl
  00092	0f 84 3e 01 00
	00		 je	 $LN89@LoadFloat_@3
  00098	80 f2 ea	 xor	 dl, -22			; ffffffeaH
  0009b	88 55 eb	 mov	 BYTE PTR __k$[ebp+7], dl
  0009e	8a 50 08	 mov	 dl, BYTE PTR [eax+8]
  000a1	84 d2		 test	 dl, dl
  000a3	0f 84 27 01 00
	00		 je	 $LN88@LoadFloat_@3
  000a9	80 f2 ed	 xor	 dl, -19			; ffffffedH
  000ac	88 55 ec	 mov	 BYTE PTR __k$[ebp+8], dl
  000af	8a 50 09	 mov	 dl, BYTE PTR [eax+9]
  000b2	84 d2		 test	 dl, dl
  000b4	0f 84 11 01 00
	00		 je	 $LN87@LoadFloat_@3
  000ba	32 d3		 xor	 dl, bl
  000bc	88 55 ed	 mov	 BYTE PTR __k$[ebp+9], dl
  000bf	8a 50 0a	 mov	 dl, BYTE PTR [eax+10]
  000c2	84 d2		 test	 dl, dl
  000c4	0f 84 fc 00 00
	00		 je	 $LN86@LoadFloat_@3
  000ca	32 d1		 xor	 dl, cl
  000cc	88 55 ee	 mov	 BYTE PTR __k$[ebp+10], dl
  000cf	8a 50 0b	 mov	 dl, BYTE PTR [eax+11]
  000d2	84 d2		 test	 dl, dl
  000d4	0f 84 e6 00 00
	00		 je	 $LN85@LoadFloat_@3
  000da	80 f2 ea	 xor	 dl, -22			; ffffffeaH
  000dd	88 55 ef	 mov	 BYTE PTR __k$[ebp+11], dl
  000e0	8a 50 0c	 mov	 dl, BYTE PTR [eax+12]
  000e3	84 d2		 test	 dl, dl
  000e5	0f 84 cf 00 00
	00		 je	 $LN84@LoadFloat_@3
  000eb	80 f2 ed	 xor	 dl, -19			; ffffffedH
  000ee	88 55 f0	 mov	 BYTE PTR __k$[ebp+12], dl
  000f1	8a 50 0d	 mov	 dl, BYTE PTR [eax+13]
  000f4	84 d2		 test	 dl, dl
  000f6	0f 84 b9 00 00
	00		 je	 $LN83@LoadFloat_@3
  000fc	32 d3		 xor	 dl, bl
  000fe	88 55 f1	 mov	 BYTE PTR __k$[ebp+13], dl
  00101	8a 50 0e	 mov	 dl, BYTE PTR [eax+14]
  00104	84 d2		 test	 dl, dl
  00106	0f 84 a4 00 00
	00		 je	 $LN82@LoadFloat_@3
  0010c	32 d1		 xor	 dl, cl
  0010e	88 55 f2	 mov	 BYTE PTR __k$[ebp+14], dl
  00111	8a 50 0f	 mov	 dl, BYTE PTR [eax+15]
  00114	84 d2		 test	 dl, dl
  00116	0f 84 8e 00 00
	00		 je	 $LN81@LoadFloat_@3
  0011c	80 f2 ea	 xor	 dl, -22			; ffffffeaH
  0011f	88 55 f3	 mov	 BYTE PTR __k$[ebp+15], dl
  00122	8a 50 10	 mov	 dl, BYTE PTR [eax+16]
  00125	84 d2		 test	 dl, dl
  00127	74 7b		 je	 SHORT $LN80@LoadFloat_@3
  00129	80 f2 ed	 xor	 dl, -19			; ffffffedH
  0012c	88 55 f4	 mov	 BYTE PTR __k$[ebp+16], dl
  0012f	8a 50 11	 mov	 dl, BYTE PTR [eax+17]
  00132	84 d2		 test	 dl, dl
  00134	74 69		 je	 SHORT $LN79@LoadFloat_@3
  00136	32 d3		 xor	 dl, bl
  00138	88 55 f5	 mov	 BYTE PTR __k$[ebp+17], dl
  0013b	8a 50 12	 mov	 dl, BYTE PTR [eax+18]
  0013e	84 d2		 test	 dl, dl
  00140	74 58		 je	 SHORT $LN78@LoadFloat_@3
  00142	32 d1		 xor	 dl, cl
  00144	80 78 13 00	 cmp	 BYTE PTR [eax+19], 0
  00148	88 55 f6	 mov	 BYTE PTR __k$[ebp+18], dl
  0014b	0f 84 b1 00 00
	00		 je	 $LN1@LoadFloat_@3
  00151	8a 50 14	 mov	 dl, BYTE PTR [eax+20]
  00154	84 d2		 test	 dl, dl
  00156	74 3c		 je	 SHORT $LN76@LoadFloat_@3
  00158	80 f2 ed	 xor	 dl, -19			; ffffffedH
  0015b	88 55 f8	 mov	 BYTE PTR __k$[ebp+20], dl
  0015e	8a 50 15	 mov	 dl, BYTE PTR [eax+21]
  00161	84 d2		 test	 dl, dl
  00163	74 2a		 je	 SHORT $LN75@LoadFloat_@3
  00165	32 d3		 xor	 dl, bl
  00167	88 55 f9	 mov	 BYTE PTR __k$[ebp+21], dl
  0016a	8a 50 16	 mov	 dl, BYTE PTR [eax+22]
  0016d	84 d2		 test	 dl, dl
  0016f	74 19		 je	 SHORT $LN74@LoadFloat_@3
  00171	8a 40 17	 mov	 al, BYTE PTR [eax+23]
  00174	32 d1		 xor	 dl, cl
  00176	88 55 fa	 mov	 BYTE PTR __k$[ebp+22], dl
  00179	84 c0		 test	 al, al
  0017b	74 07		 je	 SHORT $LN73@LoadFloat_@3
  0017d	34 ea		 xor	 al, -22			; ffffffeaH
  0017f	88 45 fb	 mov	 BYTE PTR __k$[ebp+23], al
  00182	eb 7e		 jmp	 SHORT $LN1@LoadFloat_@3
$LN73@LoadFloat_@3:
  00184	c6 45 fb ea	 mov	 BYTE PTR __k$[ebp+23], -22 ; ffffffeaH
  00188	eb 78		 jmp	 SHORT $LN1@LoadFloat_@3
$LN74@LoadFloat_@3:
  0018a	88 4d fa	 mov	 BYTE PTR __k$[ebp+22], cl
  0018d	eb 73		 jmp	 SHORT $LN1@LoadFloat_@3
$LN75@LoadFloat_@3:
  0018f	88 5d f9	 mov	 BYTE PTR __k$[ebp+21], bl
  00192	eb 6e		 jmp	 SHORT $LN1@LoadFloat_@3
$LN76@LoadFloat_@3:
  00194	c6 45 f8 ed	 mov	 BYTE PTR __k$[ebp+20], -19 ; ffffffedH
  00198	eb 68		 jmp	 SHORT $LN1@LoadFloat_@3
$LN78@LoadFloat_@3:
  0019a	88 4d f6	 mov	 BYTE PTR __k$[ebp+18], cl
  0019d	eb 63		 jmp	 SHORT $LN1@LoadFloat_@3
$LN79@LoadFloat_@3:
  0019f	88 5d f5	 mov	 BYTE PTR __k$[ebp+17], bl
  001a2	eb 5e		 jmp	 SHORT $LN1@LoadFloat_@3
$LN80@LoadFloat_@3:
  001a4	c6 45 f4 ed	 mov	 BYTE PTR __k$[ebp+16], -19 ; ffffffedH
  001a8	eb 58		 jmp	 SHORT $LN1@LoadFloat_@3
$LN81@LoadFloat_@3:
  001aa	c6 45 f3 ea	 mov	 BYTE PTR __k$[ebp+15], -22 ; ffffffeaH
  001ae	eb 52		 jmp	 SHORT $LN1@LoadFloat_@3
$LN82@LoadFloat_@3:
  001b0	88 4d f2	 mov	 BYTE PTR __k$[ebp+14], cl
  001b3	eb 4d		 jmp	 SHORT $LN1@LoadFloat_@3
$LN83@LoadFloat_@3:
  001b5	88 5d f1	 mov	 BYTE PTR __k$[ebp+13], bl
  001b8	eb 48		 jmp	 SHORT $LN1@LoadFloat_@3
$LN84@LoadFloat_@3:
  001ba	c6 45 f0 ed	 mov	 BYTE PTR __k$[ebp+12], -19 ; ffffffedH
  001be	eb 42		 jmp	 SHORT $LN1@LoadFloat_@3
$LN85@LoadFloat_@3:
  001c0	c6 45 ef ea	 mov	 BYTE PTR __k$[ebp+11], -22 ; ffffffeaH
  001c4	eb 3c		 jmp	 SHORT $LN1@LoadFloat_@3
$LN86@LoadFloat_@3:
  001c6	88 4d ee	 mov	 BYTE PTR __k$[ebp+10], cl
  001c9	eb 37		 jmp	 SHORT $LN1@LoadFloat_@3
$LN87@LoadFloat_@3:
  001cb	88 5d ed	 mov	 BYTE PTR __k$[ebp+9], bl
  001ce	eb 32		 jmp	 SHORT $LN1@LoadFloat_@3
$LN88@LoadFloat_@3:
  001d0	c6 45 ec ed	 mov	 BYTE PTR __k$[ebp+8], -19 ; ffffffedH
  001d4	eb 2c		 jmp	 SHORT $LN1@LoadFloat_@3
$LN89@LoadFloat_@3:
  001d6	c6 45 eb ea	 mov	 BYTE PTR __k$[ebp+7], -22 ; ffffffeaH
  001da	eb 26		 jmp	 SHORT $LN1@LoadFloat_@3
$LN90@LoadFloat_@3:
  001dc	88 4d ea	 mov	 BYTE PTR __k$[ebp+6], cl
  001df	eb 21		 jmp	 SHORT $LN1@LoadFloat_@3
$LN91@LoadFloat_@3:
  001e1	88 5d e9	 mov	 BYTE PTR __k$[ebp+5], bl
  001e4	eb 1c		 jmp	 SHORT $LN1@LoadFloat_@3
$LN92@LoadFloat_@3:
  001e6	c6 45 e8 ed	 mov	 BYTE PTR __k$[ebp+4], -19 ; ffffffedH
  001ea	eb 16		 jmp	 SHORT $LN1@LoadFloat_@3
$LN93@LoadFloat_@3:
  001ec	c6 45 e7 ea	 mov	 BYTE PTR __k$[ebp+3], -22 ; ffffffeaH
  001f0	eb 10		 jmp	 SHORT $LN1@LoadFloat_@3
$LN94@LoadFloat_@3:
  001f2	c6 45 e6 eb	 mov	 BYTE PTR __k$[ebp+2], -21 ; ffffffebH
  001f6	eb 0a		 jmp	 SHORT $LN1@LoadFloat_@3
$LN95@LoadFloat_@3:
  001f8	c6 45 e5 ec	 mov	 BYTE PTR __k$[ebp+1], -20 ; ffffffecH
  001fc	eb 04		 jmp	 SHORT $LN1@LoadFloat_@3
$LN96@LoadFloat_@3:
  001fe	c6 45 e4 ed	 mov	 BYTE PTR __k$[ebp], -19	; ffffffedH
$LN1@LoadFloat_@3:
  00202	6a 04		 push	 4
  00204	8d 45 e4	 lea	 eax, DWORD PTR __k$[ebp]
  00207	c6 45 f7 00	 mov	 BYTE PTR __k$[ebp+19], 0
  0020b	5a		 pop	 edx
$LL104@LoadFloat_@3:
  0020c	81 30 ed ec eb
	ea		 xor	 DWORD PTR [eax], -353637139 ; eaebecedH
  00212	83 c0 04	 add	 eax, 4
  00215	4a		 dec	 edx
  00216	75 f4		 jne	 SHORT $LL104@LoadFloat_@3
  00218	6a 10		 push	 16			; 00000010H
  0021a	58		 pop	 eax
$LL101@LoadFloat_@3:
  0021b	8b c8		 mov	 ecx, eax
  0021d	81 e1 03 00 00
	80		 and	 ecx, -2147483645	; 80000003H
  00223	79 05		 jns	 SHORT $LN111@LoadFloat_@3
  00225	49		 dec	 ecx
  00226	83 c9 fc	 or	 ecx, -4			; fffffffcH
  00229	41		 inc	 ecx
$LN111@LoadFloat_@3:
  0022a	b2 ed		 mov	 dl, -19			; ffffffedH
  0022c	2a d1		 sub	 dl, cl
  0022e	30 54 05 e4	 xor	 BYTE PTR __k$[ebp+eax], dl
  00232	40		 inc	 eax
  00233	83 f8 13	 cmp	 eax, 19			; 00000013H
  00236	7c e3		 jl	 SHORT $LL101@LoadFloat_@3

; 137  : 		return LoadFloat(_k, f);

  00238	f3 0f 10 45 0c	 movss	 xmm0, DWORD PTR _f$[ebp]
  0023d	51		 push	 ecx
  0023e	8d 45 e4	 lea	 eax, DWORD PTR __k$[ebp]
  00241	f3 0f 11 04 24	 movss	 DWORD PTR [esp], xmm0
  00246	50		 push	 eax
  00247	8b ce		 mov	 ecx, esi
  00249	ff 15 00 00 00
	00		 call	 DWORD PTR __imp_?LoadFloat@ioINILoader@@QAEMPBDM@Z

; 138  : 	}

  0024f	8b 4d fc	 mov	 ecx, DWORD PTR __$ArrayPad$[ebp]
  00252	5e		 pop	 esi
  00253	33 cd		 xor	 ecx, ebp
  00255	5b		 pop	 ebx
  00256	e8 00 00 00 00	 call	 @__security_check_cookie@4
  0025b	c9		 leave
  0025c	c2 08 00	 ret	 8
??$LoadFloat_e@$0BE@@ioINILoader@@QAEMAAY0BE@$$CBDM@Z ENDP ; ioINILoader::LoadFloat_e<20>
_TEXT	ENDS
PUBLIC	__$ArrayPad$
PUBLIC	??$LoadInt_e@$0BB@@ioINILoader@@QAEHAAY0BB@$$CBDH@Z ; ioINILoader::LoadInt_e<17>
EXTRN	__imp_?LoadInt@ioINILoader@@QAEHPBDH@Z:PROC
; Function compile flags: /Ogsp
;	COMDAT ??$LoadInt_e@$0BB@@ioINILoader@@QAEHAAY0BB@$$CBDH@Z
_TEXT	SEGMENT
__k$ = -28						; size = 17
__$ArrayPad$ = -4					; size = 4
_k$ = 8							; size = 4
_i$ = 12						; size = 4
??$LoadInt_e@$0BB@@ioINILoader@@QAEHAAY0BB@$$CBDH@Z PROC ; ioINILoader::LoadInt_e<17>, COMDAT
; _this$ = ecx

; 118  : 	{

  00000	55		 push	 ebp
  00001	8b ec		 mov	 ebp, esp
  00003	83 ec 1c	 sub	 esp, 28			; 0000001cH
  00006	a1 00 00 00 00	 mov	 eax, DWORD PTR ___security_cookie
  0000b	33 c5		 xor	 eax, ebp
  0000d	89 45 fc	 mov	 DWORD PTR __$ArrayPad$[ebp], eax
  00010	8b 45 08	 mov	 eax, DWORD PTR _k$[ebp]

; 119  : 		_ENCSTR(k, _k);

  00013	8a 10		 mov	 dl, BYTE PTR [eax]
  00015	56		 push	 esi
  00016	8b f1		 mov	 esi, ecx
  00018	84 d2		 test	 dl, dl
  0001a	0f 84 a7 01 00
	00		 je	 $LN96@LoadInt_e
  00020	80 f2 ed	 xor	 dl, -19			; ffffffedH
  00023	88 55 e4	 mov	 BYTE PTR __k$[ebp], dl
  00026	8a 50 01	 mov	 dl, BYTE PTR [eax+1]
  00029	84 d2		 test	 dl, dl
  0002b	0f 84 90 01 00
	00		 je	 $LN95@LoadInt_e
  00031	b1 ec		 mov	 cl, -20			; ffffffecH
  00033	32 d1		 xor	 dl, cl
  00035	88 55 e5	 mov	 BYTE PTR __k$[ebp+1], dl
  00038	8a 50 02	 mov	 dl, BYTE PTR [eax+2]
  0003b	84 d2		 test	 dl, dl
  0003d	0f 84 78 01 00
	00		 je	 $LN94@LoadInt_e
  00043	80 f2 eb	 xor	 dl, -21			; ffffffebH
  00046	88 55 e6	 mov	 BYTE PTR __k$[ebp+2], dl
  00049	8a 50 03	 mov	 dl, BYTE PTR [eax+3]
  0004c	84 d2		 test	 dl, dl
  0004e	0f 84 61 01 00
	00		 je	 $LN93@LoadInt_e
  00054	80 f2 ea	 xor	 dl, -22			; ffffffeaH
  00057	88 55 e7	 mov	 BYTE PTR __k$[ebp+3], dl
  0005a	8a 50 04	 mov	 dl, BYTE PTR [eax+4]
  0005d	84 d2		 test	 dl, dl
  0005f	0f 84 4a 01 00
	00		 je	 $LN92@LoadInt_e
  00065	80 f2 ed	 xor	 dl, -19			; ffffffedH
  00068	88 55 e8	 mov	 BYTE PTR __k$[ebp+4], dl
  0006b	8a 50 05	 mov	 dl, BYTE PTR [eax+5]
  0006e	84 d2		 test	 dl, dl
  00070	0f 84 34 01 00
	00		 je	 $LN91@LoadInt_e
  00076	32 d1		 xor	 dl, cl
  00078	88 55 e9	 mov	 BYTE PTR __k$[ebp+5], dl
  0007b	8a 50 06	 mov	 dl, BYTE PTR [eax+6]
  0007e	84 d2		 test	 dl, dl
  00080	0f 84 1e 01 00
	00		 je	 $LN90@LoadInt_e
  00086	80 f2 eb	 xor	 dl, -21			; ffffffebH
  00089	88 55 ea	 mov	 BYTE PTR __k$[ebp+6], dl
  0008c	8a 50 07	 mov	 dl, BYTE PTR [eax+7]
  0008f	84 d2		 test	 dl, dl
  00091	0f 84 07 01 00
	00		 je	 $LN89@LoadInt_e
  00097	80 f2 ea	 xor	 dl, -22			; ffffffeaH
  0009a	88 55 eb	 mov	 BYTE PTR __k$[ebp+7], dl
  0009d	8a 50 08	 mov	 dl, BYTE PTR [eax+8]
  000a0	84 d2		 test	 dl, dl
  000a2	0f 84 f0 00 00
	00		 je	 $LN88@LoadInt_e
  000a8	80 f2 ed	 xor	 dl, -19			; ffffffedH
  000ab	88 55 ec	 mov	 BYTE PTR __k$[ebp+8], dl
  000ae	8a 50 09	 mov	 dl, BYTE PTR [eax+9]
  000b1	84 d2		 test	 dl, dl
  000b3	0f 84 da 00 00
	00		 je	 $LN87@LoadInt_e
  000b9	32 d1		 xor	 dl, cl
  000bb	88 55 ed	 mov	 BYTE PTR __k$[ebp+9], dl
  000be	8a 50 0a	 mov	 dl, BYTE PTR [eax+10]
  000c1	84 d2		 test	 dl, dl
  000c3	0f 84 c4 00 00
	00		 je	 $LN86@LoadInt_e
  000c9	80 f2 eb	 xor	 dl, -21			; ffffffebH
  000cc	88 55 ee	 mov	 BYTE PTR __k$[ebp+10], dl
  000cf	8a 50 0b	 mov	 dl, BYTE PTR [eax+11]
  000d2	84 d2		 test	 dl, dl
  000d4	0f 84 ad 00 00
	00		 je	 $LN85@LoadInt_e
  000da	80 f2 ea	 xor	 dl, -22			; ffffffeaH
  000dd	88 55 ef	 mov	 BYTE PTR __k$[ebp+11], dl
  000e0	8a 50 0c	 mov	 dl, BYTE PTR [eax+12]
  000e3	84 d2		 test	 dl, dl
  000e5	0f 84 96 00 00
	00		 je	 $LN84@LoadInt_e
  000eb	80 f2 ed	 xor	 dl, -19			; ffffffedH
  000ee	88 55 f0	 mov	 BYTE PTR __k$[ebp+12], dl
  000f1	8a 50 0d	 mov	 dl, BYTE PTR [eax+13]
  000f4	84 d2		 test	 dl, dl
  000f6	0f 84 80 00 00
	00		 je	 $LN83@LoadInt_e
  000fc	32 d1		 xor	 dl, cl
  000fe	88 55 f1	 mov	 BYTE PTR __k$[ebp+13], dl
  00101	8a 50 0e	 mov	 dl, BYTE PTR [eax+14]
  00104	84 d2		 test	 dl, dl
  00106	74 6e		 je	 SHORT $LN82@LoadInt_e
  00108	80 f2 eb	 xor	 dl, -21			; ffffffebH
  0010b	88 55 f2	 mov	 BYTE PTR __k$[ebp+14], dl
  0010e	8a 50 0f	 mov	 dl, BYTE PTR [eax+15]
  00111	84 d2		 test	 dl, dl
  00113	74 5b		 je	 SHORT $LN81@LoadInt_e
  00115	80 f2 ea	 xor	 dl, -22			; ffffffeaH
  00118	80 78 10 00	 cmp	 BYTE PTR [eax+16], 0
  0011c	88 55 f3	 mov	 BYTE PTR __k$[ebp+15], dl
  0011f	0f 84 a6 00 00
	00		 je	 $LN1@LoadInt_e
  00125	8a 50 11	 mov	 dl, BYTE PTR [eax+17]
  00128	84 d2		 test	 dl, dl
  0012a	74 3f		 je	 SHORT $LN79@LoadInt_e
  0012c	32 d1		 xor	 dl, cl
  0012e	88 55 f5	 mov	 BYTE PTR __k$[ebp+17], dl
  00131	8a 50 12	 mov	 dl, BYTE PTR [eax+18]
  00134	84 d2		 test	 dl, dl
  00136	74 2d		 je	 SHORT $LN78@LoadInt_e
  00138	80 f2 eb	 xor	 dl, -21			; ffffffebH
  0013b	88 55 f6	 mov	 BYTE PTR __k$[ebp+18], dl
  0013e	8a 50 13	 mov	 dl, BYTE PTR [eax+19]
  00141	84 d2		 test	 dl, dl
  00143	74 1a		 je	 SHORT $LN77@LoadInt_e
  00145	8a 40 14	 mov	 al, BYTE PTR [eax+20]
  00148	80 f2 ea	 xor	 dl, -22			; ffffffeaH
  0014b	88 55 f7	 mov	 BYTE PTR __k$[ebp+19], dl
  0014e	84 c0		 test	 al, al
  00150	74 07		 je	 SHORT $LN76@LoadInt_e
  00152	34 ed		 xor	 al, -19			; ffffffedH
  00154	88 45 f8	 mov	 BYTE PTR __k$[ebp+20], al
  00157	eb 72		 jmp	 SHORT $LN1@LoadInt_e
$LN76@LoadInt_e:
  00159	c6 45 f8 ed	 mov	 BYTE PTR __k$[ebp+20], -19 ; ffffffedH
  0015d	eb 6c		 jmp	 SHORT $LN1@LoadInt_e
$LN77@LoadInt_e:
  0015f	c6 45 f7 ea	 mov	 BYTE PTR __k$[ebp+19], -22 ; ffffffeaH
  00163	eb 66		 jmp	 SHORT $LN1@LoadInt_e
$LN78@LoadInt_e:
  00165	c6 45 f6 eb	 mov	 BYTE PTR __k$[ebp+18], -21 ; ffffffebH
  00169	eb 60		 jmp	 SHORT $LN1@LoadInt_e
$LN79@LoadInt_e:
  0016b	88 4d f5	 mov	 BYTE PTR __k$[ebp+17], cl
  0016e	eb 5b		 jmp	 SHORT $LN1@LoadInt_e
$LN81@LoadInt_e:
  00170	c6 45 f3 ea	 mov	 BYTE PTR __k$[ebp+15], -22 ; ffffffeaH
  00174	eb 55		 jmp	 SHORT $LN1@LoadInt_e
$LN82@LoadInt_e:
  00176	c6 45 f2 eb	 mov	 BYTE PTR __k$[ebp+14], -21 ; ffffffebH
  0017a	eb 4f		 jmp	 SHORT $LN1@LoadInt_e
$LN83@LoadInt_e:
  0017c	88 4d f1	 mov	 BYTE PTR __k$[ebp+13], cl
  0017f	eb 4a		 jmp	 SHORT $LN1@LoadInt_e
$LN84@LoadInt_e:
  00181	c6 45 f0 ed	 mov	 BYTE PTR __k$[ebp+12], -19 ; ffffffedH
  00185	eb 44		 jmp	 SHORT $LN1@LoadInt_e
$LN85@LoadInt_e:
  00187	c6 45 ef ea	 mov	 BYTE PTR __k$[ebp+11], -22 ; ffffffeaH
  0018b	eb 3e		 jmp	 SHORT $LN1@LoadInt_e
$LN86@LoadInt_e:
  0018d	c6 45 ee eb	 mov	 BYTE PTR __k$[ebp+10], -21 ; ffffffebH
  00191	eb 38		 jmp	 SHORT $LN1@LoadInt_e
$LN87@LoadInt_e:
  00193	88 4d ed	 mov	 BYTE PTR __k$[ebp+9], cl
  00196	eb 33		 jmp	 SHORT $LN1@LoadInt_e
$LN88@LoadInt_e:
  00198	c6 45 ec ed	 mov	 BYTE PTR __k$[ebp+8], -19 ; ffffffedH
  0019c	eb 2d		 jmp	 SHORT $LN1@LoadInt_e
$LN89@LoadInt_e:
  0019e	c6 45 eb ea	 mov	 BYTE PTR __k$[ebp+7], -22 ; ffffffeaH
  001a2	eb 27		 jmp	 SHORT $LN1@LoadInt_e
$LN90@LoadInt_e:
  001a4	c6 45 ea eb	 mov	 BYTE PTR __k$[ebp+6], -21 ; ffffffebH
  001a8	eb 21		 jmp	 SHORT $LN1@LoadInt_e
$LN91@LoadInt_e:
  001aa	88 4d e9	 mov	 BYTE PTR __k$[ebp+5], cl
  001ad	eb 1c		 jmp	 SHORT $LN1@LoadInt_e
$LN92@LoadInt_e:
  001af	c6 45 e8 ed	 mov	 BYTE PTR __k$[ebp+4], -19 ; ffffffedH
  001b3	eb 16		 jmp	 SHORT $LN1@LoadInt_e
$LN93@LoadInt_e:
  001b5	c6 45 e7 ea	 mov	 BYTE PTR __k$[ebp+3], -22 ; ffffffeaH
  001b9	eb 10		 jmp	 SHORT $LN1@LoadInt_e
$LN94@LoadInt_e:
  001bb	c6 45 e6 eb	 mov	 BYTE PTR __k$[ebp+2], -21 ; ffffffebH
  001bf	eb 0a		 jmp	 SHORT $LN1@LoadInt_e
$LN95@LoadInt_e:
  001c1	c6 45 e5 ec	 mov	 BYTE PTR __k$[ebp+1], -20 ; ffffffecH
  001c5	eb 04		 jmp	 SHORT $LN1@LoadInt_e
$LN96@LoadInt_e:
  001c7	c6 45 e4 ed	 mov	 BYTE PTR __k$[ebp], -19	; ffffffedH
$LN1@LoadInt_e:
  001cb	6a 04		 push	 4
  001cd	8d 45 e4	 lea	 eax, DWORD PTR __k$[ebp]
  001d0	c6 45 f4 00	 mov	 BYTE PTR __k$[ebp+16], 0
  001d4	5a		 pop	 edx
$LL104@LoadInt_e:
  001d5	81 30 ed ec eb
	ea		 xor	 DWORD PTR [eax], -353637139 ; eaebecedH
  001db	83 c0 04	 add	 eax, 4
  001de	4a		 dec	 edx
  001df	75 f4		 jne	 SHORT $LL104@LoadInt_e

; 120  : 		return LoadInt(_k, i);

  001e1	ff 75 0c	 push	 DWORD PTR _i$[ebp]
  001e4	8d 45 e4	 lea	 eax, DWORD PTR __k$[ebp]
  001e7	50		 push	 eax
  001e8	8b ce		 mov	 ecx, esi
  001ea	ff 15 00 00 00
	00		 call	 DWORD PTR __imp_?LoadInt@ioINILoader@@QAEHPBDH@Z

; 121  : 	}

  001f0	8b 4d fc	 mov	 ecx, DWORD PTR __$ArrayPad$[ebp]
  001f3	33 cd		 xor	 ecx, ebp
  001f5	5e		 pop	 esi
  001f6	e8 00 00 00 00	 call	 @__security_check_cookie@4
  001fb	c9		 leave
  001fc	c2 08 00	 ret	 8
??$LoadInt_e@$0BB@@ioINILoader@@QAEHAAY0BB@$$CBDH@Z ENDP ; ioINILoader::LoadInt_e<17>
_TEXT	ENDS
PUBLIC	__$ArrayPad$
PUBLIC	??$LoadInt_e@$0BA@@ioINILoader@@QAEHAAY0BA@$$CBDH@Z ; ioINILoader::LoadInt_e<16>
; Function compile flags: /Ogsp
;	COMDAT ??$LoadInt_e@$0BA@@ioINILoader@@QAEHAAY0BA@$$CBDH@Z
_TEXT	SEGMENT
__k$ = -24						; size = 16
__$ArrayPad$ = -4					; size = 4
_k$ = 8							; size = 4
_i$ = 12						; size = 4
??$LoadInt_e@$0BA@@ioINILoader@@QAEHAAY0BA@$$CBDH@Z PROC ; ioINILoader::LoadInt_e<16>, COMDAT
; _this$ = ecx

; 118  : 	{

  00000	55		 push	 ebp
  00001	8b ec		 mov	 ebp, esp
  00003	83 ec 18	 sub	 esp, 24			; 00000018H
  00006	a1 00 00 00 00	 mov	 eax, DWORD PTR ___security_cookie
  0000b	33 c5		 xor	 eax, ebp
  0000d	89 45 fc	 mov	 DWORD PTR __$ArrayPad$[ebp], eax
  00010	8b 45 08	 mov	 eax, DWORD PTR _k$[ebp]

; 119  : 		_ENCSTR(k, _k);

  00013	8a 10		 mov	 dl, BYTE PTR [eax]
  00015	56		 push	 esi
  00016	8b f1		 mov	 esi, ecx
  00018	84 d2		 test	 dl, dl
  0001a	0f 84 8c 01 00
	00		 je	 $LN96@LoadInt_e@2
  00020	80 f2 ed	 xor	 dl, -19			; ffffffedH
  00023	88 55 e8	 mov	 BYTE PTR __k$[ebp], dl
  00026	8a 50 01	 mov	 dl, BYTE PTR [eax+1]
  00029	84 d2		 test	 dl, dl
  0002b	0f 84 75 01 00
	00		 je	 $LN95@LoadInt_e@2
  00031	80 f2 ec	 xor	 dl, -20			; ffffffecH
  00034	88 55 e9	 mov	 BYTE PTR __k$[ebp+1], dl
  00037	8a 50 02	 mov	 dl, BYTE PTR [eax+2]
  0003a	84 d2		 test	 dl, dl
  0003c	0f 84 5e 01 00
	00		 je	 $LN94@LoadInt_e@2
  00042	b1 eb		 mov	 cl, -21			; ffffffebH
  00044	32 d1		 xor	 dl, cl
  00046	88 55 ea	 mov	 BYTE PTR __k$[ebp+2], dl
  00049	8a 50 03	 mov	 dl, BYTE PTR [eax+3]
  0004c	84 d2		 test	 dl, dl
  0004e	0f 84 46 01 00
	00		 je	 $LN93@LoadInt_e@2
  00054	80 f2 ea	 xor	 dl, -22			; ffffffeaH
  00057	88 55 eb	 mov	 BYTE PTR __k$[ebp+3], dl
  0005a	8a 50 04	 mov	 dl, BYTE PTR [eax+4]
  0005d	84 d2		 test	 dl, dl
  0005f	0f 84 2f 01 00
	00		 je	 $LN92@LoadInt_e@2
  00065	80 f2 ed	 xor	 dl, -19			; ffffffedH
  00068	88 55 ec	 mov	 BYTE PTR __k$[ebp+4], dl
  0006b	8a 50 05	 mov	 dl, BYTE PTR [eax+5]
  0006e	84 d2		 test	 dl, dl
  00070	0f 84 18 01 00
	00		 je	 $LN91@LoadInt_e@2
  00076	80 f2 ec	 xor	 dl, -20			; ffffffecH
  00079	88 55 ed	 mov	 BYTE PTR __k$[ebp+5], dl
  0007c	8a 50 06	 mov	 dl, BYTE PTR [eax+6]
  0007f	84 d2		 test	 dl, dl
  00081	0f 84 02 01 00
	00		 je	 $LN90@LoadInt_e@2
  00087	32 d1		 xor	 dl, cl
  00089	88 55 ee	 mov	 BYTE PTR __k$[ebp+6], dl
  0008c	8a 50 07	 mov	 dl, BYTE PTR [eax+7]
  0008f	84 d2		 test	 dl, dl
  00091	0f 84 ec 00 00
	00		 je	 $LN89@LoadInt_e@2
  00097	80 f2 ea	 xor	 dl, -22			; ffffffeaH
  0009a	88 55 ef	 mov	 BYTE PTR __k$[ebp+7], dl
  0009d	8a 50 08	 mov	 dl, BYTE PTR [eax+8]
  000a0	84 d2		 test	 dl, dl
  000a2	0f 84 d5 00 00
	00		 je	 $LN88@LoadInt_e@2
  000a8	80 f2 ed	 xor	 dl, -19			; ffffffedH
  000ab	88 55 f0	 mov	 BYTE PTR __k$[ebp+8], dl
  000ae	8a 50 09	 mov	 dl, BYTE PTR [eax+9]
  000b1	84 d2		 test	 dl, dl
  000b3	0f 84 be 00 00
	00		 je	 $LN87@LoadInt_e@2
  000b9	80 f2 ec	 xor	 dl, -20			; ffffffecH
  000bc	88 55 f1	 mov	 BYTE PTR __k$[ebp+9], dl
  000bf	8a 50 0a	 mov	 dl, BYTE PTR [eax+10]
  000c2	84 d2		 test	 dl, dl
  000c4	0f 84 a8 00 00
	00		 je	 $LN86@LoadInt_e@2
  000ca	32 d1		 xor	 dl, cl
  000cc	88 55 f2	 mov	 BYTE PTR __k$[ebp+10], dl
  000cf	8a 50 0b	 mov	 dl, BYTE PTR [eax+11]
  000d2	84 d2		 test	 dl, dl
  000d4	0f 84 92 00 00
	00		 je	 $LN85@LoadInt_e@2
  000da	80 f2 ea	 xor	 dl, -22			; ffffffeaH
  000dd	88 55 f3	 mov	 BYTE PTR __k$[ebp+11], dl
  000e0	8a 50 0c	 mov	 dl, BYTE PTR [eax+12]
  000e3	84 d2		 test	 dl, dl
  000e5	74 7f		 je	 SHORT $LN84@LoadInt_e@2
  000e7	80 f2 ed	 xor	 dl, -19			; ffffffedH
  000ea	88 55 f4	 mov	 BYTE PTR __k$[ebp+12], dl
  000ed	8a 50 0d	 mov	 dl, BYTE PTR [eax+13]
  000f0	84 d2		 test	 dl, dl
  000f2	74 6c		 je	 SHORT $LN83@LoadInt_e@2
  000f4	80 f2 ec	 xor	 dl, -20			; ffffffecH
  000f7	88 55 f5	 mov	 BYTE PTR __k$[ebp+13], dl
  000fa	8a 50 0e	 mov	 dl, BYTE PTR [eax+14]
  000fd	84 d2		 test	 dl, dl
  000ff	74 5a		 je	 SHORT $LN82@LoadInt_e@2
  00101	32 d1		 xor	 dl, cl
  00103	80 78 0f 00	 cmp	 BYTE PTR [eax+15], 0
  00107	88 55 f6	 mov	 BYTE PTR __k$[ebp+14], dl
  0010a	0f 84 a0 00 00
	00		 je	 $LN1@LoadInt_e@2
  00110	8a 50 10	 mov	 dl, BYTE PTR [eax+16]
  00113	84 d2		 test	 dl, dl
  00115	74 3e		 je	 SHORT $LN80@LoadInt_e@2
  00117	80 f2 ed	 xor	 dl, -19			; ffffffedH
  0011a	88 55 f8	 mov	 BYTE PTR __k$[ebp+16], dl
  0011d	8a 50 11	 mov	 dl, BYTE PTR [eax+17]
  00120	84 d2		 test	 dl, dl
  00122	74 2b		 je	 SHORT $LN79@LoadInt_e@2
  00124	80 f2 ec	 xor	 dl, -20			; ffffffecH
  00127	88 55 f9	 mov	 BYTE PTR __k$[ebp+17], dl
  0012a	8a 50 12	 mov	 dl, BYTE PTR [eax+18]
  0012d	84 d2		 test	 dl, dl
  0012f	74 19		 je	 SHORT $LN78@LoadInt_e@2
  00131	8a 40 13	 mov	 al, BYTE PTR [eax+19]
  00134	32 d1		 xor	 dl, cl
  00136	88 55 fa	 mov	 BYTE PTR __k$[ebp+18], dl
  00139	84 c0		 test	 al, al
  0013b	74 07		 je	 SHORT $LN77@LoadInt_e@2
  0013d	34 ea		 xor	 al, -22			; ffffffeaH
  0013f	88 45 fb	 mov	 BYTE PTR __k$[ebp+19], al
  00142	eb 6c		 jmp	 SHORT $LN1@LoadInt_e@2
$LN77@LoadInt_e@2:
  00144	c6 45 fb ea	 mov	 BYTE PTR __k$[ebp+19], -22 ; ffffffeaH
  00148	eb 66		 jmp	 SHORT $LN1@LoadInt_e@2
$LN78@LoadInt_e@2:
  0014a	88 4d fa	 mov	 BYTE PTR __k$[ebp+18], cl
  0014d	eb 61		 jmp	 SHORT $LN1@LoadInt_e@2
$LN79@LoadInt_e@2:
  0014f	c6 45 f9 ec	 mov	 BYTE PTR __k$[ebp+17], -20 ; ffffffecH
  00153	eb 5b		 jmp	 SHORT $LN1@LoadInt_e@2
$LN80@LoadInt_e@2:
  00155	c6 45 f8 ed	 mov	 BYTE PTR __k$[ebp+16], -19 ; ffffffedH
  00159	eb 55		 jmp	 SHORT $LN1@LoadInt_e@2
$LN82@LoadInt_e@2:
  0015b	88 4d f6	 mov	 BYTE PTR __k$[ebp+14], cl
  0015e	eb 50		 jmp	 SHORT $LN1@LoadInt_e@2
$LN83@LoadInt_e@2:
  00160	c6 45 f5 ec	 mov	 BYTE PTR __k$[ebp+13], -20 ; ffffffecH
  00164	eb 4a		 jmp	 SHORT $LN1@LoadInt_e@2
$LN84@LoadInt_e@2:
  00166	c6 45 f4 ed	 mov	 BYTE PTR __k$[ebp+12], -19 ; ffffffedH
  0016a	eb 44		 jmp	 SHORT $LN1@LoadInt_e@2
$LN85@LoadInt_e@2:
  0016c	c6 45 f3 ea	 mov	 BYTE PTR __k$[ebp+11], -22 ; ffffffeaH
  00170	eb 3e		 jmp	 SHORT $LN1@LoadInt_e@2
$LN86@LoadInt_e@2:
  00172	88 4d f2	 mov	 BYTE PTR __k$[ebp+10], cl
  00175	eb 39		 jmp	 SHORT $LN1@LoadInt_e@2
$LN87@LoadInt_e@2:
  00177	c6 45 f1 ec	 mov	 BYTE PTR __k$[ebp+9], -20 ; ffffffecH
  0017b	eb 33		 jmp	 SHORT $LN1@LoadInt_e@2
$LN88@LoadInt_e@2:
  0017d	c6 45 f0 ed	 mov	 BYTE PTR __k$[ebp+8], -19 ; ffffffedH
  00181	eb 2d		 jmp	 SHORT $LN1@LoadInt_e@2
$LN89@LoadInt_e@2:
  00183	c6 45 ef ea	 mov	 BYTE PTR __k$[ebp+7], -22 ; ffffffeaH
  00187	eb 27		 jmp	 SHORT $LN1@LoadInt_e@2
$LN90@LoadInt_e@2:
  00189	88 4d ee	 mov	 BYTE PTR __k$[ebp+6], cl
  0018c	eb 22		 jmp	 SHORT $LN1@LoadInt_e@2
$LN91@LoadInt_e@2:
  0018e	c6 45 ed ec	 mov	 BYTE PTR __k$[ebp+5], -20 ; ffffffecH
  00192	eb 1c		 jmp	 SHORT $LN1@LoadInt_e@2
$LN92@LoadInt_e@2:
  00194	c6 45 ec ed	 mov	 BYTE PTR __k$[ebp+4], -19 ; ffffffedH
  00198	eb 16		 jmp	 SHORT $LN1@LoadInt_e@2
$LN93@LoadInt_e@2:
  0019a	c6 45 eb ea	 mov	 BYTE PTR __k$[ebp+3], -22 ; ffffffeaH
  0019e	eb 10		 jmp	 SHORT $LN1@LoadInt_e@2
$LN94@LoadInt_e@2:
  001a0	c6 45 ea eb	 mov	 BYTE PTR __k$[ebp+2], -21 ; ffffffebH
  001a4	eb 0a		 jmp	 SHORT $LN1@LoadInt_e@2
$LN95@LoadInt_e@2:
  001a6	c6 45 e9 ec	 mov	 BYTE PTR __k$[ebp+1], -20 ; ffffffecH
  001aa	eb 04		 jmp	 SHORT $LN1@LoadInt_e@2
$LN96@LoadInt_e@2:
  001ac	c6 45 e8 ed	 mov	 BYTE PTR __k$[ebp], -19	; ffffffedH
$LN1@LoadInt_e@2:
  001b0	6a 03		 push	 3
  001b2	8d 45 e8	 lea	 eax, DWORD PTR __k$[ebp]
  001b5	c6 45 f7 00	 mov	 BYTE PTR __k$[ebp+15], 0
  001b9	5a		 pop	 edx
$LL104@LoadInt_e@2:
  001ba	81 30 ed ec eb
	ea		 xor	 DWORD PTR [eax], -353637139 ; eaebecedH
  001c0	83 c0 04	 add	 eax, 4
  001c3	4a		 dec	 edx
  001c4	75 f4		 jne	 SHORT $LL104@LoadInt_e@2
  001c6	6a 0c		 push	 12			; 0000000cH
  001c8	58		 pop	 eax
$LL101@LoadInt_e@2:
  001c9	8b c8		 mov	 ecx, eax
  001cb	81 e1 03 00 00
	80		 and	 ecx, -2147483645	; 80000003H
  001d1	79 05		 jns	 SHORT $LN111@LoadInt_e@2
  001d3	49		 dec	 ecx
  001d4	83 c9 fc	 or	 ecx, -4			; fffffffcH
  001d7	41		 inc	 ecx
$LN111@LoadInt_e@2:
  001d8	b2 ed		 mov	 dl, -19			; ffffffedH
  001da	2a d1		 sub	 dl, cl
  001dc	30 54 05 e8	 xor	 BYTE PTR __k$[ebp+eax], dl
  001e0	40		 inc	 eax
  001e1	83 f8 0f	 cmp	 eax, 15			; 0000000fH
  001e4	7c e3		 jl	 SHORT $LL101@LoadInt_e@2

; 120  : 		return LoadInt(_k, i);

  001e6	ff 75 0c	 push	 DWORD PTR _i$[ebp]
  001e9	8d 45 e8	 lea	 eax, DWORD PTR __k$[ebp]
  001ec	50		 push	 eax
  001ed	8b ce		 mov	 ecx, esi
  001ef	ff 15 00 00 00
	00		 call	 DWORD PTR __imp_?LoadInt@ioINILoader@@QAEHPBDH@Z

; 121  : 	}

  001f5	8b 4d fc	 mov	 ecx, DWORD PTR __$ArrayPad$[ebp]
  001f8	33 cd		 xor	 ecx, ebp
  001fa	5e		 pop	 esi
  001fb	e8 00 00 00 00	 call	 @__security_check_cookie@4
  00200	c9		 leave
  00201	c2 08 00	 ret	 8
??$LoadInt_e@$0BA@@ioINILoader@@QAEHAAY0BA@$$CBDH@Z ENDP ; ioINILoader::LoadInt_e<16>
_TEXT	ENDS
PUBLIC	_this$GSCopy$
PUBLIC	__$ArrayPad$
PUBLIC	??$LoadString_e@$0N@@ioINILoader@@QAEXAAY0N@$$CBDAAY00$$CBDPADH@Z ; ioINILoader::LoadString_e<13>
EXTRN	__imp_?LoadStringA@ioINILoader@@QAEXPBD0PADH@Z:PROC
; Function compile flags: /Ogsp
;	COMDAT ??$LoadString_e@$0N@@ioINILoader@@QAEXAAY0N@$$CBDAAY00$$CBDPADH@Z
_TEXT	SEGMENT
_this$GSCopy$ = -28					; size = 4
__k$ = -24						; size = 13
__$ArrayPad$ = -4					; size = 4
_k$ = 8							; size = 4
_d$ = 12						; size = 4
_b$ = 16						; size = 4
_i$ = 20						; size = 4
??$LoadString_e@$0N@@ioINILoader@@QAEXAAY0N@$$CBDAAY00$$CBDPADH@Z PROC ; ioINILoader::LoadString_e<13>, COMDAT
; _this$ = ecx

; 161  : 	{

  00000	55		 push	 ebp
  00001	8b ec		 mov	 ebp, esp
  00003	83 ec 1c	 sub	 esp, 28			; 0000001cH
  00006	a1 00 00 00 00	 mov	 eax, DWORD PTR ___security_cookie
  0000b	33 c5		 xor	 eax, ebp
  0000d	89 45 fc	 mov	 DWORD PTR __$ArrayPad$[ebp], eax
  00010	8b 45 08	 mov	 eax, DWORD PTR _k$[ebp]

; 162  : 		_ENCSTR(k, _k);

  00013	8a 10		 mov	 dl, BYTE PTR [eax]
  00015	56		 push	 esi
  00016	8b 75 0c	 mov	 esi, DWORD PTR _d$[ebp]
  00019	57		 push	 edi
  0001a	8b 7d 10	 mov	 edi, DWORD PTR _b$[ebp]
  0001d	89 4d e4	 mov	 DWORD PTR _this$GSCopy$[ebp], ecx
  00020	84 d2		 test	 dl, dl
  00022	0f 84 4d 01 00
	00		 je	 $LN96@LoadString
  00028	80 f2 ed	 xor	 dl, -19			; ffffffedH
  0002b	88 55 e8	 mov	 BYTE PTR __k$[ebp], dl
  0002e	8a 50 01	 mov	 dl, BYTE PTR [eax+1]
  00031	84 d2		 test	 dl, dl
  00033	0f 84 36 01 00
	00		 je	 $LN95@LoadString
  00039	b1 ec		 mov	 cl, -20			; ffffffecH
  0003b	32 d1		 xor	 dl, cl
  0003d	88 55 e9	 mov	 BYTE PTR __k$[ebp+1], dl
  00040	8a 50 02	 mov	 dl, BYTE PTR [eax+2]
  00043	84 d2		 test	 dl, dl
  00045	0f 84 1e 01 00
	00		 je	 $LN94@LoadString
  0004b	80 f2 eb	 xor	 dl, -21			; ffffffebH
  0004e	88 55 ea	 mov	 BYTE PTR __k$[ebp+2], dl
  00051	8a 50 03	 mov	 dl, BYTE PTR [eax+3]
  00054	84 d2		 test	 dl, dl
  00056	0f 84 07 01 00
	00		 je	 $LN93@LoadString
  0005c	80 f2 ea	 xor	 dl, -22			; ffffffeaH
  0005f	88 55 eb	 mov	 BYTE PTR __k$[ebp+3], dl
  00062	8a 50 04	 mov	 dl, BYTE PTR [eax+4]
  00065	84 d2		 test	 dl, dl
  00067	0f 84 f0 00 00
	00		 je	 $LN92@LoadString
  0006d	80 f2 ed	 xor	 dl, -19			; ffffffedH
  00070	88 55 ec	 mov	 BYTE PTR __k$[ebp+4], dl
  00073	8a 50 05	 mov	 dl, BYTE PTR [eax+5]
  00076	84 d2		 test	 dl, dl
  00078	0f 84 da 00 00
	00		 je	 $LN91@LoadString
  0007e	32 d1		 xor	 dl, cl
  00080	88 55 ed	 mov	 BYTE PTR __k$[ebp+5], dl
  00083	8a 50 06	 mov	 dl, BYTE PTR [eax+6]
  00086	84 d2		 test	 dl, dl
  00088	0f 84 c4 00 00
	00		 je	 $LN90@LoadString
  0008e	80 f2 eb	 xor	 dl, -21			; ffffffebH
  00091	88 55 ee	 mov	 BYTE PTR __k$[ebp+6], dl
  00094	8a 50 07	 mov	 dl, BYTE PTR [eax+7]
  00097	84 d2		 test	 dl, dl
  00099	0f 84 ad 00 00
	00		 je	 $LN89@LoadString
  0009f	80 f2 ea	 xor	 dl, -22			; ffffffeaH
  000a2	88 55 ef	 mov	 BYTE PTR __k$[ebp+7], dl
  000a5	8a 50 08	 mov	 dl, BYTE PTR [eax+8]
  000a8	84 d2		 test	 dl, dl
  000aa	0f 84 96 00 00
	00		 je	 $LN88@LoadString
  000b0	80 f2 ed	 xor	 dl, -19			; ffffffedH
  000b3	88 55 f0	 mov	 BYTE PTR __k$[ebp+8], dl
  000b6	8a 50 09	 mov	 dl, BYTE PTR [eax+9]
  000b9	84 d2		 test	 dl, dl
  000bb	0f 84 80 00 00
	00		 je	 $LN87@LoadString
  000c1	32 d1		 xor	 dl, cl
  000c3	88 55 f1	 mov	 BYTE PTR __k$[ebp+9], dl
  000c6	8a 50 0a	 mov	 dl, BYTE PTR [eax+10]
  000c9	84 d2		 test	 dl, dl
  000cb	74 6e		 je	 SHORT $LN86@LoadString
  000cd	80 f2 eb	 xor	 dl, -21			; ffffffebH
  000d0	88 55 f2	 mov	 BYTE PTR __k$[ebp+10], dl
  000d3	8a 50 0b	 mov	 dl, BYTE PTR [eax+11]
  000d6	84 d2		 test	 dl, dl
  000d8	74 5b		 je	 SHORT $LN85@LoadString
  000da	80 f2 ea	 xor	 dl, -22			; ffffffeaH
  000dd	80 78 0c 00	 cmp	 BYTE PTR [eax+12], 0
  000e1	88 55 f3	 mov	 BYTE PTR __k$[ebp+11], dl
  000e4	0f 84 8f 00 00
	00		 je	 $LN111@LoadString
  000ea	8a 50 0d	 mov	 dl, BYTE PTR [eax+13]
  000ed	84 d2		 test	 dl, dl
  000ef	74 3f		 je	 SHORT $LN83@LoadString
  000f1	32 d1		 xor	 dl, cl
  000f3	88 55 f5	 mov	 BYTE PTR __k$[ebp+13], dl
  000f6	8a 50 0e	 mov	 dl, BYTE PTR [eax+14]
  000f9	84 d2		 test	 dl, dl
  000fb	74 2d		 je	 SHORT $LN82@LoadString
  000fd	80 f2 eb	 xor	 dl, -21			; ffffffebH
  00100	88 55 f6	 mov	 BYTE PTR __k$[ebp+14], dl
  00103	8a 50 0f	 mov	 dl, BYTE PTR [eax+15]
  00106	84 d2		 test	 dl, dl
  00108	74 1a		 je	 SHORT $LN81@LoadString
  0010a	8a 40 10	 mov	 al, BYTE PTR [eax+16]
  0010d	80 f2 ea	 xor	 dl, -22			; ffffffeaH
  00110	88 55 f7	 mov	 BYTE PTR __k$[ebp+15], dl
  00113	84 c0		 test	 al, al
  00115	74 07		 je	 SHORT $LN80@LoadString
  00117	34 ed		 xor	 al, -19			; ffffffedH
  00119	88 45 f8	 mov	 BYTE PTR __k$[ebp+16], al
  0011c	eb 5b		 jmp	 SHORT $LN111@LoadString
$LN80@LoadString:
  0011e	c6 45 f8 ed	 mov	 BYTE PTR __k$[ebp+16], -19 ; ffffffedH
  00122	eb 55		 jmp	 SHORT $LN111@LoadString
$LN81@LoadString:
  00124	c6 45 f7 ea	 mov	 BYTE PTR __k$[ebp+15], -22 ; ffffffeaH
  00128	eb 4f		 jmp	 SHORT $LN111@LoadString
$LN82@LoadString:
  0012a	c6 45 f6 eb	 mov	 BYTE PTR __k$[ebp+14], -21 ; ffffffebH
  0012e	eb 49		 jmp	 SHORT $LN111@LoadString
$LN83@LoadString:
  00130	88 4d f5	 mov	 BYTE PTR __k$[ebp+13], cl
  00133	eb 44		 jmp	 SHORT $LN111@LoadString
$LN85@LoadString:
  00135	c6 45 f3 ea	 mov	 BYTE PTR __k$[ebp+11], -22 ; ffffffeaH
  00139	eb 3e		 jmp	 SHORT $LN111@LoadString
$LN86@LoadString:
  0013b	c6 45 f2 eb	 mov	 BYTE PTR __k$[ebp+10], -21 ; ffffffebH
  0013f	eb 38		 jmp	 SHORT $LN111@LoadString
$LN87@LoadString:
  00141	88 4d f1	 mov	 BYTE PTR __k$[ebp+9], cl
  00144	eb 33		 jmp	 SHORT $LN111@LoadString
$LN88@LoadString:
  00146	c6 45 f0 ed	 mov	 BYTE PTR __k$[ebp+8], -19 ; ffffffedH
  0014a	eb 2d		 jmp	 SHORT $LN111@LoadString
$LN89@LoadString:
  0014c	c6 45 ef ea	 mov	 BYTE PTR __k$[ebp+7], -22 ; ffffffeaH
  00150	eb 27		 jmp	 SHORT $LN111@LoadString
$LN90@LoadString:
  00152	c6 45 ee eb	 mov	 BYTE PTR __k$[ebp+6], -21 ; ffffffebH
  00156	eb 21		 jmp	 SHORT $LN111@LoadString
$LN91@LoadString:
  00158	88 4d ed	 mov	 BYTE PTR __k$[ebp+5], cl
  0015b	eb 1c		 jmp	 SHORT $LN111@LoadString
$LN92@LoadString:
  0015d	c6 45 ec ed	 mov	 BYTE PTR __k$[ebp+4], -19 ; ffffffedH
  00161	eb 16		 jmp	 SHORT $LN111@LoadString
$LN93@LoadString:
  00163	c6 45 eb ea	 mov	 BYTE PTR __k$[ebp+3], -22 ; ffffffeaH
  00167	eb 10		 jmp	 SHORT $LN111@LoadString
$LN94@LoadString:
  00169	c6 45 ea eb	 mov	 BYTE PTR __k$[ebp+2], -21 ; ffffffebH
  0016d	eb 0a		 jmp	 SHORT $LN111@LoadString
$LN95@LoadString:
  0016f	c6 45 e9 ec	 mov	 BYTE PTR __k$[ebp+1], -20 ; ffffffecH
  00173	eb 04		 jmp	 SHORT $LN111@LoadString
$LN96@LoadString:
  00175	c6 45 e8 ed	 mov	 BYTE PTR __k$[ebp], -19	; ffffffedH
$LN111@LoadString:
  00179	6a 03		 push	 3
  0017b	8d 45 e8	 lea	 eax, DWORD PTR __k$[ebp]
  0017e	c6 45 f4 00	 mov	 BYTE PTR __k$[ebp+12], 0
  00182	5a		 pop	 edx
$LL104@LoadString:
  00183	81 30 ed ec eb
	ea		 xor	 DWORD PTR [eax], -353637139 ; eaebecedH
  00189	83 c0 04	 add	 eax, 4
  0018c	4a		 dec	 edx
  0018d	75 f4		 jne	 SHORT $LL104@LoadString

; 163  : 		LoadString(_k, d, b, i);

  0018f	ff 75 14	 push	 DWORD PTR _i$[ebp]
  00192	8b 4d e4	 mov	 ecx, DWORD PTR _this$GSCopy$[ebp]
  00195	57		 push	 edi
  00196	56		 push	 esi
  00197	8d 45 e8	 lea	 eax, DWORD PTR __k$[ebp]
  0019a	50		 push	 eax
  0019b	ff 15 00 00 00
	00		 call	 DWORD PTR __imp_?LoadStringA@ioINILoader@@QAEXPBD0PADH@Z

; 164  : 	}

  001a1	8b 4d fc	 mov	 ecx, DWORD PTR __$ArrayPad$[ebp]
  001a4	5f		 pop	 edi
  001a5	33 cd		 xor	 ecx, ebp
  001a7	5e		 pop	 esi
  001a8	e8 00 00 00 00	 call	 @__security_check_cookie@4
  001ad	c9		 leave
  001ae	c2 10 00	 ret	 16			; 00000010H
??$LoadString_e@$0N@@ioINILoader@@QAEXAAY0N@$$CBDAAY00$$CBDPADH@Z ENDP ; ioINILoader::LoadString_e<13>
_TEXT	ENDS
PUBLIC	_this$GSCopy$
PUBLIC	__$ArrayPad$
PUBLIC	??$LoadString_e@$0BF@@ioINILoader@@QAEXAAY0BF@$$CBDAAY00$$CBDPADH@Z ; ioINILoader::LoadString_e<21>
; Function compile flags: /Ogsp
;	COMDAT ??$LoadString_e@$0BF@@ioINILoader@@QAEXAAY0BF@$$CBDAAY00$$CBDPADH@Z
_TEXT	SEGMENT
_this$GSCopy$ = -36					; size = 4
__k$ = -32						; size = 21
__$ArrayPad$ = -4					; size = 4
_k$ = 8							; size = 4
_d$ = 12						; size = 4
_b$ = 16						; size = 4
_i$ = 20						; size = 4
??$LoadString_e@$0BF@@ioINILoader@@QAEXAAY0BF@$$CBDAAY00$$CBDPADH@Z PROC ; ioINILoader::LoadString_e<21>, COMDAT
; _this$ = ecx

; 161  : 	{

  00000	55		 push	 ebp
  00001	8b ec		 mov	 ebp, esp
  00003	83 ec 24	 sub	 esp, 36			; 00000024H
  00006	a1 00 00 00 00	 mov	 eax, DWORD PTR ___security_cookie
  0000b	33 c5		 xor	 eax, ebp
  0000d	89 45 fc	 mov	 DWORD PTR __$ArrayPad$[ebp], eax
  00010	8b 45 08	 mov	 eax, DWORD PTR _k$[ebp]

; 162  : 		_ENCSTR(k, _k);

  00013	8a 10		 mov	 dl, BYTE PTR [eax]
  00015	53		 push	 ebx
  00016	56		 push	 esi
  00017	8b 75 0c	 mov	 esi, DWORD PTR _d$[ebp]
  0001a	57		 push	 edi
  0001b	8b 7d 10	 mov	 edi, DWORD PTR _b$[ebp]
  0001e	89 4d dc	 mov	 DWORD PTR _this$GSCopy$[ebp], ecx
  00021	84 d2		 test	 dl, dl
  00023	0f 84 f7 01 00
	00		 je	 $LN96@LoadString@2
  00029	80 f2 ed	 xor	 dl, -19			; ffffffedH
  0002c	88 55 e0	 mov	 BYTE PTR __k$[ebp], dl
  0002f	8a 50 01	 mov	 dl, BYTE PTR [eax+1]
  00032	84 d2		 test	 dl, dl
  00034	0f 84 e0 01 00
	00		 je	 $LN95@LoadString@2
  0003a	b1 ec		 mov	 cl, -20			; ffffffecH
  0003c	32 d1		 xor	 dl, cl
  0003e	88 55 e1	 mov	 BYTE PTR __k$[ebp+1], dl
  00041	8a 50 02	 mov	 dl, BYTE PTR [eax+2]
  00044	84 d2		 test	 dl, dl
  00046	0f 84 c8 01 00
	00		 je	 $LN94@LoadString@2
  0004c	b3 eb		 mov	 bl, -21			; ffffffebH
  0004e	32 d3		 xor	 dl, bl
  00050	88 55 e2	 mov	 BYTE PTR __k$[ebp+2], dl
  00053	8a 50 03	 mov	 dl, BYTE PTR [eax+3]
  00056	84 d2		 test	 dl, dl
  00058	0f 84 b0 01 00
	00		 je	 $LN93@LoadString@2
  0005e	80 f2 ea	 xor	 dl, -22			; ffffffeaH
  00061	88 55 e3	 mov	 BYTE PTR __k$[ebp+3], dl
  00064	8a 50 04	 mov	 dl, BYTE PTR [eax+4]
  00067	84 d2		 test	 dl, dl
  00069	0f 84 99 01 00
	00		 je	 $LN92@LoadString@2
  0006f	80 f2 ed	 xor	 dl, -19			; ffffffedH
  00072	88 55 e4	 mov	 BYTE PTR __k$[ebp+4], dl
  00075	8a 50 05	 mov	 dl, BYTE PTR [eax+5]
  00078	84 d2		 test	 dl, dl
  0007a	0f 84 83 01 00
	00		 je	 $LN91@LoadString@2
  00080	32 d1		 xor	 dl, cl
  00082	88 55 e5	 mov	 BYTE PTR __k$[ebp+5], dl
  00085	8a 50 06	 mov	 dl, BYTE PTR [eax+6]
  00088	84 d2		 test	 dl, dl
  0008a	0f 84 6e 01 00
	00		 je	 $LN90@LoadString@2
  00090	32 d3		 xor	 dl, bl
  00092	88 55 e6	 mov	 BYTE PTR __k$[ebp+6], dl
  00095	8a 50 07	 mov	 dl, BYTE PTR [eax+7]
  00098	84 d2		 test	 dl, dl
  0009a	0f 84 58 01 00
	00		 je	 $LN89@LoadString@2
  000a0	80 f2 ea	 xor	 dl, -22			; ffffffeaH
  000a3	88 55 e7	 mov	 BYTE PTR __k$[ebp+7], dl
  000a6	8a 50 08	 mov	 dl, BYTE PTR [eax+8]
  000a9	84 d2		 test	 dl, dl
  000ab	0f 84 41 01 00
	00		 je	 $LN88@LoadString@2
  000b1	80 f2 ed	 xor	 dl, -19			; ffffffedH
  000b4	88 55 e8	 mov	 BYTE PTR __k$[ebp+8], dl
  000b7	8a 50 09	 mov	 dl, BYTE PTR [eax+9]
  000ba	84 d2		 test	 dl, dl
  000bc	0f 84 2b 01 00
	00		 je	 $LN87@LoadString@2
  000c2	32 d1		 xor	 dl, cl
  000c4	88 55 e9	 mov	 BYTE PTR __k$[ebp+9], dl
  000c7	8a 50 0a	 mov	 dl, BYTE PTR [eax+10]
  000ca	84 d2		 test	 dl, dl
  000cc	0f 84 16 01 00
	00		 je	 $LN86@LoadString@2
  000d2	32 d3		 xor	 dl, bl
  000d4	88 55 ea	 mov	 BYTE PTR __k$[ebp+10], dl
  000d7	8a 50 0b	 mov	 dl, BYTE PTR [eax+11]
  000da	84 d2		 test	 dl, dl
  000dc	0f 84 00 01 00
	00		 je	 $LN85@LoadString@2
  000e2	80 f2 ea	 xor	 dl, -22			; ffffffeaH
  000e5	88 55 eb	 mov	 BYTE PTR __k$[ebp+11], dl
  000e8	8a 50 0c	 mov	 dl, BYTE PTR [eax+12]
  000eb	84 d2		 test	 dl, dl
  000ed	0f 84 e9 00 00
	00		 je	 $LN84@LoadString@2
  000f3	80 f2 ed	 xor	 dl, -19			; ffffffedH
  000f6	88 55 ec	 mov	 BYTE PTR __k$[ebp+12], dl
  000f9	8a 50 0d	 mov	 dl, BYTE PTR [eax+13]
  000fc	84 d2		 test	 dl, dl
  000fe	0f 84 d3 00 00
	00		 je	 $LN83@LoadString@2
  00104	32 d1		 xor	 dl, cl
  00106	88 55 ed	 mov	 BYTE PTR __k$[ebp+13], dl
  00109	8a 50 0e	 mov	 dl, BYTE PTR [eax+14]
  0010c	84 d2		 test	 dl, dl
  0010e	0f 84 be 00 00
	00		 je	 $LN82@LoadString@2
  00114	32 d3		 xor	 dl, bl
  00116	88 55 ee	 mov	 BYTE PTR __k$[ebp+14], dl
  00119	8a 50 0f	 mov	 dl, BYTE PTR [eax+15]
  0011c	84 d2		 test	 dl, dl
  0011e	0f 84 a8 00 00
	00		 je	 $LN81@LoadString@2
  00124	80 f2 ea	 xor	 dl, -22			; ffffffeaH
  00127	88 55 ef	 mov	 BYTE PTR __k$[ebp+15], dl
  0012a	8a 50 10	 mov	 dl, BYTE PTR [eax+16]
  0012d	84 d2		 test	 dl, dl
  0012f	0f 84 91 00 00
	00		 je	 $LN80@LoadString@2
  00135	80 f2 ed	 xor	 dl, -19			; ffffffedH
  00138	88 55 f0	 mov	 BYTE PTR __k$[ebp+16], dl
  0013b	8a 50 11	 mov	 dl, BYTE PTR [eax+17]
  0013e	84 d2		 test	 dl, dl
  00140	74 7f		 je	 SHORT $LN79@LoadString@2
  00142	32 d1		 xor	 dl, cl
  00144	88 55 f1	 mov	 BYTE PTR __k$[ebp+17], dl
  00147	8a 50 12	 mov	 dl, BYTE PTR [eax+18]
  0014a	84 d2		 test	 dl, dl
  0014c	74 6e		 je	 SHORT $LN78@LoadString@2
  0014e	32 d3		 xor	 dl, bl
  00150	88 55 f2	 mov	 BYTE PTR __k$[ebp+18], dl
  00153	8a 50 13	 mov	 dl, BYTE PTR [eax+19]
  00156	84 d2		 test	 dl, dl
  00158	74 5c		 je	 SHORT $LN77@LoadString@2
  0015a	80 f2 ea	 xor	 dl, -22			; ffffffeaH
  0015d	80 78 14 00	 cmp	 BYTE PTR [eax+20], 0
  00161	88 55 f3	 mov	 BYTE PTR __k$[ebp+19], dl
  00164	0f 84 ba 00 00
	00		 je	 $LN111@LoadString@2
  0016a	8a 50 15	 mov	 dl, BYTE PTR [eax+21]
  0016d	84 d2		 test	 dl, dl
  0016f	74 40		 je	 SHORT $LN75@LoadString@2
  00171	32 d1		 xor	 dl, cl
  00173	88 55 f5	 mov	 BYTE PTR __k$[ebp+21], dl
  00176	8a 50 16	 mov	 dl, BYTE PTR [eax+22]
  00179	84 d2		 test	 dl, dl
  0017b	74 2f		 je	 SHORT $LN74@LoadString@2
  0017d	32 d3		 xor	 dl, bl
  0017f	88 55 f6	 mov	 BYTE PTR __k$[ebp+22], dl
  00182	8a 50 17	 mov	 dl, BYTE PTR [eax+23]
  00185	84 d2		 test	 dl, dl
  00187	74 1d		 je	 SHORT $LN73@LoadString@2
  00189	8a 40 18	 mov	 al, BYTE PTR [eax+24]
  0018c	80 f2 ea	 xor	 dl, -22			; ffffffeaH
  0018f	88 55 f7	 mov	 BYTE PTR __k$[ebp+23], dl
  00192	84 c0		 test	 al, al
  00194	74 0a		 je	 SHORT $LN72@LoadString@2
  00196	34 ed		 xor	 al, -19			; ffffffedH
  00198	88 45 f8	 mov	 BYTE PTR __k$[ebp+24], al
  0019b	e9 84 00 00 00	 jmp	 $LN111@LoadString@2
$LN72@LoadString@2:
  001a0	c6 45 f8 ed	 mov	 BYTE PTR __k$[ebp+24], -19 ; ffffffedH
  001a4	eb 7e		 jmp	 SHORT $LN111@LoadString@2
$LN73@LoadString@2:
  001a6	c6 45 f7 ea	 mov	 BYTE PTR __k$[ebp+23], -22 ; ffffffeaH
  001aa	eb 78		 jmp	 SHORT $LN111@LoadString@2
$LN74@LoadString@2:
  001ac	88 5d f6	 mov	 BYTE PTR __k$[ebp+22], bl
  001af	eb 73		 jmp	 SHORT $LN111@LoadString@2
$LN75@LoadString@2:
  001b1	88 4d f5	 mov	 BYTE PTR __k$[ebp+21], cl
  001b4	eb 6e		 jmp	 SHORT $LN111@LoadString@2
$LN77@LoadString@2:
  001b6	c6 45 f3 ea	 mov	 BYTE PTR __k$[ebp+19], -22 ; ffffffeaH
  001ba	eb 68		 jmp	 SHORT $LN111@LoadString@2
$LN78@LoadString@2:
  001bc	88 5d f2	 mov	 BYTE PTR __k$[ebp+18], bl
  001bf	eb 63		 jmp	 SHORT $LN111@LoadString@2
$LN79@LoadString@2:
  001c1	88 4d f1	 mov	 BYTE PTR __k$[ebp+17], cl
  001c4	eb 5e		 jmp	 SHORT $LN111@LoadString@2
$LN80@LoadString@2:
  001c6	c6 45 f0 ed	 mov	 BYTE PTR __k$[ebp+16], -19 ; ffffffedH
  001ca	eb 58		 jmp	 SHORT $LN111@LoadString@2
$LN81@LoadString@2:
  001cc	c6 45 ef ea	 mov	 BYTE PTR __k$[ebp+15], -22 ; ffffffeaH
  001d0	eb 52		 jmp	 SHORT $LN111@LoadString@2
$LN82@LoadString@2:
  001d2	88 5d ee	 mov	 BYTE PTR __k$[ebp+14], bl
  001d5	eb 4d		 jmp	 SHORT $LN111@LoadString@2
$LN83@LoadString@2:
  001d7	88 4d ed	 mov	 BYTE PTR __k$[ebp+13], cl
  001da	eb 48		 jmp	 SHORT $LN111@LoadString@2
$LN84@LoadString@2:
  001dc	c6 45 ec ed	 mov	 BYTE PTR __k$[ebp+12], -19 ; ffffffedH
  001e0	eb 42		 jmp	 SHORT $LN111@LoadString@2
$LN85@LoadString@2:
  001e2	c6 45 eb ea	 mov	 BYTE PTR __k$[ebp+11], -22 ; ffffffeaH
  001e6	eb 3c		 jmp	 SHORT $LN111@LoadString@2
$LN86@LoadString@2:
  001e8	88 5d ea	 mov	 BYTE PTR __k$[ebp+10], bl
  001eb	eb 37		 jmp	 SHORT $LN111@LoadString@2
$LN87@LoadString@2:
  001ed	88 4d e9	 mov	 BYTE PTR __k$[ebp+9], cl
  001f0	eb 32		 jmp	 SHORT $LN111@LoadString@2
$LN88@LoadString@2:
  001f2	c6 45 e8 ed	 mov	 BYTE PTR __k$[ebp+8], -19 ; ffffffedH
  001f6	eb 2c		 jmp	 SHORT $LN111@LoadString@2
$LN89@LoadString@2:
  001f8	c6 45 e7 ea	 mov	 BYTE PTR __k$[ebp+7], -22 ; ffffffeaH
  001fc	eb 26		 jmp	 SHORT $LN111@LoadString@2
$LN90@LoadString@2:
  001fe	88 5d e6	 mov	 BYTE PTR __k$[ebp+6], bl
  00201	eb 21		 jmp	 SHORT $LN111@LoadString@2
$LN91@LoadString@2:
  00203	88 4d e5	 mov	 BYTE PTR __k$[ebp+5], cl
  00206	eb 1c		 jmp	 SHORT $LN111@LoadString@2
$LN92@LoadString@2:
  00208	c6 45 e4 ed	 mov	 BYTE PTR __k$[ebp+4], -19 ; ffffffedH
  0020c	eb 16		 jmp	 SHORT $LN111@LoadString@2
$LN93@LoadString@2:
  0020e	c6 45 e3 ea	 mov	 BYTE PTR __k$[ebp+3], -22 ; ffffffeaH
  00212	eb 10		 jmp	 SHORT $LN111@LoadString@2
$LN94@LoadString@2:
  00214	c6 45 e2 eb	 mov	 BYTE PTR __k$[ebp+2], -21 ; ffffffebH
  00218	eb 0a		 jmp	 SHORT $LN111@LoadString@2
$LN95@LoadString@2:
  0021a	c6 45 e1 ec	 mov	 BYTE PTR __k$[ebp+1], -20 ; ffffffecH
  0021e	eb 04		 jmp	 SHORT $LN111@LoadString@2
$LN96@LoadString@2:
  00220	c6 45 e0 ed	 mov	 BYTE PTR __k$[ebp], -19	; ffffffedH
$LN111@LoadString@2:
  00224	6a 05		 push	 5
  00226	8d 45 e0	 lea	 eax, DWORD PTR __k$[ebp]
  00229	c6 45 f4 00	 mov	 BYTE PTR __k$[ebp+20], 0
  0022d	5a		 pop	 edx
$LL104@LoadString@2:
  0022e	81 30 ed ec eb
	ea		 xor	 DWORD PTR [eax], -353637139 ; eaebecedH
  00234	83 c0 04	 add	 eax, 4
  00237	4a		 dec	 edx
  00238	75 f4		 jne	 SHORT $LL104@LoadString@2

; 163  : 		LoadString(_k, d, b, i);

  0023a	ff 75 14	 push	 DWORD PTR _i$[ebp]
  0023d	8b 4d dc	 mov	 ecx, DWORD PTR _this$GSCopy$[ebp]
  00240	57		 push	 edi
  00241	56		 push	 esi
  00242	8d 45 e0	 lea	 eax, DWORD PTR __k$[ebp]
  00245	50		 push	 eax
  00246	ff 15 00 00 00
	00		 call	 DWORD PTR __imp_?LoadStringA@ioINILoader@@QAEXPBD0PADH@Z

; 164  : 	}

  0024c	8b 4d fc	 mov	 ecx, DWORD PTR __$ArrayPad$[ebp]
  0024f	5f		 pop	 edi
  00250	5e		 pop	 esi
  00251	33 cd		 xor	 ecx, ebp
  00253	5b		 pop	 ebx
  00254	e8 00 00 00 00	 call	 @__security_check_cookie@4
  00259	c9		 leave
  0025a	c2 10 00	 ret	 16			; 00000010H
??$LoadString_e@$0BF@@ioINILoader@@QAEXAAY0BF@$$CBDAAY00$$CBDPADH@Z ENDP ; ioINILoader::LoadString_e<21>
_TEXT	ENDS
PUBLIC	_this$GSCopy$
PUBLIC	__$ArrayPad$
PUBLIC	??$LoadString_e@$0BA@@ioINILoader@@QAEXAAY0BA@$$CBDAAY00$$CBDPADH@Z ; ioINILoader::LoadString_e<16>
; Function compile flags: /Ogsp
;	COMDAT ??$LoadString_e@$0BA@@ioINILoader@@QAEXAAY0BA@$$CBDAAY00$$CBDPADH@Z
_TEXT	SEGMENT
_this$GSCopy$ = -28					; size = 4
__k$ = -24						; size = 16
__$ArrayPad$ = -4					; size = 4
_k$ = 8							; size = 4
_d$ = 12						; size = 4
_b$ = 16						; size = 4
_i$ = 20						; size = 4
??$LoadString_e@$0BA@@ioINILoader@@QAEXAAY0BA@$$CBDAAY00$$CBDPADH@Z PROC ; ioINILoader::LoadString_e<16>, COMDAT
; _this$ = ecx

; 161  : 	{

  00000	55		 push	 ebp
  00001	8b ec		 mov	 ebp, esp
  00003	83 ec 1c	 sub	 esp, 28			; 0000001cH
  00006	a1 00 00 00 00	 mov	 eax, DWORD PTR ___security_cookie
  0000b	33 c5		 xor	 eax, ebp
  0000d	89 45 fc	 mov	 DWORD PTR __$ArrayPad$[ebp], eax
  00010	8b 45 08	 mov	 eax, DWORD PTR _k$[ebp]

; 162  : 		_ENCSTR(k, _k);

  00013	8a 10		 mov	 dl, BYTE PTR [eax]
  00015	56		 push	 esi
  00016	8b 75 0c	 mov	 esi, DWORD PTR _d$[ebp]
  00019	57		 push	 edi
  0001a	8b 7d 10	 mov	 edi, DWORD PTR _b$[ebp]
  0001d	89 4d e4	 mov	 DWORD PTR _this$GSCopy$[ebp], ecx
  00020	84 d2		 test	 dl, dl
  00022	0f 84 8c 01 00
	00		 je	 $LN96@LoadString@3
  00028	80 f2 ed	 xor	 dl, -19			; ffffffedH
  0002b	88 55 e8	 mov	 BYTE PTR __k$[ebp], dl
  0002e	8a 50 01	 mov	 dl, BYTE PTR [eax+1]
  00031	84 d2		 test	 dl, dl
  00033	0f 84 75 01 00
	00		 je	 $LN95@LoadString@3
  00039	80 f2 ec	 xor	 dl, -20			; ffffffecH
  0003c	88 55 e9	 mov	 BYTE PTR __k$[ebp+1], dl
  0003f	8a 50 02	 mov	 dl, BYTE PTR [eax+2]
  00042	84 d2		 test	 dl, dl
  00044	0f 84 5e 01 00
	00		 je	 $LN94@LoadString@3
  0004a	b1 eb		 mov	 cl, -21			; ffffffebH
  0004c	32 d1		 xor	 dl, cl
  0004e	88 55 ea	 mov	 BYTE PTR __k$[ebp+2], dl
  00051	8a 50 03	 mov	 dl, BYTE PTR [eax+3]
  00054	84 d2		 test	 dl, dl
  00056	0f 84 46 01 00
	00		 je	 $LN93@LoadString@3
  0005c	80 f2 ea	 xor	 dl, -22			; ffffffeaH
  0005f	88 55 eb	 mov	 BYTE PTR __k$[ebp+3], dl
  00062	8a 50 04	 mov	 dl, BYTE PTR [eax+4]
  00065	84 d2		 test	 dl, dl
  00067	0f 84 2f 01 00
	00		 je	 $LN92@LoadString@3
  0006d	80 f2 ed	 xor	 dl, -19			; ffffffedH
  00070	88 55 ec	 mov	 BYTE PTR __k$[ebp+4], dl
  00073	8a 50 05	 mov	 dl, BYTE PTR [eax+5]
  00076	84 d2		 test	 dl, dl
  00078	0f 84 18 01 00
	00		 je	 $LN91@LoadString@3
  0007e	80 f2 ec	 xor	 dl, -20			; ffffffecH
  00081	88 55 ed	 mov	 BYTE PTR __k$[ebp+5], dl
  00084	8a 50 06	 mov	 dl, BYTE PTR [eax+6]
  00087	84 d2		 test	 dl, dl
  00089	0f 84 02 01 00
	00		 je	 $LN90@LoadString@3
  0008f	32 d1		 xor	 dl, cl
  00091	88 55 ee	 mov	 BYTE PTR __k$[ebp+6], dl
  00094	8a 50 07	 mov	 dl, BYTE PTR [eax+7]
  00097	84 d2		 test	 dl, dl
  00099	0f 84 ec 00 00
	00		 je	 $LN89@LoadString@3
  0009f	80 f2 ea	 xor	 dl, -22			; ffffffeaH
  000a2	88 55 ef	 mov	 BYTE PTR __k$[ebp+7], dl
  000a5	8a 50 08	 mov	 dl, BYTE PTR [eax+8]
  000a8	84 d2		 test	 dl, dl
  000aa	0f 84 d5 00 00
	00		 je	 $LN88@LoadString@3
  000b0	80 f2 ed	 xor	 dl, -19			; ffffffedH
  000b3	88 55 f0	 mov	 BYTE PTR __k$[ebp+8], dl
  000b6	8a 50 09	 mov	 dl, BYTE PTR [eax+9]
  000b9	84 d2		 test	 dl, dl
  000bb	0f 84 be 00 00
	00		 je	 $LN87@LoadString@3
  000c1	80 f2 ec	 xor	 dl, -20			; ffffffecH
  000c4	88 55 f1	 mov	 BYTE PTR __k$[ebp+9], dl
  000c7	8a 50 0a	 mov	 dl, BYTE PTR [eax+10]
  000ca	84 d2		 test	 dl, dl
  000cc	0f 84 a8 00 00
	00		 je	 $LN86@LoadString@3
  000d2	32 d1		 xor	 dl, cl
  000d4	88 55 f2	 mov	 BYTE PTR __k$[ebp+10], dl
  000d7	8a 50 0b	 mov	 dl, BYTE PTR [eax+11]
  000da	84 d2		 test	 dl, dl
  000dc	0f 84 92 00 00
	00		 je	 $LN85@LoadString@3
  000e2	80 f2 ea	 xor	 dl, -22			; ffffffeaH
  000e5	88 55 f3	 mov	 BYTE PTR __k$[ebp+11], dl
  000e8	8a 50 0c	 mov	 dl, BYTE PTR [eax+12]
  000eb	84 d2		 test	 dl, dl
  000ed	74 7f		 je	 SHORT $LN84@LoadString@3
  000ef	80 f2 ed	 xor	 dl, -19			; ffffffedH
  000f2	88 55 f4	 mov	 BYTE PTR __k$[ebp+12], dl
  000f5	8a 50 0d	 mov	 dl, BYTE PTR [eax+13]
  000f8	84 d2		 test	 dl, dl
  000fa	74 6c		 je	 SHORT $LN83@LoadString@3
  000fc	80 f2 ec	 xor	 dl, -20			; ffffffecH
  000ff	88 55 f5	 mov	 BYTE PTR __k$[ebp+13], dl
  00102	8a 50 0e	 mov	 dl, BYTE PTR [eax+14]
  00105	84 d2		 test	 dl, dl
  00107	74 5a		 je	 SHORT $LN82@LoadString@3
  00109	32 d1		 xor	 dl, cl
  0010b	80 78 0f 00	 cmp	 BYTE PTR [eax+15], 0
  0010f	88 55 f6	 mov	 BYTE PTR __k$[ebp+14], dl
  00112	0f 84 a0 00 00
	00		 je	 $LN111@LoadString@3
  00118	8a 50 10	 mov	 dl, BYTE PTR [eax+16]
  0011b	84 d2		 test	 dl, dl
  0011d	74 3e		 je	 SHORT $LN80@LoadString@3
  0011f	80 f2 ed	 xor	 dl, -19			; ffffffedH
  00122	88 55 f8	 mov	 BYTE PTR __k$[ebp+16], dl
  00125	8a 50 11	 mov	 dl, BYTE PTR [eax+17]
  00128	84 d2		 test	 dl, dl
  0012a	74 2b		 je	 SHORT $LN79@LoadString@3
  0012c	80 f2 ec	 xor	 dl, -20			; ffffffecH
  0012f	88 55 f9	 mov	 BYTE PTR __k$[ebp+17], dl
  00132	8a 50 12	 mov	 dl, BYTE PTR [eax+18]
  00135	84 d2		 test	 dl, dl
  00137	74 19		 je	 SHORT $LN78@LoadString@3
  00139	8a 40 13	 mov	 al, BYTE PTR [eax+19]
  0013c	32 d1		 xor	 dl, cl
  0013e	88 55 fa	 mov	 BYTE PTR __k$[ebp+18], dl
  00141	84 c0		 test	 al, al
  00143	74 07		 je	 SHORT $LN77@LoadString@3
  00145	34 ea		 xor	 al, -22			; ffffffeaH
  00147	88 45 fb	 mov	 BYTE PTR __k$[ebp+19], al
  0014a	eb 6c		 jmp	 SHORT $LN111@LoadString@3
$LN77@LoadString@3:
  0014c	c6 45 fb ea	 mov	 BYTE PTR __k$[ebp+19], -22 ; ffffffeaH
  00150	eb 66		 jmp	 SHORT $LN111@LoadString@3
$LN78@LoadString@3:
  00152	88 4d fa	 mov	 BYTE PTR __k$[ebp+18], cl
  00155	eb 61		 jmp	 SHORT $LN111@LoadString@3
$LN79@LoadString@3:
  00157	c6 45 f9 ec	 mov	 BYTE PTR __k$[ebp+17], -20 ; ffffffecH
  0015b	eb 5b		 jmp	 SHORT $LN111@LoadString@3
$LN80@LoadString@3:
  0015d	c6 45 f8 ed	 mov	 BYTE PTR __k$[ebp+16], -19 ; ffffffedH
  00161	eb 55		 jmp	 SHORT $LN111@LoadString@3
$LN82@LoadString@3:
  00163	88 4d f6	 mov	 BYTE PTR __k$[ebp+14], cl
  00166	eb 50		 jmp	 SHORT $LN111@LoadString@3
$LN83@LoadString@3:
  00168	c6 45 f5 ec	 mov	 BYTE PTR __k$[ebp+13], -20 ; ffffffecH
  0016c	eb 4a		 jmp	 SHORT $LN111@LoadString@3
$LN84@LoadString@3:
  0016e	c6 45 f4 ed	 mov	 BYTE PTR __k$[ebp+12], -19 ; ffffffedH
  00172	eb 44		 jmp	 SHORT $LN111@LoadString@3
$LN85@LoadString@3:
  00174	c6 45 f3 ea	 mov	 BYTE PTR __k$[ebp+11], -22 ; ffffffeaH
  00178	eb 3e		 jmp	 SHORT $LN111@LoadString@3
$LN86@LoadString@3:
  0017a	88 4d f2	 mov	 BYTE PTR __k$[ebp+10], cl
  0017d	eb 39		 jmp	 SHORT $LN111@LoadString@3
$LN87@LoadString@3:
  0017f	c6 45 f1 ec	 mov	 BYTE PTR __k$[ebp+9], -20 ; ffffffecH
  00183	eb 33		 jmp	 SHORT $LN111@LoadString@3
$LN88@LoadString@3:
  00185	c6 45 f0 ed	 mov	 BYTE PTR __k$[ebp+8], -19 ; ffffffedH
  00189	eb 2d		 jmp	 SHORT $LN111@LoadString@3
$LN89@LoadString@3:
  0018b	c6 45 ef ea	 mov	 BYTE PTR __k$[ebp+7], -22 ; ffffffeaH
  0018f	eb 27		 jmp	 SHORT $LN111@LoadString@3
$LN90@LoadString@3:
  00191	88 4d ee	 mov	 BYTE PTR __k$[ebp+6], cl
  00194	eb 22		 jmp	 SHORT $LN111@LoadString@3
$LN91@LoadString@3:
  00196	c6 45 ed ec	 mov	 BYTE PTR __k$[ebp+5], -20 ; ffffffecH
  0019a	eb 1c		 jmp	 SHORT $LN111@LoadString@3
$LN92@LoadString@3:
  0019c	c6 45 ec ed	 mov	 BYTE PTR __k$[ebp+4], -19 ; ffffffedH
  001a0	eb 16		 jmp	 SHORT $LN111@LoadString@3
$LN93@LoadString@3:
  001a2	c6 45 eb ea	 mov	 BYTE PTR __k$[ebp+3], -22 ; ffffffeaH
  001a6	eb 10		 jmp	 SHORT $LN111@LoadString@3
$LN94@LoadString@3:
  001a8	c6 45 ea eb	 mov	 BYTE PTR __k$[ebp+2], -21 ; ffffffebH
  001ac	eb 0a		 jmp	 SHORT $LN111@LoadString@3
$LN95@LoadString@3:
  001ae	c6 45 e9 ec	 mov	 BYTE PTR __k$[ebp+1], -20 ; ffffffecH
  001b2	eb 04		 jmp	 SHORT $LN111@LoadString@3
$LN96@LoadString@3:
  001b4	c6 45 e8 ed	 mov	 BYTE PTR __k$[ebp], -19	; ffffffedH
$LN111@LoadString@3:
  001b8	6a 03		 push	 3
  001ba	8d 45 e8	 lea	 eax, DWORD PTR __k$[ebp]
  001bd	c6 45 f7 00	 mov	 BYTE PTR __k$[ebp+15], 0
  001c1	5a		 pop	 edx
$LL104@LoadString@3:
  001c2	81 30 ed ec eb
	ea		 xor	 DWORD PTR [eax], -353637139 ; eaebecedH
  001c8	83 c0 04	 add	 eax, 4
  001cb	4a		 dec	 edx
  001cc	75 f4		 jne	 SHORT $LL104@LoadString@3
  001ce	6a 0c		 push	 12			; 0000000cH
  001d0	58		 pop	 eax
$LL101@LoadString@3:
  001d1	8b c8		 mov	 ecx, eax
  001d3	81 e1 03 00 00
	80		 and	 ecx, -2147483645	; 80000003H
  001d9	79 05		 jns	 SHORT $LN112@LoadString@3
  001db	49		 dec	 ecx
  001dc	83 c9 fc	 or	 ecx, -4			; fffffffcH
  001df	41		 inc	 ecx
$LN112@LoadString@3:
  001e0	b2 ed		 mov	 dl, -19			; ffffffedH
  001e2	2a d1		 sub	 dl, cl
  001e4	30 54 05 e8	 xor	 BYTE PTR __k$[ebp+eax], dl
  001e8	40		 inc	 eax
  001e9	83 f8 0f	 cmp	 eax, 15			; 0000000fH
  001ec	7c e3		 jl	 SHORT $LL101@LoadString@3

; 163  : 		LoadString(_k, d, b, i);

  001ee	ff 75 14	 push	 DWORD PTR _i$[ebp]
  001f1	8b 4d e4	 mov	 ecx, DWORD PTR _this$GSCopy$[ebp]
  001f4	57		 push	 edi
  001f5	56		 push	 esi
  001f6	8d 45 e8	 lea	 eax, DWORD PTR __k$[ebp]
  001f9	50		 push	 eax
  001fa	ff 15 00 00 00
	00		 call	 DWORD PTR __imp_?LoadStringA@ioINILoader@@QAEXPBD0PADH@Z

; 164  : 	}

  00200	8b 4d fc	 mov	 ecx, DWORD PTR __$ArrayPad$[ebp]
  00203	5f		 pop	 edi
  00204	33 cd		 xor	 ecx, ebp
  00206	5e		 pop	 esi
  00207	e8 00 00 00 00	 call	 @__security_check_cookie@4
  0020c	c9		 leave
  0020d	c2 10 00	 ret	 16			; 00000010H
??$LoadString_e@$0BA@@ioINILoader@@QAEXAAY0BA@$$CBDAAY00$$CBDPADH@Z ENDP ; ioINILoader::LoadString_e<16>
_TEXT	ENDS
PUBLIC	_this$GSCopy$
PUBLIC	__$ArrayPad$
PUBLIC	??$LoadString_e@$0BB@@ioINILoader@@QAEXAAY0BB@$$CBDAAY00$$CBDPADH@Z ; ioINILoader::LoadString_e<17>
; Function compile flags: /Ogsp
;	COMDAT ??$LoadString_e@$0BB@@ioINILoader@@QAEXAAY0BB@$$CBDAAY00$$CBDPADH@Z
_TEXT	SEGMENT
_this$GSCopy$ = -32					; size = 4
__k$ = -28						; size = 17
__$ArrayPad$ = -4					; size = 4
_k$ = 8							; size = 4
_d$ = 12						; size = 4
_b$ = 16						; size = 4
_i$ = 20						; size = 4
??$LoadString_e@$0BB@@ioINILoader@@QAEXAAY0BB@$$CBDAAY00$$CBDPADH@Z PROC ; ioINILoader::LoadString_e<17>, COMDAT
; _this$ = ecx

; 161  : 	{

  00000	55		 push	 ebp
  00001	8b ec		 mov	 ebp, esp
  00003	83 ec 20	 sub	 esp, 32			; 00000020H
  00006	a1 00 00 00 00	 mov	 eax, DWORD PTR ___security_cookie
  0000b	33 c5		 xor	 eax, ebp
  0000d	89 45 fc	 mov	 DWORD PTR __$ArrayPad$[ebp], eax
  00010	8b 45 08	 mov	 eax, DWORD PTR _k$[ebp]

; 162  : 		_ENCSTR(k, _k);

  00013	8a 10		 mov	 dl, BYTE PTR [eax]
  00015	56		 push	 esi
  00016	8b 75 0c	 mov	 esi, DWORD PTR _d$[ebp]
  00019	57		 push	 edi
  0001a	8b 7d 10	 mov	 edi, DWORD PTR _b$[ebp]
  0001d	89 4d e0	 mov	 DWORD PTR _this$GSCopy$[ebp], ecx
  00020	84 d2		 test	 dl, dl
  00022	0f 84 a7 01 00
	00		 je	 $LN96@LoadString@4
  00028	80 f2 ed	 xor	 dl, -19			; ffffffedH
  0002b	88 55 e4	 mov	 BYTE PTR __k$[ebp], dl
  0002e	8a 50 01	 mov	 dl, BYTE PTR [eax+1]
  00031	84 d2		 test	 dl, dl
  00033	0f 84 90 01 00
	00		 je	 $LN95@LoadString@4
  00039	b1 ec		 mov	 cl, -20			; ffffffecH
  0003b	32 d1		 xor	 dl, cl
  0003d	88 55 e5	 mov	 BYTE PTR __k$[ebp+1], dl
  00040	8a 50 02	 mov	 dl, BYTE PTR [eax+2]
  00043	84 d2		 test	 dl, dl
  00045	0f 84 78 01 00
	00		 je	 $LN94@LoadString@4
  0004b	80 f2 eb	 xor	 dl, -21			; ffffffebH
  0004e	88 55 e6	 mov	 BYTE PTR __k$[ebp+2], dl
  00051	8a 50 03	 mov	 dl, BYTE PTR [eax+3]
  00054	84 d2		 test	 dl, dl
  00056	0f 84 61 01 00
	00		 je	 $LN93@LoadString@4
  0005c	80 f2 ea	 xor	 dl, -22			; ffffffeaH
  0005f	88 55 e7	 mov	 BYTE PTR __k$[ebp+3], dl
  00062	8a 50 04	 mov	 dl, BYTE PTR [eax+4]
  00065	84 d2		 test	 dl, dl
  00067	0f 84 4a 01 00
	00		 je	 $LN92@LoadString@4
  0006d	80 f2 ed	 xor	 dl, -19			; ffffffedH
  00070	88 55 e8	 mov	 BYTE PTR __k$[ebp+4], dl
  00073	8a 50 05	 mov	 dl, BYTE PTR [eax+5]
  00076	84 d2		 test	 dl, dl
  00078	0f 84 34 01 00
	00		 je	 $LN91@LoadString@4
  0007e	32 d1		 xor	 dl, cl
  00080	88 55 e9	 mov	 BYTE PTR __k$[ebp+5], dl
  00083	8a 50 06	 mov	 dl, BYTE PTR [eax+6]
  00086	84 d2		 test	 dl, dl
  00088	0f 84 1e 01 00
	00		 je	 $LN90@LoadString@4
  0008e	80 f2 eb	 xor	 dl, -21			; ffffffebH
  00091	88 55 ea	 mov	 BYTE PTR __k$[ebp+6], dl
  00094	8a 50 07	 mov	 dl, BYTE PTR [eax+7]
  00097	84 d2		 test	 dl, dl
  00099	0f 84 07 01 00
	00		 je	 $LN89@LoadString@4
  0009f	80 f2 ea	 xor	 dl, -22			; ffffffeaH
  000a2	88 55 eb	 mov	 BYTE PTR __k$[ebp+7], dl
  000a5	8a 50 08	 mov	 dl, BYTE PTR [eax+8]
  000a8	84 d2		 test	 dl, dl
  000aa	0f 84 f0 00 00
	00		 je	 $LN88@LoadString@4
  000b0	80 f2 ed	 xor	 dl, -19			; ffffffedH
  000b3	88 55 ec	 mov	 BYTE PTR __k$[ebp+8], dl
  000b6	8a 50 09	 mov	 dl, BYTE PTR [eax+9]
  000b9	84 d2		 test	 dl, dl
  000bb	0f 84 da 00 00
	00		 je	 $LN87@LoadString@4
  000c1	32 d1		 xor	 dl, cl
  000c3	88 55 ed	 mov	 BYTE PTR __k$[ebp+9], dl
  000c6	8a 50 0a	 mov	 dl, BYTE PTR [eax+10]
  000c9	84 d2		 test	 dl, dl
  000cb	0f 84 c4 00 00
	00		 je	 $LN86@LoadString@4
  000d1	80 f2 eb	 xor	 dl, -21			; ffffffebH
  000d4	88 55 ee	 mov	 BYTE PTR __k$[ebp+10], dl
  000d7	8a 50 0b	 mov	 dl, BYTE PTR [eax+11]
  000da	84 d2		 test	 dl, dl
  000dc	0f 84 ad 00 00
	00		 je	 $LN85@LoadString@4
  000e2	80 f2 ea	 xor	 dl, -22			; ffffffeaH
  000e5	88 55 ef	 mov	 BYTE PTR __k$[ebp+11], dl
  000e8	8a 50 0c	 mov	 dl, BYTE PTR [eax+12]
  000eb	84 d2		 test	 dl, dl
  000ed	0f 84 96 00 00
	00		 je	 $LN84@LoadString@4
  000f3	80 f2 ed	 xor	 dl, -19			; ffffffedH
  000f6	88 55 f0	 mov	 BYTE PTR __k$[ebp+12], dl
  000f9	8a 50 0d	 mov	 dl, BYTE PTR [eax+13]
  000fc	84 d2		 test	 dl, dl
  000fe	0f 84 80 00 00
	00		 je	 $LN83@LoadString@4
  00104	32 d1		 xor	 dl, cl
  00106	88 55 f1	 mov	 BYTE PTR __k$[ebp+13], dl
  00109	8a 50 0e	 mov	 dl, BYTE PTR [eax+14]
  0010c	84 d2		 test	 dl, dl
  0010e	74 6e		 je	 SHORT $LN82@LoadString@4
  00110	80 f2 eb	 xor	 dl, -21			; ffffffebH
  00113	88 55 f2	 mov	 BYTE PTR __k$[ebp+14], dl
  00116	8a 50 0f	 mov	 dl, BYTE PTR [eax+15]
  00119	84 d2		 test	 dl, dl
  0011b	74 5b		 je	 SHORT $LN81@LoadString@4
  0011d	80 f2 ea	 xor	 dl, -22			; ffffffeaH
  00120	80 78 10 00	 cmp	 BYTE PTR [eax+16], 0
  00124	88 55 f3	 mov	 BYTE PTR __k$[ebp+15], dl
  00127	0f 84 a6 00 00
	00		 je	 $LN111@LoadString@4
  0012d	8a 50 11	 mov	 dl, BYTE PTR [eax+17]
  00130	84 d2		 test	 dl, dl
  00132	74 3f		 je	 SHORT $LN79@LoadString@4
  00134	32 d1		 xor	 dl, cl
  00136	88 55 f5	 mov	 BYTE PTR __k$[ebp+17], dl
  00139	8a 50 12	 mov	 dl, BYTE PTR [eax+18]
  0013c	84 d2		 test	 dl, dl
  0013e	74 2d		 je	 SHORT $LN78@LoadString@4
  00140	80 f2 eb	 xor	 dl, -21			; ffffffebH
  00143	88 55 f6	 mov	 BYTE PTR __k$[ebp+18], dl
  00146	8a 50 13	 mov	 dl, BYTE PTR [eax+19]
  00149	84 d2		 test	 dl, dl
  0014b	74 1a		 je	 SHORT $LN77@LoadString@4
  0014d	8a 40 14	 mov	 al, BYTE PTR [eax+20]
  00150	80 f2 ea	 xor	 dl, -22			; ffffffeaH
  00153	88 55 f7	 mov	 BYTE PTR __k$[ebp+19], dl
  00156	84 c0		 test	 al, al
  00158	74 07		 je	 SHORT $LN76@LoadString@4
  0015a	34 ed		 xor	 al, -19			; ffffffedH
  0015c	88 45 f8	 mov	 BYTE PTR __k$[ebp+20], al
  0015f	eb 72		 jmp	 SHORT $LN111@LoadString@4
$LN76@LoadString@4:
  00161	c6 45 f8 ed	 mov	 BYTE PTR __k$[ebp+20], -19 ; ffffffedH
  00165	eb 6c		 jmp	 SHORT $LN111@LoadString@4
$LN77@LoadString@4:
  00167	c6 45 f7 ea	 mov	 BYTE PTR __k$[ebp+19], -22 ; ffffffeaH
  0016b	eb 66		 jmp	 SHORT $LN111@LoadString@4
$LN78@LoadString@4:
  0016d	c6 45 f6 eb	 mov	 BYTE PTR __k$[ebp+18], -21 ; ffffffebH
  00171	eb 60		 jmp	 SHORT $LN111@LoadString@4
$LN79@LoadString@4:
  00173	88 4d f5	 mov	 BYTE PTR __k$[ebp+17], cl
  00176	eb 5b		 jmp	 SHORT $LN111@LoadString@4
$LN81@LoadString@4:
  00178	c6 45 f3 ea	 mov	 BYTE PTR __k$[ebp+15], -22 ; ffffffeaH
  0017c	eb 55		 jmp	 SHORT $LN111@LoadString@4
$LN82@LoadString@4:
  0017e	c6 45 f2 eb	 mov	 BYTE PTR __k$[ebp+14], -21 ; ffffffebH
  00182	eb 4f		 jmp	 SHORT $LN111@LoadString@4
$LN83@LoadString@4:
  00184	88 4d f1	 mov	 BYTE PTR __k$[ebp+13], cl
  00187	eb 4a		 jmp	 SHORT $LN111@LoadString@4
$LN84@LoadString@4:
  00189	c6 45 f0 ed	 mov	 BYTE PTR __k$[ebp+12], -19 ; ffffffedH
  0018d	eb 44		 jmp	 SHORT $LN111@LoadString@4
$LN85@LoadString@4:
  0018f	c6 45 ef ea	 mov	 BYTE PTR __k$[ebp+11], -22 ; ffffffeaH
  00193	eb 3e		 jmp	 SHORT $LN111@LoadString@4
$LN86@LoadString@4:
  00195	c6 45 ee eb	 mov	 BYTE PTR __k$[ebp+10], -21 ; ffffffebH
  00199	eb 38		 jmp	 SHORT $LN111@LoadString@4
$LN87@LoadString@4:
  0019b	88 4d ed	 mov	 BYTE PTR __k$[ebp+9], cl
  0019e	eb 33		 jmp	 SHORT $LN111@LoadString@4
$LN88@LoadString@4:
  001a0	c6 45 ec ed	 mov	 BYTE PTR __k$[ebp+8], -19 ; ffffffedH
  001a4	eb 2d		 jmp	 SHORT $LN111@LoadString@4
$LN89@LoadString@4:
  001a6	c6 45 eb ea	 mov	 BYTE PTR __k$[ebp+7], -22 ; ffffffeaH
  001aa	eb 27		 jmp	 SHORT $LN111@LoadString@4
$LN90@LoadString@4:
  001ac	c6 45 ea eb	 mov	 BYTE PTR __k$[ebp+6], -21 ; ffffffebH
  001b0	eb 21		 jmp	 SHORT $LN111@LoadString@4
$LN91@LoadString@4:
  001b2	88 4d e9	 mov	 BYTE PTR __k$[ebp+5], cl
  001b5	eb 1c		 jmp	 SHORT $LN111@LoadString@4
$LN92@LoadString@4:
  001b7	c6 45 e8 ed	 mov	 BYTE PTR __k$[ebp+4], -19 ; ffffffedH
  001bb	eb 16		 jmp	 SHORT $LN111@LoadString@4
$LN93@LoadString@4:
  001bd	c6 45 e7 ea	 mov	 BYTE PTR __k$[ebp+3], -22 ; ffffffeaH
  001c1	eb 10		 jmp	 SHORT $LN111@LoadString@4
$LN94@LoadString@4:
  001c3	c6 45 e6 eb	 mov	 BYTE PTR __k$[ebp+2], -21 ; ffffffebH
  001c7	eb 0a		 jmp	 SHORT $LN111@LoadString@4
$LN95@LoadString@4:
  001c9	c6 45 e5 ec	 mov	 BYTE PTR __k$[ebp+1], -20 ; ffffffecH
  001cd	eb 04		 jmp	 SHORT $LN111@LoadString@4
$LN96@LoadString@4:
  001cf	c6 45 e4 ed	 mov	 BYTE PTR __k$[ebp], -19	; ffffffedH
$LN111@LoadString@4:
  001d3	6a 04		 push	 4
  001d5	8d 45 e4	 lea	 eax, DWORD PTR __k$[ebp]
  001d8	c6 45 f4 00	 mov	 BYTE PTR __k$[ebp+16], 0
  001dc	5a		 pop	 edx
$LL104@LoadString@4:
  001dd	81 30 ed ec eb
	ea		 xor	 DWORD PTR [eax], -353637139 ; eaebecedH
  001e3	83 c0 04	 add	 eax, 4
  001e6	4a		 dec	 edx
  001e7	75 f4		 jne	 SHORT $LL104@LoadString@4

; 163  : 		LoadString(_k, d, b, i);

  001e9	ff 75 14	 push	 DWORD PTR _i$[ebp]
  001ec	8b 4d e0	 mov	 ecx, DWORD PTR _this$GSCopy$[ebp]
  001ef	57		 push	 edi
  001f0	56		 push	 esi
  001f1	8d 45 e4	 lea	 eax, DWORD PTR __k$[ebp]
  001f4	50		 push	 eax
  001f5	ff 15 00 00 00
	00		 call	 DWORD PTR __imp_?LoadStringA@ioINILoader@@QAEXPBD0PADH@Z

; 164  : 	}

  001fb	8b 4d fc	 mov	 ecx, DWORD PTR __$ArrayPad$[ebp]
  001fe	5f		 pop	 edi
  001ff	33 cd		 xor	 ecx, ebp
  00201	5e		 pop	 esi
  00202	e8 00 00 00 00	 call	 @__security_check_cookie@4
  00207	c9		 leave
  00208	c2 10 00	 ret	 16			; 00000010H
??$LoadString_e@$0BB@@ioINILoader@@QAEXAAY0BB@$$CBDAAY00$$CBDPADH@Z ENDP ; ioINILoader::LoadString_e<17>
_TEXT	ENDS
PUBLIC	__$ArrayPad$
PUBLIC	??$LoadFloat_e@$0BA@@ioINILoader@@QAEMAAY0BA@$$CBDM@Z ; ioINILoader::LoadFloat_e<16>
; Function compile flags: /Ogsp
;	COMDAT ??$LoadFloat_e@$0BA@@ioINILoader@@QAEMAAY0BA@$$CBDM@Z
_TEXT	SEGMENT
__k$ = -24						; size = 16
__$ArrayPad$ = -4					; size = 4
_k$ = 8							; size = 4
_f$ = 12						; size = 4
??$LoadFloat_e@$0BA@@ioINILoader@@QAEMAAY0BA@$$CBDM@Z PROC ; ioINILoader::LoadFloat_e<16>, COMDAT
; _this$ = ecx

; 135  : 	{

  00000	55		 push	 ebp
  00001	8b ec		 mov	 ebp, esp
  00003	83 ec 18	 sub	 esp, 24			; 00000018H
  00006	a1 00 00 00 00	 mov	 eax, DWORD PTR ___security_cookie
  0000b	33 c5		 xor	 eax, ebp
  0000d	89 45 fc	 mov	 DWORD PTR __$ArrayPad$[ebp], eax
  00010	8b 45 08	 mov	 eax, DWORD PTR _k$[ebp]

; 136  : 		_ENCSTR(k, _k);

  00013	8a 10		 mov	 dl, BYTE PTR [eax]
  00015	56		 push	 esi
  00016	8b f1		 mov	 esi, ecx
  00018	84 d2		 test	 dl, dl
  0001a	0f 84 8c 01 00
	00		 je	 $LN96@LoadFloat_@4
  00020	80 f2 ed	 xor	 dl, -19			; ffffffedH
  00023	88 55 e8	 mov	 BYTE PTR __k$[ebp], dl
  00026	8a 50 01	 mov	 dl, BYTE PTR [eax+1]
  00029	84 d2		 test	 dl, dl
  0002b	0f 84 75 01 00
	00		 je	 $LN95@LoadFloat_@4
  00031	80 f2 ec	 xor	 dl, -20			; ffffffecH
  00034	88 55 e9	 mov	 BYTE PTR __k$[ebp+1], dl
  00037	8a 50 02	 mov	 dl, BYTE PTR [eax+2]
  0003a	84 d2		 test	 dl, dl
  0003c	0f 84 5e 01 00
	00		 je	 $LN94@LoadFloat_@4
  00042	b1 eb		 mov	 cl, -21			; ffffffebH
  00044	32 d1		 xor	 dl, cl
  00046	88 55 ea	 mov	 BYTE PTR __k$[ebp+2], dl
  00049	8a 50 03	 mov	 dl, BYTE PTR [eax+3]
  0004c	84 d2		 test	 dl, dl
  0004e	0f 84 46 01 00
	00		 je	 $LN93@LoadFloat_@4
  00054	80 f2 ea	 xor	 dl, -22			; ffffffeaH
  00057	88 55 eb	 mov	 BYTE PTR __k$[ebp+3], dl
  0005a	8a 50 04	 mov	 dl, BYTE PTR [eax+4]
  0005d	84 d2		 test	 dl, dl
  0005f	0f 84 2f 01 00
	00		 je	 $LN92@LoadFloat_@4
  00065	80 f2 ed	 xor	 dl, -19			; ffffffedH
  00068	88 55 ec	 mov	 BYTE PTR __k$[ebp+4], dl
  0006b	8a 50 05	 mov	 dl, BYTE PTR [eax+5]
  0006e	84 d2		 test	 dl, dl
  00070	0f 84 18 01 00
	00		 je	 $LN91@LoadFloat_@4
  00076	80 f2 ec	 xor	 dl, -20			; ffffffecH
  00079	88 55 ed	 mov	 BYTE PTR __k$[ebp+5], dl
  0007c	8a 50 06	 mov	 dl, BYTE PTR [eax+6]
  0007f	84 d2		 test	 dl, dl
  00081	0f 84 02 01 00
	00		 je	 $LN90@LoadFloat_@4
  00087	32 d1		 xor	 dl, cl
  00089	88 55 ee	 mov	 BYTE PTR __k$[ebp+6], dl
  0008c	8a 50 07	 mov	 dl, BYTE PTR [eax+7]
  0008f	84 d2		 test	 dl, dl
  00091	0f 84 ec 00 00
	00		 je	 $LN89@LoadFloat_@4
  00097	80 f2 ea	 xor	 dl, -22			; ffffffeaH
  0009a	88 55 ef	 mov	 BYTE PTR __k$[ebp+7], dl
  0009d	8a 50 08	 mov	 dl, BYTE PTR [eax+8]
  000a0	84 d2		 test	 dl, dl
  000a2	0f 84 d5 00 00
	00		 je	 $LN88@LoadFloat_@4
  000a8	80 f2 ed	 xor	 dl, -19			; ffffffedH
  000ab	88 55 f0	 mov	 BYTE PTR __k$[ebp+8], dl
  000ae	8a 50 09	 mov	 dl, BYTE PTR [eax+9]
  000b1	84 d2		 test	 dl, dl
  000b3	0f 84 be 00 00
	00		 je	 $LN87@LoadFloat_@4
  000b9	80 f2 ec	 xor	 dl, -20			; ffffffecH
  000bc	88 55 f1	 mov	 BYTE PTR __k$[ebp+9], dl
  000bf	8a 50 0a	 mov	 dl, BYTE PTR [eax+10]
  000c2	84 d2		 test	 dl, dl
  000c4	0f 84 a8 00 00
	00		 je	 $LN86@LoadFloat_@4
  000ca	32 d1		 xor	 dl, cl
  000cc	88 55 f2	 mov	 BYTE PTR __k$[ebp+10], dl
  000cf	8a 50 0b	 mov	 dl, BYTE PTR [eax+11]
  000d2	84 d2		 test	 dl, dl
  000d4	0f 84 92 00 00
	00		 je	 $LN85@LoadFloat_@4
  000da	80 f2 ea	 xor	 dl, -22			; ffffffeaH
  000dd	88 55 f3	 mov	 BYTE PTR __k$[ebp+11], dl
  000e0	8a 50 0c	 mov	 dl, BYTE PTR [eax+12]
  000e3	84 d2		 test	 dl, dl
  000e5	74 7f		 je	 SHORT $LN84@LoadFloat_@4
  000e7	80 f2 ed	 xor	 dl, -19			; ffffffedH
  000ea	88 55 f4	 mov	 BYTE PTR __k$[ebp+12], dl
  000ed	8a 50 0d	 mov	 dl, BYTE PTR [eax+13]
  000f0	84 d2		 test	 dl, dl
  000f2	74 6c		 je	 SHORT $LN83@LoadFloat_@4
  000f4	80 f2 ec	 xor	 dl, -20			; ffffffecH
  000f7	88 55 f5	 mov	 BYTE PTR __k$[ebp+13], dl
  000fa	8a 50 0e	 mov	 dl, BYTE PTR [eax+14]
  000fd	84 d2		 test	 dl, dl
  000ff	74 5a		 je	 SHORT $LN82@LoadFloat_@4
  00101	32 d1		 xor	 dl, cl
  00103	80 78 0f 00	 cmp	 BYTE PTR [eax+15], 0
  00107	88 55 f6	 mov	 BYTE PTR __k$[ebp+14], dl
  0010a	0f 84 a0 00 00
	00		 je	 $LN1@LoadFloat_@4
  00110	8a 50 10	 mov	 dl, BYTE PTR [eax+16]
  00113	84 d2		 test	 dl, dl
  00115	74 3e		 je	 SHORT $LN80@LoadFloat_@4
  00117	80 f2 ed	 xor	 dl, -19			; ffffffedH
  0011a	88 55 f8	 mov	 BYTE PTR __k$[ebp+16], dl
  0011d	8a 50 11	 mov	 dl, BYTE PTR [eax+17]
  00120	84 d2		 test	 dl, dl
  00122	74 2b		 je	 SHORT $LN79@LoadFloat_@4
  00124	80 f2 ec	 xor	 dl, -20			; ffffffecH
  00127	88 55 f9	 mov	 BYTE PTR __k$[ebp+17], dl
  0012a	8a 50 12	 mov	 dl, BYTE PTR [eax+18]
  0012d	84 d2		 test	 dl, dl
  0012f	74 19		 je	 SHORT $LN78@LoadFloat_@4
  00131	8a 40 13	 mov	 al, BYTE PTR [eax+19]
  00134	32 d1		 xor	 dl, cl
  00136	88 55 fa	 mov	 BYTE PTR __k$[ebp+18], dl
  00139	84 c0		 test	 al, al
  0013b	74 07		 je	 SHORT $LN77@LoadFloat_@4
  0013d	34 ea		 xor	 al, -22			; ffffffeaH
  0013f	88 45 fb	 mov	 BYTE PTR __k$[ebp+19], al
  00142	eb 6c		 jmp	 SHORT $LN1@LoadFloat_@4
$LN77@LoadFloat_@4:
  00144	c6 45 fb ea	 mov	 BYTE PTR __k$[ebp+19], -22 ; ffffffeaH
  00148	eb 66		 jmp	 SHORT $LN1@LoadFloat_@4
$LN78@LoadFloat_@4:
  0014a	88 4d fa	 mov	 BYTE PTR __k$[ebp+18], cl
  0014d	eb 61		 jmp	 SHORT $LN1@LoadFloat_@4
$LN79@LoadFloat_@4:
  0014f	c6 45 f9 ec	 mov	 BYTE PTR __k$[ebp+17], -20 ; ffffffecH
  00153	eb 5b		 jmp	 SHORT $LN1@LoadFloat_@4
$LN80@LoadFloat_@4:
  00155	c6 45 f8 ed	 mov	 BYTE PTR __k$[ebp+16], -19 ; ffffffedH
  00159	eb 55		 jmp	 SHORT $LN1@LoadFloat_@4
$LN82@LoadFloat_@4:
  0015b	88 4d f6	 mov	 BYTE PTR __k$[ebp+14], cl
  0015e	eb 50		 jmp	 SHORT $LN1@LoadFloat_@4
$LN83@LoadFloat_@4:
  00160	c6 45 f5 ec	 mov	 BYTE PTR __k$[ebp+13], -20 ; ffffffecH
  00164	eb 4a		 jmp	 SHORT $LN1@LoadFloat_@4
$LN84@LoadFloat_@4:
  00166	c6 45 f4 ed	 mov	 BYTE PTR __k$[ebp+12], -19 ; ffffffedH
  0016a	eb 44		 jmp	 SHORT $LN1@LoadFloat_@4
$LN85@LoadFloat_@4:
  0016c	c6 45 f3 ea	 mov	 BYTE PTR __k$[ebp+11], -22 ; ffffffeaH
  00170	eb 3e		 jmp	 SHORT $LN1@LoadFloat_@4
$LN86@LoadFloat_@4:
  00172	88 4d f2	 mov	 BYTE PTR __k$[ebp+10], cl
  00175	eb 39		 jmp	 SHORT $LN1@LoadFloat_@4
$LN87@LoadFloat_@4:
  00177	c6 45 f1 ec	 mov	 BYTE PTR __k$[ebp+9], -20 ; ffffffecH
  0017b	eb 33		 jmp	 SHORT $LN1@LoadFloat_@4
$LN88@LoadFloat_@4:
  0017d	c6 45 f0 ed	 mov	 BYTE PTR __k$[ebp+8], -19 ; ffffffedH
  00181	eb 2d		 jmp	 SHORT $LN1@LoadFloat_@4
$LN89@LoadFloat_@4:
  00183	c6 45 ef ea	 mov	 BYTE PTR __k$[ebp+7], -22 ; ffffffeaH
  00187	eb 27		 jmp	 SHORT $LN1@LoadFloat_@4
$LN90@LoadFloat_@4:
  00189	88 4d ee	 mov	 BYTE PTR __k$[ebp+6], cl
  0018c	eb 22		 jmp	 SHORT $LN1@LoadFloat_@4
$LN91@LoadFloat_@4:
  0018e	c6 45 ed ec	 mov	 BYTE PTR __k$[ebp+5], -20 ; ffffffecH
  00192	eb 1c		 jmp	 SHORT $LN1@LoadFloat_@4
$LN92@LoadFloat_@4:
  00194	c6 45 ec ed	 mov	 BYTE PTR __k$[ebp+4], -19 ; ffffffedH
  00198	eb 16		 jmp	 SHORT $LN1@LoadFloat_@4
$LN93@LoadFloat_@4:
  0019a	c6 45 eb ea	 mov	 BYTE PTR __k$[ebp+3], -22 ; ffffffeaH
  0019e	eb 10		 jmp	 SHORT $LN1@LoadFloat_@4
$LN94@LoadFloat_@4:
  001a0	c6 45 ea eb	 mov	 BYTE PTR __k$[ebp+2], -21 ; ffffffebH
  001a4	eb 0a		 jmp	 SHORT $LN1@LoadFloat_@4
$LN95@LoadFloat_@4:
  001a6	c6 45 e9 ec	 mov	 BYTE PTR __k$[ebp+1], -20 ; ffffffecH
  001aa	eb 04		 jmp	 SHORT $LN1@LoadFloat_@4
$LN96@LoadFloat_@4:
  001ac	c6 45 e8 ed	 mov	 BYTE PTR __k$[ebp], -19	; ffffffedH
$LN1@LoadFloat_@4:
  001b0	6a 03		 push	 3
  001b2	8d 45 e8	 lea	 eax, DWORD PTR __k$[ebp]
  001b5	c6 45 f7 00	 mov	 BYTE PTR __k$[ebp+15], 0
  001b9	5a		 pop	 edx
$LL104@LoadFloat_@4:
  001ba	81 30 ed ec eb
	ea		 xor	 DWORD PTR [eax], -353637139 ; eaebecedH
  001c0	83 c0 04	 add	 eax, 4
  001c3	4a		 dec	 edx
  001c4	75 f4		 jne	 SHORT $LL104@LoadFloat_@4
  001c6	6a 0c		 push	 12			; 0000000cH
  001c8	58		 pop	 eax
$LL101@LoadFloat_@4:
  001c9	8b c8		 mov	 ecx, eax
  001cb	81 e1 03 00 00
	80		 and	 ecx, -2147483645	; 80000003H
  001d1	79 05		 jns	 SHORT $LN111@LoadFloat_@4
  001d3	49		 dec	 ecx
  001d4	83 c9 fc	 or	 ecx, -4			; fffffffcH
  001d7	41		 inc	 ecx
$LN111@LoadFloat_@4:
  001d8	b2 ed		 mov	 dl, -19			; ffffffedH
  001da	2a d1		 sub	 dl, cl
  001dc	30 54 05 e8	 xor	 BYTE PTR __k$[ebp+eax], dl
  001e0	40		 inc	 eax
  001e1	83 f8 0f	 cmp	 eax, 15			; 0000000fH
  001e4	7c e3		 jl	 SHORT $LL101@LoadFloat_@4

; 137  : 		return LoadFloat(_k, f);

  001e6	f3 0f 10 45 0c	 movss	 xmm0, DWORD PTR _f$[ebp]
  001eb	51		 push	 ecx
  001ec	8d 45 e8	 lea	 eax, DWORD PTR __k$[ebp]
  001ef	f3 0f 11 04 24	 movss	 DWORD PTR [esp], xmm0
  001f4	50		 push	 eax
  001f5	8b ce		 mov	 ecx, esi
  001f7	ff 15 00 00 00
	00		 call	 DWORD PTR __imp_?LoadFloat@ioINILoader@@QAEMPBDM@Z

; 138  : 	}

  001fd	8b 4d fc	 mov	 ecx, DWORD PTR __$ArrayPad$[ebp]
  00200	33 cd		 xor	 ecx, ebp
  00202	5e		 pop	 esi
  00203	e8 00 00 00 00	 call	 @__security_check_cookie@4
  00208	c9		 leave
  00209	c2 08 00	 ret	 8
??$LoadFloat_e@$0BA@@ioINILoader@@QAEMAAY0BA@$$CBDM@Z ENDP ; ioINILoader::LoadFloat_e<16>
_TEXT	ENDS
PUBLIC	__$ArrayPad$
PUBLIC	??$LoadString_e@$0L@@ioINILoader@@QAEXAAY0L@$$CBDAAY00$$CBDPADH@Z ; ioINILoader::LoadString_e<11>
; Function compile flags: /Ogsp
;	COMDAT ??$LoadString_e@$0L@@ioINILoader@@QAEXAAY0L@$$CBDAAY00$$CBDPADH@Z
_TEXT	SEGMENT
__k$ = -20						; size = 11
__$ArrayPad$ = -4					; size = 4
_k$ = 8							; size = 4
_d$ = 12						; size = 4
_b$ = 16						; size = 4
_i$ = 20						; size = 4
??$LoadString_e@$0L@@ioINILoader@@QAEXAAY0L@$$CBDAAY00$$CBDPADH@Z PROC ; ioINILoader::LoadString_e<11>, COMDAT
; _this$ = ecx

; 161  : 	{

  00000	55		 push	 ebp
  00001	8b ec		 mov	 ebp, esp
  00003	83 ec 14	 sub	 esp, 20			; 00000014H
  00006	a1 00 00 00 00	 mov	 eax, DWORD PTR ___security_cookie
  0000b	33 c5		 xor	 eax, ebp
  0000d	89 45 fc	 mov	 DWORD PTR __$ArrayPad$[ebp], eax
  00010	8b 45 08	 mov	 eax, DWORD PTR _k$[ebp]

; 162  : 		_ENCSTR(k, _k);

  00013	8a 10		 mov	 dl, BYTE PTR [eax]
  00015	53		 push	 ebx
  00016	56		 push	 esi
  00017	8b 75 0c	 mov	 esi, DWORD PTR _d$[ebp]
  0001a	57		 push	 edi
  0001b	8b 7d 10	 mov	 edi, DWORD PTR _b$[ebp]
  0001e	84 d2		 test	 dl, dl
  00020	0f 84 1b 01 00
	00		 je	 $LN96@LoadString@5
  00026	80 f2 ed	 xor	 dl, -19			; ffffffedH
  00029	88 55 ec	 mov	 BYTE PTR __k$[ebp], dl
  0002c	8a 50 01	 mov	 dl, BYTE PTR [eax+1]
  0002f	84 d2		 test	 dl, dl
  00031	0f 84 04 01 00
	00		 je	 $LN95@LoadString@5
  00037	b3 ec		 mov	 bl, -20			; ffffffecH
  00039	32 d3		 xor	 dl, bl
  0003b	88 55 ed	 mov	 BYTE PTR __k$[ebp+1], dl
  0003e	8a 50 02	 mov	 dl, BYTE PTR [eax+2]
  00041	84 d2		 test	 dl, dl
  00043	0f 84 ec 00 00
	00		 je	 $LN94@LoadString@5
  00049	80 f2 eb	 xor	 dl, -21			; ffffffebH
  0004c	88 55 ee	 mov	 BYTE PTR __k$[ebp+2], dl
  0004f	8a 50 03	 mov	 dl, BYTE PTR [eax+3]
  00052	84 d2		 test	 dl, dl
  00054	0f 84 d5 00 00
	00		 je	 $LN93@LoadString@5
  0005a	80 f2 ea	 xor	 dl, -22			; ffffffeaH
  0005d	88 55 ef	 mov	 BYTE PTR __k$[ebp+3], dl
  00060	8a 50 04	 mov	 dl, BYTE PTR [eax+4]
  00063	84 d2		 test	 dl, dl
  00065	0f 84 be 00 00
	00		 je	 $LN92@LoadString@5
  0006b	80 f2 ed	 xor	 dl, -19			; ffffffedH
  0006e	88 55 f0	 mov	 BYTE PTR __k$[ebp+4], dl
  00071	8a 50 05	 mov	 dl, BYTE PTR [eax+5]
  00074	84 d2		 test	 dl, dl
  00076	0f 84 a8 00 00
	00		 je	 $LN91@LoadString@5
  0007c	32 d3		 xor	 dl, bl
  0007e	88 55 f1	 mov	 BYTE PTR __k$[ebp+5], dl
  00081	8a 50 06	 mov	 dl, BYTE PTR [eax+6]
  00084	84 d2		 test	 dl, dl
  00086	0f 84 92 00 00
	00		 je	 $LN90@LoadString@5
  0008c	80 f2 eb	 xor	 dl, -21			; ffffffebH
  0008f	88 55 f2	 mov	 BYTE PTR __k$[ebp+6], dl
  00092	8a 50 07	 mov	 dl, BYTE PTR [eax+7]
  00095	84 d2		 test	 dl, dl
  00097	74 7f		 je	 SHORT $LN89@LoadString@5
  00099	80 f2 ea	 xor	 dl, -22			; ffffffeaH
  0009c	88 55 f3	 mov	 BYTE PTR __k$[ebp+7], dl
  0009f	8a 50 08	 mov	 dl, BYTE PTR [eax+8]
  000a2	84 d2		 test	 dl, dl
  000a4	74 6c		 je	 SHORT $LN88@LoadString@5
  000a6	80 f2 ed	 xor	 dl, -19			; ffffffedH
  000a9	88 55 f4	 mov	 BYTE PTR __k$[ebp+8], dl
  000ac	8a 50 09	 mov	 dl, BYTE PTR [eax+9]
  000af	84 d2		 test	 dl, dl
  000b1	74 5a		 je	 SHORT $LN87@LoadString@5
  000b3	32 d3		 xor	 dl, bl
  000b5	80 78 0a 00	 cmp	 BYTE PTR [eax+10], 0
  000b9	88 55 f5	 mov	 BYTE PTR __k$[ebp+9], dl
  000bc	0f 84 83 00 00
	00		 je	 $LN1@LoadString@5
  000c2	8a 50 0b	 mov	 dl, BYTE PTR [eax+11]
  000c5	84 d2		 test	 dl, dl
  000c7	74 3e		 je	 SHORT $LN85@LoadString@5
  000c9	80 f2 ea	 xor	 dl, -22			; ffffffeaH
  000cc	88 55 f7	 mov	 BYTE PTR __k$[ebp+11], dl
  000cf	8a 50 0c	 mov	 dl, BYTE PTR [eax+12]
  000d2	84 d2		 test	 dl, dl
  000d4	74 2b		 je	 SHORT $LN84@LoadString@5
  000d6	80 f2 ed	 xor	 dl, -19			; ffffffedH
  000d9	88 55 f8	 mov	 BYTE PTR __k$[ebp+12], dl
  000dc	8a 50 0d	 mov	 dl, BYTE PTR [eax+13]
  000df	84 d2		 test	 dl, dl
  000e1	74 19		 je	 SHORT $LN83@LoadString@5
  000e3	8a 40 0e	 mov	 al, BYTE PTR [eax+14]
  000e6	32 d3		 xor	 dl, bl
  000e8	88 55 f9	 mov	 BYTE PTR __k$[ebp+13], dl
  000eb	84 c0		 test	 al, al
  000ed	74 07		 je	 SHORT $LN82@LoadString@5
  000ef	34 eb		 xor	 al, -21			; ffffffebH
  000f1	88 45 fa	 mov	 BYTE PTR __k$[ebp+14], al
  000f4	eb 4f		 jmp	 SHORT $LN1@LoadString@5
$LN82@LoadString@5:
  000f6	c6 45 fa eb	 mov	 BYTE PTR __k$[ebp+14], -21 ; ffffffebH
  000fa	eb 49		 jmp	 SHORT $LN1@LoadString@5
$LN83@LoadString@5:
  000fc	88 5d f9	 mov	 BYTE PTR __k$[ebp+13], bl
  000ff	eb 44		 jmp	 SHORT $LN1@LoadString@5
$LN84@LoadString@5:
  00101	c6 45 f8 ed	 mov	 BYTE PTR __k$[ebp+12], -19 ; ffffffedH
  00105	eb 3e		 jmp	 SHORT $LN1@LoadString@5
$LN85@LoadString@5:
  00107	c6 45 f7 ea	 mov	 BYTE PTR __k$[ebp+11], -22 ; ffffffeaH
  0010b	eb 38		 jmp	 SHORT $LN1@LoadString@5
$LN87@LoadString@5:
  0010d	88 5d f5	 mov	 BYTE PTR __k$[ebp+9], bl
  00110	eb 33		 jmp	 SHORT $LN1@LoadString@5
$LN88@LoadString@5:
  00112	c6 45 f4 ed	 mov	 BYTE PTR __k$[ebp+8], -19 ; ffffffedH
  00116	eb 2d		 jmp	 SHORT $LN1@LoadString@5
$LN89@LoadString@5:
  00118	c6 45 f3 ea	 mov	 BYTE PTR __k$[ebp+7], -22 ; ffffffeaH
  0011c	eb 27		 jmp	 SHORT $LN1@LoadString@5
$LN90@LoadString@5:
  0011e	c6 45 f2 eb	 mov	 BYTE PTR __k$[ebp+6], -21 ; ffffffebH
  00122	eb 21		 jmp	 SHORT $LN1@LoadString@5
$LN91@LoadString@5:
  00124	88 5d f1	 mov	 BYTE PTR __k$[ebp+5], bl
  00127	eb 1c		 jmp	 SHORT $LN1@LoadString@5
$LN92@LoadString@5:
  00129	c6 45 f0 ed	 mov	 BYTE PTR __k$[ebp+4], -19 ; ffffffedH
  0012d	eb 16		 jmp	 SHORT $LN1@LoadString@5
$LN93@LoadString@5:
  0012f	c6 45 ef ea	 mov	 BYTE PTR __k$[ebp+3], -22 ; ffffffeaH
  00133	eb 10		 jmp	 SHORT $LN1@LoadString@5
$LN94@LoadString@5:
  00135	c6 45 ee eb	 mov	 BYTE PTR __k$[ebp+2], -21 ; ffffffebH
  00139	eb 0a		 jmp	 SHORT $LN1@LoadString@5
$LN95@LoadString@5:
  0013b	c6 45 ed ec	 mov	 BYTE PTR __k$[ebp+1], -20 ; ffffffecH
  0013f	eb 04		 jmp	 SHORT $LN1@LoadString@5
$LN96@LoadString@5:
  00141	c6 45 ec ed	 mov	 BYTE PTR __k$[ebp], -19	; ffffffedH
$LN1@LoadString@5:
  00145	6a 02		 push	 2
  00147	8d 45 ec	 lea	 eax, DWORD PTR __k$[ebp]
  0014a	c6 45 f6 00	 mov	 BYTE PTR __k$[ebp+10], 0
  0014e	5a		 pop	 edx
$LL104@LoadString@5:
  0014f	81 30 ed ec eb
	ea		 xor	 DWORD PTR [eax], -353637139 ; eaebecedH
  00155	83 c0 04	 add	 eax, 4
  00158	4a		 dec	 edx
  00159	75 f4		 jne	 SHORT $LL104@LoadString@5
  0015b	6a 08		 push	 8
  0015d	58		 pop	 eax
$LL101@LoadString@5:
  0015e	8b d0		 mov	 edx, eax
  00160	81 e2 03 00 00
	80		 and	 edx, -2147483645	; 80000003H
  00166	79 05		 jns	 SHORT $LN111@LoadString@5
  00168	4a		 dec	 edx
  00169	83 ca fc	 or	 edx, -4			; fffffffcH
  0016c	42		 inc	 edx
$LN111@LoadString@5:
  0016d	b3 ed		 mov	 bl, -19			; ffffffedH
  0016f	2a da		 sub	 bl, dl
  00171	30 5c 05 ec	 xor	 BYTE PTR __k$[ebp+eax], bl
  00175	40		 inc	 eax
  00176	83 f8 0a	 cmp	 eax, 10			; 0000000aH
  00179	7c e3		 jl	 SHORT $LL101@LoadString@5

; 163  : 		LoadString(_k, d, b, i);

  0017b	ff 75 14	 push	 DWORD PTR _i$[ebp]
  0017e	8d 45 ec	 lea	 eax, DWORD PTR __k$[ebp]
  00181	57		 push	 edi
  00182	56		 push	 esi
  00183	50		 push	 eax
  00184	ff 15 00 00 00
	00		 call	 DWORD PTR __imp_?LoadStringA@ioINILoader@@QAEXPBD0PADH@Z

; 164  : 	}

  0018a	8b 4d fc	 mov	 ecx, DWORD PTR __$ArrayPad$[ebp]
  0018d	5f		 pop	 edi
  0018e	5e		 pop	 esi
  0018f	33 cd		 xor	 ecx, ebp
  00191	5b		 pop	 ebx
  00192	e8 00 00 00 00	 call	 @__security_check_cookie@4
  00197	c9		 leave
  00198	c2 10 00	 ret	 16			; 00000010H
??$LoadString_e@$0L@@ioINILoader@@QAEXAAY0L@$$CBDAAY00$$CBDPADH@Z ENDP ; ioINILoader::LoadString_e<11>
_TEXT	ENDS
PUBLIC	__$ArrayPad$
PUBLIC	??$LoadBool_e@$0BD@@ioINILoader@@QAE_NAAY0BD@$$CBD_N@Z ; ioINILoader::LoadBool_e<19>
EXTRN	__imp_?LoadBool@ioINILoader@@QAE_NPBD_N@Z:PROC
; Function compile flags: /Ogsp
;	COMDAT ??$LoadBool_e@$0BD@@ioINILoader@@QAE_NAAY0BD@$$CBD_N@Z
_TEXT	SEGMENT
__k$ = -28						; size = 19
__$ArrayPad$ = -4					; size = 4
_k$ = 8							; size = 4
_b$ = 12						; size = 1
??$LoadBool_e@$0BD@@ioINILoader@@QAE_NAAY0BD@$$CBD_N@Z PROC ; ioINILoader::LoadBool_e<19>, COMDAT
; _this$ = ecx

; 101  : 	{

  00000	55		 push	 ebp
  00001	8b ec		 mov	 ebp, esp
  00003	83 ec 1c	 sub	 esp, 28			; 0000001cH
  00006	a1 00 00 00 00	 mov	 eax, DWORD PTR ___security_cookie
  0000b	33 c5		 xor	 eax, ebp
  0000d	89 45 fc	 mov	 DWORD PTR __$ArrayPad$[ebp], eax
  00010	8b 45 08	 mov	 eax, DWORD PTR _k$[ebp]

; 102  : 		_ENCSTR(k, _k);

  00013	8a 10		 mov	 dl, BYTE PTR [eax]
  00015	56		 push	 esi
  00016	8b f1		 mov	 esi, ecx
  00018	84 d2		 test	 dl, dl
  0001a	0f 84 cf 01 00
	00		 je	 $LN96@LoadBool_e
  00020	80 f2 ed	 xor	 dl, -19			; ffffffedH
  00023	88 55 e4	 mov	 BYTE PTR __k$[ebp], dl
  00026	8a 50 01	 mov	 dl, BYTE PTR [eax+1]
  00029	84 d2		 test	 dl, dl
  0002b	0f 84 b8 01 00
	00		 je	 $LN95@LoadBool_e
  00031	b1 ec		 mov	 cl, -20			; ffffffecH
  00033	32 d1		 xor	 dl, cl
  00035	88 55 e5	 mov	 BYTE PTR __k$[ebp+1], dl
  00038	8a 50 02	 mov	 dl, BYTE PTR [eax+2]
  0003b	84 d2		 test	 dl, dl
  0003d	0f 84 a0 01 00
	00		 je	 $LN94@LoadBool_e
  00043	80 f2 eb	 xor	 dl, -21			; ffffffebH
  00046	88 55 e6	 mov	 BYTE PTR __k$[ebp+2], dl
  00049	8a 50 03	 mov	 dl, BYTE PTR [eax+3]
  0004c	84 d2		 test	 dl, dl
  0004e	0f 84 89 01 00
	00		 je	 $LN93@LoadBool_e
  00054	80 f2 ea	 xor	 dl, -22			; ffffffeaH
  00057	88 55 e7	 mov	 BYTE PTR __k$[ebp+3], dl
  0005a	8a 50 04	 mov	 dl, BYTE PTR [eax+4]
  0005d	84 d2		 test	 dl, dl
  0005f	0f 84 72 01 00
	00		 je	 $LN92@LoadBool_e
  00065	80 f2 ed	 xor	 dl, -19			; ffffffedH
  00068	88 55 e8	 mov	 BYTE PTR __k$[ebp+4], dl
  0006b	8a 50 05	 mov	 dl, BYTE PTR [eax+5]
  0006e	84 d2		 test	 dl, dl
  00070	0f 84 5c 01 00
	00		 je	 $LN91@LoadBool_e
  00076	32 d1		 xor	 dl, cl
  00078	88 55 e9	 mov	 BYTE PTR __k$[ebp+5], dl
  0007b	8a 50 06	 mov	 dl, BYTE PTR [eax+6]
  0007e	84 d2		 test	 dl, dl
  00080	0f 84 46 01 00
	00		 je	 $LN90@LoadBool_e
  00086	80 f2 eb	 xor	 dl, -21			; ffffffebH
  00089	88 55 ea	 mov	 BYTE PTR __k$[ebp+6], dl
  0008c	8a 50 07	 mov	 dl, BYTE PTR [eax+7]
  0008f	84 d2		 test	 dl, dl
  00091	0f 84 2f 01 00
	00		 je	 $LN89@LoadBool_e
  00097	80 f2 ea	 xor	 dl, -22			; ffffffeaH
  0009a	88 55 eb	 mov	 BYTE PTR __k$[ebp+7], dl
  0009d	8a 50 08	 mov	 dl, BYTE PTR [eax+8]
  000a0	84 d2		 test	 dl, dl
  000a2	0f 84 18 01 00
	00		 je	 $LN88@LoadBool_e
  000a8	80 f2 ed	 xor	 dl, -19			; ffffffedH
  000ab	88 55 ec	 mov	 BYTE PTR __k$[ebp+8], dl
  000ae	8a 50 09	 mov	 dl, BYTE PTR [eax+9]
  000b1	84 d2		 test	 dl, dl
  000b3	0f 84 02 01 00
	00		 je	 $LN87@LoadBool_e
  000b9	32 d1		 xor	 dl, cl
  000bb	88 55 ed	 mov	 BYTE PTR __k$[ebp+9], dl
  000be	8a 50 0a	 mov	 dl, BYTE PTR [eax+10]
  000c1	84 d2		 test	 dl, dl
  000c3	0f 84 ec 00 00
	00		 je	 $LN86@LoadBool_e
  000c9	80 f2 eb	 xor	 dl, -21			; ffffffebH
  000cc	88 55 ee	 mov	 BYTE PTR __k$[ebp+10], dl
  000cf	8a 50 0b	 mov	 dl, BYTE PTR [eax+11]
  000d2	84 d2		 test	 dl, dl
  000d4	0f 84 d5 00 00
	00		 je	 $LN85@LoadBool_e
  000da	80 f2 ea	 xor	 dl, -22			; ffffffeaH
  000dd	88 55 ef	 mov	 BYTE PTR __k$[ebp+11], dl
  000e0	8a 50 0c	 mov	 dl, BYTE PTR [eax+12]
  000e3	84 d2		 test	 dl, dl
  000e5	0f 84 be 00 00
	00		 je	 $LN84@LoadBool_e
  000eb	80 f2 ed	 xor	 dl, -19			; ffffffedH
  000ee	88 55 f0	 mov	 BYTE PTR __k$[ebp+12], dl
  000f1	8a 50 0d	 mov	 dl, BYTE PTR [eax+13]
  000f4	84 d2		 test	 dl, dl
  000f6	0f 84 a8 00 00
	00		 je	 $LN83@LoadBool_e
  000fc	32 d1		 xor	 dl, cl
  000fe	88 55 f1	 mov	 BYTE PTR __k$[ebp+13], dl
  00101	8a 50 0e	 mov	 dl, BYTE PTR [eax+14]
  00104	84 d2		 test	 dl, dl
  00106	0f 84 92 00 00
	00		 je	 $LN82@LoadBool_e
  0010c	80 f2 eb	 xor	 dl, -21			; ffffffebH
  0010f	88 55 f2	 mov	 BYTE PTR __k$[ebp+14], dl
  00112	8a 50 0f	 mov	 dl, BYTE PTR [eax+15]
  00115	84 d2		 test	 dl, dl
  00117	74 7f		 je	 SHORT $LN81@LoadBool_e
  00119	80 f2 ea	 xor	 dl, -22			; ffffffeaH
  0011c	88 55 f3	 mov	 BYTE PTR __k$[ebp+15], dl
  0011f	8a 50 10	 mov	 dl, BYTE PTR [eax+16]
  00122	84 d2		 test	 dl, dl
  00124	74 6c		 je	 SHORT $LN80@LoadBool_e
  00126	80 f2 ed	 xor	 dl, -19			; ffffffedH
  00129	88 55 f4	 mov	 BYTE PTR __k$[ebp+16], dl
  0012c	8a 50 11	 mov	 dl, BYTE PTR [eax+17]
  0012f	84 d2		 test	 dl, dl
  00131	74 5a		 je	 SHORT $LN79@LoadBool_e
  00133	32 d1		 xor	 dl, cl
  00135	80 78 12 00	 cmp	 BYTE PTR [eax+18], 0
  00139	88 55 f5	 mov	 BYTE PTR __k$[ebp+17], dl
  0013c	0f 84 b1 00 00
	00		 je	 $LN1@LoadBool_e
  00142	8a 50 13	 mov	 dl, BYTE PTR [eax+19]
  00145	84 d2		 test	 dl, dl
  00147	74 3e		 je	 SHORT $LN77@LoadBool_e
  00149	80 f2 ea	 xor	 dl, -22			; ffffffeaH
  0014c	88 55 f7	 mov	 BYTE PTR __k$[ebp+19], dl
  0014f	8a 50 14	 mov	 dl, BYTE PTR [eax+20]
  00152	84 d2		 test	 dl, dl
  00154	74 2b		 je	 SHORT $LN76@LoadBool_e
  00156	80 f2 ed	 xor	 dl, -19			; ffffffedH
  00159	88 55 f8	 mov	 BYTE PTR __k$[ebp+20], dl
  0015c	8a 50 15	 mov	 dl, BYTE PTR [eax+21]
  0015f	84 d2		 test	 dl, dl
  00161	74 19		 je	 SHORT $LN75@LoadBool_e
  00163	8a 40 16	 mov	 al, BYTE PTR [eax+22]
  00166	32 d1		 xor	 dl, cl
  00168	88 55 f9	 mov	 BYTE PTR __k$[ebp+21], dl
  0016b	84 c0		 test	 al, al
  0016d	74 07		 je	 SHORT $LN74@LoadBool_e
  0016f	34 eb		 xor	 al, -21			; ffffffebH
  00171	88 45 fa	 mov	 BYTE PTR __k$[ebp+22], al
  00174	eb 7d		 jmp	 SHORT $LN1@LoadBool_e
$LN74@LoadBool_e:
  00176	c6 45 fa eb	 mov	 BYTE PTR __k$[ebp+22], -21 ; ffffffebH
  0017a	eb 77		 jmp	 SHORT $LN1@LoadBool_e
$LN75@LoadBool_e:
  0017c	88 4d f9	 mov	 BYTE PTR __k$[ebp+21], cl
  0017f	eb 72		 jmp	 SHORT $LN1@LoadBool_e
$LN76@LoadBool_e:
  00181	c6 45 f8 ed	 mov	 BYTE PTR __k$[ebp+20], -19 ; ffffffedH
  00185	eb 6c		 jmp	 SHORT $LN1@LoadBool_e
$LN77@LoadBool_e:
  00187	c6 45 f7 ea	 mov	 BYTE PTR __k$[ebp+19], -22 ; ffffffeaH
  0018b	eb 66		 jmp	 SHORT $LN1@LoadBool_e
$LN79@LoadBool_e:
  0018d	88 4d f5	 mov	 BYTE PTR __k$[ebp+17], cl
  00190	eb 61		 jmp	 SHORT $LN1@LoadBool_e
$LN80@LoadBool_e:
  00192	c6 45 f4 ed	 mov	 BYTE PTR __k$[ebp+16], -19 ; ffffffedH
  00196	eb 5b		 jmp	 SHORT $LN1@LoadBool_e
$LN81@LoadBool_e:
  00198	c6 45 f3 ea	 mov	 BYTE PTR __k$[ebp+15], -22 ; ffffffeaH
  0019c	eb 55		 jmp	 SHORT $LN1@LoadBool_e
$LN82@LoadBool_e:
  0019e	c6 45 f2 eb	 mov	 BYTE PTR __k$[ebp+14], -21 ; ffffffebH
  001a2	eb 4f		 jmp	 SHORT $LN1@LoadBool_e
$LN83@LoadBool_e:
  001a4	88 4d f1	 mov	 BYTE PTR __k$[ebp+13], cl
  001a7	eb 4a		 jmp	 SHORT $LN1@LoadBool_e
$LN84@LoadBool_e:
  001a9	c6 45 f0 ed	 mov	 BYTE PTR __k$[ebp+12], -19 ; ffffffedH
  001ad	eb 44		 jmp	 SHORT $LN1@LoadBool_e
$LN85@LoadBool_e:
  001af	c6 45 ef ea	 mov	 BYTE PTR __k$[ebp+11], -22 ; ffffffeaH
  001b3	eb 3e		 jmp	 SHORT $LN1@LoadBool_e
$LN86@LoadBool_e:
  001b5	c6 45 ee eb	 mov	 BYTE PTR __k$[ebp+10], -21 ; ffffffebH
  001b9	eb 38		 jmp	 SHORT $LN1@LoadBool_e
$LN87@LoadBool_e:
  001bb	88 4d ed	 mov	 BYTE PTR __k$[ebp+9], cl
  001be	eb 33		 jmp	 SHORT $LN1@LoadBool_e
$LN88@LoadBool_e:
  001c0	c6 45 ec ed	 mov	 BYTE PTR __k$[ebp+8], -19 ; ffffffedH
  001c4	eb 2d		 jmp	 SHORT $LN1@LoadBool_e
$LN89@LoadBool_e:
  001c6	c6 45 eb ea	 mov	 BYTE PTR __k$[ebp+7], -22 ; ffffffeaH
  001ca	eb 27		 jmp	 SHORT $LN1@LoadBool_e
$LN90@LoadBool_e:
  001cc	c6 45 ea eb	 mov	 BYTE PTR __k$[ebp+6], -21 ; ffffffebH
  001d0	eb 21		 jmp	 SHORT $LN1@LoadBool_e
$LN91@LoadBool_e:
  001d2	88 4d e9	 mov	 BYTE PTR __k$[ebp+5], cl
  001d5	eb 1c		 jmp	 SHORT $LN1@LoadBool_e
$LN92@LoadBool_e:
  001d7	c6 45 e8 ed	 mov	 BYTE PTR __k$[ebp+4], -19 ; ffffffedH
  001db	eb 16		 jmp	 SHORT $LN1@LoadBool_e
$LN93@LoadBool_e:
  001dd	c6 45 e7 ea	 mov	 BYTE PTR __k$[ebp+3], -22 ; ffffffeaH
  001e1	eb 10		 jmp	 SHORT $LN1@LoadBool_e
$LN94@LoadBool_e:
  001e3	c6 45 e6 eb	 mov	 BYTE PTR __k$[ebp+2], -21 ; ffffffebH
  001e7	eb 0a		 jmp	 SHORT $LN1@LoadBool_e
$LN95@LoadBool_e:
  001e9	c6 45 e5 ec	 mov	 BYTE PTR __k$[ebp+1], -20 ; ffffffecH
  001ed	eb 04		 jmp	 SHORT $LN1@LoadBool_e
$LN96@LoadBool_e:
  001ef	c6 45 e4 ed	 mov	 BYTE PTR __k$[ebp], -19	; ffffffedH
$LN1@LoadBool_e:
  001f3	6a 04		 push	 4
  001f5	8d 45 e4	 lea	 eax, DWORD PTR __k$[ebp]
  001f8	c6 45 f6 00	 mov	 BYTE PTR __k$[ebp+18], 0
  001fc	5a		 pop	 edx
$LL104@LoadBool_e:
  001fd	81 30 ed ec eb
	ea		 xor	 DWORD PTR [eax], -353637139 ; eaebecedH
  00203	83 c0 04	 add	 eax, 4
  00206	4a		 dec	 edx
  00207	75 f4		 jne	 SHORT $LL104@LoadBool_e
  00209	6a 10		 push	 16			; 00000010H
  0020b	58		 pop	 eax
$LL101@LoadBool_e:
  0020c	8b c8		 mov	 ecx, eax
  0020e	81 e1 03 00 00
	80		 and	 ecx, -2147483645	; 80000003H
  00214	79 05		 jns	 SHORT $LN111@LoadBool_e
  00216	49		 dec	 ecx
  00217	83 c9 fc	 or	 ecx, -4			; fffffffcH
  0021a	41		 inc	 ecx
$LN111@LoadBool_e:
  0021b	b2 ed		 mov	 dl, -19			; ffffffedH
  0021d	2a d1		 sub	 dl, cl
  0021f	30 54 05 e4	 xor	 BYTE PTR __k$[ebp+eax], dl
  00223	40		 inc	 eax
  00224	83 f8 12	 cmp	 eax, 18			; 00000012H
  00227	7c e3		 jl	 SHORT $LL101@LoadBool_e

; 103  : 		return LoadBool(_k, b);

  00229	ff 75 0c	 push	 DWORD PTR _b$[ebp]
  0022c	8d 45 e4	 lea	 eax, DWORD PTR __k$[ebp]
  0022f	50		 push	 eax
  00230	8b ce		 mov	 ecx, esi
  00232	ff 15 00 00 00
	00		 call	 DWORD PTR __imp_?LoadBool@ioINILoader@@QAE_NPBD_N@Z

; 104  : 	}

  00238	8b 4d fc	 mov	 ecx, DWORD PTR __$ArrayPad$[ebp]
  0023b	33 cd		 xor	 ecx, ebp
  0023d	5e		 pop	 esi
  0023e	e8 00 00 00 00	 call	 @__security_check_cookie@4
  00243	c9		 leave
  00244	c2 08 00	 ret	 8
??$LoadBool_e@$0BD@@ioINILoader@@QAE_NAAY0BD@$$CBD_N@Z ENDP ; ioINILoader::LoadBool_e<19>
_TEXT	ENDS
PUBLIC	__$ArrayPad$
PUBLIC	??$LoadInt_e@$0BC@@ioINILoader@@QAEHAAY0BC@$$CBDH@Z ; ioINILoader::LoadInt_e<18>
; Function compile flags: /Ogsp
;	COMDAT ??$LoadInt_e@$0BC@@ioINILoader@@QAEHAAY0BC@$$CBDH@Z
_TEXT	SEGMENT
__k$ = -28						; size = 18
__$ArrayPad$ = -4					; size = 4
_k$ = 8							; size = 4
_i$ = 12						; size = 4
??$LoadInt_e@$0BC@@ioINILoader@@QAEHAAY0BC@$$CBDH@Z PROC ; ioINILoader::LoadInt_e<18>, COMDAT
; _this$ = ecx

; 118  : 	{

  00000	55		 push	 ebp
  00001	8b ec		 mov	 ebp, esp
  00003	83 ec 1c	 sub	 esp, 28			; 0000001cH
  00006	a1 00 00 00 00	 mov	 eax, DWORD PTR ___security_cookie
  0000b	33 c5		 xor	 eax, ebp
  0000d	89 45 fc	 mov	 DWORD PTR __$ArrayPad$[ebp], eax
  00010	8b 45 08	 mov	 eax, DWORD PTR _k$[ebp]

; 119  : 		_ENCSTR(k, _k);

  00013	8a 10		 mov	 dl, BYTE PTR [eax]
  00015	56		 push	 esi
  00016	8b f1		 mov	 esi, ecx
  00018	84 d2		 test	 dl, dl
  0001a	0f 84 be 01 00
	00		 je	 $LN96@LoadInt_e@3
  00020	80 f2 ed	 xor	 dl, -19			; ffffffedH
  00023	88 55 e4	 mov	 BYTE PTR __k$[ebp], dl
  00026	8a 50 01	 mov	 dl, BYTE PTR [eax+1]
  00029	84 d2		 test	 dl, dl
  0002b	0f 84 a7 01 00
	00		 je	 $LN95@LoadInt_e@3
  00031	80 f2 ec	 xor	 dl, -20			; ffffffecH
  00034	88 55 e5	 mov	 BYTE PTR __k$[ebp+1], dl
  00037	8a 50 02	 mov	 dl, BYTE PTR [eax+2]
  0003a	84 d2		 test	 dl, dl
  0003c	0f 84 90 01 00
	00		 je	 $LN94@LoadInt_e@3
  00042	b1 eb		 mov	 cl, -21			; ffffffebH
  00044	32 d1		 xor	 dl, cl
  00046	88 55 e6	 mov	 BYTE PTR __k$[ebp+2], dl
  00049	8a 50 03	 mov	 dl, BYTE PTR [eax+3]
  0004c	84 d2		 test	 dl, dl
  0004e	0f 84 78 01 00
	00		 je	 $LN93@LoadInt_e@3
  00054	80 f2 ea	 xor	 dl, -22			; ffffffeaH
  00057	88 55 e7	 mov	 BYTE PTR __k$[ebp+3], dl
  0005a	8a 50 04	 mov	 dl, BYTE PTR [eax+4]
  0005d	84 d2		 test	 dl, dl
  0005f	0f 84 61 01 00
	00		 je	 $LN92@LoadInt_e@3
  00065	80 f2 ed	 xor	 dl, -19			; ffffffedH
  00068	88 55 e8	 mov	 BYTE PTR __k$[ebp+4], dl
  0006b	8a 50 05	 mov	 dl, BYTE PTR [eax+5]
  0006e	84 d2		 test	 dl, dl
  00070	0f 84 4a 01 00
	00		 je	 $LN91@LoadInt_e@3
  00076	80 f2 ec	 xor	 dl, -20			; ffffffecH
  00079	88 55 e9	 mov	 BYTE PTR __k$[ebp+5], dl
  0007c	8a 50 06	 mov	 dl, BYTE PTR [eax+6]
  0007f	84 d2		 test	 dl, dl
  00081	0f 84 34 01 00
	00		 je	 $LN90@LoadInt_e@3
  00087	32 d1		 xor	 dl, cl
  00089	88 55 ea	 mov	 BYTE PTR __k$[ebp+6], dl
  0008c	8a 50 07	 mov	 dl, BYTE PTR [eax+7]
  0008f	84 d2		 test	 dl, dl
  00091	0f 84 1e 01 00
	00		 je	 $LN89@LoadInt_e@3
  00097	80 f2 ea	 xor	 dl, -22			; ffffffeaH
  0009a	88 55 eb	 mov	 BYTE PTR __k$[ebp+7], dl
  0009d	8a 50 08	 mov	 dl, BYTE PTR [eax+8]
  000a0	84 d2		 test	 dl, dl
  000a2	0f 84 07 01 00
	00		 je	 $LN88@LoadInt_e@3
  000a8	80 f2 ed	 xor	 dl, -19			; ffffffedH
  000ab	88 55 ec	 mov	 BYTE PTR __k$[ebp+8], dl
  000ae	8a 50 09	 mov	 dl, BYTE PTR [eax+9]
  000b1	84 d2		 test	 dl, dl
  000b3	0f 84 f0 00 00
	00		 je	 $LN87@LoadInt_e@3
  000b9	80 f2 ec	 xor	 dl, -20			; ffffffecH
  000bc	88 55 ed	 mov	 BYTE PTR __k$[ebp+9], dl
  000bf	8a 50 0a	 mov	 dl, BYTE PTR [eax+10]
  000c2	84 d2		 test	 dl, dl
  000c4	0f 84 da 00 00
	00		 je	 $LN86@LoadInt_e@3
  000ca	32 d1		 xor	 dl, cl
  000cc	88 55 ee	 mov	 BYTE PTR __k$[ebp+10], dl
  000cf	8a 50 0b	 mov	 dl, BYTE PTR [eax+11]
  000d2	84 d2		 test	 dl, dl
  000d4	0f 84 c4 00 00
	00		 je	 $LN85@LoadInt_e@3
  000da	80 f2 ea	 xor	 dl, -22			; ffffffeaH
  000dd	88 55 ef	 mov	 BYTE PTR __k$[ebp+11], dl
  000e0	8a 50 0c	 mov	 dl, BYTE PTR [eax+12]
  000e3	84 d2		 test	 dl, dl
  000e5	0f 84 ad 00 00
	00		 je	 $LN84@LoadInt_e@3
  000eb	80 f2 ed	 xor	 dl, -19			; ffffffedH
  000ee	88 55 f0	 mov	 BYTE PTR __k$[ebp+12], dl
  000f1	8a 50 0d	 mov	 dl, BYTE PTR [eax+13]
  000f4	84 d2		 test	 dl, dl
  000f6	0f 84 96 00 00
	00		 je	 $LN83@LoadInt_e@3
  000fc	80 f2 ec	 xor	 dl, -20			; ffffffecH
  000ff	88 55 f1	 mov	 BYTE PTR __k$[ebp+13], dl
  00102	8a 50 0e	 mov	 dl, BYTE PTR [eax+14]
  00105	84 d2		 test	 dl, dl
  00107	0f 84 80 00 00
	00		 je	 $LN82@LoadInt_e@3
  0010d	32 d1		 xor	 dl, cl
  0010f	88 55 f2	 mov	 BYTE PTR __k$[ebp+14], dl
  00112	8a 50 0f	 mov	 dl, BYTE PTR [eax+15]
  00115	84 d2		 test	 dl, dl
  00117	74 6e		 je	 SHORT $LN81@LoadInt_e@3
  00119	80 f2 ea	 xor	 dl, -22			; ffffffeaH
  0011c	88 55 f3	 mov	 BYTE PTR __k$[ebp+15], dl
  0011f	8a 50 10	 mov	 dl, BYTE PTR [eax+16]
  00122	84 d2		 test	 dl, dl
  00124	74 5b		 je	 SHORT $LN80@LoadInt_e@3
  00126	80 f2 ed	 xor	 dl, -19			; ffffffedH
  00129	80 78 11 00	 cmp	 BYTE PTR [eax+17], 0
  0012d	88 55 f4	 mov	 BYTE PTR __k$[ebp+16], dl
  00130	0f 84 ac 00 00
	00		 je	 $LN1@LoadInt_e@3
  00136	8a 50 12	 mov	 dl, BYTE PTR [eax+18]
  00139	84 d2		 test	 dl, dl
  0013b	74 3f		 je	 SHORT $LN78@LoadInt_e@3
  0013d	32 d1		 xor	 dl, cl
  0013f	88 55 f6	 mov	 BYTE PTR __k$[ebp+18], dl
  00142	8a 50 13	 mov	 dl, BYTE PTR [eax+19]
  00145	84 d2		 test	 dl, dl
  00147	74 2d		 je	 SHORT $LN77@LoadInt_e@3
  00149	80 f2 ea	 xor	 dl, -22			; ffffffeaH
  0014c	88 55 f7	 mov	 BYTE PTR __k$[ebp+19], dl
  0014f	8a 50 14	 mov	 dl, BYTE PTR [eax+20]
  00152	84 d2		 test	 dl, dl
  00154	74 1a		 je	 SHORT $LN76@LoadInt_e@3
  00156	8a 40 15	 mov	 al, BYTE PTR [eax+21]
  00159	80 f2 ed	 xor	 dl, -19			; ffffffedH
  0015c	88 55 f8	 mov	 BYTE PTR __k$[ebp+20], dl
  0015f	84 c0		 test	 al, al
  00161	74 07		 je	 SHORT $LN75@LoadInt_e@3
  00163	34 ec		 xor	 al, -20			; ffffffecH
  00165	88 45 f9	 mov	 BYTE PTR __k$[ebp+21], al
  00168	eb 78		 jmp	 SHORT $LN1@LoadInt_e@3
$LN75@LoadInt_e@3:
  0016a	c6 45 f9 ec	 mov	 BYTE PTR __k$[ebp+21], -20 ; ffffffecH
  0016e	eb 72		 jmp	 SHORT $LN1@LoadInt_e@3
$LN76@LoadInt_e@3:
  00170	c6 45 f8 ed	 mov	 BYTE PTR __k$[ebp+20], -19 ; ffffffedH
  00174	eb 6c		 jmp	 SHORT $LN1@LoadInt_e@3
$LN77@LoadInt_e@3:
  00176	c6 45 f7 ea	 mov	 BYTE PTR __k$[ebp+19], -22 ; ffffffeaH
  0017a	eb 66		 jmp	 SHORT $LN1@LoadInt_e@3
$LN78@LoadInt_e@3:
  0017c	88 4d f6	 mov	 BYTE PTR __k$[ebp+18], cl
  0017f	eb 61		 jmp	 SHORT $LN1@LoadInt_e@3
$LN80@LoadInt_e@3:
  00181	c6 45 f4 ed	 mov	 BYTE PTR __k$[ebp+16], -19 ; ffffffedH
  00185	eb 5b		 jmp	 SHORT $LN1@LoadInt_e@3
$LN81@LoadInt_e@3:
  00187	c6 45 f3 ea	 mov	 BYTE PTR __k$[ebp+15], -22 ; ffffffeaH
  0018b	eb 55		 jmp	 SHORT $LN1@LoadInt_e@3
$LN82@LoadInt_e@3:
  0018d	88 4d f2	 mov	 BYTE PTR __k$[ebp+14], cl
  00190	eb 50		 jmp	 SHORT $LN1@LoadInt_e@3
$LN83@LoadInt_e@3:
  00192	c6 45 f1 ec	 mov	 BYTE PTR __k$[ebp+13], -20 ; ffffffecH
  00196	eb 4a		 jmp	 SHORT $LN1@LoadInt_e@3
$LN84@LoadInt_e@3:
  00198	c6 45 f0 ed	 mov	 BYTE PTR __k$[ebp+12], -19 ; ffffffedH
  0019c	eb 44		 jmp	 SHORT $LN1@LoadInt_e@3
$LN85@LoadInt_e@3:
  0019e	c6 45 ef ea	 mov	 BYTE PTR __k$[ebp+11], -22 ; ffffffeaH
  001a2	eb 3e		 jmp	 SHORT $LN1@LoadInt_e@3
$LN86@LoadInt_e@3:
  001a4	88 4d ee	 mov	 BYTE PTR __k$[ebp+10], cl
  001a7	eb 39		 jmp	 SHORT $LN1@LoadInt_e@3
$LN87@LoadInt_e@3:
  001a9	c6 45 ed ec	 mov	 BYTE PTR __k$[ebp+9], -20 ; ffffffecH
  001ad	eb 33		 jmp	 SHORT $LN1@LoadInt_e@3
$LN88@LoadInt_e@3:
  001af	c6 45 ec ed	 mov	 BYTE PTR __k$[ebp+8], -19 ; ffffffedH
  001b3	eb 2d		 jmp	 SHORT $LN1@LoadInt_e@3
$LN89@LoadInt_e@3:
  001b5	c6 45 eb ea	 mov	 BYTE PTR __k$[ebp+7], -22 ; ffffffeaH
  001b9	eb 27		 jmp	 SHORT $LN1@LoadInt_e@3
$LN90@LoadInt_e@3:
  001bb	88 4d ea	 mov	 BYTE PTR __k$[ebp+6], cl
  001be	eb 22		 jmp	 SHORT $LN1@LoadInt_e@3
$LN91@LoadInt_e@3:
  001c0	c6 45 e9 ec	 mov	 BYTE PTR __k$[ebp+5], -20 ; ffffffecH
  001c4	eb 1c		 jmp	 SHORT $LN1@LoadInt_e@3
$LN92@LoadInt_e@3:
  001c6	c6 45 e8 ed	 mov	 BYTE PTR __k$[ebp+4], -19 ; ffffffedH
  001ca	eb 16		 jmp	 SHORT $LN1@LoadInt_e@3
$LN93@LoadInt_e@3:
  001cc	c6 45 e7 ea	 mov	 BYTE PTR __k$[ebp+3], -22 ; ffffffeaH
  001d0	eb 10		 jmp	 SHORT $LN1@LoadInt_e@3
$LN94@LoadInt_e@3:
  001d2	c6 45 e6 eb	 mov	 BYTE PTR __k$[ebp+2], -21 ; ffffffebH
  001d6	eb 0a		 jmp	 SHORT $LN1@LoadInt_e@3
$LN95@LoadInt_e@3:
  001d8	c6 45 e5 ec	 mov	 BYTE PTR __k$[ebp+1], -20 ; ffffffecH
  001dc	eb 04		 jmp	 SHORT $LN1@LoadInt_e@3
$LN96@LoadInt_e@3:
  001de	c6 45 e4 ed	 mov	 BYTE PTR __k$[ebp], -19	; ffffffedH
$LN1@LoadInt_e@3:
  001e2	6a 04		 push	 4
  001e4	8d 45 e4	 lea	 eax, DWORD PTR __k$[ebp]
  001e7	c6 45 f5 00	 mov	 BYTE PTR __k$[ebp+17], 0
  001eb	5a		 pop	 edx
$LL104@LoadInt_e@3:
  001ec	81 30 ed ec eb
	ea		 xor	 DWORD PTR [eax], -353637139 ; eaebecedH
  001f2	83 c0 04	 add	 eax, 4
  001f5	4a		 dec	 edx
  001f6	75 f4		 jne	 SHORT $LL104@LoadInt_e@3

; 120  : 		return LoadInt(_k, i);

  001f8	ff 75 0c	 push	 DWORD PTR _i$[ebp]
  001fb	80 75 f4 ed	 xor	 BYTE PTR __k$[ebp+16], -19 ; ffffffedH
  001ff	8d 45 e4	 lea	 eax, DWORD PTR __k$[ebp]
  00202	50		 push	 eax
  00203	8b ce		 mov	 ecx, esi
  00205	ff 15 00 00 00
	00		 call	 DWORD PTR __imp_?LoadInt@ioINILoader@@QAEHPBDH@Z

; 121  : 	}

  0020b	8b 4d fc	 mov	 ecx, DWORD PTR __$ArrayPad$[ebp]
  0020e	33 cd		 xor	 ecx, ebp
  00210	5e		 pop	 esi
  00211	e8 00 00 00 00	 call	 @__security_check_cookie@4
  00216	c9		 leave
  00217	c2 08 00	 ret	 8
??$LoadInt_e@$0BC@@ioINILoader@@QAEHAAY0BC@$$CBDH@Z ENDP ; ioINILoader::LoadInt_e<18>
_TEXT	ENDS
PUBLIC	__$ArrayPad$
PUBLIC	??$LoadFloat_e@$0BB@@ioINILoader@@QAEMAAY0BB@$$CBDM@Z ; ioINILoader::LoadFloat_e<17>
; Function compile flags: /Ogsp
;	COMDAT ??$LoadFloat_e@$0BB@@ioINILoader@@QAEMAAY0BB@$$CBDM@Z
_TEXT	SEGMENT
__k$ = -28						; size = 17
__$ArrayPad$ = -4					; size = 4
_k$ = 8							; size = 4
_f$ = 12						; size = 4
??$LoadFloat_e@$0BB@@ioINILoader@@QAEMAAY0BB@$$CBDM@Z PROC ; ioINILoader::LoadFloat_e<17>, COMDAT
; _this$ = ecx

; 135  : 	{

  00000	55		 push	 ebp
  00001	8b ec		 mov	 ebp, esp
  00003	83 ec 1c	 sub	 esp, 28			; 0000001cH
  00006	a1 00 00 00 00	 mov	 eax, DWORD PTR ___security_cookie
  0000b	33 c5		 xor	 eax, ebp
  0000d	89 45 fc	 mov	 DWORD PTR __$ArrayPad$[ebp], eax
  00010	8b 45 08	 mov	 eax, DWORD PTR _k$[ebp]

; 136  : 		_ENCSTR(k, _k);

  00013	8a 10		 mov	 dl, BYTE PTR [eax]
  00015	56		 push	 esi
  00016	8b f1		 mov	 esi, ecx
  00018	84 d2		 test	 dl, dl
  0001a	0f 84 a7 01 00
	00		 je	 $LN96@LoadFloat_@5
  00020	80 f2 ed	 xor	 dl, -19			; ffffffedH
  00023	88 55 e4	 mov	 BYTE PTR __k$[ebp], dl
  00026	8a 50 01	 mov	 dl, BYTE PTR [eax+1]
  00029	84 d2		 test	 dl, dl
  0002b	0f 84 90 01 00
	00		 je	 $LN95@LoadFloat_@5
  00031	b1 ec		 mov	 cl, -20			; ffffffecH
  00033	32 d1		 xor	 dl, cl
  00035	88 55 e5	 mov	 BYTE PTR __k$[ebp+1], dl
  00038	8a 50 02	 mov	 dl, BYTE PTR [eax+2]
  0003b	84 d2		 test	 dl, dl
  0003d	0f 84 78 01 00
	00		 je	 $LN94@LoadFloat_@5
  00043	80 f2 eb	 xor	 dl, -21			; ffffffebH
  00046	88 55 e6	 mov	 BYTE PTR __k$[ebp+2], dl
  00049	8a 50 03	 mov	 dl, BYTE PTR [eax+3]
  0004c	84 d2		 test	 dl, dl
  0004e	0f 84 61 01 00
	00		 je	 $LN93@LoadFloat_@5
  00054	80 f2 ea	 xor	 dl, -22			; ffffffeaH
  00057	88 55 e7	 mov	 BYTE PTR __k$[ebp+3], dl
  0005a	8a 50 04	 mov	 dl, BYTE PTR [eax+4]
  0005d	84 d2		 test	 dl, dl
  0005f	0f 84 4a 01 00
	00		 je	 $LN92@LoadFloat_@5
  00065	80 f2 ed	 xor	 dl, -19			; ffffffedH
  00068	88 55 e8	 mov	 BYTE PTR __k$[ebp+4], dl
  0006b	8a 50 05	 mov	 dl, BYTE PTR [eax+5]
  0006e	84 d2		 test	 dl, dl
  00070	0f 84 34 01 00
	00		 je	 $LN91@LoadFloat_@5
  00076	32 d1		 xor	 dl, cl
  00078	88 55 e9	 mov	 BYTE PTR __k$[ebp+5], dl
  0007b	8a 50 06	 mov	 dl, BYTE PTR [eax+6]
  0007e	84 d2		 test	 dl, dl
  00080	0f 84 1e 01 00
	00		 je	 $LN90@LoadFloat_@5
  00086	80 f2 eb	 xor	 dl, -21			; ffffffebH
  00089	88 55 ea	 mov	 BYTE PTR __k$[ebp+6], dl
  0008c	8a 50 07	 mov	 dl, BYTE PTR [eax+7]
  0008f	84 d2		 test	 dl, dl
  00091	0f 84 07 01 00
	00		 je	 $LN89@LoadFloat_@5
  00097	80 f2 ea	 xor	 dl, -22			; ffffffeaH
  0009a	88 55 eb	 mov	 BYTE PTR __k$[ebp+7], dl
  0009d	8a 50 08	 mov	 dl, BYTE PTR [eax+8]
  000a0	84 d2		 test	 dl, dl
  000a2	0f 84 f0 00 00
	00		 je	 $LN88@LoadFloat_@5
  000a8	80 f2 ed	 xor	 dl, -19			; ffffffedH
  000ab	88 55 ec	 mov	 BYTE PTR __k$[ebp+8], dl
  000ae	8a 50 09	 mov	 dl, BYTE PTR [eax+9]
  000b1	84 d2		 test	 dl, dl
  000b3	0f 84 da 00 00
	00		 je	 $LN87@LoadFloat_@5
  000b9	32 d1		 xor	 dl, cl
  000bb	88 55 ed	 mov	 BYTE PTR __k$[ebp+9], dl
  000be	8a 50 0a	 mov	 dl, BYTE PTR [eax+10]
  000c1	84 d2		 test	 dl, dl
  000c3	0f 84 c4 00 00
	00		 je	 $LN86@LoadFloat_@5
  000c9	80 f2 eb	 xor	 dl, -21			; ffffffebH
  000cc	88 55 ee	 mov	 BYTE PTR __k$[ebp+10], dl
  000cf	8a 50 0b	 mov	 dl, BYTE PTR [eax+11]
  000d2	84 d2		 test	 dl, dl
  000d4	0f 84 ad 00 00
	00		 je	 $LN85@LoadFloat_@5
  000da	80 f2 ea	 xor	 dl, -22			; ffffffeaH
  000dd	88 55 ef	 mov	 BYTE PTR __k$[ebp+11], dl
  000e0	8a 50 0c	 mov	 dl, BYTE PTR [eax+12]
  000e3	84 d2		 test	 dl, dl
  000e5	0f 84 96 00 00
	00		 je	 $LN84@LoadFloat_@5
  000eb	80 f2 ed	 xor	 dl, -19			; ffffffedH
  000ee	88 55 f0	 mov	 BYTE PTR __k$[ebp+12], dl
  000f1	8a 50 0d	 mov	 dl, BYTE PTR [eax+13]
  000f4	84 d2		 test	 dl, dl
  000f6	0f 84 80 00 00
	00		 je	 $LN83@LoadFloat_@5
  000fc	32 d1		 xor	 dl, cl
  000fe	88 55 f1	 mov	 BYTE PTR __k$[ebp+13], dl
  00101	8a 50 0e	 mov	 dl, BYTE PTR [eax+14]
  00104	84 d2		 test	 dl, dl
  00106	74 6e		 je	 SHORT $LN82@LoadFloat_@5
  00108	80 f2 eb	 xor	 dl, -21			; ffffffebH
  0010b	88 55 f2	 mov	 BYTE PTR __k$[ebp+14], dl
  0010e	8a 50 0f	 mov	 dl, BYTE PTR [eax+15]
  00111	84 d2		 test	 dl, dl
  00113	74 5b		 je	 SHORT $LN81@LoadFloat_@5
  00115	80 f2 ea	 xor	 dl, -22			; ffffffeaH
  00118	80 78 10 00	 cmp	 BYTE PTR [eax+16], 0
  0011c	88 55 f3	 mov	 BYTE PTR __k$[ebp+15], dl
  0011f	0f 84 a6 00 00
	00		 je	 $LN1@LoadFloat_@5
  00125	8a 50 11	 mov	 dl, BYTE PTR [eax+17]
  00128	84 d2		 test	 dl, dl
  0012a	74 3f		 je	 SHORT $LN79@LoadFloat_@5
  0012c	32 d1		 xor	 dl, cl
  0012e	88 55 f5	 mov	 BYTE PTR __k$[ebp+17], dl
  00131	8a 50 12	 mov	 dl, BYTE PTR [eax+18]
  00134	84 d2		 test	 dl, dl
  00136	74 2d		 je	 SHORT $LN78@LoadFloat_@5
  00138	80 f2 eb	 xor	 dl, -21			; ffffffebH
  0013b	88 55 f6	 mov	 BYTE PTR __k$[ebp+18], dl
  0013e	8a 50 13	 mov	 dl, BYTE PTR [eax+19]
  00141	84 d2		 test	 dl, dl
  00143	74 1a		 je	 SHORT $LN77@LoadFloat_@5
  00145	8a 40 14	 mov	 al, BYTE PTR [eax+20]
  00148	80 f2 ea	 xor	 dl, -22			; ffffffeaH
  0014b	88 55 f7	 mov	 BYTE PTR __k$[ebp+19], dl
  0014e	84 c0		 test	 al, al
  00150	74 07		 je	 SHORT $LN76@LoadFloat_@5
  00152	34 ed		 xor	 al, -19			; ffffffedH
  00154	88 45 f8	 mov	 BYTE PTR __k$[ebp+20], al
  00157	eb 72		 jmp	 SHORT $LN1@LoadFloat_@5
$LN76@LoadFloat_@5:
  00159	c6 45 f8 ed	 mov	 BYTE PTR __k$[ebp+20], -19 ; ffffffedH
  0015d	eb 6c		 jmp	 SHORT $LN1@LoadFloat_@5
$LN77@LoadFloat_@5:
  0015f	c6 45 f7 ea	 mov	 BYTE PTR __k$[ebp+19], -22 ; ffffffeaH
  00163	eb 66		 jmp	 SHORT $LN1@LoadFloat_@5
$LN78@LoadFloat_@5:
  00165	c6 45 f6 eb	 mov	 BYTE PTR __k$[ebp+18], -21 ; ffffffebH
  00169	eb 60		 jmp	 SHORT $LN1@LoadFloat_@5
$LN79@LoadFloat_@5:
  0016b	88 4d f5	 mov	 BYTE PTR __k$[ebp+17], cl
  0016e	eb 5b		 jmp	 SHORT $LN1@LoadFloat_@5
$LN81@LoadFloat_@5:
  00170	c6 45 f3 ea	 mov	 BYTE PTR __k$[ebp+15], -22 ; ffffffeaH
  00174	eb 55		 jmp	 SHORT $LN1@LoadFloat_@5
$LN82@LoadFloat_@5:
  00176	c6 45 f2 eb	 mov	 BYTE PTR __k$[ebp+14], -21 ; ffffffebH
  0017a	eb 4f		 jmp	 SHORT $LN1@LoadFloat_@5
$LN83@LoadFloat_@5:
  0017c	88 4d f1	 mov	 BYTE PTR __k$[ebp+13], cl
  0017f	eb 4a		 jmp	 SHORT $LN1@LoadFloat_@5
$LN84@LoadFloat_@5:
  00181	c6 45 f0 ed	 mov	 BYTE PTR __k$[ebp+12], -19 ; ffffffedH
  00185	eb 44		 jmp	 SHORT $LN1@LoadFloat_@5
$LN85@LoadFloat_@5:
  00187	c6 45 ef ea	 mov	 BYTE PTR __k$[ebp+11], -22 ; ffffffeaH
  0018b	eb 3e		 jmp	 SHORT $LN1@LoadFloat_@5
$LN86@LoadFloat_@5:
  0018d	c6 45 ee eb	 mov	 BYTE PTR __k$[ebp+10], -21 ; ffffffebH
  00191	eb 38		 jmp	 SHORT $LN1@LoadFloat_@5
$LN87@LoadFloat_@5:
  00193	88 4d ed	 mov	 BYTE PTR __k$[ebp+9], cl
  00196	eb 33		 jmp	 SHORT $LN1@LoadFloat_@5
$LN88@LoadFloat_@5:
  00198	c6 45 ec ed	 mov	 BYTE PTR __k$[ebp+8], -19 ; ffffffedH
  0019c	eb 2d		 jmp	 SHORT $LN1@LoadFloat_@5
$LN89@LoadFloat_@5:
  0019e	c6 45 eb ea	 mov	 BYTE PTR __k$[ebp+7], -22 ; ffffffeaH
  001a2	eb 27		 jmp	 SHORT $LN1@LoadFloat_@5
$LN90@LoadFloat_@5:
  001a4	c6 45 ea eb	 mov	 BYTE PTR __k$[ebp+6], -21 ; ffffffebH
  001a8	eb 21		 jmp	 SHORT $LN1@LoadFloat_@5
$LN91@LoadFloat_@5:
  001aa	88 4d e9	 mov	 BYTE PTR __k$[ebp+5], cl
  001ad	eb 1c		 jmp	 SHORT $LN1@LoadFloat_@5
$LN92@LoadFloat_@5:
  001af	c6 45 e8 ed	 mov	 BYTE PTR __k$[ebp+4], -19 ; ffffffedH
  001b3	eb 16		 jmp	 SHORT $LN1@LoadFloat_@5
$LN93@LoadFloat_@5:
  001b5	c6 45 e7 ea	 mov	 BYTE PTR __k$[ebp+3], -22 ; ffffffeaH
  001b9	eb 10		 jmp	 SHORT $LN1@LoadFloat_@5
$LN94@LoadFloat_@5:
  001bb	c6 45 e6 eb	 mov	 BYTE PTR __k$[ebp+2], -21 ; ffffffebH
  001bf	eb 0a		 jmp	 SHORT $LN1@LoadFloat_@5
$LN95@LoadFloat_@5:
  001c1	c6 45 e5 ec	 mov	 BYTE PTR __k$[ebp+1], -20 ; ffffffecH
  001c5	eb 04		 jmp	 SHORT $LN1@LoadFloat_@5
$LN96@LoadFloat_@5:
  001c7	c6 45 e4 ed	 mov	 BYTE PTR __k$[ebp], -19	; ffffffedH
$LN1@LoadFloat_@5:
  001cb	6a 04		 push	 4
  001cd	8d 45 e4	 lea	 eax, DWORD PTR __k$[ebp]
  001d0	c6 45 f4 00	 mov	 BYTE PTR __k$[ebp+16], 0
  001d4	5a		 pop	 edx
$LL104@LoadFloat_@5:
  001d5	81 30 ed ec eb
	ea		 xor	 DWORD PTR [eax], -353637139 ; eaebecedH
  001db	83 c0 04	 add	 eax, 4
  001de	4a		 dec	 edx
  001df	75 f4		 jne	 SHORT $LL104@LoadFloat_@5

; 137  : 		return LoadFloat(_k, f);

  001e1	f3 0f 10 45 0c	 movss	 xmm0, DWORD PTR _f$[ebp]
  001e6	51		 push	 ecx
  001e7	8d 45 e4	 lea	 eax, DWORD PTR __k$[ebp]
  001ea	f3 0f 11 04 24	 movss	 DWORD PTR [esp], xmm0
  001ef	50		 push	 eax
  001f0	8b ce		 mov	 ecx, esi
  001f2	ff 15 00 00 00
	00		 call	 DWORD PTR __imp_?LoadFloat@ioINILoader@@QAEMPBDM@Z

; 138  : 	}

  001f8	8b 4d fc	 mov	 ecx, DWORD PTR __$ArrayPad$[ebp]
  001fb	33 cd		 xor	 ecx, ebp
  001fd	5e		 pop	 esi
  001fe	e8 00 00 00 00	 call	 @__security_check_cookie@4
  00203	c9		 leave
  00204	c2 08 00	 ret	 8
??$LoadFloat_e@$0BB@@ioINILoader@@QAEMAAY0BB@$$CBDM@Z ENDP ; ioINILoader::LoadFloat_e<17>
_TEXT	ENDS
PUBLIC	__$ArrayPad$
PUBLIC	??$LoadInt_e@$0BE@@ioINILoader@@QAEHAAY0BE@$$CBDH@Z ; ioINILoader::LoadInt_e<20>
; Function compile flags: /Ogsp
;	COMDAT ??$LoadInt_e@$0BE@@ioINILoader@@QAEHAAY0BE@$$CBDH@Z
_TEXT	SEGMENT
__k$ = -28						; size = 20
__$ArrayPad$ = -4					; size = 4
_k$ = 8							; size = 4
_i$ = 12						; size = 4
??$LoadInt_e@$0BE@@ioINILoader@@QAEHAAY0BE@$$CBDH@Z PROC ; ioINILoader::LoadInt_e<20>, COMDAT
; _this$ = ecx

; 118  : 	{

  00000	55		 push	 ebp
  00001	8b ec		 mov	 ebp, esp
  00003	83 ec 1c	 sub	 esp, 28			; 0000001cH
  00006	a1 00 00 00 00	 mov	 eax, DWORD PTR ___security_cookie
  0000b	33 c5		 xor	 eax, ebp
  0000d	89 45 fc	 mov	 DWORD PTR __$ArrayPad$[ebp], eax
  00010	8b 45 08	 mov	 eax, DWORD PTR _k$[ebp]

; 119  : 		_ENCSTR(k, _k);

  00013	8a 10		 mov	 dl, BYTE PTR [eax]
  00015	53		 push	 ebx
  00016	56		 push	 esi
  00017	8b f1		 mov	 esi, ecx
  00019	84 d2		 test	 dl, dl
  0001b	0f 84 dd 01 00
	00		 je	 $LN96@LoadInt_e@4
  00021	80 f2 ed	 xor	 dl, -19			; ffffffedH
  00024	88 55 e4	 mov	 BYTE PTR __k$[ebp], dl
  00027	8a 50 01	 mov	 dl, BYTE PTR [eax+1]
  0002a	84 d2		 test	 dl, dl
  0002c	0f 84 c6 01 00
	00		 je	 $LN95@LoadInt_e@4
  00032	b3 ec		 mov	 bl, -20			; ffffffecH
  00034	32 d3		 xor	 dl, bl
  00036	88 55 e5	 mov	 BYTE PTR __k$[ebp+1], dl
  00039	8a 50 02	 mov	 dl, BYTE PTR [eax+2]
  0003c	84 d2		 test	 dl, dl
  0003e	0f 84 ae 01 00
	00		 je	 $LN94@LoadInt_e@4
  00044	b1 eb		 mov	 cl, -21			; ffffffebH
  00046	32 d1		 xor	 dl, cl
  00048	88 55 e6	 mov	 BYTE PTR __k$[ebp+2], dl
  0004b	8a 50 03	 mov	 dl, BYTE PTR [eax+3]
  0004e	84 d2		 test	 dl, dl
  00050	0f 84 96 01 00
	00		 je	 $LN93@LoadInt_e@4
  00056	80 f2 ea	 xor	 dl, -22			; ffffffeaH
  00059	88 55 e7	 mov	 BYTE PTR __k$[ebp+3], dl
  0005c	8a 50 04	 mov	 dl, BYTE PTR [eax+4]
  0005f	84 d2		 test	 dl, dl
  00061	0f 84 7f 01 00
	00		 je	 $LN92@LoadInt_e@4
  00067	80 f2 ed	 xor	 dl, -19			; ffffffedH
  0006a	88 55 e8	 mov	 BYTE PTR __k$[ebp+4], dl
  0006d	8a 50 05	 mov	 dl, BYTE PTR [eax+5]
  00070	84 d2		 test	 dl, dl
  00072	0f 84 69 01 00
	00		 je	 $LN91@LoadInt_e@4
  00078	32 d3		 xor	 dl, bl
  0007a	88 55 e9	 mov	 BYTE PTR __k$[ebp+5], dl
  0007d	8a 50 06	 mov	 dl, BYTE PTR [eax+6]
  00080	84 d2		 test	 dl, dl
  00082	0f 84 54 01 00
	00		 je	 $LN90@LoadInt_e@4
  00088	32 d1		 xor	 dl, cl
  0008a	88 55 ea	 mov	 BYTE PTR __k$[ebp+6], dl
  0008d	8a 50 07	 mov	 dl, BYTE PTR [eax+7]
  00090	84 d2		 test	 dl, dl
  00092	0f 84 3e 01 00
	00		 je	 $LN89@LoadInt_e@4
  00098	80 f2 ea	 xor	 dl, -22			; ffffffeaH
  0009b	88 55 eb	 mov	 BYTE PTR __k$[ebp+7], dl
  0009e	8a 50 08	 mov	 dl, BYTE PTR [eax+8]
  000a1	84 d2		 test	 dl, dl
  000a3	0f 84 27 01 00
	00		 je	 $LN88@LoadInt_e@4
  000a9	80 f2 ed	 xor	 dl, -19			; ffffffedH
  000ac	88 55 ec	 mov	 BYTE PTR __k$[ebp+8], dl
  000af	8a 50 09	 mov	 dl, BYTE PTR [eax+9]
  000b2	84 d2		 test	 dl, dl
  000b4	0f 84 11 01 00
	00		 je	 $LN87@LoadInt_e@4
  000ba	32 d3		 xor	 dl, bl
  000bc	88 55 ed	 mov	 BYTE PTR __k$[ebp+9], dl
  000bf	8a 50 0a	 mov	 dl, BYTE PTR [eax+10]
  000c2	84 d2		 test	 dl, dl
  000c4	0f 84 fc 00 00
	00		 je	 $LN86@LoadInt_e@4
  000ca	32 d1		 xor	 dl, cl
  000cc	88 55 ee	 mov	 BYTE PTR __k$[ebp+10], dl
  000cf	8a 50 0b	 mov	 dl, BYTE PTR [eax+11]
  000d2	84 d2		 test	 dl, dl
  000d4	0f 84 e6 00 00
	00		 je	 $LN85@LoadInt_e@4
  000da	80 f2 ea	 xor	 dl, -22			; ffffffeaH
  000dd	88 55 ef	 mov	 BYTE PTR __k$[ebp+11], dl
  000e0	8a 50 0c	 mov	 dl, BYTE PTR [eax+12]
  000e3	84 d2		 test	 dl, dl
  000e5	0f 84 cf 00 00
	00		 je	 $LN84@LoadInt_e@4
  000eb	80 f2 ed	 xor	 dl, -19			; ffffffedH
  000ee	88 55 f0	 mov	 BYTE PTR __k$[ebp+12], dl
  000f1	8a 50 0d	 mov	 dl, BYTE PTR [eax+13]
  000f4	84 d2		 test	 dl, dl
  000f6	0f 84 b9 00 00
	00		 je	 $LN83@LoadInt_e@4
  000fc	32 d3		 xor	 dl, bl
  000fe	88 55 f1	 mov	 BYTE PTR __k$[ebp+13], dl
  00101	8a 50 0e	 mov	 dl, BYTE PTR [eax+14]
  00104	84 d2		 test	 dl, dl
  00106	0f 84 a4 00 00
	00		 je	 $LN82@LoadInt_e@4
  0010c	32 d1		 xor	 dl, cl
  0010e	88 55 f2	 mov	 BYTE PTR __k$[ebp+14], dl
  00111	8a 50 0f	 mov	 dl, BYTE PTR [eax+15]
  00114	84 d2		 test	 dl, dl
  00116	0f 84 8e 00 00
	00		 je	 $LN81@LoadInt_e@4
  0011c	80 f2 ea	 xor	 dl, -22			; ffffffeaH
  0011f	88 55 f3	 mov	 BYTE PTR __k$[ebp+15], dl
  00122	8a 50 10	 mov	 dl, BYTE PTR [eax+16]
  00125	84 d2		 test	 dl, dl
  00127	74 7b		 je	 SHORT $LN80@LoadInt_e@4
  00129	80 f2 ed	 xor	 dl, -19			; ffffffedH
  0012c	88 55 f4	 mov	 BYTE PTR __k$[ebp+16], dl
  0012f	8a 50 11	 mov	 dl, BYTE PTR [eax+17]
  00132	84 d2		 test	 dl, dl
  00134	74 69		 je	 SHORT $LN79@LoadInt_e@4
  00136	32 d3		 xor	 dl, bl
  00138	88 55 f5	 mov	 BYTE PTR __k$[ebp+17], dl
  0013b	8a 50 12	 mov	 dl, BYTE PTR [eax+18]
  0013e	84 d2		 test	 dl, dl
  00140	74 58		 je	 SHORT $LN78@LoadInt_e@4
  00142	32 d1		 xor	 dl, cl
  00144	80 78 13 00	 cmp	 BYTE PTR [eax+19], 0
  00148	88 55 f6	 mov	 BYTE PTR __k$[ebp+18], dl
  0014b	0f 84 b1 00 00
	00		 je	 $LN1@LoadInt_e@4
  00151	8a 50 14	 mov	 dl, BYTE PTR [eax+20]
  00154	84 d2		 test	 dl, dl
  00156	74 3c		 je	 SHORT $LN76@LoadInt_e@4
  00158	80 f2 ed	 xor	 dl, -19			; ffffffedH
  0015b	88 55 f8	 mov	 BYTE PTR __k$[ebp+20], dl
  0015e	8a 50 15	 mov	 dl, BYTE PTR [eax+21]
  00161	84 d2		 test	 dl, dl
  00163	74 2a		 je	 SHORT $LN75@LoadInt_e@4
  00165	32 d3		 xor	 dl, bl
  00167	88 55 f9	 mov	 BYTE PTR __k$[ebp+21], dl
  0016a	8a 50 16	 mov	 dl, BYTE PTR [eax+22]
  0016d	84 d2		 test	 dl, dl
  0016f	74 19		 je	 SHORT $LN74@LoadInt_e@4
  00171	8a 40 17	 mov	 al, BYTE PTR [eax+23]
  00174	32 d1		 xor	 dl, cl
  00176	88 55 fa	 mov	 BYTE PTR __k$[ebp+22], dl
  00179	84 c0		 test	 al, al
  0017b	74 07		 je	 SHORT $LN73@LoadInt_e@4
  0017d	34 ea		 xor	 al, -22			; ffffffeaH
  0017f	88 45 fb	 mov	 BYTE PTR __k$[ebp+23], al
  00182	eb 7e		 jmp	 SHORT $LN1@LoadInt_e@4
$LN73@LoadInt_e@4:
  00184	c6 45 fb ea	 mov	 BYTE PTR __k$[ebp+23], -22 ; ffffffeaH
  00188	eb 78		 jmp	 SHORT $LN1@LoadInt_e@4
$LN74@LoadInt_e@4:
  0018a	88 4d fa	 mov	 BYTE PTR __k$[ebp+22], cl
  0018d	eb 73		 jmp	 SHORT $LN1@LoadInt_e@4
$LN75@LoadInt_e@4:
  0018f	88 5d f9	 mov	 BYTE PTR __k$[ebp+21], bl
  00192	eb 6e		 jmp	 SHORT $LN1@LoadInt_e@4
$LN76@LoadInt_e@4:
  00194	c6 45 f8 ed	 mov	 BYTE PTR __k$[ebp+20], -19 ; ffffffedH
  00198	eb 68		 jmp	 SHORT $LN1@LoadInt_e@4
$LN78@LoadInt_e@4:
  0019a	88 4d f6	 mov	 BYTE PTR __k$[ebp+18], cl
  0019d	eb 63		 jmp	 SHORT $LN1@LoadInt_e@4
$LN79@LoadInt_e@4:
  0019f	88 5d f5	 mov	 BYTE PTR __k$[ebp+17], bl
  001a2	eb 5e		 jmp	 SHORT $LN1@LoadInt_e@4
$LN80@LoadInt_e@4:
  001a4	c6 45 f4 ed	 mov	 BYTE PTR __k$[ebp+16], -19 ; ffffffedH
  001a8	eb 58		 jmp	 SHORT $LN1@LoadInt_e@4
$LN81@LoadInt_e@4:
  001aa	c6 45 f3 ea	 mov	 BYTE PTR __k$[ebp+15], -22 ; ffffffeaH
  001ae	eb 52		 jmp	 SHORT $LN1@LoadInt_e@4
$LN82@LoadInt_e@4:
  001b0	88 4d f2	 mov	 BYTE PTR __k$[ebp+14], cl
  001b3	eb 4d		 jmp	 SHORT $LN1@LoadInt_e@4
$LN83@LoadInt_e@4:
  001b5	88 5d f1	 mov	 BYTE PTR __k$[ebp+13], bl
  001b8	eb 48		 jmp	 SHORT $LN1@LoadInt_e@4
$LN84@LoadInt_e@4:
  001ba	c6 45 f0 ed	 mov	 BYTE PTR __k$[ebp+12], -19 ; ffffffedH
  001be	eb 42		 jmp	 SHORT $LN1@LoadInt_e@4
$LN85@LoadInt_e@4:
  001c0	c6 45 ef ea	 mov	 BYTE PTR __k$[ebp+11], -22 ; ffffffeaH
  001c4	eb 3c		 jmp	 SHORT $LN1@LoadInt_e@4
$LN86@LoadInt_e@4:
  001c6	88 4d ee	 mov	 BYTE PTR __k$[ebp+10], cl
  001c9	eb 37		 jmp	 SHORT $LN1@LoadInt_e@4
$LN87@LoadInt_e@4:
  001cb	88 5d ed	 mov	 BYTE PTR __k$[ebp+9], bl
  001ce	eb 32		 jmp	 SHORT $LN1@LoadInt_e@4
$LN88@LoadInt_e@4:
  001d0	c6 45 ec ed	 mov	 BYTE PTR __k$[ebp+8], -19 ; ffffffedH
  001d4	eb 2c		 jmp	 SHORT $LN1@LoadInt_e@4
$LN89@LoadInt_e@4:
  001d6	c6 45 eb ea	 mov	 BYTE PTR __k$[ebp+7], -22 ; ffffffeaH
  001da	eb 26		 jmp	 SHORT $LN1@LoadInt_e@4
$LN90@LoadInt_e@4:
  001dc	88 4d ea	 mov	 BYTE PTR __k$[ebp+6], cl
  001df	eb 21		 jmp	 SHORT $LN1@LoadInt_e@4
$LN91@LoadInt_e@4:
  001e1	88 5d e9	 mov	 BYTE PTR __k$[ebp+5], bl
  001e4	eb 1c		 jmp	 SHORT $LN1@LoadInt_e@4
$LN92@LoadInt_e@4:
  001e6	c6 45 e8 ed	 mov	 BYTE PTR __k$[ebp+4], -19 ; ffffffedH
  001ea	eb 16		 jmp	 SHORT $LN1@LoadInt_e@4
$LN93@LoadInt_e@4:
  001ec	c6 45 e7 ea	 mov	 BYTE PTR __k$[ebp+3], -22 ; ffffffeaH
  001f0	eb 10		 jmp	 SHORT $LN1@LoadInt_e@4
$LN94@LoadInt_e@4:
  001f2	c6 45 e6 eb	 mov	 BYTE PTR __k$[ebp+2], -21 ; ffffffebH
  001f6	eb 0a		 jmp	 SHORT $LN1@LoadInt_e@4
$LN95@LoadInt_e@4:
  001f8	c6 45 e5 ec	 mov	 BYTE PTR __k$[ebp+1], -20 ; ffffffecH
  001fc	eb 04		 jmp	 SHORT $LN1@LoadInt_e@4
$LN96@LoadInt_e@4:
  001fe	c6 45 e4 ed	 mov	 BYTE PTR __k$[ebp], -19	; ffffffedH
$LN1@LoadInt_e@4:
  00202	6a 04		 push	 4
  00204	8d 45 e4	 lea	 eax, DWORD PTR __k$[ebp]
  00207	c6 45 f7 00	 mov	 BYTE PTR __k$[ebp+19], 0
  0020b	5a		 pop	 edx
$LL104@LoadInt_e@4:
  0020c	81 30 ed ec eb
	ea		 xor	 DWORD PTR [eax], -353637139 ; eaebecedH
  00212	83 c0 04	 add	 eax, 4
  00215	4a		 dec	 edx
  00216	75 f4		 jne	 SHORT $LL104@LoadInt_e@4
  00218	6a 10		 push	 16			; 00000010H
  0021a	58		 pop	 eax
$LL101@LoadInt_e@4:
  0021b	8b c8		 mov	 ecx, eax
  0021d	81 e1 03 00 00
	80		 and	 ecx, -2147483645	; 80000003H
  00223	79 05		 jns	 SHORT $LN111@LoadInt_e@4
  00225	49		 dec	 ecx
  00226	83 c9 fc	 or	 ecx, -4			; fffffffcH
  00229	41		 inc	 ecx
$LN111@LoadInt_e@4:
  0022a	b2 ed		 mov	 dl, -19			; ffffffedH
  0022c	2a d1		 sub	 dl, cl
  0022e	30 54 05 e4	 xor	 BYTE PTR __k$[ebp+eax], dl
  00232	40		 inc	 eax
  00233	83 f8 13	 cmp	 eax, 19			; 00000013H
  00236	7c e3		 jl	 SHORT $LL101@LoadInt_e@4

; 120  : 		return LoadInt(_k, i);

  00238	ff 75 0c	 push	 DWORD PTR _i$[ebp]
  0023b	8d 45 e4	 lea	 eax, DWORD PTR __k$[ebp]
  0023e	50		 push	 eax
  0023f	8b ce		 mov	 ecx, esi
  00241	ff 15 00 00 00
	00		 call	 DWORD PTR __imp_?LoadInt@ioINILoader@@QAEHPBDH@Z

; 121  : 	}

  00247	8b 4d fc	 mov	 ecx, DWORD PTR __$ArrayPad$[ebp]
  0024a	5e		 pop	 esi
  0024b	33 cd		 xor	 ecx, ebp
  0024d	5b		 pop	 ebx
  0024e	e8 00 00 00 00	 call	 @__security_check_cookie@4
  00253	c9		 leave
  00254	c2 08 00	 ret	 8
??$LoadInt_e@$0BE@@ioINILoader@@QAEHAAY0BE@$$CBDH@Z ENDP ; ioINILoader::LoadInt_e<20>
_TEXT	ENDS
PUBLIC	__$ArrayPad$
PUBLIC	??$LoadInt_e@$0BG@@ioINILoader@@QAEHAAY0BG@$$CBDH@Z ; ioINILoader::LoadInt_e<22>
; Function compile flags: /Ogsp
;	COMDAT ??$LoadInt_e@$0BG@@ioINILoader@@QAEHAAY0BG@$$CBDH@Z
_TEXT	SEGMENT
__k$ = -32						; size = 22
__$ArrayPad$ = -4					; size = 4
_k$ = 8							; size = 4
_i$ = 12						; size = 4
??$LoadInt_e@$0BG@@ioINILoader@@QAEHAAY0BG@$$CBDH@Z PROC ; ioINILoader::LoadInt_e<22>, COMDAT
; _this$ = ecx

; 118  : 	{

  00000	55		 push	 ebp
  00001	8b ec		 mov	 ebp, esp
  00003	83 ec 20	 sub	 esp, 32			; 00000020H
  00006	a1 00 00 00 00	 mov	 eax, DWORD PTR ___security_cookie
  0000b	33 c5		 xor	 eax, ebp
  0000d	89 45 fc	 mov	 DWORD PTR __$ArrayPad$[ebp], eax
  00010	8b 45 08	 mov	 eax, DWORD PTR _k$[ebp]

; 119  : 		_ENCSTR(k, _k);

  00013	8a 10		 mov	 dl, BYTE PTR [eax]
  00015	53		 push	 ebx
  00016	56		 push	 esi
  00017	8b f1		 mov	 esi, ecx
  00019	84 d2		 test	 dl, dl
  0001b	0f 84 15 02 00
	00		 je	 $LN96@LoadInt_e@5
  00021	80 f2 ed	 xor	 dl, -19			; ffffffedH
  00024	88 55 e0	 mov	 BYTE PTR __k$[ebp], dl
  00027	8a 50 01	 mov	 dl, BYTE PTR [eax+1]
  0002a	84 d2		 test	 dl, dl
  0002c	0f 84 fe 01 00
	00		 je	 $LN95@LoadInt_e@5
  00032	80 f2 ec	 xor	 dl, -20			; ffffffecH
  00035	88 55 e1	 mov	 BYTE PTR __k$[ebp+1], dl
  00038	8a 50 02	 mov	 dl, BYTE PTR [eax+2]
  0003b	84 d2		 test	 dl, dl
  0003d	0f 84 e7 01 00
	00		 je	 $LN94@LoadInt_e@5
  00043	b1 eb		 mov	 cl, -21			; ffffffebH
  00045	32 d1		 xor	 dl, cl
  00047	88 55 e2	 mov	 BYTE PTR __k$[ebp+2], dl
  0004a	8a 50 03	 mov	 dl, BYTE PTR [eax+3]
  0004d	84 d2		 test	 dl, dl
  0004f	0f 84 cf 01 00
	00		 je	 $LN93@LoadInt_e@5
  00055	b3 ea		 mov	 bl, -22			; ffffffeaH
  00057	32 d3		 xor	 dl, bl
  00059	88 55 e3	 mov	 BYTE PTR __k$[ebp+3], dl
  0005c	8a 50 04	 mov	 dl, BYTE PTR [eax+4]
  0005f	84 d2		 test	 dl, dl
  00061	0f 84 b7 01 00
	00		 je	 $LN92@LoadInt_e@5
  00067	80 f2 ed	 xor	 dl, -19			; ffffffedH
  0006a	88 55 e4	 mov	 BYTE PTR __k$[ebp+4], dl
  0006d	8a 50 05	 mov	 dl, BYTE PTR [eax+5]
  00070	84 d2		 test	 dl, dl
  00072	0f 84 a0 01 00
	00		 je	 $LN91@LoadInt_e@5
  00078	80 f2 ec	 xor	 dl, -20			; ffffffecH
  0007b	88 55 e5	 mov	 BYTE PTR __k$[ebp+5], dl
  0007e	8a 50 06	 mov	 dl, BYTE PTR [eax+6]
  00081	84 d2		 test	 dl, dl
  00083	0f 84 8a 01 00
	00		 je	 $LN90@LoadInt_e@5
  00089	32 d1		 xor	 dl, cl
  0008b	88 55 e6	 mov	 BYTE PTR __k$[ebp+6], dl
  0008e	8a 50 07	 mov	 dl, BYTE PTR [eax+7]
  00091	84 d2		 test	 dl, dl
  00093	0f 84 75 01 00
	00		 je	 $LN89@LoadInt_e@5
  00099	32 d3		 xor	 dl, bl
  0009b	88 55 e7	 mov	 BYTE PTR __k$[ebp+7], dl
  0009e	8a 50 08	 mov	 dl, BYTE PTR [eax+8]
  000a1	84 d2		 test	 dl, dl
  000a3	0f 84 5f 01 00
	00		 je	 $LN88@LoadInt_e@5
  000a9	80 f2 ed	 xor	 dl, -19			; ffffffedH
  000ac	88 55 e8	 mov	 BYTE PTR __k$[ebp+8], dl
  000af	8a 50 09	 mov	 dl, BYTE PTR [eax+9]
  000b2	84 d2		 test	 dl, dl
  000b4	0f 84 48 01 00
	00		 je	 $LN87@LoadInt_e@5
  000ba	80 f2 ec	 xor	 dl, -20			; ffffffecH
  000bd	88 55 e9	 mov	 BYTE PTR __k$[ebp+9], dl
  000c0	8a 50 0a	 mov	 dl, BYTE PTR [eax+10]
  000c3	84 d2		 test	 dl, dl
  000c5	0f 84 32 01 00
	00		 je	 $LN86@LoadInt_e@5
  000cb	32 d1		 xor	 dl, cl
  000cd	88 55 ea	 mov	 BYTE PTR __k$[ebp+10], dl
  000d0	8a 50 0b	 mov	 dl, BYTE PTR [eax+11]
  000d3	84 d2		 test	 dl, dl
  000d5	0f 84 1d 01 00
	00		 je	 $LN85@LoadInt_e@5
  000db	32 d3		 xor	 dl, bl
  000dd	88 55 eb	 mov	 BYTE PTR __k$[ebp+11], dl
  000e0	8a 50 0c	 mov	 dl, BYTE PTR [eax+12]
  000e3	84 d2		 test	 dl, dl
  000e5	0f 84 07 01 00
	00		 je	 $LN84@LoadInt_e@5
  000eb	80 f2 ed	 xor	 dl, -19			; ffffffedH
  000ee	88 55 ec	 mov	 BYTE PTR __k$[ebp+12], dl
  000f1	8a 50 0d	 mov	 dl, BYTE PTR [eax+13]
  000f4	84 d2		 test	 dl, dl
  000f6	0f 84 f0 00 00
	00		 je	 $LN83@LoadInt_e@5
  000fc	80 f2 ec	 xor	 dl, -20			; ffffffecH
  000ff	88 55 ed	 mov	 BYTE PTR __k$[ebp+13], dl
  00102	8a 50 0e	 mov	 dl, BYTE PTR [eax+14]
  00105	84 d2		 test	 dl, dl
  00107	0f 84 da 00 00
	00		 je	 $LN82@LoadInt_e@5
  0010d	32 d1		 xor	 dl, cl
  0010f	88 55 ee	 mov	 BYTE PTR __k$[ebp+14], dl
  00112	8a 50 0f	 mov	 dl, BYTE PTR [eax+15]
  00115	84 d2		 test	 dl, dl
  00117	0f 84 c5 00 00
	00		 je	 $LN81@LoadInt_e@5
  0011d	32 d3		 xor	 dl, bl
  0011f	88 55 ef	 mov	 BYTE PTR __k$[ebp+15], dl
  00122	8a 50 10	 mov	 dl, BYTE PTR [eax+16]
  00125	84 d2		 test	 dl, dl
  00127	0f 84 af 00 00
	00		 je	 $LN80@LoadInt_e@5
  0012d	80 f2 ed	 xor	 dl, -19			; ffffffedH
  00130	88 55 f0	 mov	 BYTE PTR __k$[ebp+16], dl
  00133	8a 50 11	 mov	 dl, BYTE PTR [eax+17]
  00136	84 d2		 test	 dl, dl
  00138	0f 84 98 00 00
	00		 je	 $LN79@LoadInt_e@5
  0013e	80 f2 ec	 xor	 dl, -20			; ffffffecH
  00141	88 55 f1	 mov	 BYTE PTR __k$[ebp+17], dl
  00144	8a 50 12	 mov	 dl, BYTE PTR [eax+18]
  00147	84 d2		 test	 dl, dl
  00149	0f 84 82 00 00
	00		 je	 $LN78@LoadInt_e@5
  0014f	32 d1		 xor	 dl, cl
  00151	88 55 f2	 mov	 BYTE PTR __k$[ebp+18], dl
  00154	8a 50 13	 mov	 dl, BYTE PTR [eax+19]
  00157	84 d2		 test	 dl, dl
  00159	74 71		 je	 SHORT $LN77@LoadInt_e@5
  0015b	32 d3		 xor	 dl, bl
  0015d	88 55 f3	 mov	 BYTE PTR __k$[ebp+19], dl
  00160	8a 50 14	 mov	 dl, BYTE PTR [eax+20]
  00163	84 d2		 test	 dl, dl
  00165	74 5f		 je	 SHORT $LN76@LoadInt_e@5
  00167	80 f2 ed	 xor	 dl, -19			; ffffffedH
  0016a	80 78 15 00	 cmp	 BYTE PTR [eax+21], 0
  0016e	88 55 f4	 mov	 BYTE PTR __k$[ebp+20], dl
  00171	0f 84 c3 00 00
	00		 je	 $LN1@LoadInt_e@5
  00177	8a 50 16	 mov	 dl, BYTE PTR [eax+22]
  0017a	84 d2		 test	 dl, dl
  0017c	74 43		 je	 SHORT $LN74@LoadInt_e@5
  0017e	32 d1		 xor	 dl, cl
  00180	88 55 f6	 mov	 BYTE PTR __k$[ebp+22], dl
  00183	8a 50 17	 mov	 dl, BYTE PTR [eax+23]
  00186	84 d2		 test	 dl, dl
  00188	74 32		 je	 SHORT $LN73@LoadInt_e@5
  0018a	32 d3		 xor	 dl, bl
  0018c	88 55 f7	 mov	 BYTE PTR __k$[ebp+23], dl
  0018f	8a 50 18	 mov	 dl, BYTE PTR [eax+24]
  00192	84 d2		 test	 dl, dl
  00194	74 20		 je	 SHORT $LN72@LoadInt_e@5
  00196	8a 40 19	 mov	 al, BYTE PTR [eax+25]
  00199	80 f2 ed	 xor	 dl, -19			; ffffffedH
  0019c	88 55 f8	 mov	 BYTE PTR __k$[ebp+24], dl
  0019f	84 c0		 test	 al, al
  001a1	74 0a		 je	 SHORT $LN71@LoadInt_e@5
  001a3	34 ec		 xor	 al, -20			; ffffffecH
  001a5	88 45 f9	 mov	 BYTE PTR __k$[ebp+25], al
  001a8	e9 8d 00 00 00	 jmp	 $LN1@LoadInt_e@5
$LN71@LoadInt_e@5:
  001ad	c6 45 f9 ec	 mov	 BYTE PTR __k$[ebp+25], -20 ; ffffffecH
  001b1	e9 84 00 00 00	 jmp	 $LN1@LoadInt_e@5
$LN72@LoadInt_e@5:
  001b6	c6 45 f8 ed	 mov	 BYTE PTR __k$[ebp+24], -19 ; ffffffedH
  001ba	eb 7e		 jmp	 SHORT $LN1@LoadInt_e@5
$LN73@LoadInt_e@5:
  001bc	88 5d f7	 mov	 BYTE PTR __k$[ebp+23], bl
  001bf	eb 79		 jmp	 SHORT $LN1@LoadInt_e@5
$LN74@LoadInt_e@5:
  001c1	88 4d f6	 mov	 BYTE PTR __k$[ebp+22], cl
  001c4	eb 74		 jmp	 SHORT $LN1@LoadInt_e@5
$LN76@LoadInt_e@5:
  001c6	c6 45 f4 ed	 mov	 BYTE PTR __k$[ebp+20], -19 ; ffffffedH
  001ca	eb 6e		 jmp	 SHORT $LN1@LoadInt_e@5
$LN77@LoadInt_e@5:
  001cc	88 5d f3	 mov	 BYTE PTR __k$[ebp+19], bl
  001cf	eb 69		 jmp	 SHORT $LN1@LoadInt_e@5
$LN78@LoadInt_e@5:
  001d1	88 4d f2	 mov	 BYTE PTR __k$[ebp+18], cl
  001d4	eb 64		 jmp	 SHORT $LN1@LoadInt_e@5
$LN79@LoadInt_e@5:
  001d6	c6 45 f1 ec	 mov	 BYTE PTR __k$[ebp+17], -20 ; ffffffecH
  001da	eb 5e		 jmp	 SHORT $LN1@LoadInt_e@5
$LN80@LoadInt_e@5:
  001dc	c6 45 f0 ed	 mov	 BYTE PTR __k$[ebp+16], -19 ; ffffffedH
  001e0	eb 58		 jmp	 SHORT $LN1@LoadInt_e@5
$LN81@LoadInt_e@5:
  001e2	88 5d ef	 mov	 BYTE PTR __k$[ebp+15], bl
  001e5	eb 53		 jmp	 SHORT $LN1@LoadInt_e@5
$LN82@LoadInt_e@5:
  001e7	88 4d ee	 mov	 BYTE PTR __k$[ebp+14], cl
  001ea	eb 4e		 jmp	 SHORT $LN1@LoadInt_e@5
$LN83@LoadInt_e@5:
  001ec	c6 45 ed ec	 mov	 BYTE PTR __k$[ebp+13], -20 ; ffffffecH
  001f0	eb 48		 jmp	 SHORT $LN1@LoadInt_e@5
$LN84@LoadInt_e@5:
  001f2	c6 45 ec ed	 mov	 BYTE PTR __k$[ebp+12], -19 ; ffffffedH
  001f6	eb 42		 jmp	 SHORT $LN1@LoadInt_e@5
$LN85@LoadInt_e@5:
  001f8	88 5d eb	 mov	 BYTE PTR __k$[ebp+11], bl
  001fb	eb 3d		 jmp	 SHORT $LN1@LoadInt_e@5
$LN86@LoadInt_e@5:
  001fd	88 4d ea	 mov	 BYTE PTR __k$[ebp+10], cl
  00200	eb 38		 jmp	 SHORT $LN1@LoadInt_e@5
$LN87@LoadInt_e@5:
  00202	c6 45 e9 ec	 mov	 BYTE PTR __k$[ebp+9], -20 ; ffffffecH
  00206	eb 32		 jmp	 SHORT $LN1@LoadInt_e@5
$LN88@LoadInt_e@5:
  00208	c6 45 e8 ed	 mov	 BYTE PTR __k$[ebp+8], -19 ; ffffffedH
  0020c	eb 2c		 jmp	 SHORT $LN1@LoadInt_e@5
$LN89@LoadInt_e@5:
  0020e	88 5d e7	 mov	 BYTE PTR __k$[ebp+7], bl
  00211	eb 27		 jmp	 SHORT $LN1@LoadInt_e@5
$LN90@LoadInt_e@5:
  00213	88 4d e6	 mov	 BYTE PTR __k$[ebp+6], cl
  00216	eb 22		 jmp	 SHORT $LN1@LoadInt_e@5
$LN91@LoadInt_e@5:
  00218	c6 45 e5 ec	 mov	 BYTE PTR __k$[ebp+5], -20 ; ffffffecH
  0021c	eb 1c		 jmp	 SHORT $LN1@LoadInt_e@5
$LN92@LoadInt_e@5:
  0021e	c6 45 e4 ed	 mov	 BYTE PTR __k$[ebp+4], -19 ; ffffffedH
  00222	eb 16		 jmp	 SHORT $LN1@LoadInt_e@5
$LN93@LoadInt_e@5:
  00224	c6 45 e3 ea	 mov	 BYTE PTR __k$[ebp+3], -22 ; ffffffeaH
  00228	eb 10		 jmp	 SHORT $LN1@LoadInt_e@5
$LN94@LoadInt_e@5:
  0022a	c6 45 e2 eb	 mov	 BYTE PTR __k$[ebp+2], -21 ; ffffffebH
  0022e	eb 0a		 jmp	 SHORT $LN1@LoadInt_e@5
$LN95@LoadInt_e@5:
  00230	c6 45 e1 ec	 mov	 BYTE PTR __k$[ebp+1], -20 ; ffffffecH
  00234	eb 04		 jmp	 SHORT $LN1@LoadInt_e@5
$LN96@LoadInt_e@5:
  00236	c6 45 e0 ed	 mov	 BYTE PTR __k$[ebp], -19	; ffffffedH
$LN1@LoadInt_e@5:
  0023a	6a 05		 push	 5
  0023c	8d 45 e0	 lea	 eax, DWORD PTR __k$[ebp]
  0023f	c6 45 f5 00	 mov	 BYTE PTR __k$[ebp+21], 0
  00243	5a		 pop	 edx
$LL104@LoadInt_e@5:
  00244	81 30 ed ec eb
	ea		 xor	 DWORD PTR [eax], -353637139 ; eaebecedH
  0024a	83 c0 04	 add	 eax, 4
  0024d	4a		 dec	 edx
  0024e	75 f4		 jne	 SHORT $LL104@LoadInt_e@5

; 120  : 		return LoadInt(_k, i);

  00250	ff 75 0c	 push	 DWORD PTR _i$[ebp]
  00253	80 75 f4 ed	 xor	 BYTE PTR __k$[ebp+20], -19 ; ffffffedH
  00257	8d 45 e0	 lea	 eax, DWORD PTR __k$[ebp]
  0025a	50		 push	 eax
  0025b	8b ce		 mov	 ecx, esi
  0025d	ff 15 00 00 00
	00		 call	 DWORD PTR __imp_?LoadInt@ioINILoader@@QAEHPBDH@Z

; 121  : 	}

  00263	8b 4d fc	 mov	 ecx, DWORD PTR __$ArrayPad$[ebp]
  00266	5e		 pop	 esi
  00267	33 cd		 xor	 ecx, ebp
  00269	5b		 pop	 ebx
  0026a	e8 00 00 00 00	 call	 @__security_check_cookie@4
  0026f	c9		 leave
  00270	c2 08 00	 ret	 8
??$LoadInt_e@$0BG@@ioINILoader@@QAEHAAY0BG@$$CBDH@Z ENDP ; ioINILoader::LoadInt_e<22>
_TEXT	ENDS
PUBLIC	__$ArrayPad$
PUBLIC	??$LoadInt_e@$0BH@@ioINILoader@@QAEHAAY0BH@$$CBDH@Z ; ioINILoader::LoadInt_e<23>
; Function compile flags: /Ogsp
;	COMDAT ??$LoadInt_e@$0BH@@ioINILoader@@QAEHAAY0BH@$$CBDH@Z
_TEXT	SEGMENT
__k$ = -32						; size = 23
__$ArrayPad$ = -4					; size = 4
_k$ = 8							; size = 4
_i$ = 12						; size = 4
??$LoadInt_e@$0BH@@ioINILoader@@QAEHAAY0BH@$$CBDH@Z PROC ; ioINILoader::LoadInt_e<23>, COMDAT
; _this$ = ecx

; 118  : 	{

  00000	55		 push	 ebp
  00001	8b ec		 mov	 ebp, esp
  00003	83 ec 20	 sub	 esp, 32			; 00000020H
  00006	a1 00 00 00 00	 mov	 eax, DWORD PTR ___security_cookie
  0000b	33 c5		 xor	 eax, ebp
  0000d	89 45 fc	 mov	 DWORD PTR __$ArrayPad$[ebp], eax
  00010	8b 45 08	 mov	 eax, DWORD PTR _k$[ebp]

; 119  : 		_ENCSTR(k, _k);

  00013	8a 10		 mov	 dl, BYTE PTR [eax]
  00015	53		 push	 ebx
  00016	56		 push	 esi
  00017	8b f1		 mov	 esi, ecx
  00019	84 d2		 test	 dl, dl
  0001b	0f 84 2d 02 00
	00		 je	 $LN96@LoadInt_e@6
  00021	80 f2 ed	 xor	 dl, -19			; ffffffedH
  00024	88 55 e0	 mov	 BYTE PTR __k$[ebp], dl
  00027	8a 50 01	 mov	 dl, BYTE PTR [eax+1]
  0002a	84 d2		 test	 dl, dl
  0002c	0f 84 16 02 00
	00		 je	 $LN95@LoadInt_e@6
  00032	b1 ec		 mov	 cl, -20			; ffffffecH
  00034	32 d1		 xor	 dl, cl
  00036	88 55 e1	 mov	 BYTE PTR __k$[ebp+1], dl
  00039	8a 50 02	 mov	 dl, BYTE PTR [eax+2]
  0003c	84 d2		 test	 dl, dl
  0003e	0f 84 fe 01 00
	00		 je	 $LN94@LoadInt_e@6
  00044	80 f2 eb	 xor	 dl, -21			; ffffffebH
  00047	88 55 e2	 mov	 BYTE PTR __k$[ebp+2], dl
  0004a	8a 50 03	 mov	 dl, BYTE PTR [eax+3]
  0004d	84 d2		 test	 dl, dl
  0004f	0f 84 e7 01 00
	00		 je	 $LN93@LoadInt_e@6
  00055	b3 ea		 mov	 bl, -22			; ffffffeaH
  00057	32 d3		 xor	 dl, bl
  00059	88 55 e3	 mov	 BYTE PTR __k$[ebp+3], dl
  0005c	8a 50 04	 mov	 dl, BYTE PTR [eax+4]
  0005f	84 d2		 test	 dl, dl
  00061	0f 84 cf 01 00
	00		 je	 $LN92@LoadInt_e@6
  00067	80 f2 ed	 xor	 dl, -19			; ffffffedH
  0006a	88 55 e4	 mov	 BYTE PTR __k$[ebp+4], dl
  0006d	8a 50 05	 mov	 dl, BYTE PTR [eax+5]
  00070	84 d2		 test	 dl, dl
  00072	0f 84 b9 01 00
	00		 je	 $LN91@LoadInt_e@6
  00078	32 d1		 xor	 dl, cl
  0007a	88 55 e5	 mov	 BYTE PTR __k$[ebp+5], dl
  0007d	8a 50 06	 mov	 dl, BYTE PTR [eax+6]
  00080	84 d2		 test	 dl, dl
  00082	0f 84 a3 01 00
	00		 je	 $LN90@LoadInt_e@6
  00088	80 f2 eb	 xor	 dl, -21			; ffffffebH
  0008b	88 55 e6	 mov	 BYTE PTR __k$[ebp+6], dl
  0008e	8a 50 07	 mov	 dl, BYTE PTR [eax+7]
  00091	84 d2		 test	 dl, dl
  00093	0f 84 8d 01 00
	00		 je	 $LN89@LoadInt_e@6
  00099	32 d3		 xor	 dl, bl
  0009b	88 55 e7	 mov	 BYTE PTR __k$[ebp+7], dl
  0009e	8a 50 08	 mov	 dl, BYTE PTR [eax+8]
  000a1	84 d2		 test	 dl, dl
  000a3	0f 84 77 01 00
	00		 je	 $LN88@LoadInt_e@6
  000a9	80 f2 ed	 xor	 dl, -19			; ffffffedH
  000ac	88 55 e8	 mov	 BYTE PTR __k$[ebp+8], dl
  000af	8a 50 09	 mov	 dl, BYTE PTR [eax+9]
  000b2	84 d2		 test	 dl, dl
  000b4	0f 84 61 01 00
	00		 je	 $LN87@LoadInt_e@6
  000ba	32 d1		 xor	 dl, cl
  000bc	88 55 e9	 mov	 BYTE PTR __k$[ebp+9], dl
  000bf	8a 50 0a	 mov	 dl, BYTE PTR [eax+10]
  000c2	84 d2		 test	 dl, dl
  000c4	0f 84 4b 01 00
	00		 je	 $LN86@LoadInt_e@6
  000ca	80 f2 eb	 xor	 dl, -21			; ffffffebH
  000cd	88 55 ea	 mov	 BYTE PTR __k$[ebp+10], dl
  000d0	8a 50 0b	 mov	 dl, BYTE PTR [eax+11]
  000d3	84 d2		 test	 dl, dl
  000d5	0f 84 35 01 00
	00		 je	 $LN85@LoadInt_e@6
  000db	32 d3		 xor	 dl, bl
  000dd	88 55 eb	 mov	 BYTE PTR __k$[ebp+11], dl
  000e0	8a 50 0c	 mov	 dl, BYTE PTR [eax+12]
  000e3	84 d2		 test	 dl, dl
  000e5	0f 84 1f 01 00
	00		 je	 $LN84@LoadInt_e@6
  000eb	80 f2 ed	 xor	 dl, -19			; ffffffedH
  000ee	88 55 ec	 mov	 BYTE PTR __k$[ebp+12], dl
  000f1	8a 50 0d	 mov	 dl, BYTE PTR [eax+13]
  000f4	84 d2		 test	 dl, dl
  000f6	0f 84 09 01 00
	00		 je	 $LN83@LoadInt_e@6
  000fc	32 d1		 xor	 dl, cl
  000fe	88 55 ed	 mov	 BYTE PTR __k$[ebp+13], dl
  00101	8a 50 0e	 mov	 dl, BYTE PTR [eax+14]
  00104	84 d2		 test	 dl, dl
  00106	0f 84 f3 00 00
	00		 je	 $LN82@LoadInt_e@6
  0010c	80 f2 eb	 xor	 dl, -21			; ffffffebH
  0010f	88 55 ee	 mov	 BYTE PTR __k$[ebp+14], dl
  00112	8a 50 0f	 mov	 dl, BYTE PTR [eax+15]
  00115	84 d2		 test	 dl, dl
  00117	0f 84 dd 00 00
	00		 je	 $LN81@LoadInt_e@6
  0011d	32 d3		 xor	 dl, bl
  0011f	88 55 ef	 mov	 BYTE PTR __k$[ebp+15], dl
  00122	8a 50 10	 mov	 dl, BYTE PTR [eax+16]
  00125	84 d2		 test	 dl, dl
  00127	0f 84 c7 00 00
	00		 je	 $LN80@LoadInt_e@6
  0012d	80 f2 ed	 xor	 dl, -19			; ffffffedH
  00130	88 55 f0	 mov	 BYTE PTR __k$[ebp+16], dl
  00133	8a 50 11	 mov	 dl, BYTE PTR [eax+17]
  00136	84 d2		 test	 dl, dl
  00138	0f 84 b1 00 00
	00		 je	 $LN79@LoadInt_e@6
  0013e	32 d1		 xor	 dl, cl
  00140	88 55 f1	 mov	 BYTE PTR __k$[ebp+17], dl
  00143	8a 50 12	 mov	 dl, BYTE PTR [eax+18]
  00146	84 d2		 test	 dl, dl
  00148	0f 84 9b 00 00
	00		 je	 $LN78@LoadInt_e@6
  0014e	80 f2 eb	 xor	 dl, -21			; ffffffebH
  00151	88 55 f2	 mov	 BYTE PTR __k$[ebp+18], dl
  00154	8a 50 13	 mov	 dl, BYTE PTR [eax+19]
  00157	84 d2		 test	 dl, dl
  00159	0f 84 85 00 00
	00		 je	 $LN77@LoadInt_e@6
  0015f	32 d3		 xor	 dl, bl
  00161	88 55 f3	 mov	 BYTE PTR __k$[ebp+19], dl
  00164	8a 50 14	 mov	 dl, BYTE PTR [eax+20]
  00167	84 d2		 test	 dl, dl
  00169	74 73		 je	 SHORT $LN76@LoadInt_e@6
  0016b	80 f2 ed	 xor	 dl, -19			; ffffffedH
  0016e	88 55 f4	 mov	 BYTE PTR __k$[ebp+20], dl
  00171	8a 50 15	 mov	 dl, BYTE PTR [eax+21]
  00174	84 d2		 test	 dl, dl
  00176	74 61		 je	 SHORT $LN75@LoadInt_e@6
  00178	32 d1		 xor	 dl, cl
  0017a	80 78 16 00	 cmp	 BYTE PTR [eax+22], 0
  0017e	88 55 f5	 mov	 BYTE PTR __k$[ebp+21], dl
  00181	0f 84 cb 00 00
	00		 je	 $LN1@LoadInt_e@6
  00187	8a 50 17	 mov	 dl, BYTE PTR [eax+23]
  0018a	84 d2		 test	 dl, dl
  0018c	74 46		 je	 SHORT $LN73@LoadInt_e@6
  0018e	32 d3		 xor	 dl, bl
  00190	88 55 f7	 mov	 BYTE PTR __k$[ebp+23], dl
  00193	8a 50 18	 mov	 dl, BYTE PTR [eax+24]
  00196	84 d2		 test	 dl, dl
  00198	74 34		 je	 SHORT $LN72@LoadInt_e@6
  0019a	80 f2 ed	 xor	 dl, -19			; ffffffedH
  0019d	88 55 f8	 mov	 BYTE PTR __k$[ebp+24], dl
  001a0	8a 50 19	 mov	 dl, BYTE PTR [eax+25]
  001a3	84 d2		 test	 dl, dl
  001a5	74 1f		 je	 SHORT $LN71@LoadInt_e@6
  001a7	8a 40 1a	 mov	 al, BYTE PTR [eax+26]
  001aa	32 d1		 xor	 dl, cl
  001ac	88 55 f9	 mov	 BYTE PTR __k$[ebp+25], dl
  001af	84 c0		 test	 al, al
  001b1	74 0a		 je	 SHORT $LN70@LoadInt_e@6
  001b3	34 eb		 xor	 al, -21			; ffffffebH
  001b5	88 45 fa	 mov	 BYTE PTR __k$[ebp+26], al
  001b8	e9 95 00 00 00	 jmp	 $LN1@LoadInt_e@6
$LN70@LoadInt_e@6:
  001bd	c6 45 fa eb	 mov	 BYTE PTR __k$[ebp+26], -21 ; ffffffebH
  001c1	e9 8c 00 00 00	 jmp	 $LN1@LoadInt_e@6
$LN71@LoadInt_e@6:
  001c6	88 4d f9	 mov	 BYTE PTR __k$[ebp+25], cl
  001c9	e9 84 00 00 00	 jmp	 $LN1@LoadInt_e@6
$LN72@LoadInt_e@6:
  001ce	c6 45 f8 ed	 mov	 BYTE PTR __k$[ebp+24], -19 ; ffffffedH
  001d2	eb 7e		 jmp	 SHORT $LN1@LoadInt_e@6
$LN73@LoadInt_e@6:
  001d4	88 5d f7	 mov	 BYTE PTR __k$[ebp+23], bl
  001d7	eb 79		 jmp	 SHORT $LN1@LoadInt_e@6
$LN75@LoadInt_e@6:
  001d9	88 4d f5	 mov	 BYTE PTR __k$[ebp+21], cl
  001dc	eb 74		 jmp	 SHORT $LN1@LoadInt_e@6
$LN76@LoadInt_e@6:
  001de	c6 45 f4 ed	 mov	 BYTE PTR __k$[ebp+20], -19 ; ffffffedH
  001e2	eb 6e		 jmp	 SHORT $LN1@LoadInt_e@6
$LN77@LoadInt_e@6:
  001e4	88 5d f3	 mov	 BYTE PTR __k$[ebp+19], bl
  001e7	eb 69		 jmp	 SHORT $LN1@LoadInt_e@6
$LN78@LoadInt_e@6:
  001e9	c6 45 f2 eb	 mov	 BYTE PTR __k$[ebp+18], -21 ; ffffffebH
  001ed	eb 63		 jmp	 SHORT $LN1@LoadInt_e@6
$LN79@LoadInt_e@6:
  001ef	88 4d f1	 mov	 BYTE PTR __k$[ebp+17], cl
  001f2	eb 5e		 jmp	 SHORT $LN1@LoadInt_e@6
$LN80@LoadInt_e@6:
  001f4	c6 45 f0 ed	 mov	 BYTE PTR __k$[ebp+16], -19 ; ffffffedH
  001f8	eb 58		 jmp	 SHORT $LN1@LoadInt_e@6
$LN81@LoadInt_e@6:
  001fa	88 5d ef	 mov	 BYTE PTR __k$[ebp+15], bl
  001fd	eb 53		 jmp	 SHORT $LN1@LoadInt_e@6
$LN82@LoadInt_e@6:
  001ff	c6 45 ee eb	 mov	 BYTE PTR __k$[ebp+14], -21 ; ffffffebH
  00203	eb 4d		 jmp	 SHORT $LN1@LoadInt_e@6
$LN83@LoadInt_e@6:
  00205	88 4d ed	 mov	 BYTE PTR __k$[ebp+13], cl
  00208	eb 48		 jmp	 SHORT $LN1@LoadInt_e@6
$LN84@LoadInt_e@6:
  0020a	c6 45 ec ed	 mov	 BYTE PTR __k$[ebp+12], -19 ; ffffffedH
  0020e	eb 42		 jmp	 SHORT $LN1@LoadInt_e@6
$LN85@LoadInt_e@6:
  00210	88 5d eb	 mov	 BYTE PTR __k$[ebp+11], bl
  00213	eb 3d		 jmp	 SHORT $LN1@LoadInt_e@6
$LN86@LoadInt_e@6:
  00215	c6 45 ea eb	 mov	 BYTE PTR __k$[ebp+10], -21 ; ffffffebH
  00219	eb 37		 jmp	 SHORT $LN1@LoadInt_e@6
$LN87@LoadInt_e@6:
  0021b	88 4d e9	 mov	 BYTE PTR __k$[ebp+9], cl
  0021e	eb 32		 jmp	 SHORT $LN1@LoadInt_e@6
$LN88@LoadInt_e@6:
  00220	c6 45 e8 ed	 mov	 BYTE PTR __k$[ebp+8], -19 ; ffffffedH
  00224	eb 2c		 jmp	 SHORT $LN1@LoadInt_e@6
$LN89@LoadInt_e@6:
  00226	88 5d e7	 mov	 BYTE PTR __k$[ebp+7], bl
  00229	eb 27		 jmp	 SHORT $LN1@LoadInt_e@6
$LN90@LoadInt_e@6:
  0022b	c6 45 e6 eb	 mov	 BYTE PTR __k$[ebp+6], -21 ; ffffffebH
  0022f	eb 21		 jmp	 SHORT $LN1@LoadInt_e@6
$LN91@LoadInt_e@6:
  00231	88 4d e5	 mov	 BYTE PTR __k$[ebp+5], cl
  00234	eb 1c		 jmp	 SHORT $LN1@LoadInt_e@6
$LN92@LoadInt_e@6:
  00236	c6 45 e4 ed	 mov	 BYTE PTR __k$[ebp+4], -19 ; ffffffedH
  0023a	eb 16		 jmp	 SHORT $LN1@LoadInt_e@6
$LN93@LoadInt_e@6:
  0023c	c6 45 e3 ea	 mov	 BYTE PTR __k$[ebp+3], -22 ; ffffffeaH
  00240	eb 10		 jmp	 SHORT $LN1@LoadInt_e@6
$LN94@LoadInt_e@6:
  00242	c6 45 e2 eb	 mov	 BYTE PTR __k$[ebp+2], -21 ; ffffffebH
  00246	eb 0a		 jmp	 SHORT $LN1@LoadInt_e@6
$LN95@LoadInt_e@6:
  00248	c6 45 e1 ec	 mov	 BYTE PTR __k$[ebp+1], -20 ; ffffffecH
  0024c	eb 04		 jmp	 SHORT $LN1@LoadInt_e@6
$LN96@LoadInt_e@6:
  0024e	c6 45 e0 ed	 mov	 BYTE PTR __k$[ebp], -19	; ffffffedH
$LN1@LoadInt_e@6:
  00252	6a 05		 push	 5
  00254	8d 45 e0	 lea	 eax, DWORD PTR __k$[ebp]
  00257	c6 45 f6 00	 mov	 BYTE PTR __k$[ebp+22], 0
  0025b	5a		 pop	 edx
$LL104@LoadInt_e@6:
  0025c	81 30 ed ec eb
	ea		 xor	 DWORD PTR [eax], -353637139 ; eaebecedH
  00262	83 c0 04	 add	 eax, 4
  00265	4a		 dec	 edx
  00266	75 f4		 jne	 SHORT $LL104@LoadInt_e@6
  00268	6a 14		 push	 20			; 00000014H
  0026a	58		 pop	 eax
$LL101@LoadInt_e@6:
  0026b	8b c8		 mov	 ecx, eax
  0026d	81 e1 03 00 00
	80		 and	 ecx, -2147483645	; 80000003H
  00273	79 05		 jns	 SHORT $LN111@LoadInt_e@6
  00275	49		 dec	 ecx
  00276	83 c9 fc	 or	 ecx, -4			; fffffffcH
  00279	41		 inc	 ecx
$LN111@LoadInt_e@6:
  0027a	b2 ed		 mov	 dl, -19			; ffffffedH
  0027c	2a d1		 sub	 dl, cl
  0027e	30 54 05 e0	 xor	 BYTE PTR __k$[ebp+eax], dl
  00282	40		 inc	 eax
  00283	83 f8 16	 cmp	 eax, 22			; 00000016H
  00286	7c e3		 jl	 SHORT $LL101@LoadInt_e@6

; 120  : 		return LoadInt(_k, i);

  00288	ff 75 0c	 push	 DWORD PTR _i$[ebp]
  0028b	8d 45 e0	 lea	 eax, DWORD PTR __k$[ebp]
  0028e	50		 push	 eax
  0028f	8b ce		 mov	 ecx, esi
  00291	ff 15 00 00 00
	00		 call	 DWORD PTR __imp_?LoadInt@ioINILoader@@QAEHPBDH@Z

; 121  : 	}

  00297	8b 4d fc	 mov	 ecx, DWORD PTR __$ArrayPad$[ebp]
  0029a	5e		 pop	 esi
  0029b	33 cd		 xor	 ecx, ebp
  0029d	5b		 pop	 ebx
  0029e	e8 00 00 00 00	 call	 @__security_check_cookie@4
  002a3	c9		 leave
  002a4	c2 08 00	 ret	 8
??$LoadInt_e@$0BH@@ioINILoader@@QAEHAAY0BH@$$CBDH@Z ENDP ; ioINILoader::LoadInt_e<23>
_TEXT	ENDS
PUBLIC	??$GetAnimationEventTime_e@$0N@@ioEntityGroup@@QAEMHAAY0N@$$CBD@Z ; ioEntityGroup::GetAnimationEventTime_e<13>
EXTRN	__imp_?GetAnimationEventTime@ioEntityGroup@@QAEMHABVioHashString@@@Z:PROC
EXTRN	__imp_??0ioHashString@@QAE@PBD@Z:PROC
EXTRN	__EH_epilog3_GS:PROC
EXTRN	__EH_prolog3_GS:PROC
;	COMDAT xdata$x
; File d:\lost saga for developer\youtube\tutorial\source\src\lsclient\stringprotect.h
xdata$x	SEGMENT
__unwindtable$??$GetAnimationEventTime_e@$0N@@ioEntityGroup@@QAEMHAAY0N@$$CBD@Z DD 0ffffffffH
	DD	FLAT:__unwindfunclet$??$GetAnimationEventTime_e@$0N@@ioEntityGroup@@QAEMHAAY0N@$$CBD@Z$0
__ehfuncinfo$??$GetAnimationEventTime_e@$0N@@ioEntityGroup@@QAEMHAAY0N@$$CBD@Z DD 019930522H
	DD	01H
	DD	FLAT:__unwindtable$??$GetAnimationEventTime_e@$0N@@ioEntityGroup@@QAEMHAAY0N@$$CBD@Z
	DD	2 DUP(00H)
	DD	2 DUP(00H)
	DD	00H
	DD	01H
; Function compile flags: /Ogsp
; File d:\lost saga for developer\youtube\tutorial\source\src\io3dengine\ioentitygroup.h
xdata$x	ENDS
;	COMDAT ??$GetAnimationEventTime_e@$0N@@ioEntityGroup@@QAEMHAAY0N@$$CBD@Z
_TEXT	SEGMENT
$T556778 = -56						; size = 16
$T556777 = -40						; size = 4
_szEncEventType$ = -36					; size = 13
__$EHRec$ = -12						; size = 12
_id$ = 8						; size = 4
_szEventType$ = 12					; size = 4
??$GetAnimationEventTime_e@$0N@@ioEntityGroup@@QAEMHAAY0N@$$CBD@Z PROC ; ioEntityGroup::GetAnimationEventTime_e<13>, COMDAT
; _this$ = ecx

; 414  : 	{

  00000	6a 2c		 push	 44			; 0000002cH
  00002	b8 00 00 00 00	 mov	 eax, __ehhandler$??$GetAnimationEventTime_e@$0N@@ioEntityGroup@@QAEMHAAY0N@$$CBD@Z
  00007	e8 00 00 00 00	 call	 __EH_prolog3_GS
  0000c	8b 45 0c	 mov	 eax, DWORD PTR _szEventType$[ebp]
  0000f	8b f1		 mov	 esi, ecx

; 415  : 		_ENCSTR(szEventType, szEncEventType);

  00011	8a 08		 mov	 cl, BYTE PTR [eax]
  00013	84 c9		 test	 cl, cl
  00015	0f 84 49 01 00
	00		 je	 $LN96@GetAnimati
  0001b	80 f1 ed	 xor	 cl, -19			; ffffffedH
  0001e	88 4d dc	 mov	 BYTE PTR _szEncEventType$[ebp], cl
  00021	8a 48 01	 mov	 cl, BYTE PTR [eax+1]
  00024	84 c9		 test	 cl, cl
  00026	0f 84 32 01 00
	00		 je	 $LN95@GetAnimati
  0002c	80 f1 ec	 xor	 cl, -20			; ffffffecH
  0002f	88 4d dd	 mov	 BYTE PTR _szEncEventType$[ebp+1], cl
  00032	8a 48 02	 mov	 cl, BYTE PTR [eax+2]
  00035	84 c9		 test	 cl, cl
  00037	0f 84 1b 01 00
	00		 je	 $LN94@GetAnimati
  0003d	b2 eb		 mov	 dl, -21			; ffffffebH
  0003f	32 ca		 xor	 cl, dl
  00041	88 4d de	 mov	 BYTE PTR _szEncEventType$[ebp+2], cl
  00044	8a 48 03	 mov	 cl, BYTE PTR [eax+3]
  00047	84 c9		 test	 cl, cl
  00049	0f 84 03 01 00
	00		 je	 $LN93@GetAnimati
  0004f	80 f1 ea	 xor	 cl, -22			; ffffffeaH
  00052	88 4d df	 mov	 BYTE PTR _szEncEventType$[ebp+3], cl
  00055	8a 48 04	 mov	 cl, BYTE PTR [eax+4]
  00058	84 c9		 test	 cl, cl
  0005a	0f 84 ec 00 00
	00		 je	 $LN92@GetAnimati
  00060	80 f1 ed	 xor	 cl, -19			; ffffffedH
  00063	88 4d e0	 mov	 BYTE PTR _szEncEventType$[ebp+4], cl
  00066	8a 48 05	 mov	 cl, BYTE PTR [eax+5]
  00069	84 c9		 test	 cl, cl
  0006b	0f 84 d5 00 00
	00		 je	 $LN91@GetAnimati
  00071	80 f1 ec	 xor	 cl, -20			; ffffffecH
  00074	88 4d e1	 mov	 BYTE PTR _szEncEventType$[ebp+5], cl
  00077	8a 48 06	 mov	 cl, BYTE PTR [eax+6]
  0007a	84 c9		 test	 cl, cl
  0007c	0f 84 bf 00 00
	00		 je	 $LN90@GetAnimati
  00082	32 ca		 xor	 cl, dl
  00084	88 4d e2	 mov	 BYTE PTR _szEncEventType$[ebp+6], cl
  00087	8a 48 07	 mov	 cl, BYTE PTR [eax+7]
  0008a	84 c9		 test	 cl, cl
  0008c	0f 84 a9 00 00
	00		 je	 $LN89@GetAnimati
  00092	80 f1 ea	 xor	 cl, -22			; ffffffeaH
  00095	88 4d e3	 mov	 BYTE PTR _szEncEventType$[ebp+7], cl
  00098	8a 48 08	 mov	 cl, BYTE PTR [eax+8]
  0009b	84 c9		 test	 cl, cl
  0009d	0f 84 92 00 00
	00		 je	 $LN88@GetAnimati
  000a3	80 f1 ed	 xor	 cl, -19			; ffffffedH
  000a6	88 4d e4	 mov	 BYTE PTR _szEncEventType$[ebp+8], cl
  000a9	8a 48 09	 mov	 cl, BYTE PTR [eax+9]
  000ac	84 c9		 test	 cl, cl
  000ae	74 7f		 je	 SHORT $LN87@GetAnimati
  000b0	80 f1 ec	 xor	 cl, -20			; ffffffecH
  000b3	88 4d e5	 mov	 BYTE PTR _szEncEventType$[ebp+9], cl
  000b6	8a 48 0a	 mov	 cl, BYTE PTR [eax+10]
  000b9	84 c9		 test	 cl, cl
  000bb	74 6d		 je	 SHORT $LN86@GetAnimati
  000bd	32 ca		 xor	 cl, dl
  000bf	88 4d e6	 mov	 BYTE PTR _szEncEventType$[ebp+10], cl
  000c2	8a 48 0b	 mov	 cl, BYTE PTR [eax+11]
  000c5	84 c9		 test	 cl, cl
  000c7	74 5b		 je	 SHORT $LN85@GetAnimati
  000c9	80 f1 ea	 xor	 cl, -22			; ffffffeaH
  000cc	80 78 0c 00	 cmp	 BYTE PTR [eax+12], 0
  000d0	88 4d e7	 mov	 BYTE PTR _szEncEventType$[ebp+11], cl
  000d3	0f 84 8f 00 00
	00		 je	 $LN1@GetAnimati
  000d9	8a 48 0d	 mov	 cl, BYTE PTR [eax+13]
  000dc	84 c9		 test	 cl, cl
  000de	74 3e		 je	 SHORT $LN83@GetAnimati
  000e0	80 f1 ec	 xor	 cl, -20			; ffffffecH
  000e3	88 4d e9	 mov	 BYTE PTR _szEncEventType$[ebp+13], cl
  000e6	8a 48 0e	 mov	 cl, BYTE PTR [eax+14]
  000e9	84 c9		 test	 cl, cl
  000eb	74 2c		 je	 SHORT $LN82@GetAnimati
  000ed	32 ca		 xor	 cl, dl
  000ef	88 4d ea	 mov	 BYTE PTR _szEncEventType$[ebp+14], cl
  000f2	8a 48 0f	 mov	 cl, BYTE PTR [eax+15]
  000f5	84 c9		 test	 cl, cl
  000f7	74 1a		 je	 SHORT $LN81@GetAnimati
  000f9	8a 40 10	 mov	 al, BYTE PTR [eax+16]
  000fc	80 f1 ea	 xor	 cl, -22			; ffffffeaH
  000ff	88 4d eb	 mov	 BYTE PTR _szEncEventType$[ebp+15], cl
  00102	84 c0		 test	 al, al
  00104	74 07		 je	 SHORT $LN80@GetAnimati
  00106	34 ed		 xor	 al, -19			; ffffffedH
  00108	88 45 ec	 mov	 BYTE PTR _szEncEventType$[ebp+16], al
  0010b	eb 5b		 jmp	 SHORT $LN1@GetAnimati
$LN80@GetAnimati:
  0010d	c6 45 ec ed	 mov	 BYTE PTR _szEncEventType$[ebp+16], -19 ; ffffffedH
  00111	eb 55		 jmp	 SHORT $LN1@GetAnimati
$LN81@GetAnimati:
  00113	c6 45 eb ea	 mov	 BYTE PTR _szEncEventType$[ebp+15], -22 ; ffffffeaH
  00117	eb 4f		 jmp	 SHORT $LN1@GetAnimati
$LN82@GetAnimati:
  00119	88 55 ea	 mov	 BYTE PTR _szEncEventType$[ebp+14], dl
  0011c	eb 4a		 jmp	 SHORT $LN1@GetAnimati
$LN83@GetAnimati:
  0011e	c6 45 e9 ec	 mov	 BYTE PTR _szEncEventType$[ebp+13], -20 ; ffffffecH
  00122	eb 44		 jmp	 SHORT $LN1@GetAnimati
$LN85@GetAnimati:
  00124	c6 45 e7 ea	 mov	 BYTE PTR _szEncEventType$[ebp+11], -22 ; ffffffeaH
  00128	eb 3e		 jmp	 SHORT $LN1@GetAnimati
$LN86@GetAnimati:
  0012a	88 55 e6	 mov	 BYTE PTR _szEncEventType$[ebp+10], dl
  0012d	eb 39		 jmp	 SHORT $LN1@GetAnimati
$LN87@GetAnimati:
  0012f	c6 45 e5 ec	 mov	 BYTE PTR _szEncEventType$[ebp+9], -20 ; ffffffecH
  00133	eb 33		 jmp	 SHORT $LN1@GetAnimati
$LN88@GetAnimati:
  00135	c6 45 e4 ed	 mov	 BYTE PTR _szEncEventType$[ebp+8], -19 ; ffffffedH
  00139	eb 2d		 jmp	 SHORT $LN1@GetAnimati
$LN89@GetAnimati:
  0013b	c6 45 e3 ea	 mov	 BYTE PTR _szEncEventType$[ebp+7], -22 ; ffffffeaH
  0013f	eb 27		 jmp	 SHORT $LN1@GetAnimati
$LN90@GetAnimati:
  00141	88 55 e2	 mov	 BYTE PTR _szEncEventType$[ebp+6], dl
  00144	eb 22		 jmp	 SHORT $LN1@GetAnimati
$LN91@GetAnimati:
  00146	c6 45 e1 ec	 mov	 BYTE PTR _szEncEventType$[ebp+5], -20 ; ffffffecH
  0014a	eb 1c		 jmp	 SHORT $LN1@GetAnimati
$LN92@GetAnimati:
  0014c	c6 45 e0 ed	 mov	 BYTE PTR _szEncEventType$[ebp+4], -19 ; ffffffedH
  00150	eb 16		 jmp	 SHORT $LN1@GetAnimati
$LN93@GetAnimati:
  00152	c6 45 df ea	 mov	 BYTE PTR _szEncEventType$[ebp+3], -22 ; ffffffeaH
  00156	eb 10		 jmp	 SHORT $LN1@GetAnimati
$LN94@GetAnimati:
  00158	c6 45 de eb	 mov	 BYTE PTR _szEncEventType$[ebp+2], -21 ; ffffffebH
  0015c	eb 0a		 jmp	 SHORT $LN1@GetAnimati
$LN95@GetAnimati:
  0015e	c6 45 dd ec	 mov	 BYTE PTR _szEncEventType$[ebp+1], -20 ; ffffffecH
  00162	eb 04		 jmp	 SHORT $LN1@GetAnimati
$LN96@GetAnimati:
  00164	c6 45 dc ed	 mov	 BYTE PTR _szEncEventType$[ebp], -19 ; ffffffedH
$LN1@GetAnimati:
  00168	6a 03		 push	 3
  0016a	8d 45 dc	 lea	 eax, DWORD PTR _szEncEventType$[ebp]
  0016d	c6 45 e8 00	 mov	 BYTE PTR _szEncEventType$[ebp+12], 0
  00171	59		 pop	 ecx
$LL105@GetAnimati:
  00172	81 30 ed ec eb
	ea		 xor	 DWORD PTR [eax], -353637139 ; eaebecedH
  00178	83 c0 04	 add	 eax, 4
  0017b	49		 dec	 ecx
  0017c	75 f4		 jne	 SHORT $LL105@GetAnimati

; 416  : 		return GetAnimationEventTime(id, szEncEventType);

  0017e	8d 45 dc	 lea	 eax, DWORD PTR _szEncEventType$[ebp]
  00181	50		 push	 eax
  00182	8d 4d c8	 lea	 ecx, DWORD PTR $T556778[ebp]
  00185	ff 15 00 00 00
	00		 call	 DWORD PTR __imp_??0ioHashString@@QAE@PBD@Z
  0018b	83 65 fc 00	 and	 DWORD PTR __$EHRec$[ebp+8], 0
  0018f	8d 45 c8	 lea	 eax, DWORD PTR $T556778[ebp]
  00192	50		 push	 eax
  00193	ff 75 08	 push	 DWORD PTR _id$[ebp]
  00196	8b ce		 mov	 ecx, esi
  00198	ff 15 00 00 00
	00		 call	 DWORD PTR __imp_?GetAnimationEventTime@ioEntityGroup@@QAEMHABVioHashString@@@Z
  0019e	d9 5d d8	 fstp	 DWORD PTR $T556777[ebp]
  001a1	83 4d fc ff	 or	 DWORD PTR __$EHRec$[ebp+8], -1
  001a5	8d 4d c8	 lea	 ecx, DWORD PTR $T556778[ebp]
  001a8	ff 15 00 00 00
	00		 call	 DWORD PTR __imp_??1ioHashString@@QAE@XZ
  001ae	d9 45 d8	 fld	 DWORD PTR $T556777[ebp]

; 417  : 	}

  001b1	e8 00 00 00 00	 call	 __EH_epilog3_GS
  001b6	c2 08 00	 ret	 8
_TEXT	ENDS
;	COMDAT text$x
text$x	SEGMENT
__unwindfunclet$??$GetAnimationEventTime_e@$0N@@ioEntityGroup@@QAEMHAAY0N@$$CBD@Z$0:
  00000	8d 4d c8	 lea	 ecx, DWORD PTR $T556778[ebp]
  00003	ff 25 00 00 00
	00		 jmp	 DWORD PTR __imp_??1ioHashString@@QAE@XZ
__ehhandler$??$GetAnimationEventTime_e@$0N@@ioEntityGroup@@QAEMHAAY0N@$$CBD@Z:
  00009	8b 54 24 08	 mov	 edx, DWORD PTR [esp+8]
  0000d	8d 42 0c	 lea	 eax, DWORD PTR [edx+12]
  00010	8b 4a c4	 mov	 ecx, DWORD PTR [edx-60]
  00013	33 c8		 xor	 ecx, eax
  00015	e8 00 00 00 00	 call	 @__security_check_cookie@4
  0001a	8b 4a fc	 mov	 ecx, DWORD PTR [edx-4]
  0001d	33 c8		 xor	 ecx, eax
  0001f	e8 00 00 00 00	 call	 @__security_check_cookie@4
  00024	b8 00 00 00 00	 mov	 eax, OFFSET __ehfuncinfo$??$GetAnimationEventTime_e@$0N@@ioEntityGroup@@QAEMHAAY0N@$$CBD@Z
  00029	e9 00 00 00 00	 jmp	 ___CxxFrameHandler3
text$x	ENDS
??$GetAnimationEventTime_e@$0N@@ioEntityGroup@@QAEMHAAY0N@$$CBD@Z ENDP ; ioEntityGroup::GetAnimationEventTime_e<13>
PUBLIC	??$GetAnimationEventTime_e@$0M@@ioEntityGroup@@QAEMHAAY0M@$$CBD@Z ; ioEntityGroup::GetAnimationEventTime_e<12>
;	COMDAT xdata$x
; File d:\lost saga for developer\youtube\tutorial\source\src\lsclient\stringprotect.h
xdata$x	SEGMENT
__unwindtable$??$GetAnimationEventTime_e@$0M@@ioEntityGroup@@QAEMHAAY0M@$$CBD@Z DD 0ffffffffH
	DD	FLAT:__unwindfunclet$??$GetAnimationEventTime_e@$0M@@ioEntityGroup@@QAEMHAAY0M@$$CBD@Z$0
__ehfuncinfo$??$GetAnimationEventTime_e@$0M@@ioEntityGroup@@QAEMHAAY0M@$$CBD@Z DD 019930522H
	DD	01H
	DD	FLAT:__unwindtable$??$GetAnimationEventTime_e@$0M@@ioEntityGroup@@QAEMHAAY0M@$$CBD@Z
	DD	2 DUP(00H)
	DD	2 DUP(00H)
	DD	00H
	DD	01H
; Function compile flags: /Ogsp
; File d:\lost saga for developer\youtube\tutorial\source\src\io3dengine\ioentitygroup.h
xdata$x	ENDS
;	COMDAT ??$GetAnimationEventTime_e@$0M@@ioEntityGroup@@QAEMHAAY0M@$$CBD@Z
_TEXT	SEGMENT
$T556810 = -52						; size = 16
$T556809 = -36						; size = 4
_szEncEventType$ = -32					; size = 12
__$EHRec$ = -12						; size = 12
_id$ = 8						; size = 4
_szEventType$ = 12					; size = 4
??$GetAnimationEventTime_e@$0M@@ioEntityGroup@@QAEMHAAY0M@$$CBD@Z PROC ; ioEntityGroup::GetAnimationEventTime_e<12>, COMDAT
; _this$ = ecx

; 414  : 	{

  00000	6a 28		 push	 40			; 00000028H
  00002	b8 00 00 00 00	 mov	 eax, __ehhandler$??$GetAnimationEventTime_e@$0M@@ioEntityGroup@@QAEMHAAY0M@$$CBD@Z
  00007	e8 00 00 00 00	 call	 __EH_prolog3_GS
  0000c	8b 45 0c	 mov	 eax, DWORD PTR _szEventType$[ebp]
  0000f	8b f1		 mov	 esi, ecx

; 415  : 		_ENCSTR(szEventType, szEncEventType);

  00011	8a 08		 mov	 cl, BYTE PTR [eax]
  00013	84 c9		 test	 cl, cl
  00015	0f 84 36 01 00
	00		 je	 $LN96@GetAnimati@2
  0001b	b2 ed		 mov	 dl, -19			; ffffffedH
  0001d	32 ca		 xor	 cl, dl
  0001f	88 4d e0	 mov	 BYTE PTR _szEncEventType$[ebp], cl
  00022	8a 48 01	 mov	 cl, BYTE PTR [eax+1]
  00025	84 c9		 test	 cl, cl
  00027	0f 84 1e 01 00
	00		 je	 $LN95@GetAnimati@2
  0002d	80 f1 ec	 xor	 cl, -20			; ffffffecH
  00030	88 4d e1	 mov	 BYTE PTR _szEncEventType$[ebp+1], cl
  00033	8a 48 02	 mov	 cl, BYTE PTR [eax+2]
  00036	84 c9		 test	 cl, cl
  00038	0f 84 07 01 00
	00		 je	 $LN94@GetAnimati@2
  0003e	80 f1 eb	 xor	 cl, -21			; ffffffebH
  00041	88 4d e2	 mov	 BYTE PTR _szEncEventType$[ebp+2], cl
  00044	8a 48 03	 mov	 cl, BYTE PTR [eax+3]
  00047	84 c9		 test	 cl, cl
  00049	0f 84 f0 00 00
	00		 je	 $LN93@GetAnimati@2
  0004f	80 f1 ea	 xor	 cl, -22			; ffffffeaH
  00052	88 4d e3	 mov	 BYTE PTR _szEncEventType$[ebp+3], cl
  00055	8a 48 04	 mov	 cl, BYTE PTR [eax+4]
  00058	84 c9		 test	 cl, cl
  0005a	0f 84 da 00 00
	00		 je	 $LN92@GetAnimati@2
  00060	32 ca		 xor	 cl, dl
  00062	88 4d e4	 mov	 BYTE PTR _szEncEventType$[ebp+4], cl
  00065	8a 48 05	 mov	 cl, BYTE PTR [eax+5]
  00068	84 c9		 test	 cl, cl
  0006a	0f 84 c4 00 00
	00		 je	 $LN91@GetAnimati@2
  00070	80 f1 ec	 xor	 cl, -20			; ffffffecH
  00073	88 4d e5	 mov	 BYTE PTR _szEncEventType$[ebp+5], cl
  00076	8a 48 06	 mov	 cl, BYTE PTR [eax+6]
  00079	84 c9		 test	 cl, cl
  0007b	0f 84 ad 00 00
	00		 je	 $LN90@GetAnimati@2
  00081	80 f1 eb	 xor	 cl, -21			; ffffffebH
  00084	88 4d e6	 mov	 BYTE PTR _szEncEventType$[ebp+6], cl
  00087	8a 48 07	 mov	 cl, BYTE PTR [eax+7]
  0008a	84 c9		 test	 cl, cl
  0008c	0f 84 96 00 00
	00		 je	 $LN89@GetAnimati@2
  00092	80 f1 ea	 xor	 cl, -22			; ffffffeaH
  00095	88 4d e7	 mov	 BYTE PTR _szEncEventType$[ebp+7], cl
  00098	8a 48 08	 mov	 cl, BYTE PTR [eax+8]
  0009b	84 c9		 test	 cl, cl
  0009d	0f 84 80 00 00
	00		 je	 $LN88@GetAnimati@2
  000a3	32 ca		 xor	 cl, dl
  000a5	88 4d e8	 mov	 BYTE PTR _szEncEventType$[ebp+8], cl
  000a8	8a 48 09	 mov	 cl, BYTE PTR [eax+9]
  000ab	84 c9		 test	 cl, cl
  000ad	74 6e		 je	 SHORT $LN87@GetAnimati@2
  000af	80 f1 ec	 xor	 cl, -20			; ffffffecH
  000b2	88 4d e9	 mov	 BYTE PTR _szEncEventType$[ebp+9], cl
  000b5	8a 48 0a	 mov	 cl, BYTE PTR [eax+10]
  000b8	84 c9		 test	 cl, cl
  000ba	74 5b		 je	 SHORT $LN86@GetAnimati@2
  000bc	80 f1 eb	 xor	 cl, -21			; ffffffebH
  000bf	80 78 0b 00	 cmp	 BYTE PTR [eax+11], 0
  000c3	88 4d ea	 mov	 BYTE PTR _szEncEventType$[ebp+10], cl
  000c6	0f 84 89 00 00
	00		 je	 $LN1@GetAnimati@2
  000cc	8a 48 0c	 mov	 cl, BYTE PTR [eax+12]
  000cf	84 c9		 test	 cl, cl
  000d1	74 3f		 je	 SHORT $LN84@GetAnimati@2
  000d3	32 ca		 xor	 cl, dl
  000d5	88 4d ec	 mov	 BYTE PTR _szEncEventType$[ebp+12], cl
  000d8	8a 48 0d	 mov	 cl, BYTE PTR [eax+13]
  000db	84 c9		 test	 cl, cl
  000dd	74 2d		 je	 SHORT $LN83@GetAnimati@2
  000df	80 f1 ec	 xor	 cl, -20			; ffffffecH
  000e2	88 4d ed	 mov	 BYTE PTR _szEncEventType$[ebp+13], cl
  000e5	8a 48 0e	 mov	 cl, BYTE PTR [eax+14]
  000e8	84 c9		 test	 cl, cl
  000ea	74 1a		 je	 SHORT $LN82@GetAnimati@2
  000ec	8a 40 0f	 mov	 al, BYTE PTR [eax+15]
  000ef	80 f1 eb	 xor	 cl, -21			; ffffffebH
  000f2	88 4d ee	 mov	 BYTE PTR _szEncEventType$[ebp+14], cl
  000f5	84 c0		 test	 al, al
  000f7	74 07		 je	 SHORT $LN81@GetAnimati@2
  000f9	34 ea		 xor	 al, -22			; ffffffeaH
  000fb	88 45 ef	 mov	 BYTE PTR _szEncEventType$[ebp+15], al
  000fe	eb 55		 jmp	 SHORT $LN1@GetAnimati@2
$LN81@GetAnimati@2:
  00100	c6 45 ef ea	 mov	 BYTE PTR _szEncEventType$[ebp+15], -22 ; ffffffeaH
  00104	eb 4f		 jmp	 SHORT $LN1@GetAnimati@2
$LN82@GetAnimati@2:
  00106	c6 45 ee eb	 mov	 BYTE PTR _szEncEventType$[ebp+14], -21 ; ffffffebH
  0010a	eb 49		 jmp	 SHORT $LN1@GetAnimati@2
$LN83@GetAnimati@2:
  0010c	c6 45 ed ec	 mov	 BYTE PTR _szEncEventType$[ebp+13], -20 ; ffffffecH
  00110	eb 43		 jmp	 SHORT $LN1@GetAnimati@2
$LN84@GetAnimati@2:
  00112	88 55 ec	 mov	 BYTE PTR _szEncEventType$[ebp+12], dl
  00115	eb 3e		 jmp	 SHORT $LN1@GetAnimati@2
$LN86@GetAnimati@2:
  00117	c6 45 ea eb	 mov	 BYTE PTR _szEncEventType$[ebp+10], -21 ; ffffffebH
  0011b	eb 38		 jmp	 SHORT $LN1@GetAnimati@2
$LN87@GetAnimati@2:
  0011d	c6 45 e9 ec	 mov	 BYTE PTR _szEncEventType$[ebp+9], -20 ; ffffffecH
  00121	eb 32		 jmp	 SHORT $LN1@GetAnimati@2
$LN88@GetAnimati@2:
  00123	88 55 e8	 mov	 BYTE PTR _szEncEventType$[ebp+8], dl
  00126	eb 2d		 jmp	 SHORT $LN1@GetAnimati@2
$LN89@GetAnimati@2:
  00128	c6 45 e7 ea	 mov	 BYTE PTR _szEncEventType$[ebp+7], -22 ; ffffffeaH
  0012c	eb 27		 jmp	 SHORT $LN1@GetAnimati@2
$LN90@GetAnimati@2:
  0012e	c6 45 e6 eb	 mov	 BYTE PTR _szEncEventType$[ebp+6], -21 ; ffffffebH
  00132	eb 21		 jmp	 SHORT $LN1@GetAnimati@2
$LN91@GetAnimati@2:
  00134	c6 45 e5 ec	 mov	 BYTE PTR _szEncEventType$[ebp+5], -20 ; ffffffecH
  00138	eb 1b		 jmp	 SHORT $LN1@GetAnimati@2
$LN92@GetAnimati@2:
  0013a	88 55 e4	 mov	 BYTE PTR _szEncEventType$[ebp+4], dl
  0013d	eb 16		 jmp	 SHORT $LN1@GetAnimati@2
$LN93@GetAnimati@2:
  0013f	c6 45 e3 ea	 mov	 BYTE PTR _szEncEventType$[ebp+3], -22 ; ffffffeaH
  00143	eb 10		 jmp	 SHORT $LN1@GetAnimati@2
$LN94@GetAnimati@2:
  00145	c6 45 e2 eb	 mov	 BYTE PTR _szEncEventType$[ebp+2], -21 ; ffffffebH
  00149	eb 0a		 jmp	 SHORT $LN1@GetAnimati@2
$LN95@GetAnimati@2:
  0014b	c6 45 e1 ec	 mov	 BYTE PTR _szEncEventType$[ebp+1], -20 ; ffffffecH
  0014f	eb 04		 jmp	 SHORT $LN1@GetAnimati@2
$LN96@GetAnimati@2:
  00151	c6 45 e0 ed	 mov	 BYTE PTR _szEncEventType$[ebp], -19 ; ffffffedH
$LN1@GetAnimati@2:
  00155	6a 02		 push	 2
  00157	8d 45 e0	 lea	 eax, DWORD PTR _szEncEventType$[ebp]
  0015a	c6 45 eb 00	 mov	 BYTE PTR _szEncEventType$[ebp+11], 0
  0015e	59		 pop	 ecx
$LL105@GetAnimati@2:
  0015f	81 30 ed ec eb
	ea		 xor	 DWORD PTR [eax], -353637139 ; eaebecedH
  00165	83 c0 04	 add	 eax, 4
  00168	49		 dec	 ecx
  00169	75 f4		 jne	 SHORT $LL105@GetAnimati@2
  0016b	6a 08		 push	 8
  0016d	58		 pop	 eax
$LL102@GetAnimati@2:
  0016e	8b c8		 mov	 ecx, eax
  00170	81 e1 03 00 00
	80		 and	 ecx, -2147483645	; 80000003H
  00176	79 05		 jns	 SHORT $LN113@GetAnimati@2
  00178	49		 dec	 ecx
  00179	83 c9 fc	 or	 ecx, -4			; fffffffcH
  0017c	41		 inc	 ecx
$LN113@GetAnimati@2:
  0017d	b2 ed		 mov	 dl, -19			; ffffffedH
  0017f	2a d1		 sub	 dl, cl
  00181	30 54 05 e0	 xor	 BYTE PTR _szEncEventType$[ebp+eax], dl
  00185	40		 inc	 eax
  00186	83 f8 0b	 cmp	 eax, 11			; 0000000bH
  00189	7c e3		 jl	 SHORT $LL102@GetAnimati@2

; 416  : 		return GetAnimationEventTime(id, szEncEventType);

  0018b	8d 45 e0	 lea	 eax, DWORD PTR _szEncEventType$[ebp]
  0018e	50		 push	 eax
  0018f	8d 4d cc	 lea	 ecx, DWORD PTR $T556810[ebp]
  00192	ff 15 00 00 00
	00		 call	 DWORD PTR __imp_??0ioHashString@@QAE@PBD@Z
  00198	83 65 fc 00	 and	 DWORD PTR __$EHRec$[ebp+8], 0
  0019c	8d 45 cc	 lea	 eax, DWORD PTR $T556810[ebp]
  0019f	50		 push	 eax
  001a0	ff 75 08	 push	 DWORD PTR _id$[ebp]
  001a3	8b ce		 mov	 ecx, esi
  001a5	ff 15 00 00 00
	00		 call	 DWORD PTR __imp_?GetAnimationEventTime@ioEntityGroup@@QAEMHABVioHashString@@@Z
  001ab	d9 5d dc	 fstp	 DWORD PTR $T556809[ebp]
  001ae	83 4d fc ff	 or	 DWORD PTR __$EHRec$[ebp+8], -1
  001b2	8d 4d cc	 lea	 ecx, DWORD PTR $T556810[ebp]
  001b5	ff 15 00 00 00
	00		 call	 DWORD PTR __imp_??1ioHashString@@QAE@XZ
  001bb	d9 45 dc	 fld	 DWORD PTR $T556809[ebp]

; 417  : 	}

  001be	e8 00 00 00 00	 call	 __EH_epilog3_GS
  001c3	c2 08 00	 ret	 8
_TEXT	ENDS
;	COMDAT text$x
text$x	SEGMENT
__unwindfunclet$??$GetAnimationEventTime_e@$0M@@ioEntityGroup@@QAEMHAAY0M@$$CBD@Z$0:
  00000	8d 4d cc	 lea	 ecx, DWORD PTR $T556810[ebp]
  00003	ff 25 00 00 00
	00		 jmp	 DWORD PTR __imp_??1ioHashString@@QAE@XZ
__ehhandler$??$GetAnimationEventTime_e@$0M@@ioEntityGroup@@QAEMHAAY0M@$$CBD@Z:
  00009	8b 54 24 08	 mov	 edx, DWORD PTR [esp+8]
  0000d	8d 42 0c	 lea	 eax, DWORD PTR [edx+12]
  00010	8b 4a c8	 mov	 ecx, DWORD PTR [edx-56]
  00013	33 c8		 xor	 ecx, eax
  00015	e8 00 00 00 00	 call	 @__security_check_cookie@4
  0001a	8b 4a fc	 mov	 ecx, DWORD PTR [edx-4]
  0001d	33 c8		 xor	 ecx, eax
  0001f	e8 00 00 00 00	 call	 @__security_check_cookie@4
  00024	b8 00 00 00 00	 mov	 eax, OFFSET __ehfuncinfo$??$GetAnimationEventTime_e@$0M@@ioEntityGroup@@QAEMHAAY0M@$$CBD@Z
  00029	e9 00 00 00 00	 jmp	 ___CxxFrameHandler3
text$x	ENDS
??$GetAnimationEventTime_e@$0M@@ioEntityGroup@@QAEMHAAY0M@$$CBD@Z ENDP ; ioEntityGroup::GetAnimationEventTime_e<12>
PUBLIC	__real@3fd2ee0d320154cb
PUBLIC	__real@41f0000000000000
PUBLIC	??$RADtoDEG@M@@YAMM@Z				; RADtoDEG<float>
;	COMDAT __real@3fd2ee0d320154cb
; File d:\lost saga for developer\youtube\tutorial\source\src\lsclient\veryoftenusedefine.h
CONST	SEGMENT
__real@3fd2ee0d320154cb DQ 03fd2ee0d320154cbr	; 0.29578
CONST	ENDS
;	COMDAT __real@41f0000000000000
CONST	SEGMENT
__real@41f0000000000000 DQ 041f0000000000000r	; 4.29497e+009
; Function compile flags: /Ogsp
CONST	ENDS
;	COMDAT ??$RADtoDEG@M@@YAMM@Z
_TEXT	SEGMENT
tv130 = -4						; size = 4
tv75 = 8						; size = 4
_val$ = 8						; size = 4
??$RADtoDEG@M@@YAMM@Z PROC				; RADtoDEG<float>, COMDAT

; 18   : type  RADtoDEG (type val) {return (type) (val * (return57() + 0.2957795132)); }

  00000	55		 push	 ebp
  00001	8b ec		 mov	 ebp, esp
  00003	51		 push	 ecx
  00004	b8 39 00 00 00	 mov	 eax, 57			; 00000039H
  00009	89 45 fc	 mov	 DWORD PTR tv130[ebp], eax
  0000c	db 45 fc	 fild	 DWORD PTR tv130[ebp]
  0000f	85 c0		 test	 eax, eax
  00011	79 06		 jns	 SHORT $LN5@RADtoDEG
  00013	dc 05 00 00 00
	00		 fadd	 QWORD PTR __real@41f0000000000000
$LN5@RADtoDEG:
  00019	dc 05 00 00 00
	00		 fadd	 QWORD PTR __real@3fd2ee0d320154cb
  0001f	d8 4d 08	 fmul	 DWORD PTR _val$[ebp]
  00022	d9 5d 08	 fstp	 DWORD PTR tv75[ebp]
  00025	d9 45 08	 fld	 DWORD PTR tv75[ebp]
  00028	c9		 leave
  00029	c3		 ret	 0
??$RADtoDEG@M@@YAMM@Z ENDP				; RADtoDEG<float>
_TEXT	ENDS
PUBLIC	?construct@?$allocator@UForceInfo@@@std@@QAEXPAUForceInfo@@ABU3@@Z ; std::allocator<ForceInfo>::construct
; Function compile flags: /Ogsp
; File c:\program files (x86)\microsoft visual studio 10.0\vc\include\xmemory
;	COMDAT ?construct@?$allocator@UForceInfo@@@std@@QAEXPAUForceInfo@@ABU3@@Z
_TEXT	SEGMENT
__Ptr$ = 8						; size = 4
__Val$ = 12						; size = 4
?construct@?$allocator@UForceInfo@@@std@@QAEXPAUForceInfo@@ABU3@@Z PROC ; std::allocator<ForceInfo>::construct, COMDAT
; _this$ = ecx

; 196  : 		{	// construct object at _Ptr with value _Val

  00000	55		 push	 ebp
  00001	8b ec		 mov	 ebp, esp
  00003	57		 push	 edi

; 197  : 		_Construct(_Ptr, _Val);

  00004	8b 7d 08	 mov	 edi, DWORD PTR __Ptr$[ebp]
  00007	85 ff		 test	 edi, edi
  00009	74 08		 je	 SHORT $LN5@construct@2
  0000b	56		 push	 esi
  0000c	8b 75 0c	 mov	 esi, DWORD PTR __Val$[ebp]
  0000f	a5		 movsd
  00010	a5		 movsd
  00011	a5		 movsd
  00012	5e		 pop	 esi
$LN5@construct@2:
  00013	5f		 pop	 edi

; 198  : 		}

  00014	5d		 pop	 ebp
  00015	c2 08 00	 ret	 8
?construct@?$allocator@UForceInfo@@@std@@QAEXPAUForceInfo@@ABU3@@Z ENDP ; std::allocator<ForceInfo>::construct
_TEXT	ENDS
PUBLIC	??$_Construct@UWeaponInfo@@ABU1@@std@@YAXPAUWeaponInfo@@ABU1@@Z ; std::_Construct<WeaponInfo,WeaponInfo const &>
EXTRN	__EH_epilog3:PROC
EXTRN	__EH_prolog3:PROC
;	COMDAT xdata$x
; File c:\program files (x86)\microsoft visual studio 10.0\vc\include\utility
xdata$x	SEGMENT
__unwindtable$??$_Construct@UWeaponInfo@@ABU1@@std@@YAXPAUWeaponInfo@@ABU1@@Z DD 0ffffffffH
	DD	FLAT:__unwindfunclet$??$_Construct@UWeaponInfo@@ABU1@@std@@YAXPAUWeaponInfo@@ABU1@@Z$0
__ehfuncinfo$??$_Construct@UWeaponInfo@@ABU1@@std@@YAXPAUWeaponInfo@@ABU1@@Z DD 019930522H
	DD	01H
	DD	FLAT:__unwindtable$??$_Construct@UWeaponInfo@@ABU1@@std@@YAXPAUWeaponInfo@@ABU1@@Z
	DD	2 DUP(00H)
	DD	2 DUP(00H)
	DD	00H
	DD	01H
; Function compile flags: /Ogsp
; File c:\program files (x86)\microsoft visual studio 10.0\vc\include\xmemory
xdata$x	ENDS
;	COMDAT ??$_Construct@UWeaponInfo@@ABU1@@std@@YAXPAUWeaponInfo@@ABU1@@Z
_TEXT	SEGMENT
$T556875 = -16						; size = 4
__$EHRec$ = -12						; size = 12
__Vptr$ = 8						; size = 4
__Ptr$ = 8						; size = 4
__Val$ = 12						; size = 4
??$_Construct@UWeaponInfo@@ABU1@@std@@YAXPAUWeaponInfo@@ABU1@@Z PROC ; std::_Construct<WeaponInfo,WeaponInfo const &>, COMDAT

; 46   : 	{	// construct object at _Ptr with value _Val

  00000	6a 04		 push	 4
  00002	b8 00 00 00 00	 mov	 eax, __ehhandler$??$_Construct@UWeaponInfo@@ABU1@@std@@YAXPAUWeaponInfo@@ABU1@@Z
  00007	e8 00 00 00 00	 call	 __EH_prolog3

; 47   : 	void _FARQ *_Vptr = _Ptr;

  0000c	8b 4d 08	 mov	 ecx, DWORD PTR __Ptr$[ebp]
  0000f	89 4d 08	 mov	 DWORD PTR __Vptr$[ebp], ecx

; 48   : 	::new (_Vptr) _Ty1(_STD forward<_Ty2>(_Val));

  00012	89 4d f0	 mov	 DWORD PTR $T556875[ebp], ecx
  00015	83 65 fc 00	 and	 DWORD PTR __$EHRec$[ebp+8], 0
  00019	85 c9		 test	 ecx, ecx
  0001b	74 08		 je	 SHORT $LN3@Construct@2
  0001d	ff 75 0c	 push	 DWORD PTR __Val$[ebp]
  00020	e8 00 00 00 00	 call	 ??0WeaponInfo@@QAE@ABU0@@Z
$LN3@Construct@2:

; 49   : 	}

  00025	e8 00 00 00 00	 call	 __EH_epilog3
  0002a	c3		 ret	 0
_TEXT	ENDS
;	COMDAT text$x
text$x	SEGMENT
__unwindfunclet$??$_Construct@UWeaponInfo@@ABU1@@std@@YAXPAUWeaponInfo@@ABU1@@Z$0:
  00000	ff 75 08	 push	 DWORD PTR __Vptr$[ebp]
  00003	ff 75 f0	 push	 DWORD PTR $T556875[ebp]
  00006	e8 00 00 00 00	 call	 ??3@YAXPAX0@Z		; operator delete
  0000b	59		 pop	 ecx
  0000c	59		 pop	 ecx
  0000d	c3		 ret	 0
__ehhandler$??$_Construct@UWeaponInfo@@ABU1@@std@@YAXPAUWeaponInfo@@ABU1@@Z:
  0000e	8b 54 24 08	 mov	 edx, DWORD PTR [esp+8]
  00012	8d 42 0c	 lea	 eax, DWORD PTR [edx+12]
  00015	8b 4a ec	 mov	 ecx, DWORD PTR [edx-20]
  00018	33 c8		 xor	 ecx, eax
  0001a	e8 00 00 00 00	 call	 @__security_check_cookie@4
  0001f	b8 00 00 00 00	 mov	 eax, OFFSET __ehfuncinfo$??$_Construct@UWeaponInfo@@ABU1@@std@@YAXPAUWeaponInfo@@ABU1@@Z
  00024	e9 00 00 00 00	 jmp	 ___CxxFrameHandler3
text$x	ENDS
??$_Construct@UWeaponInfo@@ABU1@@std@@YAXPAUWeaponInfo@@ABU1@@Z ENDP ; std::_Construct<WeaponInfo,WeaponInfo const &>
PUBLIC	?construct@?$allocator@UWeaponInfo@@@std@@QAEXPAUWeaponInfo@@$$QAU3@@Z ; std::allocator<WeaponInfo>::construct
;	COMDAT xdata$x
; File c:\program files (x86)\microsoft visual studio 10.0\vc\include\utility
xdata$x	SEGMENT
__unwindtable$?construct@?$allocator@UWeaponInfo@@@std@@QAEXPAUWeaponInfo@@$$QAU3@@Z DD 0ffffffffH
	DD	FLAT:__unwindfunclet$?construct@?$allocator@UWeaponInfo@@@std@@QAEXPAUWeaponInfo@@$$QAU3@@Z$0
__ehfuncinfo$?construct@?$allocator@UWeaponInfo@@@std@@QAEXPAUWeaponInfo@@$$QAU3@@Z DD 019930522H
	DD	01H
	DD	FLAT:__unwindtable$?construct@?$allocator@UWeaponInfo@@@std@@QAEXPAUWeaponInfo@@$$QAU3@@Z
	DD	2 DUP(00H)
	DD	2 DUP(00H)
	DD	00H
	DD	01H
; Function compile flags: /Ogsp
; File c:\program files (x86)\microsoft visual studio 10.0\vc\include\xmemory
xdata$x	ENDS
;	COMDAT ?construct@?$allocator@UWeaponInfo@@@std@@QAEXPAUWeaponInfo@@$$QAU3@@Z
_TEXT	SEGMENT
$T556896 = -16						; size = 4
__$EHRec$ = -12						; size = 12
__Ptr$ = 8						; size = 4
__Val$ = 12						; size = 4
?construct@?$allocator@UWeaponInfo@@@std@@QAEXPAUWeaponInfo@@$$QAU3@@Z PROC ; std::allocator<WeaponInfo>::construct, COMDAT
; _this$ = ecx

; 201  : 		{	// construct object at _Ptr with value _Val

  00000	6a 04		 push	 4
  00002	b8 00 00 00 00	 mov	 eax, __ehhandler$?construct@?$allocator@UWeaponInfo@@@std@@QAEXPAUWeaponInfo@@$$QAU3@@Z
  00007	e8 00 00 00 00	 call	 __EH_prolog3

; 202  : 		::new ((void _FARQ *)_Ptr) _Ty(_STD forward<_Ty>(_Val));

  0000c	8b 4d 08	 mov	 ecx, DWORD PTR __Ptr$[ebp]
  0000f	89 4d f0	 mov	 DWORD PTR $T556896[ebp], ecx
  00012	83 65 fc 00	 and	 DWORD PTR __$EHRec$[ebp+8], 0
  00016	85 c9		 test	 ecx, ecx
  00018	74 08		 je	 SHORT $LN3@construct@3
  0001a	ff 75 0c	 push	 DWORD PTR __Val$[ebp]
  0001d	e8 00 00 00 00	 call	 ??0WeaponInfo@@QAE@ABU0@@Z
$LN3@construct@3:

; 203  : 		}

  00022	e8 00 00 00 00	 call	 __EH_epilog3
  00027	c2 08 00	 ret	 8
_TEXT	ENDS
;	COMDAT text$x
text$x	SEGMENT
__unwindfunclet$?construct@?$allocator@UWeaponInfo@@@std@@QAEXPAUWeaponInfo@@$$QAU3@@Z$0:
  00000	ff 75 08	 push	 DWORD PTR __Ptr$[ebp]
  00003	ff 75 f0	 push	 DWORD PTR $T556896[ebp]
  00006	e8 00 00 00 00	 call	 ??3@YAXPAX0@Z		; operator delete
  0000b	59		 pop	 ecx
  0000c	59		 pop	 ecx
  0000d	c3		 ret	 0
__ehhandler$?construct@?$allocator@UWeaponInfo@@@std@@QAEXPAUWeaponInfo@@$$QAU3@@Z:
  0000e	8b 54 24 08	 mov	 edx, DWORD PTR [esp+8]
  00012	8d 42 0c	 lea	 eax, DWORD PTR [edx+12]
  00015	8b 4a ec	 mov	 ecx, DWORD PTR [edx-20]
  00018	33 c8		 xor	 ecx, eax
  0001a	e8 00 00 00 00	 call	 @__security_check_cookie@4
  0001f	b8 00 00 00 00	 mov	 eax, OFFSET __ehfuncinfo$?construct@?$allocator@UWeaponInfo@@@std@@QAEXPAUWeaponInfo@@$$QAU3@@Z
  00024	e9 00 00 00 00	 jmp	 ___CxxFrameHandler3
text$x	ENDS
?construct@?$allocator@UWeaponInfo@@@std@@QAEXPAUWeaponInfo@@$$QAU3@@Z ENDP ; std::allocator<WeaponInfo>::construct
PUBLIC	?construct@?$allocator@UForceInfo@@@std@@QAEXPAUForceInfo@@$$QAU3@@Z ; std::allocator<ForceInfo>::construct
; Function compile flags: /Ogsp
;	COMDAT ?construct@?$allocator@UForceInfo@@@std@@QAEXPAUForceInfo@@$$QAU3@@Z
_TEXT	SEGMENT
__Ptr$ = 8						; size = 4
__Val$ = 12						; size = 4
?construct@?$allocator@UForceInfo@@@std@@QAEXPAUForceInfo@@$$QAU3@@Z PROC ; std::allocator<ForceInfo>::construct, COMDAT
; _this$ = ecx

; 201  : 		{	// construct object at _Ptr with value _Val

  00000	55		 push	 ebp
  00001	8b ec		 mov	 ebp, esp
  00003	57		 push	 edi

; 202  : 		::new ((void _FARQ *)_Ptr) _Ty(_STD forward<_Ty>(_Val));

  00004	8b 7d 08	 mov	 edi, DWORD PTR __Ptr$[ebp]
  00007	85 ff		 test	 edi, edi
  00009	74 08		 je	 SHORT $LN3@construct@4
  0000b	56		 push	 esi
  0000c	8b 75 0c	 mov	 esi, DWORD PTR __Val$[ebp]
  0000f	a5		 movsd
  00010	a5		 movsd
  00011	a5		 movsd
  00012	5e		 pop	 esi
$LN3@construct@4:
  00013	5f		 pop	 edi

; 203  : 		}

  00014	5d		 pop	 ebp
  00015	c2 08 00	 ret	 8
?construct@?$allocator@UForceInfo@@@std@@QAEXPAUForceInfo@@$$QAU3@@Z ENDP ; std::allocator<ForceInfo>::construct
_TEXT	ENDS
PUBLIC	??0WeaponInfo@@QAE@XZ				; WeaponInfo::WeaponInfo
EXTRN	__imp_??0ioHashString@@QAE@XZ:PROC
; Function compile flags: /Ogsp
; File d:\lost saga for developer\youtube\tutorial\source\src\lsclient\ioattackattribute.h
;	COMDAT ??0WeaponInfo@@QAE@XZ
_TEXT	SEGMENT
??0WeaponInfo@@QAE@XZ PROC				; WeaponInfo::WeaponInfo, COMDAT
; _this$ = ecx

; 64   : 	WeaponInfo()

  00000	56		 push	 esi
  00001	8b f1		 mov	 esi, ecx
  00003	8d 4e 08	 lea	 ecx, DWORD PTR [esi+8]
  00006	ff 15 00 00 00
	00		 call	 DWORD PTR __imp_??0ioHashString@@QAE@XZ

; 65   : 	{
; 66   : 		Init();

  0000c	33 c0		 xor	 eax, eax
  0000e	89 06		 mov	 DWORD PTR [esi], eax
  00010	89 46 04	 mov	 DWORD PTR [esi+4], eax
  00013	89 46 18	 mov	 DWORD PTR [esi+24], eax
  00016	89 46 1c	 mov	 DWORD PTR [esi+28], eax
  00019	88 46 20	 mov	 BYTE PTR [esi+32], al
  0001c	89 46 24	 mov	 DWORD PTR [esi+36], eax

; 67   : 	}

  0001f	8b c6		 mov	 eax, esi
  00021	5e		 pop	 esi
  00022	c3		 ret	 0
??0WeaponInfo@@QAE@XZ ENDP				; WeaponInfo::WeaponInfo
_TEXT	ENDS
PUBLIC	??B?$CEncrypt@M@@QAEMXZ				; CEncrypt<float>::operator float
; Function compile flags: /Ogsp
; File d:\lost saga for developer\youtube\tutorial\source\src\lsclient\encryptvalue.h
;	COMDAT ??B?$CEncrypt@M@@QAEMXZ
_TEXT	SEGMENT
_value$ = -4						; size = 4
??B?$CEncrypt@M@@QAEMXZ PROC				; CEncrypt<float>::operator float, COMDAT
; _this$ = ecx

; 134  : 	{

  00000	55		 push	 ebp
  00001	8b ec		 mov	 ebp, esp
  00003	51		 push	 ecx

; 135  : 		type value;
; 136  : 		DecryptValueToPool(&value);

  00004	8d 45 fc	 lea	 eax, DWORD PTR _value$[ebp]
  00007	50		 push	 eax
  00008	e8 00 00 00 00	 call	 ?DecryptValueToPool@?$CEncrypt@M@@QAEXPAM@Z ; CEncrypt<float>::DecryptValueToPool

; 137  : 
; 138  : #ifdef _NOTUSE
; 139  : 		Debug();
; 140  : #endif
; 141  : 		return value;

  0000d	d9 45 fc	 fld	 DWORD PTR _value$[ebp]

; 142  : 	}

  00010	c9		 leave
  00011	c3		 ret	 0
??B?$CEncrypt@M@@QAEMXZ ENDP				; CEncrypt<float>::operator float
_TEXT	ENDS
PUBLIC	??4?$CEncrypt@M@@QAEMM@Z			; CEncrypt<float>::operator=
; Function compile flags: /Ogsp
;	COMDAT ??4?$CEncrypt@M@@QAEMM@Z
_TEXT	SEGMENT
_value$ = 8						; size = 4
_inValue$ = 8						; size = 4
??4?$CEncrypt@M@@QAEMM@Z PROC				; CEncrypt<float>::operator=, COMDAT
; _this$ = ecx

; 1654 : 	{	

  00000	55		 push	 ebp
  00001	8b ec		 mov	 ebp, esp

; 1655 : 		type value = inValue;

  00003	d9 45 08	 fld	 DWORD PTR _inValue$[ebp]

; 1656 : 		EncryptValueToPool((char*)&value);

  00006	8d 45 08	 lea	 eax, DWORD PTR _value$[ebp]
  00009	50		 push	 eax
  0000a	d9 5d 08	 fstp	 DWORD PTR _value$[ebp]
  0000d	e8 00 00 00 00	 call	 ?EncryptValueToPool@?$CEncrypt@M@@AAEXPBD@Z ; CEncrypt<float>::EncryptValueToPool

; 1657 : #ifdef _NOTUSE
; 1658 : 		m_value = inValue;
; 1659 : 		Debug();
; 1660 : #endif
; 1661 : 		return value;

  00012	d9 45 08	 fld	 DWORD PTR _value$[ebp]

; 1662 : 	}

  00015	5d		 pop	 ebp
  00016	c2 04 00	 ret	 4
??4?$CEncrypt@M@@QAEMM@Z ENDP				; CEncrypt<float>::operator=
_TEXT	ENDS
PUBLIC	??0?$CEncrypt@K@@QAE@XZ				; CEncrypt<unsigned long>::CEncrypt<unsigned long>
EXTRN	??0ccddaabb@@QAE@XZ:PROC			; ccddaabb::ccddaabb
;	COMDAT xdata$x
xdata$x	SEGMENT
__unwindtable$??0?$CEncrypt@K@@QAE@XZ DD 0ffffffffH
	DD	FLAT:__unwindfunclet$??0?$CEncrypt@K@@QAE@XZ$0
__ehfuncinfo$??0?$CEncrypt@K@@QAE@XZ DD 019930522H
	DD	01H
	DD	FLAT:__unwindtable$??0?$CEncrypt@K@@QAE@XZ
	DD	2 DUP(00H)
	DD	2 DUP(00H)
	DD	00H
	DD	01H
; Function compile flags: /Ogsp
xdata$x	ENDS
;	COMDAT ??0?$CEncrypt@K@@QAE@XZ
_TEXT	SEGMENT
_this$ = -16						; size = 4
__$EHRec$ = -12						; size = 12
??0?$CEncrypt@K@@QAE@XZ PROC				; CEncrypt<unsigned long>::CEncrypt<unsigned long>, COMDAT
; _this$ = ecx

; 109  : 	CEncrypt()

  00000	6a 04		 push	 4
  00002	b8 00 00 00 00	 mov	 eax, __ehhandler$??0?$CEncrypt@K@@QAE@XZ
  00007	e8 00 00 00 00	 call	 __EH_prolog3
  0000c	8b f1		 mov	 esi, ecx
  0000e	89 75 f0	 mov	 DWORD PTR _this$[ebp], esi
  00011	8d 4e 0c	 lea	 ecx, DWORD PTR [esi+12]
  00014	c7 06 00 00 00
	00		 mov	 DWORD PTR [esi], OFFSET ??_7?$CEncrypt@K@@6B@
  0001a	e8 00 00 00 00	 call	 ??0ccddaabb@@QAE@XZ	; ccddaabb::ccddaabb
  0001f	83 65 fc 00	 and	 DWORD PTR __$EHRec$[ebp+8], 0

; 110  : 	{
; 111  : 		Init();

  00023	8b ce		 mov	 ecx, esi
  00025	e8 00 00 00 00	 call	 ?Init@?$CEncrypt@K@@AAEXXZ ; CEncrypt<unsigned long>::Init

; 112  : 	}

  0002a	8b c6		 mov	 eax, esi
  0002c	e8 00 00 00 00	 call	 __EH_epilog3
  00031	c3		 ret	 0
_TEXT	ENDS
;	COMDAT text$x
text$x	SEGMENT
__unwindfunclet$??0?$CEncrypt@K@@QAE@XZ$0:
  00000	8b 4d f0	 mov	 ecx, DWORD PTR _this$[ebp]
  00003	83 c1 0c	 add	 ecx, 12			; 0000000cH
  00006	e9 00 00 00 00	 jmp	 ??1ccddaabb@@UAE@XZ	; ccddaabb::~ccddaabb
__ehhandler$??0?$CEncrypt@K@@QAE@XZ:
  0000b	8b 54 24 08	 mov	 edx, DWORD PTR [esp+8]
  0000f	8d 42 0c	 lea	 eax, DWORD PTR [edx+12]
  00012	8b 4a ec	 mov	 ecx, DWORD PTR [edx-20]
  00015	33 c8		 xor	 ecx, eax
  00017	e8 00 00 00 00	 call	 @__security_check_cookie@4
  0001c	b8 00 00 00 00	 mov	 eax, OFFSET __ehfuncinfo$??0?$CEncrypt@K@@QAE@XZ
  00021	e9 00 00 00 00	 jmp	 ___CxxFrameHandler3
text$x	ENDS
??0?$CEncrypt@K@@QAE@XZ ENDP				; CEncrypt<unsigned long>::CEncrypt<unsigned long>
PUBLIC	??B?$CEncrypt@K@@QAEKXZ				; CEncrypt<unsigned long>::operator unsigned long
; Function compile flags: /Ogsp
;	COMDAT ??B?$CEncrypt@K@@QAEKXZ
_TEXT	SEGMENT
_value$ = -4						; size = 4
??B?$CEncrypt@K@@QAEKXZ PROC				; CEncrypt<unsigned long>::operator unsigned long, COMDAT
; _this$ = ecx

; 134  : 	{

  00000	55		 push	 ebp
  00001	8b ec		 mov	 ebp, esp
  00003	51		 push	 ecx

; 135  : 		type value;
; 136  : 		DecryptValueToPool(&value);

  00004	8d 45 fc	 lea	 eax, DWORD PTR _value$[ebp]
  00007	50		 push	 eax
  00008	e8 00 00 00 00	 call	 ?DecryptValueToPool@?$CEncrypt@K@@QAEXPAK@Z ; CEncrypt<unsigned long>::DecryptValueToPool

; 137  : 
; 138  : #ifdef _NOTUSE
; 139  : 		Debug();
; 140  : #endif
; 141  : 		return value;

  0000d	8b 45 fc	 mov	 eax, DWORD PTR _value$[ebp]

; 142  : 	}

  00010	c9		 leave
  00011	c3		 ret	 0
??B?$CEncrypt@K@@QAEKXZ ENDP				; CEncrypt<unsigned long>::operator unsigned long
_TEXT	ENDS
PUBLIC	??B?$CEncrypt@K@@QBEKXZ				; CEncrypt<unsigned long>::operator unsigned long
; Function compile flags: /Ogsp
;	COMDAT ??B?$CEncrypt@K@@QBEKXZ
_TEXT	SEGMENT
_value$ = -4						; size = 4
??B?$CEncrypt@K@@QBEKXZ PROC				; CEncrypt<unsigned long>::operator unsigned long, COMDAT
; _this$ = ecx

; 145  : 	{

  00000	55		 push	 ebp
  00001	8b ec		 mov	 ebp, esp
  00003	51		 push	 ecx

; 146  : 		//UJ 130829, const    --start
; 147  : 		type value;
; 148  : 		CEncrypt<type>* pThis = const_cast<CEncrypt<type>*>(this);
; 149  : 		pThis->DecryptValueToPool(&value);

  00004	8d 45 fc	 lea	 eax, DWORD PTR _value$[ebp]
  00007	50		 push	 eax
  00008	e8 00 00 00 00	 call	 ?DecryptValueToPool@?$CEncrypt@K@@QAEXPAK@Z ; CEncrypt<unsigned long>::DecryptValueToPool

; 150  : 		//// const DecryptValueToPool     .
; 151  :  		//type value;
; 152  : 		//char szTempMem[MAX_ENCRYPT];
; 153  : 		//m_RC5.DecryptByte( m_MemPool, szTempMem, max(m_ValueSize, DEFAULT_ENCRYPT) );
; 154  : 		//memcpy( &value, szTempMem, m_ValueSize );
; 155  : 		//UJ --end
; 156  : 
; 157  : #ifdef _NOTUSE
; 158  : 		Debug();
; 159  : #endif
; 160  : 		return value;

  0000d	8b 45 fc	 mov	 eax, DWORD PTR _value$[ebp]

; 161  : 	}

  00010	c9		 leave
  00011	c3		 ret	 0
??B?$CEncrypt@K@@QBEKXZ ENDP				; CEncrypt<unsigned long>::operator unsigned long
_TEXT	ENDS
PUBLIC	??4?$CEncrypt@K@@QAEKH@Z			; CEncrypt<unsigned long>::operator=
; Function compile flags: /Ogsp
;	COMDAT ??4?$CEncrypt@K@@QAEKH@Z
_TEXT	SEGMENT
_value$ = 8						; size = 4
_inValue$ = 8						; size = 4
??4?$CEncrypt@K@@QAEKH@Z PROC				; CEncrypt<unsigned long>::operator=, COMDAT
; _this$ = ecx

; 843  : 	{

  00000	55		 push	 ebp
  00001	8b ec		 mov	 ebp, esp

; 844  : 		type value = inValue;

  00003	8b 45 08	 mov	 eax, DWORD PTR _inValue$[ebp]
  00006	89 45 08	 mov	 DWORD PTR _value$[ebp], eax

; 845  : 		EncryptValueToPool((char*)&value);

  00009	8d 45 08	 lea	 eax, DWORD PTR _value$[ebp]
  0000c	50		 push	 eax
  0000d	e8 00 00 00 00	 call	 ?EncryptValueToPool@?$CEncrypt@K@@AAEXPBD@Z ; CEncrypt<unsigned long>::EncryptValueToPool

; 846  : #ifdef _NOTUSE
; 847  : 		m_value = inValue;
; 848  : 		Debug();
; 849  : #endif
; 850  : 		return value;

  00012	8b 45 08	 mov	 eax, DWORD PTR _value$[ebp]

; 851  : 	}

  00015	5d		 pop	 ebp
  00016	c2 04 00	 ret	 4
??4?$CEncrypt@K@@QAEKH@Z ENDP				; CEncrypt<unsigned long>::operator=
_TEXT	ENDS
PUBLIC	??4?$CEncrypt@K@@QAEKK@Z			; CEncrypt<unsigned long>::operator=
; Function compile flags: /Ogsp
;	COMDAT ??4?$CEncrypt@K@@QAEKK@Z
_TEXT	SEGMENT
_value$ = 8						; size = 4
_inValue$ = 8						; size = 4
??4?$CEncrypt@K@@QAEKK@Z PROC				; CEncrypt<unsigned long>::operator=, COMDAT
; _this$ = ecx

; 1262 : 	{

  00000	55		 push	 ebp
  00001	8b ec		 mov	 ebp, esp

; 1263 : 		
; 1264 : 		type value = inValue;

  00003	8b 45 08	 mov	 eax, DWORD PTR _inValue$[ebp]
  00006	89 45 08	 mov	 DWORD PTR _value$[ebp], eax

; 1265 : 		EncryptValueToPool((char*)&value);

  00009	8d 45 08	 lea	 eax, DWORD PTR _value$[ebp]
  0000c	50		 push	 eax
  0000d	e8 00 00 00 00	 call	 ?EncryptValueToPool@?$CEncrypt@K@@AAEXPBD@Z ; CEncrypt<unsigned long>::EncryptValueToPool

; 1266 : #ifdef _NOTUSE
; 1267 : 		m_value = inValue;
; 1268 : 		Debug();
; 1269 : #endif
; 1270 : 		return value;

  00012	8b 45 08	 mov	 eax, DWORD PTR _value$[ebp]

; 1271 : 	}

  00015	5d		 pop	 ebp
  00016	c2 04 00	 ret	 4
??4?$CEncrypt@K@@QAEKK@Z ENDP				; CEncrypt<unsigned long>::operator=
_TEXT	ENDS
PUBLIC	??B?$CEncrypt@_N@@QAE_NXZ			; CEncrypt<bool>::operator bool
; Function compile flags: /Ogsp
;	COMDAT ??B?$CEncrypt@_N@@QAE_NXZ
_TEXT	SEGMENT
_value$ = -1						; size = 1
??B?$CEncrypt@_N@@QAE_NXZ PROC				; CEncrypt<bool>::operator bool, COMDAT
; _this$ = ecx

; 134  : 	{

  00000	55		 push	 ebp
  00001	8b ec		 mov	 ebp, esp
  00003	51		 push	 ecx

; 135  : 		type value;
; 136  : 		DecryptValueToPool(&value);

  00004	8d 45 ff	 lea	 eax, DWORD PTR _value$[ebp]
  00007	50		 push	 eax
  00008	e8 00 00 00 00	 call	 ?DecryptValueToPool@?$CEncrypt@_N@@QAEXPA_N@Z ; CEncrypt<bool>::DecryptValueToPool

; 137  : 
; 138  : #ifdef _NOTUSE
; 139  : 		Debug();
; 140  : #endif
; 141  : 		return value;

  0000d	8a 45 ff	 mov	 al, BYTE PTR _value$[ebp]

; 142  : 	}

  00010	c9		 leave
  00011	c3		 ret	 0
??B?$CEncrypt@_N@@QAE_NXZ ENDP				; CEncrypt<bool>::operator bool
_TEXT	ENDS
PUBLIC	??B?$CEncrypt@_N@@QBE_NXZ			; CEncrypt<bool>::operator bool
; Function compile flags: /Ogsp
;	COMDAT ??B?$CEncrypt@_N@@QBE_NXZ
_TEXT	SEGMENT
_value$ = -1						; size = 1
??B?$CEncrypt@_N@@QBE_NXZ PROC				; CEncrypt<bool>::operator bool, COMDAT
; _this$ = ecx

; 145  : 	{

  00000	55		 push	 ebp
  00001	8b ec		 mov	 ebp, esp
  00003	51		 push	 ecx

; 146  : 		//UJ 130829, const    --start
; 147  : 		type value;
; 148  : 		CEncrypt<type>* pThis = const_cast<CEncrypt<type>*>(this);
; 149  : 		pThis->DecryptValueToPool(&value);

  00004	8d 45 ff	 lea	 eax, DWORD PTR _value$[ebp]
  00007	50		 push	 eax
  00008	e8 00 00 00 00	 call	 ?DecryptValueToPool@?$CEncrypt@_N@@QAEXPA_N@Z ; CEncrypt<bool>::DecryptValueToPool

; 150  : 		//// const DecryptValueToPool     .
; 151  :  		//type value;
; 152  : 		//char szTempMem[MAX_ENCRYPT];
; 153  : 		//m_RC5.DecryptByte( m_MemPool, szTempMem, max(m_ValueSize, DEFAULT_ENCRYPT) );
; 154  : 		//memcpy( &value, szTempMem, m_ValueSize );
; 155  : 		//UJ --end
; 156  : 
; 157  : #ifdef _NOTUSE
; 158  : 		Debug();
; 159  : #endif
; 160  : 		return value;

  0000d	8a 45 ff	 mov	 al, BYTE PTR _value$[ebp]

; 161  : 	}

  00010	c9		 leave
  00011	c3		 ret	 0
??B?$CEncrypt@_N@@QBE_NXZ ENDP				; CEncrypt<bool>::operator bool
_TEXT	ENDS
PUBLIC	??0?$CEncrypt@H@@QAE@XZ				; CEncrypt<int>::CEncrypt<int>
;	COMDAT xdata$x
xdata$x	SEGMENT
__unwindtable$??0?$CEncrypt@H@@QAE@XZ DD 0ffffffffH
	DD	FLAT:__unwindfunclet$??0?$CEncrypt@H@@QAE@XZ$0
__ehfuncinfo$??0?$CEncrypt@H@@QAE@XZ DD 019930522H
	DD	01H
	DD	FLAT:__unwindtable$??0?$CEncrypt@H@@QAE@XZ
	DD	2 DUP(00H)
	DD	2 DUP(00H)
	DD	00H
	DD	01H
; Function compile flags: /Ogsp
xdata$x	ENDS
;	COMDAT ??0?$CEncrypt@H@@QAE@XZ
_TEXT	SEGMENT
_this$ = -16						; size = 4
__$EHRec$ = -12						; size = 12
??0?$CEncrypt@H@@QAE@XZ PROC				; CEncrypt<int>::CEncrypt<int>, COMDAT
; _this$ = ecx

; 109  : 	CEncrypt()

  00000	6a 04		 push	 4
  00002	b8 00 00 00 00	 mov	 eax, __ehhandler$??0?$CEncrypt@H@@QAE@XZ
  00007	e8 00 00 00 00	 call	 __EH_prolog3
  0000c	8b f1		 mov	 esi, ecx
  0000e	89 75 f0	 mov	 DWORD PTR _this$[ebp], esi
  00011	8d 4e 0c	 lea	 ecx, DWORD PTR [esi+12]
  00014	c7 06 00 00 00
	00		 mov	 DWORD PTR [esi], OFFSET ??_7?$CEncrypt@H@@6B@
  0001a	e8 00 00 00 00	 call	 ??0ccddaabb@@QAE@XZ	; ccddaabb::ccddaabb
  0001f	83 65 fc 00	 and	 DWORD PTR __$EHRec$[ebp+8], 0

; 110  : 	{
; 111  : 		Init();

  00023	8b ce		 mov	 ecx, esi
  00025	e8 00 00 00 00	 call	 ?Init@?$CEncrypt@H@@AAEXXZ ; CEncrypt<int>::Init

; 112  : 	}

  0002a	8b c6		 mov	 eax, esi
  0002c	e8 00 00 00 00	 call	 __EH_epilog3
  00031	c3		 ret	 0
_TEXT	ENDS
;	COMDAT text$x
text$x	SEGMENT
__unwindfunclet$??0?$CEncrypt@H@@QAE@XZ$0:
  00000	8b 4d f0	 mov	 ecx, DWORD PTR _this$[ebp]
  00003	83 c1 0c	 add	 ecx, 12			; 0000000cH
  00006	e9 00 00 00 00	 jmp	 ??1ccddaabb@@UAE@XZ	; ccddaabb::~ccddaabb
__ehhandler$??0?$CEncrypt@H@@QAE@XZ:
  0000b	8b 54 24 08	 mov	 edx, DWORD PTR [esp+8]
  0000f	8d 42 0c	 lea	 eax, DWORD PTR [edx+12]
  00012	8b 4a ec	 mov	 ecx, DWORD PTR [edx-20]
  00015	33 c8		 xor	 ecx, eax
  00017	e8 00 00 00 00	 call	 @__security_check_cookie@4
  0001c	b8 00 00 00 00	 mov	 eax, OFFSET __ehfuncinfo$??0?$CEncrypt@H@@QAE@XZ
  00021	e9 00 00 00 00	 jmp	 ___CxxFrameHandler3
text$x	ENDS
??0?$CEncrypt@H@@QAE@XZ ENDP				; CEncrypt<int>::CEncrypt<int>
PUBLIC	??B?$CEncrypt@H@@QAEHXZ				; CEncrypt<int>::operator int
; Function compile flags: /Ogsp
;	COMDAT ??B?$CEncrypt@H@@QAEHXZ
_TEXT	SEGMENT
_value$ = -4						; size = 4
??B?$CEncrypt@H@@QAEHXZ PROC				; CEncrypt<int>::operator int, COMDAT
; _this$ = ecx

; 134  : 	{

  00000	55		 push	 ebp
  00001	8b ec		 mov	 ebp, esp
  00003	51		 push	 ecx

; 135  : 		type value;
; 136  : 		DecryptValueToPool(&value);

  00004	8d 45 fc	 lea	 eax, DWORD PTR _value$[ebp]
  00007	50		 push	 eax
  00008	e8 00 00 00 00	 call	 ?DecryptValueToPool@?$CEncrypt@H@@QAEXPAH@Z ; CEncrypt<int>::DecryptValueToPool

; 137  : 
; 138  : #ifdef _NOTUSE
; 139  : 		Debug();
; 140  : #endif
; 141  : 		return value;

  0000d	8b 45 fc	 mov	 eax, DWORD PTR _value$[ebp]

; 142  : 	}

  00010	c9		 leave
  00011	c3		 ret	 0
??B?$CEncrypt@H@@QAEHXZ ENDP				; CEncrypt<int>::operator int
_TEXT	ENDS
PUBLIC	??B?$CEncrypt@H@@QBEHXZ				; CEncrypt<int>::operator int
; Function compile flags: /Ogsp
;	COMDAT ??B?$CEncrypt@H@@QBEHXZ
_TEXT	SEGMENT
_value$ = -4						; size = 4
??B?$CEncrypt@H@@QBEHXZ PROC				; CEncrypt<int>::operator int, COMDAT
; _this$ = ecx

; 145  : 	{

  00000	55		 push	 ebp
  00001	8b ec		 mov	 ebp, esp
  00003	51		 push	 ecx

; 146  : 		//UJ 130829, const    --start
; 147  : 		type value;
; 148  : 		CEncrypt<type>* pThis = const_cast<CEncrypt<type>*>(this);
; 149  : 		pThis->DecryptValueToPool(&value);

  00004	8d 45 fc	 lea	 eax, DWORD PTR _value$[ebp]
  00007	50		 push	 eax
  00008	e8 00 00 00 00	 call	 ?DecryptValueToPool@?$CEncrypt@H@@QAEXPAH@Z ; CEncrypt<int>::DecryptValueToPool

; 150  : 		//// const DecryptValueToPool     .
; 151  :  		//type value;
; 152  : 		//char szTempMem[MAX_ENCRYPT];
; 153  : 		//m_RC5.DecryptByte( m_MemPool, szTempMem, max(m_ValueSize, DEFAULT_ENCRYPT) );
; 154  : 		//memcpy( &value, szTempMem, m_ValueSize );
; 155  : 		//UJ --end
; 156  : 
; 157  : #ifdef _NOTUSE
; 158  : 		Debug();
; 159  : #endif
; 160  : 		return value;

  0000d	8b 45 fc	 mov	 eax, DWORD PTR _value$[ebp]

; 161  : 	}

  00010	c9		 leave
  00011	c3		 ret	 0
??B?$CEncrypt@H@@QBEHXZ ENDP				; CEncrypt<int>::operator int
_TEXT	ENDS
PUBLIC	??4?$CEncrypt@H@@QAEHH@Z			; CEncrypt<int>::operator=
; Function compile flags: /Ogsp
;	COMDAT ??4?$CEncrypt@H@@QAEHH@Z
_TEXT	SEGMENT
_value$ = 8						; size = 4
_inValue$ = 8						; size = 4
??4?$CEncrypt@H@@QAEHH@Z PROC				; CEncrypt<int>::operator=, COMDAT
; _this$ = ecx

; 843  : 	{

  00000	55		 push	 ebp
  00001	8b ec		 mov	 ebp, esp

; 844  : 		type value = inValue;

  00003	8b 45 08	 mov	 eax, DWORD PTR _inValue$[ebp]
  00006	89 45 08	 mov	 DWORD PTR _value$[ebp], eax

; 845  : 		EncryptValueToPool((char*)&value);

  00009	8d 45 08	 lea	 eax, DWORD PTR _value$[ebp]
  0000c	50		 push	 eax
  0000d	e8 00 00 00 00	 call	 ?EncryptValueToPool@?$CEncrypt@H@@AAEXPBD@Z ; CEncrypt<int>::EncryptValueToPool

; 846  : #ifdef _NOTUSE
; 847  : 		m_value = inValue;
; 848  : 		Debug();
; 849  : #endif
; 850  : 		return value;

  00012	8b 45 08	 mov	 eax, DWORD PTR _value$[ebp]

; 851  : 	}

  00015	5d		 pop	 ebp
  00016	c2 04 00	 ret	 4
??4?$CEncrypt@H@@QAEHH@Z ENDP				; CEncrypt<int>::operator=
_TEXT	ENDS
PUBLIC	??B?$CEncrypt@W4TeamType@@@@QBE?AW4TeamType@@XZ	; CEncrypt<enum TeamType>::operator enum TeamType
; Function compile flags: /Ogsp
;	COMDAT ??B?$CEncrypt@W4TeamType@@@@QBE?AW4TeamType@@XZ
_TEXT	SEGMENT
_value$ = -4						; size = 4
??B?$CEncrypt@W4TeamType@@@@QBE?AW4TeamType@@XZ PROC	; CEncrypt<enum TeamType>::operator enum TeamType, COMDAT
; _this$ = ecx

; 145  : 	{

  00000	55		 push	 ebp
  00001	8b ec		 mov	 ebp, esp
  00003	51		 push	 ecx

; 146  : 		//UJ 130829, const    --start
; 147  : 		type value;
; 148  : 		CEncrypt<type>* pThis = const_cast<CEncrypt<type>*>(this);
; 149  : 		pThis->DecryptValueToPool(&value);

  00004	8d 45 fc	 lea	 eax, DWORD PTR _value$[ebp]
  00007	50		 push	 eax
  00008	e8 00 00 00 00	 call	 ?DecryptValueToPool@?$CEncrypt@W4TeamType@@@@QAEXPAW4TeamType@@@Z ; CEncrypt<enum TeamType>::DecryptValueToPool

; 150  : 		//// const DecryptValueToPool     .
; 151  :  		//type value;
; 152  : 		//char szTempMem[MAX_ENCRYPT];
; 153  : 		//m_RC5.DecryptByte( m_MemPool, szTempMem, max(m_ValueSize, DEFAULT_ENCRYPT) );
; 154  : 		//memcpy( &value, szTempMem, m_ValueSize );
; 155  : 		//UJ --end
; 156  : 
; 157  : #ifdef _NOTUSE
; 158  : 		Debug();
; 159  : #endif
; 160  : 		return value;

  0000d	8b 45 fc	 mov	 eax, DWORD PTR _value$[ebp]

; 161  : 	}

  00010	c9		 leave
  00011	c3		 ret	 0
??B?$CEncrypt@W4TeamType@@@@QBE?AW4TeamType@@XZ ENDP	; CEncrypt<enum TeamType>::operator enum TeamType
_TEXT	ENDS
PUBLIC	??0?$_Vector_val@UWeaponInfo@@V?$allocator@UWeaponInfo@@@std@@@std@@QAE@V?$allocator@UWeaponInfo@@@1@@Z ; std::_Vector_val<WeaponInfo,std::allocator<WeaponInfo> >::_Vector_val<WeaponInfo,std::allocator<WeaponInfo> >
; Function compile flags: /Ogsp
; File c:\program files (x86)\microsoft visual studio 10.0\vc\include\vector
;	COMDAT ??0?$_Vector_val@UWeaponInfo@@V?$allocator@UWeaponInfo@@@std@@@std@@QAE@V?$allocator@UWeaponInfo@@@1@@Z
_TEXT	SEGMENT
__Al$ = 8						; size = 1
??0?$_Vector_val@UWeaponInfo@@V?$allocator@UWeaponInfo@@@std@@@std@@QAE@V?$allocator@UWeaponInfo@@@1@@Z PROC ; std::_Vector_val<WeaponInfo,std::allocator<WeaponInfo> >::_Vector_val<WeaponInfo,std::allocator<WeaponInfo> >, COMDAT
; _this$ = ecx

; 426  : 		{	// construct allocator from _Al

  00000	8b c1		 mov	 eax, ecx

; 427  : 		_Myfirst = 0;

  00002	33 c9		 xor	 ecx, ecx
  00004	89 08		 mov	 DWORD PTR [eax], ecx

; 428  : 		_Mylast = 0;

  00006	89 48 04	 mov	 DWORD PTR [eax+4], ecx

; 429  : 		_Myend = 0;

  00009	89 48 08	 mov	 DWORD PTR [eax+8], ecx

; 430  : 		}

  0000c	c2 04 00	 ret	 4
??0?$_Vector_val@UWeaponInfo@@V?$allocator@UWeaponInfo@@@std@@@std@@QAE@V?$allocator@UWeaponInfo@@@1@@Z ENDP ; std::_Vector_val<WeaponInfo,std::allocator<WeaponInfo> >::_Vector_val<WeaponInfo,std::allocator<WeaponInfo> >
_TEXT	ENDS
PUBLIC	??0?$_Vector_val@UForceInfo@@V?$allocator@UForceInfo@@@std@@@std@@QAE@V?$allocator@UForceInfo@@@1@@Z ; std::_Vector_val<ForceInfo,std::allocator<ForceInfo> >::_Vector_val<ForceInfo,std::allocator<ForceInfo> >
; Function compile flags: /Ogsp
;	COMDAT ??0?$_Vector_val@UForceInfo@@V?$allocator@UForceInfo@@@std@@@std@@QAE@V?$allocator@UForceInfo@@@1@@Z
_TEXT	SEGMENT
__Al$ = 8						; size = 1
??0?$_Vector_val@UForceInfo@@V?$allocator@UForceInfo@@@std@@@std@@QAE@V?$allocator@UForceInfo@@@1@@Z PROC ; std::_Vector_val<ForceInfo,std::allocator<ForceInfo> >::_Vector_val<ForceInfo,std::allocator<ForceInfo> >, COMDAT
; _this$ = ecx

; 426  : 		{	// construct allocator from _Al

  00000	8b c1		 mov	 eax, ecx

; 427  : 		_Myfirst = 0;

  00002	33 c9		 xor	 ecx, ecx
  00004	89 08		 mov	 DWORD PTR [eax], ecx

; 428  : 		_Mylast = 0;

  00006	89 48 04	 mov	 DWORD PTR [eax+4], ecx

; 429  : 		_Myend = 0;

  00009	89 48 08	 mov	 DWORD PTR [eax+8], ecx

; 430  : 		}

  0000c	c2 04 00	 ret	 4
??0?$_Vector_val@UForceInfo@@V?$allocator@UForceInfo@@@std@@@std@@QAE@V?$allocator@UForceInfo@@@1@@Z ENDP ; std::_Vector_val<ForceInfo,std::allocator<ForceInfo> >::_Vector_val<ForceInfo,std::allocator<ForceInfo> >
_TEXT	ENDS
PUBLIC	?max_size@?$vector@UWeaponInfo@@V?$allocator@UWeaponInfo@@@std@@@std@@QBEIXZ ; std::vector<WeaponInfo,std::allocator<WeaponInfo> >::max_size
; Function compile flags: /Ogsp
;	COMDAT ?max_size@?$vector@UWeaponInfo@@V?$allocator@UWeaponInfo@@@std@@@std@@QBEIXZ
_TEXT	SEGMENT
?max_size@?$vector@UWeaponInfo@@V?$allocator@UWeaponInfo@@@std@@@std@@QBEIXZ PROC ; std::vector<WeaponInfo,std::allocator<WeaponInfo> >::max_size, COMDAT
; _this$ = ecx

; 884  : 		return (this->_Alval.max_size());

  00000	b8 66 66 66 06	 mov	 eax, 107374182		; 06666666H

; 885  : 		}

  00005	c3		 ret	 0
?max_size@?$vector@UWeaponInfo@@V?$allocator@UWeaponInfo@@@std@@@std@@QBEIXZ ENDP ; std::vector<WeaponInfo,std::allocator<WeaponInfo> >::max_size
_TEXT	ENDS
PUBLIC	?allocate@?$allocator@UWeaponInfo@@@std@@QAEPAUWeaponInfo@@I@Z ; std::allocator<WeaponInfo>::allocate
; Function compile flags: /Ogsp
; File c:\program files (x86)\microsoft visual studio 10.0\vc\include\xmemory
;	COMDAT ?allocate@?$allocator@UWeaponInfo@@@std@@QAEPAUWeaponInfo@@I@Z
_TEXT	SEGMENT
__Count$ = 8						; size = 4
?allocate@?$allocator@UWeaponInfo@@@std@@QAEPAUWeaponInfo@@I@Z PROC ; std::allocator<WeaponInfo>::allocate, COMDAT
; _this$ = ecx

; 186  : 		{	// allocate array of _Count elements

  00000	55		 push	 ebp
  00001	8b ec		 mov	 ebp, esp

; 187  : 		return (_Allocate(_Count, (pointer)0));

  00003	6a 00		 push	 0
  00005	ff 75 08	 push	 DWORD PTR __Count$[ebp]
  00008	e8 00 00 00 00	 call	 ??$_Allocate@UWeaponInfo@@@std@@YAPAUWeaponInfo@@IPAU1@@Z ; std::_Allocate<WeaponInfo>
  0000d	59		 pop	 ecx
  0000e	59		 pop	 ecx

; 188  : 		}

  0000f	5d		 pop	 ebp
  00010	c2 04 00	 ret	 4
?allocate@?$allocator@UWeaponInfo@@@std@@QAEPAUWeaponInfo@@I@Z ENDP ; std::allocator<WeaponInfo>::allocate
_TEXT	ENDS
PUBLIC	?max_size@?$vector@UForceInfo@@V?$allocator@UForceInfo@@@std@@@std@@QBEIXZ ; std::vector<ForceInfo,std::allocator<ForceInfo> >::max_size
; Function compile flags: /Ogsp
; File c:\program files (x86)\microsoft visual studio 10.0\vc\include\vector
;	COMDAT ?max_size@?$vector@UForceInfo@@V?$allocator@UForceInfo@@@std@@@std@@QBEIXZ
_TEXT	SEGMENT
?max_size@?$vector@UForceInfo@@V?$allocator@UForceInfo@@@std@@@std@@QBEIXZ PROC ; std::vector<ForceInfo,std::allocator<ForceInfo> >::max_size, COMDAT
; _this$ = ecx

; 884  : 		return (this->_Alval.max_size());

  00000	b8 55 55 55 15	 mov	 eax, 357913941		; 15555555H

; 885  : 		}

  00005	c3		 ret	 0
?max_size@?$vector@UForceInfo@@V?$allocator@UForceInfo@@@std@@@std@@QBEIXZ ENDP ; std::vector<ForceInfo,std::allocator<ForceInfo> >::max_size
_TEXT	ENDS
PUBLIC	?allocate@?$allocator@UForceInfo@@@std@@QAEPAUForceInfo@@I@Z ; std::allocator<ForceInfo>::allocate
; Function compile flags: /Ogsp
; File c:\program files (x86)\microsoft visual studio 10.0\vc\include\xmemory
;	COMDAT ?allocate@?$allocator@UForceInfo@@@std@@QAEPAUForceInfo@@I@Z
_TEXT	SEGMENT
__Count$ = 8						; size = 4
?allocate@?$allocator@UForceInfo@@@std@@QAEPAUForceInfo@@I@Z PROC ; std::allocator<ForceInfo>::allocate, COMDAT
; _this$ = ecx

; 186  : 		{	// allocate array of _Count elements

  00000	55		 push	 ebp
  00001	8b ec		 mov	 ebp, esp

; 187  : 		return (_Allocate(_Count, (pointer)0));

  00003	6a 00		 push	 0
  00005	ff 75 08	 push	 DWORD PTR __Count$[ebp]
  00008	e8 00 00 00 00	 call	 ??$_Allocate@UForceInfo@@@std@@YAPAUForceInfo@@IPAU1@@Z ; std::_Allocate<ForceInfo>
  0000d	59		 pop	 ecx
  0000e	59		 pop	 ecx

; 188  : 		}

  0000f	5d		 pop	 ebp
  00010	c2 04 00	 ret	 4
?allocate@?$allocator@UForceInfo@@@std@@QAEPAUForceInfo@@I@Z ENDP ; std::allocator<ForceInfo>::allocate
_TEXT	ENDS
PUBLIC	??0?$_Vector_iterator@V?$_Vector_val@UWeaponInfo@@V?$allocator@UWeaponInfo@@@std@@@std@@@std@@QAE@PAUWeaponInfo@@PBU_Container_base0@1@@Z ; std::_Vector_iterator<std::_Vector_val<WeaponInfo,std::allocator<WeaponInfo> > >::_Vector_iterator<std::_Vector_val<WeaponInfo,std::allocator<WeaponInfo> > >
; Function compile flags: /Ogsp
; File c:\program files (x86)\microsoft visual studio 10.0\vc\include\vector
;	COMDAT ??0?$_Vector_iterator@V?$_Vector_val@UWeaponInfo@@V?$allocator@UWeaponInfo@@@std@@@std@@@std@@QAE@PAUWeaponInfo@@PBU_Container_base0@1@@Z
_TEXT	SEGMENT
__Parg$ = 8						; size = 4
__Pvector$ = 12						; size = 4
??0?$_Vector_iterator@V?$_Vector_val@UWeaponInfo@@V?$allocator@UWeaponInfo@@@std@@@std@@@std@@QAE@PAUWeaponInfo@@PBU_Container_base0@1@@Z PROC ; std::_Vector_iterator<std::_Vector_val<WeaponInfo,std::allocator<WeaponInfo> > >::_Vector_iterator<std::_Vector_val<WeaponInfo,std::allocator<WeaponInfo> > >, COMDAT
; _this$ = ecx

; 304  : 		{	// construct with pointer _Parg

  00000	55		 push	 ebp
  00001	8b ec		 mov	 ebp, esp
  00003	8b c1		 mov	 eax, ecx
  00005	8b 4d 08	 mov	 ecx, DWORD PTR __Parg$[ebp]
  00008	89 08		 mov	 DWORD PTR [eax], ecx

; 305  : 		}

  0000a	5d		 pop	 ebp
  0000b	c2 08 00	 ret	 8
??0?$_Vector_iterator@V?$_Vector_val@UWeaponInfo@@V?$allocator@UWeaponInfo@@@std@@@std@@@std@@QAE@PAUWeaponInfo@@PBU_Container_base0@1@@Z ENDP ; std::_Vector_iterator<std::_Vector_val<WeaponInfo,std::allocator<WeaponInfo> > >::_Vector_iterator<std::_Vector_val<WeaponInfo,std::allocator<WeaponInfo> > >
_TEXT	ENDS
PUBLIC	??0?$_Vector_iterator@V?$_Vector_val@UForceInfo@@V?$allocator@UForceInfo@@@std@@@std@@@std@@QAE@PAUForceInfo@@PBU_Container_base0@1@@Z ; std::_Vector_iterator<std::_Vector_val<ForceInfo,std::allocator<ForceInfo> > >::_Vector_iterator<std::_Vector_val<ForceInfo,std::allocator<ForceInfo> > >
; Function compile flags: /Ogsp
;	COMDAT ??0?$_Vector_iterator@V?$_Vector_val@UForceInfo@@V?$allocator@UForceInfo@@@std@@@std@@@std@@QAE@PAUForceInfo@@PBU_Container_base0@1@@Z
_TEXT	SEGMENT
__Parg$ = 8						; size = 4
__Pvector$ = 12						; size = 4
??0?$_Vector_iterator@V?$_Vector_val@UForceInfo@@V?$allocator@UForceInfo@@@std@@@std@@@std@@QAE@PAUForceInfo@@PBU_Container_base0@1@@Z PROC ; std::_Vector_iterator<std::_Vector_val<ForceInfo,std::allocator<ForceInfo> > >::_Vector_iterator<std::_Vector_val<ForceInfo,std::allocator<ForceInfo> > >, COMDAT
; _this$ = ecx

; 304  : 		{	// construct with pointer _Parg

  00000	55		 push	 ebp
  00001	8b ec		 mov	 ebp, esp
  00003	8b c1		 mov	 eax, ecx
  00005	8b 4d 08	 mov	 ecx, DWORD PTR __Parg$[ebp]
  00008	89 08		 mov	 DWORD PTR [eax], ecx

; 305  : 		}

  0000a	5d		 pop	 ebp
  0000b	c2 08 00	 ret	 8
??0?$_Vector_iterator@V?$_Vector_val@UForceInfo@@V?$allocator@UForceInfo@@@std@@@std@@@std@@QAE@PAUForceInfo@@PBU_Container_base0@1@@Z ENDP ; std::_Vector_iterator<std::_Vector_val<ForceInfo,std::allocator<ForceInfo> > >::_Vector_iterator<std::_Vector_val<ForceInfo,std::allocator<ForceInfo> > >
_TEXT	ENDS
PUBLIC	??8?$_Vector_const_iterator@V?$_Vector_val@UWeaponInfo@@V?$allocator@UWeaponInfo@@@std@@@std@@@std@@QBE_NABV01@@Z ; std::_Vector_const_iterator<std::_Vector_val<WeaponInfo,std::allocator<WeaponInfo> > >::operator==
; Function compile flags: /Ogsp
;	COMDAT ??8?$_Vector_const_iterator@V?$_Vector_val@UWeaponInfo@@V?$allocator@UWeaponInfo@@@std@@@std@@@std@@QBE_NABV01@@Z
_TEXT	SEGMENT
__Right$ = 8						; size = 4
??8?$_Vector_const_iterator@V?$_Vector_val@UWeaponInfo@@V?$allocator@UWeaponInfo@@@std@@@std@@@std@@QBE_NABV01@@Z PROC ; std::_Vector_const_iterator<std::_Vector_val<WeaponInfo,std::allocator<WeaponInfo> > >::operator==, COMDAT
; _this$ = ecx

; 201  : 		{	// test for iterator equality

  00000	55		 push	 ebp
  00001	8b ec		 mov	 ebp, esp

; 202  : 		_Compat(_Right);
; 203  : 		return (this->_Ptr == _Right._Ptr);

  00003	8b 01		 mov	 eax, DWORD PTR [ecx]
  00005	8b 4d 08	 mov	 ecx, DWORD PTR __Right$[ebp]
  00008	2b 01		 sub	 eax, DWORD PTR [ecx]
  0000a	f7 d8		 neg	 eax
  0000c	1b c0		 sbb	 eax, eax
  0000e	40		 inc	 eax

; 204  : 		}

  0000f	5d		 pop	 ebp
  00010	c2 04 00	 ret	 4
??8?$_Vector_const_iterator@V?$_Vector_val@UWeaponInfo@@V?$allocator@UWeaponInfo@@@std@@@std@@@std@@QBE_NABV01@@Z ENDP ; std::_Vector_const_iterator<std::_Vector_val<WeaponInfo,std::allocator<WeaponInfo> > >::operator==
_TEXT	ENDS
PUBLIC	??8?$_Vector_const_iterator@V?$_Vector_val@UForceInfo@@V?$allocator@UForceInfo@@@std@@@std@@@std@@QBE_NABV01@@Z ; std::_Vector_const_iterator<std::_Vector_val<ForceInfo,std::allocator<ForceInfo> > >::operator==
; Function compile flags: /Ogsp
;	COMDAT ??8?$_Vector_const_iterator@V?$_Vector_val@UForceInfo@@V?$allocator@UForceInfo@@@std@@@std@@@std@@QBE_NABV01@@Z
_TEXT	SEGMENT
__Right$ = 8						; size = 4
??8?$_Vector_const_iterator@V?$_Vector_val@UForceInfo@@V?$allocator@UForceInfo@@@std@@@std@@@std@@QBE_NABV01@@Z PROC ; std::_Vector_const_iterator<std::_Vector_val<ForceInfo,std::allocator<ForceInfo> > >::operator==, COMDAT
; _this$ = ecx

; 201  : 		{	// test for iterator equality

  00000	55		 push	 ebp
  00001	8b ec		 mov	 ebp, esp

; 202  : 		_Compat(_Right);
; 203  : 		return (this->_Ptr == _Right._Ptr);

  00003	8b 01		 mov	 eax, DWORD PTR [ecx]
  00005	8b 4d 08	 mov	 ecx, DWORD PTR __Right$[ebp]
  00008	2b 01		 sub	 eax, DWORD PTR [ecx]
  0000a	f7 d8		 neg	 eax
  0000c	1b c0		 sbb	 eax, eax
  0000e	40		 inc	 eax

; 204  : 		}

  0000f	5d		 pop	 ebp
  00010	c2 04 00	 ret	 4
??8?$_Vector_const_iterator@V?$_Vector_val@UForceInfo@@V?$allocator@UForceInfo@@@std@@@std@@@std@@QBE_NABV01@@Z ENDP ; std::_Vector_const_iterator<std::_Vector_val<ForceInfo,std::allocator<ForceInfo> > >::operator==
_TEXT	ENDS
PUBLIC	?destroy@?$allocator@UForceInfo@@@std@@QAEXPAUForceInfo@@@Z ; std::allocator<ForceInfo>::destroy
; Function compile flags: /Ogsp
; File c:\program files (x86)\microsoft visual studio 10.0\vc\include\xmemory
;	COMDAT ?destroy@?$allocator@UForceInfo@@@std@@QAEXPAUForceInfo@@@Z
_TEXT	SEGMENT
__Ptr$ = 8						; size = 4
?destroy@?$allocator@UForceInfo@@@std@@QAEXPAUForceInfo@@@Z PROC ; std::allocator<ForceInfo>::destroy, COMDAT
; _this$ = ecx

; 213  : 		_Destroy(_Ptr);
; 214  : 		}

  00000	c2 04 00	 ret	 4
?destroy@?$allocator@UForceInfo@@@std@@QAEXPAUForceInfo@@@Z ENDP ; std::allocator<ForceInfo>::destroy
_TEXT	ENDS
PUBLIC	??$_Move@PAUWeaponInfo@@PAU1@@std@@YAPAUWeaponInfo@@PAU1@00U_Nonscalar_ptr_iterator_tag@0@@Z ; std::_Move<WeaponInfo *,WeaponInfo *>
; Function compile flags: /Ogsp
; File c:\program files (x86)\microsoft visual studio 10.0\vc\include\xutility
;	COMDAT ??$_Move@PAUWeaponInfo@@PAU1@@std@@YAPAUWeaponInfo@@PAU1@00U_Nonscalar_ptr_iterator_tag@0@@Z
_TEXT	SEGMENT
__First$ = 8						; size = 4
__Last$ = 12						; size = 4
__Dest$ = 16						; size = 4
___formal$ = 20						; size = 1
??$_Move@PAUWeaponInfo@@PAU1@@std@@YAPAUWeaponInfo@@PAU1@00U_Nonscalar_ptr_iterator_tag@0@@Z PROC ; std::_Move<WeaponInfo *,WeaponInfo *>, COMDAT

; 2512 : 	{	// move [_First, _Last) to [_Dest, ...), arbitrary iterators

  00000	55		 push	 ebp
  00001	8b ec		 mov	 ebp, esp
  00003	56		 push	 esi

; 2513 : 	for (; _First != _Last; ++_Dest, ++_First)

  00004	8b 75 08	 mov	 esi, DWORD PTR __First$[ebp]
  00007	eb 10		 jmp	 SHORT $LN11@Move
$LL3@Move:

; 2514 : 		*_Dest = _STD move(*_First);

  00009	8b 4d 10	 mov	 ecx, DWORD PTR __Dest$[ebp]
  0000c	56		 push	 esi
  0000d	e8 00 00 00 00	 call	 ??4WeaponInfo@@QAEAAU0@ABU0@@Z
  00012	83 45 10 28	 add	 DWORD PTR __Dest$[ebp], 40 ; 00000028H
  00016	83 c6 28	 add	 esi, 40			; 00000028H
$LN11@Move:

; 2513 : 	for (; _First != _Last; ++_Dest, ++_First)

  00019	3b 75 0c	 cmp	 esi, DWORD PTR __Last$[ebp]
  0001c	75 eb		 jne	 SHORT $LL3@Move

; 2515 : 	return (_Dest);

  0001e	8b 45 10	 mov	 eax, DWORD PTR __Dest$[ebp]
  00021	5e		 pop	 esi

; 2516 : 	}

  00022	5d		 pop	 ebp
  00023	c3		 ret	 0
??$_Move@PAUWeaponInfo@@PAU1@@std@@YAPAUWeaponInfo@@PAU1@00U_Nonscalar_ptr_iterator_tag@0@@Z ENDP ; std::_Move<WeaponInfo *,WeaponInfo *>
_TEXT	ENDS
PUBLIC	??$_Move@PAUForceInfo@@PAU1@@std@@YAPAUForceInfo@@PAU1@00U_Nonscalar_ptr_iterator_tag@0@@Z ; std::_Move<ForceInfo *,ForceInfo *>
; Function compile flags: /Ogsp
;	COMDAT ??$_Move@PAUForceInfo@@PAU1@@std@@YAPAUForceInfo@@PAU1@00U_Nonscalar_ptr_iterator_tag@0@@Z
_TEXT	SEGMENT
__First$ = 8						; size = 4
__Last$ = 12						; size = 4
__Dest$ = 16						; size = 4
___formal$ = 20						; size = 1
??$_Move@PAUForceInfo@@PAU1@@std@@YAPAUForceInfo@@PAU1@00U_Nonscalar_ptr_iterator_tag@0@@Z PROC ; std::_Move<ForceInfo *,ForceInfo *>, COMDAT

; 2512 : 	{	// move [_First, _Last) to [_Dest, ...), arbitrary iterators

  00000	55		 push	 ebp
  00001	8b ec		 mov	 ebp, esp

; 2513 : 	for (; _First != _Last; ++_Dest, ++_First)

  00003	8b 45 08	 mov	 eax, DWORD PTR __First$[ebp]
  00006	3b 45 0c	 cmp	 eax, DWORD PTR __Last$[ebp]
  00009	74 18		 je	 SHORT $LN10@Move@2
  0000b	56		 push	 esi
  0000c	57		 push	 edi
$LL3@Move@2:

; 2514 : 		*_Dest = _STD move(*_First);

  0000d	8b 7d 10	 mov	 edi, DWORD PTR __Dest$[ebp]
  00010	83 45 10 0c	 add	 DWORD PTR __Dest$[ebp], 12 ; 0000000cH
  00014	8b f0		 mov	 esi, eax
  00016	a5		 movsd
  00017	a5		 movsd
  00018	83 c0 0c	 add	 eax, 12			; 0000000cH
  0001b	a5		 movsd
  0001c	3b 45 0c	 cmp	 eax, DWORD PTR __Last$[ebp]
  0001f	75 ec		 jne	 SHORT $LL3@Move@2
  00021	5f		 pop	 edi
  00022	5e		 pop	 esi
$LN10@Move@2:

; 2515 : 	return (_Dest);

  00023	8b 45 10	 mov	 eax, DWORD PTR __Dest$[ebp]

; 2516 : 	}

  00026	5d		 pop	 ebp
  00027	c3		 ret	 0
??$_Move@PAUForceInfo@@PAU1@@std@@YAPAUForceInfo@@PAU1@00U_Nonscalar_ptr_iterator_tag@0@@Z ENDP ; std::_Move<ForceInfo *,ForceInfo *>
_TEXT	ENDS
PUBLIC	??$_Destroy@UWeaponInfo@@@std@@YAXPAUWeaponInfo@@@Z ; std::_Destroy<WeaponInfo>
; Function compile flags: /Ogsp
; File c:\program files (x86)\microsoft visual studio 10.0\vc\include\xmemory
;	COMDAT ??$_Destroy@UWeaponInfo@@@std@@YAXPAUWeaponInfo@@@Z
_TEXT	SEGMENT
__Ptr$ = 8						; size = 4
??$_Destroy@UWeaponInfo@@@std@@YAXPAUWeaponInfo@@@Z PROC ; std::_Destroy<WeaponInfo>, COMDAT

; 62   : 	{	// destroy object at _Ptr

  00000	55		 push	 ebp
  00001	8b ec		 mov	 ebp, esp

; 63   : 	_Ptr->~_Ty();

  00003	8b 4d 08	 mov	 ecx, DWORD PTR __Ptr$[ebp]
  00006	83 c1 08	 add	 ecx, 8

; 64   : 	}

  00009	5d		 pop	 ebp

; 63   : 	_Ptr->~_Ty();

  0000a	ff 25 00 00 00
	00		 jmp	 DWORD PTR __imp_??1ioHashString@@QAE@XZ
??$_Destroy@UWeaponInfo@@@std@@YAXPAUWeaponInfo@@@Z ENDP ; std::_Destroy<WeaponInfo>
_TEXT	ENDS
PUBLIC	??$_Cons_val@V?$allocator@UForceInfo@@@std@@UForceInfo@@AAU3@@std@@YAXAAV?$allocator@UForceInfo@@@0@PAUForceInfo@@AAU2@@Z ; std::_Cons_val<std::allocator<ForceInfo>,ForceInfo,ForceInfo &>
; Function compile flags: /Ogsp
;	COMDAT ??$_Cons_val@V?$allocator@UForceInfo@@@std@@UForceInfo@@AAU3@@std@@YAXAAV?$allocator@UForceInfo@@@0@PAUForceInfo@@AAU2@@Z
_TEXT	SEGMENT
__Alval$ = 8						; size = 4
__Pdest$ = 12						; size = 4
__Src$ = 16						; size = 4
??$_Cons_val@V?$allocator@UForceInfo@@@std@@UForceInfo@@AAU3@@std@@YAXAAV?$allocator@UForceInfo@@@0@PAUForceInfo@@AAU2@@Z PROC ; std::_Cons_val<std::allocator<ForceInfo>,ForceInfo,ForceInfo &>, COMDAT

; 279  : 	{	// construct using allocator

  00000	55		 push	 ebp
  00001	8b ec		 mov	 ebp, esp
  00003	57		 push	 edi

; 280  : 	_Alval.construct(_Pdest, _STD forward<_Ty2>(_Src));

  00004	8b 7d 0c	 mov	 edi, DWORD PTR __Pdest$[ebp]
  00007	85 ff		 test	 edi, edi
  00009	74 08		 je	 SHORT $LN7@Cons_val
  0000b	56		 push	 esi
  0000c	8b 75 10	 mov	 esi, DWORD PTR __Src$[ebp]
  0000f	a5		 movsd
  00010	a5		 movsd
  00011	a5		 movsd
  00012	5e		 pop	 esi
$LN7@Cons_val:
  00013	5f		 pop	 edi

; 281  : 	}

  00014	5d		 pop	 ebp
  00015	c3		 ret	 0
??$_Cons_val@V?$allocator@UForceInfo@@@std@@UForceInfo@@AAU3@@std@@YAXAAV?$allocator@UForceInfo@@@0@PAUForceInfo@@AAU2@@Z ENDP ; std::_Cons_val<std::allocator<ForceInfo>,ForceInfo,ForceInfo &>
_TEXT	ENDS
PUBLIC	??$construct@AAUWeaponInfo@@@?$allocator@UWeaponInfo@@@std@@QAEXPAUWeaponInfo@@AAU2@@Z ; std::allocator<WeaponInfo>::construct<WeaponInfo &>
;	COMDAT xdata$x
; File c:\program files (x86)\microsoft visual studio 10.0\vc\include\utility
xdata$x	SEGMENT
__unwindtable$??$construct@AAUWeaponInfo@@@?$allocator@UWeaponInfo@@@std@@QAEXPAUWeaponInfo@@AAU2@@Z DD 0ffffffffH
	DD	FLAT:__unwindfunclet$??$construct@AAUWeaponInfo@@@?$allocator@UWeaponInfo@@@std@@QAEXPAUWeaponInfo@@AAU2@@Z$0
__ehfuncinfo$??$construct@AAUWeaponInfo@@@?$allocator@UWeaponInfo@@@std@@QAEXPAUWeaponInfo@@AAU2@@Z DD 019930522H
	DD	01H
	DD	FLAT:__unwindtable$??$construct@AAUWeaponInfo@@@?$allocator@UWeaponInfo@@@std@@QAEXPAUWeaponInfo@@AAU2@@Z
	DD	2 DUP(00H)
	DD	2 DUP(00H)
	DD	00H
	DD	01H
; Function compile flags: /Ogsp
; File c:\program files (x86)\microsoft visual studio 10.0\vc\include\xmemory
xdata$x	ENDS
;	COMDAT ??$construct@AAUWeaponInfo@@@?$allocator@UWeaponInfo@@@std@@QAEXPAUWeaponInfo@@AAU2@@Z
_TEXT	SEGMENT
$T557107 = -16						; size = 4
__$EHRec$ = -12						; size = 12
__Ptr$ = 8						; size = 4
__Val$ = 12						; size = 4
??$construct@AAUWeaponInfo@@@?$allocator@UWeaponInfo@@@std@@QAEXPAUWeaponInfo@@AAU2@@Z PROC ; std::allocator<WeaponInfo>::construct<WeaponInfo &>, COMDAT
; _this$ = ecx

; 206  : 		void construct(pointer _Ptr, _Other&& _Val)

  00000	6a 04		 push	 4
  00002	b8 00 00 00 00	 mov	 eax, __ehhandler$??$construct@AAUWeaponInfo@@@?$allocator@UWeaponInfo@@@std@@QAEXPAUWeaponInfo@@AAU2@@Z
  00007	e8 00 00 00 00	 call	 __EH_prolog3

; 207  : 		{	// construct object at _Ptr with value _Val
; 208  : 		::new ((void _FARQ *)_Ptr) _Ty(_STD forward<_Other>(_Val));

  0000c	8b 4d 08	 mov	 ecx, DWORD PTR __Ptr$[ebp]
  0000f	89 4d f0	 mov	 DWORD PTR $T557107[ebp], ecx
  00012	83 65 fc 00	 and	 DWORD PTR __$EHRec$[ebp+8], 0
  00016	85 c9		 test	 ecx, ecx
  00018	74 08		 je	 SHORT $LN3@construct@5
  0001a	ff 75 0c	 push	 DWORD PTR __Val$[ebp]
  0001d	e8 00 00 00 00	 call	 ??0WeaponInfo@@QAE@ABU0@@Z
$LN3@construct@5:

; 209  : 		}

  00022	e8 00 00 00 00	 call	 __EH_epilog3
  00027	c2 08 00	 ret	 8
_TEXT	ENDS
;	COMDAT text$x
text$x	SEGMENT
__unwindfunclet$??$construct@AAUWeaponInfo@@@?$allocator@UWeaponInfo@@@std@@QAEXPAUWeaponInfo@@AAU2@@Z$0:
  00000	ff 75 08	 push	 DWORD PTR __Ptr$[ebp]
  00003	ff 75 f0	 push	 DWORD PTR $T557107[ebp]
  00006	e8 00 00 00 00	 call	 ??3@YAXPAX0@Z		; operator delete
  0000b	59		 pop	 ecx
  0000c	59		 pop	 ecx
  0000d	c3		 ret	 0
__ehhandler$??$construct@AAUWeaponInfo@@@?$allocator@UWeaponInfo@@@std@@QAEXPAUWeaponInfo@@AAU2@@Z:
  0000e	8b 54 24 08	 mov	 edx, DWORD PTR [esp+8]
  00012	8d 42 0c	 lea	 eax, DWORD PTR [edx+12]
  00015	8b 4a ec	 mov	 ecx, DWORD PTR [edx-20]
  00018	33 c8		 xor	 ecx, eax
  0001a	e8 00 00 00 00	 call	 @__security_check_cookie@4
  0001f	b8 00 00 00 00	 mov	 eax, OFFSET __ehfuncinfo$??$construct@AAUWeaponInfo@@@?$allocator@UWeaponInfo@@@std@@QAEXPAUWeaponInfo@@AAU2@@Z
  00024	e9 00 00 00 00	 jmp	 ___CxxFrameHandler3
text$x	ENDS
??$construct@AAUWeaponInfo@@@?$allocator@UWeaponInfo@@@std@@QAEXPAUWeaponInfo@@AAU2@@Z ENDP ; std::allocator<WeaponInfo>::construct<WeaponInfo &>
PUBLIC	?SetGravityAmt@ioBaseChar@@QAEXM@Z		; ioBaseChar::SetGravityAmt
; Function compile flags: /Ogsp
; File d:\lost saga for developer\youtube\tutorial\source\src\lsclient\iobasechar.h
;	COMDAT ?SetGravityAmt@ioBaseChar@@QAEXM@Z
_TEXT	SEGMENT
_value$557128 = 8					; size = 4
_fAmt$ = 8						; size = 4
?SetGravityAmt@ioBaseChar@@QAEXM@Z PROC			; ioBaseChar::SetGravityAmt, COMDAT
; _this$ = ecx

; 2631 : 	inline void SetGravityAmt( float fAmt ) { m_fGravityAmt = fAmt; }

  00000	55		 push	 ebp
  00001	8b ec		 mov	 ebp, esp
  00003	f3 0f 10 45 08	 movss	 xmm0, DWORD PTR _fAmt$[ebp]
  00008	8d 45 08	 lea	 eax, DWORD PTR _value$557128[ebp]
  0000b	50		 push	 eax
  0000c	81 c1 e8 0b 00
	00		 add	 ecx, 3048		; 00000be8H
  00012	f3 0f 11 45 08	 movss	 DWORD PTR _value$557128[ebp], xmm0
  00017	e8 00 00 00 00	 call	 ?EncryptValueToPool@?$CEncrypt@M@@AAEXPBD@Z ; CEncrypt<float>::EncryptValueToPool
  0001c	5d		 pop	 ebp
  0001d	c2 04 00	 ret	 4
?SetGravityAmt@ioBaseChar@@QAEXM@Z ENDP			; ioBaseChar::SetGravityAmt
_TEXT	ENDS
PUBLIC	??_C@_00CNPNBAHC@?$AA@				; `string'
PUBLIC	?OnSkillEnd@ioCircleMoveAttackSkill@@UAEXPAVioBaseChar@@@Z ; ioCircleMoveAttackSkill::OnSkillEnd
EXTRN	?DestroyMagicCircle@ioBaseGUISupport@@QAEXXZ:PROC ; ioBaseGUISupport::DestroyMagicCircle
EXTRN	?EndMapEffect@ioBaseChar@@QAEXK_N@Z:PROC	; ioBaseChar::EndMapEffect
EXTRN	?SetMagicCircleTarget@ioBaseGUISupport@@QAEXABVioHashString@@@Z:PROC ; ioBaseGUISupport::SetMagicCircleTarget
EXTRN	?EndCameraBuff@ioSkill@@IAEXPAVioBaseChar@@@Z:PROC ; ioSkill::EndCameraBuff
EXTRN	?RestoreSkillWeaponMesh@ioBaseChar@@QAE_NPAVioSkill@@ABVioHashString@@_N2@Z:PROC ; ioBaseChar::RestoreSkillWeaponMesh
EXTRN	__imp_?IsEmpty@ioHashString@@QBE_NXZ:PROC
EXTRN	?ShowWeaponItemMesh@ioBaseChar@@QAEX_N0@Z:PROC	; ioBaseChar::ShowWeaponItemMesh
EXTRN	?OnSkillEnd@ioNormalSkill@@UAEXPAVioBaseChar@@@Z:PROC ; ioNormalSkill::OnSkillEnd
;	COMDAT ??_C@_00CNPNBAHC@?$AA@
; File d:\lost saga for developer\youtube\tutorial\source\src\lsclient\encryptvalue.h
CONST	SEGMENT
??_C@_00CNPNBAHC@?$AA@ DB 00H				; `string'
CONST	ENDS
;	COMDAT xdata$x
xdata$x	SEGMENT
__unwindtable$?OnSkillEnd@ioCircleMoveAttackSkill@@UAEXPAVioBaseChar@@@Z DD 0ffffffffH
	DD	FLAT:__unwindfunclet$?OnSkillEnd@ioCircleMoveAttackSkill@@UAEXPAVioBaseChar@@@Z$0
__ehfuncinfo$?OnSkillEnd@ioCircleMoveAttackSkill@@UAEXPAVioBaseChar@@@Z DD 019930522H
	DD	01H
	DD	FLAT:__unwindtable$?OnSkillEnd@ioCircleMoveAttackSkill@@UAEXPAVioBaseChar@@@Z
	DD	2 DUP(00H)
	DD	2 DUP(00H)
	DD	00H
	DD	01H
; Function compile flags: /Ogsp
; File d:\lost saga for developer\youtube\tutorial\source\src\lsclient\iocirclemoveattackskill.cpp
xdata$x	ENDS
;	COMDAT ?OnSkillEnd@ioCircleMoveAttackSkill@@UAEXPAVioBaseChar@@@Z
_TEXT	SEGMENT
$T557131 = -36						; size = 16
_value$557140 = -20					; size = 4
tv235 = -16						; size = 4
__$EHRec$ = -12						; size = 12
_value$557136 = 8					; size = 4
_pChar$ = 8						; size = 4
?OnSkillEnd@ioCircleMoveAttackSkill@@UAEXPAVioBaseChar@@@Z PROC ; ioCircleMoveAttackSkill::OnSkillEnd, COMDAT
; _this$ = ecx

; 280  : {

  00000	6a 18		 push	 24			; 00000018H
  00002	b8 00 00 00 00	 mov	 eax, __ehhandler$?OnSkillEnd@ioCircleMoveAttackSkill@@UAEXPAVioBaseChar@@@Z
  00007	e8 00 00 00 00	 call	 __EH_prolog3
  0000c	8b f1		 mov	 esi, ecx

; 281  : 	ioNormalSkill::OnSkillEnd( pChar );

  0000e	8b 7d 08	 mov	 edi, DWORD PTR _pChar$[ebp]
  00011	57		 push	 edi
  00012	e8 00 00 00 00	 call	 ?OnSkillEnd@ioNormalSkill@@UAEXPAVioBaseChar@@@Z ; ioNormalSkill::OnSkillEnd

; 282  : 
; 283  : 	//  
; 284  : 	if( m_bUseItemMesh )

  00017	33 db		 xor	 ebx, ebx
  00019	38 9e 08 0f 00
	00		 cmp	 BYTE PTR [esi+3848], bl
  0001f	74 0a		 je	 SHORT $LN4@OnSkillEnd

; 285  : 	{
; 286  : 		pChar->ShowWeaponItemMesh( true );

  00021	53		 push	 ebx
  00022	6a 01		 push	 1
  00024	8b cf		 mov	 ecx, edi
  00026	e8 00 00 00 00	 call	 ?ShowWeaponItemMesh@ioBaseChar@@QAEX_N0@Z ; ioBaseChar::ShowWeaponItemMesh
$LN4@OnSkillEnd:

; 287  : 	}
; 288  : 
; 289  : 	//      
; 290  : 	m_bSetHandMesh = false;
; 291  : 	if( !m_HandMesh.IsEmpty() )

  0002b	8d 8e f8 0e 00
	00		 lea	 ecx, DWORD PTR [esi+3832]
  00031	88 9e 0a 0f 00
	00		 mov	 BYTE PTR [esi+3850], bl
  00037	ff 15 00 00 00
	00		 call	 DWORD PTR __imp_?IsEmpty@ioHashString@@QBE_NXZ
  0003d	84 c0		 test	 al, al
  0003f	75 18		 jne	 SHORT $LN3@OnSkillEnd

; 292  : 		pChar->RestoreSkillWeaponMesh( this, m_HandMesh, m_bVisibleEquipMesh );

  00041	0f b6 86 09 0f
	00 00		 movzx	 eax, BYTE PTR [esi+3849]
  00048	53		 push	 ebx
  00049	50		 push	 eax
  0004a	8d 86 f8 0e 00
	00		 lea	 eax, DWORD PTR [esi+3832]
  00050	50		 push	 eax
  00051	56		 push	 esi
  00052	8b cf		 mov	 ecx, edi
  00054	e8 00 00 00 00	 call	 ?RestoreSkillWeaponMesh@ioBaseChar@@QAE_NPAVioSkill@@ABVioHashString@@_N2@Z ; ioBaseChar::RestoreSkillWeaponMesh
$LN3@OnSkillEnd:

; 293  : 
; 294  : 	EndCameraBuff( pChar );

  00059	57		 push	 edi
  0005a	8b ce		 mov	 ecx, esi
  0005c	e8 00 00 00 00	 call	 ?EndCameraBuff@ioSkill@@IAEXPAVioBaseChar@@@Z ; ioSkill::EndCameraBuff

; 295  : 
; 296  : 	pChar->SetMagicCircleTarget( "" );

  00061	68 00 00 00 00	 push	 OFFSET ??_C@_00CNPNBAHC@?$AA@
  00066	8d 4d dc	 lea	 ecx, DWORD PTR $T557131[ebp]
  00069	ff 15 00 00 00
	00		 call	 DWORD PTR __imp_??0ioHashString@@QAE@PBD@Z
  0006f	8d 45 dc	 lea	 eax, DWORD PTR $T557131[ebp]
  00072	8d 8f cc 01 00
	00		 lea	 ecx, DWORD PTR [edi+460]
  00078	50		 push	 eax
  00079	89 5d fc	 mov	 DWORD PTR __$EHRec$[ebp+8], ebx
  0007c	89 4d f0	 mov	 DWORD PTR tv235[ebp], ecx
  0007f	e8 00 00 00 00	 call	 ?SetMagicCircleTarget@ioBaseGUISupport@@QAEXABVioHashString@@@Z ; ioBaseGUISupport::SetMagicCircleTarget
  00084	83 4d fc ff	 or	 DWORD PTR __$EHRec$[ebp+8], -1
  00088	8d 4d dc	 lea	 ecx, DWORD PTR $T557131[ebp]
  0008b	ff 15 00 00 00
	00		 call	 DWORD PTR __imp_??1ioHashString@@QAE@XZ

; 297  : 
; 298  : 	//DestroyMapEffect
; 299  : 	if( m_dwCurMapEffect != -1 )

  00091	8b 86 a0 10 00
	00		 mov	 eax, DWORD PTR [esi+4256]
  00097	83 f8 ff	 cmp	 eax, -1
  0009a	74 09		 je	 SHORT $LN2@OnSkillEnd

; 300  : 		pChar->EndMapEffect( m_dwCurMapEffect, false );

  0009c	53		 push	 ebx
  0009d	50		 push	 eax
  0009e	8b cf		 mov	 ecx, edi
  000a0	e8 00 00 00 00	 call	 ?EndMapEffect@ioBaseChar@@QAEXK_N@Z ; ioBaseChar::EndMapEffect
$LN2@OnSkillEnd:

; 301  : 
; 302  : 	if( m_dwTargetCircleEffect != -1 )

  000a5	8b 86 a4 10 00
	00		 mov	 eax, DWORD PTR [esi+4260]
  000ab	83 f8 ff	 cmp	 eax, -1
  000ae	74 0a		 je	 SHORT $LN1@OnSkillEnd

; 303  : 		pChar->EndMapEffect( m_dwTargetCircleEffect, false );

  000b0	8b 4d 08	 mov	 ecx, DWORD PTR _pChar$[ebp]
  000b3	53		 push	 ebx
  000b4	50		 push	 eax
  000b5	e8 00 00 00 00	 call	 ?EndMapEffect@ioBaseChar@@QAEXK_N@Z ; ioBaseChar::EndMapEffect
$LN1@OnSkillEnd:

; 304  : 
; 305  : 	m_dwCurMapEffect = -1;
; 306  : 	m_dwTargetCircleEffect = -1;
; 307  : 
; 308  : 	pChar->DestroyMagicCircle();

  000ba	8b 4d f0	 mov	 ecx, DWORD PTR tv235[ebp]
  000bd	83 8e a0 10 00
	00 ff		 or	 DWORD PTR [esi+4256], -1
  000c4	83 8e a4 10 00
	00 ff		 or	 DWORD PTR [esi+4260], -1
  000cb	e8 00 00 00 00	 call	 ?DestroyMagicCircle@ioBaseGUISupport@@QAEXXZ ; ioBaseGUISupport::DestroyMagicCircle

; 309  : 
; 310  : 	m_dwMotionEndTime = 0;
; 311  : 	m_dwMotionStartTime = 0;

  000d0	8d 45 08	 lea	 eax, DWORD PTR _value$557136[ebp]
  000d3	50		 push	 eax
  000d4	8d 8e a8 02 00
	00		 lea	 ecx, DWORD PTR [esi+680]
  000da	89 9e d8 02 00
	00		 mov	 DWORD PTR [esi+728], ebx
  000e0	89 5d 08	 mov	 DWORD PTR _value$557136[ebp], ebx
  000e3	e8 00 00 00 00	 call	 ?EncryptValueToPool@?$CEncrypt@K@@AAEXPBD@Z ; CEncrypt<unsigned long>::EncryptValueToPool

; 312  : 	m_State = SS_NONE;

  000e8	8d 45 ec	 lea	 eax, DWORD PTR _value$557140[ebp]
  000eb	50		 push	 eax
  000ec	8d 8e 58 0f 00
	00		 lea	 ecx, DWORD PTR [esi+3928]
  000f2	89 5d ec	 mov	 DWORD PTR _value$557140[ebp], ebx
  000f5	e8 00 00 00 00	 call	 ?EncryptValueToPool@?$CEncrypt@H@@AAEXPBD@Z ; CEncrypt<int>::EncryptValueToPool

; 313  : }

  000fa	e8 00 00 00 00	 call	 __EH_epilog3
  000ff	c2 04 00	 ret	 4
_TEXT	ENDS
;	COMDAT text$x
text$x	SEGMENT
__unwindfunclet$?OnSkillEnd@ioCircleMoveAttackSkill@@UAEXPAVioBaseChar@@@Z$0:
  00000	8d 4d dc	 lea	 ecx, DWORD PTR $T557131[ebp]
  00003	ff 25 00 00 00
	00		 jmp	 DWORD PTR __imp_??1ioHashString@@QAE@XZ
__ehhandler$?OnSkillEnd@ioCircleMoveAttackSkill@@UAEXPAVioBaseChar@@@Z:
  00009	8b 54 24 08	 mov	 edx, DWORD PTR [esp+8]
  0000d	8d 42 0c	 lea	 eax, DWORD PTR [edx+12]
  00010	8b 4a d8	 mov	 ecx, DWORD PTR [edx-40]
  00013	33 c8		 xor	 ecx, eax
  00015	e8 00 00 00 00	 call	 @__security_check_cookie@4
  0001a	b8 00 00 00 00	 mov	 eax, OFFSET __ehfuncinfo$?OnSkillEnd@ioCircleMoveAttackSkill@@UAEXPAVioBaseChar@@@Z
  0001f	e9 00 00 00 00	 jmp	 ___CxxFrameHandler3
text$x	ENDS
?OnSkillEnd@ioCircleMoveAttackSkill@@UAEXPAVioBaseChar@@@Z ENDP ; ioCircleMoveAttackSkill::OnSkillEnd
PUBLIC	__real@40a00000
PUBLIC	?SetNormalSkill@ioCircleMoveAttackSkill@@MAEXPAVioBaseChar@@@Z ; ioCircleMoveAttackSkill::SetNormalSkill
EXTRN	?ReduceNeedGaugeBySkill@ioBaseChar@@QAEMPAVioSkill@@M@Z:PROC ; ioBaseChar::ReduceNeedGaugeBySkill
EXTRN	?GetNeedGauge@ioSkill@@QAEMABVioHashString@@@Z:PROC ; ioSkill::GetNeedGauge
EXTRN	?AttachEffect@ioBaseChar@@QAEPAVioEffect@@ABVioHashString@@PAVioEntityEvent@@_N@Z:PROC ; ioBaseChar::AttachEffect
EXTRN	?RefreshFireTimeListWithBase@ioBaseChar@@QAEXKHABV?$vector@UWeaponInfo@@V?$allocator@UWeaponInfo@@@std@@@std@@W4FireTimeType@@MK_N@Z:PROC ; ioBaseChar::RefreshFireTimeListWithBase
EXTRN	__imp_?SetActionAni@ioEntityGroup@@QAE_NHMMMMMM_N0@Z:PROC
EXTRN	__imp_?ClearAllActionAni@ioEntityGroup@@QAEXM_N@Z:PROC
EXTRN	__imp_?ClearAllLoopAni@ioEntityGroup@@QAEXM_N@Z:PROC
EXTRN	__imp_?GetAnimationIdx@ioEntityGroup@@QAEHABVioHashString@@@Z:PROC
;	COMDAT __real@40a00000
; File d:\lost saga for developer\youtube\tutorial\source\src\lsclient\iobasechar.h
CONST	SEGMENT
__real@40a00000 DD 040a00000r			; 5
CONST	ENDS
;	COMDAT xdata$x
xdata$x	SEGMENT
__unwindtable$?SetNormalSkill@ioCircleMoveAttackSkill@@MAEXPAVioBaseChar@@@Z DD 0ffffffffH
	DD	FLAT:__unwindfunclet$?SetNormalSkill@ioCircleMoveAttackSkill@@MAEXPAVioBaseChar@@@Z$0
__ehfuncinfo$?SetNormalSkill@ioCircleMoveAttackSkill@@MAEXPAVioBaseChar@@@Z DD 019930522H
	DD	01H
	DD	FLAT:__unwindtable$?SetNormalSkill@ioCircleMoveAttackSkill@@MAEXPAVioBaseChar@@@Z
	DD	2 DUP(00H)
	DD	2 DUP(00H)
	DD	00H
	DD	01H
; Function compile flags: /Ogsp
; File d:\lost saga for developer\youtube\tutorial\source\src\lsclient\iocirclemoveattackskill.cpp
xdata$x	ENDS
;	COMDAT ?SetNormalSkill@ioCircleMoveAttackSkill@@MAEXPAVioBaseChar@@@Z
_TEXT	SEGMENT
_szSkillMotion$ = -40					; size = 16
tv349 = -24						; size = 4
tv344 = -24						; size = 4
tv337 = -24						; size = 4
tv334 = -24						; size = 4
tv332 = -24						; size = 4
tv330 = -24						; size = 4
_value$557177 = -24					; size = 4
_iCurSkillAniID$ = -20					; size = 4
_fTimeRate$ = -16					; size = 4
_fAniRate$ = -16					; size = 4
__$EHRec$ = -12						; size = 12
_value$557186 = 8					; size = 4
_pChar$ = 8						; size = 4
?SetNormalSkill@ioCircleMoveAttackSkill@@MAEXPAVioBaseChar@@@Z PROC ; ioCircleMoveAttackSkill::SetNormalSkill, COMDAT
; _this$ = ecx

; 474  : {

  00000	6a 1c		 push	 28			; 0000001cH
  00002	b8 00 00 00 00	 mov	 eax, __ehhandler$?SetNormalSkill@ioCircleMoveAttackSkill@@MAEXPAVioBaseChar@@@Z
  00007	e8 00 00 00 00	 call	 __EH_prolog3
  0000c	8b f1		 mov	 esi, ecx

; 475  : 	ioEntityGroup *pGrp = pChar->GetGroup();

  0000e	8b 45 08	 mov	 eax, DWORD PTR _pChar$[ebp]
  00011	8b 78 04	 mov	 edi, DWORD PTR [eax+4]

; 476  : 	ioHashString szSkillMotion = GetSkillMotionName();

  00014	8b 06		 mov	 eax, DWORD PTR [esi]
  00016	ff 90 20 01 00
	00		 call	 DWORD PTR [eax+288]
  0001c	50		 push	 eax
  0001d	8d 4d d8	 lea	 ecx, DWORD PTR _szSkillMotion$[ebp]
  00020	ff 15 00 00 00
	00		 call	 DWORD PTR __imp_??0ioHashString@@QAE@ABV0@@Z
  00026	83 65 fc 00	 and	 DWORD PTR __$EHRec$[ebp+8], 0

; 477  : 
; 478  : 	int iCurSkillAniID = pGrp->GetAnimationIdx( szSkillMotion );

  0002a	8d 45 d8	 lea	 eax, DWORD PTR _szSkillMotion$[ebp]
  0002d	50		 push	 eax
  0002e	8b cf		 mov	 ecx, edi
  00030	ff 15 00 00 00
	00		 call	 DWORD PTR __imp_?GetAnimationIdx@ioEntityGroup@@QAEHABVioHashString@@@Z
  00036	89 45 ec	 mov	 DWORD PTR _iCurSkillAniID$[ebp], eax

; 479  : 	if( iCurSkillAniID == -1 )	return;

  00039	83 f8 ff	 cmp	 eax, -1
  0003c	0f 84 8f 01 00
	00		 je	 $LN1@SetNormalS

; 480  : 
; 481  : 	float fAniRate = GetSkillMotionRate();

  00042	8b 06		 mov	 eax, DWORD PTR [esi]
  00044	8b ce		 mov	 ecx, esi
  00046	ff 90 28 01 00
	00		 call	 DWORD PTR [eax+296]
  0004c	d9 5d f0	 fstp	 DWORD PTR _fAniRate$[ebp]

; 482  : 
; 483  : 	float fTimeRate = fAniRate * m_fExtraAniRate;

  0004f	d9 86 68 03 00
	00		 fld	 DWORD PTR [esi+872]
  00055	d8 4d f0	 fmul	 DWORD PTR _fAniRate$[ebp]
  00058	d9 5d f0	 fstp	 DWORD PTR _fTimeRate$[ebp]

; 484  : 	
; 485  : 	pGrp->ClearAllLoopAni( FLOAT100, true );

  0005b	b8 64 00 00 00	 mov	 eax, 100		; 00000064H
  00060	89 45 e8	 mov	 DWORD PTR tv349[ebp], eax
  00063	db 45 e8	 fild	 DWORD PTR tv349[ebp]
  00066	6a 01		 push	 1
  00068	85 c0		 test	 eax, eax
  0006a	79 06		 jns	 SHORT $LN29@SetNormalS
  0006c	d8 05 00 00 00
	00		 fadd	 DWORD PTR __real@4f800000
$LN29@SetNormalS:
  00072	51		 push	 ecx
  00073	8b cf		 mov	 ecx, edi
  00075	d9 1c 24	 fstp	 DWORD PTR [esp]
  00078	ff 15 00 00 00
	00		 call	 DWORD PTR __imp_?ClearAllLoopAni@ioEntityGroup@@QAEXM_N@Z

; 486  : 	pGrp->ClearAllActionAni( FLOAT100, true );

  0007e	b8 64 00 00 00	 mov	 eax, 100		; 00000064H
  00083	89 45 e8	 mov	 DWORD PTR tv344[ebp], eax
  00086	db 45 e8	 fild	 DWORD PTR tv344[ebp]
  00089	6a 01		 push	 1
  0008b	85 c0		 test	 eax, eax
  0008d	79 06		 jns	 SHORT $LN30@SetNormalS
  0008f	d8 05 00 00 00
	00		 fadd	 DWORD PTR __real@4f800000
$LN30@SetNormalS:
  00095	51		 push	 ecx
  00096	8b cf		 mov	 ecx, edi
  00098	d9 1c 24	 fstp	 DWORD PTR [esp]
  0009b	ff 15 00 00 00
	00		 call	 DWORD PTR __imp_?ClearAllActionAni@ioEntityGroup@@QAEXM_N@Z

; 487  : 	pGrp->SetActionAni( iCurSkillAniID, FLOAT100, 5.0f, FLOAT1, FLOAT1/fTimeRate, 0.0f, 0.0f, true );

  000a1	b8 01 00 00 00	 mov	 eax, 1
  000a6	8b c8		 mov	 ecx, eax
  000a8	b8 01 00 00 00	 mov	 eax, 1
  000ad	8b d0		 mov	 edx, eax
  000af	b8 64 00 00 00	 mov	 eax, 100		; 00000064H
  000b4	0f 57 c0	 xorps	 xmm0, xmm0
  000b7	6a 01		 push	 1
  000b9	6a 01		 push	 1
  000bb	83 ec 18	 sub	 esp, 24			; 00000018H
  000be	f3 0f 11 44 24
	14		 movss	 DWORD PTR [esp+20], xmm0
  000c4	89 4d e8	 mov	 DWORD PTR tv337[ebp], ecx
  000c7	db 45 e8	 fild	 DWORD PTR tv337[ebp]
  000ca	f3 0f 11 44 24
	10		 movss	 DWORD PTR [esp+16], xmm0
  000d0	85 c9		 test	 ecx, ecx
  000d2	79 06		 jns	 SHORT $LN31@SetNormalS
  000d4	d8 05 00 00 00
	00		 fadd	 DWORD PTR __real@4f800000
$LN31@SetNormalS:
  000da	d8 75 f0	 fdiv	 DWORD PTR _fTimeRate$[ebp]
  000dd	d9 5d e8	 fstp	 DWORD PTR tv334[ebp]
  000e0	d9 45 e8	 fld	 DWORD PTR tv334[ebp]
  000e3	d9 5c 24 0c	 fstp	 DWORD PTR [esp+12]
  000e7	89 55 e8	 mov	 DWORD PTR tv332[ebp], edx
  000ea	db 45 e8	 fild	 DWORD PTR tv332[ebp]
  000ed	85 d2		 test	 edx, edx
  000ef	79 06		 jns	 SHORT $LN32@SetNormalS
  000f1	d8 05 00 00 00
	00		 fadd	 DWORD PTR __real@4f800000
$LN32@SetNormalS:
  000f7	f3 0f 10 05 00
	00 00 00	 movss	 xmm0, DWORD PTR __real@40a00000
  000ff	d9 5c 24 08	 fstp	 DWORD PTR [esp+8]
  00103	89 45 e8	 mov	 DWORD PTR tv330[ebp], eax
  00106	db 45 e8	 fild	 DWORD PTR tv330[ebp]
  00109	f3 0f 11 44 24
	04		 movss	 DWORD PTR [esp+4], xmm0
  0010f	85 c0		 test	 eax, eax
  00111	79 06		 jns	 SHORT $LN33@SetNormalS
  00113	d8 05 00 00 00
	00		 fadd	 DWORD PTR __real@4f800000
$LN33@SetNormalS:
  00119	d9 1c 24	 fstp	 DWORD PTR [esp]
  0011c	ff 75 ec	 push	 DWORD PTR _iCurSkillAniID$[ebp]
  0011f	8b cf		 mov	 ecx, edi
  00121	ff 15 00 00 00
	00		 call	 DWORD PTR __imp_?SetActionAni@ioEntityGroup@@QAE_NHMMMMMM_N0@Z

; 488  : 
; 489  : 	m_dwMotionStartTime = FRAMEGETTIME();

  00127	ff 15 00 00 00
	00		 call	 DWORD PTR __imp_?GetSingleton@ioFrameTimer@@SAAAV1@XZ
  0012d	8b c8		 mov	 ecx, eax
  0012f	ff 15 00 00 00
	00		 call	 DWORD PTR __imp_?GetLoopSec@ioFrameTimer@@QBEKXZ
  00135	89 45 e8	 mov	 DWORD PTR _value$557177[ebp], eax
  00138	8d 45 e8	 lea	 eax, DWORD PTR _value$557177[ebp]
  0013b	50		 push	 eax
  0013c	8d 8e a8 02 00
	00		 lea	 ecx, DWORD PTR [esi+680]
  00142	e8 00 00 00 00	 call	 ?EncryptValueToPool@?$CEncrypt@K@@AAEXPBD@Z ; CEncrypt<unsigned long>::EncryptValueToPool

; 490  : 	m_dwMotionEndTime = 0;

  00147	33 ff		 xor	 edi, edi

; 491  : 	m_dwFireStartTime = 0;
; 492  : 
; 493  : 	// Attack
; 494  : 	if( !m_AttackAttribute.m_vWeaponInfoList.empty() )

  00149	8d 86 b4 0f 00
	00		 lea	 eax, DWORD PTR [esi+4020]
  0014f	89 be d8 02 00
	00		 mov	 DWORD PTR [esi+728], edi
  00155	89 be 88 0f 00
	00		 mov	 DWORD PTR [esi+3976], edi
  0015b	8b 08		 mov	 ecx, DWORD PTR [eax]
  0015d	3b 48 04	 cmp	 ecx, DWORD PTR [eax+4]
  00160	74 23		 je	 SHORT $LN2@SetNormalS

; 495  : 	{
; 496  : 		pChar->RefreshFireTimeListWithBase( m_dwWeaponBaseIndex,
; 497  : 			iCurSkillAniID,
; 498  : 			m_AttackAttribute.m_vWeaponInfoList,
; 499  : 			FTT_SKILL_ATTACK,
; 500  : 			fTimeRate,
; 501  : 			m_AttackAttribute.m_dwPreDelay );

  00162	f3 0f 10 45 f0	 movss	 xmm0, DWORD PTR _fTimeRate$[ebp]
  00167	57		 push	 edi
  00168	ff b6 d4 0f 00
	00		 push	 DWORD PTR [esi+4052]
  0016e	51		 push	 ecx
  0016f	8b 4d 08	 mov	 ecx, DWORD PTR _pChar$[ebp]
  00172	f3 0f 11 04 24	 movss	 DWORD PTR [esp], xmm0
  00177	6a 04		 push	 4
  00179	50		 push	 eax
  0017a	ff 75 ec	 push	 DWORD PTR _iCurSkillAniID$[ebp]
  0017d	ff 76 78	 push	 DWORD PTR [esi+120]
  00180	e8 00 00 00 00	 call	 ?RefreshFireTimeListWithBase@ioBaseChar@@QAEXKHABV?$vector@UWeaponInfo@@V?$allocator@UWeaponInfo@@@std@@@std@@W4FireTimeType@@MK_N@Z ; ioBaseChar::RefreshFireTimeListWithBase
$LN2@SetNormalS:

; 502  : 	}
; 503  : 
; 504  : 	/*
; 505  : 	float fFireTime = pChar->GetFirstFireTime( szSkillMotion );
; 506  : 	if( fFireTime > 0.0f )
; 507  : 		m_dwFireStartTime += fFireTime * m_AttackAttribute.m_fAttackAniRate;
; 508  : 	else
; 509  : 		m_dwFireStartTime = 0;
; 510  : 	*/
; 511  : 
; 512  : 	pChar->AttachEffect( m_StartEffect );

  00185	6a 01		 push	 1
  00187	57		 push	 edi
  00188	8b 7d 08	 mov	 edi, DWORD PTR _pChar$[ebp]
  0018b	8d 86 bc 10 00
	00		 lea	 eax, DWORD PTR [esi+4284]
  00191	50		 push	 eax
  00192	8b cf		 mov	 ecx, edi
  00194	e8 00 00 00 00	 call	 ?AttachEffect@ioBaseChar@@QAEPAVioEffect@@ABVioHashString@@PAVioEntityEvent@@_N@Z ; ioBaseChar::AttachEffect

; 513  : 
; 514  : 	if( m_State != SS_END )

  00199	8d 45 08	 lea	 eax, DWORD PTR _value$557186[ebp]
  0019c	50		 push	 eax
  0019d	8d 8e 58 0f 00
	00		 lea	 ecx, DWORD PTR [esi+3928]
  001a3	e8 00 00 00 00	 call	 ?DecryptValueToPool@?$CEncrypt@H@@QAEXPAH@Z ; CEncrypt<int>::DecryptValueToPool
  001a8	83 7d 08 03	 cmp	 DWORD PTR _value$557186[ebp], 3
  001ac	74 23		 je	 SHORT $LN1@SetNormalS

; 515  : 	{
; 516  : 		pChar->ReduceNeedGaugeBySkill( this, GetNeedGauge(pChar->GetCharName()) );

  001ae	8d 87 d4 02 00
	00		 lea	 eax, DWORD PTR [edi+724]
  001b4	50		 push	 eax
  001b5	8b ce		 mov	 ecx, esi
  001b7	e8 00 00 00 00	 call	 ?GetNeedGauge@ioSkill@@QAEMABVioHashString@@@Z ; ioSkill::GetNeedGauge
  001bc	51		 push	 ecx
  001bd	d9 1c 24	 fstp	 DWORD PTR [esp]
  001c0	56		 push	 esi
  001c1	8b cf		 mov	 ecx, edi
  001c3	e8 00 00 00 00	 call	 ?ReduceNeedGaugeBySkill@ioBaseChar@@QAEMPAVioSkill@@M@Z ; ioBaseChar::ReduceNeedGaugeBySkill
  001c8	dd d8		 fstp	 ST(0)

; 517  : 		m_bReduceGauge = true;

  001ca	c6 86 50 03 00
	00 01		 mov	 BYTE PTR [esi+848], 1
$LN1@SetNormalS:

; 518  : 	}
; 519  : }

  001d1	83 4d fc ff	 or	 DWORD PTR __$EHRec$[ebp+8], -1
  001d5	8d 4d d8	 lea	 ecx, DWORD PTR _szSkillMotion$[ebp]
  001d8	ff 15 00 00 00
	00		 call	 DWORD PTR __imp_??1ioHashString@@QAE@XZ
  001de	e8 00 00 00 00	 call	 __EH_epilog3
  001e3	c2 04 00	 ret	 4
_TEXT	ENDS
;	COMDAT text$x
text$x	SEGMENT
__unwindfunclet$?SetNormalSkill@ioCircleMoveAttackSkill@@MAEXPAVioBaseChar@@@Z$0:
  00000	8d 4d d8	 lea	 ecx, DWORD PTR _szSkillMotion$[ebp]
  00003	ff 25 00 00 00
	00		 jmp	 DWORD PTR __imp_??1ioHashString@@QAE@XZ
__ehhandler$?SetNormalSkill@ioCircleMoveAttackSkill@@MAEXPAVioBaseChar@@@Z:
  00009	8b 54 24 08	 mov	 edx, DWORD PTR [esp+8]
  0000d	8d 42 0c	 lea	 eax, DWORD PTR [edx+12]
  00010	8b 4a d4	 mov	 ecx, DWORD PTR [edx-44]
  00013	33 c8		 xor	 ecx, eax
  00015	e8 00 00 00 00	 call	 @__security_check_cookie@4
  0001a	b8 00 00 00 00	 mov	 eax, OFFSET __ehfuncinfo$?SetNormalSkill@ioCircleMoveAttackSkill@@MAEXPAVioBaseChar@@@Z
  0001f	e9 00 00 00 00	 jmp	 ___CxxFrameHandler3
text$x	ENDS
?SetNormalSkill@ioCircleMoveAttackSkill@@MAEXPAVioBaseChar@@@Z ENDP ; ioCircleMoveAttackSkill::SetNormalSkill
PUBLIC	?IsEndState@ioCircleMoveAttackSkill@@UBE_NXZ	; ioCircleMoveAttackSkill::IsEndState
; Function compile flags: /Ogsp
;	COMDAT ?IsEndState@ioCircleMoveAttackSkill@@UBE_NXZ
_TEXT	SEGMENT
_value$557209 = -4					; size = 4
?IsEndState@ioCircleMoveAttackSkill@@UBE_NXZ PROC	; ioCircleMoveAttackSkill::IsEndState, COMDAT
; _this$ = ecx

; 681  : {

  00000	55		 push	 ebp
  00001	8b ec		 mov	 ebp, esp
  00003	51		 push	 ecx

; 682  : 	if( m_State == SS_END )

  00004	8d 45 fc	 lea	 eax, DWORD PTR _value$557209[ebp]
  00007	50		 push	 eax
  00008	81 c1 58 0f 00
	00		 add	 ecx, 3928		; 00000f58H
  0000e	e8 00 00 00 00	 call	 ?DecryptValueToPool@?$CEncrypt@H@@QAEXPAH@Z ; CEncrypt<int>::DecryptValueToPool
  00013	83 7d fc 03	 cmp	 DWORD PTR _value$557209[ebp], 3
  00017	0f 94 c0	 sete	 al

; 683  : 		return true;
; 684  : 	return false;
; 685  : }

  0001a	c9		 leave
  0001b	c3		 ret	 0
?IsEndState@ioCircleMoveAttackSkill@@UBE_NXZ ENDP	; ioCircleMoveAttackSkill::IsEndState
_TEXT	ENDS
PUBLIC	_pChar$GSCopy$
PUBLIC	?SetEndState@ioCircleMoveAttackSkill@@IAEXPAVioBaseChar@@@Z ; ioCircleMoveAttackSkill::SetEndState
EXTRN	__imp_?GetAnimationFullTime@ioEntityGroup@@QAEMH@Z:PROC
;	COMDAT xdata$x
; File d:\lost saga for developer\youtube\tutorial\source\src\lsclient\stringprotect.h
xdata$x	SEGMENT
__unwindtable$?SetEndState@ioCircleMoveAttackSkill@@IAEXPAVioBaseChar@@@Z DD 0ffffffffH
	DD	FLAT:__unwindfunclet$?SetEndState@ioCircleMoveAttackSkill@@IAEXPAVioBaseChar@@@Z$0
	DD	0ffffffffH
	DD	FLAT:__unwindfunclet$?SetEndState@ioCircleMoveAttackSkill@@IAEXPAVioBaseChar@@@Z$1
__ehfuncinfo$?SetEndState@ioCircleMoveAttackSkill@@IAEXPAVioBaseChar@@@Z DD 019930522H
	DD	02H
	DD	FLAT:__unwindtable$?SetEndState@ioCircleMoveAttackSkill@@IAEXPAVioBaseChar@@@Z
	DD	2 DUP(00H)
	DD	2 DUP(00H)
	DD	00H
	DD	01H
; Function compile flags: /Ogsp
; File d:\lost saga for developer\youtube\tutorial\source\src\lsclient\iocirclemoveattackskill.cpp
xdata$x	ENDS
;	COMDAT ?SetEndState@ioCircleMoveAttackSkill@@IAEXPAVioBaseChar@@@Z
_TEXT	SEGMENT
$T557353 = -108						; size = 16
$T557485 = -92						; size = 16
_pChar$GSCopy$ = -76					; size = 4
_pGrp$ = -72						; size = 4
_fCurEndRate$ = -68					; size = 4
_iCurSkillAniID$ = -64					; size = 4
tv2062 = -60						; size = 4
_value$557217 = -60					; size = 4
_dwCurTime$ = -60					; size = 4
tv2120 = -56						; size = 4
tv2111 = -56						; size = 4
tv2108 = -56						; size = 4
tv2106 = -56						; size = 4
tv2074 = -56						; size = 4
$T557484 = -56						; size = 4
$T557352 = -56						; size = 4
_value$557236 = -56					; size = 4
$T557213 = -56						; size = 4
_szEncEventType$557366 = -52				; size = 13
_szEncEventType$557385 = -32				; size = 12
__$EHRec$ = -12						; size = 12
_pChar$ = 8						; size = 4
?SetEndState@ioCircleMoveAttackSkill@@IAEXPAVioBaseChar@@@Z PROC ; ioCircleMoveAttackSkill::SetEndState, COMDAT
; _this$ = ecx

; 688  : {

  00000	6a 60		 push	 96			; 00000060H
  00002	b8 00 00 00 00	 mov	 eax, __ehhandler$?SetEndState@ioCircleMoveAttackSkill@@IAEXPAVioBaseChar@@@Z
  00007	e8 00 00 00 00	 call	 __EH_prolog3_GS
  0000c	8b 7d 08	 mov	 edi, DWORD PTR _pChar$[ebp]
  0000f	8b f1		 mov	 esi, ecx

; 689  : 	m_State = SS_END;

  00011	8d 45 c4	 lea	 eax, DWORD PTR _value$557217[ebp]
  00014	50		 push	 eax
  00015	8d 8e 58 0f 00
	00		 lea	 ecx, DWORD PTR [esi+3928]

; 690  : 	DWORD dwCurTime = FRAMEGETTIME();

  0001b	89 7d b4	 mov	 DWORD PTR _pChar$GSCopy$[ebp], edi
  0001e	c7 45 c4 03 00
	00 00		 mov	 DWORD PTR _value$557217[ebp], 3
  00025	e8 00 00 00 00	 call	 ?EncryptValueToPool@?$CEncrypt@H@@AAEXPBD@Z ; CEncrypt<int>::EncryptValueToPool
  0002a	ff 15 00 00 00
	00		 call	 DWORD PTR __imp_?GetSingleton@ioFrameTimer@@SAAAV1@XZ
  00030	8b c8		 mov	 ecx, eax
  00032	ff 15 00 00 00
	00		 call	 DWORD PTR __imp_?GetLoopSec@ioFrameTimer@@QBEKXZ
  00038	89 45 c4	 mov	 DWORD PTR _dwCurTime$[ebp], eax

; 691  : 
; 692  : 	//DestroyMapEffect
; 693  : 	if( m_dwCurMapEffect != -1 )

  0003b	8b 86 a0 10 00
	00		 mov	 eax, DWORD PTR [esi+4256]
  00041	33 db		 xor	 ebx, ebx
  00043	83 f8 ff	 cmp	 eax, -1
  00046	74 09		 je	 SHORT $LN5@SetEndStat

; 694  : 		pChar->EndMapEffect( m_dwCurMapEffect, false );

  00048	53		 push	 ebx
  00049	50		 push	 eax
  0004a	8b cf		 mov	 ecx, edi
  0004c	e8 00 00 00 00	 call	 ?EndMapEffect@ioBaseChar@@QAEXK_N@Z ; ioBaseChar::EndMapEffect
$LN5@SetEndStat:

; 695  : 
; 696  : 	if( m_dwTargetCircleEffect != -1 )

  00051	8b 86 a4 10 00
	00		 mov	 eax, DWORD PTR [esi+4260]
  00057	83 f8 ff	 cmp	 eax, -1
  0005a	74 10		 je	 SHORT $LN4@SetEndStat

; 697  : 	{
; 698  : 		pChar->EndMapEffect( m_dwTargetCircleEffect, false );

  0005c	53		 push	 ebx
  0005d	50		 push	 eax
  0005e	8b cf		 mov	 ecx, edi
  00060	e8 00 00 00 00	 call	 ?EndMapEffect@ioBaseChar@@QAEXK_N@Z ; ioBaseChar::EndMapEffect

; 699  : 		m_dwTargetCircleEffect = -1;

  00065	83 8e a4 10 00
	00 ff		 or	 DWORD PTR [esi+4260], -1
$LN4@SetEndStat:

; 700  : 	}
; 701  : 
; 702  : 	pChar->DestroyMagicCircle();

  0006c	8d 8f cc 01 00
	00		 lea	 ecx, DWORD PTR [edi+460]
  00072	e8 00 00 00 00	 call	 ?DestroyMagicCircle@ioBaseGUISupport@@QAEXXZ ; ioBaseGUISupport::DestroyMagicCircle

; 703  : 
; 704  : 	if( m_SkillEndMotion.IsEmpty() )

  00077	8d 8e ac 10 00
	00		 lea	 ecx, DWORD PTR [esi+4268]
  0007d	ff 15 00 00 00
	00		 call	 DWORD PTR __imp_?IsEmpty@ioHashString@@QBE_NXZ
  00083	84 c0		 test	 al, al
  00085	0f 85 af 02 00
	00		 jne	 $LN6@SetEndStat

; 705  : 		return;
; 706  : 
; 707  : 	ioEntityGroup *pGrp = pChar->GetGroup();

  0008b	8b 7f 04	 mov	 edi, DWORD PTR [edi+4]

; 708  : 	int iCurSkillAniID = pGrp->GetAnimationIdx( m_SkillEndMotion );

  0008e	8d 86 ac 10 00
	00		 lea	 eax, DWORD PTR [esi+4268]
  00094	50		 push	 eax
  00095	8b cf		 mov	 ecx, edi
  00097	89 7d b8	 mov	 DWORD PTR _pGrp$[ebp], edi
  0009a	ff 15 00 00 00
	00		 call	 DWORD PTR __imp_?GetAnimationIdx@ioEntityGroup@@QAEHABVioHashString@@@Z
  000a0	89 45 c0	 mov	 DWORD PTR _iCurSkillAniID$[ebp], eax

; 709  : 
; 710  : 	if( iCurSkillAniID == -1 )	return;

  000a3	83 f8 ff	 cmp	 eax, -1
  000a6	0f 84 8e 02 00
	00		 je	 $LN6@SetEndStat

; 711  : 
; 712  : 	float fCurEndRate = m_LandAttackAttribute.m_fAttackAniRate;

  000ac	f3 0f 10 86 ec
	0f 00 00	 movss	 xmm0, DWORD PTR [esi+4076]

; 713  : 	if( fCurEndRate <= 0.0f )

  000b4	0f 57 c9	 xorps	 xmm1, xmm1
  000b7	0f 2f c8	 comiss	 xmm1, xmm0
  000ba	f3 0f 11 45 bc	 movss	 DWORD PTR _fCurEndRate$[ebp], xmm0
  000bf	72 18		 jb	 SHORT $LN1@SetEndStat

; 714  : 		fCurEndRate = FLOAT1;

  000c1	b8 01 00 00 00	 mov	 eax, 1
  000c6	89 45 c8	 mov	 DWORD PTR tv2120[ebp], eax
  000c9	db 45 c8	 fild	 DWORD PTR tv2120[ebp]
  000cc	85 c0		 test	 eax, eax
  000ce	79 06		 jns	 SHORT $LN243@SetEndStat
  000d0	d8 05 00 00 00
	00		 fadd	 DWORD PTR __real@4f800000
$LN243@SetEndStat:
  000d6	d9 5d bc	 fstp	 DWORD PTR _fCurEndRate$[ebp]
$LN1@SetEndStat:

; 715  : 	
; 716  : 	pGrp->ClearAllLoopAni( 5.0f );

  000d9	f3 0f 10 05 00
	00 00 00	 movss	 xmm0, DWORD PTR __real@40a00000
  000e1	53		 push	 ebx
  000e2	51		 push	 ecx
  000e3	8b cf		 mov	 ecx, edi
  000e5	f3 0f 11 04 24	 movss	 DWORD PTR [esp], xmm0
  000ea	ff 15 00 00 00
	00		 call	 DWORD PTR __imp_?ClearAllLoopAni@ioEntityGroup@@QAEXM_N@Z

; 717  : 	pGrp->ClearAllActionAni( 5.0f );

  000f0	f3 0f 10 05 00
	00 00 00	 movss	 xmm0, DWORD PTR __real@40a00000
  000f8	53		 push	 ebx
  000f9	51		 push	 ecx
  000fa	8b cf		 mov	 ecx, edi
  000fc	f3 0f 11 04 24	 movss	 DWORD PTR [esp], xmm0
  00101	ff 15 00 00 00
	00		 call	 DWORD PTR __imp_?ClearAllActionAni@ioEntityGroup@@QAEXM_N@Z

; 718  : 	pGrp->SetActionAni( iCurSkillAniID, 5.0f, 5.0f, FLOAT1, FLOAT1/fCurEndRate );

  00107	b8 01 00 00 00	 mov	 eax, 1
  0010c	8b c8		 mov	 ecx, eax
  0010e	b8 01 00 00 00	 mov	 eax, 1
  00113	0f 57 c0	 xorps	 xmm0, xmm0
  00116	6a 01		 push	 1
  00118	53		 push	 ebx
  00119	83 ec 18	 sub	 esp, 24			; 00000018H
  0011c	f3 0f 11 44 24
	14		 movss	 DWORD PTR [esp+20], xmm0
  00122	89 4d c8	 mov	 DWORD PTR tv2111[ebp], ecx
  00125	db 45 c8	 fild	 DWORD PTR tv2111[ebp]
  00128	f3 0f 11 44 24
	10		 movss	 DWORD PTR [esp+16], xmm0
  0012e	85 c9		 test	 ecx, ecx
  00130	79 06		 jns	 SHORT $LN244@SetEndStat
  00132	d8 05 00 00 00
	00		 fadd	 DWORD PTR __real@4f800000
$LN244@SetEndStat:
  00138	d8 75 bc	 fdiv	 DWORD PTR _fCurEndRate$[ebp]
  0013b	d9 5d c8	 fstp	 DWORD PTR tv2108[ebp]
  0013e	d9 45 c8	 fld	 DWORD PTR tv2108[ebp]
  00141	d9 5c 24 0c	 fstp	 DWORD PTR [esp+12]
  00145	89 45 c8	 mov	 DWORD PTR tv2106[ebp], eax
  00148	db 45 c8	 fild	 DWORD PTR tv2106[ebp]
  0014b	85 c0		 test	 eax, eax
  0014d	79 06		 jns	 SHORT $LN245@SetEndStat
  0014f	d8 05 00 00 00
	00		 fadd	 DWORD PTR __real@4f800000
$LN245@SetEndStat:
  00155	f3 0f 10 05 00
	00 00 00	 movss	 xmm0, DWORD PTR __real@40a00000
  0015d	d9 5c 24 08	 fstp	 DWORD PTR [esp+8]
  00161	f3 0f 11 44 24
	04		 movss	 DWORD PTR [esp+4], xmm0
  00167	f3 0f 11 04 24	 movss	 DWORD PTR [esp], xmm0
  0016c	ff 75 c0	 push	 DWORD PTR _iCurSkillAniID$[ebp]
  0016f	8b cf		 mov	 ecx, edi
  00171	ff 15 00 00 00
	00		 call	 DWORD PTR __imp_?SetActionAni@ioEntityGroup@@QAE_NHMMMMMM_N0@Z

; 719  : 
; 720  : 	m_dwFireStartTime = 0;
; 721  : 	m_dwMotionStartTime = dwCurTime;

  00177	8b 45 c4	 mov	 eax, DWORD PTR _dwCurTime$[ebp]
  0017a	89 45 c8	 mov	 DWORD PTR _value$557236[ebp], eax
  0017d	8d 45 c8	 lea	 eax, DWORD PTR _value$557236[ebp]
  00180	50		 push	 eax
  00181	8d 8e a8 02 00
	00		 lea	 ecx, DWORD PTR [esi+680]
  00187	89 9e 88 0f 00
	00		 mov	 DWORD PTR [esi+3976], ebx
  0018d	e8 00 00 00 00	 call	 ?EncryptValueToPool@?$CEncrypt@K@@AAEXPBD@Z ; CEncrypt<unsigned long>::EncryptValueToPool

; 722  : 
; 723  : 	m_dwMotionEndTime = m_dwMotionStartTime + pGrp->GetAnimationFullTime( iCurSkillAniID ) * fCurEndRate;

  00192	ff 75 c0	 push	 DWORD PTR _iCurSkillAniID$[ebp]
  00195	8b cf		 mov	 ecx, edi
  00197	ff 15 00 00 00
	00		 call	 DWORD PTR __imp_?GetAnimationFullTime@ioEntityGroup@@QAEMH@Z
  0019d	d8 4d bc	 fmul	 DWORD PTR _fCurEndRate$[ebp]
  001a0	8d 45 c8	 lea	 eax, DWORD PTR $T557213[ebp]
  001a3	50		 push	 eax
  001a4	8d 8e a8 02 00
	00		 lea	 ecx, DWORD PTR [esi+680]
  001aa	d9 5d c8	 fstp	 DWORD PTR $T557213[ebp]
  001ad	e8 00 00 00 00	 call	 ??H?$CEncrypt@K@@QAEKABM@Z ; CEncrypt<unsigned long>::operator+

; 724  : 	m_dwMotionEndTime += m_dwAnimationEndDelay;

  001b2	8b 8e 54 0f 00
	00		 mov	 ecx, DWORD PTR [esi+3924]

; 725  : 
; 726  : 	pChar->RefreshFireTimeListWithBase( m_dwWeaponBaseIndex,
; 727  : 										iCurSkillAniID,
; 728  : 										m_LandAttackAttribute.m_vWeaponInfoList,
; 729  : 										FTT_SKILL_ATTACK,
; 730  : 										fCurEndRate,
; 731  : 										m_LandAttackAttribute.m_dwPreDelay );

  001b8	f3 0f 10 45 bc	 movss	 xmm0, DWORD PTR _fCurEndRate$[ebp]
  001bd	53		 push	 ebx
  001be	ff b6 24 10 00
	00		 push	 DWORD PTR [esi+4132]
  001c4	03 c8		 add	 ecx, eax
  001c6	51		 push	 ecx
  001c7	f3 0f 11 04 24	 movss	 DWORD PTR [esp], xmm0
  001cc	6a 04		 push	 4
  001ce	8d 86 04 10 00
	00		 lea	 eax, DWORD PTR [esi+4100]
  001d4	50		 push	 eax
  001d5	ff 75 c0	 push	 DWORD PTR _iCurSkillAniID$[ebp]
  001d8	89 8e d8 02 00
	00		 mov	 DWORD PTR [esi+728], ecx
  001de	ff 76 78	 push	 DWORD PTR [esi+120]
  001e1	8b 4d b4	 mov	 ecx, DWORD PTR _pChar$GSCopy$[ebp]
  001e4	e8 00 00 00 00	 call	 ?RefreshFireTimeListWithBase@ioBaseChar@@QAEXKHABV?$vector@UWeaponInfo@@V?$allocator@UWeaponInfo@@@std@@@std@@W4FireTimeType@@MK_N@Z ; ioBaseChar::RefreshFireTimeListWithBase

; 732  : 
; 733  : 	m_dwFireMotionEndTime = FRAMEGETTIME();

  001e9	ff 15 00 00 00
	00		 call	 DWORD PTR __imp_?GetSingleton@ioFrameTimer@@SAAAV1@XZ
  001ef	8b c8		 mov	 ecx, eax
  001f1	ff 15 00 00 00
	00		 call	 DWORD PTR __imp_?GetLoopSec@ioFrameTimer@@QBEKXZ
  001f7	6a 03		 push	 3
  001f9	89 86 24 02 00
	00		 mov	 DWORD PTR [esi+548], eax

; 734  : 	m_dwFireMotionEndTime += pGrp->GetAnimationEventTime_e( iCurSkillAniID, "firemotion_e" ) * fCurEndRate;

  001ff	c7 45 cc 8b 85
	99 8f		 mov	 DWORD PTR _szEncEventType$557366[ebp], -1885764213 ; 8f99858bH
  00206	c7 45 d0 80 83
	9f 83		 mov	 DWORD PTR _szEncEventType$557366[ebp+4], -2086698112 ; 839f8380H
  0020d	c7 45 d4 82 82
	b4 8f		 mov	 DWORD PTR _szEncEventType$557366[ebp+8], -1883995518 ; 8fb48282H
  00214	8d 45 cc	 lea	 eax, DWORD PTR _szEncEventType$557366[ebp]
  00217	88 5d d8	 mov	 BYTE PTR _szEncEventType$557366[ebp+12], bl
  0021a	59		 pop	 ecx
$LL124@SetEndStat:
  0021b	81 30 ed ec eb
	ea		 xor	 DWORD PTR [eax], -353637139 ; eaebecedH
  00221	83 c0 04	 add	 eax, 4
  00224	49		 dec	 ecx
  00225	75 f4		 jne	 SHORT $LL124@SetEndStat
  00227	8d 45 cc	 lea	 eax, DWORD PTR _szEncEventType$557366[ebp]
  0022a	50		 push	 eax
  0022b	8d 4d 94	 lea	 ecx, DWORD PTR $T557353[ebp]
  0022e	ff 15 00 00 00
	00		 call	 DWORD PTR __imp_??0ioHashString@@QAE@PBD@Z
  00234	8b 4d b8	 mov	 ecx, DWORD PTR _pGrp$[ebp]
  00237	8d 45 94	 lea	 eax, DWORD PTR $T557353[ebp]
  0023a	50		 push	 eax
  0023b	ff 75 c0	 push	 DWORD PTR _iCurSkillAniID$[ebp]
  0023e	89 5d fc	 mov	 DWORD PTR __$EHRec$[ebp+8], ebx
  00241	ff 15 00 00 00
	00		 call	 DWORD PTR __imp_?GetAnimationEventTime@ioEntityGroup@@QAEMHABVioHashString@@@Z
  00247	d9 5d c8	 fstp	 DWORD PTR $T557352[ebp]
  0024a	83 4d fc ff	 or	 DWORD PTR __$EHRec$[ebp+8], -1
  0024e	8d 4d 94	 lea	 ecx, DWORD PTR $T557353[ebp]
  00251	ff 15 00 00 00
	00		 call	 DWORD PTR __imp_??1ioHashString@@QAE@XZ
  00257	d9 45 c8	 fld	 DWORD PTR $T557352[ebp]
  0025a	8b 86 24 02 00
	00		 mov	 eax, DWORD PTR [esi+548]
  00260	d8 4d bc	 fmul	 DWORD PTR _fCurEndRate$[ebp]
  00263	db 86 24 02 00
	00		 fild	 DWORD PTR [esi+548]
  00269	85 c0		 test	 eax, eax
  0026b	79 06		 jns	 SHORT $LN246@SetEndStat
  0026d	dc 05 00 00 00
	00		 fadd	 QWORD PTR __real@41f0000000000000
$LN246@SetEndStat:
  00273	de c1		 faddp	 ST(1), ST(0)
  00275	e8 00 00 00 00	 call	 __ftol2
  0027a	89 86 24 02 00
	00		 mov	 DWORD PTR [esi+548], eax

; 735  : 
; 736  : 	// Key Reserve
; 737  : 	m_dwEnableReserveTime = dwCurTime;

  00280	8b 45 c4	 mov	 eax, DWORD PTR _dwCurTime$[ebp]
  00283	6a 02		 push	 2
  00285	89 86 dc 02 00
	00		 mov	 DWORD PTR [esi+732], eax

; 738  : 	m_dwEnableReserveTime += pGrp->GetAnimationEventTime_e( iCurSkillAniID, "key_reserve" );

  0028b	c7 45 e0 86 89
	92 b5		 mov	 DWORD PTR _szEncEventType$557385[ebp], -1248687738 ; b5928986H
  00292	c7 45 e4 9f 89
	98 8f		 mov	 DWORD PTR _szEncEventType$557385[ebp+4], -1885828705 ; 8f98899fH
  00299	8d 45 e0	 lea	 eax, DWORD PTR _szEncEventType$557385[ebp]
  0029c	c7 45 e8 9f 9a
	8e 00		 mov	 DWORD PTR _szEncEventType$557385[ebp+8], 9345695 ; 008e9a9fH
  002a3	59		 pop	 ecx
$LL231@SetEndStat:
  002a4	81 30 ed ec eb
	ea		 xor	 DWORD PTR [eax], -353637139 ; eaebecedH
  002aa	83 c0 04	 add	 eax, 4
  002ad	49		 dec	 ecx
  002ae	75 f4		 jne	 SHORT $LL231@SetEndStat
  002b0	6a 08		 push	 8
  002b2	58		 pop	 eax
$LL228@SetEndStat:
  002b3	8b c8		 mov	 ecx, eax
  002b5	81 e1 03 00 00
	80		 and	 ecx, -2147483645	; 80000003H
  002bb	79 05		 jns	 SHORT $LN247@SetEndStat
  002bd	49		 dec	 ecx
  002be	83 c9 fc	 or	 ecx, -4			; fffffffcH
  002c1	41		 inc	 ecx
$LN247@SetEndStat:
  002c2	b2 ed		 mov	 dl, -19			; ffffffedH
  002c4	2a d1		 sub	 dl, cl
  002c6	30 54 05 e0	 xor	 BYTE PTR _szEncEventType$557385[ebp+eax], dl
  002ca	40		 inc	 eax
  002cb	83 f8 0b	 cmp	 eax, 11			; 0000000bH
  002ce	7c e3		 jl	 SHORT $LL228@SetEndStat
  002d0	8d 45 e0	 lea	 eax, DWORD PTR _szEncEventType$557385[ebp]
  002d3	50		 push	 eax
  002d4	8d 4d a4	 lea	 ecx, DWORD PTR $T557485[ebp]
  002d7	ff 15 00 00 00
	00		 call	 DWORD PTR __imp_??0ioHashString@@QAE@PBD@Z
  002dd	8b 4d b8	 mov	 ecx, DWORD PTR _pGrp$[ebp]
  002e0	8d 45 a4	 lea	 eax, DWORD PTR $T557485[ebp]
  002e3	50		 push	 eax
  002e4	ff 75 c0	 push	 DWORD PTR _iCurSkillAniID$[ebp]
  002e7	c7 45 fc 01 00
	00 00		 mov	 DWORD PTR __$EHRec$[ebp+8], 1
  002ee	ff 15 00 00 00
	00		 call	 DWORD PTR __imp_?GetAnimationEventTime@ioEntityGroup@@QAEMHABVioHashString@@@Z
  002f4	d9 5d c8	 fstp	 DWORD PTR $T557484[ebp]
  002f7	83 4d fc ff	 or	 DWORD PTR __$EHRec$[ebp+8], -1
  002fb	8d 4d a4	 lea	 ecx, DWORD PTR $T557485[ebp]
  002fe	ff 15 00 00 00
	00		 call	 DWORD PTR __imp_??1ioHashString@@QAE@XZ
  00304	db 86 dc 02 00
	00		 fild	 DWORD PTR [esi+732]
  0030a	8b 86 dc 02 00
	00		 mov	 eax, DWORD PTR [esi+732]
  00310	85 c0		 test	 eax, eax
  00312	79 06		 jns	 SHORT $LN248@SetEndStat
  00314	d8 05 00 00 00
	00		 fadd	 DWORD PTR __real@4f800000
$LN248@SetEndStat:
  0031a	d8 45 c8	 fadd	 DWORD PTR $T557484[ebp]
  0031d	e8 00 00 00 00	 call	 __ftol2

; 739  : 
; 740  : 	pChar->AttachEffect( m_EndEffect );

  00322	8b 4d b4	 mov	 ecx, DWORD PTR _pChar$GSCopy$[ebp]
  00325	6a 01		 push	 1
  00327	89 86 dc 02 00
	00		 mov	 DWORD PTR [esi+732], eax
  0032d	53		 push	 ebx
  0032e	81 c6 cc 10 00
	00		 add	 esi, 4300		; 000010ccH
  00334	56		 push	 esi
  00335	e8 00 00 00 00	 call	 ?AttachEffect@ioBaseChar@@QAEPAVioEffect@@ABVioHashString@@PAVioEntityEvent@@_N@Z ; ioBaseChar::AttachEffect
$LN6@SetEndStat:

; 741  : }

  0033a	e8 00 00 00 00	 call	 __EH_epilog3_GS
  0033f	c2 04 00	 ret	 4
_TEXT	ENDS
;	COMDAT text$x
text$x	SEGMENT
__unwindfunclet$?SetEndState@ioCircleMoveAttackSkill@@IAEXPAVioBaseChar@@@Z$0:
  00000	8d 4d 94	 lea	 ecx, DWORD PTR $T557353[ebp]
  00003	ff 25 00 00 00
	00		 jmp	 DWORD PTR __imp_??1ioHashString@@QAE@XZ
__unwindfunclet$?SetEndState@ioCircleMoveAttackSkill@@IAEXPAVioBaseChar@@@Z$1:
  00009	8d 4d a4	 lea	 ecx, DWORD PTR $T557485[ebp]
  0000c	ff 25 00 00 00
	00		 jmp	 DWORD PTR __imp_??1ioHashString@@QAE@XZ
__ehhandler$?SetEndState@ioCircleMoveAttackSkill@@IAEXPAVioBaseChar@@@Z:
  00012	8b 54 24 08	 mov	 edx, DWORD PTR [esp+8]
  00016	8d 42 0c	 lea	 eax, DWORD PTR [edx+12]
  00019	8b 4a 90	 mov	 ecx, DWORD PTR [edx-112]
  0001c	33 c8		 xor	 ecx, eax
  0001e	e8 00 00 00 00	 call	 @__security_check_cookie@4
  00023	8b 4a fc	 mov	 ecx, DWORD PTR [edx-4]
  00026	33 c8		 xor	 ecx, eax
  00028	e8 00 00 00 00	 call	 @__security_check_cookie@4
  0002d	b8 00 00 00 00	 mov	 eax, OFFSET __ehfuncinfo$?SetEndState@ioCircleMoveAttackSkill@@IAEXPAVioBaseChar@@@Z
  00032	e9 00 00 00 00	 jmp	 ___CxxFrameHandler3
text$x	ENDS
?SetEndState@ioCircleMoveAttackSkill@@IAEXPAVioBaseChar@@@Z ENDP ; ioCircleMoveAttackSkill::SetEndState
PUBLIC	?IsProtected@ioCircleMoveAttackSkill@@UBE_NH@Z	; ioCircleMoveAttackSkill::IsProtected
; Function compile flags: /Ogsp
;	COMDAT ?IsProtected@ioCircleMoveAttackSkill@@UBE_NH@Z
_TEXT	SEGMENT
_value$557524 = -1					; size = 1
_value$557529 = 8					; size = 4
_iDefenseBreakType$ = 8					; size = 4
?IsProtected@ioCircleMoveAttackSkill@@UBE_NH@Z PROC	; ioCircleMoveAttackSkill::IsProtected, COMDAT
; _this$ = ecx

; 744  : {

  00000	55		 push	 ebp
  00001	8b ec		 mov	 ebp, esp
  00003	51		 push	 ecx
  00004	56		 push	 esi
  00005	8b f1		 mov	 esi, ecx

; 745  : 	if( m_bDisableSkillProtect )

  00007	8d 45 ff	 lea	 eax, DWORD PTR _value$557524[ebp]
  0000a	50		 push	 eax
  0000b	8d 8e a8 00 00
	00		 lea	 ecx, DWORD PTR [esi+168]
  00011	e8 00 00 00 00	 call	 ?DecryptValueToPool@?$CEncrypt@_N@@QAEXPA_N@Z ; CEncrypt<bool>::DecryptValueToPool
  00016	80 7d ff 00	 cmp	 BYTE PTR _value$557524[ebp], 0

; 746  : 		return false;

  0001a	75 5e		 jne	 SHORT $LN1@IsProtecte

; 747  : 
; 748  : 	if( DBT_NONE != (DefenseBreakType)m_ProtectCancelType )

  0001c	8b 86 a4 00 00
	00		 mov	 eax, DWORD PTR [esi+164]
  00022	85 c0		 test	 eax, eax
  00024	74 05		 je	 SHORT $LN6@IsProtecte

; 749  : 	{
; 750  : 		if( iDefenseBreakType == m_ProtectCancelType )   //   

  00026	39 45 08	 cmp	 DWORD PTR _iDefenseBreakType$[ebp], eax

; 751  : 			return false;

  00029	74 4f		 je	 SHORT $LN1@IsProtecte
$LN6@IsProtecte:

; 752  : 	}
; 753  : 
; 754  : 	if( IsPreDelayProtect() )

  0002b	8b 06		 mov	 eax, DWORD PTR [esi]
  0002d	8b ce		 mov	 ecx, esi
  0002f	ff 90 2c 01 00
	00		 call	 DWORD PTR [eax+300]
  00035	84 c0		 test	 al, al
  00037	74 0d		 je	 SHORT $LN4@IsProtecte

; 755  : 	{
; 756  : 		if( m_dwPreDelayStartTime != 0 )

  00039	83 be 20 02 00
	00 00		 cmp	 DWORD PTR [esi+544], 0
  00040	74 0d		 je	 SHORT $LN16@IsProtecte
$LN17@IsProtecte:

; 757  : 			return true;

  00042	b0 01		 mov	 al, 1
  00044	eb 36		 jmp	 SHORT $LN9@IsProtecte
$LN4@IsProtecte:

; 758  : 	}
; 759  : 
; 760  : 	if( m_dwPreDelayStartTime == 0 )

  00046	83 be 20 02 00
	00 00		 cmp	 DWORD PTR [esi+544], 0
  0004d	75 2b		 jne	 SHORT $LN1@IsProtecte
$LN16@IsProtecte:

; 761  : 	{
; 762  : 		if( m_State != SS_END )

  0004f	8d 45 08	 lea	 eax, DWORD PTR _value$557529[ebp]
  00052	50		 push	 eax
  00053	8d 8e 58 0f 00
	00		 lea	 ecx, DWORD PTR [esi+3928]
  00059	e8 00 00 00 00	 call	 ?DecryptValueToPool@?$CEncrypt@H@@QAEXPAH@Z ; CEncrypt<int>::DecryptValueToPool
  0005e	83 7d 08 03	 cmp	 DWORD PTR _value$557529[ebp], 3

; 763  : 			return true;

  00062	75 de		 jne	 SHORT $LN17@IsProtecte

; 764  : 
; 765  : 		if( m_dwFireMotionEndTime > FRAMEGETTIME() )

  00064	ff 15 00 00 00
	00		 call	 DWORD PTR __imp_?GetSingleton@ioFrameTimer@@SAAAV1@XZ
  0006a	8b c8		 mov	 ecx, eax
  0006c	ff 15 00 00 00
	00		 call	 DWORD PTR __imp_?GetLoopSec@ioFrameTimer@@QBEKXZ
  00072	39 86 24 02 00
	00		 cmp	 DWORD PTR [esi+548], eax

; 766  : 			return true;

  00078	77 c8		 ja	 SHORT $LN17@IsProtecte
$LN1@IsProtecte:

; 767  : 	}
; 768  : 
; 769  : 	return false;

  0007a	32 c0		 xor	 al, al
$LN9@IsProtecte:
  0007c	5e		 pop	 esi

; 770  : }

  0007d	c9		 leave
  0007e	c2 04 00	 ret	 4
?IsProtected@ioCircleMoveAttackSkill@@UBE_NH@Z ENDP	; ioCircleMoveAttackSkill::IsProtected
_TEXT	ENDS
PUBLIC	?IsSkillMotionEnd@ioCircleMoveAttackSkill@@UBE_NKPAVioBaseChar@@@Z ; ioCircleMoveAttackSkill::IsSkillMotionEnd
; Function compile flags: /Ogsp
;	COMDAT ?IsSkillMotionEnd@ioCircleMoveAttackSkill@@UBE_NKPAVioBaseChar@@@Z
_TEXT	SEGMENT
_value$557539 = -4					; size = 4
_dwActionStop$ = 8					; size = 4
_pOwner$ = 12						; size = 4
?IsSkillMotionEnd@ioCircleMoveAttackSkill@@UBE_NKPAVioBaseChar@@@Z PROC ; ioCircleMoveAttackSkill::IsSkillMotionEnd, COMDAT
; _this$ = ecx

; 773  : {

  00000	55		 push	 ebp
  00001	8b ec		 mov	 ebp, esp
  00003	51		 push	 ecx
  00004	56		 push	 esi
  00005	8b f1		 mov	 esi, ecx

; 774  : 	if( m_State == SS_END && m_dwMotionEndTime + dwActionStop < FRAMEGETTIME() )

  00007	8d 45 fc	 lea	 eax, DWORD PTR _value$557539[ebp]
  0000a	50		 push	 eax
  0000b	8d 8e 58 0f 00
	00		 lea	 ecx, DWORD PTR [esi+3928]
  00011	e8 00 00 00 00	 call	 ?DecryptValueToPool@?$CEncrypt@H@@QAEXPAH@Z ; CEncrypt<int>::DecryptValueToPool
  00016	83 7d fc 03	 cmp	 DWORD PTR _value$557539[ebp], 3
  0001a	75 1f		 jne	 SHORT $LN1@IsSkillMot
  0001c	ff 15 00 00 00
	00		 call	 DWORD PTR __imp_?GetSingleton@ioFrameTimer@@SAAAV1@XZ
  00022	8b c8		 mov	 ecx, eax
  00024	ff 15 00 00 00
	00		 call	 DWORD PTR __imp_?GetLoopSec@ioFrameTimer@@QBEKXZ
  0002a	8b 8e d8 02 00
	00		 mov	 ecx, DWORD PTR [esi+728]
  00030	03 4d 08	 add	 ecx, DWORD PTR _dwActionStop$[ebp]
  00033	3b c8		 cmp	 ecx, eax
  00035	73 04		 jae	 SHORT $LN1@IsSkillMot

; 775  : 		return true;

  00037	b0 01		 mov	 al, 1
  00039	eb 02		 jmp	 SHORT $LN2@IsSkillMot
$LN1@IsSkillMot:

; 776  : 	
; 777  : 	return false;

  0003b	32 c0		 xor	 al, al
$LN2@IsSkillMot:
  0003d	5e		 pop	 esi

; 778  : }

  0003e	c9		 leave
  0003f	c2 08 00	 ret	 8
?IsSkillMotionEnd@ioCircleMoveAttackSkill@@UBE_NKPAVioBaseChar@@@Z ENDP ; ioCircleMoveAttackSkill::IsSkillMotionEnd
_TEXT	ENDS
PUBLIC	?GetFlightDuration@ioCircleMoveAttackSkill@@IAEMM@Z ; ioCircleMoveAttackSkill::GetFlightDuration
; Function compile flags: /Ogsp
;	COMDAT ?GetFlightDuration@ioCircleMoveAttackSkill@@IAEMM@Z
_TEXT	SEGMENT
_value$557546 = -8					; size = 4
_fTopTime$ = -4						; size = 4
tv198 = 8						; size = 4
tv195 = 8						; size = 4
_fCurGravity$ = 8					; size = 4
?GetFlightDuration@ioCircleMoveAttackSkill@@IAEMM@Z PROC ; ioCircleMoveAttackSkill::GetFlightDuration, COMDAT
; _this$ = ecx

; 908  : {

  00000	55		 push	 ebp
  00001	8b ec		 mov	 ebp, esp
  00003	51		 push	 ecx
  00004	51		 push	 ecx

; 909  : 	float fTopTime, fTopHeight;
; 910  : 	fTopTime = fTopHeight = 0.0f;

  00005	0f 57 c0	 xorps	 xmm0, xmm0
  00008	56		 push	 esi
  00009	8b f1		 mov	 esi, ecx

; 911  : 
; 912  : 	float fNewGravity = fCurGravity * m_fSkillGravityRate;

  0000b	8d 45 f8	 lea	 eax, DWORD PTR _value$557546[ebp]
  0000e	50		 push	 eax
  0000f	8d 8e 88 06 00
	00		 lea	 ecx, DWORD PTR [esi+1672]
  00015	f3 0f 11 45 fc	 movss	 DWORD PTR _fTopTime$[ebp], xmm0
  0001a	e8 00 00 00 00	 call	 ?DecryptValueToPool@?$CEncrypt@M@@QAEXPAM@Z ; CEncrypt<float>::DecryptValueToPool
  0001f	f3 0f 10 45 f8	 movss	 xmm0, DWORD PTR _value$557546[ebp]
  00024	f3 0f 10 4d 08	 movss	 xmm1, DWORD PTR _fCurGravity$[ebp]
  00029	0f 5a c0	 cvtps2pd xmm0, xmm0
  0002c	0f 5a c9	 cvtps2pd xmm1, xmm1
  0002f	f2 0f 59 c1	 mulsd	 xmm0, xmm1
  00033	66 0f 5a c0	 cvtpd2ps xmm0, xmm0

; 913  : 	if( fNewGravity > 0.0f )

  00037	0f 2f 05 00 00
	00 00		 comiss	 xmm0, DWORD PTR __real@00000000
  0003e	76 26		 jbe	 SHORT $LN1@GetFlightD

; 914  : 	{
; 915  : 		fTopTime = m_fCharJumpPower / fNewGravity;

  00040	f3 0f 10 8e 50
	10 00 00	 movss	 xmm1, DWORD PTR [esi+4176]
  00048	f3 0f 5a c0	 cvtss2sd xmm0, xmm0
  0004c	0f 5a c9	 cvtps2pd xmm1, xmm1
  0004f	f2 0f 5e c8	 divsd	 xmm1, xmm0
  00053	66 0f 5a c1	 cvtpd2ps xmm0, xmm1
  00057	f3 0f 11 45 fc	 movss	 DWORD PTR _fTopTime$[ebp], xmm0

; 916  : 		fTopHeight = (m_fCharJumpPower*fTopTime) - (FLOAT05*fNewGravity*fTopTime*fTopTime);

  0005c	b8 05 00 00 00	 mov	 eax, 5
  00061	b8 0a 00 00 00	 mov	 eax, 10			; 0000000aH
$LN1@GetFlightD:

; 917  : 	}
; 918  : 
; 919  : 	float fResult = 2 * fTopTime * FLOAT1000;

  00066	b8 e8 03 00 00	 mov	 eax, 1000		; 000003e8H

; 920  : 
; 921  : #ifndef SHIPPING 
; 922  : 	if( Setting::ShowExtraInfo() )
; 923  : 	{
; 924  : 		LOG.PrintTimeAndLog( 0, "CirCleMoveAttack - [ExpectionValue] TopHeight: %.2f, FlightDuration: %.2f", fTopHeight, fResult );
; 925  : 	}
; 926  : #endif
; 927  : 
; 928  : 	return fResult;

  0006b	d9 45 fc	 fld	 DWORD PTR _fTopTime$[ebp]
  0006e	89 45 08	 mov	 DWORD PTR tv198[ebp], eax
  00071	dc c0		 fadd	 ST(0), ST(0)
  00073	db 45 08	 fild	 DWORD PTR tv198[ebp]
  00076	85 c0		 test	 eax, eax
  00078	79 06		 jns	 SHORT $LN12@GetFlightD
  0007a	d8 05 00 00 00
	00		 fadd	 DWORD PTR __real@4f800000
$LN12@GetFlightD:

; 917  : 	}
; 918  : 
; 919  : 	float fResult = 2 * fTopTime * FLOAT1000;

  00080	de c9		 fmulp	 ST(1), ST(0)
  00082	5e		 pop	 esi

; 920  : 
; 921  : #ifndef SHIPPING 
; 922  : 	if( Setting::ShowExtraInfo() )
; 923  : 	{
; 924  : 		LOG.PrintTimeAndLog( 0, "CirCleMoveAttack - [ExpectionValue] TopHeight: %.2f, FlightDuration: %.2f", fTopHeight, fResult );
; 925  : 	}
; 926  : #endif
; 927  : 
; 928  : 	return fResult;

  00083	d9 5d 08	 fstp	 DWORD PTR tv195[ebp]
  00086	d9 45 08	 fld	 DWORD PTR tv195[ebp]

; 929  : }

  00089	c9		 leave
  0008a	c2 04 00	 ret	 4
?GetFlightDuration@ioCircleMoveAttackSkill@@IAEMM@Z ENDP ; ioCircleMoveAttackSkill::GetFlightDuration
_TEXT	ENDS
PUBLIC	?IsCharSkipState@ioCircleMoveAttackSkill@@UBE?AW4SkillCharColType@@XZ ; ioCircleMoveAttackSkill::IsCharSkipState
; Function compile flags: /Ogsp
;	COMDAT ?IsCharSkipState@ioCircleMoveAttackSkill@@UBE?AW4SkillCharColType@@XZ
_TEXT	SEGMENT
_value$557567 = -4					; size = 4
?IsCharSkipState@ioCircleMoveAttackSkill@@UBE?AW4SkillCharColType@@XZ PROC ; ioCircleMoveAttackSkill::IsCharSkipState, COMDAT
; _this$ = ecx

; 932  : {

  00000	55		 push	 ebp
  00001	8b ec		 mov	 ebp, esp
  00003	51		 push	 ecx

; 933  : 	if( m_EnableCharCollisionSkip == SCCT_ALL )

  00004	8b 81 54 03 00
	00		 mov	 eax, DWORD PTR [ecx+852]
  0000a	83 f8 01	 cmp	 eax, 1
  0000d	75 22		 jne	 SHORT $LN6@IsCharSkip

; 934  : 	{
; 935  : 		switch( m_State )

  0000f	8d 45 fc	 lea	 eax, DWORD PTR _value$557567[ebp]
  00012	50		 push	 eax
  00013	81 c1 58 0f 00
	00		 add	 ecx, 3928		; 00000f58H
  00019	e8 00 00 00 00	 call	 ?DecryptValueToPool@?$CEncrypt@H@@QAEXPAH@Z ; CEncrypt<int>::DecryptValueToPool
  0001e	83 7d fc 02	 cmp	 DWORD PTR _value$557567[ebp], 2
  00022	7c 0b		 jl	 SHORT $LN1@IsCharSkip
  00024	83 7d fc 03	 cmp	 DWORD PTR _value$557567[ebp], 3
  00028	7f 05		 jg	 SHORT $LN1@IsCharSkip

; 936  : 		{
; 937  : 		case SS_ACTION:
; 938  : 		case SS_END:
; 939  : 			return SCCT_ALL;

  0002a	33 c0		 xor	 eax, eax
  0002c	40		 inc	 eax

; 942  : 		}
; 943  : 	}
; 944  : 
; 945  : 	return m_EnableCharCollisionSkip;
; 946  : }

  0002d	c9		 leave
  0002e	c3		 ret	 0
$LN1@IsCharSkip:

; 940  : 		default:
; 941  : 			return SCCT_NONE;

  0002f	33 c0		 xor	 eax, eax
$LN6@IsCharSkip:

; 942  : 		}
; 943  : 	}
; 944  : 
; 945  : 	return m_EnableCharCollisionSkip;
; 946  : }

  00031	c9		 leave
  00032	c3		 ret	 0
?IsCharSkipState@ioCircleMoveAttackSkill@@UBE?AW4SkillCharColType@@XZ ENDP ; ioCircleMoveAttackSkill::IsCharSkipState
_TEXT	ENDS
PUBLIC	__real@40000000
PUBLIC	__real@4066800000000000
PUBLIC	__real@4046800000000000
PUBLIC	_pChar$GSCopy$
PUBLIC	__$ArrayPad$
PUBLIC	?CheckCharRotate@ioCircleMoveAttackSkill@@IAEXPAVioBaseChar@@@Z ; ioCircleMoveAttackSkill::CheckCharRotate
EXTRN	?SetTargetRotToRotate@ioBaseChar@@QAEXABUD3DXQUATERNION@@_N1@Z:PROC ; ioBaseChar::SetTargetRotToRotate
EXTRN	__imp_?CalcDirectionQuaternion@ioMath@@SAXAAUD3DXQUATERNION@@ABUD3DXVECTOR3@@@Z:PROC
EXTRN	_D3DXQuaternionRotationAxis@12:PROC
EXTRN	__imp_?UNIT_Y@ioMath@@2UD3DXVECTOR3@@A:BYTE
EXTRN	_D3DXQuaternionRotationYawPitchRoll@16:PROC
EXTRN	__imp_?ArrangeHead@ioMath@@SAMM@Z:PROC
EXTRN	_D3DXVec3Normalize@8:PROC
EXTRN	__imp_?GetCurFrameGap@ioFrameTimer@@QBEMXZ:PROC
;	COMDAT __real@40000000
; File c:\program files (x86)\microsoft directx sdk (june 2010)\include\d3dx9math.inl
CONST	SEGMENT
__real@40000000 DD 040000000r			; 2
CONST	ENDS
;	COMDAT __real@4066800000000000
CONST	SEGMENT
__real@4066800000000000 DQ 04066800000000000r	; 180
CONST	ENDS
;	COMDAT __real@4046800000000000
CONST	SEGMENT
__real@4046800000000000 DQ 04046800000000000r	; 45
; Function compile flags: /Ogsp
; File d:\lost saga for developer\youtube\tutorial\source\src\lsclient\iocirclemoveattackskill.cpp
CONST	ENDS
;	COMDAT ?CheckCharRotate@ioCircleMoveAttackSkill@@IAEXPAVioBaseChar@@@Z
_TEXT	SEGMENT
_qtCurRot$ = -128					; size = 16
_qtRotate$ = -112					; size = 16
_pChar$GSCopy$ = -96					; size = 4
_qtNewRot$ = -92					; size = 16
tv652 = -76						; size = 4
_fGapAngle$ = -76					; size = 4
tv712 = -72						; size = 4
_fRotateAngle$ = -72					; size = 4
_fRate$ = -72						; size = 4
_fFrameGap$ = -72					; size = 4
tv707 = -68						; size = 4
tv690 = -68						; size = 4
tv664 = -68						; size = 4
tv639 = -68						; size = 4
_fDotValue$ = -68					; size = 4
_fYawR$ = -68						; size = 4
_vNewDir$ = -64						; size = 12
_vAxis$ = -52						; size = 12
_vTargetDir$ = -40					; size = 12
_vCurMoveDir$ = -28					; size = 12
_v$557623 = -16						; size = 12
$T551101 = -16						; size = 12
$T551094 = -16						; size = 12
$T551081 = -16						; size = 12
$T551070 = -16						; size = 12
__$ArrayPad$ = -4					; size = 4
_pChar$ = 8						; size = 4
?CheckCharRotate@ioCircleMoveAttackSkill@@IAEXPAVioBaseChar@@@Z PROC ; ioCircleMoveAttackSkill::CheckCharRotate, COMDAT
; _this$ = ecx

; 973  : {

  00000	55		 push	 ebp
  00001	8b ec		 mov	 ebp, esp
  00003	81 ec 80 00 00
	00		 sub	 esp, 128		; 00000080H
  00009	a1 00 00 00 00	 mov	 eax, DWORD PTR ___security_cookie
  0000e	33 c5		 xor	 eax, ebp
  00010	89 45 fc	 mov	 DWORD PTR __$ArrayPad$[ebp], eax
  00013	53		 push	 ebx
  00014	56		 push	 esi
  00015	57		 push	 edi
  00016	8b 7d 08	 mov	 edi, DWORD PTR _pChar$[ebp]
  00019	8b d9		 mov	 ebx, ecx

; 974  : 	if( m_dwCharRotSpeed == 0 )

  0001b	83 bb 18 11 00
	00 00		 cmp	 DWORD PTR [ebx+4376], 0

; 1006 : 	{
; 1007 : 		m_bTargetRot = true;

  00022	89 7d a0	 mov	 DWORD PTR _pChar$GSCopy$[ebp], edi
  00025	0f 84 c1 03 00
	00		 je	 $LN10@CheckCharR

; 975  : 		return;
; 976  : 
; 977  : 	if( m_CurDirKey == ioUserKeyInput::DKI_NONE )

  0002b	83 bb 20 11 00
	00 00		 cmp	 DWORD PTR [ebx+4384], 0
  00032	0f 84 b4 03 00
	00		 je	 $LN10@CheckCharR

; 978  : 		return;
; 979  : 
; 980  : 	if( m_bTargetRot )

  00038	80 bb 1c 11 00
	00 00		 cmp	 BYTE PTR [ebx+4380], 0
  0003f	0f 85 a7 03 00
	00		 jne	 $LN10@CheckCharR

; 981  : 		return;
; 982  : 
; 983  : 	float fFrameGap = g_FrameTimer.GetCurFrameGap();

  00045	ff 15 00 00 00
	00		 call	 DWORD PTR __imp_?GetSingleton@ioFrameTimer@@SAAAV1@XZ
  0004b	8b c8		 mov	 ecx, eax
  0004d	ff 15 00 00 00
	00		 call	 DWORD PTR __imp_?GetCurFrameGap@ioFrameTimer@@QBEMXZ
  00053	d9 5d b8	 fstp	 DWORD PTR _fFrameGap$[ebp]

; 984  : 	float fRate = fFrameGap / m_dwCharRotSpeed;

  00056	8b 83 18 11 00
	00		 mov	 eax, DWORD PTR [ebx+4376]
  0005c	d9 45 b8	 fld	 DWORD PTR _fFrameGap$[ebp]
  0005f	db 83 18 11 00
	00		 fild	 DWORD PTR [ebx+4376]
  00065	85 c0		 test	 eax, eax
  00067	79 06		 jns	 SHORT $LN59@CheckCharR
  00069	d8 05 00 00 00
	00		 fadd	 DWORD PTR __real@4f800000
$LN59@CheckCharR:
  0006f	de f9		 fdivp	 ST(1), ST(0)
  00071	d9 5d b8	 fstp	 DWORD PTR _fRate$[ebp]

; 985  : 	float fRotateAngle = FLOAT360 * fRate;

  00074	b8 68 01 00 00	 mov	 eax, 360		; 00000168H
  00079	89 45 bc	 mov	 DWORD PTR tv707[ebp], eax
  0007c	db 45 bc	 fild	 DWORD PTR tv707[ebp]
  0007f	85 c0		 test	 eax, eax
  00081	79 06		 jns	 SHORT $LN60@CheckCharR
  00083	d8 05 00 00 00
	00		 fadd	 DWORD PTR __real@4f800000
$LN60@CheckCharR:
  00089	d8 4d b8	 fmul	 DWORD PTR _fRate$[ebp]

; 986  : 
; 987  : 	D3DXQUATERNION qtCurRot = pChar->GetTargetRot();

  0008c	8d b7 a4 06 00
	00		 lea	 esi, DWORD PTR [edi+1700]
  00092	8d 7d 80	 lea	 edi, DWORD PTR _qtCurRot$[ebp]
  00095	a5		 movsd
  00096	d9 5d b8	 fstp	 DWORD PTR _fRotateAngle$[ebp]
  00099	a5		 movsd
  0009a	a5		 movsd
  0009b	a5		 movsd

; 988  : 	D3DXVECTOR3 vCurMoveDir = qtCurRot * D3DXVECTOR3(0.0f, 0.0f, -FLOAT1);

  0009c	b8 01 00 00 00	 mov	 eax, 1
  000a1	0f 57 c0	 xorps	 xmm0, xmm0
  000a4	89 45 bc	 mov	 DWORD PTR tv690[ebp], eax
  000a7	db 45 bc	 fild	 DWORD PTR tv690[ebp]
  000aa	f3 0f 11 45 f0	 movss	 DWORD PTR $T551070[ebp], xmm0
  000af	f3 0f 11 45 f4	 movss	 DWORD PTR $T551070[ebp+4], xmm0
  000b4	85 c0		 test	 eax, eax
  000b6	79 06		 jns	 SHORT $LN61@CheckCharR
  000b8	d8 05 00 00 00
	00		 fadd	 DWORD PTR __real@4f800000
$LN61@CheckCharR:
  000be	8b 35 00 00 00
	00		 mov	 esi, DWORD PTR __imp_??D@YA?AUD3DXVECTOR3@@ABUD3DXQUATERNION@@ABU0@@Z
  000c4	d9 e0		 fchs
  000c6	8d 45 f0	 lea	 eax, DWORD PTR $T551070[ebp]
  000c9	d9 5d f8	 fstp	 DWORD PTR $T551070[ebp+8]
  000cc	50		 push	 eax
  000cd	8d 45 80	 lea	 eax, DWORD PTR _qtCurRot$[ebp]
  000d0	50		 push	 eax
  000d1	8d 45 e4	 lea	 eax, DWORD PTR _vCurMoveDir$[ebp]
  000d4	50		 push	 eax
  000d5	ff d6		 call	 esi
  000d7	83 c4 0c	 add	 esp, 12			; 0000000cH

; 989  : 	D3DXVec3Normalize( &vCurMoveDir, &vCurMoveDir );

  000da	8d 45 e4	 lea	 eax, DWORD PTR _vCurMoveDir$[ebp]
  000dd	50		 push	 eax
  000de	50		 push	 eax
  000df	e8 00 00 00 00	 call	 _D3DXVec3Normalize@8

; 990  : 
; 991  : 	//    
; 992  : 	float fYawD = 180.0f + 45.0f * ( m_CurDirKey - ioUserKeyInput::DKI_UP );

  000e4	8b 83 20 11 00
	00		 mov	 eax, DWORD PTR [ebx+4384]
  000ea	0f 57 c0	 xorps	 xmm0, xmm0
  000ed	48		 dec	 eax
  000ee	f3 0f 2a c0	 cvtsi2ss xmm0, eax
  000f2	0f 5a c0	 cvtps2pd xmm0, xmm0
  000f5	f2 0f 59 05 00
	00 00 00	 mulsd	 xmm0, QWORD PTR __real@4046800000000000
  000fd	f2 0f 58 05 00
	00 00 00	 addsd	 xmm0, QWORD PTR __real@4066800000000000

; 993  : 	fYawD = ioMath::ArrangeHead( fYawD );

  00105	51		 push	 ecx
  00106	66 0f 5a c0	 cvtpd2ps xmm0, xmm0
  0010a	f3 0f 11 04 24	 movss	 DWORD PTR [esp], xmm0
  0010f	ff 15 00 00 00
	00		 call	 DWORD PTR __imp_?ArrangeHead@ioMath@@SAMM@Z

; 994  : 
; 995  : 	float fYawR = DEGtoRAD( fYawD );

  00115	dc 0d 00 00 00
	00		 fmul	 QWORD PTR __real@3f91df46a2526c7a

; 996  : 	D3DXQUATERNION qtRotate;
; 997  : 	D3DXQuaternionRotationYawPitchRoll( &qtRotate, fYawR, 0.0f, 0.0f );

  0011b	0f 57 c0	 xorps	 xmm0, xmm0
  0011e	f3 0f 11 04 24	 movss	 DWORD PTR [esp], xmm0
  00123	51		 push	 ecx
  00124	d9 5d bc	 fstp	 DWORD PTR _fYawR$[ebp]
  00127	51		 push	 ecx
  00128	f3 0f 11 44 24
	04		 movss	 DWORD PTR [esp+4], xmm0
  0012e	f3 0f 10 45 bc	 movss	 xmm0, DWORD PTR _fYawR$[ebp]
  00133	8d 45 90	 lea	 eax, DWORD PTR _qtRotate$[ebp]
  00136	f3 0f 11 04 24	 movss	 DWORD PTR [esp], xmm0
  0013b	50		 push	 eax
  0013c	e8 00 00 00 00	 call	 _D3DXQuaternionRotationYawPitchRoll@16

; 998  : 
; 999  : 	D3DXVECTOR3 vTargetDir = qtRotate * D3DXVECTOR3(0.0f, 0.0f, -FLOAT1);

  00141	b8 01 00 00 00	 mov	 eax, 1
  00146	0f 57 c0	 xorps	 xmm0, xmm0
  00149	89 45 bc	 mov	 DWORD PTR tv664[ebp], eax
  0014c	db 45 bc	 fild	 DWORD PTR tv664[ebp]
  0014f	f3 0f 11 45 f0	 movss	 DWORD PTR $T551081[ebp], xmm0
  00154	f3 0f 11 45 f4	 movss	 DWORD PTR $T551081[ebp+4], xmm0
  00159	85 c0		 test	 eax, eax
  0015b	79 06		 jns	 SHORT $LN62@CheckCharR
  0015d	d8 05 00 00 00
	00		 fadd	 DWORD PTR __real@4f800000
$LN62@CheckCharR:
  00163	8d 45 f0	 lea	 eax, DWORD PTR $T551081[ebp]
  00166	d9 e0		 fchs
  00168	50		 push	 eax
  00169	d9 5d f8	 fstp	 DWORD PTR $T551081[ebp+8]
  0016c	8d 45 90	 lea	 eax, DWORD PTR _qtRotate$[ebp]
  0016f	50		 push	 eax
  00170	8d 45 d8	 lea	 eax, DWORD PTR _vTargetDir$[ebp]
  00173	50		 push	 eax
  00174	ff d6		 call	 esi
  00176	83 c4 0c	 add	 esp, 12			; 0000000cH

; 1000 : 	D3DXVec3Normalize( &vTargetDir, &vTargetDir );

  00179	8d 45 d8	 lea	 eax, DWORD PTR _vTargetDir$[ebp]
  0017c	50		 push	 eax
  0017d	50		 push	 eax
  0017e	e8 00 00 00 00	 call	 _D3DXVec3Normalize@8

; 1001 : 
; 1002 : 	float fDotValue = D3DXVec3Dot( &vCurMoveDir, &vTargetDir );

  00183	d9 45 e8	 fld	 DWORD PTR _vCurMoveDir$[ebp+4]
  00186	d8 4d dc	 fmul	 DWORD PTR _vTargetDir$[ebp+4]
  00189	d9 45 d8	 fld	 DWORD PTR _vTargetDir$[ebp]
  0018c	d8 4d e4	 fmul	 DWORD PTR _vCurMoveDir$[ebp]
  0018f	de c1		 faddp	 ST(1), ST(0)
  00191	d9 45 ec	 fld	 DWORD PTR _vCurMoveDir$[ebp+8]
  00194	d8 4d e0	 fmul	 DWORD PTR _vTargetDir$[ebp+8]
  00197	de c1		 faddp	 ST(1), ST(0)
  00199	d9 5d bc	 fstp	 DWORD PTR _fDotValue$[ebp]

; 1003 : 	float fGapAngle = RADtoDEG( acosf(fDotValue) );

  0019c	d9 45 bc	 fld	 DWORD PTR _fDotValue$[ebp]
  0019f	e8 00 00 00 00	 call	 __CIacos
  001a4	d9 5d b4	 fstp	 DWORD PTR tv652[ebp]
  001a7	d9 45 b4	 fld	 DWORD PTR tv652[ebp]
  001aa	51		 push	 ecx
  001ab	d9 1c 24	 fstp	 DWORD PTR [esp]
  001ae	e8 00 00 00 00	 call	 ??$RADtoDEG@M@@YAMM@Z	; RADtoDEG<float>
  001b3	d9 5d b4	 fstp	 DWORD PTR _fGapAngle$[ebp]
  001b6	59		 pop	 ecx

; 1004 : 
; 1005 : 	if( fGapAngle < 2.0f )

  001b7	d9 45 b4	 fld	 DWORD PTR _fGapAngle$[ebp]
  001ba	d9 05 00 00 00
	00		 fld	 DWORD PTR __real@40000000
  001c0	df f1		 fcomip	 ST(1)
  001c2	dd d8		 fstp	 ST(0)
  001c4	76 0f		 jbe	 SHORT $LN6@CheckCharR

; 1006 : 	{
; 1007 : 		m_bTargetRot = true;

  001c6	c6 83 1c 11 00
	00 01		 mov	 BYTE PTR [ebx+4380], 1

; 1008 : 		pChar->SetTargetRotToRotate( qtRotate, true );

  001cd	8d 45 90	 lea	 eax, DWORD PTR _qtRotate$[ebp]

; 1009 : 		return;

  001d0	e9 0a 02 00 00	 jmp	 $LN64@CheckCharR
$LN6@CheckCharR:

; 1010 : 	}
; 1011 : 
; 1012 : 	D3DXVECTOR3 vAxis;
; 1013 : 	if( fDotValue <= -FLOAT1 )

  001d5	b8 01 00 00 00	 mov	 eax, 1
  001da	d9 45 bc	 fld	 DWORD PTR _fDotValue$[ebp]
  001dd	89 45 bc	 mov	 DWORD PTR tv639[ebp], eax
  001e0	db 45 bc	 fild	 DWORD PTR tv639[ebp]
  001e3	85 c0		 test	 eax, eax
  001e5	79 06		 jns	 SHORT $LN63@CheckCharR
  001e7	d8 05 00 00 00
	00		 fadd	 DWORD PTR __real@4f800000
$LN63@CheckCharR:
  001ed	f3 0f 10 05 00
	00 00 00	 movss	 xmm0, DWORD PTR __mask@@NegFloat@
  001f5	d9 e0		 fchs
  001f7	df f1		 fcomip	 ST(1)
  001f9	dd d8		 fstp	 ST(0)
  001fb	72 11		 jb	 SHORT $LN5@CheckCharR

; 1014 : 	{
; 1015 : 		vAxis = ioMath::UNIT_Y;

  001fd	8b 35 00 00 00
	00		 mov	 esi, DWORD PTR __imp_?UNIT_Y@ioMath@@2UD3DXVECTOR3@@A
  00203	8d 7d cc	 lea	 edi, DWORD PTR _vAxis$[ebp]
  00206	a5		 movsd
  00207	a5		 movsd
  00208	a5		 movsd

; 1016 : 	}
; 1017 : 	else

  00209	e9 cd 00 00 00	 jmp	 $LN4@CheckCharR
$LN5@CheckCharR:

; 1018 : 	{
; 1019 : 		D3DXVec3Cross( &vAxis, &vTargetDir, &vCurMoveDir );

  0020e	f3 0f 10 55 ec	 movss	 xmm2, DWORD PTR _vCurMoveDir$[ebp+8]
  00213	f3 0f 10 4d dc	 movss	 xmm1, DWORD PTR _vTargetDir$[ebp+4]
  00218	f3 0f 10 5d e0	 movss	 xmm3, DWORD PTR _vTargetDir$[ebp+8]
  0021d	f3 0f 10 65 d8	 movss	 xmm4, DWORD PTR _vTargetDir$[ebp]
  00222	f3 0f 10 6d e4	 movss	 xmm5, DWORD PTR _vCurMoveDir$[ebp]
  00227	0f 5a d2	 cvtps2pd xmm2, xmm2
  0022a	0f 5a db	 cvtps2pd xmm3, xmm3
  0022d	0f 5a c9	 cvtps2pd xmm1, xmm1
  00230	f2 0f 59 ca	 mulsd	 xmm1, xmm2
  00234	f3 0f 10 55 e8	 movss	 xmm2, DWORD PTR _vCurMoveDir$[ebp+4]
  00239	0f 5a d2	 cvtps2pd xmm2, xmm2
  0023c	f2 0f 59 d3	 mulsd	 xmm2, xmm3
  00240	f3 0f 10 5d e4	 movss	 xmm3, DWORD PTR _vCurMoveDir$[ebp]
  00245	f2 0f 5c ca	 subsd	 xmm1, xmm2
  00249	f3 0f 10 55 e0	 movss	 xmm2, DWORD PTR _vTargetDir$[ebp+8]
  0024e	0f 5a db	 cvtps2pd xmm3, xmm3
  00251	0f 5a d2	 cvtps2pd xmm2, xmm2
  00254	f2 0f 59 d3	 mulsd	 xmm2, xmm3
  00258	f3 0f 10 5d ec	 movss	 xmm3, DWORD PTR _vCurMoveDir$[ebp+8]
  0025d	0f 5a db	 cvtps2pd xmm3, xmm3
  00260	0f 5a e4	 cvtps2pd xmm4, xmm4
  00263	f2 0f 59 dc	 mulsd	 xmm3, xmm4
  00267	f3 0f 10 65 d8	 movss	 xmm4, DWORD PTR _vTargetDir$[ebp]
  0026c	f2 0f 5c d3	 subsd	 xmm2, xmm3
  00270	f3 0f 10 5d e8	 movss	 xmm3, DWORD PTR _vCurMoveDir$[ebp+4]
  00275	0f 5a db	 cvtps2pd xmm3, xmm3
  00278	0f 5a e4	 cvtps2pd xmm4, xmm4
  0027b	f2 0f 59 dc	 mulsd	 xmm3, xmm4
  0027f	f3 0f 10 65 dc	 movss	 xmm4, DWORD PTR _vTargetDir$[ebp+4]
  00284	0f 5a e4	 cvtps2pd xmm4, xmm4
  00287	0f 5a ed	 cvtps2pd xmm5, xmm5
  0028a	f2 0f 59 e5	 mulsd	 xmm4, xmm5
  0028e	f2 0f 5c dc	 subsd	 xmm3, xmm4
  00292	f2 0f 5a c9	 cvtsd2ss xmm1, xmm1
  00296	f3 0f 11 4d f0	 movss	 DWORD PTR _v$557623[ebp], xmm1
  0029b	f2 0f 5a d2	 cvtsd2ss xmm2, xmm2
  0029f	f3 0f 11 55 f4	 movss	 DWORD PTR _v$557623[ebp+4], xmm2
  002a4	f2 0f 5a db	 cvtsd2ss xmm3, xmm3
  002a8	f3 0f 11 5d f8	 movss	 DWORD PTR _v$557623[ebp+8], xmm3
  002ad	8d 75 f0	 lea	 esi, DWORD PTR _v$557623[ebp]
  002b0	8d 7d cc	 lea	 edi, DWORD PTR _vAxis$[ebp]
  002b3	a5		 movsd
  002b4	a5		 movsd

; 1020 : 		D3DXVec3Normalize( &vAxis, &-vAxis );

  002b5	8d 45 f0	 lea	 eax, DWORD PTR $T551094[ebp]
  002b8	50		 push	 eax
  002b9	a5		 movsd
  002ba	8d 45 cc	 lea	 eax, DWORD PTR _vAxis$[ebp]
  002bd	0f 57 c8	 xorps	 xmm1, xmm0
  002c0	0f 57 d0	 xorps	 xmm2, xmm0
  002c3	0f 57 d8	 xorps	 xmm3, xmm0
  002c6	50		 push	 eax
  002c7	f3 0f 11 4d f0	 movss	 DWORD PTR $T551094[ebp], xmm1
  002cc	f3 0f 11 55 f4	 movss	 DWORD PTR $T551094[ebp+4], xmm2
  002d1	f3 0f 11 5d f8	 movss	 DWORD PTR $T551094[ebp+8], xmm3
  002d6	e8 00 00 00 00	 call	 _D3DXVec3Normalize@8
$LN4@CheckCharR:

; 1021 : 	}
; 1022 : 
; 1023 : 	if( vAxis == ioMath::VEC3_ZERO )

  002db	8b 0d 00 00 00
	00		 mov	 ecx, DWORD PTR __imp_?VEC3_ZERO@ioMath@@2UD3DXVECTOR3@@A
  002e1	f3 0f 10 45 cc	 movss	 xmm0, DWORD PTR _vAxis$[ebp]
  002e6	f3 0f 10 09	 movss	 xmm1, DWORD PTR [ecx]
  002ea	0f 5a c0	 cvtps2pd xmm0, xmm0
  002ed	0f 5a c9	 cvtps2pd xmm1, xmm1
  002f0	66 0f 2e c1	 ucomisd xmm0, xmm1
  002f4	9f		 lahf
  002f5	f6 c4 44	 test	 ah, 68			; 00000044H
  002f8	7a 40		 jp	 SHORT $LN3@CheckCharR
  002fa	f3 0f 10 45 d0	 movss	 xmm0, DWORD PTR _vAxis$[ebp+4]
  002ff	f3 0f 10 49 04	 movss	 xmm1, DWORD PTR [ecx+4]
  00304	0f 5a c0	 cvtps2pd xmm0, xmm0
  00307	0f 5a c9	 cvtps2pd xmm1, xmm1
  0030a	66 0f 2e c1	 ucomisd xmm0, xmm1
  0030e	9f		 lahf
  0030f	f6 c4 44	 test	 ah, 68			; 00000044H
  00312	7a 26		 jp	 SHORT $LN3@CheckCharR
  00314	f3 0f 10 45 d4	 movss	 xmm0, DWORD PTR _vAxis$[ebp+8]
  00319	f3 0f 10 49 08	 movss	 xmm1, DWORD PTR [ecx+8]
  0031e	0f 5a c0	 cvtps2pd xmm0, xmm0
  00321	0f 5a c9	 cvtps2pd xmm1, xmm1
  00324	66 0f 2e c1	 ucomisd xmm0, xmm1
  00328	9f		 lahf
  00329	f6 c4 44	 test	 ah, 68			; 00000044H
  0032c	7a 0c		 jp	 SHORT $LN3@CheckCharR

; 1024 : 		vAxis = ioMath::UNIT_Y;

  0032e	8b 35 00 00 00
	00		 mov	 esi, DWORD PTR __imp_?UNIT_Y@ioMath@@2UD3DXVECTOR3@@A
  00334	8d 7d cc	 lea	 edi, DWORD PTR _vAxis$[ebp]
  00337	a5		 movsd
  00338	a5		 movsd
  00339	a5		 movsd
$LN3@CheckCharR:

; 1025 : 
; 1026 : 	D3DXQUATERNION qtNewRot;
; 1027 : 	if( fGapAngle < fRotateAngle )

  0033a	f3 0f 10 45 b4	 movss	 xmm0, DWORD PTR _fGapAngle$[ebp]
  0033f	f3 0f 10 4d b8	 movss	 xmm1, DWORD PTR _fRotateAngle$[ebp]
  00344	0f 5a c0	 cvtps2pd xmm0, xmm0
  00347	0f 5a c9	 cvtps2pd xmm1, xmm1
  0034a	66 0f 2f c8	 comisd	 xmm1, xmm0

; 1028 : 		D3DXQuaternionRotationAxis( &qtNewRot, &vAxis, DEGtoRAD(fGapAngle) );

  0034e	51		 push	 ecx
  0034f	8d 45 cc	 lea	 eax, DWORD PTR _vAxis$[ebp]
  00352	76 07		 jbe	 SHORT $LN2@CheckCharR
  00354	f3 0f 10 45 b4	 movss	 xmm0, DWORD PTR _fGapAngle$[ebp]

; 1029 : 	else

  00359	eb 05		 jmp	 SHORT $LN65@CheckCharR
$LN2@CheckCharR:

; 1030 : 		D3DXQuaternionRotationAxis( &qtNewRot, &vAxis, DEGtoRAD(fRotateAngle) );

  0035b	f3 0f 10 45 b8	 movss	 xmm0, DWORD PTR _fRotateAngle$[ebp]
$LN65@CheckCharR:
  00360	0f 5a c0	 cvtps2pd xmm0, xmm0
  00363	f2 0f 59 05 00
	00 00 00	 mulsd	 xmm0, QWORD PTR __real@3f91df46a2526c7a
  0036b	f2 0f 5a c0	 cvtsd2ss xmm0, xmm0
  0036f	f3 0f 11 04 24	 movss	 DWORD PTR [esp], xmm0
  00374	50		 push	 eax
  00375	8d 45 a4	 lea	 eax, DWORD PTR _qtNewRot$[ebp]
  00378	50		 push	 eax
  00379	e8 00 00 00 00	 call	 _D3DXQuaternionRotationAxis@12

; 1031 : 
; 1032 : 	D3DXVECTOR3 vNewDir = qtNewRot * vCurMoveDir;

  0037e	8d 45 e4	 lea	 eax, DWORD PTR _vCurMoveDir$[ebp]
  00381	50		 push	 eax
  00382	8d 45 a4	 lea	 eax, DWORD PTR _qtNewRot$[ebp]
  00385	50		 push	 eax
  00386	8d 45 c0	 lea	 eax, DWORD PTR _vNewDir$[ebp]
  00389	50		 push	 eax
  0038a	ff 15 00 00 00
	00		 call	 DWORD PTR __imp_??D@YA?AUD3DXVECTOR3@@ABUD3DXQUATERNION@@ABU0@@Z
  00390	83 c4 0c	 add	 esp, 12			; 0000000cH

; 1033 : 	D3DXVec3Normalize( &vNewDir, &vNewDir );

  00393	8d 45 c0	 lea	 eax, DWORD PTR _vNewDir$[ebp]
  00396	50		 push	 eax
  00397	50		 push	 eax
  00398	e8 00 00 00 00	 call	 _D3DXVec3Normalize@8

; 1034 : 
; 1035 : 	ioMath::CalcDirectionQuaternion( qtNewRot, -vNewDir );

  0039d	f3 0f 10 05 00
	00 00 00	 movss	 xmm0, DWORD PTR __mask@@NegFloat@
  003a5	f3 0f 10 4d c0	 movss	 xmm1, DWORD PTR _vNewDir$[ebp]
  003aa	0f 57 c8	 xorps	 xmm1, xmm0
  003ad	f3 0f 11 4d f0	 movss	 DWORD PTR $T551101[ebp], xmm1
  003b2	f3 0f 10 4d c4	 movss	 xmm1, DWORD PTR _vNewDir$[ebp+4]
  003b7	0f 57 c8	 xorps	 xmm1, xmm0
  003ba	8d 45 f0	 lea	 eax, DWORD PTR $T551101[ebp]
  003bd	50		 push	 eax
  003be	f3 0f 11 4d f4	 movss	 DWORD PTR $T551101[ebp+4], xmm1
  003c3	f3 0f 10 4d c8	 movss	 xmm1, DWORD PTR _vNewDir$[ebp+8]
  003c8	8d 45 a4	 lea	 eax, DWORD PTR _qtNewRot$[ebp]
  003cb	0f 57 c8	 xorps	 xmm1, xmm0
  003ce	50		 push	 eax
  003cf	f3 0f 11 4d f8	 movss	 DWORD PTR $T551101[ebp+8], xmm1
  003d4	ff 15 00 00 00
	00		 call	 DWORD PTR __imp_?CalcDirectionQuaternion@ioMath@@SAXAAUD3DXQUATERNION@@ABUD3DXVECTOR3@@@Z
  003da	59		 pop	 ecx
  003db	59		 pop	 ecx

; 1036 : 	pChar->SetTargetRotToRotate( qtNewRot, true );

  003dc	8d 45 a4	 lea	 eax, DWORD PTR _qtNewRot$[ebp]
$LN64@CheckCharR:
  003df	8b 4d a0	 mov	 ecx, DWORD PTR _pChar$GSCopy$[ebp]
  003e2	6a 00		 push	 0
  003e4	6a 01		 push	 1
  003e6	50		 push	 eax
  003e7	e8 00 00 00 00	 call	 ?SetTargetRotToRotate@ioBaseChar@@QAEXABUD3DXQUATERNION@@_N1@Z ; ioBaseChar::SetTargetRotToRotate
$LN10@CheckCharR:

; 1037 : }

  003ec	8b 4d fc	 mov	 ecx, DWORD PTR __$ArrayPad$[ebp]
  003ef	5f		 pop	 edi
  003f0	5e		 pop	 esi
  003f1	33 cd		 xor	 ecx, ebp
  003f3	5b		 pop	 ebx
  003f4	e8 00 00 00 00	 call	 @__security_check_cookie@4
  003f9	c9		 leave
  003fa	c2 04 00	 ret	 4
?CheckCharRotate@ioCircleMoveAttackSkill@@IAEXPAVioBaseChar@@@Z ENDP ; ioCircleMoveAttackSkill::CheckCharRotate
_TEXT	ENDS
PUBLIC	??0?$CEncrypt@K@@QAE@ABV0@@Z			; CEncrypt<unsigned long>::CEncrypt<unsigned long>
;	COMDAT xdata$x
; File d:\lost saga for developer\youtube\tutorial\source\src\lsclient\encryptvalue.h
xdata$x	SEGMENT
__unwindtable$??0?$CEncrypt@K@@QAE@ABV0@@Z DD 0ffffffffH
	DD	FLAT:__unwindfunclet$??0?$CEncrypt@K@@QAE@ABV0@@Z$0
__ehfuncinfo$??0?$CEncrypt@K@@QAE@ABV0@@Z DD 019930522H
	DD	01H
	DD	FLAT:__unwindtable$??0?$CEncrypt@K@@QAE@ABV0@@Z
	DD	2 DUP(00H)
	DD	2 DUP(00H)
	DD	00H
	DD	01H
; Function compile flags: /Ogsp
xdata$x	ENDS
;	COMDAT ??0?$CEncrypt@K@@QAE@ABV0@@Z
_TEXT	SEGMENT
_this$ = -16						; size = 4
__$EHRec$ = -12						; size = 12
_value$557689 = 8					; size = 4
_value$557684 = 8					; size = 4
_inValue$ = 8						; size = 4
??0?$CEncrypt@K@@QAE@ABV0@@Z PROC			; CEncrypt<unsigned long>::CEncrypt<unsigned long>, COMDAT
; _this$ = ecx

; 120  : 	CEncrypt( const CEncrypt<type> &inValue )   //     

  00000	6a 04		 push	 4
  00002	b8 00 00 00 00	 mov	 eax, __ehhandler$??0?$CEncrypt@K@@QAE@ABV0@@Z
  00007	e8 00 00 00 00	 call	 __EH_prolog3
  0000c	8b f1		 mov	 esi, ecx
  0000e	89 75 f0	 mov	 DWORD PTR _this$[ebp], esi
  00011	8d 4e 0c	 lea	 ecx, DWORD PTR [esi+12]
  00014	c7 06 00 00 00
	00		 mov	 DWORD PTR [esi], OFFSET ??_7?$CEncrypt@K@@6B@
  0001a	e8 00 00 00 00	 call	 ??0ccddaabb@@QAE@XZ	; ccddaabb::ccddaabb
  0001f	83 65 fc 00	 and	 DWORD PTR __$EHRec$[ebp+8], 0

; 121  : 	{
; 122  : 		Init();

  00023	8b ce		 mov	 ecx, esi
  00025	e8 00 00 00 00	 call	 ?Init@?$CEncrypt@K@@AAEXXZ ; CEncrypt<unsigned long>::Init

; 123  : 		*this = inValue;

  0002a	8b 4d 08	 mov	 ecx, DWORD PTR _inValue$[ebp]
  0002d	8d 45 08	 lea	 eax, DWORD PTR _value$557684[ebp]
  00030	50		 push	 eax
  00031	e8 00 00 00 00	 call	 ?DecryptValueToPool@?$CEncrypt@K@@QAEXPAK@Z ; CEncrypt<unsigned long>::DecryptValueToPool
  00036	8b 45 08	 mov	 eax, DWORD PTR _value$557684[ebp]
  00039	89 45 08	 mov	 DWORD PTR _value$557689[ebp], eax
  0003c	8d 45 08	 lea	 eax, DWORD PTR _value$557689[ebp]
  0003f	50		 push	 eax
  00040	8b ce		 mov	 ecx, esi
  00042	e8 00 00 00 00	 call	 ?EncryptValueToPool@?$CEncrypt@K@@AAEXPBD@Z ; CEncrypt<unsigned long>::EncryptValueToPool

; 124  : 	}

  00047	8b c6		 mov	 eax, esi
  00049	e8 00 00 00 00	 call	 __EH_epilog3
  0004e	c2 04 00	 ret	 4
_TEXT	ENDS
;	COMDAT text$x
text$x	SEGMENT
__unwindfunclet$??0?$CEncrypt@K@@QAE@ABV0@@Z$0:
  00000	8b 4d f0	 mov	 ecx, DWORD PTR _this$[ebp]
  00003	83 c1 0c	 add	 ecx, 12			; 0000000cH
  00006	e9 00 00 00 00	 jmp	 ??1ccddaabb@@UAE@XZ	; ccddaabb::~ccddaabb
__ehhandler$??0?$CEncrypt@K@@QAE@ABV0@@Z:
  0000b	8b 54 24 08	 mov	 edx, DWORD PTR [esp+8]
  0000f	8d 42 0c	 lea	 eax, DWORD PTR [edx+12]
  00012	8b 4a ec	 mov	 ecx, DWORD PTR [edx-20]
  00015	33 c8		 xor	 ecx, eax
  00017	e8 00 00 00 00	 call	 @__security_check_cookie@4
  0001c	b8 00 00 00 00	 mov	 eax, OFFSET __ehfuncinfo$??0?$CEncrypt@K@@QAE@ABV0@@Z
  00021	e9 00 00 00 00	 jmp	 ___CxxFrameHandler3
text$x	ENDS
??0?$CEncrypt@K@@QAE@ABV0@@Z ENDP			; CEncrypt<unsigned long>::CEncrypt<unsigned long>
PUBLIC	?_Grow_to@?$vector@UWeaponInfo@@V?$allocator@UWeaponInfo@@@std@@@std@@IBEII@Z ; std::vector<WeaponInfo,std::allocator<WeaponInfo> >::_Grow_to
; Function compile flags: /Ogsp
; File c:\program files (x86)\microsoft visual studio 10.0\vc\include\vector
;	COMDAT ?_Grow_to@?$vector@UWeaponInfo@@V?$allocator@UWeaponInfo@@@std@@@std@@IBEII@Z
_TEXT	SEGMENT
__Count$ = 8						; size = 4
?_Grow_to@?$vector@UWeaponInfo@@V?$allocator@UWeaponInfo@@@std@@@std@@IBEII@Z PROC ; std::vector<WeaponInfo,std::allocator<WeaponInfo> >::_Grow_to, COMDAT
; _this$ = ecx

; 1274 : 		{	// grow by 50% or at least to _Count

  00000	55		 push	 ebp
  00001	8b ec		 mov	 ebp, esp

; 1275 : 		size_type _Capacity = capacity();

  00003	8b 41 08	 mov	 eax, DWORD PTR [ecx+8]
  00006	2b 01		 sub	 eax, DWORD PTR [ecx]
  00008	6a 28		 push	 40			; 00000028H
  0000a	99		 cdq
  0000b	59		 pop	 ecx
  0000c	f7 f9		 idiv	 ecx

; 1276 : 
; 1277 : 		_Capacity = max_size() - _Capacity / 2 < _Capacity
; 1278 : 			? 0 : _Capacity + _Capacity / 2;	// try to grow by 50%

  0000e	ba 66 66 66 06	 mov	 edx, 107374182		; 06666666H
  00013	8b c8		 mov	 ecx, eax
  00015	d1 e9		 shr	 ecx, 1
  00017	2b d1		 sub	 edx, ecx
  00019	3b d0		 cmp	 edx, eax
  0001b	73 04		 jae	 SHORT $LN4@Grow_to
  0001d	33 c0		 xor	 eax, eax
  0001f	eb 02		 jmp	 SHORT $LN5@Grow_to
$LN4@Grow_to:
  00021	03 c1		 add	 eax, ecx
$LN5@Grow_to:

; 1279 : 		if (_Capacity < _Count)

  00023	3b 45 08	 cmp	 eax, DWORD PTR __Count$[ebp]

; 1280 : 			_Capacity = _Count;

  00026	0f 42 45 08	 cmovb	 eax, DWORD PTR __Count$[ebp]

; 1281 : 		return (_Capacity);
; 1282 : 		}

  0002a	5d		 pop	 ebp
  0002b	c2 04 00	 ret	 4
?_Grow_to@?$vector@UWeaponInfo@@V?$allocator@UWeaponInfo@@@std@@@std@@IBEII@Z ENDP ; std::vector<WeaponInfo,std::allocator<WeaponInfo> >::_Grow_to
_TEXT	ENDS
PUBLIC	?_Grow_to@?$vector@UForceInfo@@V?$allocator@UForceInfo@@@std@@@std@@IBEII@Z ; std::vector<ForceInfo,std::allocator<ForceInfo> >::_Grow_to
; Function compile flags: /Ogsp
;	COMDAT ?_Grow_to@?$vector@UForceInfo@@V?$allocator@UForceInfo@@@std@@@std@@IBEII@Z
_TEXT	SEGMENT
__Count$ = 8						; size = 4
?_Grow_to@?$vector@UForceInfo@@V?$allocator@UForceInfo@@@std@@@std@@IBEII@Z PROC ; std::vector<ForceInfo,std::allocator<ForceInfo> >::_Grow_to, COMDAT
; _this$ = ecx

; 1274 : 		{	// grow by 50% or at least to _Count

  00000	55		 push	 ebp
  00001	8b ec		 mov	 ebp, esp

; 1275 : 		size_type _Capacity = capacity();

  00003	8b 41 08	 mov	 eax, DWORD PTR [ecx+8]
  00006	2b 01		 sub	 eax, DWORD PTR [ecx]
  00008	6a 0c		 push	 12			; 0000000cH
  0000a	99		 cdq
  0000b	59		 pop	 ecx
  0000c	f7 f9		 idiv	 ecx

; 1276 : 
; 1277 : 		_Capacity = max_size() - _Capacity / 2 < _Capacity
; 1278 : 			? 0 : _Capacity + _Capacity / 2;	// try to grow by 50%

  0000e	ba 55 55 55 15	 mov	 edx, 357913941		; 15555555H
  00013	8b c8		 mov	 ecx, eax
  00015	d1 e9		 shr	 ecx, 1
  00017	2b d1		 sub	 edx, ecx
  00019	3b d0		 cmp	 edx, eax
  0001b	73 04		 jae	 SHORT $LN4@Grow_to@2
  0001d	33 c0		 xor	 eax, eax
  0001f	eb 02		 jmp	 SHORT $LN5@Grow_to@2
$LN4@Grow_to@2:
  00021	03 c1		 add	 eax, ecx
$LN5@Grow_to@2:

; 1279 : 		if (_Capacity < _Count)

  00023	3b 45 08	 cmp	 eax, DWORD PTR __Count$[ebp]

; 1280 : 			_Capacity = _Count;

  00026	0f 42 45 08	 cmovb	 eax, DWORD PTR __Count$[ebp]

; 1281 : 		return (_Capacity);
; 1282 : 		}

  0002a	5d		 pop	 ebp
  0002b	c2 04 00	 ret	 4
?_Grow_to@?$vector@UForceInfo@@V?$allocator@UForceInfo@@@std@@@std@@IBEII@Z ENDP ; std::vector<ForceInfo,std::allocator<ForceInfo> >::_Grow_to
_TEXT	ENDS
PUBLIC	??$_Cons_val@V?$allocator@UForceInfo@@@std@@UForceInfo@@ABU3@@std@@YAXAAV?$allocator@UForceInfo@@@0@PAUForceInfo@@ABU2@@Z ; std::_Cons_val<std::allocator<ForceInfo>,ForceInfo,ForceInfo const &>
; Function compile flags: /Ogsp
; File c:\program files (x86)\microsoft visual studio 10.0\vc\include\xmemory
;	COMDAT ??$_Cons_val@V?$allocator@UForceInfo@@@std@@UForceInfo@@ABU3@@std@@YAXAAV?$allocator@UForceInfo@@@0@PAUForceInfo@@ABU2@@Z
_TEXT	SEGMENT
__Alval$ = 8						; size = 4
__Pdest$ = 12						; size = 4
__Src$ = 16						; size = 4
??$_Cons_val@V?$allocator@UForceInfo@@@std@@UForceInfo@@ABU3@@std@@YAXAAV?$allocator@UForceInfo@@@0@PAUForceInfo@@ABU2@@Z PROC ; std::_Cons_val<std::allocator<ForceInfo>,ForceInfo,ForceInfo const &>, COMDAT

; 279  : 	{	// construct using allocator

  00000	55		 push	 ebp
  00001	8b ec		 mov	 ebp, esp
  00003	57		 push	 edi

; 280  : 	_Alval.construct(_Pdest, _STD forward<_Ty2>(_Src));

  00004	8b 7d 0c	 mov	 edi, DWORD PTR __Pdest$[ebp]
  00007	85 ff		 test	 edi, edi
  00009	74 08		 je	 SHORT $LN9@Cons_val@2
  0000b	56		 push	 esi
  0000c	8b 75 10	 mov	 esi, DWORD PTR __Src$[ebp]
  0000f	a5		 movsd
  00010	a5		 movsd
  00011	a5		 movsd
  00012	5e		 pop	 esi
$LN9@Cons_val@2:
  00013	5f		 pop	 edi

; 281  : 	}

  00014	5d		 pop	 ebp
  00015	c3		 ret	 0
??$_Cons_val@V?$allocator@UForceInfo@@@std@@UForceInfo@@ABU3@@std@@YAXAAV?$allocator@UForceInfo@@@0@PAUForceInfo@@ABU2@@Z ENDP ; std::_Cons_val<std::allocator<ForceInfo>,ForceInfo,ForceInfo const &>
_TEXT	ENDS
PUBLIC	?construct@?$allocator@UWeaponInfo@@@std@@QAEXPAUWeaponInfo@@ABU3@@Z ; std::allocator<WeaponInfo>::construct
; Function compile flags: /Ogsp
;	COMDAT ?construct@?$allocator@UWeaponInfo@@@std@@QAEXPAUWeaponInfo@@ABU3@@Z
_TEXT	SEGMENT
__Ptr$ = 8						; size = 4
__Val$ = 12						; size = 4
?construct@?$allocator@UWeaponInfo@@@std@@QAEXPAUWeaponInfo@@ABU3@@Z PROC ; std::allocator<WeaponInfo>::construct, COMDAT
; _this$ = ecx

; 196  : 		{	// construct object at _Ptr with value _Val

  00000	55		 push	 ebp
  00001	8b ec		 mov	 ebp, esp

; 197  : 		_Construct(_Ptr, _Val);

  00003	ff 75 0c	 push	 DWORD PTR __Val$[ebp]
  00006	ff 75 08	 push	 DWORD PTR __Ptr$[ebp]
  00009	e8 00 00 00 00	 call	 ??$_Construct@UWeaponInfo@@ABU1@@std@@YAXPAUWeaponInfo@@ABU1@@Z ; std::_Construct<WeaponInfo,WeaponInfo const &>
  0000e	59		 pop	 ecx
  0000f	59		 pop	 ecx

; 198  : 		}

  00010	5d		 pop	 ebp
  00011	c2 08 00	 ret	 8
?construct@?$allocator@UWeaponInfo@@@std@@QAEXPAUWeaponInfo@@ABU3@@Z ENDP ; std::allocator<WeaponInfo>::construct
_TEXT	ENDS
PUBLIC	??$_Cons_val@V?$allocator@UWeaponInfo@@@std@@UWeaponInfo@@U3@@std@@YAXAAV?$allocator@UWeaponInfo@@@0@PAUWeaponInfo@@$$QAU2@@Z ; std::_Cons_val<std::allocator<WeaponInfo>,WeaponInfo,WeaponInfo>
;	COMDAT xdata$x
; File c:\program files (x86)\microsoft visual studio 10.0\vc\include\utility
xdata$x	SEGMENT
__unwindtable$??$_Cons_val@V?$allocator@UWeaponInfo@@@std@@UWeaponInfo@@U3@@std@@YAXAAV?$allocator@UWeaponInfo@@@0@PAUWeaponInfo@@$$QAU2@@Z DD 0ffffffffH
	DD	FLAT:__unwindfunclet$??$_Cons_val@V?$allocator@UWeaponInfo@@@std@@UWeaponInfo@@U3@@std@@YAXAAV?$allocator@UWeaponInfo@@@0@PAUWeaponInfo@@$$QAU2@@Z$0
__ehfuncinfo$??$_Cons_val@V?$allocator@UWeaponInfo@@@std@@UWeaponInfo@@U3@@std@@YAXAAV?$allocator@UWeaponInfo@@@0@PAUWeaponInfo@@$$QAU2@@Z DD 019930522H
	DD	01H
	DD	FLAT:__unwindtable$??$_Cons_val@V?$allocator@UWeaponInfo@@@std@@UWeaponInfo@@U3@@std@@YAXAAV?$allocator@UWeaponInfo@@@0@PAUWeaponInfo@@$$QAU2@@Z
	DD	2 DUP(00H)
	DD	2 DUP(00H)
	DD	00H
	DD	01H
; Function compile flags: /Ogsp
; File c:\program files (x86)\microsoft visual studio 10.0\vc\include\xmemory
xdata$x	ENDS
;	COMDAT ??$_Cons_val@V?$allocator@UWeaponInfo@@@std@@UWeaponInfo@@U3@@std@@YAXAAV?$allocator@UWeaponInfo@@@0@PAUWeaponInfo@@$$QAU2@@Z
_TEXT	SEGMENT
$T557806 = -16						; size = 4
__$EHRec$ = -12						; size = 12
__Alval$ = 8						; size = 4
__Pdest$ = 12						; size = 4
__Src$ = 16						; size = 4
??$_Cons_val@V?$allocator@UWeaponInfo@@@std@@UWeaponInfo@@U3@@std@@YAXAAV?$allocator@UWeaponInfo@@@0@PAUWeaponInfo@@$$QAU2@@Z PROC ; std::_Cons_val<std::allocator<WeaponInfo>,WeaponInfo,WeaponInfo>, COMDAT

; 279  : 	{	// construct using allocator

  00000	6a 04		 push	 4
  00002	b8 00 00 00 00	 mov	 eax, __ehhandler$??$_Cons_val@V?$allocator@UWeaponInfo@@@std@@UWeaponInfo@@U3@@std@@YAXAAV?$allocator@UWeaponInfo@@@0@PAUWeaponInfo@@$$QAU2@@Z
  00007	e8 00 00 00 00	 call	 __EH_prolog3

; 280  : 	_Alval.construct(_Pdest, _STD forward<_Ty2>(_Src));

  0000c	8b 4d 0c	 mov	 ecx, DWORD PTR __Pdest$[ebp]
  0000f	89 4d f0	 mov	 DWORD PTR $T557806[ebp], ecx
  00012	83 65 fc 00	 and	 DWORD PTR __$EHRec$[ebp+8], 0
  00016	85 c9		 test	 ecx, ecx
  00018	74 08		 je	 SHORT $LN7@Cons_val@3
  0001a	ff 75 10	 push	 DWORD PTR __Src$[ebp]
  0001d	e8 00 00 00 00	 call	 ??0WeaponInfo@@QAE@ABU0@@Z
$LN7@Cons_val@3:

; 281  : 	}

  00022	e8 00 00 00 00	 call	 __EH_epilog3
  00027	c3		 ret	 0
_TEXT	ENDS
;	COMDAT text$x
text$x	SEGMENT
__unwindfunclet$??$_Cons_val@V?$allocator@UWeaponInfo@@@std@@UWeaponInfo@@U3@@std@@YAXAAV?$allocator@UWeaponInfo@@@0@PAUWeaponInfo@@$$QAU2@@Z$0:
  00000	ff 75 0c	 push	 DWORD PTR __Pdest$[ebp]
  00003	ff 75 f0	 push	 DWORD PTR $T557806[ebp]
  00006	e8 00 00 00 00	 call	 ??3@YAXPAX0@Z		; operator delete
  0000b	59		 pop	 ecx
  0000c	59		 pop	 ecx
  0000d	c3		 ret	 0
__ehhandler$??$_Cons_val@V?$allocator@UWeaponInfo@@@std@@UWeaponInfo@@U3@@std@@YAXAAV?$allocator@UWeaponInfo@@@0@PAUWeaponInfo@@$$QAU2@@Z:
  0000e	8b 54 24 08	 mov	 edx, DWORD PTR [esp+8]
  00012	8d 42 0c	 lea	 eax, DWORD PTR [edx+12]
  00015	8b 4a ec	 mov	 ecx, DWORD PTR [edx-20]
  00018	33 c8		 xor	 ecx, eax
  0001a	e8 00 00 00 00	 call	 @__security_check_cookie@4
  0001f	b8 00 00 00 00	 mov	 eax, OFFSET __ehfuncinfo$??$_Cons_val@V?$allocator@UWeaponInfo@@@std@@UWeaponInfo@@U3@@std@@YAXAAV?$allocator@UWeaponInfo@@@0@PAUWeaponInfo@@$$QAU2@@Z
  00024	e9 00 00 00 00	 jmp	 ___CxxFrameHandler3
text$x	ENDS
??$_Cons_val@V?$allocator@UWeaponInfo@@@std@@UWeaponInfo@@U3@@std@@YAXAAV?$allocator@UWeaponInfo@@@0@PAUWeaponInfo@@$$QAU2@@Z ENDP ; std::_Cons_val<std::allocator<WeaponInfo>,WeaponInfo,WeaponInfo>
PUBLIC	??$_Cons_val@V?$allocator@UForceInfo@@@std@@UForceInfo@@U3@@std@@YAXAAV?$allocator@UForceInfo@@@0@PAUForceInfo@@$$QAU2@@Z ; std::_Cons_val<std::allocator<ForceInfo>,ForceInfo,ForceInfo>
; Function compile flags: /Ogsp
;	COMDAT ??$_Cons_val@V?$allocator@UForceInfo@@@std@@UForceInfo@@U3@@std@@YAXAAV?$allocator@UForceInfo@@@0@PAUForceInfo@@$$QAU2@@Z
_TEXT	SEGMENT
__Alval$ = 8						; size = 4
__Pdest$ = 12						; size = 4
__Src$ = 16						; size = 4
??$_Cons_val@V?$allocator@UForceInfo@@@std@@UForceInfo@@U3@@std@@YAXAAV?$allocator@UForceInfo@@@0@PAUForceInfo@@$$QAU2@@Z PROC ; std::_Cons_val<std::allocator<ForceInfo>,ForceInfo,ForceInfo>, COMDAT

; 279  : 	{	// construct using allocator

  00000	55		 push	 ebp
  00001	8b ec		 mov	 ebp, esp
  00003	57		 push	 edi

; 280  : 	_Alval.construct(_Pdest, _STD forward<_Ty2>(_Src));

  00004	8b 7d 0c	 mov	 edi, DWORD PTR __Pdest$[ebp]
  00007	85 ff		 test	 edi, edi
  00009	74 08		 je	 SHORT $LN7@Cons_val@4
  0000b	56		 push	 esi
  0000c	8b 75 10	 mov	 esi, DWORD PTR __Src$[ebp]
  0000f	a5		 movsd
  00010	a5		 movsd
  00011	a5		 movsd
  00012	5e		 pop	 esi
$LN7@Cons_val@4:
  00013	5f		 pop	 edi

; 281  : 	}

  00014	5d		 pop	 ebp
  00015	c3		 ret	 0
??$_Cons_val@V?$allocator@UForceInfo@@@std@@UForceInfo@@U3@@std@@YAXAAV?$allocator@UForceInfo@@@0@PAUForceInfo@@$$QAU2@@Z ENDP ; std::_Cons_val<std::allocator<ForceInfo>,ForceInfo,ForceInfo>
_TEXT	ENDS
PUBLIC	?GetTeam@ioPlayEntity@@QBE?AW4TeamType@@XZ	; ioPlayEntity::GetTeam
; Function compile flags: /Ogsp
; File d:\lost saga for developer\youtube\tutorial\source\src\lsclient\ioplayentity.h
;	COMDAT ?GetTeam@ioPlayEntity@@QBE?AW4TeamType@@XZ
_TEXT	SEGMENT
_value$557850 = -4					; size = 4
?GetTeam@ioPlayEntity@@QBE?AW4TeamType@@XZ PROC		; ioPlayEntity::GetTeam, COMDAT
; _this$ = ecx

; 107  : 	inline TeamType GetTeam() const { return m_TeamType; }

  00000	55		 push	 ebp
  00001	8b ec		 mov	 ebp, esp
  00003	51		 push	 ecx
  00004	8d 45 fc	 lea	 eax, DWORD PTR _value$557850[ebp]
  00007	50		 push	 eax
  00008	81 c1 90 00 00
	00		 add	 ecx, 144		; 00000090H
  0000e	e8 00 00 00 00	 call	 ?DecryptValueToPool@?$CEncrypt@W4TeamType@@@@QAEXPAW4TeamType@@@Z ; CEncrypt<enum TeamType>::DecryptValueToPool
  00013	8b 45 fc	 mov	 eax, DWORD PTR _value$557850[ebp]
  00016	c9		 leave
  00017	c3		 ret	 0
?GetTeam@ioPlayEntity@@QBE?AW4TeamType@@XZ ENDP		; ioPlayEntity::GetTeam
_TEXT	ENDS
PUBLIC	??0?$vector@UWeaponInfo@@V?$allocator@UWeaponInfo@@@std@@@std@@QAE@XZ ; std::vector<WeaponInfo,std::allocator<WeaponInfo> >::vector<WeaponInfo,std::allocator<WeaponInfo> >
; Function compile flags: /Ogsp
; File c:\program files (x86)\microsoft visual studio 10.0\vc\include\vector
;	COMDAT ??0?$vector@UWeaponInfo@@V?$allocator@UWeaponInfo@@@std@@@std@@QAE@XZ
_TEXT	SEGMENT
??0?$vector@UWeaponInfo@@V?$allocator@UWeaponInfo@@@std@@@std@@QAE@XZ PROC ; std::vector<WeaponInfo,std::allocator<WeaponInfo> >::vector<WeaponInfo,std::allocator<WeaponInfo> >, COMDAT
; _this$ = ecx

; 507  : 		{	// construct empty vector

  00000	8b c1		 mov	 eax, ecx
  00002	33 c9		 xor	 ecx, ecx
  00004	89 08		 mov	 DWORD PTR [eax], ecx
  00006	89 48 04	 mov	 DWORD PTR [eax+4], ecx
  00009	89 48 08	 mov	 DWORD PTR [eax+8], ecx

; 508  : 		}

  0000c	c3		 ret	 0
??0?$vector@UWeaponInfo@@V?$allocator@UWeaponInfo@@@std@@@std@@QAE@XZ ENDP ; std::vector<WeaponInfo,std::allocator<WeaponInfo> >::vector<WeaponInfo,std::allocator<WeaponInfo> >
_TEXT	ENDS
PUBLIC	??0?$vector@UForceInfo@@V?$allocator@UForceInfo@@@std@@@std@@QAE@XZ ; std::vector<ForceInfo,std::allocator<ForceInfo> >::vector<ForceInfo,std::allocator<ForceInfo> >
; Function compile flags: /Ogsp
;	COMDAT ??0?$vector@UForceInfo@@V?$allocator@UForceInfo@@@std@@@std@@QAE@XZ
_TEXT	SEGMENT
??0?$vector@UForceInfo@@V?$allocator@UForceInfo@@@std@@@std@@QAE@XZ PROC ; std::vector<ForceInfo,std::allocator<ForceInfo> >::vector<ForceInfo,std::allocator<ForceInfo> >, COMDAT
; _this$ = ecx

; 507  : 		{	// construct empty vector

  00000	8b c1		 mov	 eax, ecx
  00002	33 c9		 xor	 ecx, ecx
  00004	89 08		 mov	 DWORD PTR [eax], ecx
  00006	89 48 04	 mov	 DWORD PTR [eax+4], ecx
  00009	89 48 08	 mov	 DWORD PTR [eax+8], ecx

; 508  : 		}

  0000c	c3		 ret	 0
??0?$vector@UForceInfo@@V?$allocator@UForceInfo@@@std@@@std@@QAE@XZ ENDP ; std::vector<ForceInfo,std::allocator<ForceInfo> >::vector<ForceInfo,std::allocator<ForceInfo> >
_TEXT	ENDS
PUBLIC	?_Buy@?$vector@UWeaponInfo@@V?$allocator@UWeaponInfo@@@std@@@std@@IAE_NI@Z ; std::vector<WeaponInfo,std::allocator<WeaponInfo> >::_Buy
; Function compile flags: /Ogsp
;	COMDAT ?_Buy@?$vector@UWeaponInfo@@V?$allocator@UWeaponInfo@@@std@@@std@@IAE_NI@Z
_TEXT	SEGMENT
__Capacity$ = 8						; size = 4
?_Buy@?$vector@UWeaponInfo@@V?$allocator@UWeaponInfo@@@std@@@std@@IAE_NI@Z PROC ; std::vector<WeaponInfo,std::allocator<WeaponInfo> >::_Buy, COMDAT
; _this$ = ecx

; 1250 : 		{	// allocate array with _Capacity elements

  00000	55		 push	 ebp
  00001	8b ec		 mov	 ebp, esp
  00003	56		 push	 esi

; 1251 : 		this->_Myfirst = 0;

  00004	33 c0		 xor	 eax, eax
  00006	57		 push	 edi

; 1252 : 		this->_Mylast = 0;
; 1253 : 		this->_Myend = 0;
; 1254 : 
; 1255 : 		if (_Capacity == 0)

  00007	8b 7d 08	 mov	 edi, DWORD PTR __Capacity$[ebp]
  0000a	8b f1		 mov	 esi, ecx
  0000c	89 06		 mov	 DWORD PTR [esi], eax
  0000e	89 46 04	 mov	 DWORD PTR [esi+4], eax
  00011	89 46 08	 mov	 DWORD PTR [esi+8], eax
  00014	3b f8		 cmp	 edi, eax
  00016	75 04		 jne	 SHORT $LN4@Buy

; 1256 : 			return (false);

  00018	32 c0		 xor	 al, al
  0001a	eb 2b		 jmp	 SHORT $LN5@Buy
$LN4@Buy:

; 1257 : 		else if (max_size() < _Capacity)

  0001c	81 ff 66 66 66
	06		 cmp	 edi, 107374182		; 06666666H
  00022	76 0b		 jbe	 SHORT $LN2@Buy

; 1258 : 			_Xlen();	// result too long

  00024	68 00 00 00 00	 push	 OFFSET ??_C@_0BD@OLBABOEK@vector?$DMT?$DO?5too?5long?$AA@
  00029	ff 15 00 00 00
	00		 call	 DWORD PTR __imp_?_Xlength_error@std@@YAXPBD@Z
$LN19@Buy:
$LN2@Buy:

; 1259 : 		else
; 1260 : 			{	// nonempty array, allocate storage
; 1261 : 			this->_Myfirst = this->_Alval.allocate(_Capacity);

  0002f	50		 push	 eax
  00030	57		 push	 edi
  00031	e8 00 00 00 00	 call	 ??$_Allocate@UWeaponInfo@@@std@@YAPAUWeaponInfo@@IPAU1@@Z ; std::_Allocate<WeaponInfo>

; 1262 : 			this->_Mylast = this->_Myfirst;
; 1263 : 			this->_Myend = this->_Myfirst + _Capacity;

  00036	6b ff 28	 imul	 edi, 40			; 00000028H
  00039	03 f8		 add	 edi, eax
  0003b	59		 pop	 ecx
  0003c	89 06		 mov	 DWORD PTR [esi], eax
  0003e	89 46 04	 mov	 DWORD PTR [esi+4], eax
  00041	59		 pop	 ecx
  00042	89 7e 08	 mov	 DWORD PTR [esi+8], edi

; 1264 : 			}
; 1265 : 		return (true);

  00045	b0 01		 mov	 al, 1
$LN5@Buy:
  00047	5f		 pop	 edi
  00048	5e		 pop	 esi

; 1266 : 		}

  00049	5d		 pop	 ebp
  0004a	c2 04 00	 ret	 4
$LN18@Buy:
?_Buy@?$vector@UWeaponInfo@@V?$allocator@UWeaponInfo@@@std@@@std@@IAE_NI@Z ENDP ; std::vector<WeaponInfo,std::allocator<WeaponInfo> >::_Buy
_TEXT	ENDS
PUBLIC	?_Buy@?$vector@UForceInfo@@V?$allocator@UForceInfo@@@std@@@std@@IAE_NI@Z ; std::vector<ForceInfo,std::allocator<ForceInfo> >::_Buy
; Function compile flags: /Ogsp
;	COMDAT ?_Buy@?$vector@UForceInfo@@V?$allocator@UForceInfo@@@std@@@std@@IAE_NI@Z
_TEXT	SEGMENT
__Capacity$ = 8						; size = 4
?_Buy@?$vector@UForceInfo@@V?$allocator@UForceInfo@@@std@@@std@@IAE_NI@Z PROC ; std::vector<ForceInfo,std::allocator<ForceInfo> >::_Buy, COMDAT
; _this$ = ecx

; 1250 : 		{	// allocate array with _Capacity elements

  00000	55		 push	 ebp
  00001	8b ec		 mov	 ebp, esp
  00003	56		 push	 esi

; 1251 : 		this->_Myfirst = 0;

  00004	33 c0		 xor	 eax, eax
  00006	57		 push	 edi

; 1252 : 		this->_Mylast = 0;
; 1253 : 		this->_Myend = 0;
; 1254 : 
; 1255 : 		if (_Capacity == 0)

  00007	8b 7d 08	 mov	 edi, DWORD PTR __Capacity$[ebp]
  0000a	8b f1		 mov	 esi, ecx
  0000c	89 06		 mov	 DWORD PTR [esi], eax
  0000e	89 46 04	 mov	 DWORD PTR [esi+4], eax
  00011	89 46 08	 mov	 DWORD PTR [esi+8], eax
  00014	3b f8		 cmp	 edi, eax
  00016	75 04		 jne	 SHORT $LN4@Buy@2

; 1256 : 			return (false);

  00018	32 c0		 xor	 al, al
  0001a	eb 2b		 jmp	 SHORT $LN5@Buy@2
$LN4@Buy@2:

; 1257 : 		else if (max_size() < _Capacity)

  0001c	81 ff 55 55 55
	15		 cmp	 edi, 357913941		; 15555555H
  00022	76 0b		 jbe	 SHORT $LN2@Buy@2

; 1258 : 			_Xlen();	// result too long

  00024	68 00 00 00 00	 push	 OFFSET ??_C@_0BD@OLBABOEK@vector?$DMT?$DO?5too?5long?$AA@
  00029	ff 15 00 00 00
	00		 call	 DWORD PTR __imp_?_Xlength_error@std@@YAXPBD@Z
$LN19@Buy@2:
$LN2@Buy@2:

; 1259 : 		else
; 1260 : 			{	// nonempty array, allocate storage
; 1261 : 			this->_Myfirst = this->_Alval.allocate(_Capacity);

  0002f	50		 push	 eax
  00030	57		 push	 edi
  00031	e8 00 00 00 00	 call	 ??$_Allocate@UForceInfo@@@std@@YAPAUForceInfo@@IPAU1@@Z ; std::_Allocate<ForceInfo>

; 1262 : 			this->_Mylast = this->_Myfirst;
; 1263 : 			this->_Myend = this->_Myfirst + _Capacity;

  00036	6b ff 0c	 imul	 edi, 12			; 0000000cH
  00039	03 f8		 add	 edi, eax
  0003b	59		 pop	 ecx
  0003c	89 06		 mov	 DWORD PTR [esi], eax
  0003e	89 46 04	 mov	 DWORD PTR [esi+4], eax
  00041	59		 pop	 ecx
  00042	89 7e 08	 mov	 DWORD PTR [esi+8], edi

; 1264 : 			}
; 1265 : 		return (true);

  00045	b0 01		 mov	 al, 1
$LN5@Buy@2:
  00047	5f		 pop	 edi
  00048	5e		 pop	 esi

; 1266 : 		}

  00049	5d		 pop	 ebp
  0004a	c2 04 00	 ret	 4
$LN18@Buy@2:
?_Buy@?$vector@UForceInfo@@V?$allocator@UForceInfo@@@std@@@std@@IAE_NI@Z ENDP ; std::vector<ForceInfo,std::allocator<ForceInfo> >::_Buy
_TEXT	ENDS
PUBLIC	?begin@?$vector@UWeaponInfo@@V?$allocator@UWeaponInfo@@@std@@@std@@QAE?AV?$_Vector_iterator@V?$_Vector_val@UWeaponInfo@@V?$allocator@UWeaponInfo@@@std@@@std@@@2@XZ ; std::vector<WeaponInfo,std::allocator<WeaponInfo> >::begin
; Function compile flags: /Ogsp
;	COMDAT ?begin@?$vector@UWeaponInfo@@V?$allocator@UWeaponInfo@@@std@@@std@@QAE?AV?$_Vector_iterator@V?$_Vector_val@UWeaponInfo@@V?$allocator@UWeaponInfo@@@std@@@std@@@2@XZ
_TEXT	SEGMENT
___$ReturnUdt$ = 8					; size = 4
?begin@?$vector@UWeaponInfo@@V?$allocator@UWeaponInfo@@@std@@@std@@QAE?AV?$_Vector_iterator@V?$_Vector_val@UWeaponInfo@@V?$allocator@UWeaponInfo@@@std@@@std@@@2@XZ PROC ; std::vector<WeaponInfo,std::allocator<WeaponInfo> >::begin, COMDAT
; _this$ = ecx

; 781  : 		{	// return iterator for beginning of mutable sequence

  00000	55		 push	 ebp
  00001	8b ec		 mov	 ebp, esp

; 782  : 		return (iterator(this->_Myfirst, this));

  00003	8b 09		 mov	 ecx, DWORD PTR [ecx]
  00005	8b 45 08	 mov	 eax, DWORD PTR ___$ReturnUdt$[ebp]
  00008	89 08		 mov	 DWORD PTR [eax], ecx

; 783  : 		}

  0000a	5d		 pop	 ebp
  0000b	c2 04 00	 ret	 4
?begin@?$vector@UWeaponInfo@@V?$allocator@UWeaponInfo@@@std@@@std@@QAE?AV?$_Vector_iterator@V?$_Vector_val@UWeaponInfo@@V?$allocator@UWeaponInfo@@@std@@@std@@@2@XZ ENDP ; std::vector<WeaponInfo,std::allocator<WeaponInfo> >::begin
_TEXT	ENDS
PUBLIC	?end@?$vector@UWeaponInfo@@V?$allocator@UWeaponInfo@@@std@@@std@@QAE?AV?$_Vector_iterator@V?$_Vector_val@UWeaponInfo@@V?$allocator@UWeaponInfo@@@std@@@std@@@2@XZ ; std::vector<WeaponInfo,std::allocator<WeaponInfo> >::end
; Function compile flags: /Ogsp
;	COMDAT ?end@?$vector@UWeaponInfo@@V?$allocator@UWeaponInfo@@@std@@@std@@QAE?AV?$_Vector_iterator@V?$_Vector_val@UWeaponInfo@@V?$allocator@UWeaponInfo@@@std@@@std@@@2@XZ
_TEXT	SEGMENT
___$ReturnUdt$ = 8					; size = 4
?end@?$vector@UWeaponInfo@@V?$allocator@UWeaponInfo@@@std@@@std@@QAE?AV?$_Vector_iterator@V?$_Vector_val@UWeaponInfo@@V?$allocator@UWeaponInfo@@@std@@@std@@@2@XZ PROC ; std::vector<WeaponInfo,std::allocator<WeaponInfo> >::end, COMDAT
; _this$ = ecx

; 791  : 		{	// return iterator for end of mutable sequence

  00000	55		 push	 ebp
  00001	8b ec		 mov	 ebp, esp

; 792  : 		return (iterator(this->_Mylast, this));

  00003	8b 49 04	 mov	 ecx, DWORD PTR [ecx+4]
  00006	8b 45 08	 mov	 eax, DWORD PTR ___$ReturnUdt$[ebp]
  00009	89 08		 mov	 DWORD PTR [eax], ecx

; 793  : 		}

  0000b	5d		 pop	 ebp
  0000c	c2 04 00	 ret	 4
?end@?$vector@UWeaponInfo@@V?$allocator@UWeaponInfo@@@std@@@std@@QAE?AV?$_Vector_iterator@V?$_Vector_val@UWeaponInfo@@V?$allocator@UWeaponInfo@@@std@@@std@@@2@XZ ENDP ; std::vector<WeaponInfo,std::allocator<WeaponInfo> >::end
_TEXT	ENDS
PUBLIC	?begin@?$vector@UForceInfo@@V?$allocator@UForceInfo@@@std@@@std@@QAE?AV?$_Vector_iterator@V?$_Vector_val@UForceInfo@@V?$allocator@UForceInfo@@@std@@@std@@@2@XZ ; std::vector<ForceInfo,std::allocator<ForceInfo> >::begin
; Function compile flags: /Ogsp
;	COMDAT ?begin@?$vector@UForceInfo@@V?$allocator@UForceInfo@@@std@@@std@@QAE?AV?$_Vector_iterator@V?$_Vector_val@UForceInfo@@V?$allocator@UForceInfo@@@std@@@std@@@2@XZ
_TEXT	SEGMENT
___$ReturnUdt$ = 8					; size = 4
?begin@?$vector@UForceInfo@@V?$allocator@UForceInfo@@@std@@@std@@QAE?AV?$_Vector_iterator@V?$_Vector_val@UForceInfo@@V?$allocator@UForceInfo@@@std@@@std@@@2@XZ PROC ; std::vector<ForceInfo,std::allocator<ForceInfo> >::begin, COMDAT
; _this$ = ecx

; 781  : 		{	// return iterator for beginning of mutable sequence

  00000	55		 push	 ebp
  00001	8b ec		 mov	 ebp, esp

; 782  : 		return (iterator(this->_Myfirst, this));

  00003	8b 09		 mov	 ecx, DWORD PTR [ecx]
  00005	8b 45 08	 mov	 eax, DWORD PTR ___$ReturnUdt$[ebp]
  00008	89 08		 mov	 DWORD PTR [eax], ecx

; 783  : 		}

  0000a	5d		 pop	 ebp
  0000b	c2 04 00	 ret	 4
?begin@?$vector@UForceInfo@@V?$allocator@UForceInfo@@@std@@@std@@QAE?AV?$_Vector_iterator@V?$_Vector_val@UForceInfo@@V?$allocator@UForceInfo@@@std@@@std@@@2@XZ ENDP ; std::vector<ForceInfo,std::allocator<ForceInfo> >::begin
_TEXT	ENDS
PUBLIC	?end@?$vector@UForceInfo@@V?$allocator@UForceInfo@@@std@@@std@@QAE?AV?$_Vector_iterator@V?$_Vector_val@UForceInfo@@V?$allocator@UForceInfo@@@std@@@std@@@2@XZ ; std::vector<ForceInfo,std::allocator<ForceInfo> >::end
; Function compile flags: /Ogsp
;	COMDAT ?end@?$vector@UForceInfo@@V?$allocator@UForceInfo@@@std@@@std@@QAE?AV?$_Vector_iterator@V?$_Vector_val@UForceInfo@@V?$allocator@UForceInfo@@@std@@@std@@@2@XZ
_TEXT	SEGMENT
___$ReturnUdt$ = 8					; size = 4
?end@?$vector@UForceInfo@@V?$allocator@UForceInfo@@@std@@@std@@QAE?AV?$_Vector_iterator@V?$_Vector_val@UForceInfo@@V?$allocator@UForceInfo@@@std@@@std@@@2@XZ PROC ; std::vector<ForceInfo,std::allocator<ForceInfo> >::end, COMDAT
; _this$ = ecx

; 791  : 		{	// return iterator for end of mutable sequence

  00000	55		 push	 ebp
  00001	8b ec		 mov	 ebp, esp

; 792  : 		return (iterator(this->_Mylast, this));

  00003	8b 49 04	 mov	 ecx, DWORD PTR [ecx+4]
  00006	8b 45 08	 mov	 eax, DWORD PTR ___$ReturnUdt$[ebp]
  00009	89 08		 mov	 DWORD PTR [eax], ecx

; 793  : 		}

  0000b	5d		 pop	 ebp
  0000c	c2 04 00	 ret	 4
?end@?$vector@UForceInfo@@V?$allocator@UForceInfo@@@std@@@std@@QAE?AV?$_Vector_iterator@V?$_Vector_val@UForceInfo@@V?$allocator@UForceInfo@@@std@@@std@@@2@XZ ENDP ; std::vector<ForceInfo,std::allocator<ForceInfo> >::end
_TEXT	ENDS
PUBLIC	?_Make_iter@?$vector@UWeaponInfo@@V?$allocator@UWeaponInfo@@@std@@@std@@QBE?AV?$_Vector_iterator@V?$_Vector_val@UWeaponInfo@@V?$allocator@UWeaponInfo@@@std@@@std@@@2@V?$_Vector_const_iterator@V?$_Vector_val@UWeaponInfo@@V?$allocator@UWeaponInfo@@@std@@@std@@@2@@Z ; std::vector<WeaponInfo,std::allocator<WeaponInfo> >::_Make_iter
; Function compile flags: /Ogsp
;	COMDAT ?_Make_iter@?$vector@UWeaponInfo@@V?$allocator@UWeaponInfo@@@std@@@std@@QBE?AV?$_Vector_iterator@V?$_Vector_val@UWeaponInfo@@V?$allocator@UWeaponInfo@@@std@@@std@@@2@V?$_Vector_const_iterator@V?$_Vector_val@UWeaponInfo@@V?$allocator@UWeaponInfo@@@std@@@std@@@2@@Z
_TEXT	SEGMENT
___$ReturnUdt$ = 8					; size = 4
__Where$ = 12						; size = 4
?_Make_iter@?$vector@UWeaponInfo@@V?$allocator@UWeaponInfo@@@std@@@std@@QBE?AV?$_Vector_iterator@V?$_Vector_val@UWeaponInfo@@V?$allocator@UWeaponInfo@@@std@@@std@@@2@V?$_Vector_const_iterator@V?$_Vector_val@UWeaponInfo@@V?$allocator@UWeaponInfo@@@std@@@std@@@2@@Z PROC ; std::vector<WeaponInfo,std::allocator<WeaponInfo> >::_Make_iter, COMDAT
; _this$ = ecx

; 801  : 		{	// make iterator from const_iterator

  00000	55		 push	 ebp
  00001	8b ec		 mov	 ebp, esp

; 802  : 		return (iterator(_Where._Ptr, this));

  00003	8b 45 08	 mov	 eax, DWORD PTR ___$ReturnUdt$[ebp]
  00006	8b 4d 0c	 mov	 ecx, DWORD PTR __Where$[ebp]
  00009	89 08		 mov	 DWORD PTR [eax], ecx

; 803  : 		}

  0000b	5d		 pop	 ebp
  0000c	c2 08 00	 ret	 8
?_Make_iter@?$vector@UWeaponInfo@@V?$allocator@UWeaponInfo@@@std@@@std@@QBE?AV?$_Vector_iterator@V?$_Vector_val@UWeaponInfo@@V?$allocator@UWeaponInfo@@@std@@@std@@@2@V?$_Vector_const_iterator@V?$_Vector_val@UWeaponInfo@@V?$allocator@UWeaponInfo@@@std@@@std@@@2@@Z ENDP ; std::vector<WeaponInfo,std::allocator<WeaponInfo> >::_Make_iter
_TEXT	ENDS
PUBLIC	?_Make_iter@?$vector@UForceInfo@@V?$allocator@UForceInfo@@@std@@@std@@QBE?AV?$_Vector_iterator@V?$_Vector_val@UForceInfo@@V?$allocator@UForceInfo@@@std@@@std@@@2@V?$_Vector_const_iterator@V?$_Vector_val@UForceInfo@@V?$allocator@UForceInfo@@@std@@@std@@@2@@Z ; std::vector<ForceInfo,std::allocator<ForceInfo> >::_Make_iter
; Function compile flags: /Ogsp
;	COMDAT ?_Make_iter@?$vector@UForceInfo@@V?$allocator@UForceInfo@@@std@@@std@@QBE?AV?$_Vector_iterator@V?$_Vector_val@UForceInfo@@V?$allocator@UForceInfo@@@std@@@std@@@2@V?$_Vector_const_iterator@V?$_Vector_val@UForceInfo@@V?$allocator@UForceInfo@@@std@@@std@@@2@@Z
_TEXT	SEGMENT
___$ReturnUdt$ = 8					; size = 4
__Where$ = 12						; size = 4
?_Make_iter@?$vector@UForceInfo@@V?$allocator@UForceInfo@@@std@@@std@@QBE?AV?$_Vector_iterator@V?$_Vector_val@UForceInfo@@V?$allocator@UForceInfo@@@std@@@std@@@2@V?$_Vector_const_iterator@V?$_Vector_val@UForceInfo@@V?$allocator@UForceInfo@@@std@@@std@@@2@@Z PROC ; std::vector<ForceInfo,std::allocator<ForceInfo> >::_Make_iter, COMDAT
; _this$ = ecx

; 801  : 		{	// make iterator from const_iterator

  00000	55		 push	 ebp
  00001	8b ec		 mov	 ebp, esp

; 802  : 		return (iterator(_Where._Ptr, this));

  00003	8b 45 08	 mov	 eax, DWORD PTR ___$ReturnUdt$[ebp]
  00006	8b 4d 0c	 mov	 ecx, DWORD PTR __Where$[ebp]
  00009	89 08		 mov	 DWORD PTR [eax], ecx

; 803  : 		}

  0000b	5d		 pop	 ebp
  0000c	c2 08 00	 ret	 8
?_Make_iter@?$vector@UForceInfo@@V?$allocator@UForceInfo@@@std@@@std@@QBE?AV?$_Vector_iterator@V?$_Vector_val@UForceInfo@@V?$allocator@UForceInfo@@@std@@@std@@@2@V?$_Vector_const_iterator@V?$_Vector_val@UForceInfo@@V?$allocator@UForceInfo@@@std@@@std@@@2@@Z ENDP ; std::vector<ForceInfo,std::allocator<ForceInfo> >::_Make_iter
_TEXT	ENDS
PUBLIC	??9?$_Vector_const_iterator@V?$_Vector_val@UWeaponInfo@@V?$allocator@UWeaponInfo@@@std@@@std@@@std@@QBE_NABV01@@Z ; std::_Vector_const_iterator<std::_Vector_val<WeaponInfo,std::allocator<WeaponInfo> > >::operator!=
; Function compile flags: /Ogsp
;	COMDAT ??9?$_Vector_const_iterator@V?$_Vector_val@UWeaponInfo@@V?$allocator@UWeaponInfo@@@std@@@std@@@std@@QBE_NABV01@@Z
_TEXT	SEGMENT
__Right$ = 8						; size = 4
??9?$_Vector_const_iterator@V?$_Vector_val@UWeaponInfo@@V?$allocator@UWeaponInfo@@@std@@@std@@@std@@QBE_NABV01@@Z PROC ; std::_Vector_const_iterator<std::_Vector_val<WeaponInfo,std::allocator<WeaponInfo> > >::operator!=, COMDAT
; _this$ = ecx

; 207  : 		{	// test for iterator inequality

  00000	55		 push	 ebp
  00001	8b ec		 mov	 ebp, esp

; 208  : 		return (!(*this == _Right));

  00003	8b 01		 mov	 eax, DWORD PTR [ecx]
  00005	8b 55 08	 mov	 edx, DWORD PTR __Right$[ebp]
  00008	33 c9		 xor	 ecx, ecx
  0000a	3b 02		 cmp	 eax, DWORD PTR [edx]
  0000c	0f 95 c0	 setne	 al

; 209  : 		}

  0000f	5d		 pop	 ebp
  00010	c2 04 00	 ret	 4
??9?$_Vector_const_iterator@V?$_Vector_val@UWeaponInfo@@V?$allocator@UWeaponInfo@@@std@@@std@@@std@@QBE_NABV01@@Z ENDP ; std::_Vector_const_iterator<std::_Vector_val<WeaponInfo,std::allocator<WeaponInfo> > >::operator!=
_TEXT	ENDS
PUBLIC	??9?$_Vector_const_iterator@V?$_Vector_val@UForceInfo@@V?$allocator@UForceInfo@@@std@@@std@@@std@@QBE_NABV01@@Z ; std::_Vector_const_iterator<std::_Vector_val<ForceInfo,std::allocator<ForceInfo> > >::operator!=
; Function compile flags: /Ogsp
;	COMDAT ??9?$_Vector_const_iterator@V?$_Vector_val@UForceInfo@@V?$allocator@UForceInfo@@@std@@@std@@@std@@QBE_NABV01@@Z
_TEXT	SEGMENT
__Right$ = 8						; size = 4
??9?$_Vector_const_iterator@V?$_Vector_val@UForceInfo@@V?$allocator@UForceInfo@@@std@@@std@@@std@@QBE_NABV01@@Z PROC ; std::_Vector_const_iterator<std::_Vector_val<ForceInfo,std::allocator<ForceInfo> > >::operator!=, COMDAT
; _this$ = ecx

; 207  : 		{	// test for iterator inequality

  00000	55		 push	 ebp
  00001	8b ec		 mov	 ebp, esp

; 208  : 		return (!(*this == _Right));

  00003	8b 01		 mov	 eax, DWORD PTR [ecx]
  00005	8b 55 08	 mov	 edx, DWORD PTR __Right$[ebp]
  00008	33 c9		 xor	 ecx, ecx
  0000a	3b 02		 cmp	 eax, DWORD PTR [edx]
  0000c	0f 95 c0	 setne	 al

; 209  : 		}

  0000f	5d		 pop	 ebp
  00010	c2 04 00	 ret	 4
??9?$_Vector_const_iterator@V?$_Vector_val@UForceInfo@@V?$allocator@UForceInfo@@@std@@@std@@@std@@QBE_NABV01@@Z ENDP ; std::_Vector_const_iterator<std::_Vector_val<ForceInfo,std::allocator<ForceInfo> > >::operator!=
_TEXT	ENDS
PUBLIC	??$_Dest_val@V?$allocator@UForceInfo@@@std@@UForceInfo@@@std@@YAXAAV?$allocator@UForceInfo@@@0@PAUForceInfo@@@Z ; std::_Dest_val<std::allocator<ForceInfo>,ForceInfo>
; Function compile flags: /Ogsp
; File c:\program files (x86)\microsoft visual studio 10.0\vc\include\xmemory
;	COMDAT ??$_Dest_val@V?$allocator@UForceInfo@@@std@@UForceInfo@@@std@@YAXAAV?$allocator@UForceInfo@@@0@PAUForceInfo@@@Z
_TEXT	SEGMENT
__Alval$ = 8						; size = 4
__Pdest$ = 12						; size = 4
??$_Dest_val@V?$allocator@UForceInfo@@@std@@UForceInfo@@@std@@YAXAAV?$allocator@UForceInfo@@@0@PAUForceInfo@@@Z PROC ; std::_Dest_val<std::allocator<ForceInfo>,ForceInfo>, COMDAT

; 287  : 	_Alval.destroy(_Pdest);
; 288  : 	}

  00000	c3		 ret	 0
??$_Dest_val@V?$allocator@UForceInfo@@@std@@UForceInfo@@@std@@YAXAAV?$allocator@UForceInfo@@@0@PAUForceInfo@@@Z ENDP ; std::_Dest_val<std::allocator<ForceInfo>,ForceInfo>
_TEXT	ENDS
PUBLIC	??$_Move@PAUWeaponInfo@@PAU1@@std@@YAPAUWeaponInfo@@PAU1@00@Z ; std::_Move<WeaponInfo *,WeaponInfo *>
; Function compile flags: /Ogsp
; File c:\program files (x86)\microsoft visual studio 10.0\vc\include\xutility
;	COMDAT ??$_Move@PAUWeaponInfo@@PAU1@@std@@YAPAUWeaponInfo@@PAU1@00@Z
_TEXT	SEGMENT
__Cat$558083 = -4					; size = 1
__First$ = 8						; size = 4
__Last$ = 12						; size = 4
__Dest$ = 16						; size = 4
??$_Move@PAUWeaponInfo@@PAU1@@std@@YAPAUWeaponInfo@@PAU1@00@Z PROC ; std::_Move<WeaponInfo *,WeaponInfo *>, COMDAT

; 2533 : 	{	// move [_First, _Last) to [_Dest, ...), unchecked

  00000	55		 push	 ebp
  00001	8b ec		 mov	 ebp, esp
  00003	51		 push	 ecx

; 2534 : 	return (_Move(_First, _Last,
; 2535 : 		_Dest, _Ptr_cat(_First, _Dest)));

  00004	ff 75 fc	 push	 DWORD PTR __Cat$558083[ebp]
  00007	ff 75 10	 push	 DWORD PTR __Dest$[ebp]
  0000a	ff 75 0c	 push	 DWORD PTR __Last$[ebp]
  0000d	ff 75 08	 push	 DWORD PTR __First$[ebp]
  00010	e8 00 00 00 00	 call	 ??$_Move@PAUWeaponInfo@@PAU1@@std@@YAPAUWeaponInfo@@PAU1@00U_Nonscalar_ptr_iterator_tag@0@@Z ; std::_Move<WeaponInfo *,WeaponInfo *>
  00015	83 c4 10	 add	 esp, 16			; 00000010H

; 2536 : 	}

  00018	c9		 leave
  00019	c3		 ret	 0
??$_Move@PAUWeaponInfo@@PAU1@@std@@YAPAUWeaponInfo@@PAU1@00@Z ENDP ; std::_Move<WeaponInfo *,WeaponInfo *>
_TEXT	ENDS
PUBLIC	??$_Move@PAUForceInfo@@PAU1@@std@@YAPAUForceInfo@@PAU1@00@Z ; std::_Move<ForceInfo *,ForceInfo *>
; Function compile flags: /Ogsp
;	COMDAT ??$_Move@PAUForceInfo@@PAU1@@std@@YAPAUForceInfo@@PAU1@00@Z
_TEXT	SEGMENT
__Cat$558090 = -4					; size = 1
__First$ = 8						; size = 4
__Last$ = 12						; size = 4
__Dest$ = 16						; size = 4
??$_Move@PAUForceInfo@@PAU1@@std@@YAPAUForceInfo@@PAU1@00@Z PROC ; std::_Move<ForceInfo *,ForceInfo *>, COMDAT

; 2533 : 	{	// move [_First, _Last) to [_Dest, ...), unchecked

  00000	55		 push	 ebp
  00001	8b ec		 mov	 ebp, esp
  00003	51		 push	 ecx

; 2534 : 	return (_Move(_First, _Last,
; 2535 : 		_Dest, _Ptr_cat(_First, _Dest)));

  00004	ff 75 fc	 push	 DWORD PTR __Cat$558090[ebp]
  00007	ff 75 10	 push	 DWORD PTR __Dest$[ebp]
  0000a	ff 75 0c	 push	 DWORD PTR __Last$[ebp]
  0000d	ff 75 08	 push	 DWORD PTR __First$[ebp]
  00010	e8 00 00 00 00	 call	 ??$_Move@PAUForceInfo@@PAU1@@std@@YAPAUForceInfo@@PAU1@00U_Nonscalar_ptr_iterator_tag@0@@Z ; std::_Move<ForceInfo *,ForceInfo *>
  00015	83 c4 10	 add	 esp, 16			; 00000010H

; 2536 : 	}

  00018	c9		 leave
  00019	c3		 ret	 0
??$_Move@PAUForceInfo@@PAU1@@std@@YAPAUForceInfo@@PAU1@00@Z ENDP ; std::_Move<ForceInfo *,ForceInfo *>
_TEXT	ENDS
PUBLIC	?destroy@?$allocator@UWeaponInfo@@@std@@QAEXPAUWeaponInfo@@@Z ; std::allocator<WeaponInfo>::destroy
; Function compile flags: /Ogsp
; File c:\program files (x86)\microsoft visual studio 10.0\vc\include\xmemory
;	COMDAT ?destroy@?$allocator@UWeaponInfo@@@std@@QAEXPAUWeaponInfo@@@Z
_TEXT	SEGMENT
__Ptr$ = 8						; size = 4
?destroy@?$allocator@UWeaponInfo@@@std@@QAEXPAUWeaponInfo@@@Z PROC ; std::allocator<WeaponInfo>::destroy, COMDAT
; _this$ = ecx

; 212  : 		{	// destroy object at _Ptr

  00000	55		 push	 ebp
  00001	8b ec		 mov	 ebp, esp

; 213  : 		_Destroy(_Ptr);

  00003	8b 4d 08	 mov	 ecx, DWORD PTR __Ptr$[ebp]
  00006	83 c1 08	 add	 ecx, 8
  00009	ff 15 00 00 00
	00		 call	 DWORD PTR __imp_??1ioHashString@@QAE@XZ

; 214  : 		}

  0000f	5d		 pop	 ebp
  00010	c2 04 00	 ret	 4
?destroy@?$allocator@UWeaponInfo@@@std@@QAEXPAUWeaponInfo@@@Z ENDP ; std::allocator<WeaponInfo>::destroy
_TEXT	ENDS
PUBLIC	??$_Cons_val@V?$allocator@UWeaponInfo@@@std@@UWeaponInfo@@AAU3@@std@@YAXAAV?$allocator@UWeaponInfo@@@0@PAUWeaponInfo@@AAU2@@Z ; std::_Cons_val<std::allocator<WeaponInfo>,WeaponInfo,WeaponInfo &>
;	COMDAT xdata$x
; File c:\program files (x86)\microsoft visual studio 10.0\vc\include\utility
xdata$x	SEGMENT
__unwindtable$??$_Cons_val@V?$allocator@UWeaponInfo@@@std@@UWeaponInfo@@AAU3@@std@@YAXAAV?$allocator@UWeaponInfo@@@0@PAUWeaponInfo@@AAU2@@Z DD 0ffffffffH
	DD	FLAT:__unwindfunclet$??$_Cons_val@V?$allocator@UWeaponInfo@@@std@@UWeaponInfo@@AAU3@@std@@YAXAAV?$allocator@UWeaponInfo@@@0@PAUWeaponInfo@@AAU2@@Z$0
__ehfuncinfo$??$_Cons_val@V?$allocator@UWeaponInfo@@@std@@UWeaponInfo@@AAU3@@std@@YAXAAV?$allocator@UWeaponInfo@@@0@PAUWeaponInfo@@AAU2@@Z DD 019930522H
	DD	01H
	DD	FLAT:__unwindtable$??$_Cons_val@V?$allocator@UWeaponInfo@@@std@@UWeaponInfo@@AAU3@@std@@YAXAAV?$allocator@UWeaponInfo@@@0@PAUWeaponInfo@@AAU2@@Z
	DD	2 DUP(00H)
	DD	2 DUP(00H)
	DD	00H
	DD	01H
; Function compile flags: /Ogsp
; File c:\program files (x86)\microsoft visual studio 10.0\vc\include\xmemory
xdata$x	ENDS
;	COMDAT ??$_Cons_val@V?$allocator@UWeaponInfo@@@std@@UWeaponInfo@@AAU3@@std@@YAXAAV?$allocator@UWeaponInfo@@@0@PAUWeaponInfo@@AAU2@@Z
_TEXT	SEGMENT
$T558130 = -16						; size = 4
__$EHRec$ = -12						; size = 12
__Alval$ = 8						; size = 4
__Pdest$ = 12						; size = 4
__Src$ = 16						; size = 4
??$_Cons_val@V?$allocator@UWeaponInfo@@@std@@UWeaponInfo@@AAU3@@std@@YAXAAV?$allocator@UWeaponInfo@@@0@PAUWeaponInfo@@AAU2@@Z PROC ; std::_Cons_val<std::allocator<WeaponInfo>,WeaponInfo,WeaponInfo &>, COMDAT

; 279  : 	{	// construct using allocator

  00000	6a 04		 push	 4
  00002	b8 00 00 00 00	 mov	 eax, __ehhandler$??$_Cons_val@V?$allocator@UWeaponInfo@@@std@@UWeaponInfo@@AAU3@@std@@YAXAAV?$allocator@UWeaponInfo@@@0@PAUWeaponInfo@@AAU2@@Z
  00007	e8 00 00 00 00	 call	 __EH_prolog3

; 280  : 	_Alval.construct(_Pdest, _STD forward<_Ty2>(_Src));

  0000c	8b 4d 0c	 mov	 ecx, DWORD PTR __Pdest$[ebp]
  0000f	89 4d f0	 mov	 DWORD PTR $T558130[ebp], ecx
  00012	83 65 fc 00	 and	 DWORD PTR __$EHRec$[ebp+8], 0
  00016	85 c9		 test	 ecx, ecx
  00018	74 08		 je	 SHORT $LN7@Cons_val@5
  0001a	ff 75 10	 push	 DWORD PTR __Src$[ebp]
  0001d	e8 00 00 00 00	 call	 ??0WeaponInfo@@QAE@ABU0@@Z
$LN7@Cons_val@5:

; 281  : 	}

  00022	e8 00 00 00 00	 call	 __EH_epilog3
  00027	c3		 ret	 0
_TEXT	ENDS
;	COMDAT text$x
text$x	SEGMENT
__unwindfunclet$??$_Cons_val@V?$allocator@UWeaponInfo@@@std@@UWeaponInfo@@AAU3@@std@@YAXAAV?$allocator@UWeaponInfo@@@0@PAUWeaponInfo@@AAU2@@Z$0:
  00000	ff 75 0c	 push	 DWORD PTR __Pdest$[ebp]
  00003	ff 75 f0	 push	 DWORD PTR $T558130[ebp]
  00006	e8 00 00 00 00	 call	 ??3@YAXPAX0@Z		; operator delete
  0000b	59		 pop	 ecx
  0000c	59		 pop	 ecx
  0000d	c3		 ret	 0
__ehhandler$??$_Cons_val@V?$allocator@UWeaponInfo@@@std@@UWeaponInfo@@AAU3@@std@@YAXAAV?$allocator@UWeaponInfo@@@0@PAUWeaponInfo@@AAU2@@Z:
  0000e	8b 54 24 08	 mov	 edx, DWORD PTR [esp+8]
  00012	8d 42 0c	 lea	 eax, DWORD PTR [edx+12]
  00015	8b 4a ec	 mov	 ecx, DWORD PTR [edx-20]
  00018	33 c8		 xor	 ecx, eax
  0001a	e8 00 00 00 00	 call	 @__security_check_cookie@4
  0001f	b8 00 00 00 00	 mov	 eax, OFFSET __ehfuncinfo$??$_Cons_val@V?$allocator@UWeaponInfo@@@std@@UWeaponInfo@@AAU3@@std@@YAXAAV?$allocator@UWeaponInfo@@@0@PAUWeaponInfo@@AAU2@@Z
  00024	e9 00 00 00 00	 jmp	 ___CxxFrameHandler3
text$x	ENDS
??$_Cons_val@V?$allocator@UWeaponInfo@@@std@@UWeaponInfo@@AAU3@@std@@YAXAAV?$allocator@UWeaponInfo@@@0@PAUWeaponInfo@@AAU2@@Z ENDP ; std::_Cons_val<std::allocator<WeaponInfo>,WeaponInfo,WeaponInfo &>
PUBLIC	__real@3f800000
PUBLIC	_pChar$GSCopy$
PUBLIC	?SetWaitState@ioCircleMoveAttackSkill@@IAEXPAVioBaseChar@@@Z ; ioCircleMoveAttackSkill::SetWaitState
EXTRN	?GetUniqueID@ioMapEffect@@QBEKXZ:PROC		; ioMapEffect::GetUniqueID
EXTRN	?CreateMapEffectBySkill@ioBaseChar@@QAEPAVioMapEffect@@ABVioHashString@@ABUD3DXVECTOR3@@AAU4@@Z:PROC ; ioBaseChar::CreateMapEffectBySkill
EXTRN	?UpdateMagicCirclePos@ioBaseGUISupport@@QAEXMMM_N0@Z:PROC ; ioBaseGUISupport::UpdateMagicCirclePos
EXTRN	?CheckMagicCircleVisible@ioBaseGUISupport@@QAEX_N@Z:PROC ; ioBaseGUISupport::CheckMagicCircleVisible
EXTRN	?CheckMagicCircle@ioBaseGUISupport@@QBE_NXZ:PROC ; ioBaseGUISupport::CheckMagicCircle
EXTRN	?GetCharGravity@ioBaseChar@@QAEMXZ:PROC		; ioBaseChar::GetCharGravity
;	COMDAT __real@3f800000
; File c:\program files (x86)\microsoft directx sdk (june 2010)\include\d3dx9math.inl
CONST	SEGMENT
__real@3f800000 DD 03f800000r			; 1
CONST	ENDS
;	COMDAT xdata$x
xdata$x	SEGMENT
__unwindtable$?SetWaitState@ioCircleMoveAttackSkill@@IAEXPAVioBaseChar@@@Z DD 0ffffffffH
	DD	FLAT:__unwindfunclet$?SetWaitState@ioCircleMoveAttackSkill@@IAEXPAVioBaseChar@@@Z$0
__ehfuncinfo$?SetWaitState@ioCircleMoveAttackSkill@@IAEXPAVioBaseChar@@@Z DD 019930522H
	DD	01H
	DD	FLAT:__unwindtable$?SetWaitState@ioCircleMoveAttackSkill@@IAEXPAVioBaseChar@@@Z
	DD	2 DUP(00H)
	DD	2 DUP(00H)
	DD	00H
	DD	01H
; Function compile flags: /Ogsp
; File d:\lost saga for developer\youtube\tutorial\source\src\lsclient\iocirclemoveattackskill.cpp
xdata$x	ENDS
;	COMDAT ?SetWaitState@ioCircleMoveAttackSkill@@IAEXPAVioBaseChar@@@Z
_TEXT	SEGMENT
_szDummyCircle$550835 = -64				; size = 16
$T558147 = -48						; size = 12
_pChar$GSCopy$ = -36					; size = 4
tv305 = -32						; size = 4
_value$558156 = -32					; size = 4
_fFlightDuration$550831 = -32				; size = 4
_fCurGravity$550830 = -32				; size = 4
_vPos$550838 = -28					; size = 12
__$EHRec$ = -12						; size = 12
_pChar$ = 8						; size = 4
?SetWaitState@ioCircleMoveAttackSkill@@IAEXPAVioBaseChar@@@Z PROC ; ioCircleMoveAttackSkill::SetWaitState, COMDAT
; _this$ = ecx

; 522  : {

  00000	6a 34		 push	 52			; 00000034H
  00002	b8 00 00 00 00	 mov	 eax, __ehhandler$?SetWaitState@ioCircleMoveAttackSkill@@IAEXPAVioBaseChar@@@Z
  00007	e8 00 00 00 00	 call	 __EH_prolog3_GS
  0000c	8b 75 08	 mov	 esi, DWORD PTR _pChar$[ebp]
  0000f	8b d9		 mov	 ebx, ecx

; 555  : 		{
; 556  : 			if( m_dwTargetCircleEffect != -1 )

  00011	89 75 dc	 mov	 DWORD PTR _pChar$GSCopy$[ebp], esi
  00014	85 f6		 test	 esi, esi
  00016	74 52		 je	 SHORT $LN6@SetWaitSta

; 523  : 	if( pChar )
; 524  : 	{
; 525  : 		float fCurGravity = pChar->GetCharGravity();

  00018	8b ce		 mov	 ecx, esi
  0001a	e8 00 00 00 00	 call	 ?GetCharGravity@ioBaseChar@@QAEMXZ ; ioBaseChar::GetCharGravity
  0001f	d9 5d e0	 fstp	 DWORD PTR _fCurGravity$550830[ebp]

; 526  : 		float fFlightDuration = GetFlightDuration( fCurGravity );

  00022	f3 0f 10 45 e0	 movss	 xmm0, DWORD PTR _fCurGravity$550830[ebp]
  00027	51		 push	 ecx
  00028	8b cb		 mov	 ecx, ebx
  0002a	f3 0f 11 04 24	 movss	 DWORD PTR [esp], xmm0
  0002f	e8 00 00 00 00	 call	 ?GetFlightDuration@ioCircleMoveAttackSkill@@IAEMM@Z ; ioCircleMoveAttackSkill::GetFlightDuration
  00034	d9 5d e0	 fstp	 DWORD PTR _fFlightDuration$550831[ebp]

; 527  : 
; 528  : 		if( fFlightDuration > 0.0f )

  00037	d9 ee		 fldz
  00039	d9 45 e0	 fld	 DWORD PTR _fFlightDuration$550831[ebp]
  0003c	df f1		 fcomip	 ST(1)
  0003e	dd d8		 fstp	 ST(0)
  00040	76 28		 jbe	 SHORT $LN6@SetWaitSta

; 529  : 		{
; 530  : 			m_fCharMoveSpeed = m_fCircleRange / (fFlightDuration / FLOAT1000);

  00042	b8 e8 03 00 00	 mov	 eax, 1000		; 000003e8H
  00047	d9 83 2c 10 00
	00		 fld	 DWORD PTR [ebx+4140]
  0004d	d9 45 e0	 fld	 DWORD PTR _fFlightDuration$550831[ebp]
  00050	89 45 e0	 mov	 DWORD PTR tv305[ebp], eax
  00053	db 45 e0	 fild	 DWORD PTR tv305[ebp]
  00056	85 c0		 test	 eax, eax
  00058	79 06		 jns	 SHORT $LN18@SetWaitSta
  0005a	d8 05 00 00 00
	00		 fadd	 DWORD PTR __real@4f800000
$LN18@SetWaitSta:
  00060	de f9		 fdivp	 ST(1), ST(0)
  00062	de f9		 fdivp	 ST(1), ST(0)
  00064	d9 9b 48 10 00
	00		 fstp	 DWORD PTR [ebx+4168]
$LN6@SetWaitSta:

; 531  : 		}
; 532  : 	}
; 533  : 	
; 534  : 	m_dwWaitStartTime = FRAMEGETTIME();

  0006a	ff 15 00 00 00
	00		 call	 DWORD PTR __imp_?GetSingleton@ioFrameTimer@@SAAAV1@XZ
  00070	8b c8		 mov	 ecx, eax
  00072	ff 15 00 00 00
	00		 call	 DWORD PTR __imp_?GetLoopSec@ioFrameTimer@@QBEKXZ
  00078	89 83 10 11 00
	00		 mov	 DWORD PTR [ebx+4368], eax

; 535  : 	m_State = SS_WAIT;

  0007e	8d 45 e0	 lea	 eax, DWORD PTR _value$558156[ebp]
  00081	50		 push	 eax
  00082	8d 8b 58 0f 00
	00		 lea	 ecx, DWORD PTR [ebx+3928]
  00088	c7 45 e0 01 00
	00 00		 mov	 DWORD PTR _value$558156[ebp], 1
  0008f	e8 00 00 00 00	 call	 ?EncryptValueToPool@?$CEncrypt@H@@AAEXPBD@Z ; CEncrypt<int>::EncryptValueToPool

; 536  : 
; 537  : 	if( !pChar->CheckMagicCircle() )

  00094	8d 8e cc 01 00
	00		 lea	 ecx, DWORD PTR [esi+460]
  0009a	e8 00 00 00 00	 call	 ?CheckMagicCircle@ioBaseGUISupport@@QBE_NXZ ; ioBaseGUISupport::CheckMagicCircle
  0009f	84 c0		 test	 al, al
  000a1	75 43		 jne	 SHORT $LN5@SetWaitSta

; 538  : 	{
; 539  : 		ioHashString szDummyCircle;

  000a3	8d 4d c0	 lea	 ecx, DWORD PTR _szDummyCircle$550835[ebp]
  000a6	ff 15 00 00 00
	00		 call	 DWORD PTR __imp_??0ioHashString@@QAE@XZ

; 540  : 		pChar->CreateMagicCircle( m_ReadyCircle, m_ReadyCircle, szDummyCircle, m_fCircleOffSet );

  000ac	f3 0f 10 83 38
	10 00 00	 movss	 xmm0, DWORD PTR [ebx+4152]
  000b4	8b 96 cc 01 00
	00		 mov	 edx, DWORD PTR [esi+460]
  000ba	83 65 fc 00	 and	 DWORD PTR __$EHRec$[ebp+8], 0
  000be	51		 push	 ecx
  000bf	f3 0f 11 04 24	 movss	 DWORD PTR [esp], xmm0
  000c4	8d 4d c0	 lea	 ecx, DWORD PTR _szDummyCircle$550835[ebp]
  000c7	51		 push	 ecx
  000c8	8d 83 60 10 00
	00		 lea	 eax, DWORD PTR [ebx+4192]
  000ce	50		 push	 eax
  000cf	50		 push	 eax
  000d0	8d 8e cc 01 00
	00		 lea	 ecx, DWORD PTR [esi+460]
  000d6	ff 52 04	 call	 DWORD PTR [edx+4]

; 541  : 	}

  000d9	83 4d fc ff	 or	 DWORD PTR __$EHRec$[ebp+8], -1
  000dd	8d 4d c0	 lea	 ecx, DWORD PTR _szDummyCircle$550835[ebp]
  000e0	ff 15 00 00 00
	00		 call	 DWORD PTR __imp_??1ioHashString@@QAE@XZ
$LN5@SetWaitSta:

; 542  : 
; 543  : 	if( m_WaitType == WT_IMMEDIATE )

  000e6	83 bb dc 10 00
	00 02		 cmp	 DWORD PTR [ebx+4316], 2
  000ed	75 43		 jne	 SHORT $LN4@SetWaitSta

; 544  : 	{
; 545  : 		pChar->CheckMagicCircleVisible( false );

  000ef	6a 00		 push	 0
  000f1	8d 8e cc 01 00
	00		 lea	 ecx, DWORD PTR [esi+460]
  000f7	e8 00 00 00 00	 call	 ?CheckMagicCircleVisible@ioBaseGUISupport@@QAEX_N@Z ; ioBaseGUISupport::CheckMagicCircleVisible

; 546  : 		pChar->UpdateMagicCirclePos( 0.0f, m_fCircleRange, m_fCircleHeightGap, false );

  000fc	f3 0f 10 83 34
	10 00 00	 movss	 xmm0, DWORD PTR [ebx+4148]
  00104	6a 00		 push	 0
  00106	6a 00		 push	 0
  00108	83 ec 0c	 sub	 esp, 12			; 0000000cH
  0010b	f3 0f 11 44 24
	08		 movss	 DWORD PTR [esp+8], xmm0
  00111	f3 0f 10 83 2c
	10 00 00	 movss	 xmm0, DWORD PTR [ebx+4140]
  00119	f3 0f 11 44 24
	04		 movss	 DWORD PTR [esp+4], xmm0
  0011f	0f 57 c0	 xorps	 xmm0, xmm0
  00122	8d 8e cc 01 00
	00		 lea	 ecx, DWORD PTR [esi+460]
  00128	f3 0f 11 04 24	 movss	 DWORD PTR [esp], xmm0
  0012d	e8 00 00 00 00	 call	 ?UpdateMagicCirclePos@ioBaseGUISupport@@QAEXMMM_N0@Z ; ioBaseGUISupport::UpdateMagicCirclePos
$LN4@SetWaitSta:

; 547  : 	}
; 548  : 
; 549  : 	if( !m_TargetCircleEffect.IsEmpty() )

  00132	8d 8b 70 10 00
	00		 lea	 ecx, DWORD PTR [ebx+4208]
  00138	ff 15 00 00 00
	00		 call	 DWORD PTR __imp_?IsEmpty@ioHashString@@QBE_NXZ
  0013e	84 c0		 test	 al, al
  00140	75 66		 jne	 SHORT $LN2@SetWaitSta

; 550  : 	{
; 551  : 		D3DXVECTOR3 vPos = pChar->GetWorldPosition();

  00142	8b 06		 mov	 eax, DWORD PTR [esi]
  00144	8b ce		 mov	 ecx, esi
  00146	ff 50 70	 call	 DWORD PTR [eax+112]

; 552  : 		ioMapEffect *pMapEffect = pChar->CreateMapEffectBySkill( m_TargetCircleEffect, vPos );

  00149	f3 0f 10 05 00
	00 00 00	 movss	 xmm0, DWORD PTR __real@3f800000
  00151	8b 4d dc	 mov	 ecx, DWORD PTR _pChar$GSCopy$[ebp]
  00154	8b f0		 mov	 esi, eax
  00156	8d 7d e4	 lea	 edi, DWORD PTR _vPos$550838[ebp]
  00159	a5		 movsd
  0015a	8d 45 d0	 lea	 eax, DWORD PTR $T558147[ebp]
  0015d	50		 push	 eax
  0015e	8d 45 e4	 lea	 eax, DWORD PTR _vPos$550838[ebp]
  00161	a5		 movsd
  00162	50		 push	 eax
  00163	8d 83 70 10 00
	00		 lea	 eax, DWORD PTR [ebx+4208]
  00169	50		 push	 eax
  0016a	a5		 movsd
  0016b	f3 0f 11 45 d0	 movss	 DWORD PTR $T558147[ebp], xmm0
  00170	f3 0f 11 45 d4	 movss	 DWORD PTR $T558147[ebp+4], xmm0
  00175	f3 0f 11 45 d8	 movss	 DWORD PTR $T558147[ebp+8], xmm0
  0017a	e8 00 00 00 00	 call	 ?CreateMapEffectBySkill@ioBaseChar@@QAEPAVioMapEffect@@ABVioHashString@@ABUD3DXVECTOR3@@AAU4@@Z ; ioBaseChar::CreateMapEffectBySkill
  0017f	8b f0		 mov	 esi, eax

; 553  : 
; 554  : 		if( pMapEffect )

  00181	85 f6		 test	 esi, esi
  00183	74 23		 je	 SHORT $LN2@SetWaitSta

; 555  : 		{
; 556  : 			if( m_dwTargetCircleEffect != -1 )

  00185	8b 83 a4 10 00
	00		 mov	 eax, DWORD PTR [ebx+4260]
  0018b	83 f8 ff	 cmp	 eax, -1
  0018e	74 0b		 je	 SHORT $LN1@SetWaitSta

; 557  : 				pChar->EndMapEffect( m_dwTargetCircleEffect, false );

  00190	8b 4d dc	 mov	 ecx, DWORD PTR _pChar$GSCopy$[ebp]
  00193	6a 00		 push	 0
  00195	50		 push	 eax
  00196	e8 00 00 00 00	 call	 ?EndMapEffect@ioBaseChar@@QAEXK_N@Z ; ioBaseChar::EndMapEffect
$LN1@SetWaitSta:

; 558  : 
; 559  : 			m_dwTargetCircleEffect = pMapEffect->GetUniqueID();

  0019b	8b ce		 mov	 ecx, esi
  0019d	e8 00 00 00 00	 call	 ?GetUniqueID@ioMapEffect@@QBEKXZ ; ioMapEffect::GetUniqueID
  001a2	89 83 a4 10 00
	00		 mov	 DWORD PTR [ebx+4260], eax
$LN2@SetWaitSta:

; 560  : 		}
; 561  : 	}
; 562  : }

  001a8	e8 00 00 00 00	 call	 __EH_epilog3_GS
  001ad	c2 04 00	 ret	 4
_TEXT	ENDS
;	COMDAT text$x
text$x	SEGMENT
__unwindfunclet$?SetWaitState@ioCircleMoveAttackSkill@@IAEXPAVioBaseChar@@@Z$0:
  00000	8d 4d c0	 lea	 ecx, DWORD PTR _szDummyCircle$550835[ebp]
  00003	ff 25 00 00 00
	00		 jmp	 DWORD PTR __imp_??1ioHashString@@QAE@XZ
__ehhandler$?SetWaitState@ioCircleMoveAttackSkill@@IAEXPAVioBaseChar@@@Z:
  00009	8b 54 24 08	 mov	 edx, DWORD PTR [esp+8]
  0000d	8d 42 0c	 lea	 eax, DWORD PTR [edx+12]
  00010	8b 4a bc	 mov	 ecx, DWORD PTR [edx-68]
  00013	33 c8		 xor	 ecx, eax
  00015	e8 00 00 00 00	 call	 @__security_check_cookie@4
  0001a	8b 4a fc	 mov	 ecx, DWORD PTR [edx-4]
  0001d	33 c8		 xor	 ecx, eax
  0001f	e8 00 00 00 00	 call	 @__security_check_cookie@4
  00024	b8 00 00 00 00	 mov	 eax, OFFSET __ehfuncinfo$?SetWaitState@ioCircleMoveAttackSkill@@IAEXPAVioBaseChar@@@Z
  00029	e9 00 00 00 00	 jmp	 ___CxxFrameHandler3
text$x	ENDS
?SetWaitState@ioCircleMoveAttackSkill@@IAEXPAVioBaseChar@@@Z ENDP ; ioCircleMoveAttackSkill::SetWaitState
PUBLIC	_pChar$GSCopy$
PUBLIC	__$ArrayPad$
PUBLIC	?SetActionState@ioCircleMoveAttackSkill@@IAEXPAVioBaseChar@@PAVioPlayStage@@@Z ; ioCircleMoveAttackSkill::SetActionState
EXTRN	?ChangeSkillWeaponMesh@ioBaseChar@@QAE_NPAVioSkill@@ABVioHashString@@_N@Z:PROC ; ioBaseChar::ChangeSkillWeaponMesh
EXTRN	?SetJumpPower@ioBaseChar@@QAEXM@Z:PROC		; ioBaseChar::SetJumpPower
EXTRN	?SetTargetRotAndMoveDirChange@ioBaseChar@@QAEXABUD3DXQUATERNION@@_N@Z:PROC ; ioBaseChar::SetTargetRotAndMoveDirChange
EXTRN	?GetSingleConvertTeam@ioBaseChar@@QAE?AW4TeamType@@XZ:PROC ; ioBaseChar::GetSingleConvertTeam
EXTRN	?GetMagicCirclePos@ioBaseGUISupport@@QBE?AUD3DXVECTOR3@@M_N@Z:PROC ; ioBaseGUISupport::GetMagicCirclePos
;	COMDAT xdata$x
; File d:\lost saga for developer\youtube\tutorial\source\src\lsclient\ioskill.h
xdata$x	SEGMENT
__unwindtable$?SetActionState@ioCircleMoveAttackSkill@@IAEXPAVioBaseChar@@PAVioPlayStage@@@Z DD 0ffffffffH
	DD	FLAT:__unwindfunclet$?SetActionState@ioCircleMoveAttackSkill@@IAEXPAVioBaseChar@@PAVioPlayStage@@@Z$0
__ehfuncinfo$?SetActionState@ioCircleMoveAttackSkill@@IAEXPAVioBaseChar@@PAVioPlayStage@@@Z DD 019930522H
	DD	01H
	DD	FLAT:__unwindtable$?SetActionState@ioCircleMoveAttackSkill@@IAEXPAVioBaseChar@@PAVioPlayStage@@@Z
	DD	2 DUP(00H)
	DD	2 DUP(00H)
	DD	00H
	DD	01H
; Function compile flags: /Ogsp
; File d:\lost saga for developer\youtube\tutorial\source\src\lsclient\iocirclemoveattackskill.cpp
xdata$x	ENDS
;	COMDAT ?SetActionState@ioCircleMoveAttackSkill@@IAEXPAVioBaseChar@@PAVioPlayStage@@@Z
_TEXT	SEGMENT
$T558175 = -32880					; size = 12
$T558174 = -32868					; size = 12
_qtRot$550871 = -32856					; size = 16
$T558176 = -32852					; size = 12
_pChar$GSCopy$ = -32840					; size = 4
_value$558186 = -32836					; size = 1
_value$558197 = -32836					; size = 4
_value$558212 = -32836					; size = 4
_value$558182 = -32836					; size = 4
_pMapEffect$ = -32836					; size = 4
_fCurRange$ = -32836					; size = 4
_kPacket$550875 = -32832				; size = 32792
$T550872 = -40						; size = 12
$T558177 = -40						; size = 12
$T550850 = -40						; size = 12
_vDir$ = -28						; size = 12
__$ArrayPad$ = -16					; size = 4
__$EHRec$ = -12						; size = 12
_pChar$ = 8						; size = 4
_pStage$ = 12						; size = 4
?SetActionState@ioCircleMoveAttackSkill@@IAEXPAVioBaseChar@@PAVioPlayStage@@@Z PROC ; ioCircleMoveAttackSkill::SetActionState, COMDAT
; _this$ = ecx

; 565  : {

  00000	55		 push	 ebp
  00001	8b ec		 mov	 ebp, esp
  00003	6a ff		 push	 -1
  00005	68 00 00 00 00	 push	 __ehhandler$?SetActionState@ioCircleMoveAttackSkill@@IAEXPAVioBaseChar@@PAVioPlayStage@@@Z
  0000a	64 a1 00 00 00
	00		 mov	 eax, DWORD PTR fs:0
  00010	50		 push	 eax
  00011	b8 64 80 00 00	 mov	 eax, 32868		; 00008064H
  00016	e8 00 00 00 00	 call	 __chkstk
  0001b	a1 00 00 00 00	 mov	 eax, DWORD PTR ___security_cookie
  00020	33 c5		 xor	 eax, ebp
  00022	89 45 f0	 mov	 DWORD PTR __$ArrayPad$[ebp], eax
  00025	53		 push	 ebx
  00026	56		 push	 esi
  00027	57		 push	 edi
  00028	50		 push	 eax
  00029	8d 45 f4	 lea	 eax, DWORD PTR __$EHRec$[ebp]
  0002c	64 a3 00 00 00
	00		 mov	 DWORD PTR fs:0, eax
  00032	8b 75 08	 mov	 esi, DWORD PTR _pChar$[ebp]
  00035	8b d9		 mov	 ebx, ecx

; 566  : 	m_State = SS_ACTION;

  00037	8d 85 bc 7f ff
	ff		 lea	 eax, DWORD PTR _value$558182[ebp]
  0003d	50		 push	 eax
  0003e	8d 8b 58 0f 00
	00		 lea	 ecx, DWORD PTR [ebx+3928]

; 650  : 	{
; 651  : 		SP2Packet kPacket( CUPK_SKILL_EXTRA_INFO );

  00044	89 b5 b8 7f ff
	ff		 mov	 DWORD PTR _pChar$GSCopy$[ebp], esi
  0004a	c7 85 bc 7f ff
	ff 02 00 00 00	 mov	 DWORD PTR _value$558182[ebp], 2
  00054	e8 00 00 00 00	 call	 ?EncryptValueToPool@?$CEncrypt@H@@AAEXPBD@Z ; CEncrypt<int>::EncryptValueToPool
  00059	ff 15 00 00 00
	00		 call	 DWORD PTR __imp_?GetSingleton@ioFrameTimer@@SAAAV1@XZ
  0005f	8b c8		 mov	 ecx, eax
  00061	ff 15 00 00 00
	00		 call	 DWORD PTR __imp_?GetLoopSec@ioFrameTimer@@QBEKXZ
  00067	f3 0f 10 83 2c
	10 00 00	 movss	 xmm0, DWORD PTR [ebx+4140]
  0006f	83 a3 20 02 00
	00 00		 and	 DWORD PTR [ebx+544], 0
  00076	81 c6 cc 01 00
	00		 add	 esi, 460		; 000001ccH
  0007c	8b ce		 mov	 ecx, esi
  0007e	89 83 24 11 00
	00		 mov	 DWORD PTR [ebx+4388], eax
  00084	f3 0f 11 85 bc
	7f ff ff	 movss	 DWORD PTR _fCurRange$[ebp], xmm0
  0008c	e8 00 00 00 00	 call	 ?CheckMagicCircle@ioBaseGUISupport@@QBE_NXZ ; ioBaseGUISupport::CheckMagicCircle
  00091	84 c0		 test	 al, al
  00093	74 40		 je	 SHORT $LN13@SetActionS

; 567  : 
; 568  : 	m_dwActionStartTime = FRAMEGETTIME();
; 569  : 
; 570  : 	float fCurRange = m_fCircleRange;
; 571  : 	m_dwPreDelayStartTime = 0;
; 572  : 	if( pChar->CheckMagicCircle() )
; 573  : 	{
; 574  : 		pChar->CheckMagicCircleVisible( false );

  00095	6a 00		 push	 0
  00097	8b ce		 mov	 ecx, esi
  00099	e8 00 00 00 00	 call	 ?CheckMagicCircleVisible@ioBaseGUISupport@@QAEX_N@Z ; ioBaseGUISupport::CheckMagicCircleVisible

; 575  : 		pChar->UpdateMagicCirclePos( m_fCircleMoveSpeed, fCurRange, m_fCircleHeightGap, true, true );

  0009e	f3 0f 10 83 34
	10 00 00	 movss	 xmm0, DWORD PTR [ebx+4148]
  000a6	6a 01		 push	 1
  000a8	6a 01		 push	 1
  000aa	83 ec 0c	 sub	 esp, 12			; 0000000cH
  000ad	f3 0f 11 44 24
	08		 movss	 DWORD PTR [esp+8], xmm0
  000b3	f3 0f 10 85 bc
	7f ff ff	 movss	 xmm0, DWORD PTR _fCurRange$[ebp]
  000bb	f3 0f 11 44 24
	04		 movss	 DWORD PTR [esp+4], xmm0
  000c1	f3 0f 10 83 30
	10 00 00	 movss	 xmm0, DWORD PTR [ebx+4144]
  000c9	8b ce		 mov	 ecx, esi
  000cb	f3 0f 11 04 24	 movss	 DWORD PTR [esp], xmm0
  000d0	e8 00 00 00 00	 call	 ?UpdateMagicCirclePos@ioBaseGUISupport@@QAEXMMM_N0@Z ; ioBaseGUISupport::UpdateMagicCirclePos
$LN13@SetActionS:

; 576  : 	}
; 577  : 
; 578  : 	m_vCirclePos = pChar->GetMagicCirclePos( m_fCircleOffSet, m_bCircleNoChangeY );

  000d5	8d 85 bc 7f ff
	ff		 lea	 eax, DWORD PTR _value$558186[ebp]
  000db	50		 push	 eax
  000dc	8d 8b 24 06 00
	00		 lea	 ecx, DWORD PTR [ebx+1572]
  000e2	e8 00 00 00 00	 call	 ?DecryptValueToPool@?$CEncrypt@_N@@QAEXPA_N@Z ; CEncrypt<bool>::DecryptValueToPool
  000e7	ff b5 bc 7f ff
	ff		 push	 DWORD PTR _value$558186[ebp]
  000ed	f3 0f 10 83 38
	10 00 00	 movss	 xmm0, DWORD PTR [ebx+4152]
  000f5	51		 push	 ecx
  000f6	8d 45 d8	 lea	 eax, DWORD PTR $T550850[ebp]
  000f9	f3 0f 11 04 24	 movss	 DWORD PTR [esp], xmm0
  000fe	50		 push	 eax
  000ff	8b ce		 mov	 ecx, esi
  00101	e8 00 00 00 00	 call	 ?GetMagicCirclePos@ioBaseGUISupport@@QBE?AUD3DXVECTOR3@@M_N@Z ; ioBaseGUISupport::GetMagicCirclePos
  00106	8b f0		 mov	 esi, eax
  00108	8d bb 3c 10 00
	00		 lea	 edi, DWORD PTR [ebx+4156]
  0010e	a5		 movsd
  0010f	a5		 movsd
  00110	a5		 movsd

; 579  : 
; 580  : 	ioMapEffect *pMapEffect = NULL;
; 581  : 	if( pChar->GetTeam() == TEAM_RED )

  00111	8b bd b8 7f ff
	ff		 mov	 edi, DWORD PTR _pChar$GSCopy$[ebp]
  00117	8d 85 bc 7f ff
	ff		 lea	 eax, DWORD PTR _value$558197[ebp]
  0011d	50		 push	 eax
  0011e	8d 8f 90 00 00
	00		 lea	 ecx, DWORD PTR [edi+144]
  00124	e8 00 00 00 00	 call	 ?DecryptValueToPool@?$CEncrypt@W4TeamType@@@@QAEXPAW4TeamType@@@Z ; CEncrypt<enum TeamType>::DecryptValueToPool
  00129	83 bd bc 7f ff
	ff 01		 cmp	 DWORD PTR _value$558197[ebp], 1
  00130	75 2b		 jne	 SHORT $LN12@SetActionS

; 582  : 	{
; 583  : 		pMapEffect = pChar->CreateMapEffectBySkill( m_RedEffect, m_vCirclePos );

  00132	f3 0f 10 05 00
	00 00 00	 movss	 xmm0, DWORD PTR __real@3f800000
  0013a	f3 0f 11 85 9c
	7f ff ff	 movss	 DWORD PTR $T558174[ebp], xmm0
  00142	f3 0f 11 85 a0
	7f ff ff	 movss	 DWORD PTR $T558174[ebp+4], xmm0
  0014a	f3 0f 11 85 a4
	7f ff ff	 movss	 DWORD PTR $T558174[ebp+8], xmm0
  00152	8d 85 9c 7f ff
	ff		 lea	 eax, DWORD PTR $T558174[ebp]
  00158	e9 a5 00 00 00	 jmp	 $LN60@SetActionS
$LN12@SetActionS:

; 584  : 	}
; 585  : 	else if( pChar->GetTeam() == TEAM_BLUE )

  0015d	8d 85 bc 7f ff
	ff		 lea	 eax, DWORD PTR _value$558212[ebp]
  00163	50		 push	 eax
  00164	8d 8f 90 00 00
	00		 lea	 ecx, DWORD PTR [edi+144]
  0016a	e8 00 00 00 00	 call	 ?DecryptValueToPool@?$CEncrypt@W4TeamType@@@@QAEXPAW4TeamType@@@Z ; CEncrypt<enum TeamType>::DecryptValueToPool
  0016f	83 bd bc 7f ff
	ff 02		 cmp	 DWORD PTR _value$558212[ebp], 2

; 586  : 	{
; 587  : 		pMapEffect = pChar->CreateMapEffectBySkill( m_BlueEffect, m_vCirclePos );

  00176	8b cf		 mov	 ecx, edi
  00178	75 36		 jne	 SHORT $LN10@SetActionS
  0017a	f3 0f 10 05 00
	00 00 00	 movss	 xmm0, DWORD PTR __real@3f800000
  00182	8d 85 90 7f ff
	ff		 lea	 eax, DWORD PTR $T558175[ebp]
  00188	50		 push	 eax
  00189	8d 83 3c 10 00
	00		 lea	 eax, DWORD PTR [ebx+4156]
  0018f	50		 push	 eax
  00190	f3 0f 11 85 90
	7f ff ff	 movss	 DWORD PTR $T558175[ebp], xmm0
  00198	f3 0f 11 85 94
	7f ff ff	 movss	 DWORD PTR $T558175[ebp+4], xmm0
  001a0	f3 0f 11 85 98
	7f ff ff	 movss	 DWORD PTR $T558175[ebp+8], xmm0
  001a8	8d 83 90 10 00
	00		 lea	 eax, DWORD PTR [ebx+4240]

; 588  : 	}
; 589  : 	else

  001ae	eb 62		 jmp	 SHORT $LN61@SetActionS
$LN10@SetActionS:

; 590  : 	{
; 591  : 		if( pChar->GetSingleConvertTeam() == TEAM_BLUE )

  001b0	e8 00 00 00 00	 call	 ?GetSingleConvertTeam@ioBaseChar@@QAE?AW4TeamType@@XZ ; ioBaseChar::GetSingleConvertTeam

; 592  : 		{
; 593  : 			pMapEffect = pChar->CreateMapEffectBySkill( m_BlueEffect, m_vCirclePos );

  001b5	f3 0f 10 05 00
	00 00 00	 movss	 xmm0, DWORD PTR __real@3f800000
  001bd	83 f8 02	 cmp	 eax, 2
  001c0	75 2e		 jne	 SHORT $LN8@SetActionS
  001c2	8d 85 ac 7f ff
	ff		 lea	 eax, DWORD PTR $T558176[ebp]
  001c8	50		 push	 eax
  001c9	8d 83 3c 10 00
	00		 lea	 eax, DWORD PTR [ebx+4156]
  001cf	50		 push	 eax
  001d0	f3 0f 11 85 ac
	7f ff ff	 movss	 DWORD PTR $T558176[ebp], xmm0
  001d8	f3 0f 11 85 b0
	7f ff ff	 movss	 DWORD PTR $T558176[ebp+4], xmm0
  001e0	f3 0f 11 85 b4
	7f ff ff	 movss	 DWORD PTR $T558176[ebp+8], xmm0
  001e8	8d 83 90 10 00
	00		 lea	 eax, DWORD PTR [ebx+4240]

; 594  : 		}
; 595  : 		else

  001ee	eb 20		 jmp	 SHORT $LN62@SetActionS
$LN8@SetActionS:

; 596  : 		{
; 597  : 			pMapEffect = pChar->CreateMapEffectBySkill( m_RedEffect, m_vCirclePos );

  001f0	f3 0f 11 45 d8	 movss	 DWORD PTR $T558177[ebp], xmm0
  001f5	f3 0f 11 45 dc	 movss	 DWORD PTR $T558177[ebp+4], xmm0
  001fa	f3 0f 11 45 e0	 movss	 DWORD PTR $T558177[ebp+8], xmm0
  001ff	8d 45 d8	 lea	 eax, DWORD PTR $T558177[ebp]
$LN60@SetActionS:
  00202	50		 push	 eax
  00203	8d 83 3c 10 00
	00		 lea	 eax, DWORD PTR [ebx+4156]
  00209	50		 push	 eax
  0020a	8d 83 80 10 00
	00		 lea	 eax, DWORD PTR [ebx+4224]
$LN62@SetActionS:
  00210	8b cf		 mov	 ecx, edi
$LN61@SetActionS:
  00212	50		 push	 eax
  00213	e8 00 00 00 00	 call	 ?CreateMapEffectBySkill@ioBaseChar@@QAEPAVioMapEffect@@ABVioHashString@@ABUD3DXVECTOR3@@AAU4@@Z ; ioBaseChar::CreateMapEffectBySkill
  00218	89 85 bc 7f ff
	ff		 mov	 DWORD PTR _pMapEffect$[ebp], eax

; 598  : 		}
; 599  : 	}
; 600  : 
; 601  : 	if( pMapEffect )

  0021e	85 c0		 test	 eax, eax
  00220	74 42		 je	 SHORT $LN4@SetActionS

; 602  : 	{
; 603  : 		if( m_dwCurMapEffect != -1 )

  00222	8b 83 a0 10 00
	00		 mov	 eax, DWORD PTR [ebx+4256]
  00228	83 f8 ff	 cmp	 eax, -1
  0022b	74 0a		 je	 SHORT $LN5@SetActionS

; 604  : 			pChar->EndMapEffect( m_dwCurMapEffect, false );

  0022d	6a 00		 push	 0
  0022f	50		 push	 eax
  00230	8b cf		 mov	 ecx, edi
  00232	e8 00 00 00 00	 call	 ?EndMapEffect@ioBaseChar@@QAEXK_N@Z ; ioBaseChar::EndMapEffect
$LN5@SetActionS:

; 605  : 
; 606  : 		m_dwCurMapEffect = pMapEffect->GetUniqueID();

  00237	8b 8d bc 7f ff
	ff		 mov	 ecx, DWORD PTR _pMapEffect$[ebp]
  0023d	e8 00 00 00 00	 call	 ?GetUniqueID@ioMapEffect@@QBEKXZ ; ioMapEffect::GetUniqueID
  00242	89 83 a0 10 00
	00		 mov	 DWORD PTR [ebx+4256], eax

; 607  : 
; 608  : 		if( m_dwTargetCircleEffect != -1 )

  00248	8b 83 a4 10 00
	00		 mov	 eax, DWORD PTR [ebx+4260]
  0024e	83 f8 ff	 cmp	 eax, -1
  00251	74 11		 je	 SHORT $LN4@SetActionS

; 609  : 		{
; 610  : 			pChar->EndMapEffect( m_dwTargetCircleEffect, false );

  00253	6a 00		 push	 0
  00255	50		 push	 eax
  00256	8b cf		 mov	 ecx, edi
  00258	e8 00 00 00 00	 call	 ?EndMapEffect@ioBaseChar@@QAEXK_N@Z ; ioBaseChar::EndMapEffect

; 611  : 			m_dwTargetCircleEffect = -1;

  0025d	83 8b a4 10 00
	00 ff		 or	 DWORD PTR [ebx+4260], -1
$LN4@SetActionS:

; 612  : 		}
; 613  : 	}
; 614  : 
; 615  : 	// CharMove
; 616  : 	m_vCharMoveDir = ioMath::VEC3_ZERO;

  00264	8b 35 00 00 00
	00		 mov	 esi, DWORD PTR __imp_?VEC3_ZERO@ioMath@@2UD3DXVECTOR3@@A
  0026a	8d bb 54 10 00
	00		 lea	 edi, DWORD PTR [ebx+4180]
  00270	a5		 movsd
  00271	a5		 movsd
  00272	a5		 movsd

; 617  : 
; 618  : 	D3DXVECTOR3 vDir = m_vCirclePos - pChar->GetWorldPosition();

  00273	8b b5 b8 7f ff
	ff		 mov	 esi, DWORD PTR _pChar$GSCopy$[ebp]
  00279	8b 06		 mov	 eax, DWORD PTR [esi]
  0027b	8b ce		 mov	 ecx, esi
  0027d	ff 50 70	 call	 DWORD PTR [eax+112]
  00280	f3 0f 10 08	 movss	 xmm1, DWORD PTR [eax]
  00284	f3 0f 10 50 08	 movss	 xmm2, DWORD PTR [eax+8]
  00289	8d 8b 3c 10 00
	00		 lea	 ecx, DWORD PTR [ebx+4156]
  0028f	f3 0f 10 01	 movss	 xmm0, DWORD PTR [ecx]
  00293	0f 5a c9	 cvtps2pd xmm1, xmm1
  00296	0f 5a c0	 cvtps2pd xmm0, xmm0
  00299	f2 0f 5c c1	 subsd	 xmm0, xmm1
  0029d	f3 0f 10 49 08	 movss	 xmm1, DWORD PTR [ecx+8]
  002a2	66 0f 5a c0	 cvtpd2ps xmm0, xmm0
  002a6	0f 5a c9	 cvtps2pd xmm1, xmm1
  002a9	0f 5a d2	 cvtps2pd xmm2, xmm2
  002ac	f2 0f 5c ca	 subsd	 xmm1, xmm2
  002b0	f3 0f 11 45 e4	 movss	 DWORD PTR _vDir$[ebp], xmm0

; 619  : 	vDir.y = 0.0f;

  002b5	0f 57 c0	 xorps	 xmm0, xmm0
  002b8	66 0f 5a c9	 cvtpd2ps xmm1, xmm1
  002bc	f3 0f 11 4d ec	 movss	 DWORD PTR _vDir$[ebp+8], xmm1
  002c1	f3 0f 11 45 e8	 movss	 DWORD PTR _vDir$[ebp+4], xmm0

; 620  : 
; 621  : 	float fRate = FLOAT1;

  002c6	b8 01 00 00 00	 mov	 eax, 1

; 622  : 	float fRange = D3DXVec3Length( &vDir );

  002cb	f3 0f 10 45 e4	 movss	 xmm0, DWORD PTR _vDir$[ebp]
  002d0	f3 0f 10 4d e8	 movss	 xmm1, DWORD PTR _vDir$[ebp+4]
  002d5	f3 0f 10 55 ec	 movss	 xmm2, DWORD PTR _vDir$[ebp+8]
  002da	0f 5a c0	 cvtps2pd xmm0, xmm0
  002dd	f2 0f 59 c0	 mulsd	 xmm0, xmm0
  002e1	0f 5a c9	 cvtps2pd xmm1, xmm1
  002e4	f2 0f 59 c9	 mulsd	 xmm1, xmm1
  002e8	f2 0f 58 c8	 addsd	 xmm1, xmm0
  002ec	0f 57 c0	 xorps	 xmm0, xmm0
  002ef	0f 5a d2	 cvtps2pd xmm2, xmm2
  002f2	f2 0f 59 d2	 mulsd	 xmm2, xmm2
  002f6	f2 0f 58 ca	 addsd	 xmm1, xmm2
  002fa	66 0f 5a c1	 cvtpd2ps xmm0, xmm1
  002fe	0f 5a c0	 cvtps2pd xmm0, xmm0
  00301	f2 0f 51 c0	 sqrtsd	 xmm0, xmm0
  00305	66 0f 5a c0	 cvtpd2ps xmm0, xmm0

; 623  : 	if( fRange > 5.0f )

  00309	0f 2f 05 00 00
	00 00		 comiss	 xmm0, DWORD PTR __real@40a00000
  00310	0f 86 a5 00 00
	00		 jbe	 $LN3@SetActionS

; 624  : 	{
; 625  : 		fRate = fRange / m_fCircleRange;

  00316	f3 0f 10 8b 2c
	10 00 00	 movss	 xmm1, DWORD PTR [ebx+4140]
  0031e	f3 0f 5a c0	 cvtss2sd xmm0, xmm0
  00322	0f 5a c9	 cvtps2pd xmm1, xmm1
  00325	f2 0f 5e c1	 divsd	 xmm0, xmm1

; 626  : 		m_fCurCharMoveSpeed = m_fCharMoveSpeed * fRate;

  00329	f3 0f 10 8b 48
	10 00 00	 movss	 xmm1, DWORD PTR [ebx+4168]
  00331	66 0f 5a c0	 cvtpd2ps xmm0, xmm0
  00335	f3 0f 5a c0	 cvtss2sd xmm0, xmm0

; 627  : 
; 628  : 		D3DXVec3Normalize( &m_vCharMoveDir, &vDir );

  00339	8d 45 e4	 lea	 eax, DWORD PTR _vDir$[ebp]
  0033c	0f 5a c9	 cvtps2pd xmm1, xmm1
  0033f	50		 push	 eax
  00340	f2 0f 59 c8	 mulsd	 xmm1, xmm0
  00344	8d bb 54 10 00
	00		 lea	 edi, DWORD PTR [ebx+4180]
  0034a	66 0f 5a c1	 cvtpd2ps xmm0, xmm1
  0034e	57		 push	 edi
  0034f	f3 0f 11 83 4c
	10 00 00	 movss	 DWORD PTR [ebx+4172], xmm0
  00357	e8 00 00 00 00	 call	 _D3DXVec3Normalize@8

; 629  : 
; 630  : 		D3DXQUATERNION qtRot;
; 631  : 		ioMath::CalcDirectionQuaternion( qtRot, -m_vCharMoveDir );

  0035c	f3 0f 10 05 00
	00 00 00	 movss	 xmm0, DWORD PTR __mask@@NegFloat@
  00364	f3 0f 10 0f	 movss	 xmm1, DWORD PTR [edi]
  00368	f3 0f 10 57 04	 movss	 xmm2, DWORD PTR [edi+4]
  0036d	f3 0f 10 5f 08	 movss	 xmm3, DWORD PTR [edi+8]
  00372	8d 45 d8	 lea	 eax, DWORD PTR $T550872[ebp]
  00375	50		 push	 eax
  00376	8d 85 a8 7f ff
	ff		 lea	 eax, DWORD PTR _qtRot$550871[ebp]
  0037c	0f 57 c8	 xorps	 xmm1, xmm0
  0037f	0f 57 d0	 xorps	 xmm2, xmm0
  00382	0f 57 d8	 xorps	 xmm3, xmm0
  00385	50		 push	 eax
  00386	f3 0f 11 4d d8	 movss	 DWORD PTR $T550872[ebp], xmm1
  0038b	f3 0f 11 55 dc	 movss	 DWORD PTR $T550872[ebp+4], xmm2
  00390	f3 0f 11 5d e0	 movss	 DWORD PTR $T550872[ebp+8], xmm3
  00395	ff 15 00 00 00
	00		 call	 DWORD PTR __imp_?CalcDirectionQuaternion@ioMath@@SAXAAUD3DXQUATERNION@@ABUD3DXVECTOR3@@@Z
  0039b	59		 pop	 ecx
  0039c	59		 pop	 ecx

; 632  : 		pChar->SetTargetRotAndMoveDirChange( qtRot, false );

  0039d	6a 00		 push	 0
  0039f	8d 85 a8 7f ff
	ff		 lea	 eax, DWORD PTR _qtRot$550871[ebp]
  003a5	50		 push	 eax
  003a6	8b ce		 mov	 ecx, esi
  003a8	e8 00 00 00 00	 call	 ?SetTargetRotAndMoveDirChange@ioBaseChar@@QAEXABUD3DXQUATERNION@@_N@Z ; ioBaseChar::SetTargetRotAndMoveDirChange

; 633  : 		pChar->SetWorldOrientation( qtRot );

  003ad	8b 06		 mov	 eax, DWORD PTR [esi]
  003af	8d 8d a8 7f ff
	ff		 lea	 ecx, DWORD PTR _qtRot$550871[ebp]
  003b5	51		 push	 ecx
  003b6	8b ce		 mov	 ecx, esi
  003b8	ff 50 48	 call	 DWORD PTR [eax+72]
$LN3@SetActionS:

; 634  : 	}
; 635  : 
; 636  : 	pChar->SetJumpPower( m_fCharJumpPower );

  003bb	f3 0f 10 83 50
	10 00 00	 movss	 xmm0, DWORD PTR [ebx+4176]
  003c3	51		 push	 ecx
  003c4	8b ce		 mov	 ecx, esi
  003c6	f3 0f 11 04 24	 movss	 DWORD PTR [esp], xmm0
  003cb	e8 00 00 00 00	 call	 ?SetJumpPower@ioBaseChar@@QAEXM@Z ; ioBaseChar::SetJumpPower

; 637  : 	//
; 638  : 
; 639  : 	EndPreDelayEffect( pChar );

  003d0	8b 03		 mov	 eax, DWORD PTR [ebx]
  003d2	56		 push	 esi
  003d3	8b cb		 mov	 ecx, ebx
  003d5	ff 90 dc 00 00
	00		 call	 DWORD PTR [eax+220]

; 640  : 	SetNormalSkill( pChar );

  003db	8b 03		 mov	 eax, DWORD PTR [ebx]
  003dd	56		 push	 esi
  003de	8b cb		 mov	 ecx, ebx
  003e0	ff 90 8c 01 00
	00		 call	 DWORD PTR [eax+396]

; 641  : 
; 642  : 	//   
; 643  : 	if( !m_bSetHandMesh && m_bUseItemMesh && !m_HandMesh.IsEmpty() )

  003e6	80 bb 0a 0f 00
	00 00		 cmp	 BYTE PTR [ebx+3850], 0
  003ed	75 33		 jne	 SHORT $LN2@SetActionS
  003ef	80 bb 08 0f 00
	00 00		 cmp	 BYTE PTR [ebx+3848], 0
  003f6	74 2a		 je	 SHORT $LN2@SetActionS
  003f8	8d bb f8 0e 00
	00		 lea	 edi, DWORD PTR [ebx+3832]
  003fe	8b cf		 mov	 ecx, edi
  00400	ff 15 00 00 00
	00		 call	 DWORD PTR __imp_?IsEmpty@ioHashString@@QBE_NXZ
  00406	84 c0		 test	 al, al
  00408	75 18		 jne	 SHORT $LN2@SetActionS

; 644  : 	{
; 645  : 		pChar->ChangeSkillWeaponMesh( this, m_HandMesh, m_bVisibleEquipMesh );

  0040a	0f b6 83 09 0f
	00 00		 movzx	 eax, BYTE PTR [ebx+3849]
  00411	50		 push	 eax
  00412	57		 push	 edi
  00413	53		 push	 ebx
  00414	8b ce		 mov	 ecx, esi
  00416	e8 00 00 00 00	 call	 ?ChangeSkillWeaponMesh@ioBaseChar@@QAE_NPAVioSkill@@ABVioHashString@@_N@Z ; ioBaseChar::ChangeSkillWeaponMesh

; 646  : 		m_bSetHandMesh = true;

  0041b	c6 83 0a 0f 00
	00 01		 mov	 BYTE PTR [ebx+3850], 1
$LN2@SetActionS:

; 647  : 	}
; 648  : 
; 649  : 	if( (m_WaitType != WT_IMMEDIATE) && pChar->IsNeedSendNetwork() )

  00422	83 bb dc 10 00
	00 02		 cmp	 DWORD PTR [ebx+4316], 2
  00429	74 6e		 je	 SHORT $LN1@SetActionS
  0042b	8b 06		 mov	 eax, DWORD PTR [esi]
  0042d	8b ce		 mov	 ecx, esi
  0042f	ff 90 04 01 00
	00		 call	 DWORD PTR [eax+260]
  00435	84 c0		 test	 al, al
  00437	74 60		 je	 SHORT $LN1@SetActionS

; 650  : 	{
; 651  : 		SP2Packet kPacket( CUPK_SKILL_EXTRA_INFO );

  00439	68 39 41 00 00	 push	 16697			; 00004139H
  0043e	8d 8d c0 7f ff
	ff		 lea	 ecx, DWORD PTR _kPacket$550875[ebp]
  00444	e8 00 00 00 00	 call	 ??0SP2Packet@@QAE@K@Z	; SP2Packet::SP2Packet

; 652  : 		kPacket << pChar->GetCharName();

  00449	81 c6 d4 02 00
	00		 add	 esi, 724		; 000002d4H
  0044f	33 ff		 xor	 edi, edi
  00451	56		 push	 esi
  00452	8d 8d c0 7f ff
	ff		 lea	 ecx, DWORD PTR _kPacket$550875[ebp]
  00458	89 7d fc	 mov	 DWORD PTR __$EHRec$[ebp+8], edi
  0045b	e8 00 00 00 00	 call	 ??6SP2Packet@@QAEAAV0@ABVioHashString@@@Z ; SP2Packet::operator<<

; 653  : 		kPacket << GetName();

  00460	83 c3 24	 add	 ebx, 36			; 00000024H
  00463	53		 push	 ebx
  00464	8d 8d c0 7f ff
	ff		 lea	 ecx, DWORD PTR _kPacket$550875[ebp]
  0046a	e8 00 00 00 00	 call	 ??6SP2Packet@@QAEAAV0@ABVioHashString@@@Z ; SP2Packet::operator<<

; 654  : 		kPacket << SSC_ACTION;

  0046f	57		 push	 edi
  00470	8d 8d c0 7f ff
	ff		 lea	 ecx, DWORD PTR _kPacket$550875[ebp]
  00476	e8 00 00 00 00	 call	 ??6SP2Packet@@QAEAAV0@H@Z ; SP2Packet::operator<<

; 655  : 		P2PNetwork::SendToAllPlayingUser( kPacket );

  0047b	8d 85 c0 7f ff
	ff		 lea	 eax, DWORD PTR _kPacket$550875[ebp]
  00481	57		 push	 edi
  00482	50		 push	 eax
  00483	e8 00 00 00 00	 call	 ?SendToAllPlayingUser@P2PNetwork@@YAXAAVSP2Packet@@PAVioBaseChar@@@Z ; P2PNetwork::SendToAllPlayingUser

; 656  : 	}

  00488	83 4d fc ff	 or	 DWORD PTR __$EHRec$[ebp+8], -1
  0048c	59		 pop	 ecx
  0048d	59		 pop	 ecx
  0048e	8d 8d c0 7f ff
	ff		 lea	 ecx, DWORD PTR _kPacket$550875[ebp]
  00494	e8 00 00 00 00	 call	 ??1SP2Packet@@UAE@XZ	; SP2Packet::~SP2Packet
$LN1@SetActionS:

; 657  : }

  00499	8b 4d f4	 mov	 ecx, DWORD PTR __$EHRec$[ebp]
  0049c	64 89 0d 00 00
	00 00		 mov	 DWORD PTR fs:0, ecx
  004a3	59		 pop	 ecx
  004a4	5f		 pop	 edi
  004a5	5e		 pop	 esi
  004a6	5b		 pop	 ebx
  004a7	8b 4d f0	 mov	 ecx, DWORD PTR __$ArrayPad$[ebp]
  004aa	33 cd		 xor	 ecx, ebp
  004ac	e8 00 00 00 00	 call	 @__security_check_cookie@4
  004b1	c9		 leave
  004b2	c2 08 00	 ret	 8
_TEXT	ENDS
;	COMDAT text$x
text$x	SEGMENT
__unwindfunclet$?SetActionState@ioCircleMoveAttackSkill@@IAEXPAVioBaseChar@@PAVioPlayStage@@@Z$0:
  00000	8d 8d c0 7f ff
	ff		 lea	 ecx, DWORD PTR _kPacket$550875[ebp]
  00006	e9 00 00 00 00	 jmp	 ??1SP2Packet@@UAE@XZ	; SP2Packet::~SP2Packet
__ehhandler$?SetActionState@ioCircleMoveAttackSkill@@IAEXPAVioBaseChar@@PAVioPlayStage@@@Z:
  0000b	8b 54 24 08	 mov	 edx, DWORD PTR [esp+8]
  0000f	8d 42 0c	 lea	 eax, DWORD PTR [edx+12]
  00012	8b 8a 8c 7f ff
	ff		 mov	 ecx, DWORD PTR [edx-32884]
  00018	33 c8		 xor	 ecx, eax
  0001a	e8 00 00 00 00	 call	 @__security_check_cookie@4
  0001f	8b 4a fc	 mov	 ecx, DWORD PTR [edx-4]
  00022	33 c8		 xor	 ecx, eax
  00024	e8 00 00 00 00	 call	 @__security_check_cookie@4
  00029	b8 00 00 00 00	 mov	 eax, OFFSET __ehfuncinfo$?SetActionState@ioCircleMoveAttackSkill@@IAEXPAVioBaseChar@@PAVioPlayStage@@@Z
  0002e	e9 00 00 00 00	 jmp	 ___CxxFrameHandler3
text$x	ENDS
?SetActionState@ioCircleMoveAttackSkill@@IAEXPAVioBaseChar@@PAVioPlayStage@@@Z ENDP ; ioCircleMoveAttackSkill::SetActionState
PUBLIC	?ApplyExtraSkillInfo@ioCircleMoveAttackSkill@@UAEXPAVioBaseChar@@PAVioPlayStage@@AAVSP2Packet@@@Z ; ioCircleMoveAttackSkill::ApplyExtraSkillInfo
EXTRN	??5SP2Packet@@QAEAAV0@AAH@Z:PROC		; SP2Packet::operator>>
; Function compile flags: /Ogsp
;	COMDAT ?ApplyExtraSkillInfo@ioCircleMoveAttackSkill@@UAEXPAVioBaseChar@@PAVioPlayStage@@AAVSP2Packet@@@Z
_TEXT	SEGMENT
_iType$ = -4						; size = 4
_pChar$ = 8						; size = 4
_pStage$ = 12						; size = 4
_iCurKey$550889 = 16					; size = 4
_rkPacket$ = 16						; size = 4
?ApplyExtraSkillInfo@ioCircleMoveAttackSkill@@UAEXPAVioBaseChar@@PAVioPlayStage@@AAVSP2Packet@@@Z PROC ; ioCircleMoveAttackSkill::ApplyExtraSkillInfo, COMDAT
; _this$ = ecx

; 660  : {

  00000	55		 push	 ebp
  00001	8b ec		 mov	 ebp, esp
  00003	51		 push	 ecx
  00004	56		 push	 esi

; 661  : 	int iType;
; 662  : 	rkPacket >> iType;

  00005	8d 45 fc	 lea	 eax, DWORD PTR _iType$[ebp]
  00008	8b f1		 mov	 esi, ecx
  0000a	8b 4d 10	 mov	 ecx, DWORD PTR _rkPacket$[ebp]
  0000d	50		 push	 eax
  0000e	e8 00 00 00 00	 call	 ??5SP2Packet@@QAEAAV0@AAH@Z ; SP2Packet::operator>>

; 663  : 
; 664  : 	switch( iType )

  00013	8b 45 fc	 mov	 eax, DWORD PTR _iType$[ebp]
  00016	83 e8 00	 sub	 eax, 0
  00019	74 1a		 je	 SHORT $LN2@ApplyExtra
  0001b	48		 dec	 eax
  0001c	75 24		 jne	 SHORT $LN3@ApplyExtra

; 668  : 		break;
; 669  : 	case SSC_DIR:
; 670  : 		{
; 671  : 			int iCurKey;
; 672  : 			rkPacket >> iCurKey;

  0001e	8b 4d 10	 mov	 ecx, DWORD PTR _rkPacket$[ebp]
  00021	8d 45 10	 lea	 eax, DWORD PTR _iCurKey$550889[ebp]
  00024	50		 push	 eax
  00025	e8 00 00 00 00	 call	 ??5SP2Packet@@QAEAAV0@AAH@Z ; SP2Packet::operator>>

; 673  : 
; 674  : 			m_CurDirKey = (ioUserKeyInput::DirKeyInput)iCurKey;

  0002a	8b 45 10	 mov	 eax, DWORD PTR _iCurKey$550889[ebp]
  0002d	89 86 20 11 00
	00		 mov	 DWORD PTR [esi+4384], eax

; 675  : 		}
; 676  : 		break;

  00033	eb 0d		 jmp	 SHORT $LN3@ApplyExtra
$LN2@ApplyExtra:

; 665  : 	{
; 666  : 	case SSC_ACTION:
; 667  : 		SetActionState( pChar, pStage );

  00035	ff 75 0c	 push	 DWORD PTR _pStage$[ebp]
  00038	8b ce		 mov	 ecx, esi
  0003a	ff 75 08	 push	 DWORD PTR _pChar$[ebp]
  0003d	e8 00 00 00 00	 call	 ?SetActionState@ioCircleMoveAttackSkill@@IAEXPAVioBaseChar@@PAVioPlayStage@@@Z ; ioCircleMoveAttackSkill::SetActionState
$LN3@ApplyExtra:
  00042	5e		 pop	 esi

; 677  : 	}
; 678  : }

  00043	c9		 leave
  00044	c2 0c 00	 ret	 12			; 0000000cH
?ApplyExtraSkillInfo@ioCircleMoveAttackSkill@@UAEXPAVioBaseChar@@PAVioPlayStage@@AAVSP2Packet@@@Z ENDP ; ioCircleMoveAttackSkill::ApplyExtraSkillInfo
_TEXT	ENDS
PUBLIC	?front@?$vector@UWeaponInfo@@V?$allocator@UWeaponInfo@@@std@@@std@@QAEAAUWeaponInfo@@XZ ; std::vector<WeaponInfo,std::allocator<WeaponInfo> >::front
; Function compile flags: /Ogsp
; File c:\program files (x86)\microsoft visual studio 10.0\vc\include\vector
;	COMDAT ?front@?$vector@UWeaponInfo@@V?$allocator@UWeaponInfo@@@std@@@std@@QAEAAUWeaponInfo@@XZ
_TEXT	SEGMENT
?front@?$vector@UWeaponInfo@@V?$allocator@UWeaponInfo@@@std@@@std@@QAEAAUWeaponInfo@@XZ PROC ; std::vector<WeaponInfo,std::allocator<WeaponInfo> >::front, COMDAT
; _this$ = ecx

; 957  : 		return (*begin());

  00000	8b 01		 mov	 eax, DWORD PTR [ecx]

; 958  : 		}

  00002	c3		 ret	 0
?front@?$vector@UWeaponInfo@@V?$allocator@UWeaponInfo@@@std@@@std@@QAEAAUWeaponInfo@@XZ ENDP ; std::vector<WeaponInfo,std::allocator<WeaponInfo> >::front
_TEXT	ENDS
PUBLIC	??$_Cons_val@V?$allocator@UWeaponInfo@@@std@@UWeaponInfo@@ABU3@@std@@YAXAAV?$allocator@UWeaponInfo@@@0@PAUWeaponInfo@@ABU2@@Z ; std::_Cons_val<std::allocator<WeaponInfo>,WeaponInfo,WeaponInfo const &>
; Function compile flags: /Ogsp
; File c:\program files (x86)\microsoft visual studio 10.0\vc\include\xmemory
;	COMDAT ??$_Cons_val@V?$allocator@UWeaponInfo@@@std@@UWeaponInfo@@ABU3@@std@@YAXAAV?$allocator@UWeaponInfo@@@0@PAUWeaponInfo@@ABU2@@Z
_TEXT	SEGMENT
__Alval$ = 8						; size = 4
__Pdest$ = 12						; size = 4
__Src$ = 16						; size = 4
??$_Cons_val@V?$allocator@UWeaponInfo@@@std@@UWeaponInfo@@ABU3@@std@@YAXAAV?$allocator@UWeaponInfo@@@0@PAUWeaponInfo@@ABU2@@Z PROC ; std::_Cons_val<std::allocator<WeaponInfo>,WeaponInfo,WeaponInfo const &>, COMDAT

; 279  : 	{	// construct using allocator

  00000	55		 push	 ebp
  00001	8b ec		 mov	 ebp, esp

; 280  : 	_Alval.construct(_Pdest, _STD forward<_Ty2>(_Src));

  00003	ff 75 10	 push	 DWORD PTR __Src$[ebp]
  00006	ff 75 0c	 push	 DWORD PTR __Pdest$[ebp]
  00009	e8 00 00 00 00	 call	 ??$_Construct@UWeaponInfo@@ABU1@@std@@YAXPAUWeaponInfo@@ABU1@@Z ; std::_Construct<WeaponInfo,WeaponInfo const &>
  0000e	59		 pop	 ecx
  0000f	59		 pop	 ecx

; 281  : 	}

  00010	5d		 pop	 ebp
  00011	c3		 ret	 0
??$_Cons_val@V?$allocator@UWeaponInfo@@@std@@UWeaponInfo@@ABU3@@std@@YAXAAV?$allocator@UWeaponInfo@@@0@PAUWeaponInfo@@ABU2@@Z ENDP ; std::_Cons_val<std::allocator<WeaponInfo>,WeaponInfo,WeaponInfo const &>
_TEXT	ENDS
PUBLIC	??$_Uninit_copy@V?$_Vector_const_iterator@V?$_Vector_val@UForceInfo@@V?$allocator@UForceInfo@@@std@@@std@@@std@@PAUForceInfo@@V?$allocator@UForceInfo@@@2@@std@@YAPAUForceInfo@@V?$_Vector_const_iterator@V?$_Vector_val@UForceInfo@@V?$allocator@UForceInfo@@@std@@@std@@@0@0PAU1@AAV?$allocator@UForceInfo@@@0@U_Nonscalar_ptr_iterator_tag@0@@Z ; std::_Uninit_copy<std::_Vector_const_iterator<std::_Vector_val<ForceInfo,std::allocator<ForceInfo> > >,ForceInfo *,std::allocator<ForceInfo> >
; Function compile flags: /Ogsp
; File c:\program files (x86)\microsoft visual studio 10.0\vc\include\memory
;	COMDAT ??$_Uninit_copy@V?$_Vector_const_iterator@V?$_Vector_val@UForceInfo@@V?$allocator@UForceInfo@@@std@@@std@@@std@@PAUForceInfo@@V?$allocator@UForceInfo@@@2@@std@@YAPAUForceInfo@@V?$_Vector_const_iterator@V?$_Vector_val@UForceInfo@@V?$allocator@UForceInfo@@@std@@@std@@@0@0PAU1@AAV?$allocator@UForceInfo@@@0@U_Nonscalar_ptr_iterator_tag@0@@Z
_TEXT	SEGMENT
__First$ = 8						; size = 4
__Last$ = 12						; size = 4
__Dest$ = 16						; size = 4
__Al$ = 20						; size = 4
___formal$ = 24						; size = 1
??$_Uninit_copy@V?$_Vector_const_iterator@V?$_Vector_val@UForceInfo@@V?$allocator@UForceInfo@@@std@@@std@@@std@@PAUForceInfo@@V?$allocator@UForceInfo@@@2@@std@@YAPAUForceInfo@@V?$_Vector_const_iterator@V?$_Vector_val@UForceInfo@@V?$allocator@UForceInfo@@@std@@@std@@@0@0PAU1@AAV?$allocator@UForceInfo@@@0@U_Nonscalar_ptr_iterator_tag@0@@Z PROC ; std::_Uninit_copy<std::_Vector_const_iterator<std::_Vector_val<ForceInfo,std::allocator<ForceInfo> > >,ForceInfo *,std::allocator<ForceInfo> >, COMDAT

; 369  : 	{	// copy [_First, _Last) to raw _Dest, using _Al, arbitrary type

  00000	55		 push	 ebp
  00001	8b ec		 mov	 ebp, esp

; 370  : 	_DEBUG_RANGE(_First, _Last);
; 371  : 	_DEBUG_POINTER(_Dest);
; 372  : 	_FwdIt _Next = _Dest;
; 373  : 
; 374  : 	_TRY_BEGIN
; 375  : 	for (; _First != _Last; ++_Dest, ++_First)

  00003	eb 19		 jmp	 SHORT $LN35@Uninit_cop
$LL14@Uninit_cop:

; 376  : 		_Cons_val(_Al, _Dest, *_First);

  00005	ff 75 08	 push	 DWORD PTR __First$[ebp]
  00008	ff 75 10	 push	 DWORD PTR __Dest$[ebp]
  0000b	ff 75 14	 push	 DWORD PTR __Al$[ebp]
  0000e	e8 00 00 00 00	 call	 ??$_Cons_val@V?$allocator@UForceInfo@@@std@@UForceInfo@@ABU3@@std@@YAXAAV?$allocator@UForceInfo@@@0@PAUForceInfo@@ABU2@@Z ; std::_Cons_val<std::allocator<ForceInfo>,ForceInfo,ForceInfo const &>
  00013	83 45 10 0c	 add	 DWORD PTR __Dest$[ebp], 12 ; 0000000cH
  00017	83 c4 0c	 add	 esp, 12			; 0000000cH
  0001a	83 45 08 0c	 add	 DWORD PTR __First$[ebp], 12 ; 0000000cH
$LN35@Uninit_cop:

; 370  : 	_DEBUG_RANGE(_First, _Last);
; 371  : 	_DEBUG_POINTER(_Dest);
; 372  : 	_FwdIt _Next = _Dest;
; 373  : 
; 374  : 	_TRY_BEGIN
; 375  : 	for (; _First != _Last; ++_Dest, ++_First)

  0001e	8b 45 08	 mov	 eax, DWORD PTR __First$[ebp]
  00021	3b 45 0c	 cmp	 eax, DWORD PTR __Last$[ebp]
  00024	75 df		 jne	 SHORT $LL14@Uninit_cop

; 377  : 	_CATCH_ALL
; 378  : 	for (; _Next != _Dest; ++_Next)
; 379  : 		_Dest_val(_Al, _Next);
; 380  : 	_RERAISE;
; 381  : 	_CATCH_END
; 382  : 	return (_Dest);

  00026	8b 45 10	 mov	 eax, DWORD PTR __Dest$[ebp]

; 383  : 	}

  00029	5d		 pop	 ebp
  0002a	c3		 ret	 0
??$_Uninit_copy@V?$_Vector_const_iterator@V?$_Vector_val@UForceInfo@@V?$allocator@UForceInfo@@@std@@@std@@@std@@PAUForceInfo@@V?$allocator@UForceInfo@@@2@@std@@YAPAUForceInfo@@V?$_Vector_const_iterator@V?$_Vector_val@UForceInfo@@V?$allocator@UForceInfo@@@std@@@std@@@0@0PAU1@AAV?$allocator@UForceInfo@@@0@U_Nonscalar_ptr_iterator_tag@0@@Z ENDP ; std::_Uninit_copy<std::_Vector_const_iterator<std::_Vector_val<ForceInfo,std::allocator<ForceInfo> > >,ForceInfo *,std::allocator<ForceInfo> >
_TEXT	ENDS
PUBLIC	??$_Uninit_move@PAUForceInfo@@PAU1@V?$allocator@UForceInfo@@@std@@U1@@std@@YAPAUForceInfo@@PAU1@00AAV?$allocator@UForceInfo@@@0@0U_Nonscalar_ptr_iterator_tag@0@@Z ; std::_Uninit_move<ForceInfo *,ForceInfo *,std::allocator<ForceInfo>,ForceInfo>
; Function compile flags: /Ogsp
;	COMDAT ??$_Uninit_move@PAUForceInfo@@PAU1@V?$allocator@UForceInfo@@@std@@U1@@std@@YAPAUForceInfo@@PAU1@00AAV?$allocator@UForceInfo@@@0@0U_Nonscalar_ptr_iterator_tag@0@@Z
_TEXT	SEGMENT
__First$ = 8						; size = 4
__Last$ = 12						; size = 4
__Dest$ = 16						; size = 4
__Al$ = 20						; size = 4
___formal$ = 24						; size = 4
___formal$ = 28						; size = 1
??$_Uninit_move@PAUForceInfo@@PAU1@V?$allocator@UForceInfo@@@std@@U1@@std@@YAPAUForceInfo@@PAU1@00AAV?$allocator@UForceInfo@@@0@0U_Nonscalar_ptr_iterator_tag@0@@Z PROC ; std::_Uninit_move<ForceInfo *,ForceInfo *,std::allocator<ForceInfo>,ForceInfo>, COMDAT

; 424  : 	{	// move [_First, _Last) to raw _Dest, using _Al, arbitrary type

  00000	55		 push	 ebp
  00001	8b ec		 mov	 ebp, esp
  00003	56		 push	 esi

; 425  : 	_DEBUG_RANGE(_First, _Last);
; 426  : 	_DEBUG_POINTER(_Dest);
; 427  : 	_FwdIt _Next = _Dest;
; 428  : 
; 429  : 	_TRY_BEGIN
; 430  : 	for (; _First != _Last; ++_Dest, ++_First)

  00004	8b 75 08	 mov	 esi, DWORD PTR __First$[ebp]
  00007	eb 16		 jmp	 SHORT $LN24@Uninit_mov
$LL6@Uninit_mov:

; 431  : 		_Cons_val(_Al, _Dest, (_Valty &&)*_First);

  00009	56		 push	 esi
  0000a	ff 75 10	 push	 DWORD PTR __Dest$[ebp]
  0000d	ff 75 14	 push	 DWORD PTR __Al$[ebp]
  00010	e8 00 00 00 00	 call	 ??$_Cons_val@V?$allocator@UForceInfo@@@std@@UForceInfo@@U3@@std@@YAXAAV?$allocator@UForceInfo@@@0@PAUForceInfo@@$$QAU2@@Z ; std::_Cons_val<std::allocator<ForceInfo>,ForceInfo,ForceInfo>
  00015	83 45 10 0c	 add	 DWORD PTR __Dest$[ebp], 12 ; 0000000cH
  00019	83 c4 0c	 add	 esp, 12			; 0000000cH
  0001c	83 c6 0c	 add	 esi, 12			; 0000000cH
$LN24@Uninit_mov:

; 425  : 	_DEBUG_RANGE(_First, _Last);
; 426  : 	_DEBUG_POINTER(_Dest);
; 427  : 	_FwdIt _Next = _Dest;
; 428  : 
; 429  : 	_TRY_BEGIN
; 430  : 	for (; _First != _Last; ++_Dest, ++_First)

  0001f	3b 75 0c	 cmp	 esi, DWORD PTR __Last$[ebp]
  00022	75 e5		 jne	 SHORT $LL6@Uninit_mov

; 432  : 	_CATCH_ALL
; 433  : 	for (; _Next != _Dest; ++_Next)
; 434  : 		_Dest_val(_Al, _Next);
; 435  : 	_RERAISE;
; 436  : 	_CATCH_END
; 437  : 	return (_Dest);

  00024	8b 45 10	 mov	 eax, DWORD PTR __Dest$[ebp]
  00027	5e		 pop	 esi

; 438  : 	}

  00028	5d		 pop	 ebp
  00029	c3		 ret	 0
??$_Uninit_move@PAUForceInfo@@PAU1@V?$allocator@UForceInfo@@@std@@U1@@std@@YAPAUForceInfo@@PAU1@00AAV?$allocator@UForceInfo@@@0@0U_Nonscalar_ptr_iterator_tag@0@@Z ENDP ; std::_Uninit_move<ForceInfo *,ForceInfo *,std::allocator<ForceInfo>,ForceInfo>
_TEXT	ENDS
PUBLIC	??$_Destroy_range@V?$allocator@UForceInfo@@@std@@@std@@YAXPAUForceInfo@@0AAV?$allocator@UForceInfo@@@0@U_Nonscalar_ptr_iterator_tag@0@@Z ; std::_Destroy_range<std::allocator<ForceInfo> >
; Function compile flags: /Ogsp
; File c:\program files (x86)\microsoft visual studio 10.0\vc\include\xmemory
;	COMDAT ??$_Destroy_range@V?$allocator@UForceInfo@@@std@@@std@@YAXPAUForceInfo@@0AAV?$allocator@UForceInfo@@@0@U_Nonscalar_ptr_iterator_tag@0@@Z
_TEXT	SEGMENT
__First$ = 8						; size = 4
__Last$ = 12						; size = 4
__Al$ = 16						; size = 4
___formal$ = 20						; size = 1
??$_Destroy_range@V?$allocator@UForceInfo@@@std@@@std@@YAXPAUForceInfo@@0AAV?$allocator@UForceInfo@@@0@U_Nonscalar_ptr_iterator_tag@0@@Z PROC ; std::_Destroy_range<std::allocator<ForceInfo> >, COMDAT

; 96   : 	for (; _First != _Last; ++_First)
; 97   : 		_Dest_val(_Al, _First);
; 98   : 	}

  00000	c3		 ret	 0
??$_Destroy_range@V?$allocator@UForceInfo@@@std@@@std@@YAXPAUForceInfo@@0AAV?$allocator@UForceInfo@@@0@U_Nonscalar_ptr_iterator_tag@0@@Z ENDP ; std::_Destroy_range<std::allocator<ForceInfo> >
_TEXT	ENDS
PUBLIC	??$_Dest_val@V?$allocator@UWeaponInfo@@@std@@UWeaponInfo@@@std@@YAXAAV?$allocator@UWeaponInfo@@@0@PAUWeaponInfo@@@Z ; std::_Dest_val<std::allocator<WeaponInfo>,WeaponInfo>
; Function compile flags: /Ogsp
;	COMDAT ??$_Dest_val@V?$allocator@UWeaponInfo@@@std@@UWeaponInfo@@@std@@YAXAAV?$allocator@UWeaponInfo@@@0@PAUWeaponInfo@@@Z
_TEXT	SEGMENT
__Alval$ = 8						; size = 4
__Pdest$ = 12						; size = 4
??$_Dest_val@V?$allocator@UWeaponInfo@@@std@@UWeaponInfo@@@std@@YAXAAV?$allocator@UWeaponInfo@@@0@PAUWeaponInfo@@@Z PROC ; std::_Dest_val<std::allocator<WeaponInfo>,WeaponInfo>, COMDAT

; 286  : 	{	// destroy using allocator

  00000	55		 push	 ebp
  00001	8b ec		 mov	 ebp, esp

; 287  : 	_Alval.destroy(_Pdest);

  00003	8b 4d 0c	 mov	 ecx, DWORD PTR __Pdest$[ebp]
  00006	83 c1 08	 add	 ecx, 8

; 288  : 	}

  00009	5d		 pop	 ebp

; 287  : 	_Alval.destroy(_Pdest);

  0000a	ff 25 00 00 00
	00		 jmp	 DWORD PTR __imp_??1ioHashString@@QAE@XZ
??$_Dest_val@V?$allocator@UWeaponInfo@@@std@@UWeaponInfo@@@std@@YAXAAV?$allocator@UWeaponInfo@@@0@PAUWeaponInfo@@@Z ENDP ; std::_Dest_val<std::allocator<WeaponInfo>,WeaponInfo>
_TEXT	ENDS
PUBLIC	?OnSkillStart@ioCircleMoveAttackSkill@@UAE_NPAVioBaseChar@@@Z ; ioCircleMoveAttackSkill::OnSkillStart
EXTRN	?SetSkillNameChatBubble@ioSkill@@IAEXPAVioBaseChar@@@Z:PROC ; ioSkill::SetSkillNameChatBubble
EXTRN	?CheckSkillDesc@ioSkill@@IAEXPAVioBaseChar@@@Z:PROC ; ioSkill::CheckSkillDesc
EXTRN	?SetCameraBuff@ioSkill@@IAEXPAVioBaseChar@@@Z:PROC ; ioSkill::SetCameraBuff
EXTRN	?SetSkillProtection@ioBaseChar@@QAEXXZ:PROC	; ioBaseChar::SetSkillProtection
EXTRN	?IncreaseWeaponIndexBase@ioBaseChar@@QAEKXZ:PROC ; ioBaseChar::IncreaseWeaponIndexBase
; Function compile flags: /Ogsp
; File d:\lost saga for developer\youtube\tutorial\source\src\lsclient\iocirclemoveattackskill.cpp
;	COMDAT ?OnSkillStart@ioCircleMoveAttackSkill@@UAE_NPAVioBaseChar@@@Z
_TEXT	SEGMENT
_value$558469 = -4					; size = 4
_value$558465 = -4					; size = 4
_value$558487 = 8					; size = 4
_pChar$ = 8						; size = 4
_value$558474 = 11					; size = 1
?OnSkillStart@ioCircleMoveAttackSkill@@UAE_NPAVioBaseChar@@@Z PROC ; ioCircleMoveAttackSkill::OnSkillStart, COMDAT
; _this$ = ecx

; 224  : {	

  00000	55		 push	 ebp
  00001	8b ec		 mov	 ebp, esp
  00003	51		 push	 ecx
  00004	56		 push	 esi
  00005	8b f1		 mov	 esi, ecx

; 225  : 	if( !HasSkillMotion() )

  00007	8b 06		 mov	 eax, DWORD PTR [esi]
  00009	ff 90 24 01 00
	00		 call	 DWORD PTR [eax+292]
  0000f	84 c0		 test	 al, al
  00011	0f 84 43 01 00
	00		 je	 $LN7@OnSkillSta
$LN6@OnSkillSta:

; 226  : 		return false;
; 227  : 
; 228  : 	m_dwFireStartTime = 0;
; 229  : 	m_fCharMoveSpeed = 0.0f;

  00017	0f 57 c0	 xorps	 xmm0, xmm0
  0001a	53		 push	 ebx
  0001b	33 db		 xor	 ebx, ebx
  0001d	57		 push	 edi

; 230  : 	m_fCurCharMoveSpeed = 0.0f;
; 231  : 
; 232  : 	m_dwEnableSwitchTime = 0;
; 233  : 	m_dwEnableSemiSwitchTime = 0;
; 234  : 
; 235  : 	m_dwWaitStartTime = 0;
; 236  : 	m_bTargetRot = false;
; 237  : 
; 238  : 	m_fCurChargeRate = 0.0f;

  0001e	8d 45 fc	 lea	 eax, DWORD PTR _value$558465[ebp]
  00021	50		 push	 eax
  00022	8d 8e a4 09 00
	00		 lea	 ecx, DWORD PTR [esi+2468]
  00028	89 9e 88 0f 00
	00		 mov	 DWORD PTR [esi+3976], ebx
  0002e	f3 0f 11 86 48
	10 00 00	 movss	 DWORD PTR [esi+4168], xmm0
  00036	f3 0f 11 86 4c
	10 00 00	 movss	 DWORD PTR [esi+4172], xmm0
  0003e	89 9e 5c 03 00
	00		 mov	 DWORD PTR [esi+860], ebx
  00044	89 9e 64 03 00
	00		 mov	 DWORD PTR [esi+868], ebx
  0004a	89 9e 10 11 00
	00		 mov	 DWORD PTR [esi+4368], ebx
  00050	88 9e 1c 11 00
	00		 mov	 BYTE PTR [esi+4380], bl
  00056	f3 0f 11 45 fc	 movss	 DWORD PTR _value$558465[ebp], xmm0
  0005b	e8 00 00 00 00	 call	 ?EncryptValueToPool@?$CEncrypt@M@@AAEXPBD@Z ; CEncrypt<float>::EncryptValueToPool

; 239  : 
; 240  : 	if( m_dwSwitchSkill > 0 )

  00060	8b 3d 00 00 00
	00		 mov	 edi, DWORD PTR __imp_?GetSingleton@ioFrameTimer@@SAAAV1@XZ
  00066	39 9e 58 03 00
	00		 cmp	 DWORD PTR [esi+856], ebx
  0006c	76 16		 jbe	 SHORT $LN5@OnSkillSta

; 241  : 		m_dwEnableSwitchTime = FRAMEGETTIME() + m_dwSwitchSkill;

  0006e	ff d7		 call	 edi
  00070	8b c8		 mov	 ecx, eax
  00072	ff 15 00 00 00
	00		 call	 DWORD PTR __imp_?GetLoopSec@ioFrameTimer@@QBEKXZ
  00078	03 86 58 03 00
	00		 add	 eax, DWORD PTR [esi+856]
  0007e	89 86 5c 03 00
	00		 mov	 DWORD PTR [esi+860], eax
$LN5@OnSkillSta:

; 242  : 	if( m_dwSemiSwitchSkill > 0 )

  00084	39 9e 60 03 00
	00		 cmp	 DWORD PTR [esi+864], ebx
  0008a	76 16		 jbe	 SHORT $LN4@OnSkillSta

; 243  : 		m_dwEnableSemiSwitchTime = FRAMEGETTIME() + m_dwSemiSwitchSkill;

  0008c	ff d7		 call	 edi
  0008e	8b c8		 mov	 ecx, eax
  00090	ff 15 00 00 00
	00		 call	 DWORD PTR __imp_?GetLoopSec@ioFrameTimer@@QBEKXZ
  00096	03 86 60 03 00
	00		 add	 eax, DWORD PTR [esi+864]
  0009c	89 86 64 03 00
	00		 mov	 DWORD PTR [esi+868], eax
$LN4@OnSkillSta:

; 244  : 
; 245  : 	m_dwSkillStartTime = FRAMEGETTIME();

  000a2	ff d7		 call	 edi
  000a4	8b c8		 mov	 ecx, eax
  000a6	ff 15 00 00 00
	00		 call	 DWORD PTR __imp_?GetLoopSec@ioFrameTimer@@QBEKXZ
  000ac	89 45 fc	 mov	 DWORD PTR _value$558469[ebp], eax
  000af	8d 45 fc	 lea	 eax, DWORD PTR _value$558469[ebp]
  000b2	50		 push	 eax
  000b3	8d 8e 94 0e 00
	00		 lea	 ecx, DWORD PTR [esi+3732]
  000b9	e8 00 00 00 00	 call	 ?EncryptValueToPool@?$CEncrypt@K@@AAEXPBD@Z ; CEncrypt<unsigned long>::EncryptValueToPool

; 246  : 
; 247  : 	pChar->AttachEffect( m_SkillEffectName );

  000be	8b 7d 08	 mov	 edi, DWORD PTR _pChar$[ebp]
  000c1	6a 01		 push	 1
  000c3	53		 push	 ebx
  000c4	8d 86 b8 01 00
	00		 lea	 eax, DWORD PTR [esi+440]
  000ca	50		 push	 eax
  000cb	8b cf		 mov	 ecx, edi
  000cd	e8 00 00 00 00	 call	 ?AttachEffect@ioBaseChar@@QAEPAVioEffect@@ABVioHashString@@PAVioEntityEvent@@_N@Z ; ioBaseChar::AttachEffect

; 248  : 
; 249  : 	//    
; 250  : 	if( m_bUseItemMesh )

  000d2	38 9e 08 0f 00
	00		 cmp	 BYTE PTR [esi+3848], bl
  000d8	74 09		 je	 SHORT $LN3@OnSkillSta

; 251  : 	{
; 252  : 		pChar->ShowWeaponItemMesh( false );

  000da	53		 push	 ebx
  000db	53		 push	 ebx
  000dc	8b cf		 mov	 ecx, edi
  000de	e8 00 00 00 00	 call	 ?ShowWeaponItemMesh@ioBaseChar@@QAEX_N0@Z ; ioBaseChar::ShowWeaponItemMesh
$LN3@OnSkillSta:

; 253  : 	}
; 254  : 
; 255  : 	if( !StartPreDelayAnimation( pChar ) )	// Delay Animation 

  000e3	8b 06		 mov	 eax, DWORD PTR [esi]
  000e5	57		 push	 edi
  000e6	8b ce		 mov	 ecx, esi
  000e8	ff 90 88 01 00
	00		 call	 DWORD PTR [eax+392]
  000ee	84 c0		 test	 al, al
  000f0	74 66		 je	 SHORT $LN21@OnSkillSta
$LN2@OnSkillSta:

; 256  : 		return false;
; 257  : 
; 258  : 	m_dwWeaponBaseIndex = pChar->IncreaseWeaponIndexBase();

  000f2	8b cf		 mov	 ecx, edi
  000f4	e8 00 00 00 00	 call	 ?IncreaseWeaponIndexBase@ioBaseChar@@QAEKXZ ; ioBaseChar::IncreaseWeaponIndexBase

; 259  : 
; 260  : 	pChar->SetSkillProtection();

  000f9	8b cf		 mov	 ecx, edi
  000fb	89 46 78	 mov	 DWORD PTR [esi+120], eax
  000fe	e8 00 00 00 00	 call	 ?SetSkillProtection@ioBaseChar@@QAEXXZ ; ioBaseChar::SetSkillProtection

; 261  : 
; 262  : 	SetWaitState( pChar );

  00103	57		 push	 edi
  00104	8b ce		 mov	 ecx, esi
  00106	e8 00 00 00 00	 call	 ?SetWaitState@ioCircleMoveAttackSkill@@IAEXPAVioBaseChar@@@Z ; ioCircleMoveAttackSkill::SetWaitState

; 263  : 
; 264  : 	SetCameraBuff( pChar );

  0010b	57		 push	 edi
  0010c	8b ce		 mov	 ecx, esi
  0010e	e8 00 00 00 00	 call	 ?SetCameraBuff@ioSkill@@IAEXPAVioBaseChar@@@Z ; ioSkill::SetCameraBuff

; 265  : 
; 266  : 	CheckSkillDesc( pChar );

  00113	57		 push	 edi
  00114	8b ce		 mov	 ecx, esi
  00116	e8 00 00 00 00	 call	 ?CheckSkillDesc@ioSkill@@IAEXPAVioBaseChar@@@Z ; ioSkill::CheckSkillDesc

; 267  : 
; 268  : 	if( m_bInitJumpPower )

  0011b	8d 45 0b	 lea	 eax, DWORD PTR _value$558474[ebp]
  0011e	50		 push	 eax
  0011f	8d 8e f4 05 00
	00		 lea	 ecx, DWORD PTR [esi+1524]
  00125	e8 00 00 00 00	 call	 ?DecryptValueToPool@?$CEncrypt@_N@@QAEXPA_N@Z ; CEncrypt<bool>::DecryptValueToPool
  0012a	38 5d 0b	 cmp	 BYTE PTR _value$558474[ebp], bl
  0012d	74 1f		 je	 SHORT $LN19@OnSkillSta

; 269  : 	{
; 270  : 		pChar->SetCurJumpPowerAmt( 0.0f );

  0012f	0f 57 c0	 xorps	 xmm0, xmm0

; 271  : 		pChar->SetGravityAmt( 0.0f );

  00132	8d 45 08	 lea	 eax, DWORD PTR _value$558487[ebp]
  00135	50		 push	 eax
  00136	8d 8f e8 0b 00
	00		 lea	 ecx, DWORD PTR [edi+3048]
  0013c	f3 0f 11 87 90
	0e 00 00	 movss	 DWORD PTR [edi+3728], xmm0
  00144	f3 0f 11 45 08	 movss	 DWORD PTR _value$558487[ebp], xmm0
  00149	e8 00 00 00 00	 call	 ?EncryptValueToPool@?$CEncrypt@M@@AAEXPBD@Z ; CEncrypt<float>::EncryptValueToPool
$LN19@OnSkillSta:

; 272  : 	}
; 273  : 
; 274  : 	SetSkillNameChatBubble( pChar );

  0014e	57		 push	 edi
  0014f	8b ce		 mov	 ecx, esi
  00151	e8 00 00 00 00	 call	 ?SetSkillNameChatBubble@ioSkill@@IAEXPAVioBaseChar@@@Z ; ioSkill::SetSkillNameChatBubble

; 275  : 
; 276  : 	return true;

  00156	b0 01		 mov	 al, 1
$LN21@OnSkillSta:
  00158	5f		 pop	 edi
  00159	5b		 pop	 ebx
$LN7@OnSkillSta:
  0015a	5e		 pop	 esi

; 277  : }

  0015b	c9		 leave
  0015c	c2 04 00	 ret	 4
?OnSkillStart@ioCircleMoveAttackSkill@@UAE_NPAVioBaseChar@@@Z ENDP ; ioCircleMoveAttackSkill::OnSkillStart
_TEXT	ENDS
PUBLIC	__$ArrayPad$
PUBLIC	?ProcessAction@ioCircleMoveAttackSkill@@IAEXPAVioBaseChar@@@Z ; ioCircleMoveAttackSkill::ProcessAction
EXTRN	?SkillFireExplicit@ioBaseChar@@QAEPAVioWeapon@@ABUWeaponInfo@@ABVioHashString@@KABUD3DXVECTOR3@@2@Z:PROC ; ioBaseChar::SkillFireExplicit
EXTRN	?GetMidPositionByRate@ioGameEntity@@QBE?AUD3DXVECTOR3@@M@Z:PROC ; ioGameEntity::GetMidPositionByRate
; Function compile flags: /Ogsp
;	COMDAT ?ProcessAction@ioCircleMoveAttackSkill@@IAEXPAVioBaseChar@@@Z
_TEXT	SEGMENT
tv265 = -20						; size = 4
tv261 = -20						; size = 4
tv257 = -20						; size = 4
_value$558496 = -20					; size = 4
_vPos$550995 = -16					; size = 12
__$ArrayPad$ = -4					; size = 4
_pChar$ = 8						; size = 4
?ProcessAction@ioCircleMoveAttackSkill@@IAEXPAVioBaseChar@@@Z PROC ; ioCircleMoveAttackSkill::ProcessAction, COMDAT
; _this$ = ecx

; 851  : {

  00000	55		 push	 ebp
  00001	8b ec		 mov	 ebp, esp
  00003	83 ec 14	 sub	 esp, 20			; 00000014H
  00006	a1 00 00 00 00	 mov	 eax, DWORD PTR ___security_cookie
  0000b	33 c5		 xor	 eax, ebp
  0000d	89 45 fc	 mov	 DWORD PTR __$ArrayPad$[ebp], eax
  00010	56		 push	 esi
  00011	57		 push	 edi
  00012	8b 7d 08	 mov	 edi, DWORD PTR _pChar$[ebp]
  00015	8b f1		 mov	 esi, ecx

; 852  : 	if( !pChar ) return;

  00017	85 ff		 test	 edi, edi
  00019	0f 84 c0 00 00
	00		 je	 $LN1@ProcessAct

; 853  : 	if( m_State != SS_ACTION ) return;

  0001f	8d 45 ec	 lea	 eax, DWORD PTR _value$558496[ebp]
  00022	50		 push	 eax
  00023	8d 8e 58 0f 00
	00		 lea	 ecx, DWORD PTR [esi+3928]
  00029	e8 00 00 00 00	 call	 ?DecryptValueToPool@?$CEncrypt@H@@QAEXPAH@Z ; CEncrypt<int>::DecryptValueToPool
  0002e	83 7d ec 02	 cmp	 DWORD PTR _value$558496[ebp], 2
  00032	0f 85 a7 00 00
	00		 jne	 $LN1@ProcessAct

; 854  : 	if( m_dwFireStartTime == 0 ) return;

  00038	83 be 88 0f 00
	00 00		 cmp	 DWORD PTR [esi+3976], 0
  0003f	0f 84 9a 00 00
	00		 je	 $LN1@ProcessAct

; 855  : 
; 856  : 	DWORD dwCurTime = FRAMEGETTIME();

  00045	53		 push	 ebx
  00046	8b 1d 00 00 00
	00		 mov	 ebx, DWORD PTR __imp_?GetSingleton@ioFrameTimer@@SAAAV1@XZ
  0004c	ff d3		 call	 ebx
  0004e	8b c8		 mov	 ecx, eax
  00050	ff 15 00 00 00
	00		 call	 DWORD PTR __imp_?GetLoopSec@ioFrameTimer@@QBEKXZ

; 857  : 	if( m_dwFireStartTime < FRAMEGETTIME() && !m_AttackAttribute.m_vWeaponInfoList.empty() )

  00056	ff d3		 call	 ebx
  00058	8b c8		 mov	 ecx, eax
  0005a	ff 15 00 00 00
	00		 call	 DWORD PTR __imp_?GetLoopSec@ioFrameTimer@@QBEKXZ
  00060	5b		 pop	 ebx
  00061	39 86 88 0f 00
	00		 cmp	 DWORD PTR [esi+3976], eax
  00067	73 76		 jae	 SHORT $LN1@ProcessAct
  00069	8b 86 b4 0f 00
	00		 mov	 eax, DWORD PTR [esi+4020]
  0006f	3b 86 b8 0f 00
	00		 cmp	 eax, DWORD PTR [esi+4024]
  00075	74 68		 je	 SHORT $LN1@ProcessAct

; 858  : 	{
; 859  : 		D3DXVECTOR3 vPos = pChar->GetMidPositionByRate();

  00077	b8 05 00 00 00	 mov	 eax, 5
  0007c	8b c8		 mov	 ecx, eax
  0007e	b8 0a 00 00 00	 mov	 eax, 10			; 0000000aH
  00083	89 4d ec	 mov	 DWORD PTR tv265[ebp], ecx
  00086	db 45 ec	 fild	 DWORD PTR tv265[ebp]
  00089	85 c9		 test	 ecx, ecx
  0008b	79 06		 jns	 SHORT $LN31@ProcessAct
  0008d	d8 05 00 00 00
	00		 fadd	 DWORD PTR __real@4f800000
$LN31@ProcessAct:
  00093	89 45 ec	 mov	 DWORD PTR tv261[ebp], eax
  00096	db 45 ec	 fild	 DWORD PTR tv261[ebp]
  00099	85 c0		 test	 eax, eax
  0009b	79 06		 jns	 SHORT $LN32@ProcessAct
  0009d	d8 05 00 00 00
	00		 fadd	 DWORD PTR __real@4f800000
$LN32@ProcessAct:
  000a3	de f9		 fdivp	 ST(1), ST(0)
  000a5	51		 push	 ecx
  000a6	8d 45 f0	 lea	 eax, DWORD PTR _vPos$550995[ebp]
  000a9	8b cf		 mov	 ecx, edi
  000ab	d9 5d ec	 fstp	 DWORD PTR tv257[ebp]
  000ae	d9 45 ec	 fld	 DWORD PTR tv257[ebp]
  000b1	d9 1c 24	 fstp	 DWORD PTR [esp]
  000b4	50		 push	 eax
  000b5	e8 00 00 00 00	 call	 ?GetMidPositionByRate@ioGameEntity@@QBE?AUD3DXVECTOR3@@M@Z ; ioGameEntity::GetMidPositionByRate

; 860  : 		pChar->SkillFireExplicit( m_AttackAttribute.m_vWeaponInfoList.front(),
; 861  : 								  GetName(),
; 862  : 								  m_dwWeaponBaseIndex,
; 863  : 								  vPos );

  000ba	ff 35 00 00 00
	00		 push	 DWORD PTR __imp_?VEC3_ZERO@ioMath@@2UD3DXVECTOR3@@A
  000c0	8d 45 f0	 lea	 eax, DWORD PTR _vPos$550995[ebp]
  000c3	50		 push	 eax
  000c4	ff 76 78	 push	 DWORD PTR [esi+120]
  000c7	8d 46 24	 lea	 eax, DWORD PTR [esi+36]
  000ca	50		 push	 eax
  000cb	ff b6 b4 0f 00
	00		 push	 DWORD PTR [esi+4020]
  000d1	8b cf		 mov	 ecx, edi
  000d3	e8 00 00 00 00	 call	 ?SkillFireExplicit@ioBaseChar@@QAEPAVioWeapon@@ABUWeaponInfo@@ABVioHashString@@KABUD3DXVECTOR3@@2@Z ; ioBaseChar::SkillFireExplicit

; 864  : 
; 865  : 		m_dwFireStartTime = 0;

  000d8	83 a6 88 0f 00
	00 00		 and	 DWORD PTR [esi+3976], 0
$LN1@ProcessAct:

; 866  : 
; 867  : 	}
; 868  : }

  000df	8b 4d fc	 mov	 ecx, DWORD PTR __$ArrayPad$[ebp]
  000e2	5f		 pop	 edi
  000e3	33 cd		 xor	 ecx, ebp
  000e5	5e		 pop	 esi
  000e6	e8 00 00 00 00	 call	 @__security_check_cookie@4
  000eb	c9		 leave
  000ec	c2 04 00	 ret	 4
?ProcessAction@ioCircleMoveAttackSkill@@IAEXPAVioBaseChar@@@Z ENDP ; ioCircleMoveAttackSkill::ProcessAction
_TEXT	ENDS
PUBLIC	__$ArrayPad$
PUBLIC	?ProcessEnd@ioCircleMoveAttackSkill@@IAEXPAVioBaseChar@@@Z ; ioCircleMoveAttackSkill::ProcessEnd
; Function compile flags: /Ogsp
;	COMDAT ?ProcessEnd@ioCircleMoveAttackSkill@@IAEXPAVioBaseChar@@@Z
_TEXT	SEGMENT
tv243 = -20						; size = 4
tv239 = -20						; size = 4
tv235 = -20						; size = 4
_value$558573 = -20					; size = 4
_vPos$551007 = -16					; size = 12
__$ArrayPad$ = -4					; size = 4
_pChar$ = 8						; size = 4
?ProcessEnd@ioCircleMoveAttackSkill@@IAEXPAVioBaseChar@@@Z PROC ; ioCircleMoveAttackSkill::ProcessEnd, COMDAT
; _this$ = ecx

; 871  : {

  00000	55		 push	 ebp
  00001	8b ec		 mov	 ebp, esp
  00003	83 ec 14	 sub	 esp, 20			; 00000014H
  00006	a1 00 00 00 00	 mov	 eax, DWORD PTR ___security_cookie
  0000b	33 c5		 xor	 eax, ebp
  0000d	89 45 fc	 mov	 DWORD PTR __$ArrayPad$[ebp], eax
  00010	56		 push	 esi
  00011	57		 push	 edi
  00012	8b 7d 08	 mov	 edi, DWORD PTR _pChar$[ebp]
  00015	8b f1		 mov	 esi, ecx

; 872  : 	if( !pChar ) return;

  00017	85 ff		 test	 edi, edi
  00019	0f 84 b2 00 00
	00		 je	 $LN1@ProcessEnd

; 873  : 	if( m_State != SS_END ) return;

  0001f	8d 45 ec	 lea	 eax, DWORD PTR _value$558573[ebp]
  00022	50		 push	 eax
  00023	8d 8e 58 0f 00
	00		 lea	 ecx, DWORD PTR [esi+3928]
  00029	e8 00 00 00 00	 call	 ?DecryptValueToPool@?$CEncrypt@H@@QAEXPAH@Z ; CEncrypt<int>::DecryptValueToPool
  0002e	83 7d ec 03	 cmp	 DWORD PTR _value$558573[ebp], 3
  00032	0f 85 99 00 00
	00		 jne	 $LN1@ProcessEnd

; 874  : 	if( m_dwFireStartTime == 0 ) return;

  00038	83 be 88 0f 00
	00 00		 cmp	 DWORD PTR [esi+3976], 0
  0003f	0f 84 8c 00 00
	00		 je	 $LN1@ProcessEnd

; 875  : 
; 876  : 	DWORD dwCurTime = FRAMEGETTIME();

  00045	53		 push	 ebx
  00046	8b 1d 00 00 00
	00		 mov	 ebx, DWORD PTR __imp_?GetSingleton@ioFrameTimer@@SAAAV1@XZ
  0004c	ff d3		 call	 ebx
  0004e	8b c8		 mov	 ecx, eax
  00050	ff 15 00 00 00
	00		 call	 DWORD PTR __imp_?GetLoopSec@ioFrameTimer@@QBEKXZ

; 877  : 	if( m_dwFireStartTime < FRAMEGETTIME() )

  00056	ff d3		 call	 ebx
  00058	8b c8		 mov	 ecx, eax
  0005a	ff 15 00 00 00
	00		 call	 DWORD PTR __imp_?GetLoopSec@ioFrameTimer@@QBEKXZ
  00060	5b		 pop	 ebx
  00061	39 86 88 0f 00
	00		 cmp	 DWORD PTR [esi+3976], eax
  00067	73 68		 jae	 SHORT $LN1@ProcessEnd

; 878  : 	{
; 879  : 		D3DXVECTOR3 vPos = pChar->GetMidPositionByRate();

  00069	b8 05 00 00 00	 mov	 eax, 5
  0006e	8b c8		 mov	 ecx, eax
  00070	b8 0a 00 00 00	 mov	 eax, 10			; 0000000aH
  00075	89 4d ec	 mov	 DWORD PTR tv243[ebp], ecx
  00078	db 45 ec	 fild	 DWORD PTR tv243[ebp]
  0007b	85 c9		 test	 ecx, ecx
  0007d	79 06		 jns	 SHORT $LN29@ProcessEnd
  0007f	d8 05 00 00 00
	00		 fadd	 DWORD PTR __real@4f800000
$LN29@ProcessEnd:
  00085	89 45 ec	 mov	 DWORD PTR tv239[ebp], eax
  00088	db 45 ec	 fild	 DWORD PTR tv239[ebp]
  0008b	85 c0		 test	 eax, eax
  0008d	79 06		 jns	 SHORT $LN30@ProcessEnd
  0008f	d8 05 00 00 00
	00		 fadd	 DWORD PTR __real@4f800000
$LN30@ProcessEnd:
  00095	de f9		 fdivp	 ST(1), ST(0)
  00097	51		 push	 ecx
  00098	8d 45 f0	 lea	 eax, DWORD PTR _vPos$551007[ebp]
  0009b	8b cf		 mov	 ecx, edi
  0009d	d9 5d ec	 fstp	 DWORD PTR tv235[ebp]
  000a0	d9 45 ec	 fld	 DWORD PTR tv235[ebp]
  000a3	d9 1c 24	 fstp	 DWORD PTR [esp]
  000a6	50		 push	 eax
  000a7	e8 00 00 00 00	 call	 ?GetMidPositionByRate@ioGameEntity@@QBE?AUD3DXVECTOR3@@M@Z ; ioGameEntity::GetMidPositionByRate

; 880  : 		pChar->SkillFireExplicit( m_LandAttackAttribute.m_vWeaponInfoList.front(),
; 881  : 								  GetName(),
; 882  : 								  m_dwWeaponBaseIndex,
; 883  : 								  vPos );

  000ac	ff 35 00 00 00
	00		 push	 DWORD PTR __imp_?VEC3_ZERO@ioMath@@2UD3DXVECTOR3@@A
  000b2	8d 45 f0	 lea	 eax, DWORD PTR _vPos$551007[ebp]
  000b5	50		 push	 eax
  000b6	ff 76 78	 push	 DWORD PTR [esi+120]
  000b9	8d 46 24	 lea	 eax, DWORD PTR [esi+36]
  000bc	50		 push	 eax
  000bd	ff b6 04 10 00
	00		 push	 DWORD PTR [esi+4100]
  000c3	8b cf		 mov	 ecx, edi
  000c5	e8 00 00 00 00	 call	 ?SkillFireExplicit@ioBaseChar@@QAEPAVioWeapon@@ABUWeaponInfo@@ABVioHashString@@KABUD3DXVECTOR3@@2@Z ; ioBaseChar::SkillFireExplicit

; 884  : 
; 885  : 		m_dwFireStartTime = 0;

  000ca	83 a6 88 0f 00
	00 00		 and	 DWORD PTR [esi+3976], 0
$LN1@ProcessEnd:

; 886  : 
; 887  : 	}
; 888  : }

  000d1	8b 4d fc	 mov	 ecx, DWORD PTR __$ArrayPad$[ebp]
  000d4	5f		 pop	 edi
  000d5	33 cd		 xor	 ecx, ebp
  000d7	5e		 pop	 esi
  000d8	e8 00 00 00 00	 call	 @__security_check_cookie@4
  000dd	c9		 leave
  000de	c2 04 00	 ret	 4
?ProcessEnd@ioCircleMoveAttackSkill@@IAEXPAVioBaseChar@@@Z ENDP ; ioCircleMoveAttackSkill::ProcessEnd
_TEXT	ENDS
PUBLIC	??$_Uninitialized_copy@V?$_Vector_const_iterator@V?$_Vector_val@UForceInfo@@V?$allocator@UForceInfo@@@std@@@std@@@std@@PAUForceInfo@@V?$allocator@UForceInfo@@@2@@std@@YAPAUForceInfo@@V?$_Vector_const_iterator@V?$_Vector_val@UForceInfo@@V?$allocator@UForceInfo@@@std@@@std@@@0@0PAU1@AAV?$allocator@UForceInfo@@@0@@Z ; std::_Uninitialized_copy<std::_Vector_const_iterator<std::_Vector_val<ForceInfo,std::allocator<ForceInfo> > >,ForceInfo *,std::allocator<ForceInfo> >
; Function compile flags: /Ogsp
; File c:\program files (x86)\microsoft visual studio 10.0\vc\include\memory
;	COMDAT ??$_Uninitialized_copy@V?$_Vector_const_iterator@V?$_Vector_val@UForceInfo@@V?$allocator@UForceInfo@@@std@@@std@@@std@@PAUForceInfo@@V?$allocator@UForceInfo@@@2@@std@@YAPAUForceInfo@@V?$_Vector_const_iterator@V?$_Vector_val@UForceInfo@@V?$allocator@UForceInfo@@@std@@@std@@@0@0PAU1@AAV?$allocator@UForceInfo@@@0@@Z
_TEXT	SEGMENT
__Cat$558646 = -4					; size = 1
__First$ = 8						; size = 4
__Last$ = 12						; size = 4
__Dest$ = 16						; size = 4
__Al$ = 20						; size = 4
??$_Uninitialized_copy@V?$_Vector_const_iterator@V?$_Vector_val@UForceInfo@@V?$allocator@UForceInfo@@@std@@@std@@@std@@PAUForceInfo@@V?$allocator@UForceInfo@@@2@@std@@YAPAUForceInfo@@V?$_Vector_const_iterator@V?$_Vector_val@UForceInfo@@V?$allocator@UForceInfo@@@std@@@std@@@0@0PAU1@AAV?$allocator@UForceInfo@@@0@@Z PROC ; std::_Uninitialized_copy<std::_Vector_const_iterator<std::_Vector_val<ForceInfo,std::allocator<ForceInfo> > >,ForceInfo *,std::allocator<ForceInfo> >, COMDAT

; 412  : 	{	// copy [_First, _Last) to raw _Dest, using _Al

  00000	55		 push	 ebp
  00001	8b ec		 mov	 ebp, esp
  00003	51		 push	 ecx

; 413  : 	return (_Uninit_copy(_First, _Last, _Dest, _Al,
; 414  : 		_Ptr_cat(_First, _Dest)));

  00004	ff 75 fc	 push	 DWORD PTR __Cat$558646[ebp]
  00007	ff 75 14	 push	 DWORD PTR __Al$[ebp]
  0000a	ff 75 10	 push	 DWORD PTR __Dest$[ebp]
  0000d	ff 75 0c	 push	 DWORD PTR __Last$[ebp]
  00010	ff 75 08	 push	 DWORD PTR __First$[ebp]
  00013	e8 00 00 00 00	 call	 ??$_Uninit_copy@V?$_Vector_const_iterator@V?$_Vector_val@UForceInfo@@V?$allocator@UForceInfo@@@std@@@std@@@std@@PAUForceInfo@@V?$allocator@UForceInfo@@@2@@std@@YAPAUForceInfo@@V?$_Vector_const_iterator@V?$_Vector_val@UForceInfo@@V?$allocator@UForceInfo@@@std@@@std@@@0@0PAU1@AAV?$allocator@UForceInfo@@@0@U_Nonscalar_ptr_iterator_tag@0@@Z ; std::_Uninit_copy<std::_Vector_const_iterator<std::_Vector_val<ForceInfo,std::allocator<ForceInfo> > >,ForceInfo *,std::allocator<ForceInfo> >
  00018	83 c4 14	 add	 esp, 20			; 00000014H

; 415  : 	}

  0001b	c9		 leave
  0001c	c3		 ret	 0
??$_Uninitialized_copy@V?$_Vector_const_iterator@V?$_Vector_val@UForceInfo@@V?$allocator@UForceInfo@@@std@@@std@@@std@@PAUForceInfo@@V?$allocator@UForceInfo@@@2@@std@@YAPAUForceInfo@@V?$_Vector_const_iterator@V?$_Vector_val@UForceInfo@@V?$allocator@UForceInfo@@@std@@@std@@@0@0PAU1@AAV?$allocator@UForceInfo@@@0@@Z ENDP ; std::_Uninitialized_copy<std::_Vector_const_iterator<std::_Vector_val<ForceInfo,std::allocator<ForceInfo> > >,ForceInfo *,std::allocator<ForceInfo> >
_TEXT	ENDS
PUBLIC	??$_Uninitialized_move@PAUForceInfo@@PAU1@V?$allocator@UForceInfo@@@std@@@std@@YAPAUForceInfo@@PAU1@00AAV?$allocator@UForceInfo@@@0@@Z ; std::_Uninitialized_move<ForceInfo *,ForceInfo *,std::allocator<ForceInfo> >
; Function compile flags: /Ogsp
;	COMDAT ??$_Uninitialized_move@PAUForceInfo@@PAU1@V?$allocator@UForceInfo@@@std@@@std@@YAPAUForceInfo@@PAU1@00AAV?$allocator@UForceInfo@@@0@@Z
_TEXT	SEGMENT
__Cat$558653 = -4					; size = 1
__First$ = 8						; size = 4
__Last$ = 12						; size = 4
__Dest$ = 16						; size = 4
__Al$ = 20						; size = 4
??$_Uninitialized_move@PAUForceInfo@@PAU1@V?$allocator@UForceInfo@@@std@@@std@@YAPAUForceInfo@@PAU1@00AAV?$allocator@UForceInfo@@@0@@Z PROC ; std::_Uninitialized_move<ForceInfo *,ForceInfo *,std::allocator<ForceInfo> >, COMDAT

; 469  : 	{	// move [_First, _Last) to raw _Dest, using _Al

  00000	55		 push	 ebp
  00001	8b ec		 mov	 ebp, esp
  00003	51		 push	 ecx

; 470  : 	return (_Uninit_move(_First, _Last, _Dest, _Al,
; 471  : 		_Val_type(_First), _Ptr_cat(_First, _Dest)));

  00004	ff 75 fc	 push	 DWORD PTR __Cat$558653[ebp]
  00007	6a 00		 push	 0
  00009	ff 75 14	 push	 DWORD PTR __Al$[ebp]
  0000c	ff 75 10	 push	 DWORD PTR __Dest$[ebp]
  0000f	ff 75 0c	 push	 DWORD PTR __Last$[ebp]
  00012	ff 75 08	 push	 DWORD PTR __First$[ebp]
  00015	e8 00 00 00 00	 call	 ??$_Uninit_move@PAUForceInfo@@PAU1@V?$allocator@UForceInfo@@@std@@U1@@std@@YAPAUForceInfo@@PAU1@00AAV?$allocator@UForceInfo@@@0@0U_Nonscalar_ptr_iterator_tag@0@@Z ; std::_Uninit_move<ForceInfo *,ForceInfo *,std::allocator<ForceInfo>,ForceInfo>
  0001a	83 c4 18	 add	 esp, 24			; 00000018H

; 472  : 	}

  0001d	c9		 leave
  0001e	c3		 ret	 0
??$_Uninitialized_move@PAUForceInfo@@PAU1@V?$allocator@UForceInfo@@@std@@@std@@YAPAUForceInfo@@PAU1@00AAV?$allocator@UForceInfo@@@0@@Z ENDP ; std::_Uninitialized_move<ForceInfo *,ForceInfo *,std::allocator<ForceInfo> >
_TEXT	ENDS
PUBLIC	??$_Uninit_copy@V?$_Vector_const_iterator@V?$_Vector_val@UWeaponInfo@@V?$allocator@UWeaponInfo@@@std@@@std@@@std@@PAUWeaponInfo@@V?$allocator@UWeaponInfo@@@2@@std@@YAPAUWeaponInfo@@V?$_Vector_const_iterator@V?$_Vector_val@UWeaponInfo@@V?$allocator@UWeaponInfo@@@std@@@std@@@0@0PAU1@AAV?$allocator@UWeaponInfo@@@0@U_Nonscalar_ptr_iterator_tag@0@@Z ; std::_Uninit_copy<std::_Vector_const_iterator<std::_Vector_val<WeaponInfo,std::allocator<WeaponInfo> > >,WeaponInfo *,std::allocator<WeaponInfo> >
EXTRN	__EH_prolog3_catch:PROC
;	COMDAT xdata$x
; File d:\lost saga for developer\youtube\tutorial\source\src\lsclient\playentityhelpstruct.h
xdata$x	SEGMENT
__catchsym$??$_Uninit_copy@V?$_Vector_const_iterator@V?$_Vector_val@UWeaponInfo@@V?$allocator@UWeaponInfo@@@std@@@std@@@std@@PAUWeaponInfo@@V?$allocator@UWeaponInfo@@@2@@std@@YAPAUWeaponInfo@@V?$_Vector_const_iterator@V?$_Vector_val@UWeaponInfo@@V?$allocator@UWeaponInfo@@@std@@@std@@@0@0PAU1@AAV?$allocator@UWeaponInfo@@@0@U_Nonscalar_ptr_iterator_tag@0@@Z$3 DD 040H
	DD	00H
	DD	00H
	DD	FLAT:__catch$??$_Uninit_copy@V?$_Vector_const_iterator@V?$_Vector_val@UWeaponInfo@@V?$allocator@UWeaponInfo@@@std@@@std@@@std@@PAUWeaponInfo@@V?$allocator@UWeaponInfo@@@2@@std@@YAPAUWeaponInfo@@V?$_Vector_const_iterator@V?$_Vector_val@UWeaponInfo@@V?$allocator@UWeaponInfo@@@std@@@std@@@0@0PAU1@AAV?$allocator@UWeaponInfo@@@0@U_Nonscalar_ptr_iterator_tag@0@@Z$0
__unwindtable$??$_Uninit_copy@V?$_Vector_const_iterator@V?$_Vector_val@UWeaponInfo@@V?$allocator@UWeaponInfo@@@std@@@std@@@std@@PAUWeaponInfo@@V?$allocator@UWeaponInfo@@@2@@std@@YAPAUWeaponInfo@@V?$_Vector_const_iterator@V?$_Vector_val@UWeaponInfo@@V?$allocator@UWeaponInfo@@@std@@@std@@@0@0PAU1@AAV?$allocator@UWeaponInfo@@@0@U_Nonscalar_ptr_iterator_tag@0@@Z DD 0ffffffffH
	DD	00H
	DD	0ffffffffH
	DD	00H
__tryblocktable$??$_Uninit_copy@V?$_Vector_const_iterator@V?$_Vector_val@UWeaponInfo@@V?$allocator@UWeaponInfo@@@std@@@std@@@std@@PAUWeaponInfo@@V?$allocator@UWeaponInfo@@@2@@std@@YAPAUWeaponInfo@@V?$_Vector_const_iterator@V?$_Vector_val@UWeaponInfo@@V?$allocator@UWeaponInfo@@@std@@@std@@@0@0PAU1@AAV?$allocator@UWeaponInfo@@@0@U_Nonscalar_ptr_iterator_tag@0@@Z DD 00H
	DD	00H
	DD	01H
	DD	01H
	DD	FLAT:__catchsym$??$_Uninit_copy@V?$_Vector_const_iterator@V?$_Vector_val@UWeaponInfo@@V?$allocator@UWeaponInfo@@@std@@@std@@@std@@PAUWeaponInfo@@V?$allocator@UWeaponInfo@@@2@@std@@YAPAUWeaponInfo@@V?$_Vector_const_iterator@V?$_Vector_val@UWeaponInfo@@V?$allocator@UWeaponInfo@@@std@@@std@@@0@0PAU1@AAV?$allocator@UWeaponInfo@@@0@U_Nonscalar_ptr_iterator_tag@0@@Z$3
__ehfuncinfo$??$_Uninit_copy@V?$_Vector_const_iterator@V?$_Vector_val@UWeaponInfo@@V?$allocator@UWeaponInfo@@@std@@@std@@@std@@PAUWeaponInfo@@V?$allocator@UWeaponInfo@@@2@@std@@YAPAUWeaponInfo@@V?$_Vector_const_iterator@V?$_Vector_val@UWeaponInfo@@V?$allocator@UWeaponInfo@@@std@@@std@@@0@0PAU1@AAV?$allocator@UWeaponInfo@@@0@U_Nonscalar_ptr_iterator_tag@0@@Z DD 019930522H
	DD	02H
	DD	FLAT:__unwindtable$??$_Uninit_copy@V?$_Vector_const_iterator@V?$_Vector_val@UWeaponInfo@@V?$allocator@UWeaponInfo@@@std@@@std@@@std@@PAUWeaponInfo@@V?$allocator@UWeaponInfo@@@2@@std@@YAPAUWeaponInfo@@V?$_Vector_const_iterator@V?$_Vector_val@UWeaponInfo@@V?$allocator@UWeaponInfo@@@std@@@std@@@0@0PAU1@AAV?$allocator@UWeaponInfo@@@0@U_Nonscalar_ptr_iterator_tag@0@@Z
	DD	01H
	DD	FLAT:__tryblocktable$??$_Uninit_copy@V?$_Vector_const_iterator@V?$_Vector_val@UWeaponInfo@@V?$allocator@UWeaponInfo@@@std@@@std@@@std@@PAUWeaponInfo@@V?$allocator@UWeaponInfo@@@2@@std@@YAPAUWeaponInfo@@V?$_Vector_const_iterator@V?$_Vector_val@UWeaponInfo@@V?$allocator@UWeaponInfo@@@std@@@std@@@0@0PAU1@AAV?$allocator@UWeaponInfo@@@0@U_Nonscalar_ptr_iterator_tag@0@@Z
	DD	2 DUP(00H)
	DD	00H
	DD	01H
; Function compile flags: /Ogsp
; File c:\program files (x86)\microsoft visual studio 10.0\vc\include\memory
xdata$x	ENDS
;	COMDAT ??$_Uninit_copy@V?$_Vector_const_iterator@V?$_Vector_val@UWeaponInfo@@V?$allocator@UWeaponInfo@@@std@@@std@@@std@@PAUWeaponInfo@@V?$allocator@UWeaponInfo@@@2@@std@@YAPAUWeaponInfo@@V?$_Vector_const_iterator@V?$_Vector_val@UWeaponInfo@@V?$allocator@UWeaponInfo@@@std@@@std@@@0@0PAU1@AAV?$allocator@UWeaponInfo@@@0@U_Nonscalar_ptr_iterator_tag@0@@Z
_TEXT	SEGMENT
__Next$ = -20						; size = 4
__$EHRec$ = -16						; size = 16
__First$ = 8						; size = 4
__Last$ = 12						; size = 4
__Dest$ = 16						; size = 4
__Al$ = 20						; size = 4
___formal$ = 24						; size = 1
??$_Uninit_copy@V?$_Vector_const_iterator@V?$_Vector_val@UWeaponInfo@@V?$allocator@UWeaponInfo@@@std@@@std@@@std@@PAUWeaponInfo@@V?$allocator@UWeaponInfo@@@2@@std@@YAPAUWeaponInfo@@V?$_Vector_const_iterator@V?$_Vector_val@UWeaponInfo@@V?$allocator@UWeaponInfo@@@std@@@std@@@0@0PAU1@AAV?$allocator@UWeaponInfo@@@0@U_Nonscalar_ptr_iterator_tag@0@@Z PROC ; std::_Uninit_copy<std::_Vector_const_iterator<std::_Vector_val<WeaponInfo,std::allocator<WeaponInfo> > >,WeaponInfo *,std::allocator<WeaponInfo> >, COMDAT

; 369  : 	{	// copy [_First, _Last) to raw _Dest, using _Al, arbitrary type

  00000	6a 08		 push	 8
  00002	b8 00 00 00 00	 mov	 eax, __ehhandler$??$_Uninit_copy@V?$_Vector_const_iterator@V?$_Vector_val@UWeaponInfo@@V?$allocator@UWeaponInfo@@@std@@@std@@@std@@PAUWeaponInfo@@V?$allocator@UWeaponInfo@@@2@@std@@YAPAUWeaponInfo@@V?$_Vector_const_iterator@V?$_Vector_val@UWeaponInfo@@V?$allocator@UWeaponInfo@@@std@@@std@@@0@0PAU1@AAV?$allocator@UWeaponInfo@@@0@U_Nonscalar_ptr_iterator_tag@0@@Z
  00007	e8 00 00 00 00	 call	 __EH_prolog3_catch

; 370  : 	_DEBUG_RANGE(_First, _Last);
; 371  : 	_DEBUG_POINTER(_Dest);
; 372  : 	_FwdIt _Next = _Dest;

  0000c	8b 45 10	 mov	 eax, DWORD PTR __Dest$[ebp]

; 373  : 
; 374  : 	_TRY_BEGIN

  0000f	83 65 fc 00	 and	 DWORD PTR __$EHRec$[ebp+12], 0
  00013	89 45 ec	 mov	 DWORD PTR __Next$[ebp], eax

; 375  : 	for (; _First != _Last; ++_Dest, ++_First)

$LL14@Uninit_cop@2:
  00016	8b 45 08	 mov	 eax, DWORD PTR __First$[ebp]
  00019	3b 45 0c	 cmp	 eax, DWORD PTR __Last$[ebp]
  0001c	74 34		 je	 SHORT $LN4@Uninit_cop@2

; 376  : 		_Cons_val(_Al, _Dest, *_First);

  0001e	50		 push	 eax
  0001f	ff 75 10	 push	 DWORD PTR __Dest$[ebp]
  00022	e8 00 00 00 00	 call	 ??$_Construct@UWeaponInfo@@ABU1@@std@@YAXPAUWeaponInfo@@ABU1@@Z ; std::_Construct<WeaponInfo,WeaponInfo const &>
  00027	83 45 10 28	 add	 DWORD PTR __Dest$[ebp], 40 ; 00000028H
  0002b	83 45 08 28	 add	 DWORD PTR __First$[ebp], 40 ; 00000028H
  0002f	59		 pop	 ecx
  00030	59		 pop	 ecx
  00031	eb e3		 jmp	 SHORT $LL14@Uninit_cop@2
__catch$??$_Uninit_copy@V?$_Vector_const_iterator@V?$_Vector_val@UWeaponInfo@@V?$allocator@UWeaponInfo@@@std@@@std@@@std@@PAUWeaponInfo@@V?$allocator@UWeaponInfo@@@2@@std@@YAPAUWeaponInfo@@V?$_Vector_const_iterator@V?$_Vector_val@UWeaponInfo@@V?$allocator@UWeaponInfo@@@std@@@std@@@0@0PAU1@AAV?$allocator@UWeaponInfo@@@0@U_Nonscalar_ptr_iterator_tag@0@@Z$0:

; 377  : 	_CATCH_ALL
; 378  : 	for (; _Next != _Dest; ++_Next)

  00033	8b 75 ec	 mov	 esi, DWORD PTR __Next$[ebp]
  00036	eb 0c		 jmp	 SHORT $LN48@Uninit_cop@2
$LL3@Uninit_cop@2:

; 379  : 		_Dest_val(_Al, _Next);

  00038	8d 4e 08	 lea	 ecx, DWORD PTR [esi+8]
  0003b	ff 15 00 00 00
	00		 call	 DWORD PTR __imp_??1ioHashString@@QAE@XZ
  00041	83 c6 28	 add	 esi, 40			; 00000028H
$LN48@Uninit_cop@2:

; 377  : 	_CATCH_ALL
; 378  : 	for (; _Next != _Dest; ++_Next)

  00044	3b 75 10	 cmp	 esi, DWORD PTR __Dest$[ebp]
  00047	75 ef		 jne	 SHORT $LL3@Uninit_cop@2

; 380  : 	_RERAISE;

  00049	6a 00		 push	 0
  0004b	6a 00		 push	 0
  0004d	e8 00 00 00 00	 call	 __CxxThrowException@8
$LN49@Uninit_cop@2:
$LN4@Uninit_cop@2:

; 381  : 	_CATCH_END
; 382  : 	return (_Dest);

  00052	8b 45 10	 mov	 eax, DWORD PTR __Dest$[ebp]

; 383  : 	}

  00055	e8 00 00 00 00	 call	 __EH_epilog3
  0005a	c3		 ret	 0
$LN47@Uninit_cop@2:
_TEXT	ENDS
;	COMDAT text$x
text$x	SEGMENT
__ehhandler$??$_Uninit_copy@V?$_Vector_const_iterator@V?$_Vector_val@UWeaponInfo@@V?$allocator@UWeaponInfo@@@std@@@std@@@std@@PAUWeaponInfo@@V?$allocator@UWeaponInfo@@@2@@std@@YAPAUWeaponInfo@@V?$_Vector_const_iterator@V?$_Vector_val@UWeaponInfo@@V?$allocator@UWeaponInfo@@@std@@@std@@@0@0PAU1@AAV?$allocator@UWeaponInfo@@@0@U_Nonscalar_ptr_iterator_tag@0@@Z:
  00000	8b 54 24 08	 mov	 edx, DWORD PTR [esp+8]
  00004	8d 42 0c	 lea	 eax, DWORD PTR [edx+12]
  00007	8b 4a e8	 mov	 ecx, DWORD PTR [edx-24]
  0000a	33 c8		 xor	 ecx, eax
  0000c	e8 00 00 00 00	 call	 @__security_check_cookie@4
  00011	b8 00 00 00 00	 mov	 eax, OFFSET __ehfuncinfo$??$_Uninit_copy@V?$_Vector_const_iterator@V?$_Vector_val@UWeaponInfo@@V?$allocator@UWeaponInfo@@@std@@@std@@@std@@PAUWeaponInfo@@V?$allocator@UWeaponInfo@@@2@@std@@YAPAUWeaponInfo@@V?$_Vector_const_iterator@V?$_Vector_val@UWeaponInfo@@V?$allocator@UWeaponInfo@@@std@@@std@@@0@0PAU1@AAV?$allocator@UWeaponInfo@@@0@U_Nonscalar_ptr_iterator_tag@0@@Z
  00016	e9 00 00 00 00	 jmp	 ___CxxFrameHandler3
text$x	ENDS
??$_Uninit_copy@V?$_Vector_const_iterator@V?$_Vector_val@UWeaponInfo@@V?$allocator@UWeaponInfo@@@std@@@std@@@std@@PAUWeaponInfo@@V?$allocator@UWeaponInfo@@@2@@std@@YAPAUWeaponInfo@@V?$_Vector_const_iterator@V?$_Vector_val@UWeaponInfo@@V?$allocator@UWeaponInfo@@@std@@@std@@@0@0PAU1@AAV?$allocator@UWeaponInfo@@@0@U_Nonscalar_ptr_iterator_tag@0@@Z ENDP ; std::_Uninit_copy<std::_Vector_const_iterator<std::_Vector_val<WeaponInfo,std::allocator<WeaponInfo> > >,WeaponInfo *,std::allocator<WeaponInfo> >
PUBLIC	??$_Uninit_move@PAUWeaponInfo@@PAU1@V?$allocator@UWeaponInfo@@@std@@U1@@std@@YAPAUWeaponInfo@@PAU1@00AAV?$allocator@UWeaponInfo@@@0@0U_Nonscalar_ptr_iterator_tag@0@@Z ; std::_Uninit_move<WeaponInfo *,WeaponInfo *,std::allocator<WeaponInfo>,WeaponInfo>
;	COMDAT xdata$x
; File d:\lost saga for developer\youtube\tutorial\source\src\lsclient\playentityhelpstruct.h
xdata$x	SEGMENT
__catchsym$??$_Uninit_move@PAUWeaponInfo@@PAU1@V?$allocator@UWeaponInfo@@@std@@U1@@std@@YAPAUWeaponInfo@@PAU1@00AAV?$allocator@UWeaponInfo@@@0@0U_Nonscalar_ptr_iterator_tag@0@@Z$3 DD 040H
	DD	00H
	DD	00H
	DD	FLAT:__catch$??$_Uninit_move@PAUWeaponInfo@@PAU1@V?$allocator@UWeaponInfo@@@std@@U1@@std@@YAPAUWeaponInfo@@PAU1@00AAV?$allocator@UWeaponInfo@@@0@0U_Nonscalar_ptr_iterator_tag@0@@Z$0
__unwindtable$??$_Uninit_move@PAUWeaponInfo@@PAU1@V?$allocator@UWeaponInfo@@@std@@U1@@std@@YAPAUWeaponInfo@@PAU1@00AAV?$allocator@UWeaponInfo@@@0@0U_Nonscalar_ptr_iterator_tag@0@@Z DD 0ffffffffH
	DD	00H
	DD	0ffffffffH
	DD	00H
__tryblocktable$??$_Uninit_move@PAUWeaponInfo@@PAU1@V?$allocator@UWeaponInfo@@@std@@U1@@std@@YAPAUWeaponInfo@@PAU1@00AAV?$allocator@UWeaponInfo@@@0@0U_Nonscalar_ptr_iterator_tag@0@@Z DD 00H
	DD	00H
	DD	01H
	DD	01H
	DD	FLAT:__catchsym$??$_Uninit_move@PAUWeaponInfo@@PAU1@V?$allocator@UWeaponInfo@@@std@@U1@@std@@YAPAUWeaponInfo@@PAU1@00AAV?$allocator@UWeaponInfo@@@0@0U_Nonscalar_ptr_iterator_tag@0@@Z$3
__ehfuncinfo$??$_Uninit_move@PAUWeaponInfo@@PAU1@V?$allocator@UWeaponInfo@@@std@@U1@@std@@YAPAUWeaponInfo@@PAU1@00AAV?$allocator@UWeaponInfo@@@0@0U_Nonscalar_ptr_iterator_tag@0@@Z DD 019930522H
	DD	02H
	DD	FLAT:__unwindtable$??$_Uninit_move@PAUWeaponInfo@@PAU1@V?$allocator@UWeaponInfo@@@std@@U1@@std@@YAPAUWeaponInfo@@PAU1@00AAV?$allocator@UWeaponInfo@@@0@0U_Nonscalar_ptr_iterator_tag@0@@Z
	DD	01H
	DD	FLAT:__tryblocktable$??$_Uninit_move@PAUWeaponInfo@@PAU1@V?$allocator@UWeaponInfo@@@std@@U1@@std@@YAPAUWeaponInfo@@PAU1@00AAV?$allocator@UWeaponInfo@@@0@0U_Nonscalar_ptr_iterator_tag@0@@Z
	DD	2 DUP(00H)
	DD	00H
	DD	01H
; Function compile flags: /Ogsp
; File c:\program files (x86)\microsoft visual studio 10.0\vc\include\memory
xdata$x	ENDS
;	COMDAT ??$_Uninit_move@PAUWeaponInfo@@PAU1@V?$allocator@UWeaponInfo@@@std@@U1@@std@@YAPAUWeaponInfo@@PAU1@00AAV?$allocator@UWeaponInfo@@@0@0U_Nonscalar_ptr_iterator_tag@0@@Z
_TEXT	SEGMENT
__Next$ = -20						; size = 4
__$EHRec$ = -16						; size = 16
__First$ = 8						; size = 4
__Last$ = 12						; size = 4
__Dest$ = 16						; size = 4
__Al$ = 20						; size = 4
___formal$ = 24						; size = 4
___formal$ = 28						; size = 1
??$_Uninit_move@PAUWeaponInfo@@PAU1@V?$allocator@UWeaponInfo@@@std@@U1@@std@@YAPAUWeaponInfo@@PAU1@00AAV?$allocator@UWeaponInfo@@@0@0U_Nonscalar_ptr_iterator_tag@0@@Z PROC ; std::_Uninit_move<WeaponInfo *,WeaponInfo *,std::allocator<WeaponInfo>,WeaponInfo>, COMDAT

; 424  : 	{	// move [_First, _Last) to raw _Dest, using _Al, arbitrary type

  00000	6a 08		 push	 8
  00002	b8 00 00 00 00	 mov	 eax, __ehhandler$??$_Uninit_move@PAUWeaponInfo@@PAU1@V?$allocator@UWeaponInfo@@@std@@U1@@std@@YAPAUWeaponInfo@@PAU1@00AAV?$allocator@UWeaponInfo@@@0@0U_Nonscalar_ptr_iterator_tag@0@@Z
  00007	e8 00 00 00 00	 call	 __EH_prolog3_catch

; 425  : 	_DEBUG_RANGE(_First, _Last);
; 426  : 	_DEBUG_POINTER(_Dest);
; 427  : 	_FwdIt _Next = _Dest;

  0000c	8b 45 10	 mov	 eax, DWORD PTR __Dest$[ebp]

; 428  : 
; 429  : 	_TRY_BEGIN

  0000f	83 65 fc 00	 and	 DWORD PTR __$EHRec$[ebp+12], 0
  00013	8b 75 08	 mov	 esi, DWORD PTR __First$[ebp]
  00016	89 45 ec	 mov	 DWORD PTR __Next$[ebp], eax
$LL6@Uninit_mov@2:

; 430  : 	for (; _First != _Last; ++_Dest, ++_First)

  00019	3b 75 0c	 cmp	 esi, DWORD PTR __Last$[ebp]
  0001c	74 37		 je	 SHORT $LN4@Uninit_mov@2

; 431  : 		_Cons_val(_Al, _Dest, (_Valty &&)*_First);

  0001e	56		 push	 esi
  0001f	ff 75 10	 push	 DWORD PTR __Dest$[ebp]
  00022	ff 75 14	 push	 DWORD PTR __Al$[ebp]
  00025	e8 00 00 00 00	 call	 ??$_Cons_val@V?$allocator@UWeaponInfo@@@std@@UWeaponInfo@@U3@@std@@YAXAAV?$allocator@UWeaponInfo@@@0@PAUWeaponInfo@@$$QAU2@@Z ; std::_Cons_val<std::allocator<WeaponInfo>,WeaponInfo,WeaponInfo>
  0002a	83 45 10 28	 add	 DWORD PTR __Dest$[ebp], 40 ; 00000028H
  0002e	83 c4 0c	 add	 esp, 12			; 0000000cH
  00031	83 c6 28	 add	 esi, 40			; 00000028H
  00034	eb e3		 jmp	 SHORT $LL6@Uninit_mov@2
__catch$??$_Uninit_move@PAUWeaponInfo@@PAU1@V?$allocator@UWeaponInfo@@@std@@U1@@std@@YAPAUWeaponInfo@@PAU1@00AAV?$allocator@UWeaponInfo@@@0@0U_Nonscalar_ptr_iterator_tag@0@@Z$0:

; 432  : 	_CATCH_ALL
; 433  : 	for (; _Next != _Dest; ++_Next)

  00036	8b 75 ec	 mov	 esi, DWORD PTR __Next$[ebp]
  00039	eb 0c		 jmp	 SHORT $LN32@Uninit_mov@2
$LL3@Uninit_mov@2:

; 434  : 		_Dest_val(_Al, _Next);

  0003b	8d 4e 08	 lea	 ecx, DWORD PTR [esi+8]
  0003e	ff 15 00 00 00
	00		 call	 DWORD PTR __imp_??1ioHashString@@QAE@XZ
  00044	83 c6 28	 add	 esi, 40			; 00000028H
$LN32@Uninit_mov@2:

; 432  : 	_CATCH_ALL
; 433  : 	for (; _Next != _Dest; ++_Next)

  00047	3b 75 10	 cmp	 esi, DWORD PTR __Dest$[ebp]
  0004a	75 ef		 jne	 SHORT $LL3@Uninit_mov@2

; 435  : 	_RERAISE;

  0004c	6a 00		 push	 0
  0004e	6a 00		 push	 0
  00050	e8 00 00 00 00	 call	 __CxxThrowException@8
$LN33@Uninit_mov@2:
$LN4@Uninit_mov@2:

; 436  : 	_CATCH_END
; 437  : 	return (_Dest);

  00055	8b 45 10	 mov	 eax, DWORD PTR __Dest$[ebp]

; 438  : 	}

  00058	e8 00 00 00 00	 call	 __EH_epilog3
  0005d	c3		 ret	 0
$LN31@Uninit_mov@2:
_TEXT	ENDS
;	COMDAT text$x
text$x	SEGMENT
__ehhandler$??$_Uninit_move@PAUWeaponInfo@@PAU1@V?$allocator@UWeaponInfo@@@std@@U1@@std@@YAPAUWeaponInfo@@PAU1@00AAV?$allocator@UWeaponInfo@@@0@0U_Nonscalar_ptr_iterator_tag@0@@Z:
  00000	8b 54 24 08	 mov	 edx, DWORD PTR [esp+8]
  00004	8d 42 0c	 lea	 eax, DWORD PTR [edx+12]
  00007	8b 4a e8	 mov	 ecx, DWORD PTR [edx-24]
  0000a	33 c8		 xor	 ecx, eax
  0000c	e8 00 00 00 00	 call	 @__security_check_cookie@4
  00011	b8 00 00 00 00	 mov	 eax, OFFSET __ehfuncinfo$??$_Uninit_move@PAUWeaponInfo@@PAU1@V?$allocator@UWeaponInfo@@@std@@U1@@std@@YAPAUWeaponInfo@@PAU1@00AAV?$allocator@UWeaponInfo@@@0@0U_Nonscalar_ptr_iterator_tag@0@@Z
  00016	e9 00 00 00 00	 jmp	 ___CxxFrameHandler3
text$x	ENDS
??$_Uninit_move@PAUWeaponInfo@@PAU1@V?$allocator@UWeaponInfo@@@std@@U1@@std@@YAPAUWeaponInfo@@PAU1@00AAV?$allocator@UWeaponInfo@@@0@0U_Nonscalar_ptr_iterator_tag@0@@Z ENDP ; std::_Uninit_move<WeaponInfo *,WeaponInfo *,std::allocator<WeaponInfo>,WeaponInfo>
PUBLIC	??$_Destroy_range@V?$allocator@UForceInfo@@@std@@@std@@YAXPAUForceInfo@@0AAV?$allocator@UForceInfo@@@0@@Z ; std::_Destroy_range<std::allocator<ForceInfo> >
; Function compile flags: /Ogsp
; File c:\program files (x86)\microsoft visual studio 10.0\vc\include\xmemory
;	COMDAT ??$_Destroy_range@V?$allocator@UForceInfo@@@std@@@std@@YAXPAUForceInfo@@0AAV?$allocator@UForceInfo@@@0@@Z
_TEXT	SEGMENT
__First$ = 8						; size = 4
__Last$ = 12						; size = 4
__Al$ = 16						; size = 4
??$_Destroy_range@V?$allocator@UForceInfo@@@std@@@std@@YAXPAUForceInfo@@0AAV?$allocator@UForceInfo@@@0@@Z PROC ; std::_Destroy_range<std::allocator<ForceInfo> >, COMDAT

; 88   : 	_Destroy_range(_First, _Last, _Al, _Ptr_cat(_First, _Last));
; 89   : 	}

  00000	c3		 ret	 0
??$_Destroy_range@V?$allocator@UForceInfo@@@std@@@std@@YAXPAUForceInfo@@0AAV?$allocator@UForceInfo@@@0@@Z ENDP ; std::_Destroy_range<std::allocator<ForceInfo> >
_TEXT	ENDS
PUBLIC	??$_Destroy_range@V?$allocator@UWeaponInfo@@@std@@@std@@YAXPAUWeaponInfo@@0AAV?$allocator@UWeaponInfo@@@0@U_Nonscalar_ptr_iterator_tag@0@@Z ; std::_Destroy_range<std::allocator<WeaponInfo> >
; Function compile flags: /Ogsp
;	COMDAT ??$_Destroy_range@V?$allocator@UWeaponInfo@@@std@@@std@@YAXPAUWeaponInfo@@0AAV?$allocator@UWeaponInfo@@@0@U_Nonscalar_ptr_iterator_tag@0@@Z
_TEXT	SEGMENT
__First$ = 8						; size = 4
__Last$ = 12						; size = 4
__Al$ = 16						; size = 4
___formal$ = 20						; size = 1
??$_Destroy_range@V?$allocator@UWeaponInfo@@@std@@@std@@YAXPAUWeaponInfo@@0AAV?$allocator@UWeaponInfo@@@0@U_Nonscalar_ptr_iterator_tag@0@@Z PROC ; std::_Destroy_range<std::allocator<WeaponInfo> >, COMDAT

; 95   : 	{	// destroy [_First, _Last), arbitrary type

  00000	55		 push	 ebp
  00001	8b ec		 mov	 ebp, esp
  00003	56		 push	 esi

; 96   : 	for (; _First != _Last; ++_First)

  00004	8b 75 08	 mov	 esi, DWORD PTR __First$[ebp]
  00007	eb 0c		 jmp	 SHORT $LN20@Destroy_ra
$LL3@Destroy_ra:

; 97   : 		_Dest_val(_Al, _First);

  00009	8d 4e 08	 lea	 ecx, DWORD PTR [esi+8]
  0000c	ff 15 00 00 00
	00		 call	 DWORD PTR __imp_??1ioHashString@@QAE@XZ
  00012	83 c6 28	 add	 esi, 40			; 00000028H
$LN20@Destroy_ra:

; 96   : 	for (; _First != _Last; ++_First)

  00015	3b 75 0c	 cmp	 esi, DWORD PTR __Last$[ebp]
  00018	75 ef		 jne	 SHORT $LL3@Destroy_ra
  0001a	5e		 pop	 esi

; 98   : 	}

  0001b	5d		 pop	 ebp
  0001c	c3		 ret	 0
??$_Destroy_range@V?$allocator@UWeaponInfo@@@std@@@std@@YAXPAUWeaponInfo@@0AAV?$allocator@UWeaponInfo@@@0@U_Nonscalar_ptr_iterator_tag@0@@Z ENDP ; std::_Destroy_range<std::allocator<WeaponInfo> >
_TEXT	ENDS
PUBLIC	__real@4014000000000000
PUBLIC	_pStage$GSCopy$
PUBLIC	_pChar$GSCopy$
PUBLIC	__$ArrayPad$
PUBLIC	?OnProcessState@ioCircleMoveAttackSkill@@UAEXPAVioBaseChar@@PAVioPlayStage@@@Z ; ioCircleMoveAttackSkill::OnProcessState
EXTRN	?SetTargetRotToTargetPos@ioBaseChar@@QAEXABUD3DXVECTOR3@@_N1@Z:PROC ; ioBaseChar::SetTargetRotToTargetPos
EXTRN	?UpdateMagicCirclePosAll@ioBaseGUISupport@@QAEXMMM_N@Z:PROC ; ioBaseGUISupport::UpdateMagicCirclePosAll
EXTRN	?CheckChangeDirectionForMagicCircle@ioBaseGUISupport@@QAE_NXZ:PROC ; ioBaseGUISupport::CheckChangeDirectionForMagicCircle
EXTRN	?GetSkillKeyInput@ioBaseChar@@QAEHXZ:PROC	; ioBaseChar::GetSkillKeyInput
EXTRN	?IsJumpKey@ioBaseChar@@QBE_NXZ:PROC		; ioBaseChar::IsJumpKey
EXTRN	?IsDefenseKey@ioBaseChar@@QBE_NXZ:PROC		; ioBaseChar::IsDefenseKey
EXTRN	?IsAttackKey@ioBaseChar@@QBE_NXZ:PROC		; ioBaseChar::IsAttackKey
EXTRN	?SetMagicCirclePos@ioBaseGUISupport@@QAEX_NABUD3DXVECTOR3@@@Z:PROC ; ioBaseGUISupport::SetMagicCirclePos
EXTRN	?GetMapHeight@ioPlayStage@@QAEMMMPBVioGameEntity@@_NM1@Z:PROC ; ioPlayStage::GetMapHeight
;	COMDAT __real@4014000000000000
; File d:\lost saga for developer\youtube\tutorial\source\src\lsclient\encryptvalue.h
CONST	SEGMENT
__real@4014000000000000 DQ 04014000000000000r	; 5
; Function compile flags: /Ogsp
; File d:\lost saga for developer\youtube\tutorial\source\src\lsclient\iocirclemoveattackskill.cpp
CONST	ENDS
;	COMDAT ?OnProcessState@ioCircleMoveAttackSkill@@UAEXPAVioBaseChar@@PAVioPlayStage@@@Z
_TEXT	SEGMENT
_qtRot$550765 = -104					; size = 16
_iSlot$ = -88						; size = 4
_pChar$GSCopy$ = -84					; size = 4
_value$558979 = -84					; size = 4
tv873 = -80						; size = 4
tv866 = -80						; size = 4
tv863 = -80						; size = 4
tv787 = -80						; size = 4
tv777 = -80						; size = 4
_dwPreDelayTime$ = -80					; size = 4
_pStage$GSCopy$ = -76					; size = 4
_value$558942 = -72					; size = 1
_fCurLength$550781 = -72				; size = 4
_dwGapTime$550764 = -72					; size = 4
_fCurRange$ = -72					; size = 4
tv739 = -68						; size = 4
_value$558974 = -68					; size = 4
$T558976 = -68						; size = 4
_value$558909 = -68					; size = 4
_fRate$550783 = -68					; size = 4
_fMapHeight$550774 = -68				; size = 4
_fGapRange$550770 = -68					; size = 4
_vTargetPos$550793 = -64				; size = 12
_vCharPos$550776 = -64					; size = 12
$T550768 = -52						; size = 12
_vCirclePos$550777 = -40				; size = 12
_vCurPos$550772 = -28					; size = 12
_vDir$550766 = -16					; size = 12
__$ArrayPad$ = -4					; size = 4
_pChar$ = 8						; size = 4
_pStage$ = 12						; size = 4
?OnProcessState@ioCircleMoveAttackSkill@@UAEXPAVioBaseChar@@PAVioPlayStage@@@Z PROC ; ioCircleMoveAttackSkill::OnProcessState, COMDAT
; _this$ = ecx

; 316  : {

  00000	55		 push	 ebp
  00001	8b ec		 mov	 ebp, esp
  00003	83 ec 68	 sub	 esp, 104		; 00000068H
  00006	a1 00 00 00 00	 mov	 eax, DWORD PTR ___security_cookie
  0000b	33 c5		 xor	 eax, ebp
  0000d	89 45 fc	 mov	 DWORD PTR __$ArrayPad$[ebp], eax

; 434  : 						{
; 435  : 							SetActionState( pChar, pStage );

  00010	8b 45 0c	 mov	 eax, DWORD PTR _pStage$[ebp]
  00013	53		 push	 ebx
  00014	56		 push	 esi
  00015	8b 75 08	 mov	 esi, DWORD PTR _pChar$[ebp]
  00018	8b d9		 mov	 ebx, ecx
  0001a	89 75 ac	 mov	 DWORD PTR _pChar$GSCopy$[ebp], esi
  0001d	89 45 b4	 mov	 DWORD PTR _pStage$GSCopy$[ebp], eax
  00020	85 f6		 test	 esi, esi
  00022	0f 84 4d 05 00
	00		 je	 $LN6@OnProcessS

; 317  : 	if( !pChar ) return;
; 318  : 
; 319  : 	float fCurRange = m_fCircleRange;

  00028	8b 8b a4 02 00
	00		 mov	 ecx, DWORD PTR [ebx+676]
  0002e	f3 0f 10 83 2c
	10 00 00	 movss	 xmm0, DWORD PTR [ebx+4140]

; 320  : 	int iSlot = GetOwnerItem()->GetType() - 1;

  00036	8b 01		 mov	 eax, DWORD PTR [ecx]
  00038	57		 push	 edi
  00039	f3 0f 11 45 b8	 movss	 DWORD PTR _fCurRange$[ebp], xmm0
  0003e	ff 50 08	 call	 DWORD PTR [eax+8]
  00041	48		 dec	 eax
  00042	89 45 a8	 mov	 DWORD PTR _iSlot$[ebp], eax

; 321  : 
; 322  : 	DWORD dwCurTime = FRAMEGETTIME();

  00045	ff 15 00 00 00
	00		 call	 DWORD PTR __imp_?GetSingleton@ioFrameTimer@@SAAAV1@XZ
  0004b	8b c8		 mov	 ecx, eax
  0004d	ff 15 00 00 00
	00		 call	 DWORD PTR __imp_?GetLoopSec@ioFrameTimer@@QBEKXZ
  00053	8b f8		 mov	 edi, eax

; 323  : 	DWORD dwPreDelayTime = GetPreDelayTime();

  00055	8b 03		 mov	 eax, DWORD PTR [ebx]
  00057	8b cb		 mov	 ecx, ebx
  00059	ff 90 34 01 00
	00		 call	 DWORD PTR [eax+308]
  0005f	89 45 b0	 mov	 DWORD PTR _dwPreDelayTime$[ebp], eax

; 324  : 
; 325  : 	switch( m_State )

  00062	8d 45 bc	 lea	 eax, DWORD PTR _value$558909[ebp]
  00065	50		 push	 eax
  00066	8d 8b 58 0f 00
	00		 lea	 ecx, DWORD PTR [ebx+3928]
  0006c	e8 00 00 00 00	 call	 ?DecryptValueToPool@?$CEncrypt@H@@QAEXPAH@Z ; CEncrypt<int>::DecryptValueToPool
  00071	8b 45 bc	 mov	 eax, DWORD PTR _value$558909[ebp]
  00074	48		 dec	 eax
  00075	74 45		 je	 SHORT $LN24@OnProcessS
  00077	48		 dec	 eax
  00078	74 14		 je	 SHORT $LN4@OnProcessS
  0007a	48		 dec	 eax
  0007b	0f 85 f3 04 00
	00		 jne	 $LN68@OnProcessS

; 457  : 	case SS_END:
; 458  : 		{
; 459  : 			ProcessEnd( pChar );

  00081	56		 push	 esi
  00082	8b cb		 mov	 ecx, ebx
  00084	e8 00 00 00 00	 call	 ?ProcessEnd@ioCircleMoveAttackSkill@@IAEXPAVioBaseChar@@@Z ; ioCircleMoveAttackSkill::ProcessEnd

; 460  : 		}
; 461  : 		break;

  00089	e9 e6 04 00 00	 jmp	 $LN68@OnProcessS
$LN4@OnProcessS:

; 436  : 							return;
; 437  : 						}
; 438  : 					}
; 439  : 				}
; 440  : 				break;
; 441  : 			}
; 442  : 		}
; 443  : 		break;
; 444  : 	case SS_ACTION:
; 445  : 		{
; 446  : 			if( CheckLanding( pChar ) )

  0008e	56		 push	 esi
  0008f	8b cb		 mov	 ecx, ebx
  00091	e8 00 00 00 00	 call	 ?CheckLanding@ioCircleMoveAttackSkill@@IAE_NPAVioBaseChar@@@Z ; ioCircleMoveAttackSkill::CheckLanding

; 447  : 			{
; 448  : 				SetEndState( pChar );

  00096	56		 push	 esi
  00097	8b cb		 mov	 ecx, ebx
  00099	84 c0		 test	 al, al
  0009b	74 0a		 je	 SHORT $LN3@OnProcessS
  0009d	e8 00 00 00 00	 call	 ?SetEndState@ioCircleMoveAttackSkill@@IAEXPAVioBaseChar@@@Z ; ioCircleMoveAttackSkill::SetEndState

; 449  : 			}
; 450  : 			else

  000a2	e9 cd 04 00 00	 jmp	 $LN68@OnProcessS
$LN3@OnProcessS:

; 451  : 			{
; 452  : 				ProcessAction( pChar );

  000a7	e8 00 00 00 00	 call	 ?ProcessAction@ioCircleMoveAttackSkill@@IAEXPAVioBaseChar@@@Z ; ioCircleMoveAttackSkill::ProcessAction

; 453  : 				ProcessMove( pChar, pStage );

  000ac	ff 75 b4	 push	 DWORD PTR _pStage$GSCopy$[ebp]
  000af	8b cb		 mov	 ecx, ebx
  000b1	56		 push	 esi
  000b2	e8 00 00 00 00	 call	 ?ProcessMove@ioCircleMoveAttackSkill@@IAEXPAVioBaseChar@@PAVioPlayStage@@@Z ; ioCircleMoveAttackSkill::ProcessMove

; 454  : 			}
; 455  : 		}
; 456  : 		break;

  000b7	e9 b8 04 00 00	 jmp	 $LN68@OnProcessS
$LN24@OnProcessS:

; 326  : 	{
; 327  : 	case SS_WAIT:
; 328  : 		{
; 329  : 			switch( m_WaitType )

  000bc	8b 83 dc 10 00
	00		 mov	 eax, DWORD PTR [ebx+4316]
  000c2	48		 dec	 eax
  000c3	0f 84 fb 03 00
	00		 je	 $LN9@OnProcessS
  000c9	48		 dec	 eax
  000ca	0f 84 9d 03 00
	00		 je	 $LN21@OnProcessS
  000d0	48		 dec	 eax
  000d1	74 49		 je	 SHORT $LN18@OnProcessS
  000d3	48		 dec	 eax
  000d4	0f 85 9a 04 00
	00		 jne	 $LN68@OnProcessS

; 405  : 					}
; 406  : 				}
; 407  : 				break;
; 408  : 			case WT_TIME_LIMIT:
; 409  : 				if( pChar->IsNeedProcess() && m_dwWaitStartTime+m_dwWaitLimitTime < dwCurTime )

  000da	8b 06		 mov	 eax, DWORD PTR [esi]
  000dc	8b ce		 mov	 ecx, esi
  000de	ff 90 00 01 00
	00		 call	 DWORD PTR [eax+256]
  000e4	84 c0		 test	 al, al
  000e6	0f 84 d8 03 00
	00		 je	 $LN9@OnProcessS
  000ec	8d 45 ac	 lea	 eax, DWORD PTR _value$558979[ebp]
  000ef	50		 push	 eax
  000f0	8d 8b e0 10 00
	00		 lea	 ecx, DWORD PTR [ebx+4320]
  000f6	e8 00 00 00 00	 call	 ?DecryptValueToPool@?$CEncrypt@K@@QAEXPAK@Z ; CEncrypt<unsigned long>::DecryptValueToPool
  000fb	8b 83 10 11 00
	00		 mov	 eax, DWORD PTR [ebx+4368]
  00101	03 45 ac	 add	 eax, DWORD PTR _value$558979[ebp]
  00104	3b c7		 cmp	 eax, edi
  00106	0f 83 b8 03 00
	00		 jae	 $LN9@OnProcessS
$LN75@OnProcessS:

; 410  : 				{
; 411  : 					EndPreDelayEffect( pChar );

  0010c	8b 03		 mov	 eax, DWORD PTR [ebx]
  0010e	56		 push	 esi
  0010f	8b cb		 mov	 ecx, ebx
  00111	ff 90 dc 00 00
	00		 call	 DWORD PTR [eax+220]

; 412  : 					SetActionState( pChar, pStage );
; 413  : 					return;

  00117	e9 4d 04 00 00	 jmp	 $LN5@OnProcessS
$LN18@OnProcessS:

; 346  : 			case WT_AUTO_RANGE:
; 347  : 				{
; 348  : 					// Check DirKey & Dir
; 349  : 					if( m_bEnableCharRot )

  0011c	80 bb 14 11 00
	00 00		 cmp	 BYTE PTR [ebx+4372], 0
  00123	74 10		 je	 SHORT $LN17@OnProcessS

; 350  : 					{
; 351  : 						CheckCharDirKey( pChar );

  00125	56		 push	 esi
  00126	8b cb		 mov	 ecx, ebx
  00128	e8 00 00 00 00	 call	 ?CheckCharDirKey@ioCircleMoveAttackSkill@@IAEXPAVioBaseChar@@@Z ; ioCircleMoveAttackSkill::CheckCharDirKey

; 352  : 						CheckCharRotate( pChar );

  0012d	56		 push	 esi
  0012e	8b cb		 mov	 ecx, ebx
  00130	e8 00 00 00 00	 call	 ?CheckCharRotate@ioCircleMoveAttackSkill@@IAEXPAVioBaseChar@@@Z ; ioCircleMoveAttackSkill::CheckCharRotate
$LN17@OnProcessS:

; 353  : 					}
; 354  : 
; 355  : 					DWORD dwGapTime = dwCurTime - m_dwWaitStartTime;

  00135	2b bb 10 11 00
	00		 sub	 edi, DWORD PTR [ebx+4368]

; 356  : 					D3DXQUATERNION qtRot = pChar->GetTargetRot();

  0013b	81 c6 a4 06 00
	00		 add	 esi, 1700		; 000006a4H
  00141	89 7d b8	 mov	 DWORD PTR _dwGapTime$550764[ebp], edi
  00144	8d 7d 98	 lea	 edi, DWORD PTR _qtRot$550765[ebp]
  00147	a5		 movsd
  00148	a5		 movsd
  00149	a5		 movsd
  0014a	a5		 movsd

; 357  : 
; 358  : 					// UpdatePos
; 359  : 					D3DXVECTOR3 vDir = qtRot * D3DXVECTOR3( 0.0f, 0.0f, -FLOAT1 );

  0014b	b8 01 00 00 00	 mov	 eax, 1
  00150	0f 57 c0	 xorps	 xmm0, xmm0
  00153	89 45 b0	 mov	 DWORD PTR tv873[ebp], eax
  00156	db 45 b0	 fild	 DWORD PTR tv873[ebp]
  00159	f3 0f 11 45 cc	 movss	 DWORD PTR $T550768[ebp], xmm0
  0015e	f3 0f 11 45 d0	 movss	 DWORD PTR $T550768[ebp+4], xmm0
  00163	85 c0		 test	 eax, eax
  00165	79 06		 jns	 SHORT $LN69@OnProcessS
  00167	d8 05 00 00 00
	00		 fadd	 DWORD PTR __real@4f800000
$LN69@OnProcessS:
  0016d	8d 45 cc	 lea	 eax, DWORD PTR $T550768[ebp]
  00170	d9 e0		 fchs
  00172	50		 push	 eax
  00173	d9 5d d4	 fstp	 DWORD PTR $T550768[ebp+8]
  00176	8d 45 98	 lea	 eax, DWORD PTR _qtRot$550765[ebp]
  00179	50		 push	 eax
  0017a	8d 45 f0	 lea	 eax, DWORD PTR _vDir$550766[ebp]
  0017d	50		 push	 eax
  0017e	ff 15 00 00 00
	00		 call	 DWORD PTR __imp_??D@YA?AUD3DXVECTOR3@@ABUD3DXQUATERNION@@ABU0@@Z
  00184	83 c4 0c	 add	 esp, 12			; 0000000cH

; 360  : 
; 361  : 					float fGapRange = m_fCircleMoveSpeed * (dwGapTime / FLOAT1000);

  00187	b8 e8 03 00 00	 mov	 eax, 1000		; 000003e8H
  0018c	db 45 b8	 fild	 DWORD PTR _dwGapTime$550764[ebp]
  0018f	8b 4d b8	 mov	 ecx, DWORD PTR _dwGapTime$550764[ebp]
  00192	85 c9		 test	 ecx, ecx
  00194	79 06		 jns	 SHORT $LN70@OnProcessS
  00196	d8 05 00 00 00
	00		 fadd	 DWORD PTR __real@4f800000
$LN70@OnProcessS:
  0019c	89 45 b0	 mov	 DWORD PTR tv863[ebp], eax
  0019f	db 45 b0	 fild	 DWORD PTR tv863[ebp]
  001a2	85 c0		 test	 eax, eax
  001a4	79 06		 jns	 SHORT $LN71@OnProcessS
  001a6	d8 05 00 00 00
	00		 fadd	 DWORD PTR __real@4f800000
$LN71@OnProcessS:
  001ac	de f9		 fdivp	 ST(1), ST(0)

; 362  : 					vDir *= fGapRange;

  001ae	f3 0f 10 45 f0	 movss	 xmm0, DWORD PTR _vDir$550766[ebp]

; 363  : 					D3DXVECTOR3 vCurPos = pChar->GetWorldPosition() + vDir;

  001b3	8b 75 ac	 mov	 esi, DWORD PTR _pChar$GSCopy$[ebp]
  001b6	8b 06		 mov	 eax, DWORD PTR [esi]
  001b8	0f 5a c0	 cvtps2pd xmm0, xmm0
  001bb	8b ce		 mov	 ecx, esi
  001bd	d8 8b 30 10 00
	00		 fmul	 DWORD PTR [ebx+4144]
  001c3	d9 5d bc	 fstp	 DWORD PTR _fGapRange$550770[ebp]
  001c6	f3 0f 10 4d bc	 movss	 xmm1, DWORD PTR _fGapRange$550770[ebp]
  001cb	0f 5a c9	 cvtps2pd xmm1, xmm1
  001ce	f2 0f 59 c1	 mulsd	 xmm0, xmm1
  001d2	f3 0f 10 4d bc	 movss	 xmm1, DWORD PTR _fGapRange$550770[ebp]
  001d7	66 0f 5a c0	 cvtpd2ps xmm0, xmm0
  001db	f3 0f 11 45 f0	 movss	 DWORD PTR _vDir$550766[ebp], xmm0
  001e0	f3 0f 10 45 f4	 movss	 xmm0, DWORD PTR _vDir$550766[ebp+4]
  001e5	0f 5a c0	 cvtps2pd xmm0, xmm0
  001e8	0f 5a c9	 cvtps2pd xmm1, xmm1
  001eb	f2 0f 59 c1	 mulsd	 xmm0, xmm1
  001ef	f3 0f 10 4d bc	 movss	 xmm1, DWORD PTR _fGapRange$550770[ebp]
  001f4	66 0f 5a c0	 cvtpd2ps xmm0, xmm0
  001f8	f3 0f 11 45 f4	 movss	 DWORD PTR _vDir$550766[ebp+4], xmm0
  001fd	f3 0f 10 45 f8	 movss	 xmm0, DWORD PTR _vDir$550766[ebp+8]
  00202	0f 5a c0	 cvtps2pd xmm0, xmm0
  00205	0f 5a c9	 cvtps2pd xmm1, xmm1
  00208	f2 0f 59 c1	 mulsd	 xmm0, xmm1
  0020c	66 0f 5a c0	 cvtpd2ps xmm0, xmm0
  00210	f3 0f 11 45 f8	 movss	 DWORD PTR _vDir$550766[ebp+8], xmm0
  00215	ff 50 70	 call	 DWORD PTR [eax+112]
  00218	f3 0f 10 40 04	 movss	 xmm0, DWORD PTR [eax+4]
  0021d	f3 0f 10 4d f4	 movss	 xmm1, DWORD PTR _vDir$550766[ebp+4]
  00222	f3 0f 10 18	 movss	 xmm3, DWORD PTR [eax]
  00226	f3 0f 10 55 f8	 movss	 xmm2, DWORD PTR _vDir$550766[ebp+8]
  0022b	0f 5a c0	 cvtps2pd xmm0, xmm0
  0022e	0f 5a c9	 cvtps2pd xmm1, xmm1
  00231	f2 0f 58 c1	 addsd	 xmm0, xmm1
  00235	0f 57 c9	 xorps	 xmm1, xmm1
  00238	66 0f 5a c8	 cvtpd2ps xmm1, xmm0
  0023c	f3 0f 10 40 08	 movss	 xmm0, DWORD PTR [eax+8]

; 364  : 
; 365  : 					float fMapHeight = pStage->GetMapHeight( vCurPos.x, vCurPos.z, pChar, false );

  00241	33 ff		 xor	 edi, edi
  00243	57		 push	 edi
  00244	51		 push	 ecx
  00245	f3 0f 11 4d e8	 movss	 DWORD PTR _vCurPos$550772[ebp+4], xmm1
  0024a	0f 57 c9	 xorps	 xmm1, xmm1
  0024d	f3 0f 11 0c 24	 movss	 DWORD PTR [esp], xmm1
  00252	57		 push	 edi
  00253	0f 5a d2	 cvtps2pd xmm2, xmm2
  00256	56		 push	 esi
  00257	0f 5a c0	 cvtps2pd xmm0, xmm0
  0025a	f2 0f 58 c2	 addsd	 xmm0, xmm2
  0025e	f3 0f 10 55 f0	 movss	 xmm2, DWORD PTR _vDir$550766[ebp]
  00263	51		 push	 ecx
  00264	51		 push	 ecx
  00265	8b 4d b4	 mov	 ecx, DWORD PTR _pStage$GSCopy$[ebp]
  00268	0f 5a d2	 cvtps2pd xmm2, xmm2
  0026b	66 0f 5a c0	 cvtpd2ps xmm0, xmm0
  0026f	0f 5a db	 cvtps2pd xmm3, xmm3
  00272	f2 0f 58 d3	 addsd	 xmm2, xmm3
  00276	66 0f 5a d2	 cvtpd2ps xmm2, xmm2
  0027a	f3 0f 11 44 24
	04		 movss	 DWORD PTR [esp+4], xmm0
  00280	f3 0f 11 55 e4	 movss	 DWORD PTR _vCurPos$550772[ebp], xmm2
  00285	f3 0f 11 45 ec	 movss	 DWORD PTR _vCurPos$550772[ebp+8], xmm0
  0028a	f3 0f 11 14 24	 movss	 DWORD PTR [esp], xmm2
  0028f	e8 00 00 00 00	 call	 ?GetMapHeight@ioPlayStage@@QAEMMMPBVioGameEntity@@_NM1@Z ; ioPlayStage::GetMapHeight
  00294	d9 5d bc	 fstp	 DWORD PTR _fMapHeight$550774[ebp]

; 366  : 					if( fMapHeight > 0.0f )

  00297	d9 ee		 fldz
  00299	d9 45 bc	 fld	 DWORD PTR _fMapHeight$550774[ebp]
  0029c	df f1		 fcomip	 ST(1)
  0029e	dd d8		 fstp	 ST(0)
  002a0	76 0a		 jbe	 SHORT $LN16@OnProcessS

; 367  : 						vCurPos.y = fMapHeight;

  002a2	f3 0f 10 45 bc	 movss	 xmm0, DWORD PTR _fMapHeight$550774[ebp]
  002a7	f3 0f 11 45 e8	 movss	 DWORD PTR _vCurPos$550772[ebp+4], xmm0
$LN16@OnProcessS:

; 368  : 
; 369  : 					pChar->SetMagicCirclePos( false, vCurPos );

  002ac	8d 45 e4	 lea	 eax, DWORD PTR _vCurPos$550772[ebp]
  002af	50		 push	 eax
  002b0	8d 8e cc 01 00
	00		 lea	 ecx, DWORD PTR [esi+460]
  002b6	57		 push	 edi
  002b7	e8 00 00 00 00	 call	 ?SetMagicCirclePos@ioBaseGUISupport@@QAEX_NABUD3DXVECTOR3@@@Z ; ioBaseGUISupport::SetMagicCirclePos

; 370  : 
; 371  : 					//
; 372  : 					D3DXVECTOR3 vCharPos = pChar->GetWorldPosition();

  002bc	8b 06		 mov	 eax, DWORD PTR [esi]
  002be	8b ce		 mov	 ecx, esi
  002c0	ff 50 70	 call	 DWORD PTR [eax+112]
  002c3	8b f0		 mov	 esi, eax
  002c5	8d 7d c0	 lea	 edi, DWORD PTR _vCharPos$550776[ebp]
  002c8	a5		 movsd
  002c9	a5		 movsd

; 373  : 					D3DXVECTOR3 vCirclePos = pChar->GetMagicCirclePos( m_fCircleOffSet, m_bCircleNoChangeY );

  002ca	8d 45 b8	 lea	 eax, DWORD PTR _value$558942[ebp]
  002cd	50		 push	 eax
  002ce	8d 8b 24 06 00
	00		 lea	 ecx, DWORD PTR [ebx+1572]
  002d4	a5		 movsd
  002d5	e8 00 00 00 00	 call	 ?DecryptValueToPool@?$CEncrypt@_N@@QAEXPA_N@Z ; CEncrypt<bool>::DecryptValueToPool
  002da	ff 75 b8	 push	 DWORD PTR _value$558942[ebp]
  002dd	f3 0f 10 83 38
	10 00 00	 movss	 xmm0, DWORD PTR [ebx+4152]
  002e5	8d 45 d8	 lea	 eax, DWORD PTR _vCirclePos$550777[ebp]
  002e8	51		 push	 ecx
  002e9	8b 4d ac	 mov	 ecx, DWORD PTR _pChar$GSCopy$[ebp]
  002ec	f3 0f 11 04 24	 movss	 DWORD PTR [esp], xmm0
  002f1	50		 push	 eax
  002f2	81 c1 cc 01 00
	00		 add	 ecx, 460		; 000001ccH
  002f8	e8 00 00 00 00	 call	 ?GetMagicCirclePos@ioBaseGUISupport@@QBE?AUD3DXVECTOR3@@M_N@Z ; ioBaseGUISupport::GetMagicCirclePos

; 374  : 					vCharPos.y = 0.0f;
; 375  : 					vCirclePos.y = 0.0f;
; 376  : 
; 377  : 					D3DXVECTOR3 vDiff = vCirclePos - vCharPos;

  002fd	f3 0f 10 4d d8	 movss	 xmm1, DWORD PTR _vCirclePos$550777[ebp]
  00302	f3 0f 10 55 c0	 movss	 xmm2, DWORD PTR _vCharPos$550776[ebp]
  00307	f3 0f 10 5d e0	 movss	 xmm3, DWORD PTR _vCirclePos$550777[ebp+8]
  0030c	f3 0f 10 65 c8	 movss	 xmm4, DWORD PTR _vCharPos$550776[ebp+8]
  00311	0f 57 c0	 xorps	 xmm0, xmm0
  00314	0f 5a c9	 cvtps2pd xmm1, xmm1
  00317	0f 5a d2	 cvtps2pd xmm2, xmm2
  0031a	f2 0f 5c ca	 subsd	 xmm1, xmm2
  0031e	0f 57 d2	 xorps	 xmm2, xmm2
  00321	66 0f 5a d1	 cvtpd2ps xmm2, xmm1
  00325	0f 57 c9	 xorps	 xmm1, xmm1
  00328	f2 0f 5c c9	 subsd	 xmm1, xmm1
  0032c	66 0f 5a c9	 cvtpd2ps xmm1, xmm1
  00330	f3 0f 5a c9	 cvtss2sd xmm1, xmm1
  00334	0f 5a db	 cvtps2pd xmm3, xmm3

; 378  : 					float fCurLength = D3DXVec3Length( &vDiff );

  00337	f2 0f 59 c9	 mulsd	 xmm1, xmm1
  0033b	0f 5a e4	 cvtps2pd xmm4, xmm4
  0033e	f2 0f 5c dc	 subsd	 xmm3, xmm4
  00342	0f 5a d2	 cvtps2pd xmm2, xmm2
  00345	66 0f 5a db	 cvtpd2ps xmm3, xmm3
  00349	f2 0f 59 d2	 mulsd	 xmm2, xmm2
  0034d	f2 0f 58 d1	 addsd	 xmm2, xmm1
  00351	0f 57 c9	 xorps	 xmm1, xmm1
  00354	f3 0f 5a db	 cvtss2sd xmm3, xmm3
  00358	f2 0f 59 db	 mulsd	 xmm3, xmm3
  0035c	f2 0f 58 d3	 addsd	 xmm2, xmm3
  00360	66 0f 5a ca	 cvtpd2ps xmm1, xmm2
  00364	0f 5a c9	 cvtps2pd xmm1, xmm1
  00367	f2 0f 51 c9	 sqrtsd	 xmm1, xmm1
  0036b	66 0f 5a c9	 cvtpd2ps xmm1, xmm1
  0036f	f3 0f 11 4d b8	 movss	 DWORD PTR _fCurLength$550781[ebp], xmm1

; 379  : 
; 380  : 					// Charging Rate
; 381  : 					if( m_fCircleRange > 0.0f )

  00374	f3 0f 10 8b 2c
	10 00 00	 movss	 xmm1, DWORD PTR [ebx+4140]
  0037c	0f 2f c8	 comiss	 xmm1, xmm0
  0037f	f3 0f 11 45 dc	 movss	 DWORD PTR _vCirclePos$550777[ebp+4], xmm0
  00384	f3 0f 11 4d bc	 movss	 DWORD PTR tv739[ebp], xmm1
  00389	76 58		 jbe	 SHORT $LN64@OnProcessS

; 382  : 					{
; 383  : 						float fRate = fCurLength / m_fCircleRange;

  0038b	d9 45 b8	 fld	 DWORD PTR _fCurLength$550781[ebp]
  0038e	d8 75 bc	 fdiv	 DWORD PTR tv739[ebp]
  00391	d9 5d bc	 fstp	 DWORD PTR _fRate$550783[ebp]

; 384  : 						m_fCurChargeRate = min( fRate, FLOAT1 );

  00394	b8 01 00 00 00	 mov	 eax, 1
  00399	d9 45 bc	 fld	 DWORD PTR _fRate$550783[ebp]
  0039c	89 45 b0	 mov	 DWORD PTR tv787[ebp], eax
  0039f	db 45 b0	 fild	 DWORD PTR tv787[ebp]
  003a2	85 c0		 test	 eax, eax
  003a4	79 06		 jns	 SHORT $LN72@OnProcessS
  003a6	d8 05 00 00 00
	00		 fadd	 DWORD PTR __real@4f800000
$LN72@OnProcessS:
  003ac	df f1		 fcomip	 ST(1)
  003ae	dd d8		 fstp	 ST(0)
  003b0	77 18		 ja	 SHORT $LN74@OnProcessS
  003b2	b8 01 00 00 00	 mov	 eax, 1
  003b7	89 45 b0	 mov	 DWORD PTR tv777[ebp], eax
  003ba	db 45 b0	 fild	 DWORD PTR tv777[ebp]
  003bd	85 c0		 test	 eax, eax
  003bf	79 06		 jns	 SHORT $LN73@OnProcessS
  003c1	d8 05 00 00 00
	00		 fadd	 DWORD PTR __real@4f800000
$LN73@OnProcessS:
  003c7	d9 5d bc	 fstp	 DWORD PTR $T558976[ebp]
$LN74@OnProcessS:
  003ca	f3 0f 10 45 bc	 movss	 xmm0, DWORD PTR $T558976[ebp]
  003cf	8d 45 bc	 lea	 eax, DWORD PTR _value$558974[ebp]
  003d2	50		 push	 eax
  003d3	8d 8b a4 09 00
	00		 lea	 ecx, DWORD PTR [ebx+2468]
  003d9	f3 0f 11 45 bc	 movss	 DWORD PTR _value$558974[ebp], xmm0
  003de	e8 00 00 00 00	 call	 ?EncryptValueToPool@?$CEncrypt@M@@AAEXPBD@Z ; CEncrypt<float>::EncryptValueToPool
$LN64@OnProcessS:

; 385  : 					}
; 386  : 
; 387  : 					// 
; 388  : 					if( pChar->IsNeedProcess() )

  003e3	8b 75 ac	 mov	 esi, DWORD PTR _pChar$GSCopy$[ebp]
  003e6	8b 06		 mov	 eax, DWORD PTR [esi]
  003e8	8b ce		 mov	 ecx, esi
  003ea	ff 90 00 01 00
	00		 call	 DWORD PTR [eax+256]
  003f0	84 c0		 test	 al, al
  003f2	74 3d		 je	 SHORT $LN13@OnProcessS

; 389  : 					{
; 390  : 						if( pChar->IsAttackKey() ||
; 391  : 							pChar->IsDefenseKey() ||
; 392  : 							pChar->IsJumpKey() ||
; 393  : 							pChar->GetSkillKeyInput() == iSlot )

  003f4	8b ce		 mov	 ecx, esi
  003f6	e8 00 00 00 00	 call	 ?IsAttackKey@ioBaseChar@@QBE_NXZ ; ioBaseChar::IsAttackKey
  003fb	84 c0		 test	 al, al
  003fd	0f 85 66 01 00
	00		 jne	 $LN5@OnProcessS
  00403	8b ce		 mov	 ecx, esi
  00405	e8 00 00 00 00	 call	 ?IsDefenseKey@ioBaseChar@@QBE_NXZ ; ioBaseChar::IsDefenseKey
  0040a	84 c0		 test	 al, al
  0040c	0f 85 57 01 00
	00		 jne	 $LN5@OnProcessS
  00412	8b ce		 mov	 ecx, esi
  00414	e8 00 00 00 00	 call	 ?IsJumpKey@ioBaseChar@@QBE_NXZ ; ioBaseChar::IsJumpKey
  00419	84 c0		 test	 al, al
  0041b	0f 85 48 01 00
	00		 jne	 $LN5@OnProcessS
  00421	8b ce		 mov	 ecx, esi
  00423	e8 00 00 00 00	 call	 ?GetSkillKeyInput@ioBaseChar@@QAEHXZ ; ioBaseChar::GetSkillKeyInput
  00428	3b 45 a8	 cmp	 eax, DWORD PTR _iSlot$[ebp]

; 394  : 						{
; 395  : 							SetActionState( pChar, pStage );
; 396  : 							return;

  0042b	0f 84 38 01 00
	00		 je	 $LN5@OnProcessS
$LN13@OnProcessS:

; 397  : 						}
; 398  : 					} 
; 399  : 
; 400  : 					// 
; 401  : 					if( pChar->IsNeedProcess() && fCurLength >= (m_fCircleRange - 5.0f) )

  00431	8b 06		 mov	 eax, DWORD PTR [esi]
  00433	8b ce		 mov	 ecx, esi
  00435	ff 90 00 01 00
	00		 call	 DWORD PTR [eax+256]
  0043b	84 c0		 test	 al, al
  0043d	0f 84 31 01 00
	00		 je	 $LN68@OnProcessS
  00443	f3 0f 10 8b 2c
	10 00 00	 movss	 xmm1, DWORD PTR [ebx+4140]
  0044b	f3 0f 10 45 b8	 movss	 xmm0, DWORD PTR _fCurLength$550781[ebp]
  00450	0f 5a c9	 cvtps2pd xmm1, xmm1
  00453	f2 0f 5c 0d 00
	00 00 00	 subsd	 xmm1, QWORD PTR __real@4014000000000000
  0045b	0f 5a c0	 cvtps2pd xmm0, xmm0
  0045e	66 0f 2f c1	 comisd	 xmm0, xmm1
  00462	0f 82 0c 01 00
	00		 jb	 $LN68@OnProcessS

; 402  : 					{
; 403  : 						SetActionState( pChar, pStage );
; 404  : 						return;

  00468	e9 fc 00 00 00	 jmp	 $LN5@OnProcessS
$LN21@OnProcessS:

; 330  : 			{
; 331  : 			case WT_IMMEDIATE:
; 332  : 				{
; 333  : 					if( m_dwPreDelayStartTime == 0 )

  0046d	8b 8b 20 02 00
	00		 mov	 ecx, DWORD PTR [ebx+544]
  00473	85 c9		 test	 ecx, ecx
  00475	0f 84 f9 00 00
	00		 je	 $LN68@OnProcessS

; 334  : 						return;
; 335  : 
; 336  : 					if( m_dwPreDelayStartTime + dwPreDelayTime < dwCurTime )

  0047b	03 4d b0	 add	 ecx, DWORD PTR _dwPreDelayTime$[ebp]
  0047e	3b cf		 cmp	 ecx, edi
  00480	0f 83 ee 00 00
	00		 jae	 $LN68@OnProcessS

; 337  : 					{
; 338  : 						m_dwPreDelayStartTime = 0;
; 339  : 
; 340  : 						pChar->UpdateMagicCirclePos( 0.0f, fCurRange, m_fCircleHeightGap, false );

  00486	f3 0f 10 83 34
	10 00 00	 movss	 xmm0, DWORD PTR [ebx+4148]
  0048e	33 c9		 xor	 ecx, ecx
  00490	51		 push	 ecx
  00491	51		 push	 ecx
  00492	83 ec 0c	 sub	 esp, 12			; 0000000cH
  00495	f3 0f 11 44 24
	08		 movss	 DWORD PTR [esp+8], xmm0
  0049b	f3 0f 10 45 b8	 movss	 xmm0, DWORD PTR _fCurRange$[ebp]
  004a0	f3 0f 11 44 24
	04		 movss	 DWORD PTR [esp+4], xmm0
  004a6	0f 57 c0	 xorps	 xmm0, xmm0
  004a9	89 8b 20 02 00
	00		 mov	 DWORD PTR [ebx+544], ecx
  004af	8d 8e cc 01 00
	00		 lea	 ecx, DWORD PTR [esi+460]
  004b5	f3 0f 11 04 24	 movss	 DWORD PTR [esp], xmm0
  004ba	e8 00 00 00 00	 call	 ?UpdateMagicCirclePos@ioBaseGUISupport@@QAEXMMM_N0@Z ; ioBaseGUISupport::UpdateMagicCirclePos

; 341  : 						EndPreDelayEffect( pChar );
; 342  : 						SetActionState( pChar, pStage );
; 343  : 					}
; 344  : 				}
; 345  : 				break;

  004bf	e9 48 fc ff ff	 jmp	 $LN75@OnProcessS
$LN9@OnProcessS:

; 414  : 				}
; 415  : 				// HARDCODE :: break  .
; 416  : 			case WT_NORMAL:
; 417  : 				{
; 418  : 					//   
; 419  : 					pChar->CheckChangeDirectionForMagicCircle();

  004c4	8d 8e cc 01 00
	00		 lea	 ecx, DWORD PTR [esi+460]
  004ca	e8 00 00 00 00	 call	 ?CheckChangeDirectionForMagicCircle@ioBaseGUISupport@@QAE_NXZ ; ioBaseGUISupport::CheckChangeDirectionForMagicCircle

; 420  : 
; 421  : 					// MagicCircle  
; 422  : 					pChar->UpdateMagicCirclePosAll( m_fCircleMoveSpeed, fCurRange, m_fCircleHeightGap, false );

  004cf	f3 0f 10 83 34
	10 00 00	 movss	 xmm0, DWORD PTR [ebx+4148]
  004d7	6a 00		 push	 0
  004d9	83 ec 0c	 sub	 esp, 12			; 0000000cH
  004dc	f3 0f 11 44 24
	08		 movss	 DWORD PTR [esp+8], xmm0
  004e2	f3 0f 10 45 b8	 movss	 xmm0, DWORD PTR _fCurRange$[ebp]
  004e7	f3 0f 11 44 24
	04		 movss	 DWORD PTR [esp+4], xmm0
  004ed	f3 0f 10 83 30
	10 00 00	 movss	 xmm0, DWORD PTR [ebx+4144]
  004f5	8d 8e cc 01 00
	00		 lea	 ecx, DWORD PTR [esi+460]
  004fb	f3 0f 11 04 24	 movss	 DWORD PTR [esp], xmm0
  00500	e8 00 00 00 00	 call	 ?UpdateMagicCirclePosAll@ioBaseGUISupport@@QAEXMMM_N@Z ; ioBaseGUISupport::UpdateMagicCirclePosAll

; 423  : 
; 424  : 					// MagicCircle   
; 425  : 					D3DXVECTOR3 vTargetPos = pChar->GetMagicCirclePos();

  00505	0f 57 c0	 xorps	 xmm0, xmm0
  00508	6a 00		 push	 0
  0050a	51		 push	 ecx
  0050b	8d 45 c0	 lea	 eax, DWORD PTR _vTargetPos$550793[ebp]
  0050e	f3 0f 11 04 24	 movss	 DWORD PTR [esp], xmm0
  00513	50		 push	 eax
  00514	8d 8e cc 01 00
	00		 lea	 ecx, DWORD PTR [esi+460]
  0051a	e8 00 00 00 00	 call	 ?GetMagicCirclePos@ioBaseGUISupport@@QBE?AUD3DXVECTOR3@@M_N@Z ; ioBaseGUISupport::GetMagicCirclePos

; 426  : 					pChar->SetTargetRotToTargetPos( vTargetPos, true, false );

  0051f	6a 00		 push	 0
  00521	6a 01		 push	 1
  00523	8d 45 c0	 lea	 eax, DWORD PTR _vTargetPos$550793[ebp]
  00526	50		 push	 eax
  00527	8b ce		 mov	 ecx, esi
  00529	e8 00 00 00 00	 call	 ?SetTargetRotToTargetPos@ioBaseChar@@QAEXABUD3DXVECTOR3@@_N1@Z ; ioBaseChar::SetTargetRotToTargetPos

; 427  : 
; 428  : 					if( pChar->IsNeedProcess() )

  0052e	8b 06		 mov	 eax, DWORD PTR [esi]
  00530	8b ce		 mov	 ecx, esi
  00532	ff 90 00 01 00
	00		 call	 DWORD PTR [eax+256]
  00538	84 c0		 test	 al, al
  0053a	74 38		 je	 SHORT $LN68@OnProcessS

; 429  : 					{
; 430  : 						if( pChar->IsAttackKey() ||
; 431  : 							pChar->IsDefenseKey() ||
; 432  : 							pChar->IsJumpKey() ||
; 433  : 							pChar->GetSkillKeyInput() == iSlot )

  0053c	8b ce		 mov	 ecx, esi
  0053e	e8 00 00 00 00	 call	 ?IsAttackKey@ioBaseChar@@QBE_NXZ ; ioBaseChar::IsAttackKey
  00543	84 c0		 test	 al, al
  00545	75 22		 jne	 SHORT $LN5@OnProcessS
  00547	8b ce		 mov	 ecx, esi
  00549	e8 00 00 00 00	 call	 ?IsDefenseKey@ioBaseChar@@QBE_NXZ ; ioBaseChar::IsDefenseKey
  0054e	84 c0		 test	 al, al
  00550	75 17		 jne	 SHORT $LN5@OnProcessS
  00552	8b ce		 mov	 ecx, esi
  00554	e8 00 00 00 00	 call	 ?IsJumpKey@ioBaseChar@@QBE_NXZ ; ioBaseChar::IsJumpKey
  00559	84 c0		 test	 al, al
  0055b	75 0c		 jne	 SHORT $LN5@OnProcessS
  0055d	8b ce		 mov	 ecx, esi
  0055f	e8 00 00 00 00	 call	 ?GetSkillKeyInput@ioBaseChar@@QAEHXZ ; ioBaseChar::GetSkillKeyInput
  00564	3b 45 a8	 cmp	 eax, DWORD PTR _iSlot$[ebp]
  00567	75 0b		 jne	 SHORT $LN68@OnProcessS
$LN5@OnProcessS:

; 434  : 						{
; 435  : 							SetActionState( pChar, pStage );

  00569	ff 75 b4	 push	 DWORD PTR _pStage$GSCopy$[ebp]
  0056c	8b cb		 mov	 ecx, ebx
  0056e	56		 push	 esi
  0056f	e8 00 00 00 00	 call	 ?SetActionState@ioCircleMoveAttackSkill@@IAEXPAVioBaseChar@@PAVioPlayStage@@@Z ; ioCircleMoveAttackSkill::SetActionState
$LN68@OnProcessS:
  00574	5f		 pop	 edi
$LN6@OnProcessS:

; 462  : 	}
; 463  : }

  00575	8b 4d fc	 mov	 ecx, DWORD PTR __$ArrayPad$[ebp]
  00578	5e		 pop	 esi
  00579	33 cd		 xor	 ecx, ebp
  0057b	5b		 pop	 ebx
  0057c	e8 00 00 00 00	 call	 @__security_check_cookie@4
  00581	c9		 leave
  00582	c2 08 00	 ret	 8
?OnProcessState@ioCircleMoveAttackSkill@@UAEXPAVioBaseChar@@PAVioPlayStage@@@Z ENDP ; ioCircleMoveAttackSkill::OnProcessState
_TEXT	ENDS
PUBLIC	??$_Ucopy@V?$_Vector_const_iterator@V?$_Vector_val@UForceInfo@@V?$allocator@UForceInfo@@@std@@@std@@@std@@@?$vector@UForceInfo@@V?$allocator@UForceInfo@@@std@@@std@@IAEPAUForceInfo@@V?$_Vector_const_iterator@V?$_Vector_val@UForceInfo@@V?$allocator@UForceInfo@@@std@@@std@@@1@0PAU2@@Z ; std::vector<ForceInfo,std::allocator<ForceInfo> >::_Ucopy<std::_Vector_const_iterator<std::_Vector_val<ForceInfo,std::allocator<ForceInfo> > > >
; Function compile flags: /Ogsp
; File c:\program files (x86)\microsoft visual studio 10.0\vc\include\vector
;	COMDAT ??$_Ucopy@V?$_Vector_const_iterator@V?$_Vector_val@UForceInfo@@V?$allocator@UForceInfo@@@std@@@std@@@std@@@?$vector@UForceInfo@@V?$allocator@UForceInfo@@@std@@@std@@IAEPAUForceInfo@@V?$_Vector_const_iterator@V?$_Vector_val@UForceInfo@@V?$allocator@UForceInfo@@@std@@@std@@@1@0PAU2@@Z
_TEXT	SEGMENT
__First$ = 8						; size = 4
__Last$ = 12						; size = 4
__Cat$559009 = 16					; size = 1
__Ptr$ = 16						; size = 4
??$_Ucopy@V?$_Vector_const_iterator@V?$_Vector_val@UForceInfo@@V?$allocator@UForceInfo@@@std@@@std@@@std@@@?$vector@UForceInfo@@V?$allocator@UForceInfo@@@std@@@std@@IAEPAUForceInfo@@V?$_Vector_const_iterator@V?$_Vector_val@UForceInfo@@V?$allocator@UForceInfo@@@std@@@std@@@1@0PAU2@@Z PROC ; std::vector<ForceInfo,std::allocator<ForceInfo> >::_Ucopy<std::_Vector_const_iterator<std::_Vector_val<ForceInfo,std::allocator<ForceInfo> > > >, COMDAT
; _this$ = ecx

; 1315 : 		pointer _Ucopy(_Iter _First, _Iter _Last, pointer _Ptr)

  00000	55		 push	 ebp
  00001	8b ec		 mov	 ebp, esp

; 1316 : 		{	// copy initializing [_First, _Last), using allocator
; 1317 : 		return (_Uninitialized_copy(_First, _Last,
; 1318 : 			_Ptr, this->_Alval));

  00003	ff 75 10	 push	 DWORD PTR __Cat$559009[ebp]
  00006	83 c1 0c	 add	 ecx, 12			; 0000000cH
  00009	51		 push	 ecx
  0000a	ff 75 10	 push	 DWORD PTR __Ptr$[ebp]
  0000d	ff 75 0c	 push	 DWORD PTR __Last$[ebp]
  00010	ff 75 08	 push	 DWORD PTR __First$[ebp]
  00013	e8 00 00 00 00	 call	 ??$_Uninit_copy@V?$_Vector_const_iterator@V?$_Vector_val@UForceInfo@@V?$allocator@UForceInfo@@@std@@@std@@@std@@PAUForceInfo@@V?$allocator@UForceInfo@@@2@@std@@YAPAUForceInfo@@V?$_Vector_const_iterator@V?$_Vector_val@UForceInfo@@V?$allocator@UForceInfo@@@std@@@std@@@0@0PAU1@AAV?$allocator@UForceInfo@@@0@U_Nonscalar_ptr_iterator_tag@0@@Z ; std::_Uninit_copy<std::_Vector_const_iterator<std::_Vector_val<ForceInfo,std::allocator<ForceInfo> > >,ForceInfo *,std::allocator<ForceInfo> >
  00018	83 c4 14	 add	 esp, 20			; 00000014H

; 1319 : 		}

  0001b	5d		 pop	 ebp
  0001c	c2 0c 00	 ret	 12			; 0000000cH
??$_Ucopy@V?$_Vector_const_iterator@V?$_Vector_val@UForceInfo@@V?$allocator@UForceInfo@@@std@@@std@@@std@@@?$vector@UForceInfo@@V?$allocator@UForceInfo@@@std@@@std@@IAEPAUForceInfo@@V?$_Vector_const_iterator@V?$_Vector_val@UForceInfo@@V?$allocator@UForceInfo@@@std@@@std@@@1@0PAU2@@Z ENDP ; std::vector<ForceInfo,std::allocator<ForceInfo> >::_Ucopy<std::_Vector_const_iterator<std::_Vector_val<ForceInfo,std::allocator<ForceInfo> > > >
_TEXT	ENDS
PUBLIC	??$_Umove@PAUForceInfo@@@?$vector@UForceInfo@@V?$allocator@UForceInfo@@@std@@@std@@IAEPAUForceInfo@@PAU2@00@Z ; std::vector<ForceInfo,std::allocator<ForceInfo> >::_Umove<ForceInfo *>
; Function compile flags: /Ogsp
;	COMDAT ??$_Umove@PAUForceInfo@@@?$vector@UForceInfo@@V?$allocator@UForceInfo@@@std@@@std@@IAEPAUForceInfo@@PAU2@00@Z
_TEXT	SEGMENT
__First$ = 8						; size = 4
__Last$ = 12						; size = 4
__Ptr$ = 16						; size = 4
??$_Umove@PAUForceInfo@@@?$vector@UForceInfo@@V?$allocator@UForceInfo@@@std@@@std@@IAEPAUForceInfo@@PAU2@00@Z PROC ; std::vector<ForceInfo,std::allocator<ForceInfo> >::_Umove<ForceInfo *>, COMDAT
; _this$ = ecx

; 1322 : 		pointer _Umove(_Iter _First, _Iter _Last, pointer _Ptr)

  00000	55		 push	 ebp
  00001	8b ec		 mov	 ebp, esp

; 1323 : 		{	// move initializing [_First, _Last), using allocator
; 1324 : 		return (_Uninitialized_move(_First, _Last,
; 1325 : 			_Ptr, this->_Alval));

  00003	83 c1 0c	 add	 ecx, 12			; 0000000cH
  00006	51		 push	 ecx
  00007	ff 75 10	 push	 DWORD PTR __Ptr$[ebp]
  0000a	ff 75 0c	 push	 DWORD PTR __Last$[ebp]
  0000d	ff 75 08	 push	 DWORD PTR __First$[ebp]
  00010	e8 00 00 00 00	 call	 ??$_Uninitialized_move@PAUForceInfo@@PAU1@V?$allocator@UForceInfo@@@std@@@std@@YAPAUForceInfo@@PAU1@00AAV?$allocator@UForceInfo@@@0@@Z ; std::_Uninitialized_move<ForceInfo *,ForceInfo *,std::allocator<ForceInfo> >
  00015	83 c4 10	 add	 esp, 16			; 00000010H

; 1326 : 		}

  00018	5d		 pop	 ebp
  00019	c2 0c 00	 ret	 12			; 0000000cH
??$_Umove@PAUForceInfo@@@?$vector@UForceInfo@@V?$allocator@UForceInfo@@@std@@@std@@IAEPAUForceInfo@@PAU2@00@Z ENDP ; std::vector<ForceInfo,std::allocator<ForceInfo> >::_Umove<ForceInfo *>
_TEXT	ENDS
PUBLIC	??$_Uninitialized_copy@V?$_Vector_const_iterator@V?$_Vector_val@UWeaponInfo@@V?$allocator@UWeaponInfo@@@std@@@std@@@std@@PAUWeaponInfo@@V?$allocator@UWeaponInfo@@@2@@std@@YAPAUWeaponInfo@@V?$_Vector_const_iterator@V?$_Vector_val@UWeaponInfo@@V?$allocator@UWeaponInfo@@@std@@@std@@@0@0PAU1@AAV?$allocator@UWeaponInfo@@@0@@Z ; std::_Uninitialized_copy<std::_Vector_const_iterator<std::_Vector_val<WeaponInfo,std::allocator<WeaponInfo> > >,WeaponInfo *,std::allocator<WeaponInfo> >
; Function compile flags: /Ogsp
; File c:\program files (x86)\microsoft visual studio 10.0\vc\include\memory
;	COMDAT ??$_Uninitialized_copy@V?$_Vector_const_iterator@V?$_Vector_val@UWeaponInfo@@V?$allocator@UWeaponInfo@@@std@@@std@@@std@@PAUWeaponInfo@@V?$allocator@UWeaponInfo@@@2@@std@@YAPAUWeaponInfo@@V?$_Vector_const_iterator@V?$_Vector_val@UWeaponInfo@@V?$allocator@UWeaponInfo@@@std@@@std@@@0@0PAU1@AAV?$allocator@UWeaponInfo@@@0@@Z
_TEXT	SEGMENT
__Cat$559019 = -4					; size = 1
__First$ = 8						; size = 4
__Last$ = 12						; size = 4
__Dest$ = 16						; size = 4
__Al$ = 20						; size = 4
??$_Uninitialized_copy@V?$_Vector_const_iterator@V?$_Vector_val@UWeaponInfo@@V?$allocator@UWeaponInfo@@@std@@@std@@@std@@PAUWeaponInfo@@V?$allocator@UWeaponInfo@@@2@@std@@YAPAUWeaponInfo@@V?$_Vector_const_iterator@V?$_Vector_val@UWeaponInfo@@V?$allocator@UWeaponInfo@@@std@@@std@@@0@0PAU1@AAV?$allocator@UWeaponInfo@@@0@@Z PROC ; std::_Uninitialized_copy<std::_Vector_const_iterator<std::_Vector_val<WeaponInfo,std::allocator<WeaponInfo> > >,WeaponInfo *,std::allocator<WeaponInfo> >, COMDAT

; 412  : 	{	// copy [_First, _Last) to raw _Dest, using _Al

  00000	55		 push	 ebp
  00001	8b ec		 mov	 ebp, esp
  00003	51		 push	 ecx

; 413  : 	return (_Uninit_copy(_First, _Last, _Dest, _Al,
; 414  : 		_Ptr_cat(_First, _Dest)));

  00004	ff 75 fc	 push	 DWORD PTR __Cat$559019[ebp]
  00007	ff 75 14	 push	 DWORD PTR __Al$[ebp]
  0000a	ff 75 10	 push	 DWORD PTR __Dest$[ebp]
  0000d	ff 75 0c	 push	 DWORD PTR __Last$[ebp]
  00010	ff 75 08	 push	 DWORD PTR __First$[ebp]
  00013	e8 00 00 00 00	 call	 ??$_Uninit_copy@V?$_Vector_const_iterator@V?$_Vector_val@UWeaponInfo@@V?$allocator@UWeaponInfo@@@std@@@std@@@std@@PAUWeaponInfo@@V?$allocator@UWeaponInfo@@@2@@std@@YAPAUWeaponInfo@@V?$_Vector_const_iterator@V?$_Vector_val@UWeaponInfo@@V?$allocator@UWeaponInfo@@@std@@@std@@@0@0PAU1@AAV?$allocator@UWeaponInfo@@@0@U_Nonscalar_ptr_iterator_tag@0@@Z ; std::_Uninit_copy<std::_Vector_const_iterator<std::_Vector_val<WeaponInfo,std::allocator<WeaponInfo> > >,WeaponInfo *,std::allocator<WeaponInfo> >
  00018	83 c4 14	 add	 esp, 20			; 00000014H

; 415  : 	}

  0001b	c9		 leave
  0001c	c3		 ret	 0
??$_Uninitialized_copy@V?$_Vector_const_iterator@V?$_Vector_val@UWeaponInfo@@V?$allocator@UWeaponInfo@@@std@@@std@@@std@@PAUWeaponInfo@@V?$allocator@UWeaponInfo@@@2@@std@@YAPAUWeaponInfo@@V?$_Vector_const_iterator@V?$_Vector_val@UWeaponInfo@@V?$allocator@UWeaponInfo@@@std@@@std@@@0@0PAU1@AAV?$allocator@UWeaponInfo@@@0@@Z ENDP ; std::_Uninitialized_copy<std::_Vector_const_iterator<std::_Vector_val<WeaponInfo,std::allocator<WeaponInfo> > >,WeaponInfo *,std::allocator<WeaponInfo> >
_TEXT	ENDS
PUBLIC	??$_Uninitialized_move@PAUWeaponInfo@@PAU1@V?$allocator@UWeaponInfo@@@std@@@std@@YAPAUWeaponInfo@@PAU1@00AAV?$allocator@UWeaponInfo@@@0@@Z ; std::_Uninitialized_move<WeaponInfo *,WeaponInfo *,std::allocator<WeaponInfo> >
; Function compile flags: /Ogsp
;	COMDAT ??$_Uninitialized_move@PAUWeaponInfo@@PAU1@V?$allocator@UWeaponInfo@@@std@@@std@@YAPAUWeaponInfo@@PAU1@00AAV?$allocator@UWeaponInfo@@@0@@Z
_TEXT	SEGMENT
__Cat$559026 = -4					; size = 1
__First$ = 8						; size = 4
__Last$ = 12						; size = 4
__Dest$ = 16						; size = 4
__Al$ = 20						; size = 4
??$_Uninitialized_move@PAUWeaponInfo@@PAU1@V?$allocator@UWeaponInfo@@@std@@@std@@YAPAUWeaponInfo@@PAU1@00AAV?$allocator@UWeaponInfo@@@0@@Z PROC ; std::_Uninitialized_move<WeaponInfo *,WeaponInfo *,std::allocator<WeaponInfo> >, COMDAT

; 469  : 	{	// move [_First, _Last) to raw _Dest, using _Al

  00000	55		 push	 ebp
  00001	8b ec		 mov	 ebp, esp
  00003	51		 push	 ecx

; 470  : 	return (_Uninit_move(_First, _Last, _Dest, _Al,
; 471  : 		_Val_type(_First), _Ptr_cat(_First, _Dest)));

  00004	ff 75 fc	 push	 DWORD PTR __Cat$559026[ebp]
  00007	6a 00		 push	 0
  00009	ff 75 14	 push	 DWORD PTR __Al$[ebp]
  0000c	ff 75 10	 push	 DWORD PTR __Dest$[ebp]
  0000f	ff 75 0c	 push	 DWORD PTR __Last$[ebp]
  00012	ff 75 08	 push	 DWORD PTR __First$[ebp]
  00015	e8 00 00 00 00	 call	 ??$_Uninit_move@PAUWeaponInfo@@PAU1@V?$allocator@UWeaponInfo@@@std@@U1@@std@@YAPAUWeaponInfo@@PAU1@00AAV?$allocator@UWeaponInfo@@@0@0U_Nonscalar_ptr_iterator_tag@0@@Z ; std::_Uninit_move<WeaponInfo *,WeaponInfo *,std::allocator<WeaponInfo>,WeaponInfo>
  0001a	83 c4 18	 add	 esp, 24			; 00000018H

; 472  : 	}

  0001d	c9		 leave
  0001e	c3		 ret	 0
??$_Uninitialized_move@PAUWeaponInfo@@PAU1@V?$allocator@UWeaponInfo@@@std@@@std@@YAPAUWeaponInfo@@PAU1@00AAV?$allocator@UWeaponInfo@@@0@@Z ENDP ; std::_Uninitialized_move<WeaponInfo *,WeaponInfo *,std::allocator<WeaponInfo> >
_TEXT	ENDS
PUBLIC	?_Destroy@?$vector@UForceInfo@@V?$allocator@UForceInfo@@@std@@@std@@IAEXPAUForceInfo@@0@Z ; std::vector<ForceInfo,std::allocator<ForceInfo> >::_Destroy
; Function compile flags: /Ogsp
; File c:\program files (x86)\microsoft visual studio 10.0\vc\include\vector
;	COMDAT ?_Destroy@?$vector@UForceInfo@@V?$allocator@UForceInfo@@@std@@@std@@IAEXPAUForceInfo@@0@Z
_TEXT	SEGMENT
__First$ = 8						; size = 4
__Last$ = 12						; size = 4
?_Destroy@?$vector@UForceInfo@@V?$allocator@UForceInfo@@@std@@@std@@IAEXPAUForceInfo@@0@Z PROC ; std::vector<ForceInfo,std::allocator<ForceInfo> >::_Destroy, COMDAT
; _this$ = ecx

; 1270 : 		_Destroy_range(_First, _Last, this->_Alval);
; 1271 : 		}

  00000	c2 08 00	 ret	 8
?_Destroy@?$vector@UForceInfo@@V?$allocator@UForceInfo@@@std@@@std@@IAEXPAUForceInfo@@0@Z ENDP ; std::vector<ForceInfo,std::allocator<ForceInfo> >::_Destroy
_TEXT	ENDS
PUBLIC	??$_Destroy_range@V?$allocator@UWeaponInfo@@@std@@@std@@YAXPAUWeaponInfo@@0AAV?$allocator@UWeaponInfo@@@0@@Z ; std::_Destroy_range<std::allocator<WeaponInfo> >
; Function compile flags: /Ogsp
; File c:\program files (x86)\microsoft visual studio 10.0\vc\include\xmemory
;	COMDAT ??$_Destroy_range@V?$allocator@UWeaponInfo@@@std@@@std@@YAXPAUWeaponInfo@@0AAV?$allocator@UWeaponInfo@@@0@@Z
_TEXT	SEGMENT
__First$ = 8						; size = 4
__Last$ = 12						; size = 4
__Al$ = 16						; size = 4
??$_Destroy_range@V?$allocator@UWeaponInfo@@@std@@@std@@YAXPAUWeaponInfo@@0AAV?$allocator@UWeaponInfo@@@0@@Z PROC ; std::_Destroy_range<std::allocator<WeaponInfo> >, COMDAT

; 87   : 	{	// destroy [_First, _Last)

  00000	55		 push	 ebp
  00001	8b ec		 mov	 ebp, esp
  00003	56		 push	 esi

; 88   : 	_Destroy_range(_First, _Last, _Al, _Ptr_cat(_First, _Last));

  00004	8b 75 08	 mov	 esi, DWORD PTR __First$[ebp]
  00007	eb 0c		 jmp	 SHORT $LN24@Destroy_ra@2
$LL7@Destroy_ra@2:
  00009	8d 4e 08	 lea	 ecx, DWORD PTR [esi+8]
  0000c	ff 15 00 00 00
	00		 call	 DWORD PTR __imp_??1ioHashString@@QAE@XZ
  00012	83 c6 28	 add	 esi, 40			; 00000028H
$LN24@Destroy_ra@2:
  00015	3b 75 0c	 cmp	 esi, DWORD PTR __Last$[ebp]
  00018	75 ef		 jne	 SHORT $LL7@Destroy_ra@2
  0001a	5e		 pop	 esi

; 89   : 	}

  0001b	5d		 pop	 ebp
  0001c	c3		 ret	 0
??$_Destroy_range@V?$allocator@UWeaponInfo@@@std@@@std@@YAXPAUWeaponInfo@@0AAV?$allocator@UWeaponInfo@@@0@@Z ENDP ; std::_Destroy_range<std::allocator<WeaponInfo> >
_TEXT	ENDS
PUBLIC	?erase@?$vector@UForceInfo@@V?$allocator@UForceInfo@@@std@@@std@@QAE?AV?$_Vector_iterator@V?$_Vector_val@UForceInfo@@V?$allocator@UForceInfo@@@std@@@std@@@2@V?$_Vector_const_iterator@V?$_Vector_val@UForceInfo@@V?$allocator@UForceInfo@@@std@@@std@@@2@0@Z ; std::vector<ForceInfo,std::allocator<ForceInfo> >::erase
; Function compile flags: /Ogsp
; File c:\program files (x86)\microsoft visual studio 10.0\vc\include\vector
;	COMDAT ?erase@?$vector@UForceInfo@@V?$allocator@UForceInfo@@@std@@@std@@QAE?AV?$_Vector_iterator@V?$_Vector_val@UForceInfo@@V?$allocator@UForceInfo@@@std@@@std@@@2@V?$_Vector_const_iterator@V?$_Vector_val@UForceInfo@@V?$allocator@UForceInfo@@@std@@@std@@@2@0@Z
_TEXT	SEGMENT
___$ReturnUdt$ = 8					; size = 4
__First_arg$ = 12					; size = 4
__Cat$559230 = 16					; size = 1
__Last_arg$ = 16					; size = 4
?erase@?$vector@UForceInfo@@V?$allocator@UForceInfo@@@std@@@std@@QAE?AV?$_Vector_iterator@V?$_Vector_val@UForceInfo@@V?$allocator@UForceInfo@@@std@@@std@@@2@V?$_Vector_const_iterator@V?$_Vector_val@UForceInfo@@V?$allocator@UForceInfo@@@std@@@std@@@2@0@Z PROC ; std::vector<ForceInfo,std::allocator<ForceInfo> >::erase, COMDAT
; _this$ = ecx

; 1190 : 		{	// erase [_First, _Last)

  00000	55		 push	 ebp
  00001	8b ec		 mov	 ebp, esp

; 1191 : 		iterator _First = _Make_iter(_First_arg);

  00003	8b 45 0c	 mov	 eax, DWORD PTR __First_arg$[ebp]
  00006	56		 push	 esi
  00007	57		 push	 edi
  00008	8b 7d 08	 mov	 edi, DWORD PTR ___$ReturnUdt$[ebp]
  0000b	8b f1		 mov	 esi, ecx
  0000d	89 07		 mov	 DWORD PTR [edi], eax

; 1192 : 		iterator _Last = _Make_iter(_Last_arg);
; 1193 : 
; 1194 : 		if (_First != _Last)

  0000f	3b 45 10	 cmp	 eax, DWORD PTR __Last_arg$[ebp]
  00012	74 16		 je	 SHORT $LN1@erase

; 1195 : 			{	// worth doing, copy down over hole
; 1196 :  #if _ITERATOR_DEBUG_LEVEL == 2
; 1197 : 			if (_Last < _First || _VICONT(_First) != this
; 1198 : 				|| _VIPTR(_First) < this->_Myfirst
; 1199 : 				|| this->_Mylast < _VIPTR(_Last))
; 1200 : 				_DEBUG_ERROR("vector erase iterator outside range");
; 1201 : 			pointer _Ptr = _Move(_VIPTR(_Last), this->_Mylast,
; 1202 : 				_VIPTR(_First));
; 1203 : 			_Orphan_range(_VIPTR(_First), this->_Mylast);
; 1204 : 
; 1205 :  #else /* _ITERATOR_DEBUG_LEVEL == 2 */
; 1206 : 			pointer _Ptr = _Move(_VIPTR(_Last), this->_Mylast,
; 1207 : 				_VIPTR(_First));

  00014	ff 75 10	 push	 DWORD PTR __Cat$559230[ebp]
  00017	8b 4e 04	 mov	 ecx, DWORD PTR [esi+4]
  0001a	50		 push	 eax
  0001b	51		 push	 ecx
  0001c	ff 75 10	 push	 DWORD PTR __Last_arg$[ebp]
  0001f	e8 00 00 00 00	 call	 ??$_Move@PAUForceInfo@@PAU1@@std@@YAPAUForceInfo@@PAU1@00U_Nonscalar_ptr_iterator_tag@0@@Z ; std::_Move<ForceInfo *,ForceInfo *>
  00024	83 c4 10	 add	 esp, 16			; 00000010H

; 1208 :  #endif /* _ITERATOR_DEBUG_LEVEL == 2 */
; 1209 : 
; 1210 : 			_Destroy(_Ptr, this->_Mylast);
; 1211 : 			this->_Mylast = _Ptr;

  00027	89 46 04	 mov	 DWORD PTR [esi+4], eax
$LN1@erase:

; 1212 : 			}
; 1213 : 		return (_First);

  0002a	8b c7		 mov	 eax, edi
  0002c	5f		 pop	 edi
  0002d	5e		 pop	 esi

; 1214 : 		}

  0002e	5d		 pop	 ebp
  0002f	c2 0c 00	 ret	 12			; 0000000cH
?erase@?$vector@UForceInfo@@V?$allocator@UForceInfo@@@std@@@std@@QAE?AV?$_Vector_iterator@V?$_Vector_val@UForceInfo@@V?$allocator@UForceInfo@@@std@@@std@@@2@V?$_Vector_const_iterator@V?$_Vector_val@UForceInfo@@V?$allocator@UForceInfo@@@std@@@std@@@2@0@Z ENDP ; std::vector<ForceInfo,std::allocator<ForceInfo> >::erase
_TEXT	ENDS
PUBLIC	?reserve@?$vector@UForceInfo@@V?$allocator@UForceInfo@@@std@@@std@@QAEXI@Z ; std::vector<ForceInfo,std::allocator<ForceInfo> >::reserve
EXTRN	__imp_?_Orphan_all@_Container_base0@std@@QAEXXZ:PROC
;	COMDAT xdata$x
; File c:\program files (x86)\microsoft visual studio 10.0\vc\include\xmemory
xdata$x	SEGMENT
__catchsym$?reserve@?$vector@UForceInfo@@V?$allocator@UForceInfo@@@std@@@std@@QAEXI@Z$2 DD 040H
	DD	00H
	DD	00H
	DD	FLAT:__catch$?reserve@?$vector@UForceInfo@@V?$allocator@UForceInfo@@@std@@@std@@QAEXI@Z$0
__unwindtable$?reserve@?$vector@UForceInfo@@V?$allocator@UForceInfo@@@std@@@std@@QAEXI@Z DD 0ffffffffH
	DD	00H
	DD	0ffffffffH
	DD	00H
__tryblocktable$?reserve@?$vector@UForceInfo@@V?$allocator@UForceInfo@@@std@@@std@@QAEXI@Z DD 00H
	DD	00H
	DD	01H
	DD	01H
	DD	FLAT:__catchsym$?reserve@?$vector@UForceInfo@@V?$allocator@UForceInfo@@@std@@@std@@QAEXI@Z$2
__ehfuncinfo$?reserve@?$vector@UForceInfo@@V?$allocator@UForceInfo@@@std@@@std@@QAEXI@Z DD 019930522H
	DD	02H
	DD	FLAT:__unwindtable$?reserve@?$vector@UForceInfo@@V?$allocator@UForceInfo@@@std@@@std@@QAEXI@Z
	DD	01H
	DD	FLAT:__tryblocktable$?reserve@?$vector@UForceInfo@@V?$allocator@UForceInfo@@@std@@@std@@QAEXI@Z
	DD	2 DUP(00H)
	DD	00H
	DD	01H
; Function compile flags: /Ogsp
; File c:\program files (x86)\microsoft visual studio 10.0\vc\include\vector
xdata$x	ENDS
;	COMDAT ?reserve@?$vector@UForceInfo@@V?$allocator@UForceInfo@@@std@@@std@@QAEXI@Z
_TEXT	SEGMENT
__$EHRec$ = -16						; size = 16
__Ptr$551194 = 8					; size = 4
__Count$ = 8						; size = 4
?reserve@?$vector@UForceInfo@@V?$allocator@UForceInfo@@@std@@@std@@QAEXI@Z PROC ; std::vector<ForceInfo,std::allocator<ForceInfo> >::reserve, COMDAT
; _this$ = ecx

; 746  : 		{	// determine new minimum length of allocated storage

  00000	6a 04		 push	 4
  00002	b8 00 00 00 00	 mov	 eax, __ehhandler$?reserve@?$vector@UForceInfo@@V?$allocator@UForceInfo@@@std@@@std@@QAEXI@Z
  00007	e8 00 00 00 00	 call	 __EH_prolog3_catch
  0000c	8b f1		 mov	 esi, ecx

; 747  : 		if (max_size() < _Count)

  0000e	8b 5d 08	 mov	 ebx, DWORD PTR __Count$[ebp]
  00011	81 fb 55 55 55
	15		 cmp	 ebx, 357913941		; 15555555H
  00017	76 0b		 jbe	 SHORT $LN5@reserve

; 748  : 			_Xlen();	// result too long

  00019	68 00 00 00 00	 push	 OFFSET ??_C@_0BD@OLBABOEK@vector?$DMT?$DO?5too?5long?$AA@
  0001e	ff 15 00 00 00
	00		 call	 DWORD PTR __imp_?_Xlength_error@std@@YAXPBD@Z
$LN56@reserve:
$LN5@reserve:

; 749  : 		else if (capacity() < _Count)

  00024	8b 46 08	 mov	 eax, DWORD PTR [esi+8]
  00027	2b 06		 sub	 eax, DWORD PTR [esi]
  00029	6a 0c		 push	 12			; 0000000cH
  0002b	99		 cdq
  0002c	59		 pop	 ecx
  0002d	f7 f9		 idiv	 ecx
  0002f	3b c3		 cmp	 eax, ebx
  00031	73 6b		 jae	 SHORT $LN3@reserve

; 750  : 			{	// not enough room, reallocate
; 751  : 			pointer _Ptr = this->_Alval.allocate(_Count);

  00033	6a 00		 push	 0
  00035	53		 push	 ebx
  00036	e8 00 00 00 00	 call	 ??$_Allocate@UForceInfo@@@std@@YAPAUForceInfo@@IPAU1@@Z ; std::_Allocate<ForceInfo>

; 752  : 
; 753  : 			_TRY_BEGIN
; 754  : 			_Umove(this->_Myfirst, this->_Mylast, _Ptr);

  0003b	8b 0e		 mov	 ecx, DWORD PTR [esi]
  0003d	83 65 fc 00	 and	 DWORD PTR __$EHRec$[ebp+12], 0
  00041	8d 56 0c	 lea	 edx, DWORD PTR [esi+12]
  00044	52		 push	 edx
  00045	89 45 08	 mov	 DWORD PTR __Ptr$551194[ebp], eax
  00048	ff 75 08	 push	 DWORD PTR __Ptr$551194[ebp]
  0004b	8b 46 04	 mov	 eax, DWORD PTR [esi+4]
  0004e	50		 push	 eax
  0004f	51		 push	 ecx
  00050	e8 00 00 00 00	 call	 ??$_Uninitialized_move@PAUForceInfo@@PAU1@V?$allocator@UForceInfo@@@std@@@std@@YAPAUForceInfo@@PAU1@00AAV?$allocator@UForceInfo@@@0@@Z ; std::_Uninitialized_move<ForceInfo *,ForceInfo *,std::allocator<ForceInfo> >

; 758  : 			_CATCH_END
; 759  : 
; 760  : 			size_type _Size = size();

  00055	8b 0e		 mov	 ecx, DWORD PTR [esi]
  00057	8b 46 04	 mov	 eax, DWORD PTR [esi+4]
  0005a	83 c4 18	 add	 esp, 24			; 00000018H
  0005d	2b c1		 sub	 eax, ecx
  0005f	6a 0c		 push	 12			; 0000000cH
  00061	99		 cdq
  00062	5f		 pop	 edi
  00063	f7 ff		 idiv	 edi
  00065	83 4d fc ff	 or	 DWORD PTR __$EHRec$[ebp+12], -1
  00069	8b f8		 mov	 edi, eax
  0006b	85 c9		 test	 ecx, ecx
  0006d	74 12		 je	 SHORT $LN48@reserve

; 761  : 			if (this->_Myfirst != 0)

  0006f	eb 03		 jmp	 SHORT $LN55@reserve

; 762  : 				{	// destroy and deallocate old array
; 763  : 				_Destroy(this->_Myfirst, this->_Mylast);

$LL39@reserve:
  00071	83 c1 0c	 add	 ecx, 12			; 0000000cH
$LN55@reserve:
  00074	3b 4e 04	 cmp	 ecx, DWORD PTR [esi+4]
  00077	75 f8		 jne	 SHORT $LL39@reserve

; 764  : 				this->_Alval.deallocate(this->_Myfirst,
; 765  : 					this->_Myend - this->_Myfirst);

  00079	ff 36		 push	 DWORD PTR [esi]
  0007b	e8 00 00 00 00	 call	 ??3@YAXPAX@Z		; operator delete
  00080	59		 pop	 ecx
$LN48@reserve:

; 766  : 				}
; 767  : 
; 768  : 			this->_Orphan_all();

  00081	8b ce		 mov	 ecx, esi
  00083	ff 15 00 00 00
	00		 call	 DWORD PTR __imp_?_Orphan_all@_Container_base0@std@@QAEXXZ

; 769  : 			this->_Myend = _Ptr + _Count;

  00089	6b db 0c	 imul	 ebx, 12			; 0000000cH

; 770  : 			this->_Mylast = _Ptr + _Size;

  0008c	6b ff 0c	 imul	 edi, 12			; 0000000cH
  0008f	8b 45 08	 mov	 eax, DWORD PTR __Ptr$551194[ebp]
  00092	03 d8		 add	 ebx, eax
  00094	03 f8		 add	 edi, eax
  00096	89 5e 08	 mov	 DWORD PTR [esi+8], ebx
  00099	89 7e 04	 mov	 DWORD PTR [esi+4], edi

; 771  : 			this->_Myfirst = _Ptr;

  0009c	89 06		 mov	 DWORD PTR [esi], eax
$LN3@reserve:

; 772  : 			}
; 773  : 		}

  0009e	e8 00 00 00 00	 call	 __EH_epilog3
  000a3	c2 04 00	 ret	 4
__catch$?reserve@?$vector@UForceInfo@@V?$allocator@UForceInfo@@@std@@@std@@QAEXI@Z$0:

; 755  : 			_CATCH_ALL
; 756  : 			this->_Alval.deallocate(_Ptr, _Count);

  000a6	ff 75 08	 push	 DWORD PTR __Ptr$551194[ebp]
  000a9	e8 00 00 00 00	 call	 ??3@YAXPAX@Z		; operator delete
  000ae	59		 pop	 ecx

; 757  : 			_RERAISE;

  000af	6a 00		 push	 0
  000b1	6a 00		 push	 0
  000b3	e8 00 00 00 00	 call	 __CxxThrowException@8
$LN57@reserve:
$LN54@reserve:
  000b8	cc		 int	 3
_TEXT	ENDS
;	COMDAT text$x
text$x	SEGMENT
__ehhandler$?reserve@?$vector@UForceInfo@@V?$allocator@UForceInfo@@@std@@@std@@QAEXI@Z:
  00000	8b 54 24 08	 mov	 edx, DWORD PTR [esp+8]
  00004	8d 42 0c	 lea	 eax, DWORD PTR [edx+12]
  00007	8b 4a ec	 mov	 ecx, DWORD PTR [edx-20]
  0000a	33 c8		 xor	 ecx, eax
  0000c	e8 00 00 00 00	 call	 @__security_check_cookie@4
  00011	b8 00 00 00 00	 mov	 eax, OFFSET __ehfuncinfo$?reserve@?$vector@UForceInfo@@V?$allocator@UForceInfo@@@std@@@std@@QAEXI@Z
  00016	e9 00 00 00 00	 jmp	 ___CxxFrameHandler3
text$x	ENDS
?reserve@?$vector@UForceInfo@@V?$allocator@UForceInfo@@@std@@@std@@QAEXI@Z ENDP ; std::vector<ForceInfo,std::allocator<ForceInfo> >::reserve
PUBLIC	?_Reserve@?$vector@UForceInfo@@V?$allocator@UForceInfo@@@std@@@std@@IAEXI@Z ; std::vector<ForceInfo,std::allocator<ForceInfo> >::_Reserve
; Function compile flags: /Ogsp
;	COMDAT ?_Reserve@?$vector@UForceInfo@@V?$allocator@UForceInfo@@@std@@@std@@IAEXI@Z
_TEXT	SEGMENT
__Count$ = 8						; size = 4
?_Reserve@?$vector@UForceInfo@@V?$allocator@UForceInfo@@@std@@@std@@IAEXI@Z PROC ; std::vector<ForceInfo,std::allocator<ForceInfo> >::_Reserve, COMDAT
; _this$ = ecx

; 1290 : 		{	// ensure room for _Count new elements, grow exponentially

  00000	55		 push	 ebp
  00001	8b ec		 mov	 ebp, esp
  00003	56		 push	 esi
  00004	8b f1		 mov	 esi, ecx

; 1291 : 		size_type _Size = size();

  00006	8b 0e		 mov	 ecx, DWORD PTR [esi]
  00008	8b 46 04	 mov	 eax, DWORD PTR [esi+4]
  0000b	2b c1		 sub	 eax, ecx
  0000d	57		 push	 edi
  0000e	99		 cdq
  0000f	6a 0c		 push	 12			; 0000000cH
  00011	5f		 pop	 edi
  00012	f7 ff		 idiv	 edi
  00014	8b f8		 mov	 edi, eax

; 1292 : 		if (max_size() - _Count < _Size)

  00016	b8 55 55 55 15	 mov	 eax, 357913941		; 15555555H
  0001b	2b 45 08	 sub	 eax, DWORD PTR __Count$[ebp]
  0001e	3b c7		 cmp	 eax, edi
  00020	73 0b		 jae	 SHORT $LN4@Reserve

; 1293 : 			_Xlen();

  00022	68 00 00 00 00	 push	 OFFSET ??_C@_0BD@OLBABOEK@vector?$DMT?$DO?5too?5long?$AA@
  00027	ff 15 00 00 00
	00		 call	 DWORD PTR __imp_?_Xlength_error@std@@YAXPBD@Z
$LN21@Reserve:
$LN4@Reserve:

; 1294 : 		else if ((_Size += _Count) <= capacity())

  0002d	8b 46 08	 mov	 eax, DWORD PTR [esi+8]
  00030	2b c1		 sub	 eax, ecx
  00032	6a 0c		 push	 12			; 0000000cH
  00034	99		 cdq
  00035	59		 pop	 ecx
  00036	f7 f9		 idiv	 ecx
  00038	03 7d 08	 add	 edi, DWORD PTR __Count$[ebp]
  0003b	3b f8		 cmp	 edi, eax
  0003d	76 10		 jbe	 SHORT $LN1@Reserve

; 1295 : 			;
; 1296 : 		else
; 1297 : 			reserve(_Grow_to(_Size));

  0003f	57		 push	 edi
  00040	8b ce		 mov	 ecx, esi
  00042	e8 00 00 00 00	 call	 ?_Grow_to@?$vector@UForceInfo@@V?$allocator@UForceInfo@@@std@@@std@@IBEII@Z ; std::vector<ForceInfo,std::allocator<ForceInfo> >::_Grow_to
  00047	50		 push	 eax
  00048	8b ce		 mov	 ecx, esi
  0004a	e8 00 00 00 00	 call	 ?reserve@?$vector@UForceInfo@@V?$allocator@UForceInfo@@@std@@@std@@QAEXI@Z ; std::vector<ForceInfo,std::allocator<ForceInfo> >::reserve
$LN1@Reserve:
  0004f	5f		 pop	 edi
  00050	5e		 pop	 esi

; 1298 : 		}

  00051	5d		 pop	 ebp
  00052	c2 04 00	 ret	 4
$LN20@Reserve:
?_Reserve@?$vector@UForceInfo@@V?$allocator@UForceInfo@@@std@@@std@@IAEXI@Z ENDP ; std::vector<ForceInfo,std::allocator<ForceInfo> >::_Reserve
_TEXT	ENDS
PUBLIC	??$_Ucopy@V?$_Vector_const_iterator@V?$_Vector_val@UWeaponInfo@@V?$allocator@UWeaponInfo@@@std@@@std@@@std@@@?$vector@UWeaponInfo@@V?$allocator@UWeaponInfo@@@std@@@std@@IAEPAUWeaponInfo@@V?$_Vector_const_iterator@V?$_Vector_val@UWeaponInfo@@V?$allocator@UWeaponInfo@@@std@@@std@@@1@0PAU2@@Z ; std::vector<WeaponInfo,std::allocator<WeaponInfo> >::_Ucopy<std::_Vector_const_iterator<std::_Vector_val<WeaponInfo,std::allocator<WeaponInfo> > > >
; Function compile flags: /Ogsp
;	COMDAT ??$_Ucopy@V?$_Vector_const_iterator@V?$_Vector_val@UWeaponInfo@@V?$allocator@UWeaponInfo@@@std@@@std@@@std@@@?$vector@UWeaponInfo@@V?$allocator@UWeaponInfo@@@std@@@std@@IAEPAUWeaponInfo@@V?$_Vector_const_iterator@V?$_Vector_val@UWeaponInfo@@V?$allocator@UWeaponInfo@@@std@@@std@@@1@0PAU2@@Z
_TEXT	SEGMENT
__First$ = 8						; size = 4
__Last$ = 12						; size = 4
__Cat$559484 = 16					; size = 1
__Ptr$ = 16						; size = 4
??$_Ucopy@V?$_Vector_const_iterator@V?$_Vector_val@UWeaponInfo@@V?$allocator@UWeaponInfo@@@std@@@std@@@std@@@?$vector@UWeaponInfo@@V?$allocator@UWeaponInfo@@@std@@@std@@IAEPAUWeaponInfo@@V?$_Vector_const_iterator@V?$_Vector_val@UWeaponInfo@@V?$allocator@UWeaponInfo@@@std@@@std@@@1@0PAU2@@Z PROC ; std::vector<WeaponInfo,std::allocator<WeaponInfo> >::_Ucopy<std::_Vector_const_iterator<std::_Vector_val<WeaponInfo,std::allocator<WeaponInfo> > > >, COMDAT
; _this$ = ecx

; 1315 : 		pointer _Ucopy(_Iter _First, _Iter _Last, pointer _Ptr)

  00000	55		 push	 ebp
  00001	8b ec		 mov	 ebp, esp

; 1316 : 		{	// copy initializing [_First, _Last), using allocator
; 1317 : 		return (_Uninitialized_copy(_First, _Last,
; 1318 : 			_Ptr, this->_Alval));

  00003	ff 75 10	 push	 DWORD PTR __Cat$559484[ebp]
  00006	83 c1 0c	 add	 ecx, 12			; 0000000cH
  00009	51		 push	 ecx
  0000a	ff 75 10	 push	 DWORD PTR __Ptr$[ebp]
  0000d	ff 75 0c	 push	 DWORD PTR __Last$[ebp]
  00010	ff 75 08	 push	 DWORD PTR __First$[ebp]
  00013	e8 00 00 00 00	 call	 ??$_Uninit_copy@V?$_Vector_const_iterator@V?$_Vector_val@UWeaponInfo@@V?$allocator@UWeaponInfo@@@std@@@std@@@std@@PAUWeaponInfo@@V?$allocator@UWeaponInfo@@@2@@std@@YAPAUWeaponInfo@@V?$_Vector_const_iterator@V?$_Vector_val@UWeaponInfo@@V?$allocator@UWeaponInfo@@@std@@@std@@@0@0PAU1@AAV?$allocator@UWeaponInfo@@@0@U_Nonscalar_ptr_iterator_tag@0@@Z ; std::_Uninit_copy<std::_Vector_const_iterator<std::_Vector_val<WeaponInfo,std::allocator<WeaponInfo> > >,WeaponInfo *,std::allocator<WeaponInfo> >
  00018	83 c4 14	 add	 esp, 20			; 00000014H

; 1319 : 		}

  0001b	5d		 pop	 ebp
  0001c	c2 0c 00	 ret	 12			; 0000000cH
??$_Ucopy@V?$_Vector_const_iterator@V?$_Vector_val@UWeaponInfo@@V?$allocator@UWeaponInfo@@@std@@@std@@@std@@@?$vector@UWeaponInfo@@V?$allocator@UWeaponInfo@@@std@@@std@@IAEPAUWeaponInfo@@V?$_Vector_const_iterator@V?$_Vector_val@UWeaponInfo@@V?$allocator@UWeaponInfo@@@std@@@std@@@1@0PAU2@@Z ENDP ; std::vector<WeaponInfo,std::allocator<WeaponInfo> >::_Ucopy<std::_Vector_const_iterator<std::_Vector_val<WeaponInfo,std::allocator<WeaponInfo> > > >
_TEXT	ENDS
PUBLIC	??$_Umove@PAUWeaponInfo@@@?$vector@UWeaponInfo@@V?$allocator@UWeaponInfo@@@std@@@std@@IAEPAUWeaponInfo@@PAU2@00@Z ; std::vector<WeaponInfo,std::allocator<WeaponInfo> >::_Umove<WeaponInfo *>
; Function compile flags: /Ogsp
;	COMDAT ??$_Umove@PAUWeaponInfo@@@?$vector@UWeaponInfo@@V?$allocator@UWeaponInfo@@@std@@@std@@IAEPAUWeaponInfo@@PAU2@00@Z
_TEXT	SEGMENT
__First$ = 8						; size = 4
__Last$ = 12						; size = 4
__Ptr$ = 16						; size = 4
??$_Umove@PAUWeaponInfo@@@?$vector@UWeaponInfo@@V?$allocator@UWeaponInfo@@@std@@@std@@IAEPAUWeaponInfo@@PAU2@00@Z PROC ; std::vector<WeaponInfo,std::allocator<WeaponInfo> >::_Umove<WeaponInfo *>, COMDAT
; _this$ = ecx

; 1322 : 		pointer _Umove(_Iter _First, _Iter _Last, pointer _Ptr)

  00000	55		 push	 ebp
  00001	8b ec		 mov	 ebp, esp

; 1323 : 		{	// move initializing [_First, _Last), using allocator
; 1324 : 		return (_Uninitialized_move(_First, _Last,
; 1325 : 			_Ptr, this->_Alval));

  00003	83 c1 0c	 add	 ecx, 12			; 0000000cH
  00006	51		 push	 ecx
  00007	ff 75 10	 push	 DWORD PTR __Ptr$[ebp]
  0000a	ff 75 0c	 push	 DWORD PTR __Last$[ebp]
  0000d	ff 75 08	 push	 DWORD PTR __First$[ebp]
  00010	e8 00 00 00 00	 call	 ??$_Uninitialized_move@PAUWeaponInfo@@PAU1@V?$allocator@UWeaponInfo@@@std@@@std@@YAPAUWeaponInfo@@PAU1@00AAV?$allocator@UWeaponInfo@@@0@@Z ; std::_Uninitialized_move<WeaponInfo *,WeaponInfo *,std::allocator<WeaponInfo> >
  00015	83 c4 10	 add	 esp, 16			; 00000010H

; 1326 : 		}

  00018	5d		 pop	 ebp
  00019	c2 0c 00	 ret	 12			; 0000000cH
??$_Umove@PAUWeaponInfo@@@?$vector@UWeaponInfo@@V?$allocator@UWeaponInfo@@@std@@@std@@IAEPAUWeaponInfo@@PAU2@00@Z ENDP ; std::vector<WeaponInfo,std::allocator<WeaponInfo> >::_Umove<WeaponInfo *>
_TEXT	ENDS
PUBLIC	?_Tidy@?$vector@UForceInfo@@V?$allocator@UForceInfo@@@std@@@std@@IAEXXZ ; std::vector<ForceInfo,std::allocator<ForceInfo> >::_Tidy
; Function compile flags: /Ogsp
;	COMDAT ?_Tidy@?$vector@UForceInfo@@V?$allocator@UForceInfo@@@std@@@std@@IAEXXZ
_TEXT	SEGMENT
?_Tidy@?$vector@UForceInfo@@V?$allocator@UForceInfo@@@std@@@std@@IAEXXZ PROC ; std::vector<ForceInfo,std::allocator<ForceInfo> >::_Tidy, COMDAT
; _this$ = ecx

; 1301 : 		{	// free all storage

  00000	56		 push	 esi
  00001	8b f1		 mov	 esi, ecx

; 1302 : 		if (this->_Myfirst != 0)

  00003	83 3e 00	 cmp	 DWORD PTR [esi], 0
  00006	74 0e		 je	 SHORT $LN21@Tidy

; 1303 : 			{	// something to free, destroy and deallocate it
; 1304 : 			this->_Orphan_all();

  00008	ff 15 00 00 00
	00		 call	 DWORD PTR __imp_?_Orphan_all@_Container_base0@std@@QAEXXZ

; 1305 : 			_Destroy(this->_Myfirst, this->_Mylast);
; 1306 : 			this->_Alval.deallocate(this->_Myfirst,
; 1307 : 				this->_Myend - this->_Myfirst);

  0000e	ff 36		 push	 DWORD PTR [esi]
  00010	e8 00 00 00 00	 call	 ??3@YAXPAX@Z		; operator delete
  00015	59		 pop	 ecx
$LN21@Tidy:

; 1308 : 			}
; 1309 : 		this->_Myfirst = 0;

  00016	83 26 00	 and	 DWORD PTR [esi], 0

; 1310 : 		this->_Mylast = 0;

  00019	83 66 04 00	 and	 DWORD PTR [esi+4], 0

; 1311 : 		this->_Myend = 0;

  0001d	83 66 08 00	 and	 DWORD PTR [esi+8], 0
  00021	5e		 pop	 esi

; 1312 : 		}

  00022	c3		 ret	 0
?_Tidy@?$vector@UForceInfo@@V?$allocator@UForceInfo@@@std@@@std@@IAEXXZ ENDP ; std::vector<ForceInfo,std::allocator<ForceInfo> >::_Tidy
_TEXT	ENDS
PUBLIC	?_Destroy@?$vector@UWeaponInfo@@V?$allocator@UWeaponInfo@@@std@@@std@@IAEXPAUWeaponInfo@@0@Z ; std::vector<WeaponInfo,std::allocator<WeaponInfo> >::_Destroy
; Function compile flags: /Ogsp
;	COMDAT ?_Destroy@?$vector@UWeaponInfo@@V?$allocator@UWeaponInfo@@@std@@@std@@IAEXPAUWeaponInfo@@0@Z
_TEXT	SEGMENT
__First$ = 8						; size = 4
__Last$ = 12						; size = 4
?_Destroy@?$vector@UWeaponInfo@@V?$allocator@UWeaponInfo@@@std@@@std@@IAEXPAUWeaponInfo@@0@Z PROC ; std::vector<WeaponInfo,std::allocator<WeaponInfo> >::_Destroy, COMDAT
; _this$ = ecx

; 1269 : 		{	// destroy [_First, _Last) using allocator

  00000	55		 push	 ebp
  00001	8b ec		 mov	 ebp, esp

; 1270 : 		_Destroy_range(_First, _Last, this->_Alval);

  00003	83 c1 0c	 add	 ecx, 12			; 0000000cH
  00006	51		 push	 ecx
  00007	ff 75 0c	 push	 DWORD PTR __Last$[ebp]
  0000a	ff 75 08	 push	 DWORD PTR __First$[ebp]
  0000d	e8 00 00 00 00	 call	 ??$_Destroy_range@V?$allocator@UWeaponInfo@@@std@@@std@@YAXPAUWeaponInfo@@0AAV?$allocator@UWeaponInfo@@@0@@Z ; std::_Destroy_range<std::allocator<WeaponInfo> >
  00012	83 c4 0c	 add	 esp, 12			; 0000000cH

; 1271 : 		}

  00015	5d		 pop	 ebp
  00016	c2 08 00	 ret	 8
?_Destroy@?$vector@UWeaponInfo@@V?$allocator@UWeaponInfo@@@std@@@std@@IAEXPAUWeaponInfo@@0@Z ENDP ; std::vector<WeaponInfo,std::allocator<WeaponInfo> >::_Destroy
_TEXT	ENDS
PUBLIC	?clear@?$vector@UForceInfo@@V?$allocator@UForceInfo@@@std@@@std@@QAEXXZ ; std::vector<ForceInfo,std::allocator<ForceInfo> >::clear
; Function compile flags: /Ogsp
;	COMDAT ?clear@?$vector@UForceInfo@@V?$allocator@UForceInfo@@@std@@@std@@QAEXXZ
_TEXT	SEGMENT
$T559579 = -4						; size = 4
?clear@?$vector@UForceInfo@@V?$allocator@UForceInfo@@@std@@@std@@QAEXXZ PROC ; std::vector<ForceInfo,std::allocator<ForceInfo> >::clear, COMDAT
; _this$ = ecx

; 1217 : 		{	// erase all

  00000	55		 push	 ebp
  00001	8b ec		 mov	 ebp, esp
  00003	51		 push	 ecx

; 1218 : 		erase(begin(), end());

  00004	8b 41 04	 mov	 eax, DWORD PTR [ecx+4]
  00007	8b 11		 mov	 edx, DWORD PTR [ecx]
  00009	50		 push	 eax
  0000a	52		 push	 edx
  0000b	8d 45 fc	 lea	 eax, DWORD PTR $T559579[ebp]
  0000e	50		 push	 eax
  0000f	e8 00 00 00 00	 call	 ?erase@?$vector@UForceInfo@@V?$allocator@UForceInfo@@@std@@@std@@QAE?AV?$_Vector_iterator@V?$_Vector_val@UForceInfo@@V?$allocator@UForceInfo@@@std@@@std@@@2@V?$_Vector_const_iterator@V?$_Vector_val@UForceInfo@@V?$allocator@UForceInfo@@@std@@@std@@@2@0@Z ; std::vector<ForceInfo,std::allocator<ForceInfo> >::erase

; 1219 : 		}

  00014	c9		 leave
  00015	c3		 ret	 0
?clear@?$vector@UForceInfo@@V?$allocator@UForceInfo@@@std@@@std@@QAEXXZ ENDP ; std::vector<ForceInfo,std::allocator<ForceInfo> >::clear
_TEXT	ENDS
PUBLIC	?erase@?$vector@UWeaponInfo@@V?$allocator@UWeaponInfo@@@std@@@std@@QAE?AV?$_Vector_iterator@V?$_Vector_val@UWeaponInfo@@V?$allocator@UWeaponInfo@@@std@@@std@@@2@V?$_Vector_const_iterator@V?$_Vector_val@UWeaponInfo@@V?$allocator@UWeaponInfo@@@std@@@std@@@2@0@Z ; std::vector<WeaponInfo,std::allocator<WeaponInfo> >::erase
; Function compile flags: /Ogsp
;	COMDAT ?erase@?$vector@UWeaponInfo@@V?$allocator@UWeaponInfo@@@std@@@std@@QAE?AV?$_Vector_iterator@V?$_Vector_val@UWeaponInfo@@V?$allocator@UWeaponInfo@@@std@@@std@@@2@V?$_Vector_const_iterator@V?$_Vector_val@UWeaponInfo@@V?$allocator@UWeaponInfo@@@std@@@std@@@2@0@Z
_TEXT	SEGMENT
___$ReturnUdt$ = 8					; size = 4
__First_arg$ = 12					; size = 4
__Cat$559706 = 16					; size = 1
__Last_arg$ = 16					; size = 4
?erase@?$vector@UWeaponInfo@@V?$allocator@UWeaponInfo@@@std@@@std@@QAE?AV?$_Vector_iterator@V?$_Vector_val@UWeaponInfo@@V?$allocator@UWeaponInfo@@@std@@@std@@@2@V?$_Vector_const_iterator@V?$_Vector_val@UWeaponInfo@@V?$allocator@UWeaponInfo@@@std@@@std@@@2@0@Z PROC ; std::vector<WeaponInfo,std::allocator<WeaponInfo> >::erase, COMDAT
; _this$ = ecx

; 1190 : 		{	// erase [_First, _Last)

  00000	55		 push	 ebp
  00001	8b ec		 mov	 ebp, esp

; 1191 : 		iterator _First = _Make_iter(_First_arg);

  00003	8b 45 0c	 mov	 eax, DWORD PTR __First_arg$[ebp]
  00006	53		 push	 ebx
  00007	8b 5d 08	 mov	 ebx, DWORD PTR ___$ReturnUdt$[ebp]
  0000a	56		 push	 esi
  0000b	8b f1		 mov	 esi, ecx
  0000d	89 03		 mov	 DWORD PTR [ebx], eax

; 1192 : 		iterator _Last = _Make_iter(_Last_arg);
; 1193 : 
; 1194 : 		if (_First != _Last)

  0000f	3b 45 10	 cmp	 eax, DWORD PTR __Last_arg$[ebp]
  00012	74 27		 je	 SHORT $LN1@erase@2

; 1195 : 			{	// worth doing, copy down over hole
; 1196 :  #if _ITERATOR_DEBUG_LEVEL == 2
; 1197 : 			if (_Last < _First || _VICONT(_First) != this
; 1198 : 				|| _VIPTR(_First) < this->_Myfirst
; 1199 : 				|| this->_Mylast < _VIPTR(_Last))
; 1200 : 				_DEBUG_ERROR("vector erase iterator outside range");
; 1201 : 			pointer _Ptr = _Move(_VIPTR(_Last), this->_Mylast,
; 1202 : 				_VIPTR(_First));
; 1203 : 			_Orphan_range(_VIPTR(_First), this->_Mylast);
; 1204 : 
; 1205 :  #else /* _ITERATOR_DEBUG_LEVEL == 2 */
; 1206 : 			pointer _Ptr = _Move(_VIPTR(_Last), this->_Mylast,
; 1207 : 				_VIPTR(_First));

  00014	8b 4e 04	 mov	 ecx, DWORD PTR [esi+4]
  00017	57		 push	 edi
  00018	ff 75 10	 push	 DWORD PTR __Cat$559706[ebp]
  0001b	50		 push	 eax
  0001c	51		 push	 ecx
  0001d	ff 75 10	 push	 DWORD PTR __Last_arg$[ebp]
  00020	e8 00 00 00 00	 call	 ??$_Move@PAUWeaponInfo@@PAU1@@std@@YAPAUWeaponInfo@@PAU1@00U_Nonscalar_ptr_iterator_tag@0@@Z ; std::_Move<WeaponInfo *,WeaponInfo *>
  00025	8b f8		 mov	 edi, eax

; 1208 :  #endif /* _ITERATOR_DEBUG_LEVEL == 2 */
; 1209 : 
; 1210 : 			_Destroy(_Ptr, this->_Mylast);

  00027	8d 46 0c	 lea	 eax, DWORD PTR [esi+12]
  0002a	50		 push	 eax
  0002b	ff 76 04	 push	 DWORD PTR [esi+4]
  0002e	57		 push	 edi
  0002f	e8 00 00 00 00	 call	 ??$_Destroy_range@V?$allocator@UWeaponInfo@@@std@@@std@@YAXPAUWeaponInfo@@0AAV?$allocator@UWeaponInfo@@@0@@Z ; std::_Destroy_range<std::allocator<WeaponInfo> >
  00034	83 c4 1c	 add	 esp, 28			; 0000001cH

; 1211 : 			this->_Mylast = _Ptr;

  00037	89 7e 04	 mov	 DWORD PTR [esi+4], edi
  0003a	5f		 pop	 edi
$LN1@erase@2:

; 1212 : 			}
; 1213 : 		return (_First);

  0003b	5e		 pop	 esi
  0003c	8b c3		 mov	 eax, ebx
  0003e	5b		 pop	 ebx

; 1214 : 		}

  0003f	5d		 pop	 ebp
  00040	c2 0c 00	 ret	 12			; 0000000cH
?erase@?$vector@UWeaponInfo@@V?$allocator@UWeaponInfo@@@std@@@std@@QAE?AV?$_Vector_iterator@V?$_Vector_val@UWeaponInfo@@V?$allocator@UWeaponInfo@@@std@@@std@@@2@V?$_Vector_const_iterator@V?$_Vector_val@UWeaponInfo@@V?$allocator@UWeaponInfo@@@std@@@std@@@2@0@Z ENDP ; std::vector<WeaponInfo,std::allocator<WeaponInfo> >::erase
_TEXT	ENDS
PUBLIC	?reserve@?$vector@UWeaponInfo@@V?$allocator@UWeaponInfo@@@std@@@std@@QAEXI@Z ; std::vector<WeaponInfo,std::allocator<WeaponInfo> >::reserve
;	COMDAT xdata$x
; File c:\program files (x86)\microsoft visual studio 10.0\vc\include\xmemory
xdata$x	SEGMENT
__catchsym$?reserve@?$vector@UWeaponInfo@@V?$allocator@UWeaponInfo@@@std@@@std@@QAEXI@Z$2 DD 040H
	DD	00H
	DD	00H
	DD	FLAT:__catch$?reserve@?$vector@UWeaponInfo@@V?$allocator@UWeaponInfo@@@std@@@std@@QAEXI@Z$0
__unwindtable$?reserve@?$vector@UWeaponInfo@@V?$allocator@UWeaponInfo@@@std@@@std@@QAEXI@Z DD 0ffffffffH
	DD	00H
	DD	0ffffffffH
	DD	00H
__tryblocktable$?reserve@?$vector@UWeaponInfo@@V?$allocator@UWeaponInfo@@@std@@@std@@QAEXI@Z DD 00H
	DD	00H
	DD	01H
	DD	01H
	DD	FLAT:__catchsym$?reserve@?$vector@UWeaponInfo@@V?$allocator@UWeaponInfo@@@std@@@std@@QAEXI@Z$2
__ehfuncinfo$?reserve@?$vector@UWeaponInfo@@V?$allocator@UWeaponInfo@@@std@@@std@@QAEXI@Z DD 019930522H
	DD	02H
	DD	FLAT:__unwindtable$?reserve@?$vector@UWeaponInfo@@V?$allocator@UWeaponInfo@@@std@@@std@@QAEXI@Z
	DD	01H
	DD	FLAT:__tryblocktable$?reserve@?$vector@UWeaponInfo@@V?$allocator@UWeaponInfo@@@std@@@std@@QAEXI@Z
	DD	2 DUP(00H)
	DD	00H
	DD	01H
; Function compile flags: /Ogsp
; File c:\program files (x86)\microsoft visual studio 10.0\vc\include\vector
xdata$x	ENDS
;	COMDAT ?reserve@?$vector@UWeaponInfo@@V?$allocator@UWeaponInfo@@@std@@@std@@QAEXI@Z
_TEXT	SEGMENT
__$EHRec$ = -16						; size = 16
__Ptr$551144 = 8					; size = 4
__Count$ = 8						; size = 4
?reserve@?$vector@UWeaponInfo@@V?$allocator@UWeaponInfo@@@std@@@std@@QAEXI@Z PROC ; std::vector<WeaponInfo,std::allocator<WeaponInfo> >::reserve, COMDAT
; _this$ = ecx

; 746  : 		{	// determine new minimum length of allocated storage

  00000	6a 04		 push	 4
  00002	b8 00 00 00 00	 mov	 eax, __ehhandler$?reserve@?$vector@UWeaponInfo@@V?$allocator@UWeaponInfo@@@std@@@std@@QAEXI@Z
  00007	e8 00 00 00 00	 call	 __EH_prolog3_catch
  0000c	8b f1		 mov	 esi, ecx

; 747  : 		if (max_size() < _Count)

  0000e	8b 5d 08	 mov	 ebx, DWORD PTR __Count$[ebp]
  00011	81 fb 66 66 66
	06		 cmp	 ebx, 107374182		; 06666666H
  00017	76 0b		 jbe	 SHORT $LN5@reserve@2

; 748  : 			_Xlen();	// result too long

  00019	68 00 00 00 00	 push	 OFFSET ??_C@_0BD@OLBABOEK@vector?$DMT?$DO?5too?5long?$AA@
  0001e	ff 15 00 00 00
	00		 call	 DWORD PTR __imp_?_Xlength_error@std@@YAXPBD@Z
$LN38@reserve@2:
$LN5@reserve@2:

; 749  : 		else if (capacity() < _Count)

  00024	8b 46 08	 mov	 eax, DWORD PTR [esi+8]
  00027	2b 06		 sub	 eax, DWORD PTR [esi]
  00029	6a 28		 push	 40			; 00000028H
  0002b	99		 cdq
  0002c	59		 pop	 ecx
  0002d	f7 f9		 idiv	 ecx
  0002f	3b c3		 cmp	 eax, ebx
  00031	73 70		 jae	 SHORT $LN3@reserve@2

; 750  : 			{	// not enough room, reallocate
; 751  : 			pointer _Ptr = this->_Alval.allocate(_Count);

  00033	6a 00		 push	 0
  00035	53		 push	 ebx
  00036	e8 00 00 00 00	 call	 ??$_Allocate@UWeaponInfo@@@std@@YAPAUWeaponInfo@@IPAU1@@Z ; std::_Allocate<WeaponInfo>

; 752  : 
; 753  : 			_TRY_BEGIN
; 754  : 			_Umove(this->_Myfirst, this->_Mylast, _Ptr);

  0003b	8b 0e		 mov	 ecx, DWORD PTR [esi]
  0003d	83 65 fc 00	 and	 DWORD PTR __$EHRec$[ebp+12], 0
  00041	8d 56 0c	 lea	 edx, DWORD PTR [esi+12]
  00044	52		 push	 edx
  00045	89 45 08	 mov	 DWORD PTR __Ptr$551144[ebp], eax
  00048	ff 75 08	 push	 DWORD PTR __Ptr$551144[ebp]
  0004b	8b 46 04	 mov	 eax, DWORD PTR [esi+4]
  0004e	50		 push	 eax
  0004f	51		 push	 ecx
  00050	e8 00 00 00 00	 call	 ??$_Uninitialized_move@PAUWeaponInfo@@PAU1@V?$allocator@UWeaponInfo@@@std@@@std@@YAPAUWeaponInfo@@PAU1@00AAV?$allocator@UWeaponInfo@@@0@@Z ; std::_Uninitialized_move<WeaponInfo *,WeaponInfo *,std::allocator<WeaponInfo> >

; 758  : 			_CATCH_END
; 759  : 
; 760  : 			size_type _Size = size();

  00055	8b 0e		 mov	 ecx, DWORD PTR [esi]
  00057	8b 46 04	 mov	 eax, DWORD PTR [esi+4]
  0005a	83 c4 18	 add	 esp, 24			; 00000018H
  0005d	2b c1		 sub	 eax, ecx
  0005f	6a 28		 push	 40			; 00000028H
  00061	99		 cdq
  00062	5f		 pop	 edi
  00063	f7 ff		 idiv	 edi
  00065	83 4d fc ff	 or	 DWORD PTR __$EHRec$[ebp+12], -1
  00069	8b f8		 mov	 edi, eax
  0006b	85 c9		 test	 ecx, ecx
  0006d	74 17		 je	 SHORT $LN33@reserve@2

; 761  : 			if (this->_Myfirst != 0)
; 762  : 				{	// destroy and deallocate old array
; 763  : 				_Destroy(this->_Myfirst, this->_Mylast);

  0006f	8d 46 0c	 lea	 eax, DWORD PTR [esi+12]
  00072	50		 push	 eax
  00073	ff 76 04	 push	 DWORD PTR [esi+4]
  00076	51		 push	 ecx
  00077	e8 00 00 00 00	 call	 ??$_Destroy_range@V?$allocator@UWeaponInfo@@@std@@@std@@YAXPAUWeaponInfo@@0AAV?$allocator@UWeaponInfo@@@0@@Z ; std::_Destroy_range<std::allocator<WeaponInfo> >

; 764  : 				this->_Alval.deallocate(this->_Myfirst,
; 765  : 					this->_Myend - this->_Myfirst);

  0007c	ff 36		 push	 DWORD PTR [esi]
  0007e	e8 00 00 00 00	 call	 ??3@YAXPAX@Z		; operator delete
  00083	83 c4 10	 add	 esp, 16			; 00000010H
$LN33@reserve@2:

; 766  : 				}
; 767  : 
; 768  : 			this->_Orphan_all();

  00086	8b ce		 mov	 ecx, esi
  00088	ff 15 00 00 00
	00		 call	 DWORD PTR __imp_?_Orphan_all@_Container_base0@std@@QAEXXZ

; 769  : 			this->_Myend = _Ptr + _Count;

  0008e	6b db 28	 imul	 ebx, 40			; 00000028H

; 770  : 			this->_Mylast = _Ptr + _Size;

  00091	6b ff 28	 imul	 edi, 40			; 00000028H
  00094	8b 45 08	 mov	 eax, DWORD PTR __Ptr$551144[ebp]
  00097	03 d8		 add	 ebx, eax
  00099	03 f8		 add	 edi, eax
  0009b	89 5e 08	 mov	 DWORD PTR [esi+8], ebx
  0009e	89 7e 04	 mov	 DWORD PTR [esi+4], edi

; 771  : 			this->_Myfirst = _Ptr;

  000a1	89 06		 mov	 DWORD PTR [esi], eax
$LN3@reserve@2:

; 772  : 			}
; 773  : 		}

  000a3	e8 00 00 00 00	 call	 __EH_epilog3
  000a8	c2 04 00	 ret	 4
__catch$?reserve@?$vector@UWeaponInfo@@V?$allocator@UWeaponInfo@@@std@@@std@@QAEXI@Z$0:

; 755  : 			_CATCH_ALL
; 756  : 			this->_Alval.deallocate(_Ptr, _Count);

  000ab	ff 75 08	 push	 DWORD PTR __Ptr$551144[ebp]
  000ae	e8 00 00 00 00	 call	 ??3@YAXPAX@Z		; operator delete
  000b3	59		 pop	 ecx

; 757  : 			_RERAISE;

  000b4	6a 00		 push	 0
  000b6	6a 00		 push	 0
  000b8	e8 00 00 00 00	 call	 __CxxThrowException@8
$LN39@reserve@2:
$LN37@reserve@2:
  000bd	cc		 int	 3
_TEXT	ENDS
;	COMDAT text$x
text$x	SEGMENT
__ehhandler$?reserve@?$vector@UWeaponInfo@@V?$allocator@UWeaponInfo@@@std@@@std@@QAEXI@Z:
  00000	8b 54 24 08	 mov	 edx, DWORD PTR [esp+8]
  00004	8d 42 0c	 lea	 eax, DWORD PTR [edx+12]
  00007	8b 4a ec	 mov	 ecx, DWORD PTR [edx-20]
  0000a	33 c8		 xor	 ecx, eax
  0000c	e8 00 00 00 00	 call	 @__security_check_cookie@4
  00011	b8 00 00 00 00	 mov	 eax, OFFSET __ehfuncinfo$?reserve@?$vector@UWeaponInfo@@V?$allocator@UWeaponInfo@@@std@@@std@@QAEXI@Z
  00016	e9 00 00 00 00	 jmp	 ___CxxFrameHandler3
text$x	ENDS
?reserve@?$vector@UWeaponInfo@@V?$allocator@UWeaponInfo@@@std@@@std@@QAEXI@Z ENDP ; std::vector<WeaponInfo,std::allocator<WeaponInfo> >::reserve
PUBLIC	??0?$vector@UForceInfo@@V?$allocator@UForceInfo@@@std@@@std@@QAE@ABV01@@Z ; std::vector<ForceInfo,std::allocator<ForceInfo> >::vector<ForceInfo,std::allocator<ForceInfo> >
;	COMDAT xdata$x
; File c:\program files (x86)\microsoft visual studio 10.0\vc\include\xutility
xdata$x	SEGMENT
__catchsym$??0?$vector@UForceInfo@@V?$allocator@UForceInfo@@@std@@@std@@QAE@ABV01@@Z$2 DD 040H
	DD	00H
	DD	00H
	DD	FLAT:__catch$??0?$vector@UForceInfo@@V?$allocator@UForceInfo@@@std@@@std@@QAE@ABV01@@Z$0
__unwindtable$??0?$vector@UForceInfo@@V?$allocator@UForceInfo@@@std@@@std@@QAE@ABV01@@Z DD 0ffffffffH
	DD	00H
	DD	0ffffffffH
	DD	00H
__tryblocktable$??0?$vector@UForceInfo@@V?$allocator@UForceInfo@@@std@@@std@@QAE@ABV01@@Z DD 00H
	DD	00H
	DD	01H
	DD	01H
	DD	FLAT:__catchsym$??0?$vector@UForceInfo@@V?$allocator@UForceInfo@@@std@@@std@@QAE@ABV01@@Z$2
__ehfuncinfo$??0?$vector@UForceInfo@@V?$allocator@UForceInfo@@@std@@@std@@QAE@ABV01@@Z DD 019930522H
	DD	02H
	DD	FLAT:__unwindtable$??0?$vector@UForceInfo@@V?$allocator@UForceInfo@@@std@@@std@@QAE@ABV01@@Z
	DD	01H
	DD	FLAT:__tryblocktable$??0?$vector@UForceInfo@@V?$allocator@UForceInfo@@@std@@@std@@QAE@ABV01@@Z
	DD	2 DUP(00H)
	DD	00H
	DD	01H
; Function compile flags: /Ogsp
; File c:\program files (x86)\microsoft visual studio 10.0\vc\include\vector
xdata$x	ENDS
;	COMDAT ??0?$vector@UForceInfo@@V?$allocator@UForceInfo@@@std@@@std@@QAE@ABV01@@Z
_TEXT	SEGMENT
_this$ = -20						; size = 4
__$EHRec$ = -16						; size = 16
__Cat$559858 = 8					; size = 1
__Right$ = 8						; size = 4
??0?$vector@UForceInfo@@V?$allocator@UForceInfo@@@std@@@std@@QAE@ABV01@@Z PROC ; std::vector<ForceInfo,std::allocator<ForceInfo> >::vector<ForceInfo,std::allocator<ForceInfo> >, COMDAT
; _this$ = ecx

; 535  : 		{	// construct by copying _Right

  00000	6a 08		 push	 8
  00002	b8 00 00 00 00	 mov	 eax, __ehhandler$??0?$vector@UForceInfo@@V?$allocator@UForceInfo@@@std@@@std@@QAE@ABV01@@Z
  00007	e8 00 00 00 00	 call	 __EH_prolog3_catch
  0000c	8b f1		 mov	 esi, ecx
  0000e	89 75 ec	 mov	 DWORD PTR _this$[ebp], esi

; 536  : 		if (_Buy(_Right.size()))

  00011	8b 7d 08	 mov	 edi, DWORD PTR __Right$[ebp]
  00014	33 db		 xor	 ebx, ebx
  00016	89 1e		 mov	 DWORD PTR [esi], ebx
  00018	89 5e 04	 mov	 DWORD PTR [esi+4], ebx
  0001b	89 5e 08	 mov	 DWORD PTR [esi+8], ebx
  0001e	8b 47 04	 mov	 eax, DWORD PTR [edi+4]
  00021	2b 07		 sub	 eax, DWORD PTR [edi]
  00023	6a 0c		 push	 12			; 0000000cH
  00025	59		 pop	 ecx
  00026	99		 cdq
  00027	f7 f9		 idiv	 ecx
  00029	8b ce		 mov	 ecx, esi
  0002b	50		 push	 eax
  0002c	e8 00 00 00 00	 call	 ?_Buy@?$vector@UForceInfo@@V?$allocator@UForceInfo@@@std@@@std@@IAE_NI@Z ; std::vector<ForceInfo,std::allocator<ForceInfo> >::_Buy
  00031	84 c0		 test	 al, al
  00033	74 1f		 je	 SHORT $LN7@vector

; 537  : 			_TRY_BEGIN
; 538  : 			this->_Mylast = _Ucopy(_Right.begin(), _Right.end(),
; 539  : 				this->_Myfirst);

  00035	ff 75 08	 push	 DWORD PTR __Cat$559858[ebp]
  00038	8b 0e		 mov	 ecx, DWORD PTR [esi]
  0003a	8b 47 04	 mov	 eax, DWORD PTR [edi+4]
  0003d	8b 3f		 mov	 edi, DWORD PTR [edi]
  0003f	8d 56 0c	 lea	 edx, DWORD PTR [esi+12]
  00042	52		 push	 edx
  00043	51		 push	 ecx
  00044	50		 push	 eax
  00045	57		 push	 edi
  00046	89 5d fc	 mov	 DWORD PTR __$EHRec$[ebp+12], ebx
  00049	e8 00 00 00 00	 call	 ??$_Uninit_copy@V?$_Vector_const_iterator@V?$_Vector_val@UForceInfo@@V?$allocator@UForceInfo@@@std@@@std@@@std@@PAUForceInfo@@V?$allocator@UForceInfo@@@2@@std@@YAPAUForceInfo@@V?$_Vector_const_iterator@V?$_Vector_val@UForceInfo@@V?$allocator@UForceInfo@@@std@@@std@@@0@0PAU1@AAV?$allocator@UForceInfo@@@0@U_Nonscalar_ptr_iterator_tag@0@@Z ; std::_Uninit_copy<std::_Vector_const_iterator<std::_Vector_val<ForceInfo,std::allocator<ForceInfo> > >,ForceInfo *,std::allocator<ForceInfo> >
  0004e	83 c4 14	 add	 esp, 20			; 00000014H
  00051	89 46 04	 mov	 DWORD PTR [esi+4], eax
$LN7@vector:

; 543  : 			_CATCH_END
; 544  : 		}

  00054	8b c6		 mov	 eax, esi
  00056	e8 00 00 00 00	 call	 __EH_epilog3
  0005b	c2 04 00	 ret	 4
__catch$??0?$vector@UForceInfo@@V?$allocator@UForceInfo@@@std@@@std@@QAE@ABV01@@Z$0:

; 540  : 			_CATCH_ALL
; 541  : 			_Tidy();

  0005e	8b 4d ec	 mov	 ecx, DWORD PTR _this$[ebp]
  00061	e8 00 00 00 00	 call	 ?_Tidy@?$vector@UForceInfo@@V?$allocator@UForceInfo@@@std@@@std@@IAEXXZ ; std::vector<ForceInfo,std::allocator<ForceInfo> >::_Tidy

; 542  : 			_RERAISE;

  00066	33 db		 xor	 ebx, ebx
  00068	53		 push	 ebx
  00069	53		 push	 ebx
  0006a	e8 00 00 00 00	 call	 __CxxThrowException@8
$LN38@vector:
$LN37@vector:
  0006f	cc		 int	 3
_TEXT	ENDS
;	COMDAT text$x
text$x	SEGMENT
__ehhandler$??0?$vector@UForceInfo@@V?$allocator@UForceInfo@@@std@@@std@@QAE@ABV01@@Z:
  00000	8b 54 24 08	 mov	 edx, DWORD PTR [esp+8]
  00004	8d 42 0c	 lea	 eax, DWORD PTR [edx+12]
  00007	8b 4a e8	 mov	 ecx, DWORD PTR [edx-24]
  0000a	33 c8		 xor	 ecx, eax
  0000c	e8 00 00 00 00	 call	 @__security_check_cookie@4
  00011	b8 00 00 00 00	 mov	 eax, OFFSET __ehfuncinfo$??0?$vector@UForceInfo@@V?$allocator@UForceInfo@@@std@@@std@@QAE@ABV01@@Z
  00016	e9 00 00 00 00	 jmp	 ___CxxFrameHandler3
text$x	ENDS
??0?$vector@UForceInfo@@V?$allocator@UForceInfo@@@std@@@std@@QAE@ABV01@@Z ENDP ; std::vector<ForceInfo,std::allocator<ForceInfo> >::vector<ForceInfo,std::allocator<ForceInfo> >
PUBLIC	?push_back@?$vector@UForceInfo@@V?$allocator@UForceInfo@@@std@@@std@@QAEXABUForceInfo@@@Z ; std::vector<ForceInfo,std::allocator<ForceInfo> >::push_back
; Function compile flags: /Ogsp
;	COMDAT ?push_back@?$vector@UForceInfo@@V?$allocator@UForceInfo@@@std@@@std@@QAEXABUForceInfo@@@Z
_TEXT	SEGMENT
__Val$ = 8						; size = 4
?push_back@?$vector@UForceInfo@@V?$allocator@UForceInfo@@@std@@@std@@QAEXABUForceInfo@@@Z PROC ; std::vector<ForceInfo,std::allocator<ForceInfo> >::push_back, COMDAT
; _this$ = ecx

; 976  : 		{	// insert element at end

  00000	55		 push	 ebp
  00001	8b ec		 mov	 ebp, esp
  00003	56		 push	 esi
  00004	8b f1		 mov	 esi, ecx

; 977  : 		if (_Inside(_STD addressof(_Val)))

  00006	8b 4e 04	 mov	 ecx, DWORD PTR [esi+4]
  00009	57		 push	 edi
  0000a	8b 7d 08	 mov	 edi, DWORD PTR __Val$[ebp]
  0000d	3b f9		 cmp	 edi, ecx
  0000f	73 34		 jae	 SHORT $LN4@push_back
  00011	8b 16		 mov	 edx, DWORD PTR [esi]
  00013	3b d7		 cmp	 edx, edi
  00015	77 2e		 ja	 SHORT $LN4@push_back

; 978  : 			{	// push back an element
; 979  : 			size_type _Idx = _STD addressof(_Val) - this->_Myfirst;

  00017	8b c7		 mov	 eax, edi
  00019	2b c2		 sub	 eax, edx
  0001b	6a 0c		 push	 12			; 0000000cH
  0001d	99		 cdq
  0001e	5f		 pop	 edi
  0001f	f7 ff		 idiv	 edi
  00021	8b f8		 mov	 edi, eax

; 980  : 			if (this->_Mylast == this->_Myend)

  00023	3b 4e 08	 cmp	 ecx, DWORD PTR [esi+8]
  00026	75 09		 jne	 SHORT $LN3@push_back

; 981  : 				_Reserve(1);

  00028	6a 01		 push	 1
  0002a	8b ce		 mov	 ecx, esi
  0002c	e8 00 00 00 00	 call	 ?_Reserve@?$vector@UForceInfo@@V?$allocator@UForceInfo@@@std@@@std@@IAEXI@Z ; std::vector<ForceInfo,std::allocator<ForceInfo> >::_Reserve
$LN3@push_back:

; 982  : 			_Orphan_range(this->_Mylast, this->_Mylast);
; 983  : 			_Cons_val(this->_Alval,
; 984  : 				this->_Mylast,
; 985  : 				this->_Myfirst[_Idx]);

  00031	6b ff 0c	 imul	 edi, 12			; 0000000cH
  00034	03 3e		 add	 edi, DWORD PTR [esi]
  00036	8d 46 0c	 lea	 eax, DWORD PTR [esi+12]
  00039	57		 push	 edi
  0003a	ff 76 04	 push	 DWORD PTR [esi+4]
  0003d	50		 push	 eax
  0003e	e8 00 00 00 00	 call	 ??$_Cons_val@V?$allocator@UForceInfo@@@std@@UForceInfo@@AAU3@@std@@YAXAAV?$allocator@UForceInfo@@@0@PAUForceInfo@@AAU2@@Z ; std::_Cons_val<std::allocator<ForceInfo>,ForceInfo,ForceInfo &>

; 986  : 			++this->_Mylast;
; 987  : 			}
; 988  : 		else

  00043	eb 1b		 jmp	 SHORT $LN20@push_back
$LN4@push_back:

; 989  : 			{	// push back a non-element
; 990  : 			if (this->_Mylast == this->_Myend)

  00045	3b 4e 08	 cmp	 ecx, DWORD PTR [esi+8]
  00048	75 09		 jne	 SHORT $LN1@push_back

; 991  : 				_Reserve(1);

  0004a	6a 01		 push	 1
  0004c	8b ce		 mov	 ecx, esi
  0004e	e8 00 00 00 00	 call	 ?_Reserve@?$vector@UForceInfo@@V?$allocator@UForceInfo@@@std@@@std@@IAEXI@Z ; std::vector<ForceInfo,std::allocator<ForceInfo> >::_Reserve
$LN1@push_back:

; 992  : 			_Orphan_range(this->_Mylast, this->_Mylast);
; 993  : 			_Cons_val(this->_Alval,
; 994  : 				this->_Mylast,
; 995  : 				_Val);

  00053	57		 push	 edi
  00054	ff 76 04	 push	 DWORD PTR [esi+4]
  00057	8d 46 0c	 lea	 eax, DWORD PTR [esi+12]
  0005a	50		 push	 eax
  0005b	e8 00 00 00 00	 call	 ??$_Cons_val@V?$allocator@UForceInfo@@@std@@UForceInfo@@ABU3@@std@@YAXAAV?$allocator@UForceInfo@@@0@PAUForceInfo@@ABU2@@Z ; std::_Cons_val<std::allocator<ForceInfo>,ForceInfo,ForceInfo const &>
$LN20@push_back:
  00060	83 c4 0c	 add	 esp, 12			; 0000000cH

; 996  : 			++this->_Mylast;

  00063	83 46 04 0c	 add	 DWORD PTR [esi+4], 12	; 0000000cH
  00067	5f		 pop	 edi
  00068	5e		 pop	 esi

; 997  : 			}
; 998  : 		}

  00069	5d		 pop	 ebp
  0006a	c2 04 00	 ret	 4
?push_back@?$vector@UForceInfo@@V?$allocator@UForceInfo@@@std@@@std@@QAEXABUForceInfo@@@Z ENDP ; std::vector<ForceInfo,std::allocator<ForceInfo> >::push_back
_TEXT	ENDS
PUBLIC	?_Reserve@?$vector@UWeaponInfo@@V?$allocator@UWeaponInfo@@@std@@@std@@IAEXI@Z ; std::vector<WeaponInfo,std::allocator<WeaponInfo> >::_Reserve
; Function compile flags: /Ogsp
;	COMDAT ?_Reserve@?$vector@UWeaponInfo@@V?$allocator@UWeaponInfo@@@std@@@std@@IAEXI@Z
_TEXT	SEGMENT
__Count$ = 8						; size = 4
?_Reserve@?$vector@UWeaponInfo@@V?$allocator@UWeaponInfo@@@std@@@std@@IAEXI@Z PROC ; std::vector<WeaponInfo,std::allocator<WeaponInfo> >::_Reserve, COMDAT
; _this$ = ecx

; 1290 : 		{	// ensure room for _Count new elements, grow exponentially

  00000	55		 push	 ebp
  00001	8b ec		 mov	 ebp, esp
  00003	56		 push	 esi
  00004	8b f1		 mov	 esi, ecx

; 1291 : 		size_type _Size = size();

  00006	8b 0e		 mov	 ecx, DWORD PTR [esi]
  00008	8b 46 04	 mov	 eax, DWORD PTR [esi+4]
  0000b	2b c1		 sub	 eax, ecx
  0000d	57		 push	 edi
  0000e	99		 cdq
  0000f	6a 28		 push	 40			; 00000028H
  00011	5f		 pop	 edi
  00012	f7 ff		 idiv	 edi
  00014	8b f8		 mov	 edi, eax

; 1292 : 		if (max_size() - _Count < _Size)

  00016	b8 66 66 66 06	 mov	 eax, 107374182		; 06666666H
  0001b	2b 45 08	 sub	 eax, DWORD PTR __Count$[ebp]
  0001e	3b c7		 cmp	 eax, edi
  00020	73 0b		 jae	 SHORT $LN4@Reserve@2

; 1293 : 			_Xlen();

  00022	68 00 00 00 00	 push	 OFFSET ??_C@_0BD@OLBABOEK@vector?$DMT?$DO?5too?5long?$AA@
  00027	ff 15 00 00 00
	00		 call	 DWORD PTR __imp_?_Xlength_error@std@@YAXPBD@Z
$LN21@Reserve@2:
$LN4@Reserve@2:

; 1294 : 		else if ((_Size += _Count) <= capacity())

  0002d	8b 46 08	 mov	 eax, DWORD PTR [esi+8]
  00030	2b c1		 sub	 eax, ecx
  00032	6a 28		 push	 40			; 00000028H
  00034	99		 cdq
  00035	59		 pop	 ecx
  00036	f7 f9		 idiv	 ecx
  00038	03 7d 08	 add	 edi, DWORD PTR __Count$[ebp]
  0003b	3b f8		 cmp	 edi, eax
  0003d	76 10		 jbe	 SHORT $LN1@Reserve@2

; 1295 : 			;
; 1296 : 		else
; 1297 : 			reserve(_Grow_to(_Size));

  0003f	57		 push	 edi
  00040	8b ce		 mov	 ecx, esi
  00042	e8 00 00 00 00	 call	 ?_Grow_to@?$vector@UWeaponInfo@@V?$allocator@UWeaponInfo@@@std@@@std@@IBEII@Z ; std::vector<WeaponInfo,std::allocator<WeaponInfo> >::_Grow_to
  00047	50		 push	 eax
  00048	8b ce		 mov	 ecx, esi
  0004a	e8 00 00 00 00	 call	 ?reserve@?$vector@UWeaponInfo@@V?$allocator@UWeaponInfo@@@std@@@std@@QAEXI@Z ; std::vector<WeaponInfo,std::allocator<WeaponInfo> >::reserve
$LN1@Reserve@2:
  0004f	5f		 pop	 edi
  00050	5e		 pop	 esi

; 1298 : 		}

  00051	5d		 pop	 ebp
  00052	c2 04 00	 ret	 4
$LN20@Reserve@2:
?_Reserve@?$vector@UWeaponInfo@@V?$allocator@UWeaponInfo@@@std@@@std@@IAEXI@Z ENDP ; std::vector<WeaponInfo,std::allocator<WeaponInfo> >::_Reserve
_TEXT	ENDS
PUBLIC	??1?$vector@UForceInfo@@V?$allocator@UForceInfo@@@std@@@std@@QAE@XZ ; std::vector<ForceInfo,std::allocator<ForceInfo> >::~vector<ForceInfo,std::allocator<ForceInfo> >
; Function compile flags: /Ogsp
;	COMDAT ??1?$vector@UForceInfo@@V?$allocator@UForceInfo@@@std@@@std@@QAE@XZ
_TEXT	SEGMENT
??1?$vector@UForceInfo@@V?$allocator@UForceInfo@@@std@@@std@@QAE@XZ PROC ; std::vector<ForceInfo,std::allocator<ForceInfo> >::~vector<ForceInfo,std::allocator<ForceInfo> >, COMDAT
; _this$ = ecx

; 705  : 		_Tidy();

  00000	e9 00 00 00 00	 jmp	 ?_Tidy@?$vector@UForceInfo@@V?$allocator@UForceInfo@@@std@@@std@@IAEXXZ ; std::vector<ForceInfo,std::allocator<ForceInfo> >::_Tidy
??1?$vector@UForceInfo@@V?$allocator@UForceInfo@@@std@@@std@@QAE@XZ ENDP ; std::vector<ForceInfo,std::allocator<ForceInfo> >::~vector<ForceInfo,std::allocator<ForceInfo> >
_TEXT	ENDS
PUBLIC	?_Tidy@?$vector@UWeaponInfo@@V?$allocator@UWeaponInfo@@@std@@@std@@IAEXXZ ; std::vector<WeaponInfo,std::allocator<WeaponInfo> >::_Tidy
; Function compile flags: /Ogsp
;	COMDAT ?_Tidy@?$vector@UWeaponInfo@@V?$allocator@UWeaponInfo@@@std@@@std@@IAEXXZ
_TEXT	SEGMENT
?_Tidy@?$vector@UWeaponInfo@@V?$allocator@UWeaponInfo@@@std@@@std@@IAEXXZ PROC ; std::vector<WeaponInfo,std::allocator<WeaponInfo> >::_Tidy, COMDAT
; _this$ = ecx

; 1301 : 		{	// free all storage

  00000	56		 push	 esi
  00001	8b f1		 mov	 esi, ecx

; 1302 : 		if (this->_Myfirst != 0)

  00003	83 3e 00	 cmp	 DWORD PTR [esi], 0
  00006	74 1e		 je	 SHORT $LN6@Tidy@2

; 1303 : 			{	// something to free, destroy and deallocate it
; 1304 : 			this->_Orphan_all();

  00008	ff 15 00 00 00
	00		 call	 DWORD PTR __imp_?_Orphan_all@_Container_base0@std@@QAEXXZ

; 1305 : 			_Destroy(this->_Myfirst, this->_Mylast);

  0000e	8d 46 0c	 lea	 eax, DWORD PTR [esi+12]
  00011	50		 push	 eax
  00012	ff 76 04	 push	 DWORD PTR [esi+4]
  00015	ff 36		 push	 DWORD PTR [esi]
  00017	e8 00 00 00 00	 call	 ??$_Destroy_range@V?$allocator@UWeaponInfo@@@std@@@std@@YAXPAUWeaponInfo@@0AAV?$allocator@UWeaponInfo@@@0@@Z ; std::_Destroy_range<std::allocator<WeaponInfo> >

; 1306 : 			this->_Alval.deallocate(this->_Myfirst,
; 1307 : 				this->_Myend - this->_Myfirst);

  0001c	ff 36		 push	 DWORD PTR [esi]
  0001e	e8 00 00 00 00	 call	 ??3@YAXPAX@Z		; operator delete
  00023	83 c4 10	 add	 esp, 16			; 00000010H
$LN6@Tidy@2:

; 1308 : 			}
; 1309 : 		this->_Myfirst = 0;

  00026	83 26 00	 and	 DWORD PTR [esi], 0

; 1310 : 		this->_Mylast = 0;

  00029	83 66 04 00	 and	 DWORD PTR [esi+4], 0

; 1311 : 		this->_Myend = 0;

  0002d	83 66 08 00	 and	 DWORD PTR [esi+8], 0
  00031	5e		 pop	 esi

; 1312 : 		}

  00032	c3		 ret	 0
?_Tidy@?$vector@UWeaponInfo@@V?$allocator@UWeaponInfo@@@std@@@std@@IAEXXZ ENDP ; std::vector<WeaponInfo,std::allocator<WeaponInfo> >::_Tidy
_TEXT	ENDS
PUBLIC	?clear@?$vector@UWeaponInfo@@V?$allocator@UWeaponInfo@@@std@@@std@@QAEXXZ ; std::vector<WeaponInfo,std::allocator<WeaponInfo> >::clear
; Function compile flags: /Ogsp
;	COMDAT ?clear@?$vector@UWeaponInfo@@V?$allocator@UWeaponInfo@@@std@@@std@@QAEXXZ
_TEXT	SEGMENT
$T559953 = -4						; size = 4
?clear@?$vector@UWeaponInfo@@V?$allocator@UWeaponInfo@@@std@@@std@@QAEXXZ PROC ; std::vector<WeaponInfo,std::allocator<WeaponInfo> >::clear, COMDAT
; _this$ = ecx

; 1217 : 		{	// erase all

  00000	55		 push	 ebp
  00001	8b ec		 mov	 ebp, esp
  00003	51		 push	 ecx

; 1218 : 		erase(begin(), end());

  00004	8b 41 04	 mov	 eax, DWORD PTR [ecx+4]
  00007	8b 11		 mov	 edx, DWORD PTR [ecx]
  00009	50		 push	 eax
  0000a	52		 push	 edx
  0000b	8d 45 fc	 lea	 eax, DWORD PTR $T559953[ebp]
  0000e	50		 push	 eax
  0000f	e8 00 00 00 00	 call	 ?erase@?$vector@UWeaponInfo@@V?$allocator@UWeaponInfo@@@std@@@std@@QAE?AV?$_Vector_iterator@V?$_Vector_val@UWeaponInfo@@V?$allocator@UWeaponInfo@@@std@@@std@@@2@V?$_Vector_const_iterator@V?$_Vector_val@UWeaponInfo@@V?$allocator@UWeaponInfo@@@std@@@std@@@2@0@Z ; std::vector<WeaponInfo,std::allocator<WeaponInfo> >::erase

; 1219 : 		}

  00014	c9		 leave
  00015	c3		 ret	 0
?clear@?$vector@UWeaponInfo@@V?$allocator@UWeaponInfo@@@std@@@std@@QAEXXZ ENDP ; std::vector<WeaponInfo,std::allocator<WeaponInfo> >::clear
_TEXT	ENDS
PUBLIC	??0?$vector@UWeaponInfo@@V?$allocator@UWeaponInfo@@@std@@@std@@QAE@ABV01@@Z ; std::vector<WeaponInfo,std::allocator<WeaponInfo> >::vector<WeaponInfo,std::allocator<WeaponInfo> >
;	COMDAT xdata$x
; File c:\program files (x86)\microsoft visual studio 10.0\vc\include\xutility
xdata$x	SEGMENT
__catchsym$??0?$vector@UWeaponInfo@@V?$allocator@UWeaponInfo@@@std@@@std@@QAE@ABV01@@Z$2 DD 040H
	DD	00H
	DD	00H
	DD	FLAT:__catch$??0?$vector@UWeaponInfo@@V?$allocator@UWeaponInfo@@@std@@@std@@QAE@ABV01@@Z$0
__unwindtable$??0?$vector@UWeaponInfo@@V?$allocator@UWeaponInfo@@@std@@@std@@QAE@ABV01@@Z DD 0ffffffffH
	DD	00H
	DD	0ffffffffH
	DD	00H
__tryblocktable$??0?$vector@UWeaponInfo@@V?$allocator@UWeaponInfo@@@std@@@std@@QAE@ABV01@@Z DD 00H
	DD	00H
	DD	01H
	DD	01H
	DD	FLAT:__catchsym$??0?$vector@UWeaponInfo@@V?$allocator@UWeaponInfo@@@std@@@std@@QAE@ABV01@@Z$2
__ehfuncinfo$??0?$vector@UWeaponInfo@@V?$allocator@UWeaponInfo@@@std@@@std@@QAE@ABV01@@Z DD 019930522H
	DD	02H
	DD	FLAT:__unwindtable$??0?$vector@UWeaponInfo@@V?$allocator@UWeaponInfo@@@std@@@std@@QAE@ABV01@@Z
	DD	01H
	DD	FLAT:__tryblocktable$??0?$vector@UWeaponInfo@@V?$allocator@UWeaponInfo@@@std@@@std@@QAE@ABV01@@Z
	DD	2 DUP(00H)
	DD	00H
	DD	01H
; Function compile flags: /Ogsp
; File c:\program files (x86)\microsoft visual studio 10.0\vc\include\vector
xdata$x	ENDS
;	COMDAT ??0?$vector@UWeaponInfo@@V?$allocator@UWeaponInfo@@@std@@@std@@QAE@ABV01@@Z
_TEXT	SEGMENT
_this$ = -20						; size = 4
__$EHRec$ = -16						; size = 16
__Cat$560083 = 8					; size = 1
__Right$ = 8						; size = 4
??0?$vector@UWeaponInfo@@V?$allocator@UWeaponInfo@@@std@@@std@@QAE@ABV01@@Z PROC ; std::vector<WeaponInfo,std::allocator<WeaponInfo> >::vector<WeaponInfo,std::allocator<WeaponInfo> >, COMDAT
; _this$ = ecx

; 535  : 		{	// construct by copying _Right

  00000	6a 08		 push	 8
  00002	b8 00 00 00 00	 mov	 eax, __ehhandler$??0?$vector@UWeaponInfo@@V?$allocator@UWeaponInfo@@@std@@@std@@QAE@ABV01@@Z
  00007	e8 00 00 00 00	 call	 __EH_prolog3_catch
  0000c	8b f1		 mov	 esi, ecx
  0000e	89 75 ec	 mov	 DWORD PTR _this$[ebp], esi

; 536  : 		if (_Buy(_Right.size()))

  00011	8b 7d 08	 mov	 edi, DWORD PTR __Right$[ebp]
  00014	33 db		 xor	 ebx, ebx
  00016	89 1e		 mov	 DWORD PTR [esi], ebx
  00018	89 5e 04	 mov	 DWORD PTR [esi+4], ebx
  0001b	89 5e 08	 mov	 DWORD PTR [esi+8], ebx
  0001e	8b 47 04	 mov	 eax, DWORD PTR [edi+4]
  00021	2b 07		 sub	 eax, DWORD PTR [edi]
  00023	6a 28		 push	 40			; 00000028H
  00025	59		 pop	 ecx
  00026	99		 cdq
  00027	f7 f9		 idiv	 ecx
  00029	8b ce		 mov	 ecx, esi
  0002b	50		 push	 eax
  0002c	e8 00 00 00 00	 call	 ?_Buy@?$vector@UWeaponInfo@@V?$allocator@UWeaponInfo@@@std@@@std@@IAE_NI@Z ; std::vector<WeaponInfo,std::allocator<WeaponInfo> >::_Buy
  00031	84 c0		 test	 al, al
  00033	74 1f		 je	 SHORT $LN7@vector@2

; 537  : 			_TRY_BEGIN
; 538  : 			this->_Mylast = _Ucopy(_Right.begin(), _Right.end(),
; 539  : 				this->_Myfirst);

  00035	ff 75 08	 push	 DWORD PTR __Cat$560083[ebp]
  00038	8b 0e		 mov	 ecx, DWORD PTR [esi]
  0003a	8b 47 04	 mov	 eax, DWORD PTR [edi+4]
  0003d	8b 3f		 mov	 edi, DWORD PTR [edi]
  0003f	8d 56 0c	 lea	 edx, DWORD PTR [esi+12]
  00042	52		 push	 edx
  00043	51		 push	 ecx
  00044	50		 push	 eax
  00045	57		 push	 edi
  00046	89 5d fc	 mov	 DWORD PTR __$EHRec$[ebp+12], ebx
  00049	e8 00 00 00 00	 call	 ??$_Uninit_copy@V?$_Vector_const_iterator@V?$_Vector_val@UWeaponInfo@@V?$allocator@UWeaponInfo@@@std@@@std@@@std@@PAUWeaponInfo@@V?$allocator@UWeaponInfo@@@2@@std@@YAPAUWeaponInfo@@V?$_Vector_const_iterator@V?$_Vector_val@UWeaponInfo@@V?$allocator@UWeaponInfo@@@std@@@std@@@0@0PAU1@AAV?$allocator@UWeaponInfo@@@0@U_Nonscalar_ptr_iterator_tag@0@@Z ; std::_Uninit_copy<std::_Vector_const_iterator<std::_Vector_val<WeaponInfo,std::allocator<WeaponInfo> > >,WeaponInfo *,std::allocator<WeaponInfo> >
  0004e	83 c4 14	 add	 esp, 20			; 00000014H
  00051	89 46 04	 mov	 DWORD PTR [esi+4], eax
$LN7@vector@2:

; 543  : 			_CATCH_END
; 544  : 		}

  00054	8b c6		 mov	 eax, esi
  00056	e8 00 00 00 00	 call	 __EH_epilog3
  0005b	c2 04 00	 ret	 4
__catch$??0?$vector@UWeaponInfo@@V?$allocator@UWeaponInfo@@@std@@@std@@QAE@ABV01@@Z$0:

; 540  : 			_CATCH_ALL
; 541  : 			_Tidy();

  0005e	8b 4d ec	 mov	 ecx, DWORD PTR _this$[ebp]
  00061	e8 00 00 00 00	 call	 ?_Tidy@?$vector@UWeaponInfo@@V?$allocator@UWeaponInfo@@@std@@@std@@IAEXXZ ; std::vector<WeaponInfo,std::allocator<WeaponInfo> >::_Tidy

; 542  : 			_RERAISE;

  00066	33 db		 xor	 ebx, ebx
  00068	53		 push	 ebx
  00069	53		 push	 ebx
  0006a	e8 00 00 00 00	 call	 __CxxThrowException@8
$LN38@vector@2:
$LN37@vector@2:
  0006f	cc		 int	 3
_TEXT	ENDS
;	COMDAT text$x
text$x	SEGMENT
__ehhandler$??0?$vector@UWeaponInfo@@V?$allocator@UWeaponInfo@@@std@@@std@@QAE@ABV01@@Z:
  00000	8b 54 24 08	 mov	 edx, DWORD PTR [esp+8]
  00004	8d 42 0c	 lea	 eax, DWORD PTR [edx+12]
  00007	8b 4a e8	 mov	 ecx, DWORD PTR [edx-24]
  0000a	33 c8		 xor	 ecx, eax
  0000c	e8 00 00 00 00	 call	 @__security_check_cookie@4
  00011	b8 00 00 00 00	 mov	 eax, OFFSET __ehfuncinfo$??0?$vector@UWeaponInfo@@V?$allocator@UWeaponInfo@@@std@@@std@@QAE@ABV01@@Z
  00016	e9 00 00 00 00	 jmp	 ___CxxFrameHandler3
text$x	ENDS
??0?$vector@UWeaponInfo@@V?$allocator@UWeaponInfo@@@std@@@std@@QAE@ABV01@@Z ENDP ; std::vector<WeaponInfo,std::allocator<WeaponInfo> >::vector<WeaponInfo,std::allocator<WeaponInfo> >
PUBLIC	?push_back@?$vector@UWeaponInfo@@V?$allocator@UWeaponInfo@@@std@@@std@@QAEXABUWeaponInfo@@@Z ; std::vector<WeaponInfo,std::allocator<WeaponInfo> >::push_back
; Function compile flags: /Ogsp
;	COMDAT ?push_back@?$vector@UWeaponInfo@@V?$allocator@UWeaponInfo@@@std@@@std@@QAEXABUWeaponInfo@@@Z
_TEXT	SEGMENT
__Val$ = 8						; size = 4
?push_back@?$vector@UWeaponInfo@@V?$allocator@UWeaponInfo@@@std@@@std@@QAEXABUWeaponInfo@@@Z PROC ; std::vector<WeaponInfo,std::allocator<WeaponInfo> >::push_back, COMDAT
; _this$ = ecx

; 976  : 		{	// insert element at end

  00000	55		 push	 ebp
  00001	8b ec		 mov	 ebp, esp
  00003	56		 push	 esi
  00004	8b f1		 mov	 esi, ecx

; 977  : 		if (_Inside(_STD addressof(_Val)))

  00006	8b 4e 04	 mov	 ecx, DWORD PTR [esi+4]
  00009	57		 push	 edi
  0000a	8b 7d 08	 mov	 edi, DWORD PTR __Val$[ebp]
  0000d	3b f9		 cmp	 edi, ecx
  0000f	73 37		 jae	 SHORT $LN4@push_back@2
  00011	8b 16		 mov	 edx, DWORD PTR [esi]
  00013	3b d7		 cmp	 edx, edi
  00015	77 31		 ja	 SHORT $LN4@push_back@2

; 978  : 			{	// push back an element
; 979  : 			size_type _Idx = _STD addressof(_Val) - this->_Myfirst;

  00017	8b c7		 mov	 eax, edi
  00019	2b c2		 sub	 eax, edx
  0001b	6a 28		 push	 40			; 00000028H
  0001d	99		 cdq
  0001e	5f		 pop	 edi
  0001f	f7 ff		 idiv	 edi
  00021	8b f8		 mov	 edi, eax

; 980  : 			if (this->_Mylast == this->_Myend)

  00023	3b 4e 08	 cmp	 ecx, DWORD PTR [esi+8]
  00026	75 09		 jne	 SHORT $LN3@push_back@2

; 981  : 				_Reserve(1);

  00028	6a 01		 push	 1
  0002a	8b ce		 mov	 ecx, esi
  0002c	e8 00 00 00 00	 call	 ?_Reserve@?$vector@UWeaponInfo@@V?$allocator@UWeaponInfo@@@std@@@std@@IAEXI@Z ; std::vector<WeaponInfo,std::allocator<WeaponInfo> >::_Reserve
$LN3@push_back@2:

; 982  : 			_Orphan_range(this->_Mylast, this->_Mylast);
; 983  : 			_Cons_val(this->_Alval,
; 984  : 				this->_Mylast,
; 985  : 				this->_Myfirst[_Idx]);

  00031	6b ff 28	 imul	 edi, 40			; 00000028H
  00034	03 3e		 add	 edi, DWORD PTR [esi]
  00036	8d 46 0c	 lea	 eax, DWORD PTR [esi+12]
  00039	57		 push	 edi
  0003a	ff 76 04	 push	 DWORD PTR [esi+4]
  0003d	50		 push	 eax
  0003e	e8 00 00 00 00	 call	 ??$_Cons_val@V?$allocator@UWeaponInfo@@@std@@UWeaponInfo@@AAU3@@std@@YAXAAV?$allocator@UWeaponInfo@@@0@PAUWeaponInfo@@AAU2@@Z ; std::_Cons_val<std::allocator<WeaponInfo>,WeaponInfo,WeaponInfo &>
  00043	83 c4 0c	 add	 esp, 12			; 0000000cH

; 986  : 			++this->_Mylast;
; 987  : 			}
; 988  : 		else

  00046	eb 19		 jmp	 SHORT $LN26@push_back@2
$LN4@push_back@2:

; 989  : 			{	// push back a non-element
; 990  : 			if (this->_Mylast == this->_Myend)

  00048	3b 4e 08	 cmp	 ecx, DWORD PTR [esi+8]
  0004b	75 09		 jne	 SHORT $LN1@push_back@2

; 991  : 				_Reserve(1);

  0004d	6a 01		 push	 1
  0004f	8b ce		 mov	 ecx, esi
  00051	e8 00 00 00 00	 call	 ?_Reserve@?$vector@UWeaponInfo@@V?$allocator@UWeaponInfo@@@std@@@std@@IAEXI@Z ; std::vector<WeaponInfo,std::allocator<WeaponInfo> >::_Reserve
$LN1@push_back@2:

; 992  : 			_Orphan_range(this->_Mylast, this->_Mylast);
; 993  : 			_Cons_val(this->_Alval,
; 994  : 				this->_Mylast,
; 995  : 				_Val);

  00056	57		 push	 edi
  00057	ff 76 04	 push	 DWORD PTR [esi+4]
  0005a	e8 00 00 00 00	 call	 ??$_Construct@UWeaponInfo@@ABU1@@std@@YAXPAUWeaponInfo@@ABU1@@Z ; std::_Construct<WeaponInfo,WeaponInfo const &>
  0005f	59		 pop	 ecx
  00060	59		 pop	 ecx
$LN26@push_back@2:

; 996  : 			++this->_Mylast;

  00061	83 46 04 28	 add	 DWORD PTR [esi+4], 40	; 00000028H
  00065	5f		 pop	 edi
  00066	5e		 pop	 esi

; 997  : 			}
; 998  : 		}

  00067	5d		 pop	 ebp
  00068	c2 04 00	 ret	 4
?push_back@?$vector@UWeaponInfo@@V?$allocator@UWeaponInfo@@@std@@@std@@QAEXABUWeaponInfo@@@Z ENDP ; std::vector<WeaponInfo,std::allocator<WeaponInfo> >::push_back
_TEXT	ENDS
PUBLIC	??1?$vector@UWeaponInfo@@V?$allocator@UWeaponInfo@@@std@@@std@@QAE@XZ ; std::vector<WeaponInfo,std::allocator<WeaponInfo> >::~vector<WeaponInfo,std::allocator<WeaponInfo> >
; Function compile flags: /Ogsp
;	COMDAT ??1?$vector@UWeaponInfo@@V?$allocator@UWeaponInfo@@@std@@@std@@QAE@XZ
_TEXT	SEGMENT
??1?$vector@UWeaponInfo@@V?$allocator@UWeaponInfo@@@std@@@std@@QAE@XZ PROC ; std::vector<WeaponInfo,std::allocator<WeaponInfo> >::~vector<WeaponInfo,std::allocator<WeaponInfo> >, COMDAT
; _this$ = ecx

; 705  : 		_Tidy();

  00000	e9 00 00 00 00	 jmp	 ?_Tidy@?$vector@UWeaponInfo@@V?$allocator@UWeaponInfo@@@std@@@std@@IAEXXZ ; std::vector<WeaponInfo,std::allocator<WeaponInfo> >::_Tidy
??1?$vector@UWeaponInfo@@V?$allocator@UWeaponInfo@@@std@@@std@@QAE@XZ ENDP ; std::vector<WeaponInfo,std::allocator<WeaponInfo> >::~vector<WeaponInfo,std::allocator<WeaponInfo> >
_TEXT	ENDS
PUBLIC	??0AttackAttribute@@QAE@ABU0@@Z			; AttackAttribute::AttackAttribute
;	COMDAT xdata$x
xdata$x	SEGMENT
__unwindtable$??0AttackAttribute@@QAE@ABU0@@Z DD 0ffffffffH
	DD	FLAT:__unwindfunclet$??0AttackAttribute@@QAE@ABU0@@Z$0
	DD	00H
	DD	FLAT:__unwindfunclet$??0AttackAttribute@@QAE@ABU0@@Z$1
	DD	01H
	DD	FLAT:__unwindfunclet$??0AttackAttribute@@QAE@ABU0@@Z$2
__ehfuncinfo$??0AttackAttribute@@QAE@ABU0@@Z DD 019930522H
	DD	03H
	DD	FLAT:__unwindtable$??0AttackAttribute@@QAE@ABU0@@Z
	DD	2 DUP(00H)
	DD	2 DUP(00H)
	DD	00H
	DD	01H
; Function compile flags: /Ogsp
xdata$x	ENDS
;	COMDAT ??0AttackAttribute@@QAE@ABU0@@Z
_TEXT	SEGMENT
_this$ = -16						; size = 4
__$EHRec$ = -12						; size = 12
___that$ = 8						; size = 4
??0AttackAttribute@@QAE@ABU0@@Z PROC			; AttackAttribute::AttackAttribute, COMDAT
; _this$ = ecx
  00000	6a 04		 push	 4
  00002	b8 00 00 00 00	 mov	 eax, __ehhandler$??0AttackAttribute@@QAE@ABU0@@Z
  00007	e8 00 00 00 00	 call	 __EH_prolog3
  0000c	8b f1		 mov	 esi, ecx
  0000e	89 75 f0	 mov	 DWORD PTR _this$[ebp], esi
  00011	8b 7d 08	 mov	 edi, DWORD PTR ___that$[ebp]
  00014	8b 1d 00 00 00
	00		 mov	 ebx, DWORD PTR __imp_??0ioHashString@@QAE@ABV0@@Z
  0001a	57		 push	 edi
  0001b	ff d3		 call	 ebx
  0001d	d9 47 10	 fld	 DWORD PTR [edi+16]
  00020	83 65 fc 00	 and	 DWORD PTR __$EHRec$[ebp+8], 0
  00024	d9 5e 10	 fstp	 DWORD PTR [esi+16]
  00027	8d 47 14	 lea	 eax, DWORD PTR [edi+20]
  0002a	50		 push	 eax
  0002b	8d 4e 14	 lea	 ecx, DWORD PTR [esi+20]
  0002e	ff d3		 call	 ebx
  00030	d9 47 24	 fld	 DWORD PTR [edi+36]
  00033	8d 47 28	 lea	 eax, DWORD PTR [edi+40]
  00036	d9 5e 24	 fstp	 DWORD PTR [esi+36]
  00039	50		 push	 eax
  0003a	8d 4e 28	 lea	 ecx, DWORD PTR [esi+40]
  0003d	c6 45 fc 01	 mov	 BYTE PTR __$EHRec$[ebp+8], 1
  00041	e8 00 00 00 00	 call	 ??0?$vector@UWeaponInfo@@V?$allocator@UWeaponInfo@@@std@@@std@@QAE@ABV01@@Z ; std::vector<WeaponInfo,std::allocator<WeaponInfo> >::vector<WeaponInfo,std::allocator<WeaponInfo> >
  00046	8d 47 38	 lea	 eax, DWORD PTR [edi+56]
  00049	50		 push	 eax
  0004a	8d 4e 38	 lea	 ecx, DWORD PTR [esi+56]
  0004d	c6 45 fc 02	 mov	 BYTE PTR __$EHRec$[ebp+8], 2
  00051	e8 00 00 00 00	 call	 ??0?$vector@UForceInfo@@V?$allocator@UForceInfo@@@std@@@std@@QAE@ABV01@@Z ; std::vector<ForceInfo,std::allocator<ForceInfo> >::vector<ForceInfo,std::allocator<ForceInfo> >
  00056	8b 47 48	 mov	 eax, DWORD PTR [edi+72]
  00059	89 46 48	 mov	 DWORD PTR [esi+72], eax
  0005c	8b 47 4c	 mov	 eax, DWORD PTR [edi+76]
  0005f	89 46 4c	 mov	 DWORD PTR [esi+76], eax
  00062	8b c6		 mov	 eax, esi
  00064	e8 00 00 00 00	 call	 __EH_epilog3
  00069	c2 04 00	 ret	 4
_TEXT	ENDS
;	COMDAT text$x
text$x	SEGMENT
__unwindfunclet$??0AttackAttribute@@QAE@ABU0@@Z$0:
  00000	8b 4d f0	 mov	 ecx, DWORD PTR _this$[ebp]
  00003	ff 25 00 00 00
	00		 jmp	 DWORD PTR __imp_??1ioHashString@@QAE@XZ
__unwindfunclet$??0AttackAttribute@@QAE@ABU0@@Z$1:
  00009	8b 4d f0	 mov	 ecx, DWORD PTR _this$[ebp]
  0000c	83 c1 14	 add	 ecx, 20			; 00000014H
  0000f	ff 25 00 00 00
	00		 jmp	 DWORD PTR __imp_??1ioHashString@@QAE@XZ
__unwindfunclet$??0AttackAttribute@@QAE@ABU0@@Z$2:
  00015	8b 4d f0	 mov	 ecx, DWORD PTR _this$[ebp]
  00018	83 c1 28	 add	 ecx, 40			; 00000028H
  0001b	e9 00 00 00 00	 jmp	 ??1?$vector@UWeaponInfo@@V?$allocator@UWeaponInfo@@@std@@@std@@QAE@XZ ; std::vector<WeaponInfo,std::allocator<WeaponInfo> >::~vector<WeaponInfo,std::allocator<WeaponInfo> >
__ehhandler$??0AttackAttribute@@QAE@ABU0@@Z:
  00020	8b 54 24 08	 mov	 edx, DWORD PTR [esp+8]
  00024	8d 42 0c	 lea	 eax, DWORD PTR [edx+12]
  00027	8b 4a ec	 mov	 ecx, DWORD PTR [edx-20]
  0002a	33 c8		 xor	 ecx, eax
  0002c	e8 00 00 00 00	 call	 @__security_check_cookie@4
  00031	b8 00 00 00 00	 mov	 eax, OFFSET __ehfuncinfo$??0AttackAttribute@@QAE@ABU0@@Z
  00036	e9 00 00 00 00	 jmp	 ___CxxFrameHandler3
text$x	ENDS
??0AttackAttribute@@QAE@ABU0@@Z ENDP			; AttackAttribute::AttackAttribute
PUBLIC	_rkLoader$GSCopy$
PUBLIC	?LoadProperty@ioCircleMoveAttackSkill@@UAEXAAVioINILoader@@@Z ; ioCircleMoveAttackSkill::LoadProperty
EXTRN	__imp__wsprintfA:PROC
EXTRN	?Init@AttackAttribute@@QAEXXZ:PROC		; AttackAttribute::Init
EXTRN	__imp_??4ioHashString@@QAEAAV0@PBD@Z:PROC
EXTRN	?LoadProperty@ioNormalSkill@@UAEXAAVioINILoader@@@Z:PROC ; ioNormalSkill::LoadProperty
;	COMDAT xdata$x
; File d:\lost saga for developer\youtube\tutorial\source\src\lsclient\stringprotect.h
xdata$x	SEGMENT
__unwindtable$?LoadProperty@ioCircleMoveAttackSkill@@UAEXAAVioINILoader@@@Z DD 0ffffffffH
	DD	FLAT:__unwindfunclet$?LoadProperty@ioCircleMoveAttackSkill@@UAEXAAVioINILoader@@@Z$0
	DD	0ffffffffH
	DD	FLAT:__unwindfunclet$?LoadProperty@ioCircleMoveAttackSkill@@UAEXAAVioINILoader@@@Z$1
__ehfuncinfo$?LoadProperty@ioCircleMoveAttackSkill@@UAEXAAVioINILoader@@@Z DD 019930522H
	DD	02H
	DD	FLAT:__unwindtable$?LoadProperty@ioCircleMoveAttackSkill@@UAEXAAVioINILoader@@@Z
	DD	2 DUP(00H)
	DD	2 DUP(00H)
	DD	00H
	DD	01H
; Function compile flags: /Ogsp
; File d:\lost saga for developer\youtube\tutorial\source\src\lsclient\iocirclemoveattackskill.cpp
xdata$x	ENDS
;	COMDAT ?LoadProperty@ioCircleMoveAttackSkill@@UAEXAAVioINILoader@@@Z
_TEXT	SEGMENT
_kInfo$549952 = -1704					; size = 40
_kInfo$548714 = -1664					; size = 40
tv33678 = -1624						; size = 4
tv33621 = -1624						; size = 4
_kInfo$549485 = -1620					; size = 12
_kInfo$548249 = -1620					; size = 12
tv33833 = -1608						; size = 4
tv33649 = -1608						; size = 4
tv17715 = -1608						; size = 4
tv13767 = -1608						; size = 4
_iForceCnt$ = -1608					; size = 4
tv33730 = -1604						; size = 4
tv33704 = -1604						; size = 4
tv33540 = -1604						; size = 4
_i$561557 = -1604					; size = 4
tv15195 = -1604						; size = 4
tv11057 = -1604						; size = 4
_iAttackTypeCnt$ = -1604				; size = 4
_rkLoader$GSCopy$ = -1600				; size = 4
_szBuf$ = -1596						; size = 260
_szKey$ = -1336						; size = 260
___encStr$549641 = -1076				; size = 29
___encStr$549489 = -1040				; size = 25
___encStr$550564 = -1008				; size = 36
___encStr$548559 = -968					; size = 21
___encStr$548870 = -940					; size = 21
__k$561050 = -912					; size = 21
___encStr$550412 = -884					; size = 32
___encStr$549326 = -848					; size = 31
__k$561313 = -812					; size = 17
__k$562181 = -788					; size = 17
__k$562614 = -764					; size = 17
__k$560735 = -740					; size = 17
__k$561438 = -716					; size = 17
___encStr$549174 = -692					; size = 27
___encStr$550260 = -660					; size = 27
___encStr$550108 = -628					; size = 26
___encStr$549794 = -596					; size = 26
__k$560313 = -564					; size = 24
__k$560438 = -536					; size = 24
___encStr$548406 = -508					; size = 24
__k$563073 = -480					; size = 23
__k$563275 = -452					; size = 23
___encStr$549022 = -424					; size = 22
__k$562914 = -396					; size = 22
__k$561679 = -368					; size = 13
__k$560925 = -348					; size = 13
___encStr$548253 = -328					; size = 20
__k$562442 = -304					; size = 20
__k$560563 = -280					; size = 20
__k$562317 = -256					; size = 20
__k$560188 = -232					; size = 19
___encStr$549956 = -208					; size = 19
__k$561929 = -184					; size = 19
__k$562054 = -160					; size = 18
__k$562719 = -136					; size = 18
__k$560800 = -112					; size = 16
__k$561567 = -92					; size = 16
__k$561188 = -72					; size = 16
___encStr$548718 = -52					; size = 14
__k$561890 = -32					; size = 11
__$EHRec$ = -12						; size = 12
_rkLoader$ = 8						; size = 4
?LoadProperty@ioCircleMoveAttackSkill@@UAEXAAVioINILoader@@@Z PROC ; ioCircleMoveAttackSkill::LoadProperty, COMDAT
; _this$ = ecx

; 67   : {

  00000	68 9c 06 00 00	 push	 1692			; 0000069cH
  00005	b8 00 00 00 00	 mov	 eax, __ehhandler$?LoadProperty@ioCircleMoveAttackSkill@@UAEXAAVioINILoader@@@Z
  0000a	e8 00 00 00 00	 call	 __EH_prolog3_GS
  0000f	8b 45 08	 mov	 eax, DWORD PTR _rkLoader$[ebp]

; 68   : 	ioNormalSkill::LoadProperty( rkLoader );

  00012	50		 push	 eax
  00013	8b f1		 mov	 esi, ecx

; 166  : 	iForceCnt = rkLoader.LoadInt_e( "land_attack_force_cnt", 0 );

  00015	89 85 c0 f9 ff
	ff		 mov	 DWORD PTR _rkLoader$GSCopy$[ebp], eax
  0001b	e8 00 00 00 00	 call	 ?LoadProperty@ioNormalSkill@@UAEXAAVioINILoader@@@Z ; ioNormalSkill::LoadProperty
  00020	33 db		 xor	 ebx, ebx
  00022	6a 04		 push	 4
  00024	c7 85 18 ff ff
	ff 80 8d 8c 83	 mov	 DWORD PTR __k$560188[ebp], -2087940736 ; 838c8d80H
  0002e	c7 85 1c ff ff
	ff 8e b3 88 83	 mov	 DWORD PTR __k$560188[ebp+4], -2088193138 ; 8388b38eH
  00038	c7 85 20 ff ff
	ff 9f 8f 87 8f	 mov	 DWORD PTR __k$560188[ebp+8], -1886941281 ; 8f878f9fH
  00042	c7 85 24 ff ff
	ff b2 9e 8a 84	 mov	 DWORD PTR __k$560188[ebp+12], -2071290190 ; 848a9eb2H
  0004c	66 c7 85 28 ff
	ff ff 8a 89	 mov	 WORD PTR __k$560188[ebp+16], 35210 ; 0000898aH
  00055	8d 85 18 ff ff
	ff		 lea	 eax, DWORD PTR __k$560188[ebp]
  0005b	88 9d 2a ff ff
	ff		 mov	 BYTE PTR __k$560188[ebp+18], bl
  00061	59		 pop	 ecx
  00062	bf ed ec eb ea	 mov	 edi, -353637139		; eaebecedH
$LL1706@LoadProper:

; 69   : 
; 70   : 	char szKey[MAX_PATH], szBuf[MAX_PATH];
; 71   : 
; 72   : 	m_fCircleRange = rkLoader.LoadFloat_e( "magic_circle_range", 0.0f );

  00067	31 38		 xor	 DWORD PTR [eax], edi
  00069	83 c0 04	 add	 eax, 4
  0006c	49		 dec	 ecx
  0006d	75 f8		 jne	 SHORT $LL1706@LoadProper
  0006f	6a 10		 push	 16			; 00000010H
  00071	58		 pop	 eax
$LL1703@LoadProper:
  00072	8b c8		 mov	 ecx, eax
  00074	81 e1 03 00 00
	80		 and	 ecx, -2147483645	; 80000003H
  0007a	79 05		 jns	 SHORT $LN4459@LoadProper
  0007c	49		 dec	 ecx
  0007d	83 c9 fc	 or	 ecx, -4			; fffffffcH
  00080	41		 inc	 ecx
$LN4459@LoadProper:
  00081	b2 ed		 mov	 dl, -19			; ffffffedH
  00083	2a d1		 sub	 dl, cl
  00085	30 94 05 18 ff
	ff ff		 xor	 BYTE PTR __k$560188[ebp+eax], dl
  0008c	40		 inc	 eax
  0008d	83 f8 12	 cmp	 eax, 18			; 00000012H
  00090	7c e0		 jl	 SHORT $LL1703@LoadProper
  00092	0f 57 c0	 xorps	 xmm0, xmm0
  00095	51		 push	 ecx
  00096	8b 8d c0 f9 ff
	ff		 mov	 ecx, DWORD PTR _rkLoader$GSCopy$[ebp]
  0009c	8d 85 18 ff ff
	ff		 lea	 eax, DWORD PTR __k$560188[ebp]
  000a2	f3 0f 11 04 24	 movss	 DWORD PTR [esp], xmm0
  000a7	50		 push	 eax
  000a8	ff 15 00 00 00
	00		 call	 DWORD PTR __imp_?LoadFloat@ioINILoader@@QAEMPBDM@Z
  000ae	d9 9e 2c 10 00
	00		 fstp	 DWORD PTR [esi+4140]
  000b4	6a 05		 push	 5

; 73   : 	m_fCircleMoveSpeed = rkLoader.LoadFloat_e( "magic_circle_move_speed", 0.0f );

  000b6	c7 85 cc fd ff
	ff 80 8d 8c 83	 mov	 DWORD PTR __k$560313[ebp], -2087940736 ; 838c8d80H
  000c0	c7 85 d0 fd ff
	ff 8e b3 88 83	 mov	 DWORD PTR __k$560313[ebp+4], -2088193138 ; 8388b38eH
  000ca	c7 85 d4 fd ff
	ff 9f 8f 87 8f	 mov	 DWORD PTR __k$560313[ebp+8], -1886941281 ; 8f878f9fH
  000d4	c7 85 d8 fd ff
	ff b2 81 84 9c	 mov	 DWORD PTR __k$560313[ebp+12], -1669037646 ; 9c8481b2H
  000de	c7 85 dc fd ff
	ff 88 b3 98 9a	 mov	 DWORD PTR __k$560313[ebp+16], -1701268600 ; 9a98b388H
  000e8	8d 85 cc fd ff
	ff		 lea	 eax, DWORD PTR __k$560313[ebp]
  000ee	c7 85 e0 fd ff
	ff 88 89 8f 00	 mov	 DWORD PTR __k$560313[ebp+20], 9406856 ; 008f8988H
  000f8	59		 pop	 ecx
$LL1812@LoadProper:
  000f9	31 38		 xor	 DWORD PTR [eax], edi
  000fb	83 c0 04	 add	 eax, 4
  000fe	49		 dec	 ecx
  000ff	75 f8		 jne	 SHORT $LL1812@LoadProper
  00101	6a 14		 push	 20			; 00000014H
  00103	58		 pop	 eax
$LL1809@LoadProper:
  00104	8b c8		 mov	 ecx, eax
  00106	81 e1 03 00 00
	80		 and	 ecx, -2147483645	; 80000003H
  0010c	79 05		 jns	 SHORT $LN4460@LoadProper
  0010e	49		 dec	 ecx
  0010f	83 c9 fc	 or	 ecx, -4			; fffffffcH
  00112	41		 inc	 ecx
$LN4460@LoadProper:
  00113	b2 ed		 mov	 dl, -19			; ffffffedH
  00115	2a d1		 sub	 dl, cl
  00117	30 94 05 cc fd
	ff ff		 xor	 BYTE PTR __k$560313[ebp+eax], dl
  0011e	40		 inc	 eax
  0011f	83 f8 17	 cmp	 eax, 23			; 00000017H
  00122	7c e0		 jl	 SHORT $LL1809@LoadProper
  00124	0f 57 c0	 xorps	 xmm0, xmm0
  00127	51		 push	 ecx
  00128	8b 8d c0 f9 ff
	ff		 mov	 ecx, DWORD PTR _rkLoader$GSCopy$[ebp]
  0012e	8d 85 cc fd ff
	ff		 lea	 eax, DWORD PTR __k$560313[ebp]
  00134	f3 0f 11 04 24	 movss	 DWORD PTR [esp], xmm0
  00139	50		 push	 eax
  0013a	ff 15 00 00 00
	00		 call	 DWORD PTR __imp_?LoadFloat@ioINILoader@@QAEMPBDM@Z
  00140	d9 9e 30 10 00
	00		 fstp	 DWORD PTR [esi+4144]
  00146	6a 05		 push	 5

; 74   : 	m_fCircleHeightGap = rkLoader.LoadFloat_e( "magic_circle_height_gap", 0.0f );

  00148	c7 85 e8 fd ff
	ff 80 8d 8c 83	 mov	 DWORD PTR __k$560438[ebp], -2087940736 ; 838c8d80H
  00152	c7 85 ec fd ff
	ff 8e b3 88 83	 mov	 DWORD PTR __k$560438[ebp+4], -2088193138 ; 8388b38eH
  0015c	c7 85 f0 fd ff
	ff 9f 8f 87 8f	 mov	 DWORD PTR __k$560438[ebp+8], -1886941281 ; 8f878f9fH
  00166	c7 85 f4 fd ff
	ff b2 84 8e 83	 mov	 DWORD PTR __k$560438[ebp+12], -2087811918 ; 838e84b2H
  00170	c7 85 f8 fd ff
	ff 8a 84 9f b5	 mov	 DWORD PTR __k$560438[ebp+16], -1247837046 ; b59f848aH
  0017a	8d 85 e8 fd ff
	ff		 lea	 eax, DWORD PTR __k$560438[ebp]
  00180	c7 85 fc fd ff
	ff 8a 8d 9b 00	 mov	 DWORD PTR __k$560438[ebp+20], 10194314 ; 009b8d8aH
  0018a	59		 pop	 ecx
$LL1918@LoadProper:
  0018b	31 38		 xor	 DWORD PTR [eax], edi
  0018d	83 c0 04	 add	 eax, 4
  00190	49		 dec	 ecx
  00191	75 f8		 jne	 SHORT $LL1918@LoadProper
  00193	6a 14		 push	 20			; 00000014H
  00195	58		 pop	 eax
$LL1915@LoadProper:
  00196	8b c8		 mov	 ecx, eax
  00198	81 e1 03 00 00
	80		 and	 ecx, -2147483645	; 80000003H
  0019e	79 05		 jns	 SHORT $LN4461@LoadProper
  001a0	49		 dec	 ecx
  001a1	83 c9 fc	 or	 ecx, -4			; fffffffcH
  001a4	41		 inc	 ecx
$LN4461@LoadProper:
  001a5	b2 ed		 mov	 dl, -19			; ffffffedH
  001a7	2a d1		 sub	 dl, cl
  001a9	30 94 05 e8 fd
	ff ff		 xor	 BYTE PTR __k$560438[ebp+eax], dl
  001b0	40		 inc	 eax
  001b1	83 f8 17	 cmp	 eax, 23			; 00000017H
  001b4	7c e0		 jl	 SHORT $LL1915@LoadProper
  001b6	0f 57 c0	 xorps	 xmm0, xmm0
  001b9	51		 push	 ecx
  001ba	8b 8d c0 f9 ff
	ff		 mov	 ecx, DWORD PTR _rkLoader$GSCopy$[ebp]
  001c0	8d 85 e8 fd ff
	ff		 lea	 eax, DWORD PTR __k$560438[ebp]
  001c6	f3 0f 11 04 24	 movss	 DWORD PTR [esp], xmm0
  001cb	50		 push	 eax
  001cc	ff 15 00 00 00
	00		 call	 DWORD PTR __imp_?LoadFloat@ioINILoader@@QAEMPBDM@Z
  001d2	d9 9e 34 10 00
	00		 fstp	 DWORD PTR [esi+4148]
  001d8	6a 04		 push	 4

; 75   : 	m_fCircleOffSet = rkLoader.LoadFloat_e( "magic_circle_offset", 0.0f );

  001da	c7 85 e8 fe ff
	ff 80 8d 8c 83	 mov	 DWORD PTR __k$560563[ebp], -2087940736 ; 838c8d80H
  001e4	c7 85 ec fe ff
	ff 8e b3 88 83	 mov	 DWORD PTR __k$560563[ebp+4], -2088193138 ; 8388b38eH
  001ee	c7 85 f0 fe ff
	ff 9f 8f 87 8f	 mov	 DWORD PTR __k$560563[ebp+8], -1886941281 ; 8f878f9fH
  001f8	c7 85 f4 fe ff
	ff b2 83 8d 8c	 mov	 DWORD PTR __k$560563[ebp+12], -1936882766 ; 8c8d83b2H
  00202	8d 85 e8 fe ff
	ff		 lea	 eax, DWORD PTR __k$560563[ebp]
  00208	c7 85 f8 fe ff
	ff 9e 89 9f 00	 mov	 DWORD PTR __k$560563[ebp+16], 10455454 ; 009f899eH
  00212	59		 pop	 ecx
$LL2024@LoadProper:
  00213	31 38		 xor	 DWORD PTR [eax], edi
  00215	83 c0 04	 add	 eax, 4
  00218	49		 dec	 ecx
  00219	75 f8		 jne	 SHORT $LL2024@LoadProper
  0021b	6a 10		 push	 16			; 00000010H
  0021d	58		 pop	 eax
$LL2021@LoadProper:
  0021e	8b c8		 mov	 ecx, eax
  00220	81 e1 03 00 00
	80		 and	 ecx, -2147483645	; 80000003H
  00226	79 05		 jns	 SHORT $LN4462@LoadProper
  00228	49		 dec	 ecx
  00229	83 c9 fc	 or	 ecx, -4			; fffffffcH
  0022c	41		 inc	 ecx
$LN4462@LoadProper:
  0022d	b2 ed		 mov	 dl, -19			; ffffffedH
  0022f	2a d1		 sub	 dl, cl
  00231	30 94 05 e8 fe
	ff ff		 xor	 BYTE PTR __k$560563[ebp+eax], dl
  00238	40		 inc	 eax
  00239	83 f8 13	 cmp	 eax, 19			; 00000013H
  0023c	7c e0		 jl	 SHORT $LL2021@LoadProper
  0023e	0f 57 c0	 xorps	 xmm0, xmm0
  00241	51		 push	 ecx
  00242	8b 8d c0 f9 ff
	ff		 mov	 ecx, DWORD PTR _rkLoader$GSCopy$[ebp]
  00248	8d 85 e8 fe ff
	ff		 lea	 eax, DWORD PTR __k$560563[ebp]
  0024e	f3 0f 11 04 24	 movss	 DWORD PTR [esp], xmm0
  00253	50		 push	 eax
  00254	ff 15 00 00 00
	00		 call	 DWORD PTR __imp_?LoadFloat@ioINILoader@@QAEMPBDM@Z
  0025a	d9 9e 38 10 00
	00		 fstp	 DWORD PTR [esi+4152]
  00260	6a 04		 push	 4

; 76   : 
; 77   : 	m_WaitType = (WaitType)rkLoader.LoadInt_e( "action_wait_type", WT_NORMAL );

  00262	c7 85 1c fd ff
	ff 8c 8f 9f 83	 mov	 DWORD PTR __k$560735[ebp], -2086695028 ; 839f8f8cH
  0026c	c7 85 20 fd ff
	ff 82 82 b4 9d	 mov	 DWORD PTR __k$560735[ebp+4], -1649114494 ; 9db48282H
  00276	c7 85 24 fd ff
	ff 8c 85 9f b5	 mov	 DWORD PTR __k$560735[ebp+8], -1247836788 ; b59f858cH
  00280	c7 85 28 fd ff
	ff 99 95 9b 8f	 mov	 DWORD PTR __k$560735[ebp+12], -1885629031 ; 8f9b9599H
  0028a	8d 85 1c fd ff
	ff		 lea	 eax, DWORD PTR __k$560735[ebp]
  00290	88 9d 2c fd ff
	ff		 mov	 BYTE PTR __k$560735[ebp+16], bl
  00296	59		 pop	 ecx
$LL2130@LoadProper:
  00297	31 38		 xor	 DWORD PTR [eax], edi
  00299	83 c0 04	 add	 eax, 4
  0029c	49		 dec	 ecx
  0029d	75 f8		 jne	 SHORT $LL2130@LoadProper
  0029f	8b 8d c0 f9 ff
	ff		 mov	 ecx, DWORD PTR _rkLoader$GSCopy$[ebp]
  002a5	8b 3d 00 00 00
	00		 mov	 edi, DWORD PTR __imp_?LoadInt@ioINILoader@@QAEHPBDH@Z
  002ab	6a 01		 push	 1
  002ad	8d 85 1c fd ff
	ff		 lea	 eax, DWORD PTR __k$560735[ebp]
  002b3	50		 push	 eax
  002b4	ff d7		 call	 edi
  002b6	89 86 dc 10 00
	00		 mov	 DWORD PTR [esi+4316], eax
  002bc	6a 03		 push	 3

; 78   : 	m_dwWaitLimitTime = (DWORD)rkLoader.LoadInt_e( "wait_limit_time", 0 );

  002be	c7 45 90 9a 8d
	82 9e		 mov	 DWORD PTR __k$560800[ebp], -1635611238 ; 9e828d9aH
  002c5	c7 45 94 b2 80
	82 87		 mov	 DWORD PTR __k$560800[ebp+4], -2021490510 ; 878280b2H
  002cc	c7 45 98 84 98
	b4 9e		 mov	 DWORD PTR __k$560800[ebp+8], -1632331644 ; 9eb49884H
  002d3	8d 45 90	 lea	 eax, DWORD PTR __k$560800[ebp]
  002d6	c7 45 9c 84 81
	8e 00		 mov	 DWORD PTR __k$560800[ebp+12], 9339268 ; 008e8184H
  002dd	59		 pop	 ecx
$LL2236@LoadProper:
  002de	81 30 ed ec eb
	ea		 xor	 DWORD PTR [eax], -353637139 ; eaebecedH
  002e4	83 c0 04	 add	 eax, 4
  002e7	49		 dec	 ecx
  002e8	75 f4		 jne	 SHORT $LL2236@LoadProper
  002ea	6a 0c		 push	 12			; 0000000cH
  002ec	58		 pop	 eax
$LL2233@LoadProper:
  002ed	8b c8		 mov	 ecx, eax
  002ef	81 e1 03 00 00
	80		 and	 ecx, -2147483645	; 80000003H
  002f5	79 05		 jns	 SHORT $LN4463@LoadProper
  002f7	49		 dec	 ecx
  002f8	83 c9 fc	 or	 ecx, -4			; fffffffcH
  002fb	41		 inc	 ecx
$LN4463@LoadProper:
  002fc	b2 ed		 mov	 dl, -19			; ffffffedH
  002fe	2a d1		 sub	 dl, cl
  00300	30 54 05 90	 xor	 BYTE PTR __k$560800[ebp+eax], dl
  00304	40		 inc	 eax
  00305	83 f8 0f	 cmp	 eax, 15			; 0000000fH
  00308	7c e3		 jl	 SHORT $LL2233@LoadProper
  0030a	8b 8d c0 f9 ff
	ff		 mov	 ecx, DWORD PTR _rkLoader$GSCopy$[ebp]
  00310	53		 push	 ebx
  00311	8d 45 90	 lea	 eax, DWORD PTR __k$560800[ebp]
  00314	50		 push	 eax
  00315	ff d7		 call	 edi
  00317	50		 push	 eax
  00318	8d 8e e0 10 00
	00		 lea	 ecx, DWORD PTR [esi+4320]
  0031e	e8 00 00 00 00	 call	 ??4?$CEncrypt@K@@QAEKK@Z ; CEncrypt<unsigned long>::operator=
  00323	6a 03		 push	 3

; 79   : 
; 80   : 	rkLoader.LoadString_e( "ready_circle", "", szBuf, MAX_PATH );

  00325	c7 85 a4 fe ff
	ff 9f 89 8a 8e	 mov	 DWORD PTR __k$560925[ebp], -1903523425 ; 8e8a899fH
  0032f	c7 85 a8 fe ff
	ff 94 b3 88 83	 mov	 DWORD PTR __k$560925[ebp+4], -2088193132 ; 8388b394H
  00339	c7 85 ac fe ff
	ff 9f 8f 87 8f	 mov	 DWORD PTR __k$560925[ebp+8], -1886941281 ; 8f878f9fH
  00343	8d 85 a4 fe ff
	ff		 lea	 eax, DWORD PTR __k$560925[ebp]
  00349	88 9d b0 fe ff
	ff		 mov	 BYTE PTR __k$560925[ebp+12], bl
  0034f	59		 pop	 ecx
$LL2342@LoadProper:
  00350	81 30 ed ec eb
	ea		 xor	 DWORD PTR [eax], -353637139 ; eaebecedH
  00356	83 c0 04	 add	 eax, 4
  00359	49		 dec	 ecx
  0035a	75 f4		 jne	 SHORT $LL2342@LoadProper
  0035c	8b 8d c0 f9 ff
	ff		 mov	 ecx, DWORD PTR _rkLoader$GSCopy$[ebp]
  00362	8b 3d 00 00 00
	00		 mov	 edi, DWORD PTR __imp_?LoadStringA@ioINILoader@@QAEXPBD0PADH@Z
  00368	68 04 01 00 00	 push	 260			; 00000104H
  0036d	8d 85 c4 f9 ff
	ff		 lea	 eax, DWORD PTR _szBuf$[ebp]
  00373	50		 push	 eax
  00374	68 00 00 00 00	 push	 OFFSET ??_C@_00CNPNBAHC@?$AA@
  00379	8d 85 a4 fe ff
	ff		 lea	 eax, DWORD PTR __k$560925[ebp]
  0037f	50		 push	 eax
  00380	ff d7		 call	 edi

; 81   : 	m_ReadyCircle = szBuf;

  00382	8d 85 c4 f9 ff
	ff		 lea	 eax, DWORD PTR _szBuf$[ebp]
  00388	50		 push	 eax
  00389	8d 8e 60 10 00
	00		 lea	 ecx, DWORD PTR [esi+4192]
  0038f	ff 15 00 00 00
	00		 call	 DWORD PTR __imp_??4ioHashString@@QAEAAV0@PBD@Z
  00395	6a 05		 push	 5

; 82   : 
; 83   : 	rkLoader.LoadString_e( "target_circle_effect", "", szBuf, MAX_PATH );

  00397	c7 85 70 fc ff
	ff 99 8d 99 8d	 mov	 DWORD PTR __k$561050[ebp], -1919316583 ; 8d998d99H
  003a1	c7 85 74 fc ff
	ff 88 98 b4 89	 mov	 DWORD PTR __k$561050[ebp+4], -1984653176 ; 89b49888H
  003ab	c7 85 78 fc ff
	ff 84 9e 88 86	 mov	 DWORD PTR __k$561050[ebp+8], -2037866876 ; 86889e84H
  003b5	c7 85 7c fc ff
	ff 88 b3 8e 8c	 mov	 DWORD PTR __k$561050[ebp+12], -1936804984 ; 8c8eb388H
  003bf	c7 85 80 fc ff
	ff 8b 89 88 9e	 mov	 DWORD PTR __k$561050[ebp+16], -1635219061 ; 9e88898bH
  003c9	8d 85 70 fc ff
	ff		 lea	 eax, DWORD PTR __k$561050[ebp]
  003cf	88 9d 84 fc ff
	ff		 mov	 BYTE PTR __k$561050[ebp+20], bl
  003d5	59		 pop	 ecx
$LL2448@LoadProper:
  003d6	81 30 ed ec eb
	ea		 xor	 DWORD PTR [eax], -353637139 ; eaebecedH
  003dc	83 c0 04	 add	 eax, 4
  003df	49		 dec	 ecx
  003e0	75 f4		 jne	 SHORT $LL2448@LoadProper
  003e2	8b 8d c0 f9 ff
	ff		 mov	 ecx, DWORD PTR _rkLoader$GSCopy$[ebp]
  003e8	68 04 01 00 00	 push	 260			; 00000104H
  003ed	8d 85 c4 f9 ff
	ff		 lea	 eax, DWORD PTR _szBuf$[ebp]
  003f3	50		 push	 eax
  003f4	68 00 00 00 00	 push	 OFFSET ??_C@_00CNPNBAHC@?$AA@
  003f9	8d 85 70 fc ff
	ff		 lea	 eax, DWORD PTR __k$561050[ebp]
  003ff	50		 push	 eax
  00400	ff d7		 call	 edi

; 84   : 	m_TargetCircleEffect = szBuf;

  00402	8d 85 c4 f9 ff
	ff		 lea	 eax, DWORD PTR _szBuf$[ebp]
  00408	50		 push	 eax
  00409	8d 8e 70 10 00
	00		 lea	 ecx, DWORD PTR [esi+4208]
  0040f	ff 15 00 00 00
	00		 call	 DWORD PTR __imp_??4ioHashString@@QAEAAV0@PBD@Z
  00415	6a 03		 push	 3

; 85   : 
; 86   : 	rkLoader.LoadString_e( "red_team_circle", "", szBuf, MAX_PATH );

  00417	c7 45 b8 9f 89
	8f b5		 mov	 DWORD PTR __k$561188[ebp], -1248884321 ; b58f899fH
  0041e	c7 45 bc 99 89
	8a 87		 mov	 DWORD PTR __k$561188[ebp+4], -2020963943 ; 878a8999H
  00425	c7 45 c0 b2 8f
	82 98		 mov	 DWORD PTR __k$561188[ebp+8], -1736273998 ; 98828fb2H
  0042c	8d 45 b8	 lea	 eax, DWORD PTR __k$561188[ebp]
  0042f	c7 45 c4 8e 80
	8e 00		 mov	 DWORD PTR __k$561188[ebp+12], 9339022 ; 008e808eH
  00436	59		 pop	 ecx
$LL2554@LoadProper:
  00437	81 30 ed ec eb
	ea		 xor	 DWORD PTR [eax], -353637139 ; eaebecedH
  0043d	83 c0 04	 add	 eax, 4
  00440	49		 dec	 ecx
  00441	75 f4		 jne	 SHORT $LL2554@LoadProper
  00443	6a 0c		 push	 12			; 0000000cH
  00445	58		 pop	 eax
$LL2551@LoadProper:
  00446	8b c8		 mov	 ecx, eax
  00448	81 e1 03 00 00
	80		 and	 ecx, -2147483645	; 80000003H
  0044e	79 05		 jns	 SHORT $LN4464@LoadProper
  00450	49		 dec	 ecx
  00451	83 c9 fc	 or	 ecx, -4			; fffffffcH
  00454	41		 inc	 ecx
$LN4464@LoadProper:
  00455	b2 ed		 mov	 dl, -19			; ffffffedH
  00457	2a d1		 sub	 dl, cl
  00459	30 54 05 b8	 xor	 BYTE PTR __k$561188[ebp+eax], dl
  0045d	40		 inc	 eax
  0045e	83 f8 0f	 cmp	 eax, 15			; 0000000fH
  00461	7c e3		 jl	 SHORT $LL2551@LoadProper
  00463	8b 8d c0 f9 ff
	ff		 mov	 ecx, DWORD PTR _rkLoader$GSCopy$[ebp]
  00469	68 04 01 00 00	 push	 260			; 00000104H
  0046e	8d 85 c4 f9 ff
	ff		 lea	 eax, DWORD PTR _szBuf$[ebp]
  00474	50		 push	 eax
  00475	68 00 00 00 00	 push	 OFFSET ??_C@_00CNPNBAHC@?$AA@
  0047a	8d 45 b8	 lea	 eax, DWORD PTR __k$561188[ebp]
  0047d	50		 push	 eax
  0047e	ff d7		 call	 edi

; 87   : 	m_RedEffect = szBuf;

  00480	8d 85 c4 f9 ff
	ff		 lea	 eax, DWORD PTR _szBuf$[ebp]
  00486	50		 push	 eax
  00487	8d 8e 80 10 00
	00		 lea	 ecx, DWORD PTR [esi+4224]
  0048d	ff 15 00 00 00
	00		 call	 DWORD PTR __imp_??4ioHashString@@QAEAAV0@PBD@Z
  00493	6a 04		 push	 4

; 88   : 	rkLoader.LoadString_e( "blue_team_circle", "", szBuf, MAX_PATH );

  00495	c7 85 d4 fc ff
	ff 8f 80 9e 8f	 mov	 DWORD PTR __k$561313[ebp], -1885437809 ; 8f9e808fH
  0049f	c7 85 d8 fc ff
	ff b2 98 8e 8b	 mov	 DWORD PTR __k$561313[ebp+4], -1953589070 ; 8b8e98b2H
  004a9	c7 85 dc fc ff
	ff 80 b3 88 83	 mov	 DWORD PTR __k$561313[ebp+8], -2088193152 ; 8388b380H
  004b3	c7 85 e0 fc ff
	ff 9f 8f 87 8f	 mov	 DWORD PTR __k$561313[ebp+12], -1886941281 ; 8f878f9fH
  004bd	8d 85 d4 fc ff
	ff		 lea	 eax, DWORD PTR __k$561313[ebp]
  004c3	88 9d e4 fc ff
	ff		 mov	 BYTE PTR __k$561313[ebp+16], bl
  004c9	59		 pop	 ecx
$LL2660@LoadProper:
  004ca	81 30 ed ec eb
	ea		 xor	 DWORD PTR [eax], -353637139 ; eaebecedH
  004d0	83 c0 04	 add	 eax, 4
  004d3	49		 dec	 ecx
  004d4	75 f4		 jne	 SHORT $LL2660@LoadProper
  004d6	8b 8d c0 f9 ff
	ff		 mov	 ecx, DWORD PTR _rkLoader$GSCopy$[ebp]
  004dc	68 04 01 00 00	 push	 260			; 00000104H
  004e1	8d 85 c4 f9 ff
	ff		 lea	 eax, DWORD PTR _szBuf$[ebp]
  004e7	50		 push	 eax
  004e8	68 00 00 00 00	 push	 OFFSET ??_C@_00CNPNBAHC@?$AA@
  004ed	8d 85 d4 fc ff
	ff		 lea	 eax, DWORD PTR __k$561313[ebp]
  004f3	50		 push	 eax
  004f4	ff d7		 call	 edi

; 89   : 	m_BlueEffect = szBuf;

  004f6	8d 85 c4 f9 ff
	ff		 lea	 eax, DWORD PTR _szBuf$[ebp]
  004fc	50		 push	 eax
  004fd	8d 8e 90 10 00
	00		 lea	 ecx, DWORD PTR [esi+4240]
  00503	ff 15 00 00 00
	00		 call	 DWORD PTR __imp_??4ioHashString@@QAEAAV0@PBD@Z
  00509	6a 04		 push	 4

; 90   : 
; 91   : 	rkLoader.LoadString_e( "skill_end_motion", "", szBuf, MAX_PATH );

  0050b	c7 85 34 fd ff
	ff 9e 87 82 86	 mov	 DWORD PTR __k$561438[ebp], -2038265954 ; 8682879eH
  00515	c7 85 38 fd ff
	ff 81 b3 8e 84	 mov	 DWORD PTR __k$561438[ebp+4], -2071022719 ; 848eb381H
  0051f	c7 85 3c fd ff
	ff 89 b3 86 85	 mov	 DWORD PTR __k$561438[ebp+8], -2054769783 ; 8586b389H
  00529	c7 85 40 fd ff
	ff 99 85 84 84	 mov	 DWORD PTR __k$561438[ebp+12], -2071689831 ; 84848599H
  00533	8d 85 34 fd ff
	ff		 lea	 eax, DWORD PTR __k$561438[ebp]
  00539	88 9d 44 fd ff
	ff		 mov	 BYTE PTR __k$561438[ebp+16], bl
  0053f	59		 pop	 ecx
$LL2766@LoadProper:
  00540	81 30 ed ec eb
	ea		 xor	 DWORD PTR [eax], -353637139 ; eaebecedH
  00546	83 c0 04	 add	 eax, 4
  00549	49		 dec	 ecx
  0054a	75 f4		 jne	 SHORT $LL2766@LoadProper
  0054c	8b 8d c0 f9 ff
	ff		 mov	 ecx, DWORD PTR _rkLoader$GSCopy$[ebp]
  00552	68 04 01 00 00	 push	 260			; 00000104H
  00557	8d 85 c4 f9 ff
	ff		 lea	 eax, DWORD PTR _szBuf$[ebp]
  0055d	50		 push	 eax
  0055e	68 00 00 00 00	 push	 OFFSET ??_C@_00CNPNBAHC@?$AA@
  00563	8d 85 34 fd ff
	ff		 lea	 eax, DWORD PTR __k$561438[ebp]
  00569	50		 push	 eax
  0056a	ff d7		 call	 edi

; 92   : 	m_SkillEndMotion = szBuf;

  0056c	8d 85 c4 f9 ff
	ff		 lea	 eax, DWORD PTR _szBuf$[ebp]
  00572	8d 8e ac 10 00
	00		 lea	 ecx, DWORD PTR [esi+4268]
  00578	50		 push	 eax
  00579	ff 15 00 00 00
	00		 call	 DWORD PTR __imp_??4ioHashString@@QAEAAV0@PBD@Z

; 93   : 	m_fEndMotionRate = rkLoader.LoadFloat_e( "end_motion_rate", FLOAT1 );

  0057f	b8 01 00 00 00	 mov	 eax, 1
  00584	6a 03		 push	 3
  00586	c7 45 a4 88 82
	8f b5		 mov	 DWORD PTR __k$561567[ebp], -1248886136 ; b58f8288H
  0058d	c7 45 a8 80 83
	9f 83		 mov	 DWORD PTR __k$561567[ebp+4], -2086698112 ; 839f8380H
  00594	c7 45 ac 82 82
	b4 98		 mov	 DWORD PTR __k$561567[ebp+8], -1733000574 ; 98b48282H
  0059b	8d 4d a4	 lea	 ecx, DWORD PTR __k$561567[ebp]
  0059e	c7 45 b0 8c 98
	8e 00		 mov	 DWORD PTR __k$561567[ebp+12], 9345164 ; 008e988cH
  005a5	5a		 pop	 edx
$LL2874@LoadProper:
  005a6	81 31 ed ec eb
	ea		 xor	 DWORD PTR [ecx], -353637139 ; eaebecedH
  005ac	83 c1 04	 add	 ecx, 4
  005af	4a		 dec	 edx
  005b0	75 f4		 jne	 SHORT $LL2874@LoadProper
  005b2	c7 85 bc f9 ff
	ff 0c 00 00 00	 mov	 DWORD PTR _i$561557[ebp], 12 ; 0000000cH
$LL2871@LoadProper:
  005bc	8b 8d bc f9 ff
	ff		 mov	 ecx, DWORD PTR _i$561557[ebp]
  005c2	81 e1 03 00 00
	80		 and	 ecx, -2147483645	; 80000003H
  005c8	79 05		 jns	 SHORT $LN4465@LoadProper
  005ca	49		 dec	 ecx
  005cb	83 c9 fc	 or	 ecx, -4			; fffffffcH
  005ce	41		 inc	 ecx
$LN4465@LoadProper:
  005cf	b2 ed		 mov	 dl, -19			; ffffffedH
  005d1	2a d1		 sub	 dl, cl
  005d3	8b 8d bc f9 ff
	ff		 mov	 ecx, DWORD PTR _i$561557[ebp]
  005d9	30 54 0d a4	 xor	 BYTE PTR __k$561567[ebp+ecx], dl
  005dd	ff 85 bc f9 ff
	ff		 inc	 DWORD PTR _i$561557[ebp]
  005e3	83 bd bc f9 ff
	ff 0f		 cmp	 DWORD PTR _i$561557[ebp], 15 ; 0000000fH
  005ea	7c d0		 jl	 SHORT $LL2871@LoadProper
  005ec	89 85 bc f9 ff
	ff		 mov	 DWORD PTR tv33730[ebp], eax
  005f2	db 85 bc f9 ff
	ff		 fild	 DWORD PTR tv33730[ebp]
  005f8	85 c0		 test	 eax, eax
  005fa	79 06		 jns	 SHORT $LN4466@LoadProper
  005fc	d8 05 00 00 00
	00		 fadd	 DWORD PTR __real@4f800000
$LN4466@LoadProper:
  00602	51		 push	 ecx
  00603	8b 8d c0 f9 ff
	ff		 mov	 ecx, DWORD PTR _rkLoader$GSCopy$[ebp]
  00609	d9 1c 24	 fstp	 DWORD PTR [esp]
  0060c	8d 45 a4	 lea	 eax, DWORD PTR __k$561567[ebp]
  0060f	50		 push	 eax
  00610	ff 15 00 00 00
	00		 call	 DWORD PTR __imp_?LoadFloat@ioINILoader@@QAEMPBDM@Z
  00616	d9 9e a8 10 00
	00		 fstp	 DWORD PTR [esi+4264]
  0061c	6a 03		 push	 3

; 94   : 
; 95   : 	rkLoader.LoadString_e( "start_effect", "", szBuf, MAX_PATH );

  0061e	c7 85 90 fe ff
	ff 9e 98 8a 98	 mov	 DWORD PTR __k$561679[ebp], -1735747426 ; 988a989eH
  00628	c7 85 94 fe ff
	ff 99 b3 8e 8c	 mov	 DWORD PTR __k$561679[ebp+4], -1936804967 ; 8c8eb399H
  00632	c7 85 98 fe ff
	ff 8b 89 88 9e	 mov	 DWORD PTR __k$561679[ebp+8], -1635219061 ; 9e88898bH
  0063c	8d 85 90 fe ff
	ff		 lea	 eax, DWORD PTR __k$561679[ebp]
  00642	88 9d 9c fe ff
	ff		 mov	 BYTE PTR __k$561679[ebp+12], bl
  00648	59		 pop	 ecx
$LL2980@LoadProper:
  00649	81 30 ed ec eb
	ea		 xor	 DWORD PTR [eax], -353637139 ; eaebecedH
  0064f	83 c0 04	 add	 eax, 4
  00652	49		 dec	 ecx
  00653	75 f4		 jne	 SHORT $LL2980@LoadProper
  00655	8b 8d c0 f9 ff
	ff		 mov	 ecx, DWORD PTR _rkLoader$GSCopy$[ebp]
  0065b	68 04 01 00 00	 push	 260			; 00000104H
  00660	8d 85 c4 f9 ff
	ff		 lea	 eax, DWORD PTR _szBuf$[ebp]
  00666	50		 push	 eax
  00667	68 00 00 00 00	 push	 OFFSET ??_C@_00CNPNBAHC@?$AA@
  0066c	8d 85 90 fe ff
	ff		 lea	 eax, DWORD PTR __k$561679[ebp]
  00672	50		 push	 eax
  00673	ff d7		 call	 edi

; 96   : 	m_StartEffect = szBuf;

  00675	8d 85 c4 f9 ff
	ff		 lea	 eax, DWORD PTR _szBuf$[ebp]
  0067b	50		 push	 eax
  0067c	8d 8e bc 10 00
	00		 lea	 ecx, DWORD PTR [esi+4284]
  00682	ff 15 00 00 00
	00		 call	 DWORD PTR __imp_??4ioHashString@@QAEAAV0@PBD@Z
  00688	6a 02		 push	 2

; 97   : 	rkLoader.LoadString_e( "end_effect", "", szBuf, MAX_PATH );

  0068a	c7 45 e0 88 82
	8f b5		 mov	 DWORD PTR __k$561890[ebp], -1248886136 ; b58f8288H
  00691	c7 45 e4 88 8a
	8d 8f		 mov	 DWORD PTR __k$561890[ebp+4], -1886549368 ; 8f8d8a88H
  00698	66 c7 45 e8 8e
	98		 mov	 WORD PTR __k$561890[ebp+8], 39054 ; 0000988eH
  0069e	8d 45 e0	 lea	 eax, DWORD PTR __k$561890[ebp]
  006a1	88 5d ea	 mov	 BYTE PTR __k$561890[ebp+10], bl
  006a4	59		 pop	 ecx
$LL3086@LoadProper:
  006a5	81 30 ed ec eb
	ea		 xor	 DWORD PTR [eax], -353637139 ; eaebecedH
  006ab	83 c0 04	 add	 eax, 4
  006ae	49		 dec	 ecx
  006af	75 f4		 jne	 SHORT $LL3086@LoadProper
  006b1	6a 08		 push	 8
  006b3	58		 pop	 eax
$LL3083@LoadProper:
  006b4	8b c8		 mov	 ecx, eax
  006b6	81 e1 03 00 00
	80		 and	 ecx, -2147483645	; 80000003H
  006bc	79 05		 jns	 SHORT $LN4467@LoadProper
  006be	49		 dec	 ecx
  006bf	83 c9 fc	 or	 ecx, -4			; fffffffcH
  006c2	41		 inc	 ecx
$LN4467@LoadProper:
  006c3	b2 ed		 mov	 dl, -19			; ffffffedH
  006c5	2a d1		 sub	 dl, cl
  006c7	30 54 05 e0	 xor	 BYTE PTR __k$561890[ebp+eax], dl
  006cb	40		 inc	 eax
  006cc	83 f8 0a	 cmp	 eax, 10			; 0000000aH
  006cf	7c e3		 jl	 SHORT $LL3083@LoadProper
  006d1	8b 8d c0 f9 ff
	ff		 mov	 ecx, DWORD PTR _rkLoader$GSCopy$[ebp]
  006d7	68 04 01 00 00	 push	 260			; 00000104H
  006dc	8d 85 c4 f9 ff
	ff		 lea	 eax, DWORD PTR _szBuf$[ebp]
  006e2	50		 push	 eax
  006e3	68 00 00 00 00	 push	 OFFSET ??_C@_00CNPNBAHC@?$AA@
  006e8	8d 45 e0	 lea	 eax, DWORD PTR __k$561890[ebp]
  006eb	50		 push	 eax
  006ec	ff d7		 call	 edi

; 98   : 	m_EndEffect = szBuf;

  006ee	8d 85 c4 f9 ff
	ff		 lea	 eax, DWORD PTR _szBuf$[ebp]
  006f4	50		 push	 eax
  006f5	8d 8e cc 10 00
	00		 lea	 ecx, DWORD PTR [esi+4300]
  006fb	ff 15 00 00 00
	00		 call	 DWORD PTR __imp_??4ioHashString@@QAEAAV0@PBD@Z
  00701	6a 04		 push	 4

; 99   : 
; 100  : 	m_bEnableCharRot = rkLoader.LoadBool_e( "enable_char_rotate", false );

  00703	c7 85 48 ff ff
	ff 88 82 8a 88	 mov	 DWORD PTR __k$561929[ebp], -2004188536 ; 888a8288H
  0070d	c7 85 4c ff ff
	ff 81 89 b4 89	 mov	 DWORD PTR __k$561929[ebp+4], -1984657023 ; 89b48981H
  00717	c7 85 50 ff ff
	ff 85 8d 99 b5	 mov	 DWORD PTR __k$561929[ebp+8], -1248227963 ; b5998d85H
  00721	c7 85 54 ff ff
	ff 9f 83 9f 8b	 mov	 DWORD PTR __k$561929[ebp+12], -1952480353 ; 8b9f839fH
  0072b	66 c7 85 58 ff
	ff ff 99 89	 mov	 WORD PTR __k$561929[ebp+16], 35225 ; 00008999H
  00734	8d 85 48 ff ff
	ff		 lea	 eax, DWORD PTR __k$561929[ebp]
  0073a	88 9d 5a ff ff
	ff		 mov	 BYTE PTR __k$561929[ebp+18], bl
  00740	59		 pop	 ecx
  00741	bf ed ec eb ea	 mov	 edi, -353637139		; eaebecedH
$LL3192@LoadProper:
  00746	31 38		 xor	 DWORD PTR [eax], edi
  00748	83 c0 04	 add	 eax, 4
  0074b	49		 dec	 ecx
  0074c	75 f8		 jne	 SHORT $LL3192@LoadProper
  0074e	6a 10		 push	 16			; 00000010H
  00750	58		 pop	 eax
$LL3189@LoadProper:
  00751	8b c8		 mov	 ecx, eax
  00753	81 e1 03 00 00
	80		 and	 ecx, -2147483645	; 80000003H
  00759	79 05		 jns	 SHORT $LN4468@LoadProper
  0075b	49		 dec	 ecx
  0075c	83 c9 fc	 or	 ecx, -4			; fffffffcH
  0075f	41		 inc	 ecx
$LN4468@LoadProper:
  00760	b2 ed		 mov	 dl, -19			; ffffffedH
  00762	2a d1		 sub	 dl, cl
  00764	30 94 05 48 ff
	ff ff		 xor	 BYTE PTR __k$561929[ebp+eax], dl
  0076b	40		 inc	 eax
  0076c	83 f8 12	 cmp	 eax, 18			; 00000012H
  0076f	7c e0		 jl	 SHORT $LL3189@LoadProper
  00771	8b 8d c0 f9 ff
	ff		 mov	 ecx, DWORD PTR _rkLoader$GSCopy$[ebp]
  00777	53		 push	 ebx
  00778	8d 85 48 ff ff
	ff		 lea	 eax, DWORD PTR __k$561929[ebp]
  0077e	50		 push	 eax
  0077f	ff 15 00 00 00
	00		 call	 DWORD PTR __imp_?LoadBool@ioINILoader@@QAE_NPBD_N@Z
  00785	88 86 14 11 00
	00		 mov	 BYTE PTR [esi+4372], al
  0078b	6a 04		 push	 4

; 101  : 	m_dwCharRotSpeed = rkLoader.LoadInt_e( "char_rotate_speed", 0 );

  0078d	c7 85 60 ff ff
	ff 8e 84 8a 98	 mov	 DWORD PTR __k$562054[ebp], -1735752562 ; 988a848eH
  00797	c7 85 64 ff ff
	ff b2 9e 84 9e	 mov	 DWORD PTR __k$562054[ebp+4], -1635475790 ; 9e849eb2H
  007a1	c7 85 68 ff ff
	ff 8c 98 8e b5	 mov	 DWORD PTR __k$562054[ebp+8], -1248946036 ; b58e988cH
  007ab	c7 85 6c ff ff
	ff 9e 9c 8e 8f	 mov	 DWORD PTR __k$562054[ebp+12], -1886479202 ; 8f8e9c9eH
  007b5	8d 85 60 ff ff
	ff		 lea	 eax, DWORD PTR __k$562054[ebp]
  007bb	66 c7 85 70 ff
	ff ff 89 00	 mov	 WORD PTR __k$562054[ebp+16], 137 ; 00000089H
  007c4	59		 pop	 ecx
$LL3298@LoadProper:
  007c5	31 38		 xor	 DWORD PTR [eax], edi
  007c7	83 c0 04	 add	 eax, 4
  007ca	49		 dec	 ecx
  007cb	75 f8		 jne	 SHORT $LL3298@LoadProper
  007cd	8b 8d c0 f9 ff
	ff		 mov	 ecx, DWORD PTR _rkLoader$GSCopy$[ebp]
  007d3	80 b5 70 ff ff
	ff ed		 xor	 BYTE PTR __k$562054[ebp+16], -19 ; ffffffedH
  007da	53		 push	 ebx
  007db	8d 85 60 ff ff
	ff		 lea	 eax, DWORD PTR __k$562054[ebp]
  007e1	50		 push	 eax
  007e2	ff 15 00 00 00
	00		 call	 DWORD PTR __imp_?LoadInt@ioINILoader@@QAEHPBDH@Z
  007e8	89 86 18 11 00
	00		 mov	 DWORD PTR [esi+4376], eax
  007ee	6a 04		 push	 4

; 102  : 
; 103  : 	m_fCharJumpPower = rkLoader.LoadFloat_e( "skill_jump_power", 0.0f );

  007f0	c7 85 ec fc ff
	ff 9e 87 82 86	 mov	 DWORD PTR __k$562181[ebp], -2038265954 ; 8682879eH
  007fa	c7 85 f0 fc ff
	ff 81 b3 81 9f	 mov	 DWORD PTR __k$562181[ebp+4], -1618889855 ; 9f81b381H
  00804	c7 85 f4 fc ff
	ff 80 9c b4 9a	 mov	 DWORD PTR __k$562181[ebp+8], -1699439488 ; 9ab49c80H
  0080e	c7 85 f8 fc ff
	ff 82 9b 8e 98	 mov	 DWORD PTR __k$562181[ebp+12], -1735484542 ; 988e9b82H
  00818	8d 85 ec fc ff
	ff		 lea	 eax, DWORD PTR __k$562181[ebp]
  0081e	88 9d fc fc ff
	ff		 mov	 BYTE PTR __k$562181[ebp+16], bl
  00824	59		 pop	 ecx
$LL3404@LoadProper:
  00825	31 38		 xor	 DWORD PTR [eax], edi
  00827	83 c0 04	 add	 eax, 4
  0082a	49		 dec	 ecx
  0082b	75 f8		 jne	 SHORT $LL3404@LoadProper
  0082d	0f 57 c0	 xorps	 xmm0, xmm0
  00830	51		 push	 ecx
  00831	8b 8d c0 f9 ff
	ff		 mov	 ecx, DWORD PTR _rkLoader$GSCopy$[ebp]
  00837	8d 85 ec fc ff
	ff		 lea	 eax, DWORD PTR __k$562181[ebp]
  0083d	f3 0f 11 04 24	 movss	 DWORD PTR [esp], xmm0
  00842	50		 push	 eax
  00843	ff 15 00 00 00
	00		 call	 DWORD PTR __imp_?LoadFloat@ioINILoader@@QAEMPBDM@Z
  00849	d9 9e 50 10 00
	00		 fstp	 DWORD PTR [esi+4176]

; 104  : 
; 105  : 	// Action Attack
; 106  : 	m_AttackAttribute.Init();

  0084f	8d 8e 8c 0f 00
	00		 lea	 ecx, DWORD PTR [esi+3980]
  00855	e8 00 00 00 00	 call	 ?Init@AttackAttribute@@QAEXXZ ; AttackAttribute::Init

; 107  : 	m_AttackAttribute.m_AttackAnimation = m_SkillMotionName;

  0085a	8d 86 90 00 00
	00		 lea	 eax, DWORD PTR [esi+144]
  00860	50		 push	 eax
  00861	8d 8e 8c 0f 00
	00		 lea	 ecx, DWORD PTR [esi+3980]
  00867	ff 15 00 00 00
	00		 call	 DWORD PTR __imp_??4ioHashString@@QAEAAV0@ABV0@@Z

; 108  : 	m_AttackAttribute.m_fAttackAniRate  = m_fAnimationTimeRate;

  0086d	d9 86 a0 00 00
	00		 fld	 DWORD PTR [esi+160]
  00873	d9 9e 9c 0f 00
	00		 fstp	 DWORD PTR [esi+3996]
  00879	6a 04		 push	 4

; 109  : 	m_AttackAttribute.m_dwPreDelay	    = rkLoader.LoadInt_e( "animation_pre_delay", 0 );

  0087b	c7 85 00 ff ff
	ff 8c 82 82 87	 mov	 DWORD PTR __k$562317[ebp], -2021490036 ; 8782828cH
  00885	c7 85 04 ff ff
	ff 8c 98 82 85	 mov	 DWORD PTR __k$562317[ebp+4], -2055038836 ; 8582988cH
  0088f	c7 85 08 ff ff
	ff 83 b3 9b 98	 mov	 DWORD PTR __k$562317[ebp+8], -1734626429 ; 989bb383H
  00899	c7 85 0c ff ff
	ff 88 b3 8f 8f	 mov	 DWORD PTR __k$562317[ebp+12], -1886407800 ; 8f8fb388H
  008a3	8d 85 00 ff ff
	ff		 lea	 eax, DWORD PTR __k$562317[ebp]
  008a9	c7 85 10 ff ff
	ff 81 8d 92 00	 mov	 DWORD PTR __k$562317[ebp+16], 9604481 ; 00928d81H
  008b3	59		 pop	 ecx
$LL3510@LoadProper:
  008b4	31 38		 xor	 DWORD PTR [eax], edi
  008b6	83 c0 04	 add	 eax, 4
  008b9	49		 dec	 ecx
  008ba	75 f8		 jne	 SHORT $LL3510@LoadProper
  008bc	6a 10		 push	 16			; 00000010H
  008be	5f		 pop	 edi
$LL3507@LoadProper:
  008bf	8b c7		 mov	 eax, edi
  008c1	25 03 00 00 80	 and	 eax, -2147483645	; 80000003H
  008c6	79 05		 jns	 SHORT $LN4469@LoadProper
  008c8	48		 dec	 eax
  008c9	83 c8 fc	 or	 eax, -4			; fffffffcH
  008cc	40		 inc	 eax
$LN4469@LoadProper:
  008cd	b1 ed		 mov	 cl, -19			; ffffffedH
  008cf	2a c8		 sub	 cl, al
  008d1	30 8c 3d 00 ff
	ff ff		 xor	 BYTE PTR __k$562317[ebp+edi], cl
  008d8	47		 inc	 edi
  008d9	83 ff 13	 cmp	 edi, 19			; 00000013H
  008dc	7c e1		 jl	 SHORT $LL3507@LoadProper
  008de	8b 8d c0 f9 ff
	ff		 mov	 ecx, DWORD PTR _rkLoader$GSCopy$[ebp]
  008e4	8b 3d 00 00 00
	00		 mov	 edi, DWORD PTR __imp_?LoadInt@ioINILoader@@QAEHPBDH@Z
  008ea	53		 push	 ebx
  008eb	8d 85 00 ff ff
	ff		 lea	 eax, DWORD PTR __k$562317[ebp]
  008f1	50		 push	 eax
  008f2	ff d7		 call	 edi
  008f4	89 86 d4 0f 00
	00		 mov	 DWORD PTR [esi+4052], eax
  008fa	6a 04		 push	 4

; 110  : 	m_AttackAttribute.m_dwEndDelay	    = rkLoader.LoadInt_e( "animation_end_delay", 0 );

  008fc	c7 85 d0 fe ff
	ff 8c 82 82 87	 mov	 DWORD PTR __k$562442[ebp], -2021490036 ; 8782828cH
  00906	c7 85 d4 fe ff
	ff 8c 98 82 85	 mov	 DWORD PTR __k$562442[ebp+4], -2055038836 ; 8582988cH
  00910	c7 85 d8 fe ff
	ff 83 b3 8e 84	 mov	 DWORD PTR __k$562442[ebp+8], -2071022717 ; 848eb383H
  0091a	c7 85 dc fe ff
	ff 89 b3 8f 8f	 mov	 DWORD PTR __k$562442[ebp+12], -1886407799 ; 8f8fb389H
  00924	8d 85 d0 fe ff
	ff		 lea	 eax, DWORD PTR __k$562442[ebp]
  0092a	c7 85 e0 fe ff
	ff 81 8d 92 00	 mov	 DWORD PTR __k$562442[ebp+16], 9604481 ; 00928d81H
  00934	59		 pop	 ecx
$LL3616@LoadProper:
  00935	81 30 ed ec eb
	ea		 xor	 DWORD PTR [eax], -353637139 ; eaebecedH
  0093b	83 c0 04	 add	 eax, 4
  0093e	49		 dec	 ecx
  0093f	75 f4		 jne	 SHORT $LL3616@LoadProper
  00941	6a 10		 push	 16			; 00000010H
  00943	58		 pop	 eax
$LL3613@LoadProper:
  00944	8b c8		 mov	 ecx, eax
  00946	81 e1 03 00 00
	80		 and	 ecx, -2147483645	; 80000003H
  0094c	79 05		 jns	 SHORT $LN4470@LoadProper
  0094e	49		 dec	 ecx
  0094f	83 c9 fc	 or	 ecx, -4			; fffffffcH
  00952	41		 inc	 ecx
$LN4470@LoadProper:
  00953	b2 ed		 mov	 dl, -19			; ffffffedH
  00955	2a d1		 sub	 dl, cl
  00957	30 94 05 d0 fe
	ff ff		 xor	 BYTE PTR __k$562442[ebp+eax], dl
  0095e	40		 inc	 eax
  0095f	83 f8 13	 cmp	 eax, 19			; 00000013H
  00962	7c e0		 jl	 SHORT $LL3613@LoadProper
  00964	8b 8d c0 f9 ff
	ff		 mov	 ecx, DWORD PTR _rkLoader$GSCopy$[ebp]
  0096a	53		 push	 ebx
  0096b	8d 85 d0 fe ff
	ff		 lea	 eax, DWORD PTR __k$562442[ebp]
  00971	50		 push	 eax
  00972	ff d7		 call	 edi

; 111  : 
; 112  : 	m_AttackAttribute.m_vForceInfoList.clear();

  00974	8d 8e c4 0f 00
	00		 lea	 ecx, DWORD PTR [esi+4036]
  0097a	89 86 d8 0f 00
	00		 mov	 DWORD PTR [esi+4056], eax
  00980	e8 00 00 00 00	 call	 ?clear@?$vector@UForceInfo@@V?$allocator@UForceInfo@@@std@@@std@@QAEXXZ ; std::vector<ForceInfo,std::allocator<ForceInfo> >::clear
  00985	6a 04		 push	 4

; 113  : 	int iForceCnt = rkLoader.LoadInt_e( "attack_force_cnt", 0 );

  00987	c7 85 04 fd ff
	ff 8c 98 9f 8b	 mov	 DWORD PTR __k$562614[ebp], -1952474996 ; 8b9f988cH
  00991	c7 85 08 fd ff
	ff 8e 87 b4 8c	 mov	 DWORD PTR __k$562614[ebp+4], -1934325874 ; 8cb4878eH
  0099b	c7 85 0c fd ff
	ff 82 9e 88 8f	 mov	 DWORD PTR __k$562614[ebp+8], -1886871934 ; 8f889e82H
  009a5	c7 85 10 fd ff
	ff b2 8f 85 9e	 mov	 DWORD PTR __k$562614[ebp+12], -1635414094 ; 9e858fb2H
  009af	8d 85 04 fd ff
	ff		 lea	 eax, DWORD PTR __k$562614[ebp]
  009b5	88 9d 14 fd ff
	ff		 mov	 BYTE PTR __k$562614[ebp+16], bl
  009bb	59		 pop	 ecx
$LL3722@LoadProper:
  009bc	81 30 ed ec eb
	ea		 xor	 DWORD PTR [eax], -353637139 ; eaebecedH
  009c2	83 c0 04	 add	 eax, 4
  009c5	49		 dec	 ecx
  009c6	75 f4		 jne	 SHORT $LL3722@LoadProper
  009c8	8b 8d c0 f9 ff
	ff		 mov	 ecx, DWORD PTR _rkLoader$GSCopy$[ebp]
  009ce	53		 push	 ebx
  009cf	8d 85 04 fd ff
	ff		 lea	 eax, DWORD PTR __k$562614[ebp]
  009d5	50		 push	 eax
  009d6	ff 15 00 00 00
	00		 call	 DWORD PTR __imp_?LoadInt@ioINILoader@@QAEHPBDH@Z

; 114  : 	if( iForceCnt > 0 )

  009dc	8b 3d 00 00 00
	00		 mov	 edi, DWORD PTR __imp__wsprintfA
  009e2	89 85 b8 f9 ff
	ff		 mov	 DWORD PTR _iForceCnt$[ebp], eax
  009e8	3b c3		 cmp	 eax, ebx
  009ea	0f 8e 4b 02 00
	00		 jle	 $LN1595@LoadProper

; 115  : 		m_AttackAttribute.m_vForceInfoList.reserve( iForceCnt );

  009f0	50		 push	 eax
  009f1	8d 8e c4 0f 00
	00		 lea	 ecx, DWORD PTR [esi+4036]
  009f7	e8 00 00 00 00	 call	 ?reserve@?$vector@UForceInfo@@V?$allocator@UForceInfo@@@std@@@std@@QAEXI@Z ; std::vector<ForceInfo,std::allocator<ForceInfo> >::reserve

; 116  : 
; 117  : 	for( int i=0; i < iForceCnt; ++i )

  009fc	39 9d b8 f9 ff
	ff		 cmp	 DWORD PTR _iForceCnt$[ebp], ebx
  00a02	0f 8e 33 02 00
	00		 jle	 $LN1595@LoadProper
  00a08	8b 85 b8 f9 ff
	ff		 mov	 eax, DWORD PTR _iForceCnt$[ebp]
  00a0e	c7 85 bc f9 ff
	ff 01 00 00 00	 mov	 DWORD PTR tv33540[ebp], 1
  00a18	89 85 b8 f9 ff
	ff		 mov	 DWORD PTR tv17715[ebp], eax
$LL1597@LoadProper:

; 118  : 	{
; 119  : 		ForceInfo kInfo;

  00a1e	8d 8d ac f9 ff
	ff		 lea	 ecx, DWORD PTR _kInfo$548249[ebp]
  00a24	e8 00 00 00 00	 call	 ??0ForceInfo@@QAE@XZ	; ForceInfo::ForceInfo
  00a29	6a 04		 push	 4

; 120  : 
; 121  : 		wsprintf_e( szKey, "attack_force_move%d", i+1 );

  00a2b	c7 85 b8 fe ff
	ff 8c 98 9f 8b	 mov	 DWORD PTR ___encStr$548253[ebp], -1952474996 ; 8b9f988cH
  00a35	c7 85 bc fe ff
	ff 8e 87 b4 8c	 mov	 DWORD PTR ___encStr$548253[ebp+4], -1934325874 ; 8cb4878eH
  00a3f	c7 85 c0 fe ff
	ff 82 9e 88 8f	 mov	 DWORD PTR ___encStr$548253[ebp+8], -1886871934 ; 8f889e82H
  00a49	c7 85 c4 fe ff
	ff b2 81 84 9c	 mov	 DWORD PTR ___encStr$548253[ebp+12], -1669037646 ; 9c8481b2H
  00a53	8d 85 b8 fe ff
	ff		 lea	 eax, DWORD PTR ___encStr$548253[ebp]
  00a59	c7 85 c8 fe ff
	ff 88 c9 8f 00	 mov	 DWORD PTR ___encStr$548253[ebp+16], 9423240 ; 008fc988H
  00a63	59		 pop	 ecx
$LL3730@LoadProper:
  00a64	81 30 ed ec eb
	ea		 xor	 DWORD PTR [eax], -353637139 ; eaebecedH
  00a6a	83 c0 04	 add	 eax, 4
  00a6d	49		 dec	 ecx
  00a6e	75 f4		 jne	 SHORT $LL3730@LoadProper
  00a70	6a 10		 push	 16			; 00000010H
  00a72	58		 pop	 eax
$LL3727@LoadProper:
  00a73	8b c8		 mov	 ecx, eax
  00a75	81 e1 03 00 00
	80		 and	 ecx, -2147483645	; 80000003H
  00a7b	79 05		 jns	 SHORT $LN4471@LoadProper
  00a7d	49		 dec	 ecx
  00a7e	83 c9 fc	 or	 ecx, -4			; fffffffcH
  00a81	41		 inc	 ecx
$LN4471@LoadProper:
  00a82	b2 ed		 mov	 dl, -19			; ffffffedH
  00a84	2a d1		 sub	 dl, cl
  00a86	30 94 05 b8 fe
	ff ff		 xor	 BYTE PTR ___encStr$548253[ebp+eax], dl
  00a8d	40		 inc	 eax
  00a8e	83 f8 13	 cmp	 eax, 19			; 00000013H
  00a91	7c e0		 jl	 SHORT $LL3727@LoadProper
  00a93	ff b5 bc f9 ff
	ff		 push	 DWORD PTR tv33540[ebp]
  00a99	8d 85 b8 fe ff
	ff		 lea	 eax, DWORD PTR ___encStr$548253[ebp]
  00a9f	50		 push	 eax
  00aa0	8d 85 c8 fa ff
	ff		 lea	 eax, DWORD PTR _szKey$[ebp]
  00aa6	50		 push	 eax
  00aa7	ff d7		 call	 edi

; 122  : 		kInfo.m_fForceMovePower = rkLoader.LoadFloat( szKey, 0.0f );

  00aa9	0f 57 c0	 xorps	 xmm0, xmm0
  00aac	59		 pop	 ecx
  00aad	59		 pop	 ecx
  00aae	8b 8d c0 f9 ff
	ff		 mov	 ecx, DWORD PTR _rkLoader$GSCopy$[ebp]
  00ab4	8d 85 c8 fa ff
	ff		 lea	 eax, DWORD PTR _szKey$[ebp]
  00aba	f3 0f 11 04 24	 movss	 DWORD PTR [esp], xmm0
  00abf	50		 push	 eax
  00ac0	ff 15 00 00 00
	00		 call	 DWORD PTR __imp_?LoadFloat@ioINILoader@@QAEMPBDM@Z
  00ac6	d9 9d ac f9 ff
	ff		 fstp	 DWORD PTR _kInfo$548249[ebp]
  00acc	6a 05		 push	 5

; 123  : 
; 124  : 		wsprintf_e( szKey, "attack_force_friction%d", i+1 );

  00ace	c7 85 04 fe ff
	ff 8c 98 9f 8b	 mov	 DWORD PTR ___encStr$548406[ebp], -1952474996 ; 8b9f988cH
  00ad8	c7 85 08 fe ff
	ff 8e 87 b4 8c	 mov	 DWORD PTR ___encStr$548406[ebp+4], -1934325874 ; 8cb4878eH
  00ae2	c7 85 0c fe ff
	ff 82 9e 88 8f	 mov	 DWORD PTR ___encStr$548406[ebp+8], -1886871934 ; 8f889e82H
  00aec	c7 85 10 fe ff
	ff b2 8a 99 83	 mov	 DWORD PTR ___encStr$548406[ebp+12], -2087089486 ; 83998ab2H
  00af6	c7 85 14 fe ff
	ff 8e 98 82 85	 mov	 DWORD PTR ___encStr$548406[ebp+16], -2055038834 ; 8582988eH
  00b00	8d 85 04 fe ff
	ff		 lea	 eax, DWORD PTR ___encStr$548406[ebp]
  00b06	c7 85 18 fe ff
	ff 83 c9 8f 00	 mov	 DWORD PTR ___encStr$548406[ebp+20], 9423235 ; 008fc983H
  00b10	59		 pop	 ecx
$LL3738@LoadProper:
  00b11	81 30 ed ec eb
	ea		 xor	 DWORD PTR [eax], -353637139 ; eaebecedH
  00b17	83 c0 04	 add	 eax, 4
  00b1a	49		 dec	 ecx
  00b1b	75 f4		 jne	 SHORT $LL3738@LoadProper
  00b1d	6a 14		 push	 20			; 00000014H
  00b1f	58		 pop	 eax
$LL3735@LoadProper:
  00b20	8b c8		 mov	 ecx, eax
  00b22	81 e1 03 00 00
	80		 and	 ecx, -2147483645	; 80000003H
  00b28	79 05		 jns	 SHORT $LN4472@LoadProper
  00b2a	49		 dec	 ecx
  00b2b	83 c9 fc	 or	 ecx, -4			; fffffffcH
  00b2e	41		 inc	 ecx
$LN4472@LoadProper:
  00b2f	b2 ed		 mov	 dl, -19			; ffffffedH
  00b31	2a d1		 sub	 dl, cl
  00b33	30 94 05 04 fe
	ff ff		 xor	 BYTE PTR ___encStr$548406[ebp+eax], dl
  00b3a	40		 inc	 eax
  00b3b	83 f8 17	 cmp	 eax, 23			; 00000017H
  00b3e	7c e0		 jl	 SHORT $LL3735@LoadProper
  00b40	ff b5 bc f9 ff
	ff		 push	 DWORD PTR tv33540[ebp]
  00b46	8d 85 04 fe ff
	ff		 lea	 eax, DWORD PTR ___encStr$548406[ebp]
  00b4c	50		 push	 eax
  00b4d	8d 85 c8 fa ff
	ff		 lea	 eax, DWORD PTR _szKey$[ebp]
  00b53	50		 push	 eax
  00b54	ff d7		 call	 edi
  00b56	83 c4 0c	 add	 esp, 12			; 0000000cH

; 125  : 		kInfo.m_fForceMoveFriction = rkLoader.LoadFloat( szKey, FLOAT1 );

  00b59	b8 01 00 00 00	 mov	 eax, 1
  00b5e	89 85 a8 f9 ff
	ff		 mov	 DWORD PTR tv33678[ebp], eax
  00b64	db 85 a8 f9 ff
	ff		 fild	 DWORD PTR tv33678[ebp]
  00b6a	85 c0		 test	 eax, eax
  00b6c	79 06		 jns	 SHORT $LN4473@LoadProper
  00b6e	d8 05 00 00 00
	00		 fadd	 DWORD PTR __real@4f800000
$LN4473@LoadProper:
  00b74	51		 push	 ecx
  00b75	8b 8d c0 f9 ff
	ff		 mov	 ecx, DWORD PTR _rkLoader$GSCopy$[ebp]
  00b7b	d9 1c 24	 fstp	 DWORD PTR [esp]
  00b7e	8d 85 c8 fa ff
	ff		 lea	 eax, DWORD PTR _szKey$[ebp]
  00b84	50		 push	 eax
  00b85	ff 15 00 00 00
	00		 call	 DWORD PTR __imp_?LoadFloat@ioINILoader@@QAEMPBDM@Z
  00b8b	d9 9d b0 f9 ff
	ff		 fstp	 DWORD PTR _kInfo$548249[ebp+4]
  00b91	6a 05		 push	 5

; 126  : 
; 127  : 		wsprintf_e( szKey, "attack_force_angle%d", i+1 );

  00b93	c7 85 38 fc ff
	ff 8c 98 9f 8b	 mov	 DWORD PTR ___encStr$548559[ebp], -1952474996 ; 8b9f988cH
  00b9d	c7 85 3c fc ff
	ff 8e 87 b4 8c	 mov	 DWORD PTR ___encStr$548559[ebp+4], -1934325874 ; 8cb4878eH
  00ba7	c7 85 40 fc ff
	ff 82 9e 88 8f	 mov	 DWORD PTR ___encStr$548559[ebp+8], -1886871934 ; 8f889e82H
  00bb1	c7 85 44 fc ff
	ff b2 8d 85 8d	 mov	 DWORD PTR ___encStr$548559[ebp+12], -1920627278 ; 8d858db2H
  00bbb	c7 85 48 fc ff
	ff 81 89 ce 8e	 mov	 DWORD PTR ___encStr$548559[ebp+16], -1899067007 ; 8ece8981H
  00bc5	8d 85 38 fc ff
	ff		 lea	 eax, DWORD PTR ___encStr$548559[ebp]
  00bcb	88 9d 4c fc ff
	ff		 mov	 BYTE PTR ___encStr$548559[ebp+20], bl
  00bd1	59		 pop	 ecx
$LL3748@LoadProper:
  00bd2	81 30 ed ec eb
	ea		 xor	 DWORD PTR [eax], -353637139 ; eaebecedH
  00bd8	83 c0 04	 add	 eax, 4
  00bdb	49		 dec	 ecx
  00bdc	75 f4		 jne	 SHORT $LL3748@LoadProper
  00bde	ff b5 bc f9 ff
	ff		 push	 DWORD PTR tv33540[ebp]
  00be4	8d 85 38 fc ff
	ff		 lea	 eax, DWORD PTR ___encStr$548559[ebp]
  00bea	50		 push	 eax
  00beb	8d 85 c8 fa ff
	ff		 lea	 eax, DWORD PTR _szKey$[ebp]
  00bf1	50		 push	 eax
  00bf2	ff d7		 call	 edi

; 128  : 		kInfo.m_fForceAngle = rkLoader.LoadFloat( szKey, 0.0f );

  00bf4	0f 57 c0	 xorps	 xmm0, xmm0
  00bf7	59		 pop	 ecx
  00bf8	59		 pop	 ecx
  00bf9	8b 8d c0 f9 ff
	ff		 mov	 ecx, DWORD PTR _rkLoader$GSCopy$[ebp]
  00bff	8d 85 c8 fa ff
	ff		 lea	 eax, DWORD PTR _szKey$[ebp]
  00c05	f3 0f 11 04 24	 movss	 DWORD PTR [esp], xmm0
  00c0a	50		 push	 eax
  00c0b	ff 15 00 00 00
	00		 call	 DWORD PTR __imp_?LoadFloat@ioINILoader@@QAEMPBDM@Z
  00c11	d9 9d b4 f9 ff
	ff		 fstp	 DWORD PTR _kInfo$548249[ebp+8]

; 129  : 
; 130  : 		m_AttackAttribute.m_vForceInfoList.push_back( kInfo );

  00c17	8d 85 ac f9 ff
	ff		 lea	 eax, DWORD PTR _kInfo$548249[ebp]
  00c1d	50		 push	 eax
  00c1e	8d 8e c4 0f 00
	00		 lea	 ecx, DWORD PTR [esi+4036]
  00c24	e8 00 00 00 00	 call	 ?push_back@?$vector@UForceInfo@@V?$allocator@UForceInfo@@@std@@@std@@QAEXABUForceInfo@@@Z ; std::vector<ForceInfo,std::allocator<ForceInfo> >::push_back
  00c29	ff 85 bc f9 ff
	ff		 inc	 DWORD PTR tv33540[ebp]
  00c2f	ff 8d b8 f9 ff
	ff		 dec	 DWORD PTR tv17715[ebp]
  00c35	0f 85 e3 fd ff
	ff		 jne	 $LL1597@LoadProper
$LN1595@LoadProper:

; 131  : 	}
; 132  : 
; 133  : 	int iAttackTypeCnt = rkLoader.LoadInt_e( "attack_type_count", 0 );

  00c3b	6a 04		 push	 4
  00c3d	c7 85 78 ff ff
	ff 8c 98 9f 8b	 mov	 DWORD PTR __k$562719[ebp], -1952474996 ; 8b9f988cH
  00c47	c7 85 7c ff ff
	ff 8e 87 b4 9e	 mov	 DWORD PTR __k$562719[ebp+4], -1632335986 ; 9eb4878eH
  00c51	c7 45 80 94 9c
	8e b5		 mov	 DWORD PTR __k$562719[ebp+8], -1248945004 ; b58e9c94H
  00c58	c7 45 84 8e 83
	9e 84		 mov	 DWORD PTR __k$562719[ebp+12], -2069986418 ; 849e838eH
  00c5f	8d 85 78 ff ff
	ff		 lea	 eax, DWORD PTR __k$562719[ebp]
  00c65	66 c7 45 88 99
	00		 mov	 WORD PTR __k$562719[ebp+16], 153 ; 00000099H
  00c6b	59		 pop	 ecx
$LL3854@LoadProper:
  00c6c	81 30 ed ec eb
	ea		 xor	 DWORD PTR [eax], -353637139 ; eaebecedH
  00c72	83 c0 04	 add	 eax, 4
  00c75	49		 dec	 ecx
  00c76	75 f4		 jne	 SHORT $LL3854@LoadProper
  00c78	8b 8d c0 f9 ff
	ff		 mov	 ecx, DWORD PTR _rkLoader$GSCopy$[ebp]
  00c7e	80 75 88 ed	 xor	 BYTE PTR __k$562719[ebp+16], -19 ; ffffffedH
  00c82	53		 push	 ebx
  00c83	8d 85 78 ff ff
	ff		 lea	 eax, DWORD PTR __k$562719[ebp]
  00c89	50		 push	 eax
  00c8a	ff 15 00 00 00
	00		 call	 DWORD PTR __imp_?LoadInt@ioINILoader@@QAEHPBDH@Z

; 134  : 	m_AttackAttribute.m_vWeaponInfoList.clear();

  00c90	8d 8e b4 0f 00
	00		 lea	 ecx, DWORD PTR [esi+4020]
  00c96	89 85 bc f9 ff
	ff		 mov	 DWORD PTR _iAttackTypeCnt$[ebp], eax
  00c9c	e8 00 00 00 00	 call	 ?clear@?$vector@UWeaponInfo@@V?$allocator@UWeaponInfo@@@std@@@std@@QAEXXZ ; std::vector<WeaponInfo,std::allocator<WeaponInfo> >::clear

; 135  : 	m_AttackAttribute.m_vWeaponInfoList.reserve( iAttackTypeCnt );

  00ca1	ff b5 bc f9 ff
	ff		 push	 DWORD PTR _iAttackTypeCnt$[ebp]
  00ca7	8d 8e b4 0f 00
	00		 lea	 ecx, DWORD PTR [esi+4020]
  00cad	e8 00 00 00 00	 call	 ?reserve@?$vector@UWeaponInfo@@V?$allocator@UWeaponInfo@@@std@@@std@@QAEXI@Z ; std::vector<WeaponInfo,std::allocator<WeaponInfo> >::reserve

; 136  : 
; 137  : 	for( int i=0 ; i<iAttackTypeCnt ; i++ )

  00cb2	39 9d bc f9 ff
	ff		 cmp	 DWORD PTR _iAttackTypeCnt$[ebp], ebx
  00cb8	0f 8e 56 03 00
	00		 jle	 $LN1295@LoadProper

; 131  : 	}
; 132  : 
; 133  : 	int iAttackTypeCnt = rkLoader.LoadInt_e( "attack_type_count", 0 );

  00cbe	8b 85 bc f9 ff
	ff		 mov	 eax, DWORD PTR _iAttackTypeCnt$[ebp]
  00cc4	c7 85 b8 f9 ff
	ff 01 00 00 00	 mov	 DWORD PTR tv33649[ebp], 1
  00cce	89 85 bc f9 ff
	ff		 mov	 DWORD PTR tv15195[ebp], eax
$LL1297@LoadProper:

; 138  : 	{
; 139  : 		WeaponInfo kInfo;

  00cd4	8d 8d 80 f9 ff
	ff		 lea	 ecx, DWORD PTR _kInfo$548714[ebp]
  00cda	e8 00 00 00 00	 call	 ??0WeaponInfo@@QAE@XZ	; WeaponInfo::WeaponInfo
  00cdf	6a 03		 push	 3
  00ce1	89 5d fc	 mov	 DWORD PTR __$EHRec$[ebp+8], ebx

; 140  : 
; 141  : 		wsprintf_e( szKey, "attack_type%d", i+1 );

  00ce4	c7 45 cc 8c 98
	9f 8b		 mov	 DWORD PTR ___encStr$548718[ebp], -1952474996 ; 8b9f988cH
  00ceb	c7 45 d0 8e 87
	b4 9e		 mov	 DWORD PTR ___encStr$548718[ebp+4], -1632335986 ; 9eb4878eH
  00cf2	c7 45 d4 94 9c
	8e cf		 mov	 DWORD PTR ___encStr$548718[ebp+8], -812737388 ; cf8e9c94H
  00cf9	8d 45 cc	 lea	 eax, DWORD PTR ___encStr$548718[ebp]
  00cfc	66 c7 45 d8 89
	00		 mov	 WORD PTR ___encStr$548718[ebp+12], 137 ; 00000089H
  00d02	59		 pop	 ecx
$LL3862@LoadProper:
  00d03	81 30 ed ec eb
	ea		 xor	 DWORD PTR [eax], -353637139 ; eaebecedH
  00d09	83 c0 04	 add	 eax, 4
  00d0c	49		 dec	 ecx
  00d0d	75 f4		 jne	 SHORT $LL3862@LoadProper
  00d0f	ff b5 b8 f9 ff
	ff		 push	 DWORD PTR tv33649[ebp]
  00d15	80 75 d8 ed	 xor	 BYTE PTR ___encStr$548718[ebp+12], -19 ; ffffffedH
  00d19	8d 45 cc	 lea	 eax, DWORD PTR ___encStr$548718[ebp]
  00d1c	50		 push	 eax
  00d1d	8d 85 c8 fa ff
	ff		 lea	 eax, DWORD PTR _szKey$[ebp]
  00d23	50		 push	 eax
  00d24	ff d7		 call	 edi

; 142  : 		kInfo.m_iWeaponIdx = rkLoader.LoadInt( szKey, NO_WEAPON_ATTRIBUTE );

  00d26	8b 8d c0 f9 ff
	ff		 mov	 ecx, DWORD PTR _rkLoader$GSCopy$[ebp]
  00d2c	83 c4 0c	 add	 esp, 12			; 0000000cH
  00d2f	53		 push	 ebx
  00d30	8d 85 c8 fa ff
	ff		 lea	 eax, DWORD PTR _szKey$[ebp]
  00d36	50		 push	 eax
  00d37	ff 15 00 00 00
	00		 call	 DWORD PTR __imp_?LoadInt@ioINILoader@@QAEHPBDH@Z
  00d3d	6a 05		 push	 5
  00d3f	89 85 80 f9 ff
	ff		 mov	 DWORD PTR _kInfo$548714[ebp], eax

; 143  : 
; 144  : 		wsprintf_e( szKey, "attack_type%d_resist", i+1 );

  00d45	c7 85 54 fc ff
	ff 8c 98 9f 8b	 mov	 DWORD PTR ___encStr$548870[ebp], -1952474996 ; 8b9f988cH
  00d4f	c7 85 58 fc ff
	ff 8e 87 b4 9e	 mov	 DWORD PTR ___encStr$548870[ebp+4], -1632335986 ; 9eb4878eH
  00d59	c7 85 5c fc ff
	ff 94 9c 8e cf	 mov	 DWORD PTR ___encStr$548870[ebp+8], -812737388 ; cf8e9c94H
  00d63	c7 85 60 fc ff
	ff 89 b3 99 8f	 mov	 DWORD PTR ___encStr$548870[ebp+12], -1885752439 ; 8f99b389H
  00d6d	c7 85 64 fc ff
	ff 9e 85 98 9e	 mov	 DWORD PTR ___encStr$548870[ebp+16], -1634171490 ; 9e98859eH
  00d77	8d 85 54 fc ff
	ff		 lea	 eax, DWORD PTR ___encStr$548870[ebp]
  00d7d	88 9d 68 fc ff
	ff		 mov	 BYTE PTR ___encStr$548870[ebp+20], bl
  00d83	59		 pop	 ecx
$LL3870@LoadProper:
  00d84	81 30 ed ec eb
	ea		 xor	 DWORD PTR [eax], -353637139 ; eaebecedH
  00d8a	83 c0 04	 add	 eax, 4
  00d8d	49		 dec	 ecx
  00d8e	75 f4		 jne	 SHORT $LL3870@LoadProper
  00d90	ff b5 b8 f9 ff
	ff		 push	 DWORD PTR tv33649[ebp]
  00d96	8d 85 54 fc ff
	ff		 lea	 eax, DWORD PTR ___encStr$548870[ebp]
  00d9c	50		 push	 eax
  00d9d	8d 85 c8 fa ff
	ff		 lea	 eax, DWORD PTR _szKey$[ebp]
  00da3	50		 push	 eax
  00da4	ff d7		 call	 edi

; 145  : 		kInfo.m_iResistanceIdx = rkLoader.LoadInt( szKey, NO_WEAPON_ATTRIBUTE );

  00da6	8b 8d c0 f9 ff
	ff		 mov	 ecx, DWORD PTR _rkLoader$GSCopy$[ebp]
  00dac	83 c4 0c	 add	 esp, 12			; 0000000cH
  00daf	53		 push	 ebx
  00db0	8d 85 c8 fa ff
	ff		 lea	 eax, DWORD PTR _szKey$[ebp]
  00db6	50		 push	 eax
  00db7	ff 15 00 00 00
	00		 call	 DWORD PTR __imp_?LoadInt@ioINILoader@@QAEHPBDH@Z
  00dbd	6a 05		 push	 5
  00dbf	89 85 84 f9 ff
	ff		 mov	 DWORD PTR _kInfo$548714[ebp+4], eax

; 146  : 
; 147  : 		wsprintf_e( szKey, "attack_type%d_wounded", i+1 );

  00dc5	c7 85 58 fe ff
	ff 8c 98 9f 8b	 mov	 DWORD PTR ___encStr$549022[ebp], -1952474996 ; 8b9f988cH
  00dcf	c7 85 5c fe ff
	ff 8e 87 b4 9e	 mov	 DWORD PTR ___encStr$549022[ebp+4], -1632335986 ; 9eb4878eH
  00dd9	c7 85 60 fe ff
	ff 94 9c 8e cf	 mov	 DWORD PTR ___encStr$549022[ebp+8], -812737388 ; cf8e9c94H
  00de3	c7 85 64 fe ff
	ff 89 b3 9c 85	 mov	 DWORD PTR ___encStr$549022[ebp+12], -2053327991 ; 859cb389H
  00ded	c7 85 68 fe ff
	ff 98 82 8f 8f	 mov	 DWORD PTR ___encStr$549022[ebp+16], -1886420328 ; 8f8f8298H
  00df7	8d 85 58 fe ff
	ff		 lea	 eax, DWORD PTR ___encStr$549022[ebp]
  00dfd	66 c7 85 6c fe
	ff ff 89 00	 mov	 WORD PTR ___encStr$549022[ebp+20], 137 ; 00000089H
  00e06	59		 pop	 ecx
$LL3878@LoadProper:
  00e07	81 30 ed ec eb
	ea		 xor	 DWORD PTR [eax], -353637139 ; eaebecedH
  00e0d	83 c0 04	 add	 eax, 4
  00e10	49		 dec	 ecx
  00e11	75 f4		 jne	 SHORT $LL3878@LoadProper
  00e13	ff b5 b8 f9 ff
	ff		 push	 DWORD PTR tv33649[ebp]
  00e19	80 b5 6c fe ff
	ff ed		 xor	 BYTE PTR ___encStr$549022[ebp+20], -19 ; ffffffedH
  00e20	8d 85 58 fe ff
	ff		 lea	 eax, DWORD PTR ___encStr$549022[ebp]
  00e26	50		 push	 eax
  00e27	8d 85 c8 fa ff
	ff		 lea	 eax, DWORD PTR _szKey$[ebp]
  00e2d	50		 push	 eax
  00e2e	ff d7		 call	 edi

; 148  : 		rkLoader.LoadString( szKey, "", szBuf, MAX_PATH );

  00e30	8b 8d c0 f9 ff
	ff		 mov	 ecx, DWORD PTR _rkLoader$GSCopy$[ebp]
  00e36	83 c4 0c	 add	 esp, 12			; 0000000cH
  00e39	68 04 01 00 00	 push	 260			; 00000104H
  00e3e	8d 85 c4 f9 ff
	ff		 lea	 eax, DWORD PTR _szBuf$[ebp]
  00e44	50		 push	 eax
  00e45	68 00 00 00 00	 push	 OFFSET ??_C@_00CNPNBAHC@?$AA@
  00e4a	8d 85 c8 fa ff
	ff		 lea	 eax, DWORD PTR _szKey$[ebp]
  00e50	50		 push	 eax
  00e51	ff 15 00 00 00
	00		 call	 DWORD PTR __imp_?LoadStringA@ioINILoader@@QAEXPBD0PADH@Z

; 149  : 		kInfo.m_WoundedAnimation = szBuf;

  00e57	8d 85 c4 f9 ff
	ff		 lea	 eax, DWORD PTR _szBuf$[ebp]
  00e5d	50		 push	 eax
  00e5e	8d 8d 88 f9 ff
	ff		 lea	 ecx, DWORD PTR _kInfo$548714[ebp+8]
  00e64	ff 15 00 00 00
	00		 call	 DWORD PTR __imp_??4ioHashString@@QAEAAV0@PBD@Z
  00e6a	6a 06		 push	 6

; 150  : 
; 151  : 		wsprintf_e( szKey, "attack_type%d_wounded_time", i+1 );

  00e6c	c7 85 4c fd ff
	ff 8c 98 9f 8b	 mov	 DWORD PTR ___encStr$549174[ebp], -1952474996 ; 8b9f988cH
  00e76	c7 85 50 fd ff
	ff 8e 87 b4 9e	 mov	 DWORD PTR ___encStr$549174[ebp+4], -1632335986 ; 9eb4878eH
  00e80	c7 85 54 fd ff
	ff 94 9c 8e cf	 mov	 DWORD PTR ___encStr$549174[ebp+8], -812737388 ; cf8e9c94H
  00e8a	c7 85 58 fd ff
	ff 89 b3 9c 85	 mov	 DWORD PTR ___encStr$549174[ebp+12], -2053327991 ; 859cb389H
  00e94	c7 85 5c fd ff
	ff 98 82 8f 8f	 mov	 DWORD PTR ___encStr$549174[ebp+16], -1886420328 ; 8f8f8298H
  00e9e	c7 85 60 fd ff
	ff 89 b3 9f 83	 mov	 DWORD PTR ___encStr$549174[ebp+20], -2086685815 ; 839fb389H
  00ea8	66 c7 85 64 fd
	ff ff 80 89	 mov	 WORD PTR ___encStr$549174[ebp+24], 35200 ; 00008980H
  00eb1	8d 85 4c fd ff
	ff		 lea	 eax, DWORD PTR ___encStr$549174[ebp]
  00eb7	88 9d 66 fd ff
	ff		 mov	 BYTE PTR ___encStr$549174[ebp+26], bl
  00ebd	59		 pop	 ecx
$LL3886@LoadProper:
  00ebe	81 30 ed ec eb
	ea		 xor	 DWORD PTR [eax], -353637139 ; eaebecedH
  00ec4	83 c0 04	 add	 eax, 4
  00ec7	49		 dec	 ecx
  00ec8	75 f4		 jne	 SHORT $LL3886@LoadProper
  00eca	6a 18		 push	 24			; 00000018H
  00ecc	58		 pop	 eax
$LL3883@LoadProper:
  00ecd	8b c8		 mov	 ecx, eax
  00ecf	81 e1 03 00 00
	80		 and	 ecx, -2147483645	; 80000003H
  00ed5	79 05		 jns	 SHORT $LN4474@LoadProper
  00ed7	49		 dec	 ecx
  00ed8	83 c9 fc	 or	 ecx, -4			; fffffffcH
  00edb	41		 inc	 ecx
$LN4474@LoadProper:
  00edc	b2 ed		 mov	 dl, -19			; ffffffedH
  00ede	2a d1		 sub	 dl, cl
  00ee0	30 94 05 4c fd
	ff ff		 xor	 BYTE PTR ___encStr$549174[ebp+eax], dl
  00ee7	40		 inc	 eax
  00ee8	83 f8 1a	 cmp	 eax, 26			; 0000001aH
  00eeb	7c e0		 jl	 SHORT $LL3883@LoadProper
  00eed	ff b5 b8 f9 ff
	ff		 push	 DWORD PTR tv33649[ebp]
  00ef3	8d 85 4c fd ff
	ff		 lea	 eax, DWORD PTR ___encStr$549174[ebp]
  00ef9	50		 push	 eax
  00efa	8d 85 c8 fa ff
	ff		 lea	 eax, DWORD PTR _szKey$[ebp]
  00f00	50		 push	 eax
  00f01	ff d7		 call	 edi

; 152  : 		kInfo.m_dwWoundedDuration = rkLoader.LoadInt( szKey, 0 );

  00f03	8b 8d c0 f9 ff
	ff		 mov	 ecx, DWORD PTR _rkLoader$GSCopy$[ebp]
  00f09	83 c4 0c	 add	 esp, 12			; 0000000cH
  00f0c	53		 push	 ebx
  00f0d	8d 85 c8 fa ff
	ff		 lea	 eax, DWORD PTR _szKey$[ebp]
  00f13	50		 push	 eax
  00f14	ff 15 00 00 00
	00		 call	 DWORD PTR __imp_?LoadInt@ioINILoader@@QAEHPBDH@Z
  00f1a	6a 07		 push	 7
  00f1c	89 85 98 f9 ff
	ff		 mov	 DWORD PTR _kInfo$548714[ebp+24], eax

; 153  : 
; 154  : 		wsprintf_e( szKey, "attack_type%d_wounded_loop_ani", i+1 );

  00f22	c7 85 b0 fc ff
	ff 8c 98 9f 8b	 mov	 DWORD PTR ___encStr$549326[ebp], -1952474996 ; 8b9f988cH
  00f2c	c7 85 b4 fc ff
	ff 8e 87 b4 9e	 mov	 DWORD PTR ___encStr$549326[ebp+4], -1632335986 ; 9eb4878eH
  00f36	c7 85 b8 fc ff
	ff 94 9c 8e cf	 mov	 DWORD PTR ___encStr$549326[ebp+8], -812737388 ; cf8e9c94H
  00f40	c7 85 bc fc ff
	ff 89 b3 9c 85	 mov	 DWORD PTR ___encStr$549326[ebp+12], -2053327991 ; 859cb389H
  00f4a	c7 85 c0 fc ff
	ff 98 82 8f 8f	 mov	 DWORD PTR ___encStr$549326[ebp+16], -1886420328 ; 8f8f8298H
  00f54	c7 85 c4 fc ff
	ff 89 b3 87 85	 mov	 DWORD PTR ___encStr$549326[ebp+20], -2054704247 ; 8587b389H
  00f5e	c7 85 c8 fc ff
	ff 82 9c b4 8b	 mov	 DWORD PTR ___encStr$549326[ebp+24], -1951097726 ; 8bb49c82H
  00f68	66 c7 85 cc fc
	ff ff 83 85	 mov	 WORD PTR ___encStr$549326[ebp+28], 34179 ; 00008583H
  00f71	8d 85 b0 fc ff
	ff		 lea	 eax, DWORD PTR ___encStr$549326[ebp]
  00f77	88 9d ce fc ff
	ff		 mov	 BYTE PTR ___encStr$549326[ebp+30], bl
  00f7d	59		 pop	 ecx
$LL3894@LoadProper:
  00f7e	81 30 ed ec eb
	ea		 xor	 DWORD PTR [eax], -353637139 ; eaebecedH
  00f84	83 c0 04	 add	 eax, 4
  00f87	49		 dec	 ecx
  00f88	75 f4		 jne	 SHORT $LL3894@LoadProper
  00f8a	6a 1c		 push	 28			; 0000001cH
  00f8c	58		 pop	 eax
$LL3891@LoadProper:
  00f8d	8b c8		 mov	 ecx, eax
  00f8f	81 e1 03 00 00
	80		 and	 ecx, -2147483645	; 80000003H
  00f95	79 05		 jns	 SHORT $LN4475@LoadProper
  00f97	49		 dec	 ecx
  00f98	83 c9 fc	 or	 ecx, -4			; fffffffcH
  00f9b	41		 inc	 ecx
$LN4475@LoadProper:
  00f9c	b2 ed		 mov	 dl, -19			; ffffffedH
  00f9e	2a d1		 sub	 dl, cl
  00fa0	30 94 05 b0 fc
	ff ff		 xor	 BYTE PTR ___encStr$549326[ebp+eax], dl
  00fa7	40		 inc	 eax
  00fa8	83 f8 1e	 cmp	 eax, 30			; 0000001eH
  00fab	7c e0		 jl	 SHORT $LL3891@LoadProper
  00fad	ff b5 b8 f9 ff
	ff		 push	 DWORD PTR tv33649[ebp]
  00fb3	8d 85 b0 fc ff
	ff		 lea	 eax, DWORD PTR ___encStr$549326[ebp]
  00fb9	50		 push	 eax
  00fba	8d 85 c8 fa ff
	ff		 lea	 eax, DWORD PTR _szKey$[ebp]
  00fc0	50		 push	 eax
  00fc1	ff d7		 call	 edi

; 155  : 		kInfo.m_bWoundedLoopAni = rkLoader.LoadBool( szKey, false );

  00fc3	8b 8d c0 f9 ff
	ff		 mov	 ecx, DWORD PTR _rkLoader$GSCopy$[ebp]
  00fc9	83 c4 0c	 add	 esp, 12			; 0000000cH
  00fcc	53		 push	 ebx
  00fcd	8d 85 c8 fa ff
	ff		 lea	 eax, DWORD PTR _szKey$[ebp]
  00fd3	50		 push	 eax
  00fd4	ff 15 00 00 00
	00		 call	 DWORD PTR __imp_?LoadBool@ioINILoader@@QAE_NPBD_N@Z
  00fda	88 85 a0 f9 ff
	ff		 mov	 BYTE PTR _kInfo$548714[ebp+32], al

; 156  : 
; 157  : 		m_AttackAttribute.m_vWeaponInfoList.push_back( kInfo );

  00fe0	8d 85 80 f9 ff
	ff		 lea	 eax, DWORD PTR _kInfo$548714[ebp]
  00fe6	50		 push	 eax
  00fe7	8d 8e b4 0f 00
	00		 lea	 ecx, DWORD PTR [esi+4020]
  00fed	e8 00 00 00 00	 call	 ?push_back@?$vector@UWeaponInfo@@V?$allocator@UWeaponInfo@@@std@@@std@@QAEXABUWeaponInfo@@@Z ; std::vector<WeaponInfo,std::allocator<WeaponInfo> >::push_back

; 158  : 	}

  00ff2	83 4d fc ff	 or	 DWORD PTR __$EHRec$[ebp+8], -1
  00ff6	8d 8d 88 f9 ff
	ff		 lea	 ecx, DWORD PTR _kInfo$548714[ebp+8]
  00ffc	ff 15 00 00 00
	00		 call	 DWORD PTR __imp_??1ioHashString@@QAE@XZ
  01002	ff 85 b8 f9 ff
	ff		 inc	 DWORD PTR tv33649[ebp]
  01008	ff 8d bc f9 ff
	ff		 dec	 DWORD PTR tv15195[ebp]
  0100e	0f 85 c0 fc ff
	ff		 jne	 $LL1297@LoadProper
$LN1295@LoadProper:

; 159  : 	
; 160  : 	// ActionEnd Attack
; 161  : 	m_LandAttackAttribute.Init();

  01014	8d 8e dc 0f 00
	00		 lea	 ecx, DWORD PTR [esi+4060]
  0101a	e8 00 00 00 00	 call	 ?Init@AttackAttribute@@QAEXXZ ; AttackAttribute::Init

; 162  : 	m_LandAttackAttribute.m_AttackAnimation = m_SkillEndMotion;

  0101f	8d 86 ac 10 00
	00		 lea	 eax, DWORD PTR [esi+4268]
  01025	50		 push	 eax
  01026	8d 8e dc 0f 00
	00		 lea	 ecx, DWORD PTR [esi+4060]
  0102c	ff 15 00 00 00
	00		 call	 DWORD PTR __imp_??4ioHashString@@QAEAAV0@ABV0@@Z

; 163  : 	m_LandAttackAttribute.m_fAttackAniRate  = m_fEndMotionRate;

  01032	d9 86 a8 10 00
	00		 fld	 DWORD PTR [esi+4264]

; 164  : 
; 165  : 	m_LandAttackAttribute.m_vForceInfoList.clear();

  01038	8d 8e 14 10 00
	00		 lea	 ecx, DWORD PTR [esi+4116]
  0103e	d9 9e ec 0f 00
	00		 fstp	 DWORD PTR [esi+4076]
  01044	e8 00 00 00 00	 call	 ?clear@?$vector@UForceInfo@@V?$allocator@UForceInfo@@@std@@@std@@QAEXXZ ; std::vector<ForceInfo,std::allocator<ForceInfo> >::clear
  01049	6a 05		 push	 5

; 166  : 	iForceCnt = rkLoader.LoadInt_e( "land_attack_force_cnt", 0 );

  0104b	c7 85 74 fe ff
	ff 81 8d 85 8e	 mov	 DWORD PTR __k$562914[ebp], -1903850111 ; 8e858d81H
  01055	c7 85 78 fe ff
	ff b2 8d 9f 9e	 mov	 DWORD PTR __k$562914[ebp+4], -1633710670 ; 9e9f8db2H
  0105f	c7 85 7c fe ff
	ff 8c 8f 80 b5	 mov	 DWORD PTR __k$562914[ebp+8], -1249865844 ; b5808f8cH
  01069	c7 85 80 fe ff
	ff 8b 83 99 89	 mov	 DWORD PTR __k$562914[ebp+12], -1986428021 ; 8999838bH
  01073	c7 85 84 fe ff
	ff 88 b3 88 84	 mov	 DWORD PTR __k$562914[ebp+16], -2071415928 ; 8488b388H
  0107d	8d 85 74 fe ff
	ff		 lea	 eax, DWORD PTR __k$562914[ebp]
  01083	66 c7 85 88 fe
	ff ff 99 00	 mov	 WORD PTR __k$562914[ebp+20], 153 ; 00000099H
  0108c	59		 pop	 ecx
$LL4003@LoadProper:
  0108d	81 30 ed ec eb
	ea		 xor	 DWORD PTR [eax], -353637139 ; eaebecedH
  01093	83 c0 04	 add	 eax, 4
  01096	49		 dec	 ecx
  01097	75 f4		 jne	 SHORT $LL4003@LoadProper
  01099	8b 8d c0 f9 ff
	ff		 mov	 ecx, DWORD PTR _rkLoader$GSCopy$[ebp]
  0109f	80 b5 88 fe ff
	ff ed		 xor	 BYTE PTR __k$562914[ebp+20], -19 ; ffffffedH
  010a6	53		 push	 ebx
  010a7	8d 85 74 fe ff
	ff		 lea	 eax, DWORD PTR __k$562914[ebp]
  010ad	50		 push	 eax
  010ae	ff 15 00 00 00
	00		 call	 DWORD PTR __imp_?LoadInt@ioINILoader@@QAEHPBDH@Z
  010b4	89 85 b8 f9 ff
	ff		 mov	 DWORD PTR _iForceCnt$[ebp], eax

; 167  : 	if( iForceCnt > 0 )

  010ba	3b c3		 cmp	 eax, ebx
  010bc	0f 8e 39 02 00
	00		 jle	 $LN796@LoadProper

; 168  : 	{
; 169  : 		m_LandAttackAttribute.m_vForceInfoList.reserve( iForceCnt );

  010c2	50		 push	 eax
  010c3	8d 8e 14 10 00
	00		 lea	 ecx, DWORD PTR [esi+4116]
  010c9	e8 00 00 00 00	 call	 ?reserve@?$vector@UForceInfo@@V?$allocator@UForceInfo@@@std@@@std@@QAEXI@Z ; std::vector<ForceInfo,std::allocator<ForceInfo> >::reserve

; 170  : 	}
; 171  : 
; 172  : 	for( int i=0; i < iForceCnt; ++i )

  010ce	39 9d b8 f9 ff
	ff		 cmp	 DWORD PTR _iForceCnt$[ebp], ebx
  010d4	0f 8e 21 02 00
	00		 jle	 $LN796@LoadProper
  010da	8b 85 b8 f9 ff
	ff		 mov	 eax, DWORD PTR _iForceCnt$[ebp]
  010e0	c7 85 bc f9 ff
	ff 01 00 00 00	 mov	 DWORD PTR tv33704[ebp], 1
  010ea	89 85 b8 f9 ff
	ff		 mov	 DWORD PTR tv13767[ebp], eax
$LL798@LoadProper:

; 173  : 	{
; 174  : 		ForceInfo kInfo;

  010f0	8d 8d ac f9 ff
	ff		 lea	 ecx, DWORD PTR _kInfo$549485[ebp]
  010f6	e8 00 00 00 00	 call	 ??0ForceInfo@@QAE@XZ	; ForceInfo::ForceInfo
  010fb	6a 06		 push	 6

; 175  : 
; 176  : 		wsprintf_e( szKey, "land_attack_force_move%d", i+1 );

  010fd	c7 85 f0 fb ff
	ff 81 8d 85 8e	 mov	 DWORD PTR ___encStr$549489[ebp], -1903850111 ; 8e858d81H
  01107	c7 85 f4 fb ff
	ff b2 8d 9f 9e	 mov	 DWORD PTR ___encStr$549489[ebp+4], -1633710670 ; 9e9f8db2H
  01111	c7 85 f8 fb ff
	ff 8c 8f 80 b5	 mov	 DWORD PTR ___encStr$549489[ebp+8], -1249865844 ; b5808f8cH
  0111b	c7 85 fc fb ff
	ff 8b 83 99 89	 mov	 DWORD PTR ___encStr$549489[ebp+12], -1986428021 ; 8999838bH
  01125	c7 85 00 fc ff
	ff 88 b3 86 85	 mov	 DWORD PTR ___encStr$549489[ebp+16], -2054769784 ; 8586b388H
  0112f	c7 85 04 fc ff
	ff 9b 89 ce 8e	 mov	 DWORD PTR ___encStr$549489[ebp+20], -1899066981 ; 8ece899bH
  01139	8d 85 f0 fb ff
	ff		 lea	 eax, DWORD PTR ___encStr$549489[ebp]
  0113f	88 9d 08 fc ff
	ff		 mov	 BYTE PTR ___encStr$549489[ebp+24], bl
  01145	59		 pop	 ecx
$LL4011@LoadProper:
  01146	81 30 ed ec eb
	ea		 xor	 DWORD PTR [eax], -353637139 ; eaebecedH
  0114c	83 c0 04	 add	 eax, 4
  0114f	49		 dec	 ecx
  01150	75 f4		 jne	 SHORT $LL4011@LoadProper
  01152	ff b5 bc f9 ff
	ff		 push	 DWORD PTR tv33704[ebp]
  01158	8d 85 f0 fb ff
	ff		 lea	 eax, DWORD PTR ___encStr$549489[ebp]
  0115e	50		 push	 eax
  0115f	8d 85 c8 fa ff
	ff		 lea	 eax, DWORD PTR _szKey$[ebp]
  01165	50		 push	 eax
  01166	ff d7		 call	 edi

; 177  : 		kInfo.m_fForceMovePower = rkLoader.LoadFloat( szKey, 0.0f );

  01168	0f 57 c0	 xorps	 xmm0, xmm0
  0116b	59		 pop	 ecx
  0116c	59		 pop	 ecx
  0116d	8b 8d c0 f9 ff
	ff		 mov	 ecx, DWORD PTR _rkLoader$GSCopy$[ebp]
  01173	8d 85 c8 fa ff
	ff		 lea	 eax, DWORD PTR _szKey$[ebp]
  01179	f3 0f 11 04 24	 movss	 DWORD PTR [esp], xmm0
  0117e	50		 push	 eax
  0117f	ff 15 00 00 00
	00		 call	 DWORD PTR __imp_?LoadFloat@ioINILoader@@QAEMPBDM@Z
  01185	d9 9d ac f9 ff
	ff		 fstp	 DWORD PTR _kInfo$549485[ebp]
  0118b	6a 07		 push	 7

; 178  : 
; 179  : 		wsprintf_e( szKey, "land_attack_force_friction%d", i+1 );

  0118d	c7 85 cc fb ff
	ff 81 8d 85 8e	 mov	 DWORD PTR ___encStr$549641[ebp], -1903850111 ; 8e858d81H
  01197	c7 85 d0 fb ff
	ff b2 8d 9f 9e	 mov	 DWORD PTR ___encStr$549641[ebp+4], -1633710670 ; 9e9f8db2H
  011a1	c7 85 d4 fb ff
	ff 8c 8f 80 b5	 mov	 DWORD PTR ___encStr$549641[ebp+8], -1249865844 ; b5808f8cH
  011ab	c7 85 d8 fb ff
	ff 8b 83 99 89	 mov	 DWORD PTR ___encStr$549641[ebp+12], -1986428021 ; 8999838bH
  011b5	c7 85 dc fb ff
	ff 88 b3 8d 98	 mov	 DWORD PTR ___encStr$549641[ebp+16], -1735543928 ; 988db388H
  011bf	c7 85 e0 fb ff
	ff 84 8f 9f 83	 mov	 DWORD PTR ___encStr$549641[ebp+20], -2086695036 ; 839f8f84H
  011c9	c7 85 e4 fb ff
	ff 82 82 ce 8e	 mov	 DWORD PTR ___encStr$549641[ebp+24], -1899068798 ; 8ece8282H
  011d3	8d 85 cc fb ff
	ff		 lea	 eax, DWORD PTR ___encStr$549641[ebp]
  011d9	88 9d e8 fb ff
	ff		 mov	 BYTE PTR ___encStr$549641[ebp+28], bl
  011df	59		 pop	 ecx
$LL4019@LoadProper:
  011e0	81 30 ed ec eb
	ea		 xor	 DWORD PTR [eax], -353637139 ; eaebecedH
  011e6	83 c0 04	 add	 eax, 4
  011e9	49		 dec	 ecx
  011ea	75 f4		 jne	 SHORT $LL4019@LoadProper
  011ec	ff b5 bc f9 ff
	ff		 push	 DWORD PTR tv33704[ebp]
  011f2	8d 85 cc fb ff
	ff		 lea	 eax, DWORD PTR ___encStr$549641[ebp]
  011f8	50		 push	 eax
  011f9	8d 85 c8 fa ff
	ff		 lea	 eax, DWORD PTR _szKey$[ebp]
  011ff	50		 push	 eax
  01200	ff d7		 call	 edi
  01202	83 c4 0c	 add	 esp, 12			; 0000000cH

; 180  : 		kInfo.m_fForceMoveFriction = rkLoader.LoadFloat( szKey, FLOAT1 );

  01205	b8 01 00 00 00	 mov	 eax, 1
  0120a	89 85 a8 f9 ff
	ff		 mov	 DWORD PTR tv33621[ebp], eax
  01210	db 85 a8 f9 ff
	ff		 fild	 DWORD PTR tv33621[ebp]
  01216	85 c0		 test	 eax, eax
  01218	79 06		 jns	 SHORT $LN4476@LoadProper
  0121a	d8 05 00 00 00
	00		 fadd	 DWORD PTR __real@4f800000
$LN4476@LoadProper:
  01220	51		 push	 ecx
  01221	8b 8d c0 f9 ff
	ff		 mov	 ecx, DWORD PTR _rkLoader$GSCopy$[ebp]
  01227	d9 1c 24	 fstp	 DWORD PTR [esp]
  0122a	8d 85 c8 fa ff
	ff		 lea	 eax, DWORD PTR _szKey$[ebp]
  01230	50		 push	 eax
  01231	ff 15 00 00 00
	00		 call	 DWORD PTR __imp_?LoadFloat@ioINILoader@@QAEMPBDM@Z
  01237	d9 9d b0 f9 ff
	ff		 fstp	 DWORD PTR _kInfo$549485[ebp+4]
  0123d	6a 06		 push	 6

; 181  : 
; 182  : 		wsprintf_e( szKey, "land_attack_force_angle%d", i+1 );

  0123f	c7 85 ac fd ff
	ff 81 8d 85 8e	 mov	 DWORD PTR ___encStr$549794[ebp], -1903850111 ; 8e858d81H
  01249	c7 85 b0 fd ff
	ff b2 8d 9f 9e	 mov	 DWORD PTR ___encStr$549794[ebp+4], -1633710670 ; 9e9f8db2H
  01253	c7 85 b4 fd ff
	ff 8c 8f 80 b5	 mov	 DWORD PTR ___encStr$549794[ebp+8], -1249865844 ; b5808f8cH
  0125d	c7 85 b8 fd ff
	ff 8b 83 99 89	 mov	 DWORD PTR ___encStr$549794[ebp+12], -1986428021 ; 8999838bH
  01267	c7 85 bc fd ff
	ff 88 b3 8a 84	 mov	 DWORD PTR ___encStr$549794[ebp+16], -2071284856 ; 848ab388H
  01271	c7 85 c0 fd ff
	ff 8a 80 8e cf	 mov	 DWORD PTR ___encStr$549794[ebp+20], -812744566 ; cf8e808aH
  0127b	8d 85 ac fd ff
	ff		 lea	 eax, DWORD PTR ___encStr$549794[ebp]
  01281	66 c7 85 c4 fd
	ff ff 89 00	 mov	 WORD PTR ___encStr$549794[ebp+24], 137 ; 00000089H
  0128a	59		 pop	 ecx
$LL4029@LoadProper:
  0128b	81 30 ed ec eb
	ea		 xor	 DWORD PTR [eax], -353637139 ; eaebecedH
  01291	83 c0 04	 add	 eax, 4
  01294	49		 dec	 ecx
  01295	75 f4		 jne	 SHORT $LL4029@LoadProper
  01297	ff b5 bc f9 ff
	ff		 push	 DWORD PTR tv33704[ebp]
  0129d	80 b5 c4 fd ff
	ff ed		 xor	 BYTE PTR ___encStr$549794[ebp+24], -19 ; ffffffedH
  012a4	8d 85 ac fd ff
	ff		 lea	 eax, DWORD PTR ___encStr$549794[ebp]
  012aa	50		 push	 eax
  012ab	8d 85 c8 fa ff
	ff		 lea	 eax, DWORD PTR _szKey$[ebp]
  012b1	50		 push	 eax
  012b2	ff d7		 call	 edi

; 183  : 		kInfo.m_fForceAngle = rkLoader.LoadFloat( szKey, 0.0f );

  012b4	0f 57 c0	 xorps	 xmm0, xmm0
  012b7	59		 pop	 ecx
  012b8	59		 pop	 ecx
  012b9	8b 8d c0 f9 ff
	ff		 mov	 ecx, DWORD PTR _rkLoader$GSCopy$[ebp]
  012bf	8d 85 c8 fa ff
	ff		 lea	 eax, DWORD PTR _szKey$[ebp]
  012c5	f3 0f 11 04 24	 movss	 DWORD PTR [esp], xmm0
  012ca	50		 push	 eax
  012cb	ff 15 00 00 00
	00		 call	 DWORD PTR __imp_?LoadFloat@ioINILoader@@QAEMPBDM@Z
  012d1	d9 9d b4 f9 ff
	ff		 fstp	 DWORD PTR _kInfo$549485[ebp+8]

; 184  : 
; 185  : 		m_LandAttackAttribute.m_vForceInfoList.push_back( kInfo );

  012d7	8d 85 ac f9 ff
	ff		 lea	 eax, DWORD PTR _kInfo$549485[ebp]
  012dd	50		 push	 eax
  012de	8d 8e 14 10 00
	00		 lea	 ecx, DWORD PTR [esi+4116]
  012e4	e8 00 00 00 00	 call	 ?push_back@?$vector@UForceInfo@@V?$allocator@UForceInfo@@@std@@@std@@QAEXABUForceInfo@@@Z ; std::vector<ForceInfo,std::allocator<ForceInfo> >::push_back
  012e9	ff 85 bc f9 ff
	ff		 inc	 DWORD PTR tv33704[ebp]
  012ef	ff 8d b8 f9 ff
	ff		 dec	 DWORD PTR tv13767[ebp]
  012f5	0f 85 f5 fd ff
	ff		 jne	 $LL798@LoadProper
$LN796@LoadProper:

; 186  : 	}
; 187  : 
; 188  : 	iAttackTypeCnt = rkLoader.LoadInt_e( "land_attack_type_count", 1 );

  012fb	6a 05		 push	 5
  012fd	c7 85 20 fe ff
	ff 81 8d 85 8e	 mov	 DWORD PTR __k$563073[ebp], -1903850111 ; 8e858d81H
  01307	c7 85 24 fe ff
	ff b2 8d 9f 9e	 mov	 DWORD PTR __k$563073[ebp+4], -1633710670 ; 9e9f8db2H
  01311	c7 85 28 fe ff
	ff 8c 8f 80 b5	 mov	 DWORD PTR __k$563073[ebp+8], -1249865844 ; b5808f8cH
  0131b	c7 85 2c fe ff
	ff 99 95 9b 8f	 mov	 DWORD PTR __k$563073[ebp+12], -1885629031 ; 8f9b9599H
  01325	c7 85 30 fe ff
	ff b2 8f 84 9f	 mov	 DWORD PTR __k$563073[ebp+16], -1618702414 ; 9f848fb2H
  0132f	66 c7 85 34 fe
	ff ff 83 98	 mov	 WORD PTR __k$563073[ebp+20], 39043 ; 00009883H
  01338	8d 85 20 fe ff
	ff		 lea	 eax, DWORD PTR __k$563073[ebp]
  0133e	88 9d 36 fe ff
	ff		 mov	 BYTE PTR __k$563073[ebp+22], bl
  01344	59		 pop	 ecx
$LL4135@LoadProper:
  01345	81 30 ed ec eb
	ea		 xor	 DWORD PTR [eax], -353637139 ; eaebecedH
  0134b	83 c0 04	 add	 eax, 4
  0134e	49		 dec	 ecx
  0134f	75 f4		 jne	 SHORT $LL4135@LoadProper
  01351	6a 14		 push	 20			; 00000014H
  01353	58		 pop	 eax
$LL4132@LoadProper:
  01354	8b c8		 mov	 ecx, eax
  01356	81 e1 03 00 00
	80		 and	 ecx, -2147483645	; 80000003H
  0135c	79 05		 jns	 SHORT $LN4477@LoadProper
  0135e	49		 dec	 ecx
  0135f	83 c9 fc	 or	 ecx, -4			; fffffffcH
  01362	41		 inc	 ecx
$LN4477@LoadProper:
  01363	b2 ed		 mov	 dl, -19			; ffffffedH
  01365	2a d1		 sub	 dl, cl
  01367	30 94 05 20 fe
	ff ff		 xor	 BYTE PTR __k$563073[ebp+eax], dl
  0136e	40		 inc	 eax
  0136f	83 f8 16	 cmp	 eax, 22			; 00000016H
  01372	7c e0		 jl	 SHORT $LL4132@LoadProper
  01374	8b 8d c0 f9 ff
	ff		 mov	 ecx, DWORD PTR _rkLoader$GSCopy$[ebp]
  0137a	6a 01		 push	 1
  0137c	8d 85 20 fe ff
	ff		 lea	 eax, DWORD PTR __k$563073[ebp]
  01382	50		 push	 eax
  01383	ff 15 00 00 00
	00		 call	 DWORD PTR __imp_?LoadInt@ioINILoader@@QAEHPBDH@Z

; 189  : 	m_LandAttackAttribute.m_vWeaponInfoList.clear();

  01389	8d 8e 04 10 00
	00		 lea	 ecx, DWORD PTR [esi+4100]
  0138f	89 85 bc f9 ff
	ff		 mov	 DWORD PTR _iAttackTypeCnt$[ebp], eax
  01395	e8 00 00 00 00	 call	 ?clear@?$vector@UWeaponInfo@@V?$allocator@UWeaponInfo@@@std@@@std@@QAEXXZ ; std::vector<WeaponInfo,std::allocator<WeaponInfo> >::clear

; 190  : 	m_LandAttackAttribute.m_vWeaponInfoList.reserve( iAttackTypeCnt );

  0139a	ff b5 bc f9 ff
	ff		 push	 DWORD PTR _iAttackTypeCnt$[ebp]
  013a0	8d 8e 04 10 00
	00		 lea	 ecx, DWORD PTR [esi+4100]
  013a6	e8 00 00 00 00	 call	 ?reserve@?$vector@UWeaponInfo@@V?$allocator@UWeaponInfo@@@std@@@std@@QAEXI@Z ; std::vector<WeaponInfo,std::allocator<WeaponInfo> >::reserve

; 191  : 
; 192  : 	for( int i=0 ; i<iAttackTypeCnt ; i++ )

  013ab	39 9d bc f9 ff
	ff		 cmp	 DWORD PTR _iAttackTypeCnt$[ebp], ebx
  013b1	0f 8e e5 03 00
	00		 jle	 $LN496@LoadProper

; 186  : 	}
; 187  : 
; 188  : 	iAttackTypeCnt = rkLoader.LoadInt_e( "land_attack_type_count", 1 );

  013b7	8b 85 bc f9 ff
	ff		 mov	 eax, DWORD PTR _iAttackTypeCnt$[ebp]
  013bd	c7 85 b8 f9 ff
	ff 01 00 00 00	 mov	 DWORD PTR tv33833[ebp], 1
  013c7	89 85 bc f9 ff
	ff		 mov	 DWORD PTR tv11057[ebp], eax
$LL498@LoadProper:

; 193  : 	{
; 194  : 		WeaponInfo kInfo;

  013cd	8d 8d 58 f9 ff
	ff		 lea	 ecx, DWORD PTR _kInfo$549952[ebp]
  013d3	e8 00 00 00 00	 call	 ??0WeaponInfo@@QAE@XZ	; WeaponInfo::WeaponInfo
  013d8	6a 04		 push	 4
  013da	c7 45 fc 01 00
	00 00		 mov	 DWORD PTR __$EHRec$[ebp+8], 1

; 195  : 
; 196  : 		wsprintf_e( szKey, "land_attack_type%d", i+1 );

  013e1	c7 85 30 ff ff
	ff 81 8d 85 8e	 mov	 DWORD PTR ___encStr$549956[ebp], -1903850111 ; 8e858d81H
  013eb	c7 85 34 ff ff
	ff b2 8d 9f 9e	 mov	 DWORD PTR ___encStr$549956[ebp+4], -1633710670 ; 9e9f8db2H
  013f5	c7 85 38 ff ff
	ff 8c 8f 80 b5	 mov	 DWORD PTR ___encStr$549956[ebp+8], -1249865844 ; b5808f8cH
  013ff	c7 85 3c ff ff
	ff 99 95 9b 8f	 mov	 DWORD PTR ___encStr$549956[ebp+12], -1885629031 ; 8f9b9599H
  01409	66 c7 85 40 ff
	ff ff c8 88	 mov	 WORD PTR ___encStr$549956[ebp+16], 35016 ; 000088c8H
  01412	8d 85 30 ff ff
	ff		 lea	 eax, DWORD PTR ___encStr$549956[ebp]
  01418	88 9d 42 ff ff
	ff		 mov	 BYTE PTR ___encStr$549956[ebp+18], bl
  0141e	59		 pop	 ecx
$LL4143@LoadProper:
  0141f	81 30 ed ec eb
	ea		 xor	 DWORD PTR [eax], -353637139 ; eaebecedH
  01425	83 c0 04	 add	 eax, 4
  01428	49		 dec	 ecx
  01429	75 f4		 jne	 SHORT $LL4143@LoadProper
  0142b	6a 10		 push	 16			; 00000010H
  0142d	58		 pop	 eax
$LL4140@LoadProper:
  0142e	8b c8		 mov	 ecx, eax
  01430	81 e1 03 00 00
	80		 and	 ecx, -2147483645	; 80000003H
  01436	79 05		 jns	 SHORT $LN4478@LoadProper
  01438	49		 dec	 ecx
  01439	83 c9 fc	 or	 ecx, -4			; fffffffcH
  0143c	41		 inc	 ecx
$LN4478@LoadProper:
  0143d	b2 ed		 mov	 dl, -19			; ffffffedH
  0143f	2a d1		 sub	 dl, cl
  01441	30 94 05 30 ff
	ff ff		 xor	 BYTE PTR ___encStr$549956[ebp+eax], dl
  01448	40		 inc	 eax
  01449	83 f8 12	 cmp	 eax, 18			; 00000012H
  0144c	7c e0		 jl	 SHORT $LL4140@LoadProper
  0144e	ff b5 b8 f9 ff
	ff		 push	 DWORD PTR tv33833[ebp]
  01454	8d 85 30 ff ff
	ff		 lea	 eax, DWORD PTR ___encStr$549956[ebp]
  0145a	50		 push	 eax
  0145b	8d 85 c8 fa ff
	ff		 lea	 eax, DWORD PTR _szKey$[ebp]
  01461	50		 push	 eax
  01462	ff d7		 call	 edi

; 197  : 		kInfo.m_iWeaponIdx = rkLoader.LoadInt( szKey, NO_WEAPON_ATTRIBUTE );

  01464	8b 8d c0 f9 ff
	ff		 mov	 ecx, DWORD PTR _rkLoader$GSCopy$[ebp]
  0146a	83 c4 0c	 add	 esp, 12			; 0000000cH
  0146d	53		 push	 ebx
  0146e	8d 85 c8 fa ff
	ff		 lea	 eax, DWORD PTR _szKey$[ebp]
  01474	50		 push	 eax
  01475	ff 15 00 00 00
	00		 call	 DWORD PTR __imp_?LoadInt@ioINILoader@@QAEHPBDH@Z
  0147b	6a 06		 push	 6
  0147d	89 85 58 f9 ff
	ff		 mov	 DWORD PTR _kInfo$549952[ebp], eax

; 198  : 
; 199  : 		wsprintf_e( szKey, "land_attack_type%d_resist", i+1 );

  01483	c7 85 8c fd ff
	ff 81 8d 85 8e	 mov	 DWORD PTR ___encStr$550108[ebp], -1903850111 ; 8e858d81H
  0148d	c7 85 90 fd ff
	ff b2 8d 9f 9e	 mov	 DWORD PTR ___encStr$550108[ebp+4], -1633710670 ; 9e9f8db2H
  01497	c7 85 94 fd ff
	ff 8c 8f 80 b5	 mov	 DWORD PTR ___encStr$550108[ebp+8], -1249865844 ; b5808f8cH
  014a1	c7 85 98 fd ff
	ff 99 95 9b 8f	 mov	 DWORD PTR ___encStr$550108[ebp+12], -1885629031 ; 8f9b9599H
  014ab	c7 85 9c fd ff
	ff c8 88 b4 98	 mov	 DWORD PTR ___encStr$550108[ebp+16], -1732998968 ; 98b488c8H
  014b5	c7 85 a0 fd ff
	ff 88 9f 82 99	 mov	 DWORD PTR ___encStr$550108[ebp+20], -1719492728 ; 99829f88H
  014bf	8d 85 8c fd ff
	ff		 lea	 eax, DWORD PTR ___encStr$550108[ebp]
  014c5	66 c7 85 a4 fd
	ff ff 99 00	 mov	 WORD PTR ___encStr$550108[ebp+24], 153 ; 00000099H
  014ce	59		 pop	 ecx
$LL4151@LoadProper:
  014cf	81 30 ed ec eb
	ea		 xor	 DWORD PTR [eax], -353637139 ; eaebecedH
  014d5	83 c0 04	 add	 eax, 4
  014d8	49		 dec	 ecx
  014d9	75 f4		 jne	 SHORT $LL4151@LoadProper
  014db	ff b5 b8 f9 ff
	ff		 push	 DWORD PTR tv33833[ebp]
  014e1	80 b5 a4 fd ff
	ff ed		 xor	 BYTE PTR ___encStr$550108[ebp+24], -19 ; ffffffedH
  014e8	8d 85 8c fd ff
	ff		 lea	 eax, DWORD PTR ___encStr$550108[ebp]
  014ee	50		 push	 eax
  014ef	8d 85 c8 fa ff
	ff		 lea	 eax, DWORD PTR _szKey$[ebp]
  014f5	50		 push	 eax
  014f6	ff d7		 call	 edi

; 200  : 		kInfo.m_iResistanceIdx = rkLoader.LoadInt( szKey, NO_WEAPON_ATTRIBUTE );

  014f8	8b 8d c0 f9 ff
	ff		 mov	 ecx, DWORD PTR _rkLoader$GSCopy$[ebp]
  014fe	83 c4 0c	 add	 esp, 12			; 0000000cH
  01501	53		 push	 ebx
  01502	8d 85 c8 fa ff
	ff		 lea	 eax, DWORD PTR _szKey$[ebp]
  01508	50		 push	 eax
  01509	ff 15 00 00 00
	00		 call	 DWORD PTR __imp_?LoadInt@ioINILoader@@QAEHPBDH@Z
  0150f	6a 06		 push	 6
  01511	89 85 5c f9 ff
	ff		 mov	 DWORD PTR _kInfo$549952[ebp+4], eax

; 201  : 
; 202  : 		wsprintf_e( szKey, "land_attack_type%d_wounded", i+1 );

  01517	c7 85 6c fd ff
	ff 81 8d 85 8e	 mov	 DWORD PTR ___encStr$550260[ebp], -1903850111 ; 8e858d81H
  01521	c7 85 70 fd ff
	ff b2 8d 9f 9e	 mov	 DWORD PTR ___encStr$550260[ebp+4], -1633710670 ; 9e9f8db2H
  0152b	c7 85 74 fd ff
	ff 8c 8f 80 b5	 mov	 DWORD PTR ___encStr$550260[ebp+8], -1249865844 ; b5808f8cH
  01535	c7 85 78 fd ff
	ff 99 95 9b 8f	 mov	 DWORD PTR ___encStr$550260[ebp+12], -1885629031 ; 8f9b9599H
  0153f	c7 85 7c fd ff
	ff c8 88 b4 9d	 mov	 DWORD PTR ___encStr$550260[ebp+16], -1649112888 ; 9db488c8H
  01549	c7 85 80 fd ff
	ff 82 99 85 8e	 mov	 DWORD PTR ___encStr$550260[ebp+20], -1903847038 ; 8e859982H
  01553	66 c7 85 84 fd
	ff ff 88 88	 mov	 WORD PTR ___encStr$550260[ebp+24], 34952 ; 00008888H
  0155c	8d 85 6c fd ff
	ff		 lea	 eax, DWORD PTR ___encStr$550260[ebp]
  01562	88 9d 86 fd ff
	ff		 mov	 BYTE PTR ___encStr$550260[ebp+26], bl
  01568	59		 pop	 ecx
$LL4159@LoadProper:
  01569	81 30 ed ec eb
	ea		 xor	 DWORD PTR [eax], -353637139 ; eaebecedH
  0156f	83 c0 04	 add	 eax, 4
  01572	49		 dec	 ecx
  01573	75 f4		 jne	 SHORT $LL4159@LoadProper
  01575	6a 18		 push	 24			; 00000018H
  01577	58		 pop	 eax
$LL4156@LoadProper:
  01578	8b c8		 mov	 ecx, eax
  0157a	81 e1 03 00 00
	80		 and	 ecx, -2147483645	; 80000003H
  01580	79 05		 jns	 SHORT $LN4479@LoadProper
  01582	49		 dec	 ecx
  01583	83 c9 fc	 or	 ecx, -4			; fffffffcH
  01586	41		 inc	 ecx
$LN4479@LoadProper:
  01587	b2 ed		 mov	 dl, -19			; ffffffedH
  01589	2a d1		 sub	 dl, cl
  0158b	30 94 05 6c fd
	ff ff		 xor	 BYTE PTR ___encStr$550260[ebp+eax], dl
  01592	40		 inc	 eax
  01593	83 f8 1a	 cmp	 eax, 26			; 0000001aH
  01596	7c e0		 jl	 SHORT $LL4156@LoadProper
  01598	ff b5 b8 f9 ff
	ff		 push	 DWORD PTR tv33833[ebp]
  0159e	8d 85 6c fd ff
	ff		 lea	 eax, DWORD PTR ___encStr$550260[ebp]
  015a4	50		 push	 eax
  015a5	8d 85 c8 fa ff
	ff		 lea	 eax, DWORD PTR _szKey$[ebp]
  015ab	50		 push	 eax
  015ac	ff d7		 call	 edi

; 203  : 		rkLoader.LoadString( szKey, "", szBuf, MAX_PATH );

  015ae	8b 8d c0 f9 ff
	ff		 mov	 ecx, DWORD PTR _rkLoader$GSCopy$[ebp]
  015b4	83 c4 0c	 add	 esp, 12			; 0000000cH
  015b7	68 04 01 00 00	 push	 260			; 00000104H
  015bc	8d 85 c4 f9 ff
	ff		 lea	 eax, DWORD PTR _szBuf$[ebp]
  015c2	50		 push	 eax
  015c3	68 00 00 00 00	 push	 OFFSET ??_C@_00CNPNBAHC@?$AA@
  015c8	8d 85 c8 fa ff
	ff		 lea	 eax, DWORD PTR _szKey$[ebp]
  015ce	50		 push	 eax
  015cf	ff 15 00 00 00
	00		 call	 DWORD PTR __imp_?LoadStringA@ioINILoader@@QAEXPBD0PADH@Z

; 204  : 		kInfo.m_WoundedAnimation = szBuf;

  015d5	8d 85 c4 f9 ff
	ff		 lea	 eax, DWORD PTR _szBuf$[ebp]
  015db	50		 push	 eax
  015dc	8d 8d 60 f9 ff
	ff		 lea	 ecx, DWORD PTR _kInfo$549952[ebp+8]
  015e2	ff 15 00 00 00
	00		 call	 DWORD PTR __imp_??4ioHashString@@QAEAAV0@PBD@Z
  015e8	6a 07		 push	 7

; 205  : 
; 206  : 		wsprintf_e( szKey, "land_attack_type%d_wounded_time", i+1 );

  015ea	c7 85 8c fc ff
	ff 81 8d 85 8e	 mov	 DWORD PTR ___encStr$550412[ebp], -1903850111 ; 8e858d81H
  015f4	c7 85 90 fc ff
	ff b2 8d 9f 9e	 mov	 DWORD PTR ___encStr$550412[ebp+4], -1633710670 ; 9e9f8db2H
  015fe	c7 85 94 fc ff
	ff 8c 8f 80 b5	 mov	 DWORD PTR ___encStr$550412[ebp+8], -1249865844 ; b5808f8cH
  01608	c7 85 98 fc ff
	ff 99 95 9b 8f	 mov	 DWORD PTR ___encStr$550412[ebp+12], -1885629031 ; 8f9b9599H
  01612	c7 85 9c fc ff
	ff c8 88 b4 9d	 mov	 DWORD PTR ___encStr$550412[ebp+16], -1649112888 ; 9db488c8H
  0161c	c7 85 a0 fc ff
	ff 82 99 85 8e	 mov	 DWORD PTR ___encStr$550412[ebp+20], -1903847038 ; 8e859982H
  01626	c7 85 a4 fc ff
	ff 88 88 b4 9e	 mov	 DWORD PTR ___encStr$550412[ebp+24], -1632335736 ; 9eb48888H
  01630	8d 85 8c fc ff
	ff		 lea	 eax, DWORD PTR ___encStr$550412[ebp]
  01636	c7 85 a8 fc ff
	ff 84 81 8e 00	 mov	 DWORD PTR ___encStr$550412[ebp+28], 9339268 ; 008e8184H
  01640	59		 pop	 ecx
$LL4167@LoadProper:
  01641	81 30 ed ec eb
	ea		 xor	 DWORD PTR [eax], -353637139 ; eaebecedH
  01647	83 c0 04	 add	 eax, 4
  0164a	49		 dec	 ecx
  0164b	75 f4		 jne	 SHORT $LL4167@LoadProper
  0164d	6a 1c		 push	 28			; 0000001cH
  0164f	58		 pop	 eax
$LL4164@LoadProper:
  01650	8b c8		 mov	 ecx, eax
  01652	81 e1 03 00 00
	80		 and	 ecx, -2147483645	; 80000003H
  01658	79 05		 jns	 SHORT $LN4480@LoadProper
  0165a	49		 dec	 ecx
  0165b	83 c9 fc	 or	 ecx, -4			; fffffffcH
  0165e	41		 inc	 ecx
$LN4480@LoadProper:
  0165f	b2 ed		 mov	 dl, -19			; ffffffedH
  01661	2a d1		 sub	 dl, cl
  01663	30 94 05 8c fc
	ff ff		 xor	 BYTE PTR ___encStr$550412[ebp+eax], dl
  0166a	40		 inc	 eax
  0166b	83 f8 1f	 cmp	 eax, 31			; 0000001fH
  0166e	7c e0		 jl	 SHORT $LL4164@LoadProper
  01670	ff b5 b8 f9 ff
	ff		 push	 DWORD PTR tv33833[ebp]
  01676	8d 85 8c fc ff
	ff		 lea	 eax, DWORD PTR ___encStr$550412[ebp]
  0167c	50		 push	 eax
  0167d	8d 85 c8 fa ff
	ff		 lea	 eax, DWORD PTR _szKey$[ebp]
  01683	50		 push	 eax
  01684	ff d7		 call	 edi

; 207  : 		kInfo.m_dwWoundedDuration = rkLoader.LoadInt( szKey, 0 );

  01686	8b 8d c0 f9 ff
	ff		 mov	 ecx, DWORD PTR _rkLoader$GSCopy$[ebp]
  0168c	83 c4 0c	 add	 esp, 12			; 0000000cH
  0168f	53		 push	 ebx
  01690	8d 85 c8 fa ff
	ff		 lea	 eax, DWORD PTR _szKey$[ebp]
  01696	50		 push	 eax
  01697	ff 15 00 00 00
	00		 call	 DWORD PTR __imp_?LoadInt@ioINILoader@@QAEHPBDH@Z
  0169d	6a 08		 push	 8
  0169f	89 85 70 f9 ff
	ff		 mov	 DWORD PTR _kInfo$549952[ebp+24], eax

; 208  : 
; 209  : 		wsprintf_e( szKey, "land_attack_type%d_wounded_loop_ani", i+1 );

  016a5	c7 85 10 fc ff
	ff 81 8d 85 8e	 mov	 DWORD PTR ___encStr$550564[ebp], -1903850111 ; 8e858d81H
  016af	c7 85 14 fc ff
	ff b2 8d 9f 9e	 mov	 DWORD PTR ___encStr$550564[ebp+4], -1633710670 ; 9e9f8db2H
  016b9	c7 85 18 fc ff
	ff 8c 8f 80 b5	 mov	 DWORD PTR ___encStr$550564[ebp+8], -1249865844 ; b5808f8cH
  016c3	c7 85 1c fc ff
	ff 99 95 9b 8f	 mov	 DWORD PTR ___encStr$550564[ebp+12], -1885629031 ; 8f9b9599H
  016cd	c7 85 20 fc ff
	ff c8 88 b4 9d	 mov	 DWORD PTR ___encStr$550564[ebp+16], -1649112888 ; 9db488c8H
  016d7	c7 85 24 fc ff
	ff 82 99 85 8e	 mov	 DWORD PTR ___encStr$550564[ebp+20], -1903847038 ; 8e859982H
  016e1	c7 85 28 fc ff
	ff 88 88 b4 86	 mov	 DWORD PTR ___encStr$550564[ebp+24], -2034988920 ; 86b48888H
  016eb	c7 85 2c fc ff
	ff 82 83 9b b5	 mov	 DWORD PTR ___encStr$550564[ebp+28], -1248099454 ; b59b8382H
  016f5	8d 85 10 fc ff
	ff		 lea	 eax, DWORD PTR ___encStr$550564[ebp]
  016fb	c7 85 30 fc ff
	ff 8c 82 82 00	 mov	 DWORD PTR ___encStr$550564[ebp+32], 8553100 ; 0082828cH
  01705	59		 pop	 ecx
$LL4175@LoadProper:
  01706	81 30 ed ec eb
	ea		 xor	 DWORD PTR [eax], -353637139 ; eaebecedH
  0170c	83 c0 04	 add	 eax, 4
  0170f	49		 dec	 ecx
  01710	75 f4		 jne	 SHORT $LL4175@LoadProper
  01712	6a 20		 push	 32			; 00000020H
  01714	58		 pop	 eax
$LL4172@LoadProper:
  01715	8b c8		 mov	 ecx, eax
  01717	81 e1 03 00 00
	80		 and	 ecx, -2147483645	; 80000003H
  0171d	79 05		 jns	 SHORT $LN4481@LoadProper
  0171f	49		 dec	 ecx
  01720	83 c9 fc	 or	 ecx, -4			; fffffffcH
  01723	41		 inc	 ecx
$LN4481@LoadProper:
  01724	b2 ed		 mov	 dl, -19			; ffffffedH
  01726	2a d1		 sub	 dl, cl
  01728	30 94 05 10 fc
	ff ff		 xor	 BYTE PTR ___encStr$550564[ebp+eax], dl
  0172f	40		 inc	 eax
  01730	83 f8 23	 cmp	 eax, 35			; 00000023H
  01733	7c e0		 jl	 SHORT $LL4172@LoadProper
  01735	ff b5 b8 f9 ff
	ff		 push	 DWORD PTR tv33833[ebp]
  0173b	8d 85 10 fc ff
	ff		 lea	 eax, DWORD PTR ___encStr$550564[ebp]
  01741	50		 push	 eax
  01742	8d 85 c8 fa ff
	ff		 lea	 eax, DWORD PTR _szKey$[ebp]
  01748	50		 push	 eax
  01749	ff d7		 call	 edi

; 210  : 		kInfo.m_bWoundedLoopAni = rkLoader.LoadBool( szKey, false );

  0174b	8b 8d c0 f9 ff
	ff		 mov	 ecx, DWORD PTR _rkLoader$GSCopy$[ebp]
  01751	83 c4 0c	 add	 esp, 12			; 0000000cH
  01754	53		 push	 ebx
  01755	8d 85 c8 fa ff
	ff		 lea	 eax, DWORD PTR _szKey$[ebp]
  0175b	50		 push	 eax
  0175c	ff 15 00 00 00
	00		 call	 DWORD PTR __imp_?LoadBool@ioINILoader@@QAE_NPBD_N@Z
  01762	88 85 78 f9 ff
	ff		 mov	 BYTE PTR _kInfo$549952[ebp+32], al

; 211  : 
; 212  : 		m_LandAttackAttribute.m_vWeaponInfoList.push_back( kInfo );

  01768	8d 85 58 f9 ff
	ff		 lea	 eax, DWORD PTR _kInfo$549952[ebp]
  0176e	50		 push	 eax
  0176f	8d 8e 04 10 00
	00		 lea	 ecx, DWORD PTR [esi+4100]
  01775	e8 00 00 00 00	 call	 ?push_back@?$vector@UWeaponInfo@@V?$allocator@UWeaponInfo@@@std@@@std@@QAEXABUWeaponInfo@@@Z ; std::vector<WeaponInfo,std::allocator<WeaponInfo> >::push_back

; 213  : 	}

  0177a	83 4d fc ff	 or	 DWORD PTR __$EHRec$[ebp+8], -1
  0177e	8d 8d 60 f9 ff
	ff		 lea	 ecx, DWORD PTR _kInfo$549952[ebp+8]
  01784	ff 15 00 00 00
	00		 call	 DWORD PTR __imp_??1ioHashString@@QAE@XZ
  0178a	ff 85 b8 f9 ff
	ff		 inc	 DWORD PTR tv33833[ebp]
  01790	ff 8d bc f9 ff
	ff		 dec	 DWORD PTR tv11057[ebp]
  01796	0f 85 31 fc ff
	ff		 jne	 $LL498@LoadProper
$LN496@LoadProper:

; 214  : 
; 215  : 	m_dwCheckLandingMaxTime = rkLoader.LoadInt_e( "check_landing_max_time", 5000 );

  0179c	6a 05		 push	 5
  0179e	c7 85 3c fe ff
	ff 8e 84 8e 89	 mov	 DWORD PTR __k$563275[ebp], -1987148658 ; 898e848eH
  017a8	c7 85 40 fe ff
	ff 86 b3 87 8b	 mov	 DWORD PTR __k$563275[ebp+4], -1954040954 ; 8b87b386H
  017b2	c7 85 44 fe ff
	ff 83 88 82 84	 mov	 DWORD PTR __k$563275[ebp+8], -2071820157 ; 84828883H
  017bc	c7 85 48 fe ff
	ff 8a b3 86 8b	 mov	 DWORD PTR __k$563275[ebp+12], -1954106486 ; 8b86b38aH
  017c6	c7 85 4c fe ff
	ff 95 b3 9f 83	 mov	 DWORD PTR __k$563275[ebp+16], -2086685803 ; 839fb395H
  017d0	66 c7 85 50 fe
	ff ff 80 89	 mov	 WORD PTR __k$563275[ebp+20], 35200 ; 00008980H
  017d9	8d 85 3c fe ff
	ff		 lea	 eax, DWORD PTR __k$563275[ebp]
  017df	88 9d 52 fe ff
	ff		 mov	 BYTE PTR __k$563275[ebp+22], bl
  017e5	59		 pop	 ecx
$LL4284@LoadProper:
  017e6	81 30 ed ec eb
	ea		 xor	 DWORD PTR [eax], -353637139 ; eaebecedH
  017ec	83 c0 04	 add	 eax, 4
  017ef	49		 dec	 ecx
  017f0	75 f4		 jne	 SHORT $LL4284@LoadProper
  017f2	6a 14		 push	 20			; 00000014H
  017f4	58		 pop	 eax
$LL4281@LoadProper:
  017f5	8b c8		 mov	 ecx, eax
  017f7	81 e1 03 00 00
	80		 and	 ecx, -2147483645	; 80000003H
  017fd	79 05		 jns	 SHORT $LN4482@LoadProper
  017ff	49		 dec	 ecx
  01800	83 c9 fc	 or	 ecx, -4			; fffffffcH
  01803	41		 inc	 ecx
$LN4482@LoadProper:
  01804	b2 ed		 mov	 dl, -19			; ffffffedH
  01806	2a d1		 sub	 dl, cl
  01808	30 94 05 3c fe
	ff ff		 xor	 BYTE PTR __k$563275[ebp+eax], dl
  0180f	40		 inc	 eax
  01810	83 f8 16	 cmp	 eax, 22			; 00000016H
  01813	7c e0		 jl	 SHORT $LL4281@LoadProper
  01815	8b 8d c0 f9 ff
	ff		 mov	 ecx, DWORD PTR _rkLoader$GSCopy$[ebp]
  0181b	68 88 13 00 00	 push	 5000			; 00001388H
  01820	8d 85 3c fe ff
	ff		 lea	 eax, DWORD PTR __k$563275[ebp]
  01826	50		 push	 eax
  01827	ff 15 00 00 00
	00		 call	 DWORD PTR __imp_?LoadInt@ioINILoader@@QAEHPBDH@Z
  0182d	89 86 28 11 00
	00		 mov	 DWORD PTR [esi+4392], eax

; 216  : }

  01833	e8 00 00 00 00	 call	 __EH_epilog3_GS
  01838	c2 04 00	 ret	 4
_TEXT	ENDS
;	COMDAT text$x
text$x	SEGMENT
__unwindfunclet$?LoadProperty@ioCircleMoveAttackSkill@@UAEXAAVioINILoader@@@Z$0:
  00000	8d 8d 80 f9 ff
	ff		 lea	 ecx, DWORD PTR _kInfo$548714[ebp]
  00006	e9 00 00 00 00	 jmp	 ??1WeaponInfo@@QAE@XZ
__unwindfunclet$?LoadProperty@ioCircleMoveAttackSkill@@UAEXAAVioINILoader@@@Z$1:
  0000b	8d 8d 58 f9 ff
	ff		 lea	 ecx, DWORD PTR _kInfo$549952[ebp]
  00011	e9 00 00 00 00	 jmp	 ??1WeaponInfo@@QAE@XZ
__ehhandler$?LoadProperty@ioCircleMoveAttackSkill@@UAEXAAVioINILoader@@@Z:
  00016	8b 54 24 08	 mov	 edx, DWORD PTR [esp+8]
  0001a	8d 42 0c	 lea	 eax, DWORD PTR [edx+12]
  0001d	8b 8a 54 f9 ff
	ff		 mov	 ecx, DWORD PTR [edx-1708]
  00023	33 c8		 xor	 ecx, eax
  00025	e8 00 00 00 00	 call	 @__security_check_cookie@4
  0002a	8b 4a fc	 mov	 ecx, DWORD PTR [edx-4]
  0002d	33 c8		 xor	 ecx, eax
  0002f	e8 00 00 00 00	 call	 @__security_check_cookie@4
  00034	b8 00 00 00 00	 mov	 eax, OFFSET __ehfuncinfo$?LoadProperty@ioCircleMoveAttackSkill@@UAEXAAVioINILoader@@@Z
  00039	e9 00 00 00 00	 jmp	 ___CxxFrameHandler3
text$x	ENDS
?LoadProperty@ioCircleMoveAttackSkill@@UAEXAAVioINILoader@@@Z ENDP ; ioCircleMoveAttackSkill::LoadProperty
PUBLIC	??0AttackAttribute@@QAE@XZ			; AttackAttribute::AttackAttribute
;	COMDAT xdata$x
; File c:\program files (x86)\microsoft visual studio 10.0\vc\include\xmemory
xdata$x	SEGMENT
__unwindtable$??0AttackAttribute@@QAE@XZ DD 0ffffffffH
	DD	FLAT:__unwindfunclet$??0AttackAttribute@@QAE@XZ$0
	DD	00H
	DD	FLAT:__unwindfunclet$??0AttackAttribute@@QAE@XZ$1
	DD	01H
	DD	FLAT:__unwindfunclet$??0AttackAttribute@@QAE@XZ$2
	DD	02H
	DD	FLAT:__unwindfunclet$??0AttackAttribute@@QAE@XZ$3
__ehfuncinfo$??0AttackAttribute@@QAE@XZ DD 019930522H
	DD	04H
	DD	FLAT:__unwindtable$??0AttackAttribute@@QAE@XZ
	DD	2 DUP(00H)
	DD	2 DUP(00H)
	DD	00H
	DD	01H
; Function compile flags: /Ogsp
; File d:\lost saga for developer\youtube\tutorial\source\src\lsclient\ioattackattribute.h
xdata$x	ENDS
;	COMDAT ??0AttackAttribute@@QAE@XZ
_TEXT	SEGMENT
_this$ = -16						; size = 4
__$EHRec$ = -12						; size = 12
??0AttackAttribute@@QAE@XZ PROC				; AttackAttribute::AttackAttribute, COMDAT
; _this$ = ecx

; 107  : 	AttackAttribute()

  00000	6a 04		 push	 4
  00002	b8 00 00 00 00	 mov	 eax, __ehhandler$??0AttackAttribute@@QAE@XZ
  00007	e8 00 00 00 00	 call	 __EH_prolog3
  0000c	8b f1		 mov	 esi, ecx
  0000e	89 75 f0	 mov	 DWORD PTR _this$[ebp], esi
  00011	8b 3d 00 00 00
	00		 mov	 edi, DWORD PTR __imp_??0ioHashString@@QAE@XZ
  00017	ff d7		 call	 edi
  00019	33 db		 xor	 ebx, ebx
  0001b	8d 4e 14	 lea	 ecx, DWORD PTR [esi+20]
  0001e	89 5d fc	 mov	 DWORD PTR __$EHRec$[ebp+8], ebx
  00021	ff d7		 call	 edi
  00023	89 5e 28	 mov	 DWORD PTR [esi+40], ebx
  00026	89 5e 2c	 mov	 DWORD PTR [esi+44], ebx
  00029	89 5e 30	 mov	 DWORD PTR [esi+48], ebx
  0002c	89 5e 38	 mov	 DWORD PTR [esi+56], ebx
  0002f	89 5e 3c	 mov	 DWORD PTR [esi+60], ebx
  00032	89 5e 40	 mov	 DWORD PTR [esi+64], ebx

; 108  : 	{
; 109  : 		Init();

  00035	8b ce		 mov	 ecx, esi
  00037	c6 45 fc 03	 mov	 BYTE PTR __$EHRec$[ebp+8], 3
  0003b	e8 00 00 00 00	 call	 ?Init@AttackAttribute@@QAEXXZ ; AttackAttribute::Init

; 110  : 	}

  00040	8b c6		 mov	 eax, esi
  00042	e8 00 00 00 00	 call	 __EH_epilog3
  00047	c3		 ret	 0
_TEXT	ENDS
;	COMDAT text$x
text$x	SEGMENT
__unwindfunclet$??0AttackAttribute@@QAE@XZ$0:
  00000	8b 4d f0	 mov	 ecx, DWORD PTR _this$[ebp]
  00003	ff 25 00 00 00
	00		 jmp	 DWORD PTR __imp_??1ioHashString@@QAE@XZ
__unwindfunclet$??0AttackAttribute@@QAE@XZ$1:
  00009	8b 4d f0	 mov	 ecx, DWORD PTR _this$[ebp]
  0000c	83 c1 14	 add	 ecx, 20			; 00000014H
  0000f	ff 25 00 00 00
	00		 jmp	 DWORD PTR __imp_??1ioHashString@@QAE@XZ
__unwindfunclet$??0AttackAttribute@@QAE@XZ$2:
  00015	8b 4d f0	 mov	 ecx, DWORD PTR _this$[ebp]
  00018	83 c1 28	 add	 ecx, 40			; 00000028H
  0001b	e9 00 00 00 00	 jmp	 ??1?$vector@UWeaponInfo@@V?$allocator@UWeaponInfo@@@std@@@std@@QAE@XZ ; std::vector<WeaponInfo,std::allocator<WeaponInfo> >::~vector<WeaponInfo,std::allocator<WeaponInfo> >
__unwindfunclet$??0AttackAttribute@@QAE@XZ$3:
  00020	8b 4d f0	 mov	 ecx, DWORD PTR _this$[ebp]
  00023	83 c1 38	 add	 ecx, 56			; 00000038H
  00026	e9 00 00 00 00	 jmp	 ??1?$vector@UForceInfo@@V?$allocator@UForceInfo@@@std@@@std@@QAE@XZ ; std::vector<ForceInfo,std::allocator<ForceInfo> >::~vector<ForceInfo,std::allocator<ForceInfo> >
__ehhandler$??0AttackAttribute@@QAE@XZ:
  0002b	8b 54 24 08	 mov	 edx, DWORD PTR [esp+8]
  0002f	8d 42 0c	 lea	 eax, DWORD PTR [edx+12]
  00032	8b 4a ec	 mov	 ecx, DWORD PTR [edx-20]
  00035	33 c8		 xor	 ecx, eax
  00037	e8 00 00 00 00	 call	 @__security_check_cookie@4
  0003c	b8 00 00 00 00	 mov	 eax, OFFSET __ehfuncinfo$??0AttackAttribute@@QAE@XZ
  00041	e9 00 00 00 00	 jmp	 ___CxxFrameHandler3
text$x	ENDS
??0AttackAttribute@@QAE@XZ ENDP				; AttackAttribute::AttackAttribute
PUBLIC	??1AttackAttribute@@QAE@XZ			; AttackAttribute::~AttackAttribute
;	COMDAT xdata$x
xdata$x	SEGMENT
__unwindtable$??1AttackAttribute@@QAE@XZ DD 0ffffffffH
	DD	FLAT:__unwindfunclet$??1AttackAttribute@@QAE@XZ$0
	DD	00H
	DD	FLAT:__unwindfunclet$??1AttackAttribute@@QAE@XZ$1
	DD	01H
	DD	FLAT:__unwindfunclet$??1AttackAttribute@@QAE@XZ$2
__ehfuncinfo$??1AttackAttribute@@QAE@XZ DD 019930522H
	DD	03H
	DD	FLAT:__unwindtable$??1AttackAttribute@@QAE@XZ
	DD	2 DUP(00H)
	DD	2 DUP(00H)
	DD	00H
	DD	01H
; Function compile flags: /Ogsp
xdata$x	ENDS
;	COMDAT ??1AttackAttribute@@QAE@XZ
_TEXT	SEGMENT
_this$ = -16						; size = 4
__$EHRec$ = -12						; size = 12
??1AttackAttribute@@QAE@XZ PROC				; AttackAttribute::~AttackAttribute, COMDAT
; _this$ = ecx
  00000	6a 04		 push	 4
  00002	b8 00 00 00 00	 mov	 eax, __ehhandler$??1AttackAttribute@@QAE@XZ
  00007	e8 00 00 00 00	 call	 __EH_prolog3
  0000c	8b f1		 mov	 esi, ecx
  0000e	89 75 f0	 mov	 DWORD PTR _this$[ebp], esi
  00011	8d 4e 38	 lea	 ecx, DWORD PTR [esi+56]
  00014	c7 45 fc 02 00
	00 00		 mov	 DWORD PTR __$EHRec$[ebp+8], 2
  0001b	e8 00 00 00 00	 call	 ?_Tidy@?$vector@UForceInfo@@V?$allocator@UForceInfo@@@std@@@std@@IAEXXZ ; std::vector<ForceInfo,std::allocator<ForceInfo> >::_Tidy
  00020	8d 4e 28	 lea	 ecx, DWORD PTR [esi+40]
  00023	c6 45 fc 01	 mov	 BYTE PTR __$EHRec$[ebp+8], 1
  00027	e8 00 00 00 00	 call	 ?_Tidy@?$vector@UWeaponInfo@@V?$allocator@UWeaponInfo@@@std@@@std@@IAEXXZ ; std::vector<WeaponInfo,std::allocator<WeaponInfo> >::_Tidy
  0002c	8b 3d 00 00 00
	00		 mov	 edi, DWORD PTR __imp_??1ioHashString@@QAE@XZ
  00032	8d 4e 14	 lea	 ecx, DWORD PTR [esi+20]
  00035	c6 45 fc 00	 mov	 BYTE PTR __$EHRec$[ebp+8], 0
  00039	ff d7		 call	 edi
  0003b	83 4d fc ff	 or	 DWORD PTR __$EHRec$[ebp+8], -1
  0003f	8b ce		 mov	 ecx, esi
  00041	ff d7		 call	 edi
  00043	e8 00 00 00 00	 call	 __EH_epilog3
  00048	c3		 ret	 0
_TEXT	ENDS
;	COMDAT text$x
text$x	SEGMENT
__unwindfunclet$??1AttackAttribute@@QAE@XZ$0:
  00000	8b 4d f0	 mov	 ecx, DWORD PTR _this$[ebp]
  00003	ff 25 00 00 00
	00		 jmp	 DWORD PTR __imp_??1ioHashString@@QAE@XZ
__unwindfunclet$??1AttackAttribute@@QAE@XZ$1:
  00009	8b 4d f0	 mov	 ecx, DWORD PTR _this$[ebp]
  0000c	83 c1 14	 add	 ecx, 20			; 00000014H
  0000f	ff 25 00 00 00
	00		 jmp	 DWORD PTR __imp_??1ioHashString@@QAE@XZ
__unwindfunclet$??1AttackAttribute@@QAE@XZ$2:
  00015	8b 4d f0	 mov	 ecx, DWORD PTR _this$[ebp]
  00018	83 c1 28	 add	 ecx, 40			; 00000028H
  0001b	e9 00 00 00 00	 jmp	 ??1?$vector@UWeaponInfo@@V?$allocator@UWeaponInfo@@@std@@@std@@QAE@XZ ; std::vector<WeaponInfo,std::allocator<WeaponInfo> >::~vector<WeaponInfo,std::allocator<WeaponInfo> >
__ehhandler$??1AttackAttribute@@QAE@XZ:
  00020	8b 54 24 08	 mov	 edx, DWORD PTR [esp+8]
  00024	8d 42 0c	 lea	 eax, DWORD PTR [edx+12]
  00027	8b 4a ec	 mov	 ecx, DWORD PTR [edx-20]
  0002a	33 c8		 xor	 ecx, eax
  0002c	e8 00 00 00 00	 call	 @__security_check_cookie@4
  00031	b8 00 00 00 00	 mov	 eax, OFFSET __ehfuncinfo$??1AttackAttribute@@QAE@XZ
  00036	e9 00 00 00 00	 jmp	 ___CxxFrameHandler3
text$x	ENDS
??1AttackAttribute@@QAE@XZ ENDP				; AttackAttribute::~AttackAttribute
PUBLIC	??_7ioCircleMoveAttackSkill@@6B@		; ioCircleMoveAttackSkill::`vftable'
PUBLIC	??0ioCircleMoveAttackSkill@@QAE@XZ		; ioCircleMoveAttackSkill::ioCircleMoveAttackSkill
PUBLIC	??_R4ioCircleMoveAttackSkill@@6B@		; ioCircleMoveAttackSkill::`RTTI Complete Object Locator'
PUBLIC	??_R0?AVioCircleMoveAttackSkill@@@8		; ioCircleMoveAttackSkill `RTTI Type Descriptor'
PUBLIC	??_R3ioCircleMoveAttackSkill@@8			; ioCircleMoveAttackSkill::`RTTI Class Hierarchy Descriptor'
PUBLIC	??_R2ioCircleMoveAttackSkill@@8			; ioCircleMoveAttackSkill::`RTTI Base Class Array'
PUBLIC	??_R1A@?0A@EA@ioCircleMoveAttackSkill@@8	; ioCircleMoveAttackSkill::`RTTI Base Class Descriptor at (0,-1,0,64)'
PUBLIC	??_R1A@?0A@EA@ioNormalSkill@@8			; ioNormalSkill::`RTTI Base Class Descriptor at (0,-1,0,64)'
PUBLIC	??_R0?AVioNormalSkill@@@8			; ioNormalSkill `RTTI Type Descriptor'
PUBLIC	??_R3ioNormalSkill@@8				; ioNormalSkill::`RTTI Class Hierarchy Descriptor'
PUBLIC	??_R2ioNormalSkill@@8				; ioNormalSkill::`RTTI Base Class Array'
PUBLIC	??_R1A@?0A@EA@ioSkill@@8			; ioSkill::`RTTI Base Class Descriptor at (0,-1,0,64)'
PUBLIC	??_R0?AVioSkill@@@8				; ioSkill `RTTI Type Descriptor'
PUBLIC	??_R3ioSkill@@8					; ioSkill::`RTTI Class Hierarchy Descriptor'
PUBLIC	??_R2ioSkill@@8					; ioSkill::`RTTI Base Class Array'
PUBLIC	?Clone@ioCircleMoveAttackSkill@@UAEPAVioSkill@@XZ ; ioCircleMoveAttackSkill::Clone
PUBLIC	?GetDefenseSkillBreakeType@ioSkill@@UBE?AW4DefenseBreakType@@XZ ; ioSkill::GetDefenseSkillBreakeType
PUBLIC	?GetSkillEndNextJumpAmt@ioSkill@@UBEMXZ		; ioSkill::GetSkillEndNextJumpAmt
PUBLIC	?GetSkillEndNextLandRate@ioSkill@@UBEMXZ	; ioSkill::GetSkillEndNextLandRate
PUBLIC	?GetSkillEndNextJumpMustEnable@ioSkill@@UAE?AW4SkillEndJumpType@@XZ ; ioSkill::GetSkillEndNextJumpMustEnable
PUBLIC	?EnableChangeGrapplingTargetPos@ioSkill@@UBE_NXZ ; ioSkill::EnableChangeGrapplingTargetPos
PUBLIC	?IsInvisibleBottomCircle@ioSkill@@UAE_NPAVioBaseChar@@@Z ; ioSkill::IsInvisibleBottomCircle
PUBLIC	?IsCanJumpingSkill@ioSkill@@UBE_NXZ		; ioSkill::IsCanJumpingSkill
PUBLIC	?IsCanJumpingSkillOnBlowWound@ioSkill@@UBE_NXZ	; ioSkill::IsCanJumpingSkillOnBlowWound
PUBLIC	?IsCanDownSkill@ioSkill@@UBE_NXZ		; ioSkill::IsCanDownSkill
PUBLIC	?IsCanBlowWoundSkill@ioSkill@@UBE_NXZ		; ioSkill::IsCanBlowWoundSkill
PUBLIC	?IsCanWoundSkill@ioSkill@@UBE_NXZ		; ioSkill::IsCanWoundSkill
PUBLIC	?IsUseActiveCnt@ioSkill@@UBE_NXZ		; ioSkill::IsUseActiveCnt
PUBLIC	?GetMaxActiveCnt@ioSkill@@UBEHPAVioBaseChar@@@Z	; ioSkill::GetMaxActiveCnt
PUBLIC	?GetCurActiveCnt@ioSkill@@UBEHPAVioBaseChar@@@Z	; ioSkill::GetCurActiveCnt
EXTRN	??1ioNormalSkill@@UAE@XZ:PROC			; ioNormalSkill::~ioNormalSkill
EXTRN	??0ioNormalSkill@@QAE@XZ:PROC			; ioNormalSkill::ioNormalSkill
EXTRN	?GetTypeID@ioNormalSkill@@UBEHXZ:PROC		; ioNormalSkill::GetTypeID
EXTRN	?IsCanSwitchSkill@ioSkill@@UBE_NXZ:PROC		; ioSkill::IsCanSwitchSkill
EXTRN	?IsCanSemiSwitchSkill@ioSkill@@UBE_NXZ:PROC	; ioSkill::IsCanSemiSwitchSkill
EXTRN	?IsCanCancelBySkill@ioSkill@@UBE_NPAVioBaseChar@@AAH@Z:PROC ; ioSkill::IsCanCancelBySkill
EXTRN	?IsCanUseZeroHP@ioSkill@@UBE_NPAVioBaseChar@@@Z:PROC ; ioSkill::IsCanUseZeroHP
EXTRN	?IsCanUseSkillWithCrown@ioSkill@@UAE_NPAVioBaseChar@@@Z:PROC ; ioSkill::IsCanUseSkillWithCrown
EXTRN	?IsCanUseBoss@ioSkill@@UBE_NPAVioBaseChar@@@Z:PROC ; ioSkill::IsCanUseBoss
EXTRN	?IsCanUseFootball@ioSkill@@UBE_NXZ:PROC		; ioSkill::IsCanUseFootball
EXTRN	?IsCanUseGangSiMode@ioSkill@@UBE_NXZ:PROC	; ioSkill::IsCanUseGangSiMode
EXTRN	?IsCanUseByWeaponType@ioSkill@@UBE_NPAVioBaseChar@@@Z:PROC ; ioSkill::IsCanUseByWeaponType
EXTRN	?IsCanUseThunderBirdHold@ioSkill@@UBE_NPAVioBaseChar@@@Z:PROC ; ioSkill::IsCanUseThunderBirdHold
EXTRN	?IsCanUseLimitHP@ioSkill@@UBE_NPAVioBaseChar@@@Z:PROC ; ioSkill::IsCanUseLimitHP
EXTRN	?IsCanUseSkill@ioNormalSkill@@UAE_NPAVioBaseChar@@_N@Z:PROC ; ioNormalSkill::IsCanUseSkill
EXTRN	?IsOnOffEnable@ioSkill@@UAE_NXZ:PROC		; ioSkill::IsOnOffEnable
EXTRN	?IsCanDefenseStateSkill@ioSkill@@UAE_NXZ:PROC	; ioSkill::IsCanDefenseStateSkill
EXTRN	?SetDefenseStateSkill@ioSkill@@UAEXPAVioBaseChar@@@Z:PROC ; ioSkill::SetDefenseStateSkill
EXTRN	?HasBuff@ioSkill@@UBE_NH@Z:PROC			; ioSkill::HasBuff
EXTRN	?GetBuffType@ioSkill@@UAEHH@Z:PROC		; ioSkill::GetBuffType
EXTRN	?IsEnableReserve@ioSkill@@UBE_NXZ:PROC		; ioSkill::IsEnableReserve
EXTRN	?IsEntityCollisionSkipState@ioSkill@@UBE_NXZ:PROC ; ioSkill::IsEntityCollisionSkipState
EXTRN	?IsAttackEndState@ioNormalSkill@@UBE_NXZ:PROC	; ioNormalSkill::IsAttackEndState
EXTRN	?IsJumpState@ioSkill@@UBE_NXZ:PROC		; ioSkill::IsJumpState
EXTRN	?IsDownState@ioSkill@@UBE_NXZ:PROC		; ioSkill::IsDownState
EXTRN	?IsNoDropState@ioSkill@@UBE_NXZ:PROC		; ioSkill::IsNoDropState
EXTRN	?IsCanSendControl@ioSkill@@UBE_NXZ:PROC		; ioSkill::IsCanSendControl
EXTRN	?IsSkipState@ioSkill@@UBE_NXZ:PROC		; ioSkill::IsSkipState
EXTRN	?GetSkillMoveRate@ioSkill@@UBEMXZ:PROC		; ioSkill::GetSkillMoveRate
EXTRN	?SetSkillGrapplingState@ioSkill@@UAE_NPAVioBaseChar@@ABVioHashString@@@Z:PROC ; ioSkill::SetSkillGrapplingState
EXTRN	?GetGrapplingTargetPos@ioSkill@@UAE?AUD3DXVECTOR3@@PAVioBaseChar@@0@Z:PROC ; ioSkill::GetGrapplingTargetPos
EXTRN	?GetGrapplingTargetPos@ioSkill@@UAE?AUD3DXVECTOR3@@PAVioBaseChar@@@Z:PROC ; ioSkill::GetGrapplingTargetPos
EXTRN	?GetSkillWoundGrapplingInfo@ioSkill@@UAE?AUGrapplingSkillWoundedInfo@@XZ:PROC ; ioSkill::GetSkillWoundGrapplingInfo
EXTRN	?SetCreateWeaponDependency@ioSkill@@UAEXPAVioBaseChar@@PAVioPlayStage@@@Z:PROC ; ioSkill::SetCreateWeaponDependency
EXTRN	?SetNextSkillState@ioSkill@@UAEXPAVioBaseChar@@PAVioWeapon@@@Z:PROC ; ioSkill::SetNextSkillState
EXTRN	?OnSkillEndByWounded@ioSkill@@UAEXPAVioBaseChar@@@Z:PROC ; ioSkill::OnSkillEndByWounded
EXTRN	?OnProcessNotUseSkill@ioSkill@@UAEXPAVioBaseChar@@PAVioPlayStage@@@Z:PROC ; ioSkill::OnProcessNotUseSkill
EXTRN	?OnSkillItemRelease@ioSkill@@UAEXPAVioBaseChar@@@Z:PROC ; ioSkill::OnSkillItemRelease
EXTRN	?ApplyEquipSlotSkillExtraInfo@ioSkill@@UAEXPAVioBaseChar@@PAVioPlayStage@@AAVSP2Packet@@@Z:PROC ; ioSkill::ApplyEquipSlotSkillExtraInfo
EXTRN	?ApplyExtraPassiveSkillInfo@ioSkill@@UAEXPAVioBaseChar@@PAVioPlayStage@@AAVSP2Packet@@@Z:PROC ; ioSkill::ApplyExtraPassiveSkillInfo
EXTRN	?StartPreDelayEffect@ioNormalSkill@@UAEXPAVioBaseChar@@@Z:PROC ; ioNormalSkill::StartPreDelayEffect
EXTRN	?EndPreDelayEffect@ioNormalSkill@@UAEXPAVioBaseChar@@@Z:PROC ; ioNormalSkill::EndPreDelayEffect
EXTRN	?IsUseAutoTargetValue@ioSkill@@UAE_NXZ:PROC	; ioSkill::IsUseAutoTargetValue
EXTRN	?IsAutoTargetDownState@ioSkill@@UAE_NXZ:PROC	; ioSkill::IsAutoTargetDownState
EXTRN	?CheckUseBuff@ioSkill@@UAE_NPAVioBaseChar@@@Z:PROC ; ioSkill::CheckUseBuff
EXTRN	?CheckUseActiveCount@ioSkill@@UAE_NXZ:PROC	; ioSkill::CheckUseActiveCount
EXTRN	?CheckAniRotate@ioSkill@@UAEXPAVioBaseChar@@@Z:PROC ; ioSkill::CheckAniRotate
EXTRN	?IsEnableDashCheck@ioSkill@@UAE_NPAVioBaseChar@@@Z:PROC ; ioSkill::IsEnableDashCheck
EXTRN	?IsEnableMultiActive@ioSkill@@UAE_NPAVioBaseChar@@@Z:PROC ; ioSkill::IsEnableMultiActive
EXTRN	?GetAutoTargetValue@ioSkill@@UAEXAAM00@Z:PROC	; ioSkill::GetAutoTargetValue
EXTRN	?GetSkillGravityRate@ioSkill@@UAEMXZ:PROC	; ioSkill::GetSkillGravityRate
EXTRN	?GetSkillMotionName@ioSkill@@UBEABVioHashString@@XZ:PROC ; ioSkill::GetSkillMotionName
EXTRN	?HasSkillMotion@ioSkill@@UBE_NXZ:PROC		; ioSkill::HasSkillMotion
EXTRN	?GetSkillMotionRate@ioSkill@@UBEMXZ:PROC	; ioSkill::GetSkillMotionRate
EXTRN	?IsPreDelayProtect@ioSkill@@UBE_NXZ:PROC	; ioSkill::IsPreDelayProtect
EXTRN	?GetPreDelayAniName@ioSkill@@UBEABVioHashString@@XZ:PROC ; ioSkill::GetPreDelayAniName
EXTRN	?GetPreDelayTime@ioSkill@@UBEKXZ:PROC		; ioSkill::GetPreDelayTime
EXTRN	?GetPreDelayOwnerEffect@ioSkill@@UBEABVioHashString@@XZ:PROC ; ioSkill::GetPreDelayOwnerEffect
EXTRN	?GetPreDelayOtherEffect@ioSkill@@UBEABVioHashString@@XZ:PROC ; ioSkill::GetPreDelayOtherEffect
EXTRN	?SetCancelSkill@ioSkill@@UAEXPAVioBaseChar@@@Z:PROC ; ioSkill::SetCancelSkill
EXTRN	?ClearAirJump@ioSkill@@MAEXXZ:PROC		; ioSkill::ClearAirJump
EXTRN	?SetAirJump@ioSkill@@MAEXPAVioBaseChar@@HM@Z:PROC ; ioSkill::SetAirJump
EXTRN	?CheckAirJump@ioSkill@@MAEXPAVioBaseChar@@@Z:PROC ; ioSkill::CheckAirJump
EXTRN	?UseActiveCount@ioSkill@@UAE_NPAVioBaseChar@@@Z:PROC ; ioSkill::UseActiveCount
EXTRN	?GetMaxActiveCount@ioSkill@@UAEHPAVioBaseChar@@@Z:PROC ; ioSkill::GetMaxActiveCount
EXTRN	?GetCurActiveCount@ioSkill@@UAEHPAVioBaseChar@@@Z:PROC ; ioSkill::GetCurActiveCount
EXTRN	?HideHPGauge@ioSkill@@UAE_NXZ:PROC		; ioSkill::HideHPGauge
EXTRN	?SetInfoByApplyWeapon@ioSkill@@UAEXPAVioBaseChar@@0K_N@Z:PROC ; ioSkill::SetInfoByApplyWeapon
EXTRN	?SetCollisionByApplySkill@ioSkill@@UAEXXZ:PROC	; ioSkill::SetCollisionByApplySkill
EXTRN	?SetChargingRateForWeapon@ioSkill@@UAEXPAVioWeapon@@@Z:PROC ; ioSkill::SetChargingRateForWeapon
EXTRN	?CheckExceptionCamera@ioSkill@@UAE_NXZ:PROC	; ioSkill::CheckExceptionCamera
EXTRN	?GetExceptionCameraPos@ioSkill@@UAE?AUD3DXVECTOR3@@PAVioBaseChar@@@Z:PROC ; ioSkill::GetExceptionCameraPos
EXTRN	?IsFixedExceptionCamera@ioSkill@@UAE_NXZ:PROC	; ioSkill::IsFixedExceptionCamera
EXTRN	??_EioCircleMoveAttackSkill@@UAEPAXI@Z:PROC	; ioCircleMoveAttackSkill::`vector deleting destructor'
;	COMDAT ??_R2ioSkill@@8
; File d:\lost saga for developer\youtube\tutorial\source\src\lsclient\encryptvalue.h
rdata$r	SEGMENT
??_R2ioSkill@@8 DD FLAT:??_R1A@?0A@EA@ioSkill@@8	; ioSkill::`RTTI Base Class Array'
rdata$r	ENDS
;	COMDAT ??_R3ioSkill@@8
rdata$r	SEGMENT
??_R3ioSkill@@8 DD 00H					; ioSkill::`RTTI Class Hierarchy Descriptor'
	DD	00H
	DD	01H
	DD	FLAT:??_R2ioSkill@@8
rdata$r	ENDS
;	COMDAT ??_R0?AVioSkill@@@8
_DATA	SEGMENT
??_R0?AVioSkill@@@8 DD FLAT:??_7type_info@@6B@		; ioSkill `RTTI Type Descriptor'
	DD	00H
	DB	'.?AVioSkill@@', 00H
_DATA	ENDS
;	COMDAT ??_R1A@?0A@EA@ioSkill@@8
rdata$r	SEGMENT
??_R1A@?0A@EA@ioSkill@@8 DD FLAT:??_R0?AVioSkill@@@8	; ioSkill::`RTTI Base Class Descriptor at (0,-1,0,64)'
	DD	00H
	DD	00H
	DD	0ffffffffH
	DD	00H
	DD	040H
	DD	FLAT:??_R3ioSkill@@8
rdata$r	ENDS
;	COMDAT ??_R2ioNormalSkill@@8
rdata$r	SEGMENT
??_R2ioNormalSkill@@8 DD FLAT:??_R1A@?0A@EA@ioNormalSkill@@8 ; ioNormalSkill::`RTTI Base Class Array'
	DD	FLAT:??_R1A@?0A@EA@ioSkill@@8
rdata$r	ENDS
;	COMDAT ??_R3ioNormalSkill@@8
rdata$r	SEGMENT
??_R3ioNormalSkill@@8 DD 00H				; ioNormalSkill::`RTTI Class Hierarchy Descriptor'
	DD	00H
	DD	02H
	DD	FLAT:??_R2ioNormalSkill@@8
rdata$r	ENDS
;	COMDAT ??_R0?AVioNormalSkill@@@8
_DATA	SEGMENT
??_R0?AVioNormalSkill@@@8 DD FLAT:??_7type_info@@6B@	; ioNormalSkill `RTTI Type Descriptor'
	DD	00H
	DB	'.?AVioNormalSkill@@', 00H
_DATA	ENDS
;	COMDAT ??_R1A@?0A@EA@ioNormalSkill@@8
rdata$r	SEGMENT
??_R1A@?0A@EA@ioNormalSkill@@8 DD FLAT:??_R0?AVioNormalSkill@@@8 ; ioNormalSkill::`RTTI Base Class Descriptor at (0,-1,0,64)'
	DD	01H
	DD	00H
	DD	0ffffffffH
	DD	00H
	DD	040H
	DD	FLAT:??_R3ioNormalSkill@@8
rdata$r	ENDS
;	COMDAT ??_R1A@?0A@EA@ioCircleMoveAttackSkill@@8
rdata$r	SEGMENT
??_R1A@?0A@EA@ioCircleMoveAttackSkill@@8 DD FLAT:??_R0?AVioCircleMoveAttackSkill@@@8 ; ioCircleMoveAttackSkill::`RTTI Base Class Descriptor at (0,-1,0,64)'
	DD	02H
	DD	00H
	DD	0ffffffffH
	DD	00H
	DD	040H
	DD	FLAT:??_R3ioCircleMoveAttackSkill@@8
rdata$r	ENDS
;	COMDAT ??_R2ioCircleMoveAttackSkill@@8
rdata$r	SEGMENT
??_R2ioCircleMoveAttackSkill@@8 DD FLAT:??_R1A@?0A@EA@ioCircleMoveAttackSkill@@8 ; ioCircleMoveAttackSkill::`RTTI Base Class Array'
	DD	FLAT:??_R1A@?0A@EA@ioNormalSkill@@8
	DD	FLAT:??_R1A@?0A@EA@ioSkill@@8
rdata$r	ENDS
;	COMDAT ??_R3ioCircleMoveAttackSkill@@8
rdata$r	SEGMENT
??_R3ioCircleMoveAttackSkill@@8 DD 00H			; ioCircleMoveAttackSkill::`RTTI Class Hierarchy Descriptor'
	DD	00H
	DD	03H
	DD	FLAT:??_R2ioCircleMoveAttackSkill@@8
rdata$r	ENDS
;	COMDAT ??_R0?AVioCircleMoveAttackSkill@@@8
_DATA	SEGMENT
??_R0?AVioCircleMoveAttackSkill@@@8 DD FLAT:??_7type_info@@6B@ ; ioCircleMoveAttackSkill `RTTI Type Descriptor'
	DD	00H
	DB	'.?AVioCircleMoveAttackSkill@@', 00H
_DATA	ENDS
;	COMDAT ??_R4ioCircleMoveAttackSkill@@6B@
rdata$r	SEGMENT
??_R4ioCircleMoveAttackSkill@@6B@ DD 00H		; ioCircleMoveAttackSkill::`RTTI Complete Object Locator'
	DD	00H
	DD	00H
	DD	FLAT:??_R0?AVioCircleMoveAttackSkill@@@8
	DD	FLAT:??_R3ioCircleMoveAttackSkill@@8
rdata$r	ENDS
;	COMDAT ??_7ioCircleMoveAttackSkill@@6B@
CONST	SEGMENT
??_7ioCircleMoveAttackSkill@@6B@ DD FLAT:??_R4ioCircleMoveAttackSkill@@6B@ ; ioCircleMoveAttackSkill::`vftable'
	DD	FLAT:?LoadProperty@ioCircleMoveAttackSkill@@UAEXAAVioINILoader@@@Z
	DD	FLAT:?Clone@ioCircleMoveAttackSkill@@UAEPAVioSkill@@XZ
	DD	FLAT:?GetTypeID@ioNormalSkill@@UBEHXZ
	DD	FLAT:?IsProtected@ioCircleMoveAttackSkill@@UBE_NH@Z
	DD	FLAT:?IsCanSwitchSkill@ioSkill@@UBE_NXZ
	DD	FLAT:?IsCanSemiSwitchSkill@ioSkill@@UBE_NXZ
	DD	FLAT:?IsCanCancelBySkill@ioSkill@@UBE_NPAVioBaseChar@@AAH@Z
	DD	FLAT:?IsCanUseZeroHP@ioSkill@@UBE_NPAVioBaseChar@@@Z
	DD	FLAT:?IsCanUseSkillWithCrown@ioSkill@@UAE_NPAVioBaseChar@@@Z
	DD	FLAT:?IsCanUseBoss@ioSkill@@UBE_NPAVioBaseChar@@@Z
	DD	FLAT:?IsCanUseFootball@ioSkill@@UBE_NXZ
	DD	FLAT:?IsCanUseGangSiMode@ioSkill@@UBE_NXZ
	DD	FLAT:?IsCanUseByWeaponType@ioSkill@@UBE_NPAVioBaseChar@@@Z
	DD	FLAT:?IsCanUseThunderBirdHold@ioSkill@@UBE_NPAVioBaseChar@@@Z
	DD	FLAT:?IsCanUseLimitHP@ioSkill@@UBE_NPAVioBaseChar@@@Z
	DD	FLAT:?IsCanUseSkill@ioNormalSkill@@UAE_NPAVioBaseChar@@_N@Z
	DD	FLAT:?IsOnOffEnable@ioSkill@@UAE_NXZ
	DD	FLAT:?IsCanDefenseStateSkill@ioSkill@@UAE_NXZ
	DD	FLAT:?SetDefenseStateSkill@ioSkill@@UAEXPAVioBaseChar@@@Z
	DD	FLAT:?GetDefenseSkillBreakeType@ioSkill@@UBE?AW4DefenseBreakType@@XZ
	DD	FLAT:?HasBuff@ioSkill@@UBE_NH@Z
	DD	FLAT:?GetBuffType@ioSkill@@UAEHH@Z
	DD	FLAT:?IsEnableReserve@ioSkill@@UBE_NXZ
	DD	FLAT:?IsSkillMotionEnd@ioCircleMoveAttackSkill@@UBE_NKPAVioBaseChar@@@Z
	DD	FLAT:?IsCharSkipState@ioCircleMoveAttackSkill@@UBE?AW4SkillCharColType@@XZ
	DD	FLAT:?IsEntityCollisionSkipState@ioSkill@@UBE_NXZ
	DD	FLAT:?GetSkillEndNextJumpAmt@ioSkill@@UBEMXZ
	DD	FLAT:?GetSkillEndNextLandRate@ioSkill@@UBEMXZ
	DD	FLAT:?GetSkillEndNextJumpMustEnable@ioSkill@@UAE?AW4SkillEndJumpType@@XZ
	DD	FLAT:?IsEndState@ioCircleMoveAttackSkill@@UBE_NXZ
	DD	FLAT:?IsAttackEndState@ioNormalSkill@@UBE_NXZ
	DD	FLAT:?IsJumpState@ioSkill@@UBE_NXZ
	DD	FLAT:?IsDownState@ioSkill@@UBE_NXZ
	DD	FLAT:?IsNoDropState@ioSkill@@UBE_NXZ
	DD	FLAT:?IsCanSendControl@ioSkill@@UBE_NXZ
	DD	FLAT:?IsSkipState@ioSkill@@UBE_NXZ
	DD	FLAT:?GetSkillMoveRate@ioSkill@@UBEMXZ
	DD	FLAT:?SetSkillGrapplingState@ioSkill@@UAE_NPAVioBaseChar@@ABVioHashString@@@Z
	DD	FLAT:?GetGrapplingTargetPos@ioSkill@@UAE?AUD3DXVECTOR3@@PAVioBaseChar@@0@Z
	DD	FLAT:?GetGrapplingTargetPos@ioSkill@@UAE?AUD3DXVECTOR3@@PAVioBaseChar@@@Z
	DD	FLAT:?EnableChangeGrapplingTargetPos@ioSkill@@UBE_NXZ
	DD	FLAT:?GetSkillWoundGrapplingInfo@ioSkill@@UAE?AUGrapplingSkillWoundedInfo@@XZ
	DD	FLAT:?SetCreateWeaponDependency@ioSkill@@UAEXPAVioBaseChar@@PAVioPlayStage@@@Z
	DD	FLAT:?SetNextSkillState@ioSkill@@UAEXPAVioBaseChar@@PAVioWeapon@@@Z
	DD	FLAT:?OnSkillStart@ioCircleMoveAttackSkill@@UAE_NPAVioBaseChar@@@Z
	DD	FLAT:?OnProcessState@ioCircleMoveAttackSkill@@UAEXPAVioBaseChar@@PAVioPlayStage@@@Z
	DD	FLAT:?OnSkillEndByWounded@ioSkill@@UAEXPAVioBaseChar@@@Z
	DD	FLAT:?OnSkillEnd@ioCircleMoveAttackSkill@@UAEXPAVioBaseChar@@@Z
	DD	FLAT:?OnProcessNotUseSkill@ioSkill@@UAEXPAVioBaseChar@@PAVioPlayStage@@@Z
	DD	FLAT:?OnSkillItemRelease@ioSkill@@UAEXPAVioBaseChar@@@Z
	DD	FLAT:?ApplyAttributeToWeapon@ioCircleMoveAttackSkill@@UAEXPAVioWeapon@@PAVioPlayStage@@@Z
	DD	FLAT:?ApplyExtraSkillInfo@ioCircleMoveAttackSkill@@UAEXPAVioBaseChar@@PAVioPlayStage@@AAVSP2Packet@@@Z
	DD	FLAT:?ApplyEquipSlotSkillExtraInfo@ioSkill@@UAEXPAVioBaseChar@@PAVioPlayStage@@AAVSP2Packet@@@Z
	DD	FLAT:?ApplyExtraPassiveSkillInfo@ioSkill@@UAEXPAVioBaseChar@@PAVioPlayStage@@AAVSP2Packet@@@Z
	DD	FLAT:?StartPreDelayEffect@ioNormalSkill@@UAEXPAVioBaseChar@@@Z
	DD	FLAT:?EndPreDelayEffect@ioNormalSkill@@UAEXPAVioBaseChar@@@Z
	DD	FLAT:?IsUseAutoTargetValue@ioSkill@@UAE_NXZ
	DD	FLAT:?IsAutoTargetDownState@ioSkill@@UAE_NXZ
	DD	FLAT:?CheckUseBuff@ioSkill@@UAE_NPAVioBaseChar@@@Z
	DD	FLAT:?CheckUseItemMesh@ioCircleMoveAttackSkill@@UAE_NXZ
	DD	FLAT:?CheckUseActiveCount@ioSkill@@UAE_NXZ
	DD	FLAT:?CheckAniRotate@ioSkill@@UAEXPAVioBaseChar@@@Z
	DD	FLAT:?IsEnableDashCheck@ioSkill@@UAE_NPAVioBaseChar@@@Z
	DD	FLAT:?IsEnableMultiActive@ioSkill@@UAE_NPAVioBaseChar@@@Z
	DD	FLAT:?IsInvisibleBottomCircle@ioSkill@@UAE_NPAVioBaseChar@@@Z
	DD	FLAT:?GetAutoTargetValue@ioSkill@@UAEXAAM00@Z
	DD	FLAT:?IsCanJumpingSkill@ioSkill@@UBE_NXZ
	DD	FLAT:?IsCanJumpingSkillOnBlowWound@ioSkill@@UBE_NXZ
	DD	FLAT:?IsCanDownSkill@ioSkill@@UBE_NXZ
	DD	FLAT:?IsCanBlowWoundSkill@ioSkill@@UBE_NXZ
	DD	FLAT:?IsCanWoundSkill@ioSkill@@UBE_NXZ
	DD	FLAT:?GetSkillGravityRate@ioSkill@@UAEMXZ
	DD	FLAT:?GetSkillMotionName@ioSkill@@UBEABVioHashString@@XZ
	DD	FLAT:?HasSkillMotion@ioSkill@@UBE_NXZ
	DD	FLAT:?GetSkillMotionRate@ioSkill@@UBEMXZ
	DD	FLAT:?IsPreDelayProtect@ioSkill@@UBE_NXZ
	DD	FLAT:?GetPreDelayAniName@ioSkill@@UBEABVioHashString@@XZ
	DD	FLAT:?GetPreDelayTime@ioSkill@@UBEKXZ
	DD	FLAT:?GetPreDelayOwnerEffect@ioSkill@@UBEABVioHashString@@XZ
	DD	FLAT:?GetPreDelayOtherEffect@ioSkill@@UBEABVioHashString@@XZ
	DD	FLAT:?SetCancelSkill@ioSkill@@UAEXPAVioBaseChar@@@Z
	DD	FLAT:?ClearAirJump@ioSkill@@MAEXXZ
	DD	FLAT:?SetAirJump@ioSkill@@MAEXPAVioBaseChar@@HM@Z
	DD	FLAT:?CheckAirJump@ioSkill@@MAEXPAVioBaseChar@@@Z
	DD	FLAT:?UseActiveCount@ioSkill@@UAE_NPAVioBaseChar@@@Z
	DD	FLAT:?GetMaxActiveCount@ioSkill@@UAEHPAVioBaseChar@@@Z
	DD	FLAT:?GetCurActiveCount@ioSkill@@UAEHPAVioBaseChar@@@Z
	DD	FLAT:?HideHPGauge@ioSkill@@UAE_NXZ
	DD	FLAT:?SetInfoByApplyWeapon@ioSkill@@UAEXPAVioBaseChar@@0K_N@Z
	DD	FLAT:?SetCollisionByApplySkill@ioSkill@@UAEXXZ
	DD	FLAT:?SetChargingRateForWeapon@ioSkill@@UAEXPAVioWeapon@@@Z
	DD	FLAT:?CheckExceptionCamera@ioSkill@@UAE_NXZ
	DD	FLAT:?GetExceptionCameraPos@ioSkill@@UAE?AUD3DXVECTOR3@@PAVioBaseChar@@@Z
	DD	FLAT:?IsFixedExceptionCamera@ioSkill@@UAE_NXZ
	DD	FLAT:?IsUseActiveCnt@ioSkill@@UBE_NXZ
	DD	FLAT:?GetMaxActiveCnt@ioSkill@@UBEHPAVioBaseChar@@@Z
	DD	FLAT:?GetCurActiveCnt@ioSkill@@UBEHPAVioBaseChar@@@Z
	DD	FLAT:??_EioCircleMoveAttackSkill@@UAEPAXI@Z
	DD	FLAT:?StartPreDelayAnimation@ioCircleMoveAttackSkill@@MAE_NPAVioBaseChar@@@Z
	DD	FLAT:?SetNormalSkill@ioCircleMoveAttackSkill@@MAEXPAVioBaseChar@@@Z
CONST	ENDS
;	COMDAT xdata$x
xdata$x	SEGMENT
__ehfuncinfo$??0ioCircleMoveAttackSkill@@QAE@XZ DD 019930522H
	DD	0cH
	DD	FLAT:__unwindtable$??0ioCircleMoveAttackSkill@@QAE@XZ
	DD	2 DUP(00H)
	DD	2 DUP(00H)
	DD	00H
	DD	01H
__unwindtable$??0ioCircleMoveAttackSkill@@QAE@XZ DD 0ffffffffH
	DD	FLAT:__unwindfunclet$??0ioCircleMoveAttackSkill@@QAE@XZ$0
	DD	00H
	DD	FLAT:__unwindfunclet$??0ioCircleMoveAttackSkill@@QAE@XZ$1
	DD	01H
	DD	FLAT:__unwindfunclet$??0ioCircleMoveAttackSkill@@QAE@XZ$2
	DD	02H
	DD	FLAT:__unwindfunclet$??0ioCircleMoveAttackSkill@@QAE@XZ$3
	DD	03H
	DD	FLAT:__unwindfunclet$??0ioCircleMoveAttackSkill@@QAE@XZ$4
	DD	04H
	DD	FLAT:__unwindfunclet$??0ioCircleMoveAttackSkill@@QAE@XZ$5
	DD	05H
	DD	FLAT:__unwindfunclet$??0ioCircleMoveAttackSkill@@QAE@XZ$6
	DD	06H
	DD	FLAT:__unwindfunclet$??0ioCircleMoveAttackSkill@@QAE@XZ$7
	DD	07H
	DD	FLAT:__unwindfunclet$??0ioCircleMoveAttackSkill@@QAE@XZ$8
	DD	08H
	DD	FLAT:__unwindfunclet$??0ioCircleMoveAttackSkill@@QAE@XZ$9
	DD	09H
	DD	FLAT:__unwindfunclet$??0ioCircleMoveAttackSkill@@QAE@XZ$10
	DD	0aH
	DD	FLAT:__unwindfunclet$??0ioCircleMoveAttackSkill@@QAE@XZ$11
; Function compile flags: /Ogsp
; File d:\lost saga for developer\youtube\tutorial\source\src\lsclient\iocirclemoveattackskill.cpp
xdata$x	ENDS
;	COMDAT ??0ioCircleMoveAttackSkill@@QAE@XZ
_TEXT	SEGMENT
_this$ = -20						; size = 4
_value$563688 = -16					; size = 4
__$EHRec$ = -12						; size = 12
??0ioCircleMoveAttackSkill@@QAE@XZ PROC			; ioCircleMoveAttackSkill::ioCircleMoveAttackSkill, COMDAT
; _this$ = ecx

; 14   : {

  00000	6a 08		 push	 8
  00002	b8 00 00 00 00	 mov	 eax, __ehhandler$??0ioCircleMoveAttackSkill@@QAE@XZ
  00007	e8 00 00 00 00	 call	 __EH_prolog3
  0000c	8b f1		 mov	 esi, ecx
  0000e	89 75 ec	 mov	 DWORD PTR _this$[ebp], esi
  00011	e8 00 00 00 00	 call	 ??0ioNormalSkill@@QAE@XZ ; ioNormalSkill::ioNormalSkill
  00016	33 db		 xor	 ebx, ebx
  00018	8d 8e 58 0f 00
	00		 lea	 ecx, DWORD PTR [esi+3928]
  0001e	89 5d fc	 mov	 DWORD PTR __$EHRec$[ebp+8], ebx
  00021	c7 06 00 00 00
	00		 mov	 DWORD PTR [esi], OFFSET ??_7ioCircleMoveAttackSkill@@6B@
  00027	e8 00 00 00 00	 call	 ??0?$CEncrypt@H@@QAE@XZ	; CEncrypt<int>::CEncrypt<int>
  0002c	8d 8e 8c 0f 00
	00		 lea	 ecx, DWORD PTR [esi+3980]
  00032	c6 45 fc 01	 mov	 BYTE PTR __$EHRec$[ebp+8], 1
  00036	e8 00 00 00 00	 call	 ??0AttackAttribute@@QAE@XZ ; AttackAttribute::AttackAttribute
  0003b	8d 8e dc 0f 00
	00		 lea	 ecx, DWORD PTR [esi+4060]
  00041	c6 45 fc 02	 mov	 BYTE PTR __$EHRec$[ebp+8], 2
  00045	e8 00 00 00 00	 call	 ??0AttackAttribute@@QAE@XZ ; AttackAttribute::AttackAttribute
  0004a	8b 3d 00 00 00
	00		 mov	 edi, DWORD PTR __imp_??0ioHashString@@QAE@XZ
  00050	8d 8e 60 10 00
	00		 lea	 ecx, DWORD PTR [esi+4192]
  00056	c6 45 fc 03	 mov	 BYTE PTR __$EHRec$[ebp+8], 3
  0005a	ff d7		 call	 edi
  0005c	8d 8e 70 10 00
	00		 lea	 ecx, DWORD PTR [esi+4208]
  00062	c6 45 fc 04	 mov	 BYTE PTR __$EHRec$[ebp+8], 4
  00066	ff d7		 call	 edi
  00068	8d 8e 80 10 00
	00		 lea	 ecx, DWORD PTR [esi+4224]
  0006e	c6 45 fc 05	 mov	 BYTE PTR __$EHRec$[ebp+8], 5
  00072	ff d7		 call	 edi
  00074	8d 8e 90 10 00
	00		 lea	 ecx, DWORD PTR [esi+4240]
  0007a	c6 45 fc 06	 mov	 BYTE PTR __$EHRec$[ebp+8], 6
  0007e	ff d7		 call	 edi
  00080	8d 8e ac 10 00
	00		 lea	 ecx, DWORD PTR [esi+4268]
  00086	c6 45 fc 07	 mov	 BYTE PTR __$EHRec$[ebp+8], 7
  0008a	ff d7		 call	 edi
  0008c	8d 8e bc 10 00
	00		 lea	 ecx, DWORD PTR [esi+4284]
  00092	c6 45 fc 08	 mov	 BYTE PTR __$EHRec$[ebp+8], 8
  00096	ff d7		 call	 edi
  00098	8d 8e cc 10 00
	00		 lea	 ecx, DWORD PTR [esi+4300]
  0009e	c6 45 fc 09	 mov	 BYTE PTR __$EHRec$[ebp+8], 9
  000a2	ff d7		 call	 edi
  000a4	8d 8e e0 10 00
	00		 lea	 ecx, DWORD PTR [esi+4320]
  000aa	c6 45 fc 0a	 mov	 BYTE PTR __$EHRec$[ebp+8], 10 ; 0000000aH
  000ae	e8 00 00 00 00	 call	 ??0?$CEncrypt@K@@QAE@XZ	; CEncrypt<unsigned long>::CEncrypt<unsigned long>

; 15   : 	m_State = SS_NONE;

  000b3	8d 45 f0	 lea	 eax, DWORD PTR _value$563688[ebp]
  000b6	50		 push	 eax
  000b7	8d 8e 58 0f 00
	00		 lea	 ecx, DWORD PTR [esi+3928]
  000bd	c6 45 fc 0b	 mov	 BYTE PTR __$EHRec$[ebp+8], 11 ; 0000000bH
  000c1	89 5d f0	 mov	 DWORD PTR _value$563688[ebp], ebx
  000c4	e8 00 00 00 00	 call	 ?EncryptValueToPool@?$CEncrypt@H@@AAEXPBD@Z ; CEncrypt<int>::EncryptValueToPool

; 16   : 
; 17   : 	m_dwCurMapEffect = -1;

  000c9	83 8e a0 10 00
	00 ff		 or	 DWORD PTR [esi+4256], -1

; 18   : 	m_dwTargetCircleEffect = -1;

  000d0	83 8e a4 10 00
	00 ff		 or	 DWORD PTR [esi+4260], -1

; 19   : 
; 20   : 	m_bSetHandMesh = false;

  000d7	88 9e 0a 0f 00
	00		 mov	 BYTE PTR [esi+3850], bl

; 21   : 	m_dwFireStartTime = 0;

  000dd	89 9e 88 0f 00
	00		 mov	 DWORD PTR [esi+3976], ebx

; 22   : 
; 23   : 	m_dwWaitStartTime = 0;

  000e3	89 9e 10 11 00
	00		 mov	 DWORD PTR [esi+4368], ebx

; 24   : 	m_bTargetRot = false;

  000e9	88 9e 1c 11 00
	00		 mov	 BYTE PTR [esi+4380], bl

; 25   : }

  000ef	8b c6		 mov	 eax, esi
  000f1	e8 00 00 00 00	 call	 __EH_epilog3
  000f6	c3		 ret	 0
_TEXT	ENDS
;	COMDAT text$x
text$x	SEGMENT
__unwindfunclet$??0ioCircleMoveAttackSkill@@QAE@XZ$0:
  00000	8b 4d ec	 mov	 ecx, DWORD PTR _this$[ebp]
  00003	e9 00 00 00 00	 jmp	 ??1ioNormalSkill@@UAE@XZ ; ioNormalSkill::~ioNormalSkill
__unwindfunclet$??0ioCircleMoveAttackSkill@@QAE@XZ$1:
  00008	8b 4d ec	 mov	 ecx, DWORD PTR _this$[ebp]
  0000b	81 c1 58 0f 00
	00		 add	 ecx, 3928		; 00000f58H
  00011	e9 00 00 00 00	 jmp	 ??1?$CEncrypt@H@@UAE@XZ	; CEncrypt<int>::~CEncrypt<int>
__unwindfunclet$??0ioCircleMoveAttackSkill@@QAE@XZ$2:
  00016	8b 4d ec	 mov	 ecx, DWORD PTR _this$[ebp]
  00019	81 c1 8c 0f 00
	00		 add	 ecx, 3980		; 00000f8cH
  0001f	e9 00 00 00 00	 jmp	 ??1AttackAttribute@@QAE@XZ
__unwindfunclet$??0ioCircleMoveAttackSkill@@QAE@XZ$3:
  00024	8b 4d ec	 mov	 ecx, DWORD PTR _this$[ebp]
  00027	81 c1 dc 0f 00
	00		 add	 ecx, 4060		; 00000fdcH
  0002d	e9 00 00 00 00	 jmp	 ??1AttackAttribute@@QAE@XZ
__unwindfunclet$??0ioCircleMoveAttackSkill@@QAE@XZ$4:
  00032	8b 4d ec	 mov	 ecx, DWORD PTR _this$[ebp]
  00035	81 c1 60 10 00
	00		 add	 ecx, 4192		; 00001060H
  0003b	ff 25 00 00 00
	00		 jmp	 DWORD PTR __imp_??1ioHashString@@QAE@XZ
__unwindfunclet$??0ioCircleMoveAttackSkill@@QAE@XZ$5:
  00041	8b 4d ec	 mov	 ecx, DWORD PTR _this$[ebp]
  00044	81 c1 70 10 00
	00		 add	 ecx, 4208		; 00001070H
  0004a	ff 25 00 00 00
	00		 jmp	 DWORD PTR __imp_??1ioHashString@@QAE@XZ
__unwindfunclet$??0ioCircleMoveAttackSkill@@QAE@XZ$6:
  00050	8b 4d ec	 mov	 ecx, DWORD PTR _this$[ebp]
  00053	81 c1 80 10 00
	00		 add	 ecx, 4224		; 00001080H
  00059	ff 25 00 00 00
	00		 jmp	 DWORD PTR __imp_??1ioHashString@@QAE@XZ
__unwindfunclet$??0ioCircleMoveAttackSkill@@QAE@XZ$7:
  0005f	8b 4d ec	 mov	 ecx, DWORD PTR _this$[ebp]
  00062	81 c1 90 10 00
	00		 add	 ecx, 4240		; 00001090H
  00068	ff 25 00 00 00
	00		 jmp	 DWORD PTR __imp_??1ioHashString@@QAE@XZ
__unwindfunclet$??0ioCircleMoveAttackSkill@@QAE@XZ$8:
  0006e	8b 4d ec	 mov	 ecx, DWORD PTR _this$[ebp]
  00071	81 c1 ac 10 00
	00		 add	 ecx, 4268		; 000010acH
  00077	ff 25 00 00 00
	00		 jmp	 DWORD PTR __imp_??1ioHashString@@QAE@XZ
__unwindfunclet$??0ioCircleMoveAttackSkill@@QAE@XZ$9:
  0007d	8b 4d ec	 mov	 ecx, DWORD PTR _this$[ebp]
  00080	81 c1 bc 10 00
	00		 add	 ecx, 4284		; 000010bcH
  00086	ff 25 00 00 00
	00		 jmp	 DWORD PTR __imp_??1ioHashString@@QAE@XZ
__unwindfunclet$??0ioCircleMoveAttackSkill@@QAE@XZ$10:
  0008c	8b 4d ec	 mov	 ecx, DWORD PTR _this$[ebp]
  0008f	81 c1 cc 10 00
	00		 add	 ecx, 4300		; 000010ccH
  00095	ff 25 00 00 00
	00		 jmp	 DWORD PTR __imp_??1ioHashString@@QAE@XZ
__unwindfunclet$??0ioCircleMoveAttackSkill@@QAE@XZ$11:
  0009b	8b 4d ec	 mov	 ecx, DWORD PTR _this$[ebp]
  0009e	81 c1 e0 10 00
	00		 add	 ecx, 4320		; 000010e0H
  000a4	e9 00 00 00 00	 jmp	 ??1?$CEncrypt@K@@UAE@XZ	; CEncrypt<unsigned long>::~CEncrypt<unsigned long>
__ehhandler$??0ioCircleMoveAttackSkill@@QAE@XZ:
  000a9	8b 54 24 08	 mov	 edx, DWORD PTR [esp+8]
  000ad	8d 42 0c	 lea	 eax, DWORD PTR [edx+12]
  000b0	8b 4a e8	 mov	 ecx, DWORD PTR [edx-24]
  000b3	33 c8		 xor	 ecx, eax
  000b5	e8 00 00 00 00	 call	 @__security_check_cookie@4
  000ba	b8 00 00 00 00	 mov	 eax, OFFSET __ehfuncinfo$??0ioCircleMoveAttackSkill@@QAE@XZ
  000bf	e9 00 00 00 00	 jmp	 ___CxxFrameHandler3
text$x	ENDS
??0ioCircleMoveAttackSkill@@QAE@XZ ENDP			; ioCircleMoveAttackSkill::ioCircleMoveAttackSkill
; Function compile flags: /Ogsp
; File d:\lost saga for developer\youtube\tutorial\source\src\lsclient\ioskill.h
;	COMDAT ?GetDefenseSkillBreakeType@ioSkill@@UBE?AW4DefenseBreakType@@XZ
_TEXT	SEGMENT
?GetDefenseSkillBreakeType@ioSkill@@UBE?AW4DefenseBreakType@@XZ PROC ; ioSkill::GetDefenseSkillBreakeType, COMDAT
; _this$ = ecx

; 327  : 	virtual DefenseBreakType GetDefenseSkillBreakeType() const { return m_eDefenseSkillBreakType; }

  00000	8b 81 30 0e 00
	00		 mov	 eax, DWORD PTR [ecx+3632]
  00006	c3		 ret	 0
?GetDefenseSkillBreakeType@ioSkill@@UBE?AW4DefenseBreakType@@XZ ENDP ; ioSkill::GetDefenseSkillBreakeType
; Function compile flags: /Ogsp
_TEXT	ENDS
;	COMDAT ?GetSkillEndNextJumpAmt@ioSkill@@UBEMXZ
_TEXT	SEGMENT
?GetSkillEndNextJumpAmt@ioSkill@@UBEMXZ PROC		; ioSkill::GetSkillEndNextJumpAmt, COMDAT
; _this$ = ecx

; 335  : 	virtual float GetSkillEndNextJumpAmt() const { return m_fSkillEndNextJumpAmt; }

  00000	d9 81 4c 05 00
	00		 fld	 DWORD PTR [ecx+1356]
  00006	c3		 ret	 0
?GetSkillEndNextJumpAmt@ioSkill@@UBEMXZ ENDP		; ioSkill::GetSkillEndNextJumpAmt
; Function compile flags: /Ogsp
_TEXT	ENDS
;	COMDAT ?GetSkillEndNextLandRate@ioSkill@@UBEMXZ
_TEXT	SEGMENT
?GetSkillEndNextLandRate@ioSkill@@UBEMXZ PROC		; ioSkill::GetSkillEndNextLandRate, COMDAT
; _this$ = ecx

; 336  : 	virtual float GetSkillEndNextLandRate() const { return m_fSkillEndNextLandRate; }

  00000	d9 81 50 05 00
	00		 fld	 DWORD PTR [ecx+1360]
  00006	c3		 ret	 0
?GetSkillEndNextLandRate@ioSkill@@UBEMXZ ENDP		; ioSkill::GetSkillEndNextLandRate
; Function compile flags: /Ogsp
_TEXT	ENDS
;	COMDAT ?GetSkillEndNextJumpMustEnable@ioSkill@@UAE?AW4SkillEndJumpType@@XZ
_TEXT	SEGMENT
?GetSkillEndNextJumpMustEnable@ioSkill@@UAE?AW4SkillEndJumpType@@XZ PROC ; ioSkill::GetSkillEndNextJumpMustEnable, COMDAT
; _this$ = ecx

; 337  : 	virtual SkillEndJumpType GetSkillEndNextJumpMustEnable(){ return SEJT_DEFAULT; }

  00000	33 c0		 xor	 eax, eax
  00002	c3		 ret	 0
?GetSkillEndNextJumpMustEnable@ioSkill@@UAE?AW4SkillEndJumpType@@XZ ENDP ; ioSkill::GetSkillEndNextJumpMustEnable
; Function compile flags: /Ogsp
_TEXT	ENDS
;	COMDAT ?EnableChangeGrapplingTargetPos@ioSkill@@UBE_NXZ
_TEXT	SEGMENT
?EnableChangeGrapplingTargetPos@ioSkill@@UBE_NXZ PROC	; ioSkill::EnableChangeGrapplingTargetPos, COMDAT
; _this$ = ecx

; 355  : 	virtual bool EnableChangeGrapplingTargetPos() const { return m_bChangeGrapplingTargetPos; }

  00000	8a 81 40 09 00
	00		 mov	 al, BYTE PTR [ecx+2368]
  00006	c3		 ret	 0
?EnableChangeGrapplingTargetPos@ioSkill@@UBE_NXZ ENDP	; ioSkill::EnableChangeGrapplingTargetPos
; Function compile flags: /Ogsp
_TEXT	ENDS
;	COMDAT ?IsInvisibleBottomCircle@ioSkill@@UAE_NPAVioBaseChar@@@Z
_TEXT	SEGMENT
_pChar$ = 8						; size = 4
?IsInvisibleBottomCircle@ioSkill@@UAE_NPAVioBaseChar@@@Z PROC ; ioSkill::IsInvisibleBottomCircle, COMDAT
; _this$ = ecx

; 393  : 	virtual bool IsInvisibleBottomCircle( ioBaseChar *pChar ) { return false; }

  00000	32 c0		 xor	 al, al
  00002	c2 04 00	 ret	 4
?IsInvisibleBottomCircle@ioSkill@@UAE_NPAVioBaseChar@@@Z ENDP ; ioSkill::IsInvisibleBottomCircle
; Function compile flags: /Ogsp
_TEXT	ENDS
;	COMDAT ?IsUseActiveCnt@ioSkill@@UBE_NXZ
_TEXT	SEGMENT
?IsUseActiveCnt@ioSkill@@UBE_NXZ PROC			; ioSkill::IsUseActiveCnt, COMDAT
; _this$ = ecx

; 544  : 	virtual bool IsUseActiveCnt() const { return false; }

  00000	32 c0		 xor	 al, al
  00002	c3		 ret	 0
?IsUseActiveCnt@ioSkill@@UBE_NXZ ENDP			; ioSkill::IsUseActiveCnt
; Function compile flags: /Ogsp
_TEXT	ENDS
;	COMDAT ?GetMaxActiveCnt@ioSkill@@UBEHPAVioBaseChar@@@Z
_TEXT	SEGMENT
_pChar$ = 8						; size = 4
?GetMaxActiveCnt@ioSkill@@UBEHPAVioBaseChar@@@Z PROC	; ioSkill::GetMaxActiveCnt, COMDAT
; _this$ = ecx

; 545  : 	virtual int GetMaxActiveCnt( ioBaseChar *pChar ) const { return 0; }

  00000	33 c0		 xor	 eax, eax
  00002	c2 04 00	 ret	 4
?GetMaxActiveCnt@ioSkill@@UBEHPAVioBaseChar@@@Z ENDP	; ioSkill::GetMaxActiveCnt
; Function compile flags: /Ogsp
_TEXT	ENDS
;	COMDAT ?GetCurActiveCnt@ioSkill@@UBEHPAVioBaseChar@@@Z
_TEXT	SEGMENT
_pChar$ = 8						; size = 4
?GetCurActiveCnt@ioSkill@@UBEHPAVioBaseChar@@@Z PROC	; ioSkill::GetCurActiveCnt, COMDAT
; _this$ = ecx

; 546  : 	virtual int GetCurActiveCnt( ioBaseChar *pChar ) const { return 0; }

  00000	33 c0		 xor	 eax, eax
  00002	c2 04 00	 ret	 4
?GetCurActiveCnt@ioSkill@@UBEHPAVioBaseChar@@@Z ENDP	; ioSkill::GetCurActiveCnt
; Function compile flags: /Ogsp
_TEXT	ENDS
;	COMDAT ?IsCanJumpingSkill@ioSkill@@UBE_NXZ
_TEXT	SEGMENT
_value$563727 = -1					; size = 1
?IsCanJumpingSkill@ioSkill@@UBE_NXZ PROC		; ioSkill::IsCanJumpingSkill, COMDAT
; _this$ = ecx

; 431  : 	virtual bool IsCanJumpingSkill() const { return m_bEnableJumpingSkill; }

  00000	55		 push	 ebp
  00001	8b ec		 mov	 ebp, esp
  00003	51		 push	 ecx
  00004	8d 45 ff	 lea	 eax, DWORD PTR _value$563727[ebp]
  00007	50		 push	 eax
  00008	81 c1 9c 03 00
	00		 add	 ecx, 924		; 0000039cH
  0000e	e8 00 00 00 00	 call	 ?DecryptValueToPool@?$CEncrypt@_N@@QAEXPA_N@Z ; CEncrypt<bool>::DecryptValueToPool
  00013	8a 45 ff	 mov	 al, BYTE PTR _value$563727[ebp]
  00016	c9		 leave
  00017	c3		 ret	 0
?IsCanJumpingSkill@ioSkill@@UBE_NXZ ENDP		; ioSkill::IsCanJumpingSkill
; Function compile flags: /Ogsp
_TEXT	ENDS
;	COMDAT ?IsCanJumpingSkillOnBlowWound@ioSkill@@UBE_NXZ
_TEXT	SEGMENT
_value$563734 = -1					; size = 1
?IsCanJumpingSkillOnBlowWound@ioSkill@@UBE_NXZ PROC	; ioSkill::IsCanJumpingSkillOnBlowWound, COMDAT
; _this$ = ecx

; 432  : 	virtual bool IsCanJumpingSkillOnBlowWound() const { return m_bEnableJumpingSkillOnBlowWound; }

  00000	55		 push	 ebp
  00001	8b ec		 mov	 ebp, esp
  00003	51		 push	 ecx
  00004	8d 45 ff	 lea	 eax, DWORD PTR _value$563734[ebp]
  00007	50		 push	 eax
  00008	81 c1 cc 03 00
	00		 add	 ecx, 972		; 000003ccH
  0000e	e8 00 00 00 00	 call	 ?DecryptValueToPool@?$CEncrypt@_N@@QAEXPA_N@Z ; CEncrypt<bool>::DecryptValueToPool
  00013	8a 45 ff	 mov	 al, BYTE PTR _value$563734[ebp]
  00016	c9		 leave
  00017	c3		 ret	 0
?IsCanJumpingSkillOnBlowWound@ioSkill@@UBE_NXZ ENDP	; ioSkill::IsCanJumpingSkillOnBlowWound
; Function compile flags: /Ogsp
_TEXT	ENDS
;	COMDAT ?IsCanDownSkill@ioSkill@@UBE_NXZ
_TEXT	SEGMENT
_value$563741 = -1					; size = 1
?IsCanDownSkill@ioSkill@@UBE_NXZ PROC			; ioSkill::IsCanDownSkill, COMDAT
; _this$ = ecx

; 437  : 	virtual bool IsCanDownSkill() const { return m_bEnableDownSkill; }

  00000	55		 push	 ebp
  00001	8b ec		 mov	 ebp, esp
  00003	51		 push	 ecx
  00004	8d 45 ff	 lea	 eax, DWORD PTR _value$563741[ebp]
  00007	50		 push	 eax
  00008	81 c1 5c 04 00
	00		 add	 ecx, 1116		; 0000045cH
  0000e	e8 00 00 00 00	 call	 ?DecryptValueToPool@?$CEncrypt@_N@@QAEXPA_N@Z ; CEncrypt<bool>::DecryptValueToPool
  00013	8a 45 ff	 mov	 al, BYTE PTR _value$563741[ebp]
  00016	c9		 leave
  00017	c3		 ret	 0
?IsCanDownSkill@ioSkill@@UBE_NXZ ENDP			; ioSkill::IsCanDownSkill
; Function compile flags: /Ogsp
_TEXT	ENDS
;	COMDAT ?IsCanBlowWoundSkill@ioSkill@@UBE_NXZ
_TEXT	SEGMENT
_value$563748 = -1					; size = 1
?IsCanBlowWoundSkill@ioSkill@@UBE_NXZ PROC		; ioSkill::IsCanBlowWoundSkill, COMDAT
; _this$ = ecx

; 440  : 	virtual bool IsCanBlowWoundSkill() const { return m_bEnableBlowWoundSkill; }

  00000	55		 push	 ebp
  00001	8b ec		 mov	 ebp, esp
  00003	51		 push	 ecx
  00004	8d 45 ff	 lea	 eax, DWORD PTR _value$563748[ebp]
  00007	50		 push	 eax
  00008	81 c1 8c 04 00
	00		 add	 ecx, 1164		; 0000048cH
  0000e	e8 00 00 00 00	 call	 ?DecryptValueToPool@?$CEncrypt@_N@@QAEXPA_N@Z ; CEncrypt<bool>::DecryptValueToPool
  00013	8a 45 ff	 mov	 al, BYTE PTR _value$563748[ebp]
  00016	c9		 leave
  00017	c3		 ret	 0
?IsCanBlowWoundSkill@ioSkill@@UBE_NXZ ENDP		; ioSkill::IsCanBlowWoundSkill
; Function compile flags: /Ogsp
_TEXT	ENDS
;	COMDAT ?IsCanWoundSkill@ioSkill@@UBE_NXZ
_TEXT	SEGMENT
_value$563755 = -1					; size = 1
?IsCanWoundSkill@ioSkill@@UBE_NXZ PROC			; ioSkill::IsCanWoundSkill, COMDAT
; _this$ = ecx

; 446  : 	virtual bool IsCanWoundSkill() const { return m_bEnableWoundSkill; }

  00000	55		 push	 ebp
  00001	8b ec		 mov	 ebp, esp
  00003	51		 push	 ecx
  00004	8d 45 ff	 lea	 eax, DWORD PTR _value$563755[ebp]
  00007	50		 push	 eax
  00008	81 c1 54 05 00
	00		 add	 ecx, 1364		; 00000554H
  0000e	e8 00 00 00 00	 call	 ?DecryptValueToPool@?$CEncrypt@_N@@QAEXPA_N@Z ; CEncrypt<bool>::DecryptValueToPool
  00013	8a 45 ff	 mov	 al, BYTE PTR _value$563755[ebp]
  00016	c9		 leave
  00017	c3		 ret	 0
?IsCanWoundSkill@ioSkill@@UBE_NXZ ENDP			; ioSkill::IsCanWoundSkill
_TEXT	ENDS
PUBLIC	??0ioCircleMoveAttackSkill@@QAE@ABV0@@Z		; ioCircleMoveAttackSkill::ioCircleMoveAttackSkill
EXTRN	??0ioNormalSkill@@QAE@ABV0@@Z:PROC		; ioNormalSkill::ioNormalSkill
;	COMDAT xdata$x
; File d:\lost saga for developer\youtube\tutorial\source\src\lsclient\encryptvalue.h
xdata$x	SEGMENT
__ehfuncinfo$??0ioCircleMoveAttackSkill@@QAE@ABV0@@Z DD 019930522H
	DD	0cH
	DD	FLAT:__unwindtable$??0ioCircleMoveAttackSkill@@QAE@ABV0@@Z
	DD	2 DUP(00H)
	DD	2 DUP(00H)
	DD	00H
	DD	01H
__unwindtable$??0ioCircleMoveAttackSkill@@QAE@ABV0@@Z DD 0ffffffffH
	DD	FLAT:__unwindfunclet$??0ioCircleMoveAttackSkill@@QAE@ABV0@@Z$0
	DD	00H
	DD	FLAT:__unwindfunclet$??0ioCircleMoveAttackSkill@@QAE@ABV0@@Z$1
	DD	01H
	DD	FLAT:__unwindfunclet$??0ioCircleMoveAttackSkill@@QAE@ABV0@@Z$2
	DD	02H
	DD	FLAT:__unwindfunclet$??0ioCircleMoveAttackSkill@@QAE@ABV0@@Z$3
	DD	03H
	DD	FLAT:__unwindfunclet$??0ioCircleMoveAttackSkill@@QAE@ABV0@@Z$4
	DD	04H
	DD	FLAT:__unwindfunclet$??0ioCircleMoveAttackSkill@@QAE@ABV0@@Z$5
	DD	05H
	DD	FLAT:__unwindfunclet$??0ioCircleMoveAttackSkill@@QAE@ABV0@@Z$6
	DD	06H
	DD	FLAT:__unwindfunclet$??0ioCircleMoveAttackSkill@@QAE@ABV0@@Z$7
	DD	07H
	DD	FLAT:__unwindfunclet$??0ioCircleMoveAttackSkill@@QAE@ABV0@@Z$8
	DD	08H
	DD	FLAT:__unwindfunclet$??0ioCircleMoveAttackSkill@@QAE@ABV0@@Z$9
	DD	09H
	DD	FLAT:__unwindfunclet$??0ioCircleMoveAttackSkill@@QAE@ABV0@@Z$10
	DD	0aH
	DD	FLAT:__unwindfunclet$??0ioCircleMoveAttackSkill@@QAE@ABV0@@Z$11
; Function compile flags: /Ogsp
; File d:\lost saga for developer\youtube\tutorial\source\src\lsclient\iocirclemoveattackskill.cpp
xdata$x	ENDS
;	COMDAT ??0ioCircleMoveAttackSkill@@QAE@ABV0@@Z
_TEXT	SEGMENT
_this$ = -16						; size = 4
__$EHRec$ = -12						; size = 12
_value$563780 = 8					; size = 4
_rhs$ = 8						; size = 4
??0ioCircleMoveAttackSkill@@QAE@ABV0@@Z PROC		; ioCircleMoveAttackSkill::ioCircleMoveAttackSkill, COMDAT
; _this$ = ecx

; 49   : {

  00000	6a 04		 push	 4
  00002	b8 00 00 00 00	 mov	 eax, __ehhandler$??0ioCircleMoveAttackSkill@@QAE@ABV0@@Z
  00007	e8 00 00 00 00	 call	 __EH_prolog3
  0000c	8b f1		 mov	 esi, ecx
  0000e	89 75 f0	 mov	 DWORD PTR _this$[ebp], esi
  00011	8b 7d 08	 mov	 edi, DWORD PTR _rhs$[ebp]
  00014	57		 push	 edi
  00015	e8 00 00 00 00	 call	 ??0ioNormalSkill@@QAE@ABV0@@Z ; ioNormalSkill::ioNormalSkill
  0001a	83 65 fc 00	 and	 DWORD PTR __$EHRec$[ebp+8], 0
  0001e	8d 8e 58 0f 00
	00		 lea	 ecx, DWORD PTR [esi+3928]
  00024	c7 06 00 00 00
	00		 mov	 DWORD PTR [esi], OFFSET ??_7ioCircleMoveAttackSkill@@6B@
  0002a	e8 00 00 00 00	 call	 ??0?$CEncrypt@H@@QAE@XZ	; CEncrypt<int>::CEncrypt<int>
  0002f	8d 87 8c 0f 00
	00		 lea	 eax, DWORD PTR [edi+3980]
  00035	50		 push	 eax
  00036	8d 8e 8c 0f 00
	00		 lea	 ecx, DWORD PTR [esi+3980]
  0003c	c6 45 fc 01	 mov	 BYTE PTR __$EHRec$[ebp+8], 1
  00040	e8 00 00 00 00	 call	 ??0AttackAttribute@@QAE@ABU0@@Z
  00045	8d 87 dc 0f 00
	00		 lea	 eax, DWORD PTR [edi+4060]
  0004b	50		 push	 eax
  0004c	8d 8e dc 0f 00
	00		 lea	 ecx, DWORD PTR [esi+4060]
  00052	c6 45 fc 02	 mov	 BYTE PTR __$EHRec$[ebp+8], 2
  00056	e8 00 00 00 00	 call	 ??0AttackAttribute@@QAE@ABU0@@Z
  0005b	d9 87 2c 10 00
	00		 fld	 DWORD PTR [edi+4140]
  00061	8b 1d 00 00 00
	00		 mov	 ebx, DWORD PTR __imp_??0ioHashString@@QAE@ABV0@@Z
  00067	d9 9e 2c 10 00
	00		 fstp	 DWORD PTR [esi+4140]
  0006d	d9 87 30 10 00
	00		 fld	 DWORD PTR [edi+4144]
  00073	8d 87 60 10 00
	00		 lea	 eax, DWORD PTR [edi+4192]
  00079	d9 9e 30 10 00
	00		 fstp	 DWORD PTR [esi+4144]
  0007f	50		 push	 eax
  00080	d9 87 34 10 00
	00		 fld	 DWORD PTR [edi+4148]
  00086	8d 8e 60 10 00
	00		 lea	 ecx, DWORD PTR [esi+4192]
  0008c	d9 9e 34 10 00
	00		 fstp	 DWORD PTR [esi+4148]
  00092	c6 45 fc 03	 mov	 BYTE PTR __$EHRec$[ebp+8], 3
  00096	d9 87 38 10 00
	00		 fld	 DWORD PTR [edi+4152]
  0009c	d9 9e 38 10 00
	00		 fstp	 DWORD PTR [esi+4152]
  000a2	d9 87 50 10 00
	00		 fld	 DWORD PTR [edi+4176]
  000a8	d9 9e 50 10 00
	00		 fstp	 DWORD PTR [esi+4176]
  000ae	ff d3		 call	 ebx
  000b0	8d 87 70 10 00
	00		 lea	 eax, DWORD PTR [edi+4208]
  000b6	50		 push	 eax
  000b7	8d 8e 70 10 00
	00		 lea	 ecx, DWORD PTR [esi+4208]
  000bd	c6 45 fc 04	 mov	 BYTE PTR __$EHRec$[ebp+8], 4
  000c1	ff d3		 call	 ebx
  000c3	8d 87 80 10 00
	00		 lea	 eax, DWORD PTR [edi+4224]
  000c9	50		 push	 eax
  000ca	8d 8e 80 10 00
	00		 lea	 ecx, DWORD PTR [esi+4224]
  000d0	c6 45 fc 05	 mov	 BYTE PTR __$EHRec$[ebp+8], 5
  000d4	ff d3		 call	 ebx
  000d6	8d 87 90 10 00
	00		 lea	 eax, DWORD PTR [edi+4240]
  000dc	50		 push	 eax
  000dd	8d 8e 90 10 00
	00		 lea	 ecx, DWORD PTR [esi+4240]
  000e3	c6 45 fc 06	 mov	 BYTE PTR __$EHRec$[ebp+8], 6
  000e7	ff d3		 call	 ebx
  000e9	d9 87 a8 10 00
	00		 fld	 DWORD PTR [edi+4264]
  000ef	8d 87 ac 10 00
	00		 lea	 eax, DWORD PTR [edi+4268]
  000f5	d9 9e a8 10 00
	00		 fstp	 DWORD PTR [esi+4264]
  000fb	50		 push	 eax
  000fc	8d 8e ac 10 00
	00		 lea	 ecx, DWORD PTR [esi+4268]
  00102	c6 45 fc 07	 mov	 BYTE PTR __$EHRec$[ebp+8], 7
  00106	ff d3		 call	 ebx
  00108	8d 87 bc 10 00
	00		 lea	 eax, DWORD PTR [edi+4284]
  0010e	50		 push	 eax
  0010f	8d 8e bc 10 00
	00		 lea	 ecx, DWORD PTR [esi+4284]
  00115	c6 45 fc 08	 mov	 BYTE PTR __$EHRec$[ebp+8], 8
  00119	ff d3		 call	 ebx
  0011b	8d 87 cc 10 00
	00		 lea	 eax, DWORD PTR [edi+4300]
  00121	50		 push	 eax
  00122	8d 8e cc 10 00
	00		 lea	 ecx, DWORD PTR [esi+4300]
  00128	c6 45 fc 09	 mov	 BYTE PTR __$EHRec$[ebp+8], 9
  0012c	ff d3		 call	 ebx
  0012e	8b 87 dc 10 00
	00		 mov	 eax, DWORD PTR [edi+4316]
  00134	89 86 dc 10 00
	00		 mov	 DWORD PTR [esi+4316], eax
  0013a	8d 87 e0 10 00
	00		 lea	 eax, DWORD PTR [edi+4320]
  00140	c6 45 fc 0a	 mov	 BYTE PTR __$EHRec$[ebp+8], 10 ; 0000000aH
  00144	50		 push	 eax
  00145	8d 8e e0 10 00
	00		 lea	 ecx, DWORD PTR [esi+4320]
  0014b	e8 00 00 00 00	 call	 ??0?$CEncrypt@K@@QAE@ABV0@@Z ; CEncrypt<unsigned long>::CEncrypt<unsigned long>
  00150	8a 87 14 11 00
	00		 mov	 al, BYTE PTR [edi+4372]
  00156	88 86 14 11 00
	00		 mov	 BYTE PTR [esi+4372], al
  0015c	8b 87 18 11 00
	00		 mov	 eax, DWORD PTR [edi+4376]
  00162	89 86 18 11 00
	00		 mov	 DWORD PTR [esi+4376], eax
  00168	8b 87 28 11 00
	00		 mov	 eax, DWORD PTR [edi+4392]
  0016e	89 86 28 11 00
	00		 mov	 DWORD PTR [esi+4392], eax

; 50   : 	m_State = SS_NONE;

  00174	8d 45 08	 lea	 eax, DWORD PTR _value$563780[ebp]
  00177	33 ff		 xor	 edi, edi
  00179	50		 push	 eax
  0017a	8d 8e 58 0f 00
	00		 lea	 ecx, DWORD PTR [esi+3928]
  00180	c6 45 fc 0b	 mov	 BYTE PTR __$EHRec$[ebp+8], 11 ; 0000000bH
  00184	89 7d 08	 mov	 DWORD PTR _value$563780[ebp], edi
  00187	e8 00 00 00 00	 call	 ?EncryptValueToPool@?$CEncrypt@H@@AAEXPBD@Z ; CEncrypt<int>::EncryptValueToPool

; 51   : 
; 52   : 	m_dwCurMapEffect = -1;

  0018c	83 8e a0 10 00
	00 ff		 or	 DWORD PTR [esi+4256], -1

; 53   : 	m_dwTargetCircleEffect = -1;

  00193	83 8e a4 10 00
	00 ff		 or	 DWORD PTR [esi+4260], -1

; 54   : 
; 55   : 	m_bSetHandMesh = false;

  0019a	c6 86 0a 0f 00
	00 00		 mov	 BYTE PTR [esi+3850], 0

; 56   : 	m_dwFireStartTime = 0;

  001a1	89 be 88 0f 00
	00		 mov	 DWORD PTR [esi+3976], edi

; 57   : 
; 58   : 	m_dwWaitStartTime = 0;

  001a7	89 be 10 11 00
	00		 mov	 DWORD PTR [esi+4368], edi

; 59   : 	m_bTargetRot = false;

  001ad	c6 86 1c 11 00
	00 00		 mov	 BYTE PTR [esi+4380], 0

; 60   : }

  001b4	8b c6		 mov	 eax, esi
  001b6	e8 00 00 00 00	 call	 __EH_epilog3
  001bb	c2 04 00	 ret	 4
_TEXT	ENDS
;	COMDAT text$x
text$x	SEGMENT
__unwindfunclet$??0ioCircleMoveAttackSkill@@QAE@ABV0@@Z$0:
  00000	8b 4d f0	 mov	 ecx, DWORD PTR _this$[ebp]
  00003	e9 00 00 00 00	 jmp	 ??1ioNormalSkill@@UAE@XZ ; ioNormalSkill::~ioNormalSkill
__unwindfunclet$??0ioCircleMoveAttackSkill@@QAE@ABV0@@Z$1:
  00008	8b 4d f0	 mov	 ecx, DWORD PTR _this$[ebp]
  0000b	81 c1 58 0f 00
	00		 add	 ecx, 3928		; 00000f58H
  00011	e9 00 00 00 00	 jmp	 ??1?$CEncrypt@H@@UAE@XZ	; CEncrypt<int>::~CEncrypt<int>
__unwindfunclet$??0ioCircleMoveAttackSkill@@QAE@ABV0@@Z$2:
  00016	8b 4d f0	 mov	 ecx, DWORD PTR _this$[ebp]
  00019	81 c1 8c 0f 00
	00		 add	 ecx, 3980		; 00000f8cH
  0001f	e9 00 00 00 00	 jmp	 ??1AttackAttribute@@QAE@XZ
__unwindfunclet$??0ioCircleMoveAttackSkill@@QAE@ABV0@@Z$3:
  00024	8b 4d f0	 mov	 ecx, DWORD PTR _this$[ebp]
  00027	81 c1 dc 0f 00
	00		 add	 ecx, 4060		; 00000fdcH
  0002d	e9 00 00 00 00	 jmp	 ??1AttackAttribute@@QAE@XZ
__unwindfunclet$??0ioCircleMoveAttackSkill@@QAE@ABV0@@Z$4:
  00032	8b 4d f0	 mov	 ecx, DWORD PTR _this$[ebp]
  00035	81 c1 60 10 00
	00		 add	 ecx, 4192		; 00001060H
  0003b	ff 25 00 00 00
	00		 jmp	 DWORD PTR __imp_??1ioHashString@@QAE@XZ
__unwindfunclet$??0ioCircleMoveAttackSkill@@QAE@ABV0@@Z$5:
  00041	8b 4d f0	 mov	 ecx, DWORD PTR _this$[ebp]
  00044	81 c1 70 10 00
	00		 add	 ecx, 4208		; 00001070H
  0004a	ff 25 00 00 00
	00		 jmp	 DWORD PTR __imp_??1ioHashString@@QAE@XZ
__unwindfunclet$??0ioCircleMoveAttackSkill@@QAE@ABV0@@Z$6:
  00050	8b 4d f0	 mov	 ecx, DWORD PTR _this$[ebp]
  00053	81 c1 80 10 00
	00		 add	 ecx, 4224		; 00001080H
  00059	ff 25 00 00 00
	00		 jmp	 DWORD PTR __imp_??1ioHashString@@QAE@XZ
__unwindfunclet$??0ioCircleMoveAttackSkill@@QAE@ABV0@@Z$7:
  0005f	8b 4d f0	 mov	 ecx, DWORD PTR _this$[ebp]
  00062	81 c1 90 10 00
	00		 add	 ecx, 4240		; 00001090H
  00068	ff 25 00 00 00
	00		 jmp	 DWORD PTR __imp_??1ioHashString@@QAE@XZ
__unwindfunclet$??0ioCircleMoveAttackSkill@@QAE@ABV0@@Z$8:
  0006e	8b 4d f0	 mov	 ecx, DWORD PTR _this$[ebp]
  00071	81 c1 ac 10 00
	00		 add	 ecx, 4268		; 000010acH
  00077	ff 25 00 00 00
	00		 jmp	 DWORD PTR __imp_??1ioHashString@@QAE@XZ
__unwindfunclet$??0ioCircleMoveAttackSkill@@QAE@ABV0@@Z$9:
  0007d	8b 4d f0	 mov	 ecx, DWORD PTR _this$[ebp]
  00080	81 c1 bc 10 00
	00		 add	 ecx, 4284		; 000010bcH
  00086	ff 25 00 00 00
	00		 jmp	 DWORD PTR __imp_??1ioHashString@@QAE@XZ
__unwindfunclet$??0ioCircleMoveAttackSkill@@QAE@ABV0@@Z$10:
  0008c	8b 4d f0	 mov	 ecx, DWORD PTR _this$[ebp]
  0008f	81 c1 cc 10 00
	00		 add	 ecx, 4300		; 000010ccH
  00095	ff 25 00 00 00
	00		 jmp	 DWORD PTR __imp_??1ioHashString@@QAE@XZ
__unwindfunclet$??0ioCircleMoveAttackSkill@@QAE@ABV0@@Z$11:
  0009b	8b 4d f0	 mov	 ecx, DWORD PTR _this$[ebp]
  0009e	81 c1 e0 10 00
	00		 add	 ecx, 4320		; 000010e0H
  000a4	e9 00 00 00 00	 jmp	 ??1?$CEncrypt@K@@UAE@XZ	; CEncrypt<unsigned long>::~CEncrypt<unsigned long>
__ehhandler$??0ioCircleMoveAttackSkill@@QAE@ABV0@@Z:
  000a9	8b 54 24 08	 mov	 edx, DWORD PTR [esp+8]
  000ad	8d 42 0c	 lea	 eax, DWORD PTR [edx+12]
  000b0	8b 4a ec	 mov	 ecx, DWORD PTR [edx-20]
  000b3	33 c8		 xor	 ecx, eax
  000b5	e8 00 00 00 00	 call	 @__security_check_cookie@4
  000ba	b8 00 00 00 00	 mov	 eax, OFFSET __ehfuncinfo$??0ioCircleMoveAttackSkill@@QAE@ABV0@@Z
  000bf	e9 00 00 00 00	 jmp	 ___CxxFrameHandler3
text$x	ENDS
??0ioCircleMoveAttackSkill@@QAE@ABV0@@Z ENDP		; ioCircleMoveAttackSkill::ioCircleMoveAttackSkill
PUBLIC	??1ioCircleMoveAttackSkill@@UAE@XZ		; ioCircleMoveAttackSkill::~ioCircleMoveAttackSkill
;	COMDAT xdata$x
; File d:\lost saga for developer\youtube\tutorial\source\src\lsclient\encryptvalue.h
xdata$x	SEGMENT
__ehfuncinfo$??1ioCircleMoveAttackSkill@@UAE@XZ DD 019930522H
	DD	0bH
	DD	FLAT:__unwindtable$??1ioCircleMoveAttackSkill@@UAE@XZ
	DD	2 DUP(00H)
	DD	2 DUP(00H)
	DD	00H
	DD	01H
__unwindtable$??1ioCircleMoveAttackSkill@@UAE@XZ DD 0ffffffffH
	DD	FLAT:__unwindfunclet$??1ioCircleMoveAttackSkill@@UAE@XZ$0
	DD	00H
	DD	FLAT:__unwindfunclet$??1ioCircleMoveAttackSkill@@UAE@XZ$1
	DD	01H
	DD	FLAT:__unwindfunclet$??1ioCircleMoveAttackSkill@@UAE@XZ$2
	DD	02H
	DD	FLAT:__unwindfunclet$??1ioCircleMoveAttackSkill@@UAE@XZ$3
	DD	03H
	DD	FLAT:__unwindfunclet$??1ioCircleMoveAttackSkill@@UAE@XZ$4
	DD	04H
	DD	FLAT:__unwindfunclet$??1ioCircleMoveAttackSkill@@UAE@XZ$5
	DD	05H
	DD	FLAT:__unwindfunclet$??1ioCircleMoveAttackSkill@@UAE@XZ$6
	DD	06H
	DD	FLAT:__unwindfunclet$??1ioCircleMoveAttackSkill@@UAE@XZ$7
	DD	07H
	DD	FLAT:__unwindfunclet$??1ioCircleMoveAttackSkill@@UAE@XZ$8
	DD	08H
	DD	FLAT:__unwindfunclet$??1ioCircleMoveAttackSkill@@UAE@XZ$9
	DD	09H
	DD	FLAT:__unwindfunclet$??1ioCircleMoveAttackSkill@@UAE@XZ$10
; Function compile flags: /Ogsp
; File d:\lost saga for developer\youtube\tutorial\source\src\lsclient\iocirclemoveattackskill.cpp
xdata$x	ENDS
;	COMDAT ??1ioCircleMoveAttackSkill@@UAE@XZ
_TEXT	SEGMENT
_this$ = -16						; size = 4
__$EHRec$ = -12						; size = 12
??1ioCircleMoveAttackSkill@@UAE@XZ PROC			; ioCircleMoveAttackSkill::~ioCircleMoveAttackSkill, COMDAT
; _this$ = ecx

; 63   : {

  00000	6a 04		 push	 4
  00002	b8 00 00 00 00	 mov	 eax, __ehhandler$??1ioCircleMoveAttackSkill@@UAE@XZ
  00007	e8 00 00 00 00	 call	 __EH_prolog3
  0000c	8b f1		 mov	 esi, ecx
  0000e	89 75 f0	 mov	 DWORD PTR _this$[ebp], esi
  00011	c7 06 00 00 00
	00		 mov	 DWORD PTR [esi], OFFSET ??_7ioCircleMoveAttackSkill@@6B@

; 64   : }

  00017	8d 8e ec 10 00
	00		 lea	 ecx, DWORD PTR [esi+4332]
  0001d	c7 45 fc 0a 00
	00 00		 mov	 DWORD PTR __$EHRec$[ebp+8], 10 ; 0000000aH
  00024	c7 86 e0 10 00
	00 00 00 00 00	 mov	 DWORD PTR [esi+4320], OFFSET ??_7?$CEncrypt@K@@6B@
  0002e	e8 00 00 00 00	 call	 ??1ccddaabb@@UAE@XZ	; ccddaabb::~ccddaabb
  00033	8b 3d 00 00 00
	00		 mov	 edi, DWORD PTR __imp_??1ioHashString@@QAE@XZ
  00039	8d 8e cc 10 00
	00		 lea	 ecx, DWORD PTR [esi+4300]
  0003f	c6 45 fc 09	 mov	 BYTE PTR __$EHRec$[ebp+8], 9
  00043	ff d7		 call	 edi
  00045	8d 8e bc 10 00
	00		 lea	 ecx, DWORD PTR [esi+4284]
  0004b	c6 45 fc 08	 mov	 BYTE PTR __$EHRec$[ebp+8], 8
  0004f	ff d7		 call	 edi
  00051	8d 8e ac 10 00
	00		 lea	 ecx, DWORD PTR [esi+4268]
  00057	c6 45 fc 07	 mov	 BYTE PTR __$EHRec$[ebp+8], 7
  0005b	ff d7		 call	 edi
  0005d	8d 8e 90 10 00
	00		 lea	 ecx, DWORD PTR [esi+4240]
  00063	c6 45 fc 06	 mov	 BYTE PTR __$EHRec$[ebp+8], 6
  00067	ff d7		 call	 edi
  00069	8d 8e 80 10 00
	00		 lea	 ecx, DWORD PTR [esi+4224]
  0006f	c6 45 fc 05	 mov	 BYTE PTR __$EHRec$[ebp+8], 5
  00073	ff d7		 call	 edi
  00075	8d 8e 70 10 00
	00		 lea	 ecx, DWORD PTR [esi+4208]
  0007b	c6 45 fc 04	 mov	 BYTE PTR __$EHRec$[ebp+8], 4
  0007f	ff d7		 call	 edi
  00081	8d 8e 60 10 00
	00		 lea	 ecx, DWORD PTR [esi+4192]
  00087	c6 45 fc 03	 mov	 BYTE PTR __$EHRec$[ebp+8], 3
  0008b	ff d7		 call	 edi
  0008d	8d 8e dc 0f 00
	00		 lea	 ecx, DWORD PTR [esi+4060]
  00093	c6 45 fc 02	 mov	 BYTE PTR __$EHRec$[ebp+8], 2
  00097	e8 00 00 00 00	 call	 ??1AttackAttribute@@QAE@XZ
  0009c	8d 8e 8c 0f 00
	00		 lea	 ecx, DWORD PTR [esi+3980]
  000a2	c6 45 fc 01	 mov	 BYTE PTR __$EHRec$[ebp+8], 1
  000a6	e8 00 00 00 00	 call	 ??1AttackAttribute@@QAE@XZ
  000ab	8d 8e 64 0f 00
	00		 lea	 ecx, DWORD PTR [esi+3940]
  000b1	c6 45 fc 00	 mov	 BYTE PTR __$EHRec$[ebp+8], 0
  000b5	c7 86 58 0f 00
	00 00 00 00 00	 mov	 DWORD PTR [esi+3928], OFFSET ??_7?$CEncrypt@H@@6B@
  000bf	e8 00 00 00 00	 call	 ??1ccddaabb@@UAE@XZ	; ccddaabb::~ccddaabb
  000c4	83 4d fc ff	 or	 DWORD PTR __$EHRec$[ebp+8], -1
  000c8	8b ce		 mov	 ecx, esi
  000ca	e8 00 00 00 00	 call	 ??1ioNormalSkill@@UAE@XZ ; ioNormalSkill::~ioNormalSkill
  000cf	e8 00 00 00 00	 call	 __EH_epilog3
  000d4	c3		 ret	 0
_TEXT	ENDS
;	COMDAT text$x
text$x	SEGMENT
__unwindfunclet$??1ioCircleMoveAttackSkill@@UAE@XZ$0:
  00000	8b 4d f0	 mov	 ecx, DWORD PTR _this$[ebp]
  00003	e9 00 00 00 00	 jmp	 ??1ioNormalSkill@@UAE@XZ ; ioNormalSkill::~ioNormalSkill
__unwindfunclet$??1ioCircleMoveAttackSkill@@UAE@XZ$1:
  00008	8b 4d f0	 mov	 ecx, DWORD PTR _this$[ebp]
  0000b	81 c1 58 0f 00
	00		 add	 ecx, 3928		; 00000f58H
  00011	e9 00 00 00 00	 jmp	 ??1?$CEncrypt@H@@UAE@XZ	; CEncrypt<int>::~CEncrypt<int>
__unwindfunclet$??1ioCircleMoveAttackSkill@@UAE@XZ$2:
  00016	8b 4d f0	 mov	 ecx, DWORD PTR _this$[ebp]
  00019	81 c1 8c 0f 00
	00		 add	 ecx, 3980		; 00000f8cH
  0001f	e9 00 00 00 00	 jmp	 ??1AttackAttribute@@QAE@XZ
__unwindfunclet$??1ioCircleMoveAttackSkill@@UAE@XZ$3:
  00024	8b 4d f0	 mov	 ecx, DWORD PTR _this$[ebp]
  00027	81 c1 dc 0f 00
	00		 add	 ecx, 4060		; 00000fdcH
  0002d	e9 00 00 00 00	 jmp	 ??1AttackAttribute@@QAE@XZ
__unwindfunclet$??1ioCircleMoveAttackSkill@@UAE@XZ$4:
  00032	8b 4d f0	 mov	 ecx, DWORD PTR _this$[ebp]
  00035	81 c1 60 10 00
	00		 add	 ecx, 4192		; 00001060H
  0003b	ff 25 00 00 00
	00		 jmp	 DWORD PTR __imp_??1ioHashString@@QAE@XZ
__unwindfunclet$??1ioCircleMoveAttackSkill@@UAE@XZ$5:
  00041	8b 4d f0	 mov	 ecx, DWORD PTR _this$[ebp]
  00044	81 c1 70 10 00
	00		 add	 ecx, 4208		; 00001070H
  0004a	ff 25 00 00 00
	00		 jmp	 DWORD PTR __imp_??1ioHashString@@QAE@XZ
__unwindfunclet$??1ioCircleMoveAttackSkill@@UAE@XZ$6:
  00050	8b 4d f0	 mov	 ecx, DWORD PTR _this$[ebp]
  00053	81 c1 80 10 00
	00		 add	 ecx, 4224		; 00001080H
  00059	ff 25 00 00 00
	00		 jmp	 DWORD PTR __imp_??1ioHashString@@QAE@XZ
__unwindfunclet$??1ioCircleMoveAttackSkill@@UAE@XZ$7:
  0005f	8b 4d f0	 mov	 ecx, DWORD PTR _this$[ebp]
  00062	81 c1 90 10 00
	00		 add	 ecx, 4240		; 00001090H
  00068	ff 25 00 00 00
	00		 jmp	 DWORD PTR __imp_??1ioHashString@@QAE@XZ
__unwindfunclet$??1ioCircleMoveAttackSkill@@UAE@XZ$8:
  0006e	8b 4d f0	 mov	 ecx, DWORD PTR _this$[ebp]
  00071	81 c1 ac 10 00
	00		 add	 ecx, 4268		; 000010acH
  00077	ff 25 00 00 00
	00		 jmp	 DWORD PTR __imp_??1ioHashString@@QAE@XZ
__unwindfunclet$??1ioCircleMoveAttackSkill@@UAE@XZ$9:
  0007d	8b 4d f0	 mov	 ecx, DWORD PTR _this$[ebp]
  00080	81 c1 bc 10 00
	00		 add	 ecx, 4284		; 000010bcH
  00086	ff 25 00 00 00
	00		 jmp	 DWORD PTR __imp_??1ioHashString@@QAE@XZ
__unwindfunclet$??1ioCircleMoveAttackSkill@@UAE@XZ$10:
  0008c	8b 4d f0	 mov	 ecx, DWORD PTR _this$[ebp]
  0008f	81 c1 cc 10 00
	00		 add	 ecx, 4300		; 000010ccH
  00095	ff 25 00 00 00
	00		 jmp	 DWORD PTR __imp_??1ioHashString@@QAE@XZ
__ehhandler$??1ioCircleMoveAttackSkill@@UAE@XZ:
  0009b	8b 54 24 08	 mov	 edx, DWORD PTR [esp+8]
  0009f	8d 42 0c	 lea	 eax, DWORD PTR [edx+12]
  000a2	8b 4a ec	 mov	 ecx, DWORD PTR [edx-20]
  000a5	33 c8		 xor	 ecx, eax
  000a7	e8 00 00 00 00	 call	 @__security_check_cookie@4
  000ac	b8 00 00 00 00	 mov	 eax, OFFSET __ehfuncinfo$??1ioCircleMoveAttackSkill@@UAE@XZ
  000b1	e9 00 00 00 00	 jmp	 ___CxxFrameHandler3
text$x	ENDS
??1ioCircleMoveAttackSkill@@UAE@XZ ENDP			; ioCircleMoveAttackSkill::~ioCircleMoveAttackSkill
;	COMDAT xdata$x
xdata$x	SEGMENT
__unwindtable$?Clone@ioCircleMoveAttackSkill@@UAEPAVioSkill@@XZ DD 0ffffffffH
	DD	FLAT:__unwindfunclet$?Clone@ioCircleMoveAttackSkill@@UAEPAVioSkill@@XZ$0
__ehfuncinfo$?Clone@ioCircleMoveAttackSkill@@UAEPAVioSkill@@XZ DD 019930522H
	DD	01H
	DD	FLAT:__unwindtable$?Clone@ioCircleMoveAttackSkill@@UAEPAVioSkill@@XZ
	DD	2 DUP(00H)
	DD	2 DUP(00H)
	DD	00H
	DD	01H
; Function compile flags: /Ogsp
xdata$x	ENDS
;	COMDAT ?Clone@ioCircleMoveAttackSkill@@UAEPAVioSkill@@XZ
_TEXT	SEGMENT
$T563820 = -16						; size = 4
__$EHRec$ = -12						; size = 12
?Clone@ioCircleMoveAttackSkill@@UAEPAVioSkill@@XZ PROC	; ioCircleMoveAttackSkill::Clone, COMDAT
; _this$ = ecx

; 219  : {

  00000	6a 04		 push	 4
  00002	b8 00 00 00 00	 mov	 eax, __ehhandler$?Clone@ioCircleMoveAttackSkill@@UAEPAVioSkill@@XZ
  00007	e8 00 00 00 00	 call	 __EH_prolog3
  0000c	8b f1		 mov	 esi, ecx

; 220  : 	return new ioCircleMoveAttackSkill( *this );

  0000e	68 2c 11 00 00	 push	 4396			; 0000112cH
  00013	e8 00 00 00 00	 call	 ??2@YAPAXI@Z		; operator new
  00018	59		 pop	 ecx
  00019	8b c8		 mov	 ecx, eax
  0001b	89 4d f0	 mov	 DWORD PTR $T563820[ebp], ecx
  0001e	33 c0		 xor	 eax, eax
  00020	89 45 fc	 mov	 DWORD PTR __$EHRec$[ebp+8], eax
  00023	3b c8		 cmp	 ecx, eax
  00025	74 06		 je	 SHORT $LN3@Clone
  00027	56		 push	 esi
  00028	e8 00 00 00 00	 call	 ??0ioCircleMoveAttackSkill@@QAE@ABV0@@Z ; ioCircleMoveAttackSkill::ioCircleMoveAttackSkill
$LN3@Clone:

; 221  : }

  0002d	e8 00 00 00 00	 call	 __EH_epilog3
  00032	c3		 ret	 0
_TEXT	ENDS
;	COMDAT text$x
text$x	SEGMENT
__unwindfunclet$?Clone@ioCircleMoveAttackSkill@@UAEPAVioSkill@@XZ$0:
  00000	ff 75 f0	 push	 DWORD PTR $T563820[ebp]
  00003	e8 00 00 00 00	 call	 ??3@YAXPAX@Z		; operator delete
  00008	59		 pop	 ecx
  00009	c3		 ret	 0
__ehhandler$?Clone@ioCircleMoveAttackSkill@@UAEPAVioSkill@@XZ:
  0000a	8b 54 24 08	 mov	 edx, DWORD PTR [esp+8]
  0000e	8d 42 0c	 lea	 eax, DWORD PTR [edx+12]
  00011	8b 4a ec	 mov	 ecx, DWORD PTR [edx-20]
  00014	33 c8		 xor	 ecx, eax
  00016	e8 00 00 00 00	 call	 @__security_check_cookie@4
  0001b	b8 00 00 00 00	 mov	 eax, OFFSET __ehfuncinfo$?Clone@ioCircleMoveAttackSkill@@UAEPAVioSkill@@XZ
  00020	e9 00 00 00 00	 jmp	 ___CxxFrameHandler3
text$x	ENDS
?Clone@ioCircleMoveAttackSkill@@UAEPAVioSkill@@XZ ENDP	; ioCircleMoveAttackSkill::Clone
; Function compile flags: /Ogsp
;	COMDAT ??_GioCircleMoveAttackSkill@@UAEPAXI@Z
_TEXT	SEGMENT
___flags$ = 8						; size = 4
??_GioCircleMoveAttackSkill@@UAEPAXI@Z PROC		; ioCircleMoveAttackSkill::`scalar deleting destructor', COMDAT
; _this$ = ecx
  00000	55		 push	 ebp
  00001	8b ec		 mov	 ebp, esp
  00003	56		 push	 esi
  00004	8b f1		 mov	 esi, ecx
  00006	e8 00 00 00 00	 call	 ??1ioCircleMoveAttackSkill@@UAE@XZ ; ioCircleMoveAttackSkill::~ioCircleMoveAttackSkill
  0000b	f6 45 08 01	 test	 BYTE PTR ___flags$[ebp], 1
  0000f	74 07		 je	 SHORT $LN1@scalar@5
  00011	56		 push	 esi
  00012	e8 00 00 00 00	 call	 ??3@YAXPAX@Z		; operator delete
  00017	59		 pop	 ecx
$LN1@scalar@5:
  00018	8b c6		 mov	 eax, esi
  0001a	5e		 pop	 esi
  0001b	5d		 pop	 ebp
  0001c	c2 04 00	 ret	 4
??_GioCircleMoveAttackSkill@@UAEPAXI@Z ENDP		; ioCircleMoveAttackSkill::`scalar deleting destructor'
_TEXT	ENDS
END
