; Listing generated by Microsoft (R) Optimizing Compiler Version 16.00.30319.01 

	TITLE	D:\Lost Saga For Developer\Youtube\Tutorial\Source\src\LSClient\ioCircleMoveWeaponSkill.cpp
	.686P
	.XMM
	include listing.inc
	.model	flat

INCLUDELIB MSVCRT
INCLUDELIB OLDNAMES

PUBLIC	?_EEM_DS@?$deque@UD3DXVECTOR3@@V?$allocator@UD3DXVECTOR3@@@std@@@std@@2HB ; std::deque<D3DXVECTOR3,std::allocator<D3DXVECTOR3> >::_EEM_DS
;	COMDAT ?_EEM_DS@?$deque@UD3DXVECTOR3@@V?$allocator@UD3DXVECTOR3@@@std@@@std@@2HB
CONST	SEGMENT
?_EEM_DS@?$deque@UD3DXVECTOR3@@V?$allocator@UD3DXVECTOR3@@@std@@@std@@2HB DD 01H ; std::deque<D3DXVECTOR3,std::allocator<D3DXVECTOR3> >::_EEM_DS
CONST	ENDS
PUBLIC	?return1@@YAIXZ					; return1
; Function compile flags: /Ogsp
; File d:\lost saga for developer\youtube\tutorial\source\src\lsclient\stdafx.h
;	COMDAT ?return1@@YAIXZ
_TEXT	SEGMENT
?return1@@YAIXZ PROC					; return1, COMDAT

; 17   : 	__forceinline unsigned int return1() { __asm mov eax, 1 };

  00000	b8 01 00 00 00	 mov	 eax, 1
  00005	c3		 ret	 0
?return1@@YAIXZ ENDP					; return1
_TEXT	ENDS
PUBLIC	?return5@@YAIXZ					; return5
; Function compile flags: /Ogsp
;	COMDAT ?return5@@YAIXZ
_TEXT	SEGMENT
?return5@@YAIXZ PROC					; return5, COMDAT

; 18   : 	__forceinline unsigned int return5() { __asm mov eax, 5 };

  00000	b8 05 00 00 00	 mov	 eax, 5
  00005	c3		 ret	 0
?return5@@YAIXZ ENDP					; return5
_TEXT	ENDS
PUBLIC	?return10@@YAIXZ				; return10
; Function compile flags: /Ogsp
;	COMDAT ?return10@@YAIXZ
_TEXT	SEGMENT
?return10@@YAIXZ PROC					; return10, COMDAT

; 21   : 	__forceinline unsigned int return10() { __asm mov eax, 10 };

  00000	b8 0a 00 00 00	 mov	 eax, 10			; 0000000aH
  00005	c3		 ret	 0
?return10@@YAIXZ ENDP					; return10
_TEXT	ENDS
PUBLIC	?return100@@YAIXZ				; return100
; Function compile flags: /Ogsp
;	COMDAT ?return100@@YAIXZ
_TEXT	SEGMENT
?return100@@YAIXZ PROC					; return100, COMDAT

; 25   : 	__forceinline unsigned int return100() { __asm mov eax, 100 };

  00000	b8 64 00 00 00	 mov	 eax, 100		; 00000064H
  00005	c3		 ret	 0
?return100@@YAIXZ ENDP					; return100
_TEXT	ENDS
PUBLIC	?return1000@@YAIXZ				; return1000
; Function compile flags: /Ogsp
;	COMDAT ?return1000@@YAIXZ
_TEXT	SEGMENT
?return1000@@YAIXZ PROC					; return1000, COMDAT

; 29   : 	__forceinline unsigned int return1000() { __asm mov eax, 1000 };

  00000	b8 e8 03 00 00	 mov	 eax, 1000		; 000003e8H
  00005	c3		 ret	 0
?return1000@@YAIXZ ENDP					; return1000
_TEXT	ENDS
PUBLIC	?GetCharName@ioBaseChar@@QBEABVioHashString@@XZ	; ioBaseChar::GetCharName
; Function compile flags: /Ogsp
; File d:\lost saga for developer\youtube\tutorial\source\src\lsclient\iobasechar.h
;	COMDAT ?GetCharName@ioBaseChar@@QBEABVioHashString@@XZ
_TEXT	SEGMENT
?GetCharName@ioBaseChar@@QBEABVioHashString@@XZ PROC	; ioBaseChar::GetCharName, COMDAT
; _this$ = ecx

; 2594 : 	inline const ioHashString& GetCharName() const { return m_Name; }

  00000	8d 81 d4 02 00
	00		 lea	 eax, DWORD PTR [ecx+724]
  00006	c3		 ret	 0
?GetCharName@ioBaseChar@@QBEABVioHashString@@XZ ENDP	; ioBaseChar::GetCharName
_TEXT	ENDS
PUBLIC	?SetCurJumpPowerAmt@ioBaseChar@@QAEXM@Z		; ioBaseChar::SetCurJumpPowerAmt
EXTRN	__fltused:DWORD
; Function compile flags: /Ogsp
;	COMDAT ?SetCurJumpPowerAmt@ioBaseChar@@QAEXM@Z
_TEXT	SEGMENT
_fAmt$ = 8						; size = 4
?SetCurJumpPowerAmt@ioBaseChar@@QAEXM@Z PROC		; ioBaseChar::SetCurJumpPowerAmt, COMDAT
; _this$ = ecx

; 2628 : 	inline void SetCurJumpPowerAmt( float fAmt ) { m_fCurJumpPowerAmt = fAmt; }

  00000	55		 push	 ebp
  00001	8b ec		 mov	 ebp, esp
  00003	f3 0f 10 45 08	 movss	 xmm0, DWORD PTR _fAmt$[ebp]
  00008	f3 0f 11 81 90
	0e 00 00	 movss	 DWORD PTR [ecx+3728], xmm0
  00010	5d		 pop	 ebp
  00011	c2 04 00	 ret	 4
?SetCurJumpPowerAmt@ioBaseChar@@QAEXM@Z ENDP		; ioBaseChar::SetCurJumpPowerAmt
_TEXT	ENDS
PUBLIC	_sqrtf
EXTRN	__CIsqrt:PROC
; Function compile flags: /Ogsp
; File c:\program files (x86)\microsoft visual studio 10.0\vc\include\math.h
;	COMDAT _sqrtf
_TEXT	SEGMENT
tv69 = 8						; size = 4
__X$ = 8						; size = 4
_sqrtf	PROC						; COMDAT

; 434  :         {return ((float)sqrt((double)_X)); }

  00000	55		 push	 ebp
  00001	8b ec		 mov	 ebp, esp
  00003	d9 45 08	 fld	 DWORD PTR __X$[ebp]
  00006	e8 00 00 00 00	 call	 __CIsqrt
  0000b	d9 5d 08	 fstp	 DWORD PTR tv69[ebp]
  0000e	d9 45 08	 fld	 DWORD PTR tv69[ebp]
  00011	5d		 pop	 ebp
  00012	c3		 ret	 0
_sqrtf	ENDP
_TEXT	ENDS
PUBLIC	?GetRandomSeed@ioBaseChar@@QBEKXZ		; ioBaseChar::GetRandomSeed
; Function compile flags: /Ogsp
; File d:\lost saga for developer\youtube\tutorial\source\src\lsclient\iobasechar.h
;	COMDAT ?GetRandomSeed@ioBaseChar@@QBEKXZ
_TEXT	SEGMENT
?GetRandomSeed@ioBaseChar@@QBEKXZ PROC			; ioBaseChar::GetRandomSeed, COMDAT
; _this$ = ecx

; 3372 : 	inline DWORD GetRandomSeed() const { return m_dwRandomSeed; }

  00000	8b 81 74 16 00
	00		 mov	 eax, DWORD PTR [ecx+5748]
  00006	c3		 ret	 0
?GetRandomSeed@ioBaseChar@@QBEKXZ ENDP			; ioBaseChar::GetRandomSeed
_TEXT	ENDS
PUBLIC	??_7bad_alloc@std@@6B@				; std::bad_alloc::`vftable'
PUBLIC	??0bad_alloc@std@@QAE@PBD@Z			; std::bad_alloc::bad_alloc
PUBLIC	??_R4bad_alloc@std@@6B@				; std::bad_alloc::`RTTI Complete Object Locator'
PUBLIC	??_R0?AVbad_alloc@std@@@8			; std::bad_alloc `RTTI Type Descriptor'
PUBLIC	??_R3bad_alloc@std@@8				; std::bad_alloc::`RTTI Class Hierarchy Descriptor'
PUBLIC	??_R2bad_alloc@std@@8				; std::bad_alloc::`RTTI Base Class Array'
PUBLIC	??_R1A@?0A@EA@bad_alloc@std@@8			; std::bad_alloc::`RTTI Base Class Descriptor at (0,-1,0,64)'
PUBLIC	??_R1A@?0A@EA@exception@std@@8			; std::exception::`RTTI Base Class Descriptor at (0,-1,0,64)'
PUBLIC	??_R0?AVexception@std@@@8			; std::exception `RTTI Type Descriptor'
PUBLIC	??_R3exception@std@@8				; std::exception::`RTTI Class Hierarchy Descriptor'
PUBLIC	??_R2exception@std@@8				; std::exception::`RTTI Base Class Array'
EXTRN	__imp_??0exception@std@@QAE@ABQBD@Z:PROC
EXTRN	??_7type_info@@6B@:QWORD			; type_info::`vftable'
EXTRN	??_Ebad_alloc@std@@UAEPAXI@Z:PROC		; std::bad_alloc::`vector deleting destructor'
EXTRN	?what@exception@std@@UBEPBDXZ:PROC		; std::exception::what
;	COMDAT ??_R2exception@std@@8
; File c:\program files (x86)\microsoft visual studio 10.0\vc\include\exception
rdata$r	SEGMENT
??_R2exception@std@@8 DD FLAT:??_R1A@?0A@EA@exception@std@@8 ; std::exception::`RTTI Base Class Array'
rdata$r	ENDS
;	COMDAT ??_R3exception@std@@8
rdata$r	SEGMENT
??_R3exception@std@@8 DD 00H				; std::exception::`RTTI Class Hierarchy Descriptor'
	DD	00H
	DD	01H
	DD	FLAT:??_R2exception@std@@8
rdata$r	ENDS
;	COMDAT ??_R0?AVexception@std@@@8
_DATA	SEGMENT
??_R0?AVexception@std@@@8 DD FLAT:??_7type_info@@6B@	; std::exception `RTTI Type Descriptor'
	DD	00H
	DB	'.?AVexception@std@@', 00H
_DATA	ENDS
;	COMDAT ??_R1A@?0A@EA@exception@std@@8
rdata$r	SEGMENT
??_R1A@?0A@EA@exception@std@@8 DD FLAT:??_R0?AVexception@std@@@8 ; std::exception::`RTTI Base Class Descriptor at (0,-1,0,64)'
	DD	00H
	DD	00H
	DD	0ffffffffH
	DD	00H
	DD	040H
	DD	FLAT:??_R3exception@std@@8
rdata$r	ENDS
;	COMDAT ??_R1A@?0A@EA@bad_alloc@std@@8
rdata$r	SEGMENT
??_R1A@?0A@EA@bad_alloc@std@@8 DD FLAT:??_R0?AVbad_alloc@std@@@8 ; std::bad_alloc::`RTTI Base Class Descriptor at (0,-1,0,64)'
	DD	01H
	DD	00H
	DD	0ffffffffH
	DD	00H
	DD	040H
	DD	FLAT:??_R3bad_alloc@std@@8
rdata$r	ENDS
;	COMDAT ??_R2bad_alloc@std@@8
rdata$r	SEGMENT
??_R2bad_alloc@std@@8 DD FLAT:??_R1A@?0A@EA@bad_alloc@std@@8 ; std::bad_alloc::`RTTI Base Class Array'
	DD	FLAT:??_R1A@?0A@EA@exception@std@@8
rdata$r	ENDS
;	COMDAT ??_R3bad_alloc@std@@8
rdata$r	SEGMENT
??_R3bad_alloc@std@@8 DD 00H				; std::bad_alloc::`RTTI Class Hierarchy Descriptor'
	DD	00H
	DD	02H
	DD	FLAT:??_R2bad_alloc@std@@8
rdata$r	ENDS
;	COMDAT ??_R0?AVbad_alloc@std@@@8
_DATA	SEGMENT
??_R0?AVbad_alloc@std@@@8 DD FLAT:??_7type_info@@6B@	; std::bad_alloc `RTTI Type Descriptor'
	DD	00H
	DB	'.?AVbad_alloc@std@@', 00H
_DATA	ENDS
;	COMDAT ??_R4bad_alloc@std@@6B@
rdata$r	SEGMENT
??_R4bad_alloc@std@@6B@ DD 00H				; std::bad_alloc::`RTTI Complete Object Locator'
	DD	00H
	DD	00H
	DD	FLAT:??_R0?AVbad_alloc@std@@@8
	DD	FLAT:??_R3bad_alloc@std@@8
rdata$r	ENDS
;	COMDAT ??_7bad_alloc@std@@6B@
CONST	SEGMENT
??_7bad_alloc@std@@6B@ DD FLAT:??_R4bad_alloc@std@@6B@	; std::bad_alloc::`vftable'
	DD	FLAT:??_Ebad_alloc@std@@UAEPAXI@Z
	DD	FLAT:?what@exception@std@@UBEPBDXZ
; Function compile flags: /Ogsp
CONST	ENDS
;	COMDAT ??0bad_alloc@std@@QAE@PBD@Z
_TEXT	SEGMENT
__Message$ = 8						; size = 4
??0bad_alloc@std@@QAE@PBD@Z PROC			; std::bad_alloc::bad_alloc, COMDAT
; _this$ = ecx

; 345  : 		{	// construct from message string

  00000	55		 push	 ebp
  00001	8b ec		 mov	 ebp, esp
  00003	56		 push	 esi
  00004	8d 45 08	 lea	 eax, DWORD PTR __Message$[ebp]
  00007	50		 push	 eax
  00008	8b f1		 mov	 esi, ecx
  0000a	ff 15 00 00 00
	00		 call	 DWORD PTR __imp_??0exception@std@@QAE@ABQBD@Z
  00010	c7 06 00 00 00
	00		 mov	 DWORD PTR [esi], OFFSET ??_7bad_alloc@std@@6B@

; 346  : 		}

  00016	8b c6		 mov	 eax, esi
  00018	5e		 pop	 esi
  00019	5d		 pop	 ebp
  0001a	c2 04 00	 ret	 4
??0bad_alloc@std@@QAE@PBD@Z ENDP			; std::bad_alloc::bad_alloc
_TEXT	ENDS
PUBLIC	??1bad_alloc@std@@UAE@XZ			; std::bad_alloc::~bad_alloc
EXTRN	__imp_??1exception@std@@UAE@XZ:PROC
; Function compile flags: /Ogsp
;	COMDAT ??1bad_alloc@std@@UAE@XZ
_TEXT	SEGMENT
??1bad_alloc@std@@UAE@XZ PROC				; std::bad_alloc::~bad_alloc, COMDAT
; _this$ = ecx

; 354  : 		{	// destroy the object

  00000	c7 01 00 00 00
	00		 mov	 DWORD PTR [ecx], OFFSET ??_7bad_alloc@std@@6B@

; 355  : 		}

  00006	ff 25 00 00 00
	00		 jmp	 DWORD PTR __imp_??1exception@std@@UAE@XZ
??1bad_alloc@std@@UAE@XZ ENDP				; std::bad_alloc::~bad_alloc
_TEXT	ENDS
EXTRN	??3@YAXPAX@Z:PROC				; operator delete
; Function compile flags: /Ogsp
;	COMDAT ??_Gbad_alloc@std@@UAEPAXI@Z
_TEXT	SEGMENT
___flags$ = 8						; size = 4
??_Gbad_alloc@std@@UAEPAXI@Z PROC			; std::bad_alloc::`scalar deleting destructor', COMDAT
; _this$ = ecx
  00000	55		 push	 ebp
  00001	8b ec		 mov	 ebp, esp
  00003	56		 push	 esi
  00004	8b f1		 mov	 esi, ecx
  00006	c7 06 00 00 00
	00		 mov	 DWORD PTR [esi], OFFSET ??_7bad_alloc@std@@6B@
  0000c	ff 15 00 00 00
	00		 call	 DWORD PTR __imp_??1exception@std@@UAE@XZ
  00012	f6 45 08 01	 test	 BYTE PTR ___flags$[ebp], 1
  00016	74 07		 je	 SHORT $LN1@scalar
  00018	56		 push	 esi
  00019	e8 00 00 00 00	 call	 ??3@YAXPAX@Z		; operator delete
  0001e	59		 pop	 ecx
$LN1@scalar:
  0001f	8b c6		 mov	 eax, esi
  00021	5e		 pop	 esi
  00022	5d		 pop	 ebp
  00023	c2 04 00	 ret	 4
??_Gbad_alloc@std@@UAEPAXI@Z ENDP			; std::bad_alloc::`scalar deleting destructor'
_TEXT	ENDS
PUBLIC	??2@YAPAXIPAX@Z					; operator new
; Function compile flags: /Ogsp
; File c:\program files (x86)\microsoft visual studio 10.0\vc\include\new
;	COMDAT ??2@YAPAXIPAX@Z
_TEXT	SEGMENT
___formal$ = 8						; size = 4
__Where$ = 12						; size = 4
??2@YAPAXIPAX@Z PROC					; operator new, COMDAT

; 56   : 	{	// construct array with placement at _Where

  00000	55		 push	 ebp
  00001	8b ec		 mov	 ebp, esp

; 57   : 	return (_Where);

  00003	8b 45 0c	 mov	 eax, DWORD PTR __Where$[ebp]

; 58   : 	}

  00006	5d		 pop	 ebp
  00007	c3		 ret	 0
??2@YAPAXIPAX@Z ENDP					; operator new
_TEXT	ENDS
PUBLIC	??3@YAXPAX0@Z					; operator delete
; Function compile flags: /Ogsp
;	COMDAT ??3@YAXPAX0@Z
_TEXT	SEGMENT
___formal$ = 8						; size = 4
___formal$ = 12						; size = 4
??3@YAXPAX0@Z PROC					; operator delete, COMDAT

; 62   : 	}

  00000	c3		 ret	 0
??3@YAXPAX0@Z ENDP					; operator delete
_TEXT	ENDS
PUBLIC	?GetType@ioGrowthUpInfo@@QBE?AW4GrowthType@@XZ	; ioGrowthUpInfo::GetType
; Function compile flags: /Ogsp
; File d:\lost saga for developer\youtube\tutorial\source\src\lsclient\iogrowthupinfo.h
;	COMDAT ?GetType@ioGrowthUpInfo@@QBE?AW4GrowthType@@XZ
_TEXT	SEGMENT
?GetType@ioGrowthUpInfo@@QBE?AW4GrowthType@@XZ PROC	; ioGrowthUpInfo::GetType, COMDAT
; _this$ = ecx

; 23   : 	inline GrowthType GetType() const { return m_GrowthType; }

  00000	8b 41 04	 mov	 eax, DWORD PTR [ecx+4]
  00003	c3		 ret	 0
?GetType@ioGrowthUpInfo@@QBE?AW4GrowthType@@XZ ENDP	; ioGrowthUpInfo::GetType
_TEXT	ENDS
PUBLIC	??_R0?AVioGrowthUpInfo@@@8			; ioGrowthUpInfo `RTTI Type Descriptor'
PUBLIC	??_R0?AVioGrowthNormalUpInfo@@@8		; ioGrowthNormalUpInfo `RTTI Type Descriptor'
PUBLIC	?ToNormalUpInfo@@YAPAVioGrowthNormalUpInfo@@PAVioGrowthUpInfo@@@Z ; ToNormalUpInfo
EXTRN	___RTDynamicCast:PROC
;	COMDAT ??_R0?AVioGrowthUpInfo@@@8
_DATA	SEGMENT
??_R0?AVioGrowthUpInfo@@@8 DD FLAT:??_7type_info@@6B@	; ioGrowthUpInfo `RTTI Type Descriptor'
	DD	00H
	DB	'.?AVioGrowthUpInfo@@', 00H
_DATA	ENDS
;	COMDAT ??_R0?AVioGrowthNormalUpInfo@@@8
_DATA	SEGMENT
??_R0?AVioGrowthNormalUpInfo@@@8 DD FLAT:??_7type_info@@6B@ ; ioGrowthNormalUpInfo `RTTI Type Descriptor'
	DD	00H
	DB	'.?AVioGrowthNormalUpInfo@@', 00H
; Function compile flags: /Ogsp
_DATA	ENDS
;	COMDAT ?ToNormalUpInfo@@YAPAVioGrowthNormalUpInfo@@PAVioGrowthUpInfo@@@Z
_TEXT	SEGMENT
_pUpInfo$ = 8						; size = 4
?ToNormalUpInfo@@YAPAVioGrowthNormalUpInfo@@PAVioGrowthUpInfo@@@Z PROC ; ToNormalUpInfo, COMDAT

; 59   : {

  00000	55		 push	 ebp
  00001	8b ec		 mov	 ebp, esp

; 60   : 	if( !pUpInfo || pUpInfo->GetType() == GT_NONE )

  00003	8b 4d 08	 mov	 ecx, DWORD PTR _pUpInfo$[ebp]
  00006	85 c9		 test	 ecx, ecx
  00008	74 39		 je	 SHORT $LN6@ToNormalUp
  0000a	8b 41 04	 mov	 eax, DWORD PTR [ecx+4]
  0000d	85 c0		 test	 eax, eax
  0000f	74 32		 je	 SHORT $LN6@ToNormalUp

; 62   : 
; 63   : 	if( pUpInfo->GetType() == GT_CHAR_ATTACK || pUpInfo->GetType() == GT_SKILL_ATTACK )

  00011	83 f8 01	 cmp	 eax, 1
  00014	74 2d		 je	 SHORT $LN6@ToNormalUp
  00016	83 f8 07	 cmp	 eax, 7
  00019	74 28		 je	 SHORT $LN6@ToNormalUp

; 64   : 		return NULL;
; 65   : 	if( pUpInfo->GetType() == GT_BLOW_PUSH )

  0001b	83 f8 1e	 cmp	 eax, 30			; 0000001eH

; 66   : 		return NULL;

  0001e	74 23		 je	 SHORT $LN6@ToNormalUp

; 67   : 	if( pUpInfo->GetType() == GT_TELEPORT_ANI_RATE )

  00020	83 f8 20	 cmp	 eax, 32			; 00000020H

; 68   : 		return NULL;

  00023	74 1e		 je	 SHORT $LN6@ToNormalUp

; 69   : 	if( pUpInfo->GetType() == GT_SKILL_ATTACK_FORCE )

  00025	83 f8 1c	 cmp	 eax, 28			; 0000001cH

; 70   : 		return NULL;

  00028	74 19		 je	 SHORT $LN6@ToNormalUp

; 71   : 
; 72   : 	return dynamic_cast< ioGrowthNormalUpInfo* >( pUpInfo );

  0002a	6a 00		 push	 0
  0002c	68 00 00 00 00	 push	 OFFSET ??_R0?AVioGrowthNormalUpInfo@@@8
  00031	68 00 00 00 00	 push	 OFFSET ??_R0?AVioGrowthUpInfo@@@8
  00036	6a 00		 push	 0
  00038	51		 push	 ecx
  00039	e8 00 00 00 00	 call	 ___RTDynamicCast
  0003e	83 c4 14	 add	 esp, 20			; 00000014H

; 73   : }

  00041	5d		 pop	 ebp
  00042	c3		 ret	 0
$LN6@ToNormalUp:

; 61   : 		return NULL;

  00043	33 c0		 xor	 eax, eax

; 73   : }

  00045	5d		 pop	 ebp
  00046	c3		 ret	 0
?ToNormalUpInfo@@YAPAVioGrowthNormalUpInfo@@PAVioGrowthUpInfo@@@Z ENDP ; ToNormalUpInfo
_TEXT	ENDS
PUBLIC	?_Adopt@_Iterator_base0@std@@QAEXPBX@Z		; std::_Iterator_base0::_Adopt
; Function compile flags: /Ogsp
; File c:\program files (x86)\microsoft visual studio 10.0\vc\include\xutility
;	COMDAT ?_Adopt@_Iterator_base0@std@@QAEXPBX@Z
_TEXT	SEGMENT
___formal$ = 8						; size = 4
?_Adopt@_Iterator_base0@std@@QAEXPBX@Z PROC		; std::_Iterator_base0::_Adopt, COMDAT
; _this$ = ecx

; 49   : 		}

  00000	c2 04 00	 ret	 4
?_Adopt@_Iterator_base0@std@@QAEXPBX@Z ENDP		; std::_Iterator_base0::_Adopt
_TEXT	ENDS
PUBLIC	??_R0?AVioWeapon@@@8				; ioWeapon `RTTI Type Descriptor'
PUBLIC	??_R0?AVioPrisonWeapon@@@8			; ioPrisonWeapon `RTTI Type Descriptor'
PUBLIC	?ToPrisonWeapon@@YAPAVioPrisonWeapon@@PAVioWeapon@@@Z ; ToPrisonWeapon
;	COMDAT ??_R0?AVioWeapon@@@8
; File d:\lost saga for developer\youtube\tutorial\source\src\lsclient\ioprisonweapon.h
_DATA	SEGMENT
??_R0?AVioWeapon@@@8 DD FLAT:??_7type_info@@6B@		; ioWeapon `RTTI Type Descriptor'
	DD	00H
	DB	'.?AVioWeapon@@', 00H
_DATA	ENDS
;	COMDAT ??_R0?AVioPrisonWeapon@@@8
_DATA	SEGMENT
??_R0?AVioPrisonWeapon@@@8 DD FLAT:??_7type_info@@6B@	; ioPrisonWeapon `RTTI Type Descriptor'
	DD	00H
	DB	'.?AVioPrisonWeapon@@', 00H
; Function compile flags: /Ogsp
_DATA	ENDS
;	COMDAT ?ToPrisonWeapon@@YAPAVioPrisonWeapon@@PAVioWeapon@@@Z
_TEXT	SEGMENT
_pWeapon$ = 8						; size = 4
?ToPrisonWeapon@@YAPAVioPrisonWeapon@@PAVioWeapon@@@Z PROC ; ToPrisonWeapon, COMDAT

; 156  : {

  00000	55		 push	 ebp
  00001	8b ec		 mov	 ebp, esp
  00003	56		 push	 esi

; 157  : 	if( !pWeapon || pWeapon->GetType() != ioWeapon::WT_PRISON_WEAPON )

  00004	8b 75 08	 mov	 esi, DWORD PTR _pWeapon$[ebp]
  00007	85 f6		 test	 esi, esi
  00009	74 28		 je	 SHORT $LN1@ToPrisonWe
  0000b	8b 06		 mov	 eax, DWORD PTR [esi]
  0000d	8b ce		 mov	 ecx, esi
  0000f	ff 90 10 01 00
	00		 call	 DWORD PTR [eax+272]
  00015	83 f8 5d	 cmp	 eax, 93			; 0000005dH
  00018	75 19		 jne	 SHORT $LN1@ToPrisonWe

; 159  : 
; 160  : 	return dynamic_cast< ioPrisonWeapon* >( pWeapon );

  0001a	6a 00		 push	 0
  0001c	68 00 00 00 00	 push	 OFFSET ??_R0?AVioPrisonWeapon@@@8
  00021	68 00 00 00 00	 push	 OFFSET ??_R0?AVioWeapon@@@8
  00026	6a 00		 push	 0
  00028	56		 push	 esi
  00029	e8 00 00 00 00	 call	 ___RTDynamicCast
  0002e	83 c4 14	 add	 esp, 20			; 00000014H
  00031	eb 02		 jmp	 SHORT $LN3@ToPrisonWe
$LN1@ToPrisonWe:

; 158  : 		return NULL;

  00033	33 c0		 xor	 eax, eax
$LN3@ToPrisonWe:
  00035	5e		 pop	 esi

; 161  : }

  00036	5d		 pop	 ebp
  00037	c3		 ret	 0
?ToPrisonWeapon@@YAPAVioPrisonWeapon@@PAVioWeapon@@@Z ENDP ; ToPrisonWeapon
_TEXT	ENDS
PUBLIC	?SetWeaponDeadIndex@ioDummyBuff@@QAEXK@Z	; ioDummyBuff::SetWeaponDeadIndex
; Function compile flags: /Ogsp
; File d:\lost saga for developer\youtube\tutorial\source\src\lsclient\iodummybuff.h
;	COMDAT ?SetWeaponDeadIndex@ioDummyBuff@@QAEXK@Z
_TEXT	SEGMENT
_dwWeaponDeadIndex$ = 8					; size = 4
?SetWeaponDeadIndex@ioDummyBuff@@QAEXK@Z PROC		; ioDummyBuff::SetWeaponDeadIndex, COMDAT
; _this$ = ecx

; 45   : 	void SetWeaponDeadIndex( DWORD dwWeaponDeadIndex ){ m_dwWeaponDeadIndex = dwWeaponDeadIndex; }

  00000	55		 push	 ebp
  00001	8b ec		 mov	 ebp, esp
  00003	8b 45 08	 mov	 eax, DWORD PTR _dwWeaponDeadIndex$[ebp]
  00006	89 81 2c 0a 00
	00		 mov	 DWORD PTR [ecx+2604], eax
  0000c	5d		 pop	 ebp
  0000d	c2 04 00	 ret	 4
?SetWeaponDeadIndex@ioDummyBuff@@QAEXK@Z ENDP		; ioDummyBuff::SetWeaponDeadIndex
_TEXT	ENDS
PUBLIC	??0D3DXVECTOR3@@QAE@XZ				; D3DXVECTOR3::D3DXVECTOR3
; Function compile flags: /Ogsp
; File c:\program files (x86)\microsoft directx sdk (june 2010)\include\d3dx9math.h
;	COMDAT ??0D3DXVECTOR3@@QAE@XZ
_TEXT	SEGMENT
??0D3DXVECTOR3@@QAE@XZ PROC				; D3DXVECTOR3::D3DXVECTOR3, COMDAT
; _this$ = ecx

; 165  :     D3DXVECTOR3() {};

  00000	8b c1		 mov	 eax, ecx
  00002	c3		 ret	 0
??0D3DXVECTOR3@@QAE@XZ ENDP				; D3DXVECTOR3::D3DXVECTOR3
_TEXT	ENDS
PUBLIC	??0D3DXQUATERNION@@QAE@XZ			; D3DXQUATERNION::D3DXQUATERNION
; Function compile flags: /Ogsp
;	COMDAT ??0D3DXQUATERNION@@QAE@XZ
_TEXT	SEGMENT
??0D3DXQUATERNION@@QAE@XZ PROC				; D3DXQUATERNION::D3DXQUATERNION, COMDAT
; _this$ = ecx

; 429  :     D3DXQUATERNION() {}

  00000	8b c1		 mov	 eax, ecx
  00002	c3		 ret	 0
??0D3DXQUATERNION@@QAE@XZ ENDP				; D3DXQUATERNION::D3DXQUATERNION
_TEXT	ENDS
PUBLIC	??0D3DXVECTOR3@@QAE@MMM@Z			; D3DXVECTOR3::D3DXVECTOR3
; Function compile flags: /Ogsp
; File c:\program files (x86)\microsoft directx sdk (june 2010)\include\d3dx9math.inl
;	COMDAT ??0D3DXVECTOR3@@QAE@MMM@Z
_TEXT	SEGMENT
_fx$ = 8						; size = 4
_fy$ = 12						; size = 4
_fz$ = 16						; size = 4
??0D3DXVECTOR3@@QAE@MMM@Z PROC				; D3DXVECTOR3::D3DXVECTOR3, COMDAT
; _this$ = ecx

; 303  : {

  00000	55		 push	 ebp
  00001	8b ec		 mov	 ebp, esp

; 304  :     x = fx;

  00003	f3 0f 10 45 08	 movss	 xmm0, DWORD PTR _fx$[ebp]
  00008	8b c1		 mov	 eax, ecx
  0000a	f3 0f 11 00	 movss	 DWORD PTR [eax], xmm0

; 305  :     y = fy;

  0000e	f3 0f 10 45 0c	 movss	 xmm0, DWORD PTR _fy$[ebp]
  00013	f3 0f 11 40 04	 movss	 DWORD PTR [eax+4], xmm0

; 306  :     z = fz;

  00018	f3 0f 10 45 10	 movss	 xmm0, DWORD PTR _fz$[ebp]
  0001d	f3 0f 11 40 08	 movss	 DWORD PTR [eax+8], xmm0

; 307  : }

  00022	5d		 pop	 ebp
  00023	c2 0c 00	 ret	 12			; 0000000cH
??0D3DXVECTOR3@@QAE@MMM@Z ENDP				; D3DXVECTOR3::D3DXVECTOR3
_TEXT	ENDS
PUBLIC	__mask@@NegFloat@
PUBLIC	??GD3DXVECTOR3@@QBE?AU0@XZ			; D3DXVECTOR3::operator-
;	COMDAT __mask@@NegFloat@
CONST	SEGMENT
__mask@@NegFloat@ DB 00H, 00H, 00H, 080H, 00H, 00H, 00H, 080H, 00H, 00H, 00H
	DB	080H, 00H, 00H, 00H, 080H
; Function compile flags: /Ogsp
CONST	ENDS
;	COMDAT ??GD3DXVECTOR3@@QBE?AU0@XZ
_TEXT	SEGMENT
___$ReturnUdt$ = 8					; size = 4
??GD3DXVECTOR3@@QBE?AU0@XZ PROC				; D3DXVECTOR3::operator-, COMDAT
; _this$ = ecx

; 372  : {

  00000	55		 push	 ebp
  00001	8b ec		 mov	 ebp, esp

; 373  :     return D3DXVECTOR3(-x, -y, -z);

  00003	f3 0f 10 05 00
	00 00 00	 movss	 xmm0, DWORD PTR __mask@@NegFloat@
  0000b	8b 45 08	 mov	 eax, DWORD PTR ___$ReturnUdt$[ebp]
  0000e	f3 0f 10 09	 movss	 xmm1, DWORD PTR [ecx]
  00012	0f 57 c8	 xorps	 xmm1, xmm0
  00015	f3 0f 11 08	 movss	 DWORD PTR [eax], xmm1
  00019	f3 0f 10 49 04	 movss	 xmm1, DWORD PTR [ecx+4]
  0001e	0f 57 c8	 xorps	 xmm1, xmm0
  00021	f3 0f 11 48 04	 movss	 DWORD PTR [eax+4], xmm1
  00026	f3 0f 10 49 08	 movss	 xmm1, DWORD PTR [ecx+8]
  0002b	0f 57 c8	 xorps	 xmm1, xmm0
  0002e	f3 0f 11 48 08	 movss	 DWORD PTR [eax+8], xmm1

; 374  : }

  00033	5d		 pop	 ebp
  00034	c2 04 00	 ret	 4
??GD3DXVECTOR3@@QBE?AU0@XZ ENDP				; D3DXVECTOR3::operator-
_TEXT	ENDS
PUBLIC	??GD3DXVECTOR3@@QBE?AU0@ABU0@@Z			; D3DXVECTOR3::operator-
; Function compile flags: /Ogsp
;	COMDAT ??GD3DXVECTOR3@@QBE?AU0@ABU0@@Z
_TEXT	SEGMENT
___$ReturnUdt$ = 8					; size = 4
_v$ = 12						; size = 4
??GD3DXVECTOR3@@QBE?AU0@ABU0@@Z PROC			; D3DXVECTOR3::operator-, COMDAT
; _this$ = ecx

; 386  : {

  00000	55		 push	 ebp
  00001	8b ec		 mov	 ebp, esp

; 387  :     return D3DXVECTOR3(x - v.x, y - v.y, z - v.z);

  00003	8b 55 0c	 mov	 edx, DWORD PTR _v$[ebp]
  00006	f3 0f 10 01	 movss	 xmm0, DWORD PTR [ecx]
  0000a	f3 0f 10 0a	 movss	 xmm1, DWORD PTR [edx]
  0000e	8b 45 08	 mov	 eax, DWORD PTR ___$ReturnUdt$[ebp]
  00011	0f 5a c0	 cvtps2pd xmm0, xmm0
  00014	0f 5a c9	 cvtps2pd xmm1, xmm1
  00017	f2 0f 5c c1	 subsd	 xmm0, xmm1
  0001b	f3 0f 10 4a 04	 movss	 xmm1, DWORD PTR [edx+4]
  00020	66 0f 5a c0	 cvtpd2ps xmm0, xmm0
  00024	f3 0f 11 00	 movss	 DWORD PTR [eax], xmm0
  00028	f3 0f 10 41 04	 movss	 xmm0, DWORD PTR [ecx+4]
  0002d	0f 5a c0	 cvtps2pd xmm0, xmm0
  00030	0f 5a c9	 cvtps2pd xmm1, xmm1
  00033	f2 0f 5c c1	 subsd	 xmm0, xmm1
  00037	f3 0f 10 4a 08	 movss	 xmm1, DWORD PTR [edx+8]
  0003c	66 0f 5a c0	 cvtpd2ps xmm0, xmm0
  00040	f3 0f 11 40 04	 movss	 DWORD PTR [eax+4], xmm0
  00045	f3 0f 10 41 08	 movss	 xmm0, DWORD PTR [ecx+8]
  0004a	0f 5a c0	 cvtps2pd xmm0, xmm0
  0004d	0f 5a c9	 cvtps2pd xmm1, xmm1
  00050	f2 0f 5c c1	 subsd	 xmm0, xmm1
  00054	66 0f 5a c0	 cvtpd2ps xmm0, xmm0
  00058	f3 0f 11 40 08	 movss	 DWORD PTR [eax+8], xmm0

; 388  : }

  0005d	5d		 pop	 ebp
  0005e	c2 08 00	 ret	 8
??GD3DXVECTOR3@@QBE?AU0@ABU0@@Z ENDP			; D3DXVECTOR3::operator-
_TEXT	ENDS
PUBLIC	?StartPreDelayAnimation@ioCircleMoveWeaponSkill@@MAE_NPAVioBaseChar@@@Z ; ioCircleMoveWeaponSkill::StartPreDelayAnimation
EXTRN	?StartPreDelayAnimation@ioNormalSkill@@MAE_NPAVioBaseChar@@@Z:PROC ; ioNormalSkill::StartPreDelayAnimation
; Function compile flags: /Ogsp
; File d:\lost saga for developer\youtube\tutorial\source\src\lsclient\iocirclemoveweaponskill.cpp
;	COMDAT ?StartPreDelayAnimation@ioCircleMoveWeaponSkill@@MAE_NPAVioBaseChar@@@Z
_TEXT	SEGMENT
_pChar$ = 8						; size = 4
?StartPreDelayAnimation@ioCircleMoveWeaponSkill@@MAE_NPAVioBaseChar@@@Z PROC ; ioCircleMoveWeaponSkill::StartPreDelayAnimation, COMDAT
; _this$ = ecx

; 342  : {

  00000	55		 push	 ebp
  00001	8b ec		 mov	 ebp, esp

; 343  : 	if( !ioNormalSkill::StartPreDelayAnimation( pChar ) )

  00003	ff 75 08	 push	 DWORD PTR _pChar$[ebp]
  00006	e8 00 00 00 00	 call	 ?StartPreDelayAnimation@ioNormalSkill@@MAE_NPAVioBaseChar@@@Z ; ioNormalSkill::StartPreDelayAnimation
  0000b	84 c0		 test	 al, al
  0000d	0f 95 c0	 setne	 al

; 344  : 		return false;
; 345  : 
; 346  : 	return true;
; 347  : }

  00010	5d		 pop	 ebp
  00011	c2 04 00	 ret	 4
?StartPreDelayAnimation@ioCircleMoveWeaponSkill@@MAE_NPAVioBaseChar@@@Z ENDP ; ioCircleMoveWeaponSkill::StartPreDelayAnimation
_TEXT	ENDS
PUBLIC	?CheckUseItemMesh@ioCircleMoveWeaponSkill@@UAE_NXZ ; ioCircleMoveWeaponSkill::CheckUseItemMesh
; Function compile flags: /Ogsp
;	COMDAT ?CheckUseItemMesh@ioCircleMoveWeaponSkill@@UAE_NXZ
_TEXT	SEGMENT
?CheckUseItemMesh@ioCircleMoveWeaponSkill@@UAE_NXZ PROC	; ioCircleMoveWeaponSkill::CheckUseItemMesh, COMDAT
; _this$ = ecx

; 618  : 	return m_bUseItemMesh;

  00000	8a 81 08 0f 00
	00		 mov	 al, BYTE PTR [ecx+3848]

; 619  : }

  00006	c3		 ret	 0
?CheckUseItemMesh@ioCircleMoveWeaponSkill@@UAE_NXZ ENDP	; ioCircleMoveWeaponSkill::CheckUseItemMesh
_TEXT	ENDS
PUBLIC	?empty@?$vector@UBuffInfoStruct@@V?$allocator@UBuffInfoStruct@@@std@@@std@@QBE_NXZ ; std::vector<BuffInfoStruct,std::allocator<BuffInfoStruct> >::empty
; Function compile flags: /Ogsp
; File c:\program files (x86)\microsoft visual studio 10.0\vc\include\vector
;	COMDAT ?empty@?$vector@UBuffInfoStruct@@V?$allocator@UBuffInfoStruct@@@std@@@std@@QBE_NXZ
_TEXT	SEGMENT
?empty@?$vector@UBuffInfoStruct@@V?$allocator@UBuffInfoStruct@@@std@@@std@@QBE_NXZ PROC ; std::vector<BuffInfoStruct,std::allocator<BuffInfoStruct> >::empty, COMDAT
; _this$ = ecx

; 889  : 		return (this->_Myfirst == this->_Mylast);

  00000	8b 01		 mov	 eax, DWORD PTR [ecx]
  00002	2b 41 04	 sub	 eax, DWORD PTR [ecx+4]
  00005	f7 d8		 neg	 eax
  00007	1b c0		 sbb	 eax, eax
  00009	40		 inc	 eax

; 890  : 		}

  0000a	c3		 ret	 0
?empty@?$vector@UBuffInfoStruct@@V?$allocator@UBuffInfoStruct@@@std@@@std@@QBE_NXZ ENDP ; std::vector<BuffInfoStruct,std::allocator<BuffInfoStruct> >::empty
_TEXT	ENDS
PUBLIC	??A?$vector@UBuffInfoStruct@@V?$allocator@UBuffInfoStruct@@@std@@@std@@QAEAAUBuffInfoStruct@@I@Z ; std::vector<BuffInfoStruct,std::allocator<BuffInfoStruct> >::operator[]
; Function compile flags: /Ogsp
;	COMDAT ??A?$vector@UBuffInfoStruct@@V?$allocator@UBuffInfoStruct@@@std@@@std@@QAEAAUBuffInfoStruct@@I@Z
_TEXT	SEGMENT
__Pos$ = 8						; size = 4
??A?$vector@UBuffInfoStruct@@V?$allocator@UBuffInfoStruct@@@std@@@std@@QAEAAUBuffInfoStruct@@I@Z PROC ; std::vector<BuffInfoStruct,std::allocator<BuffInfoStruct> >::operator[], COMDAT
; _this$ = ecx

; 928  : 		{	// subscript mutable sequence

  00000	55		 push	 ebp
  00001	8b ec		 mov	 ebp, esp

; 929  :  #if _ITERATOR_DEBUG_LEVEL == 2
; 930  : 		if (size() <= _Pos)
; 931  : 			{	// report error
; 932  : 			_DEBUG_ERROR("vector subscript out of range");
; 933  : 			_SCL_SECURE_OUT_OF_RANGE;
; 934  : 			}
; 935  : 
; 936  :  #elif _ITERATOR_DEBUG_LEVEL == 1
; 937  : 		_SCL_SECURE_VALIDATE_RANGE(_Pos < size());
; 938  :  #endif /* _ITERATOR_DEBUG_LEVEL */
; 939  : 
; 940  : 		return (*(this->_Myfirst + _Pos));

  00003	8b 45 08	 mov	 eax, DWORD PTR __Pos$[ebp]
  00006	6b c0 14	 imul	 eax, 20			; 00000014H
  00009	03 01		 add	 eax, DWORD PTR [ecx]

; 941  : 		}

  0000b	5d		 pop	 ebp
  0000c	c2 04 00	 ret	 4
??A?$vector@UBuffInfoStruct@@V?$allocator@UBuffInfoStruct@@@std@@@std@@QAEAAUBuffInfoStruct@@I@Z ENDP ; std::vector<BuffInfoStruct,std::allocator<BuffInfoStruct> >::operator[]
_TEXT	ENDS
PUBLIC	?size@?$vector@UWeaponMoveInfo@@V?$allocator@UWeaponMoveInfo@@@std@@@std@@QBEIXZ ; std::vector<WeaponMoveInfo,std::allocator<WeaponMoveInfo> >::size
; Function compile flags: /Ogsp
;	COMDAT ?size@?$vector@UWeaponMoveInfo@@V?$allocator@UWeaponMoveInfo@@@std@@@std@@QBEIXZ
_TEXT	SEGMENT
?size@?$vector@UWeaponMoveInfo@@V?$allocator@UWeaponMoveInfo@@@std@@@std@@QBEIXZ PROC ; std::vector<WeaponMoveInfo,std::allocator<WeaponMoveInfo> >::size, COMDAT
; _this$ = ecx

; 879  : 		return (this->_Mylast - this->_Myfirst);

  00000	8b 41 04	 mov	 eax, DWORD PTR [ecx+4]
  00003	2b 01		 sub	 eax, DWORD PTR [ecx]
  00005	6a 14		 push	 20			; 00000014H
  00007	99		 cdq
  00008	59		 pop	 ecx
  00009	f7 f9		 idiv	 ecx

; 880  : 		}

  0000b	c3		 ret	 0
?size@?$vector@UWeaponMoveInfo@@V?$allocator@UWeaponMoveInfo@@@std@@@std@@QBEIXZ ENDP ; std::vector<WeaponMoveInfo,std::allocator<WeaponMoveInfo> >::size
_TEXT	ENDS
PUBLIC	??A?$vector@UWeaponMoveInfo@@V?$allocator@UWeaponMoveInfo@@@std@@@std@@QAEAAUWeaponMoveInfo@@I@Z ; std::vector<WeaponMoveInfo,std::allocator<WeaponMoveInfo> >::operator[]
; Function compile flags: /Ogsp
;	COMDAT ??A?$vector@UWeaponMoveInfo@@V?$allocator@UWeaponMoveInfo@@@std@@@std@@QAEAAUWeaponMoveInfo@@I@Z
_TEXT	SEGMENT
__Pos$ = 8						; size = 4
??A?$vector@UWeaponMoveInfo@@V?$allocator@UWeaponMoveInfo@@@std@@@std@@QAEAAUWeaponMoveInfo@@I@Z PROC ; std::vector<WeaponMoveInfo,std::allocator<WeaponMoveInfo> >::operator[], COMDAT
; _this$ = ecx

; 928  : 		{	// subscript mutable sequence

  00000	55		 push	 ebp
  00001	8b ec		 mov	 ebp, esp

; 929  :  #if _ITERATOR_DEBUG_LEVEL == 2
; 930  : 		if (size() <= _Pos)
; 931  : 			{	// report error
; 932  : 			_DEBUG_ERROR("vector subscript out of range");
; 933  : 			_SCL_SECURE_OUT_OF_RANGE;
; 934  : 			}
; 935  : 
; 936  :  #elif _ITERATOR_DEBUG_LEVEL == 1
; 937  : 		_SCL_SECURE_VALIDATE_RANGE(_Pos < size());
; 938  :  #endif /* _ITERATOR_DEBUG_LEVEL */
; 939  : 
; 940  : 		return (*(this->_Myfirst + _Pos));

  00003	8b 45 08	 mov	 eax, DWORD PTR __Pos$[ebp]
  00006	6b c0 14	 imul	 eax, 20			; 00000014H
  00009	03 01		 add	 eax, DWORD PTR [ecx]

; 941  : 		}

  0000b	5d		 pop	 ebp
  0000c	c2 04 00	 ret	 4
??A?$vector@UWeaponMoveInfo@@V?$allocator@UWeaponMoveInfo@@@std@@@std@@QAEAAUWeaponMoveInfo@@I@Z ENDP ; std::vector<WeaponMoveInfo,std::allocator<WeaponMoveInfo> >::operator[]
_TEXT	ENDS
PUBLIC	?D3DXVec3Length@@YAMPBUD3DXVECTOR3@@@Z		; D3DXVec3Length
; Function compile flags: /Ogsp
; File c:\program files (x86)\microsoft directx sdk (june 2010)\include\d3dx9math.inl
;	COMDAT ?D3DXVec3Length@@YAMPBUD3DXVECTOR3@@@Z
_TEXT	SEGMENT
tv169 = 8						; size = 4
tv160 = 8						; size = 4
_pV$ = 8						; size = 4
?D3DXVec3Length@@YAMPBUD3DXVECTOR3@@@Z PROC		; D3DXVec3Length, COMDAT

; 1710 : {

  00000	55		 push	 ebp
  00001	8b ec		 mov	 ebp, esp

; 1711 : #ifdef D3DX_DEBUG
; 1712 :     if(!pV)
; 1713 :         return 0.0f;
; 1714 : #endif
; 1715 : 
; 1716 : #ifdef __cplusplus
; 1717 :     return sqrtf(pV->x * pV->x + pV->y * pV->y + pV->z * pV->z);

  00003	8b 45 08	 mov	 eax, DWORD PTR _pV$[ebp]
  00006	d9 40 04	 fld	 DWORD PTR [eax+4]
  00009	d9 00		 fld	 DWORD PTR [eax]
  0000b	d9 40 08	 fld	 DWORD PTR [eax+8]
  0000e	d9 c1		 fld	 ST(1)
  00010	de ca		 fmulp	 ST(2), ST(0)
  00012	d9 c2		 fld	 ST(2)
  00014	de cb		 fmulp	 ST(3), ST(0)
  00016	d9 c9		 fxch	 ST(1)
  00018	de c2		 faddp	 ST(2), ST(0)
  0001a	d9 c0		 fld	 ST(0)
  0001c	de c9		 fmulp	 ST(1), ST(0)
  0001e	de c1		 faddp	 ST(1), ST(0)
  00020	d9 5d 08	 fstp	 DWORD PTR tv169[ebp]
  00023	d9 45 08	 fld	 DWORD PTR tv169[ebp]
  00026	e8 00 00 00 00	 call	 __CIsqrt
  0002b	d9 5d 08	 fstp	 DWORD PTR tv160[ebp]
  0002e	d9 45 08	 fld	 DWORD PTR tv160[ebp]

; 1718 : #else
; 1719 :     return (FLOAT) sqrt(pV->x * pV->x + pV->y * pV->y + pV->z * pV->z);
; 1720 : #endif
; 1721 : }

  00031	5d		 pop	 ebp
  00032	c3		 ret	 0
?D3DXVec3Length@@YAMPBUD3DXVECTOR3@@@Z ENDP		; D3DXVec3Length
_TEXT	ENDS
PUBLIC	?_Inside@?$vector@UWeaponInfo@@V?$allocator@UWeaponInfo@@@std@@@std@@IBE_NPBUWeaponInfo@@@Z ; std::vector<WeaponInfo,std::allocator<WeaponInfo> >::_Inside
; Function compile flags: /Ogsp
; File c:\program files (x86)\microsoft visual studio 10.0\vc\include\vector
;	COMDAT ?_Inside@?$vector@UWeaponInfo@@V?$allocator@UWeaponInfo@@@std@@@std@@IBE_NPBUWeaponInfo@@@Z
_TEXT	SEGMENT
__Ptr$ = 8						; size = 4
?_Inside@?$vector@UWeaponInfo@@V?$allocator@UWeaponInfo@@@std@@@std@@IBE_NPBUWeaponInfo@@@Z PROC ; std::vector<WeaponInfo,std::allocator<WeaponInfo> >::_Inside, COMDAT
; _this$ = ecx

; 1285 : 		{	// test if _Ptr points inside vector

  00000	55		 push	 ebp
  00001	8b ec		 mov	 ebp, esp

; 1286 : 		return (_Ptr < this->_Mylast && this->_Myfirst <= _Ptr);

  00003	8b 45 08	 mov	 eax, DWORD PTR __Ptr$[ebp]
  00006	3b 41 04	 cmp	 eax, DWORD PTR [ecx+4]
  00009	73 09		 jae	 SHORT $LN3@Inside
  0000b	39 01		 cmp	 DWORD PTR [ecx], eax
  0000d	77 05		 ja	 SHORT $LN3@Inside
  0000f	33 c0		 xor	 eax, eax
  00011	40		 inc	 eax
  00012	eb 02		 jmp	 SHORT $LN4@Inside
$LN3@Inside:
  00014	33 c0		 xor	 eax, eax
$LN4@Inside:

; 1287 : 		}

  00016	5d		 pop	 ebp
  00017	c2 04 00	 ret	 4
?_Inside@?$vector@UWeaponInfo@@V?$allocator@UWeaponInfo@@@std@@@std@@IBE_NPBUWeaponInfo@@@Z ENDP ; std::vector<WeaponInfo,std::allocator<WeaponInfo> >::_Inside
_TEXT	ENDS
PUBLIC	?_Orphan_range@?$vector@UWeaponInfo@@V?$allocator@UWeaponInfo@@@std@@@std@@IBEXPAUWeaponInfo@@0@Z ; std::vector<WeaponInfo,std::allocator<WeaponInfo> >::_Orphan_range
; Function compile flags: /Ogsp
;	COMDAT ?_Orphan_range@?$vector@UWeaponInfo@@V?$allocator@UWeaponInfo@@@std@@@std@@IBEXPAUWeaponInfo@@0@Z
_TEXT	SEGMENT
___formal$ = 8						; size = 4
___formal$ = 12						; size = 4
?_Orphan_range@?$vector@UWeaponInfo@@V?$allocator@UWeaponInfo@@@std@@@std@@IBEXPAUWeaponInfo@@0@Z PROC ; std::vector<WeaponInfo,std::allocator<WeaponInfo> >::_Orphan_range, COMDAT
; _this$ = ecx

; 1454 : 		}

  00000	c2 08 00	 ret	 8
?_Orphan_range@?$vector@UWeaponInfo@@V?$allocator@UWeaponInfo@@@std@@@std@@IBEXPAUWeaponInfo@@0@Z ENDP ; std::vector<WeaponInfo,std::allocator<WeaponInfo> >::_Orphan_range
_TEXT	ENDS
PUBLIC	?_Inside@?$vector@UForceInfo@@V?$allocator@UForceInfo@@@std@@@std@@IBE_NPBUForceInfo@@@Z ; std::vector<ForceInfo,std::allocator<ForceInfo> >::_Inside
; Function compile flags: /Ogsp
;	COMDAT ?_Inside@?$vector@UForceInfo@@V?$allocator@UForceInfo@@@std@@@std@@IBE_NPBUForceInfo@@@Z
_TEXT	SEGMENT
__Ptr$ = 8						; size = 4
?_Inside@?$vector@UForceInfo@@V?$allocator@UForceInfo@@@std@@@std@@IBE_NPBUForceInfo@@@Z PROC ; std::vector<ForceInfo,std::allocator<ForceInfo> >::_Inside, COMDAT
; _this$ = ecx

; 1285 : 		{	// test if _Ptr points inside vector

  00000	55		 push	 ebp
  00001	8b ec		 mov	 ebp, esp

; 1286 : 		return (_Ptr < this->_Mylast && this->_Myfirst <= _Ptr);

  00003	8b 45 08	 mov	 eax, DWORD PTR __Ptr$[ebp]
  00006	3b 41 04	 cmp	 eax, DWORD PTR [ecx+4]
  00009	73 09		 jae	 SHORT $LN3@Inside@2
  0000b	39 01		 cmp	 DWORD PTR [ecx], eax
  0000d	77 05		 ja	 SHORT $LN3@Inside@2
  0000f	33 c0		 xor	 eax, eax
  00011	40		 inc	 eax
  00012	eb 02		 jmp	 SHORT $LN4@Inside@2
$LN3@Inside@2:
  00014	33 c0		 xor	 eax, eax
$LN4@Inside@2:

; 1287 : 		}

  00016	5d		 pop	 ebp
  00017	c2 04 00	 ret	 4
?_Inside@?$vector@UForceInfo@@V?$allocator@UForceInfo@@@std@@@std@@IBE_NPBUForceInfo@@@Z ENDP ; std::vector<ForceInfo,std::allocator<ForceInfo> >::_Inside
_TEXT	ENDS
PUBLIC	?_Orphan_range@?$vector@UForceInfo@@V?$allocator@UForceInfo@@@std@@@std@@IBEXPAUForceInfo@@0@Z ; std::vector<ForceInfo,std::allocator<ForceInfo> >::_Orphan_range
; Function compile flags: /Ogsp
;	COMDAT ?_Orphan_range@?$vector@UForceInfo@@V?$allocator@UForceInfo@@@std@@@std@@IBEXPAUForceInfo@@0@Z
_TEXT	SEGMENT
___formal$ = 8						; size = 4
___formal$ = 12						; size = 4
?_Orphan_range@?$vector@UForceInfo@@V?$allocator@UForceInfo@@@std@@@std@@IBEXPAUForceInfo@@0@Z PROC ; std::vector<ForceInfo,std::allocator<ForceInfo> >::_Orphan_range, COMDAT
; _this$ = ecx

; 1454 : 		}

  00000	c2 08 00	 ret	 8
?_Orphan_range@?$vector@UForceInfo@@V?$allocator@UForceInfo@@@std@@@std@@IBEXPAUForceInfo@@0@Z ENDP ; std::vector<ForceInfo,std::allocator<ForceInfo> >::_Orphan_range
_TEXT	ENDS
PUBLIC	?_Inside@?$vector@UBuffInfoStruct@@V?$allocator@UBuffInfoStruct@@@std@@@std@@IBE_NPBUBuffInfoStruct@@@Z ; std::vector<BuffInfoStruct,std::allocator<BuffInfoStruct> >::_Inside
; Function compile flags: /Ogsp
;	COMDAT ?_Inside@?$vector@UBuffInfoStruct@@V?$allocator@UBuffInfoStruct@@@std@@@std@@IBE_NPBUBuffInfoStruct@@@Z
_TEXT	SEGMENT
__Ptr$ = 8						; size = 4
?_Inside@?$vector@UBuffInfoStruct@@V?$allocator@UBuffInfoStruct@@@std@@@std@@IBE_NPBUBuffInfoStruct@@@Z PROC ; std::vector<BuffInfoStruct,std::allocator<BuffInfoStruct> >::_Inside, COMDAT
; _this$ = ecx

; 1285 : 		{	// test if _Ptr points inside vector

  00000	55		 push	 ebp
  00001	8b ec		 mov	 ebp, esp

; 1286 : 		return (_Ptr < this->_Mylast && this->_Myfirst <= _Ptr);

  00003	8b 45 08	 mov	 eax, DWORD PTR __Ptr$[ebp]
  00006	3b 41 04	 cmp	 eax, DWORD PTR [ecx+4]
  00009	73 09		 jae	 SHORT $LN3@Inside@3
  0000b	39 01		 cmp	 DWORD PTR [ecx], eax
  0000d	77 05		 ja	 SHORT $LN3@Inside@3
  0000f	33 c0		 xor	 eax, eax
  00011	40		 inc	 eax
  00012	eb 02		 jmp	 SHORT $LN4@Inside@3
$LN3@Inside@3:
  00014	33 c0		 xor	 eax, eax
$LN4@Inside@3:

; 1287 : 		}

  00016	5d		 pop	 ebp
  00017	c2 04 00	 ret	 4
?_Inside@?$vector@UBuffInfoStruct@@V?$allocator@UBuffInfoStruct@@@std@@@std@@IBE_NPBUBuffInfoStruct@@@Z ENDP ; std::vector<BuffInfoStruct,std::allocator<BuffInfoStruct> >::_Inside
_TEXT	ENDS
PUBLIC	?_Orphan_range@?$vector@UBuffInfoStruct@@V?$allocator@UBuffInfoStruct@@@std@@@std@@IBEXPAUBuffInfoStruct@@0@Z ; std::vector<BuffInfoStruct,std::allocator<BuffInfoStruct> >::_Orphan_range
; Function compile flags: /Ogsp
;	COMDAT ?_Orphan_range@?$vector@UBuffInfoStruct@@V?$allocator@UBuffInfoStruct@@@std@@@std@@IBEXPAUBuffInfoStruct@@0@Z
_TEXT	SEGMENT
___formal$ = 8						; size = 4
___formal$ = 12						; size = 4
?_Orphan_range@?$vector@UBuffInfoStruct@@V?$allocator@UBuffInfoStruct@@@std@@@std@@IBEXPAUBuffInfoStruct@@0@Z PROC ; std::vector<BuffInfoStruct,std::allocator<BuffInfoStruct> >::_Orphan_range, COMDAT
; _this$ = ecx

; 1454 : 		}

  00000	c2 08 00	 ret	 8
?_Orphan_range@?$vector@UBuffInfoStruct@@V?$allocator@UBuffInfoStruct@@@std@@@std@@IBEXPAUBuffInfoStruct@@0@Z ENDP ; std::vector<BuffInfoStruct,std::allocator<BuffInfoStruct> >::_Orphan_range
_TEXT	ENDS
PUBLIC	?_Inside@?$vector@UWeaponMoveInfo@@V?$allocator@UWeaponMoveInfo@@@std@@@std@@IBE_NPBUWeaponMoveInfo@@@Z ; std::vector<WeaponMoveInfo,std::allocator<WeaponMoveInfo> >::_Inside
; Function compile flags: /Ogsp
;	COMDAT ?_Inside@?$vector@UWeaponMoveInfo@@V?$allocator@UWeaponMoveInfo@@@std@@@std@@IBE_NPBUWeaponMoveInfo@@@Z
_TEXT	SEGMENT
__Ptr$ = 8						; size = 4
?_Inside@?$vector@UWeaponMoveInfo@@V?$allocator@UWeaponMoveInfo@@@std@@@std@@IBE_NPBUWeaponMoveInfo@@@Z PROC ; std::vector<WeaponMoveInfo,std::allocator<WeaponMoveInfo> >::_Inside, COMDAT
; _this$ = ecx

; 1285 : 		{	// test if _Ptr points inside vector

  00000	55		 push	 ebp
  00001	8b ec		 mov	 ebp, esp

; 1286 : 		return (_Ptr < this->_Mylast && this->_Myfirst <= _Ptr);

  00003	8b 45 08	 mov	 eax, DWORD PTR __Ptr$[ebp]
  00006	3b 41 04	 cmp	 eax, DWORD PTR [ecx+4]
  00009	73 09		 jae	 SHORT $LN3@Inside@4
  0000b	39 01		 cmp	 DWORD PTR [ecx], eax
  0000d	77 05		 ja	 SHORT $LN3@Inside@4
  0000f	33 c0		 xor	 eax, eax
  00011	40		 inc	 eax
  00012	eb 02		 jmp	 SHORT $LN4@Inside@4
$LN3@Inside@4:
  00014	33 c0		 xor	 eax, eax
$LN4@Inside@4:

; 1287 : 		}

  00016	5d		 pop	 ebp
  00017	c2 04 00	 ret	 4
?_Inside@?$vector@UWeaponMoveInfo@@V?$allocator@UWeaponMoveInfo@@@std@@@std@@IBE_NPBUWeaponMoveInfo@@@Z ENDP ; std::vector<WeaponMoveInfo,std::allocator<WeaponMoveInfo> >::_Inside
_TEXT	ENDS
PUBLIC	?_Orphan_range@?$vector@UWeaponMoveInfo@@V?$allocator@UWeaponMoveInfo@@@std@@@std@@IBEXPAUWeaponMoveInfo@@0@Z ; std::vector<WeaponMoveInfo,std::allocator<WeaponMoveInfo> >::_Orphan_range
; Function compile flags: /Ogsp
;	COMDAT ?_Orphan_range@?$vector@UWeaponMoveInfo@@V?$allocator@UWeaponMoveInfo@@@std@@@std@@IBEXPAUWeaponMoveInfo@@0@Z
_TEXT	SEGMENT
___formal$ = 8						; size = 4
___formal$ = 12						; size = 4
?_Orphan_range@?$vector@UWeaponMoveInfo@@V?$allocator@UWeaponMoveInfo@@@std@@@std@@IBEXPAUWeaponMoveInfo@@0@Z PROC ; std::vector<WeaponMoveInfo,std::allocator<WeaponMoveInfo> >::_Orphan_range, COMDAT
; _this$ = ecx

; 1454 : 		}

  00000	c2 08 00	 ret	 8
?_Orphan_range@?$vector@UWeaponMoveInfo@@V?$allocator@UWeaponMoveInfo@@@std@@@std@@IBEXPAUWeaponMoveInfo@@0@Z ENDP ; std::vector<WeaponMoveInfo,std::allocator<WeaponMoveInfo> >::_Orphan_range
_TEXT	ENDS
PUBLIC	??1?$_Vector_val@UWeaponMoveInfo@@V?$allocator@UWeaponMoveInfo@@@std@@@std@@QAE@XZ ; std::_Vector_val<WeaponMoveInfo,std::allocator<WeaponMoveInfo> >::~_Vector_val<WeaponMoveInfo,std::allocator<WeaponMoveInfo> >
; Function compile flags: /Ogsp
;	COMDAT ??1?$_Vector_val@UWeaponMoveInfo@@V?$allocator@UWeaponMoveInfo@@@std@@@std@@QAE@XZ
_TEXT	SEGMENT
??1?$_Vector_val@UWeaponMoveInfo@@V?$allocator@UWeaponMoveInfo@@@std@@@std@@QAE@XZ PROC ; std::_Vector_val<WeaponMoveInfo,std::allocator<WeaponMoveInfo> >::~_Vector_val<WeaponMoveInfo,std::allocator<WeaponMoveInfo> >, COMDAT
; _this$ = ecx

; 434  : 		}

  00000	c3		 ret	 0
??1?$_Vector_val@UWeaponMoveInfo@@V?$allocator@UWeaponMoveInfo@@@std@@@std@@QAE@XZ ENDP ; std::_Vector_val<WeaponMoveInfo,std::allocator<WeaponMoveInfo> >::~_Vector_val<WeaponMoveInfo,std::allocator<WeaponMoveInfo> >
_TEXT	ENDS
PUBLIC	??0?$allocator@UWeaponMoveInfo@@@std@@QAE@XZ	; std::allocator<WeaponMoveInfo>::allocator<WeaponMoveInfo>
; Function compile flags: /Ogsp
; File c:\program files (x86)\microsoft visual studio 10.0\vc\include\xmemory
;	COMDAT ??0?$allocator@UWeaponMoveInfo@@@std@@QAE@XZ
_TEXT	SEGMENT
??0?$allocator@UWeaponMoveInfo@@@std@@QAE@XZ PROC	; std::allocator<WeaponMoveInfo>::allocator<WeaponMoveInfo>, COMDAT
; _this$ = ecx

; 161  : 	_ALLOCATOR() _THROW0()

  00000	8b c1		 mov	 eax, ecx

; 162  : 		{	// construct default allocator (do nothing)
; 163  : 		}

  00002	c3		 ret	 0
??0?$allocator@UWeaponMoveInfo@@@std@@QAE@XZ ENDP	; std::allocator<WeaponMoveInfo>::allocator<WeaponMoveInfo>
_TEXT	ENDS
PUBLIC	?capacity@?$vector@UWeaponMoveInfo@@V?$allocator@UWeaponMoveInfo@@@std@@@std@@QBEIXZ ; std::vector<WeaponMoveInfo,std::allocator<WeaponMoveInfo> >::capacity
; Function compile flags: /Ogsp
; File c:\program files (x86)\microsoft visual studio 10.0\vc\include\vector
;	COMDAT ?capacity@?$vector@UWeaponMoveInfo@@V?$allocator@UWeaponMoveInfo@@@std@@@std@@QBEIXZ
_TEXT	SEGMENT
?capacity@?$vector@UWeaponMoveInfo@@V?$allocator@UWeaponMoveInfo@@@std@@@std@@QBEIXZ PROC ; std::vector<WeaponMoveInfo,std::allocator<WeaponMoveInfo> >::capacity, COMDAT
; _this$ = ecx

; 777  : 		return (this->_Myend - this->_Myfirst);

  00000	8b 41 08	 mov	 eax, DWORD PTR [ecx+8]
  00003	2b 01		 sub	 eax, DWORD PTR [ecx]
  00005	6a 14		 push	 20			; 00000014H
  00007	99		 cdq
  00008	59		 pop	 ecx
  00009	f7 f9		 idiv	 ecx

; 778  : 		}

  0000b	c3		 ret	 0
?capacity@?$vector@UWeaponMoveInfo@@V?$allocator@UWeaponMoveInfo@@@std@@@std@@QBEIXZ ENDP ; std::vector<WeaponMoveInfo,std::allocator<WeaponMoveInfo> >::capacity
_TEXT	ENDS
PUBLIC	??_C@_0BD@OLBABOEK@vector?$DMT?$DO?5too?5long?$AA@ ; `string'
PUBLIC	?_Xlen@?$vector@UWeaponMoveInfo@@V?$allocator@UWeaponMoveInfo@@@std@@@std@@IBEXXZ ; std::vector<WeaponMoveInfo,std::allocator<WeaponMoveInfo> >::_Xlen
EXTRN	__imp_?_Xlength_error@std@@YAXPBD@Z:PROC
;	COMDAT ??_C@_0BD@OLBABOEK@vector?$DMT?$DO?5too?5long?$AA@
CONST	SEGMENT
??_C@_0BD@OLBABOEK@vector?$DMT?$DO?5too?5long?$AA@ DB 'vector<T> too long'
	DB	00H						; `string'
; Function compile flags: /Ogsp
CONST	ENDS
;	COMDAT ?_Xlen@?$vector@UWeaponMoveInfo@@V?$allocator@UWeaponMoveInfo@@@std@@@std@@IBEXXZ
_TEXT	SEGMENT
?_Xlen@?$vector@UWeaponMoveInfo@@V?$allocator@UWeaponMoveInfo@@@std@@@std@@IBEXXZ PROC ; std::vector<WeaponMoveInfo,std::allocator<WeaponMoveInfo> >::_Xlen, COMDAT
; _this$ = ecx

; 1427 : 		_Xlength_error("vector<T> too long");

  00000	68 00 00 00 00	 push	 OFFSET ??_C@_0BD@OLBABOEK@vector?$DMT?$DO?5too?5long?$AA@
  00005	ff 15 00 00 00
	00		 call	 DWORD PTR __imp_?_Xlength_error@std@@YAXPBD@Z
$LN4@Xlen:
$LN3@Xlen:
  0000b	cc		 int	 3
?_Xlen@?$vector@UWeaponMoveInfo@@V?$allocator@UWeaponMoveInfo@@@std@@@std@@IBEXXZ ENDP ; std::vector<WeaponMoveInfo,std::allocator<WeaponMoveInfo> >::_Xlen
_TEXT	ENDS
PUBLIC	??0?$allocator@UWeaponMoveInfo@@@std@@QAE@ABV01@@Z ; std::allocator<WeaponMoveInfo>::allocator<WeaponMoveInfo>
; Function compile flags: /Ogsp
; File c:\program files (x86)\microsoft visual studio 10.0\vc\include\xmemory
;	COMDAT ??0?$allocator@UWeaponMoveInfo@@@std@@QAE@ABV01@@Z
_TEXT	SEGMENT
___formal$ = 8						; size = 4
??0?$allocator@UWeaponMoveInfo@@@std@@QAE@ABV01@@Z PROC	; std::allocator<WeaponMoveInfo>::allocator<WeaponMoveInfo>, COMDAT
; _this$ = ecx

; 165  : 	_ALLOCATOR(const _ALLOCATOR<_Ty>&) _THROW0()

  00000	8b c1		 mov	 eax, ecx

; 166  : 		{	// construct by copying (do nothing)
; 167  : 		}

  00002	c2 04 00	 ret	 4
??0?$allocator@UWeaponMoveInfo@@@std@@QAE@ABV01@@Z ENDP	; std::allocator<WeaponMoveInfo>::allocator<WeaponMoveInfo>
_TEXT	ENDS
PUBLIC	?deallocate@?$allocator@UWeaponMoveInfo@@@std@@QAEXPAUWeaponMoveInfo@@I@Z ; std::allocator<WeaponMoveInfo>::deallocate
; Function compile flags: /Ogsp
;	COMDAT ?deallocate@?$allocator@UWeaponMoveInfo@@@std@@QAEXPAUWeaponMoveInfo@@I@Z
_TEXT	SEGMENT
__Ptr$ = 8						; size = 4
___formal$ = 12						; size = 4
?deallocate@?$allocator@UWeaponMoveInfo@@@std@@QAEXPAUWeaponMoveInfo@@I@Z PROC ; std::allocator<WeaponMoveInfo>::deallocate, COMDAT
; _this$ = ecx

; 181  : 		{	// deallocate object at _Ptr, ignore size

  00000	55		 push	 ebp
  00001	8b ec		 mov	 ebp, esp

; 182  : 		::operator delete(_Ptr);

  00003	ff 75 08	 push	 DWORD PTR __Ptr$[ebp]
  00006	e8 00 00 00 00	 call	 ??3@YAXPAX@Z		; operator delete
  0000b	59		 pop	 ecx

; 183  : 		}

  0000c	5d		 pop	 ebp
  0000d	c2 08 00	 ret	 8
?deallocate@?$allocator@UWeaponMoveInfo@@@std@@QAEXPAUWeaponMoveInfo@@I@Z ENDP ; std::allocator<WeaponMoveInfo>::deallocate
_TEXT	ENDS
PUBLIC	?max_size@?$allocator@UWeaponMoveInfo@@@std@@QBEIXZ ; std::allocator<WeaponMoveInfo>::max_size
; Function compile flags: /Ogsp
;	COMDAT ?max_size@?$allocator@UWeaponMoveInfo@@@std@@QBEIXZ
_TEXT	SEGMENT
?max_size@?$allocator@UWeaponMoveInfo@@@std@@QBEIXZ PROC ; std::allocator<WeaponMoveInfo>::max_size, COMDAT
; _this$ = ecx

; 218  : 		_SIZT _Count = (_SIZT)(-1) / sizeof (_Ty);
; 219  : 		return (0 < _Count ? _Count : 1);

  00000	b8 cc cc cc 0c	 mov	 eax, 214748364		; 0cccccccH

; 220  : 		}

  00005	c3		 ret	 0
?max_size@?$allocator@UWeaponMoveInfo@@@std@@QBEIXZ ENDP ; std::allocator<WeaponMoveInfo>::max_size
_TEXT	ENDS
PUBLIC	??0?$_Vector_const_iterator@V?$_Vector_val@UWeaponMoveInfo@@V?$allocator@UWeaponMoveInfo@@@std@@@std@@@std@@QAE@PAUWeaponMoveInfo@@PBU_Container_base0@1@@Z ; std::_Vector_const_iterator<std::_Vector_val<WeaponMoveInfo,std::allocator<WeaponMoveInfo> > >::_Vector_const_iterator<std::_Vector_val<WeaponMoveInfo,std::allocator<WeaponMoveInfo> > >
; Function compile flags: /Ogsp
; File c:\program files (x86)\microsoft visual studio 10.0\vc\include\vector
;	COMDAT ??0?$_Vector_const_iterator@V?$_Vector_val@UWeaponMoveInfo@@V?$allocator@UWeaponMoveInfo@@@std@@@std@@@std@@QAE@PAUWeaponMoveInfo@@PBU_Container_base0@1@@Z
_TEXT	SEGMENT
__Parg$ = 8						; size = 4
__Pvector$ = 12						; size = 4
??0?$_Vector_const_iterator@V?$_Vector_val@UWeaponMoveInfo@@V?$allocator@UWeaponMoveInfo@@@std@@@std@@@std@@QAE@PAUWeaponMoveInfo@@PBU_Container_base0@1@@Z PROC ; std::_Vector_const_iterator<std::_Vector_val<WeaponMoveInfo,std::allocator<WeaponMoveInfo> > >::_Vector_const_iterator<std::_Vector_val<WeaponMoveInfo,std::allocator<WeaponMoveInfo> > >, COMDAT
; _this$ = ecx

; 45   : 		{	// construct with pointer _Parg

  00000	55		 push	 ebp
  00001	8b ec		 mov	 ebp, esp
  00003	8b c1		 mov	 eax, ecx
  00005	8b 4d 08	 mov	 ecx, DWORD PTR __Parg$[ebp]
  00008	89 08		 mov	 DWORD PTR [eax], ecx

; 46   : 		this->_Adopt(_Pvector);
; 47   : 		}

  0000a	5d		 pop	 ebp
  0000b	c2 08 00	 ret	 8
??0?$_Vector_const_iterator@V?$_Vector_val@UWeaponMoveInfo@@V?$allocator@UWeaponMoveInfo@@@std@@@std@@@std@@QAE@PAUWeaponMoveInfo@@PBU_Container_base0@1@@Z ENDP ; std::_Vector_const_iterator<std::_Vector_val<WeaponMoveInfo,std::allocator<WeaponMoveInfo> > >::_Vector_const_iterator<std::_Vector_val<WeaponMoveInfo,std::allocator<WeaponMoveInfo> > >
_TEXT	ENDS
PUBLIC	?_Compat@?$_Vector_const_iterator@V?$_Vector_val@UWeaponMoveInfo@@V?$allocator@UWeaponMoveInfo@@@std@@@std@@@std@@QBEXABV12@@Z ; std::_Vector_const_iterator<std::_Vector_val<WeaponMoveInfo,std::allocator<WeaponMoveInfo> > >::_Compat
; Function compile flags: /Ogsp
;	COMDAT ?_Compat@?$_Vector_const_iterator@V?$_Vector_val@UWeaponMoveInfo@@V?$allocator@UWeaponMoveInfo@@@std@@@std@@@std@@QBEXABV12@@Z
_TEXT	SEGMENT
___formal$ = 8						; size = 4
?_Compat@?$_Vector_const_iterator@V?$_Vector_val@UWeaponMoveInfo@@V?$allocator@UWeaponMoveInfo@@@std@@@std@@@std@@QBEXABV12@@Z PROC ; std::_Vector_const_iterator<std::_Vector_val<WeaponMoveInfo,std::allocator<WeaponMoveInfo> > >::_Compat, COMDAT
; _this$ = ecx

; 253  : 		}

  00000	c2 04 00	 ret	 4
?_Compat@?$_Vector_const_iterator@V?$_Vector_val@UWeaponMoveInfo@@V?$allocator@UWeaponMoveInfo@@@std@@@std@@@std@@QBEXABV12@@Z ENDP ; std::_Vector_const_iterator<std::_Vector_val<WeaponMoveInfo,std::allocator<WeaponMoveInfo> > >::_Compat
_TEXT	ENDS
PUBLIC	??$addressof@$$CBUWeaponInfo@@@std@@YAPBUWeaponInfo@@ABU1@@Z ; std::addressof<WeaponInfo const >
; Function compile flags: /Ogsp
; File c:\program files (x86)\microsoft visual studio 10.0\vc\include\xmemory
;	COMDAT ??$addressof@$$CBUWeaponInfo@@@std@@YAPBUWeaponInfo@@ABU1@@Z
_TEXT	SEGMENT
__Val$ = 8						; size = 4
??$addressof@$$CBUWeaponInfo@@@std@@YAPBUWeaponInfo@@ABU1@@Z PROC ; std::addressof<WeaponInfo const >, COMDAT

; 110  : 	{	// return address of _Val

  00000	55		 push	 ebp
  00001	8b ec		 mov	 ebp, esp

; 111  : 	return ((_Ty *) &(char&)_Val);

  00003	8b 45 08	 mov	 eax, DWORD PTR __Val$[ebp]

; 112  : 	}

  00006	5d		 pop	 ebp
  00007	c3		 ret	 0
??$addressof@$$CBUWeaponInfo@@@std@@YAPBUWeaponInfo@@ABU1@@Z ENDP ; std::addressof<WeaponInfo const >
_TEXT	ENDS
PUBLIC	??$addressof@$$CBUForceInfo@@@std@@YAPBUForceInfo@@ABU1@@Z ; std::addressof<ForceInfo const >
; Function compile flags: /Ogsp
;	COMDAT ??$addressof@$$CBUForceInfo@@@std@@YAPBUForceInfo@@ABU1@@Z
_TEXT	SEGMENT
__Val$ = 8						; size = 4
??$addressof@$$CBUForceInfo@@@std@@YAPBUForceInfo@@ABU1@@Z PROC ; std::addressof<ForceInfo const >, COMDAT

; 110  : 	{	// return address of _Val

  00000	55		 push	 ebp
  00001	8b ec		 mov	 ebp, esp

; 111  : 	return ((_Ty *) &(char&)_Val);

  00003	8b 45 08	 mov	 eax, DWORD PTR __Val$[ebp]

; 112  : 	}

  00006	5d		 pop	 ebp
  00007	c3		 ret	 0
??$addressof@$$CBUForceInfo@@@std@@YAPBUForceInfo@@ABU1@@Z ENDP ; std::addressof<ForceInfo const >
_TEXT	ENDS
PUBLIC	??$addressof@$$CBUBuffInfoStruct@@@std@@YAPBUBuffInfoStruct@@ABU1@@Z ; std::addressof<BuffInfoStruct const >
; Function compile flags: /Ogsp
;	COMDAT ??$addressof@$$CBUBuffInfoStruct@@@std@@YAPBUBuffInfoStruct@@ABU1@@Z
_TEXT	SEGMENT
__Val$ = 8						; size = 4
??$addressof@$$CBUBuffInfoStruct@@@std@@YAPBUBuffInfoStruct@@ABU1@@Z PROC ; std::addressof<BuffInfoStruct const >, COMDAT

; 110  : 	{	// return address of _Val

  00000	55		 push	 ebp
  00001	8b ec		 mov	 ebp, esp

; 111  : 	return ((_Ty *) &(char&)_Val);

  00003	8b 45 08	 mov	 eax, DWORD PTR __Val$[ebp]

; 112  : 	}

  00006	5d		 pop	 ebp
  00007	c3		 ret	 0
??$addressof@$$CBUBuffInfoStruct@@@std@@YAPBUBuffInfoStruct@@ABU1@@Z ENDP ; std::addressof<BuffInfoStruct const >
_TEXT	ENDS
PUBLIC	??$addressof@$$CBUWeaponMoveInfo@@@std@@YAPBUWeaponMoveInfo@@ABU1@@Z ; std::addressof<WeaponMoveInfo const >
; Function compile flags: /Ogsp
;	COMDAT ??$addressof@$$CBUWeaponMoveInfo@@@std@@YAPBUWeaponMoveInfo@@ABU1@@Z
_TEXT	SEGMENT
__Val$ = 8						; size = 4
??$addressof@$$CBUWeaponMoveInfo@@@std@@YAPBUWeaponMoveInfo@@ABU1@@Z PROC ; std::addressof<WeaponMoveInfo const >, COMDAT

; 110  : 	{	// return address of _Val

  00000	55		 push	 ebp
  00001	8b ec		 mov	 ebp, esp

; 111  : 	return ((_Ty *) &(char&)_Val);

  00003	8b 45 08	 mov	 eax, DWORD PTR __Val$[ebp]

; 112  : 	}

  00006	5d		 pop	 ebp
  00007	c3		 ret	 0
??$addressof@$$CBUWeaponMoveInfo@@@std@@YAPBUWeaponMoveInfo@@ABU1@@Z ENDP ; std::addressof<WeaponMoveInfo const >
_TEXT	ENDS
PUBLIC	__TI2?AVbad_alloc@std@@
PUBLIC	??$_Allocate@UWeaponMoveInfo@@@std@@YAPAUWeaponMoveInfo@@IPAU1@@Z ; std::_Allocate<WeaponMoveInfo>
PUBLIC	__CTA2?AVbad_alloc@std@@
PUBLIC	__CT??_R0?AVbad_alloc@std@@@8??0bad_alloc@std@@QAE@ABV01@@Z12
PUBLIC	??0bad_alloc@std@@QAE@ABV01@@Z			; std::bad_alloc::bad_alloc
PUBLIC	__CT??_R0?AVexception@std@@@8??0exception@std@@QAE@ABV01@@Z12
EXTRN	??2@YAPAXI@Z:PROC				; operator new
EXTRN	__CxxThrowException@8:PROC
EXTRN	??0exception@std@@QAE@ABV01@@Z:PROC		; std::exception::exception
;	COMDAT __CT??_R0?AVexception@std@@@8??0exception@std@@QAE@ABV01@@Z12
; File c:\program files (x86)\microsoft visual studio 10.0\vc\include\exception
xdata$x	SEGMENT
__CT??_R0?AVexception@std@@@8??0exception@std@@QAE@ABV01@@Z12 DD 00H
	DD	FLAT:??_R0?AVexception@std@@@8
	DD	00H
	DD	0ffffffffH
	ORG $+4
	DD	0cH
	DD	FLAT:??0exception@std@@QAE@ABV01@@Z
xdata$x	ENDS
;	COMDAT __CT??_R0?AVbad_alloc@std@@@8??0bad_alloc@std@@QAE@ABV01@@Z12
xdata$x	SEGMENT
__CT??_R0?AVbad_alloc@std@@@8??0bad_alloc@std@@QAE@ABV01@@Z12 DD 00H
	DD	FLAT:??_R0?AVbad_alloc@std@@@8
	DD	00H
	DD	0ffffffffH
	ORG $+4
	DD	0cH
	DD	FLAT:??0bad_alloc@std@@QAE@ABV01@@Z
xdata$x	ENDS
;	COMDAT __CTA2?AVbad_alloc@std@@
xdata$x	SEGMENT
__CTA2?AVbad_alloc@std@@ DD 02H
	DD	FLAT:__CT??_R0?AVbad_alloc@std@@@8??0bad_alloc@std@@QAE@ABV01@@Z12
	DD	FLAT:__CT??_R0?AVexception@std@@@8??0exception@std@@QAE@ABV01@@Z12
xdata$x	ENDS
;	COMDAT __TI2?AVbad_alloc@std@@
xdata$x	SEGMENT
__TI2?AVbad_alloc@std@@ DD 00H
	DD	FLAT:??1bad_alloc@std@@UAE@XZ
	DD	00H
	DD	FLAT:__CTA2?AVbad_alloc@std@@
; Function compile flags: /Ogsp
; File c:\program files (x86)\microsoft visual studio 10.0\vc\include\xmemory
xdata$x	ENDS
;	COMDAT ??$_Allocate@UWeaponMoveInfo@@@std@@YAPAUWeaponMoveInfo@@IPAU1@@Z
_TEXT	SEGMENT
$T575738 = -12						; size = 12
$T575743 = 8						; size = 4
__Count$ = 8						; size = 4
___formal$ = 12						; size = 4
??$_Allocate@UWeaponMoveInfo@@@std@@YAPAUWeaponMoveInfo@@IPAU1@@Z PROC ; std::_Allocate<WeaponMoveInfo>, COMDAT

; 30   : 	{	// allocate storage for _Count elements of type _Ty

  00000	55		 push	 ebp
  00001	8b ec		 mov	 ebp, esp

; 31   : 	void *_Ptr = 0;
; 32   : 
; 33   : 	if (_Count <= 0)

  00003	8b 4d 08	 mov	 ecx, DWORD PTR __Count$[ebp]
  00006	83 ec 0c	 sub	 esp, 12			; 0000000cH
  00009	33 c0		 xor	 eax, eax
  0000b	85 c9		 test	 ecx, ecx

; 34   : 		_Count = 0;
; 35   : 	else if (((_SIZT)(-1) / sizeof (_Ty) < _Count)

  0000d	74 3c		 je	 SHORT $LN5@Allocate

; 36   : 		|| (_Ptr = ::operator new(_Count * sizeof (_Ty))) == 0)

  0000f	81 f9 cc cc cc
	0c		 cmp	 ecx, 214748364		; 0cccccccH
  00015	77 0e		 ja	 SHORT $LN1@Allocate
  00017	6b c9 14	 imul	 ecx, 20			; 00000014H
  0001a	51		 push	 ecx
  0001b	e8 00 00 00 00	 call	 ??2@YAPAXI@Z		; operator new
  00020	59		 pop	 ecx
  00021	85 c0		 test	 eax, eax

; 38   : 
; 39   : 	return ((_Ty _FARQ *)_Ptr);

  00023	75 26		 jne	 SHORT $LN5@Allocate
$LN1@Allocate:

; 37   : 		_THROW_NCEE(bad_alloc, 0);

  00025	83 65 08 00	 and	 DWORD PTR $T575743[ebp], 0
  00029	8d 45 08	 lea	 eax, DWORD PTR $T575743[ebp]
  0002c	50		 push	 eax
  0002d	8d 4d f4	 lea	 ecx, DWORD PTR $T575738[ebp]
  00030	ff 15 00 00 00
	00		 call	 DWORD PTR __imp_??0exception@std@@QAE@ABQBD@Z
  00036	68 00 00 00 00	 push	 OFFSET __TI2?AVbad_alloc@std@@
  0003b	8d 45 f4	 lea	 eax, DWORD PTR $T575738[ebp]
  0003e	50		 push	 eax
  0003f	c7 45 f4 00 00
	00 00		 mov	 DWORD PTR $T575738[ebp], OFFSET ??_7bad_alloc@std@@6B@
  00046	e8 00 00 00 00	 call	 __CxxThrowException@8
$LN10@Allocate:
$LN5@Allocate:

; 40   : 	}

  0004b	c9		 leave
  0004c	c3		 ret	 0
$LN9@Allocate:
??$_Allocate@UWeaponMoveInfo@@@std@@YAPAUWeaponMoveInfo@@IPAU1@@Z ENDP ; std::_Allocate<WeaponMoveInfo>
_TEXT	ENDS
PUBLIC	??$forward@ABUWeaponInfo@@@std@@YAABUWeaponInfo@@ABU1@@Z ; std::forward<WeaponInfo const &>
; Function compile flags: /Ogsp
; File c:\program files (x86)\microsoft visual studio 10.0\vc\include\utility
;	COMDAT ??$forward@ABUWeaponInfo@@@std@@YAABUWeaponInfo@@ABU1@@Z
_TEXT	SEGMENT
__Arg$ = 8						; size = 4
??$forward@ABUWeaponInfo@@@std@@YAABUWeaponInfo@@ABU1@@Z PROC ; std::forward<WeaponInfo const &>, COMDAT

; 78   : 	{	// forward _Arg, given explicitly specified type parameter

  00000	55		 push	 ebp
  00001	8b ec		 mov	 ebp, esp

; 79   : 	return ((_Ty&&)_Arg);

  00003	8b 45 08	 mov	 eax, DWORD PTR __Arg$[ebp]

; 80   : 	}

  00006	5d		 pop	 ebp
  00007	c3		 ret	 0
??$forward@ABUWeaponInfo@@@std@@YAABUWeaponInfo@@ABU1@@Z ENDP ; std::forward<WeaponInfo const &>
_TEXT	ENDS
PUBLIC	??$forward@ABUForceInfo@@@std@@YAABUForceInfo@@ABU1@@Z ; std::forward<ForceInfo const &>
; Function compile flags: /Ogsp
;	COMDAT ??$forward@ABUForceInfo@@@std@@YAABUForceInfo@@ABU1@@Z
_TEXT	SEGMENT
__Arg$ = 8						; size = 4
??$forward@ABUForceInfo@@@std@@YAABUForceInfo@@ABU1@@Z PROC ; std::forward<ForceInfo const &>, COMDAT

; 78   : 	{	// forward _Arg, given explicitly specified type parameter

  00000	55		 push	 ebp
  00001	8b ec		 mov	 ebp, esp

; 79   : 	return ((_Ty&&)_Arg);

  00003	8b 45 08	 mov	 eax, DWORD PTR __Arg$[ebp]

; 80   : 	}

  00006	5d		 pop	 ebp
  00007	c3		 ret	 0
??$forward@ABUForceInfo@@@std@@YAABUForceInfo@@ABU1@@Z ENDP ; std::forward<ForceInfo const &>
_TEXT	ENDS
PUBLIC	??$forward@ABUBuffInfoStruct@@@std@@YAABUBuffInfoStruct@@ABU1@@Z ; std::forward<BuffInfoStruct const &>
; Function compile flags: /Ogsp
;	COMDAT ??$forward@ABUBuffInfoStruct@@@std@@YAABUBuffInfoStruct@@ABU1@@Z
_TEXT	SEGMENT
__Arg$ = 8						; size = 4
??$forward@ABUBuffInfoStruct@@@std@@YAABUBuffInfoStruct@@ABU1@@Z PROC ; std::forward<BuffInfoStruct const &>, COMDAT

; 78   : 	{	// forward _Arg, given explicitly specified type parameter

  00000	55		 push	 ebp
  00001	8b ec		 mov	 ebp, esp

; 79   : 	return ((_Ty&&)_Arg);

  00003	8b 45 08	 mov	 eax, DWORD PTR __Arg$[ebp]

; 80   : 	}

  00006	5d		 pop	 ebp
  00007	c3		 ret	 0
??$forward@ABUBuffInfoStruct@@@std@@YAABUBuffInfoStruct@@ABU1@@Z ENDP ; std::forward<BuffInfoStruct const &>
_TEXT	ENDS
PUBLIC	??$forward@AAUWeaponMoveInfo@@@std@@YAAAUWeaponMoveInfo@@AAU1@@Z ; std::forward<WeaponMoveInfo &>
; Function compile flags: /Ogsp
;	COMDAT ??$forward@AAUWeaponMoveInfo@@@std@@YAAAUWeaponMoveInfo@@AAU1@@Z
_TEXT	SEGMENT
__Arg$ = 8						; size = 4
??$forward@AAUWeaponMoveInfo@@@std@@YAAAUWeaponMoveInfo@@AAU1@@Z PROC ; std::forward<WeaponMoveInfo &>, COMDAT

; 78   : 	{	// forward _Arg, given explicitly specified type parameter

  00000	55		 push	 ebp
  00001	8b ec		 mov	 ebp, esp

; 79   : 	return ((_Ty&&)_Arg);

  00003	8b 45 08	 mov	 eax, DWORD PTR __Arg$[ebp]

; 80   : 	}

  00006	5d		 pop	 ebp
  00007	c3		 ret	 0
??$forward@AAUWeaponMoveInfo@@@std@@YAAAUWeaponMoveInfo@@AAU1@@Z ENDP ; std::forward<WeaponMoveInfo &>
_TEXT	ENDS
PUBLIC	??$construct@AAUWeaponMoveInfo@@@?$allocator@UWeaponMoveInfo@@@std@@QAEXPAUWeaponMoveInfo@@AAU2@@Z ; std::allocator<WeaponMoveInfo>::construct<WeaponMoveInfo &>
; Function compile flags: /Ogsp
; File c:\program files (x86)\microsoft visual studio 10.0\vc\include\xmemory
;	COMDAT ??$construct@AAUWeaponMoveInfo@@@?$allocator@UWeaponMoveInfo@@@std@@QAEXPAUWeaponMoveInfo@@AAU2@@Z
_TEXT	SEGMENT
__Ptr$ = 8						; size = 4
__Val$ = 12						; size = 4
??$construct@AAUWeaponMoveInfo@@@?$allocator@UWeaponMoveInfo@@@std@@QAEXPAUWeaponMoveInfo@@AAU2@@Z PROC ; std::allocator<WeaponMoveInfo>::construct<WeaponMoveInfo &>, COMDAT
; _this$ = ecx

; 206  : 		void construct(pointer _Ptr, _Other&& _Val)

  00000	55		 push	 ebp
  00001	8b ec		 mov	 ebp, esp
  00003	57		 push	 edi

; 207  : 		{	// construct object at _Ptr with value _Val
; 208  : 		::new ((void _FARQ *)_Ptr) _Ty(_STD forward<_Other>(_Val));

  00004	8b 7d 08	 mov	 edi, DWORD PTR __Ptr$[ebp]
  00007	85 ff		 test	 edi, edi
  00009	74 0a		 je	 SHORT $LN3@construct
  0000b	56		 push	 esi
  0000c	8b 75 0c	 mov	 esi, DWORD PTR __Val$[ebp]
  0000f	6a 05		 push	 5
  00011	59		 pop	 ecx
  00012	f3 a5		 rep movsd
  00014	5e		 pop	 esi
$LN3@construct:
  00015	5f		 pop	 edi

; 209  : 		}

  00016	5d		 pop	 ebp
  00017	c2 08 00	 ret	 8
??$construct@AAUWeaponMoveInfo@@@?$allocator@UWeaponMoveInfo@@@std@@QAEXPAUWeaponMoveInfo@@AAU2@@Z ENDP ; std::allocator<WeaponMoveInfo>::construct<WeaponMoveInfo &>
_TEXT	ENDS
PUBLIC	??$forward@ABUWeaponMoveInfo@@@std@@YAABUWeaponMoveInfo@@ABU1@@Z ; std::forward<WeaponMoveInfo const &>
; Function compile flags: /Ogsp
; File c:\program files (x86)\microsoft visual studio 10.0\vc\include\utility
;	COMDAT ??$forward@ABUWeaponMoveInfo@@@std@@YAABUWeaponMoveInfo@@ABU1@@Z
_TEXT	SEGMENT
__Arg$ = 8						; size = 4
??$forward@ABUWeaponMoveInfo@@@std@@YAABUWeaponMoveInfo@@ABU1@@Z PROC ; std::forward<WeaponMoveInfo const &>, COMDAT

; 78   : 	{	// forward _Arg, given explicitly specified type parameter

  00000	55		 push	 ebp
  00001	8b ec		 mov	 ebp, esp

; 79   : 	return ((_Ty&&)_Arg);

  00003	8b 45 08	 mov	 eax, DWORD PTR __Arg$[ebp]

; 80   : 	}

  00006	5d		 pop	 ebp
  00007	c3		 ret	 0
??$forward@ABUWeaponMoveInfo@@@std@@YAABUWeaponMoveInfo@@ABU1@@Z ENDP ; std::forward<WeaponMoveInfo const &>
_TEXT	ENDS
PUBLIC	??$_Ptr_cat@UWeaponMoveInfo@@U1@@std@@YA?AU_Nonscalar_ptr_iterator_tag@0@PAUWeaponMoveInfo@@0@Z ; std::_Ptr_cat<WeaponMoveInfo,WeaponMoveInfo>
; Function compile flags: /Ogsp
; File c:\program files (x86)\microsoft visual studio 10.0\vc\include\xutility
;	COMDAT ??$_Ptr_cat@UWeaponMoveInfo@@U1@@std@@YA?AU_Nonscalar_ptr_iterator_tag@0@PAUWeaponMoveInfo@@0@Z
_TEXT	SEGMENT
__Cat$ = -1						; size = 1
___formal$ = 8						; size = 4
___formal$ = 12						; size = 4
??$_Ptr_cat@UWeaponMoveInfo@@U1@@std@@YA?AU_Nonscalar_ptr_iterator_tag@0@PAUWeaponMoveInfo@@0@Z PROC ; std::_Ptr_cat<WeaponMoveInfo,WeaponMoveInfo>, COMDAT

; 516  : 	{	// return pointer category from pointers

  00000	55		 push	 ebp
  00001	8b ec		 mov	 ebp, esp
  00003	51		 push	 ecx

; 517  : 	typename _Ptr_cat_helper<_Elem1, _Elem2>::_Type _Cat;
; 518  : 	return (_Cat);

  00004	8a 45 ff	 mov	 al, BYTE PTR __Cat$[ebp]

; 519  : 	}

  00007	c9		 leave
  00008	c3		 ret	 0
??$_Ptr_cat@UWeaponMoveInfo@@U1@@std@@YA?AU_Nonscalar_ptr_iterator_tag@0@PAUWeaponMoveInfo@@0@Z ENDP ; std::_Ptr_cat<WeaponMoveInfo,WeaponMoveInfo>
_TEXT	ENDS
PUBLIC	??$_Construct@UForceInfo@@ABU1@@std@@YAXPAUForceInfo@@ABU1@@Z ; std::_Construct<ForceInfo,ForceInfo const &>
; Function compile flags: /Ogsp
; File c:\program files (x86)\microsoft visual studio 10.0\vc\include\xmemory
;	COMDAT ??$_Construct@UForceInfo@@ABU1@@std@@YAXPAUForceInfo@@ABU1@@Z
_TEXT	SEGMENT
__Ptr$ = 8						; size = 4
__Val$ = 12						; size = 4
??$_Construct@UForceInfo@@ABU1@@std@@YAXPAUForceInfo@@ABU1@@Z PROC ; std::_Construct<ForceInfo,ForceInfo const &>, COMDAT

; 46   : 	{	// construct object at _Ptr with value _Val

  00000	55		 push	 ebp
  00001	8b ec		 mov	 ebp, esp
  00003	57		 push	 edi

; 47   : 	void _FARQ *_Vptr = _Ptr;
; 48   : 	::new (_Vptr) _Ty1(_STD forward<_Ty2>(_Val));

  00004	8b 7d 08	 mov	 edi, DWORD PTR __Ptr$[ebp]
  00007	85 ff		 test	 edi, edi
  00009	74 08		 je	 SHORT $LN3@Construct
  0000b	56		 push	 esi
  0000c	8b 75 0c	 mov	 esi, DWORD PTR __Val$[ebp]
  0000f	a5		 movsd
  00010	a5		 movsd
  00011	a5		 movsd
  00012	5e		 pop	 esi
$LN3@Construct:
  00013	5f		 pop	 edi

; 49   : 	}

  00014	5d		 pop	 ebp
  00015	c3		 ret	 0
??$_Construct@UForceInfo@@ABU1@@std@@YAXPAUForceInfo@@ABU1@@Z ENDP ; std::_Construct<ForceInfo,ForceInfo const &>
_TEXT	ENDS
PUBLIC	??$_Construct@UWeaponMoveInfo@@ABU1@@std@@YAXPAUWeaponMoveInfo@@ABU1@@Z ; std::_Construct<WeaponMoveInfo,WeaponMoveInfo const &>
; Function compile flags: /Ogsp
;	COMDAT ??$_Construct@UWeaponMoveInfo@@ABU1@@std@@YAXPAUWeaponMoveInfo@@ABU1@@Z
_TEXT	SEGMENT
__Ptr$ = 8						; size = 4
__Val$ = 12						; size = 4
??$_Construct@UWeaponMoveInfo@@ABU1@@std@@YAXPAUWeaponMoveInfo@@ABU1@@Z PROC ; std::_Construct<WeaponMoveInfo,WeaponMoveInfo const &>, COMDAT

; 46   : 	{	// construct object at _Ptr with value _Val

  00000	55		 push	 ebp
  00001	8b ec		 mov	 ebp, esp
  00003	57		 push	 edi

; 47   : 	void _FARQ *_Vptr = _Ptr;
; 48   : 	::new (_Vptr) _Ty1(_STD forward<_Ty2>(_Val));

  00004	8b 7d 08	 mov	 edi, DWORD PTR __Ptr$[ebp]
  00007	85 ff		 test	 edi, edi
  00009	74 0a		 je	 SHORT $LN3@Construct@2
  0000b	56		 push	 esi
  0000c	8b 75 0c	 mov	 esi, DWORD PTR __Val$[ebp]
  0000f	6a 05		 push	 5
  00011	59		 pop	 ecx
  00012	f3 a5		 rep movsd
  00014	5e		 pop	 esi
$LN3@Construct@2:
  00015	5f		 pop	 edi

; 49   : 	}

  00016	5d		 pop	 ebp
  00017	c3		 ret	 0
??$_Construct@UWeaponMoveInfo@@ABU1@@std@@YAXPAUWeaponMoveInfo@@ABU1@@Z ENDP ; std::_Construct<WeaponMoveInfo,WeaponMoveInfo const &>
_TEXT	ENDS
PUBLIC	??$_Ptr_cat@V?$_Vector_const_iterator@V?$_Vector_val@UWeaponInfo@@V?$allocator@UWeaponInfo@@@std@@@std@@@std@@PAUWeaponInfo@@@std@@YA?AU_Nonscalar_ptr_iterator_tag@0@AAV?$_Vector_const_iterator@V?$_Vector_val@UWeaponInfo@@V?$allocator@UWeaponInfo@@@std@@@std@@@0@AAPAUWeaponInfo@@@Z ; std::_Ptr_cat<std::_Vector_const_iterator<std::_Vector_val<WeaponInfo,std::allocator<WeaponInfo> > >,WeaponInfo *>
; Function compile flags: /Ogsp
; File c:\program files (x86)\microsoft visual studio 10.0\vc\include\xutility
;	COMDAT ??$_Ptr_cat@V?$_Vector_const_iterator@V?$_Vector_val@UWeaponInfo@@V?$allocator@UWeaponInfo@@@std@@@std@@@std@@PAUWeaponInfo@@@std@@YA?AU_Nonscalar_ptr_iterator_tag@0@AAV?$_Vector_const_iterator@V?$_Vector_val@UWeaponInfo@@V?$allocator@UWeaponInfo@@@std@@@std@@@0@AAPAUWeaponInfo@@@Z
_TEXT	SEGMENT
__Cat$ = -1						; size = 1
___formal$ = 8						; size = 4
___formal$ = 12						; size = 4
??$_Ptr_cat@V?$_Vector_const_iterator@V?$_Vector_val@UWeaponInfo@@V?$allocator@UWeaponInfo@@@std@@@std@@@std@@PAUWeaponInfo@@@std@@YA?AU_Nonscalar_ptr_iterator_tag@0@AAV?$_Vector_const_iterator@V?$_Vector_val@UWeaponInfo@@V?$allocator@UWeaponInfo@@@std@@@std@@@0@AAPAUWeaponInfo@@@Z PROC ; std::_Ptr_cat<std::_Vector_const_iterator<std::_Vector_val<WeaponInfo,std::allocator<WeaponInfo> > >,WeaponInfo *>, COMDAT

; 485  : 	{	// return pointer category from arbitrary arguments

  00000	55		 push	 ebp
  00001	8b ec		 mov	 ebp, esp
  00003	51		 push	 ecx

; 486  : 	_Nonscalar_ptr_iterator_tag _Cat;
; 487  : 	return (_Cat);

  00004	8a 45 ff	 mov	 al, BYTE PTR __Cat$[ebp]

; 488  : 	}

  00007	c9		 leave
  00008	c3		 ret	 0
??$_Ptr_cat@V?$_Vector_const_iterator@V?$_Vector_val@UWeaponInfo@@V?$allocator@UWeaponInfo@@@std@@@std@@@std@@PAUWeaponInfo@@@std@@YA?AU_Nonscalar_ptr_iterator_tag@0@AAV?$_Vector_const_iterator@V?$_Vector_val@UWeaponInfo@@V?$allocator@UWeaponInfo@@@std@@@std@@@0@AAPAUWeaponInfo@@@Z ENDP ; std::_Ptr_cat<std::_Vector_const_iterator<std::_Vector_val<WeaponInfo,std::allocator<WeaponInfo> > >,WeaponInfo *>
_TEXT	ENDS
PUBLIC	??$_Val_type@PAUWeaponInfo@@@std@@YAPAUWeaponInfo@@PAU1@@Z ; std::_Val_type<WeaponInfo *>
; Function compile flags: /Ogsp
;	COMDAT ??$_Val_type@PAUWeaponInfo@@@std@@YAPAUWeaponInfo@@PAU1@@Z
_TEXT	SEGMENT
___formal$ = 8						; size = 4
??$_Val_type@PAUWeaponInfo@@@std@@YAPAUWeaponInfo@@PAU1@@Z PROC ; std::_Val_type<WeaponInfo *>, COMDAT

; 790  : 	return (0);

  00000	33 c0		 xor	 eax, eax

; 791  : 	}

  00002	c3		 ret	 0
??$_Val_type@PAUWeaponInfo@@@std@@YAPAUWeaponInfo@@PAU1@@Z ENDP ; std::_Val_type<WeaponInfo *>
_TEXT	ENDS
PUBLIC	??$_Ptr_cat@V?$_Vector_const_iterator@V?$_Vector_val@UForceInfo@@V?$allocator@UForceInfo@@@std@@@std@@@std@@PAUForceInfo@@@std@@YA?AU_Nonscalar_ptr_iterator_tag@0@AAV?$_Vector_const_iterator@V?$_Vector_val@UForceInfo@@V?$allocator@UForceInfo@@@std@@@std@@@0@AAPAUForceInfo@@@Z ; std::_Ptr_cat<std::_Vector_const_iterator<std::_Vector_val<ForceInfo,std::allocator<ForceInfo> > >,ForceInfo *>
; Function compile flags: /Ogsp
;	COMDAT ??$_Ptr_cat@V?$_Vector_const_iterator@V?$_Vector_val@UForceInfo@@V?$allocator@UForceInfo@@@std@@@std@@@std@@PAUForceInfo@@@std@@YA?AU_Nonscalar_ptr_iterator_tag@0@AAV?$_Vector_const_iterator@V?$_Vector_val@UForceInfo@@V?$allocator@UForceInfo@@@std@@@std@@@0@AAPAUForceInfo@@@Z
_TEXT	SEGMENT
__Cat$ = -1						; size = 1
___formal$ = 8						; size = 4
___formal$ = 12						; size = 4
??$_Ptr_cat@V?$_Vector_const_iterator@V?$_Vector_val@UForceInfo@@V?$allocator@UForceInfo@@@std@@@std@@@std@@PAUForceInfo@@@std@@YA?AU_Nonscalar_ptr_iterator_tag@0@AAV?$_Vector_const_iterator@V?$_Vector_val@UForceInfo@@V?$allocator@UForceInfo@@@std@@@std@@@0@AAPAUForceInfo@@@Z PROC ; std::_Ptr_cat<std::_Vector_const_iterator<std::_Vector_val<ForceInfo,std::allocator<ForceInfo> > >,ForceInfo *>, COMDAT

; 485  : 	{	// return pointer category from arbitrary arguments

  00000	55		 push	 ebp
  00001	8b ec		 mov	 ebp, esp
  00003	51		 push	 ecx

; 486  : 	_Nonscalar_ptr_iterator_tag _Cat;
; 487  : 	return (_Cat);

  00004	8a 45 ff	 mov	 al, BYTE PTR __Cat$[ebp]

; 488  : 	}

  00007	c9		 leave
  00008	c3		 ret	 0
??$_Ptr_cat@V?$_Vector_const_iterator@V?$_Vector_val@UForceInfo@@V?$allocator@UForceInfo@@@std@@@std@@@std@@PAUForceInfo@@@std@@YA?AU_Nonscalar_ptr_iterator_tag@0@AAV?$_Vector_const_iterator@V?$_Vector_val@UForceInfo@@V?$allocator@UForceInfo@@@std@@@std@@@0@AAPAUForceInfo@@@Z ENDP ; std::_Ptr_cat<std::_Vector_const_iterator<std::_Vector_val<ForceInfo,std::allocator<ForceInfo> > >,ForceInfo *>
_TEXT	ENDS
PUBLIC	??$_Val_type@PAUForceInfo@@@std@@YAPAUForceInfo@@PAU1@@Z ; std::_Val_type<ForceInfo *>
; Function compile flags: /Ogsp
;	COMDAT ??$_Val_type@PAUForceInfo@@@std@@YAPAUForceInfo@@PAU1@@Z
_TEXT	SEGMENT
___formal$ = 8						; size = 4
??$_Val_type@PAUForceInfo@@@std@@YAPAUForceInfo@@PAU1@@Z PROC ; std::_Val_type<ForceInfo *>, COMDAT

; 790  : 	return (0);

  00000	33 c0		 xor	 eax, eax

; 791  : 	}

  00002	c3		 ret	 0
??$_Val_type@PAUForceInfo@@@std@@YAPAUForceInfo@@PAU1@@Z ENDP ; std::_Val_type<ForceInfo *>
_TEXT	ENDS
PUBLIC	??$_Ptr_cat@V?$_Vector_const_iterator@V?$_Vector_val@UBuffInfoStruct@@V?$allocator@UBuffInfoStruct@@@std@@@std@@@std@@PAUBuffInfoStruct@@@std@@YA?AU_Nonscalar_ptr_iterator_tag@0@AAV?$_Vector_const_iterator@V?$_Vector_val@UBuffInfoStruct@@V?$allocator@UBuffInfoStruct@@@std@@@std@@@0@AAPAUBuffInfoStruct@@@Z ; std::_Ptr_cat<std::_Vector_const_iterator<std::_Vector_val<BuffInfoStruct,std::allocator<BuffInfoStruct> > >,BuffInfoStruct *>
; Function compile flags: /Ogsp
;	COMDAT ??$_Ptr_cat@V?$_Vector_const_iterator@V?$_Vector_val@UBuffInfoStruct@@V?$allocator@UBuffInfoStruct@@@std@@@std@@@std@@PAUBuffInfoStruct@@@std@@YA?AU_Nonscalar_ptr_iterator_tag@0@AAV?$_Vector_const_iterator@V?$_Vector_val@UBuffInfoStruct@@V?$allocator@UBuffInfoStruct@@@std@@@std@@@0@AAPAUBuffInfoStruct@@@Z
_TEXT	SEGMENT
__Cat$ = -1						; size = 1
___formal$ = 8						; size = 4
___formal$ = 12						; size = 4
??$_Ptr_cat@V?$_Vector_const_iterator@V?$_Vector_val@UBuffInfoStruct@@V?$allocator@UBuffInfoStruct@@@std@@@std@@@std@@PAUBuffInfoStruct@@@std@@YA?AU_Nonscalar_ptr_iterator_tag@0@AAV?$_Vector_const_iterator@V?$_Vector_val@UBuffInfoStruct@@V?$allocator@UBuffInfoStruct@@@std@@@std@@@0@AAPAUBuffInfoStruct@@@Z PROC ; std::_Ptr_cat<std::_Vector_const_iterator<std::_Vector_val<BuffInfoStruct,std::allocator<BuffInfoStruct> > >,BuffInfoStruct *>, COMDAT

; 485  : 	{	// return pointer category from arbitrary arguments

  00000	55		 push	 ebp
  00001	8b ec		 mov	 ebp, esp
  00003	51		 push	 ecx

; 486  : 	_Nonscalar_ptr_iterator_tag _Cat;
; 487  : 	return (_Cat);

  00004	8a 45 ff	 mov	 al, BYTE PTR __Cat$[ebp]

; 488  : 	}

  00007	c9		 leave
  00008	c3		 ret	 0
??$_Ptr_cat@V?$_Vector_const_iterator@V?$_Vector_val@UBuffInfoStruct@@V?$allocator@UBuffInfoStruct@@@std@@@std@@@std@@PAUBuffInfoStruct@@@std@@YA?AU_Nonscalar_ptr_iterator_tag@0@AAV?$_Vector_const_iterator@V?$_Vector_val@UBuffInfoStruct@@V?$allocator@UBuffInfoStruct@@@std@@@std@@@0@AAPAUBuffInfoStruct@@@Z ENDP ; std::_Ptr_cat<std::_Vector_const_iterator<std::_Vector_val<BuffInfoStruct,std::allocator<BuffInfoStruct> > >,BuffInfoStruct *>
_TEXT	ENDS
PUBLIC	??$_Val_type@PAUBuffInfoStruct@@@std@@YAPAUBuffInfoStruct@@PAU1@@Z ; std::_Val_type<BuffInfoStruct *>
; Function compile flags: /Ogsp
;	COMDAT ??$_Val_type@PAUBuffInfoStruct@@@std@@YAPAUBuffInfoStruct@@PAU1@@Z
_TEXT	SEGMENT
___formal$ = 8						; size = 4
??$_Val_type@PAUBuffInfoStruct@@@std@@YAPAUBuffInfoStruct@@PAU1@@Z PROC ; std::_Val_type<BuffInfoStruct *>, COMDAT

; 790  : 	return (0);

  00000	33 c0		 xor	 eax, eax

; 791  : 	}

  00002	c3		 ret	 0
??$_Val_type@PAUBuffInfoStruct@@@std@@YAPAUBuffInfoStruct@@PAU1@@Z ENDP ; std::_Val_type<BuffInfoStruct *>
_TEXT	ENDS
PUBLIC	??$move@AAUWeaponMoveInfo@@@std@@YA$$QAUWeaponMoveInfo@@AAU1@@Z ; std::move<WeaponMoveInfo &>
; Function compile flags: /Ogsp
; File c:\program files (x86)\microsoft visual studio 10.0\vc\include\utility
;	COMDAT ??$move@AAUWeaponMoveInfo@@@std@@YA$$QAUWeaponMoveInfo@@AAU1@@Z
_TEXT	SEGMENT
__Arg$ = 8						; size = 4
??$move@AAUWeaponMoveInfo@@@std@@YA$$QAUWeaponMoveInfo@@AAU1@@Z PROC ; std::move<WeaponMoveInfo &>, COMDAT

; 86   : 	{	// forward _Arg as movable

  00000	55		 push	 ebp
  00001	8b ec		 mov	 ebp, esp

; 87   : 	return ((typename tr1::_Remove_reference<_Ty>::_Type&&)_Arg);

  00003	8b 45 08	 mov	 eax, DWORD PTR __Arg$[ebp]

; 88   : 	}

  00006	5d		 pop	 ebp
  00007	c3		 ret	 0
??$move@AAUWeaponMoveInfo@@@std@@YA$$QAUWeaponMoveInfo@@AAU1@@Z ENDP ; std::move<WeaponMoveInfo &>
_TEXT	ENDS
PUBLIC	??$_Val_type@PAUWeaponMoveInfo@@@std@@YAPAUWeaponMoveInfo@@PAU1@@Z ; std::_Val_type<WeaponMoveInfo *>
; Function compile flags: /Ogsp
; File c:\program files (x86)\microsoft visual studio 10.0\vc\include\xutility
;	COMDAT ??$_Val_type@PAUWeaponMoveInfo@@@std@@YAPAUWeaponMoveInfo@@PAU1@@Z
_TEXT	SEGMENT
___formal$ = 8						; size = 4
??$_Val_type@PAUWeaponMoveInfo@@@std@@YAPAUWeaponMoveInfo@@PAU1@@Z PROC ; std::_Val_type<WeaponMoveInfo *>, COMDAT

; 790  : 	return (0);

  00000	33 c0		 xor	 eax, eax

; 791  : 	}

  00002	c3		 ret	 0
??$_Val_type@PAUWeaponMoveInfo@@@std@@YAPAUWeaponMoveInfo@@PAU1@@Z ENDP ; std::_Val_type<WeaponMoveInfo *>
_TEXT	ENDS
PUBLIC	??D?$_Vector_const_iterator@V?$_Vector_val@UBuffInfoStruct@@V?$allocator@UBuffInfoStruct@@@std@@@std@@@std@@QBEABUBuffInfoStruct@@XZ ; std::_Vector_const_iterator<std::_Vector_val<BuffInfoStruct,std::allocator<BuffInfoStruct> > >::operator*
; Function compile flags: /Ogsp
; File c:\program files (x86)\microsoft visual studio 10.0\vc\include\vector
;	COMDAT ??D?$_Vector_const_iterator@V?$_Vector_val@UBuffInfoStruct@@V?$allocator@UBuffInfoStruct@@@std@@@std@@@std@@QBEABUBuffInfoStruct@@XZ
_TEXT	SEGMENT
??D?$_Vector_const_iterator@V?$_Vector_val@UBuffInfoStruct@@V?$allocator@UBuffInfoStruct@@@std@@@std@@@std@@QBEABUBuffInfoStruct@@XZ PROC ; std::_Vector_const_iterator<std::_Vector_val<BuffInfoStruct,std::allocator<BuffInfoStruct> > >::operator*, COMDAT
; _this$ = ecx

; 64   :  #if _ITERATOR_DEBUG_LEVEL == 2
; 65   : 		if (this->_Getcont() == 0
; 66   : 			|| this->_Ptr == 0
; 67   : 			|| this->_Ptr < ((_Myvec *)this->_Getcont())->_Myfirst
; 68   : 			|| ((_Myvec *)this->_Getcont())->_Mylast <= this->_Ptr)
; 69   : 			{	// report error
; 70   : 			_DEBUG_ERROR("vector iterator not dereferencable");
; 71   : 			_SCL_SECURE_OUT_OF_RANGE;
; 72   : 			}
; 73   : 
; 74   :  #elif _ITERATOR_DEBUG_LEVEL == 1
; 75   : 		_SCL_SECURE_VALIDATE(this->_Getcont() != 0);
; 76   : 		_SCL_SECURE_VALIDATE_RANGE(
; 77   : 			this->_Ptr != 0
; 78   : 			&& ((_Myvec *)this->_Getcont())->_Myfirst <= this->_Ptr
; 79   : 			&& this->_Ptr < ((_Myvec *)this->_Getcont())->_Mylast);
; 80   :  #endif /* _ITERATOR_DEBUG_LEVEL */
; 81   : 
; 82   : 		__analysis_assume(this->_Ptr != 0);
; 83   : 
; 84   : 		return (*this->_Ptr);

  00000	8b 01		 mov	 eax, DWORD PTR [ecx]

; 85   : 		}

  00002	c3		 ret	 0
??D?$_Vector_const_iterator@V?$_Vector_val@UBuffInfoStruct@@V?$allocator@UBuffInfoStruct@@@std@@@std@@@std@@QBEABUBuffInfoStruct@@XZ ENDP ; std::_Vector_const_iterator<std::_Vector_val<BuffInfoStruct,std::allocator<BuffInfoStruct> > >::operator*
_TEXT	ENDS
PUBLIC	??E?$_Vector_const_iterator@V?$_Vector_val@UBuffInfoStruct@@V?$allocator@UBuffInfoStruct@@@std@@@std@@@std@@QAEAAV01@XZ ; std::_Vector_const_iterator<std::_Vector_val<BuffInfoStruct,std::allocator<BuffInfoStruct> > >::operator++
; Function compile flags: /Ogsp
;	COMDAT ??E?$_Vector_const_iterator@V?$_Vector_val@UBuffInfoStruct@@V?$allocator@UBuffInfoStruct@@@std@@@std@@@std@@QAEAAV01@XZ
_TEXT	SEGMENT
??E?$_Vector_const_iterator@V?$_Vector_val@UBuffInfoStruct@@V?$allocator@UBuffInfoStruct@@@std@@@std@@@std@@QAEAAV01@XZ PROC ; std::_Vector_const_iterator<std::_Vector_val<BuffInfoStruct,std::allocator<BuffInfoStruct> > >::operator++, COMDAT
; _this$ = ecx

; 93   : 		{	// preincrement

  00000	8b c1		 mov	 eax, ecx

; 94   :  #if _ITERATOR_DEBUG_LEVEL == 2
; 95   : 		if (this->_Getcont() == 0
; 96   : 			|| this->_Ptr == 0
; 97   : 			|| ((_Myvec *)this->_Getcont())->_Mylast <= this->_Ptr)
; 98   : 			{	// report error
; 99   : 			_DEBUG_ERROR("vector iterator not incrementable");
; 100  : 			_SCL_SECURE_OUT_OF_RANGE;
; 101  : 			}
; 102  : 
; 103  :  #elif _ITERATOR_DEBUG_LEVEL == 1
; 104  : 		_SCL_SECURE_VALIDATE(this->_Getcont() != 0);
; 105  : 		_SCL_SECURE_VALIDATE_RANGE(
; 106  : 			this->_Ptr != 0
; 107  : 			&& this->_Ptr < ((_Myvec *)this->_Getcont())->_Mylast);
; 108  :  #endif /* _ITERATOR_DEBUG_LEVEL */
; 109  : 
; 110  : 		++this->_Ptr;

  00002	83 00 14	 add	 DWORD PTR [eax], 20	; 00000014H

; 111  : 		return (*this);
; 112  : 		}

  00005	c3		 ret	 0
??E?$_Vector_const_iterator@V?$_Vector_val@UBuffInfoStruct@@V?$allocator@UBuffInfoStruct@@@std@@@std@@@std@@QAEAAV01@XZ ENDP ; std::_Vector_const_iterator<std::_Vector_val<BuffInfoStruct,std::allocator<BuffInfoStruct> > >::operator++
_TEXT	ENDS
PUBLIC	??D?$_Vector_const_iterator@V?$_Vector_val@UWeaponInfo@@V?$allocator@UWeaponInfo@@@std@@@std@@@std@@QBEABUWeaponInfo@@XZ ; std::_Vector_const_iterator<std::_Vector_val<WeaponInfo,std::allocator<WeaponInfo> > >::operator*
; Function compile flags: /Ogsp
;	COMDAT ??D?$_Vector_const_iterator@V?$_Vector_val@UWeaponInfo@@V?$allocator@UWeaponInfo@@@std@@@std@@@std@@QBEABUWeaponInfo@@XZ
_TEXT	SEGMENT
??D?$_Vector_const_iterator@V?$_Vector_val@UWeaponInfo@@V?$allocator@UWeaponInfo@@@std@@@std@@@std@@QBEABUWeaponInfo@@XZ PROC ; std::_Vector_const_iterator<std::_Vector_val<WeaponInfo,std::allocator<WeaponInfo> > >::operator*, COMDAT
; _this$ = ecx

; 64   :  #if _ITERATOR_DEBUG_LEVEL == 2
; 65   : 		if (this->_Getcont() == 0
; 66   : 			|| this->_Ptr == 0
; 67   : 			|| this->_Ptr < ((_Myvec *)this->_Getcont())->_Myfirst
; 68   : 			|| ((_Myvec *)this->_Getcont())->_Mylast <= this->_Ptr)
; 69   : 			{	// report error
; 70   : 			_DEBUG_ERROR("vector iterator not dereferencable");
; 71   : 			_SCL_SECURE_OUT_OF_RANGE;
; 72   : 			}
; 73   : 
; 74   :  #elif _ITERATOR_DEBUG_LEVEL == 1
; 75   : 		_SCL_SECURE_VALIDATE(this->_Getcont() != 0);
; 76   : 		_SCL_SECURE_VALIDATE_RANGE(
; 77   : 			this->_Ptr != 0
; 78   : 			&& ((_Myvec *)this->_Getcont())->_Myfirst <= this->_Ptr
; 79   : 			&& this->_Ptr < ((_Myvec *)this->_Getcont())->_Mylast);
; 80   :  #endif /* _ITERATOR_DEBUG_LEVEL */
; 81   : 
; 82   : 		__analysis_assume(this->_Ptr != 0);
; 83   : 
; 84   : 		return (*this->_Ptr);

  00000	8b 01		 mov	 eax, DWORD PTR [ecx]

; 85   : 		}

  00002	c3		 ret	 0
??D?$_Vector_const_iterator@V?$_Vector_val@UWeaponInfo@@V?$allocator@UWeaponInfo@@@std@@@std@@@std@@QBEABUWeaponInfo@@XZ ENDP ; std::_Vector_const_iterator<std::_Vector_val<WeaponInfo,std::allocator<WeaponInfo> > >::operator*
_TEXT	ENDS
PUBLIC	??E?$_Vector_const_iterator@V?$_Vector_val@UWeaponInfo@@V?$allocator@UWeaponInfo@@@std@@@std@@@std@@QAEAAV01@XZ ; std::_Vector_const_iterator<std::_Vector_val<WeaponInfo,std::allocator<WeaponInfo> > >::operator++
; Function compile flags: /Ogsp
;	COMDAT ??E?$_Vector_const_iterator@V?$_Vector_val@UWeaponInfo@@V?$allocator@UWeaponInfo@@@std@@@std@@@std@@QAEAAV01@XZ
_TEXT	SEGMENT
??E?$_Vector_const_iterator@V?$_Vector_val@UWeaponInfo@@V?$allocator@UWeaponInfo@@@std@@@std@@@std@@QAEAAV01@XZ PROC ; std::_Vector_const_iterator<std::_Vector_val<WeaponInfo,std::allocator<WeaponInfo> > >::operator++, COMDAT
; _this$ = ecx

; 93   : 		{	// preincrement

  00000	8b c1		 mov	 eax, ecx

; 94   :  #if _ITERATOR_DEBUG_LEVEL == 2
; 95   : 		if (this->_Getcont() == 0
; 96   : 			|| this->_Ptr == 0
; 97   : 			|| ((_Myvec *)this->_Getcont())->_Mylast <= this->_Ptr)
; 98   : 			{	// report error
; 99   : 			_DEBUG_ERROR("vector iterator not incrementable");
; 100  : 			_SCL_SECURE_OUT_OF_RANGE;
; 101  : 			}
; 102  : 
; 103  :  #elif _ITERATOR_DEBUG_LEVEL == 1
; 104  : 		_SCL_SECURE_VALIDATE(this->_Getcont() != 0);
; 105  : 		_SCL_SECURE_VALIDATE_RANGE(
; 106  : 			this->_Ptr != 0
; 107  : 			&& this->_Ptr < ((_Myvec *)this->_Getcont())->_Mylast);
; 108  :  #endif /* _ITERATOR_DEBUG_LEVEL */
; 109  : 
; 110  : 		++this->_Ptr;

  00002	83 00 28	 add	 DWORD PTR [eax], 40	; 00000028H

; 111  : 		return (*this);
; 112  : 		}

  00005	c3		 ret	 0
??E?$_Vector_const_iterator@V?$_Vector_val@UWeaponInfo@@V?$allocator@UWeaponInfo@@@std@@@std@@@std@@QAEAAV01@XZ ENDP ; std::_Vector_const_iterator<std::_Vector_val<WeaponInfo,std::allocator<WeaponInfo> > >::operator++
_TEXT	ENDS
PUBLIC	??D?$_Vector_const_iterator@V?$_Vector_val@UForceInfo@@V?$allocator@UForceInfo@@@std@@@std@@@std@@QBEABUForceInfo@@XZ ; std::_Vector_const_iterator<std::_Vector_val<ForceInfo,std::allocator<ForceInfo> > >::operator*
; Function compile flags: /Ogsp
;	COMDAT ??D?$_Vector_const_iterator@V?$_Vector_val@UForceInfo@@V?$allocator@UForceInfo@@@std@@@std@@@std@@QBEABUForceInfo@@XZ
_TEXT	SEGMENT
??D?$_Vector_const_iterator@V?$_Vector_val@UForceInfo@@V?$allocator@UForceInfo@@@std@@@std@@@std@@QBEABUForceInfo@@XZ PROC ; std::_Vector_const_iterator<std::_Vector_val<ForceInfo,std::allocator<ForceInfo> > >::operator*, COMDAT
; _this$ = ecx

; 64   :  #if _ITERATOR_DEBUG_LEVEL == 2
; 65   : 		if (this->_Getcont() == 0
; 66   : 			|| this->_Ptr == 0
; 67   : 			|| this->_Ptr < ((_Myvec *)this->_Getcont())->_Myfirst
; 68   : 			|| ((_Myvec *)this->_Getcont())->_Mylast <= this->_Ptr)
; 69   : 			{	// report error
; 70   : 			_DEBUG_ERROR("vector iterator not dereferencable");
; 71   : 			_SCL_SECURE_OUT_OF_RANGE;
; 72   : 			}
; 73   : 
; 74   :  #elif _ITERATOR_DEBUG_LEVEL == 1
; 75   : 		_SCL_SECURE_VALIDATE(this->_Getcont() != 0);
; 76   : 		_SCL_SECURE_VALIDATE_RANGE(
; 77   : 			this->_Ptr != 0
; 78   : 			&& ((_Myvec *)this->_Getcont())->_Myfirst <= this->_Ptr
; 79   : 			&& this->_Ptr < ((_Myvec *)this->_Getcont())->_Mylast);
; 80   :  #endif /* _ITERATOR_DEBUG_LEVEL */
; 81   : 
; 82   : 		__analysis_assume(this->_Ptr != 0);
; 83   : 
; 84   : 		return (*this->_Ptr);

  00000	8b 01		 mov	 eax, DWORD PTR [ecx]

; 85   : 		}

  00002	c3		 ret	 0
??D?$_Vector_const_iterator@V?$_Vector_val@UForceInfo@@V?$allocator@UForceInfo@@@std@@@std@@@std@@QBEABUForceInfo@@XZ ENDP ; std::_Vector_const_iterator<std::_Vector_val<ForceInfo,std::allocator<ForceInfo> > >::operator*
_TEXT	ENDS
PUBLIC	??E?$_Vector_const_iterator@V?$_Vector_val@UForceInfo@@V?$allocator@UForceInfo@@@std@@@std@@@std@@QAEAAV01@XZ ; std::_Vector_const_iterator<std::_Vector_val<ForceInfo,std::allocator<ForceInfo> > >::operator++
; Function compile flags: /Ogsp
;	COMDAT ??E?$_Vector_const_iterator@V?$_Vector_val@UForceInfo@@V?$allocator@UForceInfo@@@std@@@std@@@std@@QAEAAV01@XZ
_TEXT	SEGMENT
??E?$_Vector_const_iterator@V?$_Vector_val@UForceInfo@@V?$allocator@UForceInfo@@@std@@@std@@@std@@QAEAAV01@XZ PROC ; std::_Vector_const_iterator<std::_Vector_val<ForceInfo,std::allocator<ForceInfo> > >::operator++, COMDAT
; _this$ = ecx

; 93   : 		{	// preincrement

  00000	8b c1		 mov	 eax, ecx

; 94   :  #if _ITERATOR_DEBUG_LEVEL == 2
; 95   : 		if (this->_Getcont() == 0
; 96   : 			|| this->_Ptr == 0
; 97   : 			|| ((_Myvec *)this->_Getcont())->_Mylast <= this->_Ptr)
; 98   : 			{	// report error
; 99   : 			_DEBUG_ERROR("vector iterator not incrementable");
; 100  : 			_SCL_SECURE_OUT_OF_RANGE;
; 101  : 			}
; 102  : 
; 103  :  #elif _ITERATOR_DEBUG_LEVEL == 1
; 104  : 		_SCL_SECURE_VALIDATE(this->_Getcont() != 0);
; 105  : 		_SCL_SECURE_VALIDATE_RANGE(
; 106  : 			this->_Ptr != 0
; 107  : 			&& this->_Ptr < ((_Myvec *)this->_Getcont())->_Mylast);
; 108  :  #endif /* _ITERATOR_DEBUG_LEVEL */
; 109  : 
; 110  : 		++this->_Ptr;

  00002	83 00 0c	 add	 DWORD PTR [eax], 12	; 0000000cH

; 111  : 		return (*this);
; 112  : 		}

  00005	c3		 ret	 0
??E?$_Vector_const_iterator@V?$_Vector_val@UForceInfo@@V?$allocator@UForceInfo@@@std@@@std@@@std@@QAEAAV01@XZ ENDP ; std::_Vector_const_iterator<std::_Vector_val<ForceInfo,std::allocator<ForceInfo> > >::operator++
_TEXT	ENDS
PUBLIC	??$_Destroy@UWeaponMoveInfo@@@std@@YAXPAUWeaponMoveInfo@@@Z ; std::_Destroy<WeaponMoveInfo>
; Function compile flags: /Ogsp
; File c:\program files (x86)\microsoft visual studio 10.0\vc\include\xmemory
;	COMDAT ??$_Destroy@UWeaponMoveInfo@@@std@@YAXPAUWeaponMoveInfo@@@Z
_TEXT	SEGMENT
__Ptr$ = 8						; size = 4
??$_Destroy@UWeaponMoveInfo@@@std@@YAXPAUWeaponMoveInfo@@@Z PROC ; std::_Destroy<WeaponMoveInfo>, COMDAT

; 63   : 	_Ptr->~_Ty();
; 64   : 	}

  00000	c3		 ret	 0
??$_Destroy@UWeaponMoveInfo@@@std@@YAXPAUWeaponMoveInfo@@@Z ENDP ; std::_Destroy<WeaponMoveInfo>
_TEXT	ENDS
PUBLIC	??$forward@UWeaponInfo@@@std@@YA$$QAUWeaponInfo@@AAU1@@Z ; std::forward<WeaponInfo>
; Function compile flags: /Ogsp
; File c:\program files (x86)\microsoft visual studio 10.0\vc\include\utility
;	COMDAT ??$forward@UWeaponInfo@@@std@@YA$$QAUWeaponInfo@@AAU1@@Z
_TEXT	SEGMENT
__Arg$ = 8						; size = 4
??$forward@UWeaponInfo@@@std@@YA$$QAUWeaponInfo@@AAU1@@Z PROC ; std::forward<WeaponInfo>, COMDAT

; 78   : 	{	// forward _Arg, given explicitly specified type parameter

  00000	55		 push	 ebp
  00001	8b ec		 mov	 ebp, esp

; 79   : 	return ((_Ty&&)_Arg);

  00003	8b 45 08	 mov	 eax, DWORD PTR __Arg$[ebp]

; 80   : 	}

  00006	5d		 pop	 ebp
  00007	c3		 ret	 0
??$forward@UWeaponInfo@@@std@@YA$$QAUWeaponInfo@@AAU1@@Z ENDP ; std::forward<WeaponInfo>
_TEXT	ENDS
PUBLIC	??$forward@UForceInfo@@@std@@YA$$QAUForceInfo@@AAU1@@Z ; std::forward<ForceInfo>
; Function compile flags: /Ogsp
;	COMDAT ??$forward@UForceInfo@@@std@@YA$$QAUForceInfo@@AAU1@@Z
_TEXT	SEGMENT
__Arg$ = 8						; size = 4
??$forward@UForceInfo@@@std@@YA$$QAUForceInfo@@AAU1@@Z PROC ; std::forward<ForceInfo>, COMDAT

; 78   : 	{	// forward _Arg, given explicitly specified type parameter

  00000	55		 push	 ebp
  00001	8b ec		 mov	 ebp, esp

; 79   : 	return ((_Ty&&)_Arg);

  00003	8b 45 08	 mov	 eax, DWORD PTR __Arg$[ebp]

; 80   : 	}

  00006	5d		 pop	 ebp
  00007	c3		 ret	 0
??$forward@UForceInfo@@@std@@YA$$QAUForceInfo@@AAU1@@Z ENDP ; std::forward<ForceInfo>
_TEXT	ENDS
PUBLIC	??$forward@UBuffInfoStruct@@@std@@YA$$QAUBuffInfoStruct@@AAU1@@Z ; std::forward<BuffInfoStruct>
; Function compile flags: /Ogsp
;	COMDAT ??$forward@UBuffInfoStruct@@@std@@YA$$QAUBuffInfoStruct@@AAU1@@Z
_TEXT	SEGMENT
__Arg$ = 8						; size = 4
??$forward@UBuffInfoStruct@@@std@@YA$$QAUBuffInfoStruct@@AAU1@@Z PROC ; std::forward<BuffInfoStruct>, COMDAT

; 78   : 	{	// forward _Arg, given explicitly specified type parameter

  00000	55		 push	 ebp
  00001	8b ec		 mov	 ebp, esp

; 79   : 	return ((_Ty&&)_Arg);

  00003	8b 45 08	 mov	 eax, DWORD PTR __Arg$[ebp]

; 80   : 	}

  00006	5d		 pop	 ebp
  00007	c3		 ret	 0
??$forward@UBuffInfoStruct@@@std@@YA$$QAUBuffInfoStruct@@AAU1@@Z ENDP ; std::forward<BuffInfoStruct>
_TEXT	ENDS
PUBLIC	??$forward@UWeaponMoveInfo@@@std@@YA$$QAUWeaponMoveInfo@@AAU1@@Z ; std::forward<WeaponMoveInfo>
; Function compile flags: /Ogsp
;	COMDAT ??$forward@UWeaponMoveInfo@@@std@@YA$$QAUWeaponMoveInfo@@AAU1@@Z
_TEXT	SEGMENT
__Arg$ = 8						; size = 4
??$forward@UWeaponMoveInfo@@@std@@YA$$QAUWeaponMoveInfo@@AAU1@@Z PROC ; std::forward<WeaponMoveInfo>, COMDAT

; 78   : 	{	// forward _Arg, given explicitly specified type parameter

  00000	55		 push	 ebp
  00001	8b ec		 mov	 ebp, esp

; 79   : 	return ((_Ty&&)_Arg);

  00003	8b 45 08	 mov	 eax, DWORD PTR __Arg$[ebp]

; 80   : 	}

  00006	5d		 pop	 ebp
  00007	c3		 ret	 0
??$forward@UWeaponMoveInfo@@@std@@YA$$QAUWeaponMoveInfo@@AAU1@@Z ENDP ; std::forward<WeaponMoveInfo>
_TEXT	ENDS
PUBLIC	?_DECSTR@@YAXPADH@Z				; _DECSTR
; Function compile flags: /Ogsp
; File d:\lost saga for developer\youtube\tutorial\source\src\lsclient\stringprotect.h
;	COMDAT ?_DECSTR@@YAXPADH@Z
_TEXT	SEGMENT
_s$ = 8							; size = 4
_l$ = 12						; size = 4
?_DECSTR@@YAXPADH@Z PROC				; _DECSTR, COMDAT

; 40   : __forceinline void _DECSTR(char* s, int l){int i=0,l4=(l-1)/4,*p=(int*)s;s[l-1]=0;for(;i<l4;++i)*(p++)^=0xEAEBECED;for(i=l4*4;i<l-1;++i)s[i]^=0xED-i%4;}

  00000	55		 push	 ebp
  00001	8b ec		 mov	 ebp, esp
  00003	8b 4d 0c	 mov	 ecx, DWORD PTR _l$[ebp]
  00006	56		 push	 esi
  00007	8b 75 08	 mov	 esi, DWORD PTR _s$[ebp]
  0000a	57		 push	 edi
  0000b	8d 79 ff	 lea	 edi, DWORD PTR [ecx-1]
  0000e	8b c7		 mov	 eax, edi
  00010	99		 cdq
  00011	83 e2 03	 and	 edx, 3
  00014	03 c2		 add	 eax, edx
  00016	c1 f8 02	 sar	 eax, 2
  00019	8b d6		 mov	 edx, esi
  0001b	c6 44 0e ff 00	 mov	 BYTE PTR [esi+ecx-1], 0
  00020	85 c0		 test	 eax, eax
  00022	7e 0e		 jle	 SHORT $LN4@DECSTR
  00024	8b c8		 mov	 ecx, eax
$LL6@DECSTR:
  00026	81 32 ed ec eb
	ea		 xor	 DWORD PTR [edx], -353637139 ; eaebecedH
  0002c	83 c2 04	 add	 edx, 4
  0002f	49		 dec	 ecx
  00030	75 f4		 jne	 SHORT $LL6@DECSTR
$LN4@DECSTR:
  00032	c1 e0 02	 shl	 eax, 2
  00035	eb 17		 jmp	 SHORT $LN14@DECSTR
$LL3@DECSTR:
  00037	8b c8		 mov	 ecx, eax
  00039	81 e1 03 00 00
	80		 and	 ecx, -2147483645	; 80000003H
  0003f	79 05		 jns	 SHORT $LN13@DECSTR
  00041	49		 dec	 ecx
  00042	83 c9 fc	 or	 ecx, -4			; fffffffcH
  00045	41		 inc	 ecx
$LN13@DECSTR:
  00046	b2 ed		 mov	 dl, -19			; ffffffedH
  00048	2a d1		 sub	 dl, cl
  0004a	30 14 30	 xor	 BYTE PTR [eax+esi], dl
  0004d	40		 inc	 eax
$LN14@DECSTR:
  0004e	3b c7		 cmp	 eax, edi
  00050	7c e5		 jl	 SHORT $LL3@DECSTR
  00052	5f		 pop	 edi
  00053	5e		 pop	 esi
  00054	5d		 pop	 ebp
  00055	c3		 ret	 0
?_DECSTR@@YAXPADH@Z ENDP				; _DECSTR
_TEXT	ENDS
PUBLIC	?GetGroup@ioGameEntity@@QBEPAVioEntityGroup@@XZ	; ioGameEntity::GetGroup
; Function compile flags: /Ogsp
; File d:\lost saga for developer\youtube\tutorial\source\src\lsclient\iogameentity.h
;	COMDAT ?GetGroup@ioGameEntity@@QBEPAVioEntityGroup@@XZ
_TEXT	SEGMENT
?GetGroup@ioGameEntity@@QBEPAVioEntityGroup@@XZ PROC	; ioGameEntity::GetGroup, COMDAT
; _this$ = ecx

; 166  : 	inline ioEntityGroup* GetGroup() const { return m_pGroup; }

  00000	8b 41 04	 mov	 eax, DWORD PTR [ecx+4]
  00003	c3		 ret	 0
?GetGroup@ioGameEntity@@QBEPAVioEntityGroup@@XZ ENDP	; ioGameEntity::GetGroup
_TEXT	ENDS
PUBLIC	__real@4f800000
PUBLIC	??0ForceInfo@@QAE@XZ				; ForceInfo::ForceInfo
;	COMDAT __real@4f800000
; File d:\lost saga for developer\youtube\tutorial\source\src\lsclient\stdafx.h
CONST	SEGMENT
__real@4f800000 DD 04f800000r			; 4.29497e+009
; Function compile flags: /Ogsp
; File d:\lost saga for developer\youtube\tutorial\source\src\lsclient\ioattackattribute.h
CONST	ENDS
;	COMDAT ??0ForceInfo@@QAE@XZ
_TEXT	SEGMENT
tv134 = -4						; size = 4
??0ForceInfo@@QAE@XZ PROC				; ForceInfo::ForceInfo, COMDAT
; _this$ = ecx

; 45   : 	ForceInfo()

  00000	55		 push	 ebp
  00001	8b ec		 mov	 ebp, esp
  00003	51		 push	 ecx

; 46   : 	{
; 47   : 		m_fForceMovePower = 0.0f;

  00004	0f 57 c0	 xorps	 xmm0, xmm0
  00007	f3 0f 11 01	 movss	 DWORD PTR [ecx], xmm0

; 48   : 		m_fForceMoveFriction = FLOAT1;

  0000b	b8 01 00 00 00	 mov	 eax, 1
  00010	89 45 fc	 mov	 DWORD PTR tv134[ebp], eax
  00013	db 45 fc	 fild	 DWORD PTR tv134[ebp]
  00016	85 c0		 test	 eax, eax
  00018	79 06		 jns	 SHORT $LN5@ForceInfo
  0001a	d8 05 00 00 00
	00		 fadd	 DWORD PTR __real@4f800000
$LN5@ForceInfo:
  00020	d9 59 04	 fstp	 DWORD PTR [ecx+4]

; 49   : 		m_fForceAngle = 0.0f;

  00023	f3 0f 11 41 08	 movss	 DWORD PTR [ecx+8], xmm0

; 50   : 	}

  00028	8b c1		 mov	 eax, ecx
  0002a	c9		 leave
  0002b	c3		 ret	 0
??0ForceInfo@@QAE@XZ ENDP				; ForceInfo::ForceInfo
_TEXT	ENDS
PUBLIC	?Init@WeaponInfo@@QAEXXZ			; WeaponInfo::Init
; Function compile flags: /Ogsp
;	COMDAT ?Init@WeaponInfo@@QAEXXZ
_TEXT	SEGMENT
?Init@WeaponInfo@@QAEXXZ PROC				; WeaponInfo::Init, COMDAT
; _this$ = ecx

; 71   : 		m_iWeaponIdx = 0;

  00000	33 c0		 xor	 eax, eax
  00002	89 01		 mov	 DWORD PTR [ecx], eax

; 72   : 		m_iResistanceIdx = 0;

  00004	89 41 04	 mov	 DWORD PTR [ecx+4], eax

; 73   : 
; 74   : 		m_dwWoundedDuration = 0;

  00007	89 41 18	 mov	 DWORD PTR [ecx+24], eax

; 75   : 		m_dwCallTime = 0;

  0000a	89 41 1c	 mov	 DWORD PTR [ecx+28], eax

; 76   : 
; 77   : 		m_bWoundedLoopAni = false;

  0000d	88 41 20	 mov	 BYTE PTR [ecx+32], al

; 78   : 
; 79   : 		m_dwDuration = 0;

  00010	89 41 24	 mov	 DWORD PTR [ecx+36], eax

; 80   : 	}

  00013	c3		 ret	 0
?Init@WeaponInfo@@QAEXXZ ENDP				; WeaponInfo::Init
_TEXT	ENDS
PUBLIC	??1WeaponInfo@@QAE@XZ				; WeaponInfo::~WeaponInfo
EXTRN	__imp_??1ioHashString@@QAE@XZ:PROC
; Function compile flags: /Ogsp
;	COMDAT ??1WeaponInfo@@QAE@XZ
_TEXT	SEGMENT
??1WeaponInfo@@QAE@XZ PROC				; WeaponInfo::~WeaponInfo, COMDAT
; _this$ = ecx
  00000	83 c1 08	 add	 ecx, 8
  00003	ff 25 00 00 00
	00		 jmp	 DWORD PTR __imp_??1ioHashString@@QAE@XZ
??1WeaponInfo@@QAE@XZ ENDP				; WeaponInfo::~WeaponInfo
_TEXT	ENDS
PUBLIC	?GetName@ioItem@@QBEABVioHashString@@XZ		; ioItem::GetName
; Function compile flags: /Ogsp
; File d:\lost saga for developer\youtube\tutorial\source\src\lsclient\ioitem.h
;	COMDAT ?GetName@ioItem@@QBEABVioHashString@@XZ
_TEXT	SEGMENT
?GetName@ioItem@@QBEABVioHashString@@XZ PROC		; ioItem::GetName, COMDAT
; _this$ = ecx

; 269  : 	inline const ioHashString& GetName() const { return m_Name; }

  00000	8d 81 34 01 00
	00		 lea	 eax, DWORD PTR [ecx+308]
  00006	c3		 ret	 0
?GetName@ioItem@@QBEABVioHashString@@XZ ENDP		; ioItem::GetName
_TEXT	ENDS
PUBLIC	??0BuffInfoStruct@@QAE@XZ			; BuffInfoStruct::BuffInfoStruct
EXTRN	__imp_?Clear@ioHashString@@QAEXXZ:PROC
EXTRN	__imp_??0ioHashString@@QAE@XZ:PROC
EXTRN	___CxxFrameHandler3:PROC
EXTRN	@__security_check_cookie@4:PROC
EXTRN	__EH_epilog3:PROC
EXTRN	__EH_prolog3:PROC
;	COMDAT xdata$x
; File d:\lost saga for developer\youtube\tutorial\source\src\lsclient\weaponattribute.h
xdata$x	SEGMENT
__unwindtable$??0BuffInfoStruct@@QAE@XZ DD 0ffffffffH
	DD	FLAT:__unwindfunclet$??0BuffInfoStruct@@QAE@XZ$0
__ehfuncinfo$??0BuffInfoStruct@@QAE@XZ DD 019930522H
	DD	01H
	DD	FLAT:__unwindtable$??0BuffInfoStruct@@QAE@XZ
	DD	2 DUP(00H)
	DD	2 DUP(00H)
	DD	00H
	DD	01H
; Function compile flags: /Ogsp
xdata$x	ENDS
;	COMDAT ??0BuffInfoStruct@@QAE@XZ
_TEXT	SEGMENT
_this$ = -16						; size = 4
__$EHRec$ = -12						; size = 12
??0BuffInfoStruct@@QAE@XZ PROC				; BuffInfoStruct::BuffInfoStruct, COMDAT
; _this$ = ecx

; 278  : 	BuffInfoStruct()

  00000	6a 04		 push	 4
  00002	b8 00 00 00 00	 mov	 eax, __ehhandler$??0BuffInfoStruct@@QAE@XZ
  00007	e8 00 00 00 00	 call	 __EH_prolog3
  0000c	8b f1		 mov	 esi, ecx
  0000e	89 75 f0	 mov	 DWORD PTR _this$[ebp], esi
  00011	ff 15 00 00 00
	00		 call	 DWORD PTR __imp_??0ioHashString@@QAE@XZ
  00017	83 65 fc 00	 and	 DWORD PTR __$EHRec$[ebp+8], 0

; 279  : 	{
; 280  : 		m_BuffName.Clear();

  0001b	8b ce		 mov	 ecx, esi
  0001d	ff 15 00 00 00
	00		 call	 DWORD PTR __imp_?Clear@ioHashString@@QAEXXZ

; 281  : 		m_iBuffType = 0;

  00023	83 66 10 00	 and	 DWORD PTR [esi+16], 0

; 282  : 	}

  00027	8b c6		 mov	 eax, esi
  00029	e8 00 00 00 00	 call	 __EH_epilog3
  0002e	c3		 ret	 0
_TEXT	ENDS
;	COMDAT text$x
text$x	SEGMENT
__unwindfunclet$??0BuffInfoStruct@@QAE@XZ$0:
  00000	8b 4d f0	 mov	 ecx, DWORD PTR _this$[ebp]
  00003	ff 25 00 00 00
	00		 jmp	 DWORD PTR __imp_??1ioHashString@@QAE@XZ
__ehhandler$??0BuffInfoStruct@@QAE@XZ:
  00009	8b 54 24 08	 mov	 edx, DWORD PTR [esp+8]
  0000d	8d 42 0c	 lea	 eax, DWORD PTR [edx+12]
  00010	8b 4a ec	 mov	 ecx, DWORD PTR [edx-20]
  00013	33 c8		 xor	 ecx, eax
  00015	e8 00 00 00 00	 call	 @__security_check_cookie@4
  0001a	b8 00 00 00 00	 mov	 eax, OFFSET __ehfuncinfo$??0BuffInfoStruct@@QAE@XZ
  0001f	e9 00 00 00 00	 jmp	 ___CxxFrameHandler3
text$x	ENDS
??0BuffInfoStruct@@QAE@XZ ENDP				; BuffInfoStruct::BuffInfoStruct
PUBLIC	??1BuffInfoStruct@@QAE@XZ			; BuffInfoStruct::~BuffInfoStruct
; Function compile flags: /Ogsp
;	COMDAT ??1BuffInfoStruct@@QAE@XZ
_TEXT	SEGMENT
??1BuffInfoStruct@@QAE@XZ PROC				; BuffInfoStruct::~BuffInfoStruct, COMDAT
; _this$ = ecx
  00000	ff 25 00 00 00
	00		 jmp	 DWORD PTR __imp_??1ioHashString@@QAE@XZ
??1BuffInfoStruct@@QAE@XZ ENDP				; BuffInfoStruct::~BuffInfoStruct
_TEXT	ENDS
PUBLIC	?GetOwnerItem@ioSkill@@QBEPAVioItem@@XZ		; ioSkill::GetOwnerItem
; Function compile flags: /Ogsp
; File d:\lost saga for developer\youtube\tutorial\source\src\lsclient\ioskill.h
;	COMDAT ?GetOwnerItem@ioSkill@@QBEPAVioItem@@XZ
_TEXT	SEGMENT
?GetOwnerItem@ioSkill@@QBEPAVioItem@@XZ PROC		; ioSkill::GetOwnerItem, COMDAT
; _this$ = ecx

; 397  : 	inline ioItem *GetOwnerItem() const { return m_pOwnerItem; }

  00000	8b 81 a4 02 00
	00		 mov	 eax, DWORD PTR [ecx+676]
  00006	c3		 ret	 0
?GetOwnerItem@ioSkill@@QBEPAVioItem@@XZ ENDP		; ioSkill::GetOwnerItem
_TEXT	ENDS
PUBLIC	?GetName@ioSkill@@QBEABVioHashString@@XZ	; ioSkill::GetName
; Function compile flags: /Ogsp
;	COMDAT ?GetName@ioSkill@@QBEABVioHashString@@XZ
_TEXT	SEGMENT
?GetName@ioSkill@@QBEABVioHashString@@XZ PROC		; ioSkill::GetName, COMDAT
; _this$ = ecx

; 414  : 	inline const ioHashString& GetName() const { return m_Name; }

  00000	8d 41 24	 lea	 eax, DWORD PTR [ecx+36]
  00003	c3		 ret	 0
?GetName@ioSkill@@QBEABVioHashString@@XZ ENDP		; ioSkill::GetName
_TEXT	ENDS
PUBLIC	??0WeaponMoveInfo@@QAE@XZ			; WeaponMoveInfo::WeaponMoveInfo
; Function compile flags: /Ogsp
; File d:\lost saga for developer\youtube\tutorial\source\src\lsclient\ionormalskill.h
;	COMDAT ??0WeaponMoveInfo@@QAE@XZ
_TEXT	SEGMENT
$T411550 = -12						; size = 12
??0WeaponMoveInfo@@QAE@XZ PROC				; WeaponMoveInfo::WeaponMoveInfo, COMDAT
; _this$ = ecx

; 16   : 	WeaponMoveInfo()

  00000	55		 push	 ebp
  00001	8b ec		 mov	 ebp, esp
  00003	83 ec 0c	 sub	 esp, 12			; 0000000cH

; 17   : 	{
; 18   : 		m_vMoveDir = D3DXVECTOR3( 0.0f, 0.0f, 0.0f );

  00006	0f 57 c0	 xorps	 xmm0, xmm0
  00009	56		 push	 esi
  0000a	57		 push	 edi
  0000b	8b c1		 mov	 eax, ecx
  0000d	f3 0f 11 45 f4	 movss	 DWORD PTR $T411550[ebp], xmm0
  00012	f3 0f 11 45 f8	 movss	 DWORD PTR $T411550[ebp+4], xmm0
  00017	f3 0f 11 45 fc	 movss	 DWORD PTR $T411550[ebp+8], xmm0
  0001c	8d 75 f4	 lea	 esi, DWORD PTR $T411550[ebp]
  0001f	8b f8		 mov	 edi, eax
  00021	a5		 movsd
  00022	a5		 movsd
  00023	a5		 movsd
  00024	5f		 pop	 edi

; 19   : 		m_fMoveSpeed = 0.0f;

  00025	f3 0f 11 40 0c	 movss	 DWORD PTR [eax+12], xmm0

; 20   : 		m_fFloatPower = 0.0f;

  0002a	f3 0f 11 40 10	 movss	 DWORD PTR [eax+16], xmm0
  0002f	5e		 pop	 esi

; 21   : 	}

  00030	c9		 leave
  00031	c3		 ret	 0
??0WeaponMoveInfo@@QAE@XZ ENDP				; WeaponMoveInfo::WeaponMoveInfo
_TEXT	ENDS
PUBLIC	?GetTypeID@ioBuff@@QBEHXZ			; ioBuff::GetTypeID
; Function compile flags: /Ogsp
; File d:\lost saga for developer\youtube\tutorial\source\src\lsclient\iobuff.h
;	COMDAT ?GetTypeID@ioBuff@@QBEHXZ
_TEXT	SEGMENT
?GetTypeID@ioBuff@@QBEHXZ PROC				; ioBuff::GetTypeID, COMDAT
; _this$ = ecx

; 424  : 	inline int GetTypeID() const { return m_iBuffType; }

  00000	8b 81 cc 03 00
	00		 mov	 eax, DWORD PTR [ecx+972]
  00006	c3		 ret	 0
?GetTypeID@ioBuff@@QBEHXZ ENDP				; ioBuff::GetTypeID
_TEXT	ENDS
PUBLIC	??_7?$CEncrypt@M@@6B@				; CEncrypt<float>::`vftable'
PUBLIC	??1?$CEncrypt@M@@UAE@XZ				; CEncrypt<float>::~CEncrypt<float>
PUBLIC	??_R4?$CEncrypt@M@@6B@				; CEncrypt<float>::`RTTI Complete Object Locator'
PUBLIC	??_R0?AV?$CEncrypt@M@@@8			; CEncrypt<float> `RTTI Type Descriptor'
PUBLIC	??_R3?$CEncrypt@M@@8				; CEncrypt<float>::`RTTI Class Hierarchy Descriptor'
PUBLIC	??_R2?$CEncrypt@M@@8				; CEncrypt<float>::`RTTI Base Class Array'
PUBLIC	??_R1A@?0A@EA@?$CEncrypt@M@@8			; CEncrypt<float>::`RTTI Base Class Descriptor at (0,-1,0,64)'
EXTRN	??1ccddaabb@@UAE@XZ:PROC			; ccddaabb::~ccddaabb
EXTRN	??_E?$CEncrypt@M@@UAEPAXI@Z:PROC		; CEncrypt<float>::`vector deleting destructor'
;	COMDAT ??_R1A@?0A@EA@?$CEncrypt@M@@8
; File d:\lost saga for developer\youtube\tutorial\source\src\lsclient\encryptvalue.h
rdata$r	SEGMENT
??_R1A@?0A@EA@?$CEncrypt@M@@8 DD FLAT:??_R0?AV?$CEncrypt@M@@@8 ; CEncrypt<float>::`RTTI Base Class Descriptor at (0,-1,0,64)'
	DD	00H
	DD	00H
	DD	0ffffffffH
	DD	00H
	DD	040H
	DD	FLAT:??_R3?$CEncrypt@M@@8
rdata$r	ENDS
;	COMDAT ??_R2?$CEncrypt@M@@8
rdata$r	SEGMENT
??_R2?$CEncrypt@M@@8 DD FLAT:??_R1A@?0A@EA@?$CEncrypt@M@@8 ; CEncrypt<float>::`RTTI Base Class Array'
rdata$r	ENDS
;	COMDAT ??_R3?$CEncrypt@M@@8
rdata$r	SEGMENT
??_R3?$CEncrypt@M@@8 DD 00H				; CEncrypt<float>::`RTTI Class Hierarchy Descriptor'
	DD	00H
	DD	01H
	DD	FLAT:??_R2?$CEncrypt@M@@8
rdata$r	ENDS
;	COMDAT ??_R0?AV?$CEncrypt@M@@@8
_DATA	SEGMENT
??_R0?AV?$CEncrypt@M@@@8 DD FLAT:??_7type_info@@6B@	; CEncrypt<float> `RTTI Type Descriptor'
	DD	00H
	DB	'.?AV?$CEncrypt@M@@', 00H
_DATA	ENDS
;	COMDAT ??_R4?$CEncrypt@M@@6B@
rdata$r	SEGMENT
??_R4?$CEncrypt@M@@6B@ DD 00H				; CEncrypt<float>::`RTTI Complete Object Locator'
	DD	00H
	DD	00H
	DD	FLAT:??_R0?AV?$CEncrypt@M@@@8
	DD	FLAT:??_R3?$CEncrypt@M@@8
rdata$r	ENDS
;	COMDAT ??_7?$CEncrypt@M@@6B@
CONST	SEGMENT
??_7?$CEncrypt@M@@6B@ DD FLAT:??_R4?$CEncrypt@M@@6B@	; CEncrypt<float>::`vftable'
	DD	FLAT:??_E?$CEncrypt@M@@UAEPAXI@Z
; Function compile flags: /Ogsp
CONST	ENDS
;	COMDAT ??1?$CEncrypt@M@@UAE@XZ
_TEXT	SEGMENT
??1?$CEncrypt@M@@UAE@XZ PROC				; CEncrypt<float>::~CEncrypt<float>, COMDAT
; _this$ = ecx

; 127  : 	{

  00000	c7 01 00 00 00
	00		 mov	 DWORD PTR [ecx], OFFSET ??_7?$CEncrypt@M@@6B@

; 128  : 	}

  00006	83 c1 0c	 add	 ecx, 12			; 0000000cH
  00009	e9 00 00 00 00	 jmp	 ??1ccddaabb@@UAE@XZ	; ccddaabb::~ccddaabb
??1?$CEncrypt@M@@UAE@XZ ENDP				; CEncrypt<float>::~CEncrypt<float>
_TEXT	ENDS
PUBLIC	??_7?$CEncrypt@H@@6B@				; CEncrypt<int>::`vftable'
PUBLIC	??1?$CEncrypt@H@@UAE@XZ				; CEncrypt<int>::~CEncrypt<int>
PUBLIC	??_R4?$CEncrypt@H@@6B@				; CEncrypt<int>::`RTTI Complete Object Locator'
PUBLIC	??_R0?AV?$CEncrypt@H@@@8			; CEncrypt<int> `RTTI Type Descriptor'
PUBLIC	??_R3?$CEncrypt@H@@8				; CEncrypt<int>::`RTTI Class Hierarchy Descriptor'
PUBLIC	??_R2?$CEncrypt@H@@8				; CEncrypt<int>::`RTTI Base Class Array'
PUBLIC	??_R1A@?0A@EA@?$CEncrypt@H@@8			; CEncrypt<int>::`RTTI Base Class Descriptor at (0,-1,0,64)'
EXTRN	??_E?$CEncrypt@H@@UAEPAXI@Z:PROC		; CEncrypt<int>::`vector deleting destructor'
;	COMDAT ??_R1A@?0A@EA@?$CEncrypt@H@@8
rdata$r	SEGMENT
??_R1A@?0A@EA@?$CEncrypt@H@@8 DD FLAT:??_R0?AV?$CEncrypt@H@@@8 ; CEncrypt<int>::`RTTI Base Class Descriptor at (0,-1,0,64)'
	DD	00H
	DD	00H
	DD	0ffffffffH
	DD	00H
	DD	040H
	DD	FLAT:??_R3?$CEncrypt@H@@8
rdata$r	ENDS
;	COMDAT ??_R2?$CEncrypt@H@@8
rdata$r	SEGMENT
??_R2?$CEncrypt@H@@8 DD FLAT:??_R1A@?0A@EA@?$CEncrypt@H@@8 ; CEncrypt<int>::`RTTI Base Class Array'
rdata$r	ENDS
;	COMDAT ??_R3?$CEncrypt@H@@8
rdata$r	SEGMENT
??_R3?$CEncrypt@H@@8 DD 00H				; CEncrypt<int>::`RTTI Class Hierarchy Descriptor'
	DD	00H
	DD	01H
	DD	FLAT:??_R2?$CEncrypt@H@@8
rdata$r	ENDS
;	COMDAT ??_R0?AV?$CEncrypt@H@@@8
_DATA	SEGMENT
??_R0?AV?$CEncrypt@H@@@8 DD FLAT:??_7type_info@@6B@	; CEncrypt<int> `RTTI Type Descriptor'
	DD	00H
	DB	'.?AV?$CEncrypt@H@@', 00H
_DATA	ENDS
;	COMDAT ??_R4?$CEncrypt@H@@6B@
rdata$r	SEGMENT
??_R4?$CEncrypt@H@@6B@ DD 00H				; CEncrypt<int>::`RTTI Complete Object Locator'
	DD	00H
	DD	00H
	DD	FLAT:??_R0?AV?$CEncrypt@H@@@8
	DD	FLAT:??_R3?$CEncrypt@H@@8
rdata$r	ENDS
;	COMDAT ??_7?$CEncrypt@H@@6B@
CONST	SEGMENT
??_7?$CEncrypt@H@@6B@ DD FLAT:??_R4?$CEncrypt@H@@6B@	; CEncrypt<int>::`vftable'
	DD	FLAT:??_E?$CEncrypt@H@@UAEPAXI@Z
; Function compile flags: /Ogsp
CONST	ENDS
;	COMDAT ??1?$CEncrypt@H@@UAE@XZ
_TEXT	SEGMENT
??1?$CEncrypt@H@@UAE@XZ PROC				; CEncrypt<int>::~CEncrypt<int>, COMDAT
; _this$ = ecx

; 127  : 	{

  00000	c7 01 00 00 00
	00		 mov	 DWORD PTR [ecx], OFFSET ??_7?$CEncrypt@H@@6B@

; 128  : 	}

  00006	83 c1 0c	 add	 ecx, 12			; 0000000cH
  00009	e9 00 00 00 00	 jmp	 ??1ccddaabb@@UAE@XZ	; ccddaabb::~ccddaabb
??1?$CEncrypt@H@@UAE@XZ ENDP				; CEncrypt<int>::~CEncrypt<int>
; Function compile flags: /Ogsp
_TEXT	ENDS
;	COMDAT ??_G?$CEncrypt@M@@UAEPAXI@Z
_TEXT	SEGMENT
___flags$ = 8						; size = 4
??_G?$CEncrypt@M@@UAEPAXI@Z PROC			; CEncrypt<float>::`scalar deleting destructor', COMDAT
; _this$ = ecx
  00000	55		 push	 ebp
  00001	8b ec		 mov	 ebp, esp
  00003	56		 push	 esi
  00004	8b f1		 mov	 esi, ecx
  00006	8d 4e 0c	 lea	 ecx, DWORD PTR [esi+12]
  00009	c7 06 00 00 00
	00		 mov	 DWORD PTR [esi], OFFSET ??_7?$CEncrypt@M@@6B@
  0000f	e8 00 00 00 00	 call	 ??1ccddaabb@@UAE@XZ	; ccddaabb::~ccddaabb
  00014	f6 45 08 01	 test	 BYTE PTR ___flags$[ebp], 1
  00018	74 07		 je	 SHORT $LN1@scalar@2
  0001a	56		 push	 esi
  0001b	e8 00 00 00 00	 call	 ??3@YAXPAX@Z		; operator delete
  00020	59		 pop	 ecx
$LN1@scalar@2:
  00021	8b c6		 mov	 eax, esi
  00023	5e		 pop	 esi
  00024	5d		 pop	 ebp
  00025	c2 04 00	 ret	 4
??_G?$CEncrypt@M@@UAEPAXI@Z ENDP			; CEncrypt<float>::`scalar deleting destructor'
; Function compile flags: /Ogsp
_TEXT	ENDS
;	COMDAT ??_G?$CEncrypt@H@@UAEPAXI@Z
_TEXT	SEGMENT
___flags$ = 8						; size = 4
??_G?$CEncrypt@H@@UAEPAXI@Z PROC			; CEncrypt<int>::`scalar deleting destructor', COMDAT
; _this$ = ecx
  00000	55		 push	 ebp
  00001	8b ec		 mov	 ebp, esp
  00003	56		 push	 esi
  00004	8b f1		 mov	 esi, ecx
  00006	8d 4e 0c	 lea	 ecx, DWORD PTR [esi+12]
  00009	c7 06 00 00 00
	00		 mov	 DWORD PTR [esi], OFFSET ??_7?$CEncrypt@H@@6B@
  0000f	e8 00 00 00 00	 call	 ??1ccddaabb@@UAE@XZ	; ccddaabb::~ccddaabb
  00014	f6 45 08 01	 test	 BYTE PTR ___flags$[ebp], 1
  00018	74 07		 je	 SHORT $LN1@scalar@3
  0001a	56		 push	 esi
  0001b	e8 00 00 00 00	 call	 ??3@YAXPAX@Z		; operator delete
  00020	59		 pop	 ecx
$LN1@scalar@3:
  00021	8b c6		 mov	 eax, esi
  00023	5e		 pop	 esi
  00024	5d		 pop	 ebp
  00025	c2 04 00	 ret	 4
??_G?$CEncrypt@H@@UAEPAXI@Z ENDP			; CEncrypt<int>::`scalar deleting destructor'
_TEXT	ENDS
PUBLIC	??1?$_Vector_val@UWeaponInfo@@V?$allocator@UWeaponInfo@@@std@@@std@@QAE@XZ ; std::_Vector_val<WeaponInfo,std::allocator<WeaponInfo> >::~_Vector_val<WeaponInfo,std::allocator<WeaponInfo> >
; Function compile flags: /Ogsp
; File c:\program files (x86)\microsoft visual studio 10.0\vc\include\vector
;	COMDAT ??1?$_Vector_val@UWeaponInfo@@V?$allocator@UWeaponInfo@@@std@@@std@@QAE@XZ
_TEXT	SEGMENT
??1?$_Vector_val@UWeaponInfo@@V?$allocator@UWeaponInfo@@@std@@@std@@QAE@XZ PROC ; std::_Vector_val<WeaponInfo,std::allocator<WeaponInfo> >::~_Vector_val<WeaponInfo,std::allocator<WeaponInfo> >, COMDAT
; _this$ = ecx

; 434  : 		}

  00000	c3		 ret	 0
??1?$_Vector_val@UWeaponInfo@@V?$allocator@UWeaponInfo@@@std@@@std@@QAE@XZ ENDP ; std::_Vector_val<WeaponInfo,std::allocator<WeaponInfo> >::~_Vector_val<WeaponInfo,std::allocator<WeaponInfo> >
_TEXT	ENDS
PUBLIC	??0?$allocator@UWeaponInfo@@@std@@QAE@XZ	; std::allocator<WeaponInfo>::allocator<WeaponInfo>
; Function compile flags: /Ogsp
; File c:\program files (x86)\microsoft visual studio 10.0\vc\include\xmemory
;	COMDAT ??0?$allocator@UWeaponInfo@@@std@@QAE@XZ
_TEXT	SEGMENT
??0?$allocator@UWeaponInfo@@@std@@QAE@XZ PROC		; std::allocator<WeaponInfo>::allocator<WeaponInfo>, COMDAT
; _this$ = ecx

; 161  : 	_ALLOCATOR() _THROW0()

  00000	8b c1		 mov	 eax, ecx

; 162  : 		{	// construct default allocator (do nothing)
; 163  : 		}

  00002	c3		 ret	 0
??0?$allocator@UWeaponInfo@@@std@@QAE@XZ ENDP		; std::allocator<WeaponInfo>::allocator<WeaponInfo>
_TEXT	ENDS
PUBLIC	??1?$_Vector_val@UForceInfo@@V?$allocator@UForceInfo@@@std@@@std@@QAE@XZ ; std::_Vector_val<ForceInfo,std::allocator<ForceInfo> >::~_Vector_val<ForceInfo,std::allocator<ForceInfo> >
; Function compile flags: /Ogsp
; File c:\program files (x86)\microsoft visual studio 10.0\vc\include\vector
;	COMDAT ??1?$_Vector_val@UForceInfo@@V?$allocator@UForceInfo@@@std@@@std@@QAE@XZ
_TEXT	SEGMENT
??1?$_Vector_val@UForceInfo@@V?$allocator@UForceInfo@@@std@@@std@@QAE@XZ PROC ; std::_Vector_val<ForceInfo,std::allocator<ForceInfo> >::~_Vector_val<ForceInfo,std::allocator<ForceInfo> >, COMDAT
; _this$ = ecx

; 434  : 		}

  00000	c3		 ret	 0
??1?$_Vector_val@UForceInfo@@V?$allocator@UForceInfo@@@std@@@std@@QAE@XZ ENDP ; std::_Vector_val<ForceInfo,std::allocator<ForceInfo> >::~_Vector_val<ForceInfo,std::allocator<ForceInfo> >
_TEXT	ENDS
PUBLIC	??0?$allocator@UForceInfo@@@std@@QAE@XZ		; std::allocator<ForceInfo>::allocator<ForceInfo>
; Function compile flags: /Ogsp
; File c:\program files (x86)\microsoft visual studio 10.0\vc\include\xmemory
;	COMDAT ??0?$allocator@UForceInfo@@@std@@QAE@XZ
_TEXT	SEGMENT
??0?$allocator@UForceInfo@@@std@@QAE@XZ PROC		; std::allocator<ForceInfo>::allocator<ForceInfo>, COMDAT
; _this$ = ecx

; 161  : 	_ALLOCATOR() _THROW0()

  00000	8b c1		 mov	 eax, ecx

; 162  : 		{	// construct default allocator (do nothing)
; 163  : 		}

  00002	c3		 ret	 0
??0?$allocator@UForceInfo@@@std@@QAE@XZ ENDP		; std::allocator<ForceInfo>::allocator<ForceInfo>
_TEXT	ENDS
PUBLIC	?EncryptValueToPool@?$CEncrypt@M@@AAEXPBD@Z	; CEncrypt<float>::EncryptValueToPool
EXTRN	?EncryptByte@ccddaabb@@QAEXPBDPADH@Z:PROC	; ccddaabb::EncryptByte
; Function compile flags: /Ogsp
; File d:\lost saga for developer\youtube\tutorial\source\src\lsclient\encryptvalue.h
;	COMDAT ?EncryptValueToPool@?$CEncrypt@M@@AAEXPBD@Z
_TEXT	SEGMENT
_value$ = 8						; size = 4
?EncryptValueToPool@?$CEncrypt@M@@AAEXPBD@Z PROC	; CEncrypt<float>::EncryptValueToPool, COMDAT
; _this$ = ecx

; 67   : 	{

  00000	55		 push	 ebp
  00001	8b ec		 mov	 ebp, esp

; 68   : 		m_RC5.EncryptByte( value, m_MemPool, max(m_ValueSize, DEFAULT_ENCRYPT) );

  00003	0f b7 41 06	 movzx	 eax, WORD PTR [ecx+6]
  00007	83 f8 04	 cmp	 eax, 4
  0000a	77 03		 ja	 SHORT $LN4@EncryptVal
  0000c	6a 04		 push	 4
  0000e	58		 pop	 eax
$LN4@EncryptVal:
  0000f	50		 push	 eax
  00010	8d 41 1c	 lea	 eax, DWORD PTR [ecx+28]
  00013	50		 push	 eax
  00014	ff 75 08	 push	 DWORD PTR _value$[ebp]
  00017	83 c1 0c	 add	 ecx, 12			; 0000000cH
  0001a	e8 00 00 00 00	 call	 ?EncryptByte@ccddaabb@@QAEXPBDPADH@Z ; ccddaabb::EncryptByte

; 69   : 		
; 70   : 	}

  0001f	5d		 pop	 ebp
  00020	c2 04 00	 ret	 4
?EncryptValueToPool@?$CEncrypt@M@@AAEXPBD@Z ENDP	; CEncrypt<float>::EncryptValueToPool
_TEXT	ENDS
PUBLIC	?Init@?$CEncrypt@M@@AAEXXZ			; CEncrypt<float>::Init
EXTRN	?Setup@ccddaabb@@QAEXPBDHH@Z:PROC		; ccddaabb::Setup
EXTRN	__imp__rand:PROC
EXTRN	__imp__timeGetTime@0:PROC
EXTRN	__imp__GetCurrentProcessId@0:PROC
; Function compile flags: /Ogsp
;	COMDAT ?Init@?$CEncrypt@M@@AAEXXZ
_TEXT	SEGMENT
_pid$ = -8						; size = 4
_tick$ = -4						; size = 4
?Init@?$CEncrypt@M@@AAEXXZ PROC				; CEncrypt<float>::Init, COMDAT
; _this$ = ecx

; 73   : 	{

  00000	55		 push	 ebp
  00001	8b ec		 mov	 ebp, esp
  00003	51		 push	 ecx
  00004	51		 push	 ecx
  00005	53		 push	 ebx
  00006	56		 push	 esi
  00007	57		 push	 edi
  00008	8b f1		 mov	 esi, ecx

; 74   : 		DWORD pid = GetCurrentProcessId();

  0000a	ff 15 00 00 00
	00		 call	 DWORD PTR __imp__GetCurrentProcessId@0
  00010	89 45 f8	 mov	 DWORD PTR _pid$[ebp], eax

; 75   : 		DWORD tick = timeGetTime();

  00013	ff 15 00 00 00
	00		 call	 DWORD PTR __imp__timeGetTime@0

; 76   : 		m_ValueSize    = sizeof(type);
; 77   : 		m_MemPoolPos   = (unsigned short)( rand()+pid+tick )%(MAX_MEM_POOL-m_ValueSize);

  00019	8b 3d 00 00 00
	00		 mov	 edi, DWORD PTR __imp__rand
  0001f	89 45 fc	 mov	 DWORD PTR _tick$[ebp], eax
  00022	6a 04		 push	 4
  00024	58		 pop	 eax
  00025	66 89 46 06	 mov	 WORD PTR [esi+6], ax
  00029	ff d7		 call	 edi
  0002b	03 45 f8	 add	 eax, DWORD PTR _pid$[ebp]
  0002e	0f b7 4e 06	 movzx	 ecx, WORD PTR [esi+6]
  00032	03 45 fc	 add	 eax, DWORD PTR _tick$[ebp]
  00035	6a 0c		 push	 12			; 0000000cH
  00037	0f b7 c0	 movzx	 eax, ax
  0003a	5b		 pop	 ebx
  0003b	99		 cdq
  0003c	2b d9		 sub	 ebx, ecx
  0003e	f7 fb		 idiv	 ebx
  00040	66 89 56 04	 mov	 WORD PTR [esi+4], dx

; 78   : 		m_EncryptSeed  = (char)( rand()+pid+tick )%256;

  00044	ff d7		 call	 edi
  00046	02 45 f8	 add	 al, BYTE PTR _pid$[ebp]
  00049	02 45 fc	 add	 al, BYTE PTR _tick$[ebp]
  0004c	0f be c0	 movsx	 eax, al
  0004f	25 ff 00 00 80	 and	 eax, -2147483393	; 800000ffH
  00054	79 07		 jns	 SHORT $LN8@Init
  00056	48		 dec	 eax
  00057	0d 00 ff ff ff	 or	 eax, -256		; ffffff00H
  0005c	40		 inc	 eax
$LN8@Init:
  0005d	88 46 08	 mov	 BYTE PTR [esi+8], al

; 79   : 
; 80   : 		for (int i = 0; i < MAX_MEM_POOL ; i++)

  00060	33 db		 xor	 ebx, ebx
$LL3@Init:

; 81   : 			m_MemPool[i] = (char)( rand()+pid+tick )%256; // 

  00062	ff d7		 call	 edi
  00064	02 45 f8	 add	 al, BYTE PTR _pid$[ebp]
  00067	02 45 fc	 add	 al, BYTE PTR _tick$[ebp]
  0006a	0f be c0	 movsx	 eax, al
  0006d	25 ff 00 00 80	 and	 eax, -2147483393	; 800000ffH
  00072	79 07		 jns	 SHORT $LN9@Init
  00074	48		 dec	 eax
  00075	0d 00 ff ff ff	 or	 eax, -256		; ffffff00H
  0007a	40		 inc	 eax
$LN9@Init:
  0007b	88 44 1e 1c	 mov	 BYTE PTR [esi+ebx+28], al
  0007f	43		 inc	 ebx
  00080	83 fb 0c	 cmp	 ebx, 12			; 0000000cH
  00083	7c dd		 jl	 SHORT $LL3@Init

; 82   : 
; 83   : 		//UJ 130913, : szKey  
; 84   : 		//char szKey[ccddaabb::KEY_SIZE];//="";
; 85   : 		//for (int i = 0; i < ccddaabb::KEY_SIZE  ; i++)
; 86   : 		//	szKey[i] = (char)( rand()+pid+tick )%256; // 
; 87   : 		m_RC5.Setup( NULL, pid, tick );

  00085	ff 75 fc	 push	 DWORD PTR _tick$[ebp]
  00088	8d 4e 0c	 lea	 ecx, DWORD PTR [esi+12]
  0008b	ff 75 f8	 push	 DWORD PTR _pid$[ebp]
  0008e	6a 00		 push	 0
  00090	e8 00 00 00 00	 call	 ?Setup@ccddaabb@@QAEXPBDHH@Z ; ccddaabb::Setup
  00095	5f		 pop	 edi
  00096	5e		 pop	 esi
  00097	5b		 pop	 ebx

; 88   : 
; 89   : #ifdef _NOTUSE
; 90   : 		m_value        = 0;
; 91   : 		EncryptValueToPool((char*)&m_value);
; 92   : 		Debug();
; 93   : #endif
; 94   : 	}

  00098	c9		 leave
  00099	c3		 ret	 0
?Init@?$CEncrypt@M@@AAEXXZ ENDP				; CEncrypt<float>::Init
_TEXT	ENDS
PUBLIC	?DecryptValueToPool@?$CEncrypt@M@@QAEXPAM@Z	; CEncrypt<float>::DecryptValueToPool
EXTRN	?DecryptByte@ccddaabb@@QBEXPBDPADH@Z:PROC	; ccddaabb::DecryptByte
; Function compile flags: /Ogsp
;	COMDAT ?DecryptValueToPool@?$CEncrypt@M@@QAEXPAM@Z
_TEXT	SEGMENT
_value$ = 8						; size = 4
?DecryptValueToPool@?$CEncrypt@M@@QAEXPAM@Z PROC	; CEncrypt<float>::DecryptValueToPool, COMDAT
; _this$ = ecx

; 1648 : 	{

  00000	55		 push	 ebp
  00001	8b ec		 mov	 ebp, esp
  00003	56		 push	 esi

; 1649 : 		m_RC5.DecryptByte( m_MemPool, m_TempMem, 4 );

  00004	8d 71 28	 lea	 esi, DWORD PTR [ecx+40]
  00007	6a 04		 push	 4
  00009	8d 41 1c	 lea	 eax, DWORD PTR [ecx+28]
  0000c	56		 push	 esi
  0000d	50		 push	 eax
  0000e	83 c1 0c	 add	 ecx, 12			; 0000000cH
  00011	e8 00 00 00 00	 call	 ?DecryptByte@ccddaabb@@QBEXPBDPADH@Z ; ccddaabb::DecryptByte

; 1650 : 		*value = *((float*)m_TempMem);

  00016	d9 06		 fld	 DWORD PTR [esi]
  00018	8b 45 08	 mov	 eax, DWORD PTR _value$[ebp]
  0001b	d9 18		 fstp	 DWORD PTR [eax]
  0001d	5e		 pop	 esi

; 1651 : 	}

  0001e	5d		 pop	 ebp
  0001f	c2 04 00	 ret	 4
?DecryptValueToPool@?$CEncrypt@M@@QAEXPAM@Z ENDP	; CEncrypt<float>::DecryptValueToPool
_TEXT	ENDS
PUBLIC	?EncryptValueToPool@?$CEncrypt@K@@AAEXPBD@Z	; CEncrypt<unsigned long>::EncryptValueToPool
; Function compile flags: /Ogsp
;	COMDAT ?EncryptValueToPool@?$CEncrypt@K@@AAEXPBD@Z
_TEXT	SEGMENT
_value$ = 8						; size = 4
?EncryptValueToPool@?$CEncrypt@K@@AAEXPBD@Z PROC	; CEncrypt<unsigned long>::EncryptValueToPool, COMDAT
; _this$ = ecx

; 67   : 	{

  00000	55		 push	 ebp
  00001	8b ec		 mov	 ebp, esp

; 68   : 		m_RC5.EncryptByte( value, m_MemPool, max(m_ValueSize, DEFAULT_ENCRYPT) );

  00003	0f b7 41 06	 movzx	 eax, WORD PTR [ecx+6]
  00007	83 f8 04	 cmp	 eax, 4
  0000a	77 03		 ja	 SHORT $LN4@EncryptVal@2
  0000c	6a 04		 push	 4
  0000e	58		 pop	 eax
$LN4@EncryptVal@2:
  0000f	50		 push	 eax
  00010	8d 41 1c	 lea	 eax, DWORD PTR [ecx+28]
  00013	50		 push	 eax
  00014	ff 75 08	 push	 DWORD PTR _value$[ebp]
  00017	83 c1 0c	 add	 ecx, 12			; 0000000cH
  0001a	e8 00 00 00 00	 call	 ?EncryptByte@ccddaabb@@QAEXPBDPADH@Z ; ccddaabb::EncryptByte

; 69   : 		
; 70   : 	}

  0001f	5d		 pop	 ebp
  00020	c2 04 00	 ret	 4
?EncryptValueToPool@?$CEncrypt@K@@AAEXPBD@Z ENDP	; CEncrypt<unsigned long>::EncryptValueToPool
_TEXT	ENDS
PUBLIC	?DecryptValueToPool@?$CEncrypt@K@@QAEXPAK@Z	; CEncrypt<unsigned long>::DecryptValueToPool
; Function compile flags: /Ogsp
;	COMDAT ?DecryptValueToPool@?$CEncrypt@K@@QAEXPAK@Z
_TEXT	SEGMENT
_value$ = 8						; size = 4
?DecryptValueToPool@?$CEncrypt@K@@QAEXPAK@Z PROC	; CEncrypt<unsigned long>::DecryptValueToPool, COMDAT
; _this$ = ecx

; 1256 : 	{

  00000	55		 push	 ebp
  00001	8b ec		 mov	 ebp, esp
  00003	56		 push	 esi

; 1257 : 		m_RC5.DecryptByte( m_MemPool, m_TempMem, 4 );

  00004	8d 71 28	 lea	 esi, DWORD PTR [ecx+40]
  00007	6a 04		 push	 4
  00009	8d 41 1c	 lea	 eax, DWORD PTR [ecx+28]
  0000c	56		 push	 esi
  0000d	50		 push	 eax
  0000e	83 c1 0c	 add	 ecx, 12			; 0000000cH
  00011	e8 00 00 00 00	 call	 ?DecryptByte@ccddaabb@@QBEXPBDPADH@Z ; ccddaabb::DecryptByte

; 1258 : 		*value = *((DWORD*)m_TempMem);

  00016	8b 06		 mov	 eax, DWORD PTR [esi]
  00018	8b 4d 08	 mov	 ecx, DWORD PTR _value$[ebp]
  0001b	89 01		 mov	 DWORD PTR [ecx], eax
  0001d	5e		 pop	 esi

; 1259 : 	}

  0001e	5d		 pop	 ebp
  0001f	c2 04 00	 ret	 4
?DecryptValueToPool@?$CEncrypt@K@@QAEXPAK@Z ENDP	; CEncrypt<unsigned long>::DecryptValueToPool
_TEXT	ENDS
PUBLIC	?DecryptValueToPool@?$CEncrypt@_N@@QAEXPA_N@Z	; CEncrypt<bool>::DecryptValueToPool
; Function compile flags: /Ogsp
;	COMDAT ?DecryptValueToPool@?$CEncrypt@_N@@QAEXPA_N@Z
_TEXT	SEGMENT
_value$ = 8						; size = 4
?DecryptValueToPool@?$CEncrypt@_N@@QAEXPA_N@Z PROC	; CEncrypt<bool>::DecryptValueToPool, COMDAT
; _this$ = ecx

; 219  : 	{

  00000	55		 push	 ebp
  00001	8b ec		 mov	 ebp, esp
  00003	56		 push	 esi

; 220  : 		m_RC5.DecryptByte( m_MemPool, m_TempMem, 4 );

  00004	8d 71 28	 lea	 esi, DWORD PTR [ecx+40]
  00007	6a 04		 push	 4
  00009	8d 41 1c	 lea	 eax, DWORD PTR [ecx+28]
  0000c	56		 push	 esi
  0000d	50		 push	 eax
  0000e	83 c1 0c	 add	 ecx, 12			; 0000000cH
  00011	e8 00 00 00 00	 call	 ?DecryptByte@ccddaabb@@QBEXPBDPADH@Z ; ccddaabb::DecryptByte

; 221  : 		*value = *((bool*)m_TempMem);

  00016	8a 06		 mov	 al, BYTE PTR [esi]
  00018	8b 4d 08	 mov	 ecx, DWORD PTR _value$[ebp]
  0001b	88 01		 mov	 BYTE PTR [ecx], al
  0001d	5e		 pop	 esi

; 222  : 	}

  0001e	5d		 pop	 ebp
  0001f	c2 04 00	 ret	 4
?DecryptValueToPool@?$CEncrypt@_N@@QAEXPA_N@Z ENDP	; CEncrypt<bool>::DecryptValueToPool
_TEXT	ENDS
PUBLIC	?EncryptValueToPool@?$CEncrypt@H@@AAEXPBD@Z	; CEncrypt<int>::EncryptValueToPool
; Function compile flags: /Ogsp
;	COMDAT ?EncryptValueToPool@?$CEncrypt@H@@AAEXPBD@Z
_TEXT	SEGMENT
_value$ = 8						; size = 4
?EncryptValueToPool@?$CEncrypt@H@@AAEXPBD@Z PROC	; CEncrypt<int>::EncryptValueToPool, COMDAT
; _this$ = ecx

; 67   : 	{

  00000	55		 push	 ebp
  00001	8b ec		 mov	 ebp, esp

; 68   : 		m_RC5.EncryptByte( value, m_MemPool, max(m_ValueSize, DEFAULT_ENCRYPT) );

  00003	0f b7 41 06	 movzx	 eax, WORD PTR [ecx+6]
  00007	83 f8 04	 cmp	 eax, 4
  0000a	77 03		 ja	 SHORT $LN4@EncryptVal@3
  0000c	6a 04		 push	 4
  0000e	58		 pop	 eax
$LN4@EncryptVal@3:
  0000f	50		 push	 eax
  00010	8d 41 1c	 lea	 eax, DWORD PTR [ecx+28]
  00013	50		 push	 eax
  00014	ff 75 08	 push	 DWORD PTR _value$[ebp]
  00017	83 c1 0c	 add	 ecx, 12			; 0000000cH
  0001a	e8 00 00 00 00	 call	 ?EncryptByte@ccddaabb@@QAEXPBDPADH@Z ; ccddaabb::EncryptByte

; 69   : 		
; 70   : 	}

  0001f	5d		 pop	 ebp
  00020	c2 04 00	 ret	 4
?EncryptValueToPool@?$CEncrypt@H@@AAEXPBD@Z ENDP	; CEncrypt<int>::EncryptValueToPool
_TEXT	ENDS
PUBLIC	?Init@?$CEncrypt@H@@AAEXXZ			; CEncrypt<int>::Init
; Function compile flags: /Ogsp
;	COMDAT ?Init@?$CEncrypt@H@@AAEXXZ
_TEXT	SEGMENT
_pid$ = -8						; size = 4
_tick$ = -4						; size = 4
?Init@?$CEncrypt@H@@AAEXXZ PROC				; CEncrypt<int>::Init, COMDAT
; _this$ = ecx

; 73   : 	{

  00000	55		 push	 ebp
  00001	8b ec		 mov	 ebp, esp
  00003	51		 push	 ecx
  00004	51		 push	 ecx
  00005	53		 push	 ebx
  00006	56		 push	 esi
  00007	57		 push	 edi
  00008	8b f1		 mov	 esi, ecx

; 74   : 		DWORD pid = GetCurrentProcessId();

  0000a	ff 15 00 00 00
	00		 call	 DWORD PTR __imp__GetCurrentProcessId@0
  00010	89 45 f8	 mov	 DWORD PTR _pid$[ebp], eax

; 75   : 		DWORD tick = timeGetTime();

  00013	ff 15 00 00 00
	00		 call	 DWORD PTR __imp__timeGetTime@0

; 76   : 		m_ValueSize    = sizeof(type);
; 77   : 		m_MemPoolPos   = (unsigned short)( rand()+pid+tick )%(MAX_MEM_POOL-m_ValueSize);

  00019	8b 3d 00 00 00
	00		 mov	 edi, DWORD PTR __imp__rand
  0001f	89 45 fc	 mov	 DWORD PTR _tick$[ebp], eax
  00022	6a 04		 push	 4
  00024	58		 pop	 eax
  00025	66 89 46 06	 mov	 WORD PTR [esi+6], ax
  00029	ff d7		 call	 edi
  0002b	03 45 f8	 add	 eax, DWORD PTR _pid$[ebp]
  0002e	0f b7 4e 06	 movzx	 ecx, WORD PTR [esi+6]
  00032	03 45 fc	 add	 eax, DWORD PTR _tick$[ebp]
  00035	6a 0c		 push	 12			; 0000000cH
  00037	0f b7 c0	 movzx	 eax, ax
  0003a	5b		 pop	 ebx
  0003b	99		 cdq
  0003c	2b d9		 sub	 ebx, ecx
  0003e	f7 fb		 idiv	 ebx
  00040	66 89 56 04	 mov	 WORD PTR [esi+4], dx

; 78   : 		m_EncryptSeed  = (char)( rand()+pid+tick )%256;

  00044	ff d7		 call	 edi
  00046	02 45 f8	 add	 al, BYTE PTR _pid$[ebp]
  00049	02 45 fc	 add	 al, BYTE PTR _tick$[ebp]
  0004c	0f be c0	 movsx	 eax, al
  0004f	25 ff 00 00 80	 and	 eax, -2147483393	; 800000ffH
  00054	79 07		 jns	 SHORT $LN8@Init@2
  00056	48		 dec	 eax
  00057	0d 00 ff ff ff	 or	 eax, -256		; ffffff00H
  0005c	40		 inc	 eax
$LN8@Init@2:
  0005d	88 46 08	 mov	 BYTE PTR [esi+8], al

; 79   : 
; 80   : 		for (int i = 0; i < MAX_MEM_POOL ; i++)

  00060	33 db		 xor	 ebx, ebx
$LL3@Init@2:

; 81   : 			m_MemPool[i] = (char)( rand()+pid+tick )%256; // 

  00062	ff d7		 call	 edi
  00064	02 45 f8	 add	 al, BYTE PTR _pid$[ebp]
  00067	02 45 fc	 add	 al, BYTE PTR _tick$[ebp]
  0006a	0f be c0	 movsx	 eax, al
  0006d	25 ff 00 00 80	 and	 eax, -2147483393	; 800000ffH
  00072	79 07		 jns	 SHORT $LN9@Init@2
  00074	48		 dec	 eax
  00075	0d 00 ff ff ff	 or	 eax, -256		; ffffff00H
  0007a	40		 inc	 eax
$LN9@Init@2:
  0007b	88 44 1e 1c	 mov	 BYTE PTR [esi+ebx+28], al
  0007f	43		 inc	 ebx
  00080	83 fb 0c	 cmp	 ebx, 12			; 0000000cH
  00083	7c dd		 jl	 SHORT $LL3@Init@2

; 82   : 
; 83   : 		//UJ 130913, : szKey  
; 84   : 		//char szKey[ccddaabb::KEY_SIZE];//="";
; 85   : 		//for (int i = 0; i < ccddaabb::KEY_SIZE  ; i++)
; 86   : 		//	szKey[i] = (char)( rand()+pid+tick )%256; // 
; 87   : 		m_RC5.Setup( NULL, pid, tick );

  00085	ff 75 fc	 push	 DWORD PTR _tick$[ebp]
  00088	8d 4e 0c	 lea	 ecx, DWORD PTR [esi+12]
  0008b	ff 75 f8	 push	 DWORD PTR _pid$[ebp]
  0008e	6a 00		 push	 0
  00090	e8 00 00 00 00	 call	 ?Setup@ccddaabb@@QAEXPBDHH@Z ; ccddaabb::Setup
  00095	5f		 pop	 edi
  00096	5e		 pop	 esi
  00097	5b		 pop	 ebx

; 88   : 
; 89   : #ifdef _NOTUSE
; 90   : 		m_value        = 0;
; 91   : 		EncryptValueToPool((char*)&m_value);
; 92   : 		Debug();
; 93   : #endif
; 94   : 	}

  00098	c9		 leave
  00099	c3		 ret	 0
?Init@?$CEncrypt@H@@AAEXXZ ENDP				; CEncrypt<int>::Init
_TEXT	ENDS
PUBLIC	?DecryptValueToPool@?$CEncrypt@H@@QAEXPAH@Z	; CEncrypt<int>::DecryptValueToPool
; Function compile flags: /Ogsp
;	COMDAT ?DecryptValueToPool@?$CEncrypt@H@@QAEXPAH@Z
_TEXT	SEGMENT
_value$ = 8						; size = 4
?DecryptValueToPool@?$CEncrypt@H@@QAEXPAH@Z PROC	; CEncrypt<int>::DecryptValueToPool, COMDAT
; _this$ = ecx

; 837  : 	{

  00000	55		 push	 ebp
  00001	8b ec		 mov	 ebp, esp
  00003	56		 push	 esi

; 838  : 		m_RC5.DecryptByte( m_MemPool, m_TempMem, 4 );

  00004	8d 71 28	 lea	 esi, DWORD PTR [ecx+40]
  00007	6a 04		 push	 4
  00009	8d 41 1c	 lea	 eax, DWORD PTR [ecx+28]
  0000c	56		 push	 esi
  0000d	50		 push	 eax
  0000e	83 c1 0c	 add	 ecx, 12			; 0000000cH
  00011	e8 00 00 00 00	 call	 ?DecryptByte@ccddaabb@@QBEXPBDPADH@Z ; ccddaabb::DecryptByte

; 839  : 		*value = *((int*)m_TempMem);

  00016	8b 06		 mov	 eax, DWORD PTR [esi]
  00018	8b 4d 08	 mov	 ecx, DWORD PTR _value$[ebp]
  0001b	89 01		 mov	 DWORD PTR [ecx], eax
  0001d	5e		 pop	 esi

; 840  : 	}

  0001e	5d		 pop	 ebp
  0001f	c2 04 00	 ret	 4
?DecryptValueToPool@?$CEncrypt@H@@QAEXPAH@Z ENDP	; CEncrypt<int>::DecryptValueToPool
_TEXT	ENDS
PUBLIC	?DecryptValueToPool@?$CEncrypt@W4TeamType@@@@QAEXPAW4TeamType@@@Z ; CEncrypt<enum TeamType>::DecryptValueToPool
; Function compile flags: /Ogsp
;	COMDAT ?DecryptValueToPool@?$CEncrypt@W4TeamType@@@@QAEXPAW4TeamType@@@Z
_TEXT	SEGMENT
_value$ = 8						; size = 4
?DecryptValueToPool@?$CEncrypt@W4TeamType@@@@QAEXPAW4TeamType@@@Z PROC ; CEncrypt<enum TeamType>::DecryptValueToPool, COMDAT
; _this$ = ecx

; 2959 : 	{

  00000	55		 push	 ebp
  00001	8b ec		 mov	 ebp, esp
  00003	56		 push	 esi

; 2960 : 		m_RC5.DecryptByte( m_MemPool, m_TempMem, sizeof(TeamType) );

  00004	8d 71 28	 lea	 esi, DWORD PTR [ecx+40]
  00007	6a 04		 push	 4
  00009	8d 41 1c	 lea	 eax, DWORD PTR [ecx+28]
  0000c	56		 push	 esi
  0000d	50		 push	 eax
  0000e	83 c1 0c	 add	 ecx, 12			; 0000000cH
  00011	e8 00 00 00 00	 call	 ?DecryptByte@ccddaabb@@QBEXPBDPADH@Z ; ccddaabb::DecryptByte

; 2961 : 		*value = *((TeamType*)m_TempMem);

  00016	8b 06		 mov	 eax, DWORD PTR [esi]
  00018	8b 4d 08	 mov	 ecx, DWORD PTR _value$[ebp]
  0001b	89 01		 mov	 DWORD PTR [ecx], eax
  0001d	5e		 pop	 esi

; 2962 : 	}

  0001e	5d		 pop	 ebp
  0001f	c2 04 00	 ret	 4
?DecryptValueToPool@?$CEncrypt@W4TeamType@@@@QAEXPAW4TeamType@@@Z ENDP ; CEncrypt<enum TeamType>::DecryptValueToPool
_TEXT	ENDS
PUBLIC	?capacity@?$vector@UBuffInfoStruct@@V?$allocator@UBuffInfoStruct@@@std@@@std@@QBEIXZ ; std::vector<BuffInfoStruct,std::allocator<BuffInfoStruct> >::capacity
; Function compile flags: /Ogsp
; File c:\program files (x86)\microsoft visual studio 10.0\vc\include\vector
;	COMDAT ?capacity@?$vector@UBuffInfoStruct@@V?$allocator@UBuffInfoStruct@@@std@@@std@@QBEIXZ
_TEXT	SEGMENT
?capacity@?$vector@UBuffInfoStruct@@V?$allocator@UBuffInfoStruct@@@std@@@std@@QBEIXZ PROC ; std::vector<BuffInfoStruct,std::allocator<BuffInfoStruct> >::capacity, COMDAT
; _this$ = ecx

; 777  : 		return (this->_Myend - this->_Myfirst);

  00000	8b 41 08	 mov	 eax, DWORD PTR [ecx+8]
  00003	2b 01		 sub	 eax, DWORD PTR [ecx]
  00005	6a 14		 push	 20			; 00000014H
  00007	99		 cdq
  00008	59		 pop	 ecx
  00009	f7 f9		 idiv	 ecx

; 778  : 		}

  0000b	c3		 ret	 0
?capacity@?$vector@UBuffInfoStruct@@V?$allocator@UBuffInfoStruct@@@std@@@std@@QBEIXZ ENDP ; std::vector<BuffInfoStruct,std::allocator<BuffInfoStruct> >::capacity
_TEXT	ENDS
PUBLIC	?size@?$vector@UBuffInfoStruct@@V?$allocator@UBuffInfoStruct@@@std@@@std@@QBEIXZ ; std::vector<BuffInfoStruct,std::allocator<BuffInfoStruct> >::size
; Function compile flags: /Ogsp
;	COMDAT ?size@?$vector@UBuffInfoStruct@@V?$allocator@UBuffInfoStruct@@@std@@@std@@QBEIXZ
_TEXT	SEGMENT
?size@?$vector@UBuffInfoStruct@@V?$allocator@UBuffInfoStruct@@@std@@@std@@QBEIXZ PROC ; std::vector<BuffInfoStruct,std::allocator<BuffInfoStruct> >::size, COMDAT
; _this$ = ecx

; 879  : 		return (this->_Mylast - this->_Myfirst);

  00000	8b 41 04	 mov	 eax, DWORD PTR [ecx+4]
  00003	2b 01		 sub	 eax, DWORD PTR [ecx]
  00005	6a 14		 push	 20			; 00000014H
  00007	99		 cdq
  00008	59		 pop	 ecx
  00009	f7 f9		 idiv	 ecx

; 880  : 		}

  0000b	c3		 ret	 0
?size@?$vector@UBuffInfoStruct@@V?$allocator@UBuffInfoStruct@@@std@@@std@@QBEIXZ ENDP ; std::vector<BuffInfoStruct,std::allocator<BuffInfoStruct> >::size
_TEXT	ENDS
PUBLIC	??1?$_Vector_val@UBuffInfoStruct@@V?$allocator@UBuffInfoStruct@@@std@@@std@@QAE@XZ ; std::_Vector_val<BuffInfoStruct,std::allocator<BuffInfoStruct> >::~_Vector_val<BuffInfoStruct,std::allocator<BuffInfoStruct> >
; Function compile flags: /Ogsp
;	COMDAT ??1?$_Vector_val@UBuffInfoStruct@@V?$allocator@UBuffInfoStruct@@@std@@@std@@QAE@XZ
_TEXT	SEGMENT
??1?$_Vector_val@UBuffInfoStruct@@V?$allocator@UBuffInfoStruct@@@std@@@std@@QAE@XZ PROC ; std::_Vector_val<BuffInfoStruct,std::allocator<BuffInfoStruct> >::~_Vector_val<BuffInfoStruct,std::allocator<BuffInfoStruct> >, COMDAT
; _this$ = ecx

; 434  : 		}

  00000	c3		 ret	 0
??1?$_Vector_val@UBuffInfoStruct@@V?$allocator@UBuffInfoStruct@@@std@@@std@@QAE@XZ ENDP ; std::_Vector_val<BuffInfoStruct,std::allocator<BuffInfoStruct> >::~_Vector_val<BuffInfoStruct,std::allocator<BuffInfoStruct> >
_TEXT	ENDS
PUBLIC	??0?$allocator@UBuffInfoStruct@@@std@@QAE@XZ	; std::allocator<BuffInfoStruct>::allocator<BuffInfoStruct>
; Function compile flags: /Ogsp
; File c:\program files (x86)\microsoft visual studio 10.0\vc\include\xmemory
;	COMDAT ??0?$allocator@UBuffInfoStruct@@@std@@QAE@XZ
_TEXT	SEGMENT
??0?$allocator@UBuffInfoStruct@@@std@@QAE@XZ PROC	; std::allocator<BuffInfoStruct>::allocator<BuffInfoStruct>, COMDAT
; _this$ = ecx

; 161  : 	_ALLOCATOR() _THROW0()

  00000	8b c1		 mov	 eax, ecx

; 162  : 		{	// construct default allocator (do nothing)
; 163  : 		}

  00002	c3		 ret	 0
??0?$allocator@UBuffInfoStruct@@@std@@QAE@XZ ENDP	; std::allocator<BuffInfoStruct>::allocator<BuffInfoStruct>
_TEXT	ENDS
PUBLIC	?deallocate@?$allocator@UBuffInfoStruct@@@std@@QAEXPAUBuffInfoStruct@@I@Z ; std::allocator<BuffInfoStruct>::deallocate
; Function compile flags: /Ogsp
;	COMDAT ?deallocate@?$allocator@UBuffInfoStruct@@@std@@QAEXPAUBuffInfoStruct@@I@Z
_TEXT	SEGMENT
__Ptr$ = 8						; size = 4
___formal$ = 12						; size = 4
?deallocate@?$allocator@UBuffInfoStruct@@@std@@QAEXPAUBuffInfoStruct@@I@Z PROC ; std::allocator<BuffInfoStruct>::deallocate, COMDAT
; _this$ = ecx

; 181  : 		{	// deallocate object at _Ptr, ignore size

  00000	55		 push	 ebp
  00001	8b ec		 mov	 ebp, esp

; 182  : 		::operator delete(_Ptr);

  00003	ff 75 08	 push	 DWORD PTR __Ptr$[ebp]
  00006	e8 00 00 00 00	 call	 ??3@YAXPAX@Z		; operator delete
  0000b	59		 pop	 ecx

; 183  : 		}

  0000c	5d		 pop	 ebp
  0000d	c2 08 00	 ret	 8
?deallocate@?$allocator@UBuffInfoStruct@@@std@@QAEXPAUBuffInfoStruct@@I@Z ENDP ; std::allocator<BuffInfoStruct>::deallocate
_TEXT	ENDS
PUBLIC	??0?$allocator@UWeaponInfo@@@std@@QAE@ABV01@@Z	; std::allocator<WeaponInfo>::allocator<WeaponInfo>
; Function compile flags: /Ogsp
;	COMDAT ??0?$allocator@UWeaponInfo@@@std@@QAE@ABV01@@Z
_TEXT	SEGMENT
___formal$ = 8						; size = 4
??0?$allocator@UWeaponInfo@@@std@@QAE@ABV01@@Z PROC	; std::allocator<WeaponInfo>::allocator<WeaponInfo>, COMDAT
; _this$ = ecx

; 165  : 	_ALLOCATOR(const _ALLOCATOR<_Ty>&) _THROW0()

  00000	8b c1		 mov	 eax, ecx

; 166  : 		{	// construct by copying (do nothing)
; 167  : 		}

  00002	c2 04 00	 ret	 4
??0?$allocator@UWeaponInfo@@@std@@QAE@ABV01@@Z ENDP	; std::allocator<WeaponInfo>::allocator<WeaponInfo>
_TEXT	ENDS
PUBLIC	?deallocate@?$allocator@UWeaponInfo@@@std@@QAEXPAUWeaponInfo@@I@Z ; std::allocator<WeaponInfo>::deallocate
; Function compile flags: /Ogsp
;	COMDAT ?deallocate@?$allocator@UWeaponInfo@@@std@@QAEXPAUWeaponInfo@@I@Z
_TEXT	SEGMENT
__Ptr$ = 8						; size = 4
___formal$ = 12						; size = 4
?deallocate@?$allocator@UWeaponInfo@@@std@@QAEXPAUWeaponInfo@@I@Z PROC ; std::allocator<WeaponInfo>::deallocate, COMDAT
; _this$ = ecx

; 181  : 		{	// deallocate object at _Ptr, ignore size

  00000	55		 push	 ebp
  00001	8b ec		 mov	 ebp, esp

; 182  : 		::operator delete(_Ptr);

  00003	ff 75 08	 push	 DWORD PTR __Ptr$[ebp]
  00006	e8 00 00 00 00	 call	 ??3@YAXPAX@Z		; operator delete
  0000b	59		 pop	 ecx

; 183  : 		}

  0000c	5d		 pop	 ebp
  0000d	c2 08 00	 ret	 8
?deallocate@?$allocator@UWeaponInfo@@@std@@QAEXPAUWeaponInfo@@I@Z ENDP ; std::allocator<WeaponInfo>::deallocate
_TEXT	ENDS
PUBLIC	??0?$allocator@UForceInfo@@@std@@QAE@ABV01@@Z	; std::allocator<ForceInfo>::allocator<ForceInfo>
; Function compile flags: /Ogsp
;	COMDAT ??0?$allocator@UForceInfo@@@std@@QAE@ABV01@@Z
_TEXT	SEGMENT
___formal$ = 8						; size = 4
??0?$allocator@UForceInfo@@@std@@QAE@ABV01@@Z PROC	; std::allocator<ForceInfo>::allocator<ForceInfo>, COMDAT
; _this$ = ecx

; 165  : 	_ALLOCATOR(const _ALLOCATOR<_Ty>&) _THROW0()

  00000	8b c1		 mov	 eax, ecx

; 166  : 		{	// construct by copying (do nothing)
; 167  : 		}

  00002	c2 04 00	 ret	 4
??0?$allocator@UForceInfo@@@std@@QAE@ABV01@@Z ENDP	; std::allocator<ForceInfo>::allocator<ForceInfo>
_TEXT	ENDS
PUBLIC	?deallocate@?$allocator@UForceInfo@@@std@@QAEXPAUForceInfo@@I@Z ; std::allocator<ForceInfo>::deallocate
; Function compile flags: /Ogsp
;	COMDAT ?deallocate@?$allocator@UForceInfo@@@std@@QAEXPAUForceInfo@@I@Z
_TEXT	SEGMENT
__Ptr$ = 8						; size = 4
___formal$ = 12						; size = 4
?deallocate@?$allocator@UForceInfo@@@std@@QAEXPAUForceInfo@@I@Z PROC ; std::allocator<ForceInfo>::deallocate, COMDAT
; _this$ = ecx

; 181  : 		{	// deallocate object at _Ptr, ignore size

  00000	55		 push	 ebp
  00001	8b ec		 mov	 ebp, esp

; 182  : 		::operator delete(_Ptr);

  00003	ff 75 08	 push	 DWORD PTR __Ptr$[ebp]
  00006	e8 00 00 00 00	 call	 ??3@YAXPAX@Z		; operator delete
  0000b	59		 pop	 ecx

; 183  : 		}

  0000c	5d		 pop	 ebp
  0000d	c2 08 00	 ret	 8
?deallocate@?$allocator@UForceInfo@@@std@@QAEXPAUForceInfo@@I@Z ENDP ; std::allocator<ForceInfo>::deallocate
_TEXT	ENDS
PUBLIC	?_Xlen@?$vector@UBuffInfoStruct@@V?$allocator@UBuffInfoStruct@@@std@@@std@@IBEXXZ ; std::vector<BuffInfoStruct,std::allocator<BuffInfoStruct> >::_Xlen
; Function compile flags: /Ogsp
; File c:\program files (x86)\microsoft visual studio 10.0\vc\include\vector
;	COMDAT ?_Xlen@?$vector@UBuffInfoStruct@@V?$allocator@UBuffInfoStruct@@@std@@@std@@IBEXXZ
_TEXT	SEGMENT
?_Xlen@?$vector@UBuffInfoStruct@@V?$allocator@UBuffInfoStruct@@@std@@@std@@IBEXXZ PROC ; std::vector<BuffInfoStruct,std::allocator<BuffInfoStruct> >::_Xlen, COMDAT
; _this$ = ecx

; 1427 : 		_Xlength_error("vector<T> too long");

  00000	68 00 00 00 00	 push	 OFFSET ??_C@_0BD@OLBABOEK@vector?$DMT?$DO?5too?5long?$AA@
  00005	ff 15 00 00 00
	00		 call	 DWORD PTR __imp_?_Xlength_error@std@@YAXPBD@Z
$LN4@Xlen@2:
$LN3@Xlen@2:
  0000b	cc		 int	 3
?_Xlen@?$vector@UBuffInfoStruct@@V?$allocator@UBuffInfoStruct@@@std@@@std@@IBEXXZ ENDP ; std::vector<BuffInfoStruct,std::allocator<BuffInfoStruct> >::_Xlen
_TEXT	ENDS
PUBLIC	??0?$allocator@UBuffInfoStruct@@@std@@QAE@ABV01@@Z ; std::allocator<BuffInfoStruct>::allocator<BuffInfoStruct>
; Function compile flags: /Ogsp
; File c:\program files (x86)\microsoft visual studio 10.0\vc\include\xmemory
;	COMDAT ??0?$allocator@UBuffInfoStruct@@@std@@QAE@ABV01@@Z
_TEXT	SEGMENT
___formal$ = 8						; size = 4
??0?$allocator@UBuffInfoStruct@@@std@@QAE@ABV01@@Z PROC	; std::allocator<BuffInfoStruct>::allocator<BuffInfoStruct>, COMDAT
; _this$ = ecx

; 165  : 	_ALLOCATOR(const _ALLOCATOR<_Ty>&) _THROW0()

  00000	8b c1		 mov	 eax, ecx

; 166  : 		{	// construct by copying (do nothing)
; 167  : 		}

  00002	c2 04 00	 ret	 4
??0?$allocator@UBuffInfoStruct@@@std@@QAE@ABV01@@Z ENDP	; std::allocator<BuffInfoStruct>::allocator<BuffInfoStruct>
_TEXT	ENDS
PUBLIC	?max_size@?$allocator@UBuffInfoStruct@@@std@@QBEIXZ ; std::allocator<BuffInfoStruct>::max_size
; Function compile flags: /Ogsp
;	COMDAT ?max_size@?$allocator@UBuffInfoStruct@@@std@@QBEIXZ
_TEXT	SEGMENT
?max_size@?$allocator@UBuffInfoStruct@@@std@@QBEIXZ PROC ; std::allocator<BuffInfoStruct>::max_size, COMDAT
; _this$ = ecx

; 218  : 		_SIZT _Count = (_SIZT)(-1) / sizeof (_Ty);
; 219  : 		return (0 < _Count ? _Count : 1);

  00000	b8 cc cc cc 0c	 mov	 eax, 214748364		; 0cccccccH

; 220  : 		}

  00005	c3		 ret	 0
?max_size@?$allocator@UBuffInfoStruct@@@std@@QBEIXZ ENDP ; std::allocator<BuffInfoStruct>::max_size
_TEXT	ENDS
PUBLIC	??0?$_Vector_const_iterator@V?$_Vector_val@UBuffInfoStruct@@V?$allocator@UBuffInfoStruct@@@std@@@std@@@std@@QAE@PAUBuffInfoStruct@@PBU_Container_base0@1@@Z ; std::_Vector_const_iterator<std::_Vector_val<BuffInfoStruct,std::allocator<BuffInfoStruct> > >::_Vector_const_iterator<std::_Vector_val<BuffInfoStruct,std::allocator<BuffInfoStruct> > >
; Function compile flags: /Ogsp
; File c:\program files (x86)\microsoft visual studio 10.0\vc\include\vector
;	COMDAT ??0?$_Vector_const_iterator@V?$_Vector_val@UBuffInfoStruct@@V?$allocator@UBuffInfoStruct@@@std@@@std@@@std@@QAE@PAUBuffInfoStruct@@PBU_Container_base0@1@@Z
_TEXT	SEGMENT
__Parg$ = 8						; size = 4
__Pvector$ = 12						; size = 4
??0?$_Vector_const_iterator@V?$_Vector_val@UBuffInfoStruct@@V?$allocator@UBuffInfoStruct@@@std@@@std@@@std@@QAE@PAUBuffInfoStruct@@PBU_Container_base0@1@@Z PROC ; std::_Vector_const_iterator<std::_Vector_val<BuffInfoStruct,std::allocator<BuffInfoStruct> > >::_Vector_const_iterator<std::_Vector_val<BuffInfoStruct,std::allocator<BuffInfoStruct> > >, COMDAT
; _this$ = ecx

; 45   : 		{	// construct with pointer _Parg

  00000	55		 push	 ebp
  00001	8b ec		 mov	 ebp, esp
  00003	8b c1		 mov	 eax, ecx
  00005	8b 4d 08	 mov	 ecx, DWORD PTR __Parg$[ebp]
  00008	89 08		 mov	 DWORD PTR [eax], ecx

; 46   : 		this->_Adopt(_Pvector);
; 47   : 		}

  0000a	5d		 pop	 ebp
  0000b	c2 08 00	 ret	 8
??0?$_Vector_const_iterator@V?$_Vector_val@UBuffInfoStruct@@V?$allocator@UBuffInfoStruct@@@std@@@std@@@std@@QAE@PAUBuffInfoStruct@@PBU_Container_base0@1@@Z ENDP ; std::_Vector_const_iterator<std::_Vector_val<BuffInfoStruct,std::allocator<BuffInfoStruct> > >::_Vector_const_iterator<std::_Vector_val<BuffInfoStruct,std::allocator<BuffInfoStruct> > >
_TEXT	ENDS
PUBLIC	?_Compat@?$_Vector_const_iterator@V?$_Vector_val@UBuffInfoStruct@@V?$allocator@UBuffInfoStruct@@@std@@@std@@@std@@QBEXABV12@@Z ; std::_Vector_const_iterator<std::_Vector_val<BuffInfoStruct,std::allocator<BuffInfoStruct> > >::_Compat
; Function compile flags: /Ogsp
;	COMDAT ?_Compat@?$_Vector_const_iterator@V?$_Vector_val@UBuffInfoStruct@@V?$allocator@UBuffInfoStruct@@@std@@@std@@@std@@QBEXABV12@@Z
_TEXT	SEGMENT
___formal$ = 8						; size = 4
?_Compat@?$_Vector_const_iterator@V?$_Vector_val@UBuffInfoStruct@@V?$allocator@UBuffInfoStruct@@@std@@@std@@@std@@QBEXABV12@@Z PROC ; std::_Vector_const_iterator<std::_Vector_val<BuffInfoStruct,std::allocator<BuffInfoStruct> > >::_Compat, COMDAT
; _this$ = ecx

; 253  : 		}

  00000	c2 04 00	 ret	 4
?_Compat@?$_Vector_const_iterator@V?$_Vector_val@UBuffInfoStruct@@V?$allocator@UBuffInfoStruct@@@std@@@std@@@std@@QBEXABV12@@Z ENDP ; std::_Vector_const_iterator<std::_Vector_val<BuffInfoStruct,std::allocator<BuffInfoStruct> > >::_Compat
_TEXT	ENDS
PUBLIC	??$_Allocate@UBuffInfoStruct@@@std@@YAPAUBuffInfoStruct@@IPAU1@@Z ; std::_Allocate<BuffInfoStruct>
; Function compile flags: /Ogsp
; File c:\program files (x86)\microsoft visual studio 10.0\vc\include\xmemory
;	COMDAT ??$_Allocate@UBuffInfoStruct@@@std@@YAPAUBuffInfoStruct@@IPAU1@@Z
_TEXT	SEGMENT
$T576030 = -12						; size = 12
$T576034 = 8						; size = 4
__Count$ = 8						; size = 4
___formal$ = 12						; size = 4
??$_Allocate@UBuffInfoStruct@@@std@@YAPAUBuffInfoStruct@@IPAU1@@Z PROC ; std::_Allocate<BuffInfoStruct>, COMDAT

; 30   : 	{	// allocate storage for _Count elements of type _Ty

  00000	55		 push	 ebp
  00001	8b ec		 mov	 ebp, esp

; 31   : 	void *_Ptr = 0;
; 32   : 
; 33   : 	if (_Count <= 0)

  00003	8b 4d 08	 mov	 ecx, DWORD PTR __Count$[ebp]
  00006	83 ec 0c	 sub	 esp, 12			; 0000000cH
  00009	33 c0		 xor	 eax, eax
  0000b	85 c9		 test	 ecx, ecx

; 34   : 		_Count = 0;
; 35   : 	else if (((_SIZT)(-1) / sizeof (_Ty) < _Count)

  0000d	74 3c		 je	 SHORT $LN5@Allocate@2

; 36   : 		|| (_Ptr = ::operator new(_Count * sizeof (_Ty))) == 0)

  0000f	81 f9 cc cc cc
	0c		 cmp	 ecx, 214748364		; 0cccccccH
  00015	77 0e		 ja	 SHORT $LN1@Allocate@2
  00017	6b c9 14	 imul	 ecx, 20			; 00000014H
  0001a	51		 push	 ecx
  0001b	e8 00 00 00 00	 call	 ??2@YAPAXI@Z		; operator new
  00020	59		 pop	 ecx
  00021	85 c0		 test	 eax, eax

; 38   : 
; 39   : 	return ((_Ty _FARQ *)_Ptr);

  00023	75 26		 jne	 SHORT $LN5@Allocate@2
$LN1@Allocate@2:

; 37   : 		_THROW_NCEE(bad_alloc, 0);

  00025	83 65 08 00	 and	 DWORD PTR $T576034[ebp], 0
  00029	8d 45 08	 lea	 eax, DWORD PTR $T576034[ebp]
  0002c	50		 push	 eax
  0002d	8d 4d f4	 lea	 ecx, DWORD PTR $T576030[ebp]
  00030	ff 15 00 00 00
	00		 call	 DWORD PTR __imp_??0exception@std@@QAE@ABQBD@Z
  00036	68 00 00 00 00	 push	 OFFSET __TI2?AVbad_alloc@std@@
  0003b	8d 45 f4	 lea	 eax, DWORD PTR $T576030[ebp]
  0003e	50		 push	 eax
  0003f	c7 45 f4 00 00
	00 00		 mov	 DWORD PTR $T576030[ebp], OFFSET ??_7bad_alloc@std@@6B@
  00046	e8 00 00 00 00	 call	 __CxxThrowException@8
$LN10@Allocate@2:
$LN5@Allocate@2:

; 40   : 	}

  0004b	c9		 leave
  0004c	c3		 ret	 0
$LN9@Allocate@2:
??$_Allocate@UBuffInfoStruct@@@std@@YAPAUBuffInfoStruct@@IPAU1@@Z ENDP ; std::_Allocate<BuffInfoStruct>
_TEXT	ENDS
EXTRN	__imp_??0exception@std@@QAE@ABV01@@Z:PROC
; Function compile flags: /Ogsp
;	COMDAT ??0bad_alloc@std@@QAE@ABV01@@Z
_TEXT	SEGMENT
___that$ = 8						; size = 4
??0bad_alloc@std@@QAE@ABV01@@Z PROC			; std::bad_alloc::bad_alloc, COMDAT
; _this$ = ecx
  00000	55		 push	 ebp
  00001	8b ec		 mov	 ebp, esp
  00003	56		 push	 esi
  00004	ff 75 08	 push	 DWORD PTR ___that$[ebp]
  00007	8b f1		 mov	 esi, ecx
  00009	ff 15 00 00 00
	00		 call	 DWORD PTR __imp_??0exception@std@@QAE@ABV01@@Z
  0000f	c7 06 00 00 00
	00		 mov	 DWORD PTR [esi], OFFSET ??_7bad_alloc@std@@6B@
  00015	8b c6		 mov	 eax, esi
  00017	5e		 pop	 esi
  00018	5d		 pop	 ebp
  00019	c2 04 00	 ret	 4
??0bad_alloc@std@@QAE@ABV01@@Z ENDP			; std::bad_alloc::bad_alloc
_TEXT	ENDS
PUBLIC	??$_Ptr_cat@UBuffInfoStruct@@U1@@std@@YA?AU_Nonscalar_ptr_iterator_tag@0@PAUBuffInfoStruct@@0@Z ; std::_Ptr_cat<BuffInfoStruct,BuffInfoStruct>
; Function compile flags: /Ogsp
; File c:\program files (x86)\microsoft visual studio 10.0\vc\include\xutility
;	COMDAT ??$_Ptr_cat@UBuffInfoStruct@@U1@@std@@YA?AU_Nonscalar_ptr_iterator_tag@0@PAUBuffInfoStruct@@0@Z
_TEXT	SEGMENT
__Cat$ = -1						; size = 1
___formal$ = 8						; size = 4
___formal$ = 12						; size = 4
??$_Ptr_cat@UBuffInfoStruct@@U1@@std@@YA?AU_Nonscalar_ptr_iterator_tag@0@PAUBuffInfoStruct@@0@Z PROC ; std::_Ptr_cat<BuffInfoStruct,BuffInfoStruct>, COMDAT

; 516  : 	{	// return pointer category from pointers

  00000	55		 push	 ebp
  00001	8b ec		 mov	 ebp, esp
  00003	51		 push	 ecx

; 517  : 	typename _Ptr_cat_helper<_Elem1, _Elem2>::_Type _Cat;
; 518  : 	return (_Cat);

  00004	8a 45 ff	 mov	 al, BYTE PTR __Cat$[ebp]

; 519  : 	}

  00007	c9		 leave
  00008	c3		 ret	 0
??$_Ptr_cat@UBuffInfoStruct@@U1@@std@@YA?AU_Nonscalar_ptr_iterator_tag@0@PAUBuffInfoStruct@@0@Z ENDP ; std::_Ptr_cat<BuffInfoStruct,BuffInfoStruct>
_TEXT	ENDS
PUBLIC	??$_Ptr_cat@UWeaponInfo@@U1@@std@@YA?AU_Nonscalar_ptr_iterator_tag@0@PAUWeaponInfo@@0@Z ; std::_Ptr_cat<WeaponInfo,WeaponInfo>
; Function compile flags: /Ogsp
;	COMDAT ??$_Ptr_cat@UWeaponInfo@@U1@@std@@YA?AU_Nonscalar_ptr_iterator_tag@0@PAUWeaponInfo@@0@Z
_TEXT	SEGMENT
__Cat$ = -1						; size = 1
___formal$ = 8						; size = 4
___formal$ = 12						; size = 4
??$_Ptr_cat@UWeaponInfo@@U1@@std@@YA?AU_Nonscalar_ptr_iterator_tag@0@PAUWeaponInfo@@0@Z PROC ; std::_Ptr_cat<WeaponInfo,WeaponInfo>, COMDAT

; 516  : 	{	// return pointer category from pointers

  00000	55		 push	 ebp
  00001	8b ec		 mov	 ebp, esp
  00003	51		 push	 ecx

; 517  : 	typename _Ptr_cat_helper<_Elem1, _Elem2>::_Type _Cat;
; 518  : 	return (_Cat);

  00004	8a 45 ff	 mov	 al, BYTE PTR __Cat$[ebp]

; 519  : 	}

  00007	c9		 leave
  00008	c3		 ret	 0
??$_Ptr_cat@UWeaponInfo@@U1@@std@@YA?AU_Nonscalar_ptr_iterator_tag@0@PAUWeaponInfo@@0@Z ENDP ; std::_Ptr_cat<WeaponInfo,WeaponInfo>
_TEXT	ENDS
PUBLIC	??$_Ptr_cat@UForceInfo@@U1@@std@@YA?AU_Nonscalar_ptr_iterator_tag@0@PAUForceInfo@@0@Z ; std::_Ptr_cat<ForceInfo,ForceInfo>
; Function compile flags: /Ogsp
;	COMDAT ??$_Ptr_cat@UForceInfo@@U1@@std@@YA?AU_Nonscalar_ptr_iterator_tag@0@PAUForceInfo@@0@Z
_TEXT	SEGMENT
__Cat$ = -1						; size = 1
___formal$ = 8						; size = 4
___formal$ = 12						; size = 4
??$_Ptr_cat@UForceInfo@@U1@@std@@YA?AU_Nonscalar_ptr_iterator_tag@0@PAUForceInfo@@0@Z PROC ; std::_Ptr_cat<ForceInfo,ForceInfo>, COMDAT

; 516  : 	{	// return pointer category from pointers

  00000	55		 push	 ebp
  00001	8b ec		 mov	 ebp, esp
  00003	51		 push	 ecx

; 517  : 	typename _Ptr_cat_helper<_Elem1, _Elem2>::_Type _Cat;
; 518  : 	return (_Cat);

  00004	8a 45 ff	 mov	 al, BYTE PTR __Cat$[ebp]

; 519  : 	}

  00007	c9		 leave
  00008	c3		 ret	 0
??$_Ptr_cat@UForceInfo@@U1@@std@@YA?AU_Nonscalar_ptr_iterator_tag@0@PAUForceInfo@@0@Z ENDP ; std::_Ptr_cat<ForceInfo,ForceInfo>
_TEXT	ENDS
PUBLIC	??4BuffInfoStruct@@QAEAAU0@ABU0@@Z		; BuffInfoStruct::operator=
EXTRN	__imp_??4ioHashString@@QAEAAV0@ABV0@@Z:PROC
; Function compile flags: /Ogsp
;	COMDAT ??4BuffInfoStruct@@QAEAAU0@ABU0@@Z
_TEXT	SEGMENT
___that$ = 8						; size = 4
??4BuffInfoStruct@@QAEAAU0@ABU0@@Z PROC			; BuffInfoStruct::operator=, COMDAT
; _this$ = ecx
  00000	55		 push	 ebp
  00001	8b ec		 mov	 ebp, esp
  00003	56		 push	 esi
  00004	57		 push	 edi
  00005	8b 7d 08	 mov	 edi, DWORD PTR ___that$[ebp]
  00008	57		 push	 edi
  00009	8b f1		 mov	 esi, ecx
  0000b	ff 15 00 00 00
	00		 call	 DWORD PTR __imp_??4ioHashString@@QAEAAV0@ABV0@@Z
  00011	8b 47 10	 mov	 eax, DWORD PTR [edi+16]
  00014	89 46 10	 mov	 DWORD PTR [esi+16], eax
  00017	5f		 pop	 edi
  00018	8b c6		 mov	 eax, esi
  0001a	5e		 pop	 esi
  0001b	5d		 pop	 ebp
  0001c	c2 04 00	 ret	 4
??4BuffInfoStruct@@QAEAAU0@ABU0@@Z ENDP			; BuffInfoStruct::operator=
_TEXT	ENDS
PUBLIC	?capacity@?$vector@UWeaponInfo@@V?$allocator@UWeaponInfo@@@std@@@std@@QBEIXZ ; std::vector<WeaponInfo,std::allocator<WeaponInfo> >::capacity
; Function compile flags: /Ogsp
; File c:\program files (x86)\microsoft visual studio 10.0\vc\include\vector
;	COMDAT ?capacity@?$vector@UWeaponInfo@@V?$allocator@UWeaponInfo@@@std@@@std@@QBEIXZ
_TEXT	SEGMENT
?capacity@?$vector@UWeaponInfo@@V?$allocator@UWeaponInfo@@@std@@@std@@QBEIXZ PROC ; std::vector<WeaponInfo,std::allocator<WeaponInfo> >::capacity, COMDAT
; _this$ = ecx

; 777  : 		return (this->_Myend - this->_Myfirst);

  00000	8b 41 08	 mov	 eax, DWORD PTR [ecx+8]
  00003	2b 01		 sub	 eax, DWORD PTR [ecx]
  00005	6a 28		 push	 40			; 00000028H
  00007	99		 cdq
  00008	59		 pop	 ecx
  00009	f7 f9		 idiv	 ecx

; 778  : 		}

  0000b	c3		 ret	 0
?capacity@?$vector@UWeaponInfo@@V?$allocator@UWeaponInfo@@@std@@@std@@QBEIXZ ENDP ; std::vector<WeaponInfo,std::allocator<WeaponInfo> >::capacity
_TEXT	ENDS
PUBLIC	?size@?$vector@UWeaponInfo@@V?$allocator@UWeaponInfo@@@std@@@std@@QBEIXZ ; std::vector<WeaponInfo,std::allocator<WeaponInfo> >::size
; Function compile flags: /Ogsp
;	COMDAT ?size@?$vector@UWeaponInfo@@V?$allocator@UWeaponInfo@@@std@@@std@@QBEIXZ
_TEXT	SEGMENT
?size@?$vector@UWeaponInfo@@V?$allocator@UWeaponInfo@@@std@@@std@@QBEIXZ PROC ; std::vector<WeaponInfo,std::allocator<WeaponInfo> >::size, COMDAT
; _this$ = ecx

; 879  : 		return (this->_Mylast - this->_Myfirst);

  00000	8b 41 04	 mov	 eax, DWORD PTR [ecx+4]
  00003	2b 01		 sub	 eax, DWORD PTR [ecx]
  00005	6a 28		 push	 40			; 00000028H
  00007	99		 cdq
  00008	59		 pop	 ecx
  00009	f7 f9		 idiv	 ecx

; 880  : 		}

  0000b	c3		 ret	 0
?size@?$vector@UWeaponInfo@@V?$allocator@UWeaponInfo@@@std@@@std@@QBEIXZ ENDP ; std::vector<WeaponInfo,std::allocator<WeaponInfo> >::size
_TEXT	ENDS
PUBLIC	?capacity@?$vector@UForceInfo@@V?$allocator@UForceInfo@@@std@@@std@@QBEIXZ ; std::vector<ForceInfo,std::allocator<ForceInfo> >::capacity
; Function compile flags: /Ogsp
;	COMDAT ?capacity@?$vector@UForceInfo@@V?$allocator@UForceInfo@@@std@@@std@@QBEIXZ
_TEXT	SEGMENT
?capacity@?$vector@UForceInfo@@V?$allocator@UForceInfo@@@std@@@std@@QBEIXZ PROC ; std::vector<ForceInfo,std::allocator<ForceInfo> >::capacity, COMDAT
; _this$ = ecx

; 777  : 		return (this->_Myend - this->_Myfirst);

  00000	8b 41 08	 mov	 eax, DWORD PTR [ecx+8]
  00003	2b 01		 sub	 eax, DWORD PTR [ecx]
  00005	6a 0c		 push	 12			; 0000000cH
  00007	99		 cdq
  00008	59		 pop	 ecx
  00009	f7 f9		 idiv	 ecx

; 778  : 		}

  0000b	c3		 ret	 0
?capacity@?$vector@UForceInfo@@V?$allocator@UForceInfo@@@std@@@std@@QBEIXZ ENDP ; std::vector<ForceInfo,std::allocator<ForceInfo> >::capacity
_TEXT	ENDS
PUBLIC	?size@?$vector@UForceInfo@@V?$allocator@UForceInfo@@@std@@@std@@QBEIXZ ; std::vector<ForceInfo,std::allocator<ForceInfo> >::size
; Function compile flags: /Ogsp
;	COMDAT ?size@?$vector@UForceInfo@@V?$allocator@UForceInfo@@@std@@@std@@QBEIXZ
_TEXT	SEGMENT
?size@?$vector@UForceInfo@@V?$allocator@UForceInfo@@@std@@@std@@QBEIXZ PROC ; std::vector<ForceInfo,std::allocator<ForceInfo> >::size, COMDAT
; _this$ = ecx

; 879  : 		return (this->_Mylast - this->_Myfirst);

  00000	8b 41 04	 mov	 eax, DWORD PTR [ecx+4]
  00003	2b 01		 sub	 eax, DWORD PTR [ecx]
  00005	6a 0c		 push	 12			; 0000000cH
  00007	99		 cdq
  00008	59		 pop	 ecx
  00009	f7 f9		 idiv	 ecx

; 880  : 		}

  0000b	c3		 ret	 0
?size@?$vector@UForceInfo@@V?$allocator@UForceInfo@@@std@@@std@@QBEIXZ ENDP ; std::vector<ForceInfo,std::allocator<ForceInfo> >::size
_TEXT	ENDS
PUBLIC	?_Xlen@?$vector@UWeaponInfo@@V?$allocator@UWeaponInfo@@@std@@@std@@IBEXXZ ; std::vector<WeaponInfo,std::allocator<WeaponInfo> >::_Xlen
; Function compile flags: /Ogsp
;	COMDAT ?_Xlen@?$vector@UWeaponInfo@@V?$allocator@UWeaponInfo@@@std@@@std@@IBEXXZ
_TEXT	SEGMENT
?_Xlen@?$vector@UWeaponInfo@@V?$allocator@UWeaponInfo@@@std@@@std@@IBEXXZ PROC ; std::vector<WeaponInfo,std::allocator<WeaponInfo> >::_Xlen, COMDAT
; _this$ = ecx

; 1427 : 		_Xlength_error("vector<T> too long");

  00000	68 00 00 00 00	 push	 OFFSET ??_C@_0BD@OLBABOEK@vector?$DMT?$DO?5too?5long?$AA@
  00005	ff 15 00 00 00
	00		 call	 DWORD PTR __imp_?_Xlength_error@std@@YAXPBD@Z
$LN4@Xlen@3:
$LN3@Xlen@3:
  0000b	cc		 int	 3
?_Xlen@?$vector@UWeaponInfo@@V?$allocator@UWeaponInfo@@@std@@@std@@IBEXXZ ENDP ; std::vector<WeaponInfo,std::allocator<WeaponInfo> >::_Xlen
_TEXT	ENDS
PUBLIC	?_Xlen@?$vector@UForceInfo@@V?$allocator@UForceInfo@@@std@@@std@@IBEXXZ ; std::vector<ForceInfo,std::allocator<ForceInfo> >::_Xlen
; Function compile flags: /Ogsp
;	COMDAT ?_Xlen@?$vector@UForceInfo@@V?$allocator@UForceInfo@@@std@@@std@@IBEXXZ
_TEXT	SEGMENT
?_Xlen@?$vector@UForceInfo@@V?$allocator@UForceInfo@@@std@@@std@@IBEXXZ PROC ; std::vector<ForceInfo,std::allocator<ForceInfo> >::_Xlen, COMDAT
; _this$ = ecx

; 1427 : 		_Xlength_error("vector<T> too long");

  00000	68 00 00 00 00	 push	 OFFSET ??_C@_0BD@OLBABOEK@vector?$DMT?$DO?5too?5long?$AA@
  00005	ff 15 00 00 00
	00		 call	 DWORD PTR __imp_?_Xlength_error@std@@YAXPBD@Z
$LN4@Xlen@4:
$LN3@Xlen@4:
  0000b	cc		 int	 3
?_Xlen@?$vector@UForceInfo@@V?$allocator@UForceInfo@@@std@@@std@@IBEXXZ ENDP ; std::vector<ForceInfo,std::allocator<ForceInfo> >::_Xlen
_TEXT	ENDS
PUBLIC	?max_size@?$allocator@UWeaponInfo@@@std@@QBEIXZ	; std::allocator<WeaponInfo>::max_size
; Function compile flags: /Ogsp
; File c:\program files (x86)\microsoft visual studio 10.0\vc\include\xmemory
;	COMDAT ?max_size@?$allocator@UWeaponInfo@@@std@@QBEIXZ
_TEXT	SEGMENT
?max_size@?$allocator@UWeaponInfo@@@std@@QBEIXZ PROC	; std::allocator<WeaponInfo>::max_size, COMDAT
; _this$ = ecx

; 218  : 		_SIZT _Count = (_SIZT)(-1) / sizeof (_Ty);
; 219  : 		return (0 < _Count ? _Count : 1);

  00000	b8 66 66 66 06	 mov	 eax, 107374182		; 06666666H

; 220  : 		}

  00005	c3		 ret	 0
?max_size@?$allocator@UWeaponInfo@@@std@@QBEIXZ ENDP	; std::allocator<WeaponInfo>::max_size
_TEXT	ENDS
PUBLIC	?max_size@?$allocator@UForceInfo@@@std@@QBEIXZ	; std::allocator<ForceInfo>::max_size
; Function compile flags: /Ogsp
;	COMDAT ?max_size@?$allocator@UForceInfo@@@std@@QBEIXZ
_TEXT	SEGMENT
?max_size@?$allocator@UForceInfo@@@std@@QBEIXZ PROC	; std::allocator<ForceInfo>::max_size, COMDAT
; _this$ = ecx

; 218  : 		_SIZT _Count = (_SIZT)(-1) / sizeof (_Ty);
; 219  : 		return (0 < _Count ? _Count : 1);

  00000	b8 55 55 55 15	 mov	 eax, 357913941		; 15555555H

; 220  : 		}

  00005	c3		 ret	 0
?max_size@?$allocator@UForceInfo@@@std@@QBEIXZ ENDP	; std::allocator<ForceInfo>::max_size
_TEXT	ENDS
PUBLIC	??0?$_Vector_const_iterator@V?$_Vector_val@UWeaponInfo@@V?$allocator@UWeaponInfo@@@std@@@std@@@std@@QAE@PAUWeaponInfo@@PBU_Container_base0@1@@Z ; std::_Vector_const_iterator<std::_Vector_val<WeaponInfo,std::allocator<WeaponInfo> > >::_Vector_const_iterator<std::_Vector_val<WeaponInfo,std::allocator<WeaponInfo> > >
; Function compile flags: /Ogsp
; File c:\program files (x86)\microsoft visual studio 10.0\vc\include\vector
;	COMDAT ??0?$_Vector_const_iterator@V?$_Vector_val@UWeaponInfo@@V?$allocator@UWeaponInfo@@@std@@@std@@@std@@QAE@PAUWeaponInfo@@PBU_Container_base0@1@@Z
_TEXT	SEGMENT
__Parg$ = 8						; size = 4
__Pvector$ = 12						; size = 4
??0?$_Vector_const_iterator@V?$_Vector_val@UWeaponInfo@@V?$allocator@UWeaponInfo@@@std@@@std@@@std@@QAE@PAUWeaponInfo@@PBU_Container_base0@1@@Z PROC ; std::_Vector_const_iterator<std::_Vector_val<WeaponInfo,std::allocator<WeaponInfo> > >::_Vector_const_iterator<std::_Vector_val<WeaponInfo,std::allocator<WeaponInfo> > >, COMDAT
; _this$ = ecx

; 45   : 		{	// construct with pointer _Parg

  00000	55		 push	 ebp
  00001	8b ec		 mov	 ebp, esp
  00003	8b c1		 mov	 eax, ecx
  00005	8b 4d 08	 mov	 ecx, DWORD PTR __Parg$[ebp]
  00008	89 08		 mov	 DWORD PTR [eax], ecx

; 46   : 		this->_Adopt(_Pvector);
; 47   : 		}

  0000a	5d		 pop	 ebp
  0000b	c2 08 00	 ret	 8
??0?$_Vector_const_iterator@V?$_Vector_val@UWeaponInfo@@V?$allocator@UWeaponInfo@@@std@@@std@@@std@@QAE@PAUWeaponInfo@@PBU_Container_base0@1@@Z ENDP ; std::_Vector_const_iterator<std::_Vector_val<WeaponInfo,std::allocator<WeaponInfo> > >::_Vector_const_iterator<std::_Vector_val<WeaponInfo,std::allocator<WeaponInfo> > >
_TEXT	ENDS
PUBLIC	??0?$_Vector_const_iterator@V?$_Vector_val@UForceInfo@@V?$allocator@UForceInfo@@@std@@@std@@@std@@QAE@PAUForceInfo@@PBU_Container_base0@1@@Z ; std::_Vector_const_iterator<std::_Vector_val<ForceInfo,std::allocator<ForceInfo> > >::_Vector_const_iterator<std::_Vector_val<ForceInfo,std::allocator<ForceInfo> > >
; Function compile flags: /Ogsp
;	COMDAT ??0?$_Vector_const_iterator@V?$_Vector_val@UForceInfo@@V?$allocator@UForceInfo@@@std@@@std@@@std@@QAE@PAUForceInfo@@PBU_Container_base0@1@@Z
_TEXT	SEGMENT
__Parg$ = 8						; size = 4
__Pvector$ = 12						; size = 4
??0?$_Vector_const_iterator@V?$_Vector_val@UForceInfo@@V?$allocator@UForceInfo@@@std@@@std@@@std@@QAE@PAUForceInfo@@PBU_Container_base0@1@@Z PROC ; std::_Vector_const_iterator<std::_Vector_val<ForceInfo,std::allocator<ForceInfo> > >::_Vector_const_iterator<std::_Vector_val<ForceInfo,std::allocator<ForceInfo> > >, COMDAT
; _this$ = ecx

; 45   : 		{	// construct with pointer _Parg

  00000	55		 push	 ebp
  00001	8b ec		 mov	 ebp, esp
  00003	8b c1		 mov	 eax, ecx
  00005	8b 4d 08	 mov	 ecx, DWORD PTR __Parg$[ebp]
  00008	89 08		 mov	 DWORD PTR [eax], ecx

; 46   : 		this->_Adopt(_Pvector);
; 47   : 		}

  0000a	5d		 pop	 ebp
  0000b	c2 08 00	 ret	 8
??0?$_Vector_const_iterator@V?$_Vector_val@UForceInfo@@V?$allocator@UForceInfo@@@std@@@std@@@std@@QAE@PAUForceInfo@@PBU_Container_base0@1@@Z ENDP ; std::_Vector_const_iterator<std::_Vector_val<ForceInfo,std::allocator<ForceInfo> > >::_Vector_const_iterator<std::_Vector_val<ForceInfo,std::allocator<ForceInfo> > >
_TEXT	ENDS
PUBLIC	?_Compat@?$_Vector_const_iterator@V?$_Vector_val@UWeaponInfo@@V?$allocator@UWeaponInfo@@@std@@@std@@@std@@QBEXABV12@@Z ; std::_Vector_const_iterator<std::_Vector_val<WeaponInfo,std::allocator<WeaponInfo> > >::_Compat
; Function compile flags: /Ogsp
;	COMDAT ?_Compat@?$_Vector_const_iterator@V?$_Vector_val@UWeaponInfo@@V?$allocator@UWeaponInfo@@@std@@@std@@@std@@QBEXABV12@@Z
_TEXT	SEGMENT
___formal$ = 8						; size = 4
?_Compat@?$_Vector_const_iterator@V?$_Vector_val@UWeaponInfo@@V?$allocator@UWeaponInfo@@@std@@@std@@@std@@QBEXABV12@@Z PROC ; std::_Vector_const_iterator<std::_Vector_val<WeaponInfo,std::allocator<WeaponInfo> > >::_Compat, COMDAT
; _this$ = ecx

; 253  : 		}

  00000	c2 04 00	 ret	 4
?_Compat@?$_Vector_const_iterator@V?$_Vector_val@UWeaponInfo@@V?$allocator@UWeaponInfo@@@std@@@std@@@std@@QBEXABV12@@Z ENDP ; std::_Vector_const_iterator<std::_Vector_val<WeaponInfo,std::allocator<WeaponInfo> > >::_Compat
_TEXT	ENDS
PUBLIC	?_Compat@?$_Vector_const_iterator@V?$_Vector_val@UForceInfo@@V?$allocator@UForceInfo@@@std@@@std@@@std@@QBEXABV12@@Z ; std::_Vector_const_iterator<std::_Vector_val<ForceInfo,std::allocator<ForceInfo> > >::_Compat
; Function compile flags: /Ogsp
;	COMDAT ?_Compat@?$_Vector_const_iterator@V?$_Vector_val@UForceInfo@@V?$allocator@UForceInfo@@@std@@@std@@@std@@QBEXABV12@@Z
_TEXT	SEGMENT
___formal$ = 8						; size = 4
?_Compat@?$_Vector_const_iterator@V?$_Vector_val@UForceInfo@@V?$allocator@UForceInfo@@@std@@@std@@@std@@QBEXABV12@@Z PROC ; std::_Vector_const_iterator<std::_Vector_val<ForceInfo,std::allocator<ForceInfo> > >::_Compat, COMDAT
; _this$ = ecx

; 253  : 		}

  00000	c2 04 00	 ret	 4
?_Compat@?$_Vector_const_iterator@V?$_Vector_val@UForceInfo@@V?$allocator@UForceInfo@@@std@@@std@@@std@@QBEXABV12@@Z ENDP ; std::_Vector_const_iterator<std::_Vector_val<ForceInfo,std::allocator<ForceInfo> > >::_Compat
_TEXT	ENDS
PUBLIC	??$move@AAUBuffInfoStruct@@@std@@YA$$QAUBuffInfoStruct@@AAU1@@Z ; std::move<BuffInfoStruct &>
; Function compile flags: /Ogsp
; File c:\program files (x86)\microsoft visual studio 10.0\vc\include\utility
;	COMDAT ??$move@AAUBuffInfoStruct@@@std@@YA$$QAUBuffInfoStruct@@AAU1@@Z
_TEXT	SEGMENT
__Arg$ = 8						; size = 4
??$move@AAUBuffInfoStruct@@@std@@YA$$QAUBuffInfoStruct@@AAU1@@Z PROC ; std::move<BuffInfoStruct &>, COMDAT

; 86   : 	{	// forward _Arg as movable

  00000	55		 push	 ebp
  00001	8b ec		 mov	 ebp, esp

; 87   : 	return ((typename tr1::_Remove_reference<_Ty>::_Type&&)_Arg);

  00003	8b 45 08	 mov	 eax, DWORD PTR __Arg$[ebp]

; 88   : 	}

  00006	5d		 pop	 ebp
  00007	c3		 ret	 0
??$move@AAUBuffInfoStruct@@@std@@YA$$QAUBuffInfoStruct@@AAU1@@Z ENDP ; std::move<BuffInfoStruct &>
_TEXT	ENDS
PUBLIC	??$_Allocate@UWeaponInfo@@@std@@YAPAUWeaponInfo@@IPAU1@@Z ; std::_Allocate<WeaponInfo>
; Function compile flags: /Ogsp
; File c:\program files (x86)\microsoft visual studio 10.0\vc\include\xmemory
;	COMDAT ??$_Allocate@UWeaponInfo@@@std@@YAPAUWeaponInfo@@IPAU1@@Z
_TEXT	SEGMENT
$T576100 = -12						; size = 12
$T576104 = 8						; size = 4
__Count$ = 8						; size = 4
___formal$ = 12						; size = 4
??$_Allocate@UWeaponInfo@@@std@@YAPAUWeaponInfo@@IPAU1@@Z PROC ; std::_Allocate<WeaponInfo>, COMDAT

; 30   : 	{	// allocate storage for _Count elements of type _Ty

  00000	55		 push	 ebp
  00001	8b ec		 mov	 ebp, esp

; 31   : 	void *_Ptr = 0;
; 32   : 
; 33   : 	if (_Count <= 0)

  00003	8b 4d 08	 mov	 ecx, DWORD PTR __Count$[ebp]
  00006	83 ec 0c	 sub	 esp, 12			; 0000000cH
  00009	33 c0		 xor	 eax, eax
  0000b	85 c9		 test	 ecx, ecx

; 34   : 		_Count = 0;
; 35   : 	else if (((_SIZT)(-1) / sizeof (_Ty) < _Count)

  0000d	74 3c		 je	 SHORT $LN5@Allocate@3

; 36   : 		|| (_Ptr = ::operator new(_Count * sizeof (_Ty))) == 0)

  0000f	81 f9 66 66 66
	06		 cmp	 ecx, 107374182		; 06666666H
  00015	77 0e		 ja	 SHORT $LN1@Allocate@3
  00017	6b c9 28	 imul	 ecx, 40			; 00000028H
  0001a	51		 push	 ecx
  0001b	e8 00 00 00 00	 call	 ??2@YAPAXI@Z		; operator new
  00020	59		 pop	 ecx
  00021	85 c0		 test	 eax, eax

; 38   : 
; 39   : 	return ((_Ty _FARQ *)_Ptr);

  00023	75 26		 jne	 SHORT $LN5@Allocate@3
$LN1@Allocate@3:

; 37   : 		_THROW_NCEE(bad_alloc, 0);

  00025	83 65 08 00	 and	 DWORD PTR $T576104[ebp], 0
  00029	8d 45 08	 lea	 eax, DWORD PTR $T576104[ebp]
  0002c	50		 push	 eax
  0002d	8d 4d f4	 lea	 ecx, DWORD PTR $T576100[ebp]
  00030	ff 15 00 00 00
	00		 call	 DWORD PTR __imp_??0exception@std@@QAE@ABQBD@Z
  00036	68 00 00 00 00	 push	 OFFSET __TI2?AVbad_alloc@std@@
  0003b	8d 45 f4	 lea	 eax, DWORD PTR $T576100[ebp]
  0003e	50		 push	 eax
  0003f	c7 45 f4 00 00
	00 00		 mov	 DWORD PTR $T576100[ebp], OFFSET ??_7bad_alloc@std@@6B@
  00046	e8 00 00 00 00	 call	 __CxxThrowException@8
$LN10@Allocate@3:
$LN5@Allocate@3:

; 40   : 	}

  0004b	c9		 leave
  0004c	c3		 ret	 0
$LN9@Allocate@3:
??$_Allocate@UWeaponInfo@@@std@@YAPAUWeaponInfo@@IPAU1@@Z ENDP ; std::_Allocate<WeaponInfo>
_TEXT	ENDS
PUBLIC	??$_Allocate@UForceInfo@@@std@@YAPAUForceInfo@@IPAU1@@Z ; std::_Allocate<ForceInfo>
; Function compile flags: /Ogsp
;	COMDAT ??$_Allocate@UForceInfo@@@std@@YAPAUForceInfo@@IPAU1@@Z
_TEXT	SEGMENT
$T576109 = -12						; size = 12
$T576113 = 8						; size = 4
__Count$ = 8						; size = 4
___formal$ = 12						; size = 4
??$_Allocate@UForceInfo@@@std@@YAPAUForceInfo@@IPAU1@@Z PROC ; std::_Allocate<ForceInfo>, COMDAT

; 30   : 	{	// allocate storage for _Count elements of type _Ty

  00000	55		 push	 ebp
  00001	8b ec		 mov	 ebp, esp

; 31   : 	void *_Ptr = 0;
; 32   : 
; 33   : 	if (_Count <= 0)

  00003	8b 4d 08	 mov	 ecx, DWORD PTR __Count$[ebp]
  00006	83 ec 0c	 sub	 esp, 12			; 0000000cH
  00009	33 c0		 xor	 eax, eax
  0000b	85 c9		 test	 ecx, ecx

; 34   : 		_Count = 0;
; 35   : 	else if (((_SIZT)(-1) / sizeof (_Ty) < _Count)

  0000d	74 3c		 je	 SHORT $LN5@Allocate@4

; 36   : 		|| (_Ptr = ::operator new(_Count * sizeof (_Ty))) == 0)

  0000f	81 f9 55 55 55
	15		 cmp	 ecx, 357913941		; 15555555H
  00015	77 0e		 ja	 SHORT $LN1@Allocate@4
  00017	6b c9 0c	 imul	 ecx, 12			; 0000000cH
  0001a	51		 push	 ecx
  0001b	e8 00 00 00 00	 call	 ??2@YAPAXI@Z		; operator new
  00020	59		 pop	 ecx
  00021	85 c0		 test	 eax, eax

; 38   : 
; 39   : 	return ((_Ty _FARQ *)_Ptr);

  00023	75 26		 jne	 SHORT $LN5@Allocate@4
$LN1@Allocate@4:

; 37   : 		_THROW_NCEE(bad_alloc, 0);

  00025	83 65 08 00	 and	 DWORD PTR $T576113[ebp], 0
  00029	8d 45 08	 lea	 eax, DWORD PTR $T576113[ebp]
  0002c	50		 push	 eax
  0002d	8d 4d f4	 lea	 ecx, DWORD PTR $T576109[ebp]
  00030	ff 15 00 00 00
	00		 call	 DWORD PTR __imp_??0exception@std@@QAE@ABQBD@Z
  00036	68 00 00 00 00	 push	 OFFSET __TI2?AVbad_alloc@std@@
  0003b	8d 45 f4	 lea	 eax, DWORD PTR $T576109[ebp]
  0003e	50		 push	 eax
  0003f	c7 45 f4 00 00
	00 00		 mov	 DWORD PTR $T576109[ebp], OFFSET ??_7bad_alloc@std@@6B@
  00046	e8 00 00 00 00	 call	 __CxxThrowException@8
$LN10@Allocate@4:
$LN5@Allocate@4:

; 40   : 	}

  0004b	c9		 leave
  0004c	c3		 ret	 0
$LN9@Allocate@4:
??$_Allocate@UForceInfo@@@std@@YAPAUForceInfo@@IPAU1@@Z ENDP ; std::_Allocate<ForceInfo>
_TEXT	ENDS
PUBLIC	??$_Destroy@UForceInfo@@@std@@YAXPAUForceInfo@@@Z ; std::_Destroy<ForceInfo>
; Function compile flags: /Ogsp
;	COMDAT ??$_Destroy@UForceInfo@@@std@@YAXPAUForceInfo@@@Z
_TEXT	SEGMENT
__Ptr$ = 8						; size = 4
??$_Destroy@UForceInfo@@@std@@YAXPAUForceInfo@@@Z PROC	; std::_Destroy<ForceInfo>, COMDAT

; 63   : 	_Ptr->~_Ty();
; 64   : 	}

  00000	c3		 ret	 0
??$_Destroy@UForceInfo@@@std@@YAXPAUForceInfo@@@Z ENDP	; std::_Destroy<ForceInfo>
_TEXT	ENDS
PUBLIC	??4WeaponInfo@@QAEAAU0@ABU0@@Z			; WeaponInfo::operator=
; Function compile flags: /Ogsp
;	COMDAT ??4WeaponInfo@@QAEAAU0@ABU0@@Z
_TEXT	SEGMENT
___that$ = 8						; size = 4
??4WeaponInfo@@QAEAAU0@ABU0@@Z PROC			; WeaponInfo::operator=, COMDAT
; _this$ = ecx
  00000	55		 push	 ebp
  00001	8b ec		 mov	 ebp, esp
  00003	56		 push	 esi
  00004	57		 push	 edi
  00005	8b 7d 08	 mov	 edi, DWORD PTR ___that$[ebp]
  00008	8b 07		 mov	 eax, DWORD PTR [edi]
  0000a	8b f1		 mov	 esi, ecx
  0000c	89 06		 mov	 DWORD PTR [esi], eax
  0000e	8b 47 04	 mov	 eax, DWORD PTR [edi+4]
  00011	89 46 04	 mov	 DWORD PTR [esi+4], eax
  00014	8d 47 08	 lea	 eax, DWORD PTR [edi+8]
  00017	50		 push	 eax
  00018	8d 4e 08	 lea	 ecx, DWORD PTR [esi+8]
  0001b	ff 15 00 00 00
	00		 call	 DWORD PTR __imp_??4ioHashString@@QAEAAV0@ABV0@@Z
  00021	8b 47 18	 mov	 eax, DWORD PTR [edi+24]
  00024	89 46 18	 mov	 DWORD PTR [esi+24], eax
  00027	8b 47 1c	 mov	 eax, DWORD PTR [edi+28]
  0002a	89 46 1c	 mov	 DWORD PTR [esi+28], eax
  0002d	8a 47 20	 mov	 al, BYTE PTR [edi+32]
  00030	88 46 20	 mov	 BYTE PTR [esi+32], al
  00033	8b 47 24	 mov	 eax, DWORD PTR [edi+36]
  00036	89 46 24	 mov	 DWORD PTR [esi+36], eax
  00039	5f		 pop	 edi
  0003a	8b c6		 mov	 eax, esi
  0003c	5e		 pop	 esi
  0003d	5d		 pop	 ebp
  0003e	c2 04 00	 ret	 4
??4WeaponInfo@@QAEAAU0@ABU0@@Z ENDP			; WeaponInfo::operator=
_TEXT	ENDS
PUBLIC	??_GWeaponInfo@@QAEPAXI@Z			; WeaponInfo::`scalar deleting destructor'
; Function compile flags: /Ogsp
;	COMDAT ??_GWeaponInfo@@QAEPAXI@Z
_TEXT	SEGMENT
___flags$ = 8						; size = 4
??_GWeaponInfo@@QAEPAXI@Z PROC				; WeaponInfo::`scalar deleting destructor', COMDAT
; _this$ = ecx
  00000	55		 push	 ebp
  00001	8b ec		 mov	 ebp, esp
  00003	56		 push	 esi
  00004	8b f1		 mov	 esi, ecx
  00006	8d 4e 08	 lea	 ecx, DWORD PTR [esi+8]
  00009	ff 15 00 00 00
	00		 call	 DWORD PTR __imp_??1ioHashString@@QAE@XZ
  0000f	f6 45 08 01	 test	 BYTE PTR ___flags$[ebp], 1
  00013	74 07		 je	 SHORT $LN1@scalar@4
  00015	56		 push	 esi
  00016	e8 00 00 00 00	 call	 ??3@YAXPAX@Z		; operator delete
  0001b	59		 pop	 ecx
$LN1@scalar@4:
  0001c	8b c6		 mov	 eax, esi
  0001e	5e		 pop	 esi
  0001f	5d		 pop	 ebp
  00020	c2 04 00	 ret	 4
??_GWeaponInfo@@QAEPAXI@Z ENDP				; WeaponInfo::`scalar deleting destructor'
_TEXT	ENDS
PUBLIC	??_GBuffInfoStruct@@QAEPAXI@Z			; BuffInfoStruct::`scalar deleting destructor'
; Function compile flags: /Ogsp
;	COMDAT ??_GBuffInfoStruct@@QAEPAXI@Z
_TEXT	SEGMENT
___flags$ = 8						; size = 4
??_GBuffInfoStruct@@QAEPAXI@Z PROC			; BuffInfoStruct::`scalar deleting destructor', COMDAT
; _this$ = ecx
  00000	55		 push	 ebp
  00001	8b ec		 mov	 ebp, esp
  00003	56		 push	 esi
  00004	8b f1		 mov	 esi, ecx
  00006	ff 15 00 00 00
	00		 call	 DWORD PTR __imp_??1ioHashString@@QAE@XZ
  0000c	f6 45 08 01	 test	 BYTE PTR ___flags$[ebp], 1
  00010	74 07		 je	 SHORT $LN1@scalar@5
  00012	56		 push	 esi
  00013	e8 00 00 00 00	 call	 ??3@YAXPAX@Z		; operator delete
  00018	59		 pop	 ecx
$LN1@scalar@5:
  00019	8b c6		 mov	 eax, esi
  0001b	5e		 pop	 esi
  0001c	5d		 pop	 ebp
  0001d	c2 04 00	 ret	 4
??_GBuffInfoStruct@@QAEPAXI@Z ENDP			; BuffInfoStruct::`scalar deleting destructor'
_TEXT	ENDS
PUBLIC	??$forward@AAUBuffInfoStruct@@@std@@YAAAUBuffInfoStruct@@AAU1@@Z ; std::forward<BuffInfoStruct &>
; Function compile flags: /Ogsp
; File c:\program files (x86)\microsoft visual studio 10.0\vc\include\utility
;	COMDAT ??$forward@AAUBuffInfoStruct@@@std@@YAAAUBuffInfoStruct@@AAU1@@Z
_TEXT	SEGMENT
__Arg$ = 8						; size = 4
??$forward@AAUBuffInfoStruct@@@std@@YAAAUBuffInfoStruct@@AAU1@@Z PROC ; std::forward<BuffInfoStruct &>, COMDAT

; 78   : 	{	// forward _Arg, given explicitly specified type parameter

  00000	55		 push	 ebp
  00001	8b ec		 mov	 ebp, esp

; 79   : 	return ((_Ty&&)_Arg);

  00003	8b 45 08	 mov	 eax, DWORD PTR __Arg$[ebp]

; 80   : 	}

  00006	5d		 pop	 ebp
  00007	c3		 ret	 0
??$forward@AAUBuffInfoStruct@@@std@@YAAAUBuffInfoStruct@@AAU1@@Z ENDP ; std::forward<BuffInfoStruct &>
_TEXT	ENDS
PUBLIC	??$move@AAUWeaponInfo@@@std@@YA$$QAUWeaponInfo@@AAU1@@Z ; std::move<WeaponInfo &>
; Function compile flags: /Ogsp
;	COMDAT ??$move@AAUWeaponInfo@@@std@@YA$$QAUWeaponInfo@@AAU1@@Z
_TEXT	SEGMENT
__Arg$ = 8						; size = 4
??$move@AAUWeaponInfo@@@std@@YA$$QAUWeaponInfo@@AAU1@@Z PROC ; std::move<WeaponInfo &>, COMDAT

; 86   : 	{	// forward _Arg as movable

  00000	55		 push	 ebp
  00001	8b ec		 mov	 ebp, esp

; 87   : 	return ((typename tr1::_Remove_reference<_Ty>::_Type&&)_Arg);

  00003	8b 45 08	 mov	 eax, DWORD PTR __Arg$[ebp]

; 88   : 	}

  00006	5d		 pop	 ebp
  00007	c3		 ret	 0
??$move@AAUWeaponInfo@@@std@@YA$$QAUWeaponInfo@@AAU1@@Z ENDP ; std::move<WeaponInfo &>
_TEXT	ENDS
PUBLIC	??$move@AAUForceInfo@@@std@@YA$$QAUForceInfo@@AAU1@@Z ; std::move<ForceInfo &>
; Function compile flags: /Ogsp
;	COMDAT ??$move@AAUForceInfo@@@std@@YA$$QAUForceInfo@@AAU1@@Z
_TEXT	SEGMENT
__Arg$ = 8						; size = 4
??$move@AAUForceInfo@@@std@@YA$$QAUForceInfo@@AAU1@@Z PROC ; std::move<ForceInfo &>, COMDAT

; 86   : 	{	// forward _Arg as movable

  00000	55		 push	 ebp
  00001	8b ec		 mov	 ebp, esp

; 87   : 	return ((typename tr1::_Remove_reference<_Ty>::_Type&&)_Arg);

  00003	8b 45 08	 mov	 eax, DWORD PTR __Arg$[ebp]

; 88   : 	}

  00006	5d		 pop	 ebp
  00007	c3		 ret	 0
??$move@AAUForceInfo@@@std@@YA$$QAUForceInfo@@AAU1@@Z ENDP ; std::move<ForceInfo &>
_TEXT	ENDS
PUBLIC	??0BuffInfoStruct@@QAE@ABU0@@Z			; BuffInfoStruct::BuffInfoStruct
EXTRN	__imp_??0ioHashString@@QAE@ABV0@@Z:PROC
; Function compile flags: /Ogsp
;	COMDAT ??0BuffInfoStruct@@QAE@ABU0@@Z
_TEXT	SEGMENT
___that$ = 8						; size = 4
??0BuffInfoStruct@@QAE@ABU0@@Z PROC			; BuffInfoStruct::BuffInfoStruct, COMDAT
; _this$ = ecx
  00000	55		 push	 ebp
  00001	8b ec		 mov	 ebp, esp
  00003	56		 push	 esi
  00004	57		 push	 edi
  00005	8b 7d 08	 mov	 edi, DWORD PTR ___that$[ebp]
  00008	57		 push	 edi
  00009	8b f1		 mov	 esi, ecx
  0000b	ff 15 00 00 00
	00		 call	 DWORD PTR __imp_??0ioHashString@@QAE@ABV0@@Z
  00011	8b 47 10	 mov	 eax, DWORD PTR [edi+16]
  00014	89 46 10	 mov	 DWORD PTR [esi+16], eax
  00017	5f		 pop	 edi
  00018	8b c6		 mov	 eax, esi
  0001a	5e		 pop	 esi
  0001b	5d		 pop	 ebp
  0001c	c2 04 00	 ret	 4
??0BuffInfoStruct@@QAE@ABU0@@Z ENDP			; BuffInfoStruct::BuffInfoStruct
_TEXT	ENDS
PUBLIC	??$forward@AAUWeaponInfo@@@std@@YAAAUWeaponInfo@@AAU1@@Z ; std::forward<WeaponInfo &>
; Function compile flags: /Ogsp
;	COMDAT ??$forward@AAUWeaponInfo@@@std@@YAAAUWeaponInfo@@AAU1@@Z
_TEXT	SEGMENT
__Arg$ = 8						; size = 4
??$forward@AAUWeaponInfo@@@std@@YAAAUWeaponInfo@@AAU1@@Z PROC ; std::forward<WeaponInfo &>, COMDAT

; 78   : 	{	// forward _Arg, given explicitly specified type parameter

  00000	55		 push	 ebp
  00001	8b ec		 mov	 ebp, esp

; 79   : 	return ((_Ty&&)_Arg);

  00003	8b 45 08	 mov	 eax, DWORD PTR __Arg$[ebp]

; 80   : 	}

  00006	5d		 pop	 ebp
  00007	c3		 ret	 0
??$forward@AAUWeaponInfo@@@std@@YAAAUWeaponInfo@@AAU1@@Z ENDP ; std::forward<WeaponInfo &>
_TEXT	ENDS
PUBLIC	??$forward@AAUForceInfo@@@std@@YAAAUForceInfo@@AAU1@@Z ; std::forward<ForceInfo &>
; Function compile flags: /Ogsp
;	COMDAT ??$forward@AAUForceInfo@@@std@@YAAAUForceInfo@@AAU1@@Z
_TEXT	SEGMENT
__Arg$ = 8						; size = 4
??$forward@AAUForceInfo@@@std@@YAAAUForceInfo@@AAU1@@Z PROC ; std::forward<ForceInfo &>, COMDAT

; 78   : 	{	// forward _Arg, given explicitly specified type parameter

  00000	55		 push	 ebp
  00001	8b ec		 mov	 ebp, esp

; 79   : 	return ((_Ty&&)_Arg);

  00003	8b 45 08	 mov	 eax, DWORD PTR __Arg$[ebp]

; 80   : 	}

  00006	5d		 pop	 ebp
  00007	c3		 ret	 0
??$forward@AAUForceInfo@@@std@@YAAAUForceInfo@@AAU1@@Z ENDP ; std::forward<ForceInfo &>
_TEXT	ENDS
PUBLIC	??$construct@AAUForceInfo@@@?$allocator@UForceInfo@@@std@@QAEXPAUForceInfo@@AAU2@@Z ; std::allocator<ForceInfo>::construct<ForceInfo &>
; Function compile flags: /Ogsp
; File c:\program files (x86)\microsoft visual studio 10.0\vc\include\xmemory
;	COMDAT ??$construct@AAUForceInfo@@@?$allocator@UForceInfo@@@std@@QAEXPAUForceInfo@@AAU2@@Z
_TEXT	SEGMENT
__Ptr$ = 8						; size = 4
__Val$ = 12						; size = 4
??$construct@AAUForceInfo@@@?$allocator@UForceInfo@@@std@@QAEXPAUForceInfo@@AAU2@@Z PROC ; std::allocator<ForceInfo>::construct<ForceInfo &>, COMDAT
; _this$ = ecx

; 206  : 		void construct(pointer _Ptr, _Other&& _Val)

  00000	55		 push	 ebp
  00001	8b ec		 mov	 ebp, esp
  00003	57		 push	 edi

; 207  : 		{	// construct object at _Ptr with value _Val
; 208  : 		::new ((void _FARQ *)_Ptr) _Ty(_STD forward<_Other>(_Val));

  00004	8b 7d 08	 mov	 edi, DWORD PTR __Ptr$[ebp]
  00007	85 ff		 test	 edi, edi
  00009	74 08		 je	 SHORT $LN3@construct@2
  0000b	56		 push	 esi
  0000c	8b 75 0c	 mov	 esi, DWORD PTR __Val$[ebp]
  0000f	a5		 movsd
  00010	a5		 movsd
  00011	a5		 movsd
  00012	5e		 pop	 esi
$LN3@construct@2:
  00013	5f		 pop	 edi

; 209  : 		}

  00014	5d		 pop	 ebp
  00015	c2 08 00	 ret	 8
??$construct@AAUForceInfo@@@?$allocator@UForceInfo@@@std@@QAEXPAUForceInfo@@AAU2@@Z ENDP ; std::allocator<ForceInfo>::construct<ForceInfo &>
_TEXT	ENDS
PUBLIC	??0WeaponInfo@@QAE@ABU0@@Z			; WeaponInfo::WeaponInfo
; Function compile flags: /Ogsp
;	COMDAT ??0WeaponInfo@@QAE@ABU0@@Z
_TEXT	SEGMENT
___that$ = 8						; size = 4
??0WeaponInfo@@QAE@ABU0@@Z PROC				; WeaponInfo::WeaponInfo, COMDAT
; _this$ = ecx
  00000	55		 push	 ebp
  00001	8b ec		 mov	 ebp, esp
  00003	56		 push	 esi
  00004	57		 push	 edi
  00005	8b 7d 08	 mov	 edi, DWORD PTR ___that$[ebp]
  00008	8b 07		 mov	 eax, DWORD PTR [edi]
  0000a	8b f1		 mov	 esi, ecx
  0000c	89 06		 mov	 DWORD PTR [esi], eax
  0000e	8b 47 04	 mov	 eax, DWORD PTR [edi+4]
  00011	89 46 04	 mov	 DWORD PTR [esi+4], eax
  00014	8d 47 08	 lea	 eax, DWORD PTR [edi+8]
  00017	50		 push	 eax
  00018	8d 4e 08	 lea	 ecx, DWORD PTR [esi+8]
  0001b	ff 15 00 00 00
	00		 call	 DWORD PTR __imp_??0ioHashString@@QAE@ABV0@@Z
  00021	8b 47 18	 mov	 eax, DWORD PTR [edi+24]
  00024	89 46 18	 mov	 DWORD PTR [esi+24], eax
  00027	8b 47 1c	 mov	 eax, DWORD PTR [edi+28]
  0002a	89 46 1c	 mov	 DWORD PTR [esi+28], eax
  0002d	8a 47 20	 mov	 al, BYTE PTR [edi+32]
  00030	88 46 20	 mov	 BYTE PTR [esi+32], al
  00033	8b 47 24	 mov	 eax, DWORD PTR [edi+36]
  00036	89 46 24	 mov	 DWORD PTR [esi+36], eax
  00039	5f		 pop	 edi
  0003a	8b c6		 mov	 eax, esi
  0003c	5e		 pop	 esi
  0003d	5d		 pop	 ebp
  0003e	c2 04 00	 ret	 4
??0WeaponInfo@@QAE@ABU0@@Z ENDP				; WeaponInfo::WeaponInfo
_TEXT	ENDS
PUBLIC	??_R0?AVioBuff@@@8				; ioBuff `RTTI Type Descriptor'
PUBLIC	??_R0?AVioDummyBuff@@@8				; ioDummyBuff `RTTI Type Descriptor'
PUBLIC	?ToDummyBuff@@YAPAVioDummyBuff@@PAVioBuff@@@Z	; ToDummyBuff
;	COMDAT ??_R0?AVioBuff@@@8
; File d:\lost saga for developer\youtube\tutorial\source\src\lsclient\iobuff.h
_DATA	SEGMENT
??_R0?AVioBuff@@@8 DD FLAT:??_7type_info@@6B@		; ioBuff `RTTI Type Descriptor'
	DD	00H
	DB	'.?AVioBuff@@', 00H
_DATA	ENDS
;	COMDAT ??_R0?AVioDummyBuff@@@8
_DATA	SEGMENT
??_R0?AVioDummyBuff@@@8 DD FLAT:??_7type_info@@6B@	; ioDummyBuff `RTTI Type Descriptor'
	DD	00H
	DB	'.?AVioDummyBuff@@', 00H
; Function compile flags: /Ogsp
; File d:\lost saga for developer\youtube\tutorial\source\src\lsclient\iodummybuff.h
_DATA	ENDS
;	COMDAT ?ToDummyBuff@@YAPAVioDummyBuff@@PAVioBuff@@@Z
_TEXT	SEGMENT
_pBuff$ = 8						; size = 4
?ToDummyBuff@@YAPAVioDummyBuff@@PAVioBuff@@@Z PROC	; ToDummyBuff, COMDAT

; 64   : {

  00000	55		 push	 ebp
  00001	8b ec		 mov	 ebp, esp

; 65   : 	if( !pBuff || pBuff->GetTypeID() != BT_DUMMY_BUFF )

  00003	8b 45 08	 mov	 eax, DWORD PTR _pBuff$[ebp]
  00006	85 c0		 test	 eax, eax
  00008	74 22		 je	 SHORT $LN1@ToDummyBuf
  0000a	83 b8 cc 03 00
	00 4a		 cmp	 DWORD PTR [eax+972], 74	; 0000004aH
  00011	75 19		 jne	 SHORT $LN1@ToDummyBuf

; 67   : 
; 68   : 	return dynamic_cast< ioDummyBuff* >( pBuff );

  00013	6a 00		 push	 0
  00015	68 00 00 00 00	 push	 OFFSET ??_R0?AVioDummyBuff@@@8
  0001a	68 00 00 00 00	 push	 OFFSET ??_R0?AVioBuff@@@8
  0001f	6a 00		 push	 0
  00021	50		 push	 eax
  00022	e8 00 00 00 00	 call	 ___RTDynamicCast
  00027	83 c4 14	 add	 esp, 20			; 00000014H

; 69   : }

  0002a	5d		 pop	 ebp
  0002b	c3		 ret	 0
$LN1@ToDummyBuf:

; 66   : 		return NULL;

  0002c	33 c0		 xor	 eax, eax

; 69   : }

  0002e	5d		 pop	 ebp
  0002f	c3		 ret	 0
?ToDummyBuff@@YAPAVioDummyBuff@@PAVioBuff@@@Z ENDP	; ToDummyBuff
_TEXT	ENDS
PUBLIC	_pWeapon$GSCopy$
PUBLIC	__$ArrayPad$
PUBLIC	?ApplyAttributeToWeapon@ioCircleMoveWeaponSkill@@UAEXPAVioWeapon@@PAVioPlayStage@@@Z ; ioCircleMoveWeaponSkill::ApplyAttributeToWeapon
EXTRN	?SetPrisionPos@ioPrisonWeapon@@QAEXABUD3DXVECTOR3@@@Z:PROC ; ioPrisonWeapon::SetPrisionPos
EXTRN	?SetMoveRange@ioPrisonWeapon@@QAEXM@Z:PROC	; ioPrisonWeapon::SetMoveRange
EXTRN	__imp_?VEC3_ZERO@ioMath@@2UD3DXVECTOR3@@A:BYTE
EXTRN	?ApplyAttributeToWeapon@ioSkill@@UAEXPAVioWeapon@@PAVioPlayStage@@@Z:PROC ; ioSkill::ApplyAttributeToWeapon
EXTRN	___security_cookie:DWORD
; Function compile flags: /Ogsp
; File d:\lost saga for developer\youtube\tutorial\source\src\lsclient\iocirclemoveweaponskill.cpp
;	COMDAT ?ApplyAttributeToWeapon@ioCircleMoveWeaponSkill@@UAEXPAVioWeapon@@PAVioPlayStage@@@Z
_TEXT	SEGMENT
_pWeapon$GSCopy$ = -28					; size = 4
_fSpeed$570074 = -24					; size = 4
_fFloat$570075 = -20					; size = 4
_vDir$570073 = -16					; size = 12
__$ArrayPad$ = -4					; size = 4
_pWeapon$ = 8						; size = 4
_pStage$ = 12						; size = 4
?ApplyAttributeToWeapon@ioCircleMoveWeaponSkill@@UAEXPAVioWeapon@@PAVioPlayStage@@@Z PROC ; ioCircleMoveWeaponSkill::ApplyAttributeToWeapon, COMDAT
; _this$ = ecx

; 628  : {

  00000	55		 push	 ebp
  00001	8b ec		 mov	 ebp, esp
  00003	83 ec 1c	 sub	 esp, 28			; 0000001cH
  00006	a1 00 00 00 00	 mov	 eax, DWORD PTR ___security_cookie
  0000b	33 c5		 xor	 eax, ebp
  0000d	89 45 fc	 mov	 DWORD PTR __$ArrayPad$[ebp], eax
  00010	8b 45 0c	 mov	 eax, DWORD PTR _pStage$[ebp]
  00013	53		 push	 ebx
  00014	56		 push	 esi
  00015	8b 75 08	 mov	 esi, DWORD PTR _pWeapon$[ebp]

; 629  : 	ioSkill::ApplyAttributeToWeapon( pWeapon, pStage );

  00018	50		 push	 eax
  00019	56		 push	 esi
  0001a	8b d9		 mov	 ebx, ecx

; 637  : 			{
; 638  : 				pPrison->SetMoveDir( m_vAttackDir );

  0001c	89 75 e4	 mov	 DWORD PTR _pWeapon$GSCopy$[ebp], esi
  0001f	e8 00 00 00 00	 call	 ?ApplyAttributeToWeapon@ioSkill@@UAEXPAVioWeapon@@PAVioPlayStage@@@Z ; ioSkill::ApplyAttributeToWeapon
  00024	8b 06		 mov	 eax, DWORD PTR [esi]
  00026	8b ce		 mov	 ecx, esi
  00028	ff 90 10 01 00
	00		 call	 DWORD PTR [eax+272]
  0002e	83 f8 5d	 cmp	 eax, 93			; 0000005dH
  00031	0f 84 b0 00 00
	00		 je	 $LN4@ApplyAttri

; 641  : 			}
; 642  : 		}
; 643  : 		break;
; 644  : 	default:
; 645  : 		{
; 646  : 			SetChargingRateForWeapon( pWeapon );

  00037	8b 03		 mov	 eax, DWORD PTR [ebx]
  00039	57		 push	 edi
  0003a	56		 push	 esi
  0003b	8b cb		 mov	 ecx, ebx
  0003d	ff 90 68 01 00
	00		 call	 DWORD PTR [eax+360]

; 647  : 
; 648  : 			D3DXVECTOR3 vDir = ioMath::VEC3_ZERO;

  00043	8b 35 00 00 00
	00		 mov	 esi, DWORD PTR __imp_?VEC3_ZERO@ioMath@@2UD3DXVECTOR3@@A

; 649  : 			float fSpeed = 0.0f;
; 650  : 			float fFloat = 0.0f;
; 651  : 
; 652  : 			if( COMPARE( m_iCurWeaponCnt, 0, (int)m_vWeaponMoveInfoList.size() ) )

  00049	8b 8b 70 10 00
	00		 mov	 ecx, DWORD PTR [ebx+4208]
  0004f	0f 57 c0	 xorps	 xmm0, xmm0
  00052	8d 7d f0	 lea	 edi, DWORD PTR _vDir$570073[ebp]
  00055	a5		 movsd
  00056	a5		 movsd
  00057	a5		 movsd
  00058	f3 0f 11 45 e8	 movss	 DWORD PTR _fSpeed$570074[ebp], xmm0
  0005d	f3 0f 11 45 ec	 movss	 DWORD PTR _fFloat$570075[ebp], xmm0
  00062	85 c9		 test	 ecx, ecx
  00064	78 3d		 js	 SHORT $LN1@ApplyAttri
  00066	8b 83 08 11 00
	00		 mov	 eax, DWORD PTR [ebx+4360]
  0006c	2b 83 04 11 00
	00		 sub	 eax, DWORD PTR [ebx+4356]
  00072	6a 14		 push	 20			; 00000014H
  00074	99		 cdq
  00075	5e		 pop	 esi
  00076	f7 fe		 idiv	 esi
  00078	3b c8		 cmp	 ecx, eax
  0007a	7d 27		 jge	 SHORT $LN1@ApplyAttri

; 653  : 			{
; 654  : 				vDir = m_vWeaponMoveInfoList[m_iCurWeaponCnt].m_vMoveDir;

  0007c	8b 83 04 11 00
	00		 mov	 eax, DWORD PTR [ebx+4356]
  00082	6b c9 14	 imul	 ecx, 20			; 00000014H
  00085	03 c1		 add	 eax, ecx
  00087	8b f0		 mov	 esi, eax
  00089	8d 7d f0	 lea	 edi, DWORD PTR _vDir$570073[ebp]
  0008c	a5		 movsd
  0008d	a5		 movsd
  0008e	a5		 movsd

; 655  : 				fSpeed = m_vWeaponMoveInfoList[m_iCurWeaponCnt].m_fMoveSpeed;

  0008f	f3 0f 10 40 0c	 movss	 xmm0, DWORD PTR [eax+12]
  00094	f3 0f 11 45 e8	 movss	 DWORD PTR _fSpeed$570074[ebp], xmm0

; 656  : 				fFloat = m_vWeaponMoveInfoList[m_iCurWeaponCnt].m_fFloatPower;

  00099	f3 0f 10 40 10	 movss	 xmm0, DWORD PTR [eax+16]
  0009e	f3 0f 11 45 ec	 movss	 DWORD PTR _fFloat$570075[ebp], xmm0
$LN1@ApplyAttri:

; 657  : 			}
; 658  : 
; 659  : 			pWeapon->SetMoveDir( vDir );

  000a3	8b 75 e4	 mov	 esi, DWORD PTR _pWeapon$GSCopy$[ebp]
  000a6	8b 06		 mov	 eax, DWORD PTR [esi]
  000a8	8d 4d f0	 lea	 ecx, DWORD PTR _vDir$570073[ebp]
  000ab	51		 push	 ecx
  000ac	8b ce		 mov	 ecx, esi
  000ae	ff 90 b0 00 00
	00		 call	 DWORD PTR [eax+176]

; 660  : 			pWeapon->SetMoveSpeed( fSpeed );

  000b4	f3 0f 10 45 e8	 movss	 xmm0, DWORD PTR _fSpeed$570074[ebp]
  000b9	8b 06		 mov	 eax, DWORD PTR [esi]
  000bb	51		 push	 ecx
  000bc	8b ce		 mov	 ecx, esi
  000be	f3 0f 11 04 24	 movss	 DWORD PTR [esp], xmm0
  000c3	ff 90 b4 00 00
	00		 call	 DWORD PTR [eax+180]

; 661  : 			pWeapon->SetFloatPower( fFloat );

  000c9	f3 0f 10 45 ec	 movss	 xmm0, DWORD PTR _fFloat$570075[ebp]
  000ce	8b 06		 mov	 eax, DWORD PTR [esi]
  000d0	51		 push	 ecx
  000d1	8b ce		 mov	 ecx, esi
  000d3	f3 0f 11 04 24	 movss	 DWORD PTR [esp], xmm0
  000d8	ff 90 b8 00 00
	00		 call	 DWORD PTR [eax+184]

; 662  : 
; 663  : 			m_iCurWeaponCnt++;

  000de	ff 83 70 10 00
	00		 inc	 DWORD PTR [ebx+4208]
  000e4	5f		 pop	 edi
  000e5	eb 41		 jmp	 SHORT $LN3@ApplyAttri
$LN4@ApplyAttri:

; 630  : 
; 631  : 	switch( pWeapon->GetType() )
; 632  : 	{
; 633  : 	case ioWeapon::WT_PRISON_WEAPON:
; 634  : 		{
; 635  : 			ioPrisonWeapon* pPrison = ToPrisonWeapon( pWeapon );

  000e7	56		 push	 esi
  000e8	e8 00 00 00 00	 call	 ?ToPrisonWeapon@@YAPAVioPrisonWeapon@@PAVioWeapon@@@Z ; ToPrisonWeapon
  000ed	8b f0		 mov	 esi, eax
  000ef	59		 pop	 ecx

; 636  : 			if( pPrison )						

  000f0	85 f6		 test	 esi, esi
  000f2	74 34		 je	 SHORT $LN3@ApplyAttri

; 637  : 			{
; 638  : 				pPrison->SetMoveDir( m_vAttackDir );

  000f4	8b 06		 mov	 eax, DWORD PTR [esi]
  000f6	8d 8b f8 0f 00
	00		 lea	 ecx, DWORD PTR [ebx+4088]
  000fc	51		 push	 ecx
  000fd	8b ce		 mov	 ecx, esi
  000ff	ff 90 b0 00 00
	00		 call	 DWORD PTR [eax+176]

; 639  : 				pPrison->SetMoveRange( m_fMoveRange );

  00105	f3 0f 10 83 04
	10 00 00	 movss	 xmm0, DWORD PTR [ebx+4100]
  0010d	51		 push	 ecx
  0010e	8b ce		 mov	 ecx, esi
  00110	f3 0f 11 04 24	 movss	 DWORD PTR [esp], xmm0
  00115	e8 00 00 00 00	 call	 ?SetMoveRange@ioPrisonWeapon@@QAEXM@Z ; ioPrisonWeapon::SetMoveRange

; 640  : 				pPrison->SetPrisionPos( m_vCirclePos );

  0011a	81 c3 ec 0f 00
	00		 add	 ebx, 4076		; 00000fecH
  00120	53		 push	 ebx
  00121	8b ce		 mov	 ecx, esi
  00123	e8 00 00 00 00	 call	 ?SetPrisionPos@ioPrisonWeapon@@QAEXABUD3DXVECTOR3@@@Z ; ioPrisonWeapon::SetPrisionPos
$LN3@ApplyAttri:

; 664  : 		}		
; 665  : 	}
; 666  : }

  00128	8b 4d fc	 mov	 ecx, DWORD PTR __$ArrayPad$[ebp]
  0012b	5e		 pop	 esi
  0012c	33 cd		 xor	 ecx, ebp
  0012e	5b		 pop	 ebx
  0012f	e8 00 00 00 00	 call	 @__security_check_cookie@4
  00134	c9		 leave
  00135	c2 08 00	 ret	 8
?ApplyAttributeToWeapon@ioCircleMoveWeaponSkill@@UAEXPAVioWeapon@@PAVioPlayStage@@@Z ENDP ; ioCircleMoveWeaponSkill::ApplyAttributeToWeapon
_TEXT	ENDS
PUBLIC	?AddOwnerBuff@ioCircleMoveWeaponSkill@@IAEXPAVioBaseChar@@@Z ; ioCircleMoveWeaponSkill::AddOwnerBuff
EXTRN	?AddNewBuff@ioBaseChar@@QAEPAVioBuff@@ABVioHashString@@00PAVioSkill@@_N@Z:PROC ; ioBaseChar::AddNewBuff
; Function compile flags: /Ogsp
;	COMDAT ?AddOwnerBuff@ioCircleMoveWeaponSkill@@IAEXPAVioBaseChar@@@Z
_TEXT	SEGMENT
tv178 = -4						; size = 4
tv263 = 8						; size = 4
_pChar$ = 8						; size = 4
?AddOwnerBuff@ioCircleMoveWeaponSkill@@IAEXPAVioBaseChar@@@Z PROC ; ioCircleMoveWeaponSkill::AddOwnerBuff, COMDAT
; _this$ = ecx

; 693  : {

  00000	55		 push	 ebp
  00001	8b ec		 mov	 ebp, esp
  00003	51		 push	 ecx
  00004	53		 push	 ebx

; 694  : 	if( !pChar )	return;

  00005	8b 5d 08	 mov	 ebx, DWORD PTR _pChar$[ebp]
  00008	56		 push	 esi
  00009	8b f1		 mov	 esi, ecx
  0000b	85 db		 test	 ebx, ebx
  0000d	74 6a		 je	 SHORT $LN2@AddOwnerBu

; 695  : 	if( m_OwnerBuffList.empty() ) return;

  0000f	8b 8e 14 11 00
	00		 mov	 ecx, DWORD PTR [esi+4372]
  00015	8b 86 18 11 00
	00		 mov	 eax, DWORD PTR [esi+4376]
  0001b	3b c8		 cmp	 ecx, eax
  0001d	74 5a		 je	 SHORT $LN2@AddOwnerBu

; 696  : 
; 697  : 	int iCnt = m_OwnerBuffList.size();

  0001f	2b c1		 sub	 eax, ecx
  00021	6a 14		 push	 20			; 00000014H
  00023	99		 cdq
  00024	59		 pop	 ecx
  00025	f7 f9		 idiv	 ecx

; 698  : 	for( int i = 0; i < iCnt; ++i )

  00027	85 c0		 test	 eax, eax
  00029	7e 4e		 jle	 SHORT $LN2@AddOwnerBu

; 696  : 
; 697  : 	int iCnt = m_OwnerBuffList.size();

  0002b	83 65 08 00	 and	 DWORD PTR tv263[ebp], 0
  0002f	57		 push	 edi
  00030	8d bb d4 02 00
	00		 lea	 edi, DWORD PTR [ebx+724]
  00036	89 45 fc	 mov	 DWORD PTR tv178[ebp], eax
$LL25@AddOwnerBu:

; 699  : 	{
; 700  : 		ioDummyBuff* pBuff = ToDummyBuff( pChar->AddNewBuff( m_OwnerBuffList[i].m_BuffName, pChar->GetCharName(), GetOwnerItem()->GetName(), this ) );

  00039	8b 8e a4 02 00
	00		 mov	 ecx, DWORD PTR [esi+676]
  0003f	8b 86 14 11 00
	00		 mov	 eax, DWORD PTR [esi+4372]
  00045	03 45 08	 add	 eax, DWORD PTR tv263[ebp]
  00048	6a 00		 push	 0
  0004a	56		 push	 esi
  0004b	81 c1 34 01 00
	00		 add	 ecx, 308		; 00000134H
  00051	51		 push	 ecx
  00052	57		 push	 edi
  00053	50		 push	 eax
  00054	8b cb		 mov	 ecx, ebx
  00056	e8 00 00 00 00	 call	 ?AddNewBuff@ioBaseChar@@QAEPAVioBuff@@ABVioHashString@@00PAVioSkill@@_N@Z ; ioBaseChar::AddNewBuff
  0005b	50		 push	 eax
  0005c	e8 00 00 00 00	 call	 ?ToDummyBuff@@YAPAVioDummyBuff@@PAVioBuff@@@Z ; ToDummyBuff
  00061	59		 pop	 ecx

; 701  : 		if( pBuff )	

  00062	85 c0		 test	 eax, eax
  00064	74 09		 je	 SHORT $LN3@AddOwnerBu

; 702  : 			pBuff->SetWeaponDeadIndex( m_dwWeaponBaseIndex );

  00066	8b 4e 78	 mov	 ecx, DWORD PTR [esi+120]
  00069	89 88 2c 0a 00
	00		 mov	 DWORD PTR [eax+2604], ecx
$LN3@AddOwnerBu:

; 698  : 	for( int i = 0; i < iCnt; ++i )

  0006f	83 45 08 14	 add	 DWORD PTR tv263[ebp], 20 ; 00000014H
  00073	ff 4d fc	 dec	 DWORD PTR tv178[ebp]
  00076	75 c1		 jne	 SHORT $LL25@AddOwnerBu
  00078	5f		 pop	 edi
$LN2@AddOwnerBu:
  00079	5e		 pop	 esi
  0007a	5b		 pop	 ebx

; 703  : 	}
; 704  : }

  0007b	c9		 leave
  0007c	c2 04 00	 ret	 4
?AddOwnerBuff@ioCircleMoveWeaponSkill@@IAEXPAVioBaseChar@@@Z ENDP ; ioCircleMoveWeaponSkill::AddOwnerBuff
_TEXT	ENDS
PUBLIC	?CheckUseBuff@ioCircleMoveWeaponSkill@@MAE_NPAVioBaseChar@@@Z ; ioCircleMoveWeaponSkill::CheckUseBuff
EXTRN	?HasBuff@ioBaseChar@@QBE_NABVioHashString@@@Z:PROC ; ioBaseChar::HasBuff
; Function compile flags: /Ogsp
;	COMDAT ?CheckUseBuff@ioCircleMoveWeaponSkill@@MAE_NPAVioBaseChar@@@Z
_TEXT	SEGMENT
_i$570110 = -4						; size = 4
_pChar$ = 8						; size = 4
?CheckUseBuff@ioCircleMoveWeaponSkill@@MAE_NPAVioBaseChar@@@Z PROC ; ioCircleMoveWeaponSkill::CheckUseBuff, COMDAT
; _this$ = ecx

; 707  : {

  00000	55		 push	 ebp
  00001	8b ec		 mov	 ebp, esp
  00003	51		 push	 ecx
  00004	53		 push	 ebx
  00005	56		 push	 esi
  00006	8b f1		 mov	 esi, ecx

; 708  : 	int iCnt = m_OwnerBuffList.size();

  00008	8b 86 18 11 00
	00		 mov	 eax, DWORD PTR [esi+4376]
  0000e	2b 86 14 11 00
	00		 sub	 eax, DWORD PTR [esi+4372]
  00014	57		 push	 edi
  00015	6a 14		 push	 20			; 00000014H
  00017	99		 cdq
  00018	59		 pop	 ecx
  00019	f7 f9		 idiv	 ecx

; 709  : 	for( int i=0; i < iCnt; ++i )

  0001b	33 ff		 xor	 edi, edi
  0001d	89 7d fc	 mov	 DWORD PTR _i$570110[ebp], edi
  00020	8b d8		 mov	 ebx, eax
  00022	3b df		 cmp	 ebx, edi
  00024	7e 20		 jle	 SHORT $LN2@CheckUseBu
$LL4@CheckUseBu:

; 710  : 	{
; 711  : 		if( pChar->HasBuff( m_OwnerBuffList[i].m_BuffName ) )

  00026	8b 86 14 11 00
	00		 mov	 eax, DWORD PTR [esi+4372]
  0002c	8b 4d 08	 mov	 ecx, DWORD PTR _pChar$[ebp]
  0002f	03 c7		 add	 eax, edi
  00031	50		 push	 eax
  00032	e8 00 00 00 00	 call	 ?HasBuff@ioBaseChar@@QBE_NABVioHashString@@@Z ; ioBaseChar::HasBuff
  00037	84 c0		 test	 al, al
  00039	75 14		 jne	 SHORT $LN12@CheckUseBu

; 709  : 	for( int i=0; i < iCnt; ++i )

  0003b	ff 45 fc	 inc	 DWORD PTR _i$570110[ebp]
  0003e	83 c7 14	 add	 edi, 20			; 00000014H
  00041	39 5d fc	 cmp	 DWORD PTR _i$570110[ebp], ebx
  00044	7c e0		 jl	 SHORT $LL4@CheckUseBu
$LN2@CheckUseBu:

; 713  : 	}
; 714  : 
; 715  : 	return false;

  00046	32 c0		 xor	 al, al
$LN5@CheckUseBu:
  00048	5f		 pop	 edi
  00049	5e		 pop	 esi
  0004a	5b		 pop	 ebx

; 716  : }

  0004b	c9		 leave
  0004c	c2 04 00	 ret	 4
$LN12@CheckUseBu:

; 712  : 			return true;

  0004f	b0 01		 mov	 al, 1
  00051	eb f5		 jmp	 SHORT $LN5@CheckUseBu
?CheckUseBuff@ioCircleMoveWeaponSkill@@MAE_NPAVioBaseChar@@@Z ENDP ; ioCircleMoveWeaponSkill::CheckUseBuff
_TEXT	ENDS
PUBLIC	??D?$CEncrypt@M@@QAEMABM@Z			; CEncrypt<float>::operator*
; Function compile flags: /Ogsp
; File d:\lost saga for developer\youtube\tutorial\source\src\lsclient\encryptvalue.h
;	COMDAT ??D?$CEncrypt@M@@QAEMABM@Z
_TEXT	SEGMENT
_value$ = -4						; size = 4
tv130 = 8						; size = 4
_inValue$ = 8						; size = 4
??D?$CEncrypt@M@@QAEMABM@Z PROC				; CEncrypt<float>::operator*, COMDAT
; _this$ = ecx

; 1685 : 	{	

  00000	55		 push	 ebp
  00001	8b ec		 mov	 ebp, esp
  00003	51		 push	 ecx

; 1686 : 		type value;
; 1687 : 		DecryptValueToPool(&value);

  00004	8d 45 fc	 lea	 eax, DWORD PTR _value$[ebp]
  00007	50		 push	 eax
  00008	e8 00 00 00 00	 call	 ?DecryptValueToPool@?$CEncrypt@M@@QAEXPAM@Z ; CEncrypt<float>::DecryptValueToPool

; 1688 : #ifdef _NOTUSE
; 1689 : 		Debug();
; 1690 : #endif
; 1691 : 		return value * inValue;

  0000d	8b 45 08	 mov	 eax, DWORD PTR _inValue$[ebp]
  00010	d9 00		 fld	 DWORD PTR [eax]
  00012	d8 4d fc	 fmul	 DWORD PTR _value$[ebp]
  00015	d9 5d 08	 fstp	 DWORD PTR tv130[ebp]
  00018	d9 45 08	 fld	 DWORD PTR tv130[ebp]

; 1692 : 	}

  0001b	c9		 leave
  0001c	c2 04 00	 ret	 4
??D?$CEncrypt@M@@QAEMABM@Z ENDP				; CEncrypt<float>::operator*
_TEXT	ENDS
PUBLIC	??H?$CEncrypt@K@@QAEKABM@Z			; CEncrypt<unsigned long>::operator+
EXTRN	__ftol2:PROC
; Function compile flags: /Ogsp
;	COMDAT ??H?$CEncrypt@K@@QAEKABM@Z
_TEXT	SEGMENT
tv129 = -4						; size = 4
_value$ = -4						; size = 4
_inValue$ = 8						; size = 4
??H?$CEncrypt@K@@QAEKABM@Z PROC				; CEncrypt<unsigned long>::operator+, COMDAT
; _this$ = ecx

; 1675 : 	{	

  00000	55		 push	 ebp
  00001	8b ec		 mov	 ebp, esp
  00003	51		 push	 ecx

; 1676 : 		type value;
; 1677 : 		DecryptValueToPool(&value);

  00004	8d 45 fc	 lea	 eax, DWORD PTR _value$[ebp]
  00007	50		 push	 eax
  00008	e8 00 00 00 00	 call	 ?DecryptValueToPool@?$CEncrypt@K@@QAEXPAK@Z ; CEncrypt<unsigned long>::DecryptValueToPool

; 1678 : #ifdef _NOTUSE
; 1679 : 		Debug();
; 1680 : #endif
; 1681 : 		return value + inValue;

  0000d	db 45 fc	 fild	 DWORD PTR _value$[ebp]
  00010	8b 45 fc	 mov	 eax, DWORD PTR _value$[ebp]
  00013	85 c0		 test	 eax, eax
  00015	79 06		 jns	 SHORT $LN3@operator
  00017	d8 05 00 00 00
	00		 fadd	 DWORD PTR __real@4f800000
$LN3@operator:
  0001d	8b 45 08	 mov	 eax, DWORD PTR _inValue$[ebp]
  00020	d8 00		 fadd	 DWORD PTR [eax]
  00022	e8 00 00 00 00	 call	 __ftol2

; 1682 : 	}

  00027	c9		 leave
  00028	c2 04 00	 ret	 4
??H?$CEncrypt@K@@QAEKABM@Z ENDP				; CEncrypt<unsigned long>::operator+
_TEXT	ENDS
PUBLIC	??9?$CEncrypt@H@@QAE_NABH@Z			; CEncrypt<int>::operator!=
; Function compile flags: /Ogsp
;	COMDAT ??9?$CEncrypt@H@@QAE_NABH@Z
_TEXT	SEGMENT
_value$ = -4						; size = 4
_inValue$ = 8						; size = 4
??9?$CEncrypt@H@@QAE_NABH@Z PROC			; CEncrypt<int>::operator!=, COMDAT
; _this$ = ecx

; 998  : 	{

  00000	55		 push	 ebp
  00001	8b ec		 mov	 ebp, esp
  00003	51		 push	 ecx

; 999  : 		
; 1000 : 		type value;
; 1001 : 		DecryptValueToPool(&value);

  00004	8d 45 fc	 lea	 eax, DWORD PTR _value$[ebp]
  00007	50		 push	 eax
  00008	e8 00 00 00 00	 call	 ?DecryptValueToPool@?$CEncrypt@H@@QAEXPAH@Z ; CEncrypt<int>::DecryptValueToPool

; 1002 : #ifdef _NOTUSE
; 1003 : 		Debug();
; 1004 : #endif
; 1005 : 		return (value != inValue);

  0000d	8b 4d 08	 mov	 ecx, DWORD PTR _inValue$[ebp]
  00010	8b 55 fc	 mov	 edx, DWORD PTR _value$[ebp]
  00013	33 c0		 xor	 eax, eax
  00015	3b 11		 cmp	 edx, DWORD PTR [ecx]
  00017	0f 95 c0	 setne	 al

; 1006 : 	} 		

  0001a	c9		 leave
  0001b	c2 04 00	 ret	 4
??9?$CEncrypt@H@@QAE_NABH@Z ENDP			; CEncrypt<int>::operator!=
_TEXT	ENDS
PUBLIC	?begin@?$vector@UWeaponInfo@@V?$allocator@UWeaponInfo@@@std@@@std@@QBE?AV?$_Vector_const_iterator@V?$_Vector_val@UWeaponInfo@@V?$allocator@UWeaponInfo@@@std@@@std@@@2@XZ ; std::vector<WeaponInfo,std::allocator<WeaponInfo> >::begin
; Function compile flags: /Ogsp
; File c:\program files (x86)\microsoft visual studio 10.0\vc\include\vector
;	COMDAT ?begin@?$vector@UWeaponInfo@@V?$allocator@UWeaponInfo@@@std@@@std@@QBE?AV?$_Vector_const_iterator@V?$_Vector_val@UWeaponInfo@@V?$allocator@UWeaponInfo@@@std@@@std@@@2@XZ
_TEXT	SEGMENT
___$ReturnUdt$ = 8					; size = 4
?begin@?$vector@UWeaponInfo@@V?$allocator@UWeaponInfo@@@std@@@std@@QBE?AV?$_Vector_const_iterator@V?$_Vector_val@UWeaponInfo@@V?$allocator@UWeaponInfo@@@std@@@std@@@2@XZ PROC ; std::vector<WeaponInfo,std::allocator<WeaponInfo> >::begin, COMDAT
; _this$ = ecx

; 786  : 		{	// return iterator for beginning of nonmutable sequence

  00000	55		 push	 ebp
  00001	8b ec		 mov	 ebp, esp

; 787  : 		return (const_iterator(this->_Myfirst, this));

  00003	8b 09		 mov	 ecx, DWORD PTR [ecx]
  00005	8b 45 08	 mov	 eax, DWORD PTR ___$ReturnUdt$[ebp]
  00008	89 08		 mov	 DWORD PTR [eax], ecx

; 788  : 		}

  0000a	5d		 pop	 ebp
  0000b	c2 04 00	 ret	 4
?begin@?$vector@UWeaponInfo@@V?$allocator@UWeaponInfo@@@std@@@std@@QBE?AV?$_Vector_const_iterator@V?$_Vector_val@UWeaponInfo@@V?$allocator@UWeaponInfo@@@std@@@std@@@2@XZ ENDP ; std::vector<WeaponInfo,std::allocator<WeaponInfo> >::begin
_TEXT	ENDS
PUBLIC	?end@?$vector@UWeaponInfo@@V?$allocator@UWeaponInfo@@@std@@@std@@QBE?AV?$_Vector_const_iterator@V?$_Vector_val@UWeaponInfo@@V?$allocator@UWeaponInfo@@@std@@@std@@@2@XZ ; std::vector<WeaponInfo,std::allocator<WeaponInfo> >::end
; Function compile flags: /Ogsp
;	COMDAT ?end@?$vector@UWeaponInfo@@V?$allocator@UWeaponInfo@@@std@@@std@@QBE?AV?$_Vector_const_iterator@V?$_Vector_val@UWeaponInfo@@V?$allocator@UWeaponInfo@@@std@@@std@@@2@XZ
_TEXT	SEGMENT
___$ReturnUdt$ = 8					; size = 4
?end@?$vector@UWeaponInfo@@V?$allocator@UWeaponInfo@@@std@@@std@@QBE?AV?$_Vector_const_iterator@V?$_Vector_val@UWeaponInfo@@V?$allocator@UWeaponInfo@@@std@@@std@@@2@XZ PROC ; std::vector<WeaponInfo,std::allocator<WeaponInfo> >::end, COMDAT
; _this$ = ecx

; 796  : 		{	// return iterator for end of nonmutable sequence

  00000	55		 push	 ebp
  00001	8b ec		 mov	 ebp, esp

; 797  : 		return (const_iterator(this->_Mylast, this));

  00003	8b 49 04	 mov	 ecx, DWORD PTR [ecx+4]
  00006	8b 45 08	 mov	 eax, DWORD PTR ___$ReturnUdt$[ebp]
  00009	89 08		 mov	 DWORD PTR [eax], ecx

; 798  : 		}

  0000b	5d		 pop	 ebp
  0000c	c2 04 00	 ret	 4
?end@?$vector@UWeaponInfo@@V?$allocator@UWeaponInfo@@@std@@@std@@QBE?AV?$_Vector_const_iterator@V?$_Vector_val@UWeaponInfo@@V?$allocator@UWeaponInfo@@@std@@@std@@@2@XZ ENDP ; std::vector<WeaponInfo,std::allocator<WeaponInfo> >::end
_TEXT	ENDS
PUBLIC	?begin@?$vector@UForceInfo@@V?$allocator@UForceInfo@@@std@@@std@@QBE?AV?$_Vector_const_iterator@V?$_Vector_val@UForceInfo@@V?$allocator@UForceInfo@@@std@@@std@@@2@XZ ; std::vector<ForceInfo,std::allocator<ForceInfo> >::begin
; Function compile flags: /Ogsp
;	COMDAT ?begin@?$vector@UForceInfo@@V?$allocator@UForceInfo@@@std@@@std@@QBE?AV?$_Vector_const_iterator@V?$_Vector_val@UForceInfo@@V?$allocator@UForceInfo@@@std@@@std@@@2@XZ
_TEXT	SEGMENT
___$ReturnUdt$ = 8					; size = 4
?begin@?$vector@UForceInfo@@V?$allocator@UForceInfo@@@std@@@std@@QBE?AV?$_Vector_const_iterator@V?$_Vector_val@UForceInfo@@V?$allocator@UForceInfo@@@std@@@std@@@2@XZ PROC ; std::vector<ForceInfo,std::allocator<ForceInfo> >::begin, COMDAT
; _this$ = ecx

; 786  : 		{	// return iterator for beginning of nonmutable sequence

  00000	55		 push	 ebp
  00001	8b ec		 mov	 ebp, esp

; 787  : 		return (const_iterator(this->_Myfirst, this));

  00003	8b 09		 mov	 ecx, DWORD PTR [ecx]
  00005	8b 45 08	 mov	 eax, DWORD PTR ___$ReturnUdt$[ebp]
  00008	89 08		 mov	 DWORD PTR [eax], ecx

; 788  : 		}

  0000a	5d		 pop	 ebp
  0000b	c2 04 00	 ret	 4
?begin@?$vector@UForceInfo@@V?$allocator@UForceInfo@@@std@@@std@@QBE?AV?$_Vector_const_iterator@V?$_Vector_val@UForceInfo@@V?$allocator@UForceInfo@@@std@@@std@@@2@XZ ENDP ; std::vector<ForceInfo,std::allocator<ForceInfo> >::begin
_TEXT	ENDS
PUBLIC	?end@?$vector@UForceInfo@@V?$allocator@UForceInfo@@@std@@@std@@QBE?AV?$_Vector_const_iterator@V?$_Vector_val@UForceInfo@@V?$allocator@UForceInfo@@@std@@@std@@@2@XZ ; std::vector<ForceInfo,std::allocator<ForceInfo> >::end
; Function compile flags: /Ogsp
;	COMDAT ?end@?$vector@UForceInfo@@V?$allocator@UForceInfo@@@std@@@std@@QBE?AV?$_Vector_const_iterator@V?$_Vector_val@UForceInfo@@V?$allocator@UForceInfo@@@std@@@std@@@2@XZ
_TEXT	SEGMENT
___$ReturnUdt$ = 8					; size = 4
?end@?$vector@UForceInfo@@V?$allocator@UForceInfo@@@std@@@std@@QBE?AV?$_Vector_const_iterator@V?$_Vector_val@UForceInfo@@V?$allocator@UForceInfo@@@std@@@std@@@2@XZ PROC ; std::vector<ForceInfo,std::allocator<ForceInfo> >::end, COMDAT
; _this$ = ecx

; 796  : 		{	// return iterator for end of nonmutable sequence

  00000	55		 push	 ebp
  00001	8b ec		 mov	 ebp, esp

; 797  : 		return (const_iterator(this->_Mylast, this));

  00003	8b 49 04	 mov	 ecx, DWORD PTR [ecx+4]
  00006	8b 45 08	 mov	 eax, DWORD PTR ___$ReturnUdt$[ebp]
  00009	89 08		 mov	 DWORD PTR [eax], ecx

; 798  : 		}

  0000b	5d		 pop	 ebp
  0000c	c2 04 00	 ret	 4
?end@?$vector@UForceInfo@@V?$allocator@UForceInfo@@@std@@@std@@QBE?AV?$_Vector_const_iterator@V?$_Vector_val@UForceInfo@@V?$allocator@UForceInfo@@@std@@@std@@@2@XZ ENDP ; std::vector<ForceInfo,std::allocator<ForceInfo> >::end
_TEXT	ENDS
PUBLIC	?begin@?$vector@UBuffInfoStruct@@V?$allocator@UBuffInfoStruct@@@std@@@std@@QBE?AV?$_Vector_const_iterator@V?$_Vector_val@UBuffInfoStruct@@V?$allocator@UBuffInfoStruct@@@std@@@std@@@2@XZ ; std::vector<BuffInfoStruct,std::allocator<BuffInfoStruct> >::begin
; Function compile flags: /Ogsp
;	COMDAT ?begin@?$vector@UBuffInfoStruct@@V?$allocator@UBuffInfoStruct@@@std@@@std@@QBE?AV?$_Vector_const_iterator@V?$_Vector_val@UBuffInfoStruct@@V?$allocator@UBuffInfoStruct@@@std@@@std@@@2@XZ
_TEXT	SEGMENT
___$ReturnUdt$ = 8					; size = 4
?begin@?$vector@UBuffInfoStruct@@V?$allocator@UBuffInfoStruct@@@std@@@std@@QBE?AV?$_Vector_const_iterator@V?$_Vector_val@UBuffInfoStruct@@V?$allocator@UBuffInfoStruct@@@std@@@std@@@2@XZ PROC ; std::vector<BuffInfoStruct,std::allocator<BuffInfoStruct> >::begin, COMDAT
; _this$ = ecx

; 786  : 		{	// return iterator for beginning of nonmutable sequence

  00000	55		 push	 ebp
  00001	8b ec		 mov	 ebp, esp

; 787  : 		return (const_iterator(this->_Myfirst, this));

  00003	8b 09		 mov	 ecx, DWORD PTR [ecx]
  00005	8b 45 08	 mov	 eax, DWORD PTR ___$ReturnUdt$[ebp]
  00008	89 08		 mov	 DWORD PTR [eax], ecx

; 788  : 		}

  0000a	5d		 pop	 ebp
  0000b	c2 04 00	 ret	 4
?begin@?$vector@UBuffInfoStruct@@V?$allocator@UBuffInfoStruct@@@std@@@std@@QBE?AV?$_Vector_const_iterator@V?$_Vector_val@UBuffInfoStruct@@V?$allocator@UBuffInfoStruct@@@std@@@std@@@2@XZ ENDP ; std::vector<BuffInfoStruct,std::allocator<BuffInfoStruct> >::begin
_TEXT	ENDS
PUBLIC	?end@?$vector@UBuffInfoStruct@@V?$allocator@UBuffInfoStruct@@@std@@@std@@QBE?AV?$_Vector_const_iterator@V?$_Vector_val@UBuffInfoStruct@@V?$allocator@UBuffInfoStruct@@@std@@@std@@@2@XZ ; std::vector<BuffInfoStruct,std::allocator<BuffInfoStruct> >::end
; Function compile flags: /Ogsp
;	COMDAT ?end@?$vector@UBuffInfoStruct@@V?$allocator@UBuffInfoStruct@@@std@@@std@@QBE?AV?$_Vector_const_iterator@V?$_Vector_val@UBuffInfoStruct@@V?$allocator@UBuffInfoStruct@@@std@@@std@@@2@XZ
_TEXT	SEGMENT
___$ReturnUdt$ = 8					; size = 4
?end@?$vector@UBuffInfoStruct@@V?$allocator@UBuffInfoStruct@@@std@@@std@@QBE?AV?$_Vector_const_iterator@V?$_Vector_val@UBuffInfoStruct@@V?$allocator@UBuffInfoStruct@@@std@@@std@@@2@XZ PROC ; std::vector<BuffInfoStruct,std::allocator<BuffInfoStruct> >::end, COMDAT
; _this$ = ecx

; 796  : 		{	// return iterator for end of nonmutable sequence

  00000	55		 push	 ebp
  00001	8b ec		 mov	 ebp, esp

; 797  : 		return (const_iterator(this->_Mylast, this));

  00003	8b 49 04	 mov	 ecx, DWORD PTR [ecx+4]
  00006	8b 45 08	 mov	 eax, DWORD PTR ___$ReturnUdt$[ebp]
  00009	89 08		 mov	 DWORD PTR [eax], ecx

; 798  : 		}

  0000b	5d		 pop	 ebp
  0000c	c2 04 00	 ret	 4
?end@?$vector@UBuffInfoStruct@@V?$allocator@UBuffInfoStruct@@@std@@@std@@QBE?AV?$_Vector_const_iterator@V?$_Vector_val@UBuffInfoStruct@@V?$allocator@UBuffInfoStruct@@@std@@@std@@@2@XZ ENDP ; std::vector<BuffInfoStruct,std::allocator<BuffInfoStruct> >::end
_TEXT	ENDS
PUBLIC	??0?$_Vector_val@UWeaponMoveInfo@@V?$allocator@UWeaponMoveInfo@@@std@@@std@@QAE@V?$allocator@UWeaponMoveInfo@@@1@@Z ; std::_Vector_val<WeaponMoveInfo,std::allocator<WeaponMoveInfo> >::_Vector_val<WeaponMoveInfo,std::allocator<WeaponMoveInfo> >
; Function compile flags: /Ogsp
;	COMDAT ??0?$_Vector_val@UWeaponMoveInfo@@V?$allocator@UWeaponMoveInfo@@@std@@@std@@QAE@V?$allocator@UWeaponMoveInfo@@@1@@Z
_TEXT	SEGMENT
__Al$ = 8						; size = 1
??0?$_Vector_val@UWeaponMoveInfo@@V?$allocator@UWeaponMoveInfo@@@std@@@std@@QAE@V?$allocator@UWeaponMoveInfo@@@1@@Z PROC ; std::_Vector_val<WeaponMoveInfo,std::allocator<WeaponMoveInfo> >::_Vector_val<WeaponMoveInfo,std::allocator<WeaponMoveInfo> >, COMDAT
; _this$ = ecx

; 426  : 		{	// construct allocator from _Al

  00000	8b c1		 mov	 eax, ecx

; 427  : 		_Myfirst = 0;

  00002	33 c9		 xor	 ecx, ecx
  00004	89 08		 mov	 DWORD PTR [eax], ecx

; 428  : 		_Mylast = 0;

  00006	89 48 04	 mov	 DWORD PTR [eax+4], ecx

; 429  : 		_Myend = 0;

  00009	89 48 08	 mov	 DWORD PTR [eax+8], ecx

; 430  : 		}

  0000c	c2 04 00	 ret	 4
??0?$_Vector_val@UWeaponMoveInfo@@V?$allocator@UWeaponMoveInfo@@@std@@@std@@QAE@V?$allocator@UWeaponMoveInfo@@@1@@Z ENDP ; std::_Vector_val<WeaponMoveInfo,std::allocator<WeaponMoveInfo> >::_Vector_val<WeaponMoveInfo,std::allocator<WeaponMoveInfo> >
_TEXT	ENDS
PUBLIC	?max_size@?$vector@UWeaponMoveInfo@@V?$allocator@UWeaponMoveInfo@@@std@@@std@@QBEIXZ ; std::vector<WeaponMoveInfo,std::allocator<WeaponMoveInfo> >::max_size
; Function compile flags: /Ogsp
;	COMDAT ?max_size@?$vector@UWeaponMoveInfo@@V?$allocator@UWeaponMoveInfo@@@std@@@std@@QBEIXZ
_TEXT	SEGMENT
?max_size@?$vector@UWeaponMoveInfo@@V?$allocator@UWeaponMoveInfo@@@std@@@std@@QBEIXZ PROC ; std::vector<WeaponMoveInfo,std::allocator<WeaponMoveInfo> >::max_size, COMDAT
; _this$ = ecx

; 884  : 		return (this->_Alval.max_size());

  00000	b8 cc cc cc 0c	 mov	 eax, 214748364		; 0cccccccH

; 885  : 		}

  00005	c3		 ret	 0
?max_size@?$vector@UWeaponMoveInfo@@V?$allocator@UWeaponMoveInfo@@@std@@@std@@QBEIXZ ENDP ; std::vector<WeaponMoveInfo,std::allocator<WeaponMoveInfo> >::max_size
_TEXT	ENDS
PUBLIC	?_Grow_to@?$vector@UWeaponMoveInfo@@V?$allocator@UWeaponMoveInfo@@@std@@@std@@IBEII@Z ; std::vector<WeaponMoveInfo,std::allocator<WeaponMoveInfo> >::_Grow_to
; Function compile flags: /Ogsp
;	COMDAT ?_Grow_to@?$vector@UWeaponMoveInfo@@V?$allocator@UWeaponMoveInfo@@@std@@@std@@IBEII@Z
_TEXT	SEGMENT
__Count$ = 8						; size = 4
?_Grow_to@?$vector@UWeaponMoveInfo@@V?$allocator@UWeaponMoveInfo@@@std@@@std@@IBEII@Z PROC ; std::vector<WeaponMoveInfo,std::allocator<WeaponMoveInfo> >::_Grow_to, COMDAT
; _this$ = ecx

; 1274 : 		{	// grow by 50% or at least to _Count

  00000	55		 push	 ebp
  00001	8b ec		 mov	 ebp, esp

; 1275 : 		size_type _Capacity = capacity();

  00003	8b 41 08	 mov	 eax, DWORD PTR [ecx+8]
  00006	2b 01		 sub	 eax, DWORD PTR [ecx]
  00008	6a 14		 push	 20			; 00000014H
  0000a	99		 cdq
  0000b	59		 pop	 ecx
  0000c	f7 f9		 idiv	 ecx

; 1276 : 
; 1277 : 		_Capacity = max_size() - _Capacity / 2 < _Capacity
; 1278 : 			? 0 : _Capacity + _Capacity / 2;	// try to grow by 50%

  0000e	ba cc cc cc 0c	 mov	 edx, 214748364		; 0cccccccH
  00013	8b c8		 mov	 ecx, eax
  00015	d1 e9		 shr	 ecx, 1
  00017	2b d1		 sub	 edx, ecx
  00019	3b d0		 cmp	 edx, eax
  0001b	73 04		 jae	 SHORT $LN4@Grow_to
  0001d	33 c0		 xor	 eax, eax
  0001f	eb 02		 jmp	 SHORT $LN5@Grow_to
$LN4@Grow_to:
  00021	03 c1		 add	 eax, ecx
$LN5@Grow_to:

; 1279 : 		if (_Capacity < _Count)

  00023	3b 45 08	 cmp	 eax, DWORD PTR __Count$[ebp]

; 1280 : 			_Capacity = _Count;

  00026	0f 42 45 08	 cmovb	 eax, DWORD PTR __Count$[ebp]

; 1281 : 		return (_Capacity);
; 1282 : 		}

  0002a	5d		 pop	 ebp
  0002b	c2 04 00	 ret	 4
?_Grow_to@?$vector@UWeaponMoveInfo@@V?$allocator@UWeaponMoveInfo@@@std@@@std@@IBEII@Z ENDP ; std::vector<WeaponMoveInfo,std::allocator<WeaponMoveInfo> >::_Grow_to
_TEXT	ENDS
PUBLIC	??0?$_Vector_iterator@V?$_Vector_val@UWeaponMoveInfo@@V?$allocator@UWeaponMoveInfo@@@std@@@std@@@std@@QAE@PAUWeaponMoveInfo@@PBU_Container_base0@1@@Z ; std::_Vector_iterator<std::_Vector_val<WeaponMoveInfo,std::allocator<WeaponMoveInfo> > >::_Vector_iterator<std::_Vector_val<WeaponMoveInfo,std::allocator<WeaponMoveInfo> > >
; Function compile flags: /Ogsp
;	COMDAT ??0?$_Vector_iterator@V?$_Vector_val@UWeaponMoveInfo@@V?$allocator@UWeaponMoveInfo@@@std@@@std@@@std@@QAE@PAUWeaponMoveInfo@@PBU_Container_base0@1@@Z
_TEXT	SEGMENT
__Parg$ = 8						; size = 4
__Pvector$ = 12						; size = 4
??0?$_Vector_iterator@V?$_Vector_val@UWeaponMoveInfo@@V?$allocator@UWeaponMoveInfo@@@std@@@std@@@std@@QAE@PAUWeaponMoveInfo@@PBU_Container_base0@1@@Z PROC ; std::_Vector_iterator<std::_Vector_val<WeaponMoveInfo,std::allocator<WeaponMoveInfo> > >::_Vector_iterator<std::_Vector_val<WeaponMoveInfo,std::allocator<WeaponMoveInfo> > >, COMDAT
; _this$ = ecx

; 304  : 		{	// construct with pointer _Parg

  00000	55		 push	 ebp
  00001	8b ec		 mov	 ebp, esp
  00003	8b c1		 mov	 eax, ecx
  00005	8b 4d 08	 mov	 ecx, DWORD PTR __Parg$[ebp]
  00008	89 08		 mov	 DWORD PTR [eax], ecx

; 305  : 		}

  0000a	5d		 pop	 ebp
  0000b	c2 08 00	 ret	 8
??0?$_Vector_iterator@V?$_Vector_val@UWeaponMoveInfo@@V?$allocator@UWeaponMoveInfo@@@std@@@std@@@std@@QAE@PAUWeaponMoveInfo@@PBU_Container_base0@1@@Z ENDP ; std::_Vector_iterator<std::_Vector_val<WeaponMoveInfo,std::allocator<WeaponMoveInfo> > >::_Vector_iterator<std::_Vector_val<WeaponMoveInfo,std::allocator<WeaponMoveInfo> > >
_TEXT	ENDS
PUBLIC	?allocate@?$allocator@UWeaponMoveInfo@@@std@@QAEPAUWeaponMoveInfo@@I@Z ; std::allocator<WeaponMoveInfo>::allocate
; Function compile flags: /Ogsp
; File c:\program files (x86)\microsoft visual studio 10.0\vc\include\xmemory
;	COMDAT ?allocate@?$allocator@UWeaponMoveInfo@@@std@@QAEPAUWeaponMoveInfo@@I@Z
_TEXT	SEGMENT
__Count$ = 8						; size = 4
?allocate@?$allocator@UWeaponMoveInfo@@@std@@QAEPAUWeaponMoveInfo@@I@Z PROC ; std::allocator<WeaponMoveInfo>::allocate, COMDAT
; _this$ = ecx

; 186  : 		{	// allocate array of _Count elements

  00000	55		 push	 ebp
  00001	8b ec		 mov	 ebp, esp

; 187  : 		return (_Allocate(_Count, (pointer)0));

  00003	6a 00		 push	 0
  00005	ff 75 08	 push	 DWORD PTR __Count$[ebp]
  00008	e8 00 00 00 00	 call	 ??$_Allocate@UWeaponMoveInfo@@@std@@YAPAUWeaponMoveInfo@@IPAU1@@Z ; std::_Allocate<WeaponMoveInfo>
  0000d	59		 pop	 ecx
  0000e	59		 pop	 ecx

; 188  : 		}

  0000f	5d		 pop	 ebp
  00010	c2 04 00	 ret	 4
?allocate@?$allocator@UWeaponMoveInfo@@@std@@QAEPAUWeaponMoveInfo@@I@Z ENDP ; std::allocator<WeaponMoveInfo>::allocate
_TEXT	ENDS
PUBLIC	??8?$_Vector_const_iterator@V?$_Vector_val@UWeaponMoveInfo@@V?$allocator@UWeaponMoveInfo@@@std@@@std@@@std@@QBE_NABV01@@Z ; std::_Vector_const_iterator<std::_Vector_val<WeaponMoveInfo,std::allocator<WeaponMoveInfo> > >::operator==
; Function compile flags: /Ogsp
; File c:\program files (x86)\microsoft visual studio 10.0\vc\include\vector
;	COMDAT ??8?$_Vector_const_iterator@V?$_Vector_val@UWeaponMoveInfo@@V?$allocator@UWeaponMoveInfo@@@std@@@std@@@std@@QBE_NABV01@@Z
_TEXT	SEGMENT
__Right$ = 8						; size = 4
??8?$_Vector_const_iterator@V?$_Vector_val@UWeaponMoveInfo@@V?$allocator@UWeaponMoveInfo@@@std@@@std@@@std@@QBE_NABV01@@Z PROC ; std::_Vector_const_iterator<std::_Vector_val<WeaponMoveInfo,std::allocator<WeaponMoveInfo> > >::operator==, COMDAT
; _this$ = ecx

; 201  : 		{	// test for iterator equality

  00000	55		 push	 ebp
  00001	8b ec		 mov	 ebp, esp

; 202  : 		_Compat(_Right);
; 203  : 		return (this->_Ptr == _Right._Ptr);

  00003	8b 01		 mov	 eax, DWORD PTR [ecx]
  00005	8b 4d 08	 mov	 ecx, DWORD PTR __Right$[ebp]
  00008	2b 01		 sub	 eax, DWORD PTR [ecx]
  0000a	f7 d8		 neg	 eax
  0000c	1b c0		 sbb	 eax, eax
  0000e	40		 inc	 eax

; 204  : 		}

  0000f	5d		 pop	 ebp
  00010	c2 04 00	 ret	 4
??8?$_Vector_const_iterator@V?$_Vector_val@UWeaponMoveInfo@@V?$allocator@UWeaponMoveInfo@@@std@@@std@@@std@@QBE_NABV01@@Z ENDP ; std::_Vector_const_iterator<std::_Vector_val<WeaponMoveInfo,std::allocator<WeaponMoveInfo> > >::operator==
_TEXT	ENDS
PUBLIC	__$ArrayPad$
PUBLIC	??$LoadFloat_e@$0BD@@ioINILoader@@QAEMAAY0BD@$$CBDM@Z ; ioINILoader::LoadFloat_e<19>
EXTRN	__imp_?LoadFloat@ioINILoader@@QAEMPBDM@Z:PROC
; Function compile flags: /Ogsp
; File d:\lost saga for developer\youtube\tutorial\source\src\io3dengine\ioiniloader.h
;	COMDAT ??$LoadFloat_e@$0BD@@ioINILoader@@QAEMAAY0BD@$$CBDM@Z
_TEXT	SEGMENT
__k$ = -28						; size = 19
__$ArrayPad$ = -4					; size = 4
_k$ = 8							; size = 4
_f$ = 12						; size = 4
??$LoadFloat_e@$0BD@@ioINILoader@@QAEMAAY0BD@$$CBDM@Z PROC ; ioINILoader::LoadFloat_e<19>, COMDAT
; _this$ = ecx

; 135  : 	{

  00000	55		 push	 ebp
  00001	8b ec		 mov	 ebp, esp
  00003	83 ec 1c	 sub	 esp, 28			; 0000001cH
  00006	a1 00 00 00 00	 mov	 eax, DWORD PTR ___security_cookie
  0000b	33 c5		 xor	 eax, ebp
  0000d	89 45 fc	 mov	 DWORD PTR __$ArrayPad$[ebp], eax
  00010	8b 45 08	 mov	 eax, DWORD PTR _k$[ebp]

; 136  : 		_ENCSTR(k, _k);

  00013	8a 10		 mov	 dl, BYTE PTR [eax]
  00015	56		 push	 esi
  00016	8b f1		 mov	 esi, ecx
  00018	84 d2		 test	 dl, dl
  0001a	0f 84 cf 01 00
	00		 je	 $LN96@LoadFloat_
  00020	80 f2 ed	 xor	 dl, -19			; ffffffedH
  00023	88 55 e4	 mov	 BYTE PTR __k$[ebp], dl
  00026	8a 50 01	 mov	 dl, BYTE PTR [eax+1]
  00029	84 d2		 test	 dl, dl
  0002b	0f 84 b8 01 00
	00		 je	 $LN95@LoadFloat_
  00031	b1 ec		 mov	 cl, -20			; ffffffecH
  00033	32 d1		 xor	 dl, cl
  00035	88 55 e5	 mov	 BYTE PTR __k$[ebp+1], dl
  00038	8a 50 02	 mov	 dl, BYTE PTR [eax+2]
  0003b	84 d2		 test	 dl, dl
  0003d	0f 84 a0 01 00
	00		 je	 $LN94@LoadFloat_
  00043	80 f2 eb	 xor	 dl, -21			; ffffffebH
  00046	88 55 e6	 mov	 BYTE PTR __k$[ebp+2], dl
  00049	8a 50 03	 mov	 dl, BYTE PTR [eax+3]
  0004c	84 d2		 test	 dl, dl
  0004e	0f 84 89 01 00
	00		 je	 $LN93@LoadFloat_
  00054	80 f2 ea	 xor	 dl, -22			; ffffffeaH
  00057	88 55 e7	 mov	 BYTE PTR __k$[ebp+3], dl
  0005a	8a 50 04	 mov	 dl, BYTE PTR [eax+4]
  0005d	84 d2		 test	 dl, dl
  0005f	0f 84 72 01 00
	00		 je	 $LN92@LoadFloat_
  00065	80 f2 ed	 xor	 dl, -19			; ffffffedH
  00068	88 55 e8	 mov	 BYTE PTR __k$[ebp+4], dl
  0006b	8a 50 05	 mov	 dl, BYTE PTR [eax+5]
  0006e	84 d2		 test	 dl, dl
  00070	0f 84 5c 01 00
	00		 je	 $LN91@LoadFloat_
  00076	32 d1		 xor	 dl, cl
  00078	88 55 e9	 mov	 BYTE PTR __k$[ebp+5], dl
  0007b	8a 50 06	 mov	 dl, BYTE PTR [eax+6]
  0007e	84 d2		 test	 dl, dl
  00080	0f 84 46 01 00
	00		 je	 $LN90@LoadFloat_
  00086	80 f2 eb	 xor	 dl, -21			; ffffffebH
  00089	88 55 ea	 mov	 BYTE PTR __k$[ebp+6], dl
  0008c	8a 50 07	 mov	 dl, BYTE PTR [eax+7]
  0008f	84 d2		 test	 dl, dl
  00091	0f 84 2f 01 00
	00		 je	 $LN89@LoadFloat_
  00097	80 f2 ea	 xor	 dl, -22			; ffffffeaH
  0009a	88 55 eb	 mov	 BYTE PTR __k$[ebp+7], dl
  0009d	8a 50 08	 mov	 dl, BYTE PTR [eax+8]
  000a0	84 d2		 test	 dl, dl
  000a2	0f 84 18 01 00
	00		 je	 $LN88@LoadFloat_
  000a8	80 f2 ed	 xor	 dl, -19			; ffffffedH
  000ab	88 55 ec	 mov	 BYTE PTR __k$[ebp+8], dl
  000ae	8a 50 09	 mov	 dl, BYTE PTR [eax+9]
  000b1	84 d2		 test	 dl, dl
  000b3	0f 84 02 01 00
	00		 je	 $LN87@LoadFloat_
  000b9	32 d1		 xor	 dl, cl
  000bb	88 55 ed	 mov	 BYTE PTR __k$[ebp+9], dl
  000be	8a 50 0a	 mov	 dl, BYTE PTR [eax+10]
  000c1	84 d2		 test	 dl, dl
  000c3	0f 84 ec 00 00
	00		 je	 $LN86@LoadFloat_
  000c9	80 f2 eb	 xor	 dl, -21			; ffffffebH
  000cc	88 55 ee	 mov	 BYTE PTR __k$[ebp+10], dl
  000cf	8a 50 0b	 mov	 dl, BYTE PTR [eax+11]
  000d2	84 d2		 test	 dl, dl
  000d4	0f 84 d5 00 00
	00		 je	 $LN85@LoadFloat_
  000da	80 f2 ea	 xor	 dl, -22			; ffffffeaH
  000dd	88 55 ef	 mov	 BYTE PTR __k$[ebp+11], dl
  000e0	8a 50 0c	 mov	 dl, BYTE PTR [eax+12]
  000e3	84 d2		 test	 dl, dl
  000e5	0f 84 be 00 00
	00		 je	 $LN84@LoadFloat_
  000eb	80 f2 ed	 xor	 dl, -19			; ffffffedH
  000ee	88 55 f0	 mov	 BYTE PTR __k$[ebp+12], dl
  000f1	8a 50 0d	 mov	 dl, BYTE PTR [eax+13]
  000f4	84 d2		 test	 dl, dl
  000f6	0f 84 a8 00 00
	00		 je	 $LN83@LoadFloat_
  000fc	32 d1		 xor	 dl, cl
  000fe	88 55 f1	 mov	 BYTE PTR __k$[ebp+13], dl
  00101	8a 50 0e	 mov	 dl, BYTE PTR [eax+14]
  00104	84 d2		 test	 dl, dl
  00106	0f 84 92 00 00
	00		 je	 $LN82@LoadFloat_
  0010c	80 f2 eb	 xor	 dl, -21			; ffffffebH
  0010f	88 55 f2	 mov	 BYTE PTR __k$[ebp+14], dl
  00112	8a 50 0f	 mov	 dl, BYTE PTR [eax+15]
  00115	84 d2		 test	 dl, dl
  00117	74 7f		 je	 SHORT $LN81@LoadFloat_
  00119	80 f2 ea	 xor	 dl, -22			; ffffffeaH
  0011c	88 55 f3	 mov	 BYTE PTR __k$[ebp+15], dl
  0011f	8a 50 10	 mov	 dl, BYTE PTR [eax+16]
  00122	84 d2		 test	 dl, dl
  00124	74 6c		 je	 SHORT $LN80@LoadFloat_
  00126	80 f2 ed	 xor	 dl, -19			; ffffffedH
  00129	88 55 f4	 mov	 BYTE PTR __k$[ebp+16], dl
  0012c	8a 50 11	 mov	 dl, BYTE PTR [eax+17]
  0012f	84 d2		 test	 dl, dl
  00131	74 5a		 je	 SHORT $LN79@LoadFloat_
  00133	32 d1		 xor	 dl, cl
  00135	80 78 12 00	 cmp	 BYTE PTR [eax+18], 0
  00139	88 55 f5	 mov	 BYTE PTR __k$[ebp+17], dl
  0013c	0f 84 b1 00 00
	00		 je	 $LN1@LoadFloat_
  00142	8a 50 13	 mov	 dl, BYTE PTR [eax+19]
  00145	84 d2		 test	 dl, dl
  00147	74 3e		 je	 SHORT $LN77@LoadFloat_
  00149	80 f2 ea	 xor	 dl, -22			; ffffffeaH
  0014c	88 55 f7	 mov	 BYTE PTR __k$[ebp+19], dl
  0014f	8a 50 14	 mov	 dl, BYTE PTR [eax+20]
  00152	84 d2		 test	 dl, dl
  00154	74 2b		 je	 SHORT $LN76@LoadFloat_
  00156	80 f2 ed	 xor	 dl, -19			; ffffffedH
  00159	88 55 f8	 mov	 BYTE PTR __k$[ebp+20], dl
  0015c	8a 50 15	 mov	 dl, BYTE PTR [eax+21]
  0015f	84 d2		 test	 dl, dl
  00161	74 19		 je	 SHORT $LN75@LoadFloat_
  00163	8a 40 16	 mov	 al, BYTE PTR [eax+22]
  00166	32 d1		 xor	 dl, cl
  00168	88 55 f9	 mov	 BYTE PTR __k$[ebp+21], dl
  0016b	84 c0		 test	 al, al
  0016d	74 07		 je	 SHORT $LN74@LoadFloat_
  0016f	34 eb		 xor	 al, -21			; ffffffebH
  00171	88 45 fa	 mov	 BYTE PTR __k$[ebp+22], al
  00174	eb 7d		 jmp	 SHORT $LN1@LoadFloat_
$LN74@LoadFloat_:
  00176	c6 45 fa eb	 mov	 BYTE PTR __k$[ebp+22], -21 ; ffffffebH
  0017a	eb 77		 jmp	 SHORT $LN1@LoadFloat_
$LN75@LoadFloat_:
  0017c	88 4d f9	 mov	 BYTE PTR __k$[ebp+21], cl
  0017f	eb 72		 jmp	 SHORT $LN1@LoadFloat_
$LN76@LoadFloat_:
  00181	c6 45 f8 ed	 mov	 BYTE PTR __k$[ebp+20], -19 ; ffffffedH
  00185	eb 6c		 jmp	 SHORT $LN1@LoadFloat_
$LN77@LoadFloat_:
  00187	c6 45 f7 ea	 mov	 BYTE PTR __k$[ebp+19], -22 ; ffffffeaH
  0018b	eb 66		 jmp	 SHORT $LN1@LoadFloat_
$LN79@LoadFloat_:
  0018d	88 4d f5	 mov	 BYTE PTR __k$[ebp+17], cl
  00190	eb 61		 jmp	 SHORT $LN1@LoadFloat_
$LN80@LoadFloat_:
  00192	c6 45 f4 ed	 mov	 BYTE PTR __k$[ebp+16], -19 ; ffffffedH
  00196	eb 5b		 jmp	 SHORT $LN1@LoadFloat_
$LN81@LoadFloat_:
  00198	c6 45 f3 ea	 mov	 BYTE PTR __k$[ebp+15], -22 ; ffffffeaH
  0019c	eb 55		 jmp	 SHORT $LN1@LoadFloat_
$LN82@LoadFloat_:
  0019e	c6 45 f2 eb	 mov	 BYTE PTR __k$[ebp+14], -21 ; ffffffebH
  001a2	eb 4f		 jmp	 SHORT $LN1@LoadFloat_
$LN83@LoadFloat_:
  001a4	88 4d f1	 mov	 BYTE PTR __k$[ebp+13], cl
  001a7	eb 4a		 jmp	 SHORT $LN1@LoadFloat_
$LN84@LoadFloat_:
  001a9	c6 45 f0 ed	 mov	 BYTE PTR __k$[ebp+12], -19 ; ffffffedH
  001ad	eb 44		 jmp	 SHORT $LN1@LoadFloat_
$LN85@LoadFloat_:
  001af	c6 45 ef ea	 mov	 BYTE PTR __k$[ebp+11], -22 ; ffffffeaH
  001b3	eb 3e		 jmp	 SHORT $LN1@LoadFloat_
$LN86@LoadFloat_:
  001b5	c6 45 ee eb	 mov	 BYTE PTR __k$[ebp+10], -21 ; ffffffebH
  001b9	eb 38		 jmp	 SHORT $LN1@LoadFloat_
$LN87@LoadFloat_:
  001bb	88 4d ed	 mov	 BYTE PTR __k$[ebp+9], cl
  001be	eb 33		 jmp	 SHORT $LN1@LoadFloat_
$LN88@LoadFloat_:
  001c0	c6 45 ec ed	 mov	 BYTE PTR __k$[ebp+8], -19 ; ffffffedH
  001c4	eb 2d		 jmp	 SHORT $LN1@LoadFloat_
$LN89@LoadFloat_:
  001c6	c6 45 eb ea	 mov	 BYTE PTR __k$[ebp+7], -22 ; ffffffeaH
  001ca	eb 27		 jmp	 SHORT $LN1@LoadFloat_
$LN90@LoadFloat_:
  001cc	c6 45 ea eb	 mov	 BYTE PTR __k$[ebp+6], -21 ; ffffffebH
  001d0	eb 21		 jmp	 SHORT $LN1@LoadFloat_
$LN91@LoadFloat_:
  001d2	88 4d e9	 mov	 BYTE PTR __k$[ebp+5], cl
  001d5	eb 1c		 jmp	 SHORT $LN1@LoadFloat_
$LN92@LoadFloat_:
  001d7	c6 45 e8 ed	 mov	 BYTE PTR __k$[ebp+4], -19 ; ffffffedH
  001db	eb 16		 jmp	 SHORT $LN1@LoadFloat_
$LN93@LoadFloat_:
  001dd	c6 45 e7 ea	 mov	 BYTE PTR __k$[ebp+3], -22 ; ffffffeaH
  001e1	eb 10		 jmp	 SHORT $LN1@LoadFloat_
$LN94@LoadFloat_:
  001e3	c6 45 e6 eb	 mov	 BYTE PTR __k$[ebp+2], -21 ; ffffffebH
  001e7	eb 0a		 jmp	 SHORT $LN1@LoadFloat_
$LN95@LoadFloat_:
  001e9	c6 45 e5 ec	 mov	 BYTE PTR __k$[ebp+1], -20 ; ffffffecH
  001ed	eb 04		 jmp	 SHORT $LN1@LoadFloat_
$LN96@LoadFloat_:
  001ef	c6 45 e4 ed	 mov	 BYTE PTR __k$[ebp], -19	; ffffffedH
$LN1@LoadFloat_:
  001f3	6a 04		 push	 4
  001f5	8d 45 e4	 lea	 eax, DWORD PTR __k$[ebp]
  001f8	c6 45 f6 00	 mov	 BYTE PTR __k$[ebp+18], 0
  001fc	5a		 pop	 edx
$LL104@LoadFloat_:
  001fd	81 30 ed ec eb
	ea		 xor	 DWORD PTR [eax], -353637139 ; eaebecedH
  00203	83 c0 04	 add	 eax, 4
  00206	4a		 dec	 edx
  00207	75 f4		 jne	 SHORT $LL104@LoadFloat_
  00209	6a 10		 push	 16			; 00000010H
  0020b	58		 pop	 eax
$LL101@LoadFloat_:
  0020c	8b c8		 mov	 ecx, eax
  0020e	81 e1 03 00 00
	80		 and	 ecx, -2147483645	; 80000003H
  00214	79 05		 jns	 SHORT $LN111@LoadFloat_
  00216	49		 dec	 ecx
  00217	83 c9 fc	 or	 ecx, -4			; fffffffcH
  0021a	41		 inc	 ecx
$LN111@LoadFloat_:
  0021b	b2 ed		 mov	 dl, -19			; ffffffedH
  0021d	2a d1		 sub	 dl, cl
  0021f	30 54 05 e4	 xor	 BYTE PTR __k$[ebp+eax], dl
  00223	40		 inc	 eax
  00224	83 f8 12	 cmp	 eax, 18			; 00000012H
  00227	7c e3		 jl	 SHORT $LL101@LoadFloat_

; 137  : 		return LoadFloat(_k, f);

  00229	f3 0f 10 45 0c	 movss	 xmm0, DWORD PTR _f$[ebp]
  0022e	51		 push	 ecx
  0022f	8d 45 e4	 lea	 eax, DWORD PTR __k$[ebp]
  00232	f3 0f 11 04 24	 movss	 DWORD PTR [esp], xmm0
  00237	50		 push	 eax
  00238	8b ce		 mov	 ecx, esi
  0023a	ff 15 00 00 00
	00		 call	 DWORD PTR __imp_?LoadFloat@ioINILoader@@QAEMPBDM@Z

; 138  : 	}

  00240	8b 4d fc	 mov	 ecx, DWORD PTR __$ArrayPad$[ebp]
  00243	33 cd		 xor	 ecx, ebp
  00245	5e		 pop	 esi
  00246	e8 00 00 00 00	 call	 @__security_check_cookie@4
  0024b	c9		 leave
  0024c	c2 08 00	 ret	 8
??$LoadFloat_e@$0BD@@ioINILoader@@QAEMAAY0BD@$$CBDM@Z ENDP ; ioINILoader::LoadFloat_e<19>
_TEXT	ENDS
PUBLIC	__$ArrayPad$
PUBLIC	??$LoadFloat_e@$0BI@@ioINILoader@@QAEMAAY0BI@$$CBDM@Z ; ioINILoader::LoadFloat_e<24>
; Function compile flags: /Ogsp
;	COMDAT ??$LoadFloat_e@$0BI@@ioINILoader@@QAEMAAY0BI@$$CBDM@Z
_TEXT	SEGMENT
__k$ = -32						; size = 24
__$ArrayPad$ = -4					; size = 4
_k$ = 8							; size = 4
_f$ = 12						; size = 4
??$LoadFloat_e@$0BI@@ioINILoader@@QAEMAAY0BI@$$CBDM@Z PROC ; ioINILoader::LoadFloat_e<24>, COMDAT
; _this$ = ecx

; 135  : 	{

  00000	55		 push	 ebp
  00001	8b ec		 mov	 ebp, esp
  00003	83 ec 20	 sub	 esp, 32			; 00000020H
  00006	a1 00 00 00 00	 mov	 eax, DWORD PTR ___security_cookie
  0000b	33 c5		 xor	 eax, ebp
  0000d	89 45 fc	 mov	 DWORD PTR __$ArrayPad$[ebp], eax
  00010	8b 45 08	 mov	 eax, DWORD PTR _k$[ebp]

; 136  : 		_ENCSTR(k, _k);

  00013	8a 10		 mov	 dl, BYTE PTR [eax]
  00015	53		 push	 ebx
  00016	56		 push	 esi
  00017	8b f1		 mov	 esi, ecx
  00019	84 d2		 test	 dl, dl
  0001b	0f 84 45 02 00
	00		 je	 $LN96@LoadFloat_@2
  00021	80 f2 ed	 xor	 dl, -19			; ffffffedH
  00024	88 55 e0	 mov	 BYTE PTR __k$[ebp], dl
  00027	8a 50 01	 mov	 dl, BYTE PTR [eax+1]
  0002a	84 d2		 test	 dl, dl
  0002c	0f 84 2e 02 00
	00		 je	 $LN95@LoadFloat_@2
  00032	b3 ec		 mov	 bl, -20			; ffffffecH
  00034	32 d3		 xor	 dl, bl
  00036	88 55 e1	 mov	 BYTE PTR __k$[ebp+1], dl
  00039	8a 50 02	 mov	 dl, BYTE PTR [eax+2]
  0003c	84 d2		 test	 dl, dl
  0003e	0f 84 16 02 00
	00		 je	 $LN94@LoadFloat_@2
  00044	b1 eb		 mov	 cl, -21			; ffffffebH
  00046	32 d1		 xor	 dl, cl
  00048	88 55 e2	 mov	 BYTE PTR __k$[ebp+2], dl
  0004b	8a 50 03	 mov	 dl, BYTE PTR [eax+3]
  0004e	84 d2		 test	 dl, dl
  00050	0f 84 fe 01 00
	00		 je	 $LN93@LoadFloat_@2
  00056	80 f2 ea	 xor	 dl, -22			; ffffffeaH
  00059	88 55 e3	 mov	 BYTE PTR __k$[ebp+3], dl
  0005c	8a 50 04	 mov	 dl, BYTE PTR [eax+4]
  0005f	84 d2		 test	 dl, dl
  00061	0f 84 e7 01 00
	00		 je	 $LN92@LoadFloat_@2
  00067	80 f2 ed	 xor	 dl, -19			; ffffffedH
  0006a	88 55 e4	 mov	 BYTE PTR __k$[ebp+4], dl
  0006d	8a 50 05	 mov	 dl, BYTE PTR [eax+5]
  00070	84 d2		 test	 dl, dl
  00072	0f 84 d1 01 00
	00		 je	 $LN91@LoadFloat_@2
  00078	32 d3		 xor	 dl, bl
  0007a	88 55 e5	 mov	 BYTE PTR __k$[ebp+5], dl
  0007d	8a 50 06	 mov	 dl, BYTE PTR [eax+6]
  00080	84 d2		 test	 dl, dl
  00082	0f 84 bc 01 00
	00		 je	 $LN90@LoadFloat_@2
  00088	32 d1		 xor	 dl, cl
  0008a	88 55 e6	 mov	 BYTE PTR __k$[ebp+6], dl
  0008d	8a 50 07	 mov	 dl, BYTE PTR [eax+7]
  00090	84 d2		 test	 dl, dl
  00092	0f 84 a6 01 00
	00		 je	 $LN89@LoadFloat_@2
  00098	80 f2 ea	 xor	 dl, -22			; ffffffeaH
  0009b	88 55 e7	 mov	 BYTE PTR __k$[ebp+7], dl
  0009e	8a 50 08	 mov	 dl, BYTE PTR [eax+8]
  000a1	84 d2		 test	 dl, dl
  000a3	0f 84 8f 01 00
	00		 je	 $LN88@LoadFloat_@2
  000a9	80 f2 ed	 xor	 dl, -19			; ffffffedH
  000ac	88 55 e8	 mov	 BYTE PTR __k$[ebp+8], dl
  000af	8a 50 09	 mov	 dl, BYTE PTR [eax+9]
  000b2	84 d2		 test	 dl, dl
  000b4	0f 84 79 01 00
	00		 je	 $LN87@LoadFloat_@2
  000ba	32 d3		 xor	 dl, bl
  000bc	88 55 e9	 mov	 BYTE PTR __k$[ebp+9], dl
  000bf	8a 50 0a	 mov	 dl, BYTE PTR [eax+10]
  000c2	84 d2		 test	 dl, dl
  000c4	0f 84 64 01 00
	00		 je	 $LN86@LoadFloat_@2
  000ca	32 d1		 xor	 dl, cl
  000cc	88 55 ea	 mov	 BYTE PTR __k$[ebp+10], dl
  000cf	8a 50 0b	 mov	 dl, BYTE PTR [eax+11]
  000d2	84 d2		 test	 dl, dl
  000d4	0f 84 4e 01 00
	00		 je	 $LN85@LoadFloat_@2
  000da	80 f2 ea	 xor	 dl, -22			; ffffffeaH
  000dd	88 55 eb	 mov	 BYTE PTR __k$[ebp+11], dl
  000e0	8a 50 0c	 mov	 dl, BYTE PTR [eax+12]
  000e3	84 d2		 test	 dl, dl
  000e5	0f 84 37 01 00
	00		 je	 $LN84@LoadFloat_@2
  000eb	80 f2 ed	 xor	 dl, -19			; ffffffedH
  000ee	88 55 ec	 mov	 BYTE PTR __k$[ebp+12], dl
  000f1	8a 50 0d	 mov	 dl, BYTE PTR [eax+13]
  000f4	84 d2		 test	 dl, dl
  000f6	0f 84 21 01 00
	00		 je	 $LN83@LoadFloat_@2
  000fc	32 d3		 xor	 dl, bl
  000fe	88 55 ed	 mov	 BYTE PTR __k$[ebp+13], dl
  00101	8a 50 0e	 mov	 dl, BYTE PTR [eax+14]
  00104	84 d2		 test	 dl, dl
  00106	0f 84 0c 01 00
	00		 je	 $LN82@LoadFloat_@2
  0010c	32 d1		 xor	 dl, cl
  0010e	88 55 ee	 mov	 BYTE PTR __k$[ebp+14], dl
  00111	8a 50 0f	 mov	 dl, BYTE PTR [eax+15]
  00114	84 d2		 test	 dl, dl
  00116	0f 84 f6 00 00
	00		 je	 $LN81@LoadFloat_@2
  0011c	80 f2 ea	 xor	 dl, -22			; ffffffeaH
  0011f	88 55 ef	 mov	 BYTE PTR __k$[ebp+15], dl
  00122	8a 50 10	 mov	 dl, BYTE PTR [eax+16]
  00125	84 d2		 test	 dl, dl
  00127	0f 84 df 00 00
	00		 je	 $LN80@LoadFloat_@2
  0012d	80 f2 ed	 xor	 dl, -19			; ffffffedH
  00130	88 55 f0	 mov	 BYTE PTR __k$[ebp+16], dl
  00133	8a 50 11	 mov	 dl, BYTE PTR [eax+17]
  00136	84 d2		 test	 dl, dl
  00138	0f 84 c9 00 00
	00		 je	 $LN79@LoadFloat_@2
  0013e	32 d3		 xor	 dl, bl
  00140	88 55 f1	 mov	 BYTE PTR __k$[ebp+17], dl
  00143	8a 50 12	 mov	 dl, BYTE PTR [eax+18]
  00146	84 d2		 test	 dl, dl
  00148	0f 84 b4 00 00
	00		 je	 $LN78@LoadFloat_@2
  0014e	32 d1		 xor	 dl, cl
  00150	88 55 f2	 mov	 BYTE PTR __k$[ebp+18], dl
  00153	8a 50 13	 mov	 dl, BYTE PTR [eax+19]
  00156	84 d2		 test	 dl, dl
  00158	0f 84 9e 00 00
	00		 je	 $LN77@LoadFloat_@2
  0015e	80 f2 ea	 xor	 dl, -22			; ffffffeaH
  00161	88 55 f3	 mov	 BYTE PTR __k$[ebp+19], dl
  00164	8a 50 14	 mov	 dl, BYTE PTR [eax+20]
  00167	84 d2		 test	 dl, dl
  00169	0f 84 87 00 00
	00		 je	 $LN76@LoadFloat_@2
  0016f	80 f2 ed	 xor	 dl, -19			; ffffffedH
  00172	88 55 f4	 mov	 BYTE PTR __k$[ebp+20], dl
  00175	8a 50 15	 mov	 dl, BYTE PTR [eax+21]
  00178	84 d2		 test	 dl, dl
  0017a	74 75		 je	 SHORT $LN75@LoadFloat_@2
  0017c	32 d3		 xor	 dl, bl
  0017e	88 55 f5	 mov	 BYTE PTR __k$[ebp+21], dl
  00181	8a 50 16	 mov	 dl, BYTE PTR [eax+22]
  00184	84 d2		 test	 dl, dl
  00186	74 64		 je	 SHORT $LN74@LoadFloat_@2
  00188	32 d1		 xor	 dl, cl
  0018a	80 78 17 00	 cmp	 BYTE PTR [eax+23], 0
  0018e	88 55 f6	 mov	 BYTE PTR __k$[ebp+22], dl
  00191	0f 84 d3 00 00
	00		 je	 $LN1@LoadFloat_@2
  00197	8a 50 18	 mov	 dl, BYTE PTR [eax+24]
  0019a	84 d2		 test	 dl, dl
  0019c	74 48		 je	 SHORT $LN72@LoadFloat_@2
  0019e	80 f2 ed	 xor	 dl, -19			; ffffffedH
  001a1	88 55 f8	 mov	 BYTE PTR __k$[ebp+24], dl
  001a4	8a 50 19	 mov	 dl, BYTE PTR [eax+25]
  001a7	84 d2		 test	 dl, dl
  001a9	74 33		 je	 SHORT $LN71@LoadFloat_@2
  001ab	32 d3		 xor	 dl, bl
  001ad	88 55 f9	 mov	 BYTE PTR __k$[ebp+25], dl
  001b0	8a 50 1a	 mov	 dl, BYTE PTR [eax+26]
  001b3	84 d2		 test	 dl, dl
  001b5	74 1f		 je	 SHORT $LN70@LoadFloat_@2
  001b7	8a 40 1b	 mov	 al, BYTE PTR [eax+27]
  001ba	32 d1		 xor	 dl, cl
  001bc	88 55 fa	 mov	 BYTE PTR __k$[ebp+26], dl
  001bf	84 c0		 test	 al, al
  001c1	74 0a		 je	 SHORT $LN69@LoadFloat_@2
  001c3	34 ea		 xor	 al, -22			; ffffffeaH
  001c5	88 45 fb	 mov	 BYTE PTR __k$[ebp+27], al
  001c8	e9 9d 00 00 00	 jmp	 $LN1@LoadFloat_@2
$LN69@LoadFloat_@2:
  001cd	c6 45 fb ea	 mov	 BYTE PTR __k$[ebp+27], -22 ; ffffffeaH
  001d1	e9 94 00 00 00	 jmp	 $LN1@LoadFloat_@2
$LN70@LoadFloat_@2:
  001d6	88 4d fa	 mov	 BYTE PTR __k$[ebp+26], cl
  001d9	e9 8c 00 00 00	 jmp	 $LN1@LoadFloat_@2
$LN71@LoadFloat_@2:
  001de	88 5d f9	 mov	 BYTE PTR __k$[ebp+25], bl
  001e1	e9 84 00 00 00	 jmp	 $LN1@LoadFloat_@2
$LN72@LoadFloat_@2:
  001e6	c6 45 f8 ed	 mov	 BYTE PTR __k$[ebp+24], -19 ; ffffffedH
  001ea	eb 7e		 jmp	 SHORT $LN1@LoadFloat_@2
$LN74@LoadFloat_@2:
  001ec	88 4d f6	 mov	 BYTE PTR __k$[ebp+22], cl
  001ef	eb 79		 jmp	 SHORT $LN1@LoadFloat_@2
$LN75@LoadFloat_@2:
  001f1	88 5d f5	 mov	 BYTE PTR __k$[ebp+21], bl
  001f4	eb 74		 jmp	 SHORT $LN1@LoadFloat_@2
$LN76@LoadFloat_@2:
  001f6	c6 45 f4 ed	 mov	 BYTE PTR __k$[ebp+20], -19 ; ffffffedH
  001fa	eb 6e		 jmp	 SHORT $LN1@LoadFloat_@2
$LN77@LoadFloat_@2:
  001fc	c6 45 f3 ea	 mov	 BYTE PTR __k$[ebp+19], -22 ; ffffffeaH
  00200	eb 68		 jmp	 SHORT $LN1@LoadFloat_@2
$LN78@LoadFloat_@2:
  00202	88 4d f2	 mov	 BYTE PTR __k$[ebp+18], cl
  00205	eb 63		 jmp	 SHORT $LN1@LoadFloat_@2
$LN79@LoadFloat_@2:
  00207	88 5d f1	 mov	 BYTE PTR __k$[ebp+17], bl
  0020a	eb 5e		 jmp	 SHORT $LN1@LoadFloat_@2
$LN80@LoadFloat_@2:
  0020c	c6 45 f0 ed	 mov	 BYTE PTR __k$[ebp+16], -19 ; ffffffedH
  00210	eb 58		 jmp	 SHORT $LN1@LoadFloat_@2
$LN81@LoadFloat_@2:
  00212	c6 45 ef ea	 mov	 BYTE PTR __k$[ebp+15], -22 ; ffffffeaH
  00216	eb 52		 jmp	 SHORT $LN1@LoadFloat_@2
$LN82@LoadFloat_@2:
  00218	88 4d ee	 mov	 BYTE PTR __k$[ebp+14], cl
  0021b	eb 4d		 jmp	 SHORT $LN1@LoadFloat_@2
$LN83@LoadFloat_@2:
  0021d	88 5d ed	 mov	 BYTE PTR __k$[ebp+13], bl
  00220	eb 48		 jmp	 SHORT $LN1@LoadFloat_@2
$LN84@LoadFloat_@2:
  00222	c6 45 ec ed	 mov	 BYTE PTR __k$[ebp+12], -19 ; ffffffedH
  00226	eb 42		 jmp	 SHORT $LN1@LoadFloat_@2
$LN85@LoadFloat_@2:
  00228	c6 45 eb ea	 mov	 BYTE PTR __k$[ebp+11], -22 ; ffffffeaH
  0022c	eb 3c		 jmp	 SHORT $LN1@LoadFloat_@2
$LN86@LoadFloat_@2:
  0022e	88 4d ea	 mov	 BYTE PTR __k$[ebp+10], cl
  00231	eb 37		 jmp	 SHORT $LN1@LoadFloat_@2
$LN87@LoadFloat_@2:
  00233	88 5d e9	 mov	 BYTE PTR __k$[ebp+9], bl
  00236	eb 32		 jmp	 SHORT $LN1@LoadFloat_@2
$LN88@LoadFloat_@2:
  00238	c6 45 e8 ed	 mov	 BYTE PTR __k$[ebp+8], -19 ; ffffffedH
  0023c	eb 2c		 jmp	 SHORT $LN1@LoadFloat_@2
$LN89@LoadFloat_@2:
  0023e	c6 45 e7 ea	 mov	 BYTE PTR __k$[ebp+7], -22 ; ffffffeaH
  00242	eb 26		 jmp	 SHORT $LN1@LoadFloat_@2
$LN90@LoadFloat_@2:
  00244	88 4d e6	 mov	 BYTE PTR __k$[ebp+6], cl
  00247	eb 21		 jmp	 SHORT $LN1@LoadFloat_@2
$LN91@LoadFloat_@2:
  00249	88 5d e5	 mov	 BYTE PTR __k$[ebp+5], bl
  0024c	eb 1c		 jmp	 SHORT $LN1@LoadFloat_@2
$LN92@LoadFloat_@2:
  0024e	c6 45 e4 ed	 mov	 BYTE PTR __k$[ebp+4], -19 ; ffffffedH
  00252	eb 16		 jmp	 SHORT $LN1@LoadFloat_@2
$LN93@LoadFloat_@2:
  00254	c6 45 e3 ea	 mov	 BYTE PTR __k$[ebp+3], -22 ; ffffffeaH
  00258	eb 10		 jmp	 SHORT $LN1@LoadFloat_@2
$LN94@LoadFloat_@2:
  0025a	c6 45 e2 eb	 mov	 BYTE PTR __k$[ebp+2], -21 ; ffffffebH
  0025e	eb 0a		 jmp	 SHORT $LN1@LoadFloat_@2
$LN95@LoadFloat_@2:
  00260	c6 45 e1 ec	 mov	 BYTE PTR __k$[ebp+1], -20 ; ffffffecH
  00264	eb 04		 jmp	 SHORT $LN1@LoadFloat_@2
$LN96@LoadFloat_@2:
  00266	c6 45 e0 ed	 mov	 BYTE PTR __k$[ebp], -19	; ffffffedH
$LN1@LoadFloat_@2:
  0026a	6a 05		 push	 5
  0026c	8d 45 e0	 lea	 eax, DWORD PTR __k$[ebp]
  0026f	c6 45 f7 00	 mov	 BYTE PTR __k$[ebp+23], 0
  00273	5a		 pop	 edx
$LL104@LoadFloat_@2:
  00274	81 30 ed ec eb
	ea		 xor	 DWORD PTR [eax], -353637139 ; eaebecedH
  0027a	83 c0 04	 add	 eax, 4
  0027d	4a		 dec	 edx
  0027e	75 f4		 jne	 SHORT $LL104@LoadFloat_@2
  00280	6a 14		 push	 20			; 00000014H
  00282	58		 pop	 eax
$LL101@LoadFloat_@2:
  00283	8b c8		 mov	 ecx, eax
  00285	81 e1 03 00 00
	80		 and	 ecx, -2147483645	; 80000003H
  0028b	79 05		 jns	 SHORT $LN111@LoadFloat_@2
  0028d	49		 dec	 ecx
  0028e	83 c9 fc	 or	 ecx, -4			; fffffffcH
  00291	41		 inc	 ecx
$LN111@LoadFloat_@2:
  00292	b2 ed		 mov	 dl, -19			; ffffffedH
  00294	2a d1		 sub	 dl, cl
  00296	30 54 05 e0	 xor	 BYTE PTR __k$[ebp+eax], dl
  0029a	40		 inc	 eax
  0029b	83 f8 17	 cmp	 eax, 23			; 00000017H
  0029e	7c e3		 jl	 SHORT $LL101@LoadFloat_@2

; 137  : 		return LoadFloat(_k, f);

  002a0	f3 0f 10 45 0c	 movss	 xmm0, DWORD PTR _f$[ebp]
  002a5	51		 push	 ecx
  002a6	8d 45 e0	 lea	 eax, DWORD PTR __k$[ebp]
  002a9	f3 0f 11 04 24	 movss	 DWORD PTR [esp], xmm0
  002ae	50		 push	 eax
  002af	8b ce		 mov	 ecx, esi
  002b1	ff 15 00 00 00
	00		 call	 DWORD PTR __imp_?LoadFloat@ioINILoader@@QAEMPBDM@Z

; 138  : 	}

  002b7	8b 4d fc	 mov	 ecx, DWORD PTR __$ArrayPad$[ebp]
  002ba	5e		 pop	 esi
  002bb	33 cd		 xor	 ecx, ebp
  002bd	5b		 pop	 ebx
  002be	e8 00 00 00 00	 call	 @__security_check_cookie@4
  002c3	c9		 leave
  002c4	c2 08 00	 ret	 8
??$LoadFloat_e@$0BI@@ioINILoader@@QAEMAAY0BI@$$CBDM@Z ENDP ; ioINILoader::LoadFloat_e<24>
_TEXT	ENDS
PUBLIC	__$ArrayPad$
PUBLIC	??$LoadFloat_e@$0BE@@ioINILoader@@QAEMAAY0BE@$$CBDM@Z ; ioINILoader::LoadFloat_e<20>
; Function compile flags: /Ogsp
;	COMDAT ??$LoadFloat_e@$0BE@@ioINILoader@@QAEMAAY0BE@$$CBDM@Z
_TEXT	SEGMENT
__k$ = -28						; size = 20
__$ArrayPad$ = -4					; size = 4
_k$ = 8							; size = 4
_f$ = 12						; size = 4
??$LoadFloat_e@$0BE@@ioINILoader@@QAEMAAY0BE@$$CBDM@Z PROC ; ioINILoader::LoadFloat_e<20>, COMDAT
; _this$ = ecx

; 135  : 	{

  00000	55		 push	 ebp
  00001	8b ec		 mov	 ebp, esp
  00003	83 ec 1c	 sub	 esp, 28			; 0000001cH
  00006	a1 00 00 00 00	 mov	 eax, DWORD PTR ___security_cookie
  0000b	33 c5		 xor	 eax, ebp
  0000d	89 45 fc	 mov	 DWORD PTR __$ArrayPad$[ebp], eax
  00010	8b 45 08	 mov	 eax, DWORD PTR _k$[ebp]

; 136  : 		_ENCSTR(k, _k);

  00013	8a 10		 mov	 dl, BYTE PTR [eax]
  00015	53		 push	 ebx
  00016	56		 push	 esi
  00017	8b f1		 mov	 esi, ecx
  00019	84 d2		 test	 dl, dl
  0001b	0f 84 dd 01 00
	00		 je	 $LN96@LoadFloat_@3
  00021	80 f2 ed	 xor	 dl, -19			; ffffffedH
  00024	88 55 e4	 mov	 BYTE PTR __k$[ebp], dl
  00027	8a 50 01	 mov	 dl, BYTE PTR [eax+1]
  0002a	84 d2		 test	 dl, dl
  0002c	0f 84 c6 01 00
	00		 je	 $LN95@LoadFloat_@3
  00032	b3 ec		 mov	 bl, -20			; ffffffecH
  00034	32 d3		 xor	 dl, bl
  00036	88 55 e5	 mov	 BYTE PTR __k$[ebp+1], dl
  00039	8a 50 02	 mov	 dl, BYTE PTR [eax+2]
  0003c	84 d2		 test	 dl, dl
  0003e	0f 84 ae 01 00
	00		 je	 $LN94@LoadFloat_@3
  00044	b1 eb		 mov	 cl, -21			; ffffffebH
  00046	32 d1		 xor	 dl, cl
  00048	88 55 e6	 mov	 BYTE PTR __k$[ebp+2], dl
  0004b	8a 50 03	 mov	 dl, BYTE PTR [eax+3]
  0004e	84 d2		 test	 dl, dl
  00050	0f 84 96 01 00
	00		 je	 $LN93@LoadFloat_@3
  00056	80 f2 ea	 xor	 dl, -22			; ffffffeaH
  00059	88 55 e7	 mov	 BYTE PTR __k$[ebp+3], dl
  0005c	8a 50 04	 mov	 dl, BYTE PTR [eax+4]
  0005f	84 d2		 test	 dl, dl
  00061	0f 84 7f 01 00
	00		 je	 $LN92@LoadFloat_@3
  00067	80 f2 ed	 xor	 dl, -19			; ffffffedH
  0006a	88 55 e8	 mov	 BYTE PTR __k$[ebp+4], dl
  0006d	8a 50 05	 mov	 dl, BYTE PTR [eax+5]
  00070	84 d2		 test	 dl, dl
  00072	0f 84 69 01 00
	00		 je	 $LN91@LoadFloat_@3
  00078	32 d3		 xor	 dl, bl
  0007a	88 55 e9	 mov	 BYTE PTR __k$[ebp+5], dl
  0007d	8a 50 06	 mov	 dl, BYTE PTR [eax+6]
  00080	84 d2		 test	 dl, dl
  00082	0f 84 54 01 00
	00		 je	 $LN90@LoadFloat_@3
  00088	32 d1		 xor	 dl, cl
  0008a	88 55 ea	 mov	 BYTE PTR __k$[ebp+6], dl
  0008d	8a 50 07	 mov	 dl, BYTE PTR [eax+7]
  00090	84 d2		 test	 dl, dl
  00092	0f 84 3e 01 00
	00		 je	 $LN89@LoadFloat_@3
  00098	80 f2 ea	 xor	 dl, -22			; ffffffeaH
  0009b	88 55 eb	 mov	 BYTE PTR __k$[ebp+7], dl
  0009e	8a 50 08	 mov	 dl, BYTE PTR [eax+8]
  000a1	84 d2		 test	 dl, dl
  000a3	0f 84 27 01 00
	00		 je	 $LN88@LoadFloat_@3
  000a9	80 f2 ed	 xor	 dl, -19			; ffffffedH
  000ac	88 55 ec	 mov	 BYTE PTR __k$[ebp+8], dl
  000af	8a 50 09	 mov	 dl, BYTE PTR [eax+9]
  000b2	84 d2		 test	 dl, dl
  000b4	0f 84 11 01 00
	00		 je	 $LN87@LoadFloat_@3
  000ba	32 d3		 xor	 dl, bl
  000bc	88 55 ed	 mov	 BYTE PTR __k$[ebp+9], dl
  000bf	8a 50 0a	 mov	 dl, BYTE PTR [eax+10]
  000c2	84 d2		 test	 dl, dl
  000c4	0f 84 fc 00 00
	00		 je	 $LN86@LoadFloat_@3
  000ca	32 d1		 xor	 dl, cl
  000cc	88 55 ee	 mov	 BYTE PTR __k$[ebp+10], dl
  000cf	8a 50 0b	 mov	 dl, BYTE PTR [eax+11]
  000d2	84 d2		 test	 dl, dl
  000d4	0f 84 e6 00 00
	00		 je	 $LN85@LoadFloat_@3
  000da	80 f2 ea	 xor	 dl, -22			; ffffffeaH
  000dd	88 55 ef	 mov	 BYTE PTR __k$[ebp+11], dl
  000e0	8a 50 0c	 mov	 dl, BYTE PTR [eax+12]
  000e3	84 d2		 test	 dl, dl
  000e5	0f 84 cf 00 00
	00		 je	 $LN84@LoadFloat_@3
  000eb	80 f2 ed	 xor	 dl, -19			; ffffffedH
  000ee	88 55 f0	 mov	 BYTE PTR __k$[ebp+12], dl
  000f1	8a 50 0d	 mov	 dl, BYTE PTR [eax+13]
  000f4	84 d2		 test	 dl, dl
  000f6	0f 84 b9 00 00
	00		 je	 $LN83@LoadFloat_@3
  000fc	32 d3		 xor	 dl, bl
  000fe	88 55 f1	 mov	 BYTE PTR __k$[ebp+13], dl
  00101	8a 50 0e	 mov	 dl, BYTE PTR [eax+14]
  00104	84 d2		 test	 dl, dl
  00106	0f 84 a4 00 00
	00		 je	 $LN82@LoadFloat_@3
  0010c	32 d1		 xor	 dl, cl
  0010e	88 55 f2	 mov	 BYTE PTR __k$[ebp+14], dl
  00111	8a 50 0f	 mov	 dl, BYTE PTR [eax+15]
  00114	84 d2		 test	 dl, dl
  00116	0f 84 8e 00 00
	00		 je	 $LN81@LoadFloat_@3
  0011c	80 f2 ea	 xor	 dl, -22			; ffffffeaH
  0011f	88 55 f3	 mov	 BYTE PTR __k$[ebp+15], dl
  00122	8a 50 10	 mov	 dl, BYTE PTR [eax+16]
  00125	84 d2		 test	 dl, dl
  00127	74 7b		 je	 SHORT $LN80@LoadFloat_@3
  00129	80 f2 ed	 xor	 dl, -19			; ffffffedH
  0012c	88 55 f4	 mov	 BYTE PTR __k$[ebp+16], dl
  0012f	8a 50 11	 mov	 dl, BYTE PTR [eax+17]
  00132	84 d2		 test	 dl, dl
  00134	74 69		 je	 SHORT $LN79@LoadFloat_@3
  00136	32 d3		 xor	 dl, bl
  00138	88 55 f5	 mov	 BYTE PTR __k$[ebp+17], dl
  0013b	8a 50 12	 mov	 dl, BYTE PTR [eax+18]
  0013e	84 d2		 test	 dl, dl
  00140	74 58		 je	 SHORT $LN78@LoadFloat_@3
  00142	32 d1		 xor	 dl, cl
  00144	80 78 13 00	 cmp	 BYTE PTR [eax+19], 0
  00148	88 55 f6	 mov	 BYTE PTR __k$[ebp+18], dl
  0014b	0f 84 b1 00 00
	00		 je	 $LN1@LoadFloat_@3
  00151	8a 50 14	 mov	 dl, BYTE PTR [eax+20]
  00154	84 d2		 test	 dl, dl
  00156	74 3c		 je	 SHORT $LN76@LoadFloat_@3
  00158	80 f2 ed	 xor	 dl, -19			; ffffffedH
  0015b	88 55 f8	 mov	 BYTE PTR __k$[ebp+20], dl
  0015e	8a 50 15	 mov	 dl, BYTE PTR [eax+21]
  00161	84 d2		 test	 dl, dl
  00163	74 2a		 je	 SHORT $LN75@LoadFloat_@3
  00165	32 d3		 xor	 dl, bl
  00167	88 55 f9	 mov	 BYTE PTR __k$[ebp+21], dl
  0016a	8a 50 16	 mov	 dl, BYTE PTR [eax+22]
  0016d	84 d2		 test	 dl, dl
  0016f	74 19		 je	 SHORT $LN74@LoadFloat_@3
  00171	8a 40 17	 mov	 al, BYTE PTR [eax+23]
  00174	32 d1		 xor	 dl, cl
  00176	88 55 fa	 mov	 BYTE PTR __k$[ebp+22], dl
  00179	84 c0		 test	 al, al
  0017b	74 07		 je	 SHORT $LN73@LoadFloat_@3
  0017d	34 ea		 xor	 al, -22			; ffffffeaH
  0017f	88 45 fb	 mov	 BYTE PTR __k$[ebp+23], al
  00182	eb 7e		 jmp	 SHORT $LN1@LoadFloat_@3
$LN73@LoadFloat_@3:
  00184	c6 45 fb ea	 mov	 BYTE PTR __k$[ebp+23], -22 ; ffffffeaH
  00188	eb 78		 jmp	 SHORT $LN1@LoadFloat_@3
$LN74@LoadFloat_@3:
  0018a	88 4d fa	 mov	 BYTE PTR __k$[ebp+22], cl
  0018d	eb 73		 jmp	 SHORT $LN1@LoadFloat_@3
$LN75@LoadFloat_@3:
  0018f	88 5d f9	 mov	 BYTE PTR __k$[ebp+21], bl
  00192	eb 6e		 jmp	 SHORT $LN1@LoadFloat_@3
$LN76@LoadFloat_@3:
  00194	c6 45 f8 ed	 mov	 BYTE PTR __k$[ebp+20], -19 ; ffffffedH
  00198	eb 68		 jmp	 SHORT $LN1@LoadFloat_@3
$LN78@LoadFloat_@3:
  0019a	88 4d f6	 mov	 BYTE PTR __k$[ebp+18], cl
  0019d	eb 63		 jmp	 SHORT $LN1@LoadFloat_@3
$LN79@LoadFloat_@3:
  0019f	88 5d f5	 mov	 BYTE PTR __k$[ebp+17], bl
  001a2	eb 5e		 jmp	 SHORT $LN1@LoadFloat_@3
$LN80@LoadFloat_@3:
  001a4	c6 45 f4 ed	 mov	 BYTE PTR __k$[ebp+16], -19 ; ffffffedH
  001a8	eb 58		 jmp	 SHORT $LN1@LoadFloat_@3
$LN81@LoadFloat_@3:
  001aa	c6 45 f3 ea	 mov	 BYTE PTR __k$[ebp+15], -22 ; ffffffeaH
  001ae	eb 52		 jmp	 SHORT $LN1@LoadFloat_@3
$LN82@LoadFloat_@3:
  001b0	88 4d f2	 mov	 BYTE PTR __k$[ebp+14], cl
  001b3	eb 4d		 jmp	 SHORT $LN1@LoadFloat_@3
$LN83@LoadFloat_@3:
  001b5	88 5d f1	 mov	 BYTE PTR __k$[ebp+13], bl
  001b8	eb 48		 jmp	 SHORT $LN1@LoadFloat_@3
$LN84@LoadFloat_@3:
  001ba	c6 45 f0 ed	 mov	 BYTE PTR __k$[ebp+12], -19 ; ffffffedH
  001be	eb 42		 jmp	 SHORT $LN1@LoadFloat_@3
$LN85@LoadFloat_@3:
  001c0	c6 45 ef ea	 mov	 BYTE PTR __k$[ebp+11], -22 ; ffffffeaH
  001c4	eb 3c		 jmp	 SHORT $LN1@LoadFloat_@3
$LN86@LoadFloat_@3:
  001c6	88 4d ee	 mov	 BYTE PTR __k$[ebp+10], cl
  001c9	eb 37		 jmp	 SHORT $LN1@LoadFloat_@3
$LN87@LoadFloat_@3:
  001cb	88 5d ed	 mov	 BYTE PTR __k$[ebp+9], bl
  001ce	eb 32		 jmp	 SHORT $LN1@LoadFloat_@3
$LN88@LoadFloat_@3:
  001d0	c6 45 ec ed	 mov	 BYTE PTR __k$[ebp+8], -19 ; ffffffedH
  001d4	eb 2c		 jmp	 SHORT $LN1@LoadFloat_@3
$LN89@LoadFloat_@3:
  001d6	c6 45 eb ea	 mov	 BYTE PTR __k$[ebp+7], -22 ; ffffffeaH
  001da	eb 26		 jmp	 SHORT $LN1@LoadFloat_@3
$LN90@LoadFloat_@3:
  001dc	88 4d ea	 mov	 BYTE PTR __k$[ebp+6], cl
  001df	eb 21		 jmp	 SHORT $LN1@LoadFloat_@3
$LN91@LoadFloat_@3:
  001e1	88 5d e9	 mov	 BYTE PTR __k$[ebp+5], bl
  001e4	eb 1c		 jmp	 SHORT $LN1@LoadFloat_@3
$LN92@LoadFloat_@3:
  001e6	c6 45 e8 ed	 mov	 BYTE PTR __k$[ebp+4], -19 ; ffffffedH
  001ea	eb 16		 jmp	 SHORT $LN1@LoadFloat_@3
$LN93@LoadFloat_@3:
  001ec	c6 45 e7 ea	 mov	 BYTE PTR __k$[ebp+3], -22 ; ffffffeaH
  001f0	eb 10		 jmp	 SHORT $LN1@LoadFloat_@3
$LN94@LoadFloat_@3:
  001f2	c6 45 e6 eb	 mov	 BYTE PTR __k$[ebp+2], -21 ; ffffffebH
  001f6	eb 0a		 jmp	 SHORT $LN1@LoadFloat_@3
$LN95@LoadFloat_@3:
  001f8	c6 45 e5 ec	 mov	 BYTE PTR __k$[ebp+1], -20 ; ffffffecH
  001fc	eb 04		 jmp	 SHORT $LN1@LoadFloat_@3
$LN96@LoadFloat_@3:
  001fe	c6 45 e4 ed	 mov	 BYTE PTR __k$[ebp], -19	; ffffffedH
$LN1@LoadFloat_@3:
  00202	6a 04		 push	 4
  00204	8d 45 e4	 lea	 eax, DWORD PTR __k$[ebp]
  00207	c6 45 f7 00	 mov	 BYTE PTR __k$[ebp+19], 0
  0020b	5a		 pop	 edx
$LL104@LoadFloat_@3:
  0020c	81 30 ed ec eb
	ea		 xor	 DWORD PTR [eax], -353637139 ; eaebecedH
  00212	83 c0 04	 add	 eax, 4
  00215	4a		 dec	 edx
  00216	75 f4		 jne	 SHORT $LL104@LoadFloat_@3
  00218	6a 10		 push	 16			; 00000010H
  0021a	58		 pop	 eax
$LL101@LoadFloat_@3:
  0021b	8b c8		 mov	 ecx, eax
  0021d	81 e1 03 00 00
	80		 and	 ecx, -2147483645	; 80000003H
  00223	79 05		 jns	 SHORT $LN111@LoadFloat_@3
  00225	49		 dec	 ecx
  00226	83 c9 fc	 or	 ecx, -4			; fffffffcH
  00229	41		 inc	 ecx
$LN111@LoadFloat_@3:
  0022a	b2 ed		 mov	 dl, -19			; ffffffedH
  0022c	2a d1		 sub	 dl, cl
  0022e	30 54 05 e4	 xor	 BYTE PTR __k$[ebp+eax], dl
  00232	40		 inc	 eax
  00233	83 f8 13	 cmp	 eax, 19			; 00000013H
  00236	7c e3		 jl	 SHORT $LL101@LoadFloat_@3

; 137  : 		return LoadFloat(_k, f);

  00238	f3 0f 10 45 0c	 movss	 xmm0, DWORD PTR _f$[ebp]
  0023d	51		 push	 ecx
  0023e	8d 45 e4	 lea	 eax, DWORD PTR __k$[ebp]
  00241	f3 0f 11 04 24	 movss	 DWORD PTR [esp], xmm0
  00246	50		 push	 eax
  00247	8b ce		 mov	 ecx, esi
  00249	ff 15 00 00 00
	00		 call	 DWORD PTR __imp_?LoadFloat@ioINILoader@@QAEMPBDM@Z

; 138  : 	}

  0024f	8b 4d fc	 mov	 ecx, DWORD PTR __$ArrayPad$[ebp]
  00252	5e		 pop	 esi
  00253	33 cd		 xor	 ecx, ebp
  00255	5b		 pop	 ebx
  00256	e8 00 00 00 00	 call	 @__security_check_cookie@4
  0025b	c9		 leave
  0025c	c2 08 00	 ret	 8
??$LoadFloat_e@$0BE@@ioINILoader@@QAEMAAY0BE@$$CBDM@Z ENDP ; ioINILoader::LoadFloat_e<20>
_TEXT	ENDS
PUBLIC	_this$GSCopy$
PUBLIC	__$ArrayPad$
PUBLIC	??$LoadString_e@$0N@@ioINILoader@@QAEXAAY0N@$$CBDAAY00$$CBDPADH@Z ; ioINILoader::LoadString_e<13>
EXTRN	__imp_?LoadStringA@ioINILoader@@QAEXPBD0PADH@Z:PROC
; Function compile flags: /Ogsp
;	COMDAT ??$LoadString_e@$0N@@ioINILoader@@QAEXAAY0N@$$CBDAAY00$$CBDPADH@Z
_TEXT	SEGMENT
_this$GSCopy$ = -28					; size = 4
__k$ = -24						; size = 13
__$ArrayPad$ = -4					; size = 4
_k$ = 8							; size = 4
_d$ = 12						; size = 4
_b$ = 16						; size = 4
_i$ = 20						; size = 4
??$LoadString_e@$0N@@ioINILoader@@QAEXAAY0N@$$CBDAAY00$$CBDPADH@Z PROC ; ioINILoader::LoadString_e<13>, COMDAT
; _this$ = ecx

; 161  : 	{

  00000	55		 push	 ebp
  00001	8b ec		 mov	 ebp, esp
  00003	83 ec 1c	 sub	 esp, 28			; 0000001cH
  00006	a1 00 00 00 00	 mov	 eax, DWORD PTR ___security_cookie
  0000b	33 c5		 xor	 eax, ebp
  0000d	89 45 fc	 mov	 DWORD PTR __$ArrayPad$[ebp], eax
  00010	8b 45 08	 mov	 eax, DWORD PTR _k$[ebp]

; 162  : 		_ENCSTR(k, _k);

  00013	8a 10		 mov	 dl, BYTE PTR [eax]
  00015	56		 push	 esi
  00016	8b 75 0c	 mov	 esi, DWORD PTR _d$[ebp]
  00019	57		 push	 edi
  0001a	8b 7d 10	 mov	 edi, DWORD PTR _b$[ebp]
  0001d	89 4d e4	 mov	 DWORD PTR _this$GSCopy$[ebp], ecx
  00020	84 d2		 test	 dl, dl
  00022	0f 84 4d 01 00
	00		 je	 $LN96@LoadString
  00028	80 f2 ed	 xor	 dl, -19			; ffffffedH
  0002b	88 55 e8	 mov	 BYTE PTR __k$[ebp], dl
  0002e	8a 50 01	 mov	 dl, BYTE PTR [eax+1]
  00031	84 d2		 test	 dl, dl
  00033	0f 84 36 01 00
	00		 je	 $LN95@LoadString
  00039	b1 ec		 mov	 cl, -20			; ffffffecH
  0003b	32 d1		 xor	 dl, cl
  0003d	88 55 e9	 mov	 BYTE PTR __k$[ebp+1], dl
  00040	8a 50 02	 mov	 dl, BYTE PTR [eax+2]
  00043	84 d2		 test	 dl, dl
  00045	0f 84 1e 01 00
	00		 je	 $LN94@LoadString
  0004b	80 f2 eb	 xor	 dl, -21			; ffffffebH
  0004e	88 55 ea	 mov	 BYTE PTR __k$[ebp+2], dl
  00051	8a 50 03	 mov	 dl, BYTE PTR [eax+3]
  00054	84 d2		 test	 dl, dl
  00056	0f 84 07 01 00
	00		 je	 $LN93@LoadString
  0005c	80 f2 ea	 xor	 dl, -22			; ffffffeaH
  0005f	88 55 eb	 mov	 BYTE PTR __k$[ebp+3], dl
  00062	8a 50 04	 mov	 dl, BYTE PTR [eax+4]
  00065	84 d2		 test	 dl, dl
  00067	0f 84 f0 00 00
	00		 je	 $LN92@LoadString
  0006d	80 f2 ed	 xor	 dl, -19			; ffffffedH
  00070	88 55 ec	 mov	 BYTE PTR __k$[ebp+4], dl
  00073	8a 50 05	 mov	 dl, BYTE PTR [eax+5]
  00076	84 d2		 test	 dl, dl
  00078	0f 84 da 00 00
	00		 je	 $LN91@LoadString
  0007e	32 d1		 xor	 dl, cl
  00080	88 55 ed	 mov	 BYTE PTR __k$[ebp+5], dl
  00083	8a 50 06	 mov	 dl, BYTE PTR [eax+6]
  00086	84 d2		 test	 dl, dl
  00088	0f 84 c4 00 00
	00		 je	 $LN90@LoadString
  0008e	80 f2 eb	 xor	 dl, -21			; ffffffebH
  00091	88 55 ee	 mov	 BYTE PTR __k$[ebp+6], dl
  00094	8a 50 07	 mov	 dl, BYTE PTR [eax+7]
  00097	84 d2		 test	 dl, dl
  00099	0f 84 ad 00 00
	00		 je	 $LN89@LoadString
  0009f	80 f2 ea	 xor	 dl, -22			; ffffffeaH
  000a2	88 55 ef	 mov	 BYTE PTR __k$[ebp+7], dl
  000a5	8a 50 08	 mov	 dl, BYTE PTR [eax+8]
  000a8	84 d2		 test	 dl, dl
  000aa	0f 84 96 00 00
	00		 je	 $LN88@LoadString
  000b0	80 f2 ed	 xor	 dl, -19			; ffffffedH
  000b3	88 55 f0	 mov	 BYTE PTR __k$[ebp+8], dl
  000b6	8a 50 09	 mov	 dl, BYTE PTR [eax+9]
  000b9	84 d2		 test	 dl, dl
  000bb	0f 84 80 00 00
	00		 je	 $LN87@LoadString
  000c1	32 d1		 xor	 dl, cl
  000c3	88 55 f1	 mov	 BYTE PTR __k$[ebp+9], dl
  000c6	8a 50 0a	 mov	 dl, BYTE PTR [eax+10]
  000c9	84 d2		 test	 dl, dl
  000cb	74 6e		 je	 SHORT $LN86@LoadString
  000cd	80 f2 eb	 xor	 dl, -21			; ffffffebH
  000d0	88 55 f2	 mov	 BYTE PTR __k$[ebp+10], dl
  000d3	8a 50 0b	 mov	 dl, BYTE PTR [eax+11]
  000d6	84 d2		 test	 dl, dl
  000d8	74 5b		 je	 SHORT $LN85@LoadString
  000da	80 f2 ea	 xor	 dl, -22			; ffffffeaH
  000dd	80 78 0c 00	 cmp	 BYTE PTR [eax+12], 0
  000e1	88 55 f3	 mov	 BYTE PTR __k$[ebp+11], dl
  000e4	0f 84 8f 00 00
	00		 je	 $LN111@LoadString
  000ea	8a 50 0d	 mov	 dl, BYTE PTR [eax+13]
  000ed	84 d2		 test	 dl, dl
  000ef	74 3f		 je	 SHORT $LN83@LoadString
  000f1	32 d1		 xor	 dl, cl
  000f3	88 55 f5	 mov	 BYTE PTR __k$[ebp+13], dl
  000f6	8a 50 0e	 mov	 dl, BYTE PTR [eax+14]
  000f9	84 d2		 test	 dl, dl
  000fb	74 2d		 je	 SHORT $LN82@LoadString
  000fd	80 f2 eb	 xor	 dl, -21			; ffffffebH
  00100	88 55 f6	 mov	 BYTE PTR __k$[ebp+14], dl
  00103	8a 50 0f	 mov	 dl, BYTE PTR [eax+15]
  00106	84 d2		 test	 dl, dl
  00108	74 1a		 je	 SHORT $LN81@LoadString
  0010a	8a 40 10	 mov	 al, BYTE PTR [eax+16]
  0010d	80 f2 ea	 xor	 dl, -22			; ffffffeaH
  00110	88 55 f7	 mov	 BYTE PTR __k$[ebp+15], dl
  00113	84 c0		 test	 al, al
  00115	74 07		 je	 SHORT $LN80@LoadString
  00117	34 ed		 xor	 al, -19			; ffffffedH
  00119	88 45 f8	 mov	 BYTE PTR __k$[ebp+16], al
  0011c	eb 5b		 jmp	 SHORT $LN111@LoadString
$LN80@LoadString:
  0011e	c6 45 f8 ed	 mov	 BYTE PTR __k$[ebp+16], -19 ; ffffffedH
  00122	eb 55		 jmp	 SHORT $LN111@LoadString
$LN81@LoadString:
  00124	c6 45 f7 ea	 mov	 BYTE PTR __k$[ebp+15], -22 ; ffffffeaH
  00128	eb 4f		 jmp	 SHORT $LN111@LoadString
$LN82@LoadString:
  0012a	c6 45 f6 eb	 mov	 BYTE PTR __k$[ebp+14], -21 ; ffffffebH
  0012e	eb 49		 jmp	 SHORT $LN111@LoadString
$LN83@LoadString:
  00130	88 4d f5	 mov	 BYTE PTR __k$[ebp+13], cl
  00133	eb 44		 jmp	 SHORT $LN111@LoadString
$LN85@LoadString:
  00135	c6 45 f3 ea	 mov	 BYTE PTR __k$[ebp+11], -22 ; ffffffeaH
  00139	eb 3e		 jmp	 SHORT $LN111@LoadString
$LN86@LoadString:
  0013b	c6 45 f2 eb	 mov	 BYTE PTR __k$[ebp+10], -21 ; ffffffebH
  0013f	eb 38		 jmp	 SHORT $LN111@LoadString
$LN87@LoadString:
  00141	88 4d f1	 mov	 BYTE PTR __k$[ebp+9], cl
  00144	eb 33		 jmp	 SHORT $LN111@LoadString
$LN88@LoadString:
  00146	c6 45 f0 ed	 mov	 BYTE PTR __k$[ebp+8], -19 ; ffffffedH
  0014a	eb 2d		 jmp	 SHORT $LN111@LoadString
$LN89@LoadString:
  0014c	c6 45 ef ea	 mov	 BYTE PTR __k$[ebp+7], -22 ; ffffffeaH
  00150	eb 27		 jmp	 SHORT $LN111@LoadString
$LN90@LoadString:
  00152	c6 45 ee eb	 mov	 BYTE PTR __k$[ebp+6], -21 ; ffffffebH
  00156	eb 21		 jmp	 SHORT $LN111@LoadString
$LN91@LoadString:
  00158	88 4d ed	 mov	 BYTE PTR __k$[ebp+5], cl
  0015b	eb 1c		 jmp	 SHORT $LN111@LoadString
$LN92@LoadString:
  0015d	c6 45 ec ed	 mov	 BYTE PTR __k$[ebp+4], -19 ; ffffffedH
  00161	eb 16		 jmp	 SHORT $LN111@LoadString
$LN93@LoadString:
  00163	c6 45 eb ea	 mov	 BYTE PTR __k$[ebp+3], -22 ; ffffffeaH
  00167	eb 10		 jmp	 SHORT $LN111@LoadString
$LN94@LoadString:
  00169	c6 45 ea eb	 mov	 BYTE PTR __k$[ebp+2], -21 ; ffffffebH
  0016d	eb 0a		 jmp	 SHORT $LN111@LoadString
$LN95@LoadString:
  0016f	c6 45 e9 ec	 mov	 BYTE PTR __k$[ebp+1], -20 ; ffffffecH
  00173	eb 04		 jmp	 SHORT $LN111@LoadString
$LN96@LoadString:
  00175	c6 45 e8 ed	 mov	 BYTE PTR __k$[ebp], -19	; ffffffedH
$LN111@LoadString:
  00179	6a 03		 push	 3
  0017b	8d 45 e8	 lea	 eax, DWORD PTR __k$[ebp]
  0017e	c6 45 f4 00	 mov	 BYTE PTR __k$[ebp+12], 0
  00182	5a		 pop	 edx
$LL104@LoadString:
  00183	81 30 ed ec eb
	ea		 xor	 DWORD PTR [eax], -353637139 ; eaebecedH
  00189	83 c0 04	 add	 eax, 4
  0018c	4a		 dec	 edx
  0018d	75 f4		 jne	 SHORT $LL104@LoadString

; 163  : 		LoadString(_k, d, b, i);

  0018f	ff 75 14	 push	 DWORD PTR _i$[ebp]
  00192	8b 4d e4	 mov	 ecx, DWORD PTR _this$GSCopy$[ebp]
  00195	57		 push	 edi
  00196	56		 push	 esi
  00197	8d 45 e8	 lea	 eax, DWORD PTR __k$[ebp]
  0019a	50		 push	 eax
  0019b	ff 15 00 00 00
	00		 call	 DWORD PTR __imp_?LoadStringA@ioINILoader@@QAEXPBD0PADH@Z

; 164  : 	}

  001a1	8b 4d fc	 mov	 ecx, DWORD PTR __$ArrayPad$[ebp]
  001a4	5f		 pop	 edi
  001a5	33 cd		 xor	 ecx, ebp
  001a7	5e		 pop	 esi
  001a8	e8 00 00 00 00	 call	 @__security_check_cookie@4
  001ad	c9		 leave
  001ae	c2 10 00	 ret	 16			; 00000010H
??$LoadString_e@$0N@@ioINILoader@@QAEXAAY0N@$$CBDAAY00$$CBDPADH@Z ENDP ; ioINILoader::LoadString_e<13>
_TEXT	ENDS
PUBLIC	_this$GSCopy$
PUBLIC	__$ArrayPad$
PUBLIC	??$LoadString_e@$0BF@@ioINILoader@@QAEXAAY0BF@$$CBDAAY00$$CBDPADH@Z ; ioINILoader::LoadString_e<21>
; Function compile flags: /Ogsp
;	COMDAT ??$LoadString_e@$0BF@@ioINILoader@@QAEXAAY0BF@$$CBDAAY00$$CBDPADH@Z
_TEXT	SEGMENT
_this$GSCopy$ = -36					; size = 4
__k$ = -32						; size = 21
__$ArrayPad$ = -4					; size = 4
_k$ = 8							; size = 4
_d$ = 12						; size = 4
_b$ = 16						; size = 4
_i$ = 20						; size = 4
??$LoadString_e@$0BF@@ioINILoader@@QAEXAAY0BF@$$CBDAAY00$$CBDPADH@Z PROC ; ioINILoader::LoadString_e<21>, COMDAT
; _this$ = ecx

; 161  : 	{

  00000	55		 push	 ebp
  00001	8b ec		 mov	 ebp, esp
  00003	83 ec 24	 sub	 esp, 36			; 00000024H
  00006	a1 00 00 00 00	 mov	 eax, DWORD PTR ___security_cookie
  0000b	33 c5		 xor	 eax, ebp
  0000d	89 45 fc	 mov	 DWORD PTR __$ArrayPad$[ebp], eax
  00010	8b 45 08	 mov	 eax, DWORD PTR _k$[ebp]

; 162  : 		_ENCSTR(k, _k);

  00013	8a 10		 mov	 dl, BYTE PTR [eax]
  00015	53		 push	 ebx
  00016	56		 push	 esi
  00017	8b 75 0c	 mov	 esi, DWORD PTR _d$[ebp]
  0001a	57		 push	 edi
  0001b	8b 7d 10	 mov	 edi, DWORD PTR _b$[ebp]
  0001e	89 4d dc	 mov	 DWORD PTR _this$GSCopy$[ebp], ecx
  00021	84 d2		 test	 dl, dl
  00023	0f 84 f7 01 00
	00		 je	 $LN96@LoadString@2
  00029	80 f2 ed	 xor	 dl, -19			; ffffffedH
  0002c	88 55 e0	 mov	 BYTE PTR __k$[ebp], dl
  0002f	8a 50 01	 mov	 dl, BYTE PTR [eax+1]
  00032	84 d2		 test	 dl, dl
  00034	0f 84 e0 01 00
	00		 je	 $LN95@LoadString@2
  0003a	b1 ec		 mov	 cl, -20			; ffffffecH
  0003c	32 d1		 xor	 dl, cl
  0003e	88 55 e1	 mov	 BYTE PTR __k$[ebp+1], dl
  00041	8a 50 02	 mov	 dl, BYTE PTR [eax+2]
  00044	84 d2		 test	 dl, dl
  00046	0f 84 c8 01 00
	00		 je	 $LN94@LoadString@2
  0004c	b3 eb		 mov	 bl, -21			; ffffffebH
  0004e	32 d3		 xor	 dl, bl
  00050	88 55 e2	 mov	 BYTE PTR __k$[ebp+2], dl
  00053	8a 50 03	 mov	 dl, BYTE PTR [eax+3]
  00056	84 d2		 test	 dl, dl
  00058	0f 84 b0 01 00
	00		 je	 $LN93@LoadString@2
  0005e	80 f2 ea	 xor	 dl, -22			; ffffffeaH
  00061	88 55 e3	 mov	 BYTE PTR __k$[ebp+3], dl
  00064	8a 50 04	 mov	 dl, BYTE PTR [eax+4]
  00067	84 d2		 test	 dl, dl
  00069	0f 84 99 01 00
	00		 je	 $LN92@LoadString@2
  0006f	80 f2 ed	 xor	 dl, -19			; ffffffedH
  00072	88 55 e4	 mov	 BYTE PTR __k$[ebp+4], dl
  00075	8a 50 05	 mov	 dl, BYTE PTR [eax+5]
  00078	84 d2		 test	 dl, dl
  0007a	0f 84 83 01 00
	00		 je	 $LN91@LoadString@2
  00080	32 d1		 xor	 dl, cl
  00082	88 55 e5	 mov	 BYTE PTR __k$[ebp+5], dl
  00085	8a 50 06	 mov	 dl, BYTE PTR [eax+6]
  00088	84 d2		 test	 dl, dl
  0008a	0f 84 6e 01 00
	00		 je	 $LN90@LoadString@2
  00090	32 d3		 xor	 dl, bl
  00092	88 55 e6	 mov	 BYTE PTR __k$[ebp+6], dl
  00095	8a 50 07	 mov	 dl, BYTE PTR [eax+7]
  00098	84 d2		 test	 dl, dl
  0009a	0f 84 58 01 00
	00		 je	 $LN89@LoadString@2
  000a0	80 f2 ea	 xor	 dl, -22			; ffffffeaH
  000a3	88 55 e7	 mov	 BYTE PTR __k$[ebp+7], dl
  000a6	8a 50 08	 mov	 dl, BYTE PTR [eax+8]
  000a9	84 d2		 test	 dl, dl
  000ab	0f 84 41 01 00
	00		 je	 $LN88@LoadString@2
  000b1	80 f2 ed	 xor	 dl, -19			; ffffffedH
  000b4	88 55 e8	 mov	 BYTE PTR __k$[ebp+8], dl
  000b7	8a 50 09	 mov	 dl, BYTE PTR [eax+9]
  000ba	84 d2		 test	 dl, dl
  000bc	0f 84 2b 01 00
	00		 je	 $LN87@LoadString@2
  000c2	32 d1		 xor	 dl, cl
  000c4	88 55 e9	 mov	 BYTE PTR __k$[ebp+9], dl
  000c7	8a 50 0a	 mov	 dl, BYTE PTR [eax+10]
  000ca	84 d2		 test	 dl, dl
  000cc	0f 84 16 01 00
	00		 je	 $LN86@LoadString@2
  000d2	32 d3		 xor	 dl, bl
  000d4	88 55 ea	 mov	 BYTE PTR __k$[ebp+10], dl
  000d7	8a 50 0b	 mov	 dl, BYTE PTR [eax+11]
  000da	84 d2		 test	 dl, dl
  000dc	0f 84 00 01 00
	00		 je	 $LN85@LoadString@2
  000e2	80 f2 ea	 xor	 dl, -22			; ffffffeaH
  000e5	88 55 eb	 mov	 BYTE PTR __k$[ebp+11], dl
  000e8	8a 50 0c	 mov	 dl, BYTE PTR [eax+12]
  000eb	84 d2		 test	 dl, dl
  000ed	0f 84 e9 00 00
	00		 je	 $LN84@LoadString@2
  000f3	80 f2 ed	 xor	 dl, -19			; ffffffedH
  000f6	88 55 ec	 mov	 BYTE PTR __k$[ebp+12], dl
  000f9	8a 50 0d	 mov	 dl, BYTE PTR [eax+13]
  000fc	84 d2		 test	 dl, dl
  000fe	0f 84 d3 00 00
	00		 je	 $LN83@LoadString@2
  00104	32 d1		 xor	 dl, cl
  00106	88 55 ed	 mov	 BYTE PTR __k$[ebp+13], dl
  00109	8a 50 0e	 mov	 dl, BYTE PTR [eax+14]
  0010c	84 d2		 test	 dl, dl
  0010e	0f 84 be 00 00
	00		 je	 $LN82@LoadString@2
  00114	32 d3		 xor	 dl, bl
  00116	88 55 ee	 mov	 BYTE PTR __k$[ebp+14], dl
  00119	8a 50 0f	 mov	 dl, BYTE PTR [eax+15]
  0011c	84 d2		 test	 dl, dl
  0011e	0f 84 a8 00 00
	00		 je	 $LN81@LoadString@2
  00124	80 f2 ea	 xor	 dl, -22			; ffffffeaH
  00127	88 55 ef	 mov	 BYTE PTR __k$[ebp+15], dl
  0012a	8a 50 10	 mov	 dl, BYTE PTR [eax+16]
  0012d	84 d2		 test	 dl, dl
  0012f	0f 84 91 00 00
	00		 je	 $LN80@LoadString@2
  00135	80 f2 ed	 xor	 dl, -19			; ffffffedH
  00138	88 55 f0	 mov	 BYTE PTR __k$[ebp+16], dl
  0013b	8a 50 11	 mov	 dl, BYTE PTR [eax+17]
  0013e	84 d2		 test	 dl, dl
  00140	74 7f		 je	 SHORT $LN79@LoadString@2
  00142	32 d1		 xor	 dl, cl
  00144	88 55 f1	 mov	 BYTE PTR __k$[ebp+17], dl
  00147	8a 50 12	 mov	 dl, BYTE PTR [eax+18]
  0014a	84 d2		 test	 dl, dl
  0014c	74 6e		 je	 SHORT $LN78@LoadString@2
  0014e	32 d3		 xor	 dl, bl
  00150	88 55 f2	 mov	 BYTE PTR __k$[ebp+18], dl
  00153	8a 50 13	 mov	 dl, BYTE PTR [eax+19]
  00156	84 d2		 test	 dl, dl
  00158	74 5c		 je	 SHORT $LN77@LoadString@2
  0015a	80 f2 ea	 xor	 dl, -22			; ffffffeaH
  0015d	80 78 14 00	 cmp	 BYTE PTR [eax+20], 0
  00161	88 55 f3	 mov	 BYTE PTR __k$[ebp+19], dl
  00164	0f 84 ba 00 00
	00		 je	 $LN111@LoadString@2
  0016a	8a 50 15	 mov	 dl, BYTE PTR [eax+21]
  0016d	84 d2		 test	 dl, dl
  0016f	74 40		 je	 SHORT $LN75@LoadString@2
  00171	32 d1		 xor	 dl, cl
  00173	88 55 f5	 mov	 BYTE PTR __k$[ebp+21], dl
  00176	8a 50 16	 mov	 dl, BYTE PTR [eax+22]
  00179	84 d2		 test	 dl, dl
  0017b	74 2f		 je	 SHORT $LN74@LoadString@2
  0017d	32 d3		 xor	 dl, bl
  0017f	88 55 f6	 mov	 BYTE PTR __k$[ebp+22], dl
  00182	8a 50 17	 mov	 dl, BYTE PTR [eax+23]
  00185	84 d2		 test	 dl, dl
  00187	74 1d		 je	 SHORT $LN73@LoadString@2
  00189	8a 40 18	 mov	 al, BYTE PTR [eax+24]
  0018c	80 f2 ea	 xor	 dl, -22			; ffffffeaH
  0018f	88 55 f7	 mov	 BYTE PTR __k$[ebp+23], dl
  00192	84 c0		 test	 al, al
  00194	74 0a		 je	 SHORT $LN72@LoadString@2
  00196	34 ed		 xor	 al, -19			; ffffffedH
  00198	88 45 f8	 mov	 BYTE PTR __k$[ebp+24], al
  0019b	e9 84 00 00 00	 jmp	 $LN111@LoadString@2
$LN72@LoadString@2:
  001a0	c6 45 f8 ed	 mov	 BYTE PTR __k$[ebp+24], -19 ; ffffffedH
  001a4	eb 7e		 jmp	 SHORT $LN111@LoadString@2
$LN73@LoadString@2:
  001a6	c6 45 f7 ea	 mov	 BYTE PTR __k$[ebp+23], -22 ; ffffffeaH
  001aa	eb 78		 jmp	 SHORT $LN111@LoadString@2
$LN74@LoadString@2:
  001ac	88 5d f6	 mov	 BYTE PTR __k$[ebp+22], bl
  001af	eb 73		 jmp	 SHORT $LN111@LoadString@2
$LN75@LoadString@2:
  001b1	88 4d f5	 mov	 BYTE PTR __k$[ebp+21], cl
  001b4	eb 6e		 jmp	 SHORT $LN111@LoadString@2
$LN77@LoadString@2:
  001b6	c6 45 f3 ea	 mov	 BYTE PTR __k$[ebp+19], -22 ; ffffffeaH
  001ba	eb 68		 jmp	 SHORT $LN111@LoadString@2
$LN78@LoadString@2:
  001bc	88 5d f2	 mov	 BYTE PTR __k$[ebp+18], bl
  001bf	eb 63		 jmp	 SHORT $LN111@LoadString@2
$LN79@LoadString@2:
  001c1	88 4d f1	 mov	 BYTE PTR __k$[ebp+17], cl
  001c4	eb 5e		 jmp	 SHORT $LN111@LoadString@2
$LN80@LoadString@2:
  001c6	c6 45 f0 ed	 mov	 BYTE PTR __k$[ebp+16], -19 ; ffffffedH
  001ca	eb 58		 jmp	 SHORT $LN111@LoadString@2
$LN81@LoadString@2:
  001cc	c6 45 ef ea	 mov	 BYTE PTR __k$[ebp+15], -22 ; ffffffeaH
  001d0	eb 52		 jmp	 SHORT $LN111@LoadString@2
$LN82@LoadString@2:
  001d2	88 5d ee	 mov	 BYTE PTR __k$[ebp+14], bl
  001d5	eb 4d		 jmp	 SHORT $LN111@LoadString@2
$LN83@LoadString@2:
  001d7	88 4d ed	 mov	 BYTE PTR __k$[ebp+13], cl
  001da	eb 48		 jmp	 SHORT $LN111@LoadString@2
$LN84@LoadString@2:
  001dc	c6 45 ec ed	 mov	 BYTE PTR __k$[ebp+12], -19 ; ffffffedH
  001e0	eb 42		 jmp	 SHORT $LN111@LoadString@2
$LN85@LoadString@2:
  001e2	c6 45 eb ea	 mov	 BYTE PTR __k$[ebp+11], -22 ; ffffffeaH
  001e6	eb 3c		 jmp	 SHORT $LN111@LoadString@2
$LN86@LoadString@2:
  001e8	88 5d ea	 mov	 BYTE PTR __k$[ebp+10], bl
  001eb	eb 37		 jmp	 SHORT $LN111@LoadString@2
$LN87@LoadString@2:
  001ed	88 4d e9	 mov	 BYTE PTR __k$[ebp+9], cl
  001f0	eb 32		 jmp	 SHORT $LN111@LoadString@2
$LN88@LoadString@2:
  001f2	c6 45 e8 ed	 mov	 BYTE PTR __k$[ebp+8], -19 ; ffffffedH
  001f6	eb 2c		 jmp	 SHORT $LN111@LoadString@2
$LN89@LoadString@2:
  001f8	c6 45 e7 ea	 mov	 BYTE PTR __k$[ebp+7], -22 ; ffffffeaH
  001fc	eb 26		 jmp	 SHORT $LN111@LoadString@2
$LN90@LoadString@2:
  001fe	88 5d e6	 mov	 BYTE PTR __k$[ebp+6], bl
  00201	eb 21		 jmp	 SHORT $LN111@LoadString@2
$LN91@LoadString@2:
  00203	88 4d e5	 mov	 BYTE PTR __k$[ebp+5], cl
  00206	eb 1c		 jmp	 SHORT $LN111@LoadString@2
$LN92@LoadString@2:
  00208	c6 45 e4 ed	 mov	 BYTE PTR __k$[ebp+4], -19 ; ffffffedH
  0020c	eb 16		 jmp	 SHORT $LN111@LoadString@2
$LN93@LoadString@2:
  0020e	c6 45 e3 ea	 mov	 BYTE PTR __k$[ebp+3], -22 ; ffffffeaH
  00212	eb 10		 jmp	 SHORT $LN111@LoadString@2
$LN94@LoadString@2:
  00214	c6 45 e2 eb	 mov	 BYTE PTR __k$[ebp+2], -21 ; ffffffebH
  00218	eb 0a		 jmp	 SHORT $LN111@LoadString@2
$LN95@LoadString@2:
  0021a	c6 45 e1 ec	 mov	 BYTE PTR __k$[ebp+1], -20 ; ffffffecH
  0021e	eb 04		 jmp	 SHORT $LN111@LoadString@2
$LN96@LoadString@2:
  00220	c6 45 e0 ed	 mov	 BYTE PTR __k$[ebp], -19	; ffffffedH
$LN111@LoadString@2:
  00224	6a 05		 push	 5
  00226	8d 45 e0	 lea	 eax, DWORD PTR __k$[ebp]
  00229	c6 45 f4 00	 mov	 BYTE PTR __k$[ebp+20], 0
  0022d	5a		 pop	 edx
$LL104@LoadString@2:
  0022e	81 30 ed ec eb
	ea		 xor	 DWORD PTR [eax], -353637139 ; eaebecedH
  00234	83 c0 04	 add	 eax, 4
  00237	4a		 dec	 edx
  00238	75 f4		 jne	 SHORT $LL104@LoadString@2

; 163  : 		LoadString(_k, d, b, i);

  0023a	ff 75 14	 push	 DWORD PTR _i$[ebp]
  0023d	8b 4d dc	 mov	 ecx, DWORD PTR _this$GSCopy$[ebp]
  00240	57		 push	 edi
  00241	56		 push	 esi
  00242	8d 45 e0	 lea	 eax, DWORD PTR __k$[ebp]
  00245	50		 push	 eax
  00246	ff 15 00 00 00
	00		 call	 DWORD PTR __imp_?LoadStringA@ioINILoader@@QAEXPBD0PADH@Z

; 164  : 	}

  0024c	8b 4d fc	 mov	 ecx, DWORD PTR __$ArrayPad$[ebp]
  0024f	5f		 pop	 edi
  00250	5e		 pop	 esi
  00251	33 cd		 xor	 ecx, ebp
  00253	5b		 pop	 ebx
  00254	e8 00 00 00 00	 call	 @__security_check_cookie@4
  00259	c9		 leave
  0025a	c2 10 00	 ret	 16			; 00000010H
??$LoadString_e@$0BF@@ioINILoader@@QAEXAAY0BF@$$CBDAAY00$$CBDPADH@Z ENDP ; ioINILoader::LoadString_e<21>
_TEXT	ENDS
PUBLIC	_this$GSCopy$
PUBLIC	__$ArrayPad$
PUBLIC	??$LoadString_e@$0BA@@ioINILoader@@QAEXAAY0BA@$$CBDAAY00$$CBDPADH@Z ; ioINILoader::LoadString_e<16>
; Function compile flags: /Ogsp
;	COMDAT ??$LoadString_e@$0BA@@ioINILoader@@QAEXAAY0BA@$$CBDAAY00$$CBDPADH@Z
_TEXT	SEGMENT
_this$GSCopy$ = -28					; size = 4
__k$ = -24						; size = 16
__$ArrayPad$ = -4					; size = 4
_k$ = 8							; size = 4
_d$ = 12						; size = 4
_b$ = 16						; size = 4
_i$ = 20						; size = 4
??$LoadString_e@$0BA@@ioINILoader@@QAEXAAY0BA@$$CBDAAY00$$CBDPADH@Z PROC ; ioINILoader::LoadString_e<16>, COMDAT
; _this$ = ecx

; 161  : 	{

  00000	55		 push	 ebp
  00001	8b ec		 mov	 ebp, esp
  00003	83 ec 1c	 sub	 esp, 28			; 0000001cH
  00006	a1 00 00 00 00	 mov	 eax, DWORD PTR ___security_cookie
  0000b	33 c5		 xor	 eax, ebp
  0000d	89 45 fc	 mov	 DWORD PTR __$ArrayPad$[ebp], eax
  00010	8b 45 08	 mov	 eax, DWORD PTR _k$[ebp]

; 162  : 		_ENCSTR(k, _k);

  00013	8a 10		 mov	 dl, BYTE PTR [eax]
  00015	56		 push	 esi
  00016	8b 75 0c	 mov	 esi, DWORD PTR _d$[ebp]
  00019	57		 push	 edi
  0001a	8b 7d 10	 mov	 edi, DWORD PTR _b$[ebp]
  0001d	89 4d e4	 mov	 DWORD PTR _this$GSCopy$[ebp], ecx
  00020	84 d2		 test	 dl, dl
  00022	0f 84 8c 01 00
	00		 je	 $LN96@LoadString@3
  00028	80 f2 ed	 xor	 dl, -19			; ffffffedH
  0002b	88 55 e8	 mov	 BYTE PTR __k$[ebp], dl
  0002e	8a 50 01	 mov	 dl, BYTE PTR [eax+1]
  00031	84 d2		 test	 dl, dl
  00033	0f 84 75 01 00
	00		 je	 $LN95@LoadString@3
  00039	80 f2 ec	 xor	 dl, -20			; ffffffecH
  0003c	88 55 e9	 mov	 BYTE PTR __k$[ebp+1], dl
  0003f	8a 50 02	 mov	 dl, BYTE PTR [eax+2]
  00042	84 d2		 test	 dl, dl
  00044	0f 84 5e 01 00
	00		 je	 $LN94@LoadString@3
  0004a	b1 eb		 mov	 cl, -21			; ffffffebH
  0004c	32 d1		 xor	 dl, cl
  0004e	88 55 ea	 mov	 BYTE PTR __k$[ebp+2], dl
  00051	8a 50 03	 mov	 dl, BYTE PTR [eax+3]
  00054	84 d2		 test	 dl, dl
  00056	0f 84 46 01 00
	00		 je	 $LN93@LoadString@3
  0005c	80 f2 ea	 xor	 dl, -22			; ffffffeaH
  0005f	88 55 eb	 mov	 BYTE PTR __k$[ebp+3], dl
  00062	8a 50 04	 mov	 dl, BYTE PTR [eax+4]
  00065	84 d2		 test	 dl, dl
  00067	0f 84 2f 01 00
	00		 je	 $LN92@LoadString@3
  0006d	80 f2 ed	 xor	 dl, -19			; ffffffedH
  00070	88 55 ec	 mov	 BYTE PTR __k$[ebp+4], dl
  00073	8a 50 05	 mov	 dl, BYTE PTR [eax+5]
  00076	84 d2		 test	 dl, dl
  00078	0f 84 18 01 00
	00		 je	 $LN91@LoadString@3
  0007e	80 f2 ec	 xor	 dl, -20			; ffffffecH
  00081	88 55 ed	 mov	 BYTE PTR __k$[ebp+5], dl
  00084	8a 50 06	 mov	 dl, BYTE PTR [eax+6]
  00087	84 d2		 test	 dl, dl
  00089	0f 84 02 01 00
	00		 je	 $LN90@LoadString@3
  0008f	32 d1		 xor	 dl, cl
  00091	88 55 ee	 mov	 BYTE PTR __k$[ebp+6], dl
  00094	8a 50 07	 mov	 dl, BYTE PTR [eax+7]
  00097	84 d2		 test	 dl, dl
  00099	0f 84 ec 00 00
	00		 je	 $LN89@LoadString@3
  0009f	80 f2 ea	 xor	 dl, -22			; ffffffeaH
  000a2	88 55 ef	 mov	 BYTE PTR __k$[ebp+7], dl
  000a5	8a 50 08	 mov	 dl, BYTE PTR [eax+8]
  000a8	84 d2		 test	 dl, dl
  000aa	0f 84 d5 00 00
	00		 je	 $LN88@LoadString@3
  000b0	80 f2 ed	 xor	 dl, -19			; ffffffedH
  000b3	88 55 f0	 mov	 BYTE PTR __k$[ebp+8], dl
  000b6	8a 50 09	 mov	 dl, BYTE PTR [eax+9]
  000b9	84 d2		 test	 dl, dl
  000bb	0f 84 be 00 00
	00		 je	 $LN87@LoadString@3
  000c1	80 f2 ec	 xor	 dl, -20			; ffffffecH
  000c4	88 55 f1	 mov	 BYTE PTR __k$[ebp+9], dl
  000c7	8a 50 0a	 mov	 dl, BYTE PTR [eax+10]
  000ca	84 d2		 test	 dl, dl
  000cc	0f 84 a8 00 00
	00		 je	 $LN86@LoadString@3
  000d2	32 d1		 xor	 dl, cl
  000d4	88 55 f2	 mov	 BYTE PTR __k$[ebp+10], dl
  000d7	8a 50 0b	 mov	 dl, BYTE PTR [eax+11]
  000da	84 d2		 test	 dl, dl
  000dc	0f 84 92 00 00
	00		 je	 $LN85@LoadString@3
  000e2	80 f2 ea	 xor	 dl, -22			; ffffffeaH
  000e5	88 55 f3	 mov	 BYTE PTR __k$[ebp+11], dl
  000e8	8a 50 0c	 mov	 dl, BYTE PTR [eax+12]
  000eb	84 d2		 test	 dl, dl
  000ed	74 7f		 je	 SHORT $LN84@LoadString@3
  000ef	80 f2 ed	 xor	 dl, -19			; ffffffedH
  000f2	88 55 f4	 mov	 BYTE PTR __k$[ebp+12], dl
  000f5	8a 50 0d	 mov	 dl, BYTE PTR [eax+13]
  000f8	84 d2		 test	 dl, dl
  000fa	74 6c		 je	 SHORT $LN83@LoadString@3
  000fc	80 f2 ec	 xor	 dl, -20			; ffffffecH
  000ff	88 55 f5	 mov	 BYTE PTR __k$[ebp+13], dl
  00102	8a 50 0e	 mov	 dl, BYTE PTR [eax+14]
  00105	84 d2		 test	 dl, dl
  00107	74 5a		 je	 SHORT $LN82@LoadString@3
  00109	32 d1		 xor	 dl, cl
  0010b	80 78 0f 00	 cmp	 BYTE PTR [eax+15], 0
  0010f	88 55 f6	 mov	 BYTE PTR __k$[ebp+14], dl
  00112	0f 84 a0 00 00
	00		 je	 $LN111@LoadString@3
  00118	8a 50 10	 mov	 dl, BYTE PTR [eax+16]
  0011b	84 d2		 test	 dl, dl
  0011d	74 3e		 je	 SHORT $LN80@LoadString@3
  0011f	80 f2 ed	 xor	 dl, -19			; ffffffedH
  00122	88 55 f8	 mov	 BYTE PTR __k$[ebp+16], dl
  00125	8a 50 11	 mov	 dl, BYTE PTR [eax+17]
  00128	84 d2		 test	 dl, dl
  0012a	74 2b		 je	 SHORT $LN79@LoadString@3
  0012c	80 f2 ec	 xor	 dl, -20			; ffffffecH
  0012f	88 55 f9	 mov	 BYTE PTR __k$[ebp+17], dl
  00132	8a 50 12	 mov	 dl, BYTE PTR [eax+18]
  00135	84 d2		 test	 dl, dl
  00137	74 19		 je	 SHORT $LN78@LoadString@3
  00139	8a 40 13	 mov	 al, BYTE PTR [eax+19]
  0013c	32 d1		 xor	 dl, cl
  0013e	88 55 fa	 mov	 BYTE PTR __k$[ebp+18], dl
  00141	84 c0		 test	 al, al
  00143	74 07		 je	 SHORT $LN77@LoadString@3
  00145	34 ea		 xor	 al, -22			; ffffffeaH
  00147	88 45 fb	 mov	 BYTE PTR __k$[ebp+19], al
  0014a	eb 6c		 jmp	 SHORT $LN111@LoadString@3
$LN77@LoadString@3:
  0014c	c6 45 fb ea	 mov	 BYTE PTR __k$[ebp+19], -22 ; ffffffeaH
  00150	eb 66		 jmp	 SHORT $LN111@LoadString@3
$LN78@LoadString@3:
  00152	88 4d fa	 mov	 BYTE PTR __k$[ebp+18], cl
  00155	eb 61		 jmp	 SHORT $LN111@LoadString@3
$LN79@LoadString@3:
  00157	c6 45 f9 ec	 mov	 BYTE PTR __k$[ebp+17], -20 ; ffffffecH
  0015b	eb 5b		 jmp	 SHORT $LN111@LoadString@3
$LN80@LoadString@3:
  0015d	c6 45 f8 ed	 mov	 BYTE PTR __k$[ebp+16], -19 ; ffffffedH
  00161	eb 55		 jmp	 SHORT $LN111@LoadString@3
$LN82@LoadString@3:
  00163	88 4d f6	 mov	 BYTE PTR __k$[ebp+14], cl
  00166	eb 50		 jmp	 SHORT $LN111@LoadString@3
$LN83@LoadString@3:
  00168	c6 45 f5 ec	 mov	 BYTE PTR __k$[ebp+13], -20 ; ffffffecH
  0016c	eb 4a		 jmp	 SHORT $LN111@LoadString@3
$LN84@LoadString@3:
  0016e	c6 45 f4 ed	 mov	 BYTE PTR __k$[ebp+12], -19 ; ffffffedH
  00172	eb 44		 jmp	 SHORT $LN111@LoadString@3
$LN85@LoadString@3:
  00174	c6 45 f3 ea	 mov	 BYTE PTR __k$[ebp+11], -22 ; ffffffeaH
  00178	eb 3e		 jmp	 SHORT $LN111@LoadString@3
$LN86@LoadString@3:
  0017a	88 4d f2	 mov	 BYTE PTR __k$[ebp+10], cl
  0017d	eb 39		 jmp	 SHORT $LN111@LoadString@3
$LN87@LoadString@3:
  0017f	c6 45 f1 ec	 mov	 BYTE PTR __k$[ebp+9], -20 ; ffffffecH
  00183	eb 33		 jmp	 SHORT $LN111@LoadString@3
$LN88@LoadString@3:
  00185	c6 45 f0 ed	 mov	 BYTE PTR __k$[ebp+8], -19 ; ffffffedH
  00189	eb 2d		 jmp	 SHORT $LN111@LoadString@3
$LN89@LoadString@3:
  0018b	c6 45 ef ea	 mov	 BYTE PTR __k$[ebp+7], -22 ; ffffffeaH
  0018f	eb 27		 jmp	 SHORT $LN111@LoadString@3
$LN90@LoadString@3:
  00191	88 4d ee	 mov	 BYTE PTR __k$[ebp+6], cl
  00194	eb 22		 jmp	 SHORT $LN111@LoadString@3
$LN91@LoadString@3:
  00196	c6 45 ed ec	 mov	 BYTE PTR __k$[ebp+5], -20 ; ffffffecH
  0019a	eb 1c		 jmp	 SHORT $LN111@LoadString@3
$LN92@LoadString@3:
  0019c	c6 45 ec ed	 mov	 BYTE PTR __k$[ebp+4], -19 ; ffffffedH
  001a0	eb 16		 jmp	 SHORT $LN111@LoadString@3
$LN93@LoadString@3:
  001a2	c6 45 eb ea	 mov	 BYTE PTR __k$[ebp+3], -22 ; ffffffeaH
  001a6	eb 10		 jmp	 SHORT $LN111@LoadString@3
$LN94@LoadString@3:
  001a8	c6 45 ea eb	 mov	 BYTE PTR __k$[ebp+2], -21 ; ffffffebH
  001ac	eb 0a		 jmp	 SHORT $LN111@LoadString@3
$LN95@LoadString@3:
  001ae	c6 45 e9 ec	 mov	 BYTE PTR __k$[ebp+1], -20 ; ffffffecH
  001b2	eb 04		 jmp	 SHORT $LN111@LoadString@3
$LN96@LoadString@3:
  001b4	c6 45 e8 ed	 mov	 BYTE PTR __k$[ebp], -19	; ffffffedH
$LN111@LoadString@3:
  001b8	6a 03		 push	 3
  001ba	8d 45 e8	 lea	 eax, DWORD PTR __k$[ebp]
  001bd	c6 45 f7 00	 mov	 BYTE PTR __k$[ebp+15], 0
  001c1	5a		 pop	 edx
$LL104@LoadString@3:
  001c2	81 30 ed ec eb
	ea		 xor	 DWORD PTR [eax], -353637139 ; eaebecedH
  001c8	83 c0 04	 add	 eax, 4
  001cb	4a		 dec	 edx
  001cc	75 f4		 jne	 SHORT $LL104@LoadString@3
  001ce	6a 0c		 push	 12			; 0000000cH
  001d0	58		 pop	 eax
$LL101@LoadString@3:
  001d1	8b c8		 mov	 ecx, eax
  001d3	81 e1 03 00 00
	80		 and	 ecx, -2147483645	; 80000003H
  001d9	79 05		 jns	 SHORT $LN112@LoadString@3
  001db	49		 dec	 ecx
  001dc	83 c9 fc	 or	 ecx, -4			; fffffffcH
  001df	41		 inc	 ecx
$LN112@LoadString@3:
  001e0	b2 ed		 mov	 dl, -19			; ffffffedH
  001e2	2a d1		 sub	 dl, cl
  001e4	30 54 05 e8	 xor	 BYTE PTR __k$[ebp+eax], dl
  001e8	40		 inc	 eax
  001e9	83 f8 0f	 cmp	 eax, 15			; 0000000fH
  001ec	7c e3		 jl	 SHORT $LL101@LoadString@3

; 163  : 		LoadString(_k, d, b, i);

  001ee	ff 75 14	 push	 DWORD PTR _i$[ebp]
  001f1	8b 4d e4	 mov	 ecx, DWORD PTR _this$GSCopy$[ebp]
  001f4	57		 push	 edi
  001f5	56		 push	 esi
  001f6	8d 45 e8	 lea	 eax, DWORD PTR __k$[ebp]
  001f9	50		 push	 eax
  001fa	ff 15 00 00 00
	00		 call	 DWORD PTR __imp_?LoadStringA@ioINILoader@@QAEXPBD0PADH@Z

; 164  : 	}

  00200	8b 4d fc	 mov	 ecx, DWORD PTR __$ArrayPad$[ebp]
  00203	5f		 pop	 edi
  00204	33 cd		 xor	 ecx, ebp
  00206	5e		 pop	 esi
  00207	e8 00 00 00 00	 call	 @__security_check_cookie@4
  0020c	c9		 leave
  0020d	c2 10 00	 ret	 16			; 00000010H
??$LoadString_e@$0BA@@ioINILoader@@QAEXAAY0BA@$$CBDAAY00$$CBDPADH@Z ENDP ; ioINILoader::LoadString_e<16>
_TEXT	ENDS
PUBLIC	_this$GSCopy$
PUBLIC	__$ArrayPad$
PUBLIC	??$LoadString_e@$0BB@@ioINILoader@@QAEXAAY0BB@$$CBDAAY00$$CBDPADH@Z ; ioINILoader::LoadString_e<17>
; Function compile flags: /Ogsp
;	COMDAT ??$LoadString_e@$0BB@@ioINILoader@@QAEXAAY0BB@$$CBDAAY00$$CBDPADH@Z
_TEXT	SEGMENT
_this$GSCopy$ = -32					; size = 4
__k$ = -28						; size = 17
__$ArrayPad$ = -4					; size = 4
_k$ = 8							; size = 4
_d$ = 12						; size = 4
_b$ = 16						; size = 4
_i$ = 20						; size = 4
??$LoadString_e@$0BB@@ioINILoader@@QAEXAAY0BB@$$CBDAAY00$$CBDPADH@Z PROC ; ioINILoader::LoadString_e<17>, COMDAT
; _this$ = ecx

; 161  : 	{

  00000	55		 push	 ebp
  00001	8b ec		 mov	 ebp, esp
  00003	83 ec 20	 sub	 esp, 32			; 00000020H
  00006	a1 00 00 00 00	 mov	 eax, DWORD PTR ___security_cookie
  0000b	33 c5		 xor	 eax, ebp
  0000d	89 45 fc	 mov	 DWORD PTR __$ArrayPad$[ebp], eax
  00010	8b 45 08	 mov	 eax, DWORD PTR _k$[ebp]

; 162  : 		_ENCSTR(k, _k);

  00013	8a 10		 mov	 dl, BYTE PTR [eax]
  00015	56		 push	 esi
  00016	8b 75 0c	 mov	 esi, DWORD PTR _d$[ebp]
  00019	57		 push	 edi
  0001a	8b 7d 10	 mov	 edi, DWORD PTR _b$[ebp]
  0001d	89 4d e0	 mov	 DWORD PTR _this$GSCopy$[ebp], ecx
  00020	84 d2		 test	 dl, dl
  00022	0f 84 a7 01 00
	00		 je	 $LN96@LoadString@4
  00028	80 f2 ed	 xor	 dl, -19			; ffffffedH
  0002b	88 55 e4	 mov	 BYTE PTR __k$[ebp], dl
  0002e	8a 50 01	 mov	 dl, BYTE PTR [eax+1]
  00031	84 d2		 test	 dl, dl
  00033	0f 84 90 01 00
	00		 je	 $LN95@LoadString@4
  00039	b1 ec		 mov	 cl, -20			; ffffffecH
  0003b	32 d1		 xor	 dl, cl
  0003d	88 55 e5	 mov	 BYTE PTR __k$[ebp+1], dl
  00040	8a 50 02	 mov	 dl, BYTE PTR [eax+2]
  00043	84 d2		 test	 dl, dl
  00045	0f 84 78 01 00
	00		 je	 $LN94@LoadString@4
  0004b	80 f2 eb	 xor	 dl, -21			; ffffffebH
  0004e	88 55 e6	 mov	 BYTE PTR __k$[ebp+2], dl
  00051	8a 50 03	 mov	 dl, BYTE PTR [eax+3]
  00054	84 d2		 test	 dl, dl
  00056	0f 84 61 01 00
	00		 je	 $LN93@LoadString@4
  0005c	80 f2 ea	 xor	 dl, -22			; ffffffeaH
  0005f	88 55 e7	 mov	 BYTE PTR __k$[ebp+3], dl
  00062	8a 50 04	 mov	 dl, BYTE PTR [eax+4]
  00065	84 d2		 test	 dl, dl
  00067	0f 84 4a 01 00
	00		 je	 $LN92@LoadString@4
  0006d	80 f2 ed	 xor	 dl, -19			; ffffffedH
  00070	88 55 e8	 mov	 BYTE PTR __k$[ebp+4], dl
  00073	8a 50 05	 mov	 dl, BYTE PTR [eax+5]
  00076	84 d2		 test	 dl, dl
  00078	0f 84 34 01 00
	00		 je	 $LN91@LoadString@4
  0007e	32 d1		 xor	 dl, cl
  00080	88 55 e9	 mov	 BYTE PTR __k$[ebp+5], dl
  00083	8a 50 06	 mov	 dl, BYTE PTR [eax+6]
  00086	84 d2		 test	 dl, dl
  00088	0f 84 1e 01 00
	00		 je	 $LN90@LoadString@4
  0008e	80 f2 eb	 xor	 dl, -21			; ffffffebH
  00091	88 55 ea	 mov	 BYTE PTR __k$[ebp+6], dl
  00094	8a 50 07	 mov	 dl, BYTE PTR [eax+7]
  00097	84 d2		 test	 dl, dl
  00099	0f 84 07 01 00
	00		 je	 $LN89@LoadString@4
  0009f	80 f2 ea	 xor	 dl, -22			; ffffffeaH
  000a2	88 55 eb	 mov	 BYTE PTR __k$[ebp+7], dl
  000a5	8a 50 08	 mov	 dl, BYTE PTR [eax+8]
  000a8	84 d2		 test	 dl, dl
  000aa	0f 84 f0 00 00
	00		 je	 $LN88@LoadString@4
  000b0	80 f2 ed	 xor	 dl, -19			; ffffffedH
  000b3	88 55 ec	 mov	 BYTE PTR __k$[ebp+8], dl
  000b6	8a 50 09	 mov	 dl, BYTE PTR [eax+9]
  000b9	84 d2		 test	 dl, dl
  000bb	0f 84 da 00 00
	00		 je	 $LN87@LoadString@4
  000c1	32 d1		 xor	 dl, cl
  000c3	88 55 ed	 mov	 BYTE PTR __k$[ebp+9], dl
  000c6	8a 50 0a	 mov	 dl, BYTE PTR [eax+10]
  000c9	84 d2		 test	 dl, dl
  000cb	0f 84 c4 00 00
	00		 je	 $LN86@LoadString@4
  000d1	80 f2 eb	 xor	 dl, -21			; ffffffebH
  000d4	88 55 ee	 mov	 BYTE PTR __k$[ebp+10], dl
  000d7	8a 50 0b	 mov	 dl, BYTE PTR [eax+11]
  000da	84 d2		 test	 dl, dl
  000dc	0f 84 ad 00 00
	00		 je	 $LN85@LoadString@4
  000e2	80 f2 ea	 xor	 dl, -22			; ffffffeaH
  000e5	88 55 ef	 mov	 BYTE PTR __k$[ebp+11], dl
  000e8	8a 50 0c	 mov	 dl, BYTE PTR [eax+12]
  000eb	84 d2		 test	 dl, dl
  000ed	0f 84 96 00 00
	00		 je	 $LN84@LoadString@4
  000f3	80 f2 ed	 xor	 dl, -19			; ffffffedH
  000f6	88 55 f0	 mov	 BYTE PTR __k$[ebp+12], dl
  000f9	8a 50 0d	 mov	 dl, BYTE PTR [eax+13]
  000fc	84 d2		 test	 dl, dl
  000fe	0f 84 80 00 00
	00		 je	 $LN83@LoadString@4
  00104	32 d1		 xor	 dl, cl
  00106	88 55 f1	 mov	 BYTE PTR __k$[ebp+13], dl
  00109	8a 50 0e	 mov	 dl, BYTE PTR [eax+14]
  0010c	84 d2		 test	 dl, dl
  0010e	74 6e		 je	 SHORT $LN82@LoadString@4
  00110	80 f2 eb	 xor	 dl, -21			; ffffffebH
  00113	88 55 f2	 mov	 BYTE PTR __k$[ebp+14], dl
  00116	8a 50 0f	 mov	 dl, BYTE PTR [eax+15]
  00119	84 d2		 test	 dl, dl
  0011b	74 5b		 je	 SHORT $LN81@LoadString@4
  0011d	80 f2 ea	 xor	 dl, -22			; ffffffeaH
  00120	80 78 10 00	 cmp	 BYTE PTR [eax+16], 0
  00124	88 55 f3	 mov	 BYTE PTR __k$[ebp+15], dl
  00127	0f 84 a6 00 00
	00		 je	 $LN111@LoadString@4
  0012d	8a 50 11	 mov	 dl, BYTE PTR [eax+17]
  00130	84 d2		 test	 dl, dl
  00132	74 3f		 je	 SHORT $LN79@LoadString@4
  00134	32 d1		 xor	 dl, cl
  00136	88 55 f5	 mov	 BYTE PTR __k$[ebp+17], dl
  00139	8a 50 12	 mov	 dl, BYTE PTR [eax+18]
  0013c	84 d2		 test	 dl, dl
  0013e	74 2d		 je	 SHORT $LN78@LoadString@4
  00140	80 f2 eb	 xor	 dl, -21			; ffffffebH
  00143	88 55 f6	 mov	 BYTE PTR __k$[ebp+18], dl
  00146	8a 50 13	 mov	 dl, BYTE PTR [eax+19]
  00149	84 d2		 test	 dl, dl
  0014b	74 1a		 je	 SHORT $LN77@LoadString@4
  0014d	8a 40 14	 mov	 al, BYTE PTR [eax+20]
  00150	80 f2 ea	 xor	 dl, -22			; ffffffeaH
  00153	88 55 f7	 mov	 BYTE PTR __k$[ebp+19], dl
  00156	84 c0		 test	 al, al
  00158	74 07		 je	 SHORT $LN76@LoadString@4
  0015a	34 ed		 xor	 al, -19			; ffffffedH
  0015c	88 45 f8	 mov	 BYTE PTR __k$[ebp+20], al
  0015f	eb 72		 jmp	 SHORT $LN111@LoadString@4
$LN76@LoadString@4:
  00161	c6 45 f8 ed	 mov	 BYTE PTR __k$[ebp+20], -19 ; ffffffedH
  00165	eb 6c		 jmp	 SHORT $LN111@LoadString@4
$LN77@LoadString@4:
  00167	c6 45 f7 ea	 mov	 BYTE PTR __k$[ebp+19], -22 ; ffffffeaH
  0016b	eb 66		 jmp	 SHORT $LN111@LoadString@4
$LN78@LoadString@4:
  0016d	c6 45 f6 eb	 mov	 BYTE PTR __k$[ebp+18], -21 ; ffffffebH
  00171	eb 60		 jmp	 SHORT $LN111@LoadString@4
$LN79@LoadString@4:
  00173	88 4d f5	 mov	 BYTE PTR __k$[ebp+17], cl
  00176	eb 5b		 jmp	 SHORT $LN111@LoadString@4
$LN81@LoadString@4:
  00178	c6 45 f3 ea	 mov	 BYTE PTR __k$[ebp+15], -22 ; ffffffeaH
  0017c	eb 55		 jmp	 SHORT $LN111@LoadString@4
$LN82@LoadString@4:
  0017e	c6 45 f2 eb	 mov	 BYTE PTR __k$[ebp+14], -21 ; ffffffebH
  00182	eb 4f		 jmp	 SHORT $LN111@LoadString@4
$LN83@LoadString@4:
  00184	88 4d f1	 mov	 BYTE PTR __k$[ebp+13], cl
  00187	eb 4a		 jmp	 SHORT $LN111@LoadString@4
$LN84@LoadString@4:
  00189	c6 45 f0 ed	 mov	 BYTE PTR __k$[ebp+12], -19 ; ffffffedH
  0018d	eb 44		 jmp	 SHORT $LN111@LoadString@4
$LN85@LoadString@4:
  0018f	c6 45 ef ea	 mov	 BYTE PTR __k$[ebp+11], -22 ; ffffffeaH
  00193	eb 3e		 jmp	 SHORT $LN111@LoadString@4
$LN86@LoadString@4:
  00195	c6 45 ee eb	 mov	 BYTE PTR __k$[ebp+10], -21 ; ffffffebH
  00199	eb 38		 jmp	 SHORT $LN111@LoadString@4
$LN87@LoadString@4:
  0019b	88 4d ed	 mov	 BYTE PTR __k$[ebp+9], cl
  0019e	eb 33		 jmp	 SHORT $LN111@LoadString@4
$LN88@LoadString@4:
  001a0	c6 45 ec ed	 mov	 BYTE PTR __k$[ebp+8], -19 ; ffffffedH
  001a4	eb 2d		 jmp	 SHORT $LN111@LoadString@4
$LN89@LoadString@4:
  001a6	c6 45 eb ea	 mov	 BYTE PTR __k$[ebp+7], -22 ; ffffffeaH
  001aa	eb 27		 jmp	 SHORT $LN111@LoadString@4
$LN90@LoadString@4:
  001ac	c6 45 ea eb	 mov	 BYTE PTR __k$[ebp+6], -21 ; ffffffebH
  001b0	eb 21		 jmp	 SHORT $LN111@LoadString@4
$LN91@LoadString@4:
  001b2	88 4d e9	 mov	 BYTE PTR __k$[ebp+5], cl
  001b5	eb 1c		 jmp	 SHORT $LN111@LoadString@4
$LN92@LoadString@4:
  001b7	c6 45 e8 ed	 mov	 BYTE PTR __k$[ebp+4], -19 ; ffffffedH
  001bb	eb 16		 jmp	 SHORT $LN111@LoadString@4
$LN93@LoadString@4:
  001bd	c6 45 e7 ea	 mov	 BYTE PTR __k$[ebp+3], -22 ; ffffffeaH
  001c1	eb 10		 jmp	 SHORT $LN111@LoadString@4
$LN94@LoadString@4:
  001c3	c6 45 e6 eb	 mov	 BYTE PTR __k$[ebp+2], -21 ; ffffffebH
  001c7	eb 0a		 jmp	 SHORT $LN111@LoadString@4
$LN95@LoadString@4:
  001c9	c6 45 e5 ec	 mov	 BYTE PTR __k$[ebp+1], -20 ; ffffffecH
  001cd	eb 04		 jmp	 SHORT $LN111@LoadString@4
$LN96@LoadString@4:
  001cf	c6 45 e4 ed	 mov	 BYTE PTR __k$[ebp], -19	; ffffffedH
$LN111@LoadString@4:
  001d3	6a 04		 push	 4
  001d5	8d 45 e4	 lea	 eax, DWORD PTR __k$[ebp]
  001d8	c6 45 f4 00	 mov	 BYTE PTR __k$[ebp+16], 0
  001dc	5a		 pop	 edx
$LL104@LoadString@4:
  001dd	81 30 ed ec eb
	ea		 xor	 DWORD PTR [eax], -353637139 ; eaebecedH
  001e3	83 c0 04	 add	 eax, 4
  001e6	4a		 dec	 edx
  001e7	75 f4		 jne	 SHORT $LL104@LoadString@4

; 163  : 		LoadString(_k, d, b, i);

  001e9	ff 75 14	 push	 DWORD PTR _i$[ebp]
  001ec	8b 4d e0	 mov	 ecx, DWORD PTR _this$GSCopy$[ebp]
  001ef	57		 push	 edi
  001f0	56		 push	 esi
  001f1	8d 45 e4	 lea	 eax, DWORD PTR __k$[ebp]
  001f4	50		 push	 eax
  001f5	ff 15 00 00 00
	00		 call	 DWORD PTR __imp_?LoadStringA@ioINILoader@@QAEXPBD0PADH@Z

; 164  : 	}

  001fb	8b 4d fc	 mov	 ecx, DWORD PTR __$ArrayPad$[ebp]
  001fe	5f		 pop	 edi
  001ff	33 cd		 xor	 ecx, ebp
  00201	5e		 pop	 esi
  00202	e8 00 00 00 00	 call	 @__security_check_cookie@4
  00207	c9		 leave
  00208	c2 10 00	 ret	 16			; 00000010H
??$LoadString_e@$0BB@@ioINILoader@@QAEXAAY0BB@$$CBDAAY00$$CBDPADH@Z ENDP ; ioINILoader::LoadString_e<17>
_TEXT	ENDS
PUBLIC	__$ArrayPad$
PUBLIC	??$LoadString_e@$0L@@ioINILoader@@QAEXAAY0L@$$CBDAAY00$$CBDPADH@Z ; ioINILoader::LoadString_e<11>
; Function compile flags: /Ogsp
;	COMDAT ??$LoadString_e@$0L@@ioINILoader@@QAEXAAY0L@$$CBDAAY00$$CBDPADH@Z
_TEXT	SEGMENT
__k$ = -20						; size = 11
__$ArrayPad$ = -4					; size = 4
_k$ = 8							; size = 4
_d$ = 12						; size = 4
_b$ = 16						; size = 4
_i$ = 20						; size = 4
??$LoadString_e@$0L@@ioINILoader@@QAEXAAY0L@$$CBDAAY00$$CBDPADH@Z PROC ; ioINILoader::LoadString_e<11>, COMDAT
; _this$ = ecx

; 161  : 	{

  00000	55		 push	 ebp
  00001	8b ec		 mov	 ebp, esp
  00003	83 ec 14	 sub	 esp, 20			; 00000014H
  00006	a1 00 00 00 00	 mov	 eax, DWORD PTR ___security_cookie
  0000b	33 c5		 xor	 eax, ebp
  0000d	89 45 fc	 mov	 DWORD PTR __$ArrayPad$[ebp], eax
  00010	8b 45 08	 mov	 eax, DWORD PTR _k$[ebp]

; 162  : 		_ENCSTR(k, _k);

  00013	8a 10		 mov	 dl, BYTE PTR [eax]
  00015	53		 push	 ebx
  00016	56		 push	 esi
  00017	8b 75 0c	 mov	 esi, DWORD PTR _d$[ebp]
  0001a	57		 push	 edi
  0001b	8b 7d 10	 mov	 edi, DWORD PTR _b$[ebp]
  0001e	84 d2		 test	 dl, dl
  00020	0f 84 1b 01 00
	00		 je	 $LN96@LoadString@5
  00026	80 f2 ed	 xor	 dl, -19			; ffffffedH
  00029	88 55 ec	 mov	 BYTE PTR __k$[ebp], dl
  0002c	8a 50 01	 mov	 dl, BYTE PTR [eax+1]
  0002f	84 d2		 test	 dl, dl
  00031	0f 84 04 01 00
	00		 je	 $LN95@LoadString@5
  00037	b3 ec		 mov	 bl, -20			; ffffffecH
  00039	32 d3		 xor	 dl, bl
  0003b	88 55 ed	 mov	 BYTE PTR __k$[ebp+1], dl
  0003e	8a 50 02	 mov	 dl, BYTE PTR [eax+2]
  00041	84 d2		 test	 dl, dl
  00043	0f 84 ec 00 00
	00		 je	 $LN94@LoadString@5
  00049	80 f2 eb	 xor	 dl, -21			; ffffffebH
  0004c	88 55 ee	 mov	 BYTE PTR __k$[ebp+2], dl
  0004f	8a 50 03	 mov	 dl, BYTE PTR [eax+3]
  00052	84 d2		 test	 dl, dl
  00054	0f 84 d5 00 00
	00		 je	 $LN93@LoadString@5
  0005a	80 f2 ea	 xor	 dl, -22			; ffffffeaH
  0005d	88 55 ef	 mov	 BYTE PTR __k$[ebp+3], dl
  00060	8a 50 04	 mov	 dl, BYTE PTR [eax+4]
  00063	84 d2		 test	 dl, dl
  00065	0f 84 be 00 00
	00		 je	 $LN92@LoadString@5
  0006b	80 f2 ed	 xor	 dl, -19			; ffffffedH
  0006e	88 55 f0	 mov	 BYTE PTR __k$[ebp+4], dl
  00071	8a 50 05	 mov	 dl, BYTE PTR [eax+5]
  00074	84 d2		 test	 dl, dl
  00076	0f 84 a8 00 00
	00		 je	 $LN91@LoadString@5
  0007c	32 d3		 xor	 dl, bl
  0007e	88 55 f1	 mov	 BYTE PTR __k$[ebp+5], dl
  00081	8a 50 06	 mov	 dl, BYTE PTR [eax+6]
  00084	84 d2		 test	 dl, dl
  00086	0f 84 92 00 00
	00		 je	 $LN90@LoadString@5
  0008c	80 f2 eb	 xor	 dl, -21			; ffffffebH
  0008f	88 55 f2	 mov	 BYTE PTR __k$[ebp+6], dl
  00092	8a 50 07	 mov	 dl, BYTE PTR [eax+7]
  00095	84 d2		 test	 dl, dl
  00097	74 7f		 je	 SHORT $LN89@LoadString@5
  00099	80 f2 ea	 xor	 dl, -22			; ffffffeaH
  0009c	88 55 f3	 mov	 BYTE PTR __k$[ebp+7], dl
  0009f	8a 50 08	 mov	 dl, BYTE PTR [eax+8]
  000a2	84 d2		 test	 dl, dl
  000a4	74 6c		 je	 SHORT $LN88@LoadString@5
  000a6	80 f2 ed	 xor	 dl, -19			; ffffffedH
  000a9	88 55 f4	 mov	 BYTE PTR __k$[ebp+8], dl
  000ac	8a 50 09	 mov	 dl, BYTE PTR [eax+9]
  000af	84 d2		 test	 dl, dl
  000b1	74 5a		 je	 SHORT $LN87@LoadString@5
  000b3	32 d3		 xor	 dl, bl
  000b5	80 78 0a 00	 cmp	 BYTE PTR [eax+10], 0
  000b9	88 55 f5	 mov	 BYTE PTR __k$[ebp+9], dl
  000bc	0f 84 83 00 00
	00		 je	 $LN1@LoadString@5
  000c2	8a 50 0b	 mov	 dl, BYTE PTR [eax+11]
  000c5	84 d2		 test	 dl, dl
  000c7	74 3e		 je	 SHORT $LN85@LoadString@5
  000c9	80 f2 ea	 xor	 dl, -22			; ffffffeaH
  000cc	88 55 f7	 mov	 BYTE PTR __k$[ebp+11], dl
  000cf	8a 50 0c	 mov	 dl, BYTE PTR [eax+12]
  000d2	84 d2		 test	 dl, dl
  000d4	74 2b		 je	 SHORT $LN84@LoadString@5
  000d6	80 f2 ed	 xor	 dl, -19			; ffffffedH
  000d9	88 55 f8	 mov	 BYTE PTR __k$[ebp+12], dl
  000dc	8a 50 0d	 mov	 dl, BYTE PTR [eax+13]
  000df	84 d2		 test	 dl, dl
  000e1	74 19		 je	 SHORT $LN83@LoadString@5
  000e3	8a 40 0e	 mov	 al, BYTE PTR [eax+14]
  000e6	32 d3		 xor	 dl, bl
  000e8	88 55 f9	 mov	 BYTE PTR __k$[ebp+13], dl
  000eb	84 c0		 test	 al, al
  000ed	74 07		 je	 SHORT $LN82@LoadString@5
  000ef	34 eb		 xor	 al, -21			; ffffffebH
  000f1	88 45 fa	 mov	 BYTE PTR __k$[ebp+14], al
  000f4	eb 4f		 jmp	 SHORT $LN1@LoadString@5
$LN82@LoadString@5:
  000f6	c6 45 fa eb	 mov	 BYTE PTR __k$[ebp+14], -21 ; ffffffebH
  000fa	eb 49		 jmp	 SHORT $LN1@LoadString@5
$LN83@LoadString@5:
  000fc	88 5d f9	 mov	 BYTE PTR __k$[ebp+13], bl
  000ff	eb 44		 jmp	 SHORT $LN1@LoadString@5
$LN84@LoadString@5:
  00101	c6 45 f8 ed	 mov	 BYTE PTR __k$[ebp+12], -19 ; ffffffedH
  00105	eb 3e		 jmp	 SHORT $LN1@LoadString@5
$LN85@LoadString@5:
  00107	c6 45 f7 ea	 mov	 BYTE PTR __k$[ebp+11], -22 ; ffffffeaH
  0010b	eb 38		 jmp	 SHORT $LN1@LoadString@5
$LN87@LoadString@5:
  0010d	88 5d f5	 mov	 BYTE PTR __k$[ebp+9], bl
  00110	eb 33		 jmp	 SHORT $LN1@LoadString@5
$LN88@LoadString@5:
  00112	c6 45 f4 ed	 mov	 BYTE PTR __k$[ebp+8], -19 ; ffffffedH
  00116	eb 2d		 jmp	 SHORT $LN1@LoadString@5
$LN89@LoadString@5:
  00118	c6 45 f3 ea	 mov	 BYTE PTR __k$[ebp+7], -22 ; ffffffeaH
  0011c	eb 27		 jmp	 SHORT $LN1@LoadString@5
$LN90@LoadString@5:
  0011e	c6 45 f2 eb	 mov	 BYTE PTR __k$[ebp+6], -21 ; ffffffebH
  00122	eb 21		 jmp	 SHORT $LN1@LoadString@5
$LN91@LoadString@5:
  00124	88 5d f1	 mov	 BYTE PTR __k$[ebp+5], bl
  00127	eb 1c		 jmp	 SHORT $LN1@LoadString@5
$LN92@LoadString@5:
  00129	c6 45 f0 ed	 mov	 BYTE PTR __k$[ebp+4], -19 ; ffffffedH
  0012d	eb 16		 jmp	 SHORT $LN1@LoadString@5
$LN93@LoadString@5:
  0012f	c6 45 ef ea	 mov	 BYTE PTR __k$[ebp+3], -22 ; ffffffeaH
  00133	eb 10		 jmp	 SHORT $LN1@LoadString@5
$LN94@LoadString@5:
  00135	c6 45 ee eb	 mov	 BYTE PTR __k$[ebp+2], -21 ; ffffffebH
  00139	eb 0a		 jmp	 SHORT $LN1@LoadString@5
$LN95@LoadString@5:
  0013b	c6 45 ed ec	 mov	 BYTE PTR __k$[ebp+1], -20 ; ffffffecH
  0013f	eb 04		 jmp	 SHORT $LN1@LoadString@5
$LN96@LoadString@5:
  00141	c6 45 ec ed	 mov	 BYTE PTR __k$[ebp], -19	; ffffffedH
$LN1@LoadString@5:
  00145	6a 02		 push	 2
  00147	8d 45 ec	 lea	 eax, DWORD PTR __k$[ebp]
  0014a	c6 45 f6 00	 mov	 BYTE PTR __k$[ebp+10], 0
  0014e	5a		 pop	 edx
$LL104@LoadString@5:
  0014f	81 30 ed ec eb
	ea		 xor	 DWORD PTR [eax], -353637139 ; eaebecedH
  00155	83 c0 04	 add	 eax, 4
  00158	4a		 dec	 edx
  00159	75 f4		 jne	 SHORT $LL104@LoadString@5
  0015b	6a 08		 push	 8
  0015d	58		 pop	 eax
$LL101@LoadString@5:
  0015e	8b d0		 mov	 edx, eax
  00160	81 e2 03 00 00
	80		 and	 edx, -2147483645	; 80000003H
  00166	79 05		 jns	 SHORT $LN111@LoadString@5
  00168	4a		 dec	 edx
  00169	83 ca fc	 or	 edx, -4			; fffffffcH
  0016c	42		 inc	 edx
$LN111@LoadString@5:
  0016d	b3 ed		 mov	 bl, -19			; ffffffedH
  0016f	2a da		 sub	 bl, dl
  00171	30 5c 05 ec	 xor	 BYTE PTR __k$[ebp+eax], bl
  00175	40		 inc	 eax
  00176	83 f8 0a	 cmp	 eax, 10			; 0000000aH
  00179	7c e3		 jl	 SHORT $LL101@LoadString@5

; 163  : 		LoadString(_k, d, b, i);

  0017b	ff 75 14	 push	 DWORD PTR _i$[ebp]
  0017e	8d 45 ec	 lea	 eax, DWORD PTR __k$[ebp]
  00181	57		 push	 edi
  00182	56		 push	 esi
  00183	50		 push	 eax
  00184	ff 15 00 00 00
	00		 call	 DWORD PTR __imp_?LoadStringA@ioINILoader@@QAEXPBD0PADH@Z

; 164  : 	}

  0018a	8b 4d fc	 mov	 ecx, DWORD PTR __$ArrayPad$[ebp]
  0018d	5f		 pop	 edi
  0018e	5e		 pop	 esi
  0018f	33 cd		 xor	 ecx, ebp
  00191	5b		 pop	 ebx
  00192	e8 00 00 00 00	 call	 @__security_check_cookie@4
  00197	c9		 leave
  00198	c2 10 00	 ret	 16			; 00000010H
??$LoadString_e@$0L@@ioINILoader@@QAEXAAY0L@$$CBDAAY00$$CBDPADH@Z ENDP ; ioINILoader::LoadString_e<11>
_TEXT	ENDS
PUBLIC	__$ArrayPad$
PUBLIC	??$LoadFloat_e@$0BH@@ioINILoader@@QAEMAAY0BH@$$CBDM@Z ; ioINILoader::LoadFloat_e<23>
; Function compile flags: /Ogsp
;	COMDAT ??$LoadFloat_e@$0BH@@ioINILoader@@QAEMAAY0BH@$$CBDM@Z
_TEXT	SEGMENT
__k$ = -32						; size = 23
__$ArrayPad$ = -4					; size = 4
_k$ = 8							; size = 4
_f$ = 12						; size = 4
??$LoadFloat_e@$0BH@@ioINILoader@@QAEMAAY0BH@$$CBDM@Z PROC ; ioINILoader::LoadFloat_e<23>, COMDAT
; _this$ = ecx

; 135  : 	{

  00000	55		 push	 ebp
  00001	8b ec		 mov	 ebp, esp
  00003	83 ec 20	 sub	 esp, 32			; 00000020H
  00006	a1 00 00 00 00	 mov	 eax, DWORD PTR ___security_cookie
  0000b	33 c5		 xor	 eax, ebp
  0000d	89 45 fc	 mov	 DWORD PTR __$ArrayPad$[ebp], eax
  00010	8b 45 08	 mov	 eax, DWORD PTR _k$[ebp]

; 136  : 		_ENCSTR(k, _k);

  00013	8a 10		 mov	 dl, BYTE PTR [eax]
  00015	53		 push	 ebx
  00016	56		 push	 esi
  00017	8b f1		 mov	 esi, ecx
  00019	84 d2		 test	 dl, dl
  0001b	0f 84 2d 02 00
	00		 je	 $LN96@LoadFloat_@4
  00021	80 f2 ed	 xor	 dl, -19			; ffffffedH
  00024	88 55 e0	 mov	 BYTE PTR __k$[ebp], dl
  00027	8a 50 01	 mov	 dl, BYTE PTR [eax+1]
  0002a	84 d2		 test	 dl, dl
  0002c	0f 84 16 02 00
	00		 je	 $LN95@LoadFloat_@4
  00032	b1 ec		 mov	 cl, -20			; ffffffecH
  00034	32 d1		 xor	 dl, cl
  00036	88 55 e1	 mov	 BYTE PTR __k$[ebp+1], dl
  00039	8a 50 02	 mov	 dl, BYTE PTR [eax+2]
  0003c	84 d2		 test	 dl, dl
  0003e	0f 84 fe 01 00
	00		 je	 $LN94@LoadFloat_@4
  00044	80 f2 eb	 xor	 dl, -21			; ffffffebH
  00047	88 55 e2	 mov	 BYTE PTR __k$[ebp+2], dl
  0004a	8a 50 03	 mov	 dl, BYTE PTR [eax+3]
  0004d	84 d2		 test	 dl, dl
  0004f	0f 84 e7 01 00
	00		 je	 $LN93@LoadFloat_@4
  00055	b3 ea		 mov	 bl, -22			; ffffffeaH
  00057	32 d3		 xor	 dl, bl
  00059	88 55 e3	 mov	 BYTE PTR __k$[ebp+3], dl
  0005c	8a 50 04	 mov	 dl, BYTE PTR [eax+4]
  0005f	84 d2		 test	 dl, dl
  00061	0f 84 cf 01 00
	00		 je	 $LN92@LoadFloat_@4
  00067	80 f2 ed	 xor	 dl, -19			; ffffffedH
  0006a	88 55 e4	 mov	 BYTE PTR __k$[ebp+4], dl
  0006d	8a 50 05	 mov	 dl, BYTE PTR [eax+5]
  00070	84 d2		 test	 dl, dl
  00072	0f 84 b9 01 00
	00		 je	 $LN91@LoadFloat_@4
  00078	32 d1		 xor	 dl, cl
  0007a	88 55 e5	 mov	 BYTE PTR __k$[ebp+5], dl
  0007d	8a 50 06	 mov	 dl, BYTE PTR [eax+6]
  00080	84 d2		 test	 dl, dl
  00082	0f 84 a3 01 00
	00		 je	 $LN90@LoadFloat_@4
  00088	80 f2 eb	 xor	 dl, -21			; ffffffebH
  0008b	88 55 e6	 mov	 BYTE PTR __k$[ebp+6], dl
  0008e	8a 50 07	 mov	 dl, BYTE PTR [eax+7]
  00091	84 d2		 test	 dl, dl
  00093	0f 84 8d 01 00
	00		 je	 $LN89@LoadFloat_@4
  00099	32 d3		 xor	 dl, bl
  0009b	88 55 e7	 mov	 BYTE PTR __k$[ebp+7], dl
  0009e	8a 50 08	 mov	 dl, BYTE PTR [eax+8]
  000a1	84 d2		 test	 dl, dl
  000a3	0f 84 77 01 00
	00		 je	 $LN88@LoadFloat_@4
  000a9	80 f2 ed	 xor	 dl, -19			; ffffffedH
  000ac	88 55 e8	 mov	 BYTE PTR __k$[ebp+8], dl
  000af	8a 50 09	 mov	 dl, BYTE PTR [eax+9]
  000b2	84 d2		 test	 dl, dl
  000b4	0f 84 61 01 00
	00		 je	 $LN87@LoadFloat_@4
  000ba	32 d1		 xor	 dl, cl
  000bc	88 55 e9	 mov	 BYTE PTR __k$[ebp+9], dl
  000bf	8a 50 0a	 mov	 dl, BYTE PTR [eax+10]
  000c2	84 d2		 test	 dl, dl
  000c4	0f 84 4b 01 00
	00		 je	 $LN86@LoadFloat_@4
  000ca	80 f2 eb	 xor	 dl, -21			; ffffffebH
  000cd	88 55 ea	 mov	 BYTE PTR __k$[ebp+10], dl
  000d0	8a 50 0b	 mov	 dl, BYTE PTR [eax+11]
  000d3	84 d2		 test	 dl, dl
  000d5	0f 84 35 01 00
	00		 je	 $LN85@LoadFloat_@4
  000db	32 d3		 xor	 dl, bl
  000dd	88 55 eb	 mov	 BYTE PTR __k$[ebp+11], dl
  000e0	8a 50 0c	 mov	 dl, BYTE PTR [eax+12]
  000e3	84 d2		 test	 dl, dl
  000e5	0f 84 1f 01 00
	00		 je	 $LN84@LoadFloat_@4
  000eb	80 f2 ed	 xor	 dl, -19			; ffffffedH
  000ee	88 55 ec	 mov	 BYTE PTR __k$[ebp+12], dl
  000f1	8a 50 0d	 mov	 dl, BYTE PTR [eax+13]
  000f4	84 d2		 test	 dl, dl
  000f6	0f 84 09 01 00
	00		 je	 $LN83@LoadFloat_@4
  000fc	32 d1		 xor	 dl, cl
  000fe	88 55 ed	 mov	 BYTE PTR __k$[ebp+13], dl
  00101	8a 50 0e	 mov	 dl, BYTE PTR [eax+14]
  00104	84 d2		 test	 dl, dl
  00106	0f 84 f3 00 00
	00		 je	 $LN82@LoadFloat_@4
  0010c	80 f2 eb	 xor	 dl, -21			; ffffffebH
  0010f	88 55 ee	 mov	 BYTE PTR __k$[ebp+14], dl
  00112	8a 50 0f	 mov	 dl, BYTE PTR [eax+15]
  00115	84 d2		 test	 dl, dl
  00117	0f 84 dd 00 00
	00		 je	 $LN81@LoadFloat_@4
  0011d	32 d3		 xor	 dl, bl
  0011f	88 55 ef	 mov	 BYTE PTR __k$[ebp+15], dl
  00122	8a 50 10	 mov	 dl, BYTE PTR [eax+16]
  00125	84 d2		 test	 dl, dl
  00127	0f 84 c7 00 00
	00		 je	 $LN80@LoadFloat_@4
  0012d	80 f2 ed	 xor	 dl, -19			; ffffffedH
  00130	88 55 f0	 mov	 BYTE PTR __k$[ebp+16], dl
  00133	8a 50 11	 mov	 dl, BYTE PTR [eax+17]
  00136	84 d2		 test	 dl, dl
  00138	0f 84 b1 00 00
	00		 je	 $LN79@LoadFloat_@4
  0013e	32 d1		 xor	 dl, cl
  00140	88 55 f1	 mov	 BYTE PTR __k$[ebp+17], dl
  00143	8a 50 12	 mov	 dl, BYTE PTR [eax+18]
  00146	84 d2		 test	 dl, dl
  00148	0f 84 9b 00 00
	00		 je	 $LN78@LoadFloat_@4
  0014e	80 f2 eb	 xor	 dl, -21			; ffffffebH
  00151	88 55 f2	 mov	 BYTE PTR __k$[ebp+18], dl
  00154	8a 50 13	 mov	 dl, BYTE PTR [eax+19]
  00157	84 d2		 test	 dl, dl
  00159	0f 84 85 00 00
	00		 je	 $LN77@LoadFloat_@4
  0015f	32 d3		 xor	 dl, bl
  00161	88 55 f3	 mov	 BYTE PTR __k$[ebp+19], dl
  00164	8a 50 14	 mov	 dl, BYTE PTR [eax+20]
  00167	84 d2		 test	 dl, dl
  00169	74 73		 je	 SHORT $LN76@LoadFloat_@4
  0016b	80 f2 ed	 xor	 dl, -19			; ffffffedH
  0016e	88 55 f4	 mov	 BYTE PTR __k$[ebp+20], dl
  00171	8a 50 15	 mov	 dl, BYTE PTR [eax+21]
  00174	84 d2		 test	 dl, dl
  00176	74 61		 je	 SHORT $LN75@LoadFloat_@4
  00178	32 d1		 xor	 dl, cl
  0017a	80 78 16 00	 cmp	 BYTE PTR [eax+22], 0
  0017e	88 55 f5	 mov	 BYTE PTR __k$[ebp+21], dl
  00181	0f 84 cb 00 00
	00		 je	 $LN1@LoadFloat_@4
  00187	8a 50 17	 mov	 dl, BYTE PTR [eax+23]
  0018a	84 d2		 test	 dl, dl
  0018c	74 46		 je	 SHORT $LN73@LoadFloat_@4
  0018e	32 d3		 xor	 dl, bl
  00190	88 55 f7	 mov	 BYTE PTR __k$[ebp+23], dl
  00193	8a 50 18	 mov	 dl, BYTE PTR [eax+24]
  00196	84 d2		 test	 dl, dl
  00198	74 34		 je	 SHORT $LN72@LoadFloat_@4
  0019a	80 f2 ed	 xor	 dl, -19			; ffffffedH
  0019d	88 55 f8	 mov	 BYTE PTR __k$[ebp+24], dl
  001a0	8a 50 19	 mov	 dl, BYTE PTR [eax+25]
  001a3	84 d2		 test	 dl, dl
  001a5	74 1f		 je	 SHORT $LN71@LoadFloat_@4
  001a7	8a 40 1a	 mov	 al, BYTE PTR [eax+26]
  001aa	32 d1		 xor	 dl, cl
  001ac	88 55 f9	 mov	 BYTE PTR __k$[ebp+25], dl
  001af	84 c0		 test	 al, al
  001b1	74 0a		 je	 SHORT $LN70@LoadFloat_@4
  001b3	34 eb		 xor	 al, -21			; ffffffebH
  001b5	88 45 fa	 mov	 BYTE PTR __k$[ebp+26], al
  001b8	e9 95 00 00 00	 jmp	 $LN1@LoadFloat_@4
$LN70@LoadFloat_@4:
  001bd	c6 45 fa eb	 mov	 BYTE PTR __k$[ebp+26], -21 ; ffffffebH
  001c1	e9 8c 00 00 00	 jmp	 $LN1@LoadFloat_@4
$LN71@LoadFloat_@4:
  001c6	88 4d f9	 mov	 BYTE PTR __k$[ebp+25], cl
  001c9	e9 84 00 00 00	 jmp	 $LN1@LoadFloat_@4
$LN72@LoadFloat_@4:
  001ce	c6 45 f8 ed	 mov	 BYTE PTR __k$[ebp+24], -19 ; ffffffedH
  001d2	eb 7e		 jmp	 SHORT $LN1@LoadFloat_@4
$LN73@LoadFloat_@4:
  001d4	88 5d f7	 mov	 BYTE PTR __k$[ebp+23], bl
  001d7	eb 79		 jmp	 SHORT $LN1@LoadFloat_@4
$LN75@LoadFloat_@4:
  001d9	88 4d f5	 mov	 BYTE PTR __k$[ebp+21], cl
  001dc	eb 74		 jmp	 SHORT $LN1@LoadFloat_@4
$LN76@LoadFloat_@4:
  001de	c6 45 f4 ed	 mov	 BYTE PTR __k$[ebp+20], -19 ; ffffffedH
  001e2	eb 6e		 jmp	 SHORT $LN1@LoadFloat_@4
$LN77@LoadFloat_@4:
  001e4	88 5d f3	 mov	 BYTE PTR __k$[ebp+19], bl
  001e7	eb 69		 jmp	 SHORT $LN1@LoadFloat_@4
$LN78@LoadFloat_@4:
  001e9	c6 45 f2 eb	 mov	 BYTE PTR __k$[ebp+18], -21 ; ffffffebH
  001ed	eb 63		 jmp	 SHORT $LN1@LoadFloat_@4
$LN79@LoadFloat_@4:
  001ef	88 4d f1	 mov	 BYTE PTR __k$[ebp+17], cl
  001f2	eb 5e		 jmp	 SHORT $LN1@LoadFloat_@4
$LN80@LoadFloat_@4:
  001f4	c6 45 f0 ed	 mov	 BYTE PTR __k$[ebp+16], -19 ; ffffffedH
  001f8	eb 58		 jmp	 SHORT $LN1@LoadFloat_@4
$LN81@LoadFloat_@4:
  001fa	88 5d ef	 mov	 BYTE PTR __k$[ebp+15], bl
  001fd	eb 53		 jmp	 SHORT $LN1@LoadFloat_@4
$LN82@LoadFloat_@4:
  001ff	c6 45 ee eb	 mov	 BYTE PTR __k$[ebp+14], -21 ; ffffffebH
  00203	eb 4d		 jmp	 SHORT $LN1@LoadFloat_@4
$LN83@LoadFloat_@4:
  00205	88 4d ed	 mov	 BYTE PTR __k$[ebp+13], cl
  00208	eb 48		 jmp	 SHORT $LN1@LoadFloat_@4
$LN84@LoadFloat_@4:
  0020a	c6 45 ec ed	 mov	 BYTE PTR __k$[ebp+12], -19 ; ffffffedH
  0020e	eb 42		 jmp	 SHORT $LN1@LoadFloat_@4
$LN85@LoadFloat_@4:
  00210	88 5d eb	 mov	 BYTE PTR __k$[ebp+11], bl
  00213	eb 3d		 jmp	 SHORT $LN1@LoadFloat_@4
$LN86@LoadFloat_@4:
  00215	c6 45 ea eb	 mov	 BYTE PTR __k$[ebp+10], -21 ; ffffffebH
  00219	eb 37		 jmp	 SHORT $LN1@LoadFloat_@4
$LN87@LoadFloat_@4:
  0021b	88 4d e9	 mov	 BYTE PTR __k$[ebp+9], cl
  0021e	eb 32		 jmp	 SHORT $LN1@LoadFloat_@4
$LN88@LoadFloat_@4:
  00220	c6 45 e8 ed	 mov	 BYTE PTR __k$[ebp+8], -19 ; ffffffedH
  00224	eb 2c		 jmp	 SHORT $LN1@LoadFloat_@4
$LN89@LoadFloat_@4:
  00226	88 5d e7	 mov	 BYTE PTR __k$[ebp+7], bl
  00229	eb 27		 jmp	 SHORT $LN1@LoadFloat_@4
$LN90@LoadFloat_@4:
  0022b	c6 45 e6 eb	 mov	 BYTE PTR __k$[ebp+6], -21 ; ffffffebH
  0022f	eb 21		 jmp	 SHORT $LN1@LoadFloat_@4
$LN91@LoadFloat_@4:
  00231	88 4d e5	 mov	 BYTE PTR __k$[ebp+5], cl
  00234	eb 1c		 jmp	 SHORT $LN1@LoadFloat_@4
$LN92@LoadFloat_@4:
  00236	c6 45 e4 ed	 mov	 BYTE PTR __k$[ebp+4], -19 ; ffffffedH
  0023a	eb 16		 jmp	 SHORT $LN1@LoadFloat_@4
$LN93@LoadFloat_@4:
  0023c	c6 45 e3 ea	 mov	 BYTE PTR __k$[ebp+3], -22 ; ffffffeaH
  00240	eb 10		 jmp	 SHORT $LN1@LoadFloat_@4
$LN94@LoadFloat_@4:
  00242	c6 45 e2 eb	 mov	 BYTE PTR __k$[ebp+2], -21 ; ffffffebH
  00246	eb 0a		 jmp	 SHORT $LN1@LoadFloat_@4
$LN95@LoadFloat_@4:
  00248	c6 45 e1 ec	 mov	 BYTE PTR __k$[ebp+1], -20 ; ffffffecH
  0024c	eb 04		 jmp	 SHORT $LN1@LoadFloat_@4
$LN96@LoadFloat_@4:
  0024e	c6 45 e0 ed	 mov	 BYTE PTR __k$[ebp], -19	; ffffffedH
$LN1@LoadFloat_@4:
  00252	6a 05		 push	 5
  00254	8d 45 e0	 lea	 eax, DWORD PTR __k$[ebp]
  00257	c6 45 f6 00	 mov	 BYTE PTR __k$[ebp+22], 0
  0025b	5a		 pop	 edx
$LL104@LoadFloat_@4:
  0025c	81 30 ed ec eb
	ea		 xor	 DWORD PTR [eax], -353637139 ; eaebecedH
  00262	83 c0 04	 add	 eax, 4
  00265	4a		 dec	 edx
  00266	75 f4		 jne	 SHORT $LL104@LoadFloat_@4
  00268	6a 14		 push	 20			; 00000014H
  0026a	58		 pop	 eax
$LL101@LoadFloat_@4:
  0026b	8b c8		 mov	 ecx, eax
  0026d	81 e1 03 00 00
	80		 and	 ecx, -2147483645	; 80000003H
  00273	79 05		 jns	 SHORT $LN111@LoadFloat_@4
  00275	49		 dec	 ecx
  00276	83 c9 fc	 or	 ecx, -4			; fffffffcH
  00279	41		 inc	 ecx
$LN111@LoadFloat_@4:
  0027a	b2 ed		 mov	 dl, -19			; ffffffedH
  0027c	2a d1		 sub	 dl, cl
  0027e	30 54 05 e0	 xor	 BYTE PTR __k$[ebp+eax], dl
  00282	40		 inc	 eax
  00283	83 f8 16	 cmp	 eax, 22			; 00000016H
  00286	7c e3		 jl	 SHORT $LL101@LoadFloat_@4

; 137  : 		return LoadFloat(_k, f);

  00288	f3 0f 10 45 0c	 movss	 xmm0, DWORD PTR _f$[ebp]
  0028d	51		 push	 ecx
  0028e	8d 45 e0	 lea	 eax, DWORD PTR __k$[ebp]
  00291	f3 0f 11 04 24	 movss	 DWORD PTR [esp], xmm0
  00296	50		 push	 eax
  00297	8b ce		 mov	 ecx, esi
  00299	ff 15 00 00 00
	00		 call	 DWORD PTR __imp_?LoadFloat@ioINILoader@@QAEMPBDM@Z

; 138  : 	}

  0029f	8b 4d fc	 mov	 ecx, DWORD PTR __$ArrayPad$[ebp]
  002a2	5e		 pop	 esi
  002a3	33 cd		 xor	 ecx, ebp
  002a5	5b		 pop	 ebx
  002a6	e8 00 00 00 00	 call	 @__security_check_cookie@4
  002ab	c9		 leave
  002ac	c2 08 00	 ret	 8
??$LoadFloat_e@$0BH@@ioINILoader@@QAEMAAY0BH@$$CBDM@Z ENDP ; ioINILoader::LoadFloat_e<23>
_TEXT	ENDS
PUBLIC	__$ArrayPad$
PUBLIC	??$LoadInt_e@$0BD@@ioINILoader@@QAEHAAY0BD@$$CBDH@Z ; ioINILoader::LoadInt_e<19>
EXTRN	__imp_?LoadInt@ioINILoader@@QAEHPBDH@Z:PROC
; Function compile flags: /Ogsp
;	COMDAT ??$LoadInt_e@$0BD@@ioINILoader@@QAEHAAY0BD@$$CBDH@Z
_TEXT	SEGMENT
__k$ = -28						; size = 19
__$ArrayPad$ = -4					; size = 4
_k$ = 8							; size = 4
_i$ = 12						; size = 4
??$LoadInt_e@$0BD@@ioINILoader@@QAEHAAY0BD@$$CBDH@Z PROC ; ioINILoader::LoadInt_e<19>, COMDAT
; _this$ = ecx

; 118  : 	{

  00000	55		 push	 ebp
  00001	8b ec		 mov	 ebp, esp
  00003	83 ec 1c	 sub	 esp, 28			; 0000001cH
  00006	a1 00 00 00 00	 mov	 eax, DWORD PTR ___security_cookie
  0000b	33 c5		 xor	 eax, ebp
  0000d	89 45 fc	 mov	 DWORD PTR __$ArrayPad$[ebp], eax
  00010	8b 45 08	 mov	 eax, DWORD PTR _k$[ebp]

; 119  : 		_ENCSTR(k, _k);

  00013	8a 10		 mov	 dl, BYTE PTR [eax]
  00015	56		 push	 esi
  00016	8b f1		 mov	 esi, ecx
  00018	84 d2		 test	 dl, dl
  0001a	0f 84 cf 01 00
	00		 je	 $LN96@LoadInt_e
  00020	80 f2 ed	 xor	 dl, -19			; ffffffedH
  00023	88 55 e4	 mov	 BYTE PTR __k$[ebp], dl
  00026	8a 50 01	 mov	 dl, BYTE PTR [eax+1]
  00029	84 d2		 test	 dl, dl
  0002b	0f 84 b8 01 00
	00		 je	 $LN95@LoadInt_e
  00031	b1 ec		 mov	 cl, -20			; ffffffecH
  00033	32 d1		 xor	 dl, cl
  00035	88 55 e5	 mov	 BYTE PTR __k$[ebp+1], dl
  00038	8a 50 02	 mov	 dl, BYTE PTR [eax+2]
  0003b	84 d2		 test	 dl, dl
  0003d	0f 84 a0 01 00
	00		 je	 $LN94@LoadInt_e
  00043	80 f2 eb	 xor	 dl, -21			; ffffffebH
  00046	88 55 e6	 mov	 BYTE PTR __k$[ebp+2], dl
  00049	8a 50 03	 mov	 dl, BYTE PTR [eax+3]
  0004c	84 d2		 test	 dl, dl
  0004e	0f 84 89 01 00
	00		 je	 $LN93@LoadInt_e
  00054	80 f2 ea	 xor	 dl, -22			; ffffffeaH
  00057	88 55 e7	 mov	 BYTE PTR __k$[ebp+3], dl
  0005a	8a 50 04	 mov	 dl, BYTE PTR [eax+4]
  0005d	84 d2		 test	 dl, dl
  0005f	0f 84 72 01 00
	00		 je	 $LN92@LoadInt_e
  00065	80 f2 ed	 xor	 dl, -19			; ffffffedH
  00068	88 55 e8	 mov	 BYTE PTR __k$[ebp+4], dl
  0006b	8a 50 05	 mov	 dl, BYTE PTR [eax+5]
  0006e	84 d2		 test	 dl, dl
  00070	0f 84 5c 01 00
	00		 je	 $LN91@LoadInt_e
  00076	32 d1		 xor	 dl, cl
  00078	88 55 e9	 mov	 BYTE PTR __k$[ebp+5], dl
  0007b	8a 50 06	 mov	 dl, BYTE PTR [eax+6]
  0007e	84 d2		 test	 dl, dl
  00080	0f 84 46 01 00
	00		 je	 $LN90@LoadInt_e
  00086	80 f2 eb	 xor	 dl, -21			; ffffffebH
  00089	88 55 ea	 mov	 BYTE PTR __k$[ebp+6], dl
  0008c	8a 50 07	 mov	 dl, BYTE PTR [eax+7]
  0008f	84 d2		 test	 dl, dl
  00091	0f 84 2f 01 00
	00		 je	 $LN89@LoadInt_e
  00097	80 f2 ea	 xor	 dl, -22			; ffffffeaH
  0009a	88 55 eb	 mov	 BYTE PTR __k$[ebp+7], dl
  0009d	8a 50 08	 mov	 dl, BYTE PTR [eax+8]
  000a0	84 d2		 test	 dl, dl
  000a2	0f 84 18 01 00
	00		 je	 $LN88@LoadInt_e
  000a8	80 f2 ed	 xor	 dl, -19			; ffffffedH
  000ab	88 55 ec	 mov	 BYTE PTR __k$[ebp+8], dl
  000ae	8a 50 09	 mov	 dl, BYTE PTR [eax+9]
  000b1	84 d2		 test	 dl, dl
  000b3	0f 84 02 01 00
	00		 je	 $LN87@LoadInt_e
  000b9	32 d1		 xor	 dl, cl
  000bb	88 55 ed	 mov	 BYTE PTR __k$[ebp+9], dl
  000be	8a 50 0a	 mov	 dl, BYTE PTR [eax+10]
  000c1	84 d2		 test	 dl, dl
  000c3	0f 84 ec 00 00
	00		 je	 $LN86@LoadInt_e
  000c9	80 f2 eb	 xor	 dl, -21			; ffffffebH
  000cc	88 55 ee	 mov	 BYTE PTR __k$[ebp+10], dl
  000cf	8a 50 0b	 mov	 dl, BYTE PTR [eax+11]
  000d2	84 d2		 test	 dl, dl
  000d4	0f 84 d5 00 00
	00		 je	 $LN85@LoadInt_e
  000da	80 f2 ea	 xor	 dl, -22			; ffffffeaH
  000dd	88 55 ef	 mov	 BYTE PTR __k$[ebp+11], dl
  000e0	8a 50 0c	 mov	 dl, BYTE PTR [eax+12]
  000e3	84 d2		 test	 dl, dl
  000e5	0f 84 be 00 00
	00		 je	 $LN84@LoadInt_e
  000eb	80 f2 ed	 xor	 dl, -19			; ffffffedH
  000ee	88 55 f0	 mov	 BYTE PTR __k$[ebp+12], dl
  000f1	8a 50 0d	 mov	 dl, BYTE PTR [eax+13]
  000f4	84 d2		 test	 dl, dl
  000f6	0f 84 a8 00 00
	00		 je	 $LN83@LoadInt_e
  000fc	32 d1		 xor	 dl, cl
  000fe	88 55 f1	 mov	 BYTE PTR __k$[ebp+13], dl
  00101	8a 50 0e	 mov	 dl, BYTE PTR [eax+14]
  00104	84 d2		 test	 dl, dl
  00106	0f 84 92 00 00
	00		 je	 $LN82@LoadInt_e
  0010c	80 f2 eb	 xor	 dl, -21			; ffffffebH
  0010f	88 55 f2	 mov	 BYTE PTR __k$[ebp+14], dl
  00112	8a 50 0f	 mov	 dl, BYTE PTR [eax+15]
  00115	84 d2		 test	 dl, dl
  00117	74 7f		 je	 SHORT $LN81@LoadInt_e
  00119	80 f2 ea	 xor	 dl, -22			; ffffffeaH
  0011c	88 55 f3	 mov	 BYTE PTR __k$[ebp+15], dl
  0011f	8a 50 10	 mov	 dl, BYTE PTR [eax+16]
  00122	84 d2		 test	 dl, dl
  00124	74 6c		 je	 SHORT $LN80@LoadInt_e
  00126	80 f2 ed	 xor	 dl, -19			; ffffffedH
  00129	88 55 f4	 mov	 BYTE PTR __k$[ebp+16], dl
  0012c	8a 50 11	 mov	 dl, BYTE PTR [eax+17]
  0012f	84 d2		 test	 dl, dl
  00131	74 5a		 je	 SHORT $LN79@LoadInt_e
  00133	32 d1		 xor	 dl, cl
  00135	80 78 12 00	 cmp	 BYTE PTR [eax+18], 0
  00139	88 55 f5	 mov	 BYTE PTR __k$[ebp+17], dl
  0013c	0f 84 b1 00 00
	00		 je	 $LN1@LoadInt_e
  00142	8a 50 13	 mov	 dl, BYTE PTR [eax+19]
  00145	84 d2		 test	 dl, dl
  00147	74 3e		 je	 SHORT $LN77@LoadInt_e
  00149	80 f2 ea	 xor	 dl, -22			; ffffffeaH
  0014c	88 55 f7	 mov	 BYTE PTR __k$[ebp+19], dl
  0014f	8a 50 14	 mov	 dl, BYTE PTR [eax+20]
  00152	84 d2		 test	 dl, dl
  00154	74 2b		 je	 SHORT $LN76@LoadInt_e
  00156	80 f2 ed	 xor	 dl, -19			; ffffffedH
  00159	88 55 f8	 mov	 BYTE PTR __k$[ebp+20], dl
  0015c	8a 50 15	 mov	 dl, BYTE PTR [eax+21]
  0015f	84 d2		 test	 dl, dl
  00161	74 19		 je	 SHORT $LN75@LoadInt_e
  00163	8a 40 16	 mov	 al, BYTE PTR [eax+22]
  00166	32 d1		 xor	 dl, cl
  00168	88 55 f9	 mov	 BYTE PTR __k$[ebp+21], dl
  0016b	84 c0		 test	 al, al
  0016d	74 07		 je	 SHORT $LN74@LoadInt_e
  0016f	34 eb		 xor	 al, -21			; ffffffebH
  00171	88 45 fa	 mov	 BYTE PTR __k$[ebp+22], al
  00174	eb 7d		 jmp	 SHORT $LN1@LoadInt_e
$LN74@LoadInt_e:
  00176	c6 45 fa eb	 mov	 BYTE PTR __k$[ebp+22], -21 ; ffffffebH
  0017a	eb 77		 jmp	 SHORT $LN1@LoadInt_e
$LN75@LoadInt_e:
  0017c	88 4d f9	 mov	 BYTE PTR __k$[ebp+21], cl
  0017f	eb 72		 jmp	 SHORT $LN1@LoadInt_e
$LN76@LoadInt_e:
  00181	c6 45 f8 ed	 mov	 BYTE PTR __k$[ebp+20], -19 ; ffffffedH
  00185	eb 6c		 jmp	 SHORT $LN1@LoadInt_e
$LN77@LoadInt_e:
  00187	c6 45 f7 ea	 mov	 BYTE PTR __k$[ebp+19], -22 ; ffffffeaH
  0018b	eb 66		 jmp	 SHORT $LN1@LoadInt_e
$LN79@LoadInt_e:
  0018d	88 4d f5	 mov	 BYTE PTR __k$[ebp+17], cl
  00190	eb 61		 jmp	 SHORT $LN1@LoadInt_e
$LN80@LoadInt_e:
  00192	c6 45 f4 ed	 mov	 BYTE PTR __k$[ebp+16], -19 ; ffffffedH
  00196	eb 5b		 jmp	 SHORT $LN1@LoadInt_e
$LN81@LoadInt_e:
  00198	c6 45 f3 ea	 mov	 BYTE PTR __k$[ebp+15], -22 ; ffffffeaH
  0019c	eb 55		 jmp	 SHORT $LN1@LoadInt_e
$LN82@LoadInt_e:
  0019e	c6 45 f2 eb	 mov	 BYTE PTR __k$[ebp+14], -21 ; ffffffebH
  001a2	eb 4f		 jmp	 SHORT $LN1@LoadInt_e
$LN83@LoadInt_e:
  001a4	88 4d f1	 mov	 BYTE PTR __k$[ebp+13], cl
  001a7	eb 4a		 jmp	 SHORT $LN1@LoadInt_e
$LN84@LoadInt_e:
  001a9	c6 45 f0 ed	 mov	 BYTE PTR __k$[ebp+12], -19 ; ffffffedH
  001ad	eb 44		 jmp	 SHORT $LN1@LoadInt_e
$LN85@LoadInt_e:
  001af	c6 45 ef ea	 mov	 BYTE PTR __k$[ebp+11], -22 ; ffffffeaH
  001b3	eb 3e		 jmp	 SHORT $LN1@LoadInt_e
$LN86@LoadInt_e:
  001b5	c6 45 ee eb	 mov	 BYTE PTR __k$[ebp+10], -21 ; ffffffebH
  001b9	eb 38		 jmp	 SHORT $LN1@LoadInt_e
$LN87@LoadInt_e:
  001bb	88 4d ed	 mov	 BYTE PTR __k$[ebp+9], cl
  001be	eb 33		 jmp	 SHORT $LN1@LoadInt_e
$LN88@LoadInt_e:
  001c0	c6 45 ec ed	 mov	 BYTE PTR __k$[ebp+8], -19 ; ffffffedH
  001c4	eb 2d		 jmp	 SHORT $LN1@LoadInt_e
$LN89@LoadInt_e:
  001c6	c6 45 eb ea	 mov	 BYTE PTR __k$[ebp+7], -22 ; ffffffeaH
  001ca	eb 27		 jmp	 SHORT $LN1@LoadInt_e
$LN90@LoadInt_e:
  001cc	c6 45 ea eb	 mov	 BYTE PTR __k$[ebp+6], -21 ; ffffffebH
  001d0	eb 21		 jmp	 SHORT $LN1@LoadInt_e
$LN91@LoadInt_e:
  001d2	88 4d e9	 mov	 BYTE PTR __k$[ebp+5], cl
  001d5	eb 1c		 jmp	 SHORT $LN1@LoadInt_e
$LN92@LoadInt_e:
  001d7	c6 45 e8 ed	 mov	 BYTE PTR __k$[ebp+4], -19 ; ffffffedH
  001db	eb 16		 jmp	 SHORT $LN1@LoadInt_e
$LN93@LoadInt_e:
  001dd	c6 45 e7 ea	 mov	 BYTE PTR __k$[ebp+3], -22 ; ffffffeaH
  001e1	eb 10		 jmp	 SHORT $LN1@LoadInt_e
$LN94@LoadInt_e:
  001e3	c6 45 e6 eb	 mov	 BYTE PTR __k$[ebp+2], -21 ; ffffffebH
  001e7	eb 0a		 jmp	 SHORT $LN1@LoadInt_e
$LN95@LoadInt_e:
  001e9	c6 45 e5 ec	 mov	 BYTE PTR __k$[ebp+1], -20 ; ffffffecH
  001ed	eb 04		 jmp	 SHORT $LN1@LoadInt_e
$LN96@LoadInt_e:
  001ef	c6 45 e4 ed	 mov	 BYTE PTR __k$[ebp], -19	; ffffffedH
$LN1@LoadInt_e:
  001f3	6a 04		 push	 4
  001f5	8d 45 e4	 lea	 eax, DWORD PTR __k$[ebp]
  001f8	c6 45 f6 00	 mov	 BYTE PTR __k$[ebp+18], 0
  001fc	5a		 pop	 edx
$LL104@LoadInt_e:
  001fd	81 30 ed ec eb
	ea		 xor	 DWORD PTR [eax], -353637139 ; eaebecedH
  00203	83 c0 04	 add	 eax, 4
  00206	4a		 dec	 edx
  00207	75 f4		 jne	 SHORT $LL104@LoadInt_e
  00209	6a 10		 push	 16			; 00000010H
  0020b	58		 pop	 eax
$LL101@LoadInt_e:
  0020c	8b c8		 mov	 ecx, eax
  0020e	81 e1 03 00 00
	80		 and	 ecx, -2147483645	; 80000003H
  00214	79 05		 jns	 SHORT $LN111@LoadInt_e
  00216	49		 dec	 ecx
  00217	83 c9 fc	 or	 ecx, -4			; fffffffcH
  0021a	41		 inc	 ecx
$LN111@LoadInt_e:
  0021b	b2 ed		 mov	 dl, -19			; ffffffedH
  0021d	2a d1		 sub	 dl, cl
  0021f	30 54 05 e4	 xor	 BYTE PTR __k$[ebp+eax], dl
  00223	40		 inc	 eax
  00224	83 f8 12	 cmp	 eax, 18			; 00000012H
  00227	7c e3		 jl	 SHORT $LL101@LoadInt_e

; 120  : 		return LoadInt(_k, i);

  00229	ff 75 0c	 push	 DWORD PTR _i$[ebp]
  0022c	8d 45 e4	 lea	 eax, DWORD PTR __k$[ebp]
  0022f	50		 push	 eax
  00230	8b ce		 mov	 ecx, esi
  00232	ff 15 00 00 00
	00		 call	 DWORD PTR __imp_?LoadInt@ioINILoader@@QAEHPBDH@Z

; 121  : 	}

  00238	8b 4d fc	 mov	 ecx, DWORD PTR __$ArrayPad$[ebp]
  0023b	33 cd		 xor	 ecx, ebp
  0023d	5e		 pop	 esi
  0023e	e8 00 00 00 00	 call	 @__security_check_cookie@4
  00243	c9		 leave
  00244	c2 08 00	 ret	 8
??$LoadInt_e@$0BD@@ioINILoader@@QAEHAAY0BD@$$CBDH@Z ENDP ; ioINILoader::LoadInt_e<19>
_TEXT	ENDS
PUBLIC	__$ArrayPad$
PUBLIC	??$LoadInt_e@$0BE@@ioINILoader@@QAEHAAY0BE@$$CBDH@Z ; ioINILoader::LoadInt_e<20>
; Function compile flags: /Ogsp
;	COMDAT ??$LoadInt_e@$0BE@@ioINILoader@@QAEHAAY0BE@$$CBDH@Z
_TEXT	SEGMENT
__k$ = -28						; size = 20
__$ArrayPad$ = -4					; size = 4
_k$ = 8							; size = 4
_i$ = 12						; size = 4
??$LoadInt_e@$0BE@@ioINILoader@@QAEHAAY0BE@$$CBDH@Z PROC ; ioINILoader::LoadInt_e<20>, COMDAT
; _this$ = ecx

; 118  : 	{

  00000	55		 push	 ebp
  00001	8b ec		 mov	 ebp, esp
  00003	83 ec 1c	 sub	 esp, 28			; 0000001cH
  00006	a1 00 00 00 00	 mov	 eax, DWORD PTR ___security_cookie
  0000b	33 c5		 xor	 eax, ebp
  0000d	89 45 fc	 mov	 DWORD PTR __$ArrayPad$[ebp], eax
  00010	8b 45 08	 mov	 eax, DWORD PTR _k$[ebp]

; 119  : 		_ENCSTR(k, _k);

  00013	8a 10		 mov	 dl, BYTE PTR [eax]
  00015	53		 push	 ebx
  00016	56		 push	 esi
  00017	8b f1		 mov	 esi, ecx
  00019	84 d2		 test	 dl, dl
  0001b	0f 84 dd 01 00
	00		 je	 $LN96@LoadInt_e@2
  00021	80 f2 ed	 xor	 dl, -19			; ffffffedH
  00024	88 55 e4	 mov	 BYTE PTR __k$[ebp], dl
  00027	8a 50 01	 mov	 dl, BYTE PTR [eax+1]
  0002a	84 d2		 test	 dl, dl
  0002c	0f 84 c6 01 00
	00		 je	 $LN95@LoadInt_e@2
  00032	b3 ec		 mov	 bl, -20			; ffffffecH
  00034	32 d3		 xor	 dl, bl
  00036	88 55 e5	 mov	 BYTE PTR __k$[ebp+1], dl
  00039	8a 50 02	 mov	 dl, BYTE PTR [eax+2]
  0003c	84 d2		 test	 dl, dl
  0003e	0f 84 ae 01 00
	00		 je	 $LN94@LoadInt_e@2
  00044	b1 eb		 mov	 cl, -21			; ffffffebH
  00046	32 d1		 xor	 dl, cl
  00048	88 55 e6	 mov	 BYTE PTR __k$[ebp+2], dl
  0004b	8a 50 03	 mov	 dl, BYTE PTR [eax+3]
  0004e	84 d2		 test	 dl, dl
  00050	0f 84 96 01 00
	00		 je	 $LN93@LoadInt_e@2
  00056	80 f2 ea	 xor	 dl, -22			; ffffffeaH
  00059	88 55 e7	 mov	 BYTE PTR __k$[ebp+3], dl
  0005c	8a 50 04	 mov	 dl, BYTE PTR [eax+4]
  0005f	84 d2		 test	 dl, dl
  00061	0f 84 7f 01 00
	00		 je	 $LN92@LoadInt_e@2
  00067	80 f2 ed	 xor	 dl, -19			; ffffffedH
  0006a	88 55 e8	 mov	 BYTE PTR __k$[ebp+4], dl
  0006d	8a 50 05	 mov	 dl, BYTE PTR [eax+5]
  00070	84 d2		 test	 dl, dl
  00072	0f 84 69 01 00
	00		 je	 $LN91@LoadInt_e@2
  00078	32 d3		 xor	 dl, bl
  0007a	88 55 e9	 mov	 BYTE PTR __k$[ebp+5], dl
  0007d	8a 50 06	 mov	 dl, BYTE PTR [eax+6]
  00080	84 d2		 test	 dl, dl
  00082	0f 84 54 01 00
	00		 je	 $LN90@LoadInt_e@2
  00088	32 d1		 xor	 dl, cl
  0008a	88 55 ea	 mov	 BYTE PTR __k$[ebp+6], dl
  0008d	8a 50 07	 mov	 dl, BYTE PTR [eax+7]
  00090	84 d2		 test	 dl, dl
  00092	0f 84 3e 01 00
	00		 je	 $LN89@LoadInt_e@2
  00098	80 f2 ea	 xor	 dl, -22			; ffffffeaH
  0009b	88 55 eb	 mov	 BYTE PTR __k$[ebp+7], dl
  0009e	8a 50 08	 mov	 dl, BYTE PTR [eax+8]
  000a1	84 d2		 test	 dl, dl
  000a3	0f 84 27 01 00
	00		 je	 $LN88@LoadInt_e@2
  000a9	80 f2 ed	 xor	 dl, -19			; ffffffedH
  000ac	88 55 ec	 mov	 BYTE PTR __k$[ebp+8], dl
  000af	8a 50 09	 mov	 dl, BYTE PTR [eax+9]
  000b2	84 d2		 test	 dl, dl
  000b4	0f 84 11 01 00
	00		 je	 $LN87@LoadInt_e@2
  000ba	32 d3		 xor	 dl, bl
  000bc	88 55 ed	 mov	 BYTE PTR __k$[ebp+9], dl
  000bf	8a 50 0a	 mov	 dl, BYTE PTR [eax+10]
  000c2	84 d2		 test	 dl, dl
  000c4	0f 84 fc 00 00
	00		 je	 $LN86@LoadInt_e@2
  000ca	32 d1		 xor	 dl, cl
  000cc	88 55 ee	 mov	 BYTE PTR __k$[ebp+10], dl
  000cf	8a 50 0b	 mov	 dl, BYTE PTR [eax+11]
  000d2	84 d2		 test	 dl, dl
  000d4	0f 84 e6 00 00
	00		 je	 $LN85@LoadInt_e@2
  000da	80 f2 ea	 xor	 dl, -22			; ffffffeaH
  000dd	88 55 ef	 mov	 BYTE PTR __k$[ebp+11], dl
  000e0	8a 50 0c	 mov	 dl, BYTE PTR [eax+12]
  000e3	84 d2		 test	 dl, dl
  000e5	0f 84 cf 00 00
	00		 je	 $LN84@LoadInt_e@2
  000eb	80 f2 ed	 xor	 dl, -19			; ffffffedH
  000ee	88 55 f0	 mov	 BYTE PTR __k$[ebp+12], dl
  000f1	8a 50 0d	 mov	 dl, BYTE PTR [eax+13]
  000f4	84 d2		 test	 dl, dl
  000f6	0f 84 b9 00 00
	00		 je	 $LN83@LoadInt_e@2
  000fc	32 d3		 xor	 dl, bl
  000fe	88 55 f1	 mov	 BYTE PTR __k$[ebp+13], dl
  00101	8a 50 0e	 mov	 dl, BYTE PTR [eax+14]
  00104	84 d2		 test	 dl, dl
  00106	0f 84 a4 00 00
	00		 je	 $LN82@LoadInt_e@2
  0010c	32 d1		 xor	 dl, cl
  0010e	88 55 f2	 mov	 BYTE PTR __k$[ebp+14], dl
  00111	8a 50 0f	 mov	 dl, BYTE PTR [eax+15]
  00114	84 d2		 test	 dl, dl
  00116	0f 84 8e 00 00
	00		 je	 $LN81@LoadInt_e@2
  0011c	80 f2 ea	 xor	 dl, -22			; ffffffeaH
  0011f	88 55 f3	 mov	 BYTE PTR __k$[ebp+15], dl
  00122	8a 50 10	 mov	 dl, BYTE PTR [eax+16]
  00125	84 d2		 test	 dl, dl
  00127	74 7b		 je	 SHORT $LN80@LoadInt_e@2
  00129	80 f2 ed	 xor	 dl, -19			; ffffffedH
  0012c	88 55 f4	 mov	 BYTE PTR __k$[ebp+16], dl
  0012f	8a 50 11	 mov	 dl, BYTE PTR [eax+17]
  00132	84 d2		 test	 dl, dl
  00134	74 69		 je	 SHORT $LN79@LoadInt_e@2
  00136	32 d3		 xor	 dl, bl
  00138	88 55 f5	 mov	 BYTE PTR __k$[ebp+17], dl
  0013b	8a 50 12	 mov	 dl, BYTE PTR [eax+18]
  0013e	84 d2		 test	 dl, dl
  00140	74 58		 je	 SHORT $LN78@LoadInt_e@2
  00142	32 d1		 xor	 dl, cl
  00144	80 78 13 00	 cmp	 BYTE PTR [eax+19], 0
  00148	88 55 f6	 mov	 BYTE PTR __k$[ebp+18], dl
  0014b	0f 84 b1 00 00
	00		 je	 $LN1@LoadInt_e@2
  00151	8a 50 14	 mov	 dl, BYTE PTR [eax+20]
  00154	84 d2		 test	 dl, dl
  00156	74 3c		 je	 SHORT $LN76@LoadInt_e@2
  00158	80 f2 ed	 xor	 dl, -19			; ffffffedH
  0015b	88 55 f8	 mov	 BYTE PTR __k$[ebp+20], dl
  0015e	8a 50 15	 mov	 dl, BYTE PTR [eax+21]
  00161	84 d2		 test	 dl, dl
  00163	74 2a		 je	 SHORT $LN75@LoadInt_e@2
  00165	32 d3		 xor	 dl, bl
  00167	88 55 f9	 mov	 BYTE PTR __k$[ebp+21], dl
  0016a	8a 50 16	 mov	 dl, BYTE PTR [eax+22]
  0016d	84 d2		 test	 dl, dl
  0016f	74 19		 je	 SHORT $LN74@LoadInt_e@2
  00171	8a 40 17	 mov	 al, BYTE PTR [eax+23]
  00174	32 d1		 xor	 dl, cl
  00176	88 55 fa	 mov	 BYTE PTR __k$[ebp+22], dl
  00179	84 c0		 test	 al, al
  0017b	74 07		 je	 SHORT $LN73@LoadInt_e@2
  0017d	34 ea		 xor	 al, -22			; ffffffeaH
  0017f	88 45 fb	 mov	 BYTE PTR __k$[ebp+23], al
  00182	eb 7e		 jmp	 SHORT $LN1@LoadInt_e@2
$LN73@LoadInt_e@2:
  00184	c6 45 fb ea	 mov	 BYTE PTR __k$[ebp+23], -22 ; ffffffeaH
  00188	eb 78		 jmp	 SHORT $LN1@LoadInt_e@2
$LN74@LoadInt_e@2:
  0018a	88 4d fa	 mov	 BYTE PTR __k$[ebp+22], cl
  0018d	eb 73		 jmp	 SHORT $LN1@LoadInt_e@2
$LN75@LoadInt_e@2:
  0018f	88 5d f9	 mov	 BYTE PTR __k$[ebp+21], bl
  00192	eb 6e		 jmp	 SHORT $LN1@LoadInt_e@2
$LN76@LoadInt_e@2:
  00194	c6 45 f8 ed	 mov	 BYTE PTR __k$[ebp+20], -19 ; ffffffedH
  00198	eb 68		 jmp	 SHORT $LN1@LoadInt_e@2
$LN78@LoadInt_e@2:
  0019a	88 4d f6	 mov	 BYTE PTR __k$[ebp+18], cl
  0019d	eb 63		 jmp	 SHORT $LN1@LoadInt_e@2
$LN79@LoadInt_e@2:
  0019f	88 5d f5	 mov	 BYTE PTR __k$[ebp+17], bl
  001a2	eb 5e		 jmp	 SHORT $LN1@LoadInt_e@2
$LN80@LoadInt_e@2:
  001a4	c6 45 f4 ed	 mov	 BYTE PTR __k$[ebp+16], -19 ; ffffffedH
  001a8	eb 58		 jmp	 SHORT $LN1@LoadInt_e@2
$LN81@LoadInt_e@2:
  001aa	c6 45 f3 ea	 mov	 BYTE PTR __k$[ebp+15], -22 ; ffffffeaH
  001ae	eb 52		 jmp	 SHORT $LN1@LoadInt_e@2
$LN82@LoadInt_e@2:
  001b0	88 4d f2	 mov	 BYTE PTR __k$[ebp+14], cl
  001b3	eb 4d		 jmp	 SHORT $LN1@LoadInt_e@2
$LN83@LoadInt_e@2:
  001b5	88 5d f1	 mov	 BYTE PTR __k$[ebp+13], bl
  001b8	eb 48		 jmp	 SHORT $LN1@LoadInt_e@2
$LN84@LoadInt_e@2:
  001ba	c6 45 f0 ed	 mov	 BYTE PTR __k$[ebp+12], -19 ; ffffffedH
  001be	eb 42		 jmp	 SHORT $LN1@LoadInt_e@2
$LN85@LoadInt_e@2:
  001c0	c6 45 ef ea	 mov	 BYTE PTR __k$[ebp+11], -22 ; ffffffeaH
  001c4	eb 3c		 jmp	 SHORT $LN1@LoadInt_e@2
$LN86@LoadInt_e@2:
  001c6	88 4d ee	 mov	 BYTE PTR __k$[ebp+10], cl
  001c9	eb 37		 jmp	 SHORT $LN1@LoadInt_e@2
$LN87@LoadInt_e@2:
  001cb	88 5d ed	 mov	 BYTE PTR __k$[ebp+9], bl
  001ce	eb 32		 jmp	 SHORT $LN1@LoadInt_e@2
$LN88@LoadInt_e@2:
  001d0	c6 45 ec ed	 mov	 BYTE PTR __k$[ebp+8], -19 ; ffffffedH
  001d4	eb 2c		 jmp	 SHORT $LN1@LoadInt_e@2
$LN89@LoadInt_e@2:
  001d6	c6 45 eb ea	 mov	 BYTE PTR __k$[ebp+7], -22 ; ffffffeaH
  001da	eb 26		 jmp	 SHORT $LN1@LoadInt_e@2
$LN90@LoadInt_e@2:
  001dc	88 4d ea	 mov	 BYTE PTR __k$[ebp+6], cl
  001df	eb 21		 jmp	 SHORT $LN1@LoadInt_e@2
$LN91@LoadInt_e@2:
  001e1	88 5d e9	 mov	 BYTE PTR __k$[ebp+5], bl
  001e4	eb 1c		 jmp	 SHORT $LN1@LoadInt_e@2
$LN92@LoadInt_e@2:
  001e6	c6 45 e8 ed	 mov	 BYTE PTR __k$[ebp+4], -19 ; ffffffedH
  001ea	eb 16		 jmp	 SHORT $LN1@LoadInt_e@2
$LN93@LoadInt_e@2:
  001ec	c6 45 e7 ea	 mov	 BYTE PTR __k$[ebp+3], -22 ; ffffffeaH
  001f0	eb 10		 jmp	 SHORT $LN1@LoadInt_e@2
$LN94@LoadInt_e@2:
  001f2	c6 45 e6 eb	 mov	 BYTE PTR __k$[ebp+2], -21 ; ffffffebH
  001f6	eb 0a		 jmp	 SHORT $LN1@LoadInt_e@2
$LN95@LoadInt_e@2:
  001f8	c6 45 e5 ec	 mov	 BYTE PTR __k$[ebp+1], -20 ; ffffffecH
  001fc	eb 04		 jmp	 SHORT $LN1@LoadInt_e@2
$LN96@LoadInt_e@2:
  001fe	c6 45 e4 ed	 mov	 BYTE PTR __k$[ebp], -19	; ffffffedH
$LN1@LoadInt_e@2:
  00202	6a 04		 push	 4
  00204	8d 45 e4	 lea	 eax, DWORD PTR __k$[ebp]
  00207	c6 45 f7 00	 mov	 BYTE PTR __k$[ebp+19], 0
  0020b	5a		 pop	 edx
$LL104@LoadInt_e@2:
  0020c	81 30 ed ec eb
	ea		 xor	 DWORD PTR [eax], -353637139 ; eaebecedH
  00212	83 c0 04	 add	 eax, 4
  00215	4a		 dec	 edx
  00216	75 f4		 jne	 SHORT $LL104@LoadInt_e@2
  00218	6a 10		 push	 16			; 00000010H
  0021a	58		 pop	 eax
$LL101@LoadInt_e@2:
  0021b	8b c8		 mov	 ecx, eax
  0021d	81 e1 03 00 00
	80		 and	 ecx, -2147483645	; 80000003H
  00223	79 05		 jns	 SHORT $LN111@LoadInt_e@2
  00225	49		 dec	 ecx
  00226	83 c9 fc	 or	 ecx, -4			; fffffffcH
  00229	41		 inc	 ecx
$LN111@LoadInt_e@2:
  0022a	b2 ed		 mov	 dl, -19			; ffffffedH
  0022c	2a d1		 sub	 dl, cl
  0022e	30 54 05 e4	 xor	 BYTE PTR __k$[ebp+eax], dl
  00232	40		 inc	 eax
  00233	83 f8 13	 cmp	 eax, 19			; 00000013H
  00236	7c e3		 jl	 SHORT $LL101@LoadInt_e@2

; 120  : 		return LoadInt(_k, i);

  00238	ff 75 0c	 push	 DWORD PTR _i$[ebp]
  0023b	8d 45 e4	 lea	 eax, DWORD PTR __k$[ebp]
  0023e	50		 push	 eax
  0023f	8b ce		 mov	 ecx, esi
  00241	ff 15 00 00 00
	00		 call	 DWORD PTR __imp_?LoadInt@ioINILoader@@QAEHPBDH@Z

; 121  : 	}

  00247	8b 4d fc	 mov	 ecx, DWORD PTR __$ArrayPad$[ebp]
  0024a	5e		 pop	 esi
  0024b	33 cd		 xor	 ecx, ebp
  0024d	5b		 pop	 ebx
  0024e	e8 00 00 00 00	 call	 @__security_check_cookie@4
  00253	c9		 leave
  00254	c2 08 00	 ret	 8
??$LoadInt_e@$0BE@@ioINILoader@@QAEHAAY0BE@$$CBDH@Z ENDP ; ioINILoader::LoadInt_e<20>
_TEXT	ENDS
PUBLIC	__$ArrayPad$
PUBLIC	??$LoadInt_e@$0BB@@ioINILoader@@QAEHAAY0BB@$$CBDH@Z ; ioINILoader::LoadInt_e<17>
; Function compile flags: /Ogsp
;	COMDAT ??$LoadInt_e@$0BB@@ioINILoader@@QAEHAAY0BB@$$CBDH@Z
_TEXT	SEGMENT
__k$ = -28						; size = 17
__$ArrayPad$ = -4					; size = 4
_k$ = 8							; size = 4
_i$ = 12						; size = 4
??$LoadInt_e@$0BB@@ioINILoader@@QAEHAAY0BB@$$CBDH@Z PROC ; ioINILoader::LoadInt_e<17>, COMDAT
; _this$ = ecx

; 118  : 	{

  00000	55		 push	 ebp
  00001	8b ec		 mov	 ebp, esp
  00003	83 ec 1c	 sub	 esp, 28			; 0000001cH
  00006	a1 00 00 00 00	 mov	 eax, DWORD PTR ___security_cookie
  0000b	33 c5		 xor	 eax, ebp
  0000d	89 45 fc	 mov	 DWORD PTR __$ArrayPad$[ebp], eax
  00010	8b 45 08	 mov	 eax, DWORD PTR _k$[ebp]

; 119  : 		_ENCSTR(k, _k);

  00013	8a 10		 mov	 dl, BYTE PTR [eax]
  00015	56		 push	 esi
  00016	8b f1		 mov	 esi, ecx
  00018	84 d2		 test	 dl, dl
  0001a	0f 84 a7 01 00
	00		 je	 $LN96@LoadInt_e@3
  00020	80 f2 ed	 xor	 dl, -19			; ffffffedH
  00023	88 55 e4	 mov	 BYTE PTR __k$[ebp], dl
  00026	8a 50 01	 mov	 dl, BYTE PTR [eax+1]
  00029	84 d2		 test	 dl, dl
  0002b	0f 84 90 01 00
	00		 je	 $LN95@LoadInt_e@3
  00031	b1 ec		 mov	 cl, -20			; ffffffecH
  00033	32 d1		 xor	 dl, cl
  00035	88 55 e5	 mov	 BYTE PTR __k$[ebp+1], dl
  00038	8a 50 02	 mov	 dl, BYTE PTR [eax+2]
  0003b	84 d2		 test	 dl, dl
  0003d	0f 84 78 01 00
	00		 je	 $LN94@LoadInt_e@3
  00043	80 f2 eb	 xor	 dl, -21			; ffffffebH
  00046	88 55 e6	 mov	 BYTE PTR __k$[ebp+2], dl
  00049	8a 50 03	 mov	 dl, BYTE PTR [eax+3]
  0004c	84 d2		 test	 dl, dl
  0004e	0f 84 61 01 00
	00		 je	 $LN93@LoadInt_e@3
  00054	80 f2 ea	 xor	 dl, -22			; ffffffeaH
  00057	88 55 e7	 mov	 BYTE PTR __k$[ebp+3], dl
  0005a	8a 50 04	 mov	 dl, BYTE PTR [eax+4]
  0005d	84 d2		 test	 dl, dl
  0005f	0f 84 4a 01 00
	00		 je	 $LN92@LoadInt_e@3
  00065	80 f2 ed	 xor	 dl, -19			; ffffffedH
  00068	88 55 e8	 mov	 BYTE PTR __k$[ebp+4], dl
  0006b	8a 50 05	 mov	 dl, BYTE PTR [eax+5]
  0006e	84 d2		 test	 dl, dl
  00070	0f 84 34 01 00
	00		 je	 $LN91@LoadInt_e@3
  00076	32 d1		 xor	 dl, cl
  00078	88 55 e9	 mov	 BYTE PTR __k$[ebp+5], dl
  0007b	8a 50 06	 mov	 dl, BYTE PTR [eax+6]
  0007e	84 d2		 test	 dl, dl
  00080	0f 84 1e 01 00
	00		 je	 $LN90@LoadInt_e@3
  00086	80 f2 eb	 xor	 dl, -21			; ffffffebH
  00089	88 55 ea	 mov	 BYTE PTR __k$[ebp+6], dl
  0008c	8a 50 07	 mov	 dl, BYTE PTR [eax+7]
  0008f	84 d2		 test	 dl, dl
  00091	0f 84 07 01 00
	00		 je	 $LN89@LoadInt_e@3
  00097	80 f2 ea	 xor	 dl, -22			; ffffffeaH
  0009a	88 55 eb	 mov	 BYTE PTR __k$[ebp+7], dl
  0009d	8a 50 08	 mov	 dl, BYTE PTR [eax+8]
  000a0	84 d2		 test	 dl, dl
  000a2	0f 84 f0 00 00
	00		 je	 $LN88@LoadInt_e@3
  000a8	80 f2 ed	 xor	 dl, -19			; ffffffedH
  000ab	88 55 ec	 mov	 BYTE PTR __k$[ebp+8], dl
  000ae	8a 50 09	 mov	 dl, BYTE PTR [eax+9]
  000b1	84 d2		 test	 dl, dl
  000b3	0f 84 da 00 00
	00		 je	 $LN87@LoadInt_e@3
  000b9	32 d1		 xor	 dl, cl
  000bb	88 55 ed	 mov	 BYTE PTR __k$[ebp+9], dl
  000be	8a 50 0a	 mov	 dl, BYTE PTR [eax+10]
  000c1	84 d2		 test	 dl, dl
  000c3	0f 84 c4 00 00
	00		 je	 $LN86@LoadInt_e@3
  000c9	80 f2 eb	 xor	 dl, -21			; ffffffebH
  000cc	88 55 ee	 mov	 BYTE PTR __k$[ebp+10], dl
  000cf	8a 50 0b	 mov	 dl, BYTE PTR [eax+11]
  000d2	84 d2		 test	 dl, dl
  000d4	0f 84 ad 00 00
	00		 je	 $LN85@LoadInt_e@3
  000da	80 f2 ea	 xor	 dl, -22			; ffffffeaH
  000dd	88 55 ef	 mov	 BYTE PTR __k$[ebp+11], dl
  000e0	8a 50 0c	 mov	 dl, BYTE PTR [eax+12]
  000e3	84 d2		 test	 dl, dl
  000e5	0f 84 96 00 00
	00		 je	 $LN84@LoadInt_e@3
  000eb	80 f2 ed	 xor	 dl, -19			; ffffffedH
  000ee	88 55 f0	 mov	 BYTE PTR __k$[ebp+12], dl
  000f1	8a 50 0d	 mov	 dl, BYTE PTR [eax+13]
  000f4	84 d2		 test	 dl, dl
  000f6	0f 84 80 00 00
	00		 je	 $LN83@LoadInt_e@3
  000fc	32 d1		 xor	 dl, cl
  000fe	88 55 f1	 mov	 BYTE PTR __k$[ebp+13], dl
  00101	8a 50 0e	 mov	 dl, BYTE PTR [eax+14]
  00104	84 d2		 test	 dl, dl
  00106	74 6e		 je	 SHORT $LN82@LoadInt_e@3
  00108	80 f2 eb	 xor	 dl, -21			; ffffffebH
  0010b	88 55 f2	 mov	 BYTE PTR __k$[ebp+14], dl
  0010e	8a 50 0f	 mov	 dl, BYTE PTR [eax+15]
  00111	84 d2		 test	 dl, dl
  00113	74 5b		 je	 SHORT $LN81@LoadInt_e@3
  00115	80 f2 ea	 xor	 dl, -22			; ffffffeaH
  00118	80 78 10 00	 cmp	 BYTE PTR [eax+16], 0
  0011c	88 55 f3	 mov	 BYTE PTR __k$[ebp+15], dl
  0011f	0f 84 a6 00 00
	00		 je	 $LN1@LoadInt_e@3
  00125	8a 50 11	 mov	 dl, BYTE PTR [eax+17]
  00128	84 d2		 test	 dl, dl
  0012a	74 3f		 je	 SHORT $LN79@LoadInt_e@3
  0012c	32 d1		 xor	 dl, cl
  0012e	88 55 f5	 mov	 BYTE PTR __k$[ebp+17], dl
  00131	8a 50 12	 mov	 dl, BYTE PTR [eax+18]
  00134	84 d2		 test	 dl, dl
  00136	74 2d		 je	 SHORT $LN78@LoadInt_e@3
  00138	80 f2 eb	 xor	 dl, -21			; ffffffebH
  0013b	88 55 f6	 mov	 BYTE PTR __k$[ebp+18], dl
  0013e	8a 50 13	 mov	 dl, BYTE PTR [eax+19]
  00141	84 d2		 test	 dl, dl
  00143	74 1a		 je	 SHORT $LN77@LoadInt_e@3
  00145	8a 40 14	 mov	 al, BYTE PTR [eax+20]
  00148	80 f2 ea	 xor	 dl, -22			; ffffffeaH
  0014b	88 55 f7	 mov	 BYTE PTR __k$[ebp+19], dl
  0014e	84 c0		 test	 al, al
  00150	74 07		 je	 SHORT $LN76@LoadInt_e@3
  00152	34 ed		 xor	 al, -19			; ffffffedH
  00154	88 45 f8	 mov	 BYTE PTR __k$[ebp+20], al
  00157	eb 72		 jmp	 SHORT $LN1@LoadInt_e@3
$LN76@LoadInt_e@3:
  00159	c6 45 f8 ed	 mov	 BYTE PTR __k$[ebp+20], -19 ; ffffffedH
  0015d	eb 6c		 jmp	 SHORT $LN1@LoadInt_e@3
$LN77@LoadInt_e@3:
  0015f	c6 45 f7 ea	 mov	 BYTE PTR __k$[ebp+19], -22 ; ffffffeaH
  00163	eb 66		 jmp	 SHORT $LN1@LoadInt_e@3
$LN78@LoadInt_e@3:
  00165	c6 45 f6 eb	 mov	 BYTE PTR __k$[ebp+18], -21 ; ffffffebH
  00169	eb 60		 jmp	 SHORT $LN1@LoadInt_e@3
$LN79@LoadInt_e@3:
  0016b	88 4d f5	 mov	 BYTE PTR __k$[ebp+17], cl
  0016e	eb 5b		 jmp	 SHORT $LN1@LoadInt_e@3
$LN81@LoadInt_e@3:
  00170	c6 45 f3 ea	 mov	 BYTE PTR __k$[ebp+15], -22 ; ffffffeaH
  00174	eb 55		 jmp	 SHORT $LN1@LoadInt_e@3
$LN82@LoadInt_e@3:
  00176	c6 45 f2 eb	 mov	 BYTE PTR __k$[ebp+14], -21 ; ffffffebH
  0017a	eb 4f		 jmp	 SHORT $LN1@LoadInt_e@3
$LN83@LoadInt_e@3:
  0017c	88 4d f1	 mov	 BYTE PTR __k$[ebp+13], cl
  0017f	eb 4a		 jmp	 SHORT $LN1@LoadInt_e@3
$LN84@LoadInt_e@3:
  00181	c6 45 f0 ed	 mov	 BYTE PTR __k$[ebp+12], -19 ; ffffffedH
  00185	eb 44		 jmp	 SHORT $LN1@LoadInt_e@3
$LN85@LoadInt_e@3:
  00187	c6 45 ef ea	 mov	 BYTE PTR __k$[ebp+11], -22 ; ffffffeaH
  0018b	eb 3e		 jmp	 SHORT $LN1@LoadInt_e@3
$LN86@LoadInt_e@3:
  0018d	c6 45 ee eb	 mov	 BYTE PTR __k$[ebp+10], -21 ; ffffffebH
  00191	eb 38		 jmp	 SHORT $LN1@LoadInt_e@3
$LN87@LoadInt_e@3:
  00193	88 4d ed	 mov	 BYTE PTR __k$[ebp+9], cl
  00196	eb 33		 jmp	 SHORT $LN1@LoadInt_e@3
$LN88@LoadInt_e@3:
  00198	c6 45 ec ed	 mov	 BYTE PTR __k$[ebp+8], -19 ; ffffffedH
  0019c	eb 2d		 jmp	 SHORT $LN1@LoadInt_e@3
$LN89@LoadInt_e@3:
  0019e	c6 45 eb ea	 mov	 BYTE PTR __k$[ebp+7], -22 ; ffffffeaH
  001a2	eb 27		 jmp	 SHORT $LN1@LoadInt_e@3
$LN90@LoadInt_e@3:
  001a4	c6 45 ea eb	 mov	 BYTE PTR __k$[ebp+6], -21 ; ffffffebH
  001a8	eb 21		 jmp	 SHORT $LN1@LoadInt_e@3
$LN91@LoadInt_e@3:
  001aa	88 4d e9	 mov	 BYTE PTR __k$[ebp+5], cl
  001ad	eb 1c		 jmp	 SHORT $LN1@LoadInt_e@3
$LN92@LoadInt_e@3:
  001af	c6 45 e8 ed	 mov	 BYTE PTR __k$[ebp+4], -19 ; ffffffedH
  001b3	eb 16		 jmp	 SHORT $LN1@LoadInt_e@3
$LN93@LoadInt_e@3:
  001b5	c6 45 e7 ea	 mov	 BYTE PTR __k$[ebp+3], -22 ; ffffffeaH
  001b9	eb 10		 jmp	 SHORT $LN1@LoadInt_e@3
$LN94@LoadInt_e@3:
  001bb	c6 45 e6 eb	 mov	 BYTE PTR __k$[ebp+2], -21 ; ffffffebH
  001bf	eb 0a		 jmp	 SHORT $LN1@LoadInt_e@3
$LN95@LoadInt_e@3:
  001c1	c6 45 e5 ec	 mov	 BYTE PTR __k$[ebp+1], -20 ; ffffffecH
  001c5	eb 04		 jmp	 SHORT $LN1@LoadInt_e@3
$LN96@LoadInt_e@3:
  001c7	c6 45 e4 ed	 mov	 BYTE PTR __k$[ebp], -19	; ffffffedH
$LN1@LoadInt_e@3:
  001cb	6a 04		 push	 4
  001cd	8d 45 e4	 lea	 eax, DWORD PTR __k$[ebp]
  001d0	c6 45 f4 00	 mov	 BYTE PTR __k$[ebp+16], 0
  001d4	5a		 pop	 edx
$LL104@LoadInt_e@3:
  001d5	81 30 ed ec eb
	ea		 xor	 DWORD PTR [eax], -353637139 ; eaebecedH
  001db	83 c0 04	 add	 eax, 4
  001de	4a		 dec	 edx
  001df	75 f4		 jne	 SHORT $LL104@LoadInt_e@3

; 120  : 		return LoadInt(_k, i);

  001e1	ff 75 0c	 push	 DWORD PTR _i$[ebp]
  001e4	8d 45 e4	 lea	 eax, DWORD PTR __k$[ebp]
  001e7	50		 push	 eax
  001e8	8b ce		 mov	 ecx, esi
  001ea	ff 15 00 00 00
	00		 call	 DWORD PTR __imp_?LoadInt@ioINILoader@@QAEHPBDH@Z

; 121  : 	}

  001f0	8b 4d fc	 mov	 ecx, DWORD PTR __$ArrayPad$[ebp]
  001f3	33 cd		 xor	 ecx, ebp
  001f5	5e		 pop	 esi
  001f6	e8 00 00 00 00	 call	 @__security_check_cookie@4
  001fb	c9		 leave
  001fc	c2 08 00	 ret	 8
??$LoadInt_e@$0BB@@ioINILoader@@QAEHAAY0BB@$$CBDH@Z ENDP ; ioINILoader::LoadInt_e<17>
_TEXT	ENDS
PUBLIC	__$ArrayPad$
PUBLIC	??$LoadInt_e@$0BC@@ioINILoader@@QAEHAAY0BC@$$CBDH@Z ; ioINILoader::LoadInt_e<18>
; Function compile flags: /Ogsp
;	COMDAT ??$LoadInt_e@$0BC@@ioINILoader@@QAEHAAY0BC@$$CBDH@Z
_TEXT	SEGMENT
__k$ = -28						; size = 18
__$ArrayPad$ = -4					; size = 4
_k$ = 8							; size = 4
_i$ = 12						; size = 4
??$LoadInt_e@$0BC@@ioINILoader@@QAEHAAY0BC@$$CBDH@Z PROC ; ioINILoader::LoadInt_e<18>, COMDAT
; _this$ = ecx

; 118  : 	{

  00000	55		 push	 ebp
  00001	8b ec		 mov	 ebp, esp
  00003	83 ec 1c	 sub	 esp, 28			; 0000001cH
  00006	a1 00 00 00 00	 mov	 eax, DWORD PTR ___security_cookie
  0000b	33 c5		 xor	 eax, ebp
  0000d	89 45 fc	 mov	 DWORD PTR __$ArrayPad$[ebp], eax
  00010	8b 45 08	 mov	 eax, DWORD PTR _k$[ebp]

; 119  : 		_ENCSTR(k, _k);

  00013	8a 10		 mov	 dl, BYTE PTR [eax]
  00015	56		 push	 esi
  00016	8b f1		 mov	 esi, ecx
  00018	84 d2		 test	 dl, dl
  0001a	0f 84 be 01 00
	00		 je	 $LN96@LoadInt_e@4
  00020	80 f2 ed	 xor	 dl, -19			; ffffffedH
  00023	88 55 e4	 mov	 BYTE PTR __k$[ebp], dl
  00026	8a 50 01	 mov	 dl, BYTE PTR [eax+1]
  00029	84 d2		 test	 dl, dl
  0002b	0f 84 a7 01 00
	00		 je	 $LN95@LoadInt_e@4
  00031	80 f2 ec	 xor	 dl, -20			; ffffffecH
  00034	88 55 e5	 mov	 BYTE PTR __k$[ebp+1], dl
  00037	8a 50 02	 mov	 dl, BYTE PTR [eax+2]
  0003a	84 d2		 test	 dl, dl
  0003c	0f 84 90 01 00
	00		 je	 $LN94@LoadInt_e@4
  00042	b1 eb		 mov	 cl, -21			; ffffffebH
  00044	32 d1		 xor	 dl, cl
  00046	88 55 e6	 mov	 BYTE PTR __k$[ebp+2], dl
  00049	8a 50 03	 mov	 dl, BYTE PTR [eax+3]
  0004c	84 d2		 test	 dl, dl
  0004e	0f 84 78 01 00
	00		 je	 $LN93@LoadInt_e@4
  00054	80 f2 ea	 xor	 dl, -22			; ffffffeaH
  00057	88 55 e7	 mov	 BYTE PTR __k$[ebp+3], dl
  0005a	8a 50 04	 mov	 dl, BYTE PTR [eax+4]
  0005d	84 d2		 test	 dl, dl
  0005f	0f 84 61 01 00
	00		 je	 $LN92@LoadInt_e@4
  00065	80 f2 ed	 xor	 dl, -19			; ffffffedH
  00068	88 55 e8	 mov	 BYTE PTR __k$[ebp+4], dl
  0006b	8a 50 05	 mov	 dl, BYTE PTR [eax+5]
  0006e	84 d2		 test	 dl, dl
  00070	0f 84 4a 01 00
	00		 je	 $LN91@LoadInt_e@4
  00076	80 f2 ec	 xor	 dl, -20			; ffffffecH
  00079	88 55 e9	 mov	 BYTE PTR __k$[ebp+5], dl
  0007c	8a 50 06	 mov	 dl, BYTE PTR [eax+6]
  0007f	84 d2		 test	 dl, dl
  00081	0f 84 34 01 00
	00		 je	 $LN90@LoadInt_e@4
  00087	32 d1		 xor	 dl, cl
  00089	88 55 ea	 mov	 BYTE PTR __k$[ebp+6], dl
  0008c	8a 50 07	 mov	 dl, BYTE PTR [eax+7]
  0008f	84 d2		 test	 dl, dl
  00091	0f 84 1e 01 00
	00		 je	 $LN89@LoadInt_e@4
  00097	80 f2 ea	 xor	 dl, -22			; ffffffeaH
  0009a	88 55 eb	 mov	 BYTE PTR __k$[ebp+7], dl
  0009d	8a 50 08	 mov	 dl, BYTE PTR [eax+8]
  000a0	84 d2		 test	 dl, dl
  000a2	0f 84 07 01 00
	00		 je	 $LN88@LoadInt_e@4
  000a8	80 f2 ed	 xor	 dl, -19			; ffffffedH
  000ab	88 55 ec	 mov	 BYTE PTR __k$[ebp+8], dl
  000ae	8a 50 09	 mov	 dl, BYTE PTR [eax+9]
  000b1	84 d2		 test	 dl, dl
  000b3	0f 84 f0 00 00
	00		 je	 $LN87@LoadInt_e@4
  000b9	80 f2 ec	 xor	 dl, -20			; ffffffecH
  000bc	88 55 ed	 mov	 BYTE PTR __k$[ebp+9], dl
  000bf	8a 50 0a	 mov	 dl, BYTE PTR [eax+10]
  000c2	84 d2		 test	 dl, dl
  000c4	0f 84 da 00 00
	00		 je	 $LN86@LoadInt_e@4
  000ca	32 d1		 xor	 dl, cl
  000cc	88 55 ee	 mov	 BYTE PTR __k$[ebp+10], dl
  000cf	8a 50 0b	 mov	 dl, BYTE PTR [eax+11]
  000d2	84 d2		 test	 dl, dl
  000d4	0f 84 c4 00 00
	00		 je	 $LN85@LoadInt_e@4
  000da	80 f2 ea	 xor	 dl, -22			; ffffffeaH
  000dd	88 55 ef	 mov	 BYTE PTR __k$[ebp+11], dl
  000e0	8a 50 0c	 mov	 dl, BYTE PTR [eax+12]
  000e3	84 d2		 test	 dl, dl
  000e5	0f 84 ad 00 00
	00		 je	 $LN84@LoadInt_e@4
  000eb	80 f2 ed	 xor	 dl, -19			; ffffffedH
  000ee	88 55 f0	 mov	 BYTE PTR __k$[ebp+12], dl
  000f1	8a 50 0d	 mov	 dl, BYTE PTR [eax+13]
  000f4	84 d2		 test	 dl, dl
  000f6	0f 84 96 00 00
	00		 je	 $LN83@LoadInt_e@4
  000fc	80 f2 ec	 xor	 dl, -20			; ffffffecH
  000ff	88 55 f1	 mov	 BYTE PTR __k$[ebp+13], dl
  00102	8a 50 0e	 mov	 dl, BYTE PTR [eax+14]
  00105	84 d2		 test	 dl, dl
  00107	0f 84 80 00 00
	00		 je	 $LN82@LoadInt_e@4
  0010d	32 d1		 xor	 dl, cl
  0010f	88 55 f2	 mov	 BYTE PTR __k$[ebp+14], dl
  00112	8a 50 0f	 mov	 dl, BYTE PTR [eax+15]
  00115	84 d2		 test	 dl, dl
  00117	74 6e		 je	 SHORT $LN81@LoadInt_e@4
  00119	80 f2 ea	 xor	 dl, -22			; ffffffeaH
  0011c	88 55 f3	 mov	 BYTE PTR __k$[ebp+15], dl
  0011f	8a 50 10	 mov	 dl, BYTE PTR [eax+16]
  00122	84 d2		 test	 dl, dl
  00124	74 5b		 je	 SHORT $LN80@LoadInt_e@4
  00126	80 f2 ed	 xor	 dl, -19			; ffffffedH
  00129	80 78 11 00	 cmp	 BYTE PTR [eax+17], 0
  0012d	88 55 f4	 mov	 BYTE PTR __k$[ebp+16], dl
  00130	0f 84 ac 00 00
	00		 je	 $LN1@LoadInt_e@4
  00136	8a 50 12	 mov	 dl, BYTE PTR [eax+18]
  00139	84 d2		 test	 dl, dl
  0013b	74 3f		 je	 SHORT $LN78@LoadInt_e@4
  0013d	32 d1		 xor	 dl, cl
  0013f	88 55 f6	 mov	 BYTE PTR __k$[ebp+18], dl
  00142	8a 50 13	 mov	 dl, BYTE PTR [eax+19]
  00145	84 d2		 test	 dl, dl
  00147	74 2d		 je	 SHORT $LN77@LoadInt_e@4
  00149	80 f2 ea	 xor	 dl, -22			; ffffffeaH
  0014c	88 55 f7	 mov	 BYTE PTR __k$[ebp+19], dl
  0014f	8a 50 14	 mov	 dl, BYTE PTR [eax+20]
  00152	84 d2		 test	 dl, dl
  00154	74 1a		 je	 SHORT $LN76@LoadInt_e@4
  00156	8a 40 15	 mov	 al, BYTE PTR [eax+21]
  00159	80 f2 ed	 xor	 dl, -19			; ffffffedH
  0015c	88 55 f8	 mov	 BYTE PTR __k$[ebp+20], dl
  0015f	84 c0		 test	 al, al
  00161	74 07		 je	 SHORT $LN75@LoadInt_e@4
  00163	34 ec		 xor	 al, -20			; ffffffecH
  00165	88 45 f9	 mov	 BYTE PTR __k$[ebp+21], al
  00168	eb 78		 jmp	 SHORT $LN1@LoadInt_e@4
$LN75@LoadInt_e@4:
  0016a	c6 45 f9 ec	 mov	 BYTE PTR __k$[ebp+21], -20 ; ffffffecH
  0016e	eb 72		 jmp	 SHORT $LN1@LoadInt_e@4
$LN76@LoadInt_e@4:
  00170	c6 45 f8 ed	 mov	 BYTE PTR __k$[ebp+20], -19 ; ffffffedH
  00174	eb 6c		 jmp	 SHORT $LN1@LoadInt_e@4
$LN77@LoadInt_e@4:
  00176	c6 45 f7 ea	 mov	 BYTE PTR __k$[ebp+19], -22 ; ffffffeaH
  0017a	eb 66		 jmp	 SHORT $LN1@LoadInt_e@4
$LN78@LoadInt_e@4:
  0017c	88 4d f6	 mov	 BYTE PTR __k$[ebp+18], cl
  0017f	eb 61		 jmp	 SHORT $LN1@LoadInt_e@4
$LN80@LoadInt_e@4:
  00181	c6 45 f4 ed	 mov	 BYTE PTR __k$[ebp+16], -19 ; ffffffedH
  00185	eb 5b		 jmp	 SHORT $LN1@LoadInt_e@4
$LN81@LoadInt_e@4:
  00187	c6 45 f3 ea	 mov	 BYTE PTR __k$[ebp+15], -22 ; ffffffeaH
  0018b	eb 55		 jmp	 SHORT $LN1@LoadInt_e@4
$LN82@LoadInt_e@4:
  0018d	88 4d f2	 mov	 BYTE PTR __k$[ebp+14], cl
  00190	eb 50		 jmp	 SHORT $LN1@LoadInt_e@4
$LN83@LoadInt_e@4:
  00192	c6 45 f1 ec	 mov	 BYTE PTR __k$[ebp+13], -20 ; ffffffecH
  00196	eb 4a		 jmp	 SHORT $LN1@LoadInt_e@4
$LN84@LoadInt_e@4:
  00198	c6 45 f0 ed	 mov	 BYTE PTR __k$[ebp+12], -19 ; ffffffedH
  0019c	eb 44		 jmp	 SHORT $LN1@LoadInt_e@4
$LN85@LoadInt_e@4:
  0019e	c6 45 ef ea	 mov	 BYTE PTR __k$[ebp+11], -22 ; ffffffeaH
  001a2	eb 3e		 jmp	 SHORT $LN1@LoadInt_e@4
$LN86@LoadInt_e@4:
  001a4	88 4d ee	 mov	 BYTE PTR __k$[ebp+10], cl
  001a7	eb 39		 jmp	 SHORT $LN1@LoadInt_e@4
$LN87@LoadInt_e@4:
  001a9	c6 45 ed ec	 mov	 BYTE PTR __k$[ebp+9], -20 ; ffffffecH
  001ad	eb 33		 jmp	 SHORT $LN1@LoadInt_e@4
$LN88@LoadInt_e@4:
  001af	c6 45 ec ed	 mov	 BYTE PTR __k$[ebp+8], -19 ; ffffffedH
  001b3	eb 2d		 jmp	 SHORT $LN1@LoadInt_e@4
$LN89@LoadInt_e@4:
  001b5	c6 45 eb ea	 mov	 BYTE PTR __k$[ebp+7], -22 ; ffffffeaH
  001b9	eb 27		 jmp	 SHORT $LN1@LoadInt_e@4
$LN90@LoadInt_e@4:
  001bb	88 4d ea	 mov	 BYTE PTR __k$[ebp+6], cl
  001be	eb 22		 jmp	 SHORT $LN1@LoadInt_e@4
$LN91@LoadInt_e@4:
  001c0	c6 45 e9 ec	 mov	 BYTE PTR __k$[ebp+5], -20 ; ffffffecH
  001c4	eb 1c		 jmp	 SHORT $LN1@LoadInt_e@4
$LN92@LoadInt_e@4:
  001c6	c6 45 e8 ed	 mov	 BYTE PTR __k$[ebp+4], -19 ; ffffffedH
  001ca	eb 16		 jmp	 SHORT $LN1@LoadInt_e@4
$LN93@LoadInt_e@4:
  001cc	c6 45 e7 ea	 mov	 BYTE PTR __k$[ebp+3], -22 ; ffffffeaH
  001d0	eb 10		 jmp	 SHORT $LN1@LoadInt_e@4
$LN94@LoadInt_e@4:
  001d2	c6 45 e6 eb	 mov	 BYTE PTR __k$[ebp+2], -21 ; ffffffebH
  001d6	eb 0a		 jmp	 SHORT $LN1@LoadInt_e@4
$LN95@LoadInt_e@4:
  001d8	c6 45 e5 ec	 mov	 BYTE PTR __k$[ebp+1], -20 ; ffffffecH
  001dc	eb 04		 jmp	 SHORT $LN1@LoadInt_e@4
$LN96@LoadInt_e@4:
  001de	c6 45 e4 ed	 mov	 BYTE PTR __k$[ebp], -19	; ffffffedH
$LN1@LoadInt_e@4:
  001e2	6a 04		 push	 4
  001e4	8d 45 e4	 lea	 eax, DWORD PTR __k$[ebp]
  001e7	c6 45 f5 00	 mov	 BYTE PTR __k$[ebp+17], 0
  001eb	5a		 pop	 edx
$LL104@LoadInt_e@4:
  001ec	81 30 ed ec eb
	ea		 xor	 DWORD PTR [eax], -353637139 ; eaebecedH
  001f2	83 c0 04	 add	 eax, 4
  001f5	4a		 dec	 edx
  001f6	75 f4		 jne	 SHORT $LL104@LoadInt_e@4

; 120  : 		return LoadInt(_k, i);

  001f8	ff 75 0c	 push	 DWORD PTR _i$[ebp]
  001fb	80 75 f4 ed	 xor	 BYTE PTR __k$[ebp+16], -19 ; ffffffedH
  001ff	8d 45 e4	 lea	 eax, DWORD PTR __k$[ebp]
  00202	50		 push	 eax
  00203	8b ce		 mov	 ecx, esi
  00205	ff 15 00 00 00
	00		 call	 DWORD PTR __imp_?LoadInt@ioINILoader@@QAEHPBDH@Z

; 121  : 	}

  0020b	8b 4d fc	 mov	 ecx, DWORD PTR __$ArrayPad$[ebp]
  0020e	33 cd		 xor	 ecx, ebp
  00210	5e		 pop	 esi
  00211	e8 00 00 00 00	 call	 @__security_check_cookie@4
  00216	c9		 leave
  00217	c2 08 00	 ret	 8
??$LoadInt_e@$0BC@@ioINILoader@@QAEHAAY0BC@$$CBDH@Z ENDP ; ioINILoader::LoadInt_e<18>
_TEXT	ENDS
PUBLIC	__$ArrayPad$
PUBLIC	??$LoadInt_e@$0P@@ioINILoader@@QAEHAAY0P@$$CBDH@Z ; ioINILoader::LoadInt_e<15>
; Function compile flags: /Ogsp
;	COMDAT ??$LoadInt_e@$0P@@ioINILoader@@QAEHAAY0P@$$CBDH@Z
_TEXT	SEGMENT
__k$ = -24						; size = 15
__$ArrayPad$ = -4					; size = 4
_k$ = 8							; size = 4
_i$ = 12						; size = 4
??$LoadInt_e@$0P@@ioINILoader@@QAEHAAY0P@$$CBDH@Z PROC	; ioINILoader::LoadInt_e<15>, COMDAT
; _this$ = ecx

; 118  : 	{

  00000	55		 push	 ebp
  00001	8b ec		 mov	 ebp, esp
  00003	83 ec 18	 sub	 esp, 24			; 00000018H
  00006	a1 00 00 00 00	 mov	 eax, DWORD PTR ___security_cookie
  0000b	33 c5		 xor	 eax, ebp
  0000d	89 45 fc	 mov	 DWORD PTR __$ArrayPad$[ebp], eax
  00010	8b 45 08	 mov	 eax, DWORD PTR _k$[ebp]

; 119  : 		_ENCSTR(k, _k);

  00013	8a 10		 mov	 dl, BYTE PTR [eax]
  00015	56		 push	 esi
  00016	8b f1		 mov	 esi, ecx
  00018	84 d2		 test	 dl, dl
  0001a	0f 84 75 01 00
	00		 je	 $LN96@LoadInt_e@5
  00020	80 f2 ed	 xor	 dl, -19			; ffffffedH
  00023	88 55 e8	 mov	 BYTE PTR __k$[ebp], dl
  00026	8a 50 01	 mov	 dl, BYTE PTR [eax+1]
  00029	84 d2		 test	 dl, dl
  0002b	0f 84 5e 01 00
	00		 je	 $LN95@LoadInt_e@5
  00031	b1 ec		 mov	 cl, -20			; ffffffecH
  00033	32 d1		 xor	 dl, cl
  00035	88 55 e9	 mov	 BYTE PTR __k$[ebp+1], dl
  00038	8a 50 02	 mov	 dl, BYTE PTR [eax+2]
  0003b	84 d2		 test	 dl, dl
  0003d	0f 84 46 01 00
	00		 je	 $LN94@LoadInt_e@5
  00043	80 f2 eb	 xor	 dl, -21			; ffffffebH
  00046	88 55 ea	 mov	 BYTE PTR __k$[ebp+2], dl
  00049	8a 50 03	 mov	 dl, BYTE PTR [eax+3]
  0004c	84 d2		 test	 dl, dl
  0004e	0f 84 2f 01 00
	00		 je	 $LN93@LoadInt_e@5
  00054	80 f2 ea	 xor	 dl, -22			; ffffffeaH
  00057	88 55 eb	 mov	 BYTE PTR __k$[ebp+3], dl
  0005a	8a 50 04	 mov	 dl, BYTE PTR [eax+4]
  0005d	84 d2		 test	 dl, dl
  0005f	0f 84 18 01 00
	00		 je	 $LN92@LoadInt_e@5
  00065	80 f2 ed	 xor	 dl, -19			; ffffffedH
  00068	88 55 ec	 mov	 BYTE PTR __k$[ebp+4], dl
  0006b	8a 50 05	 mov	 dl, BYTE PTR [eax+5]
  0006e	84 d2		 test	 dl, dl
  00070	0f 84 02 01 00
	00		 je	 $LN91@LoadInt_e@5
  00076	32 d1		 xor	 dl, cl
  00078	88 55 ed	 mov	 BYTE PTR __k$[ebp+5], dl
  0007b	8a 50 06	 mov	 dl, BYTE PTR [eax+6]
  0007e	84 d2		 test	 dl, dl
  00080	0f 84 ec 00 00
	00		 je	 $LN90@LoadInt_e@5
  00086	80 f2 eb	 xor	 dl, -21			; ffffffebH
  00089	88 55 ee	 mov	 BYTE PTR __k$[ebp+6], dl
  0008c	8a 50 07	 mov	 dl, BYTE PTR [eax+7]
  0008f	84 d2		 test	 dl, dl
  00091	0f 84 d5 00 00
	00		 je	 $LN89@LoadInt_e@5
  00097	80 f2 ea	 xor	 dl, -22			; ffffffeaH
  0009a	88 55 ef	 mov	 BYTE PTR __k$[ebp+7], dl
  0009d	8a 50 08	 mov	 dl, BYTE PTR [eax+8]
  000a0	84 d2		 test	 dl, dl
  000a2	0f 84 be 00 00
	00		 je	 $LN88@LoadInt_e@5
  000a8	80 f2 ed	 xor	 dl, -19			; ffffffedH
  000ab	88 55 f0	 mov	 BYTE PTR __k$[ebp+8], dl
  000ae	8a 50 09	 mov	 dl, BYTE PTR [eax+9]
  000b1	84 d2		 test	 dl, dl
  000b3	0f 84 a8 00 00
	00		 je	 $LN87@LoadInt_e@5
  000b9	32 d1		 xor	 dl, cl
  000bb	88 55 f1	 mov	 BYTE PTR __k$[ebp+9], dl
  000be	8a 50 0a	 mov	 dl, BYTE PTR [eax+10]
  000c1	84 d2		 test	 dl, dl
  000c3	0f 84 92 00 00
	00		 je	 $LN86@LoadInt_e@5
  000c9	80 f2 eb	 xor	 dl, -21			; ffffffebH
  000cc	88 55 f2	 mov	 BYTE PTR __k$[ebp+10], dl
  000cf	8a 50 0b	 mov	 dl, BYTE PTR [eax+11]
  000d2	84 d2		 test	 dl, dl
  000d4	74 7f		 je	 SHORT $LN85@LoadInt_e@5
  000d6	80 f2 ea	 xor	 dl, -22			; ffffffeaH
  000d9	88 55 f3	 mov	 BYTE PTR __k$[ebp+11], dl
  000dc	8a 50 0c	 mov	 dl, BYTE PTR [eax+12]
  000df	84 d2		 test	 dl, dl
  000e1	74 6c		 je	 SHORT $LN84@LoadInt_e@5
  000e3	80 f2 ed	 xor	 dl, -19			; ffffffedH
  000e6	88 55 f4	 mov	 BYTE PTR __k$[ebp+12], dl
  000e9	8a 50 0d	 mov	 dl, BYTE PTR [eax+13]
  000ec	84 d2		 test	 dl, dl
  000ee	74 5a		 je	 SHORT $LN83@LoadInt_e@5
  000f0	32 d1		 xor	 dl, cl
  000f2	80 78 0e 00	 cmp	 BYTE PTR [eax+14], 0
  000f6	88 55 f5	 mov	 BYTE PTR __k$[ebp+13], dl
  000f9	0f 84 9a 00 00
	00		 je	 $LN1@LoadInt_e@5
  000ff	8a 50 0f	 mov	 dl, BYTE PTR [eax+15]
  00102	84 d2		 test	 dl, dl
  00104	74 3e		 je	 SHORT $LN81@LoadInt_e@5
  00106	80 f2 ea	 xor	 dl, -22			; ffffffeaH
  00109	88 55 f7	 mov	 BYTE PTR __k$[ebp+15], dl
  0010c	8a 50 10	 mov	 dl, BYTE PTR [eax+16]
  0010f	84 d2		 test	 dl, dl
  00111	74 2b		 je	 SHORT $LN80@LoadInt_e@5
  00113	80 f2 ed	 xor	 dl, -19			; ffffffedH
  00116	88 55 f8	 mov	 BYTE PTR __k$[ebp+16], dl
  00119	8a 50 11	 mov	 dl, BYTE PTR [eax+17]
  0011c	84 d2		 test	 dl, dl
  0011e	74 19		 je	 SHORT $LN79@LoadInt_e@5
  00120	8a 40 12	 mov	 al, BYTE PTR [eax+18]
  00123	32 d1		 xor	 dl, cl
  00125	88 55 f9	 mov	 BYTE PTR __k$[ebp+17], dl
  00128	84 c0		 test	 al, al
  0012a	74 07		 je	 SHORT $LN78@LoadInt_e@5
  0012c	34 eb		 xor	 al, -21			; ffffffebH
  0012e	88 45 fa	 mov	 BYTE PTR __k$[ebp+18], al
  00131	eb 66		 jmp	 SHORT $LN1@LoadInt_e@5
$LN78@LoadInt_e@5:
  00133	c6 45 fa eb	 mov	 BYTE PTR __k$[ebp+18], -21 ; ffffffebH
  00137	eb 60		 jmp	 SHORT $LN1@LoadInt_e@5
$LN79@LoadInt_e@5:
  00139	88 4d f9	 mov	 BYTE PTR __k$[ebp+17], cl
  0013c	eb 5b		 jmp	 SHORT $LN1@LoadInt_e@5
$LN80@LoadInt_e@5:
  0013e	c6 45 f8 ed	 mov	 BYTE PTR __k$[ebp+16], -19 ; ffffffedH
  00142	eb 55		 jmp	 SHORT $LN1@LoadInt_e@5
$LN81@LoadInt_e@5:
  00144	c6 45 f7 ea	 mov	 BYTE PTR __k$[ebp+15], -22 ; ffffffeaH
  00148	eb 4f		 jmp	 SHORT $LN1@LoadInt_e@5
$LN83@LoadInt_e@5:
  0014a	88 4d f5	 mov	 BYTE PTR __k$[ebp+13], cl
  0014d	eb 4a		 jmp	 SHORT $LN1@LoadInt_e@5
$LN84@LoadInt_e@5:
  0014f	c6 45 f4 ed	 mov	 BYTE PTR __k$[ebp+12], -19 ; ffffffedH
  00153	eb 44		 jmp	 SHORT $LN1@LoadInt_e@5
$LN85@LoadInt_e@5:
  00155	c6 45 f3 ea	 mov	 BYTE PTR __k$[ebp+11], -22 ; ffffffeaH
  00159	eb 3e		 jmp	 SHORT $LN1@LoadInt_e@5
$LN86@LoadInt_e@5:
  0015b	c6 45 f2 eb	 mov	 BYTE PTR __k$[ebp+10], -21 ; ffffffebH
  0015f	eb 38		 jmp	 SHORT $LN1@LoadInt_e@5
$LN87@LoadInt_e@5:
  00161	88 4d f1	 mov	 BYTE PTR __k$[ebp+9], cl
  00164	eb 33		 jmp	 SHORT $LN1@LoadInt_e@5
$LN88@LoadInt_e@5:
  00166	c6 45 f0 ed	 mov	 BYTE PTR __k$[ebp+8], -19 ; ffffffedH
  0016a	eb 2d		 jmp	 SHORT $LN1@LoadInt_e@5
$LN89@LoadInt_e@5:
  0016c	c6 45 ef ea	 mov	 BYTE PTR __k$[ebp+7], -22 ; ffffffeaH
  00170	eb 27		 jmp	 SHORT $LN1@LoadInt_e@5
$LN90@LoadInt_e@5:
  00172	c6 45 ee eb	 mov	 BYTE PTR __k$[ebp+6], -21 ; ffffffebH
  00176	eb 21		 jmp	 SHORT $LN1@LoadInt_e@5
$LN91@LoadInt_e@5:
  00178	88 4d ed	 mov	 BYTE PTR __k$[ebp+5], cl
  0017b	eb 1c		 jmp	 SHORT $LN1@LoadInt_e@5
$LN92@LoadInt_e@5:
  0017d	c6 45 ec ed	 mov	 BYTE PTR __k$[ebp+4], -19 ; ffffffedH
  00181	eb 16		 jmp	 SHORT $LN1@LoadInt_e@5
$LN93@LoadInt_e@5:
  00183	c6 45 eb ea	 mov	 BYTE PTR __k$[ebp+3], -22 ; ffffffeaH
  00187	eb 10		 jmp	 SHORT $LN1@LoadInt_e@5
$LN94@LoadInt_e@5:
  00189	c6 45 ea eb	 mov	 BYTE PTR __k$[ebp+2], -21 ; ffffffebH
  0018d	eb 0a		 jmp	 SHORT $LN1@LoadInt_e@5
$LN95@LoadInt_e@5:
  0018f	c6 45 e9 ec	 mov	 BYTE PTR __k$[ebp+1], -20 ; ffffffecH
  00193	eb 04		 jmp	 SHORT $LN1@LoadInt_e@5
$LN96@LoadInt_e@5:
  00195	c6 45 e8 ed	 mov	 BYTE PTR __k$[ebp], -19	; ffffffedH
$LN1@LoadInt_e@5:
  00199	6a 03		 push	 3
  0019b	8d 45 e8	 lea	 eax, DWORD PTR __k$[ebp]
  0019e	c6 45 f6 00	 mov	 BYTE PTR __k$[ebp+14], 0
  001a2	5a		 pop	 edx
$LL104@LoadInt_e@5:
  001a3	81 30 ed ec eb
	ea		 xor	 DWORD PTR [eax], -353637139 ; eaebecedH
  001a9	83 c0 04	 add	 eax, 4
  001ac	4a		 dec	 edx
  001ad	75 f4		 jne	 SHORT $LL104@LoadInt_e@5
  001af	6a 0c		 push	 12			; 0000000cH
  001b1	58		 pop	 eax
$LL101@LoadInt_e@5:
  001b2	8b c8		 mov	 ecx, eax
  001b4	81 e1 03 00 00
	80		 and	 ecx, -2147483645	; 80000003H
  001ba	79 05		 jns	 SHORT $LN111@LoadInt_e@5
  001bc	49		 dec	 ecx
  001bd	83 c9 fc	 or	 ecx, -4			; fffffffcH
  001c0	41		 inc	 ecx
$LN111@LoadInt_e@5:
  001c1	b2 ed		 mov	 dl, -19			; ffffffedH
  001c3	2a d1		 sub	 dl, cl
  001c5	30 54 05 e8	 xor	 BYTE PTR __k$[ebp+eax], dl
  001c9	40		 inc	 eax
  001ca	83 f8 0e	 cmp	 eax, 14			; 0000000eH
  001cd	7c e3		 jl	 SHORT $LL101@LoadInt_e@5

; 120  : 		return LoadInt(_k, i);

  001cf	ff 75 0c	 push	 DWORD PTR _i$[ebp]
  001d2	8d 45 e8	 lea	 eax, DWORD PTR __k$[ebp]
  001d5	50		 push	 eax
  001d6	8b ce		 mov	 ecx, esi
  001d8	ff 15 00 00 00
	00		 call	 DWORD PTR __imp_?LoadInt@ioINILoader@@QAEHPBDH@Z

; 121  : 	}

  001de	8b 4d fc	 mov	 ecx, DWORD PTR __$ArrayPad$[ebp]
  001e1	33 cd		 xor	 ecx, ebp
  001e3	5e		 pop	 esi
  001e4	e8 00 00 00 00	 call	 @__security_check_cookie@4
  001e9	c9		 leave
  001ea	c2 08 00	 ret	 8
??$LoadInt_e@$0P@@ioINILoader@@QAEHAAY0P@$$CBDH@Z ENDP	; ioINILoader::LoadInt_e<15>
_TEXT	ENDS
PUBLIC	??$GetAnimationEventTime_e@$0N@@ioEntityGroup@@QAEMHAAY0N@$$CBD@Z ; ioEntityGroup::GetAnimationEventTime_e<13>
EXTRN	__imp_?GetAnimationEventTime@ioEntityGroup@@QAEMHABVioHashString@@@Z:PROC
EXTRN	__imp_??0ioHashString@@QAE@PBD@Z:PROC
EXTRN	__EH_epilog3_GS:PROC
EXTRN	__EH_prolog3_GS:PROC
;	COMDAT xdata$x
; File d:\lost saga for developer\youtube\tutorial\source\src\lsclient\stringprotect.h
xdata$x	SEGMENT
__unwindtable$??$GetAnimationEventTime_e@$0N@@ioEntityGroup@@QAEMHAAY0N@$$CBD@Z DD 0ffffffffH
	DD	FLAT:__unwindfunclet$??$GetAnimationEventTime_e@$0N@@ioEntityGroup@@QAEMHAAY0N@$$CBD@Z$0
__ehfuncinfo$??$GetAnimationEventTime_e@$0N@@ioEntityGroup@@QAEMHAAY0N@$$CBD@Z DD 019930522H
	DD	01H
	DD	FLAT:__unwindtable$??$GetAnimationEventTime_e@$0N@@ioEntityGroup@@QAEMHAAY0N@$$CBD@Z
	DD	2 DUP(00H)
	DD	2 DUP(00H)
	DD	00H
	DD	01H
; Function compile flags: /Ogsp
; File d:\lost saga for developer\youtube\tutorial\source\src\io3dengine\ioentitygroup.h
xdata$x	ENDS
;	COMDAT ??$GetAnimationEventTime_e@$0N@@ioEntityGroup@@QAEMHAAY0N@$$CBD@Z
_TEXT	SEGMENT
$T576684 = -56						; size = 16
$T576683 = -40						; size = 4
_szEncEventType$ = -36					; size = 13
__$EHRec$ = -12						; size = 12
_id$ = 8						; size = 4
_szEventType$ = 12					; size = 4
??$GetAnimationEventTime_e@$0N@@ioEntityGroup@@QAEMHAAY0N@$$CBD@Z PROC ; ioEntityGroup::GetAnimationEventTime_e<13>, COMDAT
; _this$ = ecx

; 414  : 	{

  00000	6a 2c		 push	 44			; 0000002cH
  00002	b8 00 00 00 00	 mov	 eax, __ehhandler$??$GetAnimationEventTime_e@$0N@@ioEntityGroup@@QAEMHAAY0N@$$CBD@Z
  00007	e8 00 00 00 00	 call	 __EH_prolog3_GS
  0000c	8b 45 0c	 mov	 eax, DWORD PTR _szEventType$[ebp]
  0000f	8b f1		 mov	 esi, ecx

; 415  : 		_ENCSTR(szEventType, szEncEventType);

  00011	8a 08		 mov	 cl, BYTE PTR [eax]
  00013	84 c9		 test	 cl, cl
  00015	0f 84 49 01 00
	00		 je	 $LN96@GetAnimati
  0001b	80 f1 ed	 xor	 cl, -19			; ffffffedH
  0001e	88 4d dc	 mov	 BYTE PTR _szEncEventType$[ebp], cl
  00021	8a 48 01	 mov	 cl, BYTE PTR [eax+1]
  00024	84 c9		 test	 cl, cl
  00026	0f 84 32 01 00
	00		 je	 $LN95@GetAnimati
  0002c	80 f1 ec	 xor	 cl, -20			; ffffffecH
  0002f	88 4d dd	 mov	 BYTE PTR _szEncEventType$[ebp+1], cl
  00032	8a 48 02	 mov	 cl, BYTE PTR [eax+2]
  00035	84 c9		 test	 cl, cl
  00037	0f 84 1b 01 00
	00		 je	 $LN94@GetAnimati
  0003d	b2 eb		 mov	 dl, -21			; ffffffebH
  0003f	32 ca		 xor	 cl, dl
  00041	88 4d de	 mov	 BYTE PTR _szEncEventType$[ebp+2], cl
  00044	8a 48 03	 mov	 cl, BYTE PTR [eax+3]
  00047	84 c9		 test	 cl, cl
  00049	0f 84 03 01 00
	00		 je	 $LN93@GetAnimati
  0004f	80 f1 ea	 xor	 cl, -22			; ffffffeaH
  00052	88 4d df	 mov	 BYTE PTR _szEncEventType$[ebp+3], cl
  00055	8a 48 04	 mov	 cl, BYTE PTR [eax+4]
  00058	84 c9		 test	 cl, cl
  0005a	0f 84 ec 00 00
	00		 je	 $LN92@GetAnimati
  00060	80 f1 ed	 xor	 cl, -19			; ffffffedH
  00063	88 4d e0	 mov	 BYTE PTR _szEncEventType$[ebp+4], cl
  00066	8a 48 05	 mov	 cl, BYTE PTR [eax+5]
  00069	84 c9		 test	 cl, cl
  0006b	0f 84 d5 00 00
	00		 je	 $LN91@GetAnimati
  00071	80 f1 ec	 xor	 cl, -20			; ffffffecH
  00074	88 4d e1	 mov	 BYTE PTR _szEncEventType$[ebp+5], cl
  00077	8a 48 06	 mov	 cl, BYTE PTR [eax+6]
  0007a	84 c9		 test	 cl, cl
  0007c	0f 84 bf 00 00
	00		 je	 $LN90@GetAnimati
  00082	32 ca		 xor	 cl, dl
  00084	88 4d e2	 mov	 BYTE PTR _szEncEventType$[ebp+6], cl
  00087	8a 48 07	 mov	 cl, BYTE PTR [eax+7]
  0008a	84 c9		 test	 cl, cl
  0008c	0f 84 a9 00 00
	00		 je	 $LN89@GetAnimati
  00092	80 f1 ea	 xor	 cl, -22			; ffffffeaH
  00095	88 4d e3	 mov	 BYTE PTR _szEncEventType$[ebp+7], cl
  00098	8a 48 08	 mov	 cl, BYTE PTR [eax+8]
  0009b	84 c9		 test	 cl, cl
  0009d	0f 84 92 00 00
	00		 je	 $LN88@GetAnimati
  000a3	80 f1 ed	 xor	 cl, -19			; ffffffedH
  000a6	88 4d e4	 mov	 BYTE PTR _szEncEventType$[ebp+8], cl
  000a9	8a 48 09	 mov	 cl, BYTE PTR [eax+9]
  000ac	84 c9		 test	 cl, cl
  000ae	74 7f		 je	 SHORT $LN87@GetAnimati
  000b0	80 f1 ec	 xor	 cl, -20			; ffffffecH
  000b3	88 4d e5	 mov	 BYTE PTR _szEncEventType$[ebp+9], cl
  000b6	8a 48 0a	 mov	 cl, BYTE PTR [eax+10]
  000b9	84 c9		 test	 cl, cl
  000bb	74 6d		 je	 SHORT $LN86@GetAnimati
  000bd	32 ca		 xor	 cl, dl
  000bf	88 4d e6	 mov	 BYTE PTR _szEncEventType$[ebp+10], cl
  000c2	8a 48 0b	 mov	 cl, BYTE PTR [eax+11]
  000c5	84 c9		 test	 cl, cl
  000c7	74 5b		 je	 SHORT $LN85@GetAnimati
  000c9	80 f1 ea	 xor	 cl, -22			; ffffffeaH
  000cc	80 78 0c 00	 cmp	 BYTE PTR [eax+12], 0
  000d0	88 4d e7	 mov	 BYTE PTR _szEncEventType$[ebp+11], cl
  000d3	0f 84 8f 00 00
	00		 je	 $LN1@GetAnimati
  000d9	8a 48 0d	 mov	 cl, BYTE PTR [eax+13]
  000dc	84 c9		 test	 cl, cl
  000de	74 3e		 je	 SHORT $LN83@GetAnimati
  000e0	80 f1 ec	 xor	 cl, -20			; ffffffecH
  000e3	88 4d e9	 mov	 BYTE PTR _szEncEventType$[ebp+13], cl
  000e6	8a 48 0e	 mov	 cl, BYTE PTR [eax+14]
  000e9	84 c9		 test	 cl, cl
  000eb	74 2c		 je	 SHORT $LN82@GetAnimati
  000ed	32 ca		 xor	 cl, dl
  000ef	88 4d ea	 mov	 BYTE PTR _szEncEventType$[ebp+14], cl
  000f2	8a 48 0f	 mov	 cl, BYTE PTR [eax+15]
  000f5	84 c9		 test	 cl, cl
  000f7	74 1a		 je	 SHORT $LN81@GetAnimati
  000f9	8a 40 10	 mov	 al, BYTE PTR [eax+16]
  000fc	80 f1 ea	 xor	 cl, -22			; ffffffeaH
  000ff	88 4d eb	 mov	 BYTE PTR _szEncEventType$[ebp+15], cl
  00102	84 c0		 test	 al, al
  00104	74 07		 je	 SHORT $LN80@GetAnimati
  00106	34 ed		 xor	 al, -19			; ffffffedH
  00108	88 45 ec	 mov	 BYTE PTR _szEncEventType$[ebp+16], al
  0010b	eb 5b		 jmp	 SHORT $LN1@GetAnimati
$LN80@GetAnimati:
  0010d	c6 45 ec ed	 mov	 BYTE PTR _szEncEventType$[ebp+16], -19 ; ffffffedH
  00111	eb 55		 jmp	 SHORT $LN1@GetAnimati
$LN81@GetAnimati:
  00113	c6 45 eb ea	 mov	 BYTE PTR _szEncEventType$[ebp+15], -22 ; ffffffeaH
  00117	eb 4f		 jmp	 SHORT $LN1@GetAnimati
$LN82@GetAnimati:
  00119	88 55 ea	 mov	 BYTE PTR _szEncEventType$[ebp+14], dl
  0011c	eb 4a		 jmp	 SHORT $LN1@GetAnimati
$LN83@GetAnimati:
  0011e	c6 45 e9 ec	 mov	 BYTE PTR _szEncEventType$[ebp+13], -20 ; ffffffecH
  00122	eb 44		 jmp	 SHORT $LN1@GetAnimati
$LN85@GetAnimati:
  00124	c6 45 e7 ea	 mov	 BYTE PTR _szEncEventType$[ebp+11], -22 ; ffffffeaH
  00128	eb 3e		 jmp	 SHORT $LN1@GetAnimati
$LN86@GetAnimati:
  0012a	88 55 e6	 mov	 BYTE PTR _szEncEventType$[ebp+10], dl
  0012d	eb 39		 jmp	 SHORT $LN1@GetAnimati
$LN87@GetAnimati:
  0012f	c6 45 e5 ec	 mov	 BYTE PTR _szEncEventType$[ebp+9], -20 ; ffffffecH
  00133	eb 33		 jmp	 SHORT $LN1@GetAnimati
$LN88@GetAnimati:
  00135	c6 45 e4 ed	 mov	 BYTE PTR _szEncEventType$[ebp+8], -19 ; ffffffedH
  00139	eb 2d		 jmp	 SHORT $LN1@GetAnimati
$LN89@GetAnimati:
  0013b	c6 45 e3 ea	 mov	 BYTE PTR _szEncEventType$[ebp+7], -22 ; ffffffeaH
  0013f	eb 27		 jmp	 SHORT $LN1@GetAnimati
$LN90@GetAnimati:
  00141	88 55 e2	 mov	 BYTE PTR _szEncEventType$[ebp+6], dl
  00144	eb 22		 jmp	 SHORT $LN1@GetAnimati
$LN91@GetAnimati:
  00146	c6 45 e1 ec	 mov	 BYTE PTR _szEncEventType$[ebp+5], -20 ; ffffffecH
  0014a	eb 1c		 jmp	 SHORT $LN1@GetAnimati
$LN92@GetAnimati:
  0014c	c6 45 e0 ed	 mov	 BYTE PTR _szEncEventType$[ebp+4], -19 ; ffffffedH
  00150	eb 16		 jmp	 SHORT $LN1@GetAnimati
$LN93@GetAnimati:
  00152	c6 45 df ea	 mov	 BYTE PTR _szEncEventType$[ebp+3], -22 ; ffffffeaH
  00156	eb 10		 jmp	 SHORT $LN1@GetAnimati
$LN94@GetAnimati:
  00158	c6 45 de eb	 mov	 BYTE PTR _szEncEventType$[ebp+2], -21 ; ffffffebH
  0015c	eb 0a		 jmp	 SHORT $LN1@GetAnimati
$LN95@GetAnimati:
  0015e	c6 45 dd ec	 mov	 BYTE PTR _szEncEventType$[ebp+1], -20 ; ffffffecH
  00162	eb 04		 jmp	 SHORT $LN1@GetAnimati
$LN96@GetAnimati:
  00164	c6 45 dc ed	 mov	 BYTE PTR _szEncEventType$[ebp], -19 ; ffffffedH
$LN1@GetAnimati:
  00168	6a 03		 push	 3
  0016a	8d 45 dc	 lea	 eax, DWORD PTR _szEncEventType$[ebp]
  0016d	c6 45 e8 00	 mov	 BYTE PTR _szEncEventType$[ebp+12], 0
  00171	59		 pop	 ecx
$LL105@GetAnimati:
  00172	81 30 ed ec eb
	ea		 xor	 DWORD PTR [eax], -353637139 ; eaebecedH
  00178	83 c0 04	 add	 eax, 4
  0017b	49		 dec	 ecx
  0017c	75 f4		 jne	 SHORT $LL105@GetAnimati

; 416  : 		return GetAnimationEventTime(id, szEncEventType);

  0017e	8d 45 dc	 lea	 eax, DWORD PTR _szEncEventType$[ebp]
  00181	50		 push	 eax
  00182	8d 4d c8	 lea	 ecx, DWORD PTR $T576684[ebp]
  00185	ff 15 00 00 00
	00		 call	 DWORD PTR __imp_??0ioHashString@@QAE@PBD@Z
  0018b	83 65 fc 00	 and	 DWORD PTR __$EHRec$[ebp+8], 0
  0018f	8d 45 c8	 lea	 eax, DWORD PTR $T576684[ebp]
  00192	50		 push	 eax
  00193	ff 75 08	 push	 DWORD PTR _id$[ebp]
  00196	8b ce		 mov	 ecx, esi
  00198	ff 15 00 00 00
	00		 call	 DWORD PTR __imp_?GetAnimationEventTime@ioEntityGroup@@QAEMHABVioHashString@@@Z
  0019e	d9 5d d8	 fstp	 DWORD PTR $T576683[ebp]
  001a1	83 4d fc ff	 or	 DWORD PTR __$EHRec$[ebp+8], -1
  001a5	8d 4d c8	 lea	 ecx, DWORD PTR $T576684[ebp]
  001a8	ff 15 00 00 00
	00		 call	 DWORD PTR __imp_??1ioHashString@@QAE@XZ
  001ae	d9 45 d8	 fld	 DWORD PTR $T576683[ebp]

; 417  : 	}

  001b1	e8 00 00 00 00	 call	 __EH_epilog3_GS
  001b6	c2 08 00	 ret	 8
_TEXT	ENDS
;	COMDAT text$x
text$x	SEGMENT
__unwindfunclet$??$GetAnimationEventTime_e@$0N@@ioEntityGroup@@QAEMHAAY0N@$$CBD@Z$0:
  00000	8d 4d c8	 lea	 ecx, DWORD PTR $T576684[ebp]
  00003	ff 25 00 00 00
	00		 jmp	 DWORD PTR __imp_??1ioHashString@@QAE@XZ
__ehhandler$??$GetAnimationEventTime_e@$0N@@ioEntityGroup@@QAEMHAAY0N@$$CBD@Z:
  00009	8b 54 24 08	 mov	 edx, DWORD PTR [esp+8]
  0000d	8d 42 0c	 lea	 eax, DWORD PTR [edx+12]
  00010	8b 4a c4	 mov	 ecx, DWORD PTR [edx-60]
  00013	33 c8		 xor	 ecx, eax
  00015	e8 00 00 00 00	 call	 @__security_check_cookie@4
  0001a	8b 4a fc	 mov	 ecx, DWORD PTR [edx-4]
  0001d	33 c8		 xor	 ecx, eax
  0001f	e8 00 00 00 00	 call	 @__security_check_cookie@4
  00024	b8 00 00 00 00	 mov	 eax, OFFSET __ehfuncinfo$??$GetAnimationEventTime_e@$0N@@ioEntityGroup@@QAEMHAAY0N@$$CBD@Z
  00029	e9 00 00 00 00	 jmp	 ___CxxFrameHandler3
text$x	ENDS
??$GetAnimationEventTime_e@$0N@@ioEntityGroup@@QAEMHAAY0N@$$CBD@Z ENDP ; ioEntityGroup::GetAnimationEventTime_e<13>
PUBLIC	??$_Cons_val@V?$allocator@UWeaponMoveInfo@@@std@@UWeaponMoveInfo@@AAU3@@std@@YAXAAV?$allocator@UWeaponMoveInfo@@@0@PAUWeaponMoveInfo@@AAU2@@Z ; std::_Cons_val<std::allocator<WeaponMoveInfo>,WeaponMoveInfo,WeaponMoveInfo &>
; Function compile flags: /Ogsp
; File c:\program files (x86)\microsoft visual studio 10.0\vc\include\xmemory
;	COMDAT ??$_Cons_val@V?$allocator@UWeaponMoveInfo@@@std@@UWeaponMoveInfo@@AAU3@@std@@YAXAAV?$allocator@UWeaponMoveInfo@@@0@PAUWeaponMoveInfo@@AAU2@@Z
_TEXT	SEGMENT
__Alval$ = 8						; size = 4
__Pdest$ = 12						; size = 4
__Src$ = 16						; size = 4
??$_Cons_val@V?$allocator@UWeaponMoveInfo@@@std@@UWeaponMoveInfo@@AAU3@@std@@YAXAAV?$allocator@UWeaponMoveInfo@@@0@PAUWeaponMoveInfo@@AAU2@@Z PROC ; std::_Cons_val<std::allocator<WeaponMoveInfo>,WeaponMoveInfo,WeaponMoveInfo &>, COMDAT

; 279  : 	{	// construct using allocator

  00000	55		 push	 ebp
  00001	8b ec		 mov	 ebp, esp
  00003	57		 push	 edi

; 280  : 	_Alval.construct(_Pdest, _STD forward<_Ty2>(_Src));

  00004	8b 7d 0c	 mov	 edi, DWORD PTR __Pdest$[ebp]
  00007	85 ff		 test	 edi, edi
  00009	74 0a		 je	 SHORT $LN7@Cons_val
  0000b	56		 push	 esi
  0000c	8b 75 10	 mov	 esi, DWORD PTR __Src$[ebp]
  0000f	6a 05		 push	 5
  00011	59		 pop	 ecx
  00012	f3 a5		 rep movsd
  00014	5e		 pop	 esi
$LN7@Cons_val:
  00015	5f		 pop	 edi

; 281  : 	}

  00016	5d		 pop	 ebp
  00017	c3		 ret	 0
??$_Cons_val@V?$allocator@UWeaponMoveInfo@@@std@@UWeaponMoveInfo@@AAU3@@std@@YAXAAV?$allocator@UWeaponMoveInfo@@@0@PAUWeaponMoveInfo@@AAU2@@Z ENDP ; std::_Cons_val<std::allocator<WeaponMoveInfo>,WeaponMoveInfo,WeaponMoveInfo &>
_TEXT	ENDS
PUBLIC	?construct@?$allocator@UForceInfo@@@std@@QAEXPAUForceInfo@@ABU3@@Z ; std::allocator<ForceInfo>::construct
; Function compile flags: /Ogsp
;	COMDAT ?construct@?$allocator@UForceInfo@@@std@@QAEXPAUForceInfo@@ABU3@@Z
_TEXT	SEGMENT
__Ptr$ = 8						; size = 4
__Val$ = 12						; size = 4
?construct@?$allocator@UForceInfo@@@std@@QAEXPAUForceInfo@@ABU3@@Z PROC ; std::allocator<ForceInfo>::construct, COMDAT
; _this$ = ecx

; 196  : 		{	// construct object at _Ptr with value _Val

  00000	55		 push	 ebp
  00001	8b ec		 mov	 ebp, esp
  00003	57		 push	 edi

; 197  : 		_Construct(_Ptr, _Val);

  00004	8b 7d 08	 mov	 edi, DWORD PTR __Ptr$[ebp]
  00007	85 ff		 test	 edi, edi
  00009	74 08		 je	 SHORT $LN5@construct@3
  0000b	56		 push	 esi
  0000c	8b 75 0c	 mov	 esi, DWORD PTR __Val$[ebp]
  0000f	a5		 movsd
  00010	a5		 movsd
  00011	a5		 movsd
  00012	5e		 pop	 esi
$LN5@construct@3:
  00013	5f		 pop	 edi

; 198  : 		}

  00014	5d		 pop	 ebp
  00015	c2 08 00	 ret	 8
?construct@?$allocator@UForceInfo@@@std@@QAEXPAUForceInfo@@ABU3@@Z ENDP ; std::allocator<ForceInfo>::construct
_TEXT	ENDS
PUBLIC	?construct@?$allocator@UWeaponMoveInfo@@@std@@QAEXPAUWeaponMoveInfo@@ABU3@@Z ; std::allocator<WeaponMoveInfo>::construct
; Function compile flags: /Ogsp
;	COMDAT ?construct@?$allocator@UWeaponMoveInfo@@@std@@QAEXPAUWeaponMoveInfo@@ABU3@@Z
_TEXT	SEGMENT
__Ptr$ = 8						; size = 4
__Val$ = 12						; size = 4
?construct@?$allocator@UWeaponMoveInfo@@@std@@QAEXPAUWeaponMoveInfo@@ABU3@@Z PROC ; std::allocator<WeaponMoveInfo>::construct, COMDAT
; _this$ = ecx

; 196  : 		{	// construct object at _Ptr with value _Val

  00000	55		 push	 ebp
  00001	8b ec		 mov	 ebp, esp
  00003	57		 push	 edi

; 197  : 		_Construct(_Ptr, _Val);

  00004	8b 7d 08	 mov	 edi, DWORD PTR __Ptr$[ebp]
  00007	85 ff		 test	 edi, edi
  00009	74 0a		 je	 SHORT $LN5@construct@4
  0000b	56		 push	 esi
  0000c	8b 75 0c	 mov	 esi, DWORD PTR __Val$[ebp]
  0000f	6a 05		 push	 5
  00011	59		 pop	 ecx
  00012	f3 a5		 rep movsd
  00014	5e		 pop	 esi
$LN5@construct@4:
  00015	5f		 pop	 edi

; 198  : 		}

  00016	5d		 pop	 ebp
  00017	c2 08 00	 ret	 8
?construct@?$allocator@UWeaponMoveInfo@@@std@@QAEXPAUWeaponMoveInfo@@ABU3@@Z ENDP ; std::allocator<WeaponMoveInfo>::construct
_TEXT	ENDS
PUBLIC	??$_Move@PAUWeaponMoveInfo@@PAU1@@std@@YAPAUWeaponMoveInfo@@PAU1@00U_Nonscalar_ptr_iterator_tag@0@@Z ; std::_Move<WeaponMoveInfo *,WeaponMoveInfo *>
; Function compile flags: /Ogsp
; File c:\program files (x86)\microsoft visual studio 10.0\vc\include\xutility
;	COMDAT ??$_Move@PAUWeaponMoveInfo@@PAU1@@std@@YAPAUWeaponMoveInfo@@PAU1@00U_Nonscalar_ptr_iterator_tag@0@@Z
_TEXT	SEGMENT
__First$ = 8						; size = 4
__Last$ = 12						; size = 4
__Dest$ = 16						; size = 4
___formal$ = 20						; size = 1
??$_Move@PAUWeaponMoveInfo@@PAU1@@std@@YAPAUWeaponMoveInfo@@PAU1@00U_Nonscalar_ptr_iterator_tag@0@@Z PROC ; std::_Move<WeaponMoveInfo *,WeaponMoveInfo *>, COMDAT

; 2512 : 	{	// move [_First, _Last) to [_Dest, ...), arbitrary iterators

  00000	55		 push	 ebp
  00001	8b ec		 mov	 ebp, esp

; 2513 : 	for (; _First != _Last; ++_Dest, ++_First)

  00003	8b 45 08	 mov	 eax, DWORD PTR __First$[ebp]
  00006	3b 45 0c	 cmp	 eax, DWORD PTR __Last$[ebp]
  00009	74 1a		 je	 SHORT $LN10@Move
  0000b	56		 push	 esi
  0000c	57		 push	 edi
$LL3@Move:

; 2514 : 		*_Dest = _STD move(*_First);

  0000d	8b 7d 10	 mov	 edi, DWORD PTR __Dest$[ebp]
  00010	83 45 10 14	 add	 DWORD PTR __Dest$[ebp], 20 ; 00000014H
  00014	8b f0		 mov	 esi, eax
  00016	6a 05		 push	 5
  00018	83 c0 14	 add	 eax, 20			; 00000014H
  0001b	59		 pop	 ecx
  0001c	f3 a5		 rep movsd
  0001e	3b 45 0c	 cmp	 eax, DWORD PTR __Last$[ebp]
  00021	75 ea		 jne	 SHORT $LL3@Move
  00023	5f		 pop	 edi
  00024	5e		 pop	 esi
$LN10@Move:

; 2515 : 	return (_Dest);

  00025	8b 45 10	 mov	 eax, DWORD PTR __Dest$[ebp]

; 2516 : 	}

  00028	5d		 pop	 ebp
  00029	c3		 ret	 0
??$_Move@PAUWeaponMoveInfo@@PAU1@@std@@YAPAUWeaponMoveInfo@@PAU1@00U_Nonscalar_ptr_iterator_tag@0@@Z ENDP ; std::_Move<WeaponMoveInfo *,WeaponMoveInfo *>
_TEXT	ENDS
PUBLIC	??$_Construct@UWeaponInfo@@ABU1@@std@@YAXPAUWeaponInfo@@ABU1@@Z ; std::_Construct<WeaponInfo,WeaponInfo const &>
;	COMDAT xdata$x
; File c:\program files (x86)\microsoft visual studio 10.0\vc\include\utility
xdata$x	SEGMENT
__unwindtable$??$_Construct@UWeaponInfo@@ABU1@@std@@YAXPAUWeaponInfo@@ABU1@@Z DD 0ffffffffH
	DD	FLAT:__unwindfunclet$??$_Construct@UWeaponInfo@@ABU1@@std@@YAXPAUWeaponInfo@@ABU1@@Z$0
__ehfuncinfo$??$_Construct@UWeaponInfo@@ABU1@@std@@YAXPAUWeaponInfo@@ABU1@@Z DD 019930522H
	DD	01H
	DD	FLAT:__unwindtable$??$_Construct@UWeaponInfo@@ABU1@@std@@YAXPAUWeaponInfo@@ABU1@@Z
	DD	2 DUP(00H)
	DD	2 DUP(00H)
	DD	00H
	DD	01H
; Function compile flags: /Ogsp
; File c:\program files (x86)\microsoft visual studio 10.0\vc\include\xmemory
xdata$x	ENDS
;	COMDAT ??$_Construct@UWeaponInfo@@ABU1@@std@@YAXPAUWeaponInfo@@ABU1@@Z
_TEXT	SEGMENT
$T576797 = -16						; size = 4
__$EHRec$ = -12						; size = 12
__Vptr$ = 8						; size = 4
__Ptr$ = 8						; size = 4
__Val$ = 12						; size = 4
??$_Construct@UWeaponInfo@@ABU1@@std@@YAXPAUWeaponInfo@@ABU1@@Z PROC ; std::_Construct<WeaponInfo,WeaponInfo const &>, COMDAT

; 46   : 	{	// construct object at _Ptr with value _Val

  00000	6a 04		 push	 4
  00002	b8 00 00 00 00	 mov	 eax, __ehhandler$??$_Construct@UWeaponInfo@@ABU1@@std@@YAXPAUWeaponInfo@@ABU1@@Z
  00007	e8 00 00 00 00	 call	 __EH_prolog3

; 47   : 	void _FARQ *_Vptr = _Ptr;

  0000c	8b 4d 08	 mov	 ecx, DWORD PTR __Ptr$[ebp]
  0000f	89 4d 08	 mov	 DWORD PTR __Vptr$[ebp], ecx

; 48   : 	::new (_Vptr) _Ty1(_STD forward<_Ty2>(_Val));

  00012	89 4d f0	 mov	 DWORD PTR $T576797[ebp], ecx
  00015	83 65 fc 00	 and	 DWORD PTR __$EHRec$[ebp+8], 0
  00019	85 c9		 test	 ecx, ecx
  0001b	74 08		 je	 SHORT $LN3@Construct@3
  0001d	ff 75 0c	 push	 DWORD PTR __Val$[ebp]
  00020	e8 00 00 00 00	 call	 ??0WeaponInfo@@QAE@ABU0@@Z
$LN3@Construct@3:

; 49   : 	}

  00025	e8 00 00 00 00	 call	 __EH_epilog3
  0002a	c3		 ret	 0
_TEXT	ENDS
;	COMDAT text$x
text$x	SEGMENT
__unwindfunclet$??$_Construct@UWeaponInfo@@ABU1@@std@@YAXPAUWeaponInfo@@ABU1@@Z$0:
  00000	ff 75 08	 push	 DWORD PTR __Vptr$[ebp]
  00003	ff 75 f0	 push	 DWORD PTR $T576797[ebp]
  00006	e8 00 00 00 00	 call	 ??3@YAXPAX0@Z		; operator delete
  0000b	59		 pop	 ecx
  0000c	59		 pop	 ecx
  0000d	c3		 ret	 0
__ehhandler$??$_Construct@UWeaponInfo@@ABU1@@std@@YAXPAUWeaponInfo@@ABU1@@Z:
  0000e	8b 54 24 08	 mov	 edx, DWORD PTR [esp+8]
  00012	8d 42 0c	 lea	 eax, DWORD PTR [edx+12]
  00015	8b 4a ec	 mov	 ecx, DWORD PTR [edx-20]
  00018	33 c8		 xor	 ecx, eax
  0001a	e8 00 00 00 00	 call	 @__security_check_cookie@4
  0001f	b8 00 00 00 00	 mov	 eax, OFFSET __ehfuncinfo$??$_Construct@UWeaponInfo@@ABU1@@std@@YAXPAUWeaponInfo@@ABU1@@Z
  00024	e9 00 00 00 00	 jmp	 ___CxxFrameHandler3
text$x	ENDS
??$_Construct@UWeaponInfo@@ABU1@@std@@YAXPAUWeaponInfo@@ABU1@@Z ENDP ; std::_Construct<WeaponInfo,WeaponInfo const &>
PUBLIC	??$_Construct@UBuffInfoStruct@@ABU1@@std@@YAXPAUBuffInfoStruct@@ABU1@@Z ; std::_Construct<BuffInfoStruct,BuffInfoStruct const &>
;	COMDAT xdata$x
; File c:\program files (x86)\microsoft visual studio 10.0\vc\include\vector
xdata$x	SEGMENT
__unwindtable$??$_Construct@UBuffInfoStruct@@ABU1@@std@@YAXPAUBuffInfoStruct@@ABU1@@Z DD 0ffffffffH
	DD	FLAT:__unwindfunclet$??$_Construct@UBuffInfoStruct@@ABU1@@std@@YAXPAUBuffInfoStruct@@ABU1@@Z$0
__ehfuncinfo$??$_Construct@UBuffInfoStruct@@ABU1@@std@@YAXPAUBuffInfoStruct@@ABU1@@Z DD 019930522H
	DD	01H
	DD	FLAT:__unwindtable$??$_Construct@UBuffInfoStruct@@ABU1@@std@@YAXPAUBuffInfoStruct@@ABU1@@Z
	DD	2 DUP(00H)
	DD	2 DUP(00H)
	DD	00H
	DD	01H
; Function compile flags: /Ogsp
; File c:\program files (x86)\microsoft visual studio 10.0\vc\include\xmemory
xdata$x	ENDS
;	COMDAT ??$_Construct@UBuffInfoStruct@@ABU1@@std@@YAXPAUBuffInfoStruct@@ABU1@@Z
_TEXT	SEGMENT
$T576816 = -16						; size = 4
__$EHRec$ = -12						; size = 12
__Vptr$ = 8						; size = 4
__Ptr$ = 8						; size = 4
__Val$ = 12						; size = 4
??$_Construct@UBuffInfoStruct@@ABU1@@std@@YAXPAUBuffInfoStruct@@ABU1@@Z PROC ; std::_Construct<BuffInfoStruct,BuffInfoStruct const &>, COMDAT

; 46   : 	{	// construct object at _Ptr with value _Val

  00000	6a 04		 push	 4
  00002	b8 00 00 00 00	 mov	 eax, __ehhandler$??$_Construct@UBuffInfoStruct@@ABU1@@std@@YAXPAUBuffInfoStruct@@ABU1@@Z
  00007	e8 00 00 00 00	 call	 __EH_prolog3

; 47   : 	void _FARQ *_Vptr = _Ptr;

  0000c	8b 75 08	 mov	 esi, DWORD PTR __Ptr$[ebp]
  0000f	89 75 08	 mov	 DWORD PTR __Vptr$[ebp], esi

; 48   : 	::new (_Vptr) _Ty1(_STD forward<_Ty2>(_Val));

  00012	89 75 f0	 mov	 DWORD PTR $T576816[ebp], esi
  00015	83 65 fc 00	 and	 DWORD PTR __$EHRec$[ebp+8], 0
  00019	85 f6		 test	 esi, esi
  0001b	74 12		 je	 SHORT $LN3@Construct@4
  0001d	8b 7d 0c	 mov	 edi, DWORD PTR __Val$[ebp]
  00020	57		 push	 edi
  00021	8b ce		 mov	 ecx, esi
  00023	ff 15 00 00 00
	00		 call	 DWORD PTR __imp_??0ioHashString@@QAE@ABV0@@Z
  00029	8b 47 10	 mov	 eax, DWORD PTR [edi+16]
  0002c	89 46 10	 mov	 DWORD PTR [esi+16], eax
$LN3@Construct@4:

; 49   : 	}

  0002f	e8 00 00 00 00	 call	 __EH_epilog3
  00034	c3		 ret	 0
_TEXT	ENDS
;	COMDAT text$x
text$x	SEGMENT
__unwindfunclet$??$_Construct@UBuffInfoStruct@@ABU1@@std@@YAXPAUBuffInfoStruct@@ABU1@@Z$0:
  00000	ff 75 08	 push	 DWORD PTR __Vptr$[ebp]
  00003	ff 75 f0	 push	 DWORD PTR $T576816[ebp]
  00006	e8 00 00 00 00	 call	 ??3@YAXPAX0@Z		; operator delete
  0000b	59		 pop	 ecx
  0000c	59		 pop	 ecx
  0000d	c3		 ret	 0
__ehhandler$??$_Construct@UBuffInfoStruct@@ABU1@@std@@YAXPAUBuffInfoStruct@@ABU1@@Z:
  0000e	8b 54 24 08	 mov	 edx, DWORD PTR [esp+8]
  00012	8d 42 0c	 lea	 eax, DWORD PTR [edx+12]
  00015	8b 4a ec	 mov	 ecx, DWORD PTR [edx-20]
  00018	33 c8		 xor	 ecx, eax
  0001a	e8 00 00 00 00	 call	 @__security_check_cookie@4
  0001f	b8 00 00 00 00	 mov	 eax, OFFSET __ehfuncinfo$??$_Construct@UBuffInfoStruct@@ABU1@@std@@YAXPAUBuffInfoStruct@@ABU1@@Z
  00024	e9 00 00 00 00	 jmp	 ___CxxFrameHandler3
text$x	ENDS
??$_Construct@UBuffInfoStruct@@ABU1@@std@@YAXPAUBuffInfoStruct@@ABU1@@Z ENDP ; std::_Construct<BuffInfoStruct,BuffInfoStruct const &>
PUBLIC	?destroy@?$allocator@UWeaponMoveInfo@@@std@@QAEXPAUWeaponMoveInfo@@@Z ; std::allocator<WeaponMoveInfo>::destroy
; Function compile flags: /Ogsp
;	COMDAT ?destroy@?$allocator@UWeaponMoveInfo@@@std@@QAEXPAUWeaponMoveInfo@@@Z
_TEXT	SEGMENT
__Ptr$ = 8						; size = 4
?destroy@?$allocator@UWeaponMoveInfo@@@std@@QAEXPAUWeaponMoveInfo@@@Z PROC ; std::allocator<WeaponMoveInfo>::destroy, COMDAT
; _this$ = ecx

; 213  : 		_Destroy(_Ptr);
; 214  : 		}

  00000	c2 04 00	 ret	 4
?destroy@?$allocator@UWeaponMoveInfo@@@std@@QAEXPAUWeaponMoveInfo@@@Z ENDP ; std::allocator<WeaponMoveInfo>::destroy
_TEXT	ENDS
PUBLIC	?construct@?$allocator@UWeaponInfo@@@std@@QAEXPAUWeaponInfo@@$$QAU3@@Z ; std::allocator<WeaponInfo>::construct
;	COMDAT xdata$x
; File c:\program files (x86)\microsoft visual studio 10.0\vc\include\utility
xdata$x	SEGMENT
__unwindtable$?construct@?$allocator@UWeaponInfo@@@std@@QAEXPAUWeaponInfo@@$$QAU3@@Z DD 0ffffffffH
	DD	FLAT:__unwindfunclet$?construct@?$allocator@UWeaponInfo@@@std@@QAEXPAUWeaponInfo@@$$QAU3@@Z$0
__ehfuncinfo$?construct@?$allocator@UWeaponInfo@@@std@@QAEXPAUWeaponInfo@@$$QAU3@@Z DD 019930522H
	DD	01H
	DD	FLAT:__unwindtable$?construct@?$allocator@UWeaponInfo@@@std@@QAEXPAUWeaponInfo@@$$QAU3@@Z
	DD	2 DUP(00H)
	DD	2 DUP(00H)
	DD	00H
	DD	01H
; Function compile flags: /Ogsp
; File c:\program files (x86)\microsoft visual studio 10.0\vc\include\xmemory
xdata$x	ENDS
;	COMDAT ?construct@?$allocator@UWeaponInfo@@@std@@QAEXPAUWeaponInfo@@$$QAU3@@Z
_TEXT	SEGMENT
$T576845 = -16						; size = 4
__$EHRec$ = -12						; size = 12
__Ptr$ = 8						; size = 4
__Val$ = 12						; size = 4
?construct@?$allocator@UWeaponInfo@@@std@@QAEXPAUWeaponInfo@@$$QAU3@@Z PROC ; std::allocator<WeaponInfo>::construct, COMDAT
; _this$ = ecx

; 201  : 		{	// construct object at _Ptr with value _Val

  00000	6a 04		 push	 4
  00002	b8 00 00 00 00	 mov	 eax, __ehhandler$?construct@?$allocator@UWeaponInfo@@@std@@QAEXPAUWeaponInfo@@$$QAU3@@Z
  00007	e8 00 00 00 00	 call	 __EH_prolog3

; 202  : 		::new ((void _FARQ *)_Ptr) _Ty(_STD forward<_Ty>(_Val));

  0000c	8b 4d 08	 mov	 ecx, DWORD PTR __Ptr$[ebp]
  0000f	89 4d f0	 mov	 DWORD PTR $T576845[ebp], ecx
  00012	83 65 fc 00	 and	 DWORD PTR __$EHRec$[ebp+8], 0
  00016	85 c9		 test	 ecx, ecx
  00018	74 08		 je	 SHORT $LN3@construct@5
  0001a	ff 75 0c	 push	 DWORD PTR __Val$[ebp]
  0001d	e8 00 00 00 00	 call	 ??0WeaponInfo@@QAE@ABU0@@Z
$LN3@construct@5:

; 203  : 		}

  00022	e8 00 00 00 00	 call	 __EH_epilog3
  00027	c2 08 00	 ret	 8
_TEXT	ENDS
;	COMDAT text$x
text$x	SEGMENT
__unwindfunclet$?construct@?$allocator@UWeaponInfo@@@std@@QAEXPAUWeaponInfo@@$$QAU3@@Z$0:
  00000	ff 75 08	 push	 DWORD PTR __Ptr$[ebp]
  00003	ff 75 f0	 push	 DWORD PTR $T576845[ebp]
  00006	e8 00 00 00 00	 call	 ??3@YAXPAX0@Z		; operator delete
  0000b	59		 pop	 ecx
  0000c	59		 pop	 ecx
  0000d	c3		 ret	 0
__ehhandler$?construct@?$allocator@UWeaponInfo@@@std@@QAEXPAUWeaponInfo@@$$QAU3@@Z:
  0000e	8b 54 24 08	 mov	 edx, DWORD PTR [esp+8]
  00012	8d 42 0c	 lea	 eax, DWORD PTR [edx+12]
  00015	8b 4a ec	 mov	 ecx, DWORD PTR [edx-20]
  00018	33 c8		 xor	 ecx, eax
  0001a	e8 00 00 00 00	 call	 @__security_check_cookie@4
  0001f	b8 00 00 00 00	 mov	 eax, OFFSET __ehfuncinfo$?construct@?$allocator@UWeaponInfo@@@std@@QAEXPAUWeaponInfo@@$$QAU3@@Z
  00024	e9 00 00 00 00	 jmp	 ___CxxFrameHandler3
text$x	ENDS
?construct@?$allocator@UWeaponInfo@@@std@@QAEXPAUWeaponInfo@@$$QAU3@@Z ENDP ; std::allocator<WeaponInfo>::construct
PUBLIC	?construct@?$allocator@UForceInfo@@@std@@QAEXPAUForceInfo@@$$QAU3@@Z ; std::allocator<ForceInfo>::construct
; Function compile flags: /Ogsp
;	COMDAT ?construct@?$allocator@UForceInfo@@@std@@QAEXPAUForceInfo@@$$QAU3@@Z
_TEXT	SEGMENT
__Ptr$ = 8						; size = 4
__Val$ = 12						; size = 4
?construct@?$allocator@UForceInfo@@@std@@QAEXPAUForceInfo@@$$QAU3@@Z PROC ; std::allocator<ForceInfo>::construct, COMDAT
; _this$ = ecx

; 201  : 		{	// construct object at _Ptr with value _Val

  00000	55		 push	 ebp
  00001	8b ec		 mov	 ebp, esp
  00003	57		 push	 edi

; 202  : 		::new ((void _FARQ *)_Ptr) _Ty(_STD forward<_Ty>(_Val));

  00004	8b 7d 08	 mov	 edi, DWORD PTR __Ptr$[ebp]
  00007	85 ff		 test	 edi, edi
  00009	74 08		 je	 SHORT $LN3@construct@6
  0000b	56		 push	 esi
  0000c	8b 75 0c	 mov	 esi, DWORD PTR __Val$[ebp]
  0000f	a5		 movsd
  00010	a5		 movsd
  00011	a5		 movsd
  00012	5e		 pop	 esi
$LN3@construct@6:
  00013	5f		 pop	 edi

; 203  : 		}

  00014	5d		 pop	 ebp
  00015	c2 08 00	 ret	 8
?construct@?$allocator@UForceInfo@@@std@@QAEXPAUForceInfo@@$$QAU3@@Z ENDP ; std::allocator<ForceInfo>::construct
_TEXT	ENDS
PUBLIC	?construct@?$allocator@UBuffInfoStruct@@@std@@QAEXPAUBuffInfoStruct@@$$QAU3@@Z ; std::allocator<BuffInfoStruct>::construct
;	COMDAT xdata$x
; File c:\program files (x86)\microsoft visual studio 10.0\vc\include\vector
xdata$x	SEGMENT
__unwindtable$?construct@?$allocator@UBuffInfoStruct@@@std@@QAEXPAUBuffInfoStruct@@$$QAU3@@Z DD 0ffffffffH
	DD	FLAT:__unwindfunclet$?construct@?$allocator@UBuffInfoStruct@@@std@@QAEXPAUBuffInfoStruct@@$$QAU3@@Z$0
__ehfuncinfo$?construct@?$allocator@UBuffInfoStruct@@@std@@QAEXPAUBuffInfoStruct@@$$QAU3@@Z DD 019930522H
	DD	01H
	DD	FLAT:__unwindtable$?construct@?$allocator@UBuffInfoStruct@@@std@@QAEXPAUBuffInfoStruct@@$$QAU3@@Z
	DD	2 DUP(00H)
	DD	2 DUP(00H)
	DD	00H
	DD	01H
; Function compile flags: /Ogsp
; File c:\program files (x86)\microsoft visual studio 10.0\vc\include\xmemory
xdata$x	ENDS
;	COMDAT ?construct@?$allocator@UBuffInfoStruct@@@std@@QAEXPAUBuffInfoStruct@@$$QAU3@@Z
_TEXT	SEGMENT
$T576877 = -16						; size = 4
__$EHRec$ = -12						; size = 12
__Ptr$ = 8						; size = 4
__Val$ = 12						; size = 4
?construct@?$allocator@UBuffInfoStruct@@@std@@QAEXPAUBuffInfoStruct@@$$QAU3@@Z PROC ; std::allocator<BuffInfoStruct>::construct, COMDAT
; _this$ = ecx

; 201  : 		{	// construct object at _Ptr with value _Val

  00000	6a 04		 push	 4
  00002	b8 00 00 00 00	 mov	 eax, __ehhandler$?construct@?$allocator@UBuffInfoStruct@@@std@@QAEXPAUBuffInfoStruct@@$$QAU3@@Z
  00007	e8 00 00 00 00	 call	 __EH_prolog3

; 202  : 		::new ((void _FARQ *)_Ptr) _Ty(_STD forward<_Ty>(_Val));

  0000c	8b 75 08	 mov	 esi, DWORD PTR __Ptr$[ebp]
  0000f	89 75 f0	 mov	 DWORD PTR $T576877[ebp], esi
  00012	83 65 fc 00	 and	 DWORD PTR __$EHRec$[ebp+8], 0
  00016	85 f6		 test	 esi, esi
  00018	74 12		 je	 SHORT $LN3@construct@7
  0001a	8b 7d 0c	 mov	 edi, DWORD PTR __Val$[ebp]
  0001d	57		 push	 edi
  0001e	8b ce		 mov	 ecx, esi
  00020	ff 15 00 00 00
	00		 call	 DWORD PTR __imp_??0ioHashString@@QAE@ABV0@@Z
  00026	8b 47 10	 mov	 eax, DWORD PTR [edi+16]
  00029	89 46 10	 mov	 DWORD PTR [esi+16], eax
$LN3@construct@7:

; 203  : 		}

  0002c	e8 00 00 00 00	 call	 __EH_epilog3
  00031	c2 08 00	 ret	 8
_TEXT	ENDS
;	COMDAT text$x
text$x	SEGMENT
__unwindfunclet$?construct@?$allocator@UBuffInfoStruct@@@std@@QAEXPAUBuffInfoStruct@@$$QAU3@@Z$0:
  00000	ff 75 08	 push	 DWORD PTR __Ptr$[ebp]
  00003	ff 75 f0	 push	 DWORD PTR $T576877[ebp]
  00006	e8 00 00 00 00	 call	 ??3@YAXPAX0@Z		; operator delete
  0000b	59		 pop	 ecx
  0000c	59		 pop	 ecx
  0000d	c3		 ret	 0
__ehhandler$?construct@?$allocator@UBuffInfoStruct@@@std@@QAEXPAUBuffInfoStruct@@$$QAU3@@Z:
  0000e	8b 54 24 08	 mov	 edx, DWORD PTR [esp+8]
  00012	8d 42 0c	 lea	 eax, DWORD PTR [edx+12]
  00015	8b 4a ec	 mov	 ecx, DWORD PTR [edx-20]
  00018	33 c8		 xor	 ecx, eax
  0001a	e8 00 00 00 00	 call	 @__security_check_cookie@4
  0001f	b8 00 00 00 00	 mov	 eax, OFFSET __ehfuncinfo$?construct@?$allocator@UBuffInfoStruct@@@std@@QAEXPAUBuffInfoStruct@@$$QAU3@@Z
  00024	e9 00 00 00 00	 jmp	 ___CxxFrameHandler3
text$x	ENDS
?construct@?$allocator@UBuffInfoStruct@@@std@@QAEXPAUBuffInfoStruct@@$$QAU3@@Z ENDP ; std::allocator<BuffInfoStruct>::construct
PUBLIC	?construct@?$allocator@UWeaponMoveInfo@@@std@@QAEXPAUWeaponMoveInfo@@$$QAU3@@Z ; std::allocator<WeaponMoveInfo>::construct
; Function compile flags: /Ogsp
;	COMDAT ?construct@?$allocator@UWeaponMoveInfo@@@std@@QAEXPAUWeaponMoveInfo@@$$QAU3@@Z
_TEXT	SEGMENT
__Ptr$ = 8						; size = 4
__Val$ = 12						; size = 4
?construct@?$allocator@UWeaponMoveInfo@@@std@@QAEXPAUWeaponMoveInfo@@$$QAU3@@Z PROC ; std::allocator<WeaponMoveInfo>::construct, COMDAT
; _this$ = ecx

; 201  : 		{	// construct object at _Ptr with value _Val

  00000	55		 push	 ebp
  00001	8b ec		 mov	 ebp, esp
  00003	57		 push	 edi

; 202  : 		::new ((void _FARQ *)_Ptr) _Ty(_STD forward<_Ty>(_Val));

  00004	8b 7d 08	 mov	 edi, DWORD PTR __Ptr$[ebp]
  00007	85 ff		 test	 edi, edi
  00009	74 0a		 je	 SHORT $LN3@construct@8
  0000b	56		 push	 esi
  0000c	8b 75 0c	 mov	 esi, DWORD PTR __Val$[ebp]
  0000f	6a 05		 push	 5
  00011	59		 pop	 ecx
  00012	f3 a5		 rep movsd
  00014	5e		 pop	 esi
$LN3@construct@8:
  00015	5f		 pop	 edi

; 203  : 		}

  00016	5d		 pop	 ebp
  00017	c2 08 00	 ret	 8
?construct@?$allocator@UWeaponMoveInfo@@@std@@QAEXPAUWeaponMoveInfo@@$$QAU3@@Z ENDP ; std::allocator<WeaponMoveInfo>::construct
_TEXT	ENDS
PUBLIC	??0WeaponInfo@@QAE@XZ				; WeaponInfo::WeaponInfo
; Function compile flags: /Ogsp
; File d:\lost saga for developer\youtube\tutorial\source\src\lsclient\ioattackattribute.h
;	COMDAT ??0WeaponInfo@@QAE@XZ
_TEXT	SEGMENT
??0WeaponInfo@@QAE@XZ PROC				; WeaponInfo::WeaponInfo, COMDAT
; _this$ = ecx

; 64   : 	WeaponInfo()

  00000	56		 push	 esi
  00001	8b f1		 mov	 esi, ecx
  00003	8d 4e 08	 lea	 ecx, DWORD PTR [esi+8]
  00006	ff 15 00 00 00
	00		 call	 DWORD PTR __imp_??0ioHashString@@QAE@XZ

; 65   : 	{
; 66   : 		Init();

  0000c	33 c0		 xor	 eax, eax
  0000e	89 06		 mov	 DWORD PTR [esi], eax
  00010	89 46 04	 mov	 DWORD PTR [esi+4], eax
  00013	89 46 18	 mov	 DWORD PTR [esi+24], eax
  00016	89 46 1c	 mov	 DWORD PTR [esi+28], eax
  00019	88 46 20	 mov	 BYTE PTR [esi+32], al
  0001c	89 46 24	 mov	 DWORD PTR [esi+36], eax

; 67   : 	}

  0001f	8b c6		 mov	 eax, esi
  00021	5e		 pop	 esi
  00022	c3		 ret	 0
??0WeaponInfo@@QAE@XZ ENDP				; WeaponInfo::WeaponInfo
_TEXT	ENDS
PUBLIC	??0?$CEncrypt@M@@QAE@XZ				; CEncrypt<float>::CEncrypt<float>
EXTRN	??0ccddaabb@@QAE@XZ:PROC			; ccddaabb::ccddaabb
;	COMDAT xdata$x
; File d:\lost saga for developer\youtube\tutorial\source\src\lsclient\encryptvalue.h
xdata$x	SEGMENT
__unwindtable$??0?$CEncrypt@M@@QAE@XZ DD 0ffffffffH
	DD	FLAT:__unwindfunclet$??0?$CEncrypt@M@@QAE@XZ$0
__ehfuncinfo$??0?$CEncrypt@M@@QAE@XZ DD 019930522H
	DD	01H
	DD	FLAT:__unwindtable$??0?$CEncrypt@M@@QAE@XZ
	DD	2 DUP(00H)
	DD	2 DUP(00H)
	DD	00H
	DD	01H
; Function compile flags: /Ogsp
xdata$x	ENDS
;	COMDAT ??0?$CEncrypt@M@@QAE@XZ
_TEXT	SEGMENT
_this$ = -16						; size = 4
__$EHRec$ = -12						; size = 12
??0?$CEncrypt@M@@QAE@XZ PROC				; CEncrypt<float>::CEncrypt<float>, COMDAT
; _this$ = ecx

; 109  : 	CEncrypt()

  00000	6a 04		 push	 4
  00002	b8 00 00 00 00	 mov	 eax, __ehhandler$??0?$CEncrypt@M@@QAE@XZ
  00007	e8 00 00 00 00	 call	 __EH_prolog3
  0000c	8b f1		 mov	 esi, ecx
  0000e	89 75 f0	 mov	 DWORD PTR _this$[ebp], esi
  00011	8d 4e 0c	 lea	 ecx, DWORD PTR [esi+12]
  00014	c7 06 00 00 00
	00		 mov	 DWORD PTR [esi], OFFSET ??_7?$CEncrypt@M@@6B@
  0001a	e8 00 00 00 00	 call	 ??0ccddaabb@@QAE@XZ	; ccddaabb::ccddaabb
  0001f	83 65 fc 00	 and	 DWORD PTR __$EHRec$[ebp+8], 0

; 110  : 	{
; 111  : 		Init();

  00023	8b ce		 mov	 ecx, esi
  00025	e8 00 00 00 00	 call	 ?Init@?$CEncrypt@M@@AAEXXZ ; CEncrypt<float>::Init

; 112  : 	}

  0002a	8b c6		 mov	 eax, esi
  0002c	e8 00 00 00 00	 call	 __EH_epilog3
  00031	c3		 ret	 0
_TEXT	ENDS
;	COMDAT text$x
text$x	SEGMENT
__unwindfunclet$??0?$CEncrypt@M@@QAE@XZ$0:
  00000	8b 4d f0	 mov	 ecx, DWORD PTR _this$[ebp]
  00003	83 c1 0c	 add	 ecx, 12			; 0000000cH
  00006	e9 00 00 00 00	 jmp	 ??1ccddaabb@@UAE@XZ	; ccddaabb::~ccddaabb
__ehhandler$??0?$CEncrypt@M@@QAE@XZ:
  0000b	8b 54 24 08	 mov	 edx, DWORD PTR [esp+8]
  0000f	8d 42 0c	 lea	 eax, DWORD PTR [edx+12]
  00012	8b 4a ec	 mov	 ecx, DWORD PTR [edx-20]
  00015	33 c8		 xor	 ecx, eax
  00017	e8 00 00 00 00	 call	 @__security_check_cookie@4
  0001c	b8 00 00 00 00	 mov	 eax, OFFSET __ehfuncinfo$??0?$CEncrypt@M@@QAE@XZ
  00021	e9 00 00 00 00	 jmp	 ___CxxFrameHandler3
text$x	ENDS
??0?$CEncrypt@M@@QAE@XZ ENDP				; CEncrypt<float>::CEncrypt<float>
PUBLIC	??B?$CEncrypt@M@@QAEMXZ				; CEncrypt<float>::operator float
; Function compile flags: /Ogsp
;	COMDAT ??B?$CEncrypt@M@@QAEMXZ
_TEXT	SEGMENT
_value$ = -4						; size = 4
??B?$CEncrypt@M@@QAEMXZ PROC				; CEncrypt<float>::operator float, COMDAT
; _this$ = ecx

; 134  : 	{

  00000	55		 push	 ebp
  00001	8b ec		 mov	 ebp, esp
  00003	51		 push	 ecx

; 135  : 		type value;
; 136  : 		DecryptValueToPool(&value);

  00004	8d 45 fc	 lea	 eax, DWORD PTR _value$[ebp]
  00007	50		 push	 eax
  00008	e8 00 00 00 00	 call	 ?DecryptValueToPool@?$CEncrypt@M@@QAEXPAM@Z ; CEncrypt<float>::DecryptValueToPool

; 137  : 
; 138  : #ifdef _NOTUSE
; 139  : 		Debug();
; 140  : #endif
; 141  : 		return value;

  0000d	d9 45 fc	 fld	 DWORD PTR _value$[ebp]

; 142  : 	}

  00010	c9		 leave
  00011	c3		 ret	 0
??B?$CEncrypt@M@@QAEMXZ ENDP				; CEncrypt<float>::operator float
_TEXT	ENDS
PUBLIC	??B?$CEncrypt@M@@QBEMXZ				; CEncrypt<float>::operator float
; Function compile flags: /Ogsp
;	COMDAT ??B?$CEncrypt@M@@QBEMXZ
_TEXT	SEGMENT
_value$ = -4						; size = 4
??B?$CEncrypt@M@@QBEMXZ PROC				; CEncrypt<float>::operator float, COMDAT
; _this$ = ecx

; 145  : 	{

  00000	55		 push	 ebp
  00001	8b ec		 mov	 ebp, esp
  00003	51		 push	 ecx

; 146  : 		//UJ 130829, const    --start
; 147  : 		type value;
; 148  : 		CEncrypt<type>* pThis = const_cast<CEncrypt<type>*>(this);
; 149  : 		pThis->DecryptValueToPool(&value);

  00004	8d 45 fc	 lea	 eax, DWORD PTR _value$[ebp]
  00007	50		 push	 eax
  00008	e8 00 00 00 00	 call	 ?DecryptValueToPool@?$CEncrypt@M@@QAEXPAM@Z ; CEncrypt<float>::DecryptValueToPool

; 150  : 		//// const DecryptValueToPool     .
; 151  :  		//type value;
; 152  : 		//char szTempMem[MAX_ENCRYPT];
; 153  : 		//m_RC5.DecryptByte( m_MemPool, szTempMem, max(m_ValueSize, DEFAULT_ENCRYPT) );
; 154  : 		//memcpy( &value, szTempMem, m_ValueSize );
; 155  : 		//UJ --end
; 156  : 
; 157  : #ifdef _NOTUSE
; 158  : 		Debug();
; 159  : #endif
; 160  : 		return value;

  0000d	d9 45 fc	 fld	 DWORD PTR _value$[ebp]

; 161  : 	}

  00010	c9		 leave
  00011	c3		 ret	 0
??B?$CEncrypt@M@@QBEMXZ ENDP				; CEncrypt<float>::operator float
_TEXT	ENDS
PUBLIC	??4?$CEncrypt@M@@QAEMM@Z			; CEncrypt<float>::operator=
; Function compile flags: /Ogsp
;	COMDAT ??4?$CEncrypt@M@@QAEMM@Z
_TEXT	SEGMENT
_value$ = 8						; size = 4
_inValue$ = 8						; size = 4
??4?$CEncrypt@M@@QAEMM@Z PROC				; CEncrypt<float>::operator=, COMDAT
; _this$ = ecx

; 1654 : 	{	

  00000	55		 push	 ebp
  00001	8b ec		 mov	 ebp, esp

; 1655 : 		type value = inValue;

  00003	d9 45 08	 fld	 DWORD PTR _inValue$[ebp]

; 1656 : 		EncryptValueToPool((char*)&value);

  00006	8d 45 08	 lea	 eax, DWORD PTR _value$[ebp]
  00009	50		 push	 eax
  0000a	d9 5d 08	 fstp	 DWORD PTR _value$[ebp]
  0000d	e8 00 00 00 00	 call	 ?EncryptValueToPool@?$CEncrypt@M@@AAEXPBD@Z ; CEncrypt<float>::EncryptValueToPool

; 1657 : #ifdef _NOTUSE
; 1658 : 		m_value = inValue;
; 1659 : 		Debug();
; 1660 : #endif
; 1661 : 		return value;

  00012	d9 45 08	 fld	 DWORD PTR _value$[ebp]

; 1662 : 	}

  00015	5d		 pop	 ebp
  00016	c2 04 00	 ret	 4
??4?$CEncrypt@M@@QAEMM@Z ENDP				; CEncrypt<float>::operator=
_TEXT	ENDS
PUBLIC	??O?$CEncrypt@M@@QAE_NABM@Z			; CEncrypt<float>::operator>
; Function compile flags: /Ogsp
;	COMDAT ??O?$CEncrypt@M@@QAE_NABM@Z
_TEXT	SEGMENT
_value$ = -4						; size = 4
_inValue$ = 8						; size = 4
??O?$CEncrypt@M@@QAE_NABM@Z PROC			; CEncrypt<float>::operator>, COMDAT
; _this$ = ecx

; 1811 : 	{

  00000	55		 push	 ebp
  00001	8b ec		 mov	 ebp, esp
  00003	51		 push	 ecx

; 1812 : 		type value;
; 1813 : 		DecryptValueToPool(&value);

  00004	8d 45 fc	 lea	 eax, DWORD PTR _value$[ebp]
  00007	50		 push	 eax
  00008	e8 00 00 00 00	 call	 ?DecryptValueToPool@?$CEncrypt@M@@QAEXPAM@Z ; CEncrypt<float>::DecryptValueToPool

; 1814 : #ifdef _NOTUSE
; 1815 : 		Debug();
; 1816 : #endif
; 1817 : 		return (value > inValue);

  0000d	8b 45 08	 mov	 eax, DWORD PTR _inValue$[ebp]
  00010	f3 0f 10 08	 movss	 xmm1, DWORD PTR [eax]
  00014	f3 0f 10 45 fc	 movss	 xmm0, DWORD PTR _value$[ebp]
  00019	0f 5a c0	 cvtps2pd xmm0, xmm0
  0001c	0f 5a c9	 cvtps2pd xmm1, xmm1
  0001f	33 c0		 xor	 eax, eax
  00021	66 0f 2f c1	 comisd	 xmm0, xmm1
  00025	76 01		 jbe	 SHORT $LN4@operator@2
  00027	40		 inc	 eax
$LN4@operator@2:

; 1818 : 	}		

  00028	c9		 leave
  00029	c2 04 00	 ret	 4
??O?$CEncrypt@M@@QAE_NABM@Z ENDP			; CEncrypt<float>::operator>
_TEXT	ENDS
PUBLIC	??B?$CEncrypt@K@@QAEKXZ				; CEncrypt<unsigned long>::operator unsigned long
; Function compile flags: /Ogsp
;	COMDAT ??B?$CEncrypt@K@@QAEKXZ
_TEXT	SEGMENT
_value$ = -4						; size = 4
??B?$CEncrypt@K@@QAEKXZ PROC				; CEncrypt<unsigned long>::operator unsigned long, COMDAT
; _this$ = ecx

; 134  : 	{

  00000	55		 push	 ebp
  00001	8b ec		 mov	 ebp, esp
  00003	51		 push	 ecx

; 135  : 		type value;
; 136  : 		DecryptValueToPool(&value);

  00004	8d 45 fc	 lea	 eax, DWORD PTR _value$[ebp]
  00007	50		 push	 eax
  00008	e8 00 00 00 00	 call	 ?DecryptValueToPool@?$CEncrypt@K@@QAEXPAK@Z ; CEncrypt<unsigned long>::DecryptValueToPool

; 137  : 
; 138  : #ifdef _NOTUSE
; 139  : 		Debug();
; 140  : #endif
; 141  : 		return value;

  0000d	8b 45 fc	 mov	 eax, DWORD PTR _value$[ebp]

; 142  : 	}

  00010	c9		 leave
  00011	c3		 ret	 0
??B?$CEncrypt@K@@QAEKXZ ENDP				; CEncrypt<unsigned long>::operator unsigned long
_TEXT	ENDS
PUBLIC	??4?$CEncrypt@K@@QAEKH@Z			; CEncrypt<unsigned long>::operator=
; Function compile flags: /Ogsp
;	COMDAT ??4?$CEncrypt@K@@QAEKH@Z
_TEXT	SEGMENT
_value$ = 8						; size = 4
_inValue$ = 8						; size = 4
??4?$CEncrypt@K@@QAEKH@Z PROC				; CEncrypt<unsigned long>::operator=, COMDAT
; _this$ = ecx

; 843  : 	{

  00000	55		 push	 ebp
  00001	8b ec		 mov	 ebp, esp

; 844  : 		type value = inValue;

  00003	8b 45 08	 mov	 eax, DWORD PTR _inValue$[ebp]
  00006	89 45 08	 mov	 DWORD PTR _value$[ebp], eax

; 845  : 		EncryptValueToPool((char*)&value);

  00009	8d 45 08	 lea	 eax, DWORD PTR _value$[ebp]
  0000c	50		 push	 eax
  0000d	e8 00 00 00 00	 call	 ?EncryptValueToPool@?$CEncrypt@K@@AAEXPBD@Z ; CEncrypt<unsigned long>::EncryptValueToPool

; 846  : #ifdef _NOTUSE
; 847  : 		m_value = inValue;
; 848  : 		Debug();
; 849  : #endif
; 850  : 		return value;

  00012	8b 45 08	 mov	 eax, DWORD PTR _value$[ebp]

; 851  : 	}

  00015	5d		 pop	 ebp
  00016	c2 04 00	 ret	 4
??4?$CEncrypt@K@@QAEKH@Z ENDP				; CEncrypt<unsigned long>::operator=
_TEXT	ENDS
PUBLIC	??4?$CEncrypt@K@@QAEKK@Z			; CEncrypt<unsigned long>::operator=
; Function compile flags: /Ogsp
;	COMDAT ??4?$CEncrypt@K@@QAEKK@Z
_TEXT	SEGMENT
_value$ = 8						; size = 4
_inValue$ = 8						; size = 4
??4?$CEncrypt@K@@QAEKK@Z PROC				; CEncrypt<unsigned long>::operator=, COMDAT
; _this$ = ecx

; 1262 : 	{

  00000	55		 push	 ebp
  00001	8b ec		 mov	 ebp, esp

; 1263 : 		
; 1264 : 		type value = inValue;

  00003	8b 45 08	 mov	 eax, DWORD PTR _inValue$[ebp]
  00006	89 45 08	 mov	 DWORD PTR _value$[ebp], eax

; 1265 : 		EncryptValueToPool((char*)&value);

  00009	8d 45 08	 lea	 eax, DWORD PTR _value$[ebp]
  0000c	50		 push	 eax
  0000d	e8 00 00 00 00	 call	 ?EncryptValueToPool@?$CEncrypt@K@@AAEXPBD@Z ; CEncrypt<unsigned long>::EncryptValueToPool

; 1266 : #ifdef _NOTUSE
; 1267 : 		m_value = inValue;
; 1268 : 		Debug();
; 1269 : #endif
; 1270 : 		return value;

  00012	8b 45 08	 mov	 eax, DWORD PTR _value$[ebp]

; 1271 : 	}

  00015	5d		 pop	 ebp
  00016	c2 04 00	 ret	 4
??4?$CEncrypt@K@@QAEKK@Z ENDP				; CEncrypt<unsigned long>::operator=
_TEXT	ENDS
PUBLIC	??B?$CEncrypt@_N@@QAE_NXZ			; CEncrypt<bool>::operator bool
; Function compile flags: /Ogsp
;	COMDAT ??B?$CEncrypt@_N@@QAE_NXZ
_TEXT	SEGMENT
_value$ = -1						; size = 1
??B?$CEncrypt@_N@@QAE_NXZ PROC				; CEncrypt<bool>::operator bool, COMDAT
; _this$ = ecx

; 134  : 	{

  00000	55		 push	 ebp
  00001	8b ec		 mov	 ebp, esp
  00003	51		 push	 ecx

; 135  : 		type value;
; 136  : 		DecryptValueToPool(&value);

  00004	8d 45 ff	 lea	 eax, DWORD PTR _value$[ebp]
  00007	50		 push	 eax
  00008	e8 00 00 00 00	 call	 ?DecryptValueToPool@?$CEncrypt@_N@@QAEXPA_N@Z ; CEncrypt<bool>::DecryptValueToPool

; 137  : 
; 138  : #ifdef _NOTUSE
; 139  : 		Debug();
; 140  : #endif
; 141  : 		return value;

  0000d	8a 45 ff	 mov	 al, BYTE PTR _value$[ebp]

; 142  : 	}

  00010	c9		 leave
  00011	c3		 ret	 0
??B?$CEncrypt@_N@@QAE_NXZ ENDP				; CEncrypt<bool>::operator bool
_TEXT	ENDS
PUBLIC	??B?$CEncrypt@_N@@QBE_NXZ			; CEncrypt<bool>::operator bool
; Function compile flags: /Ogsp
;	COMDAT ??B?$CEncrypt@_N@@QBE_NXZ
_TEXT	SEGMENT
_value$ = -1						; size = 1
??B?$CEncrypt@_N@@QBE_NXZ PROC				; CEncrypt<bool>::operator bool, COMDAT
; _this$ = ecx

; 145  : 	{

  00000	55		 push	 ebp
  00001	8b ec		 mov	 ebp, esp
  00003	51		 push	 ecx

; 146  : 		//UJ 130829, const    --start
; 147  : 		type value;
; 148  : 		CEncrypt<type>* pThis = const_cast<CEncrypt<type>*>(this);
; 149  : 		pThis->DecryptValueToPool(&value);

  00004	8d 45 ff	 lea	 eax, DWORD PTR _value$[ebp]
  00007	50		 push	 eax
  00008	e8 00 00 00 00	 call	 ?DecryptValueToPool@?$CEncrypt@_N@@QAEXPA_N@Z ; CEncrypt<bool>::DecryptValueToPool

; 150  : 		//// const DecryptValueToPool     .
; 151  :  		//type value;
; 152  : 		//char szTempMem[MAX_ENCRYPT];
; 153  : 		//m_RC5.DecryptByte( m_MemPool, szTempMem, max(m_ValueSize, DEFAULT_ENCRYPT) );
; 154  : 		//memcpy( &value, szTempMem, m_ValueSize );
; 155  : 		//UJ --end
; 156  : 
; 157  : #ifdef _NOTUSE
; 158  : 		Debug();
; 159  : #endif
; 160  : 		return value;

  0000d	8a 45 ff	 mov	 al, BYTE PTR _value$[ebp]

; 161  : 	}

  00010	c9		 leave
  00011	c3		 ret	 0
??B?$CEncrypt@_N@@QBE_NXZ ENDP				; CEncrypt<bool>::operator bool
_TEXT	ENDS
PUBLIC	??0?$CEncrypt@H@@QAE@XZ				; CEncrypt<int>::CEncrypt<int>
;	COMDAT xdata$x
xdata$x	SEGMENT
__unwindtable$??0?$CEncrypt@H@@QAE@XZ DD 0ffffffffH
	DD	FLAT:__unwindfunclet$??0?$CEncrypt@H@@QAE@XZ$0
__ehfuncinfo$??0?$CEncrypt@H@@QAE@XZ DD 019930522H
	DD	01H
	DD	FLAT:__unwindtable$??0?$CEncrypt@H@@QAE@XZ
	DD	2 DUP(00H)
	DD	2 DUP(00H)
	DD	00H
	DD	01H
; Function compile flags: /Ogsp
xdata$x	ENDS
;	COMDAT ??0?$CEncrypt@H@@QAE@XZ
_TEXT	SEGMENT
_this$ = -16						; size = 4
__$EHRec$ = -12						; size = 12
??0?$CEncrypt@H@@QAE@XZ PROC				; CEncrypt<int>::CEncrypt<int>, COMDAT
; _this$ = ecx

; 109  : 	CEncrypt()

  00000	6a 04		 push	 4
  00002	b8 00 00 00 00	 mov	 eax, __ehhandler$??0?$CEncrypt@H@@QAE@XZ
  00007	e8 00 00 00 00	 call	 __EH_prolog3
  0000c	8b f1		 mov	 esi, ecx
  0000e	89 75 f0	 mov	 DWORD PTR _this$[ebp], esi
  00011	8d 4e 0c	 lea	 ecx, DWORD PTR [esi+12]
  00014	c7 06 00 00 00
	00		 mov	 DWORD PTR [esi], OFFSET ??_7?$CEncrypt@H@@6B@
  0001a	e8 00 00 00 00	 call	 ??0ccddaabb@@QAE@XZ	; ccddaabb::ccddaabb
  0001f	83 65 fc 00	 and	 DWORD PTR __$EHRec$[ebp+8], 0

; 110  : 	{
; 111  : 		Init();

  00023	8b ce		 mov	 ecx, esi
  00025	e8 00 00 00 00	 call	 ?Init@?$CEncrypt@H@@AAEXXZ ; CEncrypt<int>::Init

; 112  : 	}

  0002a	8b c6		 mov	 eax, esi
  0002c	e8 00 00 00 00	 call	 __EH_epilog3
  00031	c3		 ret	 0
_TEXT	ENDS
;	COMDAT text$x
text$x	SEGMENT
__unwindfunclet$??0?$CEncrypt@H@@QAE@XZ$0:
  00000	8b 4d f0	 mov	 ecx, DWORD PTR _this$[ebp]
  00003	83 c1 0c	 add	 ecx, 12			; 0000000cH
  00006	e9 00 00 00 00	 jmp	 ??1ccddaabb@@UAE@XZ	; ccddaabb::~ccddaabb
__ehhandler$??0?$CEncrypt@H@@QAE@XZ:
  0000b	8b 54 24 08	 mov	 edx, DWORD PTR [esp+8]
  0000f	8d 42 0c	 lea	 eax, DWORD PTR [edx+12]
  00012	8b 4a ec	 mov	 ecx, DWORD PTR [edx-20]
  00015	33 c8		 xor	 ecx, eax
  00017	e8 00 00 00 00	 call	 @__security_check_cookie@4
  0001c	b8 00 00 00 00	 mov	 eax, OFFSET __ehfuncinfo$??0?$CEncrypt@H@@QAE@XZ
  00021	e9 00 00 00 00	 jmp	 ___CxxFrameHandler3
text$x	ENDS
??0?$CEncrypt@H@@QAE@XZ ENDP				; CEncrypt<int>::CEncrypt<int>
PUBLIC	??B?$CEncrypt@H@@QAEHXZ				; CEncrypt<int>::operator int
; Function compile flags: /Ogsp
;	COMDAT ??B?$CEncrypt@H@@QAEHXZ
_TEXT	SEGMENT
_value$ = -4						; size = 4
??B?$CEncrypt@H@@QAEHXZ PROC				; CEncrypt<int>::operator int, COMDAT
; _this$ = ecx

; 134  : 	{

  00000	55		 push	 ebp
  00001	8b ec		 mov	 ebp, esp
  00003	51		 push	 ecx

; 135  : 		type value;
; 136  : 		DecryptValueToPool(&value);

  00004	8d 45 fc	 lea	 eax, DWORD PTR _value$[ebp]
  00007	50		 push	 eax
  00008	e8 00 00 00 00	 call	 ?DecryptValueToPool@?$CEncrypt@H@@QAEXPAH@Z ; CEncrypt<int>::DecryptValueToPool

; 137  : 
; 138  : #ifdef _NOTUSE
; 139  : 		Debug();
; 140  : #endif
; 141  : 		return value;

  0000d	8b 45 fc	 mov	 eax, DWORD PTR _value$[ebp]

; 142  : 	}

  00010	c9		 leave
  00011	c3		 ret	 0
??B?$CEncrypt@H@@QAEHXZ ENDP				; CEncrypt<int>::operator int
_TEXT	ENDS
PUBLIC	??B?$CEncrypt@H@@QBEHXZ				; CEncrypt<int>::operator int
; Function compile flags: /Ogsp
;	COMDAT ??B?$CEncrypt@H@@QBEHXZ
_TEXT	SEGMENT
_value$ = -4						; size = 4
??B?$CEncrypt@H@@QBEHXZ PROC				; CEncrypt<int>::operator int, COMDAT
; _this$ = ecx

; 145  : 	{

  00000	55		 push	 ebp
  00001	8b ec		 mov	 ebp, esp
  00003	51		 push	 ecx

; 146  : 		//UJ 130829, const    --start
; 147  : 		type value;
; 148  : 		CEncrypt<type>* pThis = const_cast<CEncrypt<type>*>(this);
; 149  : 		pThis->DecryptValueToPool(&value);

  00004	8d 45 fc	 lea	 eax, DWORD PTR _value$[ebp]
  00007	50		 push	 eax
  00008	e8 00 00 00 00	 call	 ?DecryptValueToPool@?$CEncrypt@H@@QAEXPAH@Z ; CEncrypt<int>::DecryptValueToPool

; 150  : 		//// const DecryptValueToPool     .
; 151  :  		//type value;
; 152  : 		//char szTempMem[MAX_ENCRYPT];
; 153  : 		//m_RC5.DecryptByte( m_MemPool, szTempMem, max(m_ValueSize, DEFAULT_ENCRYPT) );
; 154  : 		//memcpy( &value, szTempMem, m_ValueSize );
; 155  : 		//UJ --end
; 156  : 
; 157  : #ifdef _NOTUSE
; 158  : 		Debug();
; 159  : #endif
; 160  : 		return value;

  0000d	8b 45 fc	 mov	 eax, DWORD PTR _value$[ebp]

; 161  : 	}

  00010	c9		 leave
  00011	c3		 ret	 0
??B?$CEncrypt@H@@QBEHXZ ENDP				; CEncrypt<int>::operator int
_TEXT	ENDS
PUBLIC	??4?$CEncrypt@H@@QAEHH@Z			; CEncrypt<int>::operator=
; Function compile flags: /Ogsp
;	COMDAT ??4?$CEncrypt@H@@QAEHH@Z
_TEXT	SEGMENT
_value$ = 8						; size = 4
_inValue$ = 8						; size = 4
??4?$CEncrypt@H@@QAEHH@Z PROC				; CEncrypt<int>::operator=, COMDAT
; _this$ = ecx

; 843  : 	{

  00000	55		 push	 ebp
  00001	8b ec		 mov	 ebp, esp

; 844  : 		type value = inValue;

  00003	8b 45 08	 mov	 eax, DWORD PTR _inValue$[ebp]
  00006	89 45 08	 mov	 DWORD PTR _value$[ebp], eax

; 845  : 		EncryptValueToPool((char*)&value);

  00009	8d 45 08	 lea	 eax, DWORD PTR _value$[ebp]
  0000c	50		 push	 eax
  0000d	e8 00 00 00 00	 call	 ?EncryptValueToPool@?$CEncrypt@H@@AAEXPBD@Z ; CEncrypt<int>::EncryptValueToPool

; 846  : #ifdef _NOTUSE
; 847  : 		m_value = inValue;
; 848  : 		Debug();
; 849  : #endif
; 850  : 		return value;

  00012	8b 45 08	 mov	 eax, DWORD PTR _value$[ebp]

; 851  : 	}

  00015	5d		 pop	 ebp
  00016	c2 04 00	 ret	 4
??4?$CEncrypt@H@@QAEHH@Z ENDP				; CEncrypt<int>::operator=
_TEXT	ENDS
PUBLIC	??B?$CEncrypt@W4TeamType@@@@QBE?AW4TeamType@@XZ	; CEncrypt<enum TeamType>::operator enum TeamType
; Function compile flags: /Ogsp
;	COMDAT ??B?$CEncrypt@W4TeamType@@@@QBE?AW4TeamType@@XZ
_TEXT	SEGMENT
_value$ = -4						; size = 4
??B?$CEncrypt@W4TeamType@@@@QBE?AW4TeamType@@XZ PROC	; CEncrypt<enum TeamType>::operator enum TeamType, COMDAT
; _this$ = ecx

; 145  : 	{

  00000	55		 push	 ebp
  00001	8b ec		 mov	 ebp, esp
  00003	51		 push	 ecx

; 146  : 		//UJ 130829, const    --start
; 147  : 		type value;
; 148  : 		CEncrypt<type>* pThis = const_cast<CEncrypt<type>*>(this);
; 149  : 		pThis->DecryptValueToPool(&value);

  00004	8d 45 fc	 lea	 eax, DWORD PTR _value$[ebp]
  00007	50		 push	 eax
  00008	e8 00 00 00 00	 call	 ?DecryptValueToPool@?$CEncrypt@W4TeamType@@@@QAEXPAW4TeamType@@@Z ; CEncrypt<enum TeamType>::DecryptValueToPool

; 150  : 		//// const DecryptValueToPool     .
; 151  :  		//type value;
; 152  : 		//char szTempMem[MAX_ENCRYPT];
; 153  : 		//m_RC5.DecryptByte( m_MemPool, szTempMem, max(m_ValueSize, DEFAULT_ENCRYPT) );
; 154  : 		//memcpy( &value, szTempMem, m_ValueSize );
; 155  : 		//UJ --end
; 156  : 
; 157  : #ifdef _NOTUSE
; 158  : 		Debug();
; 159  : #endif
; 160  : 		return value;

  0000d	8b 45 fc	 mov	 eax, DWORD PTR _value$[ebp]

; 161  : 	}

  00010	c9		 leave
  00011	c3		 ret	 0
??B?$CEncrypt@W4TeamType@@@@QBE?AW4TeamType@@XZ ENDP	; CEncrypt<enum TeamType>::operator enum TeamType
_TEXT	ENDS
PUBLIC	??0?$_Vector_val@UWeaponInfo@@V?$allocator@UWeaponInfo@@@std@@@std@@QAE@V?$allocator@UWeaponInfo@@@1@@Z ; std::_Vector_val<WeaponInfo,std::allocator<WeaponInfo> >::_Vector_val<WeaponInfo,std::allocator<WeaponInfo> >
; Function compile flags: /Ogsp
; File c:\program files (x86)\microsoft visual studio 10.0\vc\include\vector
;	COMDAT ??0?$_Vector_val@UWeaponInfo@@V?$allocator@UWeaponInfo@@@std@@@std@@QAE@V?$allocator@UWeaponInfo@@@1@@Z
_TEXT	SEGMENT
__Al$ = 8						; size = 1
??0?$_Vector_val@UWeaponInfo@@V?$allocator@UWeaponInfo@@@std@@@std@@QAE@V?$allocator@UWeaponInfo@@@1@@Z PROC ; std::_Vector_val<WeaponInfo,std::allocator<WeaponInfo> >::_Vector_val<WeaponInfo,std::allocator<WeaponInfo> >, COMDAT
; _this$ = ecx

; 426  : 		{	// construct allocator from _Al

  00000	8b c1		 mov	 eax, ecx

; 427  : 		_Myfirst = 0;

  00002	33 c9		 xor	 ecx, ecx
  00004	89 08		 mov	 DWORD PTR [eax], ecx

; 428  : 		_Mylast = 0;

  00006	89 48 04	 mov	 DWORD PTR [eax+4], ecx

; 429  : 		_Myend = 0;

  00009	89 48 08	 mov	 DWORD PTR [eax+8], ecx

; 430  : 		}

  0000c	c2 04 00	 ret	 4
??0?$_Vector_val@UWeaponInfo@@V?$allocator@UWeaponInfo@@@std@@@std@@QAE@V?$allocator@UWeaponInfo@@@1@@Z ENDP ; std::_Vector_val<WeaponInfo,std::allocator<WeaponInfo> >::_Vector_val<WeaponInfo,std::allocator<WeaponInfo> >
_TEXT	ENDS
PUBLIC	??0?$_Vector_val@UForceInfo@@V?$allocator@UForceInfo@@@std@@@std@@QAE@V?$allocator@UForceInfo@@@1@@Z ; std::_Vector_val<ForceInfo,std::allocator<ForceInfo> >::_Vector_val<ForceInfo,std::allocator<ForceInfo> >
; Function compile flags: /Ogsp
;	COMDAT ??0?$_Vector_val@UForceInfo@@V?$allocator@UForceInfo@@@std@@@std@@QAE@V?$allocator@UForceInfo@@@1@@Z
_TEXT	SEGMENT
__Al$ = 8						; size = 1
??0?$_Vector_val@UForceInfo@@V?$allocator@UForceInfo@@@std@@@std@@QAE@V?$allocator@UForceInfo@@@1@@Z PROC ; std::_Vector_val<ForceInfo,std::allocator<ForceInfo> >::_Vector_val<ForceInfo,std::allocator<ForceInfo> >, COMDAT
; _this$ = ecx

; 426  : 		{	// construct allocator from _Al

  00000	8b c1		 mov	 eax, ecx

; 427  : 		_Myfirst = 0;

  00002	33 c9		 xor	 ecx, ecx
  00004	89 08		 mov	 DWORD PTR [eax], ecx

; 428  : 		_Mylast = 0;

  00006	89 48 04	 mov	 DWORD PTR [eax+4], ecx

; 429  : 		_Myend = 0;

  00009	89 48 08	 mov	 DWORD PTR [eax+8], ecx

; 430  : 		}

  0000c	c2 04 00	 ret	 4
??0?$_Vector_val@UForceInfo@@V?$allocator@UForceInfo@@@std@@@std@@QAE@V?$allocator@UForceInfo@@@1@@Z ENDP ; std::_Vector_val<ForceInfo,std::allocator<ForceInfo> >::_Vector_val<ForceInfo,std::allocator<ForceInfo> >
_TEXT	ENDS
PUBLIC	??0?$_Vector_val@UBuffInfoStruct@@V?$allocator@UBuffInfoStruct@@@std@@@std@@QAE@V?$allocator@UBuffInfoStruct@@@1@@Z ; std::_Vector_val<BuffInfoStruct,std::allocator<BuffInfoStruct> >::_Vector_val<BuffInfoStruct,std::allocator<BuffInfoStruct> >
; Function compile flags: /Ogsp
;	COMDAT ??0?$_Vector_val@UBuffInfoStruct@@V?$allocator@UBuffInfoStruct@@@std@@@std@@QAE@V?$allocator@UBuffInfoStruct@@@1@@Z
_TEXT	SEGMENT
__Al$ = 8						; size = 1
??0?$_Vector_val@UBuffInfoStruct@@V?$allocator@UBuffInfoStruct@@@std@@@std@@QAE@V?$allocator@UBuffInfoStruct@@@1@@Z PROC ; std::_Vector_val<BuffInfoStruct,std::allocator<BuffInfoStruct> >::_Vector_val<BuffInfoStruct,std::allocator<BuffInfoStruct> >, COMDAT
; _this$ = ecx

; 426  : 		{	// construct allocator from _Al

  00000	8b c1		 mov	 eax, ecx

; 427  : 		_Myfirst = 0;

  00002	33 c9		 xor	 ecx, ecx
  00004	89 08		 mov	 DWORD PTR [eax], ecx

; 428  : 		_Mylast = 0;

  00006	89 48 04	 mov	 DWORD PTR [eax+4], ecx

; 429  : 		_Myend = 0;

  00009	89 48 08	 mov	 DWORD PTR [eax+8], ecx

; 430  : 		}

  0000c	c2 04 00	 ret	 4
??0?$_Vector_val@UBuffInfoStruct@@V?$allocator@UBuffInfoStruct@@@std@@@std@@QAE@V?$allocator@UBuffInfoStruct@@@1@@Z ENDP ; std::_Vector_val<BuffInfoStruct,std::allocator<BuffInfoStruct> >::_Vector_val<BuffInfoStruct,std::allocator<BuffInfoStruct> >
_TEXT	ENDS
PUBLIC	?max_size@?$vector@UBuffInfoStruct@@V?$allocator@UBuffInfoStruct@@@std@@@std@@QBEIXZ ; std::vector<BuffInfoStruct,std::allocator<BuffInfoStruct> >::max_size
; Function compile flags: /Ogsp
;	COMDAT ?max_size@?$vector@UBuffInfoStruct@@V?$allocator@UBuffInfoStruct@@@std@@@std@@QBEIXZ
_TEXT	SEGMENT
?max_size@?$vector@UBuffInfoStruct@@V?$allocator@UBuffInfoStruct@@@std@@@std@@QBEIXZ PROC ; std::vector<BuffInfoStruct,std::allocator<BuffInfoStruct> >::max_size, COMDAT
; _this$ = ecx

; 884  : 		return (this->_Alval.max_size());

  00000	b8 cc cc cc 0c	 mov	 eax, 214748364		; 0cccccccH

; 885  : 		}

  00005	c3		 ret	 0
?max_size@?$vector@UBuffInfoStruct@@V?$allocator@UBuffInfoStruct@@@std@@@std@@QBEIXZ ENDP ; std::vector<BuffInfoStruct,std::allocator<BuffInfoStruct> >::max_size
_TEXT	ENDS
PUBLIC	?allocate@?$allocator@UBuffInfoStruct@@@std@@QAEPAUBuffInfoStruct@@I@Z ; std::allocator<BuffInfoStruct>::allocate
; Function compile flags: /Ogsp
; File c:\program files (x86)\microsoft visual studio 10.0\vc\include\xmemory
;	COMDAT ?allocate@?$allocator@UBuffInfoStruct@@@std@@QAEPAUBuffInfoStruct@@I@Z
_TEXT	SEGMENT
__Count$ = 8						; size = 4
?allocate@?$allocator@UBuffInfoStruct@@@std@@QAEPAUBuffInfoStruct@@I@Z PROC ; std::allocator<BuffInfoStruct>::allocate, COMDAT
; _this$ = ecx

; 186  : 		{	// allocate array of _Count elements

  00000	55		 push	 ebp
  00001	8b ec		 mov	 ebp, esp

; 187  : 		return (_Allocate(_Count, (pointer)0));

  00003	6a 00		 push	 0
  00005	ff 75 08	 push	 DWORD PTR __Count$[ebp]
  00008	e8 00 00 00 00	 call	 ??$_Allocate@UBuffInfoStruct@@@std@@YAPAUBuffInfoStruct@@IPAU1@@Z ; std::_Allocate<BuffInfoStruct>
  0000d	59		 pop	 ecx
  0000e	59		 pop	 ecx

; 188  : 		}

  0000f	5d		 pop	 ebp
  00010	c2 04 00	 ret	 4
?allocate@?$allocator@UBuffInfoStruct@@@std@@QAEPAUBuffInfoStruct@@I@Z ENDP ; std::allocator<BuffInfoStruct>::allocate
_TEXT	ENDS
PUBLIC	??0?$_Vector_iterator@V?$_Vector_val@UBuffInfoStruct@@V?$allocator@UBuffInfoStruct@@@std@@@std@@@std@@QAE@PAUBuffInfoStruct@@PBU_Container_base0@1@@Z ; std::_Vector_iterator<std::_Vector_val<BuffInfoStruct,std::allocator<BuffInfoStruct> > >::_Vector_iterator<std::_Vector_val<BuffInfoStruct,std::allocator<BuffInfoStruct> > >
; Function compile flags: /Ogsp
; File c:\program files (x86)\microsoft visual studio 10.0\vc\include\vector
;	COMDAT ??0?$_Vector_iterator@V?$_Vector_val@UBuffInfoStruct@@V?$allocator@UBuffInfoStruct@@@std@@@std@@@std@@QAE@PAUBuffInfoStruct@@PBU_Container_base0@1@@Z
_TEXT	SEGMENT
__Parg$ = 8						; size = 4
__Pvector$ = 12						; size = 4
??0?$_Vector_iterator@V?$_Vector_val@UBuffInfoStruct@@V?$allocator@UBuffInfoStruct@@@std@@@std@@@std@@QAE@PAUBuffInfoStruct@@PBU_Container_base0@1@@Z PROC ; std::_Vector_iterator<std::_Vector_val<BuffInfoStruct,std::allocator<BuffInfoStruct> > >::_Vector_iterator<std::_Vector_val<BuffInfoStruct,std::allocator<BuffInfoStruct> > >, COMDAT
; _this$ = ecx

; 304  : 		{	// construct with pointer _Parg

  00000	55		 push	 ebp
  00001	8b ec		 mov	 ebp, esp
  00003	8b c1		 mov	 eax, ecx
  00005	8b 4d 08	 mov	 ecx, DWORD PTR __Parg$[ebp]
  00008	89 08		 mov	 DWORD PTR [eax], ecx

; 305  : 		}

  0000a	5d		 pop	 ebp
  0000b	c2 08 00	 ret	 8
??0?$_Vector_iterator@V?$_Vector_val@UBuffInfoStruct@@V?$allocator@UBuffInfoStruct@@@std@@@std@@@std@@QAE@PAUBuffInfoStruct@@PBU_Container_base0@1@@Z ENDP ; std::_Vector_iterator<std::_Vector_val<BuffInfoStruct,std::allocator<BuffInfoStruct> > >::_Vector_iterator<std::_Vector_val<BuffInfoStruct,std::allocator<BuffInfoStruct> > >
_TEXT	ENDS
PUBLIC	??8?$_Vector_const_iterator@V?$_Vector_val@UBuffInfoStruct@@V?$allocator@UBuffInfoStruct@@@std@@@std@@@std@@QBE_NABV01@@Z ; std::_Vector_const_iterator<std::_Vector_val<BuffInfoStruct,std::allocator<BuffInfoStruct> > >::operator==
; Function compile flags: /Ogsp
;	COMDAT ??8?$_Vector_const_iterator@V?$_Vector_val@UBuffInfoStruct@@V?$allocator@UBuffInfoStruct@@@std@@@std@@@std@@QBE_NABV01@@Z
_TEXT	SEGMENT
__Right$ = 8						; size = 4
??8?$_Vector_const_iterator@V?$_Vector_val@UBuffInfoStruct@@V?$allocator@UBuffInfoStruct@@@std@@@std@@@std@@QBE_NABV01@@Z PROC ; std::_Vector_const_iterator<std::_Vector_val<BuffInfoStruct,std::allocator<BuffInfoStruct> > >::operator==, COMDAT
; _this$ = ecx

; 201  : 		{	// test for iterator equality

  00000	55		 push	 ebp
  00001	8b ec		 mov	 ebp, esp

; 202  : 		_Compat(_Right);
; 203  : 		return (this->_Ptr == _Right._Ptr);

  00003	8b 01		 mov	 eax, DWORD PTR [ecx]
  00005	8b 4d 08	 mov	 ecx, DWORD PTR __Right$[ebp]
  00008	2b 01		 sub	 eax, DWORD PTR [ecx]
  0000a	f7 d8		 neg	 eax
  0000c	1b c0		 sbb	 eax, eax
  0000e	40		 inc	 eax

; 204  : 		}

  0000f	5d		 pop	 ebp
  00010	c2 04 00	 ret	 4
??8?$_Vector_const_iterator@V?$_Vector_val@UBuffInfoStruct@@V?$allocator@UBuffInfoStruct@@@std@@@std@@@std@@QBE_NABV01@@Z ENDP ; std::_Vector_const_iterator<std::_Vector_val<BuffInfoStruct,std::allocator<BuffInfoStruct> > >::operator==
_TEXT	ENDS
PUBLIC	??$_Move@PAUBuffInfoStruct@@PAU1@@std@@YAPAUBuffInfoStruct@@PAU1@00U_Nonscalar_ptr_iterator_tag@0@@Z ; std::_Move<BuffInfoStruct *,BuffInfoStruct *>
; Function compile flags: /Ogsp
; File c:\program files (x86)\microsoft visual studio 10.0\vc\include\xutility
;	COMDAT ??$_Move@PAUBuffInfoStruct@@PAU1@@std@@YAPAUBuffInfoStruct@@PAU1@00U_Nonscalar_ptr_iterator_tag@0@@Z
_TEXT	SEGMENT
__First$ = 8						; size = 4
__Last$ = 12						; size = 4
__Dest$ = 16						; size = 4
___formal$ = 20						; size = 1
??$_Move@PAUBuffInfoStruct@@PAU1@@std@@YAPAUBuffInfoStruct@@PAU1@00U_Nonscalar_ptr_iterator_tag@0@@Z PROC ; std::_Move<BuffInfoStruct *,BuffInfoStruct *>, COMDAT

; 2512 : 	{	// move [_First, _Last) to [_Dest, ...), arbitrary iterators

  00000	55		 push	 ebp
  00001	8b ec		 mov	 ebp, esp
  00003	56		 push	 esi

; 2513 : 	for (; _First != _Last; ++_Dest, ++_First)

  00004	8b 75 08	 mov	 esi, DWORD PTR __First$[ebp]
  00007	eb 1a		 jmp	 SHORT $LN13@Move@2
$LL3@Move@2:

; 2514 : 		*_Dest = _STD move(*_First);

  00009	8b 4d 10	 mov	 ecx, DWORD PTR __Dest$[ebp]
  0000c	56		 push	 esi
  0000d	ff 15 00 00 00
	00		 call	 DWORD PTR __imp_??4ioHashString@@QAEAAV0@ABV0@@Z
  00013	8b 46 10	 mov	 eax, DWORD PTR [esi+16]
  00016	8b 4d 10	 mov	 ecx, DWORD PTR __Dest$[ebp]
  00019	83 45 10 14	 add	 DWORD PTR __Dest$[ebp], 20 ; 00000014H
  0001d	89 41 10	 mov	 DWORD PTR [ecx+16], eax
  00020	83 c6 14	 add	 esi, 20			; 00000014H
$LN13@Move@2:

; 2513 : 	for (; _First != _Last; ++_Dest, ++_First)

  00023	3b 75 0c	 cmp	 esi, DWORD PTR __Last$[ebp]
  00026	75 e1		 jne	 SHORT $LL3@Move@2

; 2515 : 	return (_Dest);

  00028	8b 45 10	 mov	 eax, DWORD PTR __Dest$[ebp]
  0002b	5e		 pop	 esi

; 2516 : 	}

  0002c	5d		 pop	 ebp
  0002d	c3		 ret	 0
??$_Move@PAUBuffInfoStruct@@PAU1@@std@@YAPAUBuffInfoStruct@@PAU1@00U_Nonscalar_ptr_iterator_tag@0@@Z ENDP ; std::_Move<BuffInfoStruct *,BuffInfoStruct *>
_TEXT	ENDS
PUBLIC	?max_size@?$vector@UWeaponInfo@@V?$allocator@UWeaponInfo@@@std@@@std@@QBEIXZ ; std::vector<WeaponInfo,std::allocator<WeaponInfo> >::max_size
; Function compile flags: /Ogsp
; File c:\program files (x86)\microsoft visual studio 10.0\vc\include\vector
;	COMDAT ?max_size@?$vector@UWeaponInfo@@V?$allocator@UWeaponInfo@@@std@@@std@@QBEIXZ
_TEXT	SEGMENT
?max_size@?$vector@UWeaponInfo@@V?$allocator@UWeaponInfo@@@std@@@std@@QBEIXZ PROC ; std::vector<WeaponInfo,std::allocator<WeaponInfo> >::max_size, COMDAT
; _this$ = ecx

; 884  : 		return (this->_Alval.max_size());

  00000	b8 66 66 66 06	 mov	 eax, 107374182		; 06666666H

; 885  : 		}

  00005	c3		 ret	 0
?max_size@?$vector@UWeaponInfo@@V?$allocator@UWeaponInfo@@@std@@@std@@QBEIXZ ENDP ; std::vector<WeaponInfo,std::allocator<WeaponInfo> >::max_size
_TEXT	ENDS
PUBLIC	?allocate@?$allocator@UWeaponInfo@@@std@@QAEPAUWeaponInfo@@I@Z ; std::allocator<WeaponInfo>::allocate
; Function compile flags: /Ogsp
; File c:\program files (x86)\microsoft visual studio 10.0\vc\include\xmemory
;	COMDAT ?allocate@?$allocator@UWeaponInfo@@@std@@QAEPAUWeaponInfo@@I@Z
_TEXT	SEGMENT
__Count$ = 8						; size = 4
?allocate@?$allocator@UWeaponInfo@@@std@@QAEPAUWeaponInfo@@I@Z PROC ; std::allocator<WeaponInfo>::allocate, COMDAT
; _this$ = ecx

; 186  : 		{	// allocate array of _Count elements

  00000	55		 push	 ebp
  00001	8b ec		 mov	 ebp, esp

; 187  : 		return (_Allocate(_Count, (pointer)0));

  00003	6a 00		 push	 0
  00005	ff 75 08	 push	 DWORD PTR __Count$[ebp]
  00008	e8 00 00 00 00	 call	 ??$_Allocate@UWeaponInfo@@@std@@YAPAUWeaponInfo@@IPAU1@@Z ; std::_Allocate<WeaponInfo>
  0000d	59		 pop	 ecx
  0000e	59		 pop	 ecx

; 188  : 		}

  0000f	5d		 pop	 ebp
  00010	c2 04 00	 ret	 4
?allocate@?$allocator@UWeaponInfo@@@std@@QAEPAUWeaponInfo@@I@Z ENDP ; std::allocator<WeaponInfo>::allocate
_TEXT	ENDS
PUBLIC	?max_size@?$vector@UForceInfo@@V?$allocator@UForceInfo@@@std@@@std@@QBEIXZ ; std::vector<ForceInfo,std::allocator<ForceInfo> >::max_size
; Function compile flags: /Ogsp
; File c:\program files (x86)\microsoft visual studio 10.0\vc\include\vector
;	COMDAT ?max_size@?$vector@UForceInfo@@V?$allocator@UForceInfo@@@std@@@std@@QBEIXZ
_TEXT	SEGMENT
?max_size@?$vector@UForceInfo@@V?$allocator@UForceInfo@@@std@@@std@@QBEIXZ PROC ; std::vector<ForceInfo,std::allocator<ForceInfo> >::max_size, COMDAT
; _this$ = ecx

; 884  : 		return (this->_Alval.max_size());

  00000	b8 55 55 55 15	 mov	 eax, 357913941		; 15555555H

; 885  : 		}

  00005	c3		 ret	 0
?max_size@?$vector@UForceInfo@@V?$allocator@UForceInfo@@@std@@@std@@QBEIXZ ENDP ; std::vector<ForceInfo,std::allocator<ForceInfo> >::max_size
_TEXT	ENDS
PUBLIC	?allocate@?$allocator@UForceInfo@@@std@@QAEPAUForceInfo@@I@Z ; std::allocator<ForceInfo>::allocate
; Function compile flags: /Ogsp
; File c:\program files (x86)\microsoft visual studio 10.0\vc\include\xmemory
;	COMDAT ?allocate@?$allocator@UForceInfo@@@std@@QAEPAUForceInfo@@I@Z
_TEXT	SEGMENT
__Count$ = 8						; size = 4
?allocate@?$allocator@UForceInfo@@@std@@QAEPAUForceInfo@@I@Z PROC ; std::allocator<ForceInfo>::allocate, COMDAT
; _this$ = ecx

; 186  : 		{	// allocate array of _Count elements

  00000	55		 push	 ebp
  00001	8b ec		 mov	 ebp, esp

; 187  : 		return (_Allocate(_Count, (pointer)0));

  00003	6a 00		 push	 0
  00005	ff 75 08	 push	 DWORD PTR __Count$[ebp]
  00008	e8 00 00 00 00	 call	 ??$_Allocate@UForceInfo@@@std@@YAPAUForceInfo@@IPAU1@@Z ; std::_Allocate<ForceInfo>
  0000d	59		 pop	 ecx
  0000e	59		 pop	 ecx

; 188  : 		}

  0000f	5d		 pop	 ebp
  00010	c2 04 00	 ret	 4
?allocate@?$allocator@UForceInfo@@@std@@QAEPAUForceInfo@@I@Z ENDP ; std::allocator<ForceInfo>::allocate
_TEXT	ENDS
PUBLIC	??0?$_Vector_iterator@V?$_Vector_val@UWeaponInfo@@V?$allocator@UWeaponInfo@@@std@@@std@@@std@@QAE@PAUWeaponInfo@@PBU_Container_base0@1@@Z ; std::_Vector_iterator<std::_Vector_val<WeaponInfo,std::allocator<WeaponInfo> > >::_Vector_iterator<std::_Vector_val<WeaponInfo,std::allocator<WeaponInfo> > >
; Function compile flags: /Ogsp
; File c:\program files (x86)\microsoft visual studio 10.0\vc\include\vector
;	COMDAT ??0?$_Vector_iterator@V?$_Vector_val@UWeaponInfo@@V?$allocator@UWeaponInfo@@@std@@@std@@@std@@QAE@PAUWeaponInfo@@PBU_Container_base0@1@@Z
_TEXT	SEGMENT
__Parg$ = 8						; size = 4
__Pvector$ = 12						; size = 4
??0?$_Vector_iterator@V?$_Vector_val@UWeaponInfo@@V?$allocator@UWeaponInfo@@@std@@@std@@@std@@QAE@PAUWeaponInfo@@PBU_Container_base0@1@@Z PROC ; std::_Vector_iterator<std::_Vector_val<WeaponInfo,std::allocator<WeaponInfo> > >::_Vector_iterator<std::_Vector_val<WeaponInfo,std::allocator<WeaponInfo> > >, COMDAT
; _this$ = ecx

; 304  : 		{	// construct with pointer _Parg

  00000	55		 push	 ebp
  00001	8b ec		 mov	 ebp, esp
  00003	8b c1		 mov	 eax, ecx
  00005	8b 4d 08	 mov	 ecx, DWORD PTR __Parg$[ebp]
  00008	89 08		 mov	 DWORD PTR [eax], ecx

; 305  : 		}

  0000a	5d		 pop	 ebp
  0000b	c2 08 00	 ret	 8
??0?$_Vector_iterator@V?$_Vector_val@UWeaponInfo@@V?$allocator@UWeaponInfo@@@std@@@std@@@std@@QAE@PAUWeaponInfo@@PBU_Container_base0@1@@Z ENDP ; std::_Vector_iterator<std::_Vector_val<WeaponInfo,std::allocator<WeaponInfo> > >::_Vector_iterator<std::_Vector_val<WeaponInfo,std::allocator<WeaponInfo> > >
_TEXT	ENDS
PUBLIC	??0?$_Vector_iterator@V?$_Vector_val@UForceInfo@@V?$allocator@UForceInfo@@@std@@@std@@@std@@QAE@PAUForceInfo@@PBU_Container_base0@1@@Z ; std::_Vector_iterator<std::_Vector_val<ForceInfo,std::allocator<ForceInfo> > >::_Vector_iterator<std::_Vector_val<ForceInfo,std::allocator<ForceInfo> > >
; Function compile flags: /Ogsp
;	COMDAT ??0?$_Vector_iterator@V?$_Vector_val@UForceInfo@@V?$allocator@UForceInfo@@@std@@@std@@@std@@QAE@PAUForceInfo@@PBU_Container_base0@1@@Z
_TEXT	SEGMENT
__Parg$ = 8						; size = 4
__Pvector$ = 12						; size = 4
??0?$_Vector_iterator@V?$_Vector_val@UForceInfo@@V?$allocator@UForceInfo@@@std@@@std@@@std@@QAE@PAUForceInfo@@PBU_Container_base0@1@@Z PROC ; std::_Vector_iterator<std::_Vector_val<ForceInfo,std::allocator<ForceInfo> > >::_Vector_iterator<std::_Vector_val<ForceInfo,std::allocator<ForceInfo> > >, COMDAT
; _this$ = ecx

; 304  : 		{	// construct with pointer _Parg

  00000	55		 push	 ebp
  00001	8b ec		 mov	 ebp, esp
  00003	8b c1		 mov	 eax, ecx
  00005	8b 4d 08	 mov	 ecx, DWORD PTR __Parg$[ebp]
  00008	89 08		 mov	 DWORD PTR [eax], ecx

; 305  : 		}

  0000a	5d		 pop	 ebp
  0000b	c2 08 00	 ret	 8
??0?$_Vector_iterator@V?$_Vector_val@UForceInfo@@V?$allocator@UForceInfo@@@std@@@std@@@std@@QAE@PAUForceInfo@@PBU_Container_base0@1@@Z ENDP ; std::_Vector_iterator<std::_Vector_val<ForceInfo,std::allocator<ForceInfo> > >::_Vector_iterator<std::_Vector_val<ForceInfo,std::allocator<ForceInfo> > >
_TEXT	ENDS
PUBLIC	??8?$_Vector_const_iterator@V?$_Vector_val@UWeaponInfo@@V?$allocator@UWeaponInfo@@@std@@@std@@@std@@QBE_NABV01@@Z ; std::_Vector_const_iterator<std::_Vector_val<WeaponInfo,std::allocator<WeaponInfo> > >::operator==
; Function compile flags: /Ogsp
;	COMDAT ??8?$_Vector_const_iterator@V?$_Vector_val@UWeaponInfo@@V?$allocator@UWeaponInfo@@@std@@@std@@@std@@QBE_NABV01@@Z
_TEXT	SEGMENT
__Right$ = 8						; size = 4
??8?$_Vector_const_iterator@V?$_Vector_val@UWeaponInfo@@V?$allocator@UWeaponInfo@@@std@@@std@@@std@@QBE_NABV01@@Z PROC ; std::_Vector_const_iterator<std::_Vector_val<WeaponInfo,std::allocator<WeaponInfo> > >::operator==, COMDAT
; _this$ = ecx

; 201  : 		{	// test for iterator equality

  00000	55		 push	 ebp
  00001	8b ec		 mov	 ebp, esp

; 202  : 		_Compat(_Right);
; 203  : 		return (this->_Ptr == _Right._Ptr);

  00003	8b 01		 mov	 eax, DWORD PTR [ecx]
  00005	8b 4d 08	 mov	 ecx, DWORD PTR __Right$[ebp]
  00008	2b 01		 sub	 eax, DWORD PTR [ecx]
  0000a	f7 d8		 neg	 eax
  0000c	1b c0		 sbb	 eax, eax
  0000e	40		 inc	 eax

; 204  : 		}

  0000f	5d		 pop	 ebp
  00010	c2 04 00	 ret	 4
??8?$_Vector_const_iterator@V?$_Vector_val@UWeaponInfo@@V?$allocator@UWeaponInfo@@@std@@@std@@@std@@QBE_NABV01@@Z ENDP ; std::_Vector_const_iterator<std::_Vector_val<WeaponInfo,std::allocator<WeaponInfo> > >::operator==
_TEXT	ENDS
PUBLIC	??8?$_Vector_const_iterator@V?$_Vector_val@UForceInfo@@V?$allocator@UForceInfo@@@std@@@std@@@std@@QBE_NABV01@@Z ; std::_Vector_const_iterator<std::_Vector_val<ForceInfo,std::allocator<ForceInfo> > >::operator==
; Function compile flags: /Ogsp
;	COMDAT ??8?$_Vector_const_iterator@V?$_Vector_val@UForceInfo@@V?$allocator@UForceInfo@@@std@@@std@@@std@@QBE_NABV01@@Z
_TEXT	SEGMENT
__Right$ = 8						; size = 4
??8?$_Vector_const_iterator@V?$_Vector_val@UForceInfo@@V?$allocator@UForceInfo@@@std@@@std@@@std@@QBE_NABV01@@Z PROC ; std::_Vector_const_iterator<std::_Vector_val<ForceInfo,std::allocator<ForceInfo> > >::operator==, COMDAT
; _this$ = ecx

; 201  : 		{	// test for iterator equality

  00000	55		 push	 ebp
  00001	8b ec		 mov	 ebp, esp

; 202  : 		_Compat(_Right);
; 203  : 		return (this->_Ptr == _Right._Ptr);

  00003	8b 01		 mov	 eax, DWORD PTR [ecx]
  00005	8b 4d 08	 mov	 ecx, DWORD PTR __Right$[ebp]
  00008	2b 01		 sub	 eax, DWORD PTR [ecx]
  0000a	f7 d8		 neg	 eax
  0000c	1b c0		 sbb	 eax, eax
  0000e	40		 inc	 eax

; 204  : 		}

  0000f	5d		 pop	 ebp
  00010	c2 04 00	 ret	 4
??8?$_Vector_const_iterator@V?$_Vector_val@UForceInfo@@V?$allocator@UForceInfo@@@std@@@std@@@std@@QBE_NABV01@@Z ENDP ; std::_Vector_const_iterator<std::_Vector_val<ForceInfo,std::allocator<ForceInfo> > >::operator==
_TEXT	ENDS
PUBLIC	?destroy@?$allocator@UForceInfo@@@std@@QAEXPAUForceInfo@@@Z ; std::allocator<ForceInfo>::destroy
; Function compile flags: /Ogsp
; File c:\program files (x86)\microsoft visual studio 10.0\vc\include\xmemory
;	COMDAT ?destroy@?$allocator@UForceInfo@@@std@@QAEXPAUForceInfo@@@Z
_TEXT	SEGMENT
__Ptr$ = 8						; size = 4
?destroy@?$allocator@UForceInfo@@@std@@QAEXPAUForceInfo@@@Z PROC ; std::allocator<ForceInfo>::destroy, COMDAT
; _this$ = ecx

; 213  : 		_Destroy(_Ptr);
; 214  : 		}

  00000	c2 04 00	 ret	 4
?destroy@?$allocator@UForceInfo@@@std@@QAEXPAUForceInfo@@@Z ENDP ; std::allocator<ForceInfo>::destroy
_TEXT	ENDS
PUBLIC	??$_Move@PAUWeaponInfo@@PAU1@@std@@YAPAUWeaponInfo@@PAU1@00U_Nonscalar_ptr_iterator_tag@0@@Z ; std::_Move<WeaponInfo *,WeaponInfo *>
; Function compile flags: /Ogsp
; File c:\program files (x86)\microsoft visual studio 10.0\vc\include\xutility
;	COMDAT ??$_Move@PAUWeaponInfo@@PAU1@@std@@YAPAUWeaponInfo@@PAU1@00U_Nonscalar_ptr_iterator_tag@0@@Z
_TEXT	SEGMENT
__First$ = 8						; size = 4
__Last$ = 12						; size = 4
__Dest$ = 16						; size = 4
___formal$ = 20						; size = 1
??$_Move@PAUWeaponInfo@@PAU1@@std@@YAPAUWeaponInfo@@PAU1@00U_Nonscalar_ptr_iterator_tag@0@@Z PROC ; std::_Move<WeaponInfo *,WeaponInfo *>, COMDAT

; 2512 : 	{	// move [_First, _Last) to [_Dest, ...), arbitrary iterators

  00000	55		 push	 ebp
  00001	8b ec		 mov	 ebp, esp
  00003	56		 push	 esi

; 2513 : 	for (; _First != _Last; ++_Dest, ++_First)

  00004	8b 75 08	 mov	 esi, DWORD PTR __First$[ebp]
  00007	eb 10		 jmp	 SHORT $LN11@Move@3
$LL3@Move@3:

; 2514 : 		*_Dest = _STD move(*_First);

  00009	8b 4d 10	 mov	 ecx, DWORD PTR __Dest$[ebp]
  0000c	56		 push	 esi
  0000d	e8 00 00 00 00	 call	 ??4WeaponInfo@@QAEAAU0@ABU0@@Z
  00012	83 45 10 28	 add	 DWORD PTR __Dest$[ebp], 40 ; 00000028H
  00016	83 c6 28	 add	 esi, 40			; 00000028H
$LN11@Move@3:

; 2513 : 	for (; _First != _Last; ++_Dest, ++_First)

  00019	3b 75 0c	 cmp	 esi, DWORD PTR __Last$[ebp]
  0001c	75 eb		 jne	 SHORT $LL3@Move@3

; 2515 : 	return (_Dest);

  0001e	8b 45 10	 mov	 eax, DWORD PTR __Dest$[ebp]
  00021	5e		 pop	 esi

; 2516 : 	}

  00022	5d		 pop	 ebp
  00023	c3		 ret	 0
??$_Move@PAUWeaponInfo@@PAU1@@std@@YAPAUWeaponInfo@@PAU1@00U_Nonscalar_ptr_iterator_tag@0@@Z ENDP ; std::_Move<WeaponInfo *,WeaponInfo *>
_TEXT	ENDS
PUBLIC	??$_Move@PAUForceInfo@@PAU1@@std@@YAPAUForceInfo@@PAU1@00U_Nonscalar_ptr_iterator_tag@0@@Z ; std::_Move<ForceInfo *,ForceInfo *>
; Function compile flags: /Ogsp
;	COMDAT ??$_Move@PAUForceInfo@@PAU1@@std@@YAPAUForceInfo@@PAU1@00U_Nonscalar_ptr_iterator_tag@0@@Z
_TEXT	SEGMENT
__First$ = 8						; size = 4
__Last$ = 12						; size = 4
__Dest$ = 16						; size = 4
___formal$ = 20						; size = 1
??$_Move@PAUForceInfo@@PAU1@@std@@YAPAUForceInfo@@PAU1@00U_Nonscalar_ptr_iterator_tag@0@@Z PROC ; std::_Move<ForceInfo *,ForceInfo *>, COMDAT

; 2512 : 	{	// move [_First, _Last) to [_Dest, ...), arbitrary iterators

  00000	55		 push	 ebp
  00001	8b ec		 mov	 ebp, esp

; 2513 : 	for (; _First != _Last; ++_Dest, ++_First)

  00003	8b 45 08	 mov	 eax, DWORD PTR __First$[ebp]
  00006	3b 45 0c	 cmp	 eax, DWORD PTR __Last$[ebp]
  00009	74 18		 je	 SHORT $LN10@Move@4
  0000b	56		 push	 esi
  0000c	57		 push	 edi
$LL3@Move@4:

; 2514 : 		*_Dest = _STD move(*_First);

  0000d	8b 7d 10	 mov	 edi, DWORD PTR __Dest$[ebp]
  00010	83 45 10 0c	 add	 DWORD PTR __Dest$[ebp], 12 ; 0000000cH
  00014	8b f0		 mov	 esi, eax
  00016	a5		 movsd
  00017	a5		 movsd
  00018	83 c0 0c	 add	 eax, 12			; 0000000cH
  0001b	a5		 movsd
  0001c	3b 45 0c	 cmp	 eax, DWORD PTR __Last$[ebp]
  0001f	75 ec		 jne	 SHORT $LL3@Move@4
  00021	5f		 pop	 edi
  00022	5e		 pop	 esi
$LN10@Move@4:

; 2515 : 	return (_Dest);

  00023	8b 45 10	 mov	 eax, DWORD PTR __Dest$[ebp]

; 2516 : 	}

  00026	5d		 pop	 ebp
  00027	c3		 ret	 0
??$_Move@PAUForceInfo@@PAU1@@std@@YAPAUForceInfo@@PAU1@00U_Nonscalar_ptr_iterator_tag@0@@Z ENDP ; std::_Move<ForceInfo *,ForceInfo *>
_TEXT	ENDS
PUBLIC	??$_Destroy@UWeaponInfo@@@std@@YAXPAUWeaponInfo@@@Z ; std::_Destroy<WeaponInfo>
; Function compile flags: /Ogsp
; File c:\program files (x86)\microsoft visual studio 10.0\vc\include\xmemory
;	COMDAT ??$_Destroy@UWeaponInfo@@@std@@YAXPAUWeaponInfo@@@Z
_TEXT	SEGMENT
__Ptr$ = 8						; size = 4
??$_Destroy@UWeaponInfo@@@std@@YAXPAUWeaponInfo@@@Z PROC ; std::_Destroy<WeaponInfo>, COMDAT

; 62   : 	{	// destroy object at _Ptr

  00000	55		 push	 ebp
  00001	8b ec		 mov	 ebp, esp

; 63   : 	_Ptr->~_Ty();

  00003	8b 4d 08	 mov	 ecx, DWORD PTR __Ptr$[ebp]
  00006	83 c1 08	 add	 ecx, 8

; 64   : 	}

  00009	5d		 pop	 ebp

; 63   : 	_Ptr->~_Ty();

  0000a	ff 25 00 00 00
	00		 jmp	 DWORD PTR __imp_??1ioHashString@@QAE@XZ
??$_Destroy@UWeaponInfo@@@std@@YAXPAUWeaponInfo@@@Z ENDP ; std::_Destroy<WeaponInfo>
_TEXT	ENDS
PUBLIC	??$_Destroy@UBuffInfoStruct@@@std@@YAXPAUBuffInfoStruct@@@Z ; std::_Destroy<BuffInfoStruct>
; Function compile flags: /Ogsp
;	COMDAT ??$_Destroy@UBuffInfoStruct@@@std@@YAXPAUBuffInfoStruct@@@Z
_TEXT	SEGMENT
__Ptr$ = 8						; size = 4
??$_Destroy@UBuffInfoStruct@@@std@@YAXPAUBuffInfoStruct@@@Z PROC ; std::_Destroy<BuffInfoStruct>, COMDAT

; 62   : 	{	// destroy object at _Ptr

  00000	55		 push	 ebp
  00001	8b ec		 mov	 ebp, esp

; 63   : 	_Ptr->~_Ty();

  00003	8b 4d 08	 mov	 ecx, DWORD PTR __Ptr$[ebp]

; 64   : 	}

  00006	5d		 pop	 ebp

; 63   : 	_Ptr->~_Ty();

  00007	ff 25 00 00 00
	00		 jmp	 DWORD PTR __imp_??1ioHashString@@QAE@XZ
??$_Destroy@UBuffInfoStruct@@@std@@YAXPAUBuffInfoStruct@@@Z ENDP ; std::_Destroy<BuffInfoStruct>
_TEXT	ENDS
PUBLIC	??$construct@AAUBuffInfoStruct@@@?$allocator@UBuffInfoStruct@@@std@@QAEXPAUBuffInfoStruct@@AAU2@@Z ; std::allocator<BuffInfoStruct>::construct<BuffInfoStruct &>
;	COMDAT xdata$x
; File c:\program files (x86)\microsoft visual studio 10.0\vc\include\vector
xdata$x	SEGMENT
__unwindtable$??$construct@AAUBuffInfoStruct@@@?$allocator@UBuffInfoStruct@@@std@@QAEXPAUBuffInfoStruct@@AAU2@@Z DD 0ffffffffH
	DD	FLAT:__unwindfunclet$??$construct@AAUBuffInfoStruct@@@?$allocator@UBuffInfoStruct@@@std@@QAEXPAUBuffInfoStruct@@AAU2@@Z$0
__ehfuncinfo$??$construct@AAUBuffInfoStruct@@@?$allocator@UBuffInfoStruct@@@std@@QAEXPAUBuffInfoStruct@@AAU2@@Z DD 019930522H
	DD	01H
	DD	FLAT:__unwindtable$??$construct@AAUBuffInfoStruct@@@?$allocator@UBuffInfoStruct@@@std@@QAEXPAUBuffInfoStruct@@AAU2@@Z
	DD	2 DUP(00H)
	DD	2 DUP(00H)
	DD	00H
	DD	01H
; Function compile flags: /Ogsp
; File c:\program files (x86)\microsoft visual studio 10.0\vc\include\xmemory
xdata$x	ENDS
;	COMDAT ??$construct@AAUBuffInfoStruct@@@?$allocator@UBuffInfoStruct@@@std@@QAEXPAUBuffInfoStruct@@AAU2@@Z
_TEXT	SEGMENT
$T577129 = -16						; size = 4
__$EHRec$ = -12						; size = 12
__Ptr$ = 8						; size = 4
__Val$ = 12						; size = 4
??$construct@AAUBuffInfoStruct@@@?$allocator@UBuffInfoStruct@@@std@@QAEXPAUBuffInfoStruct@@AAU2@@Z PROC ; std::allocator<BuffInfoStruct>::construct<BuffInfoStruct &>, COMDAT
; _this$ = ecx

; 206  : 		void construct(pointer _Ptr, _Other&& _Val)

  00000	6a 04		 push	 4
  00002	b8 00 00 00 00	 mov	 eax, __ehhandler$??$construct@AAUBuffInfoStruct@@@?$allocator@UBuffInfoStruct@@@std@@QAEXPAUBuffInfoStruct@@AAU2@@Z
  00007	e8 00 00 00 00	 call	 __EH_prolog3

; 207  : 		{	// construct object at _Ptr with value _Val
; 208  : 		::new ((void _FARQ *)_Ptr) _Ty(_STD forward<_Other>(_Val));

  0000c	8b 75 08	 mov	 esi, DWORD PTR __Ptr$[ebp]
  0000f	89 75 f0	 mov	 DWORD PTR $T577129[ebp], esi
  00012	83 65 fc 00	 and	 DWORD PTR __$EHRec$[ebp+8], 0
  00016	85 f6		 test	 esi, esi
  00018	74 12		 je	 SHORT $LN3@construct@9
  0001a	8b 7d 0c	 mov	 edi, DWORD PTR __Val$[ebp]
  0001d	57		 push	 edi
  0001e	8b ce		 mov	 ecx, esi
  00020	ff 15 00 00 00
	00		 call	 DWORD PTR __imp_??0ioHashString@@QAE@ABV0@@Z
  00026	8b 47 10	 mov	 eax, DWORD PTR [edi+16]
  00029	89 46 10	 mov	 DWORD PTR [esi+16], eax
$LN3@construct@9:

; 209  : 		}

  0002c	e8 00 00 00 00	 call	 __EH_epilog3
  00031	c2 08 00	 ret	 8
_TEXT	ENDS
;	COMDAT text$x
text$x	SEGMENT
__unwindfunclet$??$construct@AAUBuffInfoStruct@@@?$allocator@UBuffInfoStruct@@@std@@QAEXPAUBuffInfoStruct@@AAU2@@Z$0:
  00000	ff 75 08	 push	 DWORD PTR __Ptr$[ebp]
  00003	ff 75 f0	 push	 DWORD PTR $T577129[ebp]
  00006	e8 00 00 00 00	 call	 ??3@YAXPAX0@Z		; operator delete
  0000b	59		 pop	 ecx
  0000c	59		 pop	 ecx
  0000d	c3		 ret	 0
__ehhandler$??$construct@AAUBuffInfoStruct@@@?$allocator@UBuffInfoStruct@@@std@@QAEXPAUBuffInfoStruct@@AAU2@@Z:
  0000e	8b 54 24 08	 mov	 edx, DWORD PTR [esp+8]
  00012	8d 42 0c	 lea	 eax, DWORD PTR [edx+12]
  00015	8b 4a ec	 mov	 ecx, DWORD PTR [edx-20]
  00018	33 c8		 xor	 ecx, eax
  0001a	e8 00 00 00 00	 call	 @__security_check_cookie@4
  0001f	b8 00 00 00 00	 mov	 eax, OFFSET __ehfuncinfo$??$construct@AAUBuffInfoStruct@@@?$allocator@UBuffInfoStruct@@@std@@QAEXPAUBuffInfoStruct@@AAU2@@Z
  00024	e9 00 00 00 00	 jmp	 ___CxxFrameHandler3
text$x	ENDS
??$construct@AAUBuffInfoStruct@@@?$allocator@UBuffInfoStruct@@@std@@QAEXPAUBuffInfoStruct@@AAU2@@Z ENDP ; std::allocator<BuffInfoStruct>::construct<BuffInfoStruct &>
PUBLIC	??$_Cons_val@V?$allocator@UForceInfo@@@std@@UForceInfo@@AAU3@@std@@YAXAAV?$allocator@UForceInfo@@@0@PAUForceInfo@@AAU2@@Z ; std::_Cons_val<std::allocator<ForceInfo>,ForceInfo,ForceInfo &>
; Function compile flags: /Ogsp
;	COMDAT ??$_Cons_val@V?$allocator@UForceInfo@@@std@@UForceInfo@@AAU3@@std@@YAXAAV?$allocator@UForceInfo@@@0@PAUForceInfo@@AAU2@@Z
_TEXT	SEGMENT
__Alval$ = 8						; size = 4
__Pdest$ = 12						; size = 4
__Src$ = 16						; size = 4
??$_Cons_val@V?$allocator@UForceInfo@@@std@@UForceInfo@@AAU3@@std@@YAXAAV?$allocator@UForceInfo@@@0@PAUForceInfo@@AAU2@@Z PROC ; std::_Cons_val<std::allocator<ForceInfo>,ForceInfo,ForceInfo &>, COMDAT

; 279  : 	{	// construct using allocator

  00000	55		 push	 ebp
  00001	8b ec		 mov	 ebp, esp
  00003	57		 push	 edi

; 280  : 	_Alval.construct(_Pdest, _STD forward<_Ty2>(_Src));

  00004	8b 7d 0c	 mov	 edi, DWORD PTR __Pdest$[ebp]
  00007	85 ff		 test	 edi, edi
  00009	74 08		 je	 SHORT $LN7@Cons_val@2
  0000b	56		 push	 esi
  0000c	8b 75 10	 mov	 esi, DWORD PTR __Src$[ebp]
  0000f	a5		 movsd
  00010	a5		 movsd
  00011	a5		 movsd
  00012	5e		 pop	 esi
$LN7@Cons_val@2:
  00013	5f		 pop	 edi

; 281  : 	}

  00014	5d		 pop	 ebp
  00015	c3		 ret	 0
??$_Cons_val@V?$allocator@UForceInfo@@@std@@UForceInfo@@AAU3@@std@@YAXAAV?$allocator@UForceInfo@@@0@PAUForceInfo@@AAU2@@Z ENDP ; std::_Cons_val<std::allocator<ForceInfo>,ForceInfo,ForceInfo &>
_TEXT	ENDS
PUBLIC	??$construct@AAUWeaponInfo@@@?$allocator@UWeaponInfo@@@std@@QAEXPAUWeaponInfo@@AAU2@@Z ; std::allocator<WeaponInfo>::construct<WeaponInfo &>
;	COMDAT xdata$x
; File c:\program files (x86)\microsoft visual studio 10.0\vc\include\utility
xdata$x	SEGMENT
__unwindtable$??$construct@AAUWeaponInfo@@@?$allocator@UWeaponInfo@@@std@@QAEXPAUWeaponInfo@@AAU2@@Z DD 0ffffffffH
	DD	FLAT:__unwindfunclet$??$construct@AAUWeaponInfo@@@?$allocator@UWeaponInfo@@@std@@QAEXPAUWeaponInfo@@AAU2@@Z$0
__ehfuncinfo$??$construct@AAUWeaponInfo@@@?$allocator@UWeaponInfo@@@std@@QAEXPAUWeaponInfo@@AAU2@@Z DD 019930522H
	DD	01H
	DD	FLAT:__unwindtable$??$construct@AAUWeaponInfo@@@?$allocator@UWeaponInfo@@@std@@QAEXPAUWeaponInfo@@AAU2@@Z
	DD	2 DUP(00H)
	DD	2 DUP(00H)
	DD	00H
	DD	01H
; Function compile flags: /Ogsp
; File c:\program files (x86)\microsoft visual studio 10.0\vc\include\xmemory
xdata$x	ENDS
;	COMDAT ??$construct@AAUWeaponInfo@@@?$allocator@UWeaponInfo@@@std@@QAEXPAUWeaponInfo@@AAU2@@Z
_TEXT	SEGMENT
$T577178 = -16						; size = 4
__$EHRec$ = -12						; size = 12
__Ptr$ = 8						; size = 4
__Val$ = 12						; size = 4
??$construct@AAUWeaponInfo@@@?$allocator@UWeaponInfo@@@std@@QAEXPAUWeaponInfo@@AAU2@@Z PROC ; std::allocator<WeaponInfo>::construct<WeaponInfo &>, COMDAT
; _this$ = ecx

; 206  : 		void construct(pointer _Ptr, _Other&& _Val)

  00000	6a 04		 push	 4
  00002	b8 00 00 00 00	 mov	 eax, __ehhandler$??$construct@AAUWeaponInfo@@@?$allocator@UWeaponInfo@@@std@@QAEXPAUWeaponInfo@@AAU2@@Z
  00007	e8 00 00 00 00	 call	 __EH_prolog3

; 207  : 		{	// construct object at _Ptr with value _Val
; 208  : 		::new ((void _FARQ *)_Ptr) _Ty(_STD forward<_Other>(_Val));

  0000c	8b 4d 08	 mov	 ecx, DWORD PTR __Ptr$[ebp]
  0000f	89 4d f0	 mov	 DWORD PTR $T577178[ebp], ecx
  00012	83 65 fc 00	 and	 DWORD PTR __$EHRec$[ebp+8], 0
  00016	85 c9		 test	 ecx, ecx
  00018	74 08		 je	 SHORT $LN3@construct@10
  0001a	ff 75 0c	 push	 DWORD PTR __Val$[ebp]
  0001d	e8 00 00 00 00	 call	 ??0WeaponInfo@@QAE@ABU0@@Z
$LN3@construct@10:

; 209  : 		}

  00022	e8 00 00 00 00	 call	 __EH_epilog3
  00027	c2 08 00	 ret	 8
_TEXT	ENDS
;	COMDAT text$x
text$x	SEGMENT
__unwindfunclet$??$construct@AAUWeaponInfo@@@?$allocator@UWeaponInfo@@@std@@QAEXPAUWeaponInfo@@AAU2@@Z$0:
  00000	ff 75 08	 push	 DWORD PTR __Ptr$[ebp]
  00003	ff 75 f0	 push	 DWORD PTR $T577178[ebp]
  00006	e8 00 00 00 00	 call	 ??3@YAXPAX0@Z		; operator delete
  0000b	59		 pop	 ecx
  0000c	59		 pop	 ecx
  0000d	c3		 ret	 0
__ehhandler$??$construct@AAUWeaponInfo@@@?$allocator@UWeaponInfo@@@std@@QAEXPAUWeaponInfo@@AAU2@@Z:
  0000e	8b 54 24 08	 mov	 edx, DWORD PTR [esp+8]
  00012	8d 42 0c	 lea	 eax, DWORD PTR [edx+12]
  00015	8b 4a ec	 mov	 ecx, DWORD PTR [edx-20]
  00018	33 c8		 xor	 ecx, eax
  0001a	e8 00 00 00 00	 call	 @__security_check_cookie@4
  0001f	b8 00 00 00 00	 mov	 eax, OFFSET __ehfuncinfo$??$construct@AAUWeaponInfo@@@?$allocator@UWeaponInfo@@@std@@QAEXPAUWeaponInfo@@AAU2@@Z
  00024	e9 00 00 00 00	 jmp	 ___CxxFrameHandler3
text$x	ENDS
??$construct@AAUWeaponInfo@@@?$allocator@UWeaponInfo@@@std@@QAEXPAUWeaponInfo@@AAU2@@Z ENDP ; std::allocator<WeaponInfo>::construct<WeaponInfo &>
PUBLIC	?SetGravityAmt@ioBaseChar@@QAEXM@Z		; ioBaseChar::SetGravityAmt
; Function compile flags: /Ogsp
; File d:\lost saga for developer\youtube\tutorial\source\src\lsclient\iobasechar.h
;	COMDAT ?SetGravityAmt@ioBaseChar@@QAEXM@Z
_TEXT	SEGMENT
_value$577199 = 8					; size = 4
_fAmt$ = 8						; size = 4
?SetGravityAmt@ioBaseChar@@QAEXM@Z PROC			; ioBaseChar::SetGravityAmt, COMDAT
; _this$ = ecx

; 2631 : 	inline void SetGravityAmt( float fAmt ) { m_fGravityAmt = fAmt; }

  00000	55		 push	 ebp
  00001	8b ec		 mov	 ebp, esp
  00003	f3 0f 10 45 08	 movss	 xmm0, DWORD PTR _fAmt$[ebp]
  00008	8d 45 08	 lea	 eax, DWORD PTR _value$577199[ebp]
  0000b	50		 push	 eax
  0000c	81 c1 e8 0b 00
	00		 add	 ecx, 3048		; 00000be8H
  00012	f3 0f 11 45 08	 movss	 DWORD PTR _value$577199[ebp], xmm0
  00017	e8 00 00 00 00	 call	 ?EncryptValueToPool@?$CEncrypt@M@@AAEXPBD@Z ; CEncrypt<float>::EncryptValueToPool
  0001c	5d		 pop	 ebp
  0001d	c2 04 00	 ret	 4
?SetGravityAmt@ioBaseChar@@QAEXM@Z ENDP			; ioBaseChar::SetGravityAmt
_TEXT	ENDS
PUBLIC	??_C@_00CNPNBAHC@?$AA@				; `string'
PUBLIC	?OnSkillEnd@ioCircleMoveWeaponSkill@@UAEXPAVioBaseChar@@@Z ; ioCircleMoveWeaponSkill::OnSkillEnd
EXTRN	?DestroyMagicCircle@ioBaseGUISupport@@QAEXXZ:PROC ; ioBaseGUISupport::DestroyMagicCircle
EXTRN	?EndMapEffect@ioBaseChar@@QAEXK_N@Z:PROC	; ioBaseChar::EndMapEffect
EXTRN	?SetMagicCircleTarget@ioBaseGUISupport@@QAEXABVioHashString@@@Z:PROC ; ioBaseGUISupport::SetMagicCircleTarget
EXTRN	?EndCameraBuff@ioSkill@@IAEXPAVioBaseChar@@@Z:PROC ; ioSkill::EndCameraBuff
EXTRN	?RestoreSkillWeaponMesh@ioBaseChar@@QAE_NPAVioSkill@@ABVioHashString@@_N2@Z:PROC ; ioBaseChar::RestoreSkillWeaponMesh
EXTRN	__imp_?IsEmpty@ioHashString@@QBE_NXZ:PROC
EXTRN	?ShowWeaponItemMesh@ioBaseChar@@QAEX_N0@Z:PROC	; ioBaseChar::ShowWeaponItemMesh
EXTRN	?OnSkillEnd@ioNormalSkill@@UAEXPAVioBaseChar@@@Z:PROC ; ioNormalSkill::OnSkillEnd
;	COMDAT ??_C@_00CNPNBAHC@?$AA@
; File d:\lost saga for developer\youtube\tutorial\source\src\lsclient\encryptvalue.h
CONST	SEGMENT
??_C@_00CNPNBAHC@?$AA@ DB 00H				; `string'
CONST	ENDS
;	COMDAT xdata$x
xdata$x	SEGMENT
__unwindtable$?OnSkillEnd@ioCircleMoveWeaponSkill@@UAEXPAVioBaseChar@@@Z DD 0ffffffffH
	DD	FLAT:__unwindfunclet$?OnSkillEnd@ioCircleMoveWeaponSkill@@UAEXPAVioBaseChar@@@Z$0
__ehfuncinfo$?OnSkillEnd@ioCircleMoveWeaponSkill@@UAEXPAVioBaseChar@@@Z DD 019930522H
	DD	01H
	DD	FLAT:__unwindtable$?OnSkillEnd@ioCircleMoveWeaponSkill@@UAEXPAVioBaseChar@@@Z
	DD	2 DUP(00H)
	DD	2 DUP(00H)
	DD	00H
	DD	01H
; Function compile flags: /Ogsp
; File d:\lost saga for developer\youtube\tutorial\source\src\lsclient\iocirclemoveweaponskill.cpp
xdata$x	ENDS
;	COMDAT ?OnSkillEnd@ioCircleMoveWeaponSkill@@UAEXPAVioBaseChar@@@Z
_TEXT	SEGMENT
$T577202 = -36						; size = 16
_value$577211 = -20					; size = 4
tv235 = -16						; size = 4
__$EHRec$ = -12						; size = 12
_value$577207 = 8					; size = 4
_pChar$ = 8						; size = 4
?OnSkillEnd@ioCircleMoveWeaponSkill@@UAEXPAVioBaseChar@@@Z PROC ; ioCircleMoveWeaponSkill::OnSkillEnd, COMDAT
; _this$ = ecx

; 253  : {

  00000	6a 18		 push	 24			; 00000018H
  00002	b8 00 00 00 00	 mov	 eax, __ehhandler$?OnSkillEnd@ioCircleMoveWeaponSkill@@UAEXPAVioBaseChar@@@Z
  00007	e8 00 00 00 00	 call	 __EH_prolog3
  0000c	8b d9		 mov	 ebx, ecx

; 254  : 	ioNormalSkill::OnSkillEnd( pChar );

  0000e	8b 75 08	 mov	 esi, DWORD PTR _pChar$[ebp]
  00011	56		 push	 esi
  00012	e8 00 00 00 00	 call	 ?OnSkillEnd@ioNormalSkill@@UAEXPAVioBaseChar@@@Z ; ioNormalSkill::OnSkillEnd

; 255  : 
; 256  : 	//  
; 257  : 	if( m_bUseItemMesh )

  00017	80 bb 08 0f 00
	00 00		 cmp	 BYTE PTR [ebx+3848], 0
  0001e	74 0b		 je	 SHORT $LN4@OnSkillEnd

; 258  : 	{
; 259  : 		pChar->ShowWeaponItemMesh( true );

  00020	6a 00		 push	 0
  00022	6a 01		 push	 1
  00024	8b ce		 mov	 ecx, esi
  00026	e8 00 00 00 00	 call	 ?ShowWeaponItemMesh@ioBaseChar@@QAEX_N0@Z ; ioBaseChar::ShowWeaponItemMesh
$LN4@OnSkillEnd:

; 260  : 	}
; 261  : 
; 262  : 	//      
; 263  : 	m_bSetHandMesh = false;
; 264  : 	if( !m_HandMesh.IsEmpty() )

  0002b	8d bb f8 0e 00
	00		 lea	 edi, DWORD PTR [ebx+3832]
  00031	8b cf		 mov	 ecx, edi
  00033	c6 83 0a 0f 00
	00 00		 mov	 BYTE PTR [ebx+3850], 0
  0003a	ff 15 00 00 00
	00		 call	 DWORD PTR __imp_?IsEmpty@ioHashString@@QBE_NXZ
  00040	84 c0		 test	 al, al
  00042	75 13		 jne	 SHORT $LN3@OnSkillEnd

; 265  : 		pChar->RestoreSkillWeaponMesh( this, m_HandMesh, m_bVisibleEquipMesh );

  00044	0f b6 83 09 0f
	00 00		 movzx	 eax, BYTE PTR [ebx+3849]
  0004b	6a 00		 push	 0
  0004d	50		 push	 eax
  0004e	57		 push	 edi
  0004f	53		 push	 ebx
  00050	8b ce		 mov	 ecx, esi
  00052	e8 00 00 00 00	 call	 ?RestoreSkillWeaponMesh@ioBaseChar@@QAE_NPAVioSkill@@ABVioHashString@@_N2@Z ; ioBaseChar::RestoreSkillWeaponMesh
$LN3@OnSkillEnd:

; 266  : 
; 267  : 	EndCameraBuff( pChar );

  00057	56		 push	 esi
  00058	8b cb		 mov	 ecx, ebx
  0005a	e8 00 00 00 00	 call	 ?EndCameraBuff@ioSkill@@IAEXPAVioBaseChar@@@Z ; ioSkill::EndCameraBuff

; 268  : 
; 269  : 	pChar->SetMagicCircleTarget( "" );

  0005f	68 00 00 00 00	 push	 OFFSET ??_C@_00CNPNBAHC@?$AA@
  00064	8d 4d dc	 lea	 ecx, DWORD PTR $T577202[ebp]
  00067	ff 15 00 00 00
	00		 call	 DWORD PTR __imp_??0ioHashString@@QAE@PBD@Z
  0006d	83 65 fc 00	 and	 DWORD PTR __$EHRec$[ebp+8], 0
  00071	8d 45 dc	 lea	 eax, DWORD PTR $T577202[ebp]
  00074	8d 8e cc 01 00
	00		 lea	 ecx, DWORD PTR [esi+460]
  0007a	50		 push	 eax
  0007b	89 4d f0	 mov	 DWORD PTR tv235[ebp], ecx
  0007e	e8 00 00 00 00	 call	 ?SetMagicCircleTarget@ioBaseGUISupport@@QAEXABVioHashString@@@Z ; ioBaseGUISupport::SetMagicCircleTarget
  00083	83 4d fc ff	 or	 DWORD PTR __$EHRec$[ebp+8], -1
  00087	8d 4d dc	 lea	 ecx, DWORD PTR $T577202[ebp]
  0008a	ff 15 00 00 00
	00		 call	 DWORD PTR __imp_??1ioHashString@@QAE@XZ

; 270  : 
; 271  : 	m_vAttackDir = ioMath::VEC3_ZERO;

  00090	8b 35 00 00 00
	00		 mov	 esi, DWORD PTR __imp_?VEC3_ZERO@ioMath@@2UD3DXVECTOR3@@A

; 272  : 	m_fMoveRange = 0;
; 273  : 
; 274  : 	//DestroyMapEffect
; 275  : 	if( m_dwCurMapEffect != -1 )

  00096	8b 83 48 10 00
	00		 mov	 eax, DWORD PTR [ebx+4168]
  0009c	0f 57 c0	 xorps	 xmm0, xmm0
  0009f	8d bb f8 0f 00
	00		 lea	 edi, DWORD PTR [ebx+4088]
  000a5	a5		 movsd
  000a6	a5		 movsd
  000a7	a5		 movsd

; 276  : 		pChar->EndMapEffect( m_dwCurMapEffect, false );

  000a8	33 ff		 xor	 edi, edi
  000aa	f3 0f 11 83 04
	10 00 00	 movss	 DWORD PTR [ebx+4100], xmm0
  000b2	83 f8 ff	 cmp	 eax, -1
  000b5	74 0a		 je	 SHORT $LN2@OnSkillEnd
  000b7	8b 4d 08	 mov	 ecx, DWORD PTR _pChar$[ebp]
  000ba	57		 push	 edi
  000bb	50		 push	 eax
  000bc	e8 00 00 00 00	 call	 ?EndMapEffect@ioBaseChar@@QAEXK_N@Z ; ioBaseChar::EndMapEffect
$LN2@OnSkillEnd:

; 277  : 
; 278  : 	if( m_dwTargetCircleEffect != -1 )

  000c1	8b 83 4c 10 00
	00		 mov	 eax, DWORD PTR [ebx+4172]
  000c7	83 f8 ff	 cmp	 eax, -1
  000ca	74 0a		 je	 SHORT $LN1@OnSkillEnd

; 279  : 		pChar->EndMapEffect( m_dwTargetCircleEffect, false );

  000cc	8b 4d 08	 mov	 ecx, DWORD PTR _pChar$[ebp]
  000cf	57		 push	 edi
  000d0	50		 push	 eax
  000d1	e8 00 00 00 00	 call	 ?EndMapEffect@ioBaseChar@@QAEXK_N@Z ; ioBaseChar::EndMapEffect
$LN1@OnSkillEnd:

; 280  : 
; 281  : 	m_dwCurMapEffect = -1;
; 282  : 	m_dwTargetCircleEffect = -1;
; 283  : 
; 284  : 	pChar->DestroyMagicCircle();

  000d6	8b 4d f0	 mov	 ecx, DWORD PTR tv235[ebp]
  000d9	83 8b 48 10 00
	00 ff		 or	 DWORD PTR [ebx+4168], -1
  000e0	83 8b 4c 10 00
	00 ff		 or	 DWORD PTR [ebx+4172], -1
  000e7	e8 00 00 00 00	 call	 ?DestroyMagicCircle@ioBaseGUISupport@@QAEXXZ ; ioBaseGUISupport::DestroyMagicCircle

; 285  : 
; 286  : 	m_dwMotionEndTime = 0;
; 287  : 	m_dwMotionStartTime = 0;

  000ec	8d 45 08	 lea	 eax, DWORD PTR _value$577207[ebp]
  000ef	50		 push	 eax
  000f0	8d 8b a8 02 00
	00		 lea	 ecx, DWORD PTR [ebx+680]
  000f6	89 bb d8 02 00
	00		 mov	 DWORD PTR [ebx+728], edi
  000fc	89 7d 08	 mov	 DWORD PTR _value$577207[ebp], edi
  000ff	e8 00 00 00 00	 call	 ?EncryptValueToPool@?$CEncrypt@K@@AAEXPBD@Z ; CEncrypt<unsigned long>::EncryptValueToPool

; 288  : 
; 289  : 	m_dwCurSkillProtectedTime = 0;
; 290  : 
; 291  : 	m_State = SS_NONE;

  00104	8d 45 ec	 lea	 eax, DWORD PTR _value$577211[ebp]
  00107	50		 push	 eax
  00108	8d 8b 58 0f 00
	00		 lea	 ecx, DWORD PTR [ebx+3928]
  0010e	89 bb 28 11 00
	00		 mov	 DWORD PTR [ebx+4392], edi
  00114	89 7d ec	 mov	 DWORD PTR _value$577211[ebp], edi
  00117	e8 00 00 00 00	 call	 ?EncryptValueToPool@?$CEncrypt@H@@AAEXPBD@Z ; CEncrypt<int>::EncryptValueToPool

; 292  : }

  0011c	e8 00 00 00 00	 call	 __EH_epilog3
  00121	c2 04 00	 ret	 4
_TEXT	ENDS
;	COMDAT text$x
text$x	SEGMENT
__unwindfunclet$?OnSkillEnd@ioCircleMoveWeaponSkill@@UAEXPAVioBaseChar@@@Z$0:
  00000	8d 4d dc	 lea	 ecx, DWORD PTR $T577202[ebp]
  00003	ff 25 00 00 00
	00		 jmp	 DWORD PTR __imp_??1ioHashString@@QAE@XZ
__ehhandler$?OnSkillEnd@ioCircleMoveWeaponSkill@@UAEXPAVioBaseChar@@@Z:
  00009	8b 54 24 08	 mov	 edx, DWORD PTR [esp+8]
  0000d	8d 42 0c	 lea	 eax, DWORD PTR [edx+12]
  00010	8b 4a d8	 mov	 ecx, DWORD PTR [edx-40]
  00013	33 c8		 xor	 ecx, eax
  00015	e8 00 00 00 00	 call	 @__security_check_cookie@4
  0001a	b8 00 00 00 00	 mov	 eax, OFFSET __ehfuncinfo$?OnSkillEnd@ioCircleMoveWeaponSkill@@UAEXPAVioBaseChar@@@Z
  0001f	e9 00 00 00 00	 jmp	 ___CxxFrameHandler3
text$x	ENDS
?OnSkillEnd@ioCircleMoveWeaponSkill@@UAEXPAVioBaseChar@@@Z ENDP ; ioCircleMoveWeaponSkill::OnSkillEnd
PUBLIC	__real@41f0000000000000
PUBLIC	_pChar$GSCopy$
PUBLIC	?SetNormalSkill@ioCircleMoveWeaponSkill@@MAEXPAVioBaseChar@@@Z ; ioCircleMoveWeaponSkill::SetNormalSkill
EXTRN	?ReduceNeedGaugeBySkill@ioBaseChar@@QAEMPAVioSkill@@M@Z:PROC ; ioBaseChar::ReduceNeedGaugeBySkill
EXTRN	?GetNeedGauge@ioSkill@@QAEMABVioHashString@@@Z:PROC ; ioSkill::GetNeedGauge
EXTRN	?AttachEffect@ioBaseChar@@QAEPAVioEffect@@ABVioHashString@@PAVioEntityEvent@@_N@Z:PROC ; ioBaseChar::AttachEffect
EXTRN	__imp_?GetAnimationFullTime@ioEntityGroup@@QAEMH@Z:PROC
EXTRN	__imp_?GetLoopSec@ioFrameTimer@@QBEKXZ:PROC
EXTRN	__imp_?GetSingleton@ioFrameTimer@@SAAAV1@XZ:PROC
EXTRN	?RefreshFireTimeListWithBase@ioBaseChar@@QAEXKHABV?$vector@UWeaponInfo@@V?$allocator@UWeaponInfo@@@std@@@std@@W4FireTimeType@@MK_N@Z:PROC ; ioBaseChar::RefreshFireTimeListWithBase
EXTRN	__imp_?SetActionAni@ioEntityGroup@@QAE_NHMMMMMM_N0@Z:PROC
EXTRN	__imp_?ClearAllActionAni@ioEntityGroup@@QAEXM_N@Z:PROC
EXTRN	__imp_?ClearAllLoopAni@ioEntityGroup@@QAEXM_N@Z:PROC
EXTRN	__imp_?GetAnimationIdx@ioEntityGroup@@QAEHABVioHashString@@@Z:PROC
;	COMDAT __real@41f0000000000000
; File d:\lost saga for developer\youtube\tutorial\source\src\lsclient\iobasechar.h
CONST	SEGMENT
__real@41f0000000000000 DQ 041f0000000000000r	; 4.29497e+009
CONST	ENDS
;	COMDAT xdata$x
xdata$x	SEGMENT
__unwindtable$?SetNormalSkill@ioCircleMoveWeaponSkill@@MAEXPAVioBaseChar@@@Z DD 0ffffffffH
	DD	FLAT:__unwindfunclet$?SetNormalSkill@ioCircleMoveWeaponSkill@@MAEXPAVioBaseChar@@@Z$0
	DD	00H
	DD	FLAT:__unwindfunclet$?SetNormalSkill@ioCircleMoveWeaponSkill@@MAEXPAVioBaseChar@@@Z$1
__ehfuncinfo$?SetNormalSkill@ioCircleMoveWeaponSkill@@MAEXPAVioBaseChar@@@Z DD 019930522H
	DD	02H
	DD	FLAT:__unwindtable$?SetNormalSkill@ioCircleMoveWeaponSkill@@MAEXPAVioBaseChar@@@Z
	DD	2 DUP(00H)
	DD	2 DUP(00H)
	DD	00H
	DD	01H
; Function compile flags: /Ogsp
; File d:\lost saga for developer\youtube\tutorial\source\src\lsclient\iocirclemoveweaponskill.cpp
xdata$x	ENDS
;	COMDAT ?SetNormalSkill@ioCircleMoveWeaponSkill@@MAEXPAVioBaseChar@@@Z
_TEXT	SEGMENT
$T577373 = -92						; size = 16
_pChar$GSCopy$ = -76					; size = 4
tv1223 = -72						; size = 4
tv1220 = -72						; size = 4
tv1218 = -72						; size = 4
_szSkillMotion$ = -68					; size = 16
_iCurSkillAniID$ = -52					; size = 4
tv1182 = -48						; size = 4
$T577372 = -48						; size = 4
_pGrp$ = -48						; size = 4
_fTimeRate$ = -44					; size = 4
_fAniRate$ = -44					; size = 4
tv1236 = -40						; size = 4
tv1231 = -40						; size = 4
tv1216 = -40						; size = 4
tv1214 = -40						; size = 4
_value$577254 = -40					; size = 4
$T577246 = -40						; size = 4
$T577222 = -40						; size = 4
_szEncEventType$577273 = -36				; size = 13
__$EHRec$ = -12						; size = 12
_pChar$ = 8						; size = 4
?SetNormalSkill@ioCircleMoveWeaponSkill@@MAEXPAVioBaseChar@@@Z PROC ; ioCircleMoveWeaponSkill::SetNormalSkill, COMDAT
; _this$ = ecx

; 350  : {

  00000	6a 50		 push	 80			; 00000050H
  00002	b8 00 00 00 00	 mov	 eax, __ehhandler$?SetNormalSkill@ioCircleMoveWeaponSkill@@MAEXPAVioBaseChar@@@Z
  00007	e8 00 00 00 00	 call	 __EH_prolog3_GS
  0000c	8b 5d 08	 mov	 ebx, DWORD PTR _pChar$[ebp]

; 351  : 	ioEntityGroup *pGrp = pChar->GetGroup();

  0000f	8b 7b 04	 mov	 edi, DWORD PTR [ebx+4]
  00012	8b f1		 mov	 esi, ecx

; 352  : 	ioHashString szSkillMotion = GetSkillMotionName();

  00014	8b 06		 mov	 eax, DWORD PTR [esi]
  00016	89 5d b4	 mov	 DWORD PTR _pChar$GSCopy$[ebp], ebx
  00019	89 7d d0	 mov	 DWORD PTR _pGrp$[ebp], edi
  0001c	ff 90 20 01 00
	00		 call	 DWORD PTR [eax+288]
  00022	50		 push	 eax
  00023	8d 4d bc	 lea	 ecx, DWORD PTR _szSkillMotion$[ebp]
  00026	ff 15 00 00 00
	00		 call	 DWORD PTR __imp_??0ioHashString@@QAE@ABV0@@Z
  0002c	83 65 fc 00	 and	 DWORD PTR __$EHRec$[ebp+8], 0

; 353  : 
; 354  : 	int iCurSkillAniID = pGrp->GetAnimationIdx( szSkillMotion );

  00030	8d 45 bc	 lea	 eax, DWORD PTR _szSkillMotion$[ebp]
  00033	50		 push	 eax
  00034	8b cf		 mov	 ecx, edi
  00036	ff 15 00 00 00
	00		 call	 DWORD PTR __imp_?GetAnimationIdx@ioEntityGroup@@QAEHABVioHashString@@@Z
  0003c	89 45 cc	 mov	 DWORD PTR _iCurSkillAniID$[ebp], eax

; 355  : 	if( iCurSkillAniID == -1 )	return;

  0003f	83 f8 ff	 cmp	 eax, -1
  00042	75 11		 jne	 SHORT $LN1@SetNormalS
  00044	09 45 fc	 or	 DWORD PTR __$EHRec$[ebp+8], eax
  00047	8d 4d bc	 lea	 ecx, DWORD PTR _szSkillMotion$[ebp]
  0004a	ff 15 00 00 00
	00		 call	 DWORD PTR __imp_??1ioHashString@@QAE@XZ
  00050	e9 3a 02 00 00	 jmp	 $LN2@SetNormalS
$LN1@SetNormalS:

; 356  : 
; 357  : 	float fAniRate = GetSkillMotionRate();

  00055	8b 06		 mov	 eax, DWORD PTR [esi]
  00057	8b ce		 mov	 ecx, esi
  00059	ff 90 28 01 00
	00		 call	 DWORD PTR [eax+296]
  0005f	d9 5d d4	 fstp	 DWORD PTR _fAniRate$[ebp]

; 358  : 
; 359  : 	float fTimeRate = fAniRate * m_fExtraAniRate;

  00062	d9 86 68 03 00
	00		 fld	 DWORD PTR [esi+872]
  00068	d8 4d d4	 fmul	 DWORD PTR _fAniRate$[ebp]
  0006b	d9 5d d4	 fstp	 DWORD PTR _fTimeRate$[ebp]

; 360  : 	
; 361  : 	pGrp->ClearAllLoopAni( FLOAT100, true );

  0006e	b8 64 00 00 00	 mov	 eax, 100		; 00000064H
  00073	89 45 d8	 mov	 DWORD PTR tv1236[ebp], eax
  00076	db 45 d8	 fild	 DWORD PTR tv1236[ebp]
  00079	6a 01		 push	 1
  0007b	85 c0		 test	 eax, eax
  0007d	79 06		 jns	 SHORT $LN135@SetNormalS
  0007f	d8 05 00 00 00
	00		 fadd	 DWORD PTR __real@4f800000
$LN135@SetNormalS:
  00085	51		 push	 ecx
  00086	8b cf		 mov	 ecx, edi
  00088	d9 1c 24	 fstp	 DWORD PTR [esp]
  0008b	ff 15 00 00 00
	00		 call	 DWORD PTR __imp_?ClearAllLoopAni@ioEntityGroup@@QAEXM_N@Z

; 362  : 	pGrp->ClearAllActionAni( FLOAT100, true );

  00091	b8 64 00 00 00	 mov	 eax, 100		; 00000064H
  00096	89 45 d8	 mov	 DWORD PTR tv1231[ebp], eax
  00099	db 45 d8	 fild	 DWORD PTR tv1231[ebp]
  0009c	6a 01		 push	 1
  0009e	85 c0		 test	 eax, eax
  000a0	79 06		 jns	 SHORT $LN136@SetNormalS
  000a2	d8 05 00 00 00
	00		 fadd	 DWORD PTR __real@4f800000
$LN136@SetNormalS:
  000a8	51		 push	 ecx
  000a9	8b cf		 mov	 ecx, edi
  000ab	d9 1c 24	 fstp	 DWORD PTR [esp]
  000ae	ff 15 00 00 00
	00		 call	 DWORD PTR __imp_?ClearAllActionAni@ioEntityGroup@@QAEXM_N@Z

; 363  : 	pGrp->SetActionAni( iCurSkillAniID, FLOAT100, FLOAT100, FLOAT1, FLOAT1/fTimeRate );

  000b4	b8 01 00 00 00	 mov	 eax, 1
  000b9	8b c8		 mov	 ecx, eax
  000bb	b8 01 00 00 00	 mov	 eax, 1
  000c0	8b d0		 mov	 edx, eax
  000c2	b8 64 00 00 00	 mov	 eax, 100		; 00000064H
  000c7	89 45 d8	 mov	 DWORD PTR $T577246[ebp], eax
  000ca	b8 64 00 00 00	 mov	 eax, 100		; 00000064H
  000cf	0f 57 c0	 xorps	 xmm0, xmm0
  000d2	6a 01		 push	 1
  000d4	6a 00		 push	 0
  000d6	83 ec 18	 sub	 esp, 24			; 00000018H
  000d9	89 4d b8	 mov	 DWORD PTR tv1223[ebp], ecx
  000dc	db 45 b8	 fild	 DWORD PTR tv1223[ebp]
  000df	f3 0f 11 44 24
	14		 movss	 DWORD PTR [esp+20], xmm0
  000e5	f3 0f 11 44 24
	10		 movss	 DWORD PTR [esp+16], xmm0
  000eb	85 c9		 test	 ecx, ecx
  000ed	79 06		 jns	 SHORT $LN137@SetNormalS
  000ef	d8 05 00 00 00
	00		 fadd	 DWORD PTR __real@4f800000
$LN137@SetNormalS:
  000f5	d8 75 d4	 fdiv	 DWORD PTR _fTimeRate$[ebp]
  000f8	d9 5d b8	 fstp	 DWORD PTR tv1220[ebp]
  000fb	d9 45 b8	 fld	 DWORD PTR tv1220[ebp]
  000fe	d9 5c 24 0c	 fstp	 DWORD PTR [esp+12]
  00102	89 55 b8	 mov	 DWORD PTR tv1218[ebp], edx
  00105	db 45 b8	 fild	 DWORD PTR tv1218[ebp]
  00108	85 d2		 test	 edx, edx
  0010a	79 06		 jns	 SHORT $LN138@SetNormalS
  0010c	d8 05 00 00 00
	00		 fadd	 DWORD PTR __real@4f800000
$LN138@SetNormalS:
  00112	8b 4d d8	 mov	 ecx, DWORD PTR $T577246[ebp]
  00115	d9 5c 24 08	 fstp	 DWORD PTR [esp+8]
  00119	db 45 d8	 fild	 DWORD PTR $T577246[ebp]
  0011c	85 c9		 test	 ecx, ecx
  0011e	79 06		 jns	 SHORT $LN139@SetNormalS
  00120	d8 05 00 00 00
	00		 fadd	 DWORD PTR __real@4f800000
$LN139@SetNormalS:
  00126	d9 5c 24 04	 fstp	 DWORD PTR [esp+4]
  0012a	89 45 d8	 mov	 DWORD PTR tv1214[ebp], eax
  0012d	db 45 d8	 fild	 DWORD PTR tv1214[ebp]
  00130	85 c0		 test	 eax, eax
  00132	79 06		 jns	 SHORT $LN140@SetNormalS
  00134	d8 05 00 00 00
	00		 fadd	 DWORD PTR __real@4f800000
$LN140@SetNormalS:
  0013a	d9 1c 24	 fstp	 DWORD PTR [esp]
  0013d	ff 75 cc	 push	 DWORD PTR _iCurSkillAniID$[ebp]
  00140	8b cf		 mov	 ecx, edi
  00142	ff 15 00 00 00
	00		 call	 DWORD PTR __imp_?SetActionAni@ioEntityGroup@@QAE_NHMMMMMM_N0@Z

; 364  : 
; 365  : 	pChar->RefreshFireTimeListWithBase( m_dwWeaponBaseIndex,
; 366  : 										iCurSkillAniID,
; 367  : 										m_AttackAttribute.m_vWeaponInfoList,
; 368  : 										FTT_SKILL_ATTACK,
; 369  : 										fTimeRate,
; 370  : 										m_AttackAttribute.m_dwPreDelay );

  00148	f3 0f 10 45 d4	 movss	 xmm0, DWORD PTR _fTimeRate$[ebp]
  0014d	6a 00		 push	 0
  0014f	ff b6 d4 0f 00
	00		 push	 DWORD PTR [esi+4052]
  00155	8d 86 b4 0f 00
	00		 lea	 eax, DWORD PTR [esi+4020]
  0015b	51		 push	 ecx
  0015c	f3 0f 11 04 24	 movss	 DWORD PTR [esp], xmm0
  00161	6a 04		 push	 4
  00163	50		 push	 eax
  00164	ff 75 cc	 push	 DWORD PTR _iCurSkillAniID$[ebp]
  00167	8b cb		 mov	 ecx, ebx
  00169	ff 76 78	 push	 DWORD PTR [esi+120]
  0016c	e8 00 00 00 00	 call	 ?RefreshFireTimeListWithBase@ioBaseChar@@QAEXKHABV?$vector@UWeaponInfo@@V?$allocator@UWeaponInfo@@@std@@@std@@W4FireTimeType@@MK_N@Z ; ioBaseChar::RefreshFireTimeListWithBase

; 371  : 	
; 372  : 	DWORD dwCurTime = FRAMEGETTIME();

  00171	ff 15 00 00 00
	00		 call	 DWORD PTR __imp_?GetSingleton@ioFrameTimer@@SAAAV1@XZ
  00177	8b c8		 mov	 ecx, eax
  00179	ff 15 00 00 00
	00		 call	 DWORD PTR __imp_?GetLoopSec@ioFrameTimer@@QBEKXZ
  0017f	8b d8		 mov	 ebx, eax

; 373  : 	m_dwMotionStartTime = dwCurTime;

  00181	8d 45 d8	 lea	 eax, DWORD PTR _value$577254[ebp]
  00184	8d 8e a8 02 00
	00		 lea	 ecx, DWORD PTR [esi+680]
  0018a	50		 push	 eax
  0018b	89 5d d8	 mov	 DWORD PTR _value$577254[ebp], ebx
  0018e	e8 00 00 00 00	 call	 ?EncryptValueToPool@?$CEncrypt@K@@AAEXPBD@Z ; CEncrypt<unsigned long>::EncryptValueToPool

; 374  : 	m_dwMotionEndTime = m_dwMotionStartTime + pGrp->GetAnimationFullTime( iCurSkillAniID ) * fTimeRate;

  00193	ff 75 cc	 push	 DWORD PTR _iCurSkillAniID$[ebp]
  00196	8b cf		 mov	 ecx, edi
  00198	ff 15 00 00 00
	00		 call	 DWORD PTR __imp_?GetAnimationFullTime@ioEntityGroup@@QAEMH@Z
  0019e	d8 4d d4	 fmul	 DWORD PTR _fTimeRate$[ebp]
  001a1	8d 45 d8	 lea	 eax, DWORD PTR $T577222[ebp]
  001a4	50		 push	 eax
  001a5	8d 8e a8 02 00
	00		 lea	 ecx, DWORD PTR [esi+680]
  001ab	d9 5d d8	 fstp	 DWORD PTR $T577222[ebp]
  001ae	e8 00 00 00 00	 call	 ??H?$CEncrypt@K@@QAEKABM@Z ; CEncrypt<unsigned long>::operator+

; 375  : 	m_dwMotionEndTime += m_dwAnimationEndDelay;

  001b3	8b 8e 54 0f 00
	00		 mov	 ecx, DWORD PTR [esi+3924]
  001b9	03 c8		 add	 ecx, eax
  001bb	6a 03		 push	 3
  001bd	89 8e d8 02 00
	00		 mov	 DWORD PTR [esi+728], ecx

; 376  : 
; 377  : 	m_dwFireMotionEndTime = dwCurTime;

  001c3	89 9e 24 02 00
	00		 mov	 DWORD PTR [esi+548], ebx

; 378  : 	m_dwFireMotionEndTime += pGrp->GetAnimationEventTime_e( iCurSkillAniID, "firemotion_e" ) * fTimeRate;

  001c9	c7 45 dc 8b 85
	99 8f		 mov	 DWORD PTR _szEncEventType$577273[ebp], -1885764213 ; 8f99858bH
  001d0	c7 45 e0 80 83
	9f 83		 mov	 DWORD PTR _szEncEventType$577273[ebp+4], -2086698112 ; 839f8380H
  001d7	c7 45 e4 82 82
	b4 8f		 mov	 DWORD PTR _szEncEventType$577273[ebp+8], -1883995518 ; 8fb48282H
  001de	8d 45 dc	 lea	 eax, DWORD PTR _szEncEventType$577273[ebp]
  001e1	c6 45 e8 00	 mov	 BYTE PTR _szEncEventType$577273[ebp+12], 0
  001e5	59		 pop	 ecx
$LL125@SetNormalS:
  001e6	81 30 ed ec eb
	ea		 xor	 DWORD PTR [eax], -353637139 ; eaebecedH
  001ec	83 c0 04	 add	 eax, 4
  001ef	49		 dec	 ecx
  001f0	75 f4		 jne	 SHORT $LL125@SetNormalS
  001f2	8d 45 dc	 lea	 eax, DWORD PTR _szEncEventType$577273[ebp]
  001f5	50		 push	 eax
  001f6	8d 4d a4	 lea	 ecx, DWORD PTR $T577373[ebp]
  001f9	ff 15 00 00 00
	00		 call	 DWORD PTR __imp_??0ioHashString@@QAE@PBD@Z
  001ff	8b 4d d0	 mov	 ecx, DWORD PTR _pGrp$[ebp]
  00202	8d 45 a4	 lea	 eax, DWORD PTR $T577373[ebp]
  00205	50		 push	 eax
  00206	ff 75 cc	 push	 DWORD PTR _iCurSkillAniID$[ebp]
  00209	c6 45 fc 01	 mov	 BYTE PTR __$EHRec$[ebp+8], 1
  0020d	ff 15 00 00 00
	00		 call	 DWORD PTR __imp_?GetAnimationEventTime@ioEntityGroup@@QAEMHABVioHashString@@@Z
  00213	d9 5d d0	 fstp	 DWORD PTR $T577372[ebp]
  00216	8b 1d 00 00 00
	00		 mov	 ebx, DWORD PTR __imp_??1ioHashString@@QAE@XZ
  0021c	8d 4d a4	 lea	 ecx, DWORD PTR $T577373[ebp]
  0021f	c6 45 fc 00	 mov	 BYTE PTR __$EHRec$[ebp+8], 0
  00223	ff d3		 call	 ebx
  00225	d9 45 d0	 fld	 DWORD PTR $T577372[ebp]
  00228	8b 86 24 02 00
	00		 mov	 eax, DWORD PTR [esi+548]
  0022e	d8 4d d4	 fmul	 DWORD PTR _fTimeRate$[ebp]
  00231	db 86 24 02 00
	00		 fild	 DWORD PTR [esi+548]
  00237	85 c0		 test	 eax, eax
  00239	79 06		 jns	 SHORT $LN141@SetNormalS
  0023b	dc 05 00 00 00
	00		 fadd	 QWORD PTR __real@41f0000000000000
$LN141@SetNormalS:
  00241	de c1		 faddp	 ST(1), ST(0)
  00243	e8 00 00 00 00	 call	 __ftol2

; 379  : 
; 380  : 	pChar->AttachEffect( m_StartEffect );

  00248	8b 7d b4	 mov	 edi, DWORD PTR _pChar$GSCopy$[ebp]
  0024b	6a 01		 push	 1
  0024d	89 86 24 02 00
	00		 mov	 DWORD PTR [esi+548], eax
  00253	6a 00		 push	 0
  00255	8d 86 50 10 00
	00		 lea	 eax, DWORD PTR [esi+4176]
  0025b	50		 push	 eax
  0025c	8b cf		 mov	 ecx, edi
  0025e	e8 00 00 00 00	 call	 ?AttachEffect@ioBaseChar@@QAEPAVioEffect@@ABVioHashString@@PAVioEntityEvent@@_N@Z ; ioBaseChar::AttachEffect

; 381  : 
; 382  : 	pChar->ReduceNeedGaugeBySkill( this, GetNeedGauge(pChar->GetCharName()) );

  00263	8d 87 d4 02 00
	00		 lea	 eax, DWORD PTR [edi+724]
  00269	50		 push	 eax
  0026a	8b ce		 mov	 ecx, esi
  0026c	e8 00 00 00 00	 call	 ?GetNeedGauge@ioSkill@@QAEMABVioHashString@@@Z ; ioSkill::GetNeedGauge
  00271	51		 push	 ecx
  00272	d9 1c 24	 fstp	 DWORD PTR [esp]
  00275	56		 push	 esi
  00276	8b cf		 mov	 ecx, edi
  00278	e8 00 00 00 00	 call	 ?ReduceNeedGaugeBySkill@ioBaseChar@@QAEMPAVioSkill@@M@Z ; ioBaseChar::ReduceNeedGaugeBySkill
  0027d	dd d8		 fstp	 ST(0)

; 383  : 	m_bReduceGauge = true;
; 384  : }

  0027f	83 4d fc ff	 or	 DWORD PTR __$EHRec$[ebp+8], -1
  00283	8d 4d bc	 lea	 ecx, DWORD PTR _szSkillMotion$[ebp]
  00286	c6 86 50 03 00
	00 01		 mov	 BYTE PTR [esi+848], 1
  0028d	ff d3		 call	 ebx
$LN2@SetNormalS:
  0028f	e8 00 00 00 00	 call	 __EH_epilog3_GS
  00294	c2 04 00	 ret	 4
_TEXT	ENDS
;	COMDAT text$x
text$x	SEGMENT
__unwindfunclet$?SetNormalSkill@ioCircleMoveWeaponSkill@@MAEXPAVioBaseChar@@@Z$0:
  00000	8d 4d bc	 lea	 ecx, DWORD PTR _szSkillMotion$[ebp]
  00003	ff 25 00 00 00
	00		 jmp	 DWORD PTR __imp_??1ioHashString@@QAE@XZ
__unwindfunclet$?SetNormalSkill@ioCircleMoveWeaponSkill@@MAEXPAVioBaseChar@@@Z$1:
  00009	8d 4d a4	 lea	 ecx, DWORD PTR $T577373[ebp]
  0000c	ff 25 00 00 00
	00		 jmp	 DWORD PTR __imp_??1ioHashString@@QAE@XZ
__ehhandler$?SetNormalSkill@ioCircleMoveWeaponSkill@@MAEXPAVioBaseChar@@@Z:
  00012	8b 54 24 08	 mov	 edx, DWORD PTR [esp+8]
  00016	8d 42 0c	 lea	 eax, DWORD PTR [edx+12]
  00019	8b 4a a0	 mov	 ecx, DWORD PTR [edx-96]
  0001c	33 c8		 xor	 ecx, eax
  0001e	e8 00 00 00 00	 call	 @__security_check_cookie@4
  00023	8b 4a fc	 mov	 ecx, DWORD PTR [edx-4]
  00026	33 c8		 xor	 ecx, eax
  00028	e8 00 00 00 00	 call	 @__security_check_cookie@4
  0002d	b8 00 00 00 00	 mov	 eax, OFFSET __ehfuncinfo$?SetNormalSkill@ioCircleMoveWeaponSkill@@MAEXPAVioBaseChar@@@Z
  00032	e9 00 00 00 00	 jmp	 ___CxxFrameHandler3
text$x	ENDS
?SetNormalSkill@ioCircleMoveWeaponSkill@@MAEXPAVioBaseChar@@@Z ENDP ; ioCircleMoveWeaponSkill::SetNormalSkill
PUBLIC	__real@3f800000
PUBLIC	_pChar$GSCopy$
PUBLIC	?SetWaitState@ioCircleMoveWeaponSkill@@IAEXPAVioBaseChar@@@Z ; ioCircleMoveWeaponSkill::SetWaitState
EXTRN	?GetUniqueID@ioMapEffect@@QBEKXZ:PROC		; ioMapEffect::GetUniqueID
EXTRN	?CreateMapEffectBySkill@ioBaseChar@@QAEPAVioMapEffect@@ABVioHashString@@ABUD3DXVECTOR3@@AAU4@@Z:PROC ; ioBaseChar::CreateMapEffectBySkill
EXTRN	?CheckMagicCircle@ioBaseGUISupport@@QBE_NXZ:PROC ; ioBaseGUISupport::CheckMagicCircle
;	COMDAT __real@3f800000
; File c:\program files (x86)\microsoft directx sdk (june 2010)\include\d3dx9math.inl
CONST	SEGMENT
__real@3f800000 DD 03f800000r			; 1
CONST	ENDS
;	COMDAT xdata$x
xdata$x	SEGMENT
__unwindtable$?SetWaitState@ioCircleMoveWeaponSkill@@IAEXPAVioBaseChar@@@Z DD 0ffffffffH
	DD	FLAT:__unwindfunclet$?SetWaitState@ioCircleMoveWeaponSkill@@IAEXPAVioBaseChar@@@Z$0
__ehfuncinfo$?SetWaitState@ioCircleMoveWeaponSkill@@IAEXPAVioBaseChar@@@Z DD 019930522H
	DD	01H
	DD	FLAT:__unwindtable$?SetWaitState@ioCircleMoveWeaponSkill@@IAEXPAVioBaseChar@@@Z
	DD	2 DUP(00H)
	DD	2 DUP(00H)
	DD	00H
	DD	01H
; Function compile flags: /Ogsp
; File d:\lost saga for developer\youtube\tutorial\source\src\lsclient\iocirclemoveweaponskill.cpp
xdata$x	ENDS
;	COMDAT ?SetWaitState@ioCircleMoveWeaponSkill@@IAEXPAVioBaseChar@@@Z
_TEXT	SEGMENT
_szDummyCircle$569950 = -64				; size = 16
$T577412 = -48						; size = 12
_value$577416 = -36					; size = 4
_pChar$GSCopy$ = -32					; size = 4
_vPos$569952 = -28					; size = 12
__$EHRec$ = -12						; size = 12
_pChar$ = 8						; size = 4
?SetWaitState@ioCircleMoveWeaponSkill@@IAEXPAVioBaseChar@@@Z PROC ; ioCircleMoveWeaponSkill::SetWaitState, COMDAT
; _this$ = ecx

; 387  : {

  00000	6a 34		 push	 52			; 00000034H
  00002	b8 00 00 00 00	 mov	 eax, __ehhandler$?SetWaitState@ioCircleMoveWeaponSkill@@IAEXPAVioBaseChar@@@Z
  00007	e8 00 00 00 00	 call	 __EH_prolog3_GS
  0000c	8b 75 08	 mov	 esi, DWORD PTR _pChar$[ebp]
  0000f	8b d9		 mov	 ebx, ecx

; 388  : 	m_State = SS_WAIT;

  00011	8d 45 dc	 lea	 eax, DWORD PTR _value$577416[ebp]
  00014	50		 push	 eax
  00015	8d 8b 58 0f 00
	00		 lea	 ecx, DWORD PTR [ebx+3928]

; 402  : 		{
; 403  : 			if( m_dwTargetCircleEffect != -1 )

  0001b	89 75 e0	 mov	 DWORD PTR _pChar$GSCopy$[ebp], esi
  0001e	c7 45 dc 01 00
	00 00		 mov	 DWORD PTR _value$577416[ebp], 1
  00025	e8 00 00 00 00	 call	 ?EncryptValueToPool@?$CEncrypt@H@@AAEXPBD@Z ; CEncrypt<int>::EncryptValueToPool
  0002a	8d 8e cc 01 00
	00		 lea	 ecx, DWORD PTR [esi+460]
  00030	e8 00 00 00 00	 call	 ?CheckMagicCircle@ioBaseGUISupport@@QBE_NXZ ; ioBaseGUISupport::CheckMagicCircle
  00035	84 c0		 test	 al, al
  00037	75 43		 jne	 SHORT $LN4@SetWaitSta

; 389  : 
; 390  : 	if( !pChar->CheckMagicCircle() )
; 391  : 	{
; 392  : 		ioHashString szDummyCircle;

  00039	8d 4d c0	 lea	 ecx, DWORD PTR _szDummyCircle$569950[ebp]
  0003c	ff 15 00 00 00
	00		 call	 DWORD PTR __imp_??0ioHashString@@QAE@XZ

; 393  : 		pChar->CreateMagicCircle( m_ReadyCircle, m_ReadyCircle, szDummyCircle, m_fCircleOffSet );

  00042	f3 0f 10 83 e8
	0f 00 00	 movss	 xmm0, DWORD PTR [ebx+4072]
  0004a	8b 96 cc 01 00
	00		 mov	 edx, DWORD PTR [esi+460]
  00050	83 65 fc 00	 and	 DWORD PTR __$EHRec$[ebp+8], 0
  00054	51		 push	 ecx
  00055	f3 0f 11 04 24	 movss	 DWORD PTR [esp], xmm0
  0005a	8d 4d c0	 lea	 ecx, DWORD PTR _szDummyCircle$569950[ebp]
  0005d	51		 push	 ecx
  0005e	8d 83 08 10 00
	00		 lea	 eax, DWORD PTR [ebx+4104]
  00064	50		 push	 eax
  00065	50		 push	 eax
  00066	8d 8e cc 01 00
	00		 lea	 ecx, DWORD PTR [esi+460]
  0006c	ff 52 04	 call	 DWORD PTR [edx+4]

; 394  : 	}

  0006f	83 4d fc ff	 or	 DWORD PTR __$EHRec$[ebp+8], -1
  00073	8d 4d c0	 lea	 ecx, DWORD PTR _szDummyCircle$569950[ebp]
  00076	ff 15 00 00 00
	00		 call	 DWORD PTR __imp_??1ioHashString@@QAE@XZ
$LN4@SetWaitSta:

; 395  : 
; 396  : 	if( !m_TargetCircleEffect.IsEmpty() )

  0007c	8d 8b 18 10 00
	00		 lea	 ecx, DWORD PTR [ebx+4120]
  00082	ff 15 00 00 00
	00		 call	 DWORD PTR __imp_?IsEmpty@ioHashString@@QBE_NXZ
  00088	84 c0		 test	 al, al
  0008a	75 66		 jne	 SHORT $LN2@SetWaitSta

; 397  : 	{
; 398  : 		D3DXVECTOR3 vPos = pChar->GetWorldPosition();

  0008c	8b 06		 mov	 eax, DWORD PTR [esi]
  0008e	8b ce		 mov	 ecx, esi
  00090	ff 50 70	 call	 DWORD PTR [eax+112]

; 399  : 		ioMapEffect *pMapEffect = pChar->CreateMapEffectBySkill( m_TargetCircleEffect, vPos );

  00093	f3 0f 10 05 00
	00 00 00	 movss	 xmm0, DWORD PTR __real@3f800000
  0009b	8b 4d e0	 mov	 ecx, DWORD PTR _pChar$GSCopy$[ebp]
  0009e	8b f0		 mov	 esi, eax
  000a0	8d 7d e4	 lea	 edi, DWORD PTR _vPos$569952[ebp]
  000a3	a5		 movsd
  000a4	8d 45 d0	 lea	 eax, DWORD PTR $T577412[ebp]
  000a7	50		 push	 eax
  000a8	8d 45 e4	 lea	 eax, DWORD PTR _vPos$569952[ebp]
  000ab	a5		 movsd
  000ac	50		 push	 eax
  000ad	8d 83 18 10 00
	00		 lea	 eax, DWORD PTR [ebx+4120]
  000b3	50		 push	 eax
  000b4	a5		 movsd
  000b5	f3 0f 11 45 d0	 movss	 DWORD PTR $T577412[ebp], xmm0
  000ba	f3 0f 11 45 d4	 movss	 DWORD PTR $T577412[ebp+4], xmm0
  000bf	f3 0f 11 45 d8	 movss	 DWORD PTR $T577412[ebp+8], xmm0
  000c4	e8 00 00 00 00	 call	 ?CreateMapEffectBySkill@ioBaseChar@@QAEPAVioMapEffect@@ABVioHashString@@ABUD3DXVECTOR3@@AAU4@@Z ; ioBaseChar::CreateMapEffectBySkill
  000c9	8b f0		 mov	 esi, eax

; 400  : 
; 401  : 		if( pMapEffect )

  000cb	85 f6		 test	 esi, esi
  000cd	74 23		 je	 SHORT $LN2@SetWaitSta

; 402  : 		{
; 403  : 			if( m_dwTargetCircleEffect != -1 )

  000cf	8b 83 4c 10 00
	00		 mov	 eax, DWORD PTR [ebx+4172]
  000d5	83 f8 ff	 cmp	 eax, -1
  000d8	74 0b		 je	 SHORT $LN1@SetWaitSta

; 404  : 				pChar->EndMapEffect( m_dwTargetCircleEffect, false );

  000da	8b 4d e0	 mov	 ecx, DWORD PTR _pChar$GSCopy$[ebp]
  000dd	6a 00		 push	 0
  000df	50		 push	 eax
  000e0	e8 00 00 00 00	 call	 ?EndMapEffect@ioBaseChar@@QAEXK_N@Z ; ioBaseChar::EndMapEffect
$LN1@SetWaitSta:

; 405  : 
; 406  : 			m_dwTargetCircleEffect = pMapEffect->GetUniqueID();

  000e5	8b ce		 mov	 ecx, esi
  000e7	e8 00 00 00 00	 call	 ?GetUniqueID@ioMapEffect@@QBEKXZ ; ioMapEffect::GetUniqueID
  000ec	89 83 4c 10 00
	00		 mov	 DWORD PTR [ebx+4172], eax
$LN2@SetWaitSta:

; 407  : 		}
; 408  : 	}
; 409  : }

  000f2	e8 00 00 00 00	 call	 __EH_epilog3_GS
  000f7	c2 04 00	 ret	 4
_TEXT	ENDS
;	COMDAT text$x
text$x	SEGMENT
__unwindfunclet$?SetWaitState@ioCircleMoveWeaponSkill@@IAEXPAVioBaseChar@@@Z$0:
  00000	8d 4d c0	 lea	 ecx, DWORD PTR _szDummyCircle$569950[ebp]
  00003	ff 25 00 00 00
	00		 jmp	 DWORD PTR __imp_??1ioHashString@@QAE@XZ
__ehhandler$?SetWaitState@ioCircleMoveWeaponSkill@@IAEXPAVioBaseChar@@@Z:
  00009	8b 54 24 08	 mov	 edx, DWORD PTR [esp+8]
  0000d	8d 42 0c	 lea	 eax, DWORD PTR [edx+12]
  00010	8b 4a bc	 mov	 ecx, DWORD PTR [edx-68]
  00013	33 c8		 xor	 ecx, eax
  00015	e8 00 00 00 00	 call	 @__security_check_cookie@4
  0001a	8b 4a fc	 mov	 ecx, DWORD PTR [edx-4]
  0001d	33 c8		 xor	 ecx, eax
  0001f	e8 00 00 00 00	 call	 @__security_check_cookie@4
  00024	b8 00 00 00 00	 mov	 eax, OFFSET __ehfuncinfo$?SetWaitState@ioCircleMoveWeaponSkill@@IAEXPAVioBaseChar@@@Z
  00029	e9 00 00 00 00	 jmp	 ___CxxFrameHandler3
text$x	ENDS
?SetWaitState@ioCircleMoveWeaponSkill@@IAEXPAVioBaseChar@@@Z ENDP ; ioCircleMoveWeaponSkill::SetWaitState
PUBLIC	?IsProtected@ioCircleMoveWeaponSkill@@UBE_NH@Z	; ioCircleMoveWeaponSkill::IsProtected
; Function compile flags: /Ogsp
;	COMDAT ?IsProtected@ioCircleMoveWeaponSkill@@UBE_NH@Z
_TEXT	SEGMENT
_value$577435 = -1					; size = 1
_iDefenseBreakType$ = 8					; size = 4
?IsProtected@ioCircleMoveWeaponSkill@@UBE_NH@Z PROC	; ioCircleMoveWeaponSkill::IsProtected, COMDAT
; _this$ = ecx

; 570  : {

  00000	55		 push	 ebp
  00001	8b ec		 mov	 ebp, esp
  00003	51		 push	 ecx
  00004	56		 push	 esi
  00005	8b f1		 mov	 esi, ecx

; 571  : 	if( m_bDisableSkillProtect )

  00007	8d 45 ff	 lea	 eax, DWORD PTR _value$577435[ebp]
  0000a	50		 push	 eax
  0000b	8d 8e a8 00 00
	00		 lea	 ecx, DWORD PTR [esi+168]
  00011	e8 00 00 00 00	 call	 ?DecryptValueToPool@?$CEncrypt@_N@@QAEXPA_N@Z ; CEncrypt<bool>::DecryptValueToPool
  00016	80 7d ff 00	 cmp	 BYTE PTR _value$577435[ebp], 0
  0001a	74 04		 je	 SHORT $LN9@IsProtecte

; 572  : 		return false;

  0001c	32 c0		 xor	 al, al
  0001e	eb 67		 jmp	 SHORT $LN10@IsProtecte
$LN9@IsProtecte:
  00020	57		 push	 edi

; 573  : 
; 574  : 	DWORD dwCurTime = FRAMEGETTIME();

  00021	ff 15 00 00 00
	00		 call	 DWORD PTR __imp_?GetSingleton@ioFrameTimer@@SAAAV1@XZ
  00027	8b c8		 mov	 ecx, eax
  00029	ff 15 00 00 00
	00		 call	 DWORD PTR __imp_?GetLoopSec@ioFrameTimer@@QBEKXZ
  0002f	8b f8		 mov	 edi, eax

; 575  : 	if( DBT_NONE != (DefenseBreakType)m_ProtectCancelType )

  00031	8b 86 a4 00 00
	00		 mov	 eax, DWORD PTR [esi+164]
  00037	85 c0		 test	 eax, eax
  00039	74 05		 je	 SHORT $LN7@IsProtecte

; 576  : 	{
; 577  : 		if( iDefenseBreakType == m_ProtectCancelType )   //   

  0003b	39 45 08	 cmp	 DWORD PTR _iDefenseBreakType$[ebp], eax

; 578  : 			return false;

  0003e	74 44		 je	 SHORT $LN1@IsProtecte
$LN7@IsProtecte:

; 579  : 	}
; 580  : 
; 581  : 	if( m_dwCurSkillProtectedTime < dwCurTime && dwCurTime < m_dwCurSkillProtectedTime + m_dwSkillProtectedTime )

  00040	8b 86 28 11 00
	00		 mov	 eax, DWORD PTR [esi+4392]
  00046	3b c7		 cmp	 eax, edi
  00048	73 0c		 jae	 SHORT $LN6@IsProtecte
  0004a	8b 8e 24 11 00
	00		 mov	 ecx, DWORD PTR [esi+4388]
  00050	03 c8		 add	 ecx, eax
  00052	3b f9		 cmp	 edi, ecx

; 582  : 	{
; 583  : 		return true;

  00054	72 2a		 jb	 SHORT $LN17@IsProtecte
$LN6@IsProtecte:

; 584  : 	}
; 585  : 	else
; 586  : 	{
; 587  : 		if( IsPreDelayProtect() )

  00056	8b 06		 mov	 eax, DWORD PTR [esi]
  00058	8b ce		 mov	 ecx, esi
  0005a	ff 90 2c 01 00
	00		 call	 DWORD PTR [eax+300]
  00060	84 c0		 test	 al, al
  00062	74 0b		 je	 SHORT $LN3@IsProtecte

; 588  : 		{
; 589  : 			if( m_dwPreDelayStartTime != 0 )

  00064	83 be 20 02 00
	00 00		 cmp	 DWORD PTR [esi+544], 0
  0006b	74 0b		 je	 SHORT $LN16@IsProtecte

; 590  : 				return true;

  0006d	eb 11		 jmp	 SHORT $LN17@IsProtecte
$LN3@IsProtecte:

; 591  : 		}
; 592  : 
; 593  : 		if( m_dwPreDelayStartTime == 0 )

  0006f	83 be 20 02 00
	00 00		 cmp	 DWORD PTR [esi+544], 0
  00076	75 0c		 jne	 SHORT $LN1@IsProtecte
$LN16@IsProtecte:

; 594  : 		{
; 595  : 			if( m_dwFireMotionEndTime > dwCurTime )

  00078	39 be 24 02 00
	00		 cmp	 DWORD PTR [esi+548], edi
  0007e	76 04		 jbe	 SHORT $LN1@IsProtecte
$LN17@IsProtecte:

; 596  : 				return true;

  00080	b0 01		 mov	 al, 1
  00082	eb 02		 jmp	 SHORT $LN14@IsProtecte
$LN1@IsProtecte:

; 597  : 		}
; 598  : 	}
; 599  : 
; 600  : 	return false;

  00084	32 c0		 xor	 al, al
$LN14@IsProtecte:
  00086	5f		 pop	 edi
$LN10@IsProtecte:
  00087	5e		 pop	 esi

; 601  : }

  00088	c9		 leave
  00089	c2 04 00	 ret	 4
?IsProtected@ioCircleMoveWeaponSkill@@UBE_NH@Z ENDP	; ioCircleMoveWeaponSkill::IsProtected
_TEXT	ENDS
PUBLIC	?IsSkillMotionEnd@ioCircleMoveWeaponSkill@@UBE_NKPAVioBaseChar@@@Z ; ioCircleMoveWeaponSkill::IsSkillMotionEnd
; Function compile flags: /Ogsp
;	COMDAT ?IsSkillMotionEnd@ioCircleMoveWeaponSkill@@UBE_NKPAVioBaseChar@@@Z
_TEXT	SEGMENT
_value$577446 = -4					; size = 4
_dwActionStop$ = 8					; size = 4
_pOwner$ = 12						; size = 4
?IsSkillMotionEnd@ioCircleMoveWeaponSkill@@UBE_NKPAVioBaseChar@@@Z PROC ; ioCircleMoveWeaponSkill::IsSkillMotionEnd, COMDAT
; _this$ = ecx

; 604  : {

  00000	55		 push	 ebp
  00001	8b ec		 mov	 ebp, esp
  00003	51		 push	 ecx
  00004	56		 push	 esi
  00005	8b f1		 mov	 esi, ecx

; 605  : 	if( m_State != SS_ACTION )

  00007	8d 45 fc	 lea	 eax, DWORD PTR _value$577446[ebp]
  0000a	50		 push	 eax
  0000b	8d 8e 58 0f 00
	00		 lea	 ecx, DWORD PTR [esi+3928]
  00011	e8 00 00 00 00	 call	 ?DecryptValueToPool@?$CEncrypt@H@@QAEXPAH@Z ; CEncrypt<int>::DecryptValueToPool
  00016	83 7d fc 02	 cmp	 DWORD PTR _value$577446[ebp], 2
  0001a	74 04		 je	 SHORT $LN2@IsSkillMot

; 606  : 		return false;

  0001c	32 c0		 xor	 al, al
  0001e	eb 1c		 jmp	 SHORT $LN1@IsSkillMot
$LN2@IsSkillMot:

; 607  : 
; 608  : 	if( m_dwMotionEndTime + dwActionStop < FRAMEGETTIME() )

  00020	ff 15 00 00 00
	00		 call	 DWORD PTR __imp_?GetSingleton@ioFrameTimer@@SAAAV1@XZ
  00026	8b c8		 mov	 ecx, eax
  00028	ff 15 00 00 00
	00		 call	 DWORD PTR __imp_?GetLoopSec@ioFrameTimer@@QBEKXZ
  0002e	8b 8e d8 02 00
	00		 mov	 ecx, DWORD PTR [esi+728]
  00034	03 4d 08	 add	 ecx, DWORD PTR _dwActionStop$[ebp]
  00037	3b c8		 cmp	 ecx, eax
  00039	0f 92 c0	 setb	 al
$LN1@IsSkillMot:
  0003c	5e		 pop	 esi

; 609  : 	{
; 610  : 		return true;
; 611  : 	}
; 612  : 	
; 613  : 	return false;
; 614  : }

  0003d	c9		 leave
  0003e	c2 08 00	 ret	 8
?IsSkillMotionEnd@ioCircleMoveWeaponSkill@@UBE_NKPAVioBaseChar@@@Z ENDP ; ioCircleMoveWeaponSkill::IsSkillMotionEnd
_TEXT	ENDS
PUBLIC	?ProcessAction@ioCircleMoveWeaponSkill@@IAEXPAVioBaseChar@@@Z ; ioCircleMoveWeaponSkill::ProcessAction
; Function compile flags: /Ogsp
;	COMDAT ?ProcessAction@ioCircleMoveWeaponSkill@@IAEXPAVioBaseChar@@@Z
_TEXT	SEGMENT
_value$577454 = 8					; size = 4
_pChar$ = 8						; size = 4
?ProcessAction@ioCircleMoveWeaponSkill@@IAEXPAVioBaseChar@@@Z PROC ; ioCircleMoveWeaponSkill::ProcessAction, COMDAT
; _this$ = ecx

; 622  : {

  00000	55		 push	 ebp
  00001	8b ec		 mov	 ebp, esp

; 623  : 	if( !pChar ) return;

  00003	83 7d 08 00	 cmp	 DWORD PTR _pChar$[ebp], 0
  00007	74 0f		 je	 SHORT $LN1@ProcessAct

; 624  : 	if( m_State != SS_ACTION ) return;

  00009	8d 45 08	 lea	 eax, DWORD PTR _value$577454[ebp]
  0000c	50		 push	 eax
  0000d	81 c1 58 0f 00
	00		 add	 ecx, 3928		; 00000f58H
  00013	e8 00 00 00 00	 call	 ?DecryptValueToPool@?$CEncrypt@H@@QAEXPAH@Z ; CEncrypt<int>::DecryptValueToPool
$LN1@ProcessAct:

; 625  : }

  00018	5d		 pop	 ebp
  00019	c2 04 00	 ret	 4
?ProcessAction@ioCircleMoveWeaponSkill@@IAEXPAVioBaseChar@@@Z ENDP ; ioCircleMoveWeaponSkill::ProcessAction
_TEXT	ENDS
PUBLIC	__real@00000000
PUBLIC	?GetFlightDuration@ioCircleMoveWeaponSkill@@IAEMMM@Z ; ioCircleMoveWeaponSkill::GetFlightDuration
;	COMDAT __real@00000000
; File d:\lost saga for developer\youtube\tutorial\source\src\lsclient\stdafx.h
CONST	SEGMENT
__real@00000000 DD 000000000r			; 0
; Function compile flags: /Ogsp
; File d:\lost saga for developer\youtube\tutorial\source\src\lsclient\iocirclemoveweaponskill.cpp
CONST	ENDS
;	COMDAT ?GetFlightDuration@ioCircleMoveWeaponSkill@@IAEMMM@Z
_TEXT	SEGMENT
_value$577460 = -8					; size = 4
_fTopTime$ = -4						; size = 4
tv194 = 8						; size = 4
tv169 = 8						; size = 4
_fCurGravity$ = 8					; size = 4
_fCurWeaponFloatPower$ = 12				; size = 4
?GetFlightDuration@ioCircleMoveWeaponSkill@@IAEMMM@Z PROC ; ioCircleMoveWeaponSkill::GetFlightDuration, COMDAT
; _this$ = ecx

; 669  : {

  00000	55		 push	 ebp
  00001	8b ec		 mov	 ebp, esp
  00003	51		 push	 ecx
  00004	51		 push	 ecx

; 670  : 	float fTopTime, fTopHeight;
; 671  : 	fTopTime = fTopHeight = 0.0f;

  00005	0f 57 c0	 xorps	 xmm0, xmm0

; 672  : 
; 673  : 	float fNewGravity = fCurGravity * m_fSkillGravityRate;

  00008	8d 45 f8	 lea	 eax, DWORD PTR _value$577460[ebp]
  0000b	50		 push	 eax
  0000c	81 c1 88 06 00
	00		 add	 ecx, 1672		; 00000688H
  00012	f3 0f 11 45 fc	 movss	 DWORD PTR _fTopTime$[ebp], xmm0
  00017	e8 00 00 00 00	 call	 ?DecryptValueToPool@?$CEncrypt@M@@QAEXPAM@Z ; CEncrypt<float>::DecryptValueToPool
  0001c	f3 0f 10 45 f8	 movss	 xmm0, DWORD PTR _value$577460[ebp]
  00021	f3 0f 10 4d 08	 movss	 xmm1, DWORD PTR _fCurGravity$[ebp]
  00026	0f 5a c0	 cvtps2pd xmm0, xmm0
  00029	0f 5a c9	 cvtps2pd xmm1, xmm1
  0002c	f2 0f 59 c1	 mulsd	 xmm0, xmm1
  00030	66 0f 5a c0	 cvtpd2ps xmm0, xmm0

; 674  : 	if( fNewGravity > 0.0f )

  00034	0f 2f 05 00 00
	00 00		 comiss	 xmm0, DWORD PTR __real@00000000
  0003b	76 23		 jbe	 SHORT $LN1@GetFlightD

; 675  : 	{
; 676  : 		fTopTime = fCurWeaponFloatPower / fNewGravity;

  0003d	f3 0f 10 4d 0c	 movss	 xmm1, DWORD PTR _fCurWeaponFloatPower$[ebp]
  00042	f3 0f 5a c0	 cvtss2sd xmm0, xmm0
  00046	0f 5a c9	 cvtps2pd xmm1, xmm1
  00049	f2 0f 5e c8	 divsd	 xmm1, xmm0
  0004d	66 0f 5a c1	 cvtpd2ps xmm0, xmm1
  00051	f3 0f 11 45 fc	 movss	 DWORD PTR _fTopTime$[ebp], xmm0

; 677  : 		fTopHeight = (fCurWeaponFloatPower*fTopTime) - (FLOAT05*fNewGravity*fTopTime*fTopTime);

  00056	b8 05 00 00 00	 mov	 eax, 5
  0005b	b8 0a 00 00 00	 mov	 eax, 10			; 0000000aH
$LN1@GetFlightD:

; 678  : 	}
; 679  : 
; 680  : 	float fResult = 2 * fTopTime * FLOAT1000;

  00060	b8 e8 03 00 00	 mov	 eax, 1000		; 000003e8H

; 681  : 
; 682  : #ifndef SHIPPING 
; 683  : 	if( Setting::ShowExtraInfo() )
; 684  : 	{
; 685  : 		LOG.PrintTimeAndLog( 0, "CirCleMoveWeapon - [ExpectionValue] TopHeight: %.2f, FlightDuration: %.2f", fTopHeight, fResult );
; 686  : 	}
; 687  : #endif
; 688  : 
; 689  : 	return fResult;

  00065	d9 45 fc	 fld	 DWORD PTR _fTopTime$[ebp]
  00068	89 45 08	 mov	 DWORD PTR tv194[ebp], eax
  0006b	dc c0		 fadd	 ST(0), ST(0)
  0006d	db 45 08	 fild	 DWORD PTR tv194[ebp]
  00070	85 c0		 test	 eax, eax
  00072	79 06		 jns	 SHORT $LN12@GetFlightD
  00074	d8 05 00 00 00
	00		 fadd	 DWORD PTR __real@4f800000
$LN12@GetFlightD:

; 678  : 	}
; 679  : 
; 680  : 	float fResult = 2 * fTopTime * FLOAT1000;

  0007a	de c9		 fmulp	 ST(1), ST(0)

; 681  : 
; 682  : #ifndef SHIPPING 
; 683  : 	if( Setting::ShowExtraInfo() )
; 684  : 	{
; 685  : 		LOG.PrintTimeAndLog( 0, "CirCleMoveWeapon - [ExpectionValue] TopHeight: %.2f, FlightDuration: %.2f", fTopHeight, fResult );
; 686  : 	}
; 687  : #endif
; 688  : 
; 689  : 	return fResult;

  0007c	d9 5d 08	 fstp	 DWORD PTR tv169[ebp]
  0007f	d9 45 08	 fld	 DWORD PTR tv169[ebp]

; 690  : }

  00082	c9		 leave
  00083	c2 08 00	 ret	 8
?GetFlightDuration@ioCircleMoveWeaponSkill@@IAEMMM@Z ENDP ; ioCircleMoveWeaponSkill::GetFlightDuration
_TEXT	ENDS
PUBLIC	??0?$vector@UWeaponMoveInfo@@V?$allocator@UWeaponMoveInfo@@@std@@@std@@QAE@XZ ; std::vector<WeaponMoveInfo,std::allocator<WeaponMoveInfo> >::vector<WeaponMoveInfo,std::allocator<WeaponMoveInfo> >
; Function compile flags: /Ogsp
; File c:\program files (x86)\microsoft visual studio 10.0\vc\include\vector
;	COMDAT ??0?$vector@UWeaponMoveInfo@@V?$allocator@UWeaponMoveInfo@@@std@@@std@@QAE@XZ
_TEXT	SEGMENT
??0?$vector@UWeaponMoveInfo@@V?$allocator@UWeaponMoveInfo@@@std@@@std@@QAE@XZ PROC ; std::vector<WeaponMoveInfo,std::allocator<WeaponMoveInfo> >::vector<WeaponMoveInfo,std::allocator<WeaponMoveInfo> >, COMDAT
; _this$ = ecx

; 507  : 		{	// construct empty vector

  00000	8b c1		 mov	 eax, ecx
  00002	33 c9		 xor	 ecx, ecx
  00004	89 08		 mov	 DWORD PTR [eax], ecx
  00006	89 48 04	 mov	 DWORD PTR [eax+4], ecx
  00009	89 48 08	 mov	 DWORD PTR [eax+8], ecx

; 508  : 		}

  0000c	c3		 ret	 0
??0?$vector@UWeaponMoveInfo@@V?$allocator@UWeaponMoveInfo@@@std@@@std@@QAE@XZ ENDP ; std::vector<WeaponMoveInfo,std::allocator<WeaponMoveInfo> >::vector<WeaponMoveInfo,std::allocator<WeaponMoveInfo> >
_TEXT	ENDS
PUBLIC	?begin@?$vector@UWeaponMoveInfo@@V?$allocator@UWeaponMoveInfo@@@std@@@std@@QAE?AV?$_Vector_iterator@V?$_Vector_val@UWeaponMoveInfo@@V?$allocator@UWeaponMoveInfo@@@std@@@std@@@2@XZ ; std::vector<WeaponMoveInfo,std::allocator<WeaponMoveInfo> >::begin
; Function compile flags: /Ogsp
;	COMDAT ?begin@?$vector@UWeaponMoveInfo@@V?$allocator@UWeaponMoveInfo@@@std@@@std@@QAE?AV?$_Vector_iterator@V?$_Vector_val@UWeaponMoveInfo@@V?$allocator@UWeaponMoveInfo@@@std@@@std@@@2@XZ
_TEXT	SEGMENT
___$ReturnUdt$ = 8					; size = 4
?begin@?$vector@UWeaponMoveInfo@@V?$allocator@UWeaponMoveInfo@@@std@@@std@@QAE?AV?$_Vector_iterator@V?$_Vector_val@UWeaponMoveInfo@@V?$allocator@UWeaponMoveInfo@@@std@@@std@@@2@XZ PROC ; std::vector<WeaponMoveInfo,std::allocator<WeaponMoveInfo> >::begin, COMDAT
; _this$ = ecx

; 781  : 		{	// return iterator for beginning of mutable sequence

  00000	55		 push	 ebp
  00001	8b ec		 mov	 ebp, esp

; 782  : 		return (iterator(this->_Myfirst, this));

  00003	8b 09		 mov	 ecx, DWORD PTR [ecx]
  00005	8b 45 08	 mov	 eax, DWORD PTR ___$ReturnUdt$[ebp]
  00008	89 08		 mov	 DWORD PTR [eax], ecx

; 783  : 		}

  0000a	5d		 pop	 ebp
  0000b	c2 04 00	 ret	 4
?begin@?$vector@UWeaponMoveInfo@@V?$allocator@UWeaponMoveInfo@@@std@@@std@@QAE?AV?$_Vector_iterator@V?$_Vector_val@UWeaponMoveInfo@@V?$allocator@UWeaponMoveInfo@@@std@@@std@@@2@XZ ENDP ; std::vector<WeaponMoveInfo,std::allocator<WeaponMoveInfo> >::begin
_TEXT	ENDS
PUBLIC	?end@?$vector@UWeaponMoveInfo@@V?$allocator@UWeaponMoveInfo@@@std@@@std@@QAE?AV?$_Vector_iterator@V?$_Vector_val@UWeaponMoveInfo@@V?$allocator@UWeaponMoveInfo@@@std@@@std@@@2@XZ ; std::vector<WeaponMoveInfo,std::allocator<WeaponMoveInfo> >::end
; Function compile flags: /Ogsp
;	COMDAT ?end@?$vector@UWeaponMoveInfo@@V?$allocator@UWeaponMoveInfo@@@std@@@std@@QAE?AV?$_Vector_iterator@V?$_Vector_val@UWeaponMoveInfo@@V?$allocator@UWeaponMoveInfo@@@std@@@std@@@2@XZ
_TEXT	SEGMENT
___$ReturnUdt$ = 8					; size = 4
?end@?$vector@UWeaponMoveInfo@@V?$allocator@UWeaponMoveInfo@@@std@@@std@@QAE?AV?$_Vector_iterator@V?$_Vector_val@UWeaponMoveInfo@@V?$allocator@UWeaponMoveInfo@@@std@@@std@@@2@XZ PROC ; std::vector<WeaponMoveInfo,std::allocator<WeaponMoveInfo> >::end, COMDAT
; _this$ = ecx

; 791  : 		{	// return iterator for end of mutable sequence

  00000	55		 push	 ebp
  00001	8b ec		 mov	 ebp, esp

; 792  : 		return (iterator(this->_Mylast, this));

  00003	8b 49 04	 mov	 ecx, DWORD PTR [ecx+4]
  00006	8b 45 08	 mov	 eax, DWORD PTR ___$ReturnUdt$[ebp]
  00009	89 08		 mov	 DWORD PTR [eax], ecx

; 793  : 		}

  0000b	5d		 pop	 ebp
  0000c	c2 04 00	 ret	 4
?end@?$vector@UWeaponMoveInfo@@V?$allocator@UWeaponMoveInfo@@@std@@@std@@QAE?AV?$_Vector_iterator@V?$_Vector_val@UWeaponMoveInfo@@V?$allocator@UWeaponMoveInfo@@@std@@@std@@@2@XZ ENDP ; std::vector<WeaponMoveInfo,std::allocator<WeaponMoveInfo> >::end
_TEXT	ENDS
PUBLIC	?_Grow_to@?$vector@UWeaponInfo@@V?$allocator@UWeaponInfo@@@std@@@std@@IBEII@Z ; std::vector<WeaponInfo,std::allocator<WeaponInfo> >::_Grow_to
; Function compile flags: /Ogsp
;	COMDAT ?_Grow_to@?$vector@UWeaponInfo@@V?$allocator@UWeaponInfo@@@std@@@std@@IBEII@Z
_TEXT	SEGMENT
__Count$ = 8						; size = 4
?_Grow_to@?$vector@UWeaponInfo@@V?$allocator@UWeaponInfo@@@std@@@std@@IBEII@Z PROC ; std::vector<WeaponInfo,std::allocator<WeaponInfo> >::_Grow_to, COMDAT
; _this$ = ecx

; 1274 : 		{	// grow by 50% or at least to _Count

  00000	55		 push	 ebp
  00001	8b ec		 mov	 ebp, esp

; 1275 : 		size_type _Capacity = capacity();

  00003	8b 41 08	 mov	 eax, DWORD PTR [ecx+8]
  00006	2b 01		 sub	 eax, DWORD PTR [ecx]
  00008	6a 28		 push	 40			; 00000028H
  0000a	99		 cdq
  0000b	59		 pop	 ecx
  0000c	f7 f9		 idiv	 ecx

; 1276 : 
; 1277 : 		_Capacity = max_size() - _Capacity / 2 < _Capacity
; 1278 : 			? 0 : _Capacity + _Capacity / 2;	// try to grow by 50%

  0000e	ba 66 66 66 06	 mov	 edx, 107374182		; 06666666H
  00013	8b c8		 mov	 ecx, eax
  00015	d1 e9		 shr	 ecx, 1
  00017	2b d1		 sub	 edx, ecx
  00019	3b d0		 cmp	 edx, eax
  0001b	73 04		 jae	 SHORT $LN4@Grow_to@2
  0001d	33 c0		 xor	 eax, eax
  0001f	eb 02		 jmp	 SHORT $LN5@Grow_to@2
$LN4@Grow_to@2:
  00021	03 c1		 add	 eax, ecx
$LN5@Grow_to@2:

; 1279 : 		if (_Capacity < _Count)

  00023	3b 45 08	 cmp	 eax, DWORD PTR __Count$[ebp]

; 1280 : 			_Capacity = _Count;

  00026	0f 42 45 08	 cmovb	 eax, DWORD PTR __Count$[ebp]

; 1281 : 		return (_Capacity);
; 1282 : 		}

  0002a	5d		 pop	 ebp
  0002b	c2 04 00	 ret	 4
?_Grow_to@?$vector@UWeaponInfo@@V?$allocator@UWeaponInfo@@@std@@@std@@IBEII@Z ENDP ; std::vector<WeaponInfo,std::allocator<WeaponInfo> >::_Grow_to
_TEXT	ENDS
PUBLIC	?_Grow_to@?$vector@UForceInfo@@V?$allocator@UForceInfo@@@std@@@std@@IBEII@Z ; std::vector<ForceInfo,std::allocator<ForceInfo> >::_Grow_to
; Function compile flags: /Ogsp
;	COMDAT ?_Grow_to@?$vector@UForceInfo@@V?$allocator@UForceInfo@@@std@@@std@@IBEII@Z
_TEXT	SEGMENT
__Count$ = 8						; size = 4
?_Grow_to@?$vector@UForceInfo@@V?$allocator@UForceInfo@@@std@@@std@@IBEII@Z PROC ; std::vector<ForceInfo,std::allocator<ForceInfo> >::_Grow_to, COMDAT
; _this$ = ecx

; 1274 : 		{	// grow by 50% or at least to _Count

  00000	55		 push	 ebp
  00001	8b ec		 mov	 ebp, esp

; 1275 : 		size_type _Capacity = capacity();

  00003	8b 41 08	 mov	 eax, DWORD PTR [ecx+8]
  00006	2b 01		 sub	 eax, DWORD PTR [ecx]
  00008	6a 0c		 push	 12			; 0000000cH
  0000a	99		 cdq
  0000b	59		 pop	 ecx
  0000c	f7 f9		 idiv	 ecx

; 1276 : 
; 1277 : 		_Capacity = max_size() - _Capacity / 2 < _Capacity
; 1278 : 			? 0 : _Capacity + _Capacity / 2;	// try to grow by 50%

  0000e	ba 55 55 55 15	 mov	 edx, 357913941		; 15555555H
  00013	8b c8		 mov	 ecx, eax
  00015	d1 e9		 shr	 ecx, 1
  00017	2b d1		 sub	 edx, ecx
  00019	3b d0		 cmp	 edx, eax
  0001b	73 04		 jae	 SHORT $LN4@Grow_to@3
  0001d	33 c0		 xor	 eax, eax
  0001f	eb 02		 jmp	 SHORT $LN5@Grow_to@3
$LN4@Grow_to@3:
  00021	03 c1		 add	 eax, ecx
$LN5@Grow_to@3:

; 1279 : 		if (_Capacity < _Count)

  00023	3b 45 08	 cmp	 eax, DWORD PTR __Count$[ebp]

; 1280 : 			_Capacity = _Count;

  00026	0f 42 45 08	 cmovb	 eax, DWORD PTR __Count$[ebp]

; 1281 : 		return (_Capacity);
; 1282 : 		}

  0002a	5d		 pop	 ebp
  0002b	c2 04 00	 ret	 4
?_Grow_to@?$vector@UForceInfo@@V?$allocator@UForceInfo@@@std@@@std@@IBEII@Z ENDP ; std::vector<ForceInfo,std::allocator<ForceInfo> >::_Grow_to
_TEXT	ENDS
PUBLIC	?_Grow_to@?$vector@UBuffInfoStruct@@V?$allocator@UBuffInfoStruct@@@std@@@std@@IBEII@Z ; std::vector<BuffInfoStruct,std::allocator<BuffInfoStruct> >::_Grow_to
; Function compile flags: /Ogsp
;	COMDAT ?_Grow_to@?$vector@UBuffInfoStruct@@V?$allocator@UBuffInfoStruct@@@std@@@std@@IBEII@Z
_TEXT	SEGMENT
__Count$ = 8						; size = 4
?_Grow_to@?$vector@UBuffInfoStruct@@V?$allocator@UBuffInfoStruct@@@std@@@std@@IBEII@Z PROC ; std::vector<BuffInfoStruct,std::allocator<BuffInfoStruct> >::_Grow_to, COMDAT
; _this$ = ecx

; 1274 : 		{	// grow by 50% or at least to _Count

  00000	55		 push	 ebp
  00001	8b ec		 mov	 ebp, esp

; 1275 : 		size_type _Capacity = capacity();

  00003	8b 41 08	 mov	 eax, DWORD PTR [ecx+8]
  00006	2b 01		 sub	 eax, DWORD PTR [ecx]
  00008	6a 14		 push	 20			; 00000014H
  0000a	99		 cdq
  0000b	59		 pop	 ecx
  0000c	f7 f9		 idiv	 ecx

; 1276 : 
; 1277 : 		_Capacity = max_size() - _Capacity / 2 < _Capacity
; 1278 : 			? 0 : _Capacity + _Capacity / 2;	// try to grow by 50%

  0000e	ba cc cc cc 0c	 mov	 edx, 214748364		; 0cccccccH
  00013	8b c8		 mov	 ecx, eax
  00015	d1 e9		 shr	 ecx, 1
  00017	2b d1		 sub	 edx, ecx
  00019	3b d0		 cmp	 edx, eax
  0001b	73 04		 jae	 SHORT $LN4@Grow_to@4
  0001d	33 c0		 xor	 eax, eax
  0001f	eb 02		 jmp	 SHORT $LN5@Grow_to@4
$LN4@Grow_to@4:
  00021	03 c1		 add	 eax, ecx
$LN5@Grow_to@4:

; 1279 : 		if (_Capacity < _Count)

  00023	3b 45 08	 cmp	 eax, DWORD PTR __Count$[ebp]

; 1280 : 			_Capacity = _Count;

  00026	0f 42 45 08	 cmovb	 eax, DWORD PTR __Count$[ebp]

; 1281 : 		return (_Capacity);
; 1282 : 		}

  0002a	5d		 pop	 ebp
  0002b	c2 04 00	 ret	 4
?_Grow_to@?$vector@UBuffInfoStruct@@V?$allocator@UBuffInfoStruct@@@std@@@std@@IBEII@Z ENDP ; std::vector<BuffInfoStruct,std::allocator<BuffInfoStruct> >::_Grow_to
_TEXT	ENDS
PUBLIC	?_Make_iter@?$vector@UWeaponMoveInfo@@V?$allocator@UWeaponMoveInfo@@@std@@@std@@QBE?AV?$_Vector_iterator@V?$_Vector_val@UWeaponMoveInfo@@V?$allocator@UWeaponMoveInfo@@@std@@@std@@@2@V?$_Vector_const_iterator@V?$_Vector_val@UWeaponMoveInfo@@V?$allocator@UWeaponMoveInfo@@@std@@@std@@@2@@Z ; std::vector<WeaponMoveInfo,std::allocator<WeaponMoveInfo> >::_Make_iter
; Function compile flags: /Ogsp
;	COMDAT ?_Make_iter@?$vector@UWeaponMoveInfo@@V?$allocator@UWeaponMoveInfo@@@std@@@std@@QBE?AV?$_Vector_iterator@V?$_Vector_val@UWeaponMoveInfo@@V?$allocator@UWeaponMoveInfo@@@std@@@std@@@2@V?$_Vector_const_iterator@V?$_Vector_val@UWeaponMoveInfo@@V?$allocator@UWeaponMoveInfo@@@std@@@std@@@2@@Z
_TEXT	SEGMENT
___$ReturnUdt$ = 8					; size = 4
__Where$ = 12						; size = 4
?_Make_iter@?$vector@UWeaponMoveInfo@@V?$allocator@UWeaponMoveInfo@@@std@@@std@@QBE?AV?$_Vector_iterator@V?$_Vector_val@UWeaponMoveInfo@@V?$allocator@UWeaponMoveInfo@@@std@@@std@@@2@V?$_Vector_const_iterator@V?$_Vector_val@UWeaponMoveInfo@@V?$allocator@UWeaponMoveInfo@@@std@@@std@@@2@@Z PROC ; std::vector<WeaponMoveInfo,std::allocator<WeaponMoveInfo> >::_Make_iter, COMDAT
; _this$ = ecx

; 801  : 		{	// make iterator from const_iterator

  00000	55		 push	 ebp
  00001	8b ec		 mov	 ebp, esp

; 802  : 		return (iterator(_Where._Ptr, this));

  00003	8b 45 08	 mov	 eax, DWORD PTR ___$ReturnUdt$[ebp]
  00006	8b 4d 0c	 mov	 ecx, DWORD PTR __Where$[ebp]
  00009	89 08		 mov	 DWORD PTR [eax], ecx

; 803  : 		}

  0000b	5d		 pop	 ebp
  0000c	c2 08 00	 ret	 8
?_Make_iter@?$vector@UWeaponMoveInfo@@V?$allocator@UWeaponMoveInfo@@@std@@@std@@QBE?AV?$_Vector_iterator@V?$_Vector_val@UWeaponMoveInfo@@V?$allocator@UWeaponMoveInfo@@@std@@@std@@@2@V?$_Vector_const_iterator@V?$_Vector_val@UWeaponMoveInfo@@V?$allocator@UWeaponMoveInfo@@@std@@@std@@@2@@Z ENDP ; std::vector<WeaponMoveInfo,std::allocator<WeaponMoveInfo> >::_Make_iter
_TEXT	ENDS
PUBLIC	??9?$_Vector_const_iterator@V?$_Vector_val@UWeaponMoveInfo@@V?$allocator@UWeaponMoveInfo@@@std@@@std@@@std@@QBE_NABV01@@Z ; std::_Vector_const_iterator<std::_Vector_val<WeaponMoveInfo,std::allocator<WeaponMoveInfo> > >::operator!=
; Function compile flags: /Ogsp
;	COMDAT ??9?$_Vector_const_iterator@V?$_Vector_val@UWeaponMoveInfo@@V?$allocator@UWeaponMoveInfo@@@std@@@std@@@std@@QBE_NABV01@@Z
_TEXT	SEGMENT
__Right$ = 8						; size = 4
??9?$_Vector_const_iterator@V?$_Vector_val@UWeaponMoveInfo@@V?$allocator@UWeaponMoveInfo@@@std@@@std@@@std@@QBE_NABV01@@Z PROC ; std::_Vector_const_iterator<std::_Vector_val<WeaponMoveInfo,std::allocator<WeaponMoveInfo> > >::operator!=, COMDAT
; _this$ = ecx

; 207  : 		{	// test for iterator inequality

  00000	55		 push	 ebp
  00001	8b ec		 mov	 ebp, esp

; 208  : 		return (!(*this == _Right));

  00003	8b 01		 mov	 eax, DWORD PTR [ecx]
  00005	8b 55 08	 mov	 edx, DWORD PTR __Right$[ebp]
  00008	33 c9		 xor	 ecx, ecx
  0000a	3b 02		 cmp	 eax, DWORD PTR [edx]
  0000c	0f 95 c0	 setne	 al

; 209  : 		}

  0000f	5d		 pop	 ebp
  00010	c2 04 00	 ret	 4
??9?$_Vector_const_iterator@V?$_Vector_val@UWeaponMoveInfo@@V?$allocator@UWeaponMoveInfo@@@std@@@std@@@std@@QBE_NABV01@@Z ENDP ; std::_Vector_const_iterator<std::_Vector_val<WeaponMoveInfo,std::allocator<WeaponMoveInfo> > >::operator!=
_TEXT	ENDS
PUBLIC	??$_Cons_val@V?$allocator@UForceInfo@@@std@@UForceInfo@@ABU3@@std@@YAXAAV?$allocator@UForceInfo@@@0@PAUForceInfo@@ABU2@@Z ; std::_Cons_val<std::allocator<ForceInfo>,ForceInfo,ForceInfo const &>
; Function compile flags: /Ogsp
; File c:\program files (x86)\microsoft visual studio 10.0\vc\include\xmemory
;	COMDAT ??$_Cons_val@V?$allocator@UForceInfo@@@std@@UForceInfo@@ABU3@@std@@YAXAAV?$allocator@UForceInfo@@@0@PAUForceInfo@@ABU2@@Z
_TEXT	SEGMENT
__Alval$ = 8						; size = 4
__Pdest$ = 12						; size = 4
__Src$ = 16						; size = 4
??$_Cons_val@V?$allocator@UForceInfo@@@std@@UForceInfo@@ABU3@@std@@YAXAAV?$allocator@UForceInfo@@@0@PAUForceInfo@@ABU2@@Z PROC ; std::_Cons_val<std::allocator<ForceInfo>,ForceInfo,ForceInfo const &>, COMDAT

; 279  : 	{	// construct using allocator

  00000	55		 push	 ebp
  00001	8b ec		 mov	 ebp, esp
  00003	57		 push	 edi

; 280  : 	_Alval.construct(_Pdest, _STD forward<_Ty2>(_Src));

  00004	8b 7d 0c	 mov	 edi, DWORD PTR __Pdest$[ebp]
  00007	85 ff		 test	 edi, edi
  00009	74 08		 je	 SHORT $LN9@Cons_val@3
  0000b	56		 push	 esi
  0000c	8b 75 10	 mov	 esi, DWORD PTR __Src$[ebp]
  0000f	a5		 movsd
  00010	a5		 movsd
  00011	a5		 movsd
  00012	5e		 pop	 esi
$LN9@Cons_val@3:
  00013	5f		 pop	 edi

; 281  : 	}

  00014	5d		 pop	 ebp
  00015	c3		 ret	 0
??$_Cons_val@V?$allocator@UForceInfo@@@std@@UForceInfo@@ABU3@@std@@YAXAAV?$allocator@UForceInfo@@@0@PAUForceInfo@@ABU2@@Z ENDP ; std::_Cons_val<std::allocator<ForceInfo>,ForceInfo,ForceInfo const &>
_TEXT	ENDS
PUBLIC	??$_Cons_val@V?$allocator@UWeaponMoveInfo@@@std@@UWeaponMoveInfo@@ABU3@@std@@YAXAAV?$allocator@UWeaponMoveInfo@@@0@PAUWeaponMoveInfo@@ABU2@@Z ; std::_Cons_val<std::allocator<WeaponMoveInfo>,WeaponMoveInfo,WeaponMoveInfo const &>
; Function compile flags: /Ogsp
;	COMDAT ??$_Cons_val@V?$allocator@UWeaponMoveInfo@@@std@@UWeaponMoveInfo@@ABU3@@std@@YAXAAV?$allocator@UWeaponMoveInfo@@@0@PAUWeaponMoveInfo@@ABU2@@Z
_TEXT	SEGMENT
__Alval$ = 8						; size = 4
__Pdest$ = 12						; size = 4
__Src$ = 16						; size = 4
??$_Cons_val@V?$allocator@UWeaponMoveInfo@@@std@@UWeaponMoveInfo@@ABU3@@std@@YAXAAV?$allocator@UWeaponMoveInfo@@@0@PAUWeaponMoveInfo@@ABU2@@Z PROC ; std::_Cons_val<std::allocator<WeaponMoveInfo>,WeaponMoveInfo,WeaponMoveInfo const &>, COMDAT

; 279  : 	{	// construct using allocator

  00000	55		 push	 ebp
  00001	8b ec		 mov	 ebp, esp
  00003	57		 push	 edi

; 280  : 	_Alval.construct(_Pdest, _STD forward<_Ty2>(_Src));

  00004	8b 7d 0c	 mov	 edi, DWORD PTR __Pdest$[ebp]
  00007	85 ff		 test	 edi, edi
  00009	74 0a		 je	 SHORT $LN9@Cons_val@4
  0000b	56		 push	 esi
  0000c	8b 75 10	 mov	 esi, DWORD PTR __Src$[ebp]
  0000f	6a 05		 push	 5
  00011	59		 pop	 ecx
  00012	f3 a5		 rep movsd
  00014	5e		 pop	 esi
$LN9@Cons_val@4:
  00015	5f		 pop	 edi

; 281  : 	}

  00016	5d		 pop	 ebp
  00017	c3		 ret	 0
??$_Cons_val@V?$allocator@UWeaponMoveInfo@@@std@@UWeaponMoveInfo@@ABU3@@std@@YAXAAV?$allocator@UWeaponMoveInfo@@@0@PAUWeaponMoveInfo@@ABU2@@Z ENDP ; std::_Cons_val<std::allocator<WeaponMoveInfo>,WeaponMoveInfo,WeaponMoveInfo const &>
_TEXT	ENDS
PUBLIC	??$_Move@PAUWeaponMoveInfo@@PAU1@@std@@YAPAUWeaponMoveInfo@@PAU1@00@Z ; std::_Move<WeaponMoveInfo *,WeaponMoveInfo *>
; Function compile flags: /Ogsp
; File c:\program files (x86)\microsoft visual studio 10.0\vc\include\xutility
;	COMDAT ??$_Move@PAUWeaponMoveInfo@@PAU1@@std@@YAPAUWeaponMoveInfo@@PAU1@00@Z
_TEXT	SEGMENT
__Cat$577714 = -4					; size = 1
__First$ = 8						; size = 4
__Last$ = 12						; size = 4
__Dest$ = 16						; size = 4
??$_Move@PAUWeaponMoveInfo@@PAU1@@std@@YAPAUWeaponMoveInfo@@PAU1@00@Z PROC ; std::_Move<WeaponMoveInfo *,WeaponMoveInfo *>, COMDAT

; 2533 : 	{	// move [_First, _Last) to [_Dest, ...), unchecked

  00000	55		 push	 ebp
  00001	8b ec		 mov	 ebp, esp
  00003	51		 push	 ecx

; 2534 : 	return (_Move(_First, _Last,
; 2535 : 		_Dest, _Ptr_cat(_First, _Dest)));

  00004	ff 75 fc	 push	 DWORD PTR __Cat$577714[ebp]
  00007	ff 75 10	 push	 DWORD PTR __Dest$[ebp]
  0000a	ff 75 0c	 push	 DWORD PTR __Last$[ebp]
  0000d	ff 75 08	 push	 DWORD PTR __First$[ebp]
  00010	e8 00 00 00 00	 call	 ??$_Move@PAUWeaponMoveInfo@@PAU1@@std@@YAPAUWeaponMoveInfo@@PAU1@00U_Nonscalar_ptr_iterator_tag@0@@Z ; std::_Move<WeaponMoveInfo *,WeaponMoveInfo *>
  00015	83 c4 10	 add	 esp, 16			; 00000010H

; 2536 : 	}

  00018	c9		 leave
  00019	c3		 ret	 0
??$_Move@PAUWeaponMoveInfo@@PAU1@@std@@YAPAUWeaponMoveInfo@@PAU1@00@Z ENDP ; std::_Move<WeaponMoveInfo *,WeaponMoveInfo *>
_TEXT	ENDS
PUBLIC	?construct@?$allocator@UWeaponInfo@@@std@@QAEXPAUWeaponInfo@@ABU3@@Z ; std::allocator<WeaponInfo>::construct
; Function compile flags: /Ogsp
; File c:\program files (x86)\microsoft visual studio 10.0\vc\include\xmemory
;	COMDAT ?construct@?$allocator@UWeaponInfo@@@std@@QAEXPAUWeaponInfo@@ABU3@@Z
_TEXT	SEGMENT
__Ptr$ = 8						; size = 4
__Val$ = 12						; size = 4
?construct@?$allocator@UWeaponInfo@@@std@@QAEXPAUWeaponInfo@@ABU3@@Z PROC ; std::allocator<WeaponInfo>::construct, COMDAT
; _this$ = ecx

; 196  : 		{	// construct object at _Ptr with value _Val

  00000	55		 push	 ebp
  00001	8b ec		 mov	 ebp, esp

; 197  : 		_Construct(_Ptr, _Val);

  00003	ff 75 0c	 push	 DWORD PTR __Val$[ebp]
  00006	ff 75 08	 push	 DWORD PTR __Ptr$[ebp]
  00009	e8 00 00 00 00	 call	 ??$_Construct@UWeaponInfo@@ABU1@@std@@YAXPAUWeaponInfo@@ABU1@@Z ; std::_Construct<WeaponInfo,WeaponInfo const &>
  0000e	59		 pop	 ecx
  0000f	59		 pop	 ecx

; 198  : 		}

  00010	5d		 pop	 ebp
  00011	c2 08 00	 ret	 8
?construct@?$allocator@UWeaponInfo@@@std@@QAEXPAUWeaponInfo@@ABU3@@Z ENDP ; std::allocator<WeaponInfo>::construct
_TEXT	ENDS
PUBLIC	?construct@?$allocator@UBuffInfoStruct@@@std@@QAEXPAUBuffInfoStruct@@ABU3@@Z ; std::allocator<BuffInfoStruct>::construct
; Function compile flags: /Ogsp
;	COMDAT ?construct@?$allocator@UBuffInfoStruct@@@std@@QAEXPAUBuffInfoStruct@@ABU3@@Z
_TEXT	SEGMENT
__Ptr$ = 8						; size = 4
__Val$ = 12						; size = 4
?construct@?$allocator@UBuffInfoStruct@@@std@@QAEXPAUBuffInfoStruct@@ABU3@@Z PROC ; std::allocator<BuffInfoStruct>::construct, COMDAT
; _this$ = ecx

; 196  : 		{	// construct object at _Ptr with value _Val

  00000	55		 push	 ebp
  00001	8b ec		 mov	 ebp, esp

; 197  : 		_Construct(_Ptr, _Val);

  00003	ff 75 0c	 push	 DWORD PTR __Val$[ebp]
  00006	ff 75 08	 push	 DWORD PTR __Ptr$[ebp]
  00009	e8 00 00 00 00	 call	 ??$_Construct@UBuffInfoStruct@@ABU1@@std@@YAXPAUBuffInfoStruct@@ABU1@@Z ; std::_Construct<BuffInfoStruct,BuffInfoStruct const &>
  0000e	59		 pop	 ecx
  0000f	59		 pop	 ecx

; 198  : 		}

  00010	5d		 pop	 ebp
  00011	c2 08 00	 ret	 8
?construct@?$allocator@UBuffInfoStruct@@@std@@QAEXPAUBuffInfoStruct@@ABU3@@Z ENDP ; std::allocator<BuffInfoStruct>::construct
_TEXT	ENDS
PUBLIC	??$_Dest_val@V?$allocator@UWeaponMoveInfo@@@std@@UWeaponMoveInfo@@@std@@YAXAAV?$allocator@UWeaponMoveInfo@@@0@PAUWeaponMoveInfo@@@Z ; std::_Dest_val<std::allocator<WeaponMoveInfo>,WeaponMoveInfo>
; Function compile flags: /Ogsp
;	COMDAT ??$_Dest_val@V?$allocator@UWeaponMoveInfo@@@std@@UWeaponMoveInfo@@@std@@YAXAAV?$allocator@UWeaponMoveInfo@@@0@PAUWeaponMoveInfo@@@Z
_TEXT	SEGMENT
__Alval$ = 8						; size = 4
__Pdest$ = 12						; size = 4
??$_Dest_val@V?$allocator@UWeaponMoveInfo@@@std@@UWeaponMoveInfo@@@std@@YAXAAV?$allocator@UWeaponMoveInfo@@@0@PAUWeaponMoveInfo@@@Z PROC ; std::_Dest_val<std::allocator<WeaponMoveInfo>,WeaponMoveInfo>, COMDAT

; 287  : 	_Alval.destroy(_Pdest);
; 288  : 	}

  00000	c3		 ret	 0
??$_Dest_val@V?$allocator@UWeaponMoveInfo@@@std@@UWeaponMoveInfo@@@std@@YAXAAV?$allocator@UWeaponMoveInfo@@@0@PAUWeaponMoveInfo@@@Z ENDP ; std::_Dest_val<std::allocator<WeaponMoveInfo>,WeaponMoveInfo>
_TEXT	ENDS
PUBLIC	??$_Cons_val@V?$allocator@UWeaponInfo@@@std@@UWeaponInfo@@U3@@std@@YAXAAV?$allocator@UWeaponInfo@@@0@PAUWeaponInfo@@$$QAU2@@Z ; std::_Cons_val<std::allocator<WeaponInfo>,WeaponInfo,WeaponInfo>
;	COMDAT xdata$x
; File c:\program files (x86)\microsoft visual studio 10.0\vc\include\utility
xdata$x	SEGMENT
__unwindtable$??$_Cons_val@V?$allocator@UWeaponInfo@@@std@@UWeaponInfo@@U3@@std@@YAXAAV?$allocator@UWeaponInfo@@@0@PAUWeaponInfo@@$$QAU2@@Z DD 0ffffffffH
	DD	FLAT:__unwindfunclet$??$_Cons_val@V?$allocator@UWeaponInfo@@@std@@UWeaponInfo@@U3@@std@@YAXAAV?$allocator@UWeaponInfo@@@0@PAUWeaponInfo@@$$QAU2@@Z$0
__ehfuncinfo$??$_Cons_val@V?$allocator@UWeaponInfo@@@std@@UWeaponInfo@@U3@@std@@YAXAAV?$allocator@UWeaponInfo@@@0@PAUWeaponInfo@@$$QAU2@@Z DD 019930522H
	DD	01H
	DD	FLAT:__unwindtable$??$_Cons_val@V?$allocator@UWeaponInfo@@@std@@UWeaponInfo@@U3@@std@@YAXAAV?$allocator@UWeaponInfo@@@0@PAUWeaponInfo@@$$QAU2@@Z
	DD	2 DUP(00H)
	DD	2 DUP(00H)
	DD	00H
	DD	01H
; Function compile flags: /Ogsp
; File c:\program files (x86)\microsoft visual studio 10.0\vc\include\xmemory
xdata$x	ENDS
;	COMDAT ??$_Cons_val@V?$allocator@UWeaponInfo@@@std@@UWeaponInfo@@U3@@std@@YAXAAV?$allocator@UWeaponInfo@@@0@PAUWeaponInfo@@$$QAU2@@Z
_TEXT	SEGMENT
$T577750 = -16						; size = 4
__$EHRec$ = -12						; size = 12
__Alval$ = 8						; size = 4
__Pdest$ = 12						; size = 4
__Src$ = 16						; size = 4
??$_Cons_val@V?$allocator@UWeaponInfo@@@std@@UWeaponInfo@@U3@@std@@YAXAAV?$allocator@UWeaponInfo@@@0@PAUWeaponInfo@@$$QAU2@@Z PROC ; std::_Cons_val<std::allocator<WeaponInfo>,WeaponInfo,WeaponInfo>, COMDAT

; 279  : 	{	// construct using allocator

  00000	6a 04		 push	 4
  00002	b8 00 00 00 00	 mov	 eax, __ehhandler$??$_Cons_val@V?$allocator@UWeaponInfo@@@std@@UWeaponInfo@@U3@@std@@YAXAAV?$allocator@UWeaponInfo@@@0@PAUWeaponInfo@@$$QAU2@@Z
  00007	e8 00 00 00 00	 call	 __EH_prolog3

; 280  : 	_Alval.construct(_Pdest, _STD forward<_Ty2>(_Src));

  0000c	8b 4d 0c	 mov	 ecx, DWORD PTR __Pdest$[ebp]
  0000f	89 4d f0	 mov	 DWORD PTR $T577750[ebp], ecx
  00012	83 65 fc 00	 and	 DWORD PTR __$EHRec$[ebp+8], 0
  00016	85 c9		 test	 ecx, ecx
  00018	74 08		 je	 SHORT $LN7@Cons_val@5
  0001a	ff 75 10	 push	 DWORD PTR __Src$[ebp]
  0001d	e8 00 00 00 00	 call	 ??0WeaponInfo@@QAE@ABU0@@Z
$LN7@Cons_val@5:

; 281  : 	}

  00022	e8 00 00 00 00	 call	 __EH_epilog3
  00027	c3		 ret	 0
_TEXT	ENDS
;	COMDAT text$x
text$x	SEGMENT
__unwindfunclet$??$_Cons_val@V?$allocator@UWeaponInfo@@@std@@UWeaponInfo@@U3@@std@@YAXAAV?$allocator@UWeaponInfo@@@0@PAUWeaponInfo@@$$QAU2@@Z$0:
  00000	ff 75 0c	 push	 DWORD PTR __Pdest$[ebp]
  00003	ff 75 f0	 push	 DWORD PTR $T577750[ebp]
  00006	e8 00 00 00 00	 call	 ??3@YAXPAX0@Z		; operator delete
  0000b	59		 pop	 ecx
  0000c	59		 pop	 ecx
  0000d	c3		 ret	 0
__ehhandler$??$_Cons_val@V?$allocator@UWeaponInfo@@@std@@UWeaponInfo@@U3@@std@@YAXAAV?$allocator@UWeaponInfo@@@0@PAUWeaponInfo@@$$QAU2@@Z:
  0000e	8b 54 24 08	 mov	 edx, DWORD PTR [esp+8]
  00012	8d 42 0c	 lea	 eax, DWORD PTR [edx+12]
  00015	8b 4a ec	 mov	 ecx, DWORD PTR [edx-20]
  00018	33 c8		 xor	 ecx, eax
  0001a	e8 00 00 00 00	 call	 @__security_check_cookie@4
  0001f	b8 00 00 00 00	 mov	 eax, OFFSET __ehfuncinfo$??$_Cons_val@V?$allocator@UWeaponInfo@@@std@@UWeaponInfo@@U3@@std@@YAXAAV?$allocator@UWeaponInfo@@@0@PAUWeaponInfo@@$$QAU2@@Z
  00024	e9 00 00 00 00	 jmp	 ___CxxFrameHandler3
text$x	ENDS
??$_Cons_val@V?$allocator@UWeaponInfo@@@std@@UWeaponInfo@@U3@@std@@YAXAAV?$allocator@UWeaponInfo@@@0@PAUWeaponInfo@@$$QAU2@@Z ENDP ; std::_Cons_val<std::allocator<WeaponInfo>,WeaponInfo,WeaponInfo>
PUBLIC	??$_Cons_val@V?$allocator@UForceInfo@@@std@@UForceInfo@@U3@@std@@YAXAAV?$allocator@UForceInfo@@@0@PAUForceInfo@@$$QAU2@@Z ; std::_Cons_val<std::allocator<ForceInfo>,ForceInfo,ForceInfo>
; Function compile flags: /Ogsp
;	COMDAT ??$_Cons_val@V?$allocator@UForceInfo@@@std@@UForceInfo@@U3@@std@@YAXAAV?$allocator@UForceInfo@@@0@PAUForceInfo@@$$QAU2@@Z
_TEXT	SEGMENT
__Alval$ = 8						; size = 4
__Pdest$ = 12						; size = 4
__Src$ = 16						; size = 4
??$_Cons_val@V?$allocator@UForceInfo@@@std@@UForceInfo@@U3@@std@@YAXAAV?$allocator@UForceInfo@@@0@PAUForceInfo@@$$QAU2@@Z PROC ; std::_Cons_val<std::allocator<ForceInfo>,ForceInfo,ForceInfo>, COMDAT

; 279  : 	{	// construct using allocator

  00000	55		 push	 ebp
  00001	8b ec		 mov	 ebp, esp
  00003	57		 push	 edi

; 280  : 	_Alval.construct(_Pdest, _STD forward<_Ty2>(_Src));

  00004	8b 7d 0c	 mov	 edi, DWORD PTR __Pdest$[ebp]
  00007	85 ff		 test	 edi, edi
  00009	74 08		 je	 SHORT $LN7@Cons_val@6
  0000b	56		 push	 esi
  0000c	8b 75 10	 mov	 esi, DWORD PTR __Src$[ebp]
  0000f	a5		 movsd
  00010	a5		 movsd
  00011	a5		 movsd
  00012	5e		 pop	 esi
$LN7@Cons_val@6:
  00013	5f		 pop	 edi

; 281  : 	}

  00014	5d		 pop	 ebp
  00015	c3		 ret	 0
??$_Cons_val@V?$allocator@UForceInfo@@@std@@UForceInfo@@U3@@std@@YAXAAV?$allocator@UForceInfo@@@0@PAUForceInfo@@$$QAU2@@Z ENDP ; std::_Cons_val<std::allocator<ForceInfo>,ForceInfo,ForceInfo>
_TEXT	ENDS
PUBLIC	??$_Cons_val@V?$allocator@UBuffInfoStruct@@@std@@UBuffInfoStruct@@U3@@std@@YAXAAV?$allocator@UBuffInfoStruct@@@0@PAUBuffInfoStruct@@$$QAU2@@Z ; std::_Cons_val<std::allocator<BuffInfoStruct>,BuffInfoStruct,BuffInfoStruct>
; Function compile flags: /Ogsp
;	COMDAT ??$_Cons_val@V?$allocator@UBuffInfoStruct@@@std@@UBuffInfoStruct@@U3@@std@@YAXAAV?$allocator@UBuffInfoStruct@@@0@PAUBuffInfoStruct@@$$QAU2@@Z
_TEXT	SEGMENT
__Alval$ = 8						; size = 4
__Pdest$ = 12						; size = 4
__Src$ = 16						; size = 4
??$_Cons_val@V?$allocator@UBuffInfoStruct@@@std@@UBuffInfoStruct@@U3@@std@@YAXAAV?$allocator@UBuffInfoStruct@@@0@PAUBuffInfoStruct@@$$QAU2@@Z PROC ; std::_Cons_val<std::allocator<BuffInfoStruct>,BuffInfoStruct,BuffInfoStruct>, COMDAT

; 279  : 	{	// construct using allocator

  00000	55		 push	 ebp
  00001	8b ec		 mov	 ebp, esp

; 280  : 	_Alval.construct(_Pdest, _STD forward<_Ty2>(_Src));

  00003	ff 75 10	 push	 DWORD PTR __Src$[ebp]
  00006	8b 4d 08	 mov	 ecx, DWORD PTR __Alval$[ebp]
  00009	ff 75 0c	 push	 DWORD PTR __Pdest$[ebp]
  0000c	e8 00 00 00 00	 call	 ?construct@?$allocator@UBuffInfoStruct@@@std@@QAEXPAUBuffInfoStruct@@$$QAU3@@Z ; std::allocator<BuffInfoStruct>::construct

; 281  : 	}

  00011	5d		 pop	 ebp
  00012	c3		 ret	 0
??$_Cons_val@V?$allocator@UBuffInfoStruct@@@std@@UBuffInfoStruct@@U3@@std@@YAXAAV?$allocator@UBuffInfoStruct@@@0@PAUBuffInfoStruct@@$$QAU2@@Z ENDP ; std::_Cons_val<std::allocator<BuffInfoStruct>,BuffInfoStruct,BuffInfoStruct>
_TEXT	ENDS
PUBLIC	??$_Cons_val@V?$allocator@UWeaponMoveInfo@@@std@@UWeaponMoveInfo@@U3@@std@@YAXAAV?$allocator@UWeaponMoveInfo@@@0@PAUWeaponMoveInfo@@$$QAU2@@Z ; std::_Cons_val<std::allocator<WeaponMoveInfo>,WeaponMoveInfo,WeaponMoveInfo>
; Function compile flags: /Ogsp
;	COMDAT ??$_Cons_val@V?$allocator@UWeaponMoveInfo@@@std@@UWeaponMoveInfo@@U3@@std@@YAXAAV?$allocator@UWeaponMoveInfo@@@0@PAUWeaponMoveInfo@@$$QAU2@@Z
_TEXT	SEGMENT
__Alval$ = 8						; size = 4
__Pdest$ = 12						; size = 4
__Src$ = 16						; size = 4
??$_Cons_val@V?$allocator@UWeaponMoveInfo@@@std@@UWeaponMoveInfo@@U3@@std@@YAXAAV?$allocator@UWeaponMoveInfo@@@0@PAUWeaponMoveInfo@@$$QAU2@@Z PROC ; std::_Cons_val<std::allocator<WeaponMoveInfo>,WeaponMoveInfo,WeaponMoveInfo>, COMDAT

; 279  : 	{	// construct using allocator

  00000	55		 push	 ebp
  00001	8b ec		 mov	 ebp, esp
  00003	57		 push	 edi

; 280  : 	_Alval.construct(_Pdest, _STD forward<_Ty2>(_Src));

  00004	8b 7d 0c	 mov	 edi, DWORD PTR __Pdest$[ebp]
  00007	85 ff		 test	 edi, edi
  00009	74 0a		 je	 SHORT $LN7@Cons_val@7
  0000b	56		 push	 esi
  0000c	8b 75 10	 mov	 esi, DWORD PTR __Src$[ebp]
  0000f	6a 05		 push	 5
  00011	59		 pop	 ecx
  00012	f3 a5		 rep movsd
  00014	5e		 pop	 esi
$LN7@Cons_val@7:
  00015	5f		 pop	 edi

; 281  : 	}

  00016	5d		 pop	 ebp
  00017	c3		 ret	 0
??$_Cons_val@V?$allocator@UWeaponMoveInfo@@@std@@UWeaponMoveInfo@@U3@@std@@YAXAAV?$allocator@UWeaponMoveInfo@@@0@PAUWeaponMoveInfo@@$$QAU2@@Z ENDP ; std::_Cons_val<std::allocator<WeaponMoveInfo>,WeaponMoveInfo,WeaponMoveInfo>
_TEXT	ENDS
PUBLIC	?GetTeam@ioPlayEntity@@QBE?AW4TeamType@@XZ	; ioPlayEntity::GetTeam
; Function compile flags: /Ogsp
; File d:\lost saga for developer\youtube\tutorial\source\src\lsclient\ioplayentity.h
;	COMDAT ?GetTeam@ioPlayEntity@@QBE?AW4TeamType@@XZ
_TEXT	SEGMENT
_value$577825 = -4					; size = 4
?GetTeam@ioPlayEntity@@QBE?AW4TeamType@@XZ PROC		; ioPlayEntity::GetTeam, COMDAT
; _this$ = ecx

; 107  : 	inline TeamType GetTeam() const { return m_TeamType; }

  00000	55		 push	 ebp
  00001	8b ec		 mov	 ebp, esp
  00003	51		 push	 ecx
  00004	8d 45 fc	 lea	 eax, DWORD PTR _value$577825[ebp]
  00007	50		 push	 eax
  00008	81 c1 90 00 00
	00		 add	 ecx, 144		; 00000090H
  0000e	e8 00 00 00 00	 call	 ?DecryptValueToPool@?$CEncrypt@W4TeamType@@@@QAEXPAW4TeamType@@@Z ; CEncrypt<enum TeamType>::DecryptValueToPool
  00013	8b 45 fc	 mov	 eax, DWORD PTR _value$577825[ebp]
  00016	c9		 leave
  00017	c3		 ret	 0
?GetTeam@ioPlayEntity@@QBE?AW4TeamType@@XZ ENDP		; ioPlayEntity::GetTeam
_TEXT	ENDS
PUBLIC	??0?$vector@UWeaponInfo@@V?$allocator@UWeaponInfo@@@std@@@std@@QAE@XZ ; std::vector<WeaponInfo,std::allocator<WeaponInfo> >::vector<WeaponInfo,std::allocator<WeaponInfo> >
; Function compile flags: /Ogsp
; File c:\program files (x86)\microsoft visual studio 10.0\vc\include\vector
;	COMDAT ??0?$vector@UWeaponInfo@@V?$allocator@UWeaponInfo@@@std@@@std@@QAE@XZ
_TEXT	SEGMENT
??0?$vector@UWeaponInfo@@V?$allocator@UWeaponInfo@@@std@@@std@@QAE@XZ PROC ; std::vector<WeaponInfo,std::allocator<WeaponInfo> >::vector<WeaponInfo,std::allocator<WeaponInfo> >, COMDAT
; _this$ = ecx

; 507  : 		{	// construct empty vector

  00000	8b c1		 mov	 eax, ecx
  00002	33 c9		 xor	 ecx, ecx
  00004	89 08		 mov	 DWORD PTR [eax], ecx
  00006	89 48 04	 mov	 DWORD PTR [eax+4], ecx
  00009	89 48 08	 mov	 DWORD PTR [eax+8], ecx

; 508  : 		}

  0000c	c3		 ret	 0
??0?$vector@UWeaponInfo@@V?$allocator@UWeaponInfo@@@std@@@std@@QAE@XZ ENDP ; std::vector<WeaponInfo,std::allocator<WeaponInfo> >::vector<WeaponInfo,std::allocator<WeaponInfo> >
_TEXT	ENDS
PUBLIC	??0?$vector@UForceInfo@@V?$allocator@UForceInfo@@@std@@@std@@QAE@XZ ; std::vector<ForceInfo,std::allocator<ForceInfo> >::vector<ForceInfo,std::allocator<ForceInfo> >
; Function compile flags: /Ogsp
;	COMDAT ??0?$vector@UForceInfo@@V?$allocator@UForceInfo@@@std@@@std@@QAE@XZ
_TEXT	SEGMENT
??0?$vector@UForceInfo@@V?$allocator@UForceInfo@@@std@@@std@@QAE@XZ PROC ; std::vector<ForceInfo,std::allocator<ForceInfo> >::vector<ForceInfo,std::allocator<ForceInfo> >, COMDAT
; _this$ = ecx

; 507  : 		{	// construct empty vector

  00000	8b c1		 mov	 eax, ecx
  00002	33 c9		 xor	 ecx, ecx
  00004	89 08		 mov	 DWORD PTR [eax], ecx
  00006	89 48 04	 mov	 DWORD PTR [eax+4], ecx
  00009	89 48 08	 mov	 DWORD PTR [eax+8], ecx

; 508  : 		}

  0000c	c3		 ret	 0
??0?$vector@UForceInfo@@V?$allocator@UForceInfo@@@std@@@std@@QAE@XZ ENDP ; std::vector<ForceInfo,std::allocator<ForceInfo> >::vector<ForceInfo,std::allocator<ForceInfo> >
_TEXT	ENDS
PUBLIC	??0?$CEncrypt@M@@QAE@ABV0@@Z			; CEncrypt<float>::CEncrypt<float>
;	COMDAT xdata$x
; File d:\lost saga for developer\youtube\tutorial\source\src\lsclient\encryptvalue.h
xdata$x	SEGMENT
__unwindtable$??0?$CEncrypt@M@@QAE@ABV0@@Z DD 0ffffffffH
	DD	FLAT:__unwindfunclet$??0?$CEncrypt@M@@QAE@ABV0@@Z$0
__ehfuncinfo$??0?$CEncrypt@M@@QAE@ABV0@@Z DD 019930522H
	DD	01H
	DD	FLAT:__unwindtable$??0?$CEncrypt@M@@QAE@ABV0@@Z
	DD	2 DUP(00H)
	DD	2 DUP(00H)
	DD	00H
	DD	01H
; Function compile flags: /Ogsp
xdata$x	ENDS
;	COMDAT ??0?$CEncrypt@M@@QAE@ABV0@@Z
_TEXT	SEGMENT
_this$ = -16						; size = 4
__$EHRec$ = -12						; size = 12
_value$577872 = 8					; size = 4
_value$577867 = 8					; size = 4
_inValue$ = 8						; size = 4
??0?$CEncrypt@M@@QAE@ABV0@@Z PROC			; CEncrypt<float>::CEncrypt<float>, COMDAT
; _this$ = ecx

; 120  : 	CEncrypt( const CEncrypt<type> &inValue )   //     

  00000	6a 04		 push	 4
  00002	b8 00 00 00 00	 mov	 eax, __ehhandler$??0?$CEncrypt@M@@QAE@ABV0@@Z
  00007	e8 00 00 00 00	 call	 __EH_prolog3
  0000c	8b f1		 mov	 esi, ecx
  0000e	89 75 f0	 mov	 DWORD PTR _this$[ebp], esi
  00011	8d 4e 0c	 lea	 ecx, DWORD PTR [esi+12]
  00014	c7 06 00 00 00
	00		 mov	 DWORD PTR [esi], OFFSET ??_7?$CEncrypt@M@@6B@
  0001a	e8 00 00 00 00	 call	 ??0ccddaabb@@QAE@XZ	; ccddaabb::ccddaabb
  0001f	83 65 fc 00	 and	 DWORD PTR __$EHRec$[ebp+8], 0

; 121  : 	{
; 122  : 		Init();

  00023	8b ce		 mov	 ecx, esi
  00025	e8 00 00 00 00	 call	 ?Init@?$CEncrypt@M@@AAEXXZ ; CEncrypt<float>::Init

; 123  : 		*this = inValue;

  0002a	8b 4d 08	 mov	 ecx, DWORD PTR _inValue$[ebp]
  0002d	8d 45 08	 lea	 eax, DWORD PTR _value$577867[ebp]
  00030	50		 push	 eax
  00031	e8 00 00 00 00	 call	 ?DecryptValueToPool@?$CEncrypt@M@@QAEXPAM@Z ; CEncrypt<float>::DecryptValueToPool
  00036	f3 0f 10 45 08	 movss	 xmm0, DWORD PTR _value$577867[ebp]
  0003b	8d 45 08	 lea	 eax, DWORD PTR _value$577872[ebp]
  0003e	50		 push	 eax
  0003f	8b ce		 mov	 ecx, esi
  00041	f3 0f 11 45 08	 movss	 DWORD PTR _value$577872[ebp], xmm0
  00046	e8 00 00 00 00	 call	 ?EncryptValueToPool@?$CEncrypt@M@@AAEXPBD@Z ; CEncrypt<float>::EncryptValueToPool

; 124  : 	}

  0004b	8b c6		 mov	 eax, esi
  0004d	e8 00 00 00 00	 call	 __EH_epilog3
  00052	c2 04 00	 ret	 4
_TEXT	ENDS
;	COMDAT text$x
text$x	SEGMENT
__unwindfunclet$??0?$CEncrypt@M@@QAE@ABV0@@Z$0:
  00000	8b 4d f0	 mov	 ecx, DWORD PTR _this$[ebp]
  00003	83 c1 0c	 add	 ecx, 12			; 0000000cH
  00006	e9 00 00 00 00	 jmp	 ??1ccddaabb@@UAE@XZ	; ccddaabb::~ccddaabb
__ehhandler$??0?$CEncrypt@M@@QAE@ABV0@@Z:
  0000b	8b 54 24 08	 mov	 edx, DWORD PTR [esp+8]
  0000f	8d 42 0c	 lea	 eax, DWORD PTR [edx+12]
  00012	8b 4a ec	 mov	 ecx, DWORD PTR [edx-20]
  00015	33 c8		 xor	 ecx, eax
  00017	e8 00 00 00 00	 call	 @__security_check_cookie@4
  0001c	b8 00 00 00 00	 mov	 eax, OFFSET __ehfuncinfo$??0?$CEncrypt@M@@QAE@ABV0@@Z
  00021	e9 00 00 00 00	 jmp	 ___CxxFrameHandler3
text$x	ENDS
??0?$CEncrypt@M@@QAE@ABV0@@Z ENDP			; CEncrypt<float>::CEncrypt<float>
PUBLIC	??0?$vector@UBuffInfoStruct@@V?$allocator@UBuffInfoStruct@@@std@@@std@@QAE@XZ ; std::vector<BuffInfoStruct,std::allocator<BuffInfoStruct> >::vector<BuffInfoStruct,std::allocator<BuffInfoStruct> >
; Function compile flags: /Ogsp
; File c:\program files (x86)\microsoft visual studio 10.0\vc\include\vector
;	COMDAT ??0?$vector@UBuffInfoStruct@@V?$allocator@UBuffInfoStruct@@@std@@@std@@QAE@XZ
_TEXT	SEGMENT
??0?$vector@UBuffInfoStruct@@V?$allocator@UBuffInfoStruct@@@std@@@std@@QAE@XZ PROC ; std::vector<BuffInfoStruct,std::allocator<BuffInfoStruct> >::vector<BuffInfoStruct,std::allocator<BuffInfoStruct> >, COMDAT
; _this$ = ecx

; 507  : 		{	// construct empty vector

  00000	8b c1		 mov	 eax, ecx
  00002	33 c9		 xor	 ecx, ecx
  00004	89 08		 mov	 DWORD PTR [eax], ecx
  00006	89 48 04	 mov	 DWORD PTR [eax+4], ecx
  00009	89 48 08	 mov	 DWORD PTR [eax+8], ecx

; 508  : 		}

  0000c	c3		 ret	 0
??0?$vector@UBuffInfoStruct@@V?$allocator@UBuffInfoStruct@@@std@@@std@@QAE@XZ ENDP ; std::vector<BuffInfoStruct,std::allocator<BuffInfoStruct> >::vector<BuffInfoStruct,std::allocator<BuffInfoStruct> >
_TEXT	ENDS
PUBLIC	?begin@?$vector@UBuffInfoStruct@@V?$allocator@UBuffInfoStruct@@@std@@@std@@QAE?AV?$_Vector_iterator@V?$_Vector_val@UBuffInfoStruct@@V?$allocator@UBuffInfoStruct@@@std@@@std@@@2@XZ ; std::vector<BuffInfoStruct,std::allocator<BuffInfoStruct> >::begin
; Function compile flags: /Ogsp
;	COMDAT ?begin@?$vector@UBuffInfoStruct@@V?$allocator@UBuffInfoStruct@@@std@@@std@@QAE?AV?$_Vector_iterator@V?$_Vector_val@UBuffInfoStruct@@V?$allocator@UBuffInfoStruct@@@std@@@std@@@2@XZ
_TEXT	SEGMENT
___$ReturnUdt$ = 8					; size = 4
?begin@?$vector@UBuffInfoStruct@@V?$allocator@UBuffInfoStruct@@@std@@@std@@QAE?AV?$_Vector_iterator@V?$_Vector_val@UBuffInfoStruct@@V?$allocator@UBuffInfoStruct@@@std@@@std@@@2@XZ PROC ; std::vector<BuffInfoStruct,std::allocator<BuffInfoStruct> >::begin, COMDAT
; _this$ = ecx

; 781  : 		{	// return iterator for beginning of mutable sequence

  00000	55		 push	 ebp
  00001	8b ec		 mov	 ebp, esp

; 782  : 		return (iterator(this->_Myfirst, this));

  00003	8b 09		 mov	 ecx, DWORD PTR [ecx]
  00005	8b 45 08	 mov	 eax, DWORD PTR ___$ReturnUdt$[ebp]
  00008	89 08		 mov	 DWORD PTR [eax], ecx

; 783  : 		}

  0000a	5d		 pop	 ebp
  0000b	c2 04 00	 ret	 4
?begin@?$vector@UBuffInfoStruct@@V?$allocator@UBuffInfoStruct@@@std@@@std@@QAE?AV?$_Vector_iterator@V?$_Vector_val@UBuffInfoStruct@@V?$allocator@UBuffInfoStruct@@@std@@@std@@@2@XZ ENDP ; std::vector<BuffInfoStruct,std::allocator<BuffInfoStruct> >::begin
_TEXT	ENDS
PUBLIC	?end@?$vector@UBuffInfoStruct@@V?$allocator@UBuffInfoStruct@@@std@@@std@@QAE?AV?$_Vector_iterator@V?$_Vector_val@UBuffInfoStruct@@V?$allocator@UBuffInfoStruct@@@std@@@std@@@2@XZ ; std::vector<BuffInfoStruct,std::allocator<BuffInfoStruct> >::end
; Function compile flags: /Ogsp
;	COMDAT ?end@?$vector@UBuffInfoStruct@@V?$allocator@UBuffInfoStruct@@@std@@@std@@QAE?AV?$_Vector_iterator@V?$_Vector_val@UBuffInfoStruct@@V?$allocator@UBuffInfoStruct@@@std@@@std@@@2@XZ
_TEXT	SEGMENT
___$ReturnUdt$ = 8					; size = 4
?end@?$vector@UBuffInfoStruct@@V?$allocator@UBuffInfoStruct@@@std@@@std@@QAE?AV?$_Vector_iterator@V?$_Vector_val@UBuffInfoStruct@@V?$allocator@UBuffInfoStruct@@@std@@@std@@@2@XZ PROC ; std::vector<BuffInfoStruct,std::allocator<BuffInfoStruct> >::end, COMDAT
; _this$ = ecx

; 791  : 		{	// return iterator for end of mutable sequence

  00000	55		 push	 ebp
  00001	8b ec		 mov	 ebp, esp

; 792  : 		return (iterator(this->_Mylast, this));

  00003	8b 49 04	 mov	 ecx, DWORD PTR [ecx+4]
  00006	8b 45 08	 mov	 eax, DWORD PTR ___$ReturnUdt$[ebp]
  00009	89 08		 mov	 DWORD PTR [eax], ecx

; 793  : 		}

  0000b	5d		 pop	 ebp
  0000c	c2 04 00	 ret	 4
?end@?$vector@UBuffInfoStruct@@V?$allocator@UBuffInfoStruct@@@std@@@std@@QAE?AV?$_Vector_iterator@V?$_Vector_val@UBuffInfoStruct@@V?$allocator@UBuffInfoStruct@@@std@@@std@@@2@XZ ENDP ; std::vector<BuffInfoStruct,std::allocator<BuffInfoStruct> >::end
_TEXT	ENDS
PUBLIC	?_Buy@?$vector@UBuffInfoStruct@@V?$allocator@UBuffInfoStruct@@@std@@@std@@IAE_NI@Z ; std::vector<BuffInfoStruct,std::allocator<BuffInfoStruct> >::_Buy
; Function compile flags: /Ogsp
;	COMDAT ?_Buy@?$vector@UBuffInfoStruct@@V?$allocator@UBuffInfoStruct@@@std@@@std@@IAE_NI@Z
_TEXT	SEGMENT
__Capacity$ = 8						; size = 4
?_Buy@?$vector@UBuffInfoStruct@@V?$allocator@UBuffInfoStruct@@@std@@@std@@IAE_NI@Z PROC ; std::vector<BuffInfoStruct,std::allocator<BuffInfoStruct> >::_Buy, COMDAT
; _this$ = ecx

; 1250 : 		{	// allocate array with _Capacity elements

  00000	55		 push	 ebp
  00001	8b ec		 mov	 ebp, esp
  00003	56		 push	 esi

; 1251 : 		this->_Myfirst = 0;

  00004	33 c0		 xor	 eax, eax
  00006	57		 push	 edi

; 1252 : 		this->_Mylast = 0;
; 1253 : 		this->_Myend = 0;
; 1254 : 
; 1255 : 		if (_Capacity == 0)

  00007	8b 7d 08	 mov	 edi, DWORD PTR __Capacity$[ebp]
  0000a	8b f1		 mov	 esi, ecx
  0000c	89 06		 mov	 DWORD PTR [esi], eax
  0000e	89 46 04	 mov	 DWORD PTR [esi+4], eax
  00011	89 46 08	 mov	 DWORD PTR [esi+8], eax
  00014	3b f8		 cmp	 edi, eax
  00016	75 04		 jne	 SHORT $LN4@Buy

; 1256 : 			return (false);

  00018	32 c0		 xor	 al, al
  0001a	eb 2b		 jmp	 SHORT $LN5@Buy
$LN4@Buy:

; 1257 : 		else if (max_size() < _Capacity)

  0001c	81 ff cc cc cc
	0c		 cmp	 edi, 214748364		; 0cccccccH
  00022	76 0b		 jbe	 SHORT $LN2@Buy

; 1258 : 			_Xlen();	// result too long

  00024	68 00 00 00 00	 push	 OFFSET ??_C@_0BD@OLBABOEK@vector?$DMT?$DO?5too?5long?$AA@
  00029	ff 15 00 00 00
	00		 call	 DWORD PTR __imp_?_Xlength_error@std@@YAXPBD@Z
$LN19@Buy:
$LN2@Buy:

; 1259 : 		else
; 1260 : 			{	// nonempty array, allocate storage
; 1261 : 			this->_Myfirst = this->_Alval.allocate(_Capacity);

  0002f	50		 push	 eax
  00030	57		 push	 edi
  00031	e8 00 00 00 00	 call	 ??$_Allocate@UBuffInfoStruct@@@std@@YAPAUBuffInfoStruct@@IPAU1@@Z ; std::_Allocate<BuffInfoStruct>

; 1262 : 			this->_Mylast = this->_Myfirst;
; 1263 : 			this->_Myend = this->_Myfirst + _Capacity;

  00036	6b ff 14	 imul	 edi, 20			; 00000014H
  00039	03 f8		 add	 edi, eax
  0003b	59		 pop	 ecx
  0003c	89 06		 mov	 DWORD PTR [esi], eax
  0003e	89 46 04	 mov	 DWORD PTR [esi+4], eax
  00041	59		 pop	 ecx
  00042	89 7e 08	 mov	 DWORD PTR [esi+8], edi

; 1264 : 			}
; 1265 : 		return (true);

  00045	b0 01		 mov	 al, 1
$LN5@Buy:
  00047	5f		 pop	 edi
  00048	5e		 pop	 esi

; 1266 : 		}

  00049	5d		 pop	 ebp
  0004a	c2 04 00	 ret	 4
$LN18@Buy:
?_Buy@?$vector@UBuffInfoStruct@@V?$allocator@UBuffInfoStruct@@@std@@@std@@IAE_NI@Z ENDP ; std::vector<BuffInfoStruct,std::allocator<BuffInfoStruct> >::_Buy
_TEXT	ENDS
PUBLIC	?_Make_iter@?$vector@UBuffInfoStruct@@V?$allocator@UBuffInfoStruct@@@std@@@std@@QBE?AV?$_Vector_iterator@V?$_Vector_val@UBuffInfoStruct@@V?$allocator@UBuffInfoStruct@@@std@@@std@@@2@V?$_Vector_const_iterator@V?$_Vector_val@UBuffInfoStruct@@V?$allocator@UBuffInfoStruct@@@std@@@std@@@2@@Z ; std::vector<BuffInfoStruct,std::allocator<BuffInfoStruct> >::_Make_iter
; Function compile flags: /Ogsp
;	COMDAT ?_Make_iter@?$vector@UBuffInfoStruct@@V?$allocator@UBuffInfoStruct@@@std@@@std@@QBE?AV?$_Vector_iterator@V?$_Vector_val@UBuffInfoStruct@@V?$allocator@UBuffInfoStruct@@@std@@@std@@@2@V?$_Vector_const_iterator@V?$_Vector_val@UBuffInfoStruct@@V?$allocator@UBuffInfoStruct@@@std@@@std@@@2@@Z
_TEXT	SEGMENT
___$ReturnUdt$ = 8					; size = 4
__Where$ = 12						; size = 4
?_Make_iter@?$vector@UBuffInfoStruct@@V?$allocator@UBuffInfoStruct@@@std@@@std@@QBE?AV?$_Vector_iterator@V?$_Vector_val@UBuffInfoStruct@@V?$allocator@UBuffInfoStruct@@@std@@@std@@@2@V?$_Vector_const_iterator@V?$_Vector_val@UBuffInfoStruct@@V?$allocator@UBuffInfoStruct@@@std@@@std@@@2@@Z PROC ; std::vector<BuffInfoStruct,std::allocator<BuffInfoStruct> >::_Make_iter, COMDAT
; _this$ = ecx

; 801  : 		{	// make iterator from const_iterator

  00000	55		 push	 ebp
  00001	8b ec		 mov	 ebp, esp

; 802  : 		return (iterator(_Where._Ptr, this));

  00003	8b 45 08	 mov	 eax, DWORD PTR ___$ReturnUdt$[ebp]
  00006	8b 4d 0c	 mov	 ecx, DWORD PTR __Where$[ebp]
  00009	89 08		 mov	 DWORD PTR [eax], ecx

; 803  : 		}

  0000b	5d		 pop	 ebp
  0000c	c2 08 00	 ret	 8
?_Make_iter@?$vector@UBuffInfoStruct@@V?$allocator@UBuffInfoStruct@@@std@@@std@@QBE?AV?$_Vector_iterator@V?$_Vector_val@UBuffInfoStruct@@V?$allocator@UBuffInfoStruct@@@std@@@std@@@2@V?$_Vector_const_iterator@V?$_Vector_val@UBuffInfoStruct@@V?$allocator@UBuffInfoStruct@@@std@@@std@@@2@@Z ENDP ; std::vector<BuffInfoStruct,std::allocator<BuffInfoStruct> >::_Make_iter
_TEXT	ENDS
PUBLIC	??9?$_Vector_const_iterator@V?$_Vector_val@UBuffInfoStruct@@V?$allocator@UBuffInfoStruct@@@std@@@std@@@std@@QBE_NABV01@@Z ; std::_Vector_const_iterator<std::_Vector_val<BuffInfoStruct,std::allocator<BuffInfoStruct> > >::operator!=
; Function compile flags: /Ogsp
;	COMDAT ??9?$_Vector_const_iterator@V?$_Vector_val@UBuffInfoStruct@@V?$allocator@UBuffInfoStruct@@@std@@@std@@@std@@QBE_NABV01@@Z
_TEXT	SEGMENT
__Right$ = 8						; size = 4
??9?$_Vector_const_iterator@V?$_Vector_val@UBuffInfoStruct@@V?$allocator@UBuffInfoStruct@@@std@@@std@@@std@@QBE_NABV01@@Z PROC ; std::_Vector_const_iterator<std::_Vector_val<BuffInfoStruct,std::allocator<BuffInfoStruct> > >::operator!=, COMDAT
; _this$ = ecx

; 207  : 		{	// test for iterator inequality

  00000	55		 push	 ebp
  00001	8b ec		 mov	 ebp, esp

; 208  : 		return (!(*this == _Right));

  00003	8b 01		 mov	 eax, DWORD PTR [ecx]
  00005	8b 55 08	 mov	 edx, DWORD PTR __Right$[ebp]
  00008	33 c9		 xor	 ecx, ecx
  0000a	3b 02		 cmp	 eax, DWORD PTR [edx]
  0000c	0f 95 c0	 setne	 al

; 209  : 		}

  0000f	5d		 pop	 ebp
  00010	c2 04 00	 ret	 4
??9?$_Vector_const_iterator@V?$_Vector_val@UBuffInfoStruct@@V?$allocator@UBuffInfoStruct@@@std@@@std@@@std@@QBE_NABV01@@Z ENDP ; std::_Vector_const_iterator<std::_Vector_val<BuffInfoStruct,std::allocator<BuffInfoStruct> > >::operator!=
_TEXT	ENDS
PUBLIC	??$_Move@PAUBuffInfoStruct@@PAU1@@std@@YAPAUBuffInfoStruct@@PAU1@00@Z ; std::_Move<BuffInfoStruct *,BuffInfoStruct *>
; Function compile flags: /Ogsp
; File c:\program files (x86)\microsoft visual studio 10.0\vc\include\xutility
;	COMDAT ??$_Move@PAUBuffInfoStruct@@PAU1@@std@@YAPAUBuffInfoStruct@@PAU1@00@Z
_TEXT	SEGMENT
__Cat$577992 = -4					; size = 1
__First$ = 8						; size = 4
__Last$ = 12						; size = 4
__Dest$ = 16						; size = 4
??$_Move@PAUBuffInfoStruct@@PAU1@@std@@YAPAUBuffInfoStruct@@PAU1@00@Z PROC ; std::_Move<BuffInfoStruct *,BuffInfoStruct *>, COMDAT

; 2533 : 	{	// move [_First, _Last) to [_Dest, ...), unchecked

  00000	55		 push	 ebp
  00001	8b ec		 mov	 ebp, esp
  00003	51		 push	 ecx

; 2534 : 	return (_Move(_First, _Last,
; 2535 : 		_Dest, _Ptr_cat(_First, _Dest)));

  00004	ff 75 fc	 push	 DWORD PTR __Cat$577992[ebp]
  00007	ff 75 10	 push	 DWORD PTR __Dest$[ebp]
  0000a	ff 75 0c	 push	 DWORD PTR __Last$[ebp]
  0000d	ff 75 08	 push	 DWORD PTR __First$[ebp]
  00010	e8 00 00 00 00	 call	 ??$_Move@PAUBuffInfoStruct@@PAU1@@std@@YAPAUBuffInfoStruct@@PAU1@00U_Nonscalar_ptr_iterator_tag@0@@Z ; std::_Move<BuffInfoStruct *,BuffInfoStruct *>
  00015	83 c4 10	 add	 esp, 16			; 00000010H

; 2536 : 	}

  00018	c9		 leave
  00019	c3		 ret	 0
??$_Move@PAUBuffInfoStruct@@PAU1@@std@@YAPAUBuffInfoStruct@@PAU1@00@Z ENDP ; std::_Move<BuffInfoStruct *,BuffInfoStruct *>
_TEXT	ENDS
PUBLIC	?_Buy@?$vector@UWeaponInfo@@V?$allocator@UWeaponInfo@@@std@@@std@@IAE_NI@Z ; std::vector<WeaponInfo,std::allocator<WeaponInfo> >::_Buy
; Function compile flags: /Ogsp
; File c:\program files (x86)\microsoft visual studio 10.0\vc\include\vector
;	COMDAT ?_Buy@?$vector@UWeaponInfo@@V?$allocator@UWeaponInfo@@@std@@@std@@IAE_NI@Z
_TEXT	SEGMENT
__Capacity$ = 8						; size = 4
?_Buy@?$vector@UWeaponInfo@@V?$allocator@UWeaponInfo@@@std@@@std@@IAE_NI@Z PROC ; std::vector<WeaponInfo,std::allocator<WeaponInfo> >::_Buy, COMDAT
; _this$ = ecx

; 1250 : 		{	// allocate array with _Capacity elements

  00000	55		 push	 ebp
  00001	8b ec		 mov	 ebp, esp
  00003	56		 push	 esi

; 1251 : 		this->_Myfirst = 0;

  00004	33 c0		 xor	 eax, eax
  00006	57		 push	 edi

; 1252 : 		this->_Mylast = 0;
; 1253 : 		this->_Myend = 0;
; 1254 : 
; 1255 : 		if (_Capacity == 0)

  00007	8b 7d 08	 mov	 edi, DWORD PTR __Capacity$[ebp]
  0000a	8b f1		 mov	 esi, ecx
  0000c	89 06		 mov	 DWORD PTR [esi], eax
  0000e	89 46 04	 mov	 DWORD PTR [esi+4], eax
  00011	89 46 08	 mov	 DWORD PTR [esi+8], eax
  00014	3b f8		 cmp	 edi, eax
  00016	75 04		 jne	 SHORT $LN4@Buy@2

; 1256 : 			return (false);

  00018	32 c0		 xor	 al, al
  0001a	eb 2b		 jmp	 SHORT $LN5@Buy@2
$LN4@Buy@2:

; 1257 : 		else if (max_size() < _Capacity)

  0001c	81 ff 66 66 66
	06		 cmp	 edi, 107374182		; 06666666H
  00022	76 0b		 jbe	 SHORT $LN2@Buy@2

; 1258 : 			_Xlen();	// result too long

  00024	68 00 00 00 00	 push	 OFFSET ??_C@_0BD@OLBABOEK@vector?$DMT?$DO?5too?5long?$AA@
  00029	ff 15 00 00 00
	00		 call	 DWORD PTR __imp_?_Xlength_error@std@@YAXPBD@Z
$LN19@Buy@2:
$LN2@Buy@2:

; 1259 : 		else
; 1260 : 			{	// nonempty array, allocate storage
; 1261 : 			this->_Myfirst = this->_Alval.allocate(_Capacity);

  0002f	50		 push	 eax
  00030	57		 push	 edi
  00031	e8 00 00 00 00	 call	 ??$_Allocate@UWeaponInfo@@@std@@YAPAUWeaponInfo@@IPAU1@@Z ; std::_Allocate<WeaponInfo>

; 1262 : 			this->_Mylast = this->_Myfirst;
; 1263 : 			this->_Myend = this->_Myfirst + _Capacity;

  00036	6b ff 28	 imul	 edi, 40			; 00000028H
  00039	03 f8		 add	 edi, eax
  0003b	59		 pop	 ecx
  0003c	89 06		 mov	 DWORD PTR [esi], eax
  0003e	89 46 04	 mov	 DWORD PTR [esi+4], eax
  00041	59		 pop	 ecx
  00042	89 7e 08	 mov	 DWORD PTR [esi+8], edi

; 1264 : 			}
; 1265 : 		return (true);

  00045	b0 01		 mov	 al, 1
$LN5@Buy@2:
  00047	5f		 pop	 edi
  00048	5e		 pop	 esi

; 1266 : 		}

  00049	5d		 pop	 ebp
  0004a	c2 04 00	 ret	 4
$LN18@Buy@2:
?_Buy@?$vector@UWeaponInfo@@V?$allocator@UWeaponInfo@@@std@@@std@@IAE_NI@Z ENDP ; std::vector<WeaponInfo,std::allocator<WeaponInfo> >::_Buy
_TEXT	ENDS
PUBLIC	?_Buy@?$vector@UForceInfo@@V?$allocator@UForceInfo@@@std@@@std@@IAE_NI@Z ; std::vector<ForceInfo,std::allocator<ForceInfo> >::_Buy
; Function compile flags: /Ogsp
;	COMDAT ?_Buy@?$vector@UForceInfo@@V?$allocator@UForceInfo@@@std@@@std@@IAE_NI@Z
_TEXT	SEGMENT
__Capacity$ = 8						; size = 4
?_Buy@?$vector@UForceInfo@@V?$allocator@UForceInfo@@@std@@@std@@IAE_NI@Z PROC ; std::vector<ForceInfo,std::allocator<ForceInfo> >::_Buy, COMDAT
; _this$ = ecx

; 1250 : 		{	// allocate array with _Capacity elements

  00000	55		 push	 ebp
  00001	8b ec		 mov	 ebp, esp
  00003	56		 push	 esi

; 1251 : 		this->_Myfirst = 0;

  00004	33 c0		 xor	 eax, eax
  00006	57		 push	 edi

; 1252 : 		this->_Mylast = 0;
; 1253 : 		this->_Myend = 0;
; 1254 : 
; 1255 : 		if (_Capacity == 0)

  00007	8b 7d 08	 mov	 edi, DWORD PTR __Capacity$[ebp]
  0000a	8b f1		 mov	 esi, ecx
  0000c	89 06		 mov	 DWORD PTR [esi], eax
  0000e	89 46 04	 mov	 DWORD PTR [esi+4], eax
  00011	89 46 08	 mov	 DWORD PTR [esi+8], eax
  00014	3b f8		 cmp	 edi, eax
  00016	75 04		 jne	 SHORT $LN4@Buy@3

; 1256 : 			return (false);

  00018	32 c0		 xor	 al, al
  0001a	eb 2b		 jmp	 SHORT $LN5@Buy@3
$LN4@Buy@3:

; 1257 : 		else if (max_size() < _Capacity)

  0001c	81 ff 55 55 55
	15		 cmp	 edi, 357913941		; 15555555H
  00022	76 0b		 jbe	 SHORT $LN2@Buy@3

; 1258 : 			_Xlen();	// result too long

  00024	68 00 00 00 00	 push	 OFFSET ??_C@_0BD@OLBABOEK@vector?$DMT?$DO?5too?5long?$AA@
  00029	ff 15 00 00 00
	00		 call	 DWORD PTR __imp_?_Xlength_error@std@@YAXPBD@Z
$LN19@Buy@3:
$LN2@Buy@3:

; 1259 : 		else
; 1260 : 			{	// nonempty array, allocate storage
; 1261 : 			this->_Myfirst = this->_Alval.allocate(_Capacity);

  0002f	50		 push	 eax
  00030	57		 push	 edi
  00031	e8 00 00 00 00	 call	 ??$_Allocate@UForceInfo@@@std@@YAPAUForceInfo@@IPAU1@@Z ; std::_Allocate<ForceInfo>

; 1262 : 			this->_Mylast = this->_Myfirst;
; 1263 : 			this->_Myend = this->_Myfirst + _Capacity;

  00036	6b ff 0c	 imul	 edi, 12			; 0000000cH
  00039	03 f8		 add	 edi, eax
  0003b	59		 pop	 ecx
  0003c	89 06		 mov	 DWORD PTR [esi], eax
  0003e	89 46 04	 mov	 DWORD PTR [esi+4], eax
  00041	59		 pop	 ecx
  00042	89 7e 08	 mov	 DWORD PTR [esi+8], edi

; 1264 : 			}
; 1265 : 		return (true);

  00045	b0 01		 mov	 al, 1
$LN5@Buy@3:
  00047	5f		 pop	 edi
  00048	5e		 pop	 esi

; 1266 : 		}

  00049	5d		 pop	 ebp
  0004a	c2 04 00	 ret	 4
$LN18@Buy@3:
?_Buy@?$vector@UForceInfo@@V?$allocator@UForceInfo@@@std@@@std@@IAE_NI@Z ENDP ; std::vector<ForceInfo,std::allocator<ForceInfo> >::_Buy
_TEXT	ENDS
PUBLIC	?begin@?$vector@UWeaponInfo@@V?$allocator@UWeaponInfo@@@std@@@std@@QAE?AV?$_Vector_iterator@V?$_Vector_val@UWeaponInfo@@V?$allocator@UWeaponInfo@@@std@@@std@@@2@XZ ; std::vector<WeaponInfo,std::allocator<WeaponInfo> >::begin
; Function compile flags: /Ogsp
;	COMDAT ?begin@?$vector@UWeaponInfo@@V?$allocator@UWeaponInfo@@@std@@@std@@QAE?AV?$_Vector_iterator@V?$_Vector_val@UWeaponInfo@@V?$allocator@UWeaponInfo@@@std@@@std@@@2@XZ
_TEXT	SEGMENT
___$ReturnUdt$ = 8					; size = 4
?begin@?$vector@UWeaponInfo@@V?$allocator@UWeaponInfo@@@std@@@std@@QAE?AV?$_Vector_iterator@V?$_Vector_val@UWeaponInfo@@V?$allocator@UWeaponInfo@@@std@@@std@@@2@XZ PROC ; std::vector<WeaponInfo,std::allocator<WeaponInfo> >::begin, COMDAT
; _this$ = ecx

; 781  : 		{	// return iterator for beginning of mutable sequence

  00000	55		 push	 ebp
  00001	8b ec		 mov	 ebp, esp

; 782  : 		return (iterator(this->_Myfirst, this));

  00003	8b 09		 mov	 ecx, DWORD PTR [ecx]
  00005	8b 45 08	 mov	 eax, DWORD PTR ___$ReturnUdt$[ebp]
  00008	89 08		 mov	 DWORD PTR [eax], ecx

; 783  : 		}

  0000a	5d		 pop	 ebp
  0000b	c2 04 00	 ret	 4
?begin@?$vector@UWeaponInfo@@V?$allocator@UWeaponInfo@@@std@@@std@@QAE?AV?$_Vector_iterator@V?$_Vector_val@UWeaponInfo@@V?$allocator@UWeaponInfo@@@std@@@std@@@2@XZ ENDP ; std::vector<WeaponInfo,std::allocator<WeaponInfo> >::begin
_TEXT	ENDS
PUBLIC	?end@?$vector@UWeaponInfo@@V?$allocator@UWeaponInfo@@@std@@@std@@QAE?AV?$_Vector_iterator@V?$_Vector_val@UWeaponInfo@@V?$allocator@UWeaponInfo@@@std@@@std@@@2@XZ ; std::vector<WeaponInfo,std::allocator<WeaponInfo> >::end
; Function compile flags: /Ogsp
;	COMDAT ?end@?$vector@UWeaponInfo@@V?$allocator@UWeaponInfo@@@std@@@std@@QAE?AV?$_Vector_iterator@V?$_Vector_val@UWeaponInfo@@V?$allocator@UWeaponInfo@@@std@@@std@@@2@XZ
_TEXT	SEGMENT
___$ReturnUdt$ = 8					; size = 4
?end@?$vector@UWeaponInfo@@V?$allocator@UWeaponInfo@@@std@@@std@@QAE?AV?$_Vector_iterator@V?$_Vector_val@UWeaponInfo@@V?$allocator@UWeaponInfo@@@std@@@std@@@2@XZ PROC ; std::vector<WeaponInfo,std::allocator<WeaponInfo> >::end, COMDAT
; _this$ = ecx

; 791  : 		{	// return iterator for end of mutable sequence

  00000	55		 push	 ebp
  00001	8b ec		 mov	 ebp, esp

; 792  : 		return (iterator(this->_Mylast, this));

  00003	8b 49 04	 mov	 ecx, DWORD PTR [ecx+4]
  00006	8b 45 08	 mov	 eax, DWORD PTR ___$ReturnUdt$[ebp]
  00009	89 08		 mov	 DWORD PTR [eax], ecx

; 793  : 		}

  0000b	5d		 pop	 ebp
  0000c	c2 04 00	 ret	 4
?end@?$vector@UWeaponInfo@@V?$allocator@UWeaponInfo@@@std@@@std@@QAE?AV?$_Vector_iterator@V?$_Vector_val@UWeaponInfo@@V?$allocator@UWeaponInfo@@@std@@@std@@@2@XZ ENDP ; std::vector<WeaponInfo,std::allocator<WeaponInfo> >::end
_TEXT	ENDS
PUBLIC	?begin@?$vector@UForceInfo@@V?$allocator@UForceInfo@@@std@@@std@@QAE?AV?$_Vector_iterator@V?$_Vector_val@UForceInfo@@V?$allocator@UForceInfo@@@std@@@std@@@2@XZ ; std::vector<ForceInfo,std::allocator<ForceInfo> >::begin
; Function compile flags: /Ogsp
;	COMDAT ?begin@?$vector@UForceInfo@@V?$allocator@UForceInfo@@@std@@@std@@QAE?AV?$_Vector_iterator@V?$_Vector_val@UForceInfo@@V?$allocator@UForceInfo@@@std@@@std@@@2@XZ
_TEXT	SEGMENT
___$ReturnUdt$ = 8					; size = 4
?begin@?$vector@UForceInfo@@V?$allocator@UForceInfo@@@std@@@std@@QAE?AV?$_Vector_iterator@V?$_Vector_val@UForceInfo@@V?$allocator@UForceInfo@@@std@@@std@@@2@XZ PROC ; std::vector<ForceInfo,std::allocator<ForceInfo> >::begin, COMDAT
; _this$ = ecx

; 781  : 		{	// return iterator for beginning of mutable sequence

  00000	55		 push	 ebp
  00001	8b ec		 mov	 ebp, esp

; 782  : 		return (iterator(this->_Myfirst, this));

  00003	8b 09		 mov	 ecx, DWORD PTR [ecx]
  00005	8b 45 08	 mov	 eax, DWORD PTR ___$ReturnUdt$[ebp]
  00008	89 08		 mov	 DWORD PTR [eax], ecx

; 783  : 		}

  0000a	5d		 pop	 ebp
  0000b	c2 04 00	 ret	 4
?begin@?$vector@UForceInfo@@V?$allocator@UForceInfo@@@std@@@std@@QAE?AV?$_Vector_iterator@V?$_Vector_val@UForceInfo@@V?$allocator@UForceInfo@@@std@@@std@@@2@XZ ENDP ; std::vector<ForceInfo,std::allocator<ForceInfo> >::begin
_TEXT	ENDS
PUBLIC	?end@?$vector@UForceInfo@@V?$allocator@UForceInfo@@@std@@@std@@QAE?AV?$_Vector_iterator@V?$_Vector_val@UForceInfo@@V?$allocator@UForceInfo@@@std@@@std@@@2@XZ ; std::vector<ForceInfo,std::allocator<ForceInfo> >::end
; Function compile flags: /Ogsp
;	COMDAT ?end@?$vector@UForceInfo@@V?$allocator@UForceInfo@@@std@@@std@@QAE?AV?$_Vector_iterator@V?$_Vector_val@UForceInfo@@V?$allocator@UForceInfo@@@std@@@std@@@2@XZ
_TEXT	SEGMENT
___$ReturnUdt$ = 8					; size = 4
?end@?$vector@UForceInfo@@V?$allocator@UForceInfo@@@std@@@std@@QAE?AV?$_Vector_iterator@V?$_Vector_val@UForceInfo@@V?$allocator@UForceInfo@@@std@@@std@@@2@XZ PROC ; std::vector<ForceInfo,std::allocator<ForceInfo> >::end, COMDAT
; _this$ = ecx

; 791  : 		{	// return iterator for end of mutable sequence

  00000	55		 push	 ebp
  00001	8b ec		 mov	 ebp, esp

; 792  : 		return (iterator(this->_Mylast, this));

  00003	8b 49 04	 mov	 ecx, DWORD PTR [ecx+4]
  00006	8b 45 08	 mov	 eax, DWORD PTR ___$ReturnUdt$[ebp]
  00009	89 08		 mov	 DWORD PTR [eax], ecx

; 793  : 		}

  0000b	5d		 pop	 ebp
  0000c	c2 04 00	 ret	 4
?end@?$vector@UForceInfo@@V?$allocator@UForceInfo@@@std@@@std@@QAE?AV?$_Vector_iterator@V?$_Vector_val@UForceInfo@@V?$allocator@UForceInfo@@@std@@@std@@@2@XZ ENDP ; std::vector<ForceInfo,std::allocator<ForceInfo> >::end
_TEXT	ENDS
PUBLIC	?_Make_iter@?$vector@UWeaponInfo@@V?$allocator@UWeaponInfo@@@std@@@std@@QBE?AV?$_Vector_iterator@V?$_Vector_val@UWeaponInfo@@V?$allocator@UWeaponInfo@@@std@@@std@@@2@V?$_Vector_const_iterator@V?$_Vector_val@UWeaponInfo@@V?$allocator@UWeaponInfo@@@std@@@std@@@2@@Z ; std::vector<WeaponInfo,std::allocator<WeaponInfo> >::_Make_iter
; Function compile flags: /Ogsp
;	COMDAT ?_Make_iter@?$vector@UWeaponInfo@@V?$allocator@UWeaponInfo@@@std@@@std@@QBE?AV?$_Vector_iterator@V?$_Vector_val@UWeaponInfo@@V?$allocator@UWeaponInfo@@@std@@@std@@@2@V?$_Vector_const_iterator@V?$_Vector_val@UWeaponInfo@@V?$allocator@UWeaponInfo@@@std@@@std@@@2@@Z
_TEXT	SEGMENT
___$ReturnUdt$ = 8					; size = 4
__Where$ = 12						; size = 4
?_Make_iter@?$vector@UWeaponInfo@@V?$allocator@UWeaponInfo@@@std@@@std@@QBE?AV?$_Vector_iterator@V?$_Vector_val@UWeaponInfo@@V?$allocator@UWeaponInfo@@@std@@@std@@@2@V?$_Vector_const_iterator@V?$_Vector_val@UWeaponInfo@@V?$allocator@UWeaponInfo@@@std@@@std@@@2@@Z PROC ; std::vector<WeaponInfo,std::allocator<WeaponInfo> >::_Make_iter, COMDAT
; _this$ = ecx

; 801  : 		{	// make iterator from const_iterator

  00000	55		 push	 ebp
  00001	8b ec		 mov	 ebp, esp

; 802  : 		return (iterator(_Where._Ptr, this));

  00003	8b 45 08	 mov	 eax, DWORD PTR ___$ReturnUdt$[ebp]
  00006	8b 4d 0c	 mov	 ecx, DWORD PTR __Where$[ebp]
  00009	89 08		 mov	 DWORD PTR [eax], ecx

; 803  : 		}

  0000b	5d		 pop	 ebp
  0000c	c2 08 00	 ret	 8
?_Make_iter@?$vector@UWeaponInfo@@V?$allocator@UWeaponInfo@@@std@@@std@@QBE?AV?$_Vector_iterator@V?$_Vector_val@UWeaponInfo@@V?$allocator@UWeaponInfo@@@std@@@std@@@2@V?$_Vector_const_iterator@V?$_Vector_val@UWeaponInfo@@V?$allocator@UWeaponInfo@@@std@@@std@@@2@@Z ENDP ; std::vector<WeaponInfo,std::allocator<WeaponInfo> >::_Make_iter
_TEXT	ENDS
PUBLIC	?_Make_iter@?$vector@UForceInfo@@V?$allocator@UForceInfo@@@std@@@std@@QBE?AV?$_Vector_iterator@V?$_Vector_val@UForceInfo@@V?$allocator@UForceInfo@@@std@@@std@@@2@V?$_Vector_const_iterator@V?$_Vector_val@UForceInfo@@V?$allocator@UForceInfo@@@std@@@std@@@2@@Z ; std::vector<ForceInfo,std::allocator<ForceInfo> >::_Make_iter
; Function compile flags: /Ogsp
;	COMDAT ?_Make_iter@?$vector@UForceInfo@@V?$allocator@UForceInfo@@@std@@@std@@QBE?AV?$_Vector_iterator@V?$_Vector_val@UForceInfo@@V?$allocator@UForceInfo@@@std@@@std@@@2@V?$_Vector_const_iterator@V?$_Vector_val@UForceInfo@@V?$allocator@UForceInfo@@@std@@@std@@@2@@Z
_TEXT	SEGMENT
___$ReturnUdt$ = 8					; size = 4
__Where$ = 12						; size = 4
?_Make_iter@?$vector@UForceInfo@@V?$allocator@UForceInfo@@@std@@@std@@QBE?AV?$_Vector_iterator@V?$_Vector_val@UForceInfo@@V?$allocator@UForceInfo@@@std@@@std@@@2@V?$_Vector_const_iterator@V?$_Vector_val@UForceInfo@@V?$allocator@UForceInfo@@@std@@@std@@@2@@Z PROC ; std::vector<ForceInfo,std::allocator<ForceInfo> >::_Make_iter, COMDAT
; _this$ = ecx

; 801  : 		{	// make iterator from const_iterator

  00000	55		 push	 ebp
  00001	8b ec		 mov	 ebp, esp

; 802  : 		return (iterator(_Where._Ptr, this));

  00003	8b 45 08	 mov	 eax, DWORD PTR ___$ReturnUdt$[ebp]
  00006	8b 4d 0c	 mov	 ecx, DWORD PTR __Where$[ebp]
  00009	89 08		 mov	 DWORD PTR [eax], ecx

; 803  : 		}

  0000b	5d		 pop	 ebp
  0000c	c2 08 00	 ret	 8
?_Make_iter@?$vector@UForceInfo@@V?$allocator@UForceInfo@@@std@@@std@@QBE?AV?$_Vector_iterator@V?$_Vector_val@UForceInfo@@V?$allocator@UForceInfo@@@std@@@std@@@2@V?$_Vector_const_iterator@V?$_Vector_val@UForceInfo@@V?$allocator@UForceInfo@@@std@@@std@@@2@@Z ENDP ; std::vector<ForceInfo,std::allocator<ForceInfo> >::_Make_iter
_TEXT	ENDS
PUBLIC	??9?$_Vector_const_iterator@V?$_Vector_val@UWeaponInfo@@V?$allocator@UWeaponInfo@@@std@@@std@@@std@@QBE_NABV01@@Z ; std::_Vector_const_iterator<std::_Vector_val<WeaponInfo,std::allocator<WeaponInfo> > >::operator!=
; Function compile flags: /Ogsp
;	COMDAT ??9?$_Vector_const_iterator@V?$_Vector_val@UWeaponInfo@@V?$allocator@UWeaponInfo@@@std@@@std@@@std@@QBE_NABV01@@Z
_TEXT	SEGMENT
__Right$ = 8						; size = 4
??9?$_Vector_const_iterator@V?$_Vector_val@UWeaponInfo@@V?$allocator@UWeaponInfo@@@std@@@std@@@std@@QBE_NABV01@@Z PROC ; std::_Vector_const_iterator<std::_Vector_val<WeaponInfo,std::allocator<WeaponInfo> > >::operator!=, COMDAT
; _this$ = ecx

; 207  : 		{	// test for iterator inequality

  00000	55		 push	 ebp
  00001	8b ec		 mov	 ebp, esp

; 208  : 		return (!(*this == _Right));

  00003	8b 01		 mov	 eax, DWORD PTR [ecx]
  00005	8b 55 08	 mov	 edx, DWORD PTR __Right$[ebp]
  00008	33 c9		 xor	 ecx, ecx
  0000a	3b 02		 cmp	 eax, DWORD PTR [edx]
  0000c	0f 95 c0	 setne	 al

; 209  : 		}

  0000f	5d		 pop	 ebp
  00010	c2 04 00	 ret	 4
??9?$_Vector_const_iterator@V?$_Vector_val@UWeaponInfo@@V?$allocator@UWeaponInfo@@@std@@@std@@@std@@QBE_NABV01@@Z ENDP ; std::_Vector_const_iterator<std::_Vector_val<WeaponInfo,std::allocator<WeaponInfo> > >::operator!=
_TEXT	ENDS
PUBLIC	??9?$_Vector_const_iterator@V?$_Vector_val@UForceInfo@@V?$allocator@UForceInfo@@@std@@@std@@@std@@QBE_NABV01@@Z ; std::_Vector_const_iterator<std::_Vector_val<ForceInfo,std::allocator<ForceInfo> > >::operator!=
; Function compile flags: /Ogsp
;	COMDAT ??9?$_Vector_const_iterator@V?$_Vector_val@UForceInfo@@V?$allocator@UForceInfo@@@std@@@std@@@std@@QBE_NABV01@@Z
_TEXT	SEGMENT
__Right$ = 8						; size = 4
??9?$_Vector_const_iterator@V?$_Vector_val@UForceInfo@@V?$allocator@UForceInfo@@@std@@@std@@@std@@QBE_NABV01@@Z PROC ; std::_Vector_const_iterator<std::_Vector_val<ForceInfo,std::allocator<ForceInfo> > >::operator!=, COMDAT
; _this$ = ecx

; 207  : 		{	// test for iterator inequality

  00000	55		 push	 ebp
  00001	8b ec		 mov	 ebp, esp

; 208  : 		return (!(*this == _Right));

  00003	8b 01		 mov	 eax, DWORD PTR [ecx]
  00005	8b 55 08	 mov	 edx, DWORD PTR __Right$[ebp]
  00008	33 c9		 xor	 ecx, ecx
  0000a	3b 02		 cmp	 eax, DWORD PTR [edx]
  0000c	0f 95 c0	 setne	 al

; 209  : 		}

  0000f	5d		 pop	 ebp
  00010	c2 04 00	 ret	 4
??9?$_Vector_const_iterator@V?$_Vector_val@UForceInfo@@V?$allocator@UForceInfo@@@std@@@std@@@std@@QBE_NABV01@@Z ENDP ; std::_Vector_const_iterator<std::_Vector_val<ForceInfo,std::allocator<ForceInfo> > >::operator!=
_TEXT	ENDS
PUBLIC	??$_Dest_val@V?$allocator@UForceInfo@@@std@@UForceInfo@@@std@@YAXAAV?$allocator@UForceInfo@@@0@PAUForceInfo@@@Z ; std::_Dest_val<std::allocator<ForceInfo>,ForceInfo>
; Function compile flags: /Ogsp
; File c:\program files (x86)\microsoft visual studio 10.0\vc\include\xmemory
;	COMDAT ??$_Dest_val@V?$allocator@UForceInfo@@@std@@UForceInfo@@@std@@YAXAAV?$allocator@UForceInfo@@@0@PAUForceInfo@@@Z
_TEXT	SEGMENT
__Alval$ = 8						; size = 4
__Pdest$ = 12						; size = 4
??$_Dest_val@V?$allocator@UForceInfo@@@std@@UForceInfo@@@std@@YAXAAV?$allocator@UForceInfo@@@0@PAUForceInfo@@@Z PROC ; std::_Dest_val<std::allocator<ForceInfo>,ForceInfo>, COMDAT

; 287  : 	_Alval.destroy(_Pdest);
; 288  : 	}

  00000	c3		 ret	 0
??$_Dest_val@V?$allocator@UForceInfo@@@std@@UForceInfo@@@std@@YAXAAV?$allocator@UForceInfo@@@0@PAUForceInfo@@@Z ENDP ; std::_Dest_val<std::allocator<ForceInfo>,ForceInfo>
_TEXT	ENDS
PUBLIC	??$_Move@PAUWeaponInfo@@PAU1@@std@@YAPAUWeaponInfo@@PAU1@00@Z ; std::_Move<WeaponInfo *,WeaponInfo *>
; Function compile flags: /Ogsp
; File c:\program files (x86)\microsoft visual studio 10.0\vc\include\xutility
;	COMDAT ??$_Move@PAUWeaponInfo@@PAU1@@std@@YAPAUWeaponInfo@@PAU1@00@Z
_TEXT	SEGMENT
__Cat$578191 = -4					; size = 1
__First$ = 8						; size = 4
__Last$ = 12						; size = 4
__Dest$ = 16						; size = 4
??$_Move@PAUWeaponInfo@@PAU1@@std@@YAPAUWeaponInfo@@PAU1@00@Z PROC ; std::_Move<WeaponInfo *,WeaponInfo *>, COMDAT

; 2533 : 	{	// move [_First, _Last) to [_Dest, ...), unchecked

  00000	55		 push	 ebp
  00001	8b ec		 mov	 ebp, esp
  00003	51		 push	 ecx

; 2534 : 	return (_Move(_First, _Last,
; 2535 : 		_Dest, _Ptr_cat(_First, _Dest)));

  00004	ff 75 fc	 push	 DWORD PTR __Cat$578191[ebp]
  00007	ff 75 10	 push	 DWORD PTR __Dest$[ebp]
  0000a	ff 75 0c	 push	 DWORD PTR __Last$[ebp]
  0000d	ff 75 08	 push	 DWORD PTR __First$[ebp]
  00010	e8 00 00 00 00	 call	 ??$_Move@PAUWeaponInfo@@PAU1@@std@@YAPAUWeaponInfo@@PAU1@00U_Nonscalar_ptr_iterator_tag@0@@Z ; std::_Move<WeaponInfo *,WeaponInfo *>
  00015	83 c4 10	 add	 esp, 16			; 00000010H

; 2536 : 	}

  00018	c9		 leave
  00019	c3		 ret	 0
??$_Move@PAUWeaponInfo@@PAU1@@std@@YAPAUWeaponInfo@@PAU1@00@Z ENDP ; std::_Move<WeaponInfo *,WeaponInfo *>
_TEXT	ENDS
PUBLIC	??$_Move@PAUForceInfo@@PAU1@@std@@YAPAUForceInfo@@PAU1@00@Z ; std::_Move<ForceInfo *,ForceInfo *>
; Function compile flags: /Ogsp
;	COMDAT ??$_Move@PAUForceInfo@@PAU1@@std@@YAPAUForceInfo@@PAU1@00@Z
_TEXT	SEGMENT
__Cat$578198 = -4					; size = 1
__First$ = 8						; size = 4
__Last$ = 12						; size = 4
__Dest$ = 16						; size = 4
??$_Move@PAUForceInfo@@PAU1@@std@@YAPAUForceInfo@@PAU1@00@Z PROC ; std::_Move<ForceInfo *,ForceInfo *>, COMDAT

; 2533 : 	{	// move [_First, _Last) to [_Dest, ...), unchecked

  00000	55		 push	 ebp
  00001	8b ec		 mov	 ebp, esp
  00003	51		 push	 ecx

; 2534 : 	return (_Move(_First, _Last,
; 2535 : 		_Dest, _Ptr_cat(_First, _Dest)));

  00004	ff 75 fc	 push	 DWORD PTR __Cat$578198[ebp]
  00007	ff 75 10	 push	 DWORD PTR __Dest$[ebp]
  0000a	ff 75 0c	 push	 DWORD PTR __Last$[ebp]
  0000d	ff 75 08	 push	 DWORD PTR __First$[ebp]
  00010	e8 00 00 00 00	 call	 ??$_Move@PAUForceInfo@@PAU1@@std@@YAPAUForceInfo@@PAU1@00U_Nonscalar_ptr_iterator_tag@0@@Z ; std::_Move<ForceInfo *,ForceInfo *>
  00015	83 c4 10	 add	 esp, 16			; 00000010H

; 2536 : 	}

  00018	c9		 leave
  00019	c3		 ret	 0
??$_Move@PAUForceInfo@@PAU1@@std@@YAPAUForceInfo@@PAU1@00@Z ENDP ; std::_Move<ForceInfo *,ForceInfo *>
_TEXT	ENDS
PUBLIC	?destroy@?$allocator@UWeaponInfo@@@std@@QAEXPAUWeaponInfo@@@Z ; std::allocator<WeaponInfo>::destroy
; Function compile flags: /Ogsp
; File c:\program files (x86)\microsoft visual studio 10.0\vc\include\xmemory
;	COMDAT ?destroy@?$allocator@UWeaponInfo@@@std@@QAEXPAUWeaponInfo@@@Z
_TEXT	SEGMENT
__Ptr$ = 8						; size = 4
?destroy@?$allocator@UWeaponInfo@@@std@@QAEXPAUWeaponInfo@@@Z PROC ; std::allocator<WeaponInfo>::destroy, COMDAT
; _this$ = ecx

; 212  : 		{	// destroy object at _Ptr

  00000	55		 push	 ebp
  00001	8b ec		 mov	 ebp, esp

; 213  : 		_Destroy(_Ptr);

  00003	8b 4d 08	 mov	 ecx, DWORD PTR __Ptr$[ebp]
  00006	83 c1 08	 add	 ecx, 8
  00009	ff 15 00 00 00
	00		 call	 DWORD PTR __imp_??1ioHashString@@QAE@XZ

; 214  : 		}

  0000f	5d		 pop	 ebp
  00010	c2 04 00	 ret	 4
?destroy@?$allocator@UWeaponInfo@@@std@@QAEXPAUWeaponInfo@@@Z ENDP ; std::allocator<WeaponInfo>::destroy
_TEXT	ENDS
PUBLIC	?destroy@?$allocator@UBuffInfoStruct@@@std@@QAEXPAUBuffInfoStruct@@@Z ; std::allocator<BuffInfoStruct>::destroy
; Function compile flags: /Ogsp
;	COMDAT ?destroy@?$allocator@UBuffInfoStruct@@@std@@QAEXPAUBuffInfoStruct@@@Z
_TEXT	SEGMENT
__Ptr$ = 8						; size = 4
?destroy@?$allocator@UBuffInfoStruct@@@std@@QAEXPAUBuffInfoStruct@@@Z PROC ; std::allocator<BuffInfoStruct>::destroy, COMDAT
; _this$ = ecx

; 212  : 		{	// destroy object at _Ptr

  00000	55		 push	 ebp
  00001	8b ec		 mov	 ebp, esp

; 213  : 		_Destroy(_Ptr);

  00003	8b 4d 08	 mov	 ecx, DWORD PTR __Ptr$[ebp]
  00006	ff 15 00 00 00
	00		 call	 DWORD PTR __imp_??1ioHashString@@QAE@XZ

; 214  : 		}

  0000c	5d		 pop	 ebp
  0000d	c2 04 00	 ret	 4
?destroy@?$allocator@UBuffInfoStruct@@@std@@QAEXPAUBuffInfoStruct@@@Z ENDP ; std::allocator<BuffInfoStruct>::destroy
_TEXT	ENDS
PUBLIC	??$_Cons_val@V?$allocator@UBuffInfoStruct@@@std@@UBuffInfoStruct@@AAU3@@std@@YAXAAV?$allocator@UBuffInfoStruct@@@0@PAUBuffInfoStruct@@AAU2@@Z ; std::_Cons_val<std::allocator<BuffInfoStruct>,BuffInfoStruct,BuffInfoStruct &>
; Function compile flags: /Ogsp
;	COMDAT ??$_Cons_val@V?$allocator@UBuffInfoStruct@@@std@@UBuffInfoStruct@@AAU3@@std@@YAXAAV?$allocator@UBuffInfoStruct@@@0@PAUBuffInfoStruct@@AAU2@@Z
_TEXT	SEGMENT
__Alval$ = 8						; size = 4
__Pdest$ = 12						; size = 4
__Src$ = 16						; size = 4
??$_Cons_val@V?$allocator@UBuffInfoStruct@@@std@@UBuffInfoStruct@@AAU3@@std@@YAXAAV?$allocator@UBuffInfoStruct@@@0@PAUBuffInfoStruct@@AAU2@@Z PROC ; std::_Cons_val<std::allocator<BuffInfoStruct>,BuffInfoStruct,BuffInfoStruct &>, COMDAT

; 279  : 	{	// construct using allocator

  00000	55		 push	 ebp
  00001	8b ec		 mov	 ebp, esp

; 280  : 	_Alval.construct(_Pdest, _STD forward<_Ty2>(_Src));

  00003	ff 75 10	 push	 DWORD PTR __Src$[ebp]
  00006	8b 4d 08	 mov	 ecx, DWORD PTR __Alval$[ebp]
  00009	ff 75 0c	 push	 DWORD PTR __Pdest$[ebp]
  0000c	e8 00 00 00 00	 call	 ??$construct@AAUBuffInfoStruct@@@?$allocator@UBuffInfoStruct@@@std@@QAEXPAUBuffInfoStruct@@AAU2@@Z ; std::allocator<BuffInfoStruct>::construct<BuffInfoStruct &>

; 281  : 	}

  00011	5d		 pop	 ebp
  00012	c3		 ret	 0
??$_Cons_val@V?$allocator@UBuffInfoStruct@@@std@@UBuffInfoStruct@@AAU3@@std@@YAXAAV?$allocator@UBuffInfoStruct@@@0@PAUBuffInfoStruct@@AAU2@@Z ENDP ; std::_Cons_val<std::allocator<BuffInfoStruct>,BuffInfoStruct,BuffInfoStruct &>
_TEXT	ENDS
PUBLIC	??$_Cons_val@V?$allocator@UWeaponInfo@@@std@@UWeaponInfo@@AAU3@@std@@YAXAAV?$allocator@UWeaponInfo@@@0@PAUWeaponInfo@@AAU2@@Z ; std::_Cons_val<std::allocator<WeaponInfo>,WeaponInfo,WeaponInfo &>
;	COMDAT xdata$x
; File c:\program files (x86)\microsoft visual studio 10.0\vc\include\utility
xdata$x	SEGMENT
__unwindtable$??$_Cons_val@V?$allocator@UWeaponInfo@@@std@@UWeaponInfo@@AAU3@@std@@YAXAAV?$allocator@UWeaponInfo@@@0@PAUWeaponInfo@@AAU2@@Z DD 0ffffffffH
	DD	FLAT:__unwindfunclet$??$_Cons_val@V?$allocator@UWeaponInfo@@@std@@UWeaponInfo@@AAU3@@std@@YAXAAV?$allocator@UWeaponInfo@@@0@PAUWeaponInfo@@AAU2@@Z$0
__ehfuncinfo$??$_Cons_val@V?$allocator@UWeaponInfo@@@std@@UWeaponInfo@@AAU3@@std@@YAXAAV?$allocator@UWeaponInfo@@@0@PAUWeaponInfo@@AAU2@@Z DD 019930522H
	DD	01H
	DD	FLAT:__unwindtable$??$_Cons_val@V?$allocator@UWeaponInfo@@@std@@UWeaponInfo@@AAU3@@std@@YAXAAV?$allocator@UWeaponInfo@@@0@PAUWeaponInfo@@AAU2@@Z
	DD	2 DUP(00H)
	DD	2 DUP(00H)
	DD	00H
	DD	01H
; Function compile flags: /Ogsp
; File c:\program files (x86)\microsoft visual studio 10.0\vc\include\xmemory
xdata$x	ENDS
;	COMDAT ??$_Cons_val@V?$allocator@UWeaponInfo@@@std@@UWeaponInfo@@AAU3@@std@@YAXAAV?$allocator@UWeaponInfo@@@0@PAUWeaponInfo@@AAU2@@Z
_TEXT	SEGMENT
$T578264 = -16						; size = 4
__$EHRec$ = -12						; size = 12
__Alval$ = 8						; size = 4
__Pdest$ = 12						; size = 4
__Src$ = 16						; size = 4
??$_Cons_val@V?$allocator@UWeaponInfo@@@std@@UWeaponInfo@@AAU3@@std@@YAXAAV?$allocator@UWeaponInfo@@@0@PAUWeaponInfo@@AAU2@@Z PROC ; std::_Cons_val<std::allocator<WeaponInfo>,WeaponInfo,WeaponInfo &>, COMDAT

; 279  : 	{	// construct using allocator

  00000	6a 04		 push	 4
  00002	b8 00 00 00 00	 mov	 eax, __ehhandler$??$_Cons_val@V?$allocator@UWeaponInfo@@@std@@UWeaponInfo@@AAU3@@std@@YAXAAV?$allocator@UWeaponInfo@@@0@PAUWeaponInfo@@AAU2@@Z
  00007	e8 00 00 00 00	 call	 __EH_prolog3

; 280  : 	_Alval.construct(_Pdest, _STD forward<_Ty2>(_Src));

  0000c	8b 4d 0c	 mov	 ecx, DWORD PTR __Pdest$[ebp]
  0000f	89 4d f0	 mov	 DWORD PTR $T578264[ebp], ecx
  00012	83 65 fc 00	 and	 DWORD PTR __$EHRec$[ebp+8], 0
  00016	85 c9		 test	 ecx, ecx
  00018	74 08		 je	 SHORT $LN7@Cons_val@8
  0001a	ff 75 10	 push	 DWORD PTR __Src$[ebp]
  0001d	e8 00 00 00 00	 call	 ??0WeaponInfo@@QAE@ABU0@@Z
$LN7@Cons_val@8:

; 281  : 	}

  00022	e8 00 00 00 00	 call	 __EH_epilog3
  00027	c3		 ret	 0
_TEXT	ENDS
;	COMDAT text$x
text$x	SEGMENT
__unwindfunclet$??$_Cons_val@V?$allocator@UWeaponInfo@@@std@@UWeaponInfo@@AAU3@@std@@YAXAAV?$allocator@UWeaponInfo@@@0@PAUWeaponInfo@@AAU2@@Z$0:
  00000	ff 75 0c	 push	 DWORD PTR __Pdest$[ebp]
  00003	ff 75 f0	 push	 DWORD PTR $T578264[ebp]
  00006	e8 00 00 00 00	 call	 ??3@YAXPAX0@Z		; operator delete
  0000b	59		 pop	 ecx
  0000c	59		 pop	 ecx
  0000d	c3		 ret	 0
__ehhandler$??$_Cons_val@V?$allocator@UWeaponInfo@@@std@@UWeaponInfo@@AAU3@@std@@YAXAAV?$allocator@UWeaponInfo@@@0@PAUWeaponInfo@@AAU2@@Z:
  0000e	8b 54 24 08	 mov	 edx, DWORD PTR [esp+8]
  00012	8d 42 0c	 lea	 eax, DWORD PTR [edx+12]
  00015	8b 4a ec	 mov	 ecx, DWORD PTR [edx-20]
  00018	33 c8		 xor	 ecx, eax
  0001a	e8 00 00 00 00	 call	 @__security_check_cookie@4
  0001f	b8 00 00 00 00	 mov	 eax, OFFSET __ehfuncinfo$??$_Cons_val@V?$allocator@UWeaponInfo@@@std@@UWeaponInfo@@AAU3@@std@@YAXAAV?$allocator@UWeaponInfo@@@0@PAUWeaponInfo@@AAU2@@Z
  00024	e9 00 00 00 00	 jmp	 ___CxxFrameHandler3
text$x	ENDS
??$_Cons_val@V?$allocator@UWeaponInfo@@@std@@UWeaponInfo@@AAU3@@std@@YAXAAV?$allocator@UWeaponInfo@@@0@PAUWeaponInfo@@AAU2@@Z ENDP ; std::_Cons_val<std::allocator<WeaponInfo>,WeaponInfo,WeaponInfo &>
PUBLIC	??$_Cons_val@V?$allocator@UWeaponInfo@@@std@@UWeaponInfo@@ABU3@@std@@YAXAAV?$allocator@UWeaponInfo@@@0@PAUWeaponInfo@@ABU2@@Z ; std::_Cons_val<std::allocator<WeaponInfo>,WeaponInfo,WeaponInfo const &>
; Function compile flags: /Ogsp
;	COMDAT ??$_Cons_val@V?$allocator@UWeaponInfo@@@std@@UWeaponInfo@@ABU3@@std@@YAXAAV?$allocator@UWeaponInfo@@@0@PAUWeaponInfo@@ABU2@@Z
_TEXT	SEGMENT
__Alval$ = 8						; size = 4
__Pdest$ = 12						; size = 4
__Src$ = 16						; size = 4
??$_Cons_val@V?$allocator@UWeaponInfo@@@std@@UWeaponInfo@@ABU3@@std@@YAXAAV?$allocator@UWeaponInfo@@@0@PAUWeaponInfo@@ABU2@@Z PROC ; std::_Cons_val<std::allocator<WeaponInfo>,WeaponInfo,WeaponInfo const &>, COMDAT

; 279  : 	{	// construct using allocator

  00000	55		 push	 ebp
  00001	8b ec		 mov	 ebp, esp

; 280  : 	_Alval.construct(_Pdest, _STD forward<_Ty2>(_Src));

  00003	ff 75 10	 push	 DWORD PTR __Src$[ebp]
  00006	ff 75 0c	 push	 DWORD PTR __Pdest$[ebp]
  00009	e8 00 00 00 00	 call	 ??$_Construct@UWeaponInfo@@ABU1@@std@@YAXPAUWeaponInfo@@ABU1@@Z ; std::_Construct<WeaponInfo,WeaponInfo const &>
  0000e	59		 pop	 ecx
  0000f	59		 pop	 ecx

; 281  : 	}

  00010	5d		 pop	 ebp
  00011	c3		 ret	 0
??$_Cons_val@V?$allocator@UWeaponInfo@@@std@@UWeaponInfo@@ABU3@@std@@YAXAAV?$allocator@UWeaponInfo@@@0@PAUWeaponInfo@@ABU2@@Z ENDP ; std::_Cons_val<std::allocator<WeaponInfo>,WeaponInfo,WeaponInfo const &>
_TEXT	ENDS
PUBLIC	??$_Cons_val@V?$allocator@UBuffInfoStruct@@@std@@UBuffInfoStruct@@ABU3@@std@@YAXAAV?$allocator@UBuffInfoStruct@@@0@PAUBuffInfoStruct@@ABU2@@Z ; std::_Cons_val<std::allocator<BuffInfoStruct>,BuffInfoStruct,BuffInfoStruct const &>
; Function compile flags: /Ogsp
;	COMDAT ??$_Cons_val@V?$allocator@UBuffInfoStruct@@@std@@UBuffInfoStruct@@ABU3@@std@@YAXAAV?$allocator@UBuffInfoStruct@@@0@PAUBuffInfoStruct@@ABU2@@Z
_TEXT	SEGMENT
__Alval$ = 8						; size = 4
__Pdest$ = 12						; size = 4
__Src$ = 16						; size = 4
??$_Cons_val@V?$allocator@UBuffInfoStruct@@@std@@UBuffInfoStruct@@ABU3@@std@@YAXAAV?$allocator@UBuffInfoStruct@@@0@PAUBuffInfoStruct@@ABU2@@Z PROC ; std::_Cons_val<std::allocator<BuffInfoStruct>,BuffInfoStruct,BuffInfoStruct const &>, COMDAT

; 279  : 	{	// construct using allocator

  00000	55		 push	 ebp
  00001	8b ec		 mov	 ebp, esp

; 280  : 	_Alval.construct(_Pdest, _STD forward<_Ty2>(_Src));

  00003	ff 75 10	 push	 DWORD PTR __Src$[ebp]
  00006	ff 75 0c	 push	 DWORD PTR __Pdest$[ebp]
  00009	e8 00 00 00 00	 call	 ??$_Construct@UBuffInfoStruct@@ABU1@@std@@YAXPAUBuffInfoStruct@@ABU1@@Z ; std::_Construct<BuffInfoStruct,BuffInfoStruct const &>
  0000e	59		 pop	 ecx
  0000f	59		 pop	 ecx

; 281  : 	}

  00010	5d		 pop	 ebp
  00011	c3		 ret	 0
??$_Cons_val@V?$allocator@UBuffInfoStruct@@@std@@UBuffInfoStruct@@ABU3@@std@@YAXAAV?$allocator@UBuffInfoStruct@@@0@PAUBuffInfoStruct@@ABU2@@Z ENDP ; std::_Cons_val<std::allocator<BuffInfoStruct>,BuffInfoStruct,BuffInfoStruct const &>
_TEXT	ENDS
PUBLIC	??$_Destroy_range@V?$allocator@UWeaponMoveInfo@@@std@@@std@@YAXPAUWeaponMoveInfo@@0AAV?$allocator@UWeaponMoveInfo@@@0@U_Nonscalar_ptr_iterator_tag@0@@Z ; std::_Destroy_range<std::allocator<WeaponMoveInfo> >
; Function compile flags: /Ogsp
;	COMDAT ??$_Destroy_range@V?$allocator@UWeaponMoveInfo@@@std@@@std@@YAXPAUWeaponMoveInfo@@0AAV?$allocator@UWeaponMoveInfo@@@0@U_Nonscalar_ptr_iterator_tag@0@@Z
_TEXT	SEGMENT
__First$ = 8						; size = 4
__Last$ = 12						; size = 4
__Al$ = 16						; size = 4
___formal$ = 20						; size = 1
??$_Destroy_range@V?$allocator@UWeaponMoveInfo@@@std@@@std@@YAXPAUWeaponMoveInfo@@0AAV?$allocator@UWeaponMoveInfo@@@0@U_Nonscalar_ptr_iterator_tag@0@@Z PROC ; std::_Destroy_range<std::allocator<WeaponMoveInfo> >, COMDAT

; 96   : 	for (; _First != _Last; ++_First)
; 97   : 		_Dest_val(_Al, _First);
; 98   : 	}

  00000	c3		 ret	 0
??$_Destroy_range@V?$allocator@UWeaponMoveInfo@@@std@@@std@@YAXPAUWeaponMoveInfo@@0AAV?$allocator@UWeaponMoveInfo@@@0@U_Nonscalar_ptr_iterator_tag@0@@Z ENDP ; std::_Destroy_range<std::allocator<WeaponMoveInfo> >
_TEXT	ENDS
PUBLIC	??$_Uninit_copy@V?$_Vector_const_iterator@V?$_Vector_val@UForceInfo@@V?$allocator@UForceInfo@@@std@@@std@@@std@@PAUForceInfo@@V?$allocator@UForceInfo@@@2@@std@@YAPAUForceInfo@@V?$_Vector_const_iterator@V?$_Vector_val@UForceInfo@@V?$allocator@UForceInfo@@@std@@@std@@@0@0PAU1@AAV?$allocator@UForceInfo@@@0@U_Nonscalar_ptr_iterator_tag@0@@Z ; std::_Uninit_copy<std::_Vector_const_iterator<std::_Vector_val<ForceInfo,std::allocator<ForceInfo> > >,ForceInfo *,std::allocator<ForceInfo> >
; Function compile flags: /Ogsp
; File c:\program files (x86)\microsoft visual studio 10.0\vc\include\memory
;	COMDAT ??$_Uninit_copy@V?$_Vector_const_iterator@V?$_Vector_val@UForceInfo@@V?$allocator@UForceInfo@@@std@@@std@@@std@@PAUForceInfo@@V?$allocator@UForceInfo@@@2@@std@@YAPAUForceInfo@@V?$_Vector_const_iterator@V?$_Vector_val@UForceInfo@@V?$allocator@UForceInfo@@@std@@@std@@@0@0PAU1@AAV?$allocator@UForceInfo@@@0@U_Nonscalar_ptr_iterator_tag@0@@Z
_TEXT	SEGMENT
__First$ = 8						; size = 4
__Last$ = 12						; size = 4
__Dest$ = 16						; size = 4
__Al$ = 20						; size = 4
___formal$ = 24						; size = 1
??$_Uninit_copy@V?$_Vector_const_iterator@V?$_Vector_val@UForceInfo@@V?$allocator@UForceInfo@@@std@@@std@@@std@@PAUForceInfo@@V?$allocator@UForceInfo@@@2@@std@@YAPAUForceInfo@@V?$_Vector_const_iterator@V?$_Vector_val@UForceInfo@@V?$allocator@UForceInfo@@@std@@@std@@@0@0PAU1@AAV?$allocator@UForceInfo@@@0@U_Nonscalar_ptr_iterator_tag@0@@Z PROC ; std::_Uninit_copy<std::_Vector_const_iterator<std::_Vector_val<ForceInfo,std::allocator<ForceInfo> > >,ForceInfo *,std::allocator<ForceInfo> >, COMDAT

; 369  : 	{	// copy [_First, _Last) to raw _Dest, using _Al, arbitrary type

  00000	55		 push	 ebp
  00001	8b ec		 mov	 ebp, esp

; 370  : 	_DEBUG_RANGE(_First, _Last);
; 371  : 	_DEBUG_POINTER(_Dest);
; 372  : 	_FwdIt _Next = _Dest;
; 373  : 
; 374  : 	_TRY_BEGIN
; 375  : 	for (; _First != _Last; ++_Dest, ++_First)

  00003	eb 19		 jmp	 SHORT $LN35@Uninit_cop
$LL14@Uninit_cop:

; 376  : 		_Cons_val(_Al, _Dest, *_First);

  00005	ff 75 08	 push	 DWORD PTR __First$[ebp]
  00008	ff 75 10	 push	 DWORD PTR __Dest$[ebp]
  0000b	ff 75 14	 push	 DWORD PTR __Al$[ebp]
  0000e	e8 00 00 00 00	 call	 ??$_Cons_val@V?$allocator@UForceInfo@@@std@@UForceInfo@@ABU3@@std@@YAXAAV?$allocator@UForceInfo@@@0@PAUForceInfo@@ABU2@@Z ; std::_Cons_val<std::allocator<ForceInfo>,ForceInfo,ForceInfo const &>
  00013	83 45 10 0c	 add	 DWORD PTR __Dest$[ebp], 12 ; 0000000cH
  00017	83 c4 0c	 add	 esp, 12			; 0000000cH
  0001a	83 45 08 0c	 add	 DWORD PTR __First$[ebp], 12 ; 0000000cH
$LN35@Uninit_cop:

; 370  : 	_DEBUG_RANGE(_First, _Last);
; 371  : 	_DEBUG_POINTER(_Dest);
; 372  : 	_FwdIt _Next = _Dest;
; 373  : 
; 374  : 	_TRY_BEGIN
; 375  : 	for (; _First != _Last; ++_Dest, ++_First)

  0001e	8b 45 08	 mov	 eax, DWORD PTR __First$[ebp]
  00021	3b 45 0c	 cmp	 eax, DWORD PTR __Last$[ebp]
  00024	75 df		 jne	 SHORT $LL14@Uninit_cop

; 377  : 	_CATCH_ALL
; 378  : 	for (; _Next != _Dest; ++_Next)
; 379  : 		_Dest_val(_Al, _Next);
; 380  : 	_RERAISE;
; 381  : 	_CATCH_END
; 382  : 	return (_Dest);

  00026	8b 45 10	 mov	 eax, DWORD PTR __Dest$[ebp]

; 383  : 	}

  00029	5d		 pop	 ebp
  0002a	c3		 ret	 0
??$_Uninit_copy@V?$_Vector_const_iterator@V?$_Vector_val@UForceInfo@@V?$allocator@UForceInfo@@@std@@@std@@@std@@PAUForceInfo@@V?$allocator@UForceInfo@@@2@@std@@YAPAUForceInfo@@V?$_Vector_const_iterator@V?$_Vector_val@UForceInfo@@V?$allocator@UForceInfo@@@std@@@std@@@0@0PAU1@AAV?$allocator@UForceInfo@@@0@U_Nonscalar_ptr_iterator_tag@0@@Z ENDP ; std::_Uninit_copy<std::_Vector_const_iterator<std::_Vector_val<ForceInfo,std::allocator<ForceInfo> > >,ForceInfo *,std::allocator<ForceInfo> >
_TEXT	ENDS
PUBLIC	??$_Uninit_move@PAUForceInfo@@PAU1@V?$allocator@UForceInfo@@@std@@U1@@std@@YAPAUForceInfo@@PAU1@00AAV?$allocator@UForceInfo@@@0@0U_Nonscalar_ptr_iterator_tag@0@@Z ; std::_Uninit_move<ForceInfo *,ForceInfo *,std::allocator<ForceInfo>,ForceInfo>
; Function compile flags: /Ogsp
;	COMDAT ??$_Uninit_move@PAUForceInfo@@PAU1@V?$allocator@UForceInfo@@@std@@U1@@std@@YAPAUForceInfo@@PAU1@00AAV?$allocator@UForceInfo@@@0@0U_Nonscalar_ptr_iterator_tag@0@@Z
_TEXT	SEGMENT
__First$ = 8						; size = 4
__Last$ = 12						; size = 4
__Dest$ = 16						; size = 4
__Al$ = 20						; size = 4
___formal$ = 24						; size = 4
___formal$ = 28						; size = 1
??$_Uninit_move@PAUForceInfo@@PAU1@V?$allocator@UForceInfo@@@std@@U1@@std@@YAPAUForceInfo@@PAU1@00AAV?$allocator@UForceInfo@@@0@0U_Nonscalar_ptr_iterator_tag@0@@Z PROC ; std::_Uninit_move<ForceInfo *,ForceInfo *,std::allocator<ForceInfo>,ForceInfo>, COMDAT

; 424  : 	{	// move [_First, _Last) to raw _Dest, using _Al, arbitrary type

  00000	55		 push	 ebp
  00001	8b ec		 mov	 ebp, esp
  00003	56		 push	 esi

; 425  : 	_DEBUG_RANGE(_First, _Last);
; 426  : 	_DEBUG_POINTER(_Dest);
; 427  : 	_FwdIt _Next = _Dest;
; 428  : 
; 429  : 	_TRY_BEGIN
; 430  : 	for (; _First != _Last; ++_Dest, ++_First)

  00004	8b 75 08	 mov	 esi, DWORD PTR __First$[ebp]
  00007	eb 16		 jmp	 SHORT $LN24@Uninit_mov
$LL6@Uninit_mov:

; 431  : 		_Cons_val(_Al, _Dest, (_Valty &&)*_First);

  00009	56		 push	 esi
  0000a	ff 75 10	 push	 DWORD PTR __Dest$[ebp]
  0000d	ff 75 14	 push	 DWORD PTR __Al$[ebp]
  00010	e8 00 00 00 00	 call	 ??$_Cons_val@V?$allocator@UForceInfo@@@std@@UForceInfo@@U3@@std@@YAXAAV?$allocator@UForceInfo@@@0@PAUForceInfo@@$$QAU2@@Z ; std::_Cons_val<std::allocator<ForceInfo>,ForceInfo,ForceInfo>
  00015	83 45 10 0c	 add	 DWORD PTR __Dest$[ebp], 12 ; 0000000cH
  00019	83 c4 0c	 add	 esp, 12			; 0000000cH
  0001c	83 c6 0c	 add	 esi, 12			; 0000000cH
$LN24@Uninit_mov:

; 425  : 	_DEBUG_RANGE(_First, _Last);
; 426  : 	_DEBUG_POINTER(_Dest);
; 427  : 	_FwdIt _Next = _Dest;
; 428  : 
; 429  : 	_TRY_BEGIN
; 430  : 	for (; _First != _Last; ++_Dest, ++_First)

  0001f	3b 75 0c	 cmp	 esi, DWORD PTR __Last$[ebp]
  00022	75 e5		 jne	 SHORT $LL6@Uninit_mov

; 432  : 	_CATCH_ALL
; 433  : 	for (; _Next != _Dest; ++_Next)
; 434  : 		_Dest_val(_Al, _Next);
; 435  : 	_RERAISE;
; 436  : 	_CATCH_END
; 437  : 	return (_Dest);

  00024	8b 45 10	 mov	 eax, DWORD PTR __Dest$[ebp]
  00027	5e		 pop	 esi

; 438  : 	}

  00028	5d		 pop	 ebp
  00029	c3		 ret	 0
??$_Uninit_move@PAUForceInfo@@PAU1@V?$allocator@UForceInfo@@@std@@U1@@std@@YAPAUForceInfo@@PAU1@00AAV?$allocator@UForceInfo@@@0@0U_Nonscalar_ptr_iterator_tag@0@@Z ENDP ; std::_Uninit_move<ForceInfo *,ForceInfo *,std::allocator<ForceInfo>,ForceInfo>
_TEXT	ENDS
PUBLIC	??$_Uninit_move@PAUWeaponMoveInfo@@PAU1@V?$allocator@UWeaponMoveInfo@@@std@@U1@@std@@YAPAUWeaponMoveInfo@@PAU1@00AAV?$allocator@UWeaponMoveInfo@@@0@0U_Nonscalar_ptr_iterator_tag@0@@Z ; std::_Uninit_move<WeaponMoveInfo *,WeaponMoveInfo *,std::allocator<WeaponMoveInfo>,WeaponMoveInfo>
; Function compile flags: /Ogsp
;	COMDAT ??$_Uninit_move@PAUWeaponMoveInfo@@PAU1@V?$allocator@UWeaponMoveInfo@@@std@@U1@@std@@YAPAUWeaponMoveInfo@@PAU1@00AAV?$allocator@UWeaponMoveInfo@@@0@0U_Nonscalar_ptr_iterator_tag@0@@Z
_TEXT	SEGMENT
__First$ = 8						; size = 4
__Last$ = 12						; size = 4
__Dest$ = 16						; size = 4
__Al$ = 20						; size = 4
___formal$ = 24						; size = 4
___formal$ = 28						; size = 1
??$_Uninit_move@PAUWeaponMoveInfo@@PAU1@V?$allocator@UWeaponMoveInfo@@@std@@U1@@std@@YAPAUWeaponMoveInfo@@PAU1@00AAV?$allocator@UWeaponMoveInfo@@@0@0U_Nonscalar_ptr_iterator_tag@0@@Z PROC ; std::_Uninit_move<WeaponMoveInfo *,WeaponMoveInfo *,std::allocator<WeaponMoveInfo>,WeaponMoveInfo>, COMDAT

; 424  : 	{	// move [_First, _Last) to raw _Dest, using _Al, arbitrary type

  00000	55		 push	 ebp
  00001	8b ec		 mov	 ebp, esp
  00003	56		 push	 esi

; 425  : 	_DEBUG_RANGE(_First, _Last);
; 426  : 	_DEBUG_POINTER(_Dest);
; 427  : 	_FwdIt _Next = _Dest;
; 428  : 
; 429  : 	_TRY_BEGIN
; 430  : 	for (; _First != _Last; ++_Dest, ++_First)

  00004	8b 75 08	 mov	 esi, DWORD PTR __First$[ebp]
  00007	eb 16		 jmp	 SHORT $LN24@Uninit_mov@2
$LL6@Uninit_mov@2:

; 431  : 		_Cons_val(_Al, _Dest, (_Valty &&)*_First);

  00009	56		 push	 esi
  0000a	ff 75 10	 push	 DWORD PTR __Dest$[ebp]
  0000d	ff 75 14	 push	 DWORD PTR __Al$[ebp]
  00010	e8 00 00 00 00	 call	 ??$_Cons_val@V?$allocator@UWeaponMoveInfo@@@std@@UWeaponMoveInfo@@U3@@std@@YAXAAV?$allocator@UWeaponMoveInfo@@@0@PAUWeaponMoveInfo@@$$QAU2@@Z ; std::_Cons_val<std::allocator<WeaponMoveInfo>,WeaponMoveInfo,WeaponMoveInfo>
  00015	83 45 10 14	 add	 DWORD PTR __Dest$[ebp], 20 ; 00000014H
  00019	83 c4 0c	 add	 esp, 12			; 0000000cH
  0001c	83 c6 14	 add	 esi, 20			; 00000014H
$LN24@Uninit_mov@2:

; 425  : 	_DEBUG_RANGE(_First, _Last);
; 426  : 	_DEBUG_POINTER(_Dest);
; 427  : 	_FwdIt _Next = _Dest;
; 428  : 
; 429  : 	_TRY_BEGIN
; 430  : 	for (; _First != _Last; ++_Dest, ++_First)

  0001f	3b 75 0c	 cmp	 esi, DWORD PTR __Last$[ebp]
  00022	75 e5		 jne	 SHORT $LL6@Uninit_mov@2

; 432  : 	_CATCH_ALL
; 433  : 	for (; _Next != _Dest; ++_Next)
; 434  : 		_Dest_val(_Al, _Next);
; 435  : 	_RERAISE;
; 436  : 	_CATCH_END
; 437  : 	return (_Dest);

  00024	8b 45 10	 mov	 eax, DWORD PTR __Dest$[ebp]
  00027	5e		 pop	 esi

; 438  : 	}

  00028	5d		 pop	 ebp
  00029	c3		 ret	 0
??$_Uninit_move@PAUWeaponMoveInfo@@PAU1@V?$allocator@UWeaponMoveInfo@@@std@@U1@@std@@YAPAUWeaponMoveInfo@@PAU1@00AAV?$allocator@UWeaponMoveInfo@@@0@0U_Nonscalar_ptr_iterator_tag@0@@Z ENDP ; std::_Uninit_move<WeaponMoveInfo *,WeaponMoveInfo *,std::allocator<WeaponMoveInfo>,WeaponMoveInfo>
_TEXT	ENDS
PUBLIC	??$_Destroy_range@V?$allocator@UForceInfo@@@std@@@std@@YAXPAUForceInfo@@0AAV?$allocator@UForceInfo@@@0@U_Nonscalar_ptr_iterator_tag@0@@Z ; std::_Destroy_range<std::allocator<ForceInfo> >
; Function compile flags: /Ogsp
; File c:\program files (x86)\microsoft visual studio 10.0\vc\include\xmemory
;	COMDAT ??$_Destroy_range@V?$allocator@UForceInfo@@@std@@@std@@YAXPAUForceInfo@@0AAV?$allocator@UForceInfo@@@0@U_Nonscalar_ptr_iterator_tag@0@@Z
_TEXT	SEGMENT
__First$ = 8						; size = 4
__Last$ = 12						; size = 4
__Al$ = 16						; size = 4
___formal$ = 20						; size = 1
??$_Destroy_range@V?$allocator@UForceInfo@@@std@@@std@@YAXPAUForceInfo@@0AAV?$allocator@UForceInfo@@@0@U_Nonscalar_ptr_iterator_tag@0@@Z PROC ; std::_Destroy_range<std::allocator<ForceInfo> >, COMDAT

; 96   : 	for (; _First != _Last; ++_First)
; 97   : 		_Dest_val(_Al, _First);
; 98   : 	}

  00000	c3		 ret	 0
??$_Destroy_range@V?$allocator@UForceInfo@@@std@@@std@@YAXPAUForceInfo@@0AAV?$allocator@UForceInfo@@@0@U_Nonscalar_ptr_iterator_tag@0@@Z ENDP ; std::_Destroy_range<std::allocator<ForceInfo> >
_TEXT	ENDS
PUBLIC	??$_Dest_val@V?$allocator@UBuffInfoStruct@@@std@@UBuffInfoStruct@@@std@@YAXAAV?$allocator@UBuffInfoStruct@@@0@PAUBuffInfoStruct@@@Z ; std::_Dest_val<std::allocator<BuffInfoStruct>,BuffInfoStruct>
; Function compile flags: /Ogsp
;	COMDAT ??$_Dest_val@V?$allocator@UBuffInfoStruct@@@std@@UBuffInfoStruct@@@std@@YAXAAV?$allocator@UBuffInfoStruct@@@0@PAUBuffInfoStruct@@@Z
_TEXT	SEGMENT
__Alval$ = 8						; size = 4
__Pdest$ = 12						; size = 4
??$_Dest_val@V?$allocator@UBuffInfoStruct@@@std@@UBuffInfoStruct@@@std@@YAXAAV?$allocator@UBuffInfoStruct@@@0@PAUBuffInfoStruct@@@Z PROC ; std::_Dest_val<std::allocator<BuffInfoStruct>,BuffInfoStruct>, COMDAT

; 286  : 	{	// destroy using allocator

  00000	55		 push	 ebp
  00001	8b ec		 mov	 ebp, esp

; 287  : 	_Alval.destroy(_Pdest);

  00003	8b 4d 0c	 mov	 ecx, DWORD PTR __Pdest$[ebp]

; 288  : 	}

  00006	5d		 pop	 ebp

; 287  : 	_Alval.destroy(_Pdest);

  00007	ff 25 00 00 00
	00		 jmp	 DWORD PTR __imp_??1ioHashString@@QAE@XZ
??$_Dest_val@V?$allocator@UBuffInfoStruct@@@std@@UBuffInfoStruct@@@std@@YAXAAV?$allocator@UBuffInfoStruct@@@0@PAUBuffInfoStruct@@@Z ENDP ; std::_Dest_val<std::allocator<BuffInfoStruct>,BuffInfoStruct>
_TEXT	ENDS
PUBLIC	??$_Dest_val@V?$allocator@UWeaponInfo@@@std@@UWeaponInfo@@@std@@YAXAAV?$allocator@UWeaponInfo@@@0@PAUWeaponInfo@@@Z ; std::_Dest_val<std::allocator<WeaponInfo>,WeaponInfo>
; Function compile flags: /Ogsp
;	COMDAT ??$_Dest_val@V?$allocator@UWeaponInfo@@@std@@UWeaponInfo@@@std@@YAXAAV?$allocator@UWeaponInfo@@@0@PAUWeaponInfo@@@Z
_TEXT	SEGMENT
__Alval$ = 8						; size = 4
__Pdest$ = 12						; size = 4
??$_Dest_val@V?$allocator@UWeaponInfo@@@std@@UWeaponInfo@@@std@@YAXAAV?$allocator@UWeaponInfo@@@0@PAUWeaponInfo@@@Z PROC ; std::_Dest_val<std::allocator<WeaponInfo>,WeaponInfo>, COMDAT

; 286  : 	{	// destroy using allocator

  00000	55		 push	 ebp
  00001	8b ec		 mov	 ebp, esp

; 287  : 	_Alval.destroy(_Pdest);

  00003	8b 4d 0c	 mov	 ecx, DWORD PTR __Pdest$[ebp]
  00006	83 c1 08	 add	 ecx, 8

; 288  : 	}

  00009	5d		 pop	 ebp

; 287  : 	_Alval.destroy(_Pdest);

  0000a	ff 25 00 00 00
	00		 jmp	 DWORD PTR __imp_??1ioHashString@@QAE@XZ
??$_Dest_val@V?$allocator@UWeaponInfo@@@std@@UWeaponInfo@@@std@@YAXAAV?$allocator@UWeaponInfo@@@0@PAUWeaponInfo@@@Z ENDP ; std::_Dest_val<std::allocator<WeaponInfo>,WeaponInfo>
_TEXT	ENDS
PUBLIC	??$_Destroy_range@V?$allocator@UWeaponMoveInfo@@@std@@@std@@YAXPAUWeaponMoveInfo@@0AAV?$allocator@UWeaponMoveInfo@@@0@@Z ; std::_Destroy_range<std::allocator<WeaponMoveInfo> >
; Function compile flags: /Ogsp
;	COMDAT ??$_Destroy_range@V?$allocator@UWeaponMoveInfo@@@std@@@std@@YAXPAUWeaponMoveInfo@@0AAV?$allocator@UWeaponMoveInfo@@@0@@Z
_TEXT	SEGMENT
__First$ = 8						; size = 4
__Last$ = 12						; size = 4
__Al$ = 16						; size = 4
??$_Destroy_range@V?$allocator@UWeaponMoveInfo@@@std@@@std@@YAXPAUWeaponMoveInfo@@0AAV?$allocator@UWeaponMoveInfo@@@0@@Z PROC ; std::_Destroy_range<std::allocator<WeaponMoveInfo> >, COMDAT

; 88   : 	_Destroy_range(_First, _Last, _Al, _Ptr_cat(_First, _Last));
; 89   : 	}

  00000	c3		 ret	 0
??$_Destroy_range@V?$allocator@UWeaponMoveInfo@@@std@@@std@@YAXPAUWeaponMoveInfo@@0AAV?$allocator@UWeaponMoveInfo@@@0@@Z ENDP ; std::_Destroy_range<std::allocator<WeaponMoveInfo> >
_TEXT	ENDS
PUBLIC	??$_Uninitialized_copy@V?$_Vector_const_iterator@V?$_Vector_val@UForceInfo@@V?$allocator@UForceInfo@@@std@@@std@@@std@@PAUForceInfo@@V?$allocator@UForceInfo@@@2@@std@@YAPAUForceInfo@@V?$_Vector_const_iterator@V?$_Vector_val@UForceInfo@@V?$allocator@UForceInfo@@@std@@@std@@@0@0PAU1@AAV?$allocator@UForceInfo@@@0@@Z ; std::_Uninitialized_copy<std::_Vector_const_iterator<std::_Vector_val<ForceInfo,std::allocator<ForceInfo> > >,ForceInfo *,std::allocator<ForceInfo> >
; Function compile flags: /Ogsp
; File c:\program files (x86)\microsoft visual studio 10.0\vc\include\memory
;	COMDAT ??$_Uninitialized_copy@V?$_Vector_const_iterator@V?$_Vector_val@UForceInfo@@V?$allocator@UForceInfo@@@std@@@std@@@std@@PAUForceInfo@@V?$allocator@UForceInfo@@@2@@std@@YAPAUForceInfo@@V?$_Vector_const_iterator@V?$_Vector_val@UForceInfo@@V?$allocator@UForceInfo@@@std@@@std@@@0@0PAU1@AAV?$allocator@UForceInfo@@@0@@Z
_TEXT	SEGMENT
__Cat$578544 = -4					; size = 1
__First$ = 8						; size = 4
__Last$ = 12						; size = 4
__Dest$ = 16						; size = 4
__Al$ = 20						; size = 4
??$_Uninitialized_copy@V?$_Vector_const_iterator@V?$_Vector_val@UForceInfo@@V?$allocator@UForceInfo@@@std@@@std@@@std@@PAUForceInfo@@V?$allocator@UForceInfo@@@2@@std@@YAPAUForceInfo@@V?$_Vector_const_iterator@V?$_Vector_val@UForceInfo@@V?$allocator@UForceInfo@@@std@@@std@@@0@0PAU1@AAV?$allocator@UForceInfo@@@0@@Z PROC ; std::_Uninitialized_copy<std::_Vector_const_iterator<std::_Vector_val<ForceInfo,std::allocator<ForceInfo> > >,ForceInfo *,std::allocator<ForceInfo> >, COMDAT

; 412  : 	{	// copy [_First, _Last) to raw _Dest, using _Al

  00000	55		 push	 ebp
  00001	8b ec		 mov	 ebp, esp
  00003	51		 push	 ecx

; 413  : 	return (_Uninit_copy(_First, _Last, _Dest, _Al,
; 414  : 		_Ptr_cat(_First, _Dest)));

  00004	ff 75 fc	 push	 DWORD PTR __Cat$578544[ebp]
  00007	ff 75 14	 push	 DWORD PTR __Al$[ebp]
  0000a	ff 75 10	 push	 DWORD PTR __Dest$[ebp]
  0000d	ff 75 0c	 push	 DWORD PTR __Last$[ebp]
  00010	ff 75 08	 push	 DWORD PTR __First$[ebp]
  00013	e8 00 00 00 00	 call	 ??$_Uninit_copy@V?$_Vector_const_iterator@V?$_Vector_val@UForceInfo@@V?$allocator@UForceInfo@@@std@@@std@@@std@@PAUForceInfo@@V?$allocator@UForceInfo@@@2@@std@@YAPAUForceInfo@@V?$_Vector_const_iterator@V?$_Vector_val@UForceInfo@@V?$allocator@UForceInfo@@@std@@@std@@@0@0PAU1@AAV?$allocator@UForceInfo@@@0@U_Nonscalar_ptr_iterator_tag@0@@Z ; std::_Uninit_copy<std::_Vector_const_iterator<std::_Vector_val<ForceInfo,std::allocator<ForceInfo> > >,ForceInfo *,std::allocator<ForceInfo> >
  00018	83 c4 14	 add	 esp, 20			; 00000014H

; 415  : 	}

  0001b	c9		 leave
  0001c	c3		 ret	 0
??$_Uninitialized_copy@V?$_Vector_const_iterator@V?$_Vector_val@UForceInfo@@V?$allocator@UForceInfo@@@std@@@std@@@std@@PAUForceInfo@@V?$allocator@UForceInfo@@@2@@std@@YAPAUForceInfo@@V?$_Vector_const_iterator@V?$_Vector_val@UForceInfo@@V?$allocator@UForceInfo@@@std@@@std@@@0@0PAU1@AAV?$allocator@UForceInfo@@@0@@Z ENDP ; std::_Uninitialized_copy<std::_Vector_const_iterator<std::_Vector_val<ForceInfo,std::allocator<ForceInfo> > >,ForceInfo *,std::allocator<ForceInfo> >
_TEXT	ENDS
PUBLIC	??$_Uninitialized_move@PAUForceInfo@@PAU1@V?$allocator@UForceInfo@@@std@@@std@@YAPAUForceInfo@@PAU1@00AAV?$allocator@UForceInfo@@@0@@Z ; std::_Uninitialized_move<ForceInfo *,ForceInfo *,std::allocator<ForceInfo> >
; Function compile flags: /Ogsp
;	COMDAT ??$_Uninitialized_move@PAUForceInfo@@PAU1@V?$allocator@UForceInfo@@@std@@@std@@YAPAUForceInfo@@PAU1@00AAV?$allocator@UForceInfo@@@0@@Z
_TEXT	SEGMENT
__Cat$578551 = -4					; size = 1
__First$ = 8						; size = 4
__Last$ = 12						; size = 4
__Dest$ = 16						; size = 4
__Al$ = 20						; size = 4
??$_Uninitialized_move@PAUForceInfo@@PAU1@V?$allocator@UForceInfo@@@std@@@std@@YAPAUForceInfo@@PAU1@00AAV?$allocator@UForceInfo@@@0@@Z PROC ; std::_Uninitialized_move<ForceInfo *,ForceInfo *,std::allocator<ForceInfo> >, COMDAT

; 469  : 	{	// move [_First, _Last) to raw _Dest, using _Al

  00000	55		 push	 ebp
  00001	8b ec		 mov	 ebp, esp
  00003	51		 push	 ecx

; 470  : 	return (_Uninit_move(_First, _Last, _Dest, _Al,
; 471  : 		_Val_type(_First), _Ptr_cat(_First, _Dest)));

  00004	ff 75 fc	 push	 DWORD PTR __Cat$578551[ebp]
  00007	6a 00		 push	 0
  00009	ff 75 14	 push	 DWORD PTR __Al$[ebp]
  0000c	ff 75 10	 push	 DWORD PTR __Dest$[ebp]
  0000f	ff 75 0c	 push	 DWORD PTR __Last$[ebp]
  00012	ff 75 08	 push	 DWORD PTR __First$[ebp]
  00015	e8 00 00 00 00	 call	 ??$_Uninit_move@PAUForceInfo@@PAU1@V?$allocator@UForceInfo@@@std@@U1@@std@@YAPAUForceInfo@@PAU1@00AAV?$allocator@UForceInfo@@@0@0U_Nonscalar_ptr_iterator_tag@0@@Z ; std::_Uninit_move<ForceInfo *,ForceInfo *,std::allocator<ForceInfo>,ForceInfo>
  0001a	83 c4 18	 add	 esp, 24			; 00000018H

; 472  : 	}

  0001d	c9		 leave
  0001e	c3		 ret	 0
??$_Uninitialized_move@PAUForceInfo@@PAU1@V?$allocator@UForceInfo@@@std@@@std@@YAPAUForceInfo@@PAU1@00AAV?$allocator@UForceInfo@@@0@@Z ENDP ; std::_Uninitialized_move<ForceInfo *,ForceInfo *,std::allocator<ForceInfo> >
_TEXT	ENDS
PUBLIC	??$_Uninitialized_move@PAUWeaponMoveInfo@@PAU1@V?$allocator@UWeaponMoveInfo@@@std@@@std@@YAPAUWeaponMoveInfo@@PAU1@00AAV?$allocator@UWeaponMoveInfo@@@0@@Z ; std::_Uninitialized_move<WeaponMoveInfo *,WeaponMoveInfo *,std::allocator<WeaponMoveInfo> >
; Function compile flags: /Ogsp
;	COMDAT ??$_Uninitialized_move@PAUWeaponMoveInfo@@PAU1@V?$allocator@UWeaponMoveInfo@@@std@@@std@@YAPAUWeaponMoveInfo@@PAU1@00AAV?$allocator@UWeaponMoveInfo@@@0@@Z
_TEXT	SEGMENT
__Cat$578561 = -4					; size = 1
__First$ = 8						; size = 4
__Last$ = 12						; size = 4
__Dest$ = 16						; size = 4
__Al$ = 20						; size = 4
??$_Uninitialized_move@PAUWeaponMoveInfo@@PAU1@V?$allocator@UWeaponMoveInfo@@@std@@@std@@YAPAUWeaponMoveInfo@@PAU1@00AAV?$allocator@UWeaponMoveInfo@@@0@@Z PROC ; std::_Uninitialized_move<WeaponMoveInfo *,WeaponMoveInfo *,std::allocator<WeaponMoveInfo> >, COMDAT

; 469  : 	{	// move [_First, _Last) to raw _Dest, using _Al

  00000	55		 push	 ebp
  00001	8b ec		 mov	 ebp, esp
  00003	51		 push	 ecx

; 470  : 	return (_Uninit_move(_First, _Last, _Dest, _Al,
; 471  : 		_Val_type(_First), _Ptr_cat(_First, _Dest)));

  00004	ff 75 fc	 push	 DWORD PTR __Cat$578561[ebp]
  00007	6a 00		 push	 0
  00009	ff 75 14	 push	 DWORD PTR __Al$[ebp]
  0000c	ff 75 10	 push	 DWORD PTR __Dest$[ebp]
  0000f	ff 75 0c	 push	 DWORD PTR __Last$[ebp]
  00012	ff 75 08	 push	 DWORD PTR __First$[ebp]
  00015	e8 00 00 00 00	 call	 ??$_Uninit_move@PAUWeaponMoveInfo@@PAU1@V?$allocator@UWeaponMoveInfo@@@std@@U1@@std@@YAPAUWeaponMoveInfo@@PAU1@00AAV?$allocator@UWeaponMoveInfo@@@0@0U_Nonscalar_ptr_iterator_tag@0@@Z ; std::_Uninit_move<WeaponMoveInfo *,WeaponMoveInfo *,std::allocator<WeaponMoveInfo>,WeaponMoveInfo>
  0001a	83 c4 18	 add	 esp, 24			; 00000018H

; 472  : 	}

  0001d	c9		 leave
  0001e	c3		 ret	 0
??$_Uninitialized_move@PAUWeaponMoveInfo@@PAU1@V?$allocator@UWeaponMoveInfo@@@std@@@std@@YAPAUWeaponMoveInfo@@PAU1@00AAV?$allocator@UWeaponMoveInfo@@@0@@Z ENDP ; std::_Uninitialized_move<WeaponMoveInfo *,WeaponMoveInfo *,std::allocator<WeaponMoveInfo> >
_TEXT	ENDS
PUBLIC	??$_Uninit_copy@V?$_Vector_const_iterator@V?$_Vector_val@UWeaponInfo@@V?$allocator@UWeaponInfo@@@std@@@std@@@std@@PAUWeaponInfo@@V?$allocator@UWeaponInfo@@@2@@std@@YAPAUWeaponInfo@@V?$_Vector_const_iterator@V?$_Vector_val@UWeaponInfo@@V?$allocator@UWeaponInfo@@@std@@@std@@@0@0PAU1@AAV?$allocator@UWeaponInfo@@@0@U_Nonscalar_ptr_iterator_tag@0@@Z ; std::_Uninit_copy<std::_Vector_const_iterator<std::_Vector_val<WeaponInfo,std::allocator<WeaponInfo> > >,WeaponInfo *,std::allocator<WeaponInfo> >
EXTRN	__EH_prolog3_catch:PROC
;	COMDAT xdata$x
; File d:\lost saga for developer\youtube\tutorial\source\src\lsclient\playentityhelpstruct.h
xdata$x	SEGMENT
__catchsym$??$_Uninit_copy@V?$_Vector_const_iterator@V?$_Vector_val@UWeaponInfo@@V?$allocator@UWeaponInfo@@@std@@@std@@@std@@PAUWeaponInfo@@V?$allocator@UWeaponInfo@@@2@@std@@YAPAUWeaponInfo@@V?$_Vector_const_iterator@V?$_Vector_val@UWeaponInfo@@V?$allocator@UWeaponInfo@@@std@@@std@@@0@0PAU1@AAV?$allocator@UWeaponInfo@@@0@U_Nonscalar_ptr_iterator_tag@0@@Z$3 DD 040H
	DD	00H
	DD	00H
	DD	FLAT:__catch$??$_Uninit_copy@V?$_Vector_const_iterator@V?$_Vector_val@UWeaponInfo@@V?$allocator@UWeaponInfo@@@std@@@std@@@std@@PAUWeaponInfo@@V?$allocator@UWeaponInfo@@@2@@std@@YAPAUWeaponInfo@@V?$_Vector_const_iterator@V?$_Vector_val@UWeaponInfo@@V?$allocator@UWeaponInfo@@@std@@@std@@@0@0PAU1@AAV?$allocator@UWeaponInfo@@@0@U_Nonscalar_ptr_iterator_tag@0@@Z$0
__unwindtable$??$_Uninit_copy@V?$_Vector_const_iterator@V?$_Vector_val@UWeaponInfo@@V?$allocator@UWeaponInfo@@@std@@@std@@@std@@PAUWeaponInfo@@V?$allocator@UWeaponInfo@@@2@@std@@YAPAUWeaponInfo@@V?$_Vector_const_iterator@V?$_Vector_val@UWeaponInfo@@V?$allocator@UWeaponInfo@@@std@@@std@@@0@0PAU1@AAV?$allocator@UWeaponInfo@@@0@U_Nonscalar_ptr_iterator_tag@0@@Z DD 0ffffffffH
	DD	00H
	DD	0ffffffffH
	DD	00H
__tryblocktable$??$_Uninit_copy@V?$_Vector_const_iterator@V?$_Vector_val@UWeaponInfo@@V?$allocator@UWeaponInfo@@@std@@@std@@@std@@PAUWeaponInfo@@V?$allocator@UWeaponInfo@@@2@@std@@YAPAUWeaponInfo@@V?$_Vector_const_iterator@V?$_Vector_val@UWeaponInfo@@V?$allocator@UWeaponInfo@@@std@@@std@@@0@0PAU1@AAV?$allocator@UWeaponInfo@@@0@U_Nonscalar_ptr_iterator_tag@0@@Z DD 00H
	DD	00H
	DD	01H
	DD	01H
	DD	FLAT:__catchsym$??$_Uninit_copy@V?$_Vector_const_iterator@V?$_Vector_val@UWeaponInfo@@V?$allocator@UWeaponInfo@@@std@@@std@@@std@@PAUWeaponInfo@@V?$allocator@UWeaponInfo@@@2@@std@@YAPAUWeaponInfo@@V?$_Vector_const_iterator@V?$_Vector_val@UWeaponInfo@@V?$allocator@UWeaponInfo@@@std@@@std@@@0@0PAU1@AAV?$allocator@UWeaponInfo@@@0@U_Nonscalar_ptr_iterator_tag@0@@Z$3
__ehfuncinfo$??$_Uninit_copy@V?$_Vector_const_iterator@V?$_Vector_val@UWeaponInfo@@V?$allocator@UWeaponInfo@@@std@@@std@@@std@@PAUWeaponInfo@@V?$allocator@UWeaponInfo@@@2@@std@@YAPAUWeaponInfo@@V?$_Vector_const_iterator@V?$_Vector_val@UWeaponInfo@@V?$allocator@UWeaponInfo@@@std@@@std@@@0@0PAU1@AAV?$allocator@UWeaponInfo@@@0@U_Nonscalar_ptr_iterator_tag@0@@Z DD 019930522H
	DD	02H
	DD	FLAT:__unwindtable$??$_Uninit_copy@V?$_Vector_const_iterator@V?$_Vector_val@UWeaponInfo@@V?$allocator@UWeaponInfo@@@std@@@std@@@std@@PAUWeaponInfo@@V?$allocator@UWeaponInfo@@@2@@std@@YAPAUWeaponInfo@@V?$_Vector_const_iterator@V?$_Vector_val@UWeaponInfo@@V?$allocator@UWeaponInfo@@@std@@@std@@@0@0PAU1@AAV?$allocator@UWeaponInfo@@@0@U_Nonscalar_ptr_iterator_tag@0@@Z
	DD	01H
	DD	FLAT:__tryblocktable$??$_Uninit_copy@V?$_Vector_const_iterator@V?$_Vector_val@UWeaponInfo@@V?$allocator@UWeaponInfo@@@std@@@std@@@std@@PAUWeaponInfo@@V?$allocator@UWeaponInfo@@@2@@std@@YAPAUWeaponInfo@@V?$_Vector_const_iterator@V?$_Vector_val@UWeaponInfo@@V?$allocator@UWeaponInfo@@@std@@@std@@@0@0PAU1@AAV?$allocator@UWeaponInfo@@@0@U_Nonscalar_ptr_iterator_tag@0@@Z
	DD	2 DUP(00H)
	DD	00H
	DD	01H
; Function compile flags: /Ogsp
; File c:\program files (x86)\microsoft visual studio 10.0\vc\include\memory
xdata$x	ENDS
;	COMDAT ??$_Uninit_copy@V?$_Vector_const_iterator@V?$_Vector_val@UWeaponInfo@@V?$allocator@UWeaponInfo@@@std@@@std@@@std@@PAUWeaponInfo@@V?$allocator@UWeaponInfo@@@2@@std@@YAPAUWeaponInfo@@V?$_Vector_const_iterator@V?$_Vector_val@UWeaponInfo@@V?$allocator@UWeaponInfo@@@std@@@std@@@0@0PAU1@AAV?$allocator@UWeaponInfo@@@0@U_Nonscalar_ptr_iterator_tag@0@@Z
_TEXT	SEGMENT
__Next$ = -20						; size = 4
__$EHRec$ = -16						; size = 16
__First$ = 8						; size = 4
__Last$ = 12						; size = 4
__Dest$ = 16						; size = 4
__Al$ = 20						; size = 4
___formal$ = 24						; size = 1
??$_Uninit_copy@V?$_Vector_const_iterator@V?$_Vector_val@UWeaponInfo@@V?$allocator@UWeaponInfo@@@std@@@std@@@std@@PAUWeaponInfo@@V?$allocator@UWeaponInfo@@@2@@std@@YAPAUWeaponInfo@@V?$_Vector_const_iterator@V?$_Vector_val@UWeaponInfo@@V?$allocator@UWeaponInfo@@@std@@@std@@@0@0PAU1@AAV?$allocator@UWeaponInfo@@@0@U_Nonscalar_ptr_iterator_tag@0@@Z PROC ; std::_Uninit_copy<std::_Vector_const_iterator<std::_Vector_val<WeaponInfo,std::allocator<WeaponInfo> > >,WeaponInfo *,std::allocator<WeaponInfo> >, COMDAT

; 369  : 	{	// copy [_First, _Last) to raw _Dest, using _Al, arbitrary type

  00000	6a 08		 push	 8
  00002	b8 00 00 00 00	 mov	 eax, __ehhandler$??$_Uninit_copy@V?$_Vector_const_iterator@V?$_Vector_val@UWeaponInfo@@V?$allocator@UWeaponInfo@@@std@@@std@@@std@@PAUWeaponInfo@@V?$allocator@UWeaponInfo@@@2@@std@@YAPAUWeaponInfo@@V?$_Vector_const_iterator@V?$_Vector_val@UWeaponInfo@@V?$allocator@UWeaponInfo@@@std@@@std@@@0@0PAU1@AAV?$allocator@UWeaponInfo@@@0@U_Nonscalar_ptr_iterator_tag@0@@Z
  00007	e8 00 00 00 00	 call	 __EH_prolog3_catch

; 370  : 	_DEBUG_RANGE(_First, _Last);
; 371  : 	_DEBUG_POINTER(_Dest);
; 372  : 	_FwdIt _Next = _Dest;

  0000c	8b 45 10	 mov	 eax, DWORD PTR __Dest$[ebp]

; 373  : 
; 374  : 	_TRY_BEGIN

  0000f	83 65 fc 00	 and	 DWORD PTR __$EHRec$[ebp+12], 0
  00013	89 45 ec	 mov	 DWORD PTR __Next$[ebp], eax

; 375  : 	for (; _First != _Last; ++_Dest, ++_First)

$LL14@Uninit_cop@2:
  00016	8b 45 08	 mov	 eax, DWORD PTR __First$[ebp]
  00019	3b 45 0c	 cmp	 eax, DWORD PTR __Last$[ebp]
  0001c	74 34		 je	 SHORT $LN4@Uninit_cop@2

; 376  : 		_Cons_val(_Al, _Dest, *_First);

  0001e	50		 push	 eax
  0001f	ff 75 10	 push	 DWORD PTR __Dest$[ebp]
  00022	e8 00 00 00 00	 call	 ??$_Construct@UWeaponInfo@@ABU1@@std@@YAXPAUWeaponInfo@@ABU1@@Z ; std::_Construct<WeaponInfo,WeaponInfo const &>
  00027	83 45 10 28	 add	 DWORD PTR __Dest$[ebp], 40 ; 00000028H
  0002b	83 45 08 28	 add	 DWORD PTR __First$[ebp], 40 ; 00000028H
  0002f	59		 pop	 ecx
  00030	59		 pop	 ecx
  00031	eb e3		 jmp	 SHORT $LL14@Uninit_cop@2
__catch$??$_Uninit_copy@V?$_Vector_const_iterator@V?$_Vector_val@UWeaponInfo@@V?$allocator@UWeaponInfo@@@std@@@std@@@std@@PAUWeaponInfo@@V?$allocator@UWeaponInfo@@@2@@std@@YAPAUWeaponInfo@@V?$_Vector_const_iterator@V?$_Vector_val@UWeaponInfo@@V?$allocator@UWeaponInfo@@@std@@@std@@@0@0PAU1@AAV?$allocator@UWeaponInfo@@@0@U_Nonscalar_ptr_iterator_tag@0@@Z$0:

; 377  : 	_CATCH_ALL
; 378  : 	for (; _Next != _Dest; ++_Next)

  00033	8b 75 ec	 mov	 esi, DWORD PTR __Next$[ebp]
  00036	eb 0c		 jmp	 SHORT $LN48@Uninit_cop@2
$LL3@Uninit_cop@2:

; 379  : 		_Dest_val(_Al, _Next);

  00038	8d 4e 08	 lea	 ecx, DWORD PTR [esi+8]
  0003b	ff 15 00 00 00
	00		 call	 DWORD PTR __imp_??1ioHashString@@QAE@XZ
  00041	83 c6 28	 add	 esi, 40			; 00000028H
$LN48@Uninit_cop@2:

; 377  : 	_CATCH_ALL
; 378  : 	for (; _Next != _Dest; ++_Next)

  00044	3b 75 10	 cmp	 esi, DWORD PTR __Dest$[ebp]
  00047	75 ef		 jne	 SHORT $LL3@Uninit_cop@2

; 380  : 	_RERAISE;

  00049	6a 00		 push	 0
  0004b	6a 00		 push	 0
  0004d	e8 00 00 00 00	 call	 __CxxThrowException@8
$LN49@Uninit_cop@2:
$LN4@Uninit_cop@2:

; 381  : 	_CATCH_END
; 382  : 	return (_Dest);

  00052	8b 45 10	 mov	 eax, DWORD PTR __Dest$[ebp]

; 383  : 	}

  00055	e8 00 00 00 00	 call	 __EH_epilog3
  0005a	c3		 ret	 0
$LN47@Uninit_cop@2:
_TEXT	ENDS
;	COMDAT text$x
text$x	SEGMENT
__ehhandler$??$_Uninit_copy@V?$_Vector_const_iterator@V?$_Vector_val@UWeaponInfo@@V?$allocator@UWeaponInfo@@@std@@@std@@@std@@PAUWeaponInfo@@V?$allocator@UWeaponInfo@@@2@@std@@YAPAUWeaponInfo@@V?$_Vector_const_iterator@V?$_Vector_val@UWeaponInfo@@V?$allocator@UWeaponInfo@@@std@@@std@@@0@0PAU1@AAV?$allocator@UWeaponInfo@@@0@U_Nonscalar_ptr_iterator_tag@0@@Z:
  00000	8b 54 24 08	 mov	 edx, DWORD PTR [esp+8]
  00004	8d 42 0c	 lea	 eax, DWORD PTR [edx+12]
  00007	8b 4a e8	 mov	 ecx, DWORD PTR [edx-24]
  0000a	33 c8		 xor	 ecx, eax
  0000c	e8 00 00 00 00	 call	 @__security_check_cookie@4
  00011	b8 00 00 00 00	 mov	 eax, OFFSET __ehfuncinfo$??$_Uninit_copy@V?$_Vector_const_iterator@V?$_Vector_val@UWeaponInfo@@V?$allocator@UWeaponInfo@@@std@@@std@@@std@@PAUWeaponInfo@@V?$allocator@UWeaponInfo@@@2@@std@@YAPAUWeaponInfo@@V?$_Vector_const_iterator@V?$_Vector_val@UWeaponInfo@@V?$allocator@UWeaponInfo@@@std@@@std@@@0@0PAU1@AAV?$allocator@UWeaponInfo@@@0@U_Nonscalar_ptr_iterator_tag@0@@Z
  00016	e9 00 00 00 00	 jmp	 ___CxxFrameHandler3
text$x	ENDS
??$_Uninit_copy@V?$_Vector_const_iterator@V?$_Vector_val@UWeaponInfo@@V?$allocator@UWeaponInfo@@@std@@@std@@@std@@PAUWeaponInfo@@V?$allocator@UWeaponInfo@@@2@@std@@YAPAUWeaponInfo@@V?$_Vector_const_iterator@V?$_Vector_val@UWeaponInfo@@V?$allocator@UWeaponInfo@@@std@@@std@@@0@0PAU1@AAV?$allocator@UWeaponInfo@@@0@U_Nonscalar_ptr_iterator_tag@0@@Z ENDP ; std::_Uninit_copy<std::_Vector_const_iterator<std::_Vector_val<WeaponInfo,std::allocator<WeaponInfo> > >,WeaponInfo *,std::allocator<WeaponInfo> >
PUBLIC	??$_Uninit_move@PAUWeaponInfo@@PAU1@V?$allocator@UWeaponInfo@@@std@@U1@@std@@YAPAUWeaponInfo@@PAU1@00AAV?$allocator@UWeaponInfo@@@0@0U_Nonscalar_ptr_iterator_tag@0@@Z ; std::_Uninit_move<WeaponInfo *,WeaponInfo *,std::allocator<WeaponInfo>,WeaponInfo>
;	COMDAT xdata$x
; File d:\lost saga for developer\youtube\tutorial\source\src\lsclient\playentityhelpstruct.h
xdata$x	SEGMENT
__catchsym$??$_Uninit_move@PAUWeaponInfo@@PAU1@V?$allocator@UWeaponInfo@@@std@@U1@@std@@YAPAUWeaponInfo@@PAU1@00AAV?$allocator@UWeaponInfo@@@0@0U_Nonscalar_ptr_iterator_tag@0@@Z$3 DD 040H
	DD	00H
	DD	00H
	DD	FLAT:__catch$??$_Uninit_move@PAUWeaponInfo@@PAU1@V?$allocator@UWeaponInfo@@@std@@U1@@std@@YAPAUWeaponInfo@@PAU1@00AAV?$allocator@UWeaponInfo@@@0@0U_Nonscalar_ptr_iterator_tag@0@@Z$0
__unwindtable$??$_Uninit_move@PAUWeaponInfo@@PAU1@V?$allocator@UWeaponInfo@@@std@@U1@@std@@YAPAUWeaponInfo@@PAU1@00AAV?$allocator@UWeaponInfo@@@0@0U_Nonscalar_ptr_iterator_tag@0@@Z DD 0ffffffffH
	DD	00H
	DD	0ffffffffH
	DD	00H
__tryblocktable$??$_Uninit_move@PAUWeaponInfo@@PAU1@V?$allocator@UWeaponInfo@@@std@@U1@@std@@YAPAUWeaponInfo@@PAU1@00AAV?$allocator@UWeaponInfo@@@0@0U_Nonscalar_ptr_iterator_tag@0@@Z DD 00H
	DD	00H
	DD	01H
	DD	01H
	DD	FLAT:__catchsym$??$_Uninit_move@PAUWeaponInfo@@PAU1@V?$allocator@UWeaponInfo@@@std@@U1@@std@@YAPAUWeaponInfo@@PAU1@00AAV?$allocator@UWeaponInfo@@@0@0U_Nonscalar_ptr_iterator_tag@0@@Z$3
__ehfuncinfo$??$_Uninit_move@PAUWeaponInfo@@PAU1@V?$allocator@UWeaponInfo@@@std@@U1@@std@@YAPAUWeaponInfo@@PAU1@00AAV?$allocator@UWeaponInfo@@@0@0U_Nonscalar_ptr_iterator_tag@0@@Z DD 019930522H
	DD	02H
	DD	FLAT:__unwindtable$??$_Uninit_move@PAUWeaponInfo@@PAU1@V?$allocator@UWeaponInfo@@@std@@U1@@std@@YAPAUWeaponInfo@@PAU1@00AAV?$allocator@UWeaponInfo@@@0@0U_Nonscalar_ptr_iterator_tag@0@@Z
	DD	01H
	DD	FLAT:__tryblocktable$??$_Uninit_move@PAUWeaponInfo@@PAU1@V?$allocator@UWeaponInfo@@@std@@U1@@std@@YAPAUWeaponInfo@@PAU1@00AAV?$allocator@UWeaponInfo@@@0@0U_Nonscalar_ptr_iterator_tag@0@@Z
	DD	2 DUP(00H)
	DD	00H
	DD	01H
; Function compile flags: /Ogsp
; File c:\program files (x86)\microsoft visual studio 10.0\vc\include\memory
xdata$x	ENDS
;	COMDAT ??$_Uninit_move@PAUWeaponInfo@@PAU1@V?$allocator@UWeaponInfo@@@std@@U1@@std@@YAPAUWeaponInfo@@PAU1@00AAV?$allocator@UWeaponInfo@@@0@0U_Nonscalar_ptr_iterator_tag@0@@Z
_TEXT	SEGMENT
__Next$ = -20						; size = 4
__$EHRec$ = -16						; size = 16
__First$ = 8						; size = 4
__Last$ = 12						; size = 4
__Dest$ = 16						; size = 4
__Al$ = 20						; size = 4
___formal$ = 24						; size = 4
___formal$ = 28						; size = 1
??$_Uninit_move@PAUWeaponInfo@@PAU1@V?$allocator@UWeaponInfo@@@std@@U1@@std@@YAPAUWeaponInfo@@PAU1@00AAV?$allocator@UWeaponInfo@@@0@0U_Nonscalar_ptr_iterator_tag@0@@Z PROC ; std::_Uninit_move<WeaponInfo *,WeaponInfo *,std::allocator<WeaponInfo>,WeaponInfo>, COMDAT

; 424  : 	{	// move [_First, _Last) to raw _Dest, using _Al, arbitrary type

  00000	6a 08		 push	 8
  00002	b8 00 00 00 00	 mov	 eax, __ehhandler$??$_Uninit_move@PAUWeaponInfo@@PAU1@V?$allocator@UWeaponInfo@@@std@@U1@@std@@YAPAUWeaponInfo@@PAU1@00AAV?$allocator@UWeaponInfo@@@0@0U_Nonscalar_ptr_iterator_tag@0@@Z
  00007	e8 00 00 00 00	 call	 __EH_prolog3_catch

; 425  : 	_DEBUG_RANGE(_First, _Last);
; 426  : 	_DEBUG_POINTER(_Dest);
; 427  : 	_FwdIt _Next = _Dest;

  0000c	8b 45 10	 mov	 eax, DWORD PTR __Dest$[ebp]

; 428  : 
; 429  : 	_TRY_BEGIN

  0000f	83 65 fc 00	 and	 DWORD PTR __$EHRec$[ebp+12], 0
  00013	8b 75 08	 mov	 esi, DWORD PTR __First$[ebp]
  00016	89 45 ec	 mov	 DWORD PTR __Next$[ebp], eax
$LL6@Uninit_mov@3:

; 430  : 	for (; _First != _Last; ++_Dest, ++_First)

  00019	3b 75 0c	 cmp	 esi, DWORD PTR __Last$[ebp]
  0001c	74 37		 je	 SHORT $LN4@Uninit_mov@3

; 431  : 		_Cons_val(_Al, _Dest, (_Valty &&)*_First);

  0001e	56		 push	 esi
  0001f	ff 75 10	 push	 DWORD PTR __Dest$[ebp]
  00022	ff 75 14	 push	 DWORD PTR __Al$[ebp]
  00025	e8 00 00 00 00	 call	 ??$_Cons_val@V?$allocator@UWeaponInfo@@@std@@UWeaponInfo@@U3@@std@@YAXAAV?$allocator@UWeaponInfo@@@0@PAUWeaponInfo@@$$QAU2@@Z ; std::_Cons_val<std::allocator<WeaponInfo>,WeaponInfo,WeaponInfo>
  0002a	83 45 10 28	 add	 DWORD PTR __Dest$[ebp], 40 ; 00000028H
  0002e	83 c4 0c	 add	 esp, 12			; 0000000cH
  00031	83 c6 28	 add	 esi, 40			; 00000028H
  00034	eb e3		 jmp	 SHORT $LL6@Uninit_mov@3
__catch$??$_Uninit_move@PAUWeaponInfo@@PAU1@V?$allocator@UWeaponInfo@@@std@@U1@@std@@YAPAUWeaponInfo@@PAU1@00AAV?$allocator@UWeaponInfo@@@0@0U_Nonscalar_ptr_iterator_tag@0@@Z$0:

; 432  : 	_CATCH_ALL
; 433  : 	for (; _Next != _Dest; ++_Next)

  00036	8b 75 ec	 mov	 esi, DWORD PTR __Next$[ebp]
  00039	eb 0c		 jmp	 SHORT $LN32@Uninit_mov@3
$LL3@Uninit_mov@3:

; 434  : 		_Dest_val(_Al, _Next);

  0003b	8d 4e 08	 lea	 ecx, DWORD PTR [esi+8]
  0003e	ff 15 00 00 00
	00		 call	 DWORD PTR __imp_??1ioHashString@@QAE@XZ
  00044	83 c6 28	 add	 esi, 40			; 00000028H
$LN32@Uninit_mov@3:

; 432  : 	_CATCH_ALL
; 433  : 	for (; _Next != _Dest; ++_Next)

  00047	3b 75 10	 cmp	 esi, DWORD PTR __Dest$[ebp]
  0004a	75 ef		 jne	 SHORT $LL3@Uninit_mov@3

; 435  : 	_RERAISE;

  0004c	6a 00		 push	 0
  0004e	6a 00		 push	 0
  00050	e8 00 00 00 00	 call	 __CxxThrowException@8
$LN33@Uninit_mov@3:
$LN4@Uninit_mov@3:

; 436  : 	_CATCH_END
; 437  : 	return (_Dest);

  00055	8b 45 10	 mov	 eax, DWORD PTR __Dest$[ebp]

; 438  : 	}

  00058	e8 00 00 00 00	 call	 __EH_epilog3
  0005d	c3		 ret	 0
$LN31@Uninit_mov@3:
_TEXT	ENDS
;	COMDAT text$x
text$x	SEGMENT
__ehhandler$??$_Uninit_move@PAUWeaponInfo@@PAU1@V?$allocator@UWeaponInfo@@@std@@U1@@std@@YAPAUWeaponInfo@@PAU1@00AAV?$allocator@UWeaponInfo@@@0@0U_Nonscalar_ptr_iterator_tag@0@@Z:
  00000	8b 54 24 08	 mov	 edx, DWORD PTR [esp+8]
  00004	8d 42 0c	 lea	 eax, DWORD PTR [edx+12]
  00007	8b 4a e8	 mov	 ecx, DWORD PTR [edx-24]
  0000a	33 c8		 xor	 ecx, eax
  0000c	e8 00 00 00 00	 call	 @__security_check_cookie@4
  00011	b8 00 00 00 00	 mov	 eax, OFFSET __ehfuncinfo$??$_Uninit_move@PAUWeaponInfo@@PAU1@V?$allocator@UWeaponInfo@@@std@@U1@@std@@YAPAUWeaponInfo@@PAU1@00AAV?$allocator@UWeaponInfo@@@0@0U_Nonscalar_ptr_iterator_tag@0@@Z
  00016	e9 00 00 00 00	 jmp	 ___CxxFrameHandler3
text$x	ENDS
??$_Uninit_move@PAUWeaponInfo@@PAU1@V?$allocator@UWeaponInfo@@@std@@U1@@std@@YAPAUWeaponInfo@@PAU1@00AAV?$allocator@UWeaponInfo@@@0@0U_Nonscalar_ptr_iterator_tag@0@@Z ENDP ; std::_Uninit_move<WeaponInfo *,WeaponInfo *,std::allocator<WeaponInfo>,WeaponInfo>
PUBLIC	??$_Uninit_copy@V?$_Vector_const_iterator@V?$_Vector_val@UBuffInfoStruct@@V?$allocator@UBuffInfoStruct@@@std@@@std@@@std@@PAUBuffInfoStruct@@V?$allocator@UBuffInfoStruct@@@2@@std@@YAPAUBuffInfoStruct@@V?$_Vector_const_iterator@V?$_Vector_val@UBuffInfoStruct@@V?$allocator@UBuffInfoStruct@@@std@@@std@@@0@0PAU1@AAV?$allocator@UBuffInfoStruct@@@0@U_Nonscalar_ptr_iterator_tag@0@@Z ; std::_Uninit_copy<std::_Vector_const_iterator<std::_Vector_val<BuffInfoStruct,std::allocator<BuffInfoStruct> > >,BuffInfoStruct *,std::allocator<BuffInfoStruct> >
;	COMDAT xdata$x
; File d:\lost saga for developer\youtube\tutorial\source\src\lsclient\weaponattribute.h
xdata$x	SEGMENT
__catchsym$??$_Uninit_copy@V?$_Vector_const_iterator@V?$_Vector_val@UBuffInfoStruct@@V?$allocator@UBuffInfoStruct@@@std@@@std@@@std@@PAUBuffInfoStruct@@V?$allocator@UBuffInfoStruct@@@2@@std@@YAPAUBuffInfoStruct@@V?$_Vector_const_iterator@V?$_Vector_val@UBuffInfoStruct@@V?$allocator@UBuffInfoStruct@@@std@@@std@@@0@0PAU1@AAV?$allocator@UBuffInfoStruct@@@0@U_Nonscalar_ptr_iterator_tag@0@@Z$3 DD 040H
	DD	00H
	DD	00H
	DD	FLAT:__catch$??$_Uninit_copy@V?$_Vector_const_iterator@V?$_Vector_val@UBuffInfoStruct@@V?$allocator@UBuffInfoStruct@@@std@@@std@@@std@@PAUBuffInfoStruct@@V?$allocator@UBuffInfoStruct@@@2@@std@@YAPAUBuffInfoStruct@@V?$_Vector_const_iterator@V?$_Vector_val@UBuffInfoStruct@@V?$allocator@UBuffInfoStruct@@@std@@@std@@@0@0PAU1@AAV?$allocator@UBuffInfoStruct@@@0@U_Nonscalar_ptr_iterator_tag@0@@Z$0
__unwindtable$??$_Uninit_copy@V?$_Vector_const_iterator@V?$_Vector_val@UBuffInfoStruct@@V?$allocator@UBuffInfoStruct@@@std@@@std@@@std@@PAUBuffInfoStruct@@V?$allocator@UBuffInfoStruct@@@2@@std@@YAPAUBuffInfoStruct@@V?$_Vector_const_iterator@V?$_Vector_val@UBuffInfoStruct@@V?$allocator@UBuffInfoStruct@@@std@@@std@@@0@0PAU1@AAV?$allocator@UBuffInfoStruct@@@0@U_Nonscalar_ptr_iterator_tag@0@@Z DD 0ffffffffH
	DD	00H
	DD	0ffffffffH
	DD	00H
__tryblocktable$??$_Uninit_copy@V?$_Vector_const_iterator@V?$_Vector_val@UBuffInfoStruct@@V?$allocator@UBuffInfoStruct@@@std@@@std@@@std@@PAUBuffInfoStruct@@V?$allocator@UBuffInfoStruct@@@2@@std@@YAPAUBuffInfoStruct@@V?$_Vector_const_iterator@V?$_Vector_val@UBuffInfoStruct@@V?$allocator@UBuffInfoStruct@@@std@@@std@@@0@0PAU1@AAV?$allocator@UBuffInfoStruct@@@0@U_Nonscalar_ptr_iterator_tag@0@@Z DD 00H
	DD	00H
	DD	01H
	DD	01H
	DD	FLAT:__catchsym$??$_Uninit_copy@V?$_Vector_const_iterator@V?$_Vector_val@UBuffInfoStruct@@V?$allocator@UBuffInfoStruct@@@std@@@std@@@std@@PAUBuffInfoStruct@@V?$allocator@UBuffInfoStruct@@@2@@std@@YAPAUBuffInfoStruct@@V?$_Vector_const_iterator@V?$_Vector_val@UBuffInfoStruct@@V?$allocator@UBuffInfoStruct@@@std@@@std@@@0@0PAU1@AAV?$allocator@UBuffInfoStruct@@@0@U_Nonscalar_ptr_iterator_tag@0@@Z$3
__ehfuncinfo$??$_Uninit_copy@V?$_Vector_const_iterator@V?$_Vector_val@UBuffInfoStruct@@V?$allocator@UBuffInfoStruct@@@std@@@std@@@std@@PAUBuffInfoStruct@@V?$allocator@UBuffInfoStruct@@@2@@std@@YAPAUBuffInfoStruct@@V?$_Vector_const_iterator@V?$_Vector_val@UBuffInfoStruct@@V?$allocator@UBuffInfoStruct@@@std@@@std@@@0@0PAU1@AAV?$allocator@UBuffInfoStruct@@@0@U_Nonscalar_ptr_iterator_tag@0@@Z DD 019930522H
	DD	02H
	DD	FLAT:__unwindtable$??$_Uninit_copy@V?$_Vector_const_iterator@V?$_Vector_val@UBuffInfoStruct@@V?$allocator@UBuffInfoStruct@@@std@@@std@@@std@@PAUBuffInfoStruct@@V?$allocator@UBuffInfoStruct@@@2@@std@@YAPAUBuffInfoStruct@@V?$_Vector_const_iterator@V?$_Vector_val@UBuffInfoStruct@@V?$allocator@UBuffInfoStruct@@@std@@@std@@@0@0PAU1@AAV?$allocator@UBuffInfoStruct@@@0@U_Nonscalar_ptr_iterator_tag@0@@Z
	DD	01H
	DD	FLAT:__tryblocktable$??$_Uninit_copy@V?$_Vector_const_iterator@V?$_Vector_val@UBuffInfoStruct@@V?$allocator@UBuffInfoStruct@@@std@@@std@@@std@@PAUBuffInfoStruct@@V?$allocator@UBuffInfoStruct@@@2@@std@@YAPAUBuffInfoStruct@@V?$_Vector_const_iterator@V?$_Vector_val@UBuffInfoStruct@@V?$allocator@UBuffInfoStruct@@@std@@@std@@@0@0PAU1@AAV?$allocator@UBuffInfoStruct@@@0@U_Nonscalar_ptr_iterator_tag@0@@Z
	DD	2 DUP(00H)
	DD	00H
	DD	01H
; Function compile flags: /Ogsp
; File c:\program files (x86)\microsoft visual studio 10.0\vc\include\memory
xdata$x	ENDS
;	COMDAT ??$_Uninit_copy@V?$_Vector_const_iterator@V?$_Vector_val@UBuffInfoStruct@@V?$allocator@UBuffInfoStruct@@@std@@@std@@@std@@PAUBuffInfoStruct@@V?$allocator@UBuffInfoStruct@@@2@@std@@YAPAUBuffInfoStruct@@V?$_Vector_const_iterator@V?$_Vector_val@UBuffInfoStruct@@V?$allocator@UBuffInfoStruct@@@std@@@std@@@0@0PAU1@AAV?$allocator@UBuffInfoStruct@@@0@U_Nonscalar_ptr_iterator_tag@0@@Z
_TEXT	SEGMENT
__Next$ = -20						; size = 4
__$EHRec$ = -16						; size = 16
__First$ = 8						; size = 4
__Last$ = 12						; size = 4
__Dest$ = 16						; size = 4
__Al$ = 20						; size = 4
___formal$ = 24						; size = 1
??$_Uninit_copy@V?$_Vector_const_iterator@V?$_Vector_val@UBuffInfoStruct@@V?$allocator@UBuffInfoStruct@@@std@@@std@@@std@@PAUBuffInfoStruct@@V?$allocator@UBuffInfoStruct@@@2@@std@@YAPAUBuffInfoStruct@@V?$_Vector_const_iterator@V?$_Vector_val@UBuffInfoStruct@@V?$allocator@UBuffInfoStruct@@@std@@@std@@@0@0PAU1@AAV?$allocator@UBuffInfoStruct@@@0@U_Nonscalar_ptr_iterator_tag@0@@Z PROC ; std::_Uninit_copy<std::_Vector_const_iterator<std::_Vector_val<BuffInfoStruct,std::allocator<BuffInfoStruct> > >,BuffInfoStruct *,std::allocator<BuffInfoStruct> >, COMDAT

; 369  : 	{	// copy [_First, _Last) to raw _Dest, using _Al, arbitrary type

  00000	6a 08		 push	 8
  00002	b8 00 00 00 00	 mov	 eax, __ehhandler$??$_Uninit_copy@V?$_Vector_const_iterator@V?$_Vector_val@UBuffInfoStruct@@V?$allocator@UBuffInfoStruct@@@std@@@std@@@std@@PAUBuffInfoStruct@@V?$allocator@UBuffInfoStruct@@@2@@std@@YAPAUBuffInfoStruct@@V?$_Vector_const_iterator@V?$_Vector_val@UBuffInfoStruct@@V?$allocator@UBuffInfoStruct@@@std@@@std@@@0@0PAU1@AAV?$allocator@UBuffInfoStruct@@@0@U_Nonscalar_ptr_iterator_tag@0@@Z
  00007	e8 00 00 00 00	 call	 __EH_prolog3_catch

; 370  : 	_DEBUG_RANGE(_First, _Last);
; 371  : 	_DEBUG_POINTER(_Dest);
; 372  : 	_FwdIt _Next = _Dest;

  0000c	8b 45 10	 mov	 eax, DWORD PTR __Dest$[ebp]

; 373  : 
; 374  : 	_TRY_BEGIN

  0000f	83 65 fc 00	 and	 DWORD PTR __$EHRec$[ebp+12], 0
  00013	89 45 ec	 mov	 DWORD PTR __Next$[ebp], eax

; 375  : 	for (; _First != _Last; ++_Dest, ++_First)

$LL14@Uninit_cop@3:
  00016	8b 45 08	 mov	 eax, DWORD PTR __First$[ebp]
  00019	3b 45 0c	 cmp	 eax, DWORD PTR __Last$[ebp]
  0001c	74 33		 je	 SHORT $LN4@Uninit_cop@3

; 376  : 		_Cons_val(_Al, _Dest, *_First);

  0001e	50		 push	 eax
  0001f	ff 75 10	 push	 DWORD PTR __Dest$[ebp]
  00022	e8 00 00 00 00	 call	 ??$_Construct@UBuffInfoStruct@@ABU1@@std@@YAXPAUBuffInfoStruct@@ABU1@@Z ; std::_Construct<BuffInfoStruct,BuffInfoStruct const &>
  00027	83 45 10 14	 add	 DWORD PTR __Dest$[ebp], 20 ; 00000014H
  0002b	83 45 08 14	 add	 DWORD PTR __First$[ebp], 20 ; 00000014H
  0002f	59		 pop	 ecx
  00030	59		 pop	 ecx
  00031	eb e3		 jmp	 SHORT $LL14@Uninit_cop@3
__catch$??$_Uninit_copy@V?$_Vector_const_iterator@V?$_Vector_val@UBuffInfoStruct@@V?$allocator@UBuffInfoStruct@@@std@@@std@@@std@@PAUBuffInfoStruct@@V?$allocator@UBuffInfoStruct@@@2@@std@@YAPAUBuffInfoStruct@@V?$_Vector_const_iterator@V?$_Vector_val@UBuffInfoStruct@@V?$allocator@UBuffInfoStruct@@@std@@@std@@@0@0PAU1@AAV?$allocator@UBuffInfoStruct@@@0@U_Nonscalar_ptr_iterator_tag@0@@Z$0:

; 377  : 	_CATCH_ALL
; 378  : 	for (; _Next != _Dest; ++_Next)

  00033	8b 75 ec	 mov	 esi, DWORD PTR __Next$[ebp]
  00036	eb 0b		 jmp	 SHORT $LN48@Uninit_cop@3
$LL3@Uninit_cop@3:

; 379  : 		_Dest_val(_Al, _Next);

  00038	8b ce		 mov	 ecx, esi
  0003a	ff 15 00 00 00
	00		 call	 DWORD PTR __imp_??1ioHashString@@QAE@XZ
  00040	83 c6 14	 add	 esi, 20			; 00000014H
$LN48@Uninit_cop@3:

; 377  : 	_CATCH_ALL
; 378  : 	for (; _Next != _Dest; ++_Next)

  00043	3b 75 10	 cmp	 esi, DWORD PTR __Dest$[ebp]
  00046	75 f0		 jne	 SHORT $LL3@Uninit_cop@3

; 380  : 	_RERAISE;

  00048	6a 00		 push	 0
  0004a	6a 00		 push	 0
  0004c	e8 00 00 00 00	 call	 __CxxThrowException@8
$LN49@Uninit_cop@3:
$LN4@Uninit_cop@3:

; 381  : 	_CATCH_END
; 382  : 	return (_Dest);

  00051	8b 45 10	 mov	 eax, DWORD PTR __Dest$[ebp]

; 383  : 	}

  00054	e8 00 00 00 00	 call	 __EH_epilog3
  00059	c3		 ret	 0
$LN47@Uninit_cop@3:
_TEXT	ENDS
;	COMDAT text$x
text$x	SEGMENT
__ehhandler$??$_Uninit_copy@V?$_Vector_const_iterator@V?$_Vector_val@UBuffInfoStruct@@V?$allocator@UBuffInfoStruct@@@std@@@std@@@std@@PAUBuffInfoStruct@@V?$allocator@UBuffInfoStruct@@@2@@std@@YAPAUBuffInfoStruct@@V?$_Vector_const_iterator@V?$_Vector_val@UBuffInfoStruct@@V?$allocator@UBuffInfoStruct@@@std@@@std@@@0@0PAU1@AAV?$allocator@UBuffInfoStruct@@@0@U_Nonscalar_ptr_iterator_tag@0@@Z:
  00000	8b 54 24 08	 mov	 edx, DWORD PTR [esp+8]
  00004	8d 42 0c	 lea	 eax, DWORD PTR [edx+12]
  00007	8b 4a e8	 mov	 ecx, DWORD PTR [edx-24]
  0000a	33 c8		 xor	 ecx, eax
  0000c	e8 00 00 00 00	 call	 @__security_check_cookie@4
  00011	b8 00 00 00 00	 mov	 eax, OFFSET __ehfuncinfo$??$_Uninit_copy@V?$_Vector_const_iterator@V?$_Vector_val@UBuffInfoStruct@@V?$allocator@UBuffInfoStruct@@@std@@@std@@@std@@PAUBuffInfoStruct@@V?$allocator@UBuffInfoStruct@@@2@@std@@YAPAUBuffInfoStruct@@V?$_Vector_const_iterator@V?$_Vector_val@UBuffInfoStruct@@V?$allocator@UBuffInfoStruct@@@std@@@std@@@0@0PAU1@AAV?$allocator@UBuffInfoStruct@@@0@U_Nonscalar_ptr_iterator_tag@0@@Z
  00016	e9 00 00 00 00	 jmp	 ___CxxFrameHandler3
text$x	ENDS
??$_Uninit_copy@V?$_Vector_const_iterator@V?$_Vector_val@UBuffInfoStruct@@V?$allocator@UBuffInfoStruct@@@std@@@std@@@std@@PAUBuffInfoStruct@@V?$allocator@UBuffInfoStruct@@@2@@std@@YAPAUBuffInfoStruct@@V?$_Vector_const_iterator@V?$_Vector_val@UBuffInfoStruct@@V?$allocator@UBuffInfoStruct@@@std@@@std@@@0@0PAU1@AAV?$allocator@UBuffInfoStruct@@@0@U_Nonscalar_ptr_iterator_tag@0@@Z ENDP ; std::_Uninit_copy<std::_Vector_const_iterator<std::_Vector_val<BuffInfoStruct,std::allocator<BuffInfoStruct> > >,BuffInfoStruct *,std::allocator<BuffInfoStruct> >
PUBLIC	??$_Uninit_move@PAUBuffInfoStruct@@PAU1@V?$allocator@UBuffInfoStruct@@@std@@U1@@std@@YAPAUBuffInfoStruct@@PAU1@00AAV?$allocator@UBuffInfoStruct@@@0@0U_Nonscalar_ptr_iterator_tag@0@@Z ; std::_Uninit_move<BuffInfoStruct *,BuffInfoStruct *,std::allocator<BuffInfoStruct>,BuffInfoStruct>
;	COMDAT xdata$x
; File d:\lost saga for developer\youtube\tutorial\source\src\lsclient\weaponattribute.h
xdata$x	SEGMENT
__catchsym$??$_Uninit_move@PAUBuffInfoStruct@@PAU1@V?$allocator@UBuffInfoStruct@@@std@@U1@@std@@YAPAUBuffInfoStruct@@PAU1@00AAV?$allocator@UBuffInfoStruct@@@0@0U_Nonscalar_ptr_iterator_tag@0@@Z$3 DD 040H
	DD	00H
	DD	00H
	DD	FLAT:__catch$??$_Uninit_move@PAUBuffInfoStruct@@PAU1@V?$allocator@UBuffInfoStruct@@@std@@U1@@std@@YAPAUBuffInfoStruct@@PAU1@00AAV?$allocator@UBuffInfoStruct@@@0@0U_Nonscalar_ptr_iterator_tag@0@@Z$0
__unwindtable$??$_Uninit_move@PAUBuffInfoStruct@@PAU1@V?$allocator@UBuffInfoStruct@@@std@@U1@@std@@YAPAUBuffInfoStruct@@PAU1@00AAV?$allocator@UBuffInfoStruct@@@0@0U_Nonscalar_ptr_iterator_tag@0@@Z DD 0ffffffffH
	DD	00H
	DD	0ffffffffH
	DD	00H
__tryblocktable$??$_Uninit_move@PAUBuffInfoStruct@@PAU1@V?$allocator@UBuffInfoStruct@@@std@@U1@@std@@YAPAUBuffInfoStruct@@PAU1@00AAV?$allocator@UBuffInfoStruct@@@0@0U_Nonscalar_ptr_iterator_tag@0@@Z DD 00H
	DD	00H
	DD	01H
	DD	01H
	DD	FLAT:__catchsym$??$_Uninit_move@PAUBuffInfoStruct@@PAU1@V?$allocator@UBuffInfoStruct@@@std@@U1@@std@@YAPAUBuffInfoStruct@@PAU1@00AAV?$allocator@UBuffInfoStruct@@@0@0U_Nonscalar_ptr_iterator_tag@0@@Z$3
__ehfuncinfo$??$_Uninit_move@PAUBuffInfoStruct@@PAU1@V?$allocator@UBuffInfoStruct@@@std@@U1@@std@@YAPAUBuffInfoStruct@@PAU1@00AAV?$allocator@UBuffInfoStruct@@@0@0U_Nonscalar_ptr_iterator_tag@0@@Z DD 019930522H
	DD	02H
	DD	FLAT:__unwindtable$??$_Uninit_move@PAUBuffInfoStruct@@PAU1@V?$allocator@UBuffInfoStruct@@@std@@U1@@std@@YAPAUBuffInfoStruct@@PAU1@00AAV?$allocator@UBuffInfoStruct@@@0@0U_Nonscalar_ptr_iterator_tag@0@@Z
	DD	01H
	DD	FLAT:__tryblocktable$??$_Uninit_move@PAUBuffInfoStruct@@PAU1@V?$allocator@UBuffInfoStruct@@@std@@U1@@std@@YAPAUBuffInfoStruct@@PAU1@00AAV?$allocator@UBuffInfoStruct@@@0@0U_Nonscalar_ptr_iterator_tag@0@@Z
	DD	2 DUP(00H)
	DD	00H
	DD	01H
; Function compile flags: /Ogsp
; File c:\program files (x86)\microsoft visual studio 10.0\vc\include\memory
xdata$x	ENDS
;	COMDAT ??$_Uninit_move@PAUBuffInfoStruct@@PAU1@V?$allocator@UBuffInfoStruct@@@std@@U1@@std@@YAPAUBuffInfoStruct@@PAU1@00AAV?$allocator@UBuffInfoStruct@@@0@0U_Nonscalar_ptr_iterator_tag@0@@Z
_TEXT	SEGMENT
__Next$ = -20						; size = 4
__$EHRec$ = -16						; size = 16
__First$ = 8						; size = 4
__Last$ = 12						; size = 4
__Dest$ = 16						; size = 4
__Al$ = 20						; size = 4
___formal$ = 24						; size = 4
___formal$ = 28						; size = 1
??$_Uninit_move@PAUBuffInfoStruct@@PAU1@V?$allocator@UBuffInfoStruct@@@std@@U1@@std@@YAPAUBuffInfoStruct@@PAU1@00AAV?$allocator@UBuffInfoStruct@@@0@0U_Nonscalar_ptr_iterator_tag@0@@Z PROC ; std::_Uninit_move<BuffInfoStruct *,BuffInfoStruct *,std::allocator<BuffInfoStruct>,BuffInfoStruct>, COMDAT

; 424  : 	{	// move [_First, _Last) to raw _Dest, using _Al, arbitrary type

  00000	6a 08		 push	 8
  00002	b8 00 00 00 00	 mov	 eax, __ehhandler$??$_Uninit_move@PAUBuffInfoStruct@@PAU1@V?$allocator@UBuffInfoStruct@@@std@@U1@@std@@YAPAUBuffInfoStruct@@PAU1@00AAV?$allocator@UBuffInfoStruct@@@0@0U_Nonscalar_ptr_iterator_tag@0@@Z
  00007	e8 00 00 00 00	 call	 __EH_prolog3_catch

; 425  : 	_DEBUG_RANGE(_First, _Last);
; 426  : 	_DEBUG_POINTER(_Dest);
; 427  : 	_FwdIt _Next = _Dest;

  0000c	8b 45 10	 mov	 eax, DWORD PTR __Dest$[ebp]

; 428  : 
; 429  : 	_TRY_BEGIN

  0000f	83 65 fc 00	 and	 DWORD PTR __$EHRec$[ebp+12], 0
  00013	8b 75 08	 mov	 esi, DWORD PTR __First$[ebp]
  00016	89 45 ec	 mov	 DWORD PTR __Next$[ebp], eax
$LL6@Uninit_mov@4:

; 430  : 	for (; _First != _Last; ++_Dest, ++_First)

  00019	3b 75 0c	 cmp	 esi, DWORD PTR __Last$[ebp]
  0001c	74 33		 je	 SHORT $LN4@Uninit_mov@4

; 431  : 		_Cons_val(_Al, _Dest, (_Valty &&)*_First);

  0001e	8b 4d 14	 mov	 ecx, DWORD PTR __Al$[ebp]
  00021	56		 push	 esi
  00022	ff 75 10	 push	 DWORD PTR __Dest$[ebp]
  00025	e8 00 00 00 00	 call	 ?construct@?$allocator@UBuffInfoStruct@@@std@@QAEXPAUBuffInfoStruct@@$$QAU3@@Z ; std::allocator<BuffInfoStruct>::construct
  0002a	83 45 10 14	 add	 DWORD PTR __Dest$[ebp], 20 ; 00000014H
  0002e	83 c6 14	 add	 esi, 20			; 00000014H
  00031	eb e6		 jmp	 SHORT $LL6@Uninit_mov@4
__catch$??$_Uninit_move@PAUBuffInfoStruct@@PAU1@V?$allocator@UBuffInfoStruct@@@std@@U1@@std@@YAPAUBuffInfoStruct@@PAU1@00AAV?$allocator@UBuffInfoStruct@@@0@0U_Nonscalar_ptr_iterator_tag@0@@Z$0:

; 432  : 	_CATCH_ALL
; 433  : 	for (; _Next != _Dest; ++_Next)

  00033	8b 75 ec	 mov	 esi, DWORD PTR __Next$[ebp]
  00036	eb 0b		 jmp	 SHORT $LN36@Uninit_mov@4
$LL3@Uninit_mov@4:

; 434  : 		_Dest_val(_Al, _Next);

  00038	8b ce		 mov	 ecx, esi
  0003a	ff 15 00 00 00
	00		 call	 DWORD PTR __imp_??1ioHashString@@QAE@XZ
  00040	83 c6 14	 add	 esi, 20			; 00000014H
$LN36@Uninit_mov@4:

; 432  : 	_CATCH_ALL
; 433  : 	for (; _Next != _Dest; ++_Next)

  00043	3b 75 10	 cmp	 esi, DWORD PTR __Dest$[ebp]
  00046	75 f0		 jne	 SHORT $LL3@Uninit_mov@4

; 435  : 	_RERAISE;

  00048	6a 00		 push	 0
  0004a	6a 00		 push	 0
  0004c	e8 00 00 00 00	 call	 __CxxThrowException@8
$LN37@Uninit_mov@4:
$LN4@Uninit_mov@4:

; 436  : 	_CATCH_END
; 437  : 	return (_Dest);

  00051	8b 45 10	 mov	 eax, DWORD PTR __Dest$[ebp]

; 438  : 	}

  00054	e8 00 00 00 00	 call	 __EH_epilog3
  00059	c3		 ret	 0
$LN35@Uninit_mov@4:
_TEXT	ENDS
;	COMDAT text$x
text$x	SEGMENT
__ehhandler$??$_Uninit_move@PAUBuffInfoStruct@@PAU1@V?$allocator@UBuffInfoStruct@@@std@@U1@@std@@YAPAUBuffInfoStruct@@PAU1@00AAV?$allocator@UBuffInfoStruct@@@0@0U_Nonscalar_ptr_iterator_tag@0@@Z:
  00000	8b 54 24 08	 mov	 edx, DWORD PTR [esp+8]
  00004	8d 42 0c	 lea	 eax, DWORD PTR [edx+12]
  00007	8b 4a e8	 mov	 ecx, DWORD PTR [edx-24]
  0000a	33 c8		 xor	 ecx, eax
  0000c	e8 00 00 00 00	 call	 @__security_check_cookie@4
  00011	b8 00 00 00 00	 mov	 eax, OFFSET __ehfuncinfo$??$_Uninit_move@PAUBuffInfoStruct@@PAU1@V?$allocator@UBuffInfoStruct@@@std@@U1@@std@@YAPAUBuffInfoStruct@@PAU1@00AAV?$allocator@UBuffInfoStruct@@@0@0U_Nonscalar_ptr_iterator_tag@0@@Z
  00016	e9 00 00 00 00	 jmp	 ___CxxFrameHandler3
text$x	ENDS
??$_Uninit_move@PAUBuffInfoStruct@@PAU1@V?$allocator@UBuffInfoStruct@@@std@@U1@@std@@YAPAUBuffInfoStruct@@PAU1@00AAV?$allocator@UBuffInfoStruct@@@0@0U_Nonscalar_ptr_iterator_tag@0@@Z ENDP ; std::_Uninit_move<BuffInfoStruct *,BuffInfoStruct *,std::allocator<BuffInfoStruct>,BuffInfoStruct>
PUBLIC	??$_Destroy_range@V?$allocator@UForceInfo@@@std@@@std@@YAXPAUForceInfo@@0AAV?$allocator@UForceInfo@@@0@@Z ; std::_Destroy_range<std::allocator<ForceInfo> >
; Function compile flags: /Ogsp
; File c:\program files (x86)\microsoft visual studio 10.0\vc\include\xmemory
;	COMDAT ??$_Destroy_range@V?$allocator@UForceInfo@@@std@@@std@@YAXPAUForceInfo@@0AAV?$allocator@UForceInfo@@@0@@Z
_TEXT	SEGMENT
__First$ = 8						; size = 4
__Last$ = 12						; size = 4
__Al$ = 16						; size = 4
??$_Destroy_range@V?$allocator@UForceInfo@@@std@@@std@@YAXPAUForceInfo@@0AAV?$allocator@UForceInfo@@@0@@Z PROC ; std::_Destroy_range<std::allocator<ForceInfo> >, COMDAT

; 88   : 	_Destroy_range(_First, _Last, _Al, _Ptr_cat(_First, _Last));
; 89   : 	}

  00000	c3		 ret	 0
??$_Destroy_range@V?$allocator@UForceInfo@@@std@@@std@@YAXPAUForceInfo@@0AAV?$allocator@UForceInfo@@@0@@Z ENDP ; std::_Destroy_range<std::allocator<ForceInfo> >
_TEXT	ENDS
PUBLIC	??$_Destroy_range@V?$allocator@UBuffInfoStruct@@@std@@@std@@YAXPAUBuffInfoStruct@@0AAV?$allocator@UBuffInfoStruct@@@0@U_Nonscalar_ptr_iterator_tag@0@@Z ; std::_Destroy_range<std::allocator<BuffInfoStruct> >
; Function compile flags: /Ogsp
;	COMDAT ??$_Destroy_range@V?$allocator@UBuffInfoStruct@@@std@@@std@@YAXPAUBuffInfoStruct@@0AAV?$allocator@UBuffInfoStruct@@@0@U_Nonscalar_ptr_iterator_tag@0@@Z
_TEXT	SEGMENT
__First$ = 8						; size = 4
__Last$ = 12						; size = 4
__Al$ = 16						; size = 4
___formal$ = 20						; size = 1
??$_Destroy_range@V?$allocator@UBuffInfoStruct@@@std@@@std@@YAXPAUBuffInfoStruct@@0AAV?$allocator@UBuffInfoStruct@@@0@U_Nonscalar_ptr_iterator_tag@0@@Z PROC ; std::_Destroy_range<std::allocator<BuffInfoStruct> >, COMDAT

; 95   : 	{	// destroy [_First, _Last), arbitrary type

  00000	55		 push	 ebp
  00001	8b ec		 mov	 ebp, esp
  00003	56		 push	 esi

; 96   : 	for (; _First != _Last; ++_First)

  00004	8b 75 08	 mov	 esi, DWORD PTR __First$[ebp]
  00007	eb 0b		 jmp	 SHORT $LN20@Destroy_ra
$LL3@Destroy_ra:

; 97   : 		_Dest_val(_Al, _First);

  00009	8b ce		 mov	 ecx, esi
  0000b	ff 15 00 00 00
	00		 call	 DWORD PTR __imp_??1ioHashString@@QAE@XZ
  00011	83 c6 14	 add	 esi, 20			; 00000014H
$LN20@Destroy_ra:

; 96   : 	for (; _First != _Last; ++_First)

  00014	3b 75 0c	 cmp	 esi, DWORD PTR __Last$[ebp]
  00017	75 f0		 jne	 SHORT $LL3@Destroy_ra
  00019	5e		 pop	 esi

; 98   : 	}

  0001a	5d		 pop	 ebp
  0001b	c3		 ret	 0
??$_Destroy_range@V?$allocator@UBuffInfoStruct@@@std@@@std@@YAXPAUBuffInfoStruct@@0AAV?$allocator@UBuffInfoStruct@@@0@U_Nonscalar_ptr_iterator_tag@0@@Z ENDP ; std::_Destroy_range<std::allocator<BuffInfoStruct> >
_TEXT	ENDS
PUBLIC	??$_Destroy_range@V?$allocator@UWeaponInfo@@@std@@@std@@YAXPAUWeaponInfo@@0AAV?$allocator@UWeaponInfo@@@0@U_Nonscalar_ptr_iterator_tag@0@@Z ; std::_Destroy_range<std::allocator<WeaponInfo> >
; Function compile flags: /Ogsp
;	COMDAT ??$_Destroy_range@V?$allocator@UWeaponInfo@@@std@@@std@@YAXPAUWeaponInfo@@0AAV?$allocator@UWeaponInfo@@@0@U_Nonscalar_ptr_iterator_tag@0@@Z
_TEXT	SEGMENT
__First$ = 8						; size = 4
__Last$ = 12						; size = 4
__Al$ = 16						; size = 4
___formal$ = 20						; size = 1
??$_Destroy_range@V?$allocator@UWeaponInfo@@@std@@@std@@YAXPAUWeaponInfo@@0AAV?$allocator@UWeaponInfo@@@0@U_Nonscalar_ptr_iterator_tag@0@@Z PROC ; std::_Destroy_range<std::allocator<WeaponInfo> >, COMDAT

; 95   : 	{	// destroy [_First, _Last), arbitrary type

  00000	55		 push	 ebp
  00001	8b ec		 mov	 ebp, esp
  00003	56		 push	 esi

; 96   : 	for (; _First != _Last; ++_First)

  00004	8b 75 08	 mov	 esi, DWORD PTR __First$[ebp]
  00007	eb 0c		 jmp	 SHORT $LN20@Destroy_ra@2
$LL3@Destroy_ra@2:

; 97   : 		_Dest_val(_Al, _First);

  00009	8d 4e 08	 lea	 ecx, DWORD PTR [esi+8]
  0000c	ff 15 00 00 00
	00		 call	 DWORD PTR __imp_??1ioHashString@@QAE@XZ
  00012	83 c6 28	 add	 esi, 40			; 00000028H
$LN20@Destroy_ra@2:

; 96   : 	for (; _First != _Last; ++_First)

  00015	3b 75 0c	 cmp	 esi, DWORD PTR __Last$[ebp]
  00018	75 ef		 jne	 SHORT $LL3@Destroy_ra@2
  0001a	5e		 pop	 esi

; 98   : 	}

  0001b	5d		 pop	 ebp
  0001c	c3		 ret	 0
??$_Destroy_range@V?$allocator@UWeaponInfo@@@std@@@std@@YAXPAUWeaponInfo@@0AAV?$allocator@UWeaponInfo@@@0@U_Nonscalar_ptr_iterator_tag@0@@Z ENDP ; std::_Destroy_range<std::allocator<WeaponInfo> >
_TEXT	ENDS
PUBLIC	?_Destroy@?$vector@UWeaponMoveInfo@@V?$allocator@UWeaponMoveInfo@@@std@@@std@@IAEXPAUWeaponMoveInfo@@0@Z ; std::vector<WeaponMoveInfo,std::allocator<WeaponMoveInfo> >::_Destroy
; Function compile flags: /Ogsp
; File c:\program files (x86)\microsoft visual studio 10.0\vc\include\vector
;	COMDAT ?_Destroy@?$vector@UWeaponMoveInfo@@V?$allocator@UWeaponMoveInfo@@@std@@@std@@IAEXPAUWeaponMoveInfo@@0@Z
_TEXT	SEGMENT
__First$ = 8						; size = 4
__Last$ = 12						; size = 4
?_Destroy@?$vector@UWeaponMoveInfo@@V?$allocator@UWeaponMoveInfo@@@std@@@std@@IAEXPAUWeaponMoveInfo@@0@Z PROC ; std::vector<WeaponMoveInfo,std::allocator<WeaponMoveInfo> >::_Destroy, COMDAT
; _this$ = ecx

; 1270 : 		_Destroy_range(_First, _Last, this->_Alval);
; 1271 : 		}

  00000	c2 08 00	 ret	 8
?_Destroy@?$vector@UWeaponMoveInfo@@V?$allocator@UWeaponMoveInfo@@@std@@@std@@IAEXPAUWeaponMoveInfo@@0@Z ENDP ; std::vector<WeaponMoveInfo,std::allocator<WeaponMoveInfo> >::_Destroy
_TEXT	ENDS
PUBLIC	??$_Ucopy@V?$_Vector_const_iterator@V?$_Vector_val@UForceInfo@@V?$allocator@UForceInfo@@@std@@@std@@@std@@@?$vector@UForceInfo@@V?$allocator@UForceInfo@@@std@@@std@@IAEPAUForceInfo@@V?$_Vector_const_iterator@V?$_Vector_val@UForceInfo@@V?$allocator@UForceInfo@@@std@@@std@@@1@0PAU2@@Z ; std::vector<ForceInfo,std::allocator<ForceInfo> >::_Ucopy<std::_Vector_const_iterator<std::_Vector_val<ForceInfo,std::allocator<ForceInfo> > > >
; Function compile flags: /Ogsp
;	COMDAT ??$_Ucopy@V?$_Vector_const_iterator@V?$_Vector_val@UForceInfo@@V?$allocator@UForceInfo@@@std@@@std@@@std@@@?$vector@UForceInfo@@V?$allocator@UForceInfo@@@std@@@std@@IAEPAUForceInfo@@V?$_Vector_const_iterator@V?$_Vector_val@UForceInfo@@V?$allocator@UForceInfo@@@std@@@std@@@1@0PAU2@@Z
_TEXT	SEGMENT
__First$ = 8						; size = 4
__Last$ = 12						; size = 4
__Cat$579086 = 16					; size = 1
__Ptr$ = 16						; size = 4
??$_Ucopy@V?$_Vector_const_iterator@V?$_Vector_val@UForceInfo@@V?$allocator@UForceInfo@@@std@@@std@@@std@@@?$vector@UForceInfo@@V?$allocator@UForceInfo@@@std@@@std@@IAEPAUForceInfo@@V?$_Vector_const_iterator@V?$_Vector_val@UForceInfo@@V?$allocator@UForceInfo@@@std@@@std@@@1@0PAU2@@Z PROC ; std::vector<ForceInfo,std::allocator<ForceInfo> >::_Ucopy<std::_Vector_const_iterator<std::_Vector_val<ForceInfo,std::allocator<ForceInfo> > > >, COMDAT
; _this$ = ecx

; 1315 : 		pointer _Ucopy(_Iter _First, _Iter _Last, pointer _Ptr)

  00000	55		 push	 ebp
  00001	8b ec		 mov	 ebp, esp

; 1316 : 		{	// copy initializing [_First, _Last), using allocator
; 1317 : 		return (_Uninitialized_copy(_First, _Last,
; 1318 : 			_Ptr, this->_Alval));

  00003	ff 75 10	 push	 DWORD PTR __Cat$579086[ebp]
  00006	83 c1 0c	 add	 ecx, 12			; 0000000cH
  00009	51		 push	 ecx
  0000a	ff 75 10	 push	 DWORD PTR __Ptr$[ebp]
  0000d	ff 75 0c	 push	 DWORD PTR __Last$[ebp]
  00010	ff 75 08	 push	 DWORD PTR __First$[ebp]
  00013	e8 00 00 00 00	 call	 ??$_Uninit_copy@V?$_Vector_const_iterator@V?$_Vector_val@UForceInfo@@V?$allocator@UForceInfo@@@std@@@std@@@std@@PAUForceInfo@@V?$allocator@UForceInfo@@@2@@std@@YAPAUForceInfo@@V?$_Vector_const_iterator@V?$_Vector_val@UForceInfo@@V?$allocator@UForceInfo@@@std@@@std@@@0@0PAU1@AAV?$allocator@UForceInfo@@@0@U_Nonscalar_ptr_iterator_tag@0@@Z ; std::_Uninit_copy<std::_Vector_const_iterator<std::_Vector_val<ForceInfo,std::allocator<ForceInfo> > >,ForceInfo *,std::allocator<ForceInfo> >
  00018	83 c4 14	 add	 esp, 20			; 00000014H

; 1319 : 		}

  0001b	5d		 pop	 ebp
  0001c	c2 0c 00	 ret	 12			; 0000000cH
??$_Ucopy@V?$_Vector_const_iterator@V?$_Vector_val@UForceInfo@@V?$allocator@UForceInfo@@@std@@@std@@@std@@@?$vector@UForceInfo@@V?$allocator@UForceInfo@@@std@@@std@@IAEPAUForceInfo@@V?$_Vector_const_iterator@V?$_Vector_val@UForceInfo@@V?$allocator@UForceInfo@@@std@@@std@@@1@0PAU2@@Z ENDP ; std::vector<ForceInfo,std::allocator<ForceInfo> >::_Ucopy<std::_Vector_const_iterator<std::_Vector_val<ForceInfo,std::allocator<ForceInfo> > > >
_TEXT	ENDS
PUBLIC	??$_Umove@PAUForceInfo@@@?$vector@UForceInfo@@V?$allocator@UForceInfo@@@std@@@std@@IAEPAUForceInfo@@PAU2@00@Z ; std::vector<ForceInfo,std::allocator<ForceInfo> >::_Umove<ForceInfo *>
; Function compile flags: /Ogsp
;	COMDAT ??$_Umove@PAUForceInfo@@@?$vector@UForceInfo@@V?$allocator@UForceInfo@@@std@@@std@@IAEPAUForceInfo@@PAU2@00@Z
_TEXT	SEGMENT
__First$ = 8						; size = 4
__Last$ = 12						; size = 4
__Ptr$ = 16						; size = 4
??$_Umove@PAUForceInfo@@@?$vector@UForceInfo@@V?$allocator@UForceInfo@@@std@@@std@@IAEPAUForceInfo@@PAU2@00@Z PROC ; std::vector<ForceInfo,std::allocator<ForceInfo> >::_Umove<ForceInfo *>, COMDAT
; _this$ = ecx

; 1322 : 		pointer _Umove(_Iter _First, _Iter _Last, pointer _Ptr)

  00000	55		 push	 ebp
  00001	8b ec		 mov	 ebp, esp

; 1323 : 		{	// move initializing [_First, _Last), using allocator
; 1324 : 		return (_Uninitialized_move(_First, _Last,
; 1325 : 			_Ptr, this->_Alval));

  00003	83 c1 0c	 add	 ecx, 12			; 0000000cH
  00006	51		 push	 ecx
  00007	ff 75 10	 push	 DWORD PTR __Ptr$[ebp]
  0000a	ff 75 0c	 push	 DWORD PTR __Last$[ebp]
  0000d	ff 75 08	 push	 DWORD PTR __First$[ebp]
  00010	e8 00 00 00 00	 call	 ??$_Uninitialized_move@PAUForceInfo@@PAU1@V?$allocator@UForceInfo@@@std@@@std@@YAPAUForceInfo@@PAU1@00AAV?$allocator@UForceInfo@@@0@@Z ; std::_Uninitialized_move<ForceInfo *,ForceInfo *,std::allocator<ForceInfo> >
  00015	83 c4 10	 add	 esp, 16			; 00000010H

; 1326 : 		}

  00018	5d		 pop	 ebp
  00019	c2 0c 00	 ret	 12			; 0000000cH
??$_Umove@PAUForceInfo@@@?$vector@UForceInfo@@V?$allocator@UForceInfo@@@std@@@std@@IAEPAUForceInfo@@PAU2@00@Z ENDP ; std::vector<ForceInfo,std::allocator<ForceInfo> >::_Umove<ForceInfo *>
_TEXT	ENDS
PUBLIC	??$_Umove@PAUWeaponMoveInfo@@@?$vector@UWeaponMoveInfo@@V?$allocator@UWeaponMoveInfo@@@std@@@std@@IAEPAUWeaponMoveInfo@@PAU2@00@Z ; std::vector<WeaponMoveInfo,std::allocator<WeaponMoveInfo> >::_Umove<WeaponMoveInfo *>
; Function compile flags: /Ogsp
;	COMDAT ??$_Umove@PAUWeaponMoveInfo@@@?$vector@UWeaponMoveInfo@@V?$allocator@UWeaponMoveInfo@@@std@@@std@@IAEPAUWeaponMoveInfo@@PAU2@00@Z
_TEXT	SEGMENT
__First$ = 8						; size = 4
__Last$ = 12						; size = 4
__Ptr$ = 16						; size = 4
??$_Umove@PAUWeaponMoveInfo@@@?$vector@UWeaponMoveInfo@@V?$allocator@UWeaponMoveInfo@@@std@@@std@@IAEPAUWeaponMoveInfo@@PAU2@00@Z PROC ; std::vector<WeaponMoveInfo,std::allocator<WeaponMoveInfo> >::_Umove<WeaponMoveInfo *>, COMDAT
; _this$ = ecx

; 1322 : 		pointer _Umove(_Iter _First, _Iter _Last, pointer _Ptr)

  00000	55		 push	 ebp
  00001	8b ec		 mov	 ebp, esp

; 1323 : 		{	// move initializing [_First, _Last), using allocator
; 1324 : 		return (_Uninitialized_move(_First, _Last,
; 1325 : 			_Ptr, this->_Alval));

  00003	83 c1 0c	 add	 ecx, 12			; 0000000cH
  00006	51		 push	 ecx
  00007	ff 75 10	 push	 DWORD PTR __Ptr$[ebp]
  0000a	ff 75 0c	 push	 DWORD PTR __Last$[ebp]
  0000d	ff 75 08	 push	 DWORD PTR __First$[ebp]
  00010	e8 00 00 00 00	 call	 ??$_Uninitialized_move@PAUWeaponMoveInfo@@PAU1@V?$allocator@UWeaponMoveInfo@@@std@@@std@@YAPAUWeaponMoveInfo@@PAU1@00AAV?$allocator@UWeaponMoveInfo@@@0@@Z ; std::_Uninitialized_move<WeaponMoveInfo *,WeaponMoveInfo *,std::allocator<WeaponMoveInfo> >
  00015	83 c4 10	 add	 esp, 16			; 00000010H

; 1326 : 		}

  00018	5d		 pop	 ebp
  00019	c2 0c 00	 ret	 12			; 0000000cH
??$_Umove@PAUWeaponMoveInfo@@@?$vector@UWeaponMoveInfo@@V?$allocator@UWeaponMoveInfo@@@std@@@std@@IAEPAUWeaponMoveInfo@@PAU2@00@Z ENDP ; std::vector<WeaponMoveInfo,std::allocator<WeaponMoveInfo> >::_Umove<WeaponMoveInfo *>
_TEXT	ENDS
PUBLIC	??$_Uninitialized_copy@V?$_Vector_const_iterator@V?$_Vector_val@UWeaponInfo@@V?$allocator@UWeaponInfo@@@std@@@std@@@std@@PAUWeaponInfo@@V?$allocator@UWeaponInfo@@@2@@std@@YAPAUWeaponInfo@@V?$_Vector_const_iterator@V?$_Vector_val@UWeaponInfo@@V?$allocator@UWeaponInfo@@@std@@@std@@@0@0PAU1@AAV?$allocator@UWeaponInfo@@@0@@Z ; std::_Uninitialized_copy<std::_Vector_const_iterator<std::_Vector_val<WeaponInfo,std::allocator<WeaponInfo> > >,WeaponInfo *,std::allocator<WeaponInfo> >
; Function compile flags: /Ogsp
; File c:\program files (x86)\microsoft visual studio 10.0\vc\include\memory
;	COMDAT ??$_Uninitialized_copy@V?$_Vector_const_iterator@V?$_Vector_val@UWeaponInfo@@V?$allocator@UWeaponInfo@@@std@@@std@@@std@@PAUWeaponInfo@@V?$allocator@UWeaponInfo@@@2@@std@@YAPAUWeaponInfo@@V?$_Vector_const_iterator@V?$_Vector_val@UWeaponInfo@@V?$allocator@UWeaponInfo@@@std@@@std@@@0@0PAU1@AAV?$allocator@UWeaponInfo@@@0@@Z
_TEXT	SEGMENT
__Cat$579099 = -4					; size = 1
__First$ = 8						; size = 4
__Last$ = 12						; size = 4
__Dest$ = 16						; size = 4
__Al$ = 20						; size = 4
??$_Uninitialized_copy@V?$_Vector_const_iterator@V?$_Vector_val@UWeaponInfo@@V?$allocator@UWeaponInfo@@@std@@@std@@@std@@PAUWeaponInfo@@V?$allocator@UWeaponInfo@@@2@@std@@YAPAUWeaponInfo@@V?$_Vector_const_iterator@V?$_Vector_val@UWeaponInfo@@V?$allocator@UWeaponInfo@@@std@@@std@@@0@0PAU1@AAV?$allocator@UWeaponInfo@@@0@@Z PROC ; std::_Uninitialized_copy<std::_Vector_const_iterator<std::_Vector_val<WeaponInfo,std::allocator<WeaponInfo> > >,WeaponInfo *,std::allocator<WeaponInfo> >, COMDAT

; 412  : 	{	// copy [_First, _Last) to raw _Dest, using _Al

  00000	55		 push	 ebp
  00001	8b ec		 mov	 ebp, esp
  00003	51		 push	 ecx

; 413  : 	return (_Uninit_copy(_First, _Last, _Dest, _Al,
; 414  : 		_Ptr_cat(_First, _Dest)));

  00004	ff 75 fc	 push	 DWORD PTR __Cat$579099[ebp]
  00007	ff 75 14	 push	 DWORD PTR __Al$[ebp]
  0000a	ff 75 10	 push	 DWORD PTR __Dest$[ebp]
  0000d	ff 75 0c	 push	 DWORD PTR __Last$[ebp]
  00010	ff 75 08	 push	 DWORD PTR __First$[ebp]
  00013	e8 00 00 00 00	 call	 ??$_Uninit_copy@V?$_Vector_const_iterator@V?$_Vector_val@UWeaponInfo@@V?$allocator@UWeaponInfo@@@std@@@std@@@std@@PAUWeaponInfo@@V?$allocator@UWeaponInfo@@@2@@std@@YAPAUWeaponInfo@@V?$_Vector_const_iterator@V?$_Vector_val@UWeaponInfo@@V?$allocator@UWeaponInfo@@@std@@@std@@@0@0PAU1@AAV?$allocator@UWeaponInfo@@@0@U_Nonscalar_ptr_iterator_tag@0@@Z ; std::_Uninit_copy<std::_Vector_const_iterator<std::_Vector_val<WeaponInfo,std::allocator<WeaponInfo> > >,WeaponInfo *,std::allocator<WeaponInfo> >
  00018	83 c4 14	 add	 esp, 20			; 00000014H

; 415  : 	}

  0001b	c9		 leave
  0001c	c3		 ret	 0
??$_Uninitialized_copy@V?$_Vector_const_iterator@V?$_Vector_val@UWeaponInfo@@V?$allocator@UWeaponInfo@@@std@@@std@@@std@@PAUWeaponInfo@@V?$allocator@UWeaponInfo@@@2@@std@@YAPAUWeaponInfo@@V?$_Vector_const_iterator@V?$_Vector_val@UWeaponInfo@@V?$allocator@UWeaponInfo@@@std@@@std@@@0@0PAU1@AAV?$allocator@UWeaponInfo@@@0@@Z ENDP ; std::_Uninitialized_copy<std::_Vector_const_iterator<std::_Vector_val<WeaponInfo,std::allocator<WeaponInfo> > >,WeaponInfo *,std::allocator<WeaponInfo> >
_TEXT	ENDS
PUBLIC	??$_Uninitialized_move@PAUWeaponInfo@@PAU1@V?$allocator@UWeaponInfo@@@std@@@std@@YAPAUWeaponInfo@@PAU1@00AAV?$allocator@UWeaponInfo@@@0@@Z ; std::_Uninitialized_move<WeaponInfo *,WeaponInfo *,std::allocator<WeaponInfo> >
; Function compile flags: /Ogsp
;	COMDAT ??$_Uninitialized_move@PAUWeaponInfo@@PAU1@V?$allocator@UWeaponInfo@@@std@@@std@@YAPAUWeaponInfo@@PAU1@00AAV?$allocator@UWeaponInfo@@@0@@Z
_TEXT	SEGMENT
__Cat$579106 = -4					; size = 1
__First$ = 8						; size = 4
__Last$ = 12						; size = 4
__Dest$ = 16						; size = 4
__Al$ = 20						; size = 4
??$_Uninitialized_move@PAUWeaponInfo@@PAU1@V?$allocator@UWeaponInfo@@@std@@@std@@YAPAUWeaponInfo@@PAU1@00AAV?$allocator@UWeaponInfo@@@0@@Z PROC ; std::_Uninitialized_move<WeaponInfo *,WeaponInfo *,std::allocator<WeaponInfo> >, COMDAT

; 469  : 	{	// move [_First, _Last) to raw _Dest, using _Al

  00000	55		 push	 ebp
  00001	8b ec		 mov	 ebp, esp
  00003	51		 push	 ecx

; 470  : 	return (_Uninit_move(_First, _Last, _Dest, _Al,
; 471  : 		_Val_type(_First), _Ptr_cat(_First, _Dest)));

  00004	ff 75 fc	 push	 DWORD PTR __Cat$579106[ebp]
  00007	6a 00		 push	 0
  00009	ff 75 14	 push	 DWORD PTR __Al$[ebp]
  0000c	ff 75 10	 push	 DWORD PTR __Dest$[ebp]
  0000f	ff 75 0c	 push	 DWORD PTR __Last$[ebp]
  00012	ff 75 08	 push	 DWORD PTR __First$[ebp]
  00015	e8 00 00 00 00	 call	 ??$_Uninit_move@PAUWeaponInfo@@PAU1@V?$allocator@UWeaponInfo@@@std@@U1@@std@@YAPAUWeaponInfo@@PAU1@00AAV?$allocator@UWeaponInfo@@@0@0U_Nonscalar_ptr_iterator_tag@0@@Z ; std::_Uninit_move<WeaponInfo *,WeaponInfo *,std::allocator<WeaponInfo>,WeaponInfo>
  0001a	83 c4 18	 add	 esp, 24			; 00000018H

; 472  : 	}

  0001d	c9		 leave
  0001e	c3		 ret	 0
??$_Uninitialized_move@PAUWeaponInfo@@PAU1@V?$allocator@UWeaponInfo@@@std@@@std@@YAPAUWeaponInfo@@PAU1@00AAV?$allocator@UWeaponInfo@@@0@@Z ENDP ; std::_Uninitialized_move<WeaponInfo *,WeaponInfo *,std::allocator<WeaponInfo> >
_TEXT	ENDS
PUBLIC	??$_Uninitialized_copy@V?$_Vector_const_iterator@V?$_Vector_val@UBuffInfoStruct@@V?$allocator@UBuffInfoStruct@@@std@@@std@@@std@@PAUBuffInfoStruct@@V?$allocator@UBuffInfoStruct@@@2@@std@@YAPAUBuffInfoStruct@@V?$_Vector_const_iterator@V?$_Vector_val@UBuffInfoStruct@@V?$allocator@UBuffInfoStruct@@@std@@@std@@@0@0PAU1@AAV?$allocator@UBuffInfoStruct@@@0@@Z ; std::_Uninitialized_copy<std::_Vector_const_iterator<std::_Vector_val<BuffInfoStruct,std::allocator<BuffInfoStruct> > >,BuffInfoStruct *,std::allocator<BuffInfoStruct> >
; Function compile flags: /Ogsp
;	COMDAT ??$_Uninitialized_copy@V?$_Vector_const_iterator@V?$_Vector_val@UBuffInfoStruct@@V?$allocator@UBuffInfoStruct@@@std@@@std@@@std@@PAUBuffInfoStruct@@V?$allocator@UBuffInfoStruct@@@2@@std@@YAPAUBuffInfoStruct@@V?$_Vector_const_iterator@V?$_Vector_val@UBuffInfoStruct@@V?$allocator@UBuffInfoStruct@@@std@@@std@@@0@0PAU1@AAV?$allocator@UBuffInfoStruct@@@0@@Z
_TEXT	SEGMENT
__Cat$579116 = -4					; size = 1
__First$ = 8						; size = 4
__Last$ = 12						; size = 4
__Dest$ = 16						; size = 4
__Al$ = 20						; size = 4
??$_Uninitialized_copy@V?$_Vector_const_iterator@V?$_Vector_val@UBuffInfoStruct@@V?$allocator@UBuffInfoStruct@@@std@@@std@@@std@@PAUBuffInfoStruct@@V?$allocator@UBuffInfoStruct@@@2@@std@@YAPAUBuffInfoStruct@@V?$_Vector_const_iterator@V?$_Vector_val@UBuffInfoStruct@@V?$allocator@UBuffInfoStruct@@@std@@@std@@@0@0PAU1@AAV?$allocator@UBuffInfoStruct@@@0@@Z PROC ; std::_Uninitialized_copy<std::_Vector_const_iterator<std::_Vector_val<BuffInfoStruct,std::allocator<BuffInfoStruct> > >,BuffInfoStruct *,std::allocator<BuffInfoStruct> >, COMDAT

; 412  : 	{	// copy [_First, _Last) to raw _Dest, using _Al

  00000	55		 push	 ebp
  00001	8b ec		 mov	 ebp, esp
  00003	51		 push	 ecx

; 413  : 	return (_Uninit_copy(_First, _Last, _Dest, _Al,
; 414  : 		_Ptr_cat(_First, _Dest)));

  00004	ff 75 fc	 push	 DWORD PTR __Cat$579116[ebp]
  00007	ff 75 14	 push	 DWORD PTR __Al$[ebp]
  0000a	ff 75 10	 push	 DWORD PTR __Dest$[ebp]
  0000d	ff 75 0c	 push	 DWORD PTR __Last$[ebp]
  00010	ff 75 08	 push	 DWORD PTR __First$[ebp]
  00013	e8 00 00 00 00	 call	 ??$_Uninit_copy@V?$_Vector_const_iterator@V?$_Vector_val@UBuffInfoStruct@@V?$allocator@UBuffInfoStruct@@@std@@@std@@@std@@PAUBuffInfoStruct@@V?$allocator@UBuffInfoStruct@@@2@@std@@YAPAUBuffInfoStruct@@V?$_Vector_const_iterator@V?$_Vector_val@UBuffInfoStruct@@V?$allocator@UBuffInfoStruct@@@std@@@std@@@0@0PAU1@AAV?$allocator@UBuffInfoStruct@@@0@U_Nonscalar_ptr_iterator_tag@0@@Z ; std::_Uninit_copy<std::_Vector_const_iterator<std::_Vector_val<BuffInfoStruct,std::allocator<BuffInfoStruct> > >,BuffInfoStruct *,std::allocator<BuffInfoStruct> >
  00018	83 c4 14	 add	 esp, 20			; 00000014H

; 415  : 	}

  0001b	c9		 leave
  0001c	c3		 ret	 0
??$_Uninitialized_copy@V?$_Vector_const_iterator@V?$_Vector_val@UBuffInfoStruct@@V?$allocator@UBuffInfoStruct@@@std@@@std@@@std@@PAUBuffInfoStruct@@V?$allocator@UBuffInfoStruct@@@2@@std@@YAPAUBuffInfoStruct@@V?$_Vector_const_iterator@V?$_Vector_val@UBuffInfoStruct@@V?$allocator@UBuffInfoStruct@@@std@@@std@@@0@0PAU1@AAV?$allocator@UBuffInfoStruct@@@0@@Z ENDP ; std::_Uninitialized_copy<std::_Vector_const_iterator<std::_Vector_val<BuffInfoStruct,std::allocator<BuffInfoStruct> > >,BuffInfoStruct *,std::allocator<BuffInfoStruct> >
_TEXT	ENDS
PUBLIC	??$_Uninitialized_move@PAUBuffInfoStruct@@PAU1@V?$allocator@UBuffInfoStruct@@@std@@@std@@YAPAUBuffInfoStruct@@PAU1@00AAV?$allocator@UBuffInfoStruct@@@0@@Z ; std::_Uninitialized_move<BuffInfoStruct *,BuffInfoStruct *,std::allocator<BuffInfoStruct> >
; Function compile flags: /Ogsp
;	COMDAT ??$_Uninitialized_move@PAUBuffInfoStruct@@PAU1@V?$allocator@UBuffInfoStruct@@@std@@@std@@YAPAUBuffInfoStruct@@PAU1@00AAV?$allocator@UBuffInfoStruct@@@0@@Z
_TEXT	SEGMENT
__Cat$579122 = -4					; size = 1
__First$ = 8						; size = 4
__Last$ = 12						; size = 4
__Dest$ = 16						; size = 4
__Al$ = 20						; size = 4
??$_Uninitialized_move@PAUBuffInfoStruct@@PAU1@V?$allocator@UBuffInfoStruct@@@std@@@std@@YAPAUBuffInfoStruct@@PAU1@00AAV?$allocator@UBuffInfoStruct@@@0@@Z PROC ; std::_Uninitialized_move<BuffInfoStruct *,BuffInfoStruct *,std::allocator<BuffInfoStruct> >, COMDAT

; 469  : 	{	// move [_First, _Last) to raw _Dest, using _Al

  00000	55		 push	 ebp
  00001	8b ec		 mov	 ebp, esp
  00003	51		 push	 ecx

; 470  : 	return (_Uninit_move(_First, _Last, _Dest, _Al,
; 471  : 		_Val_type(_First), _Ptr_cat(_First, _Dest)));

  00004	ff 75 fc	 push	 DWORD PTR __Cat$579122[ebp]
  00007	6a 00		 push	 0
  00009	ff 75 14	 push	 DWORD PTR __Al$[ebp]
  0000c	ff 75 10	 push	 DWORD PTR __Dest$[ebp]
  0000f	ff 75 0c	 push	 DWORD PTR __Last$[ebp]
  00012	ff 75 08	 push	 DWORD PTR __First$[ebp]
  00015	e8 00 00 00 00	 call	 ??$_Uninit_move@PAUBuffInfoStruct@@PAU1@V?$allocator@UBuffInfoStruct@@@std@@U1@@std@@YAPAUBuffInfoStruct@@PAU1@00AAV?$allocator@UBuffInfoStruct@@@0@0U_Nonscalar_ptr_iterator_tag@0@@Z ; std::_Uninit_move<BuffInfoStruct *,BuffInfoStruct *,std::allocator<BuffInfoStruct>,BuffInfoStruct>
  0001a	83 c4 18	 add	 esp, 24			; 00000018H

; 472  : 	}

  0001d	c9		 leave
  0001e	c3		 ret	 0
??$_Uninitialized_move@PAUBuffInfoStruct@@PAU1@V?$allocator@UBuffInfoStruct@@@std@@@std@@YAPAUBuffInfoStruct@@PAU1@00AAV?$allocator@UBuffInfoStruct@@@0@@Z ENDP ; std::_Uninitialized_move<BuffInfoStruct *,BuffInfoStruct *,std::allocator<BuffInfoStruct> >
_TEXT	ENDS
PUBLIC	?_Destroy@?$vector@UForceInfo@@V?$allocator@UForceInfo@@@std@@@std@@IAEXPAUForceInfo@@0@Z ; std::vector<ForceInfo,std::allocator<ForceInfo> >::_Destroy
; Function compile flags: /Ogsp
; File c:\program files (x86)\microsoft visual studio 10.0\vc\include\vector
;	COMDAT ?_Destroy@?$vector@UForceInfo@@V?$allocator@UForceInfo@@@std@@@std@@IAEXPAUForceInfo@@0@Z
_TEXT	SEGMENT
__First$ = 8						; size = 4
__Last$ = 12						; size = 4
?_Destroy@?$vector@UForceInfo@@V?$allocator@UForceInfo@@@std@@@std@@IAEXPAUForceInfo@@0@Z PROC ; std::vector<ForceInfo,std::allocator<ForceInfo> >::_Destroy, COMDAT
; _this$ = ecx

; 1270 : 		_Destroy_range(_First, _Last, this->_Alval);
; 1271 : 		}

  00000	c2 08 00	 ret	 8
?_Destroy@?$vector@UForceInfo@@V?$allocator@UForceInfo@@@std@@@std@@IAEXPAUForceInfo@@0@Z ENDP ; std::vector<ForceInfo,std::allocator<ForceInfo> >::_Destroy
_TEXT	ENDS
PUBLIC	??$_Destroy_range@V?$allocator@UBuffInfoStruct@@@std@@@std@@YAXPAUBuffInfoStruct@@0AAV?$allocator@UBuffInfoStruct@@@0@@Z ; std::_Destroy_range<std::allocator<BuffInfoStruct> >
; Function compile flags: /Ogsp
; File c:\program files (x86)\microsoft visual studio 10.0\vc\include\xmemory
;	COMDAT ??$_Destroy_range@V?$allocator@UBuffInfoStruct@@@std@@@std@@YAXPAUBuffInfoStruct@@0AAV?$allocator@UBuffInfoStruct@@@0@@Z
_TEXT	SEGMENT
__First$ = 8						; size = 4
__Last$ = 12						; size = 4
__Al$ = 16						; size = 4
??$_Destroy_range@V?$allocator@UBuffInfoStruct@@@std@@@std@@YAXPAUBuffInfoStruct@@0AAV?$allocator@UBuffInfoStruct@@@0@@Z PROC ; std::_Destroy_range<std::allocator<BuffInfoStruct> >, COMDAT

; 87   : 	{	// destroy [_First, _Last)

  00000	55		 push	 ebp
  00001	8b ec		 mov	 ebp, esp
  00003	56		 push	 esi

; 88   : 	_Destroy_range(_First, _Last, _Al, _Ptr_cat(_First, _Last));

  00004	8b 75 08	 mov	 esi, DWORD PTR __First$[ebp]
  00007	eb 0b		 jmp	 SHORT $LN24@Destroy_ra@3
$LL7@Destroy_ra@3:
  00009	8b ce		 mov	 ecx, esi
  0000b	ff 15 00 00 00
	00		 call	 DWORD PTR __imp_??1ioHashString@@QAE@XZ
  00011	83 c6 14	 add	 esi, 20			; 00000014H
$LN24@Destroy_ra@3:
  00014	3b 75 0c	 cmp	 esi, DWORD PTR __Last$[ebp]
  00017	75 f0		 jne	 SHORT $LL7@Destroy_ra@3
  00019	5e		 pop	 esi

; 89   : 	}

  0001a	5d		 pop	 ebp
  0001b	c3		 ret	 0
??$_Destroy_range@V?$allocator@UBuffInfoStruct@@@std@@@std@@YAXPAUBuffInfoStruct@@0AAV?$allocator@UBuffInfoStruct@@@0@@Z ENDP ; std::_Destroy_range<std::allocator<BuffInfoStruct> >
_TEXT	ENDS
PUBLIC	??$_Destroy_range@V?$allocator@UWeaponInfo@@@std@@@std@@YAXPAUWeaponInfo@@0AAV?$allocator@UWeaponInfo@@@0@@Z ; std::_Destroy_range<std::allocator<WeaponInfo> >
; Function compile flags: /Ogsp
;	COMDAT ??$_Destroy_range@V?$allocator@UWeaponInfo@@@std@@@std@@YAXPAUWeaponInfo@@0AAV?$allocator@UWeaponInfo@@@0@@Z
_TEXT	SEGMENT
__First$ = 8						; size = 4
__Last$ = 12						; size = 4
__Al$ = 16						; size = 4
??$_Destroy_range@V?$allocator@UWeaponInfo@@@std@@@std@@YAXPAUWeaponInfo@@0AAV?$allocator@UWeaponInfo@@@0@@Z PROC ; std::_Destroy_range<std::allocator<WeaponInfo> >, COMDAT

; 87   : 	{	// destroy [_First, _Last)

  00000	55		 push	 ebp
  00001	8b ec		 mov	 ebp, esp
  00003	56		 push	 esi

; 88   : 	_Destroy_range(_First, _Last, _Al, _Ptr_cat(_First, _Last));

  00004	8b 75 08	 mov	 esi, DWORD PTR __First$[ebp]
  00007	eb 0c		 jmp	 SHORT $LN24@Destroy_ra@4
$LL7@Destroy_ra@4:
  00009	8d 4e 08	 lea	 ecx, DWORD PTR [esi+8]
  0000c	ff 15 00 00 00
	00		 call	 DWORD PTR __imp_??1ioHashString@@QAE@XZ
  00012	83 c6 28	 add	 esi, 40			; 00000028H
$LN24@Destroy_ra@4:
  00015	3b 75 0c	 cmp	 esi, DWORD PTR __Last$[ebp]
  00018	75 ef		 jne	 SHORT $LL7@Destroy_ra@4
  0001a	5e		 pop	 esi

; 89   : 	}

  0001b	5d		 pop	 ebp
  0001c	c3		 ret	 0
??$_Destroy_range@V?$allocator@UWeaponInfo@@@std@@@std@@YAXPAUWeaponInfo@@0AAV?$allocator@UWeaponInfo@@@0@@Z ENDP ; std::_Destroy_range<std::allocator<WeaponInfo> >
_TEXT	ENDS
PUBLIC	?erase@?$vector@UForceInfo@@V?$allocator@UForceInfo@@@std@@@std@@QAE?AV?$_Vector_iterator@V?$_Vector_val@UForceInfo@@V?$allocator@UForceInfo@@@std@@@std@@@2@V?$_Vector_const_iterator@V?$_Vector_val@UForceInfo@@V?$allocator@UForceInfo@@@std@@@std@@@2@0@Z ; std::vector<ForceInfo,std::allocator<ForceInfo> >::erase
; Function compile flags: /Ogsp
; File c:\program files (x86)\microsoft visual studio 10.0\vc\include\vector
;	COMDAT ?erase@?$vector@UForceInfo@@V?$allocator@UForceInfo@@@std@@@std@@QAE?AV?$_Vector_iterator@V?$_Vector_val@UForceInfo@@V?$allocator@UForceInfo@@@std@@@std@@@2@V?$_Vector_const_iterator@V?$_Vector_val@UForceInfo@@V?$allocator@UForceInfo@@@std@@@std@@@2@0@Z
_TEXT	SEGMENT
___$ReturnUdt$ = 8					; size = 4
__First_arg$ = 12					; size = 4
__Cat$579395 = 16					; size = 1
__Last_arg$ = 16					; size = 4
?erase@?$vector@UForceInfo@@V?$allocator@UForceInfo@@@std@@@std@@QAE?AV?$_Vector_iterator@V?$_Vector_val@UForceInfo@@V?$allocator@UForceInfo@@@std@@@std@@@2@V?$_Vector_const_iterator@V?$_Vector_val@UForceInfo@@V?$allocator@UForceInfo@@@std@@@std@@@2@0@Z PROC ; std::vector<ForceInfo,std::allocator<ForceInfo> >::erase, COMDAT
; _this$ = ecx

; 1190 : 		{	// erase [_First, _Last)

  00000	55		 push	 ebp
  00001	8b ec		 mov	 ebp, esp

; 1191 : 		iterator _First = _Make_iter(_First_arg);

  00003	8b 45 0c	 mov	 eax, DWORD PTR __First_arg$[ebp]
  00006	56		 push	 esi
  00007	57		 push	 edi
  00008	8b 7d 08	 mov	 edi, DWORD PTR ___$ReturnUdt$[ebp]
  0000b	8b f1		 mov	 esi, ecx
  0000d	89 07		 mov	 DWORD PTR [edi], eax

; 1192 : 		iterator _Last = _Make_iter(_Last_arg);
; 1193 : 
; 1194 : 		if (_First != _Last)

  0000f	3b 45 10	 cmp	 eax, DWORD PTR __Last_arg$[ebp]
  00012	74 16		 je	 SHORT $LN1@erase

; 1195 : 			{	// worth doing, copy down over hole
; 1196 :  #if _ITERATOR_DEBUG_LEVEL == 2
; 1197 : 			if (_Last < _First || _VICONT(_First) != this
; 1198 : 				|| _VIPTR(_First) < this->_Myfirst
; 1199 : 				|| this->_Mylast < _VIPTR(_Last))
; 1200 : 				_DEBUG_ERROR("vector erase iterator outside range");
; 1201 : 			pointer _Ptr = _Move(_VIPTR(_Last), this->_Mylast,
; 1202 : 				_VIPTR(_First));
; 1203 : 			_Orphan_range(_VIPTR(_First), this->_Mylast);
; 1204 : 
; 1205 :  #else /* _ITERATOR_DEBUG_LEVEL == 2 */
; 1206 : 			pointer _Ptr = _Move(_VIPTR(_Last), this->_Mylast,
; 1207 : 				_VIPTR(_First));

  00014	ff 75 10	 push	 DWORD PTR __Cat$579395[ebp]
  00017	8b 4e 04	 mov	 ecx, DWORD PTR [esi+4]
  0001a	50		 push	 eax
  0001b	51		 push	 ecx
  0001c	ff 75 10	 push	 DWORD PTR __Last_arg$[ebp]
  0001f	e8 00 00 00 00	 call	 ??$_Move@PAUForceInfo@@PAU1@@std@@YAPAUForceInfo@@PAU1@00U_Nonscalar_ptr_iterator_tag@0@@Z ; std::_Move<ForceInfo *,ForceInfo *>
  00024	83 c4 10	 add	 esp, 16			; 00000010H

; 1208 :  #endif /* _ITERATOR_DEBUG_LEVEL == 2 */
; 1209 : 
; 1210 : 			_Destroy(_Ptr, this->_Mylast);
; 1211 : 			this->_Mylast = _Ptr;

  00027	89 46 04	 mov	 DWORD PTR [esi+4], eax
$LN1@erase:

; 1212 : 			}
; 1213 : 		return (_First);

  0002a	8b c7		 mov	 eax, edi
  0002c	5f		 pop	 edi
  0002d	5e		 pop	 esi

; 1214 : 		}

  0002e	5d		 pop	 ebp
  0002f	c2 0c 00	 ret	 12			; 0000000cH
?erase@?$vector@UForceInfo@@V?$allocator@UForceInfo@@@std@@@std@@QAE?AV?$_Vector_iterator@V?$_Vector_val@UForceInfo@@V?$allocator@UForceInfo@@@std@@@std@@@2@V?$_Vector_const_iterator@V?$_Vector_val@UForceInfo@@V?$allocator@UForceInfo@@@std@@@std@@@2@0@Z ENDP ; std::vector<ForceInfo,std::allocator<ForceInfo> >::erase
_TEXT	ENDS
PUBLIC	?reserve@?$vector@UForceInfo@@V?$allocator@UForceInfo@@@std@@@std@@QAEXI@Z ; std::vector<ForceInfo,std::allocator<ForceInfo> >::reserve
EXTRN	__imp_?_Orphan_all@_Container_base0@std@@QAEXXZ:PROC
;	COMDAT xdata$x
; File c:\program files (x86)\microsoft visual studio 10.0\vc\include\xmemory
xdata$x	SEGMENT
__catchsym$?reserve@?$vector@UForceInfo@@V?$allocator@UForceInfo@@@std@@@std@@QAEXI@Z$2 DD 040H
	DD	00H
	DD	00H
	DD	FLAT:__catch$?reserve@?$vector@UForceInfo@@V?$allocator@UForceInfo@@@std@@@std@@QAEXI@Z$0
__unwindtable$?reserve@?$vector@UForceInfo@@V?$allocator@UForceInfo@@@std@@@std@@QAEXI@Z DD 0ffffffffH
	DD	00H
	DD	0ffffffffH
	DD	00H
__tryblocktable$?reserve@?$vector@UForceInfo@@V?$allocator@UForceInfo@@@std@@@std@@QAEXI@Z DD 00H
	DD	00H
	DD	01H
	DD	01H
	DD	FLAT:__catchsym$?reserve@?$vector@UForceInfo@@V?$allocator@UForceInfo@@@std@@@std@@QAEXI@Z$2
__ehfuncinfo$?reserve@?$vector@UForceInfo@@V?$allocator@UForceInfo@@@std@@@std@@QAEXI@Z DD 019930522H
	DD	02H
	DD	FLAT:__unwindtable$?reserve@?$vector@UForceInfo@@V?$allocator@UForceInfo@@@std@@@std@@QAEXI@Z
	DD	01H
	DD	FLAT:__tryblocktable$?reserve@?$vector@UForceInfo@@V?$allocator@UForceInfo@@@std@@@std@@QAEXI@Z
	DD	2 DUP(00H)
	DD	00H
	DD	01H
; Function compile flags: /Ogsp
; File c:\program files (x86)\microsoft visual studio 10.0\vc\include\vector
xdata$x	ENDS
;	COMDAT ?reserve@?$vector@UForceInfo@@V?$allocator@UForceInfo@@@std@@@std@@QAEXI@Z
_TEXT	SEGMENT
__$EHRec$ = -16						; size = 16
__Ptr$570202 = 8					; size = 4
__Count$ = 8						; size = 4
?reserve@?$vector@UForceInfo@@V?$allocator@UForceInfo@@@std@@@std@@QAEXI@Z PROC ; std::vector<ForceInfo,std::allocator<ForceInfo> >::reserve, COMDAT
; _this$ = ecx

; 746  : 		{	// determine new minimum length of allocated storage

  00000	6a 04		 push	 4
  00002	b8 00 00 00 00	 mov	 eax, __ehhandler$?reserve@?$vector@UForceInfo@@V?$allocator@UForceInfo@@@std@@@std@@QAEXI@Z
  00007	e8 00 00 00 00	 call	 __EH_prolog3_catch
  0000c	8b f1		 mov	 esi, ecx

; 747  : 		if (max_size() < _Count)

  0000e	8b 5d 08	 mov	 ebx, DWORD PTR __Count$[ebp]
  00011	81 fb 55 55 55
	15		 cmp	 ebx, 357913941		; 15555555H
  00017	76 0b		 jbe	 SHORT $LN5@reserve

; 748  : 			_Xlen();	// result too long

  00019	68 00 00 00 00	 push	 OFFSET ??_C@_0BD@OLBABOEK@vector?$DMT?$DO?5too?5long?$AA@
  0001e	ff 15 00 00 00
	00		 call	 DWORD PTR __imp_?_Xlength_error@std@@YAXPBD@Z
$LN56@reserve:
$LN5@reserve:

; 749  : 		else if (capacity() < _Count)

  00024	8b 46 08	 mov	 eax, DWORD PTR [esi+8]
  00027	2b 06		 sub	 eax, DWORD PTR [esi]
  00029	6a 0c		 push	 12			; 0000000cH
  0002b	99		 cdq
  0002c	59		 pop	 ecx
  0002d	f7 f9		 idiv	 ecx
  0002f	3b c3		 cmp	 eax, ebx
  00031	73 6b		 jae	 SHORT $LN3@reserve

; 750  : 			{	// not enough room, reallocate
; 751  : 			pointer _Ptr = this->_Alval.allocate(_Count);

  00033	6a 00		 push	 0
  00035	53		 push	 ebx
  00036	e8 00 00 00 00	 call	 ??$_Allocate@UForceInfo@@@std@@YAPAUForceInfo@@IPAU1@@Z ; std::_Allocate<ForceInfo>

; 752  : 
; 753  : 			_TRY_BEGIN
; 754  : 			_Umove(this->_Myfirst, this->_Mylast, _Ptr);

  0003b	8b 0e		 mov	 ecx, DWORD PTR [esi]
  0003d	83 65 fc 00	 and	 DWORD PTR __$EHRec$[ebp+12], 0
  00041	8d 56 0c	 lea	 edx, DWORD PTR [esi+12]
  00044	52		 push	 edx
  00045	89 45 08	 mov	 DWORD PTR __Ptr$570202[ebp], eax
  00048	ff 75 08	 push	 DWORD PTR __Ptr$570202[ebp]
  0004b	8b 46 04	 mov	 eax, DWORD PTR [esi+4]
  0004e	50		 push	 eax
  0004f	51		 push	 ecx
  00050	e8 00 00 00 00	 call	 ??$_Uninitialized_move@PAUForceInfo@@PAU1@V?$allocator@UForceInfo@@@std@@@std@@YAPAUForceInfo@@PAU1@00AAV?$allocator@UForceInfo@@@0@@Z ; std::_Uninitialized_move<ForceInfo *,ForceInfo *,std::allocator<ForceInfo> >

; 758  : 			_CATCH_END
; 759  : 
; 760  : 			size_type _Size = size();

  00055	8b 0e		 mov	 ecx, DWORD PTR [esi]
  00057	8b 46 04	 mov	 eax, DWORD PTR [esi+4]
  0005a	83 c4 18	 add	 esp, 24			; 00000018H
  0005d	2b c1		 sub	 eax, ecx
  0005f	6a 0c		 push	 12			; 0000000cH
  00061	99		 cdq
  00062	5f		 pop	 edi
  00063	f7 ff		 idiv	 edi
  00065	83 4d fc ff	 or	 DWORD PTR __$EHRec$[ebp+12], -1
  00069	8b f8		 mov	 edi, eax
  0006b	85 c9		 test	 ecx, ecx
  0006d	74 12		 je	 SHORT $LN48@reserve

; 761  : 			if (this->_Myfirst != 0)

  0006f	eb 03		 jmp	 SHORT $LN55@reserve

; 762  : 				{	// destroy and deallocate old array
; 763  : 				_Destroy(this->_Myfirst, this->_Mylast);

$LL39@reserve:
  00071	83 c1 0c	 add	 ecx, 12			; 0000000cH
$LN55@reserve:
  00074	3b 4e 04	 cmp	 ecx, DWORD PTR [esi+4]
  00077	75 f8		 jne	 SHORT $LL39@reserve

; 764  : 				this->_Alval.deallocate(this->_Myfirst,
; 765  : 					this->_Myend - this->_Myfirst);

  00079	ff 36		 push	 DWORD PTR [esi]
  0007b	e8 00 00 00 00	 call	 ??3@YAXPAX@Z		; operator delete
  00080	59		 pop	 ecx
$LN48@reserve:

; 766  : 				}
; 767  : 
; 768  : 			this->_Orphan_all();

  00081	8b ce		 mov	 ecx, esi
  00083	ff 15 00 00 00
	00		 call	 DWORD PTR __imp_?_Orphan_all@_Container_base0@std@@QAEXXZ

; 769  : 			this->_Myend = _Ptr + _Count;

  00089	6b db 0c	 imul	 ebx, 12			; 0000000cH

; 770  : 			this->_Mylast = _Ptr + _Size;

  0008c	6b ff 0c	 imul	 edi, 12			; 0000000cH
  0008f	8b 45 08	 mov	 eax, DWORD PTR __Ptr$570202[ebp]
  00092	03 d8		 add	 ebx, eax
  00094	03 f8		 add	 edi, eax
  00096	89 5e 08	 mov	 DWORD PTR [esi+8], ebx
  00099	89 7e 04	 mov	 DWORD PTR [esi+4], edi

; 771  : 			this->_Myfirst = _Ptr;

  0009c	89 06		 mov	 DWORD PTR [esi], eax
$LN3@reserve:

; 772  : 			}
; 773  : 		}

  0009e	e8 00 00 00 00	 call	 __EH_epilog3
  000a3	c2 04 00	 ret	 4
__catch$?reserve@?$vector@UForceInfo@@V?$allocator@UForceInfo@@@std@@@std@@QAEXI@Z$0:

; 755  : 			_CATCH_ALL
; 756  : 			this->_Alval.deallocate(_Ptr, _Count);

  000a6	ff 75 08	 push	 DWORD PTR __Ptr$570202[ebp]
  000a9	e8 00 00 00 00	 call	 ??3@YAXPAX@Z		; operator delete
  000ae	59		 pop	 ecx

; 757  : 			_RERAISE;

  000af	6a 00		 push	 0
  000b1	6a 00		 push	 0
  000b3	e8 00 00 00 00	 call	 __CxxThrowException@8
$LN57@reserve:
$LN54@reserve:
  000b8	cc		 int	 3
_TEXT	ENDS
;	COMDAT text$x
text$x	SEGMENT
__ehhandler$?reserve@?$vector@UForceInfo@@V?$allocator@UForceInfo@@@std@@@std@@QAEXI@Z:
  00000	8b 54 24 08	 mov	 edx, DWORD PTR [esp+8]
  00004	8d 42 0c	 lea	 eax, DWORD PTR [edx+12]
  00007	8b 4a ec	 mov	 ecx, DWORD PTR [edx-20]
  0000a	33 c8		 xor	 ecx, eax
  0000c	e8 00 00 00 00	 call	 @__security_check_cookie@4
  00011	b8 00 00 00 00	 mov	 eax, OFFSET __ehfuncinfo$?reserve@?$vector@UForceInfo@@V?$allocator@UForceInfo@@@std@@@std@@QAEXI@Z
  00016	e9 00 00 00 00	 jmp	 ___CxxFrameHandler3
text$x	ENDS
?reserve@?$vector@UForceInfo@@V?$allocator@UForceInfo@@@std@@@std@@QAEXI@Z ENDP ; std::vector<ForceInfo,std::allocator<ForceInfo> >::reserve
PUBLIC	?_Reserve@?$vector@UForceInfo@@V?$allocator@UForceInfo@@@std@@@std@@IAEXI@Z ; std::vector<ForceInfo,std::allocator<ForceInfo> >::_Reserve
; Function compile flags: /Ogsp
;	COMDAT ?_Reserve@?$vector@UForceInfo@@V?$allocator@UForceInfo@@@std@@@std@@IAEXI@Z
_TEXT	SEGMENT
__Count$ = 8						; size = 4
?_Reserve@?$vector@UForceInfo@@V?$allocator@UForceInfo@@@std@@@std@@IAEXI@Z PROC ; std::vector<ForceInfo,std::allocator<ForceInfo> >::_Reserve, COMDAT
; _this$ = ecx

; 1290 : 		{	// ensure room for _Count new elements, grow exponentially

  00000	55		 push	 ebp
  00001	8b ec		 mov	 ebp, esp
  00003	56		 push	 esi
  00004	8b f1		 mov	 esi, ecx

; 1291 : 		size_type _Size = size();

  00006	8b 0e		 mov	 ecx, DWORD PTR [esi]
  00008	8b 46 04	 mov	 eax, DWORD PTR [esi+4]
  0000b	2b c1		 sub	 eax, ecx
  0000d	57		 push	 edi
  0000e	99		 cdq
  0000f	6a 0c		 push	 12			; 0000000cH
  00011	5f		 pop	 edi
  00012	f7 ff		 idiv	 edi
  00014	8b f8		 mov	 edi, eax

; 1292 : 		if (max_size() - _Count < _Size)

  00016	b8 55 55 55 15	 mov	 eax, 357913941		; 15555555H
  0001b	2b 45 08	 sub	 eax, DWORD PTR __Count$[ebp]
  0001e	3b c7		 cmp	 eax, edi
  00020	73 0b		 jae	 SHORT $LN4@Reserve

; 1293 : 			_Xlen();

  00022	68 00 00 00 00	 push	 OFFSET ??_C@_0BD@OLBABOEK@vector?$DMT?$DO?5too?5long?$AA@
  00027	ff 15 00 00 00
	00		 call	 DWORD PTR __imp_?_Xlength_error@std@@YAXPBD@Z
$LN21@Reserve:
$LN4@Reserve:

; 1294 : 		else if ((_Size += _Count) <= capacity())

  0002d	8b 46 08	 mov	 eax, DWORD PTR [esi+8]
  00030	2b c1		 sub	 eax, ecx
  00032	6a 0c		 push	 12			; 0000000cH
  00034	99		 cdq
  00035	59		 pop	 ecx
  00036	f7 f9		 idiv	 ecx
  00038	03 7d 08	 add	 edi, DWORD PTR __Count$[ebp]
  0003b	3b f8		 cmp	 edi, eax
  0003d	76 10		 jbe	 SHORT $LN1@Reserve

; 1295 : 			;
; 1296 : 		else
; 1297 : 			reserve(_Grow_to(_Size));

  0003f	57		 push	 edi
  00040	8b ce		 mov	 ecx, esi
  00042	e8 00 00 00 00	 call	 ?_Grow_to@?$vector@UForceInfo@@V?$allocator@UForceInfo@@@std@@@std@@IBEII@Z ; std::vector<ForceInfo,std::allocator<ForceInfo> >::_Grow_to
  00047	50		 push	 eax
  00048	8b ce		 mov	 ecx, esi
  0004a	e8 00 00 00 00	 call	 ?reserve@?$vector@UForceInfo@@V?$allocator@UForceInfo@@@std@@@std@@QAEXI@Z ; std::vector<ForceInfo,std::allocator<ForceInfo> >::reserve
$LN1@Reserve:
  0004f	5f		 pop	 edi
  00050	5e		 pop	 esi

; 1298 : 		}

  00051	5d		 pop	 ebp
  00052	c2 04 00	 ret	 4
$LN20@Reserve:
?_Reserve@?$vector@UForceInfo@@V?$allocator@UForceInfo@@@std@@@std@@IAEXI@Z ENDP ; std::vector<ForceInfo,std::allocator<ForceInfo> >::_Reserve
_TEXT	ENDS
PUBLIC	?erase@?$vector@UWeaponMoveInfo@@V?$allocator@UWeaponMoveInfo@@@std@@@std@@QAE?AV?$_Vector_iterator@V?$_Vector_val@UWeaponMoveInfo@@V?$allocator@UWeaponMoveInfo@@@std@@@std@@@2@V?$_Vector_const_iterator@V?$_Vector_val@UWeaponMoveInfo@@V?$allocator@UWeaponMoveInfo@@@std@@@std@@@2@0@Z ; std::vector<WeaponMoveInfo,std::allocator<WeaponMoveInfo> >::erase
; Function compile flags: /Ogsp
;	COMDAT ?erase@?$vector@UWeaponMoveInfo@@V?$allocator@UWeaponMoveInfo@@@std@@@std@@QAE?AV?$_Vector_iterator@V?$_Vector_val@UWeaponMoveInfo@@V?$allocator@UWeaponMoveInfo@@@std@@@std@@@2@V?$_Vector_const_iterator@V?$_Vector_val@UWeaponMoveInfo@@V?$allocator@UWeaponMoveInfo@@@std@@@std@@@2@0@Z
_TEXT	SEGMENT
___$ReturnUdt$ = 8					; size = 4
__First_arg$ = 12					; size = 4
__Cat$579711 = 16					; size = 1
__Last_arg$ = 16					; size = 4
?erase@?$vector@UWeaponMoveInfo@@V?$allocator@UWeaponMoveInfo@@@std@@@std@@QAE?AV?$_Vector_iterator@V?$_Vector_val@UWeaponMoveInfo@@V?$allocator@UWeaponMoveInfo@@@std@@@std@@@2@V?$_Vector_const_iterator@V?$_Vector_val@UWeaponMoveInfo@@V?$allocator@UWeaponMoveInfo@@@std@@@std@@@2@0@Z PROC ; std::vector<WeaponMoveInfo,std::allocator<WeaponMoveInfo> >::erase, COMDAT
; _this$ = ecx

; 1190 : 		{	// erase [_First, _Last)

  00000	55		 push	 ebp
  00001	8b ec		 mov	 ebp, esp

; 1191 : 		iterator _First = _Make_iter(_First_arg);

  00003	8b 45 0c	 mov	 eax, DWORD PTR __First_arg$[ebp]
  00006	56		 push	 esi
  00007	57		 push	 edi
  00008	8b 7d 08	 mov	 edi, DWORD PTR ___$ReturnUdt$[ebp]
  0000b	8b f1		 mov	 esi, ecx
  0000d	89 07		 mov	 DWORD PTR [edi], eax

; 1192 : 		iterator _Last = _Make_iter(_Last_arg);
; 1193 : 
; 1194 : 		if (_First != _Last)

  0000f	3b 45 10	 cmp	 eax, DWORD PTR __Last_arg$[ebp]
  00012	74 16		 je	 SHORT $LN1@erase@2

; 1195 : 			{	// worth doing, copy down over hole
; 1196 :  #if _ITERATOR_DEBUG_LEVEL == 2
; 1197 : 			if (_Last < _First || _VICONT(_First) != this
; 1198 : 				|| _VIPTR(_First) < this->_Myfirst
; 1199 : 				|| this->_Mylast < _VIPTR(_Last))
; 1200 : 				_DEBUG_ERROR("vector erase iterator outside range");
; 1201 : 			pointer _Ptr = _Move(_VIPTR(_Last), this->_Mylast,
; 1202 : 				_VIPTR(_First));
; 1203 : 			_Orphan_range(_VIPTR(_First), this->_Mylast);
; 1204 : 
; 1205 :  #else /* _ITERATOR_DEBUG_LEVEL == 2 */
; 1206 : 			pointer _Ptr = _Move(_VIPTR(_Last), this->_Mylast,
; 1207 : 				_VIPTR(_First));

  00014	ff 75 10	 push	 DWORD PTR __Cat$579711[ebp]
  00017	8b 4e 04	 mov	 ecx, DWORD PTR [esi+4]
  0001a	50		 push	 eax
  0001b	51		 push	 ecx
  0001c	ff 75 10	 push	 DWORD PTR __Last_arg$[ebp]
  0001f	e8 00 00 00 00	 call	 ??$_Move@PAUWeaponMoveInfo@@PAU1@@std@@YAPAUWeaponMoveInfo@@PAU1@00U_Nonscalar_ptr_iterator_tag@0@@Z ; std::_Move<WeaponMoveInfo *,WeaponMoveInfo *>
  00024	83 c4 10	 add	 esp, 16			; 00000010H

; 1208 :  #endif /* _ITERATOR_DEBUG_LEVEL == 2 */
; 1209 : 
; 1210 : 			_Destroy(_Ptr, this->_Mylast);
; 1211 : 			this->_Mylast = _Ptr;

  00027	89 46 04	 mov	 DWORD PTR [esi+4], eax
$LN1@erase@2:

; 1212 : 			}
; 1213 : 		return (_First);

  0002a	8b c7		 mov	 eax, edi
  0002c	5f		 pop	 edi
  0002d	5e		 pop	 esi

; 1214 : 		}

  0002e	5d		 pop	 ebp
  0002f	c2 0c 00	 ret	 12			; 0000000cH
?erase@?$vector@UWeaponMoveInfo@@V?$allocator@UWeaponMoveInfo@@@std@@@std@@QAE?AV?$_Vector_iterator@V?$_Vector_val@UWeaponMoveInfo@@V?$allocator@UWeaponMoveInfo@@@std@@@std@@@2@V?$_Vector_const_iterator@V?$_Vector_val@UWeaponMoveInfo@@V?$allocator@UWeaponMoveInfo@@@std@@@std@@@2@0@Z ENDP ; std::vector<WeaponMoveInfo,std::allocator<WeaponMoveInfo> >::erase
_TEXT	ENDS
PUBLIC	?_Tidy@?$vector@UWeaponMoveInfo@@V?$allocator@UWeaponMoveInfo@@@std@@@std@@IAEXXZ ; std::vector<WeaponMoveInfo,std::allocator<WeaponMoveInfo> >::_Tidy
; Function compile flags: /Ogsp
;	COMDAT ?_Tidy@?$vector@UWeaponMoveInfo@@V?$allocator@UWeaponMoveInfo@@@std@@@std@@IAEXXZ
_TEXT	SEGMENT
?_Tidy@?$vector@UWeaponMoveInfo@@V?$allocator@UWeaponMoveInfo@@@std@@@std@@IAEXXZ PROC ; std::vector<WeaponMoveInfo,std::allocator<WeaponMoveInfo> >::_Tidy, COMDAT
; _this$ = ecx

; 1301 : 		{	// free all storage

  00000	56		 push	 esi
  00001	8b f1		 mov	 esi, ecx

; 1302 : 		if (this->_Myfirst != 0)

  00003	83 3e 00	 cmp	 DWORD PTR [esi], 0
  00006	74 0e		 je	 SHORT $LN21@Tidy

; 1303 : 			{	// something to free, destroy and deallocate it
; 1304 : 			this->_Orphan_all();

  00008	ff 15 00 00 00
	00		 call	 DWORD PTR __imp_?_Orphan_all@_Container_base0@std@@QAEXXZ

; 1305 : 			_Destroy(this->_Myfirst, this->_Mylast);
; 1306 : 			this->_Alval.deallocate(this->_Myfirst,
; 1307 : 				this->_Myend - this->_Myfirst);

  0000e	ff 36		 push	 DWORD PTR [esi]
  00010	e8 00 00 00 00	 call	 ??3@YAXPAX@Z		; operator delete
  00015	59		 pop	 ecx
$LN21@Tidy:

; 1308 : 			}
; 1309 : 		this->_Myfirst = 0;

  00016	83 26 00	 and	 DWORD PTR [esi], 0

; 1310 : 		this->_Mylast = 0;

  00019	83 66 04 00	 and	 DWORD PTR [esi+4], 0

; 1311 : 		this->_Myend = 0;

  0001d	83 66 08 00	 and	 DWORD PTR [esi+8], 0
  00021	5e		 pop	 esi

; 1312 : 		}

  00022	c3		 ret	 0
?_Tidy@?$vector@UWeaponMoveInfo@@V?$allocator@UWeaponMoveInfo@@@std@@@std@@IAEXXZ ENDP ; std::vector<WeaponMoveInfo,std::allocator<WeaponMoveInfo> >::_Tidy
_TEXT	ENDS
PUBLIC	?reserve@?$vector@UWeaponMoveInfo@@V?$allocator@UWeaponMoveInfo@@@std@@@std@@QAEXI@Z ; std::vector<WeaponMoveInfo,std::allocator<WeaponMoveInfo> >::reserve
;	COMDAT xdata$x
; File c:\program files (x86)\microsoft visual studio 10.0\vc\include\xmemory
xdata$x	SEGMENT
__catchsym$?reserve@?$vector@UWeaponMoveInfo@@V?$allocator@UWeaponMoveInfo@@@std@@@std@@QAEXI@Z$2 DD 040H
	DD	00H
	DD	00H
	DD	FLAT:__catch$?reserve@?$vector@UWeaponMoveInfo@@V?$allocator@UWeaponMoveInfo@@@std@@@std@@QAEXI@Z$0
__unwindtable$?reserve@?$vector@UWeaponMoveInfo@@V?$allocator@UWeaponMoveInfo@@@std@@@std@@QAEXI@Z DD 0ffffffffH
	DD	00H
	DD	0ffffffffH
	DD	00H
__tryblocktable$?reserve@?$vector@UWeaponMoveInfo@@V?$allocator@UWeaponMoveInfo@@@std@@@std@@QAEXI@Z DD 00H
	DD	00H
	DD	01H
	DD	01H
	DD	FLAT:__catchsym$?reserve@?$vector@UWeaponMoveInfo@@V?$allocator@UWeaponMoveInfo@@@std@@@std@@QAEXI@Z$2
__ehfuncinfo$?reserve@?$vector@UWeaponMoveInfo@@V?$allocator@UWeaponMoveInfo@@@std@@@std@@QAEXI@Z DD 019930522H
	DD	02H
	DD	FLAT:__unwindtable$?reserve@?$vector@UWeaponMoveInfo@@V?$allocator@UWeaponMoveInfo@@@std@@@std@@QAEXI@Z
	DD	01H
	DD	FLAT:__tryblocktable$?reserve@?$vector@UWeaponMoveInfo@@V?$allocator@UWeaponMoveInfo@@@std@@@std@@QAEXI@Z
	DD	2 DUP(00H)
	DD	00H
	DD	01H
; Function compile flags: /Ogsp
; File c:\program files (x86)\microsoft visual studio 10.0\vc\include\vector
xdata$x	ENDS
;	COMDAT ?reserve@?$vector@UWeaponMoveInfo@@V?$allocator@UWeaponMoveInfo@@@std@@@std@@QAEXI@Z
_TEXT	SEGMENT
__$EHRec$ = -16						; size = 16
__Ptr$570735 = 8					; size = 4
__Count$ = 8						; size = 4
?reserve@?$vector@UWeaponMoveInfo@@V?$allocator@UWeaponMoveInfo@@@std@@@std@@QAEXI@Z PROC ; std::vector<WeaponMoveInfo,std::allocator<WeaponMoveInfo> >::reserve, COMDAT
; _this$ = ecx

; 746  : 		{	// determine new minimum length of allocated storage

  00000	6a 04		 push	 4
  00002	b8 00 00 00 00	 mov	 eax, __ehhandler$?reserve@?$vector@UWeaponMoveInfo@@V?$allocator@UWeaponMoveInfo@@@std@@@std@@QAEXI@Z
  00007	e8 00 00 00 00	 call	 __EH_prolog3_catch
  0000c	8b f1		 mov	 esi, ecx

; 747  : 		if (max_size() < _Count)

  0000e	8b 5d 08	 mov	 ebx, DWORD PTR __Count$[ebp]
  00011	81 fb cc cc cc
	0c		 cmp	 ebx, 214748364		; 0cccccccH
  00017	76 0b		 jbe	 SHORT $LN5@reserve@2

; 748  : 			_Xlen();	// result too long

  00019	68 00 00 00 00	 push	 OFFSET ??_C@_0BD@OLBABOEK@vector?$DMT?$DO?5too?5long?$AA@
  0001e	ff 15 00 00 00
	00		 call	 DWORD PTR __imp_?_Xlength_error@std@@YAXPBD@Z
$LN56@reserve@2:
$LN5@reserve@2:

; 749  : 		else if (capacity() < _Count)

  00024	8b 46 08	 mov	 eax, DWORD PTR [esi+8]
  00027	2b 06		 sub	 eax, DWORD PTR [esi]
  00029	6a 14		 push	 20			; 00000014H
  0002b	99		 cdq
  0002c	59		 pop	 ecx
  0002d	f7 f9		 idiv	 ecx
  0002f	3b c3		 cmp	 eax, ebx
  00031	73 6b		 jae	 SHORT $LN3@reserve@2

; 750  : 			{	// not enough room, reallocate
; 751  : 			pointer _Ptr = this->_Alval.allocate(_Count);

  00033	6a 00		 push	 0
  00035	53		 push	 ebx
  00036	e8 00 00 00 00	 call	 ??$_Allocate@UWeaponMoveInfo@@@std@@YAPAUWeaponMoveInfo@@IPAU1@@Z ; std::_Allocate<WeaponMoveInfo>

; 752  : 
; 753  : 			_TRY_BEGIN
; 754  : 			_Umove(this->_Myfirst, this->_Mylast, _Ptr);

  0003b	8b 0e		 mov	 ecx, DWORD PTR [esi]
  0003d	83 65 fc 00	 and	 DWORD PTR __$EHRec$[ebp+12], 0
  00041	8d 56 0c	 lea	 edx, DWORD PTR [esi+12]
  00044	52		 push	 edx
  00045	89 45 08	 mov	 DWORD PTR __Ptr$570735[ebp], eax
  00048	ff 75 08	 push	 DWORD PTR __Ptr$570735[ebp]
  0004b	8b 46 04	 mov	 eax, DWORD PTR [esi+4]
  0004e	50		 push	 eax
  0004f	51		 push	 ecx
  00050	e8 00 00 00 00	 call	 ??$_Uninitialized_move@PAUWeaponMoveInfo@@PAU1@V?$allocator@UWeaponMoveInfo@@@std@@@std@@YAPAUWeaponMoveInfo@@PAU1@00AAV?$allocator@UWeaponMoveInfo@@@0@@Z ; std::_Uninitialized_move<WeaponMoveInfo *,WeaponMoveInfo *,std::allocator<WeaponMoveInfo> >

; 758  : 			_CATCH_END
; 759  : 
; 760  : 			size_type _Size = size();

  00055	8b 0e		 mov	 ecx, DWORD PTR [esi]
  00057	8b 46 04	 mov	 eax, DWORD PTR [esi+4]
  0005a	83 c4 18	 add	 esp, 24			; 00000018H
  0005d	2b c1		 sub	 eax, ecx
  0005f	6a 14		 push	 20			; 00000014H
  00061	99		 cdq
  00062	5f		 pop	 edi
  00063	f7 ff		 idiv	 edi
  00065	83 4d fc ff	 or	 DWORD PTR __$EHRec$[ebp+12], -1
  00069	8b f8		 mov	 edi, eax
  0006b	85 c9		 test	 ecx, ecx
  0006d	74 12		 je	 SHORT $LN48@reserve@2

; 761  : 			if (this->_Myfirst != 0)

  0006f	eb 03		 jmp	 SHORT $LN55@reserve@2

; 762  : 				{	// destroy and deallocate old array
; 763  : 				_Destroy(this->_Myfirst, this->_Mylast);

$LL39@reserve@2:
  00071	83 c1 14	 add	 ecx, 20			; 00000014H
$LN55@reserve@2:
  00074	3b 4e 04	 cmp	 ecx, DWORD PTR [esi+4]
  00077	75 f8		 jne	 SHORT $LL39@reserve@2

; 764  : 				this->_Alval.deallocate(this->_Myfirst,
; 765  : 					this->_Myend - this->_Myfirst);

  00079	ff 36		 push	 DWORD PTR [esi]
  0007b	e8 00 00 00 00	 call	 ??3@YAXPAX@Z		; operator delete
  00080	59		 pop	 ecx
$LN48@reserve@2:

; 766  : 				}
; 767  : 
; 768  : 			this->_Orphan_all();

  00081	8b ce		 mov	 ecx, esi
  00083	ff 15 00 00 00
	00		 call	 DWORD PTR __imp_?_Orphan_all@_Container_base0@std@@QAEXXZ

; 769  : 			this->_Myend = _Ptr + _Count;

  00089	6b db 14	 imul	 ebx, 20			; 00000014H

; 770  : 			this->_Mylast = _Ptr + _Size;

  0008c	6b ff 14	 imul	 edi, 20			; 00000014H
  0008f	8b 45 08	 mov	 eax, DWORD PTR __Ptr$570735[ebp]
  00092	03 d8		 add	 ebx, eax
  00094	03 f8		 add	 edi, eax
  00096	89 5e 08	 mov	 DWORD PTR [esi+8], ebx
  00099	89 7e 04	 mov	 DWORD PTR [esi+4], edi

; 771  : 			this->_Myfirst = _Ptr;

  0009c	89 06		 mov	 DWORD PTR [esi], eax
$LN3@reserve@2:

; 772  : 			}
; 773  : 		}

  0009e	e8 00 00 00 00	 call	 __EH_epilog3
  000a3	c2 04 00	 ret	 4
__catch$?reserve@?$vector@UWeaponMoveInfo@@V?$allocator@UWeaponMoveInfo@@@std@@@std@@QAEXI@Z$0:

; 755  : 			_CATCH_ALL
; 756  : 			this->_Alval.deallocate(_Ptr, _Count);

  000a6	ff 75 08	 push	 DWORD PTR __Ptr$570735[ebp]
  000a9	e8 00 00 00 00	 call	 ??3@YAXPAX@Z		; operator delete
  000ae	59		 pop	 ecx

; 757  : 			_RERAISE;

  000af	6a 00		 push	 0
  000b1	6a 00		 push	 0
  000b3	e8 00 00 00 00	 call	 __CxxThrowException@8
$LN57@reserve@2:
$LN54@reserve@2:
  000b8	cc		 int	 3
_TEXT	ENDS
;	COMDAT text$x
text$x	SEGMENT
__ehhandler$?reserve@?$vector@UWeaponMoveInfo@@V?$allocator@UWeaponMoveInfo@@@std@@@std@@QAEXI@Z:
  00000	8b 54 24 08	 mov	 edx, DWORD PTR [esp+8]
  00004	8d 42 0c	 lea	 eax, DWORD PTR [edx+12]
  00007	8b 4a ec	 mov	 ecx, DWORD PTR [edx-20]
  0000a	33 c8		 xor	 ecx, eax
  0000c	e8 00 00 00 00	 call	 @__security_check_cookie@4
  00011	b8 00 00 00 00	 mov	 eax, OFFSET __ehfuncinfo$?reserve@?$vector@UWeaponMoveInfo@@V?$allocator@UWeaponMoveInfo@@@std@@@std@@QAEXI@Z
  00016	e9 00 00 00 00	 jmp	 ___CxxFrameHandler3
text$x	ENDS
?reserve@?$vector@UWeaponMoveInfo@@V?$allocator@UWeaponMoveInfo@@@std@@@std@@QAEXI@Z ENDP ; std::vector<WeaponMoveInfo,std::allocator<WeaponMoveInfo> >::reserve
PUBLIC	??$_Ucopy@V?$_Vector_const_iterator@V?$_Vector_val@UWeaponInfo@@V?$allocator@UWeaponInfo@@@std@@@std@@@std@@@?$vector@UWeaponInfo@@V?$allocator@UWeaponInfo@@@std@@@std@@IAEPAUWeaponInfo@@V?$_Vector_const_iterator@V?$_Vector_val@UWeaponInfo@@V?$allocator@UWeaponInfo@@@std@@@std@@@1@0PAU2@@Z ; std::vector<WeaponInfo,std::allocator<WeaponInfo> >::_Ucopy<std::_Vector_const_iterator<std::_Vector_val<WeaponInfo,std::allocator<WeaponInfo> > > >
; Function compile flags: /Ogsp
;	COMDAT ??$_Ucopy@V?$_Vector_const_iterator@V?$_Vector_val@UWeaponInfo@@V?$allocator@UWeaponInfo@@@std@@@std@@@std@@@?$vector@UWeaponInfo@@V?$allocator@UWeaponInfo@@@std@@@std@@IAEPAUWeaponInfo@@V?$_Vector_const_iterator@V?$_Vector_val@UWeaponInfo@@V?$allocator@UWeaponInfo@@@std@@@std@@@1@0PAU2@@Z
_TEXT	SEGMENT
__First$ = 8						; size = 4
__Last$ = 12						; size = 4
__Cat$580017 = 16					; size = 1
__Ptr$ = 16						; size = 4
??$_Ucopy@V?$_Vector_const_iterator@V?$_Vector_val@UWeaponInfo@@V?$allocator@UWeaponInfo@@@std@@@std@@@std@@@?$vector@UWeaponInfo@@V?$allocator@UWeaponInfo@@@std@@@std@@IAEPAUWeaponInfo@@V?$_Vector_const_iterator@V?$_Vector_val@UWeaponInfo@@V?$allocator@UWeaponInfo@@@std@@@std@@@1@0PAU2@@Z PROC ; std::vector<WeaponInfo,std::allocator<WeaponInfo> >::_Ucopy<std::_Vector_const_iterator<std::_Vector_val<WeaponInfo,std::allocator<WeaponInfo> > > >, COMDAT
; _this$ = ecx

; 1315 : 		pointer _Ucopy(_Iter _First, _Iter _Last, pointer _Ptr)

  00000	55		 push	 ebp
  00001	8b ec		 mov	 ebp, esp

; 1316 : 		{	// copy initializing [_First, _Last), using allocator
; 1317 : 		return (_Uninitialized_copy(_First, _Last,
; 1318 : 			_Ptr, this->_Alval));

  00003	ff 75 10	 push	 DWORD PTR __Cat$580017[ebp]
  00006	83 c1 0c	 add	 ecx, 12			; 0000000cH
  00009	51		 push	 ecx
  0000a	ff 75 10	 push	 DWORD PTR __Ptr$[ebp]
  0000d	ff 75 0c	 push	 DWORD PTR __Last$[ebp]
  00010	ff 75 08	 push	 DWORD PTR __First$[ebp]
  00013	e8 00 00 00 00	 call	 ??$_Uninit_copy@V?$_Vector_const_iterator@V?$_Vector_val@UWeaponInfo@@V?$allocator@UWeaponInfo@@@std@@@std@@@std@@PAUWeaponInfo@@V?$allocator@UWeaponInfo@@@2@@std@@YAPAUWeaponInfo@@V?$_Vector_const_iterator@V?$_Vector_val@UWeaponInfo@@V?$allocator@UWeaponInfo@@@std@@@std@@@0@0PAU1@AAV?$allocator@UWeaponInfo@@@0@U_Nonscalar_ptr_iterator_tag@0@@Z ; std::_Uninit_copy<std::_Vector_const_iterator<std::_Vector_val<WeaponInfo,std::allocator<WeaponInfo> > >,WeaponInfo *,std::allocator<WeaponInfo> >
  00018	83 c4 14	 add	 esp, 20			; 00000014H

; 1319 : 		}

  0001b	5d		 pop	 ebp
  0001c	c2 0c 00	 ret	 12			; 0000000cH
??$_Ucopy@V?$_Vector_const_iterator@V?$_Vector_val@UWeaponInfo@@V?$allocator@UWeaponInfo@@@std@@@std@@@std@@@?$vector@UWeaponInfo@@V?$allocator@UWeaponInfo@@@std@@@std@@IAEPAUWeaponInfo@@V?$_Vector_const_iterator@V?$_Vector_val@UWeaponInfo@@V?$allocator@UWeaponInfo@@@std@@@std@@@1@0PAU2@@Z ENDP ; std::vector<WeaponInfo,std::allocator<WeaponInfo> >::_Ucopy<std::_Vector_const_iterator<std::_Vector_val<WeaponInfo,std::allocator<WeaponInfo> > > >
_TEXT	ENDS
PUBLIC	??$_Umove@PAUWeaponInfo@@@?$vector@UWeaponInfo@@V?$allocator@UWeaponInfo@@@std@@@std@@IAEPAUWeaponInfo@@PAU2@00@Z ; std::vector<WeaponInfo,std::allocator<WeaponInfo> >::_Umove<WeaponInfo *>
; Function compile flags: /Ogsp
;	COMDAT ??$_Umove@PAUWeaponInfo@@@?$vector@UWeaponInfo@@V?$allocator@UWeaponInfo@@@std@@@std@@IAEPAUWeaponInfo@@PAU2@00@Z
_TEXT	SEGMENT
__First$ = 8						; size = 4
__Last$ = 12						; size = 4
__Ptr$ = 16						; size = 4
??$_Umove@PAUWeaponInfo@@@?$vector@UWeaponInfo@@V?$allocator@UWeaponInfo@@@std@@@std@@IAEPAUWeaponInfo@@PAU2@00@Z PROC ; std::vector<WeaponInfo,std::allocator<WeaponInfo> >::_Umove<WeaponInfo *>, COMDAT
; _this$ = ecx

; 1322 : 		pointer _Umove(_Iter _First, _Iter _Last, pointer _Ptr)

  00000	55		 push	 ebp
  00001	8b ec		 mov	 ebp, esp

; 1323 : 		{	// move initializing [_First, _Last), using allocator
; 1324 : 		return (_Uninitialized_move(_First, _Last,
; 1325 : 			_Ptr, this->_Alval));

  00003	83 c1 0c	 add	 ecx, 12			; 0000000cH
  00006	51		 push	 ecx
  00007	ff 75 10	 push	 DWORD PTR __Ptr$[ebp]
  0000a	ff 75 0c	 push	 DWORD PTR __Last$[ebp]
  0000d	ff 75 08	 push	 DWORD PTR __First$[ebp]
  00010	e8 00 00 00 00	 call	 ??$_Uninitialized_move@PAUWeaponInfo@@PAU1@V?$allocator@UWeaponInfo@@@std@@@std@@YAPAUWeaponInfo@@PAU1@00AAV?$allocator@UWeaponInfo@@@0@@Z ; std::_Uninitialized_move<WeaponInfo *,WeaponInfo *,std::allocator<WeaponInfo> >
  00015	83 c4 10	 add	 esp, 16			; 00000010H

; 1326 : 		}

  00018	5d		 pop	 ebp
  00019	c2 0c 00	 ret	 12			; 0000000cH
??$_Umove@PAUWeaponInfo@@@?$vector@UWeaponInfo@@V?$allocator@UWeaponInfo@@@std@@@std@@IAEPAUWeaponInfo@@PAU2@00@Z ENDP ; std::vector<WeaponInfo,std::allocator<WeaponInfo> >::_Umove<WeaponInfo *>
_TEXT	ENDS
PUBLIC	??$_Ucopy@V?$_Vector_const_iterator@V?$_Vector_val@UBuffInfoStruct@@V?$allocator@UBuffInfoStruct@@@std@@@std@@@std@@@?$vector@UBuffInfoStruct@@V?$allocator@UBuffInfoStruct@@@std@@@std@@IAEPAUBuffInfoStruct@@V?$_Vector_const_iterator@V?$_Vector_val@UBuffInfoStruct@@V?$allocator@UBuffInfoStruct@@@std@@@std@@@1@0PAU2@@Z ; std::vector<BuffInfoStruct,std::allocator<BuffInfoStruct> >::_Ucopy<std::_Vector_const_iterator<std::_Vector_val<BuffInfoStruct,std::allocator<BuffInfoStruct> > > >
; Function compile flags: /Ogsp
;	COMDAT ??$_Ucopy@V?$_Vector_const_iterator@V?$_Vector_val@UBuffInfoStruct@@V?$allocator@UBuffInfoStruct@@@std@@@std@@@std@@@?$vector@UBuffInfoStruct@@V?$allocator@UBuffInfoStruct@@@std@@@std@@IAEPAUBuffInfoStruct@@V?$_Vector_const_iterator@V?$_Vector_val@UBuffInfoStruct@@V?$allocator@UBuffInfoStruct@@@std@@@std@@@1@0PAU2@@Z
_TEXT	SEGMENT
__First$ = 8						; size = 4
__Last$ = 12						; size = 4
__Cat$580034 = 16					; size = 1
__Ptr$ = 16						; size = 4
??$_Ucopy@V?$_Vector_const_iterator@V?$_Vector_val@UBuffInfoStruct@@V?$allocator@UBuffInfoStruct@@@std@@@std@@@std@@@?$vector@UBuffInfoStruct@@V?$allocator@UBuffInfoStruct@@@std@@@std@@IAEPAUBuffInfoStruct@@V?$_Vector_const_iterator@V?$_Vector_val@UBuffInfoStruct@@V?$allocator@UBuffInfoStruct@@@std@@@std@@@1@0PAU2@@Z PROC ; std::vector<BuffInfoStruct,std::allocator<BuffInfoStruct> >::_Ucopy<std::_Vector_const_iterator<std::_Vector_val<BuffInfoStruct,std::allocator<BuffInfoStruct> > > >, COMDAT
; _this$ = ecx

; 1315 : 		pointer _Ucopy(_Iter _First, _Iter _Last, pointer _Ptr)

  00000	55		 push	 ebp
  00001	8b ec		 mov	 ebp, esp

; 1316 : 		{	// copy initializing [_First, _Last), using allocator
; 1317 : 		return (_Uninitialized_copy(_First, _Last,
; 1318 : 			_Ptr, this->_Alval));

  00003	ff 75 10	 push	 DWORD PTR __Cat$580034[ebp]
  00006	83 c1 0c	 add	 ecx, 12			; 0000000cH
  00009	51		 push	 ecx
  0000a	ff 75 10	 push	 DWORD PTR __Ptr$[ebp]
  0000d	ff 75 0c	 push	 DWORD PTR __Last$[ebp]
  00010	ff 75 08	 push	 DWORD PTR __First$[ebp]
  00013	e8 00 00 00 00	 call	 ??$_Uninit_copy@V?$_Vector_const_iterator@V?$_Vector_val@UBuffInfoStruct@@V?$allocator@UBuffInfoStruct@@@std@@@std@@@std@@PAUBuffInfoStruct@@V?$allocator@UBuffInfoStruct@@@2@@std@@YAPAUBuffInfoStruct@@V?$_Vector_const_iterator@V?$_Vector_val@UBuffInfoStruct@@V?$allocator@UBuffInfoStruct@@@std@@@std@@@0@0PAU1@AAV?$allocator@UBuffInfoStruct@@@0@U_Nonscalar_ptr_iterator_tag@0@@Z ; std::_Uninit_copy<std::_Vector_const_iterator<std::_Vector_val<BuffInfoStruct,std::allocator<BuffInfoStruct> > >,BuffInfoStruct *,std::allocator<BuffInfoStruct> >
  00018	83 c4 14	 add	 esp, 20			; 00000014H

; 1319 : 		}

  0001b	5d		 pop	 ebp
  0001c	c2 0c 00	 ret	 12			; 0000000cH
??$_Ucopy@V?$_Vector_const_iterator@V?$_Vector_val@UBuffInfoStruct@@V?$allocator@UBuffInfoStruct@@@std@@@std@@@std@@@?$vector@UBuffInfoStruct@@V?$allocator@UBuffInfoStruct@@@std@@@std@@IAEPAUBuffInfoStruct@@V?$_Vector_const_iterator@V?$_Vector_val@UBuffInfoStruct@@V?$allocator@UBuffInfoStruct@@@std@@@std@@@1@0PAU2@@Z ENDP ; std::vector<BuffInfoStruct,std::allocator<BuffInfoStruct> >::_Ucopy<std::_Vector_const_iterator<std::_Vector_val<BuffInfoStruct,std::allocator<BuffInfoStruct> > > >
_TEXT	ENDS
PUBLIC	??$_Umove@PAUBuffInfoStruct@@@?$vector@UBuffInfoStruct@@V?$allocator@UBuffInfoStruct@@@std@@@std@@IAEPAUBuffInfoStruct@@PAU2@00@Z ; std::vector<BuffInfoStruct,std::allocator<BuffInfoStruct> >::_Umove<BuffInfoStruct *>
; Function compile flags: /Ogsp
;	COMDAT ??$_Umove@PAUBuffInfoStruct@@@?$vector@UBuffInfoStruct@@V?$allocator@UBuffInfoStruct@@@std@@@std@@IAEPAUBuffInfoStruct@@PAU2@00@Z
_TEXT	SEGMENT
__First$ = 8						; size = 4
__Last$ = 12						; size = 4
__Ptr$ = 16						; size = 4
??$_Umove@PAUBuffInfoStruct@@@?$vector@UBuffInfoStruct@@V?$allocator@UBuffInfoStruct@@@std@@@std@@IAEPAUBuffInfoStruct@@PAU2@00@Z PROC ; std::vector<BuffInfoStruct,std::allocator<BuffInfoStruct> >::_Umove<BuffInfoStruct *>, COMDAT
; _this$ = ecx

; 1322 : 		pointer _Umove(_Iter _First, _Iter _Last, pointer _Ptr)

  00000	55		 push	 ebp
  00001	8b ec		 mov	 ebp, esp

; 1323 : 		{	// move initializing [_First, _Last), using allocator
; 1324 : 		return (_Uninitialized_move(_First, _Last,
; 1325 : 			_Ptr, this->_Alval));

  00003	83 c1 0c	 add	 ecx, 12			; 0000000cH
  00006	51		 push	 ecx
  00007	ff 75 10	 push	 DWORD PTR __Ptr$[ebp]
  0000a	ff 75 0c	 push	 DWORD PTR __Last$[ebp]
  0000d	ff 75 08	 push	 DWORD PTR __First$[ebp]
  00010	e8 00 00 00 00	 call	 ??$_Uninitialized_move@PAUBuffInfoStruct@@PAU1@V?$allocator@UBuffInfoStruct@@@std@@@std@@YAPAUBuffInfoStruct@@PAU1@00AAV?$allocator@UBuffInfoStruct@@@0@@Z ; std::_Uninitialized_move<BuffInfoStruct *,BuffInfoStruct *,std::allocator<BuffInfoStruct> >
  00015	83 c4 10	 add	 esp, 16			; 00000010H

; 1326 : 		}

  00018	5d		 pop	 ebp
  00019	c2 0c 00	 ret	 12			; 0000000cH
??$_Umove@PAUBuffInfoStruct@@@?$vector@UBuffInfoStruct@@V?$allocator@UBuffInfoStruct@@@std@@@std@@IAEPAUBuffInfoStruct@@PAU2@00@Z ENDP ; std::vector<BuffInfoStruct,std::allocator<BuffInfoStruct> >::_Umove<BuffInfoStruct *>
_TEXT	ENDS
PUBLIC	?_Tidy@?$vector@UForceInfo@@V?$allocator@UForceInfo@@@std@@@std@@IAEXXZ ; std::vector<ForceInfo,std::allocator<ForceInfo> >::_Tidy
; Function compile flags: /Ogsp
;	COMDAT ?_Tidy@?$vector@UForceInfo@@V?$allocator@UForceInfo@@@std@@@std@@IAEXXZ
_TEXT	SEGMENT
?_Tidy@?$vector@UForceInfo@@V?$allocator@UForceInfo@@@std@@@std@@IAEXXZ PROC ; std::vector<ForceInfo,std::allocator<ForceInfo> >::_Tidy, COMDAT
; _this$ = ecx

; 1301 : 		{	// free all storage

  00000	56		 push	 esi
  00001	8b f1		 mov	 esi, ecx

; 1302 : 		if (this->_Myfirst != 0)

  00003	83 3e 00	 cmp	 DWORD PTR [esi], 0
  00006	74 0e		 je	 SHORT $LN21@Tidy@2

; 1303 : 			{	// something to free, destroy and deallocate it
; 1304 : 			this->_Orphan_all();

  00008	ff 15 00 00 00
	00		 call	 DWORD PTR __imp_?_Orphan_all@_Container_base0@std@@QAEXXZ

; 1305 : 			_Destroy(this->_Myfirst, this->_Mylast);
; 1306 : 			this->_Alval.deallocate(this->_Myfirst,
; 1307 : 				this->_Myend - this->_Myfirst);

  0000e	ff 36		 push	 DWORD PTR [esi]
  00010	e8 00 00 00 00	 call	 ??3@YAXPAX@Z		; operator delete
  00015	59		 pop	 ecx
$LN21@Tidy@2:

; 1308 : 			}
; 1309 : 		this->_Myfirst = 0;

  00016	83 26 00	 and	 DWORD PTR [esi], 0

; 1310 : 		this->_Mylast = 0;

  00019	83 66 04 00	 and	 DWORD PTR [esi+4], 0

; 1311 : 		this->_Myend = 0;

  0001d	83 66 08 00	 and	 DWORD PTR [esi+8], 0
  00021	5e		 pop	 esi

; 1312 : 		}

  00022	c3		 ret	 0
?_Tidy@?$vector@UForceInfo@@V?$allocator@UForceInfo@@@std@@@std@@IAEXXZ ENDP ; std::vector<ForceInfo,std::allocator<ForceInfo> >::_Tidy
_TEXT	ENDS
PUBLIC	?_Destroy@?$vector@UBuffInfoStruct@@V?$allocator@UBuffInfoStruct@@@std@@@std@@IAEXPAUBuffInfoStruct@@0@Z ; std::vector<BuffInfoStruct,std::allocator<BuffInfoStruct> >::_Destroy
; Function compile flags: /Ogsp
;	COMDAT ?_Destroy@?$vector@UBuffInfoStruct@@V?$allocator@UBuffInfoStruct@@@std@@@std@@IAEXPAUBuffInfoStruct@@0@Z
_TEXT	SEGMENT
__First$ = 8						; size = 4
__Last$ = 12						; size = 4
?_Destroy@?$vector@UBuffInfoStruct@@V?$allocator@UBuffInfoStruct@@@std@@@std@@IAEXPAUBuffInfoStruct@@0@Z PROC ; std::vector<BuffInfoStruct,std::allocator<BuffInfoStruct> >::_Destroy, COMDAT
; _this$ = ecx

; 1269 : 		{	// destroy [_First, _Last) using allocator

  00000	55		 push	 ebp
  00001	8b ec		 mov	 ebp, esp
  00003	56		 push	 esi

; 1270 : 		_Destroy_range(_First, _Last, this->_Alval);

  00004	8b 75 08	 mov	 esi, DWORD PTR __First$[ebp]
  00007	eb 0b		 jmp	 SHORT $LN26@Destroy
$LL9@Destroy:
  00009	8b ce		 mov	 ecx, esi
  0000b	ff 15 00 00 00
	00		 call	 DWORD PTR __imp_??1ioHashString@@QAE@XZ
  00011	83 c6 14	 add	 esi, 20			; 00000014H
$LN26@Destroy:
  00014	3b 75 0c	 cmp	 esi, DWORD PTR __Last$[ebp]
  00017	75 f0		 jne	 SHORT $LL9@Destroy
  00019	5e		 pop	 esi

; 1271 : 		}

  0001a	5d		 pop	 ebp
  0001b	c2 08 00	 ret	 8
?_Destroy@?$vector@UBuffInfoStruct@@V?$allocator@UBuffInfoStruct@@@std@@@std@@IAEXPAUBuffInfoStruct@@0@Z ENDP ; std::vector<BuffInfoStruct,std::allocator<BuffInfoStruct> >::_Destroy
_TEXT	ENDS
PUBLIC	?_Tidy@?$vector@UBuffInfoStruct@@V?$allocator@UBuffInfoStruct@@@std@@@std@@IAEXXZ ; std::vector<BuffInfoStruct,std::allocator<BuffInfoStruct> >::_Tidy
; Function compile flags: /Ogsp
;	COMDAT ?_Tidy@?$vector@UBuffInfoStruct@@V?$allocator@UBuffInfoStruct@@@std@@@std@@IAEXXZ
_TEXT	SEGMENT
?_Tidy@?$vector@UBuffInfoStruct@@V?$allocator@UBuffInfoStruct@@@std@@@std@@IAEXXZ PROC ; std::vector<BuffInfoStruct,std::allocator<BuffInfoStruct> >::_Tidy, COMDAT
; _this$ = ecx

; 1301 : 		{	// free all storage

  00000	56		 push	 esi
  00001	8b f1		 mov	 esi, ecx

; 1302 : 		if (this->_Myfirst != 0)

  00003	83 3e 00	 cmp	 DWORD PTR [esi], 0
  00006	74 28		 je	 SHORT $LN27@Tidy@3

; 1303 : 			{	// something to free, destroy and deallocate it
; 1304 : 			this->_Orphan_all();

  00008	53		 push	 ebx
  00009	57		 push	 edi
  0000a	ff 15 00 00 00
	00		 call	 DWORD PTR __imp_?_Orphan_all@_Container_base0@std@@QAEXXZ

; 1305 : 			_Destroy(this->_Myfirst, this->_Mylast);

  00010	8b 5e 04	 mov	 ebx, DWORD PTR [esi+4]
  00013	8b 3e		 mov	 edi, DWORD PTR [esi]
  00015	eb 0b		 jmp	 SHORT $LN31@Tidy@3
$LL12@Tidy@3:
  00017	8b cf		 mov	 ecx, edi
  00019	ff 15 00 00 00
	00		 call	 DWORD PTR __imp_??1ioHashString@@QAE@XZ
  0001f	83 c7 14	 add	 edi, 20			; 00000014H
$LN31@Tidy@3:
  00022	3b fb		 cmp	 edi, ebx
  00024	75 f1		 jne	 SHORT $LL12@Tidy@3

; 1306 : 			this->_Alval.deallocate(this->_Myfirst,
; 1307 : 				this->_Myend - this->_Myfirst);

  00026	ff 36		 push	 DWORD PTR [esi]
  00028	e8 00 00 00 00	 call	 ??3@YAXPAX@Z		; operator delete
  0002d	59		 pop	 ecx
  0002e	5f		 pop	 edi
  0002f	5b		 pop	 ebx
$LN27@Tidy@3:

; 1308 : 			}
; 1309 : 		this->_Myfirst = 0;

  00030	33 c0		 xor	 eax, eax
  00032	89 06		 mov	 DWORD PTR [esi], eax

; 1310 : 		this->_Mylast = 0;

  00034	89 46 04	 mov	 DWORD PTR [esi+4], eax

; 1311 : 		this->_Myend = 0;

  00037	89 46 08	 mov	 DWORD PTR [esi+8], eax
  0003a	5e		 pop	 esi

; 1312 : 		}

  0003b	c3		 ret	 0
?_Tidy@?$vector@UBuffInfoStruct@@V?$allocator@UBuffInfoStruct@@@std@@@std@@IAEXXZ ENDP ; std::vector<BuffInfoStruct,std::allocator<BuffInfoStruct> >::_Tidy
_TEXT	ENDS
PUBLIC	?_Destroy@?$vector@UWeaponInfo@@V?$allocator@UWeaponInfo@@@std@@@std@@IAEXPAUWeaponInfo@@0@Z ; std::vector<WeaponInfo,std::allocator<WeaponInfo> >::_Destroy
; Function compile flags: /Ogsp
;	COMDAT ?_Destroy@?$vector@UWeaponInfo@@V?$allocator@UWeaponInfo@@@std@@@std@@IAEXPAUWeaponInfo@@0@Z
_TEXT	SEGMENT
__First$ = 8						; size = 4
__Last$ = 12						; size = 4
?_Destroy@?$vector@UWeaponInfo@@V?$allocator@UWeaponInfo@@@std@@@std@@IAEXPAUWeaponInfo@@0@Z PROC ; std::vector<WeaponInfo,std::allocator<WeaponInfo> >::_Destroy, COMDAT
; _this$ = ecx

; 1269 : 		{	// destroy [_First, _Last) using allocator

  00000	55		 push	 ebp
  00001	8b ec		 mov	 ebp, esp

; 1270 : 		_Destroy_range(_First, _Last, this->_Alval);

  00003	83 c1 0c	 add	 ecx, 12			; 0000000cH
  00006	51		 push	 ecx
  00007	ff 75 0c	 push	 DWORD PTR __Last$[ebp]
  0000a	ff 75 08	 push	 DWORD PTR __First$[ebp]
  0000d	e8 00 00 00 00	 call	 ??$_Destroy_range@V?$allocator@UWeaponInfo@@@std@@@std@@YAXPAUWeaponInfo@@0AAV?$allocator@UWeaponInfo@@@0@@Z ; std::_Destroy_range<std::allocator<WeaponInfo> >
  00012	83 c4 0c	 add	 esp, 12			; 0000000cH

; 1271 : 		}

  00015	5d		 pop	 ebp
  00016	c2 08 00	 ret	 8
?_Destroy@?$vector@UWeaponInfo@@V?$allocator@UWeaponInfo@@@std@@@std@@IAEXPAUWeaponInfo@@0@Z ENDP ; std::vector<WeaponInfo,std::allocator<WeaponInfo> >::_Destroy
_TEXT	ENDS
PUBLIC	?clear@?$vector@UForceInfo@@V?$allocator@UForceInfo@@@std@@@std@@QAEXXZ ; std::vector<ForceInfo,std::allocator<ForceInfo> >::clear
; Function compile flags: /Ogsp
;	COMDAT ?clear@?$vector@UForceInfo@@V?$allocator@UForceInfo@@@std@@@std@@QAEXXZ
_TEXT	SEGMENT
$T580344 = -4						; size = 4
?clear@?$vector@UForceInfo@@V?$allocator@UForceInfo@@@std@@@std@@QAEXXZ PROC ; std::vector<ForceInfo,std::allocator<ForceInfo> >::clear, COMDAT
; _this$ = ecx

; 1217 : 		{	// erase all

  00000	55		 push	 ebp
  00001	8b ec		 mov	 ebp, esp
  00003	51		 push	 ecx

; 1218 : 		erase(begin(), end());

  00004	8b 41 04	 mov	 eax, DWORD PTR [ecx+4]
  00007	8b 11		 mov	 edx, DWORD PTR [ecx]
  00009	50		 push	 eax
  0000a	52		 push	 edx
  0000b	8d 45 fc	 lea	 eax, DWORD PTR $T580344[ebp]
  0000e	50		 push	 eax
  0000f	e8 00 00 00 00	 call	 ?erase@?$vector@UForceInfo@@V?$allocator@UForceInfo@@@std@@@std@@QAE?AV?$_Vector_iterator@V?$_Vector_val@UForceInfo@@V?$allocator@UForceInfo@@@std@@@std@@@2@V?$_Vector_const_iterator@V?$_Vector_val@UForceInfo@@V?$allocator@UForceInfo@@@std@@@std@@@2@0@Z ; std::vector<ForceInfo,std::allocator<ForceInfo> >::erase

; 1219 : 		}

  00014	c9		 leave
  00015	c3		 ret	 0
?clear@?$vector@UForceInfo@@V?$allocator@UForceInfo@@@std@@@std@@QAEXXZ ENDP ; std::vector<ForceInfo,std::allocator<ForceInfo> >::clear
_TEXT	ENDS
PUBLIC	?erase@?$vector@UWeaponInfo@@V?$allocator@UWeaponInfo@@@std@@@std@@QAE?AV?$_Vector_iterator@V?$_Vector_val@UWeaponInfo@@V?$allocator@UWeaponInfo@@@std@@@std@@@2@V?$_Vector_const_iterator@V?$_Vector_val@UWeaponInfo@@V?$allocator@UWeaponInfo@@@std@@@std@@@2@0@Z ; std::vector<WeaponInfo,std::allocator<WeaponInfo> >::erase
; Function compile flags: /Ogsp
;	COMDAT ?erase@?$vector@UWeaponInfo@@V?$allocator@UWeaponInfo@@@std@@@std@@QAE?AV?$_Vector_iterator@V?$_Vector_val@UWeaponInfo@@V?$allocator@UWeaponInfo@@@std@@@std@@@2@V?$_Vector_const_iterator@V?$_Vector_val@UWeaponInfo@@V?$allocator@UWeaponInfo@@@std@@@std@@@2@0@Z
_TEXT	SEGMENT
___$ReturnUdt$ = 8					; size = 4
__First_arg$ = 12					; size = 4
__Cat$580470 = 16					; size = 1
__Last_arg$ = 16					; size = 4
?erase@?$vector@UWeaponInfo@@V?$allocator@UWeaponInfo@@@std@@@std@@QAE?AV?$_Vector_iterator@V?$_Vector_val@UWeaponInfo@@V?$allocator@UWeaponInfo@@@std@@@std@@@2@V?$_Vector_const_iterator@V?$_Vector_val@UWeaponInfo@@V?$allocator@UWeaponInfo@@@std@@@std@@@2@0@Z PROC ; std::vector<WeaponInfo,std::allocator<WeaponInfo> >::erase, COMDAT
; _this$ = ecx

; 1190 : 		{	// erase [_First, _Last)

  00000	55		 push	 ebp
  00001	8b ec		 mov	 ebp, esp

; 1191 : 		iterator _First = _Make_iter(_First_arg);

  00003	8b 45 0c	 mov	 eax, DWORD PTR __First_arg$[ebp]
  00006	53		 push	 ebx
  00007	8b 5d 08	 mov	 ebx, DWORD PTR ___$ReturnUdt$[ebp]
  0000a	56		 push	 esi
  0000b	8b f1		 mov	 esi, ecx
  0000d	89 03		 mov	 DWORD PTR [ebx], eax

; 1192 : 		iterator _Last = _Make_iter(_Last_arg);
; 1193 : 
; 1194 : 		if (_First != _Last)

  0000f	3b 45 10	 cmp	 eax, DWORD PTR __Last_arg$[ebp]
  00012	74 27		 je	 SHORT $LN1@erase@3

; 1195 : 			{	// worth doing, copy down over hole
; 1196 :  #if _ITERATOR_DEBUG_LEVEL == 2
; 1197 : 			if (_Last < _First || _VICONT(_First) != this
; 1198 : 				|| _VIPTR(_First) < this->_Myfirst
; 1199 : 				|| this->_Mylast < _VIPTR(_Last))
; 1200 : 				_DEBUG_ERROR("vector erase iterator outside range");
; 1201 : 			pointer _Ptr = _Move(_VIPTR(_Last), this->_Mylast,
; 1202 : 				_VIPTR(_First));
; 1203 : 			_Orphan_range(_VIPTR(_First), this->_Mylast);
; 1204 : 
; 1205 :  #else /* _ITERATOR_DEBUG_LEVEL == 2 */
; 1206 : 			pointer _Ptr = _Move(_VIPTR(_Last), this->_Mylast,
; 1207 : 				_VIPTR(_First));

  00014	8b 4e 04	 mov	 ecx, DWORD PTR [esi+4]
  00017	57		 push	 edi
  00018	ff 75 10	 push	 DWORD PTR __Cat$580470[ebp]
  0001b	50		 push	 eax
  0001c	51		 push	 ecx
  0001d	ff 75 10	 push	 DWORD PTR __Last_arg$[ebp]
  00020	e8 00 00 00 00	 call	 ??$_Move@PAUWeaponInfo@@PAU1@@std@@YAPAUWeaponInfo@@PAU1@00U_Nonscalar_ptr_iterator_tag@0@@Z ; std::_Move<WeaponInfo *,WeaponInfo *>
  00025	8b f8		 mov	 edi, eax

; 1208 :  #endif /* _ITERATOR_DEBUG_LEVEL == 2 */
; 1209 : 
; 1210 : 			_Destroy(_Ptr, this->_Mylast);

  00027	8d 46 0c	 lea	 eax, DWORD PTR [esi+12]
  0002a	50		 push	 eax
  0002b	ff 76 04	 push	 DWORD PTR [esi+4]
  0002e	57		 push	 edi
  0002f	e8 00 00 00 00	 call	 ??$_Destroy_range@V?$allocator@UWeaponInfo@@@std@@@std@@YAXPAUWeaponInfo@@0AAV?$allocator@UWeaponInfo@@@0@@Z ; std::_Destroy_range<std::allocator<WeaponInfo> >
  00034	83 c4 1c	 add	 esp, 28			; 0000001cH

; 1211 : 			this->_Mylast = _Ptr;

  00037	89 7e 04	 mov	 DWORD PTR [esi+4], edi
  0003a	5f		 pop	 edi
$LN1@erase@3:

; 1212 : 			}
; 1213 : 		return (_First);

  0003b	5e		 pop	 esi
  0003c	8b c3		 mov	 eax, ebx
  0003e	5b		 pop	 ebx

; 1214 : 		}

  0003f	5d		 pop	 ebp
  00040	c2 0c 00	 ret	 12			; 0000000cH
?erase@?$vector@UWeaponInfo@@V?$allocator@UWeaponInfo@@@std@@@std@@QAE?AV?$_Vector_iterator@V?$_Vector_val@UWeaponInfo@@V?$allocator@UWeaponInfo@@@std@@@std@@@2@V?$_Vector_const_iterator@V?$_Vector_val@UWeaponInfo@@V?$allocator@UWeaponInfo@@@std@@@std@@@2@0@Z ENDP ; std::vector<WeaponInfo,std::allocator<WeaponInfo> >::erase
_TEXT	ENDS
PUBLIC	?reserve@?$vector@UWeaponInfo@@V?$allocator@UWeaponInfo@@@std@@@std@@QAEXI@Z ; std::vector<WeaponInfo,std::allocator<WeaponInfo> >::reserve
;	COMDAT xdata$x
; File c:\program files (x86)\microsoft visual studio 10.0\vc\include\xmemory
xdata$x	SEGMENT
__catchsym$?reserve@?$vector@UWeaponInfo@@V?$allocator@UWeaponInfo@@@std@@@std@@QAEXI@Z$2 DD 040H
	DD	00H
	DD	00H
	DD	FLAT:__catch$?reserve@?$vector@UWeaponInfo@@V?$allocator@UWeaponInfo@@@std@@@std@@QAEXI@Z$0
__unwindtable$?reserve@?$vector@UWeaponInfo@@V?$allocator@UWeaponInfo@@@std@@@std@@QAEXI@Z DD 0ffffffffH
	DD	00H
	DD	0ffffffffH
	DD	00H
__tryblocktable$?reserve@?$vector@UWeaponInfo@@V?$allocator@UWeaponInfo@@@std@@@std@@QAEXI@Z DD 00H
	DD	00H
	DD	01H
	DD	01H
	DD	FLAT:__catchsym$?reserve@?$vector@UWeaponInfo@@V?$allocator@UWeaponInfo@@@std@@@std@@QAEXI@Z$2
__ehfuncinfo$?reserve@?$vector@UWeaponInfo@@V?$allocator@UWeaponInfo@@@std@@@std@@QAEXI@Z DD 019930522H
	DD	02H
	DD	FLAT:__unwindtable$?reserve@?$vector@UWeaponInfo@@V?$allocator@UWeaponInfo@@@std@@@std@@QAEXI@Z
	DD	01H
	DD	FLAT:__tryblocktable$?reserve@?$vector@UWeaponInfo@@V?$allocator@UWeaponInfo@@@std@@@std@@QAEXI@Z
	DD	2 DUP(00H)
	DD	00H
	DD	01H
; Function compile flags: /Ogsp
; File c:\program files (x86)\microsoft visual studio 10.0\vc\include\vector
xdata$x	ENDS
;	COMDAT ?reserve@?$vector@UWeaponInfo@@V?$allocator@UWeaponInfo@@@std@@@std@@QAEXI@Z
_TEXT	SEGMENT
__$EHRec$ = -16						; size = 16
__Ptr$570157 = 8					; size = 4
__Count$ = 8						; size = 4
?reserve@?$vector@UWeaponInfo@@V?$allocator@UWeaponInfo@@@std@@@std@@QAEXI@Z PROC ; std::vector<WeaponInfo,std::allocator<WeaponInfo> >::reserve, COMDAT
; _this$ = ecx

; 746  : 		{	// determine new minimum length of allocated storage

  00000	6a 04		 push	 4
  00002	b8 00 00 00 00	 mov	 eax, __ehhandler$?reserve@?$vector@UWeaponInfo@@V?$allocator@UWeaponInfo@@@std@@@std@@QAEXI@Z
  00007	e8 00 00 00 00	 call	 __EH_prolog3_catch
  0000c	8b f1		 mov	 esi, ecx

; 747  : 		if (max_size() < _Count)

  0000e	8b 5d 08	 mov	 ebx, DWORD PTR __Count$[ebp]
  00011	81 fb 66 66 66
	06		 cmp	 ebx, 107374182		; 06666666H
  00017	76 0b		 jbe	 SHORT $LN5@reserve@3

; 748  : 			_Xlen();	// result too long

  00019	68 00 00 00 00	 push	 OFFSET ??_C@_0BD@OLBABOEK@vector?$DMT?$DO?5too?5long?$AA@
  0001e	ff 15 00 00 00
	00		 call	 DWORD PTR __imp_?_Xlength_error@std@@YAXPBD@Z
$LN38@reserve@3:
$LN5@reserve@3:

; 749  : 		else if (capacity() < _Count)

  00024	8b 46 08	 mov	 eax, DWORD PTR [esi+8]
  00027	2b 06		 sub	 eax, DWORD PTR [esi]
  00029	6a 28		 push	 40			; 00000028H
  0002b	99		 cdq
  0002c	59		 pop	 ecx
  0002d	f7 f9		 idiv	 ecx
  0002f	3b c3		 cmp	 eax, ebx
  00031	73 70		 jae	 SHORT $LN3@reserve@3

; 750  : 			{	// not enough room, reallocate
; 751  : 			pointer _Ptr = this->_Alval.allocate(_Count);

  00033	6a 00		 push	 0
  00035	53		 push	 ebx
  00036	e8 00 00 00 00	 call	 ??$_Allocate@UWeaponInfo@@@std@@YAPAUWeaponInfo@@IPAU1@@Z ; std::_Allocate<WeaponInfo>

; 752  : 
; 753  : 			_TRY_BEGIN
; 754  : 			_Umove(this->_Myfirst, this->_Mylast, _Ptr);

  0003b	8b 0e		 mov	 ecx, DWORD PTR [esi]
  0003d	83 65 fc 00	 and	 DWORD PTR __$EHRec$[ebp+12], 0
  00041	8d 56 0c	 lea	 edx, DWORD PTR [esi+12]
  00044	52		 push	 edx
  00045	89 45 08	 mov	 DWORD PTR __Ptr$570157[ebp], eax
  00048	ff 75 08	 push	 DWORD PTR __Ptr$570157[ebp]
  0004b	8b 46 04	 mov	 eax, DWORD PTR [esi+4]
  0004e	50		 push	 eax
  0004f	51		 push	 ecx
  00050	e8 00 00 00 00	 call	 ??$_Uninitialized_move@PAUWeaponInfo@@PAU1@V?$allocator@UWeaponInfo@@@std@@@std@@YAPAUWeaponInfo@@PAU1@00AAV?$allocator@UWeaponInfo@@@0@@Z ; std::_Uninitialized_move<WeaponInfo *,WeaponInfo *,std::allocator<WeaponInfo> >

; 758  : 			_CATCH_END
; 759  : 
; 760  : 			size_type _Size = size();

  00055	8b 0e		 mov	 ecx, DWORD PTR [esi]
  00057	8b 46 04	 mov	 eax, DWORD PTR [esi+4]
  0005a	83 c4 18	 add	 esp, 24			; 00000018H
  0005d	2b c1		 sub	 eax, ecx
  0005f	6a 28		 push	 40			; 00000028H
  00061	99		 cdq
  00062	5f		 pop	 edi
  00063	f7 ff		 idiv	 edi
  00065	83 4d fc ff	 or	 DWORD PTR __$EHRec$[ebp+12], -1
  00069	8b f8		 mov	 edi, eax
  0006b	85 c9		 test	 ecx, ecx
  0006d	74 17		 je	 SHORT $LN33@reserve@3

; 761  : 			if (this->_Myfirst != 0)
; 762  : 				{	// destroy and deallocate old array
; 763  : 				_Destroy(this->_Myfirst, this->_Mylast);

  0006f	8d 46 0c	 lea	 eax, DWORD PTR [esi+12]
  00072	50		 push	 eax
  00073	ff 76 04	 push	 DWORD PTR [esi+4]
  00076	51		 push	 ecx
  00077	e8 00 00 00 00	 call	 ??$_Destroy_range@V?$allocator@UWeaponInfo@@@std@@@std@@YAXPAUWeaponInfo@@0AAV?$allocator@UWeaponInfo@@@0@@Z ; std::_Destroy_range<std::allocator<WeaponInfo> >

; 764  : 				this->_Alval.deallocate(this->_Myfirst,
; 765  : 					this->_Myend - this->_Myfirst);

  0007c	ff 36		 push	 DWORD PTR [esi]
  0007e	e8 00 00 00 00	 call	 ??3@YAXPAX@Z		; operator delete
  00083	83 c4 10	 add	 esp, 16			; 00000010H
$LN33@reserve@3:

; 766  : 				}
; 767  : 
; 768  : 			this->_Orphan_all();

  00086	8b ce		 mov	 ecx, esi
  00088	ff 15 00 00 00
	00		 call	 DWORD PTR __imp_?_Orphan_all@_Container_base0@std@@QAEXXZ

; 769  : 			this->_Myend = _Ptr + _Count;

  0008e	6b db 28	 imul	 ebx, 40			; 00000028H

; 770  : 			this->_Mylast = _Ptr + _Size;

  00091	6b ff 28	 imul	 edi, 40			; 00000028H
  00094	8b 45 08	 mov	 eax, DWORD PTR __Ptr$570157[ebp]
  00097	03 d8		 add	 ebx, eax
  00099	03 f8		 add	 edi, eax
  0009b	89 5e 08	 mov	 DWORD PTR [esi+8], ebx
  0009e	89 7e 04	 mov	 DWORD PTR [esi+4], edi

; 771  : 			this->_Myfirst = _Ptr;

  000a1	89 06		 mov	 DWORD PTR [esi], eax
$LN3@reserve@3:

; 772  : 			}
; 773  : 		}

  000a3	e8 00 00 00 00	 call	 __EH_epilog3
  000a8	c2 04 00	 ret	 4
__catch$?reserve@?$vector@UWeaponInfo@@V?$allocator@UWeaponInfo@@@std@@@std@@QAEXI@Z$0:

; 755  : 			_CATCH_ALL
; 756  : 			this->_Alval.deallocate(_Ptr, _Count);

  000ab	ff 75 08	 push	 DWORD PTR __Ptr$570157[ebp]
  000ae	e8 00 00 00 00	 call	 ??3@YAXPAX@Z		; operator delete
  000b3	59		 pop	 ecx

; 757  : 			_RERAISE;

  000b4	6a 00		 push	 0
  000b6	6a 00		 push	 0
  000b8	e8 00 00 00 00	 call	 __CxxThrowException@8
$LN39@reserve@3:
$LN37@reserve@3:
  000bd	cc		 int	 3
_TEXT	ENDS
;	COMDAT text$x
text$x	SEGMENT
__ehhandler$?reserve@?$vector@UWeaponInfo@@V?$allocator@UWeaponInfo@@@std@@@std@@QAEXI@Z:
  00000	8b 54 24 08	 mov	 edx, DWORD PTR [esp+8]
  00004	8d 42 0c	 lea	 eax, DWORD PTR [edx+12]
  00007	8b 4a ec	 mov	 ecx, DWORD PTR [edx-20]
  0000a	33 c8		 xor	 ecx, eax
  0000c	e8 00 00 00 00	 call	 @__security_check_cookie@4
  00011	b8 00 00 00 00	 mov	 eax, OFFSET __ehfuncinfo$?reserve@?$vector@UWeaponInfo@@V?$allocator@UWeaponInfo@@@std@@@std@@QAEXI@Z
  00016	e9 00 00 00 00	 jmp	 ___CxxFrameHandler3
text$x	ENDS
?reserve@?$vector@UWeaponInfo@@V?$allocator@UWeaponInfo@@@std@@@std@@QAEXI@Z ENDP ; std::vector<WeaponInfo,std::allocator<WeaponInfo> >::reserve
PUBLIC	??0?$vector@UForceInfo@@V?$allocator@UForceInfo@@@std@@@std@@QAE@ABV01@@Z ; std::vector<ForceInfo,std::allocator<ForceInfo> >::vector<ForceInfo,std::allocator<ForceInfo> >
;	COMDAT xdata$x
; File c:\program files (x86)\microsoft visual studio 10.0\vc\include\xutility
xdata$x	SEGMENT
__catchsym$??0?$vector@UForceInfo@@V?$allocator@UForceInfo@@@std@@@std@@QAE@ABV01@@Z$2 DD 040H
	DD	00H
	DD	00H
	DD	FLAT:__catch$??0?$vector@UForceInfo@@V?$allocator@UForceInfo@@@std@@@std@@QAE@ABV01@@Z$0
__unwindtable$??0?$vector@UForceInfo@@V?$allocator@UForceInfo@@@std@@@std@@QAE@ABV01@@Z DD 0ffffffffH
	DD	00H
	DD	0ffffffffH
	DD	00H
__tryblocktable$??0?$vector@UForceInfo@@V?$allocator@UForceInfo@@@std@@@std@@QAE@ABV01@@Z DD 00H
	DD	00H
	DD	01H
	DD	01H
	DD	FLAT:__catchsym$??0?$vector@UForceInfo@@V?$allocator@UForceInfo@@@std@@@std@@QAE@ABV01@@Z$2
__ehfuncinfo$??0?$vector@UForceInfo@@V?$allocator@UForceInfo@@@std@@@std@@QAE@ABV01@@Z DD 019930522H
	DD	02H
	DD	FLAT:__unwindtable$??0?$vector@UForceInfo@@V?$allocator@UForceInfo@@@std@@@std@@QAE@ABV01@@Z
	DD	01H
	DD	FLAT:__tryblocktable$??0?$vector@UForceInfo@@V?$allocator@UForceInfo@@@std@@@std@@QAE@ABV01@@Z
	DD	2 DUP(00H)
	DD	00H
	DD	01H
; Function compile flags: /Ogsp
; File c:\program files (x86)\microsoft visual studio 10.0\vc\include\vector
xdata$x	ENDS
;	COMDAT ??0?$vector@UForceInfo@@V?$allocator@UForceInfo@@@std@@@std@@QAE@ABV01@@Z
_TEXT	SEGMENT
_this$ = -20						; size = 4
__$EHRec$ = -16						; size = 16
__Cat$580622 = 8					; size = 1
__Right$ = 8						; size = 4
??0?$vector@UForceInfo@@V?$allocator@UForceInfo@@@std@@@std@@QAE@ABV01@@Z PROC ; std::vector<ForceInfo,std::allocator<ForceInfo> >::vector<ForceInfo,std::allocator<ForceInfo> >, COMDAT
; _this$ = ecx

; 535  : 		{	// construct by copying _Right

  00000	6a 08		 push	 8
  00002	b8 00 00 00 00	 mov	 eax, __ehhandler$??0?$vector@UForceInfo@@V?$allocator@UForceInfo@@@std@@@std@@QAE@ABV01@@Z
  00007	e8 00 00 00 00	 call	 __EH_prolog3_catch
  0000c	8b f1		 mov	 esi, ecx
  0000e	89 75 ec	 mov	 DWORD PTR _this$[ebp], esi

; 536  : 		if (_Buy(_Right.size()))

  00011	8b 7d 08	 mov	 edi, DWORD PTR __Right$[ebp]
  00014	33 db		 xor	 ebx, ebx
  00016	89 1e		 mov	 DWORD PTR [esi], ebx
  00018	89 5e 04	 mov	 DWORD PTR [esi+4], ebx
  0001b	89 5e 08	 mov	 DWORD PTR [esi+8], ebx
  0001e	8b 47 04	 mov	 eax, DWORD PTR [edi+4]
  00021	2b 07		 sub	 eax, DWORD PTR [edi]
  00023	6a 0c		 push	 12			; 0000000cH
  00025	59		 pop	 ecx
  00026	99		 cdq
  00027	f7 f9		 idiv	 ecx
  00029	8b ce		 mov	 ecx, esi
  0002b	50		 push	 eax
  0002c	e8 00 00 00 00	 call	 ?_Buy@?$vector@UForceInfo@@V?$allocator@UForceInfo@@@std@@@std@@IAE_NI@Z ; std::vector<ForceInfo,std::allocator<ForceInfo> >::_Buy
  00031	84 c0		 test	 al, al
  00033	74 1f		 je	 SHORT $LN7@vector

; 537  : 			_TRY_BEGIN
; 538  : 			this->_Mylast = _Ucopy(_Right.begin(), _Right.end(),
; 539  : 				this->_Myfirst);

  00035	ff 75 08	 push	 DWORD PTR __Cat$580622[ebp]
  00038	8b 0e		 mov	 ecx, DWORD PTR [esi]
  0003a	8b 47 04	 mov	 eax, DWORD PTR [edi+4]
  0003d	8b 3f		 mov	 edi, DWORD PTR [edi]
  0003f	8d 56 0c	 lea	 edx, DWORD PTR [esi+12]
  00042	52		 push	 edx
  00043	51		 push	 ecx
  00044	50		 push	 eax
  00045	57		 push	 edi
  00046	89 5d fc	 mov	 DWORD PTR __$EHRec$[ebp+12], ebx
  00049	e8 00 00 00 00	 call	 ??$_Uninit_copy@V?$_Vector_const_iterator@V?$_Vector_val@UForceInfo@@V?$allocator@UForceInfo@@@std@@@std@@@std@@PAUForceInfo@@V?$allocator@UForceInfo@@@2@@std@@YAPAUForceInfo@@V?$_Vector_const_iterator@V?$_Vector_val@UForceInfo@@V?$allocator@UForceInfo@@@std@@@std@@@0@0PAU1@AAV?$allocator@UForceInfo@@@0@U_Nonscalar_ptr_iterator_tag@0@@Z ; std::_Uninit_copy<std::_Vector_const_iterator<std::_Vector_val<ForceInfo,std::allocator<ForceInfo> > >,ForceInfo *,std::allocator<ForceInfo> >
  0004e	83 c4 14	 add	 esp, 20			; 00000014H
  00051	89 46 04	 mov	 DWORD PTR [esi+4], eax
$LN7@vector:

; 543  : 			_CATCH_END
; 544  : 		}

  00054	8b c6		 mov	 eax, esi
  00056	e8 00 00 00 00	 call	 __EH_epilog3
  0005b	c2 04 00	 ret	 4
__catch$??0?$vector@UForceInfo@@V?$allocator@UForceInfo@@@std@@@std@@QAE@ABV01@@Z$0:

; 540  : 			_CATCH_ALL
; 541  : 			_Tidy();

  0005e	8b 4d ec	 mov	 ecx, DWORD PTR _this$[ebp]
  00061	e8 00 00 00 00	 call	 ?_Tidy@?$vector@UForceInfo@@V?$allocator@UForceInfo@@@std@@@std@@IAEXXZ ; std::vector<ForceInfo,std::allocator<ForceInfo> >::_Tidy

; 542  : 			_RERAISE;

  00066	33 db		 xor	 ebx, ebx
  00068	53		 push	 ebx
  00069	53		 push	 ebx
  0006a	e8 00 00 00 00	 call	 __CxxThrowException@8
$LN38@vector:
$LN37@vector:
  0006f	cc		 int	 3
_TEXT	ENDS
;	COMDAT text$x
text$x	SEGMENT
__ehhandler$??0?$vector@UForceInfo@@V?$allocator@UForceInfo@@@std@@@std@@QAE@ABV01@@Z:
  00000	8b 54 24 08	 mov	 edx, DWORD PTR [esp+8]
  00004	8d 42 0c	 lea	 eax, DWORD PTR [edx+12]
  00007	8b 4a e8	 mov	 ecx, DWORD PTR [edx-24]
  0000a	33 c8		 xor	 ecx, eax
  0000c	e8 00 00 00 00	 call	 @__security_check_cookie@4
  00011	b8 00 00 00 00	 mov	 eax, OFFSET __ehfuncinfo$??0?$vector@UForceInfo@@V?$allocator@UForceInfo@@@std@@@std@@QAE@ABV01@@Z
  00016	e9 00 00 00 00	 jmp	 ___CxxFrameHandler3
text$x	ENDS
??0?$vector@UForceInfo@@V?$allocator@UForceInfo@@@std@@@std@@QAE@ABV01@@Z ENDP ; std::vector<ForceInfo,std::allocator<ForceInfo> >::vector<ForceInfo,std::allocator<ForceInfo> >
PUBLIC	?push_back@?$vector@UForceInfo@@V?$allocator@UForceInfo@@@std@@@std@@QAEXABUForceInfo@@@Z ; std::vector<ForceInfo,std::allocator<ForceInfo> >::push_back
; Function compile flags: /Ogsp
;	COMDAT ?push_back@?$vector@UForceInfo@@V?$allocator@UForceInfo@@@std@@@std@@QAEXABUForceInfo@@@Z
_TEXT	SEGMENT
__Val$ = 8						; size = 4
?push_back@?$vector@UForceInfo@@V?$allocator@UForceInfo@@@std@@@std@@QAEXABUForceInfo@@@Z PROC ; std::vector<ForceInfo,std::allocator<ForceInfo> >::push_back, COMDAT
; _this$ = ecx

; 976  : 		{	// insert element at end

  00000	55		 push	 ebp
  00001	8b ec		 mov	 ebp, esp
  00003	56		 push	 esi
  00004	8b f1		 mov	 esi, ecx

; 977  : 		if (_Inside(_STD addressof(_Val)))

  00006	8b 4e 04	 mov	 ecx, DWORD PTR [esi+4]
  00009	57		 push	 edi
  0000a	8b 7d 08	 mov	 edi, DWORD PTR __Val$[ebp]
  0000d	3b f9		 cmp	 edi, ecx
  0000f	73 34		 jae	 SHORT $LN4@push_back
  00011	8b 16		 mov	 edx, DWORD PTR [esi]
  00013	3b d7		 cmp	 edx, edi
  00015	77 2e		 ja	 SHORT $LN4@push_back

; 978  : 			{	// push back an element
; 979  : 			size_type _Idx = _STD addressof(_Val) - this->_Myfirst;

  00017	8b c7		 mov	 eax, edi
  00019	2b c2		 sub	 eax, edx
  0001b	6a 0c		 push	 12			; 0000000cH
  0001d	99		 cdq
  0001e	5f		 pop	 edi
  0001f	f7 ff		 idiv	 edi
  00021	8b f8		 mov	 edi, eax

; 980  : 			if (this->_Mylast == this->_Myend)

  00023	3b 4e 08	 cmp	 ecx, DWORD PTR [esi+8]
  00026	75 09		 jne	 SHORT $LN3@push_back

; 981  : 				_Reserve(1);

  00028	6a 01		 push	 1
  0002a	8b ce		 mov	 ecx, esi
  0002c	e8 00 00 00 00	 call	 ?_Reserve@?$vector@UForceInfo@@V?$allocator@UForceInfo@@@std@@@std@@IAEXI@Z ; std::vector<ForceInfo,std::allocator<ForceInfo> >::_Reserve
$LN3@push_back:

; 982  : 			_Orphan_range(this->_Mylast, this->_Mylast);
; 983  : 			_Cons_val(this->_Alval,
; 984  : 				this->_Mylast,
; 985  : 				this->_Myfirst[_Idx]);

  00031	6b ff 0c	 imul	 edi, 12			; 0000000cH
  00034	03 3e		 add	 edi, DWORD PTR [esi]
  00036	8d 46 0c	 lea	 eax, DWORD PTR [esi+12]
  00039	57		 push	 edi
  0003a	ff 76 04	 push	 DWORD PTR [esi+4]
  0003d	50		 push	 eax
  0003e	e8 00 00 00 00	 call	 ??$_Cons_val@V?$allocator@UForceInfo@@@std@@UForceInfo@@AAU3@@std@@YAXAAV?$allocator@UForceInfo@@@0@PAUForceInfo@@AAU2@@Z ; std::_Cons_val<std::allocator<ForceInfo>,ForceInfo,ForceInfo &>

; 986  : 			++this->_Mylast;
; 987  : 			}
; 988  : 		else

  00043	eb 1b		 jmp	 SHORT $LN20@push_back
$LN4@push_back:

; 989  : 			{	// push back a non-element
; 990  : 			if (this->_Mylast == this->_Myend)

  00045	3b 4e 08	 cmp	 ecx, DWORD PTR [esi+8]
  00048	75 09		 jne	 SHORT $LN1@push_back

; 991  : 				_Reserve(1);

  0004a	6a 01		 push	 1
  0004c	8b ce		 mov	 ecx, esi
  0004e	e8 00 00 00 00	 call	 ?_Reserve@?$vector@UForceInfo@@V?$allocator@UForceInfo@@@std@@@std@@IAEXI@Z ; std::vector<ForceInfo,std::allocator<ForceInfo> >::_Reserve
$LN1@push_back:

; 992  : 			_Orphan_range(this->_Mylast, this->_Mylast);
; 993  : 			_Cons_val(this->_Alval,
; 994  : 				this->_Mylast,
; 995  : 				_Val);

  00053	57		 push	 edi
  00054	ff 76 04	 push	 DWORD PTR [esi+4]
  00057	8d 46 0c	 lea	 eax, DWORD PTR [esi+12]
  0005a	50		 push	 eax
  0005b	e8 00 00 00 00	 call	 ??$_Cons_val@V?$allocator@UForceInfo@@@std@@UForceInfo@@ABU3@@std@@YAXAAV?$allocator@UForceInfo@@@0@PAUForceInfo@@ABU2@@Z ; std::_Cons_val<std::allocator<ForceInfo>,ForceInfo,ForceInfo const &>
$LN20@push_back:
  00060	83 c4 0c	 add	 esp, 12			; 0000000cH

; 996  : 			++this->_Mylast;

  00063	83 46 04 0c	 add	 DWORD PTR [esi+4], 12	; 0000000cH
  00067	5f		 pop	 edi
  00068	5e		 pop	 esi

; 997  : 			}
; 998  : 		}

  00069	5d		 pop	 ebp
  0006a	c2 04 00	 ret	 4
?push_back@?$vector@UForceInfo@@V?$allocator@UForceInfo@@@std@@@std@@QAEXABUForceInfo@@@Z ENDP ; std::vector<ForceInfo,std::allocator<ForceInfo> >::push_back
_TEXT	ENDS
PUBLIC	??0?$vector@UBuffInfoStruct@@V?$allocator@UBuffInfoStruct@@@std@@@std@@QAE@ABV01@@Z ; std::vector<BuffInfoStruct,std::allocator<BuffInfoStruct> >::vector<BuffInfoStruct,std::allocator<BuffInfoStruct> >
;	COMDAT xdata$x
; File c:\program files (x86)\microsoft visual studio 10.0\vc\include\xutility
xdata$x	SEGMENT
__catchsym$??0?$vector@UBuffInfoStruct@@V?$allocator@UBuffInfoStruct@@@std@@@std@@QAE@ABV01@@Z$2 DD 040H
	DD	00H
	DD	00H
	DD	FLAT:__catch$??0?$vector@UBuffInfoStruct@@V?$allocator@UBuffInfoStruct@@@std@@@std@@QAE@ABV01@@Z$0
__unwindtable$??0?$vector@UBuffInfoStruct@@V?$allocator@UBuffInfoStruct@@@std@@@std@@QAE@ABV01@@Z DD 0ffffffffH
	DD	00H
	DD	0ffffffffH
	DD	00H
__tryblocktable$??0?$vector@UBuffInfoStruct@@V?$allocator@UBuffInfoStruct@@@std@@@std@@QAE@ABV01@@Z DD 00H
	DD	00H
	DD	01H
	DD	01H
	DD	FLAT:__catchsym$??0?$vector@UBuffInfoStruct@@V?$allocator@UBuffInfoStruct@@@std@@@std@@QAE@ABV01@@Z$2
__ehfuncinfo$??0?$vector@UBuffInfoStruct@@V?$allocator@UBuffInfoStruct@@@std@@@std@@QAE@ABV01@@Z DD 019930522H
	DD	02H
	DD	FLAT:__unwindtable$??0?$vector@UBuffInfoStruct@@V?$allocator@UBuffInfoStruct@@@std@@@std@@QAE@ABV01@@Z
	DD	01H
	DD	FLAT:__tryblocktable$??0?$vector@UBuffInfoStruct@@V?$allocator@UBuffInfoStruct@@@std@@@std@@QAE@ABV01@@Z
	DD	2 DUP(00H)
	DD	00H
	DD	01H
; Function compile flags: /Ogsp
; File c:\program files (x86)\microsoft visual studio 10.0\vc\include\vector
xdata$x	ENDS
;	COMDAT ??0?$vector@UBuffInfoStruct@@V?$allocator@UBuffInfoStruct@@@std@@@std@@QAE@ABV01@@Z
_TEXT	SEGMENT
_this$ = -20						; size = 4
__$EHRec$ = -16						; size = 16
__Cat$580740 = 8					; size = 1
__Right$ = 8						; size = 4
??0?$vector@UBuffInfoStruct@@V?$allocator@UBuffInfoStruct@@@std@@@std@@QAE@ABV01@@Z PROC ; std::vector<BuffInfoStruct,std::allocator<BuffInfoStruct> >::vector<BuffInfoStruct,std::allocator<BuffInfoStruct> >, COMDAT
; _this$ = ecx

; 535  : 		{	// construct by copying _Right

  00000	6a 08		 push	 8
  00002	b8 00 00 00 00	 mov	 eax, __ehhandler$??0?$vector@UBuffInfoStruct@@V?$allocator@UBuffInfoStruct@@@std@@@std@@QAE@ABV01@@Z
  00007	e8 00 00 00 00	 call	 __EH_prolog3_catch
  0000c	8b f1		 mov	 esi, ecx
  0000e	89 75 ec	 mov	 DWORD PTR _this$[ebp], esi

; 536  : 		if (_Buy(_Right.size()))

  00011	8b 7d 08	 mov	 edi, DWORD PTR __Right$[ebp]
  00014	33 db		 xor	 ebx, ebx
  00016	89 1e		 mov	 DWORD PTR [esi], ebx
  00018	89 5e 04	 mov	 DWORD PTR [esi+4], ebx
  0001b	89 5e 08	 mov	 DWORD PTR [esi+8], ebx
  0001e	8b 47 04	 mov	 eax, DWORD PTR [edi+4]
  00021	2b 07		 sub	 eax, DWORD PTR [edi]
  00023	6a 14		 push	 20			; 00000014H
  00025	59		 pop	 ecx
  00026	99		 cdq
  00027	f7 f9		 idiv	 ecx
  00029	8b ce		 mov	 ecx, esi
  0002b	50		 push	 eax
  0002c	e8 00 00 00 00	 call	 ?_Buy@?$vector@UBuffInfoStruct@@V?$allocator@UBuffInfoStruct@@@std@@@std@@IAE_NI@Z ; std::vector<BuffInfoStruct,std::allocator<BuffInfoStruct> >::_Buy
  00031	84 c0		 test	 al, al
  00033	74 1f		 je	 SHORT $LN7@vector@2

; 537  : 			_TRY_BEGIN
; 538  : 			this->_Mylast = _Ucopy(_Right.begin(), _Right.end(),
; 539  : 				this->_Myfirst);

  00035	ff 75 08	 push	 DWORD PTR __Cat$580740[ebp]
  00038	8b 0e		 mov	 ecx, DWORD PTR [esi]
  0003a	8b 47 04	 mov	 eax, DWORD PTR [edi+4]
  0003d	8b 3f		 mov	 edi, DWORD PTR [edi]
  0003f	8d 56 0c	 lea	 edx, DWORD PTR [esi+12]
  00042	52		 push	 edx
  00043	51		 push	 ecx
  00044	50		 push	 eax
  00045	57		 push	 edi
  00046	89 5d fc	 mov	 DWORD PTR __$EHRec$[ebp+12], ebx
  00049	e8 00 00 00 00	 call	 ??$_Uninit_copy@V?$_Vector_const_iterator@V?$_Vector_val@UBuffInfoStruct@@V?$allocator@UBuffInfoStruct@@@std@@@std@@@std@@PAUBuffInfoStruct@@V?$allocator@UBuffInfoStruct@@@2@@std@@YAPAUBuffInfoStruct@@V?$_Vector_const_iterator@V?$_Vector_val@UBuffInfoStruct@@V?$allocator@UBuffInfoStruct@@@std@@@std@@@0@0PAU1@AAV?$allocator@UBuffInfoStruct@@@0@U_Nonscalar_ptr_iterator_tag@0@@Z ; std::_Uninit_copy<std::_Vector_const_iterator<std::_Vector_val<BuffInfoStruct,std::allocator<BuffInfoStruct> > >,BuffInfoStruct *,std::allocator<BuffInfoStruct> >
  0004e	83 c4 14	 add	 esp, 20			; 00000014H
  00051	89 46 04	 mov	 DWORD PTR [esi+4], eax
$LN7@vector@2:

; 543  : 			_CATCH_END
; 544  : 		}

  00054	8b c6		 mov	 eax, esi
  00056	e8 00 00 00 00	 call	 __EH_epilog3
  0005b	c2 04 00	 ret	 4
__catch$??0?$vector@UBuffInfoStruct@@V?$allocator@UBuffInfoStruct@@@std@@@std@@QAE@ABV01@@Z$0:

; 540  : 			_CATCH_ALL
; 541  : 			_Tidy();

  0005e	8b 4d ec	 mov	 ecx, DWORD PTR _this$[ebp]
  00061	e8 00 00 00 00	 call	 ?_Tidy@?$vector@UBuffInfoStruct@@V?$allocator@UBuffInfoStruct@@@std@@@std@@IAEXXZ ; std::vector<BuffInfoStruct,std::allocator<BuffInfoStruct> >::_Tidy

; 542  : 			_RERAISE;

  00066	33 db		 xor	 ebx, ebx
  00068	53		 push	 ebx
  00069	53		 push	 ebx
  0006a	e8 00 00 00 00	 call	 __CxxThrowException@8
$LN38@vector@2:
$LN37@vector@2:
  0006f	cc		 int	 3
_TEXT	ENDS
;	COMDAT text$x
text$x	SEGMENT
__ehhandler$??0?$vector@UBuffInfoStruct@@V?$allocator@UBuffInfoStruct@@@std@@@std@@QAE@ABV01@@Z:
  00000	8b 54 24 08	 mov	 edx, DWORD PTR [esp+8]
  00004	8d 42 0c	 lea	 eax, DWORD PTR [edx+12]
  00007	8b 4a e8	 mov	 ecx, DWORD PTR [edx-24]
  0000a	33 c8		 xor	 ecx, eax
  0000c	e8 00 00 00 00	 call	 @__security_check_cookie@4
  00011	b8 00 00 00 00	 mov	 eax, OFFSET __ehfuncinfo$??0?$vector@UBuffInfoStruct@@V?$allocator@UBuffInfoStruct@@@std@@@std@@QAE@ABV01@@Z
  00016	e9 00 00 00 00	 jmp	 ___CxxFrameHandler3
text$x	ENDS
??0?$vector@UBuffInfoStruct@@V?$allocator@UBuffInfoStruct@@@std@@@std@@QAE@ABV01@@Z ENDP ; std::vector<BuffInfoStruct,std::allocator<BuffInfoStruct> >::vector<BuffInfoStruct,std::allocator<BuffInfoStruct> >
PUBLIC	?reserve@?$vector@UBuffInfoStruct@@V?$allocator@UBuffInfoStruct@@@std@@@std@@QAEXI@Z ; std::vector<BuffInfoStruct,std::allocator<BuffInfoStruct> >::reserve
;	COMDAT xdata$x
; File c:\program files (x86)\microsoft visual studio 10.0\vc\include\xmemory
xdata$x	SEGMENT
__catchsym$?reserve@?$vector@UBuffInfoStruct@@V?$allocator@UBuffInfoStruct@@@std@@@std@@QAEXI@Z$3 DD 040H
	DD	00H
	DD	00H
	DD	FLAT:__catch$?reserve@?$vector@UBuffInfoStruct@@V?$allocator@UBuffInfoStruct@@@std@@@std@@QAEXI@Z$0
__unwindtable$?reserve@?$vector@UBuffInfoStruct@@V?$allocator@UBuffInfoStruct@@@std@@@std@@QAEXI@Z DD 0ffffffffH
	DD	00H
	DD	0ffffffffH
	DD	00H
__tryblocktable$?reserve@?$vector@UBuffInfoStruct@@V?$allocator@UBuffInfoStruct@@@std@@@std@@QAEXI@Z DD 00H
	DD	00H
	DD	01H
	DD	01H
	DD	FLAT:__catchsym$?reserve@?$vector@UBuffInfoStruct@@V?$allocator@UBuffInfoStruct@@@std@@@std@@QAEXI@Z$3
__ehfuncinfo$?reserve@?$vector@UBuffInfoStruct@@V?$allocator@UBuffInfoStruct@@@std@@@std@@QAEXI@Z DD 019930522H
	DD	02H
	DD	FLAT:__unwindtable$?reserve@?$vector@UBuffInfoStruct@@V?$allocator@UBuffInfoStruct@@@std@@@std@@QAEXI@Z
	DD	01H
	DD	FLAT:__tryblocktable$?reserve@?$vector@UBuffInfoStruct@@V?$allocator@UBuffInfoStruct@@@std@@@std@@QAEXI@Z
	DD	2 DUP(00H)
	DD	00H
	DD	01H
; Function compile flags: /Ogsp
; File c:\program files (x86)\microsoft visual studio 10.0\vc\include\vector
xdata$x	ENDS
;	COMDAT ?reserve@?$vector@UBuffInfoStruct@@V?$allocator@UBuffInfoStruct@@@std@@@std@@QAEXI@Z
_TEXT	SEGMENT
__Ptr$570256 = -24					; size = 4
$T580864 = -20						; size = 4
__$EHRec$ = -16						; size = 16
__Count$ = 8						; size = 4
?reserve@?$vector@UBuffInfoStruct@@V?$allocator@UBuffInfoStruct@@@std@@@std@@QAEXI@Z PROC ; std::vector<BuffInfoStruct,std::allocator<BuffInfoStruct> >::reserve, COMDAT
; _this$ = ecx

; 746  : 		{	// determine new minimum length of allocated storage

  00000	6a 0c		 push	 12			; 0000000cH
  00002	b8 00 00 00 00	 mov	 eax, __ehhandler$?reserve@?$vector@UBuffInfoStruct@@V?$allocator@UBuffInfoStruct@@@std@@@std@@QAEXI@Z
  00007	e8 00 00 00 00	 call	 __EH_prolog3_catch
  0000c	8b f1		 mov	 esi, ecx

; 747  : 		if (max_size() < _Count)

  0000e	81 7d 08 cc cc
	cc 0c		 cmp	 DWORD PTR __Count$[ebp], 214748364 ; 0cccccccH
  00015	76 0b		 jbe	 SHORT $LN5@reserve@4

; 748  : 			_Xlen();	// result too long

  00017	68 00 00 00 00	 push	 OFFSET ??_C@_0BD@OLBABOEK@vector?$DMT?$DO?5too?5long?$AA@
  0001c	ff 15 00 00 00
	00		 call	 DWORD PTR __imp_?_Xlength_error@std@@YAXPBD@Z
$LN62@reserve@4:
$LN5@reserve@4:

; 749  : 		else if (capacity() < _Count)

  00022	8b 46 08	 mov	 eax, DWORD PTR [esi+8]
  00025	2b 06		 sub	 eax, DWORD PTR [esi]
  00027	6a 14		 push	 20			; 00000014H
  00029	99		 cdq
  0002a	59		 pop	 ecx
  0002b	f7 f9		 idiv	 ecx
  0002d	3b 45 08	 cmp	 eax, DWORD PTR __Count$[ebp]
  00030	0f 83 81 00 00
	00		 jae	 $LN3@reserve@4

; 750  : 			{	// not enough room, reallocate
; 751  : 			pointer _Ptr = this->_Alval.allocate(_Count);

  00036	6a 00		 push	 0
  00038	ff 75 08	 push	 DWORD PTR __Count$[ebp]
  0003b	e8 00 00 00 00	 call	 ??$_Allocate@UBuffInfoStruct@@@std@@YAPAUBuffInfoStruct@@IPAU1@@Z ; std::_Allocate<BuffInfoStruct>

; 752  : 
; 753  : 			_TRY_BEGIN
; 754  : 			_Umove(this->_Myfirst, this->_Mylast, _Ptr);

  00040	8b 0e		 mov	 ecx, DWORD PTR [esi]
  00042	83 65 fc 00	 and	 DWORD PTR __$EHRec$[ebp+12], 0
  00046	8d 56 0c	 lea	 edx, DWORD PTR [esi+12]
  00049	52		 push	 edx
  0004a	89 45 e8	 mov	 DWORD PTR __Ptr$570256[ebp], eax
  0004d	ff 75 e8	 push	 DWORD PTR __Ptr$570256[ebp]
  00050	8b 46 04	 mov	 eax, DWORD PTR [esi+4]
  00053	50		 push	 eax
  00054	51		 push	 ecx
  00055	e8 00 00 00 00	 call	 ??$_Uninitialized_move@PAUBuffInfoStruct@@PAU1@V?$allocator@UBuffInfoStruct@@@std@@@std@@YAPAUBuffInfoStruct@@PAU1@00AAV?$allocator@UBuffInfoStruct@@@0@@Z ; std::_Uninitialized_move<BuffInfoStruct *,BuffInfoStruct *,std::allocator<BuffInfoStruct> >

; 758  : 			_CATCH_END
; 759  : 
; 760  : 			size_type _Size = size();

  0005a	8b 5e 04	 mov	 ebx, DWORD PTR [esi+4]
  0005d	8b 0e		 mov	 ecx, DWORD PTR [esi]
  0005f	83 c4 18	 add	 esp, 24			; 00000018H
  00062	8b c3		 mov	 eax, ebx
  00064	2b c1		 sub	 eax, ecx
  00066	6a 14		 push	 20			; 00000014H
  00068	99		 cdq
  00069	5f		 pop	 edi
  0006a	f7 ff		 idiv	 edi
  0006c	83 4d fc ff	 or	 DWORD PTR __$EHRec$[ebp+12], -1
  00070	8b f8		 mov	 edi, eax
  00072	85 c9		 test	 ecx, ecx
  00074	74 21		 je	 SHORT $LN54@reserve@4

; 761  : 			if (this->_Myfirst != 0)
; 762  : 				{	// destroy and deallocate old array
; 763  : 				_Destroy(this->_Myfirst, this->_Mylast);

  00076	89 4d ec	 mov	 DWORD PTR $T580864[ebp], ecx
  00079	3b cb		 cmp	 ecx, ebx
  0007b	74 12		 je	 SHORT $LN37@reserve@4
$LN39@reserve@4:
  0007d	8b 4d ec	 mov	 ecx, DWORD PTR $T580864[ebp]
  00080	ff 15 00 00 00
	00		 call	 DWORD PTR __imp_??1ioHashString@@QAE@XZ
  00086	83 45 ec 14	 add	 DWORD PTR $T580864[ebp], 20 ; 00000014H
  0008a	39 5d ec	 cmp	 DWORD PTR $T580864[ebp], ebx
  0008d	75 ee		 jne	 SHORT $LN39@reserve@4
$LN37@reserve@4:

; 764  : 				this->_Alval.deallocate(this->_Myfirst,
; 765  : 					this->_Myend - this->_Myfirst);

  0008f	ff 36		 push	 DWORD PTR [esi]
  00091	e8 00 00 00 00	 call	 ??3@YAXPAX@Z		; operator delete
  00096	59		 pop	 ecx
$LN54@reserve@4:

; 766  : 				}
; 767  : 
; 768  : 			this->_Orphan_all();

  00097	8b ce		 mov	 ecx, esi
  00099	ff 15 00 00 00
	00		 call	 DWORD PTR __imp_?_Orphan_all@_Container_base0@std@@QAEXXZ

; 769  : 			this->_Myend = _Ptr + _Count;
; 770  : 			this->_Mylast = _Ptr + _Size;

  0009f	6b ff 14	 imul	 edi, 20			; 00000014H
  000a2	8b 45 08	 mov	 eax, DWORD PTR __Count$[ebp]
  000a5	8b 4d e8	 mov	 ecx, DWORD PTR __Ptr$570256[ebp]
  000a8	6b c0 14	 imul	 eax, 20			; 00000014H
  000ab	03 c1		 add	 eax, ecx
  000ad	03 f9		 add	 edi, ecx
  000af	89 46 08	 mov	 DWORD PTR [esi+8], eax
  000b2	89 7e 04	 mov	 DWORD PTR [esi+4], edi

; 771  : 			this->_Myfirst = _Ptr;

  000b5	89 0e		 mov	 DWORD PTR [esi], ecx
$LN3@reserve@4:

; 772  : 			}
; 773  : 		}

  000b7	e8 00 00 00 00	 call	 __EH_epilog3
  000bc	c2 04 00	 ret	 4
__catch$?reserve@?$vector@UBuffInfoStruct@@V?$allocator@UBuffInfoStruct@@@std@@@std@@QAEXI@Z$0:

; 755  : 			_CATCH_ALL
; 756  : 			this->_Alval.deallocate(_Ptr, _Count);

  000bf	ff 75 e8	 push	 DWORD PTR __Ptr$570256[ebp]
  000c2	e8 00 00 00 00	 call	 ??3@YAXPAX@Z		; operator delete
  000c7	59		 pop	 ecx

; 757  : 			_RERAISE;

  000c8	6a 00		 push	 0
  000ca	6a 00		 push	 0
  000cc	e8 00 00 00 00	 call	 __CxxThrowException@8
$LN63@reserve@4:
$LN61@reserve@4:
  000d1	cc		 int	 3
_TEXT	ENDS
;	COMDAT text$x
text$x	SEGMENT
__ehhandler$?reserve@?$vector@UBuffInfoStruct@@V?$allocator@UBuffInfoStruct@@@std@@@std@@QAEXI@Z:
  00000	8b 54 24 08	 mov	 edx, DWORD PTR [esp+8]
  00004	8d 42 0c	 lea	 eax, DWORD PTR [edx+12]
  00007	8b 4a e4	 mov	 ecx, DWORD PTR [edx-28]
  0000a	33 c8		 xor	 ecx, eax
  0000c	e8 00 00 00 00	 call	 @__security_check_cookie@4
  00011	b8 00 00 00 00	 mov	 eax, OFFSET __ehfuncinfo$?reserve@?$vector@UBuffInfoStruct@@V?$allocator@UBuffInfoStruct@@@std@@@std@@QAEXI@Z
  00016	e9 00 00 00 00	 jmp	 ___CxxFrameHandler3
text$x	ENDS
?reserve@?$vector@UBuffInfoStruct@@V?$allocator@UBuffInfoStruct@@@std@@@std@@QAEXI@Z ENDP ; std::vector<BuffInfoStruct,std::allocator<BuffInfoStruct> >::reserve
PUBLIC	??1?$vector@UWeaponMoveInfo@@V?$allocator@UWeaponMoveInfo@@@std@@@std@@QAE@XZ ; std::vector<WeaponMoveInfo,std::allocator<WeaponMoveInfo> >::~vector<WeaponMoveInfo,std::allocator<WeaponMoveInfo> >
; Function compile flags: /Ogsp
;	COMDAT ??1?$vector@UWeaponMoveInfo@@V?$allocator@UWeaponMoveInfo@@@std@@@std@@QAE@XZ
_TEXT	SEGMENT
??1?$vector@UWeaponMoveInfo@@V?$allocator@UWeaponMoveInfo@@@std@@@std@@QAE@XZ PROC ; std::vector<WeaponMoveInfo,std::allocator<WeaponMoveInfo> >::~vector<WeaponMoveInfo,std::allocator<WeaponMoveInfo> >, COMDAT
; _this$ = ecx

; 705  : 		_Tidy();

  00000	e9 00 00 00 00	 jmp	 ?_Tidy@?$vector@UWeaponMoveInfo@@V?$allocator@UWeaponMoveInfo@@@std@@@std@@IAEXXZ ; std::vector<WeaponMoveInfo,std::allocator<WeaponMoveInfo> >::_Tidy
??1?$vector@UWeaponMoveInfo@@V?$allocator@UWeaponMoveInfo@@@std@@@std@@QAE@XZ ENDP ; std::vector<WeaponMoveInfo,std::allocator<WeaponMoveInfo> >::~vector<WeaponMoveInfo,std::allocator<WeaponMoveInfo> >
_TEXT	ENDS
PUBLIC	?clear@?$vector@UWeaponMoveInfo@@V?$allocator@UWeaponMoveInfo@@@std@@@std@@QAEXXZ ; std::vector<WeaponMoveInfo,std::allocator<WeaponMoveInfo> >::clear
; Function compile flags: /Ogsp
;	COMDAT ?clear@?$vector@UWeaponMoveInfo@@V?$allocator@UWeaponMoveInfo@@@std@@@std@@QAEXXZ
_TEXT	SEGMENT
$T580946 = -4						; size = 4
?clear@?$vector@UWeaponMoveInfo@@V?$allocator@UWeaponMoveInfo@@@std@@@std@@QAEXXZ PROC ; std::vector<WeaponMoveInfo,std::allocator<WeaponMoveInfo> >::clear, COMDAT
; _this$ = ecx

; 1217 : 		{	// erase all

  00000	55		 push	 ebp
  00001	8b ec		 mov	 ebp, esp
  00003	51		 push	 ecx

; 1218 : 		erase(begin(), end());

  00004	8b 41 04	 mov	 eax, DWORD PTR [ecx+4]
  00007	8b 11		 mov	 edx, DWORD PTR [ecx]
  00009	50		 push	 eax
  0000a	52		 push	 edx
  0000b	8d 45 fc	 lea	 eax, DWORD PTR $T580946[ebp]
  0000e	50		 push	 eax
  0000f	e8 00 00 00 00	 call	 ?erase@?$vector@UWeaponMoveInfo@@V?$allocator@UWeaponMoveInfo@@@std@@@std@@QAE?AV?$_Vector_iterator@V?$_Vector_val@UWeaponMoveInfo@@V?$allocator@UWeaponMoveInfo@@@std@@@std@@@2@V?$_Vector_const_iterator@V?$_Vector_val@UWeaponMoveInfo@@V?$allocator@UWeaponMoveInfo@@@std@@@std@@@2@0@Z ; std::vector<WeaponMoveInfo,std::allocator<WeaponMoveInfo> >::erase

; 1219 : 		}

  00014	c9		 leave
  00015	c3		 ret	 0
?clear@?$vector@UWeaponMoveInfo@@V?$allocator@UWeaponMoveInfo@@@std@@@std@@QAEXXZ ENDP ; std::vector<WeaponMoveInfo,std::allocator<WeaponMoveInfo> >::clear
_TEXT	ENDS
PUBLIC	?_Reserve@?$vector@UWeaponInfo@@V?$allocator@UWeaponInfo@@@std@@@std@@IAEXI@Z ; std::vector<WeaponInfo,std::allocator<WeaponInfo> >::_Reserve
; Function compile flags: /Ogsp
;	COMDAT ?_Reserve@?$vector@UWeaponInfo@@V?$allocator@UWeaponInfo@@@std@@@std@@IAEXI@Z
_TEXT	SEGMENT
__Count$ = 8						; size = 4
?_Reserve@?$vector@UWeaponInfo@@V?$allocator@UWeaponInfo@@@std@@@std@@IAEXI@Z PROC ; std::vector<WeaponInfo,std::allocator<WeaponInfo> >::_Reserve, COMDAT
; _this$ = ecx

; 1290 : 		{	// ensure room for _Count new elements, grow exponentially

  00000	55		 push	 ebp
  00001	8b ec		 mov	 ebp, esp
  00003	56		 push	 esi
  00004	8b f1		 mov	 esi, ecx

; 1291 : 		size_type _Size = size();

  00006	8b 0e		 mov	 ecx, DWORD PTR [esi]
  00008	8b 46 04	 mov	 eax, DWORD PTR [esi+4]
  0000b	2b c1		 sub	 eax, ecx
  0000d	57		 push	 edi
  0000e	99		 cdq
  0000f	6a 28		 push	 40			; 00000028H
  00011	5f		 pop	 edi
  00012	f7 ff		 idiv	 edi
  00014	8b f8		 mov	 edi, eax

; 1292 : 		if (max_size() - _Count < _Size)

  00016	b8 66 66 66 06	 mov	 eax, 107374182		; 06666666H
  0001b	2b 45 08	 sub	 eax, DWORD PTR __Count$[ebp]
  0001e	3b c7		 cmp	 eax, edi
  00020	73 0b		 jae	 SHORT $LN4@Reserve@2

; 1293 : 			_Xlen();

  00022	68 00 00 00 00	 push	 OFFSET ??_C@_0BD@OLBABOEK@vector?$DMT?$DO?5too?5long?$AA@
  00027	ff 15 00 00 00
	00		 call	 DWORD PTR __imp_?_Xlength_error@std@@YAXPBD@Z
$LN21@Reserve@2:
$LN4@Reserve@2:

; 1294 : 		else if ((_Size += _Count) <= capacity())

  0002d	8b 46 08	 mov	 eax, DWORD PTR [esi+8]
  00030	2b c1		 sub	 eax, ecx
  00032	6a 28		 push	 40			; 00000028H
  00034	99		 cdq
  00035	59		 pop	 ecx
  00036	f7 f9		 idiv	 ecx
  00038	03 7d 08	 add	 edi, DWORD PTR __Count$[ebp]
  0003b	3b f8		 cmp	 edi, eax
  0003d	76 10		 jbe	 SHORT $LN1@Reserve@2

; 1295 : 			;
; 1296 : 		else
; 1297 : 			reserve(_Grow_to(_Size));

  0003f	57		 push	 edi
  00040	8b ce		 mov	 ecx, esi
  00042	e8 00 00 00 00	 call	 ?_Grow_to@?$vector@UWeaponInfo@@V?$allocator@UWeaponInfo@@@std@@@std@@IBEII@Z ; std::vector<WeaponInfo,std::allocator<WeaponInfo> >::_Grow_to
  00047	50		 push	 eax
  00048	8b ce		 mov	 ecx, esi
  0004a	e8 00 00 00 00	 call	 ?reserve@?$vector@UWeaponInfo@@V?$allocator@UWeaponInfo@@@std@@@std@@QAEXI@Z ; std::vector<WeaponInfo,std::allocator<WeaponInfo> >::reserve
$LN1@Reserve@2:
  0004f	5f		 pop	 edi
  00050	5e		 pop	 esi

; 1298 : 		}

  00051	5d		 pop	 ebp
  00052	c2 04 00	 ret	 4
$LN20@Reserve@2:
?_Reserve@?$vector@UWeaponInfo@@V?$allocator@UWeaponInfo@@@std@@@std@@IAEXI@Z ENDP ; std::vector<WeaponInfo,std::allocator<WeaponInfo> >::_Reserve
_TEXT	ENDS
PUBLIC	?_Reserve@?$vector@UBuffInfoStruct@@V?$allocator@UBuffInfoStruct@@@std@@@std@@IAEXI@Z ; std::vector<BuffInfoStruct,std::allocator<BuffInfoStruct> >::_Reserve
; Function compile flags: /Ogsp
;	COMDAT ?_Reserve@?$vector@UBuffInfoStruct@@V?$allocator@UBuffInfoStruct@@@std@@@std@@IAEXI@Z
_TEXT	SEGMENT
__Count$ = 8						; size = 4
?_Reserve@?$vector@UBuffInfoStruct@@V?$allocator@UBuffInfoStruct@@@std@@@std@@IAEXI@Z PROC ; std::vector<BuffInfoStruct,std::allocator<BuffInfoStruct> >::_Reserve, COMDAT
; _this$ = ecx

; 1290 : 		{	// ensure room for _Count new elements, grow exponentially

  00000	55		 push	 ebp
  00001	8b ec		 mov	 ebp, esp
  00003	56		 push	 esi
  00004	8b f1		 mov	 esi, ecx

; 1291 : 		size_type _Size = size();

  00006	8b 0e		 mov	 ecx, DWORD PTR [esi]
  00008	8b 46 04	 mov	 eax, DWORD PTR [esi+4]
  0000b	2b c1		 sub	 eax, ecx
  0000d	57		 push	 edi
  0000e	99		 cdq
  0000f	6a 14		 push	 20			; 00000014H
  00011	5f		 pop	 edi
  00012	f7 ff		 idiv	 edi
  00014	8b f8		 mov	 edi, eax

; 1292 : 		if (max_size() - _Count < _Size)

  00016	b8 cc cc cc 0c	 mov	 eax, 214748364		; 0cccccccH
  0001b	2b 45 08	 sub	 eax, DWORD PTR __Count$[ebp]
  0001e	3b c7		 cmp	 eax, edi
  00020	73 0b		 jae	 SHORT $LN4@Reserve@3

; 1293 : 			_Xlen();

  00022	68 00 00 00 00	 push	 OFFSET ??_C@_0BD@OLBABOEK@vector?$DMT?$DO?5too?5long?$AA@
  00027	ff 15 00 00 00
	00		 call	 DWORD PTR __imp_?_Xlength_error@std@@YAXPBD@Z
$LN21@Reserve@3:
$LN4@Reserve@3:

; 1294 : 		else if ((_Size += _Count) <= capacity())

  0002d	8b 46 08	 mov	 eax, DWORD PTR [esi+8]
  00030	2b c1		 sub	 eax, ecx
  00032	6a 14		 push	 20			; 00000014H
  00034	99		 cdq
  00035	59		 pop	 ecx
  00036	f7 f9		 idiv	 ecx
  00038	03 7d 08	 add	 edi, DWORD PTR __Count$[ebp]
  0003b	3b f8		 cmp	 edi, eax
  0003d	76 10		 jbe	 SHORT $LN1@Reserve@3

; 1295 : 			;
; 1296 : 		else
; 1297 : 			reserve(_Grow_to(_Size));

  0003f	57		 push	 edi
  00040	8b ce		 mov	 ecx, esi
  00042	e8 00 00 00 00	 call	 ?_Grow_to@?$vector@UBuffInfoStruct@@V?$allocator@UBuffInfoStruct@@@std@@@std@@IBEII@Z ; std::vector<BuffInfoStruct,std::allocator<BuffInfoStruct> >::_Grow_to
  00047	50		 push	 eax
  00048	8b ce		 mov	 ecx, esi
  0004a	e8 00 00 00 00	 call	 ?reserve@?$vector@UBuffInfoStruct@@V?$allocator@UBuffInfoStruct@@@std@@@std@@QAEXI@Z ; std::vector<BuffInfoStruct,std::allocator<BuffInfoStruct> >::reserve
$LN1@Reserve@3:
  0004f	5f		 pop	 edi
  00050	5e		 pop	 esi

; 1298 : 		}

  00051	5d		 pop	 ebp
  00052	c2 04 00	 ret	 4
$LN20@Reserve@3:
?_Reserve@?$vector@UBuffInfoStruct@@V?$allocator@UBuffInfoStruct@@@std@@@std@@IAEXI@Z ENDP ; std::vector<BuffInfoStruct,std::allocator<BuffInfoStruct> >::_Reserve
_TEXT	ENDS
PUBLIC	?_Reserve@?$vector@UWeaponMoveInfo@@V?$allocator@UWeaponMoveInfo@@@std@@@std@@IAEXI@Z ; std::vector<WeaponMoveInfo,std::allocator<WeaponMoveInfo> >::_Reserve
; Function compile flags: /Ogsp
;	COMDAT ?_Reserve@?$vector@UWeaponMoveInfo@@V?$allocator@UWeaponMoveInfo@@@std@@@std@@IAEXI@Z
_TEXT	SEGMENT
__Count$ = 8						; size = 4
?_Reserve@?$vector@UWeaponMoveInfo@@V?$allocator@UWeaponMoveInfo@@@std@@@std@@IAEXI@Z PROC ; std::vector<WeaponMoveInfo,std::allocator<WeaponMoveInfo> >::_Reserve, COMDAT
; _this$ = ecx

; 1290 : 		{	// ensure room for _Count new elements, grow exponentially

  00000	55		 push	 ebp
  00001	8b ec		 mov	 ebp, esp
  00003	56		 push	 esi
  00004	8b f1		 mov	 esi, ecx

; 1291 : 		size_type _Size = size();

  00006	8b 0e		 mov	 ecx, DWORD PTR [esi]
  00008	8b 46 04	 mov	 eax, DWORD PTR [esi+4]
  0000b	2b c1		 sub	 eax, ecx
  0000d	57		 push	 edi
  0000e	99		 cdq
  0000f	6a 14		 push	 20			; 00000014H
  00011	5f		 pop	 edi
  00012	f7 ff		 idiv	 edi
  00014	8b f8		 mov	 edi, eax

; 1292 : 		if (max_size() - _Count < _Size)

  00016	b8 cc cc cc 0c	 mov	 eax, 214748364		; 0cccccccH
  0001b	2b 45 08	 sub	 eax, DWORD PTR __Count$[ebp]
  0001e	3b c7		 cmp	 eax, edi
  00020	73 0b		 jae	 SHORT $LN4@Reserve@4

; 1293 : 			_Xlen();

  00022	68 00 00 00 00	 push	 OFFSET ??_C@_0BD@OLBABOEK@vector?$DMT?$DO?5too?5long?$AA@
  00027	ff 15 00 00 00
	00		 call	 DWORD PTR __imp_?_Xlength_error@std@@YAXPBD@Z
$LN21@Reserve@4:
$LN4@Reserve@4:

; 1294 : 		else if ((_Size += _Count) <= capacity())

  0002d	8b 46 08	 mov	 eax, DWORD PTR [esi+8]
  00030	2b c1		 sub	 eax, ecx
  00032	6a 14		 push	 20			; 00000014H
  00034	99		 cdq
  00035	59		 pop	 ecx
  00036	f7 f9		 idiv	 ecx
  00038	03 7d 08	 add	 edi, DWORD PTR __Count$[ebp]
  0003b	3b f8		 cmp	 edi, eax
  0003d	76 10		 jbe	 SHORT $LN1@Reserve@4

; 1295 : 			;
; 1296 : 		else
; 1297 : 			reserve(_Grow_to(_Size));

  0003f	57		 push	 edi
  00040	8b ce		 mov	 ecx, esi
  00042	e8 00 00 00 00	 call	 ?_Grow_to@?$vector@UWeaponMoveInfo@@V?$allocator@UWeaponMoveInfo@@@std@@@std@@IBEII@Z ; std::vector<WeaponMoveInfo,std::allocator<WeaponMoveInfo> >::_Grow_to
  00047	50		 push	 eax
  00048	8b ce		 mov	 ecx, esi
  0004a	e8 00 00 00 00	 call	 ?reserve@?$vector@UWeaponMoveInfo@@V?$allocator@UWeaponMoveInfo@@@std@@@std@@QAEXI@Z ; std::vector<WeaponMoveInfo,std::allocator<WeaponMoveInfo> >::reserve
$LN1@Reserve@4:
  0004f	5f		 pop	 edi
  00050	5e		 pop	 esi

; 1298 : 		}

  00051	5d		 pop	 ebp
  00052	c2 04 00	 ret	 4
$LN20@Reserve@4:
?_Reserve@?$vector@UWeaponMoveInfo@@V?$allocator@UWeaponMoveInfo@@@std@@@std@@IAEXI@Z ENDP ; std::vector<WeaponMoveInfo,std::allocator<WeaponMoveInfo> >::_Reserve
_TEXT	ENDS
PUBLIC	??1?$vector@UForceInfo@@V?$allocator@UForceInfo@@@std@@@std@@QAE@XZ ; std::vector<ForceInfo,std::allocator<ForceInfo> >::~vector<ForceInfo,std::allocator<ForceInfo> >
; Function compile flags: /Ogsp
;	COMDAT ??1?$vector@UForceInfo@@V?$allocator@UForceInfo@@@std@@@std@@QAE@XZ
_TEXT	SEGMENT
??1?$vector@UForceInfo@@V?$allocator@UForceInfo@@@std@@@std@@QAE@XZ PROC ; std::vector<ForceInfo,std::allocator<ForceInfo> >::~vector<ForceInfo,std::allocator<ForceInfo> >, COMDAT
; _this$ = ecx

; 705  : 		_Tidy();

  00000	e9 00 00 00 00	 jmp	 ?_Tidy@?$vector@UForceInfo@@V?$allocator@UForceInfo@@@std@@@std@@IAEXXZ ; std::vector<ForceInfo,std::allocator<ForceInfo> >::_Tidy
??1?$vector@UForceInfo@@V?$allocator@UForceInfo@@@std@@@std@@QAE@XZ ENDP ; std::vector<ForceInfo,std::allocator<ForceInfo> >::~vector<ForceInfo,std::allocator<ForceInfo> >
_TEXT	ENDS
PUBLIC	??1?$vector@UBuffInfoStruct@@V?$allocator@UBuffInfoStruct@@@std@@@std@@QAE@XZ ; std::vector<BuffInfoStruct,std::allocator<BuffInfoStruct> >::~vector<BuffInfoStruct,std::allocator<BuffInfoStruct> >
; Function compile flags: /Ogsp
;	COMDAT ??1?$vector@UBuffInfoStruct@@V?$allocator@UBuffInfoStruct@@@std@@@std@@QAE@XZ
_TEXT	SEGMENT
??1?$vector@UBuffInfoStruct@@V?$allocator@UBuffInfoStruct@@@std@@@std@@QAE@XZ PROC ; std::vector<BuffInfoStruct,std::allocator<BuffInfoStruct> >::~vector<BuffInfoStruct,std::allocator<BuffInfoStruct> >, COMDAT
; _this$ = ecx

; 705  : 		_Tidy();

  00000	e9 00 00 00 00	 jmp	 ?_Tidy@?$vector@UBuffInfoStruct@@V?$allocator@UBuffInfoStruct@@@std@@@std@@IAEXXZ ; std::vector<BuffInfoStruct,std::allocator<BuffInfoStruct> >::_Tidy
??1?$vector@UBuffInfoStruct@@V?$allocator@UBuffInfoStruct@@@std@@@std@@QAE@XZ ENDP ; std::vector<BuffInfoStruct,std::allocator<BuffInfoStruct> >::~vector<BuffInfoStruct,std::allocator<BuffInfoStruct> >
_TEXT	ENDS
PUBLIC	?_Tidy@?$vector@UWeaponInfo@@V?$allocator@UWeaponInfo@@@std@@@std@@IAEXXZ ; std::vector<WeaponInfo,std::allocator<WeaponInfo> >::_Tidy
; Function compile flags: /Ogsp
;	COMDAT ?_Tidy@?$vector@UWeaponInfo@@V?$allocator@UWeaponInfo@@@std@@@std@@IAEXXZ
_TEXT	SEGMENT
?_Tidy@?$vector@UWeaponInfo@@V?$allocator@UWeaponInfo@@@std@@@std@@IAEXXZ PROC ; std::vector<WeaponInfo,std::allocator<WeaponInfo> >::_Tidy, COMDAT
; _this$ = ecx

; 1301 : 		{	// free all storage

  00000	56		 push	 esi
  00001	8b f1		 mov	 esi, ecx

; 1302 : 		if (this->_Myfirst != 0)

  00003	83 3e 00	 cmp	 DWORD PTR [esi], 0
  00006	74 1e		 je	 SHORT $LN6@Tidy@4

; 1303 : 			{	// something to free, destroy and deallocate it
; 1304 : 			this->_Orphan_all();

  00008	ff 15 00 00 00
	00		 call	 DWORD PTR __imp_?_Orphan_all@_Container_base0@std@@QAEXXZ

; 1305 : 			_Destroy(this->_Myfirst, this->_Mylast);

  0000e	8d 46 0c	 lea	 eax, DWORD PTR [esi+12]
  00011	50		 push	 eax
  00012	ff 76 04	 push	 DWORD PTR [esi+4]
  00015	ff 36		 push	 DWORD PTR [esi]
  00017	e8 00 00 00 00	 call	 ??$_Destroy_range@V?$allocator@UWeaponInfo@@@std@@@std@@YAXPAUWeaponInfo@@0AAV?$allocator@UWeaponInfo@@@0@@Z ; std::_Destroy_range<std::allocator<WeaponInfo> >

; 1306 : 			this->_Alval.deallocate(this->_Myfirst,
; 1307 : 				this->_Myend - this->_Myfirst);

  0001c	ff 36		 push	 DWORD PTR [esi]
  0001e	e8 00 00 00 00	 call	 ??3@YAXPAX@Z		; operator delete
  00023	83 c4 10	 add	 esp, 16			; 00000010H
$LN6@Tidy@4:

; 1308 : 			}
; 1309 : 		this->_Myfirst = 0;

  00026	83 26 00	 and	 DWORD PTR [esi], 0

; 1310 : 		this->_Mylast = 0;

  00029	83 66 04 00	 and	 DWORD PTR [esi+4], 0

; 1311 : 		this->_Myend = 0;

  0002d	83 66 08 00	 and	 DWORD PTR [esi+8], 0
  00031	5e		 pop	 esi

; 1312 : 		}

  00032	c3		 ret	 0
?_Tidy@?$vector@UWeaponInfo@@V?$allocator@UWeaponInfo@@@std@@@std@@IAEXXZ ENDP ; std::vector<WeaponInfo,std::allocator<WeaponInfo> >::_Tidy
_TEXT	ENDS
PUBLIC	?erase@?$vector@UBuffInfoStruct@@V?$allocator@UBuffInfoStruct@@@std@@@std@@QAE?AV?$_Vector_iterator@V?$_Vector_val@UBuffInfoStruct@@V?$allocator@UBuffInfoStruct@@@std@@@std@@@2@V?$_Vector_const_iterator@V?$_Vector_val@UBuffInfoStruct@@V?$allocator@UBuffInfoStruct@@@std@@@std@@@2@0@Z ; std::vector<BuffInfoStruct,std::allocator<BuffInfoStruct> >::erase
; Function compile flags: /Ogsp
;	COMDAT ?erase@?$vector@UBuffInfoStruct@@V?$allocator@UBuffInfoStruct@@@std@@@std@@QAE?AV?$_Vector_iterator@V?$_Vector_val@UBuffInfoStruct@@V?$allocator@UBuffInfoStruct@@@std@@@std@@@2@V?$_Vector_const_iterator@V?$_Vector_val@UBuffInfoStruct@@V?$allocator@UBuffInfoStruct@@@std@@@std@@@2@0@Z
_TEXT	SEGMENT
$T581258 = -4						; size = 4
___$ReturnUdt$ = 8					; size = 4
__First_arg$ = 12					; size = 4
__Cat$581188 = 16					; size = 1
__Last_arg$ = 16					; size = 4
?erase@?$vector@UBuffInfoStruct@@V?$allocator@UBuffInfoStruct@@@std@@@std@@QAE?AV?$_Vector_iterator@V?$_Vector_val@UBuffInfoStruct@@V?$allocator@UBuffInfoStruct@@@std@@@std@@@2@V?$_Vector_const_iterator@V?$_Vector_val@UBuffInfoStruct@@V?$allocator@UBuffInfoStruct@@@std@@@std@@@2@0@Z PROC ; std::vector<BuffInfoStruct,std::allocator<BuffInfoStruct> >::erase, COMDAT
; _this$ = ecx

; 1190 : 		{	// erase [_First, _Last)

  00000	55		 push	 ebp
  00001	8b ec		 mov	 ebp, esp
  00003	51		 push	 ecx

; 1191 : 		iterator _First = _Make_iter(_First_arg);

  00004	8b 45 08	 mov	 eax, DWORD PTR ___$ReturnUdt$[ebp]
  00007	56		 push	 esi
  00008	8b f1		 mov	 esi, ecx
  0000a	8b 4d 0c	 mov	 ecx, DWORD PTR __First_arg$[ebp]
  0000d	89 08		 mov	 DWORD PTR [eax], ecx

; 1192 : 		iterator _Last = _Make_iter(_Last_arg);
; 1193 : 
; 1194 : 		if (_First != _Last)

  0000f	3b 4d 10	 cmp	 ecx, DWORD PTR __Last_arg$[ebp]
  00012	74 38		 je	 SHORT $LN1@erase@4

; 1195 : 			{	// worth doing, copy down over hole
; 1196 :  #if _ITERATOR_DEBUG_LEVEL == 2
; 1197 : 			if (_Last < _First || _VICONT(_First) != this
; 1198 : 				|| _VIPTR(_First) < this->_Myfirst
; 1199 : 				|| this->_Mylast < _VIPTR(_Last))
; 1200 : 				_DEBUG_ERROR("vector erase iterator outside range");
; 1201 : 			pointer _Ptr = _Move(_VIPTR(_Last), this->_Mylast,
; 1202 : 				_VIPTR(_First));
; 1203 : 			_Orphan_range(_VIPTR(_First), this->_Mylast);
; 1204 : 
; 1205 :  #else /* _ITERATOR_DEBUG_LEVEL == 2 */
; 1206 : 			pointer _Ptr = _Move(_VIPTR(_Last), this->_Mylast,
; 1207 : 				_VIPTR(_First));

  00014	8b 46 04	 mov	 eax, DWORD PTR [esi+4]
  00017	53		 push	 ebx
  00018	57		 push	 edi
  00019	ff 75 10	 push	 DWORD PTR __Cat$581188[ebp]
  0001c	51		 push	 ecx
  0001d	50		 push	 eax
  0001e	ff 75 10	 push	 DWORD PTR __Last_arg$[ebp]
  00021	e8 00 00 00 00	 call	 ??$_Move@PAUBuffInfoStruct@@PAU1@@std@@YAPAUBuffInfoStruct@@PAU1@00U_Nonscalar_ptr_iterator_tag@0@@Z ; std::_Move<BuffInfoStruct *,BuffInfoStruct *>

; 1208 :  #endif /* _ITERATOR_DEBUG_LEVEL == 2 */
; 1209 : 
; 1210 : 			_Destroy(_Ptr, this->_Mylast);

  00026	8b 7e 04	 mov	 edi, DWORD PTR [esi+4]
  00029	8b d8		 mov	 ebx, eax
  0002b	83 c4 10	 add	 esp, 16			; 00000010H
  0002e	89 5d fc	 mov	 DWORD PTR $T581258[ebp], ebx
  00031	3b df		 cmp	 ebx, edi
  00033	74 12		 je	 SHORT $LN36@erase@4
$LL55@erase@4:
  00035	8b 4d fc	 mov	 ecx, DWORD PTR $T581258[ebp]
  00038	ff 15 00 00 00
	00		 call	 DWORD PTR __imp_??1ioHashString@@QAE@XZ
  0003e	83 45 fc 14	 add	 DWORD PTR $T581258[ebp], 20 ; 00000014H
  00042	39 7d fc	 cmp	 DWORD PTR $T581258[ebp], edi
  00045	75 ee		 jne	 SHORT $LL55@erase@4
$LN36@erase@4:

; 1211 : 			this->_Mylast = _Ptr;

  00047	5f		 pop	 edi
  00048	89 5e 04	 mov	 DWORD PTR [esi+4], ebx
  0004b	5b		 pop	 ebx
$LN1@erase@4:

; 1212 : 			}
; 1213 : 		return (_First);

  0004c	8b 45 08	 mov	 eax, DWORD PTR ___$ReturnUdt$[ebp]
  0004f	5e		 pop	 esi

; 1214 : 		}

  00050	c9		 leave
  00051	c2 0c 00	 ret	 12			; 0000000cH
?erase@?$vector@UBuffInfoStruct@@V?$allocator@UBuffInfoStruct@@@std@@@std@@QAE?AV?$_Vector_iterator@V?$_Vector_val@UBuffInfoStruct@@V?$allocator@UBuffInfoStruct@@@std@@@std@@@2@V?$_Vector_const_iterator@V?$_Vector_val@UBuffInfoStruct@@V?$allocator@UBuffInfoStruct@@@std@@@std@@@2@0@Z ENDP ; std::vector<BuffInfoStruct,std::allocator<BuffInfoStruct> >::erase
_TEXT	ENDS
PUBLIC	?clear@?$vector@UWeaponInfo@@V?$allocator@UWeaponInfo@@@std@@@std@@QAEXXZ ; std::vector<WeaponInfo,std::allocator<WeaponInfo> >::clear
; Function compile flags: /Ogsp
;	COMDAT ?clear@?$vector@UWeaponInfo@@V?$allocator@UWeaponInfo@@@std@@@std@@QAEXXZ
_TEXT	SEGMENT
$T581315 = -4						; size = 4
?clear@?$vector@UWeaponInfo@@V?$allocator@UWeaponInfo@@@std@@@std@@QAEXXZ PROC ; std::vector<WeaponInfo,std::allocator<WeaponInfo> >::clear, COMDAT
; _this$ = ecx

; 1217 : 		{	// erase all

  00000	55		 push	 ebp
  00001	8b ec		 mov	 ebp, esp
  00003	51		 push	 ecx

; 1218 : 		erase(begin(), end());

  00004	8b 41 04	 mov	 eax, DWORD PTR [ecx+4]
  00007	8b 11		 mov	 edx, DWORD PTR [ecx]
  00009	50		 push	 eax
  0000a	52		 push	 edx
  0000b	8d 45 fc	 lea	 eax, DWORD PTR $T581315[ebp]
  0000e	50		 push	 eax
  0000f	e8 00 00 00 00	 call	 ?erase@?$vector@UWeaponInfo@@V?$allocator@UWeaponInfo@@@std@@@std@@QAE?AV?$_Vector_iterator@V?$_Vector_val@UWeaponInfo@@V?$allocator@UWeaponInfo@@@std@@@std@@@2@V?$_Vector_const_iterator@V?$_Vector_val@UWeaponInfo@@V?$allocator@UWeaponInfo@@@std@@@std@@@2@0@Z ; std::vector<WeaponInfo,std::allocator<WeaponInfo> >::erase

; 1219 : 		}

  00014	c9		 leave
  00015	c3		 ret	 0
?clear@?$vector@UWeaponInfo@@V?$allocator@UWeaponInfo@@@std@@@std@@QAEXXZ ENDP ; std::vector<WeaponInfo,std::allocator<WeaponInfo> >::clear
_TEXT	ENDS
PUBLIC	?OnSkillStart@ioCircleMoveWeaponSkill@@UAE_NPAVioBaseChar@@@Z ; ioCircleMoveWeaponSkill::OnSkillStart
EXTRN	?SetSkillNameChatBubble@ioSkill@@IAEXPAVioBaseChar@@@Z:PROC ; ioSkill::SetSkillNameChatBubble
EXTRN	?CheckSkillDesc@ioSkill@@IAEXPAVioBaseChar@@@Z:PROC ; ioSkill::CheckSkillDesc
EXTRN	?SetCameraBuff@ioSkill@@IAEXPAVioBaseChar@@@Z:PROC ; ioSkill::SetCameraBuff
EXTRN	?SetSkillProtection@ioBaseChar@@QAEXXZ:PROC	; ioBaseChar::SetSkillProtection
EXTRN	?IncreaseWeaponIndexBase@ioBaseChar@@QAEKXZ:PROC ; ioBaseChar::IncreaseWeaponIndexBase
; Function compile flags: /Ogsp
; File d:\lost saga for developer\youtube\tutorial\source\src\lsclient\iocirclemoveweaponskill.cpp
;	COMDAT ?OnSkillStart@ioCircleMoveWeaponSkill@@UAE_NPAVioBaseChar@@@Z
_TEXT	SEGMENT
_value$581455 = -4					; size = 4
_value$581450 = -4					; size = 4
$T581430 = -4						; size = 4
_value$581472 = 8					; size = 4
_pChar$ = 8						; size = 4
_value$581459 = 11					; size = 1
?OnSkillStart@ioCircleMoveWeaponSkill@@UAE_NPAVioBaseChar@@@Z PROC ; ioCircleMoveWeaponSkill::OnSkillStart, COMDAT
; _this$ = ecx

; 199  : {	

  00000	55		 push	 ebp
  00001	8b ec		 mov	 ebp, esp
  00003	51		 push	 ecx
  00004	53		 push	 ebx
  00005	8b d9		 mov	 ebx, ecx

; 200  : 	if( !HasSkillMotion() )

  00007	8b 03		 mov	 eax, DWORD PTR [ebx]
  00009	ff 90 24 01 00
	00		 call	 DWORD PTR [eax+292]
  0000f	84 c0		 test	 al, al
  00011	0f 84 5d 01 00
	00		 je	 $LN7@OnSkillSta
$LN6@OnSkillSta:

; 201  : 		return false;
; 202  : 
; 203  : 	m_vAttackDir = ioMath::VEC3_ZERO;
; 204  : 	m_fMoveRange = 0;

  00017	0f 57 c0	 xorps	 xmm0, xmm0
  0001a	56		 push	 esi
  0001b	8b 35 00 00 00
	00		 mov	 esi, DWORD PTR __imp_?VEC3_ZERO@ioMath@@2UD3DXVECTOR3@@A
  00021	57		 push	 edi
  00022	8d bb f8 0f 00
	00		 lea	 edi, DWORD PTR [ebx+4088]
  00028	a5		 movsd
  00029	a5		 movsd
  0002a	a5		 movsd

; 205  : 
; 206  : 	m_iCurWeaponCnt = 0;
; 207  : 	m_vWeaponMoveInfoList.clear();

  0002b	8d 8b 04 11 00
	00		 lea	 ecx, DWORD PTR [ebx+4356]
  00031	f3 0f 11 83 04
	10 00 00	 movss	 DWORD PTR [ebx+4100], xmm0
  00039	33 ff		 xor	 edi, edi
  0003b	89 bb 70 10 00
	00		 mov	 DWORD PTR [ebx+4208], edi
  00041	8b 41 04	 mov	 eax, DWORD PTR [ecx+4]
  00044	8b 11		 mov	 edx, DWORD PTR [ecx]
  00046	50		 push	 eax
  00047	52		 push	 edx
  00048	8d 45 fc	 lea	 eax, DWORD PTR $T581430[ebp]
  0004b	50		 push	 eax
  0004c	e8 00 00 00 00	 call	 ?erase@?$vector@UWeaponMoveInfo@@V?$allocator@UWeaponMoveInfo@@@std@@@std@@QAE?AV?$_Vector_iterator@V?$_Vector_val@UWeaponMoveInfo@@V?$allocator@UWeaponMoveInfo@@@std@@@std@@@2@V?$_Vector_const_iterator@V?$_Vector_val@UWeaponMoveInfo@@V?$allocator@UWeaponMoveInfo@@@std@@@std@@@2@0@Z ; std::vector<WeaponMoveInfo,std::allocator<WeaponMoveInfo> >::erase

; 208  : 
; 209  : 	m_dwEnableSwitchTime = 0;
; 210  : 	m_dwEnableSemiSwitchTime = 0;
; 211  : 
; 212  : 	if( m_dwSwitchSkill > 0 )

  00051	39 bb 58 03 00
	00		 cmp	 DWORD PTR [ebx+856], edi
  00057	89 bb 5c 03 00
	00		 mov	 DWORD PTR [ebx+860], edi
  0005d	89 bb 64 03 00
	00		 mov	 DWORD PTR [ebx+868], edi
  00063	8b 3d 00 00 00
	00		 mov	 edi, DWORD PTR __imp_?GetSingleton@ioFrameTimer@@SAAAV1@XZ
  00069	76 16		 jbe	 SHORT $LN5@OnSkillSta

; 213  : 		m_dwEnableSwitchTime = FRAMEGETTIME() + m_dwSwitchSkill;

  0006b	ff d7		 call	 edi
  0006d	8b c8		 mov	 ecx, eax
  0006f	ff 15 00 00 00
	00		 call	 DWORD PTR __imp_?GetLoopSec@ioFrameTimer@@QBEKXZ
  00075	03 83 58 03 00
	00		 add	 eax, DWORD PTR [ebx+856]
  0007b	89 83 5c 03 00
	00		 mov	 DWORD PTR [ebx+860], eax
$LN5@OnSkillSta:

; 214  : 	if( m_dwSemiSwitchSkill > 0 )

  00081	83 bb 60 03 00
	00 00		 cmp	 DWORD PTR [ebx+864], 0
  00088	76 16		 jbe	 SHORT $LN4@OnSkillSta

; 215  : 		m_dwEnableSemiSwitchTime = FRAMEGETTIME() + m_dwSemiSwitchSkill;

  0008a	ff d7		 call	 edi
  0008c	8b c8		 mov	 ecx, eax
  0008e	ff 15 00 00 00
	00		 call	 DWORD PTR __imp_?GetLoopSec@ioFrameTimer@@QBEKXZ
  00094	03 83 60 03 00
	00		 add	 eax, DWORD PTR [ebx+864]
  0009a	89 83 64 03 00
	00		 mov	 DWORD PTR [ebx+868], eax
$LN4@OnSkillSta:

; 216  : 
; 217  : 	m_dwSkillStartTime = FRAMEGETTIME();

  000a0	ff d7		 call	 edi
  000a2	8b c8		 mov	 ecx, eax
  000a4	ff 15 00 00 00
	00		 call	 DWORD PTR __imp_?GetLoopSec@ioFrameTimer@@QBEKXZ
  000aa	89 45 fc	 mov	 DWORD PTR _value$581450[ebp], eax
  000ad	8d 45 fc	 lea	 eax, DWORD PTR _value$581450[ebp]
  000b0	50		 push	 eax
  000b1	8d 8b 94 0e 00
	00		 lea	 ecx, DWORD PTR [ebx+3732]
  000b7	e8 00 00 00 00	 call	 ?EncryptValueToPool@?$CEncrypt@K@@AAEXPBD@Z ; CEncrypt<unsigned long>::EncryptValueToPool

; 218  : 	m_dwCurSkillProtectedTime = m_dwSkillStartTime;

  000bc	8d 45 fc	 lea	 eax, DWORD PTR _value$581455[ebp]
  000bf	50		 push	 eax
  000c0	8d 8b 94 0e 00
	00		 lea	 ecx, DWORD PTR [ebx+3732]
  000c6	e8 00 00 00 00	 call	 ?DecryptValueToPool@?$CEncrypt@K@@QAEXPAK@Z ; CEncrypt<unsigned long>::DecryptValueToPool
  000cb	8b 45 fc	 mov	 eax, DWORD PTR _value$581455[ebp]

; 219  : 
; 220  : 	pChar->AttachEffect( m_SkillEffectName );

  000ce	8b 7d 08	 mov	 edi, DWORD PTR _pChar$[ebp]
  000d1	6a 01		 push	 1
  000d3	89 83 28 11 00
	00		 mov	 DWORD PTR [ebx+4392], eax
  000d9	33 f6		 xor	 esi, esi
  000db	56		 push	 esi
  000dc	8d 83 b8 01 00
	00		 lea	 eax, DWORD PTR [ebx+440]
  000e2	50		 push	 eax
  000e3	8b cf		 mov	 ecx, edi
  000e5	e8 00 00 00 00	 call	 ?AttachEffect@ioBaseChar@@QAEPAVioEffect@@ABVioHashString@@PAVioEntityEvent@@_N@Z ; ioBaseChar::AttachEffect

; 221  : 
; 222  : 	//    
; 223  : 	if( m_bUseItemMesh )

  000ea	80 bb 08 0f 00
	00 00		 cmp	 BYTE PTR [ebx+3848], 0
  000f1	74 09		 je	 SHORT $LN3@OnSkillSta

; 224  : 	{
; 225  : 		pChar->ShowWeaponItemMesh( false );

  000f3	56		 push	 esi
  000f4	56		 push	 esi
  000f5	8b cf		 mov	 ecx, edi
  000f7	e8 00 00 00 00	 call	 ?ShowWeaponItemMesh@ioBaseChar@@QAEX_N0@Z ; ioBaseChar::ShowWeaponItemMesh
$LN3@OnSkillSta:

; 226  : 	}
; 227  : 
; 228  : 	if( !StartPreDelayAnimation( pChar ) )	// Delay Animation 

  000fc	8b 03		 mov	 eax, DWORD PTR [ebx]
  000fe	57		 push	 edi
  000ff	8b cb		 mov	 ecx, ebx
  00101	ff 90 88 01 00
	00		 call	 DWORD PTR [eax+392]
  00107	84 c0		 test	 al, al
  00109	74 67		 je	 SHORT $LN39@OnSkillSta
$LN2@OnSkillSta:

; 229  : 		return false;
; 230  : 
; 231  : 	m_dwWeaponBaseIndex = pChar->IncreaseWeaponIndexBase();

  0010b	8b cf		 mov	 ecx, edi
  0010d	e8 00 00 00 00	 call	 ?IncreaseWeaponIndexBase@ioBaseChar@@QAEKXZ ; ioBaseChar::IncreaseWeaponIndexBase

; 232  : 
; 233  : 	pChar->SetSkillProtection();

  00112	8b cf		 mov	 ecx, edi
  00114	89 43 78	 mov	 DWORD PTR [ebx+120], eax
  00117	e8 00 00 00 00	 call	 ?SetSkillProtection@ioBaseChar@@QAEXXZ ; ioBaseChar::SetSkillProtection

; 234  : 
; 235  : 	SetWaitState( pChar );

  0011c	57		 push	 edi
  0011d	8b cb		 mov	 ecx, ebx
  0011f	e8 00 00 00 00	 call	 ?SetWaitState@ioCircleMoveWeaponSkill@@IAEXPAVioBaseChar@@@Z ; ioCircleMoveWeaponSkill::SetWaitState

; 236  : 
; 237  : 	SetCameraBuff( pChar );

  00124	57		 push	 edi
  00125	8b cb		 mov	 ecx, ebx
  00127	e8 00 00 00 00	 call	 ?SetCameraBuff@ioSkill@@IAEXPAVioBaseChar@@@Z ; ioSkill::SetCameraBuff

; 238  : 
; 239  : 	CheckSkillDesc( pChar );

  0012c	57		 push	 edi
  0012d	8b cb		 mov	 ecx, ebx
  0012f	e8 00 00 00 00	 call	 ?CheckSkillDesc@ioSkill@@IAEXPAVioBaseChar@@@Z ; ioSkill::CheckSkillDesc

; 240  : 
; 241  : 	if( m_bInitJumpPower )

  00134	8d 45 0b	 lea	 eax, DWORD PTR _value$581459[ebp]
  00137	50		 push	 eax
  00138	8d 8b f4 05 00
	00		 lea	 ecx, DWORD PTR [ebx+1524]
  0013e	e8 00 00 00 00	 call	 ?DecryptValueToPool@?$CEncrypt@_N@@QAEXPA_N@Z ; CEncrypt<bool>::DecryptValueToPool
  00143	80 7d 0b 00	 cmp	 BYTE PTR _value$581459[ebp], 0
  00147	74 1f		 je	 SHORT $LN37@OnSkillSta

; 242  : 	{
; 243  : 		pChar->SetCurJumpPowerAmt( 0.0f );

  00149	0f 57 c0	 xorps	 xmm0, xmm0

; 244  : 		pChar->SetGravityAmt( 0.0f );

  0014c	8d 45 08	 lea	 eax, DWORD PTR _value$581472[ebp]
  0014f	50		 push	 eax
  00150	8d 8f e8 0b 00
	00		 lea	 ecx, DWORD PTR [edi+3048]
  00156	f3 0f 11 87 90
	0e 00 00	 movss	 DWORD PTR [edi+3728], xmm0
  0015e	f3 0f 11 45 08	 movss	 DWORD PTR _value$581472[ebp], xmm0
  00163	e8 00 00 00 00	 call	 ?EncryptValueToPool@?$CEncrypt@M@@AAEXPBD@Z ; CEncrypt<float>::EncryptValueToPool
$LN37@OnSkillSta:

; 245  : 	}
; 246  : 
; 247  : 	SetSkillNameChatBubble( pChar );

  00168	57		 push	 edi
  00169	8b cb		 mov	 ecx, ebx
  0016b	e8 00 00 00 00	 call	 ?SetSkillNameChatBubble@ioSkill@@IAEXPAVioBaseChar@@@Z ; ioSkill::SetSkillNameChatBubble

; 248  : 
; 249  : 	return true;

  00170	b0 01		 mov	 al, 1
$LN39@OnSkillSta:
  00172	5f		 pop	 edi
  00173	5e		 pop	 esi
$LN7@OnSkillSta:
  00174	5b		 pop	 ebx

; 250  : }

  00175	c9		 leave
  00176	c2 04 00	 ret	 4
?OnSkillStart@ioCircleMoveWeaponSkill@@UAE_NPAVioBaseChar@@@Z ENDP ; ioCircleMoveWeaponSkill::OnSkillStart
_TEXT	ENDS
PUBLIC	??0?$vector@UWeaponInfo@@V?$allocator@UWeaponInfo@@@std@@@std@@QAE@ABV01@@Z ; std::vector<WeaponInfo,std::allocator<WeaponInfo> >::vector<WeaponInfo,std::allocator<WeaponInfo> >
;	COMDAT xdata$x
; File c:\program files (x86)\microsoft visual studio 10.0\vc\include\xutility
xdata$x	SEGMENT
__catchsym$??0?$vector@UWeaponInfo@@V?$allocator@UWeaponInfo@@@std@@@std@@QAE@ABV01@@Z$2 DD 040H
	DD	00H
	DD	00H
	DD	FLAT:__catch$??0?$vector@UWeaponInfo@@V?$allocator@UWeaponInfo@@@std@@@std@@QAE@ABV01@@Z$0
__unwindtable$??0?$vector@UWeaponInfo@@V?$allocator@UWeaponInfo@@@std@@@std@@QAE@ABV01@@Z DD 0ffffffffH
	DD	00H
	DD	0ffffffffH
	DD	00H
__tryblocktable$??0?$vector@UWeaponInfo@@V?$allocator@UWeaponInfo@@@std@@@std@@QAE@ABV01@@Z DD 00H
	DD	00H
	DD	01H
	DD	01H
	DD	FLAT:__catchsym$??0?$vector@UWeaponInfo@@V?$allocator@UWeaponInfo@@@std@@@std@@QAE@ABV01@@Z$2
__ehfuncinfo$??0?$vector@UWeaponInfo@@V?$allocator@UWeaponInfo@@@std@@@std@@QAE@ABV01@@Z DD 019930522H
	DD	02H
	DD	FLAT:__unwindtable$??0?$vector@UWeaponInfo@@V?$allocator@UWeaponInfo@@@std@@@std@@QAE@ABV01@@Z
	DD	01H
	DD	FLAT:__tryblocktable$??0?$vector@UWeaponInfo@@V?$allocator@UWeaponInfo@@@std@@@std@@QAE@ABV01@@Z
	DD	2 DUP(00H)
	DD	00H
	DD	01H
; Function compile flags: /Ogsp
; File c:\program files (x86)\microsoft visual studio 10.0\vc\include\vector
xdata$x	ENDS
;	COMDAT ??0?$vector@UWeaponInfo@@V?$allocator@UWeaponInfo@@@std@@@std@@QAE@ABV01@@Z
_TEXT	SEGMENT
_this$ = -20						; size = 4
__$EHRec$ = -16						; size = 16
__Cat$581554 = 8					; size = 1
__Right$ = 8						; size = 4
??0?$vector@UWeaponInfo@@V?$allocator@UWeaponInfo@@@std@@@std@@QAE@ABV01@@Z PROC ; std::vector<WeaponInfo,std::allocator<WeaponInfo> >::vector<WeaponInfo,std::allocator<WeaponInfo> >, COMDAT
; _this$ = ecx

; 535  : 		{	// construct by copying _Right

  00000	6a 08		 push	 8
  00002	b8 00 00 00 00	 mov	 eax, __ehhandler$??0?$vector@UWeaponInfo@@V?$allocator@UWeaponInfo@@@std@@@std@@QAE@ABV01@@Z
  00007	e8 00 00 00 00	 call	 __EH_prolog3_catch
  0000c	8b f1		 mov	 esi, ecx
  0000e	89 75 ec	 mov	 DWORD PTR _this$[ebp], esi

; 536  : 		if (_Buy(_Right.size()))

  00011	8b 7d 08	 mov	 edi, DWORD PTR __Right$[ebp]
  00014	33 db		 xor	 ebx, ebx
  00016	89 1e		 mov	 DWORD PTR [esi], ebx
  00018	89 5e 04	 mov	 DWORD PTR [esi+4], ebx
  0001b	89 5e 08	 mov	 DWORD PTR [esi+8], ebx
  0001e	8b 47 04	 mov	 eax, DWORD PTR [edi+4]
  00021	2b 07		 sub	 eax, DWORD PTR [edi]
  00023	6a 28		 push	 40			; 00000028H
  00025	59		 pop	 ecx
  00026	99		 cdq
  00027	f7 f9		 idiv	 ecx
  00029	8b ce		 mov	 ecx, esi
  0002b	50		 push	 eax
  0002c	e8 00 00 00 00	 call	 ?_Buy@?$vector@UWeaponInfo@@V?$allocator@UWeaponInfo@@@std@@@std@@IAE_NI@Z ; std::vector<WeaponInfo,std::allocator<WeaponInfo> >::_Buy
  00031	84 c0		 test	 al, al
  00033	74 1f		 je	 SHORT $LN7@vector@3

; 537  : 			_TRY_BEGIN
; 538  : 			this->_Mylast = _Ucopy(_Right.begin(), _Right.end(),
; 539  : 				this->_Myfirst);

  00035	ff 75 08	 push	 DWORD PTR __Cat$581554[ebp]
  00038	8b 0e		 mov	 ecx, DWORD PTR [esi]
  0003a	8b 47 04	 mov	 eax, DWORD PTR [edi+4]
  0003d	8b 3f		 mov	 edi, DWORD PTR [edi]
  0003f	8d 56 0c	 lea	 edx, DWORD PTR [esi+12]
  00042	52		 push	 edx
  00043	51		 push	 ecx
  00044	50		 push	 eax
  00045	57		 push	 edi
  00046	89 5d fc	 mov	 DWORD PTR __$EHRec$[ebp+12], ebx
  00049	e8 00 00 00 00	 call	 ??$_Uninit_copy@V?$_Vector_const_iterator@V?$_Vector_val@UWeaponInfo@@V?$allocator@UWeaponInfo@@@std@@@std@@@std@@PAUWeaponInfo@@V?$allocator@UWeaponInfo@@@2@@std@@YAPAUWeaponInfo@@V?$_Vector_const_iterator@V?$_Vector_val@UWeaponInfo@@V?$allocator@UWeaponInfo@@@std@@@std@@@0@0PAU1@AAV?$allocator@UWeaponInfo@@@0@U_Nonscalar_ptr_iterator_tag@0@@Z ; std::_Uninit_copy<std::_Vector_const_iterator<std::_Vector_val<WeaponInfo,std::allocator<WeaponInfo> > >,WeaponInfo *,std::allocator<WeaponInfo> >
  0004e	83 c4 14	 add	 esp, 20			; 00000014H
  00051	89 46 04	 mov	 DWORD PTR [esi+4], eax
$LN7@vector@3:

; 543  : 			_CATCH_END
; 544  : 		}

  00054	8b c6		 mov	 eax, esi
  00056	e8 00 00 00 00	 call	 __EH_epilog3
  0005b	c2 04 00	 ret	 4
__catch$??0?$vector@UWeaponInfo@@V?$allocator@UWeaponInfo@@@std@@@std@@QAE@ABV01@@Z$0:

; 540  : 			_CATCH_ALL
; 541  : 			_Tidy();

  0005e	8b 4d ec	 mov	 ecx, DWORD PTR _this$[ebp]
  00061	e8 00 00 00 00	 call	 ?_Tidy@?$vector@UWeaponInfo@@V?$allocator@UWeaponInfo@@@std@@@std@@IAEXXZ ; std::vector<WeaponInfo,std::allocator<WeaponInfo> >::_Tidy

; 542  : 			_RERAISE;

  00066	33 db		 xor	 ebx, ebx
  00068	53		 push	 ebx
  00069	53		 push	 ebx
  0006a	e8 00 00 00 00	 call	 __CxxThrowException@8
$LN38@vector@3:
$LN37@vector@3:
  0006f	cc		 int	 3
_TEXT	ENDS
;	COMDAT text$x
text$x	SEGMENT
__ehhandler$??0?$vector@UWeaponInfo@@V?$allocator@UWeaponInfo@@@std@@@std@@QAE@ABV01@@Z:
  00000	8b 54 24 08	 mov	 edx, DWORD PTR [esp+8]
  00004	8d 42 0c	 lea	 eax, DWORD PTR [edx+12]
  00007	8b 4a e8	 mov	 ecx, DWORD PTR [edx-24]
  0000a	33 c8		 xor	 ecx, eax
  0000c	e8 00 00 00 00	 call	 @__security_check_cookie@4
  00011	b8 00 00 00 00	 mov	 eax, OFFSET __ehfuncinfo$??0?$vector@UWeaponInfo@@V?$allocator@UWeaponInfo@@@std@@@std@@QAE@ABV01@@Z
  00016	e9 00 00 00 00	 jmp	 ___CxxFrameHandler3
text$x	ENDS
??0?$vector@UWeaponInfo@@V?$allocator@UWeaponInfo@@@std@@@std@@QAE@ABV01@@Z ENDP ; std::vector<WeaponInfo,std::allocator<WeaponInfo> >::vector<WeaponInfo,std::allocator<WeaponInfo> >
PUBLIC	?push_back@?$vector@UWeaponInfo@@V?$allocator@UWeaponInfo@@@std@@@std@@QAEXABUWeaponInfo@@@Z ; std::vector<WeaponInfo,std::allocator<WeaponInfo> >::push_back
; Function compile flags: /Ogsp
;	COMDAT ?push_back@?$vector@UWeaponInfo@@V?$allocator@UWeaponInfo@@@std@@@std@@QAEXABUWeaponInfo@@@Z
_TEXT	SEGMENT
__Val$ = 8						; size = 4
?push_back@?$vector@UWeaponInfo@@V?$allocator@UWeaponInfo@@@std@@@std@@QAEXABUWeaponInfo@@@Z PROC ; std::vector<WeaponInfo,std::allocator<WeaponInfo> >::push_back, COMDAT
; _this$ = ecx

; 976  : 		{	// insert element at end

  00000	55		 push	 ebp
  00001	8b ec		 mov	 ebp, esp
  00003	56		 push	 esi
  00004	8b f1		 mov	 esi, ecx

; 977  : 		if (_Inside(_STD addressof(_Val)))

  00006	8b 4e 04	 mov	 ecx, DWORD PTR [esi+4]
  00009	57		 push	 edi
  0000a	8b 7d 08	 mov	 edi, DWORD PTR __Val$[ebp]
  0000d	3b f9		 cmp	 edi, ecx
  0000f	73 37		 jae	 SHORT $LN4@push_back@2
  00011	8b 16		 mov	 edx, DWORD PTR [esi]
  00013	3b d7		 cmp	 edx, edi
  00015	77 31		 ja	 SHORT $LN4@push_back@2

; 978  : 			{	// push back an element
; 979  : 			size_type _Idx = _STD addressof(_Val) - this->_Myfirst;

  00017	8b c7		 mov	 eax, edi
  00019	2b c2		 sub	 eax, edx
  0001b	6a 28		 push	 40			; 00000028H
  0001d	99		 cdq
  0001e	5f		 pop	 edi
  0001f	f7 ff		 idiv	 edi
  00021	8b f8		 mov	 edi, eax

; 980  : 			if (this->_Mylast == this->_Myend)

  00023	3b 4e 08	 cmp	 ecx, DWORD PTR [esi+8]
  00026	75 09		 jne	 SHORT $LN3@push_back@2

; 981  : 				_Reserve(1);

  00028	6a 01		 push	 1
  0002a	8b ce		 mov	 ecx, esi
  0002c	e8 00 00 00 00	 call	 ?_Reserve@?$vector@UWeaponInfo@@V?$allocator@UWeaponInfo@@@std@@@std@@IAEXI@Z ; std::vector<WeaponInfo,std::allocator<WeaponInfo> >::_Reserve
$LN3@push_back@2:

; 982  : 			_Orphan_range(this->_Mylast, this->_Mylast);
; 983  : 			_Cons_val(this->_Alval,
; 984  : 				this->_Mylast,
; 985  : 				this->_Myfirst[_Idx]);

  00031	6b ff 28	 imul	 edi, 40			; 00000028H
  00034	03 3e		 add	 edi, DWORD PTR [esi]
  00036	8d 46 0c	 lea	 eax, DWORD PTR [esi+12]
  00039	57		 push	 edi
  0003a	ff 76 04	 push	 DWORD PTR [esi+4]
  0003d	50		 push	 eax
  0003e	e8 00 00 00 00	 call	 ??$_Cons_val@V?$allocator@UWeaponInfo@@@std@@UWeaponInfo@@AAU3@@std@@YAXAAV?$allocator@UWeaponInfo@@@0@PAUWeaponInfo@@AAU2@@Z ; std::_Cons_val<std::allocator<WeaponInfo>,WeaponInfo,WeaponInfo &>
  00043	83 c4 0c	 add	 esp, 12			; 0000000cH

; 986  : 			++this->_Mylast;
; 987  : 			}
; 988  : 		else

  00046	eb 19		 jmp	 SHORT $LN26@push_back@2
$LN4@push_back@2:

; 989  : 			{	// push back a non-element
; 990  : 			if (this->_Mylast == this->_Myend)

  00048	3b 4e 08	 cmp	 ecx, DWORD PTR [esi+8]
  0004b	75 09		 jne	 SHORT $LN1@push_back@2

; 991  : 				_Reserve(1);

  0004d	6a 01		 push	 1
  0004f	8b ce		 mov	 ecx, esi
  00051	e8 00 00 00 00	 call	 ?_Reserve@?$vector@UWeaponInfo@@V?$allocator@UWeaponInfo@@@std@@@std@@IAEXI@Z ; std::vector<WeaponInfo,std::allocator<WeaponInfo> >::_Reserve
$LN1@push_back@2:

; 992  : 			_Orphan_range(this->_Mylast, this->_Mylast);
; 993  : 			_Cons_val(this->_Alval,
; 994  : 				this->_Mylast,
; 995  : 				_Val);

  00056	57		 push	 edi
  00057	ff 76 04	 push	 DWORD PTR [esi+4]
  0005a	e8 00 00 00 00	 call	 ??$_Construct@UWeaponInfo@@ABU1@@std@@YAXPAUWeaponInfo@@ABU1@@Z ; std::_Construct<WeaponInfo,WeaponInfo const &>
  0005f	59		 pop	 ecx
  00060	59		 pop	 ecx
$LN26@push_back@2:

; 996  : 			++this->_Mylast;

  00061	83 46 04 28	 add	 DWORD PTR [esi+4], 40	; 00000028H
  00065	5f		 pop	 edi
  00066	5e		 pop	 esi

; 997  : 			}
; 998  : 		}

  00067	5d		 pop	 ebp
  00068	c2 04 00	 ret	 4
?push_back@?$vector@UWeaponInfo@@V?$allocator@UWeaponInfo@@@std@@@std@@QAEXABUWeaponInfo@@@Z ENDP ; std::vector<WeaponInfo,std::allocator<WeaponInfo> >::push_back
_TEXT	ENDS
PUBLIC	?push_back@?$vector@UBuffInfoStruct@@V?$allocator@UBuffInfoStruct@@@std@@@std@@QAEXABUBuffInfoStruct@@@Z ; std::vector<BuffInfoStruct,std::allocator<BuffInfoStruct> >::push_back
; Function compile flags: /Ogsp
;	COMDAT ?push_back@?$vector@UBuffInfoStruct@@V?$allocator@UBuffInfoStruct@@@std@@@std@@QAEXABUBuffInfoStruct@@@Z
_TEXT	SEGMENT
__Val$ = 8						; size = 4
?push_back@?$vector@UBuffInfoStruct@@V?$allocator@UBuffInfoStruct@@@std@@@std@@QAEXABUBuffInfoStruct@@@Z PROC ; std::vector<BuffInfoStruct,std::allocator<BuffInfoStruct> >::push_back, COMDAT
; _this$ = ecx

; 976  : 		{	// insert element at end

  00000	55		 push	 ebp
  00001	8b ec		 mov	 ebp, esp
  00003	56		 push	 esi
  00004	8b f1		 mov	 esi, ecx

; 977  : 		if (_Inside(_STD addressof(_Val)))

  00006	8b 4e 04	 mov	 ecx, DWORD PTR [esi+4]
  00009	57		 push	 edi
  0000a	8b 7d 08	 mov	 edi, DWORD PTR __Val$[ebp]
  0000d	3b f9		 cmp	 edi, ecx
  0000f	73 33		 jae	 SHORT $LN4@push_back@3
  00011	8b 16		 mov	 edx, DWORD PTR [esi]
  00013	3b d7		 cmp	 edx, edi
  00015	77 2d		 ja	 SHORT $LN4@push_back@3

; 978  : 			{	// push back an element
; 979  : 			size_type _Idx = _STD addressof(_Val) - this->_Myfirst;

  00017	8b c7		 mov	 eax, edi
  00019	2b c2		 sub	 eax, edx
  0001b	6a 14		 push	 20			; 00000014H
  0001d	99		 cdq
  0001e	5f		 pop	 edi
  0001f	f7 ff		 idiv	 edi
  00021	8b f8		 mov	 edi, eax

; 980  : 			if (this->_Mylast == this->_Myend)

  00023	3b 4e 08	 cmp	 ecx, DWORD PTR [esi+8]
  00026	75 09		 jne	 SHORT $LN3@push_back@3

; 981  : 				_Reserve(1);

  00028	6a 01		 push	 1
  0002a	8b ce		 mov	 ecx, esi
  0002c	e8 00 00 00 00	 call	 ?_Reserve@?$vector@UBuffInfoStruct@@V?$allocator@UBuffInfoStruct@@@std@@@std@@IAEXI@Z ; std::vector<BuffInfoStruct,std::allocator<BuffInfoStruct> >::_Reserve
$LN3@push_back@3:

; 982  : 			_Orphan_range(this->_Mylast, this->_Mylast);
; 983  : 			_Cons_val(this->_Alval,
; 984  : 				this->_Mylast,
; 985  : 				this->_Myfirst[_Idx]);

  00031	6b ff 14	 imul	 edi, 20			; 00000014H
  00034	03 3e		 add	 edi, DWORD PTR [esi]
  00036	8d 4e 0c	 lea	 ecx, DWORD PTR [esi+12]
  00039	57		 push	 edi
  0003a	ff 76 04	 push	 DWORD PTR [esi+4]
  0003d	e8 00 00 00 00	 call	 ??$construct@AAUBuffInfoStruct@@@?$allocator@UBuffInfoStruct@@@std@@QAEXPAUBuffInfoStruct@@AAU2@@Z ; std::allocator<BuffInfoStruct>::construct<BuffInfoStruct &>

; 986  : 			++this->_Mylast;
; 987  : 			}
; 988  : 		else

  00042	eb 19		 jmp	 SHORT $LN30@push_back@3
$LN4@push_back@3:

; 989  : 			{	// push back a non-element
; 990  : 			if (this->_Mylast == this->_Myend)

  00044	3b 4e 08	 cmp	 ecx, DWORD PTR [esi+8]
  00047	75 09		 jne	 SHORT $LN1@push_back@3

; 991  : 				_Reserve(1);

  00049	6a 01		 push	 1
  0004b	8b ce		 mov	 ecx, esi
  0004d	e8 00 00 00 00	 call	 ?_Reserve@?$vector@UBuffInfoStruct@@V?$allocator@UBuffInfoStruct@@@std@@@std@@IAEXI@Z ; std::vector<BuffInfoStruct,std::allocator<BuffInfoStruct> >::_Reserve
$LN1@push_back@3:

; 992  : 			_Orphan_range(this->_Mylast, this->_Mylast);
; 993  : 			_Cons_val(this->_Alval,
; 994  : 				this->_Mylast,
; 995  : 				_Val);

  00052	57		 push	 edi
  00053	ff 76 04	 push	 DWORD PTR [esi+4]
  00056	e8 00 00 00 00	 call	 ??$_Construct@UBuffInfoStruct@@ABU1@@std@@YAXPAUBuffInfoStruct@@ABU1@@Z ; std::_Construct<BuffInfoStruct,BuffInfoStruct const &>
  0005b	59		 pop	 ecx
  0005c	59		 pop	 ecx
$LN30@push_back@3:

; 996  : 			++this->_Mylast;

  0005d	83 46 04 14	 add	 DWORD PTR [esi+4], 20	; 00000014H
  00061	5f		 pop	 edi
  00062	5e		 pop	 esi

; 997  : 			}
; 998  : 		}

  00063	5d		 pop	 ebp
  00064	c2 04 00	 ret	 4
?push_back@?$vector@UBuffInfoStruct@@V?$allocator@UBuffInfoStruct@@@std@@@std@@QAEXABUBuffInfoStruct@@@Z ENDP ; std::vector<BuffInfoStruct,std::allocator<BuffInfoStruct> >::push_back
_TEXT	ENDS
PUBLIC	?push_back@?$vector@UWeaponMoveInfo@@V?$allocator@UWeaponMoveInfo@@@std@@@std@@QAEXABUWeaponMoveInfo@@@Z ; std::vector<WeaponMoveInfo,std::allocator<WeaponMoveInfo> >::push_back
; Function compile flags: /Ogsp
;	COMDAT ?push_back@?$vector@UWeaponMoveInfo@@V?$allocator@UWeaponMoveInfo@@@std@@@std@@QAEXABUWeaponMoveInfo@@@Z
_TEXT	SEGMENT
__Val$ = 8						; size = 4
?push_back@?$vector@UWeaponMoveInfo@@V?$allocator@UWeaponMoveInfo@@@std@@@std@@QAEXABUWeaponMoveInfo@@@Z PROC ; std::vector<WeaponMoveInfo,std::allocator<WeaponMoveInfo> >::push_back, COMDAT
; _this$ = ecx

; 976  : 		{	// insert element at end

  00000	55		 push	 ebp
  00001	8b ec		 mov	 ebp, esp
  00003	56		 push	 esi
  00004	8b f1		 mov	 esi, ecx

; 977  : 		if (_Inside(_STD addressof(_Val)))

  00006	8b 4e 04	 mov	 ecx, DWORD PTR [esi+4]
  00009	57		 push	 edi
  0000a	8b 7d 08	 mov	 edi, DWORD PTR __Val$[ebp]
  0000d	3b f9		 cmp	 edi, ecx
  0000f	73 34		 jae	 SHORT $LN4@push_back@4
  00011	8b 16		 mov	 edx, DWORD PTR [esi]
  00013	3b d7		 cmp	 edx, edi
  00015	77 2e		 ja	 SHORT $LN4@push_back@4

; 978  : 			{	// push back an element
; 979  : 			size_type _Idx = _STD addressof(_Val) - this->_Myfirst;

  00017	8b c7		 mov	 eax, edi
  00019	2b c2		 sub	 eax, edx
  0001b	6a 14		 push	 20			; 00000014H
  0001d	99		 cdq
  0001e	5f		 pop	 edi
  0001f	f7 ff		 idiv	 edi
  00021	8b f8		 mov	 edi, eax

; 980  : 			if (this->_Mylast == this->_Myend)

  00023	3b 4e 08	 cmp	 ecx, DWORD PTR [esi+8]
  00026	75 09		 jne	 SHORT $LN3@push_back@4

; 981  : 				_Reserve(1);

  00028	6a 01		 push	 1
  0002a	8b ce		 mov	 ecx, esi
  0002c	e8 00 00 00 00	 call	 ?_Reserve@?$vector@UWeaponMoveInfo@@V?$allocator@UWeaponMoveInfo@@@std@@@std@@IAEXI@Z ; std::vector<WeaponMoveInfo,std::allocator<WeaponMoveInfo> >::_Reserve
$LN3@push_back@4:

; 982  : 			_Orphan_range(this->_Mylast, this->_Mylast);
; 983  : 			_Cons_val(this->_Alval,
; 984  : 				this->_Mylast,
; 985  : 				this->_Myfirst[_Idx]);

  00031	6b ff 14	 imul	 edi, 20			; 00000014H
  00034	03 3e		 add	 edi, DWORD PTR [esi]
  00036	8d 46 0c	 lea	 eax, DWORD PTR [esi+12]
  00039	57		 push	 edi
  0003a	ff 76 04	 push	 DWORD PTR [esi+4]
  0003d	50		 push	 eax
  0003e	e8 00 00 00 00	 call	 ??$_Cons_val@V?$allocator@UWeaponMoveInfo@@@std@@UWeaponMoveInfo@@AAU3@@std@@YAXAAV?$allocator@UWeaponMoveInfo@@@0@PAUWeaponMoveInfo@@AAU2@@Z ; std::_Cons_val<std::allocator<WeaponMoveInfo>,WeaponMoveInfo,WeaponMoveInfo &>

; 986  : 			++this->_Mylast;
; 987  : 			}
; 988  : 		else

  00043	eb 1b		 jmp	 SHORT $LN20@push_back@4
$LN4@push_back@4:

; 989  : 			{	// push back a non-element
; 990  : 			if (this->_Mylast == this->_Myend)

  00045	3b 4e 08	 cmp	 ecx, DWORD PTR [esi+8]
  00048	75 09		 jne	 SHORT $LN1@push_back@4

; 991  : 				_Reserve(1);

  0004a	6a 01		 push	 1
  0004c	8b ce		 mov	 ecx, esi
  0004e	e8 00 00 00 00	 call	 ?_Reserve@?$vector@UWeaponMoveInfo@@V?$allocator@UWeaponMoveInfo@@@std@@@std@@IAEXI@Z ; std::vector<WeaponMoveInfo,std::allocator<WeaponMoveInfo> >::_Reserve
$LN1@push_back@4:

; 992  : 			_Orphan_range(this->_Mylast, this->_Mylast);
; 993  : 			_Cons_val(this->_Alval,
; 994  : 				this->_Mylast,
; 995  : 				_Val);

  00053	57		 push	 edi
  00054	ff 76 04	 push	 DWORD PTR [esi+4]
  00057	8d 46 0c	 lea	 eax, DWORD PTR [esi+12]
  0005a	50		 push	 eax
  0005b	e8 00 00 00 00	 call	 ??$_Cons_val@V?$allocator@UWeaponMoveInfo@@@std@@UWeaponMoveInfo@@ABU3@@std@@YAXAAV?$allocator@UWeaponMoveInfo@@@0@PAUWeaponMoveInfo@@ABU2@@Z ; std::_Cons_val<std::allocator<WeaponMoveInfo>,WeaponMoveInfo,WeaponMoveInfo const &>
$LN20@push_back@4:
  00060	83 c4 0c	 add	 esp, 12			; 0000000cH

; 996  : 			++this->_Mylast;

  00063	83 46 04 14	 add	 DWORD PTR [esi+4], 20	; 00000014H
  00067	5f		 pop	 edi
  00068	5e		 pop	 esi

; 997  : 			}
; 998  : 		}

  00069	5d		 pop	 ebp
  0006a	c2 04 00	 ret	 4
?push_back@?$vector@UWeaponMoveInfo@@V?$allocator@UWeaponMoveInfo@@@std@@@std@@QAEXABUWeaponMoveInfo@@@Z ENDP ; std::vector<WeaponMoveInfo,std::allocator<WeaponMoveInfo> >::push_back
_TEXT	ENDS
PUBLIC	??1?$vector@UWeaponInfo@@V?$allocator@UWeaponInfo@@@std@@@std@@QAE@XZ ; std::vector<WeaponInfo,std::allocator<WeaponInfo> >::~vector<WeaponInfo,std::allocator<WeaponInfo> >
; Function compile flags: /Ogsp
;	COMDAT ??1?$vector@UWeaponInfo@@V?$allocator@UWeaponInfo@@@std@@@std@@QAE@XZ
_TEXT	SEGMENT
??1?$vector@UWeaponInfo@@V?$allocator@UWeaponInfo@@@std@@@std@@QAE@XZ PROC ; std::vector<WeaponInfo,std::allocator<WeaponInfo> >::~vector<WeaponInfo,std::allocator<WeaponInfo> >, COMDAT
; _this$ = ecx

; 705  : 		_Tidy();

  00000	e9 00 00 00 00	 jmp	 ?_Tidy@?$vector@UWeaponInfo@@V?$allocator@UWeaponInfo@@@std@@@std@@IAEXXZ ; std::vector<WeaponInfo,std::allocator<WeaponInfo> >::_Tidy
??1?$vector@UWeaponInfo@@V?$allocator@UWeaponInfo@@@std@@@std@@QAE@XZ ENDP ; std::vector<WeaponInfo,std::allocator<WeaponInfo> >::~vector<WeaponInfo,std::allocator<WeaponInfo> >
_TEXT	ENDS
PUBLIC	?clear@?$vector@UBuffInfoStruct@@V?$allocator@UBuffInfoStruct@@@std@@@std@@QAEXXZ ; std::vector<BuffInfoStruct,std::allocator<BuffInfoStruct> >::clear
; Function compile flags: /Ogsp
;	COMDAT ?clear@?$vector@UBuffInfoStruct@@V?$allocator@UBuffInfoStruct@@@std@@@std@@QAEXXZ
_TEXT	SEGMENT
$T581690 = -4						; size = 4
?clear@?$vector@UBuffInfoStruct@@V?$allocator@UBuffInfoStruct@@@std@@@std@@QAEXXZ PROC ; std::vector<BuffInfoStruct,std::allocator<BuffInfoStruct> >::clear, COMDAT
; _this$ = ecx

; 1217 : 		{	// erase all

  00000	55		 push	 ebp
  00001	8b ec		 mov	 ebp, esp
  00003	51		 push	 ecx

; 1218 : 		erase(begin(), end());

  00004	8b 41 04	 mov	 eax, DWORD PTR [ecx+4]
  00007	8b 11		 mov	 edx, DWORD PTR [ecx]
  00009	50		 push	 eax
  0000a	52		 push	 edx
  0000b	8d 45 fc	 lea	 eax, DWORD PTR $T581690[ebp]
  0000e	50		 push	 eax
  0000f	e8 00 00 00 00	 call	 ?erase@?$vector@UBuffInfoStruct@@V?$allocator@UBuffInfoStruct@@@std@@@std@@QAE?AV?$_Vector_iterator@V?$_Vector_val@UBuffInfoStruct@@V?$allocator@UBuffInfoStruct@@@std@@@std@@@2@V?$_Vector_const_iterator@V?$_Vector_val@UBuffInfoStruct@@V?$allocator@UBuffInfoStruct@@@std@@@std@@@2@0@Z ; std::vector<BuffInfoStruct,std::allocator<BuffInfoStruct> >::erase

; 1219 : 		}

  00014	c9		 leave
  00015	c3		 ret	 0
?clear@?$vector@UBuffInfoStruct@@V?$allocator@UBuffInfoStruct@@@std@@@std@@QAEXXZ ENDP ; std::vector<BuffInfoStruct,std::allocator<BuffInfoStruct> >::clear
_TEXT	ENDS
PUBLIC	??0AttackAttribute@@QAE@ABU0@@Z			; AttackAttribute::AttackAttribute
;	COMDAT xdata$x
xdata$x	SEGMENT
__unwindtable$??0AttackAttribute@@QAE@ABU0@@Z DD 0ffffffffH
	DD	FLAT:__unwindfunclet$??0AttackAttribute@@QAE@ABU0@@Z$0
	DD	00H
	DD	FLAT:__unwindfunclet$??0AttackAttribute@@QAE@ABU0@@Z$1
	DD	01H
	DD	FLAT:__unwindfunclet$??0AttackAttribute@@QAE@ABU0@@Z$2
__ehfuncinfo$??0AttackAttribute@@QAE@ABU0@@Z DD 019930522H
	DD	03H
	DD	FLAT:__unwindtable$??0AttackAttribute@@QAE@ABU0@@Z
	DD	2 DUP(00H)
	DD	2 DUP(00H)
	DD	00H
	DD	01H
; Function compile flags: /Ogsp
xdata$x	ENDS
;	COMDAT ??0AttackAttribute@@QAE@ABU0@@Z
_TEXT	SEGMENT
_this$ = -16						; size = 4
__$EHRec$ = -12						; size = 12
___that$ = 8						; size = 4
??0AttackAttribute@@QAE@ABU0@@Z PROC			; AttackAttribute::AttackAttribute, COMDAT
; _this$ = ecx
  00000	6a 04		 push	 4
  00002	b8 00 00 00 00	 mov	 eax, __ehhandler$??0AttackAttribute@@QAE@ABU0@@Z
  00007	e8 00 00 00 00	 call	 __EH_prolog3
  0000c	8b f1		 mov	 esi, ecx
  0000e	89 75 f0	 mov	 DWORD PTR _this$[ebp], esi
  00011	8b 7d 08	 mov	 edi, DWORD PTR ___that$[ebp]
  00014	8b 1d 00 00 00
	00		 mov	 ebx, DWORD PTR __imp_??0ioHashString@@QAE@ABV0@@Z
  0001a	57		 push	 edi
  0001b	ff d3		 call	 ebx
  0001d	d9 47 10	 fld	 DWORD PTR [edi+16]
  00020	83 65 fc 00	 and	 DWORD PTR __$EHRec$[ebp+8], 0
  00024	d9 5e 10	 fstp	 DWORD PTR [esi+16]
  00027	8d 47 14	 lea	 eax, DWORD PTR [edi+20]
  0002a	50		 push	 eax
  0002b	8d 4e 14	 lea	 ecx, DWORD PTR [esi+20]
  0002e	ff d3		 call	 ebx
  00030	d9 47 24	 fld	 DWORD PTR [edi+36]
  00033	8d 47 28	 lea	 eax, DWORD PTR [edi+40]
  00036	d9 5e 24	 fstp	 DWORD PTR [esi+36]
  00039	50		 push	 eax
  0003a	8d 4e 28	 lea	 ecx, DWORD PTR [esi+40]
  0003d	c6 45 fc 01	 mov	 BYTE PTR __$EHRec$[ebp+8], 1
  00041	e8 00 00 00 00	 call	 ??0?$vector@UWeaponInfo@@V?$allocator@UWeaponInfo@@@std@@@std@@QAE@ABV01@@Z ; std::vector<WeaponInfo,std::allocator<WeaponInfo> >::vector<WeaponInfo,std::allocator<WeaponInfo> >
  00046	8d 47 38	 lea	 eax, DWORD PTR [edi+56]
  00049	50		 push	 eax
  0004a	8d 4e 38	 lea	 ecx, DWORD PTR [esi+56]
  0004d	c6 45 fc 02	 mov	 BYTE PTR __$EHRec$[ebp+8], 2
  00051	e8 00 00 00 00	 call	 ??0?$vector@UForceInfo@@V?$allocator@UForceInfo@@@std@@@std@@QAE@ABV01@@Z ; std::vector<ForceInfo,std::allocator<ForceInfo> >::vector<ForceInfo,std::allocator<ForceInfo> >
  00056	8b 47 48	 mov	 eax, DWORD PTR [edi+72]
  00059	89 46 48	 mov	 DWORD PTR [esi+72], eax
  0005c	8b 47 4c	 mov	 eax, DWORD PTR [edi+76]
  0005f	89 46 4c	 mov	 DWORD PTR [esi+76], eax
  00062	8b c6		 mov	 eax, esi
  00064	e8 00 00 00 00	 call	 __EH_epilog3
  00069	c2 04 00	 ret	 4
_TEXT	ENDS
;	COMDAT text$x
text$x	SEGMENT
__unwindfunclet$??0AttackAttribute@@QAE@ABU0@@Z$0:
  00000	8b 4d f0	 mov	 ecx, DWORD PTR _this$[ebp]
  00003	ff 25 00 00 00
	00		 jmp	 DWORD PTR __imp_??1ioHashString@@QAE@XZ
__unwindfunclet$??0AttackAttribute@@QAE@ABU0@@Z$1:
  00009	8b 4d f0	 mov	 ecx, DWORD PTR _this$[ebp]
  0000c	83 c1 14	 add	 ecx, 20			; 00000014H
  0000f	ff 25 00 00 00
	00		 jmp	 DWORD PTR __imp_??1ioHashString@@QAE@XZ
__unwindfunclet$??0AttackAttribute@@QAE@ABU0@@Z$2:
  00015	8b 4d f0	 mov	 ecx, DWORD PTR _this$[ebp]
  00018	83 c1 28	 add	 ecx, 40			; 00000028H
  0001b	e9 00 00 00 00	 jmp	 ??1?$vector@UWeaponInfo@@V?$allocator@UWeaponInfo@@@std@@@std@@QAE@XZ ; std::vector<WeaponInfo,std::allocator<WeaponInfo> >::~vector<WeaponInfo,std::allocator<WeaponInfo> >
__ehhandler$??0AttackAttribute@@QAE@ABU0@@Z:
  00020	8b 54 24 08	 mov	 edx, DWORD PTR [esp+8]
  00024	8d 42 0c	 lea	 eax, DWORD PTR [edx+12]
  00027	8b 4a ec	 mov	 ecx, DWORD PTR [edx-20]
  0002a	33 c8		 xor	 ecx, eax
  0002c	e8 00 00 00 00	 call	 @__security_check_cookie@4
  00031	b8 00 00 00 00	 mov	 eax, OFFSET __ehfuncinfo$??0AttackAttribute@@QAE@ABU0@@Z
  00036	e9 00 00 00 00	 jmp	 ___CxxFrameHandler3
text$x	ENDS
??0AttackAttribute@@QAE@ABU0@@Z ENDP			; AttackAttribute::AttackAttribute
PUBLIC	?LoadOwnerBuffList@ioCircleMoveWeaponSkill@@IAEXAAVioINILoader@@@Z ; ioCircleMoveWeaponSkill::LoadOwnerBuffList
EXTRN	?GetBuffType@ioBuffMaker@@QBEHABVioHashString@@@Z:PROC ; ioBuffMaker::GetBuffType
EXTRN	?GetSingleton@ioBuffMaker@@SAAAV1@XZ:PROC	; ioBuffMaker::GetSingleton
EXTRN	__imp_??4ioHashString@@QAEAAV0@PBD@Z:PROC
EXTRN	__imp__wsprintfA:PROC
;	COMDAT xdata$x
; File d:\lost saga for developer\youtube\tutorial\source\src\lsclient\weaponattribute.h
xdata$x	SEGMENT
__unwindtable$?LoadOwnerBuffList@ioCircleMoveWeaponSkill@@IAEXAAVioINILoader@@@Z DD 0ffffffffH
	DD	FLAT:__unwindfunclet$?LoadOwnerBuffList@ioCircleMoveWeaponSkill@@IAEXAAVioINILoader@@@Z$0
__ehfuncinfo$?LoadOwnerBuffList@ioCircleMoveWeaponSkill@@IAEXAAVioINILoader@@@Z DD 019930522H
	DD	01H
	DD	FLAT:__unwindtable$?LoadOwnerBuffList@ioCircleMoveWeaponSkill@@IAEXAAVioINILoader@@@Z
	DD	2 DUP(00H)
	DD	2 DUP(00H)
	DD	00H
	DD	01H
; Function compile flags: /Ogsp
; File d:\lost saga for developer\youtube\tutorial\source\src\lsclient\iocirclemoveweaponskill.cpp
xdata$x	ENDS
;	COMDAT ?LoadOwnerBuffList@ioCircleMoveWeaponSkill@@IAEXAAVioINILoader@@@Z
_TEXT	SEGMENT
$T581944 = -604						; size = 4
_tBuffInfo$569866 = -600				; size = 20
_iCnt$ = -580						; size = 4
_szTitle$ = -576					; size = 260
_szBuf$ = -316						; size = 260
___encStr$569717 = -56					; size = 13
__k$581785 = -36					; size = 15
__$EHRec$ = -12						; size = 12
_rkLoader$ = 8						; size = 4
?LoadOwnerBuffList@ioCircleMoveWeaponSkill@@IAEXAAVioINILoader@@@Z PROC ; ioCircleMoveWeaponSkill::LoadOwnerBuffList, COMDAT
; _this$ = ecx

; 166  : {

  00000	68 50 02 00 00	 push	 592			; 00000250H
  00005	b8 00 00 00 00	 mov	 eax, __ehhandler$?LoadOwnerBuffList@ioCircleMoveWeaponSkill@@IAEXAAVioINILoader@@@Z
  0000a	e8 00 00 00 00	 call	 __EH_prolog3_GS
  0000f	8b 5d 08	 mov	 ebx, DWORD PTR _rkLoader$[ebp]

; 167  : 	int iCnt = rkLoader.LoadInt_e( "owner_buff_cnt", 0 );

  00012	6a 03		 push	 3
  00014	8b f1		 mov	 esi, ecx
  00016	c7 45 dc 82 9b
	85 8f		 mov	 DWORD PTR __k$581785[ebp], -1887069310 ; 8f859b82H
  0001d	c7 45 e0 9f b3
	89 9f		 mov	 DWORD PTR __k$581785[ebp+4], -1618365537 ; 9f89b39fH
  00024	c7 45 e4 8b 8a
	b4 89		 mov	 DWORD PTR __k$581785[ebp+8], -1984656757 ; 89b48a8bH
  0002b	66 c7 45 e8 83
	98		 mov	 WORD PTR __k$581785[ebp+12], 39043 ; 00009883H
  00031	8d 45 dc	 lea	 eax, DWORD PTR __k$581785[ebp]
  00034	c6 45 ea 00	 mov	 BYTE PTR __k$581785[ebp+14], 0
  00038	59		 pop	 ecx
$LL212@LoadOwnerB:
  00039	81 30 ed ec eb
	ea		 xor	 DWORD PTR [eax], -353637139 ; eaebecedH
  0003f	83 c0 04	 add	 eax, 4
  00042	49		 dec	 ecx
  00043	75 f4		 jne	 SHORT $LL212@LoadOwnerB
  00045	6a 0c		 push	 12			; 0000000cH
  00047	5f		 pop	 edi
$LL209@LoadOwnerB:
  00048	8b c7		 mov	 eax, edi
  0004a	25 03 00 00 80	 and	 eax, -2147483645	; 80000003H
  0004f	79 05		 jns	 SHORT $LN256@LoadOwnerB
  00051	48		 dec	 eax
  00052	83 c8 fc	 or	 eax, -4			; fffffffcH
  00055	40		 inc	 eax
$LN256@LoadOwnerB:
  00056	b1 ed		 mov	 cl, -19			; ffffffedH
  00058	2a c8		 sub	 cl, al
  0005a	30 4c 3d dc	 xor	 BYTE PTR __k$581785[ebp+edi], cl
  0005e	47		 inc	 edi
  0005f	83 ff 0e	 cmp	 edi, 14			; 0000000eH
  00062	7c e4		 jl	 SHORT $LL209@LoadOwnerB
  00064	6a 00		 push	 0
  00066	8d 45 dc	 lea	 eax, DWORD PTR __k$581785[ebp]
  00069	50		 push	 eax
  0006a	8b cb		 mov	 ecx, ebx
  0006c	ff 15 00 00 00
	00		 call	 DWORD PTR __imp_?LoadInt@ioINILoader@@QAEHPBDH@Z
  00072	8b f8		 mov	 edi, eax

; 168  : 	m_OwnerBuffList.clear();

  00074	8b 86 18 11 00
	00		 mov	 eax, DWORD PTR [esi+4376]
  0007a	81 c6 14 11 00
	00		 add	 esi, 4372		; 00001114H
  00080	8b 0e		 mov	 ecx, DWORD PTR [esi]
  00082	50		 push	 eax
  00083	51		 push	 ecx
  00084	8d 85 a4 fd ff
	ff		 lea	 eax, DWORD PTR $T581944[ebp]
  0008a	50		 push	 eax
  0008b	8b ce		 mov	 ecx, esi
  0008d	89 bd bc fd ff
	ff		 mov	 DWORD PTR _iCnt$[ebp], edi
  00093	e8 00 00 00 00	 call	 ?erase@?$vector@UBuffInfoStruct@@V?$allocator@UBuffInfoStruct@@@std@@@std@@QAE?AV?$_Vector_iterator@V?$_Vector_val@UBuffInfoStruct@@V?$allocator@UBuffInfoStruct@@@std@@@std@@@2@V?$_Vector_const_iterator@V?$_Vector_val@UBuffInfoStruct@@V?$allocator@UBuffInfoStruct@@@std@@@std@@@2@0@Z ; std::vector<BuffInfoStruct,std::allocator<BuffInfoStruct> >::erase

; 169  : 
; 170  : 	if( iCnt <= 0 ) return;

  00098	85 ff		 test	 edi, edi
  0009a	0f 8e f0 00 00
	00		 jle	 $LN102@LoadOwnerB

; 171  : 	m_OwnerBuffList.reserve( iCnt );

  000a0	57		 push	 edi
  000a1	8b ce		 mov	 ecx, esi
  000a3	e8 00 00 00 00	 call	 ?reserve@?$vector@UBuffInfoStruct@@V?$allocator@UBuffInfoStruct@@@std@@@std@@QAEXI@Z ; std::vector<BuffInfoStruct,std::allocator<BuffInfoStruct> >::reserve

; 172  : 	
; 173  : 	char szTitle[MAX_PATH], szBuf[MAX_PATH];
; 174  : 	for( int i=0; i < iCnt; ++i )

  000a8	33 d2		 xor	 edx, edx
  000aa	85 ff		 test	 edi, edi
  000ac	0f 8e de 00 00
	00		 jle	 $LN102@LoadOwnerB
$LN104@LoadOwnerB:

; 168  : 	m_OwnerBuffList.clear();

  000b2	6a 03		 push	 3

; 175  : 	{
; 176  : 		wsprintf_e( szTitle, "owner_buff%d", i+1 );

  000b4	c7 45 c8 82 9b
	85 8f		 mov	 DWORD PTR ___encStr$569717[ebp], -1887069310 ; 8f859b82H
  000bb	c7 45 cc 9f b3
	89 9f		 mov	 DWORD PTR ___encStr$569717[ebp+4], -1618365537 ; 9f89b39fH
  000c2	c7 45 d0 8b 8a
	ce 8e		 mov	 DWORD PTR ___encStr$569717[ebp+8], -1899066741 ; 8ece8a8bH
  000c9	8d 45 c8	 lea	 eax, DWORD PTR ___encStr$569717[ebp]
  000cc	c6 45 d4 00	 mov	 BYTE PTR ___encStr$569717[ebp+12], 0
  000d0	59		 pop	 ecx
$LL238@LoadOwnerB:
  000d1	81 30 ed ec eb
	ea		 xor	 DWORD PTR [eax], -353637139 ; eaebecedH
  000d7	83 c0 04	 add	 eax, 4
  000da	49		 dec	 ecx
  000db	75 f4		 jne	 SHORT $LL238@LoadOwnerB
  000dd	8d 7a 01	 lea	 edi, DWORD PTR [edx+1]
  000e0	57		 push	 edi
  000e1	8d 45 c8	 lea	 eax, DWORD PTR ___encStr$569717[ebp]
  000e4	50		 push	 eax
  000e5	8d 85 c0 fd ff
	ff		 lea	 eax, DWORD PTR _szTitle$[ebp]
  000eb	50		 push	 eax
  000ec	ff 15 00 00 00
	00		 call	 DWORD PTR __imp__wsprintfA
  000f2	83 c4 0c	 add	 esp, 12			; 0000000cH

; 177  : 		rkLoader.LoadString( szTitle, "", szBuf, MAX_PATH );

  000f5	68 04 01 00 00	 push	 260			; 00000104H
  000fa	8d 85 c4 fe ff
	ff		 lea	 eax, DWORD PTR _szBuf$[ebp]
  00100	50		 push	 eax
  00101	68 00 00 00 00	 push	 OFFSET ??_C@_00CNPNBAHC@?$AA@
  00106	8d 85 c0 fd ff
	ff		 lea	 eax, DWORD PTR _szTitle$[ebp]
  0010c	50		 push	 eax
  0010d	8b cb		 mov	 ecx, ebx
  0010f	ff 15 00 00 00
	00		 call	 DWORD PTR __imp_?LoadStringA@ioINILoader@@QAEXPBD0PADH@Z

; 178  : 
; 179  : 		ioBuffInfo tBuffInfo;

  00115	8d 8d a8 fd ff
	ff		 lea	 ecx, DWORD PTR _tBuffInfo$569866[ebp]
  0011b	e8 00 00 00 00	 call	 ??0BuffInfoStruct@@QAE@XZ ; BuffInfoStruct::BuffInfoStruct
  00120	83 65 fc 00	 and	 DWORD PTR __$EHRec$[ebp+8], 0

; 180  : 		tBuffInfo.m_BuffName = szBuf;

  00124	8d 85 c4 fe ff
	ff		 lea	 eax, DWORD PTR _szBuf$[ebp]
  0012a	50		 push	 eax
  0012b	8d 8d a8 fd ff
	ff		 lea	 ecx, DWORD PTR _tBuffInfo$569866[ebp]
  00131	ff 15 00 00 00
	00		 call	 DWORD PTR __imp_??4ioHashString@@QAEAAV0@PBD@Z

; 181  : 
; 182  : 		if( !tBuffInfo.m_BuffName.IsEmpty() )

  00137	8d 8d a8 fd ff
	ff		 lea	 ecx, DWORD PTR _tBuffInfo$569866[ebp]
  0013d	ff 15 00 00 00
	00		 call	 DWORD PTR __imp_?IsEmpty@ioHashString@@QBE_NXZ
  00143	84 c0		 test	 al, al
  00145	75 2b		 jne	 SHORT $LN1@LoadOwnerB

; 183  : 		{
; 184  : 			tBuffInfo.m_iBuffType = g_BuffMaker.GetBuffType( tBuffInfo.m_BuffName );

  00147	8d 85 a8 fd ff
	ff		 lea	 eax, DWORD PTR _tBuffInfo$569866[ebp]
  0014d	50		 push	 eax
  0014e	e8 00 00 00 00	 call	 ?GetSingleton@ioBuffMaker@@SAAAV1@XZ ; ioBuffMaker::GetSingleton
  00153	8b c8		 mov	 ecx, eax
  00155	e8 00 00 00 00	 call	 ?GetBuffType@ioBuffMaker@@QBEHABVioHashString@@@Z ; ioBuffMaker::GetBuffType
  0015a	89 85 b8 fd ff
	ff		 mov	 DWORD PTR _tBuffInfo$569866[ebp+16], eax

; 185  : 			if( tBuffInfo.m_iBuffType != BT_NONE )

  00160	85 c0		 test	 eax, eax
  00162	74 0e		 je	 SHORT $LN1@LoadOwnerB

; 186  : 			{
; 187  : 				m_OwnerBuffList.push_back( tBuffInfo );

  00164	8d 85 a8 fd ff
	ff		 lea	 eax, DWORD PTR _tBuffInfo$569866[ebp]
  0016a	50		 push	 eax
  0016b	8b ce		 mov	 ecx, esi
  0016d	e8 00 00 00 00	 call	 ?push_back@?$vector@UBuffInfoStruct@@V?$allocator@UBuffInfoStruct@@@std@@@std@@QAEXABUBuffInfoStruct@@@Z ; std::vector<BuffInfoStruct,std::allocator<BuffInfoStruct> >::push_back
$LN1@LoadOwnerB:

; 188  : 			}
; 189  : 		}
; 190  : 	}

  00172	83 4d fc ff	 or	 DWORD PTR __$EHRec$[ebp+8], -1
  00176	8d 8d a8 fd ff
	ff		 lea	 ecx, DWORD PTR _tBuffInfo$569866[ebp]
  0017c	ff 15 00 00 00
	00		 call	 DWORD PTR __imp_??1ioHashString@@QAE@XZ
  00182	8b d7		 mov	 edx, edi
  00184	3b 95 bc fd ff
	ff		 cmp	 edx, DWORD PTR _iCnt$[ebp]
  0018a	0f 8c 22 ff ff
	ff		 jl	 $LN104@LoadOwnerB
$LN102@LoadOwnerB:

; 191  : }

  00190	e8 00 00 00 00	 call	 __EH_epilog3_GS
  00195	c2 04 00	 ret	 4
_TEXT	ENDS
;	COMDAT text$x
text$x	SEGMENT
__unwindfunclet$?LoadOwnerBuffList@ioCircleMoveWeaponSkill@@IAEXAAVioINILoader@@@Z$0:
  00000	8d 8d a8 fd ff
	ff		 lea	 ecx, DWORD PTR _tBuffInfo$569866[ebp]
  00006	e9 00 00 00 00	 jmp	 ??1BuffInfoStruct@@QAE@XZ
__ehhandler$?LoadOwnerBuffList@ioCircleMoveWeaponSkill@@IAEXAAVioINILoader@@@Z:
  0000b	8b 54 24 08	 mov	 edx, DWORD PTR [esp+8]
  0000f	8d 42 0c	 lea	 eax, DWORD PTR [edx+12]
  00012	8b 8a a0 fd ff
	ff		 mov	 ecx, DWORD PTR [edx-608]
  00018	33 c8		 xor	 ecx, eax
  0001a	e8 00 00 00 00	 call	 @__security_check_cookie@4
  0001f	8b 4a fc	 mov	 ecx, DWORD PTR [edx-4]
  00022	33 c8		 xor	 ecx, eax
  00024	e8 00 00 00 00	 call	 @__security_check_cookie@4
  00029	b8 00 00 00 00	 mov	 eax, OFFSET __ehfuncinfo$?LoadOwnerBuffList@ioCircleMoveWeaponSkill@@IAEXAAVioINILoader@@@Z
  0002e	e9 00 00 00 00	 jmp	 ___CxxFrameHandler3
text$x	ENDS
?LoadOwnerBuffList@ioCircleMoveWeaponSkill@@IAEXAAVioINILoader@@@Z ENDP ; ioCircleMoveWeaponSkill::LoadOwnerBuffList
PUBLIC	_pChar$GSCopy$
PUBLIC	__$ArrayPad$
PUBLIC	?SetActionState@ioCircleMoveWeaponSkill@@IAEXPAVioBaseChar@@PAVioPlayStage@@@Z ; ioCircleMoveWeaponSkill::SetActionState
EXTRN	??1IORandom@@UAE@XZ:PROC			; IORandom::~IORandom
EXTRN	??1SP2Packet@@UAE@XZ:PROC			; SP2Packet::~SP2Packet
EXTRN	?SendToAllPlayingUser@P2PNetwork@@YAXAAVSP2Packet@@PAVioBaseChar@@@Z:PROC ; P2PNetwork::SendToAllPlayingUser
EXTRN	??6SP2Packet@@QAEAAV0@ABVioHashString@@@Z:PROC	; SP2Packet::operator<<
EXTRN	??0SP2Packet@@QAE@K@Z:PROC			; SP2Packet::SP2Packet
EXTRN	?ChangeSkillWeaponMesh@ioBaseChar@@QAE_NPAVioSkill@@ABVioHashString@@_N@Z:PROC ; ioBaseChar::ChangeSkillWeaponMesh
EXTRN	?GetRoomGravity@ioPlayStage@@QAEMXZ:PROC	; ioPlayStage::GetRoomGravity
EXTRN	?GetPlayStage@ioSkillMaker@@QAEPAVioPlayStage@@XZ:PROC ; ioSkillMaker::GetPlayStage
EXTRN	?GetSingleton@ioSkillMaker@@SAAAV1@XZ:PROC	; ioSkillMaker::GetSingleton
EXTRN	?Random@IORandom@@QAEII@Z:PROC			; IORandom::Random
EXTRN	?SetRandomSeed@IORandom@@QAEXI@Z:PROC		; IORandom::SetRandomSeed
EXTRN	??0IORandom@@QAE@XZ:PROC			; IORandom::IORandom
EXTRN	?SetTargetRotAndMoveDirChange@ioBaseChar@@QAEXABUD3DXQUATERNION@@_N@Z:PROC ; ioBaseChar::SetTargetRotAndMoveDirChange
EXTRN	__imp_?CalcDirectionQuaternion@ioMath@@SAXAAUD3DXQUATERNION@@ABUD3DXVECTOR3@@@Z:PROC
EXTRN	_D3DXVec3Normalize@8:PROC
EXTRN	?GetSingleConvertTeam@ioBaseChar@@QAE?AW4TeamType@@XZ:PROC ; ioBaseChar::GetSingleConvertTeam
EXTRN	?GetMagicCirclePos@ioBaseGUISupport@@QBE?AUD3DXVECTOR3@@M_N@Z:PROC ; ioBaseGUISupport::GetMagicCirclePos
EXTRN	?UpdateMagicCirclePos@ioBaseGUISupport@@QAEXMMM_N0@Z:PROC ; ioBaseGUISupport::UpdateMagicCirclePos
EXTRN	?CheckMagicCircleVisible@ioBaseGUISupport@@QAEX_N@Z:PROC ; ioBaseGUISupport::CheckMagicCircleVisible
EXTRN	?GetValue@ioGrowthNormalUpInfo@@QAEMPAVioPlayStage@@@Z:PROC ; ioGrowthNormalUpInfo::GetValue
EXTRN	?GetGrowthUpInfoByType@ioSkill@@QAEPAVioGrowthUpInfo@@HABVioHashString@@@Z:PROC ; ioSkill::GetGrowthUpInfoByType
EXTRN	__chkstk:PROC
EXTRN	__CIsin:PROC
EXTRN	__ftol2_sse:PROC
EXTRN	__CIcos:PROC
;	COMDAT xdata$x
; File d:\lost saga for developer\youtube\tutorial\source\src\lsclient\ioskill.h
xdata$x	SEGMENT
__unwindtable$?SetActionState@ioCircleMoveWeaponSkill@@IAEXPAVioBaseChar@@PAVioPlayStage@@@Z DD 0ffffffffH
	DD	FLAT:__unwindfunclet$?SetActionState@ioCircleMoveWeaponSkill@@IAEXPAVioBaseChar@@PAVioPlayStage@@@Z$0
	DD	00H
	DD	FLAT:__unwindfunclet$?SetActionState@ioCircleMoveWeaponSkill@@IAEXPAVioBaseChar@@PAVioPlayStage@@@Z$1
__ehfuncinfo$?SetActionState@ioCircleMoveWeaponSkill@@IAEXPAVioBaseChar@@PAVioPlayStage@@@Z DD 019930522H
	DD	02H
	DD	FLAT:__unwindtable$?SetActionState@ioCircleMoveWeaponSkill@@IAEXPAVioBaseChar@@PAVioPlayStage@@@Z
	DD	2 DUP(00H)
	DD	2 DUP(00H)
	DD	00H
	DD	01H
; Function compile flags: /Ogsp
; File d:\lost saga for developer\youtube\tutorial\source\src\lsclient\iocirclemoveweaponskill.cpp
xdata$x	ENDS
;	COMDAT ?SetActionState@ioCircleMoveWeaponSkill@@IAEXPAVioBaseChar@@PAVioPlayStage@@@Z
_TEXT	SEGMENT
_qtRot$ = -35472					; size = 16
_value$582189 = -35456					; size = 4
tv1121 = -35452						; size = 4
_value$582234 = -35448					; size = 4
_value$582226 = -35444					; size = 4
_value$582193 = -35440					; size = 4
_value$582230 = -35436					; size = 4
_value$582222 = -35432					; size = 4
_fRange$570007 = -35428					; size = 4
_value$582238 = -35424					; size = 4
$T582160 = -35424					; size = 4
_fRate$570005 = -35420					; size = 4
_fWeaponMoveSpeed$570012 = -35416			; size = 4
_fCurGravity$570011 = -35412				; size = 4
$T582003 = -35408					; size = 12
tv1255 = -35404						; size = 8
tv1285 = -35400						; size = 4
_iRange$569997 = -35400					; size = 4
$T582004 = -35396					; size = 12
tv1253 = -35392						; size = 8
_fFlightDuration$570015 = -35388			; size = 4
_iAngle$569996 = -35388					; size = 4
_pChar$GSCopy$ = -35384					; size = 4
_value$582020 = -35380					; size = 1
tv1049 = -35380						; size = 4
_value$582031 = -35380					; size = 4
_value$582046 = -35380					; size = 4
_value$582013 = -35380					; size = 4
_fCurRange$ = -35380					; size = 4
_fCurWeaponFloatPower$570008 = -35376			; size = 4
_pMapEffect$ = -35376					; size = 4
_fValue$ = -35376					; size = 4
_kPacket$570021 = -35372				; size = 32792
_random$ = -2580					; size = 2508
_kInfo$570018 = -72					; size = 20
_vCharDir$ = -52					; size = 12
_vDir$570003 = -40					; size = 12
$T582002 = -40						; size = 12
_vPos$569993 = -28					; size = 12
$T569985 = -28						; size = 12
$T569982 = -28						; size = 12
$T582001 = -28						; size = 12
$T569967 = -28						; size = 12
__$ArrayPad$ = -16					; size = 4
__$EHRec$ = -12						; size = 12
_pChar$ = 8						; size = 4
_pStage$ = 12						; size = 4
?SetActionState@ioCircleMoveWeaponSkill@@IAEXPAVioBaseChar@@PAVioPlayStage@@@Z PROC ; ioCircleMoveWeaponSkill::SetActionState, COMDAT
; _this$ = ecx

; 412  : {

  00000	55		 push	 ebp
  00001	8b ec		 mov	 ebp, esp
  00003	6a ff		 push	 -1
  00005	68 00 00 00 00	 push	 __ehhandler$?SetActionState@ioCircleMoveWeaponSkill@@IAEXPAVioBaseChar@@PAVioPlayStage@@@Z
  0000a	64 a1 00 00 00
	00		 mov	 eax, DWORD PTR fs:0
  00010	50		 push	 eax
  00011	b8 84 8a 00 00	 mov	 eax, 35460		; 00008a84H
  00016	e8 00 00 00 00	 call	 __chkstk
  0001b	a1 00 00 00 00	 mov	 eax, DWORD PTR ___security_cookie
  00020	33 c5		 xor	 eax, ebp
  00022	89 45 f0	 mov	 DWORD PTR __$ArrayPad$[ebp], eax
  00025	53		 push	 ebx
  00026	56		 push	 esi
  00027	57		 push	 edi
  00028	50		 push	 eax
  00029	8d 45 f4	 lea	 eax, DWORD PTR __$EHRec$[ebp]
  0002c	64 a3 00 00 00
	00		 mov	 DWORD PTR fs:0, eax
  00032	8b 75 08	 mov	 esi, DWORD PTR _pChar$[ebp]
  00035	8b 7d 0c	 mov	 edi, DWORD PTR _pStage$[ebp]
  00038	8b d9		 mov	 ebx, ecx

; 413  : 	m_State = SS_ACTION;

  0003a	8d 85 cc 75 ff
	ff		 lea	 eax, DWORD PTR _value$582013[ebp]
  00040	50		 push	 eax
  00041	8d 8b 58 0f 00
	00		 lea	 ecx, DWORD PTR [ebx+3928]

; 414  : 	AddOwnerBuff( pChar );
; 415  : 
; 416  : 	float fValue = 0.0f;
; 417  : 	ioGrowthNormalUpInfo *pUpInfo = ToNormalUpInfo( GetGrowthUpInfoByType(GT_MAGIC_CIRCLE_RANGE, pChar->GetCharName()) );

  00047	89 b5 c8 75 ff
	ff		 mov	 DWORD PTR _pChar$GSCopy$[ebp], esi
  0004d	c7 85 cc 75 ff
	ff 02 00 00 00	 mov	 DWORD PTR _value$582013[ebp], 2
  00057	e8 00 00 00 00	 call	 ?EncryptValueToPool@?$CEncrypt@H@@AAEXPBD@Z ; CEncrypt<int>::EncryptValueToPool
  0005c	56		 push	 esi
  0005d	8b cb		 mov	 ecx, ebx
  0005f	e8 00 00 00 00	 call	 ?AddOwnerBuff@ioCircleMoveWeaponSkill@@IAEXPAVioBaseChar@@@Z ; ioCircleMoveWeaponSkill::AddOwnerBuff
  00064	0f 57 c0	 xorps	 xmm0, xmm0
  00067	8d 86 d4 02 00
	00		 lea	 eax, DWORD PTR [esi+724]
  0006d	50		 push	 eax
  0006e	6a 0e		 push	 14			; 0000000eH
  00070	8b cb		 mov	 ecx, ebx
  00072	f3 0f 11 85 d0
	75 ff ff	 movss	 DWORD PTR _fValue$[ebp], xmm0
  0007a	89 85 84 75 ff
	ff		 mov	 DWORD PTR tv1121[ebp], eax
  00080	e8 00 00 00 00	 call	 ?GetGrowthUpInfoByType@ioSkill@@QAEPAVioGrowthUpInfo@@HABVioHashString@@@Z ; ioSkill::GetGrowthUpInfoByType
  00085	50		 push	 eax
  00086	e8 00 00 00 00	 call	 ?ToNormalUpInfo@@YAPAVioGrowthNormalUpInfo@@PAVioGrowthUpInfo@@@Z ; ToNormalUpInfo
  0008b	59		 pop	 ecx

; 418  : 	if( pUpInfo )

  0008c	85 c0		 test	 eax, eax
  0008e	74 0e		 je	 SHORT $LN20@SetActionS

; 419  : 		fValue = pUpInfo->GetValue(pStage);

  00090	57		 push	 edi
  00091	8b c8		 mov	 ecx, eax
  00093	e8 00 00 00 00	 call	 ?GetValue@ioGrowthNormalUpInfo@@QAEMPAVioPlayStage@@@Z ; ioGrowthNormalUpInfo::GetValue
  00098	d9 9d d0 75 ff
	ff		 fstp	 DWORD PTR _fValue$[ebp]
$LN20@SetActionS:

; 420  : 
; 421  : 	float fCurRange = m_fCircleRange + fValue;

  0009e	f3 0f 10 83 dc
	0f 00 00	 movss	 xmm0, DWORD PTR [ebx+4060]
  000a6	f3 0f 10 8d d0
	75 ff ff	 movss	 xmm1, DWORD PTR _fValue$[ebp]

; 422  : 
; 423  : 
; 424  : 	m_dwPreDelayStartTime = 0;

  000ae	83 a3 20 02 00
	00 00		 and	 DWORD PTR [ebx+544], 0
  000b5	0f 5a c0	 cvtps2pd xmm0, xmm0
  000b8	0f 5a c9	 cvtps2pd xmm1, xmm1
  000bb	f2 0f 58 c1	 addsd	 xmm0, xmm1

; 425  : 	if( pChar->CheckMagicCircle() )

  000bf	81 c6 cc 01 00
	00		 add	 esi, 460		; 000001ccH
  000c5	66 0f 5a c0	 cvtpd2ps xmm0, xmm0
  000c9	8b ce		 mov	 ecx, esi
  000cb	f3 0f 11 85 cc
	75 ff ff	 movss	 DWORD PTR _fCurRange$[ebp], xmm0
  000d3	e8 00 00 00 00	 call	 ?CheckMagicCircle@ioBaseGUISupport@@QBE_NXZ ; ioBaseGUISupport::CheckMagicCircle
  000d8	84 c0		 test	 al, al
  000da	74 40		 je	 SHORT $LN19@SetActionS

; 426  : 	{
; 427  : 		pChar->CheckMagicCircleVisible( false );

  000dc	6a 00		 push	 0
  000de	8b ce		 mov	 ecx, esi
  000e0	e8 00 00 00 00	 call	 ?CheckMagicCircleVisible@ioBaseGUISupport@@QAEX_N@Z ; ioBaseGUISupport::CheckMagicCircleVisible

; 428  : 		pChar->UpdateMagicCirclePos( m_fCircleMoveSpeed, fCurRange, m_fCircleHeightGap, true, true );

  000e5	f3 0f 10 83 e4
	0f 00 00	 movss	 xmm0, DWORD PTR [ebx+4068]
  000ed	6a 01		 push	 1
  000ef	6a 01		 push	 1
  000f1	83 ec 0c	 sub	 esp, 12			; 0000000cH
  000f4	f3 0f 11 44 24
	08		 movss	 DWORD PTR [esp+8], xmm0
  000fa	f3 0f 10 85 cc
	75 ff ff	 movss	 xmm0, DWORD PTR _fCurRange$[ebp]
  00102	f3 0f 11 44 24
	04		 movss	 DWORD PTR [esp+4], xmm0
  00108	f3 0f 10 83 e0
	0f 00 00	 movss	 xmm0, DWORD PTR [ebx+4064]
  00110	8b ce		 mov	 ecx, esi
  00112	f3 0f 11 04 24	 movss	 DWORD PTR [esp], xmm0
  00117	e8 00 00 00 00	 call	 ?UpdateMagicCirclePos@ioBaseGUISupport@@QAEXMMM_N0@Z ; ioBaseGUISupport::UpdateMagicCirclePos
$LN19@SetActionS:

; 429  : 	}
; 430  : 
; 431  : 	m_vCirclePos = pChar->GetMagicCirclePos( m_fCircleOffSet, m_bCircleNoChangeY );

  0011c	8d 85 cc 75 ff
	ff		 lea	 eax, DWORD PTR _value$582020[ebp]
  00122	50		 push	 eax
  00123	8d 8b 24 06 00
	00		 lea	 ecx, DWORD PTR [ebx+1572]
  00129	e8 00 00 00 00	 call	 ?DecryptValueToPool@?$CEncrypt@_N@@QAEXPA_N@Z ; CEncrypt<bool>::DecryptValueToPool
  0012e	ff b5 cc 75 ff
	ff		 push	 DWORD PTR _value$582020[ebp]
  00134	f3 0f 10 83 e8
	0f 00 00	 movss	 xmm0, DWORD PTR [ebx+4072]
  0013c	51		 push	 ecx
  0013d	8d 45 e4	 lea	 eax, DWORD PTR $T569967[ebp]
  00140	f3 0f 11 04 24	 movss	 DWORD PTR [esp], xmm0
  00145	50		 push	 eax
  00146	8b ce		 mov	 ecx, esi
  00148	e8 00 00 00 00	 call	 ?GetMagicCirclePos@ioBaseGUISupport@@QBE?AUD3DXVECTOR3@@M_N@Z ; ioBaseGUISupport::GetMagicCirclePos
  0014d	8b f0		 mov	 esi, eax
  0014f	8d bb ec 0f 00
	00		 lea	 edi, DWORD PTR [ebx+4076]
  00155	a5		 movsd
  00156	a5		 movsd
  00157	a5		 movsd

; 432  : 
; 433  : 	ioMapEffect *pMapEffect = NULL;
; 434  : 	if( pChar->GetTeam() == TEAM_RED )

  00158	8b b5 c8 75 ff
	ff		 mov	 esi, DWORD PTR _pChar$GSCopy$[ebp]
  0015e	8d 85 cc 75 ff
	ff		 lea	 eax, DWORD PTR _value$582031[ebp]
  00164	50		 push	 eax
  00165	8d 8e 90 00 00
	00		 lea	 ecx, DWORD PTR [esi+144]
  0016b	e8 00 00 00 00	 call	 ?DecryptValueToPool@?$CEncrypt@W4TeamType@@@@QAEXPAW4TeamType@@@Z ; CEncrypt<enum TeamType>::DecryptValueToPool
  00170	83 bd cc 75 ff
	ff 01		 cmp	 DWORD PTR _value$582031[ebp], 1
  00177	75 1f		 jne	 SHORT $LN18@SetActionS

; 435  : 	{
; 436  : 		pMapEffect = pChar->CreateMapEffectBySkill( m_RedEffect, m_vCirclePos );

  00179	f3 0f 10 05 00
	00 00 00	 movss	 xmm0, DWORD PTR __real@3f800000
  00181	f3 0f 11 45 e4	 movss	 DWORD PTR $T582001[ebp], xmm0
  00186	f3 0f 11 45 e8	 movss	 DWORD PTR $T582001[ebp+4], xmm0
  0018b	f3 0f 11 45 ec	 movss	 DWORD PTR $T582001[ebp+8], xmm0
  00190	8d 45 e4	 lea	 eax, DWORD PTR $T582001[ebp]
  00193	e9 a5 00 00 00	 jmp	 $LN133@SetActionS
$LN18@SetActionS:

; 437  : 	}
; 438  : 	else if( pChar->GetTeam() == TEAM_BLUE )

  00198	8d 85 cc 75 ff
	ff		 lea	 eax, DWORD PTR _value$582046[ebp]
  0019e	50		 push	 eax
  0019f	8d 8e 90 00 00
	00		 lea	 ecx, DWORD PTR [esi+144]
  001a5	e8 00 00 00 00	 call	 ?DecryptValueToPool@?$CEncrypt@W4TeamType@@@@QAEXPAW4TeamType@@@Z ; CEncrypt<enum TeamType>::DecryptValueToPool
  001aa	83 bd cc 75 ff
	ff 02		 cmp	 DWORD PTR _value$582046[ebp], 2

; 439  : 	{
; 440  : 		pMapEffect = pChar->CreateMapEffectBySkill( m_BlueEffect, m_vCirclePos );

  001b1	8b ce		 mov	 ecx, esi
  001b3	75 2a		 jne	 SHORT $LN16@SetActionS
  001b5	f3 0f 10 05 00
	00 00 00	 movss	 xmm0, DWORD PTR __real@3f800000
  001bd	8d 45 d8	 lea	 eax, DWORD PTR $T582002[ebp]
  001c0	50		 push	 eax
  001c1	8d 83 ec 0f 00
	00		 lea	 eax, DWORD PTR [ebx+4076]
  001c7	50		 push	 eax
  001c8	f3 0f 11 45 d8	 movss	 DWORD PTR $T582002[ebp], xmm0
  001cd	f3 0f 11 45 dc	 movss	 DWORD PTR $T582002[ebp+4], xmm0
  001d2	f3 0f 11 45 e0	 movss	 DWORD PTR $T582002[ebp+8], xmm0
  001d7	8d 83 38 10 00
	00		 lea	 eax, DWORD PTR [ebx+4152]

; 441  : 	}
; 442  : 	else

  001dd	eb 6e		 jmp	 SHORT $LN134@SetActionS
$LN16@SetActionS:

; 443  : 	{
; 444  : 		if( pChar->GetSingleConvertTeam() == TEAM_BLUE )

  001df	e8 00 00 00 00	 call	 ?GetSingleConvertTeam@ioBaseChar@@QAE?AW4TeamType@@XZ ; ioBaseChar::GetSingleConvertTeam

; 445  : 		{
; 446  : 			pMapEffect = pChar->CreateMapEffectBySkill( m_BlueEffect, m_vCirclePos );

  001e4	f3 0f 10 05 00
	00 00 00	 movss	 xmm0, DWORD PTR __real@3f800000
  001ec	83 f8 02	 cmp	 eax, 2
  001ef	75 2e		 jne	 SHORT $LN14@SetActionS
  001f1	8d 85 b0 75 ff
	ff		 lea	 eax, DWORD PTR $T582003[ebp]
  001f7	50		 push	 eax
  001f8	8d 83 ec 0f 00
	00		 lea	 eax, DWORD PTR [ebx+4076]
  001fe	50		 push	 eax
  001ff	f3 0f 11 85 b0
	75 ff ff	 movss	 DWORD PTR $T582003[ebp], xmm0
  00207	f3 0f 11 85 b4
	75 ff ff	 movss	 DWORD PTR $T582003[ebp+4], xmm0
  0020f	f3 0f 11 85 b8
	75 ff ff	 movss	 DWORD PTR $T582003[ebp+8], xmm0
  00217	8d 83 38 10 00
	00		 lea	 eax, DWORD PTR [ebx+4152]

; 447  : 		}
; 448  : 		else

  0021d	eb 2c		 jmp	 SHORT $LN135@SetActionS
$LN14@SetActionS:

; 449  : 		{
; 450  : 			pMapEffect = pChar->CreateMapEffectBySkill( m_RedEffect, m_vCirclePos );

  0021f	f3 0f 11 85 bc
	75 ff ff	 movss	 DWORD PTR $T582004[ebp], xmm0
  00227	f3 0f 11 85 c0
	75 ff ff	 movss	 DWORD PTR $T582004[ebp+4], xmm0
  0022f	f3 0f 11 85 c4
	75 ff ff	 movss	 DWORD PTR $T582004[ebp+8], xmm0
  00237	8d 85 bc 75 ff
	ff		 lea	 eax, DWORD PTR $T582004[ebp]
$LN133@SetActionS:
  0023d	50		 push	 eax
  0023e	8d 83 ec 0f 00
	00		 lea	 eax, DWORD PTR [ebx+4076]
  00244	50		 push	 eax
  00245	8d 83 28 10 00
	00		 lea	 eax, DWORD PTR [ebx+4136]
$LN135@SetActionS:
  0024b	8b ce		 mov	 ecx, esi
$LN134@SetActionS:
  0024d	50		 push	 eax
  0024e	e8 00 00 00 00	 call	 ?CreateMapEffectBySkill@ioBaseChar@@QAEPAVioMapEffect@@ABVioHashString@@ABUD3DXVECTOR3@@AAU4@@Z ; ioBaseChar::CreateMapEffectBySkill
  00253	89 85 d0 75 ff
	ff		 mov	 DWORD PTR _pMapEffect$[ebp], eax

; 451  : 		}
; 452  : 	}
; 453  : 
; 454  : 	if( pMapEffect )

  00259	85 c0		 test	 eax, eax
  0025b	74 42		 je	 SHORT $LN10@SetActionS

; 455  : 	{
; 456  : 		if( m_dwCurMapEffect != -1 )

  0025d	8b 83 48 10 00
	00		 mov	 eax, DWORD PTR [ebx+4168]
  00263	83 f8 ff	 cmp	 eax, -1
  00266	74 0a		 je	 SHORT $LN11@SetActionS

; 457  : 			pChar->EndMapEffect( m_dwCurMapEffect, false );

  00268	6a 00		 push	 0
  0026a	50		 push	 eax
  0026b	8b ce		 mov	 ecx, esi
  0026d	e8 00 00 00 00	 call	 ?EndMapEffect@ioBaseChar@@QAEXK_N@Z ; ioBaseChar::EndMapEffect
$LN11@SetActionS:

; 458  : 
; 459  : 		m_dwCurMapEffect = pMapEffect->GetUniqueID();

  00272	8b 8d d0 75 ff
	ff		 mov	 ecx, DWORD PTR _pMapEffect$[ebp]
  00278	e8 00 00 00 00	 call	 ?GetUniqueID@ioMapEffect@@QBEKXZ ; ioMapEffect::GetUniqueID
  0027d	89 83 48 10 00
	00		 mov	 DWORD PTR [ebx+4168], eax

; 460  : 
; 461  : 		if( m_dwTargetCircleEffect != -1 )

  00283	8b 83 4c 10 00
	00		 mov	 eax, DWORD PTR [ebx+4172]
  00289	83 f8 ff	 cmp	 eax, -1
  0028c	74 11		 je	 SHORT $LN10@SetActionS

; 462  : 		{
; 463  : 			pChar->EndMapEffect( m_dwTargetCircleEffect, false );

  0028e	6a 00		 push	 0
  00290	50		 push	 eax
  00291	8b ce		 mov	 ecx, esi
  00293	e8 00 00 00 00	 call	 ?EndMapEffect@ioBaseChar@@QAEXK_N@Z ; ioBaseChar::EndMapEffect

; 464  : 			m_dwTargetCircleEffect = -1;

  00298	83 8b 4c 10 00
	00 ff		 or	 DWORD PTR [ebx+4172], -1
$LN10@SetActionS:

; 465  : 		}
; 466  : 	}
; 467  : 
; 468  : 	// CharDir
; 469  : 	m_vAttackDir = m_vCirclePos - pChar->GetWorldPosition();

  0029f	8b 06		 mov	 eax, DWORD PTR [esi]
  002a1	8b ce		 mov	 ecx, esi
  002a3	ff 50 70	 call	 DWORD PTR [eax+112]
  002a6	f3 0f 10 08	 movss	 xmm1, DWORD PTR [eax]
  002aa	f3 0f 10 50 04	 movss	 xmm2, DWORD PTR [eax+4]
  002af	f3 0f 10 83 ec
	0f 00 00	 movss	 xmm0, DWORD PTR [ebx+4076]
  002b7	f3 0f 10 58 08	 movss	 xmm3, DWORD PTR [eax+8]
  002bc	0f 5a c0	 cvtps2pd xmm0, xmm0
  002bf	0f 5a c9	 cvtps2pd xmm1, xmm1
  002c2	f2 0f 5c c1	 subsd	 xmm0, xmm1
  002c6	f3 0f 10 8b f0
	0f 00 00	 movss	 xmm1, DWORD PTR [ebx+4080]
  002ce	0f 5a d2	 cvtps2pd xmm2, xmm2
  002d1	0f 5a c9	 cvtps2pd xmm1, xmm1
  002d4	f2 0f 5c ca	 subsd	 xmm1, xmm2
  002d8	f3 0f 10 93 f4
	0f 00 00	 movss	 xmm2, DWORD PTR [ebx+4084]
  002e0	66 0f 5a c0	 cvtpd2ps xmm0, xmm0
  002e4	f3 0f 11 45 e4	 movss	 DWORD PTR $T569982[ebp], xmm0
  002e9	0f 5a d2	 cvtps2pd xmm2, xmm2
  002ec	66 0f 5a c9	 cvtpd2ps xmm1, xmm1
  002f0	f3 0f 11 4d e8	 movss	 DWORD PTR $T569982[ebp+4], xmm1
  002f5	0f 5a db	 cvtps2pd xmm3, xmm3
  002f8	f2 0f 5c d3	 subsd	 xmm2, xmm3
  002fc	66 0f 5a d2	 cvtpd2ps xmm2, xmm2
  00300	f3 0f 11 55 ec	 movss	 DWORD PTR $T569982[ebp+8], xmm2
  00305	8d 75 e4	 lea	 esi, DWORD PTR $T569982[ebp]
  00308	8d bb f8 0f 00
	00		 lea	 edi, DWORD PTR [ebx+4088]
  0030e	a5		 movsd
  0030f	a5		 movsd
  00310	a5		 movsd

; 470  : 	m_fMoveRange = D3DXVec3Length( &m_vAttackDir );

  00311	f3 0f 10 83 fc
	0f 00 00	 movss	 xmm0, DWORD PTR [ebx+4092]
  00319	f3 0f 10 8b f8
	0f 00 00	 movss	 xmm1, DWORD PTR [ebx+4088]
  00321	f3 0f 10 93 00
	10 00 00	 movss	 xmm2, DWORD PTR [ebx+4096]
  00329	0f 5a c0	 cvtps2pd xmm0, xmm0
  0032c	f2 0f 59 c0	 mulsd	 xmm0, xmm0
  00330	0f 5a c9	 cvtps2pd xmm1, xmm1

; 471  : 	D3DXVECTOR3 vCharDir = m_vAttackDir;

  00333	8d 75 e4	 lea	 esi, DWORD PTR $T569982[ebp]
  00336	8d 7d cc	 lea	 edi, DWORD PTR _vCharDir$[ebp]
  00339	a5		 movsd
  0033a	f2 0f 59 c9	 mulsd	 xmm1, xmm1
  0033e	f2 0f 58 c8	 addsd	 xmm1, xmm0
  00342	0f 57 c0	 xorps	 xmm0, xmm0
  00345	0f 5a d2	 cvtps2pd xmm2, xmm2
  00348	f2 0f 59 d2	 mulsd	 xmm2, xmm2
  0034c	f2 0f 58 ca	 addsd	 xmm1, xmm2
  00350	66 0f 5a c1	 cvtpd2ps xmm0, xmm1
  00354	0f 5a c0	 cvtps2pd xmm0, xmm0
  00357	a5		 movsd

; 472  : 	vCharDir.y = 0.0f;
; 473  : 	D3DXVec3Normalize( &vCharDir, &vCharDir );

  00358	8d 45 cc	 lea	 eax, DWORD PTR _vCharDir$[ebp]
  0035b	f2 0f 51 c0	 sqrtsd	 xmm0, xmm0
  0035f	66 0f 5a c0	 cvtpd2ps xmm0, xmm0
  00363	50		 push	 eax
  00364	f3 0f 11 83 04
	10 00 00	 movss	 DWORD PTR [ebx+4100], xmm0
  0036c	0f 57 c0	 xorps	 xmm0, xmm0
  0036f	a5		 movsd
  00370	50		 push	 eax
  00371	f3 0f 11 45 d0	 movss	 DWORD PTR _vCharDir$[ebp+4], xmm0
  00376	e8 00 00 00 00	 call	 _D3DXVec3Normalize@8

; 474  : 	D3DXVec3Normalize( &m_vAttackDir, &m_vAttackDir );

  0037b	8d 83 f8 0f 00
	00		 lea	 eax, DWORD PTR [ebx+4088]
  00381	50		 push	 eax
  00382	50		 push	 eax
  00383	e8 00 00 00 00	 call	 _D3DXVec3Normalize@8

; 475  : 
; 476  : 	D3DXQUATERNION qtRot;
; 477  : 	ioMath::CalcDirectionQuaternion( qtRot, -vCharDir );

  00388	f3 0f 10 05 00
	00 00 00	 movss	 xmm0, DWORD PTR __mask@@NegFloat@
  00390	f3 0f 10 4d cc	 movss	 xmm1, DWORD PTR _vCharDir$[ebp]
  00395	f3 0f 10 55 d0	 movss	 xmm2, DWORD PTR _vCharDir$[ebp+4]
  0039a	f3 0f 10 5d d4	 movss	 xmm3, DWORD PTR _vCharDir$[ebp+8]
  0039f	8d 45 e4	 lea	 eax, DWORD PTR $T569985[ebp]
  003a2	50		 push	 eax
  003a3	8d 85 70 75 ff
	ff		 lea	 eax, DWORD PTR _qtRot$[ebp]
  003a9	0f 57 c8	 xorps	 xmm1, xmm0
  003ac	0f 57 d0	 xorps	 xmm2, xmm0
  003af	0f 57 d8	 xorps	 xmm3, xmm0
  003b2	50		 push	 eax
  003b3	f3 0f 11 4d e4	 movss	 DWORD PTR $T569985[ebp], xmm1
  003b8	f3 0f 11 55 e8	 movss	 DWORD PTR $T569985[ebp+4], xmm2
  003bd	f3 0f 11 5d ec	 movss	 DWORD PTR $T569985[ebp+8], xmm3
  003c2	ff 15 00 00 00
	00		 call	 DWORD PTR __imp_?CalcDirectionQuaternion@ioMath@@SAXAAUD3DXQUATERNION@@ABUD3DXVECTOR3@@@Z
  003c8	59		 pop	 ecx
  003c9	59		 pop	 ecx

; 478  : 	pChar->SetTargetRotAndMoveDirChange( qtRot, false );

  003ca	6a 00		 push	 0
  003cc	8d 85 70 75 ff
	ff		 lea	 eax, DWORD PTR _qtRot$[ebp]
  003d2	50		 push	 eax
  003d3	8b b5 c8 75 ff
	ff		 mov	 esi, DWORD PTR _pChar$GSCopy$[ebp]
  003d9	8b ce		 mov	 ecx, esi
  003db	e8 00 00 00 00	 call	 ?SetTargetRotAndMoveDirChange@ioBaseChar@@QAEXABUD3DXQUATERNION@@_N@Z ; ioBaseChar::SetTargetRotAndMoveDirChange

; 479  : 	pChar->SetWorldOrientation( qtRot );

  003e0	8b 06		 mov	 eax, DWORD PTR [esi]
  003e2	8d 8d 70 75 ff
	ff		 lea	 ecx, DWORD PTR _qtRot$[ebp]
  003e8	51		 push	 ecx
  003e9	8b ce		 mov	 ecx, esi
  003eb	ff 50 48	 call	 DWORD PTR [eax+72]

; 480  : 
; 481  : 	// WeaponMove
; 482  : 	DWORD dwSeed = pChar->GetRandomSeed();

  003ee	8b be 74 16 00
	00		 mov	 edi, DWORD PTR [esi+5748]

; 483  : 	IORandom random;

  003f4	8d 8d ec f5 ff
	ff		 lea	 ecx, DWORD PTR _random$[ebp]
  003fa	e8 00 00 00 00	 call	 ??0IORandom@@QAE@XZ	; IORandom::IORandom
  003ff	83 65 fc 00	 and	 DWORD PTR __$EHRec$[ebp+8], 0

; 484  : 	random.SetRandomSeed( dwSeed );

  00403	57		 push	 edi
  00404	8d 8d ec f5 ff
	ff		 lea	 ecx, DWORD PTR _random$[ebp]
  0040a	e8 00 00 00 00	 call	 ?SetRandomSeed@IORandom@@QAEXI@Z ; IORandom::SetRandomSeed

; 485  : 
; 486  : 	m_iCurWeaponCnt = 0;

  0040f	83 a3 70 10 00
	00 00		 and	 DWORD PTR [ebx+4208], 0

; 487  : 	m_vWeaponMoveInfoList.clear();

  00416	8d 8b 04 11 00
	00		 lea	 ecx, DWORD PTR [ebx+4356]
  0041c	8b 41 04	 mov	 eax, DWORD PTR [ecx+4]
  0041f	8b 11		 mov	 edx, DWORD PTR [ecx]
  00421	50		 push	 eax
  00422	52		 push	 edx
  00423	8d 85 a0 75 ff
	ff		 lea	 eax, DWORD PTR $T582160[ebp]
  00429	50		 push	 eax
  0042a	e8 00 00 00 00	 call	 ?erase@?$vector@UWeaponMoveInfo@@V?$allocator@UWeaponMoveInfo@@@std@@@std@@QAE?AV?$_Vector_iterator@V?$_Vector_val@UWeaponMoveInfo@@V?$allocator@UWeaponMoveInfo@@@std@@@std@@@2@V?$_Vector_const_iterator@V?$_Vector_val@UWeaponMoveInfo@@V?$allocator@UWeaponMoveInfo@@@std@@@std@@@2@0@Z ; std::vector<WeaponMoveInfo,std::allocator<WeaponMoveInfo> >::erase

; 488  : 
; 489  : 	int iAttackCnt = m_AttackAttribute.m_vWeaponInfoList.size();

  0042f	8b 83 b8 0f 00
	00		 mov	 eax, DWORD PTR [ebx+4024]
  00435	2b 83 b4 0f 00
	00		 sub	 eax, DWORD PTR [ebx+4020]
  0043b	6a 28		 push	 40			; 00000028H
  0043d	99		 cdq
  0043e	59		 pop	 ecx
  0043f	f7 f9		 idiv	 ecx

; 490  : 	for( int i=0; i < iAttackCnt; ++i )

  00441	85 c0		 test	 eax, eax
  00443	0f 8e 94 03 00
	00		 jle	 $LN7@SetActionS

; 465  : 		}
; 466  : 	}
; 467  : 
; 468  : 	// CharDir
; 469  : 	m_vAttackDir = m_vCirclePos - pChar->GetWorldPosition();

  00449	89 85 cc 75 ff
	ff		 mov	 DWORD PTR tv1049[ebp], eax
$LL9@SetActionS:

; 491  : 	{
; 492  : 		D3DXVECTOR3 vPos = m_vCirclePos;

  0044f	8d b3 ec 0f 00
	00		 lea	 esi, DWORD PTR [ebx+4076]
  00455	8d 7d e4	 lea	 edi, DWORD PTR _vPos$569993[ebp]
  00458	a5		 movsd
  00459	a5		 movsd

; 493  : 		if( m_fRandomRange > 0.0f )

  0045a	8d 85 80 75 ff
	ff		 lea	 eax, DWORD PTR _value$582189[ebp]
  00460	50		 push	 eax
  00461	8d 8b d4 10 00
	00		 lea	 ecx, DWORD PTR [ebx+4308]
  00467	a5		 movsd
  00468	e8 00 00 00 00	 call	 ?DecryptValueToPool@?$CEncrypt@M@@QAEXPAM@Z ; CEncrypt<float>::DecryptValueToPool
  0046d	f3 0f 10 85 80
	75 ff ff	 movss	 xmm0, DWORD PTR _value$582189[ebp]
  00475	0f 2f 05 00 00
	00 00		 comiss	 xmm0, DWORD PTR __real@00000000
  0047c	0f 86 c9 00 00
	00		 jbe	 $LN6@SetActionS

; 494  : 		{
; 495  : 			int iAngle = random.Random( 360 );

  00482	68 68 01 00 00	 push	 360			; 00000168H
  00487	8d 8d ec f5 ff
	ff		 lea	 ecx, DWORD PTR _random$[ebp]
  0048d	e8 00 00 00 00	 call	 ?Random@IORandom@@QAEII@Z ; IORandom::Random
  00492	89 85 c4 75 ff
	ff		 mov	 DWORD PTR _iAngle$569996[ebp], eax

; 496  : 			int iRange = (int)(m_fRandomRange);

  00498	8d 85 90 75 ff
	ff		 lea	 eax, DWORD PTR _value$582193[ebp]
  0049e	50		 push	 eax
  0049f	8d 8b d4 10 00
	00		 lea	 ecx, DWORD PTR [ebx+4308]
  004a5	e8 00 00 00 00	 call	 ?DecryptValueToPool@?$CEncrypt@M@@QAEXPAM@Z ; CEncrypt<float>::DecryptValueToPool

; 497  : 			iRange = random.Random(iRange);

  004aa	d9 85 90 75 ff
	ff		 fld	 DWORD PTR _value$582193[ebp]
  004b0	e8 00 00 00 00	 call	 __ftol2
  004b5	50		 push	 eax
  004b6	8d 8d ec f5 ff
	ff		 lea	 ecx, DWORD PTR _random$[ebp]
  004bc	e8 00 00 00 00	 call	 ?Random@IORandom@@QAEII@Z ; IORandom::Random

; 498  : 
; 499  : 			int iXPos = cos((double) iAngle ) * iRange;

  004c1	db 85 c4 75 ff
	ff		 fild	 DWORD PTR _iAngle$569996[ebp]
  004c7	89 85 b8 75 ff
	ff		 mov	 DWORD PTR _iRange$569997[ebp], eax
  004cd	dd 9d c0 75 ff
	ff		 fstp	 QWORD PTR tv1253[ebp]
  004d3	db 85 b8 75 ff
	ff		 fild	 DWORD PTR _iRange$569997[ebp]
  004d9	dd 9d b4 75 ff
	ff		 fstp	 QWORD PTR tv1255[ebp]
  004df	dd 85 c0 75 ff
	ff		 fld	 QWORD PTR tv1253[ebp]
  004e5	e8 00 00 00 00	 call	 __CIcos
  004ea	dc 8d b4 75 ff
	ff		 fmul	 QWORD PTR tv1255[ebp]
  004f0	e8 00 00 00 00	 call	 __ftol2_sse

; 500  : 			int iZPos = sin((double) iAngle ) * iRange;

  004f5	dd 85 c0 75 ff
	ff		 fld	 QWORD PTR tv1253[ebp]
  004fb	8b f0		 mov	 esi, eax
  004fd	e8 00 00 00 00	 call	 __CIsin
  00502	dc 8d b4 75 ff
	ff		 fmul	 QWORD PTR tv1255[ebp]
  00508	e8 00 00 00 00	 call	 __ftol2_sse

; 501  : 			vPos.x += iXPos;

  0050d	f3 0f 10 4d e4	 movss	 xmm1, DWORD PTR _vPos$569993[ebp]
  00512	0f 57 c0	 xorps	 xmm0, xmm0
  00515	f3 0f 2a c6	 cvtsi2ss xmm0, esi
  00519	0f 5a c0	 cvtps2pd xmm0, xmm0
  0051c	0f 5a c9	 cvtps2pd xmm1, xmm1
  0051f	f2 0f 58 c1	 addsd	 xmm0, xmm1

; 502  : 			vPos.z += iZPos;

  00523	f3 0f 10 4d ec	 movss	 xmm1, DWORD PTR _vPos$569993[ebp+8]
  00528	66 0f 5a c0	 cvtpd2ps xmm0, xmm0
  0052c	f3 0f 11 45 e4	 movss	 DWORD PTR _vPos$569993[ebp], xmm0
  00531	0f 57 c0	 xorps	 xmm0, xmm0
  00534	f3 0f 2a c0	 cvtsi2ss xmm0, eax
  00538	0f 5a c0	 cvtps2pd xmm0, xmm0
  0053b	0f 5a c9	 cvtps2pd xmm1, xmm1
  0053e	f2 0f 58 c1	 addsd	 xmm0, xmm1
  00542	66 0f 5a c0	 cvtpd2ps xmm0, xmm0
  00546	f3 0f 11 45 ec	 movss	 DWORD PTR _vPos$569993[ebp+8], xmm0
$LN6@SetActionS:

; 503  : 		}
; 504  : 
; 505  : 		D3DXVECTOR3 vDir = vPos - pChar->GetWorldPosition();

  0054b	8b 8d c8 75 ff
	ff		 mov	 ecx, DWORD PTR _pChar$GSCopy$[ebp]
  00551	8b 01		 mov	 eax, DWORD PTR [ecx]
  00553	ff 50 70	 call	 DWORD PTR [eax+112]
  00556	f3 0f 10 08	 movss	 xmm1, DWORD PTR [eax]
  0055a	f3 0f 10 45 e4	 movss	 xmm0, DWORD PTR _vPos$569993[ebp]
  0055f	f3 0f 10 50 08	 movss	 xmm2, DWORD PTR [eax+8]
  00564	0f 5a c9	 cvtps2pd xmm1, xmm1
  00567	0f 5a c0	 cvtps2pd xmm0, xmm0
  0056a	f2 0f 5c c1	 subsd	 xmm0, xmm1
  0056e	f3 0f 10 4d ec	 movss	 xmm1, DWORD PTR _vPos$569993[ebp+8]
  00573	f2 0f 5a c0	 cvtsd2ss xmm0, xmm0
  00577	0f 5a c9	 cvtps2pd xmm1, xmm1
  0057a	0f 5a d2	 cvtps2pd xmm2, xmm2
  0057d	f2 0f 5c ca	 subsd	 xmm1, xmm2
  00581	f3 0f 11 45 d8	 movss	 DWORD PTR _vDir$570003[ebp], xmm0

; 506  : 		vDir.y = 0.0f;

  00586	0f 57 c0	 xorps	 xmm0, xmm0
  00589	f2 0f 5a c9	 cvtsd2ss xmm1, xmm1
  0058d	f3 0f 11 4d e0	 movss	 DWORD PTR _vDir$570003[ebp+8], xmm1
  00592	f3 0f 11 45 dc	 movss	 DWORD PTR _vDir$570003[ebp+4], xmm0

; 507  : 
; 508  : 		float fRate = FLOAT1;

  00597	b8 01 00 00 00	 mov	 eax, 1

; 509  : 		float fRange = D3DXVec3Length( &vDir );

  0059c	f3 0f 10 45 dc	 movss	 xmm0, DWORD PTR _vDir$570003[ebp+4]
  005a1	f3 0f 10 4d d8	 movss	 xmm1, DWORD PTR _vDir$570003[ebp]
  005a6	f3 0f 10 55 e0	 movss	 xmm2, DWORD PTR _vDir$570003[ebp+8]
  005ab	0f 5a c0	 cvtps2pd xmm0, xmm0
  005ae	f2 0f 59 c0	 mulsd	 xmm0, xmm0
  005b2	0f 5a c9	 cvtps2pd xmm1, xmm1
  005b5	f2 0f 59 c9	 mulsd	 xmm1, xmm1
  005b9	f2 0f 58 c8	 addsd	 xmm1, xmm0
  005bd	0f 57 c0	 xorps	 xmm0, xmm0
  005c0	0f 5a d2	 cvtps2pd xmm2, xmm2
  005c3	f2 0f 59 d2	 mulsd	 xmm2, xmm2

; 510  : 		D3DXVec3Normalize( &vDir, &vDir );

  005c7	8d 45 d8	 lea	 eax, DWORD PTR _vDir$570003[ebp]
  005ca	f2 0f 58 ca	 addsd	 xmm1, xmm2
  005ce	66 0f 5a c1	 cvtpd2ps xmm0, xmm1
  005d2	0f 5a c0	 cvtps2pd xmm0, xmm0
  005d5	50		 push	 eax
  005d6	f2 0f 51 c0	 sqrtsd	 xmm0, xmm0
  005da	66 0f 5a c0	 cvtpd2ps xmm0, xmm0
  005de	50		 push	 eax
  005df	f3 0f 11 85 9c
	75 ff ff	 movss	 DWORD PTR _fRange$570007[ebp], xmm0
  005e7	e8 00 00 00 00	 call	 _D3DXVec3Normalize@8

; 511  : 
; 512  : 		float fCurWeaponFloatPower = 0.0f;

  005ec	0f 57 c0	 xorps	 xmm0, xmm0

; 513  : 		float fCurWeaponMoveSpeed = 0.0f;
; 514  : 		if( fRange > 0.0f )

  005ef	f3 0f 10 95 9c
	75 ff ff	 movss	 xmm2, DWORD PTR _fRange$570007[ebp]
  005f7	0f 2f d0	 comiss	 xmm2, xmm0
  005fa	0f 28 c8	 movaps	 xmm1, xmm0
  005fd	0f 86 a6 01 00
	00		 jbe	 $LN5@SetActionS

; 515  : 		{
; 516  : 			fRate = fRange / (m_fCircleRange+m_fRandomRange);

  00603	8d 85 98 75 ff
	ff		 lea	 eax, DWORD PTR _value$582222[ebp]
  00609	50		 push	 eax
  0060a	8d 8b d4 10 00
	00		 lea	 ecx, DWORD PTR [ebx+4308]
  00610	e8 00 00 00 00	 call	 ?DecryptValueToPool@?$CEncrypt@M@@QAEXPAM@Z ; CEncrypt<float>::DecryptValueToPool
  00615	f3 0f 10 8b dc
	0f 00 00	 movss	 xmm1, DWORD PTR [ebx+4060]
  0061d	f3 0f 10 95 98
	75 ff ff	 movss	 xmm2, DWORD PTR _value$582222[ebp]
  00625	f3 0f 10 85 9c
	75 ff ff	 movss	 xmm0, DWORD PTR _fRange$570007[ebp]
  0062d	0f 5a c0	 cvtps2pd xmm0, xmm0
  00630	0f 5a c9	 cvtps2pd xmm1, xmm1
  00633	0f 5a d2	 cvtps2pd xmm2, xmm2
  00636	f2 0f 58 ca	 addsd	 xmm1, xmm2

; 517  : 
; 518  : 			// CurFloat
; 519  : 			fCurWeaponFloatPower = m_fWeaponFloatPower * fRate;

  0063a	8d 85 8c 75 ff
	ff		 lea	 eax, DWORD PTR _value$582226[ebp]
  00640	f2 0f 5e c1	 divsd	 xmm0, xmm1
  00644	f2 0f 5a c0	 cvtsd2ss xmm0, xmm0
  00648	50		 push	 eax
  00649	8d 8b 74 10 00
	00		 lea	 ecx, DWORD PTR [ebx+4212]
  0064f	f3 0f 11 85 a4
	75 ff ff	 movss	 DWORD PTR _fRate$570005[ebp], xmm0
  00657	e8 00 00 00 00	 call	 ?DecryptValueToPool@?$CEncrypt@M@@QAEXPAM@Z ; CEncrypt<float>::DecryptValueToPool
  0065c	f3 0f 10 85 8c
	75 ff ff	 movss	 xmm0, DWORD PTR _value$582226[ebp]
  00664	f3 0f 10 8d a4
	75 ff ff	 movss	 xmm1, DWORD PTR _fRate$570005[ebp]
  0066c	0f 5a c0	 cvtps2pd xmm0, xmm0
  0066f	0f 5a c9	 cvtps2pd xmm1, xmm1

; 520  : 			fCurWeaponFloatPower = max( fCurWeaponFloatPower, m_fWeaponFloatMinPower );

  00672	8d 85 94 75 ff
	ff		 lea	 eax, DWORD PTR _value$582230[ebp]
  00678	f2 0f 59 c1	 mulsd	 xmm0, xmm1
  0067c	66 0f 5a c0	 cvtpd2ps xmm0, xmm0
  00680	50		 push	 eax
  00681	8d 8b a4 10 00
	00		 lea	 ecx, DWORD PTR [ebx+4260]
  00687	f3 0f 11 85 d0
	75 ff ff	 movss	 DWORD PTR _fCurWeaponFloatPower$570008[ebp], xmm0
  0068f	e8 00 00 00 00	 call	 ?DecryptValueToPool@?$CEncrypt@M@@QAEXPAM@Z ; CEncrypt<float>::DecryptValueToPool
  00694	f3 0f 10 85 d0
	75 ff ff	 movss	 xmm0, DWORD PTR _fCurWeaponFloatPower$570008[ebp]
  0069c	f3 0f 10 8d 94
	75 ff ff	 movss	 xmm1, DWORD PTR _value$582230[ebp]
  006a4	0f 5a c0	 cvtps2pd xmm0, xmm0
  006a7	0f 5a c9	 cvtps2pd xmm1, xmm1
  006aa	66 0f 2f c1	 comisd	 xmm0, xmm1
  006ae	77 22		 ja	 SHORT $LN24@SetActionS
  006b0	8d 85 88 75 ff
	ff		 lea	 eax, DWORD PTR _value$582234[ebp]
  006b6	50		 push	 eax
  006b7	8d 8b a4 10 00
	00		 lea	 ecx, DWORD PTR [ebx+4260]
  006bd	e8 00 00 00 00	 call	 ?DecryptValueToPool@?$CEncrypt@M@@QAEXPAM@Z ; CEncrypt<float>::DecryptValueToPool
  006c2	f3 0f 10 85 88
	75 ff ff	 movss	 xmm0, DWORD PTR _value$582234[ebp]
  006ca	f3 0f 11 85 d0
	75 ff ff	 movss	 DWORD PTR _fCurWeaponFloatPower$570008[ebp], xmm0
$LN24@SetActionS:

; 521  : 
; 522  : 			float fCurGravity = 0.0f;

  006d2	0f 57 c0	 xorps	 xmm0, xmm0
  006d5	f3 0f 11 85 ac
	75 ff ff	 movss	 DWORD PTR _fCurGravity$570011[ebp], xmm0

; 523  : 			float fWeaponMoveSpeed = 0.0f;

  006dd	f3 0f 11 85 a8
	75 ff ff	 movss	 DWORD PTR _fWeaponMoveSpeed$570012[ebp], xmm0

; 524  : 			ioPlayStage *pStage = g_SkillMaker.GetPlayStage();

  006e5	e8 00 00 00 00	 call	 ?GetSingleton@ioSkillMaker@@SAAAV1@XZ ; ioSkillMaker::GetSingleton
  006ea	8b c8		 mov	 ecx, eax
  006ec	e8 00 00 00 00	 call	 ?GetPlayStage@ioSkillMaker@@QAEPAVioPlayStage@@XZ ; ioSkillMaker::GetPlayStage

; 525  : 			if( pStage )

  006f1	85 c0		 test	 eax, eax
  006f3	74 0d		 je	 SHORT $LN4@SetActionS

; 526  : 				fCurGravity = pStage->GetRoomGravity();

  006f5	8b c8		 mov	 ecx, eax
  006f7	e8 00 00 00 00	 call	 ?GetRoomGravity@ioPlayStage@@QAEMXZ ; ioPlayStage::GetRoomGravity
  006fc	d9 9d ac 75 ff
	ff		 fstp	 DWORD PTR _fCurGravity$570011[ebp]
$LN4@SetActionS:

; 527  : 
; 528  : 			float fFlightDuration = GetFlightDuration( fCurGravity, fCurWeaponFloatPower );

  00702	f3 0f 10 85 d0
	75 ff ff	 movss	 xmm0, DWORD PTR _fCurWeaponFloatPower$570008[ebp]
  0070a	51		 push	 ecx
  0070b	51		 push	 ecx
  0070c	f3 0f 11 44 24
	04		 movss	 DWORD PTR [esp+4], xmm0
  00712	f3 0f 10 85 ac
	75 ff ff	 movss	 xmm0, DWORD PTR _fCurGravity$570011[ebp]
  0071a	8b cb		 mov	 ecx, ebx
  0071c	f3 0f 11 04 24	 movss	 DWORD PTR [esp], xmm0
  00721	e8 00 00 00 00	 call	 ?GetFlightDuration@ioCircleMoveWeaponSkill@@IAEMMM@Z ; ioCircleMoveWeaponSkill::GetFlightDuration
  00726	d9 9d c4 75 ff
	ff		 fstp	 DWORD PTR _fFlightDuration$570015[ebp]

; 529  : 			if( fFlightDuration > 0.0f )

  0072c	d9 ee		 fldz
  0072e	d9 85 c4 75 ff
	ff		 fld	 DWORD PTR _fFlightDuration$570015[ebp]
  00734	df f1		 fcomip	 ST(1)
  00736	dd d8		 fstp	 ST(0)
  00738	76 49		 jbe	 SHORT $LN3@SetActionS

; 530  : 			{
; 531  : 				fWeaponMoveSpeed = (m_fCircleRange+m_fRandomRange) / (fFlightDuration / FLOAT1000);

  0073a	8d 85 a0 75 ff
	ff		 lea	 eax, DWORD PTR _value$582238[ebp]
  00740	50		 push	 eax
  00741	8d 8b d4 10 00
	00		 lea	 ecx, DWORD PTR [ebx+4308]
  00747	e8 00 00 00 00	 call	 ?DecryptValueToPool@?$CEncrypt@M@@QAEXPAM@Z ; CEncrypt<float>::DecryptValueToPool
  0074c	b8 e8 03 00 00	 mov	 eax, 1000		; 000003e8H
  00751	d9 83 dc 0f 00
	00		 fld	 DWORD PTR [ebx+4060]
  00757	d8 85 a0 75 ff
	ff		 fadd	 DWORD PTR _value$582238[ebp]
  0075d	89 85 b8 75 ff
	ff		 mov	 DWORD PTR tv1285[ebp], eax
  00763	d9 85 c4 75 ff
	ff		 fld	 DWORD PTR _fFlightDuration$570015[ebp]
  00769	db 85 b8 75 ff
	ff		 fild	 DWORD PTR tv1285[ebp]
  0076f	85 c0		 test	 eax, eax
  00771	79 06		 jns	 SHORT $LN132@SetActionS
  00773	d8 05 00 00 00
	00		 fadd	 DWORD PTR __real@4f800000
$LN132@SetActionS:
  00779	de f9		 fdivp	 ST(1), ST(0)
  0077b	de f9		 fdivp	 ST(1), ST(0)
  0077d	d9 9d a8 75 ff
	ff		 fstp	 DWORD PTR _fWeaponMoveSpeed$570012[ebp]
$LN3@SetActionS:

; 532  : 			}
; 533  : 
; 534  : 			fCurWeaponMoveSpeed = fWeaponMoveSpeed * fRate;

  00783	f3 0f 10 85 a8
	75 ff ff	 movss	 xmm0, DWORD PTR _fWeaponMoveSpeed$570012[ebp]
  0078b	f3 0f 10 8d a4
	75 ff ff	 movss	 xmm1, DWORD PTR _fRate$570005[ebp]
  00793	0f 5a c0	 cvtps2pd xmm0, xmm0
  00796	0f 5a c9	 cvtps2pd xmm1, xmm1
  00799	f2 0f 59 c1	 mulsd	 xmm0, xmm1
  0079d	f3 0f 10 8d d0
	75 ff ff	 movss	 xmm1, DWORD PTR _fCurWeaponFloatPower$570008[ebp]
  007a5	f2 0f 5a c0	 cvtsd2ss xmm0, xmm0
$LN5@SetActionS:

; 535  : 		}
; 536  : 
; 537  : 		WeaponMoveInfo kInfo;
; 538  : 		kInfo.m_vMoveDir = vDir;

  007a9	8d 75 d8	 lea	 esi, DWORD PTR _vDir$570003[ebp]
  007ac	8d 7d b8	 lea	 edi, DWORD PTR _kInfo$570018[ebp]
  007af	a5		 movsd
  007b0	a5		 movsd

; 539  : 		kInfo.m_fMoveSpeed = fCurWeaponMoveSpeed;
; 540  : 		kInfo.m_fFloatPower = fCurWeaponFloatPower;
; 541  : 
; 542  : 		m_vWeaponMoveInfoList.push_back( kInfo );

  007b1	8d 45 b8	 lea	 eax, DWORD PTR _kInfo$570018[ebp]
  007b4	a5		 movsd
  007b5	50		 push	 eax
  007b6	8d 8b 04 11 00
	00		 lea	 ecx, DWORD PTR [ebx+4356]
  007bc	f3 0f 11 45 c4	 movss	 DWORD PTR _kInfo$570018[ebp+12], xmm0
  007c1	f3 0f 11 4d c8	 movss	 DWORD PTR _kInfo$570018[ebp+16], xmm1
  007c6	e8 00 00 00 00	 call	 ?push_back@?$vector@UWeaponMoveInfo@@V?$allocator@UWeaponMoveInfo@@@std@@@std@@QAEXABUWeaponMoveInfo@@@Z ; std::vector<WeaponMoveInfo,std::allocator<WeaponMoveInfo> >::push_back
  007cb	ff 8d cc 75 ff
	ff		 dec	 DWORD PTR tv1049[ebp]
  007d1	0f 85 78 fc ff
	ff		 jne	 $LL9@SetActionS

; 490  : 	for( int i=0; i < iAttackCnt; ++i )

  007d7	8b b5 c8 75 ff
	ff		 mov	 esi, DWORD PTR _pChar$GSCopy$[ebp]
$LN7@SetActionS:

; 543  : 	}
; 544  : 
; 545  : 	EndPreDelayEffect( pChar );

  007dd	8b 03		 mov	 eax, DWORD PTR [ebx]
  007df	56		 push	 esi
  007e0	8b cb		 mov	 ecx, ebx
  007e2	ff 90 dc 00 00
	00		 call	 DWORD PTR [eax+220]

; 546  : 	SetNormalSkill( pChar );

  007e8	8b 03		 mov	 eax, DWORD PTR [ebx]
  007ea	56		 push	 esi
  007eb	8b cb		 mov	 ecx, ebx
  007ed	ff 90 8c 01 00
	00		 call	 DWORD PTR [eax+396]

; 547  : 
; 548  : 	//   
; 549  : 	if( !m_bSetHandMesh && m_bUseItemMesh && !m_HandMesh.IsEmpty() )

  007f3	80 bb 0a 0f 00
	00 00		 cmp	 BYTE PTR [ebx+3850], 0
  007fa	75 33		 jne	 SHORT $LN2@SetActionS
  007fc	80 bb 08 0f 00
	00 00		 cmp	 BYTE PTR [ebx+3848], 0
  00803	74 2a		 je	 SHORT $LN2@SetActionS
  00805	8d bb f8 0e 00
	00		 lea	 edi, DWORD PTR [ebx+3832]
  0080b	8b cf		 mov	 ecx, edi
  0080d	ff 15 00 00 00
	00		 call	 DWORD PTR __imp_?IsEmpty@ioHashString@@QBE_NXZ
  00813	84 c0		 test	 al, al
  00815	75 18		 jne	 SHORT $LN2@SetActionS

; 550  : 	{
; 551  : 		pChar->ChangeSkillWeaponMesh( this, m_HandMesh, m_bVisibleEquipMesh );

  00817	0f b6 83 09 0f
	00 00		 movzx	 eax, BYTE PTR [ebx+3849]
  0081e	50		 push	 eax
  0081f	57		 push	 edi
  00820	53		 push	 ebx
  00821	8b ce		 mov	 ecx, esi
  00823	e8 00 00 00 00	 call	 ?ChangeSkillWeaponMesh@ioBaseChar@@QAE_NPAVioSkill@@ABVioHashString@@_N@Z ; ioBaseChar::ChangeSkillWeaponMesh

; 552  : 		m_bSetHandMesh = true;

  00828	c6 83 0a 0f 00
	00 01		 mov	 BYTE PTR [ebx+3850], 1
$LN2@SetActionS:

; 553  : 	}
; 554  : 
; 555  : 	if( pChar->IsNeedSendNetwork() )

  0082f	8b 06		 mov	 eax, DWORD PTR [esi]
  00831	8b ce		 mov	 ecx, esi
  00833	ff 90 04 01 00
	00		 call	 DWORD PTR [eax+260]
  00839	84 c0		 test	 al, al
  0083b	74 53		 je	 SHORT $LN1@SetActionS

; 556  : 	{
; 557  : 		SP2Packet kPacket( CUPK_SKILL_EXTRA_INFO );

  0083d	68 39 41 00 00	 push	 16697			; 00004139H
  00842	8d 8d d4 75 ff
	ff		 lea	 ecx, DWORD PTR _kPacket$570021[ebp]
  00848	e8 00 00 00 00	 call	 ??0SP2Packet@@QAE@K@Z	; SP2Packet::SP2Packet

; 558  : 		kPacket << pChar->GetCharName();

  0084d	ff b5 84 75 ff
	ff		 push	 DWORD PTR tv1121[ebp]
  00853	8d 8d d4 75 ff
	ff		 lea	 ecx, DWORD PTR _kPacket$570021[ebp]
  00859	c6 45 fc 01	 mov	 BYTE PTR __$EHRec$[ebp+8], 1
  0085d	e8 00 00 00 00	 call	 ??6SP2Packet@@QAEAAV0@ABVioHashString@@@Z ; SP2Packet::operator<<

; 559  : 		kPacket << GetName();

  00862	83 c3 24	 add	 ebx, 36			; 00000024H
  00865	53		 push	 ebx
  00866	8d 8d d4 75 ff
	ff		 lea	 ecx, DWORD PTR _kPacket$570021[ebp]
  0086c	e8 00 00 00 00	 call	 ??6SP2Packet@@QAEAAV0@ABVioHashString@@@Z ; SP2Packet::operator<<

; 560  : 		P2PNetwork::SendToAllPlayingUser( kPacket );

  00871	8d 85 d4 75 ff
	ff		 lea	 eax, DWORD PTR _kPacket$570021[ebp]
  00877	6a 00		 push	 0
  00879	50		 push	 eax
  0087a	e8 00 00 00 00	 call	 ?SendToAllPlayingUser@P2PNetwork@@YAXAAVSP2Packet@@PAVioBaseChar@@@Z ; P2PNetwork::SendToAllPlayingUser
  0087f	59		 pop	 ecx
  00880	59		 pop	 ecx

; 561  : 	}

  00881	8d 8d d4 75 ff
	ff		 lea	 ecx, DWORD PTR _kPacket$570021[ebp]
  00887	c6 45 fc 00	 mov	 BYTE PTR __$EHRec$[ebp+8], 0
  0088b	e8 00 00 00 00	 call	 ??1SP2Packet@@UAE@XZ	; SP2Packet::~SP2Packet
$LN1@SetActionS:

; 562  : }

  00890	83 4d fc ff	 or	 DWORD PTR __$EHRec$[ebp+8], -1
  00894	8d 8d ec f5 ff
	ff		 lea	 ecx, DWORD PTR _random$[ebp]
  0089a	e8 00 00 00 00	 call	 ??1IORandom@@UAE@XZ	; IORandom::~IORandom
  0089f	8b 4d f4	 mov	 ecx, DWORD PTR __$EHRec$[ebp]
  008a2	64 89 0d 00 00
	00 00		 mov	 DWORD PTR fs:0, ecx
  008a9	59		 pop	 ecx
  008aa	5f		 pop	 edi
  008ab	5e		 pop	 esi
  008ac	5b		 pop	 ebx
  008ad	8b 4d f0	 mov	 ecx, DWORD PTR __$ArrayPad$[ebp]
  008b0	33 cd		 xor	 ecx, ebp
  008b2	e8 00 00 00 00	 call	 @__security_check_cookie@4
  008b7	c9		 leave
  008b8	c2 08 00	 ret	 8
_TEXT	ENDS
;	COMDAT text$x
text$x	SEGMENT
__unwindfunclet$?SetActionState@ioCircleMoveWeaponSkill@@IAEXPAVioBaseChar@@PAVioPlayStage@@@Z$0:
  00000	8d 8d ec f5 ff
	ff		 lea	 ecx, DWORD PTR _random$[ebp]
  00006	e9 00 00 00 00	 jmp	 ??1IORandom@@UAE@XZ	; IORandom::~IORandom
__unwindfunclet$?SetActionState@ioCircleMoveWeaponSkill@@IAEXPAVioBaseChar@@PAVioPlayStage@@@Z$1:
  0000b	8d 8d d4 75 ff
	ff		 lea	 ecx, DWORD PTR _kPacket$570021[ebp]
  00011	e9 00 00 00 00	 jmp	 ??1SP2Packet@@UAE@XZ	; SP2Packet::~SP2Packet
__ehhandler$?SetActionState@ioCircleMoveWeaponSkill@@IAEXPAVioBaseChar@@PAVioPlayStage@@@Z:
  00016	8b 54 24 08	 mov	 edx, DWORD PTR [esp+8]
  0001a	8d 42 0c	 lea	 eax, DWORD PTR [edx+12]
  0001d	8b 8a 6c 75 ff
	ff		 mov	 ecx, DWORD PTR [edx-35476]
  00023	33 c8		 xor	 ecx, eax
  00025	e8 00 00 00 00	 call	 @__security_check_cookie@4
  0002a	8b 4a fc	 mov	 ecx, DWORD PTR [edx-4]
  0002d	33 c8		 xor	 ecx, eax
  0002f	e8 00 00 00 00	 call	 @__security_check_cookie@4
  00034	b8 00 00 00 00	 mov	 eax, OFFSET __ehfuncinfo$?SetActionState@ioCircleMoveWeaponSkill@@IAEXPAVioBaseChar@@PAVioPlayStage@@@Z
  00039	e9 00 00 00 00	 jmp	 ___CxxFrameHandler3
text$x	ENDS
?SetActionState@ioCircleMoveWeaponSkill@@IAEXPAVioBaseChar@@PAVioPlayStage@@@Z ENDP ; ioCircleMoveWeaponSkill::SetActionState
PUBLIC	?ApplyExtraSkillInfo@ioCircleMoveWeaponSkill@@UAEXPAVioBaseChar@@PAVioPlayStage@@AAVSP2Packet@@@Z ; ioCircleMoveWeaponSkill::ApplyExtraSkillInfo
; Function compile flags: /Ogsp
;	COMDAT ?ApplyExtraSkillInfo@ioCircleMoveWeaponSkill@@UAEXPAVioBaseChar@@PAVioPlayStage@@AAVSP2Packet@@@Z
_TEXT	SEGMENT
_pChar$ = 8						; size = 4
_pStage$ = 12						; size = 4
_rkPacket$ = 16						; size = 4
?ApplyExtraSkillInfo@ioCircleMoveWeaponSkill@@UAEXPAVioBaseChar@@PAVioPlayStage@@AAVSP2Packet@@@Z PROC ; ioCircleMoveWeaponSkill::ApplyExtraSkillInfo, COMDAT
; _this$ = ecx

; 565  : {

  00000	55		 push	 ebp
  00001	8b ec		 mov	 ebp, esp

; 566  : 	SetActionState( pChar, pStage );

  00003	ff 75 0c	 push	 DWORD PTR _pStage$[ebp]
  00006	ff 75 08	 push	 DWORD PTR _pChar$[ebp]
  00009	e8 00 00 00 00	 call	 ?SetActionState@ioCircleMoveWeaponSkill@@IAEXPAVioBaseChar@@PAVioPlayStage@@@Z ; ioCircleMoveWeaponSkill::SetActionState

; 567  : }

  0000e	5d		 pop	 ebp
  0000f	c2 0c 00	 ret	 12			; 0000000cH
?ApplyExtraSkillInfo@ioCircleMoveWeaponSkill@@UAEXPAVioBaseChar@@PAVioPlayStage@@AAVSP2Packet@@@Z ENDP ; ioCircleMoveWeaponSkill::ApplyExtraSkillInfo
_TEXT	ENDS
PUBLIC	??0AttackAttribute@@QAE@XZ			; AttackAttribute::AttackAttribute
EXTRN	?Init@AttackAttribute@@QAEXXZ:PROC		; AttackAttribute::Init
;	COMDAT xdata$x
; File c:\program files (x86)\microsoft visual studio 10.0\vc\include\xmemory
xdata$x	SEGMENT
__unwindtable$??0AttackAttribute@@QAE@XZ DD 0ffffffffH
	DD	FLAT:__unwindfunclet$??0AttackAttribute@@QAE@XZ$0
	DD	00H
	DD	FLAT:__unwindfunclet$??0AttackAttribute@@QAE@XZ$1
	DD	01H
	DD	FLAT:__unwindfunclet$??0AttackAttribute@@QAE@XZ$2
	DD	02H
	DD	FLAT:__unwindfunclet$??0AttackAttribute@@QAE@XZ$3
__ehfuncinfo$??0AttackAttribute@@QAE@XZ DD 019930522H
	DD	04H
	DD	FLAT:__unwindtable$??0AttackAttribute@@QAE@XZ
	DD	2 DUP(00H)
	DD	2 DUP(00H)
	DD	00H
	DD	01H
; Function compile flags: /Ogsp
; File d:\lost saga for developer\youtube\tutorial\source\src\lsclient\ioattackattribute.h
xdata$x	ENDS
;	COMDAT ??0AttackAttribute@@QAE@XZ
_TEXT	SEGMENT
_this$ = -16						; size = 4
__$EHRec$ = -12						; size = 12
??0AttackAttribute@@QAE@XZ PROC				; AttackAttribute::AttackAttribute, COMDAT
; _this$ = ecx

; 107  : 	AttackAttribute()

  00000	6a 04		 push	 4
  00002	b8 00 00 00 00	 mov	 eax, __ehhandler$??0AttackAttribute@@QAE@XZ
  00007	e8 00 00 00 00	 call	 __EH_prolog3
  0000c	8b f1		 mov	 esi, ecx
  0000e	89 75 f0	 mov	 DWORD PTR _this$[ebp], esi
  00011	8b 3d 00 00 00
	00		 mov	 edi, DWORD PTR __imp_??0ioHashString@@QAE@XZ
  00017	ff d7		 call	 edi
  00019	33 db		 xor	 ebx, ebx
  0001b	8d 4e 14	 lea	 ecx, DWORD PTR [esi+20]
  0001e	89 5d fc	 mov	 DWORD PTR __$EHRec$[ebp+8], ebx
  00021	ff d7		 call	 edi
  00023	89 5e 28	 mov	 DWORD PTR [esi+40], ebx
  00026	89 5e 2c	 mov	 DWORD PTR [esi+44], ebx
  00029	89 5e 30	 mov	 DWORD PTR [esi+48], ebx
  0002c	89 5e 38	 mov	 DWORD PTR [esi+56], ebx
  0002f	89 5e 3c	 mov	 DWORD PTR [esi+60], ebx
  00032	89 5e 40	 mov	 DWORD PTR [esi+64], ebx

; 108  : 	{
; 109  : 		Init();

  00035	8b ce		 mov	 ecx, esi
  00037	c6 45 fc 03	 mov	 BYTE PTR __$EHRec$[ebp+8], 3
  0003b	e8 00 00 00 00	 call	 ?Init@AttackAttribute@@QAEXXZ ; AttackAttribute::Init

; 110  : 	}

  00040	8b c6		 mov	 eax, esi
  00042	e8 00 00 00 00	 call	 __EH_epilog3
  00047	c3		 ret	 0
_TEXT	ENDS
;	COMDAT text$x
text$x	SEGMENT
__unwindfunclet$??0AttackAttribute@@QAE@XZ$0:
  00000	8b 4d f0	 mov	 ecx, DWORD PTR _this$[ebp]
  00003	ff 25 00 00 00
	00		 jmp	 DWORD PTR __imp_??1ioHashString@@QAE@XZ
__unwindfunclet$??0AttackAttribute@@QAE@XZ$1:
  00009	8b 4d f0	 mov	 ecx, DWORD PTR _this$[ebp]
  0000c	83 c1 14	 add	 ecx, 20			; 00000014H
  0000f	ff 25 00 00 00
	00		 jmp	 DWORD PTR __imp_??1ioHashString@@QAE@XZ
__unwindfunclet$??0AttackAttribute@@QAE@XZ$2:
  00015	8b 4d f0	 mov	 ecx, DWORD PTR _this$[ebp]
  00018	83 c1 28	 add	 ecx, 40			; 00000028H
  0001b	e9 00 00 00 00	 jmp	 ??1?$vector@UWeaponInfo@@V?$allocator@UWeaponInfo@@@std@@@std@@QAE@XZ ; std::vector<WeaponInfo,std::allocator<WeaponInfo> >::~vector<WeaponInfo,std::allocator<WeaponInfo> >
__unwindfunclet$??0AttackAttribute@@QAE@XZ$3:
  00020	8b 4d f0	 mov	 ecx, DWORD PTR _this$[ebp]
  00023	83 c1 38	 add	 ecx, 56			; 00000038H
  00026	e9 00 00 00 00	 jmp	 ??1?$vector@UForceInfo@@V?$allocator@UForceInfo@@@std@@@std@@QAE@XZ ; std::vector<ForceInfo,std::allocator<ForceInfo> >::~vector<ForceInfo,std::allocator<ForceInfo> >
__ehhandler$??0AttackAttribute@@QAE@XZ:
  0002b	8b 54 24 08	 mov	 edx, DWORD PTR [esp+8]
  0002f	8d 42 0c	 lea	 eax, DWORD PTR [edx+12]
  00032	8b 4a ec	 mov	 ecx, DWORD PTR [edx-20]
  00035	33 c8		 xor	 ecx, eax
  00037	e8 00 00 00 00	 call	 @__security_check_cookie@4
  0003c	b8 00 00 00 00	 mov	 eax, OFFSET __ehfuncinfo$??0AttackAttribute@@QAE@XZ
  00041	e9 00 00 00 00	 jmp	 ___CxxFrameHandler3
text$x	ENDS
??0AttackAttribute@@QAE@XZ ENDP				; AttackAttribute::AttackAttribute
PUBLIC	??1AttackAttribute@@QAE@XZ			; AttackAttribute::~AttackAttribute
;	COMDAT xdata$x
xdata$x	SEGMENT
__unwindtable$??1AttackAttribute@@QAE@XZ DD 0ffffffffH
	DD	FLAT:__unwindfunclet$??1AttackAttribute@@QAE@XZ$0
	DD	00H
	DD	FLAT:__unwindfunclet$??1AttackAttribute@@QAE@XZ$1
	DD	01H
	DD	FLAT:__unwindfunclet$??1AttackAttribute@@QAE@XZ$2
__ehfuncinfo$??1AttackAttribute@@QAE@XZ DD 019930522H
	DD	03H
	DD	FLAT:__unwindtable$??1AttackAttribute@@QAE@XZ
	DD	2 DUP(00H)
	DD	2 DUP(00H)
	DD	00H
	DD	01H
; Function compile flags: /Ogsp
xdata$x	ENDS
;	COMDAT ??1AttackAttribute@@QAE@XZ
_TEXT	SEGMENT
_this$ = -16						; size = 4
__$EHRec$ = -12						; size = 12
??1AttackAttribute@@QAE@XZ PROC				; AttackAttribute::~AttackAttribute, COMDAT
; _this$ = ecx
  00000	6a 04		 push	 4
  00002	b8 00 00 00 00	 mov	 eax, __ehhandler$??1AttackAttribute@@QAE@XZ
  00007	e8 00 00 00 00	 call	 __EH_prolog3
  0000c	8b f1		 mov	 esi, ecx
  0000e	89 75 f0	 mov	 DWORD PTR _this$[ebp], esi
  00011	8d 4e 38	 lea	 ecx, DWORD PTR [esi+56]
  00014	c7 45 fc 02 00
	00 00		 mov	 DWORD PTR __$EHRec$[ebp+8], 2
  0001b	e8 00 00 00 00	 call	 ?_Tidy@?$vector@UForceInfo@@V?$allocator@UForceInfo@@@std@@@std@@IAEXXZ ; std::vector<ForceInfo,std::allocator<ForceInfo> >::_Tidy
  00020	8d 4e 28	 lea	 ecx, DWORD PTR [esi+40]
  00023	c6 45 fc 01	 mov	 BYTE PTR __$EHRec$[ebp+8], 1
  00027	e8 00 00 00 00	 call	 ?_Tidy@?$vector@UWeaponInfo@@V?$allocator@UWeaponInfo@@@std@@@std@@IAEXXZ ; std::vector<WeaponInfo,std::allocator<WeaponInfo> >::_Tidy
  0002c	8b 3d 00 00 00
	00		 mov	 edi, DWORD PTR __imp_??1ioHashString@@QAE@XZ
  00032	8d 4e 14	 lea	 ecx, DWORD PTR [esi+20]
  00035	c6 45 fc 00	 mov	 BYTE PTR __$EHRec$[ebp+8], 0
  00039	ff d7		 call	 edi
  0003b	83 4d fc ff	 or	 DWORD PTR __$EHRec$[ebp+8], -1
  0003f	8b ce		 mov	 ecx, esi
  00041	ff d7		 call	 edi
  00043	e8 00 00 00 00	 call	 __EH_epilog3
  00048	c3		 ret	 0
_TEXT	ENDS
;	COMDAT text$x
text$x	SEGMENT
__unwindfunclet$??1AttackAttribute@@QAE@XZ$0:
  00000	8b 4d f0	 mov	 ecx, DWORD PTR _this$[ebp]
  00003	ff 25 00 00 00
	00		 jmp	 DWORD PTR __imp_??1ioHashString@@QAE@XZ
__unwindfunclet$??1AttackAttribute@@QAE@XZ$1:
  00009	8b 4d f0	 mov	 ecx, DWORD PTR _this$[ebp]
  0000c	83 c1 14	 add	 ecx, 20			; 00000014H
  0000f	ff 25 00 00 00
	00		 jmp	 DWORD PTR __imp_??1ioHashString@@QAE@XZ
__unwindfunclet$??1AttackAttribute@@QAE@XZ$2:
  00015	8b 4d f0	 mov	 ecx, DWORD PTR _this$[ebp]
  00018	83 c1 28	 add	 ecx, 40			; 00000028H
  0001b	e9 00 00 00 00	 jmp	 ??1?$vector@UWeaponInfo@@V?$allocator@UWeaponInfo@@@std@@@std@@QAE@XZ ; std::vector<WeaponInfo,std::allocator<WeaponInfo> >::~vector<WeaponInfo,std::allocator<WeaponInfo> >
__ehhandler$??1AttackAttribute@@QAE@XZ:
  00020	8b 54 24 08	 mov	 edx, DWORD PTR [esp+8]
  00024	8d 42 0c	 lea	 eax, DWORD PTR [edx+12]
  00027	8b 4a ec	 mov	 ecx, DWORD PTR [edx-20]
  0002a	33 c8		 xor	 ecx, eax
  0002c	e8 00 00 00 00	 call	 @__security_check_cookie@4
  00031	b8 00 00 00 00	 mov	 eax, OFFSET __ehfuncinfo$??1AttackAttribute@@QAE@XZ
  00036	e9 00 00 00 00	 jmp	 ___CxxFrameHandler3
text$x	ENDS
??1AttackAttribute@@QAE@XZ ENDP				; AttackAttribute::~AttackAttribute
PUBLIC	??_7ioCircleMoveWeaponSkill@@6B@		; ioCircleMoveWeaponSkill::`vftable'
PUBLIC	??0ioCircleMoveWeaponSkill@@QAE@XZ		; ioCircleMoveWeaponSkill::ioCircleMoveWeaponSkill
PUBLIC	??_R4ioCircleMoveWeaponSkill@@6B@		; ioCircleMoveWeaponSkill::`RTTI Complete Object Locator'
PUBLIC	??_R0?AVioCircleMoveWeaponSkill@@@8		; ioCircleMoveWeaponSkill `RTTI Type Descriptor'
PUBLIC	??_R3ioCircleMoveWeaponSkill@@8			; ioCircleMoveWeaponSkill::`RTTI Class Hierarchy Descriptor'
PUBLIC	??_R2ioCircleMoveWeaponSkill@@8			; ioCircleMoveWeaponSkill::`RTTI Base Class Array'
PUBLIC	??_R1A@?0A@EA@ioCircleMoveWeaponSkill@@8	; ioCircleMoveWeaponSkill::`RTTI Base Class Descriptor at (0,-1,0,64)'
PUBLIC	??_R1A@?0A@EA@ioNormalSkill@@8			; ioNormalSkill::`RTTI Base Class Descriptor at (0,-1,0,64)'
PUBLIC	??_R0?AVioNormalSkill@@@8			; ioNormalSkill `RTTI Type Descriptor'
PUBLIC	??_R3ioNormalSkill@@8				; ioNormalSkill::`RTTI Class Hierarchy Descriptor'
PUBLIC	??_R2ioNormalSkill@@8				; ioNormalSkill::`RTTI Base Class Array'
PUBLIC	??_R1A@?0A@EA@ioSkill@@8			; ioSkill::`RTTI Base Class Descriptor at (0,-1,0,64)'
PUBLIC	??_R0?AVioSkill@@@8				; ioSkill `RTTI Type Descriptor'
PUBLIC	??_R3ioSkill@@8					; ioSkill::`RTTI Class Hierarchy Descriptor'
PUBLIC	??_R2ioSkill@@8					; ioSkill::`RTTI Base Class Array'
PUBLIC	?LoadProperty@ioCircleMoveWeaponSkill@@UAEXAAVioINILoader@@@Z ; ioCircleMoveWeaponSkill::LoadProperty
PUBLIC	?Clone@ioCircleMoveWeaponSkill@@UAEPAVioSkill@@XZ ; ioCircleMoveWeaponSkill::Clone
PUBLIC	?GetDefenseSkillBreakeType@ioSkill@@UBE?AW4DefenseBreakType@@XZ ; ioSkill::GetDefenseSkillBreakeType
PUBLIC	?GetSkillEndNextJumpAmt@ioSkill@@UBEMXZ		; ioSkill::GetSkillEndNextJumpAmt
PUBLIC	?GetSkillEndNextLandRate@ioSkill@@UBEMXZ	; ioSkill::GetSkillEndNextLandRate
PUBLIC	?GetSkillEndNextJumpMustEnable@ioSkill@@UAE?AW4SkillEndJumpType@@XZ ; ioSkill::GetSkillEndNextJumpMustEnable
PUBLIC	?EnableChangeGrapplingTargetPos@ioSkill@@UBE_NXZ ; ioSkill::EnableChangeGrapplingTargetPos
PUBLIC	?OnProcessState@ioCircleMoveWeaponSkill@@UAEXPAVioBaseChar@@PAVioPlayStage@@@Z ; ioCircleMoveWeaponSkill::OnProcessState
PUBLIC	?IsInvisibleBottomCircle@ioSkill@@UAE_NPAVioBaseChar@@@Z ; ioSkill::IsInvisibleBottomCircle
PUBLIC	?IsCanJumpingSkill@ioSkill@@UBE_NXZ		; ioSkill::IsCanJumpingSkill
PUBLIC	?IsCanJumpingSkillOnBlowWound@ioSkill@@UBE_NXZ	; ioSkill::IsCanJumpingSkillOnBlowWound
PUBLIC	?IsCanDownSkill@ioSkill@@UBE_NXZ		; ioSkill::IsCanDownSkill
PUBLIC	?IsCanBlowWoundSkill@ioSkill@@UBE_NXZ		; ioSkill::IsCanBlowWoundSkill
PUBLIC	?IsCanWoundSkill@ioSkill@@UBE_NXZ		; ioSkill::IsCanWoundSkill
PUBLIC	?IsUseActiveCnt@ioSkill@@UBE_NXZ		; ioSkill::IsUseActiveCnt
PUBLIC	?GetMaxActiveCnt@ioSkill@@UBEHPAVioBaseChar@@@Z	; ioSkill::GetMaxActiveCnt
PUBLIC	?GetCurActiveCnt@ioSkill@@UBEHPAVioBaseChar@@@Z	; ioSkill::GetCurActiveCnt
EXTRN	??1ioNormalSkill@@UAE@XZ:PROC			; ioNormalSkill::~ioNormalSkill
EXTRN	??0ioNormalSkill@@QAE@XZ:PROC			; ioNormalSkill::ioNormalSkill
EXTRN	?GetTypeID@ioNormalSkill@@UBEHXZ:PROC		; ioNormalSkill::GetTypeID
EXTRN	?IsCanSwitchSkill@ioSkill@@UBE_NXZ:PROC		; ioSkill::IsCanSwitchSkill
EXTRN	?IsCanSemiSwitchSkill@ioSkill@@UBE_NXZ:PROC	; ioSkill::IsCanSemiSwitchSkill
EXTRN	?IsCanCancelBySkill@ioSkill@@UBE_NPAVioBaseChar@@AAH@Z:PROC ; ioSkill::IsCanCancelBySkill
EXTRN	?IsCanUseZeroHP@ioSkill@@UBE_NPAVioBaseChar@@@Z:PROC ; ioSkill::IsCanUseZeroHP
EXTRN	?IsCanUseSkillWithCrown@ioSkill@@UAE_NPAVioBaseChar@@@Z:PROC ; ioSkill::IsCanUseSkillWithCrown
EXTRN	?IsCanUseBoss@ioSkill@@UBE_NPAVioBaseChar@@@Z:PROC ; ioSkill::IsCanUseBoss
EXTRN	?IsCanUseFootball@ioSkill@@UBE_NXZ:PROC		; ioSkill::IsCanUseFootball
EXTRN	?IsCanUseGangSiMode@ioSkill@@UBE_NXZ:PROC	; ioSkill::IsCanUseGangSiMode
EXTRN	?IsCanUseByWeaponType@ioSkill@@UBE_NPAVioBaseChar@@@Z:PROC ; ioSkill::IsCanUseByWeaponType
EXTRN	?IsCanUseThunderBirdHold@ioSkill@@UBE_NPAVioBaseChar@@@Z:PROC ; ioSkill::IsCanUseThunderBirdHold
EXTRN	?IsCanUseLimitHP@ioSkill@@UBE_NPAVioBaseChar@@@Z:PROC ; ioSkill::IsCanUseLimitHP
EXTRN	?IsCanUseSkill@ioNormalSkill@@UAE_NPAVioBaseChar@@_N@Z:PROC ; ioNormalSkill::IsCanUseSkill
EXTRN	?IsOnOffEnable@ioSkill@@UAE_NXZ:PROC		; ioSkill::IsOnOffEnable
EXTRN	?IsCanDefenseStateSkill@ioSkill@@UAE_NXZ:PROC	; ioSkill::IsCanDefenseStateSkill
EXTRN	?SetDefenseStateSkill@ioSkill@@UAEXPAVioBaseChar@@@Z:PROC ; ioSkill::SetDefenseStateSkill
EXTRN	?HasBuff@ioSkill@@UBE_NH@Z:PROC			; ioSkill::HasBuff
EXTRN	?GetBuffType@ioSkill@@UAEHH@Z:PROC		; ioSkill::GetBuffType
EXTRN	?IsEnableReserve@ioSkill@@UBE_NXZ:PROC		; ioSkill::IsEnableReserve
EXTRN	?IsCharSkipState@ioSkill@@UBE?AW4SkillCharColType@@XZ:PROC ; ioSkill::IsCharSkipState
EXTRN	?IsEntityCollisionSkipState@ioSkill@@UBE_NXZ:PROC ; ioSkill::IsEntityCollisionSkipState
EXTRN	?IsEndState@ioSkill@@UBE_NXZ:PROC		; ioSkill::IsEndState
EXTRN	?IsAttackEndState@ioNormalSkill@@UBE_NXZ:PROC	; ioNormalSkill::IsAttackEndState
EXTRN	?IsJumpState@ioSkill@@UBE_NXZ:PROC		; ioSkill::IsJumpState
EXTRN	?IsDownState@ioSkill@@UBE_NXZ:PROC		; ioSkill::IsDownState
EXTRN	?IsNoDropState@ioSkill@@UBE_NXZ:PROC		; ioSkill::IsNoDropState
EXTRN	?IsCanSendControl@ioSkill@@UBE_NXZ:PROC		; ioSkill::IsCanSendControl
EXTRN	?IsSkipState@ioSkill@@UBE_NXZ:PROC		; ioSkill::IsSkipState
EXTRN	?GetSkillMoveRate@ioSkill@@UBEMXZ:PROC		; ioSkill::GetSkillMoveRate
EXTRN	?SetSkillGrapplingState@ioSkill@@UAE_NPAVioBaseChar@@ABVioHashString@@@Z:PROC ; ioSkill::SetSkillGrapplingState
EXTRN	?GetGrapplingTargetPos@ioSkill@@UAE?AUD3DXVECTOR3@@PAVioBaseChar@@0@Z:PROC ; ioSkill::GetGrapplingTargetPos
EXTRN	?GetGrapplingTargetPos@ioSkill@@UAE?AUD3DXVECTOR3@@PAVioBaseChar@@@Z:PROC ; ioSkill::GetGrapplingTargetPos
EXTRN	?GetSkillWoundGrapplingInfo@ioSkill@@UAE?AUGrapplingSkillWoundedInfo@@XZ:PROC ; ioSkill::GetSkillWoundGrapplingInfo
EXTRN	?SetCreateWeaponDependency@ioSkill@@UAEXPAVioBaseChar@@PAVioPlayStage@@@Z:PROC ; ioSkill::SetCreateWeaponDependency
EXTRN	?SetNextSkillState@ioSkill@@UAEXPAVioBaseChar@@PAVioWeapon@@@Z:PROC ; ioSkill::SetNextSkillState
EXTRN	?OnSkillEndByWounded@ioSkill@@UAEXPAVioBaseChar@@@Z:PROC ; ioSkill::OnSkillEndByWounded
EXTRN	?OnProcessNotUseSkill@ioSkill@@UAEXPAVioBaseChar@@PAVioPlayStage@@@Z:PROC ; ioSkill::OnProcessNotUseSkill
EXTRN	?OnSkillItemRelease@ioSkill@@UAEXPAVioBaseChar@@@Z:PROC ; ioSkill::OnSkillItemRelease
EXTRN	?ApplyEquipSlotSkillExtraInfo@ioSkill@@UAEXPAVioBaseChar@@PAVioPlayStage@@AAVSP2Packet@@@Z:PROC ; ioSkill::ApplyEquipSlotSkillExtraInfo
EXTRN	?ApplyExtraPassiveSkillInfo@ioSkill@@UAEXPAVioBaseChar@@PAVioPlayStage@@AAVSP2Packet@@@Z:PROC ; ioSkill::ApplyExtraPassiveSkillInfo
EXTRN	?StartPreDelayEffect@ioNormalSkill@@UAEXPAVioBaseChar@@@Z:PROC ; ioNormalSkill::StartPreDelayEffect
EXTRN	?EndPreDelayEffect@ioNormalSkill@@UAEXPAVioBaseChar@@@Z:PROC ; ioNormalSkill::EndPreDelayEffect
EXTRN	?IsUseAutoTargetValue@ioSkill@@UAE_NXZ:PROC	; ioSkill::IsUseAutoTargetValue
EXTRN	?IsAutoTargetDownState@ioSkill@@UAE_NXZ:PROC	; ioSkill::IsAutoTargetDownState
EXTRN	?CheckUseActiveCount@ioSkill@@UAE_NXZ:PROC	; ioSkill::CheckUseActiveCount
EXTRN	?CheckAniRotate@ioSkill@@UAEXPAVioBaseChar@@@Z:PROC ; ioSkill::CheckAniRotate
EXTRN	?IsEnableDashCheck@ioSkill@@UAE_NPAVioBaseChar@@@Z:PROC ; ioSkill::IsEnableDashCheck
EXTRN	?IsEnableMultiActive@ioSkill@@UAE_NPAVioBaseChar@@@Z:PROC ; ioSkill::IsEnableMultiActive
EXTRN	?GetAutoTargetValue@ioSkill@@UAEXAAM00@Z:PROC	; ioSkill::GetAutoTargetValue
EXTRN	?GetSkillGravityRate@ioSkill@@UAEMXZ:PROC	; ioSkill::GetSkillGravityRate
EXTRN	?GetSkillMotionName@ioSkill@@UBEABVioHashString@@XZ:PROC ; ioSkill::GetSkillMotionName
EXTRN	?HasSkillMotion@ioSkill@@UBE_NXZ:PROC		; ioSkill::HasSkillMotion
EXTRN	?GetSkillMotionRate@ioSkill@@UBEMXZ:PROC	; ioSkill::GetSkillMotionRate
EXTRN	?IsPreDelayProtect@ioSkill@@UBE_NXZ:PROC	; ioSkill::IsPreDelayProtect
EXTRN	?GetPreDelayAniName@ioSkill@@UBEABVioHashString@@XZ:PROC ; ioSkill::GetPreDelayAniName
EXTRN	?GetPreDelayTime@ioSkill@@UBEKXZ:PROC		; ioSkill::GetPreDelayTime
EXTRN	?GetPreDelayOwnerEffect@ioSkill@@UBEABVioHashString@@XZ:PROC ; ioSkill::GetPreDelayOwnerEffect
EXTRN	?GetPreDelayOtherEffect@ioSkill@@UBEABVioHashString@@XZ:PROC ; ioSkill::GetPreDelayOtherEffect
EXTRN	?SetCancelSkill@ioSkill@@UAEXPAVioBaseChar@@@Z:PROC ; ioSkill::SetCancelSkill
EXTRN	?ClearAirJump@ioSkill@@MAEXXZ:PROC		; ioSkill::ClearAirJump
EXTRN	?SetAirJump@ioSkill@@MAEXPAVioBaseChar@@HM@Z:PROC ; ioSkill::SetAirJump
EXTRN	?CheckAirJump@ioSkill@@MAEXPAVioBaseChar@@@Z:PROC ; ioSkill::CheckAirJump
EXTRN	?UseActiveCount@ioSkill@@UAE_NPAVioBaseChar@@@Z:PROC ; ioSkill::UseActiveCount
EXTRN	?GetMaxActiveCount@ioSkill@@UAEHPAVioBaseChar@@@Z:PROC ; ioSkill::GetMaxActiveCount
EXTRN	?GetCurActiveCount@ioSkill@@UAEHPAVioBaseChar@@@Z:PROC ; ioSkill::GetCurActiveCount
EXTRN	?HideHPGauge@ioSkill@@UAE_NXZ:PROC		; ioSkill::HideHPGauge
EXTRN	?SetInfoByApplyWeapon@ioSkill@@UAEXPAVioBaseChar@@0K_N@Z:PROC ; ioSkill::SetInfoByApplyWeapon
EXTRN	?SetCollisionByApplySkill@ioSkill@@UAEXXZ:PROC	; ioSkill::SetCollisionByApplySkill
EXTRN	?SetChargingRateForWeapon@ioSkill@@UAEXPAVioWeapon@@@Z:PROC ; ioSkill::SetChargingRateForWeapon
EXTRN	?CheckExceptionCamera@ioSkill@@UAE_NXZ:PROC	; ioSkill::CheckExceptionCamera
EXTRN	?GetExceptionCameraPos@ioSkill@@UAE?AUD3DXVECTOR3@@PAVioBaseChar@@@Z:PROC ; ioSkill::GetExceptionCameraPos
EXTRN	?IsFixedExceptionCamera@ioSkill@@UAE_NXZ:PROC	; ioSkill::IsFixedExceptionCamera
EXTRN	??_EioCircleMoveWeaponSkill@@UAEPAXI@Z:PROC	; ioCircleMoveWeaponSkill::`vector deleting destructor'
;	COMDAT ??_R2ioSkill@@8
; File c:\program files (x86)\microsoft visual studio 10.0\vc\include\xutility
rdata$r	SEGMENT
??_R2ioSkill@@8 DD FLAT:??_R1A@?0A@EA@ioSkill@@8	; ioSkill::`RTTI Base Class Array'
rdata$r	ENDS
;	COMDAT ??_R3ioSkill@@8
rdata$r	SEGMENT
??_R3ioSkill@@8 DD 00H					; ioSkill::`RTTI Class Hierarchy Descriptor'
	DD	00H
	DD	01H
	DD	FLAT:??_R2ioSkill@@8
rdata$r	ENDS
;	COMDAT ??_R0?AVioSkill@@@8
_DATA	SEGMENT
??_R0?AVioSkill@@@8 DD FLAT:??_7type_info@@6B@		; ioSkill `RTTI Type Descriptor'
	DD	00H
	DB	'.?AVioSkill@@', 00H
_DATA	ENDS
;	COMDAT ??_R1A@?0A@EA@ioSkill@@8
rdata$r	SEGMENT
??_R1A@?0A@EA@ioSkill@@8 DD FLAT:??_R0?AVioSkill@@@8	; ioSkill::`RTTI Base Class Descriptor at (0,-1,0,64)'
	DD	00H
	DD	00H
	DD	0ffffffffH
	DD	00H
	DD	040H
	DD	FLAT:??_R3ioSkill@@8
rdata$r	ENDS
;	COMDAT ??_R2ioNormalSkill@@8
rdata$r	SEGMENT
??_R2ioNormalSkill@@8 DD FLAT:??_R1A@?0A@EA@ioNormalSkill@@8 ; ioNormalSkill::`RTTI Base Class Array'
	DD	FLAT:??_R1A@?0A@EA@ioSkill@@8
rdata$r	ENDS
;	COMDAT ??_R3ioNormalSkill@@8
rdata$r	SEGMENT
??_R3ioNormalSkill@@8 DD 00H				; ioNormalSkill::`RTTI Class Hierarchy Descriptor'
	DD	00H
	DD	02H
	DD	FLAT:??_R2ioNormalSkill@@8
rdata$r	ENDS
;	COMDAT ??_R0?AVioNormalSkill@@@8
_DATA	SEGMENT
??_R0?AVioNormalSkill@@@8 DD FLAT:??_7type_info@@6B@	; ioNormalSkill `RTTI Type Descriptor'
	DD	00H
	DB	'.?AVioNormalSkill@@', 00H
_DATA	ENDS
;	COMDAT ??_R1A@?0A@EA@ioNormalSkill@@8
rdata$r	SEGMENT
??_R1A@?0A@EA@ioNormalSkill@@8 DD FLAT:??_R0?AVioNormalSkill@@@8 ; ioNormalSkill::`RTTI Base Class Descriptor at (0,-1,0,64)'
	DD	01H
	DD	00H
	DD	0ffffffffH
	DD	00H
	DD	040H
	DD	FLAT:??_R3ioNormalSkill@@8
rdata$r	ENDS
;	COMDAT ??_R1A@?0A@EA@ioCircleMoveWeaponSkill@@8
rdata$r	SEGMENT
??_R1A@?0A@EA@ioCircleMoveWeaponSkill@@8 DD FLAT:??_R0?AVioCircleMoveWeaponSkill@@@8 ; ioCircleMoveWeaponSkill::`RTTI Base Class Descriptor at (0,-1,0,64)'
	DD	02H
	DD	00H
	DD	0ffffffffH
	DD	00H
	DD	040H
	DD	FLAT:??_R3ioCircleMoveWeaponSkill@@8
rdata$r	ENDS
;	COMDAT ??_R2ioCircleMoveWeaponSkill@@8
rdata$r	SEGMENT
??_R2ioCircleMoveWeaponSkill@@8 DD FLAT:??_R1A@?0A@EA@ioCircleMoveWeaponSkill@@8 ; ioCircleMoveWeaponSkill::`RTTI Base Class Array'
	DD	FLAT:??_R1A@?0A@EA@ioNormalSkill@@8
	DD	FLAT:??_R1A@?0A@EA@ioSkill@@8
rdata$r	ENDS
;	COMDAT ??_R3ioCircleMoveWeaponSkill@@8
rdata$r	SEGMENT
??_R3ioCircleMoveWeaponSkill@@8 DD 00H			; ioCircleMoveWeaponSkill::`RTTI Class Hierarchy Descriptor'
	DD	00H
	DD	03H
	DD	FLAT:??_R2ioCircleMoveWeaponSkill@@8
rdata$r	ENDS
;	COMDAT ??_R0?AVioCircleMoveWeaponSkill@@@8
_DATA	SEGMENT
??_R0?AVioCircleMoveWeaponSkill@@@8 DD FLAT:??_7type_info@@6B@ ; ioCircleMoveWeaponSkill `RTTI Type Descriptor'
	DD	00H
	DB	'.?AVioCircleMoveWeaponSkill@@', 00H
_DATA	ENDS
;	COMDAT ??_R4ioCircleMoveWeaponSkill@@6B@
rdata$r	SEGMENT
??_R4ioCircleMoveWeaponSkill@@6B@ DD 00H		; ioCircleMoveWeaponSkill::`RTTI Complete Object Locator'
	DD	00H
	DD	00H
	DD	FLAT:??_R0?AVioCircleMoveWeaponSkill@@@8
	DD	FLAT:??_R3ioCircleMoveWeaponSkill@@8
rdata$r	ENDS
;	COMDAT ??_7ioCircleMoveWeaponSkill@@6B@
CONST	SEGMENT
??_7ioCircleMoveWeaponSkill@@6B@ DD FLAT:??_R4ioCircleMoveWeaponSkill@@6B@ ; ioCircleMoveWeaponSkill::`vftable'
	DD	FLAT:?LoadProperty@ioCircleMoveWeaponSkill@@UAEXAAVioINILoader@@@Z
	DD	FLAT:?Clone@ioCircleMoveWeaponSkill@@UAEPAVioSkill@@XZ
	DD	FLAT:?GetTypeID@ioNormalSkill@@UBEHXZ
	DD	FLAT:?IsProtected@ioCircleMoveWeaponSkill@@UBE_NH@Z
	DD	FLAT:?IsCanSwitchSkill@ioSkill@@UBE_NXZ
	DD	FLAT:?IsCanSemiSwitchSkill@ioSkill@@UBE_NXZ
	DD	FLAT:?IsCanCancelBySkill@ioSkill@@UBE_NPAVioBaseChar@@AAH@Z
	DD	FLAT:?IsCanUseZeroHP@ioSkill@@UBE_NPAVioBaseChar@@@Z
	DD	FLAT:?IsCanUseSkillWithCrown@ioSkill@@UAE_NPAVioBaseChar@@@Z
	DD	FLAT:?IsCanUseBoss@ioSkill@@UBE_NPAVioBaseChar@@@Z
	DD	FLAT:?IsCanUseFootball@ioSkill@@UBE_NXZ
	DD	FLAT:?IsCanUseGangSiMode@ioSkill@@UBE_NXZ
	DD	FLAT:?IsCanUseByWeaponType@ioSkill@@UBE_NPAVioBaseChar@@@Z
	DD	FLAT:?IsCanUseThunderBirdHold@ioSkill@@UBE_NPAVioBaseChar@@@Z
	DD	FLAT:?IsCanUseLimitHP@ioSkill@@UBE_NPAVioBaseChar@@@Z
	DD	FLAT:?IsCanUseSkill@ioNormalSkill@@UAE_NPAVioBaseChar@@_N@Z
	DD	FLAT:?IsOnOffEnable@ioSkill@@UAE_NXZ
	DD	FLAT:?IsCanDefenseStateSkill@ioSkill@@UAE_NXZ
	DD	FLAT:?SetDefenseStateSkill@ioSkill@@UAEXPAVioBaseChar@@@Z
	DD	FLAT:?GetDefenseSkillBreakeType@ioSkill@@UBE?AW4DefenseBreakType@@XZ
	DD	FLAT:?HasBuff@ioSkill@@UBE_NH@Z
	DD	FLAT:?GetBuffType@ioSkill@@UAEHH@Z
	DD	FLAT:?IsEnableReserve@ioSkill@@UBE_NXZ
	DD	FLAT:?IsSkillMotionEnd@ioCircleMoveWeaponSkill@@UBE_NKPAVioBaseChar@@@Z
	DD	FLAT:?IsCharSkipState@ioSkill@@UBE?AW4SkillCharColType@@XZ
	DD	FLAT:?IsEntityCollisionSkipState@ioSkill@@UBE_NXZ
	DD	FLAT:?GetSkillEndNextJumpAmt@ioSkill@@UBEMXZ
	DD	FLAT:?GetSkillEndNextLandRate@ioSkill@@UBEMXZ
	DD	FLAT:?GetSkillEndNextJumpMustEnable@ioSkill@@UAE?AW4SkillEndJumpType@@XZ
	DD	FLAT:?IsEndState@ioSkill@@UBE_NXZ
	DD	FLAT:?IsAttackEndState@ioNormalSkill@@UBE_NXZ
	DD	FLAT:?IsJumpState@ioSkill@@UBE_NXZ
	DD	FLAT:?IsDownState@ioSkill@@UBE_NXZ
	DD	FLAT:?IsNoDropState@ioSkill@@UBE_NXZ
	DD	FLAT:?IsCanSendControl@ioSkill@@UBE_NXZ
	DD	FLAT:?IsSkipState@ioSkill@@UBE_NXZ
	DD	FLAT:?GetSkillMoveRate@ioSkill@@UBEMXZ
	DD	FLAT:?SetSkillGrapplingState@ioSkill@@UAE_NPAVioBaseChar@@ABVioHashString@@@Z
	DD	FLAT:?GetGrapplingTargetPos@ioSkill@@UAE?AUD3DXVECTOR3@@PAVioBaseChar@@0@Z
	DD	FLAT:?GetGrapplingTargetPos@ioSkill@@UAE?AUD3DXVECTOR3@@PAVioBaseChar@@@Z
	DD	FLAT:?EnableChangeGrapplingTargetPos@ioSkill@@UBE_NXZ
	DD	FLAT:?GetSkillWoundGrapplingInfo@ioSkill@@UAE?AUGrapplingSkillWoundedInfo@@XZ
	DD	FLAT:?SetCreateWeaponDependency@ioSkill@@UAEXPAVioBaseChar@@PAVioPlayStage@@@Z
	DD	FLAT:?SetNextSkillState@ioSkill@@UAEXPAVioBaseChar@@PAVioWeapon@@@Z
	DD	FLAT:?OnSkillStart@ioCircleMoveWeaponSkill@@UAE_NPAVioBaseChar@@@Z
	DD	FLAT:?OnProcessState@ioCircleMoveWeaponSkill@@UAEXPAVioBaseChar@@PAVioPlayStage@@@Z
	DD	FLAT:?OnSkillEndByWounded@ioSkill@@UAEXPAVioBaseChar@@@Z
	DD	FLAT:?OnSkillEnd@ioCircleMoveWeaponSkill@@UAEXPAVioBaseChar@@@Z
	DD	FLAT:?OnProcessNotUseSkill@ioSkill@@UAEXPAVioBaseChar@@PAVioPlayStage@@@Z
	DD	FLAT:?OnSkillItemRelease@ioSkill@@UAEXPAVioBaseChar@@@Z
	DD	FLAT:?ApplyAttributeToWeapon@ioCircleMoveWeaponSkill@@UAEXPAVioWeapon@@PAVioPlayStage@@@Z
	DD	FLAT:?ApplyExtraSkillInfo@ioCircleMoveWeaponSkill@@UAEXPAVioBaseChar@@PAVioPlayStage@@AAVSP2Packet@@@Z
	DD	FLAT:?ApplyEquipSlotSkillExtraInfo@ioSkill@@UAEXPAVioBaseChar@@PAVioPlayStage@@AAVSP2Packet@@@Z
	DD	FLAT:?ApplyExtraPassiveSkillInfo@ioSkill@@UAEXPAVioBaseChar@@PAVioPlayStage@@AAVSP2Packet@@@Z
	DD	FLAT:?StartPreDelayEffect@ioNormalSkill@@UAEXPAVioBaseChar@@@Z
	DD	FLAT:?EndPreDelayEffect@ioNormalSkill@@UAEXPAVioBaseChar@@@Z
	DD	FLAT:?IsUseAutoTargetValue@ioSkill@@UAE_NXZ
	DD	FLAT:?IsAutoTargetDownState@ioSkill@@UAE_NXZ
	DD	FLAT:?CheckUseBuff@ioCircleMoveWeaponSkill@@MAE_NPAVioBaseChar@@@Z
	DD	FLAT:?CheckUseItemMesh@ioCircleMoveWeaponSkill@@UAE_NXZ
	DD	FLAT:?CheckUseActiveCount@ioSkill@@UAE_NXZ
	DD	FLAT:?CheckAniRotate@ioSkill@@UAEXPAVioBaseChar@@@Z
	DD	FLAT:?IsEnableDashCheck@ioSkill@@UAE_NPAVioBaseChar@@@Z
	DD	FLAT:?IsEnableMultiActive@ioSkill@@UAE_NPAVioBaseChar@@@Z
	DD	FLAT:?IsInvisibleBottomCircle@ioSkill@@UAE_NPAVioBaseChar@@@Z
	DD	FLAT:?GetAutoTargetValue@ioSkill@@UAEXAAM00@Z
	DD	FLAT:?IsCanJumpingSkill@ioSkill@@UBE_NXZ
	DD	FLAT:?IsCanJumpingSkillOnBlowWound@ioSkill@@UBE_NXZ
	DD	FLAT:?IsCanDownSkill@ioSkill@@UBE_NXZ
	DD	FLAT:?IsCanBlowWoundSkill@ioSkill@@UBE_NXZ
	DD	FLAT:?IsCanWoundSkill@ioSkill@@UBE_NXZ
	DD	FLAT:?GetSkillGravityRate@ioSkill@@UAEMXZ
	DD	FLAT:?GetSkillMotionName@ioSkill@@UBEABVioHashString@@XZ
	DD	FLAT:?HasSkillMotion@ioSkill@@UBE_NXZ
	DD	FLAT:?GetSkillMotionRate@ioSkill@@UBEMXZ
	DD	FLAT:?IsPreDelayProtect@ioSkill@@UBE_NXZ
	DD	FLAT:?GetPreDelayAniName@ioSkill@@UBEABVioHashString@@XZ
	DD	FLAT:?GetPreDelayTime@ioSkill@@UBEKXZ
	DD	FLAT:?GetPreDelayOwnerEffect@ioSkill@@UBEABVioHashString@@XZ
	DD	FLAT:?GetPreDelayOtherEffect@ioSkill@@UBEABVioHashString@@XZ
	DD	FLAT:?SetCancelSkill@ioSkill@@UAEXPAVioBaseChar@@@Z
	DD	FLAT:?ClearAirJump@ioSkill@@MAEXXZ
	DD	FLAT:?SetAirJump@ioSkill@@MAEXPAVioBaseChar@@HM@Z
	DD	FLAT:?CheckAirJump@ioSkill@@MAEXPAVioBaseChar@@@Z
	DD	FLAT:?UseActiveCount@ioSkill@@UAE_NPAVioBaseChar@@@Z
	DD	FLAT:?GetMaxActiveCount@ioSkill@@UAEHPAVioBaseChar@@@Z
	DD	FLAT:?GetCurActiveCount@ioSkill@@UAEHPAVioBaseChar@@@Z
	DD	FLAT:?HideHPGauge@ioSkill@@UAE_NXZ
	DD	FLAT:?SetInfoByApplyWeapon@ioSkill@@UAEXPAVioBaseChar@@0K_N@Z
	DD	FLAT:?SetCollisionByApplySkill@ioSkill@@UAEXXZ
	DD	FLAT:?SetChargingRateForWeapon@ioSkill@@UAEXPAVioWeapon@@@Z
	DD	FLAT:?CheckExceptionCamera@ioSkill@@UAE_NXZ
	DD	FLAT:?GetExceptionCameraPos@ioSkill@@UAE?AUD3DXVECTOR3@@PAVioBaseChar@@@Z
	DD	FLAT:?IsFixedExceptionCamera@ioSkill@@UAE_NXZ
	DD	FLAT:?IsUseActiveCnt@ioSkill@@UBE_NXZ
	DD	FLAT:?GetMaxActiveCnt@ioSkill@@UBEHPAVioBaseChar@@@Z
	DD	FLAT:?GetCurActiveCnt@ioSkill@@UBEHPAVioBaseChar@@@Z
	DD	FLAT:??_EioCircleMoveWeaponSkill@@UAEPAXI@Z
	DD	FLAT:?StartPreDelayAnimation@ioCircleMoveWeaponSkill@@MAE_NPAVioBaseChar@@@Z
	DD	FLAT:?SetNormalSkill@ioCircleMoveWeaponSkill@@MAEXPAVioBaseChar@@@Z
CONST	ENDS
;	COMDAT xdata$x
xdata$x	SEGMENT
__ehfuncinfo$??0ioCircleMoveWeaponSkill@@QAE@XZ DD 019930522H
	DD	0eH
	DD	FLAT:__unwindtable$??0ioCircleMoveWeaponSkill@@QAE@XZ
	DD	2 DUP(00H)
	DD	2 DUP(00H)
	DD	00H
	DD	01H
__unwindtable$??0ioCircleMoveWeaponSkill@@QAE@XZ DD 0ffffffffH
	DD	FLAT:__unwindfunclet$??0ioCircleMoveWeaponSkill@@QAE@XZ$0
	DD	00H
	DD	FLAT:__unwindfunclet$??0ioCircleMoveWeaponSkill@@QAE@XZ$1
	DD	01H
	DD	FLAT:__unwindfunclet$??0ioCircleMoveWeaponSkill@@QAE@XZ$2
	DD	02H
	DD	FLAT:__unwindfunclet$??0ioCircleMoveWeaponSkill@@QAE@XZ$3
	DD	03H
	DD	FLAT:__unwindfunclet$??0ioCircleMoveWeaponSkill@@QAE@XZ$4
	DD	04H
	DD	FLAT:__unwindfunclet$??0ioCircleMoveWeaponSkill@@QAE@XZ$5
	DD	05H
	DD	FLAT:__unwindfunclet$??0ioCircleMoveWeaponSkill@@QAE@XZ$6
	DD	06H
	DD	FLAT:__unwindfunclet$??0ioCircleMoveWeaponSkill@@QAE@XZ$7
	DD	07H
	DD	FLAT:__unwindfunclet$??0ioCircleMoveWeaponSkill@@QAE@XZ$8
	DD	08H
	DD	FLAT:__unwindfunclet$??0ioCircleMoveWeaponSkill@@QAE@XZ$9
	DD	09H
	DD	FLAT:__unwindfunclet$??0ioCircleMoveWeaponSkill@@QAE@XZ$10
	DD	0aH
	DD	FLAT:__unwindfunclet$??0ioCircleMoveWeaponSkill@@QAE@XZ$11
	DD	0bH
	DD	FLAT:__unwindfunclet$??0ioCircleMoveWeaponSkill@@QAE@XZ$12
	DD	0cH
	DD	FLAT:__unwindfunclet$??0ioCircleMoveWeaponSkill@@QAE@XZ$13
; Function compile flags: /Ogsp
; File d:\lost saga for developer\youtube\tutorial\source\src\lsclient\iocirclemoveweaponskill.cpp
xdata$x	ENDS
;	COMDAT ??0ioCircleMoveWeaponSkill@@QAE@XZ
_TEXT	SEGMENT
$T582521 = -20						; size = 4
_this$ = -20						; size = 4
_value$582457 = -16					; size = 4
__$EHRec$ = -12						; size = 12
??0ioCircleMoveWeaponSkill@@QAE@XZ PROC			; ioCircleMoveWeaponSkill::ioCircleMoveWeaponSkill, COMDAT
; _this$ = ecx

; 15   : {

  00000	6a 08		 push	 8
  00002	b8 00 00 00 00	 mov	 eax, __ehhandler$??0ioCircleMoveWeaponSkill@@QAE@XZ
  00007	e8 00 00 00 00	 call	 __EH_prolog3
  0000c	8b d9		 mov	 ebx, ecx
  0000e	89 5d ec	 mov	 DWORD PTR _this$[ebp], ebx
  00011	e8 00 00 00 00	 call	 ??0ioNormalSkill@@QAE@XZ ; ioNormalSkill::ioNormalSkill
  00016	33 ff		 xor	 edi, edi
  00018	8d 8b 58 0f 00
	00		 lea	 ecx, DWORD PTR [ebx+3928]
  0001e	89 7d fc	 mov	 DWORD PTR __$EHRec$[ebp+8], edi
  00021	c7 03 00 00 00
	00		 mov	 DWORD PTR [ebx], OFFSET ??_7ioCircleMoveWeaponSkill@@6B@
  00027	e8 00 00 00 00	 call	 ??0?$CEncrypt@H@@QAE@XZ	; CEncrypt<int>::CEncrypt<int>
  0002c	8d 8b 8c 0f 00
	00		 lea	 ecx, DWORD PTR [ebx+3980]
  00032	c6 45 fc 01	 mov	 BYTE PTR __$EHRec$[ebp+8], 1
  00036	e8 00 00 00 00	 call	 ??0AttackAttribute@@QAE@XZ ; AttackAttribute::AttackAttribute
  0003b	8b 35 00 00 00
	00		 mov	 esi, DWORD PTR __imp_??0ioHashString@@QAE@XZ
  00041	8d 8b 08 10 00
	00		 lea	 ecx, DWORD PTR [ebx+4104]
  00047	c6 45 fc 02	 mov	 BYTE PTR __$EHRec$[ebp+8], 2
  0004b	ff d6		 call	 esi
  0004d	8d 8b 18 10 00
	00		 lea	 ecx, DWORD PTR [ebx+4120]
  00053	c6 45 fc 03	 mov	 BYTE PTR __$EHRec$[ebp+8], 3
  00057	ff d6		 call	 esi
  00059	8d 8b 28 10 00
	00		 lea	 ecx, DWORD PTR [ebx+4136]
  0005f	c6 45 fc 04	 mov	 BYTE PTR __$EHRec$[ebp+8], 4
  00063	ff d6		 call	 esi
  00065	8d 8b 38 10 00
	00		 lea	 ecx, DWORD PTR [ebx+4152]
  0006b	c6 45 fc 05	 mov	 BYTE PTR __$EHRec$[ebp+8], 5
  0006f	ff d6		 call	 esi
  00071	8d 8b 50 10 00
	00		 lea	 ecx, DWORD PTR [ebx+4176]
  00077	c6 45 fc 06	 mov	 BYTE PTR __$EHRec$[ebp+8], 6
  0007b	ff d6		 call	 esi
  0007d	8d 8b 60 10 00
	00		 lea	 ecx, DWORD PTR [ebx+4192]
  00083	c6 45 fc 07	 mov	 BYTE PTR __$EHRec$[ebp+8], 7
  00087	ff d6		 call	 esi
  00089	8d 8b 74 10 00
	00		 lea	 ecx, DWORD PTR [ebx+4212]
  0008f	c6 45 fc 08	 mov	 BYTE PTR __$EHRec$[ebp+8], 8
  00093	e8 00 00 00 00	 call	 ??0?$CEncrypt@M@@QAE@XZ	; CEncrypt<float>::CEncrypt<float>
  00098	8d 8b a4 10 00
	00		 lea	 ecx, DWORD PTR [ebx+4260]
  0009e	c6 45 fc 09	 mov	 BYTE PTR __$EHRec$[ebp+8], 9
  000a2	e8 00 00 00 00	 call	 ??0?$CEncrypt@M@@QAE@XZ	; CEncrypt<float>::CEncrypt<float>
  000a7	8d 8b d4 10 00
	00		 lea	 ecx, DWORD PTR [ebx+4308]
  000ad	c6 45 fc 0a	 mov	 BYTE PTR __$EHRec$[ebp+8], 10 ; 0000000aH
  000b1	e8 00 00 00 00	 call	 ??0?$CEncrypt@M@@QAE@XZ	; CEncrypt<float>::CEncrypt<float>
  000b6	89 bb 04 11 00
	00		 mov	 DWORD PTR [ebx+4356], edi
  000bc	89 bb 08 11 00
	00		 mov	 DWORD PTR [ebx+4360], edi
  000c2	89 bb 0c 11 00
	00		 mov	 DWORD PTR [ebx+4364], edi
  000c8	89 bb 14 11 00
	00		 mov	 DWORD PTR [ebx+4372], edi
  000ce	89 bb 18 11 00
	00		 mov	 DWORD PTR [ebx+4376], edi
  000d4	89 bb 1c 11 00
	00		 mov	 DWORD PTR [ebx+4380], edi

; 16   : 	m_State = SS_NONE;

  000da	8d 45 f0	 lea	 eax, DWORD PTR _value$582457[ebp]
  000dd	50		 push	 eax
  000de	8d 8b 58 0f 00
	00		 lea	 ecx, DWORD PTR [ebx+3928]
  000e4	c6 45 fc 0d	 mov	 BYTE PTR __$EHRec$[ebp+8], 13 ; 0000000dH
  000e8	89 7d f0	 mov	 DWORD PTR _value$582457[ebp], edi
  000eb	e8 00 00 00 00	 call	 ?EncryptValueToPool@?$CEncrypt@H@@AAEXPBD@Z ; CEncrypt<int>::EncryptValueToPool

; 17   : 
; 18   : 	m_dwCurMapEffect = -1;

  000f0	83 8b 48 10 00
	00 ff		 or	 DWORD PTR [ebx+4168], -1

; 19   : 	m_dwTargetCircleEffect = -1;

  000f7	83 8b 4c 10 00
	00 ff		 or	 DWORD PTR [ebx+4172], -1

; 20   : 
; 21   : 	m_bSetHandMesh = false;

  000fe	c6 83 0a 0f 00
	00 00		 mov	 BYTE PTR [ebx+3850], 0

; 22   : 	m_dwFireStartTime = 0;

  00105	89 bb 88 0f 00
	00		 mov	 DWORD PTR [ebx+3976], edi

; 23   : 
; 24   : 	m_iCurWeaponCnt = 0;

  0010b	89 bb 70 10 00
	00		 mov	 DWORD PTR [ebx+4208], edi

; 25   : 	m_vWeaponMoveInfoList.clear();

  00111	8b 83 08 11 00
	00		 mov	 eax, DWORD PTR [ebx+4360]
  00117	8b 8b 04 11 00
	00		 mov	 ecx, DWORD PTR [ebx+4356]
  0011d	50		 push	 eax
  0011e	51		 push	 ecx
  0011f	8d 45 ec	 lea	 eax, DWORD PTR $T582521[ebp]
  00122	50		 push	 eax
  00123	8d 8b 04 11 00
	00		 lea	 ecx, DWORD PTR [ebx+4356]
  00129	e8 00 00 00 00	 call	 ?erase@?$vector@UWeaponMoveInfo@@V?$allocator@UWeaponMoveInfo@@@std@@@std@@QAE?AV?$_Vector_iterator@V?$_Vector_val@UWeaponMoveInfo@@V?$allocator@UWeaponMoveInfo@@@std@@@std@@@2@V?$_Vector_const_iterator@V?$_Vector_val@UWeaponMoveInfo@@V?$allocator@UWeaponMoveInfo@@@std@@@std@@@2@0@Z ; std::vector<WeaponMoveInfo,std::allocator<WeaponMoveInfo> >::erase

; 26   : 
; 27   : 	m_vAttackDir = ioMath::VEC3_ZERO;

  0012e	8b 35 00 00 00
	00		 mov	 esi, DWORD PTR __imp_?VEC3_ZERO@ioMath@@2UD3DXVECTOR3@@A
  00134	8d bb f8 0f 00
	00		 lea	 edi, DWORD PTR [ebx+4088]
  0013a	a5		 movsd
  0013b	a5		 movsd
  0013c	a5		 movsd

; 28   : 	m_fMoveRange = 0;

  0013d	0f 57 c0	 xorps	 xmm0, xmm0

; 29   : 
; 30   : 	m_dwCurSkillProtectedTime = 0;

  00140	83 a3 28 11 00
	00 00		 and	 DWORD PTR [ebx+4392], 0
  00147	f3 0f 11 83 04
	10 00 00	 movss	 DWORD PTR [ebx+4100], xmm0

; 31   : }

  0014f	8b c3		 mov	 eax, ebx
  00151	e8 00 00 00 00	 call	 __EH_epilog3
  00156	c3		 ret	 0
_TEXT	ENDS
;	COMDAT text$x
text$x	SEGMENT
__unwindfunclet$??0ioCircleMoveWeaponSkill@@QAE@XZ$0:
  00000	8b 4d ec	 mov	 ecx, DWORD PTR _this$[ebp]
  00003	e9 00 00 00 00	 jmp	 ??1ioNormalSkill@@UAE@XZ ; ioNormalSkill::~ioNormalSkill
__unwindfunclet$??0ioCircleMoveWeaponSkill@@QAE@XZ$1:
  00008	8b 4d ec	 mov	 ecx, DWORD PTR _this$[ebp]
  0000b	81 c1 58 0f 00
	00		 add	 ecx, 3928		; 00000f58H
  00011	e9 00 00 00 00	 jmp	 ??1?$CEncrypt@H@@UAE@XZ	; CEncrypt<int>::~CEncrypt<int>
__unwindfunclet$??0ioCircleMoveWeaponSkill@@QAE@XZ$2:
  00016	8b 4d ec	 mov	 ecx, DWORD PTR _this$[ebp]
  00019	81 c1 8c 0f 00
	00		 add	 ecx, 3980		; 00000f8cH
  0001f	e9 00 00 00 00	 jmp	 ??1AttackAttribute@@QAE@XZ
__unwindfunclet$??0ioCircleMoveWeaponSkill@@QAE@XZ$3:
  00024	8b 4d ec	 mov	 ecx, DWORD PTR _this$[ebp]
  00027	81 c1 08 10 00
	00		 add	 ecx, 4104		; 00001008H
  0002d	ff 25 00 00 00
	00		 jmp	 DWORD PTR __imp_??1ioHashString@@QAE@XZ
__unwindfunclet$??0ioCircleMoveWeaponSkill@@QAE@XZ$4:
  00033	8b 4d ec	 mov	 ecx, DWORD PTR _this$[ebp]
  00036	81 c1 18 10 00
	00		 add	 ecx, 4120		; 00001018H
  0003c	ff 25 00 00 00
	00		 jmp	 DWORD PTR __imp_??1ioHashString@@QAE@XZ
__unwindfunclet$??0ioCircleMoveWeaponSkill@@QAE@XZ$5:
  00042	8b 4d ec	 mov	 ecx, DWORD PTR _this$[ebp]
  00045	81 c1 28 10 00
	00		 add	 ecx, 4136		; 00001028H
  0004b	ff 25 00 00 00
	00		 jmp	 DWORD PTR __imp_??1ioHashString@@QAE@XZ
__unwindfunclet$??0ioCircleMoveWeaponSkill@@QAE@XZ$6:
  00051	8b 4d ec	 mov	 ecx, DWORD PTR _this$[ebp]
  00054	81 c1 38 10 00
	00		 add	 ecx, 4152		; 00001038H
  0005a	ff 25 00 00 00
	00		 jmp	 DWORD PTR __imp_??1ioHashString@@QAE@XZ
__unwindfunclet$??0ioCircleMoveWeaponSkill@@QAE@XZ$7:
  00060	8b 4d ec	 mov	 ecx, DWORD PTR _this$[ebp]
  00063	81 c1 50 10 00
	00		 add	 ecx, 4176		; 00001050H
  00069	ff 25 00 00 00
	00		 jmp	 DWORD PTR __imp_??1ioHashString@@QAE@XZ
__unwindfunclet$??0ioCircleMoveWeaponSkill@@QAE@XZ$8:
  0006f	8b 4d ec	 mov	 ecx, DWORD PTR _this$[ebp]
  00072	81 c1 60 10 00
	00		 add	 ecx, 4192		; 00001060H
  00078	ff 25 00 00 00
	00		 jmp	 DWORD PTR __imp_??1ioHashString@@QAE@XZ
__unwindfunclet$??0ioCircleMoveWeaponSkill@@QAE@XZ$9:
  0007e	8b 4d ec	 mov	 ecx, DWORD PTR _this$[ebp]
  00081	81 c1 74 10 00
	00		 add	 ecx, 4212		; 00001074H
  00087	e9 00 00 00 00	 jmp	 ??1?$CEncrypt@M@@UAE@XZ	; CEncrypt<float>::~CEncrypt<float>
__unwindfunclet$??0ioCircleMoveWeaponSkill@@QAE@XZ$10:
  0008c	8b 4d ec	 mov	 ecx, DWORD PTR _this$[ebp]
  0008f	81 c1 a4 10 00
	00		 add	 ecx, 4260		; 000010a4H
  00095	e9 00 00 00 00	 jmp	 ??1?$CEncrypt@M@@UAE@XZ	; CEncrypt<float>::~CEncrypt<float>
__unwindfunclet$??0ioCircleMoveWeaponSkill@@QAE@XZ$11:
  0009a	8b 4d ec	 mov	 ecx, DWORD PTR _this$[ebp]
  0009d	81 c1 d4 10 00
	00		 add	 ecx, 4308		; 000010d4H
  000a3	e9 00 00 00 00	 jmp	 ??1?$CEncrypt@M@@UAE@XZ	; CEncrypt<float>::~CEncrypt<float>
__unwindfunclet$??0ioCircleMoveWeaponSkill@@QAE@XZ$12:
  000a8	8b 4d ec	 mov	 ecx, DWORD PTR _this$[ebp]
  000ab	81 c1 04 11 00
	00		 add	 ecx, 4356		; 00001104H
  000b1	e9 00 00 00 00	 jmp	 ??1?$vector@UWeaponMoveInfo@@V?$allocator@UWeaponMoveInfo@@@std@@@std@@QAE@XZ ; std::vector<WeaponMoveInfo,std::allocator<WeaponMoveInfo> >::~vector<WeaponMoveInfo,std::allocator<WeaponMoveInfo> >
__unwindfunclet$??0ioCircleMoveWeaponSkill@@QAE@XZ$13:
  000b6	8b 4d ec	 mov	 ecx, DWORD PTR _this$[ebp]
  000b9	81 c1 14 11 00
	00		 add	 ecx, 4372		; 00001114H
  000bf	e9 00 00 00 00	 jmp	 ??1?$vector@UBuffInfoStruct@@V?$allocator@UBuffInfoStruct@@@std@@@std@@QAE@XZ ; std::vector<BuffInfoStruct,std::allocator<BuffInfoStruct> >::~vector<BuffInfoStruct,std::allocator<BuffInfoStruct> >
__ehhandler$??0ioCircleMoveWeaponSkill@@QAE@XZ:
  000c4	8b 54 24 08	 mov	 edx, DWORD PTR [esp+8]
  000c8	8d 42 0c	 lea	 eax, DWORD PTR [edx+12]
  000cb	8b 4a e8	 mov	 ecx, DWORD PTR [edx-24]
  000ce	33 c8		 xor	 ecx, eax
  000d0	e8 00 00 00 00	 call	 @__security_check_cookie@4
  000d5	b8 00 00 00 00	 mov	 eax, OFFSET __ehfuncinfo$??0ioCircleMoveWeaponSkill@@QAE@XZ
  000da	e9 00 00 00 00	 jmp	 ___CxxFrameHandler3
text$x	ENDS
??0ioCircleMoveWeaponSkill@@QAE@XZ ENDP			; ioCircleMoveWeaponSkill::ioCircleMoveWeaponSkill
; Function compile flags: /Ogsp
; File d:\lost saga for developer\youtube\tutorial\source\src\lsclient\ioskill.h
;	COMDAT ?GetDefenseSkillBreakeType@ioSkill@@UBE?AW4DefenseBreakType@@XZ
_TEXT	SEGMENT
?GetDefenseSkillBreakeType@ioSkill@@UBE?AW4DefenseBreakType@@XZ PROC ; ioSkill::GetDefenseSkillBreakeType, COMDAT
; _this$ = ecx

; 327  : 	virtual DefenseBreakType GetDefenseSkillBreakeType() const { return m_eDefenseSkillBreakType; }

  00000	8b 81 30 0e 00
	00		 mov	 eax, DWORD PTR [ecx+3632]
  00006	c3		 ret	 0
?GetDefenseSkillBreakeType@ioSkill@@UBE?AW4DefenseBreakType@@XZ ENDP ; ioSkill::GetDefenseSkillBreakeType
; Function compile flags: /Ogsp
_TEXT	ENDS
;	COMDAT ?GetSkillEndNextJumpAmt@ioSkill@@UBEMXZ
_TEXT	SEGMENT
?GetSkillEndNextJumpAmt@ioSkill@@UBEMXZ PROC		; ioSkill::GetSkillEndNextJumpAmt, COMDAT
; _this$ = ecx

; 335  : 	virtual float GetSkillEndNextJumpAmt() const { return m_fSkillEndNextJumpAmt; }

  00000	d9 81 4c 05 00
	00		 fld	 DWORD PTR [ecx+1356]
  00006	c3		 ret	 0
?GetSkillEndNextJumpAmt@ioSkill@@UBEMXZ ENDP		; ioSkill::GetSkillEndNextJumpAmt
; Function compile flags: /Ogsp
_TEXT	ENDS
;	COMDAT ?GetSkillEndNextLandRate@ioSkill@@UBEMXZ
_TEXT	SEGMENT
?GetSkillEndNextLandRate@ioSkill@@UBEMXZ PROC		; ioSkill::GetSkillEndNextLandRate, COMDAT
; _this$ = ecx

; 336  : 	virtual float GetSkillEndNextLandRate() const { return m_fSkillEndNextLandRate; }

  00000	d9 81 50 05 00
	00		 fld	 DWORD PTR [ecx+1360]
  00006	c3		 ret	 0
?GetSkillEndNextLandRate@ioSkill@@UBEMXZ ENDP		; ioSkill::GetSkillEndNextLandRate
; Function compile flags: /Ogsp
_TEXT	ENDS
;	COMDAT ?GetSkillEndNextJumpMustEnable@ioSkill@@UAE?AW4SkillEndJumpType@@XZ
_TEXT	SEGMENT
?GetSkillEndNextJumpMustEnable@ioSkill@@UAE?AW4SkillEndJumpType@@XZ PROC ; ioSkill::GetSkillEndNextJumpMustEnable, COMDAT
; _this$ = ecx

; 337  : 	virtual SkillEndJumpType GetSkillEndNextJumpMustEnable(){ return SEJT_DEFAULT; }

  00000	33 c0		 xor	 eax, eax
  00002	c3		 ret	 0
?GetSkillEndNextJumpMustEnable@ioSkill@@UAE?AW4SkillEndJumpType@@XZ ENDP ; ioSkill::GetSkillEndNextJumpMustEnable
; Function compile flags: /Ogsp
_TEXT	ENDS
;	COMDAT ?EnableChangeGrapplingTargetPos@ioSkill@@UBE_NXZ
_TEXT	SEGMENT
?EnableChangeGrapplingTargetPos@ioSkill@@UBE_NXZ PROC	; ioSkill::EnableChangeGrapplingTargetPos, COMDAT
; _this$ = ecx

; 355  : 	virtual bool EnableChangeGrapplingTargetPos() const { return m_bChangeGrapplingTargetPos; }

  00000	8a 81 40 09 00
	00		 mov	 al, BYTE PTR [ecx+2368]
  00006	c3		 ret	 0
?EnableChangeGrapplingTargetPos@ioSkill@@UBE_NXZ ENDP	; ioSkill::EnableChangeGrapplingTargetPos
; Function compile flags: /Ogsp
_TEXT	ENDS
;	COMDAT ?IsInvisibleBottomCircle@ioSkill@@UAE_NPAVioBaseChar@@@Z
_TEXT	SEGMENT
_pChar$ = 8						; size = 4
?IsInvisibleBottomCircle@ioSkill@@UAE_NPAVioBaseChar@@@Z PROC ; ioSkill::IsInvisibleBottomCircle, COMDAT
; _this$ = ecx

; 393  : 	virtual bool IsInvisibleBottomCircle( ioBaseChar *pChar ) { return false; }

  00000	32 c0		 xor	 al, al
  00002	c2 04 00	 ret	 4
?IsInvisibleBottomCircle@ioSkill@@UAE_NPAVioBaseChar@@@Z ENDP ; ioSkill::IsInvisibleBottomCircle
; Function compile flags: /Ogsp
_TEXT	ENDS
;	COMDAT ?IsUseActiveCnt@ioSkill@@UBE_NXZ
_TEXT	SEGMENT
?IsUseActiveCnt@ioSkill@@UBE_NXZ PROC			; ioSkill::IsUseActiveCnt, COMDAT
; _this$ = ecx

; 544  : 	virtual bool IsUseActiveCnt() const { return false; }

  00000	32 c0		 xor	 al, al
  00002	c3		 ret	 0
?IsUseActiveCnt@ioSkill@@UBE_NXZ ENDP			; ioSkill::IsUseActiveCnt
; Function compile flags: /Ogsp
_TEXT	ENDS
;	COMDAT ?GetMaxActiveCnt@ioSkill@@UBEHPAVioBaseChar@@@Z
_TEXT	SEGMENT
_pChar$ = 8						; size = 4
?GetMaxActiveCnt@ioSkill@@UBEHPAVioBaseChar@@@Z PROC	; ioSkill::GetMaxActiveCnt, COMDAT
; _this$ = ecx

; 545  : 	virtual int GetMaxActiveCnt( ioBaseChar *pChar ) const { return 0; }

  00000	33 c0		 xor	 eax, eax
  00002	c2 04 00	 ret	 4
?GetMaxActiveCnt@ioSkill@@UBEHPAVioBaseChar@@@Z ENDP	; ioSkill::GetMaxActiveCnt
; Function compile flags: /Ogsp
_TEXT	ENDS
;	COMDAT ?GetCurActiveCnt@ioSkill@@UBEHPAVioBaseChar@@@Z
_TEXT	SEGMENT
_pChar$ = 8						; size = 4
?GetCurActiveCnt@ioSkill@@UBEHPAVioBaseChar@@@Z PROC	; ioSkill::GetCurActiveCnt, COMDAT
; _this$ = ecx

; 546  : 	virtual int GetCurActiveCnt( ioBaseChar *pChar ) const { return 0; }

  00000	33 c0		 xor	 eax, eax
  00002	c2 04 00	 ret	 4
?GetCurActiveCnt@ioSkill@@UBEHPAVioBaseChar@@@Z ENDP	; ioSkill::GetCurActiveCnt
; Function compile flags: /Ogsp
_TEXT	ENDS
;	COMDAT ?IsCanJumpingSkill@ioSkill@@UBE_NXZ
_TEXT	SEGMENT
_value$582576 = -1					; size = 1
?IsCanJumpingSkill@ioSkill@@UBE_NXZ PROC		; ioSkill::IsCanJumpingSkill, COMDAT
; _this$ = ecx

; 431  : 	virtual bool IsCanJumpingSkill() const { return m_bEnableJumpingSkill; }

  00000	55		 push	 ebp
  00001	8b ec		 mov	 ebp, esp
  00003	51		 push	 ecx
  00004	8d 45 ff	 lea	 eax, DWORD PTR _value$582576[ebp]
  00007	50		 push	 eax
  00008	81 c1 9c 03 00
	00		 add	 ecx, 924		; 0000039cH
  0000e	e8 00 00 00 00	 call	 ?DecryptValueToPool@?$CEncrypt@_N@@QAEXPA_N@Z ; CEncrypt<bool>::DecryptValueToPool
  00013	8a 45 ff	 mov	 al, BYTE PTR _value$582576[ebp]
  00016	c9		 leave
  00017	c3		 ret	 0
?IsCanJumpingSkill@ioSkill@@UBE_NXZ ENDP		; ioSkill::IsCanJumpingSkill
; Function compile flags: /Ogsp
_TEXT	ENDS
;	COMDAT ?IsCanJumpingSkillOnBlowWound@ioSkill@@UBE_NXZ
_TEXT	SEGMENT
_value$582583 = -1					; size = 1
?IsCanJumpingSkillOnBlowWound@ioSkill@@UBE_NXZ PROC	; ioSkill::IsCanJumpingSkillOnBlowWound, COMDAT
; _this$ = ecx

; 432  : 	virtual bool IsCanJumpingSkillOnBlowWound() const { return m_bEnableJumpingSkillOnBlowWound; }

  00000	55		 push	 ebp
  00001	8b ec		 mov	 ebp, esp
  00003	51		 push	 ecx
  00004	8d 45 ff	 lea	 eax, DWORD PTR _value$582583[ebp]
  00007	50		 push	 eax
  00008	81 c1 cc 03 00
	00		 add	 ecx, 972		; 000003ccH
  0000e	e8 00 00 00 00	 call	 ?DecryptValueToPool@?$CEncrypt@_N@@QAEXPA_N@Z ; CEncrypt<bool>::DecryptValueToPool
  00013	8a 45 ff	 mov	 al, BYTE PTR _value$582583[ebp]
  00016	c9		 leave
  00017	c3		 ret	 0
?IsCanJumpingSkillOnBlowWound@ioSkill@@UBE_NXZ ENDP	; ioSkill::IsCanJumpingSkillOnBlowWound
; Function compile flags: /Ogsp
_TEXT	ENDS
;	COMDAT ?IsCanDownSkill@ioSkill@@UBE_NXZ
_TEXT	SEGMENT
_value$582590 = -1					; size = 1
?IsCanDownSkill@ioSkill@@UBE_NXZ PROC			; ioSkill::IsCanDownSkill, COMDAT
; _this$ = ecx

; 437  : 	virtual bool IsCanDownSkill() const { return m_bEnableDownSkill; }

  00000	55		 push	 ebp
  00001	8b ec		 mov	 ebp, esp
  00003	51		 push	 ecx
  00004	8d 45 ff	 lea	 eax, DWORD PTR _value$582590[ebp]
  00007	50		 push	 eax
  00008	81 c1 5c 04 00
	00		 add	 ecx, 1116		; 0000045cH
  0000e	e8 00 00 00 00	 call	 ?DecryptValueToPool@?$CEncrypt@_N@@QAEXPA_N@Z ; CEncrypt<bool>::DecryptValueToPool
  00013	8a 45 ff	 mov	 al, BYTE PTR _value$582590[ebp]
  00016	c9		 leave
  00017	c3		 ret	 0
?IsCanDownSkill@ioSkill@@UBE_NXZ ENDP			; ioSkill::IsCanDownSkill
; Function compile flags: /Ogsp
_TEXT	ENDS
;	COMDAT ?IsCanBlowWoundSkill@ioSkill@@UBE_NXZ
_TEXT	SEGMENT
_value$582597 = -1					; size = 1
?IsCanBlowWoundSkill@ioSkill@@UBE_NXZ PROC		; ioSkill::IsCanBlowWoundSkill, COMDAT
; _this$ = ecx

; 440  : 	virtual bool IsCanBlowWoundSkill() const { return m_bEnableBlowWoundSkill; }

  00000	55		 push	 ebp
  00001	8b ec		 mov	 ebp, esp
  00003	51		 push	 ecx
  00004	8d 45 ff	 lea	 eax, DWORD PTR _value$582597[ebp]
  00007	50		 push	 eax
  00008	81 c1 8c 04 00
	00		 add	 ecx, 1164		; 0000048cH
  0000e	e8 00 00 00 00	 call	 ?DecryptValueToPool@?$CEncrypt@_N@@QAEXPA_N@Z ; CEncrypt<bool>::DecryptValueToPool
  00013	8a 45 ff	 mov	 al, BYTE PTR _value$582597[ebp]
  00016	c9		 leave
  00017	c3		 ret	 0
?IsCanBlowWoundSkill@ioSkill@@UBE_NXZ ENDP		; ioSkill::IsCanBlowWoundSkill
; Function compile flags: /Ogsp
_TEXT	ENDS
;	COMDAT ?IsCanWoundSkill@ioSkill@@UBE_NXZ
_TEXT	SEGMENT
_value$582604 = -1					; size = 1
?IsCanWoundSkill@ioSkill@@UBE_NXZ PROC			; ioSkill::IsCanWoundSkill, COMDAT
; _this$ = ecx

; 446  : 	virtual bool IsCanWoundSkill() const { return m_bEnableWoundSkill; }

  00000	55		 push	 ebp
  00001	8b ec		 mov	 ebp, esp
  00003	51		 push	 ecx
  00004	8d 45 ff	 lea	 eax, DWORD PTR _value$582604[ebp]
  00007	50		 push	 eax
  00008	81 c1 54 05 00
	00		 add	 ecx, 1364		; 00000554H
  0000e	e8 00 00 00 00	 call	 ?DecryptValueToPool@?$CEncrypt@_N@@QAEXPA_N@Z ; CEncrypt<bool>::DecryptValueToPool
  00013	8a 45 ff	 mov	 al, BYTE PTR _value$582604[ebp]
  00016	c9		 leave
  00017	c3		 ret	 0
?IsCanWoundSkill@ioSkill@@UBE_NXZ ENDP			; ioSkill::IsCanWoundSkill
_TEXT	ENDS
PUBLIC	??0ioCircleMoveWeaponSkill@@QAE@ABV0@@Z		; ioCircleMoveWeaponSkill::ioCircleMoveWeaponSkill
EXTRN	??0ioNormalSkill@@QAE@ABV0@@Z:PROC		; ioNormalSkill::ioNormalSkill
;	COMDAT xdata$x
; File c:\program files (x86)\microsoft visual studio 10.0\vc\include\xutility
xdata$x	SEGMENT
__ehfuncinfo$??0ioCircleMoveWeaponSkill@@QAE@ABV0@@Z DD 019930522H
	DD	0eH
	DD	FLAT:__unwindtable$??0ioCircleMoveWeaponSkill@@QAE@ABV0@@Z
	DD	2 DUP(00H)
	DD	2 DUP(00H)
	DD	00H
	DD	01H
__unwindtable$??0ioCircleMoveWeaponSkill@@QAE@ABV0@@Z DD 0ffffffffH
	DD	FLAT:__unwindfunclet$??0ioCircleMoveWeaponSkill@@QAE@ABV0@@Z$0
	DD	00H
	DD	FLAT:__unwindfunclet$??0ioCircleMoveWeaponSkill@@QAE@ABV0@@Z$1
	DD	01H
	DD	FLAT:__unwindfunclet$??0ioCircleMoveWeaponSkill@@QAE@ABV0@@Z$2
	DD	02H
	DD	FLAT:__unwindfunclet$??0ioCircleMoveWeaponSkill@@QAE@ABV0@@Z$3
	DD	03H
	DD	FLAT:__unwindfunclet$??0ioCircleMoveWeaponSkill@@QAE@ABV0@@Z$4
	DD	04H
	DD	FLAT:__unwindfunclet$??0ioCircleMoveWeaponSkill@@QAE@ABV0@@Z$5
	DD	05H
	DD	FLAT:__unwindfunclet$??0ioCircleMoveWeaponSkill@@QAE@ABV0@@Z$6
	DD	06H
	DD	FLAT:__unwindfunclet$??0ioCircleMoveWeaponSkill@@QAE@ABV0@@Z$7
	DD	07H
	DD	FLAT:__unwindfunclet$??0ioCircleMoveWeaponSkill@@QAE@ABV0@@Z$8
	DD	08H
	DD	FLAT:__unwindfunclet$??0ioCircleMoveWeaponSkill@@QAE@ABV0@@Z$9
	DD	09H
	DD	FLAT:__unwindfunclet$??0ioCircleMoveWeaponSkill@@QAE@ABV0@@Z$10
	DD	0aH
	DD	FLAT:__unwindfunclet$??0ioCircleMoveWeaponSkill@@QAE@ABV0@@Z$11
	DD	0bH
	DD	FLAT:__unwindfunclet$??0ioCircleMoveWeaponSkill@@QAE@ABV0@@Z$12
	DD	0cH
	DD	FLAT:__unwindfunclet$??0ioCircleMoveWeaponSkill@@QAE@ABV0@@Z$13
; Function compile flags: /Ogsp
; File d:\lost saga for developer\youtube\tutorial\source\src\lsclient\iocirclemoveweaponskill.cpp
xdata$x	ENDS
;	COMDAT ??0ioCircleMoveWeaponSkill@@QAE@ABV0@@Z
_TEXT	SEGMENT
_this$ = -16						; size = 4
__$EHRec$ = -12						; size = 12
$T582719 = 8						; size = 4
_value$582656 = 8					; size = 4
_rhs$ = 8						; size = 4
??0ioCircleMoveWeaponSkill@@QAE@ABV0@@Z PROC		; ioCircleMoveWeaponSkill::ioCircleMoveWeaponSkill, COMDAT
; _this$ = ecx

; 51   : {

  00000	6a 04		 push	 4
  00002	b8 00 00 00 00	 mov	 eax, __ehhandler$??0ioCircleMoveWeaponSkill@@QAE@ABV0@@Z
  00007	e8 00 00 00 00	 call	 __EH_prolog3
  0000c	8b d9		 mov	 ebx, ecx
  0000e	89 5d f0	 mov	 DWORD PTR _this$[ebp], ebx
  00011	8b 75 08	 mov	 esi, DWORD PTR _rhs$[ebp]
  00014	56		 push	 esi
  00015	e8 00 00 00 00	 call	 ??0ioNormalSkill@@QAE@ABV0@@Z ; ioNormalSkill::ioNormalSkill
  0001a	83 65 fc 00	 and	 DWORD PTR __$EHRec$[ebp+8], 0
  0001e	8d 8b 58 0f 00
	00		 lea	 ecx, DWORD PTR [ebx+3928]
  00024	c7 03 00 00 00
	00		 mov	 DWORD PTR [ebx], OFFSET ??_7ioCircleMoveWeaponSkill@@6B@
  0002a	e8 00 00 00 00	 call	 ??0?$CEncrypt@H@@QAE@XZ	; CEncrypt<int>::CEncrypt<int>
  0002f	8d 86 8c 0f 00
	00		 lea	 eax, DWORD PTR [esi+3980]
  00035	50		 push	 eax
  00036	8d 8b 8c 0f 00
	00		 lea	 ecx, DWORD PTR [ebx+3980]
  0003c	c6 45 fc 01	 mov	 BYTE PTR __$EHRec$[ebp+8], 1
  00040	e8 00 00 00 00	 call	 ??0AttackAttribute@@QAE@ABU0@@Z
  00045	d9 86 dc 0f 00
	00		 fld	 DWORD PTR [esi+4060]
  0004b	8b 3d 00 00 00
	00		 mov	 edi, DWORD PTR __imp_??0ioHashString@@QAE@ABV0@@Z
  00051	d9 9b dc 0f 00
	00		 fstp	 DWORD PTR [ebx+4060]
  00057	d9 86 e0 0f 00
	00		 fld	 DWORD PTR [esi+4064]
  0005d	8d 86 08 10 00
	00		 lea	 eax, DWORD PTR [esi+4104]
  00063	d9 9b e0 0f 00
	00		 fstp	 DWORD PTR [ebx+4064]
  00069	50		 push	 eax
  0006a	d9 86 e4 0f 00
	00		 fld	 DWORD PTR [esi+4068]
  00070	8d 8b 08 10 00
	00		 lea	 ecx, DWORD PTR [ebx+4104]
  00076	d9 9b e4 0f 00
	00		 fstp	 DWORD PTR [ebx+4068]
  0007c	c6 45 fc 02	 mov	 BYTE PTR __$EHRec$[ebp+8], 2
  00080	d9 86 e8 0f 00
	00		 fld	 DWORD PTR [esi+4072]
  00086	d9 9b e8 0f 00
	00		 fstp	 DWORD PTR [ebx+4072]
  0008c	ff d7		 call	 edi
  0008e	8d 86 18 10 00
	00		 lea	 eax, DWORD PTR [esi+4120]
  00094	50		 push	 eax
  00095	8d 8b 18 10 00
	00		 lea	 ecx, DWORD PTR [ebx+4120]
  0009b	c6 45 fc 03	 mov	 BYTE PTR __$EHRec$[ebp+8], 3
  0009f	ff d7		 call	 edi
  000a1	8d 86 28 10 00
	00		 lea	 eax, DWORD PTR [esi+4136]
  000a7	50		 push	 eax
  000a8	8d 8b 28 10 00
	00		 lea	 ecx, DWORD PTR [ebx+4136]
  000ae	c6 45 fc 04	 mov	 BYTE PTR __$EHRec$[ebp+8], 4
  000b2	ff d7		 call	 edi
  000b4	8d 86 38 10 00
	00		 lea	 eax, DWORD PTR [esi+4152]
  000ba	50		 push	 eax
  000bb	8d 8b 38 10 00
	00		 lea	 ecx, DWORD PTR [ebx+4152]
  000c1	c6 45 fc 05	 mov	 BYTE PTR __$EHRec$[ebp+8], 5
  000c5	ff d7		 call	 edi
  000c7	8d 86 50 10 00
	00		 lea	 eax, DWORD PTR [esi+4176]
  000cd	50		 push	 eax
  000ce	8d 8b 50 10 00
	00		 lea	 ecx, DWORD PTR [ebx+4176]
  000d4	c6 45 fc 06	 mov	 BYTE PTR __$EHRec$[ebp+8], 6
  000d8	ff d7		 call	 edi
  000da	8d 86 60 10 00
	00		 lea	 eax, DWORD PTR [esi+4192]
  000e0	50		 push	 eax
  000e1	8d 8b 60 10 00
	00		 lea	 ecx, DWORD PTR [ebx+4192]
  000e7	c6 45 fc 07	 mov	 BYTE PTR __$EHRec$[ebp+8], 7
  000eb	ff d7		 call	 edi
  000ed	8d 86 74 10 00
	00		 lea	 eax, DWORD PTR [esi+4212]
  000f3	50		 push	 eax
  000f4	8d 8b 74 10 00
	00		 lea	 ecx, DWORD PTR [ebx+4212]
  000fa	c6 45 fc 08	 mov	 BYTE PTR __$EHRec$[ebp+8], 8
  000fe	e8 00 00 00 00	 call	 ??0?$CEncrypt@M@@QAE@ABV0@@Z ; CEncrypt<float>::CEncrypt<float>
  00103	8d 86 a4 10 00
	00		 lea	 eax, DWORD PTR [esi+4260]
  00109	50		 push	 eax
  0010a	8d 8b a4 10 00
	00		 lea	 ecx, DWORD PTR [ebx+4260]
  00110	c6 45 fc 09	 mov	 BYTE PTR __$EHRec$[ebp+8], 9
  00114	e8 00 00 00 00	 call	 ??0?$CEncrypt@M@@QAE@ABV0@@Z ; CEncrypt<float>::CEncrypt<float>
  00119	8d 86 d4 10 00
	00		 lea	 eax, DWORD PTR [esi+4308]
  0011f	50		 push	 eax
  00120	8d 8b d4 10 00
	00		 lea	 ecx, DWORD PTR [ebx+4308]
  00126	c6 45 fc 0a	 mov	 BYTE PTR __$EHRec$[ebp+8], 10 ; 0000000aH
  0012a	e8 00 00 00 00	 call	 ??0?$CEncrypt@M@@QAE@ABV0@@Z ; CEncrypt<float>::CEncrypt<float>
  0012f	33 c0		 xor	 eax, eax
  00131	89 83 04 11 00
	00		 mov	 DWORD PTR [ebx+4356], eax
  00137	89 83 08 11 00
	00		 mov	 DWORD PTR [ebx+4360], eax
  0013d	89 83 0c 11 00
	00		 mov	 DWORD PTR [ebx+4364], eax
  00143	8d 86 14 11 00
	00		 lea	 eax, DWORD PTR [esi+4372]
  00149	50		 push	 eax
  0014a	8d 8b 14 11 00
	00		 lea	 ecx, DWORD PTR [ebx+4372]
  00150	c6 45 fc 0c	 mov	 BYTE PTR __$EHRec$[ebp+8], 12 ; 0000000cH
  00154	e8 00 00 00 00	 call	 ??0?$vector@UBuffInfoStruct@@V?$allocator@UBuffInfoStruct@@@std@@@std@@QAE@ABV01@@Z ; std::vector<BuffInfoStruct,std::allocator<BuffInfoStruct> >::vector<BuffInfoStruct,std::allocator<BuffInfoStruct> >
  00159	8b 86 24 11 00
	00		 mov	 eax, DWORD PTR [esi+4388]
  0015f	89 83 24 11 00
	00		 mov	 DWORD PTR [ebx+4388], eax

; 52   : 	m_State = SS_NONE;

  00165	8d 45 08	 lea	 eax, DWORD PTR _value$582656[ebp]
  00168	33 f6		 xor	 esi, esi
  0016a	50		 push	 eax
  0016b	8d 8b 58 0f 00
	00		 lea	 ecx, DWORD PTR [ebx+3928]
  00171	c6 45 fc 0d	 mov	 BYTE PTR __$EHRec$[ebp+8], 13 ; 0000000dH
  00175	89 75 08	 mov	 DWORD PTR _value$582656[ebp], esi
  00178	e8 00 00 00 00	 call	 ?EncryptValueToPool@?$CEncrypt@H@@AAEXPBD@Z ; CEncrypt<int>::EncryptValueToPool

; 53   : 
; 54   : 	m_dwCurMapEffect = -1;

  0017d	83 8b 48 10 00
	00 ff		 or	 DWORD PTR [ebx+4168], -1

; 55   : 	m_dwTargetCircleEffect = -1;

  00184	83 8b 4c 10 00
	00 ff		 or	 DWORD PTR [ebx+4172], -1

; 56   : 
; 57   : 	m_bSetHandMesh = false;

  0018b	c6 83 0a 0f 00
	00 00		 mov	 BYTE PTR [ebx+3850], 0

; 58   : 	m_dwFireStartTime = 0;

  00192	89 b3 88 0f 00
	00		 mov	 DWORD PTR [ebx+3976], esi

; 59   : 
; 60   : 	m_iCurWeaponCnt = 0;

  00198	89 b3 70 10 00
	00		 mov	 DWORD PTR [ebx+4208], esi

; 61   : 	m_vWeaponMoveInfoList.clear();

  0019e	8b 83 08 11 00
	00		 mov	 eax, DWORD PTR [ebx+4360]
  001a4	8b 8b 04 11 00
	00		 mov	 ecx, DWORD PTR [ebx+4356]
  001aa	50		 push	 eax
  001ab	51		 push	 ecx
  001ac	8d 45 08	 lea	 eax, DWORD PTR $T582719[ebp]
  001af	50		 push	 eax
  001b0	8d 8b 04 11 00
	00		 lea	 ecx, DWORD PTR [ebx+4356]
  001b6	e8 00 00 00 00	 call	 ?erase@?$vector@UWeaponMoveInfo@@V?$allocator@UWeaponMoveInfo@@@std@@@std@@QAE?AV?$_Vector_iterator@V?$_Vector_val@UWeaponMoveInfo@@V?$allocator@UWeaponMoveInfo@@@std@@@std@@@2@V?$_Vector_const_iterator@V?$_Vector_val@UWeaponMoveInfo@@V?$allocator@UWeaponMoveInfo@@@std@@@std@@@2@0@Z ; std::vector<WeaponMoveInfo,std::allocator<WeaponMoveInfo> >::erase

; 62   : 
; 63   : 	m_vAttackDir = ioMath::VEC3_ZERO;

  001bb	8b 35 00 00 00
	00		 mov	 esi, DWORD PTR __imp_?VEC3_ZERO@ioMath@@2UD3DXVECTOR3@@A

; 64   : 	m_fMoveRange = 0;

  001c1	0f 57 c0	 xorps	 xmm0, xmm0
  001c4	8d bb f8 0f 00
	00		 lea	 edi, DWORD PTR [ebx+4088]
  001ca	a5		 movsd
  001cb	a5		 movsd
  001cc	a5		 movsd

; 65   : 
; 66   : 	m_dwCurSkillProtectedTime = 0;

  001cd	83 a3 28 11 00
	00 00		 and	 DWORD PTR [ebx+4392], 0
  001d4	f3 0f 11 83 04
	10 00 00	 movss	 DWORD PTR [ebx+4100], xmm0

; 67   : }

  001dc	8b c3		 mov	 eax, ebx
  001de	e8 00 00 00 00	 call	 __EH_epilog3
  001e3	c2 04 00	 ret	 4
_TEXT	ENDS
;	COMDAT text$x
text$x	SEGMENT
__unwindfunclet$??0ioCircleMoveWeaponSkill@@QAE@ABV0@@Z$0:
  00000	8b 4d f0	 mov	 ecx, DWORD PTR _this$[ebp]
  00003	e9 00 00 00 00	 jmp	 ??1ioNormalSkill@@UAE@XZ ; ioNormalSkill::~ioNormalSkill
__unwindfunclet$??0ioCircleMoveWeaponSkill@@QAE@ABV0@@Z$1:
  00008	8b 4d f0	 mov	 ecx, DWORD PTR _this$[ebp]
  0000b	81 c1 58 0f 00
	00		 add	 ecx, 3928		; 00000f58H
  00011	e9 00 00 00 00	 jmp	 ??1?$CEncrypt@H@@UAE@XZ	; CEncrypt<int>::~CEncrypt<int>
__unwindfunclet$??0ioCircleMoveWeaponSkill@@QAE@ABV0@@Z$2:
  00016	8b 4d f0	 mov	 ecx, DWORD PTR _this$[ebp]
  00019	81 c1 8c 0f 00
	00		 add	 ecx, 3980		; 00000f8cH
  0001f	e9 00 00 00 00	 jmp	 ??1AttackAttribute@@QAE@XZ
__unwindfunclet$??0ioCircleMoveWeaponSkill@@QAE@ABV0@@Z$3:
  00024	8b 4d f0	 mov	 ecx, DWORD PTR _this$[ebp]
  00027	81 c1 08 10 00
	00		 add	 ecx, 4104		; 00001008H
  0002d	ff 25 00 00 00
	00		 jmp	 DWORD PTR __imp_??1ioHashString@@QAE@XZ
__unwindfunclet$??0ioCircleMoveWeaponSkill@@QAE@ABV0@@Z$4:
  00033	8b 4d f0	 mov	 ecx, DWORD PTR _this$[ebp]
  00036	81 c1 18 10 00
	00		 add	 ecx, 4120		; 00001018H
  0003c	ff 25 00 00 00
	00		 jmp	 DWORD PTR __imp_??1ioHashString@@QAE@XZ
__unwindfunclet$??0ioCircleMoveWeaponSkill@@QAE@ABV0@@Z$5:
  00042	8b 4d f0	 mov	 ecx, DWORD PTR _this$[ebp]
  00045	81 c1 28 10 00
	00		 add	 ecx, 4136		; 00001028H
  0004b	ff 25 00 00 00
	00		 jmp	 DWORD PTR __imp_??1ioHashString@@QAE@XZ
__unwindfunclet$??0ioCircleMoveWeaponSkill@@QAE@ABV0@@Z$6:
  00051	8b 4d f0	 mov	 ecx, DWORD PTR _this$[ebp]
  00054	81 c1 38 10 00
	00		 add	 ecx, 4152		; 00001038H
  0005a	ff 25 00 00 00
	00		 jmp	 DWORD PTR __imp_??1ioHashString@@QAE@XZ
__unwindfunclet$??0ioCircleMoveWeaponSkill@@QAE@ABV0@@Z$7:
  00060	8b 4d f0	 mov	 ecx, DWORD PTR _this$[ebp]
  00063	81 c1 50 10 00
	00		 add	 ecx, 4176		; 00001050H
  00069	ff 25 00 00 00
	00		 jmp	 DWORD PTR __imp_??1ioHashString@@QAE@XZ
__unwindfunclet$??0ioCircleMoveWeaponSkill@@QAE@ABV0@@Z$8:
  0006f	8b 4d f0	 mov	 ecx, DWORD PTR _this$[ebp]
  00072	81 c1 60 10 00
	00		 add	 ecx, 4192		; 00001060H
  00078	ff 25 00 00 00
	00		 jmp	 DWORD PTR __imp_??1ioHashString@@QAE@XZ
__unwindfunclet$??0ioCircleMoveWeaponSkill@@QAE@ABV0@@Z$9:
  0007e	8b 4d f0	 mov	 ecx, DWORD PTR _this$[ebp]
  00081	81 c1 74 10 00
	00		 add	 ecx, 4212		; 00001074H
  00087	e9 00 00 00 00	 jmp	 ??1?$CEncrypt@M@@UAE@XZ	; CEncrypt<float>::~CEncrypt<float>
__unwindfunclet$??0ioCircleMoveWeaponSkill@@QAE@ABV0@@Z$10:
  0008c	8b 4d f0	 mov	 ecx, DWORD PTR _this$[ebp]
  0008f	81 c1 a4 10 00
	00		 add	 ecx, 4260		; 000010a4H
  00095	e9 00 00 00 00	 jmp	 ??1?$CEncrypt@M@@UAE@XZ	; CEncrypt<float>::~CEncrypt<float>
__unwindfunclet$??0ioCircleMoveWeaponSkill@@QAE@ABV0@@Z$11:
  0009a	8b 4d f0	 mov	 ecx, DWORD PTR _this$[ebp]
  0009d	81 c1 d4 10 00
	00		 add	 ecx, 4308		; 000010d4H
  000a3	e9 00 00 00 00	 jmp	 ??1?$CEncrypt@M@@UAE@XZ	; CEncrypt<float>::~CEncrypt<float>
__unwindfunclet$??0ioCircleMoveWeaponSkill@@QAE@ABV0@@Z$12:
  000a8	8b 4d f0	 mov	 ecx, DWORD PTR _this$[ebp]
  000ab	81 c1 04 11 00
	00		 add	 ecx, 4356		; 00001104H
  000b1	e9 00 00 00 00	 jmp	 ??1?$vector@UWeaponMoveInfo@@V?$allocator@UWeaponMoveInfo@@@std@@@std@@QAE@XZ ; std::vector<WeaponMoveInfo,std::allocator<WeaponMoveInfo> >::~vector<WeaponMoveInfo,std::allocator<WeaponMoveInfo> >
__unwindfunclet$??0ioCircleMoveWeaponSkill@@QAE@ABV0@@Z$13:
  000b6	8b 4d f0	 mov	 ecx, DWORD PTR _this$[ebp]
  000b9	81 c1 14 11 00
	00		 add	 ecx, 4372		; 00001114H
  000bf	e9 00 00 00 00	 jmp	 ??1?$vector@UBuffInfoStruct@@V?$allocator@UBuffInfoStruct@@@std@@@std@@QAE@XZ ; std::vector<BuffInfoStruct,std::allocator<BuffInfoStruct> >::~vector<BuffInfoStruct,std::allocator<BuffInfoStruct> >
__ehhandler$??0ioCircleMoveWeaponSkill@@QAE@ABV0@@Z:
  000c4	8b 54 24 08	 mov	 edx, DWORD PTR [esp+8]
  000c8	8d 42 0c	 lea	 eax, DWORD PTR [edx+12]
  000cb	8b 4a ec	 mov	 ecx, DWORD PTR [edx-20]
  000ce	33 c8		 xor	 ecx, eax
  000d0	e8 00 00 00 00	 call	 @__security_check_cookie@4
  000d5	b8 00 00 00 00	 mov	 eax, OFFSET __ehfuncinfo$??0ioCircleMoveWeaponSkill@@QAE@ABV0@@Z
  000da	e9 00 00 00 00	 jmp	 ___CxxFrameHandler3
text$x	ENDS
??0ioCircleMoveWeaponSkill@@QAE@ABV0@@Z ENDP		; ioCircleMoveWeaponSkill::ioCircleMoveWeaponSkill
PUBLIC	??1ioCircleMoveWeaponSkill@@UAE@XZ		; ioCircleMoveWeaponSkill::~ioCircleMoveWeaponSkill
;	COMDAT xdata$x
; File d:\lost saga for developer\youtube\tutorial\source\src\lsclient\encryptvalue.h
xdata$x	SEGMENT
__ehfuncinfo$??1ioCircleMoveWeaponSkill@@UAE@XZ DD 019930522H
	DD	0dH
	DD	FLAT:__unwindtable$??1ioCircleMoveWeaponSkill@@UAE@XZ
	DD	2 DUP(00H)
	DD	2 DUP(00H)
	DD	00H
	DD	01H
__unwindtable$??1ioCircleMoveWeaponSkill@@UAE@XZ DD 0ffffffffH
	DD	FLAT:__unwindfunclet$??1ioCircleMoveWeaponSkill@@UAE@XZ$0
	DD	00H
	DD	FLAT:__unwindfunclet$??1ioCircleMoveWeaponSkill@@UAE@XZ$1
	DD	01H
	DD	FLAT:__unwindfunclet$??1ioCircleMoveWeaponSkill@@UAE@XZ$2
	DD	02H
	DD	FLAT:__unwindfunclet$??1ioCircleMoveWeaponSkill@@UAE@XZ$3
	DD	03H
	DD	FLAT:__unwindfunclet$??1ioCircleMoveWeaponSkill@@UAE@XZ$4
	DD	04H
	DD	FLAT:__unwindfunclet$??1ioCircleMoveWeaponSkill@@UAE@XZ$5
	DD	05H
	DD	FLAT:__unwindfunclet$??1ioCircleMoveWeaponSkill@@UAE@XZ$6
	DD	06H
	DD	FLAT:__unwindfunclet$??1ioCircleMoveWeaponSkill@@UAE@XZ$7
	DD	07H
	DD	FLAT:__unwindfunclet$??1ioCircleMoveWeaponSkill@@UAE@XZ$8
	DD	08H
	DD	FLAT:__unwindfunclet$??1ioCircleMoveWeaponSkill@@UAE@XZ$9
	DD	09H
	DD	FLAT:__unwindfunclet$??1ioCircleMoveWeaponSkill@@UAE@XZ$10
	DD	0aH
	DD	FLAT:__unwindfunclet$??1ioCircleMoveWeaponSkill@@UAE@XZ$11
	DD	0bH
	DD	FLAT:__unwindfunclet$??1ioCircleMoveWeaponSkill@@UAE@XZ$12
; Function compile flags: /Ogsp
; File d:\lost saga for developer\youtube\tutorial\source\src\lsclient\iocirclemoveweaponskill.cpp
xdata$x	ENDS
;	COMDAT ??1ioCircleMoveWeaponSkill@@UAE@XZ
_TEXT	SEGMENT
_this$ = -16						; size = 4
__$EHRec$ = -12						; size = 12
??1ioCircleMoveWeaponSkill@@UAE@XZ PROC			; ioCircleMoveWeaponSkill::~ioCircleMoveWeaponSkill, COMDAT
; _this$ = ecx

; 70   : {

  00000	6a 04		 push	 4
  00002	b8 00 00 00 00	 mov	 eax, __ehhandler$??1ioCircleMoveWeaponSkill@@UAE@XZ
  00007	e8 00 00 00 00	 call	 __EH_prolog3
  0000c	8b f1		 mov	 esi, ecx
  0000e	89 75 f0	 mov	 DWORD PTR _this$[ebp], esi
  00011	c7 06 00 00 00
	00		 mov	 DWORD PTR [esi], OFFSET ??_7ioCircleMoveWeaponSkill@@6B@

; 71   : }

  00017	8d 8e 14 11 00
	00		 lea	 ecx, DWORD PTR [esi+4372]
  0001d	c7 45 fc 0c 00
	00 00		 mov	 DWORD PTR __$EHRec$[ebp+8], 12 ; 0000000cH
  00024	e8 00 00 00 00	 call	 ?_Tidy@?$vector@UBuffInfoStruct@@V?$allocator@UBuffInfoStruct@@@std@@@std@@IAEXXZ ; std::vector<BuffInfoStruct,std::allocator<BuffInfoStruct> >::_Tidy
  00029	8d 8e 04 11 00
	00		 lea	 ecx, DWORD PTR [esi+4356]
  0002f	c6 45 fc 0b	 mov	 BYTE PTR __$EHRec$[ebp+8], 11 ; 0000000bH
  00033	e8 00 00 00 00	 call	 ?_Tidy@?$vector@UWeaponMoveInfo@@V?$allocator@UWeaponMoveInfo@@@std@@@std@@IAEXXZ ; std::vector<WeaponMoveInfo,std::allocator<WeaponMoveInfo> >::_Tidy
  00038	bf 00 00 00 00	 mov	 edi, OFFSET ??_7?$CEncrypt@M@@6B@
  0003d	8d 8e e0 10 00
	00		 lea	 ecx, DWORD PTR [esi+4320]
  00043	c6 45 fc 0a	 mov	 BYTE PTR __$EHRec$[ebp+8], 10 ; 0000000aH
  00047	89 be d4 10 00
	00		 mov	 DWORD PTR [esi+4308], edi
  0004d	e8 00 00 00 00	 call	 ??1ccddaabb@@UAE@XZ	; ccddaabb::~ccddaabb
  00052	8d 8e b0 10 00
	00		 lea	 ecx, DWORD PTR [esi+4272]
  00058	c6 45 fc 09	 mov	 BYTE PTR __$EHRec$[ebp+8], 9
  0005c	89 be a4 10 00
	00		 mov	 DWORD PTR [esi+4260], edi
  00062	e8 00 00 00 00	 call	 ??1ccddaabb@@UAE@XZ	; ccddaabb::~ccddaabb
  00067	8d 8e 80 10 00
	00		 lea	 ecx, DWORD PTR [esi+4224]
  0006d	c6 45 fc 08	 mov	 BYTE PTR __$EHRec$[ebp+8], 8
  00071	89 be 74 10 00
	00		 mov	 DWORD PTR [esi+4212], edi
  00077	e8 00 00 00 00	 call	 ??1ccddaabb@@UAE@XZ	; ccddaabb::~ccddaabb
  0007c	8b 3d 00 00 00
	00		 mov	 edi, DWORD PTR __imp_??1ioHashString@@QAE@XZ
  00082	8d 8e 60 10 00
	00		 lea	 ecx, DWORD PTR [esi+4192]
  00088	c6 45 fc 07	 mov	 BYTE PTR __$EHRec$[ebp+8], 7
  0008c	ff d7		 call	 edi
  0008e	8d 8e 50 10 00
	00		 lea	 ecx, DWORD PTR [esi+4176]
  00094	c6 45 fc 06	 mov	 BYTE PTR __$EHRec$[ebp+8], 6
  00098	ff d7		 call	 edi
  0009a	8d 8e 38 10 00
	00		 lea	 ecx, DWORD PTR [esi+4152]
  000a0	c6 45 fc 05	 mov	 BYTE PTR __$EHRec$[ebp+8], 5
  000a4	ff d7		 call	 edi
  000a6	8d 8e 28 10 00
	00		 lea	 ecx, DWORD PTR [esi+4136]
  000ac	c6 45 fc 04	 mov	 BYTE PTR __$EHRec$[ebp+8], 4
  000b0	ff d7		 call	 edi
  000b2	8d 8e 18 10 00
	00		 lea	 ecx, DWORD PTR [esi+4120]
  000b8	c6 45 fc 03	 mov	 BYTE PTR __$EHRec$[ebp+8], 3
  000bc	ff d7		 call	 edi
  000be	8d 8e 08 10 00
	00		 lea	 ecx, DWORD PTR [esi+4104]
  000c4	c6 45 fc 02	 mov	 BYTE PTR __$EHRec$[ebp+8], 2
  000c8	ff d7		 call	 edi
  000ca	8d 8e 8c 0f 00
	00		 lea	 ecx, DWORD PTR [esi+3980]
  000d0	c6 45 fc 01	 mov	 BYTE PTR __$EHRec$[ebp+8], 1
  000d4	e8 00 00 00 00	 call	 ??1AttackAttribute@@QAE@XZ
  000d9	8d 8e 64 0f 00
	00		 lea	 ecx, DWORD PTR [esi+3940]
  000df	c6 45 fc 00	 mov	 BYTE PTR __$EHRec$[ebp+8], 0
  000e3	c7 86 58 0f 00
	00 00 00 00 00	 mov	 DWORD PTR [esi+3928], OFFSET ??_7?$CEncrypt@H@@6B@
  000ed	e8 00 00 00 00	 call	 ??1ccddaabb@@UAE@XZ	; ccddaabb::~ccddaabb
  000f2	83 4d fc ff	 or	 DWORD PTR __$EHRec$[ebp+8], -1
  000f6	8b ce		 mov	 ecx, esi
  000f8	e8 00 00 00 00	 call	 ??1ioNormalSkill@@UAE@XZ ; ioNormalSkill::~ioNormalSkill
  000fd	e8 00 00 00 00	 call	 __EH_epilog3
  00102	c3		 ret	 0
_TEXT	ENDS
;	COMDAT text$x
text$x	SEGMENT
__unwindfunclet$??1ioCircleMoveWeaponSkill@@UAE@XZ$0:
  00000	8b 4d f0	 mov	 ecx, DWORD PTR _this$[ebp]
  00003	e9 00 00 00 00	 jmp	 ??1ioNormalSkill@@UAE@XZ ; ioNormalSkill::~ioNormalSkill
__unwindfunclet$??1ioCircleMoveWeaponSkill@@UAE@XZ$1:
  00008	8b 4d f0	 mov	 ecx, DWORD PTR _this$[ebp]
  0000b	81 c1 58 0f 00
	00		 add	 ecx, 3928		; 00000f58H
  00011	e9 00 00 00 00	 jmp	 ??1?$CEncrypt@H@@UAE@XZ	; CEncrypt<int>::~CEncrypt<int>
__unwindfunclet$??1ioCircleMoveWeaponSkill@@UAE@XZ$2:
  00016	8b 4d f0	 mov	 ecx, DWORD PTR _this$[ebp]
  00019	81 c1 8c 0f 00
	00		 add	 ecx, 3980		; 00000f8cH
  0001f	e9 00 00 00 00	 jmp	 ??1AttackAttribute@@QAE@XZ
__unwindfunclet$??1ioCircleMoveWeaponSkill@@UAE@XZ$3:
  00024	8b 4d f0	 mov	 ecx, DWORD PTR _this$[ebp]
  00027	81 c1 08 10 00
	00		 add	 ecx, 4104		; 00001008H
  0002d	ff 25 00 00 00
	00		 jmp	 DWORD PTR __imp_??1ioHashString@@QAE@XZ
__unwindfunclet$??1ioCircleMoveWeaponSkill@@UAE@XZ$4:
  00033	8b 4d f0	 mov	 ecx, DWORD PTR _this$[ebp]
  00036	81 c1 18 10 00
	00		 add	 ecx, 4120		; 00001018H
  0003c	ff 25 00 00 00
	00		 jmp	 DWORD PTR __imp_??1ioHashString@@QAE@XZ
__unwindfunclet$??1ioCircleMoveWeaponSkill@@UAE@XZ$5:
  00042	8b 4d f0	 mov	 ecx, DWORD PTR _this$[ebp]
  00045	81 c1 28 10 00
	00		 add	 ecx, 4136		; 00001028H
  0004b	ff 25 00 00 00
	00		 jmp	 DWORD PTR __imp_??1ioHashString@@QAE@XZ
__unwindfunclet$??1ioCircleMoveWeaponSkill@@UAE@XZ$6:
  00051	8b 4d f0	 mov	 ecx, DWORD PTR _this$[ebp]
  00054	81 c1 38 10 00
	00		 add	 ecx, 4152		; 00001038H
  0005a	ff 25 00 00 00
	00		 jmp	 DWORD PTR __imp_??1ioHashString@@QAE@XZ
__unwindfunclet$??1ioCircleMoveWeaponSkill@@UAE@XZ$7:
  00060	8b 4d f0	 mov	 ecx, DWORD PTR _this$[ebp]
  00063	81 c1 50 10 00
	00		 add	 ecx, 4176		; 00001050H
  00069	ff 25 00 00 00
	00		 jmp	 DWORD PTR __imp_??1ioHashString@@QAE@XZ
__unwindfunclet$??1ioCircleMoveWeaponSkill@@UAE@XZ$8:
  0006f	8b 4d f0	 mov	 ecx, DWORD PTR _this$[ebp]
  00072	81 c1 60 10 00
	00		 add	 ecx, 4192		; 00001060H
  00078	ff 25 00 00 00
	00		 jmp	 DWORD PTR __imp_??1ioHashString@@QAE@XZ
__unwindfunclet$??1ioCircleMoveWeaponSkill@@UAE@XZ$9:
  0007e	8b 4d f0	 mov	 ecx, DWORD PTR _this$[ebp]
  00081	81 c1 74 10 00
	00		 add	 ecx, 4212		; 00001074H
  00087	e9 00 00 00 00	 jmp	 ??1?$CEncrypt@M@@UAE@XZ	; CEncrypt<float>::~CEncrypt<float>
__unwindfunclet$??1ioCircleMoveWeaponSkill@@UAE@XZ$10:
  0008c	8b 4d f0	 mov	 ecx, DWORD PTR _this$[ebp]
  0008f	81 c1 a4 10 00
	00		 add	 ecx, 4260		; 000010a4H
  00095	e9 00 00 00 00	 jmp	 ??1?$CEncrypt@M@@UAE@XZ	; CEncrypt<float>::~CEncrypt<float>
__unwindfunclet$??1ioCircleMoveWeaponSkill@@UAE@XZ$11:
  0009a	8b 4d f0	 mov	 ecx, DWORD PTR _this$[ebp]
  0009d	81 c1 d4 10 00
	00		 add	 ecx, 4308		; 000010d4H
  000a3	e9 00 00 00 00	 jmp	 ??1?$CEncrypt@M@@UAE@XZ	; CEncrypt<float>::~CEncrypt<float>
__unwindfunclet$??1ioCircleMoveWeaponSkill@@UAE@XZ$12:
  000a8	8b 4d f0	 mov	 ecx, DWORD PTR _this$[ebp]
  000ab	81 c1 04 11 00
	00		 add	 ecx, 4356		; 00001104H
  000b1	e9 00 00 00 00	 jmp	 ??1?$vector@UWeaponMoveInfo@@V?$allocator@UWeaponMoveInfo@@@std@@@std@@QAE@XZ ; std::vector<WeaponMoveInfo,std::allocator<WeaponMoveInfo> >::~vector<WeaponMoveInfo,std::allocator<WeaponMoveInfo> >
__ehhandler$??1ioCircleMoveWeaponSkill@@UAE@XZ:
  000b6	8b 54 24 08	 mov	 edx, DWORD PTR [esp+8]
  000ba	8d 42 0c	 lea	 eax, DWORD PTR [edx+12]
  000bd	8b 4a ec	 mov	 ecx, DWORD PTR [edx-20]
  000c0	33 c8		 xor	 ecx, eax
  000c2	e8 00 00 00 00	 call	 @__security_check_cookie@4
  000c7	b8 00 00 00 00	 mov	 eax, OFFSET __ehfuncinfo$??1ioCircleMoveWeaponSkill@@UAE@XZ
  000cc	e9 00 00 00 00	 jmp	 ___CxxFrameHandler3
text$x	ENDS
??1ioCircleMoveWeaponSkill@@UAE@XZ ENDP			; ioCircleMoveWeaponSkill::~ioCircleMoveWeaponSkill
PUBLIC	_rkLoader$GSCopy$
EXTRN	__imp_?LoadBool@ioINILoader@@QAE_NPBD_N@Z:PROC
EXTRN	?LoadProperty@ioNormalSkill@@UAEXAAVioINILoader@@@Z:PROC ; ioNormalSkill::LoadProperty
;	COMDAT xdata$x
; File d:\lost saga for developer\youtube\tutorial\source\src\lsclient\playentityhelpstruct.h
xdata$x	SEGMENT
__unwindtable$?LoadProperty@ioCircleMoveWeaponSkill@@UAEXAAVioINILoader@@@Z DD 0ffffffffH
	DD	FLAT:__unwindfunclet$?LoadProperty@ioCircleMoveWeaponSkill@@UAEXAAVioINILoader@@@Z$0
__ehfuncinfo$?LoadProperty@ioCircleMoveWeaponSkill@@UAEXAAVioINILoader@@@Z DD 019930522H
	DD	01H
	DD	FLAT:__unwindtable$?LoadProperty@ioCircleMoveWeaponSkill@@UAEXAAVioINILoader@@@Z
	DD	2 DUP(00H)
	DD	2 DUP(00H)
	DD	00H
	DD	01H
; Function compile flags: /Ogsp
; File d:\lost saga for developer\youtube\tutorial\source\src\lsclient\iocirclemoveweaponskill.cpp
xdata$x	ENDS
;	COMDAT ?LoadProperty@ioCircleMoveWeaponSkill@@UAEXAAVioINILoader@@@Z
_TEXT	SEGMENT
tv22535 = -1256						; size = 4
_kInfo$568936 = -1252					; size = 40
_kInfo$568467 = -1212					; size = 12
tv22612 = -1200						; size = 4
tv19000 = -1200						; size = 4
tv16505 = -1196						; size = 4
tv6024 = -1196						; size = 4
_iAttackTypeCnt$ = -1196				; size = 4
_iForceCnt$ = -1196					; size = 4
_rkLoader$GSCopy$ = -1192				; size = 4
_szBuf$ = -1188						; size = 260
_szKey$ = -928						; size = 260
__k$584821 = -668					; size = 17
__k$583709 = -644					; size = 17
___encStr$569092 = -620					; size = 21
___encStr$568777 = -592					; size = 21
__k$583848 = -564					; size = 13
__k$583348 = -544					; size = 13
__k$583446 = -524					; size = 21
___encStr$569548 = -496					; size = 31
___encStr$569396 = -460					; size = 27
__k$582959 = -428					; size = 24
__k$583084 = -400					; size = 24
___encStr$568624 = -372					; size = 24
__k$584209 = -344					; size = 23
___encStr$569244 = -316					; size = 22
__k$584611 = -288					; size = 20
__k$584334 = -264					; size = 20
__k$584723 = -240					; size = 20
__k$583209 = -216					; size = 20
___encStr$568471 = -192					; size = 20
__k$584084 = -168					; size = 19
__k$582834 = -144					; size = 19
__k$584459 = -120					; size = 19
__k$584986 = -96					; size = 18
__k$583571 = -72					; size = 16
___encStr$568940 = -52					; size = 14
__k$583959 = -32					; size = 11
__$EHRec$ = -12						; size = 12
_rkLoader$ = 8						; size = 4
?LoadProperty@ioCircleMoveWeaponSkill@@UAEXAAVioINILoader@@@Z PROC ; ioCircleMoveWeaponSkill::LoadProperty, COMDAT
; _this$ = ecx

; 74   : {

  00000	68 dc 04 00 00	 push	 1244			; 000004dcH
  00005	b8 00 00 00 00	 mov	 eax, __ehhandler$?LoadProperty@ioCircleMoveWeaponSkill@@UAEXAAVioINILoader@@@Z
  0000a	e8 00 00 00 00	 call	 __EH_prolog3_GS
  0000f	8b 7d 08	 mov	 edi, DWORD PTR _rkLoader$[ebp]

; 75   : 	ioNormalSkill::LoadProperty( rkLoader );

  00012	57		 push	 edi
  00013	8b f1		 mov	 esi, ecx

; 156  : 
; 157  : 		wsprintf_e( szKey, "attack_type%d_wounded_loop_ani", i+1 );

  00015	89 bd 58 fb ff
	ff		 mov	 DWORD PTR _rkLoader$GSCopy$[ebp], edi
  0001b	e8 00 00 00 00	 call	 ?LoadProperty@ioNormalSkill@@UAEXAAVioINILoader@@@Z ; ioNormalSkill::LoadProperty
  00020	57		 push	 edi
  00021	8b ce		 mov	 ecx, esi
  00023	e8 00 00 00 00	 call	 ?LoadOwnerBuffList@ioCircleMoveWeaponSkill@@IAEXAAVioINILoader@@@Z ; ioCircleMoveWeaponSkill::LoadOwnerBuffList
  00028	33 db		 xor	 ebx, ebx
  0002a	6a 04		 push	 4
  0002c	c7 85 70 ff ff
	ff 80 8d 8c 83	 mov	 DWORD PTR __k$582834[ebp], -2087940736 ; 838c8d80H
  00036	c7 85 74 ff ff
	ff 8e b3 88 83	 mov	 DWORD PTR __k$582834[ebp+4], -2088193138 ; 8388b38eH
  00040	c7 85 78 ff ff
	ff 9f 8f 87 8f	 mov	 DWORD PTR __k$582834[ebp+8], -1886941281 ; 8f878f9fH
  0004a	c7 85 7c ff ff
	ff b2 9e 8a 84	 mov	 DWORD PTR __k$582834[ebp+12], -2071290190 ; 848a9eb2H
  00054	66 c7 45 80 8a
	89		 mov	 WORD PTR __k$582834[ebp+16], 35210 ; 0000898aH
  0005a	8d 85 70 ff ff
	ff		 lea	 eax, DWORD PTR __k$582834[ebp]
  00060	88 5d 82	 mov	 BYTE PTR __k$582834[ebp+18], bl
  00063	59		 pop	 ecx
  00064	bf ed ec eb ea	 mov	 edi, -353637139		; eaebecedH
$LL906@LoadProper:

; 76   : 
; 77   : 	LoadOwnerBuffList( rkLoader );
; 78   : 
; 79   : 	char szKey[MAX_PATH], szBuf[MAX_PATH];
; 80   : 
; 81   : 	m_fCircleRange = rkLoader.LoadFloat_e( "magic_circle_range", 0.0f );

  00069	31 38		 xor	 DWORD PTR [eax], edi
  0006b	83 c0 04	 add	 eax, 4
  0006e	49		 dec	 ecx
  0006f	75 f8		 jne	 SHORT $LL906@LoadProper
  00071	6a 10		 push	 16			; 00000010H
  00073	58		 pop	 eax
$LL903@LoadProper:
  00074	8b c8		 mov	 ecx, eax
  00076	81 e1 03 00 00
	80		 and	 ecx, -2147483645	; 80000003H
  0007c	79 05		 jns	 SHORT $LN2890@LoadProper
  0007e	49		 dec	 ecx
  0007f	83 c9 fc	 or	 ecx, -4			; fffffffcH
  00082	41		 inc	 ecx
$LN2890@LoadProper:
  00083	b2 ed		 mov	 dl, -19			; ffffffedH
  00085	2a d1		 sub	 dl, cl
  00087	30 94 05 70 ff
	ff ff		 xor	 BYTE PTR __k$582834[ebp+eax], dl
  0008e	40		 inc	 eax
  0008f	83 f8 12	 cmp	 eax, 18			; 00000012H
  00092	7c e0		 jl	 SHORT $LL903@LoadProper
  00094	0f 57 c0	 xorps	 xmm0, xmm0
  00097	51		 push	 ecx
  00098	8b 8d 58 fb ff
	ff		 mov	 ecx, DWORD PTR _rkLoader$GSCopy$[ebp]
  0009e	8d 85 70 ff ff
	ff		 lea	 eax, DWORD PTR __k$582834[ebp]
  000a4	f3 0f 11 04 24	 movss	 DWORD PTR [esp], xmm0
  000a9	50		 push	 eax
  000aa	ff 15 00 00 00
	00		 call	 DWORD PTR __imp_?LoadFloat@ioINILoader@@QAEMPBDM@Z
  000b0	d9 9e dc 0f 00
	00		 fstp	 DWORD PTR [esi+4060]
  000b6	6a 05		 push	 5

; 82   : 	m_fCircleMoveSpeed = rkLoader.LoadFloat_e( "magic_circle_move_speed", 0.0f );

  000b8	c7 85 54 fe ff
	ff 80 8d 8c 83	 mov	 DWORD PTR __k$582959[ebp], -2087940736 ; 838c8d80H
  000c2	c7 85 58 fe ff
	ff 8e b3 88 83	 mov	 DWORD PTR __k$582959[ebp+4], -2088193138 ; 8388b38eH
  000cc	c7 85 5c fe ff
	ff 9f 8f 87 8f	 mov	 DWORD PTR __k$582959[ebp+8], -1886941281 ; 8f878f9fH
  000d6	c7 85 60 fe ff
	ff b2 81 84 9c	 mov	 DWORD PTR __k$582959[ebp+12], -1669037646 ; 9c8481b2H
  000e0	c7 85 64 fe ff
	ff 88 b3 98 9a	 mov	 DWORD PTR __k$582959[ebp+16], -1701268600 ; 9a98b388H
  000ea	8d 85 54 fe ff
	ff		 lea	 eax, DWORD PTR __k$582959[ebp]
  000f0	c7 85 68 fe ff
	ff 88 89 8f 00	 mov	 DWORD PTR __k$582959[ebp+20], 9406856 ; 008f8988H
  000fa	59		 pop	 ecx
$LL1012@LoadProper:
  000fb	31 38		 xor	 DWORD PTR [eax], edi
  000fd	83 c0 04	 add	 eax, 4
  00100	49		 dec	 ecx
  00101	75 f8		 jne	 SHORT $LL1012@LoadProper
  00103	6a 14		 push	 20			; 00000014H
  00105	58		 pop	 eax
$LL1009@LoadProper:
  00106	8b c8		 mov	 ecx, eax
  00108	81 e1 03 00 00
	80		 and	 ecx, -2147483645	; 80000003H
  0010e	79 05		 jns	 SHORT $LN2891@LoadProper
  00110	49		 dec	 ecx
  00111	83 c9 fc	 or	 ecx, -4			; fffffffcH
  00114	41		 inc	 ecx
$LN2891@LoadProper:
  00115	b2 ed		 mov	 dl, -19			; ffffffedH
  00117	2a d1		 sub	 dl, cl
  00119	30 94 05 54 fe
	ff ff		 xor	 BYTE PTR __k$582959[ebp+eax], dl
  00120	40		 inc	 eax
  00121	83 f8 17	 cmp	 eax, 23			; 00000017H
  00124	7c e0		 jl	 SHORT $LL1009@LoadProper
  00126	0f 57 c0	 xorps	 xmm0, xmm0
  00129	51		 push	 ecx
  0012a	8b 8d 58 fb ff
	ff		 mov	 ecx, DWORD PTR _rkLoader$GSCopy$[ebp]
  00130	8d 85 54 fe ff
	ff		 lea	 eax, DWORD PTR __k$582959[ebp]
  00136	f3 0f 11 04 24	 movss	 DWORD PTR [esp], xmm0
  0013b	50		 push	 eax
  0013c	ff 15 00 00 00
	00		 call	 DWORD PTR __imp_?LoadFloat@ioINILoader@@QAEMPBDM@Z
  00142	d9 9e e0 0f 00
	00		 fstp	 DWORD PTR [esi+4064]
  00148	6a 05		 push	 5

; 83   : 	m_fCircleHeightGap = rkLoader.LoadFloat_e( "magic_circle_height_gap", 0.0f );

  0014a	c7 85 70 fe ff
	ff 80 8d 8c 83	 mov	 DWORD PTR __k$583084[ebp], -2087940736 ; 838c8d80H
  00154	c7 85 74 fe ff
	ff 8e b3 88 83	 mov	 DWORD PTR __k$583084[ebp+4], -2088193138 ; 8388b38eH
  0015e	c7 85 78 fe ff
	ff 9f 8f 87 8f	 mov	 DWORD PTR __k$583084[ebp+8], -1886941281 ; 8f878f9fH
  00168	c7 85 7c fe ff
	ff b2 84 8e 83	 mov	 DWORD PTR __k$583084[ebp+12], -2087811918 ; 838e84b2H
  00172	c7 85 80 fe ff
	ff 8a 84 9f b5	 mov	 DWORD PTR __k$583084[ebp+16], -1247837046 ; b59f848aH
  0017c	8d 85 70 fe ff
	ff		 lea	 eax, DWORD PTR __k$583084[ebp]
  00182	c7 85 84 fe ff
	ff 8a 8d 9b 00	 mov	 DWORD PTR __k$583084[ebp+20], 10194314 ; 009b8d8aH
  0018c	59		 pop	 ecx
$LL1118@LoadProper:
  0018d	31 38		 xor	 DWORD PTR [eax], edi
  0018f	83 c0 04	 add	 eax, 4
  00192	49		 dec	 ecx
  00193	75 f8		 jne	 SHORT $LL1118@LoadProper
  00195	6a 14		 push	 20			; 00000014H
  00197	58		 pop	 eax
$LL1115@LoadProper:
  00198	8b c8		 mov	 ecx, eax
  0019a	81 e1 03 00 00
	80		 and	 ecx, -2147483645	; 80000003H
  001a0	79 05		 jns	 SHORT $LN2892@LoadProper
  001a2	49		 dec	 ecx
  001a3	83 c9 fc	 or	 ecx, -4			; fffffffcH
  001a6	41		 inc	 ecx
$LN2892@LoadProper:
  001a7	b2 ed		 mov	 dl, -19			; ffffffedH
  001a9	2a d1		 sub	 dl, cl
  001ab	30 94 05 70 fe
	ff ff		 xor	 BYTE PTR __k$583084[ebp+eax], dl
  001b2	40		 inc	 eax
  001b3	83 f8 17	 cmp	 eax, 23			; 00000017H
  001b6	7c e0		 jl	 SHORT $LL1115@LoadProper
  001b8	0f 57 c0	 xorps	 xmm0, xmm0
  001bb	51		 push	 ecx
  001bc	8b 8d 58 fb ff
	ff		 mov	 ecx, DWORD PTR _rkLoader$GSCopy$[ebp]
  001c2	8d 85 70 fe ff
	ff		 lea	 eax, DWORD PTR __k$583084[ebp]
  001c8	f3 0f 11 04 24	 movss	 DWORD PTR [esp], xmm0
  001cd	50		 push	 eax
  001ce	ff 15 00 00 00
	00		 call	 DWORD PTR __imp_?LoadFloat@ioINILoader@@QAEMPBDM@Z
  001d4	d9 9e e4 0f 00
	00		 fstp	 DWORD PTR [esi+4068]
  001da	6a 04		 push	 4

; 84   : 	m_fCircleOffSet = rkLoader.LoadFloat_e( "magic_circle_offset", 0.0f );

  001dc	c7 85 28 ff ff
	ff 80 8d 8c 83	 mov	 DWORD PTR __k$583209[ebp], -2087940736 ; 838c8d80H
  001e6	c7 85 2c ff ff
	ff 8e b3 88 83	 mov	 DWORD PTR __k$583209[ebp+4], -2088193138 ; 8388b38eH
  001f0	c7 85 30 ff ff
	ff 9f 8f 87 8f	 mov	 DWORD PTR __k$583209[ebp+8], -1886941281 ; 8f878f9fH
  001fa	c7 85 34 ff ff
	ff b2 83 8d 8c	 mov	 DWORD PTR __k$583209[ebp+12], -1936882766 ; 8c8d83b2H
  00204	8d 85 28 ff ff
	ff		 lea	 eax, DWORD PTR __k$583209[ebp]
  0020a	c7 85 38 ff ff
	ff 9e 89 9f 00	 mov	 DWORD PTR __k$583209[ebp+16], 10455454 ; 009f899eH
  00214	59		 pop	 ecx
$LL1224@LoadProper:
  00215	31 38		 xor	 DWORD PTR [eax], edi
  00217	83 c0 04	 add	 eax, 4
  0021a	49		 dec	 ecx
  0021b	75 f8		 jne	 SHORT $LL1224@LoadProper
  0021d	6a 10		 push	 16			; 00000010H
  0021f	58		 pop	 eax
$LL1221@LoadProper:
  00220	8b c8		 mov	 ecx, eax
  00222	81 e1 03 00 00
	80		 and	 ecx, -2147483645	; 80000003H
  00228	79 05		 jns	 SHORT $LN2893@LoadProper
  0022a	49		 dec	 ecx
  0022b	83 c9 fc	 or	 ecx, -4			; fffffffcH
  0022e	41		 inc	 ecx
$LN2893@LoadProper:
  0022f	b2 ed		 mov	 dl, -19			; ffffffedH
  00231	2a d1		 sub	 dl, cl
  00233	30 94 05 28 ff
	ff ff		 xor	 BYTE PTR __k$583209[ebp+eax], dl
  0023a	40		 inc	 eax
  0023b	83 f8 13	 cmp	 eax, 19			; 00000013H
  0023e	7c e0		 jl	 SHORT $LL1221@LoadProper
  00240	0f 57 c0	 xorps	 xmm0, xmm0
  00243	51		 push	 ecx
  00244	8b 8d 58 fb ff
	ff		 mov	 ecx, DWORD PTR _rkLoader$GSCopy$[ebp]
  0024a	8d 85 28 ff ff
	ff		 lea	 eax, DWORD PTR __k$583209[ebp]
  00250	f3 0f 11 04 24	 movss	 DWORD PTR [esp], xmm0
  00255	50		 push	 eax
  00256	ff 15 00 00 00
	00		 call	 DWORD PTR __imp_?LoadFloat@ioINILoader@@QAEMPBDM@Z
  0025c	d9 9e e8 0f 00
	00		 fstp	 DWORD PTR [esi+4072]
  00262	6a 03		 push	 3

; 85   : 
; 86   : 	rkLoader.LoadString_e( "ready_circle", "", szBuf, MAX_PATH );

  00264	c7 85 e0 fd ff
	ff 9f 89 8a 8e	 mov	 DWORD PTR __k$583348[ebp], -1903523425 ; 8e8a899fH
  0026e	c7 85 e4 fd ff
	ff 94 b3 88 83	 mov	 DWORD PTR __k$583348[ebp+4], -2088193132 ; 8388b394H
  00278	c7 85 e8 fd ff
	ff 9f 8f 87 8f	 mov	 DWORD PTR __k$583348[ebp+8], -1886941281 ; 8f878f9fH
  00282	8d 85 e0 fd ff
	ff		 lea	 eax, DWORD PTR __k$583348[ebp]
  00288	88 9d ec fd ff
	ff		 mov	 BYTE PTR __k$583348[ebp+12], bl
  0028e	59		 pop	 ecx
$LL1330@LoadProper:
  0028f	31 38		 xor	 DWORD PTR [eax], edi
  00291	83 c0 04	 add	 eax, 4
  00294	49		 dec	 ecx
  00295	75 f8		 jne	 SHORT $LL1330@LoadProper
  00297	8b 8d 58 fb ff
	ff		 mov	 ecx, DWORD PTR _rkLoader$GSCopy$[ebp]
  0029d	8b 3d 00 00 00
	00		 mov	 edi, DWORD PTR __imp_?LoadStringA@ioINILoader@@QAEXPBD0PADH@Z
  002a3	68 04 01 00 00	 push	 260			; 00000104H
  002a8	8d 85 5c fb ff
	ff		 lea	 eax, DWORD PTR _szBuf$[ebp]
  002ae	50		 push	 eax
  002af	68 00 00 00 00	 push	 OFFSET ??_C@_00CNPNBAHC@?$AA@
  002b4	8d 85 e0 fd ff
	ff		 lea	 eax, DWORD PTR __k$583348[ebp]
  002ba	50		 push	 eax
  002bb	ff d7		 call	 edi

; 87   : 	m_ReadyCircle = szBuf;

  002bd	8d 85 5c fb ff
	ff		 lea	 eax, DWORD PTR _szBuf$[ebp]
  002c3	50		 push	 eax
  002c4	8d 8e 08 10 00
	00		 lea	 ecx, DWORD PTR [esi+4104]
  002ca	ff 15 00 00 00
	00		 call	 DWORD PTR __imp_??4ioHashString@@QAEAAV0@PBD@Z
  002d0	6a 05		 push	 5

; 88   : 
; 89   : 	rkLoader.LoadString_e( "target_circle_effect", "", szBuf, MAX_PATH );

  002d2	c7 85 f4 fd ff
	ff 99 8d 99 8d	 mov	 DWORD PTR __k$583446[ebp], -1919316583 ; 8d998d99H
  002dc	c7 85 f8 fd ff
	ff 88 98 b4 89	 mov	 DWORD PTR __k$583446[ebp+4], -1984653176 ; 89b49888H
  002e6	c7 85 fc fd ff
	ff 84 9e 88 86	 mov	 DWORD PTR __k$583446[ebp+8], -2037866876 ; 86889e84H
  002f0	c7 85 00 fe ff
	ff 88 b3 8e 8c	 mov	 DWORD PTR __k$583446[ebp+12], -1936804984 ; 8c8eb388H
  002fa	c7 85 04 fe ff
	ff 8b 89 88 9e	 mov	 DWORD PTR __k$583446[ebp+16], -1635219061 ; 9e88898bH
  00304	8d 85 f4 fd ff
	ff		 lea	 eax, DWORD PTR __k$583446[ebp]
  0030a	88 9d 08 fe ff
	ff		 mov	 BYTE PTR __k$583446[ebp+20], bl
  00310	59		 pop	 ecx
$LL1436@LoadProper:
  00311	81 30 ed ec eb
	ea		 xor	 DWORD PTR [eax], -353637139 ; eaebecedH
  00317	83 c0 04	 add	 eax, 4
  0031a	49		 dec	 ecx
  0031b	75 f4		 jne	 SHORT $LL1436@LoadProper
  0031d	8b 8d 58 fb ff
	ff		 mov	 ecx, DWORD PTR _rkLoader$GSCopy$[ebp]
  00323	68 04 01 00 00	 push	 260			; 00000104H
  00328	8d 85 5c fb ff
	ff		 lea	 eax, DWORD PTR _szBuf$[ebp]
  0032e	50		 push	 eax
  0032f	68 00 00 00 00	 push	 OFFSET ??_C@_00CNPNBAHC@?$AA@
  00334	8d 85 f4 fd ff
	ff		 lea	 eax, DWORD PTR __k$583446[ebp]
  0033a	50		 push	 eax
  0033b	ff d7		 call	 edi

; 90   : 	m_TargetCircleEffect = szBuf;

  0033d	8d 85 5c fb ff
	ff		 lea	 eax, DWORD PTR _szBuf$[ebp]
  00343	50		 push	 eax
  00344	8d 8e 18 10 00
	00		 lea	 ecx, DWORD PTR [esi+4120]
  0034a	ff 15 00 00 00
	00		 call	 DWORD PTR __imp_??4ioHashString@@QAEAAV0@PBD@Z
  00350	6a 03		 push	 3

; 91   : 
; 92   : 	rkLoader.LoadString_e( "red_team_circle", "", szBuf, MAX_PATH );

  00352	c7 45 b8 9f 89
	8f b5		 mov	 DWORD PTR __k$583571[ebp], -1248884321 ; b58f899fH
  00359	c7 45 bc 99 89
	8a 87		 mov	 DWORD PTR __k$583571[ebp+4], -2020963943 ; 878a8999H
  00360	c7 45 c0 b2 8f
	82 98		 mov	 DWORD PTR __k$583571[ebp+8], -1736273998 ; 98828fb2H
  00367	8d 45 b8	 lea	 eax, DWORD PTR __k$583571[ebp]
  0036a	c7 45 c4 8e 80
	8e 00		 mov	 DWORD PTR __k$583571[ebp+12], 9339022 ; 008e808eH
  00371	59		 pop	 ecx
$LL1542@LoadProper:
  00372	81 30 ed ec eb
	ea		 xor	 DWORD PTR [eax], -353637139 ; eaebecedH
  00378	83 c0 04	 add	 eax, 4
  0037b	49		 dec	 ecx
  0037c	75 f4		 jne	 SHORT $LL1542@LoadProper
  0037e	6a 0c		 push	 12			; 0000000cH
  00380	58		 pop	 eax
$LL1539@LoadProper:
  00381	8b c8		 mov	 ecx, eax
  00383	81 e1 03 00 00
	80		 and	 ecx, -2147483645	; 80000003H
  00389	79 05		 jns	 SHORT $LN2894@LoadProper
  0038b	49		 dec	 ecx
  0038c	83 c9 fc	 or	 ecx, -4			; fffffffcH
  0038f	41		 inc	 ecx
$LN2894@LoadProper:
  00390	b2 ed		 mov	 dl, -19			; ffffffedH
  00392	2a d1		 sub	 dl, cl
  00394	30 54 05 b8	 xor	 BYTE PTR __k$583571[ebp+eax], dl
  00398	40		 inc	 eax
  00399	83 f8 0f	 cmp	 eax, 15			; 0000000fH
  0039c	7c e3		 jl	 SHORT $LL1539@LoadProper
  0039e	8b 8d 58 fb ff
	ff		 mov	 ecx, DWORD PTR _rkLoader$GSCopy$[ebp]
  003a4	68 04 01 00 00	 push	 260			; 00000104H
  003a9	8d 85 5c fb ff
	ff		 lea	 eax, DWORD PTR _szBuf$[ebp]
  003af	50		 push	 eax
  003b0	68 00 00 00 00	 push	 OFFSET ??_C@_00CNPNBAHC@?$AA@
  003b5	8d 45 b8	 lea	 eax, DWORD PTR __k$583571[ebp]
  003b8	50		 push	 eax
  003b9	ff d7		 call	 edi

; 93   : 	m_RedEffect = szBuf;

  003bb	8d 85 5c fb ff
	ff		 lea	 eax, DWORD PTR _szBuf$[ebp]
  003c1	50		 push	 eax
  003c2	8d 8e 28 10 00
	00		 lea	 ecx, DWORD PTR [esi+4136]
  003c8	ff 15 00 00 00
	00		 call	 DWORD PTR __imp_??4ioHashString@@QAEAAV0@PBD@Z
  003ce	6a 04		 push	 4

; 94   : 	rkLoader.LoadString_e( "blue_team_circle", "", szBuf, MAX_PATH );

  003d0	c7 85 7c fd ff
	ff 8f 80 9e 8f	 mov	 DWORD PTR __k$583709[ebp], -1885437809 ; 8f9e808fH
  003da	c7 85 80 fd ff
	ff b2 98 8e 8b	 mov	 DWORD PTR __k$583709[ebp+4], -1953589070 ; 8b8e98b2H
  003e4	c7 85 84 fd ff
	ff 80 b3 88 83	 mov	 DWORD PTR __k$583709[ebp+8], -2088193152 ; 8388b380H
  003ee	c7 85 88 fd ff
	ff 9f 8f 87 8f	 mov	 DWORD PTR __k$583709[ebp+12], -1886941281 ; 8f878f9fH
  003f8	8d 85 7c fd ff
	ff		 lea	 eax, DWORD PTR __k$583709[ebp]
  003fe	88 9d 8c fd ff
	ff		 mov	 BYTE PTR __k$583709[ebp+16], bl
  00404	59		 pop	 ecx
$LL1648@LoadProper:
  00405	81 30 ed ec eb
	ea		 xor	 DWORD PTR [eax], -353637139 ; eaebecedH
  0040b	83 c0 04	 add	 eax, 4
  0040e	49		 dec	 ecx
  0040f	75 f4		 jne	 SHORT $LL1648@LoadProper
  00411	8b 8d 58 fb ff
	ff		 mov	 ecx, DWORD PTR _rkLoader$GSCopy$[ebp]
  00417	68 04 01 00 00	 push	 260			; 00000104H
  0041c	8d 85 5c fb ff
	ff		 lea	 eax, DWORD PTR _szBuf$[ebp]
  00422	50		 push	 eax
  00423	68 00 00 00 00	 push	 OFFSET ??_C@_00CNPNBAHC@?$AA@
  00428	8d 85 7c fd ff
	ff		 lea	 eax, DWORD PTR __k$583709[ebp]
  0042e	50		 push	 eax
  0042f	ff d7		 call	 edi

; 95   : 	m_BlueEffect = szBuf;

  00431	8d 85 5c fb ff
	ff		 lea	 eax, DWORD PTR _szBuf$[ebp]
  00437	50		 push	 eax
  00438	8d 8e 38 10 00
	00		 lea	 ecx, DWORD PTR [esi+4152]
  0043e	ff 15 00 00 00
	00		 call	 DWORD PTR __imp_??4ioHashString@@QAEAAV0@PBD@Z
  00444	6a 03		 push	 3

; 96   : 
; 97   : 	rkLoader.LoadString_e( "start_effect", "", szBuf, MAX_PATH );

  00446	c7 85 cc fd ff
	ff 9e 98 8a 98	 mov	 DWORD PTR __k$583848[ebp], -1735747426 ; 988a989eH
  00450	c7 85 d0 fd ff
	ff 99 b3 8e 8c	 mov	 DWORD PTR __k$583848[ebp+4], -1936804967 ; 8c8eb399H
  0045a	c7 85 d4 fd ff
	ff 8b 89 88 9e	 mov	 DWORD PTR __k$583848[ebp+8], -1635219061 ; 9e88898bH
  00464	8d 85 cc fd ff
	ff		 lea	 eax, DWORD PTR __k$583848[ebp]
  0046a	88 9d d8 fd ff
	ff		 mov	 BYTE PTR __k$583848[ebp+12], bl
  00470	59		 pop	 ecx
$LL1754@LoadProper:
  00471	81 30 ed ec eb
	ea		 xor	 DWORD PTR [eax], -353637139 ; eaebecedH
  00477	83 c0 04	 add	 eax, 4
  0047a	49		 dec	 ecx
  0047b	75 f4		 jne	 SHORT $LL1754@LoadProper
  0047d	8b 8d 58 fb ff
	ff		 mov	 ecx, DWORD PTR _rkLoader$GSCopy$[ebp]
  00483	68 04 01 00 00	 push	 260			; 00000104H
  00488	8d 85 5c fb ff
	ff		 lea	 eax, DWORD PTR _szBuf$[ebp]
  0048e	50		 push	 eax
  0048f	68 00 00 00 00	 push	 OFFSET ??_C@_00CNPNBAHC@?$AA@
  00494	8d 85 cc fd ff
	ff		 lea	 eax, DWORD PTR __k$583848[ebp]
  0049a	50		 push	 eax
  0049b	ff d7		 call	 edi

; 98   : 	m_StartEffect = szBuf;

  0049d	8d 85 5c fb ff
	ff		 lea	 eax, DWORD PTR _szBuf$[ebp]
  004a3	50		 push	 eax
  004a4	8d 8e 50 10 00
	00		 lea	 ecx, DWORD PTR [esi+4176]
  004aa	ff 15 00 00 00
	00		 call	 DWORD PTR __imp_??4ioHashString@@QAEAAV0@PBD@Z
  004b0	6a 02		 push	 2

; 99   : 	rkLoader.LoadString_e( "end_effect", "", szBuf, MAX_PATH );

  004b2	c7 45 e0 88 82
	8f b5		 mov	 DWORD PTR __k$583959[ebp], -1248886136 ; b58f8288H
  004b9	c7 45 e4 88 8a
	8d 8f		 mov	 DWORD PTR __k$583959[ebp+4], -1886549368 ; 8f8d8a88H
  004c0	66 c7 45 e8 8e
	98		 mov	 WORD PTR __k$583959[ebp+8], 39054 ; 0000988eH
  004c6	8d 45 e0	 lea	 eax, DWORD PTR __k$583959[ebp]
  004c9	88 5d ea	 mov	 BYTE PTR __k$583959[ebp+10], bl
  004cc	59		 pop	 ecx
$LL1860@LoadProper:
  004cd	81 30 ed ec eb
	ea		 xor	 DWORD PTR [eax], -353637139 ; eaebecedH
  004d3	83 c0 04	 add	 eax, 4
  004d6	49		 dec	 ecx
  004d7	75 f4		 jne	 SHORT $LL1860@LoadProper
  004d9	6a 08		 push	 8
  004db	58		 pop	 eax
$LL1857@LoadProper:
  004dc	8b c8		 mov	 ecx, eax
  004de	81 e1 03 00 00
	80		 and	 ecx, -2147483645	; 80000003H
  004e4	79 05		 jns	 SHORT $LN2895@LoadProper
  004e6	49		 dec	 ecx
  004e7	83 c9 fc	 or	 ecx, -4			; fffffffcH
  004ea	41		 inc	 ecx
$LN2895@LoadProper:
  004eb	b2 ed		 mov	 dl, -19			; ffffffedH
  004ed	2a d1		 sub	 dl, cl
  004ef	30 54 05 e0	 xor	 BYTE PTR __k$583959[ebp+eax], dl
  004f3	40		 inc	 eax
  004f4	83 f8 0a	 cmp	 eax, 10			; 0000000aH
  004f7	7c e3		 jl	 SHORT $LL1857@LoadProper
  004f9	8b 8d 58 fb ff
	ff		 mov	 ecx, DWORD PTR _rkLoader$GSCopy$[ebp]
  004ff	68 04 01 00 00	 push	 260			; 00000104H
  00504	8d 85 5c fb ff
	ff		 lea	 eax, DWORD PTR _szBuf$[ebp]
  0050a	50		 push	 eax
  0050b	68 00 00 00 00	 push	 OFFSET ??_C@_00CNPNBAHC@?$AA@
  00510	8d 45 e0	 lea	 eax, DWORD PTR __k$583959[ebp]
  00513	50		 push	 eax
  00514	ff d7		 call	 edi

; 100  : 	m_EndEffect = szBuf;

  00516	8d 85 5c fb ff
	ff		 lea	 eax, DWORD PTR _szBuf$[ebp]
  0051c	50		 push	 eax
  0051d	8d 8e 60 10 00
	00		 lea	 ecx, DWORD PTR [esi+4192]
  00523	ff 15 00 00 00
	00		 call	 DWORD PTR __imp_??4ioHashString@@QAEAAV0@PBD@Z
  00529	6a 04		 push	 4

; 101  : 
; 102  : 	m_fWeaponFloatPower = rkLoader.LoadFloat_e( "weapon_float_power", 0.0f );

  0052b	c7 85 58 ff ff
	ff 9a 89 8a 9a	 mov	 DWORD PTR __k$584084[ebp], -1702196838 ; 9a8a899aH
  00535	c7 85 5c ff ff
	ff 82 82 b4 8c	 mov	 DWORD PTR __k$584084[ebp+4], -1934327166 ; 8cb48282H
  0053f	c7 85 60 ff ff
	ff 81 83 8a 9e	 mov	 DWORD PTR __k$584084[ebp+8], -1635089535 ; 9e8a8381H
  00549	c7 85 64 ff ff
	ff b2 9c 84 9d	 mov	 DWORD PTR __k$584084[ebp+12], -1652253518 ; 9d849cb2H
  00553	66 c7 85 68 ff
	ff ff 88 9e	 mov	 WORD PTR __k$584084[ebp+16], 40584 ; 00009e88H
  0055c	8d 85 58 ff ff
	ff		 lea	 eax, DWORD PTR __k$584084[ebp]
  00562	88 9d 6a ff ff
	ff		 mov	 BYTE PTR __k$584084[ebp+18], bl
  00568	59		 pop	 ecx
  00569	bf ed ec eb ea	 mov	 edi, -353637139		; eaebecedH
$LL1966@LoadProper:
  0056e	31 38		 xor	 DWORD PTR [eax], edi
  00570	83 c0 04	 add	 eax, 4
  00573	49		 dec	 ecx
  00574	75 f8		 jne	 SHORT $LL1966@LoadProper
  00576	6a 10		 push	 16			; 00000010H
  00578	58		 pop	 eax
$LL1963@LoadProper:
  00579	8b c8		 mov	 ecx, eax
  0057b	81 e1 03 00 00
	80		 and	 ecx, -2147483645	; 80000003H
  00581	79 05		 jns	 SHORT $LN2896@LoadProper
  00583	49		 dec	 ecx
  00584	83 c9 fc	 or	 ecx, -4			; fffffffcH
  00587	41		 inc	 ecx
$LN2896@LoadProper:
  00588	b2 ed		 mov	 dl, -19			; ffffffedH
  0058a	2a d1		 sub	 dl, cl
  0058c	30 94 05 58 ff
	ff ff		 xor	 BYTE PTR __k$584084[ebp+eax], dl
  00593	40		 inc	 eax
  00594	83 f8 12	 cmp	 eax, 18			; 00000012H
  00597	7c e0		 jl	 SHORT $LL1963@LoadProper
  00599	0f 57 c0	 xorps	 xmm0, xmm0
  0059c	51		 push	 ecx
  0059d	8b 8d 58 fb ff
	ff		 mov	 ecx, DWORD PTR _rkLoader$GSCopy$[ebp]
  005a3	8d 85 58 ff ff
	ff		 lea	 eax, DWORD PTR __k$584084[ebp]
  005a9	f3 0f 11 04 24	 movss	 DWORD PTR [esp], xmm0
  005ae	50		 push	 eax
  005af	ff 15 00 00 00
	00		 call	 DWORD PTR __imp_?LoadFloat@ioINILoader@@QAEMPBDM@Z
  005b5	51		 push	 ecx
  005b6	8d 8e 74 10 00
	00		 lea	 ecx, DWORD PTR [esi+4212]
  005bc	d9 1c 24	 fstp	 DWORD PTR [esp]
  005bf	e8 00 00 00 00	 call	 ??4?$CEncrypt@M@@QAEMM@Z ; CEncrypt<float>::operator=
  005c4	dd d8		 fstp	 ST(0)
  005c6	6a 05		 push	 5

; 103  : 	m_fWeaponFloatMinPower = rkLoader.LoadFloat_e( "weapon_float_min_power", 0.0f );

  005c8	c7 85 a8 fe ff
	ff 9a 89 8a 9a	 mov	 DWORD PTR __k$584209[ebp], -1702196838 ; 9a8a899aH
  005d2	c7 85 ac fe ff
	ff 82 82 b4 8c	 mov	 DWORD PTR __k$584209[ebp+4], -1934327166 ; 8cb48282H
  005dc	c7 85 b0 fe ff
	ff 81 83 8a 9e	 mov	 DWORD PTR __k$584209[ebp+8], -1635089535 ; 9e8a8381H
  005e6	c7 85 b4 fe ff
	ff b2 81 82 84	 mov	 DWORD PTR __k$584209[ebp+12], -2071821902 ; 848281b2H
  005f0	c7 85 b8 fe ff
	ff b2 9c 84 9d	 mov	 DWORD PTR __k$584209[ebp+16], -1652253518 ; 9d849cb2H
  005fa	66 c7 85 bc fe
	ff ff 88 9e	 mov	 WORD PTR __k$584209[ebp+20], 40584 ; 00009e88H
  00603	8d 85 a8 fe ff
	ff		 lea	 eax, DWORD PTR __k$584209[ebp]
  00609	88 9d be fe ff
	ff		 mov	 BYTE PTR __k$584209[ebp+22], bl
  0060f	59		 pop	 ecx
$LL2072@LoadProper:
  00610	31 38		 xor	 DWORD PTR [eax], edi
  00612	83 c0 04	 add	 eax, 4
  00615	49		 dec	 ecx
  00616	75 f8		 jne	 SHORT $LL2072@LoadProper
  00618	6a 14		 push	 20			; 00000014H
  0061a	58		 pop	 eax
$LL2069@LoadProper:
  0061b	8b c8		 mov	 ecx, eax
  0061d	81 e1 03 00 00
	80		 and	 ecx, -2147483645	; 80000003H
  00623	79 05		 jns	 SHORT $LN2897@LoadProper
  00625	49		 dec	 ecx
  00626	83 c9 fc	 or	 ecx, -4			; fffffffcH
  00629	41		 inc	 ecx
$LN2897@LoadProper:
  0062a	b2 ed		 mov	 dl, -19			; ffffffedH
  0062c	2a d1		 sub	 dl, cl
  0062e	30 94 05 a8 fe
	ff ff		 xor	 BYTE PTR __k$584209[ebp+eax], dl
  00635	40		 inc	 eax
  00636	83 f8 16	 cmp	 eax, 22			; 00000016H
  00639	7c e0		 jl	 SHORT $LL2069@LoadProper
  0063b	0f 57 c0	 xorps	 xmm0, xmm0
  0063e	51		 push	 ecx
  0063f	8b 8d 58 fb ff
	ff		 mov	 ecx, DWORD PTR _rkLoader$GSCopy$[ebp]
  00645	8d 85 a8 fe ff
	ff		 lea	 eax, DWORD PTR __k$584209[ebp]
  0064b	f3 0f 11 04 24	 movss	 DWORD PTR [esp], xmm0
  00650	50		 push	 eax
  00651	ff 15 00 00 00
	00		 call	 DWORD PTR __imp_?LoadFloat@ioINILoader@@QAEMPBDM@Z
  00657	51		 push	 ecx
  00658	8d 8e a4 10 00
	00		 lea	 ecx, DWORD PTR [esi+4260]
  0065e	d9 1c 24	 fstp	 DWORD PTR [esp]
  00661	e8 00 00 00 00	 call	 ??4?$CEncrypt@M@@QAEMM@Z ; CEncrypt<float>::operator=
  00666	dd d8		 fstp	 ST(0)
  00668	6a 04		 push	 4

; 104  : 
; 105  : 	m_fRandomRange = rkLoader.LoadFloat_e( "weapon_random_range", 0.0f );

  0066a	c7 85 f8 fe ff
	ff 9a 89 8a 9a	 mov	 DWORD PTR __k$584334[ebp], -1702196838 ; 9a8a899aH
  00674	c7 85 fc fe ff
	ff 82 82 b4 98	 mov	 DWORD PTR __k$584334[ebp+4], -1733000574 ; 98b48282H
  0067e	c7 85 00 ff ff
	ff 8c 82 8f 85	 mov	 DWORD PTR __k$584334[ebp+8], -2054192500 ; 858f828cH
  00688	c7 85 04 ff ff
	ff 80 b3 99 8b	 mov	 DWORD PTR __k$584334[ebp+12], -1952861312 ; 8b99b380H
  00692	8d 85 f8 fe ff
	ff		 lea	 eax, DWORD PTR __k$584334[ebp]
  00698	c7 85 08 ff ff
	ff 83 8b 8e 00	 mov	 DWORD PTR __k$584334[ebp+16], 9341827 ; 008e8b83H
  006a2	59		 pop	 ecx
$LL2178@LoadProper:
  006a3	31 38		 xor	 DWORD PTR [eax], edi
  006a5	83 c0 04	 add	 eax, 4
  006a8	49		 dec	 ecx
  006a9	75 f8		 jne	 SHORT $LL2178@LoadProper
  006ab	6a 10		 push	 16			; 00000010H
  006ad	58		 pop	 eax
$LL2175@LoadProper:
  006ae	8b c8		 mov	 ecx, eax
  006b0	81 e1 03 00 00
	80		 and	 ecx, -2147483645	; 80000003H
  006b6	79 05		 jns	 SHORT $LN2898@LoadProper
  006b8	49		 dec	 ecx
  006b9	83 c9 fc	 or	 ecx, -4			; fffffffcH
  006bc	41		 inc	 ecx
$LN2898@LoadProper:
  006bd	b2 ed		 mov	 dl, -19			; ffffffedH
  006bf	2a d1		 sub	 dl, cl
  006c1	30 94 05 f8 fe
	ff ff		 xor	 BYTE PTR __k$584334[ebp+eax], dl
  006c8	40		 inc	 eax
  006c9	83 f8 13	 cmp	 eax, 19			; 00000013H
  006cc	7c e0		 jl	 SHORT $LL2175@LoadProper
  006ce	0f 57 c0	 xorps	 xmm0, xmm0
  006d1	51		 push	 ecx
  006d2	8b 8d 58 fb ff
	ff		 mov	 ecx, DWORD PTR _rkLoader$GSCopy$[ebp]
  006d8	8d 85 f8 fe ff
	ff		 lea	 eax, DWORD PTR __k$584334[ebp]
  006de	f3 0f 11 04 24	 movss	 DWORD PTR [esp], xmm0
  006e3	50		 push	 eax
  006e4	ff 15 00 00 00
	00		 call	 DWORD PTR __imp_?LoadFloat@ioINILoader@@QAEMPBDM@Z
  006ea	51		 push	 ecx
  006eb	8d 8e d4 10 00
	00		 lea	 ecx, DWORD PTR [esi+4308]
  006f1	d9 1c 24	 fstp	 DWORD PTR [esp]
  006f4	e8 00 00 00 00	 call	 ??4?$CEncrypt@M@@QAEMM@Z ; CEncrypt<float>::operator=
  006f9	dd d8		 fstp	 ST(0)
  006fb	6a 04		 push	 4

; 106  : 	m_dwSkillProtectedTime = rkLoader.LoadInt_e( "skill_protect_time", 0 );

  006fd	c7 45 88 9e 87
	82 86		 mov	 DWORD PTR __k$584459[ebp], -2038265954 ; 8682879eH
  00704	c7 45 8c 81 b3
	9b 98		 mov	 DWORD PTR __k$584459[ebp+4], -1734626431 ; 989bb381H
  0070b	c7 45 90 82 98
	8e 89		 mov	 DWORD PTR __k$584459[ebp+8], -1987143550 ; 898e9882H
  00712	c7 45 94 99 b3
	9f 83		 mov	 DWORD PTR __k$584459[ebp+12], -2086685799 ; 839fb399H
  00719	66 c7 45 98 80
	89		 mov	 WORD PTR __k$584459[ebp+16], 35200 ; 00008980H
  0071f	8d 45 88	 lea	 eax, DWORD PTR __k$584459[ebp]
  00722	88 5d 9a	 mov	 BYTE PTR __k$584459[ebp+18], bl
  00725	59		 pop	 ecx
$LL2284@LoadProper:
  00726	31 38		 xor	 DWORD PTR [eax], edi
  00728	83 c0 04	 add	 eax, 4
  0072b	49		 dec	 ecx
  0072c	75 f8		 jne	 SHORT $LL2284@LoadProper
  0072e	6a 10		 push	 16			; 00000010H
  00730	5f		 pop	 edi
$LL2281@LoadProper:
  00731	8b c7		 mov	 eax, edi
  00733	25 03 00 00 80	 and	 eax, -2147483645	; 80000003H
  00738	79 05		 jns	 SHORT $LN2899@LoadProper
  0073a	48		 dec	 eax
  0073b	83 c8 fc	 or	 eax, -4			; fffffffcH
  0073e	40		 inc	 eax
$LN2899@LoadProper:
  0073f	b1 ed		 mov	 cl, -19			; ffffffedH
  00741	2a c8		 sub	 cl, al
  00743	30 4c 3d 88	 xor	 BYTE PTR __k$584459[ebp+edi], cl
  00747	47		 inc	 edi
  00748	83 ff 12	 cmp	 edi, 18			; 00000012H
  0074b	7c e4		 jl	 SHORT $LL2281@LoadProper
  0074d	8b 8d 58 fb ff
	ff		 mov	 ecx, DWORD PTR _rkLoader$GSCopy$[ebp]
  00753	53		 push	 ebx
  00754	8d 45 88	 lea	 eax, DWORD PTR __k$584459[ebp]
  00757	50		 push	 eax
  00758	ff 15 00 00 00
	00		 call	 DWORD PTR __imp_?LoadInt@ioINILoader@@QAEHPBDH@Z

; 107  : 
; 108  : 	// Action Attack
; 109  : 	m_AttackAttribute.Init();

  0075e	8d 8e 8c 0f 00
	00		 lea	 ecx, DWORD PTR [esi+3980]
  00764	89 86 24 11 00
	00		 mov	 DWORD PTR [esi+4388], eax
  0076a	e8 00 00 00 00	 call	 ?Init@AttackAttribute@@QAEXXZ ; AttackAttribute::Init

; 110  : 	m_AttackAttribute.m_AttackAnimation = m_SkillMotionName;

  0076f	8d 86 90 00 00
	00		 lea	 eax, DWORD PTR [esi+144]
  00775	50		 push	 eax
  00776	8d 8e 8c 0f 00
	00		 lea	 ecx, DWORD PTR [esi+3980]
  0077c	ff 15 00 00 00
	00		 call	 DWORD PTR __imp_??4ioHashString@@QAEAAV0@ABV0@@Z

; 111  : 	m_AttackAttribute.m_fAttackAniRate  = m_fAnimationTimeRate;

  00782	d9 86 a0 00 00
	00		 fld	 DWORD PTR [esi+160]
  00788	d9 9e 9c 0f 00
	00		 fstp	 DWORD PTR [esi+3996]
  0078e	6a 04		 push	 4

; 112  : 	m_AttackAttribute.m_dwPreDelay	    = rkLoader.LoadInt_e( "animation_pre_delay", 0 );

  00790	c7 85 e0 fe ff
	ff 8c 82 82 87	 mov	 DWORD PTR __k$584611[ebp], -2021490036 ; 8782828cH
  0079a	c7 85 e4 fe ff
	ff 8c 98 82 85	 mov	 DWORD PTR __k$584611[ebp+4], -2055038836 ; 8582988cH
  007a4	c7 85 e8 fe ff
	ff 83 b3 9b 98	 mov	 DWORD PTR __k$584611[ebp+8], -1734626429 ; 989bb383H
  007ae	c7 85 ec fe ff
	ff 88 b3 8f 8f	 mov	 DWORD PTR __k$584611[ebp+12], -1886407800 ; 8f8fb388H
  007b8	8d 85 e0 fe ff
	ff		 lea	 eax, DWORD PTR __k$584611[ebp]
  007be	c7 85 f0 fe ff
	ff 81 8d 92 00	 mov	 DWORD PTR __k$584611[ebp+16], 9604481 ; 00928d81H
  007c8	59		 pop	 ecx
$LL2390@LoadProper:
  007c9	81 30 ed ec eb
	ea		 xor	 DWORD PTR [eax], -353637139 ; eaebecedH
  007cf	83 c0 04	 add	 eax, 4
  007d2	49		 dec	 ecx
  007d3	75 f4		 jne	 SHORT $LL2390@LoadProper
  007d5	6a 10		 push	 16			; 00000010H
  007d7	5f		 pop	 edi
$LL2387@LoadProper:
  007d8	8b c7		 mov	 eax, edi
  007da	25 03 00 00 80	 and	 eax, -2147483645	; 80000003H
  007df	79 05		 jns	 SHORT $LN2900@LoadProper
  007e1	48		 dec	 eax
  007e2	83 c8 fc	 or	 eax, -4			; fffffffcH
  007e5	40		 inc	 eax
$LN2900@LoadProper:
  007e6	b1 ed		 mov	 cl, -19			; ffffffedH
  007e8	2a c8		 sub	 cl, al
  007ea	30 8c 3d e0 fe
	ff ff		 xor	 BYTE PTR __k$584611[ebp+edi], cl
  007f1	47		 inc	 edi
  007f2	83 ff 13	 cmp	 edi, 19			; 00000013H
  007f5	7c e1		 jl	 SHORT $LL2387@LoadProper
  007f7	8b 8d 58 fb ff
	ff		 mov	 ecx, DWORD PTR _rkLoader$GSCopy$[ebp]
  007fd	8b 3d 00 00 00
	00		 mov	 edi, DWORD PTR __imp_?LoadInt@ioINILoader@@QAEHPBDH@Z
  00803	53		 push	 ebx
  00804	8d 85 e0 fe ff
	ff		 lea	 eax, DWORD PTR __k$584611[ebp]
  0080a	50		 push	 eax
  0080b	ff d7		 call	 edi
  0080d	89 86 d4 0f 00
	00		 mov	 DWORD PTR [esi+4052], eax
  00813	6a 04		 push	 4

; 113  : 	m_AttackAttribute.m_dwEndDelay	    = rkLoader.LoadInt_e( "animation_end_delay", 0 );

  00815	c7 85 10 ff ff
	ff 8c 82 82 87	 mov	 DWORD PTR __k$584723[ebp], -2021490036 ; 8782828cH
  0081f	c7 85 14 ff ff
	ff 8c 98 82 85	 mov	 DWORD PTR __k$584723[ebp+4], -2055038836 ; 8582988cH
  00829	c7 85 18 ff ff
	ff 83 b3 8e 84	 mov	 DWORD PTR __k$584723[ebp+8], -2071022717 ; 848eb383H
  00833	c7 85 1c ff ff
	ff 89 b3 8f 8f	 mov	 DWORD PTR __k$584723[ebp+12], -1886407799 ; 8f8fb389H
  0083d	8d 85 10 ff ff
	ff		 lea	 eax, DWORD PTR __k$584723[ebp]
  00843	c7 85 20 ff ff
	ff 81 8d 92 00	 mov	 DWORD PTR __k$584723[ebp+16], 9604481 ; 00928d81H
  0084d	59		 pop	 ecx
$LL2496@LoadProper:
  0084e	81 30 ed ec eb
	ea		 xor	 DWORD PTR [eax], -353637139 ; eaebecedH
  00854	83 c0 04	 add	 eax, 4
  00857	49		 dec	 ecx
  00858	75 f4		 jne	 SHORT $LL2496@LoadProper
  0085a	6a 10		 push	 16			; 00000010H
  0085c	58		 pop	 eax
$LL2493@LoadProper:
  0085d	8b c8		 mov	 ecx, eax
  0085f	81 e1 03 00 00
	80		 and	 ecx, -2147483645	; 80000003H
  00865	79 05		 jns	 SHORT $LN2901@LoadProper
  00867	49		 dec	 ecx
  00868	83 c9 fc	 or	 ecx, -4			; fffffffcH
  0086b	41		 inc	 ecx
$LN2901@LoadProper:
  0086c	b2 ed		 mov	 dl, -19			; ffffffedH
  0086e	2a d1		 sub	 dl, cl
  00870	30 94 05 10 ff
	ff ff		 xor	 BYTE PTR __k$584723[ebp+eax], dl
  00877	40		 inc	 eax
  00878	83 f8 13	 cmp	 eax, 19			; 00000013H
  0087b	7c e0		 jl	 SHORT $LL2493@LoadProper
  0087d	8b 8d 58 fb ff
	ff		 mov	 ecx, DWORD PTR _rkLoader$GSCopy$[ebp]
  00883	53		 push	 ebx
  00884	8d 85 10 ff ff
	ff		 lea	 eax, DWORD PTR __k$584723[ebp]
  0088a	50		 push	 eax
  0088b	ff d7		 call	 edi

; 114  : 
; 115  : 	m_AttackAttribute.m_vForceInfoList.clear();

  0088d	8d 8e c4 0f 00
	00		 lea	 ecx, DWORD PTR [esi+4036]
  00893	89 86 d8 0f 00
	00		 mov	 DWORD PTR [esi+4056], eax
  00899	e8 00 00 00 00	 call	 ?clear@?$vector@UForceInfo@@V?$allocator@UForceInfo@@@std@@@std@@QAEXXZ ; std::vector<ForceInfo,std::allocator<ForceInfo> >::clear
  0089e	6a 04		 push	 4

; 116  : 	int iForceCnt = rkLoader.LoadInt_e( "attack_force_cnt", 0 );

  008a0	c7 85 64 fd ff
	ff 8c 98 9f 8b	 mov	 DWORD PTR __k$584821[ebp], -1952474996 ; 8b9f988cH
  008aa	c7 85 68 fd ff
	ff 8e 87 b4 8c	 mov	 DWORD PTR __k$584821[ebp+4], -1934325874 ; 8cb4878eH
  008b4	c7 85 6c fd ff
	ff 82 9e 88 8f	 mov	 DWORD PTR __k$584821[ebp+8], -1886871934 ; 8f889e82H
  008be	c7 85 70 fd ff
	ff b2 8f 85 9e	 mov	 DWORD PTR __k$584821[ebp+12], -1635414094 ; 9e858fb2H
  008c8	8d 85 64 fd ff
	ff		 lea	 eax, DWORD PTR __k$584821[ebp]
  008ce	88 9d 74 fd ff
	ff		 mov	 BYTE PTR __k$584821[ebp+16], bl
  008d4	59		 pop	 ecx
$LL2602@LoadProper:
  008d5	81 30 ed ec eb
	ea		 xor	 DWORD PTR [eax], -353637139 ; eaebecedH
  008db	83 c0 04	 add	 eax, 4
  008de	49		 dec	 ecx
  008df	75 f4		 jne	 SHORT $LL2602@LoadProper
  008e1	8b 8d 58 fb ff
	ff		 mov	 ecx, DWORD PTR _rkLoader$GSCopy$[ebp]
  008e7	53		 push	 ebx
  008e8	8d 85 64 fd ff
	ff		 lea	 eax, DWORD PTR __k$584821[ebp]
  008ee	50		 push	 eax
  008ef	ff 15 00 00 00
	00		 call	 DWORD PTR __imp_?LoadInt@ioINILoader@@QAEHPBDH@Z

; 117  : 	if( iForceCnt > 0 )

  008f5	8b 3d 00 00 00
	00		 mov	 edi, DWORD PTR __imp__wsprintfA
  008fb	89 85 54 fb ff
	ff		 mov	 DWORD PTR _iForceCnt$[ebp], eax
  00901	3b c3		 cmp	 eax, ebx
  00903	0f 8e 4b 02 00
	00		 jle	 $LN796@LoadProper

; 118  : 		m_AttackAttribute.m_vForceInfoList.reserve( iForceCnt );

  00909	50		 push	 eax
  0090a	8d 8e c4 0f 00
	00		 lea	 ecx, DWORD PTR [esi+4036]
  00910	e8 00 00 00 00	 call	 ?reserve@?$vector@UForceInfo@@V?$allocator@UForceInfo@@@std@@@std@@QAEXI@Z ; std::vector<ForceInfo,std::allocator<ForceInfo> >::reserve

; 119  : 
; 120  : 	for( int i=0; i < iForceCnt; ++i )

  00915	39 9d 54 fb ff
	ff		 cmp	 DWORD PTR _iForceCnt$[ebp], ebx
  0091b	0f 8e 33 02 00
	00		 jle	 $LN796@LoadProper
  00921	8b 85 54 fb ff
	ff		 mov	 eax, DWORD PTR _iForceCnt$[ebp]
  00927	c7 85 50 fb ff
	ff 01 00 00 00	 mov	 DWORD PTR tv22612[ebp], 1
  00931	89 85 54 fb ff
	ff		 mov	 DWORD PTR tv16505[ebp], eax
$LL798@LoadProper:

; 121  : 	{
; 122  : 		ForceInfo kInfo;

  00937	8d 8d 44 fb ff
	ff		 lea	 ecx, DWORD PTR _kInfo$568467[ebp]
  0093d	e8 00 00 00 00	 call	 ??0ForceInfo@@QAE@XZ	; ForceInfo::ForceInfo
  00942	6a 04		 push	 4

; 123  : 
; 124  : 		wsprintf_e( szKey, "attack_force_move%d", i+1 );

  00944	c7 85 40 ff ff
	ff 8c 98 9f 8b	 mov	 DWORD PTR ___encStr$568471[ebp], -1952474996 ; 8b9f988cH
  0094e	c7 85 44 ff ff
	ff 8e 87 b4 8c	 mov	 DWORD PTR ___encStr$568471[ebp+4], -1934325874 ; 8cb4878eH
  00958	c7 85 48 ff ff
	ff 82 9e 88 8f	 mov	 DWORD PTR ___encStr$568471[ebp+8], -1886871934 ; 8f889e82H
  00962	c7 85 4c ff ff
	ff b2 81 84 9c	 mov	 DWORD PTR ___encStr$568471[ebp+12], -1669037646 ; 9c8481b2H
  0096c	8d 85 40 ff ff
	ff		 lea	 eax, DWORD PTR ___encStr$568471[ebp]
  00972	c7 85 50 ff ff
	ff 88 c9 8f 00	 mov	 DWORD PTR ___encStr$568471[ebp+16], 9423240 ; 008fc988H
  0097c	59		 pop	 ecx
$LL2610@LoadProper:
  0097d	81 30 ed ec eb
	ea		 xor	 DWORD PTR [eax], -353637139 ; eaebecedH
  00983	83 c0 04	 add	 eax, 4
  00986	49		 dec	 ecx
  00987	75 f4		 jne	 SHORT $LL2610@LoadProper
  00989	6a 10		 push	 16			; 00000010H
  0098b	58		 pop	 eax
$LL2607@LoadProper:
  0098c	8b c8		 mov	 ecx, eax
  0098e	81 e1 03 00 00
	80		 and	 ecx, -2147483645	; 80000003H
  00994	79 05		 jns	 SHORT $LN2902@LoadProper
  00996	49		 dec	 ecx
  00997	83 c9 fc	 or	 ecx, -4			; fffffffcH
  0099a	41		 inc	 ecx
$LN2902@LoadProper:
  0099b	b2 ed		 mov	 dl, -19			; ffffffedH
  0099d	2a d1		 sub	 dl, cl
  0099f	30 94 05 40 ff
	ff ff		 xor	 BYTE PTR ___encStr$568471[ebp+eax], dl
  009a6	40		 inc	 eax
  009a7	83 f8 13	 cmp	 eax, 19			; 00000013H
  009aa	7c e0		 jl	 SHORT $LL2607@LoadProper
  009ac	ff b5 50 fb ff
	ff		 push	 DWORD PTR tv22612[ebp]
  009b2	8d 85 40 ff ff
	ff		 lea	 eax, DWORD PTR ___encStr$568471[ebp]
  009b8	50		 push	 eax
  009b9	8d 85 60 fc ff
	ff		 lea	 eax, DWORD PTR _szKey$[ebp]
  009bf	50		 push	 eax
  009c0	ff d7		 call	 edi

; 125  : 		kInfo.m_fForceMovePower = rkLoader.LoadFloat( szKey, 0.0f );

  009c2	0f 57 c0	 xorps	 xmm0, xmm0
  009c5	59		 pop	 ecx
  009c6	59		 pop	 ecx
  009c7	8b 8d 58 fb ff
	ff		 mov	 ecx, DWORD PTR _rkLoader$GSCopy$[ebp]
  009cd	8d 85 60 fc ff
	ff		 lea	 eax, DWORD PTR _szKey$[ebp]
  009d3	f3 0f 11 04 24	 movss	 DWORD PTR [esp], xmm0
  009d8	50		 push	 eax
  009d9	ff 15 00 00 00
	00		 call	 DWORD PTR __imp_?LoadFloat@ioINILoader@@QAEMPBDM@Z
  009df	d9 9d 44 fb ff
	ff		 fstp	 DWORD PTR _kInfo$568467[ebp]
  009e5	6a 05		 push	 5

; 126  : 
; 127  : 		wsprintf_e( szKey, "attack_force_friction%d", i+1 );

  009e7	c7 85 8c fe ff
	ff 8c 98 9f 8b	 mov	 DWORD PTR ___encStr$568624[ebp], -1952474996 ; 8b9f988cH
  009f1	c7 85 90 fe ff
	ff 8e 87 b4 8c	 mov	 DWORD PTR ___encStr$568624[ebp+4], -1934325874 ; 8cb4878eH
  009fb	c7 85 94 fe ff
	ff 82 9e 88 8f	 mov	 DWORD PTR ___encStr$568624[ebp+8], -1886871934 ; 8f889e82H
  00a05	c7 85 98 fe ff
	ff b2 8a 99 83	 mov	 DWORD PTR ___encStr$568624[ebp+12], -2087089486 ; 83998ab2H
  00a0f	c7 85 9c fe ff
	ff 8e 98 82 85	 mov	 DWORD PTR ___encStr$568624[ebp+16], -2055038834 ; 8582988eH
  00a19	8d 85 8c fe ff
	ff		 lea	 eax, DWORD PTR ___encStr$568624[ebp]
  00a1f	c7 85 a0 fe ff
	ff 83 c9 8f 00	 mov	 DWORD PTR ___encStr$568624[ebp+20], 9423235 ; 008fc983H
  00a29	59		 pop	 ecx
$LL2618@LoadProper:
  00a2a	81 30 ed ec eb
	ea		 xor	 DWORD PTR [eax], -353637139 ; eaebecedH
  00a30	83 c0 04	 add	 eax, 4
  00a33	49		 dec	 ecx
  00a34	75 f4		 jne	 SHORT $LL2618@LoadProper
  00a36	6a 14		 push	 20			; 00000014H
  00a38	58		 pop	 eax
$LL2615@LoadProper:
  00a39	8b c8		 mov	 ecx, eax
  00a3b	81 e1 03 00 00
	80		 and	 ecx, -2147483645	; 80000003H
  00a41	79 05		 jns	 SHORT $LN2903@LoadProper
  00a43	49		 dec	 ecx
  00a44	83 c9 fc	 or	 ecx, -4			; fffffffcH
  00a47	41		 inc	 ecx
$LN2903@LoadProper:
  00a48	b2 ed		 mov	 dl, -19			; ffffffedH
  00a4a	2a d1		 sub	 dl, cl
  00a4c	30 94 05 8c fe
	ff ff		 xor	 BYTE PTR ___encStr$568624[ebp+eax], dl
  00a53	40		 inc	 eax
  00a54	83 f8 17	 cmp	 eax, 23			; 00000017H
  00a57	7c e0		 jl	 SHORT $LL2615@LoadProper
  00a59	ff b5 50 fb ff
	ff		 push	 DWORD PTR tv22612[ebp]
  00a5f	8d 85 8c fe ff
	ff		 lea	 eax, DWORD PTR ___encStr$568624[ebp]
  00a65	50		 push	 eax
  00a66	8d 85 60 fc ff
	ff		 lea	 eax, DWORD PTR _szKey$[ebp]
  00a6c	50		 push	 eax
  00a6d	ff d7		 call	 edi
  00a6f	83 c4 0c	 add	 esp, 12			; 0000000cH

; 128  : 		kInfo.m_fForceMoveFriction = rkLoader.LoadFloat( szKey, FLOAT1 );

  00a72	b8 01 00 00 00	 mov	 eax, 1
  00a77	89 85 18 fb ff
	ff		 mov	 DWORD PTR tv22535[ebp], eax
  00a7d	db 85 18 fb ff
	ff		 fild	 DWORD PTR tv22535[ebp]
  00a83	85 c0		 test	 eax, eax
  00a85	79 06		 jns	 SHORT $LN2904@LoadProper
  00a87	d8 05 00 00 00
	00		 fadd	 DWORD PTR __real@4f800000
$LN2904@LoadProper:
  00a8d	51		 push	 ecx
  00a8e	8b 8d 58 fb ff
	ff		 mov	 ecx, DWORD PTR _rkLoader$GSCopy$[ebp]
  00a94	d9 1c 24	 fstp	 DWORD PTR [esp]
  00a97	8d 85 60 fc ff
	ff		 lea	 eax, DWORD PTR _szKey$[ebp]
  00a9d	50		 push	 eax
  00a9e	ff 15 00 00 00
	00		 call	 DWORD PTR __imp_?LoadFloat@ioINILoader@@QAEMPBDM@Z
  00aa4	d9 9d 48 fb ff
	ff		 fstp	 DWORD PTR _kInfo$568467[ebp+4]
  00aaa	6a 05		 push	 5

; 129  : 
; 130  : 		wsprintf_e( szKey, "attack_force_angle%d", i+1 );

  00aac	c7 85 b0 fd ff
	ff 8c 98 9f 8b	 mov	 DWORD PTR ___encStr$568777[ebp], -1952474996 ; 8b9f988cH
  00ab6	c7 85 b4 fd ff
	ff 8e 87 b4 8c	 mov	 DWORD PTR ___encStr$568777[ebp+4], -1934325874 ; 8cb4878eH
  00ac0	c7 85 b8 fd ff
	ff 82 9e 88 8f	 mov	 DWORD PTR ___encStr$568777[ebp+8], -1886871934 ; 8f889e82H
  00aca	c7 85 bc fd ff
	ff b2 8d 85 8d	 mov	 DWORD PTR ___encStr$568777[ebp+12], -1920627278 ; 8d858db2H
  00ad4	c7 85 c0 fd ff
	ff 81 89 ce 8e	 mov	 DWORD PTR ___encStr$568777[ebp+16], -1899067007 ; 8ece8981H
  00ade	8d 85 b0 fd ff
	ff		 lea	 eax, DWORD PTR ___encStr$568777[ebp]
  00ae4	88 9d c4 fd ff
	ff		 mov	 BYTE PTR ___encStr$568777[ebp+20], bl
  00aea	59		 pop	 ecx
$LL2628@LoadProper:
  00aeb	81 30 ed ec eb
	ea		 xor	 DWORD PTR [eax], -353637139 ; eaebecedH
  00af1	83 c0 04	 add	 eax, 4
  00af4	49		 dec	 ecx
  00af5	75 f4		 jne	 SHORT $LL2628@LoadProper
  00af7	ff b5 50 fb ff
	ff		 push	 DWORD PTR tv22612[ebp]
  00afd	8d 85 b0 fd ff
	ff		 lea	 eax, DWORD PTR ___encStr$568777[ebp]
  00b03	50		 push	 eax
  00b04	8d 85 60 fc ff
	ff		 lea	 eax, DWORD PTR _szKey$[ebp]
  00b0a	50		 push	 eax
  00b0b	ff d7		 call	 edi

; 131  : 		kInfo.m_fForceAngle = rkLoader.LoadFloat( szKey, 0.0f );

  00b0d	0f 57 c0	 xorps	 xmm0, xmm0
  00b10	59		 pop	 ecx
  00b11	59		 pop	 ecx
  00b12	8b 8d 58 fb ff
	ff		 mov	 ecx, DWORD PTR _rkLoader$GSCopy$[ebp]
  00b18	8d 85 60 fc ff
	ff		 lea	 eax, DWORD PTR _szKey$[ebp]
  00b1e	f3 0f 11 04 24	 movss	 DWORD PTR [esp], xmm0
  00b23	50		 push	 eax
  00b24	ff 15 00 00 00
	00		 call	 DWORD PTR __imp_?LoadFloat@ioINILoader@@QAEMPBDM@Z
  00b2a	d9 9d 4c fb ff
	ff		 fstp	 DWORD PTR _kInfo$568467[ebp+8]

; 132  : 
; 133  : 		m_AttackAttribute.m_vForceInfoList.push_back( kInfo );

  00b30	8d 85 44 fb ff
	ff		 lea	 eax, DWORD PTR _kInfo$568467[ebp]
  00b36	50		 push	 eax
  00b37	8d 8e c4 0f 00
	00		 lea	 ecx, DWORD PTR [esi+4036]
  00b3d	e8 00 00 00 00	 call	 ?push_back@?$vector@UForceInfo@@V?$allocator@UForceInfo@@@std@@@std@@QAEXABUForceInfo@@@Z ; std::vector<ForceInfo,std::allocator<ForceInfo> >::push_back
  00b42	ff 85 50 fb ff
	ff		 inc	 DWORD PTR tv22612[ebp]
  00b48	ff 8d 54 fb ff
	ff		 dec	 DWORD PTR tv16505[ebp]
  00b4e	0f 85 e3 fd ff
	ff		 jne	 $LL798@LoadProper
$LN796@LoadProper:

; 134  : 	}
; 135  : 
; 136  : 	int iAttackTypeCnt = rkLoader.LoadInt_e( "attack_type_count", 1 );

  00b54	6a 04		 push	 4
  00b56	c7 45 a0 8c 98
	9f 8b		 mov	 DWORD PTR __k$584986[ebp], -1952474996 ; 8b9f988cH
  00b5d	c7 45 a4 8e 87
	b4 9e		 mov	 DWORD PTR __k$584986[ebp+4], -1632335986 ; 9eb4878eH
  00b64	c7 45 a8 94 9c
	8e b5		 mov	 DWORD PTR __k$584986[ebp+8], -1248945004 ; b58e9c94H
  00b6b	c7 45 ac 8e 83
	9e 84		 mov	 DWORD PTR __k$584986[ebp+12], -2069986418 ; 849e838eH
  00b72	8d 45 a0	 lea	 eax, DWORD PTR __k$584986[ebp]
  00b75	66 c7 45 b0 99
	00		 mov	 WORD PTR __k$584986[ebp+16], 153 ; 00000099H
  00b7b	59		 pop	 ecx
$LL2734@LoadProper:
  00b7c	81 30 ed ec eb
	ea		 xor	 DWORD PTR [eax], -353637139 ; eaebecedH
  00b82	83 c0 04	 add	 eax, 4
  00b85	49		 dec	 ecx
  00b86	75 f4		 jne	 SHORT $LL2734@LoadProper
  00b88	8b 8d 58 fb ff
	ff		 mov	 ecx, DWORD PTR _rkLoader$GSCopy$[ebp]
  00b8e	80 75 b0 ed	 xor	 BYTE PTR __k$584986[ebp+16], -19 ; ffffffedH
  00b92	6a 01		 push	 1
  00b94	8d 45 a0	 lea	 eax, DWORD PTR __k$584986[ebp]
  00b97	50		 push	 eax
  00b98	ff 15 00 00 00
	00		 call	 DWORD PTR __imp_?LoadInt@ioINILoader@@QAEHPBDH@Z

; 137  : 	m_AttackAttribute.m_vWeaponInfoList.clear();

  00b9e	81 c6 b4 0f 00
	00		 add	 esi, 4020		; 00000fb4H
  00ba4	8b ce		 mov	 ecx, esi
  00ba6	89 85 54 fb ff
	ff		 mov	 DWORD PTR _iAttackTypeCnt$[ebp], eax
  00bac	89 b5 50 fb ff
	ff		 mov	 DWORD PTR tv19000[ebp], esi
  00bb2	e8 00 00 00 00	 call	 ?clear@?$vector@UWeaponInfo@@V?$allocator@UWeaponInfo@@@std@@@std@@QAEXXZ ; std::vector<WeaponInfo,std::allocator<WeaponInfo> >::clear

; 138  : 	m_AttackAttribute.m_vWeaponInfoList.reserve( iAttackTypeCnt );

  00bb7	ff b5 54 fb ff
	ff		 push	 DWORD PTR _iAttackTypeCnt$[ebp]
  00bbd	8b ce		 mov	 ecx, esi
  00bbf	e8 00 00 00 00	 call	 ?reserve@?$vector@UWeaponInfo@@V?$allocator@UWeaponInfo@@@std@@@std@@QAEXI@Z ; std::vector<WeaponInfo,std::allocator<WeaponInfo> >::reserve

; 139  : 
; 140  : 	for( int i=0 ; i<iAttackTypeCnt ; i++ )

  00bc4	39 9d 54 fb ff
	ff		 cmp	 DWORD PTR _iAttackTypeCnt$[ebp], ebx
  00bca	0f 8e 31 03 00
	00		 jle	 $LN496@LoadProper

; 134  : 	}
; 135  : 
; 136  : 	int iAttackTypeCnt = rkLoader.LoadInt_e( "attack_type_count", 1 );

  00bd0	8b 85 54 fb ff
	ff		 mov	 eax, DWORD PTR _iAttackTypeCnt$[ebp]
  00bd6	33 f6		 xor	 esi, esi
  00bd8	46		 inc	 esi
  00bd9	89 85 54 fb ff
	ff		 mov	 DWORD PTR tv6024[ebp], eax
$LL498@LoadProper:

; 141  : 	{
; 142  : 		WeaponInfo kInfo;

  00bdf	8d 8d 1c fb ff
	ff		 lea	 ecx, DWORD PTR _kInfo$568936[ebp]
  00be5	e8 00 00 00 00	 call	 ??0WeaponInfo@@QAE@XZ	; WeaponInfo::WeaponInfo
  00bea	6a 03		 push	 3
  00bec	89 5d fc	 mov	 DWORD PTR __$EHRec$[ebp+8], ebx

; 143  : 
; 144  : 		wsprintf_e( szKey, "attack_type%d", i+1 );

  00bef	c7 45 cc 8c 98
	9f 8b		 mov	 DWORD PTR ___encStr$568940[ebp], -1952474996 ; 8b9f988cH
  00bf6	c7 45 d0 8e 87
	b4 9e		 mov	 DWORD PTR ___encStr$568940[ebp+4], -1632335986 ; 9eb4878eH
  00bfd	c7 45 d4 94 9c
	8e cf		 mov	 DWORD PTR ___encStr$568940[ebp+8], -812737388 ; cf8e9c94H
  00c04	8d 45 cc	 lea	 eax, DWORD PTR ___encStr$568940[ebp]
  00c07	66 c7 45 d8 89
	00		 mov	 WORD PTR ___encStr$568940[ebp+12], 137 ; 00000089H
  00c0d	59		 pop	 ecx
$LL2742@LoadProper:
  00c0e	81 30 ed ec eb
	ea		 xor	 DWORD PTR [eax], -353637139 ; eaebecedH
  00c14	83 c0 04	 add	 eax, 4
  00c17	49		 dec	 ecx
  00c18	75 f4		 jne	 SHORT $LL2742@LoadProper
  00c1a	80 75 d8 ed	 xor	 BYTE PTR ___encStr$568940[ebp+12], -19 ; ffffffedH
  00c1e	56		 push	 esi
  00c1f	8d 45 cc	 lea	 eax, DWORD PTR ___encStr$568940[ebp]
  00c22	50		 push	 eax
  00c23	8d 85 60 fc ff
	ff		 lea	 eax, DWORD PTR _szKey$[ebp]
  00c29	50		 push	 eax
  00c2a	ff d7		 call	 edi

; 145  : 		kInfo.m_iWeaponIdx = rkLoader.LoadInt( szKey, NO_WEAPON_ATTRIBUTE );

  00c2c	8b 8d 58 fb ff
	ff		 mov	 ecx, DWORD PTR _rkLoader$GSCopy$[ebp]
  00c32	83 c4 0c	 add	 esp, 12			; 0000000cH
  00c35	53		 push	 ebx
  00c36	8d 85 60 fc ff
	ff		 lea	 eax, DWORD PTR _szKey$[ebp]
  00c3c	50		 push	 eax
  00c3d	ff 15 00 00 00
	00		 call	 DWORD PTR __imp_?LoadInt@ioINILoader@@QAEHPBDH@Z
  00c43	6a 05		 push	 5
  00c45	89 85 1c fb ff
	ff		 mov	 DWORD PTR _kInfo$568936[ebp], eax

; 146  : 
; 147  : 		wsprintf_e( szKey, "attack_type%d_resist", i+1 );

  00c4b	c7 85 94 fd ff
	ff 8c 98 9f 8b	 mov	 DWORD PTR ___encStr$569092[ebp], -1952474996 ; 8b9f988cH
  00c55	c7 85 98 fd ff
	ff 8e 87 b4 9e	 mov	 DWORD PTR ___encStr$569092[ebp+4], -1632335986 ; 9eb4878eH
  00c5f	c7 85 9c fd ff
	ff 94 9c 8e cf	 mov	 DWORD PTR ___encStr$569092[ebp+8], -812737388 ; cf8e9c94H
  00c69	c7 85 a0 fd ff
	ff 89 b3 99 8f	 mov	 DWORD PTR ___encStr$569092[ebp+12], -1885752439 ; 8f99b389H
  00c73	c7 85 a4 fd ff
	ff 9e 85 98 9e	 mov	 DWORD PTR ___encStr$569092[ebp+16], -1634171490 ; 9e98859eH
  00c7d	8d 85 94 fd ff
	ff		 lea	 eax, DWORD PTR ___encStr$569092[ebp]
  00c83	88 9d a8 fd ff
	ff		 mov	 BYTE PTR ___encStr$569092[ebp+20], bl
  00c89	59		 pop	 ecx
$LL2750@LoadProper:
  00c8a	81 30 ed ec eb
	ea		 xor	 DWORD PTR [eax], -353637139 ; eaebecedH
  00c90	83 c0 04	 add	 eax, 4
  00c93	49		 dec	 ecx
  00c94	75 f4		 jne	 SHORT $LL2750@LoadProper
  00c96	56		 push	 esi
  00c97	8d 85 94 fd ff
	ff		 lea	 eax, DWORD PTR ___encStr$569092[ebp]
  00c9d	50		 push	 eax
  00c9e	8d 85 60 fc ff
	ff		 lea	 eax, DWORD PTR _szKey$[ebp]
  00ca4	50		 push	 eax
  00ca5	ff d7		 call	 edi

; 148  : 		kInfo.m_iResistanceIdx = rkLoader.LoadInt( szKey, NO_WEAPON_ATTRIBUTE );

  00ca7	8b 8d 58 fb ff
	ff		 mov	 ecx, DWORD PTR _rkLoader$GSCopy$[ebp]
  00cad	83 c4 0c	 add	 esp, 12			; 0000000cH
  00cb0	53		 push	 ebx
  00cb1	8d 85 60 fc ff
	ff		 lea	 eax, DWORD PTR _szKey$[ebp]
  00cb7	50		 push	 eax
  00cb8	ff 15 00 00 00
	00		 call	 DWORD PTR __imp_?LoadInt@ioINILoader@@QAEHPBDH@Z
  00cbe	6a 05		 push	 5
  00cc0	89 85 20 fb ff
	ff		 mov	 DWORD PTR _kInfo$568936[ebp+4], eax

; 149  : 
; 150  : 		wsprintf_e( szKey, "attack_type%d_wounded", i+1 );

  00cc6	c7 85 c4 fe ff
	ff 8c 98 9f 8b	 mov	 DWORD PTR ___encStr$569244[ebp], -1952474996 ; 8b9f988cH
  00cd0	c7 85 c8 fe ff
	ff 8e 87 b4 9e	 mov	 DWORD PTR ___encStr$569244[ebp+4], -1632335986 ; 9eb4878eH
  00cda	c7 85 cc fe ff
	ff 94 9c 8e cf	 mov	 DWORD PTR ___encStr$569244[ebp+8], -812737388 ; cf8e9c94H
  00ce4	c7 85 d0 fe ff
	ff 89 b3 9c 85	 mov	 DWORD PTR ___encStr$569244[ebp+12], -2053327991 ; 859cb389H
  00cee	c7 85 d4 fe ff
	ff 98 82 8f 8f	 mov	 DWORD PTR ___encStr$569244[ebp+16], -1886420328 ; 8f8f8298H
  00cf8	8d 85 c4 fe ff
	ff		 lea	 eax, DWORD PTR ___encStr$569244[ebp]
  00cfe	66 c7 85 d8 fe
	ff ff 89 00	 mov	 WORD PTR ___encStr$569244[ebp+20], 137 ; 00000089H
  00d07	59		 pop	 ecx
$LL2758@LoadProper:
  00d08	81 30 ed ec eb
	ea		 xor	 DWORD PTR [eax], -353637139 ; eaebecedH
  00d0e	83 c0 04	 add	 eax, 4
  00d11	49		 dec	 ecx
  00d12	75 f4		 jne	 SHORT $LL2758@LoadProper
  00d14	80 b5 d8 fe ff
	ff ed		 xor	 BYTE PTR ___encStr$569244[ebp+20], -19 ; ffffffedH
  00d1b	56		 push	 esi
  00d1c	8d 85 c4 fe ff
	ff		 lea	 eax, DWORD PTR ___encStr$569244[ebp]
  00d22	50		 push	 eax
  00d23	8d 85 60 fc ff
	ff		 lea	 eax, DWORD PTR _szKey$[ebp]
  00d29	50		 push	 eax
  00d2a	ff d7		 call	 edi

; 151  : 		rkLoader.LoadString( szKey, "", szBuf, MAX_PATH );

  00d2c	8b 8d 58 fb ff
	ff		 mov	 ecx, DWORD PTR _rkLoader$GSCopy$[ebp]
  00d32	83 c4 0c	 add	 esp, 12			; 0000000cH
  00d35	68 04 01 00 00	 push	 260			; 00000104H
  00d3a	8d 85 5c fb ff
	ff		 lea	 eax, DWORD PTR _szBuf$[ebp]
  00d40	50		 push	 eax
  00d41	68 00 00 00 00	 push	 OFFSET ??_C@_00CNPNBAHC@?$AA@
  00d46	8d 85 60 fc ff
	ff		 lea	 eax, DWORD PTR _szKey$[ebp]
  00d4c	50		 push	 eax
  00d4d	ff 15 00 00 00
	00		 call	 DWORD PTR __imp_?LoadStringA@ioINILoader@@QAEXPBD0PADH@Z

; 152  : 		kInfo.m_WoundedAnimation = szBuf;

  00d53	8d 85 5c fb ff
	ff		 lea	 eax, DWORD PTR _szBuf$[ebp]
  00d59	50		 push	 eax
  00d5a	8d 8d 24 fb ff
	ff		 lea	 ecx, DWORD PTR _kInfo$568936[ebp+8]
  00d60	ff 15 00 00 00
	00		 call	 DWORD PTR __imp_??4ioHashString@@QAEAAV0@PBD@Z
  00d66	6a 06		 push	 6

; 153  : 
; 154  : 		wsprintf_e( szKey, "attack_type%d_wounded_time", i+1 );

  00d68	c7 85 34 fe ff
	ff 8c 98 9f 8b	 mov	 DWORD PTR ___encStr$569396[ebp], -1952474996 ; 8b9f988cH
  00d72	c7 85 38 fe ff
	ff 8e 87 b4 9e	 mov	 DWORD PTR ___encStr$569396[ebp+4], -1632335986 ; 9eb4878eH
  00d7c	c7 85 3c fe ff
	ff 94 9c 8e cf	 mov	 DWORD PTR ___encStr$569396[ebp+8], -812737388 ; cf8e9c94H
  00d86	c7 85 40 fe ff
	ff 89 b3 9c 85	 mov	 DWORD PTR ___encStr$569396[ebp+12], -2053327991 ; 859cb389H
  00d90	c7 85 44 fe ff
	ff 98 82 8f 8f	 mov	 DWORD PTR ___encStr$569396[ebp+16], -1886420328 ; 8f8f8298H
  00d9a	c7 85 48 fe ff
	ff 89 b3 9f 83	 mov	 DWORD PTR ___encStr$569396[ebp+20], -2086685815 ; 839fb389H
  00da4	66 c7 85 4c fe
	ff ff 80 89	 mov	 WORD PTR ___encStr$569396[ebp+24], 35200 ; 00008980H
  00dad	8d 85 34 fe ff
	ff		 lea	 eax, DWORD PTR ___encStr$569396[ebp]
  00db3	88 9d 4e fe ff
	ff		 mov	 BYTE PTR ___encStr$569396[ebp+26], bl
  00db9	59		 pop	 ecx
$LL2766@LoadProper:
  00dba	81 30 ed ec eb
	ea		 xor	 DWORD PTR [eax], -353637139 ; eaebecedH
  00dc0	83 c0 04	 add	 eax, 4
  00dc3	49		 dec	 ecx
  00dc4	75 f4		 jne	 SHORT $LL2766@LoadProper
  00dc6	6a 18		 push	 24			; 00000018H
  00dc8	58		 pop	 eax
$LL2763@LoadProper:
  00dc9	8b c8		 mov	 ecx, eax
  00dcb	81 e1 03 00 00
	80		 and	 ecx, -2147483645	; 80000003H
  00dd1	79 05		 jns	 SHORT $LN2905@LoadProper
  00dd3	49		 dec	 ecx
  00dd4	83 c9 fc	 or	 ecx, -4			; fffffffcH
  00dd7	41		 inc	 ecx
$LN2905@LoadProper:
  00dd8	b2 ed		 mov	 dl, -19			; ffffffedH
  00dda	2a d1		 sub	 dl, cl
  00ddc	30 94 05 34 fe
	ff ff		 xor	 BYTE PTR ___encStr$569396[ebp+eax], dl
  00de3	40		 inc	 eax
  00de4	83 f8 1a	 cmp	 eax, 26			; 0000001aH
  00de7	7c e0		 jl	 SHORT $LL2763@LoadProper
  00de9	56		 push	 esi
  00dea	8d 85 34 fe ff
	ff		 lea	 eax, DWORD PTR ___encStr$569396[ebp]
  00df0	50		 push	 eax
  00df1	8d 85 60 fc ff
	ff		 lea	 eax, DWORD PTR _szKey$[ebp]
  00df7	50		 push	 eax
  00df8	ff d7		 call	 edi

; 155  : 		kInfo.m_dwWoundedDuration = rkLoader.LoadInt( szKey, 0 );

  00dfa	8b 8d 58 fb ff
	ff		 mov	 ecx, DWORD PTR _rkLoader$GSCopy$[ebp]
  00e00	83 c4 0c	 add	 esp, 12			; 0000000cH
  00e03	53		 push	 ebx
  00e04	8d 85 60 fc ff
	ff		 lea	 eax, DWORD PTR _szKey$[ebp]
  00e0a	50		 push	 eax
  00e0b	ff 15 00 00 00
	00		 call	 DWORD PTR __imp_?LoadInt@ioINILoader@@QAEHPBDH@Z
  00e11	6a 07		 push	 7
  00e13	89 85 34 fb ff
	ff		 mov	 DWORD PTR _kInfo$568936[ebp+24], eax

; 156  : 
; 157  : 		wsprintf_e( szKey, "attack_type%d_wounded_loop_ani", i+1 );

  00e19	c7 85 10 fe ff
	ff 8c 98 9f 8b	 mov	 DWORD PTR ___encStr$569548[ebp], -1952474996 ; 8b9f988cH
  00e23	c7 85 14 fe ff
	ff 8e 87 b4 9e	 mov	 DWORD PTR ___encStr$569548[ebp+4], -1632335986 ; 9eb4878eH
  00e2d	c7 85 18 fe ff
	ff 94 9c 8e cf	 mov	 DWORD PTR ___encStr$569548[ebp+8], -812737388 ; cf8e9c94H
  00e37	c7 85 1c fe ff
	ff 89 b3 9c 85	 mov	 DWORD PTR ___encStr$569548[ebp+12], -2053327991 ; 859cb389H
  00e41	c7 85 20 fe ff
	ff 98 82 8f 8f	 mov	 DWORD PTR ___encStr$569548[ebp+16], -1886420328 ; 8f8f8298H
  00e4b	c7 85 24 fe ff
	ff 89 b3 87 85	 mov	 DWORD PTR ___encStr$569548[ebp+20], -2054704247 ; 8587b389H
  00e55	c7 85 28 fe ff
	ff 82 9c b4 8b	 mov	 DWORD PTR ___encStr$569548[ebp+24], -1951097726 ; 8bb49c82H
  00e5f	66 c7 85 2c fe
	ff ff 83 85	 mov	 WORD PTR ___encStr$569548[ebp+28], 34179 ; 00008583H
  00e68	8d 85 10 fe ff
	ff		 lea	 eax, DWORD PTR ___encStr$569548[ebp]
  00e6e	88 9d 2e fe ff
	ff		 mov	 BYTE PTR ___encStr$569548[ebp+30], bl
  00e74	59		 pop	 ecx
$LL2774@LoadProper:
  00e75	81 30 ed ec eb
	ea		 xor	 DWORD PTR [eax], -353637139 ; eaebecedH
  00e7b	83 c0 04	 add	 eax, 4
  00e7e	49		 dec	 ecx
  00e7f	75 f4		 jne	 SHORT $LL2774@LoadProper
  00e81	6a 1c		 push	 28			; 0000001cH
  00e83	58		 pop	 eax
$LL2771@LoadProper:
  00e84	8b c8		 mov	 ecx, eax
  00e86	81 e1 03 00 00
	80		 and	 ecx, -2147483645	; 80000003H
  00e8c	79 05		 jns	 SHORT $LN2906@LoadProper
  00e8e	49		 dec	 ecx
  00e8f	83 c9 fc	 or	 ecx, -4			; fffffffcH
  00e92	41		 inc	 ecx
$LN2906@LoadProper:
  00e93	b2 ed		 mov	 dl, -19			; ffffffedH
  00e95	2a d1		 sub	 dl, cl
  00e97	30 94 05 10 fe
	ff ff		 xor	 BYTE PTR ___encStr$569548[ebp+eax], dl
  00e9e	40		 inc	 eax
  00e9f	83 f8 1e	 cmp	 eax, 30			; 0000001eH
  00ea2	7c e0		 jl	 SHORT $LL2771@LoadProper
  00ea4	56		 push	 esi
  00ea5	8d 85 10 fe ff
	ff		 lea	 eax, DWORD PTR ___encStr$569548[ebp]
  00eab	50		 push	 eax
  00eac	8d 85 60 fc ff
	ff		 lea	 eax, DWORD PTR _szKey$[ebp]
  00eb2	50		 push	 eax
  00eb3	ff d7		 call	 edi

; 158  : 		kInfo.m_bWoundedLoopAni = rkLoader.LoadBool( szKey, false );

  00eb5	8b 8d 58 fb ff
	ff		 mov	 ecx, DWORD PTR _rkLoader$GSCopy$[ebp]
  00ebb	83 c4 0c	 add	 esp, 12			; 0000000cH
  00ebe	53		 push	 ebx
  00ebf	8d 85 60 fc ff
	ff		 lea	 eax, DWORD PTR _szKey$[ebp]
  00ec5	50		 push	 eax
  00ec6	ff 15 00 00 00
	00		 call	 DWORD PTR __imp_?LoadBool@ioINILoader@@QAE_NPBD_N@Z

; 159  : 
; 160  : 		m_AttackAttribute.m_vWeaponInfoList.push_back( kInfo );

  00ecc	8b 8d 50 fb ff
	ff		 mov	 ecx, DWORD PTR tv19000[ebp]
  00ed2	88 85 3c fb ff
	ff		 mov	 BYTE PTR _kInfo$568936[ebp+32], al
  00ed8	8d 85 1c fb ff
	ff		 lea	 eax, DWORD PTR _kInfo$568936[ebp]
  00ede	50		 push	 eax
  00edf	e8 00 00 00 00	 call	 ?push_back@?$vector@UWeaponInfo@@V?$allocator@UWeaponInfo@@@std@@@std@@QAEXABUWeaponInfo@@@Z ; std::vector<WeaponInfo,std::allocator<WeaponInfo> >::push_back

; 161  : 	}

  00ee4	83 4d fc ff	 or	 DWORD PTR __$EHRec$[ebp+8], -1
  00ee8	8d 8d 24 fb ff
	ff		 lea	 ecx, DWORD PTR _kInfo$568936[ebp+8]
  00eee	ff 15 00 00 00
	00		 call	 DWORD PTR __imp_??1ioHashString@@QAE@XZ
  00ef4	46		 inc	 esi
  00ef5	ff 8d 54 fb ff
	ff		 dec	 DWORD PTR tv6024[ebp]
  00efb	0f 85 de fc ff
	ff		 jne	 $LL498@LoadProper
$LN496@LoadProper:

; 162  : }

  00f01	e8 00 00 00 00	 call	 __EH_epilog3_GS
  00f06	c2 04 00	 ret	 4
_TEXT	ENDS
;	COMDAT text$x
text$x	SEGMENT
__unwindfunclet$?LoadProperty@ioCircleMoveWeaponSkill@@UAEXAAVioINILoader@@@Z$0:
  00000	8d 8d 1c fb ff
	ff		 lea	 ecx, DWORD PTR _kInfo$568936[ebp]
  00006	e9 00 00 00 00	 jmp	 ??1WeaponInfo@@QAE@XZ
__ehhandler$?LoadProperty@ioCircleMoveWeaponSkill@@UAEXAAVioINILoader@@@Z:
  0000b	8b 54 24 08	 mov	 edx, DWORD PTR [esp+8]
  0000f	8d 42 0c	 lea	 eax, DWORD PTR [edx+12]
  00012	8b 8a 14 fb ff
	ff		 mov	 ecx, DWORD PTR [edx-1260]
  00018	33 c8		 xor	 ecx, eax
  0001a	e8 00 00 00 00	 call	 @__security_check_cookie@4
  0001f	8b 4a fc	 mov	 ecx, DWORD PTR [edx-4]
  00022	33 c8		 xor	 ecx, eax
  00024	e8 00 00 00 00	 call	 @__security_check_cookie@4
  00029	b8 00 00 00 00	 mov	 eax, OFFSET __ehfuncinfo$?LoadProperty@ioCircleMoveWeaponSkill@@UAEXAAVioINILoader@@@Z
  0002e	e9 00 00 00 00	 jmp	 ___CxxFrameHandler3
text$x	ENDS
?LoadProperty@ioCircleMoveWeaponSkill@@UAEXAAVioINILoader@@@Z ENDP ; ioCircleMoveWeaponSkill::LoadProperty
;	COMDAT xdata$x
xdata$x	SEGMENT
__unwindtable$?Clone@ioCircleMoveWeaponSkill@@UAEPAVioSkill@@XZ DD 0ffffffffH
	DD	FLAT:__unwindfunclet$?Clone@ioCircleMoveWeaponSkill@@UAEPAVioSkill@@XZ$0
__ehfuncinfo$?Clone@ioCircleMoveWeaponSkill@@UAEPAVioSkill@@XZ DD 019930522H
	DD	01H
	DD	FLAT:__unwindtable$?Clone@ioCircleMoveWeaponSkill@@UAEPAVioSkill@@XZ
	DD	2 DUP(00H)
	DD	2 DUP(00H)
	DD	00H
	DD	01H
; Function compile flags: /Ogsp
xdata$x	ENDS
;	COMDAT ?Clone@ioCircleMoveWeaponSkill@@UAEPAVioSkill@@XZ
_TEXT	SEGMENT
$T585297 = -16						; size = 4
__$EHRec$ = -12						; size = 12
?Clone@ioCircleMoveWeaponSkill@@UAEPAVioSkill@@XZ PROC	; ioCircleMoveWeaponSkill::Clone, COMDAT
; _this$ = ecx

; 194  : {

  00000	6a 04		 push	 4
  00002	b8 00 00 00 00	 mov	 eax, __ehhandler$?Clone@ioCircleMoveWeaponSkill@@UAEPAVioSkill@@XZ
  00007	e8 00 00 00 00	 call	 __EH_prolog3
  0000c	8b f1		 mov	 esi, ecx

; 195  : 	return new ioCircleMoveWeaponSkill( *this );

  0000e	68 2c 11 00 00	 push	 4396			; 0000112cH
  00013	e8 00 00 00 00	 call	 ??2@YAPAXI@Z		; operator new
  00018	59		 pop	 ecx
  00019	8b c8		 mov	 ecx, eax
  0001b	89 4d f0	 mov	 DWORD PTR $T585297[ebp], ecx
  0001e	33 c0		 xor	 eax, eax
  00020	89 45 fc	 mov	 DWORD PTR __$EHRec$[ebp+8], eax
  00023	3b c8		 cmp	 ecx, eax
  00025	74 06		 je	 SHORT $LN3@Clone
  00027	56		 push	 esi
  00028	e8 00 00 00 00	 call	 ??0ioCircleMoveWeaponSkill@@QAE@ABV0@@Z ; ioCircleMoveWeaponSkill::ioCircleMoveWeaponSkill
$LN3@Clone:

; 196  : }

  0002d	e8 00 00 00 00	 call	 __EH_epilog3
  00032	c3		 ret	 0
_TEXT	ENDS
;	COMDAT text$x
text$x	SEGMENT
__unwindfunclet$?Clone@ioCircleMoveWeaponSkill@@UAEPAVioSkill@@XZ$0:
  00000	ff 75 f0	 push	 DWORD PTR $T585297[ebp]
  00003	e8 00 00 00 00	 call	 ??3@YAXPAX@Z		; operator delete
  00008	59		 pop	 ecx
  00009	c3		 ret	 0
__ehhandler$?Clone@ioCircleMoveWeaponSkill@@UAEPAVioSkill@@XZ:
  0000a	8b 54 24 08	 mov	 edx, DWORD PTR [esp+8]
  0000e	8d 42 0c	 lea	 eax, DWORD PTR [edx+12]
  00011	8b 4a ec	 mov	 ecx, DWORD PTR [edx-20]
  00014	33 c8		 xor	 ecx, eax
  00016	e8 00 00 00 00	 call	 @__security_check_cookie@4
  0001b	b8 00 00 00 00	 mov	 eax, OFFSET __ehfuncinfo$?Clone@ioCircleMoveWeaponSkill@@UAEPAVioSkill@@XZ
  00020	e9 00 00 00 00	 jmp	 ___CxxFrameHandler3
text$x	ENDS
?Clone@ioCircleMoveWeaponSkill@@UAEPAVioSkill@@XZ ENDP	; ioCircleMoveWeaponSkill::Clone
PUBLIC	__$ArrayPad$
EXTRN	?GetSkillKeyInput@ioBaseChar@@QAEHXZ:PROC	; ioBaseChar::GetSkillKeyInput
EXTRN	?IsJumpKey@ioBaseChar@@QBE_NXZ:PROC		; ioBaseChar::IsJumpKey
EXTRN	?IsDefenseKey@ioBaseChar@@QBE_NXZ:PROC		; ioBaseChar::IsDefenseKey
EXTRN	?IsAttackKey@ioBaseChar@@QBE_NXZ:PROC		; ioBaseChar::IsAttackKey
EXTRN	?SetTargetRotToTargetPos@ioBaseChar@@QAEXABUD3DXVECTOR3@@_N1@Z:PROC ; ioBaseChar::SetTargetRotToTargetPos
EXTRN	?UpdateMagicCirclePosAll@ioBaseGUISupport@@QAEXMMM_N@Z:PROC ; ioBaseGUISupport::UpdateMagicCirclePosAll
EXTRN	?CheckChangeDirectionForMagicCircle@ioBaseGUISupport@@QAE_NXZ:PROC ; ioBaseGUISupport::CheckChangeDirectionForMagicCircle
; Function compile flags: /Ogsp
;	COMDAT ?OnProcessState@ioCircleMoveWeaponSkill@@UAEXPAVioBaseChar@@PAVioPlayStage@@@Z
_TEXT	SEGMENT
_fCurRange$ = -32					; size = 4
_iSlot$ = -24						; size = 4
_value$585320 = -20					; size = 4
_fValue$ = -20						; size = 4
_vTargetPos$569911 = -16				; size = 12
__$ArrayPad$ = -4					; size = 4
_pChar$ = 8						; size = 4
_pStage$ = 12						; size = 4
?OnProcessState@ioCircleMoveWeaponSkill@@UAEXPAVioBaseChar@@PAVioPlayStage@@@Z PROC ; ioCircleMoveWeaponSkill::OnProcessState, COMDAT
; _this$ = ecx

; 295  : {

  00000	55		 push	 ebp
  00001	8b ec		 mov	 ebp, esp
  00003	83 ec 20	 sub	 esp, 32			; 00000020H
  00006	a1 00 00 00 00	 mov	 eax, DWORD PTR ___security_cookie
  0000b	33 c5		 xor	 eax, ebp
  0000d	89 45 fc	 mov	 DWORD PTR __$ArrayPad$[ebp], eax

; 296  : 	float fValue = 0.0f;

  00010	0f 57 c0	 xorps	 xmm0, xmm0
  00013	53		 push	 ebx
  00014	8b 5d 0c	 mov	 ebx, DWORD PTR _pStage$[ebp]
  00017	56		 push	 esi
  00018	8b 75 08	 mov	 esi, DWORD PTR _pChar$[ebp]
  0001b	57		 push	 edi

; 297  : 	ioGrowthNormalUpInfo *pUpInfo = ToNormalUpInfo( GetGrowthUpInfoByType(GT_MAGIC_CIRCLE_RANGE, pChar->GetCharName()) );

  0001c	8d 86 d4 02 00
	00		 lea	 eax, DWORD PTR [esi+724]
  00022	50		 push	 eax
  00023	6a 0e		 push	 14			; 0000000eH
  00025	8b f9		 mov	 edi, ecx
  00027	f3 0f 11 45 ec	 movss	 DWORD PTR _fValue$[ebp], xmm0
  0002c	e8 00 00 00 00	 call	 ?GetGrowthUpInfoByType@ioSkill@@QAEPAVioGrowthUpInfo@@HABVioHashString@@@Z ; ioSkill::GetGrowthUpInfoByType
  00031	50		 push	 eax
  00032	e8 00 00 00 00	 call	 ?ToNormalUpInfo@@YAPAVioGrowthNormalUpInfo@@PAVioGrowthUpInfo@@@Z ; ToNormalUpInfo
  00037	59		 pop	 ecx

; 298  : 	if( pUpInfo )

  00038	85 c0		 test	 eax, eax
  0003a	74 0b		 je	 SHORT $LN18@OnProcessS

; 299  : 	{
; 300  : 		fValue = pUpInfo->GetValue(pStage);

  0003c	53		 push	 ebx
  0003d	8b c8		 mov	 ecx, eax
  0003f	e8 00 00 00 00	 call	 ?GetValue@ioGrowthNormalUpInfo@@QAEMPAVioPlayStage@@@Z ; ioGrowthNormalUpInfo::GetValue
  00044	d9 5d ec	 fstp	 DWORD PTR _fValue$[ebp]
$LN18@OnProcessS:

; 301  : 	}
; 302  : 
; 303  : 	float fCurRange = m_fCircleRange + fValue;

  00047	f3 0f 10 87 dc
	0f 00 00	 movss	 xmm0, DWORD PTR [edi+4060]
  0004f	f3 0f 10 4d ec	 movss	 xmm1, DWORD PTR _fValue$[ebp]

; 304  : 	int iSlot = GetOwnerItem()->GetType() - 1;

  00054	8b 8f a4 02 00
	00		 mov	 ecx, DWORD PTR [edi+676]
  0005a	8b 01		 mov	 eax, DWORD PTR [ecx]
  0005c	0f 5a c0	 cvtps2pd xmm0, xmm0
  0005f	0f 5a c9	 cvtps2pd xmm1, xmm1
  00062	f2 0f 58 c1	 addsd	 xmm0, xmm1
  00066	66 0f 5a c0	 cvtpd2ps xmm0, xmm0
  0006a	f3 0f 11 45 e0	 movss	 DWORD PTR _fCurRange$[ebp], xmm0
  0006f	ff 50 08	 call	 DWORD PTR [eax+8]
  00072	48		 dec	 eax
  00073	89 45 e8	 mov	 DWORD PTR _iSlot$[ebp], eax

; 305  : 
; 306  : 	switch( m_State )

  00076	8d 45 ec	 lea	 eax, DWORD PTR _value$585320[ebp]
  00079	50		 push	 eax
  0007a	8d 8f 58 0f 00
	00		 lea	 ecx, DWORD PTR [edi+3928]
  00080	e8 00 00 00 00	 call	 ?DecryptValueToPool@?$CEncrypt@H@@QAEXPAH@Z ; CEncrypt<int>::DecryptValueToPool
  00085	8b 45 ec	 mov	 eax, DWORD PTR _value$585320[ebp]
  00088	48		 dec	 eax
  00089	74 14		 je	 SHORT $LN6@OnProcessS
  0008b	48		 dec	 eax
  0008c	0f 85 c3 00 00
	00		 jne	 $LN3@OnProcessS

; 329  : 				}
; 330  : 			}
; 331  : 		}
; 332  : 		break;
; 333  : 	case SS_ACTION:
; 334  : 		{
; 335  : 			ProcessAction( pChar );

  00092	56		 push	 esi
  00093	8b cf		 mov	 ecx, edi
  00095	e8 00 00 00 00	 call	 ?ProcessAction@ioCircleMoveWeaponSkill@@IAEXPAVioBaseChar@@@Z ; ioCircleMoveWeaponSkill::ProcessAction

; 336  : 		}
; 337  : 		break;

  0009a	e9 b6 00 00 00	 jmp	 $LN3@OnProcessS
$LN6@OnProcessS:

; 307  : 	{
; 308  : 	case SS_WAIT:
; 309  : 		if( pChar )

  0009f	85 f6		 test	 esi, esi
  000a1	0f 84 ae 00 00
	00		 je	 $LN3@OnProcessS

; 310  : 		{
; 311  : 			//   
; 312  : 			pChar->CheckChangeDirectionForMagicCircle();

  000a7	8d 8e cc 01 00
	00		 lea	 ecx, DWORD PTR [esi+460]
  000ad	e8 00 00 00 00	 call	 ?CheckChangeDirectionForMagicCircle@ioBaseGUISupport@@QAE_NXZ ; ioBaseGUISupport::CheckChangeDirectionForMagicCircle

; 313  : 
; 314  : 			// MagicCircle  
; 315  : 			pChar->UpdateMagicCirclePosAll( m_fCircleMoveSpeed, fCurRange, m_fCircleHeightGap, false );

  000b2	f3 0f 10 87 e4
	0f 00 00	 movss	 xmm0, DWORD PTR [edi+4068]
  000ba	6a 00		 push	 0
  000bc	83 ec 0c	 sub	 esp, 12			; 0000000cH
  000bf	f3 0f 11 44 24
	08		 movss	 DWORD PTR [esp+8], xmm0
  000c5	f3 0f 10 45 e0	 movss	 xmm0, DWORD PTR _fCurRange$[ebp]
  000ca	f3 0f 11 44 24
	04		 movss	 DWORD PTR [esp+4], xmm0
  000d0	f3 0f 10 87 e0
	0f 00 00	 movss	 xmm0, DWORD PTR [edi+4064]
  000d8	8d 8e cc 01 00
	00		 lea	 ecx, DWORD PTR [esi+460]
  000de	f3 0f 11 04 24	 movss	 DWORD PTR [esp], xmm0
  000e3	e8 00 00 00 00	 call	 ?UpdateMagicCirclePosAll@ioBaseGUISupport@@QAEXMMM_N@Z ; ioBaseGUISupport::UpdateMagicCirclePosAll

; 316  : 
; 317  : 			// MagicCircle   
; 318  : 			D3DXVECTOR3 vTargetPos = pChar->GetMagicCirclePos();

  000e8	0f 57 c0	 xorps	 xmm0, xmm0
  000eb	6a 00		 push	 0
  000ed	51		 push	 ecx
  000ee	8d 45 f0	 lea	 eax, DWORD PTR _vTargetPos$569911[ebp]
  000f1	f3 0f 11 04 24	 movss	 DWORD PTR [esp], xmm0
  000f6	50		 push	 eax
  000f7	8d 8e cc 01 00
	00		 lea	 ecx, DWORD PTR [esi+460]
  000fd	e8 00 00 00 00	 call	 ?GetMagicCirclePos@ioBaseGUISupport@@QBE?AUD3DXVECTOR3@@M_N@Z ; ioBaseGUISupport::GetMagicCirclePos

; 319  : 			pChar->SetTargetRotToTargetPos( vTargetPos, true, false );

  00102	6a 00		 push	 0
  00104	6a 01		 push	 1
  00106	8d 45 f0	 lea	 eax, DWORD PTR _vTargetPos$569911[ebp]
  00109	50		 push	 eax
  0010a	8b ce		 mov	 ecx, esi
  0010c	e8 00 00 00 00	 call	 ?SetTargetRotToTargetPos@ioBaseChar@@QAEXABUD3DXVECTOR3@@_N1@Z ; ioBaseChar::SetTargetRotToTargetPos

; 320  : 
; 321  : 			if( pChar->IsNeedProcess() )

  00111	8b 06		 mov	 eax, DWORD PTR [esi]
  00113	8b ce		 mov	 ecx, esi
  00115	ff 90 00 01 00
	00		 call	 DWORD PTR [eax+256]
  0011b	84 c0		 test	 al, al
  0011d	74 36		 je	 SHORT $LN3@OnProcessS

; 322  : 			{
; 323  : 				if( pChar->IsAttackKey() ||
; 324  : 					pChar->IsDefenseKey() ||
; 325  : 					pChar->IsJumpKey() ||
; 326  : 					pChar->GetSkillKeyInput() == iSlot )

  0011f	8b ce		 mov	 ecx, esi
  00121	e8 00 00 00 00	 call	 ?IsAttackKey@ioBaseChar@@QBE_NXZ ; ioBaseChar::IsAttackKey
  00126	84 c0		 test	 al, al
  00128	75 22		 jne	 SHORT $LN2@OnProcessS
  0012a	8b ce		 mov	 ecx, esi
  0012c	e8 00 00 00 00	 call	 ?IsDefenseKey@ioBaseChar@@QBE_NXZ ; ioBaseChar::IsDefenseKey
  00131	84 c0		 test	 al, al
  00133	75 17		 jne	 SHORT $LN2@OnProcessS
  00135	8b ce		 mov	 ecx, esi
  00137	e8 00 00 00 00	 call	 ?IsJumpKey@ioBaseChar@@QBE_NXZ ; ioBaseChar::IsJumpKey
  0013c	84 c0		 test	 al, al
  0013e	75 0c		 jne	 SHORT $LN2@OnProcessS
  00140	8b ce		 mov	 ecx, esi
  00142	e8 00 00 00 00	 call	 ?GetSkillKeyInput@ioBaseChar@@QAEHXZ ; ioBaseChar::GetSkillKeyInput
  00147	3b 45 e8	 cmp	 eax, DWORD PTR _iSlot$[ebp]
  0014a	75 09		 jne	 SHORT $LN3@OnProcessS
$LN2@OnProcessS:

; 327  : 				{
; 328  : 					SetActionState( pChar, pStage );

  0014c	53		 push	 ebx
  0014d	56		 push	 esi
  0014e	8b cf		 mov	 ecx, edi
  00150	e8 00 00 00 00	 call	 ?SetActionState@ioCircleMoveWeaponSkill@@IAEXPAVioBaseChar@@PAVioPlayStage@@@Z ; ioCircleMoveWeaponSkill::SetActionState
$LN3@OnProcessS:

; 338  : 	}
; 339  : }

  00155	8b 4d fc	 mov	 ecx, DWORD PTR __$ArrayPad$[ebp]
  00158	5f		 pop	 edi
  00159	5e		 pop	 esi
  0015a	33 cd		 xor	 ecx, ebp
  0015c	5b		 pop	 ebx
  0015d	e8 00 00 00 00	 call	 @__security_check_cookie@4
  00162	c9		 leave
  00163	c2 08 00	 ret	 8
?OnProcessState@ioCircleMoveWeaponSkill@@UAEXPAVioBaseChar@@PAVioPlayStage@@@Z ENDP ; ioCircleMoveWeaponSkill::OnProcessState
; Function compile flags: /Ogsp
_TEXT	ENDS
;	COMDAT ??_GioCircleMoveWeaponSkill@@UAEPAXI@Z
_TEXT	SEGMENT
___flags$ = 8						; size = 4
??_GioCircleMoveWeaponSkill@@UAEPAXI@Z PROC		; ioCircleMoveWeaponSkill::`scalar deleting destructor', COMDAT
; _this$ = ecx
  00000	55		 push	 ebp
  00001	8b ec		 mov	 ebp, esp
  00003	56		 push	 esi
  00004	8b f1		 mov	 esi, ecx
  00006	e8 00 00 00 00	 call	 ??1ioCircleMoveWeaponSkill@@UAE@XZ ; ioCircleMoveWeaponSkill::~ioCircleMoveWeaponSkill
  0000b	f6 45 08 01	 test	 BYTE PTR ___flags$[ebp], 1
  0000f	74 07		 je	 SHORT $LN1@scalar@6
  00011	56		 push	 esi
  00012	e8 00 00 00 00	 call	 ??3@YAXPAX@Z		; operator delete
  00017	59		 pop	 ecx
$LN1@scalar@6:
  00018	8b c6		 mov	 eax, esi
  0001a	5e		 pop	 esi
  0001b	5d		 pop	 ebp
  0001c	c2 04 00	 ret	 4
??_GioCircleMoveWeaponSkill@@UAEPAXI@Z ENDP		; ioCircleMoveWeaponSkill::`scalar deleting destructor'
_TEXT	ENDS
END
