; Listing generated by Microsoft (R) Optimizing Compiler Version 16.00.30319.01 

	TITLE	D:\Lost Saga For Developer\Youtube\Tutorial\Source\src\LSClient\ioCircleReserveAttackSkill.cpp
	.686P
	.XMM
	include listing.inc
	.model	flat

INCLUDELIB MSVCRT
INCLUDELIB OLDNAMES

PUBLIC	?_EEM_DS@?$deque@UD3DXVECTOR3@@V?$allocator@UD3DXVECTOR3@@@std@@@std@@2HB ; std::deque<D3DXVECTOR3,std::allocator<D3DXVECTOR3> >::_EEM_DS
;	COMDAT ?_EEM_DS@?$deque@UD3DXVECTOR3@@V?$allocator@UD3DXVECTOR3@@@std@@@std@@2HB
CONST	SEGMENT
?_EEM_DS@?$deque@UD3DXVECTOR3@@V?$allocator@UD3DXVECTOR3@@@std@@@std@@2HB DD 01H ; std::deque<D3DXVECTOR3,std::allocator<D3DXVECTOR3> >::_EEM_DS
CONST	ENDS
PUBLIC	_sqrtf
EXTRN	__fltused:DWORD
EXTRN	__CIsqrt:PROC
; Function compile flags: /Ogsp
; File c:\program files (x86)\microsoft visual studio 10.0\vc\include\math.h
;	COMDAT _sqrtf
_TEXT	SEGMENT
tv69 = 8						; size = 4
__X$ = 8						; size = 4
_sqrtf	PROC						; COMDAT

; 434  :         {return ((float)sqrt((double)_X)); }

  00000	55		 push	 ebp
  00001	8b ec		 mov	 ebp, esp
  00003	d9 45 08	 fld	 DWORD PTR __X$[ebp]
  00006	e8 00 00 00 00	 call	 __CIsqrt
  0000b	d9 5d 08	 fstp	 DWORD PTR tv69[ebp]
  0000e	d9 45 08	 fld	 DWORD PTR tv69[ebp]
  00011	5d		 pop	 ebp
  00012	c3		 ret	 0
_sqrtf	ENDP
_TEXT	ENDS
PUBLIC	?GetCirclePos@ioZeusItem@@QAEABUD3DXVECTOR3@@XZ	; ioZeusItem::GetCirclePos
; Function compile flags: /Ogsp
; File d:\lost saga for developer\youtube\tutorial\source\src\lsclient\iozeusitem.h
;	COMDAT ?GetCirclePos@ioZeusItem@@QAEABUD3DXVECTOR3@@XZ
_TEXT	SEGMENT
?GetCirclePos@ioZeusItem@@QAEABUD3DXVECTOR3@@XZ PROC	; ioZeusItem::GetCirclePos, COMDAT
; _this$ = ecx

; 107  : 	const D3DXVECTOR3& GetCirclePos() { return m_vCirclePos; }

  00000	8d 81 c8 1a 00
	00		 lea	 eax, DWORD PTR [ecx+6856]
  00006	c3		 ret	 0
?GetCirclePos@ioZeusItem@@QAEABUD3DXVECTOR3@@XZ ENDP	; ioZeusItem::GetCirclePos
_TEXT	ENDS
PUBLIC	?GetCircleDefaultOffset@ioZeusItem@@QAEABMXZ	; ioZeusItem::GetCircleDefaultOffset
; Function compile flags: /Ogsp
;	COMDAT ?GetCircleDefaultOffset@ioZeusItem@@QAEABMXZ
_TEXT	SEGMENT
?GetCircleDefaultOffset@ioZeusItem@@QAEABMXZ PROC	; ioZeusItem::GetCircleDefaultOffset, COMDAT
; _this$ = ecx

; 108  : 	const float&	   GetCircleDefaultOffset() { return m_fCircleOffset; }

  00000	8d 81 d4 1a 00
	00		 lea	 eax, DWORD PTR [ecx+6868]
  00006	c3		 ret	 0
?GetCircleDefaultOffset@ioZeusItem@@QAEABMXZ ENDP	; ioZeusItem::GetCircleDefaultOffset
_TEXT	ENDS
PUBLIC	??0D3DXVECTOR3@@QAE@XZ				; D3DXVECTOR3::D3DXVECTOR3
; Function compile flags: /Ogsp
; File c:\program files (x86)\microsoft directx sdk (june 2010)\include\d3dx9math.h
;	COMDAT ??0D3DXVECTOR3@@QAE@XZ
_TEXT	SEGMENT
??0D3DXVECTOR3@@QAE@XZ PROC				; D3DXVECTOR3::D3DXVECTOR3, COMDAT
; _this$ = ecx

; 165  :     D3DXVECTOR3() {};

  00000	8b c1		 mov	 eax, ecx
  00002	c3		 ret	 0
??0D3DXVECTOR3@@QAE@XZ ENDP				; D3DXVECTOR3::D3DXVECTOR3
_TEXT	ENDS
PUBLIC	??0D3DXVECTOR3@@QAE@MMM@Z			; D3DXVECTOR3::D3DXVECTOR3
; Function compile flags: /Ogsp
; File c:\program files (x86)\microsoft directx sdk (june 2010)\include\d3dx9math.inl
;	COMDAT ??0D3DXVECTOR3@@QAE@MMM@Z
_TEXT	SEGMENT
_fx$ = 8						; size = 4
_fy$ = 12						; size = 4
_fz$ = 16						; size = 4
??0D3DXVECTOR3@@QAE@MMM@Z PROC				; D3DXVECTOR3::D3DXVECTOR3, COMDAT
; _this$ = ecx

; 303  : {

  00000	55		 push	 ebp
  00001	8b ec		 mov	 ebp, esp

; 304  :     x = fx;

  00003	f3 0f 10 45 08	 movss	 xmm0, DWORD PTR _fx$[ebp]
  00008	8b c1		 mov	 eax, ecx
  0000a	f3 0f 11 00	 movss	 DWORD PTR [eax], xmm0

; 305  :     y = fy;

  0000e	f3 0f 10 45 0c	 movss	 xmm0, DWORD PTR _fy$[ebp]
  00013	f3 0f 11 40 04	 movss	 DWORD PTR [eax+4], xmm0

; 306  :     z = fz;

  00018	f3 0f 10 45 10	 movss	 xmm0, DWORD PTR _fz$[ebp]
  0001d	f3 0f 11 40 08	 movss	 DWORD PTR [eax+8], xmm0

; 307  : }

  00022	5d		 pop	 ebp
  00023	c2 0c 00	 ret	 12			; 0000000cH
??0D3DXVECTOR3@@QAE@MMM@Z ENDP				; D3DXVECTOR3::D3DXVECTOR3
_TEXT	ENDS
PUBLIC	??YD3DXVECTOR3@@QAEAAU0@ABU0@@Z			; D3DXVECTOR3::operator+=
; Function compile flags: /Ogsp
;	COMDAT ??YD3DXVECTOR3@@QAEAAU0@ABU0@@Z
_TEXT	SEGMENT
_v$ = 8							; size = 4
??YD3DXVECTOR3@@QAEAAU0@ABU0@@Z PROC			; D3DXVECTOR3::operator+=, COMDAT
; _this$ = ecx

; 327  : {

  00000	55		 push	 ebp
  00001	8b ec		 mov	 ebp, esp
  00003	8b c1		 mov	 eax, ecx

; 328  :     x += v.x;

  00005	8b 4d 08	 mov	 ecx, DWORD PTR _v$[ebp]
  00008	f3 0f 10 01	 movss	 xmm0, DWORD PTR [ecx]
  0000c	f3 0f 10 08	 movss	 xmm1, DWORD PTR [eax]
  00010	0f 5a c0	 cvtps2pd xmm0, xmm0
  00013	0f 5a c9	 cvtps2pd xmm1, xmm1
  00016	f2 0f 58 c1	 addsd	 xmm0, xmm1

; 329  :     y += v.y;

  0001a	f3 0f 10 48 04	 movss	 xmm1, DWORD PTR [eax+4]
  0001f	66 0f 5a c0	 cvtpd2ps xmm0, xmm0
  00023	f3 0f 11 00	 movss	 DWORD PTR [eax], xmm0
  00027	f3 0f 10 41 04	 movss	 xmm0, DWORD PTR [ecx+4]
  0002c	0f 5a c0	 cvtps2pd xmm0, xmm0
  0002f	0f 5a c9	 cvtps2pd xmm1, xmm1
  00032	f2 0f 58 c1	 addsd	 xmm0, xmm1

; 330  :     z += v.z;

  00036	f3 0f 10 48 08	 movss	 xmm1, DWORD PTR [eax+8]
  0003b	66 0f 5a c0	 cvtpd2ps xmm0, xmm0
  0003f	f3 0f 11 40 04	 movss	 DWORD PTR [eax+4], xmm0
  00044	f3 0f 10 41 08	 movss	 xmm0, DWORD PTR [ecx+8]
  00049	0f 5a c0	 cvtps2pd xmm0, xmm0
  0004c	0f 5a c9	 cvtps2pd xmm1, xmm1
  0004f	f2 0f 58 c1	 addsd	 xmm0, xmm1
  00053	66 0f 5a c0	 cvtpd2ps xmm0, xmm0
  00057	f3 0f 11 40 08	 movss	 DWORD PTR [eax+8], xmm0

; 331  :     return *this;
; 332  : }

  0005c	5d		 pop	 ebp
  0005d	c2 04 00	 ret	 4
??YD3DXVECTOR3@@QAEAAU0@ABU0@@Z ENDP			; D3DXVECTOR3::operator+=
_TEXT	ENDS
PUBLIC	??HD3DXVECTOR3@@QBE?AU0@ABU0@@Z			; D3DXVECTOR3::operator+
; Function compile flags: /Ogsp
;	COMDAT ??HD3DXVECTOR3@@QBE?AU0@ABU0@@Z
_TEXT	SEGMENT
___$ReturnUdt$ = 8					; size = 4
_v$ = 12						; size = 4
??HD3DXVECTOR3@@QBE?AU0@ABU0@@Z PROC			; D3DXVECTOR3::operator+, COMDAT
; _this$ = ecx

; 380  : {

  00000	55		 push	 ebp
  00001	8b ec		 mov	 ebp, esp

; 381  :     return D3DXVECTOR3(x + v.x, y + v.y, z + v.z);

  00003	8b 55 0c	 mov	 edx, DWORD PTR _v$[ebp]
  00006	f3 0f 10 02	 movss	 xmm0, DWORD PTR [edx]
  0000a	f3 0f 10 09	 movss	 xmm1, DWORD PTR [ecx]
  0000e	8b 45 08	 mov	 eax, DWORD PTR ___$ReturnUdt$[ebp]
  00011	0f 5a c0	 cvtps2pd xmm0, xmm0
  00014	0f 5a c9	 cvtps2pd xmm1, xmm1
  00017	f2 0f 58 c1	 addsd	 xmm0, xmm1
  0001b	f3 0f 10 49 04	 movss	 xmm1, DWORD PTR [ecx+4]
  00020	66 0f 5a c0	 cvtpd2ps xmm0, xmm0
  00024	f3 0f 11 00	 movss	 DWORD PTR [eax], xmm0
  00028	f3 0f 10 42 04	 movss	 xmm0, DWORD PTR [edx+4]
  0002d	0f 5a c0	 cvtps2pd xmm0, xmm0
  00030	0f 5a c9	 cvtps2pd xmm1, xmm1
  00033	f2 0f 58 c1	 addsd	 xmm0, xmm1
  00037	f3 0f 10 49 08	 movss	 xmm1, DWORD PTR [ecx+8]
  0003c	66 0f 5a c0	 cvtpd2ps xmm0, xmm0
  00040	f3 0f 11 40 04	 movss	 DWORD PTR [eax+4], xmm0
  00045	f3 0f 10 42 08	 movss	 xmm0, DWORD PTR [edx+8]
  0004a	0f 5a c0	 cvtps2pd xmm0, xmm0
  0004d	0f 5a c9	 cvtps2pd xmm1, xmm1
  00050	f2 0f 58 c1	 addsd	 xmm0, xmm1
  00054	66 0f 5a c0	 cvtpd2ps xmm0, xmm0
  00058	f3 0f 11 40 08	 movss	 DWORD PTR [eax+8], xmm0

; 382  : }

  0005d	5d		 pop	 ebp
  0005e	c2 08 00	 ret	 8
??HD3DXVECTOR3@@QBE?AU0@ABU0@@Z ENDP			; D3DXVECTOR3::operator+
_TEXT	ENDS
PUBLIC	??GD3DXVECTOR3@@QBE?AU0@ABU0@@Z			; D3DXVECTOR3::operator-
; Function compile flags: /Ogsp
;	COMDAT ??GD3DXVECTOR3@@QBE?AU0@ABU0@@Z
_TEXT	SEGMENT
___$ReturnUdt$ = 8					; size = 4
_v$ = 12						; size = 4
??GD3DXVECTOR3@@QBE?AU0@ABU0@@Z PROC			; D3DXVECTOR3::operator-, COMDAT
; _this$ = ecx

; 386  : {

  00000	55		 push	 ebp
  00001	8b ec		 mov	 ebp, esp

; 387  :     return D3DXVECTOR3(x - v.x, y - v.y, z - v.z);

  00003	8b 55 0c	 mov	 edx, DWORD PTR _v$[ebp]
  00006	f3 0f 10 01	 movss	 xmm0, DWORD PTR [ecx]
  0000a	f3 0f 10 0a	 movss	 xmm1, DWORD PTR [edx]
  0000e	8b 45 08	 mov	 eax, DWORD PTR ___$ReturnUdt$[ebp]
  00011	0f 5a c0	 cvtps2pd xmm0, xmm0
  00014	0f 5a c9	 cvtps2pd xmm1, xmm1
  00017	f2 0f 5c c1	 subsd	 xmm0, xmm1
  0001b	f3 0f 10 4a 04	 movss	 xmm1, DWORD PTR [edx+4]
  00020	66 0f 5a c0	 cvtpd2ps xmm0, xmm0
  00024	f3 0f 11 00	 movss	 DWORD PTR [eax], xmm0
  00028	f3 0f 10 41 04	 movss	 xmm0, DWORD PTR [ecx+4]
  0002d	0f 5a c0	 cvtps2pd xmm0, xmm0
  00030	0f 5a c9	 cvtps2pd xmm1, xmm1
  00033	f2 0f 5c c1	 subsd	 xmm0, xmm1
  00037	f3 0f 10 4a 08	 movss	 xmm1, DWORD PTR [edx+8]
  0003c	66 0f 5a c0	 cvtpd2ps xmm0, xmm0
  00040	f3 0f 11 40 04	 movss	 DWORD PTR [eax+4], xmm0
  00045	f3 0f 10 41 08	 movss	 xmm0, DWORD PTR [ecx+8]
  0004a	0f 5a c0	 cvtps2pd xmm0, xmm0
  0004d	0f 5a c9	 cvtps2pd xmm1, xmm1
  00050	f2 0f 5c c1	 subsd	 xmm0, xmm1
  00054	66 0f 5a c0	 cvtpd2ps xmm0, xmm0
  00058	f3 0f 11 40 08	 movss	 DWORD PTR [eax+8], xmm0

; 388  : }

  0005d	5d		 pop	 ebp
  0005e	c2 08 00	 ret	 8
??GD3DXVECTOR3@@QBE?AU0@ABU0@@Z ENDP			; D3DXVECTOR3::operator-
_TEXT	ENDS
PUBLIC	??DD3DXVECTOR3@@QBE?AU0@M@Z			; D3DXVECTOR3::operator*
; Function compile flags: /Ogsp
;	COMDAT ??DD3DXVECTOR3@@QBE?AU0@M@Z
_TEXT	SEGMENT
___$ReturnUdt$ = 8					; size = 4
_f$ = 12						; size = 4
??DD3DXVECTOR3@@QBE?AU0@M@Z PROC			; D3DXVECTOR3::operator*, COMDAT
; _this$ = ecx

; 392  : {

  00000	55		 push	 ebp
  00001	8b ec		 mov	 ebp, esp

; 393  :     return D3DXVECTOR3(x * f, y * f, z * f);

  00003	f3 0f 10 4d 0c	 movss	 xmm1, DWORD PTR _f$[ebp]
  00008	f3 0f 10 01	 movss	 xmm0, DWORD PTR [ecx]
  0000c	8b 45 08	 mov	 eax, DWORD PTR ___$ReturnUdt$[ebp]
  0000f	0f 5a c0	 cvtps2pd xmm0, xmm0
  00012	0f 5a c9	 cvtps2pd xmm1, xmm1
  00015	f2 0f 59 c1	 mulsd	 xmm0, xmm1
  00019	f3 0f 10 4d 0c	 movss	 xmm1, DWORD PTR _f$[ebp]
  0001e	66 0f 5a c0	 cvtpd2ps xmm0, xmm0
  00022	f3 0f 11 00	 movss	 DWORD PTR [eax], xmm0
  00026	f3 0f 10 41 04	 movss	 xmm0, DWORD PTR [ecx+4]
  0002b	0f 5a c0	 cvtps2pd xmm0, xmm0
  0002e	0f 5a c9	 cvtps2pd xmm1, xmm1
  00031	f2 0f 59 c1	 mulsd	 xmm0, xmm1
  00035	f3 0f 10 4d 0c	 movss	 xmm1, DWORD PTR _f$[ebp]
  0003a	66 0f 5a c0	 cvtpd2ps xmm0, xmm0
  0003e	f3 0f 11 40 04	 movss	 DWORD PTR [eax+4], xmm0
  00043	f3 0f 10 41 08	 movss	 xmm0, DWORD PTR [ecx+8]
  00048	0f 5a c0	 cvtps2pd xmm0, xmm0
  0004b	0f 5a c9	 cvtps2pd xmm1, xmm1
  0004e	f2 0f 59 c1	 mulsd	 xmm0, xmm1
  00052	66 0f 5a c0	 cvtpd2ps xmm0, xmm0
  00056	f3 0f 11 40 08	 movss	 DWORD PTR [eax+8], xmm0

; 394  : }

  0005b	5d		 pop	 ebp
  0005c	c2 08 00	 ret	 8
??DD3DXVECTOR3@@QBE?AU0@M@Z ENDP			; D3DXVECTOR3::operator*
_TEXT	ENDS
PUBLIC	??8D3DXVECTOR3@@QBEHABU0@@Z			; D3DXVECTOR3::operator==
; Function compile flags: /Ogsp
;	COMDAT ??8D3DXVECTOR3@@QBEHABU0@@Z
_TEXT	SEGMENT
_v$ = 8							; size = 4
??8D3DXVECTOR3@@QBEHABU0@@Z PROC			; D3DXVECTOR3::operator==, COMDAT
; _this$ = ecx

; 413  : {

  00000	55		 push	 ebp
  00001	8b ec		 mov	 ebp, esp

; 414  :     return x == v.x && y == v.y && z == v.z;

  00003	8b 55 08	 mov	 edx, DWORD PTR _v$[ebp]
  00006	f3 0f 10 01	 movss	 xmm0, DWORD PTR [ecx]
  0000a	f3 0f 10 0a	 movss	 xmm1, DWORD PTR [edx]
  0000e	0f 5a c0	 cvtps2pd xmm0, xmm0
  00011	0f 5a c9	 cvtps2pd xmm1, xmm1
  00014	66 0f 2e c1	 ucomisd xmm0, xmm1
  00018	9f		 lahf
  00019	f6 c4 44	 test	 ah, 68			; 00000044H
  0001c	7a 39		 jp	 SHORT $LN3@operator
  0001e	f3 0f 10 41 04	 movss	 xmm0, DWORD PTR [ecx+4]
  00023	f3 0f 10 4a 04	 movss	 xmm1, DWORD PTR [edx+4]
  00028	0f 5a c0	 cvtps2pd xmm0, xmm0
  0002b	0f 5a c9	 cvtps2pd xmm1, xmm1
  0002e	66 0f 2e c1	 ucomisd xmm0, xmm1
  00032	9f		 lahf
  00033	f6 c4 44	 test	 ah, 68			; 00000044H
  00036	7a 1f		 jp	 SHORT $LN3@operator
  00038	f3 0f 10 41 08	 movss	 xmm0, DWORD PTR [ecx+8]
  0003d	f3 0f 10 4a 08	 movss	 xmm1, DWORD PTR [edx+8]
  00042	0f 5a c0	 cvtps2pd xmm0, xmm0
  00045	0f 5a c9	 cvtps2pd xmm1, xmm1
  00048	66 0f 2e c1	 ucomisd xmm0, xmm1
  0004c	9f		 lahf
  0004d	f6 c4 44	 test	 ah, 68			; 00000044H
  00050	7a 05		 jp	 SHORT $LN3@operator
  00052	33 c0		 xor	 eax, eax
  00054	40		 inc	 eax
  00055	eb 02		 jmp	 SHORT $LN4@operator
$LN3@operator:
  00057	33 c0		 xor	 eax, eax
$LN4@operator:

; 415  : }

  00059	5d		 pop	 ebp
  0005a	c2 04 00	 ret	 4
??8D3DXVECTOR3@@QBEHABU0@@Z ENDP			; D3DXVECTOR3::operator==
_TEXT	ENDS
PUBLIC	?GetCharName@ioBaseChar@@QBEABVioHashString@@XZ	; ioBaseChar::GetCharName
; Function compile flags: /Ogsp
; File d:\lost saga for developer\youtube\tutorial\source\src\lsclient\iobasechar.h
;	COMDAT ?GetCharName@ioBaseChar@@QBEABVioHashString@@XZ
_TEXT	SEGMENT
?GetCharName@ioBaseChar@@QBEABVioHashString@@XZ PROC	; ioBaseChar::GetCharName, COMDAT
; _this$ = ecx

; 2594 : 	inline const ioHashString& GetCharName() const { return m_Name; }

  00000	8d 81 d4 02 00
	00		 lea	 eax, DWORD PTR [ecx+724]
  00006	c3		 ret	 0
?GetCharName@ioBaseChar@@QBEABVioHashString@@XZ ENDP	; ioBaseChar::GetCharName
_TEXT	ENDS
PUBLIC	?GetTargetRot@ioBaseChar@@QBEABUD3DXQUATERNION@@XZ ; ioBaseChar::GetTargetRot
; Function compile flags: /Ogsp
;	COMDAT ?GetTargetRot@ioBaseChar@@QBEABUD3DXQUATERNION@@XZ
_TEXT	SEGMENT
?GetTargetRot@ioBaseChar@@QBEABUD3DXQUATERNION@@XZ PROC	; ioBaseChar::GetTargetRot, COMDAT
; _this$ = ecx

; 2599 : 	inline const D3DXQUATERNION& GetTargetRot() const { return m_qtTargetRot; }

  00000	8d 81 a4 06 00
	00		 lea	 eax, DWORD PTR [ecx+1700]
  00006	c3		 ret	 0
?GetTargetRot@ioBaseChar@@QBEABUD3DXQUATERNION@@XZ ENDP	; ioBaseChar::GetTargetRot
_TEXT	ENDS
PUBLIC	?ClearData@ioCircleReserveAttackSkill@@IAEXXZ	; ioCircleReserveAttackSkill::ClearData
EXTRN	__imp_?VEC3_ZERO@ioMath@@2UD3DXVECTOR3@@A:BYTE
; Function compile flags: /Ogsp
; File d:\lost saga for developer\youtube\tutorial\source\src\lsclient\iocirclereserveattackskill.cpp
;	COMDAT ?ClearData@ioCircleReserveAttackSkill@@IAEXXZ
_TEXT	SEGMENT
?ClearData@ioCircleReserveAttackSkill@@IAEXXZ PROC	; ioCircleReserveAttackSkill::ClearData, COMDAT
; _this$ = ecx

; 31   : 	m_dwReserveWeaponFireStartTime = 0;

  00000	83 a1 00 11 00
	00 00		 and	 DWORD PTR [ecx+4352], 0
  00007	56		 push	 esi

; 32   : 	m_vCirclePos = ioMath::VEC3_ZERO;

  00008	8b 35 00 00 00
	00		 mov	 esi, DWORD PTR __imp_?VEC3_ZERO@ioMath@@2UD3DXVECTOR3@@A
  0000e	57		 push	 edi
  0000f	8d b9 e4 10 00
	00		 lea	 edi, DWORD PTR [ecx+4324]
  00015	a5		 movsd
  00016	a5		 movsd
  00017	a5		 movsd

; 33   : 	m_vMoveDir = ioMath::VEC3_ZERO;

  00018	8b 35 00 00 00
	00		 mov	 esi, DWORD PTR __imp_?VEC3_ZERO@ioMath@@2UD3DXVECTOR3@@A
  0001e	8d b9 f0 10 00
	00		 lea	 edi, DWORD PTR [ecx+4336]
  00024	a5		 movsd
  00025	a5		 movsd
  00026	a5		 movsd
  00027	5f		 pop	 edi
  00028	5e		 pop	 esi

; 34   : }

  00029	c3		 ret	 0
?ClearData@ioCircleReserveAttackSkill@@IAEXXZ ENDP	; ioCircleReserveAttackSkill::ClearData
_TEXT	ENDS
PUBLIC	?D3DXVec3Length@@YAMPBUD3DXVECTOR3@@@Z		; D3DXVec3Length
; Function compile flags: /Ogsp
; File c:\program files (x86)\microsoft directx sdk (june 2010)\include\d3dx9math.inl
;	COMDAT ?D3DXVec3Length@@YAMPBUD3DXVECTOR3@@@Z
_TEXT	SEGMENT
tv169 = 8						; size = 4
tv160 = 8						; size = 4
_pV$ = 8						; size = 4
?D3DXVec3Length@@YAMPBUD3DXVECTOR3@@@Z PROC		; D3DXVec3Length, COMDAT

; 1710 : {

  00000	55		 push	 ebp
  00001	8b ec		 mov	 ebp, esp

; 1711 : #ifdef D3DX_DEBUG
; 1712 :     if(!pV)
; 1713 :         return 0.0f;
; 1714 : #endif
; 1715 : 
; 1716 : #ifdef __cplusplus
; 1717 :     return sqrtf(pV->x * pV->x + pV->y * pV->y + pV->z * pV->z);

  00003	8b 45 08	 mov	 eax, DWORD PTR _pV$[ebp]
  00006	d9 40 04	 fld	 DWORD PTR [eax+4]
  00009	d9 00		 fld	 DWORD PTR [eax]
  0000b	d9 40 08	 fld	 DWORD PTR [eax+8]
  0000e	d9 c1		 fld	 ST(1)
  00010	de ca		 fmulp	 ST(2), ST(0)
  00012	d9 c2		 fld	 ST(2)
  00014	de cb		 fmulp	 ST(3), ST(0)
  00016	d9 c9		 fxch	 ST(1)
  00018	de c2		 faddp	 ST(2), ST(0)
  0001a	d9 c0		 fld	 ST(0)
  0001c	de c9		 fmulp	 ST(1), ST(0)
  0001e	de c1		 faddp	 ST(1), ST(0)
  00020	d9 5d 08	 fstp	 DWORD PTR tv169[ebp]
  00023	d9 45 08	 fld	 DWORD PTR tv169[ebp]
  00026	e8 00 00 00 00	 call	 __CIsqrt
  0002b	d9 5d 08	 fstp	 DWORD PTR tv160[ebp]
  0002e	d9 45 08	 fld	 DWORD PTR tv160[ebp]

; 1718 : #else
; 1719 :     return (FLOAT) sqrt(pV->x * pV->x + pV->y * pV->y + pV->z * pV->z);
; 1720 : #endif
; 1721 : }

  00031	5d		 pop	 ebp
  00032	c3		 ret	 0
?D3DXVec3Length@@YAMPBUD3DXVECTOR3@@@Z ENDP		; D3DXVec3Length
_TEXT	ENDS
PUBLIC	?ApplyAttributeToWeapon@ioCircleReserveAttackSkill@@UAEXPAVioWeapon@@PAVioPlayStage@@@Z ; ioCircleReserveAttackSkill::ApplyAttributeToWeapon
EXTRN	?ApplyAttributeToWeapon@ioSkill@@UAEXPAVioWeapon@@PAVioPlayStage@@@Z:PROC ; ioSkill::ApplyAttributeToWeapon
; Function compile flags: /Ogsp
; File d:\lost saga for developer\youtube\tutorial\source\src\lsclient\iocirclereserveattackskill.cpp
;	COMDAT ?ApplyAttributeToWeapon@ioCircleReserveAttackSkill@@UAEXPAVioWeapon@@PAVioPlayStage@@@Z
_TEXT	SEGMENT
_pWeapon$ = 8						; size = 4
_pStage$ = 12						; size = 4
?ApplyAttributeToWeapon@ioCircleReserveAttackSkill@@UAEXPAVioWeapon@@PAVioPlayStage@@@Z PROC ; ioCircleReserveAttackSkill::ApplyAttributeToWeapon, COMDAT
; _this$ = ecx

; 211  : {

  00000	55		 push	 ebp
  00001	8b ec		 mov	 ebp, esp

; 213  : }

  00003	5d		 pop	 ebp

; 212  : 	ioAttackSkill::ApplyAttributeToWeapon( pWeapon, pStage );

  00004	e9 00 00 00 00	 jmp	 ?ApplyAttributeToWeapon@ioSkill@@UAEXPAVioWeapon@@PAVioPlayStage@@@Z ; ioSkill::ApplyAttributeToWeapon
?ApplyAttributeToWeapon@ioCircleReserveAttackSkill@@UAEXPAVioWeapon@@PAVioPlayStage@@@Z ENDP ; ioCircleReserveAttackSkill::ApplyAttributeToWeapon
_TEXT	ENDS
PUBLIC	?ApplyExtraSkillInfo@ioCircleReserveAttackSkill@@UAEXPAVioBaseChar@@PAVioPlayStage@@AAVSP2Packet@@@Z ; ioCircleReserveAttackSkill::ApplyExtraSkillInfo
EXTRN	??5SP2Packet@@QAEAAV0@AAUD3DXVECTOR3@@@Z:PROC	; SP2Packet::operator>>
EXTRN	??5SP2Packet@@QAEAAV0@AAH@Z:PROC		; SP2Packet::operator>>
; Function compile flags: /Ogsp
;	COMDAT ?ApplyExtraSkillInfo@ioCircleReserveAttackSkill@@UAEXPAVioBaseChar@@PAVioPlayStage@@AAVSP2Packet@@@Z
_TEXT	SEGMENT
_iType$ = 8						; size = 4
_pChar$ = 8						; size = 4
_pStage$ = 12						; size = 4
_rkPacket$ = 16						; size = 4
?ApplyExtraSkillInfo@ioCircleReserveAttackSkill@@UAEXPAVioBaseChar@@PAVioPlayStage@@AAVSP2Packet@@@Z PROC ; ioCircleReserveAttackSkill::ApplyExtraSkillInfo, COMDAT
; _this$ = ecx

; 216  : {

  00000	55		 push	 ebp
  00001	8b ec		 mov	 ebp, esp

; 217  : 	if ( !pChar || !pStage )

  00003	83 7d 08 00	 cmp	 DWORD PTR _pChar$[ebp], 0
  00007	56		 push	 esi
  00008	8b f1		 mov	 esi, ecx
  0000a	74 27		 je	 SHORT $LN2@ApplyExtra
  0000c	83 7d 0c 00	 cmp	 DWORD PTR _pStage$[ebp], 0
  00010	74 21		 je	 SHORT $LN2@ApplyExtra

; 218  : 		return;
; 219  : 	int iType;
; 220  : 	rkPacket >> iType;

  00012	8b 4d 10	 mov	 ecx, DWORD PTR _rkPacket$[ebp]
  00015	8d 45 08	 lea	 eax, DWORD PTR _iType$[ebp]
  00018	50		 push	 eax
  00019	e8 00 00 00 00	 call	 ??5SP2Packet@@QAEAAV0@AAH@Z ; SP2Packet::operator>>

; 221  : 	if ( iType == SST_WEAPON_RESERVE )

  0001e	83 7d 08 00	 cmp	 DWORD PTR _iType$[ebp], 0
  00022	75 0f		 jne	 SHORT $LN2@ApplyExtra

; 222  : 		rkPacket >> m_vCirclePos;

  00024	8b 4d 10	 mov	 ecx, DWORD PTR _rkPacket$[ebp]
  00027	81 c6 e4 10 00
	00		 add	 esi, 4324		; 000010e4H
  0002d	56		 push	 esi
  0002e	e8 00 00 00 00	 call	 ??5SP2Packet@@QAEAAV0@AAUD3DXVECTOR3@@@Z ; SP2Packet::operator>>
$LN2@ApplyExtra:
  00033	5e		 pop	 esi

; 223  : }

  00034	5d		 pop	 ebp
  00035	c2 0c 00	 ret	 12			; 0000000cH
?ApplyExtraSkillInfo@ioCircleReserveAttackSkill@@UAEXPAVioBaseChar@@PAVioPlayStage@@AAVSP2Packet@@@Z ENDP ; ioCircleReserveAttackSkill::ApplyExtraSkillInfo
_TEXT	ENDS
PUBLIC	_pStage$GSCopy$
PUBLIC	_this$GSCopy$
PUBLIC	__$ArrayPad$
PUBLIC	?CreateMapEffect@ioCircleReserveAttackSkill@@IAEXPAVioBaseChar@@PAVioPlayStage@@@Z ; ioCircleReserveAttackSkill::CreateMapEffect
EXTRN	?SetWorldOrientation@ioMapEffect@@QAEXABUD3DXQUATERNION@@@Z:PROC ; ioMapEffect::SetWorldOrientation
EXTRN	?CreateMapEffect@ioPlayStage@@QAEPAVioMapEffect@@ABVioHashString@@ABUD3DXVECTOR3@@1@Z:PROC ; ioPlayStage::CreateMapEffect
EXTRN	?GetBottomHeight@ioGameEntity@@QBEMXZ:PROC	; ioGameEntity::GetBottomHeight
EXTRN	___security_cookie:DWORD
EXTRN	@__security_check_cookie@4:PROC
; Function compile flags: /Ogsp
;	COMDAT ?CreateMapEffect@ioCircleReserveAttackSkill@@IAEXPAVioBaseChar@@PAVioPlayStage@@@Z
_TEXT	SEGMENT
_this$GSCopy$ = -24					; size = 4
_pStage$GSCopy$ = -20					; size = 4
_vPos$ = -16						; size = 12
__$ArrayPad$ = -4					; size = 4
_pChar$ = 8						; size = 4
_pStage$ = 12						; size = 4
?CreateMapEffect@ioCircleReserveAttackSkill@@IAEXPAVioBaseChar@@PAVioPlayStage@@@Z PROC ; ioCircleReserveAttackSkill::CreateMapEffect, COMDAT
; _this$ = ecx

; 277  : {

  00000	55		 push	 ebp
  00001	8b ec		 mov	 ebp, esp
  00003	83 ec 18	 sub	 esp, 24			; 00000018H
  00006	a1 00 00 00 00	 mov	 eax, DWORD PTR ___security_cookie
  0000b	33 c5		 xor	 eax, ebp
  0000d	89 45 fc	 mov	 DWORD PTR __$ArrayPad$[ebp], eax
  00010	8b 45 0c	 mov	 eax, DWORD PTR _pStage$[ebp]
  00013	53		 push	 ebx
  00014	8b 5d 08	 mov	 ebx, DWORD PTR _pChar$[ebp]
  00017	89 4d e8	 mov	 DWORD PTR _this$GSCopy$[ebp], ecx

; 285  : 		pMapEffect->SetWorldOrientation( pChar->GetWorldOrientation() );

  0001a	89 45 ec	 mov	 DWORD PTR _pStage$GSCopy$[ebp], eax
  0001d	85 db		 test	 ebx, ebx
  0001f	74 53		 je	 SHORT $LN2@CreateMapE

; 278  : 	if ( !pChar || !pStage )

  00021	85 c0		 test	 eax, eax
  00023	74 4f		 je	 SHORT $LN2@CreateMapE

; 279  : 		return;
; 280  : 
; 281  : 	D3DXVECTOR3 vPos = pChar->GetWorldPosition();

  00025	8b 03		 mov	 eax, DWORD PTR [ebx]
  00027	56		 push	 esi
  00028	57		 push	 edi
  00029	8b cb		 mov	 ecx, ebx
  0002b	ff 50 70	 call	 DWORD PTR [eax+112]
  0002e	8b f0		 mov	 esi, eax
  00030	8d 7d f0	 lea	 edi, DWORD PTR _vPos$[ebp]
  00033	a5		 movsd
  00034	a5		 movsd

; 282  : 	vPos.y = pChar->GetBottomHeight();

  00035	8b cb		 mov	 ecx, ebx
  00037	a5		 movsd
  00038	e8 00 00 00 00	 call	 ?GetBottomHeight@ioGameEntity@@QBEMXZ ; ioGameEntity::GetBottomHeight

; 283  : 	ioMapEffect *pMapEffect = pStage->CreateMapEffect( m_szFireEffect, vPos, pChar->GetWorldScale() );

  0003d	8b 03		 mov	 eax, DWORD PTR [ebx]
  0003f	8b cb		 mov	 ecx, ebx
  00041	d9 5d f4	 fstp	 DWORD PTR _vPos$[ebp+4]
  00044	ff 50 78	 call	 DWORD PTR [eax+120]
  00047	8b 4d ec	 mov	 ecx, DWORD PTR _pStage$GSCopy$[ebp]
  0004a	50		 push	 eax
  0004b	8d 45 f0	 lea	 eax, DWORD PTR _vPos$[ebp]
  0004e	50		 push	 eax
  0004f	8b 45 e8	 mov	 eax, DWORD PTR _this$GSCopy$[ebp]
  00052	05 10 11 00 00	 add	 eax, 4368		; 00001110H
  00057	50		 push	 eax
  00058	e8 00 00 00 00	 call	 ?CreateMapEffect@ioPlayStage@@QAEPAVioMapEffect@@ABVioHashString@@ABUD3DXVECTOR3@@1@Z ; ioPlayStage::CreateMapEffect
  0005d	8b f0		 mov	 esi, eax

; 284  : 	if( pMapEffect )

  0005f	85 f6		 test	 esi, esi
  00061	74 0f		 je	 SHORT $LN6@CreateMapE

; 285  : 		pMapEffect->SetWorldOrientation( pChar->GetWorldOrientation() );

  00063	8b 03		 mov	 eax, DWORD PTR [ebx]
  00065	8b cb		 mov	 ecx, ebx
  00067	ff 50 74	 call	 DWORD PTR [eax+116]
  0006a	50		 push	 eax
  0006b	8b ce		 mov	 ecx, esi
  0006d	e8 00 00 00 00	 call	 ?SetWorldOrientation@ioMapEffect@@QAEXABUD3DXQUATERNION@@@Z ; ioMapEffect::SetWorldOrientation
$LN6@CreateMapE:
  00072	5f		 pop	 edi
  00073	5e		 pop	 esi
$LN2@CreateMapE:

; 286  : }

  00074	8b 4d fc	 mov	 ecx, DWORD PTR __$ArrayPad$[ebp]
  00077	33 cd		 xor	 ecx, ebp
  00079	5b		 pop	 ebx
  0007a	e8 00 00 00 00	 call	 @__security_check_cookie@4
  0007f	c9		 leave
  00080	c2 08 00	 ret	 8
?CreateMapEffect@ioCircleReserveAttackSkill@@IAEXPAVioBaseChar@@PAVioPlayStage@@@Z ENDP ; ioCircleReserveAttackSkill::CreateMapEffect
_TEXT	ENDS
PUBLIC	??A?$vector@UWeaponInfo@@V?$allocator@UWeaponInfo@@@std@@@std@@QAEAAUWeaponInfo@@I@Z ; std::vector<WeaponInfo,std::allocator<WeaponInfo> >::operator[]
; Function compile flags: /Ogsp
; File c:\program files (x86)\microsoft visual studio 10.0\vc\include\vector
;	COMDAT ??A?$vector@UWeaponInfo@@V?$allocator@UWeaponInfo@@@std@@@std@@QAEAAUWeaponInfo@@I@Z
_TEXT	SEGMENT
__Pos$ = 8						; size = 4
??A?$vector@UWeaponInfo@@V?$allocator@UWeaponInfo@@@std@@@std@@QAEAAUWeaponInfo@@I@Z PROC ; std::vector<WeaponInfo,std::allocator<WeaponInfo> >::operator[], COMDAT
; _this$ = ecx

; 928  : 		{	// subscript mutable sequence

  00000	55		 push	 ebp
  00001	8b ec		 mov	 ebp, esp

; 929  :  #if _ITERATOR_DEBUG_LEVEL == 2
; 930  : 		if (size() <= _Pos)
; 931  : 			{	// report error
; 932  : 			_DEBUG_ERROR("vector subscript out of range");
; 933  : 			_SCL_SECURE_OUT_OF_RANGE;
; 934  : 			}
; 935  : 
; 936  :  #elif _ITERATOR_DEBUG_LEVEL == 1
; 937  : 		_SCL_SECURE_VALIDATE_RANGE(_Pos < size());
; 938  :  #endif /* _ITERATOR_DEBUG_LEVEL */
; 939  : 
; 940  : 		return (*(this->_Myfirst + _Pos));

  00003	8b 45 08	 mov	 eax, DWORD PTR __Pos$[ebp]
  00006	6b c0 28	 imul	 eax, 40			; 00000028H
  00009	03 01		 add	 eax, DWORD PTR [ecx]

; 941  : 		}

  0000b	5d		 pop	 ebp
  0000c	c2 04 00	 ret	 4
??A?$vector@UWeaponInfo@@V?$allocator@UWeaponInfo@@@std@@@std@@QAEAAUWeaponInfo@@I@Z ENDP ; std::vector<WeaponInfo,std::allocator<WeaponInfo> >::operator[]
_TEXT	ENDS
PUBLIC	?_DECSTR@@YAXPADH@Z				; _DECSTR
; Function compile flags: /Ogsp
; File d:\lost saga for developer\youtube\tutorial\source\src\lsclient\stringprotect.h
;	COMDAT ?_DECSTR@@YAXPADH@Z
_TEXT	SEGMENT
_s$ = 8							; size = 4
_l$ = 12						; size = 4
?_DECSTR@@YAXPADH@Z PROC				; _DECSTR, COMDAT

; 40   : __forceinline void _DECSTR(char* s, int l){int i=0,l4=(l-1)/4,*p=(int*)s;s[l-1]=0;for(;i<l4;++i)*(p++)^=0xEAEBECED;for(i=l4*4;i<l-1;++i)s[i]^=0xED-i%4;}

  00000	55		 push	 ebp
  00001	8b ec		 mov	 ebp, esp
  00003	8b 4d 0c	 mov	 ecx, DWORD PTR _l$[ebp]
  00006	56		 push	 esi
  00007	8b 75 08	 mov	 esi, DWORD PTR _s$[ebp]
  0000a	57		 push	 edi
  0000b	8d 79 ff	 lea	 edi, DWORD PTR [ecx-1]
  0000e	8b c7		 mov	 eax, edi
  00010	99		 cdq
  00011	83 e2 03	 and	 edx, 3
  00014	03 c2		 add	 eax, edx
  00016	c1 f8 02	 sar	 eax, 2
  00019	8b d6		 mov	 edx, esi
  0001b	c6 44 0e ff 00	 mov	 BYTE PTR [esi+ecx-1], 0
  00020	85 c0		 test	 eax, eax
  00022	7e 0e		 jle	 SHORT $LN4@DECSTR
  00024	8b c8		 mov	 ecx, eax
$LL6@DECSTR:
  00026	81 32 ed ec eb
	ea		 xor	 DWORD PTR [edx], -353637139 ; eaebecedH
  0002c	83 c2 04	 add	 edx, 4
  0002f	49		 dec	 ecx
  00030	75 f4		 jne	 SHORT $LL6@DECSTR
$LN4@DECSTR:
  00032	c1 e0 02	 shl	 eax, 2
  00035	eb 17		 jmp	 SHORT $LN14@DECSTR
$LL3@DECSTR:
  00037	8b c8		 mov	 ecx, eax
  00039	81 e1 03 00 00
	80		 and	 ecx, -2147483645	; 80000003H
  0003f	79 05		 jns	 SHORT $LN13@DECSTR
  00041	49		 dec	 ecx
  00042	83 c9 fc	 or	 ecx, -4			; fffffffcH
  00045	41		 inc	 ecx
$LN13@DECSTR:
  00046	b2 ed		 mov	 dl, -19			; ffffffedH
  00048	2a d1		 sub	 dl, cl
  0004a	30 14 30	 xor	 BYTE PTR [eax+esi], dl
  0004d	40		 inc	 eax
$LN14@DECSTR:
  0004e	3b c7		 cmp	 eax, edi
  00050	7c e5		 jl	 SHORT $LL3@DECSTR
  00052	5f		 pop	 edi
  00053	5e		 pop	 esi
  00054	5d		 pop	 ebp
  00055	c3		 ret	 0
?_DECSTR@@YAXPADH@Z ENDP				; _DECSTR
_TEXT	ENDS
PUBLIC	?GetGroup@ioGameEntity@@QBEPAVioEntityGroup@@XZ	; ioGameEntity::GetGroup
; Function compile flags: /Ogsp
; File d:\lost saga for developer\youtube\tutorial\source\src\lsclient\iogameentity.h
;	COMDAT ?GetGroup@ioGameEntity@@QBEPAVioEntityGroup@@XZ
_TEXT	SEGMENT
?GetGroup@ioGameEntity@@QBEPAVioEntityGroup@@XZ PROC	; ioGameEntity::GetGroup, COMDAT
; _this$ = ecx

; 166  : 	inline ioEntityGroup* GetGroup() const { return m_pGroup; }

  00000	8b 41 04	 mov	 eax, DWORD PTR [ecx+4]
  00003	c3		 ret	 0
?GetGroup@ioGameEntity@@QBEPAVioEntityGroup@@XZ ENDP	; ioGameEntity::GetGroup
_TEXT	ENDS
PUBLIC	??_R0?AVioItem@@@8				; ioItem `RTTI Type Descriptor'
PUBLIC	??_R0?AVioWeaponItem@@@8			; ioWeaponItem `RTTI Type Descriptor'
PUBLIC	?ToWeaponItem@@YAPAVioWeaponItem@@PAVioItem@@@Z	; ToWeaponItem
EXTRN	___RTDynamicCast:PROC
EXTRN	??_7type_info@@6B@:QWORD			; type_info::`vftable'
;	COMDAT ??_R0?AVioItem@@@8
; File d:\lost saga for developer\youtube\tutorial\source\src\lsclient\ioweaponitem.h
_DATA	SEGMENT
??_R0?AVioItem@@@8 DD FLAT:??_7type_info@@6B@		; ioItem `RTTI Type Descriptor'
	DD	00H
	DB	'.?AVioItem@@', 00H
_DATA	ENDS
;	COMDAT ??_R0?AVioWeaponItem@@@8
_DATA	SEGMENT
??_R0?AVioWeaponItem@@@8 DD FLAT:??_7type_info@@6B@	; ioWeaponItem `RTTI Type Descriptor'
	DD	00H
	DB	'.?AVioWeaponItem@@', 00H
; Function compile flags: /Ogsp
_DATA	ENDS
;	COMDAT ?ToWeaponItem@@YAPAVioWeaponItem@@PAVioItem@@@Z
_TEXT	SEGMENT
_pItem$ = 8						; size = 4
?ToWeaponItem@@YAPAVioWeaponItem@@PAVioItem@@@Z PROC	; ToWeaponItem, COMDAT

; 303  : {

  00000	55		 push	 ebp
  00001	8b ec		 mov	 ebp, esp
  00003	56		 push	 esi

; 304  : 	if( !pItem || pItem->GetType() != ioItem::IT_WEAPON )

  00004	8b 75 08	 mov	 esi, DWORD PTR _pItem$[ebp]
  00007	85 f6		 test	 esi, esi
  00009	74 25		 je	 SHORT $LN1@ToWeaponIt
  0000b	8b 06		 mov	 eax, DWORD PTR [esi]
  0000d	8b ce		 mov	 ecx, esi
  0000f	ff 50 08	 call	 DWORD PTR [eax+8]
  00012	83 f8 01	 cmp	 eax, 1
  00015	75 19		 jne	 SHORT $LN1@ToWeaponIt

; 306  : 
; 307  : 	return dynamic_cast< ioWeaponItem* >( pItem );

  00017	6a 00		 push	 0
  00019	68 00 00 00 00	 push	 OFFSET ??_R0?AVioWeaponItem@@@8
  0001e	68 00 00 00 00	 push	 OFFSET ??_R0?AVioItem@@@8
  00023	6a 00		 push	 0
  00025	56		 push	 esi
  00026	e8 00 00 00 00	 call	 ___RTDynamicCast
  0002b	83 c4 14	 add	 esp, 20			; 00000014H
  0002e	eb 02		 jmp	 SHORT $LN3@ToWeaponIt
$LN1@ToWeaponIt:

; 305  : 		return NULL;

  00030	33 c0		 xor	 eax, eax
$LN3@ToWeaponIt:
  00032	5e		 pop	 esi

; 308  : }

  00033	5d		 pop	 ebp
  00034	c3		 ret	 0
?ToWeaponItem@@YAPAVioWeaponItem@@PAVioItem@@@Z ENDP	; ToWeaponItem
_TEXT	ENDS
PUBLIC	?GetOwnerItem@ioSkill@@QBEPAVioItem@@XZ		; ioSkill::GetOwnerItem
; Function compile flags: /Ogsp
; File d:\lost saga for developer\youtube\tutorial\source\src\lsclient\ioskill.h
;	COMDAT ?GetOwnerItem@ioSkill@@QBEPAVioItem@@XZ
_TEXT	SEGMENT
?GetOwnerItem@ioSkill@@QBEPAVioItem@@XZ PROC		; ioSkill::GetOwnerItem, COMDAT
; _this$ = ecx

; 397  : 	inline ioItem *GetOwnerItem() const { return m_pOwnerItem; }

  00000	8b 81 a4 02 00
	00		 mov	 eax, DWORD PTR [ecx+676]
  00006	c3		 ret	 0
?GetOwnerItem@ioSkill@@QBEPAVioItem@@XZ ENDP		; ioSkill::GetOwnerItem
_TEXT	ENDS
PUBLIC	?GetName@ioSkill@@QBEABVioHashString@@XZ	; ioSkill::GetName
; Function compile flags: /Ogsp
;	COMDAT ?GetName@ioSkill@@QBEABVioHashString@@XZ
_TEXT	SEGMENT
?GetName@ioSkill@@QBEABVioHashString@@XZ PROC		; ioSkill::GetName, COMDAT
; _this$ = ecx

; 414  : 	inline const ioHashString& GetName() const { return m_Name; }

  00000	8d 41 24	 lea	 eax, DWORD PTR [ecx+36]
  00003	c3		 ret	 0
?GetName@ioSkill@@QBEABVioHashString@@XZ ENDP		; ioSkill::GetName
_TEXT	ENDS
PUBLIC	?size@?$vector@UWeaponInfo@@V?$allocator@UWeaponInfo@@@std@@@std@@QBEIXZ ; std::vector<WeaponInfo,std::allocator<WeaponInfo> >::size
; Function compile flags: /Ogsp
; File c:\program files (x86)\microsoft visual studio 10.0\vc\include\vector
;	COMDAT ?size@?$vector@UWeaponInfo@@V?$allocator@UWeaponInfo@@@std@@@std@@QBEIXZ
_TEXT	SEGMENT
?size@?$vector@UWeaponInfo@@V?$allocator@UWeaponInfo@@@std@@@std@@QBEIXZ PROC ; std::vector<WeaponInfo,std::allocator<WeaponInfo> >::size, COMDAT
; _this$ = ecx

; 879  : 		return (this->_Mylast - this->_Myfirst);

  00000	8b 41 04	 mov	 eax, DWORD PTR [ecx+4]
  00003	2b 01		 sub	 eax, DWORD PTR [ecx]
  00005	6a 28		 push	 40			; 00000028H
  00007	99		 cdq
  00008	59		 pop	 ecx
  00009	f7 f9		 idiv	 ecx

; 880  : 		}

  0000b	c3		 ret	 0
?size@?$vector@UWeaponInfo@@V?$allocator@UWeaponInfo@@@std@@@std@@QBEIXZ ENDP ; std::vector<WeaponInfo,std::allocator<WeaponInfo> >::size
_TEXT	ENDS
PUBLIC	??_R0?AVioZeusItem@@@8				; ioZeusItem `RTTI Type Descriptor'
PUBLIC	?ToZeusItem@@YAPAVioZeusItem@@PAVioItem@@@Z	; ToZeusItem
;	COMDAT ??_R0?AVioZeusItem@@@8
; File d:\lost saga for developer\youtube\tutorial\source\src\lsclient\iozeusitem.h
_DATA	SEGMENT
??_R0?AVioZeusItem@@@8 DD FLAT:??_7type_info@@6B@	; ioZeusItem `RTTI Type Descriptor'
	DD	00H
	DB	'.?AVioZeusItem@@', 00H
; Function compile flags: /Ogsp
_DATA	ENDS
;	COMDAT ?ToZeusItem@@YAPAVioZeusItem@@PAVioItem@@@Z
_TEXT	SEGMENT
_pItem$ = 8						; size = 4
?ToZeusItem@@YAPAVioZeusItem@@PAVioItem@@@Z PROC	; ToZeusItem, COMDAT

; 140  : {

  00000	55		 push	 ebp
  00001	8b ec		 mov	 ebp, esp

; 141  : 	ioWeaponItem *pWeapon = ToWeaponItem( pItem );

  00003	ff 75 08	 push	 DWORD PTR _pItem$[ebp]
  00006	e8 00 00 00 00	 call	 ?ToWeaponItem@@YAPAVioWeaponItem@@PAVioItem@@@Z ; ToWeaponItem
  0000b	59		 pop	 ecx

; 142  : 	if( !pWeapon || pWeapon->GetSubType() != ioWeaponItem::WST_ZEUS_ITEM )

  0000c	85 c0		 test	 eax, eax
  0000e	74 2a		 je	 SHORT $LN1@ToZeusItem
  00010	8b 10		 mov	 edx, DWORD PTR [eax]
  00012	8b c8		 mov	 ecx, eax
  00014	ff 92 f0 02 00
	00		 call	 DWORD PTR [edx+752]
  0001a	83 f8 71	 cmp	 eax, 113		; 00000071H
  0001d	75 1b		 jne	 SHORT $LN1@ToZeusItem

; 144  : 
; 145  : 	return dynamic_cast< ioZeusItem* >( pItem );

  0001f	6a 00		 push	 0
  00021	68 00 00 00 00	 push	 OFFSET ??_R0?AVioZeusItem@@@8
  00026	68 00 00 00 00	 push	 OFFSET ??_R0?AVioItem@@@8
  0002b	6a 00		 push	 0
  0002d	ff 75 08	 push	 DWORD PTR _pItem$[ebp]
  00030	e8 00 00 00 00	 call	 ___RTDynamicCast
  00035	83 c4 14	 add	 esp, 20			; 00000014H

; 146  : }

  00038	5d		 pop	 ebp
  00039	c3		 ret	 0
$LN1@ToZeusItem:

; 143  : 		return NULL;

  0003a	33 c0		 xor	 eax, eax

; 146  : }

  0003c	5d		 pop	 ebp
  0003d	c3		 ret	 0
?ToZeusItem@@YAPAVioZeusItem@@PAVioItem@@@Z ENDP	; ToZeusItem
_TEXT	ENDS
PUBLIC	??_7ioCircleReserveAttackSkill@@6B@		; ioCircleReserveAttackSkill::`vftable'
PUBLIC	??0ioCircleReserveAttackSkill@@QAE@XZ		; ioCircleReserveAttackSkill::ioCircleReserveAttackSkill
PUBLIC	??_R4ioCircleReserveAttackSkill@@6B@		; ioCircleReserveAttackSkill::`RTTI Complete Object Locator'
PUBLIC	??_R0?AVioCircleReserveAttackSkill@@@8		; ioCircleReserveAttackSkill `RTTI Type Descriptor'
PUBLIC	??_R3ioCircleReserveAttackSkill@@8		; ioCircleReserveAttackSkill::`RTTI Class Hierarchy Descriptor'
PUBLIC	??_R2ioCircleReserveAttackSkill@@8		; ioCircleReserveAttackSkill::`RTTI Base Class Array'
PUBLIC	??_R1A@?0A@EA@ioCircleReserveAttackSkill@@8	; ioCircleReserveAttackSkill::`RTTI Base Class Descriptor at (0,-1,0,64)'
PUBLIC	??_R1A@?0A@EA@ioAttackSkill@@8			; ioAttackSkill::`RTTI Base Class Descriptor at (0,-1,0,64)'
PUBLIC	??_R0?AVioAttackSkill@@@8			; ioAttackSkill `RTTI Type Descriptor'
PUBLIC	??_R3ioAttackSkill@@8				; ioAttackSkill::`RTTI Class Hierarchy Descriptor'
PUBLIC	??_R2ioAttackSkill@@8				; ioAttackSkill::`RTTI Base Class Array'
PUBLIC	??_R1A@?0A@EA@ioSkill@@8			; ioSkill::`RTTI Base Class Descriptor at (0,-1,0,64)'
PUBLIC	??_R0?AVioSkill@@@8				; ioSkill `RTTI Type Descriptor'
PUBLIC	??_R3ioSkill@@8					; ioSkill::`RTTI Class Hierarchy Descriptor'
PUBLIC	??_R2ioSkill@@8					; ioSkill::`RTTI Base Class Array'
PUBLIC	?LoadProperty@ioCircleReserveAttackSkill@@UAEXAAVioINILoader@@@Z ; ioCircleReserveAttackSkill::LoadProperty
PUBLIC	?Clone@ioCircleReserveAttackSkill@@UAEPAVioSkill@@XZ ; ioCircleReserveAttackSkill::Clone
PUBLIC	?GetDefenseSkillBreakeType@ioSkill@@UBE?AW4DefenseBreakType@@XZ ; ioSkill::GetDefenseSkillBreakeType
PUBLIC	?GetSkillEndNextJumpAmt@ioSkill@@UBEMXZ		; ioSkill::GetSkillEndNextJumpAmt
PUBLIC	?GetSkillEndNextLandRate@ioSkill@@UBEMXZ	; ioSkill::GetSkillEndNextLandRate
PUBLIC	?GetSkillEndNextJumpMustEnable@ioSkill@@UAE?AW4SkillEndJumpType@@XZ ; ioSkill::GetSkillEndNextJumpMustEnable
PUBLIC	?EnableChangeGrapplingTargetPos@ioSkill@@UBE_NXZ ; ioSkill::EnableChangeGrapplingTargetPos
PUBLIC	?OnSkillStart@ioCircleReserveAttackSkill@@UAE_NPAVioBaseChar@@@Z ; ioCircleReserveAttackSkill::OnSkillStart
PUBLIC	?OnProcessState@ioCircleReserveAttackSkill@@UAEXPAVioBaseChar@@PAVioPlayStage@@@Z ; ioCircleReserveAttackSkill::OnProcessState
PUBLIC	?OnSkillEnd@ioCircleReserveAttackSkill@@UAEXPAVioBaseChar@@@Z ; ioCircleReserveAttackSkill::OnSkillEnd
PUBLIC	?IsInvisibleBottomCircle@ioSkill@@UAE_NPAVioBaseChar@@@Z ; ioSkill::IsInvisibleBottomCircle
PUBLIC	?IsCanJumpingSkill@ioSkill@@UBE_NXZ		; ioSkill::IsCanJumpingSkill
PUBLIC	?IsCanJumpingSkillOnBlowWound@ioSkill@@UBE_NXZ	; ioSkill::IsCanJumpingSkillOnBlowWound
PUBLIC	?IsCanDownSkill@ioSkill@@UBE_NXZ		; ioSkill::IsCanDownSkill
PUBLIC	?IsCanBlowWoundSkill@ioSkill@@UBE_NXZ		; ioSkill::IsCanBlowWoundSkill
PUBLIC	?IsCanWoundSkill@ioSkill@@UBE_NXZ		; ioSkill::IsCanWoundSkill
PUBLIC	?IsUseActiveCnt@ioSkill@@UBE_NXZ		; ioSkill::IsUseActiveCnt
PUBLIC	?GetMaxActiveCnt@ioSkill@@UBEHPAVioBaseChar@@@Z	; ioSkill::GetMaxActiveCnt
PUBLIC	?GetCurActiveCnt@ioSkill@@UBEHPAVioBaseChar@@@Z	; ioSkill::GetCurActiveCnt
PUBLIC	?AttackSkillFire@ioCircleReserveAttackSkill@@MAEXPAVioBaseChar@@@Z ; ioCircleReserveAttackSkill::AttackSkillFire
EXTRN	??1ioAttackSkill@@UAE@XZ:PROC			; ioAttackSkill::~ioAttackSkill
EXTRN	__imp_??0ioHashString@@QAE@XZ:PROC
EXTRN	??0ioAttackSkill@@QAE@XZ:PROC			; ioAttackSkill::ioAttackSkill
EXTRN	___CxxFrameHandler3:PROC
EXTRN	__EH_epilog3:PROC
EXTRN	__EH_prolog3:PROC
EXTRN	?GetTypeID@ioAttackSkill@@UBEHXZ:PROC		; ioAttackSkill::GetTypeID
EXTRN	?IsProtected@ioSkill@@UBE_NH@Z:PROC		; ioSkill::IsProtected
EXTRN	?IsCanSwitchSkill@ioSkill@@UBE_NXZ:PROC		; ioSkill::IsCanSwitchSkill
EXTRN	?IsCanSemiSwitchSkill@ioSkill@@UBE_NXZ:PROC	; ioSkill::IsCanSemiSwitchSkill
EXTRN	?IsCanCancelBySkill@ioSkill@@UBE_NPAVioBaseChar@@AAH@Z:PROC ; ioSkill::IsCanCancelBySkill
EXTRN	?IsCanUseZeroHP@ioSkill@@UBE_NPAVioBaseChar@@@Z:PROC ; ioSkill::IsCanUseZeroHP
EXTRN	?IsCanUseSkillWithCrown@ioSkill@@UAE_NPAVioBaseChar@@@Z:PROC ; ioSkill::IsCanUseSkillWithCrown
EXTRN	?IsCanUseBoss@ioSkill@@UBE_NPAVioBaseChar@@@Z:PROC ; ioSkill::IsCanUseBoss
EXTRN	?IsCanUseFootball@ioSkill@@UBE_NXZ:PROC		; ioSkill::IsCanUseFootball
EXTRN	?IsCanUseGangSiMode@ioSkill@@UBE_NXZ:PROC	; ioSkill::IsCanUseGangSiMode
EXTRN	?IsCanUseByWeaponType@ioSkill@@UBE_NPAVioBaseChar@@@Z:PROC ; ioSkill::IsCanUseByWeaponType
EXTRN	?IsCanUseThunderBirdHold@ioSkill@@UBE_NPAVioBaseChar@@@Z:PROC ; ioSkill::IsCanUseThunderBirdHold
EXTRN	?IsCanUseLimitHP@ioSkill@@UBE_NPAVioBaseChar@@@Z:PROC ; ioSkill::IsCanUseLimitHP
EXTRN	?IsCanUseSkill@ioAttackSkill@@UAE_NPAVioBaseChar@@_N@Z:PROC ; ioAttackSkill::IsCanUseSkill
EXTRN	?IsOnOffEnable@ioSkill@@UAE_NXZ:PROC		; ioSkill::IsOnOffEnable
EXTRN	?IsCanDefenseStateSkill@ioSkill@@UAE_NXZ:PROC	; ioSkill::IsCanDefenseStateSkill
EXTRN	?SetDefenseStateSkill@ioSkill@@UAEXPAVioBaseChar@@@Z:PROC ; ioSkill::SetDefenseStateSkill
EXTRN	?HasBuff@ioSkill@@UBE_NH@Z:PROC			; ioSkill::HasBuff
EXTRN	?GetBuffType@ioSkill@@UAEHH@Z:PROC		; ioSkill::GetBuffType
EXTRN	?IsEnableReserve@ioSkill@@UBE_NXZ:PROC		; ioSkill::IsEnableReserve
EXTRN	?IsSkillMotionEnd@ioSkill@@UBE_NKPAVioBaseChar@@@Z:PROC ; ioSkill::IsSkillMotionEnd
EXTRN	?IsCharSkipState@ioSkill@@UBE?AW4SkillCharColType@@XZ:PROC ; ioSkill::IsCharSkipState
EXTRN	?IsEntityCollisionSkipState@ioSkill@@UBE_NXZ:PROC ; ioSkill::IsEntityCollisionSkipState
EXTRN	?IsEndState@ioSkill@@UBE_NXZ:PROC		; ioSkill::IsEndState
EXTRN	?IsAttackEndState@ioAttackSkill@@UBE_NXZ:PROC	; ioAttackSkill::IsAttackEndState
EXTRN	?IsJumpState@ioSkill@@UBE_NXZ:PROC		; ioSkill::IsJumpState
EXTRN	?IsDownState@ioSkill@@UBE_NXZ:PROC		; ioSkill::IsDownState
EXTRN	?IsNoDropState@ioSkill@@UBE_NXZ:PROC		; ioSkill::IsNoDropState
EXTRN	?IsCanSendControl@ioSkill@@UBE_NXZ:PROC		; ioSkill::IsCanSendControl
EXTRN	?IsSkipState@ioSkill@@UBE_NXZ:PROC		; ioSkill::IsSkipState
EXTRN	?GetSkillMoveRate@ioSkill@@UBEMXZ:PROC		; ioSkill::GetSkillMoveRate
EXTRN	?SetSkillGrapplingState@ioSkill@@UAE_NPAVioBaseChar@@ABVioHashString@@@Z:PROC ; ioSkill::SetSkillGrapplingState
EXTRN	?GetGrapplingTargetPos@ioSkill@@UAE?AUD3DXVECTOR3@@PAVioBaseChar@@0@Z:PROC ; ioSkill::GetGrapplingTargetPos
EXTRN	?GetGrapplingTargetPos@ioSkill@@UAE?AUD3DXVECTOR3@@PAVioBaseChar@@@Z:PROC ; ioSkill::GetGrapplingTargetPos
EXTRN	?GetSkillWoundGrapplingInfo@ioSkill@@UAE?AUGrapplingSkillWoundedInfo@@XZ:PROC ; ioSkill::GetSkillWoundGrapplingInfo
EXTRN	?SetCreateWeaponDependency@ioSkill@@UAEXPAVioBaseChar@@PAVioPlayStage@@@Z:PROC ; ioSkill::SetCreateWeaponDependency
EXTRN	?SetNextSkillState@ioSkill@@UAEXPAVioBaseChar@@PAVioWeapon@@@Z:PROC ; ioSkill::SetNextSkillState
EXTRN	?OnSkillEndByWounded@ioSkill@@UAEXPAVioBaseChar@@@Z:PROC ; ioSkill::OnSkillEndByWounded
EXTRN	?OnProcessNotUseSkill@ioSkill@@UAEXPAVioBaseChar@@PAVioPlayStage@@@Z:PROC ; ioSkill::OnProcessNotUseSkill
EXTRN	?OnSkillItemRelease@ioSkill@@UAEXPAVioBaseChar@@@Z:PROC ; ioSkill::OnSkillItemRelease
EXTRN	?ApplyEquipSlotSkillExtraInfo@ioSkill@@UAEXPAVioBaseChar@@PAVioPlayStage@@AAVSP2Packet@@@Z:PROC ; ioSkill::ApplyEquipSlotSkillExtraInfo
EXTRN	?ApplyExtraPassiveSkillInfo@ioSkill@@UAEXPAVioBaseChar@@PAVioPlayStage@@AAVSP2Packet@@@Z:PROC ; ioSkill::ApplyExtraPassiveSkillInfo
EXTRN	?StartPreDelayEffect@ioAttackSkill@@UAEXPAVioBaseChar@@@Z:PROC ; ioAttackSkill::StartPreDelayEffect
EXTRN	?EndPreDelayEffect@ioAttackSkill@@UAEXPAVioBaseChar@@@Z:PROC ; ioAttackSkill::EndPreDelayEffect
EXTRN	?IsUseAutoTargetValue@ioAttackSkill@@UAE_NXZ:PROC ; ioAttackSkill::IsUseAutoTargetValue
EXTRN	?IsAutoTargetDownState@ioSkill@@UAE_NXZ:PROC	; ioSkill::IsAutoTargetDownState
EXTRN	?CheckUseBuff@ioSkill@@UAE_NPAVioBaseChar@@@Z:PROC ; ioSkill::CheckUseBuff
EXTRN	?CheckUseItemMesh@ioSkill@@UAE_NXZ:PROC		; ioSkill::CheckUseItemMesh
EXTRN	?CheckUseActiveCount@ioSkill@@UAE_NXZ:PROC	; ioSkill::CheckUseActiveCount
EXTRN	?CheckAniRotate@ioSkill@@UAEXPAVioBaseChar@@@Z:PROC ; ioSkill::CheckAniRotate
EXTRN	?IsEnableDashCheck@ioSkill@@UAE_NPAVioBaseChar@@@Z:PROC ; ioSkill::IsEnableDashCheck
EXTRN	?IsEnableMultiActive@ioSkill@@UAE_NPAVioBaseChar@@@Z:PROC ; ioSkill::IsEnableMultiActive
EXTRN	?GetAutoTargetValue@ioSkill@@UAEXAAM00@Z:PROC	; ioSkill::GetAutoTargetValue
EXTRN	?GetSkillGravityRate@ioSkill@@UAEMXZ:PROC	; ioSkill::GetSkillGravityRate
EXTRN	?GetSkillMotionName@ioSkill@@UBEABVioHashString@@XZ:PROC ; ioSkill::GetSkillMotionName
EXTRN	?HasSkillMotion@ioSkill@@UBE_NXZ:PROC		; ioSkill::HasSkillMotion
EXTRN	?GetSkillMotionRate@ioSkill@@UBEMXZ:PROC	; ioSkill::GetSkillMotionRate
EXTRN	?IsPreDelayProtect@ioSkill@@UBE_NXZ:PROC	; ioSkill::IsPreDelayProtect
EXTRN	?GetPreDelayAniName@ioSkill@@UBEABVioHashString@@XZ:PROC ; ioSkill::GetPreDelayAniName
EXTRN	?GetPreDelayTime@ioSkill@@UBEKXZ:PROC		; ioSkill::GetPreDelayTime
EXTRN	?GetPreDelayOwnerEffect@ioSkill@@UBEABVioHashString@@XZ:PROC ; ioSkill::GetPreDelayOwnerEffect
EXTRN	?GetPreDelayOtherEffect@ioSkill@@UBEABVioHashString@@XZ:PROC ; ioSkill::GetPreDelayOtherEffect
EXTRN	?SetCancelSkill@ioSkill@@UAEXPAVioBaseChar@@@Z:PROC ; ioSkill::SetCancelSkill
EXTRN	?ClearAirJump@ioSkill@@MAEXXZ:PROC		; ioSkill::ClearAirJump
EXTRN	?SetAirJump@ioSkill@@MAEXPAVioBaseChar@@HM@Z:PROC ; ioSkill::SetAirJump
EXTRN	?CheckAirJump@ioSkill@@MAEXPAVioBaseChar@@@Z:PROC ; ioSkill::CheckAirJump
EXTRN	?UseActiveCount@ioSkill@@UAE_NPAVioBaseChar@@@Z:PROC ; ioSkill::UseActiveCount
EXTRN	?GetMaxActiveCount@ioSkill@@UAEHPAVioBaseChar@@@Z:PROC ; ioSkill::GetMaxActiveCount
EXTRN	?GetCurActiveCount@ioSkill@@UAEHPAVioBaseChar@@@Z:PROC ; ioSkill::GetCurActiveCount
EXTRN	?HideHPGauge@ioSkill@@UAE_NXZ:PROC		; ioSkill::HideHPGauge
EXTRN	?SetInfoByApplyWeapon@ioSkill@@UAEXPAVioBaseChar@@0K_N@Z:PROC ; ioSkill::SetInfoByApplyWeapon
EXTRN	?SetCollisionByApplySkill@ioSkill@@UAEXXZ:PROC	; ioSkill::SetCollisionByApplySkill
EXTRN	?SetChargingRateForWeapon@ioSkill@@UAEXPAVioWeapon@@@Z:PROC ; ioSkill::SetChargingRateForWeapon
EXTRN	?CheckExceptionCamera@ioSkill@@UAE_NXZ:PROC	; ioSkill::CheckExceptionCamera
EXTRN	?GetExceptionCameraPos@ioSkill@@UAE?AUD3DXVECTOR3@@PAVioBaseChar@@@Z:PROC ; ioSkill::GetExceptionCameraPos
EXTRN	?IsFixedExceptionCamera@ioSkill@@UAE_NXZ:PROC	; ioSkill::IsFixedExceptionCamera
EXTRN	??_EioCircleReserveAttackSkill@@UAEPAXI@Z:PROC	; ioCircleReserveAttackSkill::`vector deleting destructor'
EXTRN	?StartPreDelayAnimation@ioAttackSkill@@MAE_NPAVioBaseChar@@@Z:PROC ; ioAttackSkill::StartPreDelayAnimation
EXTRN	?GetAttackTimeRate@ioAttackSkill@@MBEMXZ:PROC	; ioAttackSkill::GetAttackTimeRate
EXTRN	?GetAttackEndTimeRate@ioAttackSkill@@MBEMXZ:PROC ; ioAttackSkill::GetAttackEndTimeRate
EXTRN	?LoadNormalAttribute@ioAttackSkill@@MAEXAAVioINILoader@@@Z:PROC ; ioAttackSkill::LoadNormalAttribute
EXTRN	?LoadDownAttribute@ioAttackSkill@@MAEXAAVioINILoader@@@Z:PROC ; ioAttackSkill::LoadDownAttribute
EXTRN	?LoadJumpAttribute@ioAttackSkill@@MAEXAAVioINILoader@@@Z:PROC ; ioAttackSkill::LoadJumpAttribute
EXTRN	?GetAttribute@ioAttackSkill@@UAEAAUAttackAttribute@@XZ:PROC ; ioAttackSkill::GetAttribute
EXTRN	?GetAttributeConst@ioAttackSkill@@UBEABUAttackAttribute@@XZ:PROC ; ioAttackSkill::GetAttributeConst
EXTRN	?IsCanStateEscape@ioAttackSkill@@UBE_NXZ:PROC	; ioAttackSkill::IsCanStateEscape
EXTRN	?IsCanStateEscapeOnStand@ioAttackSkill@@UBE_NPAVioBaseChar@@@Z:PROC ; ioAttackSkill::IsCanStateEscapeOnStand
EXTRN	?IsCanStateEscapeOnAir@ioAttackSkill@@UBE_NPAVioBaseChar@@@Z:PROC ; ioAttackSkill::IsCanStateEscapeOnAir
EXTRN	?IsCanStateEscapeOnDown@ioAttackSkill@@UBE_NPAVioBaseChar@@@Z:PROC ; ioAttackSkill::IsCanStateEscapeOnDown
;	COMDAT ??_R2ioSkill@@8
; File c:\program files (x86)\microsoft directx sdk (june 2010)\include\d3dx9math.h
rdata$r	SEGMENT
??_R2ioSkill@@8 DD FLAT:??_R1A@?0A@EA@ioSkill@@8	; ioSkill::`RTTI Base Class Array'
rdata$r	ENDS
;	COMDAT ??_R3ioSkill@@8
rdata$r	SEGMENT
??_R3ioSkill@@8 DD 00H					; ioSkill::`RTTI Class Hierarchy Descriptor'
	DD	00H
	DD	01H
	DD	FLAT:??_R2ioSkill@@8
rdata$r	ENDS
;	COMDAT ??_R0?AVioSkill@@@8
_DATA	SEGMENT
??_R0?AVioSkill@@@8 DD FLAT:??_7type_info@@6B@		; ioSkill `RTTI Type Descriptor'
	DD	00H
	DB	'.?AVioSkill@@', 00H
_DATA	ENDS
;	COMDAT ??_R1A@?0A@EA@ioSkill@@8
rdata$r	SEGMENT
??_R1A@?0A@EA@ioSkill@@8 DD FLAT:??_R0?AVioSkill@@@8	; ioSkill::`RTTI Base Class Descriptor at (0,-1,0,64)'
	DD	00H
	DD	00H
	DD	0ffffffffH
	DD	00H
	DD	040H
	DD	FLAT:??_R3ioSkill@@8
rdata$r	ENDS
;	COMDAT ??_R2ioAttackSkill@@8
rdata$r	SEGMENT
??_R2ioAttackSkill@@8 DD FLAT:??_R1A@?0A@EA@ioAttackSkill@@8 ; ioAttackSkill::`RTTI Base Class Array'
	DD	FLAT:??_R1A@?0A@EA@ioSkill@@8
rdata$r	ENDS
;	COMDAT ??_R3ioAttackSkill@@8
rdata$r	SEGMENT
??_R3ioAttackSkill@@8 DD 00H				; ioAttackSkill::`RTTI Class Hierarchy Descriptor'
	DD	00H
	DD	02H
	DD	FLAT:??_R2ioAttackSkill@@8
rdata$r	ENDS
;	COMDAT ??_R0?AVioAttackSkill@@@8
_DATA	SEGMENT
??_R0?AVioAttackSkill@@@8 DD FLAT:??_7type_info@@6B@	; ioAttackSkill `RTTI Type Descriptor'
	DD	00H
	DB	'.?AVioAttackSkill@@', 00H
_DATA	ENDS
;	COMDAT ??_R1A@?0A@EA@ioAttackSkill@@8
rdata$r	SEGMENT
??_R1A@?0A@EA@ioAttackSkill@@8 DD FLAT:??_R0?AVioAttackSkill@@@8 ; ioAttackSkill::`RTTI Base Class Descriptor at (0,-1,0,64)'
	DD	01H
	DD	00H
	DD	0ffffffffH
	DD	00H
	DD	040H
	DD	FLAT:??_R3ioAttackSkill@@8
rdata$r	ENDS
;	COMDAT ??_R1A@?0A@EA@ioCircleReserveAttackSkill@@8
rdata$r	SEGMENT
??_R1A@?0A@EA@ioCircleReserveAttackSkill@@8 DD FLAT:??_R0?AVioCircleReserveAttackSkill@@@8 ; ioCircleReserveAttackSkill::`RTTI Base Class Descriptor at (0,-1,0,64)'
	DD	02H
	DD	00H
	DD	0ffffffffH
	DD	00H
	DD	040H
	DD	FLAT:??_R3ioCircleReserveAttackSkill@@8
rdata$r	ENDS
;	COMDAT ??_R2ioCircleReserveAttackSkill@@8
rdata$r	SEGMENT
??_R2ioCircleReserveAttackSkill@@8 DD FLAT:??_R1A@?0A@EA@ioCircleReserveAttackSkill@@8 ; ioCircleReserveAttackSkill::`RTTI Base Class Array'
	DD	FLAT:??_R1A@?0A@EA@ioAttackSkill@@8
	DD	FLAT:??_R1A@?0A@EA@ioSkill@@8
rdata$r	ENDS
;	COMDAT ??_R3ioCircleReserveAttackSkill@@8
rdata$r	SEGMENT
??_R3ioCircleReserveAttackSkill@@8 DD 00H		; ioCircleReserveAttackSkill::`RTTI Class Hierarchy Descriptor'
	DD	00H
	DD	03H
	DD	FLAT:??_R2ioCircleReserveAttackSkill@@8
rdata$r	ENDS
;	COMDAT ??_R0?AVioCircleReserveAttackSkill@@@8
_DATA	SEGMENT
??_R0?AVioCircleReserveAttackSkill@@@8 DD FLAT:??_7type_info@@6B@ ; ioCircleReserveAttackSkill `RTTI Type Descriptor'
	DD	00H
	DB	'.?AVioCircleReserveAttackSkill@@', 00H
_DATA	ENDS
;	COMDAT ??_R4ioCircleReserveAttackSkill@@6B@
rdata$r	SEGMENT
??_R4ioCircleReserveAttackSkill@@6B@ DD 00H		; ioCircleReserveAttackSkill::`RTTI Complete Object Locator'
	DD	00H
	DD	00H
	DD	FLAT:??_R0?AVioCircleReserveAttackSkill@@@8
	DD	FLAT:??_R3ioCircleReserveAttackSkill@@8
rdata$r	ENDS
;	COMDAT ??_7ioCircleReserveAttackSkill@@6B@
CONST	SEGMENT
??_7ioCircleReserveAttackSkill@@6B@ DD FLAT:??_R4ioCircleReserveAttackSkill@@6B@ ; ioCircleReserveAttackSkill::`vftable'
	DD	FLAT:?LoadProperty@ioCircleReserveAttackSkill@@UAEXAAVioINILoader@@@Z
	DD	FLAT:?Clone@ioCircleReserveAttackSkill@@UAEPAVioSkill@@XZ
	DD	FLAT:?GetTypeID@ioAttackSkill@@UBEHXZ
	DD	FLAT:?IsProtected@ioSkill@@UBE_NH@Z
	DD	FLAT:?IsCanSwitchSkill@ioSkill@@UBE_NXZ
	DD	FLAT:?IsCanSemiSwitchSkill@ioSkill@@UBE_NXZ
	DD	FLAT:?IsCanCancelBySkill@ioSkill@@UBE_NPAVioBaseChar@@AAH@Z
	DD	FLAT:?IsCanUseZeroHP@ioSkill@@UBE_NPAVioBaseChar@@@Z
	DD	FLAT:?IsCanUseSkillWithCrown@ioSkill@@UAE_NPAVioBaseChar@@@Z
	DD	FLAT:?IsCanUseBoss@ioSkill@@UBE_NPAVioBaseChar@@@Z
	DD	FLAT:?IsCanUseFootball@ioSkill@@UBE_NXZ
	DD	FLAT:?IsCanUseGangSiMode@ioSkill@@UBE_NXZ
	DD	FLAT:?IsCanUseByWeaponType@ioSkill@@UBE_NPAVioBaseChar@@@Z
	DD	FLAT:?IsCanUseThunderBirdHold@ioSkill@@UBE_NPAVioBaseChar@@@Z
	DD	FLAT:?IsCanUseLimitHP@ioSkill@@UBE_NPAVioBaseChar@@@Z
	DD	FLAT:?IsCanUseSkill@ioAttackSkill@@UAE_NPAVioBaseChar@@_N@Z
	DD	FLAT:?IsOnOffEnable@ioSkill@@UAE_NXZ
	DD	FLAT:?IsCanDefenseStateSkill@ioSkill@@UAE_NXZ
	DD	FLAT:?SetDefenseStateSkill@ioSkill@@UAEXPAVioBaseChar@@@Z
	DD	FLAT:?GetDefenseSkillBreakeType@ioSkill@@UBE?AW4DefenseBreakType@@XZ
	DD	FLAT:?HasBuff@ioSkill@@UBE_NH@Z
	DD	FLAT:?GetBuffType@ioSkill@@UAEHH@Z
	DD	FLAT:?IsEnableReserve@ioSkill@@UBE_NXZ
	DD	FLAT:?IsSkillMotionEnd@ioSkill@@UBE_NKPAVioBaseChar@@@Z
	DD	FLAT:?IsCharSkipState@ioSkill@@UBE?AW4SkillCharColType@@XZ
	DD	FLAT:?IsEntityCollisionSkipState@ioSkill@@UBE_NXZ
	DD	FLAT:?GetSkillEndNextJumpAmt@ioSkill@@UBEMXZ
	DD	FLAT:?GetSkillEndNextLandRate@ioSkill@@UBEMXZ
	DD	FLAT:?GetSkillEndNextJumpMustEnable@ioSkill@@UAE?AW4SkillEndJumpType@@XZ
	DD	FLAT:?IsEndState@ioSkill@@UBE_NXZ
	DD	FLAT:?IsAttackEndState@ioAttackSkill@@UBE_NXZ
	DD	FLAT:?IsJumpState@ioSkill@@UBE_NXZ
	DD	FLAT:?IsDownState@ioSkill@@UBE_NXZ
	DD	FLAT:?IsNoDropState@ioSkill@@UBE_NXZ
	DD	FLAT:?IsCanSendControl@ioSkill@@UBE_NXZ
	DD	FLAT:?IsSkipState@ioSkill@@UBE_NXZ
	DD	FLAT:?GetSkillMoveRate@ioSkill@@UBEMXZ
	DD	FLAT:?SetSkillGrapplingState@ioSkill@@UAE_NPAVioBaseChar@@ABVioHashString@@@Z
	DD	FLAT:?GetGrapplingTargetPos@ioSkill@@UAE?AUD3DXVECTOR3@@PAVioBaseChar@@0@Z
	DD	FLAT:?GetGrapplingTargetPos@ioSkill@@UAE?AUD3DXVECTOR3@@PAVioBaseChar@@@Z
	DD	FLAT:?EnableChangeGrapplingTargetPos@ioSkill@@UBE_NXZ
	DD	FLAT:?GetSkillWoundGrapplingInfo@ioSkill@@UAE?AUGrapplingSkillWoundedInfo@@XZ
	DD	FLAT:?SetCreateWeaponDependency@ioSkill@@UAEXPAVioBaseChar@@PAVioPlayStage@@@Z
	DD	FLAT:?SetNextSkillState@ioSkill@@UAEXPAVioBaseChar@@PAVioWeapon@@@Z
	DD	FLAT:?OnSkillStart@ioCircleReserveAttackSkill@@UAE_NPAVioBaseChar@@@Z
	DD	FLAT:?OnProcessState@ioCircleReserveAttackSkill@@UAEXPAVioBaseChar@@PAVioPlayStage@@@Z
	DD	FLAT:?OnSkillEndByWounded@ioSkill@@UAEXPAVioBaseChar@@@Z
	DD	FLAT:?OnSkillEnd@ioCircleReserveAttackSkill@@UAEXPAVioBaseChar@@@Z
	DD	FLAT:?OnProcessNotUseSkill@ioSkill@@UAEXPAVioBaseChar@@PAVioPlayStage@@@Z
	DD	FLAT:?OnSkillItemRelease@ioSkill@@UAEXPAVioBaseChar@@@Z
	DD	FLAT:?ApplyAttributeToWeapon@ioCircleReserveAttackSkill@@UAEXPAVioWeapon@@PAVioPlayStage@@@Z
	DD	FLAT:?ApplyExtraSkillInfo@ioCircleReserveAttackSkill@@UAEXPAVioBaseChar@@PAVioPlayStage@@AAVSP2Packet@@@Z
	DD	FLAT:?ApplyEquipSlotSkillExtraInfo@ioSkill@@UAEXPAVioBaseChar@@PAVioPlayStage@@AAVSP2Packet@@@Z
	DD	FLAT:?ApplyExtraPassiveSkillInfo@ioSkill@@UAEXPAVioBaseChar@@PAVioPlayStage@@AAVSP2Packet@@@Z
	DD	FLAT:?StartPreDelayEffect@ioAttackSkill@@UAEXPAVioBaseChar@@@Z
	DD	FLAT:?EndPreDelayEffect@ioAttackSkill@@UAEXPAVioBaseChar@@@Z
	DD	FLAT:?IsUseAutoTargetValue@ioAttackSkill@@UAE_NXZ
	DD	FLAT:?IsAutoTargetDownState@ioSkill@@UAE_NXZ
	DD	FLAT:?CheckUseBuff@ioSkill@@UAE_NPAVioBaseChar@@@Z
	DD	FLAT:?CheckUseItemMesh@ioSkill@@UAE_NXZ
	DD	FLAT:?CheckUseActiveCount@ioSkill@@UAE_NXZ
	DD	FLAT:?CheckAniRotate@ioSkill@@UAEXPAVioBaseChar@@@Z
	DD	FLAT:?IsEnableDashCheck@ioSkill@@UAE_NPAVioBaseChar@@@Z
	DD	FLAT:?IsEnableMultiActive@ioSkill@@UAE_NPAVioBaseChar@@@Z
	DD	FLAT:?IsInvisibleBottomCircle@ioSkill@@UAE_NPAVioBaseChar@@@Z
	DD	FLAT:?GetAutoTargetValue@ioSkill@@UAEXAAM00@Z
	DD	FLAT:?IsCanJumpingSkill@ioSkill@@UBE_NXZ
	DD	FLAT:?IsCanJumpingSkillOnBlowWound@ioSkill@@UBE_NXZ
	DD	FLAT:?IsCanDownSkill@ioSkill@@UBE_NXZ
	DD	FLAT:?IsCanBlowWoundSkill@ioSkill@@UBE_NXZ
	DD	FLAT:?IsCanWoundSkill@ioSkill@@UBE_NXZ
	DD	FLAT:?GetSkillGravityRate@ioSkill@@UAEMXZ
	DD	FLAT:?GetSkillMotionName@ioSkill@@UBEABVioHashString@@XZ
	DD	FLAT:?HasSkillMotion@ioSkill@@UBE_NXZ
	DD	FLAT:?GetSkillMotionRate@ioSkill@@UBEMXZ
	DD	FLAT:?IsPreDelayProtect@ioSkill@@UBE_NXZ
	DD	FLAT:?GetPreDelayAniName@ioSkill@@UBEABVioHashString@@XZ
	DD	FLAT:?GetPreDelayTime@ioSkill@@UBEKXZ
	DD	FLAT:?GetPreDelayOwnerEffect@ioSkill@@UBEABVioHashString@@XZ
	DD	FLAT:?GetPreDelayOtherEffect@ioSkill@@UBEABVioHashString@@XZ
	DD	FLAT:?SetCancelSkill@ioSkill@@UAEXPAVioBaseChar@@@Z
	DD	FLAT:?ClearAirJump@ioSkill@@MAEXXZ
	DD	FLAT:?SetAirJump@ioSkill@@MAEXPAVioBaseChar@@HM@Z
	DD	FLAT:?CheckAirJump@ioSkill@@MAEXPAVioBaseChar@@@Z
	DD	FLAT:?UseActiveCount@ioSkill@@UAE_NPAVioBaseChar@@@Z
	DD	FLAT:?GetMaxActiveCount@ioSkill@@UAEHPAVioBaseChar@@@Z
	DD	FLAT:?GetCurActiveCount@ioSkill@@UAEHPAVioBaseChar@@@Z
	DD	FLAT:?HideHPGauge@ioSkill@@UAE_NXZ
	DD	FLAT:?SetInfoByApplyWeapon@ioSkill@@UAEXPAVioBaseChar@@0K_N@Z
	DD	FLAT:?SetCollisionByApplySkill@ioSkill@@UAEXXZ
	DD	FLAT:?SetChargingRateForWeapon@ioSkill@@UAEXPAVioWeapon@@@Z
	DD	FLAT:?CheckExceptionCamera@ioSkill@@UAE_NXZ
	DD	FLAT:?GetExceptionCameraPos@ioSkill@@UAE?AUD3DXVECTOR3@@PAVioBaseChar@@@Z
	DD	FLAT:?IsFixedExceptionCamera@ioSkill@@UAE_NXZ
	DD	FLAT:?IsUseActiveCnt@ioSkill@@UBE_NXZ
	DD	FLAT:?GetMaxActiveCnt@ioSkill@@UBEHPAVioBaseChar@@@Z
	DD	FLAT:?GetCurActiveCnt@ioSkill@@UBEHPAVioBaseChar@@@Z
	DD	FLAT:??_EioCircleReserveAttackSkill@@UAEPAXI@Z
	DD	FLAT:?StartPreDelayAnimation@ioAttackSkill@@MAE_NPAVioBaseChar@@@Z
	DD	FLAT:?AttackSkillFire@ioCircleReserveAttackSkill@@MAEXPAVioBaseChar@@@Z
	DD	FLAT:?GetAttackTimeRate@ioAttackSkill@@MBEMXZ
	DD	FLAT:?GetAttackEndTimeRate@ioAttackSkill@@MBEMXZ
	DD	FLAT:?LoadNormalAttribute@ioAttackSkill@@MAEXAAVioINILoader@@@Z
	DD	FLAT:?LoadDownAttribute@ioAttackSkill@@MAEXAAVioINILoader@@@Z
	DD	FLAT:?LoadJumpAttribute@ioAttackSkill@@MAEXAAVioINILoader@@@Z
	DD	FLAT:?GetAttribute@ioAttackSkill@@UAEAAUAttackAttribute@@XZ
	DD	FLAT:?GetAttributeConst@ioAttackSkill@@UBEABUAttackAttribute@@XZ
	DD	FLAT:?IsCanStateEscape@ioAttackSkill@@UBE_NXZ
	DD	FLAT:?IsCanStateEscapeOnStand@ioAttackSkill@@UBE_NPAVioBaseChar@@@Z
	DD	FLAT:?IsCanStateEscapeOnAir@ioAttackSkill@@UBE_NPAVioBaseChar@@@Z
	DD	FLAT:?IsCanStateEscapeOnDown@ioAttackSkill@@UBE_NPAVioBaseChar@@@Z
CONST	ENDS
;	COMDAT xdata$x
xdata$x	SEGMENT
__unwindtable$??0ioCircleReserveAttackSkill@@QAE@XZ DD 0ffffffffH
	DD	FLAT:__unwindfunclet$??0ioCircleReserveAttackSkill@@QAE@XZ$0
__ehfuncinfo$??0ioCircleReserveAttackSkill@@QAE@XZ DD 019930522H
	DD	01H
	DD	FLAT:__unwindtable$??0ioCircleReserveAttackSkill@@QAE@XZ
	DD	2 DUP(00H)
	DD	2 DUP(00H)
	DD	00H
	DD	01H
; Function compile flags: /Ogsp
; File d:\lost saga for developer\youtube\tutorial\source\src\lsclient\iocirclereserveattackskill.cpp
xdata$x	ENDS
;	COMDAT ??0ioCircleReserveAttackSkill@@QAE@XZ
_TEXT	SEGMENT
_this$ = -16						; size = 4
__$EHRec$ = -12						; size = 12
??0ioCircleReserveAttackSkill@@QAE@XZ PROC		; ioCircleReserveAttackSkill::ioCircleReserveAttackSkill, COMDAT
; _this$ = ecx

; 9    : {

  00000	6a 04		 push	 4
  00002	b8 00 00 00 00	 mov	 eax, __ehhandler$??0ioCircleReserveAttackSkill@@QAE@XZ
  00007	e8 00 00 00 00	 call	 __EH_prolog3
  0000c	8b f1		 mov	 esi, ecx
  0000e	89 75 f0	 mov	 DWORD PTR _this$[ebp], esi
  00011	e8 00 00 00 00	 call	 ??0ioAttackSkill@@QAE@XZ ; ioAttackSkill::ioAttackSkill
  00016	0f 57 c0	 xorps	 xmm0, xmm0
  00019	83 65 fc 00	 and	 DWORD PTR __$EHRec$[ebp+8], 0
  0001d	8d 8e 10 11 00
	00		 lea	 ecx, DWORD PTR [esi+4368]
  00023	c7 06 00 00 00
	00		 mov	 DWORD PTR [esi], OFFSET ??_7ioCircleReserveAttackSkill@@6B@
  00029	f3 0f 11 86 fc
	10 00 00	 movss	 DWORD PTR [esi+4348], xmm0
  00031	ff 15 00 00 00
	00		 call	 DWORD PTR __imp_??0ioHashString@@QAE@XZ

; 10   : 	ClearData();

  00037	8b ce		 mov	 ecx, esi
  00039	e8 00 00 00 00	 call	 ?ClearData@ioCircleReserveAttackSkill@@IAEXXZ ; ioCircleReserveAttackSkill::ClearData

; 11   : }

  0003e	8b c6		 mov	 eax, esi
  00040	e8 00 00 00 00	 call	 __EH_epilog3
  00045	c3		 ret	 0
_TEXT	ENDS
;	COMDAT text$x
text$x	SEGMENT
__unwindfunclet$??0ioCircleReserveAttackSkill@@QAE@XZ$0:
  00000	8b 4d f0	 mov	 ecx, DWORD PTR _this$[ebp]
  00003	e9 00 00 00 00	 jmp	 ??1ioAttackSkill@@UAE@XZ ; ioAttackSkill::~ioAttackSkill
__ehhandler$??0ioCircleReserveAttackSkill@@QAE@XZ:
  00008	8b 54 24 08	 mov	 edx, DWORD PTR [esp+8]
  0000c	8d 42 0c	 lea	 eax, DWORD PTR [edx+12]
  0000f	8b 4a ec	 mov	 ecx, DWORD PTR [edx-20]
  00012	33 c8		 xor	 ecx, eax
  00014	e8 00 00 00 00	 call	 @__security_check_cookie@4
  00019	b8 00 00 00 00	 mov	 eax, OFFSET __ehfuncinfo$??0ioCircleReserveAttackSkill@@QAE@XZ
  0001e	e9 00 00 00 00	 jmp	 ___CxxFrameHandler3
text$x	ENDS
??0ioCircleReserveAttackSkill@@QAE@XZ ENDP		; ioCircleReserveAttackSkill::ioCircleReserveAttackSkill
; Function compile flags: /Ogsp
; File d:\lost saga for developer\youtube\tutorial\source\src\lsclient\ioskill.h
;	COMDAT ?GetDefenseSkillBreakeType@ioSkill@@UBE?AW4DefenseBreakType@@XZ
_TEXT	SEGMENT
?GetDefenseSkillBreakeType@ioSkill@@UBE?AW4DefenseBreakType@@XZ PROC ; ioSkill::GetDefenseSkillBreakeType, COMDAT
; _this$ = ecx

; 327  : 	virtual DefenseBreakType GetDefenseSkillBreakeType() const { return m_eDefenseSkillBreakType; }

  00000	8b 81 30 0e 00
	00		 mov	 eax, DWORD PTR [ecx+3632]
  00006	c3		 ret	 0
?GetDefenseSkillBreakeType@ioSkill@@UBE?AW4DefenseBreakType@@XZ ENDP ; ioSkill::GetDefenseSkillBreakeType
; Function compile flags: /Ogsp
_TEXT	ENDS
;	COMDAT ?GetSkillEndNextJumpAmt@ioSkill@@UBEMXZ
_TEXT	SEGMENT
?GetSkillEndNextJumpAmt@ioSkill@@UBEMXZ PROC		; ioSkill::GetSkillEndNextJumpAmt, COMDAT
; _this$ = ecx

; 335  : 	virtual float GetSkillEndNextJumpAmt() const { return m_fSkillEndNextJumpAmt; }

  00000	d9 81 4c 05 00
	00		 fld	 DWORD PTR [ecx+1356]
  00006	c3		 ret	 0
?GetSkillEndNextJumpAmt@ioSkill@@UBEMXZ ENDP		; ioSkill::GetSkillEndNextJumpAmt
; Function compile flags: /Ogsp
_TEXT	ENDS
;	COMDAT ?GetSkillEndNextLandRate@ioSkill@@UBEMXZ
_TEXT	SEGMENT
?GetSkillEndNextLandRate@ioSkill@@UBEMXZ PROC		; ioSkill::GetSkillEndNextLandRate, COMDAT
; _this$ = ecx

; 336  : 	virtual float GetSkillEndNextLandRate() const { return m_fSkillEndNextLandRate; }

  00000	d9 81 50 05 00
	00		 fld	 DWORD PTR [ecx+1360]
  00006	c3		 ret	 0
?GetSkillEndNextLandRate@ioSkill@@UBEMXZ ENDP		; ioSkill::GetSkillEndNextLandRate
; Function compile flags: /Ogsp
_TEXT	ENDS
;	COMDAT ?GetSkillEndNextJumpMustEnable@ioSkill@@UAE?AW4SkillEndJumpType@@XZ
_TEXT	SEGMENT
?GetSkillEndNextJumpMustEnable@ioSkill@@UAE?AW4SkillEndJumpType@@XZ PROC ; ioSkill::GetSkillEndNextJumpMustEnable, COMDAT
; _this$ = ecx

; 337  : 	virtual SkillEndJumpType GetSkillEndNextJumpMustEnable(){ return SEJT_DEFAULT; }

  00000	33 c0		 xor	 eax, eax
  00002	c3		 ret	 0
?GetSkillEndNextJumpMustEnable@ioSkill@@UAE?AW4SkillEndJumpType@@XZ ENDP ; ioSkill::GetSkillEndNextJumpMustEnable
; Function compile flags: /Ogsp
_TEXT	ENDS
;	COMDAT ?EnableChangeGrapplingTargetPos@ioSkill@@UBE_NXZ
_TEXT	SEGMENT
?EnableChangeGrapplingTargetPos@ioSkill@@UBE_NXZ PROC	; ioSkill::EnableChangeGrapplingTargetPos, COMDAT
; _this$ = ecx

; 355  : 	virtual bool EnableChangeGrapplingTargetPos() const { return m_bChangeGrapplingTargetPos; }

  00000	8a 81 40 09 00
	00		 mov	 al, BYTE PTR [ecx+2368]
  00006	c3		 ret	 0
?EnableChangeGrapplingTargetPos@ioSkill@@UBE_NXZ ENDP	; ioSkill::EnableChangeGrapplingTargetPos
; Function compile flags: /Ogsp
_TEXT	ENDS
;	COMDAT ?IsInvisibleBottomCircle@ioSkill@@UAE_NPAVioBaseChar@@@Z
_TEXT	SEGMENT
_pChar$ = 8						; size = 4
?IsInvisibleBottomCircle@ioSkill@@UAE_NPAVioBaseChar@@@Z PROC ; ioSkill::IsInvisibleBottomCircle, COMDAT
; _this$ = ecx

; 393  : 	virtual bool IsInvisibleBottomCircle( ioBaseChar *pChar ) { return false; }

  00000	32 c0		 xor	 al, al
  00002	c2 04 00	 ret	 4
?IsInvisibleBottomCircle@ioSkill@@UAE_NPAVioBaseChar@@@Z ENDP ; ioSkill::IsInvisibleBottomCircle
; Function compile flags: /Ogsp
_TEXT	ENDS
;	COMDAT ?IsUseActiveCnt@ioSkill@@UBE_NXZ
_TEXT	SEGMENT
?IsUseActiveCnt@ioSkill@@UBE_NXZ PROC			; ioSkill::IsUseActiveCnt, COMDAT
; _this$ = ecx

; 544  : 	virtual bool IsUseActiveCnt() const { return false; }

  00000	32 c0		 xor	 al, al
  00002	c3		 ret	 0
?IsUseActiveCnt@ioSkill@@UBE_NXZ ENDP			; ioSkill::IsUseActiveCnt
; Function compile flags: /Ogsp
_TEXT	ENDS
;	COMDAT ?GetMaxActiveCnt@ioSkill@@UBEHPAVioBaseChar@@@Z
_TEXT	SEGMENT
_pChar$ = 8						; size = 4
?GetMaxActiveCnt@ioSkill@@UBEHPAVioBaseChar@@@Z PROC	; ioSkill::GetMaxActiveCnt, COMDAT
; _this$ = ecx

; 545  : 	virtual int GetMaxActiveCnt( ioBaseChar *pChar ) const { return 0; }

  00000	33 c0		 xor	 eax, eax
  00002	c2 04 00	 ret	 4
?GetMaxActiveCnt@ioSkill@@UBEHPAVioBaseChar@@@Z ENDP	; ioSkill::GetMaxActiveCnt
; Function compile flags: /Ogsp
_TEXT	ENDS
;	COMDAT ?GetCurActiveCnt@ioSkill@@UBEHPAVioBaseChar@@@Z
_TEXT	SEGMENT
_pChar$ = 8						; size = 4
?GetCurActiveCnt@ioSkill@@UBEHPAVioBaseChar@@@Z PROC	; ioSkill::GetCurActiveCnt, COMDAT
; _this$ = ecx

; 546  : 	virtual int GetCurActiveCnt( ioBaseChar *pChar ) const { return 0; }

  00000	33 c0		 xor	 eax, eax
  00002	c2 04 00	 ret	 4
?GetCurActiveCnt@ioSkill@@UBEHPAVioBaseChar@@@Z ENDP	; ioSkill::GetCurActiveCnt
_TEXT	ENDS
PUBLIC	?DecryptValueToPool@?$CEncrypt@_N@@QAEXPA_N@Z	; CEncrypt<bool>::DecryptValueToPool
EXTRN	?DecryptByte@ccddaabb@@QBEXPBDPADH@Z:PROC	; ccddaabb::DecryptByte
; Function compile flags: /Ogsp
; File d:\lost saga for developer\youtube\tutorial\source\src\lsclient\encryptvalue.h
;	COMDAT ?DecryptValueToPool@?$CEncrypt@_N@@QAEXPA_N@Z
_TEXT	SEGMENT
_value$ = 8						; size = 4
?DecryptValueToPool@?$CEncrypt@_N@@QAEXPA_N@Z PROC	; CEncrypt<bool>::DecryptValueToPool, COMDAT
; _this$ = ecx

; 219  : 	{

  00000	55		 push	 ebp
  00001	8b ec		 mov	 ebp, esp
  00003	56		 push	 esi

; 220  : 		m_RC5.DecryptByte( m_MemPool, m_TempMem, 4 );

  00004	8d 71 28	 lea	 esi, DWORD PTR [ecx+40]
  00007	6a 04		 push	 4
  00009	8d 41 1c	 lea	 eax, DWORD PTR [ecx+28]
  0000c	56		 push	 esi
  0000d	50		 push	 eax
  0000e	83 c1 0c	 add	 ecx, 12			; 0000000cH
  00011	e8 00 00 00 00	 call	 ?DecryptByte@ccddaabb@@QBEXPBDPADH@Z ; ccddaabb::DecryptByte

; 221  : 		*value = *((bool*)m_TempMem);

  00016	8a 06		 mov	 al, BYTE PTR [esi]
  00018	8b 4d 08	 mov	 ecx, DWORD PTR _value$[ebp]
  0001b	88 01		 mov	 BYTE PTR [ecx], al
  0001d	5e		 pop	 esi

; 222  : 	}

  0001e	5d		 pop	 ebp
  0001f	c2 04 00	 ret	 4
?DecryptValueToPool@?$CEncrypt@_N@@QAEXPA_N@Z ENDP	; CEncrypt<bool>::DecryptValueToPool
_TEXT	ENDS
PUBLIC	??0ioCircleReserveAttackSkill@@QAE@ABV0@@Z	; ioCircleReserveAttackSkill::ioCircleReserveAttackSkill
EXTRN	__imp_??0ioHashString@@QAE@ABV0@@Z:PROC
EXTRN	??0ioAttackSkill@@QAE@ABV0@@Z:PROC		; ioAttackSkill::ioAttackSkill
;	COMDAT xdata$x
; File c:\program files (x86)\microsoft directx sdk (june 2010)\include\d3dx9math.h
xdata$x	SEGMENT
__unwindtable$??0ioCircleReserveAttackSkill@@QAE@ABV0@@Z DD 0ffffffffH
	DD	FLAT:__unwindfunclet$??0ioCircleReserveAttackSkill@@QAE@ABV0@@Z$0
__ehfuncinfo$??0ioCircleReserveAttackSkill@@QAE@ABV0@@Z DD 019930522H
	DD	01H
	DD	FLAT:__unwindtable$??0ioCircleReserveAttackSkill@@QAE@ABV0@@Z
	DD	2 DUP(00H)
	DD	2 DUP(00H)
	DD	00H
	DD	01H
; Function compile flags: /Ogsp
; File d:\lost saga for developer\youtube\tutorial\source\src\lsclient\iocirclereserveattackskill.cpp
xdata$x	ENDS
;	COMDAT ??0ioCircleReserveAttackSkill@@QAE@ABV0@@Z
_TEXT	SEGMENT
_this$ = -16						; size = 4
__$EHRec$ = -12						; size = 12
_rhs$ = 8						; size = 4
??0ioCircleReserveAttackSkill@@QAE@ABV0@@Z PROC		; ioCircleReserveAttackSkill::ioCircleReserveAttackSkill, COMDAT
; _this$ = ecx

; 20   : {

  00000	6a 04		 push	 4
  00002	b8 00 00 00 00	 mov	 eax, __ehhandler$??0ioCircleReserveAttackSkill@@QAE@ABV0@@Z
  00007	e8 00 00 00 00	 call	 __EH_prolog3
  0000c	8b f1		 mov	 esi, ecx
  0000e	89 75 f0	 mov	 DWORD PTR _this$[ebp], esi
  00011	8b 7d 08	 mov	 edi, DWORD PTR _rhs$[ebp]
  00014	57		 push	 edi
  00015	e8 00 00 00 00	 call	 ??0ioAttackSkill@@QAE@ABV0@@Z ; ioAttackSkill::ioAttackSkill
  0001a	83 65 fc 00	 and	 DWORD PTR __$EHRec$[ebp+8], 0
  0001e	c7 06 00 00 00
	00		 mov	 DWORD PTR [esi], OFFSET ??_7ioCircleReserveAttackSkill@@6B@
  00024	d9 87 fc 10 00
	00		 fld	 DWORD PTR [edi+4348]
  0002a	d9 9e fc 10 00
	00		 fstp	 DWORD PTR [esi+4348]
  00030	8b 87 04 11 00
	00		 mov	 eax, DWORD PTR [edi+4356]
  00036	89 86 04 11 00
	00		 mov	 DWORD PTR [esi+4356], eax
  0003c	d9 87 08 11 00
	00		 fld	 DWORD PTR [edi+4360]
  00042	d9 9e 08 11 00
	00		 fstp	 DWORD PTR [esi+4360]
  00048	81 c7 10 11 00
	00		 add	 edi, 4368		; 00001110H
  0004e	d9 47 fc	 fld	 DWORD PTR [edi-4]
  00051	57		 push	 edi
  00052	8d 8e 10 11 00
	00		 lea	 ecx, DWORD PTR [esi+4368]
  00058	d9 9e 0c 11 00
	00		 fstp	 DWORD PTR [esi+4364]
  0005e	ff 15 00 00 00
	00		 call	 DWORD PTR __imp_??0ioHashString@@QAE@ABV0@@Z

; 21   : 	ClearData();

  00064	8b ce		 mov	 ecx, esi
  00066	e8 00 00 00 00	 call	 ?ClearData@ioCircleReserveAttackSkill@@IAEXXZ ; ioCircleReserveAttackSkill::ClearData

; 22   : }

  0006b	8b c6		 mov	 eax, esi
  0006d	e8 00 00 00 00	 call	 __EH_epilog3
  00072	c2 04 00	 ret	 4
_TEXT	ENDS
;	COMDAT text$x
text$x	SEGMENT
__unwindfunclet$??0ioCircleReserveAttackSkill@@QAE@ABV0@@Z$0:
  00000	8b 4d f0	 mov	 ecx, DWORD PTR _this$[ebp]
  00003	e9 00 00 00 00	 jmp	 ??1ioAttackSkill@@UAE@XZ ; ioAttackSkill::~ioAttackSkill
__ehhandler$??0ioCircleReserveAttackSkill@@QAE@ABV0@@Z:
  00008	8b 54 24 08	 mov	 edx, DWORD PTR [esp+8]
  0000c	8d 42 0c	 lea	 eax, DWORD PTR [edx+12]
  0000f	8b 4a ec	 mov	 ecx, DWORD PTR [edx-20]
  00012	33 c8		 xor	 ecx, eax
  00014	e8 00 00 00 00	 call	 @__security_check_cookie@4
  00019	b8 00 00 00 00	 mov	 eax, OFFSET __ehfuncinfo$??0ioCircleReserveAttackSkill@@QAE@ABV0@@Z
  0001e	e9 00 00 00 00	 jmp	 ___CxxFrameHandler3
text$x	ENDS
??0ioCircleReserveAttackSkill@@QAE@ABV0@@Z ENDP		; ioCircleReserveAttackSkill::ioCircleReserveAttackSkill
PUBLIC	??1ioCircleReserveAttackSkill@@UAE@XZ		; ioCircleReserveAttackSkill::~ioCircleReserveAttackSkill
EXTRN	__imp_??1ioHashString@@QAE@XZ:PROC
;	COMDAT xdata$x
xdata$x	SEGMENT
__unwindtable$??1ioCircleReserveAttackSkill@@UAE@XZ DD 0ffffffffH
	DD	FLAT:__unwindfunclet$??1ioCircleReserveAttackSkill@@UAE@XZ$0
__ehfuncinfo$??1ioCircleReserveAttackSkill@@UAE@XZ DD 019930522H
	DD	01H
	DD	FLAT:__unwindtable$??1ioCircleReserveAttackSkill@@UAE@XZ
	DD	2 DUP(00H)
	DD	2 DUP(00H)
	DD	00H
	DD	01H
; Function compile flags: /Ogsp
xdata$x	ENDS
;	COMDAT ??1ioCircleReserveAttackSkill@@UAE@XZ
_TEXT	SEGMENT
_this$ = -16						; size = 4
__$EHRec$ = -12						; size = 12
??1ioCircleReserveAttackSkill@@UAE@XZ PROC		; ioCircleReserveAttackSkill::~ioCircleReserveAttackSkill, COMDAT
; _this$ = ecx

; 25   : {

  00000	6a 04		 push	 4
  00002	b8 00 00 00 00	 mov	 eax, __ehhandler$??1ioCircleReserveAttackSkill@@UAE@XZ
  00007	e8 00 00 00 00	 call	 __EH_prolog3
  0000c	8b f1		 mov	 esi, ecx
  0000e	89 75 f0	 mov	 DWORD PTR _this$[ebp], esi
  00011	c7 06 00 00 00
	00		 mov	 DWORD PTR [esi], OFFSET ??_7ioCircleReserveAttackSkill@@6B@
  00017	83 65 fc 00	 and	 DWORD PTR __$EHRec$[ebp+8], 0

; 26   : 	ClearData();

  0001b	e8 00 00 00 00	 call	 ?ClearData@ioCircleReserveAttackSkill@@IAEXXZ ; ioCircleReserveAttackSkill::ClearData

; 27   : }

  00020	8d 8e 10 11 00
	00		 lea	 ecx, DWORD PTR [esi+4368]
  00026	ff 15 00 00 00
	00		 call	 DWORD PTR __imp_??1ioHashString@@QAE@XZ
  0002c	83 4d fc ff	 or	 DWORD PTR __$EHRec$[ebp+8], -1
  00030	8b ce		 mov	 ecx, esi
  00032	e8 00 00 00 00	 call	 ??1ioAttackSkill@@UAE@XZ ; ioAttackSkill::~ioAttackSkill
  00037	e8 00 00 00 00	 call	 __EH_epilog3
  0003c	c3		 ret	 0
_TEXT	ENDS
;	COMDAT text$x
text$x	SEGMENT
__unwindfunclet$??1ioCircleReserveAttackSkill@@UAE@XZ$0:
  00000	8b 4d f0	 mov	 ecx, DWORD PTR _this$[ebp]
  00003	e9 00 00 00 00	 jmp	 ??1ioAttackSkill@@UAE@XZ ; ioAttackSkill::~ioAttackSkill
__ehhandler$??1ioCircleReserveAttackSkill@@UAE@XZ:
  00008	8b 54 24 08	 mov	 edx, DWORD PTR [esp+8]
  0000c	8d 42 0c	 lea	 eax, DWORD PTR [edx+12]
  0000f	8b 4a ec	 mov	 ecx, DWORD PTR [edx-20]
  00012	33 c8		 xor	 ecx, eax
  00014	e8 00 00 00 00	 call	 @__security_check_cookie@4
  00019	b8 00 00 00 00	 mov	 eax, OFFSET __ehfuncinfo$??1ioCircleReserveAttackSkill@@UAE@XZ
  0001e	e9 00 00 00 00	 jmp	 ___CxxFrameHandler3
text$x	ENDS
??1ioCircleReserveAttackSkill@@UAE@XZ ENDP		; ioCircleReserveAttackSkill::~ioCircleReserveAttackSkill
PUBLIC	_rkLoader$GSCopy$
PUBLIC	__$ArrayPad$
PUBLIC	?LoadAttributeCallTimeList@ioCircleReserveAttackSkill@@IAEXAAVioINILoader@@@Z ; ioCircleReserveAttackSkill::LoadAttributeCallTimeList
EXTRN	__imp_?LoadInt@ioINILoader@@QAEHPBDH@Z:PROC
EXTRN	__imp__wsprintfA:PROC
; Function compile flags: /Ogsp
;	COMDAT ?LoadAttributeCallTimeList@ioCircleReserveAttackSkill@@IAEXAAVioINILoader@@@Z
_TEXT	SEGMENT
_rkLoader$GSCopy$ = -312				; size = 4
tv2118 = -308						; size = 4
tv2075 = -308						; size = 4
tv2031 = -308						; size = 4
tv2519 = -304						; size = 4
tv2503 = -304						; size = 4
tv2487 = -304						; size = 4
_szBuf$ = -300						; size = 260
___encStr$590733 = -40					; size = 29
___encStr$590575 = -40					; size = 29
___encStr$590416 = -36					; size = 24
__$ArrayPad$ = -4					; size = 4
_rkLoader$ = 8						; size = 4
?LoadAttributeCallTimeList@ioCircleReserveAttackSkill@@IAEXAAVioINILoader@@@Z PROC ; ioCircleReserveAttackSkill::LoadAttributeCallTimeList, COMDAT
; _this$ = ecx

; 54   : {

  00000	55		 push	 ebp
  00001	8b ec		 mov	 ebp, esp
  00003	81 ec 38 01 00
	00		 sub	 esp, 312		; 00000138H
  00009	a1 00 00 00 00	 mov	 eax, DWORD PTR ___security_cookie
  0000e	33 c5		 xor	 eax, ebp
  00010	89 45 fc	 mov	 DWORD PTR __$ArrayPad$[ebp], eax
  00013	8b 45 08	 mov	 eax, DWORD PTR _rkLoader$[ebp]
  00016	53		 push	 ebx
  00017	56		 push	 esi
  00018	8b f1		 mov	 esi, ecx

; 70   : 	{
; 71   : 		wsprintf_e( szBuf, "jump_attack_type%d_call_time", i+1 );

  0001a	89 85 c8 fe ff
	ff		 mov	 DWORD PTR _rkLoader$GSCopy$[ebp], eax
  00020	8b 86 80 0f 00
	00		 mov	 eax, DWORD PTR [esi+3968]
  00026	2b 86 7c 0f 00
	00		 sub	 eax, DWORD PTR [esi+3964]
  0002c	57		 push	 edi
  0002d	6a 28		 push	 40			; 00000028H
  0002f	99		 cdq
  00030	59		 pop	 ecx
  00031	f7 f9		 idiv	 ecx
  00033	33 db		 xor	 ebx, ebx
  00035	33 ff		 xor	 edi, edi
  00037	85 c0		 test	 eax, eax
  00039	0f 8e c8 00 00
	00		 jle	 $LN363@LoadAttrib

; 58   : 	{
; 59   : 		wsprintf_e( szBuf, "attack_type%d_call_time", i+1 );

  0003f	89 9d d0 fe ff
	ff		 mov	 DWORD PTR tv2487[ebp], ebx
$LL306@LoadAttrib:

; 55   : 	char szBuf[MAX_PATH];
; 56   : 
; 57   : 	for ( int i=0 ; i < (int)m_AttackAttribute.m_vWeaponInfoList.size() ; ++i )

  00045	6a 05		 push	 5

; 58   : 	{
; 59   : 		wsprintf_e( szBuf, "attack_type%d_call_time", i+1 );

  00047	c7 45 dc 8c 98
	9f 8b		 mov	 DWORD PTR ___encStr$590416[ebp], -1952474996 ; 8b9f988cH
  0004e	c7 45 e0 8e 87
	b4 9e		 mov	 DWORD PTR ___encStr$590416[ebp+4], -1632335986 ; 9eb4878eH
  00055	c7 45 e4 94 9c
	8e cf		 mov	 DWORD PTR ___encStr$590416[ebp+8], -812737388 ; cf8e9c94H
  0005c	c7 45 e8 89 b3
	88 8b		 mov	 DWORD PTR ___encStr$590416[ebp+12], -1953975415 ; 8b88b389H
  00063	c7 45 ec 81 80
	b4 9e		 mov	 DWORD PTR ___encStr$590416[ebp+16], -1632337791 ; 9eb48081H
  0006a	8d 45 dc	 lea	 eax, DWORD PTR ___encStr$590416[ebp]
  0006d	c7 45 f0 84 81
	8e 00		 mov	 DWORD PTR ___encStr$590416[ebp+20], 9339268 ; 008e8184H
  00074	59		 pop	 ecx
$LL316@LoadAttrib:
  00075	81 30 ed ec eb
	ea		 xor	 DWORD PTR [eax], -353637139 ; eaebecedH
  0007b	83 c0 04	 add	 eax, 4
  0007e	49		 dec	 ecx
  0007f	75 f4		 jne	 SHORT $LL316@LoadAttrib
  00081	6a 14		 push	 20			; 00000014H
  00083	58		 pop	 eax
$LL313@LoadAttrib:
  00084	8b c8		 mov	 ecx, eax
  00086	81 e1 03 00 00
	80		 and	 ecx, -2147483645	; 80000003H
  0008c	79 05		 jns	 SHORT $LN365@LoadAttrib
  0008e	49		 dec	 ecx
  0008f	83 c9 fc	 or	 ecx, -4			; fffffffcH
  00092	41		 inc	 ecx
$LN365@LoadAttrib:
  00093	b2 ed		 mov	 dl, -19			; ffffffedH
  00095	2a d1		 sub	 dl, cl
  00097	30 54 05 dc	 xor	 BYTE PTR ___encStr$590416[ebp+eax], dl
  0009b	40		 inc	 eax
  0009c	83 f8 17	 cmp	 eax, 23			; 00000017H
  0009f	7c e3		 jl	 SHORT $LL313@LoadAttrib
  000a1	47		 inc	 edi
  000a2	57		 push	 edi
  000a3	8d 45 dc	 lea	 eax, DWORD PTR ___encStr$590416[ebp]
  000a6	50		 push	 eax
  000a7	8d 85 d4 fe ff
	ff		 lea	 eax, DWORD PTR _szBuf$[ebp]
  000ad	50		 push	 eax
  000ae	89 bd cc fe ff
	ff		 mov	 DWORD PTR tv2031[ebp], edi
  000b4	ff 15 00 00 00
	00		 call	 DWORD PTR __imp__wsprintfA

; 60   : 		m_AttackAttribute.m_vWeaponInfoList[i].m_dwCallTime = (DWORD)rkLoader.LoadInt( szBuf, 0 );

  000ba	8b be 7c 0f 00
	00		 mov	 edi, DWORD PTR [esi+3964]
  000c0	8b 8d c8 fe ff
	ff		 mov	 ecx, DWORD PTR _rkLoader$GSCopy$[ebp]
  000c6	03 bd d0 fe ff
	ff		 add	 edi, DWORD PTR tv2487[ebp]
  000cc	83 c4 0c	 add	 esp, 12			; 0000000cH
  000cf	53		 push	 ebx
  000d0	8d 85 d4 fe ff
	ff		 lea	 eax, DWORD PTR _szBuf$[ebp]
  000d6	50		 push	 eax
  000d7	ff 15 00 00 00
	00		 call	 DWORD PTR __imp_?LoadInt@ioINILoader@@QAEHPBDH@Z
  000dd	89 47 1c	 mov	 DWORD PTR [edi+28], eax
  000e0	8b 86 80 0f 00
	00		 mov	 eax, DWORD PTR [esi+3968]
  000e6	2b 86 7c 0f 00
	00		 sub	 eax, DWORD PTR [esi+3964]
  000ec	6a 28		 push	 40			; 00000028H
  000ee	99		 cdq
  000ef	59		 pop	 ecx
  000f0	f7 f9		 idiv	 ecx
  000f2	8b bd cc fe ff
	ff		 mov	 edi, DWORD PTR tv2031[ebp]
  000f8	83 85 d0 fe ff
	ff 28		 add	 DWORD PTR tv2487[ebp], 40 ; 00000028H
  000ff	3b f8		 cmp	 edi, eax
  00101	0f 8c 3e ff ff
	ff		 jl	 $LL306@LoadAttrib
$LN363@LoadAttrib:

; 61   : 	}
; 62   : 
; 63   : 	for ( int i=0 ; i < (int)m_DownAttackAttribute.m_vWeaponInfoList.size() ; ++i )

  00107	8b 86 d0 0f 00
	00		 mov	 eax, DWORD PTR [esi+4048]
  0010d	2b 86 cc 0f 00
	00		 sub	 eax, DWORD PTR [esi+4044]
  00113	6a 28		 push	 40			; 00000028H
  00115	99		 cdq
  00116	5f		 pop	 edi
  00117	f7 ff		 idiv	 edi
  00119	33 c9		 xor	 ecx, ecx
  0011b	85 c0		 test	 eax, eax
  0011d	0f 8e b2 00 00
	00		 jle	 $LN364@LoadAttrib
  00123	89 9d d0 fe ff
	ff		 mov	 DWORD PTR tv2503[ebp], ebx
$LL204@LoadAttrib:
  00129	6a 07		 push	 7

; 64   : 	{
; 65   : 		wsprintf_e( szBuf, "down_attack_type%d_call_time", i+1 );

  0012b	c7 45 d8 89 83
	9c 84		 mov	 DWORD PTR ___encStr$590575[ebp], -2070117495 ; 849c8389H
  00132	c7 45 dc b2 8d
	9f 9e		 mov	 DWORD PTR ___encStr$590575[ebp+4], -1633710670 ; 9e9f8db2H
  00139	c7 45 e0 8c 8f
	80 b5		 mov	 DWORD PTR ___encStr$590575[ebp+8], -1249865844 ; b5808f8cH
  00140	c7 45 e4 99 95
	9b 8f		 mov	 DWORD PTR ___encStr$590575[ebp+12], -1885629031 ; 8f9b9599H
  00147	c7 45 e8 c8 88
	b4 89		 mov	 DWORD PTR ___encStr$590575[ebp+16], -1984657208 ; 89b488c8H
  0014e	c7 45 ec 8c 80
	87 b5		 mov	 DWORD PTR ___encStr$590575[ebp+20], -1249410932 ; b587808cH
  00155	c7 45 f0 99 85
	86 8f		 mov	 DWORD PTR ___encStr$590575[ebp+24], -1887009383 ; 8f868599H
  0015c	8d 45 d8	 lea	 eax, DWORD PTR ___encStr$590575[ebp]
  0015f	88 5d f4	 mov	 BYTE PTR ___encStr$590575[ebp+28], bl
  00162	5a		 pop	 edx
$LL328@LoadAttrib:
  00163	81 30 ed ec eb
	ea		 xor	 DWORD PTR [eax], -353637139 ; eaebecedH
  00169	83 c0 04	 add	 eax, 4
  0016c	4a		 dec	 edx
  0016d	75 f4		 jne	 SHORT $LL328@LoadAttrib
  0016f	41		 inc	 ecx
  00170	51		 push	 ecx
  00171	8d 45 d8	 lea	 eax, DWORD PTR ___encStr$590575[ebp]
  00174	50		 push	 eax
  00175	8d 85 d4 fe ff
	ff		 lea	 eax, DWORD PTR _szBuf$[ebp]
  0017b	50		 push	 eax
  0017c	89 8d cc fe ff
	ff		 mov	 DWORD PTR tv2075[ebp], ecx
  00182	ff 15 00 00 00
	00		 call	 DWORD PTR __imp__wsprintfA

; 66   : 		m_DownAttackAttribute.m_vWeaponInfoList[i].m_dwCallTime = (DWORD)rkLoader.LoadInt( szBuf, 0 );

  00188	8b be cc 0f 00
	00		 mov	 edi, DWORD PTR [esi+4044]
  0018e	8b 8d c8 fe ff
	ff		 mov	 ecx, DWORD PTR _rkLoader$GSCopy$[ebp]
  00194	03 bd d0 fe ff
	ff		 add	 edi, DWORD PTR tv2503[ebp]
  0019a	83 c4 0c	 add	 esp, 12			; 0000000cH
  0019d	53		 push	 ebx
  0019e	8d 85 d4 fe ff
	ff		 lea	 eax, DWORD PTR _szBuf$[ebp]
  001a4	50		 push	 eax
  001a5	ff 15 00 00 00
	00		 call	 DWORD PTR __imp_?LoadInt@ioINILoader@@QAEHPBDH@Z
  001ab	89 47 1c	 mov	 DWORD PTR [edi+28], eax
  001ae	8b 86 d0 0f 00
	00		 mov	 eax, DWORD PTR [esi+4048]
  001b4	2b 86 cc 0f 00
	00		 sub	 eax, DWORD PTR [esi+4044]
  001ba	6a 28		 push	 40			; 00000028H
  001bc	99		 cdq
  001bd	5f		 pop	 edi
  001be	f7 ff		 idiv	 edi
  001c0	8b 8d cc fe ff
	ff		 mov	 ecx, DWORD PTR tv2075[ebp]
  001c6	83 85 d0 fe ff
	ff 28		 add	 DWORD PTR tv2503[ebp], 40 ; 00000028H
  001cd	3b c8		 cmp	 ecx, eax
  001cf	0f 8c 54 ff ff
	ff		 jl	 $LL204@LoadAttrib
$LN364@LoadAttrib:

; 67   : 	}
; 68   : 
; 69   : 	for ( int i=0 ; i < (int)m_JumpAttackAttribute.m_vWeaponInfoList.size() ; ++i )

  001d5	8b 86 20 10 00
	00		 mov	 eax, DWORD PTR [esi+4128]
  001db	2b 86 1c 10 00
	00		 sub	 eax, DWORD PTR [esi+4124]
  001e1	6a 28		 push	 40			; 00000028H
  001e3	99		 cdq
  001e4	5f		 pop	 edi
  001e5	f7 ff		 idiv	 edi
  001e7	33 c9		 xor	 ecx, ecx
  001e9	85 c0		 test	 eax, eax
  001eb	0f 8e b4 00 00
	00		 jle	 $LN100@LoadAttrib
  001f1	89 9d d0 fe ff
	ff		 mov	 DWORD PTR tv2519[ebp], ebx
$LL102@LoadAttrib:
  001f7	6a 07		 push	 7

; 70   : 	{
; 71   : 		wsprintf_e( szBuf, "jump_attack_type%d_call_time", i+1 );

  001f9	c7 45 d8 87 99
	86 9a		 mov	 DWORD PTR ___encStr$590733[ebp], -1702454905 ; 9a869987H
  00200	c7 45 dc b2 8d
	9f 9e		 mov	 DWORD PTR ___encStr$590733[ebp+4], -1633710670 ; 9e9f8db2H
  00207	c7 45 e0 8c 8f
	80 b5		 mov	 DWORD PTR ___encStr$590733[ebp+8], -1249865844 ; b5808f8cH
  0020e	c7 45 e4 99 95
	9b 8f		 mov	 DWORD PTR ___encStr$590733[ebp+12], -1885629031 ; 8f9b9599H
  00215	c7 45 e8 c8 88
	b4 89		 mov	 DWORD PTR ___encStr$590733[ebp+16], -1984657208 ; 89b488c8H
  0021c	c7 45 ec 8c 80
	87 b5		 mov	 DWORD PTR ___encStr$590733[ebp+20], -1249410932 ; b587808cH
  00223	c7 45 f0 99 85
	86 8f		 mov	 DWORD PTR ___encStr$590733[ebp+24], -1887009383 ; 8f868599H
  0022a	8d 45 d8	 lea	 eax, DWORD PTR ___encStr$590733[ebp]
  0022d	88 5d f4	 mov	 BYTE PTR ___encStr$590733[ebp+28], bl
  00230	5a		 pop	 edx
$LL340@LoadAttrib:
  00231	81 30 ed ec eb
	ea		 xor	 DWORD PTR [eax], -353637139 ; eaebecedH
  00237	83 c0 04	 add	 eax, 4
  0023a	4a		 dec	 edx
  0023b	75 f4		 jne	 SHORT $LL340@LoadAttrib
  0023d	8d 41 01	 lea	 eax, DWORD PTR [ecx+1]
  00240	50		 push	 eax
  00241	89 85 cc fe ff
	ff		 mov	 DWORD PTR tv2118[ebp], eax
  00247	8d 45 d8	 lea	 eax, DWORD PTR ___encStr$590733[ebp]
  0024a	50		 push	 eax
  0024b	8d 85 d4 fe ff
	ff		 lea	 eax, DWORD PTR _szBuf$[ebp]
  00251	50		 push	 eax
  00252	ff 15 00 00 00
	00		 call	 DWORD PTR __imp__wsprintfA

; 72   : 		m_JumpAttackAttribute.m_vWeaponInfoList[i].m_dwCallTime = (DWORD)rkLoader.LoadInt( szBuf, 0 );

  00258	8b be 1c 10 00
	00		 mov	 edi, DWORD PTR [esi+4124]
  0025e	8b 8d c8 fe ff
	ff		 mov	 ecx, DWORD PTR _rkLoader$GSCopy$[ebp]
  00264	03 bd d0 fe ff
	ff		 add	 edi, DWORD PTR tv2519[ebp]
  0026a	83 c4 0c	 add	 esp, 12			; 0000000cH
  0026d	53		 push	 ebx
  0026e	8d 85 d4 fe ff
	ff		 lea	 eax, DWORD PTR _szBuf$[ebp]
  00274	50		 push	 eax
  00275	ff 15 00 00 00
	00		 call	 DWORD PTR __imp_?LoadInt@ioINILoader@@QAEHPBDH@Z
  0027b	89 47 1c	 mov	 DWORD PTR [edi+28], eax
  0027e	8b 86 20 10 00
	00		 mov	 eax, DWORD PTR [esi+4128]
  00284	2b 86 1c 10 00
	00		 sub	 eax, DWORD PTR [esi+4124]
  0028a	6a 28		 push	 40			; 00000028H
  0028c	99		 cdq
  0028d	5f		 pop	 edi
  0028e	f7 ff		 idiv	 edi
  00290	8b 8d cc fe ff
	ff		 mov	 ecx, DWORD PTR tv2118[ebp]
  00296	83 85 d0 fe ff
	ff 28		 add	 DWORD PTR tv2519[ebp], 40 ; 00000028H
  0029d	3b c8		 cmp	 ecx, eax
  0029f	0f 8c 52 ff ff
	ff		 jl	 $LL102@LoadAttrib
$LN100@LoadAttrib:

; 73   : 	}
; 74   : }

  002a5	8b 4d fc	 mov	 ecx, DWORD PTR __$ArrayPad$[ebp]
  002a8	5f		 pop	 edi
  002a9	5e		 pop	 esi
  002aa	33 cd		 xor	 ecx, ebp
  002ac	5b		 pop	 ebx
  002ad	e8 00 00 00 00	 call	 @__security_check_cookie@4
  002b2	c9		 leave
  002b3	c2 04 00	 ret	 4
?LoadAttributeCallTimeList@ioCircleReserveAttackSkill@@IAEXAAVioINILoader@@@Z ENDP ; ioCircleReserveAttackSkill::LoadAttributeCallTimeList
_TEXT	ENDS
EXTRN	??3@YAXPAX@Z:PROC				; operator delete
EXTRN	??2@YAPAXI@Z:PROC				; operator new
;	COMDAT xdata$x
xdata$x	SEGMENT
__unwindtable$?Clone@ioCircleReserveAttackSkill@@UAEPAVioSkill@@XZ DD 0ffffffffH
	DD	FLAT:__unwindfunclet$?Clone@ioCircleReserveAttackSkill@@UAEPAVioSkill@@XZ$0
__ehfuncinfo$?Clone@ioCircleReserveAttackSkill@@UAEPAVioSkill@@XZ DD 019930522H
	DD	01H
	DD	FLAT:__unwindtable$?Clone@ioCircleReserveAttackSkill@@UAEPAVioSkill@@XZ
	DD	2 DUP(00H)
	DD	2 DUP(00H)
	DD	00H
	DD	01H
; Function compile flags: /Ogsp
xdata$x	ENDS
;	COMDAT ?Clone@ioCircleReserveAttackSkill@@UAEPAVioSkill@@XZ
_TEXT	SEGMENT
$T594197 = -16						; size = 4
__$EHRec$ = -12						; size = 12
?Clone@ioCircleReserveAttackSkill@@UAEPAVioSkill@@XZ PROC ; ioCircleReserveAttackSkill::Clone, COMDAT
; _this$ = ecx

; 77   : {

  00000	6a 04		 push	 4
  00002	b8 00 00 00 00	 mov	 eax, __ehhandler$?Clone@ioCircleReserveAttackSkill@@UAEPAVioSkill@@XZ
  00007	e8 00 00 00 00	 call	 __EH_prolog3
  0000c	8b f1		 mov	 esi, ecx

; 78   : 	return new ioCircleReserveAttackSkill( *this );

  0000e	68 20 11 00 00	 push	 4384			; 00001120H
  00013	e8 00 00 00 00	 call	 ??2@YAPAXI@Z		; operator new
  00018	59		 pop	 ecx
  00019	8b c8		 mov	 ecx, eax
  0001b	89 4d f0	 mov	 DWORD PTR $T594197[ebp], ecx
  0001e	33 c0		 xor	 eax, eax
  00020	89 45 fc	 mov	 DWORD PTR __$EHRec$[ebp+8], eax
  00023	3b c8		 cmp	 ecx, eax
  00025	74 06		 je	 SHORT $LN3@Clone
  00027	56		 push	 esi
  00028	e8 00 00 00 00	 call	 ??0ioCircleReserveAttackSkill@@QAE@ABV0@@Z ; ioCircleReserveAttackSkill::ioCircleReserveAttackSkill
$LN3@Clone:

; 79   : }

  0002d	e8 00 00 00 00	 call	 __EH_epilog3
  00032	c3		 ret	 0
_TEXT	ENDS
;	COMDAT text$x
text$x	SEGMENT
__unwindfunclet$?Clone@ioCircleReserveAttackSkill@@UAEPAVioSkill@@XZ$0:
  00000	ff 75 f0	 push	 DWORD PTR $T594197[ebp]
  00003	e8 00 00 00 00	 call	 ??3@YAXPAX@Z		; operator delete
  00008	59		 pop	 ecx
  00009	c3		 ret	 0
__ehhandler$?Clone@ioCircleReserveAttackSkill@@UAEPAVioSkill@@XZ:
  0000a	8b 54 24 08	 mov	 edx, DWORD PTR [esp+8]
  0000e	8d 42 0c	 lea	 eax, DWORD PTR [edx+12]
  00011	8b 4a ec	 mov	 ecx, DWORD PTR [edx-20]
  00014	33 c8		 xor	 ecx, eax
  00016	e8 00 00 00 00	 call	 @__security_check_cookie@4
  0001b	b8 00 00 00 00	 mov	 eax, OFFSET __ehfuncinfo$?Clone@ioCircleReserveAttackSkill@@UAEPAVioSkill@@XZ
  00020	e9 00 00 00 00	 jmp	 ___CxxFrameHandler3
text$x	ENDS
?Clone@ioCircleReserveAttackSkill@@UAEPAVioSkill@@XZ ENDP ; ioCircleReserveAttackSkill::Clone
PUBLIC	__real@bf800000
PUBLIC	_pChar$GSCopy$
PUBLIC	__$ArrayPad$
EXTRN	_D3DXVec3Normalize@8:PROC
EXTRN	__imp_??D@YA?AUD3DXVECTOR3@@ABUD3DXQUATERNION@@ABU0@@Z:PROC
EXTRN	?OnSkillStart@ioAttackSkill@@UAE_NPAVioBaseChar@@@Z:PROC ; ioAttackSkill::OnSkillStart
;	COMDAT __real@bf800000
; File c:\program files (x86)\microsoft directx sdk (june 2010)\include\d3dx9math.inl
CONST	SEGMENT
__real@bf800000 DD 0bf800000r			; -1
; Function compile flags: /Ogsp
; File d:\lost saga for developer\youtube\tutorial\source\src\lsclient\iocirclereserveattackskill.cpp
CONST	ENDS
;	COMDAT ?OnSkillStart@ioCircleReserveAttackSkill@@UAE_NPAVioBaseChar@@@Z
_TEXT	SEGMENT
_pChar$GSCopy$ = -40					; size = 4
_fCircleOffset$590901 = -32				; size = 4
_pZeus$590898 = -32					; size = 4
$T590896 = -28						; size = 12
_vPlayerPos$590902 = -16				; size = 12
$T590895 = -16						; size = 12
__$ArrayPad$ = -4					; size = 4
_pChar$ = 8						; size = 4
?OnSkillStart@ioCircleReserveAttackSkill@@UAE_NPAVioBaseChar@@@Z PROC ; ioCircleReserveAttackSkill::OnSkillStart, COMDAT
; _this$ = ecx

; 82   : {

  00000	55		 push	 ebp
  00001	8b ec		 mov	 ebp, esp
  00003	83 ec 28	 sub	 esp, 40			; 00000028H
  00006	a1 00 00 00 00	 mov	 eax, DWORD PTR ___security_cookie
  0000b	33 c5		 xor	 eax, ebp
  0000d	89 45 fc	 mov	 DWORD PTR __$ArrayPad$[ebp], eax
  00010	53		 push	 ebx
  00011	56		 push	 esi
  00012	8b 75 08	 mov	 esi, DWORD PTR _pChar$[ebp]

; 83   : 	if( !ioAttackSkill::OnSkillStart( pChar ) )

  00015	56		 push	 esi
  00016	8b d9		 mov	 ebx, ecx

; 99   : 			{
; 100  : 				float fCircleOffset = pZeus->GetCircleDefaultOffset();

  00018	89 75 d8	 mov	 DWORD PTR _pChar$GSCopy$[ebp], esi
  0001b	e8 00 00 00 00	 call	 ?OnSkillStart@ioAttackSkill@@UAE_NPAVioBaseChar@@@Z ; ioAttackSkill::OnSkillStart
  00020	84 c0		 test	 al, al
  00022	0f 84 e6 01 00
	00		 je	 $LN5@OnSkillSta
$LN4@OnSkillSta:
  00028	57		 push	 edi

; 84   : 		return false;
; 85   : 
; 86   : 	ClearData();

  00029	8b cb		 mov	 ecx, ebx
  0002b	e8 00 00 00 00	 call	 ?ClearData@ioCircleReserveAttackSkill@@IAEXXZ ; ioCircleReserveAttackSkill::ClearData

; 87   : 
; 88   : 	m_vMoveDir = pChar->GetTargetRot() * D3DXVECTOR3( 0.0f, 0.0f, -1.0f );

  00030	0f 57 c0	 xorps	 xmm0, xmm0
  00033	8d 45 f0	 lea	 eax, DWORD PTR $T590895[ebp]
  00036	50		 push	 eax
  00037	81 c6 a4 06 00
	00		 add	 esi, 1700		; 000006a4H
  0003d	8d 45 e4	 lea	 eax, DWORD PTR $T590896[ebp]
  00040	f3 0f 11 45 f0	 movss	 DWORD PTR $T590895[ebp], xmm0
  00045	f3 0f 11 45 f4	 movss	 DWORD PTR $T590895[ebp+4], xmm0
  0004a	f3 0f 10 05 00
	00 00 00	 movss	 xmm0, DWORD PTR __real@bf800000
  00052	56		 push	 esi
  00053	50		 push	 eax
  00054	f3 0f 11 45 f8	 movss	 DWORD PTR $T590895[ebp+8], xmm0
  00059	ff 15 00 00 00
	00		 call	 DWORD PTR __imp_??D@YA?AUD3DXVECTOR3@@ABUD3DXQUATERNION@@ABU0@@Z

; 89   : 
; 90   : 	if( pChar->IsNeedProcess() )

  0005f	8b 4d d8	 mov	 ecx, DWORD PTR _pChar$GSCopy$[ebp]
  00062	8b f0		 mov	 esi, eax
  00064	8d bb f0 10 00
	00		 lea	 edi, DWORD PTR [ebx+4336]
  0006a	a5		 movsd
  0006b	a5		 movsd
  0006c	a5		 movsd
  0006d	8b 01		 mov	 eax, DWORD PTR [ecx]
  0006f	83 c4 0c	 add	 esp, 12			; 0000000cH
  00072	ff 90 00 01 00
	00		 call	 DWORD PTR [eax+256]
  00078	84 c0		 test	 al, al
  0007a	0f 84 8b 01 00
	00		 je	 $LN1@OnSkillSta

; 91   : 	{
; 92   : 		//  circlepos  .
; 93   : 		ioZeusItem *pZeus = ToZeusItem( GetOwnerItem() );

  00080	ff b3 a4 02 00
	00		 push	 DWORD PTR [ebx+676]
  00086	e8 00 00 00 00	 call	 ?ToZeusItem@@YAPAVioZeusItem@@PAVioItem@@@Z ; ToZeusItem
  0008b	59		 pop	 ecx
  0008c	89 45 e0	 mov	 DWORD PTR _pZeus$590898[ebp], eax

; 94   : 		if( pZeus )

  0008f	85 c0		 test	 eax, eax
  00091	0f 84 74 01 00
	00		 je	 $LN1@OnSkillSta

; 95   : 		{
; 96   : 			m_vCirclePos = pZeus->GetCirclePos();

  00097	8d b0 c8 1a 00
	00		 lea	 esi, DWORD PTR [eax+6856]
  0009d	8d bb e4 10 00
	00		 lea	 edi, DWORD PTR [ebx+4324]
  000a3	a5		 movsd

; 97   : 			D3DXVec3Normalize( &m_vMoveDir, &m_vMoveDir );

  000a4	8b c3		 mov	 eax, ebx
  000a6	05 f0 10 00 00	 add	 eax, 4336		; 000010f0H
  000ab	a5		 movsd
  000ac	50		 push	 eax
  000ad	50		 push	 eax
  000ae	a5		 movsd
  000af	e8 00 00 00 00	 call	 _D3DXVec3Normalize@8

; 98   : 			if ( m_vCirclePos == ioMath::VEC3_ZERO  )

  000b4	8b 0d 00 00 00
	00		 mov	 ecx, DWORD PTR __imp_?VEC3_ZERO@ioMath@@2UD3DXVECTOR3@@A
  000ba	f3 0f 10 83 e4
	10 00 00	 movss	 xmm0, DWORD PTR [ebx+4324]
  000c2	f3 0f 10 09	 movss	 xmm1, DWORD PTR [ecx]
  000c6	0f 5a c0	 cvtps2pd xmm0, xmm0
  000c9	0f 5a c9	 cvtps2pd xmm1, xmm1
  000cc	66 0f 2e c1	 ucomisd xmm0, xmm1
  000d0	9f		 lahf
  000d1	f6 c4 44	 test	 ah, 68			; 00000044H
  000d4	0f 8a 31 01 00
	00		 jp	 $LN1@OnSkillSta
  000da	f3 0f 10 83 e8
	10 00 00	 movss	 xmm0, DWORD PTR [ebx+4328]
  000e2	f3 0f 10 49 04	 movss	 xmm1, DWORD PTR [ecx+4]
  000e7	0f 5a c0	 cvtps2pd xmm0, xmm0
  000ea	0f 5a c9	 cvtps2pd xmm1, xmm1
  000ed	66 0f 2e c1	 ucomisd xmm0, xmm1
  000f1	9f		 lahf
  000f2	f6 c4 44	 test	 ah, 68			; 00000044H
  000f5	0f 8a 10 01 00
	00		 jp	 $LN1@OnSkillSta
  000fb	f3 0f 10 83 ec
	10 00 00	 movss	 xmm0, DWORD PTR [ebx+4332]
  00103	f3 0f 10 49 08	 movss	 xmm1, DWORD PTR [ecx+8]
  00108	0f 5a c0	 cvtps2pd xmm0, xmm0
  0010b	0f 5a c9	 cvtps2pd xmm1, xmm1
  0010e	66 0f 2e c1	 ucomisd xmm0, xmm1
  00112	9f		 lahf
  00113	f6 c4 44	 test	 ah, 68			; 00000044H
  00116	0f 8a ef 00 00
	00		 jp	 $LN1@OnSkillSta

; 99   : 			{
; 100  : 				float fCircleOffset = pZeus->GetCircleDefaultOffset();

  0011c	8b 45 e0	 mov	 eax, DWORD PTR _pZeus$590898[ebp]
  0011f	f3 0f 10 80 d4
	1a 00 00	 movss	 xmm0, DWORD PTR [eax+6868]

; 101  : 				D3DXVECTOR3 vPlayerPos = pChar->GetWorldPosition();

  00127	8b 4d d8	 mov	 ecx, DWORD PTR _pChar$GSCopy$[ebp]
  0012a	8b 01		 mov	 eax, DWORD PTR [ecx]
  0012c	f3 0f 11 45 e0	 movss	 DWORD PTR _fCircleOffset$590901[ebp], xmm0
  00131	ff 50 70	 call	 DWORD PTR [eax+112]

; 102  : 				float fOwnerPosHeight = vPlayerPos.y;
; 103  : 				m_vCirclePos = vPlayerPos;
; 104  : 				m_vCirclePos += ( m_vMoveDir * fCircleOffset );

  00134	f3 0f 10 45 e0	 movss	 xmm0, DWORD PTR _fCircleOffset$590901[ebp]
  00139	f3 0f 10 55 e0	 movss	 xmm2, DWORD PTR _fCircleOffset$590901[ebp]
  0013e	8b f0		 mov	 esi, eax
  00140	8d 7d f0	 lea	 edi, DWORD PTR _vPlayerPos$590902[ebp]
  00143	a5		 movsd
  00144	a5		 movsd
  00145	f3 0f 10 5d e0	 movss	 xmm3, DWORD PTR _fCircleOffset$590901[ebp]
  0014a	a5		 movsd
  0014b	8d 75 f0	 lea	 esi, DWORD PTR _vPlayerPos$590902[ebp]
  0014e	8d bb e4 10 00
	00		 lea	 edi, DWORD PTR [ebx+4324]
  00154	a5		 movsd
  00155	a5		 movsd
  00156	0f 5a c0	 cvtps2pd xmm0, xmm0
  00159	a5		 movsd
  0015a	8b c3		 mov	 eax, ebx
  0015c	f3 0f 10 88 f0
	10 00 00	 movss	 xmm1, DWORD PTR [eax+4336]
  00164	0f 5a c9	 cvtps2pd xmm1, xmm1
  00167	f2 0f 59 c1	 mulsd	 xmm0, xmm1
  0016b	f3 0f 10 88 f4
	10 00 00	 movss	 xmm1, DWORD PTR [eax+4340]
  00173	f2 0f 5a c0	 cvtsd2ss xmm0, xmm0
  00177	f3 0f 5a c0	 cvtss2sd xmm0, xmm0
  0017b	0f 5a c9	 cvtps2pd xmm1, xmm1
  0017e	0f 5a d2	 cvtps2pd xmm2, xmm2
  00181	f2 0f 59 ca	 mulsd	 xmm1, xmm2
  00185	f3 0f 10 90 f8
	10 00 00	 movss	 xmm2, DWORD PTR [eax+4344]
  0018d	0f 5a db	 cvtps2pd xmm3, xmm3
  00190	0f 5a d2	 cvtps2pd xmm2, xmm2
  00193	f2 0f 59 d3	 mulsd	 xmm2, xmm3
  00197	f3 0f 10 9b e4
	10 00 00	 movss	 xmm3, DWORD PTR [ebx+4324]
  0019f	0f 5a db	 cvtps2pd xmm3, xmm3
  001a2	f2 0f 58 d8	 addsd	 xmm3, xmm0
  001a6	0f 57 c0	 xorps	 xmm0, xmm0
  001a9	66 0f 5a c3	 cvtpd2ps xmm0, xmm3
  001ad	f3 0f 11 83 e4
	10 00 00	 movss	 DWORD PTR [ebx+4324], xmm0
  001b5	f3 0f 10 83 e8
	10 00 00	 movss	 xmm0, DWORD PTR [ebx+4328]
  001bd	0f 5a c0	 cvtps2pd xmm0, xmm0
  001c0	66 0f 5a c9	 cvtpd2ps xmm1, xmm1
  001c4	f3 0f 5a c9	 cvtss2sd xmm1, xmm1
  001c8	f2 0f 58 c1	 addsd	 xmm0, xmm1
  001cc	66 0f 5a c0	 cvtpd2ps xmm0, xmm0
  001d0	f3 0f 11 83 e8
	10 00 00	 movss	 DWORD PTR [ebx+4328], xmm0
  001d8	f3 0f 10 83 ec
	10 00 00	 movss	 xmm0, DWORD PTR [ebx+4332]
  001e0	0f 5a c0	 cvtps2pd xmm0, xmm0
  001e3	66 0f 5a d2	 cvtpd2ps xmm2, xmm2
  001e7	0f 57 c9	 xorps	 xmm1, xmm1
  001ea	f3 0f 5a ca	 cvtss2sd xmm1, xmm2
  001ee	f2 0f 58 c1	 addsd	 xmm0, xmm1
  001f2	66 0f 5a c0	 cvtpd2ps xmm0, xmm0
  001f6	f3 0f 11 83 ec
	10 00 00	 movss	 DWORD PTR [ebx+4332], xmm0

; 105  : 				m_vCirclePos.y = fOwnerPosHeight;

  001fe	f3 0f 10 45 f4	 movss	 xmm0, DWORD PTR _vPlayerPos$590902[ebp+4]
  00203	f3 0f 11 80 e8
	10 00 00	 movss	 DWORD PTR [eax+4328], xmm0
$LN1@OnSkillSta:

; 106  : 			}
; 107  : 		}
; 108  : 	}
; 109  : 	
; 110  : 	return true;

  0020b	b0 01		 mov	 al, 1
  0020d	5f		 pop	 edi
$LN5@OnSkillSta:

; 111  : }

  0020e	8b 4d fc	 mov	 ecx, DWORD PTR __$ArrayPad$[ebp]
  00211	5e		 pop	 esi
  00212	33 cd		 xor	 ecx, ebp
  00214	5b		 pop	 ebx
  00215	e8 00 00 00 00	 call	 @__security_check_cookie@4
  0021a	c9		 leave
  0021b	c2 04 00	 ret	 4
?OnSkillStart@ioCircleReserveAttackSkill@@UAE_NPAVioBaseChar@@@Z ENDP ; ioCircleReserveAttackSkill::OnSkillStart
_TEXT	ENDS
EXTRN	?OnSkillEnd@ioAttackSkill@@UAEXPAVioBaseChar@@@Z:PROC ; ioAttackSkill::OnSkillEnd
; Function compile flags: /Ogsp
;	COMDAT ?OnSkillEnd@ioCircleReserveAttackSkill@@UAEXPAVioBaseChar@@@Z
_TEXT	SEGMENT
_pChar$ = 8						; size = 4
?OnSkillEnd@ioCircleReserveAttackSkill@@UAEXPAVioBaseChar@@@Z PROC ; ioCircleReserveAttackSkill::OnSkillEnd, COMDAT
; _this$ = ecx

; 114  : {

  00000	55		 push	 ebp
  00001	8b ec		 mov	 ebp, esp
  00003	56		 push	 esi

; 115  : 	ioAttackSkill::OnSkillEnd( pChar );

  00004	ff 75 08	 push	 DWORD PTR _pChar$[ebp]
  00007	8b f1		 mov	 esi, ecx
  00009	e8 00 00 00 00	 call	 ?OnSkillEnd@ioAttackSkill@@UAEXPAVioBaseChar@@@Z ; ioAttackSkill::OnSkillEnd

; 116  : 
; 117  : 	ClearData();

  0000e	8b ce		 mov	 ecx, esi
  00010	e8 00 00 00 00	 call	 ?ClearData@ioCircleReserveAttackSkill@@IAEXXZ ; ioCircleReserveAttackSkill::ClearData

; 118  : 	ioZeusItem *pZeus = ToZeusItem( GetOwnerItem() );

  00015	ff b6 a4 02 00
	00		 push	 DWORD PTR [esi+676]
  0001b	e8 00 00 00 00	 call	 ?ToZeusItem@@YAPAVioZeusItem@@PAVioItem@@@Z ; ToZeusItem
  00020	59		 pop	 ecx
  00021	5e		 pop	 esi

; 119  : 	if( pZeus )

  00022	85 c0		 test	 eax, eax
  00024	74 0f		 je	 SHORT $LN1@OnSkillEnd

; 120  : 		pZeus->SetNoneState( pChar );

  00026	8b 10		 mov	 edx, DWORD PTR [eax]
  00028	6a 00		 push	 0
  0002a	ff 75 08	 push	 DWORD PTR _pChar$[ebp]
  0002d	8b c8		 mov	 ecx, eax
  0002f	ff 92 4c 01 00
	00		 call	 DWORD PTR [edx+332]
$LN1@OnSkillEnd:

; 121  : }

  00035	5d		 pop	 ebp
  00036	c2 04 00	 ret	 4
?OnSkillEnd@ioCircleReserveAttackSkill@@UAEXPAVioBaseChar@@@Z ENDP ; ioCircleReserveAttackSkill::OnSkillEnd
_TEXT	ENDS
PUBLIC	__real@41f0000000000000
PUBLIC	__$ArrayPad$
EXTRN	??1SP2Packet@@UAE@XZ:PROC			; SP2Packet::~SP2Packet
EXTRN	?SendToAllPlayingUser@P2PNetwork@@YAXAAVSP2Packet@@PAVioBaseChar@@@Z:PROC ; P2PNetwork::SendToAllPlayingUser
EXTRN	??6SP2Packet@@QAEAAV0@ABUD3DXVECTOR3@@@Z:PROC	; SP2Packet::operator<<
EXTRN	??6SP2Packet@@QAEAAV0@H@Z:PROC			; SP2Packet::operator<<
EXTRN	??6SP2Packet@@QAEAAV0@ABVioHashString@@@Z:PROC	; SP2Packet::operator<<
EXTRN	??0SP2Packet@@QAE@K@Z:PROC			; SP2Packet::SP2Packet
EXTRN	?GetFirstFireTime@ioBaseChar@@QAEMABVioHashString@@@Z:PROC ; ioBaseChar::GetFirstFireTime
EXTRN	__imp_?GetAnimationIdx@ioEntityGroup@@QAEHABVioHashString@@@Z:PROC
EXTRN	__imp_?GetLoopSec@ioFrameTimer@@QBEKXZ:PROC
EXTRN	__imp_?GetSingleton@ioFrameTimer@@SAAAV1@XZ:PROC
EXTRN	?AttackSkillFire@ioAttackSkill@@MAEXPAVioBaseChar@@@Z:PROC ; ioAttackSkill::AttackSkillFire
EXTRN	?EnableRefreshFireTimeList@ioAttackSkill@@IAEX_N@Z:PROC ; ioAttackSkill::EnableRefreshFireTimeList
EXTRN	__chkstk:PROC
EXTRN	__ftol2:PROC
;	COMDAT __real@41f0000000000000
; File d:\lost saga for developer\youtube\tutorial\source\src\lsclient\ioskill.h
CONST	SEGMENT
__real@41f0000000000000 DQ 041f0000000000000r	; 4.29497e+009
CONST	ENDS
;	COMDAT xdata$x
xdata$x	SEGMENT
__unwindtable$?AttackSkillFire@ioCircleReserveAttackSkill@@MAEXPAVioBaseChar@@@Z DD 0ffffffffH
	DD	FLAT:__unwindfunclet$?AttackSkillFire@ioCircleReserveAttackSkill@@MAEXPAVioBaseChar@@@Z$0
	DD	00H
	DD	FLAT:__unwindfunclet$?AttackSkillFire@ioCircleReserveAttackSkill@@MAEXPAVioBaseChar@@@Z$1
__ehfuncinfo$?AttackSkillFire@ioCircleReserveAttackSkill@@MAEXPAVioBaseChar@@@Z DD 019930522H
	DD	02H
	DD	FLAT:__unwindtable$?AttackSkillFire@ioCircleReserveAttackSkill@@MAEXPAVioBaseChar@@@Z
	DD	2 DUP(00H)
	DD	2 DUP(00H)
	DD	00H
	DD	01H
; Function compile flags: /Ogsp
; File d:\lost saga for developer\youtube\tutorial\source\src\lsclient\iocirclereserveattackskill.cpp
xdata$x	ENDS
;	COMDAT ?AttackSkillFire@ioCircleReserveAttackSkill@@MAEXPAVioBaseChar@@@Z
_TEXT	SEGMENT
_szSkillMotion$ = -32828				; size = 16
tv250 = -32812						; size = 4
_fFireTime$590931 = -32812				; size = 4
_pGrp$ = -32812						; size = 4
_kPacket$590933 = -32808				; size = 32792
__$ArrayPad$ = -16					; size = 4
__$EHRec$ = -12						; size = 12
_pChar$ = 8						; size = 4
?AttackSkillFire@ioCircleReserveAttackSkill@@MAEXPAVioBaseChar@@@Z PROC ; ioCircleReserveAttackSkill::AttackSkillFire, COMDAT
; _this$ = ecx

; 145  : {

  00000	55		 push	 ebp
  00001	8b ec		 mov	 ebp, esp
  00003	6a ff		 push	 -1
  00005	68 00 00 00 00	 push	 __ehhandler$?AttackSkillFire@ioCircleReserveAttackSkill@@MAEXPAVioBaseChar@@@Z
  0000a	64 a1 00 00 00
	00		 mov	 eax, DWORD PTR fs:0
  00010	50		 push	 eax
  00011	b8 30 80 00 00	 mov	 eax, 32816		; 00008030H
  00016	e8 00 00 00 00	 call	 __chkstk
  0001b	a1 00 00 00 00	 mov	 eax, DWORD PTR ___security_cookie
  00020	33 c5		 xor	 eax, ebp
  00022	89 45 f0	 mov	 DWORD PTR __$ArrayPad$[ebp], eax
  00025	53		 push	 ebx
  00026	56		 push	 esi
  00027	57		 push	 edi
  00028	50		 push	 eax
  00029	8d 45 f4	 lea	 eax, DWORD PTR __$EHRec$[ebp]
  0002c	64 a3 00 00 00
	00		 mov	 DWORD PTR fs:0, eax
  00032	8b 7d 08	 mov	 edi, DWORD PTR _pChar$[ebp]
  00035	8b f1		 mov	 esi, ecx

; 146  : 	if ( !pChar )	

  00037	85 ff		 test	 edi, edi
  00039	0f 84 4b 01 00
	00		 je	 $LN4@AttackSkil

; 147  : 		return;
; 148  : 
; 149  : 	EnableRefreshFireTimeList( false );

  0003f	6a 00		 push	 0
  00041	e8 00 00 00 00	 call	 ?EnableRefreshFireTimeList@ioAttackSkill@@IAEX_N@Z ; ioAttackSkill::EnableRefreshFireTimeList

; 150  : 
; 151  : 	ioAttackSkill::AttackSkillFire( pChar );

  00046	57		 push	 edi
  00047	8b ce		 mov	 ecx, esi
  00049	e8 00 00 00 00	 call	 ?AttackSkillFire@ioAttackSkill@@MAEXPAVioBaseChar@@@Z ; ioAttackSkill::AttackSkillFire

; 152  : 
; 153  : 	m_dwReserveWeaponFireStartTime = FRAMEGETTIME() + GetAttribute().m_dwPreDelay;

  0004e	ff 15 00 00 00
	00		 call	 DWORD PTR __imp_?GetSingleton@ioFrameTimer@@SAAAV1@XZ
  00054	8b c8		 mov	 ecx, eax
  00056	ff 15 00 00 00
	00		 call	 DWORD PTR __imp_?GetLoopSec@ioFrameTimer@@QBEKXZ
  0005c	8b d8		 mov	 ebx, eax
  0005e	8b 06		 mov	 eax, DWORD PTR [esi]
  00060	8b ce		 mov	 ecx, esi
  00062	ff 90 a4 01 00
	00		 call	 DWORD PTR [eax+420]
  00068	03 58 48	 add	 ebx, DWORD PTR [eax+72]

; 154  : 
; 155  : 	ioEntityGroup *pGrp = pChar->GetGroup();
; 156  : 	ioHashString szSkillMotion = GetSkillMotionName();

  0006b	8b ce		 mov	 ecx, esi
  0006d	89 9e 00 11 00
	00		 mov	 DWORD PTR [esi+4352], ebx
  00073	8b df		 mov	 ebx, edi
  00075	8b 43 04	 mov	 eax, DWORD PTR [ebx+4]
  00078	89 85 d4 7f ff
	ff		 mov	 DWORD PTR _pGrp$[ebp], eax
  0007e	8b 06		 mov	 eax, DWORD PTR [esi]
  00080	ff 90 20 01 00
	00		 call	 DWORD PTR [eax+288]
  00086	50		 push	 eax
  00087	8d 8d c4 7f ff
	ff		 lea	 ecx, DWORD PTR _szSkillMotion$[ebp]
  0008d	ff 15 00 00 00
	00		 call	 DWORD PTR __imp_??0ioHashString@@QAE@ABV0@@Z

; 157  : 
; 158  : 	int iAniID = pGrp->GetAnimationIdx( szSkillMotion );

  00093	8b 8d d4 7f ff
	ff		 mov	 ecx, DWORD PTR _pGrp$[ebp]
  00099	83 65 fc 00	 and	 DWORD PTR __$EHRec$[ebp+8], 0
  0009d	8d 85 c4 7f ff
	ff		 lea	 eax, DWORD PTR _szSkillMotion$[ebp]
  000a3	50		 push	 eax
  000a4	ff 15 00 00 00
	00		 call	 DWORD PTR __imp_?GetAnimationIdx@ioEntityGroup@@QAEHABVioHashString@@@Z

; 159  : 	if( iAniID != -1 )

  000aa	83 f8 ff	 cmp	 eax, -1
  000ad	74 4a		 je	 SHORT $LN2@AttackSkil

; 160  : 	{
; 161  : 		float fFireTime = pChar->GetFirstFireTime( szSkillMotion );

  000af	8d 85 c4 7f ff
	ff		 lea	 eax, DWORD PTR _szSkillMotion$[ebp]
  000b5	50		 push	 eax
  000b6	8b cb		 mov	 ecx, ebx
  000b8	e8 00 00 00 00	 call	 ?GetFirstFireTime@ioBaseChar@@QAEMABVioHashString@@@Z ; ioBaseChar::GetFirstFireTime
  000bd	d9 9d d4 7f ff
	ff		 fstp	 DWORD PTR _fFireTime$590931[ebp]

; 162  : 		m_dwReserveWeaponFireStartTime += fFireTime * GetAttribute().m_fAttackAniRate;

  000c3	8b 06		 mov	 eax, DWORD PTR [esi]
  000c5	8b ce		 mov	 ecx, esi
  000c7	ff 90 a4 01 00
	00		 call	 DWORD PTR [eax+420]
  000cd	d9 40 10	 fld	 DWORD PTR [eax+16]
  000d0	8b 86 00 11 00
	00		 mov	 eax, DWORD PTR [esi+4352]
  000d6	d8 8d d4 7f ff
	ff		 fmul	 DWORD PTR _fFireTime$590931[ebp]
  000dc	db 86 00 11 00
	00		 fild	 DWORD PTR [esi+4352]
  000e2	85 c0		 test	 eax, eax
  000e4	79 06		 jns	 SHORT $LN15@AttackSkil
  000e6	dc 05 00 00 00
	00		 fadd	 QWORD PTR __real@41f0000000000000
$LN15@AttackSkil:
  000ec	de c1		 faddp	 ST(1), ST(0)
  000ee	e8 00 00 00 00	 call	 __ftol2
  000f3	89 86 00 11 00
	00		 mov	 DWORD PTR [esi+4352], eax
$LN2@AttackSkil:

; 163  : 	}
; 164  : 
; 165  : 	if ( pChar->IsNeedSendNetwork() )

  000f9	8b 03		 mov	 eax, DWORD PTR [ebx]
  000fb	8b cb		 mov	 ecx, ebx
  000fd	ff 90 04 01 00
	00		 call	 DWORD PTR [eax+260]
  00103	84 c0		 test	 al, al
  00105	74 73		 je	 SHORT $LN1@AttackSkil

; 166  : 	{
; 167  : 		SP2Packet kPacket( CUPK_SKILL_EXTRA_INFO );

  00107	68 39 41 00 00	 push	 16697			; 00004139H
  0010c	8d 8d d8 7f ff
	ff		 lea	 ecx, DWORD PTR _kPacket$590933[ebp]
  00112	e8 00 00 00 00	 call	 ??0SP2Packet@@QAE@K@Z	; SP2Packet::SP2Packet

; 168  : 		kPacket << pChar->GetCharName();

  00117	81 c3 d4 02 00
	00		 add	 ebx, 724		; 000002d4H
  0011d	53		 push	 ebx
  0011e	8d 8d d8 7f ff
	ff		 lea	 ecx, DWORD PTR _kPacket$590933[ebp]
  00124	c6 45 fc 01	 mov	 BYTE PTR __$EHRec$[ebp+8], 1
  00128	e8 00 00 00 00	 call	 ??6SP2Packet@@QAEAAV0@ABVioHashString@@@Z ; SP2Packet::operator<<

; 169  : 		kPacket << GetName();

  0012d	8d 46 24	 lea	 eax, DWORD PTR [esi+36]
  00130	50		 push	 eax
  00131	8d 8d d8 7f ff
	ff		 lea	 ecx, DWORD PTR _kPacket$590933[ebp]
  00137	e8 00 00 00 00	 call	 ??6SP2Packet@@QAEAAV0@ABVioHashString@@@Z ; SP2Packet::operator<<

; 170  : 		kPacket << SST_WEAPON_RESERVE;

  0013c	6a 00		 push	 0
  0013e	8d 8d d8 7f ff
	ff		 lea	 ecx, DWORD PTR _kPacket$590933[ebp]
  00144	e8 00 00 00 00	 call	 ??6SP2Packet@@QAEAAV0@H@Z ; SP2Packet::operator<<

; 171  : 		kPacket << m_vCirclePos;

  00149	81 c6 e4 10 00
	00		 add	 esi, 4324		; 000010e4H
  0014f	56		 push	 esi
  00150	8d 8d d8 7f ff
	ff		 lea	 ecx, DWORD PTR _kPacket$590933[ebp]
  00156	e8 00 00 00 00	 call	 ??6SP2Packet@@QAEAAV0@ABUD3DXVECTOR3@@@Z ; SP2Packet::operator<<

; 172  : 		P2PNetwork::SendToAllPlayingUser( kPacket );

  0015b	8d 85 d8 7f ff
	ff		 lea	 eax, DWORD PTR _kPacket$590933[ebp]
  00161	6a 00		 push	 0
  00163	50		 push	 eax
  00164	e8 00 00 00 00	 call	 ?SendToAllPlayingUser@P2PNetwork@@YAXAAVSP2Packet@@PAVioBaseChar@@@Z ; P2PNetwork::SendToAllPlayingUser
  00169	59		 pop	 ecx
  0016a	59		 pop	 ecx

; 173  : 	}

  0016b	8d 8d d8 7f ff
	ff		 lea	 ecx, DWORD PTR _kPacket$590933[ebp]
  00171	c6 45 fc 00	 mov	 BYTE PTR __$EHRec$[ebp+8], 0
  00175	e8 00 00 00 00	 call	 ??1SP2Packet@@UAE@XZ	; SP2Packet::~SP2Packet
$LN1@AttackSkil:

; 174  : }

  0017a	83 4d fc ff	 or	 DWORD PTR __$EHRec$[ebp+8], -1
  0017e	8d 8d c4 7f ff
	ff		 lea	 ecx, DWORD PTR _szSkillMotion$[ebp]
  00184	ff 15 00 00 00
	00		 call	 DWORD PTR __imp_??1ioHashString@@QAE@XZ
$LN4@AttackSkil:
  0018a	8b 4d f4	 mov	 ecx, DWORD PTR __$EHRec$[ebp]
  0018d	64 89 0d 00 00
	00 00		 mov	 DWORD PTR fs:0, ecx
  00194	59		 pop	 ecx
  00195	5f		 pop	 edi
  00196	5e		 pop	 esi
  00197	5b		 pop	 ebx
  00198	8b 4d f0	 mov	 ecx, DWORD PTR __$ArrayPad$[ebp]
  0019b	33 cd		 xor	 ecx, ebp
  0019d	e8 00 00 00 00	 call	 @__security_check_cookie@4
  001a2	c9		 leave
  001a3	c2 04 00	 ret	 4
_TEXT	ENDS
;	COMDAT text$x
text$x	SEGMENT
__unwindfunclet$?AttackSkillFire@ioCircleReserveAttackSkill@@MAEXPAVioBaseChar@@@Z$0:
  00000	8d 8d c4 7f ff
	ff		 lea	 ecx, DWORD PTR _szSkillMotion$[ebp]
  00006	ff 25 00 00 00
	00		 jmp	 DWORD PTR __imp_??1ioHashString@@QAE@XZ
__unwindfunclet$?AttackSkillFire@ioCircleReserveAttackSkill@@MAEXPAVioBaseChar@@@Z$1:
  0000c	8d 8d d8 7f ff
	ff		 lea	 ecx, DWORD PTR _kPacket$590933[ebp]
  00012	e9 00 00 00 00	 jmp	 ??1SP2Packet@@UAE@XZ	; SP2Packet::~SP2Packet
__ehhandler$?AttackSkillFire@ioCircleReserveAttackSkill@@MAEXPAVioBaseChar@@@Z:
  00017	8b 54 24 08	 mov	 edx, DWORD PTR [esp+8]
  0001b	8d 42 0c	 lea	 eax, DWORD PTR [edx+12]
  0001e	8b 8a c0 7f ff
	ff		 mov	 ecx, DWORD PTR [edx-32832]
  00024	33 c8		 xor	 ecx, eax
  00026	e8 00 00 00 00	 call	 @__security_check_cookie@4
  0002b	8b 4a fc	 mov	 ecx, DWORD PTR [edx-4]
  0002e	33 c8		 xor	 ecx, eax
  00030	e8 00 00 00 00	 call	 @__security_check_cookie@4
  00035	b8 00 00 00 00	 mov	 eax, OFFSET __ehfuncinfo$?AttackSkillFire@ioCircleReserveAttackSkill@@MAEXPAVioBaseChar@@@Z
  0003a	e9 00 00 00 00	 jmp	 ___CxxFrameHandler3
text$x	ENDS
?AttackSkillFire@ioCircleReserveAttackSkill@@MAEXPAVioBaseChar@@@Z ENDP ; ioCircleReserveAttackSkill::AttackSkillFire
PUBLIC	_pChar$GSCopy$
PUBLIC	__$ArrayPad$
PUBLIC	?CallReserveWeapon@ioCircleReserveAttackSkill@@IAEXPAVioBaseChar@@@Z ; ioCircleReserveAttackSkill::CallReserveWeapon
EXTRN	?SetReserveCallWeaponInfo@ioWeaponManager@@QAEXABVioHashString@@ABUWeaponInfo@@ABUD3DXVECTOR3@@2KK_N@Z:PROC ; ioWeaponManager::SetReserveCallWeaponInfo
EXTRN	?GetSingleton@ioWeaponManager@@SAAAV1@XZ:PROC	; ioWeaponManager::GetSingleton
; Function compile flags: /Ogsp
;	COMDAT ?CallReserveWeapon@ioCircleReserveAttackSkill@@IAEXPAVioBaseChar@@@Z
_TEXT	SEGMENT
tv726 = -56						; size = 4
tv673 = -52						; size = 4
tv711 = -48						; size = 4
_dwCurTime$ = -44					; size = 4
_vPlayerPos$ = -40					; size = 12
_fLength$ = -28						; size = 4
_iWeaponCount$ = -24					; size = 4
tv870 = -20						; size = 4
_pChar$GSCopy$ = -20					; size = 4
_vWeaponPos$590954 = -16				; size = 12
__$ArrayPad$ = -4					; size = 4
_pChar$ = 8						; size = 4
?CallReserveWeapon@ioCircleReserveAttackSkill@@IAEXPAVioBaseChar@@@Z PROC ; ioCircleReserveAttackSkill::CallReserveWeapon, COMDAT
; _this$ = ecx

; 177  : {

  00000	55		 push	 ebp
  00001	8b ec		 mov	 ebp, esp
  00003	83 ec 38	 sub	 esp, 56			; 00000038H
  00006	a1 00 00 00 00	 mov	 eax, DWORD PTR ___security_cookie
  0000b	33 c5		 xor	 eax, ebp
  0000d	89 45 fc	 mov	 DWORD PTR __$ArrayPad$[ebp], eax
  00010	53		 push	 ebx
  00011	56		 push	 esi
  00012	8b 75 08	 mov	 esi, DWORD PTR _pChar$[ebp]
  00015	8b d9		 mov	 ebx, ecx

; 199  : 	{
; 200  : 		D3DXVECTOR3 vWeaponPos = vPlayerPos + ( m_vMoveDir * ( ( fLength * (i+1) ) + m_fDefaultCircleOffSet ) );

  00017	89 75 ec	 mov	 DWORD PTR _pChar$GSCopy$[ebp], esi
  0001a	85 f6		 test	 esi, esi
  0001c	0f 84 a1 02 00
	00		 je	 $LN1@CallReserv

; 178  : 	if ( !pChar )	
; 179  : 		return;
; 180  : 
; 181  : 	DWORD dwCurTime = FRAMEGETTIME();

  00022	ff 15 00 00 00
	00		 call	 DWORD PTR __imp_?GetSingleton@ioFrameTimer@@SAAAV1@XZ
  00028	8b c8		 mov	 ecx, eax
  0002a	ff 15 00 00 00
	00		 call	 DWORD PTR __imp_?GetLoopSec@ioFrameTimer@@QBEKXZ
  00030	89 45 d4	 mov	 DWORD PTR _dwCurTime$[ebp], eax

; 182  : 
; 183  : 	int iWeaponCount = GetAttribute().m_vWeaponInfoList.size();

  00033	8b 03		 mov	 eax, DWORD PTR [ebx]
  00035	8b cb		 mov	 ecx, ebx
  00037	ff 90 a4 01 00
	00		 call	 DWORD PTR [eax+420]
  0003d	8b c8		 mov	 ecx, eax
  0003f	8b 41 2c	 mov	 eax, DWORD PTR [ecx+44]
  00042	2b 41 28	 sub	 eax, DWORD PTR [ecx+40]
  00045	6a 28		 push	 40			; 00000028H
  00047	99		 cdq
  00048	59		 pop	 ecx
  00049	f7 f9		 idiv	 ecx
  0004b	89 45 e8	 mov	 DWORD PTR _iWeaponCount$[ebp], eax

; 184  : 	if ( iWeaponCount == 0 )

  0004e	85 c0		 test	 eax, eax
  00050	0f 84 6d 02 00
	00		 je	 $LN1@CallReserv

; 185  : 		return;
; 186  : 
; 187  : 	if ( m_vCirclePos == ioMath::VEC3_ZERO )

  00056	8b 0d 00 00 00
	00		 mov	 ecx, DWORD PTR __imp_?VEC3_ZERO@ioMath@@2UD3DXVECTOR3@@A
  0005c	f3 0f 10 83 e4
	10 00 00	 movss	 xmm0, DWORD PTR [ebx+4324]
  00064	f3 0f 10 09	 movss	 xmm1, DWORD PTR [ecx]
  00068	0f 5a c0	 cvtps2pd xmm0, xmm0
  0006b	0f 5a c9	 cvtps2pd xmm1, xmm1
  0006e	66 0f 2e c1	 ucomisd xmm0, xmm1
  00072	9f		 lahf
  00073	f6 c4 44	 test	 ah, 68			; 00000044H
  00076	7a 3e		 jp	 SHORT $LN15@CallReserv
  00078	f3 0f 10 83 e8
	10 00 00	 movss	 xmm0, DWORD PTR [ebx+4328]
  00080	f3 0f 10 49 04	 movss	 xmm1, DWORD PTR [ecx+4]
  00085	0f 5a c0	 cvtps2pd xmm0, xmm0
  00088	0f 5a c9	 cvtps2pd xmm1, xmm1
  0008b	66 0f 2e c1	 ucomisd xmm0, xmm1
  0008f	9f		 lahf
  00090	f6 c4 44	 test	 ah, 68			; 00000044H
  00093	7a 21		 jp	 SHORT $LN15@CallReserv
  00095	f3 0f 10 83 ec
	10 00 00	 movss	 xmm0, DWORD PTR [ebx+4332]
  0009d	f3 0f 10 49 08	 movss	 xmm1, DWORD PTR [ecx+8]
  000a2	0f 5a c0	 cvtps2pd xmm0, xmm0
  000a5	0f 5a c9	 cvtps2pd xmm1, xmm1
  000a8	66 0f 2e c1	 ucomisd xmm0, xmm1
  000ac	9f		 lahf
  000ad	f6 c4 44	 test	 ah, 68			; 00000044H
  000b0	0f 8b 0d 02 00
	00		 jnp	 $LN1@CallReserv
$LN15@CallReserv:

; 188  : 		return;
; 189  : 
; 190  : 	D3DXVECTOR3 vPlayerPos = pChar->GetWorldPosition();

  000b6	8b 06		 mov	 eax, DWORD PTR [esi]
  000b8	57		 push	 edi
  000b9	8b ce		 mov	 ecx, esi
  000bb	ff 50 70	 call	 DWORD PTR [eax+112]

; 191  : 	float fDist = D3DXVec3Length( &( m_vCirclePos - vPlayerPos ) ) ;

  000be	f3 0f 10 83 e4
	10 00 00	 movss	 xmm0, DWORD PTR [ebx+4324]
  000c6	8b f0		 mov	 esi, eax
  000c8	8d 7d d8	 lea	 edi, DWORD PTR _vPlayerPos$[ebp]
  000cb	a5		 movsd
  000cc	0f 5a c0	 cvtps2pd xmm0, xmm0
  000cf	a5		 movsd
  000d0	a5		 movsd
  000d1	f3 0f 10 4d d8	 movss	 xmm1, DWORD PTR _vPlayerPos$[ebp]
  000d6	f3 0f 10 55 dc	 movss	 xmm2, DWORD PTR _vPlayerPos$[ebp+4]
  000db	f3 0f 10 5d e0	 movss	 xmm3, DWORD PTR _vPlayerPos$[ebp+8]
  000e0	0f 5a c9	 cvtps2pd xmm1, xmm1
  000e3	f2 0f 5c c1	 subsd	 xmm0, xmm1
  000e7	0f 57 c9	 xorps	 xmm1, xmm1
  000ea	66 0f 5a c8	 cvtpd2ps xmm1, xmm0
  000ee	f3 0f 10 83 e8
	10 00 00	 movss	 xmm0, DWORD PTR [ebx+4328]
  000f6	0f 5a c0	 cvtps2pd xmm0, xmm0
  000f9	0f 5a d2	 cvtps2pd xmm2, xmm2
  000fc	f2 0f 5c c2	 subsd	 xmm0, xmm2
  00100	f3 0f 10 93 ec
	10 00 00	 movss	 xmm2, DWORD PTR [ebx+4332]
  00108	66 0f 5a c0	 cvtpd2ps xmm0, xmm0
  0010c	f3 0f 5a c0	 cvtss2sd xmm0, xmm0
  00110	f2 0f 59 c0	 mulsd	 xmm0, xmm0
  00114	0f 5a c9	 cvtps2pd xmm1, xmm1
  00117	0f 5a d2	 cvtps2pd xmm2, xmm2
  0011a	f2 0f 59 c9	 mulsd	 xmm1, xmm1
  0011e	f2 0f 58 c8	 addsd	 xmm1, xmm0

; 192  : 	float fLength = fDist - m_fDefaultCircleOffSet;

  00122	0f 57 c0	 xorps	 xmm0, xmm0
  00125	0f 5a db	 cvtps2pd xmm3, xmm3
  00128	f2 0f 5c d3	 subsd	 xmm2, xmm3
  0012c	66 0f 5a d2	 cvtpd2ps xmm2, xmm2
  00130	f3 0f 5a d2	 cvtss2sd xmm2, xmm2
  00134	f2 0f 59 d2	 mulsd	 xmm2, xmm2
  00138	f2 0f 58 ca	 addsd	 xmm1, xmm2
  0013c	66 0f 5a c1	 cvtpd2ps xmm0, xmm1
  00140	f3 0f 10 8b fc
	10 00 00	 movss	 xmm1, DWORD PTR [ebx+4348]
  00148	0f 5a c0	 cvtps2pd xmm0, xmm0
  0014b	f2 0f 51 c0	 sqrtsd	 xmm0, xmm0
  0014f	66 0f 5a c0	 cvtpd2ps xmm0, xmm0
  00153	0f 5a c9	 cvtps2pd xmm1, xmm1
  00156	f3 0f 5a c0	 cvtss2sd xmm0, xmm0
  0015a	f2 0f 5c c1	 subsd	 xmm0, xmm1
  0015e	0f 57 c9	 xorps	 xmm1, xmm1
  00161	66 0f 5a c8	 cvtpd2ps xmm1, xmm0

; 193  : 	if ( fLength <= 0.0f )

  00165	0f 57 c0	 xorps	 xmm0, xmm0
  00168	0f 2f c1	 comiss	 xmm0, xmm1

; 194  : 		fLength = 0.0f;
; 195  : 	else

  0016b	73 17		 jae	 SHORT $LN43@CallReserv

; 196  : 		fLength = fLength / iWeaponCount;

  0016d	0f 5a c1	 cvtps2pd xmm0, xmm1
  00170	66 0f 6e 4d e8	 movd	 xmm1, DWORD PTR _iWeaponCount$[ebp]
  00175	0f 5b c9	 cvtdq2ps xmm1, xmm1
  00178	f3 0f 5a c9	 cvtss2sd xmm1, xmm1
  0017c	f2 0f 5e c1	 divsd	 xmm0, xmm1
  00180	66 0f 5a c0	 cvtpd2ps xmm0, xmm0
$LN43@CallReserv:

; 197  : 
; 198  : 	for( int i=0 ; i < (int)iWeaponCount; ++i )

  00184	33 c0		 xor	 eax, eax
  00186	f3 0f 11 45 e4	 movss	 DWORD PTR _fLength$[ebp], xmm0
  0018b	39 45 e8	 cmp	 DWORD PTR _iWeaponCount$[ebp], eax
  0018e	0f 8e 2e 01 00
	00		 jle	 $LN42@CallReserv
  00194	8b 4d ec	 mov	 ecx, DWORD PTR _pChar$GSCopy$[ebp]
  00197	81 c1 d4 02 00
	00		 add	 ecx, 724		; 000002d4H
  0019d	8d bb f0 10 00
	00		 lea	 edi, DWORD PTR [ebx+4336]
  001a3	89 4d c8	 mov	 DWORD PTR tv726[ebp], ecx
  001a6	89 45 ec	 mov	 DWORD PTR tv870[ebp], eax
$LL41@CallReserv:

; 199  : 	{
; 200  : 		D3DXVECTOR3 vWeaponPos = vPlayerPos + ( m_vMoveDir * ( ( fLength * (i+1) ) + m_fDefaultCircleOffSet ) );

  001a9	f3 0f 10 4d e4	 movss	 xmm1, DWORD PTR _fLength$[ebp]
  001ae	0f 5a c9	 cvtps2pd xmm1, xmm1
  001b1	0f 57 c0	 xorps	 xmm0, xmm0
  001b4	40		 inc	 eax
  001b5	f3 0f 2a c0	 cvtsi2ss xmm0, eax
  001b9	0f 5a c0	 cvtps2pd xmm0, xmm0
  001bc	f2 0f 59 c1	 mulsd	 xmm0, xmm1
  001c0	f3 0f 10 8b fc
	10 00 00	 movss	 xmm1, DWORD PTR [ebx+4348]
  001c8	0f 5a c9	 cvtps2pd xmm1, xmm1
  001cb	f2 0f 58 c1	 addsd	 xmm0, xmm1
  001cf	f3 0f 10 0f	 movss	 xmm1, DWORD PTR [edi]
  001d3	0f 5a c9	 cvtps2pd xmm1, xmm1
  001d6	66 0f 5a c0	 cvtpd2ps xmm0, xmm0
  001da	0f 57 d2	 xorps	 xmm2, xmm2
  001dd	f3 0f 5a d0	 cvtss2sd xmm2, xmm0
  001e1	f2 0f 59 ca	 mulsd	 xmm1, xmm2
  001e5	f3 0f 10 57 04	 movss	 xmm2, DWORD PTR [edi+4]
  001ea	0f 57 db	 xorps	 xmm3, xmm3
  001ed	f3 0f 5a d8	 cvtss2sd xmm3, xmm0
  001f1	0f 5a d2	 cvtps2pd xmm2, xmm2
  001f4	f2 0f 59 d3	 mulsd	 xmm2, xmm3
  001f8	f3 0f 10 5f 08	 movss	 xmm3, DWORD PTR [edi+8]
  001fd	f3 0f 5a c0	 cvtss2sd xmm0, xmm0
  00201	66 0f 5a c9	 cvtpd2ps xmm1, xmm1
  00205	0f 5a db	 cvtps2pd xmm3, xmm3
  00208	f2 0f 59 d8	 mulsd	 xmm3, xmm0
  0020c	f3 0f 5a c9	 cvtss2sd xmm1, xmm1
  00210	0f 57 c0	 xorps	 xmm0, xmm0
  00213	66 0f 5a c3	 cvtpd2ps xmm0, xmm3
  00217	f3 0f 10 5d d8	 movss	 xmm3, DWORD PTR _vPlayerPos$[ebp]
  0021c	0f 5a db	 cvtps2pd xmm3, xmm3
  0021f	f2 0f 58 cb	 addsd	 xmm1, xmm3
  00223	66 0f 5a c9	 cvtpd2ps xmm1, xmm1
  00227	f3 0f 11 4d f0	 movss	 DWORD PTR _vWeaponPos$590954[ebp], xmm1
  0022c	0f 57 c9	 xorps	 xmm1, xmm1
  0022f	66 0f 5a d2	 cvtpd2ps xmm2, xmm2
  00233	f3 0f 5a ca	 cvtss2sd xmm1, xmm2
  00237	f3 0f 10 55 dc	 movss	 xmm2, DWORD PTR _vPlayerPos$[ebp+4]
  0023c	89 45 cc	 mov	 DWORD PTR tv673[ebp], eax

; 201  : 		g_WeaponMgr.SetReserveCallWeaponInfo( pChar->GetCharName(),
; 202  : 			GetAttribute().m_vWeaponInfoList[i],
; 203  : 			vWeaponPos,
; 204  : 			m_vMoveDir,
; 205  : 			dwCurTime + GetAttribute().m_vWeaponInfoList[i].m_dwCallTime,
; 206  : 			m_dwWeaponBaseIndex++ );

  0023f	8b 43 78	 mov	 eax, DWORD PTR [ebx+120]
  00242	0f 5a d2	 cvtps2pd xmm2, xmm2
  00245	f2 0f 58 ca	 addsd	 xmm1, xmm2
  00249	66 0f 5a c9	 cvtpd2ps xmm1, xmm1
  0024d	f3 0f 11 4d f4	 movss	 DWORD PTR _vWeaponPos$590954[ebp+4], xmm1
  00252	f3 0f 10 4d e0	 movss	 xmm1, DWORD PTR _vPlayerPos$[ebp+8]
  00257	89 45 d0	 mov	 DWORD PTR tv711[ebp], eax
  0025a	40		 inc	 eax
  0025b	0f 5a c0	 cvtps2pd xmm0, xmm0
  0025e	0f 5a c9	 cvtps2pd xmm1, xmm1
  00261	f2 0f 58 c1	 addsd	 xmm0, xmm1
  00265	89 43 78	 mov	 DWORD PTR [ebx+120], eax
  00268	8b 03		 mov	 eax, DWORD PTR [ebx]
  0026a	66 0f 5a c0	 cvtpd2ps xmm0, xmm0
  0026e	8b cb		 mov	 ecx, ebx
  00270	f3 0f 11 45 f8	 movss	 DWORD PTR _vWeaponPos$590954[ebp+8], xmm0
  00275	ff 90 a4 01 00
	00		 call	 DWORD PTR [eax+420]
  0027b	8b 70 28	 mov	 esi, DWORD PTR [eax+40]
  0027e	8b 03		 mov	 eax, DWORD PTR [ebx]
  00280	03 75 ec	 add	 esi, DWORD PTR tv870[ebp]
  00283	8b cb		 mov	 ecx, ebx
  00285	ff 90 a4 01 00
	00		 call	 DWORD PTR [eax+420]
  0028b	8b 4e 1c	 mov	 ecx, DWORD PTR [esi+28]
  0028e	03 4d d4	 add	 ecx, DWORD PTR _dwCurTime$[ebp]
  00291	8b 40 28	 mov	 eax, DWORD PTR [eax+40]
  00294	03 45 ec	 add	 eax, DWORD PTR tv870[ebp]
  00297	6a 00		 push	 0
  00299	ff 75 d0	 push	 DWORD PTR tv711[ebp]
  0029c	51		 push	 ecx
  0029d	57		 push	 edi
  0029e	8d 4d f0	 lea	 ecx, DWORD PTR _vWeaponPos$590954[ebp]
  002a1	51		 push	 ecx
  002a2	50		 push	 eax
  002a3	ff 75 c8	 push	 DWORD PTR tv726[ebp]
  002a6	e8 00 00 00 00	 call	 ?GetSingleton@ioWeaponManager@@SAAAV1@XZ ; ioWeaponManager::GetSingleton
  002ab	8b c8		 mov	 ecx, eax
  002ad	e8 00 00 00 00	 call	 ?SetReserveCallWeaponInfo@ioWeaponManager@@QAEXABVioHashString@@ABUWeaponInfo@@ABUD3DXVECTOR3@@2KK_N@Z ; ioWeaponManager::SetReserveCallWeaponInfo
  002b2	8b 45 cc	 mov	 eax, DWORD PTR tv673[ebp]
  002b5	83 45 ec 28	 add	 DWORD PTR tv870[ebp], 40 ; 00000028H
  002b9	3b 45 e8	 cmp	 eax, DWORD PTR _iWeaponCount$[ebp]
  002bc	0f 8c e7 fe ff
	ff		 jl	 $LL41@CallReserv
$LN42@CallReserv:
  002c2	5f		 pop	 edi
$LN1@CallReserv:

; 207  : 	}
; 208  : }

  002c3	8b 4d fc	 mov	 ecx, DWORD PTR __$ArrayPad$[ebp]
  002c6	5e		 pop	 esi
  002c7	33 cd		 xor	 ecx, ebp
  002c9	5b		 pop	 ebx
  002ca	e8 00 00 00 00	 call	 @__security_check_cookie@4
  002cf	c9		 leave
  002d0	c2 04 00	 ret	 4
?CallReserveWeapon@ioCircleReserveAttackSkill@@IAEXPAVioBaseChar@@@Z ENDP ; ioCircleReserveAttackSkill::CallReserveWeapon
_TEXT	ENDS
PUBLIC	_pChar$GSCopy$
PUBLIC	?CallReserveRandomPositionWeapon@ioCircleReserveAttackSkill@@IAEXPAVioBaseChar@@@Z ; ioCircleReserveAttackSkill::CallReserveRandomPositionWeapon
EXTRN	??1IORandom@@UAE@XZ:PROC			; IORandom::~IORandom
EXTRN	__imp_?ArrangeHead@ioMath@@SAMM@Z:PROC
EXTRN	?Random@IORandom@@QAEII@Z:PROC			; IORandom::Random
EXTRN	?SetRandomSeed@IORandom@@QAEXI@Z:PROC		; IORandom::SetRandomSeed
EXTRN	??0IORandom@@QAE@XZ:PROC			; IORandom::IORandom
EXTRN	__EH_epilog3_GS:PROC
EXTRN	__EH_prolog3_GS:PROC
EXTRN	__CIsin:PROC
EXTRN	__CIcos:PROC
EXTRN	__ftol2_sse:PROC
;	COMDAT xdata$x
; File d:\lost saga for developer\youtube\tutorial\source\src\lsclient\iobasechar.h
xdata$x	SEGMENT
__unwindtable$?CallReserveRandomPositionWeapon@ioCircleReserveAttackSkill@@IAEXPAVioBaseChar@@@Z DD 0ffffffffH
	DD	FLAT:__unwindfunclet$?CallReserveRandomPositionWeapon@ioCircleReserveAttackSkill@@IAEXPAVioBaseChar@@@Z$0
__ehfuncinfo$?CallReserveRandomPositionWeapon@ioCircleReserveAttackSkill@@IAEXPAVioBaseChar@@@Z DD 019930522H
	DD	01H
	DD	FLAT:__unwindtable$?CallReserveRandomPositionWeapon@ioCircleReserveAttackSkill@@IAEXPAVioBaseChar@@@Z
	DD	2 DUP(00H)
	DD	2 DUP(00H)
	DD	00H
	DD	01H
; Function compile flags: /Ogsp
; File d:\lost saga for developer\youtube\tutorial\source\src\lsclient\iocirclereserveattackskill.cpp
xdata$x	ENDS
;	COMDAT ?CallReserveRandomPositionWeapon@ioCircleReserveAttackSkill@@IAEXPAVioBaseChar@@@Z
_TEXT	SEGMENT
tv656 = -2600						; size = 8
tv692 = -2592						; size = 4
tv654 = -2588						; size = 8
_iAngle$590996 = -2584					; size = 4
_dwCurTime$ = -2580					; size = 4
_iXPos$591002 = -2576					; size = 4
_iRange$590999 = -2576					; size = 4
tv221 = -2572						; size = 4
_iWeaponCount$ = -2572					; size = 4
tv807 = -2568						; size = 4
tv809 = -2564						; size = 4
_pChar$GSCopy$ = -2564					; size = 4
_random$590994 = -2560					; size = 2508
_vDir$ = -52						; size = 12
_vPlayerPos$ = -40					; size = 12
$T590981 = -40						; size = 12
_vWeaponPos$590995 = -28				; size = 12
$T590988 = -28						; size = 12
_vStartDirPos$ = -28					; size = 12
__$EHRec$ = -12						; size = 12
_pChar$ = 8						; size = 4
?CallReserveRandomPositionWeapon@ioCircleReserveAttackSkill@@IAEXPAVioBaseChar@@@Z PROC ; ioCircleReserveAttackSkill::CallReserveRandomPositionWeapon, COMDAT
; _this$ = ecx

; 226  : {

  00000	68 1c 0a 00 00	 push	 2588			; 00000a1cH
  00005	b8 00 00 00 00	 mov	 eax, __ehhandler$?CallReserveRandomPositionWeapon@ioCircleReserveAttackSkill@@IAEXPAVioBaseChar@@@Z
  0000a	e8 00 00 00 00	 call	 __EH_prolog3_GS
  0000f	8b 75 08	 mov	 esi, DWORD PTR _pChar$[ebp]
  00012	8b d9		 mov	 ebx, ecx

; 256  : 		iRange = random.Random(iRange);

  00014	89 b5 fc f5 ff
	ff		 mov	 DWORD PTR _pChar$GSCopy$[ebp], esi
  0001a	85 f6		 test	 esi, esi
  0001c	0f 84 6a 03 00
	00		 je	 $LN2@CallReserv@2

; 227  : 	if ( !pChar )	
; 228  : 		return;
; 229  : 
; 230  : 	DWORD dwCurTime = FRAMEGETTIME();

  00022	ff 15 00 00 00
	00		 call	 DWORD PTR __imp_?GetSingleton@ioFrameTimer@@SAAAV1@XZ
  00028	8b c8		 mov	 ecx, eax
  0002a	ff 15 00 00 00
	00		 call	 DWORD PTR __imp_?GetLoopSec@ioFrameTimer@@QBEKXZ
  00030	89 85 ec f5 ff
	ff		 mov	 DWORD PTR _dwCurTime$[ebp], eax

; 231  : 	int iWeaponCount = GetAttribute().m_vWeaponInfoList.size();

  00036	8b 03		 mov	 eax, DWORD PTR [ebx]
  00038	8b cb		 mov	 ecx, ebx
  0003a	ff 90 a4 01 00
	00		 call	 DWORD PTR [eax+420]
  00040	8b c8		 mov	 ecx, eax
  00042	8b 41 2c	 mov	 eax, DWORD PTR [ecx+44]
  00045	2b 41 28	 sub	 eax, DWORD PTR [ecx+40]
  00048	6a 28		 push	 40			; 00000028H
  0004a	99		 cdq
  0004b	59		 pop	 ecx
  0004c	f7 f9		 idiv	 ecx
  0004e	89 85 f4 f5 ff
	ff		 mov	 DWORD PTR _iWeaponCount$[ebp], eax

; 232  : 	if ( iWeaponCount == 0 )

  00054	85 c0		 test	 eax, eax
  00056	0f 84 30 03 00
	00		 je	 $LN2@CallReserv@2

; 233  : 		return;
; 234  : 
; 235  : 
; 236  : 	D3DXVECTOR3 vDir = pChar->GetTargetRot() * D3DXVECTOR3( 0.0f, 0.0f, -1.0f );

  0005c	0f 57 c0	 xorps	 xmm0, xmm0
  0005f	8d 45 d8	 lea	 eax, DWORD PTR $T590981[ebp]
  00062	50		 push	 eax
  00063	8d 86 a4 06 00
	00		 lea	 eax, DWORD PTR [esi+1700]
  00069	50		 push	 eax
  0006a	8d 45 cc	 lea	 eax, DWORD PTR _vDir$[ebp]
  0006d	f3 0f 11 45 d8	 movss	 DWORD PTR $T590981[ebp], xmm0
  00072	f3 0f 11 45 dc	 movss	 DWORD PTR $T590981[ebp+4], xmm0
  00077	f3 0f 10 05 00
	00 00 00	 movss	 xmm0, DWORD PTR __real@bf800000
  0007f	50		 push	 eax
  00080	f3 0f 11 45 e0	 movss	 DWORD PTR $T590981[ebp+8], xmm0
  00085	ff 15 00 00 00
	00		 call	 DWORD PTR __imp_??D@YA?AUD3DXVECTOR3@@ABUD3DXQUATERNION@@ABU0@@Z

; 237  : 	D3DXVECTOR3 vPlayerPos = pChar->GetWorldPosition();

  0008b	8b 06		 mov	 eax, DWORD PTR [esi]
  0008d	83 c4 0c	 add	 esp, 12			; 0000000cH
  00090	8b ce		 mov	 ecx, esi
  00092	ff 50 70	 call	 DWORD PTR [eax+112]

; 238  : 	D3DXVECTOR3 vStartDirPos = vPlayerPos;
; 239  : 	vStartDirPos.y += m_fWeaponStartHeight;

  00095	f3 0f 10 83 0c
	11 00 00	 movss	 xmm0, DWORD PTR [ebx+4364]

; 240  : 	D3DXVECTOR3 vEndDirPos = vPlayerPos + vDir * m_fDefaultCircleOffSet;

  0009d	f3 0f 10 5d cc	 movss	 xmm3, DWORD PTR _vDir$[ebp]
  000a2	8b f0		 mov	 esi, eax
  000a4	8d 7d d8	 lea	 edi, DWORD PTR _vPlayerPos$[ebp]
  000a7	a5		 movsd
  000a8	a5		 movsd
  000a9	a5		 movsd
  000aa	8b f0		 mov	 esi, eax
  000ac	8d 7d e4	 lea	 edi, DWORD PTR _vStartDirPos$[ebp]
  000af	a5		 movsd
  000b0	a5		 movsd
  000b1	0f 5a c0	 cvtps2pd xmm0, xmm0
  000b4	a5		 movsd
  000b5	f3 0f 10 4d e8	 movss	 xmm1, DWORD PTR _vStartDirPos$[ebp+4]
  000ba	0f 5a c9	 cvtps2pd xmm1, xmm1
  000bd	f2 0f 58 c1	 addsd	 xmm0, xmm1
  000c1	0f 5a db	 cvtps2pd xmm3, xmm3
  000c4	0f 57 c9	 xorps	 xmm1, xmm1
  000c7	66 0f 5a c8	 cvtpd2ps xmm1, xmm0
  000cb	f3 0f 10 83 fc
	10 00 00	 movss	 xmm0, DWORD PTR [ebx+4348]
  000d3	0f 5a d0	 cvtps2pd xmm2, xmm0
  000d6	f2 0f 59 d3	 mulsd	 xmm2, xmm3
  000da	f3 0f 10 5d d0	 movss	 xmm3, DWORD PTR _vDir$[ebp+4]
  000df	0f 5a e0	 cvtps2pd xmm4, xmm0
  000e2	0f 5a db	 cvtps2pd xmm3, xmm3
  000e5	f2 0f 59 dc	 mulsd	 xmm3, xmm4
  000e9	f3 0f 10 65 d4	 movss	 xmm4, DWORD PTR _vDir$[ebp+8]
  000ee	0f 5a e4	 cvtps2pd xmm4, xmm4
  000f1	0f 5a c0	 cvtps2pd xmm0, xmm0
  000f4	f2 0f 59 e0	 mulsd	 xmm4, xmm0
  000f8	66 0f 5a d2	 cvtpd2ps xmm2, xmm2
  000fc	f3 0f 5a d2	 cvtss2sd xmm2, xmm2
  00100	0f 57 c0	 xorps	 xmm0, xmm0
  00103	66 0f 5a c4	 cvtpd2ps xmm0, xmm4
  00107	f3 0f 10 65 d8	 movss	 xmm4, DWORD PTR _vPlayerPos$[ebp]
  0010c	0f 5a e4	 cvtps2pd xmm4, xmm4
  0010f	f2 0f 58 e2	 addsd	 xmm4, xmm2
  00113	0f 57 d2	 xorps	 xmm2, xmm2
  00116	f2 0f 5a d4	 cvtsd2ss xmm2, xmm4
  0011a	f3 0f 10 65 dc	 movss	 xmm4, DWORD PTR _vPlayerPos$[ebp+4]
  0011f	66 0f 5a db	 cvtpd2ps xmm3, xmm3
  00123	0f 5a e4	 cvtps2pd xmm4, xmm4
  00126	f3 0f 5a db	 cvtss2sd xmm3, xmm3
  0012a	f2 0f 58 e3	 addsd	 xmm4, xmm3
  0012e	0f 5a c0	 cvtps2pd xmm0, xmm0
  00131	0f 57 db	 xorps	 xmm3, xmm3
  00134	66 0f 5a dc	 cvtpd2ps xmm3, xmm4
  00138	f3 0f 10 65 e0	 movss	 xmm4, DWORD PTR _vPlayerPos$[ebp+8]
  0013d	0f 5a e4	 cvtps2pd xmm4, xmm4
  00140	f2 0f 58 e0	 addsd	 xmm4, xmm0

; 241  : 
; 242  : 	m_vMoveDir = vEndDirPos - vStartDirPos;

  00144	0f 5a c2	 cvtps2pd xmm0, xmm2
  00147	f3 0f 10 55 e4	 movss	 xmm2, DWORD PTR _vStartDirPos$[ebp]
  0014c	0f 5a d2	 cvtps2pd xmm2, xmm2
  0014f	f2 0f 5c c2	 subsd	 xmm0, xmm2
  00153	0f 5a c9	 cvtps2pd xmm1, xmm1
  00156	66 0f 5a e4	 cvtpd2ps xmm4, xmm4
  0015a	66 0f 5a c0	 cvtpd2ps xmm0, xmm0
  0015e	0f 5a d3	 cvtps2pd xmm2, xmm3
  00161	f3 0f 10 5d ec	 movss	 xmm3, DWORD PTR _vStartDirPos$[ebp+8]
  00166	f2 0f 5c d1	 subsd	 xmm2, xmm1
  0016a	66 0f 5a ca	 cvtpd2ps xmm1, xmm2
  0016e	0f 57 d2	 xorps	 xmm2, xmm2
  00171	f3 0f 5a d4	 cvtss2sd xmm2, xmm4
  00175	0f 5a db	 cvtps2pd xmm3, xmm3
  00178	f2 0f 5c d3	 subsd	 xmm2, xmm3
  0017c	8d 83 f0 10 00
	00		 lea	 eax, DWORD PTR [ebx+4336]
  00182	f3 0f 11 45 e4	 movss	 DWORD PTR $T590988[ebp], xmm0
  00187	f3 0f 11 4d e8	 movss	 DWORD PTR $T590988[ebp+4], xmm1
  0018c	66 0f 5a d2	 cvtpd2ps xmm2, xmm2
  00190	f3 0f 11 55 ec	 movss	 DWORD PTR $T590988[ebp+8], xmm2
  00195	8b f8		 mov	 edi, eax
  00197	8d 75 e4	 lea	 esi, DWORD PTR $T590988[ebp]
  0019a	a5		 movsd
  0019b	a5		 movsd

; 243  : 	D3DXVec3Normalize( &m_vMoveDir, &m_vMoveDir);

  0019c	50		 push	 eax
  0019d	50		 push	 eax
  0019e	a5		 movsd
  0019f	e8 00 00 00 00	 call	 _D3DXVec3Normalize@8

; 244  : 
; 245  : 	for( int i=0 ; i < (int)iWeaponCount; ++i )

  001a4	8b 85 f4 f5 ff
	ff		 mov	 eax, DWORD PTR _iWeaponCount$[ebp]
  001aa	85 c0		 test	 eax, eax
  001ac	0f 8e da 01 00
	00		 jle	 $LN2@CallReserv@2
  001b2	8b 8d fc f5 ff
	ff		 mov	 ecx, DWORD PTR _pChar$GSCopy$[ebp]
  001b8	81 c1 d4 02 00
	00		 add	 ecx, 724		; 000002d4H
  001be	83 a5 f8 f5 ff
	ff 00		 and	 DWORD PTR tv807[ebp], 0
  001c5	89 8d e0 f5 ff
	ff		 mov	 DWORD PTR tv692[ebp], ecx
  001cb	c7 85 fc f5 ff
	ff 68 01 00 00	 mov	 DWORD PTR tv809[ebp], 360 ; 00000168H
  001d5	89 85 f4 f5 ff
	ff		 mov	 DWORD PTR tv221[ebp], eax
$LN4@CallReserv@2:

; 246  : 	{
; 247  : 		IORandom random;

  001db	8d 8d 00 f6 ff
	ff		 lea	 ecx, DWORD PTR _random$590994[ebp]
  001e1	e8 00 00 00 00	 call	 ??0IORandom@@QAE@XZ	; IORandom::IORandom

; 248  : 		random.SetRandomSeed( dwCurTime + i );

  001e6	8b 85 ec f5 ff
	ff		 mov	 eax, DWORD PTR _dwCurTime$[ebp]
  001ec	8b b5 fc f5 ff
	ff		 mov	 esi, DWORD PTR tv809[ebp]
  001f2	83 65 fc 00	 and	 DWORD PTR __$EHRec$[ebp+8], 0
  001f6	8d 84 30 98 fe
	ff ff		 lea	 eax, DWORD PTR [eax+esi-360]
  001fd	50		 push	 eax
  001fe	8d 8d 00 f6 ff
	ff		 lea	 ecx, DWORD PTR _random$590994[ebp]
  00204	e8 00 00 00 00	 call	 ?SetRandomSeed@IORandom@@QAEXI@Z ; IORandom::SetRandomSeed

; 249  : 		D3DXVECTOR3 vWeaponPos;
; 250  : 
; 251  : 		int iAngle = random.Random( 360 + i );

  00209	56		 push	 esi
  0020a	8d 8d 00 f6 ff
	ff		 lea	 ecx, DWORD PTR _random$590994[ebp]
  00210	e8 00 00 00 00	 call	 ?Random@IORandom@@QAEII@Z ; IORandom::Random

; 252  : 		iAngle = (int)ioMath::ArrangeHead( (float)iAngle );

  00215	0f 57 c0	 xorps	 xmm0, xmm0
  00218	51		 push	 ecx
  00219	f3 0f 2a c0	 cvtsi2ss xmm0, eax
  0021d	f3 0f 11 04 24	 movss	 DWORD PTR [esp], xmm0
  00222	ff 15 00 00 00
	00		 call	 DWORD PTR __imp_?ArrangeHead@ioMath@@SAMM@Z
  00228	59		 pop	 ecx
  00229	e8 00 00 00 00	 call	 __ftol2_sse
  0022e	89 85 e8 f5 ff
	ff		 mov	 DWORD PTR _iAngle$590996[ebp], eax

; 253  : 		int iRange = (int)m_fRandomRange;

  00234	f3 0f 2c 83 08
	11 00 00	 cvttss2si eax, DWORD PTR [ebx+4360]

; 254  : 		if (iRange < 0)

  0023c	85 c0		 test	 eax, eax
  0023e	79 02		 jns	 SHORT $LN1@CallReserv@2

; 255  : 			iRange = 0;

  00240	33 c0		 xor	 eax, eax
$LN1@CallReserv@2:

; 256  : 		iRange = random.Random(iRange);

  00242	50		 push	 eax
  00243	8d 8d 00 f6 ff
	ff		 lea	 ecx, DWORD PTR _random$590994[ebp]
  00249	e8 00 00 00 00	 call	 ?Random@IORandom@@QAEII@Z ; IORandom::Random

; 257  : 
; 258  : 		int iXPos = cos((double) iAngle ) * iRange;

  0024e	db 85 e8 f5 ff
	ff		 fild	 DWORD PTR _iAngle$590996[ebp]
  00254	89 85 f0 f5 ff
	ff		 mov	 DWORD PTR _iRange$590999[ebp], eax
  0025a	dd 9d e4 f5 ff
	ff		 fstp	 QWORD PTR tv654[ebp]
  00260	db 85 f0 f5 ff
	ff		 fild	 DWORD PTR _iRange$590999[ebp]
  00266	dd 9d d8 f5 ff
	ff		 fstp	 QWORD PTR tv656[ebp]
  0026c	dd 85 e4 f5 ff
	ff		 fld	 QWORD PTR tv654[ebp]
  00272	e8 00 00 00 00	 call	 __CIcos
  00277	dc 8d d8 f5 ff
	ff		 fmul	 QWORD PTR tv656[ebp]
  0027d	e8 00 00 00 00	 call	 __ftol2_sse

; 259  : 		int iZPos = sin((double) iAngle ) * iRange;

  00282	dd 85 e4 f5 ff
	ff		 fld	 QWORD PTR tv654[ebp]
  00288	89 85 f0 f5 ff
	ff		 mov	 DWORD PTR _iXPos$591002[ebp], eax
  0028e	e8 00 00 00 00	 call	 __CIsin
  00293	dc 8d d8 f5 ff
	ff		 fmul	 QWORD PTR tv656[ebp]
  00299	e8 00 00 00 00	 call	 __ftol2_sse

; 260  : 
; 261  : 		vWeaponPos = vPlayerPos;
; 262  : 		vWeaponPos.x += iXPos;

  0029e	66 0f 6e 85 f0
	f5 ff ff	 movd	 xmm0, DWORD PTR _iXPos$591002[ebp]
  002a6	f3 0f 10 4d d8	 movss	 xmm1, DWORD PTR _vPlayerPos$[ebp]
  002ab	0f 5b c0	 cvtdq2ps xmm0, xmm0
  002ae	f3 0f 5a c0	 cvtss2sd xmm0, xmm0
  002b2	8d 75 d8	 lea	 esi, DWORD PTR _vPlayerPos$[ebp]
  002b5	8d 7d e4	 lea	 edi, DWORD PTR _vWeaponPos$590995[ebp]
  002b8	a5		 movsd
  002b9	a5		 movsd
  002ba	0f 5a c9	 cvtps2pd xmm1, xmm1
  002bd	f2 0f 58 c1	 addsd	 xmm0, xmm1
  002c1	f2 0f 5a c0	 cvtsd2ss xmm0, xmm0
  002c5	a5		 movsd

; 263  : 		vWeaponPos.y += m_fWeaponStartHeight;

  002c6	f3 0f 10 4d e8	 movss	 xmm1, DWORD PTR _vWeaponPos$590995[ebp+4]

; 264  : 		vWeaponPos.z += iZPos;
; 265  : 
; 266  : 
; 267  : 		g_WeaponMgr.SetReserveCallWeaponInfo( pChar->GetCharName(),
; 268  : 			GetAttribute().m_vWeaponInfoList[i],
; 269  : 			vWeaponPos,
; 270  : 			m_vMoveDir,
; 271  : 			dwCurTime + GetAttribute().m_vWeaponInfoList[i].m_dwCallTime,
; 272  : 			m_dwWeaponBaseIndex++ );

  002cb	8b 7b 78	 mov	 edi, DWORD PTR [ebx+120]
  002ce	f3 0f 11 45 e4	 movss	 DWORD PTR _vWeaponPos$590995[ebp], xmm0
  002d3	f3 0f 10 83 0c
	11 00 00	 movss	 xmm0, DWORD PTR [ebx+4364]
  002db	0f 5a c0	 cvtps2pd xmm0, xmm0
  002de	0f 5a c9	 cvtps2pd xmm1, xmm1
  002e1	f2 0f 58 c1	 addsd	 xmm0, xmm1
  002e5	f3 0f 10 4d ec	 movss	 xmm1, DWORD PTR _vWeaponPos$590995[ebp+8]
  002ea	66 0f 5a c0	 cvtpd2ps xmm0, xmm0
  002ee	f3 0f 11 45 e8	 movss	 DWORD PTR _vWeaponPos$590995[ebp+4], xmm0
  002f3	0f 57 c0	 xorps	 xmm0, xmm0
  002f6	f3 0f 2a c0	 cvtsi2ss xmm0, eax
  002fa	0f 5a c0	 cvtps2pd xmm0, xmm0
  002fd	8d 47 01	 lea	 eax, DWORD PTR [edi+1]
  00300	0f 5a c9	 cvtps2pd xmm1, xmm1
  00303	f2 0f 58 c1	 addsd	 xmm0, xmm1
  00307	89 43 78	 mov	 DWORD PTR [ebx+120], eax
  0030a	8b 03		 mov	 eax, DWORD PTR [ebx]
  0030c	66 0f 5a c0	 cvtpd2ps xmm0, xmm0
  00310	8b cb		 mov	 ecx, ebx
  00312	f3 0f 11 45 ec	 movss	 DWORD PTR _vWeaponPos$590995[ebp+8], xmm0
  00317	ff 90 a4 01 00
	00		 call	 DWORD PTR [eax+420]
  0031d	8b 70 28	 mov	 esi, DWORD PTR [eax+40]
  00320	8b 03		 mov	 eax, DWORD PTR [ebx]
  00322	03 b5 f8 f5 ff
	ff		 add	 esi, DWORD PTR tv807[ebp]
  00328	8b cb		 mov	 ecx, ebx
  0032a	ff 90 a4 01 00
	00		 call	 DWORD PTR [eax+420]
  00330	8b 4e 1c	 mov	 ecx, DWORD PTR [esi+28]
  00333	03 8d ec f5 ff
	ff		 add	 ecx, DWORD PTR _dwCurTime$[ebp]
  00339	8b 40 28	 mov	 eax, DWORD PTR [eax+40]
  0033c	03 85 f8 f5 ff
	ff		 add	 eax, DWORD PTR tv807[ebp]
  00342	6a 00		 push	 0
  00344	57		 push	 edi
  00345	51		 push	 ecx
  00346	8d 8b f0 10 00
	00		 lea	 ecx, DWORD PTR [ebx+4336]
  0034c	51		 push	 ecx
  0034d	8d 4d e4	 lea	 ecx, DWORD PTR _vWeaponPos$590995[ebp]
  00350	51		 push	 ecx
  00351	50		 push	 eax
  00352	ff b5 e0 f5 ff
	ff		 push	 DWORD PTR tv692[ebp]
  00358	e8 00 00 00 00	 call	 ?GetSingleton@ioWeaponManager@@SAAAV1@XZ ; ioWeaponManager::GetSingleton
  0035d	8b c8		 mov	 ecx, eax
  0035f	e8 00 00 00 00	 call	 ?SetReserveCallWeaponInfo@ioWeaponManager@@QAEXABVioHashString@@ABUWeaponInfo@@ABUD3DXVECTOR3@@2KK_N@Z ; ioWeaponManager::SetReserveCallWeaponInfo

; 273  : 	}

  00364	83 4d fc ff	 or	 DWORD PTR __$EHRec$[ebp+8], -1
  00368	8d 8d 00 f6 ff
	ff		 lea	 ecx, DWORD PTR _random$590994[ebp]
  0036e	e8 00 00 00 00	 call	 ??1IORandom@@UAE@XZ	; IORandom::~IORandom
  00373	ff 85 fc f5 ff
	ff		 inc	 DWORD PTR tv809[ebp]
  00379	83 85 f8 f5 ff
	ff 28		 add	 DWORD PTR tv807[ebp], 40 ; 00000028H
  00380	ff 8d f4 f5 ff
	ff		 dec	 DWORD PTR tv221[ebp]
  00386	0f 85 4f fe ff
	ff		 jne	 $LN4@CallReserv@2
$LN2@CallReserv@2:

; 274  : }

  0038c	e8 00 00 00 00	 call	 __EH_epilog3_GS
  00391	c2 04 00	 ret	 4
_TEXT	ENDS
;	COMDAT text$x
text$x	SEGMENT
__unwindfunclet$?CallReserveRandomPositionWeapon@ioCircleReserveAttackSkill@@IAEXPAVioBaseChar@@@Z$0:
  00000	8d 8d 00 f6 ff
	ff		 lea	 ecx, DWORD PTR _random$590994[ebp]
  00006	e9 00 00 00 00	 jmp	 ??1IORandom@@UAE@XZ	; IORandom::~IORandom
__ehhandler$?CallReserveRandomPositionWeapon@ioCircleReserveAttackSkill@@IAEXPAVioBaseChar@@@Z:
  0000b	8b 54 24 08	 mov	 edx, DWORD PTR [esp+8]
  0000f	8d 42 0c	 lea	 eax, DWORD PTR [edx+12]
  00012	8b 8a d4 f5 ff
	ff		 mov	 ecx, DWORD PTR [edx-2604]
  00018	33 c8		 xor	 ecx, eax
  0001a	e8 00 00 00 00	 call	 @__security_check_cookie@4
  0001f	8b 4a fc	 mov	 ecx, DWORD PTR [edx-4]
  00022	33 c8		 xor	 ecx, eax
  00024	e8 00 00 00 00	 call	 @__security_check_cookie@4
  00029	b8 00 00 00 00	 mov	 eax, OFFSET __ehfuncinfo$?CallReserveRandomPositionWeapon@ioCircleReserveAttackSkill@@IAEXPAVioBaseChar@@@Z
  0002e	e9 00 00 00 00	 jmp	 ___CxxFrameHandler3
text$x	ENDS
?CallReserveRandomPositionWeapon@ioCircleReserveAttackSkill@@IAEXPAVioBaseChar@@@Z ENDP ; ioCircleReserveAttackSkill::CallReserveRandomPositionWeapon
PUBLIC	__$ArrayPad$
PUBLIC	??$LoadFloat_e@$0BG@@ioINILoader@@QAEMAAY0BG@$$CBDM@Z ; ioINILoader::LoadFloat_e<22>
EXTRN	__imp_?LoadFloat@ioINILoader@@QAEMPBDM@Z:PROC
; Function compile flags: /Ogsp
; File d:\lost saga for developer\youtube\tutorial\source\src\io3dengine\ioiniloader.h
;	COMDAT ??$LoadFloat_e@$0BG@@ioINILoader@@QAEMAAY0BG@$$CBDM@Z
_TEXT	SEGMENT
__k$ = -32						; size = 22
__$ArrayPad$ = -4					; size = 4
_k$ = 8							; size = 4
_f$ = 12						; size = 4
??$LoadFloat_e@$0BG@@ioINILoader@@QAEMAAY0BG@$$CBDM@Z PROC ; ioINILoader::LoadFloat_e<22>, COMDAT
; _this$ = ecx

; 135  : 	{

  00000	55		 push	 ebp
  00001	8b ec		 mov	 ebp, esp
  00003	83 ec 20	 sub	 esp, 32			; 00000020H
  00006	a1 00 00 00 00	 mov	 eax, DWORD PTR ___security_cookie
  0000b	33 c5		 xor	 eax, ebp
  0000d	89 45 fc	 mov	 DWORD PTR __$ArrayPad$[ebp], eax
  00010	8b 45 08	 mov	 eax, DWORD PTR _k$[ebp]

; 136  : 		_ENCSTR(k, _k);

  00013	8a 10		 mov	 dl, BYTE PTR [eax]
  00015	53		 push	 ebx
  00016	56		 push	 esi
  00017	8b f1		 mov	 esi, ecx
  00019	84 d2		 test	 dl, dl
  0001b	0f 84 15 02 00
	00		 je	 $LN96@LoadFloat_
  00021	80 f2 ed	 xor	 dl, -19			; ffffffedH
  00024	88 55 e0	 mov	 BYTE PTR __k$[ebp], dl
  00027	8a 50 01	 mov	 dl, BYTE PTR [eax+1]
  0002a	84 d2		 test	 dl, dl
  0002c	0f 84 fe 01 00
	00		 je	 $LN95@LoadFloat_
  00032	80 f2 ec	 xor	 dl, -20			; ffffffecH
  00035	88 55 e1	 mov	 BYTE PTR __k$[ebp+1], dl
  00038	8a 50 02	 mov	 dl, BYTE PTR [eax+2]
  0003b	84 d2		 test	 dl, dl
  0003d	0f 84 e7 01 00
	00		 je	 $LN94@LoadFloat_
  00043	b1 eb		 mov	 cl, -21			; ffffffebH
  00045	32 d1		 xor	 dl, cl
  00047	88 55 e2	 mov	 BYTE PTR __k$[ebp+2], dl
  0004a	8a 50 03	 mov	 dl, BYTE PTR [eax+3]
  0004d	84 d2		 test	 dl, dl
  0004f	0f 84 cf 01 00
	00		 je	 $LN93@LoadFloat_
  00055	b3 ea		 mov	 bl, -22			; ffffffeaH
  00057	32 d3		 xor	 dl, bl
  00059	88 55 e3	 mov	 BYTE PTR __k$[ebp+3], dl
  0005c	8a 50 04	 mov	 dl, BYTE PTR [eax+4]
  0005f	84 d2		 test	 dl, dl
  00061	0f 84 b7 01 00
	00		 je	 $LN92@LoadFloat_
  00067	80 f2 ed	 xor	 dl, -19			; ffffffedH
  0006a	88 55 e4	 mov	 BYTE PTR __k$[ebp+4], dl
  0006d	8a 50 05	 mov	 dl, BYTE PTR [eax+5]
  00070	84 d2		 test	 dl, dl
  00072	0f 84 a0 01 00
	00		 je	 $LN91@LoadFloat_
  00078	80 f2 ec	 xor	 dl, -20			; ffffffecH
  0007b	88 55 e5	 mov	 BYTE PTR __k$[ebp+5], dl
  0007e	8a 50 06	 mov	 dl, BYTE PTR [eax+6]
  00081	84 d2		 test	 dl, dl
  00083	0f 84 8a 01 00
	00		 je	 $LN90@LoadFloat_
  00089	32 d1		 xor	 dl, cl
  0008b	88 55 e6	 mov	 BYTE PTR __k$[ebp+6], dl
  0008e	8a 50 07	 mov	 dl, BYTE PTR [eax+7]
  00091	84 d2		 test	 dl, dl
  00093	0f 84 75 01 00
	00		 je	 $LN89@LoadFloat_
  00099	32 d3		 xor	 dl, bl
  0009b	88 55 e7	 mov	 BYTE PTR __k$[ebp+7], dl
  0009e	8a 50 08	 mov	 dl, BYTE PTR [eax+8]
  000a1	84 d2		 test	 dl, dl
  000a3	0f 84 5f 01 00
	00		 je	 $LN88@LoadFloat_
  000a9	80 f2 ed	 xor	 dl, -19			; ffffffedH
  000ac	88 55 e8	 mov	 BYTE PTR __k$[ebp+8], dl
  000af	8a 50 09	 mov	 dl, BYTE PTR [eax+9]
  000b2	84 d2		 test	 dl, dl
  000b4	0f 84 48 01 00
	00		 je	 $LN87@LoadFloat_
  000ba	80 f2 ec	 xor	 dl, -20			; ffffffecH
  000bd	88 55 e9	 mov	 BYTE PTR __k$[ebp+9], dl
  000c0	8a 50 0a	 mov	 dl, BYTE PTR [eax+10]
  000c3	84 d2		 test	 dl, dl
  000c5	0f 84 32 01 00
	00		 je	 $LN86@LoadFloat_
  000cb	32 d1		 xor	 dl, cl
  000cd	88 55 ea	 mov	 BYTE PTR __k$[ebp+10], dl
  000d0	8a 50 0b	 mov	 dl, BYTE PTR [eax+11]
  000d3	84 d2		 test	 dl, dl
  000d5	0f 84 1d 01 00
	00		 je	 $LN85@LoadFloat_
  000db	32 d3		 xor	 dl, bl
  000dd	88 55 eb	 mov	 BYTE PTR __k$[ebp+11], dl
  000e0	8a 50 0c	 mov	 dl, BYTE PTR [eax+12]
  000e3	84 d2		 test	 dl, dl
  000e5	0f 84 07 01 00
	00		 je	 $LN84@LoadFloat_
  000eb	80 f2 ed	 xor	 dl, -19			; ffffffedH
  000ee	88 55 ec	 mov	 BYTE PTR __k$[ebp+12], dl
  000f1	8a 50 0d	 mov	 dl, BYTE PTR [eax+13]
  000f4	84 d2		 test	 dl, dl
  000f6	0f 84 f0 00 00
	00		 je	 $LN83@LoadFloat_
  000fc	80 f2 ec	 xor	 dl, -20			; ffffffecH
  000ff	88 55 ed	 mov	 BYTE PTR __k$[ebp+13], dl
  00102	8a 50 0e	 mov	 dl, BYTE PTR [eax+14]
  00105	84 d2		 test	 dl, dl
  00107	0f 84 da 00 00
	00		 je	 $LN82@LoadFloat_
  0010d	32 d1		 xor	 dl, cl
  0010f	88 55 ee	 mov	 BYTE PTR __k$[ebp+14], dl
  00112	8a 50 0f	 mov	 dl, BYTE PTR [eax+15]
  00115	84 d2		 test	 dl, dl
  00117	0f 84 c5 00 00
	00		 je	 $LN81@LoadFloat_
  0011d	32 d3		 xor	 dl, bl
  0011f	88 55 ef	 mov	 BYTE PTR __k$[ebp+15], dl
  00122	8a 50 10	 mov	 dl, BYTE PTR [eax+16]
  00125	84 d2		 test	 dl, dl
  00127	0f 84 af 00 00
	00		 je	 $LN80@LoadFloat_
  0012d	80 f2 ed	 xor	 dl, -19			; ffffffedH
  00130	88 55 f0	 mov	 BYTE PTR __k$[ebp+16], dl
  00133	8a 50 11	 mov	 dl, BYTE PTR [eax+17]
  00136	84 d2		 test	 dl, dl
  00138	0f 84 98 00 00
	00		 je	 $LN79@LoadFloat_
  0013e	80 f2 ec	 xor	 dl, -20			; ffffffecH
  00141	88 55 f1	 mov	 BYTE PTR __k$[ebp+17], dl
  00144	8a 50 12	 mov	 dl, BYTE PTR [eax+18]
  00147	84 d2		 test	 dl, dl
  00149	0f 84 82 00 00
	00		 je	 $LN78@LoadFloat_
  0014f	32 d1		 xor	 dl, cl
  00151	88 55 f2	 mov	 BYTE PTR __k$[ebp+18], dl
  00154	8a 50 13	 mov	 dl, BYTE PTR [eax+19]
  00157	84 d2		 test	 dl, dl
  00159	74 71		 je	 SHORT $LN77@LoadFloat_
  0015b	32 d3		 xor	 dl, bl
  0015d	88 55 f3	 mov	 BYTE PTR __k$[ebp+19], dl
  00160	8a 50 14	 mov	 dl, BYTE PTR [eax+20]
  00163	84 d2		 test	 dl, dl
  00165	74 5f		 je	 SHORT $LN76@LoadFloat_
  00167	80 f2 ed	 xor	 dl, -19			; ffffffedH
  0016a	80 78 15 00	 cmp	 BYTE PTR [eax+21], 0
  0016e	88 55 f4	 mov	 BYTE PTR __k$[ebp+20], dl
  00171	0f 84 c3 00 00
	00		 je	 $LN1@LoadFloat_
  00177	8a 50 16	 mov	 dl, BYTE PTR [eax+22]
  0017a	84 d2		 test	 dl, dl
  0017c	74 43		 je	 SHORT $LN74@LoadFloat_
  0017e	32 d1		 xor	 dl, cl
  00180	88 55 f6	 mov	 BYTE PTR __k$[ebp+22], dl
  00183	8a 50 17	 mov	 dl, BYTE PTR [eax+23]
  00186	84 d2		 test	 dl, dl
  00188	74 32		 je	 SHORT $LN73@LoadFloat_
  0018a	32 d3		 xor	 dl, bl
  0018c	88 55 f7	 mov	 BYTE PTR __k$[ebp+23], dl
  0018f	8a 50 18	 mov	 dl, BYTE PTR [eax+24]
  00192	84 d2		 test	 dl, dl
  00194	74 20		 je	 SHORT $LN72@LoadFloat_
  00196	8a 40 19	 mov	 al, BYTE PTR [eax+25]
  00199	80 f2 ed	 xor	 dl, -19			; ffffffedH
  0019c	88 55 f8	 mov	 BYTE PTR __k$[ebp+24], dl
  0019f	84 c0		 test	 al, al
  001a1	74 0a		 je	 SHORT $LN71@LoadFloat_
  001a3	34 ec		 xor	 al, -20			; ffffffecH
  001a5	88 45 f9	 mov	 BYTE PTR __k$[ebp+25], al
  001a8	e9 8d 00 00 00	 jmp	 $LN1@LoadFloat_
$LN71@LoadFloat_:
  001ad	c6 45 f9 ec	 mov	 BYTE PTR __k$[ebp+25], -20 ; ffffffecH
  001b1	e9 84 00 00 00	 jmp	 $LN1@LoadFloat_
$LN72@LoadFloat_:
  001b6	c6 45 f8 ed	 mov	 BYTE PTR __k$[ebp+24], -19 ; ffffffedH
  001ba	eb 7e		 jmp	 SHORT $LN1@LoadFloat_
$LN73@LoadFloat_:
  001bc	88 5d f7	 mov	 BYTE PTR __k$[ebp+23], bl
  001bf	eb 79		 jmp	 SHORT $LN1@LoadFloat_
$LN74@LoadFloat_:
  001c1	88 4d f6	 mov	 BYTE PTR __k$[ebp+22], cl
  001c4	eb 74		 jmp	 SHORT $LN1@LoadFloat_
$LN76@LoadFloat_:
  001c6	c6 45 f4 ed	 mov	 BYTE PTR __k$[ebp+20], -19 ; ffffffedH
  001ca	eb 6e		 jmp	 SHORT $LN1@LoadFloat_
$LN77@LoadFloat_:
  001cc	88 5d f3	 mov	 BYTE PTR __k$[ebp+19], bl
  001cf	eb 69		 jmp	 SHORT $LN1@LoadFloat_
$LN78@LoadFloat_:
  001d1	88 4d f2	 mov	 BYTE PTR __k$[ebp+18], cl
  001d4	eb 64		 jmp	 SHORT $LN1@LoadFloat_
$LN79@LoadFloat_:
  001d6	c6 45 f1 ec	 mov	 BYTE PTR __k$[ebp+17], -20 ; ffffffecH
  001da	eb 5e		 jmp	 SHORT $LN1@LoadFloat_
$LN80@LoadFloat_:
  001dc	c6 45 f0 ed	 mov	 BYTE PTR __k$[ebp+16], -19 ; ffffffedH
  001e0	eb 58		 jmp	 SHORT $LN1@LoadFloat_
$LN81@LoadFloat_:
  001e2	88 5d ef	 mov	 BYTE PTR __k$[ebp+15], bl
  001e5	eb 53		 jmp	 SHORT $LN1@LoadFloat_
$LN82@LoadFloat_:
  001e7	88 4d ee	 mov	 BYTE PTR __k$[ebp+14], cl
  001ea	eb 4e		 jmp	 SHORT $LN1@LoadFloat_
$LN83@LoadFloat_:
  001ec	c6 45 ed ec	 mov	 BYTE PTR __k$[ebp+13], -20 ; ffffffecH
  001f0	eb 48		 jmp	 SHORT $LN1@LoadFloat_
$LN84@LoadFloat_:
  001f2	c6 45 ec ed	 mov	 BYTE PTR __k$[ebp+12], -19 ; ffffffedH
  001f6	eb 42		 jmp	 SHORT $LN1@LoadFloat_
$LN85@LoadFloat_:
  001f8	88 5d eb	 mov	 BYTE PTR __k$[ebp+11], bl
  001fb	eb 3d		 jmp	 SHORT $LN1@LoadFloat_
$LN86@LoadFloat_:
  001fd	88 4d ea	 mov	 BYTE PTR __k$[ebp+10], cl
  00200	eb 38		 jmp	 SHORT $LN1@LoadFloat_
$LN87@LoadFloat_:
  00202	c6 45 e9 ec	 mov	 BYTE PTR __k$[ebp+9], -20 ; ffffffecH
  00206	eb 32		 jmp	 SHORT $LN1@LoadFloat_
$LN88@LoadFloat_:
  00208	c6 45 e8 ed	 mov	 BYTE PTR __k$[ebp+8], -19 ; ffffffedH
  0020c	eb 2c		 jmp	 SHORT $LN1@LoadFloat_
$LN89@LoadFloat_:
  0020e	88 5d e7	 mov	 BYTE PTR __k$[ebp+7], bl
  00211	eb 27		 jmp	 SHORT $LN1@LoadFloat_
$LN90@LoadFloat_:
  00213	88 4d e6	 mov	 BYTE PTR __k$[ebp+6], cl
  00216	eb 22		 jmp	 SHORT $LN1@LoadFloat_
$LN91@LoadFloat_:
  00218	c6 45 e5 ec	 mov	 BYTE PTR __k$[ebp+5], -20 ; ffffffecH
  0021c	eb 1c		 jmp	 SHORT $LN1@LoadFloat_
$LN92@LoadFloat_:
  0021e	c6 45 e4 ed	 mov	 BYTE PTR __k$[ebp+4], -19 ; ffffffedH
  00222	eb 16		 jmp	 SHORT $LN1@LoadFloat_
$LN93@LoadFloat_:
  00224	c6 45 e3 ea	 mov	 BYTE PTR __k$[ebp+3], -22 ; ffffffeaH
  00228	eb 10		 jmp	 SHORT $LN1@LoadFloat_
$LN94@LoadFloat_:
  0022a	c6 45 e2 eb	 mov	 BYTE PTR __k$[ebp+2], -21 ; ffffffebH
  0022e	eb 0a		 jmp	 SHORT $LN1@LoadFloat_
$LN95@LoadFloat_:
  00230	c6 45 e1 ec	 mov	 BYTE PTR __k$[ebp+1], -20 ; ffffffecH
  00234	eb 04		 jmp	 SHORT $LN1@LoadFloat_
$LN96@LoadFloat_:
  00236	c6 45 e0 ed	 mov	 BYTE PTR __k$[ebp], -19	; ffffffedH
$LN1@LoadFloat_:
  0023a	6a 05		 push	 5
  0023c	8d 45 e0	 lea	 eax, DWORD PTR __k$[ebp]
  0023f	c6 45 f5 00	 mov	 BYTE PTR __k$[ebp+21], 0
  00243	5a		 pop	 edx
$LL104@LoadFloat_:
  00244	81 30 ed ec eb
	ea		 xor	 DWORD PTR [eax], -353637139 ; eaebecedH
  0024a	83 c0 04	 add	 eax, 4
  0024d	4a		 dec	 edx
  0024e	75 f4		 jne	 SHORT $LL104@LoadFloat_

; 137  : 		return LoadFloat(_k, f);

  00250	f3 0f 10 45 0c	 movss	 xmm0, DWORD PTR _f$[ebp]
  00255	80 75 f4 ed	 xor	 BYTE PTR __k$[ebp+20], -19 ; ffffffedH
  00259	51		 push	 ecx
  0025a	8d 45 e0	 lea	 eax, DWORD PTR __k$[ebp]
  0025d	f3 0f 11 04 24	 movss	 DWORD PTR [esp], xmm0
  00262	50		 push	 eax
  00263	8b ce		 mov	 ecx, esi
  00265	ff 15 00 00 00
	00		 call	 DWORD PTR __imp_?LoadFloat@ioINILoader@@QAEMPBDM@Z

; 138  : 	}

  0026b	8b 4d fc	 mov	 ecx, DWORD PTR __$ArrayPad$[ebp]
  0026e	5e		 pop	 esi
  0026f	33 cd		 xor	 ecx, ebp
  00271	5b		 pop	 ebx
  00272	e8 00 00 00 00	 call	 @__security_check_cookie@4
  00277	c9		 leave
  00278	c2 08 00	 ret	 8
??$LoadFloat_e@$0BG@@ioINILoader@@QAEMAAY0BG@$$CBDM@Z ENDP ; ioINILoader::LoadFloat_e<22>
_TEXT	ENDS
PUBLIC	__$ArrayPad$
PUBLIC	??$LoadInt_e@$0BC@@ioINILoader@@QAEHAAY0BC@$$CBDH@Z ; ioINILoader::LoadInt_e<18>
; Function compile flags: /Ogsp
;	COMDAT ??$LoadInt_e@$0BC@@ioINILoader@@QAEHAAY0BC@$$CBDH@Z
_TEXT	SEGMENT
__k$ = -28						; size = 18
__$ArrayPad$ = -4					; size = 4
_k$ = 8							; size = 4
_i$ = 12						; size = 4
??$LoadInt_e@$0BC@@ioINILoader@@QAEHAAY0BC@$$CBDH@Z PROC ; ioINILoader::LoadInt_e<18>, COMDAT
; _this$ = ecx

; 118  : 	{

  00000	55		 push	 ebp
  00001	8b ec		 mov	 ebp, esp
  00003	83 ec 1c	 sub	 esp, 28			; 0000001cH
  00006	a1 00 00 00 00	 mov	 eax, DWORD PTR ___security_cookie
  0000b	33 c5		 xor	 eax, ebp
  0000d	89 45 fc	 mov	 DWORD PTR __$ArrayPad$[ebp], eax
  00010	8b 45 08	 mov	 eax, DWORD PTR _k$[ebp]

; 119  : 		_ENCSTR(k, _k);

  00013	8a 10		 mov	 dl, BYTE PTR [eax]
  00015	56		 push	 esi
  00016	8b f1		 mov	 esi, ecx
  00018	84 d2		 test	 dl, dl
  0001a	0f 84 be 01 00
	00		 je	 $LN96@LoadInt_e
  00020	80 f2 ed	 xor	 dl, -19			; ffffffedH
  00023	88 55 e4	 mov	 BYTE PTR __k$[ebp], dl
  00026	8a 50 01	 mov	 dl, BYTE PTR [eax+1]
  00029	84 d2		 test	 dl, dl
  0002b	0f 84 a7 01 00
	00		 je	 $LN95@LoadInt_e
  00031	80 f2 ec	 xor	 dl, -20			; ffffffecH
  00034	88 55 e5	 mov	 BYTE PTR __k$[ebp+1], dl
  00037	8a 50 02	 mov	 dl, BYTE PTR [eax+2]
  0003a	84 d2		 test	 dl, dl
  0003c	0f 84 90 01 00
	00		 je	 $LN94@LoadInt_e
  00042	b1 eb		 mov	 cl, -21			; ffffffebH
  00044	32 d1		 xor	 dl, cl
  00046	88 55 e6	 mov	 BYTE PTR __k$[ebp+2], dl
  00049	8a 50 03	 mov	 dl, BYTE PTR [eax+3]
  0004c	84 d2		 test	 dl, dl
  0004e	0f 84 78 01 00
	00		 je	 $LN93@LoadInt_e
  00054	80 f2 ea	 xor	 dl, -22			; ffffffeaH
  00057	88 55 e7	 mov	 BYTE PTR __k$[ebp+3], dl
  0005a	8a 50 04	 mov	 dl, BYTE PTR [eax+4]
  0005d	84 d2		 test	 dl, dl
  0005f	0f 84 61 01 00
	00		 je	 $LN92@LoadInt_e
  00065	80 f2 ed	 xor	 dl, -19			; ffffffedH
  00068	88 55 e8	 mov	 BYTE PTR __k$[ebp+4], dl
  0006b	8a 50 05	 mov	 dl, BYTE PTR [eax+5]
  0006e	84 d2		 test	 dl, dl
  00070	0f 84 4a 01 00
	00		 je	 $LN91@LoadInt_e
  00076	80 f2 ec	 xor	 dl, -20			; ffffffecH
  00079	88 55 e9	 mov	 BYTE PTR __k$[ebp+5], dl
  0007c	8a 50 06	 mov	 dl, BYTE PTR [eax+6]
  0007f	84 d2		 test	 dl, dl
  00081	0f 84 34 01 00
	00		 je	 $LN90@LoadInt_e
  00087	32 d1		 xor	 dl, cl
  00089	88 55 ea	 mov	 BYTE PTR __k$[ebp+6], dl
  0008c	8a 50 07	 mov	 dl, BYTE PTR [eax+7]
  0008f	84 d2		 test	 dl, dl
  00091	0f 84 1e 01 00
	00		 je	 $LN89@LoadInt_e
  00097	80 f2 ea	 xor	 dl, -22			; ffffffeaH
  0009a	88 55 eb	 mov	 BYTE PTR __k$[ebp+7], dl
  0009d	8a 50 08	 mov	 dl, BYTE PTR [eax+8]
  000a0	84 d2		 test	 dl, dl
  000a2	0f 84 07 01 00
	00		 je	 $LN88@LoadInt_e
  000a8	80 f2 ed	 xor	 dl, -19			; ffffffedH
  000ab	88 55 ec	 mov	 BYTE PTR __k$[ebp+8], dl
  000ae	8a 50 09	 mov	 dl, BYTE PTR [eax+9]
  000b1	84 d2		 test	 dl, dl
  000b3	0f 84 f0 00 00
	00		 je	 $LN87@LoadInt_e
  000b9	80 f2 ec	 xor	 dl, -20			; ffffffecH
  000bc	88 55 ed	 mov	 BYTE PTR __k$[ebp+9], dl
  000bf	8a 50 0a	 mov	 dl, BYTE PTR [eax+10]
  000c2	84 d2		 test	 dl, dl
  000c4	0f 84 da 00 00
	00		 je	 $LN86@LoadInt_e
  000ca	32 d1		 xor	 dl, cl
  000cc	88 55 ee	 mov	 BYTE PTR __k$[ebp+10], dl
  000cf	8a 50 0b	 mov	 dl, BYTE PTR [eax+11]
  000d2	84 d2		 test	 dl, dl
  000d4	0f 84 c4 00 00
	00		 je	 $LN85@LoadInt_e
  000da	80 f2 ea	 xor	 dl, -22			; ffffffeaH
  000dd	88 55 ef	 mov	 BYTE PTR __k$[ebp+11], dl
  000e0	8a 50 0c	 mov	 dl, BYTE PTR [eax+12]
  000e3	84 d2		 test	 dl, dl
  000e5	0f 84 ad 00 00
	00		 je	 $LN84@LoadInt_e
  000eb	80 f2 ed	 xor	 dl, -19			; ffffffedH
  000ee	88 55 f0	 mov	 BYTE PTR __k$[ebp+12], dl
  000f1	8a 50 0d	 mov	 dl, BYTE PTR [eax+13]
  000f4	84 d2		 test	 dl, dl
  000f6	0f 84 96 00 00
	00		 je	 $LN83@LoadInt_e
  000fc	80 f2 ec	 xor	 dl, -20			; ffffffecH
  000ff	88 55 f1	 mov	 BYTE PTR __k$[ebp+13], dl
  00102	8a 50 0e	 mov	 dl, BYTE PTR [eax+14]
  00105	84 d2		 test	 dl, dl
  00107	0f 84 80 00 00
	00		 je	 $LN82@LoadInt_e
  0010d	32 d1		 xor	 dl, cl
  0010f	88 55 f2	 mov	 BYTE PTR __k$[ebp+14], dl
  00112	8a 50 0f	 mov	 dl, BYTE PTR [eax+15]
  00115	84 d2		 test	 dl, dl
  00117	74 6e		 je	 SHORT $LN81@LoadInt_e
  00119	80 f2 ea	 xor	 dl, -22			; ffffffeaH
  0011c	88 55 f3	 mov	 BYTE PTR __k$[ebp+15], dl
  0011f	8a 50 10	 mov	 dl, BYTE PTR [eax+16]
  00122	84 d2		 test	 dl, dl
  00124	74 5b		 je	 SHORT $LN80@LoadInt_e
  00126	80 f2 ed	 xor	 dl, -19			; ffffffedH
  00129	80 78 11 00	 cmp	 BYTE PTR [eax+17], 0
  0012d	88 55 f4	 mov	 BYTE PTR __k$[ebp+16], dl
  00130	0f 84 ac 00 00
	00		 je	 $LN1@LoadInt_e
  00136	8a 50 12	 mov	 dl, BYTE PTR [eax+18]
  00139	84 d2		 test	 dl, dl
  0013b	74 3f		 je	 SHORT $LN78@LoadInt_e
  0013d	32 d1		 xor	 dl, cl
  0013f	88 55 f6	 mov	 BYTE PTR __k$[ebp+18], dl
  00142	8a 50 13	 mov	 dl, BYTE PTR [eax+19]
  00145	84 d2		 test	 dl, dl
  00147	74 2d		 je	 SHORT $LN77@LoadInt_e
  00149	80 f2 ea	 xor	 dl, -22			; ffffffeaH
  0014c	88 55 f7	 mov	 BYTE PTR __k$[ebp+19], dl
  0014f	8a 50 14	 mov	 dl, BYTE PTR [eax+20]
  00152	84 d2		 test	 dl, dl
  00154	74 1a		 je	 SHORT $LN76@LoadInt_e
  00156	8a 40 15	 mov	 al, BYTE PTR [eax+21]
  00159	80 f2 ed	 xor	 dl, -19			; ffffffedH
  0015c	88 55 f8	 mov	 BYTE PTR __k$[ebp+20], dl
  0015f	84 c0		 test	 al, al
  00161	74 07		 je	 SHORT $LN75@LoadInt_e
  00163	34 ec		 xor	 al, -20			; ffffffecH
  00165	88 45 f9	 mov	 BYTE PTR __k$[ebp+21], al
  00168	eb 78		 jmp	 SHORT $LN1@LoadInt_e
$LN75@LoadInt_e:
  0016a	c6 45 f9 ec	 mov	 BYTE PTR __k$[ebp+21], -20 ; ffffffecH
  0016e	eb 72		 jmp	 SHORT $LN1@LoadInt_e
$LN76@LoadInt_e:
  00170	c6 45 f8 ed	 mov	 BYTE PTR __k$[ebp+20], -19 ; ffffffedH
  00174	eb 6c		 jmp	 SHORT $LN1@LoadInt_e
$LN77@LoadInt_e:
  00176	c6 45 f7 ea	 mov	 BYTE PTR __k$[ebp+19], -22 ; ffffffeaH
  0017a	eb 66		 jmp	 SHORT $LN1@LoadInt_e
$LN78@LoadInt_e:
  0017c	88 4d f6	 mov	 BYTE PTR __k$[ebp+18], cl
  0017f	eb 61		 jmp	 SHORT $LN1@LoadInt_e
$LN80@LoadInt_e:
  00181	c6 45 f4 ed	 mov	 BYTE PTR __k$[ebp+16], -19 ; ffffffedH
  00185	eb 5b		 jmp	 SHORT $LN1@LoadInt_e
$LN81@LoadInt_e:
  00187	c6 45 f3 ea	 mov	 BYTE PTR __k$[ebp+15], -22 ; ffffffeaH
  0018b	eb 55		 jmp	 SHORT $LN1@LoadInt_e
$LN82@LoadInt_e:
  0018d	88 4d f2	 mov	 BYTE PTR __k$[ebp+14], cl
  00190	eb 50		 jmp	 SHORT $LN1@LoadInt_e
$LN83@LoadInt_e:
  00192	c6 45 f1 ec	 mov	 BYTE PTR __k$[ebp+13], -20 ; ffffffecH
  00196	eb 4a		 jmp	 SHORT $LN1@LoadInt_e
$LN84@LoadInt_e:
  00198	c6 45 f0 ed	 mov	 BYTE PTR __k$[ebp+12], -19 ; ffffffedH
  0019c	eb 44		 jmp	 SHORT $LN1@LoadInt_e
$LN85@LoadInt_e:
  0019e	c6 45 ef ea	 mov	 BYTE PTR __k$[ebp+11], -22 ; ffffffeaH
  001a2	eb 3e		 jmp	 SHORT $LN1@LoadInt_e
$LN86@LoadInt_e:
  001a4	88 4d ee	 mov	 BYTE PTR __k$[ebp+10], cl
  001a7	eb 39		 jmp	 SHORT $LN1@LoadInt_e
$LN87@LoadInt_e:
  001a9	c6 45 ed ec	 mov	 BYTE PTR __k$[ebp+9], -20 ; ffffffecH
  001ad	eb 33		 jmp	 SHORT $LN1@LoadInt_e
$LN88@LoadInt_e:
  001af	c6 45 ec ed	 mov	 BYTE PTR __k$[ebp+8], -19 ; ffffffedH
  001b3	eb 2d		 jmp	 SHORT $LN1@LoadInt_e
$LN89@LoadInt_e:
  001b5	c6 45 eb ea	 mov	 BYTE PTR __k$[ebp+7], -22 ; ffffffeaH
  001b9	eb 27		 jmp	 SHORT $LN1@LoadInt_e
$LN90@LoadInt_e:
  001bb	88 4d ea	 mov	 BYTE PTR __k$[ebp+6], cl
  001be	eb 22		 jmp	 SHORT $LN1@LoadInt_e
$LN91@LoadInt_e:
  001c0	c6 45 e9 ec	 mov	 BYTE PTR __k$[ebp+5], -20 ; ffffffecH
  001c4	eb 1c		 jmp	 SHORT $LN1@LoadInt_e
$LN92@LoadInt_e:
  001c6	c6 45 e8 ed	 mov	 BYTE PTR __k$[ebp+4], -19 ; ffffffedH
  001ca	eb 16		 jmp	 SHORT $LN1@LoadInt_e
$LN93@LoadInt_e:
  001cc	c6 45 e7 ea	 mov	 BYTE PTR __k$[ebp+3], -22 ; ffffffeaH
  001d0	eb 10		 jmp	 SHORT $LN1@LoadInt_e
$LN94@LoadInt_e:
  001d2	c6 45 e6 eb	 mov	 BYTE PTR __k$[ebp+2], -21 ; ffffffebH
  001d6	eb 0a		 jmp	 SHORT $LN1@LoadInt_e
$LN95@LoadInt_e:
  001d8	c6 45 e5 ec	 mov	 BYTE PTR __k$[ebp+1], -20 ; ffffffecH
  001dc	eb 04		 jmp	 SHORT $LN1@LoadInt_e
$LN96@LoadInt_e:
  001de	c6 45 e4 ed	 mov	 BYTE PTR __k$[ebp], -19	; ffffffedH
$LN1@LoadInt_e:
  001e2	6a 04		 push	 4
  001e4	8d 45 e4	 lea	 eax, DWORD PTR __k$[ebp]
  001e7	c6 45 f5 00	 mov	 BYTE PTR __k$[ebp+17], 0
  001eb	5a		 pop	 edx
$LL104@LoadInt_e:
  001ec	81 30 ed ec eb
	ea		 xor	 DWORD PTR [eax], -353637139 ; eaebecedH
  001f2	83 c0 04	 add	 eax, 4
  001f5	4a		 dec	 edx
  001f6	75 f4		 jne	 SHORT $LL104@LoadInt_e

; 120  : 		return LoadInt(_k, i);

  001f8	ff 75 0c	 push	 DWORD PTR _i$[ebp]
  001fb	80 75 f4 ed	 xor	 BYTE PTR __k$[ebp+16], -19 ; ffffffedH
  001ff	8d 45 e4	 lea	 eax, DWORD PTR __k$[ebp]
  00202	50		 push	 eax
  00203	8b ce		 mov	 ecx, esi
  00205	ff 15 00 00 00
	00		 call	 DWORD PTR __imp_?LoadInt@ioINILoader@@QAEHPBDH@Z

; 121  : 	}

  0020b	8b 4d fc	 mov	 ecx, DWORD PTR __$ArrayPad$[ebp]
  0020e	33 cd		 xor	 ecx, ebp
  00210	5e		 pop	 esi
  00211	e8 00 00 00 00	 call	 @__security_check_cookie@4
  00216	c9		 leave
  00217	c2 08 00	 ret	 8
??$LoadInt_e@$0BC@@ioINILoader@@QAEHAAY0BC@$$CBDH@Z ENDP ; ioINILoader::LoadInt_e<18>
_TEXT	ENDS
PUBLIC	__$ArrayPad$
PUBLIC	??$LoadFloat_e@$0N@@ioINILoader@@QAEMAAY0N@$$CBDM@Z ; ioINILoader::LoadFloat_e<13>
; Function compile flags: /Ogsp
;	COMDAT ??$LoadFloat_e@$0N@@ioINILoader@@QAEMAAY0N@$$CBDM@Z
_TEXT	SEGMENT
__k$ = -24						; size = 13
__$ArrayPad$ = -4					; size = 4
_k$ = 8							; size = 4
_f$ = 12						; size = 4
??$LoadFloat_e@$0N@@ioINILoader@@QAEMAAY0N@$$CBDM@Z PROC ; ioINILoader::LoadFloat_e<13>, COMDAT
; _this$ = ecx

; 135  : 	{

  00000	55		 push	 ebp
  00001	8b ec		 mov	 ebp, esp
  00003	83 ec 18	 sub	 esp, 24			; 00000018H
  00006	a1 00 00 00 00	 mov	 eax, DWORD PTR ___security_cookie
  0000b	33 c5		 xor	 eax, ebp
  0000d	89 45 fc	 mov	 DWORD PTR __$ArrayPad$[ebp], eax
  00010	8b 45 08	 mov	 eax, DWORD PTR _k$[ebp]

; 136  : 		_ENCSTR(k, _k);

  00013	8a 10		 mov	 dl, BYTE PTR [eax]
  00015	56		 push	 esi
  00016	8b f1		 mov	 esi, ecx
  00018	84 d2		 test	 dl, dl
  0001a	0f 84 4d 01 00
	00		 je	 $LN96@LoadFloat_@2
  00020	80 f2 ed	 xor	 dl, -19			; ffffffedH
  00023	88 55 e8	 mov	 BYTE PTR __k$[ebp], dl
  00026	8a 50 01	 mov	 dl, BYTE PTR [eax+1]
  00029	84 d2		 test	 dl, dl
  0002b	0f 84 36 01 00
	00		 je	 $LN95@LoadFloat_@2
  00031	b1 ec		 mov	 cl, -20			; ffffffecH
  00033	32 d1		 xor	 dl, cl
  00035	88 55 e9	 mov	 BYTE PTR __k$[ebp+1], dl
  00038	8a 50 02	 mov	 dl, BYTE PTR [eax+2]
  0003b	84 d2		 test	 dl, dl
  0003d	0f 84 1e 01 00
	00		 je	 $LN94@LoadFloat_@2
  00043	80 f2 eb	 xor	 dl, -21			; ffffffebH
  00046	88 55 ea	 mov	 BYTE PTR __k$[ebp+2], dl
  00049	8a 50 03	 mov	 dl, BYTE PTR [eax+3]
  0004c	84 d2		 test	 dl, dl
  0004e	0f 84 07 01 00
	00		 je	 $LN93@LoadFloat_@2
  00054	80 f2 ea	 xor	 dl, -22			; ffffffeaH
  00057	88 55 eb	 mov	 BYTE PTR __k$[ebp+3], dl
  0005a	8a 50 04	 mov	 dl, BYTE PTR [eax+4]
  0005d	84 d2		 test	 dl, dl
  0005f	0f 84 f0 00 00
	00		 je	 $LN92@LoadFloat_@2
  00065	80 f2 ed	 xor	 dl, -19			; ffffffedH
  00068	88 55 ec	 mov	 BYTE PTR __k$[ebp+4], dl
  0006b	8a 50 05	 mov	 dl, BYTE PTR [eax+5]
  0006e	84 d2		 test	 dl, dl
  00070	0f 84 da 00 00
	00		 je	 $LN91@LoadFloat_@2
  00076	32 d1		 xor	 dl, cl
  00078	88 55 ed	 mov	 BYTE PTR __k$[ebp+5], dl
  0007b	8a 50 06	 mov	 dl, BYTE PTR [eax+6]
  0007e	84 d2		 test	 dl, dl
  00080	0f 84 c4 00 00
	00		 je	 $LN90@LoadFloat_@2
  00086	80 f2 eb	 xor	 dl, -21			; ffffffebH
  00089	88 55 ee	 mov	 BYTE PTR __k$[ebp+6], dl
  0008c	8a 50 07	 mov	 dl, BYTE PTR [eax+7]
  0008f	84 d2		 test	 dl, dl
  00091	0f 84 ad 00 00
	00		 je	 $LN89@LoadFloat_@2
  00097	80 f2 ea	 xor	 dl, -22			; ffffffeaH
  0009a	88 55 ef	 mov	 BYTE PTR __k$[ebp+7], dl
  0009d	8a 50 08	 mov	 dl, BYTE PTR [eax+8]
  000a0	84 d2		 test	 dl, dl
  000a2	0f 84 96 00 00
	00		 je	 $LN88@LoadFloat_@2
  000a8	80 f2 ed	 xor	 dl, -19			; ffffffedH
  000ab	88 55 f0	 mov	 BYTE PTR __k$[ebp+8], dl
  000ae	8a 50 09	 mov	 dl, BYTE PTR [eax+9]
  000b1	84 d2		 test	 dl, dl
  000b3	0f 84 80 00 00
	00		 je	 $LN87@LoadFloat_@2
  000b9	32 d1		 xor	 dl, cl
  000bb	88 55 f1	 mov	 BYTE PTR __k$[ebp+9], dl
  000be	8a 50 0a	 mov	 dl, BYTE PTR [eax+10]
  000c1	84 d2		 test	 dl, dl
  000c3	74 6e		 je	 SHORT $LN86@LoadFloat_@2
  000c5	80 f2 eb	 xor	 dl, -21			; ffffffebH
  000c8	88 55 f2	 mov	 BYTE PTR __k$[ebp+10], dl
  000cb	8a 50 0b	 mov	 dl, BYTE PTR [eax+11]
  000ce	84 d2		 test	 dl, dl
  000d0	74 5b		 je	 SHORT $LN85@LoadFloat_@2
  000d2	80 f2 ea	 xor	 dl, -22			; ffffffeaH
  000d5	80 78 0c 00	 cmp	 BYTE PTR [eax+12], 0
  000d9	88 55 f3	 mov	 BYTE PTR __k$[ebp+11], dl
  000dc	0f 84 8f 00 00
	00		 je	 $LN1@LoadFloat_@2
  000e2	8a 50 0d	 mov	 dl, BYTE PTR [eax+13]
  000e5	84 d2		 test	 dl, dl
  000e7	74 3f		 je	 SHORT $LN83@LoadFloat_@2
  000e9	32 d1		 xor	 dl, cl
  000eb	88 55 f5	 mov	 BYTE PTR __k$[ebp+13], dl
  000ee	8a 50 0e	 mov	 dl, BYTE PTR [eax+14]
  000f1	84 d2		 test	 dl, dl
  000f3	74 2d		 je	 SHORT $LN82@LoadFloat_@2
  000f5	80 f2 eb	 xor	 dl, -21			; ffffffebH
  000f8	88 55 f6	 mov	 BYTE PTR __k$[ebp+14], dl
  000fb	8a 50 0f	 mov	 dl, BYTE PTR [eax+15]
  000fe	84 d2		 test	 dl, dl
  00100	74 1a		 je	 SHORT $LN81@LoadFloat_@2
  00102	8a 40 10	 mov	 al, BYTE PTR [eax+16]
  00105	80 f2 ea	 xor	 dl, -22			; ffffffeaH
  00108	88 55 f7	 mov	 BYTE PTR __k$[ebp+15], dl
  0010b	84 c0		 test	 al, al
  0010d	74 07		 je	 SHORT $LN80@LoadFloat_@2
  0010f	34 ed		 xor	 al, -19			; ffffffedH
  00111	88 45 f8	 mov	 BYTE PTR __k$[ebp+16], al
  00114	eb 5b		 jmp	 SHORT $LN1@LoadFloat_@2
$LN80@LoadFloat_@2:
  00116	c6 45 f8 ed	 mov	 BYTE PTR __k$[ebp+16], -19 ; ffffffedH
  0011a	eb 55		 jmp	 SHORT $LN1@LoadFloat_@2
$LN81@LoadFloat_@2:
  0011c	c6 45 f7 ea	 mov	 BYTE PTR __k$[ebp+15], -22 ; ffffffeaH
  00120	eb 4f		 jmp	 SHORT $LN1@LoadFloat_@2
$LN82@LoadFloat_@2:
  00122	c6 45 f6 eb	 mov	 BYTE PTR __k$[ebp+14], -21 ; ffffffebH
  00126	eb 49		 jmp	 SHORT $LN1@LoadFloat_@2
$LN83@LoadFloat_@2:
  00128	88 4d f5	 mov	 BYTE PTR __k$[ebp+13], cl
  0012b	eb 44		 jmp	 SHORT $LN1@LoadFloat_@2
$LN85@LoadFloat_@2:
  0012d	c6 45 f3 ea	 mov	 BYTE PTR __k$[ebp+11], -22 ; ffffffeaH
  00131	eb 3e		 jmp	 SHORT $LN1@LoadFloat_@2
$LN86@LoadFloat_@2:
  00133	c6 45 f2 eb	 mov	 BYTE PTR __k$[ebp+10], -21 ; ffffffebH
  00137	eb 38		 jmp	 SHORT $LN1@LoadFloat_@2
$LN87@LoadFloat_@2:
  00139	88 4d f1	 mov	 BYTE PTR __k$[ebp+9], cl
  0013c	eb 33		 jmp	 SHORT $LN1@LoadFloat_@2
$LN88@LoadFloat_@2:
  0013e	c6 45 f0 ed	 mov	 BYTE PTR __k$[ebp+8], -19 ; ffffffedH
  00142	eb 2d		 jmp	 SHORT $LN1@LoadFloat_@2
$LN89@LoadFloat_@2:
  00144	c6 45 ef ea	 mov	 BYTE PTR __k$[ebp+7], -22 ; ffffffeaH
  00148	eb 27		 jmp	 SHORT $LN1@LoadFloat_@2
$LN90@LoadFloat_@2:
  0014a	c6 45 ee eb	 mov	 BYTE PTR __k$[ebp+6], -21 ; ffffffebH
  0014e	eb 21		 jmp	 SHORT $LN1@LoadFloat_@2
$LN91@LoadFloat_@2:
  00150	88 4d ed	 mov	 BYTE PTR __k$[ebp+5], cl
  00153	eb 1c		 jmp	 SHORT $LN1@LoadFloat_@2
$LN92@LoadFloat_@2:
  00155	c6 45 ec ed	 mov	 BYTE PTR __k$[ebp+4], -19 ; ffffffedH
  00159	eb 16		 jmp	 SHORT $LN1@LoadFloat_@2
$LN93@LoadFloat_@2:
  0015b	c6 45 eb ea	 mov	 BYTE PTR __k$[ebp+3], -22 ; ffffffeaH
  0015f	eb 10		 jmp	 SHORT $LN1@LoadFloat_@2
$LN94@LoadFloat_@2:
  00161	c6 45 ea eb	 mov	 BYTE PTR __k$[ebp+2], -21 ; ffffffebH
  00165	eb 0a		 jmp	 SHORT $LN1@LoadFloat_@2
$LN95@LoadFloat_@2:
  00167	c6 45 e9 ec	 mov	 BYTE PTR __k$[ebp+1], -20 ; ffffffecH
  0016b	eb 04		 jmp	 SHORT $LN1@LoadFloat_@2
$LN96@LoadFloat_@2:
  0016d	c6 45 e8 ed	 mov	 BYTE PTR __k$[ebp], -19	; ffffffedH
$LN1@LoadFloat_@2:
  00171	6a 03		 push	 3
  00173	8d 45 e8	 lea	 eax, DWORD PTR __k$[ebp]
  00176	c6 45 f4 00	 mov	 BYTE PTR __k$[ebp+12], 0
  0017a	5a		 pop	 edx
$LL104@LoadFloat_@2:
  0017b	81 30 ed ec eb
	ea		 xor	 DWORD PTR [eax], -353637139 ; eaebecedH
  00181	83 c0 04	 add	 eax, 4
  00184	4a		 dec	 edx
  00185	75 f4		 jne	 SHORT $LL104@LoadFloat_@2

; 137  : 		return LoadFloat(_k, f);

  00187	f3 0f 10 45 0c	 movss	 xmm0, DWORD PTR _f$[ebp]
  0018c	51		 push	 ecx
  0018d	8d 45 e8	 lea	 eax, DWORD PTR __k$[ebp]
  00190	f3 0f 11 04 24	 movss	 DWORD PTR [esp], xmm0
  00195	50		 push	 eax
  00196	8b ce		 mov	 ecx, esi
  00198	ff 15 00 00 00
	00		 call	 DWORD PTR __imp_?LoadFloat@ioINILoader@@QAEMPBDM@Z

; 138  : 	}

  0019e	8b 4d fc	 mov	 ecx, DWORD PTR __$ArrayPad$[ebp]
  001a1	33 cd		 xor	 ecx, ebp
  001a3	5e		 pop	 esi
  001a4	e8 00 00 00 00	 call	 @__security_check_cookie@4
  001a9	c9		 leave
  001aa	c2 08 00	 ret	 8
??$LoadFloat_e@$0N@@ioINILoader@@QAEMAAY0N@$$CBDM@Z ENDP ; ioINILoader::LoadFloat_e<13>
_TEXT	ENDS
PUBLIC	__$ArrayPad$
PUBLIC	??$LoadFloat_e@$0BE@@ioINILoader@@QAEMAAY0BE@$$CBDM@Z ; ioINILoader::LoadFloat_e<20>
; Function compile flags: /Ogsp
;	COMDAT ??$LoadFloat_e@$0BE@@ioINILoader@@QAEMAAY0BE@$$CBDM@Z
_TEXT	SEGMENT
__k$ = -28						; size = 20
__$ArrayPad$ = -4					; size = 4
_k$ = 8							; size = 4
_f$ = 12						; size = 4
??$LoadFloat_e@$0BE@@ioINILoader@@QAEMAAY0BE@$$CBDM@Z PROC ; ioINILoader::LoadFloat_e<20>, COMDAT
; _this$ = ecx

; 135  : 	{

  00000	55		 push	 ebp
  00001	8b ec		 mov	 ebp, esp
  00003	83 ec 1c	 sub	 esp, 28			; 0000001cH
  00006	a1 00 00 00 00	 mov	 eax, DWORD PTR ___security_cookie
  0000b	33 c5		 xor	 eax, ebp
  0000d	89 45 fc	 mov	 DWORD PTR __$ArrayPad$[ebp], eax
  00010	8b 45 08	 mov	 eax, DWORD PTR _k$[ebp]

; 136  : 		_ENCSTR(k, _k);

  00013	8a 10		 mov	 dl, BYTE PTR [eax]
  00015	53		 push	 ebx
  00016	56		 push	 esi
  00017	8b f1		 mov	 esi, ecx
  00019	84 d2		 test	 dl, dl
  0001b	0f 84 dd 01 00
	00		 je	 $LN96@LoadFloat_@3
  00021	80 f2 ed	 xor	 dl, -19			; ffffffedH
  00024	88 55 e4	 mov	 BYTE PTR __k$[ebp], dl
  00027	8a 50 01	 mov	 dl, BYTE PTR [eax+1]
  0002a	84 d2		 test	 dl, dl
  0002c	0f 84 c6 01 00
	00		 je	 $LN95@LoadFloat_@3
  00032	b3 ec		 mov	 bl, -20			; ffffffecH
  00034	32 d3		 xor	 dl, bl
  00036	88 55 e5	 mov	 BYTE PTR __k$[ebp+1], dl
  00039	8a 50 02	 mov	 dl, BYTE PTR [eax+2]
  0003c	84 d2		 test	 dl, dl
  0003e	0f 84 ae 01 00
	00		 je	 $LN94@LoadFloat_@3
  00044	b1 eb		 mov	 cl, -21			; ffffffebH
  00046	32 d1		 xor	 dl, cl
  00048	88 55 e6	 mov	 BYTE PTR __k$[ebp+2], dl
  0004b	8a 50 03	 mov	 dl, BYTE PTR [eax+3]
  0004e	84 d2		 test	 dl, dl
  00050	0f 84 96 01 00
	00		 je	 $LN93@LoadFloat_@3
  00056	80 f2 ea	 xor	 dl, -22			; ffffffeaH
  00059	88 55 e7	 mov	 BYTE PTR __k$[ebp+3], dl
  0005c	8a 50 04	 mov	 dl, BYTE PTR [eax+4]
  0005f	84 d2		 test	 dl, dl
  00061	0f 84 7f 01 00
	00		 je	 $LN92@LoadFloat_@3
  00067	80 f2 ed	 xor	 dl, -19			; ffffffedH
  0006a	88 55 e8	 mov	 BYTE PTR __k$[ebp+4], dl
  0006d	8a 50 05	 mov	 dl, BYTE PTR [eax+5]
  00070	84 d2		 test	 dl, dl
  00072	0f 84 69 01 00
	00		 je	 $LN91@LoadFloat_@3
  00078	32 d3		 xor	 dl, bl
  0007a	88 55 e9	 mov	 BYTE PTR __k$[ebp+5], dl
  0007d	8a 50 06	 mov	 dl, BYTE PTR [eax+6]
  00080	84 d2		 test	 dl, dl
  00082	0f 84 54 01 00
	00		 je	 $LN90@LoadFloat_@3
  00088	32 d1		 xor	 dl, cl
  0008a	88 55 ea	 mov	 BYTE PTR __k$[ebp+6], dl
  0008d	8a 50 07	 mov	 dl, BYTE PTR [eax+7]
  00090	84 d2		 test	 dl, dl
  00092	0f 84 3e 01 00
	00		 je	 $LN89@LoadFloat_@3
  00098	80 f2 ea	 xor	 dl, -22			; ffffffeaH
  0009b	88 55 eb	 mov	 BYTE PTR __k$[ebp+7], dl
  0009e	8a 50 08	 mov	 dl, BYTE PTR [eax+8]
  000a1	84 d2		 test	 dl, dl
  000a3	0f 84 27 01 00
	00		 je	 $LN88@LoadFloat_@3
  000a9	80 f2 ed	 xor	 dl, -19			; ffffffedH
  000ac	88 55 ec	 mov	 BYTE PTR __k$[ebp+8], dl
  000af	8a 50 09	 mov	 dl, BYTE PTR [eax+9]
  000b2	84 d2		 test	 dl, dl
  000b4	0f 84 11 01 00
	00		 je	 $LN87@LoadFloat_@3
  000ba	32 d3		 xor	 dl, bl
  000bc	88 55 ed	 mov	 BYTE PTR __k$[ebp+9], dl
  000bf	8a 50 0a	 mov	 dl, BYTE PTR [eax+10]
  000c2	84 d2		 test	 dl, dl
  000c4	0f 84 fc 00 00
	00		 je	 $LN86@LoadFloat_@3
  000ca	32 d1		 xor	 dl, cl
  000cc	88 55 ee	 mov	 BYTE PTR __k$[ebp+10], dl
  000cf	8a 50 0b	 mov	 dl, BYTE PTR [eax+11]
  000d2	84 d2		 test	 dl, dl
  000d4	0f 84 e6 00 00
	00		 je	 $LN85@LoadFloat_@3
  000da	80 f2 ea	 xor	 dl, -22			; ffffffeaH
  000dd	88 55 ef	 mov	 BYTE PTR __k$[ebp+11], dl
  000e0	8a 50 0c	 mov	 dl, BYTE PTR [eax+12]
  000e3	84 d2		 test	 dl, dl
  000e5	0f 84 cf 00 00
	00		 je	 $LN84@LoadFloat_@3
  000eb	80 f2 ed	 xor	 dl, -19			; ffffffedH
  000ee	88 55 f0	 mov	 BYTE PTR __k$[ebp+12], dl
  000f1	8a 50 0d	 mov	 dl, BYTE PTR [eax+13]
  000f4	84 d2		 test	 dl, dl
  000f6	0f 84 b9 00 00
	00		 je	 $LN83@LoadFloat_@3
  000fc	32 d3		 xor	 dl, bl
  000fe	88 55 f1	 mov	 BYTE PTR __k$[ebp+13], dl
  00101	8a 50 0e	 mov	 dl, BYTE PTR [eax+14]
  00104	84 d2		 test	 dl, dl
  00106	0f 84 a4 00 00
	00		 je	 $LN82@LoadFloat_@3
  0010c	32 d1		 xor	 dl, cl
  0010e	88 55 f2	 mov	 BYTE PTR __k$[ebp+14], dl
  00111	8a 50 0f	 mov	 dl, BYTE PTR [eax+15]
  00114	84 d2		 test	 dl, dl
  00116	0f 84 8e 00 00
	00		 je	 $LN81@LoadFloat_@3
  0011c	80 f2 ea	 xor	 dl, -22			; ffffffeaH
  0011f	88 55 f3	 mov	 BYTE PTR __k$[ebp+15], dl
  00122	8a 50 10	 mov	 dl, BYTE PTR [eax+16]
  00125	84 d2		 test	 dl, dl
  00127	74 7b		 je	 SHORT $LN80@LoadFloat_@3
  00129	80 f2 ed	 xor	 dl, -19			; ffffffedH
  0012c	88 55 f4	 mov	 BYTE PTR __k$[ebp+16], dl
  0012f	8a 50 11	 mov	 dl, BYTE PTR [eax+17]
  00132	84 d2		 test	 dl, dl
  00134	74 69		 je	 SHORT $LN79@LoadFloat_@3
  00136	32 d3		 xor	 dl, bl
  00138	88 55 f5	 mov	 BYTE PTR __k$[ebp+17], dl
  0013b	8a 50 12	 mov	 dl, BYTE PTR [eax+18]
  0013e	84 d2		 test	 dl, dl
  00140	74 58		 je	 SHORT $LN78@LoadFloat_@3
  00142	32 d1		 xor	 dl, cl
  00144	80 78 13 00	 cmp	 BYTE PTR [eax+19], 0
  00148	88 55 f6	 mov	 BYTE PTR __k$[ebp+18], dl
  0014b	0f 84 b1 00 00
	00		 je	 $LN1@LoadFloat_@3
  00151	8a 50 14	 mov	 dl, BYTE PTR [eax+20]
  00154	84 d2		 test	 dl, dl
  00156	74 3c		 je	 SHORT $LN76@LoadFloat_@3
  00158	80 f2 ed	 xor	 dl, -19			; ffffffedH
  0015b	88 55 f8	 mov	 BYTE PTR __k$[ebp+20], dl
  0015e	8a 50 15	 mov	 dl, BYTE PTR [eax+21]
  00161	84 d2		 test	 dl, dl
  00163	74 2a		 je	 SHORT $LN75@LoadFloat_@3
  00165	32 d3		 xor	 dl, bl
  00167	88 55 f9	 mov	 BYTE PTR __k$[ebp+21], dl
  0016a	8a 50 16	 mov	 dl, BYTE PTR [eax+22]
  0016d	84 d2		 test	 dl, dl
  0016f	74 19		 je	 SHORT $LN74@LoadFloat_@3
  00171	8a 40 17	 mov	 al, BYTE PTR [eax+23]
  00174	32 d1		 xor	 dl, cl
  00176	88 55 fa	 mov	 BYTE PTR __k$[ebp+22], dl
  00179	84 c0		 test	 al, al
  0017b	74 07		 je	 SHORT $LN73@LoadFloat_@3
  0017d	34 ea		 xor	 al, -22			; ffffffeaH
  0017f	88 45 fb	 mov	 BYTE PTR __k$[ebp+23], al
  00182	eb 7e		 jmp	 SHORT $LN1@LoadFloat_@3
$LN73@LoadFloat_@3:
  00184	c6 45 fb ea	 mov	 BYTE PTR __k$[ebp+23], -22 ; ffffffeaH
  00188	eb 78		 jmp	 SHORT $LN1@LoadFloat_@3
$LN74@LoadFloat_@3:
  0018a	88 4d fa	 mov	 BYTE PTR __k$[ebp+22], cl
  0018d	eb 73		 jmp	 SHORT $LN1@LoadFloat_@3
$LN75@LoadFloat_@3:
  0018f	88 5d f9	 mov	 BYTE PTR __k$[ebp+21], bl
  00192	eb 6e		 jmp	 SHORT $LN1@LoadFloat_@3
$LN76@LoadFloat_@3:
  00194	c6 45 f8 ed	 mov	 BYTE PTR __k$[ebp+20], -19 ; ffffffedH
  00198	eb 68		 jmp	 SHORT $LN1@LoadFloat_@3
$LN78@LoadFloat_@3:
  0019a	88 4d f6	 mov	 BYTE PTR __k$[ebp+18], cl
  0019d	eb 63		 jmp	 SHORT $LN1@LoadFloat_@3
$LN79@LoadFloat_@3:
  0019f	88 5d f5	 mov	 BYTE PTR __k$[ebp+17], bl
  001a2	eb 5e		 jmp	 SHORT $LN1@LoadFloat_@3
$LN80@LoadFloat_@3:
  001a4	c6 45 f4 ed	 mov	 BYTE PTR __k$[ebp+16], -19 ; ffffffedH
  001a8	eb 58		 jmp	 SHORT $LN1@LoadFloat_@3
$LN81@LoadFloat_@3:
  001aa	c6 45 f3 ea	 mov	 BYTE PTR __k$[ebp+15], -22 ; ffffffeaH
  001ae	eb 52		 jmp	 SHORT $LN1@LoadFloat_@3
$LN82@LoadFloat_@3:
  001b0	88 4d f2	 mov	 BYTE PTR __k$[ebp+14], cl
  001b3	eb 4d		 jmp	 SHORT $LN1@LoadFloat_@3
$LN83@LoadFloat_@3:
  001b5	88 5d f1	 mov	 BYTE PTR __k$[ebp+13], bl
  001b8	eb 48		 jmp	 SHORT $LN1@LoadFloat_@3
$LN84@LoadFloat_@3:
  001ba	c6 45 f0 ed	 mov	 BYTE PTR __k$[ebp+12], -19 ; ffffffedH
  001be	eb 42		 jmp	 SHORT $LN1@LoadFloat_@3
$LN85@LoadFloat_@3:
  001c0	c6 45 ef ea	 mov	 BYTE PTR __k$[ebp+11], -22 ; ffffffeaH
  001c4	eb 3c		 jmp	 SHORT $LN1@LoadFloat_@3
$LN86@LoadFloat_@3:
  001c6	88 4d ee	 mov	 BYTE PTR __k$[ebp+10], cl
  001c9	eb 37		 jmp	 SHORT $LN1@LoadFloat_@3
$LN87@LoadFloat_@3:
  001cb	88 5d ed	 mov	 BYTE PTR __k$[ebp+9], bl
  001ce	eb 32		 jmp	 SHORT $LN1@LoadFloat_@3
$LN88@LoadFloat_@3:
  001d0	c6 45 ec ed	 mov	 BYTE PTR __k$[ebp+8], -19 ; ffffffedH
  001d4	eb 2c		 jmp	 SHORT $LN1@LoadFloat_@3
$LN89@LoadFloat_@3:
  001d6	c6 45 eb ea	 mov	 BYTE PTR __k$[ebp+7], -22 ; ffffffeaH
  001da	eb 26		 jmp	 SHORT $LN1@LoadFloat_@3
$LN90@LoadFloat_@3:
  001dc	88 4d ea	 mov	 BYTE PTR __k$[ebp+6], cl
  001df	eb 21		 jmp	 SHORT $LN1@LoadFloat_@3
$LN91@LoadFloat_@3:
  001e1	88 5d e9	 mov	 BYTE PTR __k$[ebp+5], bl
  001e4	eb 1c		 jmp	 SHORT $LN1@LoadFloat_@3
$LN92@LoadFloat_@3:
  001e6	c6 45 e8 ed	 mov	 BYTE PTR __k$[ebp+4], -19 ; ffffffedH
  001ea	eb 16		 jmp	 SHORT $LN1@LoadFloat_@3
$LN93@LoadFloat_@3:
  001ec	c6 45 e7 ea	 mov	 BYTE PTR __k$[ebp+3], -22 ; ffffffeaH
  001f0	eb 10		 jmp	 SHORT $LN1@LoadFloat_@3
$LN94@LoadFloat_@3:
  001f2	c6 45 e6 eb	 mov	 BYTE PTR __k$[ebp+2], -21 ; ffffffebH
  001f6	eb 0a		 jmp	 SHORT $LN1@LoadFloat_@3
$LN95@LoadFloat_@3:
  001f8	c6 45 e5 ec	 mov	 BYTE PTR __k$[ebp+1], -20 ; ffffffecH
  001fc	eb 04		 jmp	 SHORT $LN1@LoadFloat_@3
$LN96@LoadFloat_@3:
  001fe	c6 45 e4 ed	 mov	 BYTE PTR __k$[ebp], -19	; ffffffedH
$LN1@LoadFloat_@3:
  00202	6a 04		 push	 4
  00204	8d 45 e4	 lea	 eax, DWORD PTR __k$[ebp]
  00207	c6 45 f7 00	 mov	 BYTE PTR __k$[ebp+19], 0
  0020b	5a		 pop	 edx
$LL104@LoadFloat_@3:
  0020c	81 30 ed ec eb
	ea		 xor	 DWORD PTR [eax], -353637139 ; eaebecedH
  00212	83 c0 04	 add	 eax, 4
  00215	4a		 dec	 edx
  00216	75 f4		 jne	 SHORT $LL104@LoadFloat_@3
  00218	6a 10		 push	 16			; 00000010H
  0021a	58		 pop	 eax
$LL101@LoadFloat_@3:
  0021b	8b c8		 mov	 ecx, eax
  0021d	81 e1 03 00 00
	80		 and	 ecx, -2147483645	; 80000003H
  00223	79 05		 jns	 SHORT $LN111@LoadFloat_@3
  00225	49		 dec	 ecx
  00226	83 c9 fc	 or	 ecx, -4			; fffffffcH
  00229	41		 inc	 ecx
$LN111@LoadFloat_@3:
  0022a	b2 ed		 mov	 dl, -19			; ffffffedH
  0022c	2a d1		 sub	 dl, cl
  0022e	30 54 05 e4	 xor	 BYTE PTR __k$[ebp+eax], dl
  00232	40		 inc	 eax
  00233	83 f8 13	 cmp	 eax, 19			; 00000013H
  00236	7c e3		 jl	 SHORT $LL101@LoadFloat_@3

; 137  : 		return LoadFloat(_k, f);

  00238	f3 0f 10 45 0c	 movss	 xmm0, DWORD PTR _f$[ebp]
  0023d	51		 push	 ecx
  0023e	8d 45 e4	 lea	 eax, DWORD PTR __k$[ebp]
  00241	f3 0f 11 04 24	 movss	 DWORD PTR [esp], xmm0
  00246	50		 push	 eax
  00247	8b ce		 mov	 ecx, esi
  00249	ff 15 00 00 00
	00		 call	 DWORD PTR __imp_?LoadFloat@ioINILoader@@QAEMPBDM@Z

; 138  : 	}

  0024f	8b 4d fc	 mov	 ecx, DWORD PTR __$ArrayPad$[ebp]
  00252	5e		 pop	 esi
  00253	33 cd		 xor	 ecx, ebp
  00255	5b		 pop	 ebx
  00256	e8 00 00 00 00	 call	 @__security_check_cookie@4
  0025b	c9		 leave
  0025c	c2 08 00	 ret	 8
??$LoadFloat_e@$0BE@@ioINILoader@@QAEMAAY0BE@$$CBDM@Z ENDP ; ioINILoader::LoadFloat_e<20>
_TEXT	ENDS
PUBLIC	_this$GSCopy$
PUBLIC	__$ArrayPad$
PUBLIC	??$LoadString_e@$0M@@ioINILoader@@QAEXAAY0M@$$CBDAAY00$$CBDPADH@Z ; ioINILoader::LoadString_e<12>
EXTRN	__imp_?LoadStringA@ioINILoader@@QAEXPBD0PADH@Z:PROC
; Function compile flags: /Ogsp
;	COMDAT ??$LoadString_e@$0M@@ioINILoader@@QAEXAAY0M@$$CBDAAY00$$CBDPADH@Z
_TEXT	SEGMENT
_this$GSCopy$ = -24					; size = 4
__k$ = -20						; size = 12
__$ArrayPad$ = -4					; size = 4
_k$ = 8							; size = 4
_d$ = 12						; size = 4
_b$ = 16						; size = 4
_i$ = 20						; size = 4
??$LoadString_e@$0M@@ioINILoader@@QAEXAAY0M@$$CBDAAY00$$CBDPADH@Z PROC ; ioINILoader::LoadString_e<12>, COMDAT
; _this$ = ecx

; 161  : 	{

  00000	55		 push	 ebp
  00001	8b ec		 mov	 ebp, esp
  00003	83 ec 18	 sub	 esp, 24			; 00000018H
  00006	a1 00 00 00 00	 mov	 eax, DWORD PTR ___security_cookie
  0000b	33 c5		 xor	 eax, ebp
  0000d	89 45 fc	 mov	 DWORD PTR __$ArrayPad$[ebp], eax
  00010	8b 45 08	 mov	 eax, DWORD PTR _k$[ebp]

; 162  : 		_ENCSTR(k, _k);

  00013	8a 10		 mov	 dl, BYTE PTR [eax]
  00015	56		 push	 esi
  00016	8b 75 0c	 mov	 esi, DWORD PTR _d$[ebp]
  00019	57		 push	 edi
  0001a	8b 7d 10	 mov	 edi, DWORD PTR _b$[ebp]
  0001d	89 4d e8	 mov	 DWORD PTR _this$GSCopy$[ebp], ecx
  00020	84 d2		 test	 dl, dl
  00022	0f 84 32 01 00
	00		 je	 $LN96@LoadString
  00028	80 f2 ed	 xor	 dl, -19			; ffffffedH
  0002b	88 55 ec	 mov	 BYTE PTR __k$[ebp], dl
  0002e	8a 50 01	 mov	 dl, BYTE PTR [eax+1]
  00031	84 d2		 test	 dl, dl
  00033	0f 84 1b 01 00
	00		 je	 $LN95@LoadString
  00039	80 f2 ec	 xor	 dl, -20			; ffffffecH
  0003c	88 55 ed	 mov	 BYTE PTR __k$[ebp+1], dl
  0003f	8a 50 02	 mov	 dl, BYTE PTR [eax+2]
  00042	84 d2		 test	 dl, dl
  00044	0f 84 04 01 00
	00		 je	 $LN94@LoadString
  0004a	b1 eb		 mov	 cl, -21			; ffffffebH
  0004c	32 d1		 xor	 dl, cl
  0004e	88 55 ee	 mov	 BYTE PTR __k$[ebp+2], dl
  00051	8a 50 03	 mov	 dl, BYTE PTR [eax+3]
  00054	84 d2		 test	 dl, dl
  00056	0f 84 ec 00 00
	00		 je	 $LN93@LoadString
  0005c	80 f2 ea	 xor	 dl, -22			; ffffffeaH
  0005f	88 55 ef	 mov	 BYTE PTR __k$[ebp+3], dl
  00062	8a 50 04	 mov	 dl, BYTE PTR [eax+4]
  00065	84 d2		 test	 dl, dl
  00067	0f 84 d5 00 00
	00		 je	 $LN92@LoadString
  0006d	80 f2 ed	 xor	 dl, -19			; ffffffedH
  00070	88 55 f0	 mov	 BYTE PTR __k$[ebp+4], dl
  00073	8a 50 05	 mov	 dl, BYTE PTR [eax+5]
  00076	84 d2		 test	 dl, dl
  00078	0f 84 be 00 00
	00		 je	 $LN91@LoadString
  0007e	80 f2 ec	 xor	 dl, -20			; ffffffecH
  00081	88 55 f1	 mov	 BYTE PTR __k$[ebp+5], dl
  00084	8a 50 06	 mov	 dl, BYTE PTR [eax+6]
  00087	84 d2		 test	 dl, dl
  00089	0f 84 a8 00 00
	00		 je	 $LN90@LoadString
  0008f	32 d1		 xor	 dl, cl
  00091	88 55 f2	 mov	 BYTE PTR __k$[ebp+6], dl
  00094	8a 50 07	 mov	 dl, BYTE PTR [eax+7]
  00097	84 d2		 test	 dl, dl
  00099	0f 84 92 00 00
	00		 je	 $LN89@LoadString
  0009f	80 f2 ea	 xor	 dl, -22			; ffffffeaH
  000a2	88 55 f3	 mov	 BYTE PTR __k$[ebp+7], dl
  000a5	8a 50 08	 mov	 dl, BYTE PTR [eax+8]
  000a8	84 d2		 test	 dl, dl
  000aa	74 7f		 je	 SHORT $LN88@LoadString
  000ac	80 f2 ed	 xor	 dl, -19			; ffffffedH
  000af	88 55 f4	 mov	 BYTE PTR __k$[ebp+8], dl
  000b2	8a 50 09	 mov	 dl, BYTE PTR [eax+9]
  000b5	84 d2		 test	 dl, dl
  000b7	74 6c		 je	 SHORT $LN87@LoadString
  000b9	80 f2 ec	 xor	 dl, -20			; ffffffecH
  000bc	88 55 f5	 mov	 BYTE PTR __k$[ebp+9], dl
  000bf	8a 50 0a	 mov	 dl, BYTE PTR [eax+10]
  000c2	84 d2		 test	 dl, dl
  000c4	74 5a		 je	 SHORT $LN86@LoadString
  000c6	32 d1		 xor	 dl, cl
  000c8	80 78 0b 00	 cmp	 BYTE PTR [eax+11], 0
  000cc	88 55 f6	 mov	 BYTE PTR __k$[ebp+10], dl
  000cf	0f 84 89 00 00
	00		 je	 $LN111@LoadString
  000d5	8a 50 0c	 mov	 dl, BYTE PTR [eax+12]
  000d8	84 d2		 test	 dl, dl
  000da	74 3e		 je	 SHORT $LN84@LoadString
  000dc	80 f2 ed	 xor	 dl, -19			; ffffffedH
  000df	88 55 f8	 mov	 BYTE PTR __k$[ebp+12], dl
  000e2	8a 50 0d	 mov	 dl, BYTE PTR [eax+13]
  000e5	84 d2		 test	 dl, dl
  000e7	74 2b		 je	 SHORT $LN83@LoadString
  000e9	80 f2 ec	 xor	 dl, -20			; ffffffecH
  000ec	88 55 f9	 mov	 BYTE PTR __k$[ebp+13], dl
  000ef	8a 50 0e	 mov	 dl, BYTE PTR [eax+14]
  000f2	84 d2		 test	 dl, dl
  000f4	74 19		 je	 SHORT $LN82@LoadString
  000f6	8a 40 0f	 mov	 al, BYTE PTR [eax+15]
  000f9	32 d1		 xor	 dl, cl
  000fb	88 55 fa	 mov	 BYTE PTR __k$[ebp+14], dl
  000fe	84 c0		 test	 al, al
  00100	74 07		 je	 SHORT $LN81@LoadString
  00102	34 ea		 xor	 al, -22			; ffffffeaH
  00104	88 45 fb	 mov	 BYTE PTR __k$[ebp+15], al
  00107	eb 55		 jmp	 SHORT $LN111@LoadString
$LN81@LoadString:
  00109	c6 45 fb ea	 mov	 BYTE PTR __k$[ebp+15], -22 ; ffffffeaH
  0010d	eb 4f		 jmp	 SHORT $LN111@LoadString
$LN82@LoadString:
  0010f	88 4d fa	 mov	 BYTE PTR __k$[ebp+14], cl
  00112	eb 4a		 jmp	 SHORT $LN111@LoadString
$LN83@LoadString:
  00114	c6 45 f9 ec	 mov	 BYTE PTR __k$[ebp+13], -20 ; ffffffecH
  00118	eb 44		 jmp	 SHORT $LN111@LoadString
$LN84@LoadString:
  0011a	c6 45 f8 ed	 mov	 BYTE PTR __k$[ebp+12], -19 ; ffffffedH
  0011e	eb 3e		 jmp	 SHORT $LN111@LoadString
$LN86@LoadString:
  00120	88 4d f6	 mov	 BYTE PTR __k$[ebp+10], cl
  00123	eb 39		 jmp	 SHORT $LN111@LoadString
$LN87@LoadString:
  00125	c6 45 f5 ec	 mov	 BYTE PTR __k$[ebp+9], -20 ; ffffffecH
  00129	eb 33		 jmp	 SHORT $LN111@LoadString
$LN88@LoadString:
  0012b	c6 45 f4 ed	 mov	 BYTE PTR __k$[ebp+8], -19 ; ffffffedH
  0012f	eb 2d		 jmp	 SHORT $LN111@LoadString
$LN89@LoadString:
  00131	c6 45 f3 ea	 mov	 BYTE PTR __k$[ebp+7], -22 ; ffffffeaH
  00135	eb 27		 jmp	 SHORT $LN111@LoadString
$LN90@LoadString:
  00137	88 4d f2	 mov	 BYTE PTR __k$[ebp+6], cl
  0013a	eb 22		 jmp	 SHORT $LN111@LoadString
$LN91@LoadString:
  0013c	c6 45 f1 ec	 mov	 BYTE PTR __k$[ebp+5], -20 ; ffffffecH
  00140	eb 1c		 jmp	 SHORT $LN111@LoadString
$LN92@LoadString:
  00142	c6 45 f0 ed	 mov	 BYTE PTR __k$[ebp+4], -19 ; ffffffedH
  00146	eb 16		 jmp	 SHORT $LN111@LoadString
$LN93@LoadString:
  00148	c6 45 ef ea	 mov	 BYTE PTR __k$[ebp+3], -22 ; ffffffeaH
  0014c	eb 10		 jmp	 SHORT $LN111@LoadString
$LN94@LoadString:
  0014e	c6 45 ee eb	 mov	 BYTE PTR __k$[ebp+2], -21 ; ffffffebH
  00152	eb 0a		 jmp	 SHORT $LN111@LoadString
$LN95@LoadString:
  00154	c6 45 ed ec	 mov	 BYTE PTR __k$[ebp+1], -20 ; ffffffecH
  00158	eb 04		 jmp	 SHORT $LN111@LoadString
$LN96@LoadString:
  0015a	c6 45 ec ed	 mov	 BYTE PTR __k$[ebp], -19	; ffffffedH
$LN111@LoadString:
  0015e	6a 02		 push	 2
  00160	8d 45 ec	 lea	 eax, DWORD PTR __k$[ebp]
  00163	c6 45 f7 00	 mov	 BYTE PTR __k$[ebp+11], 0
  00167	5a		 pop	 edx
$LL104@LoadString:
  00168	81 30 ed ec eb
	ea		 xor	 DWORD PTR [eax], -353637139 ; eaebecedH
  0016e	83 c0 04	 add	 eax, 4
  00171	4a		 dec	 edx
  00172	75 f4		 jne	 SHORT $LL104@LoadString
  00174	6a 08		 push	 8
  00176	58		 pop	 eax
$LL101@LoadString:
  00177	8b c8		 mov	 ecx, eax
  00179	81 e1 03 00 00
	80		 and	 ecx, -2147483645	; 80000003H
  0017f	79 05		 jns	 SHORT $LN112@LoadString
  00181	49		 dec	 ecx
  00182	83 c9 fc	 or	 ecx, -4			; fffffffcH
  00185	41		 inc	 ecx
$LN112@LoadString:
  00186	b2 ed		 mov	 dl, -19			; ffffffedH
  00188	2a d1		 sub	 dl, cl
  0018a	30 54 05 ec	 xor	 BYTE PTR __k$[ebp+eax], dl
  0018e	40		 inc	 eax
  0018f	83 f8 0b	 cmp	 eax, 11			; 0000000bH
  00192	7c e3		 jl	 SHORT $LL101@LoadString

; 163  : 		LoadString(_k, d, b, i);

  00194	ff 75 14	 push	 DWORD PTR _i$[ebp]
  00197	8b 4d e8	 mov	 ecx, DWORD PTR _this$GSCopy$[ebp]
  0019a	57		 push	 edi
  0019b	56		 push	 esi
  0019c	8d 45 ec	 lea	 eax, DWORD PTR __k$[ebp]
  0019f	50		 push	 eax
  001a0	ff 15 00 00 00
	00		 call	 DWORD PTR __imp_?LoadStringA@ioINILoader@@QAEXPBD0PADH@Z

; 164  : 	}

  001a6	8b 4d fc	 mov	 ecx, DWORD PTR __$ArrayPad$[ebp]
  001a9	5f		 pop	 edi
  001aa	33 cd		 xor	 ecx, ebp
  001ac	5e		 pop	 esi
  001ad	e8 00 00 00 00	 call	 @__security_check_cookie@4
  001b2	c9		 leave
  001b3	c2 10 00	 ret	 16			; 00000010H
??$LoadString_e@$0M@@ioINILoader@@QAEXAAY0M@$$CBDAAY00$$CBDPADH@Z ENDP ; ioINILoader::LoadString_e<12>
_TEXT	ENDS
PUBLIC	??B?$CEncrypt@_N@@QBE_NXZ			; CEncrypt<bool>::operator bool
; Function compile flags: /Ogsp
; File d:\lost saga for developer\youtube\tutorial\source\src\lsclient\encryptvalue.h
;	COMDAT ??B?$CEncrypt@_N@@QBE_NXZ
_TEXT	SEGMENT
_value$ = -1						; size = 1
??B?$CEncrypt@_N@@QBE_NXZ PROC				; CEncrypt<bool>::operator bool, COMDAT
; _this$ = ecx

; 145  : 	{

  00000	55		 push	 ebp
  00001	8b ec		 mov	 ebp, esp
  00003	51		 push	 ecx

; 146  : 		//UJ 130829, const    --start
; 147  : 		type value;
; 148  : 		CEncrypt<type>* pThis = const_cast<CEncrypt<type>*>(this);
; 149  : 		pThis->DecryptValueToPool(&value);

  00004	8d 45 ff	 lea	 eax, DWORD PTR _value$[ebp]
  00007	50		 push	 eax
  00008	e8 00 00 00 00	 call	 ?DecryptValueToPool@?$CEncrypt@_N@@QAEXPA_N@Z ; CEncrypt<bool>::DecryptValueToPool

; 150  : 		//// const DecryptValueToPool     .
; 151  :  		//type value;
; 152  : 		//char szTempMem[MAX_ENCRYPT];
; 153  : 		//m_RC5.DecryptByte( m_MemPool, szTempMem, max(m_ValueSize, DEFAULT_ENCRYPT) );
; 154  : 		//memcpy( &value, szTempMem, m_ValueSize );
; 155  : 		//UJ --end
; 156  : 
; 157  : #ifdef _NOTUSE
; 158  : 		Debug();
; 159  : #endif
; 160  : 		return value;

  0000d	8a 45 ff	 mov	 al, BYTE PTR _value$[ebp]

; 161  : 	}

  00010	c9		 leave
  00011	c3		 ret	 0
??B?$CEncrypt@_N@@QBE_NXZ ENDP				; CEncrypt<bool>::operator bool
; Function compile flags: /Ogsp
_TEXT	ENDS
;	COMDAT ??_GioCircleReserveAttackSkill@@UAEPAXI@Z
_TEXT	SEGMENT
___flags$ = 8						; size = 4
??_GioCircleReserveAttackSkill@@UAEPAXI@Z PROC		; ioCircleReserveAttackSkill::`scalar deleting destructor', COMDAT
; _this$ = ecx
  00000	55		 push	 ebp
  00001	8b ec		 mov	 ebp, esp
  00003	56		 push	 esi
  00004	8b f1		 mov	 esi, ecx
  00006	e8 00 00 00 00	 call	 ??1ioCircleReserveAttackSkill@@UAE@XZ ; ioCircleReserveAttackSkill::~ioCircleReserveAttackSkill
  0000b	f6 45 08 01	 test	 BYTE PTR ___flags$[ebp], 1
  0000f	74 07		 je	 SHORT $LN1@scalar
  00011	56		 push	 esi
  00012	e8 00 00 00 00	 call	 ??3@YAXPAX@Z		; operator delete
  00017	59		 pop	 ecx
$LN1@scalar:
  00018	8b c6		 mov	 eax, esi
  0001a	5e		 pop	 esi
  0001b	5d		 pop	 ebp
  0001c	c2 04 00	 ret	 4
??_GioCircleReserveAttackSkill@@UAEPAXI@Z ENDP		; ioCircleReserveAttackSkill::`scalar deleting destructor'
_TEXT	ENDS
PUBLIC	??_C@_00CNPNBAHC@?$AA@				; `string'
PUBLIC	__$ArrayPad$
EXTRN	__imp_??4ioHashString@@QAEAAV0@PBD@Z:PROC
EXTRN	?LoadProperty@ioAttackSkill@@UAEXAAVioINILoader@@@Z:PROC ; ioAttackSkill::LoadProperty
EXTRN	_memset:PROC
;	COMDAT ??_C@_00CNPNBAHC@?$AA@
; File d:\lost saga for developer\youtube\tutorial\source\src\lsclient\stringprotect.h
CONST	SEGMENT
??_C@_00CNPNBAHC@?$AA@ DB 00H				; `string'
; Function compile flags: /Ogsp
; File d:\lost saga for developer\youtube\tutorial\source\src\lsclient\iocirclereserveattackskill.cpp
CONST	ENDS
;	COMDAT ?LoadProperty@ioCircleReserveAttackSkill@@UAEXAAVioINILoader@@@Z
_TEXT	SEGMENT
_szBuf$ = -292						; size = 260
__k$594965 = -32					; size = 20
__k$594580 = -32					; size = 22
__k$594705 = -28					; size = 18
__k$595093 = -24					; size = 12
__k$594837 = -24					; size = 13
__$ArrayPad$ = -4					; size = 4
_rkLoader$ = 8						; size = 4
?LoadProperty@ioCircleReserveAttackSkill@@UAEXAAVioINILoader@@@Z PROC ; ioCircleReserveAttackSkill::LoadProperty, COMDAT
; _this$ = ecx

; 37   : {

  00000	55		 push	 ebp
  00001	8b ec		 mov	 ebp, esp
  00003	81 ec 24 01 00
	00		 sub	 esp, 292		; 00000124H
  00009	a1 00 00 00 00	 mov	 eax, DWORD PTR ___security_cookie
  0000e	33 c5		 xor	 eax, ebp
  00010	89 45 fc	 mov	 DWORD PTR __$ArrayPad$[ebp], eax
  00013	53		 push	 ebx
  00014	56		 push	 esi
  00015	57		 push	 edi
  00016	8b 7d 08	 mov	 edi, DWORD PTR _rkLoader$[ebp]

; 38   : 	ioAttackSkill::LoadProperty( rkLoader );

  00019	57		 push	 edi
  0001a	8b f1		 mov	 esi, ecx
  0001c	e8 00 00 00 00	 call	 ?LoadProperty@ioAttackSkill@@UAEXAAVioINILoader@@@Z ; ioAttackSkill::LoadProperty

; 39   : 	char szBuf[MAX_PATH] = "";

  00021	33 db		 xor	 ebx, ebx
  00023	68 03 01 00 00	 push	 259			; 00000103H
  00028	8d 85 dd fe ff
	ff		 lea	 eax, DWORD PTR _szBuf$[ebp+1]
  0002e	53		 push	 ebx
  0002f	50		 push	 eax
  00030	88 9d dc fe ff
	ff		 mov	 BYTE PTR _szBuf$[ebp], bl
  00036	e8 00 00 00 00	 call	 _memset
  0003b	83 c4 0c	 add	 esp, 12			; 0000000cH

; 40   : 	m_fDefaultCircleOffSet = rkLoader.LoadFloat_e( "default_circle_offset", 0.0f );

  0003e	6a 05		 push	 5
  00040	c7 45 e0 89 89
	8d 8b		 mov	 DWORD PTR __k$594580[ebp], -1953658487 ; 8b8d8989H
  00047	c7 45 e4 98 80
	9f b5		 mov	 DWORD PTR __k$594580[ebp+4], -1247838056 ; b59f8098H
  0004e	c7 45 e8 8e 85
	99 89		 mov	 DWORD PTR __k$594580[ebp+8], -1986427506 ; 8999858eH
  00055	c7 45 ec 81 89
	b4 85		 mov	 DWORD PTR __k$594580[ebp+12], -2051765887 ; 85b48981H
  0005c	c7 45 f0 8b 8a
	98 8f		 mov	 DWORD PTR __k$594580[ebp+16], -1885828469 ; 8f988a8bH
  00063	8d 45 e0	 lea	 eax, DWORD PTR __k$594580[ebp]
  00066	66 c7 45 f4 99
	00		 mov	 WORD PTR __k$594580[ebp+20], 153 ; 00000099H
  0006c	59		 pop	 ecx
$LL106@LoadProper:
  0006d	81 30 ed ec eb
	ea		 xor	 DWORD PTR [eax], -353637139 ; eaebecedH
  00073	83 c0 04	 add	 eax, 4
  00076	49		 dec	 ecx
  00077	75 f4		 jne	 SHORT $LL106@LoadProper
  00079	0f 57 c0	 xorps	 xmm0, xmm0
  0007c	80 75 f4 ed	 xor	 BYTE PTR __k$594580[ebp+20], -19 ; ffffffedH
  00080	51		 push	 ecx
  00081	8d 45 e0	 lea	 eax, DWORD PTR __k$594580[ebp]
  00084	f3 0f 11 04 24	 movss	 DWORD PTR [esp], xmm0
  00089	50		 push	 eax
  0008a	8b cf		 mov	 ecx, edi
  0008c	ff 15 00 00 00
	00		 call	 DWORD PTR __imp_?LoadFloat@ioINILoader@@QAEMPBDM@Z
  00092	d9 9e fc 10 00
	00		 fstp	 DWORD PTR [esi+4348]

; 41   : 
; 42   : 	LoadAttributeCallTimeList( rkLoader );

  00098	57		 push	 edi
  00099	8b ce		 mov	 ecx, esi
  0009b	e8 00 00 00 00	 call	 ?LoadAttributeCallTimeList@ioCircleReserveAttackSkill@@IAEXAAVioINILoader@@@Z ; ioCircleReserveAttackSkill::LoadAttributeCallTimeList
  000a0	6a 04		 push	 4

; 43   : 
; 44   : 	m_SkillAttackType = (SkillAttackType)rkLoader.LoadInt_e( "skill_attack_type", 0 );

  000a2	c7 45 e4 9e 87
	82 86		 mov	 DWORD PTR __k$594705[ebp], -2038265954 ; 8682879eH
  000a9	c7 45 e8 81 b3
	8a 9e		 mov	 DWORD PTR __k$594705[ebp+4], -1635077247 ; 9e8ab381H
  000b0	c7 45 ec 99 8d
	88 81		 mov	 DWORD PTR __k$594705[ebp+8], -2121757287 ; 81888d99H
  000b7	c7 45 f0 b2 98
	92 9a		 mov	 DWORD PTR __k$594705[ebp+12], -1701668686 ; 9a9298b2H
  000be	8d 45 e4	 lea	 eax, DWORD PTR __k$594705[ebp]
  000c1	66 c7 45 f4 88
	00		 mov	 WORD PTR __k$594705[ebp+16], 136 ; 00000088H
  000c7	59		 pop	 ecx
$LL212@LoadProper:
  000c8	81 30 ed ec eb
	ea		 xor	 DWORD PTR [eax], -353637139 ; eaebecedH
  000ce	83 c0 04	 add	 eax, 4
  000d1	49		 dec	 ecx
  000d2	75 f4		 jne	 SHORT $LL212@LoadProper
  000d4	80 75 f4 ed	 xor	 BYTE PTR __k$594705[ebp+16], -19 ; ffffffedH
  000d8	53		 push	 ebx
  000d9	8d 45 e4	 lea	 eax, DWORD PTR __k$594705[ebp]
  000dc	50		 push	 eax
  000dd	8b cf		 mov	 ecx, edi
  000df	ff 15 00 00 00
	00		 call	 DWORD PTR __imp_?LoadInt@ioINILoader@@QAEHPBDH@Z
  000e5	6a 03		 push	 3
  000e7	89 86 04 11 00
	00		 mov	 DWORD PTR [esi+4356], eax

; 45   : 
; 46   : 	m_fRandomRange = rkLoader.LoadFloat_e( "random_range", 0.0f );

  000ed	c7 45 e8 9f 8d
	85 8e		 mov	 DWORD PTR __k$594837[ebp], -1903850081 ; 8e858d9fH
  000f4	c7 45 ec 82 81
	b4 98		 mov	 DWORD PTR __k$594837[ebp+4], -1733000830 ; 98b48182H
  000fb	c7 45 f0 8c 82
	8c 8f		 mov	 DWORD PTR __k$594837[ebp+8], -1886616948 ; 8f8c828cH
  00102	8d 45 e8	 lea	 eax, DWORD PTR __k$594837[ebp]
  00105	88 5d f4	 mov	 BYTE PTR __k$594837[ebp+12], bl
  00108	59		 pop	 ecx
$LL318@LoadProper:
  00109	81 30 ed ec eb
	ea		 xor	 DWORD PTR [eax], -353637139 ; eaebecedH
  0010f	83 c0 04	 add	 eax, 4
  00112	49		 dec	 ecx
  00113	75 f4		 jne	 SHORT $LL318@LoadProper
  00115	0f 57 c0	 xorps	 xmm0, xmm0
  00118	51		 push	 ecx
  00119	8d 45 e8	 lea	 eax, DWORD PTR __k$594837[ebp]
  0011c	f3 0f 11 04 24	 movss	 DWORD PTR [esp], xmm0
  00121	50		 push	 eax
  00122	8b cf		 mov	 ecx, edi
  00124	ff 15 00 00 00
	00		 call	 DWORD PTR __imp_?LoadFloat@ioINILoader@@QAEMPBDM@Z
  0012a	d9 9e 08 11 00
	00		 fstp	 DWORD PTR [esi+4360]
  00130	6a 04		 push	 4

; 47   : 	m_fWeaponStartHeight = rkLoader.LoadFloat_e( "weapon_start_height", 0.0f );

  00132	c7 45 e0 9a 89
	8a 9a		 mov	 DWORD PTR __k$594965[ebp], -1702196838 ; 9a8a899aH
  00139	c7 45 e4 82 82
	b4 99		 mov	 DWORD PTR __k$594965[ebp+4], -1716223358 ; 99b48282H
  00140	c7 45 e8 99 8d
	99 9e		 mov	 DWORD PTR __k$594965[ebp+8], -1634103911 ; 9e998d99H
  00147	c7 45 ec b2 84
	8e 83		 mov	 DWORD PTR __k$594965[ebp+12], -2087811918 ; 838e84b2H
  0014e	8d 45 e0	 lea	 eax, DWORD PTR __k$594965[ebp]
  00151	c7 45 f0 8a 84
	9f 00		 mov	 DWORD PTR __k$594965[ebp+16], 10454154 ; 009f848aH
  00158	59		 pop	 ecx
$LL424@LoadProper:
  00159	81 30 ed ec eb
	ea		 xor	 DWORD PTR [eax], -353637139 ; eaebecedH
  0015f	83 c0 04	 add	 eax, 4
  00162	49		 dec	 ecx
  00163	75 f4		 jne	 SHORT $LL424@LoadProper
  00165	6a 10		 push	 16			; 00000010H
  00167	58		 pop	 eax
$LL421@LoadProper:
  00168	8b c8		 mov	 ecx, eax
  0016a	81 e1 03 00 00
	80		 and	 ecx, -2147483645	; 80000003H
  00170	79 05		 jns	 SHORT $LN553@LoadProper
  00172	49		 dec	 ecx
  00173	83 c9 fc	 or	 ecx, -4			; fffffffcH
  00176	41		 inc	 ecx
$LN553@LoadProper:
  00177	b2 ed		 mov	 dl, -19			; ffffffedH
  00179	2a d1		 sub	 dl, cl
  0017b	30 54 05 e0	 xor	 BYTE PTR __k$594965[ebp+eax], dl
  0017f	40		 inc	 eax
  00180	83 f8 13	 cmp	 eax, 19			; 00000013H
  00183	7c e3		 jl	 SHORT $LL421@LoadProper
  00185	0f 57 c0	 xorps	 xmm0, xmm0
  00188	51		 push	 ecx
  00189	8d 45 e0	 lea	 eax, DWORD PTR __k$594965[ebp]
  0018c	f3 0f 11 04 24	 movss	 DWORD PTR [esp], xmm0
  00191	50		 push	 eax
  00192	8b cf		 mov	 ecx, edi
  00194	ff 15 00 00 00
	00		 call	 DWORD PTR __imp_?LoadFloat@ioINILoader@@QAEMPBDM@Z
  0019a	d9 9e 0c 11 00
	00		 fstp	 DWORD PTR [esi+4364]
  001a0	6a 02		 push	 2

; 48   : 
; 49   : 	rkLoader.LoadString_e( "fire_effect", "", szBuf, MAX_PATH );

  001a2	c7 45 e8 8b 85
	99 8f		 mov	 DWORD PTR __k$595093[ebp], -1885764213 ; 8f99858bH
  001a9	c7 45 ec b2 89
	8d 8c		 mov	 DWORD PTR __k$595093[ebp+4], -1936881230 ; 8c8d89b2H
  001b0	8d 45 e8	 lea	 eax, DWORD PTR __k$595093[ebp]
  001b3	c7 45 f0 88 8f
	9f 00		 mov	 DWORD PTR __k$595093[ebp+8], 10456968 ; 009f8f88H
  001ba	59		 pop	 ecx
$LL530@LoadProper:
  001bb	81 30 ed ec eb
	ea		 xor	 DWORD PTR [eax], -353637139 ; eaebecedH
  001c1	83 c0 04	 add	 eax, 4
  001c4	49		 dec	 ecx
  001c5	75 f4		 jne	 SHORT $LL530@LoadProper
  001c7	6a 08		 push	 8
  001c9	58		 pop	 eax
$LL527@LoadProper:
  001ca	8b c8		 mov	 ecx, eax
  001cc	81 e1 03 00 00
	80		 and	 ecx, -2147483645	; 80000003H
  001d2	79 05		 jns	 SHORT $LN554@LoadProper
  001d4	49		 dec	 ecx
  001d5	83 c9 fc	 or	 ecx, -4			; fffffffcH
  001d8	41		 inc	 ecx
$LN554@LoadProper:
  001d9	b2 ed		 mov	 dl, -19			; ffffffedH
  001db	2a d1		 sub	 dl, cl
  001dd	30 54 05 e8	 xor	 BYTE PTR __k$595093[ebp+eax], dl
  001e1	40		 inc	 eax
  001e2	83 f8 0b	 cmp	 eax, 11			; 0000000bH
  001e5	7c e3		 jl	 SHORT $LL527@LoadProper
  001e7	68 04 01 00 00	 push	 260			; 00000104H
  001ec	8d 85 dc fe ff
	ff		 lea	 eax, DWORD PTR _szBuf$[ebp]
  001f2	50		 push	 eax
  001f3	68 00 00 00 00	 push	 OFFSET ??_C@_00CNPNBAHC@?$AA@
  001f8	8d 45 e8	 lea	 eax, DWORD PTR __k$595093[ebp]
  001fb	50		 push	 eax
  001fc	8b cf		 mov	 ecx, edi
  001fe	ff 15 00 00 00
	00		 call	 DWORD PTR __imp_?LoadStringA@ioINILoader@@QAEXPBD0PADH@Z

; 50   : 	m_szFireEffect = szBuf;

  00204	8d 85 dc fe ff
	ff		 lea	 eax, DWORD PTR _szBuf$[ebp]
  0020a	50		 push	 eax
  0020b	8d 8e 10 11 00
	00		 lea	 ecx, DWORD PTR [esi+4368]
  00211	ff 15 00 00 00
	00		 call	 DWORD PTR __imp_??4ioHashString@@QAEAAV0@PBD@Z

; 51   : }

  00217	8b 4d fc	 mov	 ecx, DWORD PTR __$ArrayPad$[ebp]
  0021a	5f		 pop	 edi
  0021b	5e		 pop	 esi
  0021c	33 cd		 xor	 ecx, ebp
  0021e	5b		 pop	 ebx
  0021f	e8 00 00 00 00	 call	 @__security_check_cookie@4
  00224	c9		 leave
  00225	c2 04 00	 ret	 4
?LoadProperty@ioCircleReserveAttackSkill@@UAEXAAVioINILoader@@@Z ENDP ; ioCircleReserveAttackSkill::LoadProperty
_TEXT	ENDS
EXTRN	?OnProcessState@ioAttackSkill@@UAEXPAVioBaseChar@@PAVioPlayStage@@@Z:PROC ; ioAttackSkill::OnProcessState
; Function compile flags: /Ogsp
;	COMDAT ?OnProcessState@ioCircleReserveAttackSkill@@UAEXPAVioBaseChar@@PAVioPlayStage@@@Z
_TEXT	SEGMENT
_pChar$ = 8						; size = 4
_pStage$ = 12						; size = 4
?OnProcessState@ioCircleReserveAttackSkill@@UAEXPAVioBaseChar@@PAVioPlayStage@@@Z PROC ; ioCircleReserveAttackSkill::OnProcessState, COMDAT
; _this$ = ecx

; 124  : {

  00000	55		 push	 ebp
  00001	8b ec		 mov	 ebp, esp
  00003	53		 push	 ebx

; 125  : 	if ( !pChar || !pStage )	

  00004	8b 5d 08	 mov	 ebx, DWORD PTR _pChar$[ebp]
  00007	57		 push	 edi
  00008	8b f9		 mov	 edi, ecx
  0000a	85 db		 test	 ebx, ebx
  0000c	74 63		 je	 SHORT $LN5@OnProcessS
  0000e	83 7d 0c 00	 cmp	 DWORD PTR _pStage$[ebp], 0
  00012	74 5d		 je	 SHORT $LN5@OnProcessS

; 126  : 		return;
; 127  : 
; 128  : 	ioAttackSkill::OnProcessState( pChar, pStage );

  00014	56		 push	 esi
  00015	ff 75 0c	 push	 DWORD PTR _pStage$[ebp]
  00018	53		 push	 ebx
  00019	e8 00 00 00 00	 call	 ?OnProcessState@ioAttackSkill@@UAEXPAVioBaseChar@@PAVioPlayStage@@@Z ; ioAttackSkill::OnProcessState

; 129  : 
; 130  : 	if( m_dwReserveWeaponFireStartTime > 0 && m_dwReserveWeaponFireStartTime < FRAMEGETTIME() )

  0001e	83 bf 00 11 00
	00 00		 cmp	 DWORD PTR [edi+4352], 0
  00025	76 49		 jbe	 SHORT $LN9@OnProcessS
  00027	ff 15 00 00 00
	00		 call	 DWORD PTR __imp_?GetSingleton@ioFrameTimer@@SAAAV1@XZ
  0002d	8b c8		 mov	 ecx, eax
  0002f	ff 15 00 00 00
	00		 call	 DWORD PTR __imp_?GetLoopSec@ioFrameTimer@@QBEKXZ
  00035	39 87 00 11 00
	00		 cmp	 DWORD PTR [edi+4352], eax
  0003b	73 33		 jae	 SHORT $LN9@OnProcessS

; 131  : 	{
; 132  : 		m_dwReserveWeaponFireStartTime = 0;
; 133  : 		if ( m_SkillAttackType == SAT_CIRCLE )

  0003d	8b 87 04 11 00
	00		 mov	 eax, DWORD PTR [edi+4356]
  00043	83 a7 00 11 00
	00 00		 and	 DWORD PTR [edi+4352], 0
  0004a	85 c0		 test	 eax, eax
  0004c	75 0a		 jne	 SHORT $LN3@OnProcessS

; 134  : 			CallReserveWeapon( pChar );

  0004e	53		 push	 ebx
  0004f	8b cf		 mov	 ecx, edi
  00051	e8 00 00 00 00	 call	 ?CallReserveWeapon@ioCircleReserveAttackSkill@@IAEXPAVioBaseChar@@@Z ; ioCircleReserveAttackSkill::CallReserveWeapon
  00056	eb 18		 jmp	 SHORT $LN9@OnProcessS
$LN3@OnProcessS:

; 135  : 		else if ( m_SkillAttackType == SAT_PLAYER )

  00058	83 f8 01	 cmp	 eax, 1
  0005b	75 13		 jne	 SHORT $LN9@OnProcessS

; 136  : 		{
; 137  : 			CallReserveRandomPositionWeapon( pChar );

  0005d	53		 push	 ebx
  0005e	8b cf		 mov	 ecx, edi
  00060	e8 00 00 00 00	 call	 ?CallReserveRandomPositionWeapon@ioCircleReserveAttackSkill@@IAEXPAVioBaseChar@@@Z ; ioCircleReserveAttackSkill::CallReserveRandomPositionWeapon

; 138  : 			CreateMapEffect( pChar, pStage );

  00065	ff 75 0c	 push	 DWORD PTR _pStage$[ebp]
  00068	8b cf		 mov	 ecx, edi
  0006a	53		 push	 ebx
  0006b	e8 00 00 00 00	 call	 ?CreateMapEffect@ioCircleReserveAttackSkill@@IAEXPAVioBaseChar@@PAVioPlayStage@@@Z ; ioCircleReserveAttackSkill::CreateMapEffect
$LN9@OnProcessS:
  00070	5e		 pop	 esi
$LN5@OnProcessS:
  00071	5f		 pop	 edi
  00072	5b		 pop	 ebx

; 139  : 		}
; 140  : 		
; 141  : 	}
; 142  : }

  00073	5d		 pop	 ebp
  00074	c2 08 00	 ret	 8
?OnProcessState@ioCircleReserveAttackSkill@@UAEXPAVioBaseChar@@PAVioPlayStage@@@Z ENDP ; ioCircleReserveAttackSkill::OnProcessState
; Function compile flags: /Ogsp
; File d:\lost saga for developer\youtube\tutorial\source\src\lsclient\ioskill.h
_TEXT	ENDS
;	COMDAT ?IsCanJumpingSkill@ioSkill@@UBE_NXZ
_TEXT	SEGMENT
_value$595223 = -1					; size = 1
?IsCanJumpingSkill@ioSkill@@UBE_NXZ PROC		; ioSkill::IsCanJumpingSkill, COMDAT
; _this$ = ecx

; 431  : 	virtual bool IsCanJumpingSkill() const { return m_bEnableJumpingSkill; }

  00000	55		 push	 ebp
  00001	8b ec		 mov	 ebp, esp
  00003	51		 push	 ecx
  00004	8d 45 ff	 lea	 eax, DWORD PTR _value$595223[ebp]
  00007	50		 push	 eax
  00008	81 c1 9c 03 00
	00		 add	 ecx, 924		; 0000039cH
  0000e	e8 00 00 00 00	 call	 ?DecryptValueToPool@?$CEncrypt@_N@@QAEXPA_N@Z ; CEncrypt<bool>::DecryptValueToPool
  00013	8a 45 ff	 mov	 al, BYTE PTR _value$595223[ebp]
  00016	c9		 leave
  00017	c3		 ret	 0
?IsCanJumpingSkill@ioSkill@@UBE_NXZ ENDP		; ioSkill::IsCanJumpingSkill
; Function compile flags: /Ogsp
_TEXT	ENDS
;	COMDAT ?IsCanJumpingSkillOnBlowWound@ioSkill@@UBE_NXZ
_TEXT	SEGMENT
_value$595230 = -1					; size = 1
?IsCanJumpingSkillOnBlowWound@ioSkill@@UBE_NXZ PROC	; ioSkill::IsCanJumpingSkillOnBlowWound, COMDAT
; _this$ = ecx

; 432  : 	virtual bool IsCanJumpingSkillOnBlowWound() const { return m_bEnableJumpingSkillOnBlowWound; }

  00000	55		 push	 ebp
  00001	8b ec		 mov	 ebp, esp
  00003	51		 push	 ecx
  00004	8d 45 ff	 lea	 eax, DWORD PTR _value$595230[ebp]
  00007	50		 push	 eax
  00008	81 c1 cc 03 00
	00		 add	 ecx, 972		; 000003ccH
  0000e	e8 00 00 00 00	 call	 ?DecryptValueToPool@?$CEncrypt@_N@@QAEXPA_N@Z ; CEncrypt<bool>::DecryptValueToPool
  00013	8a 45 ff	 mov	 al, BYTE PTR _value$595230[ebp]
  00016	c9		 leave
  00017	c3		 ret	 0
?IsCanJumpingSkillOnBlowWound@ioSkill@@UBE_NXZ ENDP	; ioSkill::IsCanJumpingSkillOnBlowWound
; Function compile flags: /Ogsp
_TEXT	ENDS
;	COMDAT ?IsCanDownSkill@ioSkill@@UBE_NXZ
_TEXT	SEGMENT
_value$595237 = -1					; size = 1
?IsCanDownSkill@ioSkill@@UBE_NXZ PROC			; ioSkill::IsCanDownSkill, COMDAT
; _this$ = ecx

; 437  : 	virtual bool IsCanDownSkill() const { return m_bEnableDownSkill; }

  00000	55		 push	 ebp
  00001	8b ec		 mov	 ebp, esp
  00003	51		 push	 ecx
  00004	8d 45 ff	 lea	 eax, DWORD PTR _value$595237[ebp]
  00007	50		 push	 eax
  00008	81 c1 5c 04 00
	00		 add	 ecx, 1116		; 0000045cH
  0000e	e8 00 00 00 00	 call	 ?DecryptValueToPool@?$CEncrypt@_N@@QAEXPA_N@Z ; CEncrypt<bool>::DecryptValueToPool
  00013	8a 45 ff	 mov	 al, BYTE PTR _value$595237[ebp]
  00016	c9		 leave
  00017	c3		 ret	 0
?IsCanDownSkill@ioSkill@@UBE_NXZ ENDP			; ioSkill::IsCanDownSkill
; Function compile flags: /Ogsp
_TEXT	ENDS
;	COMDAT ?IsCanBlowWoundSkill@ioSkill@@UBE_NXZ
_TEXT	SEGMENT
_value$595244 = -1					; size = 1
?IsCanBlowWoundSkill@ioSkill@@UBE_NXZ PROC		; ioSkill::IsCanBlowWoundSkill, COMDAT
; _this$ = ecx

; 440  : 	virtual bool IsCanBlowWoundSkill() const { return m_bEnableBlowWoundSkill; }

  00000	55		 push	 ebp
  00001	8b ec		 mov	 ebp, esp
  00003	51		 push	 ecx
  00004	8d 45 ff	 lea	 eax, DWORD PTR _value$595244[ebp]
  00007	50		 push	 eax
  00008	81 c1 8c 04 00
	00		 add	 ecx, 1164		; 0000048cH
  0000e	e8 00 00 00 00	 call	 ?DecryptValueToPool@?$CEncrypt@_N@@QAEXPA_N@Z ; CEncrypt<bool>::DecryptValueToPool
  00013	8a 45 ff	 mov	 al, BYTE PTR _value$595244[ebp]
  00016	c9		 leave
  00017	c3		 ret	 0
?IsCanBlowWoundSkill@ioSkill@@UBE_NXZ ENDP		; ioSkill::IsCanBlowWoundSkill
; Function compile flags: /Ogsp
_TEXT	ENDS
;	COMDAT ?IsCanWoundSkill@ioSkill@@UBE_NXZ
_TEXT	SEGMENT
_value$595251 = -1					; size = 1
?IsCanWoundSkill@ioSkill@@UBE_NXZ PROC			; ioSkill::IsCanWoundSkill, COMDAT
; _this$ = ecx

; 446  : 	virtual bool IsCanWoundSkill() const { return m_bEnableWoundSkill; }

  00000	55		 push	 ebp
  00001	8b ec		 mov	 ebp, esp
  00003	51		 push	 ecx
  00004	8d 45 ff	 lea	 eax, DWORD PTR _value$595251[ebp]
  00007	50		 push	 eax
  00008	81 c1 54 05 00
	00		 add	 ecx, 1364		; 00000554H
  0000e	e8 00 00 00 00	 call	 ?DecryptValueToPool@?$CEncrypt@_N@@QAEXPA_N@Z ; CEncrypt<bool>::DecryptValueToPool
  00013	8a 45 ff	 mov	 al, BYTE PTR _value$595251[ebp]
  00016	c9		 leave
  00017	c3		 ret	 0
?IsCanWoundSkill@ioSkill@@UBE_NXZ ENDP			; ioSkill::IsCanWoundSkill
_TEXT	ENDS
END
