; Listing generated by Microsoft (R) Optimizing Compiler Version 16.00.30319.01 

	TITLE	D:\Lost Saga For Developer\Youtube\Tutorial\Source\src\LSClient\ioClientAniEventHandler.cpp
	.686P
	.XMM
	include listing.inc
	.model	flat

INCLUDELIB MSVCRT
INCLUDELIB OLDNAMES

PUBLIC	?return100@@YAIXZ				; return100
; Function compile flags: /Ogsp
; File d:\lost saga for developer\youtube\tutorial\source\src\lsclient\stdafx.h
;	COMDAT ?return100@@YAIXZ
_TEXT	SEGMENT
?return100@@YAIXZ PROC					; return100, COMDAT

; 25   : 	__forceinline unsigned int return100() { __asm mov eax, 100 };

  00000	b8 64 00 00 00	 mov	 eax, 100		; 00000064H
  00005	c3		 ret	 0
?return100@@YAIXZ ENDP					; return100
_TEXT	ENDS
PUBLIC	?return1000@@YAIXZ				; return1000
; Function compile flags: /Ogsp
;	COMDAT ?return1000@@YAIXZ
_TEXT	SEGMENT
?return1000@@YAIXZ PROC					; return1000, COMDAT

; 29   : 	__forceinline unsigned int return1000() { __asm mov eax, 1000 };

  00000	b8 e8 03 00 00	 mov	 eax, 1000		; 000003e8H
  00005	c3		 ret	 0
?return1000@@YAIXZ ENDP					; return1000
_TEXT	ENDS
PUBLIC	?IsOwnerChar@ioBaseChar@@QBE_NXZ		; ioBaseChar::IsOwnerChar
; Function compile flags: /Ogsp
; File d:\lost saga for developer\youtube\tutorial\source\src\lsclient\iobasechar.h
;	COMDAT ?IsOwnerChar@ioBaseChar@@QBE_NXZ
_TEXT	SEGMENT
?IsOwnerChar@ioBaseChar@@QBE_NXZ PROC			; ioBaseChar::IsOwnerChar, COMDAT
; _this$ = ecx

; 1467 : 	inline bool IsOwnerChar() const { return m_bOwnerChar; }

  00000	8a 81 84 13 00
	00		 mov	 al, BYTE PTR [ecx+4996]
  00006	c3		 ret	 0
?IsOwnerChar@ioBaseChar@@QBE_NXZ ENDP			; ioBaseChar::IsOwnerChar
_TEXT	ENDS
PUBLIC	?GetEquipSlot@ioBaseChar@@QAEPAVioEquipSlot@@XZ	; ioBaseChar::GetEquipSlot
; Function compile flags: /Ogsp
;	COMDAT ?GetEquipSlot@ioBaseChar@@QAEPAVioEquipSlot@@XZ
_TEXT	SEGMENT
?GetEquipSlot@ioBaseChar@@QAEPAVioEquipSlot@@XZ PROC	; ioBaseChar::GetEquipSlot, COMDAT
; _this$ = ecx

; 1871 : 	ioEquipSlot* GetEquipSlot() { return m_pEquipSlot; }

  00000	8b 81 48 03 00
	00		 mov	 eax, DWORD PTR [ecx+840]
  00006	c3		 ret	 0
?GetEquipSlot@ioBaseChar@@QAEPAVioEquipSlot@@XZ ENDP	; ioBaseChar::GetEquipSlot
_TEXT	ENDS
PUBLIC	?GetCharName@ioBaseChar@@QBEABVioHashString@@XZ	; ioBaseChar::GetCharName
; Function compile flags: /Ogsp
;	COMDAT ?GetCharName@ioBaseChar@@QBEABVioHashString@@XZ
_TEXT	SEGMENT
?GetCharName@ioBaseChar@@QBEABVioHashString@@XZ PROC	; ioBaseChar::GetCharName, COMDAT
; _this$ = ecx

; 2594 : 	inline const ioHashString& GetCharName() const { return m_Name; }

  00000	8d 81 d4 02 00
	00		 lea	 eax, DWORD PTR [ecx+724]
  00006	c3		 ret	 0
?GetCharName@ioBaseChar@@QBEABVioHashString@@XZ ENDP	; ioBaseChar::GetCharName
_TEXT	ENDS
PUBLIC	?IsMale@ioBaseChar@@QBE_NXZ			; ioBaseChar::IsMale
; Function compile flags: /Ogsp
;	COMDAT ?IsMale@ioBaseChar@@QBE_NXZ
_TEXT	SEGMENT
?IsMale@ioBaseChar@@QBE_NXZ PROC			; ioBaseChar::IsMale, COMDAT
; _this$ = ecx

; 2775 : 	inline bool IsMale() const { return m_bMale; }

  00000	8a 81 20 03 00
	00		 mov	 al, BYTE PTR [ecx+800]
  00006	c3		 ret	 0
?IsMale@ioBaseChar@@QBE_NXZ ENDP			; ioBaseChar::IsMale
_TEXT	ENDS
PUBLIC	?GetCharacterInfo@ioBaseChar@@QBEABUCHARACTER@@XZ ; ioBaseChar::GetCharacterInfo
; Function compile flags: /Ogsp
;	COMDAT ?GetCharacterInfo@ioBaseChar@@QBEABUCHARACTER@@XZ
_TEXT	SEGMENT
?GetCharacterInfo@ioBaseChar@@QBEABUCHARACTER@@XZ PROC	; ioBaseChar::GetCharacterInfo, COMDAT
; _this$ = ecx

; 2777 : 	inline const CHARACTER& GetCharacterInfo() const { return m_CharInfo; }

  00000	8d 81 58 03 00
	00		 lea	 eax, DWORD PTR [ecx+856]
  00006	c3		 ret	 0
?GetCharacterInfo@ioBaseChar@@QBEABUCHARACTER@@XZ ENDP	; ioBaseChar::GetCharacterInfo
_TEXT	ENDS
PUBLIC	??_7bad_alloc@std@@6B@				; std::bad_alloc::`vftable'
PUBLIC	??0bad_alloc@std@@QAE@PBD@Z			; std::bad_alloc::bad_alloc
PUBLIC	??_R4bad_alloc@std@@6B@				; std::bad_alloc::`RTTI Complete Object Locator'
PUBLIC	??_R0?AVbad_alloc@std@@@8			; std::bad_alloc `RTTI Type Descriptor'
PUBLIC	??_R3bad_alloc@std@@8				; std::bad_alloc::`RTTI Class Hierarchy Descriptor'
PUBLIC	??_R2bad_alloc@std@@8				; std::bad_alloc::`RTTI Base Class Array'
PUBLIC	??_R1A@?0A@EA@bad_alloc@std@@8			; std::bad_alloc::`RTTI Base Class Descriptor at (0,-1,0,64)'
PUBLIC	??_R1A@?0A@EA@exception@std@@8			; std::exception::`RTTI Base Class Descriptor at (0,-1,0,64)'
PUBLIC	??_R0?AVexception@std@@@8			; std::exception `RTTI Type Descriptor'
PUBLIC	??_R3exception@std@@8				; std::exception::`RTTI Class Hierarchy Descriptor'
PUBLIC	??_R2exception@std@@8				; std::exception::`RTTI Base Class Array'
EXTRN	__imp_??0exception@std@@QAE@ABQBD@Z:PROC
EXTRN	??_7type_info@@6B@:QWORD			; type_info::`vftable'
EXTRN	??_Ebad_alloc@std@@UAEPAXI@Z:PROC		; std::bad_alloc::`vector deleting destructor'
EXTRN	?what@exception@std@@UBEPBDXZ:PROC		; std::exception::what
;	COMDAT ??_R2exception@std@@8
; File c:\program files (x86)\microsoft visual studio 10.0\vc\include\exception
rdata$r	SEGMENT
??_R2exception@std@@8 DD FLAT:??_R1A@?0A@EA@exception@std@@8 ; std::exception::`RTTI Base Class Array'
rdata$r	ENDS
;	COMDAT ??_R3exception@std@@8
rdata$r	SEGMENT
??_R3exception@std@@8 DD 00H				; std::exception::`RTTI Class Hierarchy Descriptor'
	DD	00H
	DD	01H
	DD	FLAT:??_R2exception@std@@8
rdata$r	ENDS
;	COMDAT ??_R0?AVexception@std@@@8
_DATA	SEGMENT
??_R0?AVexception@std@@@8 DD FLAT:??_7type_info@@6B@	; std::exception `RTTI Type Descriptor'
	DD	00H
	DB	'.?AVexception@std@@', 00H
_DATA	ENDS
;	COMDAT ??_R1A@?0A@EA@exception@std@@8
rdata$r	SEGMENT
??_R1A@?0A@EA@exception@std@@8 DD FLAT:??_R0?AVexception@std@@@8 ; std::exception::`RTTI Base Class Descriptor at (0,-1,0,64)'
	DD	00H
	DD	00H
	DD	0ffffffffH
	DD	00H
	DD	040H
	DD	FLAT:??_R3exception@std@@8
rdata$r	ENDS
;	COMDAT ??_R1A@?0A@EA@bad_alloc@std@@8
rdata$r	SEGMENT
??_R1A@?0A@EA@bad_alloc@std@@8 DD FLAT:??_R0?AVbad_alloc@std@@@8 ; std::bad_alloc::`RTTI Base Class Descriptor at (0,-1,0,64)'
	DD	01H
	DD	00H
	DD	0ffffffffH
	DD	00H
	DD	040H
	DD	FLAT:??_R3bad_alloc@std@@8
rdata$r	ENDS
;	COMDAT ??_R2bad_alloc@std@@8
rdata$r	SEGMENT
??_R2bad_alloc@std@@8 DD FLAT:??_R1A@?0A@EA@bad_alloc@std@@8 ; std::bad_alloc::`RTTI Base Class Array'
	DD	FLAT:??_R1A@?0A@EA@exception@std@@8
rdata$r	ENDS
;	COMDAT ??_R3bad_alloc@std@@8
rdata$r	SEGMENT
??_R3bad_alloc@std@@8 DD 00H				; std::bad_alloc::`RTTI Class Hierarchy Descriptor'
	DD	00H
	DD	02H
	DD	FLAT:??_R2bad_alloc@std@@8
rdata$r	ENDS
;	COMDAT ??_R0?AVbad_alloc@std@@@8
_DATA	SEGMENT
??_R0?AVbad_alloc@std@@@8 DD FLAT:??_7type_info@@6B@	; std::bad_alloc `RTTI Type Descriptor'
	DD	00H
	DB	'.?AVbad_alloc@std@@', 00H
_DATA	ENDS
;	COMDAT ??_R4bad_alloc@std@@6B@
rdata$r	SEGMENT
??_R4bad_alloc@std@@6B@ DD 00H				; std::bad_alloc::`RTTI Complete Object Locator'
	DD	00H
	DD	00H
	DD	FLAT:??_R0?AVbad_alloc@std@@@8
	DD	FLAT:??_R3bad_alloc@std@@8
rdata$r	ENDS
;	COMDAT ??_7bad_alloc@std@@6B@
CONST	SEGMENT
??_7bad_alloc@std@@6B@ DD FLAT:??_R4bad_alloc@std@@6B@	; std::bad_alloc::`vftable'
	DD	FLAT:??_Ebad_alloc@std@@UAEPAXI@Z
	DD	FLAT:?what@exception@std@@UBEPBDXZ
; Function compile flags: /Ogsp
CONST	ENDS
;	COMDAT ??0bad_alloc@std@@QAE@PBD@Z
_TEXT	SEGMENT
__Message$ = 8						; size = 4
??0bad_alloc@std@@QAE@PBD@Z PROC			; std::bad_alloc::bad_alloc, COMDAT
; _this$ = ecx

; 345  : 		{	// construct from message string

  00000	55		 push	 ebp
  00001	8b ec		 mov	 ebp, esp
  00003	56		 push	 esi
  00004	8d 45 08	 lea	 eax, DWORD PTR __Message$[ebp]
  00007	50		 push	 eax
  00008	8b f1		 mov	 esi, ecx
  0000a	ff 15 00 00 00
	00		 call	 DWORD PTR __imp_??0exception@std@@QAE@ABQBD@Z
  00010	c7 06 00 00 00
	00		 mov	 DWORD PTR [esi], OFFSET ??_7bad_alloc@std@@6B@

; 346  : 		}

  00016	8b c6		 mov	 eax, esi
  00018	5e		 pop	 esi
  00019	5d		 pop	 ebp
  0001a	c2 04 00	 ret	 4
??0bad_alloc@std@@QAE@PBD@Z ENDP			; std::bad_alloc::bad_alloc
_TEXT	ENDS
PUBLIC	??1bad_alloc@std@@UAE@XZ			; std::bad_alloc::~bad_alloc
EXTRN	__imp_??1exception@std@@UAE@XZ:PROC
; Function compile flags: /Ogsp
;	COMDAT ??1bad_alloc@std@@UAE@XZ
_TEXT	SEGMENT
??1bad_alloc@std@@UAE@XZ PROC				; std::bad_alloc::~bad_alloc, COMDAT
; _this$ = ecx

; 354  : 		{	// destroy the object

  00000	c7 01 00 00 00
	00		 mov	 DWORD PTR [ecx], OFFSET ??_7bad_alloc@std@@6B@

; 355  : 		}

  00006	ff 25 00 00 00
	00		 jmp	 DWORD PTR __imp_??1exception@std@@UAE@XZ
??1bad_alloc@std@@UAE@XZ ENDP				; std::bad_alloc::~bad_alloc
_TEXT	ENDS
EXTRN	??3@YAXPAX@Z:PROC				; operator delete
; Function compile flags: /Ogsp
;	COMDAT ??_Gbad_alloc@std@@UAEPAXI@Z
_TEXT	SEGMENT
___flags$ = 8						; size = 4
??_Gbad_alloc@std@@UAEPAXI@Z PROC			; std::bad_alloc::`scalar deleting destructor', COMDAT
; _this$ = ecx
  00000	55		 push	 ebp
  00001	8b ec		 mov	 ebp, esp
  00003	56		 push	 esi
  00004	8b f1		 mov	 esi, ecx
  00006	c7 06 00 00 00
	00		 mov	 DWORD PTR [esi], OFFSET ??_7bad_alloc@std@@6B@
  0000c	ff 15 00 00 00
	00		 call	 DWORD PTR __imp_??1exception@std@@UAE@XZ
  00012	f6 45 08 01	 test	 BYTE PTR ___flags$[ebp], 1
  00016	74 07		 je	 SHORT $LN1@scalar
  00018	56		 push	 esi
  00019	e8 00 00 00 00	 call	 ??3@YAXPAX@Z		; operator delete
  0001e	59		 pop	 ecx
$LN1@scalar:
  0001f	8b c6		 mov	 eax, esi
  00021	5e		 pop	 esi
  00022	5d		 pop	 ebp
  00023	c2 04 00	 ret	 4
??_Gbad_alloc@std@@UAEPAXI@Z ENDP			; std::bad_alloc::`scalar deleting destructor'
_TEXT	ENDS
PUBLIC	??2@YAPAXIPAX@Z					; operator new
; Function compile flags: /Ogsp
; File c:\program files (x86)\microsoft visual studio 10.0\vc\include\new
;	COMDAT ??2@YAPAXIPAX@Z
_TEXT	SEGMENT
___formal$ = 8						; size = 4
__Where$ = 12						; size = 4
??2@YAPAXIPAX@Z PROC					; operator new, COMDAT

; 56   : 	{	// construct array with placement at _Where

  00000	55		 push	 ebp
  00001	8b ec		 mov	 ebp, esp

; 57   : 	return (_Where);

  00003	8b 45 0c	 mov	 eax, DWORD PTR __Where$[ebp]

; 58   : 	}

  00006	5d		 pop	 ebp
  00007	c3		 ret	 0
??2@YAPAXIPAX@Z ENDP					; operator new
_TEXT	ENDS
PUBLIC	??3@YAXPAX0@Z					; operator delete
; Function compile flags: /Ogsp
;	COMDAT ??3@YAXPAX0@Z
_TEXT	SEGMENT
___formal$ = 8						; size = 4
___formal$ = 12						; size = 4
??3@YAXPAX0@Z PROC					; operator delete, COMDAT

; 62   : 	}

  00000	c3		 ret	 0
??3@YAXPAX0@Z ENDP					; operator delete
_TEXT	ENDS
PUBLIC	?length@?$char_traits@D@std@@SAIPBD@Z		; std::char_traits<char>::length
; Function compile flags: /Ogsp
; File c:\program files (x86)\microsoft visual studio 10.0\vc\include\iosfwd
;	COMDAT ?length@?$char_traits@D@std@@SAIPBD@Z
_TEXT	SEGMENT
__First$ = 8						; size = 4
?length@?$char_traits@D@std@@SAIPBD@Z PROC		; std::char_traits<char>::length, COMDAT

; 490  : 		{	// find length of null-terminated string

  00000	55		 push	 ebp
  00001	8b ec		 mov	 ebp, esp

; 491  : 		return (_CSTD strlen(_First));

  00003	8b 45 08	 mov	 eax, DWORD PTR __First$[ebp]
  00006	8d 50 01	 lea	 edx, DWORD PTR [eax+1]
$LL3@length:
  00009	8a 08		 mov	 cl, BYTE PTR [eax]
  0000b	40		 inc	 eax
  0000c	84 c9		 test	 cl, cl
  0000e	75 f9		 jne	 SHORT $LL3@length
  00010	2b c2		 sub	 eax, edx

; 492  : 		}

  00012	5d		 pop	 ebp
  00013	c3		 ret	 0
?length@?$char_traits@D@std@@SAIPBD@Z ENDP		; std::char_traits<char>::length
_TEXT	ENDS
PUBLIC	?copy@?$char_traits@D@std@@SAPADPADPBDI@Z	; std::char_traits<char>::copy
EXTRN	_memcpy:PROC
; Function compile flags: /Ogsp
;	COMDAT ?copy@?$char_traits@D@std@@SAPADPADPBDI@Z
_TEXT	SEGMENT
__First1$ = 8						; size = 4
__First2$ = 12						; size = 4
__Count$ = 16						; size = 4
?copy@?$char_traits@D@std@@SAPADPADPBDI@Z PROC		; std::char_traits<char>::copy, COMDAT

; 496  : 		{	// copy [_First1, _First1 + _Count) to [_First2, ...)

  00000	55		 push	 ebp
  00001	8b ec		 mov	 ebp, esp

; 498  : 		}

  00003	5d		 pop	 ebp

; 497  : 		return ((_Elem *)_CSTD memcpy(_First1, _First2, _Count));

  00004	e9 00 00 00 00	 jmp	 _memcpy
?copy@?$char_traits@D@std@@SAPADPADPBDI@Z ENDP		; std::char_traits<char>::copy
_TEXT	ENDS
PUBLIC	?move@?$char_traits@D@std@@SAPADPADPBDI@Z	; std::char_traits<char>::move
EXTRN	__imp__memmove:PROC
; Function compile flags: /Ogsp
;	COMDAT ?move@?$char_traits@D@std@@SAPADPADPBDI@Z
_TEXT	SEGMENT
__First1$ = 8						; size = 4
__First2$ = 12						; size = 4
__Count$ = 16						; size = 4
?move@?$char_traits@D@std@@SAPADPADPBDI@Z PROC		; std::char_traits<char>::move, COMDAT

; 516  : 		{	// copy [_First1, _First1 + _Count) to [_First2, ...)

  00000	55		 push	 ebp
  00001	8b ec		 mov	 ebp, esp

; 518  : 		}

  00003	5d		 pop	 ebp

; 517  : 		return ((_Elem *)_CSTD memmove(_First1, _First2, _Count));

  00004	ff 25 00 00 00
	00		 jmp	 DWORD PTR __imp__memmove
?move@?$char_traits@D@std@@SAPADPADPBDI@Z ENDP		; std::char_traits<char>::move
_TEXT	ENDS
PUBLIC	?assign@?$char_traits@D@std@@SAXAADABD@Z	; std::char_traits<char>::assign
; Function compile flags: /Ogsp
;	COMDAT ?assign@?$char_traits@D@std@@SAXAADABD@Z
_TEXT	SEGMENT
__Left$ = 8						; size = 4
__Right$ = 12						; size = 4
?assign@?$char_traits@D@std@@SAXAADABD@Z PROC		; std::char_traits<char>::assign, COMDAT

; 526  : 		{	// assign an element

  00000	55		 push	 ebp
  00001	8b ec		 mov	 ebp, esp

; 527  : 		_Left = _Right;

  00003	8b 45 0c	 mov	 eax, DWORD PTR __Right$[ebp]
  00006	8a 00		 mov	 al, BYTE PTR [eax]
  00008	8b 4d 08	 mov	 ecx, DWORD PTR __Left$[ebp]
  0000b	88 01		 mov	 BYTE PTR [ecx], al

; 528  : 		}

  0000d	5d		 pop	 ebp
  0000e	c3		 ret	 0
?assign@?$char_traits@D@std@@SAXAADABD@Z ENDP		; std::char_traits<char>::assign
_TEXT	ENDS
PUBLIC	?IsUseHeadMeshChange@ioNpcChar@@QAE_NXZ		; ioNpcChar::IsUseHeadMeshChange
; Function compile flags: /Ogsp
; File d:\lost saga for developer\youtube\tutorial\source\src\lsclient\ionpcchar.h
;	COMDAT ?IsUseHeadMeshChange@ioNpcChar@@QAE_NXZ
_TEXT	SEGMENT
?IsUseHeadMeshChange@ioNpcChar@@QAE_NXZ PROC		; ioNpcChar::IsUseHeadMeshChange, COMDAT
; _this$ = ecx

; 317  : 	bool IsUseHeadMeshChange() { return m_bUseHeadMeshChange; }

  00000	8a 81 6d 48 00
	00		 mov	 al, BYTE PTR [ecx+18541]
  00006	c3		 ret	 0
?IsUseHeadMeshChange@ioNpcChar@@QAE_NXZ ENDP		; ioNpcChar::IsUseHeadMeshChange
_TEXT	ENDS
PUBLIC	?SetBaseChar@ioClientAniEventHandler@@QAEXPAVioBaseChar@@@Z ; ioClientAniEventHandler::SetBaseChar
; Function compile flags: /Ogsp
; File d:\lost saga for developer\youtube\tutorial\source\src\lsclient\ioclientanieventhandler.cpp
;	COMDAT ?SetBaseChar@ioClientAniEventHandler@@QAEXPAVioBaseChar@@@Z
_TEXT	SEGMENT
_pChar$ = 8						; size = 4
?SetBaseChar@ioClientAniEventHandler@@QAEXPAVioBaseChar@@@Z PROC ; ioClientAniEventHandler::SetBaseChar, COMDAT
; _this$ = ecx

; 25   : {

  00000	55		 push	 ebp
  00001	8b ec		 mov	 ebp, esp

; 26   : 	m_pChar = pChar;

  00003	8b 45 08	 mov	 eax, DWORD PTR _pChar$[ebp]
  00006	89 41 18	 mov	 DWORD PTR [ecx+24], eax

; 27   : }

  00009	5d		 pop	 ebp
  0000a	c2 04 00	 ret	 4
?SetBaseChar@ioClientAniEventHandler@@QAEXPAVioBaseChar@@@Z ENDP ; ioClientAniEventHandler::SetBaseChar
_TEXT	ENDS
PUBLIC	?OnAutoShakeCamera@ioClientAniEventHandler@@IAEXPBUAniEventTime@@PBVioAnimation@@@Z ; ioClientAniEventHandler::OnAutoShakeCamera
EXTRN	?SetShakeCamera@ioShakeCameraManager@@QAEXHH@Z:PROC ; ioShakeCameraManager::SetShakeCamera
EXTRN	?GetSingleton@ioShakeCameraManager@@SAAAV1@XZ:PROC ; ioShakeCameraManager::GetSingleton
EXTRN	__imp_?ParseInt@ioStringConverter@@SAHPBD@Z:PROC
EXTRN	__imp_?c_str@ioHashString@@QBEPBDXZ:PROC
; Function compile flags: /Ogsp
;	COMDAT ?OnAutoShakeCamera@ioClientAniEventHandler@@IAEXPBUAniEventTime@@PBVioAnimation@@@Z
_TEXT	SEGMENT
_pEvent$ = 8						; size = 4
_pNotifier$ = 12					; size = 4
?OnAutoShakeCamera@ioClientAniEventHandler@@IAEXPBUAniEventTime@@PBVioAnimation@@@Z PROC ; ioClientAniEventHandler::OnAutoShakeCamera, COMDAT
; _this$ = ecx

; 163  : {

  00000	55		 push	 ebp
  00001	8b ec		 mov	 ebp, esp

; 164  : 	if( m_pChar->IsOwnerChar() )

  00003	8b 41 18	 mov	 eax, DWORD PTR [ecx+24]
  00006	80 b8 84 13 00
	00 00		 cmp	 BYTE PTR [eax+4996], 0
  0000d	74 27		 je	 SHORT $LN1@OnAutoShak

; 165  : 	{
; 166  : 		int iShake = ioStringConverter::ParseInt( pEvent->szSubInfo.c_str() );

  0000f	8b 4d 08	 mov	 ecx, DWORD PTR _pEvent$[ebp]
  00012	83 c1 14	 add	 ecx, 20			; 00000014H
  00015	ff 15 00 00 00
	00		 call	 DWORD PTR __imp_?c_str@ioHashString@@QBEPBDXZ
  0001b	50		 push	 eax
  0001c	ff 15 00 00 00
	00		 call	 DWORD PTR __imp_?ParseInt@ioStringConverter@@SAHPBD@Z
  00022	59		 pop	 ecx

; 167  : 		if( iShake > 0 )

  00023	85 c0		 test	 eax, eax
  00025	7e 0f		 jle	 SHORT $LN1@OnAutoShak

; 168  : 		{
; 169  : 			g_ShakeCameraMgr.SetShakeCamera( iShake );

  00027	6a 00		 push	 0
  00029	50		 push	 eax
  0002a	e8 00 00 00 00	 call	 ?GetSingleton@ioShakeCameraManager@@SAAAV1@XZ ; ioShakeCameraManager::GetSingleton
  0002f	8b c8		 mov	 ecx, eax
  00031	e8 00 00 00 00	 call	 ?SetShakeCamera@ioShakeCameraManager@@QAEXHH@Z ; ioShakeCameraManager::SetShakeCamera
$LN1@OnAutoShak:

; 170  : 		}
; 171  : 	}
; 172  : }

  00036	5d		 pop	 ebp
  00037	c2 08 00	 ret	 8
?OnAutoShakeCamera@ioClientAniEventHandler@@IAEXPBUAniEventTime@@PBVioAnimation@@@Z ENDP ; ioClientAniEventHandler::OnAutoShakeCamera
_TEXT	ENDS
PUBLIC	?OnVoiceSound@ioClientAniEventHandler@@IAEXPBUAniEventTime@@PBVioAnimation@@@Z ; ioClientAniEventHandler::OnVoiceSound
EXTRN	__imp_??1ioHashString@@QAE@XZ:PROC
EXTRN	__imp_?PlaySoundA@ioSoundManager@@QAEKABVioHashString@@PAVioSceneNode@@K@Z:PROC
EXTRN	__imp_?GetSingleton@ioSoundManager@@SAAAV1@XZ:PROC
EXTRN	?GetVoiceSoundName@ioBaseChar@@QAE?AVioHashString@@ABV2@@Z:PROC ; ioBaseChar::GetVoiceSoundName
EXTRN	___CxxFrameHandler3:PROC
EXTRN	@__security_check_cookie@4:PROC
EXTRN	__EH_epilog3:PROC
EXTRN	__EH_prolog3:PROC
;	COMDAT xdata$x
xdata$x	SEGMENT
__unwindtable$?OnVoiceSound@ioClientAniEventHandler@@IAEXPBUAniEventTime@@PBVioAnimation@@@Z DD 0ffffffffH
	DD	FLAT:__unwindfunclet$?OnVoiceSound@ioClientAniEventHandler@@IAEXPBUAniEventTime@@PBVioAnimation@@@Z$0
__ehfuncinfo$?OnVoiceSound@ioClientAniEventHandler@@IAEXPBUAniEventTime@@PBVioAnimation@@@Z DD 019930522H
	DD	01H
	DD	FLAT:__unwindtable$?OnVoiceSound@ioClientAniEventHandler@@IAEXPBUAniEventTime@@PBVioAnimation@@@Z
	DD	2 DUP(00H)
	DD	2 DUP(00H)
	DD	00H
	DD	01H
; Function compile flags: /Ogsp
xdata$x	ENDS
;	COMDAT ?OnVoiceSound@ioClientAniEventHandler@@IAEXPBUAniEventTime@@PBVioAnimation@@@Z
_TEXT	SEGMENT
_szNewSound$ = -28					; size = 16
__$EHRec$ = -12						; size = 12
_pEvent$ = 8						; size = 4
_pNotifier$ = 12					; size = 4
?OnVoiceSound@ioClientAniEventHandler@@IAEXPBUAniEventTime@@PBVioAnimation@@@Z PROC ; ioClientAniEventHandler::OnVoiceSound, COMDAT
; _this$ = ecx

; 203  : {

  00000	6a 10		 push	 16			; 00000010H
  00002	b8 00 00 00 00	 mov	 eax, __ehhandler$?OnVoiceSound@ioClientAniEventHandler@@IAEXPBUAniEventTime@@PBVioAnimation@@@Z
  00007	e8 00 00 00 00	 call	 __EH_prolog3
  0000c	8b f1		 mov	 esi, ecx

; 204  : 	ioHashString szNewSound = m_pChar->GetVoiceSoundName( pEvent->szSubInfo );

  0000e	8b 45 08	 mov	 eax, DWORD PTR _pEvent$[ebp]
  00011	8b 4e 18	 mov	 ecx, DWORD PTR [esi+24]
  00014	83 c0 14	 add	 eax, 20			; 00000014H
  00017	50		 push	 eax
  00018	8d 45 e4	 lea	 eax, DWORD PTR _szNewSound$[ebp]
  0001b	50		 push	 eax
  0001c	e8 00 00 00 00	 call	 ?GetVoiceSoundName@ioBaseChar@@QAE?AVioHashString@@ABV2@@Z ; ioBaseChar::GetVoiceSoundName

; 205  : 
; 206  : 	g_SoundMgr.PlaySound( szNewSound, m_pOwner->GetParentSceneNode() );

  00021	8b 4e 04	 mov	 ecx, DWORD PTR [esi+4]
  00024	8b 01		 mov	 eax, DWORD PTR [ecx]
  00026	83 65 fc 00	 and	 DWORD PTR __$EHRec$[ebp+8], 0
  0002a	6a 04		 push	 4
  0002c	ff 50 34	 call	 DWORD PTR [eax+52]
  0002f	50		 push	 eax
  00030	8d 45 e4	 lea	 eax, DWORD PTR _szNewSound$[ebp]
  00033	50		 push	 eax
  00034	ff 15 00 00 00
	00		 call	 DWORD PTR __imp_?GetSingleton@ioSoundManager@@SAAAV1@XZ
  0003a	8b c8		 mov	 ecx, eax
  0003c	ff 15 00 00 00
	00		 call	 DWORD PTR __imp_?PlaySoundA@ioSoundManager@@QAEKABVioHashString@@PAVioSceneNode@@K@Z

; 207  : }

  00042	83 4d fc ff	 or	 DWORD PTR __$EHRec$[ebp+8], -1
  00046	8d 4d e4	 lea	 ecx, DWORD PTR _szNewSound$[ebp]
  00049	ff 15 00 00 00
	00		 call	 DWORD PTR __imp_??1ioHashString@@QAE@XZ
  0004f	e8 00 00 00 00	 call	 __EH_epilog3
  00054	c2 08 00	 ret	 8
_TEXT	ENDS
;	COMDAT text$x
text$x	SEGMENT
__unwindfunclet$?OnVoiceSound@ioClientAniEventHandler@@IAEXPBUAniEventTime@@PBVioAnimation@@@Z$0:
  00000	8d 4d e4	 lea	 ecx, DWORD PTR _szNewSound$[ebp]
  00003	ff 25 00 00 00
	00		 jmp	 DWORD PTR __imp_??1ioHashString@@QAE@XZ
__ehhandler$?OnVoiceSound@ioClientAniEventHandler@@IAEXPBUAniEventTime@@PBVioAnimation@@@Z:
  00009	8b 54 24 08	 mov	 edx, DWORD PTR [esp+8]
  0000d	8d 42 0c	 lea	 eax, DWORD PTR [edx+12]
  00010	8b 4a e0	 mov	 ecx, DWORD PTR [edx-32]
  00013	33 c8		 xor	 ecx, eax
  00015	e8 00 00 00 00	 call	 @__security_check_cookie@4
  0001a	b8 00 00 00 00	 mov	 eax, OFFSET __ehfuncinfo$?OnVoiceSound@ioClientAniEventHandler@@IAEXPBUAniEventTime@@PBVioAnimation@@@Z
  0001f	e9 00 00 00 00	 jmp	 ___CxxFrameHandler3
text$x	ENDS
?OnVoiceSound@ioClientAniEventHandler@@IAEXPBUAniEventTime@@PBVioAnimation@@@Z ENDP ; ioClientAniEventHandler::OnVoiceSound
PUBLIC	?OnAutoEffect@ioClientAniEventHandler@@IAEXPBUAniEventTime@@PBVioAnimation@@@Z ; ioClientAniEventHandler::OnAutoEffect
EXTRN	?AttachEffect@ioBaseChar@@QAEPAVioEffect@@ABVioHashString@@PAVioEntityEvent@@_N@Z:PROC ; ioBaseChar::AttachEffect
; Function compile flags: /Ogsp
;	COMDAT ?OnAutoEffect@ioClientAniEventHandler@@IAEXPBUAniEventTime@@PBVioAnimation@@@Z
_TEXT	SEGMENT
_pEvent$ = 8						; size = 4
_pNotifier$ = 12					; size = 4
?OnAutoEffect@ioClientAniEventHandler@@IAEXPBUAniEventTime@@PBVioAnimation@@@Z PROC ; ioClientAniEventHandler::OnAutoEffect, COMDAT
; _this$ = ecx

; 217  : {

  00000	55		 push	 ebp
  00001	8b ec		 mov	 ebp, esp

; 218  : 	m_pChar->AttachEffect( pEvent->szSubInfo );

  00003	8b 45 08	 mov	 eax, DWORD PTR _pEvent$[ebp]
  00006	8b 49 18	 mov	 ecx, DWORD PTR [ecx+24]
  00009	6a 01		 push	 1
  0000b	6a 00		 push	 0
  0000d	83 c0 14	 add	 eax, 20			; 00000014H
  00010	50		 push	 eax
  00011	e8 00 00 00 00	 call	 ?AttachEffect@ioBaseChar@@QAEPAVioEffect@@ABVioHashString@@PAVioEntityEvent@@_N@Z ; ioBaseChar::AttachEffect

; 219  : }

  00016	5d		 pop	 ebp
  00017	c2 08 00	 ret	 8
?OnAutoEffect@ioClientAniEventHandler@@IAEXPBUAniEventTime@@PBVioAnimation@@@Z ENDP ; ioClientAniEventHandler::OnAutoEffect
_TEXT	ENDS
PUBLIC	??0AniEventInfo@@QAE@XZ				; AniEventInfo::AniEventInfo
EXTRN	__imp_??0ioHashString@@QAE@XZ:PROC
;	COMDAT xdata$x
xdata$x	SEGMENT
__unwindtable$??0AniEventInfo@@QAE@XZ DD 0ffffffffH
	DD	FLAT:__unwindfunclet$??0AniEventInfo@@QAE@XZ$0
__ehfuncinfo$??0AniEventInfo@@QAE@XZ DD 019930522H
	DD	01H
	DD	FLAT:__unwindtable$??0AniEventInfo@@QAE@XZ
	DD	2 DUP(00H)
	DD	2 DUP(00H)
	DD	00H
	DD	01H
; Function compile flags: /Ogsp
xdata$x	ENDS
;	COMDAT ??0AniEventInfo@@QAE@XZ
_TEXT	SEGMENT
_this$ = -16						; size = 4
__$EHRec$ = -12						; size = 12
??0AniEventInfo@@QAE@XZ PROC				; AniEventInfo::AniEventInfo, COMDAT
; _this$ = ecx
  00000	6a 04		 push	 4
  00002	b8 00 00 00 00	 mov	 eax, __ehhandler$??0AniEventInfo@@QAE@XZ
  00007	e8 00 00 00 00	 call	 __EH_prolog3
  0000c	8b f9		 mov	 edi, ecx
  0000e	89 7d f0	 mov	 DWORD PTR _this$[ebp], edi
  00011	8b 35 00 00 00
	00		 mov	 esi, DWORD PTR __imp_??0ioHashString@@QAE@XZ
  00017	ff d6		 call	 esi
  00019	83 65 fc 00	 and	 DWORD PTR __$EHRec$[ebp+8], 0
  0001d	8d 4f 10	 lea	 ecx, DWORD PTR [edi+16]
  00020	ff d6		 call	 esi
  00022	8b c7		 mov	 eax, edi
  00024	e8 00 00 00 00	 call	 __EH_epilog3
  00029	c3		 ret	 0
_TEXT	ENDS
;	COMDAT text$x
text$x	SEGMENT
__unwindfunclet$??0AniEventInfo@@QAE@XZ$0:
  00000	8b 4d f0	 mov	 ecx, DWORD PTR _this$[ebp]
  00003	ff 25 00 00 00
	00		 jmp	 DWORD PTR __imp_??1ioHashString@@QAE@XZ
__ehhandler$??0AniEventInfo@@QAE@XZ:
  00009	8b 54 24 08	 mov	 edx, DWORD PTR [esp+8]
  0000d	8d 42 0c	 lea	 eax, DWORD PTR [edx+12]
  00010	8b 4a ec	 mov	 ecx, DWORD PTR [edx-20]
  00013	33 c8		 xor	 ecx, eax
  00015	e8 00 00 00 00	 call	 @__security_check_cookie@4
  0001a	b8 00 00 00 00	 mov	 eax, OFFSET __ehfuncinfo$??0AniEventInfo@@QAE@XZ
  0001f	e9 00 00 00 00	 jmp	 ___CxxFrameHandler3
text$x	ENDS
??0AniEventInfo@@QAE@XZ ENDP				; AniEventInfo::AniEventInfo
PUBLIC	??1AniEventInfo@@QAE@XZ				; AniEventInfo::~AniEventInfo
;	COMDAT xdata$x
xdata$x	SEGMENT
__unwindtable$??1AniEventInfo@@QAE@XZ DD 0ffffffffH
	DD	FLAT:__unwindfunclet$??1AniEventInfo@@QAE@XZ$0
__ehfuncinfo$??1AniEventInfo@@QAE@XZ DD 019930522H
	DD	01H
	DD	FLAT:__unwindtable$??1AniEventInfo@@QAE@XZ
	DD	2 DUP(00H)
	DD	2 DUP(00H)
	DD	00H
	DD	01H
; Function compile flags: /Ogsp
xdata$x	ENDS
;	COMDAT ??1AniEventInfo@@QAE@XZ
_TEXT	SEGMENT
_this$ = -16						; size = 4
__$EHRec$ = -12						; size = 12
??1AniEventInfo@@QAE@XZ PROC				; AniEventInfo::~AniEventInfo, COMDAT
; _this$ = ecx
  00000	6a 04		 push	 4
  00002	b8 00 00 00 00	 mov	 eax, __ehhandler$??1AniEventInfo@@QAE@XZ
  00007	e8 00 00 00 00	 call	 __EH_prolog3
  0000c	8b f9		 mov	 edi, ecx
  0000e	89 7d f0	 mov	 DWORD PTR _this$[ebp], edi
  00011	8b 35 00 00 00
	00		 mov	 esi, DWORD PTR __imp_??1ioHashString@@QAE@XZ
  00017	83 65 fc 00	 and	 DWORD PTR __$EHRec$[ebp+8], 0
  0001b	8d 4f 10	 lea	 ecx, DWORD PTR [edi+16]
  0001e	ff d6		 call	 esi
  00020	83 4d fc ff	 or	 DWORD PTR __$EHRec$[ebp+8], -1
  00024	8b cf		 mov	 ecx, edi
  00026	ff d6		 call	 esi
  00028	e8 00 00 00 00	 call	 __EH_epilog3
  0002d	c3		 ret	 0
_TEXT	ENDS
;	COMDAT text$x
text$x	SEGMENT
__unwindfunclet$??1AniEventInfo@@QAE@XZ$0:
  00000	8b 4d f0	 mov	 ecx, DWORD PTR _this$[ebp]
  00003	ff 25 00 00 00
	00		 jmp	 DWORD PTR __imp_??1ioHashString@@QAE@XZ
__ehhandler$??1AniEventInfo@@QAE@XZ:
  00009	8b 54 24 08	 mov	 edx, DWORD PTR [esp+8]
  0000d	8d 42 0c	 lea	 eax, DWORD PTR [edx+12]
  00010	8b 4a ec	 mov	 ecx, DWORD PTR [edx-20]
  00013	33 c8		 xor	 ecx, eax
  00015	e8 00 00 00 00	 call	 @__security_check_cookie@4
  0001a	b8 00 00 00 00	 mov	 eax, OFFSET __ehfuncinfo$??1AniEventInfo@@QAE@XZ
  0001f	e9 00 00 00 00	 jmp	 ___CxxFrameHandler3
text$x	ENDS
??1AniEventInfo@@QAE@XZ ENDP				; AniEventInfo::~AniEventInfo
PUBLIC	?_Adopt@_Iterator_base0@std@@QAEXPBX@Z		; std::_Iterator_base0::_Adopt
; Function compile flags: /Ogsp
; File c:\program files (x86)\microsoft visual studio 10.0\vc\include\xutility
;	COMDAT ?_Adopt@_Iterator_base0@std@@QAEXPBX@Z
_TEXT	SEGMENT
___formal$ = 8						; size = 4
?_Adopt@_Iterator_base0@std@@QAEXPBX@Z PROC		; std::_Iterator_base0::_Adopt, COMDAT
; _this$ = ecx

; 49   : 		}

  00000	c2 04 00	 ret	 4
?_Adopt@_Iterator_base0@std@@QAEXPBX@Z ENDP		; std::_Iterator_base0::_Adopt
_TEXT	ENDS
PUBLIC	??1tagAniSoundEventInfo@@QAE@XZ			; tagAniSoundEventInfo::~tagAniSoundEventInfo
;	COMDAT xdata$x
xdata$x	SEGMENT
__unwindtable$??1tagAniSoundEventInfo@@QAE@XZ DD 0ffffffffH
	DD	FLAT:__unwindfunclet$??1tagAniSoundEventInfo@@QAE@XZ$0
__ehfuncinfo$??1tagAniSoundEventInfo@@QAE@XZ DD 019930522H
	DD	01H
	DD	FLAT:__unwindtable$??1tagAniSoundEventInfo@@QAE@XZ
	DD	2 DUP(00H)
	DD	2 DUP(00H)
	DD	00H
	DD	01H
; Function compile flags: /Ogsp
xdata$x	ENDS
;	COMDAT ??1tagAniSoundEventInfo@@QAE@XZ
_TEXT	SEGMENT
_this$ = -16						; size = 4
__$EHRec$ = -12						; size = 12
??1tagAniSoundEventInfo@@QAE@XZ PROC			; tagAniSoundEventInfo::~tagAniSoundEventInfo, COMDAT
; _this$ = ecx
  00000	6a 04		 push	 4
  00002	b8 00 00 00 00	 mov	 eax, __ehhandler$??1tagAniSoundEventInfo@@QAE@XZ
  00007	e8 00 00 00 00	 call	 __EH_prolog3
  0000c	8b f9		 mov	 edi, ecx
  0000e	89 7d f0	 mov	 DWORD PTR _this$[ebp], edi
  00011	8b 35 00 00 00
	00		 mov	 esi, DWORD PTR __imp_??1ioHashString@@QAE@XZ
  00017	83 65 fc 00	 and	 DWORD PTR __$EHRec$[ebp+8], 0
  0001b	8d 4f 10	 lea	 ecx, DWORD PTR [edi+16]
  0001e	ff d6		 call	 esi
  00020	83 4d fc ff	 or	 DWORD PTR __$EHRec$[ebp+8], -1
  00024	8b cf		 mov	 ecx, edi
  00026	ff d6		 call	 esi
  00028	e8 00 00 00 00	 call	 __EH_epilog3
  0002d	c3		 ret	 0
_TEXT	ENDS
;	COMDAT text$x
text$x	SEGMENT
__unwindfunclet$??1tagAniSoundEventInfo@@QAE@XZ$0:
  00000	8b 4d f0	 mov	 ecx, DWORD PTR _this$[ebp]
  00003	ff 25 00 00 00
	00		 jmp	 DWORD PTR __imp_??1ioHashString@@QAE@XZ
__ehhandler$??1tagAniSoundEventInfo@@QAE@XZ:
  00009	8b 54 24 08	 mov	 edx, DWORD PTR [esp+8]
  0000d	8d 42 0c	 lea	 eax, DWORD PTR [edx+12]
  00010	8b 4a ec	 mov	 ecx, DWORD PTR [edx-20]
  00013	33 c8		 xor	 ecx, eax
  00015	e8 00 00 00 00	 call	 @__security_check_cookie@4
  0001a	b8 00 00 00 00	 mov	 eax, OFFSET __ehfuncinfo$??1tagAniSoundEventInfo@@QAE@XZ
  0001f	e9 00 00 00 00	 jmp	 ___CxxFrameHandler3
text$x	ENDS
??1tagAniSoundEventInfo@@QAE@XZ ENDP			; tagAniSoundEventInfo::~tagAniSoundEventInfo
PUBLIC	?OnDummyCharAttack@ioClientAniEventHandler@@IAEXPBUAniEventTime@@PBVioAnimation@@@Z ; ioClientAniEventHandler::OnDummyCharAttack
EXTRN	?SetReserveAttackCode@ioDummyCharManager@@QAEXPAVioBaseChar@@H@Z:PROC ; ioDummyCharManager::SetReserveAttackCode
EXTRN	?GetSingleton@ioDummyCharManager@@SAAAV1@XZ:PROC ; ioDummyCharManager::GetSingleton
; Function compile flags: /Ogsp
; File d:\lost saga for developer\youtube\tutorial\source\src\lsclient\ioclientanieventhandler.cpp
;	COMDAT ?OnDummyCharAttack@ioClientAniEventHandler@@IAEXPBUAniEventTime@@PBVioAnimation@@@Z
_TEXT	SEGMENT
_pEvent$ = 8						; size = 4
_pNotifier$ = 12					; size = 4
?OnDummyCharAttack@ioClientAniEventHandler@@IAEXPBUAniEventTime@@PBVioAnimation@@@Z PROC ; ioClientAniEventHandler::OnDummyCharAttack, COMDAT
; _this$ = ecx

; 275  : {

  00000	55		 push	 ebp
  00001	8b ec		 mov	 ebp, esp
  00003	56		 push	 esi
  00004	8b f1		 mov	 esi, ecx

; 276  : 	int iCode = ioStringConverter::ParseInt( pEvent->szSubInfo.c_str() );

  00006	8b 4d 08	 mov	 ecx, DWORD PTR _pEvent$[ebp]
  00009	83 c1 14	 add	 ecx, 20			; 00000014H
  0000c	ff 15 00 00 00
	00		 call	 DWORD PTR __imp_?c_str@ioHashString@@QBEPBDXZ
  00012	50		 push	 eax
  00013	ff 15 00 00 00
	00		 call	 DWORD PTR __imp_?ParseInt@ioStringConverter@@SAHPBD@Z
  00019	59		 pop	 ecx

; 277  : 	if( iCode > 0 )

  0001a	85 c0		 test	 eax, eax
  0001c	7e 10		 jle	 SHORT $LN1@OnDummyCha

; 278  : 	{
; 279  : 		g_DummyCharMgr.SetReserveAttackCode( m_pChar, iCode );

  0001e	50		 push	 eax
  0001f	ff 76 18	 push	 DWORD PTR [esi+24]
  00022	e8 00 00 00 00	 call	 ?GetSingleton@ioDummyCharManager@@SAAAV1@XZ ; ioDummyCharManager::GetSingleton
  00027	8b c8		 mov	 ecx, eax
  00029	e8 00 00 00 00	 call	 ?SetReserveAttackCode@ioDummyCharManager@@QAEXPAVioBaseChar@@H@Z ; ioDummyCharManager::SetReserveAttackCode
$LN1@OnDummyCha:
  0002e	5e		 pop	 esi

; 280  : 	}
; 281  : }

  0002f	5d		 pop	 ebp
  00030	c2 08 00	 ret	 8
?OnDummyCharAttack@ioClientAniEventHandler@@IAEXPBUAniEventTime@@PBVioAnimation@@@Z ENDP ; ioClientAniEventHandler::OnDummyCharAttack
_TEXT	ENDS
PUBLIC	?OnLobeliaAction@ioClientAniEventHandler@@IAEXPBUAniEventTime@@PBVioAnimation@@@Z ; ioClientAniEventHandler::OnLobeliaAction
EXTRN	?CheckLobeliaWeaponAction@ioWeaponManager@@QAEXABVioHashString@@@Z:PROC ; ioWeaponManager::CheckLobeliaWeaponAction
EXTRN	?GetSingleton@ioWeaponManager@@SAAAV1@XZ:PROC	; ioWeaponManager::GetSingleton
; Function compile flags: /Ogsp
;	COMDAT ?OnLobeliaAction@ioClientAniEventHandler@@IAEXPBUAniEventTime@@PBVioAnimation@@@Z
_TEXT	SEGMENT
_pEvent$ = 8						; size = 4
_pNotifier$ = 12					; size = 4
?OnLobeliaAction@ioClientAniEventHandler@@IAEXPBUAniEventTime@@PBVioAnimation@@@Z PROC ; ioClientAniEventHandler::OnLobeliaAction, COMDAT
; _this$ = ecx

; 285  : 	if( m_pChar )

  00000	8b 41 18	 mov	 eax, DWORD PTR [ecx+24]
  00003	85 c0		 test	 eax, eax
  00005	74 12		 je	 SHORT $LN1@OnLobeliaA

; 286  : 	{
; 287  : 		g_WeaponMgr.CheckLobeliaWeaponAction( m_pChar->GetCharName() );

  00007	05 d4 02 00 00	 add	 eax, 724		; 000002d4H
  0000c	50		 push	 eax
  0000d	e8 00 00 00 00	 call	 ?GetSingleton@ioWeaponManager@@SAAAV1@XZ ; ioWeaponManager::GetSingleton
  00012	8b c8		 mov	 ecx, eax
  00014	e8 00 00 00 00	 call	 ?CheckLobeliaWeaponAction@ioWeaponManager@@QAEXABVioHashString@@@Z ; ioWeaponManager::CheckLobeliaWeaponAction
$LN1@OnLobeliaA:

; 288  : 	}
; 289  : }

  00019	c2 08 00	 ret	 8
?OnLobeliaAction@ioClientAniEventHandler@@IAEXPBUAniEventTime@@PBVioAnimation@@@Z ENDP ; ioClientAniEventHandler::OnLobeliaAction
_TEXT	ENDS
PUBLIC	?OnCmdAction@ioClientAniEventHandler@@IAEXPBUAniEventTime@@PBVioAnimation@@@Z ; ioClientAniEventHandler::OnCmdAction
EXTRN	?SetCmdInputStart@ioBaseChar@@QAEXH@Z:PROC	; ioBaseChar::SetCmdInputStart
; Function compile flags: /Ogsp
;	COMDAT ?OnCmdAction@ioClientAniEventHandler@@IAEXPBUAniEventTime@@PBVioAnimation@@@Z
_TEXT	SEGMENT
_pEvent$ = 8						; size = 4
_pNotifier$ = 12					; size = 4
?OnCmdAction@ioClientAniEventHandler@@IAEXPBUAniEventTime@@PBVioAnimation@@@Z PROC ; ioClientAniEventHandler::OnCmdAction, COMDAT
; _this$ = ecx

; 292  : {

  00000	55		 push	 ebp
  00001	8b ec		 mov	 ebp, esp
  00003	56		 push	 esi
  00004	8b f1		 mov	 esi, ecx

; 293  : 	if( m_pChar && m_pChar->IsNeedProcess() )

  00006	83 7e 18 00	 cmp	 DWORD PTR [esi+24], 0
  0000a	74 2c		 je	 SHORT $LN1@OnCmdActio
  0000c	8b 4e 18	 mov	 ecx, DWORD PTR [esi+24]
  0000f	8b 01		 mov	 eax, DWORD PTR [ecx]
  00011	ff 90 00 01 00
	00		 call	 DWORD PTR [eax+256]
  00017	84 c0		 test	 al, al
  00019	74 1d		 je	 SHORT $LN1@OnCmdActio

; 294  : 	{
; 295  : 		int iType = ioStringConverter::ParseInt( pEvent->szSubInfo.c_str() );

  0001b	8b 4d 08	 mov	 ecx, DWORD PTR _pEvent$[ebp]
  0001e	83 c1 14	 add	 ecx, 20			; 00000014H
  00021	ff 15 00 00 00
	00		 call	 DWORD PTR __imp_?c_str@ioHashString@@QBEPBDXZ
  00027	50		 push	 eax
  00028	ff 15 00 00 00
	00		 call	 DWORD PTR __imp_?ParseInt@ioStringConverter@@SAHPBD@Z
  0002e	59		 pop	 ecx

; 296  : 		m_pChar->SetCmdInputStart( iType );

  0002f	8b 4e 18	 mov	 ecx, DWORD PTR [esi+24]
  00032	50		 push	 eax
  00033	e8 00 00 00 00	 call	 ?SetCmdInputStart@ioBaseChar@@QAEXH@Z ; ioBaseChar::SetCmdInputStart
$LN1@OnCmdActio:
  00038	5e		 pop	 esi

; 297  : 	}
; 298  : }

  00039	5d		 pop	 ebp
  0003a	c2 08 00	 ret	 8
?OnCmdAction@ioClientAniEventHandler@@IAEXPBUAniEventTime@@PBVioAnimation@@@Z ENDP ; ioClientAniEventHandler::OnCmdAction
_TEXT	ENDS
PUBLIC	?OnShowTrinityMesh@ioClientAniEventHandler@@IAEXPBUAniEventTime@@PBVioAnimation@@@Z ; ioClientAniEventHandler::OnShowTrinityMesh
EXTRN	?SetItemMeshShow@ioBaseChar@@QAEXXZ:PROC	; ioBaseChar::SetItemMeshShow
; Function compile flags: /Ogsp
;	COMDAT ?OnShowTrinityMesh@ioClientAniEventHandler@@IAEXPBUAniEventTime@@PBVioAnimation@@@Z
_TEXT	SEGMENT
_pEvent$ = 8						; size = 4
_pNotifier$ = 12					; size = 4
?OnShowTrinityMesh@ioClientAniEventHandler@@IAEXPBUAniEventTime@@PBVioAnimation@@@Z PROC ; ioClientAniEventHandler::OnShowTrinityMesh, COMDAT
; _this$ = ecx

; 302  : {

  00000	8b c1		 mov	 eax, ecx

; 303  : 	if( m_pChar )

  00002	8b 48 18	 mov	 ecx, DWORD PTR [eax+24]
  00005	85 c9		 test	 ecx, ecx
  00007	74 09		 je	 SHORT $LN1@OnShowTrin

; 304  : 	{
; 305  : 		m_bItemMeshHide = false;

  00009	c6 40 4c 00	 mov	 BYTE PTR [eax+76], 0

; 306  : 		m_pChar->SetItemMeshShow();

  0000d	e8 00 00 00 00	 call	 ?SetItemMeshShow@ioBaseChar@@QAEXXZ ; ioBaseChar::SetItemMeshShow
$LN1@OnShowTrin:

; 307  : 	}
; 308  : }

  00012	c2 08 00	 ret	 8
?OnShowTrinityMesh@ioClientAniEventHandler@@IAEXPBUAniEventTime@@PBVioAnimation@@@Z ENDP ; ioClientAniEventHandler::OnShowTrinityMesh
_TEXT	ENDS
PUBLIC	?OnHideTrinityMesh@ioClientAniEventHandler@@IAEXPBUAniEventTime@@PBVioAnimation@@@Z ; ioClientAniEventHandler::OnHideTrinityMesh
EXTRN	?SetItemMeshHide@ioBaseChar@@QAEXXZ:PROC	; ioBaseChar::SetItemMeshHide
; Function compile flags: /Ogsp
;	COMDAT ?OnHideTrinityMesh@ioClientAniEventHandler@@IAEXPBUAniEventTime@@PBVioAnimation@@@Z
_TEXT	SEGMENT
_pEvent$ = 8						; size = 4
_pNotifier$ = 12					; size = 4
?OnHideTrinityMesh@ioClientAniEventHandler@@IAEXPBUAniEventTime@@PBVioAnimation@@@Z PROC ; ioClientAniEventHandler::OnHideTrinityMesh, COMDAT
; _this$ = ecx

; 312  : {

  00000	8b c1		 mov	 eax, ecx

; 313  : 	if( m_pChar )

  00002	8b 48 18	 mov	 ecx, DWORD PTR [eax+24]
  00005	85 c9		 test	 ecx, ecx
  00007	74 09		 je	 SHORT $LN1@OnHideTrin

; 314  : 	{
; 315  : 		m_bItemMeshHide = true;

  00009	c6 40 4c 01	 mov	 BYTE PTR [eax+76], 1

; 316  : 		m_pChar->SetItemMeshHide();

  0000d	e8 00 00 00 00	 call	 ?SetItemMeshHide@ioBaseChar@@QAEXXZ ; ioBaseChar::SetItemMeshHide
$LN1@OnHideTrin:

; 317  : 	}
; 318  : }

  00012	c2 08 00	 ret	 8
?OnHideTrinityMesh@ioClientAniEventHandler@@IAEXPBUAniEventTime@@PBVioAnimation@@@Z ENDP ; ioClientAniEventHandler::OnHideTrinityMesh
_TEXT	ENDS
PUBLIC	?OnCmdEnd@ioClientAniEventHandler@@IAEXPBUAniEventTime@@PBVioAnimation@@@Z ; ioClientAniEventHandler::OnCmdEnd
EXTRN	?SetCmdInputEnd@ioBaseChar@@QAEXXZ:PROC		; ioBaseChar::SetCmdInputEnd
; Function compile flags: /Ogsp
;	COMDAT ?OnCmdEnd@ioClientAniEventHandler@@IAEXPBUAniEventTime@@PBVioAnimation@@@Z
_TEXT	SEGMENT
_pEvent$ = 8						; size = 4
_pNotifier$ = 12					; size = 4
?OnCmdEnd@ioClientAniEventHandler@@IAEXPBUAniEventTime@@PBVioAnimation@@@Z PROC ; ioClientAniEventHandler::OnCmdEnd, COMDAT
; _this$ = ecx

; 321  : {

  00000	56		 push	 esi
  00001	8b f1		 mov	 esi, ecx

; 322  : 	if( m_pChar && m_pChar->IsNeedProcess() )

  00003	83 7e 18 00	 cmp	 DWORD PTR [esi+24], 0
  00007	74 17		 je	 SHORT $LN1@OnCmdEnd
  00009	8b 4e 18	 mov	 ecx, DWORD PTR [esi+24]
  0000c	8b 01		 mov	 eax, DWORD PTR [ecx]
  0000e	ff 90 00 01 00
	00		 call	 DWORD PTR [eax+256]
  00014	84 c0		 test	 al, al
  00016	74 08		 je	 SHORT $LN1@OnCmdEnd

; 323  : 	{
; 324  : 		m_pChar->SetCmdInputEnd();

  00018	8b 4e 18	 mov	 ecx, DWORD PTR [esi+24]
  0001b	e8 00 00 00 00	 call	 ?SetCmdInputEnd@ioBaseChar@@QAEXXZ ; ioBaseChar::SetCmdInputEnd
$LN1@OnCmdEnd:
  00020	5e		 pop	 esi

; 325  : 	}
; 326  : }

  00021	c2 08 00	 ret	 8
?OnCmdEnd@ioClientAniEventHandler@@IAEXPBUAniEventTime@@PBVioAnimation@@@Z ENDP ; ioClientAniEventHandler::OnCmdEnd
_TEXT	ENDS
PUBLIC	?OnSkillAction@ioClientAniEventHandler@@IAEXPBUAniEventTime@@PBVioAnimation@@@Z ; ioClientAniEventHandler::OnSkillAction
EXTRN	?SetSkillInputStart@ioBaseChar@@QAEXXZ:PROC	; ioBaseChar::SetSkillInputStart
; Function compile flags: /Ogsp
;	COMDAT ?OnSkillAction@ioClientAniEventHandler@@IAEXPBUAniEventTime@@PBVioAnimation@@@Z
_TEXT	SEGMENT
_pEvent$ = 8						; size = 4
_pNotifier$ = 12					; size = 4
?OnSkillAction@ioClientAniEventHandler@@IAEXPBUAniEventTime@@PBVioAnimation@@@Z PROC ; ioClientAniEventHandler::OnSkillAction, COMDAT
; _this$ = ecx

; 329  : {

  00000	56		 push	 esi
  00001	8b f1		 mov	 esi, ecx

; 330  : 	if( m_pChar && m_pChar->IsNeedProcess() )

  00003	83 7e 18 00	 cmp	 DWORD PTR [esi+24], 0
  00007	74 17		 je	 SHORT $LN1@OnSkillAct
  00009	8b 4e 18	 mov	 ecx, DWORD PTR [esi+24]
  0000c	8b 01		 mov	 eax, DWORD PTR [ecx]
  0000e	ff 90 00 01 00
	00		 call	 DWORD PTR [eax+256]
  00014	84 c0		 test	 al, al
  00016	74 08		 je	 SHORT $LN1@OnSkillAct

; 331  : 	{
; 332  : 		m_pChar->SetSkillInputStart();

  00018	8b 4e 18	 mov	 ecx, DWORD PTR [esi+24]
  0001b	e8 00 00 00 00	 call	 ?SetSkillInputStart@ioBaseChar@@QAEXXZ ; ioBaseChar::SetSkillInputStart
$LN1@OnSkillAct:
  00020	5e		 pop	 esi

; 333  : 	}
; 334  : }

  00021	c2 08 00	 ret	 8
?OnSkillAction@ioClientAniEventHandler@@IAEXPBUAniEventTime@@PBVioAnimation@@@Z ENDP ; ioClientAniEventHandler::OnSkillAction
_TEXT	ENDS
PUBLIC	__real@00000000
PUBLIC	?OnUseGPAction@ioClientAniEventHandler@@IAEXPBUAniEventTime@@PBVioAnimation@@@Z ; ioClientAniEventHandler::OnUseGPAction
EXTRN	?CheckUseExtraGauge@ioBaseChar@@QAEXM@Z:PROC	; ioBaseChar::CheckUseExtraGauge
EXTRN	__imp_?ParseFloat@ioStringConverter@@SAMPBD@Z:PROC
EXTRN	__fltused:DWORD
;	COMDAT __real@00000000
CONST	SEGMENT
__real@00000000 DD 000000000r			; 0
; Function compile flags: /Ogsp
CONST	ENDS
;	COMDAT ?OnUseGPAction@ioClientAniEventHandler@@IAEXPBUAniEventTime@@PBVioAnimation@@@Z
_TEXT	SEGMENT
_fAmt$ = 8						; size = 4
_pEvent$ = 8						; size = 4
_pNotifier$ = 12					; size = 4
?OnUseGPAction@ioClientAniEventHandler@@IAEXPBUAniEventTime@@PBVioAnimation@@@Z PROC ; ioClientAniEventHandler::OnUseGPAction, COMDAT
; _this$ = ecx

; 337  : {

  00000	55		 push	 ebp
  00001	8b ec		 mov	 ebp, esp
  00003	56		 push	 esi
  00004	8b f1		 mov	 esi, ecx

; 338  : 	float fAmt = ioStringConverter::ParseFloat( pEvent->szSubInfo.c_str() );

  00006	8b 4d 08	 mov	 ecx, DWORD PTR _pEvent$[ebp]
  00009	83 c1 14	 add	 ecx, 20			; 00000014H
  0000c	ff 15 00 00 00
	00		 call	 DWORD PTR __imp_?c_str@ioHashString@@QBEPBDXZ
  00012	50		 push	 eax
  00013	ff 15 00 00 00
	00		 call	 DWORD PTR __imp_?ParseFloat@ioStringConverter@@SAMPBD@Z
  00019	d9 5d 08	 fstp	 DWORD PTR _fAmt$[ebp]

; 339  : 	if( fAmt > 0.0f )

  0001c	d9 ee		 fldz
  0001e	59		 pop	 ecx
  0001f	d9 45 08	 fld	 DWORD PTR _fAmt$[ebp]
  00022	df f1		 fcomip	 ST(1)
  00024	dd d8		 fstp	 ST(0)
  00026	76 28		 jbe	 SHORT $LN1@OnUseGPAct

; 340  : 	{
; 341  : 		if( m_pChar && m_pChar->IsNeedProcess() )

  00028	83 7e 18 00	 cmp	 DWORD PTR [esi+24], 0
  0002c	74 22		 je	 SHORT $LN1@OnUseGPAct
  0002e	8b 4e 18	 mov	 ecx, DWORD PTR [esi+24]
  00031	8b 01		 mov	 eax, DWORD PTR [ecx]
  00033	ff 90 00 01 00
	00		 call	 DWORD PTR [eax+256]
  00039	84 c0		 test	 al, al
  0003b	74 13		 je	 SHORT $LN1@OnUseGPAct

; 342  : 		{
; 343  : 			m_pChar->CheckUseExtraGauge( fAmt );

  0003d	f3 0f 10 45 08	 movss	 xmm0, DWORD PTR _fAmt$[ebp]
  00042	51		 push	 ecx
  00043	8b 4e 18	 mov	 ecx, DWORD PTR [esi+24]
  00046	f3 0f 11 04 24	 movss	 DWORD PTR [esp], xmm0
  0004b	e8 00 00 00 00	 call	 ?CheckUseExtraGauge@ioBaseChar@@QAEXM@Z ; ioBaseChar::CheckUseExtraGauge
$LN1@OnUseGPAct:
  00050	5e		 pop	 esi

; 344  : 		}
; 345  : 	}
; 346  : }

  00051	5d		 pop	 ebp
  00052	c2 08 00	 ret	 8
?OnUseGPAction@ioClientAniEventHandler@@IAEXPBUAniEventTime@@PBVioAnimation@@@Z ENDP ; ioClientAniEventHandler::OnUseGPAction
_TEXT	ENDS
PUBLIC	??0AniEventInfo@@QAE@ABU0@@Z			; AniEventInfo::AniEventInfo
EXTRN	__imp_??0ioHashString@@QAE@ABV0@@Z:PROC
;	COMDAT xdata$x
xdata$x	SEGMENT
__unwindtable$??0AniEventInfo@@QAE@ABU0@@Z DD 0ffffffffH
	DD	FLAT:__unwindfunclet$??0AniEventInfo@@QAE@ABU0@@Z$0
__ehfuncinfo$??0AniEventInfo@@QAE@ABU0@@Z DD 019930522H
	DD	01H
	DD	FLAT:__unwindtable$??0AniEventInfo@@QAE@ABU0@@Z
	DD	2 DUP(00H)
	DD	2 DUP(00H)
	DD	00H
	DD	01H
; Function compile flags: /Ogsp
xdata$x	ENDS
;	COMDAT ??0AniEventInfo@@QAE@ABU0@@Z
_TEXT	SEGMENT
_this$ = -16						; size = 4
__$EHRec$ = -12						; size = 12
___that$ = 8						; size = 4
??0AniEventInfo@@QAE@ABU0@@Z PROC			; AniEventInfo::AniEventInfo, COMDAT
; _this$ = ecx
  00000	6a 04		 push	 4
  00002	b8 00 00 00 00	 mov	 eax, __ehhandler$??0AniEventInfo@@QAE@ABU0@@Z
  00007	e8 00 00 00 00	 call	 __EH_prolog3
  0000c	8b f9		 mov	 edi, ecx
  0000e	89 7d f0	 mov	 DWORD PTR _this$[ebp], edi
  00011	8b 5d 08	 mov	 ebx, DWORD PTR ___that$[ebp]
  00014	8b 35 00 00 00
	00		 mov	 esi, DWORD PTR __imp_??0ioHashString@@QAE@ABV0@@Z
  0001a	53		 push	 ebx
  0001b	ff d6		 call	 esi
  0001d	83 65 fc 00	 and	 DWORD PTR __$EHRec$[ebp+8], 0
  00021	83 c3 10	 add	 ebx, 16			; 00000010H
  00024	53		 push	 ebx
  00025	8d 4f 10	 lea	 ecx, DWORD PTR [edi+16]
  00028	ff d6		 call	 esi
  0002a	8b c7		 mov	 eax, edi
  0002c	e8 00 00 00 00	 call	 __EH_epilog3
  00031	c2 04 00	 ret	 4
_TEXT	ENDS
;	COMDAT text$x
text$x	SEGMENT
__unwindfunclet$??0AniEventInfo@@QAE@ABU0@@Z$0:
  00000	8b 4d f0	 mov	 ecx, DWORD PTR _this$[ebp]
  00003	ff 25 00 00 00
	00		 jmp	 DWORD PTR __imp_??1ioHashString@@QAE@XZ
__ehhandler$??0AniEventInfo@@QAE@ABU0@@Z:
  00009	8b 54 24 08	 mov	 edx, DWORD PTR [esp+8]
  0000d	8d 42 0c	 lea	 eax, DWORD PTR [edx+12]
  00010	8b 4a ec	 mov	 ecx, DWORD PTR [edx-20]
  00013	33 c8		 xor	 ecx, eax
  00015	e8 00 00 00 00	 call	 @__security_check_cookie@4
  0001a	b8 00 00 00 00	 mov	 eax, OFFSET __ehfuncinfo$??0AniEventInfo@@QAE@ABU0@@Z
  0001f	e9 00 00 00 00	 jmp	 ___CxxFrameHandler3
text$x	ENDS
??0AniEventInfo@@QAE@ABU0@@Z ENDP			; AniEventInfo::AniEventInfo
PUBLIC	??0tagAniSoundEventInfo@@QAE@ABU0@@Z		; tagAniSoundEventInfo::tagAniSoundEventInfo
;	COMDAT xdata$x
xdata$x	SEGMENT
__unwindtable$??0tagAniSoundEventInfo@@QAE@ABU0@@Z DD 0ffffffffH
	DD	FLAT:__unwindfunclet$??0tagAniSoundEventInfo@@QAE@ABU0@@Z$0
__ehfuncinfo$??0tagAniSoundEventInfo@@QAE@ABU0@@Z DD 019930522H
	DD	01H
	DD	FLAT:__unwindtable$??0tagAniSoundEventInfo@@QAE@ABU0@@Z
	DD	2 DUP(00H)
	DD	2 DUP(00H)
	DD	00H
	DD	01H
; Function compile flags: /Ogsp
xdata$x	ENDS
;	COMDAT ??0tagAniSoundEventInfo@@QAE@ABU0@@Z
_TEXT	SEGMENT
_this$ = -16						; size = 4
__$EHRec$ = -12						; size = 12
___that$ = 8						; size = 4
??0tagAniSoundEventInfo@@QAE@ABU0@@Z PROC		; tagAniSoundEventInfo::tagAniSoundEventInfo, COMDAT
; _this$ = ecx
  00000	6a 04		 push	 4
  00002	b8 00 00 00 00	 mov	 eax, __ehhandler$??0tagAniSoundEventInfo@@QAE@ABU0@@Z
  00007	e8 00 00 00 00	 call	 __EH_prolog3
  0000c	8b f1		 mov	 esi, ecx
  0000e	89 75 f0	 mov	 DWORD PTR _this$[ebp], esi
  00011	8b 5d 08	 mov	 ebx, DWORD PTR ___that$[ebp]
  00014	8b 3d 00 00 00
	00		 mov	 edi, DWORD PTR __imp_??0ioHashString@@QAE@ABV0@@Z
  0001a	53		 push	 ebx
  0001b	ff d7		 call	 edi
  0001d	83 65 fc 00	 and	 DWORD PTR __$EHRec$[ebp+8], 0
  00021	8d 43 10	 lea	 eax, DWORD PTR [ebx+16]
  00024	50		 push	 eax
  00025	8d 4e 10	 lea	 ecx, DWORD PTR [esi+16]
  00028	ff d7		 call	 edi
  0002a	8b 43 20	 mov	 eax, DWORD PTR [ebx+32]
  0002d	89 46 20	 mov	 DWORD PTR [esi+32], eax
  00030	8b c6		 mov	 eax, esi
  00032	e8 00 00 00 00	 call	 __EH_epilog3
  00037	c2 04 00	 ret	 4
_TEXT	ENDS
;	COMDAT text$x
text$x	SEGMENT
__unwindfunclet$??0tagAniSoundEventInfo@@QAE@ABU0@@Z$0:
  00000	8b 4d f0	 mov	 ecx, DWORD PTR _this$[ebp]
  00003	ff 25 00 00 00
	00		 jmp	 DWORD PTR __imp_??1ioHashString@@QAE@XZ
__ehhandler$??0tagAniSoundEventInfo@@QAE@ABU0@@Z:
  00009	8b 54 24 08	 mov	 edx, DWORD PTR [esp+8]
  0000d	8d 42 0c	 lea	 eax, DWORD PTR [edx+12]
  00010	8b 4a ec	 mov	 ecx, DWORD PTR [edx-20]
  00013	33 c8		 xor	 ecx, eax
  00015	e8 00 00 00 00	 call	 @__security_check_cookie@4
  0001a	b8 00 00 00 00	 mov	 eax, OFFSET __ehfuncinfo$??0tagAniSoundEventInfo@@QAE@ABU0@@Z
  0001f	e9 00 00 00 00	 jmp	 ___CxxFrameHandler3
text$x	ENDS
??0tagAniSoundEventInfo@@QAE@ABU0@@Z ENDP		; tagAniSoundEventInfo::tagAniSoundEventInfo
PUBLIC	?IsCanShopSound@ioClientAniEventHandler@@IAE_NXZ ; ioClientAniEventHandler::IsCanShopSound
EXTRN	?IsCanShopSoundForField@ioSP2GUIManager@@QAE_NXZ:PROC ; ioSP2GUIManager::IsCanShopSoundForField
EXTRN	?GetSingleton@ioSP2GUIManager@@SAAAV1@XZ:PROC	; ioSP2GUIManager::GetSingleton
; Function compile flags: /Ogsp
;	COMDAT ?IsCanShopSound@ioClientAniEventHandler@@IAE_NXZ
_TEXT	SEGMENT
?IsCanShopSound@ioClientAniEventHandler@@IAE_NXZ PROC	; ioClientAniEventHandler::IsCanShopSound, COMDAT
; _this$ = ecx

; 669  : 	return g_GUIMgr.IsCanShopSoundForField();

  00000	e8 00 00 00 00	 call	 ?GetSingleton@ioSP2GUIManager@@SAAAV1@XZ ; ioSP2GUIManager::GetSingleton
  00005	8b c8		 mov	 ecx, eax
  00007	e9 00 00 00 00	 jmp	 ?IsCanShopSoundForField@ioSP2GUIManager@@QAE_NXZ ; ioSP2GUIManager::IsCanShopSoundForField
?IsCanShopSound@ioClientAniEventHandler@@IAE_NXZ ENDP	; ioClientAniEventHandler::IsCanShopSound
_TEXT	ENDS
PUBLIC	?size@?$vector@V?$basic_string@DU?$char_traits@D@std@@V?$allocator@D@2@@std@@V?$allocator@V?$basic_string@DU?$char_traits@D@std@@V?$allocator@D@2@@std@@@2@@std@@QBEIXZ ; std::vector<std::basic_string<char,std::char_traits<char>,std::allocator<char> >,std::allocator<std::basic_string<char,std::char_traits<char>,std::allocator<char> > > >::size
; Function compile flags: /Ogsp
; File c:\program files (x86)\microsoft visual studio 10.0\vc\include\vector
;	COMDAT ?size@?$vector@V?$basic_string@DU?$char_traits@D@std@@V?$allocator@D@2@@std@@V?$allocator@V?$basic_string@DU?$char_traits@D@std@@V?$allocator@D@2@@std@@@2@@std@@QBEIXZ
_TEXT	SEGMENT
?size@?$vector@V?$basic_string@DU?$char_traits@D@std@@V?$allocator@D@2@@std@@V?$allocator@V?$basic_string@DU?$char_traits@D@std@@V?$allocator@D@2@@std@@@2@@std@@QBEIXZ PROC ; std::vector<std::basic_string<char,std::char_traits<char>,std::allocator<char> >,std::allocator<std::basic_string<char,std::char_traits<char>,std::allocator<char> > > >::size, COMDAT
; _this$ = ecx

; 879  : 		return (this->_Mylast - this->_Myfirst);

  00000	8b 41 04	 mov	 eax, DWORD PTR [ecx+4]
  00003	2b 01		 sub	 eax, DWORD PTR [ecx]
  00005	6a 1c		 push	 28			; 0000001cH
  00007	99		 cdq
  00008	59		 pop	 ecx
  00009	f7 f9		 idiv	 ecx

; 880  : 		}

  0000b	c3		 ret	 0
?size@?$vector@V?$basic_string@DU?$char_traits@D@std@@V?$allocator@D@2@@std@@V?$allocator@V?$basic_string@DU?$char_traits@D@std@@V?$allocator@D@2@@std@@@2@@std@@QBEIXZ ENDP ; std::vector<std::basic_string<char,std::char_traits<char>,std::allocator<char> >,std::allocator<std::basic_string<char,std::char_traits<char>,std::allocator<char> > > >::size
_TEXT	ENDS
PUBLIC	??A?$vector@V?$basic_string@DU?$char_traits@D@std@@V?$allocator@D@2@@std@@V?$allocator@V?$basic_string@DU?$char_traits@D@std@@V?$allocator@D@2@@std@@@2@@std@@QBEABV?$basic_string@DU?$char_traits@D@std@@V?$allocator@D@2@@1@I@Z ; std::vector<std::basic_string<char,std::char_traits<char>,std::allocator<char> >,std::allocator<std::basic_string<char,std::char_traits<char>,std::allocator<char> > > >::operator[]
; Function compile flags: /Ogsp
;	COMDAT ??A?$vector@V?$basic_string@DU?$char_traits@D@std@@V?$allocator@D@2@@std@@V?$allocator@V?$basic_string@DU?$char_traits@D@std@@V?$allocator@D@2@@std@@@2@@std@@QBEABV?$basic_string@DU?$char_traits@D@std@@V?$allocator@D@2@@1@I@Z
_TEXT	SEGMENT
__Pos$ = 8						; size = 4
??A?$vector@V?$basic_string@DU?$char_traits@D@std@@V?$allocator@D@2@@std@@V?$allocator@V?$basic_string@DU?$char_traits@D@std@@V?$allocator@D@2@@std@@@2@@std@@QBEABV?$basic_string@DU?$char_traits@D@std@@V?$allocator@D@2@@1@I@Z PROC ; std::vector<std::basic_string<char,std::char_traits<char>,std::allocator<char> >,std::allocator<std::basic_string<char,std::char_traits<char>,std::allocator<char> > > >::operator[], COMDAT
; _this$ = ecx

; 912  : 		{	// subscript nonmutable sequence

  00000	55		 push	 ebp
  00001	8b ec		 mov	 ebp, esp

; 913  :  #if _ITERATOR_DEBUG_LEVEL == 2
; 914  : 		if (size() <= _Pos)
; 915  : 			{	// report error
; 916  : 			_DEBUG_ERROR("vector subscript out of range");
; 917  : 			_SCL_SECURE_OUT_OF_RANGE;
; 918  : 			}
; 919  : 
; 920  :  #elif _ITERATOR_DEBUG_LEVEL == 1
; 921  : 		_SCL_SECURE_VALIDATE_RANGE(_Pos < size());
; 922  :  #endif /* _ITERATOR_DEBUG_LEVEL */
; 923  : 
; 924  : 		return (*(this->_Myfirst + _Pos));

  00003	8b 45 08	 mov	 eax, DWORD PTR __Pos$[ebp]
  00006	6b c0 1c	 imul	 eax, 28			; 0000001cH
  00009	03 01		 add	 eax, DWORD PTR [ecx]

; 925  : 		}

  0000b	5d		 pop	 ebp
  0000c	c2 04 00	 ret	 4
??A?$vector@V?$basic_string@DU?$char_traits@D@std@@V?$allocator@D@2@@std@@V?$allocator@V?$basic_string@DU?$char_traits@D@std@@V?$allocator@D@2@@std@@@2@@std@@QBEABV?$basic_string@DU?$char_traits@D@std@@V?$allocator@D@2@@1@I@Z ENDP ; std::vector<std::basic_string<char,std::char_traits<char>,std::allocator<char> >,std::allocator<std::basic_string<char,std::char_traits<char>,std::allocator<char> > > >::operator[]
_TEXT	ENDS
PUBLIC	??A?$vector@V?$basic_string@DU?$char_traits@D@std@@V?$allocator@D@2@@std@@V?$allocator@V?$basic_string@DU?$char_traits@D@std@@V?$allocator@D@2@@std@@@2@@std@@QAEAAV?$basic_string@DU?$char_traits@D@std@@V?$allocator@D@2@@1@I@Z ; std::vector<std::basic_string<char,std::char_traits<char>,std::allocator<char> >,std::allocator<std::basic_string<char,std::char_traits<char>,std::allocator<char> > > >::operator[]
; Function compile flags: /Ogsp
;	COMDAT ??A?$vector@V?$basic_string@DU?$char_traits@D@std@@V?$allocator@D@2@@std@@V?$allocator@V?$basic_string@DU?$char_traits@D@std@@V?$allocator@D@2@@std@@@2@@std@@QAEAAV?$basic_string@DU?$char_traits@D@std@@V?$allocator@D@2@@1@I@Z
_TEXT	SEGMENT
__Pos$ = 8						; size = 4
??A?$vector@V?$basic_string@DU?$char_traits@D@std@@V?$allocator@D@2@@std@@V?$allocator@V?$basic_string@DU?$char_traits@D@std@@V?$allocator@D@2@@std@@@2@@std@@QAEAAV?$basic_string@DU?$char_traits@D@std@@V?$allocator@D@2@@1@I@Z PROC ; std::vector<std::basic_string<char,std::char_traits<char>,std::allocator<char> >,std::allocator<std::basic_string<char,std::char_traits<char>,std::allocator<char> > > >::operator[], COMDAT
; _this$ = ecx

; 928  : 		{	// subscript mutable sequence

  00000	55		 push	 ebp
  00001	8b ec		 mov	 ebp, esp

; 929  :  #if _ITERATOR_DEBUG_LEVEL == 2
; 930  : 		if (size() <= _Pos)
; 931  : 			{	// report error
; 932  : 			_DEBUG_ERROR("vector subscript out of range");
; 933  : 			_SCL_SECURE_OUT_OF_RANGE;
; 934  : 			}
; 935  : 
; 936  :  #elif _ITERATOR_DEBUG_LEVEL == 1
; 937  : 		_SCL_SECURE_VALIDATE_RANGE(_Pos < size());
; 938  :  #endif /* _ITERATOR_DEBUG_LEVEL */
; 939  : 
; 940  : 		return (*(this->_Myfirst + _Pos));

  00003	8b 45 08	 mov	 eax, DWORD PTR __Pos$[ebp]
  00006	6b c0 1c	 imul	 eax, 28			; 0000001cH
  00009	03 01		 add	 eax, DWORD PTR [ecx]

; 941  : 		}

  0000b	5d		 pop	 ebp
  0000c	c2 04 00	 ret	 4
??A?$vector@V?$basic_string@DU?$char_traits@D@std@@V?$allocator@D@2@@std@@V?$allocator@V?$basic_string@DU?$char_traits@D@std@@V?$allocator@D@2@@std@@@2@@std@@QAEAAV?$basic_string@DU?$char_traits@D@std@@V?$allocator@D@2@@1@I@Z ENDP ; std::vector<std::basic_string<char,std::char_traits<char>,std::allocator<char> >,std::allocator<std::basic_string<char,std::char_traits<char>,std::allocator<char> > > >::operator[]
_TEXT	ENDS
PUBLIC	?empty@?$vector@UAniEventInfo@@V?$allocator@UAniEventInfo@@@std@@@std@@QBE_NXZ ; std::vector<AniEventInfo,std::allocator<AniEventInfo> >::empty
; Function compile flags: /Ogsp
;	COMDAT ?empty@?$vector@UAniEventInfo@@V?$allocator@UAniEventInfo@@@std@@@std@@QBE_NXZ
_TEXT	SEGMENT
?empty@?$vector@UAniEventInfo@@V?$allocator@UAniEventInfo@@@std@@@std@@QBE_NXZ PROC ; std::vector<AniEventInfo,std::allocator<AniEventInfo> >::empty, COMDAT
; _this$ = ecx

; 889  : 		return (this->_Myfirst == this->_Mylast);

  00000	8b 01		 mov	 eax, DWORD PTR [ecx]
  00002	2b 41 04	 sub	 eax, DWORD PTR [ecx+4]
  00005	f7 d8		 neg	 eax
  00007	1b c0		 sbb	 eax, eax
  00009	40		 inc	 eax

; 890  : 		}

  0000a	c3		 ret	 0
?empty@?$vector@UAniEventInfo@@V?$allocator@UAniEventInfo@@@std@@@std@@QBE_NXZ ENDP ; std::vector<AniEventInfo,std::allocator<AniEventInfo> >::empty
_TEXT	ENDS
PUBLIC	?empty@?$vector@UtagAniSoundEventInfo@@V?$allocator@UtagAniSoundEventInfo@@@std@@@std@@QBE_NXZ ; std::vector<tagAniSoundEventInfo,std::allocator<tagAniSoundEventInfo> >::empty
; Function compile flags: /Ogsp
;	COMDAT ?empty@?$vector@UtagAniSoundEventInfo@@V?$allocator@UtagAniSoundEventInfo@@@std@@@std@@QBE_NXZ
_TEXT	SEGMENT
?empty@?$vector@UtagAniSoundEventInfo@@V?$allocator@UtagAniSoundEventInfo@@@std@@@std@@QBE_NXZ PROC ; std::vector<tagAniSoundEventInfo,std::allocator<tagAniSoundEventInfo> >::empty, COMDAT
; _this$ = ecx

; 889  : 		return (this->_Myfirst == this->_Mylast);

  00000	8b 01		 mov	 eax, DWORD PTR [ecx]
  00002	2b 41 04	 sub	 eax, DWORD PTR [ecx+4]
  00005	f7 d8		 neg	 eax
  00007	1b c0		 sbb	 eax, eax
  00009	40		 inc	 eax

; 890  : 		}

  0000a	c3		 ret	 0
?empty@?$vector@UtagAniSoundEventInfo@@V?$allocator@UtagAniSoundEventInfo@@@std@@@std@@QBE_NXZ ENDP ; std::vector<tagAniSoundEventInfo,std::allocator<tagAniSoundEventInfo> >::empty
_TEXT	ENDS
PUBLIC	?size@?$list@PBVioMeshControlPoint@@V?$allocator@PBVioMeshControlPoint@@@std@@@std@@QBEIXZ ; std::list<ioMeshControlPoint const *,std::allocator<ioMeshControlPoint const *> >::size
; Function compile flags: /Ogsp
; File c:\program files (x86)\microsoft visual studio 10.0\vc\include\list
;	COMDAT ?size@?$list@PBVioMeshControlPoint@@V?$allocator@PBVioMeshControlPoint@@@std@@@std@@QBEIXZ
_TEXT	SEGMENT
?size@?$list@PBVioMeshControlPoint@@V?$allocator@PBVioMeshControlPoint@@@std@@@std@@QBEIXZ PROC ; std::list<ioMeshControlPoint const *,std::allocator<ioMeshControlPoint const *> >::size, COMDAT
; _this$ = ecx

; 877  : 		return (this->_Mysize);

  00000	8b 41 04	 mov	 eax, DWORD PTR [ecx+4]

; 878  : 		}

  00003	c3		 ret	 0
?size@?$list@PBVioMeshControlPoint@@V?$allocator@PBVioMeshControlPoint@@@std@@@std@@QBEIXZ ENDP ; std::list<ioMeshControlPoint const *,std::allocator<ioMeshControlPoint const *> >::size
_TEXT	ENDS
PUBLIC	?empty@?$list@PBVioMeshControlPoint@@V?$allocator@PBVioMeshControlPoint@@@std@@@std@@QBE_NXZ ; std::list<ioMeshControlPoint const *,std::allocator<ioMeshControlPoint const *> >::empty
; Function compile flags: /Ogsp
;	COMDAT ?empty@?$list@PBVioMeshControlPoint@@V?$allocator@PBVioMeshControlPoint@@@std@@@std@@QBE_NXZ
_TEXT	SEGMENT
?empty@?$list@PBVioMeshControlPoint@@V?$allocator@PBVioMeshControlPoint@@@std@@@std@@QBE_NXZ PROC ; std::list<ioMeshControlPoint const *,std::allocator<ioMeshControlPoint const *> >::empty, COMDAT
; _this$ = ecx

; 887  : 		return (this->_Mysize == 0);

  00000	33 c0		 xor	 eax, eax
  00002	39 41 04	 cmp	 DWORD PTR [ecx+4], eax
  00005	0f 94 c0	 sete	 al

; 888  : 		}

  00008	c3		 ret	 0
?empty@?$list@PBVioMeshControlPoint@@V?$allocator@PBVioMeshControlPoint@@@std@@@std@@QBE_NXZ ENDP ; std::list<ioMeshControlPoint const *,std::allocator<ioMeshControlPoint const *> >::empty
_TEXT	ENDS
PUBLIC	??0?$allocator@V?$basic_string@DU?$char_traits@D@std@@V?$allocator@D@2@@std@@@std@@QAE@ABV01@@Z ; std::allocator<std::basic_string<char,std::char_traits<char>,std::allocator<char> > >::allocator<std::basic_string<char,std::char_traits<char>,std::allocator<char> > >
; Function compile flags: /Ogsp
; File c:\program files (x86)\microsoft visual studio 10.0\vc\include\xmemory
;	COMDAT ??0?$allocator@V?$basic_string@DU?$char_traits@D@std@@V?$allocator@D@2@@std@@@std@@QAE@ABV01@@Z
_TEXT	SEGMENT
___formal$ = 8						; size = 4
??0?$allocator@V?$basic_string@DU?$char_traits@D@std@@V?$allocator@D@2@@std@@@std@@QAE@ABV01@@Z PROC ; std::allocator<std::basic_string<char,std::char_traits<char>,std::allocator<char> > >::allocator<std::basic_string<char,std::char_traits<char>,std::allocator<char> > >, COMDAT
; _this$ = ecx

; 165  : 	_ALLOCATOR(const _ALLOCATOR<_Ty>&) _THROW0()

  00000	8b c1		 mov	 eax, ecx

; 166  : 		{	// construct by copying (do nothing)
; 167  : 		}

  00002	c2 04 00	 ret	 4
??0?$allocator@V?$basic_string@DU?$char_traits@D@std@@V?$allocator@D@2@@std@@@std@@QAE@ABV01@@Z ENDP ; std::allocator<std::basic_string<char,std::char_traits<char>,std::allocator<char> > >::allocator<std::basic_string<char,std::char_traits<char>,std::allocator<char> > >
_TEXT	ENDS
PUBLIC	?_Inside@?$vector@UAniEventInfo@@V?$allocator@UAniEventInfo@@@std@@@std@@IBE_NPBUAniEventInfo@@@Z ; std::vector<AniEventInfo,std::allocator<AniEventInfo> >::_Inside
; Function compile flags: /Ogsp
; File c:\program files (x86)\microsoft visual studio 10.0\vc\include\vector
;	COMDAT ?_Inside@?$vector@UAniEventInfo@@V?$allocator@UAniEventInfo@@@std@@@std@@IBE_NPBUAniEventInfo@@@Z
_TEXT	SEGMENT
__Ptr$ = 8						; size = 4
?_Inside@?$vector@UAniEventInfo@@V?$allocator@UAniEventInfo@@@std@@@std@@IBE_NPBUAniEventInfo@@@Z PROC ; std::vector<AniEventInfo,std::allocator<AniEventInfo> >::_Inside, COMDAT
; _this$ = ecx

; 1285 : 		{	// test if _Ptr points inside vector

  00000	55		 push	 ebp
  00001	8b ec		 mov	 ebp, esp

; 1286 : 		return (_Ptr < this->_Mylast && this->_Myfirst <= _Ptr);

  00003	8b 45 08	 mov	 eax, DWORD PTR __Ptr$[ebp]
  00006	3b 41 04	 cmp	 eax, DWORD PTR [ecx+4]
  00009	73 09		 jae	 SHORT $LN3@Inside
  0000b	39 01		 cmp	 DWORD PTR [ecx], eax
  0000d	77 05		 ja	 SHORT $LN3@Inside
  0000f	33 c0		 xor	 eax, eax
  00011	40		 inc	 eax
  00012	eb 02		 jmp	 SHORT $LN4@Inside
$LN3@Inside:
  00014	33 c0		 xor	 eax, eax
$LN4@Inside:

; 1287 : 		}

  00016	5d		 pop	 ebp
  00017	c2 04 00	 ret	 4
?_Inside@?$vector@UAniEventInfo@@V?$allocator@UAniEventInfo@@@std@@@std@@IBE_NPBUAniEventInfo@@@Z ENDP ; std::vector<AniEventInfo,std::allocator<AniEventInfo> >::_Inside
_TEXT	ENDS
PUBLIC	?_Orphan_range@?$vector@UAniEventInfo@@V?$allocator@UAniEventInfo@@@std@@@std@@IBEXPAUAniEventInfo@@0@Z ; std::vector<AniEventInfo,std::allocator<AniEventInfo> >::_Orphan_range
; Function compile flags: /Ogsp
;	COMDAT ?_Orphan_range@?$vector@UAniEventInfo@@V?$allocator@UAniEventInfo@@@std@@@std@@IBEXPAUAniEventInfo@@0@Z
_TEXT	SEGMENT
___formal$ = 8						; size = 4
___formal$ = 12						; size = 4
?_Orphan_range@?$vector@UAniEventInfo@@V?$allocator@UAniEventInfo@@@std@@@std@@IBEXPAUAniEventInfo@@0@Z PROC ; std::vector<AniEventInfo,std::allocator<AniEventInfo> >::_Orphan_range, COMDAT
; _this$ = ecx

; 1454 : 		}

  00000	c2 08 00	 ret	 8
?_Orphan_range@?$vector@UAniEventInfo@@V?$allocator@UAniEventInfo@@@std@@@std@@IBEXPAUAniEventInfo@@0@Z ENDP ; std::vector<AniEventInfo,std::allocator<AniEventInfo> >::_Orphan_range
_TEXT	ENDS
PUBLIC	??1?$_Vector_val@UAniEventInfo@@V?$allocator@UAniEventInfo@@@std@@@std@@QAE@XZ ; std::_Vector_val<AniEventInfo,std::allocator<AniEventInfo> >::~_Vector_val<AniEventInfo,std::allocator<AniEventInfo> >
; Function compile flags: /Ogsp
;	COMDAT ??1?$_Vector_val@UAniEventInfo@@V?$allocator@UAniEventInfo@@@std@@@std@@QAE@XZ
_TEXT	SEGMENT
??1?$_Vector_val@UAniEventInfo@@V?$allocator@UAniEventInfo@@@std@@@std@@QAE@XZ PROC ; std::_Vector_val<AniEventInfo,std::allocator<AniEventInfo> >::~_Vector_val<AniEventInfo,std::allocator<AniEventInfo> >, COMDAT
; _this$ = ecx

; 434  : 		}

  00000	c3		 ret	 0
??1?$_Vector_val@UAniEventInfo@@V?$allocator@UAniEventInfo@@@std@@@std@@QAE@XZ ENDP ; std::_Vector_val<AniEventInfo,std::allocator<AniEventInfo> >::~_Vector_val<AniEventInfo,std::allocator<AniEventInfo> >
_TEXT	ENDS
PUBLIC	??0?$allocator@UAniEventInfo@@@std@@QAE@XZ	; std::allocator<AniEventInfo>::allocator<AniEventInfo>
; Function compile flags: /Ogsp
; File c:\program files (x86)\microsoft visual studio 10.0\vc\include\xmemory
;	COMDAT ??0?$allocator@UAniEventInfo@@@std@@QAE@XZ
_TEXT	SEGMENT
??0?$allocator@UAniEventInfo@@@std@@QAE@XZ PROC		; std::allocator<AniEventInfo>::allocator<AniEventInfo>, COMDAT
; _this$ = ecx

; 161  : 	_ALLOCATOR() _THROW0()

  00000	8b c1		 mov	 eax, ecx

; 162  : 		{	// construct default allocator (do nothing)
; 163  : 		}

  00002	c3		 ret	 0
??0?$allocator@UAniEventInfo@@@std@@QAE@XZ ENDP		; std::allocator<AniEventInfo>::allocator<AniEventInfo>
_TEXT	ENDS
PUBLIC	?_Inside@?$vector@UtagAniSoundEventInfo@@V?$allocator@UtagAniSoundEventInfo@@@std@@@std@@IBE_NPBUtagAniSoundEventInfo@@@Z ; std::vector<tagAniSoundEventInfo,std::allocator<tagAniSoundEventInfo> >::_Inside
; Function compile flags: /Ogsp
; File c:\program files (x86)\microsoft visual studio 10.0\vc\include\vector
;	COMDAT ?_Inside@?$vector@UtagAniSoundEventInfo@@V?$allocator@UtagAniSoundEventInfo@@@std@@@std@@IBE_NPBUtagAniSoundEventInfo@@@Z
_TEXT	SEGMENT
__Ptr$ = 8						; size = 4
?_Inside@?$vector@UtagAniSoundEventInfo@@V?$allocator@UtagAniSoundEventInfo@@@std@@@std@@IBE_NPBUtagAniSoundEventInfo@@@Z PROC ; std::vector<tagAniSoundEventInfo,std::allocator<tagAniSoundEventInfo> >::_Inside, COMDAT
; _this$ = ecx

; 1285 : 		{	// test if _Ptr points inside vector

  00000	55		 push	 ebp
  00001	8b ec		 mov	 ebp, esp

; 1286 : 		return (_Ptr < this->_Mylast && this->_Myfirst <= _Ptr);

  00003	8b 45 08	 mov	 eax, DWORD PTR __Ptr$[ebp]
  00006	3b 41 04	 cmp	 eax, DWORD PTR [ecx+4]
  00009	73 09		 jae	 SHORT $LN3@Inside@2
  0000b	39 01		 cmp	 DWORD PTR [ecx], eax
  0000d	77 05		 ja	 SHORT $LN3@Inside@2
  0000f	33 c0		 xor	 eax, eax
  00011	40		 inc	 eax
  00012	eb 02		 jmp	 SHORT $LN4@Inside@2
$LN3@Inside@2:
  00014	33 c0		 xor	 eax, eax
$LN4@Inside@2:

; 1287 : 		}

  00016	5d		 pop	 ebp
  00017	c2 04 00	 ret	 4
?_Inside@?$vector@UtagAniSoundEventInfo@@V?$allocator@UtagAniSoundEventInfo@@@std@@@std@@IBE_NPBUtagAniSoundEventInfo@@@Z ENDP ; std::vector<tagAniSoundEventInfo,std::allocator<tagAniSoundEventInfo> >::_Inside
_TEXT	ENDS
PUBLIC	?_Orphan_range@?$vector@UtagAniSoundEventInfo@@V?$allocator@UtagAniSoundEventInfo@@@std@@@std@@IBEXPAUtagAniSoundEventInfo@@0@Z ; std::vector<tagAniSoundEventInfo,std::allocator<tagAniSoundEventInfo> >::_Orphan_range
; Function compile flags: /Ogsp
;	COMDAT ?_Orphan_range@?$vector@UtagAniSoundEventInfo@@V?$allocator@UtagAniSoundEventInfo@@@std@@@std@@IBEXPAUtagAniSoundEventInfo@@0@Z
_TEXT	SEGMENT
___formal$ = 8						; size = 4
___formal$ = 12						; size = 4
?_Orphan_range@?$vector@UtagAniSoundEventInfo@@V?$allocator@UtagAniSoundEventInfo@@@std@@@std@@IBEXPAUtagAniSoundEventInfo@@0@Z PROC ; std::vector<tagAniSoundEventInfo,std::allocator<tagAniSoundEventInfo> >::_Orphan_range, COMDAT
; _this$ = ecx

; 1454 : 		}

  00000	c2 08 00	 ret	 8
?_Orphan_range@?$vector@UtagAniSoundEventInfo@@V?$allocator@UtagAniSoundEventInfo@@@std@@@std@@IBEXPAUtagAniSoundEventInfo@@0@Z ENDP ; std::vector<tagAniSoundEventInfo,std::allocator<tagAniSoundEventInfo> >::_Orphan_range
_TEXT	ENDS
PUBLIC	??1?$_Vector_val@UtagAniSoundEventInfo@@V?$allocator@UtagAniSoundEventInfo@@@std@@@std@@QAE@XZ ; std::_Vector_val<tagAniSoundEventInfo,std::allocator<tagAniSoundEventInfo> >::~_Vector_val<tagAniSoundEventInfo,std::allocator<tagAniSoundEventInfo> >
; Function compile flags: /Ogsp
;	COMDAT ??1?$_Vector_val@UtagAniSoundEventInfo@@V?$allocator@UtagAniSoundEventInfo@@@std@@@std@@QAE@XZ
_TEXT	SEGMENT
??1?$_Vector_val@UtagAniSoundEventInfo@@V?$allocator@UtagAniSoundEventInfo@@@std@@@std@@QAE@XZ PROC ; std::_Vector_val<tagAniSoundEventInfo,std::allocator<tagAniSoundEventInfo> >::~_Vector_val<tagAniSoundEventInfo,std::allocator<tagAniSoundEventInfo> >, COMDAT
; _this$ = ecx

; 434  : 		}

  00000	c3		 ret	 0
??1?$_Vector_val@UtagAniSoundEventInfo@@V?$allocator@UtagAniSoundEventInfo@@@std@@@std@@QAE@XZ ENDP ; std::_Vector_val<tagAniSoundEventInfo,std::allocator<tagAniSoundEventInfo> >::~_Vector_val<tagAniSoundEventInfo,std::allocator<tagAniSoundEventInfo> >
_TEXT	ENDS
PUBLIC	??0?$allocator@UtagAniSoundEventInfo@@@std@@QAE@XZ ; std::allocator<tagAniSoundEventInfo>::allocator<tagAniSoundEventInfo>
; Function compile flags: /Ogsp
; File c:\program files (x86)\microsoft visual studio 10.0\vc\include\xmemory
;	COMDAT ??0?$allocator@UtagAniSoundEventInfo@@@std@@QAE@XZ
_TEXT	SEGMENT
??0?$allocator@UtagAniSoundEventInfo@@@std@@QAE@XZ PROC	; std::allocator<tagAniSoundEventInfo>::allocator<tagAniSoundEventInfo>, COMDAT
; _this$ = ecx

; 161  : 	_ALLOCATOR() _THROW0()

  00000	8b c1		 mov	 eax, ecx

; 162  : 		{	// construct default allocator (do nothing)
; 163  : 		}

  00002	c3		 ret	 0
??0?$allocator@UtagAniSoundEventInfo@@@std@@QAE@XZ ENDP	; std::allocator<tagAniSoundEventInfo>::allocator<tagAniSoundEventInfo>
_TEXT	ENDS
PUBLIC	??0?$_Vector_const_iterator@V?$_Vector_val@UAniEventInfo@@V?$allocator@UAniEventInfo@@@std@@@std@@@std@@QAE@XZ ; std::_Vector_const_iterator<std::_Vector_val<AniEventInfo,std::allocator<AniEventInfo> > >::_Vector_const_iterator<std::_Vector_val<AniEventInfo,std::allocator<AniEventInfo> > >
; Function compile flags: /Ogsp
; File c:\program files (x86)\microsoft visual studio 10.0\vc\include\vector
;	COMDAT ??0?$_Vector_const_iterator@V?$_Vector_val@UAniEventInfo@@V?$allocator@UAniEventInfo@@@std@@@std@@@std@@QAE@XZ
_TEXT	SEGMENT
??0?$_Vector_const_iterator@V?$_Vector_val@UAniEventInfo@@V?$allocator@UAniEventInfo@@@std@@@std@@@std@@QAE@XZ PROC ; std::_Vector_const_iterator<std::_Vector_val<AniEventInfo,std::allocator<AniEventInfo> > >::_Vector_const_iterator<std::_Vector_val<AniEventInfo,std::allocator<AniEventInfo> > >, COMDAT
; _this$ = ecx

; 40   : 		{	// construct with null pointer

  00000	8b c1		 mov	 eax, ecx
  00002	83 20 00	 and	 DWORD PTR [eax], 0

; 41   : 		}

  00005	c3		 ret	 0
??0?$_Vector_const_iterator@V?$_Vector_val@UAniEventInfo@@V?$allocator@UAniEventInfo@@@std@@@std@@@std@@QAE@XZ ENDP ; std::_Vector_const_iterator<std::_Vector_val<AniEventInfo,std::allocator<AniEventInfo> > >::_Vector_const_iterator<std::_Vector_val<AniEventInfo,std::allocator<AniEventInfo> > >
_TEXT	ENDS
PUBLIC	??D?$_Vector_const_iterator@V?$_Vector_val@UAniEventInfo@@V?$allocator@UAniEventInfo@@@std@@@std@@@std@@QBEABUAniEventInfo@@XZ ; std::_Vector_const_iterator<std::_Vector_val<AniEventInfo,std::allocator<AniEventInfo> > >::operator*
; Function compile flags: /Ogsp
;	COMDAT ??D?$_Vector_const_iterator@V?$_Vector_val@UAniEventInfo@@V?$allocator@UAniEventInfo@@@std@@@std@@@std@@QBEABUAniEventInfo@@XZ
_TEXT	SEGMENT
??D?$_Vector_const_iterator@V?$_Vector_val@UAniEventInfo@@V?$allocator@UAniEventInfo@@@std@@@std@@@std@@QBEABUAniEventInfo@@XZ PROC ; std::_Vector_const_iterator<std::_Vector_val<AniEventInfo,std::allocator<AniEventInfo> > >::operator*, COMDAT
; _this$ = ecx

; 64   :  #if _ITERATOR_DEBUG_LEVEL == 2
; 65   : 		if (this->_Getcont() == 0
; 66   : 			|| this->_Ptr == 0
; 67   : 			|| this->_Ptr < ((_Myvec *)this->_Getcont())->_Myfirst
; 68   : 			|| ((_Myvec *)this->_Getcont())->_Mylast <= this->_Ptr)
; 69   : 			{	// report error
; 70   : 			_DEBUG_ERROR("vector iterator not dereferencable");
; 71   : 			_SCL_SECURE_OUT_OF_RANGE;
; 72   : 			}
; 73   : 
; 74   :  #elif _ITERATOR_DEBUG_LEVEL == 1
; 75   : 		_SCL_SECURE_VALIDATE(this->_Getcont() != 0);
; 76   : 		_SCL_SECURE_VALIDATE_RANGE(
; 77   : 			this->_Ptr != 0
; 78   : 			&& ((_Myvec *)this->_Getcont())->_Myfirst <= this->_Ptr
; 79   : 			&& this->_Ptr < ((_Myvec *)this->_Getcont())->_Mylast);
; 80   :  #endif /* _ITERATOR_DEBUG_LEVEL */
; 81   : 
; 82   : 		__analysis_assume(this->_Ptr != 0);
; 83   : 
; 84   : 		return (*this->_Ptr);

  00000	8b 01		 mov	 eax, DWORD PTR [ecx]

; 85   : 		}

  00002	c3		 ret	 0
??D?$_Vector_const_iterator@V?$_Vector_val@UAniEventInfo@@V?$allocator@UAniEventInfo@@@std@@@std@@@std@@QBEABUAniEventInfo@@XZ ENDP ; std::_Vector_const_iterator<std::_Vector_val<AniEventInfo,std::allocator<AniEventInfo> > >::operator*
_TEXT	ENDS
PUBLIC	??E?$_Vector_const_iterator@V?$_Vector_val@UAniEventInfo@@V?$allocator@UAniEventInfo@@@std@@@std@@@std@@QAEAAV01@XZ ; std::_Vector_const_iterator<std::_Vector_val<AniEventInfo,std::allocator<AniEventInfo> > >::operator++
; Function compile flags: /Ogsp
;	COMDAT ??E?$_Vector_const_iterator@V?$_Vector_val@UAniEventInfo@@V?$allocator@UAniEventInfo@@@std@@@std@@@std@@QAEAAV01@XZ
_TEXT	SEGMENT
??E?$_Vector_const_iterator@V?$_Vector_val@UAniEventInfo@@V?$allocator@UAniEventInfo@@@std@@@std@@@std@@QAEAAV01@XZ PROC ; std::_Vector_const_iterator<std::_Vector_val<AniEventInfo,std::allocator<AniEventInfo> > >::operator++, COMDAT
; _this$ = ecx

; 93   : 		{	// preincrement

  00000	8b c1		 mov	 eax, ecx

; 94   :  #if _ITERATOR_DEBUG_LEVEL == 2
; 95   : 		if (this->_Getcont() == 0
; 96   : 			|| this->_Ptr == 0
; 97   : 			|| ((_Myvec *)this->_Getcont())->_Mylast <= this->_Ptr)
; 98   : 			{	// report error
; 99   : 			_DEBUG_ERROR("vector iterator not incrementable");
; 100  : 			_SCL_SECURE_OUT_OF_RANGE;
; 101  : 			}
; 102  : 
; 103  :  #elif _ITERATOR_DEBUG_LEVEL == 1
; 104  : 		_SCL_SECURE_VALIDATE(this->_Getcont() != 0);
; 105  : 		_SCL_SECURE_VALIDATE_RANGE(
; 106  : 			this->_Ptr != 0
; 107  : 			&& this->_Ptr < ((_Myvec *)this->_Getcont())->_Mylast);
; 108  :  #endif /* _ITERATOR_DEBUG_LEVEL */
; 109  : 
; 110  : 		++this->_Ptr;

  00002	83 00 20	 add	 DWORD PTR [eax], 32	; 00000020H

; 111  : 		return (*this);
; 112  : 		}

  00005	c3		 ret	 0
??E?$_Vector_const_iterator@V?$_Vector_val@UAniEventInfo@@V?$allocator@UAniEventInfo@@@std@@@std@@@std@@QAEAAV01@XZ ENDP ; std::_Vector_const_iterator<std::_Vector_val<AniEventInfo,std::allocator<AniEventInfo> > >::operator++
_TEXT	ENDS
PUBLIC	??D?$_Vector_const_iterator@V?$_Vector_val@UtagAniSoundEventInfo@@V?$allocator@UtagAniSoundEventInfo@@@std@@@std@@@std@@QBEABUtagAniSoundEventInfo@@XZ ; std::_Vector_const_iterator<std::_Vector_val<tagAniSoundEventInfo,std::allocator<tagAniSoundEventInfo> > >::operator*
; Function compile flags: /Ogsp
;	COMDAT ??D?$_Vector_const_iterator@V?$_Vector_val@UtagAniSoundEventInfo@@V?$allocator@UtagAniSoundEventInfo@@@std@@@std@@@std@@QBEABUtagAniSoundEventInfo@@XZ
_TEXT	SEGMENT
??D?$_Vector_const_iterator@V?$_Vector_val@UtagAniSoundEventInfo@@V?$allocator@UtagAniSoundEventInfo@@@std@@@std@@@std@@QBEABUtagAniSoundEventInfo@@XZ PROC ; std::_Vector_const_iterator<std::_Vector_val<tagAniSoundEventInfo,std::allocator<tagAniSoundEventInfo> > >::operator*, COMDAT
; _this$ = ecx

; 64   :  #if _ITERATOR_DEBUG_LEVEL == 2
; 65   : 		if (this->_Getcont() == 0
; 66   : 			|| this->_Ptr == 0
; 67   : 			|| this->_Ptr < ((_Myvec *)this->_Getcont())->_Myfirst
; 68   : 			|| ((_Myvec *)this->_Getcont())->_Mylast <= this->_Ptr)
; 69   : 			{	// report error
; 70   : 			_DEBUG_ERROR("vector iterator not dereferencable");
; 71   : 			_SCL_SECURE_OUT_OF_RANGE;
; 72   : 			}
; 73   : 
; 74   :  #elif _ITERATOR_DEBUG_LEVEL == 1
; 75   : 		_SCL_SECURE_VALIDATE(this->_Getcont() != 0);
; 76   : 		_SCL_SECURE_VALIDATE_RANGE(
; 77   : 			this->_Ptr != 0
; 78   : 			&& ((_Myvec *)this->_Getcont())->_Myfirst <= this->_Ptr
; 79   : 			&& this->_Ptr < ((_Myvec *)this->_Getcont())->_Mylast);
; 80   :  #endif /* _ITERATOR_DEBUG_LEVEL */
; 81   : 
; 82   : 		__analysis_assume(this->_Ptr != 0);
; 83   : 
; 84   : 		return (*this->_Ptr);

  00000	8b 01		 mov	 eax, DWORD PTR [ecx]

; 85   : 		}

  00002	c3		 ret	 0
??D?$_Vector_const_iterator@V?$_Vector_val@UtagAniSoundEventInfo@@V?$allocator@UtagAniSoundEventInfo@@@std@@@std@@@std@@QBEABUtagAniSoundEventInfo@@XZ ENDP ; std::_Vector_const_iterator<std::_Vector_val<tagAniSoundEventInfo,std::allocator<tagAniSoundEventInfo> > >::operator*
_TEXT	ENDS
PUBLIC	??E?$_Vector_const_iterator@V?$_Vector_val@UtagAniSoundEventInfo@@V?$allocator@UtagAniSoundEventInfo@@@std@@@std@@@std@@QAEAAV01@XZ ; std::_Vector_const_iterator<std::_Vector_val<tagAniSoundEventInfo,std::allocator<tagAniSoundEventInfo> > >::operator++
; Function compile flags: /Ogsp
;	COMDAT ??E?$_Vector_const_iterator@V?$_Vector_val@UtagAniSoundEventInfo@@V?$allocator@UtagAniSoundEventInfo@@@std@@@std@@@std@@QAEAAV01@XZ
_TEXT	SEGMENT
??E?$_Vector_const_iterator@V?$_Vector_val@UtagAniSoundEventInfo@@V?$allocator@UtagAniSoundEventInfo@@@std@@@std@@@std@@QAEAAV01@XZ PROC ; std::_Vector_const_iterator<std::_Vector_val<tagAniSoundEventInfo,std::allocator<tagAniSoundEventInfo> > >::operator++, COMDAT
; _this$ = ecx

; 93   : 		{	// preincrement

  00000	8b c1		 mov	 eax, ecx

; 94   :  #if _ITERATOR_DEBUG_LEVEL == 2
; 95   : 		if (this->_Getcont() == 0
; 96   : 			|| this->_Ptr == 0
; 97   : 			|| ((_Myvec *)this->_Getcont())->_Mylast <= this->_Ptr)
; 98   : 			{	// report error
; 99   : 			_DEBUG_ERROR("vector iterator not incrementable");
; 100  : 			_SCL_SECURE_OUT_OF_RANGE;
; 101  : 			}
; 102  : 
; 103  :  #elif _ITERATOR_DEBUG_LEVEL == 1
; 104  : 		_SCL_SECURE_VALIDATE(this->_Getcont() != 0);
; 105  : 		_SCL_SECURE_VALIDATE_RANGE(
; 106  : 			this->_Ptr != 0
; 107  : 			&& this->_Ptr < ((_Myvec *)this->_Getcont())->_Mylast);
; 108  :  #endif /* _ITERATOR_DEBUG_LEVEL */
; 109  : 
; 110  : 		++this->_Ptr;

  00002	83 00 24	 add	 DWORD PTR [eax], 36	; 00000024H

; 111  : 		return (*this);
; 112  : 		}

  00005	c3		 ret	 0
??E?$_Vector_const_iterator@V?$_Vector_val@UtagAniSoundEventInfo@@V?$allocator@UtagAniSoundEventInfo@@@std@@@std@@@std@@QAEAAV01@XZ ENDP ; std::_Vector_const_iterator<std::_Vector_val<tagAniSoundEventInfo,std::allocator<tagAniSoundEventInfo> > >::operator++
_TEXT	ENDS
PUBLIC	?_Nextnode@?$_List_val@PBVioMeshControlPoint@@V?$allocator@PBVioMeshControlPoint@@@std@@@std@@SAAAPAU_Node@?$_List_nod@PBVioMeshControlPoint@@V?$allocator@PBVioMeshControlPoint@@@std@@@2@PAU342@@Z ; std::_List_val<ioMeshControlPoint const *,std::allocator<ioMeshControlPoint const *> >::_Nextnode
; Function compile flags: /Ogsp
; File c:\program files (x86)\microsoft visual studio 10.0\vc\include\list
;	COMDAT ?_Nextnode@?$_List_val@PBVioMeshControlPoint@@V?$allocator@PBVioMeshControlPoint@@@std@@@std@@SAAAPAU_Node@?$_List_nod@PBVioMeshControlPoint@@V?$allocator@PBVioMeshControlPoint@@@std@@@2@PAU342@@Z
_TEXT	SEGMENT
__Pnode$ = 8						; size = 4
?_Nextnode@?$_List_val@PBVioMeshControlPoint@@V?$allocator@PBVioMeshControlPoint@@@std@@@std@@SAAAPAU_Node@?$_List_nod@PBVioMeshControlPoint@@V?$allocator@PBVioMeshControlPoint@@@std@@@2@PAU342@@Z PROC ; std::_List_val<ioMeshControlPoint const *,std::allocator<ioMeshControlPoint const *> >::_Nextnode, COMDAT

; 560  : 		{	// return reference to successor pointer in node

  00000	55		 push	 ebp
  00001	8b ec		 mov	 ebp, esp

; 561  : 		return ((_Nodepref)(*_Pnode)._Next);

  00003	8b 45 08	 mov	 eax, DWORD PTR __Pnode$[ebp]

; 562  : 		}

  00006	5d		 pop	 ebp
  00007	c3		 ret	 0
?_Nextnode@?$_List_val@PBVioMeshControlPoint@@V?$allocator@PBVioMeshControlPoint@@@std@@@std@@SAAAPAU_Node@?$_List_nod@PBVioMeshControlPoint@@V?$allocator@PBVioMeshControlPoint@@@std@@@2@PAU342@@Z ENDP ; std::_List_val<ioMeshControlPoint const *,std::allocator<ioMeshControlPoint const *> >::_Nextnode
_TEXT	ENDS
PUBLIC	?_Myval@?$_List_val@PBVioMeshControlPoint@@V?$allocator@PBVioMeshControlPoint@@@std@@@std@@SAAAPBVioMeshControlPoint@@PAU_Node@?$_List_nod@PBVioMeshControlPoint@@V?$allocator@PBVioMeshControlPoint@@@std@@@2@@Z ; std::_List_val<ioMeshControlPoint const *,std::allocator<ioMeshControlPoint const *> >::_Myval
; Function compile flags: /Ogsp
;	COMDAT ?_Myval@?$_List_val@PBVioMeshControlPoint@@V?$allocator@PBVioMeshControlPoint@@@std@@@std@@SAAAPBVioMeshControlPoint@@PAU_Node@?$_List_nod@PBVioMeshControlPoint@@V?$allocator@PBVioMeshControlPoint@@@std@@@2@@Z
_TEXT	SEGMENT
__Pnode$ = 8						; size = 4
?_Myval@?$_List_val@PBVioMeshControlPoint@@V?$allocator@PBVioMeshControlPoint@@@std@@@std@@SAAAPBVioMeshControlPoint@@PAU_Node@?$_List_nod@PBVioMeshControlPoint@@V?$allocator@PBVioMeshControlPoint@@@std@@@2@@Z PROC ; std::_List_val<ioMeshControlPoint const *,std::allocator<ioMeshControlPoint const *> >::_Myval, COMDAT

; 570  : 		{	// return reference to value in node

  00000	55		 push	 ebp
  00001	8b ec		 mov	 ebp, esp

; 571  : 		return ((reference)(*_Pnode)._Myval);

  00003	8b 45 08	 mov	 eax, DWORD PTR __Pnode$[ebp]
  00006	83 c0 08	 add	 eax, 8

; 572  : 		}

  00009	5d		 pop	 ebp
  0000a	c3		 ret	 0
?_Myval@?$_List_val@PBVioMeshControlPoint@@V?$allocator@PBVioMeshControlPoint@@@std@@@std@@SAAAPBVioMeshControlPoint@@PAU_Node@?$_List_nod@PBVioMeshControlPoint@@V?$allocator@PBVioMeshControlPoint@@@std@@@2@@Z ENDP ; std::_List_val<ioMeshControlPoint const *,std::allocator<ioMeshControlPoint const *> >::_Myval
_TEXT	ENDS
PUBLIC	??8?$_List_const_iterator@V?$_List_val@PBVioMeshControlPoint@@V?$allocator@PBVioMeshControlPoint@@@std@@@std@@@std@@QBE_NABV01@@Z ; std::_List_const_iterator<std::_List_val<ioMeshControlPoint const *,std::allocator<ioMeshControlPoint const *> > >::operator==
; Function compile flags: /Ogsp
;	COMDAT ??8?$_List_const_iterator@V?$_List_val@PBVioMeshControlPoint@@V?$allocator@PBVioMeshControlPoint@@@std@@@std@@@std@@QBE_NABV01@@Z
_TEXT	SEGMENT
__Right$ = 8						; size = 4
??8?$_List_const_iterator@V?$_List_val@PBVioMeshControlPoint@@V?$allocator@PBVioMeshControlPoint@@@std@@@std@@@std@@QBE_NABV01@@Z PROC ; std::_List_const_iterator<std::_List_val<ioMeshControlPoint const *,std::allocator<ioMeshControlPoint const *> > >::operator==, COMDAT
; _this$ = ecx

; 281  : 		{	// test for iterator equality

  00000	55		 push	 ebp
  00001	8b ec		 mov	 ebp, esp

; 282  :  #if _ITERATOR_DEBUG_LEVEL == 2
; 283  : 		if (this->_Getcont() == 0
; 284  : 			|| this->_Getcont() != _Right._Getcont())
; 285  : 			{	// report error
; 286  : 			_DEBUG_ERROR("list iterators incompatible");
; 287  : 			_SCL_SECURE_INVALID_ARGUMENT;
; 288  : 			}
; 289  : 
; 290  :  #elif _ITERATOR_DEBUG_LEVEL == 1
; 291  : 		_SCL_SECURE_VALIDATE(this->_Getcont() != 0
; 292  : 			&& this->_Getcont() == _Right._Getcont());
; 293  :  #endif /* _ITERATOR_DEBUG_LEVEL */
; 294  : 
; 295  : 		return (this->_Ptr == _Right._Ptr);

  00003	8b 01		 mov	 eax, DWORD PTR [ecx]
  00005	8b 4d 08	 mov	 ecx, DWORD PTR __Right$[ebp]
  00008	2b 01		 sub	 eax, DWORD PTR [ecx]
  0000a	f7 d8		 neg	 eax
  0000c	1b c0		 sbb	 eax, eax
  0000e	40		 inc	 eax

; 296  : 		}

  0000f	5d		 pop	 ebp
  00010	c2 04 00	 ret	 4
??8?$_List_const_iterator@V?$_List_val@PBVioMeshControlPoint@@V?$allocator@PBVioMeshControlPoint@@@std@@@std@@@std@@QBE_NABV01@@Z ENDP ; std::_List_const_iterator<std::_List_val<ioMeshControlPoint const *,std::allocator<ioMeshControlPoint const *> > >::operator==
_TEXT	ENDS
PUBLIC	??0?$_List_unchecked_const_iterator@V?$_List_val@PBVioMeshControlPoint@@V?$allocator@PBVioMeshControlPoint@@@std@@@std@@U_Iterator_base0@2@@std@@QAE@XZ ; std::_List_unchecked_const_iterator<std::_List_val<ioMeshControlPoint const *,std::allocator<ioMeshControlPoint const *> >,std::_Iterator_base0>::_List_unchecked_const_iterator<std::_List_val<ioMeshControlPoint const *,std::allocator<ioMeshControlPoint const *> >,std::_Iterator_base0>
; Function compile flags: /Ogsp
;	COMDAT ??0?$_List_unchecked_const_iterator@V?$_List_val@PBVioMeshControlPoint@@V?$allocator@PBVioMeshControlPoint@@@std@@@std@@U_Iterator_base0@2@@std@@QAE@XZ
_TEXT	SEGMENT
??0?$_List_unchecked_const_iterator@V?$_List_val@PBVioMeshControlPoint@@V?$allocator@PBVioMeshControlPoint@@@std@@@std@@U_Iterator_base0@2@@std@@QAE@XZ PROC ; std::_List_unchecked_const_iterator<std::_List_val<ioMeshControlPoint const *,std::allocator<ioMeshControlPoint const *> >,std::_Iterator_base0>::_List_unchecked_const_iterator<std::_List_val<ioMeshControlPoint const *,std::allocator<ioMeshControlPoint const *> >,std::_Iterator_base0>, COMDAT
; _this$ = ecx

; 36   : 		{	// construct with null node pointer

  00000	8b c1		 mov	 eax, ecx
  00002	83 20 00	 and	 DWORD PTR [eax], 0

; 37   : 		}

  00005	c3		 ret	 0
??0?$_List_unchecked_const_iterator@V?$_List_val@PBVioMeshControlPoint@@V?$allocator@PBVioMeshControlPoint@@@std@@@std@@U_Iterator_base0@2@@std@@QAE@XZ ENDP ; std::_List_unchecked_const_iterator<std::_List_val<ioMeshControlPoint const *,std::allocator<ioMeshControlPoint const *> >,std::_Iterator_base0>::_List_unchecked_const_iterator<std::_List_val<ioMeshControlPoint const *,std::allocator<ioMeshControlPoint const *> >,std::_Iterator_base0>
_TEXT	ENDS
PUBLIC	??_C@_0BD@OLBABOEK@vector?$DMT?$DO?5too?5long?$AA@ ; `string'
PUBLIC	?_Xlen@?$vector@V?$basic_string@DU?$char_traits@D@std@@V?$allocator@D@2@@std@@V?$allocator@V?$basic_string@DU?$char_traits@D@std@@V?$allocator@D@2@@std@@@2@@std@@IBEXXZ ; std::vector<std::basic_string<char,std::char_traits<char>,std::allocator<char> >,std::allocator<std::basic_string<char,std::char_traits<char>,std::allocator<char> > > >::_Xlen
EXTRN	__imp_?_Xlength_error@std@@YAXPBD@Z:PROC
;	COMDAT ??_C@_0BD@OLBABOEK@vector?$DMT?$DO?5too?5long?$AA@
; File c:\program files (x86)\microsoft visual studio 10.0\vc\include\vector
CONST	SEGMENT
??_C@_0BD@OLBABOEK@vector?$DMT?$DO?5too?5long?$AA@ DB 'vector<T> too long'
	DB	00H						; `string'
; Function compile flags: /Ogsp
CONST	ENDS
;	COMDAT ?_Xlen@?$vector@V?$basic_string@DU?$char_traits@D@std@@V?$allocator@D@2@@std@@V?$allocator@V?$basic_string@DU?$char_traits@D@std@@V?$allocator@D@2@@std@@@2@@std@@IBEXXZ
_TEXT	SEGMENT
?_Xlen@?$vector@V?$basic_string@DU?$char_traits@D@std@@V?$allocator@D@2@@std@@V?$allocator@V?$basic_string@DU?$char_traits@D@std@@V?$allocator@D@2@@std@@@2@@std@@IBEXXZ PROC ; std::vector<std::basic_string<char,std::char_traits<char>,std::allocator<char> >,std::allocator<std::basic_string<char,std::char_traits<char>,std::allocator<char> > > >::_Xlen, COMDAT
; _this$ = ecx

; 1427 : 		_Xlength_error("vector<T> too long");

  00000	68 00 00 00 00	 push	 OFFSET ??_C@_0BD@OLBABOEK@vector?$DMT?$DO?5too?5long?$AA@
  00005	ff 15 00 00 00
	00		 call	 DWORD PTR __imp_?_Xlength_error@std@@YAXPBD@Z
$LN4@Xlen:
$LN3@Xlen:
  0000b	cc		 int	 3
?_Xlen@?$vector@V?$basic_string@DU?$char_traits@D@std@@V?$allocator@D@2@@std@@V?$allocator@V?$basic_string@DU?$char_traits@D@std@@V?$allocator@D@2@@std@@@2@@std@@IBEXXZ ENDP ; std::vector<std::basic_string<char,std::char_traits<char>,std::allocator<char> >,std::allocator<std::basic_string<char,std::char_traits<char>,std::allocator<char> > > >::_Xlen
_TEXT	ENDS
PUBLIC	?capacity@?$vector@UAniEventInfo@@V?$allocator@UAniEventInfo@@@std@@@std@@QBEIXZ ; std::vector<AniEventInfo,std::allocator<AniEventInfo> >::capacity
; Function compile flags: /Ogsp
;	COMDAT ?capacity@?$vector@UAniEventInfo@@V?$allocator@UAniEventInfo@@@std@@@std@@QBEIXZ
_TEXT	SEGMENT
?capacity@?$vector@UAniEventInfo@@V?$allocator@UAniEventInfo@@@std@@@std@@QBEIXZ PROC ; std::vector<AniEventInfo,std::allocator<AniEventInfo> >::capacity, COMDAT
; _this$ = ecx

; 777  : 		return (this->_Myend - this->_Myfirst);

  00000	8b 41 08	 mov	 eax, DWORD PTR [ecx+8]
  00003	2b 01		 sub	 eax, DWORD PTR [ecx]
  00005	c1 f8 05	 sar	 eax, 5

; 778  : 		}

  00008	c3		 ret	 0
?capacity@?$vector@UAniEventInfo@@V?$allocator@UAniEventInfo@@@std@@@std@@QBEIXZ ENDP ; std::vector<AniEventInfo,std::allocator<AniEventInfo> >::capacity
_TEXT	ENDS
PUBLIC	?size@?$vector@UAniEventInfo@@V?$allocator@UAniEventInfo@@@std@@@std@@QBEIXZ ; std::vector<AniEventInfo,std::allocator<AniEventInfo> >::size
; Function compile flags: /Ogsp
;	COMDAT ?size@?$vector@UAniEventInfo@@V?$allocator@UAniEventInfo@@@std@@@std@@QBEIXZ
_TEXT	SEGMENT
?size@?$vector@UAniEventInfo@@V?$allocator@UAniEventInfo@@@std@@@std@@QBEIXZ PROC ; std::vector<AniEventInfo,std::allocator<AniEventInfo> >::size, COMDAT
; _this$ = ecx

; 879  : 		return (this->_Mylast - this->_Myfirst);

  00000	8b 41 04	 mov	 eax, DWORD PTR [ecx+4]
  00003	2b 01		 sub	 eax, DWORD PTR [ecx]
  00005	c1 f8 05	 sar	 eax, 5

; 880  : 		}

  00008	c3		 ret	 0
?size@?$vector@UAniEventInfo@@V?$allocator@UAniEventInfo@@@std@@@std@@QBEIXZ ENDP ; std::vector<AniEventInfo,std::allocator<AniEventInfo> >::size
_TEXT	ENDS
PUBLIC	?_Xlen@?$vector@UAniEventInfo@@V?$allocator@UAniEventInfo@@@std@@@std@@IBEXXZ ; std::vector<AniEventInfo,std::allocator<AniEventInfo> >::_Xlen
; Function compile flags: /Ogsp
;	COMDAT ?_Xlen@?$vector@UAniEventInfo@@V?$allocator@UAniEventInfo@@@std@@@std@@IBEXXZ
_TEXT	SEGMENT
?_Xlen@?$vector@UAniEventInfo@@V?$allocator@UAniEventInfo@@@std@@@std@@IBEXXZ PROC ; std::vector<AniEventInfo,std::allocator<AniEventInfo> >::_Xlen, COMDAT
; _this$ = ecx

; 1427 : 		_Xlength_error("vector<T> too long");

  00000	68 00 00 00 00	 push	 OFFSET ??_C@_0BD@OLBABOEK@vector?$DMT?$DO?5too?5long?$AA@
  00005	ff 15 00 00 00
	00		 call	 DWORD PTR __imp_?_Xlength_error@std@@YAXPBD@Z
$LN4@Xlen@2:
$LN3@Xlen@2:
  0000b	cc		 int	 3
?_Xlen@?$vector@UAniEventInfo@@V?$allocator@UAniEventInfo@@@std@@@std@@IBEXXZ ENDP ; std::vector<AniEventInfo,std::allocator<AniEventInfo> >::_Xlen
_TEXT	ENDS
PUBLIC	??0?$allocator@UAniEventInfo@@@std@@QAE@ABV01@@Z ; std::allocator<AniEventInfo>::allocator<AniEventInfo>
; Function compile flags: /Ogsp
; File c:\program files (x86)\microsoft visual studio 10.0\vc\include\xmemory
;	COMDAT ??0?$allocator@UAniEventInfo@@@std@@QAE@ABV01@@Z
_TEXT	SEGMENT
___formal$ = 8						; size = 4
??0?$allocator@UAniEventInfo@@@std@@QAE@ABV01@@Z PROC	; std::allocator<AniEventInfo>::allocator<AniEventInfo>, COMDAT
; _this$ = ecx

; 165  : 	_ALLOCATOR(const _ALLOCATOR<_Ty>&) _THROW0()

  00000	8b c1		 mov	 eax, ecx

; 166  : 		{	// construct by copying (do nothing)
; 167  : 		}

  00002	c2 04 00	 ret	 4
??0?$allocator@UAniEventInfo@@@std@@QAE@ABV01@@Z ENDP	; std::allocator<AniEventInfo>::allocator<AniEventInfo>
_TEXT	ENDS
PUBLIC	?deallocate@?$allocator@UAniEventInfo@@@std@@QAEXPAUAniEventInfo@@I@Z ; std::allocator<AniEventInfo>::deallocate
; Function compile flags: /Ogsp
;	COMDAT ?deallocate@?$allocator@UAniEventInfo@@@std@@QAEXPAUAniEventInfo@@I@Z
_TEXT	SEGMENT
__Ptr$ = 8						; size = 4
___formal$ = 12						; size = 4
?deallocate@?$allocator@UAniEventInfo@@@std@@QAEXPAUAniEventInfo@@I@Z PROC ; std::allocator<AniEventInfo>::deallocate, COMDAT
; _this$ = ecx

; 181  : 		{	// deallocate object at _Ptr, ignore size

  00000	55		 push	 ebp
  00001	8b ec		 mov	 ebp, esp

; 182  : 		::operator delete(_Ptr);

  00003	ff 75 08	 push	 DWORD PTR __Ptr$[ebp]
  00006	e8 00 00 00 00	 call	 ??3@YAXPAX@Z		; operator delete
  0000b	59		 pop	 ecx

; 183  : 		}

  0000c	5d		 pop	 ebp
  0000d	c2 08 00	 ret	 8
?deallocate@?$allocator@UAniEventInfo@@@std@@QAEXPAUAniEventInfo@@I@Z ENDP ; std::allocator<AniEventInfo>::deallocate
_TEXT	ENDS
PUBLIC	?capacity@?$vector@UtagAniSoundEventInfo@@V?$allocator@UtagAniSoundEventInfo@@@std@@@std@@QBEIXZ ; std::vector<tagAniSoundEventInfo,std::allocator<tagAniSoundEventInfo> >::capacity
; Function compile flags: /Ogsp
; File c:\program files (x86)\microsoft visual studio 10.0\vc\include\vector
;	COMDAT ?capacity@?$vector@UtagAniSoundEventInfo@@V?$allocator@UtagAniSoundEventInfo@@@std@@@std@@QBEIXZ
_TEXT	SEGMENT
?capacity@?$vector@UtagAniSoundEventInfo@@V?$allocator@UtagAniSoundEventInfo@@@std@@@std@@QBEIXZ PROC ; std::vector<tagAniSoundEventInfo,std::allocator<tagAniSoundEventInfo> >::capacity, COMDAT
; _this$ = ecx

; 777  : 		return (this->_Myend - this->_Myfirst);

  00000	8b 41 08	 mov	 eax, DWORD PTR [ecx+8]
  00003	2b 01		 sub	 eax, DWORD PTR [ecx]
  00005	6a 24		 push	 36			; 00000024H
  00007	99		 cdq
  00008	59		 pop	 ecx
  00009	f7 f9		 idiv	 ecx

; 778  : 		}

  0000b	c3		 ret	 0
?capacity@?$vector@UtagAniSoundEventInfo@@V?$allocator@UtagAniSoundEventInfo@@@std@@@std@@QBEIXZ ENDP ; std::vector<tagAniSoundEventInfo,std::allocator<tagAniSoundEventInfo> >::capacity
_TEXT	ENDS
PUBLIC	?size@?$vector@UtagAniSoundEventInfo@@V?$allocator@UtagAniSoundEventInfo@@@std@@@std@@QBEIXZ ; std::vector<tagAniSoundEventInfo,std::allocator<tagAniSoundEventInfo> >::size
; Function compile flags: /Ogsp
;	COMDAT ?size@?$vector@UtagAniSoundEventInfo@@V?$allocator@UtagAniSoundEventInfo@@@std@@@std@@QBEIXZ
_TEXT	SEGMENT
?size@?$vector@UtagAniSoundEventInfo@@V?$allocator@UtagAniSoundEventInfo@@@std@@@std@@QBEIXZ PROC ; std::vector<tagAniSoundEventInfo,std::allocator<tagAniSoundEventInfo> >::size, COMDAT
; _this$ = ecx

; 879  : 		return (this->_Mylast - this->_Myfirst);

  00000	8b 41 04	 mov	 eax, DWORD PTR [ecx+4]
  00003	2b 01		 sub	 eax, DWORD PTR [ecx]
  00005	6a 24		 push	 36			; 00000024H
  00007	99		 cdq
  00008	59		 pop	 ecx
  00009	f7 f9		 idiv	 ecx

; 880  : 		}

  0000b	c3		 ret	 0
?size@?$vector@UtagAniSoundEventInfo@@V?$allocator@UtagAniSoundEventInfo@@@std@@@std@@QBEIXZ ENDP ; std::vector<tagAniSoundEventInfo,std::allocator<tagAniSoundEventInfo> >::size
_TEXT	ENDS
PUBLIC	?_Xlen@?$vector@UtagAniSoundEventInfo@@V?$allocator@UtagAniSoundEventInfo@@@std@@@std@@IBEXXZ ; std::vector<tagAniSoundEventInfo,std::allocator<tagAniSoundEventInfo> >::_Xlen
; Function compile flags: /Ogsp
;	COMDAT ?_Xlen@?$vector@UtagAniSoundEventInfo@@V?$allocator@UtagAniSoundEventInfo@@@std@@@std@@IBEXXZ
_TEXT	SEGMENT
?_Xlen@?$vector@UtagAniSoundEventInfo@@V?$allocator@UtagAniSoundEventInfo@@@std@@@std@@IBEXXZ PROC ; std::vector<tagAniSoundEventInfo,std::allocator<tagAniSoundEventInfo> >::_Xlen, COMDAT
; _this$ = ecx

; 1427 : 		_Xlength_error("vector<T> too long");

  00000	68 00 00 00 00	 push	 OFFSET ??_C@_0BD@OLBABOEK@vector?$DMT?$DO?5too?5long?$AA@
  00005	ff 15 00 00 00
	00		 call	 DWORD PTR __imp_?_Xlength_error@std@@YAXPBD@Z
$LN4@Xlen@3:
$LN3@Xlen@3:
  0000b	cc		 int	 3
?_Xlen@?$vector@UtagAniSoundEventInfo@@V?$allocator@UtagAniSoundEventInfo@@@std@@@std@@IBEXXZ ENDP ; std::vector<tagAniSoundEventInfo,std::allocator<tagAniSoundEventInfo> >::_Xlen
_TEXT	ENDS
PUBLIC	??0?$allocator@UtagAniSoundEventInfo@@@std@@QAE@ABV01@@Z ; std::allocator<tagAniSoundEventInfo>::allocator<tagAniSoundEventInfo>
; Function compile flags: /Ogsp
; File c:\program files (x86)\microsoft visual studio 10.0\vc\include\xmemory
;	COMDAT ??0?$allocator@UtagAniSoundEventInfo@@@std@@QAE@ABV01@@Z
_TEXT	SEGMENT
___formal$ = 8						; size = 4
??0?$allocator@UtagAniSoundEventInfo@@@std@@QAE@ABV01@@Z PROC ; std::allocator<tagAniSoundEventInfo>::allocator<tagAniSoundEventInfo>, COMDAT
; _this$ = ecx

; 165  : 	_ALLOCATOR(const _ALLOCATOR<_Ty>&) _THROW0()

  00000	8b c1		 mov	 eax, ecx

; 166  : 		{	// construct by copying (do nothing)
; 167  : 		}

  00002	c2 04 00	 ret	 4
??0?$allocator@UtagAniSoundEventInfo@@@std@@QAE@ABV01@@Z ENDP ; std::allocator<tagAniSoundEventInfo>::allocator<tagAniSoundEventInfo>
_TEXT	ENDS
PUBLIC	?deallocate@?$allocator@UtagAniSoundEventInfo@@@std@@QAEXPAUtagAniSoundEventInfo@@I@Z ; std::allocator<tagAniSoundEventInfo>::deallocate
; Function compile flags: /Ogsp
;	COMDAT ?deallocate@?$allocator@UtagAniSoundEventInfo@@@std@@QAEXPAUtagAniSoundEventInfo@@I@Z
_TEXT	SEGMENT
__Ptr$ = 8						; size = 4
___formal$ = 12						; size = 4
?deallocate@?$allocator@UtagAniSoundEventInfo@@@std@@QAEXPAUtagAniSoundEventInfo@@I@Z PROC ; std::allocator<tagAniSoundEventInfo>::deallocate, COMDAT
; _this$ = ecx

; 181  : 		{	// deallocate object at _Ptr, ignore size

  00000	55		 push	 ebp
  00001	8b ec		 mov	 ebp, esp

; 182  : 		::operator delete(_Ptr);

  00003	ff 75 08	 push	 DWORD PTR __Ptr$[ebp]
  00006	e8 00 00 00 00	 call	 ??3@YAXPAX@Z		; operator delete
  0000b	59		 pop	 ecx

; 183  : 		}

  0000c	5d		 pop	 ebp
  0000d	c2 08 00	 ret	 8
?deallocate@?$allocator@UtagAniSoundEventInfo@@@std@@QAEXPAUtagAniSoundEventInfo@@I@Z ENDP ; std::allocator<tagAniSoundEventInfo>::deallocate
_TEXT	ENDS
PUBLIC	??0?$_Vector_const_iterator@V?$_Vector_val@UAniEventInfo@@V?$allocator@UAniEventInfo@@@std@@@std@@@std@@QAE@PAUAniEventInfo@@PBU_Container_base0@1@@Z ; std::_Vector_const_iterator<std::_Vector_val<AniEventInfo,std::allocator<AniEventInfo> > >::_Vector_const_iterator<std::_Vector_val<AniEventInfo,std::allocator<AniEventInfo> > >
; Function compile flags: /Ogsp
; File c:\program files (x86)\microsoft visual studio 10.0\vc\include\vector
;	COMDAT ??0?$_Vector_const_iterator@V?$_Vector_val@UAniEventInfo@@V?$allocator@UAniEventInfo@@@std@@@std@@@std@@QAE@PAUAniEventInfo@@PBU_Container_base0@1@@Z
_TEXT	SEGMENT
__Parg$ = 8						; size = 4
__Pvector$ = 12						; size = 4
??0?$_Vector_const_iterator@V?$_Vector_val@UAniEventInfo@@V?$allocator@UAniEventInfo@@@std@@@std@@@std@@QAE@PAUAniEventInfo@@PBU_Container_base0@1@@Z PROC ; std::_Vector_const_iterator<std::_Vector_val<AniEventInfo,std::allocator<AniEventInfo> > >::_Vector_const_iterator<std::_Vector_val<AniEventInfo,std::allocator<AniEventInfo> > >, COMDAT
; _this$ = ecx

; 45   : 		{	// construct with pointer _Parg

  00000	55		 push	 ebp
  00001	8b ec		 mov	 ebp, esp
  00003	8b c1		 mov	 eax, ecx
  00005	8b 4d 08	 mov	 ecx, DWORD PTR __Parg$[ebp]
  00008	89 08		 mov	 DWORD PTR [eax], ecx

; 46   : 		this->_Adopt(_Pvector);
; 47   : 		}

  0000a	5d		 pop	 ebp
  0000b	c2 08 00	 ret	 8
??0?$_Vector_const_iterator@V?$_Vector_val@UAniEventInfo@@V?$allocator@UAniEventInfo@@@std@@@std@@@std@@QAE@PAUAniEventInfo@@PBU_Container_base0@1@@Z ENDP ; std::_Vector_const_iterator<std::_Vector_val<AniEventInfo,std::allocator<AniEventInfo> > >::_Vector_const_iterator<std::_Vector_val<AniEventInfo,std::allocator<AniEventInfo> > >
_TEXT	ENDS
PUBLIC	?_Compat@?$_Vector_const_iterator@V?$_Vector_val@UAniEventInfo@@V?$allocator@UAniEventInfo@@@std@@@std@@@std@@QBEXABV12@@Z ; std::_Vector_const_iterator<std::_Vector_val<AniEventInfo,std::allocator<AniEventInfo> > >::_Compat
; Function compile flags: /Ogsp
;	COMDAT ?_Compat@?$_Vector_const_iterator@V?$_Vector_val@UAniEventInfo@@V?$allocator@UAniEventInfo@@@std@@@std@@@std@@QBEXABV12@@Z
_TEXT	SEGMENT
___formal$ = 8						; size = 4
?_Compat@?$_Vector_const_iterator@V?$_Vector_val@UAniEventInfo@@V?$allocator@UAniEventInfo@@@std@@@std@@@std@@QBEXABV12@@Z PROC ; std::_Vector_const_iterator<std::_Vector_val<AniEventInfo,std::allocator<AniEventInfo> > >::_Compat, COMDAT
; _this$ = ecx

; 253  : 		}

  00000	c2 04 00	 ret	 4
?_Compat@?$_Vector_const_iterator@V?$_Vector_val@UAniEventInfo@@V?$allocator@UAniEventInfo@@@std@@@std@@@std@@QBEXABV12@@Z ENDP ; std::_Vector_const_iterator<std::_Vector_val<AniEventInfo,std::allocator<AniEventInfo> > >::_Compat
_TEXT	ENDS
PUBLIC	??0?$_Vector_const_iterator@V?$_Vector_val@UtagAniSoundEventInfo@@V?$allocator@UtagAniSoundEventInfo@@@std@@@std@@@std@@QAE@PAUtagAniSoundEventInfo@@PBU_Container_base0@1@@Z ; std::_Vector_const_iterator<std::_Vector_val<tagAniSoundEventInfo,std::allocator<tagAniSoundEventInfo> > >::_Vector_const_iterator<std::_Vector_val<tagAniSoundEventInfo,std::allocator<tagAniSoundEventInfo> > >
; Function compile flags: /Ogsp
;	COMDAT ??0?$_Vector_const_iterator@V?$_Vector_val@UtagAniSoundEventInfo@@V?$allocator@UtagAniSoundEventInfo@@@std@@@std@@@std@@QAE@PAUtagAniSoundEventInfo@@PBU_Container_base0@1@@Z
_TEXT	SEGMENT
__Parg$ = 8						; size = 4
__Pvector$ = 12						; size = 4
??0?$_Vector_const_iterator@V?$_Vector_val@UtagAniSoundEventInfo@@V?$allocator@UtagAniSoundEventInfo@@@std@@@std@@@std@@QAE@PAUtagAniSoundEventInfo@@PBU_Container_base0@1@@Z PROC ; std::_Vector_const_iterator<std::_Vector_val<tagAniSoundEventInfo,std::allocator<tagAniSoundEventInfo> > >::_Vector_const_iterator<std::_Vector_val<tagAniSoundEventInfo,std::allocator<tagAniSoundEventInfo> > >, COMDAT
; _this$ = ecx

; 45   : 		{	// construct with pointer _Parg

  00000	55		 push	 ebp
  00001	8b ec		 mov	 ebp, esp
  00003	8b c1		 mov	 eax, ecx
  00005	8b 4d 08	 mov	 ecx, DWORD PTR __Parg$[ebp]
  00008	89 08		 mov	 DWORD PTR [eax], ecx

; 46   : 		this->_Adopt(_Pvector);
; 47   : 		}

  0000a	5d		 pop	 ebp
  0000b	c2 08 00	 ret	 8
??0?$_Vector_const_iterator@V?$_Vector_val@UtagAniSoundEventInfo@@V?$allocator@UtagAniSoundEventInfo@@@std@@@std@@@std@@QAE@PAUtagAniSoundEventInfo@@PBU_Container_base0@1@@Z ENDP ; std::_Vector_const_iterator<std::_Vector_val<tagAniSoundEventInfo,std::allocator<tagAniSoundEventInfo> > >::_Vector_const_iterator<std::_Vector_val<tagAniSoundEventInfo,std::allocator<tagAniSoundEventInfo> > >
_TEXT	ENDS
PUBLIC	?_Compat@?$_Vector_const_iterator@V?$_Vector_val@UtagAniSoundEventInfo@@V?$allocator@UtagAniSoundEventInfo@@@std@@@std@@@std@@QBEXABV12@@Z ; std::_Vector_const_iterator<std::_Vector_val<tagAniSoundEventInfo,std::allocator<tagAniSoundEventInfo> > >::_Compat
; Function compile flags: /Ogsp
;	COMDAT ?_Compat@?$_Vector_const_iterator@V?$_Vector_val@UtagAniSoundEventInfo@@V?$allocator@UtagAniSoundEventInfo@@@std@@@std@@@std@@QBEXABV12@@Z
_TEXT	SEGMENT
___formal$ = 8						; size = 4
?_Compat@?$_Vector_const_iterator@V?$_Vector_val@UtagAniSoundEventInfo@@V?$allocator@UtagAniSoundEventInfo@@@std@@@std@@@std@@QBEXABV12@@Z PROC ; std::_Vector_const_iterator<std::_Vector_val<tagAniSoundEventInfo,std::allocator<tagAniSoundEventInfo> > >::_Compat, COMDAT
; _this$ = ecx

; 253  : 		}

  00000	c2 04 00	 ret	 4
?_Compat@?$_Vector_const_iterator@V?$_Vector_val@UtagAniSoundEventInfo@@V?$allocator@UtagAniSoundEventInfo@@@std@@@std@@@std@@QBEXABV12@@Z ENDP ; std::_Vector_const_iterator<std::_Vector_val<tagAniSoundEventInfo,std::allocator<tagAniSoundEventInfo> > >::_Compat
_TEXT	ENDS
PUBLIC	?deallocate@?$allocator@U_Node@?$_List_nod@PBVioMeshControlPoint@@V?$allocator@PBVioMeshControlPoint@@@std@@@std@@@std@@QAEXPAU_Node@?$_List_nod@PBVioMeshControlPoint@@V?$allocator@PBVioMeshControlPoint@@@std@@@2@I@Z ; std::allocator<std::_List_nod<ioMeshControlPoint const *,std::allocator<ioMeshControlPoint const *> >::_Node>::deallocate
; Function compile flags: /Ogsp
; File c:\program files (x86)\microsoft visual studio 10.0\vc\include\xmemory
;	COMDAT ?deallocate@?$allocator@U_Node@?$_List_nod@PBVioMeshControlPoint@@V?$allocator@PBVioMeshControlPoint@@@std@@@std@@@std@@QAEXPAU_Node@?$_List_nod@PBVioMeshControlPoint@@V?$allocator@PBVioMeshControlPoint@@@std@@@2@I@Z
_TEXT	SEGMENT
__Ptr$ = 8						; size = 4
___formal$ = 12						; size = 4
?deallocate@?$allocator@U_Node@?$_List_nod@PBVioMeshControlPoint@@V?$allocator@PBVioMeshControlPoint@@@std@@@std@@@std@@QAEXPAU_Node@?$_List_nod@PBVioMeshControlPoint@@V?$allocator@PBVioMeshControlPoint@@@std@@@2@I@Z PROC ; std::allocator<std::_List_nod<ioMeshControlPoint const *,std::allocator<ioMeshControlPoint const *> >::_Node>::deallocate, COMDAT
; _this$ = ecx

; 181  : 		{	// deallocate object at _Ptr, ignore size

  00000	55		 push	 ebp
  00001	8b ec		 mov	 ebp, esp

; 182  : 		::operator delete(_Ptr);

  00003	ff 75 08	 push	 DWORD PTR __Ptr$[ebp]
  00006	e8 00 00 00 00	 call	 ??3@YAXPAX@Z		; operator delete
  0000b	59		 pop	 ecx

; 183  : 		}

  0000c	5d		 pop	 ebp
  0000d	c2 08 00	 ret	 8
?deallocate@?$allocator@U_Node@?$_List_nod@PBVioMeshControlPoint@@V?$allocator@PBVioMeshControlPoint@@@std@@@std@@@std@@QAEXPAU_Node@?$_List_nod@PBVioMeshControlPoint@@V?$allocator@PBVioMeshControlPoint@@@std@@@2@I@Z ENDP ; std::allocator<std::_List_nod<ioMeshControlPoint const *,std::allocator<ioMeshControlPoint const *> >::_Node>::deallocate
_TEXT	ENDS
PUBLIC	??0?$_Vector_const_iterator@V?$_Vector_val@V?$basic_string@DU?$char_traits@D@std@@V?$allocator@D@2@@std@@V?$allocator@V?$basic_string@DU?$char_traits@D@std@@V?$allocator@D@2@@std@@@2@@std@@@std@@QAE@PAV?$basic_string@DU?$char_traits@D@std@@V?$allocator@D@2@@1@PBU_Container_base0@1@@Z ; std::_Vector_const_iterator<std::_Vector_val<std::basic_string<char,std::char_traits<char>,std::allocator<char> >,std::allocator<std::basic_string<char,std::char_traits<char>,std::allocator<char> > > > >::_Vector_const_iterator<std::_Vector_val<std::basic_string<char,std::char_traits<char>,std::allocator<char> >,std::allocator<std::basic_string<char,std::char_traits<char>,std::allocator<char> > > > >
; Function compile flags: /Ogsp
; File c:\program files (x86)\microsoft visual studio 10.0\vc\include\vector
;	COMDAT ??0?$_Vector_const_iterator@V?$_Vector_val@V?$basic_string@DU?$char_traits@D@std@@V?$allocator@D@2@@std@@V?$allocator@V?$basic_string@DU?$char_traits@D@std@@V?$allocator@D@2@@std@@@2@@std@@@std@@QAE@PAV?$basic_string@DU?$char_traits@D@std@@V?$allocator@D@2@@1@PBU_Container_base0@1@@Z
_TEXT	SEGMENT
__Parg$ = 8						; size = 4
__Pvector$ = 12						; size = 4
??0?$_Vector_const_iterator@V?$_Vector_val@V?$basic_string@DU?$char_traits@D@std@@V?$allocator@D@2@@std@@V?$allocator@V?$basic_string@DU?$char_traits@D@std@@V?$allocator@D@2@@std@@@2@@std@@@std@@QAE@PAV?$basic_string@DU?$char_traits@D@std@@V?$allocator@D@2@@1@PBU_Container_base0@1@@Z PROC ; std::_Vector_const_iterator<std::_Vector_val<std::basic_string<char,std::char_traits<char>,std::allocator<char> >,std::allocator<std::basic_string<char,std::char_traits<char>,std::allocator<char> > > > >::_Vector_const_iterator<std::_Vector_val<std::basic_string<char,std::char_traits<char>,std::allocator<char> >,std::allocator<std::basic_string<char,std::char_traits<char>,std::allocator<char> > > > >, COMDAT
; _this$ = ecx

; 45   : 		{	// construct with pointer _Parg

  00000	55		 push	 ebp
  00001	8b ec		 mov	 ebp, esp
  00003	8b c1		 mov	 eax, ecx
  00005	8b 4d 08	 mov	 ecx, DWORD PTR __Parg$[ebp]
  00008	89 08		 mov	 DWORD PTR [eax], ecx

; 46   : 		this->_Adopt(_Pvector);
; 47   : 		}

  0000a	5d		 pop	 ebp
  0000b	c2 08 00	 ret	 8
??0?$_Vector_const_iterator@V?$_Vector_val@V?$basic_string@DU?$char_traits@D@std@@V?$allocator@D@2@@std@@V?$allocator@V?$basic_string@DU?$char_traits@D@std@@V?$allocator@D@2@@std@@@2@@std@@@std@@QAE@PAV?$basic_string@DU?$char_traits@D@std@@V?$allocator@D@2@@1@PBU_Container_base0@1@@Z ENDP ; std::_Vector_const_iterator<std::_Vector_val<std::basic_string<char,std::char_traits<char>,std::allocator<char> >,std::allocator<std::basic_string<char,std::char_traits<char>,std::allocator<char> > > > >::_Vector_const_iterator<std::_Vector_val<std::basic_string<char,std::char_traits<char>,std::allocator<char> >,std::allocator<std::basic_string<char,std::char_traits<char>,std::allocator<char> > > > >
_TEXT	ENDS
PUBLIC	?max_size@?$allocator@V?$basic_string@DU?$char_traits@D@std@@V?$allocator@D@2@@std@@@std@@QBEIXZ ; std::allocator<std::basic_string<char,std::char_traits<char>,std::allocator<char> > >::max_size
; Function compile flags: /Ogsp
; File c:\program files (x86)\microsoft visual studio 10.0\vc\include\xmemory
;	COMDAT ?max_size@?$allocator@V?$basic_string@DU?$char_traits@D@std@@V?$allocator@D@2@@std@@@std@@QBEIXZ
_TEXT	SEGMENT
?max_size@?$allocator@V?$basic_string@DU?$char_traits@D@std@@V?$allocator@D@2@@std@@@std@@QBEIXZ PROC ; std::allocator<std::basic_string<char,std::char_traits<char>,std::allocator<char> > >::max_size, COMDAT
; _this$ = ecx

; 218  : 		_SIZT _Count = (_SIZT)(-1) / sizeof (_Ty);
; 219  : 		return (0 < _Count ? _Count : 1);

  00000	b8 49 92 24 09	 mov	 eax, 153391689		; 09249249H

; 220  : 		}

  00005	c3		 ret	 0
?max_size@?$allocator@V?$basic_string@DU?$char_traits@D@std@@V?$allocator@D@2@@std@@@std@@QBEIXZ ENDP ; std::allocator<std::basic_string<char,std::char_traits<char>,std::allocator<char> > >::max_size
_TEXT	ENDS
PUBLIC	?max_size@?$allocator@UAniEventInfo@@@std@@QBEIXZ ; std::allocator<AniEventInfo>::max_size
; Function compile flags: /Ogsp
;	COMDAT ?max_size@?$allocator@UAniEventInfo@@@std@@QBEIXZ
_TEXT	SEGMENT
?max_size@?$allocator@UAniEventInfo@@@std@@QBEIXZ PROC	; std::allocator<AniEventInfo>::max_size, COMDAT
; _this$ = ecx

; 218  : 		_SIZT _Count = (_SIZT)(-1) / sizeof (_Ty);
; 219  : 		return (0 < _Count ? _Count : 1);

  00000	b8 ff ff ff 07	 mov	 eax, 134217727		; 07ffffffH

; 220  : 		}

  00005	c3		 ret	 0
?max_size@?$allocator@UAniEventInfo@@@std@@QBEIXZ ENDP	; std::allocator<AniEventInfo>::max_size
_TEXT	ENDS
PUBLIC	?max_size@?$allocator@UtagAniSoundEventInfo@@@std@@QBEIXZ ; std::allocator<tagAniSoundEventInfo>::max_size
; Function compile flags: /Ogsp
;	COMDAT ?max_size@?$allocator@UtagAniSoundEventInfo@@@std@@QBEIXZ
_TEXT	SEGMENT
?max_size@?$allocator@UtagAniSoundEventInfo@@@std@@QBEIXZ PROC ; std::allocator<tagAniSoundEventInfo>::max_size, COMDAT
; _this$ = ecx

; 218  : 		_SIZT _Count = (_SIZT)(-1) / sizeof (_Ty);
; 219  : 		return (0 < _Count ? _Count : 1);

  00000	b8 c7 71 1c 07	 mov	 eax, 119304647		; 071c71c7H

; 220  : 		}

  00005	c3		 ret	 0
?max_size@?$allocator@UtagAniSoundEventInfo@@@std@@QBEIXZ ENDP ; std::allocator<tagAniSoundEventInfo>::max_size
_TEXT	ENDS
PUBLIC	?_Prevnode@?$_List_val@PBVioMeshControlPoint@@V?$allocator@PBVioMeshControlPoint@@@std@@@std@@SAAAPAU_Node@?$_List_nod@PBVioMeshControlPoint@@V?$allocator@PBVioMeshControlPoint@@@std@@@2@PAU342@@Z ; std::_List_val<ioMeshControlPoint const *,std::allocator<ioMeshControlPoint const *> >::_Prevnode
; Function compile flags: /Ogsp
; File c:\program files (x86)\microsoft visual studio 10.0\vc\include\list
;	COMDAT ?_Prevnode@?$_List_val@PBVioMeshControlPoint@@V?$allocator@PBVioMeshControlPoint@@@std@@@std@@SAAAPAU_Node@?$_List_nod@PBVioMeshControlPoint@@V?$allocator@PBVioMeshControlPoint@@@std@@@2@PAU342@@Z
_TEXT	SEGMENT
__Pnode$ = 8						; size = 4
?_Prevnode@?$_List_val@PBVioMeshControlPoint@@V?$allocator@PBVioMeshControlPoint@@@std@@@std@@SAAAPAU_Node@?$_List_nod@PBVioMeshControlPoint@@V?$allocator@PBVioMeshControlPoint@@@std@@@2@PAU342@@Z PROC ; std::_List_val<ioMeshControlPoint const *,std::allocator<ioMeshControlPoint const *> >::_Prevnode, COMDAT

; 565  : 		{	// return reference to predecessor pointer in node

  00000	55		 push	 ebp
  00001	8b ec		 mov	 ebp, esp

; 566  : 		return ((_Nodepref)(*_Pnode)._Prev);

  00003	8b 45 08	 mov	 eax, DWORD PTR __Pnode$[ebp]
  00006	83 c0 04	 add	 eax, 4

; 567  : 		}

  00009	5d		 pop	 ebp
  0000a	c3		 ret	 0
?_Prevnode@?$_List_val@PBVioMeshControlPoint@@V?$allocator@PBVioMeshControlPoint@@@std@@@std@@SAAAPAU_Node@?$_List_nod@PBVioMeshControlPoint@@V?$allocator@PBVioMeshControlPoint@@@std@@@2@PAU342@@Z ENDP ; std::_List_val<ioMeshControlPoint const *,std::allocator<ioMeshControlPoint const *> >::_Prevnode
_TEXT	ENDS
PUBLIC	??0?$_List_unchecked_const_iterator@V?$_List_val@PBVioMeshControlPoint@@V?$allocator@PBVioMeshControlPoint@@@std@@@std@@U_Iterator_base0@2@@std@@QAE@PAU_Node@?$_List_nod@PBVioMeshControlPoint@@V?$allocator@PBVioMeshControlPoint@@@std@@@1@PBV?$_List_val@PBVioMeshControlPoint@@V?$allocator@PBVioMeshControlPoint@@@std@@@1@@Z ; std::_List_unchecked_const_iterator<std::_List_val<ioMeshControlPoint const *,std::allocator<ioMeshControlPoint const *> >,std::_Iterator_base0>::_List_unchecked_const_iterator<std::_List_val<ioMeshControlPoint const *,std::allocator<ioMeshControlPoint const *> >,std::_Iterator_base0>
; Function compile flags: /Ogsp
;	COMDAT ??0?$_List_unchecked_const_iterator@V?$_List_val@PBVioMeshControlPoint@@V?$allocator@PBVioMeshControlPoint@@@std@@@std@@U_Iterator_base0@2@@std@@QAE@PAU_Node@?$_List_nod@PBVioMeshControlPoint@@V?$allocator@PBVioMeshControlPoint@@@std@@@1@PBV?$_List_val@PBVioMeshControlPoint@@V?$allocator@PBVioMeshControlPoint@@@std@@@1@@Z
_TEXT	SEGMENT
__Pnode$ = 8						; size = 4
__Plist$ = 12						; size = 4
??0?$_List_unchecked_const_iterator@V?$_List_val@PBVioMeshControlPoint@@V?$allocator@PBVioMeshControlPoint@@@std@@@std@@U_Iterator_base0@2@@std@@QAE@PAU_Node@?$_List_nod@PBVioMeshControlPoint@@V?$allocator@PBVioMeshControlPoint@@@std@@@1@PBV?$_List_val@PBVioMeshControlPoint@@V?$allocator@PBVioMeshControlPoint@@@std@@@1@@Z PROC ; std::_List_unchecked_const_iterator<std::_List_val<ioMeshControlPoint const *,std::allocator<ioMeshControlPoint const *> >,std::_Iterator_base0>::_List_unchecked_const_iterator<std::_List_val<ioMeshControlPoint const *,std::allocator<ioMeshControlPoint const *> >,std::_Iterator_base0>, COMDAT
; _this$ = ecx

; 41   : 		{	// construct with node pointer _Pnode

  00000	55		 push	 ebp
  00001	8b ec		 mov	 ebp, esp
  00003	8b c1		 mov	 eax, ecx
  00005	8b 4d 08	 mov	 ecx, DWORD PTR __Pnode$[ebp]
  00008	89 08		 mov	 DWORD PTR [eax], ecx

; 42   : 		this->_Adopt(_Plist);
; 43   : 		}

  0000a	5d		 pop	 ebp
  0000b	c2 08 00	 ret	 8
??0?$_List_unchecked_const_iterator@V?$_List_val@PBVioMeshControlPoint@@V?$allocator@PBVioMeshControlPoint@@@std@@@std@@U_Iterator_base0@2@@std@@QAE@PAU_Node@?$_List_nod@PBVioMeshControlPoint@@V?$allocator@PBVioMeshControlPoint@@@std@@@1@PBV?$_List_val@PBVioMeshControlPoint@@V?$allocator@PBVioMeshControlPoint@@@std@@@1@@Z ENDP ; std::_List_unchecked_const_iterator<std::_List_val<ioMeshControlPoint const *,std::allocator<ioMeshControlPoint const *> >,std::_Iterator_base0>::_List_unchecked_const_iterator<std::_List_val<ioMeshControlPoint const *,std::allocator<ioMeshControlPoint const *> >,std::_Iterator_base0>
_TEXT	ENDS
PUBLIC	??$addressof@$$CBUAniEventInfo@@@std@@YAPBUAniEventInfo@@ABU1@@Z ; std::addressof<AniEventInfo const >
; Function compile flags: /Ogsp
; File c:\program files (x86)\microsoft visual studio 10.0\vc\include\xmemory
;	COMDAT ??$addressof@$$CBUAniEventInfo@@@std@@YAPBUAniEventInfo@@ABU1@@Z
_TEXT	SEGMENT
__Val$ = 8						; size = 4
??$addressof@$$CBUAniEventInfo@@@std@@YAPBUAniEventInfo@@ABU1@@Z PROC ; std::addressof<AniEventInfo const >, COMDAT

; 110  : 	{	// return address of _Val

  00000	55		 push	 ebp
  00001	8b ec		 mov	 ebp, esp

; 111  : 	return ((_Ty *) &(char&)_Val);

  00003	8b 45 08	 mov	 eax, DWORD PTR __Val$[ebp]

; 112  : 	}

  00006	5d		 pop	 ebp
  00007	c3		 ret	 0
??$addressof@$$CBUAniEventInfo@@@std@@YAPBUAniEventInfo@@ABU1@@Z ENDP ; std::addressof<AniEventInfo const >
_TEXT	ENDS
PUBLIC	??$addressof@$$CBUtagAniSoundEventInfo@@@std@@YAPBUtagAniSoundEventInfo@@ABU1@@Z ; std::addressof<tagAniSoundEventInfo const >
; Function compile flags: /Ogsp
;	COMDAT ??$addressof@$$CBUtagAniSoundEventInfo@@@std@@YAPBUtagAniSoundEventInfo@@ABU1@@Z
_TEXT	SEGMENT
__Val$ = 8						; size = 4
??$addressof@$$CBUtagAniSoundEventInfo@@@std@@YAPBUtagAniSoundEventInfo@@ABU1@@Z PROC ; std::addressof<tagAniSoundEventInfo const >, COMDAT

; 110  : 	{	// return address of _Val

  00000	55		 push	 ebp
  00001	8b ec		 mov	 ebp, esp

; 111  : 	return ((_Ty *) &(char&)_Val);

  00003	8b 45 08	 mov	 eax, DWORD PTR __Val$[ebp]

; 112  : 	}

  00006	5d		 pop	 ebp
  00007	c3		 ret	 0
??$addressof@$$CBUtagAniSoundEventInfo@@@std@@YAPBUtagAniSoundEventInfo@@ABU1@@Z ENDP ; std::addressof<tagAniSoundEventInfo const >
_TEXT	ENDS
PUBLIC	__TI2?AVbad_alloc@std@@
PUBLIC	??$_Allocate@V?$basic_string@DU?$char_traits@D@std@@V?$allocator@D@2@@std@@@std@@YAPAV?$basic_string@DU?$char_traits@D@std@@V?$allocator@D@2@@0@IPAV10@@Z ; std::_Allocate<std::basic_string<char,std::char_traits<char>,std::allocator<char> > >
PUBLIC	__CTA2?AVbad_alloc@std@@
PUBLIC	__CT??_R0?AVbad_alloc@std@@@8??0bad_alloc@std@@QAE@ABV01@@Z12
PUBLIC	??0bad_alloc@std@@QAE@ABV01@@Z			; std::bad_alloc::bad_alloc
PUBLIC	__CT??_R0?AVexception@std@@@8??0exception@std@@QAE@ABV01@@Z12
EXTRN	??2@YAPAXI@Z:PROC				; operator new
EXTRN	__CxxThrowException@8:PROC
EXTRN	??0exception@std@@QAE@ABV01@@Z:PROC		; std::exception::exception
;	COMDAT __CT??_R0?AVexception@std@@@8??0exception@std@@QAE@ABV01@@Z12
; File c:\program files (x86)\microsoft visual studio 10.0\vc\include\exception
xdata$x	SEGMENT
__CT??_R0?AVexception@std@@@8??0exception@std@@QAE@ABV01@@Z12 DD 00H
	DD	FLAT:??_R0?AVexception@std@@@8
	DD	00H
	DD	0ffffffffH
	ORG $+4
	DD	0cH
	DD	FLAT:??0exception@std@@QAE@ABV01@@Z
xdata$x	ENDS
;	COMDAT __CT??_R0?AVbad_alloc@std@@@8??0bad_alloc@std@@QAE@ABV01@@Z12
xdata$x	SEGMENT
__CT??_R0?AVbad_alloc@std@@@8??0bad_alloc@std@@QAE@ABV01@@Z12 DD 00H
	DD	FLAT:??_R0?AVbad_alloc@std@@@8
	DD	00H
	DD	0ffffffffH
	ORG $+4
	DD	0cH
	DD	FLAT:??0bad_alloc@std@@QAE@ABV01@@Z
xdata$x	ENDS
;	COMDAT __CTA2?AVbad_alloc@std@@
xdata$x	SEGMENT
__CTA2?AVbad_alloc@std@@ DD 02H
	DD	FLAT:__CT??_R0?AVbad_alloc@std@@@8??0bad_alloc@std@@QAE@ABV01@@Z12
	DD	FLAT:__CT??_R0?AVexception@std@@@8??0exception@std@@QAE@ABV01@@Z12
xdata$x	ENDS
;	COMDAT __TI2?AVbad_alloc@std@@
xdata$x	SEGMENT
__TI2?AVbad_alloc@std@@ DD 00H
	DD	FLAT:??1bad_alloc@std@@UAE@XZ
	DD	00H
	DD	FLAT:__CTA2?AVbad_alloc@std@@
; Function compile flags: /Ogsp
; File c:\program files (x86)\microsoft visual studio 10.0\vc\include\xmemory
xdata$x	ENDS
;	COMDAT ??$_Allocate@V?$basic_string@DU?$char_traits@D@std@@V?$allocator@D@2@@std@@@std@@YAPAV?$basic_string@DU?$char_traits@D@std@@V?$allocator@D@2@@0@IPAV10@@Z
_TEXT	SEGMENT
$T531715 = -12						; size = 12
$T531720 = 8						; size = 4
__Count$ = 8						; size = 4
___formal$ = 12						; size = 4
??$_Allocate@V?$basic_string@DU?$char_traits@D@std@@V?$allocator@D@2@@std@@@std@@YAPAV?$basic_string@DU?$char_traits@D@std@@V?$allocator@D@2@@0@IPAV10@@Z PROC ; std::_Allocate<std::basic_string<char,std::char_traits<char>,std::allocator<char> > >, COMDAT

; 30   : 	{	// allocate storage for _Count elements of type _Ty

  00000	55		 push	 ebp
  00001	8b ec		 mov	 ebp, esp

; 31   : 	void *_Ptr = 0;
; 32   : 
; 33   : 	if (_Count <= 0)

  00003	8b 4d 08	 mov	 ecx, DWORD PTR __Count$[ebp]
  00006	83 ec 0c	 sub	 esp, 12			; 0000000cH
  00009	33 c0		 xor	 eax, eax
  0000b	85 c9		 test	 ecx, ecx

; 34   : 		_Count = 0;
; 35   : 	else if (((_SIZT)(-1) / sizeof (_Ty) < _Count)

  0000d	74 3c		 je	 SHORT $LN5@Allocate

; 36   : 		|| (_Ptr = ::operator new(_Count * sizeof (_Ty))) == 0)

  0000f	81 f9 49 92 24
	09		 cmp	 ecx, 153391689		; 09249249H
  00015	77 0e		 ja	 SHORT $LN1@Allocate
  00017	6b c9 1c	 imul	 ecx, 28			; 0000001cH
  0001a	51		 push	 ecx
  0001b	e8 00 00 00 00	 call	 ??2@YAPAXI@Z		; operator new
  00020	59		 pop	 ecx
  00021	85 c0		 test	 eax, eax

; 38   : 
; 39   : 	return ((_Ty _FARQ *)_Ptr);

  00023	75 26		 jne	 SHORT $LN5@Allocate
$LN1@Allocate:

; 37   : 		_THROW_NCEE(bad_alloc, 0);

  00025	83 65 08 00	 and	 DWORD PTR $T531720[ebp], 0
  00029	8d 45 08	 lea	 eax, DWORD PTR $T531720[ebp]
  0002c	50		 push	 eax
  0002d	8d 4d f4	 lea	 ecx, DWORD PTR $T531715[ebp]
  00030	ff 15 00 00 00
	00		 call	 DWORD PTR __imp_??0exception@std@@QAE@ABQBD@Z
  00036	68 00 00 00 00	 push	 OFFSET __TI2?AVbad_alloc@std@@
  0003b	8d 45 f4	 lea	 eax, DWORD PTR $T531715[ebp]
  0003e	50		 push	 eax
  0003f	c7 45 f4 00 00
	00 00		 mov	 DWORD PTR $T531715[ebp], OFFSET ??_7bad_alloc@std@@6B@
  00046	e8 00 00 00 00	 call	 __CxxThrowException@8
$LN10@Allocate:
$LN5@Allocate:

; 40   : 	}

  0004b	c9		 leave
  0004c	c3		 ret	 0
$LN9@Allocate:
??$_Allocate@V?$basic_string@DU?$char_traits@D@std@@V?$allocator@D@2@@std@@@std@@YAPAV?$basic_string@DU?$char_traits@D@std@@V?$allocator@D@2@@0@IPAV10@@Z ENDP ; std::_Allocate<std::basic_string<char,std::char_traits<char>,std::allocator<char> > >
_TEXT	ENDS
PUBLIC	??$_Allocate@UAniEventInfo@@@std@@YAPAUAniEventInfo@@IPAU1@@Z ; std::_Allocate<AniEventInfo>
; Function compile flags: /Ogsp
;	COMDAT ??$_Allocate@UAniEventInfo@@@std@@YAPAUAniEventInfo@@IPAU1@@Z
_TEXT	SEGMENT
$T531725 = -12						; size = 12
$T531729 = 8						; size = 4
__Count$ = 8						; size = 4
___formal$ = 12						; size = 4
??$_Allocate@UAniEventInfo@@@std@@YAPAUAniEventInfo@@IPAU1@@Z PROC ; std::_Allocate<AniEventInfo>, COMDAT

; 30   : 	{	// allocate storage for _Count elements of type _Ty

  00000	55		 push	 ebp
  00001	8b ec		 mov	 ebp, esp

; 31   : 	void *_Ptr = 0;
; 32   : 
; 33   : 	if (_Count <= 0)

  00003	8b 4d 08	 mov	 ecx, DWORD PTR __Count$[ebp]
  00006	83 ec 0c	 sub	 esp, 12			; 0000000cH
  00009	33 c0		 xor	 eax, eax
  0000b	85 c9		 test	 ecx, ecx

; 34   : 		_Count = 0;
; 35   : 	else if (((_SIZT)(-1) / sizeof (_Ty) < _Count)

  0000d	74 3c		 je	 SHORT $LN5@Allocate@2

; 36   : 		|| (_Ptr = ::operator new(_Count * sizeof (_Ty))) == 0)

  0000f	81 f9 ff ff ff
	07		 cmp	 ecx, 134217727		; 07ffffffH
  00015	77 0e		 ja	 SHORT $LN1@Allocate@2
  00017	c1 e1 05	 shl	 ecx, 5
  0001a	51		 push	 ecx
  0001b	e8 00 00 00 00	 call	 ??2@YAPAXI@Z		; operator new
  00020	59		 pop	 ecx
  00021	85 c0		 test	 eax, eax

; 38   : 
; 39   : 	return ((_Ty _FARQ *)_Ptr);

  00023	75 26		 jne	 SHORT $LN5@Allocate@2
$LN1@Allocate@2:

; 37   : 		_THROW_NCEE(bad_alloc, 0);

  00025	83 65 08 00	 and	 DWORD PTR $T531729[ebp], 0
  00029	8d 45 08	 lea	 eax, DWORD PTR $T531729[ebp]
  0002c	50		 push	 eax
  0002d	8d 4d f4	 lea	 ecx, DWORD PTR $T531725[ebp]
  00030	ff 15 00 00 00
	00		 call	 DWORD PTR __imp_??0exception@std@@QAE@ABQBD@Z
  00036	68 00 00 00 00	 push	 OFFSET __TI2?AVbad_alloc@std@@
  0003b	8d 45 f4	 lea	 eax, DWORD PTR $T531725[ebp]
  0003e	50		 push	 eax
  0003f	c7 45 f4 00 00
	00 00		 mov	 DWORD PTR $T531725[ebp], OFFSET ??_7bad_alloc@std@@6B@
  00046	e8 00 00 00 00	 call	 __CxxThrowException@8
$LN10@Allocate@2:
$LN5@Allocate@2:

; 40   : 	}

  0004b	c9		 leave
  0004c	c3		 ret	 0
$LN9@Allocate@2:
??$_Allocate@UAniEventInfo@@@std@@YAPAUAniEventInfo@@IPAU1@@Z ENDP ; std::_Allocate<AniEventInfo>
_TEXT	ENDS
PUBLIC	??$_Allocate@UtagAniSoundEventInfo@@@std@@YAPAUtagAniSoundEventInfo@@IPAU1@@Z ; std::_Allocate<tagAniSoundEventInfo>
; Function compile flags: /Ogsp
;	COMDAT ??$_Allocate@UtagAniSoundEventInfo@@@std@@YAPAUtagAniSoundEventInfo@@IPAU1@@Z
_TEXT	SEGMENT
$T531734 = -12						; size = 12
$T531738 = 8						; size = 4
__Count$ = 8						; size = 4
___formal$ = 12						; size = 4
??$_Allocate@UtagAniSoundEventInfo@@@std@@YAPAUtagAniSoundEventInfo@@IPAU1@@Z PROC ; std::_Allocate<tagAniSoundEventInfo>, COMDAT

; 30   : 	{	// allocate storage for _Count elements of type _Ty

  00000	55		 push	 ebp
  00001	8b ec		 mov	 ebp, esp

; 31   : 	void *_Ptr = 0;
; 32   : 
; 33   : 	if (_Count <= 0)

  00003	8b 4d 08	 mov	 ecx, DWORD PTR __Count$[ebp]
  00006	83 ec 0c	 sub	 esp, 12			; 0000000cH
  00009	33 c0		 xor	 eax, eax
  0000b	85 c9		 test	 ecx, ecx

; 34   : 		_Count = 0;
; 35   : 	else if (((_SIZT)(-1) / sizeof (_Ty) < _Count)

  0000d	74 3c		 je	 SHORT $LN5@Allocate@3

; 36   : 		|| (_Ptr = ::operator new(_Count * sizeof (_Ty))) == 0)

  0000f	81 f9 c7 71 1c
	07		 cmp	 ecx, 119304647		; 071c71c7H
  00015	77 0e		 ja	 SHORT $LN1@Allocate@3
  00017	6b c9 24	 imul	 ecx, 36			; 00000024H
  0001a	51		 push	 ecx
  0001b	e8 00 00 00 00	 call	 ??2@YAPAXI@Z		; operator new
  00020	59		 pop	 ecx
  00021	85 c0		 test	 eax, eax

; 38   : 
; 39   : 	return ((_Ty _FARQ *)_Ptr);

  00023	75 26		 jne	 SHORT $LN5@Allocate@3
$LN1@Allocate@3:

; 37   : 		_THROW_NCEE(bad_alloc, 0);

  00025	83 65 08 00	 and	 DWORD PTR $T531738[ebp], 0
  00029	8d 45 08	 lea	 eax, DWORD PTR $T531738[ebp]
  0002c	50		 push	 eax
  0002d	8d 4d f4	 lea	 ecx, DWORD PTR $T531734[ebp]
  00030	ff 15 00 00 00
	00		 call	 DWORD PTR __imp_??0exception@std@@QAE@ABQBD@Z
  00036	68 00 00 00 00	 push	 OFFSET __TI2?AVbad_alloc@std@@
  0003b	8d 45 f4	 lea	 eax, DWORD PTR $T531734[ebp]
  0003e	50		 push	 eax
  0003f	c7 45 f4 00 00
	00 00		 mov	 DWORD PTR $T531734[ebp], OFFSET ??_7bad_alloc@std@@6B@
  00046	e8 00 00 00 00	 call	 __CxxThrowException@8
$LN10@Allocate@3:
$LN5@Allocate@3:

; 40   : 	}

  0004b	c9		 leave
  0004c	c3		 ret	 0
$LN9@Allocate@3:
??$_Allocate@UtagAniSoundEventInfo@@@std@@YAPAUtagAniSoundEventInfo@@IPAU1@@Z ENDP ; std::_Allocate<tagAniSoundEventInfo>
_TEXT	ENDS
PUBLIC	??$forward@AAUAniEventInfo@@@std@@YAAAUAniEventInfo@@AAU1@@Z ; std::forward<AniEventInfo &>
; Function compile flags: /Ogsp
; File c:\program files (x86)\microsoft visual studio 10.0\vc\include\utility
;	COMDAT ??$forward@AAUAniEventInfo@@@std@@YAAAUAniEventInfo@@AAU1@@Z
_TEXT	SEGMENT
__Arg$ = 8						; size = 4
??$forward@AAUAniEventInfo@@@std@@YAAAUAniEventInfo@@AAU1@@Z PROC ; std::forward<AniEventInfo &>, COMDAT

; 78   : 	{	// forward _Arg, given explicitly specified type parameter

  00000	55		 push	 ebp
  00001	8b ec		 mov	 ebp, esp

; 79   : 	return ((_Ty&&)_Arg);

  00003	8b 45 08	 mov	 eax, DWORD PTR __Arg$[ebp]

; 80   : 	}

  00006	5d		 pop	 ebp
  00007	c3		 ret	 0
??$forward@AAUAniEventInfo@@@std@@YAAAUAniEventInfo@@AAU1@@Z ENDP ; std::forward<AniEventInfo &>
_TEXT	ENDS
PUBLIC	??$construct@AAUAniEventInfo@@@?$allocator@UAniEventInfo@@@std@@QAEXPAUAniEventInfo@@AAU2@@Z ; std::allocator<AniEventInfo>::construct<AniEventInfo &>
;	COMDAT xdata$x
xdata$x	SEGMENT
__unwindtable$??$construct@AAUAniEventInfo@@@?$allocator@UAniEventInfo@@@std@@QAEXPAUAniEventInfo@@AAU2@@Z DD 0ffffffffH
	DD	FLAT:__unwindfunclet$??$construct@AAUAniEventInfo@@@?$allocator@UAniEventInfo@@@std@@QAEXPAUAniEventInfo@@AAU2@@Z$0
__ehfuncinfo$??$construct@AAUAniEventInfo@@@?$allocator@UAniEventInfo@@@std@@QAEXPAUAniEventInfo@@AAU2@@Z DD 019930522H
	DD	01H
	DD	FLAT:__unwindtable$??$construct@AAUAniEventInfo@@@?$allocator@UAniEventInfo@@@std@@QAEXPAUAniEventInfo@@AAU2@@Z
	DD	2 DUP(00H)
	DD	2 DUP(00H)
	DD	00H
	DD	01H
; Function compile flags: /Ogsp
; File c:\program files (x86)\microsoft visual studio 10.0\vc\include\xmemory
xdata$x	ENDS
;	COMDAT ??$construct@AAUAniEventInfo@@@?$allocator@UAniEventInfo@@@std@@QAEXPAUAniEventInfo@@AAU2@@Z
_TEXT	SEGMENT
$T531746 = -16						; size = 4
__$EHRec$ = -12						; size = 12
__Ptr$ = 8						; size = 4
__Val$ = 12						; size = 4
??$construct@AAUAniEventInfo@@@?$allocator@UAniEventInfo@@@std@@QAEXPAUAniEventInfo@@AAU2@@Z PROC ; std::allocator<AniEventInfo>::construct<AniEventInfo &>, COMDAT
; _this$ = ecx

; 206  : 		void construct(pointer _Ptr, _Other&& _Val)

  00000	6a 04		 push	 4
  00002	b8 00 00 00 00	 mov	 eax, __ehhandler$??$construct@AAUAniEventInfo@@@?$allocator@UAniEventInfo@@@std@@QAEXPAUAniEventInfo@@AAU2@@Z
  00007	e8 00 00 00 00	 call	 __EH_prolog3

; 207  : 		{	// construct object at _Ptr with value _Val
; 208  : 		::new ((void _FARQ *)_Ptr) _Ty(_STD forward<_Other>(_Val));

  0000c	8b 4d 08	 mov	 ecx, DWORD PTR __Ptr$[ebp]
  0000f	89 4d f0	 mov	 DWORD PTR $T531746[ebp], ecx
  00012	83 65 fc 00	 and	 DWORD PTR __$EHRec$[ebp+8], 0
  00016	85 c9		 test	 ecx, ecx
  00018	74 08		 je	 SHORT $LN3@construct
  0001a	ff 75 0c	 push	 DWORD PTR __Val$[ebp]
  0001d	e8 00 00 00 00	 call	 ??0AniEventInfo@@QAE@ABU0@@Z
$LN3@construct:

; 209  : 		}

  00022	e8 00 00 00 00	 call	 __EH_epilog3
  00027	c2 08 00	 ret	 8
_TEXT	ENDS
;	COMDAT text$x
text$x	SEGMENT
__unwindfunclet$??$construct@AAUAniEventInfo@@@?$allocator@UAniEventInfo@@@std@@QAEXPAUAniEventInfo@@AAU2@@Z$0:
  00000	ff 75 08	 push	 DWORD PTR __Ptr$[ebp]
  00003	ff 75 f0	 push	 DWORD PTR $T531746[ebp]
  00006	e8 00 00 00 00	 call	 ??3@YAXPAX0@Z		; operator delete
  0000b	59		 pop	 ecx
  0000c	59		 pop	 ecx
  0000d	c3		 ret	 0
__ehhandler$??$construct@AAUAniEventInfo@@@?$allocator@UAniEventInfo@@@std@@QAEXPAUAniEventInfo@@AAU2@@Z:
  0000e	8b 54 24 08	 mov	 edx, DWORD PTR [esp+8]
  00012	8d 42 0c	 lea	 eax, DWORD PTR [edx+12]
  00015	8b 4a ec	 mov	 ecx, DWORD PTR [edx-20]
  00018	33 c8		 xor	 ecx, eax
  0001a	e8 00 00 00 00	 call	 @__security_check_cookie@4
  0001f	b8 00 00 00 00	 mov	 eax, OFFSET __ehfuncinfo$??$construct@AAUAniEventInfo@@@?$allocator@UAniEventInfo@@@std@@QAEXPAUAniEventInfo@@AAU2@@Z
  00024	e9 00 00 00 00	 jmp	 ___CxxFrameHandler3
text$x	ENDS
??$construct@AAUAniEventInfo@@@?$allocator@UAniEventInfo@@@std@@QAEXPAUAniEventInfo@@AAU2@@Z ENDP ; std::allocator<AniEventInfo>::construct<AniEventInfo &>
PUBLIC	??$forward@ABUAniEventInfo@@@std@@YAABUAniEventInfo@@ABU1@@Z ; std::forward<AniEventInfo const &>
; Function compile flags: /Ogsp
; File c:\program files (x86)\microsoft visual studio 10.0\vc\include\utility
;	COMDAT ??$forward@ABUAniEventInfo@@@std@@YAABUAniEventInfo@@ABU1@@Z
_TEXT	SEGMENT
__Arg$ = 8						; size = 4
??$forward@ABUAniEventInfo@@@std@@YAABUAniEventInfo@@ABU1@@Z PROC ; std::forward<AniEventInfo const &>, COMDAT

; 78   : 	{	// forward _Arg, given explicitly specified type parameter

  00000	55		 push	 ebp
  00001	8b ec		 mov	 ebp, esp

; 79   : 	return ((_Ty&&)_Arg);

  00003	8b 45 08	 mov	 eax, DWORD PTR __Arg$[ebp]

; 80   : 	}

  00006	5d		 pop	 ebp
  00007	c3		 ret	 0
??$forward@ABUAniEventInfo@@@std@@YAABUAniEventInfo@@ABU1@@Z ENDP ; std::forward<AniEventInfo const &>
_TEXT	ENDS
PUBLIC	??$_Ptr_cat@UAniEventInfo@@U1@@std@@YA?AU_Nonscalar_ptr_iterator_tag@0@PAUAniEventInfo@@0@Z ; std::_Ptr_cat<AniEventInfo,AniEventInfo>
; Function compile flags: /Ogsp
; File c:\program files (x86)\microsoft visual studio 10.0\vc\include\xutility
;	COMDAT ??$_Ptr_cat@UAniEventInfo@@U1@@std@@YA?AU_Nonscalar_ptr_iterator_tag@0@PAUAniEventInfo@@0@Z
_TEXT	SEGMENT
__Cat$ = -1						; size = 1
___formal$ = 8						; size = 4
___formal$ = 12						; size = 4
??$_Ptr_cat@UAniEventInfo@@U1@@std@@YA?AU_Nonscalar_ptr_iterator_tag@0@PAUAniEventInfo@@0@Z PROC ; std::_Ptr_cat<AniEventInfo,AniEventInfo>, COMDAT

; 516  : 	{	// return pointer category from pointers

  00000	55		 push	 ebp
  00001	8b ec		 mov	 ebp, esp
  00003	51		 push	 ecx

; 517  : 	typename _Ptr_cat_helper<_Elem1, _Elem2>::_Type _Cat;
; 518  : 	return (_Cat);

  00004	8a 45 ff	 mov	 al, BYTE PTR __Cat$[ebp]

; 519  : 	}

  00007	c9		 leave
  00008	c3		 ret	 0
??$_Ptr_cat@UAniEventInfo@@U1@@std@@YA?AU_Nonscalar_ptr_iterator_tag@0@PAUAniEventInfo@@0@Z ENDP ; std::_Ptr_cat<AniEventInfo,AniEventInfo>
_TEXT	ENDS
PUBLIC	??$forward@AAUtagAniSoundEventInfo@@@std@@YAAAUtagAniSoundEventInfo@@AAU1@@Z ; std::forward<tagAniSoundEventInfo &>
; Function compile flags: /Ogsp
; File c:\program files (x86)\microsoft visual studio 10.0\vc\include\utility
;	COMDAT ??$forward@AAUtagAniSoundEventInfo@@@std@@YAAAUtagAniSoundEventInfo@@AAU1@@Z
_TEXT	SEGMENT
__Arg$ = 8						; size = 4
??$forward@AAUtagAniSoundEventInfo@@@std@@YAAAUtagAniSoundEventInfo@@AAU1@@Z PROC ; std::forward<tagAniSoundEventInfo &>, COMDAT

; 78   : 	{	// forward _Arg, given explicitly specified type parameter

  00000	55		 push	 ebp
  00001	8b ec		 mov	 ebp, esp

; 79   : 	return ((_Ty&&)_Arg);

  00003	8b 45 08	 mov	 eax, DWORD PTR __Arg$[ebp]

; 80   : 	}

  00006	5d		 pop	 ebp
  00007	c3		 ret	 0
??$forward@AAUtagAniSoundEventInfo@@@std@@YAAAUtagAniSoundEventInfo@@AAU1@@Z ENDP ; std::forward<tagAniSoundEventInfo &>
_TEXT	ENDS
PUBLIC	??$construct@AAUtagAniSoundEventInfo@@@?$allocator@UtagAniSoundEventInfo@@@std@@QAEXPAUtagAniSoundEventInfo@@AAU2@@Z ; std::allocator<tagAniSoundEventInfo>::construct<tagAniSoundEventInfo &>
;	COMDAT xdata$x
xdata$x	SEGMENT
__unwindtable$??$construct@AAUtagAniSoundEventInfo@@@?$allocator@UtagAniSoundEventInfo@@@std@@QAEXPAUtagAniSoundEventInfo@@AAU2@@Z DD 0ffffffffH
	DD	FLAT:__unwindfunclet$??$construct@AAUtagAniSoundEventInfo@@@?$allocator@UtagAniSoundEventInfo@@@std@@QAEXPAUtagAniSoundEventInfo@@AAU2@@Z$0
__ehfuncinfo$??$construct@AAUtagAniSoundEventInfo@@@?$allocator@UtagAniSoundEventInfo@@@std@@QAEXPAUtagAniSoundEventInfo@@AAU2@@Z DD 019930522H
	DD	01H
	DD	FLAT:__unwindtable$??$construct@AAUtagAniSoundEventInfo@@@?$allocator@UtagAniSoundEventInfo@@@std@@QAEXPAUtagAniSoundEventInfo@@AAU2@@Z
	DD	2 DUP(00H)
	DD	2 DUP(00H)
	DD	00H
	DD	01H
; Function compile flags: /Ogsp
; File c:\program files (x86)\microsoft visual studio 10.0\vc\include\xmemory
xdata$x	ENDS
;	COMDAT ??$construct@AAUtagAniSoundEventInfo@@@?$allocator@UtagAniSoundEventInfo@@@std@@QAEXPAUtagAniSoundEventInfo@@AAU2@@Z
_TEXT	SEGMENT
$T531771 = -16						; size = 4
__$EHRec$ = -12						; size = 12
__Ptr$ = 8						; size = 4
__Val$ = 12						; size = 4
??$construct@AAUtagAniSoundEventInfo@@@?$allocator@UtagAniSoundEventInfo@@@std@@QAEXPAUtagAniSoundEventInfo@@AAU2@@Z PROC ; std::allocator<tagAniSoundEventInfo>::construct<tagAniSoundEventInfo &>, COMDAT
; _this$ = ecx

; 206  : 		void construct(pointer _Ptr, _Other&& _Val)

  00000	6a 04		 push	 4
  00002	b8 00 00 00 00	 mov	 eax, __ehhandler$??$construct@AAUtagAniSoundEventInfo@@@?$allocator@UtagAniSoundEventInfo@@@std@@QAEXPAUtagAniSoundEventInfo@@AAU2@@Z
  00007	e8 00 00 00 00	 call	 __EH_prolog3

; 207  : 		{	// construct object at _Ptr with value _Val
; 208  : 		::new ((void _FARQ *)_Ptr) _Ty(_STD forward<_Other>(_Val));

  0000c	8b 4d 08	 mov	 ecx, DWORD PTR __Ptr$[ebp]
  0000f	89 4d f0	 mov	 DWORD PTR $T531771[ebp], ecx
  00012	83 65 fc 00	 and	 DWORD PTR __$EHRec$[ebp+8], 0
  00016	85 c9		 test	 ecx, ecx
  00018	74 08		 je	 SHORT $LN3@construct@2
  0001a	ff 75 0c	 push	 DWORD PTR __Val$[ebp]
  0001d	e8 00 00 00 00	 call	 ??0tagAniSoundEventInfo@@QAE@ABU0@@Z
$LN3@construct@2:

; 209  : 		}

  00022	e8 00 00 00 00	 call	 __EH_epilog3
  00027	c2 08 00	 ret	 8
_TEXT	ENDS
;	COMDAT text$x
text$x	SEGMENT
__unwindfunclet$??$construct@AAUtagAniSoundEventInfo@@@?$allocator@UtagAniSoundEventInfo@@@std@@QAEXPAUtagAniSoundEventInfo@@AAU2@@Z$0:
  00000	ff 75 08	 push	 DWORD PTR __Ptr$[ebp]
  00003	ff 75 f0	 push	 DWORD PTR $T531771[ebp]
  00006	e8 00 00 00 00	 call	 ??3@YAXPAX0@Z		; operator delete
  0000b	59		 pop	 ecx
  0000c	59		 pop	 ecx
  0000d	c3		 ret	 0
__ehhandler$??$construct@AAUtagAniSoundEventInfo@@@?$allocator@UtagAniSoundEventInfo@@@std@@QAEXPAUtagAniSoundEventInfo@@AAU2@@Z:
  0000e	8b 54 24 08	 mov	 edx, DWORD PTR [esp+8]
  00012	8d 42 0c	 lea	 eax, DWORD PTR [edx+12]
  00015	8b 4a ec	 mov	 ecx, DWORD PTR [edx-20]
  00018	33 c8		 xor	 ecx, eax
  0001a	e8 00 00 00 00	 call	 @__security_check_cookie@4
  0001f	b8 00 00 00 00	 mov	 eax, OFFSET __ehfuncinfo$??$construct@AAUtagAniSoundEventInfo@@@?$allocator@UtagAniSoundEventInfo@@@std@@QAEXPAUtagAniSoundEventInfo@@AAU2@@Z
  00024	e9 00 00 00 00	 jmp	 ___CxxFrameHandler3
text$x	ENDS
??$construct@AAUtagAniSoundEventInfo@@@?$allocator@UtagAniSoundEventInfo@@@std@@QAEXPAUtagAniSoundEventInfo@@AAU2@@Z ENDP ; std::allocator<tagAniSoundEventInfo>::construct<tagAniSoundEventInfo &>
PUBLIC	??$forward@ABUtagAniSoundEventInfo@@@std@@YAABUtagAniSoundEventInfo@@ABU1@@Z ; std::forward<tagAniSoundEventInfo const &>
; Function compile flags: /Ogsp
; File c:\program files (x86)\microsoft visual studio 10.0\vc\include\utility
;	COMDAT ??$forward@ABUtagAniSoundEventInfo@@@std@@YAABUtagAniSoundEventInfo@@ABU1@@Z
_TEXT	SEGMENT
__Arg$ = 8						; size = 4
??$forward@ABUtagAniSoundEventInfo@@@std@@YAABUtagAniSoundEventInfo@@ABU1@@Z PROC ; std::forward<tagAniSoundEventInfo const &>, COMDAT

; 78   : 	{	// forward _Arg, given explicitly specified type parameter

  00000	55		 push	 ebp
  00001	8b ec		 mov	 ebp, esp

; 79   : 	return ((_Ty&&)_Arg);

  00003	8b 45 08	 mov	 eax, DWORD PTR __Arg$[ebp]

; 80   : 	}

  00006	5d		 pop	 ebp
  00007	c3		 ret	 0
??$forward@ABUtagAniSoundEventInfo@@@std@@YAABUtagAniSoundEventInfo@@ABU1@@Z ENDP ; std::forward<tagAniSoundEventInfo const &>
_TEXT	ENDS
PUBLIC	??$_Ptr_cat@UtagAniSoundEventInfo@@U1@@std@@YA?AU_Nonscalar_ptr_iterator_tag@0@PAUtagAniSoundEventInfo@@0@Z ; std::_Ptr_cat<tagAniSoundEventInfo,tagAniSoundEventInfo>
; Function compile flags: /Ogsp
; File c:\program files (x86)\microsoft visual studio 10.0\vc\include\xutility
;	COMDAT ??$_Ptr_cat@UtagAniSoundEventInfo@@U1@@std@@YA?AU_Nonscalar_ptr_iterator_tag@0@PAUtagAniSoundEventInfo@@0@Z
_TEXT	SEGMENT
__Cat$ = -1						; size = 1
___formal$ = 8						; size = 4
___formal$ = 12						; size = 4
??$_Ptr_cat@UtagAniSoundEventInfo@@U1@@std@@YA?AU_Nonscalar_ptr_iterator_tag@0@PAUtagAniSoundEventInfo@@0@Z PROC ; std::_Ptr_cat<tagAniSoundEventInfo,tagAniSoundEventInfo>, COMDAT

; 516  : 	{	// return pointer category from pointers

  00000	55		 push	 ebp
  00001	8b ec		 mov	 ebp, esp
  00003	51		 push	 ecx

; 517  : 	typename _Ptr_cat_helper<_Elem1, _Elem2>::_Type _Cat;
; 518  : 	return (_Cat);

  00004	8a 45 ff	 mov	 al, BYTE PTR __Cat$[ebp]

; 519  : 	}

  00007	c9		 leave
  00008	c3		 ret	 0
??$_Ptr_cat@UtagAniSoundEventInfo@@U1@@std@@YA?AU_Nonscalar_ptr_iterator_tag@0@PAUtagAniSoundEventInfo@@0@Z ENDP ; std::_Ptr_cat<tagAniSoundEventInfo,tagAniSoundEventInfo>
_TEXT	ENDS
PUBLIC	??$_Construct@UAniEventInfo@@ABU1@@std@@YAXPAUAniEventInfo@@ABU1@@Z ; std::_Construct<AniEventInfo,AniEventInfo const &>
;	COMDAT xdata$x
; File c:\program files (x86)\microsoft visual studio 10.0\vc\include\utility
xdata$x	SEGMENT
__unwindtable$??$_Construct@UAniEventInfo@@ABU1@@std@@YAXPAUAniEventInfo@@ABU1@@Z DD 0ffffffffH
	DD	FLAT:__unwindfunclet$??$_Construct@UAniEventInfo@@ABU1@@std@@YAXPAUAniEventInfo@@ABU1@@Z$0
__ehfuncinfo$??$_Construct@UAniEventInfo@@ABU1@@std@@YAXPAUAniEventInfo@@ABU1@@Z DD 019930522H
	DD	01H
	DD	FLAT:__unwindtable$??$_Construct@UAniEventInfo@@ABU1@@std@@YAXPAUAniEventInfo@@ABU1@@Z
	DD	2 DUP(00H)
	DD	2 DUP(00H)
	DD	00H
	DD	01H
; Function compile flags: /Ogsp
; File c:\program files (x86)\microsoft visual studio 10.0\vc\include\xmemory
xdata$x	ENDS
;	COMDAT ??$_Construct@UAniEventInfo@@ABU1@@std@@YAXPAUAniEventInfo@@ABU1@@Z
_TEXT	SEGMENT
$T531794 = -16						; size = 4
__$EHRec$ = -12						; size = 12
__Vptr$ = 8						; size = 4
__Ptr$ = 8						; size = 4
__Val$ = 12						; size = 4
??$_Construct@UAniEventInfo@@ABU1@@std@@YAXPAUAniEventInfo@@ABU1@@Z PROC ; std::_Construct<AniEventInfo,AniEventInfo const &>, COMDAT

; 46   : 	{	// construct object at _Ptr with value _Val

  00000	6a 04		 push	 4
  00002	b8 00 00 00 00	 mov	 eax, __ehhandler$??$_Construct@UAniEventInfo@@ABU1@@std@@YAXPAUAniEventInfo@@ABU1@@Z
  00007	e8 00 00 00 00	 call	 __EH_prolog3

; 47   : 	void _FARQ *_Vptr = _Ptr;

  0000c	8b 4d 08	 mov	 ecx, DWORD PTR __Ptr$[ebp]
  0000f	89 4d 08	 mov	 DWORD PTR __Vptr$[ebp], ecx

; 48   : 	::new (_Vptr) _Ty1(_STD forward<_Ty2>(_Val));

  00012	89 4d f0	 mov	 DWORD PTR $T531794[ebp], ecx
  00015	83 65 fc 00	 and	 DWORD PTR __$EHRec$[ebp+8], 0
  00019	85 c9		 test	 ecx, ecx
  0001b	74 08		 je	 SHORT $LN3@Construct
  0001d	ff 75 0c	 push	 DWORD PTR __Val$[ebp]
  00020	e8 00 00 00 00	 call	 ??0AniEventInfo@@QAE@ABU0@@Z
$LN3@Construct:

; 49   : 	}

  00025	e8 00 00 00 00	 call	 __EH_epilog3
  0002a	c3		 ret	 0
_TEXT	ENDS
;	COMDAT text$x
text$x	SEGMENT
__unwindfunclet$??$_Construct@UAniEventInfo@@ABU1@@std@@YAXPAUAniEventInfo@@ABU1@@Z$0:
  00000	ff 75 08	 push	 DWORD PTR __Vptr$[ebp]
  00003	ff 75 f0	 push	 DWORD PTR $T531794[ebp]
  00006	e8 00 00 00 00	 call	 ??3@YAXPAX0@Z		; operator delete
  0000b	59		 pop	 ecx
  0000c	59		 pop	 ecx
  0000d	c3		 ret	 0
__ehhandler$??$_Construct@UAniEventInfo@@ABU1@@std@@YAXPAUAniEventInfo@@ABU1@@Z:
  0000e	8b 54 24 08	 mov	 edx, DWORD PTR [esp+8]
  00012	8d 42 0c	 lea	 eax, DWORD PTR [edx+12]
  00015	8b 4a ec	 mov	 ecx, DWORD PTR [edx-20]
  00018	33 c8		 xor	 ecx, eax
  0001a	e8 00 00 00 00	 call	 @__security_check_cookie@4
  0001f	b8 00 00 00 00	 mov	 eax, OFFSET __ehfuncinfo$??$_Construct@UAniEventInfo@@ABU1@@std@@YAXPAUAniEventInfo@@ABU1@@Z
  00024	e9 00 00 00 00	 jmp	 ___CxxFrameHandler3
text$x	ENDS
??$_Construct@UAniEventInfo@@ABU1@@std@@YAXPAUAniEventInfo@@ABU1@@Z ENDP ; std::_Construct<AniEventInfo,AniEventInfo const &>
PUBLIC	??$_Construct@UtagAniSoundEventInfo@@ABU1@@std@@YAXPAUtagAniSoundEventInfo@@ABU1@@Z ; std::_Construct<tagAniSoundEventInfo,tagAniSoundEventInfo const &>
;	COMDAT xdata$x
; File c:\program files (x86)\microsoft visual studio 10.0\vc\include\utility
xdata$x	SEGMENT
__unwindtable$??$_Construct@UtagAniSoundEventInfo@@ABU1@@std@@YAXPAUtagAniSoundEventInfo@@ABU1@@Z DD 0ffffffffH
	DD	FLAT:__unwindfunclet$??$_Construct@UtagAniSoundEventInfo@@ABU1@@std@@YAXPAUtagAniSoundEventInfo@@ABU1@@Z$0
__ehfuncinfo$??$_Construct@UtagAniSoundEventInfo@@ABU1@@std@@YAXPAUtagAniSoundEventInfo@@ABU1@@Z DD 019930522H
	DD	01H
	DD	FLAT:__unwindtable$??$_Construct@UtagAniSoundEventInfo@@ABU1@@std@@YAXPAUtagAniSoundEventInfo@@ABU1@@Z
	DD	2 DUP(00H)
	DD	2 DUP(00H)
	DD	00H
	DD	01H
; Function compile flags: /Ogsp
; File c:\program files (x86)\microsoft visual studio 10.0\vc\include\xmemory
xdata$x	ENDS
;	COMDAT ??$_Construct@UtagAniSoundEventInfo@@ABU1@@std@@YAXPAUtagAniSoundEventInfo@@ABU1@@Z
_TEXT	SEGMENT
$T531813 = -16						; size = 4
__$EHRec$ = -12						; size = 12
__Vptr$ = 8						; size = 4
__Ptr$ = 8						; size = 4
__Val$ = 12						; size = 4
??$_Construct@UtagAniSoundEventInfo@@ABU1@@std@@YAXPAUtagAniSoundEventInfo@@ABU1@@Z PROC ; std::_Construct<tagAniSoundEventInfo,tagAniSoundEventInfo const &>, COMDAT

; 46   : 	{	// construct object at _Ptr with value _Val

  00000	6a 04		 push	 4
  00002	b8 00 00 00 00	 mov	 eax, __ehhandler$??$_Construct@UtagAniSoundEventInfo@@ABU1@@std@@YAXPAUtagAniSoundEventInfo@@ABU1@@Z
  00007	e8 00 00 00 00	 call	 __EH_prolog3

; 47   : 	void _FARQ *_Vptr = _Ptr;

  0000c	8b 4d 08	 mov	 ecx, DWORD PTR __Ptr$[ebp]
  0000f	89 4d 08	 mov	 DWORD PTR __Vptr$[ebp], ecx

; 48   : 	::new (_Vptr) _Ty1(_STD forward<_Ty2>(_Val));

  00012	89 4d f0	 mov	 DWORD PTR $T531813[ebp], ecx
  00015	83 65 fc 00	 and	 DWORD PTR __$EHRec$[ebp+8], 0
  00019	85 c9		 test	 ecx, ecx
  0001b	74 08		 je	 SHORT $LN3@Construct@2
  0001d	ff 75 0c	 push	 DWORD PTR __Val$[ebp]
  00020	e8 00 00 00 00	 call	 ??0tagAniSoundEventInfo@@QAE@ABU0@@Z
$LN3@Construct@2:

; 49   : 	}

  00025	e8 00 00 00 00	 call	 __EH_epilog3
  0002a	c3		 ret	 0
_TEXT	ENDS
;	COMDAT text$x
text$x	SEGMENT
__unwindfunclet$??$_Construct@UtagAniSoundEventInfo@@ABU1@@std@@YAXPAUtagAniSoundEventInfo@@ABU1@@Z$0:
  00000	ff 75 08	 push	 DWORD PTR __Vptr$[ebp]
  00003	ff 75 f0	 push	 DWORD PTR $T531813[ebp]
  00006	e8 00 00 00 00	 call	 ??3@YAXPAX0@Z		; operator delete
  0000b	59		 pop	 ecx
  0000c	59		 pop	 ecx
  0000d	c3		 ret	 0
__ehhandler$??$_Construct@UtagAniSoundEventInfo@@ABU1@@std@@YAXPAUtagAniSoundEventInfo@@ABU1@@Z:
  0000e	8b 54 24 08	 mov	 edx, DWORD PTR [esp+8]
  00012	8d 42 0c	 lea	 eax, DWORD PTR [edx+12]
  00015	8b 4a ec	 mov	 ecx, DWORD PTR [edx-20]
  00018	33 c8		 xor	 ecx, eax
  0001a	e8 00 00 00 00	 call	 @__security_check_cookie@4
  0001f	b8 00 00 00 00	 mov	 eax, OFFSET __ehfuncinfo$??$_Construct@UtagAniSoundEventInfo@@ABU1@@std@@YAXPAUtagAniSoundEventInfo@@ABU1@@Z
  00024	e9 00 00 00 00	 jmp	 ___CxxFrameHandler3
text$x	ENDS
??$_Construct@UtagAniSoundEventInfo@@ABU1@@std@@YAXPAUtagAniSoundEventInfo@@ABU1@@Z ENDP ; std::_Construct<tagAniSoundEventInfo,tagAniSoundEventInfo const &>
PUBLIC	??$_Destroy@U_Node@?$_List_nod@PBVioMeshControlPoint@@V?$allocator@PBVioMeshControlPoint@@@std@@@std@@@std@@YAXPAU_Node@?$_List_nod@PBVioMeshControlPoint@@V?$allocator@PBVioMeshControlPoint@@@std@@@0@@Z ; std::_Destroy<std::_List_nod<ioMeshControlPoint const *,std::allocator<ioMeshControlPoint const *> >::_Node>
; Function compile flags: /Ogsp
;	COMDAT ??$_Destroy@U_Node@?$_List_nod@PBVioMeshControlPoint@@V?$allocator@PBVioMeshControlPoint@@@std@@@std@@@std@@YAXPAU_Node@?$_List_nod@PBVioMeshControlPoint@@V?$allocator@PBVioMeshControlPoint@@@std@@@0@@Z
_TEXT	SEGMENT
__Ptr$ = 8						; size = 4
??$_Destroy@U_Node@?$_List_nod@PBVioMeshControlPoint@@V?$allocator@PBVioMeshControlPoint@@@std@@@std@@@std@@YAXPAU_Node@?$_List_nod@PBVioMeshControlPoint@@V?$allocator@PBVioMeshControlPoint@@@std@@@0@@Z PROC ; std::_Destroy<std::_List_nod<ioMeshControlPoint const *,std::allocator<ioMeshControlPoint const *> >::_Node>, COMDAT

; 63   : 	_Ptr->~_Ty();
; 64   : 	}

  00000	c3		 ret	 0
??$_Destroy@U_Node@?$_List_nod@PBVioMeshControlPoint@@V?$allocator@PBVioMeshControlPoint@@@std@@@std@@@std@@YAXPAU_Node@?$_List_nod@PBVioMeshControlPoint@@V?$allocator@PBVioMeshControlPoint@@@std@@@0@@Z ENDP ; std::_Destroy<std::_List_nod<ioMeshControlPoint const *,std::allocator<ioMeshControlPoint const *> >::_Node>
_TEXT	ENDS
PUBLIC	??4AniEventInfo@@QAEAAU0@ABU0@@Z		; AniEventInfo::operator=
EXTRN	__imp_??4ioHashString@@QAEAAV0@ABV0@@Z:PROC
; Function compile flags: /Ogsp
;	COMDAT ??4AniEventInfo@@QAEAAU0@ABU0@@Z
_TEXT	SEGMENT
___that$ = 8						; size = 4
??4AniEventInfo@@QAEAAU0@ABU0@@Z PROC			; AniEventInfo::operator=, COMDAT
; _this$ = ecx
  00000	55		 push	 ebp
  00001	8b ec		 mov	 ebp, esp
  00003	53		 push	 ebx
  00004	8b 5d 08	 mov	 ebx, DWORD PTR ___that$[ebp]
  00007	56		 push	 esi
  00008	8b 35 00 00 00
	00		 mov	 esi, DWORD PTR __imp_??4ioHashString@@QAEAAV0@ABV0@@Z
  0000e	57		 push	 edi
  0000f	53		 push	 ebx
  00010	8b f9		 mov	 edi, ecx
  00012	ff d6		 call	 esi
  00014	83 c3 10	 add	 ebx, 16			; 00000010H
  00017	53		 push	 ebx
  00018	8d 4f 10	 lea	 ecx, DWORD PTR [edi+16]
  0001b	ff d6		 call	 esi
  0001d	8b c7		 mov	 eax, edi
  0001f	5f		 pop	 edi
  00020	5e		 pop	 esi
  00021	5b		 pop	 ebx
  00022	5d		 pop	 ebp
  00023	c2 04 00	 ret	 4
??4AniEventInfo@@QAEAAU0@ABU0@@Z ENDP			; AniEventInfo::operator=
_TEXT	ENDS
PUBLIC	??4tagAniSoundEventInfo@@QAEAAU0@ABU0@@Z	; tagAniSoundEventInfo::operator=
; Function compile flags: /Ogsp
;	COMDAT ??4tagAniSoundEventInfo@@QAEAAU0@ABU0@@Z
_TEXT	SEGMENT
___that$ = 8						; size = 4
??4tagAniSoundEventInfo@@QAEAAU0@ABU0@@Z PROC		; tagAniSoundEventInfo::operator=, COMDAT
; _this$ = ecx
  00000	55		 push	 ebp
  00001	8b ec		 mov	 ebp, esp
  00003	53		 push	 ebx
  00004	8b 5d 08	 mov	 ebx, DWORD PTR ___that$[ebp]
  00007	56		 push	 esi
  00008	57		 push	 edi
  00009	8b 3d 00 00 00
	00		 mov	 edi, DWORD PTR __imp_??4ioHashString@@QAEAAV0@ABV0@@Z
  0000f	53		 push	 ebx
  00010	8b f1		 mov	 esi, ecx
  00012	ff d7		 call	 edi
  00014	8d 43 10	 lea	 eax, DWORD PTR [ebx+16]
  00017	50		 push	 eax
  00018	8d 4e 10	 lea	 ecx, DWORD PTR [esi+16]
  0001b	ff d7		 call	 edi
  0001d	8b 43 20	 mov	 eax, DWORD PTR [ebx+32]
  00020	89 46 20	 mov	 DWORD PTR [esi+32], eax
  00023	5f		 pop	 edi
  00024	8b c6		 mov	 eax, esi
  00026	5e		 pop	 esi
  00027	5b		 pop	 ebx
  00028	5d		 pop	 ebp
  00029	c2 04 00	 ret	 4
??4tagAniSoundEventInfo@@QAEAAU0@ABU0@@Z ENDP		; tagAniSoundEventInfo::operator=
_TEXT	ENDS
PUBLIC	??$_Ptr_cat@V?$_Vector_const_iterator@V?$_Vector_val@V?$basic_string@DU?$char_traits@D@std@@V?$allocator@D@2@@std@@V?$allocator@V?$basic_string@DU?$char_traits@D@std@@V?$allocator@D@2@@std@@@2@@std@@@std@@PAV?$basic_string@DU?$char_traits@D@std@@V?$allocator@D@2@@2@@std@@YA?AU_Nonscalar_ptr_iterator_tag@0@AAV?$_Vector_const_iterator@V?$_Vector_val@V?$basic_string@DU?$char_traits@D@std@@V?$allocator@D@2@@std@@V?$allocator@V?$basic_string@DU?$char_traits@D@std@@V?$allocator@D@2@@std@@@2@@std@@@0@AAPAV?$basic_string@DU?$char_traits@D@std@@V?$allocator@D@2@@0@@Z ; std::_Ptr_cat<std::_Vector_const_iterator<std::_Vector_val<std::basic_string<char,std::char_traits<char>,std::allocator<char> >,std::allocator<std::basic_string<char,std::char_traits<char>,std::allocator<char> > > > >,std::basic_string<char,std::char_traits<char>,std::allocator<char> > *>
; Function compile flags: /Ogsp
; File c:\program files (x86)\microsoft visual studio 10.0\vc\include\xutility
;	COMDAT ??$_Ptr_cat@V?$_Vector_const_iterator@V?$_Vector_val@V?$basic_string@DU?$char_traits@D@std@@V?$allocator@D@2@@std@@V?$allocator@V?$basic_string@DU?$char_traits@D@std@@V?$allocator@D@2@@std@@@2@@std@@@std@@PAV?$basic_string@DU?$char_traits@D@std@@V?$allocator@D@2@@2@@std@@YA?AU_Nonscalar_ptr_iterator_tag@0@AAV?$_Vector_const_iterator@V?$_Vector_val@V?$basic_string@DU?$char_traits@D@std@@V?$allocator@D@2@@std@@V?$allocator@V?$basic_string@DU?$char_traits@D@std@@V?$allocator@D@2@@std@@@2@@std@@@0@AAPAV?$basic_string@DU?$char_traits@D@std@@V?$allocator@D@2@@0@@Z
_TEXT	SEGMENT
__Cat$ = -1						; size = 1
___formal$ = 8						; size = 4
___formal$ = 12						; size = 4
??$_Ptr_cat@V?$_Vector_const_iterator@V?$_Vector_val@V?$basic_string@DU?$char_traits@D@std@@V?$allocator@D@2@@std@@V?$allocator@V?$basic_string@DU?$char_traits@D@std@@V?$allocator@D@2@@std@@@2@@std@@@std@@PAV?$basic_string@DU?$char_traits@D@std@@V?$allocator@D@2@@2@@std@@YA?AU_Nonscalar_ptr_iterator_tag@0@AAV?$_Vector_const_iterator@V?$_Vector_val@V?$basic_string@DU?$char_traits@D@std@@V?$allocator@D@2@@std@@V?$allocator@V?$basic_string@DU?$char_traits@D@std@@V?$allocator@D@2@@std@@@2@@std@@@0@AAPAV?$basic_string@DU?$char_traits@D@std@@V?$allocator@D@2@@0@@Z PROC ; std::_Ptr_cat<std::_Vector_const_iterator<std::_Vector_val<std::basic_string<char,std::char_traits<char>,std::allocator<char> >,std::allocator<std::basic_string<char,std::char_traits<char>,std::allocator<char> > > > >,std::basic_string<char,std::char_traits<char>,std::allocator<char> > *>, COMDAT

; 485  : 	{	// return pointer category from arbitrary arguments

  00000	55		 push	 ebp
  00001	8b ec		 mov	 ebp, esp
  00003	51		 push	 ecx

; 486  : 	_Nonscalar_ptr_iterator_tag _Cat;
; 487  : 	return (_Cat);

  00004	8a 45 ff	 mov	 al, BYTE PTR __Cat$[ebp]

; 488  : 	}

  00007	c9		 leave
  00008	c3		 ret	 0
??$_Ptr_cat@V?$_Vector_const_iterator@V?$_Vector_val@V?$basic_string@DU?$char_traits@D@std@@V?$allocator@D@2@@std@@V?$allocator@V?$basic_string@DU?$char_traits@D@std@@V?$allocator@D@2@@std@@@2@@std@@@std@@PAV?$basic_string@DU?$char_traits@D@std@@V?$allocator@D@2@@2@@std@@YA?AU_Nonscalar_ptr_iterator_tag@0@AAV?$_Vector_const_iterator@V?$_Vector_val@V?$basic_string@DU?$char_traits@D@std@@V?$allocator@D@2@@std@@V?$allocator@V?$basic_string@DU?$char_traits@D@std@@V?$allocator@D@2@@std@@@2@@std@@@0@AAPAV?$basic_string@DU?$char_traits@D@std@@V?$allocator@D@2@@0@@Z ENDP ; std::_Ptr_cat<std::_Vector_const_iterator<std::_Vector_val<std::basic_string<char,std::char_traits<char>,std::allocator<char> >,std::allocator<std::basic_string<char,std::char_traits<char>,std::allocator<char> > > > >,std::basic_string<char,std::char_traits<char>,std::allocator<char> > *>
_TEXT	ENDS
PUBLIC	??$move@AAUAniEventInfo@@@std@@YA$$QAUAniEventInfo@@AAU1@@Z ; std::move<AniEventInfo &>
; Function compile flags: /Ogsp
; File c:\program files (x86)\microsoft visual studio 10.0\vc\include\utility
;	COMDAT ??$move@AAUAniEventInfo@@@std@@YA$$QAUAniEventInfo@@AAU1@@Z
_TEXT	SEGMENT
__Arg$ = 8						; size = 4
??$move@AAUAniEventInfo@@@std@@YA$$QAUAniEventInfo@@AAU1@@Z PROC ; std::move<AniEventInfo &>, COMDAT

; 86   : 	{	// forward _Arg as movable

  00000	55		 push	 ebp
  00001	8b ec		 mov	 ebp, esp

; 87   : 	return ((typename tr1::_Remove_reference<_Ty>::_Type&&)_Arg);

  00003	8b 45 08	 mov	 eax, DWORD PTR __Arg$[ebp]

; 88   : 	}

  00006	5d		 pop	 ebp
  00007	c3		 ret	 0
??$move@AAUAniEventInfo@@@std@@YA$$QAUAniEventInfo@@AAU1@@Z ENDP ; std::move<AniEventInfo &>
_TEXT	ENDS
PUBLIC	??$move@AAUtagAniSoundEventInfo@@@std@@YA$$QAUtagAniSoundEventInfo@@AAU1@@Z ; std::move<tagAniSoundEventInfo &>
; Function compile flags: /Ogsp
;	COMDAT ??$move@AAUtagAniSoundEventInfo@@@std@@YA$$QAUtagAniSoundEventInfo@@AAU1@@Z
_TEXT	SEGMENT
__Arg$ = 8						; size = 4
??$move@AAUtagAniSoundEventInfo@@@std@@YA$$QAUtagAniSoundEventInfo@@AAU1@@Z PROC ; std::move<tagAniSoundEventInfo &>, COMDAT

; 86   : 	{	// forward _Arg as movable

  00000	55		 push	 ebp
  00001	8b ec		 mov	 ebp, esp

; 87   : 	return ((typename tr1::_Remove_reference<_Ty>::_Type&&)_Arg);

  00003	8b 45 08	 mov	 eax, DWORD PTR __Arg$[ebp]

; 88   : 	}

  00006	5d		 pop	 ebp
  00007	c3		 ret	 0
??$move@AAUtagAniSoundEventInfo@@@std@@YA$$QAUtagAniSoundEventInfo@@AAU1@@Z ENDP ; std::move<tagAniSoundEventInfo &>
_TEXT	ENDS
PUBLIC	??$_Val_type@PAUAniEventInfo@@@std@@YAPAUAniEventInfo@@PAU1@@Z ; std::_Val_type<AniEventInfo *>
; Function compile flags: /Ogsp
; File c:\program files (x86)\microsoft visual studio 10.0\vc\include\xutility
;	COMDAT ??$_Val_type@PAUAniEventInfo@@@std@@YAPAUAniEventInfo@@PAU1@@Z
_TEXT	SEGMENT
___formal$ = 8						; size = 4
??$_Val_type@PAUAniEventInfo@@@std@@YAPAUAniEventInfo@@PAU1@@Z PROC ; std::_Val_type<AniEventInfo *>, COMDAT

; 790  : 	return (0);

  00000	33 c0		 xor	 eax, eax

; 791  : 	}

  00002	c3		 ret	 0
??$_Val_type@PAUAniEventInfo@@@std@@YAPAUAniEventInfo@@PAU1@@Z ENDP ; std::_Val_type<AniEventInfo *>
_TEXT	ENDS
PUBLIC	??$_Val_type@PAUtagAniSoundEventInfo@@@std@@YAPAUtagAniSoundEventInfo@@PAU1@@Z ; std::_Val_type<tagAniSoundEventInfo *>
; Function compile flags: /Ogsp
;	COMDAT ??$_Val_type@PAUtagAniSoundEventInfo@@@std@@YAPAUtagAniSoundEventInfo@@PAU1@@Z
_TEXT	SEGMENT
___formal$ = 8						; size = 4
??$_Val_type@PAUtagAniSoundEventInfo@@@std@@YAPAUtagAniSoundEventInfo@@PAU1@@Z PROC ; std::_Val_type<tagAniSoundEventInfo *>, COMDAT

; 790  : 	return (0);

  00000	33 c0		 xor	 eax, eax

; 791  : 	}

  00002	c3		 ret	 0
??$_Val_type@PAUtagAniSoundEventInfo@@@std@@YAPAUtagAniSoundEventInfo@@PAU1@@Z ENDP ; std::_Val_type<tagAniSoundEventInfo *>
_TEXT	ENDS
PUBLIC	??D?$_Vector_const_iterator@V?$_Vector_val@V?$basic_string@DU?$char_traits@D@std@@V?$allocator@D@2@@std@@V?$allocator@V?$basic_string@DU?$char_traits@D@std@@V?$allocator@D@2@@std@@@2@@std@@@std@@QBEABV?$basic_string@DU?$char_traits@D@std@@V?$allocator@D@2@@1@XZ ; std::_Vector_const_iterator<std::_Vector_val<std::basic_string<char,std::char_traits<char>,std::allocator<char> >,std::allocator<std::basic_string<char,std::char_traits<char>,std::allocator<char> > > > >::operator*
; Function compile flags: /Ogsp
; File c:\program files (x86)\microsoft visual studio 10.0\vc\include\vector
;	COMDAT ??D?$_Vector_const_iterator@V?$_Vector_val@V?$basic_string@DU?$char_traits@D@std@@V?$allocator@D@2@@std@@V?$allocator@V?$basic_string@DU?$char_traits@D@std@@V?$allocator@D@2@@std@@@2@@std@@@std@@QBEABV?$basic_string@DU?$char_traits@D@std@@V?$allocator@D@2@@1@XZ
_TEXT	SEGMENT
??D?$_Vector_const_iterator@V?$_Vector_val@V?$basic_string@DU?$char_traits@D@std@@V?$allocator@D@2@@std@@V?$allocator@V?$basic_string@DU?$char_traits@D@std@@V?$allocator@D@2@@std@@@2@@std@@@std@@QBEABV?$basic_string@DU?$char_traits@D@std@@V?$allocator@D@2@@1@XZ PROC ; std::_Vector_const_iterator<std::_Vector_val<std::basic_string<char,std::char_traits<char>,std::allocator<char> >,std::allocator<std::basic_string<char,std::char_traits<char>,std::allocator<char> > > > >::operator*, COMDAT
; _this$ = ecx

; 64   :  #if _ITERATOR_DEBUG_LEVEL == 2
; 65   : 		if (this->_Getcont() == 0
; 66   : 			|| this->_Ptr == 0
; 67   : 			|| this->_Ptr < ((_Myvec *)this->_Getcont())->_Myfirst
; 68   : 			|| ((_Myvec *)this->_Getcont())->_Mylast <= this->_Ptr)
; 69   : 			{	// report error
; 70   : 			_DEBUG_ERROR("vector iterator not dereferencable");
; 71   : 			_SCL_SECURE_OUT_OF_RANGE;
; 72   : 			}
; 73   : 
; 74   :  #elif _ITERATOR_DEBUG_LEVEL == 1
; 75   : 		_SCL_SECURE_VALIDATE(this->_Getcont() != 0);
; 76   : 		_SCL_SECURE_VALIDATE_RANGE(
; 77   : 			this->_Ptr != 0
; 78   : 			&& ((_Myvec *)this->_Getcont())->_Myfirst <= this->_Ptr
; 79   : 			&& this->_Ptr < ((_Myvec *)this->_Getcont())->_Mylast);
; 80   :  #endif /* _ITERATOR_DEBUG_LEVEL */
; 81   : 
; 82   : 		__analysis_assume(this->_Ptr != 0);
; 83   : 
; 84   : 		return (*this->_Ptr);

  00000	8b 01		 mov	 eax, DWORD PTR [ecx]

; 85   : 		}

  00002	c3		 ret	 0
??D?$_Vector_const_iterator@V?$_Vector_val@V?$basic_string@DU?$char_traits@D@std@@V?$allocator@D@2@@std@@V?$allocator@V?$basic_string@DU?$char_traits@D@std@@V?$allocator@D@2@@std@@@2@@std@@@std@@QBEABV?$basic_string@DU?$char_traits@D@std@@V?$allocator@D@2@@1@XZ ENDP ; std::_Vector_const_iterator<std::_Vector_val<std::basic_string<char,std::char_traits<char>,std::allocator<char> >,std::allocator<std::basic_string<char,std::char_traits<char>,std::allocator<char> > > > >::operator*
_TEXT	ENDS
PUBLIC	??E?$_Vector_const_iterator@V?$_Vector_val@V?$basic_string@DU?$char_traits@D@std@@V?$allocator@D@2@@std@@V?$allocator@V?$basic_string@DU?$char_traits@D@std@@V?$allocator@D@2@@std@@@2@@std@@@std@@QAEAAV01@XZ ; std::_Vector_const_iterator<std::_Vector_val<std::basic_string<char,std::char_traits<char>,std::allocator<char> >,std::allocator<std::basic_string<char,std::char_traits<char>,std::allocator<char> > > > >::operator++
; Function compile flags: /Ogsp
;	COMDAT ??E?$_Vector_const_iterator@V?$_Vector_val@V?$basic_string@DU?$char_traits@D@std@@V?$allocator@D@2@@std@@V?$allocator@V?$basic_string@DU?$char_traits@D@std@@V?$allocator@D@2@@std@@@2@@std@@@std@@QAEAAV01@XZ
_TEXT	SEGMENT
??E?$_Vector_const_iterator@V?$_Vector_val@V?$basic_string@DU?$char_traits@D@std@@V?$allocator@D@2@@std@@V?$allocator@V?$basic_string@DU?$char_traits@D@std@@V?$allocator@D@2@@std@@@2@@std@@@std@@QAEAAV01@XZ PROC ; std::_Vector_const_iterator<std::_Vector_val<std::basic_string<char,std::char_traits<char>,std::allocator<char> >,std::allocator<std::basic_string<char,std::char_traits<char>,std::allocator<char> > > > >::operator++, COMDAT
; _this$ = ecx

; 93   : 		{	// preincrement

  00000	8b c1		 mov	 eax, ecx

; 94   :  #if _ITERATOR_DEBUG_LEVEL == 2
; 95   : 		if (this->_Getcont() == 0
; 96   : 			|| this->_Ptr == 0
; 97   : 			|| ((_Myvec *)this->_Getcont())->_Mylast <= this->_Ptr)
; 98   : 			{	// report error
; 99   : 			_DEBUG_ERROR("vector iterator not incrementable");
; 100  : 			_SCL_SECURE_OUT_OF_RANGE;
; 101  : 			}
; 102  : 
; 103  :  #elif _ITERATOR_DEBUG_LEVEL == 1
; 104  : 		_SCL_SECURE_VALIDATE(this->_Getcont() != 0);
; 105  : 		_SCL_SECURE_VALIDATE_RANGE(
; 106  : 			this->_Ptr != 0
; 107  : 			&& this->_Ptr < ((_Myvec *)this->_Getcont())->_Mylast);
; 108  :  #endif /* _ITERATOR_DEBUG_LEVEL */
; 109  : 
; 110  : 		++this->_Ptr;

  00002	83 00 1c	 add	 DWORD PTR [eax], 28	; 0000001cH

; 111  : 		return (*this);
; 112  : 		}

  00005	c3		 ret	 0
??E?$_Vector_const_iterator@V?$_Vector_val@V?$basic_string@DU?$char_traits@D@std@@V?$allocator@D@2@@std@@V?$allocator@V?$basic_string@DU?$char_traits@D@std@@V?$allocator@D@2@@std@@@2@@std@@@std@@QAEAAV01@XZ ENDP ; std::_Vector_const_iterator<std::_Vector_val<std::basic_string<char,std::char_traits<char>,std::allocator<char> >,std::allocator<std::basic_string<char,std::char_traits<char>,std::allocator<char> > > > >::operator++
_TEXT	ENDS
PUBLIC	?_Compat@?$_Vector_const_iterator@V?$_Vector_val@V?$basic_string@DU?$char_traits@D@std@@V?$allocator@D@2@@std@@V?$allocator@V?$basic_string@DU?$char_traits@D@std@@V?$allocator@D@2@@std@@@2@@std@@@std@@QBEXABV12@@Z ; std::_Vector_const_iterator<std::_Vector_val<std::basic_string<char,std::char_traits<char>,std::allocator<char> >,std::allocator<std::basic_string<char,std::char_traits<char>,std::allocator<char> > > > >::_Compat
; Function compile flags: /Ogsp
;	COMDAT ?_Compat@?$_Vector_const_iterator@V?$_Vector_val@V?$basic_string@DU?$char_traits@D@std@@V?$allocator@D@2@@std@@V?$allocator@V?$basic_string@DU?$char_traits@D@std@@V?$allocator@D@2@@std@@@2@@std@@@std@@QBEXABV12@@Z
_TEXT	SEGMENT
___formal$ = 8						; size = 4
?_Compat@?$_Vector_const_iterator@V?$_Vector_val@V?$basic_string@DU?$char_traits@D@std@@V?$allocator@D@2@@std@@V?$allocator@V?$basic_string@DU?$char_traits@D@std@@V?$allocator@D@2@@std@@@2@@std@@@std@@QBEXABV12@@Z PROC ; std::_Vector_const_iterator<std::_Vector_val<std::basic_string<char,std::char_traits<char>,std::allocator<char> >,std::allocator<std::basic_string<char,std::char_traits<char>,std::allocator<char> > > > >::_Compat, COMDAT
; _this$ = ecx

; 253  : 		}

  00000	c2 04 00	 ret	 4
?_Compat@?$_Vector_const_iterator@V?$_Vector_val@V?$basic_string@DU?$char_traits@D@std@@V?$allocator@D@2@@std@@V?$allocator@V?$basic_string@DU?$char_traits@D@std@@V?$allocator@D@2@@std@@@2@@std@@@std@@QBEXABV12@@Z ENDP ; std::_Vector_const_iterator<std::_Vector_val<std::basic_string<char,std::char_traits<char>,std::allocator<char> >,std::allocator<std::basic_string<char,std::char_traits<char>,std::allocator<char> > > > >::_Compat
_TEXT	ENDS
PUBLIC	??_GAniEventInfo@@QAEPAXI@Z			; AniEventInfo::`scalar deleting destructor'
; Function compile flags: /Ogsp
;	COMDAT ??_GAniEventInfo@@QAEPAXI@Z
_TEXT	SEGMENT
___flags$ = 8						; size = 4
??_GAniEventInfo@@QAEPAXI@Z PROC			; AniEventInfo::`scalar deleting destructor', COMDAT
; _this$ = ecx
  00000	55		 push	 ebp
  00001	8b ec		 mov	 ebp, esp
  00003	56		 push	 esi
  00004	8b f1		 mov	 esi, ecx
  00006	e8 00 00 00 00	 call	 ??1AniEventInfo@@QAE@XZ
  0000b	f6 45 08 01	 test	 BYTE PTR ___flags$[ebp], 1
  0000f	74 07		 je	 SHORT $LN1@scalar@2
  00011	56		 push	 esi
  00012	e8 00 00 00 00	 call	 ??3@YAXPAX@Z		; operator delete
  00017	59		 pop	 ecx
$LN1@scalar@2:
  00018	8b c6		 mov	 eax, esi
  0001a	5e		 pop	 esi
  0001b	5d		 pop	 ebp
  0001c	c2 04 00	 ret	 4
??_GAniEventInfo@@QAEPAXI@Z ENDP			; AniEventInfo::`scalar deleting destructor'
_TEXT	ENDS
PUBLIC	??_GtagAniSoundEventInfo@@QAEPAXI@Z		; tagAniSoundEventInfo::`scalar deleting destructor'
; Function compile flags: /Ogsp
;	COMDAT ??_GtagAniSoundEventInfo@@QAEPAXI@Z
_TEXT	SEGMENT
___flags$ = 8						; size = 4
??_GtagAniSoundEventInfo@@QAEPAXI@Z PROC		; tagAniSoundEventInfo::`scalar deleting destructor', COMDAT
; _this$ = ecx
  00000	55		 push	 ebp
  00001	8b ec		 mov	 ebp, esp
  00003	56		 push	 esi
  00004	8b f1		 mov	 esi, ecx
  00006	e8 00 00 00 00	 call	 ??1tagAniSoundEventInfo@@QAE@XZ
  0000b	f6 45 08 01	 test	 BYTE PTR ___flags$[ebp], 1
  0000f	74 07		 je	 SHORT $LN1@scalar@3
  00011	56		 push	 esi
  00012	e8 00 00 00 00	 call	 ??3@YAXPAX@Z		; operator delete
  00017	59		 pop	 ecx
$LN1@scalar@3:
  00018	8b c6		 mov	 eax, esi
  0001a	5e		 pop	 esi
  0001b	5d		 pop	 ebp
  0001c	c2 04 00	 ret	 4
??_GtagAniSoundEventInfo@@QAEPAXI@Z ENDP		; tagAniSoundEventInfo::`scalar deleting destructor'
_TEXT	ENDS
PUBLIC	??$forward@ABV?$basic_string@DU?$char_traits@D@std@@V?$allocator@D@2@@std@@@std@@YAABV?$basic_string@DU?$char_traits@D@std@@V?$allocator@D@2@@0@ABV10@@Z ; std::forward<std::basic_string<char,std::char_traits<char>,std::allocator<char> > const &>
; Function compile flags: /Ogsp
; File c:\program files (x86)\microsoft visual studio 10.0\vc\include\utility
;	COMDAT ??$forward@ABV?$basic_string@DU?$char_traits@D@std@@V?$allocator@D@2@@std@@@std@@YAABV?$basic_string@DU?$char_traits@D@std@@V?$allocator@D@2@@0@ABV10@@Z
_TEXT	SEGMENT
__Arg$ = 8						; size = 4
??$forward@ABV?$basic_string@DU?$char_traits@D@std@@V?$allocator@D@2@@std@@@std@@YAABV?$basic_string@DU?$char_traits@D@std@@V?$allocator@D@2@@0@ABV10@@Z PROC ; std::forward<std::basic_string<char,std::char_traits<char>,std::allocator<char> > const &>, COMDAT

; 78   : 	{	// forward _Arg, given explicitly specified type parameter

  00000	55		 push	 ebp
  00001	8b ec		 mov	 ebp, esp

; 79   : 	return ((_Ty&&)_Arg);

  00003	8b 45 08	 mov	 eax, DWORD PTR __Arg$[ebp]

; 80   : 	}

  00006	5d		 pop	 ebp
  00007	c3		 ret	 0
??$forward@ABV?$basic_string@DU?$char_traits@D@std@@V?$allocator@D@2@@std@@@std@@YAABV?$basic_string@DU?$char_traits@D@std@@V?$allocator@D@2@@0@ABV10@@Z ENDP ; std::forward<std::basic_string<char,std::char_traits<char>,std::allocator<char> > const &>
_TEXT	ENDS
PUBLIC	??$forward@UAniEventInfo@@@std@@YA$$QAUAniEventInfo@@AAU1@@Z ; std::forward<AniEventInfo>
; Function compile flags: /Ogsp
;	COMDAT ??$forward@UAniEventInfo@@@std@@YA$$QAUAniEventInfo@@AAU1@@Z
_TEXT	SEGMENT
__Arg$ = 8						; size = 4
??$forward@UAniEventInfo@@@std@@YA$$QAUAniEventInfo@@AAU1@@Z PROC ; std::forward<AniEventInfo>, COMDAT

; 78   : 	{	// forward _Arg, given explicitly specified type parameter

  00000	55		 push	 ebp
  00001	8b ec		 mov	 ebp, esp

; 79   : 	return ((_Ty&&)_Arg);

  00003	8b 45 08	 mov	 eax, DWORD PTR __Arg$[ebp]

; 80   : 	}

  00006	5d		 pop	 ebp
  00007	c3		 ret	 0
??$forward@UAniEventInfo@@@std@@YA$$QAUAniEventInfo@@AAU1@@Z ENDP ; std::forward<AniEventInfo>
_TEXT	ENDS
PUBLIC	??$forward@UtagAniSoundEventInfo@@@std@@YA$$QAUtagAniSoundEventInfo@@AAU1@@Z ; std::forward<tagAniSoundEventInfo>
; Function compile flags: /Ogsp
;	COMDAT ??$forward@UtagAniSoundEventInfo@@@std@@YA$$QAUtagAniSoundEventInfo@@AAU1@@Z
_TEXT	SEGMENT
__Arg$ = 8						; size = 4
??$forward@UtagAniSoundEventInfo@@@std@@YA$$QAUtagAniSoundEventInfo@@AAU1@@Z PROC ; std::forward<tagAniSoundEventInfo>, COMDAT

; 78   : 	{	// forward _Arg, given explicitly specified type parameter

  00000	55		 push	 ebp
  00001	8b ec		 mov	 ebp, esp

; 79   : 	return ((_Ty&&)_Arg);

  00003	8b 45 08	 mov	 eax, DWORD PTR __Arg$[ebp]

; 80   : 	}

  00006	5d		 pop	 ebp
  00007	c3		 ret	 0
??$forward@UtagAniSoundEventInfo@@@std@@YA$$QAUtagAniSoundEventInfo@@AAU1@@Z ENDP ; std::forward<tagAniSoundEventInfo>
; Function compile flags: /Ogsp
; File c:\program files (x86)\microsoft sdks\windows\v7.0a\include\strsafe.h
_TEXT	ENDS
;	COMDAT ?StringValidateDestA@@YGJPBDII@Z
_TEXT	SEGMENT
_cchMax$ = 8						; size = 4
?StringValidateDestA@@YGJPBDII@Z PROC			; StringValidateDestA, COMDAT
; _cchDest$ = ecx

; 8721 : {

  00000	55		 push	 ebp
  00001	8b ec		 mov	 ebp, esp

; 8722 :     HRESULT hr = S_OK;

  00003	33 c0		 xor	 eax, eax

; 8723 : 
; 8724 :     if ((cchDest == 0) || (cchDest > cchMax))

  00005	85 c9		 test	 ecx, ecx
  00007	74 05		 je	 SHORT $LN1@StringVali
  00009	3b 4d 08	 cmp	 ecx, DWORD PTR _cchMax$[ebp]
  0000c	76 05		 jbe	 SHORT $LN2@StringVali
$LN1@StringVali:

; 8725 :     {
; 8726 :         hr = STRSAFE_E_INVALID_PARAMETER;

  0000e	b8 57 00 07 80	 mov	 eax, -2147024809	; 80070057H
$LN2@StringVali:

; 8727 :     }
; 8728 : 
; 8729 :     return hr;
; 8730 : }

  00013	5d		 pop	 ebp
  00014	c2 04 00	 ret	 4
?StringValidateDestA@@YGJPBDII@Z ENDP			; StringValidateDestA
_TEXT	ENDS
EXTRN	__imp___vsnprintf:PROC
; Function compile flags: /Ogsp
;	COMDAT ?StringVPrintfWorkerA@@YGJPADIPAIPBD0@Z
_TEXT	SEGMENT
_pcchNewDestLength$ = 8					; size = 4
_pszFormat$ = 12					; size = 4
_argList$ = 16						; size = 4
?StringVPrintfWorkerA@@YGJPADIPAIPBD0@Z PROC		; StringVPrintfWorkerA, COMDAT
; _pszDest$ = edi
; _cchDest$ = eax

; 9029 : {

  00000	55		 push	 ebp
  00001	8b ec		 mov	 ebp, esp
  00003	53		 push	 ebx
  00004	56		 push	 esi

; 9030 :     HRESULT hr = S_OK;
; 9031 :     int iRet;
; 9032 :     size_t cchMax;
; 9033 :     size_t cchNewDestLength = 0;
; 9034 : 
; 9035 :     // leave the last space for the null terminator
; 9036 :     cchMax = cchDest - 1;
; 9037 : 
; 9038 : #if (STRSAFE_USE_SECURE_CRT == 1) && !defined(STRSAFE_LIB_IMPL)
; 9039 :     iRet = _vsnprintf_s(pszDest, cchDest, cchMax, pszFormat, argList);
; 9040 : #else
; 9041 :     #pragma warning(push)
; 9042 :     #pragma warning(disable: __WARNING_BANNED_API_USAGE)// "STRSAFE not included"
; 9043 :     iRet = _vsnprintf(pszDest, cchMax, pszFormat, argList);

  00005	ff 75 10	 push	 DWORD PTR _argList$[ebp]
  00008	8d 70 ff	 lea	 esi, DWORD PTR [eax-1]
  0000b	ff 75 0c	 push	 DWORD PTR _pszFormat$[ebp]
  0000e	33 db		 xor	 ebx, ebx
  00010	56		 push	 esi
  00011	57		 push	 edi
  00012	ff 15 00 00 00
	00		 call	 DWORD PTR __imp___vsnprintf
  00018	83 c4 10	 add	 esp, 16			; 00000010H

; 9044 :     #pragma warning(pop)
; 9045 : #endif
; 9046 :     // ASSERT((iRet < 0) || (((size_t)iRet) <= cchMax));
; 9047 : 
; 9048 :     if ((iRet < 0) || (((size_t)iRet) > cchMax))

  0001b	85 c0		 test	 eax, eax
  0001d	78 0b		 js	 SHORT $LN5@StringVPri
  0001f	3b c6		 cmp	 eax, esi
  00021	77 07		 ja	 SHORT $LN5@StringVPri

; 9058 :     }
; 9059 :     else if (((size_t)iRet) == cchMax)

  00023	75 0f		 jne	 SHORT $LN2@StringVPri

; 9060 :     {
; 9061 :         // need to null terminate the string
; 9062 :         pszDest += cchMax;
; 9063 :         *pszDest = '\0';

  00025	88 1c 3e	 mov	 BYTE PTR [esi+edi], bl

; 9064 : 
; 9065 :         cchNewDestLength = cchMax;
; 9066 :     }
; 9067 :     else

  00028	eb 08		 jmp	 SHORT $LN9@StringVPri
$LN5@StringVPri:

; 9049 :     {
; 9050 :         // need to null terminate the string
; 9051 :         pszDest += cchMax;
; 9052 :         *pszDest = '\0';

  0002a	88 1c 3e	 mov	 BYTE PTR [esi+edi], bl

; 9055 : 
; 9056 :         // we have truncated pszDest
; 9057 :         hr = STRSAFE_E_INSUFFICIENT_BUFFER;

  0002d	bb 7a 00 07 80	 mov	 ebx, -2147024774	; 8007007aH
$LN9@StringVPri:

; 9053 : 
; 9054 :         cchNewDestLength = cchMax;

  00032	8b c6		 mov	 eax, esi
$LN2@StringVPri:

; 9068 :     {
; 9069 :         cchNewDestLength = (size_t)iRet;
; 9070 :     }
; 9071 : 
; 9072 :     if (pcchNewDestLength)

  00034	8b 4d 08	 mov	 ecx, DWORD PTR _pcchNewDestLength$[ebp]
  00037	85 c9		 test	 ecx, ecx
  00039	74 02		 je	 SHORT $LN1@StringVPri

; 9073 :     {
; 9074 :         *pcchNewDestLength = cchNewDestLength;

  0003b	89 01		 mov	 DWORD PTR [ecx], eax
$LN1@StringVPri:
  0003d	5e		 pop	 esi

; 9075 :     }
; 9076 : 
; 9077 :     return hr;

  0003e	8b c3		 mov	 eax, ebx
  00040	5b		 pop	 ebx

; 9078 : }

  00041	5d		 pop	 ebp
  00042	c2 0c 00	 ret	 12			; 0000000cH
?StringVPrintfWorkerA@@YGJPADIPAIPBD0@Z ENDP		; StringVPrintfWorkerA
_TEXT	ENDS
PUBLIC	?_DECSTR@@YAXPADH@Z				; _DECSTR
; Function compile flags: /Ogsp
; File d:\lost saga for developer\youtube\tutorial\source\src\lsclient\stringprotect.h
;	COMDAT ?_DECSTR@@YAXPADH@Z
_TEXT	SEGMENT
_s$ = 8							; size = 4
_l$ = 12						; size = 4
?_DECSTR@@YAXPADH@Z PROC				; _DECSTR, COMDAT

; 40   : __forceinline void _DECSTR(char* s, int l){int i=0,l4=(l-1)/4,*p=(int*)s;s[l-1]=0;for(;i<l4;++i)*(p++)^=0xEAEBECED;for(i=l4*4;i<l-1;++i)s[i]^=0xED-i%4;}

  00000	55		 push	 ebp
  00001	8b ec		 mov	 ebp, esp
  00003	8b 4d 0c	 mov	 ecx, DWORD PTR _l$[ebp]
  00006	56		 push	 esi
  00007	8b 75 08	 mov	 esi, DWORD PTR _s$[ebp]
  0000a	57		 push	 edi
  0000b	8d 79 ff	 lea	 edi, DWORD PTR [ecx-1]
  0000e	8b c7		 mov	 eax, edi
  00010	99		 cdq
  00011	83 e2 03	 and	 edx, 3
  00014	03 c2		 add	 eax, edx
  00016	c1 f8 02	 sar	 eax, 2
  00019	8b d6		 mov	 edx, esi
  0001b	c6 44 0e ff 00	 mov	 BYTE PTR [esi+ecx-1], 0
  00020	85 c0		 test	 eax, eax
  00022	7e 0e		 jle	 SHORT $LN4@DECSTR
  00024	8b c8		 mov	 ecx, eax
$LL6@DECSTR:
  00026	81 32 ed ec eb
	ea		 xor	 DWORD PTR [edx], -353637139 ; eaebecedH
  0002c	83 c2 04	 add	 edx, 4
  0002f	49		 dec	 ecx
  00030	75 f4		 jne	 SHORT $LL6@DECSTR
$LN4@DECSTR:
  00032	c1 e0 02	 shl	 eax, 2
  00035	eb 17		 jmp	 SHORT $LN14@DECSTR
$LL3@DECSTR:
  00037	8b c8		 mov	 ecx, eax
  00039	81 e1 03 00 00
	80		 and	 ecx, -2147483645	; 80000003H
  0003f	79 05		 jns	 SHORT $LN13@DECSTR
  00041	49		 dec	 ecx
  00042	83 c9 fc	 or	 ecx, -4			; fffffffcH
  00045	41		 inc	 ecx
$LN13@DECSTR:
  00046	b2 ed		 mov	 dl, -19			; ffffffedH
  00048	2a d1		 sub	 dl, cl
  0004a	30 14 30	 xor	 BYTE PTR [eax+esi], dl
  0004d	40		 inc	 eax
$LN14@DECSTR:
  0004e	3b c7		 cmp	 eax, edi
  00050	7c e5		 jl	 SHORT $LL3@DECSTR
  00052	5f		 pop	 edi
  00053	5e		 pop	 esi
  00054	5d		 pop	 ebp
  00055	c3		 ret	 0
?_DECSTR@@YAXPADH@Z ENDP				; _DECSTR
_TEXT	ENDS
PUBLIC	?GetGroup@ioGameEntity@@QBEPAVioEntityGroup@@XZ	; ioGameEntity::GetGroup
; Function compile flags: /Ogsp
; File d:\lost saga for developer\youtube\tutorial\source\src\lsclient\iogameentity.h
;	COMDAT ?GetGroup@ioGameEntity@@QBEPAVioEntityGroup@@XZ
_TEXT	SEGMENT
?GetGroup@ioGameEntity@@QBEPAVioEntityGroup@@XZ PROC	; ioGameEntity::GetGroup, COMDAT
; _this$ = ecx

; 166  : 	inline ioEntityGroup* GetGroup() const { return m_pGroup; }

  00000	8b 41 04	 mov	 eax, DWORD PTR [ecx+4]
  00003	c3		 ret	 0
?GetGroup@ioGameEntity@@QBEPAVioEntityGroup@@XZ ENDP	; ioGameEntity::GetGroup
_TEXT	ENDS
PUBLIC	??_R0?AVioGameEntity@@@8			; ioGameEntity `RTTI Type Descriptor'
PUBLIC	??_R0?AVioPlayEntity@@@8			; ioPlayEntity `RTTI Type Descriptor'
PUBLIC	?ToPlayEntity@@YAPAVioPlayEntity@@PAVioGameEntity@@@Z ; ToPlayEntity
EXTRN	___RTDynamicCast:PROC
;	COMDAT ??_R0?AVioGameEntity@@@8
; File d:\lost saga for developer\youtube\tutorial\source\src\lsclient\ioplayentity.h
_DATA	SEGMENT
??_R0?AVioGameEntity@@@8 DD FLAT:??_7type_info@@6B@	; ioGameEntity `RTTI Type Descriptor'
	DD	00H
	DB	'.?AVioGameEntity@@', 00H
_DATA	ENDS
;	COMDAT ??_R0?AVioPlayEntity@@@8
_DATA	SEGMENT
??_R0?AVioPlayEntity@@@8 DD FLAT:??_7type_info@@6B@	; ioPlayEntity `RTTI Type Descriptor'
	DD	00H
	DB	'.?AVioPlayEntity@@', 00H
; Function compile flags: /Ogsp
_DATA	ENDS
;	COMDAT ?ToPlayEntity@@YAPAVioPlayEntity@@PAVioGameEntity@@@Z
_TEXT	SEGMENT
_pObj$ = 8						; size = 4
?ToPlayEntity@@YAPAVioPlayEntity@@PAVioGameEntity@@@Z PROC ; ToPlayEntity, COMDAT

; 121  : {

  00000	55		 push	 ebp
  00001	8b ec		 mov	 ebp, esp
  00003	56		 push	 esi

; 122  : 	if( !pObj || pObj->GetTypeID() != ioGameEntity::GET_PLAY_ENTITY )

  00004	8b 75 08	 mov	 esi, DWORD PTR _pObj$[ebp]
  00007	85 f6		 test	 esi, esi
  00009	74 25		 je	 SHORT $LN1@ToPlayEnti
  0000b	8b 06		 mov	 eax, DWORD PTR [esi]
  0000d	8b ce		 mov	 ecx, esi
  0000f	ff 50 10	 call	 DWORD PTR [eax+16]
  00012	83 f8 01	 cmp	 eax, 1
  00015	75 19		 jne	 SHORT $LN1@ToPlayEnti

; 124  : 
; 125  : 	return dynamic_cast< ioPlayEntity* >( pObj );

  00017	6a 00		 push	 0
  00019	68 00 00 00 00	 push	 OFFSET ??_R0?AVioPlayEntity@@@8
  0001e	68 00 00 00 00	 push	 OFFSET ??_R0?AVioGameEntity@@@8
  00023	6a 00		 push	 0
  00025	56		 push	 esi
  00026	e8 00 00 00 00	 call	 ___RTDynamicCast
  0002b	83 c4 14	 add	 esp, 20			; 00000014H
  0002e	eb 02		 jmp	 SHORT $LN3@ToPlayEnti
$LN1@ToPlayEnti:

; 123  : 		return NULL;

  00030	33 c0		 xor	 eax, eax
$LN3@ToPlayEnti:
  00032	5e		 pop	 esi

; 126  : }

  00033	5d		 pop	 ebp
  00034	c3		 ret	 0
?ToPlayEntity@@YAPAVioPlayEntity@@PAVioGameEntity@@@Z ENDP ; ToPlayEntity
_TEXT	ENDS
PUBLIC	?GetDefaultHairMesh@ioEquipSlot@@QBEABVioHashString@@XZ ; ioEquipSlot::GetDefaultHairMesh
; Function compile flags: /Ogsp
; File d:\lost saga for developer\youtube\tutorial\source\src\lsclient\ioequipslot.h
;	COMDAT ?GetDefaultHairMesh@ioEquipSlot@@QBEABVioHashString@@XZ
_TEXT	SEGMENT
?GetDefaultHairMesh@ioEquipSlot@@QBEABVioHashString@@XZ PROC ; ioEquipSlot::GetDefaultHairMesh, COMDAT
; _this$ = ecx

; 213  : 	inline const ioHashString& GetDefaultHairMesh() const { return m_DefaultHairMesh; }

  00000	8d 81 ec 00 00
	00		 lea	 eax, DWORD PTR [ecx+236]
  00006	c3		 ret	 0
?GetDefaultHairMesh@ioEquipSlot@@QBEABVioHashString@@XZ ENDP ; ioEquipSlot::GetDefaultHairMesh
_TEXT	ENDS
PUBLIC	?GetDefaultBindHairMesh@ioEquipSlot@@QBEABVioHashString@@XZ ; ioEquipSlot::GetDefaultBindHairMesh
; Function compile flags: /Ogsp
;	COMDAT ?GetDefaultBindHairMesh@ioEquipSlot@@QBEABVioHashString@@XZ
_TEXT	SEGMENT
?GetDefaultBindHairMesh@ioEquipSlot@@QBEABVioHashString@@XZ PROC ; ioEquipSlot::GetDefaultBindHairMesh, COMDAT
; _this$ = ecx

; 214  : 	inline const ioHashString& GetDefaultBindHairMesh() const { return m_DefaultBindHairMesh; }

  00000	8d 81 fc 00 00
	00		 lea	 eax, DWORD PTR [ecx+252]
  00006	c3		 ret	 0
?GetDefaultBindHairMesh@ioEquipSlot@@QBEABVioHashString@@XZ ENDP ; ioEquipSlot::GetDefaultBindHairMesh
_TEXT	ENDS
PUBLIC	?GetDefaultHalfHairMesh@ioEquipSlot@@QBEABVioHashString@@XZ ; ioEquipSlot::GetDefaultHalfHairMesh
; Function compile flags: /Ogsp
;	COMDAT ?GetDefaultHalfHairMesh@ioEquipSlot@@QBEABVioHashString@@XZ
_TEXT	SEGMENT
?GetDefaultHalfHairMesh@ioEquipSlot@@QBEABVioHashString@@XZ PROC ; ioEquipSlot::GetDefaultHalfHairMesh, COMDAT
; _this$ = ecx

; 215  : 	inline const ioHashString& GetDefaultHalfHairMesh() const { return m_DefaultHalfHairMesh; }

  00000	8d 81 0c 01 00
	00		 lea	 eax, DWORD PTR [ecx+268]
  00006	c3		 ret	 0
?GetDefaultHalfHairMesh@ioEquipSlot@@QBEABVioHashString@@XZ ENDP ; ioEquipSlot::GetDefaultHalfHairMesh
_TEXT	ENDS
PUBLIC	?GetDefaultHandMesh@ioEquipSlot@@QBEABVioHashString@@XZ ; ioEquipSlot::GetDefaultHandMesh
; Function compile flags: /Ogsp
;	COMDAT ?GetDefaultHandMesh@ioEquipSlot@@QBEABVioHashString@@XZ
_TEXT	SEGMENT
?GetDefaultHandMesh@ioEquipSlot@@QBEABVioHashString@@XZ PROC ; ioEquipSlot::GetDefaultHandMesh, COMDAT
; _this$ = ecx

; 217  : 	inline const ioHashString& GetDefaultHandMesh() const { return m_DefaultHandMesh; }

  00000	8d 81 2c 01 00
	00		 lea	 eax, DWORD PTR [ecx+300]
  00006	c3		 ret	 0
?GetDefaultHandMesh@ioEquipSlot@@QBEABVioHashString@@XZ ENDP ; ioEquipSlot::GetDefaultHandMesh
_TEXT	ENDS
PUBLIC	?GetDefaultUnderwearMesh@ioEquipSlot@@QBEABVioHashString@@XZ ; ioEquipSlot::GetDefaultUnderwearMesh
; Function compile flags: /Ogsp
;	COMDAT ?GetDefaultUnderwearMesh@ioEquipSlot@@QBEABVioHashString@@XZ
_TEXT	SEGMENT
?GetDefaultUnderwearMesh@ioEquipSlot@@QBEABVioHashString@@XZ PROC ; ioEquipSlot::GetDefaultUnderwearMesh, COMDAT
; _this$ = ecx

; 219  : 	inline const ioHashString& GetDefaultUnderwearMesh() const { return m_DefaultUnderwearMesh; } // body

  00000	8d 81 8c 00 00
	00		 lea	 eax, DWORD PTR [ecx+140]
  00006	c3		 ret	 0
?GetDefaultUnderwearMesh@ioEquipSlot@@QBEABVioHashString@@XZ ENDP ; ioEquipSlot::GetDefaultUnderwearMesh
_TEXT	ENDS
PUBLIC	?Init@tagAniSoundEventInfo@@QAEXXZ		; tagAniSoundEventInfo::Init
; Function compile flags: /Ogsp
; File d:\lost saga for developer\youtube\tutorial\source\src\lsclient\anieventhelpstruct.h
;	COMDAT ?Init@tagAniSoundEventInfo@@QAEXXZ
_TEXT	SEGMENT
?Init@tagAniSoundEventInfo@@QAEXXZ PROC			; tagAniSoundEventInfo::Init, COMDAT
; _this$ = ecx

; 19   : 		m_SoundID = 0;

  00000	83 61 20 00	 and	 DWORD PTR [ecx+32], 0

; 20   : 	}

  00004	c3		 ret	 0
?Init@tagAniSoundEventInfo@@QAEXXZ ENDP			; tagAniSoundEventInfo::Init
_TEXT	ENDS
PUBLIC	?size@?$basic_string@DU?$char_traits@D@std@@V?$allocator@D@2@@std@@QBEIXZ ; std::basic_string<char,std::char_traits<char>,std::allocator<char> >::size
; Function compile flags: /Ogsp
; File c:\program files (x86)\microsoft visual studio 10.0\vc\include\xstring
;	COMDAT ?size@?$basic_string@DU?$char_traits@D@std@@V?$allocator@D@2@@std@@QBEIXZ
_TEXT	SEGMENT
?size@?$basic_string@DU?$char_traits@D@std@@V?$allocator@D@2@@std@@QBEIXZ PROC ; std::basic_string<char,std::char_traits<char>,std::allocator<char> >::size, COMDAT
; _this$ = ecx

; 1512 : 		return (this->_Mysize);

  00000	8b 41 10	 mov	 eax, DWORD PTR [ecx+16]

; 1513 : 		}

  00003	c3		 ret	 0
?size@?$basic_string@DU?$char_traits@D@std@@V?$allocator@D@2@@std@@QBEIXZ ENDP ; std::basic_string<char,std::char_traits<char>,std::allocator<char> >::size
_TEXT	ENDS
PUBLIC	?_Myptr@?$basic_string@DU?$char_traits@D@std@@V?$allocator@D@2@@std@@QBEPBDXZ ; std::basic_string<char,std::char_traits<char>,std::allocator<char> >::_Myptr
; Function compile flags: /Ogsp
;	COMDAT ?_Myptr@?$basic_string@DU?$char_traits@D@std@@V?$allocator@D@2@@std@@QBEPBDXZ
_TEXT	SEGMENT
?_Myptr@?$basic_string@DU?$char_traits@D@std@@V?$allocator@D@2@@std@@QBEPBDXZ PROC ; std::basic_string<char,std::char_traits<char>,std::allocator<char> >::_Myptr, COMDAT
; _this$ = ecx

; 2010 : 		return (this->_BUF_SIZE <= this->_Myres ? this->_Bx._Ptr
; 2011 : 			: this->_Bx._Buf);

  00000	83 79 14 10	 cmp	 DWORD PTR [ecx+20], 16	; 00000010H
  00004	72 03		 jb	 SHORT $LN3@Myptr
  00006	8b 01		 mov	 eax, DWORD PTR [ecx]

; 2012 : 		}

  00008	c3		 ret	 0
$LN3@Myptr:

; 2010 : 		return (this->_BUF_SIZE <= this->_Myres ? this->_Bx._Ptr
; 2011 : 			: this->_Bx._Buf);

  00009	8b c1		 mov	 eax, ecx

; 2012 : 		}

  0000b	c3		 ret	 0
?_Myptr@?$basic_string@DU?$char_traits@D@std@@V?$allocator@D@2@@std@@QBEPBDXZ ENDP ; std::basic_string<char,std::char_traits<char>,std::allocator<char> >::_Myptr
_TEXT	ENDS
PUBLIC	??1?$_String_val@DV?$allocator@D@std@@@std@@QAE@XZ ; std::_String_val<char,std::allocator<char> >::~_String_val<char,std::allocator<char> >
; Function compile flags: /Ogsp
;	COMDAT ??1?$_String_val@DV?$allocator@D@std@@@std@@QAE@XZ
_TEXT	SEGMENT
??1?$_String_val@DV?$allocator@D@std@@@std@@QAE@XZ PROC	; std::_String_val<char,std::allocator<char> >::~_String_val<char,std::allocator<char> >, COMDAT
; _this$ = ecx

; 459  : 		}

  00000	c3		 ret	 0
??1?$_String_val@DV?$allocator@D@std@@@std@@QAE@XZ ENDP	; std::_String_val<char,std::allocator<char> >::~_String_val<char,std::allocator<char> >
_TEXT	ENDS
PUBLIC	??0?$allocator@D@std@@QAE@XZ			; std::allocator<char>::allocator<char>
; Function compile flags: /Ogsp
; File c:\program files (x86)\microsoft visual studio 10.0\vc\include\xmemory
;	COMDAT ??0?$allocator@D@std@@QAE@XZ
_TEXT	SEGMENT
??0?$allocator@D@std@@QAE@XZ PROC			; std::allocator<char>::allocator<char>, COMDAT
; _this$ = ecx

; 161  : 	_ALLOCATOR() _THROW0()

  00000	8b c1		 mov	 eax, ecx

; 162  : 		{	// construct default allocator (do nothing)
; 163  : 		}

  00002	c3		 ret	 0
??0?$allocator@D@std@@QAE@XZ ENDP			; std::allocator<char>::allocator<char>
_TEXT	ENDS
PUBLIC	??0?$allocator@D@std@@QAE@ABV01@@Z		; std::allocator<char>::allocator<char>
; Function compile flags: /Ogsp
;	COMDAT ??0?$allocator@D@std@@QAE@ABV01@@Z
_TEXT	SEGMENT
___formal$ = 8						; size = 4
??0?$allocator@D@std@@QAE@ABV01@@Z PROC			; std::allocator<char>::allocator<char>, COMDAT
; _this$ = ecx

; 165  : 	_ALLOCATOR(const _ALLOCATOR<_Ty>&) _THROW0()

  00000	8b c1		 mov	 eax, ecx

; 166  : 		{	// construct by copying (do nothing)
; 167  : 		}

  00002	c2 04 00	 ret	 4
??0?$allocator@D@std@@QAE@ABV01@@Z ENDP			; std::allocator<char>::allocator<char>
_TEXT	ENDS
PUBLIC	?DecryptValueToPool@?$CEncrypt@H@@QAEXPAH@Z	; CEncrypt<int>::DecryptValueToPool
EXTRN	?DecryptByte@ccddaabb@@QBEXPBDPADH@Z:PROC	; ccddaabb::DecryptByte
; Function compile flags: /Ogsp
; File d:\lost saga for developer\youtube\tutorial\source\src\lsclient\encryptvalue.h
;	COMDAT ?DecryptValueToPool@?$CEncrypt@H@@QAEXPAH@Z
_TEXT	SEGMENT
_value$ = 8						; size = 4
?DecryptValueToPool@?$CEncrypt@H@@QAEXPAH@Z PROC	; CEncrypt<int>::DecryptValueToPool, COMDAT
; _this$ = ecx

; 837  : 	{

  00000	55		 push	 ebp
  00001	8b ec		 mov	 ebp, esp
  00003	56		 push	 esi

; 838  : 		m_RC5.DecryptByte( m_MemPool, m_TempMem, 4 );

  00004	8d 71 28	 lea	 esi, DWORD PTR [ecx+40]
  00007	6a 04		 push	 4
  00009	8d 41 1c	 lea	 eax, DWORD PTR [ecx+28]
  0000c	56		 push	 esi
  0000d	50		 push	 eax
  0000e	83 c1 0c	 add	 ecx, 12			; 0000000cH
  00011	e8 00 00 00 00	 call	 ?DecryptByte@ccddaabb@@QBEXPBDPADH@Z ; ccddaabb::DecryptByte

; 839  : 		*value = *((int*)m_TempMem);

  00016	8b 06		 mov	 eax, DWORD PTR [esi]
  00018	8b 4d 08	 mov	 ecx, DWORD PTR _value$[ebp]
  0001b	89 01		 mov	 DWORD PTR [ecx], eax
  0001d	5e		 pop	 esi

; 840  : 	}

  0001e	5d		 pop	 ebp
  0001f	c2 04 00	 ret	 4
?DecryptValueToPool@?$CEncrypt@H@@QAEXPAH@Z ENDP	; CEncrypt<int>::DecryptValueToPool
_TEXT	ENDS
PUBLIC	?_Myptr@?$basic_string@DU?$char_traits@D@std@@V?$allocator@D@2@@std@@QAEPADXZ ; std::basic_string<char,std::char_traits<char>,std::allocator<char> >::_Myptr
; Function compile flags: /Ogsp
; File c:\program files (x86)\microsoft visual studio 10.0\vc\include\xstring
;	COMDAT ?_Myptr@?$basic_string@DU?$char_traits@D@std@@V?$allocator@D@2@@std@@QAEPADXZ
_TEXT	SEGMENT
?_Myptr@?$basic_string@DU?$char_traits@D@std@@V?$allocator@D@2@@std@@QAEPADXZ PROC ; std::basic_string<char,std::char_traits<char>,std::allocator<char> >::_Myptr, COMDAT
; _this$ = ecx

; 2004 : 		return (this->_BUF_SIZE <= this->_Myres ? this->_Bx._Ptr
; 2005 : 			: this->_Bx._Buf);

  00000	83 79 14 10	 cmp	 DWORD PTR [ecx+20], 16	; 00000010H
  00004	72 03		 jb	 SHORT $LN3@Myptr@2
  00006	8b 01		 mov	 eax, DWORD PTR [ecx]

; 2006 : 		}

  00008	c3		 ret	 0
$LN3@Myptr@2:

; 2004 : 		return (this->_BUF_SIZE <= this->_Myres ? this->_Bx._Ptr
; 2005 : 			: this->_Bx._Buf);

  00009	8b c1		 mov	 eax, ecx

; 2006 : 		}

  0000b	c3		 ret	 0
?_Myptr@?$basic_string@DU?$char_traits@D@std@@V?$allocator@D@2@@std@@QAEPADXZ ENDP ; std::basic_string<char,std::char_traits<char>,std::allocator<char> >::_Myptr
_TEXT	ENDS
PUBLIC	??_C@_0BA@JFNIOLAK@string?5too?5long?$AA@	; `string'
PUBLIC	?_Xlen@?$basic_string@DU?$char_traits@D@std@@V?$allocator@D@2@@std@@QBEXXZ ; std::basic_string<char,std::char_traits<char>,std::allocator<char> >::_Xlen
;	COMDAT ??_C@_0BA@JFNIOLAK@string?5too?5long?$AA@
CONST	SEGMENT
??_C@_0BA@JFNIOLAK@string?5too?5long?$AA@ DB 'string too long', 00H ; `string'
; Function compile flags: /Ogsp
CONST	ENDS
;	COMDAT ?_Xlen@?$basic_string@DU?$char_traits@D@std@@V?$allocator@D@2@@std@@QBEXXZ
_TEXT	SEGMENT
?_Xlen@?$basic_string@DU?$char_traits@D@std@@V?$allocator@D@2@@std@@QBEXXZ PROC ; std::basic_string<char,std::char_traits<char>,std::allocator<char> >::_Xlen, COMDAT
; _this$ = ecx

; 2016 : 		_Xlength_error("string too long");

  00000	68 00 00 00 00	 push	 OFFSET ??_C@_0BA@JFNIOLAK@string?5too?5long?$AA@
  00005	ff 15 00 00 00
	00		 call	 DWORD PTR __imp_?_Xlength_error@std@@YAXPBD@Z
$LN4@Xlen@4:
$LN3@Xlen@4:
  0000b	cc		 int	 3
?_Xlen@?$basic_string@DU?$char_traits@D@std@@V?$allocator@D@2@@std@@QBEXXZ ENDP ; std::basic_string<char,std::char_traits<char>,std::allocator<char> >::_Xlen
_TEXT	ENDS
PUBLIC	??_C@_0BI@CFPLBAOH@invalid?5string?5position?$AA@ ; `string'
PUBLIC	?_Xran@?$basic_string@DU?$char_traits@D@std@@V?$allocator@D@2@@std@@QBEXXZ ; std::basic_string<char,std::char_traits<char>,std::allocator<char> >::_Xran
EXTRN	__imp_?_Xout_of_range@std@@YAXPBD@Z:PROC
;	COMDAT ??_C@_0BI@CFPLBAOH@invalid?5string?5position?$AA@
CONST	SEGMENT
??_C@_0BI@CFPLBAOH@invalid?5string?5position?$AA@ DB 'invalid string posi'
	DB	'tion', 00H					; `string'
; Function compile flags: /Ogsp
CONST	ENDS
;	COMDAT ?_Xran@?$basic_string@DU?$char_traits@D@std@@V?$allocator@D@2@@std@@QBEXXZ
_TEXT	SEGMENT
?_Xran@?$basic_string@DU?$char_traits@D@std@@V?$allocator@D@2@@std@@QBEXXZ PROC ; std::basic_string<char,std::char_traits<char>,std::allocator<char> >::_Xran, COMDAT
; _this$ = ecx

; 2021 : 		_Xout_of_range("invalid string position");

  00000	68 00 00 00 00	 push	 OFFSET ??_C@_0BI@CFPLBAOH@invalid?5string?5position?$AA@
  00005	ff 15 00 00 00
	00		 call	 DWORD PTR __imp_?_Xout_of_range@std@@YAXPBD@Z
$LN4@Xran:
$LN3@Xran:
  0000b	cc		 int	 3
?_Xran@?$basic_string@DU?$char_traits@D@std@@V?$allocator@D@2@@std@@QBEXXZ ENDP ; std::basic_string<char,std::char_traits<char>,std::allocator<char> >::_Xran
_TEXT	ENDS
PUBLIC	?deallocate@?$allocator@D@std@@QAEXPADI@Z	; std::allocator<char>::deallocate
; Function compile flags: /Ogsp
; File c:\program files (x86)\microsoft visual studio 10.0\vc\include\xmemory
;	COMDAT ?deallocate@?$allocator@D@std@@QAEXPADI@Z
_TEXT	SEGMENT
__Ptr$ = 8						; size = 4
___formal$ = 12						; size = 4
?deallocate@?$allocator@D@std@@QAEXPADI@Z PROC		; std::allocator<char>::deallocate, COMDAT
; _this$ = ecx

; 181  : 		{	// deallocate object at _Ptr, ignore size

  00000	55		 push	 ebp
  00001	8b ec		 mov	 ebp, esp

; 182  : 		::operator delete(_Ptr);

  00003	ff 75 08	 push	 DWORD PTR __Ptr$[ebp]
  00006	e8 00 00 00 00	 call	 ??3@YAXPAX@Z		; operator delete
  0000b	59		 pop	 ecx

; 183  : 		}

  0000c	5d		 pop	 ebp
  0000d	c2 08 00	 ret	 8
?deallocate@?$allocator@D@std@@QAEXPADI@Z ENDP		; std::allocator<char>::deallocate
_TEXT	ENDS
PUBLIC	?_Inside@?$basic_string@DU?$char_traits@D@std@@V?$allocator@D@2@@std@@QAE_NPBD@Z ; std::basic_string<char,std::char_traits<char>,std::allocator<char> >::_Inside
; Function compile flags: /Ogsp
; File c:\program files (x86)\microsoft visual studio 10.0\vc\include\xstring
;	COMDAT ?_Inside@?$basic_string@DU?$char_traits@D@std@@V?$allocator@D@2@@std@@QAE_NPBD@Z
_TEXT	SEGMENT
__Ptr$ = 8						; size = 4
?_Inside@?$basic_string@DU?$char_traits@D@std@@V?$allocator@D@2@@std@@QAE_NPBD@Z PROC ; std::basic_string<char,std::char_traits<char>,std::allocator<char> >::_Inside, COMDAT
; _this$ = ecx

; 1973 : 		{	// test if _Ptr points inside string

  00000	55		 push	 ebp
  00001	8b ec		 mov	 ebp, esp

; 1974 : 		if (_Ptr == 0 || _Ptr < _Myptr() || _Myptr() + this->_Mysize <= _Ptr)

  00003	83 7d 08 00	 cmp	 DWORD PTR __Ptr$[ebp], 0
  00007	74 2c		 je	 SHORT $LN2@Inside@3
  00009	8b 51 14	 mov	 edx, DWORD PTR [ecx+20]
  0000c	83 fa 10	 cmp	 edx, 16			; 00000010H
  0000f	72 04		 jb	 SHORT $LN8@Inside@3
  00011	8b 01		 mov	 eax, DWORD PTR [ecx]
  00013	eb 02		 jmp	 SHORT $LN9@Inside@3
$LN8@Inside@3:
  00015	8b c1		 mov	 eax, ecx
$LN9@Inside@3:
  00017	39 45 08	 cmp	 DWORD PTR __Ptr$[ebp], eax
  0001a	72 19		 jb	 SHORT $LN2@Inside@3
  0001c	83 fa 10	 cmp	 edx, 16			; 00000010H
  0001f	72 04		 jb	 SHORT $LN12@Inside@3
  00021	8b 01		 mov	 eax, DWORD PTR [ecx]
  00023	eb 02		 jmp	 SHORT $LN13@Inside@3
$LN12@Inside@3:
  00025	8b c1		 mov	 eax, ecx
$LN13@Inside@3:
  00027	8b 49 10	 mov	 ecx, DWORD PTR [ecx+16]
  0002a	03 c8		 add	 ecx, eax
  0002c	3b 4d 08	 cmp	 ecx, DWORD PTR __Ptr$[ebp]
  0002f	76 04		 jbe	 SHORT $LN2@Inside@3

; 1976 : 		else
; 1977 : 			return (true);

  00031	b0 01		 mov	 al, 1
  00033	eb 02		 jmp	 SHORT $LN1@Inside@3
$LN2@Inside@3:

; 1975 : 			return (false);	// don't ask

  00035	32 c0		 xor	 al, al
$LN1@Inside@3:

; 1978 : 		}

  00037	5d		 pop	 ebp
  00038	c2 04 00	 ret	 4
?_Inside@?$basic_string@DU?$char_traits@D@std@@V?$allocator@D@2@@std@@QAE_NPBD@Z ENDP ; std::basic_string<char,std::char_traits<char>,std::allocator<char> >::_Inside
_TEXT	ENDS
PUBLIC	?max_size@?$allocator@D@std@@QBEIXZ		; std::allocator<char>::max_size
; Function compile flags: /Ogsp
; File c:\program files (x86)\microsoft visual studio 10.0\vc\include\xmemory
;	COMDAT ?max_size@?$allocator@D@std@@QBEIXZ
_TEXT	SEGMENT
?max_size@?$allocator@D@std@@QBEIXZ PROC		; std::allocator<char>::max_size, COMDAT
; _this$ = ecx

; 218  : 		_SIZT _Count = (_SIZT)(-1) / sizeof (_Ty);
; 219  : 		return (0 < _Count ? _Count : 1);

  00000	83 c8 ff	 or	 eax, -1

; 220  : 		}

  00003	c3		 ret	 0
?max_size@?$allocator@D@std@@QBEIXZ ENDP		; std::allocator<char>::max_size
_TEXT	ENDS
PUBLIC	??$_Allocate@D@std@@YAPADIPAD@Z			; std::_Allocate<char>
; Function compile flags: /Ogsp
;	COMDAT ??$_Allocate@D@std@@YAPADIPAD@Z
_TEXT	SEGMENT
$T531963 = -12						; size = 12
$T531967 = 8						; size = 4
__Count$ = 8						; size = 4
___formal$ = 12						; size = 4
??$_Allocate@D@std@@YAPADIPAD@Z PROC			; std::_Allocate<char>, COMDAT

; 30   : 	{	// allocate storage for _Count elements of type _Ty

  00000	55		 push	 ebp
  00001	8b ec		 mov	 ebp, esp

; 31   : 	void *_Ptr = 0;

  00003	33 c0		 xor	 eax, eax
  00005	83 ec 0c	 sub	 esp, 12			; 0000000cH

; 32   : 
; 33   : 	if (_Count <= 0)

  00008	39 45 08	 cmp	 DWORD PTR __Count$[ebp], eax

; 34   : 		_Count = 0;
; 35   : 	else if (((_SIZT)(-1) / sizeof (_Ty) < _Count)

  0000b	76 39		 jbe	 SHORT $LN5@Allocate@4

; 36   : 		|| (_Ptr = ::operator new(_Count * sizeof (_Ty))) == 0)

  0000d	83 7d 08 ff	 cmp	 DWORD PTR __Count$[ebp], -1
  00011	77 0d		 ja	 SHORT $LN1@Allocate@4
  00013	ff 75 08	 push	 DWORD PTR __Count$[ebp]
  00016	e8 00 00 00 00	 call	 ??2@YAPAXI@Z		; operator new
  0001b	59		 pop	 ecx
  0001c	85 c0		 test	 eax, eax

; 38   : 
; 39   : 	return ((_Ty _FARQ *)_Ptr);

  0001e	75 26		 jne	 SHORT $LN5@Allocate@4
$LN1@Allocate@4:

; 37   : 		_THROW_NCEE(bad_alloc, 0);

  00020	83 65 08 00	 and	 DWORD PTR $T531967[ebp], 0
  00024	8d 45 08	 lea	 eax, DWORD PTR $T531967[ebp]
  00027	50		 push	 eax
  00028	8d 4d f4	 lea	 ecx, DWORD PTR $T531963[ebp]
  0002b	ff 15 00 00 00
	00		 call	 DWORD PTR __imp_??0exception@std@@QAE@ABQBD@Z
  00031	68 00 00 00 00	 push	 OFFSET __TI2?AVbad_alloc@std@@
  00036	8d 45 f4	 lea	 eax, DWORD PTR $T531963[ebp]
  00039	50		 push	 eax
  0003a	c7 45 f4 00 00
	00 00		 mov	 DWORD PTR $T531963[ebp], OFFSET ??_7bad_alloc@std@@6B@
  00041	e8 00 00 00 00	 call	 __CxxThrowException@8
$LN10@Allocate@4:
$LN5@Allocate@4:

; 40   : 	}

  00046	c9		 leave
  00047	c3		 ret	 0
$LN9@Allocate@4:
??$_Allocate@D@std@@YAPADIPAD@Z ENDP			; std::_Allocate<char>
_TEXT	ENDS
EXTRN	__imp_??0exception@std@@QAE@ABV01@@Z:PROC
; Function compile flags: /Ogsp
;	COMDAT ??0bad_alloc@std@@QAE@ABV01@@Z
_TEXT	SEGMENT
___that$ = 8						; size = 4
??0bad_alloc@std@@QAE@ABV01@@Z PROC			; std::bad_alloc::bad_alloc, COMDAT
; _this$ = ecx
  00000	55		 push	 ebp
  00001	8b ec		 mov	 ebp, esp
  00003	56		 push	 esi
  00004	ff 75 08	 push	 DWORD PTR ___that$[ebp]
  00007	8b f1		 mov	 esi, ecx
  00009	ff 15 00 00 00
	00		 call	 DWORD PTR __imp_??0exception@std@@QAE@ABV01@@Z
  0000f	c7 06 00 00 00
	00		 mov	 DWORD PTR [esi], OFFSET ??_7bad_alloc@std@@6B@
  00015	8b c6		 mov	 eax, esi
  00017	5e		 pop	 esi
  00018	5d		 pop	 ebp
  00019	c2 04 00	 ret	 4
??0bad_alloc@std@@QAE@ABV01@@Z ENDP			; std::bad_alloc::bad_alloc
_TEXT	ENDS
PUBLIC	??1?$_Vector_val@V?$basic_string@DU?$char_traits@D@std@@V?$allocator@D@2@@std@@V?$allocator@V?$basic_string@DU?$char_traits@D@std@@V?$allocator@D@2@@std@@@2@@std@@QAE@XZ ; std::_Vector_val<std::basic_string<char,std::char_traits<char>,std::allocator<char> >,std::allocator<std::basic_string<char,std::char_traits<char>,std::allocator<char> > > >::~_Vector_val<std::basic_string<char,std::char_traits<char>,std::allocator<char> >,std::allocator<std::basic_string<char,std::char_traits<char>,std::allocator<char> > > >
; Function compile flags: /Ogsp
; File c:\program files (x86)\microsoft visual studio 10.0\vc\include\vector
;	COMDAT ??1?$_Vector_val@V?$basic_string@DU?$char_traits@D@std@@V?$allocator@D@2@@std@@V?$allocator@V?$basic_string@DU?$char_traits@D@std@@V?$allocator@D@2@@std@@@2@@std@@QAE@XZ
_TEXT	SEGMENT
??1?$_Vector_val@V?$basic_string@DU?$char_traits@D@std@@V?$allocator@D@2@@std@@V?$allocator@V?$basic_string@DU?$char_traits@D@std@@V?$allocator@D@2@@std@@@2@@std@@QAE@XZ PROC ; std::_Vector_val<std::basic_string<char,std::char_traits<char>,std::allocator<char> >,std::allocator<std::basic_string<char,std::char_traits<char>,std::allocator<char> > > >::~_Vector_val<std::basic_string<char,std::char_traits<char>,std::allocator<char> >,std::allocator<std::basic_string<char,std::char_traits<char>,std::allocator<char> > > >, COMDAT
; _this$ = ecx

; 434  : 		}

  00000	c3		 ret	 0
??1?$_Vector_val@V?$basic_string@DU?$char_traits@D@std@@V?$allocator@D@2@@std@@V?$allocator@V?$basic_string@DU?$char_traits@D@std@@V?$allocator@D@2@@std@@@2@@std@@QAE@XZ ENDP ; std::_Vector_val<std::basic_string<char,std::char_traits<char>,std::allocator<char> >,std::allocator<std::basic_string<char,std::char_traits<char>,std::allocator<char> > > >::~_Vector_val<std::basic_string<char,std::char_traits<char>,std::allocator<char> >,std::allocator<std::basic_string<char,std::char_traits<char>,std::allocator<char> > > >
_TEXT	ENDS
PUBLIC	?deallocate@?$allocator@V?$basic_string@DU?$char_traits@D@std@@V?$allocator@D@2@@std@@@std@@QAEXPAV?$basic_string@DU?$char_traits@D@std@@V?$allocator@D@2@@2@I@Z ; std::allocator<std::basic_string<char,std::char_traits<char>,std::allocator<char> > >::deallocate
; Function compile flags: /Ogsp
; File c:\program files (x86)\microsoft visual studio 10.0\vc\include\xmemory
;	COMDAT ?deallocate@?$allocator@V?$basic_string@DU?$char_traits@D@std@@V?$allocator@D@2@@std@@@std@@QAEXPAV?$basic_string@DU?$char_traits@D@std@@V?$allocator@D@2@@2@I@Z
_TEXT	SEGMENT
__Ptr$ = 8						; size = 4
___formal$ = 12						; size = 4
?deallocate@?$allocator@V?$basic_string@DU?$char_traits@D@std@@V?$allocator@D@2@@std@@@std@@QAEXPAV?$basic_string@DU?$char_traits@D@std@@V?$allocator@D@2@@2@I@Z PROC ; std::allocator<std::basic_string<char,std::char_traits<char>,std::allocator<char> > >::deallocate, COMDAT
; _this$ = ecx

; 181  : 		{	// deallocate object at _Ptr, ignore size

  00000	55		 push	 ebp
  00001	8b ec		 mov	 ebp, esp

; 182  : 		::operator delete(_Ptr);

  00003	ff 75 08	 push	 DWORD PTR __Ptr$[ebp]
  00006	e8 00 00 00 00	 call	 ??3@YAXPAX@Z		; operator delete
  0000b	59		 pop	 ecx

; 183  : 		}

  0000c	5d		 pop	 ebp
  0000d	c2 08 00	 ret	 8
?deallocate@?$allocator@V?$basic_string@DU?$char_traits@D@std@@V?$allocator@D@2@@std@@@std@@QAEXPAV?$basic_string@DU?$char_traits@D@std@@V?$allocator@D@2@@2@I@Z ENDP ; std::allocator<std::basic_string<char,std::char_traits<char>,std::allocator<char> > >::deallocate
_TEXT	ENDS
PUBLIC	??$_Ptr_cat@V?$basic_string@DU?$char_traits@D@std@@V?$allocator@D@2@@std@@V12@@std@@YA?AU_Nonscalar_ptr_iterator_tag@0@PAV?$basic_string@DU?$char_traits@D@std@@V?$allocator@D@2@@0@0@Z ; std::_Ptr_cat<std::basic_string<char,std::char_traits<char>,std::allocator<char> >,std::basic_string<char,std::char_traits<char>,std::allocator<char> > >
; Function compile flags: /Ogsp
; File c:\program files (x86)\microsoft visual studio 10.0\vc\include\xutility
;	COMDAT ??$_Ptr_cat@V?$basic_string@DU?$char_traits@D@std@@V?$allocator@D@2@@std@@V12@@std@@YA?AU_Nonscalar_ptr_iterator_tag@0@PAV?$basic_string@DU?$char_traits@D@std@@V?$allocator@D@2@@0@0@Z
_TEXT	SEGMENT
__Cat$ = -1						; size = 1
___formal$ = 8						; size = 4
___formal$ = 12						; size = 4
??$_Ptr_cat@V?$basic_string@DU?$char_traits@D@std@@V?$allocator@D@2@@std@@V12@@std@@YA?AU_Nonscalar_ptr_iterator_tag@0@PAV?$basic_string@DU?$char_traits@D@std@@V?$allocator@D@2@@0@0@Z PROC ; std::_Ptr_cat<std::basic_string<char,std::char_traits<char>,std::allocator<char> >,std::basic_string<char,std::char_traits<char>,std::allocator<char> > >, COMDAT

; 516  : 	{	// return pointer category from pointers

  00000	55		 push	 ebp
  00001	8b ec		 mov	 ebp, esp
  00003	51		 push	 ecx

; 517  : 	typename _Ptr_cat_helper<_Elem1, _Elem2>::_Type _Cat;
; 518  : 	return (_Cat);

  00004	8a 45 ff	 mov	 al, BYTE PTR __Cat$[ebp]

; 519  : 	}

  00007	c9		 leave
  00008	c3		 ret	 0
??$_Ptr_cat@V?$basic_string@DU?$char_traits@D@std@@V?$allocator@D@2@@std@@V12@@std@@YA?AU_Nonscalar_ptr_iterator_tag@0@PAV?$basic_string@DU?$char_traits@D@std@@V?$allocator@D@2@@0@0@Z ENDP ; std::_Ptr_cat<std::basic_string<char,std::char_traits<char>,std::allocator<char> >,std::basic_string<char,std::char_traits<char>,std::allocator<char> > >
_TEXT	ENDS
PUBLIC	??_R0?AVioBaseChar@@@8				; ioBaseChar `RTTI Type Descriptor'
PUBLIC	?ToBaseChar@@YAPAVioBaseChar@@PAVioGameEntity@@@Z ; ToBaseChar
;	COMDAT ??_R0?AVioBaseChar@@@8
; File d:\lost saga for developer\youtube\tutorial\source\src\lsclient\iobasechar.h
_DATA	SEGMENT
??_R0?AVioBaseChar@@@8 DD FLAT:??_7type_info@@6B@	; ioBaseChar `RTTI Type Descriptor'
	DD	00H
	DB	'.?AVioBaseChar@@', 00H
; Function compile flags: /Ogsp
_DATA	ENDS
;	COMDAT ?ToBaseChar@@YAPAVioBaseChar@@PAVioGameEntity@@@Z
_TEXT	SEGMENT
_pObj$ = 8						; size = 4
?ToBaseChar@@YAPAVioBaseChar@@PAVioGameEntity@@@Z PROC	; ToBaseChar, COMDAT

; 4326 : {

  00000	55		 push	 ebp
  00001	8b ec		 mov	 ebp, esp
  00003	56		 push	 esi

; 4327 : 	ioPlayEntity *pPlay = ToPlayEntity( pObj );

  00004	ff 75 08	 push	 DWORD PTR _pObj$[ebp]
  00007	e8 00 00 00 00	 call	 ?ToPlayEntity@@YAPAVioPlayEntity@@PAVioGameEntity@@@Z ; ToPlayEntity
  0000c	8b f0		 mov	 esi, eax
  0000e	59		 pop	 ecx

; 4328 : 	if( !pPlay || pPlay->GetSubType() != ioPlayEntity::PST_CHAR )

  0000f	85 f6		 test	 esi, esi
  00011	74 25		 je	 SHORT $LN1@ToBaseChar
  00013	8b 06		 mov	 eax, DWORD PTR [esi]
  00015	8b ce		 mov	 ecx, esi
  00017	ff 90 a4 00 00
	00		 call	 DWORD PTR [eax+164]
  0001d	85 c0		 test	 eax, eax
  0001f	75 17		 jne	 SHORT $LN1@ToBaseChar

; 4330 : 
; 4331 : 	return dynamic_cast< ioBaseChar* >( pPlay );

  00021	50		 push	 eax
  00022	68 00 00 00 00	 push	 OFFSET ??_R0?AVioBaseChar@@@8
  00027	68 00 00 00 00	 push	 OFFSET ??_R0?AVioPlayEntity@@@8
  0002c	50		 push	 eax
  0002d	56		 push	 esi
  0002e	e8 00 00 00 00	 call	 ___RTDynamicCast
  00033	83 c4 14	 add	 esp, 20			; 00000014H
  00036	eb 02		 jmp	 SHORT $LN3@ToBaseChar
$LN1@ToBaseChar:

; 4329 : 		return NULL;

  00038	33 c0		 xor	 eax, eax
$LN3@ToBaseChar:
  0003a	5e		 pop	 esi

; 4332 : }

  0003b	5d		 pop	 ebp
  0003c	c3		 ret	 0
?ToBaseChar@@YAPAVioBaseChar@@PAVioGameEntity@@@Z ENDP	; ToBaseChar
_TEXT	ENDS
PUBLIC	??_R0?AVioNpcChar@@@8				; ioNpcChar `RTTI Type Descriptor'
PUBLIC	?ToNpcChar@@YAPAVioNpcChar@@PAVioGameEntity@@@Z	; ToNpcChar
;	COMDAT ??_R0?AVioNpcChar@@@8
; File d:\lost saga for developer\youtube\tutorial\source\src\lsclient\ionpcchar.h
_DATA	SEGMENT
??_R0?AVioNpcChar@@@8 DD FLAT:??_7type_info@@6B@	; ioNpcChar `RTTI Type Descriptor'
	DD	00H
	DB	'.?AVioNpcChar@@', 00H
; Function compile flags: /Ogsp
_DATA	ENDS
;	COMDAT ?ToNpcChar@@YAPAVioNpcChar@@PAVioGameEntity@@@Z
_TEXT	SEGMENT
_pObj$ = 8						; size = 4
?ToNpcChar@@YAPAVioNpcChar@@PAVioGameEntity@@@Z PROC	; ToNpcChar, COMDAT

; 361  : {

  00000	55		 push	 ebp
  00001	8b ec		 mov	 ebp, esp
  00003	56		 push	 esi

; 362  : 	ioBaseChar *pChar = ToBaseChar( pObj );

  00004	ff 75 08	 push	 DWORD PTR _pObj$[ebp]
  00007	e8 00 00 00 00	 call	 ?ToBaseChar@@YAPAVioBaseChar@@PAVioGameEntity@@@Z ; ToBaseChar
  0000c	8b f0		 mov	 esi, eax
  0000e	59		 pop	 ecx

; 363  : 	if( !pChar || pChar->GetControlType() != CONTROL_AI )

  0000f	85 f6		 test	 esi, esi
  00011	74 28		 je	 SHORT $LN1@ToNpcChar
  00013	8b 06		 mov	 eax, DWORD PTR [esi]
  00015	8b ce		 mov	 ecx, esi
  00017	ff 90 ec 00 00
	00		 call	 DWORD PTR [eax+236]
  0001d	83 f8 02	 cmp	 eax, 2
  00020	75 19		 jne	 SHORT $LN1@ToNpcChar

; 365  : 
; 366  : 	return dynamic_cast< ioNpcChar* >(pChar);

  00022	6a 00		 push	 0
  00024	68 00 00 00 00	 push	 OFFSET ??_R0?AVioNpcChar@@@8
  00029	68 00 00 00 00	 push	 OFFSET ??_R0?AVioBaseChar@@@8
  0002e	6a 00		 push	 0
  00030	56		 push	 esi
  00031	e8 00 00 00 00	 call	 ___RTDynamicCast
  00036	83 c4 14	 add	 esp, 20			; 00000014H
  00039	eb 02		 jmp	 SHORT $LN3@ToNpcChar
$LN1@ToNpcChar:

; 364  : 		return NULL;

  0003b	33 c0		 xor	 eax, eax
$LN3@ToNpcChar:
  0003d	5e		 pop	 esi

; 367  : }

  0003e	5d		 pop	 ebp
  0003f	c3		 ret	 0
?ToNpcChar@@YAPAVioNpcChar@@PAVioGameEntity@@@Z ENDP	; ToNpcChar
_TEXT	ENDS
PUBLIC	?GetHandEntity@ioClientAniEventHandler@@IAEPAVioEntity@@XZ ; ioClientAniEventHandler::GetHandEntity
EXTRN	__imp_?GetEntity@ioEntityGroup@@QAEPAVioEntity@@ABVioHashString@@@Z:PROC
EXTRN	__imp_?IsEmpty@ioHashString@@QBE_NXZ:PROC
EXTRN	?GetBodyMesh@ioArmorItem@@QBEABVioHashString@@PAVioBaseChar@@@Z:PROC ; ioArmorItem::GetBodyMesh
EXTRN	?GetHandMesh@ioArmorItem@@QBEABVioHashString@@PAVioBaseChar@@@Z:PROC ; ioArmorItem::GetHandMesh
EXTRN	?HasHandMesh@ioArmorItem@@QBE_NPAVioBaseChar@@@Z:PROC ; ioArmorItem::HasHandMesh
EXTRN	?GetArmor@ioBaseChar@@QBEPAVioArmorItem@@XZ:PROC ; ioBaseChar::GetArmor
;	COMDAT xdata$x
; File d:\lost saga for developer\youtube\tutorial\source\src\lsclient\ioequipslot.h
xdata$x	SEGMENT
__unwindtable$?GetHandEntity@ioClientAniEventHandler@@IAEPAVioEntity@@XZ DD 0ffffffffH
	DD	FLAT:__unwindfunclet$?GetHandEntity@ioClientAniEventHandler@@IAEPAVioEntity@@XZ$0
__ehfuncinfo$?GetHandEntity@ioClientAniEventHandler@@IAEPAVioEntity@@XZ DD 019930522H
	DD	01H
	DD	FLAT:__unwindtable$?GetHandEntity@ioClientAniEventHandler@@IAEPAVioEntity@@XZ
	DD	2 DUP(00H)
	DD	2 DUP(00H)
	DD	00H
	DD	01H
; Function compile flags: /Ogsp
; File d:\lost saga for developer\youtube\tutorial\source\src\lsclient\ioclientanieventhandler.cpp
xdata$x	ENDS
;	COMDAT ?GetHandEntity@ioClientAniEventHandler@@IAEPAVioEntity@@XZ
_TEXT	SEGMENT
_szMeshName$ = -28					; size = 16
__$EHRec$ = -12						; size = 12
?GetHandEntity@ioClientAniEventHandler@@IAEPAVioEntity@@XZ PROC ; ioClientAniEventHandler::GetHandEntity, COMDAT
; _this$ = ecx

; 621  : {

  00000	6a 10		 push	 16			; 00000010H
  00002	b8 00 00 00 00	 mov	 eax, __ehhandler$?GetHandEntity@ioClientAniEventHandler@@IAEPAVioEntity@@XZ
  00007	e8 00 00 00 00	 call	 __EH_prolog3
  0000c	8b f1		 mov	 esi, ecx

; 622  : 	if( !m_pChar )	return NULL;

  0000e	83 7e 18 00	 cmp	 DWORD PTR [esi+24], 0
  00012	75 08		 jne	 SHORT $LN6@GetHandEnt
  00014	33 c0		 xor	 eax, eax
$LN7@GetHandEnt:

; 643  : }

  00016	e8 00 00 00 00	 call	 __EH_epilog3
  0001b	c3		 ret	 0
$LN6@GetHandEnt:

; 623  : 
; 624  : 	ioHashString szMeshName;

  0001c	8d 4d e4	 lea	 ecx, DWORD PTR _szMeshName$[ebp]
  0001f	ff 15 00 00 00
	00		 call	 DWORD PTR __imp_??0ioHashString@@QAE@XZ

; 625  : 
; 626  : 	ioArmorItem *pArmor = m_pChar->GetArmor();

  00025	8b 4e 18	 mov	 ecx, DWORD PTR [esi+24]
  00028	83 65 fc 00	 and	 DWORD PTR __$EHRec$[ebp+8], 0
  0002c	e8 00 00 00 00	 call	 ?GetArmor@ioBaseChar@@QBEPAVioArmorItem@@XZ ; ioBaseChar::GetArmor
  00031	8b f8		 mov	 edi, eax

; 627  : 	if( pArmor )

  00033	85 ff		 test	 edi, edi
  00035	74 21		 je	 SHORT $LN5@GetHandEnt

; 628  : 	{
; 629  : 		if( pArmor->HasHandMesh(m_pChar) )

  00037	ff 76 18	 push	 DWORD PTR [esi+24]
  0003a	8b cf		 mov	 ecx, edi
  0003c	e8 00 00 00 00	 call	 ?HasHandMesh@ioArmorItem@@QBE_NPAVioBaseChar@@@Z ; ioArmorItem::HasHandMesh

; 630  : 			szMeshName = pArmor->GetHandMesh(m_pChar);

  00041	ff 76 18	 push	 DWORD PTR [esi+24]
  00044	8b cf		 mov	 ecx, edi
  00046	84 c0		 test	 al, al
  00048	74 07		 je	 SHORT $LN4@GetHandEnt
  0004a	e8 00 00 00 00	 call	 ?GetHandMesh@ioArmorItem@@QBEABVioHashString@@PAVioBaseChar@@@Z ; ioArmorItem::GetHandMesh

; 631  : 		else

  0004f	eb 15		 jmp	 SHORT $LN16@GetHandEnt
$LN4@GetHandEnt:

; 632  : 			szMeshName = pArmor->GetBodyMesh(m_pChar);

  00051	e8 00 00 00 00	 call	 ?GetBodyMesh@ioArmorItem@@QBEABVioHashString@@PAVioBaseChar@@@Z ; ioArmorItem::GetBodyMesh

; 633  : 	}
; 634  : 	else

  00056	eb 0e		 jmp	 SHORT $LN16@GetHandEnt
$LN5@GetHandEnt:

; 635  : 	{
; 636  : 		szMeshName = m_pChar->GetEquipSlot()->GetDefaultHandMesh();

  00058	8b 46 18	 mov	 eax, DWORD PTR [esi+24]
  0005b	8b 80 48 03 00
	00		 mov	 eax, DWORD PTR [eax+840]
  00061	05 2c 01 00 00	 add	 eax, 300		; 0000012cH
$LN16@GetHandEnt:
  00066	50		 push	 eax
  00067	8d 4d e4	 lea	 ecx, DWORD PTR _szMeshName$[ebp]
  0006a	ff 15 00 00 00
	00		 call	 DWORD PTR __imp_??4ioHashString@@QAEAAV0@ABV0@@Z

; 637  : 	}
; 638  : 
; 639  : 	if( szMeshName.IsEmpty() )

  00070	8d 4d e4	 lea	 ecx, DWORD PTR _szMeshName$[ebp]
  00073	ff 15 00 00 00
	00		 call	 DWORD PTR __imp_?IsEmpty@ioHashString@@QBE_NXZ
  00079	84 c0		 test	 al, al
  0007b	74 13		 je	 SHORT $LN1@GetHandEnt
  0007d	33 f6		 xor	 esi, esi
$LN14@GetHandEnt:

; 640  : 		return NULL;

  0007f	83 4d fc ff	 or	 DWORD PTR __$EHRec$[ebp+8], -1
  00083	8d 4d e4	 lea	 ecx, DWORD PTR _szMeshName$[ebp]
  00086	ff 15 00 00 00
	00		 call	 DWORD PTR __imp_??1ioHashString@@QAE@XZ
  0008c	8b c6		 mov	 eax, esi
  0008e	eb 86		 jmp	 SHORT $LN7@GetHandEnt
$LN1@GetHandEnt:

; 641  : 
; 642  : 	return m_pOwner->GetEntity( szMeshName );

  00090	8b 4e 04	 mov	 ecx, DWORD PTR [esi+4]
  00093	8d 45 e4	 lea	 eax, DWORD PTR _szMeshName$[ebp]
  00096	50		 push	 eax
  00097	ff 15 00 00 00
	00		 call	 DWORD PTR __imp_?GetEntity@ioEntityGroup@@QAEPAVioEntity@@ABVioHashString@@@Z
  0009d	8b f0		 mov	 esi, eax
  0009f	eb de		 jmp	 SHORT $LN14@GetHandEnt
_TEXT	ENDS
;	COMDAT text$x
text$x	SEGMENT
__unwindfunclet$?GetHandEntity@ioClientAniEventHandler@@IAEPAVioEntity@@XZ$0:
  00000	8d 4d e4	 lea	 ecx, DWORD PTR _szMeshName$[ebp]
  00003	ff 25 00 00 00
	00		 jmp	 DWORD PTR __imp_??1ioHashString@@QAE@XZ
__ehhandler$?GetHandEntity@ioClientAniEventHandler@@IAEPAVioEntity@@XZ:
  00009	8b 54 24 08	 mov	 edx, DWORD PTR [esp+8]
  0000d	8d 42 0c	 lea	 eax, DWORD PTR [edx+12]
  00010	8b 4a e0	 mov	 ecx, DWORD PTR [edx-32]
  00013	33 c8		 xor	 ecx, eax
  00015	e8 00 00 00 00	 call	 @__security_check_cookie@4
  0001a	b8 00 00 00 00	 mov	 eax, OFFSET __ehfuncinfo$?GetHandEntity@ioClientAniEventHandler@@IAEPAVioEntity@@XZ
  0001f	e9 00 00 00 00	 jmp	 ___CxxFrameHandler3
text$x	ENDS
?GetHandEntity@ioClientAniEventHandler@@IAEPAVioEntity@@XZ ENDP ; ioClientAniEventHandler::GetHandEntity
PUBLIC	?GetLegEntity@ioClientAniEventHandler@@IAEPAVioEntity@@XZ ; ioClientAniEventHandler::GetLegEntity
;	COMDAT xdata$x
; File d:\lost saga for developer\youtube\tutorial\source\src\lsclient\ioequipslot.h
xdata$x	SEGMENT
__unwindtable$?GetLegEntity@ioClientAniEventHandler@@IAEPAVioEntity@@XZ DD 0ffffffffH
	DD	FLAT:__unwindfunclet$?GetLegEntity@ioClientAniEventHandler@@IAEPAVioEntity@@XZ$0
__ehfuncinfo$?GetLegEntity@ioClientAniEventHandler@@IAEPAVioEntity@@XZ DD 019930522H
	DD	01H
	DD	FLAT:__unwindtable$?GetLegEntity@ioClientAniEventHandler@@IAEPAVioEntity@@XZ
	DD	2 DUP(00H)
	DD	2 DUP(00H)
	DD	00H
	DD	01H
; Function compile flags: /Ogsp
; File d:\lost saga for developer\youtube\tutorial\source\src\lsclient\ioclientanieventhandler.cpp
xdata$x	ENDS
;	COMDAT ?GetLegEntity@ioClientAniEventHandler@@IAEPAVioEntity@@XZ
_TEXT	SEGMENT
_szMeshName$ = -28					; size = 16
__$EHRec$ = -12						; size = 12
?GetLegEntity@ioClientAniEventHandler@@IAEPAVioEntity@@XZ PROC ; ioClientAniEventHandler::GetLegEntity, COMDAT
; _this$ = ecx

; 646  : {

  00000	6a 10		 push	 16			; 00000010H
  00002	b8 00 00 00 00	 mov	 eax, __ehhandler$?GetLegEntity@ioClientAniEventHandler@@IAEPAVioEntity@@XZ
  00007	e8 00 00 00 00	 call	 __EH_prolog3
  0000c	8b f1		 mov	 esi, ecx

; 647  : 	if( !m_pChar )	return NULL;

  0000e	83 7e 18 00	 cmp	 DWORD PTR [esi+24], 0
  00012	75 08		 jne	 SHORT $LN4@GetLegEnti
  00014	33 c0		 xor	 eax, eax
$LN5@GetLegEnti:

; 665  : }

  00016	e8 00 00 00 00	 call	 __EH_epilog3
  0001b	c3		 ret	 0
$LN4@GetLegEnti:

; 648  : 
; 649  : 	ioHashString szMeshName;

  0001c	8d 4d e4	 lea	 ecx, DWORD PTR _szMeshName$[ebp]
  0001f	ff 15 00 00 00
	00		 call	 DWORD PTR __imp_??0ioHashString@@QAE@XZ

; 650  : 
; 651  : 	ioArmorItem *pArmor = m_pChar->GetArmor();

  00025	8b 4e 18	 mov	 ecx, DWORD PTR [esi+24]
  00028	83 65 fc 00	 and	 DWORD PTR __$EHRec$[ebp+8], 0
  0002c	e8 00 00 00 00	 call	 ?GetArmor@ioBaseChar@@QBEPAVioArmorItem@@XZ ; ioBaseChar::GetArmor

; 652  : 	if( pArmor )

  00031	85 c0		 test	 eax, eax
  00033	74 0c		 je	 SHORT $LN3@GetLegEnti

; 653  : 	{
; 654  : 		szMeshName = pArmor->GetBodyMesh(m_pChar);

  00035	ff 76 18	 push	 DWORD PTR [esi+24]
  00038	8b c8		 mov	 ecx, eax
  0003a	e8 00 00 00 00	 call	 ?GetBodyMesh@ioArmorItem@@QBEABVioHashString@@PAVioBaseChar@@@Z ; ioArmorItem::GetBodyMesh

; 655  : 	}
; 656  : 	else

  0003f	eb 0e		 jmp	 SHORT $LN14@GetLegEnti
$LN3@GetLegEnti:

; 657  : 	{
; 658  : 		szMeshName = m_pChar->GetEquipSlot()->GetDefaultUnderwearMesh();

  00041	8b 46 18	 mov	 eax, DWORD PTR [esi+24]
  00044	8b 80 48 03 00
	00		 mov	 eax, DWORD PTR [eax+840]
  0004a	05 8c 00 00 00	 add	 eax, 140		; 0000008cH
$LN14@GetLegEnti:
  0004f	50		 push	 eax
  00050	8d 4d e4	 lea	 ecx, DWORD PTR _szMeshName$[ebp]
  00053	ff 15 00 00 00
	00		 call	 DWORD PTR __imp_??4ioHashString@@QAEAAV0@ABV0@@Z

; 659  : 	}
; 660  : 
; 661  : 	if( szMeshName.IsEmpty() )

  00059	8d 4d e4	 lea	 ecx, DWORD PTR _szMeshName$[ebp]
  0005c	ff 15 00 00 00
	00		 call	 DWORD PTR __imp_?IsEmpty@ioHashString@@QBE_NXZ
  00062	84 c0		 test	 al, al
  00064	74 13		 je	 SHORT $LN1@GetLegEnti
  00066	33 f6		 xor	 esi, esi
$LN12@GetLegEnti:

; 662  : 		return NULL;

  00068	83 4d fc ff	 or	 DWORD PTR __$EHRec$[ebp+8], -1
  0006c	8d 4d e4	 lea	 ecx, DWORD PTR _szMeshName$[ebp]
  0006f	ff 15 00 00 00
	00		 call	 DWORD PTR __imp_??1ioHashString@@QAE@XZ
  00075	8b c6		 mov	 eax, esi
  00077	eb 9d		 jmp	 SHORT $LN5@GetLegEnti
$LN1@GetLegEnti:

; 663  : 
; 664  : 	return m_pOwner->GetEntity( szMeshName );

  00079	8b 4e 04	 mov	 ecx, DWORD PTR [esi+4]
  0007c	8d 45 e4	 lea	 eax, DWORD PTR _szMeshName$[ebp]
  0007f	50		 push	 eax
  00080	ff 15 00 00 00
	00		 call	 DWORD PTR __imp_?GetEntity@ioEntityGroup@@QAEPAVioEntity@@ABVioHashString@@@Z
  00086	8b f0		 mov	 esi, eax
  00088	eb de		 jmp	 SHORT $LN12@GetLegEnti
_TEXT	ENDS
;	COMDAT text$x
text$x	SEGMENT
__unwindfunclet$?GetLegEntity@ioClientAniEventHandler@@IAEPAVioEntity@@XZ$0:
  00000	8d 4d e4	 lea	 ecx, DWORD PTR _szMeshName$[ebp]
  00003	ff 25 00 00 00
	00		 jmp	 DWORD PTR __imp_??1ioHashString@@QAE@XZ
__ehhandler$?GetLegEntity@ioClientAniEventHandler@@IAEPAVioEntity@@XZ:
  00009	8b 54 24 08	 mov	 edx, DWORD PTR [esp+8]
  0000d	8d 42 0c	 lea	 eax, DWORD PTR [edx+12]
  00010	8b 4a e0	 mov	 ecx, DWORD PTR [edx-32]
  00013	33 c8		 xor	 ecx, eax
  00015	e8 00 00 00 00	 call	 @__security_check_cookie@4
  0001a	b8 00 00 00 00	 mov	 eax, OFFSET __ehfuncinfo$?GetLegEntity@ioClientAniEventHandler@@IAEPAVioEntity@@XZ
  0001f	e9 00 00 00 00	 jmp	 ___CxxFrameHandler3
text$x	ENDS
?GetLegEntity@ioClientAniEventHandler@@IAEPAVioEntity@@XZ ENDP ; ioClientAniEventHandler::GetLegEntity
PUBLIC	??0?$_Vector_iterator@V?$_Vector_val@UAniEventInfo@@V?$allocator@UAniEventInfo@@@std@@@std@@@std@@QAE@XZ ; std::_Vector_iterator<std::_Vector_val<AniEventInfo,std::allocator<AniEventInfo> > >::_Vector_iterator<std::_Vector_val<AniEventInfo,std::allocator<AniEventInfo> > >
; Function compile flags: /Ogsp
; File c:\program files (x86)\microsoft visual studio 10.0\vc\include\vector
;	COMDAT ??0?$_Vector_iterator@V?$_Vector_val@UAniEventInfo@@V?$allocator@UAniEventInfo@@@std@@@std@@@std@@QAE@XZ
_TEXT	SEGMENT
??0?$_Vector_iterator@V?$_Vector_val@UAniEventInfo@@V?$allocator@UAniEventInfo@@@std@@@std@@@std@@QAE@XZ PROC ; std::_Vector_iterator<std::_Vector_val<AniEventInfo,std::allocator<AniEventInfo> > >::_Vector_iterator<std::_Vector_val<AniEventInfo,std::allocator<AniEventInfo> > >, COMDAT
; _this$ = ecx

; 298  : 	_Vector_iterator()

  00000	8b c1		 mov	 eax, ecx
  00002	83 20 00	 and	 DWORD PTR [eax], 0

; 299  : 		{	// construct with null vector pointer
; 300  : 		}

  00005	c3		 ret	 0
??0?$_Vector_iterator@V?$_Vector_val@UAniEventInfo@@V?$allocator@UAniEventInfo@@@std@@@std@@@std@@QAE@XZ ENDP ; std::_Vector_iterator<std::_Vector_val<AniEventInfo,std::allocator<AniEventInfo> > >::_Vector_iterator<std::_Vector_val<AniEventInfo,std::allocator<AniEventInfo> > >
_TEXT	ENDS
PUBLIC	??D?$_Vector_iterator@V?$_Vector_val@UAniEventInfo@@V?$allocator@UAniEventInfo@@@std@@@std@@@std@@QBEAAUAniEventInfo@@XZ ; std::_Vector_iterator<std::_Vector_val<AniEventInfo,std::allocator<AniEventInfo> > >::operator*
; Function compile flags: /Ogsp
;	COMDAT ??D?$_Vector_iterator@V?$_Vector_val@UAniEventInfo@@V?$allocator@UAniEventInfo@@@std@@@std@@@std@@QBEAAUAniEventInfo@@XZ
_TEXT	SEGMENT
??D?$_Vector_iterator@V?$_Vector_val@UAniEventInfo@@V?$allocator@UAniEventInfo@@@std@@@std@@@std@@QBEAAUAniEventInfo@@XZ PROC ; std::_Vector_iterator<std::_Vector_val<AniEventInfo,std::allocator<AniEventInfo> > >::operator*, COMDAT
; _this$ = ecx

; 322  : 		return ((reference)**(_Mybase *)this);

  00000	8b 01		 mov	 eax, DWORD PTR [ecx]

; 323  : 		}

  00002	c3		 ret	 0
??D?$_Vector_iterator@V?$_Vector_val@UAniEventInfo@@V?$allocator@UAniEventInfo@@@std@@@std@@@std@@QBEAAUAniEventInfo@@XZ ENDP ; std::_Vector_iterator<std::_Vector_val<AniEventInfo,std::allocator<AniEventInfo> > >::operator*
_TEXT	ENDS
PUBLIC	??E?$_Vector_iterator@V?$_Vector_val@UAniEventInfo@@V?$allocator@UAniEventInfo@@@std@@@std@@@std@@QAEAAV01@XZ ; std::_Vector_iterator<std::_Vector_val<AniEventInfo,std::allocator<AniEventInfo> > >::operator++
; Function compile flags: /Ogsp
;	COMDAT ??E?$_Vector_iterator@V?$_Vector_val@UAniEventInfo@@V?$allocator@UAniEventInfo@@@std@@@std@@@std@@QAEAAV01@XZ
_TEXT	SEGMENT
??E?$_Vector_iterator@V?$_Vector_val@UAniEventInfo@@V?$allocator@UAniEventInfo@@@std@@@std@@@std@@QAEAAV01@XZ PROC ; std::_Vector_iterator<std::_Vector_val<AniEventInfo,std::allocator<AniEventInfo> > >::operator++, COMDAT
; _this$ = ecx

; 331  : 		{	// preincrement

  00000	8b c1		 mov	 eax, ecx

; 332  : 		++*(_Mybase *)this;

  00002	83 00 20	 add	 DWORD PTR [eax], 32	; 00000020H

; 333  : 		return (*this);
; 334  : 		}

  00005	c3		 ret	 0
??E?$_Vector_iterator@V?$_Vector_val@UAniEventInfo@@V?$allocator@UAniEventInfo@@@std@@@std@@@std@@QAEAAV01@XZ ENDP ; std::_Vector_iterator<std::_Vector_val<AniEventInfo,std::allocator<AniEventInfo> > >::operator++
_TEXT	ENDS
PUBLIC	??E?$_Vector_iterator@V?$_Vector_val@UAniEventInfo@@V?$allocator@UAniEventInfo@@@std@@@std@@@std@@QAE?AV01@H@Z ; std::_Vector_iterator<std::_Vector_val<AniEventInfo,std::allocator<AniEventInfo> > >::operator++
; Function compile flags: /Ogsp
;	COMDAT ??E?$_Vector_iterator@V?$_Vector_val@UAniEventInfo@@V?$allocator@UAniEventInfo@@@std@@@std@@@std@@QAE?AV01@H@Z
_TEXT	SEGMENT
___$ReturnUdt$ = 8					; size = 4
___formal$ = 12						; size = 4
??E?$_Vector_iterator@V?$_Vector_val@UAniEventInfo@@V?$allocator@UAniEventInfo@@@std@@@std@@@std@@QAE?AV01@H@Z PROC ; std::_Vector_iterator<std::_Vector_val<AniEventInfo,std::allocator<AniEventInfo> > >::operator++, COMDAT
; _this$ = ecx

; 337  : 		{	// postincrement

  00000	55		 push	 ebp
  00001	8b ec		 mov	 ebp, esp

; 338  : 		_Myiter _Tmp = *this;

  00003	8b 11		 mov	 edx, DWORD PTR [ecx]
  00005	8b 45 08	 mov	 eax, DWORD PTR ___$ReturnUdt$[ebp]
  00008	89 10		 mov	 DWORD PTR [eax], edx

; 339  : 		++*this;

  0000a	83 c2 20	 add	 edx, 32			; 00000020H
  0000d	89 11		 mov	 DWORD PTR [ecx], edx

; 340  : 		return (_Tmp);
; 341  : 		}

  0000f	5d		 pop	 ebp
  00010	c2 08 00	 ret	 8
??E?$_Vector_iterator@V?$_Vector_val@UAniEventInfo@@V?$allocator@UAniEventInfo@@@std@@@std@@@std@@QAE?AV01@H@Z ENDP ; std::_Vector_iterator<std::_Vector_val<AniEventInfo,std::allocator<AniEventInfo> > >::operator++
_TEXT	ENDS
PUBLIC	??D?$_Vector_iterator@V?$_Vector_val@UtagAniSoundEventInfo@@V?$allocator@UtagAniSoundEventInfo@@@std@@@std@@@std@@QBEAAUtagAniSoundEventInfo@@XZ ; std::_Vector_iterator<std::_Vector_val<tagAniSoundEventInfo,std::allocator<tagAniSoundEventInfo> > >::operator*
; Function compile flags: /Ogsp
;	COMDAT ??D?$_Vector_iterator@V?$_Vector_val@UtagAniSoundEventInfo@@V?$allocator@UtagAniSoundEventInfo@@@std@@@std@@@std@@QBEAAUtagAniSoundEventInfo@@XZ
_TEXT	SEGMENT
??D?$_Vector_iterator@V?$_Vector_val@UtagAniSoundEventInfo@@V?$allocator@UtagAniSoundEventInfo@@@std@@@std@@@std@@QBEAAUtagAniSoundEventInfo@@XZ PROC ; std::_Vector_iterator<std::_Vector_val<tagAniSoundEventInfo,std::allocator<tagAniSoundEventInfo> > >::operator*, COMDAT
; _this$ = ecx

; 322  : 		return ((reference)**(_Mybase *)this);

  00000	8b 01		 mov	 eax, DWORD PTR [ecx]

; 323  : 		}

  00002	c3		 ret	 0
??D?$_Vector_iterator@V?$_Vector_val@UtagAniSoundEventInfo@@V?$allocator@UtagAniSoundEventInfo@@@std@@@std@@@std@@QBEAAUtagAniSoundEventInfo@@XZ ENDP ; std::_Vector_iterator<std::_Vector_val<tagAniSoundEventInfo,std::allocator<tagAniSoundEventInfo> > >::operator*
_TEXT	ENDS
PUBLIC	??E?$_Vector_iterator@V?$_Vector_val@UtagAniSoundEventInfo@@V?$allocator@UtagAniSoundEventInfo@@@std@@@std@@@std@@QAEAAV01@XZ ; std::_Vector_iterator<std::_Vector_val<tagAniSoundEventInfo,std::allocator<tagAniSoundEventInfo> > >::operator++
; Function compile flags: /Ogsp
;	COMDAT ??E?$_Vector_iterator@V?$_Vector_val@UtagAniSoundEventInfo@@V?$allocator@UtagAniSoundEventInfo@@@std@@@std@@@std@@QAEAAV01@XZ
_TEXT	SEGMENT
??E?$_Vector_iterator@V?$_Vector_val@UtagAniSoundEventInfo@@V?$allocator@UtagAniSoundEventInfo@@@std@@@std@@@std@@QAEAAV01@XZ PROC ; std::_Vector_iterator<std::_Vector_val<tagAniSoundEventInfo,std::allocator<tagAniSoundEventInfo> > >::operator++, COMDAT
; _this$ = ecx

; 331  : 		{	// preincrement

  00000	8b c1		 mov	 eax, ecx

; 332  : 		++*(_Mybase *)this;

  00002	83 00 24	 add	 DWORD PTR [eax], 36	; 00000024H

; 333  : 		return (*this);
; 334  : 		}

  00005	c3		 ret	 0
??E?$_Vector_iterator@V?$_Vector_val@UtagAniSoundEventInfo@@V?$allocator@UtagAniSoundEventInfo@@@std@@@std@@@std@@QAEAAV01@XZ ENDP ; std::_Vector_iterator<std::_Vector_val<tagAniSoundEventInfo,std::allocator<tagAniSoundEventInfo> > >::operator++
_TEXT	ENDS
PUBLIC	??0?$_List_const_iterator@V?$_List_val@PBVioMeshControlPoint@@V?$allocator@PBVioMeshControlPoint@@@std@@@std@@@std@@QAE@XZ ; std::_List_const_iterator<std::_List_val<ioMeshControlPoint const *,std::allocator<ioMeshControlPoint const *> > >::_List_const_iterator<std::_List_val<ioMeshControlPoint const *,std::allocator<ioMeshControlPoint const *> > >
; Function compile flags: /Ogsp
; File c:\program files (x86)\microsoft visual studio 10.0\vc\include\list
;	COMDAT ??0?$_List_const_iterator@V?$_List_val@PBVioMeshControlPoint@@V?$allocator@PBVioMeshControlPoint@@@std@@@std@@@std@@QAE@XZ
_TEXT	SEGMENT
??0?$_List_const_iterator@V?$_List_val@PBVioMeshControlPoint@@V?$allocator@PBVioMeshControlPoint@@@std@@@std@@@std@@QAE@XZ PROC ; std::_List_const_iterator<std::_List_val<ioMeshControlPoint const *,std::allocator<ioMeshControlPoint const *> > >::_List_const_iterator<std::_List_val<ioMeshControlPoint const *,std::allocator<ioMeshControlPoint const *> > >, COMDAT
; _this$ = ecx

; 179  : 		{	// construct with null node pointer

  00000	8b c1		 mov	 eax, ecx
  00002	83 20 00	 and	 DWORD PTR [eax], 0

; 180  : 		}

  00005	c3		 ret	 0
??0?$_List_const_iterator@V?$_List_val@PBVioMeshControlPoint@@V?$allocator@PBVioMeshControlPoint@@@std@@@std@@@std@@QAE@XZ ENDP ; std::_List_const_iterator<std::_List_val<ioMeshControlPoint const *,std::allocator<ioMeshControlPoint const *> > >::_List_const_iterator<std::_List_val<ioMeshControlPoint const *,std::allocator<ioMeshControlPoint const *> > >
_TEXT	ENDS
PUBLIC	??D?$_List_const_iterator@V?$_List_val@PBVioMeshControlPoint@@V?$allocator@PBVioMeshControlPoint@@@std@@@std@@@std@@QBEABQBVioMeshControlPoint@@XZ ; std::_List_const_iterator<std::_List_val<ioMeshControlPoint const *,std::allocator<ioMeshControlPoint const *> > >::operator*
; Function compile flags: /Ogsp
;	COMDAT ??D?$_List_const_iterator@V?$_List_val@PBVioMeshControlPoint@@V?$allocator@PBVioMeshControlPoint@@@std@@@std@@@std@@QBEABQBVioMeshControlPoint@@XZ
_TEXT	SEGMENT
??D?$_List_const_iterator@V?$_List_val@PBVioMeshControlPoint@@V?$allocator@PBVioMeshControlPoint@@@std@@@std@@@std@@QBEABQBVioMeshControlPoint@@XZ PROC ; std::_List_const_iterator<std::_List_val<ioMeshControlPoint const *,std::allocator<ioMeshControlPoint const *> > >::operator*, COMDAT
; _this$ = ecx

; 202  :  #if _ITERATOR_DEBUG_LEVEL == 2
; 203  : 		if (this->_Getcont() == 0
; 204  : 			|| this->_Ptr == 0
; 205  : 			|| this->_Ptr == ((_Mylist *)this->_Getcont())->_Myhead)
; 206  : 			{	// report error
; 207  : 			_DEBUG_ERROR("list iterator not dereferencable");
; 208  : 			_SCL_SECURE_OUT_OF_RANGE;
; 209  : 			}
; 210  : 
; 211  :  #elif _ITERATOR_DEBUG_LEVEL == 1
; 212  : 		_SCL_SECURE_VALIDATE(this->_Getcont() != 0 && this->_Ptr != 0);
; 213  : 		_SCL_SECURE_VALIDATE_RANGE(this->_Ptr !=
; 214  : 			((_Mylist *)this->_Getcont())->_Myhead);
; 215  :  #endif /* _ITERATOR_DEBUG_LEVEL */
; 216  : 
; 217  : 		return (_Mylist::_Myval(this->_Ptr));

  00000	8b 01		 mov	 eax, DWORD PTR [ecx]
  00002	83 c0 08	 add	 eax, 8

; 218  : 		}

  00005	c3		 ret	 0
??D?$_List_const_iterator@V?$_List_val@PBVioMeshControlPoint@@V?$allocator@PBVioMeshControlPoint@@@std@@@std@@@std@@QBEABQBVioMeshControlPoint@@XZ ENDP ; std::_List_const_iterator<std::_List_val<ioMeshControlPoint const *,std::allocator<ioMeshControlPoint const *> > >::operator*
_TEXT	ENDS
PUBLIC	??E?$_List_const_iterator@V?$_List_val@PBVioMeshControlPoint@@V?$allocator@PBVioMeshControlPoint@@@std@@@std@@@std@@QAEAAV01@XZ ; std::_List_const_iterator<std::_List_val<ioMeshControlPoint const *,std::allocator<ioMeshControlPoint const *> > >::operator++
; Function compile flags: /Ogsp
;	COMDAT ??E?$_List_const_iterator@V?$_List_val@PBVioMeshControlPoint@@V?$allocator@PBVioMeshControlPoint@@@std@@@std@@@std@@QAEAAV01@XZ
_TEXT	SEGMENT
??E?$_List_const_iterator@V?$_List_val@PBVioMeshControlPoint@@V?$allocator@PBVioMeshControlPoint@@@std@@@std@@@std@@QAEAAV01@XZ PROC ; std::_List_const_iterator<std::_List_val<ioMeshControlPoint const *,std::allocator<ioMeshControlPoint const *> > >::operator++, COMDAT
; _this$ = ecx

; 221  : 		{	// preincrement

  00000	8b c1		 mov	 eax, ecx

; 222  :  #if _ITERATOR_DEBUG_LEVEL == 2
; 223  : 		if (this->_Getcont() == 0
; 224  : 			|| this->_Ptr == 0
; 225  : 			|| this->_Ptr == ((_Mylist *)this->_Getcont())->_Myhead)
; 226  : 			{	// report error
; 227  : 			_DEBUG_ERROR("list iterator not incrementable");
; 228  : 			_SCL_SECURE_OUT_OF_RANGE;
; 229  : 			}
; 230  : 
; 231  :  #elif _ITERATOR_DEBUG_LEVEL == 1
; 232  : 		_SCL_SECURE_VALIDATE(this->_Getcont() != 0 && this->_Ptr != 0);
; 233  : 		_SCL_SECURE_VALIDATE_RANGE(this->_Ptr !=
; 234  : 			((_Mylist *)this->_Getcont())->_Myhead);
; 235  :  #endif /* _ITERATOR_DEBUG_LEVEL */
; 236  : 
; 237  : 		this->_Ptr = _Mylist::_Nextnode(this->_Ptr);

  00002	8b 08		 mov	 ecx, DWORD PTR [eax]
  00004	8b 09		 mov	 ecx, DWORD PTR [ecx]
  00006	89 08		 mov	 DWORD PTR [eax], ecx

; 238  : 		return (*this);
; 239  : 		}

  00008	c3		 ret	 0
??E?$_List_const_iterator@V?$_List_val@PBVioMeshControlPoint@@V?$allocator@PBVioMeshControlPoint@@@std@@@std@@@std@@QAEAAV01@XZ ENDP ; std::_List_const_iterator<std::_List_val<ioMeshControlPoint const *,std::allocator<ioMeshControlPoint const *> > >::operator++
_TEXT	ENDS
PUBLIC	??9?$_List_const_iterator@V?$_List_val@PBVioMeshControlPoint@@V?$allocator@PBVioMeshControlPoint@@@std@@@std@@@std@@QBE_NABV01@@Z ; std::_List_const_iterator<std::_List_val<ioMeshControlPoint const *,std::allocator<ioMeshControlPoint const *> > >::operator!=
; Function compile flags: /Ogsp
;	COMDAT ??9?$_List_const_iterator@V?$_List_val@PBVioMeshControlPoint@@V?$allocator@PBVioMeshControlPoint@@@std@@@std@@@std@@QBE_NABV01@@Z
_TEXT	SEGMENT
__Right$ = 8						; size = 4
??9?$_List_const_iterator@V?$_List_val@PBVioMeshControlPoint@@V?$allocator@PBVioMeshControlPoint@@@std@@@std@@@std@@QBE_NABV01@@Z PROC ; std::_List_const_iterator<std::_List_val<ioMeshControlPoint const *,std::allocator<ioMeshControlPoint const *> > >::operator!=, COMDAT
; _this$ = ecx

; 299  : 		{	// test for iterator inequality

  00000	55		 push	 ebp
  00001	8b ec		 mov	 ebp, esp

; 300  : 		return (!(*this == _Right));

  00003	8b 01		 mov	 eax, DWORD PTR [ecx]
  00005	8b 55 08	 mov	 edx, DWORD PTR __Right$[ebp]
  00008	33 c9		 xor	 ecx, ecx
  0000a	3b 02		 cmp	 eax, DWORD PTR [edx]
  0000c	0f 95 c0	 setne	 al

; 301  : 		}

  0000f	5d		 pop	 ebp
  00010	c2 04 00	 ret	 4
??9?$_List_const_iterator@V?$_List_val@PBVioMeshControlPoint@@V?$allocator@PBVioMeshControlPoint@@@std@@@std@@@std@@QBE_NABV01@@Z ENDP ; std::_List_const_iterator<std::_List_val<ioMeshControlPoint const *,std::allocator<ioMeshControlPoint const *> > >::operator!=
_TEXT	ENDS
PUBLIC	?begin@?$vector@V?$basic_string@DU?$char_traits@D@std@@V?$allocator@D@2@@std@@V?$allocator@V?$basic_string@DU?$char_traits@D@std@@V?$allocator@D@2@@std@@@2@@std@@QBE?AV?$_Vector_const_iterator@V?$_Vector_val@V?$basic_string@DU?$char_traits@D@std@@V?$allocator@D@2@@std@@V?$allocator@V?$basic_string@DU?$char_traits@D@std@@V?$allocator@D@2@@std@@@2@@std@@@2@XZ ; std::vector<std::basic_string<char,std::char_traits<char>,std::allocator<char> >,std::allocator<std::basic_string<char,std::char_traits<char>,std::allocator<char> > > >::begin
; Function compile flags: /Ogsp
; File c:\program files (x86)\microsoft visual studio 10.0\vc\include\vector
;	COMDAT ?begin@?$vector@V?$basic_string@DU?$char_traits@D@std@@V?$allocator@D@2@@std@@V?$allocator@V?$basic_string@DU?$char_traits@D@std@@V?$allocator@D@2@@std@@@2@@std@@QBE?AV?$_Vector_const_iterator@V?$_Vector_val@V?$basic_string@DU?$char_traits@D@std@@V?$allocator@D@2@@std@@V?$allocator@V?$basic_string@DU?$char_traits@D@std@@V?$allocator@D@2@@std@@@2@@std@@@2@XZ
_TEXT	SEGMENT
___$ReturnUdt$ = 8					; size = 4
?begin@?$vector@V?$basic_string@DU?$char_traits@D@std@@V?$allocator@D@2@@std@@V?$allocator@V?$basic_string@DU?$char_traits@D@std@@V?$allocator@D@2@@std@@@2@@std@@QBE?AV?$_Vector_const_iterator@V?$_Vector_val@V?$basic_string@DU?$char_traits@D@std@@V?$allocator@D@2@@std@@V?$allocator@V?$basic_string@DU?$char_traits@D@std@@V?$allocator@D@2@@std@@@2@@std@@@2@XZ PROC ; std::vector<std::basic_string<char,std::char_traits<char>,std::allocator<char> >,std::allocator<std::basic_string<char,std::char_traits<char>,std::allocator<char> > > >::begin, COMDAT
; _this$ = ecx

; 786  : 		{	// return iterator for beginning of nonmutable sequence

  00000	55		 push	 ebp
  00001	8b ec		 mov	 ebp, esp

; 787  : 		return (const_iterator(this->_Myfirst, this));

  00003	8b 09		 mov	 ecx, DWORD PTR [ecx]
  00005	8b 45 08	 mov	 eax, DWORD PTR ___$ReturnUdt$[ebp]
  00008	89 08		 mov	 DWORD PTR [eax], ecx

; 788  : 		}

  0000a	5d		 pop	 ebp
  0000b	c2 04 00	 ret	 4
?begin@?$vector@V?$basic_string@DU?$char_traits@D@std@@V?$allocator@D@2@@std@@V?$allocator@V?$basic_string@DU?$char_traits@D@std@@V?$allocator@D@2@@std@@@2@@std@@QBE?AV?$_Vector_const_iterator@V?$_Vector_val@V?$basic_string@DU?$char_traits@D@std@@V?$allocator@D@2@@std@@V?$allocator@V?$basic_string@DU?$char_traits@D@std@@V?$allocator@D@2@@std@@@2@@std@@@2@XZ ENDP ; std::vector<std::basic_string<char,std::char_traits<char>,std::allocator<char> >,std::allocator<std::basic_string<char,std::char_traits<char>,std::allocator<char> > > >::begin
_TEXT	ENDS
PUBLIC	?end@?$vector@V?$basic_string@DU?$char_traits@D@std@@V?$allocator@D@2@@std@@V?$allocator@V?$basic_string@DU?$char_traits@D@std@@V?$allocator@D@2@@std@@@2@@std@@QBE?AV?$_Vector_const_iterator@V?$_Vector_val@V?$basic_string@DU?$char_traits@D@std@@V?$allocator@D@2@@std@@V?$allocator@V?$basic_string@DU?$char_traits@D@std@@V?$allocator@D@2@@std@@@2@@std@@@2@XZ ; std::vector<std::basic_string<char,std::char_traits<char>,std::allocator<char> >,std::allocator<std::basic_string<char,std::char_traits<char>,std::allocator<char> > > >::end
; Function compile flags: /Ogsp
;	COMDAT ?end@?$vector@V?$basic_string@DU?$char_traits@D@std@@V?$allocator@D@2@@std@@V?$allocator@V?$basic_string@DU?$char_traits@D@std@@V?$allocator@D@2@@std@@@2@@std@@QBE?AV?$_Vector_const_iterator@V?$_Vector_val@V?$basic_string@DU?$char_traits@D@std@@V?$allocator@D@2@@std@@V?$allocator@V?$basic_string@DU?$char_traits@D@std@@V?$allocator@D@2@@std@@@2@@std@@@2@XZ
_TEXT	SEGMENT
___$ReturnUdt$ = 8					; size = 4
?end@?$vector@V?$basic_string@DU?$char_traits@D@std@@V?$allocator@D@2@@std@@V?$allocator@V?$basic_string@DU?$char_traits@D@std@@V?$allocator@D@2@@std@@@2@@std@@QBE?AV?$_Vector_const_iterator@V?$_Vector_val@V?$basic_string@DU?$char_traits@D@std@@V?$allocator@D@2@@std@@V?$allocator@V?$basic_string@DU?$char_traits@D@std@@V?$allocator@D@2@@std@@@2@@std@@@2@XZ PROC ; std::vector<std::basic_string<char,std::char_traits<char>,std::allocator<char> >,std::allocator<std::basic_string<char,std::char_traits<char>,std::allocator<char> > > >::end, COMDAT
; _this$ = ecx

; 796  : 		{	// return iterator for end of nonmutable sequence

  00000	55		 push	 ebp
  00001	8b ec		 mov	 ebp, esp

; 797  : 		return (const_iterator(this->_Mylast, this));

  00003	8b 49 04	 mov	 ecx, DWORD PTR [ecx+4]
  00006	8b 45 08	 mov	 eax, DWORD PTR ___$ReturnUdt$[ebp]
  00009	89 08		 mov	 DWORD PTR [eax], ecx

; 798  : 		}

  0000b	5d		 pop	 ebp
  0000c	c2 04 00	 ret	 4
?end@?$vector@V?$basic_string@DU?$char_traits@D@std@@V?$allocator@D@2@@std@@V?$allocator@V?$basic_string@DU?$char_traits@D@std@@V?$allocator@D@2@@std@@@2@@std@@QBE?AV?$_Vector_const_iterator@V?$_Vector_val@V?$basic_string@DU?$char_traits@D@std@@V?$allocator@D@2@@std@@V?$allocator@V?$basic_string@DU?$char_traits@D@std@@V?$allocator@D@2@@std@@@2@@std@@@2@XZ ENDP ; std::vector<std::basic_string<char,std::char_traits<char>,std::allocator<char> >,std::allocator<std::basic_string<char,std::char_traits<char>,std::allocator<char> > > >::end
_TEXT	ENDS
PUBLIC	??0?$_Vector_val@V?$basic_string@DU?$char_traits@D@std@@V?$allocator@D@2@@std@@V?$allocator@V?$basic_string@DU?$char_traits@D@std@@V?$allocator@D@2@@std@@@2@@std@@QAE@V?$allocator@V?$basic_string@DU?$char_traits@D@std@@V?$allocator@D@2@@std@@@1@@Z ; std::_Vector_val<std::basic_string<char,std::char_traits<char>,std::allocator<char> >,std::allocator<std::basic_string<char,std::char_traits<char>,std::allocator<char> > > >::_Vector_val<std::basic_string<char,std::char_traits<char>,std::allocator<char> >,std::allocator<std::basic_string<char,std::char_traits<char>,std::allocator<char> > > >
; Function compile flags: /Ogsp
;	COMDAT ??0?$_Vector_val@V?$basic_string@DU?$char_traits@D@std@@V?$allocator@D@2@@std@@V?$allocator@V?$basic_string@DU?$char_traits@D@std@@V?$allocator@D@2@@std@@@2@@std@@QAE@V?$allocator@V?$basic_string@DU?$char_traits@D@std@@V?$allocator@D@2@@std@@@1@@Z
_TEXT	SEGMENT
__Al$ = 8						; size = 1
??0?$_Vector_val@V?$basic_string@DU?$char_traits@D@std@@V?$allocator@D@2@@std@@V?$allocator@V?$basic_string@DU?$char_traits@D@std@@V?$allocator@D@2@@std@@@2@@std@@QAE@V?$allocator@V?$basic_string@DU?$char_traits@D@std@@V?$allocator@D@2@@std@@@1@@Z PROC ; std::_Vector_val<std::basic_string<char,std::char_traits<char>,std::allocator<char> >,std::allocator<std::basic_string<char,std::char_traits<char>,std::allocator<char> > > >::_Vector_val<std::basic_string<char,std::char_traits<char>,std::allocator<char> >,std::allocator<std::basic_string<char,std::char_traits<char>,std::allocator<char> > > >, COMDAT
; _this$ = ecx

; 426  : 		{	// construct allocator from _Al

  00000	8b c1		 mov	 eax, ecx

; 427  : 		_Myfirst = 0;

  00002	33 c9		 xor	 ecx, ecx
  00004	89 08		 mov	 DWORD PTR [eax], ecx

; 428  : 		_Mylast = 0;

  00006	89 48 04	 mov	 DWORD PTR [eax+4], ecx

; 429  : 		_Myend = 0;

  00009	89 48 08	 mov	 DWORD PTR [eax+8], ecx

; 430  : 		}

  0000c	c2 04 00	 ret	 4
??0?$_Vector_val@V?$basic_string@DU?$char_traits@D@std@@V?$allocator@D@2@@std@@V?$allocator@V?$basic_string@DU?$char_traits@D@std@@V?$allocator@D@2@@std@@@2@@std@@QAE@V?$allocator@V?$basic_string@DU?$char_traits@D@std@@V?$allocator@D@2@@std@@@1@@Z ENDP ; std::_Vector_val<std::basic_string<char,std::char_traits<char>,std::allocator<char> >,std::allocator<std::basic_string<char,std::char_traits<char>,std::allocator<char> > > >::_Vector_val<std::basic_string<char,std::char_traits<char>,std::allocator<char> >,std::allocator<std::basic_string<char,std::char_traits<char>,std::allocator<char> > > >
_TEXT	ENDS
PUBLIC	??0?$_Vector_val@UAniEventInfo@@V?$allocator@UAniEventInfo@@@std@@@std@@QAE@V?$allocator@UAniEventInfo@@@1@@Z ; std::_Vector_val<AniEventInfo,std::allocator<AniEventInfo> >::_Vector_val<AniEventInfo,std::allocator<AniEventInfo> >
; Function compile flags: /Ogsp
;	COMDAT ??0?$_Vector_val@UAniEventInfo@@V?$allocator@UAniEventInfo@@@std@@@std@@QAE@V?$allocator@UAniEventInfo@@@1@@Z
_TEXT	SEGMENT
__Al$ = 8						; size = 1
??0?$_Vector_val@UAniEventInfo@@V?$allocator@UAniEventInfo@@@std@@@std@@QAE@V?$allocator@UAniEventInfo@@@1@@Z PROC ; std::_Vector_val<AniEventInfo,std::allocator<AniEventInfo> >::_Vector_val<AniEventInfo,std::allocator<AniEventInfo> >, COMDAT
; _this$ = ecx

; 426  : 		{	// construct allocator from _Al

  00000	8b c1		 mov	 eax, ecx

; 427  : 		_Myfirst = 0;

  00002	33 c9		 xor	 ecx, ecx
  00004	89 08		 mov	 DWORD PTR [eax], ecx

; 428  : 		_Mylast = 0;

  00006	89 48 04	 mov	 DWORD PTR [eax+4], ecx

; 429  : 		_Myend = 0;

  00009	89 48 08	 mov	 DWORD PTR [eax+8], ecx

; 430  : 		}

  0000c	c2 04 00	 ret	 4
??0?$_Vector_val@UAniEventInfo@@V?$allocator@UAniEventInfo@@@std@@@std@@QAE@V?$allocator@UAniEventInfo@@@1@@Z ENDP ; std::_Vector_val<AniEventInfo,std::allocator<AniEventInfo> >::_Vector_val<AniEventInfo,std::allocator<AniEventInfo> >
_TEXT	ENDS
PUBLIC	??0?$_Vector_val@UtagAniSoundEventInfo@@V?$allocator@UtagAniSoundEventInfo@@@std@@@std@@QAE@V?$allocator@UtagAniSoundEventInfo@@@1@@Z ; std::_Vector_val<tagAniSoundEventInfo,std::allocator<tagAniSoundEventInfo> >::_Vector_val<tagAniSoundEventInfo,std::allocator<tagAniSoundEventInfo> >
; Function compile flags: /Ogsp
;	COMDAT ??0?$_Vector_val@UtagAniSoundEventInfo@@V?$allocator@UtagAniSoundEventInfo@@@std@@@std@@QAE@V?$allocator@UtagAniSoundEventInfo@@@1@@Z
_TEXT	SEGMENT
__Al$ = 8						; size = 1
??0?$_Vector_val@UtagAniSoundEventInfo@@V?$allocator@UtagAniSoundEventInfo@@@std@@@std@@QAE@V?$allocator@UtagAniSoundEventInfo@@@1@@Z PROC ; std::_Vector_val<tagAniSoundEventInfo,std::allocator<tagAniSoundEventInfo> >::_Vector_val<tagAniSoundEventInfo,std::allocator<tagAniSoundEventInfo> >, COMDAT
; _this$ = ecx

; 426  : 		{	// construct allocator from _Al

  00000	8b c1		 mov	 eax, ecx

; 427  : 		_Myfirst = 0;

  00002	33 c9		 xor	 ecx, ecx
  00004	89 08		 mov	 DWORD PTR [eax], ecx

; 428  : 		_Mylast = 0;

  00006	89 48 04	 mov	 DWORD PTR [eax+4], ecx

; 429  : 		_Myend = 0;

  00009	89 48 08	 mov	 DWORD PTR [eax+8], ecx

; 430  : 		}

  0000c	c2 04 00	 ret	 4
??0?$_Vector_val@UtagAniSoundEventInfo@@V?$allocator@UtagAniSoundEventInfo@@@std@@@std@@QAE@V?$allocator@UtagAniSoundEventInfo@@@1@@Z ENDP ; std::_Vector_val<tagAniSoundEventInfo,std::allocator<tagAniSoundEventInfo> >::_Vector_val<tagAniSoundEventInfo,std::allocator<tagAniSoundEventInfo> >
_TEXT	ENDS
PUBLIC	??0?$_Vector_iterator@V?$_Vector_val@UAniEventInfo@@V?$allocator@UAniEventInfo@@@std@@@std@@@std@@QAE@PAUAniEventInfo@@PBU_Container_base0@1@@Z ; std::_Vector_iterator<std::_Vector_val<AniEventInfo,std::allocator<AniEventInfo> > >::_Vector_iterator<std::_Vector_val<AniEventInfo,std::allocator<AniEventInfo> > >
; Function compile flags: /Ogsp
;	COMDAT ??0?$_Vector_iterator@V?$_Vector_val@UAniEventInfo@@V?$allocator@UAniEventInfo@@@std@@@std@@@std@@QAE@PAUAniEventInfo@@PBU_Container_base0@1@@Z
_TEXT	SEGMENT
__Parg$ = 8						; size = 4
__Pvector$ = 12						; size = 4
??0?$_Vector_iterator@V?$_Vector_val@UAniEventInfo@@V?$allocator@UAniEventInfo@@@std@@@std@@@std@@QAE@PAUAniEventInfo@@PBU_Container_base0@1@@Z PROC ; std::_Vector_iterator<std::_Vector_val<AniEventInfo,std::allocator<AniEventInfo> > >::_Vector_iterator<std::_Vector_val<AniEventInfo,std::allocator<AniEventInfo> > >, COMDAT
; _this$ = ecx

; 304  : 		{	// construct with pointer _Parg

  00000	55		 push	 ebp
  00001	8b ec		 mov	 ebp, esp
  00003	8b c1		 mov	 eax, ecx
  00005	8b 4d 08	 mov	 ecx, DWORD PTR __Parg$[ebp]
  00008	89 08		 mov	 DWORD PTR [eax], ecx

; 305  : 		}

  0000a	5d		 pop	 ebp
  0000b	c2 08 00	 ret	 8
??0?$_Vector_iterator@V?$_Vector_val@UAniEventInfo@@V?$allocator@UAniEventInfo@@@std@@@std@@@std@@QAE@PAUAniEventInfo@@PBU_Container_base0@1@@Z ENDP ; std::_Vector_iterator<std::_Vector_val<AniEventInfo,std::allocator<AniEventInfo> > >::_Vector_iterator<std::_Vector_val<AniEventInfo,std::allocator<AniEventInfo> > >
_TEXT	ENDS
PUBLIC	??8?$_Vector_const_iterator@V?$_Vector_val@UAniEventInfo@@V?$allocator@UAniEventInfo@@@std@@@std@@@std@@QBE_NABV01@@Z ; std::_Vector_const_iterator<std::_Vector_val<AniEventInfo,std::allocator<AniEventInfo> > >::operator==
; Function compile flags: /Ogsp
;	COMDAT ??8?$_Vector_const_iterator@V?$_Vector_val@UAniEventInfo@@V?$allocator@UAniEventInfo@@@std@@@std@@@std@@QBE_NABV01@@Z
_TEXT	SEGMENT
__Right$ = 8						; size = 4
??8?$_Vector_const_iterator@V?$_Vector_val@UAniEventInfo@@V?$allocator@UAniEventInfo@@@std@@@std@@@std@@QBE_NABV01@@Z PROC ; std::_Vector_const_iterator<std::_Vector_val<AniEventInfo,std::allocator<AniEventInfo> > >::operator==, COMDAT
; _this$ = ecx

; 201  : 		{	// test for iterator equality

  00000	55		 push	 ebp
  00001	8b ec		 mov	 ebp, esp

; 202  : 		_Compat(_Right);
; 203  : 		return (this->_Ptr == _Right._Ptr);

  00003	8b 01		 mov	 eax, DWORD PTR [ecx]
  00005	8b 4d 08	 mov	 ecx, DWORD PTR __Right$[ebp]
  00008	2b 01		 sub	 eax, DWORD PTR [ecx]
  0000a	f7 d8		 neg	 eax
  0000c	1b c0		 sbb	 eax, eax
  0000e	40		 inc	 eax

; 204  : 		}

  0000f	5d		 pop	 ebp
  00010	c2 04 00	 ret	 4
??8?$_Vector_const_iterator@V?$_Vector_val@UAniEventInfo@@V?$allocator@UAniEventInfo@@@std@@@std@@@std@@QBE_NABV01@@Z ENDP ; std::_Vector_const_iterator<std::_Vector_val<AniEventInfo,std::allocator<AniEventInfo> > >::operator==
_TEXT	ENDS
PUBLIC	??0?$_Vector_iterator@V?$_Vector_val@UtagAniSoundEventInfo@@V?$allocator@UtagAniSoundEventInfo@@@std@@@std@@@std@@QAE@PAUtagAniSoundEventInfo@@PBU_Container_base0@1@@Z ; std::_Vector_iterator<std::_Vector_val<tagAniSoundEventInfo,std::allocator<tagAniSoundEventInfo> > >::_Vector_iterator<std::_Vector_val<tagAniSoundEventInfo,std::allocator<tagAniSoundEventInfo> > >
; Function compile flags: /Ogsp
;	COMDAT ??0?$_Vector_iterator@V?$_Vector_val@UtagAniSoundEventInfo@@V?$allocator@UtagAniSoundEventInfo@@@std@@@std@@@std@@QAE@PAUtagAniSoundEventInfo@@PBU_Container_base0@1@@Z
_TEXT	SEGMENT
__Parg$ = 8						; size = 4
__Pvector$ = 12						; size = 4
??0?$_Vector_iterator@V?$_Vector_val@UtagAniSoundEventInfo@@V?$allocator@UtagAniSoundEventInfo@@@std@@@std@@@std@@QAE@PAUtagAniSoundEventInfo@@PBU_Container_base0@1@@Z PROC ; std::_Vector_iterator<std::_Vector_val<tagAniSoundEventInfo,std::allocator<tagAniSoundEventInfo> > >::_Vector_iterator<std::_Vector_val<tagAniSoundEventInfo,std::allocator<tagAniSoundEventInfo> > >, COMDAT
; _this$ = ecx

; 304  : 		{	// construct with pointer _Parg

  00000	55		 push	 ebp
  00001	8b ec		 mov	 ebp, esp
  00003	8b c1		 mov	 eax, ecx
  00005	8b 4d 08	 mov	 ecx, DWORD PTR __Parg$[ebp]
  00008	89 08		 mov	 DWORD PTR [eax], ecx

; 305  : 		}

  0000a	5d		 pop	 ebp
  0000b	c2 08 00	 ret	 8
??0?$_Vector_iterator@V?$_Vector_val@UtagAniSoundEventInfo@@V?$allocator@UtagAniSoundEventInfo@@@std@@@std@@@std@@QAE@PAUtagAniSoundEventInfo@@PBU_Container_base0@1@@Z ENDP ; std::_Vector_iterator<std::_Vector_val<tagAniSoundEventInfo,std::allocator<tagAniSoundEventInfo> > >::_Vector_iterator<std::_Vector_val<tagAniSoundEventInfo,std::allocator<tagAniSoundEventInfo> > >
_TEXT	ENDS
PUBLIC	??8?$_Vector_const_iterator@V?$_Vector_val@UtagAniSoundEventInfo@@V?$allocator@UtagAniSoundEventInfo@@@std@@@std@@@std@@QBE_NABV01@@Z ; std::_Vector_const_iterator<std::_Vector_val<tagAniSoundEventInfo,std::allocator<tagAniSoundEventInfo> > >::operator==
; Function compile flags: /Ogsp
;	COMDAT ??8?$_Vector_const_iterator@V?$_Vector_val@UtagAniSoundEventInfo@@V?$allocator@UtagAniSoundEventInfo@@@std@@@std@@@std@@QBE_NABV01@@Z
_TEXT	SEGMENT
__Right$ = 8						; size = 4
??8?$_Vector_const_iterator@V?$_Vector_val@UtagAniSoundEventInfo@@V?$allocator@UtagAniSoundEventInfo@@@std@@@std@@@std@@QBE_NABV01@@Z PROC ; std::_Vector_const_iterator<std::_Vector_val<tagAniSoundEventInfo,std::allocator<tagAniSoundEventInfo> > >::operator==, COMDAT
; _this$ = ecx

; 201  : 		{	// test for iterator equality

  00000	55		 push	 ebp
  00001	8b ec		 mov	 ebp, esp

; 202  : 		_Compat(_Right);
; 203  : 		return (this->_Ptr == _Right._Ptr);

  00003	8b 01		 mov	 eax, DWORD PTR [ecx]
  00005	8b 4d 08	 mov	 ecx, DWORD PTR __Right$[ebp]
  00008	2b 01		 sub	 eax, DWORD PTR [ecx]
  0000a	f7 d8		 neg	 eax
  0000c	1b c0		 sbb	 eax, eax
  0000e	40		 inc	 eax

; 204  : 		}

  0000f	5d		 pop	 ebp
  00010	c2 04 00	 ret	 4
??8?$_Vector_const_iterator@V?$_Vector_val@UtagAniSoundEventInfo@@V?$allocator@UtagAniSoundEventInfo@@@std@@@std@@@std@@QBE_NABV01@@Z ENDP ; std::_Vector_const_iterator<std::_Vector_val<tagAniSoundEventInfo,std::allocator<tagAniSoundEventInfo> > >::operator==
_TEXT	ENDS
PUBLIC	??1?$_List_val@PBVioMeshControlPoint@@V?$allocator@PBVioMeshControlPoint@@@std@@@std@@QAE@XZ ; std::_List_val<ioMeshControlPoint const *,std::allocator<ioMeshControlPoint const *> >::~_List_val<ioMeshControlPoint const *,std::allocator<ioMeshControlPoint const *> >
; Function compile flags: /Ogsp
; File c:\program files (x86)\microsoft visual studio 10.0\vc\include\list
;	COMDAT ??1?$_List_val@PBVioMeshControlPoint@@V?$allocator@PBVioMeshControlPoint@@@std@@@std@@QAE@XZ
_TEXT	SEGMENT
??1?$_List_val@PBVioMeshControlPoint@@V?$allocator@PBVioMeshControlPoint@@@std@@@std@@QAE@XZ PROC ; std::_List_val<ioMeshControlPoint const *,std::allocator<ioMeshControlPoint const *> >::~_List_val<ioMeshControlPoint const *,std::allocator<ioMeshControlPoint const *> >, COMDAT
; _this$ = ecx

; 502  : 		this->_Alnod.deallocate(this->_Myhead, 1);

  00000	ff 31		 push	 DWORD PTR [ecx]
  00002	e8 00 00 00 00	 call	 ??3@YAXPAX@Z		; operator delete
  00007	59		 pop	 ecx

; 503  : 		}

  00008	c3		 ret	 0
??1?$_List_val@PBVioMeshControlPoint@@V?$allocator@PBVioMeshControlPoint@@@std@@@std@@QAE@XZ ENDP ; std::_List_val<ioMeshControlPoint const *,std::allocator<ioMeshControlPoint const *> >::~_List_val<ioMeshControlPoint const *,std::allocator<ioMeshControlPoint const *> >
_TEXT	ENDS
PUBLIC	?max_size@?$vector@V?$basic_string@DU?$char_traits@D@std@@V?$allocator@D@2@@std@@V?$allocator@V?$basic_string@DU?$char_traits@D@std@@V?$allocator@D@2@@std@@@2@@std@@QBEIXZ ; std::vector<std::basic_string<char,std::char_traits<char>,std::allocator<char> >,std::allocator<std::basic_string<char,std::char_traits<char>,std::allocator<char> > > >::max_size
; Function compile flags: /Ogsp
; File c:\program files (x86)\microsoft visual studio 10.0\vc\include\vector
;	COMDAT ?max_size@?$vector@V?$basic_string@DU?$char_traits@D@std@@V?$allocator@D@2@@std@@V?$allocator@V?$basic_string@DU?$char_traits@D@std@@V?$allocator@D@2@@std@@@2@@std@@QBEIXZ
_TEXT	SEGMENT
?max_size@?$vector@V?$basic_string@DU?$char_traits@D@std@@V?$allocator@D@2@@std@@V?$allocator@V?$basic_string@DU?$char_traits@D@std@@V?$allocator@D@2@@std@@@2@@std@@QBEIXZ PROC ; std::vector<std::basic_string<char,std::char_traits<char>,std::allocator<char> >,std::allocator<std::basic_string<char,std::char_traits<char>,std::allocator<char> > > >::max_size, COMDAT
; _this$ = ecx

; 884  : 		return (this->_Alval.max_size());

  00000	b8 49 92 24 09	 mov	 eax, 153391689		; 09249249H

; 885  : 		}

  00005	c3		 ret	 0
?max_size@?$vector@V?$basic_string@DU?$char_traits@D@std@@V?$allocator@D@2@@std@@V?$allocator@V?$basic_string@DU?$char_traits@D@std@@V?$allocator@D@2@@std@@@2@@std@@QBEIXZ ENDP ; std::vector<std::basic_string<char,std::char_traits<char>,std::allocator<char> >,std::allocator<std::basic_string<char,std::char_traits<char>,std::allocator<char> > > >::max_size
_TEXT	ENDS
PUBLIC	?allocate@?$allocator@V?$basic_string@DU?$char_traits@D@std@@V?$allocator@D@2@@std@@@std@@QAEPAV?$basic_string@DU?$char_traits@D@std@@V?$allocator@D@2@@2@I@Z ; std::allocator<std::basic_string<char,std::char_traits<char>,std::allocator<char> > >::allocate
; Function compile flags: /Ogsp
; File c:\program files (x86)\microsoft visual studio 10.0\vc\include\xmemory
;	COMDAT ?allocate@?$allocator@V?$basic_string@DU?$char_traits@D@std@@V?$allocator@D@2@@std@@@std@@QAEPAV?$basic_string@DU?$char_traits@D@std@@V?$allocator@D@2@@2@I@Z
_TEXT	SEGMENT
__Count$ = 8						; size = 4
?allocate@?$allocator@V?$basic_string@DU?$char_traits@D@std@@V?$allocator@D@2@@std@@@std@@QAEPAV?$basic_string@DU?$char_traits@D@std@@V?$allocator@D@2@@2@I@Z PROC ; std::allocator<std::basic_string<char,std::char_traits<char>,std::allocator<char> > >::allocate, COMDAT
; _this$ = ecx

; 186  : 		{	// allocate array of _Count elements

  00000	55		 push	 ebp
  00001	8b ec		 mov	 ebp, esp

; 187  : 		return (_Allocate(_Count, (pointer)0));

  00003	6a 00		 push	 0
  00005	ff 75 08	 push	 DWORD PTR __Count$[ebp]
  00008	e8 00 00 00 00	 call	 ??$_Allocate@V?$basic_string@DU?$char_traits@D@std@@V?$allocator@D@2@@std@@@std@@YAPAV?$basic_string@DU?$char_traits@D@std@@V?$allocator@D@2@@0@IPAV10@@Z ; std::_Allocate<std::basic_string<char,std::char_traits<char>,std::allocator<char> > >
  0000d	59		 pop	 ecx
  0000e	59		 pop	 ecx

; 188  : 		}

  0000f	5d		 pop	 ebp
  00010	c2 04 00	 ret	 4
?allocate@?$allocator@V?$basic_string@DU?$char_traits@D@std@@V?$allocator@D@2@@std@@@std@@QAEPAV?$basic_string@DU?$char_traits@D@std@@V?$allocator@D@2@@2@I@Z ENDP ; std::allocator<std::basic_string<char,std::char_traits<char>,std::allocator<char> > >::allocate
_TEXT	ENDS
PUBLIC	?max_size@?$vector@UAniEventInfo@@V?$allocator@UAniEventInfo@@@std@@@std@@QBEIXZ ; std::vector<AniEventInfo,std::allocator<AniEventInfo> >::max_size
; Function compile flags: /Ogsp
; File c:\program files (x86)\microsoft visual studio 10.0\vc\include\vector
;	COMDAT ?max_size@?$vector@UAniEventInfo@@V?$allocator@UAniEventInfo@@@std@@@std@@QBEIXZ
_TEXT	SEGMENT
?max_size@?$vector@UAniEventInfo@@V?$allocator@UAniEventInfo@@@std@@@std@@QBEIXZ PROC ; std::vector<AniEventInfo,std::allocator<AniEventInfo> >::max_size, COMDAT
; _this$ = ecx

; 884  : 		return (this->_Alval.max_size());

  00000	b8 ff ff ff 07	 mov	 eax, 134217727		; 07ffffffH

; 885  : 		}

  00005	c3		 ret	 0
?max_size@?$vector@UAniEventInfo@@V?$allocator@UAniEventInfo@@@std@@@std@@QBEIXZ ENDP ; std::vector<AniEventInfo,std::allocator<AniEventInfo> >::max_size
_TEXT	ENDS
PUBLIC	?_Grow_to@?$vector@UAniEventInfo@@V?$allocator@UAniEventInfo@@@std@@@std@@IBEII@Z ; std::vector<AniEventInfo,std::allocator<AniEventInfo> >::_Grow_to
; Function compile flags: /Ogsp
;	COMDAT ?_Grow_to@?$vector@UAniEventInfo@@V?$allocator@UAniEventInfo@@@std@@@std@@IBEII@Z
_TEXT	SEGMENT
__Count$ = 8						; size = 4
?_Grow_to@?$vector@UAniEventInfo@@V?$allocator@UAniEventInfo@@@std@@@std@@IBEII@Z PROC ; std::vector<AniEventInfo,std::allocator<AniEventInfo> >::_Grow_to, COMDAT
; _this$ = ecx

; 1274 : 		{	// grow by 50% or at least to _Count

  00000	55		 push	 ebp
  00001	8b ec		 mov	 ebp, esp

; 1275 : 		size_type _Capacity = capacity();

  00003	8b 41 08	 mov	 eax, DWORD PTR [ecx+8]
  00006	2b 01		 sub	 eax, DWORD PTR [ecx]

; 1276 : 
; 1277 : 		_Capacity = max_size() - _Capacity / 2 < _Capacity
; 1278 : 			? 0 : _Capacity + _Capacity / 2;	// try to grow by 50%

  00008	ba ff ff ff 07	 mov	 edx, 134217727		; 07ffffffH
  0000d	c1 f8 05	 sar	 eax, 5
  00010	8b c8		 mov	 ecx, eax
  00012	d1 e9		 shr	 ecx, 1
  00014	2b d1		 sub	 edx, ecx
  00016	3b d0		 cmp	 edx, eax
  00018	73 04		 jae	 SHORT $LN4@Grow_to
  0001a	33 c0		 xor	 eax, eax
  0001c	eb 02		 jmp	 SHORT $LN5@Grow_to
$LN4@Grow_to:
  0001e	03 c1		 add	 eax, ecx
$LN5@Grow_to:

; 1279 : 		if (_Capacity < _Count)

  00020	3b 45 08	 cmp	 eax, DWORD PTR __Count$[ebp]

; 1280 : 			_Capacity = _Count;

  00023	0f 42 45 08	 cmovb	 eax, DWORD PTR __Count$[ebp]

; 1281 : 		return (_Capacity);
; 1282 : 		}

  00027	5d		 pop	 ebp
  00028	c2 04 00	 ret	 4
?_Grow_to@?$vector@UAniEventInfo@@V?$allocator@UAniEventInfo@@@std@@@std@@IBEII@Z ENDP ; std::vector<AniEventInfo,std::allocator<AniEventInfo> >::_Grow_to
_TEXT	ENDS
PUBLIC	?max_size@?$vector@UtagAniSoundEventInfo@@V?$allocator@UtagAniSoundEventInfo@@@std@@@std@@QBEIXZ ; std::vector<tagAniSoundEventInfo,std::allocator<tagAniSoundEventInfo> >::max_size
; Function compile flags: /Ogsp
;	COMDAT ?max_size@?$vector@UtagAniSoundEventInfo@@V?$allocator@UtagAniSoundEventInfo@@@std@@@std@@QBEIXZ
_TEXT	SEGMENT
?max_size@?$vector@UtagAniSoundEventInfo@@V?$allocator@UtagAniSoundEventInfo@@@std@@@std@@QBEIXZ PROC ; std::vector<tagAniSoundEventInfo,std::allocator<tagAniSoundEventInfo> >::max_size, COMDAT
; _this$ = ecx

; 884  : 		return (this->_Alval.max_size());

  00000	b8 c7 71 1c 07	 mov	 eax, 119304647		; 071c71c7H

; 885  : 		}

  00005	c3		 ret	 0
?max_size@?$vector@UtagAniSoundEventInfo@@V?$allocator@UtagAniSoundEventInfo@@@std@@@std@@QBEIXZ ENDP ; std::vector<tagAniSoundEventInfo,std::allocator<tagAniSoundEventInfo> >::max_size
_TEXT	ENDS
PUBLIC	?_Grow_to@?$vector@UtagAniSoundEventInfo@@V?$allocator@UtagAniSoundEventInfo@@@std@@@std@@IBEII@Z ; std::vector<tagAniSoundEventInfo,std::allocator<tagAniSoundEventInfo> >::_Grow_to
; Function compile flags: /Ogsp
;	COMDAT ?_Grow_to@?$vector@UtagAniSoundEventInfo@@V?$allocator@UtagAniSoundEventInfo@@@std@@@std@@IBEII@Z
_TEXT	SEGMENT
__Count$ = 8						; size = 4
?_Grow_to@?$vector@UtagAniSoundEventInfo@@V?$allocator@UtagAniSoundEventInfo@@@std@@@std@@IBEII@Z PROC ; std::vector<tagAniSoundEventInfo,std::allocator<tagAniSoundEventInfo> >::_Grow_to, COMDAT
; _this$ = ecx

; 1274 : 		{	// grow by 50% or at least to _Count

  00000	55		 push	 ebp
  00001	8b ec		 mov	 ebp, esp

; 1275 : 		size_type _Capacity = capacity();

  00003	8b 41 08	 mov	 eax, DWORD PTR [ecx+8]
  00006	2b 01		 sub	 eax, DWORD PTR [ecx]
  00008	6a 24		 push	 36			; 00000024H
  0000a	99		 cdq
  0000b	59		 pop	 ecx
  0000c	f7 f9		 idiv	 ecx

; 1276 : 
; 1277 : 		_Capacity = max_size() - _Capacity / 2 < _Capacity
; 1278 : 			? 0 : _Capacity + _Capacity / 2;	// try to grow by 50%

  0000e	ba c7 71 1c 07	 mov	 edx, 119304647		; 071c71c7H
  00013	8b c8		 mov	 ecx, eax
  00015	d1 e9		 shr	 ecx, 1
  00017	2b d1		 sub	 edx, ecx
  00019	3b d0		 cmp	 edx, eax
  0001b	73 04		 jae	 SHORT $LN4@Grow_to@2
  0001d	33 c0		 xor	 eax, eax
  0001f	eb 02		 jmp	 SHORT $LN5@Grow_to@2
$LN4@Grow_to@2:
  00021	03 c1		 add	 eax, ecx
$LN5@Grow_to@2:

; 1279 : 		if (_Capacity < _Count)

  00023	3b 45 08	 cmp	 eax, DWORD PTR __Count$[ebp]

; 1280 : 			_Capacity = _Count;

  00026	0f 42 45 08	 cmovb	 eax, DWORD PTR __Count$[ebp]

; 1281 : 		return (_Capacity);
; 1282 : 		}

  0002a	5d		 pop	 ebp
  0002b	c2 04 00	 ret	 4
?_Grow_to@?$vector@UtagAniSoundEventInfo@@V?$allocator@UtagAniSoundEventInfo@@@std@@@std@@IBEII@Z ENDP ; std::vector<tagAniSoundEventInfo,std::allocator<tagAniSoundEventInfo> >::_Grow_to
_TEXT	ENDS
PUBLIC	??0?$_List_const_iterator@V?$_List_val@PBVioMeshControlPoint@@V?$allocator@PBVioMeshControlPoint@@@std@@@std@@@std@@QAE@PAU_Node@?$_List_nod@PBVioMeshControlPoint@@V?$allocator@PBVioMeshControlPoint@@@std@@@1@PBV?$_List_val@PBVioMeshControlPoint@@V?$allocator@PBVioMeshControlPoint@@@std@@@1@@Z ; std::_List_const_iterator<std::_List_val<ioMeshControlPoint const *,std::allocator<ioMeshControlPoint const *> > >::_List_const_iterator<std::_List_val<ioMeshControlPoint const *,std::allocator<ioMeshControlPoint const *> > >
; Function compile flags: /Ogsp
; File c:\program files (x86)\microsoft visual studio 10.0\vc\include\list
;	COMDAT ??0?$_List_const_iterator@V?$_List_val@PBVioMeshControlPoint@@V?$allocator@PBVioMeshControlPoint@@@std@@@std@@@std@@QAE@PAU_Node@?$_List_nod@PBVioMeshControlPoint@@V?$allocator@PBVioMeshControlPoint@@@std@@@1@PBV?$_List_val@PBVioMeshControlPoint@@V?$allocator@PBVioMeshControlPoint@@@std@@@1@@Z
_TEXT	SEGMENT
__Pnode$ = 8						; size = 4
__Plist$ = 12						; size = 4
??0?$_List_const_iterator@V?$_List_val@PBVioMeshControlPoint@@V?$allocator@PBVioMeshControlPoint@@@std@@@std@@@std@@QAE@PAU_Node@?$_List_nod@PBVioMeshControlPoint@@V?$allocator@PBVioMeshControlPoint@@@std@@@1@PBV?$_List_val@PBVioMeshControlPoint@@V?$allocator@PBVioMeshControlPoint@@@std@@@1@@Z PROC ; std::_List_const_iterator<std::_List_val<ioMeshControlPoint const *,std::allocator<ioMeshControlPoint const *> > >::_List_const_iterator<std::_List_val<ioMeshControlPoint const *,std::allocator<ioMeshControlPoint const *> > >, COMDAT
; _this$ = ecx

; 184  : 		{	// construct with node pointer _Pnode

  00000	55		 push	 ebp
  00001	8b ec		 mov	 ebp, esp
  00003	8b c1		 mov	 eax, ecx
  00005	8b 4d 08	 mov	 ecx, DWORD PTR __Pnode$[ebp]
  00008	89 08		 mov	 DWORD PTR [eax], ecx

; 185  : 		}

  0000a	5d		 pop	 ebp
  0000b	c2 08 00	 ret	 8
??0?$_List_const_iterator@V?$_List_val@PBVioMeshControlPoint@@V?$allocator@PBVioMeshControlPoint@@@std@@@std@@@std@@QAE@PAU_Node@?$_List_nod@PBVioMeshControlPoint@@V?$allocator@PBVioMeshControlPoint@@@std@@@1@PBV?$_List_val@PBVioMeshControlPoint@@V?$allocator@PBVioMeshControlPoint@@@std@@@1@@Z ENDP ; std::_List_const_iterator<std::_List_val<ioMeshControlPoint const *,std::allocator<ioMeshControlPoint const *> > >::_List_const_iterator<std::_List_val<ioMeshControlPoint const *,std::allocator<ioMeshControlPoint const *> > >
_TEXT	ENDS
PUBLIC	?allocate@?$allocator@UAniEventInfo@@@std@@QAEPAUAniEventInfo@@I@Z ; std::allocator<AniEventInfo>::allocate
; Function compile flags: /Ogsp
; File c:\program files (x86)\microsoft visual studio 10.0\vc\include\xmemory
;	COMDAT ?allocate@?$allocator@UAniEventInfo@@@std@@QAEPAUAniEventInfo@@I@Z
_TEXT	SEGMENT
