; Listing generated by Microsoft (R) Optimizing Compiler Version 16.00.30319.01 

	TITLE	D:\Lost Saga For Developer\Youtube\Tutorial\Source\src\LSClient\ioClientAniEventHandler.cpp
	.686P
	.XMM
	include listing.inc
	.model	flat

INCLUDELIB MSVCRT
INCLUDELIB OLDNAMES

PUBLIC	?return100@@YAIXZ				; return100
; Function compile flags: /Ogsp
; File d:\lost saga for developer\youtube\tutorial\source\src\lsclient\stdafx.h
;	COMDAT ?return100@@YAIXZ
_TEXT	SEGMENT
?return100@@YAIXZ PROC					; return100, COMDAT

; 25   : 	__forceinline unsigned int return100() { __asm mov eax, 100 };

  00000	b8 64 00 00 00	 mov	 eax, 100		; 00000064H
  00005	c3		 ret	 0
?return100@@YAIXZ ENDP					; return100
_TEXT	ENDS
PUBLIC	?return1000@@YAIXZ				; return1000
; Function compile flags: /Ogsp
;	COMDAT ?return1000@@YAIXZ
_TEXT	SEGMENT
?return1000@@YAIXZ PROC					; return1000, COMDAT

; 29   : 	__forceinline unsigned int return1000() { __asm mov eax, 1000 };

  00000	b8 e8 03 00 00	 mov	 eax, 1000		; 000003e8H
  00005	c3		 ret	 0
?return1000@@YAIXZ ENDP					; return1000
_TEXT	ENDS
PUBLIC	?IsOwnerChar@ioBaseChar@@QBE_NXZ		; ioBaseChar::IsOwnerChar
; Function compile flags: /Ogsp
; File d:\lost saga for developer\youtube\tutorial\source\src\lsclient\iobasechar.h
;	COMDAT ?IsOwnerChar@ioBaseChar@@QBE_NXZ
_TEXT	SEGMENT
?IsOwnerChar@ioBaseChar@@QBE_NXZ PROC			; ioBaseChar::IsOwnerChar, COMDAT
; _this$ = ecx

; 1467 : 	inline bool IsOwnerChar() const { return m_bOwnerChar; }

  00000	8a 81 84 13 00
	00		 mov	 al, BYTE PTR [ecx+4996]
  00006	c3		 ret	 0
?IsOwnerChar@ioBaseChar@@QBE_NXZ ENDP			; ioBaseChar::IsOwnerChar
_TEXT	ENDS
PUBLIC	?GetEquipSlot@ioBaseChar@@QAEPAVioEquipSlot@@XZ	; ioBaseChar::GetEquipSlot
; Function compile flags: /Ogsp
;	COMDAT ?GetEquipSlot@ioBaseChar@@QAEPAVioEquipSlot@@XZ
_TEXT	SEGMENT
?GetEquipSlot@ioBaseChar@@QAEPAVioEquipSlot@@XZ PROC	; ioBaseChar::GetEquipSlot, COMDAT
; _this$ = ecx

; 1871 : 	ioEquipSlot* GetEquipSlot() { return m_pEquipSlot; }

  00000	8b 81 48 03 00
	00		 mov	 eax, DWORD PTR [ecx+840]
  00006	c3		 ret	 0
?GetEquipSlot@ioBaseChar@@QAEPAVioEquipSlot@@XZ ENDP	; ioBaseChar::GetEquipSlot
_TEXT	ENDS
PUBLIC	?GetCharName@ioBaseChar@@QBEABVioHashString@@XZ	; ioBaseChar::GetCharName
; Function compile flags: /Ogsp
;	COMDAT ?GetCharName@ioBaseChar@@QBEABVioHashString@@XZ
_TEXT	SEGMENT
?GetCharName@ioBaseChar@@QBEABVioHashString@@XZ PROC	; ioBaseChar::GetCharName, COMDAT
; _this$ = ecx

; 2594 : 	inline const ioHashString& GetCharName() const { return m_Name; }

  00000	8d 81 d4 02 00
	00		 lea	 eax, DWORD PTR [ecx+724]
  00006	c3		 ret	 0
?GetCharName@ioBaseChar@@QBEABVioHashString@@XZ ENDP	; ioBaseChar::GetCharName
_TEXT	ENDS
PUBLIC	?IsMale@ioBaseChar@@QBE_NXZ			; ioBaseChar::IsMale
; Function compile flags: /Ogsp
;	COMDAT ?IsMale@ioBaseChar@@QBE_NXZ
_TEXT	SEGMENT
?IsMale@ioBaseChar@@QBE_NXZ PROC			; ioBaseChar::IsMale, COMDAT
; _this$ = ecx

; 2775 : 	inline bool IsMale() const { return m_bMale; }

  00000	8a 81 20 03 00
	00		 mov	 al, BYTE PTR [ecx+800]
  00006	c3		 ret	 0
?IsMale@ioBaseChar@@QBE_NXZ ENDP			; ioBaseChar::IsMale
_TEXT	ENDS
PUBLIC	?GetCharacterInfo@ioBaseChar@@QBEABUCHARACTER@@XZ ; ioBaseChar::GetCharacterInfo
; Function compile flags: /Ogsp
;	COMDAT ?GetCharacterInfo@ioBaseChar@@QBEABUCHARACTER@@XZ
_TEXT	SEGMENT
?GetCharacterInfo@ioBaseChar@@QBEABUCHARACTER@@XZ PROC	; ioBaseChar::GetCharacterInfo, COMDAT
; _this$ = ecx

; 2777 : 	inline const CHARACTER& GetCharacterInfo() const { return m_CharInfo; }

  00000	8d 81 58 03 00
	00		 lea	 eax, DWORD PTR [ecx+856]
  00006	c3		 ret	 0
?GetCharacterInfo@ioBaseChar@@QBEABUCHARACTER@@XZ ENDP	; ioBaseChar::GetCharacterInfo
_TEXT	ENDS
PUBLIC	??_7bad_alloc@std@@6B@				; std::bad_alloc::`vftable'
PUBLIC	??0bad_alloc@std@@QAE@PBD@Z			; std::bad_alloc::bad_alloc
PUBLIC	??_R4bad_alloc@std@@6B@				; std::bad_alloc::`RTTI Complete Object Locator'
PUBLIC	??_R0?AVbad_alloc@std@@@8			; std::bad_alloc `RTTI Type Descriptor'
PUBLIC	??_R3bad_alloc@std@@8				; std::bad_alloc::`RTTI Class Hierarchy Descriptor'
PUBLIC	??_R2bad_alloc@std@@8				; std::bad_alloc::`RTTI Base Class Array'
PUBLIC	??_R1A@?0A@EA@bad_alloc@std@@8			; std::bad_alloc::`RTTI Base Class Descriptor at (0,-1,0,64)'
PUBLIC	??_R1A@?0A@EA@exception@std@@8			; std::exception::`RTTI Base Class Descriptor at (0,-1,0,64)'
PUBLIC	??_R0?AVexception@std@@@8			; std::exception `RTTI Type Descriptor'
PUBLIC	??_R3exception@std@@8				; std::exception::`RTTI Class Hierarchy Descriptor'
PUBLIC	??_R2exception@std@@8				; std::exception::`RTTI Base Class Array'
EXTRN	__imp_??0exception@std@@QAE@ABQBD@Z:PROC
EXTRN	??_7type_info@@6B@:QWORD			; type_info::`vftable'
EXTRN	??_Ebad_alloc@std@@UAEPAXI@Z:PROC		; std::bad_alloc::`vector deleting destructor'
EXTRN	?what@exception@std@@UBEPBDXZ:PROC		; std::exception::what
;	COMDAT ??_R2exception@std@@8
; File c:\program files (x86)\microsoft visual studio 10.0\vc\include\exception
rdata$r	SEGMENT
??_R2exception@std@@8 DD FLAT:??_R1A@?0A@EA@exception@std@@8 ; std::exception::`RTTI Base Class Array'
rdata$r	ENDS
;	COMDAT ??_R3exception@std@@8
rdata$r	SEGMENT
??_R3exception@std@@8 DD 00H				; std::exception::`RTTI Class Hierarchy Descriptor'
	DD	00H
	DD	01H
	DD	FLAT:??_R2exception@std@@8
rdata$r	ENDS
;	COMDAT ??_R0?AVexception@std@@@8
_DATA	SEGMENT
??_R0?AVexception@std@@@8 DD FLAT:??_7type_info@@6B@	; std::exception `RTTI Type Descriptor'
	DD	00H
	DB	'.?AVexception@std@@', 00H
_DATA	ENDS
;	COMDAT ??_R1A@?0A@EA@exception@std@@8
rdata$r	SEGMENT
??_R1A@?0A@EA@exception@std@@8 DD FLAT:??_R0?AVexception@std@@@8 ; std::exception::`RTTI Base Class Descriptor at (0,-1,0,64)'
	DD	00H
	DD	00H
	DD	0ffffffffH
	DD	00H
	DD	040H
	DD	FLAT:??_R3exception@std@@8
rdata$r	ENDS
;	COMDAT ??_R1A@?0A@EA@bad_alloc@std@@8
rdata$r	SEGMENT
??_R1A@?0A@EA@bad_alloc@std@@8 DD FLAT:??_R0?AVbad_alloc@std@@@8 ; std::bad_alloc::`RTTI Base Class Descriptor at (0,-1,0,64)'
	DD	01H
	DD	00H
	DD	0ffffffffH
	DD	00H
	DD	040H
	DD	FLAT:??_R3bad_alloc@std@@8
rdata$r	ENDS
;	COMDAT ??_R2bad_alloc@std@@8
rdata$r	SEGMENT
??_R2bad_alloc@std@@8 DD FLAT:??_R1A@?0A@EA@bad_alloc@std@@8 ; std::bad_alloc::`RTTI Base Class Array'
	DD	FLAT:??_R1A@?0A@EA@exception@std@@8
rdata$r	ENDS
;	COMDAT ??_R3bad_alloc@std@@8
rdata$r	SEGMENT
??_R3bad_alloc@std@@8 DD 00H				; std::bad_alloc::`RTTI Class Hierarchy Descriptor'
	DD	00H
	DD	02H
	DD	FLAT:??_R2bad_alloc@std@@8
rdata$r	ENDS
;	COMDAT ??_R0?AVbad_alloc@std@@@8
_DATA	SEGMENT
??_R0?AVbad_alloc@std@@@8 DD FLAT:??_7type_info@@6B@	; std::bad_alloc `RTTI Type Descriptor'
	DD	00H
	DB	'.?AVbad_alloc@std@@', 00H
_DATA	ENDS
;	COMDAT ??_R4bad_alloc@std@@6B@
rdata$r	SEGMENT
??_R4bad_alloc@std@@6B@ DD 00H				; std::bad_alloc::`RTTI Complete Object Locator'
	DD	00H
	DD	00H
	DD	FLAT:??_R0?AVbad_alloc@std@@@8
	DD	FLAT:??_R3bad_alloc@std@@8
rdata$r	ENDS
;	COMDAT ??_7bad_alloc@std@@6B@
CONST	SEGMENT
??_7bad_alloc@std@@6B@ DD FLAT:??_R4bad_alloc@std@@6B@	; std::bad_alloc::`vftable'
	DD	FLAT:??_Ebad_alloc@std@@UAEPAXI@Z
	DD	FLAT:?what@exception@std@@UBEPBDXZ
; Function compile flags: /Ogsp
CONST	ENDS
;	COMDAT ??0bad_alloc@std@@QAE@PBD@Z
_TEXT	SEGMENT
__Message$ = 8						; size = 4
??0bad_alloc@std@@QAE@PBD@Z PROC			; std::bad_alloc::bad_alloc, COMDAT
; _this$ = ecx

; 345  : 		{	// construct from message string

  00000	55		 push	 ebp
  00001	8b ec		 mov	 ebp, esp
  00003	56		 push	 esi
  00004	8d 45 08	 lea	 eax, DWORD PTR __Message$[ebp]
  00007	50		 push	 eax
  00008	8b f1		 mov	 esi, ecx
  0000a	ff 15 00 00 00
	00		 call	 DWORD PTR __imp_??0exception@std@@QAE@ABQBD@Z
  00010	c7 06 00 00 00
	00		 mov	 DWORD PTR [esi], OFFSET ??_7bad_alloc@std@@6B@

; 346  : 		}

  00016	8b c6		 mov	 eax, esi
  00018	5e		 pop	 esi
  00019	5d		 pop	 ebp
  0001a	c2 04 00	 ret	 4
??0bad_alloc@std@@QAE@PBD@Z ENDP			; std::bad_alloc::bad_alloc
_TEXT	ENDS
PUBLIC	??1bad_alloc@std@@UAE@XZ			; std::bad_alloc::~bad_alloc
EXTRN	__imp_??1exception@std@@UAE@XZ:PROC
; Function compile flags: /Ogsp
;	COMDAT ??1bad_alloc@std@@UAE@XZ
_TEXT	SEGMENT
??1bad_alloc@std@@UAE@XZ PROC				; std::bad_alloc::~bad_alloc, COMDAT
; _this$ = ecx

; 354  : 		{	// destroy the object

  00000	c7 01 00 00 00
	00		 mov	 DWORD PTR [ecx], OFFSET ??_7bad_alloc@std@@6B@

; 355  : 		}

  00006	ff 25 00 00 00
	00		 jmp	 DWORD PTR __imp_??1exception@std@@UAE@XZ
??1bad_alloc@std@@UAE@XZ ENDP				; std::bad_alloc::~bad_alloc
_TEXT	ENDS
EXTRN	??3@YAXPAX@Z:PROC				; operator delete
; Function compile flags: /Ogsp
;	COMDAT ??_Gbad_alloc@std@@UAEPAXI@Z
_TEXT	SEGMENT
___flags$ = 8						; size = 4
??_Gbad_alloc@std@@UAEPAXI@Z PROC			; std::bad_alloc::`scalar deleting destructor', COMDAT
; _this$ = ecx
  00000	55		 push	 ebp
  00001	8b ec		 mov	 ebp, esp
  00003	56		 push	 esi
  00004	8b f1		 mov	 esi, ecx
  00006	c7 06 00 00 00
	00		 mov	 DWORD PTR [esi], OFFSET ??_7bad_alloc@std@@6B@
  0000c	ff 15 00 00 00
	00		 call	 DWORD PTR __imp_??1exception@std@@UAE@XZ
  00012	f6 45 08 01	 test	 BYTE PTR ___flags$[ebp], 1
  00016	74 07		 je	 SHORT $LN1@scalar
  00018	56		 push	 esi
  00019	e8 00 00 00 00	 call	 ??3@YAXPAX@Z		; operator delete
  0001e	59		 pop	 ecx
$LN1@scalar:
  0001f	8b c6		 mov	 eax, esi
  00021	5e		 pop	 esi
  00022	5d		 pop	 ebp
  00023	c2 04 00	 ret	 4
??_Gbad_alloc@std@@UAEPAXI@Z ENDP			; std::bad_alloc::`scalar deleting destructor'
_TEXT	ENDS
PUBLIC	??2@YAPAXIPAX@Z					; operator new
; Function compile flags: /Ogsp
; File c:\program files (x86)\microsoft visual studio 10.0\vc\include\new
;	COMDAT ??2@YAPAXIPAX@Z
_TEXT	SEGMENT
___formal$ = 8						; size = 4
__Where$ = 12						; size = 4
??2@YAPAXIPAX@Z PROC					; operator new, COMDAT

; 56   : 	{	// construct array with placement at _Where

  00000	55		 push	 ebp
  00001	8b ec		 mov	 ebp, esp

; 57   : 	return (_Where);

  00003	8b 45 0c	 mov	 eax, DWORD PTR __Where$[ebp]

; 58   : 	}

  00006	5d		 pop	 ebp
  00007	c3		 ret	 0
??2@YAPAXIPAX@Z ENDP					; operator new
_TEXT	ENDS
PUBLIC	??3@YAXPAX0@Z					; operator delete
; Function compile flags: /Ogsp
;	COMDAT ??3@YAXPAX0@Z
_TEXT	SEGMENT
___formal$ = 8						; size = 4
___formal$ = 12						; size = 4
??3@YAXPAX0@Z PROC					; operator delete, COMDAT

; 62   : 	}

  00000	c3		 ret	 0
??3@YAXPAX0@Z ENDP					; operator delete
_TEXT	ENDS
PUBLIC	?length@?$char_traits@D@std@@SAIPBD@Z		; std::char_traits<char>::length
; Function compile flags: /Ogsp
; File c:\program files (x86)\microsoft visual studio 10.0\vc\include\iosfwd
;	COMDAT ?length@?$char_traits@D@std@@SAIPBD@Z
_TEXT	SEGMENT
__First$ = 8						; size = 4
?length@?$char_traits@D@std@@SAIPBD@Z PROC		; std::char_traits<char>::length, COMDAT

; 490  : 		{	// find length of null-terminated string

  00000	55		 push	 ebp
  00001	8b ec		 mov	 ebp, esp

; 491  : 		return (_CSTD strlen(_First));

  00003	8b 45 08	 mov	 eax, DWORD PTR __First$[ebp]
  00006	8d 50 01	 lea	 edx, DWORD PTR [eax+1]
$LL3@length:
  00009	8a 08		 mov	 cl, BYTE PTR [eax]
  0000b	40		 inc	 eax
  0000c	84 c9		 test	 cl, cl
  0000e	75 f9		 jne	 SHORT $LL3@length
  00010	2b c2		 sub	 eax, edx

; 492  : 		}

  00012	5d		 pop	 ebp
  00013	c3		 ret	 0
?length@?$char_traits@D@std@@SAIPBD@Z ENDP		; std::char_traits<char>::length
_TEXT	ENDS
PUBLIC	?copy@?$char_traits@D@std@@SAPADPADPBDI@Z	; std::char_traits<char>::copy
EXTRN	_memcpy:PROC
; Function compile flags: /Ogsp
;	COMDAT ?copy@?$char_traits@D@std@@SAPADPADPBDI@Z
_TEXT	SEGMENT
__First1$ = 8						; size = 4
__First2$ = 12						; size = 4
__Count$ = 16						; size = 4
?copy@?$char_traits@D@std@@SAPADPADPBDI@Z PROC		; std::char_traits<char>::copy, COMDAT

; 496  : 		{	// copy [_First1, _First1 + _Count) to [_First2, ...)

  00000	55		 push	 ebp
  00001	8b ec		 mov	 ebp, esp

; 498  : 		}

  00003	5d		 pop	 ebp

; 497  : 		return ((_Elem *)_CSTD memcpy(_First1, _First2, _Count));

  00004	e9 00 00 00 00	 jmp	 _memcpy
?copy@?$char_traits@D@std@@SAPADPADPBDI@Z ENDP		; std::char_traits<char>::copy
_TEXT	ENDS
PUBLIC	?move@?$char_traits@D@std@@SAPADPADPBDI@Z	; std::char_traits<char>::move
EXTRN	__imp__memmove:PROC
; Function compile flags: /Ogsp
;	COMDAT ?move@?$char_traits@D@std@@SAPADPADPBDI@Z
_TEXT	SEGMENT
__First1$ = 8						; size = 4
__First2$ = 12						; size = 4
__Count$ = 16						; size = 4
?move@?$char_traits@D@std@@SAPADPADPBDI@Z PROC		; std::char_traits<char>::move, COMDAT

; 516  : 		{	// copy [_First1, _First1 + _Count) to [_First2, ...)

  00000	55		 push	 ebp
  00001	8b ec		 mov	 ebp, esp

; 518  : 		}

  00003	5d		 pop	 ebp

; 517  : 		return ((_Elem *)_CSTD memmove(_First1, _First2, _Count));

  00004	ff 25 00 00 00
	00		 jmp	 DWORD PTR __imp__memmove
?move@?$char_traits@D@std@@SAPADPADPBDI@Z ENDP		; std::char_traits<char>::move
_TEXT	ENDS
PUBLIC	?assign@?$char_traits@D@std@@SAXAADABD@Z	; std::char_traits<char>::assign
; Function compile flags: /Ogsp
;	COMDAT ?assign@?$char_traits@D@std@@SAXAADABD@Z
_TEXT	SEGMENT
__Left$ = 8						; size = 4
__Right$ = 12						; size = 4
?assign@?$char_traits@D@std@@SAXAADABD@Z PROC		; std::char_traits<char>::assign, COMDAT

; 526  : 		{	// assign an element

  00000	55		 push	 ebp
  00001	8b ec		 mov	 ebp, esp

; 527  : 		_Left = _Right;

  00003	8b 45 0c	 mov	 eax, DWORD PTR __Right$[ebp]
  00006	8a 00		 mov	 al, BYTE PTR [eax]
  00008	8b 4d 08	 mov	 ecx, DWORD PTR __Left$[ebp]
  0000b	88 01		 mov	 BYTE PTR [ecx], al

; 528  : 		}

  0000d	5d		 pop	 ebp
  0000e	c3		 ret	 0
?assign@?$char_traits@D@std@@SAXAADABD@Z ENDP		; std::char_traits<char>::assign
_TEXT	ENDS
PUBLIC	?IsUseHeadMeshChange@ioNpcChar@@QAE_NXZ		; ioNpcChar::IsUseHeadMeshChange
; Function compile flags: /Ogsp
; File d:\lost saga for developer\youtube\tutorial\source\src\lsclient\ionpcchar.h
;	COMDAT ?IsUseHeadMeshChange@ioNpcChar@@QAE_NXZ
_TEXT	SEGMENT
?IsUseHeadMeshChange@ioNpcChar@@QAE_NXZ PROC		; ioNpcChar::IsUseHeadMeshChange, COMDAT
; _this$ = ecx

; 317  : 	bool IsUseHeadMeshChange() { return m_bUseHeadMeshChange; }

  00000	8a 81 6d 48 00
	00		 mov	 al, BYTE PTR [ecx+18541]
  00006	c3		 ret	 0
?IsUseHeadMeshChange@ioNpcChar@@QAE_NXZ ENDP		; ioNpcChar::IsUseHeadMeshChange
_TEXT	ENDS
PUBLIC	?SetBaseChar@ioClientAniEventHandler@@QAEXPAVioBaseChar@@@Z ; ioClientAniEventHandler::SetBaseChar
; Function compile flags: /Ogsp
; File d:\lost saga for developer\youtube\tutorial\source\src\lsclient\ioclientanieventhandler.cpp
;	COMDAT ?SetBaseChar@ioClientAniEventHandler@@QAEXPAVioBaseChar@@@Z
_TEXT	SEGMENT
_pChar$ = 8						; size = 4
?SetBaseChar@ioClientAniEventHandler@@QAEXPAVioBaseChar@@@Z PROC ; ioClientAniEventHandler::SetBaseChar, COMDAT
; _this$ = ecx

; 25   : {

  00000	55		 push	 ebp
  00001	8b ec		 mov	 ebp, esp

; 26   : 	m_pChar = pChar;

  00003	8b 45 08	 mov	 eax, DWORD PTR _pChar$[ebp]
  00006	89 41 18	 mov	 DWORD PTR [ecx+24], eax

; 27   : }

  00009	5d		 pop	 ebp
  0000a	c2 04 00	 ret	 4
?SetBaseChar@ioClientAniEventHandler@@QAEXPAVioBaseChar@@@Z ENDP ; ioClientAniEventHandler::SetBaseChar
_TEXT	ENDS
PUBLIC	?OnAutoShakeCamera@ioClientAniEventHandler@@IAEXPBUAniEventTime@@PBVioAnimation@@@Z ; ioClientAniEventHandler::OnAutoShakeCamera
EXTRN	?SetShakeCamera@ioShakeCameraManager@@QAEXHH@Z:PROC ; ioShakeCameraManager::SetShakeCamera
EXTRN	?GetSingleton@ioShakeCameraManager@@SAAAV1@XZ:PROC ; ioShakeCameraManager::GetSingleton
EXTRN	__imp_?ParseInt@ioStringConverter@@SAHPBD@Z:PROC
EXTRN	__imp_?c_str@ioHashString@@QBEPBDXZ:PROC
; Function compile flags: /Ogsp
;	COMDAT ?OnAutoShakeCamera@ioClientAniEventHandler@@IAEXPBUAniEventTime@@PBVioAnimation@@@Z
_TEXT	SEGMENT
_pEvent$ = 8						; size = 4
_pNotifier$ = 12					; size = 4
?OnAutoShakeCamera@ioClientAniEventHandler@@IAEXPBUAniEventTime@@PBVioAnimation@@@Z PROC ; ioClientAniEventHandler::OnAutoShakeCamera, COMDAT
; _this$ = ecx

; 163  : {

  00000	55		 push	 ebp
  00001	8b ec		 mov	 ebp, esp

; 164  : 	if( m_pChar->IsOwnerChar() )

  00003	8b 41 18	 mov	 eax, DWORD PTR [ecx+24]
  00006	80 b8 84 13 00
	00 00		 cmp	 BYTE PTR [eax+4996], 0
  0000d	74 27		 je	 SHORT $LN1@OnAutoShak

; 165  : 	{
; 166  : 		int iShake = ioStringConverter::ParseInt( pEvent->szSubInfo.c_str() );

  0000f	8b 4d 08	 mov	 ecx, DWORD PTR _pEvent$[ebp]
  00012	83 c1 14	 add	 ecx, 20			; 00000014H
  00015	ff 15 00 00 00
	00		 call	 DWORD PTR __imp_?c_str@ioHashString@@QBEPBDXZ
  0001b	50		 push	 eax
  0001c	ff 15 00 00 00
	00		 call	 DWORD PTR __imp_?ParseInt@ioStringConverter@@SAHPBD@Z
  00022	59		 pop	 ecx

; 167  : 		if( iShake > 0 )

  00023	85 c0		 test	 eax, eax
  00025	7e 0f		 jle	 SHORT $LN1@OnAutoShak

; 168  : 		{
; 169  : 			g_ShakeCameraMgr.SetShakeCamera( iShake );

  00027	6a 00		 push	 0
  00029	50		 push	 eax
  0002a	e8 00 00 00 00	 call	 ?GetSingleton@ioShakeCameraManager@@SAAAV1@XZ ; ioShakeCameraManager::GetSingleton
  0002f	8b c8		 mov	 ecx, eax
  00031	e8 00 00 00 00	 call	 ?SetShakeCamera@ioShakeCameraManager@@QAEXHH@Z ; ioShakeCameraManager::SetShakeCamera
$LN1@OnAutoShak:

; 170  : 		}
; 171  : 	}
; 172  : }

  00036	5d		 pop	 ebp
  00037	c2 08 00	 ret	 8
?OnAutoShakeCamera@ioClientAniEventHandler@@IAEXPBUAniEventTime@@PBVioAnimation@@@Z ENDP ; ioClientAniEventHandler::OnAutoShakeCamera
_TEXT	ENDS
PUBLIC	?OnVoiceSound@ioClientAniEventHandler@@IAEXPBUAniEventTime@@PBVioAnimation@@@Z ; ioClientAniEventHandler::OnVoiceSound
EXTRN	__imp_??1ioHashString@@QAE@XZ:PROC
EXTRN	__imp_?PlaySoundA@ioSoundManager@@QAEKABVioHashString@@PAVioSceneNode@@K@Z:PROC
EXTRN	__imp_?GetSingleton@ioSoundManager@@SAAAV1@XZ:PROC
EXTRN	?GetVoiceSoundName@ioBaseChar@@QAE?AVioHashString@@ABV2@@Z:PROC ; ioBaseChar::GetVoiceSoundName
EXTRN	___CxxFrameHandler3:PROC
EXTRN	@__security_check_cookie@4:PROC
EXTRN	__EH_epilog3:PROC
EXTRN	__EH_prolog3:PROC
;	COMDAT xdata$x
xdata$x	SEGMENT
__unwindtable$?OnVoiceSound@ioClientAniEventHandler@@IAEXPBUAniEventTime@@PBVioAnimation@@@Z DD 0ffffffffH
	DD	FLAT:__unwindfunclet$?OnVoiceSound@ioClientAniEventHandler@@IAEXPBUAniEventTime@@PBVioAnimation@@@Z$0
__ehfuncinfo$?OnVoiceSound@ioClientAniEventHandler@@IAEXPBUAniEventTime@@PBVioAnimation@@@Z DD 019930522H
	DD	01H
	DD	FLAT:__unwindtable$?OnVoiceSound@ioClientAniEventHandler@@IAEXPBUAniEventTime@@PBVioAnimation@@@Z
	DD	2 DUP(00H)
	DD	2 DUP(00H)
	DD	00H
	DD	01H
; Function compile flags: /Ogsp
xdata$x	ENDS
;	COMDAT ?OnVoiceSound@ioClientAniEventHandler@@IAEXPBUAniEventTime@@PBVioAnimation@@@Z
_TEXT	SEGMENT
_szNewSound$ = -28					; size = 16
__$EHRec$ = -12						; size = 12
_pEvent$ = 8						; size = 4
_pNotifier$ = 12					; size = 4
?OnVoiceSound@ioClientAniEventHandler@@IAEXPBUAniEventTime@@PBVioAnimation@@@Z PROC ; ioClientAniEventHandler::OnVoiceSound, COMDAT
; _this$ = ecx

; 203  : {

  00000	6a 10		 push	 16			; 00000010H
  00002	b8 00 00 00 00	 mov	 eax, __ehhandler$?OnVoiceSound@ioClientAniEventHandler@@IAEXPBUAniEventTime@@PBVioAnimation@@@Z
  00007	e8 00 00 00 00	 call	 __EH_prolog3
  0000c	8b f1		 mov	 esi, ecx

; 204  : 	ioHashString szNewSound = m_pChar->GetVoiceSoundName( pEvent->szSubInfo );

  0000e	8b 45 08	 mov	 eax, DWORD PTR _pEvent$[ebp]
  00011	8b 4e 18	 mov	 ecx, DWORD PTR [esi+24]
  00014	83 c0 14	 add	 eax, 20			; 00000014H
  00017	50		 push	 eax
  00018	8d 45 e4	 lea	 eax, DWORD PTR _szNewSound$[ebp]
  0001b	50		 push	 eax
  0001c	e8 00 00 00 00	 call	 ?GetVoiceSoundName@ioBaseChar@@QAE?AVioHashString@@ABV2@@Z ; ioBaseChar::GetVoiceSoundName

; 205  : 
; 206  : 	g_SoundMgr.PlaySound( szNewSound, m_pOwner->GetParentSceneNode() );

  00021	8b 4e 04	 mov	 ecx, DWORD PTR [esi+4]
  00024	8b 01		 mov	 eax, DWORD PTR [ecx]
  00026	83 65 fc 00	 and	 DWORD PTR __$EHRec$[ebp+8], 0
  0002a	6a 04		 push	 4
  0002c	ff 50 34	 call	 DWORD PTR [eax+52]
  0002f	50		 push	 eax
  00030	8d 45 e4	 lea	 eax, DWORD PTR _szNewSound$[ebp]
  00033	50		 push	 eax
  00034	ff 15 00 00 00
	00		 call	 DWORD PTR __imp_?GetSingleton@ioSoundManager@@SAAAV1@XZ
  0003a	8b c8		 mov	 ecx, eax
  0003c	ff 15 00 00 00
	00		 call	 DWORD PTR __imp_?PlaySoundA@ioSoundManager@@QAEKABVioHashString@@PAVioSceneNode@@K@Z

; 207  : }

  00042	83 4d fc ff	 or	 DWORD PTR __$EHRec$[ebp+8], -1
  00046	8d 4d e4	 lea	 ecx, DWORD PTR _szNewSound$[ebp]
  00049	ff 15 00 00 00
	00		 call	 DWORD PTR __imp_??1ioHashString@@QAE@XZ
  0004f	e8 00 00 00 00	 call	 __EH_epilog3
  00054	c2 08 00	 ret	 8
_TEXT	ENDS
;	COMDAT text$x
text$x	SEGMENT
__unwindfunclet$?OnVoiceSound@ioClientAniEventHandler@@IAEXPBUAniEventTime@@PBVioAnimation@@@Z$0:
  00000	8d 4d e4	 lea	 ecx, DWORD PTR _szNewSound$[ebp]
  00003	ff 25 00 00 00
	00		 jmp	 DWORD PTR __imp_??1ioHashString@@QAE@XZ
__ehhandler$?OnVoiceSound@ioClientAniEventHandler@@IAEXPBUAniEventTime@@PBVioAnimation@@@Z:
  00009	8b 54 24 08	 mov	 edx, DWORD PTR [esp+8]
  0000d	8d 42 0c	 lea	 eax, DWORD PTR [edx+12]
  00010	8b 4a e0	 mov	 ecx, DWORD PTR [edx-32]
  00013	33 c8		 xor	 ecx, eax
  00015	e8 00 00 00 00	 call	 @__security_check_cookie@4
  0001a	b8 00 00 00 00	 mov	 eax, OFFSET __ehfuncinfo$?OnVoiceSound@ioClientAniEventHandler@@IAEXPBUAniEventTime@@PBVioAnimation@@@Z
  0001f	e9 00 00 00 00	 jmp	 ___CxxFrameHandler3
text$x	ENDS
?OnVoiceSound@ioClientAniEventHandler@@IAEXPBUAniEventTime@@PBVioAnimation@@@Z ENDP ; ioClientAniEventHandler::OnVoiceSound
PUBLIC	?OnAutoEffect@ioClientAniEventHandler@@IAEXPBUAniEventTime@@PBVioAnimation@@@Z ; ioClientAniEventHandler::OnAutoEffect
EXTRN	?AttachEffect@ioBaseChar@@QAEPAVioEffect@@ABVioHashString@@PAVioEntityEvent@@_N@Z:PROC ; ioBaseChar::AttachEffect
; Function compile flags: /Ogsp
;	COMDAT ?OnAutoEffect@ioClientAniEventHandler@@IAEXPBUAniEventTime@@PBVioAnimation@@@Z
_TEXT	SEGMENT
_pEvent$ = 8						; size = 4
_pNotifier$ = 12					; size = 4
?OnAutoEffect@ioClientAniEventHandler@@IAEXPBUAniEventTime@@PBVioAnimation@@@Z PROC ; ioClientAniEventHandler::OnAutoEffect, COMDAT
; _this$ = ecx

; 217  : {

  00000	55		 push	 ebp
  00001	8b ec		 mov	 ebp, esp

; 218  : 	m_pChar->AttachEffect( pEvent->szSubInfo );

  00003	8b 45 08	 mov	 eax, DWORD PTR _pEvent$[ebp]
  00006	8b 49 18	 mov	 ecx, DWORD PTR [ecx+24]
  00009	6a 01		 push	 1
  0000b	6a 00		 push	 0
  0000d	83 c0 14	 add	 eax, 20			; 00000014H
  00010	50		 push	 eax
  00011	e8 00 00 00 00	 call	 ?AttachEffect@ioBaseChar@@QAEPAVioEffect@@ABVioHashString@@PAVioEntityEvent@@_N@Z ; ioBaseChar::AttachEffect

; 219  : }

  00016	5d		 pop	 ebp
  00017	c2 08 00	 ret	 8
?OnAutoEffect@ioClientAniEventHandler@@IAEXPBUAniEventTime@@PBVioAnimation@@@Z ENDP ; ioClientAniEventHandler::OnAutoEffect
_TEXT	ENDS
PUBLIC	??0AniEventInfo@@QAE@XZ				; AniEventInfo::AniEventInfo
EXTRN	__imp_??0ioHashString@@QAE@XZ:PROC
;	COMDAT xdata$x
xdata$x	SEGMENT
__unwindtable$??0AniEventInfo@@QAE@XZ DD 0ffffffffH
	DD	FLAT:__unwindfunclet$??0AniEventInfo@@QAE@XZ$0
__ehfuncinfo$??0AniEventInfo@@QAE@XZ DD 019930522H
	DD	01H
	DD	FLAT:__unwindtable$??0AniEventInfo@@QAE@XZ
	DD	2 DUP(00H)
	DD	2 DUP(00H)
	DD	00H
	DD	01H
; Function compile flags: /Ogsp
xdata$x	ENDS
;	COMDAT ??0AniEventInfo@@QAE@XZ
_TEXT	SEGMENT
_this$ = -16						; size = 4
__$EHRec$ = -12						; size = 12
??0AniEventInfo@@QAE@XZ PROC				; AniEventInfo::AniEventInfo, COMDAT
; _this$ = ecx
  00000	6a 04		 push	 4
  00002	b8 00 00 00 00	 mov	 eax, __ehhandler$??0AniEventInfo@@QAE@XZ
  00007	e8 00 00 00 00	 call	 __EH_prolog3
  0000c	8b f9		 mov	 edi, ecx
  0000e	89 7d f0	 mov	 DWORD PTR _this$[ebp], edi
  00011	8b 35 00 00 00
	00		 mov	 esi, DWORD PTR __imp_??0ioHashString@@QAE@XZ
  00017	ff d6		 call	 esi
  00019	83 65 fc 00	 and	 DWORD PTR __$EHRec$[ebp+8], 0
  0001d	8d 4f 10	 lea	 ecx, DWORD PTR [edi+16]
  00020	ff d6		 call	 esi
  00022	8b c7		 mov	 eax, edi
  00024	e8 00 00 00 00	 call	 __EH_epilog3
  00029	c3		 ret	 0
_TEXT	ENDS
;	COMDAT text$x
text$x	SEGMENT
__unwindfunclet$??0AniEventInfo@@QAE@XZ$0:
  00000	8b 4d f0	 mov	 ecx, DWORD PTR _this$[ebp]
  00003	ff 25 00 00 00
	00		 jmp	 DWORD PTR __imp_??1ioHashString@@QAE@XZ
__ehhandler$??0AniEventInfo@@QAE@XZ:
  00009	8b 54 24 08	 mov	 edx, DWORD PTR [esp+8]
  0000d	8d 42 0c	 lea	 eax, DWORD PTR [edx+12]
  00010	8b 4a ec	 mov	 ecx, DWORD PTR [edx-20]
  00013	33 c8		 xor	 ecx, eax
  00015	e8 00 00 00 00	 call	 @__security_check_cookie@4
  0001a	b8 00 00 00 00	 mov	 eax, OFFSET __ehfuncinfo$??0AniEventInfo@@QAE@XZ
  0001f	e9 00 00 00 00	 jmp	 ___CxxFrameHandler3
text$x	ENDS
??0AniEventInfo@@QAE@XZ ENDP				; AniEventInfo::AniEventInfo
PUBLIC	??1AniEventInfo@@QAE@XZ				; AniEventInfo::~AniEventInfo
;	COMDAT xdata$x
xdata$x	SEGMENT
__unwindtable$??1AniEventInfo@@QAE@XZ DD 0ffffffffH
	DD	FLAT:__unwindfunclet$??1AniEventInfo@@QAE@XZ$0
__ehfuncinfo$??1AniEventInfo@@QAE@XZ DD 019930522H
	DD	01H
	DD	FLAT:__unwindtable$??1AniEventInfo@@QAE@XZ
	DD	2 DUP(00H)
	DD	2 DUP(00H)
	DD	00H
	DD	01H
; Function compile flags: /Ogsp
xdata$x	ENDS
;	COMDAT ??1AniEventInfo@@QAE@XZ
_TEXT	SEGMENT
_this$ = -16						; size = 4
__$EHRec$ = -12						; size = 12
??1AniEventInfo@@QAE@XZ PROC				; AniEventInfo::~AniEventInfo, COMDAT
; _this$ = ecx
  00000	6a 04		 push	 4
  00002	b8 00 00 00 00	 mov	 eax, __ehhandler$??1AniEventInfo@@QAE@XZ
  00007	e8 00 00 00 00	 call	 __EH_prolog3
  0000c	8b f9		 mov	 edi, ecx
  0000e	89 7d f0	 mov	 DWORD PTR _this$[ebp], edi
  00011	8b 35 00 00 00
	00		 mov	 esi, DWORD PTR __imp_??1ioHashString@@QAE@XZ
  00017	83 65 fc 00	 and	 DWORD PTR __$EHRec$[ebp+8], 0
  0001b	8d 4f 10	 lea	 ecx, DWORD PTR [edi+16]
  0001e	ff d6		 call	 esi
  00020	83 4d fc ff	 or	 DWORD PTR __$EHRec$[ebp+8], -1
  00024	8b cf		 mov	 ecx, edi
  00026	ff d6		 call	 esi
  00028	e8 00 00 00 00	 call	 __EH_epilog3
  0002d	c3		 ret	 0
_TEXT	ENDS
;	COMDAT text$x
text$x	SEGMENT
__unwindfunclet$??1AniEventInfo@@QAE@XZ$0:
  00000	8b 4d f0	 mov	 ecx, DWORD PTR _this$[ebp]
  00003	ff 25 00 00 00
	00		 jmp	 DWORD PTR __imp_??1ioHashString@@QAE@XZ
__ehhandler$??1AniEventInfo@@QAE@XZ:
  00009	8b 54 24 08	 mov	 edx, DWORD PTR [esp+8]
  0000d	8d 42 0c	 lea	 eax, DWORD PTR [edx+12]
  00010	8b 4a ec	 mov	 ecx, DWORD PTR [edx-20]
  00013	33 c8		 xor	 ecx, eax
  00015	e8 00 00 00 00	 call	 @__security_check_cookie@4
  0001a	b8 00 00 00 00	 mov	 eax, OFFSET __ehfuncinfo$??1AniEventInfo@@QAE@XZ
  0001f	e9 00 00 00 00	 jmp	 ___CxxFrameHandler3
text$x	ENDS
??1AniEventInfo@@QAE@XZ ENDP				; AniEventInfo::~AniEventInfo
PUBLIC	?_Adopt@_Iterator_base0@std@@QAEXPBX@Z		; std::_Iterator_base0::_Adopt
; Function compile flags: /Ogsp
; File c:\program files (x86)\microsoft visual studio 10.0\vc\include\xutility
;	COMDAT ?_Adopt@_Iterator_base0@std@@QAEXPBX@Z
_TEXT	SEGMENT
___formal$ = 8						; size = 4
?_Adopt@_Iterator_base0@std@@QAEXPBX@Z PROC		; std::_Iterator_base0::_Adopt, COMDAT
; _this$ = ecx

; 49   : 		}

  00000	c2 04 00	 ret	 4
?_Adopt@_Iterator_base0@std@@QAEXPBX@Z ENDP		; std::_Iterator_base0::_Adopt
_TEXT	ENDS
PUBLIC	??1tagAniSoundEventInfo@@QAE@XZ			; tagAniSoundEventInfo::~tagAniSoundEventInfo
;	COMDAT xdata$x
xdata$x	SEGMENT
__unwindtable$??1tagAniSoundEventInfo@@QAE@XZ DD 0ffffffffH
	DD	FLAT:__unwindfunclet$??1tagAniSoundEventInfo@@QAE@XZ$0
__ehfuncinfo$??1tagAniSoundEventInfo@@QAE@XZ DD 019930522H
	DD	01H
	DD	FLAT:__unwindtable$??1tagAniSoundEventInfo@@QAE@XZ
	DD	2 DUP(00H)
	DD	2 DUP(00H)
	DD	00H
	DD	01H
; Function compile flags: /Ogsp
xdata$x	ENDS
;	COMDAT ??1tagAniSoundEventInfo@@QAE@XZ
_TEXT	SEGMENT
_this$ = -16						; size = 4
__$EHRec$ = -12						; size = 12
??1tagAniSoundEventInfo@@QAE@XZ PROC			; tagAniSoundEventInfo::~tagAniSoundEventInfo, COMDAT
; _this$ = ecx
  00000	6a 04		 push	 4
  00002	b8 00 00 00 00	 mov	 eax, __ehhandler$??1tagAniSoundEventInfo@@QAE@XZ
  00007	e8 00 00 00 00	 call	 __EH_prolog3
  0000c	8b f9		 mov	 edi, ecx
  0000e	89 7d f0	 mov	 DWORD PTR _this$[ebp], edi
  00011	8b 35 00 00 00
	00		 mov	 esi, DWORD PTR __imp_??1ioHashString@@QAE@XZ
  00017	83 65 fc 00	 and	 DWORD PTR __$EHRec$[ebp+8], 0
  0001b	8d 4f 10	 lea	 ecx, DWORD PTR [edi+16]
  0001e	ff d6		 call	 esi
  00020	83 4d fc ff	 or	 DWORD PTR __$EHRec$[ebp+8], -1
  00024	8b cf		 mov	 ecx, edi
  00026	ff d6		 call	 esi
  00028	e8 00 00 00 00	 call	 __EH_epilog3
  0002d	c3		 ret	 0
_TEXT	ENDS
;	COMDAT text$x
text$x	SEGMENT
__unwindfunclet$??1tagAniSoundEventInfo@@QAE@XZ$0:
  00000	8b 4d f0	 mov	 ecx, DWORD PTR _this$[ebp]
  00003	ff 25 00 00 00
	00		 jmp	 DWORD PTR __imp_??1ioHashString@@QAE@XZ
__ehhandler$??1tagAniSoundEventInfo@@QAE@XZ:
  00009	8b 54 24 08	 mov	 edx, DWORD PTR [esp+8]
  0000d	8d 42 0c	 lea	 eax, DWORD PTR [edx+12]
  00010	8b 4a ec	 mov	 ecx, DWORD PTR [edx-20]
  00013	33 c8		 xor	 ecx, eax
  00015	e8 00 00 00 00	 call	 @__security_check_cookie@4
  0001a	b8 00 00 00 00	 mov	 eax, OFFSET __ehfuncinfo$??1tagAniSoundEventInfo@@QAE@XZ
  0001f	e9 00 00 00 00	 jmp	 ___CxxFrameHandler3
text$x	ENDS
??1tagAniSoundEventInfo@@QAE@XZ ENDP			; tagAniSoundEventInfo::~tagAniSoundEventInfo
PUBLIC	?OnDummyCharAttack@ioClientAniEventHandler@@IAEXPBUAniEventTime@@PBVioAnimation@@@Z ; ioClientAniEventHandler::OnDummyCharAttack
EXTRN	?SetReserveAttackCode@ioDummyCharManager@@QAEXPAVioBaseChar@@H@Z:PROC ; ioDummyCharManager::SetReserveAttackCode
EXTRN	?GetSingleton@ioDummyCharManager@@SAAAV1@XZ:PROC ; ioDummyCharManager::GetSingleton
; Function compile flags: /Ogsp
; File d:\lost saga for developer\youtube\tutorial\source\src\lsclient\ioclientanieventhandler.cpp
;	COMDAT ?OnDummyCharAttack@ioClientAniEventHandler@@IAEXPBUAniEventTime@@PBVioAnimation@@@Z
_TEXT	SEGMENT
_pEvent$ = 8						; size = 4
_pNotifier$ = 12					; size = 4
?OnDummyCharAttack@ioClientAniEventHandler@@IAEXPBUAniEventTime@@PBVioAnimation@@@Z PROC ; ioClientAniEventHandler::OnDummyCharAttack, COMDAT
; _this$ = ecx

; 275  : {

  00000	55		 push	 ebp
  00001	8b ec		 mov	 ebp, esp
  00003	56		 push	 esi
  00004	8b f1		 mov	 esi, ecx

; 276  : 	int iCode = ioStringConverter::ParseInt( pEvent->szSubInfo.c_str() );

  00006	8b 4d 08	 mov	 ecx, DWORD PTR _pEvent$[ebp]
  00009	83 c1 14	 add	 ecx, 20			; 00000014H
  0000c	ff 15 00 00 00
	00		 call	 DWORD PTR __imp_?c_str@ioHashString@@QBEPBDXZ
  00012	50		 push	 eax
  00013	ff 15 00 00 00
	00		 call	 DWORD PTR __imp_?ParseInt@ioStringConverter@@SAHPBD@Z
  00019	59		 pop	 ecx

; 277  : 	if( iCode > 0 )

  0001a	85 c0		 test	 eax, eax
  0001c	7e 10		 jle	 SHORT $LN1@OnDummyCha

; 278  : 	{
; 279  : 		g_DummyCharMgr.SetReserveAttackCode( m_pChar, iCode );

  0001e	50		 push	 eax
  0001f	ff 76 18	 push	 DWORD PTR [esi+24]
  00022	e8 00 00 00 00	 call	 ?GetSingleton@ioDummyCharManager@@SAAAV1@XZ ; ioDummyCharManager::GetSingleton
  00027	8b c8		 mov	 ecx, eax
  00029	e8 00 00 00 00	 call	 ?SetReserveAttackCode@ioDummyCharManager@@QAEXPAVioBaseChar@@H@Z ; ioDummyCharManager::SetReserveAttackCode
$LN1@OnDummyCha:
  0002e	5e		 pop	 esi

; 280  : 	}
; 281  : }

  0002f	5d		 pop	 ebp
  00030	c2 08 00	 ret	 8
?OnDummyCharAttack@ioClientAniEventHandler@@IAEXPBUAniEventTime@@PBVioAnimation@@@Z ENDP ; ioClientAniEventHandler::OnDummyCharAttack
_TEXT	ENDS
PUBLIC	?OnLobeliaAction@ioClientAniEventHandler@@IAEXPBUAniEventTime@@PBVioAnimation@@@Z ; ioClientAniEventHandler::OnLobeliaAction
EXTRN	?CheckLobeliaWeaponAction@ioWeaponManager@@QAEXABVioHashString@@@Z:PROC ; ioWeaponManager::CheckLobeliaWeaponAction
EXTRN	?GetSingleton@ioWeaponManager@@SAAAV1@XZ:PROC	; ioWeaponManager::GetSingleton
; Function compile flags: /Ogsp
;	COMDAT ?OnLobeliaAction@ioClientAniEventHandler@@IAEXPBUAniEventTime@@PBVioAnimation@@@Z
_TEXT	SEGMENT
_pEvent$ = 8						; size = 4
_pNotifier$ = 12					; size = 4
?OnLobeliaAction@ioClientAniEventHandler@@IAEXPBUAniEventTime@@PBVioAnimation@@@Z PROC ; ioClientAniEventHandler::OnLobeliaAction, COMDAT
; _this$ = ecx

; 285  : 	if( m_pChar )

  00000	8b 41 18	 mov	 eax, DWORD PTR [ecx+24]
  00003	85 c0		 test	 eax, eax
  00005	74 12		 je	 SHORT $LN1@OnLobeliaA

; 286  : 	{
; 287  : 		g_WeaponMgr.CheckLobeliaWeaponAction( m_pChar->GetCharName() );

  00007	05 d4 02 00 00	 add	 eax, 724		; 000002d4H
  0000c	50		 push	 eax
  0000d	e8 00 00 00 00	 call	 ?GetSingleton@ioWeaponManager@@SAAAV1@XZ ; ioWeaponManager::GetSingleton
  00012	8b c8		 mov	 ecx, eax
  00014	e8 00 00 00 00	 call	 ?CheckLobeliaWeaponAction@ioWeaponManager@@QAEXABVioHashString@@@Z ; ioWeaponManager::CheckLobeliaWeaponAction
$LN1@OnLobeliaA:

; 288  : 	}
; 289  : }

  00019	c2 08 00	 ret	 8
?OnLobeliaAction@ioClientAniEventHandler@@IAEXPBUAniEventTime@@PBVioAnimation@@@Z ENDP ; ioClientAniEventHandler::OnLobeliaAction
_TEXT	ENDS
PUBLIC	?OnCmdAction@ioClientAniEventHandler@@IAEXPBUAniEventTime@@PBVioAnimation@@@Z ; ioClientAniEventHandler::OnCmdAction
EXTRN	?SetCmdInputStart@ioBaseChar@@QAEXH@Z:PROC	; ioBaseChar::SetCmdInputStart
; Function compile flags: /Ogsp
;	COMDAT ?OnCmdAction@ioClientAniEventHandler@@IAEXPBUAniEventTime@@PBVioAnimation@@@Z
_TEXT	SEGMENT
_pEvent$ = 8						; size = 4
_pNotifier$ = 12					; size = 4
?OnCmdAction@ioClientAniEventHandler@@IAEXPBUAniEventTime@@PBVioAnimation@@@Z PROC ; ioClientAniEventHandler::OnCmdAction, COMDAT
; _this$ = ecx

; 292  : {

  00000	55		 push	 ebp
  00001	8b ec		 mov	 ebp, esp
  00003	56		 push	 esi
  00004	8b f1		 mov	 esi, ecx

; 293  : 	if( m_pChar && m_pChar->IsNeedProcess() )

  00006	83 7e 18 00	 cmp	 DWORD PTR [esi+24], 0
  0000a	74 2c		 je	 SHORT $LN1@OnCmdActio
  0000c	8b 4e 18	 mov	 ecx, DWORD PTR [esi+24]
  0000f	8b 01		 mov	 eax, DWORD PTR [ecx]
  00011	ff 90 00 01 00
	00		 call	 DWORD PTR [eax+256]
  00017	84 c0		 test	 al, al
  00019	74 1d		 je	 SHORT $LN1@OnCmdActio

; 294  : 	{
; 295  : 		int iType = ioStringConverter::ParseInt( pEvent->szSubInfo.c_str() );

  0001b	8b 4d 08	 mov	 ecx, DWORD PTR _pEvent$[ebp]
  0001e	83 c1 14	 add	 ecx, 20			; 00000014H
  00021	ff 15 00 00 00
	00		 call	 DWORD PTR __imp_?c_str@ioHashString@@QBEPBDXZ
  00027	50		 push	 eax
  00028	ff 15 00 00 00
	00		 call	 DWORD PTR __imp_?ParseInt@ioStringConverter@@SAHPBD@Z
  0002e	59		 pop	 ecx

; 296  : 		m_pChar->SetCmdInputStart( iType );

  0002f	8b 4e 18	 mov	 ecx, DWORD PTR [esi+24]
  00032	50		 push	 eax
  00033	e8 00 00 00 00	 call	 ?SetCmdInputStart@ioBaseChar@@QAEXH@Z ; ioBaseChar::SetCmdInputStart
$LN1@OnCmdActio:
  00038	5e		 pop	 esi

; 297  : 	}
; 298  : }

  00039	5d		 pop	 ebp
  0003a	c2 08 00	 ret	 8
?OnCmdAction@ioClientAniEventHandler@@IAEXPBUAniEventTime@@PBVioAnimation@@@Z ENDP ; ioClientAniEventHandler::OnCmdAction
_TEXT	ENDS
PUBLIC	?OnShowTrinityMesh@ioClientAniEventHandler@@IAEXPBUAniEventTime@@PBVioAnimation@@@Z ; ioClientAniEventHandler::OnShowTrinityMesh
EXTRN	?SetItemMeshShow@ioBaseChar@@QAEXXZ:PROC	; ioBaseChar::SetItemMeshShow
; Function compile flags: /Ogsp
;	COMDAT ?OnShowTrinityMesh@ioClientAniEventHandler@@IAEXPBUAniEventTime@@PBVioAnimation@@@Z
_TEXT	SEGMENT
_pEvent$ = 8						; size = 4
_pNotifier$ = 12					; size = 4
?OnShowTrinityMesh@ioClientAniEventHandler@@IAEXPBUAniEventTime@@PBVioAnimation@@@Z PROC ; ioClientAniEventHandler::OnShowTrinityMesh, COMDAT
; _this$ = ecx

; 302  : {

  00000	8b c1		 mov	 eax, ecx

; 303  : 	if( m_pChar )

  00002	8b 48 18	 mov	 ecx, DWORD PTR [eax+24]
  00005	85 c9		 test	 ecx, ecx
  00007	74 09		 je	 SHORT $LN1@OnShowTrin

; 304  : 	{
; 305  : 		m_bItemMeshHide = false;

  00009	c6 40 4c 00	 mov	 BYTE PTR [eax+76], 0

; 306  : 		m_pChar->SetItemMeshShow();

  0000d	e8 00 00 00 00	 call	 ?SetItemMeshShow@ioBaseChar@@QAEXXZ ; ioBaseChar::SetItemMeshShow
$LN1@OnShowTrin:

; 307  : 	}
; 308  : }

  00012	c2 08 00	 ret	 8
?OnShowTrinityMesh@ioClientAniEventHandler@@IAEXPBUAniEventTime@@PBVioAnimation@@@Z ENDP ; ioClientAniEventHandler::OnShowTrinityMesh
_TEXT	ENDS
PUBLIC	?OnHideTrinityMesh@ioClientAniEventHandler@@IAEXPBUAniEventTime@@PBVioAnimation@@@Z ; ioClientAniEventHandler::OnHideTrinityMesh
EXTRN	?SetItemMeshHide@ioBaseChar@@QAEXXZ:PROC	; ioBaseChar::SetItemMeshHide
; Function compile flags: /Ogsp
;	COMDAT ?OnHideTrinityMesh@ioClientAniEventHandler@@IAEXPBUAniEventTime@@PBVioAnimation@@@Z
_TEXT	SEGMENT
_pEvent$ = 8						; size = 4
_pNotifier$ = 12					; size = 4
?OnHideTrinityMesh@ioClientAniEventHandler@@IAEXPBUAniEventTime@@PBVioAnimation@@@Z PROC ; ioClientAniEventHandler::OnHideTrinityMesh, COMDAT
; _this$ = ecx

; 312  : {

  00000	8b c1		 mov	 eax, ecx

; 313  : 	if( m_pChar )

  00002	8b 48 18	 mov	 ecx, DWORD PTR [eax+24]
  00005	85 c9		 test	 ecx, ecx
  00007	74 09		 je	 SHORT $LN1@OnHideTrin

; 314  : 	{
; 315  : 		m_bItemMeshHide = true;

  00009	c6 40 4c 01	 mov	 BYTE PTR [eax+76], 1

; 316  : 		m_pChar->SetItemMeshHide();

  0000d	e8 00 00 00 00	 call	 ?SetItemMeshHide@ioBaseChar@@QAEXXZ ; ioBaseChar::SetItemMeshHide
$LN1@OnHideTrin:

; 317  : 	}
; 318  : }

  00012	c2 08 00	 ret	 8
?OnHideTrinityMesh@ioClientAniEventHandler@@IAEXPBUAniEventTime@@PBVioAnimation@@@Z ENDP ; ioClientAniEventHandler::OnHideTrinityMesh
_TEXT	ENDS
PUBLIC	?OnCmdEnd@ioClientAniEventHandler@@IAEXPBUAniEventTime@@PBVioAnimation@@@Z ; ioClientAniEventHandler::OnCmdEnd
EXTRN	?SetCmdInputEnd@ioBaseChar@@QAEXXZ:PROC		; ioBaseChar::SetCmdInputEnd
; Function compile flags: /Ogsp
;	COMDAT ?OnCmdEnd@ioClientAniEventHandler@@IAEXPBUAniEventTime@@PBVioAnimation@@@Z
_TEXT	SEGMENT
_pEvent$ = 8						; size = 4
_pNotifier$ = 12					; size = 4
?OnCmdEnd@ioClientAniEventHandler@@IAEXPBUAniEventTime@@PBVioAnimation@@@Z PROC ; ioClientAniEventHandler::OnCmdEnd, COMDAT
; _this$ = ecx

; 321  : {

  00000	56		 push	 esi
  00001	8b f1		 mov	 esi, ecx

; 322  : 	if( m_pChar && m_pChar->IsNeedProcess() )

  00003	83 7e 18 00	 cmp	 DWORD PTR [esi+24], 0
  00007	74 17		 je	 SHORT $LN1@OnCmdEnd
  00009	8b 4e 18	 mov	 ecx, DWORD PTR [esi+24]
  0000c	8b 01		 mov	 eax, DWORD PTR [ecx]
  0000e	ff 90 00 01 00
	00		 call	 DWORD PTR [eax+256]
  00014	84 c0		 test	 al, al
  00016	74 08		 je	 SHORT $LN1@OnCmdEnd

; 323  : 	{
; 324  : 		m_pChar->SetCmdInputEnd();

  00018	8b 4e 18	 mov	 ecx, DWORD PTR [esi+24]
  0001b	e8 00 00 00 00	 call	 ?SetCmdInputEnd@ioBaseChar@@QAEXXZ ; ioBaseChar::SetCmdInputEnd
$LN1@OnCmdEnd:
  00020	5e		 pop	 esi

; 325  : 	}
; 326  : }

  00021	c2 08 00	 ret	 8
?OnCmdEnd@ioClientAniEventHandler@@IAEXPBUAniEventTime@@PBVioAnimation@@@Z ENDP ; ioClientAniEventHandler::OnCmdEnd
_TEXT	ENDS
PUBLIC	?OnSkillAction@ioClientAniEventHandler@@IAEXPBUAniEventTime@@PBVioAnimation@@@Z ; ioClientAniEventHandler::OnSkillAction
EXTRN	?SetSkillInputStart@ioBaseChar@@QAEXXZ:PROC	; ioBaseChar::SetSkillInputStart
; Function compile flags: /Ogsp
;	COMDAT ?OnSkillAction@ioClientAniEventHandler@@IAEXPBUAniEventTime@@PBVioAnimation@@@Z
_TEXT	SEGMENT
_pEvent$ = 8						; size = 4
_pNotifier$ = 12					; size = 4
?OnSkillAction@ioClientAniEventHandler@@IAEXPBUAniEventTime@@PBVioAnimation@@@Z PROC ; ioClientAniEventHandler::OnSkillAction, COMDAT
; _this$ = ecx

; 329  : {

  00000	56		 push	 esi
  00001	8b f1		 mov	 esi, ecx

; 330  : 	if( m_pChar && m_pChar->IsNeedProcess() )

  00003	83 7e 18 00	 cmp	 DWORD PTR [esi+24], 0
  00007	74 17		 je	 SHORT $LN1@OnSkillAct
  00009	8b 4e 18	 mov	 ecx, DWORD PTR [esi+24]
  0000c	8b 01		 mov	 eax, DWORD PTR [ecx]
  0000e	ff 90 00 01 00
	00		 call	 DWORD PTR [eax+256]
  00014	84 c0		 test	 al, al
  00016	74 08		 je	 SHORT $LN1@OnSkillAct

; 331  : 	{
; 332  : 		m_pChar->SetSkillInputStart();

  00018	8b 4e 18	 mov	 ecx, DWORD PTR [esi+24]
  0001b	e8 00 00 00 00	 call	 ?SetSkillInputStart@ioBaseChar@@QAEXXZ ; ioBaseChar::SetSkillInputStart
$LN1@OnSkillAct:
  00020	5e		 pop	 esi

; 333  : 	}
; 334  : }

  00021	c2 08 00	 ret	 8
?OnSkillAction@ioClientAniEventHandler@@IAEXPBUAniEventTime@@PBVioAnimation@@@Z ENDP ; ioClientAniEventHandler::OnSkillAction
_TEXT	ENDS
PUBLIC	__real@00000000
PUBLIC	?OnUseGPAction@ioClientAniEventHandler@@IAEXPBUAniEventTime@@PBVioAnimation@@@Z ; ioClientAniEventHandler::OnUseGPAction
EXTRN	?CheckUseExtraGauge@ioBaseChar@@QAEXM@Z:PROC	; ioBaseChar::CheckUseExtraGauge
EXTRN	__imp_?ParseFloat@ioStringConverter@@SAMPBD@Z:PROC
EXTRN	__fltused:DWORD
;	COMDAT __real@00000000
CONST	SEGMENT
__real@00000000 DD 000000000r			; 0
; Function compile flags: /Ogsp
CONST	ENDS
;	COMDAT ?OnUseGPAction@ioClientAniEventHandler@@IAEXPBUAniEventTime@@PBVioAnimation@@@Z
_TEXT	SEGMENT
_fAmt$ = 8						; size = 4
_pEvent$ = 8						; size = 4
_pNotifier$ = 12					; size = 4
?OnUseGPAction@ioClientAniEventHandler@@IAEXPBUAniEventTime@@PBVioAnimation@@@Z PROC ; ioClientAniEventHandler::OnUseGPAction, COMDAT
; _this$ = ecx

; 337  : {

  00000	55		 push	 ebp
  00001	8b ec		 mov	 ebp, esp
  00003	56		 push	 esi
  00004	8b f1		 mov	 esi, ecx

; 338  : 	float fAmt = ioStringConverter::ParseFloat( pEvent->szSubInfo.c_str() );

  00006	8b 4d 08	 mov	 ecx, DWORD PTR _pEvent$[ebp]
  00009	83 c1 14	 add	 ecx, 20			; 00000014H
  0000c	ff 15 00 00 00
	00		 call	 DWORD PTR __imp_?c_str@ioHashString@@QBEPBDXZ
  00012	50		 push	 eax
  00013	ff 15 00 00 00
	00		 call	 DWORD PTR __imp_?ParseFloat@ioStringConverter@@SAMPBD@Z
  00019	d9 5d 08	 fstp	 DWORD PTR _fAmt$[ebp]

; 339  : 	if( fAmt > 0.0f )

  0001c	d9 ee		 fldz
  0001e	59		 pop	 ecx
  0001f	d9 45 08	 fld	 DWORD PTR _fAmt$[ebp]
  00022	df f1		 fcomip	 ST(1)
  00024	dd d8		 fstp	 ST(0)
  00026	76 28		 jbe	 SHORT $LN1@OnUseGPAct

; 340  : 	{
; 341  : 		if( m_pChar && m_pChar->IsNeedProcess() )

  00028	83 7e 18 00	 cmp	 DWORD PTR [esi+24], 0
  0002c	74 22		 je	 SHORT $LN1@OnUseGPAct
  0002e	8b 4e 18	 mov	 ecx, DWORD PTR [esi+24]
  00031	8b 01		 mov	 eax, DWORD PTR [ecx]
  00033	ff 90 00 01 00
	00		 call	 DWORD PTR [eax+256]
  00039	84 c0		 test	 al, al
  0003b	74 13		 je	 SHORT $LN1@OnUseGPAct

; 342  : 		{
; 343  : 			m_pChar->CheckUseExtraGauge( fAmt );

  0003d	f3 0f 10 45 08	 movss	 xmm0, DWORD PTR _fAmt$[ebp]
  00042	51		 push	 ecx
  00043	8b 4e 18	 mov	 ecx, DWORD PTR [esi+24]
  00046	f3 0f 11 04 24	 movss	 DWORD PTR [esp], xmm0
  0004b	e8 00 00 00 00	 call	 ?CheckUseExtraGauge@ioBaseChar@@QAEXM@Z ; ioBaseChar::CheckUseExtraGauge
$LN1@OnUseGPAct:
  00050	5e		 pop	 esi

; 344  : 		}
; 345  : 	}
; 346  : }

  00051	5d		 pop	 ebp
  00052	c2 08 00	 ret	 8
?OnUseGPAction@ioClientAniEventHandler@@IAEXPBUAniEventTime@@PBVioAnimation@@@Z ENDP ; ioClientAniEventHandler::OnUseGPAction
_TEXT	ENDS
PUBLIC	??0AniEventInfo@@QAE@ABU0@@Z			; AniEventInfo::AniEventInfo
EXTRN	__imp_??0ioHashString@@QAE@ABV0@@Z:PROC
;	COMDAT xdata$x
xdata$x	SEGMENT
__unwindtable$??0AniEventInfo@@QAE@ABU0@@Z DD 0ffffffffH
	DD	FLAT:__unwindfunclet$??0AniEventInfo@@QAE@ABU0@@Z$0
__ehfuncinfo$??0AniEventInfo@@QAE@ABU0@@Z DD 019930522H
	DD	01H
	DD	FLAT:__unwindtable$??0AniEventInfo@@QAE@ABU0@@Z
	DD	2 DUP(00H)
	DD	2 DUP(00H)
	DD	00H
	DD	01H
; Function compile flags: /Ogsp
xdata$x	ENDS
;	COMDAT ??0AniEventInfo@@QAE@ABU0@@Z
_TEXT	SEGMENT
_this$ = -16						; size = 4
__$EHRec$ = -12						; size = 12
___that$ = 8						; size = 4
??0AniEventInfo@@QAE@ABU0@@Z PROC			; AniEventInfo::AniEventInfo, COMDAT
; _this$ = ecx
  00000	6a 04		 push	 4
  00002	b8 00 00 00 00	 mov	 eax, __ehhandler$??0AniEventInfo@@QAE@ABU0@@Z
  00007	e8 00 00 00 00	 call	 __EH_prolog3
  0000c	8b f9		 mov	 edi, ecx
  0000e	89 7d f0	 mov	 DWORD PTR _this$[ebp], edi
  00011	8b 5d 08	 mov	 ebx, DWORD PTR ___that$[ebp]
  00014	8b 35 00 00 00
	00		 mov	 esi, DWORD PTR __imp_??0ioHashString@@QAE@ABV0@@Z
  0001a	53		 push	 ebx
  0001b	ff d6		 call	 esi
  0001d	83 65 fc 00	 and	 DWORD PTR __$EHRec$[ebp+8], 0
  00021	83 c3 10	 add	 ebx, 16			; 00000010H
  00024	53		 push	 ebx
  00025	8d 4f 10	 lea	 ecx, DWORD PTR [edi+16]
  00028	ff d6		 call	 esi
  0002a	8b c7		 mov	 eax, edi
  0002c	e8 00 00 00 00	 call	 __EH_epilog3
  00031	c2 04 00	 ret	 4
_TEXT	ENDS
;	COMDAT text$x
text$x	SEGMENT
__unwindfunclet$??0AniEventInfo@@QAE@ABU0@@Z$0:
  00000	8b 4d f0	 mov	 ecx, DWORD PTR _this$[ebp]
  00003	ff 25 00 00 00
	00		 jmp	 DWORD PTR __imp_??1ioHashString@@QAE@XZ
__ehhandler$??0AniEventInfo@@QAE@ABU0@@Z:
  00009	8b 54 24 08	 mov	 edx, DWORD PTR [esp+8]
  0000d	8d 42 0c	 lea	 eax, DWORD PTR [edx+12]
  00010	8b 4a ec	 mov	 ecx, DWORD PTR [edx-20]
  00013	33 c8		 xor	 ecx, eax
  00015	e8 00 00 00 00	 call	 @__security_check_cookie@4
  0001a	b8 00 00 00 00	 mov	 eax, OFFSET __ehfuncinfo$??0AniEventInfo@@QAE@ABU0@@Z
  0001f	e9 00 00 00 00	 jmp	 ___CxxFrameHandler3
text$x	ENDS
??0AniEventInfo@@QAE@ABU0@@Z ENDP			; AniEventInfo::AniEventInfo
PUBLIC	??0tagAniSoundEventInfo@@QAE@ABU0@@Z		; tagAniSoundEventInfo::tagAniSoundEventInfo
;	COMDAT xdata$x
xdata$x	SEGMENT
__unwindtable$??0tagAniSoundEventInfo@@QAE@ABU0@@Z DD 0ffffffffH
	DD	FLAT:__unwindfunclet$??0tagAniSoundEventInfo@@QAE@ABU0@@Z$0
__ehfuncinfo$??0tagAniSoundEventInfo@@QAE@ABU0@@Z DD 019930522H
	DD	01H
	DD	FLAT:__unwindtable$??0tagAniSoundEventInfo@@QAE@ABU0@@Z
	DD	2 DUP(00H)
	DD	2 DUP(00H)
	DD	00H
	DD	01H
; Function compile flags: /Ogsp
xdata$x	ENDS
;	COMDAT ??0tagAniSoundEventInfo@@QAE@ABU0@@Z
_TEXT	SEGMENT
_this$ = -16						; size = 4
__$EHRec$ = -12						; size = 12
___that$ = 8						; size = 4
??0tagAniSoundEventInfo@@QAE@ABU0@@Z PROC		; tagAniSoundEventInfo::tagAniSoundEventInfo, COMDAT
; _this$ = ecx
  00000	6a 04		 push	 4
  00002	b8 00 00 00 00	 mov	 eax, __ehhandler$??0tagAniSoundEventInfo@@QAE@ABU0@@Z
  00007	e8 00 00 00 00	 call	 __EH_prolog3
  0000c	8b f1		 mov	 esi, ecx
  0000e	89 75 f0	 mov	 DWORD PTR _this$[ebp], esi
  00011	8b 5d 08	 mov	 ebx, DWORD PTR ___that$[ebp]
  00014	8b 3d 00 00 00
	00		 mov	 edi, DWORD PTR __imp_??0ioHashString@@QAE@ABV0@@Z
  0001a	53		 push	 ebx
  0001b	ff d7		 call	 edi
  0001d	83 65 fc 00	 and	 DWORD PTR __$EHRec$[ebp+8], 0
  00021	8d 43 10	 lea	 eax, DWORD PTR [ebx+16]
  00024	50		 push	 eax
  00025	8d 4e 10	 lea	 ecx, DWORD PTR [esi+16]
  00028	ff d7		 call	 edi
  0002a	8b 43 20	 mov	 eax, DWORD PTR [ebx+32]
  0002d	89 46 20	 mov	 DWORD PTR [esi+32], eax
  00030	8b c6		 mov	 eax, esi
  00032	e8 00 00 00 00	 call	 __EH_epilog3
  00037	c2 04 00	 ret	 4
_TEXT	ENDS
;	COMDAT text$x
text$x	SEGMENT
__unwindfunclet$??0tagAniSoundEventInfo@@QAE@ABU0@@Z$0:
  00000	8b 4d f0	 mov	 ecx, DWORD PTR _this$[ebp]
  00003	ff 25 00 00 00
	00		 jmp	 DWORD PTR __imp_??1ioHashString@@QAE@XZ
__ehhandler$??0tagAniSoundEventInfo@@QAE@ABU0@@Z:
  00009	8b 54 24 08	 mov	 edx, DWORD PTR [esp+8]
  0000d	8d 42 0c	 lea	 eax, DWORD PTR [edx+12]
  00010	8b 4a ec	 mov	 ecx, DWORD PTR [edx-20]
  00013	33 c8		 xor	 ecx, eax
  00015	e8 00 00 00 00	 call	 @__security_check_cookie@4
  0001a	b8 00 00 00 00	 mov	 eax, OFFSET __ehfuncinfo$??0tagAniSoundEventInfo@@QAE@ABU0@@Z
  0001f	e9 00 00 00 00	 jmp	 ___CxxFrameHandler3
text$x	ENDS
??0tagAniSoundEventInfo@@QAE@ABU0@@Z ENDP		; tagAniSoundEventInfo::tagAniSoundEventInfo
PUBLIC	?IsCanShopSound@ioClientAniEventHandler@@IAE_NXZ ; ioClientAniEventHandler::IsCanShopSound
EXTRN	?IsCanShopSoundForField@ioSP2GUIManager@@QAE_NXZ:PROC ; ioSP2GUIManager::IsCanShopSoundForField
EXTRN	?GetSingleton@ioSP2GUIManager@@SAAAV1@XZ:PROC	; ioSP2GUIManager::GetSingleton
; Function compile flags: /Ogsp
;	COMDAT ?IsCanShopSound@ioClientAniEventHandler@@IAE_NXZ
_TEXT	SEGMENT
?IsCanShopSound@ioClientAniEventHandler@@IAE_NXZ PROC	; ioClientAniEventHandler::IsCanShopSound, COMDAT
; _this$ = ecx

; 669  : 	return g_GUIMgr.IsCanShopSoundForField();

  00000	e8 00 00 00 00	 call	 ?GetSingleton@ioSP2GUIManager@@SAAAV1@XZ ; ioSP2GUIManager::GetSingleton
  00005	8b c8		 mov	 ecx, eax
  00007	e9 00 00 00 00	 jmp	 ?IsCanShopSoundForField@ioSP2GUIManager@@QAE_NXZ ; ioSP2GUIManager::IsCanShopSoundForField
?IsCanShopSound@ioClientAniEventHandler@@IAE_NXZ ENDP	; ioClientAniEventHandler::IsCanShopSound
_TEXT	ENDS
PUBLIC	?size@?$vector@V?$basic_string@DU?$char_traits@D@std@@V?$allocator@D@2@@std@@V?$allocator@V?$basic_string@DU?$char_traits@D@std@@V?$allocator@D@2@@std@@@2@@std@@QBEIXZ ; std::vector<std::basic_string<char,std::char_traits<char>,std::allocator<char> >,std::allocator<std::basic_string<char,std::char_traits<char>,std::allocator<char> > > >::size
; Function compile flags: /Ogsp
; File c:\program files (x86)\microsoft visual studio 10.0\vc\include\vector
;	COMDAT ?size@?$vector@V?$basic_string@DU?$char_traits@D@std@@V?$allocator@D@2@@std@@V?$allocator@V?$basic_string@DU?$char_traits@D@std@@V?$allocator@D@2@@std@@@2@@std@@QBEIXZ
_TEXT	SEGMENT
?size@?$vector@V?$basic_string@DU?$char_traits@D@std@@V?$allocator@D@2@@std@@V?$allocator@V?$basic_string@DU?$char_traits@D@std@@V?$allocator@D@2@@std@@@2@@std@@QBEIXZ PROC ; std::vector<std::basic_string<char,std::char_traits<char>,std::allocator<char> >,std::allocator<std::basic_string<char,std::char_traits<char>,std::allocator<char> > > >::size, COMDAT
; _this$ = ecx

; 879  : 		return (this->_Mylast - this->_Myfirst);

  00000	8b 41 04	 mov	 eax, DWORD PTR [ecx+4]
  00003	2b 01		 sub	 eax, DWORD PTR [ecx]
  00005	6a 1c		 push	 28			; 0000001cH
  00007	99		 cdq
  00008	59		 pop	 ecx
  00009	f7 f9		 idiv	 ecx

; 880  : 		}

  0000b	c3		 ret	 0
?size@?$vector@V?$basic_string@DU?$char_traits@D@std@@V?$allocator@D@2@@std@@V?$allocator@V?$basic_string@DU?$char_traits@D@std@@V?$allocator@D@2@@std@@@2@@std@@QBEIXZ ENDP ; std::vector<std::basic_string<char,std::char_traits<char>,std::allocator<char> >,std::allocator<std::basic_string<char,std::char_traits<char>,std::allocator<char> > > >::size
_TEXT	ENDS
PUBLIC	??A?$vector@V?$basic_string@DU?$char_traits@D@std@@V?$allocator@D@2@@std@@V?$allocator@V?$basic_string@DU?$char_traits@D@std@@V?$allocator@D@2@@std@@@2@@std@@QBEABV?$basic_string@DU?$char_traits@D@std@@V?$allocator@D@2@@1@I@Z ; std::vector<std::basic_string<char,std::char_traits<char>,std::allocator<char> >,std::allocator<std::basic_string<char,std::char_traits<char>,std::allocator<char> > > >::operator[]
; Function compile flags: /Ogsp
;	COMDAT ??A?$vector@V?$basic_string@DU?$char_traits@D@std@@V?$allocator@D@2@@std@@V?$allocator@V?$basic_string@DU?$char_traits@D@std@@V?$allocator@D@2@@std@@@2@@std@@QBEABV?$basic_string@DU?$char_traits@D@std@@V?$allocator@D@2@@1@I@Z
_TEXT	SEGMENT
__Pos$ = 8						; size = 4
??A?$vector@V?$basic_string@DU?$char_traits@D@std@@V?$allocator@D@2@@std@@V?$allocator@V?$basic_string@DU?$char_traits@D@std@@V?$allocator@D@2@@std@@@2@@std@@QBEABV?$basic_string@DU?$char_traits@D@std@@V?$allocator@D@2@@1@I@Z PROC ; std::vector<std::basic_string<char,std::char_traits<char>,std::allocator<char> >,std::allocator<std::basic_string<char,std::char_traits<char>,std::allocator<char> > > >::operator[], COMDAT
; _this$ = ecx

; 912  : 		{	// subscript nonmutable sequence

  00000	55		 push	 ebp
  00001	8b ec		 mov	 ebp, esp

; 913  :  #if _ITERATOR_DEBUG_LEVEL == 2
; 914  : 		if (size() <= _Pos)
; 915  : 			{	// report error
; 916  : 			_DEBUG_ERROR("vector subscript out of range");
; 917  : 			_SCL_SECURE_OUT_OF_RANGE;
; 918  : 			}
; 919  : 
; 920  :  #elif _ITERATOR_DEBUG_LEVEL == 1
; 921  : 		_SCL_SECURE_VALIDATE_RANGE(_Pos < size());
; 922  :  #endif /* _ITERATOR_DEBUG_LEVEL */
; 923  : 
; 924  : 		return (*(this->_Myfirst + _Pos));

  00003	8b 45 08	 mov	 eax, DWORD PTR __Pos$[ebp]
  00006	6b c0 1c	 imul	 eax, 28			; 0000001cH
  00009	03 01		 add	 eax, DWORD PTR [ecx]

; 925  : 		}

  0000b	5d		 pop	 ebp
  0000c	c2 04 00	 ret	 4
??A?$vector@V?$basic_string@DU?$char_traits@D@std@@V?$allocator@D@2@@std@@V?$allocator@V?$basic_string@DU?$char_traits@D@std@@V?$allocator@D@2@@std@@@2@@std@@QBEABV?$basic_string@DU?$char_traits@D@std@@V?$allocator@D@2@@1@I@Z ENDP ; std::vector<std::basic_string<char,std::char_traits<char>,std::allocator<char> >,std::allocator<std::basic_string<char,std::char_traits<char>,std::allocator<char> > > >::operator[]
_TEXT	ENDS
PUBLIC	??A?$vector@V?$basic_string@DU?$char_traits@D@std@@V?$allocator@D@2@@std@@V?$allocator@V?$basic_string@DU?$char_traits@D@std@@V?$allocator@D@2@@std@@@2@@std@@QAEAAV?$basic_string@DU?$char_traits@D@std@@V?$allocator@D@2@@1@I@Z ; std::vector<std::basic_string<char,std::char_traits<char>,std::allocator<char> >,std::allocator<std::basic_string<char,std::char_traits<char>,std::allocator<char> > > >::operator[]
; Function compile flags: /Ogsp
;	COMDAT ??A?$vector@V?$basic_string@DU?$char_traits@D@std@@V?$allocator@D@2@@std@@V?$allocator@V?$basic_string@DU?$char_traits@D@std@@V?$allocator@D@2@@std@@@2@@std@@QAEAAV?$basic_string@DU?$char_traits@D@std@@V?$allocator@D@2@@1@I@Z
_TEXT	SEGMENT
__Pos$ = 8						; size = 4
??A?$vector@V?$basic_string@DU?$char_traits@D@std@@V?$allocator@D@2@@std@@V?$allocator@V?$basic_string@DU?$char_traits@D@std@@V?$allocator@D@2@@std@@@2@@std@@QAEAAV?$basic_string@DU?$char_traits@D@std@@V?$allocator@D@2@@1@I@Z PROC ; std::vector<std::basic_string<char,std::char_traits<char>,std::allocator<char> >,std::allocator<std::basic_string<char,std::char_traits<char>,std::allocator<char> > > >::operator[], COMDAT
; _this$ = ecx

; 928  : 		{	// subscript mutable sequence

  00000	55		 push	 ebp
  00001	8b ec		 mov	 ebp, esp

; 929  :  #if _ITERATOR_DEBUG_LEVEL == 2
; 930  : 		if (size() <= _Pos)
; 931  : 			{	// report error
; 932  : 			_DEBUG_ERROR("vector subscript out of range");
; 933  : 			_SCL_SECURE_OUT_OF_RANGE;
; 934  : 			}
; 935  : 
; 936  :  #elif _ITERATOR_DEBUG_LEVEL == 1
; 937  : 		_SCL_SECURE_VALIDATE_RANGE(_Pos < size());
; 938  :  #endif /* _ITERATOR_DEBUG_LEVEL */
; 939  : 
; 940  : 		return (*(this->_Myfirst + _Pos));

  00003	8b 45 08	 mov	 eax, DWORD PTR __Pos$[ebp]
  00006	6b c0 1c	 imul	 eax, 28			; 0000001cH
  00009	03 01		 add	 eax, DWORD PTR [ecx]

; 941  : 		}

  0000b	5d		 pop	 ebp
  0000c	c2 04 00	 ret	 4
??A?$vector@V?$basic_string@DU?$char_traits@D@std@@V?$allocator@D@2@@std@@V?$allocator@V?$basic_string@DU?$char_traits@D@std@@V?$allocator@D@2@@std@@@2@@std@@QAEAAV?$basic_string@DU?$char_traits@D@std@@V?$allocator@D@2@@1@I@Z ENDP ; std::vector<std::basic_string<char,std::char_traits<char>,std::allocator<char> >,std::allocator<std::basic_string<char,std::char_traits<char>,std::allocator<char> > > >::operator[]
_TEXT	ENDS
PUBLIC	?empty@?$vector@UAniEventInfo@@V?$allocator@UAniEventInfo@@@std@@@std@@QBE_NXZ ; std::vector<AniEventInfo,std::allocator<AniEventInfo> >::empty
; Function compile flags: /Ogsp
;	COMDAT ?empty@?$vector@UAniEventInfo@@V?$allocator@UAniEventInfo@@@std@@@std@@QBE_NXZ
_TEXT	SEGMENT
?empty@?$vector@UAniEventInfo@@V?$allocator@UAniEventInfo@@@std@@@std@@QBE_NXZ PROC ; std::vector<AniEventInfo,std::allocator<AniEventInfo> >::empty, COMDAT
; _this$ = ecx

; 889  : 		return (this->_Myfirst == this->_Mylast);

  00000	8b 01		 mov	 eax, DWORD PTR [ecx]
  00002	2b 41 04	 sub	 eax, DWORD PTR [ecx+4]
  00005	f7 d8		 neg	 eax
  00007	1b c0		 sbb	 eax, eax
  00009	40		 inc	 eax

; 890  : 		}

  0000a	c3		 ret	 0
?empty@?$vector@UAniEventInfo@@V?$allocator@UAniEventInfo@@@std@@@std@@QBE_NXZ ENDP ; std::vector<AniEventInfo,std::allocator<AniEventInfo> >::empty
_TEXT	ENDS
PUBLIC	?empty@?$vector@UtagAniSoundEventInfo@@V?$allocator@UtagAniSoundEventInfo@@@std@@@std@@QBE_NXZ ; std::vector<tagAniSoundEventInfo,std::allocator<tagAniSoundEventInfo> >::empty
; Function compile flags: /Ogsp
;	COMDAT ?empty@?$vector@UtagAniSoundEventInfo@@V?$allocator@UtagAniSoundEventInfo@@@std@@@std@@QBE_NXZ
_TEXT	SEGMENT
?empty@?$vector@UtagAniSoundEventInfo@@V?$allocator@UtagAniSoundEventInfo@@@std@@@std@@QBE_NXZ PROC ; std::vector<tagAniSoundEventInfo,std::allocator<tagAniSoundEventInfo> >::empty, COMDAT
; _this$ = ecx

; 889  : 		return (this->_Myfirst == this->_Mylast);

  00000	8b 01		 mov	 eax, DWORD PTR [ecx]
  00002	2b 41 04	 sub	 eax, DWORD PTR [ecx+4]
  00005	f7 d8		 neg	 eax
  00007	1b c0		 sbb	 eax, eax
  00009	40		 inc	 eax

; 890  : 		}

  0000a	c3		 ret	 0
?empty@?$vector@UtagAniSoundEventInfo@@V?$allocator@UtagAniSoundEventInfo@@@std@@@std@@QBE_NXZ ENDP ; std::vector<tagAniSoundEventInfo,std::allocator<tagAniSoundEventInfo> >::empty
_TEXT	ENDS
PUBLIC	?size@?$list@PBVioMeshControlPoint@@V?$allocator@PBVioMeshControlPoint@@@std@@@std@@QBEIXZ ; std::list<ioMeshControlPoint const *,std::allocator<ioMeshControlPoint const *> >::size
; Function compile flags: /Ogsp
; File c:\program files (x86)\microsoft visual studio 10.0\vc\include\list
;	COMDAT ?size@?$list@PBVioMeshControlPoint@@V?$allocator@PBVioMeshControlPoint@@@std@@@std@@QBEIXZ
_TEXT	SEGMENT
?size@?$list@PBVioMeshControlPoint@@V?$allocator@PBVioMeshControlPoint@@@std@@@std@@QBEIXZ PROC ; std::list<ioMeshControlPoint const *,std::allocator<ioMeshControlPoint const *> >::size, COMDAT
; _this$ = ecx

; 877  : 		return (this->_Mysize);

  00000	8b 41 04	 mov	 eax, DWORD PTR [ecx+4]

; 878  : 		}

  00003	c3		 ret	 0
?size@?$list@PBVioMeshControlPoint@@V?$allocator@PBVioMeshControlPoint@@@std@@@std@@QBEIXZ ENDP ; std::list<ioMeshControlPoint const *,std::allocator<ioMeshControlPoint const *> >::size
_TEXT	ENDS
PUBLIC	?empty@?$list@PBVioMeshControlPoint@@V?$allocator@PBVioMeshControlPoint@@@std@@@std@@QBE_NXZ ; std::list<ioMeshControlPoint const *,std::allocator<ioMeshControlPoint const *> >::empty
; Function compile flags: /Ogsp
;	COMDAT ?empty@?$list@PBVioMeshControlPoint@@V?$allocator@PBVioMeshControlPoint@@@std@@@std@@QBE_NXZ
_TEXT	SEGMENT
?empty@?$list@PBVioMeshControlPoint@@V?$allocator@PBVioMeshControlPoint@@@std@@@std@@QBE_NXZ PROC ; std::list<ioMeshControlPoint const *,std::allocator<ioMeshControlPoint const *> >::empty, COMDAT
; _this$ = ecx

; 887  : 		return (this->_Mysize == 0);

  00000	33 c0		 xor	 eax, eax
  00002	39 41 04	 cmp	 DWORD PTR [ecx+4], eax
  00005	0f 94 c0	 sete	 al

; 888  : 		}

  00008	c3		 ret	 0
?empty@?$list@PBVioMeshControlPoint@@V?$allocator@PBVioMeshControlPoint@@@std@@@std@@QBE_NXZ ENDP ; std::list<ioMeshControlPoint const *,std::allocator<ioMeshControlPoint const *> >::empty
_TEXT	ENDS
PUBLIC	??0?$allocator@V?$basic_string@DU?$char_traits@D@std@@V?$allocator@D@2@@std@@@std@@QAE@ABV01@@Z ; std::allocator<std::basic_string<char,std::char_traits<char>,std::allocator<char> > >::allocator<std::basic_string<char,std::char_traits<char>,std::allocator<char> > >
; Function compile flags: /Ogsp
; File c:\program files (x86)\microsoft visual studio 10.0\vc\include\xmemory
;	COMDAT ??0?$allocator@V?$basic_string@DU?$char_traits@D@std@@V?$allocator@D@2@@std@@@std@@QAE@ABV01@@Z
_TEXT	SEGMENT
___formal$ = 8						; size = 4
??0?$allocator@V?$basic_string@DU?$char_traits@D@std@@V?$allocator@D@2@@std@@@std@@QAE@ABV01@@Z PROC ; std::allocator<std::basic_string<char,std::char_traits<char>,std::allocator<char> > >::allocator<std::basic_string<char,std::char_traits<char>,std::allocator<char> > >, COMDAT
; _this$ = ecx

; 165  : 	_ALLOCATOR(const _ALLOCATOR<_Ty>&) _THROW0()

  00000	8b c1		 mov	 eax, ecx

; 166  : 		{	// construct by copying (do nothing)
; 167  : 		}

  00002	c2 04 00	 ret	 4
??0?$allocator@V?$basic_string@DU?$char_traits@D@std@@V?$allocator@D@2@@std@@@std@@QAE@ABV01@@Z ENDP ; std::allocator<std::basic_string<char,std::char_traits<char>,std::allocator<char> > >::allocator<std::basic_string<char,std::char_traits<char>,std::allocator<char> > >
_TEXT	ENDS
PUBLIC	?_Inside@?$vector@UAniEventInfo@@V?$allocator@UAniEventInfo@@@std@@@std@@IBE_NPBUAniEventInfo@@@Z ; std::vector<AniEventInfo,std::allocator<AniEventInfo> >::_Inside
; Function compile flags: /Ogsp
; File c:\program files (x86)\microsoft visual studio 10.0\vc\include\vector
;	COMDAT ?_Inside@?$vector@UAniEventInfo@@V?$allocator@UAniEventInfo@@@std@@@std@@IBE_NPBUAniEventInfo@@@Z
_TEXT	SEGMENT
__Ptr$ = 8						; size = 4
?_Inside@?$vector@UAniEventInfo@@V?$allocator@UAniEventInfo@@@std@@@std@@IBE_NPBUAniEventInfo@@@Z PROC ; std::vector<AniEventInfo,std::allocator<AniEventInfo> >::_Inside, COMDAT
; _this$ = ecx

; 1285 : 		{	// test if _Ptr points inside vector

  00000	55		 push	 ebp
  00001	8b ec		 mov	 ebp, esp

; 1286 : 		return (_Ptr < this->_Mylast && this->_Myfirst <= _Ptr);

  00003	8b 45 08	 mov	 eax, DWORD PTR __Ptr$[ebp]
  00006	3b 41 04	 cmp	 eax, DWORD PTR [ecx+4]
  00009	73 09		 jae	 SHORT $LN3@Inside
  0000b	39 01		 cmp	 DWORD PTR [ecx], eax
  0000d	77 05		 ja	 SHORT $LN3@Inside
  0000f	33 c0		 xor	 eax, eax
  00011	40		 inc	 eax
  00012	eb 02		 jmp	 SHORT $LN4@Inside
$LN3@Inside:
  00014	33 c0		 xor	 eax, eax
$LN4@Inside:

; 1287 : 		}

  00016	5d		 pop	 ebp
  00017	c2 04 00	 ret	 4
?_Inside@?$vector@UAniEventInfo@@V?$allocator@UAniEventInfo@@@std@@@std@@IBE_NPBUAniEventInfo@@@Z ENDP ; std::vector<AniEventInfo,std::allocator<AniEventInfo> >::_Inside
_TEXT	ENDS
PUBLIC	?_Orphan_range@?$vector@UAniEventInfo@@V?$allocator@UAniEventInfo@@@std@@@std@@IBEXPAUAniEventInfo@@0@Z ; std::vector<AniEventInfo,std::allocator<AniEventInfo> >::_Orphan_range
; Function compile flags: /Ogsp
;	COMDAT ?_Orphan_range@?$vector@UAniEventInfo@@V?$allocator@UAniEventInfo@@@std@@@std@@IBEXPAUAniEventInfo@@0@Z
_TEXT	SEGMENT
___formal$ = 8						; size = 4
___formal$ = 12						; size = 4
?_Orphan_range@?$vector@UAniEventInfo@@V?$allocator@UAniEventInfo@@@std@@@std@@IBEXPAUAniEventInfo@@0@Z PROC ; std::vector<AniEventInfo,std::allocator<AniEventInfo> >::_Orphan_range, COMDAT
; _this$ = ecx

; 1454 : 		}

  00000	c2 08 00	 ret	 8
?_Orphan_range@?$vector@UAniEventInfo@@V?$allocator@UAniEventInfo@@@std@@@std@@IBEXPAUAniEventInfo@@0@Z ENDP ; std::vector<AniEventInfo,std::allocator<AniEventInfo> >::_Orphan_range
_TEXT	ENDS
PUBLIC	??1?$_Vector_val@UAniEventInfo@@V?$allocator@UAniEventInfo@@@std@@@std@@QAE@XZ ; std::_Vector_val<AniEventInfo,std::allocator<AniEventInfo> >::~_Vector_val<AniEventInfo,std::allocator<AniEventInfo> >
; Function compile flags: /Ogsp
;	COMDAT ??1?$_Vector_val@UAniEventInfo@@V?$allocator@UAniEventInfo@@@std@@@std@@QAE@XZ
_TEXT	SEGMENT
??1?$_Vector_val@UAniEventInfo@@V?$allocator@UAniEventInfo@@@std@@@std@@QAE@XZ PROC ; std::_Vector_val<AniEventInfo,std::allocator<AniEventInfo> >::~_Vector_val<AniEventInfo,std::allocator<AniEventInfo> >, COMDAT
; _this$ = ecx

; 434  : 		}

  00000	c3		 ret	 0
??1?$_Vector_val@UAniEventInfo@@V?$allocator@UAniEventInfo@@@std@@@std@@QAE@XZ ENDP ; std::_Vector_val<AniEventInfo,std::allocator<AniEventInfo> >::~_Vector_val<AniEventInfo,std::allocator<AniEventInfo> >
_TEXT	ENDS
PUBLIC	??0?$allocator@UAniEventInfo@@@std@@QAE@XZ	; std::allocator<AniEventInfo>::allocator<AniEventInfo>
; Function compile flags: /Ogsp
; File c:\program files (x86)\microsoft visual studio 10.0\vc\include\xmemory
;	COMDAT ??0?$allocator@UAniEventInfo@@@std@@QAE@XZ
_TEXT	SEGMENT
??0?$allocator@UAniEventInfo@@@std@@QAE@XZ PROC		; std::allocator<AniEventInfo>::allocator<AniEventInfo>, COMDAT
; _this$ = ecx

; 161  : 	_ALLOCATOR() _THROW0()

  00000	8b c1		 mov	 eax, ecx

; 162  : 		{	// construct default allocator (do nothing)
; 163  : 		}

  00002	c3		 ret	 0
??0?$allocator@UAniEventInfo@@@std@@QAE@XZ ENDP		; std::allocator<AniEventInfo>::allocator<AniEventInfo>
_TEXT	ENDS
PUBLIC	?_Inside@?$vector@UtagAniSoundEventInfo@@V?$allocator@UtagAniSoundEventInfo@@@std@@@std@@IBE_NPBUtagAniSoundEventInfo@@@Z ; std::vector<tagAniSoundEventInfo,std::allocator<tagAniSoundEventInfo> >::_Inside
; Function compile flags: /Ogsp
; File c:\program files (x86)\microsoft visual studio 10.0\vc\include\vector
;	COMDAT ?_Inside@?$vector@UtagAniSoundEventInfo@@V?$allocator@UtagAniSoundEventInfo@@@std@@@std@@IBE_NPBUtagAniSoundEventInfo@@@Z
_TEXT	SEGMENT
__Ptr$ = 8						; size = 4
?_Inside@?$vector@UtagAniSoundEventInfo@@V?$allocator@UtagAniSoundEventInfo@@@std@@@std@@IBE_NPBUtagAniSoundEventInfo@@@Z PROC ; std::vector<tagAniSoundEventInfo,std::allocator<tagAniSoundEventInfo> >::_Inside, COMDAT
; _this$ = ecx

; 1285 : 		{	// test if _Ptr points inside vector

  00000	55		 push	 ebp
  00001	8b ec		 mov	 ebp, esp

; 1286 : 		return (_Ptr < this->_Mylast && this->_Myfirst <= _Ptr);

  00003	8b 45 08	 mov	 eax, DWORD PTR __Ptr$[ebp]
  00006	3b 41 04	 cmp	 eax, DWORD PTR [ecx+4]
  00009	73 09		 jae	 SHORT $LN3@Inside@2
  0000b	39 01		 cmp	 DWORD PTR [ecx], eax
  0000d	77 05		 ja	 SHORT $LN3@Inside@2
  0000f	33 c0		 xor	 eax, eax
  00011	40		 inc	 eax
  00012	eb 02		 jmp	 SHORT $LN4@Inside@2
$LN3@Inside@2:
  00014	33 c0		 xor	 eax, eax
$LN4@Inside@2:

; 1287 : 		}

  00016	5d		 pop	 ebp
  00017	c2 04 00	 ret	 4
?_Inside@?$vector@UtagAniSoundEventInfo@@V?$allocator@UtagAniSoundEventInfo@@@std@@@std@@IBE_NPBUtagAniSoundEventInfo@@@Z ENDP ; std::vector<tagAniSoundEventInfo,std::allocator<tagAniSoundEventInfo> >::_Inside
_TEXT	ENDS
PUBLIC	?_Orphan_range@?$vector@UtagAniSoundEventInfo@@V?$allocator@UtagAniSoundEventInfo@@@std@@@std@@IBEXPAUtagAniSoundEventInfo@@0@Z ; std::vector<tagAniSoundEventInfo,std::allocator<tagAniSoundEventInfo> >::_Orphan_range
; Function compile flags: /Ogsp
;	COMDAT ?_Orphan_range@?$vector@UtagAniSoundEventInfo@@V?$allocator@UtagAniSoundEventInfo@@@std@@@std@@IBEXPAUtagAniSoundEventInfo@@0@Z
_TEXT	SEGMENT
___formal$ = 8						; size = 4
___formal$ = 12						; size = 4
?_Orphan_range@?$vector@UtagAniSoundEventInfo@@V?$allocator@UtagAniSoundEventInfo@@@std@@@std@@IBEXPAUtagAniSoundEventInfo@@0@Z PROC ; std::vector<tagAniSoundEventInfo,std::allocator<tagAniSoundEventInfo> >::_Orphan_range, COMDAT
; _this$ = ecx

; 1454 : 		}

  00000	c2 08 00	 ret	 8
?_Orphan_range@?$vector@UtagAniSoundEventInfo@@V?$allocator@UtagAniSoundEventInfo@@@std@@@std@@IBEXPAUtagAniSoundEventInfo@@0@Z ENDP ; std::vector<tagAniSoundEventInfo,std::allocator<tagAniSoundEventInfo> >::_Orphan_range
_TEXT	ENDS
PUBLIC	??1?$_Vector_val@UtagAniSoundEventInfo@@V?$allocator@UtagAniSoundEventInfo@@@std@@@std@@QAE@XZ ; std::_Vector_val<tagAniSoundEventInfo,std::allocator<tagAniSoundEventInfo> >::~_Vector_val<tagAniSoundEventInfo,std::allocator<tagAniSoundEventInfo> >
; Function compile flags: /Ogsp
;	COMDAT ??1?$_Vector_val@UtagAniSoundEventInfo@@V?$allocator@UtagAniSoundEventInfo@@@std@@@std@@QAE@XZ
_TEXT	SEGMENT
??1?$_Vector_val@UtagAniSoundEventInfo@@V?$allocator@UtagAniSoundEventInfo@@@std@@@std@@QAE@XZ PROC ; std::_Vector_val<tagAniSoundEventInfo,std::allocator<tagAniSoundEventInfo> >::~_Vector_val<tagAniSoundEventInfo,std::allocator<tagAniSoundEventInfo> >, COMDAT
; _this$ = ecx

; 434  : 		}

  00000	c3		 ret	 0
??1?$_Vector_val@UtagAniSoundEventInfo@@V?$allocator@UtagAniSoundEventInfo@@@std@@@std@@QAE@XZ ENDP ; std::_Vector_val<tagAniSoundEventInfo,std::allocator<tagAniSoundEventInfo> >::~_Vector_val<tagAniSoundEventInfo,std::allocator<tagAniSoundEventInfo> >
_TEXT	ENDS
PUBLIC	??0?$allocator@UtagAniSoundEventInfo@@@std@@QAE@XZ ; std::allocator<tagAniSoundEventInfo>::allocator<tagAniSoundEventInfo>
; Function compile flags: /Ogsp
; File c:\program files (x86)\microsoft visual studio 10.0\vc\include\xmemory
;	COMDAT ??0?$allocator@UtagAniSoundEventInfo@@@std@@QAE@XZ
_TEXT	SEGMENT
??0?$allocator@UtagAniSoundEventInfo@@@std@@QAE@XZ PROC	; std::allocator<tagAniSoundEventInfo>::allocator<tagAniSoundEventInfo>, COMDAT
; _this$ = ecx

; 161  : 	_ALLOCATOR() _THROW0()

  00000	8b c1		 mov	 eax, ecx

; 162  : 		{	// construct default allocator (do nothing)
; 163  : 		}

  00002	c3		 ret	 0
??0?$allocator@UtagAniSoundEventInfo@@@std@@QAE@XZ ENDP	; std::allocator<tagAniSoundEventInfo>::allocator<tagAniSoundEventInfo>
_TEXT	ENDS
PUBLIC	??0?$_Vector_const_iterator@V?$_Vector_val@UAniEventInfo@@V?$allocator@UAniEventInfo@@@std@@@std@@@std@@QAE@XZ ; std::_Vector_const_iterator<std::_Vector_val<AniEventInfo,std::allocator<AniEventInfo> > >::_Vector_const_iterator<std::_Vector_val<AniEventInfo,std::allocator<AniEventInfo> > >
; Function compile flags: /Ogsp
; File c:\program files (x86)\microsoft visual studio 10.0\vc\include\vector
;	COMDAT ??0?$_Vector_const_iterator@V?$_Vector_val@UAniEventInfo@@V?$allocator@UAniEventInfo@@@std@@@std@@@std@@QAE@XZ
_TEXT	SEGMENT
??0?$_Vector_const_iterator@V?$_Vector_val@UAniEventInfo@@V?$allocator@UAniEventInfo@@@std@@@std@@@std@@QAE@XZ PROC ; std::_Vector_const_iterator<std::_Vector_val<AniEventInfo,std::allocator<AniEventInfo> > >::_Vector_const_iterator<std::_Vector_val<AniEventInfo,std::allocator<AniEventInfo> > >, COMDAT
; _this$ = ecx

; 40   : 		{	// construct with null pointer

  00000	8b c1		 mov	 eax, ecx
  00002	83 20 00	 and	 DWORD PTR [eax], 0

; 41   : 		}

  00005	c3		 ret	 0
??0?$_Vector_const_iterator@V?$_Vector_val@UAniEventInfo@@V?$allocator@UAniEventInfo@@@std@@@std@@@std@@QAE@XZ ENDP ; std::_Vector_const_iterator<std::_Vector_val<AniEventInfo,std::allocator<AniEventInfo> > >::_Vector_const_iterator<std::_Vector_val<AniEventInfo,std::allocator<AniEventInfo> > >
_TEXT	ENDS
PUBLIC	??D?$_Vector_const_iterator@V?$_Vector_val@UAniEventInfo@@V?$allocator@UAniEventInfo@@@std@@@std@@@std@@QBEABUAniEventInfo@@XZ ; std::_Vector_const_iterator<std::_Vector_val<AniEventInfo,std::allocator<AniEventInfo> > >::operator*
; Function compile flags: /Ogsp
;	COMDAT ??D?$_Vector_const_iterator@V?$_Vector_val@UAniEventInfo@@V?$allocator@UAniEventInfo@@@std@@@std@@@std@@QBEABUAniEventInfo@@XZ
_TEXT	SEGMENT
??D?$_Vector_const_iterator@V?$_Vector_val@UAniEventInfo@@V?$allocator@UAniEventInfo@@@std@@@std@@@std@@QBEABUAniEventInfo@@XZ PROC ; std::_Vector_const_iterator<std::_Vector_val<AniEventInfo,std::allocator<AniEventInfo> > >::operator*, COMDAT
; _this$ = ecx

; 64   :  #if _ITERATOR_DEBUG_LEVEL == 2
; 65   : 		if (this->_Getcont() == 0
; 66   : 			|| this->_Ptr == 0
; 67   : 			|| this->_Ptr < ((_Myvec *)this->_Getcont())->_Myfirst
; 68   : 			|| ((_Myvec *)this->_Getcont())->_Mylast <= this->_Ptr)
; 69   : 			{	// report error
; 70   : 			_DEBUG_ERROR("vector iterator not dereferencable");
; 71   : 			_SCL_SECURE_OUT_OF_RANGE;
; 72   : 			}
; 73   : 
; 74   :  #elif _ITERATOR_DEBUG_LEVEL == 1
; 75   : 		_SCL_SECURE_VALIDATE(this->_Getcont() != 0);
; 76   : 		_SCL_SECURE_VALIDATE_RANGE(
; 77   : 			this->_Ptr != 0
; 78   : 			&& ((_Myvec *)this->_Getcont())->_Myfirst <= this->_Ptr
; 79   : 			&& this->_Ptr < ((_Myvec *)this->_Getcont())->_Mylast);
; 80   :  #endif /* _ITERATOR_DEBUG_LEVEL */
; 81   : 
; 82   : 		__analysis_assume(this->_Ptr != 0);
; 83   : 
; 84   : 		return (*this->_Ptr);

  00000	8b 01		 mov	 eax, DWORD PTR [ecx]

; 85   : 		}

  00002	c3		 ret	 0
??D?$_Vector_const_iterator@V?$_Vector_val@UAniEventInfo@@V?$allocator@UAniEventInfo@@@std@@@std@@@std@@QBEABUAniEventInfo@@XZ ENDP ; std::_Vector_const_iterator<std::_Vector_val<AniEventInfo,std::allocator<AniEventInfo> > >::operator*
_TEXT	ENDS
PUBLIC	??E?$_Vector_const_iterator@V?$_Vector_val@UAniEventInfo@@V?$allocator@UAniEventInfo@@@std@@@std@@@std@@QAEAAV01@XZ ; std::_Vector_const_iterator<std::_Vector_val<AniEventInfo,std::allocator<AniEventInfo> > >::operator++
; Function compile flags: /Ogsp
;	COMDAT ??E?$_Vector_const_iterator@V?$_Vector_val@UAniEventInfo@@V?$allocator@UAniEventInfo@@@std@@@std@@@std@@QAEAAV01@XZ
_TEXT	SEGMENT
??E?$_Vector_const_iterator@V?$_Vector_val@UAniEventInfo@@V?$allocator@UAniEventInfo@@@std@@@std@@@std@@QAEAAV01@XZ PROC ; std::_Vector_const_iterator<std::_Vector_val<AniEventInfo,std::allocator<AniEventInfo> > >::operator++, COMDAT
; _this$ = ecx

; 93   : 		{	// preincrement

  00000	8b c1		 mov	 eax, ecx

; 94   :  #if _ITERATOR_DEBUG_LEVEL == 2
; 95   : 		if (this->_Getcont() == 0
; 96   : 			|| this->_Ptr == 0
; 97   : 			|| ((_Myvec *)this->_Getcont())->_Mylast <= this->_Ptr)
; 98   : 			{	// report error
; 99   : 			_DEBUG_ERROR("vector iterator not incrementable");
; 100  : 			_SCL_SECURE_OUT_OF_RANGE;
; 101  : 			}
; 102  : 
; 103  :  #elif _ITERATOR_DEBUG_LEVEL == 1
; 104  : 		_SCL_SECURE_VALIDATE(this->_Getcont() != 0);
; 105  : 		_SCL_SECURE_VALIDATE_RANGE(
; 106  : 			this->_Ptr != 0
; 107  : 			&& this->_Ptr < ((_Myvec *)this->_Getcont())->_Mylast);
; 108  :  #endif /* _ITERATOR_DEBUG_LEVEL */
; 109  : 
; 110  : 		++this->_Ptr;

  00002	83 00 20	 add	 DWORD PTR [eax], 32	; 00000020H

; 111  : 		return (*this);
; 112  : 		}

  00005	c3		 ret	 0
??E?$_Vector_const_iterator@V?$_Vector_val@UAniEventInfo@@V?$allocator@UAniEventInfo@@@std@@@std@@@std@@QAEAAV01@XZ ENDP ; std::_Vector_const_iterator<std::_Vector_val<AniEventInfo,std::allocator<AniEventInfo> > >::operator++
_TEXT	ENDS
PUBLIC	??D?$_Vector_const_iterator@V?$_Vector_val@UtagAniSoundEventInfo@@V?$allocator@UtagAniSoundEventInfo@@@std@@@std@@@std@@QBEABUtagAniSoundEventInfo@@XZ ; std::_Vector_const_iterator<std::_Vector_val<tagAniSoundEventInfo,std::allocator<tagAniSoundEventInfo> > >::operator*
; Function compile flags: /Ogsp
;	COMDAT ??D?$_Vector_const_iterator@V?$_Vector_val@UtagAniSoundEventInfo@@V?$allocator@UtagAniSoundEventInfo@@@std@@@std@@@std@@QBEABUtagAniSoundEventInfo@@XZ
_TEXT	SEGMENT
??D?$_Vector_const_iterator@V?$_Vector_val@UtagAniSoundEventInfo@@V?$allocator@UtagAniSoundEventInfo@@@std@@@std@@@std@@QBEABUtagAniSoundEventInfo@@XZ PROC ; std::_Vector_const_iterator<std::_Vector_val<tagAniSoundEventInfo,std::allocator<tagAniSoundEventInfo> > >::operator*, COMDAT
; _this$ = ecx

; 64   :  #if _ITERATOR_DEBUG_LEVEL == 2
; 65   : 		if (this->_Getcont() == 0
; 66   : 			|| this->_Ptr == 0
; 67   : 			|| this->_Ptr < ((_Myvec *)this->_Getcont())->_Myfirst
; 68   : 			|| ((_Myvec *)this->_Getcont())->_Mylast <= this->_Ptr)
; 69   : 			{	// report error
; 70   : 			_DEBUG_ERROR("vector iterator not dereferencable");
; 71   : 			_SCL_SECURE_OUT_OF_RANGE;
; 72   : 			}
; 73   : 
; 74   :  #elif _ITERATOR_DEBUG_LEVEL == 1
; 75   : 		_SCL_SECURE_VALIDATE(this->_Getcont() != 0);
; 76   : 		_SCL_SECURE_VALIDATE_RANGE(
; 77   : 			this->_Ptr != 0
; 78   : 			&& ((_Myvec *)this->_Getcont())->_Myfirst <= this->_Ptr
; 79   : 			&& this->_Ptr < ((_Myvec *)this->_Getcont())->_Mylast);
; 80   :  #endif /* _ITERATOR_DEBUG_LEVEL */
; 81   : 
; 82   : 		__analysis_assume(this->_Ptr != 0);
; 83   : 
; 84   : 		return (*this->_Ptr);

  00000	8b 01		 mov	 eax, DWORD PTR [ecx]

; 85   : 		}

  00002	c3		 ret	 0
??D?$_Vector_const_iterator@V?$_Vector_val@UtagAniSoundEventInfo@@V?$allocator@UtagAniSoundEventInfo@@@std@@@std@@@std@@QBEABUtagAniSoundEventInfo@@XZ ENDP ; std::_Vector_const_iterator<std::_Vector_val<tagAniSoundEventInfo,std::allocator<tagAniSoundEventInfo> > >::operator*
_TEXT	ENDS
PUBLIC	??E?$_Vector_const_iterator@V?$_Vector_val@UtagAniSoundEventInfo@@V?$allocator@UtagAniSoundEventInfo@@@std@@@std@@@std@@QAEAAV01@XZ ; std::_Vector_const_iterator<std::_Vector_val<tagAniSoundEventInfo,std::allocator<tagAniSoundEventInfo> > >::operator++
; Function compile flags: /Ogsp
;	COMDAT ??E?$_Vector_const_iterator@V?$_Vector_val@UtagAniSoundEventInfo@@V?$allocator@UtagAniSoundEventInfo@@@std@@@std@@@std@@QAEAAV01@XZ
_TEXT	SEGMENT
??E?$_Vector_const_iterator@V?$_Vector_val@UtagAniSoundEventInfo@@V?$allocator@UtagAniSoundEventInfo@@@std@@@std@@@std@@QAEAAV01@XZ PROC ; std::_Vector_const_iterator<std::_Vector_val<tagAniSoundEventInfo,std::allocator<tagAniSoundEventInfo> > >::operator++, COMDAT
; _this$ = ecx

; 93   : 		{	// preincrement

  00000	8b c1		 mov	 eax, ecx

; 94   :  #if _ITERATOR_DEBUG_LEVEL == 2
; 95   : 		if (this->_Getcont() == 0
; 96   : 			|| this->_Ptr == 0
; 97   : 			|| ((_Myvec *)this->_Getcont())->_Mylast <= this->_Ptr)
; 98   : 			{	// report error
; 99   : 			_DEBUG_ERROR("vector iterator not incrementable");
; 100  : 			_SCL_SECURE_OUT_OF_RANGE;
; 101  : 			}
; 102  : 
; 103  :  #elif _ITERATOR_DEBUG_LEVEL == 1
; 104  : 		_SCL_SECURE_VALIDATE(this->_Getcont() != 0);
; 105  : 		_SCL_SECURE_VALIDATE_RANGE(
; 106  : 			this->_Ptr != 0
; 107  : 			&& this->_Ptr < ((_Myvec *)this->_Getcont())->_Mylast);
; 108  :  #endif /* _ITERATOR_DEBUG_LEVEL */
; 109  : 
; 110  : 		++this->_Ptr;

  00002	83 00 24	 add	 DWORD PTR [eax], 36	; 00000024H

; 111  : 		return (*this);
; 112  : 		}

  00005	c3		 ret	 0
??E?$_Vector_const_iterator@V?$_Vector_val@UtagAniSoundEventInfo@@V?$allocator@UtagAniSoundEventInfo@@@std@@@std@@@std@@QAEAAV01@XZ ENDP ; std::_Vector_const_iterator<std::_Vector_val<tagAniSoundEventInfo,std::allocator<tagAniSoundEventInfo> > >::operator++
_TEXT	ENDS
PUBLIC	?_Nextnode@?$_List_val@PBVioMeshControlPoint@@V?$allocator@PBVioMeshControlPoint@@@std@@@std@@SAAAPAU_Node@?$_List_nod@PBVioMeshControlPoint@@V?$allocator@PBVioMeshControlPoint@@@std@@@2@PAU342@@Z ; std::_List_val<ioMeshControlPoint const *,std::allocator<ioMeshControlPoint const *> >::_Nextnode
; Function compile flags: /Ogsp
; File c:\program files (x86)\microsoft visual studio 10.0\vc\include\list
;	COMDAT ?_Nextnode@?$_List_val@PBVioMeshControlPoint@@V?$allocator@PBVioMeshControlPoint@@@std@@@std@@SAAAPAU_Node@?$_List_nod@PBVioMeshControlPoint@@V?$allocator@PBVioMeshControlPoint@@@std@@@2@PAU342@@Z
_TEXT	SEGMENT
__Pnode$ = 8						; size = 4
?_Nextnode@?$_List_val@PBVioMeshControlPoint@@V?$allocator@PBVioMeshControlPoint@@@std@@@std@@SAAAPAU_Node@?$_List_nod@PBVioMeshControlPoint@@V?$allocator@PBVioMeshControlPoint@@@std@@@2@PAU342@@Z PROC ; std::_List_val<ioMeshControlPoint const *,std::allocator<ioMeshControlPoint const *> >::_Nextnode, COMDAT

; 560  : 		{	// return reference to successor pointer in node

  00000	55		 push	 ebp
  00001	8b ec		 mov	 ebp, esp

; 561  : 		return ((_Nodepref)(*_Pnode)._Next);

  00003	8b 45 08	 mov	 eax, DWORD PTR __Pnode$[ebp]

; 562  : 		}

  00006	5d		 pop	 ebp
  00007	c3		 ret	 0
?_Nextnode@?$_List_val@PBVioMeshControlPoint@@V?$allocator@PBVioMeshControlPoint@@@std@@@std@@SAAAPAU_Node@?$_List_nod@PBVioMeshControlPoint@@V?$allocator@PBVioMeshControlPoint@@@std@@@2@PAU342@@Z ENDP ; std::_List_val<ioMeshControlPoint const *,std::allocator<ioMeshControlPoint const *> >::_Nextnode
_TEXT	ENDS
PUBLIC	?_Myval@?$_List_val@PBVioMeshControlPoint@@V?$allocator@PBVioMeshControlPoint@@@std@@@std@@SAAAPBVioMeshControlPoint@@PAU_Node@?$_List_nod@PBVioMeshControlPoint@@V?$allocator@PBVioMeshControlPoint@@@std@@@2@@Z ; std::_List_val<ioMeshControlPoint const *,std::allocator<ioMeshControlPoint const *> >::_Myval
; Function compile flags: /Ogsp
;	COMDAT ?_Myval@?$_List_val@PBVioMeshControlPoint@@V?$allocator@PBVioMeshControlPoint@@@std@@@std@@SAAAPBVioMeshControlPoint@@PAU_Node@?$_List_nod@PBVioMeshControlPoint@@V?$allocator@PBVioMeshControlPoint@@@std@@@2@@Z
_TEXT	SEGMENT
__Pnode$ = 8						; size = 4
?_Myval@?$_List_val@PBVioMeshControlPoint@@V?$allocator@PBVioMeshControlPoint@@@std@@@std@@SAAAPBVioMeshControlPoint@@PAU_Node@?$_List_nod@PBVioMeshControlPoint@@V?$allocator@PBVioMeshControlPoint@@@std@@@2@@Z PROC ; std::_List_val<ioMeshControlPoint const *,std::allocator<ioMeshControlPoint const *> >::_Myval, COMDAT

; 570  : 		{	// return reference to value in node

  00000	55		 push	 ebp
  00001	8b ec		 mov	 ebp, esp

; 571  : 		return ((reference)(*_Pnode)._Myval);

  00003	8b 45 08	 mov	 eax, DWORD PTR __Pnode$[ebp]
  00006	83 c0 08	 add	 eax, 8

; 572  : 		}

  00009	5d		 pop	 ebp
  0000a	c3		 ret	 0
?_Myval@?$_List_val@PBVioMeshControlPoint@@V?$allocator@PBVioMeshControlPoint@@@std@@@std@@SAAAPBVioMeshControlPoint@@PAU_Node@?$_List_nod@PBVioMeshControlPoint@@V?$allocator@PBVioMeshControlPoint@@@std@@@2@@Z ENDP ; std::_List_val<ioMeshControlPoint const *,std::allocator<ioMeshControlPoint const *> >::_Myval
_TEXT	ENDS
PUBLIC	??8?$_List_const_iterator@V?$_List_val@PBVioMeshControlPoint@@V?$allocator@PBVioMeshControlPoint@@@std@@@std@@@std@@QBE_NABV01@@Z ; std::_List_const_iterator<std::_List_val<ioMeshControlPoint const *,std::allocator<ioMeshControlPoint const *> > >::operator==
; Function compile flags: /Ogsp
;	COMDAT ??8?$_List_const_iterator@V?$_List_val@PBVioMeshControlPoint@@V?$allocator@PBVioMeshControlPoint@@@std@@@std@@@std@@QBE_NABV01@@Z
_TEXT	SEGMENT
__Right$ = 8						; size = 4
??8?$_List_const_iterator@V?$_List_val@PBVioMeshControlPoint@@V?$allocator@PBVioMeshControlPoint@@@std@@@std@@@std@@QBE_NABV01@@Z PROC ; std::_List_const_iterator<std::_List_val<ioMeshControlPoint const *,std::allocator<ioMeshControlPoint const *> > >::operator==, COMDAT
; _this$ = ecx

; 281  : 		{	// test for iterator equality

  00000	55		 push	 ebp
  00001	8b ec		 mov	 ebp, esp

; 282  :  #if _ITERATOR_DEBUG_LEVEL == 2
; 283  : 		if (this->_Getcont() == 0
; 284  : 			|| this->_Getcont() != _Right._Getcont())
; 285  : 			{	// report error
; 286  : 			_DEBUG_ERROR("list iterators incompatible");
; 287  : 			_SCL_SECURE_INVALID_ARGUMENT;
; 288  : 			}
; 289  : 
; 290  :  #elif _ITERATOR_DEBUG_LEVEL == 1
; 291  : 		_SCL_SECURE_VALIDATE(this->_Getcont() != 0
; 292  : 			&& this->_Getcont() == _Right._Getcont());
; 293  :  #endif /* _ITERATOR_DEBUG_LEVEL */
; 294  : 
; 295  : 		return (this->_Ptr == _Right._Ptr);

  00003	8b 01		 mov	 eax, DWORD PTR [ecx]
  00005	8b 4d 08	 mov	 ecx, DWORD PTR __Right$[ebp]
  00008	2b 01		 sub	 eax, DWORD PTR [ecx]
  0000a	f7 d8		 neg	 eax
  0000c	1b c0		 sbb	 eax, eax
  0000e	40		 inc	 eax

; 296  : 		}

  0000f	5d		 pop	 ebp
  00010	c2 04 00	 ret	 4
??8?$_List_const_iterator@V?$_List_val@PBVioMeshControlPoint@@V?$allocator@PBVioMeshControlPoint@@@std@@@std@@@std@@QBE_NABV01@@Z ENDP ; std::_List_const_iterator<std::_List_val<ioMeshControlPoint const *,std::allocator<ioMeshControlPoint const *> > >::operator==
_TEXT	ENDS
PUBLIC	??0?$_List_unchecked_const_iterator@V?$_List_val@PBVioMeshControlPoint@@V?$allocator@PBVioMeshControlPoint@@@std@@@std@@U_Iterator_base0@2@@std@@QAE@XZ ; std::_List_unchecked_const_iterator<std::_List_val<ioMeshControlPoint const *,std::allocator<ioMeshControlPoint const *> >,std::_Iterator_base0>::_List_unchecked_const_iterator<std::_List_val<ioMeshControlPoint const *,std::allocator<ioMeshControlPoint const *> >,std::_Iterator_base0>
; Function compile flags: /Ogsp
;	COMDAT ??0?$_List_unchecked_const_iterator@V?$_List_val@PBVioMeshControlPoint@@V?$allocator@PBVioMeshControlPoint@@@std@@@std@@U_Iterator_base0@2@@std@@QAE@XZ
_TEXT	SEGMENT
??0?$_List_unchecked_const_iterator@V?$_List_val@PBVioMeshControlPoint@@V?$allocator@PBVioMeshControlPoint@@@std@@@std@@U_Iterator_base0@2@@std@@QAE@XZ PROC ; std::_List_unchecked_const_iterator<std::_List_val<ioMeshControlPoint const *,std::allocator<ioMeshControlPoint const *> >,std::_Iterator_base0>::_List_unchecked_const_iterator<std::_List_val<ioMeshControlPoint const *,std::allocator<ioMeshControlPoint const *> >,std::_Iterator_base0>, COMDAT
; _this$ = ecx

; 36   : 		{	// construct with null node pointer

  00000	8b c1		 mov	 eax, ecx
  00002	83 20 00	 and	 DWORD PTR [eax], 0

; 37   : 		}

  00005	c3		 ret	 0
??0?$_List_unchecked_const_iterator@V?$_List_val@PBVioMeshControlPoint@@V?$allocator@PBVioMeshControlPoint@@@std@@@std@@U_Iterator_base0@2@@std@@QAE@XZ ENDP ; std::_List_unchecked_const_iterator<std::_List_val<ioMeshControlPoint const *,std::allocator<ioMeshControlPoint const *> >,std::_Iterator_base0>::_List_unchecked_const_iterator<std::_List_val<ioMeshControlPoint const *,std::allocator<ioMeshControlPoint const *> >,std::_Iterator_base0>
_TEXT	ENDS
PUBLIC	??_C@_0BD@OLBABOEK@vector?$DMT?$DO?5too?5long?$AA@ ; `string'
PUBLIC	?_Xlen@?$vector@V?$basic_string@DU?$char_traits@D@std@@V?$allocator@D@2@@std@@V?$allocator@V?$basic_string@DU?$char_traits@D@std@@V?$allocator@D@2@@std@@@2@@std@@IBEXXZ ; std::vector<std::basic_string<char,std::char_traits<char>,std::allocator<char> >,std::allocator<std::basic_string<char,std::char_traits<char>,std::allocator<char> > > >::_Xlen
EXTRN	__imp_?_Xlength_error@std@@YAXPBD@Z:PROC
;	COMDAT ??_C@_0BD@OLBABOEK@vector?$DMT?$DO?5too?5long?$AA@
; File c:\program files (x86)\microsoft visual studio 10.0\vc\include\vector
CONST	SEGMENT
??_C@_0BD@OLBABOEK@vector?$DMT?$DO?5too?5long?$AA@ DB 'vector<T> too long'
	DB	00H						; `string'
; Function compile flags: /Ogsp
CONST	ENDS
;	COMDAT ?_Xlen@?$vector@V?$basic_string@DU?$char_traits@D@std@@V?$allocator@D@2@@std@@V?$allocator@V?$basic_string@DU?$char_traits@D@std@@V?$allocator@D@2@@std@@@2@@std@@IBEXXZ
_TEXT	SEGMENT
?_Xlen@?$vector@V?$basic_string@DU?$char_traits@D@std@@V?$allocator@D@2@@std@@V?$allocator@V?$basic_string@DU?$char_traits@D@std@@V?$allocator@D@2@@std@@@2@@std@@IBEXXZ PROC ; std::vector<std::basic_string<char,std::char_traits<char>,std::allocator<char> >,std::allocator<std::basic_string<char,std::char_traits<char>,std::allocator<char> > > >::_Xlen, COMDAT
; _this$ = ecx

; 1427 : 		_Xlength_error("vector<T> too long");

  00000	68 00 00 00 00	 push	 OFFSET ??_C@_0BD@OLBABOEK@vector?$DMT?$DO?5too?5long?$AA@
  00005	ff 15 00 00 00
	00		 call	 DWORD PTR __imp_?_Xlength_error@std@@YAXPBD@Z
$LN4@Xlen:
$LN3@Xlen:
  0000b	cc		 int	 3
?_Xlen@?$vector@V?$basic_string@DU?$char_traits@D@std@@V?$allocator@D@2@@std@@V?$allocator@V?$basic_string@DU?$char_traits@D@std@@V?$allocator@D@2@@std@@@2@@std@@IBEXXZ ENDP ; std::vector<std::basic_string<char,std::char_traits<char>,std::allocator<char> >,std::allocator<std::basic_string<char,std::char_traits<char>,std::allocator<char> > > >::_Xlen
_TEXT	ENDS
PUBLIC	?capacity@?$vector@UAniEventInfo@@V?$allocator@UAniEventInfo@@@std@@@std@@QBEIXZ ; std::vector<AniEventInfo,std::allocator<AniEventInfo> >::capacity
; Function compile flags: /Ogsp
;	COMDAT ?capacity@?$vector@UAniEventInfo@@V?$allocator@UAniEventInfo@@@std@@@std@@QBEIXZ
_TEXT	SEGMENT
?capacity@?$vector@UAniEventInfo@@V?$allocator@UAniEventInfo@@@std@@@std@@QBEIXZ PROC ; std::vector<AniEventInfo,std::allocator<AniEventInfo> >::capacity, COMDAT
; _this$ = ecx

; 777  : 		return (this->_Myend - this->_Myfirst);

  00000	8b 41 08	 mov	 eax, DWORD PTR [ecx+8]
  00003	2b 01		 sub	 eax, DWORD PTR [ecx]
  00005	c1 f8 05	 sar	 eax, 5

; 778  : 		}

  00008	c3		 ret	 0
?capacity@?$vector@UAniEventInfo@@V?$allocator@UAniEventInfo@@@std@@@std@@QBEIXZ ENDP ; std::vector<AniEventInfo,std::allocator<AniEventInfo> >::capacity
_TEXT	ENDS
PUBLIC	?size@?$vector@UAniEventInfo@@V?$allocator@UAniEventInfo@@@std@@@std@@QBEIXZ ; std::vector<AniEventInfo,std::allocator<AniEventInfo> >::size
; Function compile flags: /Ogsp
;	COMDAT ?size@?$vector@UAniEventInfo@@V?$allocator@UAniEventInfo@@@std@@@std@@QBEIXZ
_TEXT	SEGMENT
?size@?$vector@UAniEventInfo@@V?$allocator@UAniEventInfo@@@std@@@std@@QBEIXZ PROC ; std::vector<AniEventInfo,std::allocator<AniEventInfo> >::size, COMDAT
; _this$ = ecx

; 879  : 		return (this->_Mylast - this->_Myfirst);

  00000	8b 41 04	 mov	 eax, DWORD PTR [ecx+4]
  00003	2b 01		 sub	 eax, DWORD PTR [ecx]
  00005	c1 f8 05	 sar	 eax, 5

; 880  : 		}

  00008	c3		 ret	 0
?size@?$vector@UAniEventInfo@@V?$allocator@UAniEventInfo@@@std@@@std@@QBEIXZ ENDP ; std::vector<AniEventInfo,std::allocator<AniEventInfo> >::size
_TEXT	ENDS
PUBLIC	?_Xlen@?$vector@UAniEventInfo@@V?$allocator@UAniEventInfo@@@std@@@std@@IBEXXZ ; std::vector<AniEventInfo,std::allocator<AniEventInfo> >::_Xlen
; Function compile flags: /Ogsp
;	COMDAT ?_Xlen@?$vector@UAniEventInfo@@V?$allocator@UAniEventInfo@@@std@@@std@@IBEXXZ
_TEXT	SEGMENT
?_Xlen@?$vector@UAniEventInfo@@V?$allocator@UAniEventInfo@@@std@@@std@@IBEXXZ PROC ; std::vector<AniEventInfo,std::allocator<AniEventInfo> >::_Xlen, COMDAT
; _this$ = ecx

; 1427 : 		_Xlength_error("vector<T> too long");

  00000	68 00 00 00 00	 push	 OFFSET ??_C@_0BD@OLBABOEK@vector?$DMT?$DO?5too?5long?$AA@
  00005	ff 15 00 00 00
	00		 call	 DWORD PTR __imp_?_Xlength_error@std@@YAXPBD@Z
$LN4@Xlen@2:
$LN3@Xlen@2:
  0000b	cc		 int	 3
?_Xlen@?$vector@UAniEventInfo@@V?$allocator@UAniEventInfo@@@std@@@std@@IBEXXZ ENDP ; std::vector<AniEventInfo,std::allocator<AniEventInfo> >::_Xlen
_TEXT	ENDS
PUBLIC	??0?$allocator@UAniEventInfo@@@std@@QAE@ABV01@@Z ; std::allocator<AniEventInfo>::allocator<AniEventInfo>
; Function compile flags: /Ogsp
; File c:\program files (x86)\microsoft visual studio 10.0\vc\include\xmemory
;	COMDAT ??0?$allocator@UAniEventInfo@@@std@@QAE@ABV01@@Z
_TEXT	SEGMENT
___formal$ = 8						; size = 4
??0?$allocator@UAniEventInfo@@@std@@QAE@ABV01@@Z PROC	; std::allocator<AniEventInfo>::allocator<AniEventInfo>, COMDAT
; _this$ = ecx

; 165  : 	_ALLOCATOR(const _ALLOCATOR<_Ty>&) _THROW0()

  00000	8b c1		 mov	 eax, ecx

; 166  : 		{	// construct by copying (do nothing)
; 167  : 		}

  00002	c2 04 00	 ret	 4
??0?$allocator@UAniEventInfo@@@std@@QAE@ABV01@@Z ENDP	; std::allocator<AniEventInfo>::allocator<AniEventInfo>
_TEXT	ENDS
PUBLIC	?deallocate@?$allocator@UAniEventInfo@@@std@@QAEXPAUAniEventInfo@@I@Z ; std::allocator<AniEventInfo>::deallocate
; Function compile flags: /Ogsp
;	COMDAT ?deallocate@?$allocator@UAniEventInfo@@@std@@QAEXPAUAniEventInfo@@I@Z
_TEXT	SEGMENT
__Ptr$ = 8						; size = 4
___formal$ = 12						; size = 4
?deallocate@?$allocator@UAniEventInfo@@@std@@QAEXPAUAniEventInfo@@I@Z PROC ; std::allocator<AniEventInfo>::deallocate, COMDAT
; _this$ = ecx

; 181  : 		{	// deallocate object at _Ptr, ignore size

  00000	55		 push	 ebp
  00001	8b ec		 mov	 ebp, esp

; 182  : 		::operator delete(_Ptr);

  00003	ff 75 08	 push	 DWORD PTR __Ptr$[ebp]
  00006	e8 00 00 00 00	 call	 ??3@YAXPAX@Z		; operator delete
  0000b	59		 pop	 ecx

; 183  : 		}

  0000c	5d		 pop	 ebp
  0000d	c2 08 00	 ret	 8
?deallocate@?$allocator@UAniEventInfo@@@std@@QAEXPAUAniEventInfo@@I@Z ENDP ; std::allocator<AniEventInfo>::deallocate
_TEXT	ENDS
PUBLIC	?capacity@?$vector@UtagAniSoundEventInfo@@V?$allocator@UtagAniSoundEventInfo@@@std@@@std@@QBEIXZ ; std::vector<tagAniSoundEventInfo,std::allocator<tagAniSoundEventInfo> >::capacity
; Function compile flags: /Ogsp
; File c:\program files (x86)\microsoft visual studio 10.0\vc\include\vector
;	COMDAT ?capacity@?$vector@UtagAniSoundEventInfo@@V?$allocator@UtagAniSoundEventInfo@@@std@@@std@@QBEIXZ
_TEXT	SEGMENT
?capacity@?$vector@UtagAniSoundEventInfo@@V?$allocator@UtagAniSoundEventInfo@@@std@@@std@@QBEIXZ PROC ; std::vector<tagAniSoundEventInfo,std::allocator<tagAniSoundEventInfo> >::capacity, COMDAT
; _this$ = ecx

; 777  : 		return (this->_Myend - this->_Myfirst);

  00000	8b 41 08	 mov	 eax, DWORD PTR [ecx+8]
  00003	2b 01		 sub	 eax, DWORD PTR [ecx]
  00005	6a 24		 push	 36			; 00000024H
  00007	99		 cdq
  00008	59		 pop	 ecx
  00009	f7 f9		 idiv	 ecx

; 778  : 		}

  0000b	c3		 ret	 0
?capacity@?$vector@UtagAniSoundEventInfo@@V?$allocator@UtagAniSoundEventInfo@@@std@@@std@@QBEIXZ ENDP ; std::vector<tagAniSoundEventInfo,std::allocator<tagAniSoundEventInfo> >::capacity
_TEXT	ENDS
PUBLIC	?size@?$vector@UtagAniSoundEventInfo@@V?$allocator@UtagAniSoundEventInfo@@@std@@@std@@QBEIXZ ; std::vector<tagAniSoundEventInfo,std::allocator<tagAniSoundEventInfo> >::size
; Function compile flags: /Ogsp
;	COMDAT ?size@?$vector@UtagAniSoundEventInfo@@V?$allocator@UtagAniSoundEventInfo@@@std@@@std@@QBEIXZ
_TEXT	SEGMENT
?size@?$vector@UtagAniSoundEventInfo@@V?$allocator@UtagAniSoundEventInfo@@@std@@@std@@QBEIXZ PROC ; std::vector<tagAniSoundEventInfo,std::allocator<tagAniSoundEventInfo> >::size, COMDAT
; _this$ = ecx

; 879  : 		return (this->_Mylast - this->_Myfirst);

  00000	8b 41 04	 mov	 eax, DWORD PTR [ecx+4]
  00003	2b 01		 sub	 eax, DWORD PTR [ecx]
  00005	6a 24		 push	 36			; 00000024H
  00007	99		 cdq
  00008	59		 pop	 ecx
  00009	f7 f9		 idiv	 ecx

; 880  : 		}

  0000b	c3		 ret	 0
?size@?$vector@UtagAniSoundEventInfo@@V?$allocator@UtagAniSoundEventInfo@@@std@@@std@@QBEIXZ ENDP ; std::vector<tagAniSoundEventInfo,std::allocator<tagAniSoundEventInfo> >::size
_TEXT	ENDS
PUBLIC	?_Xlen@?$vector@UtagAniSoundEventInfo@@V?$allocator@UtagAniSoundEventInfo@@@std@@@std@@IBEXXZ ; std::vector<tagAniSoundEventInfo,std::allocator<tagAniSoundEventInfo> >::_Xlen
; Function compile flags: /Ogsp
;	COMDAT ?_Xlen@?$vector@UtagAniSoundEventInfo@@V?$allocator@UtagAniSoundEventInfo@@@std@@@std@@IBEXXZ
_TEXT	SEGMENT
?_Xlen@?$vector@UtagAniSoundEventInfo@@V?$allocator@UtagAniSoundEventInfo@@@std@@@std@@IBEXXZ PROC ; std::vector<tagAniSoundEventInfo,std::allocator<tagAniSoundEventInfo> >::_Xlen, COMDAT
; _this$ = ecx

; 1427 : 		_Xlength_error("vector<T> too long");

  00000	68 00 00 00 00	 push	 OFFSET ??_C@_0BD@OLBABOEK@vector?$DMT?$DO?5too?5long?$AA@
  00005	ff 15 00 00 00
	00		 call	 DWORD PTR __imp_?_Xlength_error@std@@YAXPBD@Z
$LN4@Xlen@3:
$LN3@Xlen@3:
  0000b	cc		 int	 3
?_Xlen@?$vector@UtagAniSoundEventInfo@@V?$allocator@UtagAniSoundEventInfo@@@std@@@std@@IBEXXZ ENDP ; std::vector<tagAniSoundEventInfo,std::allocator<tagAniSoundEventInfo> >::_Xlen
_TEXT	ENDS
PUBLIC	??0?$allocator@UtagAniSoundEventInfo@@@std@@QAE@ABV01@@Z ; std::allocator<tagAniSoundEventInfo>::allocator<tagAniSoundEventInfo>
; Function compile flags: /Ogsp
; File c:\program files (x86)\microsoft visual studio 10.0\vc\include\xmemory
;	COMDAT ??0?$allocator@UtagAniSoundEventInfo@@@std@@QAE@ABV01@@Z
_TEXT	SEGMENT
___formal$ = 8						; size = 4
??0?$allocator@UtagAniSoundEventInfo@@@std@@QAE@ABV01@@Z PROC ; std::allocator<tagAniSoundEventInfo>::allocator<tagAniSoundEventInfo>, COMDAT
; _this$ = ecx

; 165  : 	_ALLOCATOR(const _ALLOCATOR<_Ty>&) _THROW0()

  00000	8b c1		 mov	 eax, ecx

; 166  : 		{	// construct by copying (do nothing)
; 167  : 		}

  00002	c2 04 00	 ret	 4
??0?$allocator@UtagAniSoundEventInfo@@@std@@QAE@ABV01@@Z ENDP ; std::allocator<tagAniSoundEventInfo>::allocator<tagAniSoundEventInfo>
_TEXT	ENDS
PUBLIC	?deallocate@?$allocator@UtagAniSoundEventInfo@@@std@@QAEXPAUtagAniSoundEventInfo@@I@Z ; std::allocator<tagAniSoundEventInfo>::deallocate
; Function compile flags: /Ogsp
;	COMDAT ?deallocate@?$allocator@UtagAniSoundEventInfo@@@std@@QAEXPAUtagAniSoundEventInfo@@I@Z
_TEXT	SEGMENT
__Ptr$ = 8						; size = 4
___formal$ = 12						; size = 4
?deallocate@?$allocator@UtagAniSoundEventInfo@@@std@@QAEXPAUtagAniSoundEventInfo@@I@Z PROC ; std::allocator<tagAniSoundEventInfo>::deallocate, COMDAT
; _this$ = ecx

; 181  : 		{	// deallocate object at _Ptr, ignore size

  00000	55		 push	 ebp
  00001	8b ec		 mov	 ebp, esp

; 182  : 		::operator delete(_Ptr);

  00003	ff 75 08	 push	 DWORD PTR __Ptr$[ebp]
  00006	e8 00 00 00 00	 call	 ??3@YAXPAX@Z		; operator delete
  0000b	59		 pop	 ecx

; 183  : 		}

  0000c	5d		 pop	 ebp
  0000d	c2 08 00	 ret	 8
?deallocate@?$allocator@UtagAniSoundEventInfo@@@std@@QAEXPAUtagAniSoundEventInfo@@I@Z ENDP ; std::allocator<tagAniSoundEventInfo>::deallocate
_TEXT	ENDS
PUBLIC	??0?$_Vector_const_iterator@V?$_Vector_val@UAniEventInfo@@V?$allocator@UAniEventInfo@@@std@@@std@@@std@@QAE@PAUAniEventInfo@@PBU_Container_base0@1@@Z ; std::_Vector_const_iterator<std::_Vector_val<AniEventInfo,std::allocator<AniEventInfo> > >::_Vector_const_iterator<std::_Vector_val<AniEventInfo,std::allocator<AniEventInfo> > >
; Function compile flags: /Ogsp
; File c:\program files (x86)\microsoft visual studio 10.0\vc\include\vector
;	COMDAT ??0?$_Vector_const_iterator@V?$_Vector_val@UAniEventInfo@@V?$allocator@UAniEventInfo@@@std@@@std@@@std@@QAE@PAUAniEventInfo@@PBU_Container_base0@1@@Z
_TEXT	SEGMENT
__Parg$ = 8						; size = 4
__Pvector$ = 12						; size = 4
??0?$_Vector_const_iterator@V?$_Vector_val@UAniEventInfo@@V?$allocator@UAniEventInfo@@@std@@@std@@@std@@QAE@PAUAniEventInfo@@PBU_Container_base0@1@@Z PROC ; std::_Vector_const_iterator<std::_Vector_val<AniEventInfo,std::allocator<AniEventInfo> > >::_Vector_const_iterator<std::_Vector_val<AniEventInfo,std::allocator<AniEventInfo> > >, COMDAT
; _this$ = ecx

; 45   : 		{	// construct with pointer _Parg

  00000	55		 push	 ebp
  00001	8b ec		 mov	 ebp, esp
  00003	8b c1		 mov	 eax, ecx
  00005	8b 4d 08	 mov	 ecx, DWORD PTR __Parg$[ebp]
  00008	89 08		 mov	 DWORD PTR [eax], ecx

; 46   : 		this->_Adopt(_Pvector);
; 47   : 		}

  0000a	5d		 pop	 ebp
  0000b	c2 08 00	 ret	 8
??0?$_Vector_const_iterator@V?$_Vector_val@UAniEventInfo@@V?$allocator@UAniEventInfo@@@std@@@std@@@std@@QAE@PAUAniEventInfo@@PBU_Container_base0@1@@Z ENDP ; std::_Vector_const_iterator<std::_Vector_val<AniEventInfo,std::allocator<AniEventInfo> > >::_Vector_const_iterator<std::_Vector_val<AniEventInfo,std::allocator<AniEventInfo> > >
_TEXT	ENDS
PUBLIC	?_Compat@?$_Vector_const_iterator@V?$_Vector_val@UAniEventInfo@@V?$allocator@UAniEventInfo@@@std@@@std@@@std@@QBEXABV12@@Z ; std::_Vector_const_iterator<std::_Vector_val<AniEventInfo,std::allocator<AniEventInfo> > >::_Compat
; Function compile flags: /Ogsp
;	COMDAT ?_Compat@?$_Vector_const_iterator@V?$_Vector_val@UAniEventInfo@@V?$allocator@UAniEventInfo@@@std@@@std@@@std@@QBEXABV12@@Z
_TEXT	SEGMENT
___formal$ = 8						; size = 4
?_Compat@?$_Vector_const_iterator@V?$_Vector_val@UAniEventInfo@@V?$allocator@UAniEventInfo@@@std@@@std@@@std@@QBEXABV12@@Z PROC ; std::_Vector_const_iterator<std::_Vector_val<AniEventInfo,std::allocator<AniEventInfo> > >::_Compat, COMDAT
; _this$ = ecx

; 253  : 		}

  00000	c2 04 00	 ret	 4
?_Compat@?$_Vector_const_iterator@V?$_Vector_val@UAniEventInfo@@V?$allocator@UAniEventInfo@@@std@@@std@@@std@@QBEXABV12@@Z ENDP ; std::_Vector_const_iterator<std::_Vector_val<AniEventInfo,std::allocator<AniEventInfo> > >::_Compat
_TEXT	ENDS
PUBLIC	??0?$_Vector_const_iterator@V?$_Vector_val@UtagAniSoundEventInfo@@V?$allocator@UtagAniSoundEventInfo@@@std@@@std@@@std@@QAE@PAUtagAniSoundEventInfo@@PBU_Container_base0@1@@Z ; std::_Vector_const_iterator<std::_Vector_val<tagAniSoundEventInfo,std::allocator<tagAniSoundEventInfo> > >::_Vector_const_iterator<std::_Vector_val<tagAniSoundEventInfo,std::allocator<tagAniSoundEventInfo> > >
; Function compile flags: /Ogsp
;	COMDAT ??0?$_Vector_const_iterator@V?$_Vector_val@UtagAniSoundEventInfo@@V?$allocator@UtagAniSoundEventInfo@@@std@@@std@@@std@@QAE@PAUtagAniSoundEventInfo@@PBU_Container_base0@1@@Z
_TEXT	SEGMENT
__Parg$ = 8						; size = 4
__Pvector$ = 12						; size = 4
??0?$_Vector_const_iterator@V?$_Vector_val@UtagAniSoundEventInfo@@V?$allocator@UtagAniSoundEventInfo@@@std@@@std@@@std@@QAE@PAUtagAniSoundEventInfo@@PBU_Container_base0@1@@Z PROC ; std::_Vector_const_iterator<std::_Vector_val<tagAniSoundEventInfo,std::allocator<tagAniSoundEventInfo> > >::_Vector_const_iterator<std::_Vector_val<tagAniSoundEventInfo,std::allocator<tagAniSoundEventInfo> > >, COMDAT
; _this$ = ecx

; 45   : 		{	// construct with pointer _Parg

  00000	55		 push	 ebp
  00001	8b ec		 mov	 ebp, esp
  00003	8b c1		 mov	 eax, ecx
  00005	8b 4d 08	 mov	 ecx, DWORD PTR __Parg$[ebp]
  00008	89 08		 mov	 DWORD PTR [eax], ecx

; 46   : 		this->_Adopt(_Pvector);
; 47   : 		}

  0000a	5d		 pop	 ebp
  0000b	c2 08 00	 ret	 8
??0?$_Vector_const_iterator@V?$_Vector_val@UtagAniSoundEventInfo@@V?$allocator@UtagAniSoundEventInfo@@@std@@@std@@@std@@QAE@PAUtagAniSoundEventInfo@@PBU_Container_base0@1@@Z ENDP ; std::_Vector_const_iterator<std::_Vector_val<tagAniSoundEventInfo,std::allocator<tagAniSoundEventInfo> > >::_Vector_const_iterator<std::_Vector_val<tagAniSoundEventInfo,std::allocator<tagAniSoundEventInfo> > >
_TEXT	ENDS
PUBLIC	?_Compat@?$_Vector_const_iterator@V?$_Vector_val@UtagAniSoundEventInfo@@V?$allocator@UtagAniSoundEventInfo@@@std@@@std@@@std@@QBEXABV12@@Z ; std::_Vector_const_iterator<std::_Vector_val<tagAniSoundEventInfo,std::allocator<tagAniSoundEventInfo> > >::_Compat
; Function compile flags: /Ogsp
;	COMDAT ?_Compat@?$_Vector_const_iterator@V?$_Vector_val@UtagAniSoundEventInfo@@V?$allocator@UtagAniSoundEventInfo@@@std@@@std@@@std@@QBEXABV12@@Z
_TEXT	SEGMENT
___formal$ = 8						; size = 4
?_Compat@?$_Vector_const_iterator@V?$_Vector_val@UtagAniSoundEventInfo@@V?$allocator@UtagAniSoundEventInfo@@@std@@@std@@@std@@QBEXABV12@@Z PROC ; std::_Vector_const_iterator<std::_Vector_val<tagAniSoundEventInfo,std::allocator<tagAniSoundEventInfo> > >::_Compat, COMDAT
; _this$ = ecx

; 253  : 		}

  00000	c2 04 00	 ret	 4
?_Compat@?$_Vector_const_iterator@V?$_Vector_val@UtagAniSoundEventInfo@@V?$allocator@UtagAniSoundEventInfo@@@std@@@std@@@std@@QBEXABV12@@Z ENDP ; std::_Vector_const_iterator<std::_Vector_val<tagAniSoundEventInfo,std::allocator<tagAniSoundEventInfo> > >::_Compat
_TEXT	ENDS
PUBLIC	?deallocate@?$allocator@U_Node@?$_List_nod@PBVioMeshControlPoint@@V?$allocator@PBVioMeshControlPoint@@@std@@@std@@@std@@QAEXPAU_Node@?$_List_nod@PBVioMeshControlPoint@@V?$allocator@PBVioMeshControlPoint@@@std@@@2@I@Z ; std::allocator<std::_List_nod<ioMeshControlPoint const *,std::allocator<ioMeshControlPoint const *> >::_Node>::deallocate
; Function compile flags: /Ogsp
; File c:\program files (x86)\microsoft visual studio 10.0\vc\include\xmemory
;	COMDAT ?deallocate@?$allocator@U_Node@?$_List_nod@PBVioMeshControlPoint@@V?$allocator@PBVioMeshControlPoint@@@std@@@std@@@std@@QAEXPAU_Node@?$_List_nod@PBVioMeshControlPoint@@V?$allocator@PBVioMeshControlPoint@@@std@@@2@I@Z
_TEXT	SEGMENT
__Ptr$ = 8						; size = 4
___formal$ = 12						; size = 4
?deallocate@?$allocator@U_Node@?$_List_nod@PBVioMeshControlPoint@@V?$allocator@PBVioMeshControlPoint@@@std@@@std@@@std@@QAEXPAU_Node@?$_List_nod@PBVioMeshControlPoint@@V?$allocator@PBVioMeshControlPoint@@@std@@@2@I@Z PROC ; std::allocator<std::_List_nod<ioMeshControlPoint const *,std::allocator<ioMeshControlPoint const *> >::_Node>::deallocate, COMDAT
; _this$ = ecx

; 181  : 		{	// deallocate object at _Ptr, ignore size

  00000	55		 push	 ebp
  00001	8b ec		 mov	 ebp, esp

; 182  : 		::operator delete(_Ptr);

  00003	ff 75 08	 push	 DWORD PTR __Ptr$[ebp]
  00006	e8 00 00 00 00	 call	 ??3@YAXPAX@Z		; operator delete
  0000b	59		 pop	 ecx

; 183  : 		}

  0000c	5d		 pop	 ebp
  0000d	c2 08 00	 ret	 8
?deallocate@?$allocator@U_Node@?$_List_nod@PBVioMeshControlPoint@@V?$allocator@PBVioMeshControlPoint@@@std@@@std@@@std@@QAEXPAU_Node@?$_List_nod@PBVioMeshControlPoint@@V?$allocator@PBVioMeshControlPoint@@@std@@@2@I@Z ENDP ; std::allocator<std::_List_nod<ioMeshControlPoint const *,std::allocator<ioMeshControlPoint const *> >::_Node>::deallocate
_TEXT	ENDS
PUBLIC	??0?$_Vector_const_iterator@V?$_Vector_val@V?$basic_string@DU?$char_traits@D@std@@V?$allocator@D@2@@std@@V?$allocator@V?$basic_string@DU?$char_traits@D@std@@V?$allocator@D@2@@std@@@2@@std@@@std@@QAE@PAV?$basic_string@DU?$char_traits@D@std@@V?$allocator@D@2@@1@PBU_Container_base0@1@@Z ; std::_Vector_const_iterator<std::_Vector_val<std::basic_string<char,std::char_traits<char>,std::allocator<char> >,std::allocator<std::basic_string<char,std::char_traits<char>,std::allocator<char> > > > >::_Vector_const_iterator<std::_Vector_val<std::basic_string<char,std::char_traits<char>,std::allocator<char> >,std::allocator<std::basic_string<char,std::char_traits<char>,std::allocator<char> > > > >
; Function compile flags: /Ogsp
; File c:\program files (x86)\microsoft visual studio 10.0\vc\include\vector
;	COMDAT ??0?$_Vector_const_iterator@V?$_Vector_val@V?$basic_string@DU?$char_traits@D@std@@V?$allocator@D@2@@std@@V?$allocator@V?$basic_string@DU?$char_traits@D@std@@V?$allocator@D@2@@std@@@2@@std@@@std@@QAE@PAV?$basic_string@DU?$char_traits@D@std@@V?$allocator@D@2@@1@PBU_Container_base0@1@@Z
_TEXT	SEGMENT
__Parg$ = 8						; size = 4
__Pvector$ = 12						; size = 4
??0?$_Vector_const_iterator@V?$_Vector_val@V?$basic_string@DU?$char_traits@D@std@@V?$allocator@D@2@@std@@V?$allocator@V?$basic_string@DU?$char_traits@D@std@@V?$allocator@D@2@@std@@@2@@std@@@std@@QAE@PAV?$basic_string@DU?$char_traits@D@std@@V?$allocator@D@2@@1@PBU_Container_base0@1@@Z PROC ; std::_Vector_const_iterator<std::_Vector_val<std::basic_string<char,std::char_traits<char>,std::allocator<char> >,std::allocator<std::basic_string<char,std::char_traits<char>,std::allocator<char> > > > >::_Vector_const_iterator<std::_Vector_val<std::basic_string<char,std::char_traits<char>,std::allocator<char> >,std::allocator<std::basic_string<char,std::char_traits<char>,std::allocator<char> > > > >, COMDAT
; _this$ = ecx

; 45   : 		{	// construct with pointer _Parg

  00000	55		 push	 ebp
  00001	8b ec		 mov	 ebp, esp
  00003	8b c1		 mov	 eax, ecx
  00005	8b 4d 08	 mov	 ecx, DWORD PTR __Parg$[ebp]
  00008	89 08		 mov	 DWORD PTR [eax], ecx

; 46   : 		this->_Adopt(_Pvector);
; 47   : 		}

  0000a	5d		 pop	 ebp
  0000b	c2 08 00	 ret	 8
??0?$_Vector_const_iterator@V?$_Vector_val@V?$basic_string@DU?$char_traits@D@std@@V?$allocator@D@2@@std@@V?$allocator@V?$basic_string@DU?$char_traits@D@std@@V?$allocator@D@2@@std@@@2@@std@@@std@@QAE@PAV?$basic_string@DU?$char_traits@D@std@@V?$allocator@D@2@@1@PBU_Container_base0@1@@Z ENDP ; std::_Vector_const_iterator<std::_Vector_val<std::basic_string<char,std::char_traits<char>,std::allocator<char> >,std::allocator<std::basic_string<char,std::char_traits<char>,std::allocator<char> > > > >::_Vector_const_iterator<std::_Vector_val<std::basic_string<char,std::char_traits<char>,std::allocator<char> >,std::allocator<std::basic_string<char,std::char_traits<char>,std::allocator<char> > > > >
_TEXT	ENDS
PUBLIC	?max_size@?$allocator@V?$basic_string@DU?$char_traits@D@std@@V?$allocator@D@2@@std@@@std@@QBEIXZ ; std::allocator<std::basic_string<char,std::char_traits<char>,std::allocator<char> > >::max_size
; Function compile flags: /Ogsp
; File c:\program files (x86)\microsoft visual studio 10.0\vc\include\xmemory
;	COMDAT ?max_size@?$allocator@V?$basic_string@DU?$char_traits@D@std@@V?$allocator@D@2@@std@@@std@@QBEIXZ
_TEXT	SEGMENT
?max_size@?$allocator@V?$basic_string@DU?$char_traits@D@std@@V?$allocator@D@2@@std@@@std@@QBEIXZ PROC ; std::allocator<std::basic_string<char,std::char_traits<char>,std::allocator<char> > >::max_size, COMDAT
; _this$ = ecx

; 218  : 		_SIZT _Count = (_SIZT)(-1) / sizeof (_Ty);
; 219  : 		return (0 < _Count ? _Count : 1);

  00000	b8 49 92 24 09	 mov	 eax, 153391689		; 09249249H

; 220  : 		}

  00005	c3		 ret	 0
?max_size@?$allocator@V?$basic_string@DU?$char_traits@D@std@@V?$allocator@D@2@@std@@@std@@QBEIXZ ENDP ; std::allocator<std::basic_string<char,std::char_traits<char>,std::allocator<char> > >::max_size
_TEXT	ENDS
PUBLIC	?max_size@?$allocator@UAniEventInfo@@@std@@QBEIXZ ; std::allocator<AniEventInfo>::max_size
; Function compile flags: /Ogsp
;	COMDAT ?max_size@?$allocator@UAniEventInfo@@@std@@QBEIXZ
_TEXT	SEGMENT
?max_size@?$allocator@UAniEventInfo@@@std@@QBEIXZ PROC	; std::allocator<AniEventInfo>::max_size, COMDAT
; _this$ = ecx

; 218  : 		_SIZT _Count = (_SIZT)(-1) / sizeof (_Ty);
; 219  : 		return (0 < _Count ? _Count : 1);

  00000	b8 ff ff ff 07	 mov	 eax, 134217727		; 07ffffffH

; 220  : 		}

  00005	c3		 ret	 0
?max_size@?$allocator@UAniEventInfo@@@std@@QBEIXZ ENDP	; std::allocator<AniEventInfo>::max_size
_TEXT	ENDS
PUBLIC	?max_size@?$allocator@UtagAniSoundEventInfo@@@std@@QBEIXZ ; std::allocator<tagAniSoundEventInfo>::max_size
; Function compile flags: /Ogsp
;	COMDAT ?max_size@?$allocator@UtagAniSoundEventInfo@@@std@@QBEIXZ
_TEXT	SEGMENT
?max_size@?$allocator@UtagAniSoundEventInfo@@@std@@QBEIXZ PROC ; std::allocator<tagAniSoundEventInfo>::max_size, COMDAT
; _this$ = ecx

; 218  : 		_SIZT _Count = (_SIZT)(-1) / sizeof (_Ty);
; 219  : 		return (0 < _Count ? _Count : 1);

  00000	b8 c7 71 1c 07	 mov	 eax, 119304647		; 071c71c7H

; 220  : 		}

  00005	c3		 ret	 0
?max_size@?$allocator@UtagAniSoundEventInfo@@@std@@QBEIXZ ENDP ; std::allocator<tagAniSoundEventInfo>::max_size
_TEXT	ENDS
PUBLIC	?_Prevnode@?$_List_val@PBVioMeshControlPoint@@V?$allocator@PBVioMeshControlPoint@@@std@@@std@@SAAAPAU_Node@?$_List_nod@PBVioMeshControlPoint@@V?$allocator@PBVioMeshControlPoint@@@std@@@2@PAU342@@Z ; std::_List_val<ioMeshControlPoint const *,std::allocator<ioMeshControlPoint const *> >::_Prevnode
; Function compile flags: /Ogsp
; File c:\program files (x86)\microsoft visual studio 10.0\vc\include\list
;	COMDAT ?_Prevnode@?$_List_val@PBVioMeshControlPoint@@V?$allocator@PBVioMeshControlPoint@@@std@@@std@@SAAAPAU_Node@?$_List_nod@PBVioMeshControlPoint@@V?$allocator@PBVioMeshControlPoint@@@std@@@2@PAU342@@Z
_TEXT	SEGMENT
__Pnode$ = 8						; size = 4
?_Prevnode@?$_List_val@PBVioMeshControlPoint@@V?$allocator@PBVioMeshControlPoint@@@std@@@std@@SAAAPAU_Node@?$_List_nod@PBVioMeshControlPoint@@V?$allocator@PBVioMeshControlPoint@@@std@@@2@PAU342@@Z PROC ; std::_List_val<ioMeshControlPoint const *,std::allocator<ioMeshControlPoint const *> >::_Prevnode, COMDAT

; 565  : 		{	// return reference to predecessor pointer in node

  00000	55		 push	 ebp
  00001	8b ec		 mov	 ebp, esp

; 566  : 		return ((_Nodepref)(*_Pnode)._Prev);

  00003	8b 45 08	 mov	 eax, DWORD PTR __Pnode$[ebp]
  00006	83 c0 04	 add	 eax, 4

; 567  : 		}

  00009	5d		 pop	 ebp
  0000a	c3		 ret	 0
?_Prevnode@?$_List_val@PBVioMeshControlPoint@@V?$allocator@PBVioMeshControlPoint@@@std@@@std@@SAAAPAU_Node@?$_List_nod@PBVioMeshControlPoint@@V?$allocator@PBVioMeshControlPoint@@@std@@@2@PAU342@@Z ENDP ; std::_List_val<ioMeshControlPoint const *,std::allocator<ioMeshControlPoint const *> >::_Prevnode
_TEXT	ENDS
PUBLIC	??0?$_List_unchecked_const_iterator@V?$_List_val@PBVioMeshControlPoint@@V?$allocator@PBVioMeshControlPoint@@@std@@@std@@U_Iterator_base0@2@@std@@QAE@PAU_Node@?$_List_nod@PBVioMeshControlPoint@@V?$allocator@PBVioMeshControlPoint@@@std@@@1@PBV?$_List_val@PBVioMeshControlPoint@@V?$allocator@PBVioMeshControlPoint@@@std@@@1@@Z ; std::_List_unchecked_const_iterator<std::_List_val<ioMeshControlPoint const *,std::allocator<ioMeshControlPoint const *> >,std::_Iterator_base0>::_List_unchecked_const_iterator<std::_List_val<ioMeshControlPoint const *,std::allocator<ioMeshControlPoint const *> >,std::_Iterator_base0>
; Function compile flags: /Ogsp
;	COMDAT ??0?$_List_unchecked_const_iterator@V?$_List_val@PBVioMeshControlPoint@@V?$allocator@PBVioMeshControlPoint@@@std@@@std@@U_Iterator_base0@2@@std@@QAE@PAU_Node@?$_List_nod@PBVioMeshControlPoint@@V?$allocator@PBVioMeshControlPoint@@@std@@@1@PBV?$_List_val@PBVioMeshControlPoint@@V?$allocator@PBVioMeshControlPoint@@@std@@@1@@Z
_TEXT	SEGMENT
__Pnode$ = 8						; size = 4
__Plist$ = 12						; size = 4
??0?$_List_unchecked_const_iterator@V?$_List_val@PBVioMeshControlPoint@@V?$allocator@PBVioMeshControlPoint@@@std@@@std@@U_Iterator_base0@2@@std@@QAE@PAU_Node@?$_List_nod@PBVioMeshControlPoint@@V?$allocator@PBVioMeshControlPoint@@@std@@@1@PBV?$_List_val@PBVioMeshControlPoint@@V?$allocator@PBVioMeshControlPoint@@@std@@@1@@Z PROC ; std::_List_unchecked_const_iterator<std::_List_val<ioMeshControlPoint const *,std::allocator<ioMeshControlPoint const *> >,std::_Iterator_base0>::_List_unchecked_const_iterator<std::_List_val<ioMeshControlPoint const *,std::allocator<ioMeshControlPoint const *> >,std::_Iterator_base0>, COMDAT
; _this$ = ecx

; 41   : 		{	// construct with node pointer _Pnode

  00000	55		 push	 ebp
  00001	8b ec		 mov	 ebp, esp
  00003	8b c1		 mov	 eax, ecx
  00005	8b 4d 08	 mov	 ecx, DWORD PTR __Pnode$[ebp]
  00008	89 08		 mov	 DWORD PTR [eax], ecx

; 42   : 		this->_Adopt(_Plist);
; 43   : 		}

  0000a	5d		 pop	 ebp
  0000b	c2 08 00	 ret	 8
??0?$_List_unchecked_const_iterator@V?$_List_val@PBVioMeshControlPoint@@V?$allocator@PBVioMeshControlPoint@@@std@@@std@@U_Iterator_base0@2@@std@@QAE@PAU_Node@?$_List_nod@PBVioMeshControlPoint@@V?$allocator@PBVioMeshControlPoint@@@std@@@1@PBV?$_List_val@PBVioMeshControlPoint@@V?$allocator@PBVioMeshControlPoint@@@std@@@1@@Z ENDP ; std::_List_unchecked_const_iterator<std::_List_val<ioMeshControlPoint const *,std::allocator<ioMeshControlPoint const *> >,std::_Iterator_base0>::_List_unchecked_const_iterator<std::_List_val<ioMeshControlPoint const *,std::allocator<ioMeshControlPoint const *> >,std::_Iterator_base0>
_TEXT	ENDS
PUBLIC	??$addressof@$$CBUAniEventInfo@@@std@@YAPBUAniEventInfo@@ABU1@@Z ; std::addressof<AniEventInfo const >
; Function compile flags: /Ogsp
; File c:\program files (x86)\microsoft visual studio 10.0\vc\include\xmemory
;	COMDAT ??$addressof@$$CBUAniEventInfo@@@std@@YAPBUAniEventInfo@@ABU1@@Z
_TEXT	SEGMENT
__Val$ = 8						; size = 4
??$addressof@$$CBUAniEventInfo@@@std@@YAPBUAniEventInfo@@ABU1@@Z PROC ; std::addressof<AniEventInfo const >, COMDAT

; 110  : 	{	// return address of _Val

  00000	55		 push	 ebp
  00001	8b ec		 mov	 ebp, esp

; 111  : 	return ((_Ty *) &(char&)_Val);

  00003	8b 45 08	 mov	 eax, DWORD PTR __Val$[ebp]

; 112  : 	}

  00006	5d		 pop	 ebp
  00007	c3		 ret	 0
??$addressof@$$CBUAniEventInfo@@@std@@YAPBUAniEventInfo@@ABU1@@Z ENDP ; std::addressof<AniEventInfo const >
_TEXT	ENDS
PUBLIC	??$addressof@$$CBUtagAniSoundEventInfo@@@std@@YAPBUtagAniSoundEventInfo@@ABU1@@Z ; std::addressof<tagAniSoundEventInfo const >
; Function compile flags: /Ogsp
;	COMDAT ??$addressof@$$CBUtagAniSoundEventInfo@@@std@@YAPBUtagAniSoundEventInfo@@ABU1@@Z
_TEXT	SEGMENT
__Val$ = 8						; size = 4
??$addressof@$$CBUtagAniSoundEventInfo@@@std@@YAPBUtagAniSoundEventInfo@@ABU1@@Z PROC ; std::addressof<tagAniSoundEventInfo const >, COMDAT

; 110  : 	{	// return address of _Val

  00000	55		 push	 ebp
  00001	8b ec		 mov	 ebp, esp

; 111  : 	return ((_Ty *) &(char&)_Val);

  00003	8b 45 08	 mov	 eax, DWORD PTR __Val$[ebp]

; 112  : 	}

  00006	5d		 pop	 ebp
  00007	c3		 ret	 0
??$addressof@$$CBUtagAniSoundEventInfo@@@std@@YAPBUtagAniSoundEventInfo@@ABU1@@Z ENDP ; std::addressof<tagAniSoundEventInfo const >
_TEXT	ENDS
PUBLIC	__TI2?AVbad_alloc@std@@
PUBLIC	??$_Allocate@V?$basic_string@DU?$char_traits@D@std@@V?$allocator@D@2@@std@@@std@@YAPAV?$basic_string@DU?$char_traits@D@std@@V?$allocator@D@2@@0@IPAV10@@Z ; std::_Allocate<std::basic_string<char,std::char_traits<char>,std::allocator<char> > >
PUBLIC	__CTA2?AVbad_alloc@std@@
PUBLIC	__CT??_R0?AVbad_alloc@std@@@8??0bad_alloc@std@@QAE@ABV01@@Z12
PUBLIC	??0bad_alloc@std@@QAE@ABV01@@Z			; std::bad_alloc::bad_alloc
PUBLIC	__CT??_R0?AVexception@std@@@8??0exception@std@@QAE@ABV01@@Z12
EXTRN	??2@YAPAXI@Z:PROC				; operator new
EXTRN	__CxxThrowException@8:PROC
EXTRN	??0exception@std@@QAE@ABV01@@Z:PROC		; std::exception::exception
;	COMDAT __CT??_R0?AVexception@std@@@8??0exception@std@@QAE@ABV01@@Z12
; File c:\program files (x86)\microsoft visual studio 10.0\vc\include\exception
xdata$x	SEGMENT
__CT??_R0?AVexception@std@@@8??0exception@std@@QAE@ABV01@@Z12 DD 00H
	DD	FLAT:??_R0?AVexception@std@@@8
	DD	00H
	DD	0ffffffffH
	ORG $+4
	DD	0cH
	DD	FLAT:??0exception@std@@QAE@ABV01@@Z
xdata$x	ENDS
;	COMDAT __CT??_R0?AVbad_alloc@std@@@8??0bad_alloc@std@@QAE@ABV01@@Z12
xdata$x	SEGMENT
__CT??_R0?AVbad_alloc@std@@@8??0bad_alloc@std@@QAE@ABV01@@Z12 DD 00H
	DD	FLAT:??_R0?AVbad_alloc@std@@@8
	DD	00H
	DD	0ffffffffH
	ORG $+4
	DD	0cH
	DD	FLAT:??0bad_alloc@std@@QAE@ABV01@@Z
xdata$x	ENDS
;	COMDAT __CTA2?AVbad_alloc@std@@
xdata$x	SEGMENT
__CTA2?AVbad_alloc@std@@ DD 02H
	DD	FLAT:__CT??_R0?AVbad_alloc@std@@@8??0bad_alloc@std@@QAE@ABV01@@Z12
	DD	FLAT:__CT??_R0?AVexception@std@@@8??0exception@std@@QAE@ABV01@@Z12
xdata$x	ENDS
;	COMDAT __TI2?AVbad_alloc@std@@
xdata$x	SEGMENT
__TI2?AVbad_alloc@std@@ DD 00H
	DD	FLAT:??1bad_alloc@std@@UAE@XZ
	DD	00H
	DD	FLAT:__CTA2?AVbad_alloc@std@@
; Function compile flags: /Ogsp
; File c:\program files (x86)\microsoft visual studio 10.0\vc\include\xmemory
xdata$x	ENDS
;	COMDAT ??$_Allocate@V?$basic_string@DU?$char_traits@D@std@@V?$allocator@D@2@@std@@@std@@YAPAV?$basic_string@DU?$char_traits@D@std@@V?$allocator@D@2@@0@IPAV10@@Z
_TEXT	SEGMENT
$T531715 = -12						; size = 12
$T531720 = 8						; size = 4
__Count$ = 8						; size = 4
___formal$ = 12						; size = 4
??$_Allocate@V?$basic_string@DU?$char_traits@D@std@@V?$allocator@D@2@@std@@@std@@YAPAV?$basic_string@DU?$char_traits@D@std@@V?$allocator@D@2@@0@IPAV10@@Z PROC ; std::_Allocate<std::basic_string<char,std::char_traits<char>,std::allocator<char> > >, COMDAT

; 30   : 	{	// allocate storage for _Count elements of type _Ty

  00000	55		 push	 ebp
  00001	8b ec		 mov	 ebp, esp

; 31   : 	void *_Ptr = 0;
; 32   : 
; 33   : 	if (_Count <= 0)

  00003	8b 4d 08	 mov	 ecx, DWORD PTR __Count$[ebp]
  00006	83 ec 0c	 sub	 esp, 12			; 0000000cH
  00009	33 c0		 xor	 eax, eax
  0000b	85 c9		 test	 ecx, ecx

; 34   : 		_Count = 0;
; 35   : 	else if (((_SIZT)(-1) / sizeof (_Ty) < _Count)

  0000d	74 3c		 je	 SHORT $LN5@Allocate

; 36   : 		|| (_Ptr = ::operator new(_Count * sizeof (_Ty))) == 0)

  0000f	81 f9 49 92 24
	09		 cmp	 ecx, 153391689		; 09249249H
  00015	77 0e		 ja	 SHORT $LN1@Allocate
  00017	6b c9 1c	 imul	 ecx, 28			; 0000001cH
  0001a	51		 push	 ecx
  0001b	e8 00 00 00 00	 call	 ??2@YAPAXI@Z		; operator new
  00020	59		 pop	 ecx
  00021	85 c0		 test	 eax, eax

; 38   : 
; 39   : 	return ((_Ty _FARQ *)_Ptr);

  00023	75 26		 jne	 SHORT $LN5@Allocate
$LN1@Allocate:

; 37   : 		_THROW_NCEE(bad_alloc, 0);

  00025	83 65 08 00	 and	 DWORD PTR $T531720[ebp], 0
  00029	8d 45 08	 lea	 eax, DWORD PTR $T531720[ebp]
  0002c	50		 push	 eax
  0002d	8d 4d f4	 lea	 ecx, DWORD PTR $T531715[ebp]
  00030	ff 15 00 00 00
	00		 call	 DWORD PTR __imp_??0exception@std@@QAE@ABQBD@Z
  00036	68 00 00 00 00	 push	 OFFSET __TI2?AVbad_alloc@std@@
  0003b	8d 45 f4	 lea	 eax, DWORD PTR $T531715[ebp]
  0003e	50		 push	 eax
  0003f	c7 45 f4 00 00
	00 00		 mov	 DWORD PTR $T531715[ebp], OFFSET ??_7bad_alloc@std@@6B@
  00046	e8 00 00 00 00	 call	 __CxxThrowException@8
$LN10@Allocate:
$LN5@Allocate:

; 40   : 	}

  0004b	c9		 leave
  0004c	c3		 ret	 0
$LN9@Allocate:
??$_Allocate@V?$basic_string@DU?$char_traits@D@std@@V?$allocator@D@2@@std@@@std@@YAPAV?$basic_string@DU?$char_traits@D@std@@V?$allocator@D@2@@0@IPAV10@@Z ENDP ; std::_Allocate<std::basic_string<char,std::char_traits<char>,std::allocator<char> > >
_TEXT	ENDS
PUBLIC	??$_Allocate@UAniEventInfo@@@std@@YAPAUAniEventInfo@@IPAU1@@Z ; std::_Allocate<AniEventInfo>
; Function compile flags: /Ogsp
;	COMDAT ??$_Allocate@UAniEventInfo@@@std@@YAPAUAniEventInfo@@IPAU1@@Z
_TEXT	SEGMENT
$T531725 = -12						; size = 12
$T531729 = 8						; size = 4
__Count$ = 8						; size = 4
___formal$ = 12						; size = 4
??$_Allocate@UAniEventInfo@@@std@@YAPAUAniEventInfo@@IPAU1@@Z PROC ; std::_Allocate<AniEventInfo>, COMDAT

; 30   : 	{	// allocate storage for _Count elements of type _Ty

  00000	55		 push	 ebp
  00001	8b ec		 mov	 ebp, esp

; 31   : 	void *_Ptr = 0;
; 32   : 
; 33   : 	if (_Count <= 0)

  00003	8b 4d 08	 mov	 ecx, DWORD PTR __Count$[ebp]
  00006	83 ec 0c	 sub	 esp, 12			; 0000000cH
  00009	33 c0		 xor	 eax, eax
  0000b	85 c9		 test	 ecx, ecx

; 34   : 		_Count = 0;
; 35   : 	else if (((_SIZT)(-1) / sizeof (_Ty) < _Count)

  0000d	74 3c		 je	 SHORT $LN5@Allocate@2

; 36   : 		|| (_Ptr = ::operator new(_Count * sizeof (_Ty))) == 0)

  0000f	81 f9 ff ff ff
	07		 cmp	 ecx, 134217727		; 07ffffffH
  00015	77 0e		 ja	 SHORT $LN1@Allocate@2
  00017	c1 e1 05	 shl	 ecx, 5
  0001a	51		 push	 ecx
  0001b	e8 00 00 00 00	 call	 ??2@YAPAXI@Z		; operator new
  00020	59		 pop	 ecx
  00021	85 c0		 test	 eax, eax

; 38   : 
; 39   : 	return ((_Ty _FARQ *)_Ptr);

  00023	75 26		 jne	 SHORT $LN5@Allocate@2
$LN1@Allocate@2:

; 37   : 		_THROW_NCEE(bad_alloc, 0);

  00025	83 65 08 00	 and	 DWORD PTR $T531729[ebp], 0
  00029	8d 45 08	 lea	 eax, DWORD PTR $T531729[ebp]
  0002c	50		 push	 eax
  0002d	8d 4d f4	 lea	 ecx, DWORD PTR $T531725[ebp]
  00030	ff 15 00 00 00
	00		 call	 DWORD PTR __imp_??0exception@std@@QAE@ABQBD@Z
  00036	68 00 00 00 00	 push	 OFFSET __TI2?AVbad_alloc@std@@
  0003b	8d 45 f4	 lea	 eax, DWORD PTR $T531725[ebp]
  0003e	50		 push	 eax
  0003f	c7 45 f4 00 00
	00 00		 mov	 DWORD PTR $T531725[ebp], OFFSET ??_7bad_alloc@std@@6B@
  00046	e8 00 00 00 00	 call	 __CxxThrowException@8
$LN10@Allocate@2:
$LN5@Allocate@2:

; 40   : 	}

  0004b	c9		 leave
  0004c	c3		 ret	 0
$LN9@Allocate@2:
??$_Allocate@UAniEventInfo@@@std@@YAPAUAniEventInfo@@IPAU1@@Z ENDP ; std::_Allocate<AniEventInfo>
_TEXT	ENDS
PUBLIC	??$_Allocate@UtagAniSoundEventInfo@@@std@@YAPAUtagAniSoundEventInfo@@IPAU1@@Z ; std::_Allocate<tagAniSoundEventInfo>
; Function compile flags: /Ogsp
;	COMDAT ??$_Allocate@UtagAniSoundEventInfo@@@std@@YAPAUtagAniSoundEventInfo@@IPAU1@@Z
_TEXT	SEGMENT
$T531734 = -12						; size = 12
$T531738 = 8						; size = 4
__Count$ = 8						; size = 4
___formal$ = 12						; size = 4
??$_Allocate@UtagAniSoundEventInfo@@@std@@YAPAUtagAniSoundEventInfo@@IPAU1@@Z PROC ; std::_Allocate<tagAniSoundEventInfo>, COMDAT

; 30   : 	{	// allocate storage for _Count elements of type _Ty

  00000	55		 push	 ebp
  00001	8b ec		 mov	 ebp, esp

; 31   : 	void *_Ptr = 0;
; 32   : 
; 33   : 	if (_Count <= 0)

  00003	8b 4d 08	 mov	 ecx, DWORD PTR __Count$[ebp]
  00006	83 ec 0c	 sub	 esp, 12			; 0000000cH
  00009	33 c0		 xor	 eax, eax
  0000b	85 c9		 test	 ecx, ecx

; 34   : 		_Count = 0;
; 35   : 	else if (((_SIZT)(-1) / sizeof (_Ty) < _Count)

  0000d	74 3c		 je	 SHORT $LN5@Allocate@3

; 36   : 		|| (_Ptr = ::operator new(_Count * sizeof (_Ty))) == 0)

  0000f	81 f9 c7 71 1c
	07		 cmp	 ecx, 119304647		; 071c71c7H
  00015	77 0e		 ja	 SHORT $LN1@Allocate@3
  00017	6b c9 24	 imul	 ecx, 36			; 00000024H
  0001a	51		 push	 ecx
  0001b	e8 00 00 00 00	 call	 ??2@YAPAXI@Z		; operator new
  00020	59		 pop	 ecx
  00021	85 c0		 test	 eax, eax

; 38   : 
; 39   : 	return ((_Ty _FARQ *)_Ptr);

  00023	75 26		 jne	 SHORT $LN5@Allocate@3
$LN1@Allocate@3:

; 37   : 		_THROW_NCEE(bad_alloc, 0);

  00025	83 65 08 00	 and	 DWORD PTR $T531738[ebp], 0
  00029	8d 45 08	 lea	 eax, DWORD PTR $T531738[ebp]
  0002c	50		 push	 eax
  0002d	8d 4d f4	 lea	 ecx, DWORD PTR $T531734[ebp]
  00030	ff 15 00 00 00
	00		 call	 DWORD PTR __imp_??0exception@std@@QAE@ABQBD@Z
  00036	68 00 00 00 00	 push	 OFFSET __TI2?AVbad_alloc@std@@
  0003b	8d 45 f4	 lea	 eax, DWORD PTR $T531734[ebp]
  0003e	50		 push	 eax
  0003f	c7 45 f4 00 00
	00 00		 mov	 DWORD PTR $T531734[ebp], OFFSET ??_7bad_alloc@std@@6B@
  00046	e8 00 00 00 00	 call	 __CxxThrowException@8
$LN10@Allocate@3:
$LN5@Allocate@3:

; 40   : 	}

  0004b	c9		 leave
  0004c	c3		 ret	 0
$LN9@Allocate@3:
??$_Allocate@UtagAniSoundEventInfo@@@std@@YAPAUtagAniSoundEventInfo@@IPAU1@@Z ENDP ; std::_Allocate<tagAniSoundEventInfo>
_TEXT	ENDS
PUBLIC	??$forward@AAUAniEventInfo@@@std@@YAAAUAniEventInfo@@AAU1@@Z ; std::forward<AniEventInfo &>
; Function compile flags: /Ogsp
; File c:\program files (x86)\microsoft visual studio 10.0\vc\include\utility
;	COMDAT ??$forward@AAUAniEventInfo@@@std@@YAAAUAniEventInfo@@AAU1@@Z
_TEXT	SEGMENT
__Arg$ = 8						; size = 4
??$forward@AAUAniEventInfo@@@std@@YAAAUAniEventInfo@@AAU1@@Z PROC ; std::forward<AniEventInfo &>, COMDAT

; 78   : 	{	// forward _Arg, given explicitly specified type parameter

  00000	55		 push	 ebp
  00001	8b ec		 mov	 ebp, esp

; 79   : 	return ((_Ty&&)_Arg);

  00003	8b 45 08	 mov	 eax, DWORD PTR __Arg$[ebp]

; 80   : 	}

  00006	5d		 pop	 ebp
  00007	c3		 ret	 0
??$forward@AAUAniEventInfo@@@std@@YAAAUAniEventInfo@@AAU1@@Z ENDP ; std::forward<AniEventInfo &>
_TEXT	ENDS
PUBLIC	??$construct@AAUAniEventInfo@@@?$allocator@UAniEventInfo@@@std@@QAEXPAUAniEventInfo@@AAU2@@Z ; std::allocator<AniEventInfo>::construct<AniEventInfo &>
;	COMDAT xdata$x
xdata$x	SEGMENT
__unwindtable$??$construct@AAUAniEventInfo@@@?$allocator@UAniEventInfo@@@std@@QAEXPAUAniEventInfo@@AAU2@@Z DD 0ffffffffH
	DD	FLAT:__unwindfunclet$??$construct@AAUAniEventInfo@@@?$allocator@UAniEventInfo@@@std@@QAEXPAUAniEventInfo@@AAU2@@Z$0
__ehfuncinfo$??$construct@AAUAniEventInfo@@@?$allocator@UAniEventInfo@@@std@@QAEXPAUAniEventInfo@@AAU2@@Z DD 019930522H
	DD	01H
	DD	FLAT:__unwindtable$??$construct@AAUAniEventInfo@@@?$allocator@UAniEventInfo@@@std@@QAEXPAUAniEventInfo@@AAU2@@Z
	DD	2 DUP(00H)
	DD	2 DUP(00H)
	DD	00H
	DD	01H
; Function compile flags: /Ogsp
; File c:\program files (x86)\microsoft visual studio 10.0\vc\include\xmemory
xdata$x	ENDS
;	COMDAT ??$construct@AAUAniEventInfo@@@?$allocator@UAniEventInfo@@@std@@QAEXPAUAniEventInfo@@AAU2@@Z
_TEXT	SEGMENT
$T531746 = -16						; size = 4
__$EHRec$ = -12						; size = 12
__Ptr$ = 8						; size = 4
__Val$ = 12						; size = 4
??$construct@AAUAniEventInfo@@@?$allocator@UAniEventInfo@@@std@@QAEXPAUAniEventInfo@@AAU2@@Z PROC ; std::allocator<AniEventInfo>::construct<AniEventInfo &>, COMDAT
; _this$ = ecx

; 206  : 		void construct(pointer _Ptr, _Other&& _Val)

  00000	6a 04		 push	 4
  00002	b8 00 00 00 00	 mov	 eax, __ehhandler$??$construct@AAUAniEventInfo@@@?$allocator@UAniEventInfo@@@std@@QAEXPAUAniEventInfo@@AAU2@@Z
  00007	e8 00 00 00 00	 call	 __EH_prolog3

; 207  : 		{	// construct object at _Ptr with value _Val
; 208  : 		::new ((void _FARQ *)_Ptr) _Ty(_STD forward<_Other>(_Val));

  0000c	8b 4d 08	 mov	 ecx, DWORD PTR __Ptr$[ebp]
  0000f	89 4d f0	 mov	 DWORD PTR $T531746[ebp], ecx
  00012	83 65 fc 00	 and	 DWORD PTR __$EHRec$[ebp+8], 0
  00016	85 c9		 test	 ecx, ecx
  00018	74 08		 je	 SHORT $LN3@construct
  0001a	ff 75 0c	 push	 DWORD PTR __Val$[ebp]
  0001d	e8 00 00 00 00	 call	 ??0AniEventInfo@@QAE@ABU0@@Z
$LN3@construct:

; 209  : 		}

  00022	e8 00 00 00 00	 call	 __EH_epilog3
  00027	c2 08 00	 ret	 8
_TEXT	ENDS
;	COMDAT text$x
text$x	SEGMENT
__unwindfunclet$??$construct@AAUAniEventInfo@@@?$allocator@UAniEventInfo@@@std@@QAEXPAUAniEventInfo@@AAU2@@Z$0:
  00000	ff 75 08	 push	 DWORD PTR __Ptr$[ebp]
  00003	ff 75 f0	 push	 DWORD PTR $T531746[ebp]
  00006	e8 00 00 00 00	 call	 ??3@YAXPAX0@Z		; operator delete
  0000b	59		 pop	 ecx
  0000c	59		 pop	 ecx
  0000d	c3		 ret	 0
__ehhandler$??$construct@AAUAniEventInfo@@@?$allocator@UAniEventInfo@@@std@@QAEXPAUAniEventInfo@@AAU2@@Z:
  0000e	8b 54 24 08	 mov	 edx, DWORD PTR [esp+8]
  00012	8d 42 0c	 lea	 eax, DWORD PTR [edx+12]
  00015	8b 4a ec	 mov	 ecx, DWORD PTR [edx-20]
  00018	33 c8		 xor	 ecx, eax
  0001a	e8 00 00 00 00	 call	 @__security_check_cookie@4
  0001f	b8 00 00 00 00	 mov	 eax, OFFSET __ehfuncinfo$??$construct@AAUAniEventInfo@@@?$allocator@UAniEventInfo@@@std@@QAEXPAUAniEventInfo@@AAU2@@Z
  00024	e9 00 00 00 00	 jmp	 ___CxxFrameHandler3
text$x	ENDS
??$construct@AAUAniEventInfo@@@?$allocator@UAniEventInfo@@@std@@QAEXPAUAniEventInfo@@AAU2@@Z ENDP ; std::allocator<AniEventInfo>::construct<AniEventInfo &>
PUBLIC	??$forward@ABUAniEventInfo@@@std@@YAABUAniEventInfo@@ABU1@@Z ; std::forward<AniEventInfo const &>
; Function compile flags: /Ogsp
; File c:\program files (x86)\microsoft visual studio 10.0\vc\include\utility
;	COMDAT ??$forward@ABUAniEventInfo@@@std@@YAABUAniEventInfo@@ABU1@@Z
_TEXT	SEGMENT
__Arg$ = 8						; size = 4
??$forward@ABUAniEventInfo@@@std@@YAABUAniEventInfo@@ABU1@@Z PROC ; std::forward<AniEventInfo const &>, COMDAT

; 78   : 	{	// forward _Arg, given explicitly specified type parameter

  00000	55		 push	 ebp
  00001	8b ec		 mov	 ebp, esp

; 79   : 	return ((_Ty&&)_Arg);

  00003	8b 45 08	 mov	 eax, DWORD PTR __Arg$[ebp]

; 80   : 	}

  00006	5d		 pop	 ebp
  00007	c3		 ret	 0
??$forward@ABUAniEventInfo@@@std@@YAABUAniEventInfo@@ABU1@@Z ENDP ; std::forward<AniEventInfo const &>
_TEXT	ENDS
PUBLIC	??$_Ptr_cat@UAniEventInfo@@U1@@std@@YA?AU_Nonscalar_ptr_iterator_tag@0@PAUAniEventInfo@@0@Z ; std::_Ptr_cat<AniEventInfo,AniEventInfo>
; Function compile flags: /Ogsp
; File c:\program files (x86)\microsoft visual studio 10.0\vc\include\xutility
;	COMDAT ??$_Ptr_cat@UAniEventInfo@@U1@@std@@YA?AU_Nonscalar_ptr_iterator_tag@0@PAUAniEventInfo@@0@Z
_TEXT	SEGMENT
__Cat$ = -1						; size = 1
___formal$ = 8						; size = 4
___formal$ = 12						; size = 4
??$_Ptr_cat@UAniEventInfo@@U1@@std@@YA?AU_Nonscalar_ptr_iterator_tag@0@PAUAniEventInfo@@0@Z PROC ; std::_Ptr_cat<AniEventInfo,AniEventInfo>, COMDAT

; 516  : 	{	// return pointer category from pointers

  00000	55		 push	 ebp
  00001	8b ec		 mov	 ebp, esp
  00003	51		 push	 ecx

; 517  : 	typename _Ptr_cat_helper<_Elem1, _Elem2>::_Type _Cat;
; 518  : 	return (_Cat);

  00004	8a 45 ff	 mov	 al, BYTE PTR __Cat$[ebp]

; 519  : 	}

  00007	c9		 leave
  00008	c3		 ret	 0
??$_Ptr_cat@UAniEventInfo@@U1@@std@@YA?AU_Nonscalar_ptr_iterator_tag@0@PAUAniEventInfo@@0@Z ENDP ; std::_Ptr_cat<AniEventInfo,AniEventInfo>
_TEXT	ENDS
PUBLIC	??$forward@AAUtagAniSoundEventInfo@@@std@@YAAAUtagAniSoundEventInfo@@AAU1@@Z ; std::forward<tagAniSoundEventInfo &>
; Function compile flags: /Ogsp
; File c:\program files (x86)\microsoft visual studio 10.0\vc\include\utility
;	COMDAT ??$forward@AAUtagAniSoundEventInfo@@@std@@YAAAUtagAniSoundEventInfo@@AAU1@@Z
_TEXT	SEGMENT
__Arg$ = 8						; size = 4
??$forward@AAUtagAniSoundEventInfo@@@std@@YAAAUtagAniSoundEventInfo@@AAU1@@Z PROC ; std::forward<tagAniSoundEventInfo &>, COMDAT

; 78   : 	{	// forward _Arg, given explicitly specified type parameter

  00000	55		 push	 ebp
  00001	8b ec		 mov	 ebp, esp

; 79   : 	return ((_Ty&&)_Arg);

  00003	8b 45 08	 mov	 eax, DWORD PTR __Arg$[ebp]

; 80   : 	}

  00006	5d		 pop	 ebp
  00007	c3		 ret	 0
??$forward@AAUtagAniSoundEventInfo@@@std@@YAAAUtagAniSoundEventInfo@@AAU1@@Z ENDP ; std::forward<tagAniSoundEventInfo &>
_TEXT	ENDS
PUBLIC	??$construct@AAUtagAniSoundEventInfo@@@?$allocator@UtagAniSoundEventInfo@@@std@@QAEXPAUtagAniSoundEventInfo@@AAU2@@Z ; std::allocator<tagAniSoundEventInfo>::construct<tagAniSoundEventInfo &>
;	COMDAT xdata$x
xdata$x	SEGMENT
__unwindtable$??$construct@AAUtagAniSoundEventInfo@@@?$allocator@UtagAniSoundEventInfo@@@std@@QAEXPAUtagAniSoundEventInfo@@AAU2@@Z DD 0ffffffffH
	DD	FLAT:__unwindfunclet$??$construct@AAUtagAniSoundEventInfo@@@?$allocator@UtagAniSoundEventInfo@@@std@@QAEXPAUtagAniSoundEventInfo@@AAU2@@Z$0
__ehfuncinfo$??$construct@AAUtagAniSoundEventInfo@@@?$allocator@UtagAniSoundEventInfo@@@std@@QAEXPAUtagAniSoundEventInfo@@AAU2@@Z DD 019930522H
	DD	01H
	DD	FLAT:__unwindtable$??$construct@AAUtagAniSoundEventInfo@@@?$allocator@UtagAniSoundEventInfo@@@std@@QAEXPAUtagAniSoundEventInfo@@AAU2@@Z
	DD	2 DUP(00H)
	DD	2 DUP(00H)
	DD	00H
	DD	01H
; Function compile flags: /Ogsp
; File c:\program files (x86)\microsoft visual studio 10.0\vc\include\xmemory
xdata$x	ENDS
;	COMDAT ??$construct@AAUtagAniSoundEventInfo@@@?$allocator@UtagAniSoundEventInfo@@@std@@QAEXPAUtagAniSoundEventInfo@@AAU2@@Z
_TEXT	SEGMENT
$T531771 = -16						; size = 4
__$EHRec$ = -12						; size = 12
__Ptr$ = 8						; size = 4
__Val$ = 12						; size = 4
??$construct@AAUtagAniSoundEventInfo@@@?$allocator@UtagAniSoundEventInfo@@@std@@QAEXPAUtagAniSoundEventInfo@@AAU2@@Z PROC ; std::allocator<tagAniSoundEventInfo>::construct<tagAniSoundEventInfo &>, COMDAT
; _this$ = ecx

; 206  : 		void construct(pointer _Ptr, _Other&& _Val)

  00000	6a 04		 push	 4
  00002	b8 00 00 00 00	 mov	 eax, __ehhandler$??$construct@AAUtagAniSoundEventInfo@@@?$allocator@UtagAniSoundEventInfo@@@std@@QAEXPAUtagAniSoundEventInfo@@AAU2@@Z
  00007	e8 00 00 00 00	 call	 __EH_prolog3

; 207  : 		{	// construct object at _Ptr with value _Val
; 208  : 		::new ((void _FARQ *)_Ptr) _Ty(_STD forward<_Other>(_Val));

  0000c	8b 4d 08	 mov	 ecx, DWORD PTR __Ptr$[ebp]
  0000f	89 4d f0	 mov	 DWORD PTR $T531771[ebp], ecx
  00012	83 65 fc 00	 and	 DWORD PTR __$EHRec$[ebp+8], 0
  00016	85 c9		 test	 ecx, ecx
  00018	74 08		 je	 SHORT $LN3@construct@2
  0001a	ff 75 0c	 push	 DWORD PTR __Val$[ebp]
  0001d	e8 00 00 00 00	 call	 ??0tagAniSoundEventInfo@@QAE@ABU0@@Z
$LN3@construct@2:

; 209  : 		}

  00022	e8 00 00 00 00	 call	 __EH_epilog3
  00027	c2 08 00	 ret	 8
_TEXT	ENDS
;	COMDAT text$x
text$x	SEGMENT
__unwindfunclet$??$construct@AAUtagAniSoundEventInfo@@@?$allocator@UtagAniSoundEventInfo@@@std@@QAEXPAUtagAniSoundEventInfo@@AAU2@@Z$0:
  00000	ff 75 08	 push	 DWORD PTR __Ptr$[ebp]
  00003	ff 75 f0	 push	 DWORD PTR $T531771[ebp]
  00006	e8 00 00 00 00	 call	 ??3@YAXPAX0@Z		; operator delete
  0000b	59		 pop	 ecx
  0000c	59		 pop	 ecx
  0000d	c3		 ret	 0
__ehhandler$??$construct@AAUtagAniSoundEventInfo@@@?$allocator@UtagAniSoundEventInfo@@@std@@QAEXPAUtagAniSoundEventInfo@@AAU2@@Z:
  0000e	8b 54 24 08	 mov	 edx, DWORD PTR [esp+8]
  00012	8d 42 0c	 lea	 eax, DWORD PTR [edx+12]
  00015	8b 4a ec	 mov	 ecx, DWORD PTR [edx-20]
  00018	33 c8		 xor	 ecx, eax
  0001a	e8 00 00 00 00	 call	 @__security_check_cookie@4
  0001f	b8 00 00 00 00	 mov	 eax, OFFSET __ehfuncinfo$??$construct@AAUtagAniSoundEventInfo@@@?$allocator@UtagAniSoundEventInfo@@@std@@QAEXPAUtagAniSoundEventInfo@@AAU2@@Z
  00024	e9 00 00 00 00	 jmp	 ___CxxFrameHandler3
text$x	ENDS
??$construct@AAUtagAniSoundEventInfo@@@?$allocator@UtagAniSoundEventInfo@@@std@@QAEXPAUtagAniSoundEventInfo@@AAU2@@Z ENDP ; std::allocator<tagAniSoundEventInfo>::construct<tagAniSoundEventInfo &>
PUBLIC	??$forward@ABUtagAniSoundEventInfo@@@std@@YAABUtagAniSoundEventInfo@@ABU1@@Z ; std::forward<tagAniSoundEventInfo const &>
; Function compile flags: /Ogsp
; File c:\program files (x86)\microsoft visual studio 10.0\vc\include\utility
;	COMDAT ??$forward@ABUtagAniSoundEventInfo@@@std@@YAABUtagAniSoundEventInfo@@ABU1@@Z
_TEXT	SEGMENT
__Arg$ = 8						; size = 4
??$forward@ABUtagAniSoundEventInfo@@@std@@YAABUtagAniSoundEventInfo@@ABU1@@Z PROC ; std::forward<tagAniSoundEventInfo const &>, COMDAT

; 78   : 	{	// forward _Arg, given explicitly specified type parameter

  00000	55		 push	 ebp
  00001	8b ec		 mov	 ebp, esp

; 79   : 	return ((_Ty&&)_Arg);

  00003	8b 45 08	 mov	 eax, DWORD PTR __Arg$[ebp]

; 80   : 	}

  00006	5d		 pop	 ebp
  00007	c3		 ret	 0
??$forward@ABUtagAniSoundEventInfo@@@std@@YAABUtagAniSoundEventInfo@@ABU1@@Z ENDP ; std::forward<tagAniSoundEventInfo const &>
_TEXT	ENDS
PUBLIC	??$_Ptr_cat@UtagAniSoundEventInfo@@U1@@std@@YA?AU_Nonscalar_ptr_iterator_tag@0@PAUtagAniSoundEventInfo@@0@Z ; std::_Ptr_cat<tagAniSoundEventInfo,tagAniSoundEventInfo>
; Function compile flags: /Ogsp
; File c:\program files (x86)\microsoft visual studio 10.0\vc\include\xutility
;	COMDAT ??$_Ptr_cat@UtagAniSoundEventInfo@@U1@@std@@YA?AU_Nonscalar_ptr_iterator_tag@0@PAUtagAniSoundEventInfo@@0@Z
_TEXT	SEGMENT
__Cat$ = -1						; size = 1
___formal$ = 8						; size = 4
___formal$ = 12						; size = 4
??$_Ptr_cat@UtagAniSoundEventInfo@@U1@@std@@YA?AU_Nonscalar_ptr_iterator_tag@0@PAUtagAniSoundEventInfo@@0@Z PROC ; std::_Ptr_cat<tagAniSoundEventInfo,tagAniSoundEventInfo>, COMDAT

; 516  : 	{	// return pointer category from pointers

  00000	55		 push	 ebp
  00001	8b ec		 mov	 ebp, esp
  00003	51		 push	 ecx

; 517  : 	typename _Ptr_cat_helper<_Elem1, _Elem2>::_Type _Cat;
; 518  : 	return (_Cat);

  00004	8a 45 ff	 mov	 al, BYTE PTR __Cat$[ebp]

; 519  : 	}

  00007	c9		 leave
  00008	c3		 ret	 0
??$_Ptr_cat@UtagAniSoundEventInfo@@U1@@std@@YA?AU_Nonscalar_ptr_iterator_tag@0@PAUtagAniSoundEventInfo@@0@Z ENDP ; std::_Ptr_cat<tagAniSoundEventInfo,tagAniSoundEventInfo>
_TEXT	ENDS
PUBLIC	??$_Construct@UAniEventInfo@@ABU1@@std@@YAXPAUAniEventInfo@@ABU1@@Z ; std::_Construct<AniEventInfo,AniEventInfo const &>
;	COMDAT xdata$x
; File c:\program files (x86)\microsoft visual studio 10.0\vc\include\utility
xdata$x	SEGMENT
__unwindtable$??$_Construct@UAniEventInfo@@ABU1@@std@@YAXPAUAniEventInfo@@ABU1@@Z DD 0ffffffffH
	DD	FLAT:__unwindfunclet$??$_Construct@UAniEventInfo@@ABU1@@std@@YAXPAUAniEventInfo@@ABU1@@Z$0
__ehfuncinfo$??$_Construct@UAniEventInfo@@ABU1@@std@@YAXPAUAniEventInfo@@ABU1@@Z DD 019930522H
	DD	01H
	DD	FLAT:__unwindtable$??$_Construct@UAniEventInfo@@ABU1@@std@@YAXPAUAniEventInfo@@ABU1@@Z
	DD	2 DUP(00H)
	DD	2 DUP(00H)
	DD	00H
	DD	01H
; Function compile flags: /Ogsp
; File c:\program files (x86)\microsoft visual studio 10.0\vc\include\xmemory
xdata$x	ENDS
;	COMDAT ??$_Construct@UAniEventInfo@@ABU1@@std@@YAXPAUAniEventInfo@@ABU1@@Z
_TEXT	SEGMENT
$T531794 = -16						; size = 4
__$EHRec$ = -12						; size = 12
__Vptr$ = 8						; size = 4
__Ptr$ = 8						; size = 4
__Val$ = 12						; size = 4
??$_Construct@UAniEventInfo@@ABU1@@std@@YAXPAUAniEventInfo@@ABU1@@Z PROC ; std::_Construct<AniEventInfo,AniEventInfo const &>, COMDAT

; 46   : 	{	// construct object at _Ptr with value _Val

  00000	6a 04		 push	 4
  00002	b8 00 00 00 00	 mov	 eax, __ehhandler$??$_Construct@UAniEventInfo@@ABU1@@std@@YAXPAUAniEventInfo@@ABU1@@Z
  00007	e8 00 00 00 00	 call	 __EH_prolog3

; 47   : 	void _FARQ *_Vptr = _Ptr;

  0000c	8b 4d 08	 mov	 ecx, DWORD PTR __Ptr$[ebp]
  0000f	89 4d 08	 mov	 DWORD PTR __Vptr$[ebp], ecx

; 48   : 	::new (_Vptr) _Ty1(_STD forward<_Ty2>(_Val));

  00012	89 4d f0	 mov	 DWORD PTR $T531794[ebp], ecx
  00015	83 65 fc 00	 and	 DWORD PTR __$EHRec$[ebp+8], 0
  00019	85 c9		 test	 ecx, ecx
  0001b	74 08		 je	 SHORT $LN3@Construct
  0001d	ff 75 0c	 push	 DWORD PTR __Val$[ebp]
  00020	e8 00 00 00 00	 call	 ??0AniEventInfo@@QAE@ABU0@@Z
$LN3@Construct:

; 49   : 	}

  00025	e8 00 00 00 00	 call	 __EH_epilog3
  0002a	c3		 ret	 0
_TEXT	ENDS
;	COMDAT text$x
text$x	SEGMENT
__unwindfunclet$??$_Construct@UAniEventInfo@@ABU1@@std@@YAXPAUAniEventInfo@@ABU1@@Z$0:
  00000	ff 75 08	 push	 DWORD PTR __Vptr$[ebp]
  00003	ff 75 f0	 push	 DWORD PTR $T531794[ebp]
  00006	e8 00 00 00 00	 call	 ??3@YAXPAX0@Z		; operator delete
  0000b	59		 pop	 ecx
  0000c	59		 pop	 ecx
  0000d	c3		 ret	 0
__ehhandler$??$_Construct@UAniEventInfo@@ABU1@@std@@YAXPAUAniEventInfo@@ABU1@@Z:
  0000e	8b 54 24 08	 mov	 edx, DWORD PTR [esp+8]
  00012	8d 42 0c	 lea	 eax, DWORD PTR [edx+12]
  00015	8b 4a ec	 mov	 ecx, DWORD PTR [edx-20]
  00018	33 c8		 xor	 ecx, eax
  0001a	e8 00 00 00 00	 call	 @__security_check_cookie@4
  0001f	b8 00 00 00 00	 mov	 eax, OFFSET __ehfuncinfo$??$_Construct@UAniEventInfo@@ABU1@@std@@YAXPAUAniEventInfo@@ABU1@@Z
  00024	e9 00 00 00 00	 jmp	 ___CxxFrameHandler3
text$x	ENDS
??$_Construct@UAniEventInfo@@ABU1@@std@@YAXPAUAniEventInfo@@ABU1@@Z ENDP ; std::_Construct<AniEventInfo,AniEventInfo const &>
PUBLIC	??$_Construct@UtagAniSoundEventInfo@@ABU1@@std@@YAXPAUtagAniSoundEventInfo@@ABU1@@Z ; std::_Construct<tagAniSoundEventInfo,tagAniSoundEventInfo const &>
;	COMDAT xdata$x
; File c:\program files (x86)\microsoft visual studio 10.0\vc\include\utility
xdata$x	SEGMENT
__unwindtable$??$_Construct@UtagAniSoundEventInfo@@ABU1@@std@@YAXPAUtagAniSoundEventInfo@@ABU1@@Z DD 0ffffffffH
	DD	FLAT:__unwindfunclet$??$_Construct@UtagAniSoundEventInfo@@ABU1@@std@@YAXPAUtagAniSoundEventInfo@@ABU1@@Z$0
__ehfuncinfo$??$_Construct@UtagAniSoundEventInfo@@ABU1@@std@@YAXPAUtagAniSoundEventInfo@@ABU1@@Z DD 019930522H
	DD	01H
	DD	FLAT:__unwindtable$??$_Construct@UtagAniSoundEventInfo@@ABU1@@std@@YAXPAUtagAniSoundEventInfo@@ABU1@@Z
	DD	2 DUP(00H)
	DD	2 DUP(00H)
	DD	00H
	DD	01H
; Function compile flags: /Ogsp
; File c:\program files (x86)\microsoft visual studio 10.0\vc\include\xmemory
xdata$x	ENDS
;	COMDAT ??$_Construct@UtagAniSoundEventInfo@@ABU1@@std@@YAXPAUtagAniSoundEventInfo@@ABU1@@Z
_TEXT	SEGMENT
$T531813 = -16						; size = 4
__$EHRec$ = -12						; size = 12
__Vptr$ = 8						; size = 4
__Ptr$ = 8						; size = 4
__Val$ = 12						; size = 4
??$_Construct@UtagAniSoundEventInfo@@ABU1@@std@@YAXPAUtagAniSoundEventInfo@@ABU1@@Z PROC ; std::_Construct<tagAniSoundEventInfo,tagAniSoundEventInfo const &>, COMDAT

; 46   : 	{	// construct object at _Ptr with value _Val

  00000	6a 04		 push	 4
  00002	b8 00 00 00 00	 mov	 eax, __ehhandler$??$_Construct@UtagAniSoundEventInfo@@ABU1@@std@@YAXPAUtagAniSoundEventInfo@@ABU1@@Z
  00007	e8 00 00 00 00	 call	 __EH_prolog3

; 47   : 	void _FARQ *_Vptr = _Ptr;

  0000c	8b 4d 08	 mov	 ecx, DWORD PTR __Ptr$[ebp]
  0000f	89 4d 08	 mov	 DWORD PTR __Vptr$[ebp], ecx

; 48   : 	::new (_Vptr) _Ty1(_STD forward<_Ty2>(_Val));

  00012	89 4d f0	 mov	 DWORD PTR $T531813[ebp], ecx
  00015	83 65 fc 00	 and	 DWORD PTR __$EHRec$[ebp+8], 0
  00019	85 c9		 test	 ecx, ecx
  0001b	74 08		 je	 SHORT $LN3@Construct@2
  0001d	ff 75 0c	 push	 DWORD PTR __Val$[ebp]
  00020	e8 00 00 00 00	 call	 ??0tagAniSoundEventInfo@@QAE@ABU0@@Z
$LN3@Construct@2:

; 49   : 	}

  00025	e8 00 00 00 00	 call	 __EH_epilog3
  0002a	c3		 ret	 0
_TEXT	ENDS
;	COMDAT text$x
text$x	SEGMENT
__unwindfunclet$??$_Construct@UtagAniSoundEventInfo@@ABU1@@std@@YAXPAUtagAniSoundEventInfo@@ABU1@@Z$0:
  00000	ff 75 08	 push	 DWORD PTR __Vptr$[ebp]
  00003	ff 75 f0	 push	 DWORD PTR $T531813[ebp]
  00006	e8 00 00 00 00	 call	 ??3@YAXPAX0@Z		; operator delete
  0000b	59		 pop	 ecx
  0000c	59		 pop	 ecx
  0000d	c3		 ret	 0
__ehhandler$??$_Construct@UtagAniSoundEventInfo@@ABU1@@std@@YAXPAUtagAniSoundEventInfo@@ABU1@@Z:
  0000e	8b 54 24 08	 mov	 edx, DWORD PTR [esp+8]
  00012	8d 42 0c	 lea	 eax, DWORD PTR [edx+12]
  00015	8b 4a ec	 mov	 ecx, DWORD PTR [edx-20]
  00018	33 c8		 xor	 ecx, eax
  0001a	e8 00 00 00 00	 call	 @__security_check_cookie@4
  0001f	b8 00 00 00 00	 mov	 eax, OFFSET __ehfuncinfo$??$_Construct@UtagAniSoundEventInfo@@ABU1@@std@@YAXPAUtagAniSoundEventInfo@@ABU1@@Z
  00024	e9 00 00 00 00	 jmp	 ___CxxFrameHandler3
text$x	ENDS
??$_Construct@UtagAniSoundEventInfo@@ABU1@@std@@YAXPAUtagAniSoundEventInfo@@ABU1@@Z ENDP ; std::_Construct<tagAniSoundEventInfo,tagAniSoundEventInfo const &>
PUBLIC	??$_Destroy@U_Node@?$_List_nod@PBVioMeshControlPoint@@V?$allocator@PBVioMeshControlPoint@@@std@@@std@@@std@@YAXPAU_Node@?$_List_nod@PBVioMeshControlPoint@@V?$allocator@PBVioMeshControlPoint@@@std@@@0@@Z ; std::_Destroy<std::_List_nod<ioMeshControlPoint const *,std::allocator<ioMeshControlPoint const *> >::_Node>
; Function compile flags: /Ogsp
;	COMDAT ??$_Destroy@U_Node@?$_List_nod@PBVioMeshControlPoint@@V?$allocator@PBVioMeshControlPoint@@@std@@@std@@@std@@YAXPAU_Node@?$_List_nod@PBVioMeshControlPoint@@V?$allocator@PBVioMeshControlPoint@@@std@@@0@@Z
_TEXT	SEGMENT
__Ptr$ = 8						; size = 4
??$_Destroy@U_Node@?$_List_nod@PBVioMeshControlPoint@@V?$allocator@PBVioMeshControlPoint@@@std@@@std@@@std@@YAXPAU_Node@?$_List_nod@PBVioMeshControlPoint@@V?$allocator@PBVioMeshControlPoint@@@std@@@0@@Z PROC ; std::_Destroy<std::_List_nod<ioMeshControlPoint const *,std::allocator<ioMeshControlPoint const *> >::_Node>, COMDAT

; 63   : 	_Ptr->~_Ty();
; 64   : 	}

  00000	c3		 ret	 0
??$_Destroy@U_Node@?$_List_nod@PBVioMeshControlPoint@@V?$allocator@PBVioMeshControlPoint@@@std@@@std@@@std@@YAXPAU_Node@?$_List_nod@PBVioMeshControlPoint@@V?$allocator@PBVioMeshControlPoint@@@std@@@0@@Z ENDP ; std::_Destroy<std::_List_nod<ioMeshControlPoint const *,std::allocator<ioMeshControlPoint const *> >::_Node>
_TEXT	ENDS
PUBLIC	??4AniEventInfo@@QAEAAU0@ABU0@@Z		; AniEventInfo::operator=
EXTRN	__imp_??4ioHashString@@QAEAAV0@ABV0@@Z:PROC
; Function compile flags: /Ogsp
;	COMDAT ??4AniEventInfo@@QAEAAU0@ABU0@@Z
_TEXT	SEGMENT
___that$ = 8						; size = 4
??4AniEventInfo@@QAEAAU0@ABU0@@Z PROC			; AniEventInfo::operator=, COMDAT
; _this$ = ecx
  00000	55		 push	 ebp
  00001	8b ec		 mov	 ebp, esp
  00003	53		 push	 ebx
  00004	8b 5d 08	 mov	 ebx, DWORD PTR ___that$[ebp]
  00007	56		 push	 esi
  00008	8b 35 00 00 00
	00		 mov	 esi, DWORD PTR __imp_??4ioHashString@@QAEAAV0@ABV0@@Z
  0000e	57		 push	 edi
  0000f	53		 push	 ebx
  00010	8b f9		 mov	 edi, ecx
  00012	ff d6		 call	 esi
  00014	83 c3 10	 add	 ebx, 16			; 00000010H
  00017	53		 push	 ebx
  00018	8d 4f 10	 lea	 ecx, DWORD PTR [edi+16]
  0001b	ff d6		 call	 esi
  0001d	8b c7		 mov	 eax, edi
  0001f	5f		 pop	 edi
  00020	5e		 pop	 esi
  00021	5b		 pop	 ebx
  00022	5d		 pop	 ebp
  00023	c2 04 00	 ret	 4
??4AniEventInfo@@QAEAAU0@ABU0@@Z ENDP			; AniEventInfo::operator=
_TEXT	ENDS
PUBLIC	??4tagAniSoundEventInfo@@QAEAAU0@ABU0@@Z	; tagAniSoundEventInfo::operator=
; Function compile flags: /Ogsp
;	COMDAT ??4tagAniSoundEventInfo@@QAEAAU0@ABU0@@Z
_TEXT	SEGMENT
___that$ = 8						; size = 4
??4tagAniSoundEventInfo@@QAEAAU0@ABU0@@Z PROC		; tagAniSoundEventInfo::operator=, COMDAT
; _this$ = ecx
  00000	55		 push	 ebp
  00001	8b ec		 mov	 ebp, esp
  00003	53		 push	 ebx
  00004	8b 5d 08	 mov	 ebx, DWORD PTR ___that$[ebp]
  00007	56		 push	 esi
  00008	57		 push	 edi
  00009	8b 3d 00 00 00
	00		 mov	 edi, DWORD PTR __imp_??4ioHashString@@QAEAAV0@ABV0@@Z
  0000f	53		 push	 ebx
  00010	8b f1		 mov	 esi, ecx
  00012	ff d7		 call	 edi
  00014	8d 43 10	 lea	 eax, DWORD PTR [ebx+16]
  00017	50		 push	 eax
  00018	8d 4e 10	 lea	 ecx, DWORD PTR [esi+16]
  0001b	ff d7		 call	 edi
  0001d	8b 43 20	 mov	 eax, DWORD PTR [ebx+32]
  00020	89 46 20	 mov	 DWORD PTR [esi+32], eax
  00023	5f		 pop	 edi
  00024	8b c6		 mov	 eax, esi
  00026	5e		 pop	 esi
  00027	5b		 pop	 ebx
  00028	5d		 pop	 ebp
  00029	c2 04 00	 ret	 4
??4tagAniSoundEventInfo@@QAEAAU0@ABU0@@Z ENDP		; tagAniSoundEventInfo::operator=
_TEXT	ENDS
PUBLIC	??$_Ptr_cat@V?$_Vector_const_iterator@V?$_Vector_val@V?$basic_string@DU?$char_traits@D@std@@V?$allocator@D@2@@std@@V?$allocator@V?$basic_string@DU?$char_traits@D@std@@V?$allocator@D@2@@std@@@2@@std@@@std@@PAV?$basic_string@DU?$char_traits@D@std@@V?$allocator@D@2@@2@@std@@YA?AU_Nonscalar_ptr_iterator_tag@0@AAV?$_Vector_const_iterator@V?$_Vector_val@V?$basic_string@DU?$char_traits@D@std@@V?$allocator@D@2@@std@@V?$allocator@V?$basic_string@DU?$char_traits@D@std@@V?$allocator@D@2@@std@@@2@@std@@@0@AAPAV?$basic_string@DU?$char_traits@D@std@@V?$allocator@D@2@@0@@Z ; std::_Ptr_cat<std::_Vector_const_iterator<std::_Vector_val<std::basic_string<char,std::char_traits<char>,std::allocator<char> >,std::allocator<std::basic_string<char,std::char_traits<char>,std::allocator<char> > > > >,std::basic_string<char,std::char_traits<char>,std::allocator<char> > *>
; Function compile flags: /Ogsp
; File c:\program files (x86)\microsoft visual studio 10.0\vc\include\xutility
;	COMDAT ??$_Ptr_cat@V?$_Vector_const_iterator@V?$_Vector_val@V?$basic_string@DU?$char_traits@D@std@@V?$allocator@D@2@@std@@V?$allocator@V?$basic_string@DU?$char_traits@D@std@@V?$allocator@D@2@@std@@@2@@std@@@std@@PAV?$basic_string@DU?$char_traits@D@std@@V?$allocator@D@2@@2@@std@@YA?AU_Nonscalar_ptr_iterator_tag@0@AAV?$_Vector_const_iterator@V?$_Vector_val@V?$basic_string@DU?$char_traits@D@std@@V?$allocator@D@2@@std@@V?$allocator@V?$basic_string@DU?$char_traits@D@std@@V?$allocator@D@2@@std@@@2@@std@@@0@AAPAV?$basic_string@DU?$char_traits@D@std@@V?$allocator@D@2@@0@@Z
_TEXT	SEGMENT
__Cat$ = -1						; size = 1
___formal$ = 8						; size = 4
___formal$ = 12						; size = 4
??$_Ptr_cat@V?$_Vector_const_iterator@V?$_Vector_val@V?$basic_string@DU?$char_traits@D@std@@V?$allocator@D@2@@std@@V?$allocator@V?$basic_string@DU?$char_traits@D@std@@V?$allocator@D@2@@std@@@2@@std@@@std@@PAV?$basic_string@DU?$char_traits@D@std@@V?$allocator@D@2@@2@@std@@YA?AU_Nonscalar_ptr_iterator_tag@0@AAV?$_Vector_const_iterator@V?$_Vector_val@V?$basic_string@DU?$char_traits@D@std@@V?$allocator@D@2@@std@@V?$allocator@V?$basic_string@DU?$char_traits@D@std@@V?$allocator@D@2@@std@@@2@@std@@@0@AAPAV?$basic_string@DU?$char_traits@D@std@@V?$allocator@D@2@@0@@Z PROC ; std::_Ptr_cat<std::_Vector_const_iterator<std::_Vector_val<std::basic_string<char,std::char_traits<char>,std::allocator<char> >,std::allocator<std::basic_string<char,std::char_traits<char>,std::allocator<char> > > > >,std::basic_string<char,std::char_traits<char>,std::allocator<char> > *>, COMDAT

; 485  : 	{	// return pointer category from arbitrary arguments

  00000	55		 push	 ebp
  00001	8b ec		 mov	 ebp, esp
  00003	51		 push	 ecx

; 486  : 	_Nonscalar_ptr_iterator_tag _Cat;
; 487  : 	return (_Cat);

  00004	8a 45 ff	 mov	 al, BYTE PTR __Cat$[ebp]

; 488  : 	}

  00007	c9		 leave
  00008	c3		 ret	 0
??$_Ptr_cat@V?$_Vector_const_iterator@V?$_Vector_val@V?$basic_string@DU?$char_traits@D@std@@V?$allocator@D@2@@std@@V?$allocator@V?$basic_string@DU?$char_traits@D@std@@V?$allocator@D@2@@std@@@2@@std@@@std@@PAV?$basic_string@DU?$char_traits@D@std@@V?$allocator@D@2@@2@@std@@YA?AU_Nonscalar_ptr_iterator_tag@0@AAV?$_Vector_const_iterator@V?$_Vector_val@V?$basic_string@DU?$char_traits@D@std@@V?$allocator@D@2@@std@@V?$allocator@V?$basic_string@DU?$char_traits@D@std@@V?$allocator@D@2@@std@@@2@@std@@@0@AAPAV?$basic_string@DU?$char_traits@D@std@@V?$allocator@D@2@@0@@Z ENDP ; std::_Ptr_cat<std::_Vector_const_iterator<std::_Vector_val<std::basic_string<char,std::char_traits<char>,std::allocator<char> >,std::allocator<std::basic_string<char,std::char_traits<char>,std::allocator<char> > > > >,std::basic_string<char,std::char_traits<char>,std::allocator<char> > *>
_TEXT	ENDS
PUBLIC	??$move@AAUAniEventInfo@@@std@@YA$$QAUAniEventInfo@@AAU1@@Z ; std::move<AniEventInfo &>
; Function compile flags: /Ogsp
; File c:\program files (x86)\microsoft visual studio 10.0\vc\include\utility
;	COMDAT ??$move@AAUAniEventInfo@@@std@@YA$$QAUAniEventInfo@@AAU1@@Z
_TEXT	SEGMENT
__Arg$ = 8						; size = 4
??$move@AAUAniEventInfo@@@std@@YA$$QAUAniEventInfo@@AAU1@@Z PROC ; std::move<AniEventInfo &>, COMDAT

; 86   : 	{	// forward _Arg as movable

  00000	55		 push	 ebp
  00001	8b ec		 mov	 ebp, esp

; 87   : 	return ((typename tr1::_Remove_reference<_Ty>::_Type&&)_Arg);

  00003	8b 45 08	 mov	 eax, DWORD PTR __Arg$[ebp]

; 88   : 	}

  00006	5d		 pop	 ebp
  00007	c3		 ret	 0
??$move@AAUAniEventInfo@@@std@@YA$$QAUAniEventInfo@@AAU1@@Z ENDP ; std::move<AniEventInfo &>
_TEXT	ENDS
PUBLIC	??$move@AAUtagAniSoundEventInfo@@@std@@YA$$QAUtagAniSoundEventInfo@@AAU1@@Z ; std::move<tagAniSoundEventInfo &>
; Function compile flags: /Ogsp
;	COMDAT ??$move@AAUtagAniSoundEventInfo@@@std@@YA$$QAUtagAniSoundEventInfo@@AAU1@@Z
_TEXT	SEGMENT
__Arg$ = 8						; size = 4
??$move@AAUtagAniSoundEventInfo@@@std@@YA$$QAUtagAniSoundEventInfo@@AAU1@@Z PROC ; std::move<tagAniSoundEventInfo &>, COMDAT

; 86   : 	{	// forward _Arg as movable

  00000	55		 push	 ebp
  00001	8b ec		 mov	 ebp, esp

; 87   : 	return ((typename tr1::_Remove_reference<_Ty>::_Type&&)_Arg);

  00003	8b 45 08	 mov	 eax, DWORD PTR __Arg$[ebp]

; 88   : 	}

  00006	5d		 pop	 ebp
  00007	c3		 ret	 0
??$move@AAUtagAniSoundEventInfo@@@std@@YA$$QAUtagAniSoundEventInfo@@AAU1@@Z ENDP ; std::move<tagAniSoundEventInfo &>
_TEXT	ENDS
PUBLIC	??$_Val_type@PAUAniEventInfo@@@std@@YAPAUAniEventInfo@@PAU1@@Z ; std::_Val_type<AniEventInfo *>
; Function compile flags: /Ogsp
; File c:\program files (x86)\microsoft visual studio 10.0\vc\include\xutility
;	COMDAT ??$_Val_type@PAUAniEventInfo@@@std@@YAPAUAniEventInfo@@PAU1@@Z
_TEXT	SEGMENT
___formal$ = 8						; size = 4
??$_Val_type@PAUAniEventInfo@@@std@@YAPAUAniEventInfo@@PAU1@@Z PROC ; std::_Val_type<AniEventInfo *>, COMDAT

; 790  : 	return (0);

  00000	33 c0		 xor	 eax, eax

; 791  : 	}

  00002	c3		 ret	 0
??$_Val_type@PAUAniEventInfo@@@std@@YAPAUAniEventInfo@@PAU1@@Z ENDP ; std::_Val_type<AniEventInfo *>
_TEXT	ENDS
PUBLIC	??$_Val_type@PAUtagAniSoundEventInfo@@@std@@YAPAUtagAniSoundEventInfo@@PAU1@@Z ; std::_Val_type<tagAniSoundEventInfo *>
; Function compile flags: /Ogsp
;	COMDAT ??$_Val_type@PAUtagAniSoundEventInfo@@@std@@YAPAUtagAniSoundEventInfo@@PAU1@@Z
_TEXT	SEGMENT
___formal$ = 8						; size = 4
??$_Val_type@PAUtagAniSoundEventInfo@@@std@@YAPAUtagAniSoundEventInfo@@PAU1@@Z PROC ; std::_Val_type<tagAniSoundEventInfo *>, COMDAT

; 790  : 	return (0);

  00000	33 c0		 xor	 eax, eax

; 791  : 	}

  00002	c3		 ret	 0
??$_Val_type@PAUtagAniSoundEventInfo@@@std@@YAPAUtagAniSoundEventInfo@@PAU1@@Z ENDP ; std::_Val_type<tagAniSoundEventInfo *>
_TEXT	ENDS
PUBLIC	??D?$_Vector_const_iterator@V?$_Vector_val@V?$basic_string@DU?$char_traits@D@std@@V?$allocator@D@2@@std@@V?$allocator@V?$basic_string@DU?$char_traits@D@std@@V?$allocator@D@2@@std@@@2@@std@@@std@@QBEABV?$basic_string@DU?$char_traits@D@std@@V?$allocator@D@2@@1@XZ ; std::_Vector_const_iterator<std::_Vector_val<std::basic_string<char,std::char_traits<char>,std::allocator<char> >,std::allocator<std::basic_string<char,std::char_traits<char>,std::allocator<char> > > > >::operator*
; Function compile flags: /Ogsp
; File c:\program files (x86)\microsoft visual studio 10.0\vc\include\vector
;	COMDAT ??D?$_Vector_const_iterator@V?$_Vector_val@V?$basic_string@DU?$char_traits@D@std@@V?$allocator@D@2@@std@@V?$allocator@V?$basic_string@DU?$char_traits@D@std@@V?$allocator@D@2@@std@@@2@@std@@@std@@QBEABV?$basic_string@DU?$char_traits@D@std@@V?$allocator@D@2@@1@XZ
_TEXT	SEGMENT
??D?$_Vector_const_iterator@V?$_Vector_val@V?$basic_string@DU?$char_traits@D@std@@V?$allocator@D@2@@std@@V?$allocator@V?$basic_string@DU?$char_traits@D@std@@V?$allocator@D@2@@std@@@2@@std@@@std@@QBEABV?$basic_string@DU?$char_traits@D@std@@V?$allocator@D@2@@1@XZ PROC ; std::_Vector_const_iterator<std::_Vector_val<std::basic_string<char,std::char_traits<char>,std::allocator<char> >,std::allocator<std::basic_string<char,std::char_traits<char>,std::allocator<char> > > > >::operator*, COMDAT
; _this$ = ecx

; 64   :  #if _ITERATOR_DEBUG_LEVEL == 2
; 65   : 		if (this->_Getcont() == 0
; 66   : 			|| this->_Ptr == 0
; 67   : 			|| this->_Ptr < ((_Myvec *)this->_Getcont())->_Myfirst
; 68   : 			|| ((_Myvec *)this->_Getcont())->_Mylast <= this->_Ptr)
; 69   : 			{	// report error
; 70   : 			_DEBUG_ERROR("vector iterator not dereferencable");
; 71   : 			_SCL_SECURE_OUT_OF_RANGE;
; 72   : 			}
; 73   : 
; 74   :  #elif _ITERATOR_DEBUG_LEVEL == 1
; 75   : 		_SCL_SECURE_VALIDATE(this->_Getcont() != 0);
; 76   : 		_SCL_SECURE_VALIDATE_RANGE(
; 77   : 			this->_Ptr != 0
; 78   : 			&& ((_Myvec *)this->_Getcont())->_Myfirst <= this->_Ptr
; 79   : 			&& this->_Ptr < ((_Myvec *)this->_Getcont())->_Mylast);
; 80   :  #endif /* _ITERATOR_DEBUG_LEVEL */
; 81   : 
; 82   : 		__analysis_assume(this->_Ptr != 0);
; 83   : 
; 84   : 		return (*this->_Ptr);

  00000	8b 01		 mov	 eax, DWORD PTR [ecx]

; 85   : 		}

  00002	c3		 ret	 0
??D?$_Vector_const_iterator@V?$_Vector_val@V?$basic_string@DU?$char_traits@D@std@@V?$allocator@D@2@@std@@V?$allocator@V?$basic_string@DU?$char_traits@D@std@@V?$allocator@D@2@@std@@@2@@std@@@std@@QBEABV?$basic_string@DU?$char_traits@D@std@@V?$allocator@D@2@@1@XZ ENDP ; std::_Vector_const_iterator<std::_Vector_val<std::basic_string<char,std::char_traits<char>,std::allocator<char> >,std::allocator<std::basic_string<char,std::char_traits<char>,std::allocator<char> > > > >::operator*
_TEXT	ENDS
PUBLIC	??E?$_Vector_const_iterator@V?$_Vector_val@V?$basic_string@DU?$char_traits@D@std@@V?$allocator@D@2@@std@@V?$allocator@V?$basic_string@DU?$char_traits@D@std@@V?$allocator@D@2@@std@@@2@@std@@@std@@QAEAAV01@XZ ; std::_Vector_const_iterator<std::_Vector_val<std::basic_string<char,std::char_traits<char>,std::allocator<char> >,std::allocator<std::basic_string<char,std::char_traits<char>,std::allocator<char> > > > >::operator++
; Function compile flags: /Ogsp
;	COMDAT ??E?$_Vector_const_iterator@V?$_Vector_val@V?$basic_string@DU?$char_traits@D@std@@V?$allocator@D@2@@std@@V?$allocator@V?$basic_string@DU?$char_traits@D@std@@V?$allocator@D@2@@std@@@2@@std@@@std@@QAEAAV01@XZ
_TEXT	SEGMENT
??E?$_Vector_const_iterator@V?$_Vector_val@V?$basic_string@DU?$char_traits@D@std@@V?$allocator@D@2@@std@@V?$allocator@V?$basic_string@DU?$char_traits@D@std@@V?$allocator@D@2@@std@@@2@@std@@@std@@QAEAAV01@XZ PROC ; std::_Vector_const_iterator<std::_Vector_val<std::basic_string<char,std::char_traits<char>,std::allocator<char> >,std::allocator<std::basic_string<char,std::char_traits<char>,std::allocator<char> > > > >::operator++, COMDAT
; _this$ = ecx

; 93   : 		{	// preincrement

  00000	8b c1		 mov	 eax, ecx

; 94   :  #if _ITERATOR_DEBUG_LEVEL == 2
; 95   : 		if (this->_Getcont() == 0
; 96   : 			|| this->_Ptr == 0
; 97   : 			|| ((_Myvec *)this->_Getcont())->_Mylast <= this->_Ptr)
; 98   : 			{	// report error
; 99   : 			_DEBUG_ERROR("vector iterator not incrementable");
; 100  : 			_SCL_SECURE_OUT_OF_RANGE;
; 101  : 			}
; 102  : 
; 103  :  #elif _ITERATOR_DEBUG_LEVEL == 1
; 104  : 		_SCL_SECURE_VALIDATE(this->_Getcont() != 0);
; 105  : 		_SCL_SECURE_VALIDATE_RANGE(
; 106  : 			this->_Ptr != 0
; 107  : 			&& this->_Ptr < ((_Myvec *)this->_Getcont())->_Mylast);
; 108  :  #endif /* _ITERATOR_DEBUG_LEVEL */
; 109  : 
; 110  : 		++this->_Ptr;

  00002	83 00 1c	 add	 DWORD PTR [eax], 28	; 0000001cH

; 111  : 		return (*this);
; 112  : 		}

  00005	c3		 ret	 0
??E?$_Vector_const_iterator@V?$_Vector_val@V?$basic_string@DU?$char_traits@D@std@@V?$allocator@D@2@@std@@V?$allocator@V?$basic_string@DU?$char_traits@D@std@@V?$allocator@D@2@@std@@@2@@std@@@std@@QAEAAV01@XZ ENDP ; std::_Vector_const_iterator<std::_Vector_val<std::basic_string<char,std::char_traits<char>,std::allocator<char> >,std::allocator<std::basic_string<char,std::char_traits<char>,std::allocator<char> > > > >::operator++
_TEXT	ENDS
PUBLIC	?_Compat@?$_Vector_const_iterator@V?$_Vector_val@V?$basic_string@DU?$char_traits@D@std@@V?$allocator@D@2@@std@@V?$allocator@V?$basic_string@DU?$char_traits@D@std@@V?$allocator@D@2@@std@@@2@@std@@@std@@QBEXABV12@@Z ; std::_Vector_const_iterator<std::_Vector_val<std::basic_string<char,std::char_traits<char>,std::allocator<char> >,std::allocator<std::basic_string<char,std::char_traits<char>,std::allocator<char> > > > >::_Compat
; Function compile flags: /Ogsp
;	COMDAT ?_Compat@?$_Vector_const_iterator@V?$_Vector_val@V?$basic_string@DU?$char_traits@D@std@@V?$allocator@D@2@@std@@V?$allocator@V?$basic_string@DU?$char_traits@D@std@@V?$allocator@D@2@@std@@@2@@std@@@std@@QBEXABV12@@Z
_TEXT	SEGMENT
___formal$ = 8						; size = 4
?_Compat@?$_Vector_const_iterator@V?$_Vector_val@V?$basic_string@DU?$char_traits@D@std@@V?$allocator@D@2@@std@@V?$allocator@V?$basic_string@DU?$char_traits@D@std@@V?$allocator@D@2@@std@@@2@@std@@@std@@QBEXABV12@@Z PROC ; std::_Vector_const_iterator<std::_Vector_val<std::basic_string<char,std::char_traits<char>,std::allocator<char> >,std::allocator<std::basic_string<char,std::char_traits<char>,std::allocator<char> > > > >::_Compat, COMDAT
; _this$ = ecx

; 253  : 		}

  00000	c2 04 00	 ret	 4
?_Compat@?$_Vector_const_iterator@V?$_Vector_val@V?$basic_string@DU?$char_traits@D@std@@V?$allocator@D@2@@std@@V?$allocator@V?$basic_string@DU?$char_traits@D@std@@V?$allocator@D@2@@std@@@2@@std@@@std@@QBEXABV12@@Z ENDP ; std::_Vector_const_iterator<std::_Vector_val<std::basic_string<char,std::char_traits<char>,std::allocator<char> >,std::allocator<std::basic_string<char,std::char_traits<char>,std::allocator<char> > > > >::_Compat
_TEXT	ENDS
PUBLIC	??_GAniEventInfo@@QAEPAXI@Z			; AniEventInfo::`scalar deleting destructor'
; Function compile flags: /Ogsp
;	COMDAT ??_GAniEventInfo@@QAEPAXI@Z
_TEXT	SEGMENT
___flags$ = 8						; size = 4
??_GAniEventInfo@@QAEPAXI@Z PROC			; AniEventInfo::`scalar deleting destructor', COMDAT
; _this$ = ecx
  00000	55		 push	 ebp
  00001	8b ec		 mov	 ebp, esp
  00003	56		 push	 esi
  00004	8b f1		 mov	 esi, ecx
  00006	e8 00 00 00 00	 call	 ??1AniEventInfo@@QAE@XZ
  0000b	f6 45 08 01	 test	 BYTE PTR ___flags$[ebp], 1
  0000f	74 07		 je	 SHORT $LN1@scalar@2
  00011	56		 push	 esi
  00012	e8 00 00 00 00	 call	 ??3@YAXPAX@Z		; operator delete
  00017	59		 pop	 ecx
$LN1@scalar@2:
  00018	8b c6		 mov	 eax, esi
  0001a	5e		 pop	 esi
  0001b	5d		 pop	 ebp
  0001c	c2 04 00	 ret	 4
??_GAniEventInfo@@QAEPAXI@Z ENDP			; AniEventInfo::`scalar deleting destructor'
_TEXT	ENDS
PUBLIC	??_GtagAniSoundEventInfo@@QAEPAXI@Z		; tagAniSoundEventInfo::`scalar deleting destructor'
; Function compile flags: /Ogsp
;	COMDAT ??_GtagAniSoundEventInfo@@QAEPAXI@Z
_TEXT	SEGMENT
___flags$ = 8						; size = 4
??_GtagAniSoundEventInfo@@QAEPAXI@Z PROC		; tagAniSoundEventInfo::`scalar deleting destructor', COMDAT
; _this$ = ecx
  00000	55		 push	 ebp
  00001	8b ec		 mov	 ebp, esp
  00003	56		 push	 esi
  00004	8b f1		 mov	 esi, ecx
  00006	e8 00 00 00 00	 call	 ??1tagAniSoundEventInfo@@QAE@XZ
  0000b	f6 45 08 01	 test	 BYTE PTR ___flags$[ebp], 1
  0000f	74 07		 je	 SHORT $LN1@scalar@3
  00011	56		 push	 esi
  00012	e8 00 00 00 00	 call	 ??3@YAXPAX@Z		; operator delete
  00017	59		 pop	 ecx
$LN1@scalar@3:
  00018	8b c6		 mov	 eax, esi
  0001a	5e		 pop	 esi
  0001b	5d		 pop	 ebp
  0001c	c2 04 00	 ret	 4
??_GtagAniSoundEventInfo@@QAEPAXI@Z ENDP		; tagAniSoundEventInfo::`scalar deleting destructor'
_TEXT	ENDS
PUBLIC	??$forward@ABV?$basic_string@DU?$char_traits@D@std@@V?$allocator@D@2@@std@@@std@@YAABV?$basic_string@DU?$char_traits@D@std@@V?$allocator@D@2@@0@ABV10@@Z ; std::forward<std::basic_string<char,std::char_traits<char>,std::allocator<char> > const &>
; Function compile flags: /Ogsp
; File c:\program files (x86)\microsoft visual studio 10.0\vc\include\utility
;	COMDAT ??$forward@ABV?$basic_string@DU?$char_traits@D@std@@V?$allocator@D@2@@std@@@std@@YAABV?$basic_string@DU?$char_traits@D@std@@V?$allocator@D@2@@0@ABV10@@Z
_TEXT	SEGMENT
__Arg$ = 8						; size = 4
??$forward@ABV?$basic_string@DU?$char_traits@D@std@@V?$allocator@D@2@@std@@@std@@YAABV?$basic_string@DU?$char_traits@D@std@@V?$allocator@D@2@@0@ABV10@@Z PROC ; std::forward<std::basic_string<char,std::char_traits<char>,std::allocator<char> > const &>, COMDAT

; 78   : 	{	// forward _Arg, given explicitly specified type parameter

  00000	55		 push	 ebp
  00001	8b ec		 mov	 ebp, esp

; 79   : 	return ((_Ty&&)_Arg);

  00003	8b 45 08	 mov	 eax, DWORD PTR __Arg$[ebp]

; 80   : 	}

  00006	5d		 pop	 ebp
  00007	c3		 ret	 0
??$forward@ABV?$basic_string@DU?$char_traits@D@std@@V?$allocator@D@2@@std@@@std@@YAABV?$basic_string@DU?$char_traits@D@std@@V?$allocator@D@2@@0@ABV10@@Z ENDP ; std::forward<std::basic_string<char,std::char_traits<char>,std::allocator<char> > const &>
_TEXT	ENDS
PUBLIC	??$forward@UAniEventInfo@@@std@@YA$$QAUAniEventInfo@@AAU1@@Z ; std::forward<AniEventInfo>
; Function compile flags: /Ogsp
;	COMDAT ??$forward@UAniEventInfo@@@std@@YA$$QAUAniEventInfo@@AAU1@@Z
_TEXT	SEGMENT
__Arg$ = 8						; size = 4
??$forward@UAniEventInfo@@@std@@YA$$QAUAniEventInfo@@AAU1@@Z PROC ; std::forward<AniEventInfo>, COMDAT

; 78   : 	{	// forward _Arg, given explicitly specified type parameter

  00000	55		 push	 ebp
  00001	8b ec		 mov	 ebp, esp

; 79   : 	return ((_Ty&&)_Arg);

  00003	8b 45 08	 mov	 eax, DWORD PTR __Arg$[ebp]

; 80   : 	}

  00006	5d		 pop	 ebp
  00007	c3		 ret	 0
??$forward@UAniEventInfo@@@std@@YA$$QAUAniEventInfo@@AAU1@@Z ENDP ; std::forward<AniEventInfo>
_TEXT	ENDS
PUBLIC	??$forward@UtagAniSoundEventInfo@@@std@@YA$$QAUtagAniSoundEventInfo@@AAU1@@Z ; std::forward<tagAniSoundEventInfo>
; Function compile flags: /Ogsp
;	COMDAT ??$forward@UtagAniSoundEventInfo@@@std@@YA$$QAUtagAniSoundEventInfo@@AAU1@@Z
_TEXT	SEGMENT
__Arg$ = 8						; size = 4
??$forward@UtagAniSoundEventInfo@@@std@@YA$$QAUtagAniSoundEventInfo@@AAU1@@Z PROC ; std::forward<tagAniSoundEventInfo>, COMDAT

; 78   : 	{	// forward _Arg, given explicitly specified type parameter

  00000	55		 push	 ebp
  00001	8b ec		 mov	 ebp, esp

; 79   : 	return ((_Ty&&)_Arg);

  00003	8b 45 08	 mov	 eax, DWORD PTR __Arg$[ebp]

; 80   : 	}

  00006	5d		 pop	 ebp
  00007	c3		 ret	 0
??$forward@UtagAniSoundEventInfo@@@std@@YA$$QAUtagAniSoundEventInfo@@AAU1@@Z ENDP ; std::forward<tagAniSoundEventInfo>
; Function compile flags: /Ogsp
; File c:\program files (x86)\microsoft sdks\windows\v7.0a\include\strsafe.h
_TEXT	ENDS
;	COMDAT ?StringValidateDestA@@YGJPBDII@Z
_TEXT	SEGMENT
_cchMax$ = 8						; size = 4
?StringValidateDestA@@YGJPBDII@Z PROC			; StringValidateDestA, COMDAT
; _cchDest$ = ecx

; 8721 : {

  00000	55		 push	 ebp
  00001	8b ec		 mov	 ebp, esp

; 8722 :     HRESULT hr = S_OK;

  00003	33 c0		 xor	 eax, eax

; 8723 : 
; 8724 :     if ((cchDest == 0) || (cchDest > cchMax))

  00005	85 c9		 test	 ecx, ecx
  00007	74 05		 je	 SHORT $LN1@StringVali
  00009	3b 4d 08	 cmp	 ecx, DWORD PTR _cchMax$[ebp]
  0000c	76 05		 jbe	 SHORT $LN2@StringVali
$LN1@StringVali:

; 8725 :     {
; 8726 :         hr = STRSAFE_E_INVALID_PARAMETER;

  0000e	b8 57 00 07 80	 mov	 eax, -2147024809	; 80070057H
$LN2@StringVali:

; 8727 :     }
; 8728 : 
; 8729 :     return hr;
; 8730 : }

  00013	5d		 pop	 ebp
  00014	c2 04 00	 ret	 4
?StringValidateDestA@@YGJPBDII@Z ENDP			; StringValidateDestA
_TEXT	ENDS
EXTRN	__imp___vsnprintf:PROC
; Function compile flags: /Ogsp
;	COMDAT ?StringVPrintfWorkerA@@YGJPADIPAIPBD0@Z
_TEXT	SEGMENT
_pcchNewDestLength$ = 8					; size = 4
_pszFormat$ = 12					; size = 4
_argList$ = 16						; size = 4
?StringVPrintfWorkerA@@YGJPADIPAIPBD0@Z PROC		; StringVPrintfWorkerA, COMDAT
; _pszDest$ = edi
; _cchDest$ = eax

; 9029 : {

  00000	55		 push	 ebp
  00001	8b ec		 mov	 ebp, esp
  00003	53		 push	 ebx
  00004	56		 push	 esi

; 9030 :     HRESULT hr = S_OK;
; 9031 :     int iRet;
; 9032 :     size_t cchMax;
; 9033 :     size_t cchNewDestLength = 0;
; 9034 : 
; 9035 :     // leave the last space for the null terminator
; 9036 :     cchMax = cchDest - 1;
; 9037 : 
; 9038 : #if (STRSAFE_USE_SECURE_CRT == 1) && !defined(STRSAFE_LIB_IMPL)
; 9039 :     iRet = _vsnprintf_s(pszDest, cchDest, cchMax, pszFormat, argList);
; 9040 : #else
; 9041 :     #pragma warning(push)
; 9042 :     #pragma warning(disable: __WARNING_BANNED_API_USAGE)// "STRSAFE not included"
; 9043 :     iRet = _vsnprintf(pszDest, cchMax, pszFormat, argList);

  00005	ff 75 10	 push	 DWORD PTR _argList$[ebp]
  00008	8d 70 ff	 lea	 esi, DWORD PTR [eax-1]
  0000b	ff 75 0c	 push	 DWORD PTR _pszFormat$[ebp]
  0000e	33 db		 xor	 ebx, ebx
  00010	56		 push	 esi
  00011	57		 push	 edi
  00012	ff 15 00 00 00
	00		 call	 DWORD PTR __imp___vsnprintf
  00018	83 c4 10	 add	 esp, 16			; 00000010H

; 9044 :     #pragma warning(pop)
; 9045 : #endif
; 9046 :     // ASSERT((iRet < 0) || (((size_t)iRet) <= cchMax));
; 9047 : 
; 9048 :     if ((iRet < 0) || (((size_t)iRet) > cchMax))

  0001b	85 c0		 test	 eax, eax
  0001d	78 0b		 js	 SHORT $LN5@StringVPri
  0001f	3b c6		 cmp	 eax, esi
  00021	77 07		 ja	 SHORT $LN5@StringVPri

; 9058 :     }
; 9059 :     else if (((size_t)iRet) == cchMax)

  00023	75 0f		 jne	 SHORT $LN2@StringVPri

; 9060 :     {
; 9061 :         // need to null terminate the string
; 9062 :         pszDest += cchMax;
; 9063 :         *pszDest = '\0';

  00025	88 1c 3e	 mov	 BYTE PTR [esi+edi], bl

; 9064 : 
; 9065 :         cchNewDestLength = cchMax;
; 9066 :     }
; 9067 :     else

  00028	eb 08		 jmp	 SHORT $LN9@StringVPri
$LN5@StringVPri:

; 9049 :     {
; 9050 :         // need to null terminate the string
; 9051 :         pszDest += cchMax;
; 9052 :         *pszDest = '\0';

  0002a	88 1c 3e	 mov	 BYTE PTR [esi+edi], bl

; 9055 : 
; 9056 :         // we have truncated pszDest
; 9057 :         hr = STRSAFE_E_INSUFFICIENT_BUFFER;

  0002d	bb 7a 00 07 80	 mov	 ebx, -2147024774	; 8007007aH
$LN9@StringVPri:

; 9053 : 
; 9054 :         cchNewDestLength = cchMax;

  00032	8b c6		 mov	 eax, esi
$LN2@StringVPri:

; 9068 :     {
; 9069 :         cchNewDestLength = (size_t)iRet;
; 9070 :     }
; 9071 : 
; 9072 :     if (pcchNewDestLength)

  00034	8b 4d 08	 mov	 ecx, DWORD PTR _pcchNewDestLength$[ebp]
  00037	85 c9		 test	 ecx, ecx
  00039	74 02		 je	 SHORT $LN1@StringVPri

; 9073 :     {
; 9074 :         *pcchNewDestLength = cchNewDestLength;

  0003b	89 01		 mov	 DWORD PTR [ecx], eax
$LN1@StringVPri:
  0003d	5e		 pop	 esi

; 9075 :     }
; 9076 : 
; 9077 :     return hr;

  0003e	8b c3		 mov	 eax, ebx
  00040	5b		 pop	 ebx

; 9078 : }

  00041	5d		 pop	 ebp
  00042	c2 0c 00	 ret	 12			; 0000000cH
?StringVPrintfWorkerA@@YGJPADIPAIPBD0@Z ENDP		; StringVPrintfWorkerA
_TEXT	ENDS
PUBLIC	?_DECSTR@@YAXPADH@Z				; _DECSTR
; Function compile flags: /Ogsp
; File d:\lost saga for developer\youtube\tutorial\source\src\lsclient\stringprotect.h
;	COMDAT ?_DECSTR@@YAXPADH@Z
_TEXT	SEGMENT
_s$ = 8							; size = 4
_l$ = 12						; size = 4
?_DECSTR@@YAXPADH@Z PROC				; _DECSTR, COMDAT

; 40   : __forceinline void _DECSTR(char* s, int l){int i=0,l4=(l-1)/4,*p=(int*)s;s[l-1]=0;for(;i<l4;++i)*(p++)^=0xEAEBECED;for(i=l4*4;i<l-1;++i)s[i]^=0xED-i%4;}

  00000	55		 push	 ebp
  00001	8b ec		 mov	 ebp, esp
  00003	8b 4d 0c	 mov	 ecx, DWORD PTR _l$[ebp]
  00006	56		 push	 esi
  00007	8b 75 08	 mov	 esi, DWORD PTR _s$[ebp]
  0000a	57		 push	 edi
  0000b	8d 79 ff	 lea	 edi, DWORD PTR [ecx-1]
  0000e	8b c7		 mov	 eax, edi
  00010	99		 cdq
  00011	83 e2 03	 and	 edx, 3
  00014	03 c2		 add	 eax, edx
  00016	c1 f8 02	 sar	 eax, 2
  00019	8b d6		 mov	 edx, esi
  0001b	c6 44 0e ff 00	 mov	 BYTE PTR [esi+ecx-1], 0
  00020	85 c0		 test	 eax, eax
  00022	7e 0e		 jle	 SHORT $LN4@DECSTR
  00024	8b c8		 mov	 ecx, eax
$LL6@DECSTR:
  00026	81 32 ed ec eb
	ea		 xor	 DWORD PTR [edx], -353637139 ; eaebecedH
  0002c	83 c2 04	 add	 edx, 4
  0002f	49		 dec	 ecx
  00030	75 f4		 jne	 SHORT $LL6@DECSTR
$LN4@DECSTR:
  00032	c1 e0 02	 shl	 eax, 2
  00035	eb 17		 jmp	 SHORT $LN14@DECSTR
$LL3@DECSTR:
  00037	8b c8		 mov	 ecx, eax
  00039	81 e1 03 00 00
	80		 and	 ecx, -2147483645	; 80000003H
  0003f	79 05		 jns	 SHORT $LN13@DECSTR
  00041	49		 dec	 ecx
  00042	83 c9 fc	 or	 ecx, -4			; fffffffcH
  00045	41		 inc	 ecx
$LN13@DECSTR:
  00046	b2 ed		 mov	 dl, -19			; ffffffedH
  00048	2a d1		 sub	 dl, cl
  0004a	30 14 30	 xor	 BYTE PTR [eax+esi], dl
  0004d	40		 inc	 eax
$LN14@DECSTR:
  0004e	3b c7		 cmp	 eax, edi
  00050	7c e5		 jl	 SHORT $LL3@DECSTR
  00052	5f		 pop	 edi
  00053	5e		 pop	 esi
  00054	5d		 pop	 ebp
  00055	c3		 ret	 0
?_DECSTR@@YAXPADH@Z ENDP				; _DECSTR
_TEXT	ENDS
PUBLIC	?GetGroup@ioGameEntity@@QBEPAVioEntityGroup@@XZ	; ioGameEntity::GetGroup
; Function compile flags: /Ogsp
; File d:\lost saga for developer\youtube\tutorial\source\src\lsclient\iogameentity.h
;	COMDAT ?GetGroup@ioGameEntity@@QBEPAVioEntityGroup@@XZ
_TEXT	SEGMENT
?GetGroup@ioGameEntity@@QBEPAVioEntityGroup@@XZ PROC	; ioGameEntity::GetGroup, COMDAT
; _this$ = ecx

; 166  : 	inline ioEntityGroup* GetGroup() const { return m_pGroup; }

  00000	8b 41 04	 mov	 eax, DWORD PTR [ecx+4]
  00003	c3		 ret	 0
?GetGroup@ioGameEntity@@QBEPAVioEntityGroup@@XZ ENDP	; ioGameEntity::GetGroup
_TEXT	ENDS
PUBLIC	??_R0?AVioGameEntity@@@8			; ioGameEntity `RTTI Type Descriptor'
PUBLIC	??_R0?AVioPlayEntity@@@8			; ioPlayEntity `RTTI Type Descriptor'
PUBLIC	?ToPlayEntity@@YAPAVioPlayEntity@@PAVioGameEntity@@@Z ; ToPlayEntity
EXTRN	___RTDynamicCast:PROC
;	COMDAT ??_R0?AVioGameEntity@@@8
; File d:\lost saga for developer\youtube\tutorial\source\src\lsclient\ioplayentity.h
_DATA	SEGMENT
??_R0?AVioGameEntity@@@8 DD FLAT:??_7type_info@@6B@	; ioGameEntity `RTTI Type Descriptor'
	DD	00H
	DB	'.?AVioGameEntity@@', 00H
_DATA	ENDS
;	COMDAT ??_R0?AVioPlayEntity@@@8
_DATA	SEGMENT
??_R0?AVioPlayEntity@@@8 DD FLAT:??_7type_info@@6B@	; ioPlayEntity `RTTI Type Descriptor'
	DD	00H
	DB	'.?AVioPlayEntity@@', 00H
; Function compile flags: /Ogsp
_DATA	ENDS
;	COMDAT ?ToPlayEntity@@YAPAVioPlayEntity@@PAVioGameEntity@@@Z
_TEXT	SEGMENT
_pObj$ = 8						; size = 4
?ToPlayEntity@@YAPAVioPlayEntity@@PAVioGameEntity@@@Z PROC ; ToPlayEntity, COMDAT

; 121  : {

  00000	55		 push	 ebp
  00001	8b ec		 mov	 ebp, esp
  00003	56		 push	 esi

; 122  : 	if( !pObj || pObj->GetTypeID() != ioGameEntity::GET_PLAY_ENTITY )

  00004	8b 75 08	 mov	 esi, DWORD PTR _pObj$[ebp]
  00007	85 f6		 test	 esi, esi
  00009	74 25		 je	 SHORT $LN1@ToPlayEnti
  0000b	8b 06		 mov	 eax, DWORD PTR [esi]
  0000d	8b ce		 mov	 ecx, esi
  0000f	ff 50 10	 call	 DWORD PTR [eax+16]
  00012	83 f8 01	 cmp	 eax, 1
  00015	75 19		 jne	 SHORT $LN1@ToPlayEnti

; 124  : 
; 125  : 	return dynamic_cast< ioPlayEntity* >( pObj );

  00017	6a 00		 push	 0
  00019	68 00 00 00 00	 push	 OFFSET ??_R0?AVioPlayEntity@@@8
  0001e	68 00 00 00 00	 push	 OFFSET ??_R0?AVioGameEntity@@@8
  00023	6a 00		 push	 0
  00025	56		 push	 esi
  00026	e8 00 00 00 00	 call	 ___RTDynamicCast
  0002b	83 c4 14	 add	 esp, 20			; 00000014H
  0002e	eb 02		 jmp	 SHORT $LN3@ToPlayEnti
$LN1@ToPlayEnti:

; 123  : 		return NULL;

  00030	33 c0		 xor	 eax, eax
$LN3@ToPlayEnti:
  00032	5e		 pop	 esi

; 126  : }

  00033	5d		 pop	 ebp
  00034	c3		 ret	 0
?ToPlayEntity@@YAPAVioPlayEntity@@PAVioGameEntity@@@Z ENDP ; ToPlayEntity
_TEXT	ENDS
PUBLIC	?GetDefaultHairMesh@ioEquipSlot@@QBEABVioHashString@@XZ ; ioEquipSlot::GetDefaultHairMesh
; Function compile flags: /Ogsp
; File d:\lost saga for developer\youtube\tutorial\source\src\lsclient\ioequipslot.h
;	COMDAT ?GetDefaultHairMesh@ioEquipSlot@@QBEABVioHashString@@XZ
_TEXT	SEGMENT
?GetDefaultHairMesh@ioEquipSlot@@QBEABVioHashString@@XZ PROC ; ioEquipSlot::GetDefaultHairMesh, COMDAT
; _this$ = ecx

; 213  : 	inline const ioHashString& GetDefaultHairMesh() const { return m_DefaultHairMesh; }

  00000	8d 81 ec 00 00
	00		 lea	 eax, DWORD PTR [ecx+236]
  00006	c3		 ret	 0
?GetDefaultHairMesh@ioEquipSlot@@QBEABVioHashString@@XZ ENDP ; ioEquipSlot::GetDefaultHairMesh
_TEXT	ENDS
PUBLIC	?GetDefaultBindHairMesh@ioEquipSlot@@QBEABVioHashString@@XZ ; ioEquipSlot::GetDefaultBindHairMesh
; Function compile flags: /Ogsp
;	COMDAT ?GetDefaultBindHairMesh@ioEquipSlot@@QBEABVioHashString@@XZ
_TEXT	SEGMENT
?GetDefaultBindHairMesh@ioEquipSlot@@QBEABVioHashString@@XZ PROC ; ioEquipSlot::GetDefaultBindHairMesh, COMDAT
; _this$ = ecx

; 214  : 	inline const ioHashString& GetDefaultBindHairMesh() const { return m_DefaultBindHairMesh; }

  00000	8d 81 fc 00 00
	00		 lea	 eax, DWORD PTR [ecx+252]
  00006	c3		 ret	 0
?GetDefaultBindHairMesh@ioEquipSlot@@QBEABVioHashString@@XZ ENDP ; ioEquipSlot::GetDefaultBindHairMesh
_TEXT	ENDS
PUBLIC	?GetDefaultHalfHairMesh@ioEquipSlot@@QBEABVioHashString@@XZ ; ioEquipSlot::GetDefaultHalfHairMesh
; Function compile flags: /Ogsp
;	COMDAT ?GetDefaultHalfHairMesh@ioEquipSlot@@QBEABVioHashString@@XZ
_TEXT	SEGMENT
?GetDefaultHalfHairMesh@ioEquipSlot@@QBEABVioHashString@@XZ PROC ; ioEquipSlot::GetDefaultHalfHairMesh, COMDAT
; _this$ = ecx

; 215  : 	inline const ioHashString& GetDefaultHalfHairMesh() const { return m_DefaultHalfHairMesh; }

  00000	8d 81 0c 01 00
	00		 lea	 eax, DWORD PTR [ecx+268]
  00006	c3		 ret	 0
?GetDefaultHalfHairMesh@ioEquipSlot@@QBEABVioHashString@@XZ ENDP ; ioEquipSlot::GetDefaultHalfHairMesh
_TEXT	ENDS
PUBLIC	?GetDefaultHandMesh@ioEquipSlot@@QBEABVioHashString@@XZ ; ioEquipSlot::GetDefaultHandMesh
; Function compile flags: /Ogsp
;	COMDAT ?GetDefaultHandMesh@ioEquipSlot@@QBEABVioHashString@@XZ
_TEXT	SEGMENT
?GetDefaultHandMesh@ioEquipSlot@@QBEABVioHashString@@XZ PROC ; ioEquipSlot::GetDefaultHandMesh, COMDAT
; _this$ = ecx

; 217  : 	inline const ioHashString& GetDefaultHandMesh() const { return m_DefaultHandMesh; }

  00000	8d 81 2c 01 00
	00		 lea	 eax, DWORD PTR [ecx+300]
  00006	c3		 ret	 0
?GetDefaultHandMesh@ioEquipSlot@@QBEABVioHashString@@XZ ENDP ; ioEquipSlot::GetDefaultHandMesh
_TEXT	ENDS
PUBLIC	?GetDefaultUnderwearMesh@ioEquipSlot@@QBEABVioHashString@@XZ ; ioEquipSlot::GetDefaultUnderwearMesh
; Function compile flags: /Ogsp
;	COMDAT ?GetDefaultUnderwearMesh@ioEquipSlot@@QBEABVioHashString@@XZ
_TEXT	SEGMENT
?GetDefaultUnderwearMesh@ioEquipSlot@@QBEABVioHashString@@XZ PROC ; ioEquipSlot::GetDefaultUnderwearMesh, COMDAT
; _this$ = ecx

; 219  : 	inline const ioHashString& GetDefaultUnderwearMesh() const { return m_DefaultUnderwearMesh; } // body

  00000	8d 81 8c 00 00
	00		 lea	 eax, DWORD PTR [ecx+140]
  00006	c3		 ret	 0
?GetDefaultUnderwearMesh@ioEquipSlot@@QBEABVioHashString@@XZ ENDP ; ioEquipSlot::GetDefaultUnderwearMesh
_TEXT	ENDS
PUBLIC	?Init@tagAniSoundEventInfo@@QAEXXZ		; tagAniSoundEventInfo::Init
; Function compile flags: /Ogsp
; File d:\lost saga for developer\youtube\tutorial\source\src\lsclient\anieventhelpstruct.h
;	COMDAT ?Init@tagAniSoundEventInfo@@QAEXXZ
_TEXT	SEGMENT
?Init@tagAniSoundEventInfo@@QAEXXZ PROC			; tagAniSoundEventInfo::Init, COMDAT
; _this$ = ecx

; 19   : 		m_SoundID = 0;

  00000	83 61 20 00	 and	 DWORD PTR [ecx+32], 0

; 20   : 	}

  00004	c3		 ret	 0
?Init@tagAniSoundEventInfo@@QAEXXZ ENDP			; tagAniSoundEventInfo::Init
_TEXT	ENDS
PUBLIC	?size@?$basic_string@DU?$char_traits@D@std@@V?$allocator@D@2@@std@@QBEIXZ ; std::basic_string<char,std::char_traits<char>,std::allocator<char> >::size
; Function compile flags: /Ogsp
; File c:\program files (x86)\microsoft visual studio 10.0\vc\include\xstring
;	COMDAT ?size@?$basic_string@DU?$char_traits@D@std@@V?$allocator@D@2@@std@@QBEIXZ
_TEXT	SEGMENT
?size@?$basic_string@DU?$char_traits@D@std@@V?$allocator@D@2@@std@@QBEIXZ PROC ; std::basic_string<char,std::char_traits<char>,std::allocator<char> >::size, COMDAT
; _this$ = ecx

; 1512 : 		return (this->_Mysize);

  00000	8b 41 10	 mov	 eax, DWORD PTR [ecx+16]

; 1513 : 		}

  00003	c3		 ret	 0
?size@?$basic_string@DU?$char_traits@D@std@@V?$allocator@D@2@@std@@QBEIXZ ENDP ; std::basic_string<char,std::char_traits<char>,std::allocator<char> >::size
_TEXT	ENDS
PUBLIC	?_Myptr@?$basic_string@DU?$char_traits@D@std@@V?$allocator@D@2@@std@@QBEPBDXZ ; std::basic_string<char,std::char_traits<char>,std::allocator<char> >::_Myptr
; Function compile flags: /Ogsp
;	COMDAT ?_Myptr@?$basic_string@DU?$char_traits@D@std@@V?$allocator@D@2@@std@@QBEPBDXZ
_TEXT	SEGMENT
?_Myptr@?$basic_string@DU?$char_traits@D@std@@V?$allocator@D@2@@std@@QBEPBDXZ PROC ; std::basic_string<char,std::char_traits<char>,std::allocator<char> >::_Myptr, COMDAT
; _this$ = ecx

; 2010 : 		return (this->_BUF_SIZE <= this->_Myres ? this->_Bx._Ptr
; 2011 : 			: this->_Bx._Buf);

  00000	83 79 14 10	 cmp	 DWORD PTR [ecx+20], 16	; 00000010H
  00004	72 03		 jb	 SHORT $LN3@Myptr
  00006	8b 01		 mov	 eax, DWORD PTR [ecx]

; 2012 : 		}

  00008	c3		 ret	 0
$LN3@Myptr:

; 2010 : 		return (this->_BUF_SIZE <= this->_Myres ? this->_Bx._Ptr
; 2011 : 			: this->_Bx._Buf);

  00009	8b c1		 mov	 eax, ecx

; 2012 : 		}

  0000b	c3		 ret	 0
?_Myptr@?$basic_string@DU?$char_traits@D@std@@V?$allocator@D@2@@std@@QBEPBDXZ ENDP ; std::basic_string<char,std::char_traits<char>,std::allocator<char> >::_Myptr
_TEXT	ENDS
PUBLIC	??1?$_String_val@DV?$allocator@D@std@@@std@@QAE@XZ ; std::_String_val<char,std::allocator<char> >::~_String_val<char,std::allocator<char> >
; Function compile flags: /Ogsp
;	COMDAT ??1?$_String_val@DV?$allocator@D@std@@@std@@QAE@XZ
_TEXT	SEGMENT
??1?$_String_val@DV?$allocator@D@std@@@std@@QAE@XZ PROC	; std::_String_val<char,std::allocator<char> >::~_String_val<char,std::allocator<char> >, COMDAT
; _this$ = ecx

; 459  : 		}

  00000	c3		 ret	 0
??1?$_String_val@DV?$allocator@D@std@@@std@@QAE@XZ ENDP	; std::_String_val<char,std::allocator<char> >::~_String_val<char,std::allocator<char> >
_TEXT	ENDS
PUBLIC	??0?$allocator@D@std@@QAE@XZ			; std::allocator<char>::allocator<char>
; Function compile flags: /Ogsp
; File c:\program files (x86)\microsoft visual studio 10.0\vc\include\xmemory
;	COMDAT ??0?$allocator@D@std@@QAE@XZ
_TEXT	SEGMENT
??0?$allocator@D@std@@QAE@XZ PROC			; std::allocator<char>::allocator<char>, COMDAT
; _this$ = ecx

; 161  : 	_ALLOCATOR() _THROW0()

  00000	8b c1		 mov	 eax, ecx

; 162  : 		{	// construct default allocator (do nothing)
; 163  : 		}

  00002	c3		 ret	 0
??0?$allocator@D@std@@QAE@XZ ENDP			; std::allocator<char>::allocator<char>
_TEXT	ENDS
PUBLIC	??0?$allocator@D@std@@QAE@ABV01@@Z		; std::allocator<char>::allocator<char>
; Function compile flags: /Ogsp
;	COMDAT ??0?$allocator@D@std@@QAE@ABV01@@Z
_TEXT	SEGMENT
___formal$ = 8						; size = 4
??0?$allocator@D@std@@QAE@ABV01@@Z PROC			; std::allocator<char>::allocator<char>, COMDAT
; _this$ = ecx

; 165  : 	_ALLOCATOR(const _ALLOCATOR<_Ty>&) _THROW0()

  00000	8b c1		 mov	 eax, ecx

; 166  : 		{	// construct by copying (do nothing)
; 167  : 		}

  00002	c2 04 00	 ret	 4
??0?$allocator@D@std@@QAE@ABV01@@Z ENDP			; std::allocator<char>::allocator<char>
_TEXT	ENDS
PUBLIC	?DecryptValueToPool@?$CEncrypt@H@@QAEXPAH@Z	; CEncrypt<int>::DecryptValueToPool
EXTRN	?DecryptByte@ccddaabb@@QBEXPBDPADH@Z:PROC	; ccddaabb::DecryptByte
; Function compile flags: /Ogsp
; File d:\lost saga for developer\youtube\tutorial\source\src\lsclient\encryptvalue.h
;	COMDAT ?DecryptValueToPool@?$CEncrypt@H@@QAEXPAH@Z
_TEXT	SEGMENT
_value$ = 8						; size = 4
?DecryptValueToPool@?$CEncrypt@H@@QAEXPAH@Z PROC	; CEncrypt<int>::DecryptValueToPool, COMDAT
; _this$ = ecx

; 837  : 	{

  00000	55		 push	 ebp
  00001	8b ec		 mov	 ebp, esp
  00003	56		 push	 esi

; 838  : 		m_RC5.DecryptByte( m_MemPool, m_TempMem, 4 );

  00004	8d 71 28	 lea	 esi, DWORD PTR [ecx+40]
  00007	6a 04		 push	 4
  00009	8d 41 1c	 lea	 eax, DWORD PTR [ecx+28]
  0000c	56		 push	 esi
  0000d	50		 push	 eax
  0000e	83 c1 0c	 add	 ecx, 12			; 0000000cH
  00011	e8 00 00 00 00	 call	 ?DecryptByte@ccddaabb@@QBEXPBDPADH@Z ; ccddaabb::DecryptByte

; 839  : 		*value = *((int*)m_TempMem);

  00016	8b 06		 mov	 eax, DWORD PTR [esi]
  00018	8b 4d 08	 mov	 ecx, DWORD PTR _value$[ebp]
  0001b	89 01		 mov	 DWORD PTR [ecx], eax
  0001d	5e		 pop	 esi

; 840  : 	}

  0001e	5d		 pop	 ebp
  0001f	c2 04 00	 ret	 4
?DecryptValueToPool@?$CEncrypt@H@@QAEXPAH@Z ENDP	; CEncrypt<int>::DecryptValueToPool
_TEXT	ENDS
PUBLIC	?_Myptr@?$basic_string@DU?$char_traits@D@std@@V?$allocator@D@2@@std@@QAEPADXZ ; std::basic_string<char,std::char_traits<char>,std::allocator<char> >::_Myptr
; Function compile flags: /Ogsp
; File c:\program files (x86)\microsoft visual studio 10.0\vc\include\xstring
;	COMDAT ?_Myptr@?$basic_string@DU?$char_traits@D@std@@V?$allocator@D@2@@std@@QAEPADXZ
_TEXT	SEGMENT
?_Myptr@?$basic_string@DU?$char_traits@D@std@@V?$allocator@D@2@@std@@QAEPADXZ PROC ; std::basic_string<char,std::char_traits<char>,std::allocator<char> >::_Myptr, COMDAT
; _this$ = ecx

; 2004 : 		return (this->_BUF_SIZE <= this->_Myres ? this->_Bx._Ptr
; 2005 : 			: this->_Bx._Buf);

  00000	83 79 14 10	 cmp	 DWORD PTR [ecx+20], 16	; 00000010H
  00004	72 03		 jb	 SHORT $LN3@Myptr@2
  00006	8b 01		 mov	 eax, DWORD PTR [ecx]

; 2006 : 		}

  00008	c3		 ret	 0
$LN3@Myptr@2:

; 2004 : 		return (this->_BUF_SIZE <= this->_Myres ? this->_Bx._Ptr
; 2005 : 			: this->_Bx._Buf);

  00009	8b c1		 mov	 eax, ecx

; 2006 : 		}

  0000b	c3		 ret	 0
?_Myptr@?$basic_string@DU?$char_traits@D@std@@V?$allocator@D@2@@std@@QAEPADXZ ENDP ; std::basic_string<char,std::char_traits<char>,std::allocator<char> >::_Myptr
_TEXT	ENDS
PUBLIC	??_C@_0BA@JFNIOLAK@string?5too?5long?$AA@	; `string'
PUBLIC	?_Xlen@?$basic_string@DU?$char_traits@D@std@@V?$allocator@D@2@@std@@QBEXXZ ; std::basic_string<char,std::char_traits<char>,std::allocator<char> >::_Xlen
;	COMDAT ??_C@_0BA@JFNIOLAK@string?5too?5long?$AA@
CONST	SEGMENT
??_C@_0BA@JFNIOLAK@string?5too?5long?$AA@ DB 'string too long', 00H ; `string'
; Function compile flags: /Ogsp
CONST	ENDS
;	COMDAT ?_Xlen@?$basic_string@DU?$char_traits@D@std@@V?$allocator@D@2@@std@@QBEXXZ
_TEXT	SEGMENT
?_Xlen@?$basic_string@DU?$char_traits@D@std@@V?$allocator@D@2@@std@@QBEXXZ PROC ; std::basic_string<char,std::char_traits<char>,std::allocator<char> >::_Xlen, COMDAT
; _this$ = ecx

; 2016 : 		_Xlength_error("string too long");

  00000	68 00 00 00 00	 push	 OFFSET ??_C@_0BA@JFNIOLAK@string?5too?5long?$AA@
  00005	ff 15 00 00 00
	00		 call	 DWORD PTR __imp_?_Xlength_error@std@@YAXPBD@Z
$LN4@Xlen@4:
$LN3@Xlen@4:
  0000b	cc		 int	 3
?_Xlen@?$basic_string@DU?$char_traits@D@std@@V?$allocator@D@2@@std@@QBEXXZ ENDP ; std::basic_string<char,std::char_traits<char>,std::allocator<char> >::_Xlen
_TEXT	ENDS
PUBLIC	??_C@_0BI@CFPLBAOH@invalid?5string?5position?$AA@ ; `string'
PUBLIC	?_Xran@?$basic_string@DU?$char_traits@D@std@@V?$allocator@D@2@@std@@QBEXXZ ; std::basic_string<char,std::char_traits<char>,std::allocator<char> >::_Xran
EXTRN	__imp_?_Xout_of_range@std@@YAXPBD@Z:PROC
;	COMDAT ??_C@_0BI@CFPLBAOH@invalid?5string?5position?$AA@
CONST	SEGMENT
??_C@_0BI@CFPLBAOH@invalid?5string?5position?$AA@ DB 'invalid string posi'
	DB	'tion', 00H					; `string'
; Function compile flags: /Ogsp
CONST	ENDS
;	COMDAT ?_Xran@?$basic_string@DU?$char_traits@D@std@@V?$allocator@D@2@@std@@QBEXXZ
_TEXT	SEGMENT
?_Xran@?$basic_string@DU?$char_traits@D@std@@V?$allocator@D@2@@std@@QBEXXZ PROC ; std::basic_string<char,std::char_traits<char>,std::allocator<char> >::_Xran, COMDAT
; _this$ = ecx

; 2021 : 		_Xout_of_range("invalid string position");

  00000	68 00 00 00 00	 push	 OFFSET ??_C@_0BI@CFPLBAOH@invalid?5string?5position?$AA@
  00005	ff 15 00 00 00
	00		 call	 DWORD PTR __imp_?_Xout_of_range@std@@YAXPBD@Z
$LN4@Xran:
$LN3@Xran:
  0000b	cc		 int	 3
?_Xran@?$basic_string@DU?$char_traits@D@std@@V?$allocator@D@2@@std@@QBEXXZ ENDP ; std::basic_string<char,std::char_traits<char>,std::allocator<char> >::_Xran
_TEXT	ENDS
PUBLIC	?deallocate@?$allocator@D@std@@QAEXPADI@Z	; std::allocator<char>::deallocate
; Function compile flags: /Ogsp
; File c:\program files (x86)\microsoft visual studio 10.0\vc\include\xmemory
;	COMDAT ?deallocate@?$allocator@D@std@@QAEXPADI@Z
_TEXT	SEGMENT
__Ptr$ = 8						; size = 4
___formal$ = 12						; size = 4
?deallocate@?$allocator@D@std@@QAEXPADI@Z PROC		; std::allocator<char>::deallocate, COMDAT
; _this$ = ecx

; 181  : 		{	// deallocate object at _Ptr, ignore size

  00000	55		 push	 ebp
  00001	8b ec		 mov	 ebp, esp

; 182  : 		::operator delete(_Ptr);

  00003	ff 75 08	 push	 DWORD PTR __Ptr$[ebp]
  00006	e8 00 00 00 00	 call	 ??3@YAXPAX@Z		; operator delete
  0000b	59		 pop	 ecx

; 183  : 		}

  0000c	5d		 pop	 ebp
  0000d	c2 08 00	 ret	 8
?deallocate@?$allocator@D@std@@QAEXPADI@Z ENDP		; std::allocator<char>::deallocate
_TEXT	ENDS
PUBLIC	?_Inside@?$basic_string@DU?$char_traits@D@std@@V?$allocator@D@2@@std@@QAE_NPBD@Z ; std::basic_string<char,std::char_traits<char>,std::allocator<char> >::_Inside
; Function compile flags: /Ogsp
; File c:\program files (x86)\microsoft visual studio 10.0\vc\include\xstring
;	COMDAT ?_Inside@?$basic_string@DU?$char_traits@D@std@@V?$allocator@D@2@@std@@QAE_NPBD@Z
_TEXT	SEGMENT
__Ptr$ = 8						; size = 4
?_Inside@?$basic_string@DU?$char_traits@D@std@@V?$allocator@D@2@@std@@QAE_NPBD@Z PROC ; std::basic_string<char,std::char_traits<char>,std::allocator<char> >::_Inside, COMDAT
; _this$ = ecx

; 1973 : 		{	// test if _Ptr points inside string

  00000	55		 push	 ebp
  00001	8b ec		 mov	 ebp, esp

; 1974 : 		if (_Ptr == 0 || _Ptr < _Myptr() || _Myptr() + this->_Mysize <= _Ptr)

  00003	83 7d 08 00	 cmp	 DWORD PTR __Ptr$[ebp], 0
  00007	74 2c		 je	 SHORT $LN2@Inside@3
  00009	8b 51 14	 mov	 edx, DWORD PTR [ecx+20]
  0000c	83 fa 10	 cmp	 edx, 16			; 00000010H
  0000f	72 04		 jb	 SHORT $LN8@Inside@3
  00011	8b 01		 mov	 eax, DWORD PTR [ecx]
  00013	eb 02		 jmp	 SHORT $LN9@Inside@3
$LN8@Inside@3:
  00015	8b c1		 mov	 eax, ecx
$LN9@Inside@3:
  00017	39 45 08	 cmp	 DWORD PTR __Ptr$[ebp], eax
  0001a	72 19		 jb	 SHORT $LN2@Inside@3
  0001c	83 fa 10	 cmp	 edx, 16			; 00000010H
  0001f	72 04		 jb	 SHORT $LN12@Inside@3
  00021	8b 01		 mov	 eax, DWORD PTR [ecx]
  00023	eb 02		 jmp	 SHORT $LN13@Inside@3
$LN12@Inside@3:
  00025	8b c1		 mov	 eax, ecx
$LN13@Inside@3:
  00027	8b 49 10	 mov	 ecx, DWORD PTR [ecx+16]
  0002a	03 c8		 add	 ecx, eax
  0002c	3b 4d 08	 cmp	 ecx, DWORD PTR __Ptr$[ebp]
  0002f	76 04		 jbe	 SHORT $LN2@Inside@3

; 1976 : 		else
; 1977 : 			return (true);

  00031	b0 01		 mov	 al, 1
  00033	eb 02		 jmp	 SHORT $LN1@Inside@3
$LN2@Inside@3:

; 1975 : 			return (false);	// don't ask

  00035	32 c0		 xor	 al, al
$LN1@Inside@3:

; 1978 : 		}

  00037	5d		 pop	 ebp
  00038	c2 04 00	 ret	 4
?_Inside@?$basic_string@DU?$char_traits@D@std@@V?$allocator@D@2@@std@@QAE_NPBD@Z ENDP ; std::basic_string<char,std::char_traits<char>,std::allocator<char> >::_Inside
_TEXT	ENDS
PUBLIC	?max_size@?$allocator@D@std@@QBEIXZ		; std::allocator<char>::max_size
; Function compile flags: /Ogsp
; File c:\program files (x86)\microsoft visual studio 10.0\vc\include\xmemory
;	COMDAT ?max_size@?$allocator@D@std@@QBEIXZ
_TEXT	SEGMENT
?max_size@?$allocator@D@std@@QBEIXZ PROC		; std::allocator<char>::max_size, COMDAT
; _this$ = ecx

; 218  : 		_SIZT _Count = (_SIZT)(-1) / sizeof (_Ty);
; 219  : 		return (0 < _Count ? _Count : 1);

  00000	83 c8 ff	 or	 eax, -1

; 220  : 		}

  00003	c3		 ret	 0
?max_size@?$allocator@D@std@@QBEIXZ ENDP		; std::allocator<char>::max_size
_TEXT	ENDS
PUBLIC	??$_Allocate@D@std@@YAPADIPAD@Z			; std::_Allocate<char>
; Function compile flags: /Ogsp
;	COMDAT ??$_Allocate@D@std@@YAPADIPAD@Z
_TEXT	SEGMENT
$T531963 = -12						; size = 12
$T531967 = 8						; size = 4
__Count$ = 8						; size = 4
___formal$ = 12						; size = 4
??$_Allocate@D@std@@YAPADIPAD@Z PROC			; std::_Allocate<char>, COMDAT

; 30   : 	{	// allocate storage for _Count elements of type _Ty

  00000	55		 push	 ebp
  00001	8b ec		 mov	 ebp, esp

; 31   : 	void *_Ptr = 0;

  00003	33 c0		 xor	 eax, eax
  00005	83 ec 0c	 sub	 esp, 12			; 0000000cH

; 32   : 
; 33   : 	if (_Count <= 0)

  00008	39 45 08	 cmp	 DWORD PTR __Count$[ebp], eax

; 34   : 		_Count = 0;
; 35   : 	else if (((_SIZT)(-1) / sizeof (_Ty) < _Count)

  0000b	76 39		 jbe	 SHORT $LN5@Allocate@4

; 36   : 		|| (_Ptr = ::operator new(_Count * sizeof (_Ty))) == 0)

  0000d	83 7d 08 ff	 cmp	 DWORD PTR __Count$[ebp], -1
  00011	77 0d		 ja	 SHORT $LN1@Allocate@4
  00013	ff 75 08	 push	 DWORD PTR __Count$[ebp]
  00016	e8 00 00 00 00	 call	 ??2@YAPAXI@Z		; operator new
  0001b	59		 pop	 ecx
  0001c	85 c0		 test	 eax, eax

; 38   : 
; 39   : 	return ((_Ty _FARQ *)_Ptr);

  0001e	75 26		 jne	 SHORT $LN5@Allocate@4
$LN1@Allocate@4:

; 37   : 		_THROW_NCEE(bad_alloc, 0);

  00020	83 65 08 00	 and	 DWORD PTR $T531967[ebp], 0
  00024	8d 45 08	 lea	 eax, DWORD PTR $T531967[ebp]
  00027	50		 push	 eax
  00028	8d 4d f4	 lea	 ecx, DWORD PTR $T531963[ebp]
  0002b	ff 15 00 00 00
	00		 call	 DWORD PTR __imp_??0exception@std@@QAE@ABQBD@Z
  00031	68 00 00 00 00	 push	 OFFSET __TI2?AVbad_alloc@std@@
  00036	8d 45 f4	 lea	 eax, DWORD PTR $T531963[ebp]
  00039	50		 push	 eax
  0003a	c7 45 f4 00 00
	00 00		 mov	 DWORD PTR $T531963[ebp], OFFSET ??_7bad_alloc@std@@6B@
  00041	e8 00 00 00 00	 call	 __CxxThrowException@8
$LN10@Allocate@4:
$LN5@Allocate@4:

; 40   : 	}

  00046	c9		 leave
  00047	c3		 ret	 0
$LN9@Allocate@4:
??$_Allocate@D@std@@YAPADIPAD@Z ENDP			; std::_Allocate<char>
_TEXT	ENDS
EXTRN	__imp_??0exception@std@@QAE@ABV01@@Z:PROC
; Function compile flags: /Ogsp
;	COMDAT ??0bad_alloc@std@@QAE@ABV01@@Z
_TEXT	SEGMENT
___that$ = 8						; size = 4
??0bad_alloc@std@@QAE@ABV01@@Z PROC			; std::bad_alloc::bad_alloc, COMDAT
; _this$ = ecx
  00000	55		 push	 ebp
  00001	8b ec		 mov	 ebp, esp
  00003	56		 push	 esi
  00004	ff 75 08	 push	 DWORD PTR ___that$[ebp]
  00007	8b f1		 mov	 esi, ecx
  00009	ff 15 00 00 00
	00		 call	 DWORD PTR __imp_??0exception@std@@QAE@ABV01@@Z
  0000f	c7 06 00 00 00
	00		 mov	 DWORD PTR [esi], OFFSET ??_7bad_alloc@std@@6B@
  00015	8b c6		 mov	 eax, esi
  00017	5e		 pop	 esi
  00018	5d		 pop	 ebp
  00019	c2 04 00	 ret	 4
??0bad_alloc@std@@QAE@ABV01@@Z ENDP			; std::bad_alloc::bad_alloc
_TEXT	ENDS
PUBLIC	??1?$_Vector_val@V?$basic_string@DU?$char_traits@D@std@@V?$allocator@D@2@@std@@V?$allocator@V?$basic_string@DU?$char_traits@D@std@@V?$allocator@D@2@@std@@@2@@std@@QAE@XZ ; std::_Vector_val<std::basic_string<char,std::char_traits<char>,std::allocator<char> >,std::allocator<std::basic_string<char,std::char_traits<char>,std::allocator<char> > > >::~_Vector_val<std::basic_string<char,std::char_traits<char>,std::allocator<char> >,std::allocator<std::basic_string<char,std::char_traits<char>,std::allocator<char> > > >
; Function compile flags: /Ogsp
; File c:\program files (x86)\microsoft visual studio 10.0\vc\include\vector
;	COMDAT ??1?$_Vector_val@V?$basic_string@DU?$char_traits@D@std@@V?$allocator@D@2@@std@@V?$allocator@V?$basic_string@DU?$char_traits@D@std@@V?$allocator@D@2@@std@@@2@@std@@QAE@XZ
_TEXT	SEGMENT
??1?$_Vector_val@V?$basic_string@DU?$char_traits@D@std@@V?$allocator@D@2@@std@@V?$allocator@V?$basic_string@DU?$char_traits@D@std@@V?$allocator@D@2@@std@@@2@@std@@QAE@XZ PROC ; std::_Vector_val<std::basic_string<char,std::char_traits<char>,std::allocator<char> >,std::allocator<std::basic_string<char,std::char_traits<char>,std::allocator<char> > > >::~_Vector_val<std::basic_string<char,std::char_traits<char>,std::allocator<char> >,std::allocator<std::basic_string<char,std::char_traits<char>,std::allocator<char> > > >, COMDAT
; _this$ = ecx

; 434  : 		}

  00000	c3		 ret	 0
??1?$_Vector_val@V?$basic_string@DU?$char_traits@D@std@@V?$allocator@D@2@@std@@V?$allocator@V?$basic_string@DU?$char_traits@D@std@@V?$allocator@D@2@@std@@@2@@std@@QAE@XZ ENDP ; std::_Vector_val<std::basic_string<char,std::char_traits<char>,std::allocator<char> >,std::allocator<std::basic_string<char,std::char_traits<char>,std::allocator<char> > > >::~_Vector_val<std::basic_string<char,std::char_traits<char>,std::allocator<char> >,std::allocator<std::basic_string<char,std::char_traits<char>,std::allocator<char> > > >
_TEXT	ENDS
PUBLIC	?deallocate@?$allocator@V?$basic_string@DU?$char_traits@D@std@@V?$allocator@D@2@@std@@@std@@QAEXPAV?$basic_string@DU?$char_traits@D@std@@V?$allocator@D@2@@2@I@Z ; std::allocator<std::basic_string<char,std::char_traits<char>,std::allocator<char> > >::deallocate
; Function compile flags: /Ogsp
; File c:\program files (x86)\microsoft visual studio 10.0\vc\include\xmemory
;	COMDAT ?deallocate@?$allocator@V?$basic_string@DU?$char_traits@D@std@@V?$allocator@D@2@@std@@@std@@QAEXPAV?$basic_string@DU?$char_traits@D@std@@V?$allocator@D@2@@2@I@Z
_TEXT	SEGMENT
__Ptr$ = 8						; size = 4
___formal$ = 12						; size = 4
?deallocate@?$allocator@V?$basic_string@DU?$char_traits@D@std@@V?$allocator@D@2@@std@@@std@@QAEXPAV?$basic_string@DU?$char_traits@D@std@@V?$allocator@D@2@@2@I@Z PROC ; std::allocator<std::basic_string<char,std::char_traits<char>,std::allocator<char> > >::deallocate, COMDAT
; _this$ = ecx

; 181  : 		{	// deallocate object at _Ptr, ignore size

  00000	55		 push	 ebp
  00001	8b ec		 mov	 ebp, esp

; 182  : 		::operator delete(_Ptr);

  00003	ff 75 08	 push	 DWORD PTR __Ptr$[ebp]
  00006	e8 00 00 00 00	 call	 ??3@YAXPAX@Z		; operator delete
  0000b	59		 pop	 ecx

; 183  : 		}

  0000c	5d		 pop	 ebp
  0000d	c2 08 00	 ret	 8
?deallocate@?$allocator@V?$basic_string@DU?$char_traits@D@std@@V?$allocator@D@2@@std@@@std@@QAEXPAV?$basic_string@DU?$char_traits@D@std@@V?$allocator@D@2@@2@I@Z ENDP ; std::allocator<std::basic_string<char,std::char_traits<char>,std::allocator<char> > >::deallocate
_TEXT	ENDS
PUBLIC	??$_Ptr_cat@V?$basic_string@DU?$char_traits@D@std@@V?$allocator@D@2@@std@@V12@@std@@YA?AU_Nonscalar_ptr_iterator_tag@0@PAV?$basic_string@DU?$char_traits@D@std@@V?$allocator@D@2@@0@0@Z ; std::_Ptr_cat<std::basic_string<char,std::char_traits<char>,std::allocator<char> >,std::basic_string<char,std::char_traits<char>,std::allocator<char> > >
; Function compile flags: /Ogsp
; File c:\program files (x86)\microsoft visual studio 10.0\vc\include\xutility
;	COMDAT ??$_Ptr_cat@V?$basic_string@DU?$char_traits@D@std@@V?$allocator@D@2@@std@@V12@@std@@YA?AU_Nonscalar_ptr_iterator_tag@0@PAV?$basic_string@DU?$char_traits@D@std@@V?$allocator@D@2@@0@0@Z
_TEXT	SEGMENT
__Cat$ = -1						; size = 1
___formal$ = 8						; size = 4
___formal$ = 12						; size = 4
??$_Ptr_cat@V?$basic_string@DU?$char_traits@D@std@@V?$allocator@D@2@@std@@V12@@std@@YA?AU_Nonscalar_ptr_iterator_tag@0@PAV?$basic_string@DU?$char_traits@D@std@@V?$allocator@D@2@@0@0@Z PROC ; std::_Ptr_cat<std::basic_string<char,std::char_traits<char>,std::allocator<char> >,std::basic_string<char,std::char_traits<char>,std::allocator<char> > >, COMDAT

; 516  : 	{	// return pointer category from pointers

  00000	55		 push	 ebp
  00001	8b ec		 mov	 ebp, esp
  00003	51		 push	 ecx

; 517  : 	typename _Ptr_cat_helper<_Elem1, _Elem2>::_Type _Cat;
; 518  : 	return (_Cat);

  00004	8a 45 ff	 mov	 al, BYTE PTR __Cat$[ebp]

; 519  : 	}

  00007	c9		 leave
  00008	c3		 ret	 0
??$_Ptr_cat@V?$basic_string@DU?$char_traits@D@std@@V?$allocator@D@2@@std@@V12@@std@@YA?AU_Nonscalar_ptr_iterator_tag@0@PAV?$basic_string@DU?$char_traits@D@std@@V?$allocator@D@2@@0@0@Z ENDP ; std::_Ptr_cat<std::basic_string<char,std::char_traits<char>,std::allocator<char> >,std::basic_string<char,std::char_traits<char>,std::allocator<char> > >
_TEXT	ENDS
PUBLIC	??_R0?AVioBaseChar@@@8				; ioBaseChar `RTTI Type Descriptor'
PUBLIC	?ToBaseChar@@YAPAVioBaseChar@@PAVioGameEntity@@@Z ; ToBaseChar
;	COMDAT ??_R0?AVioBaseChar@@@8
; File d:\lost saga for developer\youtube\tutorial\source\src\lsclient\iobasechar.h
_DATA	SEGMENT
??_R0?AVioBaseChar@@@8 DD FLAT:??_7type_info@@6B@	; ioBaseChar `RTTI Type Descriptor'
	DD	00H
	DB	'.?AVioBaseChar@@', 00H
; Function compile flags: /Ogsp
_DATA	ENDS
;	COMDAT ?ToBaseChar@@YAPAVioBaseChar@@PAVioGameEntity@@@Z
_TEXT	SEGMENT
_pObj$ = 8						; size = 4
?ToBaseChar@@YAPAVioBaseChar@@PAVioGameEntity@@@Z PROC	; ToBaseChar, COMDAT

; 4326 : {

  00000	55		 push	 ebp
  00001	8b ec		 mov	 ebp, esp
  00003	56		 push	 esi

; 4327 : 	ioPlayEntity *pPlay = ToPlayEntity( pObj );

  00004	ff 75 08	 push	 DWORD PTR _pObj$[ebp]
  00007	e8 00 00 00 00	 call	 ?ToPlayEntity@@YAPAVioPlayEntity@@PAVioGameEntity@@@Z ; ToPlayEntity
  0000c	8b f0		 mov	 esi, eax
  0000e	59		 pop	 ecx

; 4328 : 	if( !pPlay || pPlay->GetSubType() != ioPlayEntity::PST_CHAR )

  0000f	85 f6		 test	 esi, esi
  00011	74 25		 je	 SHORT $LN1@ToBaseChar
  00013	8b 06		 mov	 eax, DWORD PTR [esi]
  00015	8b ce		 mov	 ecx, esi
  00017	ff 90 a4 00 00
	00		 call	 DWORD PTR [eax+164]
  0001d	85 c0		 test	 eax, eax
  0001f	75 17		 jne	 SHORT $LN1@ToBaseChar

; 4330 : 
; 4331 : 	return dynamic_cast< ioBaseChar* >( pPlay );

  00021	50		 push	 eax
  00022	68 00 00 00 00	 push	 OFFSET ??_R0?AVioBaseChar@@@8
  00027	68 00 00 00 00	 push	 OFFSET ??_R0?AVioPlayEntity@@@8
  0002c	50		 push	 eax
  0002d	56		 push	 esi
  0002e	e8 00 00 00 00	 call	 ___RTDynamicCast
  00033	83 c4 14	 add	 esp, 20			; 00000014H
  00036	eb 02		 jmp	 SHORT $LN3@ToBaseChar
$LN1@ToBaseChar:

; 4329 : 		return NULL;

  00038	33 c0		 xor	 eax, eax
$LN3@ToBaseChar:
  0003a	5e		 pop	 esi

; 4332 : }

  0003b	5d		 pop	 ebp
  0003c	c3		 ret	 0
?ToBaseChar@@YAPAVioBaseChar@@PAVioGameEntity@@@Z ENDP	; ToBaseChar
_TEXT	ENDS
PUBLIC	??_R0?AVioNpcChar@@@8				; ioNpcChar `RTTI Type Descriptor'
PUBLIC	?ToNpcChar@@YAPAVioNpcChar@@PAVioGameEntity@@@Z	; ToNpcChar
;	COMDAT ??_R0?AVioNpcChar@@@8
; File d:\lost saga for developer\youtube\tutorial\source\src\lsclient\ionpcchar.h
_DATA	SEGMENT
??_R0?AVioNpcChar@@@8 DD FLAT:??_7type_info@@6B@	; ioNpcChar `RTTI Type Descriptor'
	DD	00H
	DB	'.?AVioNpcChar@@', 00H
; Function compile flags: /Ogsp
_DATA	ENDS
;	COMDAT ?ToNpcChar@@YAPAVioNpcChar@@PAVioGameEntity@@@Z
_TEXT	SEGMENT
_pObj$ = 8						; size = 4
?ToNpcChar@@YAPAVioNpcChar@@PAVioGameEntity@@@Z PROC	; ToNpcChar, COMDAT

; 361  : {

  00000	55		 push	 ebp
  00001	8b ec		 mov	 ebp, esp
  00003	56		 push	 esi

; 362  : 	ioBaseChar *pChar = ToBaseChar( pObj );

  00004	ff 75 08	 push	 DWORD PTR _pObj$[ebp]
  00007	e8 00 00 00 00	 call	 ?ToBaseChar@@YAPAVioBaseChar@@PAVioGameEntity@@@Z ; ToBaseChar
  0000c	8b f0		 mov	 esi, eax
  0000e	59		 pop	 ecx

; 363  : 	if( !pChar || pChar->GetControlType() != CONTROL_AI )

  0000f	85 f6		 test	 esi, esi
  00011	74 28		 je	 SHORT $LN1@ToNpcChar
  00013	8b 06		 mov	 eax, DWORD PTR [esi]
  00015	8b ce		 mov	 ecx, esi
  00017	ff 90 ec 00 00
	00		 call	 DWORD PTR [eax+236]
  0001d	83 f8 02	 cmp	 eax, 2
  00020	75 19		 jne	 SHORT $LN1@ToNpcChar

; 365  : 
; 366  : 	return dynamic_cast< ioNpcChar* >(pChar);

  00022	6a 00		 push	 0
  00024	68 00 00 00 00	 push	 OFFSET ??_R0?AVioNpcChar@@@8
  00029	68 00 00 00 00	 push	 OFFSET ??_R0?AVioBaseChar@@@8
  0002e	6a 00		 push	 0
  00030	56		 push	 esi
  00031	e8 00 00 00 00	 call	 ___RTDynamicCast
  00036	83 c4 14	 add	 esp, 20			; 00000014H
  00039	eb 02		 jmp	 SHORT $LN3@ToNpcChar
$LN1@ToNpcChar:

; 364  : 		return NULL;

  0003b	33 c0		 xor	 eax, eax
$LN3@ToNpcChar:
  0003d	5e		 pop	 esi

; 367  : }

  0003e	5d		 pop	 ebp
  0003f	c3		 ret	 0
?ToNpcChar@@YAPAVioNpcChar@@PAVioGameEntity@@@Z ENDP	; ToNpcChar
_TEXT	ENDS
PUBLIC	?GetHandEntity@ioClientAniEventHandler@@IAEPAVioEntity@@XZ ; ioClientAniEventHandler::GetHandEntity
EXTRN	__imp_?GetEntity@ioEntityGroup@@QAEPAVioEntity@@ABVioHashString@@@Z:PROC
EXTRN	__imp_?IsEmpty@ioHashString@@QBE_NXZ:PROC
EXTRN	?GetBodyMesh@ioArmorItem@@QBEABVioHashString@@PAVioBaseChar@@@Z:PROC ; ioArmorItem::GetBodyMesh
EXTRN	?GetHandMesh@ioArmorItem@@QBEABVioHashString@@PAVioBaseChar@@@Z:PROC ; ioArmorItem::GetHandMesh
EXTRN	?HasHandMesh@ioArmorItem@@QBE_NPAVioBaseChar@@@Z:PROC ; ioArmorItem::HasHandMesh
EXTRN	?GetArmor@ioBaseChar@@QBEPAVioArmorItem@@XZ:PROC ; ioBaseChar::GetArmor
;	COMDAT xdata$x
; File d:\lost saga for developer\youtube\tutorial\source\src\lsclient\ioequipslot.h
xdata$x	SEGMENT
__unwindtable$?GetHandEntity@ioClientAniEventHandler@@IAEPAVioEntity@@XZ DD 0ffffffffH
	DD	FLAT:__unwindfunclet$?GetHandEntity@ioClientAniEventHandler@@IAEPAVioEntity@@XZ$0
__ehfuncinfo$?GetHandEntity@ioClientAniEventHandler@@IAEPAVioEntity@@XZ DD 019930522H
	DD	01H
	DD	FLAT:__unwindtable$?GetHandEntity@ioClientAniEventHandler@@IAEPAVioEntity@@XZ
	DD	2 DUP(00H)
	DD	2 DUP(00H)
	DD	00H
	DD	01H
; Function compile flags: /Ogsp
; File d:\lost saga for developer\youtube\tutorial\source\src\lsclient\ioclientanieventhandler.cpp
xdata$x	ENDS
;	COMDAT ?GetHandEntity@ioClientAniEventHandler@@IAEPAVioEntity@@XZ
_TEXT	SEGMENT
_szMeshName$ = -28					; size = 16
__$EHRec$ = -12						; size = 12
?GetHandEntity@ioClientAniEventHandler@@IAEPAVioEntity@@XZ PROC ; ioClientAniEventHandler::GetHandEntity, COMDAT
; _this$ = ecx

; 621  : {

  00000	6a 10		 push	 16			; 00000010H
  00002	b8 00 00 00 00	 mov	 eax, __ehhandler$?GetHandEntity@ioClientAniEventHandler@@IAEPAVioEntity@@XZ
  00007	e8 00 00 00 00	 call	 __EH_prolog3
  0000c	8b f1		 mov	 esi, ecx

; 622  : 	if( !m_pChar )	return NULL;

  0000e	83 7e 18 00	 cmp	 DWORD PTR [esi+24], 0
  00012	75 08		 jne	 SHORT $LN6@GetHandEnt
  00014	33 c0		 xor	 eax, eax
$LN7@GetHandEnt:

; 643  : }

  00016	e8 00 00 00 00	 call	 __EH_epilog3
  0001b	c3		 ret	 0
$LN6@GetHandEnt:

; 623  : 
; 624  : 	ioHashString szMeshName;

  0001c	8d 4d e4	 lea	 ecx, DWORD PTR _szMeshName$[ebp]
  0001f	ff 15 00 00 00
	00		 call	 DWORD PTR __imp_??0ioHashString@@QAE@XZ

; 625  : 
; 626  : 	ioArmorItem *pArmor = m_pChar->GetArmor();

  00025	8b 4e 18	 mov	 ecx, DWORD PTR [esi+24]
  00028	83 65 fc 00	 and	 DWORD PTR __$EHRec$[ebp+8], 0
  0002c	e8 00 00 00 00	 call	 ?GetArmor@ioBaseChar@@QBEPAVioArmorItem@@XZ ; ioBaseChar::GetArmor
  00031	8b f8		 mov	 edi, eax

; 627  : 	if( pArmor )

  00033	85 ff		 test	 edi, edi
  00035	74 21		 je	 SHORT $LN5@GetHandEnt

; 628  : 	{
; 629  : 		if( pArmor->HasHandMesh(m_pChar) )

  00037	ff 76 18	 push	 DWORD PTR [esi+24]
  0003a	8b cf		 mov	 ecx, edi
  0003c	e8 00 00 00 00	 call	 ?HasHandMesh@ioArmorItem@@QBE_NPAVioBaseChar@@@Z ; ioArmorItem::HasHandMesh

; 630  : 			szMeshName = pArmor->GetHandMesh(m_pChar);

  00041	ff 76 18	 push	 DWORD PTR [esi+24]
  00044	8b cf		 mov	 ecx, edi
  00046	84 c0		 test	 al, al
  00048	74 07		 je	 SHORT $LN4@GetHandEnt
  0004a	e8 00 00 00 00	 call	 ?GetHandMesh@ioArmorItem@@QBEABVioHashString@@PAVioBaseChar@@@Z ; ioArmorItem::GetHandMesh

; 631  : 		else

  0004f	eb 15		 jmp	 SHORT $LN16@GetHandEnt
$LN4@GetHandEnt:

; 632  : 			szMeshName = pArmor->GetBodyMesh(m_pChar);

  00051	e8 00 00 00 00	 call	 ?GetBodyMesh@ioArmorItem@@QBEABVioHashString@@PAVioBaseChar@@@Z ; ioArmorItem::GetBodyMesh

; 633  : 	}
; 634  : 	else

  00056	eb 0e		 jmp	 SHORT $LN16@GetHandEnt
$LN5@GetHandEnt:

; 635  : 	{
; 636  : 		szMeshName = m_pChar->GetEquipSlot()->GetDefaultHandMesh();

  00058	8b 46 18	 mov	 eax, DWORD PTR [esi+24]
  0005b	8b 80 48 03 00
	00		 mov	 eax, DWORD PTR [eax+840]
  00061	05 2c 01 00 00	 add	 eax, 300		; 0000012cH
$LN16@GetHandEnt:
  00066	50		 push	 eax
  00067	8d 4d e4	 lea	 ecx, DWORD PTR _szMeshName$[ebp]
  0006a	ff 15 00 00 00
	00		 call	 DWORD PTR __imp_??4ioHashString@@QAEAAV0@ABV0@@Z

; 637  : 	}
; 638  : 
; 639  : 	if( szMeshName.IsEmpty() )

  00070	8d 4d e4	 lea	 ecx, DWORD PTR _szMeshName$[ebp]
  00073	ff 15 00 00 00
	00		 call	 DWORD PTR __imp_?IsEmpty@ioHashString@@QBE_NXZ
  00079	84 c0		 test	 al, al
  0007b	74 13		 je	 SHORT $LN1@GetHandEnt
  0007d	33 f6		 xor	 esi, esi
$LN14@GetHandEnt:

; 640  : 		return NULL;

  0007f	83 4d fc ff	 or	 DWORD PTR __$EHRec$[ebp+8], -1
  00083	8d 4d e4	 lea	 ecx, DWORD PTR _szMeshName$[ebp]
  00086	ff 15 00 00 00
	00		 call	 DWORD PTR __imp_??1ioHashString@@QAE@XZ
  0008c	8b c6		 mov	 eax, esi
  0008e	eb 86		 jmp	 SHORT $LN7@GetHandEnt
$LN1@GetHandEnt:

; 641  : 
; 642  : 	return m_pOwner->GetEntity( szMeshName );

  00090	8b 4e 04	 mov	 ecx, DWORD PTR [esi+4]
  00093	8d 45 e4	 lea	 eax, DWORD PTR _szMeshName$[ebp]
  00096	50		 push	 eax
  00097	ff 15 00 00 00
	00		 call	 DWORD PTR __imp_?GetEntity@ioEntityGroup@@QAEPAVioEntity@@ABVioHashString@@@Z
  0009d	8b f0		 mov	 esi, eax
  0009f	eb de		 jmp	 SHORT $LN14@GetHandEnt
_TEXT	ENDS
;	COMDAT text$x
text$x	SEGMENT
__unwindfunclet$?GetHandEntity@ioClientAniEventHandler@@IAEPAVioEntity@@XZ$0:
  00000	8d 4d e4	 lea	 ecx, DWORD PTR _szMeshName$[ebp]
  00003	ff 25 00 00 00
	00		 jmp	 DWORD PTR __imp_??1ioHashString@@QAE@XZ
__ehhandler$?GetHandEntity@ioClientAniEventHandler@@IAEPAVioEntity@@XZ:
  00009	8b 54 24 08	 mov	 edx, DWORD PTR [esp+8]
  0000d	8d 42 0c	 lea	 eax, DWORD PTR [edx+12]
  00010	8b 4a e0	 mov	 ecx, DWORD PTR [edx-32]
  00013	33 c8		 xor	 ecx, eax
  00015	e8 00 00 00 00	 call	 @__security_check_cookie@4
  0001a	b8 00 00 00 00	 mov	 eax, OFFSET __ehfuncinfo$?GetHandEntity@ioClientAniEventHandler@@IAEPAVioEntity@@XZ
  0001f	e9 00 00 00 00	 jmp	 ___CxxFrameHandler3
text$x	ENDS
?GetHandEntity@ioClientAniEventHandler@@IAEPAVioEntity@@XZ ENDP ; ioClientAniEventHandler::GetHandEntity
PUBLIC	?GetLegEntity@ioClientAniEventHandler@@IAEPAVioEntity@@XZ ; ioClientAniEventHandler::GetLegEntity
;	COMDAT xdata$x
; File d:\lost saga for developer\youtube\tutorial\source\src\lsclient\ioequipslot.h
xdata$x	SEGMENT
__unwindtable$?GetLegEntity@ioClientAniEventHandler@@IAEPAVioEntity@@XZ DD 0ffffffffH
	DD	FLAT:__unwindfunclet$?GetLegEntity@ioClientAniEventHandler@@IAEPAVioEntity@@XZ$0
__ehfuncinfo$?GetLegEntity@ioClientAniEventHandler@@IAEPAVioEntity@@XZ DD 019930522H
	DD	01H
	DD	FLAT:__unwindtable$?GetLegEntity@ioClientAniEventHandler@@IAEPAVioEntity@@XZ
	DD	2 DUP(00H)
	DD	2 DUP(00H)
	DD	00H
	DD	01H
; Function compile flags: /Ogsp
; File d:\lost saga for developer\youtube\tutorial\source\src\lsclient\ioclientanieventhandler.cpp
xdata$x	ENDS
;	COMDAT ?GetLegEntity@ioClientAniEventHandler@@IAEPAVioEntity@@XZ
_TEXT	SEGMENT
_szMeshName$ = -28					; size = 16
__$EHRec$ = -12						; size = 12
?GetLegEntity@ioClientAniEventHandler@@IAEPAVioEntity@@XZ PROC ; ioClientAniEventHandler::GetLegEntity, COMDAT
; _this$ = ecx

; 646  : {

  00000	6a 10		 push	 16			; 00000010H
  00002	b8 00 00 00 00	 mov	 eax, __ehhandler$?GetLegEntity@ioClientAniEventHandler@@IAEPAVioEntity@@XZ
  00007	e8 00 00 00 00	 call	 __EH_prolog3
  0000c	8b f1		 mov	 esi, ecx

; 647  : 	if( !m_pChar )	return NULL;

  0000e	83 7e 18 00	 cmp	 DWORD PTR [esi+24], 0
  00012	75 08		 jne	 SHORT $LN4@GetLegEnti
  00014	33 c0		 xor	 eax, eax
$LN5@GetLegEnti:

; 665  : }

  00016	e8 00 00 00 00	 call	 __EH_epilog3
  0001b	c3		 ret	 0
$LN4@GetLegEnti:

; 648  : 
; 649  : 	ioHashString szMeshName;

  0001c	8d 4d e4	 lea	 ecx, DWORD PTR _szMeshName$[ebp]
  0001f	ff 15 00 00 00
	00		 call	 DWORD PTR __imp_??0ioHashString@@QAE@XZ

; 650  : 
; 651  : 	ioArmorItem *pArmor = m_pChar->GetArmor();

  00025	8b 4e 18	 mov	 ecx, DWORD PTR [esi+24]
  00028	83 65 fc 00	 and	 DWORD PTR __$EHRec$[ebp+8], 0
  0002c	e8 00 00 00 00	 call	 ?GetArmor@ioBaseChar@@QBEPAVioArmorItem@@XZ ; ioBaseChar::GetArmor

; 652  : 	if( pArmor )

  00031	85 c0		 test	 eax, eax
  00033	74 0c		 je	 SHORT $LN3@GetLegEnti

; 653  : 	{
; 654  : 		szMeshName = pArmor->GetBodyMesh(m_pChar);

  00035	ff 76 18	 push	 DWORD PTR [esi+24]
  00038	8b c8		 mov	 ecx, eax
  0003a	e8 00 00 00 00	 call	 ?GetBodyMesh@ioArmorItem@@QBEABVioHashString@@PAVioBaseChar@@@Z ; ioArmorItem::GetBodyMesh

; 655  : 	}
; 656  : 	else

  0003f	eb 0e		 jmp	 SHORT $LN14@GetLegEnti
$LN3@GetLegEnti:

; 657  : 	{
; 658  : 		szMeshName = m_pChar->GetEquipSlot()->GetDefaultUnderwearMesh();

  00041	8b 46 18	 mov	 eax, DWORD PTR [esi+24]
  00044	8b 80 48 03 00
	00		 mov	 eax, DWORD PTR [eax+840]
  0004a	05 8c 00 00 00	 add	 eax, 140		; 0000008cH
$LN14@GetLegEnti:
  0004f	50		 push	 eax
  00050	8d 4d e4	 lea	 ecx, DWORD PTR _szMeshName$[ebp]
  00053	ff 15 00 00 00
	00		 call	 DWORD PTR __imp_??4ioHashString@@QAEAAV0@ABV0@@Z

; 659  : 	}
; 660  : 
; 661  : 	if( szMeshName.IsEmpty() )

  00059	8d 4d e4	 lea	 ecx, DWORD PTR _szMeshName$[ebp]
  0005c	ff 15 00 00 00
	00		 call	 DWORD PTR __imp_?IsEmpty@ioHashString@@QBE_NXZ
  00062	84 c0		 test	 al, al
  00064	74 13		 je	 SHORT $LN1@GetLegEnti
  00066	33 f6		 xor	 esi, esi
$LN12@GetLegEnti:

; 662  : 		return NULL;

  00068	83 4d fc ff	 or	 DWORD PTR __$EHRec$[ebp+8], -1
  0006c	8d 4d e4	 lea	 ecx, DWORD PTR _szMeshName$[ebp]
  0006f	ff 15 00 00 00
	00		 call	 DWORD PTR __imp_??1ioHashString@@QAE@XZ
  00075	8b c6		 mov	 eax, esi
  00077	eb 9d		 jmp	 SHORT $LN5@GetLegEnti
$LN1@GetLegEnti:

; 663  : 
; 664  : 	return m_pOwner->GetEntity( szMeshName );

  00079	8b 4e 04	 mov	 ecx, DWORD PTR [esi+4]
  0007c	8d 45 e4	 lea	 eax, DWORD PTR _szMeshName$[ebp]
  0007f	50		 push	 eax
  00080	ff 15 00 00 00
	00		 call	 DWORD PTR __imp_?GetEntity@ioEntityGroup@@QAEPAVioEntity@@ABVioHashString@@@Z
  00086	8b f0		 mov	 esi, eax
  00088	eb de		 jmp	 SHORT $LN12@GetLegEnti
_TEXT	ENDS
;	COMDAT text$x
text$x	SEGMENT
__unwindfunclet$?GetLegEntity@ioClientAniEventHandler@@IAEPAVioEntity@@XZ$0:
  00000	8d 4d e4	 lea	 ecx, DWORD PTR _szMeshName$[ebp]
  00003	ff 25 00 00 00
	00		 jmp	 DWORD PTR __imp_??1ioHashString@@QAE@XZ
__ehhandler$?GetLegEntity@ioClientAniEventHandler@@IAEPAVioEntity@@XZ:
  00009	8b 54 24 08	 mov	 edx, DWORD PTR [esp+8]
  0000d	8d 42 0c	 lea	 eax, DWORD PTR [edx+12]
  00010	8b 4a e0	 mov	 ecx, DWORD PTR [edx-32]
  00013	33 c8		 xor	 ecx, eax
  00015	e8 00 00 00 00	 call	 @__security_check_cookie@4
  0001a	b8 00 00 00 00	 mov	 eax, OFFSET __ehfuncinfo$?GetLegEntity@ioClientAniEventHandler@@IAEPAVioEntity@@XZ
  0001f	e9 00 00 00 00	 jmp	 ___CxxFrameHandler3
text$x	ENDS
?GetLegEntity@ioClientAniEventHandler@@IAEPAVioEntity@@XZ ENDP ; ioClientAniEventHandler::GetLegEntity
PUBLIC	??0?$_Vector_iterator@V?$_Vector_val@UAniEventInfo@@V?$allocator@UAniEventInfo@@@std@@@std@@@std@@QAE@XZ ; std::_Vector_iterator<std::_Vector_val<AniEventInfo,std::allocator<AniEventInfo> > >::_Vector_iterator<std::_Vector_val<AniEventInfo,std::allocator<AniEventInfo> > >
; Function compile flags: /Ogsp
; File c:\program files (x86)\microsoft visual studio 10.0\vc\include\vector
;	COMDAT ??0?$_Vector_iterator@V?$_Vector_val@UAniEventInfo@@V?$allocator@UAniEventInfo@@@std@@@std@@@std@@QAE@XZ
_TEXT	SEGMENT
??0?$_Vector_iterator@V?$_Vector_val@UAniEventInfo@@V?$allocator@UAniEventInfo@@@std@@@std@@@std@@QAE@XZ PROC ; std::_Vector_iterator<std::_Vector_val<AniEventInfo,std::allocator<AniEventInfo> > >::_Vector_iterator<std::_Vector_val<AniEventInfo,std::allocator<AniEventInfo> > >, COMDAT
; _this$ = ecx

; 298  : 	_Vector_iterator()

  00000	8b c1		 mov	 eax, ecx
  00002	83 20 00	 and	 DWORD PTR [eax], 0

; 299  : 		{	// construct with null vector pointer
; 300  : 		}

  00005	c3		 ret	 0
??0?$_Vector_iterator@V?$_Vector_val@UAniEventInfo@@V?$allocator@UAniEventInfo@@@std@@@std@@@std@@QAE@XZ ENDP ; std::_Vector_iterator<std::_Vector_val<AniEventInfo,std::allocator<AniEventInfo> > >::_Vector_iterator<std::_Vector_val<AniEventInfo,std::allocator<AniEventInfo> > >
_TEXT	ENDS
PUBLIC	??D?$_Vector_iterator@V?$_Vector_val@UAniEventInfo@@V?$allocator@UAniEventInfo@@@std@@@std@@@std@@QBEAAUAniEventInfo@@XZ ; std::_Vector_iterator<std::_Vector_val<AniEventInfo,std::allocator<AniEventInfo> > >::operator*
; Function compile flags: /Ogsp
;	COMDAT ??D?$_Vector_iterator@V?$_Vector_val@UAniEventInfo@@V?$allocator@UAniEventInfo@@@std@@@std@@@std@@QBEAAUAniEventInfo@@XZ
_TEXT	SEGMENT
??D?$_Vector_iterator@V?$_Vector_val@UAniEventInfo@@V?$allocator@UAniEventInfo@@@std@@@std@@@std@@QBEAAUAniEventInfo@@XZ PROC ; std::_Vector_iterator<std::_Vector_val<AniEventInfo,std::allocator<AniEventInfo> > >::operator*, COMDAT
; _this$ = ecx

; 322  : 		return ((reference)**(_Mybase *)this);

  00000	8b 01		 mov	 eax, DWORD PTR [ecx]

; 323  : 		}

  00002	c3		 ret	 0
??D?$_Vector_iterator@V?$_Vector_val@UAniEventInfo@@V?$allocator@UAniEventInfo@@@std@@@std@@@std@@QBEAAUAniEventInfo@@XZ ENDP ; std::_Vector_iterator<std::_Vector_val<AniEventInfo,std::allocator<AniEventInfo> > >::operator*
_TEXT	ENDS
PUBLIC	??E?$_Vector_iterator@V?$_Vector_val@UAniEventInfo@@V?$allocator@UAniEventInfo@@@std@@@std@@@std@@QAEAAV01@XZ ; std::_Vector_iterator<std::_Vector_val<AniEventInfo,std::allocator<AniEventInfo> > >::operator++
; Function compile flags: /Ogsp
;	COMDAT ??E?$_Vector_iterator@V?$_Vector_val@UAniEventInfo@@V?$allocator@UAniEventInfo@@@std@@@std@@@std@@QAEAAV01@XZ
_TEXT	SEGMENT
??E?$_Vector_iterator@V?$_Vector_val@UAniEventInfo@@V?$allocator@UAniEventInfo@@@std@@@std@@@std@@QAEAAV01@XZ PROC ; std::_Vector_iterator<std::_Vector_val<AniEventInfo,std::allocator<AniEventInfo> > >::operator++, COMDAT
; _this$ = ecx

; 331  : 		{	// preincrement

  00000	8b c1		 mov	 eax, ecx

; 332  : 		++*(_Mybase *)this;

  00002	83 00 20	 add	 DWORD PTR [eax], 32	; 00000020H

; 333  : 		return (*this);
; 334  : 		}

  00005	c3		 ret	 0
??E?$_Vector_iterator@V?$_Vector_val@UAniEventInfo@@V?$allocator@UAniEventInfo@@@std@@@std@@@std@@QAEAAV01@XZ ENDP ; std::_Vector_iterator<std::_Vector_val<AniEventInfo,std::allocator<AniEventInfo> > >::operator++
_TEXT	ENDS
PUBLIC	??E?$_Vector_iterator@V?$_Vector_val@UAniEventInfo@@V?$allocator@UAniEventInfo@@@std@@@std@@@std@@QAE?AV01@H@Z ; std::_Vector_iterator<std::_Vector_val<AniEventInfo,std::allocator<AniEventInfo> > >::operator++
; Function compile flags: /Ogsp
;	COMDAT ??E?$_Vector_iterator@V?$_Vector_val@UAniEventInfo@@V?$allocator@UAniEventInfo@@@std@@@std@@@std@@QAE?AV01@H@Z
_TEXT	SEGMENT
___$ReturnUdt$ = 8					; size = 4
___formal$ = 12						; size = 4
??E?$_Vector_iterator@V?$_Vector_val@UAniEventInfo@@V?$allocator@UAniEventInfo@@@std@@@std@@@std@@QAE?AV01@H@Z PROC ; std::_Vector_iterator<std::_Vector_val<AniEventInfo,std::allocator<AniEventInfo> > >::operator++, COMDAT
; _this$ = ecx

; 337  : 		{	// postincrement

  00000	55		 push	 ebp
  00001	8b ec		 mov	 ebp, esp

; 338  : 		_Myiter _Tmp = *this;

  00003	8b 11		 mov	 edx, DWORD PTR [ecx]
  00005	8b 45 08	 mov	 eax, DWORD PTR ___$ReturnUdt$[ebp]
  00008	89 10		 mov	 DWORD PTR [eax], edx

; 339  : 		++*this;

  0000a	83 c2 20	 add	 edx, 32			; 00000020H
  0000d	89 11		 mov	 DWORD PTR [ecx], edx

; 340  : 		return (_Tmp);
; 341  : 		}

  0000f	5d		 pop	 ebp
  00010	c2 08 00	 ret	 8
??E?$_Vector_iterator@V?$_Vector_val@UAniEventInfo@@V?$allocator@UAniEventInfo@@@std@@@std@@@std@@QAE?AV01@H@Z ENDP ; std::_Vector_iterator<std::_Vector_val<AniEventInfo,std::allocator<AniEventInfo> > >::operator++
_TEXT	ENDS
PUBLIC	??D?$_Vector_iterator@V?$_Vector_val@UtagAniSoundEventInfo@@V?$allocator@UtagAniSoundEventInfo@@@std@@@std@@@std@@QBEAAUtagAniSoundEventInfo@@XZ ; std::_Vector_iterator<std::_Vector_val<tagAniSoundEventInfo,std::allocator<tagAniSoundEventInfo> > >::operator*
; Function compile flags: /Ogsp
;	COMDAT ??D?$_Vector_iterator@V?$_Vector_val@UtagAniSoundEventInfo@@V?$allocator@UtagAniSoundEventInfo@@@std@@@std@@@std@@QBEAAUtagAniSoundEventInfo@@XZ
_TEXT	SEGMENT
??D?$_Vector_iterator@V?$_Vector_val@UtagAniSoundEventInfo@@V?$allocator@UtagAniSoundEventInfo@@@std@@@std@@@std@@QBEAAUtagAniSoundEventInfo@@XZ PROC ; std::_Vector_iterator<std::_Vector_val<tagAniSoundEventInfo,std::allocator<tagAniSoundEventInfo> > >::operator*, COMDAT
; _this$ = ecx

; 322  : 		return ((reference)**(_Mybase *)this);

  00000	8b 01		 mov	 eax, DWORD PTR [ecx]

; 323  : 		}

  00002	c3		 ret	 0
??D?$_Vector_iterator@V?$_Vector_val@UtagAniSoundEventInfo@@V?$allocator@UtagAniSoundEventInfo@@@std@@@std@@@std@@QBEAAUtagAniSoundEventInfo@@XZ ENDP ; std::_Vector_iterator<std::_Vector_val<tagAniSoundEventInfo,std::allocator<tagAniSoundEventInfo> > >::operator*
_TEXT	ENDS
PUBLIC	??E?$_Vector_iterator@V?$_Vector_val@UtagAniSoundEventInfo@@V?$allocator@UtagAniSoundEventInfo@@@std@@@std@@@std@@QAEAAV01@XZ ; std::_Vector_iterator<std::_Vector_val<tagAniSoundEventInfo,std::allocator<tagAniSoundEventInfo> > >::operator++
; Function compile flags: /Ogsp
;	COMDAT ??E?$_Vector_iterator@V?$_Vector_val@UtagAniSoundEventInfo@@V?$allocator@UtagAniSoundEventInfo@@@std@@@std@@@std@@QAEAAV01@XZ
_TEXT	SEGMENT
??E?$_Vector_iterator@V?$_Vector_val@UtagAniSoundEventInfo@@V?$allocator@UtagAniSoundEventInfo@@@std@@@std@@@std@@QAEAAV01@XZ PROC ; std::_Vector_iterator<std::_Vector_val<tagAniSoundEventInfo,std::allocator<tagAniSoundEventInfo> > >::operator++, COMDAT
; _this$ = ecx

; 331  : 		{	// preincrement

  00000	8b c1		 mov	 eax, ecx

; 332  : 		++*(_Mybase *)this;

  00002	83 00 24	 add	 DWORD PTR [eax], 36	; 00000024H

; 333  : 		return (*this);
; 334  : 		}

  00005	c3		 ret	 0
??E?$_Vector_iterator@V?$_Vector_val@UtagAniSoundEventInfo@@V?$allocator@UtagAniSoundEventInfo@@@std@@@std@@@std@@QAEAAV01@XZ ENDP ; std::_Vector_iterator<std::_Vector_val<tagAniSoundEventInfo,std::allocator<tagAniSoundEventInfo> > >::operator++
_TEXT	ENDS
PUBLIC	??0?$_List_const_iterator@V?$_List_val@PBVioMeshControlPoint@@V?$allocator@PBVioMeshControlPoint@@@std@@@std@@@std@@QAE@XZ ; std::_List_const_iterator<std::_List_val<ioMeshControlPoint const *,std::allocator<ioMeshControlPoint const *> > >::_List_const_iterator<std::_List_val<ioMeshControlPoint const *,std::allocator<ioMeshControlPoint const *> > >
; Function compile flags: /Ogsp
; File c:\program files (x86)\microsoft visual studio 10.0\vc\include\list
;	COMDAT ??0?$_List_const_iterator@V?$_List_val@PBVioMeshControlPoint@@V?$allocator@PBVioMeshControlPoint@@@std@@@std@@@std@@QAE@XZ
_TEXT	SEGMENT
??0?$_List_const_iterator@V?$_List_val@PBVioMeshControlPoint@@V?$allocator@PBVioMeshControlPoint@@@std@@@std@@@std@@QAE@XZ PROC ; std::_List_const_iterator<std::_List_val<ioMeshControlPoint const *,std::allocator<ioMeshControlPoint const *> > >::_List_const_iterator<std::_List_val<ioMeshControlPoint const *,std::allocator<ioMeshControlPoint const *> > >, COMDAT
; _this$ = ecx

; 179  : 		{	// construct with null node pointer

  00000	8b c1		 mov	 eax, ecx
  00002	83 20 00	 and	 DWORD PTR [eax], 0

; 180  : 		}

  00005	c3		 ret	 0
??0?$_List_const_iterator@V?$_List_val@PBVioMeshControlPoint@@V?$allocator@PBVioMeshControlPoint@@@std@@@std@@@std@@QAE@XZ ENDP ; std::_List_const_iterator<std::_List_val<ioMeshControlPoint const *,std::allocator<ioMeshControlPoint const *> > >::_List_const_iterator<std::_List_val<ioMeshControlPoint const *,std::allocator<ioMeshControlPoint const *> > >
_TEXT	ENDS
PUBLIC	??D?$_List_const_iterator@V?$_List_val@PBVioMeshControlPoint@@V?$allocator@PBVioMeshControlPoint@@@std@@@std@@@std@@QBEABQBVioMeshControlPoint@@XZ ; std::_List_const_iterator<std::_List_val<ioMeshControlPoint const *,std::allocator<ioMeshControlPoint const *> > >::operator*
; Function compile flags: /Ogsp
;	COMDAT ??D?$_List_const_iterator@V?$_List_val@PBVioMeshControlPoint@@V?$allocator@PBVioMeshControlPoint@@@std@@@std@@@std@@QBEABQBVioMeshControlPoint@@XZ
_TEXT	SEGMENT
??D?$_List_const_iterator@V?$_List_val@PBVioMeshControlPoint@@V?$allocator@PBVioMeshControlPoint@@@std@@@std@@@std@@QBEABQBVioMeshControlPoint@@XZ PROC ; std::_List_const_iterator<std::_List_val<ioMeshControlPoint const *,std::allocator<ioMeshControlPoint const *> > >::operator*, COMDAT
; _this$ = ecx

; 202  :  #if _ITERATOR_DEBUG_LEVEL == 2
; 203  : 		if (this->_Getcont() == 0
; 204  : 			|| this->_Ptr == 0
; 205  : 			|| this->_Ptr == ((_Mylist *)this->_Getcont())->_Myhead)
; 206  : 			{	// report error
; 207  : 			_DEBUG_ERROR("list iterator not dereferencable");
; 208  : 			_SCL_SECURE_OUT_OF_RANGE;
; 209  : 			}
; 210  : 
; 211  :  #elif _ITERATOR_DEBUG_LEVEL == 1
; 212  : 		_SCL_SECURE_VALIDATE(this->_Getcont() != 0 && this->_Ptr != 0);
; 213  : 		_SCL_SECURE_VALIDATE_RANGE(this->_Ptr !=
; 214  : 			((_Mylist *)this->_Getcont())->_Myhead);
; 215  :  #endif /* _ITERATOR_DEBUG_LEVEL */
; 216  : 
; 217  : 		return (_Mylist::_Myval(this->_Ptr));

  00000	8b 01		 mov	 eax, DWORD PTR [ecx]
  00002	83 c0 08	 add	 eax, 8

; 218  : 		}

  00005	c3		 ret	 0
??D?$_List_const_iterator@V?$_List_val@PBVioMeshControlPoint@@V?$allocator@PBVioMeshControlPoint@@@std@@@std@@@std@@QBEABQBVioMeshControlPoint@@XZ ENDP ; std::_List_const_iterator<std::_List_val<ioMeshControlPoint const *,std::allocator<ioMeshControlPoint const *> > >::operator*
_TEXT	ENDS
PUBLIC	??E?$_List_const_iterator@V?$_List_val@PBVioMeshControlPoint@@V?$allocator@PBVioMeshControlPoint@@@std@@@std@@@std@@QAEAAV01@XZ ; std::_List_const_iterator<std::_List_val<ioMeshControlPoint const *,std::allocator<ioMeshControlPoint const *> > >::operator++
; Function compile flags: /Ogsp
;	COMDAT ??E?$_List_const_iterator@V?$_List_val@PBVioMeshControlPoint@@V?$allocator@PBVioMeshControlPoint@@@std@@@std@@@std@@QAEAAV01@XZ
_TEXT	SEGMENT
??E?$_List_const_iterator@V?$_List_val@PBVioMeshControlPoint@@V?$allocator@PBVioMeshControlPoint@@@std@@@std@@@std@@QAEAAV01@XZ PROC ; std::_List_const_iterator<std::_List_val<ioMeshControlPoint const *,std::allocator<ioMeshControlPoint const *> > >::operator++, COMDAT
; _this$ = ecx

; 221  : 		{	// preincrement

  00000	8b c1		 mov	 eax, ecx

; 222  :  #if _ITERATOR_DEBUG_LEVEL == 2
; 223  : 		if (this->_Getcont() == 0
; 224  : 			|| this->_Ptr == 0
; 225  : 			|| this->_Ptr == ((_Mylist *)this->_Getcont())->_Myhead)
; 226  : 			{	// report error
; 227  : 			_DEBUG_ERROR("list iterator not incrementable");
; 228  : 			_SCL_SECURE_OUT_OF_RANGE;
; 229  : 			}
; 230  : 
; 231  :  #elif _ITERATOR_DEBUG_LEVEL == 1
; 232  : 		_SCL_SECURE_VALIDATE(this->_Getcont() != 0 && this->_Ptr != 0);
; 233  : 		_SCL_SECURE_VALIDATE_RANGE(this->_Ptr !=
; 234  : 			((_Mylist *)this->_Getcont())->_Myhead);
; 235  :  #endif /* _ITERATOR_DEBUG_LEVEL */
; 236  : 
; 237  : 		this->_Ptr = _Mylist::_Nextnode(this->_Ptr);

  00002	8b 08		 mov	 ecx, DWORD PTR [eax]
  00004	8b 09		 mov	 ecx, DWORD PTR [ecx]
  00006	89 08		 mov	 DWORD PTR [eax], ecx

; 238  : 		return (*this);
; 239  : 		}

  00008	c3		 ret	 0
??E?$_List_const_iterator@V?$_List_val@PBVioMeshControlPoint@@V?$allocator@PBVioMeshControlPoint@@@std@@@std@@@std@@QAEAAV01@XZ ENDP ; std::_List_const_iterator<std::_List_val<ioMeshControlPoint const *,std::allocator<ioMeshControlPoint const *> > >::operator++
_TEXT	ENDS
PUBLIC	??9?$_List_const_iterator@V?$_List_val@PBVioMeshControlPoint@@V?$allocator@PBVioMeshControlPoint@@@std@@@std@@@std@@QBE_NABV01@@Z ; std::_List_const_iterator<std::_List_val<ioMeshControlPoint const *,std::allocator<ioMeshControlPoint const *> > >::operator!=
; Function compile flags: /Ogsp
;	COMDAT ??9?$_List_const_iterator@V?$_List_val@PBVioMeshControlPoint@@V?$allocator@PBVioMeshControlPoint@@@std@@@std@@@std@@QBE_NABV01@@Z
_TEXT	SEGMENT
__Right$ = 8						; size = 4
??9?$_List_const_iterator@V?$_List_val@PBVioMeshControlPoint@@V?$allocator@PBVioMeshControlPoint@@@std@@@std@@@std@@QBE_NABV01@@Z PROC ; std::_List_const_iterator<std::_List_val<ioMeshControlPoint const *,std::allocator<ioMeshControlPoint const *> > >::operator!=, COMDAT
; _this$ = ecx

; 299  : 		{	// test for iterator inequality

  00000	55		 push	 ebp
  00001	8b ec		 mov	 ebp, esp

; 300  : 		return (!(*this == _Right));

  00003	8b 01		 mov	 eax, DWORD PTR [ecx]
  00005	8b 55 08	 mov	 edx, DWORD PTR __Right$[ebp]
  00008	33 c9		 xor	 ecx, ecx
  0000a	3b 02		 cmp	 eax, DWORD PTR [edx]
  0000c	0f 95 c0	 setne	 al

; 301  : 		}

  0000f	5d		 pop	 ebp
  00010	c2 04 00	 ret	 4
??9?$_List_const_iterator@V?$_List_val@PBVioMeshControlPoint@@V?$allocator@PBVioMeshControlPoint@@@std@@@std@@@std@@QBE_NABV01@@Z ENDP ; std::_List_const_iterator<std::_List_val<ioMeshControlPoint const *,std::allocator<ioMeshControlPoint const *> > >::operator!=
_TEXT	ENDS
PUBLIC	?begin@?$vector@V?$basic_string@DU?$char_traits@D@std@@V?$allocator@D@2@@std@@V?$allocator@V?$basic_string@DU?$char_traits@D@std@@V?$allocator@D@2@@std@@@2@@std@@QBE?AV?$_Vector_const_iterator@V?$_Vector_val@V?$basic_string@DU?$char_traits@D@std@@V?$allocator@D@2@@std@@V?$allocator@V?$basic_string@DU?$char_traits@D@std@@V?$allocator@D@2@@std@@@2@@std@@@2@XZ ; std::vector<std::basic_string<char,std::char_traits<char>,std::allocator<char> >,std::allocator<std::basic_string<char,std::char_traits<char>,std::allocator<char> > > >::begin
; Function compile flags: /Ogsp
; File c:\program files (x86)\microsoft visual studio 10.0\vc\include\vector
;	COMDAT ?begin@?$vector@V?$basic_string@DU?$char_traits@D@std@@V?$allocator@D@2@@std@@V?$allocator@V?$basic_string@DU?$char_traits@D@std@@V?$allocator@D@2@@std@@@2@@std@@QBE?AV?$_Vector_const_iterator@V?$_Vector_val@V?$basic_string@DU?$char_traits@D@std@@V?$allocator@D@2@@std@@V?$allocator@V?$basic_string@DU?$char_traits@D@std@@V?$allocator@D@2@@std@@@2@@std@@@2@XZ
_TEXT	SEGMENT
___$ReturnUdt$ = 8					; size = 4
?begin@?$vector@V?$basic_string@DU?$char_traits@D@std@@V?$allocator@D@2@@std@@V?$allocator@V?$basic_string@DU?$char_traits@D@std@@V?$allocator@D@2@@std@@@2@@std@@QBE?AV?$_Vector_const_iterator@V?$_Vector_val@V?$basic_string@DU?$char_traits@D@std@@V?$allocator@D@2@@std@@V?$allocator@V?$basic_string@DU?$char_traits@D@std@@V?$allocator@D@2@@std@@@2@@std@@@2@XZ PROC ; std::vector<std::basic_string<char,std::char_traits<char>,std::allocator<char> >,std::allocator<std::basic_string<char,std::char_traits<char>,std::allocator<char> > > >::begin, COMDAT
; _this$ = ecx

; 786  : 		{	// return iterator for beginning of nonmutable sequence

  00000	55		 push	 ebp
  00001	8b ec		 mov	 ebp, esp

; 787  : 		return (const_iterator(this->_Myfirst, this));

  00003	8b 09		 mov	 ecx, DWORD PTR [ecx]
  00005	8b 45 08	 mov	 eax, DWORD PTR ___$ReturnUdt$[ebp]
  00008	89 08		 mov	 DWORD PTR [eax], ecx

; 788  : 		}

  0000a	5d		 pop	 ebp
  0000b	c2 04 00	 ret	 4
?begin@?$vector@V?$basic_string@DU?$char_traits@D@std@@V?$allocator@D@2@@std@@V?$allocator@V?$basic_string@DU?$char_traits@D@std@@V?$allocator@D@2@@std@@@2@@std@@QBE?AV?$_Vector_const_iterator@V?$_Vector_val@V?$basic_string@DU?$char_traits@D@std@@V?$allocator@D@2@@std@@V?$allocator@V?$basic_string@DU?$char_traits@D@std@@V?$allocator@D@2@@std@@@2@@std@@@2@XZ ENDP ; std::vector<std::basic_string<char,std::char_traits<char>,std::allocator<char> >,std::allocator<std::basic_string<char,std::char_traits<char>,std::allocator<char> > > >::begin
_TEXT	ENDS
PUBLIC	?end@?$vector@V?$basic_string@DU?$char_traits@D@std@@V?$allocator@D@2@@std@@V?$allocator@V?$basic_string@DU?$char_traits@D@std@@V?$allocator@D@2@@std@@@2@@std@@QBE?AV?$_Vector_const_iterator@V?$_Vector_val@V?$basic_string@DU?$char_traits@D@std@@V?$allocator@D@2@@std@@V?$allocator@V?$basic_string@DU?$char_traits@D@std@@V?$allocator@D@2@@std@@@2@@std@@@2@XZ ; std::vector<std::basic_string<char,std::char_traits<char>,std::allocator<char> >,std::allocator<std::basic_string<char,std::char_traits<char>,std::allocator<char> > > >::end
; Function compile flags: /Ogsp
;	COMDAT ?end@?$vector@V?$basic_string@DU?$char_traits@D@std@@V?$allocator@D@2@@std@@V?$allocator@V?$basic_string@DU?$char_traits@D@std@@V?$allocator@D@2@@std@@@2@@std@@QBE?AV?$_Vector_const_iterator@V?$_Vector_val@V?$basic_string@DU?$char_traits@D@std@@V?$allocator@D@2@@std@@V?$allocator@V?$basic_string@DU?$char_traits@D@std@@V?$allocator@D@2@@std@@@2@@std@@@2@XZ
_TEXT	SEGMENT
___$ReturnUdt$ = 8					; size = 4
?end@?$vector@V?$basic_string@DU?$char_traits@D@std@@V?$allocator@D@2@@std@@V?$allocator@V?$basic_string@DU?$char_traits@D@std@@V?$allocator@D@2@@std@@@2@@std@@QBE?AV?$_Vector_const_iterator@V?$_Vector_val@V?$basic_string@DU?$char_traits@D@std@@V?$allocator@D@2@@std@@V?$allocator@V?$basic_string@DU?$char_traits@D@std@@V?$allocator@D@2@@std@@@2@@std@@@2@XZ PROC ; std::vector<std::basic_string<char,std::char_traits<char>,std::allocator<char> >,std::allocator<std::basic_string<char,std::char_traits<char>,std::allocator<char> > > >::end, COMDAT
; _this$ = ecx

; 796  : 		{	// return iterator for end of nonmutable sequence

  00000	55		 push	 ebp
  00001	8b ec		 mov	 ebp, esp

; 797  : 		return (const_iterator(this->_Mylast, this));

  00003	8b 49 04	 mov	 ecx, DWORD PTR [ecx+4]
  00006	8b 45 08	 mov	 eax, DWORD PTR ___$ReturnUdt$[ebp]
  00009	89 08		 mov	 DWORD PTR [eax], ecx

; 798  : 		}

  0000b	5d		 pop	 ebp
  0000c	c2 04 00	 ret	 4
?end@?$vector@V?$basic_string@DU?$char_traits@D@std@@V?$allocator@D@2@@std@@V?$allocator@V?$basic_string@DU?$char_traits@D@std@@V?$allocator@D@2@@std@@@2@@std@@QBE?AV?$_Vector_const_iterator@V?$_Vector_val@V?$basic_string@DU?$char_traits@D@std@@V?$allocator@D@2@@std@@V?$allocator@V?$basic_string@DU?$char_traits@D@std@@V?$allocator@D@2@@std@@@2@@std@@@2@XZ ENDP ; std::vector<std::basic_string<char,std::char_traits<char>,std::allocator<char> >,std::allocator<std::basic_string<char,std::char_traits<char>,std::allocator<char> > > >::end
_TEXT	ENDS
PUBLIC	??0?$_Vector_val@V?$basic_string@DU?$char_traits@D@std@@V?$allocator@D@2@@std@@V?$allocator@V?$basic_string@DU?$char_traits@D@std@@V?$allocator@D@2@@std@@@2@@std@@QAE@V?$allocator@V?$basic_string@DU?$char_traits@D@std@@V?$allocator@D@2@@std@@@1@@Z ; std::_Vector_val<std::basic_string<char,std::char_traits<char>,std::allocator<char> >,std::allocator<std::basic_string<char,std::char_traits<char>,std::allocator<char> > > >::_Vector_val<std::basic_string<char,std::char_traits<char>,std::allocator<char> >,std::allocator<std::basic_string<char,std::char_traits<char>,std::allocator<char> > > >
; Function compile flags: /Ogsp
;	COMDAT ??0?$_Vector_val@V?$basic_string@DU?$char_traits@D@std@@V?$allocator@D@2@@std@@V?$allocator@V?$basic_string@DU?$char_traits@D@std@@V?$allocator@D@2@@std@@@2@@std@@QAE@V?$allocator@V?$basic_string@DU?$char_traits@D@std@@V?$allocator@D@2@@std@@@1@@Z
_TEXT	SEGMENT
__Al$ = 8						; size = 1
??0?$_Vector_val@V?$basic_string@DU?$char_traits@D@std@@V?$allocator@D@2@@std@@V?$allocator@V?$basic_string@DU?$char_traits@D@std@@V?$allocator@D@2@@std@@@2@@std@@QAE@V?$allocator@V?$basic_string@DU?$char_traits@D@std@@V?$allocator@D@2@@std@@@1@@Z PROC ; std::_Vector_val<std::basic_string<char,std::char_traits<char>,std::allocator<char> >,std::allocator<std::basic_string<char,std::char_traits<char>,std::allocator<char> > > >::_Vector_val<std::basic_string<char,std::char_traits<char>,std::allocator<char> >,std::allocator<std::basic_string<char,std::char_traits<char>,std::allocator<char> > > >, COMDAT
; _this$ = ecx

; 426  : 		{	// construct allocator from _Al

  00000	8b c1		 mov	 eax, ecx

; 427  : 		_Myfirst = 0;

  00002	33 c9		 xor	 ecx, ecx
  00004	89 08		 mov	 DWORD PTR [eax], ecx

; 428  : 		_Mylast = 0;

  00006	89 48 04	 mov	 DWORD PTR [eax+4], ecx

; 429  : 		_Myend = 0;

  00009	89 48 08	 mov	 DWORD PTR [eax+8], ecx

; 430  : 		}

  0000c	c2 04 00	 ret	 4
??0?$_Vector_val@V?$basic_string@DU?$char_traits@D@std@@V?$allocator@D@2@@std@@V?$allocator@V?$basic_string@DU?$char_traits@D@std@@V?$allocator@D@2@@std@@@2@@std@@QAE@V?$allocator@V?$basic_string@DU?$char_traits@D@std@@V?$allocator@D@2@@std@@@1@@Z ENDP ; std::_Vector_val<std::basic_string<char,std::char_traits<char>,std::allocator<char> >,std::allocator<std::basic_string<char,std::char_traits<char>,std::allocator<char> > > >::_Vector_val<std::basic_string<char,std::char_traits<char>,std::allocator<char> >,std::allocator<std::basic_string<char,std::char_traits<char>,std::allocator<char> > > >
_TEXT	ENDS
PUBLIC	??0?$_Vector_val@UAniEventInfo@@V?$allocator@UAniEventInfo@@@std@@@std@@QAE@V?$allocator@UAniEventInfo@@@1@@Z ; std::_Vector_val<AniEventInfo,std::allocator<AniEventInfo> >::_Vector_val<AniEventInfo,std::allocator<AniEventInfo> >
; Function compile flags: /Ogsp
;	COMDAT ??0?$_Vector_val@UAniEventInfo@@V?$allocator@UAniEventInfo@@@std@@@std@@QAE@V?$allocator@UAniEventInfo@@@1@@Z
_TEXT	SEGMENT
__Al$ = 8						; size = 1
??0?$_Vector_val@UAniEventInfo@@V?$allocator@UAniEventInfo@@@std@@@std@@QAE@V?$allocator@UAniEventInfo@@@1@@Z PROC ; std::_Vector_val<AniEventInfo,std::allocator<AniEventInfo> >::_Vector_val<AniEventInfo,std::allocator<AniEventInfo> >, COMDAT
; _this$ = ecx

; 426  : 		{	// construct allocator from _Al

  00000	8b c1		 mov	 eax, ecx

; 427  : 		_Myfirst = 0;

  00002	33 c9		 xor	 ecx, ecx
  00004	89 08		 mov	 DWORD PTR [eax], ecx

; 428  : 		_Mylast = 0;

  00006	89 48 04	 mov	 DWORD PTR [eax+4], ecx

; 429  : 		_Myend = 0;

  00009	89 48 08	 mov	 DWORD PTR [eax+8], ecx

; 430  : 		}

  0000c	c2 04 00	 ret	 4
??0?$_Vector_val@UAniEventInfo@@V?$allocator@UAniEventInfo@@@std@@@std@@QAE@V?$allocator@UAniEventInfo@@@1@@Z ENDP ; std::_Vector_val<AniEventInfo,std::allocator<AniEventInfo> >::_Vector_val<AniEventInfo,std::allocator<AniEventInfo> >
_TEXT	ENDS
PUBLIC	??0?$_Vector_val@UtagAniSoundEventInfo@@V?$allocator@UtagAniSoundEventInfo@@@std@@@std@@QAE@V?$allocator@UtagAniSoundEventInfo@@@1@@Z ; std::_Vector_val<tagAniSoundEventInfo,std::allocator<tagAniSoundEventInfo> >::_Vector_val<tagAniSoundEventInfo,std::allocator<tagAniSoundEventInfo> >
; Function compile flags: /Ogsp
;	COMDAT ??0?$_Vector_val@UtagAniSoundEventInfo@@V?$allocator@UtagAniSoundEventInfo@@@std@@@std@@QAE@V?$allocator@UtagAniSoundEventInfo@@@1@@Z
_TEXT	SEGMENT
__Al$ = 8						; size = 1
??0?$_Vector_val@UtagAniSoundEventInfo@@V?$allocator@UtagAniSoundEventInfo@@@std@@@std@@QAE@V?$allocator@UtagAniSoundEventInfo@@@1@@Z PROC ; std::_Vector_val<tagAniSoundEventInfo,std::allocator<tagAniSoundEventInfo> >::_Vector_val<tagAniSoundEventInfo,std::allocator<tagAniSoundEventInfo> >, COMDAT
; _this$ = ecx

; 426  : 		{	// construct allocator from _Al

  00000	8b c1		 mov	 eax, ecx

; 427  : 		_Myfirst = 0;

  00002	33 c9		 xor	 ecx, ecx
  00004	89 08		 mov	 DWORD PTR [eax], ecx

; 428  : 		_Mylast = 0;

  00006	89 48 04	 mov	 DWORD PTR [eax+4], ecx

; 429  : 		_Myend = 0;

  00009	89 48 08	 mov	 DWORD PTR [eax+8], ecx

; 430  : 		}

  0000c	c2 04 00	 ret	 4
??0?$_Vector_val@UtagAniSoundEventInfo@@V?$allocator@UtagAniSoundEventInfo@@@std@@@std@@QAE@V?$allocator@UtagAniSoundEventInfo@@@1@@Z ENDP ; std::_Vector_val<tagAniSoundEventInfo,std::allocator<tagAniSoundEventInfo> >::_Vector_val<tagAniSoundEventInfo,std::allocator<tagAniSoundEventInfo> >
_TEXT	ENDS
PUBLIC	??0?$_Vector_iterator@V?$_Vector_val@UAniEventInfo@@V?$allocator@UAniEventInfo@@@std@@@std@@@std@@QAE@PAUAniEventInfo@@PBU_Container_base0@1@@Z ; std::_Vector_iterator<std::_Vector_val<AniEventInfo,std::allocator<AniEventInfo> > >::_Vector_iterator<std::_Vector_val<AniEventInfo,std::allocator<AniEventInfo> > >
; Function compile flags: /Ogsp
;	COMDAT ??0?$_Vector_iterator@V?$_Vector_val@UAniEventInfo@@V?$allocator@UAniEventInfo@@@std@@@std@@@std@@QAE@PAUAniEventInfo@@PBU_Container_base0@1@@Z
_TEXT	SEGMENT
__Parg$ = 8						; size = 4
__Pvector$ = 12						; size = 4
??0?$_Vector_iterator@V?$_Vector_val@UAniEventInfo@@V?$allocator@UAniEventInfo@@@std@@@std@@@std@@QAE@PAUAniEventInfo@@PBU_Container_base0@1@@Z PROC ; std::_Vector_iterator<std::_Vector_val<AniEventInfo,std::allocator<AniEventInfo> > >::_Vector_iterator<std::_Vector_val<AniEventInfo,std::allocator<AniEventInfo> > >, COMDAT
; _this$ = ecx

; 304  : 		{	// construct with pointer _Parg

  00000	55		 push	 ebp
  00001	8b ec		 mov	 ebp, esp
  00003	8b c1		 mov	 eax, ecx
  00005	8b 4d 08	 mov	 ecx, DWORD PTR __Parg$[ebp]
  00008	89 08		 mov	 DWORD PTR [eax], ecx

; 305  : 		}

  0000a	5d		 pop	 ebp
  0000b	c2 08 00	 ret	 8
??0?$_Vector_iterator@V?$_Vector_val@UAniEventInfo@@V?$allocator@UAniEventInfo@@@std@@@std@@@std@@QAE@PAUAniEventInfo@@PBU_Container_base0@1@@Z ENDP ; std::_Vector_iterator<std::_Vector_val<AniEventInfo,std::allocator<AniEventInfo> > >::_Vector_iterator<std::_Vector_val<AniEventInfo,std::allocator<AniEventInfo> > >
_TEXT	ENDS
PUBLIC	??8?$_Vector_const_iterator@V?$_Vector_val@UAniEventInfo@@V?$allocator@UAniEventInfo@@@std@@@std@@@std@@QBE_NABV01@@Z ; std::_Vector_const_iterator<std::_Vector_val<AniEventInfo,std::allocator<AniEventInfo> > >::operator==
; Function compile flags: /Ogsp
;	COMDAT ??8?$_Vector_const_iterator@V?$_Vector_val@UAniEventInfo@@V?$allocator@UAniEventInfo@@@std@@@std@@@std@@QBE_NABV01@@Z
_TEXT	SEGMENT
__Right$ = 8						; size = 4
??8?$_Vector_const_iterator@V?$_Vector_val@UAniEventInfo@@V?$allocator@UAniEventInfo@@@std@@@std@@@std@@QBE_NABV01@@Z PROC ; std::_Vector_const_iterator<std::_Vector_val<AniEventInfo,std::allocator<AniEventInfo> > >::operator==, COMDAT
; _this$ = ecx

; 201  : 		{	// test for iterator equality

  00000	55		 push	 ebp
  00001	8b ec		 mov	 ebp, esp

; 202  : 		_Compat(_Right);
; 203  : 		return (this->_Ptr == _Right._Ptr);

  00003	8b 01		 mov	 eax, DWORD PTR [ecx]
  00005	8b 4d 08	 mov	 ecx, DWORD PTR __Right$[ebp]
  00008	2b 01		 sub	 eax, DWORD PTR [ecx]
  0000a	f7 d8		 neg	 eax
  0000c	1b c0		 sbb	 eax, eax
  0000e	40		 inc	 eax

; 204  : 		}

  0000f	5d		 pop	 ebp
  00010	c2 04 00	 ret	 4
??8?$_Vector_const_iterator@V?$_Vector_val@UAniEventInfo@@V?$allocator@UAniEventInfo@@@std@@@std@@@std@@QBE_NABV01@@Z ENDP ; std::_Vector_const_iterator<std::_Vector_val<AniEventInfo,std::allocator<AniEventInfo> > >::operator==
_TEXT	ENDS
PUBLIC	??0?$_Vector_iterator@V?$_Vector_val@UtagAniSoundEventInfo@@V?$allocator@UtagAniSoundEventInfo@@@std@@@std@@@std@@QAE@PAUtagAniSoundEventInfo@@PBU_Container_base0@1@@Z ; std::_Vector_iterator<std::_Vector_val<tagAniSoundEventInfo,std::allocator<tagAniSoundEventInfo> > >::_Vector_iterator<std::_Vector_val<tagAniSoundEventInfo,std::allocator<tagAniSoundEventInfo> > >
; Function compile flags: /Ogsp
;	COMDAT ??0?$_Vector_iterator@V?$_Vector_val@UtagAniSoundEventInfo@@V?$allocator@UtagAniSoundEventInfo@@@std@@@std@@@std@@QAE@PAUtagAniSoundEventInfo@@PBU_Container_base0@1@@Z
_TEXT	SEGMENT
__Parg$ = 8						; size = 4
__Pvector$ = 12						; size = 4
??0?$_Vector_iterator@V?$_Vector_val@UtagAniSoundEventInfo@@V?$allocator@UtagAniSoundEventInfo@@@std@@@std@@@std@@QAE@PAUtagAniSoundEventInfo@@PBU_Container_base0@1@@Z PROC ; std::_Vector_iterator<std::_Vector_val<tagAniSoundEventInfo,std::allocator<tagAniSoundEventInfo> > >::_Vector_iterator<std::_Vector_val<tagAniSoundEventInfo,std::allocator<tagAniSoundEventInfo> > >, COMDAT
; _this$ = ecx

; 304  : 		{	// construct with pointer _Parg

  00000	55		 push	 ebp
  00001	8b ec		 mov	 ebp, esp
  00003	8b c1		 mov	 eax, ecx
  00005	8b 4d 08	 mov	 ecx, DWORD PTR __Parg$[ebp]
  00008	89 08		 mov	 DWORD PTR [eax], ecx

; 305  : 		}

  0000a	5d		 pop	 ebp
  0000b	c2 08 00	 ret	 8
??0?$_Vector_iterator@V?$_Vector_val@UtagAniSoundEventInfo@@V?$allocator@UtagAniSoundEventInfo@@@std@@@std@@@std@@QAE@PAUtagAniSoundEventInfo@@PBU_Container_base0@1@@Z ENDP ; std::_Vector_iterator<std::_Vector_val<tagAniSoundEventInfo,std::allocator<tagAniSoundEventInfo> > >::_Vector_iterator<std::_Vector_val<tagAniSoundEventInfo,std::allocator<tagAniSoundEventInfo> > >
_TEXT	ENDS
PUBLIC	??8?$_Vector_const_iterator@V?$_Vector_val@UtagAniSoundEventInfo@@V?$allocator@UtagAniSoundEventInfo@@@std@@@std@@@std@@QBE_NABV01@@Z ; std::_Vector_const_iterator<std::_Vector_val<tagAniSoundEventInfo,std::allocator<tagAniSoundEventInfo> > >::operator==
; Function compile flags: /Ogsp
;	COMDAT ??8?$_Vector_const_iterator@V?$_Vector_val@UtagAniSoundEventInfo@@V?$allocator@UtagAniSoundEventInfo@@@std@@@std@@@std@@QBE_NABV01@@Z
_TEXT	SEGMENT
__Right$ = 8						; size = 4
??8?$_Vector_const_iterator@V?$_Vector_val@UtagAniSoundEventInfo@@V?$allocator@UtagAniSoundEventInfo@@@std@@@std@@@std@@QBE_NABV01@@Z PROC ; std::_Vector_const_iterator<std::_Vector_val<tagAniSoundEventInfo,std::allocator<tagAniSoundEventInfo> > >::operator==, COMDAT
; _this$ = ecx

; 201  : 		{	// test for iterator equality

  00000	55		 push	 ebp
  00001	8b ec		 mov	 ebp, esp

; 202  : 		_Compat(_Right);
; 203  : 		return (this->_Ptr == _Right._Ptr);

  00003	8b 01		 mov	 eax, DWORD PTR [ecx]
  00005	8b 4d 08	 mov	 ecx, DWORD PTR __Right$[ebp]
  00008	2b 01		 sub	 eax, DWORD PTR [ecx]
  0000a	f7 d8		 neg	 eax
  0000c	1b c0		 sbb	 eax, eax
  0000e	40		 inc	 eax

; 204  : 		}

  0000f	5d		 pop	 ebp
  00010	c2 04 00	 ret	 4
??8?$_Vector_const_iterator@V?$_Vector_val@UtagAniSoundEventInfo@@V?$allocator@UtagAniSoundEventInfo@@@std@@@std@@@std@@QBE_NABV01@@Z ENDP ; std::_Vector_const_iterator<std::_Vector_val<tagAniSoundEventInfo,std::allocator<tagAniSoundEventInfo> > >::operator==
_TEXT	ENDS
PUBLIC	??1?$_List_val@PBVioMeshControlPoint@@V?$allocator@PBVioMeshControlPoint@@@std@@@std@@QAE@XZ ; std::_List_val<ioMeshControlPoint const *,std::allocator<ioMeshControlPoint const *> >::~_List_val<ioMeshControlPoint const *,std::allocator<ioMeshControlPoint const *> >
; Function compile flags: /Ogsp
; File c:\program files (x86)\microsoft visual studio 10.0\vc\include\list
;	COMDAT ??1?$_List_val@PBVioMeshControlPoint@@V?$allocator@PBVioMeshControlPoint@@@std@@@std@@QAE@XZ
_TEXT	SEGMENT
??1?$_List_val@PBVioMeshControlPoint@@V?$allocator@PBVioMeshControlPoint@@@std@@@std@@QAE@XZ PROC ; std::_List_val<ioMeshControlPoint const *,std::allocator<ioMeshControlPoint const *> >::~_List_val<ioMeshControlPoint const *,std::allocator<ioMeshControlPoint const *> >, COMDAT
; _this$ = ecx

; 502  : 		this->_Alnod.deallocate(this->_Myhead, 1);

  00000	ff 31		 push	 DWORD PTR [ecx]
  00002	e8 00 00 00 00	 call	 ??3@YAXPAX@Z		; operator delete
  00007	59		 pop	 ecx

; 503  : 		}

  00008	c3		 ret	 0
??1?$_List_val@PBVioMeshControlPoint@@V?$allocator@PBVioMeshControlPoint@@@std@@@std@@QAE@XZ ENDP ; std::_List_val<ioMeshControlPoint const *,std::allocator<ioMeshControlPoint const *> >::~_List_val<ioMeshControlPoint const *,std::allocator<ioMeshControlPoint const *> >
_TEXT	ENDS
PUBLIC	?max_size@?$vector@V?$basic_string@DU?$char_traits@D@std@@V?$allocator@D@2@@std@@V?$allocator@V?$basic_string@DU?$char_traits@D@std@@V?$allocator@D@2@@std@@@2@@std@@QBEIXZ ; std::vector<std::basic_string<char,std::char_traits<char>,std::allocator<char> >,std::allocator<std::basic_string<char,std::char_traits<char>,std::allocator<char> > > >::max_size
; Function compile flags: /Ogsp
; File c:\program files (x86)\microsoft visual studio 10.0\vc\include\vector
;	COMDAT ?max_size@?$vector@V?$basic_string@DU?$char_traits@D@std@@V?$allocator@D@2@@std@@V?$allocator@V?$basic_string@DU?$char_traits@D@std@@V?$allocator@D@2@@std@@@2@@std@@QBEIXZ
_TEXT	SEGMENT
?max_size@?$vector@V?$basic_string@DU?$char_traits@D@std@@V?$allocator@D@2@@std@@V?$allocator@V?$basic_string@DU?$char_traits@D@std@@V?$allocator@D@2@@std@@@2@@std@@QBEIXZ PROC ; std::vector<std::basic_string<char,std::char_traits<char>,std::allocator<char> >,std::allocator<std::basic_string<char,std::char_traits<char>,std::allocator<char> > > >::max_size, COMDAT
; _this$ = ecx

; 884  : 		return (this->_Alval.max_size());

  00000	b8 49 92 24 09	 mov	 eax, 153391689		; 09249249H

; 885  : 		}

  00005	c3		 ret	 0
?max_size@?$vector@V?$basic_string@DU?$char_traits@D@std@@V?$allocator@D@2@@std@@V?$allocator@V?$basic_string@DU?$char_traits@D@std@@V?$allocator@D@2@@std@@@2@@std@@QBEIXZ ENDP ; std::vector<std::basic_string<char,std::char_traits<char>,std::allocator<char> >,std::allocator<std::basic_string<char,std::char_traits<char>,std::allocator<char> > > >::max_size
_TEXT	ENDS
PUBLIC	?allocate@?$allocator@V?$basic_string@DU?$char_traits@D@std@@V?$allocator@D@2@@std@@@std@@QAEPAV?$basic_string@DU?$char_traits@D@std@@V?$allocator@D@2@@2@I@Z ; std::allocator<std::basic_string<char,std::char_traits<char>,std::allocator<char> > >::allocate
; Function compile flags: /Ogsp
; File c:\program files (x86)\microsoft visual studio 10.0\vc\include\xmemory
;	COMDAT ?allocate@?$allocator@V?$basic_string@DU?$char_traits@D@std@@V?$allocator@D@2@@std@@@std@@QAEPAV?$basic_string@DU?$char_traits@D@std@@V?$allocator@D@2@@2@I@Z
_TEXT	SEGMENT
__Count$ = 8						; size = 4
?allocate@?$allocator@V?$basic_string@DU?$char_traits@D@std@@V?$allocator@D@2@@std@@@std@@QAEPAV?$basic_string@DU?$char_traits@D@std@@V?$allocator@D@2@@2@I@Z PROC ; std::allocator<std::basic_string<char,std::char_traits<char>,std::allocator<char> > >::allocate, COMDAT
; _this$ = ecx

; 186  : 		{	// allocate array of _Count elements

  00000	55		 push	 ebp
  00001	8b ec		 mov	 ebp, esp

; 187  : 		return (_Allocate(_Count, (pointer)0));

  00003	6a 00		 push	 0
  00005	ff 75 08	 push	 DWORD PTR __Count$[ebp]
  00008	e8 00 00 00 00	 call	 ??$_Allocate@V?$basic_string@DU?$char_traits@D@std@@V?$allocator@D@2@@std@@@std@@YAPAV?$basic_string@DU?$char_traits@D@std@@V?$allocator@D@2@@0@IPAV10@@Z ; std::_Allocate<std::basic_string<char,std::char_traits<char>,std::allocator<char> > >
  0000d	59		 pop	 ecx
  0000e	59		 pop	 ecx

; 188  : 		}

  0000f	5d		 pop	 ebp
  00010	c2 04 00	 ret	 4
?allocate@?$allocator@V?$basic_string@DU?$char_traits@D@std@@V?$allocator@D@2@@std@@@std@@QAEPAV?$basic_string@DU?$char_traits@D@std@@V?$allocator@D@2@@2@I@Z ENDP ; std::allocator<std::basic_string<char,std::char_traits<char>,std::allocator<char> > >::allocate
_TEXT	ENDS
PUBLIC	?max_size@?$vector@UAniEventInfo@@V?$allocator@UAniEventInfo@@@std@@@std@@QBEIXZ ; std::vector<AniEventInfo,std::allocator<AniEventInfo> >::max_size
; Function compile flags: /Ogsp
; File c:\program files (x86)\microsoft visual studio 10.0\vc\include\vector
;	COMDAT ?max_size@?$vector@UAniEventInfo@@V?$allocator@UAniEventInfo@@@std@@@std@@QBEIXZ
_TEXT	SEGMENT
?max_size@?$vector@UAniEventInfo@@V?$allocator@UAniEventInfo@@@std@@@std@@QBEIXZ PROC ; std::vector<AniEventInfo,std::allocator<AniEventInfo> >::max_size, COMDAT
; _this$ = ecx

; 884  : 		return (this->_Alval.max_size());

  00000	b8 ff ff ff 07	 mov	 eax, 134217727		; 07ffffffH

; 885  : 		}

  00005	c3		 ret	 0
?max_size@?$vector@UAniEventInfo@@V?$allocator@UAniEventInfo@@@std@@@std@@QBEIXZ ENDP ; std::vector<AniEventInfo,std::allocator<AniEventInfo> >::max_size
_TEXT	ENDS
PUBLIC	?_Grow_to@?$vector@UAniEventInfo@@V?$allocator@UAniEventInfo@@@std@@@std@@IBEII@Z ; std::vector<AniEventInfo,std::allocator<AniEventInfo> >::_Grow_to
; Function compile flags: /Ogsp
;	COMDAT ?_Grow_to@?$vector@UAniEventInfo@@V?$allocator@UAniEventInfo@@@std@@@std@@IBEII@Z
_TEXT	SEGMENT
__Count$ = 8						; size = 4
?_Grow_to@?$vector@UAniEventInfo@@V?$allocator@UAniEventInfo@@@std@@@std@@IBEII@Z PROC ; std::vector<AniEventInfo,std::allocator<AniEventInfo> >::_Grow_to, COMDAT
; _this$ = ecx

; 1274 : 		{	// grow by 50% or at least to _Count

  00000	55		 push	 ebp
  00001	8b ec		 mov	 ebp, esp

; 1275 : 		size_type _Capacity = capacity();

  00003	8b 41 08	 mov	 eax, DWORD PTR [ecx+8]
  00006	2b 01		 sub	 eax, DWORD PTR [ecx]

; 1276 : 
; 1277 : 		_Capacity = max_size() - _Capacity / 2 < _Capacity
; 1278 : 			? 0 : _Capacity + _Capacity / 2;	// try to grow by 50%

  00008	ba ff ff ff 07	 mov	 edx, 134217727		; 07ffffffH
  0000d	c1 f8 05	 sar	 eax, 5
  00010	8b c8		 mov	 ecx, eax
  00012	d1 e9		 shr	 ecx, 1
  00014	2b d1		 sub	 edx, ecx
  00016	3b d0		 cmp	 edx, eax
  00018	73 04		 jae	 SHORT $LN4@Grow_to
  0001a	33 c0		 xor	 eax, eax
  0001c	eb 02		 jmp	 SHORT $LN5@Grow_to
$LN4@Grow_to:
  0001e	03 c1		 add	 eax, ecx
$LN5@Grow_to:

; 1279 : 		if (_Capacity < _Count)

  00020	3b 45 08	 cmp	 eax, DWORD PTR __Count$[ebp]

; 1280 : 			_Capacity = _Count;

  00023	0f 42 45 08	 cmovb	 eax, DWORD PTR __Count$[ebp]

; 1281 : 		return (_Capacity);
; 1282 : 		}

  00027	5d		 pop	 ebp
  00028	c2 04 00	 ret	 4
?_Grow_to@?$vector@UAniEventInfo@@V?$allocator@UAniEventInfo@@@std@@@std@@IBEII@Z ENDP ; std::vector<AniEventInfo,std::allocator<AniEventInfo> >::_Grow_to
_TEXT	ENDS
PUBLIC	?max_size@?$vector@UtagAniSoundEventInfo@@V?$allocator@UtagAniSoundEventInfo@@@std@@@std@@QBEIXZ ; std::vector<tagAniSoundEventInfo,std::allocator<tagAniSoundEventInfo> >::max_size
; Function compile flags: /Ogsp
;	COMDAT ?max_size@?$vector@UtagAniSoundEventInfo@@V?$allocator@UtagAniSoundEventInfo@@@std@@@std@@QBEIXZ
_TEXT	SEGMENT
?max_size@?$vector@UtagAniSoundEventInfo@@V?$allocator@UtagAniSoundEventInfo@@@std@@@std@@QBEIXZ PROC ; std::vector<tagAniSoundEventInfo,std::allocator<tagAniSoundEventInfo> >::max_size, COMDAT
; _this$ = ecx

; 884  : 		return (this->_Alval.max_size());

  00000	b8 c7 71 1c 07	 mov	 eax, 119304647		; 071c71c7H

; 885  : 		}

  00005	c3		 ret	 0
?max_size@?$vector@UtagAniSoundEventInfo@@V?$allocator@UtagAniSoundEventInfo@@@std@@@std@@QBEIXZ ENDP ; std::vector<tagAniSoundEventInfo,std::allocator<tagAniSoundEventInfo> >::max_size
_TEXT	ENDS
PUBLIC	?_Grow_to@?$vector@UtagAniSoundEventInfo@@V?$allocator@UtagAniSoundEventInfo@@@std@@@std@@IBEII@Z ; std::vector<tagAniSoundEventInfo,std::allocator<tagAniSoundEventInfo> >::_Grow_to
; Function compile flags: /Ogsp
;	COMDAT ?_Grow_to@?$vector@UtagAniSoundEventInfo@@V?$allocator@UtagAniSoundEventInfo@@@std@@@std@@IBEII@Z
_TEXT	SEGMENT
__Count$ = 8						; size = 4
?_Grow_to@?$vector@UtagAniSoundEventInfo@@V?$allocator@UtagAniSoundEventInfo@@@std@@@std@@IBEII@Z PROC ; std::vector<tagAniSoundEventInfo,std::allocator<tagAniSoundEventInfo> >::_Grow_to, COMDAT
; _this$ = ecx

; 1274 : 		{	// grow by 50% or at least to _Count

  00000	55		 push	 ebp
  00001	8b ec		 mov	 ebp, esp

; 1275 : 		size_type _Capacity = capacity();

  00003	8b 41 08	 mov	 eax, DWORD PTR [ecx+8]
  00006	2b 01		 sub	 eax, DWORD PTR [ecx]
  00008	6a 24		 push	 36			; 00000024H
  0000a	99		 cdq
  0000b	59		 pop	 ecx
  0000c	f7 f9		 idiv	 ecx

; 1276 : 
; 1277 : 		_Capacity = max_size() - _Capacity / 2 < _Capacity
; 1278 : 			? 0 : _Capacity + _Capacity / 2;	// try to grow by 50%

  0000e	ba c7 71 1c 07	 mov	 edx, 119304647		; 071c71c7H
  00013	8b c8		 mov	 ecx, eax
  00015	d1 e9		 shr	 ecx, 1
  00017	2b d1		 sub	 edx, ecx
  00019	3b d0		 cmp	 edx, eax
  0001b	73 04		 jae	 SHORT $LN4@Grow_to@2
  0001d	33 c0		 xor	 eax, eax
  0001f	eb 02		 jmp	 SHORT $LN5@Grow_to@2
$LN4@Grow_to@2:
  00021	03 c1		 add	 eax, ecx
$LN5@Grow_to@2:

; 1279 : 		if (_Capacity < _Count)

  00023	3b 45 08	 cmp	 eax, DWORD PTR __Count$[ebp]

; 1280 : 			_Capacity = _Count;

  00026	0f 42 45 08	 cmovb	 eax, DWORD PTR __Count$[ebp]

; 1281 : 		return (_Capacity);
; 1282 : 		}

  0002a	5d		 pop	 ebp
  0002b	c2 04 00	 ret	 4
?_Grow_to@?$vector@UtagAniSoundEventInfo@@V?$allocator@UtagAniSoundEventInfo@@@std@@@std@@IBEII@Z ENDP ; std::vector<tagAniSoundEventInfo,std::allocator<tagAniSoundEventInfo> >::_Grow_to
_TEXT	ENDS
PUBLIC	??0?$_List_const_iterator@V?$_List_val@PBVioMeshControlPoint@@V?$allocator@PBVioMeshControlPoint@@@std@@@std@@@std@@QAE@PAU_Node@?$_List_nod@PBVioMeshControlPoint@@V?$allocator@PBVioMeshControlPoint@@@std@@@1@PBV?$_List_val@PBVioMeshControlPoint@@V?$allocator@PBVioMeshControlPoint@@@std@@@1@@Z ; std::_List_const_iterator<std::_List_val<ioMeshControlPoint const *,std::allocator<ioMeshControlPoint const *> > >::_List_const_iterator<std::_List_val<ioMeshControlPoint const *,std::allocator<ioMeshControlPoint const *> > >
; Function compile flags: /Ogsp
; File c:\program files (x86)\microsoft visual studio 10.0\vc\include\list
;	COMDAT ??0?$_List_const_iterator@V?$_List_val@PBVioMeshControlPoint@@V?$allocator@PBVioMeshControlPoint@@@std@@@std@@@std@@QAE@PAU_Node@?$_List_nod@PBVioMeshControlPoint@@V?$allocator@PBVioMeshControlPoint@@@std@@@1@PBV?$_List_val@PBVioMeshControlPoint@@V?$allocator@PBVioMeshControlPoint@@@std@@@1@@Z
_TEXT	SEGMENT
__Pnode$ = 8						; size = 4
__Plist$ = 12						; size = 4
??0?$_List_const_iterator@V?$_List_val@PBVioMeshControlPoint@@V?$allocator@PBVioMeshControlPoint@@@std@@@std@@@std@@QAE@PAU_Node@?$_List_nod@PBVioMeshControlPoint@@V?$allocator@PBVioMeshControlPoint@@@std@@@1@PBV?$_List_val@PBVioMeshControlPoint@@V?$allocator@PBVioMeshControlPoint@@@std@@@1@@Z PROC ; std::_List_const_iterator<std::_List_val<ioMeshControlPoint const *,std::allocator<ioMeshControlPoint const *> > >::_List_const_iterator<std::_List_val<ioMeshControlPoint const *,std::allocator<ioMeshControlPoint const *> > >, COMDAT
; _this$ = ecx

; 184  : 		{	// construct with node pointer _Pnode

  00000	55		 push	 ebp
  00001	8b ec		 mov	 ebp, esp
  00003	8b c1		 mov	 eax, ecx
  00005	8b 4d 08	 mov	 ecx, DWORD PTR __Pnode$[ebp]
  00008	89 08		 mov	 DWORD PTR [eax], ecx

; 185  : 		}

  0000a	5d		 pop	 ebp
  0000b	c2 08 00	 ret	 8
??0?$_List_const_iterator@V?$_List_val@PBVioMeshControlPoint@@V?$allocator@PBVioMeshControlPoint@@@std@@@std@@@std@@QAE@PAU_Node@?$_List_nod@PBVioMeshControlPoint@@V?$allocator@PBVioMeshControlPoint@@@std@@@1@PBV?$_List_val@PBVioMeshControlPoint@@V?$allocator@PBVioMeshControlPoint@@@std@@@1@@Z ENDP ; std::_List_const_iterator<std::_List_val<ioMeshControlPoint const *,std::allocator<ioMeshControlPoint const *> > >::_List_const_iterator<std::_List_val<ioMeshControlPoint const *,std::allocator<ioMeshControlPoint const *> > >
_TEXT	ENDS
PUBLIC	?allocate@?$allocator@UAniEventInfo@@@std@@QAEPAUAniEventInfo@@I@Z ; std::allocator<AniEventInfo>::allocate
; Function compile flags: /Ogsp
; File c:\program files (x86)\microsoft visual studio 10.0\vc\include\xmemory
;	COMDAT ?allocate@?$allocator@UAniEventInfo@@@std@@QAEPAUAniEventInfo@@I@Z
_TEXT	SEGMENT
__Count$ = 8						; size = 4
?allocate@?$allocator@UAniEventInfo@@@std@@QAEPAUAniEventInfo@@I@Z PROC ; std::allocator<AniEventInfo>::allocate, COMDAT
; _this$ = ecx

; 186  : 		{	// allocate array of _Count elements

  00000	55		 push	 ebp
  00001	8b ec		 mov	 ebp, esp

; 187  : 		return (_Allocate(_Count, (pointer)0));

  00003	6a 00		 push	 0
  00005	ff 75 08	 push	 DWORD PTR __Count$[ebp]
  00008	e8 00 00 00 00	 call	 ??$_Allocate@UAniEventInfo@@@std@@YAPAUAniEventInfo@@IPAU1@@Z ; std::_Allocate<AniEventInfo>
  0000d	59		 pop	 ecx
  0000e	59		 pop	 ecx

; 188  : 		}

  0000f	5d		 pop	 ebp
  00010	c2 04 00	 ret	 4
?allocate@?$allocator@UAniEventInfo@@@std@@QAEPAUAniEventInfo@@I@Z ENDP ; std::allocator<AniEventInfo>::allocate
_TEXT	ENDS
PUBLIC	?allocate@?$allocator@UtagAniSoundEventInfo@@@std@@QAEPAUtagAniSoundEventInfo@@I@Z ; std::allocator<tagAniSoundEventInfo>::allocate
; Function compile flags: /Ogsp
;	COMDAT ?allocate@?$allocator@UtagAniSoundEventInfo@@@std@@QAEPAUtagAniSoundEventInfo@@I@Z
_TEXT	SEGMENT
__Count$ = 8						; size = 4
?allocate@?$allocator@UtagAniSoundEventInfo@@@std@@QAEPAUtagAniSoundEventInfo@@I@Z PROC ; std::allocator<tagAniSoundEventInfo>::allocate, COMDAT
; _this$ = ecx

; 186  : 		{	// allocate array of _Count elements

  00000	55		 push	 ebp
  00001	8b ec		 mov	 ebp, esp

; 187  : 		return (_Allocate(_Count, (pointer)0));

  00003	6a 00		 push	 0
  00005	ff 75 08	 push	 DWORD PTR __Count$[ebp]
  00008	e8 00 00 00 00	 call	 ??$_Allocate@UtagAniSoundEventInfo@@@std@@YAPAUtagAniSoundEventInfo@@IPAU1@@Z ; std::_Allocate<tagAniSoundEventInfo>
  0000d	59		 pop	 ecx
  0000e	59		 pop	 ecx

; 188  : 		}

  0000f	5d		 pop	 ebp
  00010	c2 04 00	 ret	 4
?allocate@?$allocator@UtagAniSoundEventInfo@@@std@@QAEPAUtagAniSoundEventInfo@@I@Z ENDP ; std::allocator<tagAniSoundEventInfo>::allocate
_TEXT	ENDS
PUBLIC	__$ArrayPad$
PUBLIC	??$?8$0L@@@YA_NABVioHashString@@AAY0L@$$CBD@Z	; operator==<11>
EXTRN	___security_cookie:DWORD
; Function compile flags: /Ogsp
; File d:\lost saga for developer\youtube\tutorial\source\src\io3dengine\iohashstring.h
;	COMDAT ??$?8$0L@@@YA_NABVioHashString@@AAY0L@$$CBD@Z
_TEXT	SEGMENT
__t$ = -20						; size = 11
__$ArrayPad$ = -4					; size = 4
_lhs$ = 8						; size = 4
_t$ = 12						; size = 4
??$?8$0L@@@YA_NABVioHashString@@AAY0L@$$CBD@Z PROC	; operator==<11>, COMDAT

; 146  : {

  00000	55		 push	 ebp
  00001	8b ec		 mov	 ebp, esp
  00003	83 ec 14	 sub	 esp, 20			; 00000014H
  00006	a1 00 00 00 00	 mov	 eax, DWORD PTR ___security_cookie
  0000b	33 c5		 xor	 eax, ebp
  0000d	89 45 fc	 mov	 DWORD PTR __$ArrayPad$[ebp], eax
  00010	8b 45 0c	 mov	 eax, DWORD PTR _t$[ebp]

; 147  : 	_ENCSTR(t, _t); return ( strcmp( lhs.c_str(), _t ) == 0 );

  00013	8a 10		 mov	 dl, BYTE PTR [eax]
  00015	56		 push	 esi
  00016	57		 push	 edi
  00017	8b 7d 08	 mov	 edi, DWORD PTR _lhs$[ebp]
  0001a	84 d2		 test	 dl, dl
  0001c	0f 84 24 01 00
	00		 je	 $LN96@operator
  00022	80 f2 ed	 xor	 dl, -19			; ffffffedH
  00025	88 55 ec	 mov	 BYTE PTR __t$[ebp], dl
  00028	8a 50 01	 mov	 dl, BYTE PTR [eax+1]
  0002b	84 d2		 test	 dl, dl
  0002d	0f 84 0d 01 00
	00		 je	 $LN95@operator
  00033	80 f2 ec	 xor	 dl, -20			; ffffffecH
  00036	88 55 ed	 mov	 BYTE PTR __t$[ebp+1], dl
  00039	8a 50 02	 mov	 dl, BYTE PTR [eax+2]
  0003c	84 d2		 test	 dl, dl
  0003e	0f 84 f6 00 00
	00		 je	 $LN94@operator
  00044	80 f2 eb	 xor	 dl, -21			; ffffffebH
  00047	88 55 ee	 mov	 BYTE PTR __t$[ebp+2], dl
  0004a	8a 50 03	 mov	 dl, BYTE PTR [eax+3]
  0004d	84 d2		 test	 dl, dl
  0004f	0f 84 df 00 00
	00		 je	 $LN93@operator
  00055	80 f2 ea	 xor	 dl, -22			; ffffffeaH
  00058	88 55 ef	 mov	 BYTE PTR __t$[ebp+3], dl
  0005b	8a 50 04	 mov	 dl, BYTE PTR [eax+4]
  0005e	84 d2		 test	 dl, dl
  00060	0f 84 c8 00 00
	00		 je	 $LN92@operator
  00066	80 f2 ed	 xor	 dl, -19			; ffffffedH
  00069	88 55 f0	 mov	 BYTE PTR __t$[ebp+4], dl
  0006c	8a 50 05	 mov	 dl, BYTE PTR [eax+5]
  0006f	84 d2		 test	 dl, dl
  00071	0f 84 b1 00 00
	00		 je	 $LN91@operator
  00077	80 f2 ec	 xor	 dl, -20			; ffffffecH
  0007a	88 55 f1	 mov	 BYTE PTR __t$[ebp+5], dl
  0007d	8a 50 06	 mov	 dl, BYTE PTR [eax+6]
  00080	84 d2		 test	 dl, dl
  00082	0f 84 9a 00 00
	00		 je	 $LN90@operator
  00088	80 f2 eb	 xor	 dl, -21			; ffffffebH
  0008b	88 55 f2	 mov	 BYTE PTR __t$[ebp+6], dl
  0008e	8a 50 07	 mov	 dl, BYTE PTR [eax+7]
  00091	84 d2		 test	 dl, dl
  00093	0f 84 83 00 00
	00		 je	 $LN89@operator
  00099	80 f2 ea	 xor	 dl, -22			; ffffffeaH
  0009c	88 55 f3	 mov	 BYTE PTR __t$[ebp+7], dl
  0009f	8a 50 08	 mov	 dl, BYTE PTR [eax+8]
  000a2	84 d2		 test	 dl, dl
  000a4	74 70		 je	 SHORT $LN88@operator
  000a6	80 f2 ed	 xor	 dl, -19			; ffffffedH
  000a9	88 55 f4	 mov	 BYTE PTR __t$[ebp+8], dl
  000ac	8a 50 09	 mov	 dl, BYTE PTR [eax+9]
  000af	84 d2		 test	 dl, dl
  000b1	74 5d		 je	 SHORT $LN87@operator
  000b3	80 f2 ec	 xor	 dl, -20			; ffffffecH
  000b6	80 78 0a 00	 cmp	 BYTE PTR [eax+10], 0
  000ba	88 55 f5	 mov	 BYTE PTR __t$[ebp+9], dl
  000bd	0f 84 87 00 00
	00		 je	 $LN1@operator
  000c3	8a 50 0b	 mov	 dl, BYTE PTR [eax+11]
  000c6	84 d2		 test	 dl, dl
  000c8	74 40		 je	 SHORT $LN85@operator
  000ca	80 f2 ea	 xor	 dl, -22			; ffffffeaH
  000cd	88 55 f7	 mov	 BYTE PTR __t$[ebp+11], dl
  000d0	8a 50 0c	 mov	 dl, BYTE PTR [eax+12]
  000d3	84 d2		 test	 dl, dl
  000d5	74 2d		 je	 SHORT $LN84@operator
  000d7	80 f2 ed	 xor	 dl, -19			; ffffffedH
  000da	88 55 f8	 mov	 BYTE PTR __t$[ebp+12], dl
  000dd	8a 50 0d	 mov	 dl, BYTE PTR [eax+13]
  000e0	84 d2		 test	 dl, dl
  000e2	74 1a		 je	 SHORT $LN83@operator
  000e4	8a 40 0e	 mov	 al, BYTE PTR [eax+14]
  000e7	80 f2 ec	 xor	 dl, -20			; ffffffecH
  000ea	88 55 f9	 mov	 BYTE PTR __t$[ebp+13], dl
  000ed	84 c0		 test	 al, al
  000ef	74 07		 je	 SHORT $LN82@operator
  000f1	34 eb		 xor	 al, -21			; ffffffebH
  000f3	88 45 fa	 mov	 BYTE PTR __t$[ebp+14], al
  000f6	eb 52		 jmp	 SHORT $LN1@operator
$LN82@operator:
  000f8	c6 45 fa eb	 mov	 BYTE PTR __t$[ebp+14], -21 ; ffffffebH
  000fc	eb 4c		 jmp	 SHORT $LN1@operator
$LN83@operator:
  000fe	c6 45 f9 ec	 mov	 BYTE PTR __t$[ebp+13], -20 ; ffffffecH
  00102	eb 46		 jmp	 SHORT $LN1@operator
$LN84@operator:
  00104	c6 45 f8 ed	 mov	 BYTE PTR __t$[ebp+12], -19 ; ffffffedH
  00108	eb 40		 jmp	 SHORT $LN1@operator
$LN85@operator:
  0010a	c6 45 f7 ea	 mov	 BYTE PTR __t$[ebp+11], -22 ; ffffffeaH
  0010e	eb 3a		 jmp	 SHORT $LN1@operator
$LN87@operator:
  00110	c6 45 f5 ec	 mov	 BYTE PTR __t$[ebp+9], -20 ; ffffffecH
  00114	eb 34		 jmp	 SHORT $LN1@operator
$LN88@operator:
  00116	c6 45 f4 ed	 mov	 BYTE PTR __t$[ebp+8], -19 ; ffffffedH
  0011a	eb 2e		 jmp	 SHORT $LN1@operator
$LN89@operator:
  0011c	c6 45 f3 ea	 mov	 BYTE PTR __t$[ebp+7], -22 ; ffffffeaH
  00120	eb 28		 jmp	 SHORT $LN1@operator
$LN90@operator:
  00122	c6 45 f2 eb	 mov	 BYTE PTR __t$[ebp+6], -21 ; ffffffebH
  00126	eb 22		 jmp	 SHORT $LN1@operator
$LN91@operator:
  00128	c6 45 f1 ec	 mov	 BYTE PTR __t$[ebp+5], -20 ; ffffffecH
  0012c	eb 1c		 jmp	 SHORT $LN1@operator
$LN92@operator:
  0012e	c6 45 f0 ed	 mov	 BYTE PTR __t$[ebp+4], -19 ; ffffffedH
  00132	eb 16		 jmp	 SHORT $LN1@operator
$LN93@operator:
  00134	c6 45 ef ea	 mov	 BYTE PTR __t$[ebp+3], -22 ; ffffffeaH
  00138	eb 10		 jmp	 SHORT $LN1@operator
$LN94@operator:
  0013a	c6 45 ee eb	 mov	 BYTE PTR __t$[ebp+2], -21 ; ffffffebH
  0013e	eb 0a		 jmp	 SHORT $LN1@operator
$LN95@operator:
  00140	c6 45 ed ec	 mov	 BYTE PTR __t$[ebp+1], -20 ; ffffffecH
  00144	eb 04		 jmp	 SHORT $LN1@operator
$LN96@operator:
  00146	c6 45 ec ed	 mov	 BYTE PTR __t$[ebp], -19	; ffffffedH
$LN1@operator:
  0014a	6a 02		 push	 2
  0014c	8d 45 ec	 lea	 eax, DWORD PTR __t$[ebp]
  0014f	c6 45 f6 00	 mov	 BYTE PTR __t$[ebp+10], 0
  00153	5a		 pop	 edx
$LL104@operator:
  00154	81 30 ed ec eb
	ea		 xor	 DWORD PTR [eax], -353637139 ; eaebecedH
  0015a	83 c0 04	 add	 eax, 4
  0015d	4a		 dec	 edx
  0015e	75 f4		 jne	 SHORT $LL104@operator
  00160	6a 08		 push	 8
  00162	58		 pop	 eax
$LL101@operator:
  00163	8b c8		 mov	 ecx, eax
  00165	81 e1 03 00 00
	80		 and	 ecx, -2147483645	; 80000003H
  0016b	79 05		 jns	 SHORT $LN115@operator
  0016d	49		 dec	 ecx
  0016e	83 c9 fc	 or	 ecx, -4			; fffffffcH
  00171	41		 inc	 ecx
$LN115@operator:
  00172	b2 ed		 mov	 dl, -19			; ffffffedH
  00174	2a d1		 sub	 dl, cl
  00176	30 54 05 ec	 xor	 BYTE PTR __t$[ebp+eax], dl
  0017a	40		 inc	 eax
  0017b	83 f8 0a	 cmp	 eax, 10			; 0000000aH
  0017e	7c e3		 jl	 SHORT $LL101@operator
  00180	8b cf		 mov	 ecx, edi
  00182	8d 75 ec	 lea	 esi, DWORD PTR __t$[ebp]
  00185	ff 15 00 00 00
	00		 call	 DWORD PTR __imp_?c_str@ioHashString@@QBEPBDXZ
$LL111@operator:
  0018b	8a 08		 mov	 cl, BYTE PTR [eax]
  0018d	3a 0e		 cmp	 cl, BYTE PTR [esi]
  0018f	75 1a		 jne	 SHORT $LN112@operator
  00191	84 c9		 test	 cl, cl
  00193	74 12		 je	 SHORT $LN113@operator
  00195	8a 48 01	 mov	 cl, BYTE PTR [eax+1]
  00198	3a 4e 01	 cmp	 cl, BYTE PTR [esi+1]
  0019b	75 0e		 jne	 SHORT $LN112@operator
  0019d	83 c0 02	 add	 eax, 2
  001a0	83 c6 02	 add	 esi, 2
  001a3	84 c9		 test	 cl, cl
  001a5	75 e4		 jne	 SHORT $LL111@operator
$LN113@operator:
  001a7	33 c0		 xor	 eax, eax
  001a9	eb 05		 jmp	 SHORT $LN114@operator
$LN112@operator:
  001ab	1b c0		 sbb	 eax, eax
  001ad	83 d8 ff	 sbb	 eax, -1
$LN114@operator:
  001b0	33 c9		 xor	 ecx, ecx
  001b2	85 c0		 test	 eax, eax
  001b4	0f 94 c0	 sete	 al

; 148  : }

  001b7	8b 4d fc	 mov	 ecx, DWORD PTR __$ArrayPad$[ebp]
  001ba	5f		 pop	 edi
  001bb	33 cd		 xor	 ecx, ebp
  001bd	5e		 pop	 esi
  001be	e8 00 00 00 00	 call	 @__security_check_cookie@4
  001c3	c9		 leave
  001c4	c3		 ret	 0
??$?8$0L@@@YA_NABVioHashString@@AAY0L@$$CBD@Z ENDP	; operator==<11>
_TEXT	ENDS
PUBLIC	__$ArrayPad$
PUBLIC	??$?8$0M@@@YA_NABVioHashString@@AAY0M@$$CBD@Z	; operator==<12>
; Function compile flags: /Ogsp
;	COMDAT ??$?8$0M@@@YA_NABVioHashString@@AAY0M@$$CBD@Z
_TEXT	SEGMENT
__t$ = -20						; size = 12
__$ArrayPad$ = -4					; size = 4
_lhs$ = 8						; size = 4
_t$ = 12						; size = 4
??$?8$0M@@@YA_NABVioHashString@@AAY0M@$$CBD@Z PROC	; operator==<12>, COMDAT

; 146  : {

  00000	55		 push	 ebp
  00001	8b ec		 mov	 ebp, esp
  00003	83 ec 14	 sub	 esp, 20			; 00000014H
  00006	a1 00 00 00 00	 mov	 eax, DWORD PTR ___security_cookie
  0000b	33 c5		 xor	 eax, ebp
  0000d	89 45 fc	 mov	 DWORD PTR __$ArrayPad$[ebp], eax
  00010	8b 45 0c	 mov	 eax, DWORD PTR _t$[ebp]

; 147  : 	_ENCSTR(t, _t); return ( strcmp( lhs.c_str(), _t ) == 0 );

  00013	8a 10		 mov	 dl, BYTE PTR [eax]
  00015	56		 push	 esi
  00016	57		 push	 edi
  00017	8b 7d 08	 mov	 edi, DWORD PTR _lhs$[ebp]
  0001a	84 d2		 test	 dl, dl
  0001c	0f 84 32 01 00
	00		 je	 $LN96@operator@2
  00022	80 f2 ed	 xor	 dl, -19			; ffffffedH
  00025	88 55 ec	 mov	 BYTE PTR __t$[ebp], dl
  00028	8a 50 01	 mov	 dl, BYTE PTR [eax+1]
  0002b	84 d2		 test	 dl, dl
  0002d	0f 84 1b 01 00
	00		 je	 $LN95@operator@2
  00033	80 f2 ec	 xor	 dl, -20			; ffffffecH
  00036	88 55 ed	 mov	 BYTE PTR __t$[ebp+1], dl
  00039	8a 50 02	 mov	 dl, BYTE PTR [eax+2]
  0003c	84 d2		 test	 dl, dl
  0003e	0f 84 04 01 00
	00		 je	 $LN94@operator@2
  00044	b1 eb		 mov	 cl, -21			; ffffffebH
  00046	32 d1		 xor	 dl, cl
  00048	88 55 ee	 mov	 BYTE PTR __t$[ebp+2], dl
  0004b	8a 50 03	 mov	 dl, BYTE PTR [eax+3]
  0004e	84 d2		 test	 dl, dl
  00050	0f 84 ec 00 00
	00		 je	 $LN93@operator@2
  00056	80 f2 ea	 xor	 dl, -22			; ffffffeaH
  00059	88 55 ef	 mov	 BYTE PTR __t$[ebp+3], dl
  0005c	8a 50 04	 mov	 dl, BYTE PTR [eax+4]
  0005f	84 d2		 test	 dl, dl
  00061	0f 84 d5 00 00
	00		 je	 $LN92@operator@2
  00067	80 f2 ed	 xor	 dl, -19			; ffffffedH
  0006a	88 55 f0	 mov	 BYTE PTR __t$[ebp+4], dl
  0006d	8a 50 05	 mov	 dl, BYTE PTR [eax+5]
  00070	84 d2		 test	 dl, dl
  00072	0f 84 be 00 00
	00		 je	 $LN91@operator@2
  00078	80 f2 ec	 xor	 dl, -20			; ffffffecH
  0007b	88 55 f1	 mov	 BYTE PTR __t$[ebp+5], dl
  0007e	8a 50 06	 mov	 dl, BYTE PTR [eax+6]
  00081	84 d2		 test	 dl, dl
  00083	0f 84 a8 00 00
	00		 je	 $LN90@operator@2
  00089	32 d1		 xor	 dl, cl
  0008b	88 55 f2	 mov	 BYTE PTR __t$[ebp+6], dl
  0008e	8a 50 07	 mov	 dl, BYTE PTR [eax+7]
  00091	84 d2		 test	 dl, dl
  00093	0f 84 92 00 00
	00		 je	 $LN89@operator@2
  00099	80 f2 ea	 xor	 dl, -22			; ffffffeaH
  0009c	88 55 f3	 mov	 BYTE PTR __t$[ebp+7], dl
  0009f	8a 50 08	 mov	 dl, BYTE PTR [eax+8]
  000a2	84 d2		 test	 dl, dl
  000a4	74 7f		 je	 SHORT $LN88@operator@2
  000a6	80 f2 ed	 xor	 dl, -19			; ffffffedH
  000a9	88 55 f4	 mov	 BYTE PTR __t$[ebp+8], dl
  000ac	8a 50 09	 mov	 dl, BYTE PTR [eax+9]
  000af	84 d2		 test	 dl, dl
  000b1	74 6c		 je	 SHORT $LN87@operator@2
  000b3	80 f2 ec	 xor	 dl, -20			; ffffffecH
  000b6	88 55 f5	 mov	 BYTE PTR __t$[ebp+9], dl
  000b9	8a 50 0a	 mov	 dl, BYTE PTR [eax+10]
  000bc	84 d2		 test	 dl, dl
  000be	74 5a		 je	 SHORT $LN86@operator@2
  000c0	32 d1		 xor	 dl, cl
  000c2	80 78 0b 00	 cmp	 BYTE PTR [eax+11], 0
  000c6	88 55 f6	 mov	 BYTE PTR __t$[ebp+10], dl
  000c9	0f 84 89 00 00
	00		 je	 $LN1@operator@2
  000cf	8a 50 0c	 mov	 dl, BYTE PTR [eax+12]
  000d2	84 d2		 test	 dl, dl
  000d4	74 3e		 je	 SHORT $LN84@operator@2
  000d6	80 f2 ed	 xor	 dl, -19			; ffffffedH
  000d9	88 55 f8	 mov	 BYTE PTR __t$[ebp+12], dl
  000dc	8a 50 0d	 mov	 dl, BYTE PTR [eax+13]
  000df	84 d2		 test	 dl, dl
  000e1	74 2b		 je	 SHORT $LN83@operator@2
  000e3	80 f2 ec	 xor	 dl, -20			; ffffffecH
  000e6	88 55 f9	 mov	 BYTE PTR __t$[ebp+13], dl
  000e9	8a 50 0e	 mov	 dl, BYTE PTR [eax+14]
  000ec	84 d2		 test	 dl, dl
  000ee	74 19		 je	 SHORT $LN82@operator@2
  000f0	8a 40 0f	 mov	 al, BYTE PTR [eax+15]
  000f3	32 d1		 xor	 dl, cl
  000f5	88 55 fa	 mov	 BYTE PTR __t$[ebp+14], dl
  000f8	84 c0		 test	 al, al
  000fa	74 07		 je	 SHORT $LN81@operator@2
  000fc	34 ea		 xor	 al, -22			; ffffffeaH
  000fe	88 45 fb	 mov	 BYTE PTR __t$[ebp+15], al
  00101	eb 55		 jmp	 SHORT $LN1@operator@2
$LN81@operator@2:
  00103	c6 45 fb ea	 mov	 BYTE PTR __t$[ebp+15], -22 ; ffffffeaH
  00107	eb 4f		 jmp	 SHORT $LN1@operator@2
$LN82@operator@2:
  00109	88 4d fa	 mov	 BYTE PTR __t$[ebp+14], cl
  0010c	eb 4a		 jmp	 SHORT $LN1@operator@2
$LN83@operator@2:
  0010e	c6 45 f9 ec	 mov	 BYTE PTR __t$[ebp+13], -20 ; ffffffecH
  00112	eb 44		 jmp	 SHORT $LN1@operator@2
$LN84@operator@2:
  00114	c6 45 f8 ed	 mov	 BYTE PTR __t$[ebp+12], -19 ; ffffffedH
  00118	eb 3e		 jmp	 SHORT $LN1@operator@2
$LN86@operator@2:
  0011a	88 4d f6	 mov	 BYTE PTR __t$[ebp+10], cl
  0011d	eb 39		 jmp	 SHORT $LN1@operator@2
$LN87@operator@2:
  0011f	c6 45 f5 ec	 mov	 BYTE PTR __t$[ebp+9], -20 ; ffffffecH
  00123	eb 33		 jmp	 SHORT $LN1@operator@2
$LN88@operator@2:
  00125	c6 45 f4 ed	 mov	 BYTE PTR __t$[ebp+8], -19 ; ffffffedH
  00129	eb 2d		 jmp	 SHORT $LN1@operator@2
$LN89@operator@2:
  0012b	c6 45 f3 ea	 mov	 BYTE PTR __t$[ebp+7], -22 ; ffffffeaH
  0012f	eb 27		 jmp	 SHORT $LN1@operator@2
$LN90@operator@2:
  00131	88 4d f2	 mov	 BYTE PTR __t$[ebp+6], cl
  00134	eb 22		 jmp	 SHORT $LN1@operator@2
$LN91@operator@2:
  00136	c6 45 f1 ec	 mov	 BYTE PTR __t$[ebp+5], -20 ; ffffffecH
  0013a	eb 1c		 jmp	 SHORT $LN1@operator@2
$LN92@operator@2:
  0013c	c6 45 f0 ed	 mov	 BYTE PTR __t$[ebp+4], -19 ; ffffffedH
  00140	eb 16		 jmp	 SHORT $LN1@operator@2
$LN93@operator@2:
  00142	c6 45 ef ea	 mov	 BYTE PTR __t$[ebp+3], -22 ; ffffffeaH
  00146	eb 10		 jmp	 SHORT $LN1@operator@2
$LN94@operator@2:
  00148	c6 45 ee eb	 mov	 BYTE PTR __t$[ebp+2], -21 ; ffffffebH
  0014c	eb 0a		 jmp	 SHORT $LN1@operator@2
$LN95@operator@2:
  0014e	c6 45 ed ec	 mov	 BYTE PTR __t$[ebp+1], -20 ; ffffffecH
  00152	eb 04		 jmp	 SHORT $LN1@operator@2
$LN96@operator@2:
  00154	c6 45 ec ed	 mov	 BYTE PTR __t$[ebp], -19	; ffffffedH
$LN1@operator@2:
  00158	6a 02		 push	 2
  0015a	8d 45 ec	 lea	 eax, DWORD PTR __t$[ebp]
  0015d	c6 45 f7 00	 mov	 BYTE PTR __t$[ebp+11], 0
  00161	5a		 pop	 edx
$LL104@operator@2:
  00162	81 30 ed ec eb
	ea		 xor	 DWORD PTR [eax], -353637139 ; eaebecedH
  00168	83 c0 04	 add	 eax, 4
  0016b	4a		 dec	 edx
  0016c	75 f4		 jne	 SHORT $LL104@operator@2
  0016e	6a 08		 push	 8
  00170	58		 pop	 eax
$LL101@operator@2:
  00171	8b c8		 mov	 ecx, eax
  00173	81 e1 03 00 00
	80		 and	 ecx, -2147483645	; 80000003H
  00179	79 05		 jns	 SHORT $LN115@operator@2
  0017b	49		 dec	 ecx
  0017c	83 c9 fc	 or	 ecx, -4			; fffffffcH
  0017f	41		 inc	 ecx
$LN115@operator@2:
  00180	b2 ed		 mov	 dl, -19			; ffffffedH
  00182	2a d1		 sub	 dl, cl
  00184	30 54 05 ec	 xor	 BYTE PTR __t$[ebp+eax], dl
  00188	40		 inc	 eax
  00189	83 f8 0b	 cmp	 eax, 11			; 0000000bH
  0018c	7c e3		 jl	 SHORT $LL101@operator@2
  0018e	8b cf		 mov	 ecx, edi
  00190	8d 75 ec	 lea	 esi, DWORD PTR __t$[ebp]
  00193	ff 15 00 00 00
	00		 call	 DWORD PTR __imp_?c_str@ioHashString@@QBEPBDXZ
$LL111@operator@2:
  00199	8a 08		 mov	 cl, BYTE PTR [eax]
  0019b	3a 0e		 cmp	 cl, BYTE PTR [esi]
  0019d	75 1a		 jne	 SHORT $LN112@operator@2
  0019f	84 c9		 test	 cl, cl
  001a1	74 12		 je	 SHORT $LN113@operator@2
  001a3	8a 48 01	 mov	 cl, BYTE PTR [eax+1]
  001a6	3a 4e 01	 cmp	 cl, BYTE PTR [esi+1]
  001a9	75 0e		 jne	 SHORT $LN112@operator@2
  001ab	83 c0 02	 add	 eax, 2
  001ae	83 c6 02	 add	 esi, 2
  001b1	84 c9		 test	 cl, cl
  001b3	75 e4		 jne	 SHORT $LL111@operator@2
$LN113@operator@2:
  001b5	33 c0		 xor	 eax, eax
  001b7	eb 05		 jmp	 SHORT $LN114@operator@2
$LN112@operator@2:
  001b9	1b c0		 sbb	 eax, eax
  001bb	83 d8 ff	 sbb	 eax, -1
$LN114@operator@2:
  001be	33 c9		 xor	 ecx, ecx
  001c0	85 c0		 test	 eax, eax
  001c2	0f 94 c0	 sete	 al

; 148  : }

  001c5	8b 4d fc	 mov	 ecx, DWORD PTR __$ArrayPad$[ebp]
  001c8	5f		 pop	 edi
  001c9	33 cd		 xor	 ecx, ebp
  001cb	5e		 pop	 esi
  001cc	e8 00 00 00 00	 call	 @__security_check_cookie@4
  001d1	c9		 leave
  001d2	c3		 ret	 0
??$?8$0M@@@YA_NABVioHashString@@AAY0M@$$CBD@Z ENDP	; operator==<12>
_TEXT	ENDS
PUBLIC	__$ArrayPad$
PUBLIC	??$?8$0N@@@YA_NABVioHashString@@AAY0N@$$CBD@Z	; operator==<13>
; Function compile flags: /Ogsp
;	COMDAT ??$?8$0N@@@YA_NABVioHashString@@AAY0N@$$CBD@Z
_TEXT	SEGMENT
__t$ = -24						; size = 13
__$ArrayPad$ = -4					; size = 4
_lhs$ = 8						; size = 4
_t$ = 12						; size = 4
??$?8$0N@@@YA_NABVioHashString@@AAY0N@$$CBD@Z PROC	; operator==<13>, COMDAT

; 146  : {

  00000	55		 push	 ebp
  00001	8b ec		 mov	 ebp, esp
  00003	83 ec 18	 sub	 esp, 24			; 00000018H
  00006	a1 00 00 00 00	 mov	 eax, DWORD PTR ___security_cookie
  0000b	33 c5		 xor	 eax, ebp
  0000d	89 45 fc	 mov	 DWORD PTR __$ArrayPad$[ebp], eax
  00010	8b 45 0c	 mov	 eax, DWORD PTR _t$[ebp]

; 147  : 	_ENCSTR(t, _t); return ( strcmp( lhs.c_str(), _t ) == 0 );

  00013	8a 10		 mov	 dl, BYTE PTR [eax]
  00015	56		 push	 esi
  00016	57		 push	 edi
  00017	8b 7d 08	 mov	 edi, DWORD PTR _lhs$[ebp]
  0001a	84 d2		 test	 dl, dl
  0001c	0f 84 4d 01 00
	00		 je	 $LN96@operator@3
  00022	80 f2 ed	 xor	 dl, -19			; ffffffedH
  00025	88 55 e8	 mov	 BYTE PTR __t$[ebp], dl
  00028	8a 50 01	 mov	 dl, BYTE PTR [eax+1]
  0002b	84 d2		 test	 dl, dl
  0002d	0f 84 36 01 00
	00		 je	 $LN95@operator@3
  00033	b1 ec		 mov	 cl, -20			; ffffffecH
  00035	32 d1		 xor	 dl, cl
  00037	88 55 e9	 mov	 BYTE PTR __t$[ebp+1], dl
  0003a	8a 50 02	 mov	 dl, BYTE PTR [eax+2]
  0003d	84 d2		 test	 dl, dl
  0003f	0f 84 1e 01 00
	00		 je	 $LN94@operator@3
  00045	80 f2 eb	 xor	 dl, -21			; ffffffebH
  00048	88 55 ea	 mov	 BYTE PTR __t$[ebp+2], dl
  0004b	8a 50 03	 mov	 dl, BYTE PTR [eax+3]
  0004e	84 d2		 test	 dl, dl
  00050	0f 84 07 01 00
	00		 je	 $LN93@operator@3
  00056	80 f2 ea	 xor	 dl, -22			; ffffffeaH
  00059	88 55 eb	 mov	 BYTE PTR __t$[ebp+3], dl
  0005c	8a 50 04	 mov	 dl, BYTE PTR [eax+4]
  0005f	84 d2		 test	 dl, dl
  00061	0f 84 f0 00 00
	00		 je	 $LN92@operator@3
  00067	80 f2 ed	 xor	 dl, -19			; ffffffedH
  0006a	88 55 ec	 mov	 BYTE PTR __t$[ebp+4], dl
  0006d	8a 50 05	 mov	 dl, BYTE PTR [eax+5]
  00070	84 d2		 test	 dl, dl
  00072	0f 84 da 00 00
	00		 je	 $LN91@operator@3
  00078	32 d1		 xor	 dl, cl
  0007a	88 55 ed	 mov	 BYTE PTR __t$[ebp+5], dl
  0007d	8a 50 06	 mov	 dl, BYTE PTR [eax+6]
  00080	84 d2		 test	 dl, dl
  00082	0f 84 c4 00 00
	00		 je	 $LN90@operator@3
  00088	80 f2 eb	 xor	 dl, -21			; ffffffebH
  0008b	88 55 ee	 mov	 BYTE PTR __t$[ebp+6], dl
  0008e	8a 50 07	 mov	 dl, BYTE PTR [eax+7]
  00091	84 d2		 test	 dl, dl
  00093	0f 84 ad 00 00
	00		 je	 $LN89@operator@3
  00099	80 f2 ea	 xor	 dl, -22			; ffffffeaH
  0009c	88 55 ef	 mov	 BYTE PTR __t$[ebp+7], dl
  0009f	8a 50 08	 mov	 dl, BYTE PTR [eax+8]
  000a2	84 d2		 test	 dl, dl
  000a4	0f 84 96 00 00
	00		 je	 $LN88@operator@3
  000aa	80 f2 ed	 xor	 dl, -19			; ffffffedH
  000ad	88 55 f0	 mov	 BYTE PTR __t$[ebp+8], dl
  000b0	8a 50 09	 mov	 dl, BYTE PTR [eax+9]
  000b3	84 d2		 test	 dl, dl
  000b5	0f 84 80 00 00
	00		 je	 $LN87@operator@3
  000bb	32 d1		 xor	 dl, cl
  000bd	88 55 f1	 mov	 BYTE PTR __t$[ebp+9], dl
  000c0	8a 50 0a	 mov	 dl, BYTE PTR [eax+10]
  000c3	84 d2		 test	 dl, dl
  000c5	74 6e		 je	 SHORT $LN86@operator@3
  000c7	80 f2 eb	 xor	 dl, -21			; ffffffebH
  000ca	88 55 f2	 mov	 BYTE PTR __t$[ebp+10], dl
  000cd	8a 50 0b	 mov	 dl, BYTE PTR [eax+11]
  000d0	84 d2		 test	 dl, dl
  000d2	74 5b		 je	 SHORT $LN85@operator@3
  000d4	80 f2 ea	 xor	 dl, -22			; ffffffeaH
  000d7	80 78 0c 00	 cmp	 BYTE PTR [eax+12], 0
  000db	88 55 f3	 mov	 BYTE PTR __t$[ebp+11], dl
  000de	0f 84 8f 00 00
	00		 je	 $LN1@operator@3
  000e4	8a 50 0d	 mov	 dl, BYTE PTR [eax+13]
  000e7	84 d2		 test	 dl, dl
  000e9	74 3f		 je	 SHORT $LN83@operator@3
  000eb	32 d1		 xor	 dl, cl
  000ed	88 55 f5	 mov	 BYTE PTR __t$[ebp+13], dl
  000f0	8a 50 0e	 mov	 dl, BYTE PTR [eax+14]
  000f3	84 d2		 test	 dl, dl
  000f5	74 2d		 je	 SHORT $LN82@operator@3
  000f7	80 f2 eb	 xor	 dl, -21			; ffffffebH
  000fa	88 55 f6	 mov	 BYTE PTR __t$[ebp+14], dl
  000fd	8a 50 0f	 mov	 dl, BYTE PTR [eax+15]
  00100	84 d2		 test	 dl, dl
  00102	74 1a		 je	 SHORT $LN81@operator@3
  00104	8a 40 10	 mov	 al, BYTE PTR [eax+16]
  00107	80 f2 ea	 xor	 dl, -22			; ffffffeaH
  0010a	88 55 f7	 mov	 BYTE PTR __t$[ebp+15], dl
  0010d	84 c0		 test	 al, al
  0010f	74 07		 je	 SHORT $LN80@operator@3
  00111	34 ed		 xor	 al, -19			; ffffffedH
  00113	88 45 f8	 mov	 BYTE PTR __t$[ebp+16], al
  00116	eb 5b		 jmp	 SHORT $LN1@operator@3
$LN80@operator@3:
  00118	c6 45 f8 ed	 mov	 BYTE PTR __t$[ebp+16], -19 ; ffffffedH
  0011c	eb 55		 jmp	 SHORT $LN1@operator@3
$LN81@operator@3:
  0011e	c6 45 f7 ea	 mov	 BYTE PTR __t$[ebp+15], -22 ; ffffffeaH
  00122	eb 4f		 jmp	 SHORT $LN1@operator@3
$LN82@operator@3:
  00124	c6 45 f6 eb	 mov	 BYTE PTR __t$[ebp+14], -21 ; ffffffebH
  00128	eb 49		 jmp	 SHORT $LN1@operator@3
$LN83@operator@3:
  0012a	88 4d f5	 mov	 BYTE PTR __t$[ebp+13], cl
  0012d	eb 44		 jmp	 SHORT $LN1@operator@3
$LN85@operator@3:
  0012f	c6 45 f3 ea	 mov	 BYTE PTR __t$[ebp+11], -22 ; ffffffeaH
  00133	eb 3e		 jmp	 SHORT $LN1@operator@3
$LN86@operator@3:
  00135	c6 45 f2 eb	 mov	 BYTE PTR __t$[ebp+10], -21 ; ffffffebH
  00139	eb 38		 jmp	 SHORT $LN1@operator@3
$LN87@operator@3:
  0013b	88 4d f1	 mov	 BYTE PTR __t$[ebp+9], cl
  0013e	eb 33		 jmp	 SHORT $LN1@operator@3
$LN88@operator@3:
  00140	c6 45 f0 ed	 mov	 BYTE PTR __t$[ebp+8], -19 ; ffffffedH
  00144	eb 2d		 jmp	 SHORT $LN1@operator@3
$LN89@operator@3:
  00146	c6 45 ef ea	 mov	 BYTE PTR __t$[ebp+7], -22 ; ffffffeaH
  0014a	eb 27		 jmp	 SHORT $LN1@operator@3
$LN90@operator@3:
  0014c	c6 45 ee eb	 mov	 BYTE PTR __t$[ebp+6], -21 ; ffffffebH
  00150	eb 21		 jmp	 SHORT $LN1@operator@3
$LN91@operator@3:
  00152	88 4d ed	 mov	 BYTE PTR __t$[ebp+5], cl
  00155	eb 1c		 jmp	 SHORT $LN1@operator@3
$LN92@operator@3:
  00157	c6 45 ec ed	 mov	 BYTE PTR __t$[ebp+4], -19 ; ffffffedH
  0015b	eb 16		 jmp	 SHORT $LN1@operator@3
$LN93@operator@3:
  0015d	c6 45 eb ea	 mov	 BYTE PTR __t$[ebp+3], -22 ; ffffffeaH
  00161	eb 10		 jmp	 SHORT $LN1@operator@3
$LN94@operator@3:
  00163	c6 45 ea eb	 mov	 BYTE PTR __t$[ebp+2], -21 ; ffffffebH
  00167	eb 0a		 jmp	 SHORT $LN1@operator@3
$LN95@operator@3:
  00169	c6 45 e9 ec	 mov	 BYTE PTR __t$[ebp+1], -20 ; ffffffecH
  0016d	eb 04		 jmp	 SHORT $LN1@operator@3
$LN96@operator@3:
  0016f	c6 45 e8 ed	 mov	 BYTE PTR __t$[ebp], -19	; ffffffedH
$LN1@operator@3:
  00173	6a 03		 push	 3
  00175	8d 45 e8	 lea	 eax, DWORD PTR __t$[ebp]
  00178	c6 45 f4 00	 mov	 BYTE PTR __t$[ebp+12], 0
  0017c	5a		 pop	 edx
$LL104@operator@3:
  0017d	81 30 ed ec eb
	ea		 xor	 DWORD PTR [eax], -353637139 ; eaebecedH
  00183	83 c0 04	 add	 eax, 4
  00186	4a		 dec	 edx
  00187	75 f4		 jne	 SHORT $LL104@operator@3
  00189	8b cf		 mov	 ecx, edi
  0018b	8d 75 e8	 lea	 esi, DWORD PTR __t$[ebp]
  0018e	ff 15 00 00 00
	00		 call	 DWORD PTR __imp_?c_str@ioHashString@@QBEPBDXZ
$LL111@operator@3:
  00194	8a 08		 mov	 cl, BYTE PTR [eax]
  00196	3a 0e		 cmp	 cl, BYTE PTR [esi]
  00198	75 1a		 jne	 SHORT $LN112@operator@3
  0019a	84 c9		 test	 cl, cl
  0019c	74 12		 je	 SHORT $LN113@operator@3
  0019e	8a 48 01	 mov	 cl, BYTE PTR [eax+1]
  001a1	3a 4e 01	 cmp	 cl, BYTE PTR [esi+1]
  001a4	75 0e		 jne	 SHORT $LN112@operator@3
  001a6	83 c0 02	 add	 eax, 2
  001a9	83 c6 02	 add	 esi, 2
  001ac	84 c9		 test	 cl, cl
  001ae	75 e4		 jne	 SHORT $LL111@operator@3
$LN113@operator@3:
  001b0	33 c0		 xor	 eax, eax
  001b2	eb 05		 jmp	 SHORT $LN114@operator@3
$LN112@operator@3:
  001b4	1b c0		 sbb	 eax, eax
  001b6	83 d8 ff	 sbb	 eax, -1
$LN114@operator@3:
  001b9	33 c9		 xor	 ecx, ecx
  001bb	85 c0		 test	 eax, eax
  001bd	0f 94 c0	 sete	 al

; 148  : }

  001c0	8b 4d fc	 mov	 ecx, DWORD PTR __$ArrayPad$[ebp]
  001c3	5f		 pop	 edi
  001c4	33 cd		 xor	 ecx, ebp
  001c6	5e		 pop	 esi
  001c7	e8 00 00 00 00	 call	 @__security_check_cookie@4
  001cc	c9		 leave
  001cd	c3		 ret	 0
??$?8$0N@@@YA_NABVioHashString@@AAY0N@$$CBD@Z ENDP	; operator==<13>
_TEXT	ENDS
PUBLIC	__$ArrayPad$
PUBLIC	??$?8$09@@YA_NABVioHashString@@AAY09$$CBD@Z	; operator==<10>
; Function compile flags: /Ogsp
;	COMDAT ??$?8$09@@YA_NABVioHashString@@AAY09$$CBD@Z
_TEXT	SEGMENT
__t$ = -20						; size = 10
__$ArrayPad$ = -4					; size = 4
_lhs$ = 8						; size = 4
_t$ = 12						; size = 4
??$?8$09@@YA_NABVioHashString@@AAY09$$CBD@Z PROC	; operator==<10>, COMDAT

; 146  : {

  00000	55		 push	 ebp
  00001	8b ec		 mov	 ebp, esp
  00003	83 ec 14	 sub	 esp, 20			; 00000014H
  00006	a1 00 00 00 00	 mov	 eax, DWORD PTR ___security_cookie
  0000b	33 c5		 xor	 eax, ebp
  0000d	89 45 fc	 mov	 DWORD PTR __$ArrayPad$[ebp], eax
  00010	8b 45 0c	 mov	 eax, DWORD PTR _t$[ebp]

; 147  : 	_ENCSTR(t, _t); return ( strcmp( lhs.c_str(), _t ) == 0 );

  00013	8a 10		 mov	 dl, BYTE PTR [eax]
  00015	8b 4d 08	 mov	 ecx, DWORD PTR _lhs$[ebp]
  00018	84 d2		 test	 dl, dl
  0001a	0f 84 0d 01 00
	00		 je	 $LN96@operator@4
  00020	80 f2 ed	 xor	 dl, -19			; ffffffedH
  00023	88 55 ec	 mov	 BYTE PTR __t$[ebp], dl
  00026	8a 50 01	 mov	 dl, BYTE PTR [eax+1]
  00029	84 d2		 test	 dl, dl
  0002b	0f 84 f6 00 00
	00		 je	 $LN95@operator@4
  00031	80 f2 ec	 xor	 dl, -20			; ffffffecH
  00034	88 55 ed	 mov	 BYTE PTR __t$[ebp+1], dl
  00037	8a 50 02	 mov	 dl, BYTE PTR [eax+2]
  0003a	84 d2		 test	 dl, dl
  0003c	0f 84 df 00 00
	00		 je	 $LN94@operator@4
  00042	80 f2 eb	 xor	 dl, -21			; ffffffebH
  00045	88 55 ee	 mov	 BYTE PTR __t$[ebp+2], dl
  00048	8a 50 03	 mov	 dl, BYTE PTR [eax+3]
  0004b	84 d2		 test	 dl, dl
  0004d	0f 84 c8 00 00
	00		 je	 $LN93@operator@4
  00053	80 f2 ea	 xor	 dl, -22			; ffffffeaH
  00056	88 55 ef	 mov	 BYTE PTR __t$[ebp+3], dl
  00059	8a 50 04	 mov	 dl, BYTE PTR [eax+4]
  0005c	84 d2		 test	 dl, dl
  0005e	0f 84 b1 00 00
	00		 je	 $LN92@operator@4
  00064	80 f2 ed	 xor	 dl, -19			; ffffffedH
  00067	88 55 f0	 mov	 BYTE PTR __t$[ebp+4], dl
  0006a	8a 50 05	 mov	 dl, BYTE PTR [eax+5]
  0006d	84 d2		 test	 dl, dl
  0006f	0f 84 9a 00 00
	00		 je	 $LN91@operator@4
  00075	80 f2 ec	 xor	 dl, -20			; ffffffecH
  00078	88 55 f1	 mov	 BYTE PTR __t$[ebp+5], dl
  0007b	8a 50 06	 mov	 dl, BYTE PTR [eax+6]
  0007e	84 d2		 test	 dl, dl
  00080	0f 84 83 00 00
	00		 je	 $LN90@operator@4
  00086	80 f2 eb	 xor	 dl, -21			; ffffffebH
  00089	88 55 f2	 mov	 BYTE PTR __t$[ebp+6], dl
  0008c	8a 50 07	 mov	 dl, BYTE PTR [eax+7]
  0008f	84 d2		 test	 dl, dl
  00091	74 70		 je	 SHORT $LN89@operator@4
  00093	80 f2 ea	 xor	 dl, -22			; ffffffeaH
  00096	88 55 f3	 mov	 BYTE PTR __t$[ebp+7], dl
  00099	8a 50 08	 mov	 dl, BYTE PTR [eax+8]
  0009c	84 d2		 test	 dl, dl
  0009e	74 5d		 je	 SHORT $LN88@operator@4
  000a0	80 f2 ed	 xor	 dl, -19			; ffffffedH
  000a3	80 78 09 00	 cmp	 BYTE PTR [eax+9], 0
  000a7	88 55 f4	 mov	 BYTE PTR __t$[ebp+8], dl
  000aa	0f 84 81 00 00
	00		 je	 $LN1@operator@4
  000b0	8a 50 0a	 mov	 dl, BYTE PTR [eax+10]
  000b3	84 d2		 test	 dl, dl
  000b5	74 40		 je	 SHORT $LN86@operator@4
  000b7	80 f2 eb	 xor	 dl, -21			; ffffffebH
  000ba	88 55 f6	 mov	 BYTE PTR __t$[ebp+10], dl
  000bd	8a 50 0b	 mov	 dl, BYTE PTR [eax+11]
  000c0	84 d2		 test	 dl, dl
  000c2	74 2d		 je	 SHORT $LN85@operator@4
  000c4	80 f2 ea	 xor	 dl, -22			; ffffffeaH
  000c7	88 55 f7	 mov	 BYTE PTR __t$[ebp+11], dl
  000ca	8a 50 0c	 mov	 dl, BYTE PTR [eax+12]
  000cd	84 d2		 test	 dl, dl
  000cf	74 1a		 je	 SHORT $LN84@operator@4
  000d1	8a 40 0d	 mov	 al, BYTE PTR [eax+13]
  000d4	80 f2 ed	 xor	 dl, -19			; ffffffedH
  000d7	88 55 f8	 mov	 BYTE PTR __t$[ebp+12], dl
  000da	84 c0		 test	 al, al
  000dc	74 07		 je	 SHORT $LN83@operator@4
  000de	34 ec		 xor	 al, -20			; ffffffecH
  000e0	88 45 f9	 mov	 BYTE PTR __t$[ebp+13], al
  000e3	eb 4c		 jmp	 SHORT $LN1@operator@4
$LN83@operator@4:
  000e5	c6 45 f9 ec	 mov	 BYTE PTR __t$[ebp+13], -20 ; ffffffecH
  000e9	eb 46		 jmp	 SHORT $LN1@operator@4
$LN84@operator@4:
  000eb	c6 45 f8 ed	 mov	 BYTE PTR __t$[ebp+12], -19 ; ffffffedH
  000ef	eb 40		 jmp	 SHORT $LN1@operator@4
$LN85@operator@4:
  000f1	c6 45 f7 ea	 mov	 BYTE PTR __t$[ebp+11], -22 ; ffffffeaH
  000f5	eb 3a		 jmp	 SHORT $LN1@operator@4
$LN86@operator@4:
  000f7	c6 45 f6 eb	 mov	 BYTE PTR __t$[ebp+10], -21 ; ffffffebH
  000fb	eb 34		 jmp	 SHORT $LN1@operator@4
$LN88@operator@4:
  000fd	c6 45 f4 ed	 mov	 BYTE PTR __t$[ebp+8], -19 ; ffffffedH
  00101	eb 2e		 jmp	 SHORT $LN1@operator@4
$LN89@operator@4:
  00103	c6 45 f3 ea	 mov	 BYTE PTR __t$[ebp+7], -22 ; ffffffeaH
  00107	eb 28		 jmp	 SHORT $LN1@operator@4
$LN90@operator@4:
  00109	c6 45 f2 eb	 mov	 BYTE PTR __t$[ebp+6], -21 ; ffffffebH
  0010d	eb 22		 jmp	 SHORT $LN1@operator@4
$LN91@operator@4:
  0010f	c6 45 f1 ec	 mov	 BYTE PTR __t$[ebp+5], -20 ; ffffffecH
  00113	eb 1c		 jmp	 SHORT $LN1@operator@4
$LN92@operator@4:
  00115	c6 45 f0 ed	 mov	 BYTE PTR __t$[ebp+4], -19 ; ffffffedH
  00119	eb 16		 jmp	 SHORT $LN1@operator@4
$LN93@operator@4:
  0011b	c6 45 ef ea	 mov	 BYTE PTR __t$[ebp+3], -22 ; ffffffeaH
  0011f	eb 10		 jmp	 SHORT $LN1@operator@4
$LN94@operator@4:
  00121	c6 45 ee eb	 mov	 BYTE PTR __t$[ebp+2], -21 ; ffffffebH
  00125	eb 0a		 jmp	 SHORT $LN1@operator@4
$LN95@operator@4:
  00127	c6 45 ed ec	 mov	 BYTE PTR __t$[ebp+1], -20 ; ffffffecH
  0012b	eb 04		 jmp	 SHORT $LN1@operator@4
$LN96@operator@4:
  0012d	c6 45 ec ed	 mov	 BYTE PTR __t$[ebp], -19	; ffffffedH
$LN1@operator@4:
  00131	6a 02		 push	 2
  00133	8d 45 ec	 lea	 eax, DWORD PTR __t$[ebp]
  00136	c6 45 f5 00	 mov	 BYTE PTR __t$[ebp+9], 0
  0013a	5a		 pop	 edx
$LL104@operator@4:
  0013b	81 30 ed ec eb
	ea		 xor	 DWORD PTR [eax], -353637139 ; eaebecedH
  00141	83 c0 04	 add	 eax, 4
  00144	4a		 dec	 edx
  00145	75 f4		 jne	 SHORT $LL104@operator@4
  00147	80 75 f4 ed	 xor	 BYTE PTR __t$[ebp+8], -19 ; ffffffedH
  0014b	56		 push	 esi
  0014c	8d 75 ec	 lea	 esi, DWORD PTR __t$[ebp]
  0014f	ff 15 00 00 00
	00		 call	 DWORD PTR __imp_?c_str@ioHashString@@QBEPBDXZ
$LL111@operator@4:
  00155	8a 08		 mov	 cl, BYTE PTR [eax]
  00157	3a 0e		 cmp	 cl, BYTE PTR [esi]
  00159	75 1a		 jne	 SHORT $LN112@operator@4
  0015b	84 c9		 test	 cl, cl
  0015d	74 12		 je	 SHORT $LN113@operator@4
  0015f	8a 48 01	 mov	 cl, BYTE PTR [eax+1]
  00162	3a 4e 01	 cmp	 cl, BYTE PTR [esi+1]
  00165	75 0e		 jne	 SHORT $LN112@operator@4
  00167	83 c0 02	 add	 eax, 2
  0016a	83 c6 02	 add	 esi, 2
  0016d	84 c9		 test	 cl, cl
  0016f	75 e4		 jne	 SHORT $LL111@operator@4
$LN113@operator@4:
  00171	33 c0		 xor	 eax, eax
  00173	eb 05		 jmp	 SHORT $LN114@operator@4
$LN112@operator@4:
  00175	1b c0		 sbb	 eax, eax
  00177	83 d8 ff	 sbb	 eax, -1
$LN114@operator@4:
  0017a	33 c9		 xor	 ecx, ecx
  0017c	85 c0		 test	 eax, eax
  0017e	0f 94 c0	 sete	 al

; 148  : }

  00181	8b 4d fc	 mov	 ecx, DWORD PTR __$ArrayPad$[ebp]
  00184	33 cd		 xor	 ecx, ebp
  00186	5e		 pop	 esi
  00187	e8 00 00 00 00	 call	 @__security_check_cookie@4
  0018c	c9		 leave
  0018d	c3		 ret	 0
??$?8$09@@YA_NABVioHashString@@AAY09$$CBD@Z ENDP	; operator==<10>
_TEXT	ENDS
PUBLIC	__$ArrayPad$
PUBLIC	??$?8$0P@@@YA_NABVioHashString@@AAY0P@$$CBD@Z	; operator==<15>
; Function compile flags: /Ogsp
;	COMDAT ??$?8$0P@@@YA_NABVioHashString@@AAY0P@$$CBD@Z
_TEXT	SEGMENT
__t$ = -24						; size = 15
__$ArrayPad$ = -4					; size = 4
_lhs$ = 8						; size = 4
_t$ = 12						; size = 4
??$?8$0P@@@YA_NABVioHashString@@AAY0P@$$CBD@Z PROC	; operator==<15>, COMDAT

; 146  : {

  00000	55		 push	 ebp
  00001	8b ec		 mov	 ebp, esp
  00003	83 ec 18	 sub	 esp, 24			; 00000018H
  00006	a1 00 00 00 00	 mov	 eax, DWORD PTR ___security_cookie
  0000b	33 c5		 xor	 eax, ebp
  0000d	89 45 fc	 mov	 DWORD PTR __$ArrayPad$[ebp], eax
  00010	8b 45 0c	 mov	 eax, DWORD PTR _t$[ebp]

; 147  : 	_ENCSTR(t, _t); return ( strcmp( lhs.c_str(), _t ) == 0 );

  00013	8a 10		 mov	 dl, BYTE PTR [eax]
  00015	56		 push	 esi
  00016	57		 push	 edi
  00017	8b 7d 08	 mov	 edi, DWORD PTR _lhs$[ebp]
  0001a	84 d2		 test	 dl, dl
  0001c	0f 84 75 01 00
	00		 je	 $LN96@operator@5
  00022	80 f2 ed	 xor	 dl, -19			; ffffffedH
  00025	88 55 e8	 mov	 BYTE PTR __t$[ebp], dl
  00028	8a 50 01	 mov	 dl, BYTE PTR [eax+1]
  0002b	84 d2		 test	 dl, dl
  0002d	0f 84 5e 01 00
	00		 je	 $LN95@operator@5
  00033	b1 ec		 mov	 cl, -20			; ffffffecH
  00035	32 d1		 xor	 dl, cl
  00037	88 55 e9	 mov	 BYTE PTR __t$[ebp+1], dl
  0003a	8a 50 02	 mov	 dl, BYTE PTR [eax+2]
  0003d	84 d2		 test	 dl, dl
  0003f	0f 84 46 01 00
	00		 je	 $LN94@operator@5
  00045	80 f2 eb	 xor	 dl, -21			; ffffffebH
  00048	88 55 ea	 mov	 BYTE PTR __t$[ebp+2], dl
  0004b	8a 50 03	 mov	 dl, BYTE PTR [eax+3]
  0004e	84 d2		 test	 dl, dl
  00050	0f 84 2f 01 00
	00		 je	 $LN93@operator@5
  00056	80 f2 ea	 xor	 dl, -22			; ffffffeaH
  00059	88 55 eb	 mov	 BYTE PTR __t$[ebp+3], dl
  0005c	8a 50 04	 mov	 dl, BYTE PTR [eax+4]
  0005f	84 d2		 test	 dl, dl
  00061	0f 84 18 01 00
	00		 je	 $LN92@operator@5
  00067	80 f2 ed	 xor	 dl, -19			; ffffffedH
  0006a	88 55 ec	 mov	 BYTE PTR __t$[ebp+4], dl
  0006d	8a 50 05	 mov	 dl, BYTE PTR [eax+5]
  00070	84 d2		 test	 dl, dl
  00072	0f 84 02 01 00
	00		 je	 $LN91@operator@5
  00078	32 d1		 xor	 dl, cl
  0007a	88 55 ed	 mov	 BYTE PTR __t$[ebp+5], dl
  0007d	8a 50 06	 mov	 dl, BYTE PTR [eax+6]
  00080	84 d2		 test	 dl, dl
  00082	0f 84 ec 00 00
	00		 je	 $LN90@operator@5
  00088	80 f2 eb	 xor	 dl, -21			; ffffffebH
  0008b	88 55 ee	 mov	 BYTE PTR __t$[ebp+6], dl
  0008e	8a 50 07	 mov	 dl, BYTE PTR [eax+7]
  00091	84 d2		 test	 dl, dl
  00093	0f 84 d5 00 00
	00		 je	 $LN89@operator@5
  00099	80 f2 ea	 xor	 dl, -22			; ffffffeaH
  0009c	88 55 ef	 mov	 BYTE PTR __t$[ebp+7], dl
  0009f	8a 50 08	 mov	 dl, BYTE PTR [eax+8]
  000a2	84 d2		 test	 dl, dl
  000a4	0f 84 be 00 00
	00		 je	 $LN88@operator@5
  000aa	80 f2 ed	 xor	 dl, -19			; ffffffedH
  000ad	88 55 f0	 mov	 BYTE PTR __t$[ebp+8], dl
  000b0	8a 50 09	 mov	 dl, BYTE PTR [eax+9]
  000b3	84 d2		 test	 dl, dl
  000b5	0f 84 a8 00 00
	00		 je	 $LN87@operator@5
  000bb	32 d1		 xor	 dl, cl
  000bd	88 55 f1	 mov	 BYTE PTR __t$[ebp+9], dl
  000c0	8a 50 0a	 mov	 dl, BYTE PTR [eax+10]
  000c3	84 d2		 test	 dl, dl
  000c5	0f 84 92 00 00
	00		 je	 $LN86@operator@5
  000cb	80 f2 eb	 xor	 dl, -21			; ffffffebH
  000ce	88 55 f2	 mov	 BYTE PTR __t$[ebp+10], dl
  000d1	8a 50 0b	 mov	 dl, BYTE PTR [eax+11]
  000d4	84 d2		 test	 dl, dl
  000d6	74 7f		 je	 SHORT $LN85@operator@5
  000d8	80 f2 ea	 xor	 dl, -22			; ffffffeaH
  000db	88 55 f3	 mov	 BYTE PTR __t$[ebp+11], dl
  000de	8a 50 0c	 mov	 dl, BYTE PTR [eax+12]
  000e1	84 d2		 test	 dl, dl
  000e3	74 6c		 je	 SHORT $LN84@operator@5
  000e5	80 f2 ed	 xor	 dl, -19			; ffffffedH
  000e8	88 55 f4	 mov	 BYTE PTR __t$[ebp+12], dl
  000eb	8a 50 0d	 mov	 dl, BYTE PTR [eax+13]
  000ee	84 d2		 test	 dl, dl
  000f0	74 5a		 je	 SHORT $LN83@operator@5
  000f2	32 d1		 xor	 dl, cl
  000f4	80 78 0e 00	 cmp	 BYTE PTR [eax+14], 0
  000f8	88 55 f5	 mov	 BYTE PTR __t$[ebp+13], dl
  000fb	0f 84 9a 00 00
	00		 je	 $LN1@operator@5
  00101	8a 50 0f	 mov	 dl, BYTE PTR [eax+15]
  00104	84 d2		 test	 dl, dl
  00106	74 3e		 je	 SHORT $LN81@operator@5
  00108	80 f2 ea	 xor	 dl, -22			; ffffffeaH
  0010b	88 55 f7	 mov	 BYTE PTR __t$[ebp+15], dl
  0010e	8a 50 10	 mov	 dl, BYTE PTR [eax+16]
  00111	84 d2		 test	 dl, dl
  00113	74 2b		 je	 SHORT $LN80@operator@5
  00115	80 f2 ed	 xor	 dl, -19			; ffffffedH
  00118	88 55 f8	 mov	 BYTE PTR __t$[ebp+16], dl
  0011b	8a 50 11	 mov	 dl, BYTE PTR [eax+17]
  0011e	84 d2		 test	 dl, dl
  00120	74 19		 je	 SHORT $LN79@operator@5
  00122	8a 40 12	 mov	 al, BYTE PTR [eax+18]
  00125	32 d1		 xor	 dl, cl
  00127	88 55 f9	 mov	 BYTE PTR __t$[ebp+17], dl
  0012a	84 c0		 test	 al, al
  0012c	74 07		 je	 SHORT $LN78@operator@5
  0012e	34 eb		 xor	 al, -21			; ffffffebH
  00130	88 45 fa	 mov	 BYTE PTR __t$[ebp+18], al
  00133	eb 66		 jmp	 SHORT $LN1@operator@5
$LN78@operator@5:
  00135	c6 45 fa eb	 mov	 BYTE PTR __t$[ebp+18], -21 ; ffffffebH
  00139	eb 60		 jmp	 SHORT $LN1@operator@5
$LN79@operator@5:
  0013b	88 4d f9	 mov	 BYTE PTR __t$[ebp+17], cl
  0013e	eb 5b		 jmp	 SHORT $LN1@operator@5
$LN80@operator@5:
  00140	c6 45 f8 ed	 mov	 BYTE PTR __t$[ebp+16], -19 ; ffffffedH
  00144	eb 55		 jmp	 SHORT $LN1@operator@5
$LN81@operator@5:
  00146	c6 45 f7 ea	 mov	 BYTE PTR __t$[ebp+15], -22 ; ffffffeaH
  0014a	eb 4f		 jmp	 SHORT $LN1@operator@5
$LN83@operator@5:
  0014c	88 4d f5	 mov	 BYTE PTR __t$[ebp+13], cl
  0014f	eb 4a		 jmp	 SHORT $LN1@operator@5
$LN84@operator@5:
  00151	c6 45 f4 ed	 mov	 BYTE PTR __t$[ebp+12], -19 ; ffffffedH
  00155	eb 44		 jmp	 SHORT $LN1@operator@5
$LN85@operator@5:
  00157	c6 45 f3 ea	 mov	 BYTE PTR __t$[ebp+11], -22 ; ffffffeaH
  0015b	eb 3e		 jmp	 SHORT $LN1@operator@5
$LN86@operator@5:
  0015d	c6 45 f2 eb	 mov	 BYTE PTR __t$[ebp+10], -21 ; ffffffebH
  00161	eb 38		 jmp	 SHORT $LN1@operator@5
$LN87@operator@5:
  00163	88 4d f1	 mov	 BYTE PTR __t$[ebp+9], cl
  00166	eb 33		 jmp	 SHORT $LN1@operator@5
$LN88@operator@5:
  00168	c6 45 f0 ed	 mov	 BYTE PTR __t$[ebp+8], -19 ; ffffffedH
  0016c	eb 2d		 jmp	 SHORT $LN1@operator@5
$LN89@operator@5:
  0016e	c6 45 ef ea	 mov	 BYTE PTR __t$[ebp+7], -22 ; ffffffeaH
  00172	eb 27		 jmp	 SHORT $LN1@operator@5
$LN90@operator@5:
  00174	c6 45 ee eb	 mov	 BYTE PTR __t$[ebp+6], -21 ; ffffffebH
  00178	eb 21		 jmp	 SHORT $LN1@operator@5
$LN91@operator@5:
  0017a	88 4d ed	 mov	 BYTE PTR __t$[ebp+5], cl
  0017d	eb 1c		 jmp	 SHORT $LN1@operator@5
$LN92@operator@5:
  0017f	c6 45 ec ed	 mov	 BYTE PTR __t$[ebp+4], -19 ; ffffffedH
  00183	eb 16		 jmp	 SHORT $LN1@operator@5
$LN93@operator@5:
  00185	c6 45 eb ea	 mov	 BYTE PTR __t$[ebp+3], -22 ; ffffffeaH
  00189	eb 10		 jmp	 SHORT $LN1@operator@5
$LN94@operator@5:
  0018b	c6 45 ea eb	 mov	 BYTE PTR __t$[ebp+2], -21 ; ffffffebH
  0018f	eb 0a		 jmp	 SHORT $LN1@operator@5
$LN95@operator@5:
  00191	c6 45 e9 ec	 mov	 BYTE PTR __t$[ebp+1], -20 ; ffffffecH
  00195	eb 04		 jmp	 SHORT $LN1@operator@5
$LN96@operator@5:
  00197	c6 45 e8 ed	 mov	 BYTE PTR __t$[ebp], -19	; ffffffedH
$LN1@operator@5:
  0019b	6a 03		 push	 3
  0019d	8d 45 e8	 lea	 eax, DWORD PTR __t$[ebp]
  001a0	c6 45 f6 00	 mov	 BYTE PTR __t$[ebp+14], 0
  001a4	5a		 pop	 edx
$LL104@operator@5:
  001a5	81 30 ed ec eb
	ea		 xor	 DWORD PTR [eax], -353637139 ; eaebecedH
  001ab	83 c0 04	 add	 eax, 4
  001ae	4a		 dec	 edx
  001af	75 f4		 jne	 SHORT $LL104@operator@5
  001b1	6a 0c		 push	 12			; 0000000cH
  001b3	58		 pop	 eax
$LL101@operator@5:
  001b4	8b c8		 mov	 ecx, eax
  001b6	81 e1 03 00 00
	80		 and	 ecx, -2147483645	; 80000003H
  001bc	79 05		 jns	 SHORT $LN115@operator@5
  001be	49		 dec	 ecx
  001bf	83 c9 fc	 or	 ecx, -4			; fffffffcH
  001c2	41		 inc	 ecx
$LN115@operator@5:
  001c3	b2 ed		 mov	 dl, -19			; ffffffedH
  001c5	2a d1		 sub	 dl, cl
  001c7	30 54 05 e8	 xor	 BYTE PTR __t$[ebp+eax], dl
  001cb	40		 inc	 eax
  001cc	83 f8 0e	 cmp	 eax, 14			; 0000000eH
  001cf	7c e3		 jl	 SHORT $LL101@operator@5
  001d1	8b cf		 mov	 ecx, edi
  001d3	8d 75 e8	 lea	 esi, DWORD PTR __t$[ebp]
  001d6	ff 15 00 00 00
	00		 call	 DWORD PTR __imp_?c_str@ioHashString@@QBEPBDXZ
$LL111@operator@5:
  001dc	8a 08		 mov	 cl, BYTE PTR [eax]
  001de	3a 0e		 cmp	 cl, BYTE PTR [esi]
  001e0	75 1a		 jne	 SHORT $LN112@operator@5
  001e2	84 c9		 test	 cl, cl
  001e4	74 12		 je	 SHORT $LN113@operator@5
  001e6	8a 48 01	 mov	 cl, BYTE PTR [eax+1]
  001e9	3a 4e 01	 cmp	 cl, BYTE PTR [esi+1]
  001ec	75 0e		 jne	 SHORT $LN112@operator@5
  001ee	83 c0 02	 add	 eax, 2
  001f1	83 c6 02	 add	 esi, 2
  001f4	84 c9		 test	 cl, cl
  001f6	75 e4		 jne	 SHORT $LL111@operator@5
$LN113@operator@5:
  001f8	33 c0		 xor	 eax, eax
  001fa	eb 05		 jmp	 SHORT $LN114@operator@5
$LN112@operator@5:
  001fc	1b c0		 sbb	 eax, eax
  001fe	83 d8 ff	 sbb	 eax, -1
$LN114@operator@5:
  00201	33 c9		 xor	 ecx, ecx
  00203	85 c0		 test	 eax, eax
  00205	0f 94 c0	 sete	 al

; 148  : }

  00208	8b 4d fc	 mov	 ecx, DWORD PTR __$ArrayPad$[ebp]
  0020b	5f		 pop	 edi
  0020c	33 cd		 xor	 ecx, ebp
  0020e	5e		 pop	 esi
  0020f	e8 00 00 00 00	 call	 @__security_check_cookie@4
  00214	c9		 leave
  00215	c3		 ret	 0
??$?8$0P@@@YA_NABVioHashString@@AAY0P@$$CBD@Z ENDP	; operator==<15>
_TEXT	ENDS
PUBLIC	__$ArrayPad$
PUBLIC	??$?8$07@@YA_NABVioHashString@@AAY07$$CBD@Z	; operator==<8>
; Function compile flags: /Ogsp
;	COMDAT ??$?8$07@@YA_NABVioHashString@@AAY07$$CBD@Z
_TEXT	SEGMENT
__t$ = -16						; size = 8
__$ArrayPad$ = -4					; size = 4
_lhs$ = 8						; size = 4
_t$ = 12						; size = 4
??$?8$07@@YA_NABVioHashString@@AAY07$$CBD@Z PROC	; operator==<8>, COMDAT

; 146  : {

  00000	55		 push	 ebp
  00001	8b ec		 mov	 ebp, esp
  00003	83 ec 10	 sub	 esp, 16			; 00000010H
  00006	a1 00 00 00 00	 mov	 eax, DWORD PTR ___security_cookie
  0000b	33 c5		 xor	 eax, ebp
  0000d	89 45 fc	 mov	 DWORD PTR __$ArrayPad$[ebp], eax
  00010	8b 45 0c	 mov	 eax, DWORD PTR _t$[ebp]

; 147  : 	_ENCSTR(t, _t); return ( strcmp( lhs.c_str(), _t ) == 0 );

  00013	8a 10		 mov	 dl, BYTE PTR [eax]
  00015	56		 push	 esi
  00016	57		 push	 edi
  00017	8b 7d 08	 mov	 edi, DWORD PTR _lhs$[ebp]
  0001a	84 d2		 test	 dl, dl
  0001c	0f 84 d7 00 00
	00		 je	 $LN96@operator@6
  00022	80 f2 ed	 xor	 dl, -19			; ffffffedH
  00025	88 55 f0	 mov	 BYTE PTR __t$[ebp], dl
  00028	8a 50 01	 mov	 dl, BYTE PTR [eax+1]
  0002b	84 d2		 test	 dl, dl
  0002d	0f 84 c0 00 00
	00		 je	 $LN95@operator@6
  00033	80 f2 ec	 xor	 dl, -20			; ffffffecH
  00036	88 55 f1	 mov	 BYTE PTR __t$[ebp+1], dl
  00039	8a 50 02	 mov	 dl, BYTE PTR [eax+2]
  0003c	84 d2		 test	 dl, dl
  0003e	0f 84 a9 00 00
	00		 je	 $LN94@operator@6
  00044	80 f2 eb	 xor	 dl, -21			; ffffffebH
  00047	88 55 f2	 mov	 BYTE PTR __t$[ebp+2], dl
  0004a	8a 50 03	 mov	 dl, BYTE PTR [eax+3]
  0004d	84 d2		 test	 dl, dl
  0004f	0f 84 92 00 00
	00		 je	 $LN93@operator@6
  00055	80 f2 ea	 xor	 dl, -22			; ffffffeaH
  00058	88 55 f3	 mov	 BYTE PTR __t$[ebp+3], dl
  0005b	8a 50 04	 mov	 dl, BYTE PTR [eax+4]
  0005e	84 d2		 test	 dl, dl
  00060	74 7f		 je	 SHORT $LN92@operator@6
  00062	80 f2 ed	 xor	 dl, -19			; ffffffedH
  00065	88 55 f4	 mov	 BYTE PTR __t$[ebp+4], dl
  00068	8a 50 05	 mov	 dl, BYTE PTR [eax+5]
  0006b	84 d2		 test	 dl, dl
  0006d	74 6c		 je	 SHORT $LN91@operator@6
  0006f	80 f2 ec	 xor	 dl, -20			; ffffffecH
  00072	88 55 f5	 mov	 BYTE PTR __t$[ebp+5], dl
  00075	8a 50 06	 mov	 dl, BYTE PTR [eax+6]
  00078	84 d2		 test	 dl, dl
  0007a	74 59		 je	 SHORT $LN90@operator@6
  0007c	80 f2 eb	 xor	 dl, -21			; ffffffebH
  0007f	80 78 07 00	 cmp	 BYTE PTR [eax+7], 0
  00083	88 55 f6	 mov	 BYTE PTR __t$[ebp+6], dl
  00086	74 75		 je	 SHORT $LN1@operator@6
  00088	8a 50 08	 mov	 dl, BYTE PTR [eax+8]
  0008b	84 d2		 test	 dl, dl
  0008d	74 40		 je	 SHORT $LN88@operator@6
  0008f	80 f2 ed	 xor	 dl, -19			; ffffffedH
  00092	88 55 f8	 mov	 BYTE PTR __t$[ebp+8], dl
  00095	8a 50 09	 mov	 dl, BYTE PTR [eax+9]
  00098	84 d2		 test	 dl, dl
  0009a	74 2d		 je	 SHORT $LN87@operator@6
  0009c	80 f2 ec	 xor	 dl, -20			; ffffffecH
  0009f	88 55 f9	 mov	 BYTE PTR __t$[ebp+9], dl
  000a2	8a 50 0a	 mov	 dl, BYTE PTR [eax+10]
  000a5	84 d2		 test	 dl, dl
  000a7	74 1a		 je	 SHORT $LN86@operator@6
  000a9	8a 40 0b	 mov	 al, BYTE PTR [eax+11]
  000ac	80 f2 eb	 xor	 dl, -21			; ffffffebH
  000af	88 55 fa	 mov	 BYTE PTR __t$[ebp+10], dl
  000b2	84 c0		 test	 al, al
  000b4	74 07		 je	 SHORT $LN85@operator@6
  000b6	34 ea		 xor	 al, -22			; ffffffeaH
  000b8	88 45 fb	 mov	 BYTE PTR __t$[ebp+11], al
  000bb	eb 40		 jmp	 SHORT $LN1@operator@6
$LN85@operator@6:
  000bd	c6 45 fb ea	 mov	 BYTE PTR __t$[ebp+11], -22 ; ffffffeaH
  000c1	eb 3a		 jmp	 SHORT $LN1@operator@6
$LN86@operator@6:
  000c3	c6 45 fa eb	 mov	 BYTE PTR __t$[ebp+10], -21 ; ffffffebH
  000c7	eb 34		 jmp	 SHORT $LN1@operator@6
$LN87@operator@6:
  000c9	c6 45 f9 ec	 mov	 BYTE PTR __t$[ebp+9], -20 ; ffffffecH
  000cd	eb 2e		 jmp	 SHORT $LN1@operator@6
$LN88@operator@6:
  000cf	c6 45 f8 ed	 mov	 BYTE PTR __t$[ebp+8], -19 ; ffffffedH
  000d3	eb 28		 jmp	 SHORT $LN1@operator@6
$LN90@operator@6:
  000d5	c6 45 f6 eb	 mov	 BYTE PTR __t$[ebp+6], -21 ; ffffffebH
  000d9	eb 22		 jmp	 SHORT $LN1@operator@6
$LN91@operator@6:
  000db	c6 45 f5 ec	 mov	 BYTE PTR __t$[ebp+5], -20 ; ffffffecH
  000df	eb 1c		 jmp	 SHORT $LN1@operator@6
$LN92@operator@6:
  000e1	c6 45 f4 ed	 mov	 BYTE PTR __t$[ebp+4], -19 ; ffffffedH
  000e5	eb 16		 jmp	 SHORT $LN1@operator@6
$LN93@operator@6:
  000e7	c6 45 f3 ea	 mov	 BYTE PTR __t$[ebp+3], -22 ; ffffffeaH
  000eb	eb 10		 jmp	 SHORT $LN1@operator@6
$LN94@operator@6:
  000ed	c6 45 f2 eb	 mov	 BYTE PTR __t$[ebp+2], -21 ; ffffffebH
  000f1	eb 0a		 jmp	 SHORT $LN1@operator@6
$LN95@operator@6:
  000f3	c6 45 f1 ec	 mov	 BYTE PTR __t$[ebp+1], -20 ; ffffffecH
  000f7	eb 04		 jmp	 SHORT $LN1@operator@6
$LN96@operator@6:
  000f9	c6 45 f0 ed	 mov	 BYTE PTR __t$[ebp], -19	; ffffffedH
$LN1@operator@6:
  000fd	81 75 f0 ed ec
	eb ea		 xor	 DWORD PTR __t$[ebp], -353637139 ; eaebecedH
  00104	6a 04		 push	 4
  00106	c6 45 f7 00	 mov	 BYTE PTR __t$[ebp+7], 0
  0010a	58		 pop	 eax
$LL101@operator@6:
  0010b	8b c8		 mov	 ecx, eax
  0010d	81 e1 03 00 00
	80		 and	 ecx, -2147483645	; 80000003H
  00113	79 05		 jns	 SHORT $LN115@operator@6
  00115	49		 dec	 ecx
  00116	83 c9 fc	 or	 ecx, -4			; fffffffcH
  00119	41		 inc	 ecx
$LN115@operator@6:
  0011a	b2 ed		 mov	 dl, -19			; ffffffedH
  0011c	2a d1		 sub	 dl, cl
  0011e	30 54 05 f0	 xor	 BYTE PTR __t$[ebp+eax], dl
  00122	40		 inc	 eax
  00123	83 f8 07	 cmp	 eax, 7
  00126	7c e3		 jl	 SHORT $LL101@operator@6
  00128	8b cf		 mov	 ecx, edi
  0012a	8d 75 f0	 lea	 esi, DWORD PTR __t$[ebp]
  0012d	ff 15 00 00 00
	00		 call	 DWORD PTR __imp_?c_str@ioHashString@@QBEPBDXZ
$LL111@operator@6:
  00133	8a 08		 mov	 cl, BYTE PTR [eax]
  00135	3a 0e		 cmp	 cl, BYTE PTR [esi]
  00137	75 1a		 jne	 SHORT $LN112@operator@6
  00139	84 c9		 test	 cl, cl
  0013b	74 12		 je	 SHORT $LN113@operator@6
  0013d	8a 48 01	 mov	 cl, BYTE PTR [eax+1]
  00140	3a 4e 01	 cmp	 cl, BYTE PTR [esi+1]
  00143	75 0e		 jne	 SHORT $LN112@operator@6
  00145	83 c0 02	 add	 eax, 2
  00148	83 c6 02	 add	 esi, 2
  0014b	84 c9		 test	 cl, cl
  0014d	75 e4		 jne	 SHORT $LL111@operator@6
$LN113@operator@6:
  0014f	33 c0		 xor	 eax, eax
  00151	eb 05		 jmp	 SHORT $LN114@operator@6
$LN112@operator@6:
  00153	1b c0		 sbb	 eax, eax
  00155	83 d8 ff	 sbb	 eax, -1
$LN114@operator@6:
  00158	33 c9		 xor	 ecx, ecx
  0015a	85 c0		 test	 eax, eax
  0015c	0f 94 c0	 sete	 al

; 148  : }

  0015f	8b 4d fc	 mov	 ecx, DWORD PTR __$ArrayPad$[ebp]
  00162	5f		 pop	 edi
  00163	33 cd		 xor	 ecx, ebp
  00165	5e		 pop	 esi
  00166	e8 00 00 00 00	 call	 @__security_check_cookie@4
  0016b	c9		 leave
  0016c	c3		 ret	 0
??$?8$07@@YA_NABVioHashString@@AAY07$$CBD@Z ENDP	; operator==<8>
_TEXT	ENDS
PUBLIC	__$ArrayPad$
PUBLIC	??$?8$0O@@@YA_NABVioHashString@@AAY0O@$$CBD@Z	; operator==<14>
; Function compile flags: /Ogsp
;	COMDAT ??$?8$0O@@@YA_NABVioHashString@@AAY0O@$$CBD@Z
_TEXT	SEGMENT
__t$ = -24						; size = 14
__$ArrayPad$ = -4					; size = 4
_lhs$ = 8						; size = 4
_t$ = 12						; size = 4
??$?8$0O@@@YA_NABVioHashString@@AAY0O@$$CBD@Z PROC	; operator==<14>, COMDAT

; 146  : {

  00000	55		 push	 ebp
  00001	8b ec		 mov	 ebp, esp
  00003	83 ec 18	 sub	 esp, 24			; 00000018H
  00006	a1 00 00 00 00	 mov	 eax, DWORD PTR ___security_cookie
  0000b	33 c5		 xor	 eax, ebp
  0000d	89 45 fc	 mov	 DWORD PTR __$ArrayPad$[ebp], eax
  00010	8b 45 0c	 mov	 eax, DWORD PTR _t$[ebp]

; 147  : 	_ENCSTR(t, _t); return ( strcmp( lhs.c_str(), _t ) == 0 );

  00013	8a 10		 mov	 dl, BYTE PTR [eax]
  00015	56		 push	 esi
  00016	57		 push	 edi
  00017	8b 7d 08	 mov	 edi, DWORD PTR _lhs$[ebp]
  0001a	84 d2		 test	 dl, dl
  0001c	0f 84 64 01 00
	00		 je	 $LN96@operator@7
  00022	80 f2 ed	 xor	 dl, -19			; ffffffedH
  00025	88 55 e8	 mov	 BYTE PTR __t$[ebp], dl
  00028	8a 50 01	 mov	 dl, BYTE PTR [eax+1]
  0002b	84 d2		 test	 dl, dl
  0002d	0f 84 4d 01 00
	00		 je	 $LN95@operator@7
  00033	80 f2 ec	 xor	 dl, -20			; ffffffecH
  00036	88 55 e9	 mov	 BYTE PTR __t$[ebp+1], dl
  00039	8a 50 02	 mov	 dl, BYTE PTR [eax+2]
  0003c	84 d2		 test	 dl, dl
  0003e	0f 84 36 01 00
	00		 je	 $LN94@operator@7
  00044	b1 eb		 mov	 cl, -21			; ffffffebH
  00046	32 d1		 xor	 dl, cl
  00048	88 55 ea	 mov	 BYTE PTR __t$[ebp+2], dl
  0004b	8a 50 03	 mov	 dl, BYTE PTR [eax+3]
  0004e	84 d2		 test	 dl, dl
  00050	0f 84 1e 01 00
	00		 je	 $LN93@operator@7
  00056	80 f2 ea	 xor	 dl, -22			; ffffffeaH
  00059	88 55 eb	 mov	 BYTE PTR __t$[ebp+3], dl
  0005c	8a 50 04	 mov	 dl, BYTE PTR [eax+4]
  0005f	84 d2		 test	 dl, dl
  00061	0f 84 07 01 00
	00		 je	 $LN92@operator@7
  00067	80 f2 ed	 xor	 dl, -19			; ffffffedH
  0006a	88 55 ec	 mov	 BYTE PTR __t$[ebp+4], dl
  0006d	8a 50 05	 mov	 dl, BYTE PTR [eax+5]
  00070	84 d2		 test	 dl, dl
  00072	0f 84 f0 00 00
	00		 je	 $LN91@operator@7
  00078	80 f2 ec	 xor	 dl, -20			; ffffffecH
  0007b	88 55 ed	 mov	 BYTE PTR __t$[ebp+5], dl
  0007e	8a 50 06	 mov	 dl, BYTE PTR [eax+6]
  00081	84 d2		 test	 dl, dl
  00083	0f 84 da 00 00
	00		 je	 $LN90@operator@7
  00089	32 d1		 xor	 dl, cl
  0008b	88 55 ee	 mov	 BYTE PTR __t$[ebp+6], dl
  0008e	8a 50 07	 mov	 dl, BYTE PTR [eax+7]
  00091	84 d2		 test	 dl, dl
  00093	0f 84 c4 00 00
	00		 je	 $LN89@operator@7
  00099	80 f2 ea	 xor	 dl, -22			; ffffffeaH
  0009c	88 55 ef	 mov	 BYTE PTR __t$[ebp+7], dl
  0009f	8a 50 08	 mov	 dl, BYTE PTR [eax+8]
  000a2	84 d2		 test	 dl, dl
  000a4	0f 84 ad 00 00
	00		 je	 $LN88@operator@7
  000aa	80 f2 ed	 xor	 dl, -19			; ffffffedH
  000ad	88 55 f0	 mov	 BYTE PTR __t$[ebp+8], dl
  000b0	8a 50 09	 mov	 dl, BYTE PTR [eax+9]
  000b3	84 d2		 test	 dl, dl
  000b5	0f 84 96 00 00
	00		 je	 $LN87@operator@7
  000bb	80 f2 ec	 xor	 dl, -20			; ffffffecH
  000be	88 55 f1	 mov	 BYTE PTR __t$[ebp+9], dl
  000c1	8a 50 0a	 mov	 dl, BYTE PTR [eax+10]
  000c4	84 d2		 test	 dl, dl
  000c6	0f 84 80 00 00
	00		 je	 $LN86@operator@7
  000cc	32 d1		 xor	 dl, cl
  000ce	88 55 f2	 mov	 BYTE PTR __t$[ebp+10], dl
  000d1	8a 50 0b	 mov	 dl, BYTE PTR [eax+11]
  000d4	84 d2		 test	 dl, dl
  000d6	74 6e		 je	 SHORT $LN85@operator@7
  000d8	80 f2 ea	 xor	 dl, -22			; ffffffeaH
  000db	88 55 f3	 mov	 BYTE PTR __t$[ebp+11], dl
  000de	8a 50 0c	 mov	 dl, BYTE PTR [eax+12]
  000e1	84 d2		 test	 dl, dl
  000e3	74 5b		 je	 SHORT $LN84@operator@7
  000e5	80 f2 ed	 xor	 dl, -19			; ffffffedH
  000e8	80 78 0d 00	 cmp	 BYTE PTR [eax+13], 0
  000ec	88 55 f4	 mov	 BYTE PTR __t$[ebp+12], dl
  000ef	0f 84 95 00 00
	00		 je	 $LN1@operator@7
  000f5	8a 50 0e	 mov	 dl, BYTE PTR [eax+14]
  000f8	84 d2		 test	 dl, dl
  000fa	74 3f		 je	 SHORT $LN82@operator@7
  000fc	32 d1		 xor	 dl, cl
  000fe	88 55 f6	 mov	 BYTE PTR __t$[ebp+14], dl
  00101	8a 50 0f	 mov	 dl, BYTE PTR [eax+15]
  00104	84 d2		 test	 dl, dl
  00106	74 2d		 je	 SHORT $LN81@operator@7
  00108	80 f2 ea	 xor	 dl, -22			; ffffffeaH
  0010b	88 55 f7	 mov	 BYTE PTR __t$[ebp+15], dl
  0010e	8a 50 10	 mov	 dl, BYTE PTR [eax+16]
  00111	84 d2		 test	 dl, dl
  00113	74 1a		 je	 SHORT $LN80@operator@7
  00115	8a 40 11	 mov	 al, BYTE PTR [eax+17]
  00118	80 f2 ed	 xor	 dl, -19			; ffffffedH
  0011b	88 55 f8	 mov	 BYTE PTR __t$[ebp+16], dl
  0011e	84 c0		 test	 al, al
  00120	74 07		 je	 SHORT $LN79@operator@7
  00122	34 ec		 xor	 al, -20			; ffffffecH
  00124	88 45 f9	 mov	 BYTE PTR __t$[ebp+17], al
  00127	eb 61		 jmp	 SHORT $LN1@operator@7
$LN79@operator@7:
  00129	c6 45 f9 ec	 mov	 BYTE PTR __t$[ebp+17], -20 ; ffffffecH
  0012d	eb 5b		 jmp	 SHORT $LN1@operator@7
$LN80@operator@7:
  0012f	c6 45 f8 ed	 mov	 BYTE PTR __t$[ebp+16], -19 ; ffffffedH
  00133	eb 55		 jmp	 SHORT $LN1@operator@7
$LN81@operator@7:
  00135	c6 45 f7 ea	 mov	 BYTE PTR __t$[ebp+15], -22 ; ffffffeaH
  00139	eb 4f		 jmp	 SHORT $LN1@operator@7
$LN82@operator@7:
  0013b	88 4d f6	 mov	 BYTE PTR __t$[ebp+14], cl
  0013e	eb 4a		 jmp	 SHORT $LN1@operator@7
$LN84@operator@7:
  00140	c6 45 f4 ed	 mov	 BYTE PTR __t$[ebp+12], -19 ; ffffffedH
  00144	eb 44		 jmp	 SHORT $LN1@operator@7
$LN85@operator@7:
  00146	c6 45 f3 ea	 mov	 BYTE PTR __t$[ebp+11], -22 ; ffffffeaH
  0014a	eb 3e		 jmp	 SHORT $LN1@operator@7
$LN86@operator@7:
  0014c	88 4d f2	 mov	 BYTE PTR __t$[ebp+10], cl
  0014f	eb 39		 jmp	 SHORT $LN1@operator@7
$LN87@operator@7:
  00151	c6 45 f1 ec	 mov	 BYTE PTR __t$[ebp+9], -20 ; ffffffecH
  00155	eb 33		 jmp	 SHORT $LN1@operator@7
$LN88@operator@7:
  00157	c6 45 f0 ed	 mov	 BYTE PTR __t$[ebp+8], -19 ; ffffffedH
  0015b	eb 2d		 jmp	 SHORT $LN1@operator@7
$LN89@operator@7:
  0015d	c6 45 ef ea	 mov	 BYTE PTR __t$[ebp+7], -22 ; ffffffeaH
  00161	eb 27		 jmp	 SHORT $LN1@operator@7
$LN90@operator@7:
  00163	88 4d ee	 mov	 BYTE PTR __t$[ebp+6], cl
  00166	eb 22		 jmp	 SHORT $LN1@operator@7
$LN91@operator@7:
  00168	c6 45 ed ec	 mov	 BYTE PTR __t$[ebp+5], -20 ; ffffffecH
  0016c	eb 1c		 jmp	 SHORT $LN1@operator@7
$LN92@operator@7:
  0016e	c6 45 ec ed	 mov	 BYTE PTR __t$[ebp+4], -19 ; ffffffedH
  00172	eb 16		 jmp	 SHORT $LN1@operator@7
$LN93@operator@7:
  00174	c6 45 eb ea	 mov	 BYTE PTR __t$[ebp+3], -22 ; ffffffeaH
  00178	eb 10		 jmp	 SHORT $LN1@operator@7
$LN94@operator@7:
  0017a	c6 45 ea eb	 mov	 BYTE PTR __t$[ebp+2], -21 ; ffffffebH
  0017e	eb 0a		 jmp	 SHORT $LN1@operator@7
$LN95@operator@7:
  00180	c6 45 e9 ec	 mov	 BYTE PTR __t$[ebp+1], -20 ; ffffffecH
  00184	eb 04		 jmp	 SHORT $LN1@operator@7
$LN96@operator@7:
  00186	c6 45 e8 ed	 mov	 BYTE PTR __t$[ebp], -19	; ffffffedH
$LN1@operator@7:
  0018a	6a 03		 push	 3
  0018c	8d 45 e8	 lea	 eax, DWORD PTR __t$[ebp]
  0018f	c6 45 f5 00	 mov	 BYTE PTR __t$[ebp+13], 0
  00193	5a		 pop	 edx
$LL104@operator@7:
  00194	81 30 ed ec eb
	ea		 xor	 DWORD PTR [eax], -353637139 ; eaebecedH
  0019a	83 c0 04	 add	 eax, 4
  0019d	4a		 dec	 edx
  0019e	75 f4		 jne	 SHORT $LL104@operator@7
  001a0	80 75 f4 ed	 xor	 BYTE PTR __t$[ebp+12], -19 ; ffffffedH
  001a4	8b cf		 mov	 ecx, edi
  001a6	8d 75 e8	 lea	 esi, DWORD PTR __t$[ebp]
  001a9	ff 15 00 00 00
	00		 call	 DWORD PTR __imp_?c_str@ioHashString@@QBEPBDXZ
$LL111@operator@7:
  001af	8a 08		 mov	 cl, BYTE PTR [eax]
  001b1	3a 0e		 cmp	 cl, BYTE PTR [esi]
  001b3	75 1a		 jne	 SHORT $LN112@operator@7
  001b5	84 c9		 test	 cl, cl
  001b7	74 12		 je	 SHORT $LN113@operator@7
  001b9	8a 48 01	 mov	 cl, BYTE PTR [eax+1]
  001bc	3a 4e 01	 cmp	 cl, BYTE PTR [esi+1]
  001bf	75 0e		 jne	 SHORT $LN112@operator@7
  001c1	83 c0 02	 add	 eax, 2
  001c4	83 c6 02	 add	 esi, 2
  001c7	84 c9		 test	 cl, cl
  001c9	75 e4		 jne	 SHORT $LL111@operator@7
$LN113@operator@7:
  001cb	33 c0		 xor	 eax, eax
  001cd	eb 05		 jmp	 SHORT $LN114@operator@7
$LN112@operator@7:
  001cf	1b c0		 sbb	 eax, eax
  001d1	83 d8 ff	 sbb	 eax, -1
$LN114@operator@7:
  001d4	33 c9		 xor	 ecx, ecx
  001d6	85 c0		 test	 eax, eax
  001d8	0f 94 c0	 sete	 al

; 148  : }

  001db	8b 4d fc	 mov	 ecx, DWORD PTR __$ArrayPad$[ebp]
  001de	5f		 pop	 edi
  001df	33 cd		 xor	 ecx, ebp
  001e1	5e		 pop	 esi
  001e2	e8 00 00 00 00	 call	 @__security_check_cookie@4
  001e7	c9		 leave
  001e8	c3		 ret	 0
??$?8$0O@@@YA_NABVioHashString@@AAY0O@$$CBD@Z ENDP	; operator==<14>
_TEXT	ENDS
PUBLIC	__$ArrayPad$
PUBLIC	??$?8$06@ioHashString@@QAE_NAAY06$$CBD@Z	; ioHashString::operator==<7>
; Function compile flags: /Ogsp
;	COMDAT ??$?8$06@ioHashString@@QAE_NAAY06$$CBD@Z
_TEXT	SEGMENT
__t$ = -16						; size = 7
__$ArrayPad$ = -4					; size = 4
_t$ = 8							; size = 4
??$?8$06@ioHashString@@QAE_NAAY06$$CBD@Z PROC		; ioHashString::operator==<7>, COMDAT
; _this$ = ecx

; 127  : 	{

  00000	55		 push	 ebp
  00001	8b ec		 mov	 ebp, esp
  00003	83 ec 10	 sub	 esp, 16			; 00000010H
  00006	a1 00 00 00 00	 mov	 eax, DWORD PTR ___security_cookie
  0000b	33 c5		 xor	 eax, ebp
  0000d	89 45 fc	 mov	 DWORD PTR __$ArrayPad$[ebp], eax
  00010	8b 45 08	 mov	 eax, DWORD PTR _t$[ebp]

; 128  : 		_ENCSTR(t, _t); return ( strcmp( m_pString, _t ) == 0 );

  00013	8a 10		 mov	 dl, BYTE PTR [eax]
  00015	56		 push	 esi
  00016	8b f1		 mov	 esi, ecx
  00018	84 d2		 test	 dl, dl
  0001a	0f 84 c0 00 00
	00		 je	 $LN96@operator@8
  00020	80 f2 ed	 xor	 dl, -19			; ffffffedH
  00023	88 55 f0	 mov	 BYTE PTR __t$[ebp], dl
  00026	8a 50 01	 mov	 dl, BYTE PTR [eax+1]
  00029	84 d2		 test	 dl, dl
  0002b	0f 84 a9 00 00
	00		 je	 $LN95@operator@8
  00031	80 f2 ec	 xor	 dl, -20			; ffffffecH
  00034	88 55 f1	 mov	 BYTE PTR __t$[ebp+1], dl
  00037	8a 50 02	 mov	 dl, BYTE PTR [eax+2]
  0003a	84 d2		 test	 dl, dl
  0003c	0f 84 92 00 00
	00		 je	 $LN94@operator@8
  00042	80 f2 eb	 xor	 dl, -21			; ffffffebH
  00045	88 55 f2	 mov	 BYTE PTR __t$[ebp+2], dl
  00048	8a 50 03	 mov	 dl, BYTE PTR [eax+3]
  0004b	84 d2		 test	 dl, dl
  0004d	74 7f		 je	 SHORT $LN93@operator@8
  0004f	80 f2 ea	 xor	 dl, -22			; ffffffeaH
  00052	88 55 f3	 mov	 BYTE PTR __t$[ebp+3], dl
  00055	8a 50 04	 mov	 dl, BYTE PTR [eax+4]
  00058	84 d2		 test	 dl, dl
  0005a	74 6c		 je	 SHORT $LN92@operator@8
  0005c	80 f2 ed	 xor	 dl, -19			; ffffffedH
  0005f	88 55 f4	 mov	 BYTE PTR __t$[ebp+4], dl
  00062	8a 50 05	 mov	 dl, BYTE PTR [eax+5]
  00065	84 d2		 test	 dl, dl
  00067	74 59		 je	 SHORT $LN91@operator@8
  00069	80 f2 ec	 xor	 dl, -20			; ffffffecH
  0006c	80 78 06 00	 cmp	 BYTE PTR [eax+6], 0
  00070	88 55 f5	 mov	 BYTE PTR __t$[ebp+5], dl
  00073	74 6f		 je	 SHORT $LN1@operator@8
  00075	8a 50 07	 mov	 dl, BYTE PTR [eax+7]
  00078	84 d2		 test	 dl, dl
  0007a	74 40		 je	 SHORT $LN89@operator@8
  0007c	80 f2 ea	 xor	 dl, -22			; ffffffeaH
  0007f	88 55 f7	 mov	 BYTE PTR __t$[ebp+7], dl
  00082	8a 50 08	 mov	 dl, BYTE PTR [eax+8]
  00085	84 d2		 test	 dl, dl
  00087	74 2d		 je	 SHORT $LN88@operator@8
  00089	80 f2 ed	 xor	 dl, -19			; ffffffedH
  0008c	88 55 f8	 mov	 BYTE PTR __t$[ebp+8], dl
  0008f	8a 50 09	 mov	 dl, BYTE PTR [eax+9]
  00092	84 d2		 test	 dl, dl
  00094	74 1a		 je	 SHORT $LN87@operator@8
  00096	8a 40 0a	 mov	 al, BYTE PTR [eax+10]
  00099	80 f2 ec	 xor	 dl, -20			; ffffffecH
  0009c	88 55 f9	 mov	 BYTE PTR __t$[ebp+9], dl
  0009f	84 c0		 test	 al, al
  000a1	74 07		 je	 SHORT $LN86@operator@8
  000a3	34 eb		 xor	 al, -21			; ffffffebH
  000a5	88 45 fa	 mov	 BYTE PTR __t$[ebp+10], al
  000a8	eb 3a		 jmp	 SHORT $LN1@operator@8
$LN86@operator@8:
  000aa	c6 45 fa eb	 mov	 BYTE PTR __t$[ebp+10], -21 ; ffffffebH
  000ae	eb 34		 jmp	 SHORT $LN1@operator@8
$LN87@operator@8:
  000b0	c6 45 f9 ec	 mov	 BYTE PTR __t$[ebp+9], -20 ; ffffffecH
  000b4	eb 2e		 jmp	 SHORT $LN1@operator@8
$LN88@operator@8:
  000b6	c6 45 f8 ed	 mov	 BYTE PTR __t$[ebp+8], -19 ; ffffffedH
  000ba	eb 28		 jmp	 SHORT $LN1@operator@8
$LN89@operator@8:
  000bc	c6 45 f7 ea	 mov	 BYTE PTR __t$[ebp+7], -22 ; ffffffeaH
  000c0	eb 22		 jmp	 SHORT $LN1@operator@8
$LN91@operator@8:
  000c2	c6 45 f5 ec	 mov	 BYTE PTR __t$[ebp+5], -20 ; ffffffecH
  000c6	eb 1c		 jmp	 SHORT $LN1@operator@8
$LN92@operator@8:
  000c8	c6 45 f4 ed	 mov	 BYTE PTR __t$[ebp+4], -19 ; ffffffedH
  000cc	eb 16		 jmp	 SHORT $LN1@operator@8
$LN93@operator@8:
  000ce	c6 45 f3 ea	 mov	 BYTE PTR __t$[ebp+3], -22 ; ffffffeaH
  000d2	eb 10		 jmp	 SHORT $LN1@operator@8
$LN94@operator@8:
  000d4	c6 45 f2 eb	 mov	 BYTE PTR __t$[ebp+2], -21 ; ffffffebH
  000d8	eb 0a		 jmp	 SHORT $LN1@operator@8
$LN95@operator@8:
  000da	c6 45 f1 ec	 mov	 BYTE PTR __t$[ebp+1], -20 ; ffffffecH
  000de	eb 04		 jmp	 SHORT $LN1@operator@8
$LN96@operator@8:
  000e0	c6 45 f0 ed	 mov	 BYTE PTR __t$[ebp], -19	; ffffffedH
$LN1@operator@8:
  000e4	81 75 f0 ed ec
	eb ea		 xor	 DWORD PTR __t$[ebp], -353637139 ; eaebecedH
  000eb	6a 04		 push	 4
  000ed	c6 45 f6 00	 mov	 BYTE PTR __t$[ebp+6], 0
  000f1	58		 pop	 eax
$LL101@operator@8:
  000f2	8b c8		 mov	 ecx, eax
  000f4	81 e1 03 00 00
	80		 and	 ecx, -2147483645	; 80000003H
  000fa	79 05		 jns	 SHORT $LN115@operator@8
  000fc	49		 dec	 ecx
  000fd	83 c9 fc	 or	 ecx, -4			; fffffffcH
  00100	41		 inc	 ecx
$LN115@operator@8:
  00101	b2 ed		 mov	 dl, -19			; ffffffedH
  00103	2a d1		 sub	 dl, cl
  00105	30 54 05 f0	 xor	 BYTE PTR __t$[ebp+eax], dl
  00109	40		 inc	 eax
  0010a	83 f8 06	 cmp	 eax, 6
  0010d	7c e3		 jl	 SHORT $LL101@operator@8
  0010f	8b 06		 mov	 eax, DWORD PTR [esi]
  00111	8d 55 f0	 lea	 edx, DWORD PTR __t$[ebp]
  00114	5e		 pop	 esi
$LL111@operator@8:
  00115	8a 08		 mov	 cl, BYTE PTR [eax]
  00117	3a 0a		 cmp	 cl, BYTE PTR [edx]
  00119	75 1a		 jne	 SHORT $LN112@operator@8
  0011b	84 c9		 test	 cl, cl
  0011d	74 12		 je	 SHORT $LN113@operator@8
  0011f	8a 48 01	 mov	 cl, BYTE PTR [eax+1]
  00122	3a 4a 01	 cmp	 cl, BYTE PTR [edx+1]
  00125	75 0e		 jne	 SHORT $LN112@operator@8
  00127	83 c0 02	 add	 eax, 2
  0012a	83 c2 02	 add	 edx, 2
  0012d	84 c9		 test	 cl, cl
  0012f	75 e4		 jne	 SHORT $LL111@operator@8
$LN113@operator@8:
  00131	33 c0		 xor	 eax, eax
  00133	eb 05		 jmp	 SHORT $LN114@operator@8
$LN112@operator@8:
  00135	1b c0		 sbb	 eax, eax
  00137	83 d8 ff	 sbb	 eax, -1
$LN114@operator@8:
  0013a	33 c9		 xor	 ecx, ecx
  0013c	85 c0		 test	 eax, eax
  0013e	0f 94 c0	 sete	 al

; 129  : 	}

  00141	8b 4d fc	 mov	 ecx, DWORD PTR __$ArrayPad$[ebp]
  00144	33 cd		 xor	 ecx, ebp
  00146	e8 00 00 00 00	 call	 @__security_check_cookie@4
  0014b	c9		 leave
  0014c	c2 04 00	 ret	 4
??$?8$06@ioHashString@@QAE_NAAY06$$CBD@Z ENDP		; ioHashString::operator==<7>
_TEXT	ENDS
PUBLIC	__$ArrayPad$
PUBLIC	??$?8$04@ioHashString@@QAE_NAAY04$$CBD@Z	; ioHashString::operator==<5>
; Function compile flags: /Ogsp
;	COMDAT ??$?8$04@ioHashString@@QAE_NAAY04$$CBD@Z
_TEXT	SEGMENT
__t$ = -16						; size = 5
__$ArrayPad$ = -4					; size = 4
_t$ = 8							; size = 4
??$?8$04@ioHashString@@QAE_NAAY04$$CBD@Z PROC		; ioHashString::operator==<5>, COMDAT
; _this$ = ecx

; 127  : 	{

  00000	55		 push	 ebp
  00001	8b ec		 mov	 ebp, esp
  00003	83 ec 10	 sub	 esp, 16			; 00000010H
  00006	a1 00 00 00 00	 mov	 eax, DWORD PTR ___security_cookie
  0000b	33 c5		 xor	 eax, ebp
  0000d	89 45 fc	 mov	 DWORD PTR __$ArrayPad$[ebp], eax
  00010	8b 45 08	 mov	 eax, DWORD PTR _t$[ebp]

; 128  : 		_ENCSTR(t, _t); return ( strcmp( m_pString, _t ) == 0 );

  00013	8a 10		 mov	 dl, BYTE PTR [eax]
  00015	84 d2		 test	 dl, dl
  00017	0f 84 92 00 00
	00		 je	 $LN96@operator@9
  0001d	80 f2 ed	 xor	 dl, -19			; ffffffedH
  00020	88 55 f0	 mov	 BYTE PTR __t$[ebp], dl
  00023	8a 50 01	 mov	 dl, BYTE PTR [eax+1]
  00026	84 d2		 test	 dl, dl
  00028	74 7f		 je	 SHORT $LN95@operator@9
  0002a	80 f2 ec	 xor	 dl, -20			; ffffffecH
  0002d	88 55 f1	 mov	 BYTE PTR __t$[ebp+1], dl
  00030	8a 50 02	 mov	 dl, BYTE PTR [eax+2]
  00033	84 d2		 test	 dl, dl
  00035	74 6c		 je	 SHORT $LN94@operator@9
  00037	80 f2 eb	 xor	 dl, -21			; ffffffebH
  0003a	88 55 f2	 mov	 BYTE PTR __t$[ebp+2], dl
  0003d	8a 50 03	 mov	 dl, BYTE PTR [eax+3]
  00040	84 d2		 test	 dl, dl
  00042	74 59		 je	 SHORT $LN93@operator@9
  00044	80 f2 ea	 xor	 dl, -22			; ffffffeaH
  00047	80 78 04 00	 cmp	 BYTE PTR [eax+4], 0
  0004b	88 55 f3	 mov	 BYTE PTR __t$[ebp+3], dl
  0004e	74 63		 je	 SHORT $LN1@operator@9
  00050	8a 50 05	 mov	 dl, BYTE PTR [eax+5]
  00053	84 d2		 test	 dl, dl
  00055	74 40		 je	 SHORT $LN91@operator@9
  00057	80 f2 ec	 xor	 dl, -20			; ffffffecH
  0005a	88 55 f5	 mov	 BYTE PTR __t$[ebp+5], dl
  0005d	8a 50 06	 mov	 dl, BYTE PTR [eax+6]
  00060	84 d2		 test	 dl, dl
  00062	74 2d		 je	 SHORT $LN90@operator@9
  00064	80 f2 eb	 xor	 dl, -21			; ffffffebH
  00067	88 55 f6	 mov	 BYTE PTR __t$[ebp+6], dl
  0006a	8a 50 07	 mov	 dl, BYTE PTR [eax+7]
  0006d	84 d2		 test	 dl, dl
  0006f	74 1a		 je	 SHORT $LN89@operator@9
  00071	8a 40 08	 mov	 al, BYTE PTR [eax+8]
  00074	80 f2 ea	 xor	 dl, -22			; ffffffeaH
  00077	88 55 f7	 mov	 BYTE PTR __t$[ebp+7], dl
  0007a	84 c0		 test	 al, al
  0007c	74 07		 je	 SHORT $LN88@operator@9
  0007e	34 ed		 xor	 al, -19			; ffffffedH
  00080	88 45 f8	 mov	 BYTE PTR __t$[ebp+8], al
  00083	eb 2e		 jmp	 SHORT $LN1@operator@9
$LN88@operator@9:
  00085	c6 45 f8 ed	 mov	 BYTE PTR __t$[ebp+8], -19 ; ffffffedH
  00089	eb 28		 jmp	 SHORT $LN1@operator@9
$LN89@operator@9:
  0008b	c6 45 f7 ea	 mov	 BYTE PTR __t$[ebp+7], -22 ; ffffffeaH
  0008f	eb 22		 jmp	 SHORT $LN1@operator@9
$LN90@operator@9:
  00091	c6 45 f6 eb	 mov	 BYTE PTR __t$[ebp+6], -21 ; ffffffebH
  00095	eb 1c		 jmp	 SHORT $LN1@operator@9
$LN91@operator@9:
  00097	c6 45 f5 ec	 mov	 BYTE PTR __t$[ebp+5], -20 ; ffffffecH
  0009b	eb 16		 jmp	 SHORT $LN1@operator@9
$LN93@operator@9:
  0009d	c6 45 f3 ea	 mov	 BYTE PTR __t$[ebp+3], -22 ; ffffffeaH
  000a1	eb 10		 jmp	 SHORT $LN1@operator@9
$LN94@operator@9:
  000a3	c6 45 f2 eb	 mov	 BYTE PTR __t$[ebp+2], -21 ; ffffffebH
  000a7	eb 0a		 jmp	 SHORT $LN1@operator@9
$LN95@operator@9:
  000a9	c6 45 f1 ec	 mov	 BYTE PTR __t$[ebp+1], -20 ; ffffffecH
  000ad	eb 04		 jmp	 SHORT $LN1@operator@9
$LN96@operator@9:
  000af	c6 45 f0 ed	 mov	 BYTE PTR __t$[ebp], -19	; ffffffedH
$LN1@operator@9:
  000b3	81 75 f0 ed ec
	eb ea		 xor	 DWORD PTR __t$[ebp], -353637139 ; eaebecedH
  000ba	8b 01		 mov	 eax, DWORD PTR [ecx]
  000bc	c6 45 f4 00	 mov	 BYTE PTR __t$[ebp+4], 0
  000c0	8d 55 f0	 lea	 edx, DWORD PTR __t$[ebp]
$LL111@operator@9:
  000c3	8a 08		 mov	 cl, BYTE PTR [eax]
  000c5	3a 0a		 cmp	 cl, BYTE PTR [edx]
  000c7	75 1a		 jne	 SHORT $LN112@operator@9
  000c9	84 c9		 test	 cl, cl
  000cb	74 12		 je	 SHORT $LN113@operator@9
  000cd	8a 48 01	 mov	 cl, BYTE PTR [eax+1]
  000d0	3a 4a 01	 cmp	 cl, BYTE PTR [edx+1]
  000d3	75 0e		 jne	 SHORT $LN112@operator@9
  000d5	83 c0 02	 add	 eax, 2
  000d8	83 c2 02	 add	 edx, 2
  000db	84 c9		 test	 cl, cl
  000dd	75 e4		 jne	 SHORT $LL111@operator@9
$LN113@operator@9:
  000df	33 c0		 xor	 eax, eax
  000e1	eb 05		 jmp	 SHORT $LN114@operator@9
$LN112@operator@9:
  000e3	1b c0		 sbb	 eax, eax
  000e5	83 d8 ff	 sbb	 eax, -1
$LN114@operator@9:
  000e8	33 c9		 xor	 ecx, ecx
  000ea	85 c0		 test	 eax, eax
  000ec	0f 94 c0	 sete	 al

; 129  : 	}

  000ef	8b 4d fc	 mov	 ecx, DWORD PTR __$ArrayPad$[ebp]
  000f2	33 cd		 xor	 ecx, ebp
  000f4	e8 00 00 00 00	 call	 @__security_check_cookie@4
  000f9	c9		 leave
  000fa	c2 04 00	 ret	 4
??$?8$04@ioHashString@@QAE_NAAY04$$CBD@Z ENDP		; ioHashString::operator==<5>
_TEXT	ENDS
PUBLIC	??$_Cons_val@V?$allocator@UAniEventInfo@@@std@@UAniEventInfo@@AAU3@@std@@YAXAAV?$allocator@UAniEventInfo@@@0@PAUAniEventInfo@@AAU2@@Z ; std::_Cons_val<std::allocator<AniEventInfo>,AniEventInfo,AniEventInfo &>
;	COMDAT xdata$x
; File c:\program files (x86)\microsoft visual studio 10.0\vc\include\utility
xdata$x	SEGMENT
__unwindtable$??$_Cons_val@V?$allocator@UAniEventInfo@@@std@@UAniEventInfo@@AAU3@@std@@YAXAAV?$allocator@UAniEventInfo@@@0@PAUAniEventInfo@@AAU2@@Z DD 0ffffffffH
	DD	FLAT:__unwindfunclet$??$_Cons_val@V?$allocator@UAniEventInfo@@@std@@UAniEventInfo@@AAU3@@std@@YAXAAV?$allocator@UAniEventInfo@@@0@PAUAniEventInfo@@AAU2@@Z$0
__ehfuncinfo$??$_Cons_val@V?$allocator@UAniEventInfo@@@std@@UAniEventInfo@@AAU3@@std@@YAXAAV?$allocator@UAniEventInfo@@@0@PAUAniEventInfo@@AAU2@@Z DD 019930522H
	DD	01H
	DD	FLAT:__unwindtable$??$_Cons_val@V?$allocator@UAniEventInfo@@@std@@UAniEventInfo@@AAU3@@std@@YAXAAV?$allocator@UAniEventInfo@@@0@PAUAniEventInfo@@AAU2@@Z
	DD	2 DUP(00H)
	DD	2 DUP(00H)
	DD	00H
	DD	01H
; Function compile flags: /Ogsp
; File c:\program files (x86)\microsoft visual studio 10.0\vc\include\xmemory
xdata$x	ENDS
;	COMDAT ??$_Cons_val@V?$allocator@UAniEventInfo@@@std@@UAniEventInfo@@AAU3@@std@@YAXAAV?$allocator@UAniEventInfo@@@0@PAUAniEventInfo@@AAU2@@Z
_TEXT	SEGMENT
$T532510 = -16						; size = 4
__$EHRec$ = -12						; size = 12
__Alval$ = 8						; size = 4
__Pdest$ = 12						; size = 4
__Src$ = 16						; size = 4
??$_Cons_val@V?$allocator@UAniEventInfo@@@std@@UAniEventInfo@@AAU3@@std@@YAXAAV?$allocator@UAniEventInfo@@@0@PAUAniEventInfo@@AAU2@@Z PROC ; std::_Cons_val<std::allocator<AniEventInfo>,AniEventInfo,AniEventInfo &>, COMDAT

; 279  : 	{	// construct using allocator

  00000	6a 04		 push	 4
  00002	b8 00 00 00 00	 mov	 eax, __ehhandler$??$_Cons_val@V?$allocator@UAniEventInfo@@@std@@UAniEventInfo@@AAU3@@std@@YAXAAV?$allocator@UAniEventInfo@@@0@PAUAniEventInfo@@AAU2@@Z
  00007	e8 00 00 00 00	 call	 __EH_prolog3

; 280  : 	_Alval.construct(_Pdest, _STD forward<_Ty2>(_Src));

  0000c	8b 4d 0c	 mov	 ecx, DWORD PTR __Pdest$[ebp]
  0000f	89 4d f0	 mov	 DWORD PTR $T532510[ebp], ecx
  00012	83 65 fc 00	 and	 DWORD PTR __$EHRec$[ebp+8], 0
  00016	85 c9		 test	 ecx, ecx
  00018	74 08		 je	 SHORT $LN7@Cons_val
  0001a	ff 75 10	 push	 DWORD PTR __Src$[ebp]
  0001d	e8 00 00 00 00	 call	 ??0AniEventInfo@@QAE@ABU0@@Z
$LN7@Cons_val:

; 281  : 	}

  00022	e8 00 00 00 00	 call	 __EH_epilog3
  00027	c3		 ret	 0
_TEXT	ENDS
;	COMDAT text$x
text$x	SEGMENT
__unwindfunclet$??$_Cons_val@V?$allocator@UAniEventInfo@@@std@@UAniEventInfo@@AAU3@@std@@YAXAAV?$allocator@UAniEventInfo@@@0@PAUAniEventInfo@@AAU2@@Z$0:
  00000	ff 75 0c	 push	 DWORD PTR __Pdest$[ebp]
  00003	ff 75 f0	 push	 DWORD PTR $T532510[ebp]
  00006	e8 00 00 00 00	 call	 ??3@YAXPAX0@Z		; operator delete
  0000b	59		 pop	 ecx
  0000c	59		 pop	 ecx
  0000d	c3		 ret	 0
__ehhandler$??$_Cons_val@V?$allocator@UAniEventInfo@@@std@@UAniEventInfo@@AAU3@@std@@YAXAAV?$allocator@UAniEventInfo@@@0@PAUAniEventInfo@@AAU2@@Z:
  0000e	8b 54 24 08	 mov	 edx, DWORD PTR [esp+8]
  00012	8d 42 0c	 lea	 eax, DWORD PTR [edx+12]
  00015	8b 4a ec	 mov	 ecx, DWORD PTR [edx-20]
  00018	33 c8		 xor	 ecx, eax
  0001a	e8 00 00 00 00	 call	 @__security_check_cookie@4
  0001f	b8 00 00 00 00	 mov	 eax, OFFSET __ehfuncinfo$??$_Cons_val@V?$allocator@UAniEventInfo@@@std@@UAniEventInfo@@AAU3@@std@@YAXAAV?$allocator@UAniEventInfo@@@0@PAUAniEventInfo@@AAU2@@Z
  00024	e9 00 00 00 00	 jmp	 ___CxxFrameHandler3
text$x	ENDS
??$_Cons_val@V?$allocator@UAniEventInfo@@@std@@UAniEventInfo@@AAU3@@std@@YAXAAV?$allocator@UAniEventInfo@@@0@PAUAniEventInfo@@AAU2@@Z ENDP ; std::_Cons_val<std::allocator<AniEventInfo>,AniEventInfo,AniEventInfo &>
PUBLIC	??$_Cons_val@V?$allocator@UtagAniSoundEventInfo@@@std@@UtagAniSoundEventInfo@@AAU3@@std@@YAXAAV?$allocator@UtagAniSoundEventInfo@@@0@PAUtagAniSoundEventInfo@@AAU2@@Z ; std::_Cons_val<std::allocator<tagAniSoundEventInfo>,tagAniSoundEventInfo,tagAniSoundEventInfo &>
;	COMDAT xdata$x
; File c:\program files (x86)\microsoft visual studio 10.0\vc\include\utility
xdata$x	SEGMENT
__unwindtable$??$_Cons_val@V?$allocator@UtagAniSoundEventInfo@@@std@@UtagAniSoundEventInfo@@AAU3@@std@@YAXAAV?$allocator@UtagAniSoundEventInfo@@@0@PAUtagAniSoundEventInfo@@AAU2@@Z DD 0ffffffffH
	DD	FLAT:__unwindfunclet$??$_Cons_val@V?$allocator@UtagAniSoundEventInfo@@@std@@UtagAniSoundEventInfo@@AAU3@@std@@YAXAAV?$allocator@UtagAniSoundEventInfo@@@0@PAUtagAniSoundEventInfo@@AAU2@@Z$0
__ehfuncinfo$??$_Cons_val@V?$allocator@UtagAniSoundEventInfo@@@std@@UtagAniSoundEventInfo@@AAU3@@std@@YAXAAV?$allocator@UtagAniSoundEventInfo@@@0@PAUtagAniSoundEventInfo@@AAU2@@Z DD 019930522H
	DD	01H
	DD	FLAT:__unwindtable$??$_Cons_val@V?$allocator@UtagAniSoundEventInfo@@@std@@UtagAniSoundEventInfo@@AAU3@@std@@YAXAAV?$allocator@UtagAniSoundEventInfo@@@0@PAUtagAniSoundEventInfo@@AAU2@@Z
	DD	2 DUP(00H)
	DD	2 DUP(00H)
	DD	00H
	DD	01H
; Function compile flags: /Ogsp
; File c:\program files (x86)\microsoft visual studio 10.0\vc\include\xmemory
xdata$x	ENDS
;	COMDAT ??$_Cons_val@V?$allocator@UtagAniSoundEventInfo@@@std@@UtagAniSoundEventInfo@@AAU3@@std@@YAXAAV?$allocator@UtagAniSoundEventInfo@@@0@PAUtagAniSoundEventInfo@@AAU2@@Z
_TEXT	SEGMENT
$T532543 = -16						; size = 4
__$EHRec$ = -12						; size = 12
__Alval$ = 8						; size = 4
__Pdest$ = 12						; size = 4
__Src$ = 16						; size = 4
??$_Cons_val@V?$allocator@UtagAniSoundEventInfo@@@std@@UtagAniSoundEventInfo@@AAU3@@std@@YAXAAV?$allocator@UtagAniSoundEventInfo@@@0@PAUtagAniSoundEventInfo@@AAU2@@Z PROC ; std::_Cons_val<std::allocator<tagAniSoundEventInfo>,tagAniSoundEventInfo,tagAniSoundEventInfo &>, COMDAT

; 279  : 	{	// construct using allocator

  00000	6a 04		 push	 4
  00002	b8 00 00 00 00	 mov	 eax, __ehhandler$??$_Cons_val@V?$allocator@UtagAniSoundEventInfo@@@std@@UtagAniSoundEventInfo@@AAU3@@std@@YAXAAV?$allocator@UtagAniSoundEventInfo@@@0@PAUtagAniSoundEventInfo@@AAU2@@Z
  00007	e8 00 00 00 00	 call	 __EH_prolog3

; 280  : 	_Alval.construct(_Pdest, _STD forward<_Ty2>(_Src));

  0000c	8b 4d 0c	 mov	 ecx, DWORD PTR __Pdest$[ebp]
  0000f	89 4d f0	 mov	 DWORD PTR $T532543[ebp], ecx
  00012	83 65 fc 00	 and	 DWORD PTR __$EHRec$[ebp+8], 0
  00016	85 c9		 test	 ecx, ecx
  00018	74 08		 je	 SHORT $LN7@Cons_val@2
  0001a	ff 75 10	 push	 DWORD PTR __Src$[ebp]
  0001d	e8 00 00 00 00	 call	 ??0tagAniSoundEventInfo@@QAE@ABU0@@Z
$LN7@Cons_val@2:

; 281  : 	}

  00022	e8 00 00 00 00	 call	 __EH_epilog3
  00027	c3		 ret	 0
_TEXT	ENDS
;	COMDAT text$x
text$x	SEGMENT
__unwindfunclet$??$_Cons_val@V?$allocator@UtagAniSoundEventInfo@@@std@@UtagAniSoundEventInfo@@AAU3@@std@@YAXAAV?$allocator@UtagAniSoundEventInfo@@@0@PAUtagAniSoundEventInfo@@AAU2@@Z$0:
  00000	ff 75 0c	 push	 DWORD PTR __Pdest$[ebp]
  00003	ff 75 f0	 push	 DWORD PTR $T532543[ebp]
  00006	e8 00 00 00 00	 call	 ??3@YAXPAX0@Z		; operator delete
  0000b	59		 pop	 ecx
  0000c	59		 pop	 ecx
  0000d	c3		 ret	 0
__ehhandler$??$_Cons_val@V?$allocator@UtagAniSoundEventInfo@@@std@@UtagAniSoundEventInfo@@AAU3@@std@@YAXAAV?$allocator@UtagAniSoundEventInfo@@@0@PAUtagAniSoundEventInfo@@AAU2@@Z:
  0000e	8b 54 24 08	 mov	 edx, DWORD PTR [esp+8]
  00012	8d 42 0c	 lea	 eax, DWORD PTR [edx+12]
  00015	8b 4a ec	 mov	 ecx, DWORD PTR [edx-20]
  00018	33 c8		 xor	 ecx, eax
  0001a	e8 00 00 00 00	 call	 @__security_check_cookie@4
  0001f	b8 00 00 00 00	 mov	 eax, OFFSET __ehfuncinfo$??$_Cons_val@V?$allocator@UtagAniSoundEventInfo@@@std@@UtagAniSoundEventInfo@@AAU3@@std@@YAXAAV?$allocator@UtagAniSoundEventInfo@@@0@PAUtagAniSoundEventInfo@@AAU2@@Z
  00024	e9 00 00 00 00	 jmp	 ___CxxFrameHandler3
text$x	ENDS
??$_Cons_val@V?$allocator@UtagAniSoundEventInfo@@@std@@UtagAniSoundEventInfo@@AAU3@@std@@YAXAAV?$allocator@UtagAniSoundEventInfo@@@0@PAUtagAniSoundEventInfo@@AAU2@@Z ENDP ; std::_Cons_val<std::allocator<tagAniSoundEventInfo>,tagAniSoundEventInfo,tagAniSoundEventInfo &>
PUBLIC	?construct@?$allocator@UAniEventInfo@@@std@@QAEXPAUAniEventInfo@@ABU3@@Z ; std::allocator<AniEventInfo>::construct
; Function compile flags: /Ogsp
;	COMDAT ?construct@?$allocator@UAniEventInfo@@@std@@QAEXPAUAniEventInfo@@ABU3@@Z
_TEXT	SEGMENT
__Ptr$ = 8						; size = 4
__Val$ = 12						; size = 4
?construct@?$allocator@UAniEventInfo@@@std@@QAEXPAUAniEventInfo@@ABU3@@Z PROC ; std::allocator<AniEventInfo>::construct, COMDAT
; _this$ = ecx

; 196  : 		{	// construct object at _Ptr with value _Val

  00000	55		 push	 ebp
  00001	8b ec		 mov	 ebp, esp

; 197  : 		_Construct(_Ptr, _Val);

  00003	ff 75 0c	 push	 DWORD PTR __Val$[ebp]
  00006	ff 75 08	 push	 DWORD PTR __Ptr$[ebp]
  00009	e8 00 00 00 00	 call	 ??$_Construct@UAniEventInfo@@ABU1@@std@@YAXPAUAniEventInfo@@ABU1@@Z ; std::_Construct<AniEventInfo,AniEventInfo const &>
  0000e	59		 pop	 ecx
  0000f	59		 pop	 ecx

; 198  : 		}

  00010	5d		 pop	 ebp
  00011	c2 08 00	 ret	 8
?construct@?$allocator@UAniEventInfo@@@std@@QAEXPAUAniEventInfo@@ABU3@@Z ENDP ; std::allocator<AniEventInfo>::construct
_TEXT	ENDS
PUBLIC	?construct@?$allocator@UtagAniSoundEventInfo@@@std@@QAEXPAUtagAniSoundEventInfo@@ABU3@@Z ; std::allocator<tagAniSoundEventInfo>::construct
; Function compile flags: /Ogsp
;	COMDAT ?construct@?$allocator@UtagAniSoundEventInfo@@@std@@QAEXPAUtagAniSoundEventInfo@@ABU3@@Z
_TEXT	SEGMENT
__Ptr$ = 8						; size = 4
__Val$ = 12						; size = 4
?construct@?$allocator@UtagAniSoundEventInfo@@@std@@QAEXPAUtagAniSoundEventInfo@@ABU3@@Z PROC ; std::allocator<tagAniSoundEventInfo>::construct, COMDAT
; _this$ = ecx

; 196  : 		{	// construct object at _Ptr with value _Val

  00000	55		 push	 ebp
  00001	8b ec		 mov	 ebp, esp

; 197  : 		_Construct(_Ptr, _Val);

  00003	ff 75 0c	 push	 DWORD PTR __Val$[ebp]
  00006	ff 75 08	 push	 DWORD PTR __Ptr$[ebp]
  00009	e8 00 00 00 00	 call	 ??$_Construct@UtagAniSoundEventInfo@@ABU1@@std@@YAXPAUtagAniSoundEventInfo@@ABU1@@Z ; std::_Construct<tagAniSoundEventInfo,tagAniSoundEventInfo const &>
  0000e	59		 pop	 ecx
  0000f	59		 pop	 ecx

; 198  : 		}

  00010	5d		 pop	 ebp
  00011	c2 08 00	 ret	 8
?construct@?$allocator@UtagAniSoundEventInfo@@@std@@QAEXPAUtagAniSoundEventInfo@@ABU3@@Z ENDP ; std::allocator<tagAniSoundEventInfo>::construct
_TEXT	ENDS
PUBLIC	?destroy@?$allocator@U_Node@?$_List_nod@PBVioMeshControlPoint@@V?$allocator@PBVioMeshControlPoint@@@std@@@std@@@std@@QAEXPAU_Node@?$_List_nod@PBVioMeshControlPoint@@V?$allocator@PBVioMeshControlPoint@@@std@@@2@@Z ; std::allocator<std::_List_nod<ioMeshControlPoint const *,std::allocator<ioMeshControlPoint const *> >::_Node>::destroy
; Function compile flags: /Ogsp
;	COMDAT ?destroy@?$allocator@U_Node@?$_List_nod@PBVioMeshControlPoint@@V?$allocator@PBVioMeshControlPoint@@@std@@@std@@@std@@QAEXPAU_Node@?$_List_nod@PBVioMeshControlPoint@@V?$allocator@PBVioMeshControlPoint@@@std@@@2@@Z
_TEXT	SEGMENT
__Ptr$ = 8						; size = 4
?destroy@?$allocator@U_Node@?$_List_nod@PBVioMeshControlPoint@@V?$allocator@PBVioMeshControlPoint@@@std@@@std@@@std@@QAEXPAU_Node@?$_List_nod@PBVioMeshControlPoint@@V?$allocator@PBVioMeshControlPoint@@@std@@@2@@Z PROC ; std::allocator<std::_List_nod<ioMeshControlPoint const *,std::allocator<ioMeshControlPoint const *> >::_Node>::destroy, COMDAT
; _this$ = ecx

; 213  : 		_Destroy(_Ptr);
; 214  : 		}

  00000	c2 04 00	 ret	 4
?destroy@?$allocator@U_Node@?$_List_nod@PBVioMeshControlPoint@@V?$allocator@PBVioMeshControlPoint@@@std@@@std@@@std@@QAEXPAU_Node@?$_List_nod@PBVioMeshControlPoint@@V?$allocator@PBVioMeshControlPoint@@@std@@@2@@Z ENDP ; std::allocator<std::_List_nod<ioMeshControlPoint const *,std::allocator<ioMeshControlPoint const *> >::_Node>::destroy
_TEXT	ENDS
PUBLIC	??$_Move@PAUAniEventInfo@@PAU1@@std@@YAPAUAniEventInfo@@PAU1@00U_Nonscalar_ptr_iterator_tag@0@@Z ; std::_Move<AniEventInfo *,AniEventInfo *>
; Function compile flags: /Ogsp
; File c:\program files (x86)\microsoft visual studio 10.0\vc\include\xutility
;	COMDAT ??$_Move@PAUAniEventInfo@@PAU1@@std@@YAPAUAniEventInfo@@PAU1@00U_Nonscalar_ptr_iterator_tag@0@@Z
_TEXT	SEGMENT
__First$ = 8						; size = 4
__Last$ = 12						; size = 4
__Dest$ = 16						; size = 4
___formal$ = 20						; size = 1
??$_Move@PAUAniEventInfo@@PAU1@@std@@YAPAUAniEventInfo@@PAU1@00U_Nonscalar_ptr_iterator_tag@0@@Z PROC ; std::_Move<AniEventInfo *,AniEventInfo *>, COMDAT

; 2512 : 	{	// move [_First, _Last) to [_Dest, ...), arbitrary iterators

  00000	55		 push	 ebp
  00001	8b ec		 mov	 ebp, esp
  00003	57		 push	 edi

; 2513 : 	for (; _First != _Last; ++_Dest, ++_First)

  00004	8b 7d 08	 mov	 edi, DWORD PTR __First$[ebp]
  00007	3b 7d 0c	 cmp	 edi, DWORD PTR __Last$[ebp]
  0000a	74 26		 je	 SHORT $LN12@Move
  0000c	56		 push	 esi
  0000d	8b 35 00 00 00
	00		 mov	 esi, DWORD PTR __imp_??4ioHashString@@QAEAAV0@ABV0@@Z
$LL3@Move:

; 2514 : 		*_Dest = _STD move(*_First);

  00013	8b 4d 10	 mov	 ecx, DWORD PTR __Dest$[ebp]
  00016	57		 push	 edi
  00017	ff d6		 call	 esi
  00019	8b 4d 10	 mov	 ecx, DWORD PTR __Dest$[ebp]
  0001c	8d 47 10	 lea	 eax, DWORD PTR [edi+16]
  0001f	50		 push	 eax
  00020	83 c1 10	 add	 ecx, 16			; 00000010H
  00023	ff d6		 call	 esi
  00025	83 45 10 20	 add	 DWORD PTR __Dest$[ebp], 32 ; 00000020H
  00029	83 c7 20	 add	 edi, 32			; 00000020H
  0002c	3b 7d 0c	 cmp	 edi, DWORD PTR __Last$[ebp]
  0002f	75 e2		 jne	 SHORT $LL3@Move
  00031	5e		 pop	 esi
$LN12@Move:

; 2515 : 	return (_Dest);

  00032	8b 45 10	 mov	 eax, DWORD PTR __Dest$[ebp]
  00035	5f		 pop	 edi

; 2516 : 	}

  00036	5d		 pop	 ebp
  00037	c3		 ret	 0
??$_Move@PAUAniEventInfo@@PAU1@@std@@YAPAUAniEventInfo@@PAU1@00U_Nonscalar_ptr_iterator_tag@0@@Z ENDP ; std::_Move<AniEventInfo *,AniEventInfo *>
_TEXT	ENDS
PUBLIC	??$_Move@PAUtagAniSoundEventInfo@@PAU1@@std@@YAPAUtagAniSoundEventInfo@@PAU1@00U_Nonscalar_ptr_iterator_tag@0@@Z ; std::_Move<tagAniSoundEventInfo *,tagAniSoundEventInfo *>
; Function compile flags: /Ogsp
;	COMDAT ??$_Move@PAUtagAniSoundEventInfo@@PAU1@@std@@YAPAUtagAniSoundEventInfo@@PAU1@00U_Nonscalar_ptr_iterator_tag@0@@Z
_TEXT	SEGMENT
__First$ = 8						; size = 4
__Last$ = 12						; size = 4
__Dest$ = 16						; size = 4
___formal$ = 20						; size = 1
??$_Move@PAUtagAniSoundEventInfo@@PAU1@@std@@YAPAUtagAniSoundEventInfo@@PAU1@00U_Nonscalar_ptr_iterator_tag@0@@Z PROC ; std::_Move<tagAniSoundEventInfo *,tagAniSoundEventInfo *>, COMDAT

; 2512 : 	{	// move [_First, _Last) to [_Dest, ...), arbitrary iterators

  00000	55		 push	 ebp
  00001	8b ec		 mov	 ebp, esp
  00003	56		 push	 esi

; 2513 : 	for (; _First != _Last; ++_Dest, ++_First)

  00004	8b 75 08	 mov	 esi, DWORD PTR __First$[ebp]
  00007	eb 10		 jmp	 SHORT $LN11@Move@2
$LL3@Move@2:

; 2514 : 		*_Dest = _STD move(*_First);

  00009	8b 4d 10	 mov	 ecx, DWORD PTR __Dest$[ebp]
  0000c	56		 push	 esi
  0000d	e8 00 00 00 00	 call	 ??4tagAniSoundEventInfo@@QAEAAU0@ABU0@@Z
  00012	83 45 10 24	 add	 DWORD PTR __Dest$[ebp], 36 ; 00000024H
  00016	83 c6 24	 add	 esi, 36			; 00000024H
$LN11@Move@2:

; 2513 : 	for (; _First != _Last; ++_Dest, ++_First)

  00019	3b 75 0c	 cmp	 esi, DWORD PTR __Last$[ebp]
  0001c	75 eb		 jne	 SHORT $LL3@Move@2

; 2515 : 	return (_Dest);

  0001e	8b 45 10	 mov	 eax, DWORD PTR __Dest$[ebp]
  00021	5e		 pop	 esi

; 2516 : 	}

  00022	5d		 pop	 ebp
  00023	c3		 ret	 0
??$_Move@PAUtagAniSoundEventInfo@@PAU1@@std@@YAPAUtagAniSoundEventInfo@@PAU1@00U_Nonscalar_ptr_iterator_tag@0@@Z ENDP ; std::_Move<tagAniSoundEventInfo *,tagAniSoundEventInfo *>
_TEXT	ENDS
PUBLIC	??8?$_Vector_const_iterator@V?$_Vector_val@V?$basic_string@DU?$char_traits@D@std@@V?$allocator@D@2@@std@@V?$allocator@V?$basic_string@DU?$char_traits@D@std@@V?$allocator@D@2@@std@@@2@@std@@@std@@QBE_NABV01@@Z ; std::_Vector_const_iterator<std::_Vector_val<std::basic_string<char,std::char_traits<char>,std::allocator<char> >,std::allocator<std::basic_string<char,std::char_traits<char>,std::allocator<char> > > > >::operator==
; Function compile flags: /Ogsp
; File c:\program files (x86)\microsoft visual studio 10.0\vc\include\vector
;	COMDAT ??8?$_Vector_const_iterator@V?$_Vector_val@V?$basic_string@DU?$char_traits@D@std@@V?$allocator@D@2@@std@@V?$allocator@V?$basic_string@DU?$char_traits@D@std@@V?$allocator@D@2@@std@@@2@@std@@@std@@QBE_NABV01@@Z
_TEXT	SEGMENT
__Right$ = 8						; size = 4
??8?$_Vector_const_iterator@V?$_Vector_val@V?$basic_string@DU?$char_traits@D@std@@V?$allocator@D@2@@std@@V?$allocator@V?$basic_string@DU?$char_traits@D@std@@V?$allocator@D@2@@std@@@2@@std@@@std@@QBE_NABV01@@Z PROC ; std::_Vector_const_iterator<std::_Vector_val<std::basic_string<char,std::char_traits<char>,std::allocator<char> >,std::allocator<std::basic_string<char,std::char_traits<char>,std::allocator<char> > > > >::operator==, COMDAT
; _this$ = ecx

; 201  : 		{	// test for iterator equality

  00000	55		 push	 ebp
  00001	8b ec		 mov	 ebp, esp

; 202  : 		_Compat(_Right);
; 203  : 		return (this->_Ptr == _Right._Ptr);

  00003	8b 01		 mov	 eax, DWORD PTR [ecx]
  00005	8b 4d 08	 mov	 ecx, DWORD PTR __Right$[ebp]
  00008	2b 01		 sub	 eax, DWORD PTR [ecx]
  0000a	f7 d8		 neg	 eax
  0000c	1b c0		 sbb	 eax, eax
  0000e	40		 inc	 eax

; 204  : 		}

  0000f	5d		 pop	 ebp
  00010	c2 04 00	 ret	 4
??8?$_Vector_const_iterator@V?$_Vector_val@V?$basic_string@DU?$char_traits@D@std@@V?$allocator@D@2@@std@@V?$allocator@V?$basic_string@DU?$char_traits@D@std@@V?$allocator@D@2@@std@@@2@@std@@@std@@QBE_NABV01@@Z ENDP ; std::_Vector_const_iterator<std::_Vector_val<std::basic_string<char,std::char_traits<char>,std::allocator<char> >,std::allocator<std::basic_string<char,std::char_traits<char>,std::allocator<char> > > > >::operator==
_TEXT	ENDS
PUBLIC	??$_Destroy@UAniEventInfo@@@std@@YAXPAUAniEventInfo@@@Z ; std::_Destroy<AniEventInfo>
; Function compile flags: /Ogsp
; File c:\program files (x86)\microsoft visual studio 10.0\vc\include\xmemory
;	COMDAT ??$_Destroy@UAniEventInfo@@@std@@YAXPAUAniEventInfo@@@Z
_TEXT	SEGMENT
__Ptr$ = 8						; size = 4
??$_Destroy@UAniEventInfo@@@std@@YAXPAUAniEventInfo@@@Z PROC ; std::_Destroy<AniEventInfo>, COMDAT

; 62   : 	{	// destroy object at _Ptr

  00000	55		 push	 ebp
  00001	8b ec		 mov	 ebp, esp

; 63   : 	_Ptr->~_Ty();

  00003	8b 4d 08	 mov	 ecx, DWORD PTR __Ptr$[ebp]

; 64   : 	}

  00006	5d		 pop	 ebp

; 63   : 	_Ptr->~_Ty();

  00007	e9 00 00 00 00	 jmp	 ??1AniEventInfo@@QAE@XZ
??$_Destroy@UAniEventInfo@@@std@@YAXPAUAniEventInfo@@@Z ENDP ; std::_Destroy<AniEventInfo>
_TEXT	ENDS
PUBLIC	??$_Destroy@UtagAniSoundEventInfo@@@std@@YAXPAUtagAniSoundEventInfo@@@Z ; std::_Destroy<tagAniSoundEventInfo>
; Function compile flags: /Ogsp
;	COMDAT ??$_Destroy@UtagAniSoundEventInfo@@@std@@YAXPAUtagAniSoundEventInfo@@@Z
_TEXT	SEGMENT
__Ptr$ = 8						; size = 4
??$_Destroy@UtagAniSoundEventInfo@@@std@@YAXPAUtagAniSoundEventInfo@@@Z PROC ; std::_Destroy<tagAniSoundEventInfo>, COMDAT

; 62   : 	{	// destroy object at _Ptr

  00000	55		 push	 ebp
  00001	8b ec		 mov	 ebp, esp

; 63   : 	_Ptr->~_Ty();

  00003	8b 4d 08	 mov	 ecx, DWORD PTR __Ptr$[ebp]

; 64   : 	}

  00006	5d		 pop	 ebp

; 63   : 	_Ptr->~_Ty();

  00007	e9 00 00 00 00	 jmp	 ??1tagAniSoundEventInfo@@QAE@XZ
??$_Destroy@UtagAniSoundEventInfo@@@std@@YAXPAUtagAniSoundEventInfo@@@Z ENDP ; std::_Destroy<tagAniSoundEventInfo>
_TEXT	ENDS
PUBLIC	?construct@?$allocator@UAniEventInfo@@@std@@QAEXPAUAniEventInfo@@$$QAU3@@Z ; std::allocator<AniEventInfo>::construct
;	COMDAT xdata$x
; File c:\program files (x86)\microsoft visual studio 10.0\vc\include\utility
xdata$x	SEGMENT
__unwindtable$?construct@?$allocator@UAniEventInfo@@@std@@QAEXPAUAniEventInfo@@$$QAU3@@Z DD 0ffffffffH
	DD	FLAT:__unwindfunclet$?construct@?$allocator@UAniEventInfo@@@std@@QAEXPAUAniEventInfo@@$$QAU3@@Z$0
__ehfuncinfo$?construct@?$allocator@UAniEventInfo@@@std@@QAEXPAUAniEventInfo@@$$QAU3@@Z DD 019930522H
	DD	01H
	DD	FLAT:__unwindtable$?construct@?$allocator@UAniEventInfo@@@std@@QAEXPAUAniEventInfo@@$$QAU3@@Z
	DD	2 DUP(00H)
	DD	2 DUP(00H)
	DD	00H
	DD	01H
; Function compile flags: /Ogsp
; File c:\program files (x86)\microsoft visual studio 10.0\vc\include\xmemory
xdata$x	ENDS
;	COMDAT ?construct@?$allocator@UAniEventInfo@@@std@@QAEXPAUAniEventInfo@@$$QAU3@@Z
_TEXT	SEGMENT
$T532611 = -16						; size = 4
__$EHRec$ = -12						; size = 12
__Ptr$ = 8						; size = 4
__Val$ = 12						; size = 4
?construct@?$allocator@UAniEventInfo@@@std@@QAEXPAUAniEventInfo@@$$QAU3@@Z PROC ; std::allocator<AniEventInfo>::construct, COMDAT
; _this$ = ecx

; 201  : 		{	// construct object at _Ptr with value _Val

  00000	6a 04		 push	 4
  00002	b8 00 00 00 00	 mov	 eax, __ehhandler$?construct@?$allocator@UAniEventInfo@@@std@@QAEXPAUAniEventInfo@@$$QAU3@@Z
  00007	e8 00 00 00 00	 call	 __EH_prolog3

; 202  : 		::new ((void _FARQ *)_Ptr) _Ty(_STD forward<_Ty>(_Val));

  0000c	8b 4d 08	 mov	 ecx, DWORD PTR __Ptr$[ebp]
  0000f	89 4d f0	 mov	 DWORD PTR $T532611[ebp], ecx
  00012	83 65 fc 00	 and	 DWORD PTR __$EHRec$[ebp+8], 0
  00016	85 c9		 test	 ecx, ecx
  00018	74 08		 je	 SHORT $LN3@construct@3
  0001a	ff 75 0c	 push	 DWORD PTR __Val$[ebp]
  0001d	e8 00 00 00 00	 call	 ??0AniEventInfo@@QAE@ABU0@@Z
$LN3@construct@3:

; 203  : 		}

  00022	e8 00 00 00 00	 call	 __EH_epilog3
  00027	c2 08 00	 ret	 8
_TEXT	ENDS
;	COMDAT text$x
text$x	SEGMENT
__unwindfunclet$?construct@?$allocator@UAniEventInfo@@@std@@QAEXPAUAniEventInfo@@$$QAU3@@Z$0:
  00000	ff 75 08	 push	 DWORD PTR __Ptr$[ebp]
  00003	ff 75 f0	 push	 DWORD PTR $T532611[ebp]
  00006	e8 00 00 00 00	 call	 ??3@YAXPAX0@Z		; operator delete
  0000b	59		 pop	 ecx
  0000c	59		 pop	 ecx
  0000d	c3		 ret	 0
__ehhandler$?construct@?$allocator@UAniEventInfo@@@std@@QAEXPAUAniEventInfo@@$$QAU3@@Z:
  0000e	8b 54 24 08	 mov	 edx, DWORD PTR [esp+8]
  00012	8d 42 0c	 lea	 eax, DWORD PTR [edx+12]
  00015	8b 4a ec	 mov	 ecx, DWORD PTR [edx-20]
  00018	33 c8		 xor	 ecx, eax
  0001a	e8 00 00 00 00	 call	 @__security_check_cookie@4
  0001f	b8 00 00 00 00	 mov	 eax, OFFSET __ehfuncinfo$?construct@?$allocator@UAniEventInfo@@@std@@QAEXPAUAniEventInfo@@$$QAU3@@Z
  00024	e9 00 00 00 00	 jmp	 ___CxxFrameHandler3
text$x	ENDS
?construct@?$allocator@UAniEventInfo@@@std@@QAEXPAUAniEventInfo@@$$QAU3@@Z ENDP ; std::allocator<AniEventInfo>::construct
PUBLIC	?construct@?$allocator@UtagAniSoundEventInfo@@@std@@QAEXPAUtagAniSoundEventInfo@@$$QAU3@@Z ; std::allocator<tagAniSoundEventInfo>::construct
;	COMDAT xdata$x
; File c:\program files (x86)\microsoft visual studio 10.0\vc\include\utility
xdata$x	SEGMENT
__unwindtable$?construct@?$allocator@UtagAniSoundEventInfo@@@std@@QAEXPAUtagAniSoundEventInfo@@$$QAU3@@Z DD 0ffffffffH
	DD	FLAT:__unwindfunclet$?construct@?$allocator@UtagAniSoundEventInfo@@@std@@QAEXPAUtagAniSoundEventInfo@@$$QAU3@@Z$0
__ehfuncinfo$?construct@?$allocator@UtagAniSoundEventInfo@@@std@@QAEXPAUtagAniSoundEventInfo@@$$QAU3@@Z DD 019930522H
	DD	01H
	DD	FLAT:__unwindtable$?construct@?$allocator@UtagAniSoundEventInfo@@@std@@QAEXPAUtagAniSoundEventInfo@@$$QAU3@@Z
	DD	2 DUP(00H)
	DD	2 DUP(00H)
	DD	00H
	DD	01H
; Function compile flags: /Ogsp
; File c:\program files (x86)\microsoft visual studio 10.0\vc\include\xmemory
xdata$x	ENDS
;	COMDAT ?construct@?$allocator@UtagAniSoundEventInfo@@@std@@QAEXPAUtagAniSoundEventInfo@@$$QAU3@@Z
_TEXT	SEGMENT
$T532630 = -16						; size = 4
__$EHRec$ = -12						; size = 12
__Ptr$ = 8						; size = 4
__Val$ = 12						; size = 4
?construct@?$allocator@UtagAniSoundEventInfo@@@std@@QAEXPAUtagAniSoundEventInfo@@$$QAU3@@Z PROC ; std::allocator<tagAniSoundEventInfo>::construct, COMDAT
; _this$ = ecx

; 201  : 		{	// construct object at _Ptr with value _Val

  00000	6a 04		 push	 4
  00002	b8 00 00 00 00	 mov	 eax, __ehhandler$?construct@?$allocator@UtagAniSoundEventInfo@@@std@@QAEXPAUtagAniSoundEventInfo@@$$QAU3@@Z
  00007	e8 00 00 00 00	 call	 __EH_prolog3

; 202  : 		::new ((void _FARQ *)_Ptr) _Ty(_STD forward<_Ty>(_Val));

  0000c	8b 4d 08	 mov	 ecx, DWORD PTR __Ptr$[ebp]
  0000f	89 4d f0	 mov	 DWORD PTR $T532630[ebp], ecx
  00012	83 65 fc 00	 and	 DWORD PTR __$EHRec$[ebp+8], 0
  00016	85 c9		 test	 ecx, ecx
  00018	74 08		 je	 SHORT $LN3@construct@4
  0001a	ff 75 0c	 push	 DWORD PTR __Val$[ebp]
  0001d	e8 00 00 00 00	 call	 ??0tagAniSoundEventInfo@@QAE@ABU0@@Z
$LN3@construct@4:

; 203  : 		}

  00022	e8 00 00 00 00	 call	 __EH_epilog3
  00027	c2 08 00	 ret	 8
_TEXT	ENDS
;	COMDAT text$x
text$x	SEGMENT
__unwindfunclet$?construct@?$allocator@UtagAniSoundEventInfo@@@std@@QAEXPAUtagAniSoundEventInfo@@$$QAU3@@Z$0:
  00000	ff 75 08	 push	 DWORD PTR __Ptr$[ebp]
  00003	ff 75 f0	 push	 DWORD PTR $T532630[ebp]
  00006	e8 00 00 00 00	 call	 ??3@YAXPAX0@Z		; operator delete
  0000b	59		 pop	 ecx
  0000c	59		 pop	 ecx
  0000d	c3		 ret	 0
__ehhandler$?construct@?$allocator@UtagAniSoundEventInfo@@@std@@QAEXPAUtagAniSoundEventInfo@@$$QAU3@@Z:
  0000e	8b 54 24 08	 mov	 edx, DWORD PTR [esp+8]
  00012	8d 42 0c	 lea	 eax, DWORD PTR [edx+12]
  00015	8b 4a ec	 mov	 ecx, DWORD PTR [edx-20]
  00018	33 c8		 xor	 ecx, eax
  0001a	e8 00 00 00 00	 call	 @__security_check_cookie@4
  0001f	b8 00 00 00 00	 mov	 eax, OFFSET __ehfuncinfo$?construct@?$allocator@UtagAniSoundEventInfo@@@std@@QAEXPAUtagAniSoundEventInfo@@$$QAU3@@Z
  00024	e9 00 00 00 00	 jmp	 ___CxxFrameHandler3
text$x	ENDS
?construct@?$allocator@UtagAniSoundEventInfo@@@std@@QAEXPAUtagAniSoundEventInfo@@$$QAU3@@Z ENDP ; std::allocator<tagAniSoundEventInfo>::construct
PUBLIC	?StringCbPrintfA@@YAJPADIPBDZZ			; StringCbPrintfA
; Function compile flags: /Ogsp
; File c:\program files (x86)\microsoft sdks\windows\v7.0a\include\strsafe.h
;	COMDAT ?StringCbPrintfA@@YAJPADIPBDZZ
_TEXT	SEGMENT
_pszDest$ = 8						; size = 4
_cbDest$ = 12						; size = 4
_pszFormat$ = 16					; size = 4
?StringCbPrintfA@@YAJPADIPBDZZ PROC			; StringCbPrintfA, COMDAT

; 4767 : {

  00000	55		 push	 ebp
  00001	8b ec		 mov	 ebp, esp

; 4768 :     HRESULT hr;
; 4769 :     size_t cchDest = cbDest / sizeof(char);
; 4770 : 
; 4771 :     hr = StringValidateDestA(pszDest, cchDest, STRSAFE_MAX_CCH);

  00003	8b 4d 0c	 mov	 ecx, DWORD PTR _cbDest$[ebp]
  00006	33 c0		 xor	 eax, eax
  00008	85 c9		 test	 ecx, ecx
  0000a	74 08		 je	 SHORT $LN4@StringCbPr
  0000c	81 f9 ff ff ff
	7f		 cmp	 ecx, 2147483647		; 7fffffffH
  00012	76 05		 jbe	 SHORT $LN5@StringCbPr
$LN4@StringCbPr:
  00014	b8 57 00 07 80	 mov	 eax, -2147024809	; 80070057H
$LN5@StringCbPr:

; 4772 :     
; 4773 :     if (SUCCEEDED(hr))

  00019	85 c0		 test	 eax, eax
  0001b	78 39		 js	 SHORT $LN1@StringCbPr

; 4774 :     {
; 4775 :         va_list argList;
; 4776 : 
; 4777 :         va_start(argList, pszFormat);
; 4778 : 
; 4779 :         hr = StringVPrintfWorkerA(pszDest,
; 4780 :                                   cchDest,
; 4781 :                                   NULL,
; 4782 :                                   pszFormat,
; 4783 :                                   argList);

  0001d	53		 push	 ebx
  0001e	56		 push	 esi
  0001f	57		 push	 edi
  00020	8b 7d 08	 mov	 edi, DWORD PTR _pszDest$[ebp]
  00023	8d 45 14	 lea	 eax, DWORD PTR _pszFormat$[ebp+4]
  00026	50		 push	 eax
  00027	ff 75 10	 push	 DWORD PTR _pszFormat$[ebp]
  0002a	8d 71 ff	 lea	 esi, DWORD PTR [ecx-1]
  0002d	56		 push	 esi
  0002e	57		 push	 edi
  0002f	33 db		 xor	 ebx, ebx
  00031	ff 15 00 00 00
	00		 call	 DWORD PTR __imp___vsnprintf
  00037	83 c4 10	 add	 esp, 16			; 00000010H
  0003a	85 c0		 test	 eax, eax
  0003c	78 0b		 js	 SHORT $LN12@StringCbPr
  0003e	3b c6		 cmp	 eax, esi
  00040	77 07		 ja	 SHORT $LN12@StringCbPr
  00042	75 0d		 jne	 SHORT $LN9@StringCbPr
  00044	88 1c 3e	 mov	 BYTE PTR [esi+edi], bl
  00047	eb 08		 jmp	 SHORT $LN9@StringCbPr
$LN12@StringCbPr:
  00049	88 1c 3e	 mov	 BYTE PTR [esi+edi], bl
  0004c	bb 7a 00 07 80	 mov	 ebx, -2147024774	; 8007007aH
$LN9@StringCbPr:
  00051	5f		 pop	 edi
  00052	5e		 pop	 esi
  00053	8b c3		 mov	 eax, ebx
  00055	5b		 pop	 ebx
$LN1@StringCbPr:

; 4784 : 
; 4785 :         va_end(argList);
; 4786 :     }
; 4787 : 
; 4788 :     return hr;
; 4789 : }

  00056	5d		 pop	 ebp
  00057	c3		 ret	 0
?StringCbPrintfA@@YAJPADIPBDZZ ENDP			; StringCbPrintfA
_TEXT	ENDS
PUBLIC	??0tagAniSoundEventInfo@@QAE@XZ			; tagAniSoundEventInfo::tagAniSoundEventInfo
;	COMDAT xdata$x
; File d:\lost saga for developer\youtube\tutorial\source\src\lsclient\anieventhelpstruct.h
xdata$x	SEGMENT
__unwindtable$??0tagAniSoundEventInfo@@QAE@XZ DD 0ffffffffH
	DD	FLAT:__unwindfunclet$??0tagAniSoundEventInfo@@QAE@XZ$0
__ehfuncinfo$??0tagAniSoundEventInfo@@QAE@XZ DD 019930522H
	DD	01H
	DD	FLAT:__unwindtable$??0tagAniSoundEventInfo@@QAE@XZ
	DD	2 DUP(00H)
	DD	2 DUP(00H)
	DD	00H
	DD	01H
; Function compile flags: /Ogsp
xdata$x	ENDS
;	COMDAT ??0tagAniSoundEventInfo@@QAE@XZ
_TEXT	SEGMENT
_this$ = -16						; size = 4
__$EHRec$ = -12						; size = 12
??0tagAniSoundEventInfo@@QAE@XZ PROC			; tagAniSoundEventInfo::tagAniSoundEventInfo, COMDAT
; _this$ = ecx

; 12   : 	tagAniSoundEventInfo()

  00000	6a 04		 push	 4
  00002	b8 00 00 00 00	 mov	 eax, __ehhandler$??0tagAniSoundEventInfo@@QAE@XZ
  00007	e8 00 00 00 00	 call	 __EH_prolog3
  0000c	8b f1		 mov	 esi, ecx
  0000e	89 75 f0	 mov	 DWORD PTR _this$[ebp], esi
  00011	8b 3d 00 00 00
	00		 mov	 edi, DWORD PTR __imp_??0ioHashString@@QAE@XZ
  00017	ff d7		 call	 edi
  00019	83 65 fc 00	 and	 DWORD PTR __$EHRec$[ebp+8], 0
  0001d	8d 4e 10	 lea	 ecx, DWORD PTR [esi+16]
  00020	ff d7		 call	 edi

; 13   : 	{
; 14   : 		Init();

  00022	83 66 20 00	 and	 DWORD PTR [esi+32], 0

; 15   : 	}

  00026	8b c6		 mov	 eax, esi
  00028	e8 00 00 00 00	 call	 __EH_epilog3
  0002d	c3		 ret	 0
_TEXT	ENDS
;	COMDAT text$x
text$x	SEGMENT
__unwindfunclet$??0tagAniSoundEventInfo@@QAE@XZ$0:
  00000	8b 4d f0	 mov	 ecx, DWORD PTR _this$[ebp]
  00003	ff 25 00 00 00
	00		 jmp	 DWORD PTR __imp_??1ioHashString@@QAE@XZ
__ehhandler$??0tagAniSoundEventInfo@@QAE@XZ:
  00009	8b 54 24 08	 mov	 edx, DWORD PTR [esp+8]
  0000d	8d 42 0c	 lea	 eax, DWORD PTR [edx+12]
  00010	8b 4a ec	 mov	 ecx, DWORD PTR [edx-20]
  00013	33 c8		 xor	 ecx, eax
  00015	e8 00 00 00 00	 call	 @__security_check_cookie@4
  0001a	b8 00 00 00 00	 mov	 eax, OFFSET __ehfuncinfo$??0tagAniSoundEventInfo@@QAE@XZ
  0001f	e9 00 00 00 00	 jmp	 ___CxxFrameHandler3
text$x	ENDS
??0tagAniSoundEventInfo@@QAE@XZ ENDP			; tagAniSoundEventInfo::tagAniSoundEventInfo
PUBLIC	?c_str@?$basic_string@DU?$char_traits@D@std@@V?$allocator@D@2@@std@@QBEPBDXZ ; std::basic_string<char,std::char_traits<char>,std::allocator<char> >::c_str
; Function compile flags: /Ogsp
; File c:\program files (x86)\microsoft visual studio 10.0\vc\include\xstring
;	COMDAT ?c_str@?$basic_string@DU?$char_traits@D@std@@V?$allocator@D@2@@std@@QBEPBDXZ
_TEXT	SEGMENT
?c_str@?$basic_string@DU?$char_traits@D@std@@V?$allocator@D@2@@std@@QBEPBDXZ PROC ; std::basic_string<char,std::char_traits<char>,std::allocator<char> >::c_str, COMDAT
; _this$ = ecx

; 1497 : 		return (_Myptr());

  00000	83 79 14 10	 cmp	 DWORD PTR [ecx+20], 16	; 00000010H
  00004	72 03		 jb	 SHORT $LN5@c_str
  00006	8b 01		 mov	 eax, DWORD PTR [ecx]

; 1498 : 		}

  00008	c3		 ret	 0

; 1497 : 		return (_Myptr());

$LN5@c_str:
  00009	8b c1		 mov	 eax, ecx

; 1498 : 		}

  0000b	c3		 ret	 0
?c_str@?$basic_string@DU?$char_traits@D@std@@V?$allocator@D@2@@std@@QBEPBDXZ ENDP ; std::basic_string<char,std::char_traits<char>,std::allocator<char> >::c_str
_TEXT	ENDS
PUBLIC	??B?$CEncrypt@H@@QBEHXZ				; CEncrypt<int>::operator int
; Function compile flags: /Ogsp
; File d:\lost saga for developer\youtube\tutorial\source\src\lsclient\encryptvalue.h
;	COMDAT ??B?$CEncrypt@H@@QBEHXZ
_TEXT	SEGMENT
_value$ = -4						; size = 4
??B?$CEncrypt@H@@QBEHXZ PROC				; CEncrypt<int>::operator int, COMDAT
; _this$ = ecx

; 145  : 	{

  00000	55		 push	 ebp
  00001	8b ec		 mov	 ebp, esp
  00003	51		 push	 ecx

; 146  : 		//UJ 130829, const    --start
; 147  : 		type value;
; 148  : 		CEncrypt<type>* pThis = const_cast<CEncrypt<type>*>(this);
; 149  : 		pThis->DecryptValueToPool(&value);

  00004	8d 45 fc	 lea	 eax, DWORD PTR _value$[ebp]
  00007	50		 push	 eax
  00008	e8 00 00 00 00	 call	 ?DecryptValueToPool@?$CEncrypt@H@@QAEXPAH@Z ; CEncrypt<int>::DecryptValueToPool

; 150  : 		//// const DecryptValueToPool     .
; 151  :  		//type value;
; 152  : 		//char szTempMem[MAX_ENCRYPT];
; 153  : 		//m_RC5.DecryptByte( m_MemPool, szTempMem, max(m_ValueSize, DEFAULT_ENCRYPT) );
; 154  : 		//memcpy( &value, szTempMem, m_ValueSize );
; 155  : 		//UJ --end
; 156  : 
; 157  : #ifdef _NOTUSE
; 158  : 		Debug();
; 159  : #endif
; 160  : 		return value;

  0000d	8b 45 fc	 mov	 eax, DWORD PTR _value$[ebp]

; 161  : 	}

  00010	c9		 leave
  00011	c3		 ret	 0
??B?$CEncrypt@H@@QBEHXZ ENDP				; CEncrypt<int>::operator int
_TEXT	ENDS
PUBLIC	??0?$_String_val@DV?$allocator@D@std@@@std@@QAE@V?$allocator@D@1@@Z ; std::_String_val<char,std::allocator<char> >::_String_val<char,std::allocator<char> >
; Function compile flags: /Ogsp
; File c:\program files (x86)\microsoft visual studio 10.0\vc\include\xstring
;	COMDAT ??0?$_String_val@DV?$allocator@D@std@@@std@@QAE@V?$allocator@D@1@@Z
_TEXT	SEGMENT
__Al$ = 8						; size = 1
??0?$_String_val@DV?$allocator@D@std@@@std@@QAE@V?$allocator@D@1@@Z PROC ; std::_String_val<char,std::allocator<char> >::_String_val<char,std::allocator<char> >, COMDAT
; _this$ = ecx

; 454  : 		{	// construct allocator from _Al

  00000	8b c1		 mov	 eax, ecx

; 455  : 		}

  00002	c2 04 00	 ret	 4
??0?$_String_val@DV?$allocator@D@std@@@std@@QAE@V?$allocator@D@1@@Z ENDP ; std::_String_val<char,std::allocator<char> >::_String_val<char,std::allocator<char> >
_TEXT	ENDS
PUBLIC	?_Eos@?$basic_string@DU?$char_traits@D@std@@V?$allocator@D@2@@std@@QAEXI@Z ; std::basic_string<char,std::char_traits<char>,std::allocator<char> >::_Eos
; Function compile flags: /Ogsp
;	COMDAT ?_Eos@?$basic_string@DU?$char_traits@D@std@@V?$allocator@D@2@@std@@QAEXI@Z
_TEXT	SEGMENT
__Newsize$ = 8						; size = 4
?_Eos@?$basic_string@DU?$char_traits@D@std@@V?$allocator@D@2@@std@@QAEXI@Z PROC ; std::basic_string<char,std::char_traits<char>,std::allocator<char> >::_Eos, COMDAT
; _this$ = ecx

; 1953 : 		{	// set new length and null terminator

  00000	55		 push	 ebp
  00001	8b ec		 mov	 ebp, esp

; 1954 : 		_Traits::assign(_Myptr()[this->_Mysize = _Newsize], _Elem());

  00003	83 79 14 10	 cmp	 DWORD PTR [ecx+20], 16	; 00000010H
  00007	8b 45 08	 mov	 eax, DWORD PTR __Newsize$[ebp]
  0000a	89 41 10	 mov	 DWORD PTR [ecx+16], eax
  0000d	72 02		 jb	 SHORT $LN5@Eos
  0000f	8b 09		 mov	 ecx, DWORD PTR [ecx]
$LN5@Eos:
  00011	c6 04 01 00	 mov	 BYTE PTR [ecx+eax], 0

; 1955 : 		}

  00015	5d		 pop	 ebp
  00016	c2 04 00	 ret	 4
?_Eos@?$basic_string@DU?$char_traits@D@std@@V?$allocator@D@2@@std@@QAEXI@Z ENDP ; std::basic_string<char,std::char_traits<char>,std::allocator<char> >::_Eos
_TEXT	ENDS
PUBLIC	?max_size@?$basic_string@DU?$char_traits@D@std@@V?$allocator@D@2@@std@@QBEIXZ ; std::basic_string<char,std::char_traits<char>,std::allocator<char> >::max_size
; Function compile flags: /Ogsp
;	COMDAT ?max_size@?$basic_string@DU?$char_traits@D@std@@V?$allocator@D@2@@std@@QBEIXZ
_TEXT	SEGMENT
?max_size@?$basic_string@DU?$char_traits@D@std@@V?$allocator@D@2@@std@@QBEIXZ PROC ; std::basic_string<char,std::char_traits<char>,std::allocator<char> >::max_size, COMDAT
; _this$ = ecx

; 1517 : 		size_type _Num = this->_Alval.max_size();
; 1518 : 		return (_Num <= 1 ? 1 : _Num - 1);

  00000	6a fe		 push	 -2			; fffffffeH
  00002	58		 pop	 eax

; 1519 : 		}

  00003	c3		 ret	 0
?max_size@?$basic_string@DU?$char_traits@D@std@@V?$allocator@D@2@@std@@QBEIXZ ENDP ; std::basic_string<char,std::char_traits<char>,std::allocator<char> >::max_size
_TEXT	ENDS
PUBLIC	?allocate@?$allocator@D@std@@QAEPADI@Z		; std::allocator<char>::allocate
; Function compile flags: /Ogsp
; File c:\program files (x86)\microsoft visual studio 10.0\vc\include\xmemory
;	COMDAT ?allocate@?$allocator@D@std@@QAEPADI@Z
_TEXT	SEGMENT
__Count$ = 8						; size = 4
?allocate@?$allocator@D@std@@QAEPADI@Z PROC		; std::allocator<char>::allocate, COMDAT
; _this$ = ecx

; 186  : 		{	// allocate array of _Count elements

  00000	55		 push	 ebp
  00001	8b ec		 mov	 ebp, esp

; 187  : 		return (_Allocate(_Count, (pointer)0));

  00003	6a 00		 push	 0
  00005	ff 75 08	 push	 DWORD PTR __Count$[ebp]
  00008	e8 00 00 00 00	 call	 ??$_Allocate@D@std@@YAPADIPAD@Z ; std::_Allocate<char>
  0000d	59		 pop	 ecx
  0000e	59		 pop	 ecx

; 188  : 		}

  0000f	5d		 pop	 ebp
  00010	c2 04 00	 ret	 4
?allocate@?$allocator@D@std@@QAEPADI@Z ENDP		; std::allocator<char>::allocate
_TEXT	ENDS
PUBLIC	?GetWeaponEntity@ioClientAniEventHandler@@IAEPAVioEntity@@XZ ; ioClientAniEventHandler::GetWeaponEntity
EXTRN	__imp_?IsFileExist@ioResourceLoader@@QAE_NPBD_N@Z:PROC
EXTRN	__imp_?GetInstance@ioResourceLoader@@SAAAV1@XZ:PROC
EXTRN	?ConvertName@Help@@YA?AVioHashString@@ABV2@_N@Z:PROC ; Help::ConvertName
EXTRN	?GetObjectA@ioBaseChar@@QBEPAVioObjectItem@@XZ:PROC ; ioBaseChar::GetObjectA
EXTRN	?GetWeapon@ioBaseChar@@QBEPAVioWeaponItem@@XZ:PROC ; ioBaseChar::GetWeapon
EXTRN	__EH_epilog3_GS:PROC
EXTRN	__EH_prolog3_GS:PROC
EXTRN	_memset:PROC
;	COMDAT xdata$x
; File d:\lost saga for developer\youtube\tutorial\source\src\lsclient\stringprotect.h
xdata$x	SEGMENT
__ehfuncinfo$?GetWeaponEntity@ioClientAniEventHandler@@IAEPAVioEntity@@XZ DD 019930522H
	DD	05H
	DD	FLAT:__unwindtable$?GetWeaponEntity@ioClientAniEventHandler@@IAEPAVioEntity@@XZ
	DD	2 DUP(00H)
	DD	2 DUP(00H)
	DD	00H
	DD	01H
__unwindtable$?GetWeaponEntity@ioClientAniEventHandler@@IAEPAVioEntity@@XZ DD 0ffffffffH
	DD	FLAT:__unwindfunclet$?GetWeaponEntity@ioClientAniEventHandler@@IAEPAVioEntity@@XZ$0
	DD	00H
	DD	FLAT:__unwindfunclet$?GetWeaponEntity@ioClientAniEventHandler@@IAEPAVioEntity@@XZ$1
	DD	00H
	DD	FLAT:__unwindfunclet$?GetWeaponEntity@ioClientAniEventHandler@@IAEPAVioEntity@@XZ$2
	DD	00H
	DD	FLAT:__unwindfunclet$?GetWeaponEntity@ioClientAniEventHandler@@IAEPAVioEntity@@XZ$3
	DD	00H
	DD	FLAT:__unwindfunclet$?GetWeaponEntity@ioClientAniEventHandler@@IAEPAVioEntity@@XZ$4
; Function compile flags: /Ogsp
; File d:\lost saga for developer\youtube\tutorial\source\src\lsclient\ioclientanieventhandler.cpp
xdata$x	ENDS
;	COMDAT ?GetWeaponEntity@ioClientAniEventHandler@@IAEPAVioEntity@@XZ
_TEXT	SEGMENT
_szNewMeshName$ = -328					; size = 16
$T532765 = -312						; size = 1
_pObject$ = -312					; size = 4
$T532745 = -308						; size = 1
_pWeapon$ = -308					; size = 4
_szFullName$526757 = -304				; size = 260
_szFullName$526597 = -304				; size = 260
___encStr$526761 = -44					; size = 21
___encStr$526601 = -44					; size = 21
$T532734 = -36						; size = 16
$T532733 = -36						; size = 16
$T532732 = -36						; size = 16
$T532731 = -36						; size = 16
__$EHRec$ = -12						; size = 12
?GetWeaponEntity@ioClientAniEventHandler@@IAEPAVioEntity@@XZ PROC ; ioClientAniEventHandler::GetWeaponEntity, COMDAT
; _this$ = ecx

; 578  : {

  00000	68 3c 01 00 00	 push	 316			; 0000013cH
  00005	b8 00 00 00 00	 mov	 eax, __ehhandler$?GetWeaponEntity@ioClientAniEventHandler@@IAEPAVioEntity@@XZ
  0000a	e8 00 00 00 00	 call	 __EH_prolog3_GS
  0000f	8b f1		 mov	 esi, ecx

; 579  : 	if( !m_pChar )	return NULL;

  00011	8b 4e 18	 mov	 ecx, DWORD PTR [esi+24]
  00014	33 db		 xor	 ebx, ebx
  00016	3b cb		 cmp	 ecx, ebx
  00018	0f 84 b2 02 00
	00		 je	 $LN248@GetWeaponE

; 580  : 
; 581  : 	ioWeaponItem *pWeapon = m_pChar->GetWeapon();

  0001e	e8 00 00 00 00	 call	 ?GetWeapon@ioBaseChar@@QBEPAVioWeaponItem@@XZ ; ioBaseChar::GetWeapon

; 582  : 	ioObjectItem *pObject = m_pChar->GetObject();

  00023	8b 4e 18	 mov	 ecx, DWORD PTR [esi+24]
  00026	89 85 cc fe ff
	ff		 mov	 DWORD PTR _pWeapon$[ebp], eax
  0002c	e8 00 00 00 00	 call	 ?GetObjectA@ioBaseChar@@QBEPAVioObjectItem@@XZ ; ioBaseChar::GetObjectA
  00031	8b f8		 mov	 edi, eax

; 583  : 
; 584  : 	ioHashString szNewMeshName;

  00033	8d 8d b8 fe ff
	ff		 lea	 ecx, DWORD PTR _szNewMeshName$[ebp]
  00039	89 bd c8 fe ff
	ff		 mov	 DWORD PTR _pObject$[ebp], edi
  0003f	ff 15 00 00 00
	00		 call	 DWORD PTR __imp_??0ioHashString@@QAE@XZ
  00045	89 5d fc	 mov	 DWORD PTR __$EHRec$[ebp+8], ebx

; 585  : 
; 586  : 	if( pObject )

  00048	3b fb		 cmp	 edi, ebx
  0004a	0f 84 1a 01 00
	00		 je	 $LN206@GetWeaponE

; 587  : 	{
; 588  : 		szNewMeshName = Help::ConvertName( pObject->GetEquipMesh(m_pChar), m_pChar->IsMale() );

  00050	8b 46 18	 mov	 eax, DWORD PTR [esi+24]
  00053	8a 88 20 03 00
	00		 mov	 cl, BYTE PTR [eax+800]
  00059	8b 17		 mov	 edx, DWORD PTR [edi]
  0005b	88 8d cc fe ff
	ff		 mov	 BYTE PTR $T532745[ebp], cl
  00061	ff b5 cc fe ff
	ff		 push	 DWORD PTR $T532745[ebp]
  00067	8b cf		 mov	 ecx, edi
  00069	50		 push	 eax
  0006a	ff 92 e8 02 00
	00		 call	 DWORD PTR [edx+744]
  00070	50		 push	 eax
  00071	8d 45 dc	 lea	 eax, DWORD PTR $T532731[ebp]
  00074	50		 push	 eax
  00075	e8 00 00 00 00	 call	 ?ConvertName@Help@@YA?AVioHashString@@ABV2@_N@Z ; Help::ConvertName
  0007a	83 c4 0c	 add	 esp, 12			; 0000000cH
  0007d	50		 push	 eax
  0007e	8d 8d b8 fe ff
	ff		 lea	 ecx, DWORD PTR _szNewMeshName$[ebp]
  00084	c6 45 fc 01	 mov	 BYTE PTR __$EHRec$[ebp+8], 1
  00088	ff 15 00 00 00
	00		 call	 DWORD PTR __imp_??4ioHashString@@QAEAAV0@ABV0@@Z
  0008e	8b 3d 00 00 00
	00		 mov	 edi, DWORD PTR __imp_??1ioHashString@@QAE@XZ
  00094	8d 4d dc	 lea	 ecx, DWORD PTR $T532731[ebp]
  00097	88 5d fc	 mov	 BYTE PTR __$EHRec$[ebp+8], bl
  0009a	ff d7		 call	 edi

; 589  : 		if( !m_pChar->IsMale() )

  0009c	8b 46 18	 mov	 eax, DWORD PTR [esi+24]
  0009f	38 98 20 03 00
	00		 cmp	 BYTE PTR [eax+800], bl
  000a5	0f 85 f3 01 00
	00		 jne	 $LN2@GetWeaponE

; 590  : 		{
; 591  : 			char szFullName[MAX_PATH]="";

  000ab	68 03 01 00 00	 push	 259			; 00000103H
  000b0	8d 85 d1 fe ff
	ff		 lea	 eax, DWORD PTR _szFullName$526597[ebp+1]
  000b6	53		 push	 ebx
  000b7	50		 push	 eax
  000b8	88 9d d0 fe ff
	ff		 mov	 BYTE PTR _szFullName$526597[ebp], bl
  000be	e8 00 00 00 00	 call	 _memset
  000c3	83 c4 0c	 add	 esp, 12			; 0000000cH
  000c6	6a 05		 push	 5

; 592  : 			StringCbPrintf_e( szFullName, sizeof( szFullName ), "resource\\mesh\\%s.msh" , szNewMeshName.c_str() );

  000c8	c7 45 d4 9f 89
	98 85		 mov	 DWORD PTR ___encStr$526601[ebp], -2053600865 ; 8598899fH
  000cf	c7 45 d8 98 9e
	88 8f		 mov	 DWORD PTR ___encStr$526601[ebp+4], -1886871912 ; 8f889e98H
  000d6	c7 45 dc b1 81
	8e 99		 mov	 DWORD PTR ___encStr$526601[ebp+8], -1718713935 ; 998e81b1H
  000dd	c7 45 e0 85 b0
	ce 99		 mov	 DWORD PTR ___encStr$526601[ebp+12], -1714507643 ; 99ceb085H
  000e4	c7 45 e4 c3 81
	98 82		 mov	 DWORD PTR ___encStr$526601[ebp+16], -2103934525 ; 829881c3H
  000eb	8d 45 d4	 lea	 eax, DWORD PTR ___encStr$526601[ebp]
  000ee	88 5d e8	 mov	 BYTE PTR ___encStr$526601[ebp+20], bl
  000f1	59		 pop	 ecx
$LL224@GetWeaponE:
  000f2	81 30 ed ec eb
	ea		 xor	 DWORD PTR [eax], -353637139 ; eaebecedH
  000f8	83 c0 04	 add	 eax, 4
  000fb	49		 dec	 ecx
  000fc	75 f4		 jne	 SHORT $LL224@GetWeaponE
  000fe	8d 8d b8 fe ff
	ff		 lea	 ecx, DWORD PTR _szNewMeshName$[ebp]
  00104	ff 15 00 00 00
	00		 call	 DWORD PTR __imp_?c_str@ioHashString@@QBEPBDXZ
  0010a	50		 push	 eax
  0010b	8d 45 d4	 lea	 eax, DWORD PTR ___encStr$526601[ebp]
  0010e	50		 push	 eax
  0010f	8d 85 d0 fe ff
	ff		 lea	 eax, DWORD PTR _szFullName$526597[ebp]
  00115	68 04 01 00 00	 push	 260			; 00000104H
  0011a	50		 push	 eax
  0011b	e8 00 00 00 00	 call	 ?StringCbPrintfA@@YAJPADIPBDZZ ; StringCbPrintfA
  00120	83 c4 10	 add	 esp, 16			; 00000010H

; 593  : 			if( !g_ResourceLoader.IsFileExist( szFullName ) )

  00123	8d 85 d0 fe ff
	ff		 lea	 eax, DWORD PTR _szFullName$526597[ebp]
  00129	53		 push	 ebx
  0012a	50		 push	 eax
  0012b	ff 15 00 00 00
	00		 call	 DWORD PTR __imp_?GetInstance@ioResourceLoader@@SAAAV1@XZ
  00131	8b c8		 mov	 ecx, eax
  00133	ff 15 00 00 00
	00		 call	 DWORD PTR __imp_?IsFileExist@ioResourceLoader@@QAE_NPBD_N@Z
  00139	84 c0		 test	 al, al
  0013b	0f 85 5d 01 00
	00		 jne	 $LN2@GetWeaponE

; 594  : 			{
; 595  : 				szNewMeshName = Help::ConvertName( pObject->GetEquipMesh(m_pChar), true );

  00141	8b 8d c8 fe ff
	ff		 mov	 ecx, DWORD PTR _pObject$[ebp]
  00147	8b 01		 mov	 eax, DWORD PTR [ecx]
  00149	6a 01		 push	 1
  0014b	ff 76 18	 push	 DWORD PTR [esi+24]
  0014e	ff 90 e8 02 00
	00		 call	 DWORD PTR [eax+744]
  00154	50		 push	 eax
  00155	8d 45 dc	 lea	 eax, DWORD PTR $T532732[ebp]
  00158	50		 push	 eax
  00159	e8 00 00 00 00	 call	 ?ConvertName@Help@@YA?AVioHashString@@ABV2@_N@Z ; Help::ConvertName
  0015e	83 c4 0c	 add	 esp, 12			; 0000000cH
  00161	c6 45 fc 02	 mov	 BYTE PTR __$EHRec$[ebp+8], 2

; 596  : 			}
; 597  : 		}
; 598  : 	}

  00165	e9 1f 01 00 00	 jmp	 $LN249@GetWeaponE
$LN206@GetWeaponE:

; 599  : 	else if( pWeapon )

  0016a	8b bd cc fe ff
	ff		 mov	 edi, DWORD PTR _pWeapon$[ebp]
  00170	3b fb		 cmp	 edi, ebx
  00172	0f 84 48 01 00
	00		 je	 $LN103@GetWeaponE

; 600  : 	{
; 601  : 		szNewMeshName = Help::ConvertName( pWeapon->GetEquipMesh(m_pChar), m_pChar->IsMale() );

  00178	8b 46 18	 mov	 eax, DWORD PTR [esi+24]
  0017b	8a 88 20 03 00
	00		 mov	 cl, BYTE PTR [eax+800]
  00181	8b 17		 mov	 edx, DWORD PTR [edi]
  00183	88 8d c8 fe ff
	ff		 mov	 BYTE PTR $T532765[ebp], cl
  00189	ff b5 c8 fe ff
	ff		 push	 DWORD PTR $T532765[ebp]
  0018f	8b cf		 mov	 ecx, edi
  00191	50		 push	 eax
  00192	ff 92 e8 02 00
	00		 call	 DWORD PTR [edx+744]
  00198	50		 push	 eax
  00199	8d 45 dc	 lea	 eax, DWORD PTR $T532733[ebp]
  0019c	50		 push	 eax
  0019d	e8 00 00 00 00	 call	 ?ConvertName@Help@@YA?AVioHashString@@ABV2@_N@Z ; Help::ConvertName
  001a2	83 c4 0c	 add	 esp, 12			; 0000000cH
  001a5	50		 push	 eax
  001a6	8d 8d b8 fe ff
	ff		 lea	 ecx, DWORD PTR _szNewMeshName$[ebp]
  001ac	c6 45 fc 03	 mov	 BYTE PTR __$EHRec$[ebp+8], 3
  001b0	ff 15 00 00 00
	00		 call	 DWORD PTR __imp_??4ioHashString@@QAEAAV0@ABV0@@Z
  001b6	8b 3d 00 00 00
	00		 mov	 edi, DWORD PTR __imp_??1ioHashString@@QAE@XZ
  001bc	8d 4d dc	 lea	 ecx, DWORD PTR $T532733[ebp]
  001bf	88 5d fc	 mov	 BYTE PTR __$EHRec$[ebp+8], bl
  001c2	ff d7		 call	 edi

; 602  : 		if( !m_pChar->IsMale() )

  001c4	8b 46 18	 mov	 eax, DWORD PTR [esi+24]
  001c7	38 98 20 03 00
	00		 cmp	 BYTE PTR [eax+800], bl
  001cd	0f 85 cb 00 00
	00		 jne	 $LN2@GetWeaponE

; 603  : 		{
; 604  : 			char szFullName[MAX_PATH]="";

  001d3	68 03 01 00 00	 push	 259			; 00000103H
  001d8	8d 85 d1 fe ff
	ff		 lea	 eax, DWORD PTR _szFullName$526757[ebp+1]
  001de	53		 push	 ebx
  001df	50		 push	 eax
  001e0	88 9d d0 fe ff
	ff		 mov	 BYTE PTR _szFullName$526757[ebp], bl
  001e6	e8 00 00 00 00	 call	 _memset
  001eb	83 c4 0c	 add	 esp, 12			; 0000000cH
  001ee	6a 05		 push	 5

; 605  : 			StringCbPrintf_e( szFullName, sizeof( szFullName ), "resource\\mesh\\%s.msh" , szNewMeshName.c_str() );

  001f0	c7 45 d4 9f 89
	98 85		 mov	 DWORD PTR ___encStr$526761[ebp], -2053600865 ; 8598899fH
  001f7	c7 45 d8 98 9e
	88 8f		 mov	 DWORD PTR ___encStr$526761[ebp+4], -1886871912 ; 8f889e98H
  001fe	c7 45 dc b1 81
	8e 99		 mov	 DWORD PTR ___encStr$526761[ebp+8], -1718713935 ; 998e81b1H
  00205	c7 45 e0 85 b0
	ce 99		 mov	 DWORD PTR ___encStr$526761[ebp+12], -1714507643 ; 99ceb085H
  0020c	c7 45 e4 c3 81
	98 82		 mov	 DWORD PTR ___encStr$526761[ebp+16], -2103934525 ; 829881c3H
  00213	8d 45 d4	 lea	 eax, DWORD PTR ___encStr$526761[ebp]
  00216	88 5d e8	 mov	 BYTE PTR ___encStr$526761[ebp+20], bl
  00219	59		 pop	 ecx
$LL236@GetWeaponE:
  0021a	81 30 ed ec eb
	ea		 xor	 DWORD PTR [eax], -353637139 ; eaebecedH
  00220	83 c0 04	 add	 eax, 4
  00223	49		 dec	 ecx
  00224	75 f4		 jne	 SHORT $LL236@GetWeaponE
  00226	8d 8d b8 fe ff
	ff		 lea	 ecx, DWORD PTR _szNewMeshName$[ebp]
  0022c	ff 15 00 00 00
	00		 call	 DWORD PTR __imp_?c_str@ioHashString@@QBEPBDXZ
  00232	50		 push	 eax
  00233	8d 45 d4	 lea	 eax, DWORD PTR ___encStr$526761[ebp]
  00236	50		 push	 eax
  00237	8d 85 d0 fe ff
	ff		 lea	 eax, DWORD PTR _szFullName$526757[ebp]
  0023d	68 04 01 00 00	 push	 260			; 00000104H
  00242	50		 push	 eax
  00243	e8 00 00 00 00	 call	 ?StringCbPrintfA@@YAJPADIPBDZZ ; StringCbPrintfA
  00248	83 c4 10	 add	 esp, 16			; 00000010H

; 606  : 			if( !g_ResourceLoader.IsFileExist( szFullName ) )

  0024b	8d 85 d0 fe ff
	ff		 lea	 eax, DWORD PTR _szFullName$526757[ebp]
  00251	53		 push	 ebx
  00252	50		 push	 eax
  00253	ff 15 00 00 00
	00		 call	 DWORD PTR __imp_?GetInstance@ioResourceLoader@@SAAAV1@XZ
  00259	8b c8		 mov	 ecx, eax
  0025b	ff 15 00 00 00
	00		 call	 DWORD PTR __imp_?IsFileExist@ioResourceLoader@@QAE_NPBD_N@Z
  00261	84 c0		 test	 al, al
  00263	75 39		 jne	 SHORT $LN2@GetWeaponE

; 607  : 			{
; 608  : 				szNewMeshName = Help::ConvertName( pWeapon->GetEquipMesh(m_pChar), true );

  00265	8b 8d cc fe ff
	ff		 mov	 ecx, DWORD PTR _pWeapon$[ebp]
  0026b	8b 01		 mov	 eax, DWORD PTR [ecx]
  0026d	6a 01		 push	 1
  0026f	ff 76 18	 push	 DWORD PTR [esi+24]
  00272	ff 90 e8 02 00
	00		 call	 DWORD PTR [eax+744]
  00278	50		 push	 eax
  00279	8d 45 dc	 lea	 eax, DWORD PTR $T532734[ebp]
  0027c	50		 push	 eax
  0027d	e8 00 00 00 00	 call	 ?ConvertName@Help@@YA?AVioHashString@@ABV2@_N@Z ; Help::ConvertName
  00282	83 c4 0c	 add	 esp, 12			; 0000000cH
  00285	c6 45 fc 04	 mov	 BYTE PTR __$EHRec$[ebp+8], 4
$LN249@GetWeaponE:
  00289	50		 push	 eax
  0028a	8d 8d b8 fe ff
	ff		 lea	 ecx, DWORD PTR _szNewMeshName$[ebp]
  00290	ff 15 00 00 00
	00		 call	 DWORD PTR __imp_??4ioHashString@@QAEAAV0@ABV0@@Z
  00296	8d 4d dc	 lea	 ecx, DWORD PTR $T532734[ebp]
  00299	88 5d fc	 mov	 BYTE PTR __$EHRec$[ebp+8], bl
  0029c	ff d7		 call	 edi
$LN2@GetWeaponE:

; 615  : 	}
; 616  : 
; 617  : 	return m_pOwner->GetEntity( szNewMeshName );

  0029e	8b 4e 04	 mov	 ecx, DWORD PTR [esi+4]
  002a1	8d 85 b8 fe ff
	ff		 lea	 eax, DWORD PTR _szNewMeshName$[ebp]
  002a7	50		 push	 eax
  002a8	ff 15 00 00 00
	00		 call	 DWORD PTR __imp_?GetEntity@ioEntityGroup@@QAEPAVioEntity@@ABVioHashString@@@Z
  002ae	83 4d fc ff	 or	 DWORD PTR __$EHRec$[ebp+8], -1
  002b2	8d 8d b8 fe ff
	ff		 lea	 ecx, DWORD PTR _szNewMeshName$[ebp]
  002b8	8b f0		 mov	 esi, eax
  002ba	ff d7		 call	 edi
  002bc	8b c6		 mov	 eax, esi
  002be	eb 12		 jmp	 SHORT $LN208@GetWeaponE
$LN103@GetWeaponE:

; 609  : 			}
; 610  : 		}
; 611  : 	}
; 612  : 	else
; 613  : 	{
; 614  : 		return NULL;

  002c0	83 4d fc ff	 or	 DWORD PTR __$EHRec$[ebp+8], -1
  002c4	8d 8d b8 fe ff
	ff		 lea	 ecx, DWORD PTR _szNewMeshName$[ebp]
  002ca	ff 15 00 00 00
	00		 call	 DWORD PTR __imp_??1ioHashString@@QAE@XZ
$LN248@GetWeaponE:
  002d0	33 c0		 xor	 eax, eax
$LN208@GetWeaponE:

; 618  : }

  002d2	e8 00 00 00 00	 call	 __EH_epilog3_GS
  002d7	c3		 ret	 0
_TEXT	ENDS
;	COMDAT text$x
text$x	SEGMENT
__unwindfunclet$?GetWeaponEntity@ioClientAniEventHandler@@IAEPAVioEntity@@XZ$0:
  00000	8d 8d b8 fe ff
	ff		 lea	 ecx, DWORD PTR _szNewMeshName$[ebp]
  00006	ff 25 00 00 00
	00		 jmp	 DWORD PTR __imp_??1ioHashString@@QAE@XZ
__unwindfunclet$?GetWeaponEntity@ioClientAniEventHandler@@IAEPAVioEntity@@XZ$1:
  0000c	8d 4d dc	 lea	 ecx, DWORD PTR $T532731[ebp]
  0000f	ff 25 00 00 00
	00		 jmp	 DWORD PTR __imp_??1ioHashString@@QAE@XZ
__unwindfunclet$?GetWeaponEntity@ioClientAniEventHandler@@IAEPAVioEntity@@XZ$2:
  00015	8d 4d dc	 lea	 ecx, DWORD PTR $T532732[ebp]
  00018	ff 25 00 00 00
	00		 jmp	 DWORD PTR __imp_??1ioHashString@@QAE@XZ
__unwindfunclet$?GetWeaponEntity@ioClientAniEventHandler@@IAEPAVioEntity@@XZ$3:
  0001e	8d 4d dc	 lea	 ecx, DWORD PTR $T532733[ebp]
  00021	ff 25 00 00 00
	00		 jmp	 DWORD PTR __imp_??1ioHashString@@QAE@XZ
__unwindfunclet$?GetWeaponEntity@ioClientAniEventHandler@@IAEPAVioEntity@@XZ$4:
  00027	8d 4d dc	 lea	 ecx, DWORD PTR $T532734[ebp]
  0002a	ff 25 00 00 00
	00		 jmp	 DWORD PTR __imp_??1ioHashString@@QAE@XZ
__ehhandler$?GetWeaponEntity@ioClientAniEventHandler@@IAEPAVioEntity@@XZ:
  00030	8b 54 24 08	 mov	 edx, DWORD PTR [esp+8]
  00034	8d 42 0c	 lea	 eax, DWORD PTR [edx+12]
  00037	8b 8a b4 fe ff
	ff		 mov	 ecx, DWORD PTR [edx-332]
  0003d	33 c8		 xor	 ecx, eax
  0003f	e8 00 00 00 00	 call	 @__security_check_cookie@4
  00044	8b 4a fc	 mov	 ecx, DWORD PTR [edx-4]
  00047	33 c8		 xor	 ecx, eax
  00049	e8 00 00 00 00	 call	 @__security_check_cookie@4
  0004e	b8 00 00 00 00	 mov	 eax, OFFSET __ehfuncinfo$?GetWeaponEntity@ioClientAniEventHandler@@IAEPAVioEntity@@XZ
  00053	e9 00 00 00 00	 jmp	 ___CxxFrameHandler3
text$x	ENDS
?GetWeaponEntity@ioClientAniEventHandler@@IAEPAVioEntity@@XZ ENDP ; ioClientAniEventHandler::GetWeaponEntity
PUBLIC	??0?$vector@UAniEventInfo@@V?$allocator@UAniEventInfo@@@std@@@std@@QAE@XZ ; std::vector<AniEventInfo,std::allocator<AniEventInfo> >::vector<AniEventInfo,std::allocator<AniEventInfo> >
; Function compile flags: /Ogsp
; File c:\program files (x86)\microsoft visual studio 10.0\vc\include\vector
;	COMDAT ??0?$vector@UAniEventInfo@@V?$allocator@UAniEventInfo@@@std@@@std@@QAE@XZ
_TEXT	SEGMENT
??0?$vector@UAniEventInfo@@V?$allocator@UAniEventInfo@@@std@@@std@@QAE@XZ PROC ; std::vector<AniEventInfo,std::allocator<AniEventInfo> >::vector<AniEventInfo,std::allocator<AniEventInfo> >, COMDAT
; _this$ = ecx

; 507  : 		{	// construct empty vector

  00000	8b c1		 mov	 eax, ecx
  00002	33 c9		 xor	 ecx, ecx
  00004	89 08		 mov	 DWORD PTR [eax], ecx
  00006	89 48 04	 mov	 DWORD PTR [eax+4], ecx
  00009	89 48 08	 mov	 DWORD PTR [eax+8], ecx

; 508  : 		}

  0000c	c3		 ret	 0
??0?$vector@UAniEventInfo@@V?$allocator@UAniEventInfo@@@std@@@std@@QAE@XZ ENDP ; std::vector<AniEventInfo,std::allocator<AniEventInfo> >::vector<AniEventInfo,std::allocator<AniEventInfo> >
_TEXT	ENDS
PUBLIC	?begin@?$vector@UAniEventInfo@@V?$allocator@UAniEventInfo@@@std@@@std@@QAE?AV?$_Vector_iterator@V?$_Vector_val@UAniEventInfo@@V?$allocator@UAniEventInfo@@@std@@@std@@@2@XZ ; std::vector<AniEventInfo,std::allocator<AniEventInfo> >::begin
; Function compile flags: /Ogsp
;	COMDAT ?begin@?$vector@UAniEventInfo@@V?$allocator@UAniEventInfo@@@std@@@std@@QAE?AV?$_Vector_iterator@V?$_Vector_val@UAniEventInfo@@V?$allocator@UAniEventInfo@@@std@@@std@@@2@XZ
_TEXT	SEGMENT
___$ReturnUdt$ = 8					; size = 4
?begin@?$vector@UAniEventInfo@@V?$allocator@UAniEventInfo@@@std@@@std@@QAE?AV?$_Vector_iterator@V?$_Vector_val@UAniEventInfo@@V?$allocator@UAniEventInfo@@@std@@@std@@@2@XZ PROC ; std::vector<AniEventInfo,std::allocator<AniEventInfo> >::begin, COMDAT
; _this$ = ecx

; 781  : 		{	// return iterator for beginning of mutable sequence

  00000	55		 push	 ebp
  00001	8b ec		 mov	 ebp, esp

; 782  : 		return (iterator(this->_Myfirst, this));

  00003	8b 09		 mov	 ecx, DWORD PTR [ecx]
  00005	8b 45 08	 mov	 eax, DWORD PTR ___$ReturnUdt$[ebp]
  00008	89 08		 mov	 DWORD PTR [eax], ecx

; 783  : 		}

  0000a	5d		 pop	 ebp
  0000b	c2 04 00	 ret	 4
?begin@?$vector@UAniEventInfo@@V?$allocator@UAniEventInfo@@@std@@@std@@QAE?AV?$_Vector_iterator@V?$_Vector_val@UAniEventInfo@@V?$allocator@UAniEventInfo@@@std@@@std@@@2@XZ ENDP ; std::vector<AniEventInfo,std::allocator<AniEventInfo> >::begin
_TEXT	ENDS
PUBLIC	?end@?$vector@UAniEventInfo@@V?$allocator@UAniEventInfo@@@std@@@std@@QAE?AV?$_Vector_iterator@V?$_Vector_val@UAniEventInfo@@V?$allocator@UAniEventInfo@@@std@@@std@@@2@XZ ; std::vector<AniEventInfo,std::allocator<AniEventInfo> >::end
; Function compile flags: /Ogsp
;	COMDAT ?end@?$vector@UAniEventInfo@@V?$allocator@UAniEventInfo@@@std@@@std@@QAE?AV?$_Vector_iterator@V?$_Vector_val@UAniEventInfo@@V?$allocator@UAniEventInfo@@@std@@@std@@@2@XZ
_TEXT	SEGMENT
___$ReturnUdt$ = 8					; size = 4
?end@?$vector@UAniEventInfo@@V?$allocator@UAniEventInfo@@@std@@@std@@QAE?AV?$_Vector_iterator@V?$_Vector_val@UAniEventInfo@@V?$allocator@UAniEventInfo@@@std@@@std@@@2@XZ PROC ; std::vector<AniEventInfo,std::allocator<AniEventInfo> >::end, COMDAT
; _this$ = ecx

; 791  : 		{	// return iterator for end of mutable sequence

  00000	55		 push	 ebp
  00001	8b ec		 mov	 ebp, esp

; 792  : 		return (iterator(this->_Mylast, this));

  00003	8b 49 04	 mov	 ecx, DWORD PTR [ecx+4]
  00006	8b 45 08	 mov	 eax, DWORD PTR ___$ReturnUdt$[ebp]
  00009	89 08		 mov	 DWORD PTR [eax], ecx

; 793  : 		}

  0000b	5d		 pop	 ebp
  0000c	c2 04 00	 ret	 4
?end@?$vector@UAniEventInfo@@V?$allocator@UAniEventInfo@@@std@@@std@@QAE?AV?$_Vector_iterator@V?$_Vector_val@UAniEventInfo@@V?$allocator@UAniEventInfo@@@std@@@std@@@2@XZ ENDP ; std::vector<AniEventInfo,std::allocator<AniEventInfo> >::end
_TEXT	ENDS
PUBLIC	??0?$vector@UtagAniSoundEventInfo@@V?$allocator@UtagAniSoundEventInfo@@@std@@@std@@QAE@XZ ; std::vector<tagAniSoundEventInfo,std::allocator<tagAniSoundEventInfo> >::vector<tagAniSoundEventInfo,std::allocator<tagAniSoundEventInfo> >
; Function compile flags: /Ogsp
;	COMDAT ??0?$vector@UtagAniSoundEventInfo@@V?$allocator@UtagAniSoundEventInfo@@@std@@@std@@QAE@XZ
_TEXT	SEGMENT
??0?$vector@UtagAniSoundEventInfo@@V?$allocator@UtagAniSoundEventInfo@@@std@@@std@@QAE@XZ PROC ; std::vector<tagAniSoundEventInfo,std::allocator<tagAniSoundEventInfo> >::vector<tagAniSoundEventInfo,std::allocator<tagAniSoundEventInfo> >, COMDAT
; _this$ = ecx

; 507  : 		{	// construct empty vector

  00000	8b c1		 mov	 eax, ecx
  00002	33 c9		 xor	 ecx, ecx
  00004	89 08		 mov	 DWORD PTR [eax], ecx
  00006	89 48 04	 mov	 DWORD PTR [eax+4], ecx
  00009	89 48 08	 mov	 DWORD PTR [eax+8], ecx

; 508  : 		}

  0000c	c3		 ret	 0
??0?$vector@UtagAniSoundEventInfo@@V?$allocator@UtagAniSoundEventInfo@@@std@@@std@@QAE@XZ ENDP ; std::vector<tagAniSoundEventInfo,std::allocator<tagAniSoundEventInfo> >::vector<tagAniSoundEventInfo,std::allocator<tagAniSoundEventInfo> >
_TEXT	ENDS
PUBLIC	?begin@?$vector@UtagAniSoundEventInfo@@V?$allocator@UtagAniSoundEventInfo@@@std@@@std@@QAE?AV?$_Vector_iterator@V?$_Vector_val@UtagAniSoundEventInfo@@V?$allocator@UtagAniSoundEventInfo@@@std@@@std@@@2@XZ ; std::vector<tagAniSoundEventInfo,std::allocator<tagAniSoundEventInfo> >::begin
; Function compile flags: /Ogsp
;	COMDAT ?begin@?$vector@UtagAniSoundEventInfo@@V?$allocator@UtagAniSoundEventInfo@@@std@@@std@@QAE?AV?$_Vector_iterator@V?$_Vector_val@UtagAniSoundEventInfo@@V?$allocator@UtagAniSoundEventInfo@@@std@@@std@@@2@XZ
_TEXT	SEGMENT
___$ReturnUdt$ = 8					; size = 4
?begin@?$vector@UtagAniSoundEventInfo@@V?$allocator@UtagAniSoundEventInfo@@@std@@@std@@QAE?AV?$_Vector_iterator@V?$_Vector_val@UtagAniSoundEventInfo@@V?$allocator@UtagAniSoundEventInfo@@@std@@@std@@@2@XZ PROC ; std::vector<tagAniSoundEventInfo,std::allocator<tagAniSoundEventInfo> >::begin, COMDAT
; _this$ = ecx

; 781  : 		{	// return iterator for beginning of mutable sequence

  00000	55		 push	 ebp
  00001	8b ec		 mov	 ebp, esp

; 782  : 		return (iterator(this->_Myfirst, this));

  00003	8b 09		 mov	 ecx, DWORD PTR [ecx]
  00005	8b 45 08	 mov	 eax, DWORD PTR ___$ReturnUdt$[ebp]
  00008	89 08		 mov	 DWORD PTR [eax], ecx

; 783  : 		}

  0000a	5d		 pop	 ebp
  0000b	c2 04 00	 ret	 4
?begin@?$vector@UtagAniSoundEventInfo@@V?$allocator@UtagAniSoundEventInfo@@@std@@@std@@QAE?AV?$_Vector_iterator@V?$_Vector_val@UtagAniSoundEventInfo@@V?$allocator@UtagAniSoundEventInfo@@@std@@@std@@@2@XZ ENDP ; std::vector<tagAniSoundEventInfo,std::allocator<tagAniSoundEventInfo> >::begin
_TEXT	ENDS
PUBLIC	?end@?$vector@UtagAniSoundEventInfo@@V?$allocator@UtagAniSoundEventInfo@@@std@@@std@@QAE?AV?$_Vector_iterator@V?$_Vector_val@UtagAniSoundEventInfo@@V?$allocator@UtagAniSoundEventInfo@@@std@@@std@@@2@XZ ; std::vector<tagAniSoundEventInfo,std::allocator<tagAniSoundEventInfo> >::end
; Function compile flags: /Ogsp
;	COMDAT ?end@?$vector@UtagAniSoundEventInfo@@V?$allocator@UtagAniSoundEventInfo@@@std@@@std@@QAE?AV?$_Vector_iterator@V?$_Vector_val@UtagAniSoundEventInfo@@V?$allocator@UtagAniSoundEventInfo@@@std@@@std@@@2@XZ
_TEXT	SEGMENT
___$ReturnUdt$ = 8					; size = 4
?end@?$vector@UtagAniSoundEventInfo@@V?$allocator@UtagAniSoundEventInfo@@@std@@@std@@QAE?AV?$_Vector_iterator@V?$_Vector_val@UtagAniSoundEventInfo@@V?$allocator@UtagAniSoundEventInfo@@@std@@@std@@@2@XZ PROC ; std::vector<tagAniSoundEventInfo,std::allocator<tagAniSoundEventInfo> >::end, COMDAT
; _this$ = ecx

; 791  : 		{	// return iterator for end of mutable sequence

  00000	55		 push	 ebp
  00001	8b ec		 mov	 ebp, esp

; 792  : 		return (iterator(this->_Mylast, this));

  00003	8b 49 04	 mov	 ecx, DWORD PTR [ecx+4]
  00006	8b 45 08	 mov	 eax, DWORD PTR ___$ReturnUdt$[ebp]
  00009	89 08		 mov	 DWORD PTR [eax], ecx

; 793  : 		}

  0000b	5d		 pop	 ebp
  0000c	c2 04 00	 ret	 4
?end@?$vector@UtagAniSoundEventInfo@@V?$allocator@UtagAniSoundEventInfo@@@std@@@std@@QAE?AV?$_Vector_iterator@V?$_Vector_val@UtagAniSoundEventInfo@@V?$allocator@UtagAniSoundEventInfo@@@std@@@std@@@2@XZ ENDP ; std::vector<tagAniSoundEventInfo,std::allocator<tagAniSoundEventInfo> >::end
_TEXT	ENDS
PUBLIC	??9?$_Vector_const_iterator@V?$_Vector_val@UAniEventInfo@@V?$allocator@UAniEventInfo@@@std@@@std@@@std@@QBE_NABV01@@Z ; std::_Vector_const_iterator<std::_Vector_val<AniEventInfo,std::allocator<AniEventInfo> > >::operator!=
; Function compile flags: /Ogsp
;	COMDAT ??9?$_Vector_const_iterator@V?$_Vector_val@UAniEventInfo@@V?$allocator@UAniEventInfo@@@std@@@std@@@std@@QBE_NABV01@@Z
_TEXT	SEGMENT
__Right$ = 8						; size = 4
??9?$_Vector_const_iterator@V?$_Vector_val@UAniEventInfo@@V?$allocator@UAniEventInfo@@@std@@@std@@@std@@QBE_NABV01@@Z PROC ; std::_Vector_const_iterator<std::_Vector_val<AniEventInfo,std::allocator<AniEventInfo> > >::operator!=, COMDAT
; _this$ = ecx

; 207  : 		{	// test for iterator inequality

  00000	55		 push	 ebp
  00001	8b ec		 mov	 ebp, esp

; 208  : 		return (!(*this == _Right));

  00003	8b 01		 mov	 eax, DWORD PTR [ecx]
  00005	8b 55 08	 mov	 edx, DWORD PTR __Right$[ebp]
  00008	33 c9		 xor	 ecx, ecx
  0000a	3b 02		 cmp	 eax, DWORD PTR [edx]
  0000c	0f 95 c0	 setne	 al

; 209  : 		}

  0000f	5d		 pop	 ebp
  00010	c2 04 00	 ret	 4
??9?$_Vector_const_iterator@V?$_Vector_val@UAniEventInfo@@V?$allocator@UAniEventInfo@@@std@@@std@@@std@@QBE_NABV01@@Z ENDP ; std::_Vector_const_iterator<std::_Vector_val<AniEventInfo,std::allocator<AniEventInfo> > >::operator!=
_TEXT	ENDS
PUBLIC	??9?$_Vector_const_iterator@V?$_Vector_val@UtagAniSoundEventInfo@@V?$allocator@UtagAniSoundEventInfo@@@std@@@std@@@std@@QBE_NABV01@@Z ; std::_Vector_const_iterator<std::_Vector_val<tagAniSoundEventInfo,std::allocator<tagAniSoundEventInfo> > >::operator!=
; Function compile flags: /Ogsp
;	COMDAT ??9?$_Vector_const_iterator@V?$_Vector_val@UtagAniSoundEventInfo@@V?$allocator@UtagAniSoundEventInfo@@@std@@@std@@@std@@QBE_NABV01@@Z
_TEXT	SEGMENT
__Right$ = 8						; size = 4
??9?$_Vector_const_iterator@V?$_Vector_val@UtagAniSoundEventInfo@@V?$allocator@UtagAniSoundEventInfo@@@std@@@std@@@std@@QBE_NABV01@@Z PROC ; std::_Vector_const_iterator<std::_Vector_val<tagAniSoundEventInfo,std::allocator<tagAniSoundEventInfo> > >::operator!=, COMDAT
; _this$ = ecx

; 207  : 		{	// test for iterator inequality

  00000	55		 push	 ebp
  00001	8b ec		 mov	 ebp, esp

; 208  : 		return (!(*this == _Right));

  00003	8b 01		 mov	 eax, DWORD PTR [ecx]
  00005	8b 55 08	 mov	 edx, DWORD PTR __Right$[ebp]
  00008	33 c9		 xor	 ecx, ecx
  0000a	3b 02		 cmp	 eax, DWORD PTR [edx]
  0000c	0f 95 c0	 setne	 al

; 209  : 		}

  0000f	5d		 pop	 ebp
  00010	c2 04 00	 ret	 4
??9?$_Vector_const_iterator@V?$_Vector_val@UtagAniSoundEventInfo@@V?$allocator@UtagAniSoundEventInfo@@@std@@@std@@@std@@QBE_NABV01@@Z ENDP ; std::_Vector_const_iterator<std::_Vector_val<tagAniSoundEventInfo,std::allocator<tagAniSoundEventInfo> > >::operator!=
_TEXT	ENDS
PUBLIC	?_Buy@?$vector@V?$basic_string@DU?$char_traits@D@std@@V?$allocator@D@2@@std@@V?$allocator@V?$basic_string@DU?$char_traits@D@std@@V?$allocator@D@2@@std@@@2@@std@@IAE_NI@Z ; std::vector<std::basic_string<char,std::char_traits<char>,std::allocator<char> >,std::allocator<std::basic_string<char,std::char_traits<char>,std::allocator<char> > > >::_Buy
; Function compile flags: /Ogsp
;	COMDAT ?_Buy@?$vector@V?$basic_string@DU?$char_traits@D@std@@V?$allocator@D@2@@std@@V?$allocator@V?$basic_string@DU?$char_traits@D@std@@V?$allocator@D@2@@std@@@2@@std@@IAE_NI@Z
_TEXT	SEGMENT
__Capacity$ = 8						; size = 4
?_Buy@?$vector@V?$basic_string@DU?$char_traits@D@std@@V?$allocator@D@2@@std@@V?$allocator@V?$basic_string@DU?$char_traits@D@std@@V?$allocator@D@2@@std@@@2@@std@@IAE_NI@Z PROC ; std::vector<std::basic_string<char,std::char_traits<char>,std::allocator<char> >,std::allocator<std::basic_string<char,std::char_traits<char>,std::allocator<char> > > >::_Buy, COMDAT
; _this$ = ecx

; 1250 : 		{	// allocate array with _Capacity elements

  00000	55		 push	 ebp
  00001	8b ec		 mov	 ebp, esp
  00003	56		 push	 esi

; 1251 : 		this->_Myfirst = 0;

  00004	33 c0		 xor	 eax, eax
  00006	57		 push	 edi

; 1252 : 		this->_Mylast = 0;
; 1253 : 		this->_Myend = 0;
; 1254 : 
; 1255 : 		if (_Capacity == 0)

  00007	8b 7d 08	 mov	 edi, DWORD PTR __Capacity$[ebp]
  0000a	8b f1		 mov	 esi, ecx
  0000c	89 06		 mov	 DWORD PTR [esi], eax
  0000e	89 46 04	 mov	 DWORD PTR [esi+4], eax
  00011	89 46 08	 mov	 DWORD PTR [esi+8], eax
  00014	3b f8		 cmp	 edi, eax
  00016	75 04		 jne	 SHORT $LN4@Buy

; 1256 : 			return (false);

  00018	32 c0		 xor	 al, al
  0001a	eb 2b		 jmp	 SHORT $LN5@Buy
$LN4@Buy:

; 1257 : 		else if (max_size() < _Capacity)

  0001c	81 ff 49 92 24
	09		 cmp	 edi, 153391689		; 09249249H
  00022	76 0b		 jbe	 SHORT $LN2@Buy

; 1258 : 			_Xlen();	// result too long

  00024	68 00 00 00 00	 push	 OFFSET ??_C@_0BD@OLBABOEK@vector?$DMT?$DO?5too?5long?$AA@
  00029	ff 15 00 00 00
	00		 call	 DWORD PTR __imp_?_Xlength_error@std@@YAXPBD@Z
$LN19@Buy:
$LN2@Buy:

; 1259 : 		else
; 1260 : 			{	// nonempty array, allocate storage
; 1261 : 			this->_Myfirst = this->_Alval.allocate(_Capacity);

  0002f	50		 push	 eax
  00030	57		 push	 edi
  00031	e8 00 00 00 00	 call	 ??$_Allocate@V?$basic_string@DU?$char_traits@D@std@@V?$allocator@D@2@@std@@@std@@YAPAV?$basic_string@DU?$char_traits@D@std@@V?$allocator@D@2@@0@IPAV10@@Z ; std::_Allocate<std::basic_string<char,std::char_traits<char>,std::allocator<char> > >

; 1262 : 			this->_Mylast = this->_Myfirst;
; 1263 : 			this->_Myend = this->_Myfirst + _Capacity;

  00036	6b ff 1c	 imul	 edi, 28			; 0000001cH
  00039	03 f8		 add	 edi, eax
  0003b	59		 pop	 ecx
  0003c	89 06		 mov	 DWORD PTR [esi], eax
  0003e	89 46 04	 mov	 DWORD PTR [esi+4], eax
  00041	59		 pop	 ecx
  00042	89 7e 08	 mov	 DWORD PTR [esi+8], edi

; 1264 : 			}
; 1265 : 		return (true);

  00045	b0 01		 mov	 al, 1
$LN5@Buy:
  00047	5f		 pop	 edi
  00048	5e		 pop	 esi

; 1266 : 		}

  00049	5d		 pop	 ebp
  0004a	c2 04 00	 ret	 4
$LN18@Buy:
?_Buy@?$vector@V?$basic_string@DU?$char_traits@D@std@@V?$allocator@D@2@@std@@V?$allocator@V?$basic_string@DU?$char_traits@D@std@@V?$allocator@D@2@@std@@@2@@std@@IAE_NI@Z ENDP ; std::vector<std::basic_string<char,std::char_traits<char>,std::allocator<char> >,std::allocator<std::basic_string<char,std::char_traits<char>,std::allocator<char> > > >::_Buy
_TEXT	ENDS
PUBLIC	?_Make_iter@?$vector@UAniEventInfo@@V?$allocator@UAniEventInfo@@@std@@@std@@QBE?AV?$_Vector_iterator@V?$_Vector_val@UAniEventInfo@@V?$allocator@UAniEventInfo@@@std@@@std@@@2@V?$_Vector_const_iterator@V?$_Vector_val@UAniEventInfo@@V?$allocator@UAniEventInfo@@@std@@@std@@@2@@Z ; std::vector<AniEventInfo,std::allocator<AniEventInfo> >::_Make_iter
; Function compile flags: /Ogsp
;	COMDAT ?_Make_iter@?$vector@UAniEventInfo@@V?$allocator@UAniEventInfo@@@std@@@std@@QBE?AV?$_Vector_iterator@V?$_Vector_val@UAniEventInfo@@V?$allocator@UAniEventInfo@@@std@@@std@@@2@V?$_Vector_const_iterator@V?$_Vector_val@UAniEventInfo@@V?$allocator@UAniEventInfo@@@std@@@std@@@2@@Z
_TEXT	SEGMENT
___$ReturnUdt$ = 8					; size = 4
__Where$ = 12						; size = 4
?_Make_iter@?$vector@UAniEventInfo@@V?$allocator@UAniEventInfo@@@std@@@std@@QBE?AV?$_Vector_iterator@V?$_Vector_val@UAniEventInfo@@V?$allocator@UAniEventInfo@@@std@@@std@@@2@V?$_Vector_const_iterator@V?$_Vector_val@UAniEventInfo@@V?$allocator@UAniEventInfo@@@std@@@std@@@2@@Z PROC ; std::vector<AniEventInfo,std::allocator<AniEventInfo> >::_Make_iter, COMDAT
; _this$ = ecx

; 801  : 		{	// make iterator from const_iterator

  00000	55		 push	 ebp
  00001	8b ec		 mov	 ebp, esp

; 802  : 		return (iterator(_Where._Ptr, this));

  00003	8b 45 08	 mov	 eax, DWORD PTR ___$ReturnUdt$[ebp]
  00006	8b 4d 0c	 mov	 ecx, DWORD PTR __Where$[ebp]
  00009	89 08		 mov	 DWORD PTR [eax], ecx

; 803  : 		}

  0000b	5d		 pop	 ebp
  0000c	c2 08 00	 ret	 8
?_Make_iter@?$vector@UAniEventInfo@@V?$allocator@UAniEventInfo@@@std@@@std@@QBE?AV?$_Vector_iterator@V?$_Vector_val@UAniEventInfo@@V?$allocator@UAniEventInfo@@@std@@@std@@@2@V?$_Vector_const_iterator@V?$_Vector_val@UAniEventInfo@@V?$allocator@UAniEventInfo@@@std@@@std@@@2@@Z ENDP ; std::vector<AniEventInfo,std::allocator<AniEventInfo> >::_Make_iter
_TEXT	ENDS
PUBLIC	?_Make_iter@?$vector@UtagAniSoundEventInfo@@V?$allocator@UtagAniSoundEventInfo@@@std@@@std@@QBE?AV?$_Vector_iterator@V?$_Vector_val@UtagAniSoundEventInfo@@V?$allocator@UtagAniSoundEventInfo@@@std@@@std@@@2@V?$_Vector_const_iterator@V?$_Vector_val@UtagAniSoundEventInfo@@V?$allocator@UtagAniSoundEventInfo@@@std@@@std@@@2@@Z ; std::vector<tagAniSoundEventInfo,std::allocator<tagAniSoundEventInfo> >::_Make_iter
; Function compile flags: /Ogsp
;	COMDAT ?_Make_iter@?$vector@UtagAniSoundEventInfo@@V?$allocator@UtagAniSoundEventInfo@@@std@@@std@@QBE?AV?$_Vector_iterator@V?$_Vector_val@UtagAniSoundEventInfo@@V?$allocator@UtagAniSoundEventInfo@@@std@@@std@@@2@V?$_Vector_const_iterator@V?$_Vector_val@UtagAniSoundEventInfo@@V?$allocator@UtagAniSoundEventInfo@@@std@@@std@@@2@@Z
_TEXT	SEGMENT
___$ReturnUdt$ = 8					; size = 4
__Where$ = 12						; size = 4
?_Make_iter@?$vector@UtagAniSoundEventInfo@@V?$allocator@UtagAniSoundEventInfo@@@std@@@std@@QBE?AV?$_Vector_iterator@V?$_Vector_val@UtagAniSoundEventInfo@@V?$allocator@UtagAniSoundEventInfo@@@std@@@std@@@2@V?$_Vector_const_iterator@V?$_Vector_val@UtagAniSoundEventInfo@@V?$allocator@UtagAniSoundEventInfo@@@std@@@std@@@2@@Z PROC ; std::vector<tagAniSoundEventInfo,std::allocator<tagAniSoundEventInfo> >::_Make_iter, COMDAT
; _this$ = ecx

; 801  : 		{	// make iterator from const_iterator

  00000	55		 push	 ebp
  00001	8b ec		 mov	 ebp, esp

; 802  : 		return (iterator(_Where._Ptr, this));

  00003	8b 45 08	 mov	 eax, DWORD PTR ___$ReturnUdt$[ebp]
  00006	8b 4d 0c	 mov	 ecx, DWORD PTR __Where$[ebp]
  00009	89 08		 mov	 DWORD PTR [eax], ecx

; 803  : 		}

  0000b	5d		 pop	 ebp
  0000c	c2 08 00	 ret	 8
?_Make_iter@?$vector@UtagAniSoundEventInfo@@V?$allocator@UtagAniSoundEventInfo@@@std@@@std@@QBE?AV?$_Vector_iterator@V?$_Vector_val@UtagAniSoundEventInfo@@V?$allocator@UtagAniSoundEventInfo@@@std@@@std@@@2@V?$_Vector_const_iterator@V?$_Vector_val@UtagAniSoundEventInfo@@V?$allocator@UtagAniSoundEventInfo@@@std@@@std@@@2@@Z ENDP ; std::vector<tagAniSoundEventInfo,std::allocator<tagAniSoundEventInfo> >::_Make_iter
_TEXT	ENDS
PUBLIC	??0?$_List_iterator@V?$_List_val@PBVioMeshControlPoint@@V?$allocator@PBVioMeshControlPoint@@@std@@@std@@@std@@QAE@PAU_Node@?$_List_nod@PBVioMeshControlPoint@@V?$allocator@PBVioMeshControlPoint@@@std@@@1@PBV?$_List_val@PBVioMeshControlPoint@@V?$allocator@PBVioMeshControlPoint@@@std@@@1@@Z ; std::_List_iterator<std::_List_val<ioMeshControlPoint const *,std::allocator<ioMeshControlPoint const *> > >::_List_iterator<std::_List_val<ioMeshControlPoint const *,std::allocator<ioMeshControlPoint const *> > >
; Function compile flags: /Ogsp
; File c:\program files (x86)\microsoft visual studio 10.0\vc\include\list
;	COMDAT ??0?$_List_iterator@V?$_List_val@PBVioMeshControlPoint@@V?$allocator@PBVioMeshControlPoint@@@std@@@std@@@std@@QAE@PAU_Node@?$_List_nod@PBVioMeshControlPoint@@V?$allocator@PBVioMeshControlPoint@@@std@@@1@PBV?$_List_val@PBVioMeshControlPoint@@V?$allocator@PBVioMeshControlPoint@@@std@@@1@@Z
_TEXT	SEGMENT
__Pnode$ = 8						; size = 4
__Plist$ = 12						; size = 4
??0?$_List_iterator@V?$_List_val@PBVioMeshControlPoint@@V?$allocator@PBVioMeshControlPoint@@@std@@@std@@@std@@QAE@PAU_Node@?$_List_nod@PBVioMeshControlPoint@@V?$allocator@PBVioMeshControlPoint@@@std@@@1@PBV?$_List_val@PBVioMeshControlPoint@@V?$allocator@PBVioMeshControlPoint@@@std@@@1@@Z PROC ; std::_List_iterator<std::_List_val<ioMeshControlPoint const *,std::allocator<ioMeshControlPoint const *> > >::_List_iterator<std::_List_val<ioMeshControlPoint const *,std::allocator<ioMeshControlPoint const *> > >, COMDAT
; _this$ = ecx

; 342  : 		{	// construct with node pointer _Pnode

  00000	55		 push	 ebp
  00001	8b ec		 mov	 ebp, esp
  00003	8b c1		 mov	 eax, ecx
  00005	8b 4d 08	 mov	 ecx, DWORD PTR __Pnode$[ebp]
  00008	89 08		 mov	 DWORD PTR [eax], ecx

; 343  : 		}

  0000a	5d		 pop	 ebp
  0000b	c2 08 00	 ret	 8
??0?$_List_iterator@V?$_List_val@PBVioMeshControlPoint@@V?$allocator@PBVioMeshControlPoint@@@std@@@std@@@std@@QAE@PAU_Node@?$_List_nod@PBVioMeshControlPoint@@V?$allocator@PBVioMeshControlPoint@@@std@@@1@PBV?$_List_val@PBVioMeshControlPoint@@V?$allocator@PBVioMeshControlPoint@@@std@@@1@@Z ENDP ; std::_List_iterator<std::_List_val<ioMeshControlPoint const *,std::allocator<ioMeshControlPoint const *> > >::_List_iterator<std::_List_val<ioMeshControlPoint const *,std::allocator<ioMeshControlPoint const *> > >
_TEXT	ENDS
PUBLIC	??$_Cons_val@V?$allocator@UAniEventInfo@@@std@@UAniEventInfo@@ABU3@@std@@YAXAAV?$allocator@UAniEventInfo@@@0@PAUAniEventInfo@@ABU2@@Z ; std::_Cons_val<std::allocator<AniEventInfo>,AniEventInfo,AniEventInfo const &>
; Function compile flags: /Ogsp
; File c:\program files (x86)\microsoft visual studio 10.0\vc\include\xmemory
;	COMDAT ??$_Cons_val@V?$allocator@UAniEventInfo@@@std@@UAniEventInfo@@ABU3@@std@@YAXAAV?$allocator@UAniEventInfo@@@0@PAUAniEventInfo@@ABU2@@Z
_TEXT	SEGMENT
__Alval$ = 8						; size = 4
__Pdest$ = 12						; size = 4
__Src$ = 16						; size = 4
??$_Cons_val@V?$allocator@UAniEventInfo@@@std@@UAniEventInfo@@ABU3@@std@@YAXAAV?$allocator@UAniEventInfo@@@0@PAUAniEventInfo@@ABU2@@Z PROC ; std::_Cons_val<std::allocator<AniEventInfo>,AniEventInfo,AniEventInfo const &>, COMDAT

; 279  : 	{	// construct using allocator

  00000	55		 push	 ebp
  00001	8b ec		 mov	 ebp, esp

; 280  : 	_Alval.construct(_Pdest, _STD forward<_Ty2>(_Src));

  00003	ff 75 10	 push	 DWORD PTR __Src$[ebp]
  00006	ff 75 0c	 push	 DWORD PTR __Pdest$[ebp]
  00009	e8 00 00 00 00	 call	 ??$_Construct@UAniEventInfo@@ABU1@@std@@YAXPAUAniEventInfo@@ABU1@@Z ; std::_Construct<AniEventInfo,AniEventInfo const &>
  0000e	59		 pop	 ecx
  0000f	59		 pop	 ecx

; 281  : 	}

  00010	5d		 pop	 ebp
  00011	c3		 ret	 0
??$_Cons_val@V?$allocator@UAniEventInfo@@@std@@UAniEventInfo@@ABU3@@std@@YAXAAV?$allocator@UAniEventInfo@@@0@PAUAniEventInfo@@ABU2@@Z ENDP ; std::_Cons_val<std::allocator<AniEventInfo>,AniEventInfo,AniEventInfo const &>
_TEXT	ENDS
PUBLIC	??$_Move@PAUAniEventInfo@@PAU1@@std@@YAPAUAniEventInfo@@PAU1@00@Z ; std::_Move<AniEventInfo *,AniEventInfo *>
; Function compile flags: /Ogsp
; File c:\program files (x86)\microsoft visual studio 10.0\vc\include\xutility
;	COMDAT ??$_Move@PAUAniEventInfo@@PAU1@@std@@YAPAUAniEventInfo@@PAU1@00@Z
_TEXT	SEGMENT
__Cat$533020 = -4					; size = 1
__First$ = 8						; size = 4
__Last$ = 12						; size = 4
__Dest$ = 16						; size = 4
??$_Move@PAUAniEventInfo@@PAU1@@std@@YAPAUAniEventInfo@@PAU1@00@Z PROC ; std::_Move<AniEventInfo *,AniEventInfo *>, COMDAT

; 2533 : 	{	// move [_First, _Last) to [_Dest, ...), unchecked

  00000	55		 push	 ebp
  00001	8b ec		 mov	 ebp, esp
  00003	51		 push	 ecx

; 2534 : 	return (_Move(_First, _Last,
; 2535 : 		_Dest, _Ptr_cat(_First, _Dest)));

  00004	ff 75 fc	 push	 DWORD PTR __Cat$533020[ebp]
  00007	ff 75 10	 push	 DWORD PTR __Dest$[ebp]
  0000a	ff 75 0c	 push	 DWORD PTR __Last$[ebp]
  0000d	ff 75 08	 push	 DWORD PTR __First$[ebp]
  00010	e8 00 00 00 00	 call	 ??$_Move@PAUAniEventInfo@@PAU1@@std@@YAPAUAniEventInfo@@PAU1@00U_Nonscalar_ptr_iterator_tag@0@@Z ; std::_Move<AniEventInfo *,AniEventInfo *>
  00015	83 c4 10	 add	 esp, 16			; 00000010H

; 2536 : 	}

  00018	c9		 leave
  00019	c3		 ret	 0
??$_Move@PAUAniEventInfo@@PAU1@@std@@YAPAUAniEventInfo@@PAU1@00@Z ENDP ; std::_Move<AniEventInfo *,AniEventInfo *>
_TEXT	ENDS
PUBLIC	??$_Cons_val@V?$allocator@UtagAniSoundEventInfo@@@std@@UtagAniSoundEventInfo@@ABU3@@std@@YAXAAV?$allocator@UtagAniSoundEventInfo@@@0@PAUtagAniSoundEventInfo@@ABU2@@Z ; std::_Cons_val<std::allocator<tagAniSoundEventInfo>,tagAniSoundEventInfo,tagAniSoundEventInfo const &>
; Function compile flags: /Ogsp
; File c:\program files (x86)\microsoft visual studio 10.0\vc\include\xmemory
;	COMDAT ??$_Cons_val@V?$allocator@UtagAniSoundEventInfo@@@std@@UtagAniSoundEventInfo@@ABU3@@std@@YAXAAV?$allocator@UtagAniSoundEventInfo@@@0@PAUtagAniSoundEventInfo@@ABU2@@Z
_TEXT	SEGMENT
__Alval$ = 8						; size = 4
__Pdest$ = 12						; size = 4
__Src$ = 16						; size = 4
??$_Cons_val@V?$allocator@UtagAniSoundEventInfo@@@std@@UtagAniSoundEventInfo@@ABU3@@std@@YAXAAV?$allocator@UtagAniSoundEventInfo@@@0@PAUtagAniSoundEventInfo@@ABU2@@Z PROC ; std::_Cons_val<std::allocator<tagAniSoundEventInfo>,tagAniSoundEventInfo,tagAniSoundEventInfo const &>, COMDAT

; 279  : 	{	// construct using allocator

  00000	55		 push	 ebp
  00001	8b ec		 mov	 ebp, esp

; 280  : 	_Alval.construct(_Pdest, _STD forward<_Ty2>(_Src));

  00003	ff 75 10	 push	 DWORD PTR __Src$[ebp]
  00006	ff 75 0c	 push	 DWORD PTR __Pdest$[ebp]
  00009	e8 00 00 00 00	 call	 ??$_Construct@UtagAniSoundEventInfo@@ABU1@@std@@YAXPAUtagAniSoundEventInfo@@ABU1@@Z ; std::_Construct<tagAniSoundEventInfo,tagAniSoundEventInfo const &>
  0000e	59		 pop	 ecx
  0000f	59		 pop	 ecx

; 281  : 	}

  00010	5d		 pop	 ebp
  00011	c3		 ret	 0
??$_Cons_val@V?$allocator@UtagAniSoundEventInfo@@@std@@UtagAniSoundEventInfo@@ABU3@@std@@YAXAAV?$allocator@UtagAniSoundEventInfo@@@0@PAUtagAniSoundEventInfo@@ABU2@@Z ENDP ; std::_Cons_val<std::allocator<tagAniSoundEventInfo>,tagAniSoundEventInfo,tagAniSoundEventInfo const &>
_TEXT	ENDS
PUBLIC	??$_Move@PAUtagAniSoundEventInfo@@PAU1@@std@@YAPAUtagAniSoundEventInfo@@PAU1@00@Z ; std::_Move<tagAniSoundEventInfo *,tagAniSoundEventInfo *>
; Function compile flags: /Ogsp
; File c:\program files (x86)\microsoft visual studio 10.0\vc\include\xutility
;	COMDAT ??$_Move@PAUtagAniSoundEventInfo@@PAU1@@std@@YAPAUtagAniSoundEventInfo@@PAU1@00@Z
_TEXT	SEGMENT
__Cat$533035 = -4					; size = 1
__First$ = 8						; size = 4
__Last$ = 12						; size = 4
__Dest$ = 16						; size = 4
??$_Move@PAUtagAniSoundEventInfo@@PAU1@@std@@YAPAUtagAniSoundEventInfo@@PAU1@00@Z PROC ; std::_Move<tagAniSoundEventInfo *,tagAniSoundEventInfo *>, COMDAT

; 2533 : 	{	// move [_First, _Last) to [_Dest, ...), unchecked

  00000	55		 push	 ebp
  00001	8b ec		 mov	 ebp, esp
  00003	51		 push	 ecx

; 2534 : 	return (_Move(_First, _Last,
; 2535 : 		_Dest, _Ptr_cat(_First, _Dest)));

  00004	ff 75 fc	 push	 DWORD PTR __Cat$533035[ebp]
  00007	ff 75 10	 push	 DWORD PTR __Dest$[ebp]
  0000a	ff 75 0c	 push	 DWORD PTR __Last$[ebp]
  0000d	ff 75 08	 push	 DWORD PTR __First$[ebp]
  00010	e8 00 00 00 00	 call	 ??$_Move@PAUtagAniSoundEventInfo@@PAU1@@std@@YAPAUtagAniSoundEventInfo@@PAU1@00U_Nonscalar_ptr_iterator_tag@0@@Z ; std::_Move<tagAniSoundEventInfo *,tagAniSoundEventInfo *>
  00015	83 c4 10	 add	 esp, 16			; 00000010H

; 2536 : 	}

  00018	c9		 leave
  00019	c3		 ret	 0
??$_Move@PAUtagAniSoundEventInfo@@PAU1@@std@@YAPAUtagAniSoundEventInfo@@PAU1@00@Z ENDP ; std::_Move<tagAniSoundEventInfo *,tagAniSoundEventInfo *>
_TEXT	ENDS
PUBLIC	??$_Dest_val@V?$allocator@U_Node@?$_List_nod@PBVioMeshControlPoint@@V?$allocator@PBVioMeshControlPoint@@@std@@@std@@@std@@U_Node@?$_List_nod@PBVioMeshControlPoint@@V?$allocator@PBVioMeshControlPoint@@@std@@@2@@std@@YAXAAV?$allocator@U_Node@?$_List_nod@PBVioMeshControlPoint@@V?$allocator@PBVioMeshControlPoint@@@std@@@std@@@0@PAU_Node@?$_List_nod@PBVioMeshControlPoint@@V?$allocator@PBVioMeshControlPoint@@@std@@@0@@Z ; std::_Dest_val<std::allocator<std::_List_nod<ioMeshControlPoint const *,std::allocator<ioMeshControlPoint const *> >::_Node>,std::_List_nod<ioMeshControlPoint const *,std::allocator<ioMeshControlPoint const *> >::_Node>
; Function compile flags: /Ogsp
; File c:\program files (x86)\microsoft visual studio 10.0\vc\include\xmemory
;	COMDAT ??$_Dest_val@V?$allocator@U_Node@?$_List_nod@PBVioMeshControlPoint@@V?$allocator@PBVioMeshControlPoint@@@std@@@std@@@std@@U_Node@?$_List_nod@PBVioMeshControlPoint@@V?$allocator@PBVioMeshControlPoint@@@std@@@2@@std@@YAXAAV?$allocator@U_Node@?$_List_nod@PBVioMeshControlPoint@@V?$allocator@PBVioMeshControlPoint@@@std@@@std@@@0@PAU_Node@?$_List_nod@PBVioMeshControlPoint@@V?$allocator@PBVioMeshControlPoint@@@std@@@0@@Z
_TEXT	SEGMENT
__Alval$ = 8						; size = 4
__Pdest$ = 12						; size = 4
??$_Dest_val@V?$allocator@U_Node@?$_List_nod@PBVioMeshControlPoint@@V?$allocator@PBVioMeshControlPoint@@@std@@@std@@@std@@U_Node@?$_List_nod@PBVioMeshControlPoint@@V?$allocator@PBVioMeshControlPoint@@@std@@@2@@std@@YAXAAV?$allocator@U_Node@?$_List_nod@PBVioMeshControlPoint@@V?$allocator@PBVioMeshControlPoint@@@std@@@std@@@0@PAU_Node@?$_List_nod@PBVioMeshControlPoint@@V?$allocator@PBVioMeshControlPoint@@@std@@@0@@Z PROC ; std::_Dest_val<std::allocator<std::_List_nod<ioMeshControlPoint const *,std::allocator<ioMeshControlPoint const *> >::_Node>,std::_List_nod<ioMeshControlPoint const *,std::allocator<ioMeshControlPoint const *> >::_Node>, COMDAT

; 287  : 	_Alval.destroy(_Pdest);
; 288  : 	}

  00000	c3		 ret	 0
??$_Dest_val@V?$allocator@U_Node@?$_List_nod@PBVioMeshControlPoint@@V?$allocator@PBVioMeshControlPoint@@@std@@@std@@@std@@U_Node@?$_List_nod@PBVioMeshControlPoint@@V?$allocator@PBVioMeshControlPoint@@@std@@@2@@std@@YAXAAV?$allocator@U_Node@?$_List_nod@PBVioMeshControlPoint@@V?$allocator@PBVioMeshControlPoint@@@std@@@std@@@0@PAU_Node@?$_List_nod@PBVioMeshControlPoint@@V?$allocator@PBVioMeshControlPoint@@@std@@@0@@Z ENDP ; std::_Dest_val<std::allocator<std::_List_nod<ioMeshControlPoint const *,std::allocator<ioMeshControlPoint const *> >::_Node>,std::_List_nod<ioMeshControlPoint const *,std::allocator<ioMeshControlPoint const *> >::_Node>
_TEXT	ENDS
PUBLIC	?destroy@?$allocator@UAniEventInfo@@@std@@QAEXPAUAniEventInfo@@@Z ; std::allocator<AniEventInfo>::destroy
; Function compile flags: /Ogsp
;	COMDAT ?destroy@?$allocator@UAniEventInfo@@@std@@QAEXPAUAniEventInfo@@@Z
_TEXT	SEGMENT
__Ptr$ = 8						; size = 4
?destroy@?$allocator@UAniEventInfo@@@std@@QAEXPAUAniEventInfo@@@Z PROC ; std::allocator<AniEventInfo>::destroy, COMDAT
; _this$ = ecx

; 212  : 		{	// destroy object at _Ptr

  00000	55		 push	 ebp
  00001	8b ec		 mov	 ebp, esp

; 213  : 		_Destroy(_Ptr);

  00003	8b 4d 08	 mov	 ecx, DWORD PTR __Ptr$[ebp]
  00006	e8 00 00 00 00	 call	 ??1AniEventInfo@@QAE@XZ

; 214  : 		}

  0000b	5d		 pop	 ebp
  0000c	c2 04 00	 ret	 4
?destroy@?$allocator@UAniEventInfo@@@std@@QAEXPAUAniEventInfo@@@Z ENDP ; std::allocator<AniEventInfo>::destroy
_TEXT	ENDS
PUBLIC	?destroy@?$allocator@UtagAniSoundEventInfo@@@std@@QAEXPAUtagAniSoundEventInfo@@@Z ; std::allocator<tagAniSoundEventInfo>::destroy
; Function compile flags: /Ogsp
;	COMDAT ?destroy@?$allocator@UtagAniSoundEventInfo@@@std@@QAEXPAUtagAniSoundEventInfo@@@Z
_TEXT	SEGMENT
__Ptr$ = 8						; size = 4
?destroy@?$allocator@UtagAniSoundEventInfo@@@std@@QAEXPAUtagAniSoundEventInfo@@@Z PROC ; std::allocator<tagAniSoundEventInfo>::destroy, COMDAT
; _this$ = ecx

; 212  : 		{	// destroy object at _Ptr

  00000	55		 push	 ebp
  00001	8b ec		 mov	 ebp, esp

; 213  : 		_Destroy(_Ptr);

  00003	8b 4d 08	 mov	 ecx, DWORD PTR __Ptr$[ebp]
  00006	e8 00 00 00 00	 call	 ??1tagAniSoundEventInfo@@QAE@XZ

; 214  : 		}

  0000b	5d		 pop	 ebp
  0000c	c2 04 00	 ret	 4
?destroy@?$allocator@UtagAniSoundEventInfo@@@std@@QAEXPAUtagAniSoundEventInfo@@@Z ENDP ; std::allocator<tagAniSoundEventInfo>::destroy
_TEXT	ENDS
PUBLIC	??9?$_Vector_const_iterator@V?$_Vector_val@V?$basic_string@DU?$char_traits@D@std@@V?$allocator@D@2@@std@@V?$allocator@V?$basic_string@DU?$char_traits@D@std@@V?$allocator@D@2@@std@@@2@@std@@@std@@QBE_NABV01@@Z ; std::_Vector_const_iterator<std::_Vector_val<std::basic_string<char,std::char_traits<char>,std::allocator<char> >,std::allocator<std::basic_string<char,std::char_traits<char>,std::allocator<char> > > > >::operator!=
; Function compile flags: /Ogsp
; File c:\program files (x86)\microsoft visual studio 10.0\vc\include\vector
;	COMDAT ??9?$_Vector_const_iterator@V?$_Vector_val@V?$basic_string@DU?$char_traits@D@std@@V?$allocator@D@2@@std@@V?$allocator@V?$basic_string@DU?$char_traits@D@std@@V?$allocator@D@2@@std@@@2@@std@@@std@@QBE_NABV01@@Z
_TEXT	SEGMENT
__Right$ = 8						; size = 4
??9?$_Vector_const_iterator@V?$_Vector_val@V?$basic_string@DU?$char_traits@D@std@@V?$allocator@D@2@@std@@V?$allocator@V?$basic_string@DU?$char_traits@D@std@@V?$allocator@D@2@@std@@@2@@std@@@std@@QBE_NABV01@@Z PROC ; std::_Vector_const_iterator<std::_Vector_val<std::basic_string<char,std::char_traits<char>,std::allocator<char> >,std::allocator<std::basic_string<char,std::char_traits<char>,std::allocator<char> > > > >::operator!=, COMDAT
; _this$ = ecx

; 207  : 		{	// test for iterator inequality

  00000	55		 push	 ebp
  00001	8b ec		 mov	 ebp, esp

; 208  : 		return (!(*this == _Right));

  00003	8b 01		 mov	 eax, DWORD PTR [ecx]
  00005	8b 55 08	 mov	 edx, DWORD PTR __Right$[ebp]
  00008	33 c9		 xor	 ecx, ecx
  0000a	3b 02		 cmp	 eax, DWORD PTR [edx]
  0000c	0f 95 c0	 setne	 al

; 209  : 		}

  0000f	5d		 pop	 ebp
  00010	c2 04 00	 ret	 4
??9?$_Vector_const_iterator@V?$_Vector_val@V?$basic_string@DU?$char_traits@D@std@@V?$allocator@D@2@@std@@V?$allocator@V?$basic_string@DU?$char_traits@D@std@@V?$allocator@D@2@@std@@@2@@std@@@std@@QBE_NABV01@@Z ENDP ; std::_Vector_const_iterator<std::_Vector_val<std::basic_string<char,std::char_traits<char>,std::allocator<char> >,std::allocator<std::basic_string<char,std::char_traits<char>,std::allocator<char> > > > >::operator!=
_TEXT	ENDS
PUBLIC	??$_Cons_val@V?$allocator@UAniEventInfo@@@std@@UAniEventInfo@@U3@@std@@YAXAAV?$allocator@UAniEventInfo@@@0@PAUAniEventInfo@@$$QAU2@@Z ; std::_Cons_val<std::allocator<AniEventInfo>,AniEventInfo,AniEventInfo>
;	COMDAT xdata$x
; File c:\program files (x86)\microsoft visual studio 10.0\vc\include\utility
xdata$x	SEGMENT
__unwindtable$??$_Cons_val@V?$allocator@UAniEventInfo@@@std@@UAniEventInfo@@U3@@std@@YAXAAV?$allocator@UAniEventInfo@@@0@PAUAniEventInfo@@$$QAU2@@Z DD 0ffffffffH
	DD	FLAT:__unwindfunclet$??$_Cons_val@V?$allocator@UAniEventInfo@@@std@@UAniEventInfo@@U3@@std@@YAXAAV?$allocator@UAniEventInfo@@@0@PAUAniEventInfo@@$$QAU2@@Z$0
__ehfuncinfo$??$_Cons_val@V?$allocator@UAniEventInfo@@@std@@UAniEventInfo@@U3@@std@@YAXAAV?$allocator@UAniEventInfo@@@0@PAUAniEventInfo@@$$QAU2@@Z DD 019930522H
	DD	01H
	DD	FLAT:__unwindtable$??$_Cons_val@V?$allocator@UAniEventInfo@@@std@@UAniEventInfo@@U3@@std@@YAXAAV?$allocator@UAniEventInfo@@@0@PAUAniEventInfo@@$$QAU2@@Z
	DD	2 DUP(00H)
	DD	2 DUP(00H)
	DD	00H
	DD	01H
; Function compile flags: /Ogsp
; File c:\program files (x86)\microsoft visual studio 10.0\vc\include\xmemory
xdata$x	ENDS
;	COMDAT ??$_Cons_val@V?$allocator@UAniEventInfo@@@std@@UAniEventInfo@@U3@@std@@YAXAAV?$allocator@UAniEventInfo@@@0@PAUAniEventInfo@@$$QAU2@@Z
_TEXT	SEGMENT
$T533101 = -16						; size = 4
__$EHRec$ = -12						; size = 12
__Alval$ = 8						; size = 4
__Pdest$ = 12						; size = 4
__Src$ = 16						; size = 4
??$_Cons_val@V?$allocator@UAniEventInfo@@@std@@UAniEventInfo@@U3@@std@@YAXAAV?$allocator@UAniEventInfo@@@0@PAUAniEventInfo@@$$QAU2@@Z PROC ; std::_Cons_val<std::allocator<AniEventInfo>,AniEventInfo,AniEventInfo>, COMDAT

; 279  : 	{	// construct using allocator

  00000	6a 04		 push	 4
  00002	b8 00 00 00 00	 mov	 eax, __ehhandler$??$_Cons_val@V?$allocator@UAniEventInfo@@@std@@UAniEventInfo@@U3@@std@@YAXAAV?$allocator@UAniEventInfo@@@0@PAUAniEventInfo@@$$QAU2@@Z
  00007	e8 00 00 00 00	 call	 __EH_prolog3

; 280  : 	_Alval.construct(_Pdest, _STD forward<_Ty2>(_Src));

  0000c	8b 4d 0c	 mov	 ecx, DWORD PTR __Pdest$[ebp]
  0000f	89 4d f0	 mov	 DWORD PTR $T533101[ebp], ecx
  00012	83 65 fc 00	 and	 DWORD PTR __$EHRec$[ebp+8], 0
  00016	85 c9		 test	 ecx, ecx
  00018	74 08		 je	 SHORT $LN7@Cons_val@3
  0001a	ff 75 10	 push	 DWORD PTR __Src$[ebp]
  0001d	e8 00 00 00 00	 call	 ??0AniEventInfo@@QAE@ABU0@@Z
$LN7@Cons_val@3:

; 281  : 	}

  00022	e8 00 00 00 00	 call	 __EH_epilog3
  00027	c3		 ret	 0
_TEXT	ENDS
;	COMDAT text$x
text$x	SEGMENT
__unwindfunclet$??$_Cons_val@V?$allocator@UAniEventInfo@@@std@@UAniEventInfo@@U3@@std@@YAXAAV?$allocator@UAniEventInfo@@@0@PAUAniEventInfo@@$$QAU2@@Z$0:
  00000	ff 75 0c	 push	 DWORD PTR __Pdest$[ebp]
  00003	ff 75 f0	 push	 DWORD PTR $T533101[ebp]
  00006	e8 00 00 00 00	 call	 ??3@YAXPAX0@Z		; operator delete
  0000b	59		 pop	 ecx
  0000c	59		 pop	 ecx
  0000d	c3		 ret	 0
__ehhandler$??$_Cons_val@V?$allocator@UAniEventInfo@@@std@@UAniEventInfo@@U3@@std@@YAXAAV?$allocator@UAniEventInfo@@@0@PAUAniEventInfo@@$$QAU2@@Z:
  0000e	8b 54 24 08	 mov	 edx, DWORD PTR [esp+8]
  00012	8d 42 0c	 lea	 eax, DWORD PTR [edx+12]
  00015	8b 4a ec	 mov	 ecx, DWORD PTR [edx-20]
  00018	33 c8		 xor	 ecx, eax
  0001a	e8 00 00 00 00	 call	 @__security_check_cookie@4
  0001f	b8 00 00 00 00	 mov	 eax, OFFSET __ehfuncinfo$??$_Cons_val@V?$allocator@UAniEventInfo@@@std@@UAniEventInfo@@U3@@std@@YAXAAV?$allocator@UAniEventInfo@@@0@PAUAniEventInfo@@$$QAU2@@Z
  00024	e9 00 00 00 00	 jmp	 ___CxxFrameHandler3
text$x	ENDS
??$_Cons_val@V?$allocator@UAniEventInfo@@@std@@UAniEventInfo@@U3@@std@@YAXAAV?$allocator@UAniEventInfo@@@0@PAUAniEventInfo@@$$QAU2@@Z ENDP ; std::_Cons_val<std::allocator<AniEventInfo>,AniEventInfo,AniEventInfo>
PUBLIC	??$_Cons_val@V?$allocator@UtagAniSoundEventInfo@@@std@@UtagAniSoundEventInfo@@U3@@std@@YAXAAV?$allocator@UtagAniSoundEventInfo@@@0@PAUtagAniSoundEventInfo@@$$QAU2@@Z ; std::_Cons_val<std::allocator<tagAniSoundEventInfo>,tagAniSoundEventInfo,tagAniSoundEventInfo>
;	COMDAT xdata$x
; File c:\program files (x86)\microsoft visual studio 10.0\vc\include\utility
xdata$x	SEGMENT
__unwindtable$??$_Cons_val@V?$allocator@UtagAniSoundEventInfo@@@std@@UtagAniSoundEventInfo@@U3@@std@@YAXAAV?$allocator@UtagAniSoundEventInfo@@@0@PAUtagAniSoundEventInfo@@$$QAU2@@Z DD 0ffffffffH
	DD	FLAT:__unwindfunclet$??$_Cons_val@V?$allocator@UtagAniSoundEventInfo@@@std@@UtagAniSoundEventInfo@@U3@@std@@YAXAAV?$allocator@UtagAniSoundEventInfo@@@0@PAUtagAniSoundEventInfo@@$$QAU2@@Z$0
__ehfuncinfo$??$_Cons_val@V?$allocator@UtagAniSoundEventInfo@@@std@@UtagAniSoundEventInfo@@U3@@std@@YAXAAV?$allocator@UtagAniSoundEventInfo@@@0@PAUtagAniSoundEventInfo@@$$QAU2@@Z DD 019930522H
	DD	01H
	DD	FLAT:__unwindtable$??$_Cons_val@V?$allocator@UtagAniSoundEventInfo@@@std@@UtagAniSoundEventInfo@@U3@@std@@YAXAAV?$allocator@UtagAniSoundEventInfo@@@0@PAUtagAniSoundEventInfo@@$$QAU2@@Z
	DD	2 DUP(00H)
	DD	2 DUP(00H)
	DD	00H
	DD	01H
; Function compile flags: /Ogsp
; File c:\program files (x86)\microsoft visual studio 10.0\vc\include\xmemory
xdata$x	ENDS
;	COMDAT ??$_Cons_val@V?$allocator@UtagAniSoundEventInfo@@@std@@UtagAniSoundEventInfo@@U3@@std@@YAXAAV?$allocator@UtagAniSoundEventInfo@@@0@PAUtagAniSoundEventInfo@@$$QAU2@@Z
_TEXT	SEGMENT
$T533134 = -16						; size = 4
__$EHRec$ = -12						; size = 12
__Alval$ = 8						; size = 4
__Pdest$ = 12						; size = 4
__Src$ = 16						; size = 4
??$_Cons_val@V?$allocator@UtagAniSoundEventInfo@@@std@@UtagAniSoundEventInfo@@U3@@std@@YAXAAV?$allocator@UtagAniSoundEventInfo@@@0@PAUtagAniSoundEventInfo@@$$QAU2@@Z PROC ; std::_Cons_val<std::allocator<tagAniSoundEventInfo>,tagAniSoundEventInfo,tagAniSoundEventInfo>, COMDAT

; 279  : 	{	// construct using allocator

  00000	6a 04		 push	 4
  00002	b8 00 00 00 00	 mov	 eax, __ehhandler$??$_Cons_val@V?$allocator@UtagAniSoundEventInfo@@@std@@UtagAniSoundEventInfo@@U3@@std@@YAXAAV?$allocator@UtagAniSoundEventInfo@@@0@PAUtagAniSoundEventInfo@@$$QAU2@@Z
  00007	e8 00 00 00 00	 call	 __EH_prolog3

; 280  : 	_Alval.construct(_Pdest, _STD forward<_Ty2>(_Src));

  0000c	8b 4d 0c	 mov	 ecx, DWORD PTR __Pdest$[ebp]
  0000f	89 4d f0	 mov	 DWORD PTR $T533134[ebp], ecx
  00012	83 65 fc 00	 and	 DWORD PTR __$EHRec$[ebp+8], 0
  00016	85 c9		 test	 ecx, ecx
  00018	74 08		 je	 SHORT $LN7@Cons_val@4
  0001a	ff 75 10	 push	 DWORD PTR __Src$[ebp]
  0001d	e8 00 00 00 00	 call	 ??0tagAniSoundEventInfo@@QAE@ABU0@@Z
$LN7@Cons_val@4:

; 281  : 	}

  00022	e8 00 00 00 00	 call	 __EH_epilog3
  00027	c3		 ret	 0
_TEXT	ENDS
;	COMDAT text$x
text$x	SEGMENT
__unwindfunclet$??$_Cons_val@V?$allocator@UtagAniSoundEventInfo@@@std@@UtagAniSoundEventInfo@@U3@@std@@YAXAAV?$allocator@UtagAniSoundEventInfo@@@0@PAUtagAniSoundEventInfo@@$$QAU2@@Z$0:
  00000	ff 75 0c	 push	 DWORD PTR __Pdest$[ebp]
  00003	ff 75 f0	 push	 DWORD PTR $T533134[ebp]
  00006	e8 00 00 00 00	 call	 ??3@YAXPAX0@Z		; operator delete
  0000b	59		 pop	 ecx
  0000c	59		 pop	 ecx
  0000d	c3		 ret	 0
__ehhandler$??$_Cons_val@V?$allocator@UtagAniSoundEventInfo@@@std@@UtagAniSoundEventInfo@@U3@@std@@YAXAAV?$allocator@UtagAniSoundEventInfo@@@0@PAUtagAniSoundEventInfo@@$$QAU2@@Z:
  0000e	8b 54 24 08	 mov	 edx, DWORD PTR [esp+8]
  00012	8d 42 0c	 lea	 eax, DWORD PTR [edx+12]
  00015	8b 4a ec	 mov	 ecx, DWORD PTR [edx-20]
  00018	33 c8		 xor	 ecx, eax
  0001a	e8 00 00 00 00	 call	 @__security_check_cookie@4
  0001f	b8 00 00 00 00	 mov	 eax, OFFSET __ehfuncinfo$??$_Cons_val@V?$allocator@UtagAniSoundEventInfo@@@std@@UtagAniSoundEventInfo@@U3@@std@@YAXAAV?$allocator@UtagAniSoundEventInfo@@@0@PAUtagAniSoundEventInfo@@$$QAU2@@Z
  00024	e9 00 00 00 00	 jmp	 ___CxxFrameHandler3
text$x	ENDS
??$_Cons_val@V?$allocator@UtagAniSoundEventInfo@@@std@@UtagAniSoundEventInfo@@U3@@std@@YAXAAV?$allocator@UtagAniSoundEventInfo@@@0@PAUtagAniSoundEventInfo@@$$QAU2@@Z ENDP ; std::_Cons_val<std::allocator<tagAniSoundEventInfo>,tagAniSoundEventInfo,tagAniSoundEventInfo>
PUBLIC	?_Tidy@?$basic_string@DU?$char_traits@D@std@@V?$allocator@D@2@@std@@QAEX_NI@Z ; std::basic_string<char,std::char_traits<char>,std::allocator<char> >::_Tidy
; Function compile flags: /Ogsp
; File c:\program files (x86)\microsoft visual studio 10.0\vc\include\xstring
;	COMDAT ?_Tidy@?$basic_string@DU?$char_traits@D@std@@V?$allocator@D@2@@std@@QAEX_NI@Z
_TEXT	SEGMENT
__Built$ = 8						; size = 1
__Newsize$ = 12						; size = 4
?_Tidy@?$basic_string@DU?$char_traits@D@std@@V?$allocator@D@2@@std@@QAEX_NI@Z PROC ; std::basic_string<char,std::char_traits<char>,std::allocator<char> >::_Tidy, COMDAT
; _this$ = ecx

; 1988 : 		{	// initialize buffer, deallocating any storage

  00000	55		 push	 ebp
  00001	8b ec		 mov	 ebp, esp

; 1989 : 		if (!_Built)

  00003	80 7d 08 00	 cmp	 BYTE PTR __Built$[ebp], 0
  00007	56		 push	 esi
  00008	57		 push	 edi
  00009	8b 7d 0c	 mov	 edi, DWORD PTR __Newsize$[ebp]
  0000c	8b f1		 mov	 esi, ecx
  0000e	74 20		 je	 SHORT $LN9@Tidy

; 1990 : 			;
; 1991 : 		else if (this->_BUF_SIZE <= this->_Myres)

  00010	83 7e 14 10	 cmp	 DWORD PTR [esi+20], 16	; 00000010H
  00014	72 1a		 jb	 SHORT $LN9@Tidy

; 1992 : 			{	// copy any leftovers to small buffer and deallocate
; 1993 : 			_Elem *_Ptr = this->_Bx._Ptr;

  00016	53		 push	 ebx
  00017	8b 1e		 mov	 ebx, DWORD PTR [esi]

; 1994 : 			if (0 < _Newsize)

  00019	85 ff		 test	 edi, edi
  0001b	74 0b		 je	 SHORT $LN7@Tidy

; 1995 : 				_Traits::copy(this->_Bx._Buf, _Ptr, _Newsize);

  0001d	57		 push	 edi
  0001e	53		 push	 ebx
  0001f	56		 push	 esi
  00020	e8 00 00 00 00	 call	 _memcpy
  00025	83 c4 0c	 add	 esp, 12			; 0000000cH
$LN7@Tidy:

; 1996 : 			this->_Alval.deallocate(_Ptr, this->_Myres + 1);

  00028	53		 push	 ebx
  00029	e8 00 00 00 00	 call	 ??3@YAXPAX@Z		; operator delete
  0002e	59		 pop	 ecx
  0002f	5b		 pop	 ebx
$LN9@Tidy:

; 1997 : 			}
; 1998 : 		this->_Myres = this->_BUF_SIZE - 1;
; 1999 : 		_Eos(_Newsize);

  00030	89 7e 10	 mov	 DWORD PTR [esi+16], edi
  00033	c7 46 14 0f 00
	00 00		 mov	 DWORD PTR [esi+20], 15	; 0000000fH
  0003a	c6 04 37 00	 mov	 BYTE PTR [edi+esi], 0
  0003e	5f		 pop	 edi
  0003f	5e		 pop	 esi

; 2000 : 		}

  00040	5d		 pop	 ebp
  00041	c2 08 00	 ret	 8
?_Tidy@?$basic_string@DU?$char_traits@D@std@@V?$allocator@D@2@@std@@QAEX_NI@Z ENDP ; std::basic_string<char,std::char_traits<char>,std::allocator<char> >::_Tidy
_TEXT	ENDS
PUBLIC	?erase@?$basic_string@DU?$char_traits@D@std@@V?$allocator@D@2@@std@@QAEAAV12@II@Z ; std::basic_string<char,std::char_traits<char>,std::allocator<char> >::erase
; Function compile flags: /Ogsp
;	COMDAT ?erase@?$basic_string@DU?$char_traits@D@std@@V?$allocator@D@2@@std@@QAEAAV12@II@Z
_TEXT	SEGMENT
__Off$ = 8						; size = 4
__Count$ = 12						; size = 4
?erase@?$basic_string@DU?$char_traits@D@std@@V?$allocator@D@2@@std@@QAEAAV12@II@Z PROC ; std::basic_string<char,std::char_traits<char>,std::allocator<char> >::erase, COMDAT
; _this$ = ecx

; 1109 : 		{	// erase elements [_Off, _Off + _Count)

  00000	55		 push	 ebp
  00001	8b ec		 mov	 ebp, esp
  00003	53		 push	 ebx
  00004	56		 push	 esi
  00005	8b f1		 mov	 esi, ecx

; 1110 : 		if (this->_Mysize < _Off)

  00007	8b 46 10	 mov	 eax, DWORD PTR [esi+16]
  0000a	8b 4d 08	 mov	 ecx, DWORD PTR __Off$[ebp]
  0000d	3b c1		 cmp	 eax, ecx
  0000f	73 0b		 jae	 SHORT $LN3@erase

; 1111 : 			_Xran();	// _Off off end

  00011	68 00 00 00 00	 push	 OFFSET ??_C@_0BI@CFPLBAOH@invalid?5string?5position?$AA@
  00016	ff 15 00 00 00
	00		 call	 DWORD PTR __imp_?_Xout_of_range@std@@YAXPBD@Z
$LN28@erase:
$LN3@erase:

; 1112 : 		if (this->_Mysize - _Off < _Count)

  0001c	8b 5d 0c	 mov	 ebx, DWORD PTR __Count$[ebp]
  0001f	2b c1		 sub	 eax, ecx
  00021	3b c3		 cmp	 eax, ebx

; 1113 : 			_Count = this->_Mysize - _Off;	// trim _Count

  00023	0f 42 d8	 cmovb	 ebx, eax

; 1114 : 		if (0 < _Count)

  00026	85 db		 test	 ebx, ebx
  00028	74 47		 je	 SHORT $LN25@erase

; 1115 : 			{	// move elements down
; 1116 : 			_Traits::move(_Myptr() + _Off, _Myptr() + _Off + _Count,
; 1117 : 				this->_Mysize - _Off - _Count);

  0002a	8b 56 14	 mov	 edx, DWORD PTR [esi+20]
  0002d	57		 push	 edi
  0002e	83 fa 10	 cmp	 edx, 16			; 00000010H
  00031	72 04		 jb	 SHORT $LN11@erase
  00033	8b 3e		 mov	 edi, DWORD PTR [esi]
  00035	eb 02		 jmp	 SHORT $LN12@erase
$LN11@erase:
  00037	8b fe		 mov	 edi, esi
$LN12@erase:
  00039	83 fa 10	 cmp	 edx, 16			; 00000010H
  0003c	72 04		 jb	 SHORT $LN15@erase
  0003e	8b 16		 mov	 edx, DWORD PTR [esi]
  00040	eb 02		 jmp	 SHORT $LN16@erase
$LN15@erase:
  00042	8b d6		 mov	 edx, esi
$LN16@erase:
  00044	2b c3		 sub	 eax, ebx
  00046	03 f9		 add	 edi, ecx
  00048	50		 push	 eax
  00049	03 fb		 add	 edi, ebx
  0004b	03 d1		 add	 edx, ecx
  0004d	57		 push	 edi
  0004e	52		 push	 edx
  0004f	ff 15 00 00 00
	00		 call	 DWORD PTR __imp__memmove

; 1118 : 			size_type _Newsize = this->_Mysize - _Count;

  00055	8b 46 10	 mov	 eax, DWORD PTR [esi+16]
  00058	83 c4 0c	 add	 esp, 12			; 0000000cH
  0005b	2b c3		 sub	 eax, ebx

; 1119 : 			_Eos(_Newsize);

  0005d	83 7e 14 10	 cmp	 DWORD PTR [esi+20], 16	; 00000010H
  00061	89 46 10	 mov	 DWORD PTR [esi+16], eax
  00064	5f		 pop	 edi
  00065	72 04		 jb	 SHORT $LN23@erase
  00067	8b 0e		 mov	 ecx, DWORD PTR [esi]
  00069	eb 02		 jmp	 SHORT $LN24@erase
$LN23@erase:
  0006b	8b ce		 mov	 ecx, esi
$LN24@erase:
  0006d	c6 04 01 00	 mov	 BYTE PTR [ecx+eax], 0
$LN25@erase:

; 1120 : 			}
; 1121 : 		return (*this);

  00071	8b c6		 mov	 eax, esi
  00073	5e		 pop	 esi
  00074	5b		 pop	 ebx

; 1122 : 		}

  00075	5d		 pop	 ebp
  00076	c2 08 00	 ret	 8
$LN27@erase:
?erase@?$basic_string@DU?$char_traits@D@std@@V?$allocator@D@2@@std@@QAEAAV12@II@Z ENDP ; std::basic_string<char,std::char_traits<char>,std::allocator<char> >::erase
_TEXT	ENDS
PUBLIC	?_Copy@?$basic_string@DU?$char_traits@D@std@@V?$allocator@D@2@@std@@QAEXII@Z ; std::basic_string<char,std::char_traits<char>,std::allocator<char> >::_Copy
EXTRN	__EH_prolog3_catch:PROC
;	COMDAT xdata$x
; File c:\program files (x86)\microsoft visual studio 10.0\vc\include\iosfwd
xdata$x	SEGMENT
__catchsym$?_Copy@?$basic_string@DU?$char_traits@D@std@@V?$allocator@D@2@@std@@QAEXII@Z$5 DD 040H
	DD	00H
	DD	00H
	DD	FLAT:__catch$?_Copy@?$basic_string@DU?$char_traits@D@std@@V?$allocator@D@2@@std@@QAEXII@Z$0
__catchsym$?_Copy@?$basic_string@DU?$char_traits@D@std@@V?$allocator@D@2@@std@@QAEXII@Z$4 DD 040H
	DD	00H
	DD	00H
	DD	FLAT:__catch$?_Copy@?$basic_string@DU?$char_traits@D@std@@V?$allocator@D@2@@std@@QAEXII@Z$1
__unwindtable$?_Copy@?$basic_string@DU?$char_traits@D@std@@V?$allocator@D@2@@std@@QAEXII@Z DD 0ffffffffH
	DD	00H
	DD	0ffffffffH
	DD	00H
	DD	01H
	DD	00H
	DD	01H
	DD	00H
__ehfuncinfo$?_Copy@?$basic_string@DU?$char_traits@D@std@@V?$allocator@D@2@@std@@QAEXII@Z DD 019930522H
	DD	04H
	DD	FLAT:__unwindtable$?_Copy@?$basic_string@DU?$char_traits@D@std@@V?$allocator@D@2@@std@@QAEXII@Z
	DD	02H
	DD	FLAT:__tryblocktable$?_Copy@?$basic_string@DU?$char_traits@D@std@@V?$allocator@D@2@@std@@QAEXII@Z
	DD	2 DUP(00H)
	DD	00H
	DD	01H
__tryblocktable$?_Copy@?$basic_string@DU?$char_traits@D@std@@V?$allocator@D@2@@std@@QAEXII@Z DD 02H
	DD	02H
	DD	03H
	DD	01H
	DD	FLAT:__catchsym$?_Copy@?$basic_string@DU?$char_traits@D@std@@V?$allocator@D@2@@std@@QAEXII@Z$4
	DD	00H
	DD	00H
	DD	03H
	DD	01H
	DD	FLAT:__catchsym$?_Copy@?$basic_string@DU?$char_traits@D@std@@V?$allocator@D@2@@std@@QAEXII@Z$5
; Function compile flags: /Ogsp
; File c:\program files (x86)\microsoft visual studio 10.0\vc\include\xstring
xdata$x	ENDS
;	COMDAT ?_Copy@?$basic_string@DU?$char_traits@D@std@@V?$allocator@D@2@@std@@QAEXII@Z
_TEXT	SEGMENT
_this$ = -24						; size = 4
tv296 = -20						; size = 4
__Newres$ = -20						; size = 4
__$EHRec$ = -16						; size = 16
__Ptr$ = 8						; size = 4
__Newsize$ = 8						; size = 4
__Oldlen$ = 12						; size = 4
?_Copy@?$basic_string@DU?$char_traits@D@std@@V?$allocator@D@2@@std@@QAEXII@Z PROC ; std::basic_string<char,std::char_traits<char>,std::allocator<char> >::_Copy, COMDAT
; _this$ = ecx

; 1919 : 		{	// copy _Oldlen elements to newly allocated buffer

  00000	6a 0c		 push	 12			; 0000000cH
  00002	b8 00 00 00 00	 mov	 eax, __ehhandler$?_Copy@?$basic_string@DU?$char_traits@D@std@@V?$allocator@D@2@@std@@QAEXII@Z
  00007	e8 00 00 00 00	 call	 __EH_prolog3_catch
  0000c	8b f1		 mov	 esi, ecx
  0000e	89 75 e8	 mov	 DWORD PTR _this$[ebp], esi

; 1920 : 		size_type _Newres = _Newsize | this->_ALLOC_MASK;

  00011	8b 7d 08	 mov	 edi, DWORD PTR __Newsize$[ebp]
  00014	83 cf 0f	 or	 edi, 15			; 0000000fH

; 1921 : 		if (max_size() < _Newres)

  00017	83 ff fe	 cmp	 edi, -2			; fffffffeH
  0001a	76 05		 jbe	 SHORT $LN9@Copy

; 1922 : 			_Newres = _Newsize;	// undo roundup if too big

  0001c	8b 7d 08	 mov	 edi, DWORD PTR __Newsize$[ebp]
  0001f	eb 27		 jmp	 SHORT $LN5@Copy
$LN9@Copy:

; 1923 : 		else if (this->_Myres / 2 <= _Newres / 3)

  00021	33 d2		 xor	 edx, edx
  00023	6a 03		 push	 3
  00025	8b c7		 mov	 eax, edi
  00027	5b		 pop	 ebx
  00028	f7 f3		 div	 ebx
  0002a	8b 4e 14	 mov	 ecx, DWORD PTR [esi+20]
  0002d	89 4d ec	 mov	 DWORD PTR tv296[ebp], ecx
  00030	d1 6d ec	 shr	 DWORD PTR tv296[ebp], 1
  00033	8b 55 ec	 mov	 edx, DWORD PTR tv296[ebp]
  00036	3b d0		 cmp	 edx, eax
  00038	76 0e		 jbe	 SHORT $LN5@Copy

; 1924 : 			;
; 1925 : 		else if (this->_Myres <= max_size() - this->_Myres / 2)

  0003a	6a fe		 push	 -2			; fffffffeH
  0003c	5f		 pop	 edi
  0003d	8b c7		 mov	 eax, edi
  0003f	2b c2		 sub	 eax, edx
  00041	3b c8		 cmp	 ecx, eax
  00043	77 03		 ja	 SHORT $LN5@Copy

; 1926 : 			_Newres = this->_Myres
; 1927 : 				+ this->_Myres / 2;	// grow exponentially if possible

  00045	8d 3c 0a	 lea	 edi, DWORD PTR [edx+ecx]
$LN5@Copy:

; 1928 : 		else
; 1929 : 			_Newres = max_size();	// settle for max_size()
; 1930 : 
; 1931 : 		_Elem *_Ptr;
; 1932 : 		_TRY_BEGIN

  00048	83 65 fc 00	 and	 DWORD PTR __$EHRec$[ebp+12], 0

; 1933 : 			_Ptr = this->_Alval.allocate(_Newres + 1);

  0004c	8d 47 01	 lea	 eax, DWORD PTR [edi+1]
  0004f	6a 00		 push	 0
  00051	50		 push	 eax
  00052	e8 00 00 00 00	 call	 ??$_Allocate@D@std@@YAPADIPAD@Z ; std::_Allocate<char>
  00057	59		 pop	 ecx
  00058	59		 pop	 ecx
  00059	89 45 08	 mov	 DWORD PTR __Ptr$[ebp], eax
  0005c	eb 27		 jmp	 SHORT $LN19@Copy
__catch$?_Copy@?$basic_string@DU?$char_traits@D@std@@V?$allocator@D@2@@std@@QAEXII@Z$0:

; 1934 : 		_CATCH_ALL
; 1935 : 			_Newres = _Newsize;	// allocation failed, undo roundup and retry

  0005e	8b 45 08	 mov	 eax, DWORD PTR __Newsize$[ebp]
  00061	89 65 f0	 mov	 DWORD PTR __$EHRec$[ebp], esp
  00064	89 45 ec	 mov	 DWORD PTR __Newres$[ebp], eax

; 1936 : 			_TRY_BEGIN
; 1937 : 				_Ptr = this->_Alval.allocate(_Newres + 1);

  00067	40		 inc	 eax
  00068	6a 00		 push	 0
  0006a	50		 push	 eax
  0006b	c6 45 fc 02	 mov	 BYTE PTR __$EHRec$[ebp+12], 2
  0006f	e8 00 00 00 00	 call	 ??$_Allocate@D@std@@YAPADIPAD@Z ; std::_Allocate<char>
  00074	59		 pop	 ecx
  00075	89 45 08	 mov	 DWORD PTR __Ptr$[ebp], eax
  00078	59		 pop	 ecx

; 1941 : 			_CATCH_END
; 1942 : 		_CATCH_END

  00079	b8 00 00 00 00	 mov	 eax, $LN63@Copy
  0007e	c3		 ret	 0
$LN63@Copy:
  0007f	8b 75 e8	 mov	 esi, DWORD PTR _this$[ebp]
  00082	8b 7d ec	 mov	 edi, DWORD PTR __Newres$[ebp]
$LN19@Copy:

; 1943 : 
; 1944 : 		if (0 < _Oldlen)

  00085	8b 5d 0c	 mov	 ebx, DWORD PTR __Oldlen$[ebp]
  00088	85 db		 test	 ebx, ebx
  0008a	74 19		 je	 SHORT $LN52@Copy

; 1945 : 			_Traits::copy(_Ptr, _Myptr(), _Oldlen);	// copy existing elements

  0008c	83 7e 14 10	 cmp	 DWORD PTR [esi+20], 16	; 00000010H
  00090	72 04		 jb	 SHORT $LN50@Copy
  00092	8b 06		 mov	 eax, DWORD PTR [esi]
  00094	eb 02		 jmp	 SHORT $LN51@Copy
$LN50@Copy:
  00096	8b c6		 mov	 eax, esi
$LN51@Copy:
  00098	53		 push	 ebx
  00099	50		 push	 eax
  0009a	ff 75 08	 push	 DWORD PTR __Ptr$[ebp]
  0009d	e8 00 00 00 00	 call	 _memcpy
  000a2	83 c4 0c	 add	 esp, 12			; 0000000cH
$LN52@Copy:

; 1946 : 		_Tidy(true);

  000a5	6a 00		 push	 0
  000a7	6a 01		 push	 1
  000a9	8b ce		 mov	 ecx, esi
  000ab	e8 00 00 00 00	 call	 ?_Tidy@?$basic_string@DU?$char_traits@D@std@@V?$allocator@D@2@@std@@QAEX_NI@Z ; std::basic_string<char,std::char_traits<char>,std::allocator<char> >::_Tidy

; 1947 : 		this->_Bx._Ptr = _Ptr;

  000b0	8b 45 08	 mov	 eax, DWORD PTR __Ptr$[ebp]
  000b3	89 06		 mov	 DWORD PTR [esi], eax

; 1948 : 		this->_Myres = _Newres;
; 1949 : 		_Eos(_Oldlen);

  000b5	83 ff 10	 cmp	 edi, 16			; 00000010H
  000b8	89 7e 14	 mov	 DWORD PTR [esi+20], edi
  000bb	89 5e 10	 mov	 DWORD PTR [esi+16], ebx
  000be	0f 42 c6	 cmovb	 eax, esi
  000c1	c6 04 18 00	 mov	 BYTE PTR [eax+ebx], 0

; 1950 : 		}

  000c5	e8 00 00 00 00	 call	 __EH_epilog3
  000ca	c2 08 00	 ret	 8
__catch$?_Copy@?$basic_string@DU?$char_traits@D@std@@V?$allocator@D@2@@std@@QAEXII@Z$1:

; 1938 : 			_CATCH_ALL
; 1939 : 			_Tidy(true);	// failed again, discard storage and reraise

  000cd	8b 4d e8	 mov	 ecx, DWORD PTR _this$[ebp]
  000d0	33 f6		 xor	 esi, esi
  000d2	56		 push	 esi
  000d3	6a 01		 push	 1
  000d5	e8 00 00 00 00	 call	 ?_Tidy@?$basic_string@DU?$char_traits@D@std@@V?$allocator@D@2@@std@@QAEX_NI@Z ; std::basic_string<char,std::char_traits<char>,std::allocator<char> >::_Tidy

; 1940 : 			_RERAISE;

  000da	56		 push	 esi
  000db	56		 push	 esi
  000dc	e8 00 00 00 00	 call	 __CxxThrowException@8
$LN67@Copy:
$LN66@Copy:
  000e1	cc		 int	 3
_TEXT	ENDS
;	COMDAT text$x
text$x	SEGMENT
__ehhandler$?_Copy@?$basic_string@DU?$char_traits@D@std@@V?$allocator@D@2@@std@@QAEXII@Z:
  00000	8b 54 24 08	 mov	 edx, DWORD PTR [esp+8]
  00004	8d 42 0c	 lea	 eax, DWORD PTR [edx+12]
  00007	8b 4a e4	 mov	 ecx, DWORD PTR [edx-28]
  0000a	33 c8		 xor	 ecx, eax
  0000c	e8 00 00 00 00	 call	 @__security_check_cookie@4
  00011	b8 00 00 00 00	 mov	 eax, OFFSET __ehfuncinfo$?_Copy@?$basic_string@DU?$char_traits@D@std@@V?$allocator@D@2@@std@@QAEXII@Z
  00016	e9 00 00 00 00	 jmp	 ___CxxFrameHandler3
text$x	ENDS
?_Copy@?$basic_string@DU?$char_traits@D@std@@V?$allocator@D@2@@std@@QAEXII@Z ENDP ; std::basic_string<char,std::char_traits<char>,std::allocator<char> >::_Copy
PUBLIC	?begin@?$list@PBVioMeshControlPoint@@V?$allocator@PBVioMeshControlPoint@@@std@@@std@@QAE?AV?$_List_iterator@V?$_List_val@PBVioMeshControlPoint@@V?$allocator@PBVioMeshControlPoint@@@std@@@std@@@2@XZ ; std::list<ioMeshControlPoint const *,std::allocator<ioMeshControlPoint const *> >::begin
; Function compile flags: /Ogsp
; File c:\program files (x86)\microsoft visual studio 10.0\vc\include\list
;	COMDAT ?begin@?$list@PBVioMeshControlPoint@@V?$allocator@PBVioMeshControlPoint@@@std@@@std@@QAE?AV?$_List_iterator@V?$_List_val@PBVioMeshControlPoint@@V?$allocator@PBVioMeshControlPoint@@@std@@@std@@@2@XZ
_TEXT	SEGMENT
___$ReturnUdt$ = 8					; size = 4
?begin@?$list@PBVioMeshControlPoint@@V?$allocator@PBVioMeshControlPoint@@@std@@@std@@QAE?AV?$_List_iterator@V?$_List_val@PBVioMeshControlPoint@@V?$allocator@PBVioMeshControlPoint@@@std@@@std@@@2@XZ PROC ; std::list<ioMeshControlPoint const *,std::allocator<ioMeshControlPoint const *> >::begin, COMDAT
; _this$ = ecx

; 781  : 		{	// return iterator for beginning of mutable sequence

  00000	55		 push	 ebp
  00001	8b ec		 mov	 ebp, esp

; 782  : 		return (iterator(this->_Nextnode(this->_Myhead), this));

  00003	8b 01		 mov	 eax, DWORD PTR [ecx]
  00005	8b 08		 mov	 ecx, DWORD PTR [eax]
  00007	8b 45 08	 mov	 eax, DWORD PTR ___$ReturnUdt$[ebp]
  0000a	89 08		 mov	 DWORD PTR [eax], ecx

; 783  : 		}

  0000c	5d		 pop	 ebp
  0000d	c2 04 00	 ret	 4
?begin@?$list@PBVioMeshControlPoint@@V?$allocator@PBVioMeshControlPoint@@@std@@@std@@QAE?AV?$_List_iterator@V?$_List_val@PBVioMeshControlPoint@@V?$allocator@PBVioMeshControlPoint@@@std@@@std@@@2@XZ ENDP ; std::list<ioMeshControlPoint const *,std::allocator<ioMeshControlPoint const *> >::begin
_TEXT	ENDS
PUBLIC	?end@?$list@PBVioMeshControlPoint@@V?$allocator@PBVioMeshControlPoint@@@std@@@std@@QAE?AV?$_List_iterator@V?$_List_val@PBVioMeshControlPoint@@V?$allocator@PBVioMeshControlPoint@@@std@@@std@@@2@XZ ; std::list<ioMeshControlPoint const *,std::allocator<ioMeshControlPoint const *> >::end
; Function compile flags: /Ogsp
;	COMDAT ?end@?$list@PBVioMeshControlPoint@@V?$allocator@PBVioMeshControlPoint@@@std@@@std@@QAE?AV?$_List_iterator@V?$_List_val@PBVioMeshControlPoint@@V?$allocator@PBVioMeshControlPoint@@@std@@@std@@@2@XZ
_TEXT	SEGMENT
___$ReturnUdt$ = 8					; size = 4
?end@?$list@PBVioMeshControlPoint@@V?$allocator@PBVioMeshControlPoint@@@std@@@std@@QAE?AV?$_List_iterator@V?$_List_val@PBVioMeshControlPoint@@V?$allocator@PBVioMeshControlPoint@@@std@@@std@@@2@XZ PROC ; std::list<ioMeshControlPoint const *,std::allocator<ioMeshControlPoint const *> >::end, COMDAT
; _this$ = ecx

; 791  : 		{	// return iterator for end of mutable sequence

  00000	55		 push	 ebp
  00001	8b ec		 mov	 ebp, esp

; 792  : 		return (iterator(this->_Myhead, this));

  00003	8b 09		 mov	 ecx, DWORD PTR [ecx]
  00005	8b 45 08	 mov	 eax, DWORD PTR ___$ReturnUdt$[ebp]
  00008	89 08		 mov	 DWORD PTR [eax], ecx

; 793  : 		}

  0000a	5d		 pop	 ebp
  0000b	c2 04 00	 ret	 4
?end@?$list@PBVioMeshControlPoint@@V?$allocator@PBVioMeshControlPoint@@@std@@@std@@QAE?AV?$_List_iterator@V?$_List_val@PBVioMeshControlPoint@@V?$allocator@PBVioMeshControlPoint@@@std@@@std@@@2@XZ ENDP ; std::list<ioMeshControlPoint const *,std::allocator<ioMeshControlPoint const *> >::end
_TEXT	ENDS
PUBLIC	?clear@?$list@PBVioMeshControlPoint@@V?$allocator@PBVioMeshControlPoint@@@std@@@std@@QAEXXZ ; std::list<ioMeshControlPoint const *,std::allocator<ioMeshControlPoint const *> >::clear
; Function compile flags: /Ogsp
;	COMDAT ?clear@?$list@PBVioMeshControlPoint@@V?$allocator@PBVioMeshControlPoint@@@std@@@std@@QAEXXZ
_TEXT	SEGMENT
?clear@?$list@PBVioMeshControlPoint@@V?$allocator@PBVioMeshControlPoint@@@std@@@std@@QAEXXZ PROC ; std::list<ioMeshControlPoint const *,std::allocator<ioMeshControlPoint const *> >::clear, COMDAT
; _this$ = ecx

; 1096 : 		{	// erase all

  00000	56		 push	 esi
  00001	8b f1		 mov	 esi, ecx

; 1097 :  #if _ITERATOR_DEBUG_LEVEL == 2
; 1098 : 		this->_Orphan_ptr(*this, 0);
; 1099 :  #endif /* _ITERATOR_DEBUG_LEVEL == 2 */
; 1100 : 
; 1101 : 		_Nodeptr _Pnext;
; 1102 : 		_Nodeptr _Pnode = this->_Nextnode(this->_Myhead);

  00003	8b 06		 mov	 eax, DWORD PTR [esi]
  00005	8b 08		 mov	 ecx, DWORD PTR [eax]

; 1103 : 		this->_Nextnode(this->_Myhead) = this->_Myhead;

  00007	89 00		 mov	 DWORD PTR [eax], eax

; 1104 : 		this->_Prevnode(this->_Myhead) = this->_Myhead;

  00009	8b 06		 mov	 eax, DWORD PTR [esi]
  0000b	89 40 04	 mov	 DWORD PTR [eax+4], eax

; 1105 : 		this->_Mysize = 0;

  0000e	83 66 04 00	 and	 DWORD PTR [esi+4], 0

; 1106 : 
; 1107 : 		for (; _Pnode != this->_Myhead; _Pnode = _Pnext)

  00012	3b 0e		 cmp	 ecx, DWORD PTR [esi]
  00014	74 11		 je	 SHORT $LN1@clear
  00016	57		 push	 edi
$LL3@clear:

; 1108 : 			{	// delete an element
; 1109 : 			_Pnext = this->_Nextnode(_Pnode);

  00017	8b 39		 mov	 edi, DWORD PTR [ecx]

; 1110 : 
; 1111 : 			_Dest_val(this->_Alnod, _Pnode);
; 1112 : 			this->_Alnod.deallocate(_Pnode, 1);

  00019	51		 push	 ecx
  0001a	e8 00 00 00 00	 call	 ??3@YAXPAX@Z		; operator delete
  0001f	59		 pop	 ecx
  00020	8b cf		 mov	 ecx, edi
  00022	3b 3e		 cmp	 edi, DWORD PTR [esi]
  00024	75 f1		 jne	 SHORT $LL3@clear
  00026	5f		 pop	 edi
$LN1@clear:
  00027	5e		 pop	 esi

; 1113 : 			}
; 1114 : 		}

  00028	c3		 ret	 0
?clear@?$list@PBVioMeshControlPoint@@V?$allocator@PBVioMeshControlPoint@@@std@@@std@@QAEXXZ ENDP ; std::list<ioMeshControlPoint const *,std::allocator<ioMeshControlPoint const *> >::clear
_TEXT	ENDS
PUBLIC	??$_Dest_val@V?$allocator@UAniEventInfo@@@std@@UAniEventInfo@@@std@@YAXAAV?$allocator@UAniEventInfo@@@0@PAUAniEventInfo@@@Z ; std::_Dest_val<std::allocator<AniEventInfo>,AniEventInfo>
; Function compile flags: /Ogsp
; File c:\program files (x86)\microsoft visual studio 10.0\vc\include\xmemory
;	COMDAT ??$_Dest_val@V?$allocator@UAniEventInfo@@@std@@UAniEventInfo@@@std@@YAXAAV?$allocator@UAniEventInfo@@@0@PAUAniEventInfo@@@Z
_TEXT	SEGMENT
__Alval$ = 8						; size = 4
__Pdest$ = 12						; size = 4
??$_Dest_val@V?$allocator@UAniEventInfo@@@std@@UAniEventInfo@@@std@@YAXAAV?$allocator@UAniEventInfo@@@0@PAUAniEventInfo@@@Z PROC ; std::_Dest_val<std::allocator<AniEventInfo>,AniEventInfo>, COMDAT

; 286  : 	{	// destroy using allocator

  00000	55		 push	 ebp
  00001	8b ec		 mov	 ebp, esp

; 287  : 	_Alval.destroy(_Pdest);

  00003	8b 4d 0c	 mov	 ecx, DWORD PTR __Pdest$[ebp]

; 288  : 	}

  00006	5d		 pop	 ebp

; 287  : 	_Alval.destroy(_Pdest);

  00007	e9 00 00 00 00	 jmp	 ??1AniEventInfo@@QAE@XZ
??$_Dest_val@V?$allocator@UAniEventInfo@@@std@@UAniEventInfo@@@std@@YAXAAV?$allocator@UAniEventInfo@@@0@PAUAniEventInfo@@@Z ENDP ; std::_Dest_val<std::allocator<AniEventInfo>,AniEventInfo>
_TEXT	ENDS
PUBLIC	??$_Dest_val@V?$allocator@UtagAniSoundEventInfo@@@std@@UtagAniSoundEventInfo@@@std@@YAXAAV?$allocator@UtagAniSoundEventInfo@@@0@PAUtagAniSoundEventInfo@@@Z ; std::_Dest_val<std::allocator<tagAniSoundEventInfo>,tagAniSoundEventInfo>
; Function compile flags: /Ogsp
;	COMDAT ??$_Dest_val@V?$allocator@UtagAniSoundEventInfo@@@std@@UtagAniSoundEventInfo@@@std@@YAXAAV?$allocator@UtagAniSoundEventInfo@@@0@PAUtagAniSoundEventInfo@@@Z
_TEXT	SEGMENT
__Alval$ = 8						; size = 4
__Pdest$ = 12						; size = 4
??$_Dest_val@V?$allocator@UtagAniSoundEventInfo@@@std@@UtagAniSoundEventInfo@@@std@@YAXAAV?$allocator@UtagAniSoundEventInfo@@@0@PAUtagAniSoundEventInfo@@@Z PROC ; std::_Dest_val<std::allocator<tagAniSoundEventInfo>,tagAniSoundEventInfo>, COMDAT

; 286  : 	{	// destroy using allocator

  00000	55		 push	 ebp
  00001	8b ec		 mov	 ebp, esp

; 287  : 	_Alval.destroy(_Pdest);

  00003	8b 4d 0c	 mov	 ecx, DWORD PTR __Pdest$[ebp]

; 288  : 	}

  00006	5d		 pop	 ebp

; 287  : 	_Alval.destroy(_Pdest);

  00007	e9 00 00 00 00	 jmp	 ??1tagAniSoundEventInfo@@QAE@XZ
??$_Dest_val@V?$allocator@UtagAniSoundEventInfo@@@std@@UtagAniSoundEventInfo@@@std@@YAXAAV?$allocator@UtagAniSoundEventInfo@@@0@PAUtagAniSoundEventInfo@@@Z ENDP ; std::_Dest_val<std::allocator<tagAniSoundEventInfo>,tagAniSoundEventInfo>
_TEXT	ENDS
PUBLIC	??$_Uninit_move@PAUAniEventInfo@@PAU1@V?$allocator@UAniEventInfo@@@std@@U1@@std@@YAPAUAniEventInfo@@PAU1@00AAV?$allocator@UAniEventInfo@@@0@0U_Nonscalar_ptr_iterator_tag@0@@Z ; std::_Uninit_move<AniEventInfo *,AniEventInfo *,std::allocator<AniEventInfo>,AniEventInfo>
;	COMDAT xdata$x
; File c:\program files (x86)\microsoft visual studio 10.0\vc\include\vector
xdata$x	SEGMENT
__catchsym$??$_Uninit_move@PAUAniEventInfo@@PAU1@V?$allocator@UAniEventInfo@@@std@@U1@@std@@YAPAUAniEventInfo@@PAU1@00AAV?$allocator@UAniEventInfo@@@0@0U_Nonscalar_ptr_iterator_tag@0@@Z$2 DD 040H
	DD	00H
	DD	00H
	DD	FLAT:__catch$??$_Uninit_move@PAUAniEventInfo@@PAU1@V?$allocator@UAniEventInfo@@@std@@U1@@std@@YAPAUAniEventInfo@@PAU1@00AAV?$allocator@UAniEventInfo@@@0@0U_Nonscalar_ptr_iterator_tag@0@@Z$0
__unwindtable$??$_Uninit_move@PAUAniEventInfo@@PAU1@V?$allocator@UAniEventInfo@@@std@@U1@@std@@YAPAUAniEventInfo@@PAU1@00AAV?$allocator@UAniEventInfo@@@0@0U_Nonscalar_ptr_iterator_tag@0@@Z DD 0ffffffffH
	DD	00H
	DD	0ffffffffH
	DD	00H
__tryblocktable$??$_Uninit_move@PAUAniEventInfo@@PAU1@V?$allocator@UAniEventInfo@@@std@@U1@@std@@YAPAUAniEventInfo@@PAU1@00AAV?$allocator@UAniEventInfo@@@0@0U_Nonscalar_ptr_iterator_tag@0@@Z DD 00H
	DD	00H
	DD	01H
	DD	01H
	DD	FLAT:__catchsym$??$_Uninit_move@PAUAniEventInfo@@PAU1@V?$allocator@UAniEventInfo@@@std@@U1@@std@@YAPAUAniEventInfo@@PAU1@00AAV?$allocator@UAniEventInfo@@@0@0U_Nonscalar_ptr_iterator_tag@0@@Z$2
__ehfuncinfo$??$_Uninit_move@PAUAniEventInfo@@PAU1@V?$allocator@UAniEventInfo@@@std@@U1@@std@@YAPAUAniEventInfo@@PAU1@00AAV?$allocator@UAniEventInfo@@@0@0U_Nonscalar_ptr_iterator_tag@0@@Z DD 019930522H
	DD	02H
	DD	FLAT:__unwindtable$??$_Uninit_move@PAUAniEventInfo@@PAU1@V?$allocator@UAniEventInfo@@@std@@U1@@std@@YAPAUAniEventInfo@@PAU1@00AAV?$allocator@UAniEventInfo@@@0@0U_Nonscalar_ptr_iterator_tag@0@@Z
	DD	01H
	DD	FLAT:__tryblocktable$??$_Uninit_move@PAUAniEventInfo@@PAU1@V?$allocator@UAniEventInfo@@@std@@U1@@std@@YAPAUAniEventInfo@@PAU1@00AAV?$allocator@UAniEventInfo@@@0@0U_Nonscalar_ptr_iterator_tag@0@@Z
	DD	2 DUP(00H)
	DD	00H
	DD	01H
; Function compile flags: /Ogsp
; File c:\program files (x86)\microsoft visual studio 10.0\vc\include\memory
xdata$x	ENDS
;	COMDAT ??$_Uninit_move@PAUAniEventInfo@@PAU1@V?$allocator@UAniEventInfo@@@std@@U1@@std@@YAPAUAniEventInfo@@PAU1@00AAV?$allocator@UAniEventInfo@@@0@0U_Nonscalar_ptr_iterator_tag@0@@Z
_TEXT	SEGMENT
__Next$ = -20						; size = 4
__$EHRec$ = -16						; size = 16
__First$ = 8						; size = 4
__Last$ = 12						; size = 4
__Dest$ = 16						; size = 4
__Al$ = 20						; size = 4
___formal$ = 24						; size = 4
___formal$ = 28						; size = 1
??$_Uninit_move@PAUAniEventInfo@@PAU1@V?$allocator@UAniEventInfo@@@std@@U1@@std@@YAPAUAniEventInfo@@PAU1@00AAV?$allocator@UAniEventInfo@@@0@0U_Nonscalar_ptr_iterator_tag@0@@Z PROC ; std::_Uninit_move<AniEventInfo *,AniEventInfo *,std::allocator<AniEventInfo>,AniEventInfo>, COMDAT

; 424  : 	{	// move [_First, _Last) to raw _Dest, using _Al, arbitrary type

  00000	6a 08		 push	 8
  00002	b8 00 00 00 00	 mov	 eax, __ehhandler$??$_Uninit_move@PAUAniEventInfo@@PAU1@V?$allocator@UAniEventInfo@@@std@@U1@@std@@YAPAUAniEventInfo@@PAU1@00AAV?$allocator@UAniEventInfo@@@0@0U_Nonscalar_ptr_iterator_tag@0@@Z
  00007	e8 00 00 00 00	 call	 __EH_prolog3_catch

; 425  : 	_DEBUG_RANGE(_First, _Last);
; 426  : 	_DEBUG_POINTER(_Dest);
; 427  : 	_FwdIt _Next = _Dest;

  0000c	8b 45 10	 mov	 eax, DWORD PTR __Dest$[ebp]

; 428  : 
; 429  : 	_TRY_BEGIN

  0000f	83 65 fc 00	 and	 DWORD PTR __$EHRec$[ebp+12], 0
  00013	8b 75 08	 mov	 esi, DWORD PTR __First$[ebp]
  00016	89 45 ec	 mov	 DWORD PTR __Next$[ebp], eax
$LL6@Uninit_mov:

; 430  : 	for (; _First != _Last; ++_Dest, ++_First)

  00019	3b 75 0c	 cmp	 esi, DWORD PTR __Last$[ebp]
  0001c	74 35		 je	 SHORT $LN4@Uninit_mov

; 431  : 		_Cons_val(_Al, _Dest, (_Valty &&)*_First);

  0001e	56		 push	 esi
  0001f	ff 75 10	 push	 DWORD PTR __Dest$[ebp]
  00022	ff 75 14	 push	 DWORD PTR __Al$[ebp]
  00025	e8 00 00 00 00	 call	 ??$_Cons_val@V?$allocator@UAniEventInfo@@@std@@UAniEventInfo@@U3@@std@@YAXAAV?$allocator@UAniEventInfo@@@0@PAUAniEventInfo@@$$QAU2@@Z ; std::_Cons_val<std::allocator<AniEventInfo>,AniEventInfo,AniEventInfo>
  0002a	83 45 10 20	 add	 DWORD PTR __Dest$[ebp], 32 ; 00000020H
  0002e	83 c4 0c	 add	 esp, 12			; 0000000cH
  00031	83 c6 20	 add	 esi, 32			; 00000020H
  00034	eb e3		 jmp	 SHORT $LL6@Uninit_mov
__catch$??$_Uninit_move@PAUAniEventInfo@@PAU1@V?$allocator@UAniEventInfo@@@std@@U1@@std@@YAPAUAniEventInfo@@PAU1@00AAV?$allocator@UAniEventInfo@@@0@0U_Nonscalar_ptr_iterator_tag@0@@Z$0:

; 432  : 	_CATCH_ALL
; 433  : 	for (; _Next != _Dest; ++_Next)

  00036	8b 75 ec	 mov	 esi, DWORD PTR __Next$[ebp]
  00039	eb 0a		 jmp	 SHORT $LN29@Uninit_mov
$LL3@Uninit_mov:

; 434  : 		_Dest_val(_Al, _Next);

  0003b	8b ce		 mov	 ecx, esi
  0003d	e8 00 00 00 00	 call	 ??1AniEventInfo@@QAE@XZ
  00042	83 c6 20	 add	 esi, 32			; 00000020H
$LN29@Uninit_mov:

; 432  : 	_CATCH_ALL
; 433  : 	for (; _Next != _Dest; ++_Next)

  00045	3b 75 10	 cmp	 esi, DWORD PTR __Dest$[ebp]
  00048	75 f1		 jne	 SHORT $LL3@Uninit_mov

; 435  : 	_RERAISE;

  0004a	6a 00		 push	 0
  0004c	6a 00		 push	 0
  0004e	e8 00 00 00 00	 call	 __CxxThrowException@8
$LN30@Uninit_mov:
$LN4@Uninit_mov:

; 436  : 	_CATCH_END
; 437  : 	return (_Dest);

  00053	8b 45 10	 mov	 eax, DWORD PTR __Dest$[ebp]

; 438  : 	}

  00056	e8 00 00 00 00	 call	 __EH_epilog3
  0005b	c3		 ret	 0
$LN28@Uninit_mov:
_TEXT	ENDS
;	COMDAT text$x
text$x	SEGMENT
__ehhandler$??$_Uninit_move@PAUAniEventInfo@@PAU1@V?$allocator@UAniEventInfo@@@std@@U1@@std@@YAPAUAniEventInfo@@PAU1@00AAV?$allocator@UAniEventInfo@@@0@0U_Nonscalar_ptr_iterator_tag@0@@Z:
  00000	8b 54 24 08	 mov	 edx, DWORD PTR [esp+8]
  00004	8d 42 0c	 lea	 eax, DWORD PTR [edx+12]
  00007	8b 4a e8	 mov	 ecx, DWORD PTR [edx-24]
  0000a	33 c8		 xor	 ecx, eax
  0000c	e8 00 00 00 00	 call	 @__security_check_cookie@4
  00011	b8 00 00 00 00	 mov	 eax, OFFSET __ehfuncinfo$??$_Uninit_move@PAUAniEventInfo@@PAU1@V?$allocator@UAniEventInfo@@@std@@U1@@std@@YAPAUAniEventInfo@@PAU1@00AAV?$allocator@UAniEventInfo@@@0@0U_Nonscalar_ptr_iterator_tag@0@@Z
  00016	e9 00 00 00 00	 jmp	 ___CxxFrameHandler3
text$x	ENDS
??$_Uninit_move@PAUAniEventInfo@@PAU1@V?$allocator@UAniEventInfo@@@std@@U1@@std@@YAPAUAniEventInfo@@PAU1@00AAV?$allocator@UAniEventInfo@@@0@0U_Nonscalar_ptr_iterator_tag@0@@Z ENDP ; std::_Uninit_move<AniEventInfo *,AniEventInfo *,std::allocator<AniEventInfo>,AniEventInfo>
PUBLIC	??$_Uninit_move@PAUtagAniSoundEventInfo@@PAU1@V?$allocator@UtagAniSoundEventInfo@@@std@@U1@@std@@YAPAUtagAniSoundEventInfo@@PAU1@00AAV?$allocator@UtagAniSoundEventInfo@@@0@0U_Nonscalar_ptr_iterator_tag@0@@Z ; std::_Uninit_move<tagAniSoundEventInfo *,tagAniSoundEventInfo *,std::allocator<tagAniSoundEventInfo>,tagAniSoundEventInfo>
;	COMDAT xdata$x
; File c:\program files (x86)\microsoft visual studio 10.0\vc\include\vector
xdata$x	SEGMENT
__catchsym$??$_Uninit_move@PAUtagAniSoundEventInfo@@PAU1@V?$allocator@UtagAniSoundEventInfo@@@std@@U1@@std@@YAPAUtagAniSoundEventInfo@@PAU1@00AAV?$allocator@UtagAniSoundEventInfo@@@0@0U_Nonscalar_ptr_iterator_tag@0@@Z$2 DD 040H
	DD	00H
	DD	00H
	DD	FLAT:__catch$??$_Uninit_move@PAUtagAniSoundEventInfo@@PAU1@V?$allocator@UtagAniSoundEventInfo@@@std@@U1@@std@@YAPAUtagAniSoundEventInfo@@PAU1@00AAV?$allocator@UtagAniSoundEventInfo@@@0@0U_Nonscalar_ptr_iterator_tag@0@@Z$0
__unwindtable$??$_Uninit_move@PAUtagAniSoundEventInfo@@PAU1@V?$allocator@UtagAniSoundEventInfo@@@std@@U1@@std@@YAPAUtagAniSoundEventInfo@@PAU1@00AAV?$allocator@UtagAniSoundEventInfo@@@0@0U_Nonscalar_ptr_iterator_tag@0@@Z DD 0ffffffffH
	DD	00H
	DD	0ffffffffH
	DD	00H
__tryblocktable$??$_Uninit_move@PAUtagAniSoundEventInfo@@PAU1@V?$allocator@UtagAniSoundEventInfo@@@std@@U1@@std@@YAPAUtagAniSoundEventInfo@@PAU1@00AAV?$allocator@UtagAniSoundEventInfo@@@0@0U_Nonscalar_ptr_iterator_tag@0@@Z DD 00H
	DD	00H
	DD	01H
	DD	01H
	DD	FLAT:__catchsym$??$_Uninit_move@PAUtagAniSoundEventInfo@@PAU1@V?$allocator@UtagAniSoundEventInfo@@@std@@U1@@std@@YAPAUtagAniSoundEventInfo@@PAU1@00AAV?$allocator@UtagAniSoundEventInfo@@@0@0U_Nonscalar_ptr_iterator_tag@0@@Z$2
__ehfuncinfo$??$_Uninit_move@PAUtagAniSoundEventInfo@@PAU1@V?$allocator@UtagAniSoundEventInfo@@@std@@U1@@std@@YAPAUtagAniSoundEventInfo@@PAU1@00AAV?$allocator@UtagAniSoundEventInfo@@@0@0U_Nonscalar_ptr_iterator_tag@0@@Z DD 019930522H
	DD	02H
	DD	FLAT:__unwindtable$??$_Uninit_move@PAUtagAniSoundEventInfo@@PAU1@V?$allocator@UtagAniSoundEventInfo@@@std@@U1@@std@@YAPAUtagAniSoundEventInfo@@PAU1@00AAV?$allocator@UtagAniSoundEventInfo@@@0@0U_Nonscalar_ptr_iterator_tag@0@@Z
	DD	01H
	DD	FLAT:__tryblocktable$??$_Uninit_move@PAUtagAniSoundEventInfo@@PAU1@V?$allocator@UtagAniSoundEventInfo@@@std@@U1@@std@@YAPAUtagAniSoundEventInfo@@PAU1@00AAV?$allocator@UtagAniSoundEventInfo@@@0@0U_Nonscalar_ptr_iterator_tag@0@@Z
	DD	2 DUP(00H)
	DD	00H
	DD	01H
; Function compile flags: /Ogsp
; File c:\program files (x86)\microsoft visual studio 10.0\vc\include\memory
xdata$x	ENDS
;	COMDAT ??$_Uninit_move@PAUtagAniSoundEventInfo@@PAU1@V?$allocator@UtagAniSoundEventInfo@@@std@@U1@@std@@YAPAUtagAniSoundEventInfo@@PAU1@00AAV?$allocator@UtagAniSoundEventInfo@@@0@0U_Nonscalar_ptr_iterator_tag@0@@Z
_TEXT	SEGMENT
__Next$ = -20						; size = 4
__$EHRec$ = -16						; size = 16
__First$ = 8						; size = 4
__Last$ = 12						; size = 4
__Dest$ = 16						; size = 4
__Al$ = 20						; size = 4
___formal$ = 24						; size = 4
___formal$ = 28						; size = 1
??$_Uninit_move@PAUtagAniSoundEventInfo@@PAU1@V?$allocator@UtagAniSoundEventInfo@@@std@@U1@@std@@YAPAUtagAniSoundEventInfo@@PAU1@00AAV?$allocator@UtagAniSoundEventInfo@@@0@0U_Nonscalar_ptr_iterator_tag@0@@Z PROC ; std::_Uninit_move<tagAniSoundEventInfo *,tagAniSoundEventInfo *,std::allocator<tagAniSoundEventInfo>,tagAniSoundEventInfo>, COMDAT

; 424  : 	{	// move [_First, _Last) to raw _Dest, using _Al, arbitrary type

  00000	6a 08		 push	 8
  00002	b8 00 00 00 00	 mov	 eax, __ehhandler$??$_Uninit_move@PAUtagAniSoundEventInfo@@PAU1@V?$allocator@UtagAniSoundEventInfo@@@std@@U1@@std@@YAPAUtagAniSoundEventInfo@@PAU1@00AAV?$allocator@UtagAniSoundEventInfo@@@0@0U_Nonscalar_ptr_iterator_tag@0@@Z
  00007	e8 00 00 00 00	 call	 __EH_prolog3_catch

; 425  : 	_DEBUG_RANGE(_First, _Last);
; 426  : 	_DEBUG_POINTER(_Dest);
; 427  : 	_FwdIt _Next = _Dest;

  0000c	8b 45 10	 mov	 eax, DWORD PTR __Dest$[ebp]

; 428  : 
; 429  : 	_TRY_BEGIN

  0000f	83 65 fc 00	 and	 DWORD PTR __$EHRec$[ebp+12], 0
  00013	8b 75 08	 mov	 esi, DWORD PTR __First$[ebp]
  00016	89 45 ec	 mov	 DWORD PTR __Next$[ebp], eax
$LL6@Uninit_mov@2:

; 430  : 	for (; _First != _Last; ++_Dest, ++_First)

  00019	3b 75 0c	 cmp	 esi, DWORD PTR __Last$[ebp]
  0001c	74 35		 je	 SHORT $LN4@Uninit_mov@2

; 431  : 		_Cons_val(_Al, _Dest, (_Valty &&)*_First);

  0001e	56		 push	 esi
  0001f	ff 75 10	 push	 DWORD PTR __Dest$[ebp]
  00022	ff 75 14	 push	 DWORD PTR __Al$[ebp]
  00025	e8 00 00 00 00	 call	 ??$_Cons_val@V?$allocator@UtagAniSoundEventInfo@@@std@@UtagAniSoundEventInfo@@U3@@std@@YAXAAV?$allocator@UtagAniSoundEventInfo@@@0@PAUtagAniSoundEventInfo@@$$QAU2@@Z ; std::_Cons_val<std::allocator<tagAniSoundEventInfo>,tagAniSoundEventInfo,tagAniSoundEventInfo>
  0002a	83 45 10 24	 add	 DWORD PTR __Dest$[ebp], 36 ; 00000024H
  0002e	83 c4 0c	 add	 esp, 12			; 0000000cH
  00031	83 c6 24	 add	 esi, 36			; 00000024H
  00034	eb e3		 jmp	 SHORT $LL6@Uninit_mov@2
__catch$??$_Uninit_move@PAUtagAniSoundEventInfo@@PAU1@V?$allocator@UtagAniSoundEventInfo@@@std@@U1@@std@@YAPAUtagAniSoundEventInfo@@PAU1@00AAV?$allocator@UtagAniSoundEventInfo@@@0@0U_Nonscalar_ptr_iterator_tag@0@@Z$0:

; 432  : 	_CATCH_ALL
; 433  : 	for (; _Next != _Dest; ++_Next)

  00036	8b 75 ec	 mov	 esi, DWORD PTR __Next$[ebp]
  00039	eb 0a		 jmp	 SHORT $LN29@Uninit_mov@2
$LL3@Uninit_mov@2:

; 434  : 		_Dest_val(_Al, _Next);

  0003b	8b ce		 mov	 ecx, esi
  0003d	e8 00 00 00 00	 call	 ??1tagAniSoundEventInfo@@QAE@XZ
  00042	83 c6 24	 add	 esi, 36			; 00000024H
$LN29@Uninit_mov@2:

; 432  : 	_CATCH_ALL
; 433  : 	for (; _Next != _Dest; ++_Next)

  00045	3b 75 10	 cmp	 esi, DWORD PTR __Dest$[ebp]
  00048	75 f1		 jne	 SHORT $LL3@Uninit_mov@2

; 435  : 	_RERAISE;

  0004a	6a 00		 push	 0
  0004c	6a 00		 push	 0
  0004e	e8 00 00 00 00	 call	 __CxxThrowException@8
$LN30@Uninit_mov@2:
$LN4@Uninit_mov@2:

; 436  : 	_CATCH_END
; 437  : 	return (_Dest);

  00053	8b 45 10	 mov	 eax, DWORD PTR __Dest$[ebp]

; 438  : 	}

  00056	e8 00 00 00 00	 call	 __EH_epilog3
  0005b	c3		 ret	 0
$LN28@Uninit_mov@2:
_TEXT	ENDS
;	COMDAT text$x
text$x	SEGMENT
__ehhandler$??$_Uninit_move@PAUtagAniSoundEventInfo@@PAU1@V?$allocator@UtagAniSoundEventInfo@@@std@@U1@@std@@YAPAUtagAniSoundEventInfo@@PAU1@00AAV?$allocator@UtagAniSoundEventInfo@@@0@0U_Nonscalar_ptr_iterator_tag@0@@Z:
  00000	8b 54 24 08	 mov	 edx, DWORD PTR [esp+8]
  00004	8d 42 0c	 lea	 eax, DWORD PTR [edx+12]
  00007	8b 4a e8	 mov	 ecx, DWORD PTR [edx-24]
  0000a	33 c8		 xor	 ecx, eax
  0000c	e8 00 00 00 00	 call	 @__security_check_cookie@4
  00011	b8 00 00 00 00	 mov	 eax, OFFSET __ehfuncinfo$??$_Uninit_move@PAUtagAniSoundEventInfo@@PAU1@V?$allocator@UtagAniSoundEventInfo@@@std@@U1@@std@@YAPAUtagAniSoundEventInfo@@PAU1@00AAV?$allocator@UtagAniSoundEventInfo@@@0@0U_Nonscalar_ptr_iterator_tag@0@@Z
  00016	e9 00 00 00 00	 jmp	 ___CxxFrameHandler3
text$x	ENDS
??$_Uninit_move@PAUtagAniSoundEventInfo@@PAU1@V?$allocator@UtagAniSoundEventInfo@@@std@@U1@@std@@YAPAUtagAniSoundEventInfo@@PAU1@00AAV?$allocator@UtagAniSoundEventInfo@@@0@0U_Nonscalar_ptr_iterator_tag@0@@Z ENDP ; std::_Uninit_move<tagAniSoundEventInfo *,tagAniSoundEventInfo *,std::allocator<tagAniSoundEventInfo>,tagAniSoundEventInfo>
PUBLIC	??1?$basic_string@DU?$char_traits@D@std@@V?$allocator@D@2@@std@@QAE@XZ ; std::basic_string<char,std::char_traits<char>,std::allocator<char> >::~basic_string<char,std::char_traits<char>,std::allocator<char> >
; Function compile flags: /Ogsp
; File c:\program files (x86)\microsoft visual studio 10.0\vc\include\xstring
;	COMDAT ??1?$basic_string@DU?$char_traits@D@std@@V?$allocator@D@2@@std@@QAE@XZ
_TEXT	SEGMENT
??1?$basic_string@DU?$char_traits@D@std@@V?$allocator@D@2@@std@@QAE@XZ PROC ; std::basic_string<char,std::char_traits<char>,std::allocator<char> >::~basic_string<char,std::char_traits<char>,std::allocator<char> >, COMDAT
; _this$ = ecx

; 754  : 		_Tidy(true);

  00000	6a 00		 push	 0
  00002	6a 01		 push	 1
  00004	e8 00 00 00 00	 call	 ?_Tidy@?$basic_string@DU?$char_traits@D@std@@V?$allocator@D@2@@std@@QAEX_NI@Z ; std::basic_string<char,std::char_traits<char>,std::allocator<char> >::_Tidy

; 755  : 		}

  00009	c3		 ret	 0
??1?$basic_string@DU?$char_traits@D@std@@V?$allocator@D@2@@std@@QAE@XZ ENDP ; std::basic_string<char,std::char_traits<char>,std::allocator<char> >::~basic_string<char,std::char_traits<char>,std::allocator<char> >
_TEXT	ENDS
PUBLIC	?_Grow@?$basic_string@DU?$char_traits@D@std@@V?$allocator@D@2@@std@@QAE_NI_N@Z ; std::basic_string<char,std::char_traits<char>,std::allocator<char> >::_Grow
; Function compile flags: /Ogsp
;	COMDAT ?_Grow@?$basic_string@DU?$char_traits@D@std@@V?$allocator@D@2@@std@@QAE_NI_N@Z
_TEXT	SEGMENT
__Newsize$ = 8						; size = 4
__Trim$ = 12						; size = 1
?_Grow@?$basic_string@DU?$char_traits@D@std@@V?$allocator@D@2@@std@@QAE_NI_N@Z PROC ; std::basic_string<char,std::char_traits<char>,std::allocator<char> >::_Grow, COMDAT
; _this$ = ecx

; 1959 : 		{	// ensure buffer is big enough, trim to size if _Trim is true

  00000	55		 push	 ebp
  00001	8b ec		 mov	 ebp, esp
  00003	56		 push	 esi

; 1960 : 		if (max_size() < _Newsize)

  00004	8b 75 08	 mov	 esi, DWORD PTR __Newsize$[ebp]
  00007	83 fe fe	 cmp	 esi, -2			; fffffffeH
  0000a	76 0b		 jbe	 SHORT $LN6@Grow

; 1961 : 			_Xlen();	// result too long

  0000c	68 00 00 00 00	 push	 OFFSET ??_C@_0BA@JFNIOLAK@string?5too?5long?$AA@
  00011	ff 15 00 00 00
	00		 call	 DWORD PTR __imp_?_Xlength_error@std@@YAXPBD@Z
$LN31@Grow:
$LN6@Grow:

; 1962 : 		if (this->_Myres < _Newsize)

  00017	8b 41 14	 mov	 eax, DWORD PTR [ecx+20]
  0001a	3b c6		 cmp	 eax, esi
  0001c	73 0b		 jae	 SHORT $LN5@Grow

; 1963 : 			_Copy(_Newsize, this->_Mysize);	// reallocate to grow

  0001e	ff 71 10	 push	 DWORD PTR [ecx+16]
  00021	56		 push	 esi
  00022	e8 00 00 00 00	 call	 ?_Copy@?$basic_string@DU?$char_traits@D@std@@V?$allocator@D@2@@std@@QAEXII@Z ; std::basic_string<char,std::char_traits<char>,std::allocator<char> >::_Copy
  00027	eb 2e		 jmp	 SHORT $LN28@Grow
$LN5@Grow:

; 1964 : 		else if (_Trim && _Newsize < this->_BUF_SIZE)

  00029	33 d2		 xor	 edx, edx
  0002b	38 55 0c	 cmp	 BYTE PTR __Trim$[ebp], dl
  0002e	74 17		 je	 SHORT $LN3@Grow
  00030	83 fe 10	 cmp	 esi, 16			; 00000010H
  00033	73 12		 jae	 SHORT $LN3@Grow

; 1965 : 			_Tidy(true,	// copy and deallocate if trimming to small string
; 1966 : 				_Newsize < this->_Mysize ? _Newsize : this->_Mysize);

  00035	8b 41 10	 mov	 eax, DWORD PTR [ecx+16]
  00038	3b f0		 cmp	 esi, eax
  0003a	0f 42 c6	 cmovb	 eax, esi
  0003d	50		 push	 eax
  0003e	6a 01		 push	 1
  00040	e8 00 00 00 00	 call	 ?_Tidy@?$basic_string@DU?$char_traits@D@std@@V?$allocator@D@2@@std@@QAEX_NI@Z ; std::basic_string<char,std::char_traits<char>,std::allocator<char> >::_Tidy
  00045	eb 10		 jmp	 SHORT $LN28@Grow
$LN3@Grow:

; 1967 : 		else if (_Newsize == 0)

  00047	3b f2		 cmp	 esi, edx
  00049	75 0c		 jne	 SHORT $LN28@Grow

; 1968 : 			_Eos(0);	// new size is zero, just null terminate

  0004b	89 51 10	 mov	 DWORD PTR [ecx+16], edx
  0004e	83 f8 10	 cmp	 eax, 16			; 00000010H
  00051	72 02		 jb	 SHORT $LN26@Grow
  00053	8b 09		 mov	 ecx, DWORD PTR [ecx]
$LN26@Grow:
  00055	88 11		 mov	 BYTE PTR [ecx], dl
$LN28@Grow:

; 1969 : 		return (0 < _Newsize);	// return true only if more work to do

  00057	33 c0		 xor	 eax, eax
  00059	3b c6		 cmp	 eax, esi
  0005b	1b c0		 sbb	 eax, eax
  0005d	f7 d8		 neg	 eax
  0005f	5e		 pop	 esi

; 1970 : 		}

  00060	5d		 pop	 ebp
  00061	c2 08 00	 ret	 8
$LN30@Grow:
?_Grow@?$basic_string@DU?$char_traits@D@std@@V?$allocator@D@2@@std@@QAE_NI_N@Z ENDP ; std::basic_string<char,std::char_traits<char>,std::allocator<char> >::_Grow
_TEXT	ENDS
PUBLIC	??_G?$basic_string@DU?$char_traits@D@std@@V?$allocator@D@2@@std@@QAEPAXI@Z ; std::basic_string<char,std::char_traits<char>,std::allocator<char> >::`scalar deleting destructor'
; Function compile flags: /Ogsp
;	COMDAT ??_G?$basic_string@DU?$char_traits@D@std@@V?$allocator@D@2@@std@@QAEPAXI@Z
_TEXT	SEGMENT
___flags$ = 8						; size = 4
??_G?$basic_string@DU?$char_traits@D@std@@V?$allocator@D@2@@std@@QAEPAXI@Z PROC ; std::basic_string<char,std::char_traits<char>,std::allocator<char> >::`scalar deleting destructor', COMDAT
; _this$ = ecx
  00000	55		 push	 ebp
  00001	8b ec		 mov	 ebp, esp
  00003	56		 push	 esi
  00004	6a 00		 push	 0
  00006	6a 01		 push	 1
  00008	8b f1		 mov	 esi, ecx
  0000a	e8 00 00 00 00	 call	 ?_Tidy@?$basic_string@DU?$char_traits@D@std@@V?$allocator@D@2@@std@@QAEX_NI@Z ; std::basic_string<char,std::char_traits<char>,std::allocator<char> >::_Tidy
  0000f	f6 45 08 01	 test	 BYTE PTR ___flags$[ebp], 1
  00013	74 07		 je	 SHORT $LN1@scalar@4
  00015	56		 push	 esi
  00016	e8 00 00 00 00	 call	 ??3@YAXPAX@Z		; operator delete
  0001b	59		 pop	 ecx
$LN1@scalar@4:
  0001c	8b c6		 mov	 eax, esi
  0001e	5e		 pop	 esi
  0001f	5d		 pop	 ebp
  00020	c2 04 00	 ret	 4
??_G?$basic_string@DU?$char_traits@D@std@@V?$allocator@D@2@@std@@QAEPAXI@Z ENDP ; std::basic_string<char,std::char_traits<char>,std::allocator<char> >::`scalar deleting destructor'
_TEXT	ENDS
PUBLIC	?OnMotionSound@ioClientAniEventHandler@@IAEXPBUAniEventTime@@PBVioAnimation@@@Z ; ioClientAniEventHandler::OnMotionSound
EXTRN	__imp_??0ioHashString@@QAE@PBD@Z:PROC
EXTRN	?GetMotionSoundName@ioBaseChar@@QAE?AV?$basic_string@DU?$char_traits@D@std@@V?$allocator@D@2@@std@@ABVioHashString@@@Z:PROC ; ioBaseChar::GetMotionSoundName
;	COMDAT xdata$x
xdata$x	SEGMENT
__unwindtable$?OnMotionSound@ioClientAniEventHandler@@IAEXPBUAniEventTime@@PBVioAnimation@@@Z DD 0ffffffffH
	DD	FLAT:__unwindfunclet$?OnMotionSound@ioClientAniEventHandler@@IAEXPBUAniEventTime@@PBVioAnimation@@@Z$0
	DD	00H
	DD	FLAT:__unwindfunclet$?OnMotionSound@ioClientAniEventHandler@@IAEXPBUAniEventTime@@PBVioAnimation@@@Z$1
__ehfuncinfo$?OnMotionSound@ioClientAniEventHandler@@IAEXPBUAniEventTime@@PBVioAnimation@@@Z DD 019930522H
	DD	02H
	DD	FLAT:__unwindtable$?OnMotionSound@ioClientAniEventHandler@@IAEXPBUAniEventTime@@PBVioAnimation@@@Z
	DD	2 DUP(00H)
	DD	2 DUP(00H)
	DD	00H
	DD	01H
; Function compile flags: /Ogsp
; File d:\lost saga for developer\youtube\tutorial\source\src\lsclient\ioclientanieventhandler.cpp
xdata$x	ENDS
;	COMDAT ?OnMotionSound@ioClientAniEventHandler@@IAEXPBUAniEventTime@@PBVioAnimation@@@Z
_TEXT	SEGMENT
$T533658 = -60						; size = 16
_szNewSound$ = -44					; size = 28
__$EHRec$ = -12						; size = 12
_pEvent$ = 8						; size = 4
_pNotifier$ = 12					; size = 4
?OnMotionSound@ioClientAniEventHandler@@IAEXPBUAniEventTime@@PBVioAnimation@@@Z PROC ; ioClientAniEventHandler::OnMotionSound, COMDAT
; _this$ = ecx

; 210  : {

  00000	6a 30		 push	 48			; 00000030H
  00002	b8 00 00 00 00	 mov	 eax, __ehhandler$?OnMotionSound@ioClientAniEventHandler@@IAEXPBUAniEventTime@@PBVioAnimation@@@Z
  00007	e8 00 00 00 00	 call	 __EH_prolog3_GS
  0000c	8b 45 08	 mov	 eax, DWORD PTR _pEvent$[ebp]

; 211  : 	std::string szNewSound = m_pChar->GetMotionSoundName( pEvent->szSubInfo );

  0000f	83 c0 14	 add	 eax, 20			; 00000014H
  00012	50		 push	 eax
  00013	8b f1		 mov	 esi, ecx
  00015	8b 4e 18	 mov	 ecx, DWORD PTR [esi+24]
  00018	8d 45 d4	 lea	 eax, DWORD PTR _szNewSound$[ebp]
  0001b	50		 push	 eax
  0001c	e8 00 00 00 00	 call	 ?GetMotionSoundName@ioBaseChar@@QAE?AV?$basic_string@DU?$char_traits@D@std@@V?$allocator@D@2@@std@@ABVioHashString@@@Z ; ioBaseChar::GetMotionSoundName
  00021	83 65 fc 00	 and	 DWORD PTR __$EHRec$[ebp+8], 0

; 212  : 	
; 213  : 	g_SoundMgr.PlaySound( ioHashString(szNewSound.c_str()), m_pOwner->GetParentSceneNode() );

  00025	83 7d e8 10	 cmp	 DWORD PTR _szNewSound$[ebp+20], 16 ; 00000010H
  00029	8b 45 d4	 mov	 eax, DWORD PTR _szNewSound$[ebp]
  0002c	73 03		 jae	 SHORT $LN10@OnMotionSo
  0002e	8d 45 d4	 lea	 eax, DWORD PTR _szNewSound$[ebp]
$LN10@OnMotionSo:
  00031	50		 push	 eax
  00032	8d 4d c4	 lea	 ecx, DWORD PTR $T533658[ebp]
  00035	ff 15 00 00 00
	00		 call	 DWORD PTR __imp_??0ioHashString@@QAE@PBD@Z
  0003b	8b f8		 mov	 edi, eax
  0003d	8b 4e 04	 mov	 ecx, DWORD PTR [esi+4]
  00040	8b 01		 mov	 eax, DWORD PTR [ecx]
  00042	6a 04		 push	 4
  00044	c6 45 fc 01	 mov	 BYTE PTR __$EHRec$[ebp+8], 1
  00048	ff 50 34	 call	 DWORD PTR [eax+52]
  0004b	50		 push	 eax
  0004c	57		 push	 edi
  0004d	ff 15 00 00 00
	00		 call	 DWORD PTR __imp_?GetSingleton@ioSoundManager@@SAAAV1@XZ
  00053	8b c8		 mov	 ecx, eax
  00055	ff 15 00 00 00
	00		 call	 DWORD PTR __imp_?PlaySoundA@ioSoundManager@@QAEKABVioHashString@@PAVioSceneNode@@K@Z
  0005b	8d 4d c4	 lea	 ecx, DWORD PTR $T533658[ebp]
  0005e	c6 45 fc 00	 mov	 BYTE PTR __$EHRec$[ebp+8], 0
  00062	ff 15 00 00 00
	00		 call	 DWORD PTR __imp_??1ioHashString@@QAE@XZ

; 214  : }

  00068	6a 00		 push	 0
  0006a	6a 01		 push	 1
  0006c	8d 4d d4	 lea	 ecx, DWORD PTR _szNewSound$[ebp]
  0006f	e8 00 00 00 00	 call	 ?_Tidy@?$basic_string@DU?$char_traits@D@std@@V?$allocator@D@2@@std@@QAEX_NI@Z ; std::basic_string<char,std::char_traits<char>,std::allocator<char> >::_Tidy
  00074	e8 00 00 00 00	 call	 __EH_epilog3_GS
  00079	c2 08 00	 ret	 8
_TEXT	ENDS
;	COMDAT text$x
text$x	SEGMENT
__unwindfunclet$?OnMotionSound@ioClientAniEventHandler@@IAEXPBUAniEventTime@@PBVioAnimation@@@Z$0:
  00000	8d 4d d4	 lea	 ecx, DWORD PTR _szNewSound$[ebp]
  00003	e9 00 00 00 00	 jmp	 ??1?$basic_string@DU?$char_traits@D@std@@V?$allocator@D@2@@std@@QAE@XZ ; std::basic_string<char,std::char_traits<char>,std::allocator<char> >::~basic_string<char,std::char_traits<char>,std::allocator<char> >
__unwindfunclet$?OnMotionSound@ioClientAniEventHandler@@IAEXPBUAniEventTime@@PBVioAnimation@@@Z$1:
  00008	8d 4d c4	 lea	 ecx, DWORD PTR $T533658[ebp]
  0000b	ff 25 00 00 00
	00		 jmp	 DWORD PTR __imp_??1ioHashString@@QAE@XZ
__ehhandler$?OnMotionSound@ioClientAniEventHandler@@IAEXPBUAniEventTime@@PBVioAnimation@@@Z:
  00011	8b 54 24 08	 mov	 edx, DWORD PTR [esp+8]
  00015	8d 42 0c	 lea	 eax, DWORD PTR [edx+12]
  00018	8b 4a c0	 mov	 ecx, DWORD PTR [edx-64]
  0001b	33 c8		 xor	 ecx, eax
  0001d	e8 00 00 00 00	 call	 @__security_check_cookie@4
  00022	8b 4a fc	 mov	 ecx, DWORD PTR [edx-4]
  00025	33 c8		 xor	 ecx, eax
  00027	e8 00 00 00 00	 call	 @__security_check_cookie@4
  0002c	b8 00 00 00 00	 mov	 eax, OFFSET __ehfuncinfo$?OnMotionSound@ioClientAniEventHandler@@IAEXPBUAniEventTime@@PBVioAnimation@@@Z
  00031	e9 00 00 00 00	 jmp	 ___CxxFrameHandler3
text$x	ENDS
?OnMotionSound@ioClientAniEventHandler@@IAEXPBUAniEventTime@@PBVioAnimation@@@Z ENDP ; ioClientAniEventHandler::OnMotionSound
PUBLIC	?_Tidy@?$list@PBVioMeshControlPoint@@V?$allocator@PBVioMeshControlPoint@@@std@@@std@@QAEXXZ ; std::list<ioMeshControlPoint const *,std::allocator<ioMeshControlPoint const *> >::_Tidy
; Function compile flags: /Ogsp
; File c:\program files (x86)\microsoft visual studio 10.0\vc\include\list
;	COMDAT ?_Tidy@?$list@PBVioMeshControlPoint@@V?$allocator@PBVioMeshControlPoint@@@std@@@std@@QAEXXZ
_TEXT	SEGMENT
?_Tidy@?$list@PBVioMeshControlPoint@@V?$allocator@PBVioMeshControlPoint@@@std@@@std@@QAEXXZ PROC ; std::list<ioMeshControlPoint const *,std::allocator<ioMeshControlPoint const *> >::_Tidy, COMDAT
; _this$ = ecx

; 1497 : 		clear();

  00000	e9 00 00 00 00	 jmp	 ?clear@?$list@PBVioMeshControlPoint@@V?$allocator@PBVioMeshControlPoint@@@std@@@std@@QAEXXZ ; std::list<ioMeshControlPoint const *,std::allocator<ioMeshControlPoint const *> >::clear
?_Tidy@?$list@PBVioMeshControlPoint@@V?$allocator@PBVioMeshControlPoint@@@std@@@std@@QAEXXZ ENDP ; std::list<ioMeshControlPoint const *,std::allocator<ioMeshControlPoint const *> >::_Tidy
_TEXT	ENDS
PUBLIC	??$_Destroy_range@V?$allocator@UAniEventInfo@@@std@@@std@@YAXPAUAniEventInfo@@0AAV?$allocator@UAniEventInfo@@@0@U_Nonscalar_ptr_iterator_tag@0@@Z ; std::_Destroy_range<std::allocator<AniEventInfo> >
; Function compile flags: /Ogsp
; File c:\program files (x86)\microsoft visual studio 10.0\vc\include\xmemory
;	COMDAT ??$_Destroy_range@V?$allocator@UAniEventInfo@@@std@@@std@@YAXPAUAniEventInfo@@0AAV?$allocator@UAniEventInfo@@@0@U_Nonscalar_ptr_iterator_tag@0@@Z
_TEXT	SEGMENT
__First$ = 8						; size = 4
__Last$ = 12						; size = 4
__Al$ = 16						; size = 4
___formal$ = 20						; size = 1
??$_Destroy_range@V?$allocator@UAniEventInfo@@@std@@@std@@YAXPAUAniEventInfo@@0AAV?$allocator@UAniEventInfo@@@0@U_Nonscalar_ptr_iterator_tag@0@@Z PROC ; std::_Destroy_range<std::allocator<AniEventInfo> >, COMDAT

; 95   : 	{	// destroy [_First, _Last), arbitrary type

  00000	55		 push	 ebp
  00001	8b ec		 mov	 ebp, esp
  00003	56		 push	 esi

; 96   : 	for (; _First != _Last; ++_First)

  00004	8b 75 08	 mov	 esi, DWORD PTR __First$[ebp]
  00007	eb 0a		 jmp	 SHORT $LN17@Destroy_ra
$LL3@Destroy_ra:

; 97   : 		_Dest_val(_Al, _First);

  00009	8b ce		 mov	 ecx, esi
  0000b	e8 00 00 00 00	 call	 ??1AniEventInfo@@QAE@XZ
  00010	83 c6 20	 add	 esi, 32			; 00000020H
$LN17@Destroy_ra:

; 96   : 	for (; _First != _Last; ++_First)

  00013	3b 75 0c	 cmp	 esi, DWORD PTR __Last$[ebp]
  00016	75 f1		 jne	 SHORT $LL3@Destroy_ra
  00018	5e		 pop	 esi

; 98   : 	}

  00019	5d		 pop	 ebp
  0001a	c3		 ret	 0
??$_Destroy_range@V?$allocator@UAniEventInfo@@@std@@@std@@YAXPAUAniEventInfo@@0AAV?$allocator@UAniEventInfo@@@0@U_Nonscalar_ptr_iterator_tag@0@@Z ENDP ; std::_Destroy_range<std::allocator<AniEventInfo> >
_TEXT	ENDS
PUBLIC	??$_Destroy_range@V?$allocator@UtagAniSoundEventInfo@@@std@@@std@@YAXPAUtagAniSoundEventInfo@@0AAV?$allocator@UtagAniSoundEventInfo@@@0@U_Nonscalar_ptr_iterator_tag@0@@Z ; std::_Destroy_range<std::allocator<tagAniSoundEventInfo> >
; Function compile flags: /Ogsp
;	COMDAT ??$_Destroy_range@V?$allocator@UtagAniSoundEventInfo@@@std@@@std@@YAXPAUtagAniSoundEventInfo@@0AAV?$allocator@UtagAniSoundEventInfo@@@0@U_Nonscalar_ptr_iterator_tag@0@@Z
_TEXT	SEGMENT
__First$ = 8						; size = 4
__Last$ = 12						; size = 4
__Al$ = 16						; size = 4
___formal$ = 20						; size = 1
??$_Destroy_range@V?$allocator@UtagAniSoundEventInfo@@@std@@@std@@YAXPAUtagAniSoundEventInfo@@0AAV?$allocator@UtagAniSoundEventInfo@@@0@U_Nonscalar_ptr_iterator_tag@0@@Z PROC ; std::_Destroy_range<std::allocator<tagAniSoundEventInfo> >, COMDAT

; 95   : 	{	// destroy [_First, _Last), arbitrary type

  00000	55		 push	 ebp
  00001	8b ec		 mov	 ebp, esp
  00003	56		 push	 esi

; 96   : 	for (; _First != _Last; ++_First)

  00004	8b 75 08	 mov	 esi, DWORD PTR __First$[ebp]
  00007	eb 0a		 jmp	 SHORT $LN17@Destroy_ra@2
$LL3@Destroy_ra@2:

; 97   : 		_Dest_val(_Al, _First);

  00009	8b ce		 mov	 ecx, esi
  0000b	e8 00 00 00 00	 call	 ??1tagAniSoundEventInfo@@QAE@XZ
  00010	83 c6 24	 add	 esi, 36			; 00000024H
$LN17@Destroy_ra@2:

; 96   : 	for (; _First != _Last; ++_First)

  00013	3b 75 0c	 cmp	 esi, DWORD PTR __Last$[ebp]
  00016	75 f1		 jne	 SHORT $LL3@Destroy_ra@2
  00018	5e		 pop	 esi

; 98   : 	}

  00019	5d		 pop	 ebp
  0001a	c3		 ret	 0
??$_Destroy_range@V?$allocator@UtagAniSoundEventInfo@@@std@@@std@@YAXPAUtagAniSoundEventInfo@@0AAV?$allocator@UtagAniSoundEventInfo@@@0@U_Nonscalar_ptr_iterator_tag@0@@Z ENDP ; std::_Destroy_range<std::allocator<tagAniSoundEventInfo> >
_TEXT	ENDS
PUBLIC	??$_Uninitialized_move@PAUAniEventInfo@@PAU1@V?$allocator@UAniEventInfo@@@std@@@std@@YAPAUAniEventInfo@@PAU1@00AAV?$allocator@UAniEventInfo@@@0@@Z ; std::_Uninitialized_move<AniEventInfo *,AniEventInfo *,std::allocator<AniEventInfo> >
; Function compile flags: /Ogsp
; File c:\program files (x86)\microsoft visual studio 10.0\vc\include\memory
;	COMDAT ??$_Uninitialized_move@PAUAniEventInfo@@PAU1@V?$allocator@UAniEventInfo@@@std@@@std@@YAPAUAniEventInfo@@PAU1@00AAV?$allocator@UAniEventInfo@@@0@@Z
_TEXT	SEGMENT
__Cat$533767 = -4					; size = 1
__First$ = 8						; size = 4
__Last$ = 12						; size = 4
__Dest$ = 16						; size = 4
__Al$ = 20						; size = 4
??$_Uninitialized_move@PAUAniEventInfo@@PAU1@V?$allocator@UAniEventInfo@@@std@@@std@@YAPAUAniEventInfo@@PAU1@00AAV?$allocator@UAniEventInfo@@@0@@Z PROC ; std::_Uninitialized_move<AniEventInfo *,AniEventInfo *,std::allocator<AniEventInfo> >, COMDAT

; 469  : 	{	// move [_First, _Last) to raw _Dest, using _Al

  00000	55		 push	 ebp
  00001	8b ec		 mov	 ebp, esp
  00003	51		 push	 ecx

; 470  : 	return (_Uninit_move(_First, _Last, _Dest, _Al,
; 471  : 		_Val_type(_First), _Ptr_cat(_First, _Dest)));

  00004	ff 75 fc	 push	 DWORD PTR __Cat$533767[ebp]
  00007	6a 00		 push	 0
  00009	ff 75 14	 push	 DWORD PTR __Al$[ebp]
  0000c	ff 75 10	 push	 DWORD PTR __Dest$[ebp]
  0000f	ff 75 0c	 push	 DWORD PTR __Last$[ebp]
  00012	ff 75 08	 push	 DWORD PTR __First$[ebp]
  00015	e8 00 00 00 00	 call	 ??$_Uninit_move@PAUAniEventInfo@@PAU1@V?$allocator@UAniEventInfo@@@std@@U1@@std@@YAPAUAniEventInfo@@PAU1@00AAV?$allocator@UAniEventInfo@@@0@0U_Nonscalar_ptr_iterator_tag@0@@Z ; std::_Uninit_move<AniEventInfo *,AniEventInfo *,std::allocator<AniEventInfo>,AniEventInfo>
  0001a	83 c4 18	 add	 esp, 24			; 00000018H

; 472  : 	}

  0001d	c9		 leave
  0001e	c3		 ret	 0
??$_Uninitialized_move@PAUAniEventInfo@@PAU1@V?$allocator@UAniEventInfo@@@std@@@std@@YAPAUAniEventInfo@@PAU1@00AAV?$allocator@UAniEventInfo@@@0@@Z ENDP ; std::_Uninitialized_move<AniEventInfo *,AniEventInfo *,std::allocator<AniEventInfo> >
_TEXT	ENDS
PUBLIC	??$_Uninitialized_move@PAUtagAniSoundEventInfo@@PAU1@V?$allocator@UtagAniSoundEventInfo@@@std@@@std@@YAPAUtagAniSoundEventInfo@@PAU1@00AAV?$allocator@UtagAniSoundEventInfo@@@0@@Z ; std::_Uninitialized_move<tagAniSoundEventInfo *,tagAniSoundEventInfo *,std::allocator<tagAniSoundEventInfo> >
; Function compile flags: /Ogsp
;	COMDAT ??$_Uninitialized_move@PAUtagAniSoundEventInfo@@PAU1@V?$allocator@UtagAniSoundEventInfo@@@std@@@std@@YAPAUtagAniSoundEventInfo@@PAU1@00AAV?$allocator@UtagAniSoundEventInfo@@@0@@Z
_TEXT	SEGMENT
__Cat$533777 = -4					; size = 1
__First$ = 8						; size = 4
__Last$ = 12						; size = 4
__Dest$ = 16						; size = 4
__Al$ = 20						; size = 4
??$_Uninitialized_move@PAUtagAniSoundEventInfo@@PAU1@V?$allocator@UtagAniSoundEventInfo@@@std@@@std@@YAPAUtagAniSoundEventInfo@@PAU1@00AAV?$allocator@UtagAniSoundEventInfo@@@0@@Z PROC ; std::_Uninitialized_move<tagAniSoundEventInfo *,tagAniSoundEventInfo *,std::allocator<tagAniSoundEventInfo> >, COMDAT

; 469  : 	{	// move [_First, _Last) to raw _Dest, using _Al

  00000	55		 push	 ebp
  00001	8b ec		 mov	 ebp, esp
  00003	51		 push	 ecx

; 470  : 	return (_Uninit_move(_First, _Last, _Dest, _Al,
; 471  : 		_Val_type(_First), _Ptr_cat(_First, _Dest)));

  00004	ff 75 fc	 push	 DWORD PTR __Cat$533777[ebp]
  00007	6a 00		 push	 0
  00009	ff 75 14	 push	 DWORD PTR __Al$[ebp]
  0000c	ff 75 10	 push	 DWORD PTR __Dest$[ebp]
  0000f	ff 75 0c	 push	 DWORD PTR __Last$[ebp]
  00012	ff 75 08	 push	 DWORD PTR __First$[ebp]
  00015	e8 00 00 00 00	 call	 ??$_Uninit_move@PAUtagAniSoundEventInfo@@PAU1@V?$allocator@UtagAniSoundEventInfo@@@std@@U1@@std@@YAPAUtagAniSoundEventInfo@@PAU1@00AAV?$allocator@UtagAniSoundEventInfo@@@0@0U_Nonscalar_ptr_iterator_tag@0@@Z ; std::_Uninit_move<tagAniSoundEventInfo *,tagAniSoundEventInfo *,std::allocator<tagAniSoundEventInfo>,tagAniSoundEventInfo>
  0001a	83 c4 18	 add	 esp, 24			; 00000018H

; 472  : 	}

  0001d	c9		 leave
  0001e	c3		 ret	 0
??$_Uninitialized_move@PAUtagAniSoundEventInfo@@PAU1@V?$allocator@UtagAniSoundEventInfo@@@std@@@std@@YAPAUtagAniSoundEventInfo@@PAU1@00AAV?$allocator@UtagAniSoundEventInfo@@@0@@Z ENDP ; std::_Uninitialized_move<tagAniSoundEventInfo *,tagAniSoundEventInfo *,std::allocator<tagAniSoundEventInfo> >
_TEXT	ENDS
PUBLIC	?assign@?$basic_string@DU?$char_traits@D@std@@V?$allocator@D@2@@std@@QAEAAV12@ABV12@II@Z ; std::basic_string<char,std::char_traits<char>,std::allocator<char> >::assign
; Function compile flags: /Ogsp
; File c:\program files (x86)\microsoft visual studio 10.0\vc\include\xstring
;	COMDAT ?assign@?$basic_string@DU?$char_traits@D@std@@V?$allocator@D@2@@std@@QAEAAV12@ABV12@II@Z
_TEXT	SEGMENT
__Right$ = 8						; size = 4
__Roff$ = 12						; size = 4
__Count$ = 16						; size = 4
?assign@?$basic_string@DU?$char_traits@D@std@@V?$allocator@D@2@@std@@QAEAAV12@ABV12@II@Z PROC ; std::basic_string<char,std::char_traits<char>,std::allocator<char> >::assign, COMDAT
; _this$ = ecx

; 893  : 		{	// assign _Right [_Roff, _Roff + _Count)

  00000	55		 push	 ebp
  00001	8b ec		 mov	 ebp, esp
  00003	53		 push	 ebx

; 894  : 		if (_Right.size() < _Roff)

  00004	8b 5d 08	 mov	 ebx, DWORD PTR __Right$[ebp]
  00007	8b 43 10	 mov	 eax, DWORD PTR [ebx+16]
  0000a	56		 push	 esi
  0000b	8b f1		 mov	 esi, ecx
  0000d	8b 4d 0c	 mov	 ecx, DWORD PTR __Roff$[ebp]
  00010	57		 push	 edi
  00011	3b c1		 cmp	 eax, ecx
  00013	73 0b		 jae	 SHORT $LN5@assign

; 895  : 			_Xran();	// _Roff off end

  00015	68 00 00 00 00	 push	 OFFSET ??_C@_0BI@CFPLBAOH@invalid?5string?5position?$AA@
  0001a	ff 15 00 00 00
	00		 call	 DWORD PTR __imp_?_Xout_of_range@std@@YAXPBD@Z
$LN34@assign:
$LN5@assign:

; 896  : 		size_type _Num = _Right.size() - _Roff;

  00020	2b c1		 sub	 eax, ecx
  00022	8b f8		 mov	 edi, eax

; 897  : 		if (_Count < _Num)

  00024	39 7d 10	 cmp	 DWORD PTR __Count$[ebp], edi

; 898  : 			_Num = _Count;	// trim _Num to size

  00027	0f 42 7d 10	 cmovb	 edi, DWORD PTR __Count$[ebp]

; 899  : 
; 900  : 		if (this == &_Right)

  0002b	3b f3		 cmp	 esi, ebx
  0002d	75 1a		 jne	 SHORT $LN3@assign

; 901  : 			erase((size_type)(_Roff + _Num)), erase(0, _Roff);	// substring

  0002f	03 f9		 add	 edi, ecx
  00031	6a ff		 push	 -1
  00033	57		 push	 edi
  00034	8b ce		 mov	 ecx, esi
  00036	e8 00 00 00 00	 call	 ?erase@?$basic_string@DU?$char_traits@D@std@@V?$allocator@D@2@@std@@QAEAAV12@II@Z ; std::basic_string<char,std::char_traits<char>,std::allocator<char> >::erase
  0003b	ff 75 0c	 push	 DWORD PTR __Roff$[ebp]
  0003e	8b ce		 mov	 ecx, esi
  00040	6a 00		 push	 0
  00042	e8 00 00 00 00	 call	 ?erase@?$basic_string@DU?$char_traits@D@std@@V?$allocator@D@2@@std@@QAEAAV12@II@Z ; std::basic_string<char,std::char_traits<char>,std::allocator<char> >::erase
  00047	eb 47		 jmp	 SHORT $LN31@assign
$LN3@assign:

; 902  : 		else if (_Grow(_Num))

  00049	6a 00		 push	 0
  0004b	57		 push	 edi
  0004c	8b ce		 mov	 ecx, esi
  0004e	e8 00 00 00 00	 call	 ?_Grow@?$basic_string@DU?$char_traits@D@std@@V?$allocator@D@2@@std@@QAE_NI_N@Z ; std::basic_string<char,std::char_traits<char>,std::allocator<char> >::_Grow
  00053	84 c0		 test	 al, al
  00055	74 39		 je	 SHORT $LN31@assign

; 903  : 			{	// make room and assign new stuff
; 904  : 			_Traits::copy(_Myptr(), _Right._Myptr() + _Roff, _Num);

  00057	83 7b 14 10	 cmp	 DWORD PTR [ebx+20], 16	; 00000010H
  0005b	72 04		 jb	 SHORT $LN17@assign
  0005d	8b 03		 mov	 eax, DWORD PTR [ebx]
  0005f	eb 02		 jmp	 SHORT $LN18@assign
$LN17@assign:
  00061	8b c3		 mov	 eax, ebx
$LN18@assign:
  00063	83 7e 14 10	 cmp	 DWORD PTR [esi+20], 16	; 00000010H
  00067	72 04		 jb	 SHORT $LN21@assign
  00069	8b 0e		 mov	 ecx, DWORD PTR [esi]
  0006b	eb 02		 jmp	 SHORT $LN22@assign
$LN21@assign:
  0006d	8b ce		 mov	 ecx, esi
$LN22@assign:
  0006f	03 45 0c	 add	 eax, DWORD PTR __Roff$[ebp]
  00072	57		 push	 edi
  00073	50		 push	 eax
  00074	51		 push	 ecx
  00075	e8 00 00 00 00	 call	 _memcpy
  0007a	83 c4 0c	 add	 esp, 12			; 0000000cH

; 905  : 			_Eos(_Num);

  0007d	83 7e 14 10	 cmp	 DWORD PTR [esi+20], 16	; 00000010H
  00081	89 7e 10	 mov	 DWORD PTR [esi+16], edi
  00084	72 04		 jb	 SHORT $LN29@assign
  00086	8b 06		 mov	 eax, DWORD PTR [esi]
  00088	eb 02		 jmp	 SHORT $LN30@assign
$LN29@assign:
  0008a	8b c6		 mov	 eax, esi
$LN30@assign:
  0008c	c6 04 38 00	 mov	 BYTE PTR [eax+edi], 0
$LN31@assign:

; 906  : 			}
; 907  : 		return (*this);

  00090	5f		 pop	 edi
  00091	8b c6		 mov	 eax, esi
  00093	5e		 pop	 esi
  00094	5b		 pop	 ebx

; 908  : 		}

  00095	5d		 pop	 ebp
  00096	c2 0c 00	 ret	 12			; 0000000cH
$LN33@assign:
?assign@?$basic_string@DU?$char_traits@D@std@@V?$allocator@D@2@@std@@QAEAAV12@ABV12@II@Z ENDP ; std::basic_string<char,std::char_traits<char>,std::allocator<char> >::assign
_TEXT	ENDS
PUBLIC	?assign@?$basic_string@DU?$char_traits@D@std@@V?$allocator@D@2@@std@@QAEAAV12@PBDI@Z ; std::basic_string<char,std::char_traits<char>,std::allocator<char> >::assign
; Function compile flags: /Ogsp
;	COMDAT ?assign@?$basic_string@DU?$char_traits@D@std@@V?$allocator@D@2@@std@@QAEAAV12@PBDI@Z
_TEXT	SEGMENT
__Ptr$ = 8						; size = 4
__Count$ = 12						; size = 4
?assign@?$basic_string@DU?$char_traits@D@std@@V?$allocator@D@2@@std@@QAEAAV12@PBDI@Z PROC ; std::basic_string<char,std::char_traits<char>,std::allocator<char> >::assign, COMDAT
; _this$ = ecx

; 911  : 		{	// assign [_Ptr, _Ptr + _Count)

  00000	55		 push	 ebp
  00001	8b ec		 mov	 ebp, esp
  00003	53		 push	 ebx

; 912  :  #if _ITERATOR_DEBUG_LEVEL == 2
; 913  : 		if (_Count != 0)
; 914  : 			_DEBUG_POINTER(_Ptr);
; 915  :  #endif /* _ITERATOR_DEBUG_LEVEL == 2 */
; 916  : 
; 917  : 		if (_Inside(_Ptr))

  00004	8b 5d 08	 mov	 ebx, DWORD PTR __Ptr$[ebp]
  00007	56		 push	 esi
  00008	53		 push	 ebx
  00009	8b f1		 mov	 esi, ecx
  0000b	e8 00 00 00 00	 call	 ?_Inside@?$basic_string@DU?$char_traits@D@std@@V?$allocator@D@2@@std@@QAE_NPBD@Z ; std::basic_string<char,std::char_traits<char>,std::allocator<char> >::_Inside
  00010	84 c0		 test	 al, al
  00012	74 1c		 je	 SHORT $LN2@assign@2

; 918  : 			return (assign(*this, _Ptr - _Myptr(), _Count));	// substring

  00014	83 7e 14 10	 cmp	 DWORD PTR [esi+20], 16	; 00000010H
  00018	72 04		 jb	 SHORT $LN7@assign@2
  0001a	8b 06		 mov	 eax, DWORD PTR [esi]
  0001c	eb 02		 jmp	 SHORT $LN8@assign@2
$LN7@assign@2:
  0001e	8b c6		 mov	 eax, esi
$LN8@assign@2:
  00020	ff 75 0c	 push	 DWORD PTR __Count$[ebp]
  00023	2b d8		 sub	 ebx, eax
  00025	53		 push	 ebx
  00026	56		 push	 esi
  00027	8b ce		 mov	 ecx, esi
  00029	e8 00 00 00 00	 call	 ?assign@?$basic_string@DU?$char_traits@D@std@@V?$allocator@D@2@@std@@QAEAAV12@ABV12@II@Z ; std::basic_string<char,std::char_traits<char>,std::allocator<char> >::assign
  0002e	eb 3f		 jmp	 SHORT $LN3@assign@2
$LN2@assign@2:
  00030	57		 push	 edi

; 919  : 
; 920  : 		if (_Grow(_Count))

  00031	8b 7d 0c	 mov	 edi, DWORD PTR __Count$[ebp]
  00034	6a 00		 push	 0
  00036	57		 push	 edi
  00037	8b ce		 mov	 ecx, esi
  00039	e8 00 00 00 00	 call	 ?_Grow@?$basic_string@DU?$char_traits@D@std@@V?$allocator@D@2@@std@@QAE_NI_N@Z ; std::basic_string<char,std::char_traits<char>,std::allocator<char> >::_Grow
  0003e	84 c0		 test	 al, al
  00040	74 2a		 je	 SHORT $LN21@assign@2

; 921  : 			{	// make room and assign new stuff
; 922  : 			_Traits::copy(_Myptr(), _Ptr, _Count);

  00042	83 7e 14 10	 cmp	 DWORD PTR [esi+20], 16	; 00000010H
  00046	72 04		 jb	 SHORT $LN11@assign@2
  00048	8b 06		 mov	 eax, DWORD PTR [esi]
  0004a	eb 02		 jmp	 SHORT $LN12@assign@2
$LN11@assign@2:
  0004c	8b c6		 mov	 eax, esi
$LN12@assign@2:
  0004e	57		 push	 edi
  0004f	53		 push	 ebx
  00050	50		 push	 eax
  00051	e8 00 00 00 00	 call	 _memcpy
  00056	83 c4 0c	 add	 esp, 12			; 0000000cH

; 923  : 			_Eos(_Count);

  00059	83 7e 14 10	 cmp	 DWORD PTR [esi+20], 16	; 00000010H
  0005d	89 7e 10	 mov	 DWORD PTR [esi+16], edi
  00060	72 04		 jb	 SHORT $LN19@assign@2
  00062	8b 06		 mov	 eax, DWORD PTR [esi]
  00064	eb 02		 jmp	 SHORT $LN20@assign@2
$LN19@assign@2:
  00066	8b c6		 mov	 eax, esi
$LN20@assign@2:
  00068	c6 04 38 00	 mov	 BYTE PTR [eax+edi], 0
$LN21@assign@2:

; 924  : 			}
; 925  : 		return (*this);

  0006c	8b c6		 mov	 eax, esi
  0006e	5f		 pop	 edi
$LN3@assign@2:
  0006f	5e		 pop	 esi
  00070	5b		 pop	 ebx

; 926  : 		}

  00071	5d		 pop	 ebp
  00072	c2 08 00	 ret	 8
?assign@?$basic_string@DU?$char_traits@D@std@@V?$allocator@D@2@@std@@QAEAAV12@PBDI@Z ENDP ; std::basic_string<char,std::char_traits<char>,std::allocator<char> >::assign
_TEXT	ENDS
PUBLIC	??$_Destroy@V?$basic_string@DU?$char_traits@D@std@@V?$allocator@D@2@@std@@@std@@YAXPAV?$basic_string@DU?$char_traits@D@std@@V?$allocator@D@2@@0@@Z ; std::_Destroy<std::basic_string<char,std::char_traits<char>,std::allocator<char> > >
; Function compile flags: /Ogsp
; File c:\program files (x86)\microsoft visual studio 10.0\vc\include\xmemory
;	COMDAT ??$_Destroy@V?$basic_string@DU?$char_traits@D@std@@V?$allocator@D@2@@std@@@std@@YAXPAV?$basic_string@DU?$char_traits@D@std@@V?$allocator@D@2@@0@@Z
_TEXT	SEGMENT
__Ptr$ = 8						; size = 4
??$_Destroy@V?$basic_string@DU?$char_traits@D@std@@V?$allocator@D@2@@std@@@std@@YAXPAV?$basic_string@DU?$char_traits@D@std@@V?$allocator@D@2@@0@@Z PROC ; std::_Destroy<std::basic_string<char,std::char_traits<char>,std::allocator<char> > >, COMDAT

; 62   : 	{	// destroy object at _Ptr

  00000	55		 push	 ebp
  00001	8b ec		 mov	 ebp, esp

; 63   : 	_Ptr->~_Ty();

  00003	8b 4d 08	 mov	 ecx, DWORD PTR __Ptr$[ebp]
  00006	6a 00		 push	 0
  00008	6a 01		 push	 1
  0000a	e8 00 00 00 00	 call	 ?_Tidy@?$basic_string@DU?$char_traits@D@std@@V?$allocator@D@2@@std@@QAEX_NI@Z ; std::basic_string<char,std::char_traits<char>,std::allocator<char> >::_Tidy

; 64   : 	}

  0000f	5d		 pop	 ebp
  00010	c3		 ret	 0
??$_Destroy@V?$basic_string@DU?$char_traits@D@std@@V?$allocator@D@2@@std@@@std@@YAXPAV?$basic_string@DU?$char_traits@D@std@@V?$allocator@D@2@@0@@Z ENDP ; std::_Destroy<std::basic_string<char,std::char_traits<char>,std::allocator<char> > >
_TEXT	ENDS
PUBLIC	??1?$list@PBVioMeshControlPoint@@V?$allocator@PBVioMeshControlPoint@@@std@@@std@@QAE@XZ ; std::list<ioMeshControlPoint const *,std::allocator<ioMeshControlPoint const *> >::~list<ioMeshControlPoint const *,std::allocator<ioMeshControlPoint const *> >
; Function compile flags: /Ogsp
; File c:\program files (x86)\microsoft visual studio 10.0\vc\include\list
;	COMDAT ??1?$list@PBVioMeshControlPoint@@V?$allocator@PBVioMeshControlPoint@@@std@@@std@@QAE@XZ
_TEXT	SEGMENT
??1?$list@PBVioMeshControlPoint@@V?$allocator@PBVioMeshControlPoint@@@std@@@std@@QAE@XZ PROC ; std::list<ioMeshControlPoint const *,std::allocator<ioMeshControlPoint const *> >::~list<ioMeshControlPoint const *,std::allocator<ioMeshControlPoint const *> >, COMDAT
; _this$ = ecx

; 769  : 		{	// destroy the object

  00000	56		 push	 esi
  00001	8b f1		 mov	 esi, ecx

; 770  : 		_Tidy();

  00003	e8 00 00 00 00	 call	 ?clear@?$list@PBVioMeshControlPoint@@V?$allocator@PBVioMeshControlPoint@@@std@@@std@@QAEXXZ ; std::list<ioMeshControlPoint const *,std::allocator<ioMeshControlPoint const *> >::clear

; 771  : 		}

  00008	ff 36		 push	 DWORD PTR [esi]
  0000a	e8 00 00 00 00	 call	 ??3@YAXPAX@Z		; operator delete
  0000f	59		 pop	 ecx
  00010	5e		 pop	 esi
  00011	c3		 ret	 0
??1?$list@PBVioMeshControlPoint@@V?$allocator@PBVioMeshControlPoint@@@std@@@std@@QAE@XZ ENDP ; std::list<ioMeshControlPoint const *,std::allocator<ioMeshControlPoint const *> >::~list<ioMeshControlPoint const *,std::allocator<ioMeshControlPoint const *> >
_TEXT	ENDS
PUBLIC	??$_Destroy_range@V?$allocator@UAniEventInfo@@@std@@@std@@YAXPAUAniEventInfo@@0AAV?$allocator@UAniEventInfo@@@0@@Z ; std::_Destroy_range<std::allocator<AniEventInfo> >
; Function compile flags: /Ogsp
; File c:\program files (x86)\microsoft visual studio 10.0\vc\include\xmemory
;	COMDAT ??$_Destroy_range@V?$allocator@UAniEventInfo@@@std@@@std@@YAXPAUAniEventInfo@@0AAV?$allocator@UAniEventInfo@@@0@@Z
_TEXT	SEGMENT
__First$ = 8						; size = 4
__Last$ = 12						; size = 4
__Al$ = 16						; size = 4
??$_Destroy_range@V?$allocator@UAniEventInfo@@@std@@@std@@YAXPAUAniEventInfo@@0AAV?$allocator@UAniEventInfo@@@0@@Z PROC ; std::_Destroy_range<std::allocator<AniEventInfo> >, COMDAT

; 87   : 	{	// destroy [_First, _Last)

  00000	55		 push	 ebp
  00001	8b ec		 mov	 ebp, esp
  00003	56		 push	 esi

; 88   : 	_Destroy_range(_First, _Last, _Al, _Ptr_cat(_First, _Last));

  00004	8b 75 08	 mov	 esi, DWORD PTR __First$[ebp]
  00007	eb 0a		 jmp	 SHORT $LN21@Destroy_ra@3
$LL7@Destroy_ra@3:
  00009	8b ce		 mov	 ecx, esi
  0000b	e8 00 00 00 00	 call	 ??1AniEventInfo@@QAE@XZ
  00010	83 c6 20	 add	 esi, 32			; 00000020H
$LN21@Destroy_ra@3:
  00013	3b 75 0c	 cmp	 esi, DWORD PTR __Last$[ebp]
  00016	75 f1		 jne	 SHORT $LL7@Destroy_ra@3
  00018	5e		 pop	 esi

; 89   : 	}

  00019	5d		 pop	 ebp
  0001a	c3		 ret	 0
??$_Destroy_range@V?$allocator@UAniEventInfo@@@std@@@std@@YAXPAUAniEventInfo@@0AAV?$allocator@UAniEventInfo@@@0@@Z ENDP ; std::_Destroy_range<std::allocator<AniEventInfo> >
_TEXT	ENDS
PUBLIC	??$_Destroy_range@V?$allocator@UtagAniSoundEventInfo@@@std@@@std@@YAXPAUtagAniSoundEventInfo@@0AAV?$allocator@UtagAniSoundEventInfo@@@0@@Z ; std::_Destroy_range<std::allocator<tagAniSoundEventInfo> >
; Function compile flags: /Ogsp
;	COMDAT ??$_Destroy_range@V?$allocator@UtagAniSoundEventInfo@@@std@@@std@@YAXPAUtagAniSoundEventInfo@@0AAV?$allocator@UtagAniSoundEventInfo@@@0@@Z
_TEXT	SEGMENT
__First$ = 8						; size = 4
__Last$ = 12						; size = 4
__Al$ = 16						; size = 4
??$_Destroy_range@V?$allocator@UtagAniSoundEventInfo@@@std@@@std@@YAXPAUtagAniSoundEventInfo@@0AAV?$allocator@UtagAniSoundEventInfo@@@0@@Z PROC ; std::_Destroy_range<std::allocator<tagAniSoundEventInfo> >, COMDAT

; 87   : 	{	// destroy [_First, _Last)

  00000	55		 push	 ebp
  00001	8b ec		 mov	 ebp, esp
  00003	56		 push	 esi

; 88   : 	_Destroy_range(_First, _Last, _Al, _Ptr_cat(_First, _Last));

  00004	8b 75 08	 mov	 esi, DWORD PTR __First$[ebp]
  00007	eb 0a		 jmp	 SHORT $LN21@Destroy_ra@4
$LL7@Destroy_ra@4:
  00009	8b ce		 mov	 ecx, esi
  0000b	e8 00 00 00 00	 call	 ??1tagAniSoundEventInfo@@QAE@XZ
  00010	83 c6 24	 add	 esi, 36			; 00000024H
$LN21@Destroy_ra@4:
  00013	3b 75 0c	 cmp	 esi, DWORD PTR __Last$[ebp]
  00016	75 f1		 jne	 SHORT $LL7@Destroy_ra@4
  00018	5e		 pop	 esi

; 89   : 	}

  00019	5d		 pop	 ebp
  0001a	c3		 ret	 0
??$_Destroy_range@V?$allocator@UtagAniSoundEventInfo@@@std@@@std@@YAXPAUtagAniSoundEventInfo@@0AAV?$allocator@UtagAniSoundEventInfo@@@0@@Z ENDP ; std::_Destroy_range<std::allocator<tagAniSoundEventInfo> >
_TEXT	ENDS
PUBLIC	??$_Umove@PAUAniEventInfo@@@?$vector@UAniEventInfo@@V?$allocator@UAniEventInfo@@@std@@@std@@IAEPAUAniEventInfo@@PAU2@00@Z ; std::vector<AniEventInfo,std::allocator<AniEventInfo> >::_Umove<AniEventInfo *>
; Function compile flags: /Ogsp
; File c:\program files (x86)\microsoft visual studio 10.0\vc\include\vector
;	COMDAT ??$_Umove@PAUAniEventInfo@@@?$vector@UAniEventInfo@@V?$allocator@UAniEventInfo@@@std@@@std@@IAEPAUAniEventInfo@@PAU2@00@Z
_TEXT	SEGMENT
__First$ = 8						; size = 4
__Last$ = 12						; size = 4
__Ptr$ = 16						; size = 4
??$_Umove@PAUAniEventInfo@@@?$vector@UAniEventInfo@@V?$allocator@UAniEventInfo@@@std@@@std@@IAEPAUAniEventInfo@@PAU2@00@Z PROC ; std::vector<AniEventInfo,std::allocator<AniEventInfo> >::_Umove<AniEventInfo *>, COMDAT
; _this$ = ecx

; 1322 : 		pointer _Umove(_Iter _First, _Iter _Last, pointer _Ptr)

  00000	55		 push	 ebp
  00001	8b ec		 mov	 ebp, esp

; 1323 : 		{	// move initializing [_First, _Last), using allocator
; 1324 : 		return (_Uninitialized_move(_First, _Last,
; 1325 : 			_Ptr, this->_Alval));

  00003	83 c1 0c	 add	 ecx, 12			; 0000000cH
  00006	51		 push	 ecx
  00007	ff 75 10	 push	 DWORD PTR __Ptr$[ebp]
  0000a	ff 75 0c	 push	 DWORD PTR __Last$[ebp]
  0000d	ff 75 08	 push	 DWORD PTR __First$[ebp]
  00010	e8 00 00 00 00	 call	 ??$_Uninitialized_move@PAUAniEventInfo@@PAU1@V?$allocator@UAniEventInfo@@@std@@@std@@YAPAUAniEventInfo@@PAU1@00AAV?$allocator@UAniEventInfo@@@0@@Z ; std::_Uninitialized_move<AniEventInfo *,AniEventInfo *,std::allocator<AniEventInfo> >
  00015	83 c4 10	 add	 esp, 16			; 00000010H

; 1326 : 		}

  00018	5d		 pop	 ebp
  00019	c2 0c 00	 ret	 12			; 0000000cH
??$_Umove@PAUAniEventInfo@@@?$vector@UAniEventInfo@@V?$allocator@UAniEventInfo@@@std@@@std@@IAEPAUAniEventInfo@@PAU2@00@Z ENDP ; std::vector<AniEventInfo,std::allocator<AniEventInfo> >::_Umove<AniEventInfo *>
_TEXT	ENDS
PUBLIC	??$_Umove@PAUtagAniSoundEventInfo@@@?$vector@UtagAniSoundEventInfo@@V?$allocator@UtagAniSoundEventInfo@@@std@@@std@@IAEPAUtagAniSoundEventInfo@@PAU2@00@Z ; std::vector<tagAniSoundEventInfo,std::allocator<tagAniSoundEventInfo> >::_Umove<tagAniSoundEventInfo *>
; Function compile flags: /Ogsp
;	COMDAT ??$_Umove@PAUtagAniSoundEventInfo@@@?$vector@UtagAniSoundEventInfo@@V?$allocator@UtagAniSoundEventInfo@@@std@@@std@@IAEPAUtagAniSoundEventInfo@@PAU2@00@Z
_TEXT	SEGMENT
__First$ = 8						; size = 4
__Last$ = 12						; size = 4
__Ptr$ = 16						; size = 4
??$_Umove@PAUtagAniSoundEventInfo@@@?$vector@UtagAniSoundEventInfo@@V?$allocator@UtagAniSoundEventInfo@@@std@@@std@@IAEPAUtagAniSoundEventInfo@@PAU2@00@Z PROC ; std::vector<tagAniSoundEventInfo,std::allocator<tagAniSoundEventInfo> >::_Umove<tagAniSoundEventInfo *>, COMDAT
; _this$ = ecx

; 1322 : 		pointer _Umove(_Iter _First, _Iter _Last, pointer _Ptr)

  00000	55		 push	 ebp
  00001	8b ec		 mov	 ebp, esp

; 1323 : 		{	// move initializing [_First, _Last), using allocator
; 1324 : 		return (_Uninitialized_move(_First, _Last,
; 1325 : 			_Ptr, this->_Alval));

  00003	83 c1 0c	 add	 ecx, 12			; 0000000cH
  00006	51		 push	 ecx
  00007	ff 75 10	 push	 DWORD PTR __Ptr$[ebp]
  0000a	ff 75 0c	 push	 DWORD PTR __Last$[ebp]
  0000d	ff 75 08	 push	 DWORD PTR __First$[ebp]
  00010	e8 00 00 00 00	 call	 ??$_Uninitialized_move@PAUtagAniSoundEventInfo@@PAU1@V?$allocator@UtagAniSoundEventInfo@@@std@@@std@@YAPAUtagAniSoundEventInfo@@PAU1@00AAV?$allocator@UtagAniSoundEventInfo@@@0@@Z ; std::_Uninitialized_move<tagAniSoundEventInfo *,tagAniSoundEventInfo *,std::allocator<tagAniSoundEventInfo> >
  00015	83 c4 10	 add	 esp, 16			; 00000010H

; 1326 : 		}

  00018	5d		 pop	 ebp
  00019	c2 0c 00	 ret	 12			; 0000000cH
??$_Umove@PAUtagAniSoundEventInfo@@@?$vector@UtagAniSoundEventInfo@@V?$allocator@UtagAniSoundEventInfo@@@std@@@std@@IAEPAUtagAniSoundEventInfo@@PAU2@00@Z ENDP ; std::vector<tagAniSoundEventInfo,std::allocator<tagAniSoundEventInfo> >::_Umove<tagAniSoundEventInfo *>
_TEXT	ENDS
PUBLIC	??0?$basic_string@DU?$char_traits@D@std@@V?$allocator@D@2@@std@@QAE@ABV01@@Z ; std::basic_string<char,std::char_traits<char>,std::allocator<char> >::basic_string<char,std::char_traits<char>,std::allocator<char> >
; Function compile flags: /Ogsp
; File c:\program files (x86)\microsoft visual studio 10.0\vc\include\xstring
;	COMDAT ??0?$basic_string@DU?$char_traits@D@std@@V?$allocator@D@2@@std@@QAE@ABV01@@Z
_TEXT	SEGMENT
__Right$ = 8						; size = 4
??0?$basic_string@DU?$char_traits@D@std@@V?$allocator@D@2@@std@@QAE@ABV01@@Z PROC ; std::basic_string<char,std::char_traits<char>,std::allocator<char> >::basic_string<char,std::char_traits<char>,std::allocator<char> >, COMDAT
; _this$ = ecx

; 543  : 		{	// construct by copying _Right

  00000	55		 push	 ebp
  00001	8b ec		 mov	 ebp, esp
  00003	56		 push	 esi

; 544  : 		_Tidy();

  00004	33 c0		 xor	 eax, eax

; 545  : 		assign(_Right, 0, npos);

  00006	6a ff		 push	 -1
  00008	8b f1		 mov	 esi, ecx
  0000a	50		 push	 eax
  0000b	ff 75 08	 push	 DWORD PTR __Right$[ebp]
  0000e	c7 46 14 0f 00
	00 00		 mov	 DWORD PTR [esi+20], 15	; 0000000fH
  00015	89 46 10	 mov	 DWORD PTR [esi+16], eax
  00018	88 06		 mov	 BYTE PTR [esi], al
  0001a	e8 00 00 00 00	 call	 ?assign@?$basic_string@DU?$char_traits@D@std@@V?$allocator@D@2@@std@@QAEAAV12@ABV12@II@Z ; std::basic_string<char,std::char_traits<char>,std::allocator<char> >::assign

; 546  : 		}

  0001f	8b c6		 mov	 eax, esi
  00021	5e		 pop	 esi
  00022	5d		 pop	 ebp
  00023	c2 04 00	 ret	 4
??0?$basic_string@DU?$char_traits@D@std@@V?$allocator@D@2@@std@@QAE@ABV01@@Z ENDP ; std::basic_string<char,std::char_traits<char>,std::allocator<char> >::basic_string<char,std::char_traits<char>,std::allocator<char> >
_TEXT	ENDS
PUBLIC	?assign@?$basic_string@DU?$char_traits@D@std@@V?$allocator@D@2@@std@@QAEAAV12@PBD@Z ; std::basic_string<char,std::char_traits<char>,std::allocator<char> >::assign
; Function compile flags: /Ogsp
;	COMDAT ?assign@?$basic_string@DU?$char_traits@D@std@@V?$allocator@D@2@@std@@QAEAAV12@PBD@Z
_TEXT	SEGMENT
__Ptr$ = 8						; size = 4
?assign@?$basic_string@DU?$char_traits@D@std@@V?$allocator@D@2@@std@@QAEAAV12@PBD@Z PROC ; std::basic_string<char,std::char_traits<char>,std::allocator<char> >::assign, COMDAT
; _this$ = ecx

; 929  : 		{	// assign [_Ptr, <null>)

  00000	55		 push	 ebp
  00001	8b ec		 mov	 ebp, esp

; 930  : 		_DEBUG_POINTER(_Ptr);
; 931  : 		return (assign(_Ptr, _Traits::length(_Ptr)));

  00003	8b 45 08	 mov	 eax, DWORD PTR __Ptr$[ebp]
  00006	8d 50 01	 lea	 edx, DWORD PTR [eax+1]
  00009	53		 push	 ebx
$LL5@assign@3:
  0000a	8a 18		 mov	 bl, BYTE PTR [eax]
  0000c	40		 inc	 eax
  0000d	84 db		 test	 bl, bl
  0000f	75 f9		 jne	 SHORT $LL5@assign@3
  00011	2b c2		 sub	 eax, edx
  00013	50		 push	 eax
  00014	ff 75 08	 push	 DWORD PTR __Ptr$[ebp]
  00017	e8 00 00 00 00	 call	 ?assign@?$basic_string@DU?$char_traits@D@std@@V?$allocator@D@2@@std@@QAEAAV12@PBDI@Z ; std::basic_string<char,std::char_traits<char>,std::allocator<char> >::assign
  0001c	5b		 pop	 ebx

; 932  : 		}

  0001d	5d		 pop	 ebp
  0001e	c2 04 00	 ret	 4
?assign@?$basic_string@DU?$char_traits@D@std@@V?$allocator@D@2@@std@@QAEAAV12@PBD@Z ENDP ; std::basic_string<char,std::char_traits<char>,std::allocator<char> >::assign
_TEXT	ENDS
PUBLIC	?destroy@?$allocator@V?$basic_string@DU?$char_traits@D@std@@V?$allocator@D@2@@std@@@std@@QAEXPAV?$basic_string@DU?$char_traits@D@std@@V?$allocator@D@2@@2@@Z ; std::allocator<std::basic_string<char,std::char_traits<char>,std::allocator<char> > >::destroy
; Function compile flags: /Ogsp
; File c:\program files (x86)\microsoft visual studio 10.0\vc\include\xmemory
;	COMDAT ?destroy@?$allocator@V?$basic_string@DU?$char_traits@D@std@@V?$allocator@D@2@@std@@@std@@QAEXPAV?$basic_string@DU?$char_traits@D@std@@V?$allocator@D@2@@2@@Z
_TEXT	SEGMENT
__Ptr$ = 8						; size = 4
?destroy@?$allocator@V?$basic_string@DU?$char_traits@D@std@@V?$allocator@D@2@@std@@@std@@QAEXPAV?$basic_string@DU?$char_traits@D@std@@V?$allocator@D@2@@2@@Z PROC ; std::allocator<std::basic_string<char,std::char_traits<char>,std::allocator<char> > >::destroy, COMDAT
; _this$ = ecx

; 212  : 		{	// destroy object at _Ptr

  00000	55		 push	 ebp
  00001	8b ec		 mov	 ebp, esp

; 213  : 		_Destroy(_Ptr);

  00003	8b 4d 08	 mov	 ecx, DWORD PTR __Ptr$[ebp]
  00006	6a 00		 push	 0
  00008	6a 01		 push	 1
  0000a	e8 00 00 00 00	 call	 ?_Tidy@?$basic_string@DU?$char_traits@D@std@@V?$allocator@D@2@@std@@QAEX_NI@Z ; std::basic_string<char,std::char_traits<char>,std::allocator<char> >::_Tidy

; 214  : 		}

  0000f	5d		 pop	 ebp
  00010	c2 04 00	 ret	 4
?destroy@?$allocator@V?$basic_string@DU?$char_traits@D@std@@V?$allocator@D@2@@std@@@std@@QAEXPAV?$basic_string@DU?$char_traits@D@std@@V?$allocator@D@2@@2@@Z ENDP ; std::allocator<std::basic_string<char,std::char_traits<char>,std::allocator<char> > >::destroy
_TEXT	ENDS
PUBLIC	?_Destroy@?$vector@UAniEventInfo@@V?$allocator@UAniEventInfo@@@std@@@std@@IAEXPAUAniEventInfo@@0@Z ; std::vector<AniEventInfo,std::allocator<AniEventInfo> >::_Destroy
; Function compile flags: /Ogsp
; File c:\program files (x86)\microsoft visual studio 10.0\vc\include\vector
;	COMDAT ?_Destroy@?$vector@UAniEventInfo@@V?$allocator@UAniEventInfo@@@std@@@std@@IAEXPAUAniEventInfo@@0@Z
_TEXT	SEGMENT
__First$ = 8						; size = 4
__Last$ = 12						; size = 4
?_Destroy@?$vector@UAniEventInfo@@V?$allocator@UAniEventInfo@@@std@@@std@@IAEXPAUAniEventInfo@@0@Z PROC ; std::vector<AniEventInfo,std::allocator<AniEventInfo> >::_Destroy, COMDAT
; _this$ = ecx

; 1269 : 		{	// destroy [_First, _Last) using allocator

  00000	55		 push	 ebp
  00001	8b ec		 mov	 ebp, esp
  00003	56		 push	 esi

; 1270 : 		_Destroy_range(_First, _Last, this->_Alval);

  00004	8b 75 08	 mov	 esi, DWORD PTR __First$[ebp]
  00007	eb 0a		 jmp	 SHORT $LN23@Destroy
$LL9@Destroy:
  00009	8b ce		 mov	 ecx, esi
  0000b	e8 00 00 00 00	 call	 ??1AniEventInfo@@QAE@XZ
  00010	83 c6 20	 add	 esi, 32			; 00000020H
$LN23@Destroy:
  00013	3b 75 0c	 cmp	 esi, DWORD PTR __Last$[ebp]
  00016	75 f1		 jne	 SHORT $LL9@Destroy
  00018	5e		 pop	 esi

; 1271 : 		}

  00019	5d		 pop	 ebp
  0001a	c2 08 00	 ret	 8
?_Destroy@?$vector@UAniEventInfo@@V?$allocator@UAniEventInfo@@@std@@@std@@IAEXPAUAniEventInfo@@0@Z ENDP ; std::vector<AniEventInfo,std::allocator<AniEventInfo> >::_Destroy
_TEXT	ENDS
PUBLIC	?_Tidy@?$vector@UAniEventInfo@@V?$allocator@UAniEventInfo@@@std@@@std@@IAEXXZ ; std::vector<AniEventInfo,std::allocator<AniEventInfo> >::_Tidy
EXTRN	__imp_?_Orphan_all@_Container_base0@std@@QAEXXZ:PROC
; Function compile flags: /Ogsp
;	COMDAT ?_Tidy@?$vector@UAniEventInfo@@V?$allocator@UAniEventInfo@@@std@@@std@@IAEXXZ
_TEXT	SEGMENT
?_Tidy@?$vector@UAniEventInfo@@V?$allocator@UAniEventInfo@@@std@@@std@@IAEXXZ PROC ; std::vector<AniEventInfo,std::allocator<AniEventInfo> >::_Tidy, COMDAT
; _this$ = ecx

; 1301 : 		{	// free all storage

  00000	56		 push	 esi
  00001	8b f1		 mov	 esi, ecx

; 1302 : 		if (this->_Myfirst != 0)

  00003	83 3e 00	 cmp	 DWORD PTR [esi], 0
  00006	74 27		 je	 SHORT $LN24@Tidy@2

; 1303 : 			{	// something to free, destroy and deallocate it
; 1304 : 			this->_Orphan_all();

  00008	53		 push	 ebx
  00009	57		 push	 edi
  0000a	ff 15 00 00 00
	00		 call	 DWORD PTR __imp_?_Orphan_all@_Container_base0@std@@QAEXXZ

; 1305 : 			_Destroy(this->_Myfirst, this->_Mylast);

  00010	8b 5e 04	 mov	 ebx, DWORD PTR [esi+4]
  00013	8b 3e		 mov	 edi, DWORD PTR [esi]
  00015	eb 0a		 jmp	 SHORT $LN28@Tidy@2
$LL12@Tidy@2:
  00017	8b cf		 mov	 ecx, edi
  00019	e8 00 00 00 00	 call	 ??1AniEventInfo@@QAE@XZ
  0001e	83 c7 20	 add	 edi, 32			; 00000020H
$LN28@Tidy@2:
  00021	3b fb		 cmp	 edi, ebx
  00023	75 f2		 jne	 SHORT $LL12@Tidy@2

; 1306 : 			this->_Alval.deallocate(this->_Myfirst,
; 1307 : 				this->_Myend - this->_Myfirst);

  00025	ff 36		 push	 DWORD PTR [esi]
  00027	e8 00 00 00 00	 call	 ??3@YAXPAX@Z		; operator delete
  0002c	59		 pop	 ecx
  0002d	5f		 pop	 edi
  0002e	5b		 pop	 ebx
$LN24@Tidy@2:

; 1308 : 			}
; 1309 : 		this->_Myfirst = 0;

  0002f	33 c0		 xor	 eax, eax
  00031	89 06		 mov	 DWORD PTR [esi], eax

; 1310 : 		this->_Mylast = 0;

  00033	89 46 04	 mov	 DWORD PTR [esi+4], eax

; 1311 : 		this->_Myend = 0;

  00036	89 46 08	 mov	 DWORD PTR [esi+8], eax
  00039	5e		 pop	 esi

; 1312 : 		}

  0003a	c3		 ret	 0
?_Tidy@?$vector@UAniEventInfo@@V?$allocator@UAniEventInfo@@@std@@@std@@IAEXXZ ENDP ; std::vector<AniEventInfo,std::allocator<AniEventInfo> >::_Tidy
_TEXT	ENDS
PUBLIC	?_Destroy@?$vector@UtagAniSoundEventInfo@@V?$allocator@UtagAniSoundEventInfo@@@std@@@std@@IAEXPAUtagAniSoundEventInfo@@0@Z ; std::vector<tagAniSoundEventInfo,std::allocator<tagAniSoundEventInfo> >::_Destroy
; Function compile flags: /Ogsp
;	COMDAT ?_Destroy@?$vector@UtagAniSoundEventInfo@@V?$allocator@UtagAniSoundEventInfo@@@std@@@std@@IAEXPAUtagAniSoundEventInfo@@0@Z
_TEXT	SEGMENT
__First$ = 8						; size = 4
__Last$ = 12						; size = 4
?_Destroy@?$vector@UtagAniSoundEventInfo@@V?$allocator@UtagAniSoundEventInfo@@@std@@@std@@IAEXPAUtagAniSoundEventInfo@@0@Z PROC ; std::vector<tagAniSoundEventInfo,std::allocator<tagAniSoundEventInfo> >::_Destroy, COMDAT
; _this$ = ecx

; 1269 : 		{	// destroy [_First, _Last) using allocator

  00000	55		 push	 ebp
  00001	8b ec		 mov	 ebp, esp
  00003	56		 push	 esi

; 1270 : 		_Destroy_range(_First, _Last, this->_Alval);

  00004	8b 75 08	 mov	 esi, DWORD PTR __First$[ebp]
  00007	eb 0a		 jmp	 SHORT $LN23@Destroy@2
$LL9@Destroy@2:
  00009	8b ce		 mov	 ecx, esi
  0000b	e8 00 00 00 00	 call	 ??1tagAniSoundEventInfo@@QAE@XZ
  00010	83 c6 24	 add	 esi, 36			; 00000024H
$LN23@Destroy@2:
  00013	3b 75 0c	 cmp	 esi, DWORD PTR __Last$[ebp]
  00016	75 f1		 jne	 SHORT $LL9@Destroy@2
  00018	5e		 pop	 esi

; 1271 : 		}

  00019	5d		 pop	 ebp
  0001a	c2 08 00	 ret	 8
?_Destroy@?$vector@UtagAniSoundEventInfo@@V?$allocator@UtagAniSoundEventInfo@@@std@@@std@@IAEXPAUtagAniSoundEventInfo@@0@Z ENDP ; std::vector<tagAniSoundEventInfo,std::allocator<tagAniSoundEventInfo> >::_Destroy
_TEXT	ENDS
PUBLIC	?_Tidy@?$vector@UtagAniSoundEventInfo@@V?$allocator@UtagAniSoundEventInfo@@@std@@@std@@IAEXXZ ; std::vector<tagAniSoundEventInfo,std::allocator<tagAniSoundEventInfo> >::_Tidy
; Function compile flags: /Ogsp
;	COMDAT ?_Tidy@?$vector@UtagAniSoundEventInfo@@V?$allocator@UtagAniSoundEventInfo@@@std@@@std@@IAEXXZ
_TEXT	SEGMENT
?_Tidy@?$vector@UtagAniSoundEventInfo@@V?$allocator@UtagAniSoundEventInfo@@@std@@@std@@IAEXXZ PROC ; std::vector<tagAniSoundEventInfo,std::allocator<tagAniSoundEventInfo> >::_Tidy, COMDAT
; _this$ = ecx

; 1301 : 		{	// free all storage

  00000	56		 push	 esi
  00001	8b f1		 mov	 esi, ecx

; 1302 : 		if (this->_Myfirst != 0)

  00003	83 3e 00	 cmp	 DWORD PTR [esi], 0
  00006	74 27		 je	 SHORT $LN24@Tidy@3

; 1303 : 			{	// something to free, destroy and deallocate it
; 1304 : 			this->_Orphan_all();

  00008	53		 push	 ebx
  00009	57		 push	 edi
  0000a	ff 15 00 00 00
	00		 call	 DWORD PTR __imp_?_Orphan_all@_Container_base0@std@@QAEXXZ

; 1305 : 			_Destroy(this->_Myfirst, this->_Mylast);

  00010	8b 5e 04	 mov	 ebx, DWORD PTR [esi+4]
  00013	8b 3e		 mov	 edi, DWORD PTR [esi]
  00015	eb 0a		 jmp	 SHORT $LN28@Tidy@3
$LL12@Tidy@3:
  00017	8b cf		 mov	 ecx, edi
  00019	e8 00 00 00 00	 call	 ??1tagAniSoundEventInfo@@QAE@XZ
  0001e	83 c7 24	 add	 edi, 36			; 00000024H
$LN28@Tidy@3:
  00021	3b fb		 cmp	 edi, ebx
  00023	75 f2		 jne	 SHORT $LL12@Tidy@3

; 1306 : 			this->_Alval.deallocate(this->_Myfirst,
; 1307 : 				this->_Myend - this->_Myfirst);

  00025	ff 36		 push	 DWORD PTR [esi]
  00027	e8 00 00 00 00	 call	 ??3@YAXPAX@Z		; operator delete
  0002c	59		 pop	 ecx
  0002d	5f		 pop	 edi
  0002e	5b		 pop	 ebx
$LN24@Tidy@3:

; 1308 : 			}
; 1309 : 		this->_Myfirst = 0;

  0002f	33 c0		 xor	 eax, eax
  00031	89 06		 mov	 DWORD PTR [esi], eax

; 1310 : 		this->_Mylast = 0;

  00033	89 46 04	 mov	 DWORD PTR [esi+4], eax

; 1311 : 		this->_Myend = 0;

  00036	89 46 08	 mov	 DWORD PTR [esi+8], eax
  00039	5e		 pop	 esi

; 1312 : 		}

  0003a	c3		 ret	 0
?_Tidy@?$vector@UtagAniSoundEventInfo@@V?$allocator@UtagAniSoundEventInfo@@@std@@@std@@IAEXXZ ENDP ; std::vector<tagAniSoundEventInfo,std::allocator<tagAniSoundEventInfo> >::_Tidy
_TEXT	ENDS
PUBLIC	?reserve@?$vector@UAniEventInfo@@V?$allocator@UAniEventInfo@@@std@@@std@@QAEXI@Z ; std::vector<AniEventInfo,std::allocator<AniEventInfo> >::reserve
;	COMDAT xdata$x
; File c:\program files (x86)\microsoft visual studio 10.0\vc\include\xmemory
xdata$x	SEGMENT
__catchsym$?reserve@?$vector@UAniEventInfo@@V?$allocator@UAniEventInfo@@@std@@@std@@QAEXI@Z$2 DD 040H
	DD	00H
	DD	00H
	DD	FLAT:__catch$?reserve@?$vector@UAniEventInfo@@V?$allocator@UAniEventInfo@@@std@@@std@@QAEXI@Z$0
__unwindtable$?reserve@?$vector@UAniEventInfo@@V?$allocator@UAniEventInfo@@@std@@@std@@QAEXI@Z DD 0ffffffffH
	DD	00H
	DD	0ffffffffH
	DD	00H
__tryblocktable$?reserve@?$vector@UAniEventInfo@@V?$allocator@UAniEventInfo@@@std@@@std@@QAEXI@Z DD 00H
	DD	00H
	DD	01H
	DD	01H
	DD	FLAT:__catchsym$?reserve@?$vector@UAniEventInfo@@V?$allocator@UAniEventInfo@@@std@@@std@@QAEXI@Z$2
__ehfuncinfo$?reserve@?$vector@UAniEventInfo@@V?$allocator@UAniEventInfo@@@std@@@std@@QAEXI@Z DD 019930522H
	DD	02H
	DD	FLAT:__unwindtable$?reserve@?$vector@UAniEventInfo@@V?$allocator@UAniEventInfo@@@std@@@std@@QAEXI@Z
	DD	01H
	DD	FLAT:__tryblocktable$?reserve@?$vector@UAniEventInfo@@V?$allocator@UAniEventInfo@@@std@@@std@@QAEXI@Z
	DD	2 DUP(00H)
	DD	00H
	DD	01H
; Function compile flags: /Ogsp
; File c:\program files (x86)\microsoft visual studio 10.0\vc\include\vector
xdata$x	ENDS
;	COMDAT ?reserve@?$vector@UAniEventInfo@@V?$allocator@UAniEventInfo@@@std@@@std@@QAEXI@Z
_TEXT	SEGMENT
tv300 = -24						; size = 4
__Ptr$528190 = -20					; size = 4
__$EHRec$ = -16						; size = 16
$T534577 = 8						; size = 4
__Count$ = 8						; size = 4
?reserve@?$vector@UAniEventInfo@@V?$allocator@UAniEventInfo@@@std@@@std@@QAEXI@Z PROC ; std::vector<AniEventInfo,std::allocator<AniEventInfo> >::reserve, COMDAT
; _this$ = ecx

; 746  : 		{	// determine new minimum length of allocated storage

  00000	6a 0c		 push	 12			; 0000000cH
  00002	b8 00 00 00 00	 mov	 eax, __ehhandler$?reserve@?$vector@UAniEventInfo@@V?$allocator@UAniEventInfo@@@std@@@std@@QAEXI@Z
  00007	e8 00 00 00 00	 call	 __EH_prolog3_catch
  0000c	8b f1		 mov	 esi, ecx

; 747  : 		if (max_size() < _Count)

  0000e	8b 5d 08	 mov	 ebx, DWORD PTR __Count$[ebp]
  00011	81 fb ff ff ff
	07		 cmp	 ebx, 134217727		; 07ffffffH
  00017	76 0b		 jbe	 SHORT $LN5@reserve

; 748  : 			_Xlen();	// result too long

  00019	68 00 00 00 00	 push	 OFFSET ??_C@_0BD@OLBABOEK@vector?$DMT?$DO?5too?5long?$AA@
  0001e	ff 15 00 00 00
	00		 call	 DWORD PTR __imp_?_Xlength_error@std@@YAXPBD@Z
$LN59@reserve:
$LN5@reserve:

; 749  : 		else if (capacity() < _Count)

  00024	8b 46 08	 mov	 eax, DWORD PTR [esi+8]
  00027	2b 06		 sub	 eax, DWORD PTR [esi]
  00029	c1 f8 05	 sar	 eax, 5
  0002c	3b c3		 cmp	 eax, ebx
  0002e	73 79		 jae	 SHORT $LN3@reserve

; 750  : 			{	// not enough room, reallocate
; 751  : 			pointer _Ptr = this->_Alval.allocate(_Count);

  00030	6a 00		 push	 0
  00032	53		 push	 ebx
  00033	e8 00 00 00 00	 call	 ??$_Allocate@UAniEventInfo@@@std@@YAPAUAniEventInfo@@IPAU1@@Z ; std::_Allocate<AniEventInfo>

; 752  : 
; 753  : 			_TRY_BEGIN
; 754  : 			_Umove(this->_Myfirst, this->_Mylast, _Ptr);

  00038	8b 0e		 mov	 ecx, DWORD PTR [esi]
  0003a	83 65 fc 00	 and	 DWORD PTR __$EHRec$[ebp+12], 0
  0003e	8d 56 0c	 lea	 edx, DWORD PTR [esi+12]
  00041	52		 push	 edx
  00042	89 45 ec	 mov	 DWORD PTR __Ptr$528190[ebp], eax
  00045	ff 75 ec	 push	 DWORD PTR __Ptr$528190[ebp]
  00048	8b 46 04	 mov	 eax, DWORD PTR [esi+4]
  0004b	50		 push	 eax
  0004c	51		 push	 ecx
  0004d	e8 00 00 00 00	 call	 ??$_Uninitialized_move@PAUAniEventInfo@@PAU1@V?$allocator@UAniEventInfo@@@std@@@std@@YAPAUAniEventInfo@@PAU1@00AAV?$allocator@UAniEventInfo@@@0@@Z ; std::_Uninitialized_move<AniEventInfo *,AniEventInfo *,std::allocator<AniEventInfo> >

; 758  : 			_CATCH_END
; 759  : 
; 760  : 			size_type _Size = size();

  00052	8b 4e 04	 mov	 ecx, DWORD PTR [esi+4]
  00055	8b 06		 mov	 eax, DWORD PTR [esi]
  00057	83 4d fc ff	 or	 DWORD PTR __$EHRec$[ebp+12], -1
  0005b	8b f9		 mov	 edi, ecx
  0005d	83 c4 18	 add	 esp, 24			; 00000018H
  00060	2b f8		 sub	 edi, eax
  00062	89 4d e8	 mov	 DWORD PTR tv300[ebp], ecx
  00065	85 c0		 test	 eax, eax
  00067	74 23		 je	 SHORT $LN51@reserve

; 761  : 			if (this->_Myfirst != 0)
; 762  : 				{	// destroy and deallocate old array
; 763  : 				_Destroy(this->_Myfirst, this->_Mylast);

  00069	89 45 08	 mov	 DWORD PTR $T534577[ebp], eax
  0006c	3b c1		 cmp	 eax, ecx
  0006e	74 14		 je	 SHORT $LN37@reserve
$LN39@reserve:
  00070	8b 4d 08	 mov	 ecx, DWORD PTR $T534577[ebp]
  00073	e8 00 00 00 00	 call	 ??1AniEventInfo@@QAE@XZ
  00078	83 45 08 20	 add	 DWORD PTR $T534577[ebp], 32 ; 00000020H
  0007c	8b 45 08	 mov	 eax, DWORD PTR $T534577[ebp]
  0007f	3b 45 e8	 cmp	 eax, DWORD PTR tv300[ebp]
  00082	75 ec		 jne	 SHORT $LN39@reserve
$LN37@reserve:

; 764  : 				this->_Alval.deallocate(this->_Myfirst,
; 765  : 					this->_Myend - this->_Myfirst);

  00084	ff 36		 push	 DWORD PTR [esi]
  00086	e8 00 00 00 00	 call	 ??3@YAXPAX@Z		; operator delete
  0008b	59		 pop	 ecx
$LN51@reserve:

; 766  : 				}
; 767  : 
; 768  : 			this->_Orphan_all();

  0008c	8b ce		 mov	 ecx, esi
  0008e	ff 15 00 00 00
	00		 call	 DWORD PTR __imp_?_Orphan_all@_Container_base0@std@@QAEXXZ

; 769  : 			this->_Myend = _Ptr + _Count;

  00094	8b 45 ec	 mov	 eax, DWORD PTR __Ptr$528190[ebp]
  00097	c1 e3 05	 shl	 ebx, 5
  0009a	03 d8		 add	 ebx, eax

; 770  : 			this->_Mylast = _Ptr + _Size;

  0009c	83 e7 e0	 and	 edi, -32		; ffffffe0H
  0009f	03 f8		 add	 edi, eax
  000a1	89 5e 08	 mov	 DWORD PTR [esi+8], ebx
  000a4	89 7e 04	 mov	 DWORD PTR [esi+4], edi

; 771  : 			this->_Myfirst = _Ptr;

  000a7	89 06		 mov	 DWORD PTR [esi], eax
$LN3@reserve:

; 772  : 			}
; 773  : 		}

  000a9	e8 00 00 00 00	 call	 __EH_epilog3
  000ae	c2 04 00	 ret	 4
__catch$?reserve@?$vector@UAniEventInfo@@V?$allocator@UAniEventInfo@@@std@@@std@@QAEXI@Z$0:

; 755  : 			_CATCH_ALL
; 756  : 			this->_Alval.deallocate(_Ptr, _Count);

  000b1	ff 75 ec	 push	 DWORD PTR __Ptr$528190[ebp]
  000b4	e8 00 00 00 00	 call	 ??3@YAXPAX@Z		; operator delete
  000b9	59		 pop	 ecx

; 757  : 			_RERAISE;

  000ba	6a 00		 push	 0
  000bc	6a 00		 push	 0
  000be	e8 00 00 00 00	 call	 __CxxThrowException@8
$LN60@reserve:
$LN58@reserve:
  000c3	cc		 int	 3
_TEXT	ENDS
;	COMDAT text$x
text$x	SEGMENT
__ehhandler$?reserve@?$vector@UAniEventInfo@@V?$allocator@UAniEventInfo@@@std@@@std@@QAEXI@Z:
  00000	8b 54 24 08	 mov	 edx, DWORD PTR [esp+8]
  00004	8d 42 0c	 lea	 eax, DWORD PTR [edx+12]
  00007	8b 4a e4	 mov	 ecx, DWORD PTR [edx-28]
  0000a	33 c8		 xor	 ecx, eax
  0000c	e8 00 00 00 00	 call	 @__security_check_cookie@4
  00011	b8 00 00 00 00	 mov	 eax, OFFSET __ehfuncinfo$?reserve@?$vector@UAniEventInfo@@V?$allocator@UAniEventInfo@@@std@@@std@@QAEXI@Z
  00016	e9 00 00 00 00	 jmp	 ___CxxFrameHandler3
text$x	ENDS
?reserve@?$vector@UAniEventInfo@@V?$allocator@UAniEventInfo@@@std@@@std@@QAEXI@Z ENDP ; std::vector<AniEventInfo,std::allocator<AniEventInfo> >::reserve
PUBLIC	?reserve@?$vector@UtagAniSoundEventInfo@@V?$allocator@UtagAniSoundEventInfo@@@std@@@std@@QAEXI@Z ; std::vector<tagAniSoundEventInfo,std::allocator<tagAniSoundEventInfo> >::reserve
;	COMDAT xdata$x
; File c:\program files (x86)\microsoft visual studio 10.0\vc\include\xmemory
xdata$x	SEGMENT
__catchsym$?reserve@?$vector@UtagAniSoundEventInfo@@V?$allocator@UtagAniSoundEventInfo@@@std@@@std@@QAEXI@Z$2 DD 040H
	DD	00H
	DD	00H
	DD	FLAT:__catch$?reserve@?$vector@UtagAniSoundEventInfo@@V?$allocator@UtagAniSoundEventInfo@@@std@@@std@@QAEXI@Z$0
__unwindtable$?reserve@?$vector@UtagAniSoundEventInfo@@V?$allocator@UtagAniSoundEventInfo@@@std@@@std@@QAEXI@Z DD 0ffffffffH
	DD	00H
	DD	0ffffffffH
	DD	00H
__tryblocktable$?reserve@?$vector@UtagAniSoundEventInfo@@V?$allocator@UtagAniSoundEventInfo@@@std@@@std@@QAEXI@Z DD 00H
	DD	00H
	DD	01H
	DD	01H
	DD	FLAT:__catchsym$?reserve@?$vector@UtagAniSoundEventInfo@@V?$allocator@UtagAniSoundEventInfo@@@std@@@std@@QAEXI@Z$2
__ehfuncinfo$?reserve@?$vector@UtagAniSoundEventInfo@@V?$allocator@UtagAniSoundEventInfo@@@std@@@std@@QAEXI@Z DD 019930522H
	DD	02H
	DD	FLAT:__unwindtable$?reserve@?$vector@UtagAniSoundEventInfo@@V?$allocator@UtagAniSoundEventInfo@@@std@@@std@@QAEXI@Z
	DD	01H
	DD	FLAT:__tryblocktable$?reserve@?$vector@UtagAniSoundEventInfo@@V?$allocator@UtagAniSoundEventInfo@@@std@@@std@@QAEXI@Z
	DD	2 DUP(00H)
	DD	00H
	DD	01H
; Function compile flags: /Ogsp
; File c:\program files (x86)\microsoft visual studio 10.0\vc\include\vector
xdata$x	ENDS
;	COMDAT ?reserve@?$vector@UtagAniSoundEventInfo@@V?$allocator@UtagAniSoundEventInfo@@@std@@@std@@QAEXI@Z
_TEXT	SEGMENT
__Ptr$528220 = -24					; size = 4
$T534735 = -20						; size = 4
__$EHRec$ = -16						; size = 16
__Count$ = 8						; size = 4
?reserve@?$vector@UtagAniSoundEventInfo@@V?$allocator@UtagAniSoundEventInfo@@@std@@@std@@QAEXI@Z PROC ; std::vector<tagAniSoundEventInfo,std::allocator<tagAniSoundEventInfo> >::reserve, COMDAT
; _this$ = ecx

; 746  : 		{	// determine new minimum length of allocated storage

  00000	6a 0c		 push	 12			; 0000000cH
  00002	b8 00 00 00 00	 mov	 eax, __ehhandler$?reserve@?$vector@UtagAniSoundEventInfo@@V?$allocator@UtagAniSoundEventInfo@@@std@@@std@@QAEXI@Z
  00007	e8 00 00 00 00	 call	 __EH_prolog3_catch
  0000c	8b f1		 mov	 esi, ecx

; 747  : 		if (max_size() < _Count)

  0000e	81 7d 08 c7 71
	1c 07		 cmp	 DWORD PTR __Count$[ebp], 119304647 ; 071c71c7H
  00015	76 0b		 jbe	 SHORT $LN5@reserve@2

; 748  : 			_Xlen();	// result too long

  00017	68 00 00 00 00	 push	 OFFSET ??_C@_0BD@OLBABOEK@vector?$DMT?$DO?5too?5long?$AA@
  0001c	ff 15 00 00 00
	00		 call	 DWORD PTR __imp_?_Xlength_error@std@@YAXPBD@Z
$LN59@reserve@2:
$LN5@reserve@2:

; 749  : 		else if (capacity() < _Count)

  00022	8b 46 08	 mov	 eax, DWORD PTR [esi+8]
  00025	2b 06		 sub	 eax, DWORD PTR [esi]
  00027	6a 24		 push	 36			; 00000024H
  00029	99		 cdq
  0002a	59		 pop	 ecx
  0002b	f7 f9		 idiv	 ecx
  0002d	3b 45 08	 cmp	 eax, DWORD PTR __Count$[ebp]
  00030	0f 83 80 00 00
	00		 jae	 $LN3@reserve@2

; 750  : 			{	// not enough room, reallocate
; 751  : 			pointer _Ptr = this->_Alval.allocate(_Count);

  00036	6a 00		 push	 0
  00038	ff 75 08	 push	 DWORD PTR __Count$[ebp]
  0003b	e8 00 00 00 00	 call	 ??$_Allocate@UtagAniSoundEventInfo@@@std@@YAPAUtagAniSoundEventInfo@@IPAU1@@Z ; std::_Allocate<tagAniSoundEventInfo>

; 752  : 
; 753  : 			_TRY_BEGIN
; 754  : 			_Umove(this->_Myfirst, this->_Mylast, _Ptr);

  00040	8b 0e		 mov	 ecx, DWORD PTR [esi]
  00042	83 65 fc 00	 and	 DWORD PTR __$EHRec$[ebp+12], 0
  00046	8d 56 0c	 lea	 edx, DWORD PTR [esi+12]
  00049	52		 push	 edx
  0004a	89 45 e8	 mov	 DWORD PTR __Ptr$528220[ebp], eax
  0004d	ff 75 e8	 push	 DWORD PTR __Ptr$528220[ebp]
  00050	8b 46 04	 mov	 eax, DWORD PTR [esi+4]
  00053	50		 push	 eax
  00054	51		 push	 ecx
  00055	e8 00 00 00 00	 call	 ??$_Uninitialized_move@PAUtagAniSoundEventInfo@@PAU1@V?$allocator@UtagAniSoundEventInfo@@@std@@@std@@YAPAUtagAniSoundEventInfo@@PAU1@00AAV?$allocator@UtagAniSoundEventInfo@@@0@@Z ; std::_Uninitialized_move<tagAniSoundEventInfo *,tagAniSoundEventInfo *,std::allocator<tagAniSoundEventInfo> >

; 758  : 			_CATCH_END
; 759  : 
; 760  : 			size_type _Size = size();

  0005a	8b 5e 04	 mov	 ebx, DWORD PTR [esi+4]
  0005d	8b 0e		 mov	 ecx, DWORD PTR [esi]
  0005f	83 c4 18	 add	 esp, 24			; 00000018H
  00062	8b c3		 mov	 eax, ebx
  00064	2b c1		 sub	 eax, ecx
  00066	6a 24		 push	 36			; 00000024H
  00068	99		 cdq
  00069	5f		 pop	 edi
  0006a	f7 ff		 idiv	 edi
  0006c	83 4d fc ff	 or	 DWORD PTR __$EHRec$[ebp+12], -1
  00070	8b f8		 mov	 edi, eax
  00072	85 c9		 test	 ecx, ecx
  00074	74 20		 je	 SHORT $LN51@reserve@2

; 761  : 			if (this->_Myfirst != 0)
; 762  : 				{	// destroy and deallocate old array
; 763  : 				_Destroy(this->_Myfirst, this->_Mylast);

  00076	89 4d ec	 mov	 DWORD PTR $T534735[ebp], ecx
  00079	3b cb		 cmp	 ecx, ebx
  0007b	74 11		 je	 SHORT $LN37@reserve@2
$LN39@reserve@2:
  0007d	8b 4d ec	 mov	 ecx, DWORD PTR $T534735[ebp]
  00080	e8 00 00 00 00	 call	 ??1tagAniSoundEventInfo@@QAE@XZ
  00085	83 45 ec 24	 add	 DWORD PTR $T534735[ebp], 36 ; 00000024H
  00089	39 5d ec	 cmp	 DWORD PTR $T534735[ebp], ebx
  0008c	75 ef		 jne	 SHORT $LN39@reserve@2
$LN37@reserve@2:

; 764  : 				this->_Alval.deallocate(this->_Myfirst,
; 765  : 					this->_Myend - this->_Myfirst);

  0008e	ff 36		 push	 DWORD PTR [esi]
  00090	e8 00 00 00 00	 call	 ??3@YAXPAX@Z		; operator delete
  00095	59		 pop	 ecx
$LN51@reserve@2:

; 766  : 				}
; 767  : 
; 768  : 			this->_Orphan_all();

  00096	8b ce		 mov	 ecx, esi
  00098	ff 15 00 00 00
	00		 call	 DWORD PTR __imp_?_Orphan_all@_Container_base0@std@@QAEXXZ

; 769  : 			this->_Myend = _Ptr + _Count;
; 770  : 			this->_Mylast = _Ptr + _Size;

  0009e	6b ff 24	 imul	 edi, 36			; 00000024H
  000a1	8b 45 08	 mov	 eax, DWORD PTR __Count$[ebp]
  000a4	8b 4d e8	 mov	 ecx, DWORD PTR __Ptr$528220[ebp]
  000a7	6b c0 24	 imul	 eax, 36			; 00000024H
  000aa	03 c1		 add	 eax, ecx
  000ac	03 f9		 add	 edi, ecx
  000ae	89 46 08	 mov	 DWORD PTR [esi+8], eax
  000b1	89 7e 04	 mov	 DWORD PTR [esi+4], edi

; 771  : 			this->_Myfirst = _Ptr;

  000b4	89 0e		 mov	 DWORD PTR [esi], ecx
$LN3@reserve@2:

; 772  : 			}
; 773  : 		}

  000b6	e8 00 00 00 00	 call	 __EH_epilog3
  000bb	c2 04 00	 ret	 4
__catch$?reserve@?$vector@UtagAniSoundEventInfo@@V?$allocator@UtagAniSoundEventInfo@@@std@@@std@@QAEXI@Z$0:

; 755  : 			_CATCH_ALL
; 756  : 			this->_Alval.deallocate(_Ptr, _Count);

  000be	ff 75 e8	 push	 DWORD PTR __Ptr$528220[ebp]
  000c1	e8 00 00 00 00	 call	 ??3@YAXPAX@Z		; operator delete
  000c6	59		 pop	 ecx

; 757  : 			_RERAISE;

  000c7	6a 00		 push	 0
  000c9	6a 00		 push	 0
  000cb	e8 00 00 00 00	 call	 __CxxThrowException@8
$LN60@reserve@2:
$LN58@reserve@2:
  000d0	cc		 int	 3
_TEXT	ENDS
;	COMDAT text$x
text$x	SEGMENT
__ehhandler$?reserve@?$vector@UtagAniSoundEventInfo@@V?$allocator@UtagAniSoundEventInfo@@@std@@@std@@QAEXI@Z:
  00000	8b 54 24 08	 mov	 edx, DWORD PTR [esp+8]
  00004	8d 42 0c	 lea	 eax, DWORD PTR [edx+12]
  00007	8b 4a e4	 mov	 ecx, DWORD PTR [edx-28]
  0000a	33 c8		 xor	 ecx, eax
  0000c	e8 00 00 00 00	 call	 @__security_check_cookie@4
  00011	b8 00 00 00 00	 mov	 eax, OFFSET __ehfuncinfo$?reserve@?$vector@UtagAniSoundEventInfo@@V?$allocator@UtagAniSoundEventInfo@@@std@@@std@@QAEXI@Z
  00016	e9 00 00 00 00	 jmp	 ___CxxFrameHandler3
text$x	ENDS
?reserve@?$vector@UtagAniSoundEventInfo@@V?$allocator@UtagAniSoundEventInfo@@@std@@@std@@QAEXI@Z ENDP ; std::vector<tagAniSoundEventInfo,std::allocator<tagAniSoundEventInfo> >::reserve
PUBLIC	??$_Construct@V?$basic_string@DU?$char_traits@D@std@@V?$allocator@D@2@@std@@ABV12@@std@@YAXPAV?$basic_string@DU?$char_traits@D@std@@V?$allocator@D@2@@0@ABV10@@Z ; std::_Construct<std::basic_string<char,std::char_traits<char>,std::allocator<char> >,std::basic_string<char,std::char_traits<char>,std::allocator<char> > const &>
;	COMDAT xdata$x
; File c:\program files (x86)\microsoft visual studio 10.0\vc\include\utility
xdata$x	SEGMENT
__unwindtable$??$_Construct@V?$basic_string@DU?$char_traits@D@std@@V?$allocator@D@2@@std@@ABV12@@std@@YAXPAV?$basic_string@DU?$char_traits@D@std@@V?$allocator@D@2@@0@ABV10@@Z DD 0ffffffffH
	DD	FLAT:__unwindfunclet$??$_Construct@V?$basic_string@DU?$char_traits@D@std@@V?$allocator@D@2@@std@@ABV12@@std@@YAXPAV?$basic_string@DU?$char_traits@D@std@@V?$allocator@D@2@@0@ABV10@@Z$0
__ehfuncinfo$??$_Construct@V?$basic_string@DU?$char_traits@D@std@@V?$allocator@D@2@@std@@ABV12@@std@@YAXPAV?$basic_string@DU?$char_traits@D@std@@V?$allocator@D@2@@0@ABV10@@Z DD 019930522H
	DD	01H
	DD	FLAT:__unwindtable$??$_Construct@V?$basic_string@DU?$char_traits@D@std@@V?$allocator@D@2@@std@@ABV12@@std@@YAXPAV?$basic_string@DU?$char_traits@D@std@@V?$allocator@D@2@@0@ABV10@@Z
	DD	2 DUP(00H)
	DD	2 DUP(00H)
	DD	00H
	DD	01H
; Function compile flags: /Ogsp
; File c:\program files (x86)\microsoft visual studio 10.0\vc\include\xmemory
xdata$x	ENDS
;	COMDAT ??$_Construct@V?$basic_string@DU?$char_traits@D@std@@V?$allocator@D@2@@std@@ABV12@@std@@YAXPAV?$basic_string@DU?$char_traits@D@std@@V?$allocator@D@2@@0@ABV10@@Z
_TEXT	SEGMENT
$T534803 = -16						; size = 4
__$EHRec$ = -12						; size = 12
__Vptr$ = 8						; size = 4
__Ptr$ = 8						; size = 4
__Val$ = 12						; size = 4
??$_Construct@V?$basic_string@DU?$char_traits@D@std@@V?$allocator@D@2@@std@@ABV12@@std@@YAXPAV?$basic_string@DU?$char_traits@D@std@@V?$allocator@D@2@@0@ABV10@@Z PROC ; std::_Construct<std::basic_string<char,std::char_traits<char>,std::allocator<char> >,std::basic_string<char,std::char_traits<char>,std::allocator<char> > const &>, COMDAT

; 46   : 	{	// construct object at _Ptr with value _Val

  00000	6a 04		 push	 4
  00002	b8 00 00 00 00	 mov	 eax, __ehhandler$??$_Construct@V?$basic_string@DU?$char_traits@D@std@@V?$allocator@D@2@@std@@ABV12@@std@@YAXPAV?$basic_string@DU?$char_traits@D@std@@V?$allocator@D@2@@0@ABV10@@Z
  00007	e8 00 00 00 00	 call	 __EH_prolog3

; 47   : 	void _FARQ *_Vptr = _Ptr;

  0000c	8b 4d 08	 mov	 ecx, DWORD PTR __Ptr$[ebp]
  0000f	89 4d 08	 mov	 DWORD PTR __Vptr$[ebp], ecx

; 48   : 	::new (_Vptr) _Ty1(_STD forward<_Ty2>(_Val));

  00012	89 4d f0	 mov	 DWORD PTR $T534803[ebp], ecx
  00015	83 65 fc 00	 and	 DWORD PTR __$EHRec$[ebp+8], 0
  00019	85 c9		 test	 ecx, ecx
  0001b	74 08		 je	 SHORT $LN3@Construct@3
  0001d	ff 75 0c	 push	 DWORD PTR __Val$[ebp]
  00020	e8 00 00 00 00	 call	 ??0?$basic_string@DU?$char_traits@D@std@@V?$allocator@D@2@@std@@QAE@ABV01@@Z ; std::basic_string<char,std::char_traits<char>,std::allocator<char> >::basic_string<char,std::char_traits<char>,std::allocator<char> >
$LN3@Construct@3:

; 49   : 	}

  00025	e8 00 00 00 00	 call	 __EH_epilog3
  0002a	c3		 ret	 0
_TEXT	ENDS
;	COMDAT text$x
text$x	SEGMENT
__unwindfunclet$??$_Construct@V?$basic_string@DU?$char_traits@D@std@@V?$allocator@D@2@@std@@ABV12@@std@@YAXPAV?$basic_string@DU?$char_traits@D@std@@V?$allocator@D@2@@0@ABV10@@Z$0:
  00000	ff 75 08	 push	 DWORD PTR __Vptr$[ebp]
  00003	ff 75 f0	 push	 DWORD PTR $T534803[ebp]
  00006	e8 00 00 00 00	 call	 ??3@YAXPAX0@Z		; operator delete
  0000b	59		 pop	 ecx
  0000c	59		 pop	 ecx
  0000d	c3		 ret	 0
__ehhandler$??$_Construct@V?$basic_string@DU?$char_traits@D@std@@V?$allocator@D@2@@std@@ABV12@@std@@YAXPAV?$basic_string@DU?$char_traits@D@std@@V?$allocator@D@2@@0@ABV10@@Z:
  0000e	8b 54 24 08	 mov	 edx, DWORD PTR [esp+8]
  00012	8d 42 0c	 lea	 eax, DWORD PTR [edx+12]
  00015	8b 4a ec	 mov	 ecx, DWORD PTR [edx-20]
  00018	33 c8		 xor	 ecx, eax
  0001a	e8 00 00 00 00	 call	 @__security_check_cookie@4
  0001f	b8 00 00 00 00	 mov	 eax, OFFSET __ehfuncinfo$??$_Construct@V?$basic_string@DU?$char_traits@D@std@@V?$allocator@D@2@@std@@ABV12@@std@@YAXPAV?$basic_string@DU?$char_traits@D@std@@V?$allocator@D@2@@0@ABV10@@Z
  00024	e9 00 00 00 00	 jmp	 ___CxxFrameHandler3
text$x	ENDS
??$_Construct@V?$basic_string@DU?$char_traits@D@std@@V?$allocator@D@2@@std@@ABV12@@std@@YAXPAV?$basic_string@DU?$char_traits@D@std@@V?$allocator@D@2@@0@ABV10@@Z ENDP ; std::_Construct<std::basic_string<char,std::char_traits<char>,std::allocator<char> >,std::basic_string<char,std::char_traits<char>,std::allocator<char> > const &>
PUBLIC	??0?$basic_string@DU?$char_traits@D@std@@V?$allocator@D@2@@std@@QAE@PBD@Z ; std::basic_string<char,std::char_traits<char>,std::allocator<char> >::basic_string<char,std::char_traits<char>,std::allocator<char> >
; Function compile flags: /Ogsp
; File c:\program files (x86)\microsoft visual studio 10.0\vc\include\xstring
;	COMDAT ??0?$basic_string@DU?$char_traits@D@std@@V?$allocator@D@2@@std@@QAE@PBD@Z
_TEXT	SEGMENT
__Ptr$ = 8						; size = 4
??0?$basic_string@DU?$char_traits@D@std@@V?$allocator@D@2@@std@@QAE@PBD@Z PROC ; std::basic_string<char,std::char_traits<char>,std::allocator<char> >::basic_string<char,std::char_traits<char>,std::allocator<char> >, COMDAT
; _this$ = ecx

; 592  : 		{	// construct from [_Ptr, <null>)

  00000	55		 push	 ebp
  00001	8b ec		 mov	 ebp, esp
  00003	56		 push	 esi

; 593  : 		_Tidy();
; 594  : 		assign(_Ptr);

  00004	ff 75 08	 push	 DWORD PTR __Ptr$[ebp]
  00007	8b f1		 mov	 esi, ecx
  00009	83 66 10 00	 and	 DWORD PTR [esi+16], 0
  0000d	c7 46 14 0f 00
	00 00		 mov	 DWORD PTR [esi+20], 15	; 0000000fH
  00014	c6 06 00	 mov	 BYTE PTR [esi], 0
  00017	e8 00 00 00 00	 call	 ?assign@?$basic_string@DU?$char_traits@D@std@@V?$allocator@D@2@@std@@QAEAAV12@PBD@Z ; std::basic_string<char,std::char_traits<char>,std::allocator<char> >::assign

; 595  : 		}

  0001c	8b c6		 mov	 eax, esi
  0001e	5e		 pop	 esi
  0001f	5d		 pop	 ebp
  00020	c2 04 00	 ret	 4
??0?$basic_string@DU?$char_traits@D@std@@V?$allocator@D@2@@std@@QAE@PBD@Z ENDP ; std::basic_string<char,std::char_traits<char>,std::allocator<char> >::basic_string<char,std::char_traits<char>,std::allocator<char> >
_TEXT	ENDS
PUBLIC	??$_Dest_val@V?$allocator@V?$basic_string@DU?$char_traits@D@std@@V?$allocator@D@2@@std@@@std@@V?$basic_string@DU?$char_traits@D@std@@V?$allocator@D@2@@2@@std@@YAXAAV?$allocator@V?$basic_string@DU?$char_traits@D@std@@V?$allocator@D@2@@std@@@0@PAV?$basic_string@DU?$char_traits@D@std@@V?$allocator@D@2@@0@@Z ; std::_Dest_val<std::allocator<std::basic_string<char,std::char_traits<char>,std::allocator<char> > >,std::basic_string<char,std::char_traits<char>,std::allocator<char> > >
; Function compile flags: /Ogsp
; File c:\program files (x86)\microsoft visual studio 10.0\vc\include\xmemory
;	COMDAT ??$_Dest_val@V?$allocator@V?$basic_string@DU?$char_traits@D@std@@V?$allocator@D@2@@std@@@std@@V?$basic_string@DU?$char_traits@D@std@@V?$allocator@D@2@@2@@std@@YAXAAV?$allocator@V?$basic_string@DU?$char_traits@D@std@@V?$allocator@D@2@@std@@@0@PAV?$basic_string@DU?$char_traits@D@std@@V?$allocator@D@2@@0@@Z
_TEXT	SEGMENT
__Alval$ = 8						; size = 4
__Pdest$ = 12						; size = 4
??$_Dest_val@V?$allocator@V?$basic_string@DU?$char_traits@D@std@@V?$allocator@D@2@@std@@@std@@V?$basic_string@DU?$char_traits@D@std@@V?$allocator@D@2@@2@@std@@YAXAAV?$allocator@V?$basic_string@DU?$char_traits@D@std@@V?$allocator@D@2@@std@@@0@PAV?$basic_string@DU?$char_traits@D@std@@V?$allocator@D@2@@0@@Z PROC ; std::_Dest_val<std::allocator<std::basic_string<char,std::char_traits<char>,std::allocator<char> > >,std::basic_string<char,std::char_traits<char>,std::allocator<char> > >, COMDAT

; 286  : 	{	// destroy using allocator

  00000	55		 push	 ebp
  00001	8b ec		 mov	 ebp, esp

; 287  : 	_Alval.destroy(_Pdest);

  00003	8b 4d 0c	 mov	 ecx, DWORD PTR __Pdest$[ebp]
  00006	6a 00		 push	 0
  00008	6a 01		 push	 1
  0000a	e8 00 00 00 00	 call	 ?_Tidy@?$basic_string@DU?$char_traits@D@std@@V?$allocator@D@2@@std@@QAEX_NI@Z ; std::basic_string<char,std::char_traits<char>,std::allocator<char> >::_Tidy

; 288  : 	}

  0000f	5d		 pop	 ebp
  00010	c3		 ret	 0
??$_Dest_val@V?$allocator@V?$basic_string@DU?$char_traits@D@std@@V?$allocator@D@2@@std@@@std@@V?$basic_string@DU?$char_traits@D@std@@V?$allocator@D@2@@2@@std@@YAXAAV?$allocator@V?$basic_string@DU?$char_traits@D@std@@V?$allocator@D@2@@std@@@0@PAV?$basic_string@DU?$char_traits@D@std@@V?$allocator@D@2@@0@@Z ENDP ; std::_Dest_val<std::allocator<std::basic_string<char,std::char_traits<char>,std::allocator<char> > >,std::basic_string<char,std::char_traits<char>,std::allocator<char> > >
_TEXT	ENDS
PUBLIC	__real@43c80000
PUBLIC	??_C@_08ELBECDFC@trailend?$AA@			; `string'
PUBLIC	??_C@_0L@POMNJLOL@trailstart?$AA@		; `string'
PUBLIC	??_C@_03MLOLJMPD@leg?$AA@			; `string'
PUBLIC	__real@40a00000
PUBLIC	__real@40000000
PUBLIC	??_C@_01JOAMLHOP@?9?$AA@			; `string'
PUBLIC	__real@43480000
PUBLIC	__real@4f800000
PUBLIC	_pNotifier$GSCopy$
PUBLIC	_pEvent$GSCopy$
PUBLIC	??_C@_01CLKCMJKC@?5?$AA@			; `string'
PUBLIC	_this$GSCopy$
PUBLIC	?OnTrailStart@ioClientAniEventHandler@@MAEXPBUAniEventTime@@PBVioAnimation@@@Z ; ioClientAniEventHandler::OnTrailStart
EXTRN	__imp_?SetEndEventNotify@ioAnimation@@QBEXXZ:PROC
EXTRN	__imp_?DestroyTrailer@ioEntityGroup@@QAEXPAVioMeshTrailer@@@Z:PROC
EXTRN	__imp_?GenerateTrailData@ioMeshTrailer@@QAE_NABVioHashString@@0PBVioAnimation@@HMMM@Z:PROC
EXTRN	__imp_?GetName@ioSkeleton@@QBEABVioHashString@@XZ:PROC
EXTRN	__imp_?GetSkeleton@ioEntityGroup@@QBEPAVioSkeleton@@XZ:PROC
EXTRN	__imp_?GetMeshName@ioEntity@@QBEABVioHashString@@XZ:PROC
EXTRN	__imp_?SetStartEndPoint@ioMeshTrailer@@QAEXPBVioMeshControlPoint@@0@Z:PROC
EXTRN	__imp_?SetMaxSegment@ioMeshTrailer@@QAEXH@Z:PROC
EXTRN	__imp_?SetMaxTickTime@ioMeshTrailer@@QAEXM@Z:PROC
EXTRN	__imp_?SetDepthCheck@ioMeshTrailer@@QAEX_N@Z:PROC
EXTRN	__imp_?BuildMaterial@ioMeshTrailer@@QAEXXZ:PROC
EXTRN	__imp_?SetGlowness@ioMeshTrailer@@QAEXM@Z:PROC
EXTRN	__imp_?SetIntensity@ioMeshTrailer@@QAEXM@Z:PROC
EXTRN	__imp_?SetRenderType@ioMeshTrailer@@QAEXW4FXRenderType@@@Z:PROC
EXTRN	__imp_?SetTexture@ioMeshTrailer@@QAEXABVioHashString@@@Z:PROC
EXTRN	__imp_?CreateTrailer@ioEntityGroup@@QAEPAVioMeshTrailer@@XZ:PROC
EXTRN	__imp_?GetControlPointList@ioEntity@@QAE?AV?$list@PBVioMeshControlPoint@@V?$allocator@PBVioMeshControlPoint@@@std@@@std@@ABVioHashString@@@Z:PROC
EXTRN	__imp_?GetControlPointCnt@ioEntity@@QBEHXZ:PROC
EXTRN	__imp_?ParseBool@ioStringConverter@@SA_NPBD@Z:PROC
EXTRN	__imp_?ParseFXRenderType@ioStringConverter@@SA?AW4FXRenderType@@ABVioHashString@@@Z:PROC
EXTRN	__imp_??4ioHashString@@QAEAAV0@PBD@Z:PROC
EXTRN	__imp_?Split@ioStringConverter@@SAABV?$vector@V?$basic_string@DU?$char_traits@D@std@@V?$allocator@D@2@@std@@V?$allocator@V?$basic_string@DU?$char_traits@D@std@@V?$allocator@D@2@@std@@@2@@std@@ABV?$basic_string@DU?$char_traits@D@std@@V?$allocator@D@2@@3@0H@Z:PROC
;	COMDAT __real@43c80000
CONST	SEGMENT
__real@43c80000 DD 043c80000r			; 400
CONST	ENDS
;	COMDAT ??_C@_08ELBECDFC@trailend?$AA@
CONST	SEGMENT
??_C@_08ELBECDFC@trailend?$AA@ DB 'trailend', 00H	; `string'
CONST	ENDS
;	COMDAT ??_C@_0L@POMNJLOL@trailstart?$AA@
CONST	SEGMENT
??_C@_0L@POMNJLOL@trailstart?$AA@ DB 'trailstart', 00H	; `string'
CONST	ENDS
;	COMDAT ??_C@_03MLOLJMPD@leg?$AA@
CONST	SEGMENT
??_C@_03MLOLJMPD@leg?$AA@ DB 'leg', 00H			; `string'
CONST	ENDS
;	COMDAT __real@40a00000
CONST	SEGMENT
__real@40a00000 DD 040a00000r			; 5
CONST	ENDS
;	COMDAT __real@40000000
CONST	SEGMENT
__real@40000000 DD 040000000r			; 2
CONST	ENDS
;	COMDAT ??_C@_01JOAMLHOP@?9?$AA@
CONST	SEGMENT
??_C@_01JOAMLHOP@?9?$AA@ DB '-', 00H			; `string'
CONST	ENDS
;	COMDAT __real@43480000
CONST	SEGMENT
__real@43480000 DD 043480000r			; 200
CONST	ENDS
;	COMDAT __real@4f800000
CONST	SEGMENT
__real@4f800000 DD 04f800000r			; 4.29497e+009
CONST	ENDS
;	COMDAT ??_C@_01CLKCMJKC@?5?$AA@
CONST	SEGMENT
??_C@_01CLKCMJKC@?5?$AA@ DB ' ', 00H			; `string'
CONST	ENDS
;	COMDAT xdata$x
xdata$x	SEGMENT
__ehfuncinfo$?OnTrailStart@ioClientAniEventHandler@@MAEXPBUAniEventTime@@PBVioAnimation@@@Z DD 019930522H
	DD	0fH
	DD	FLAT:__unwindtable$?OnTrailStart@ioClientAniEventHandler@@MAEXPBUAniEventTime@@PBVioAnimation@@@Z
	DD	2 DUP(00H)
	DD	2 DUP(00H)
	DD	00H
	DD	01H
__unwindtable$?OnTrailStart@ioClientAniEventHandler@@MAEXPBUAniEventTime@@PBVioAnimation@@@Z DD 0ffffffffH
	DD	FLAT:__unwindfunclet$?OnTrailStart@ioClientAniEventHandler@@MAEXPBUAniEventTime@@PBVioAnimation@@@Z$0
	DD	00H
	DD	FLAT:__unwindfunclet$?OnTrailStart@ioClientAniEventHandler@@MAEXPBUAniEventTime@@PBVioAnimation@@@Z$1
	DD	0ffffffffH
	DD	FLAT:__unwindfunclet$?OnTrailStart@ioClientAniEventHandler@@MAEXPBUAniEventTime@@PBVioAnimation@@@Z$2
	DD	02H
	DD	FLAT:__unwindfunclet$?OnTrailStart@ioClientAniEventHandler@@MAEXPBUAniEventTime@@PBVioAnimation@@@Z$3
	DD	02H
	DD	FLAT:__unwindfunclet$?OnTrailStart@ioClientAniEventHandler@@MAEXPBUAniEventTime@@PBVioAnimation@@@Z$4
	DD	04H
	DD	FLAT:__unwindfunclet$?OnTrailStart@ioClientAniEventHandler@@MAEXPBUAniEventTime@@PBVioAnimation@@@Z$5
	DD	05H
	DD	FLAT:__unwindfunclet$?OnTrailStart@ioClientAniEventHandler@@MAEXPBUAniEventTime@@PBVioAnimation@@@Z$6
	DD	04H
	DD	FLAT:__unwindfunclet$?OnTrailStart@ioClientAniEventHandler@@MAEXPBUAniEventTime@@PBVioAnimation@@@Z$11
	DD	04H
	DD	FLAT:__unwindfunclet$?OnTrailStart@ioClientAniEventHandler@@MAEXPBUAniEventTime@@PBVioAnimation@@@Z$12
	DD	04H
	DD	FLAT:__unwindfunclet$?OnTrailStart@ioClientAniEventHandler@@MAEXPBUAniEventTime@@PBVioAnimation@@@Z$7
	DD	09H
	DD	FLAT:__unwindfunclet$?OnTrailStart@ioClientAniEventHandler@@MAEXPBUAniEventTime@@PBVioAnimation@@@Z$8
	DD	04H
	DD	FLAT:__unwindfunclet$?OnTrailStart@ioClientAniEventHandler@@MAEXPBUAniEventTime@@PBVioAnimation@@@Z$8
	DD	0bH
	DD	FLAT:__unwindfunclet$?OnTrailStart@ioClientAniEventHandler@@MAEXPBUAniEventTime@@PBVioAnimation@@@Z$9
	DD	0cH
	DD	FLAT:__unwindfunclet$?OnTrailStart@ioClientAniEventHandler@@MAEXPBUAniEventTime@@PBVioAnimation@@@Z$10
	DD	0bH
	DD	FLAT:__unwindfunclet$?OnTrailStart@ioClientAniEventHandler@@MAEXPBUAniEventTime@@PBVioAnimation@@@Z$10
; Function compile flags: /Ogsp
; File d:\lost saga for developer\youtube\tutorial\source\src\lsclient\ioclientanieventhandler.cpp
xdata$x	ENDS
;	COMDAT ?OnTrailStart@ioClientAniEventHandler@@MAEXPBUAniEventTime@@PBVioAnimation@@@Z
_TEXT	SEGMENT
_pEvent$GSCopy$ = -244					; size = 4
_szTexture$ = -240					; size = 16
_rkEnd$526414 = -224					; size = 12
_szParts$ = -212					; size = 16
_fGlowness$ = -196					; size = 4
_bDepthCheck$ = -192					; size = 1
_fIntensity$ = -188					; size = 4
_fMaxTick$ = -184					; size = 4
_iCtrlEnd$ = -180					; size = 4
_pNotifier$GSCopy$ = -176				; size = 4
_iCtrlStart$ = -172					; size = 4
_iTickSegment$ = -168					; size = 4
_eRenderType$ = -164					; size = 4
_fSampleTick$ = -160					; size = 4
tv3513 = -156						; size = 4
tv3341 = -156						; size = 4
tv3338 = -156						; size = 4
_iIdx$526559 = -152					; size = 4
_this$GSCopy$ = -148					; size = 4
_pEntity$ = -144					; size = 4
$T525909 = -140						; size = 28
$T534928 = -128						; size = 16
$T525931 = -112						; size = 28
$T534929 = -100						; size = 16
_szCtrlParam$525929 = -84				; size = 28
_szMeshName$535816 = -72				; size = 16
$T534927 = -72						; size = 16
$T525908 = -56						; size = 28
_szMeshName$535789 = -44				; size = 16
__t$535661 = -28					; size = 5
__t$535580 = -28					; size = 7
_rkStart$526410 = -28					; size = 12
__$EHRec$ = -12						; size = 12
_pEvent$ = 8						; size = 4
_pNotifier$ = 12					; size = 4
?OnTrailStart@ioClientAniEventHandler@@MAEXPBUAniEventTime@@PBVioAnimation@@@Z PROC ; ioClientAniEventHandler::OnTrailStart, COMDAT
; _this$ = ecx

; 458  : {

  00000	68 e8 00 00 00	 push	 232			; 000000e8H
  00005	b8 00 00 00 00	 mov	 eax, __ehhandler$?OnTrailStart@ioClientAniEventHandler@@MAEXPBUAniEventTime@@PBVioAnimation@@@Z
  0000a	e8 00 00 00 00	 call	 __EH_prolog3_GS

; 575  : }

  0000f	8b 45 0c	 mov	 eax, DWORD PTR _pNotifier$[ebp]
  00012	8b 75 08	 mov	 esi, DWORD PTR _pEvent$[ebp]
  00015	83 65 d8 00	 and	 DWORD PTR $T525908[ebp+16], 0
  00019	6a 0f		 push	 15			; 0000000fH
  0001b	5f		 pop	 edi
  0001c	33 db		 xor	 ebx, ebx
  0001e	43		 inc	 ebx
  0001f	53		 push	 ebx
  00020	89 8d 6c ff ff
	ff		 mov	 DWORD PTR _this$GSCopy$[ebp], ecx
  00026	68 00 00 00 00	 push	 OFFSET ??_C@_01CLKCMJKC@?5?$AA@
  0002b	8d 4d c8	 lea	 ecx, DWORD PTR $T525908[ebp]
  0002e	89 b5 0c ff ff
	ff		 mov	 DWORD PTR _pEvent$GSCopy$[ebp], esi
  00034	89 85 50 ff ff
	ff		 mov	 DWORD PTR _pNotifier$GSCopy$[ebp], eax
  0003a	89 7d dc	 mov	 DWORD PTR $T525908[ebp+20], edi
  0003d	c6 45 c8 00	 mov	 BYTE PTR $T525908[ebp], 0
  00041	e8 00 00 00 00	 call	 ?assign@?$basic_string@DU?$char_traits@D@std@@V?$allocator@D@2@@std@@QAEAAV12@PBDI@Z ; std::basic_string<char,std::char_traits<char>,std::allocator<char> >::assign
  00046	83 65 fc 00	 and	 DWORD PTR __$EHRec$[ebp+8], 0
  0004a	8d 4e 14	 lea	 ecx, DWORD PTR [esi+20]
  0004d	ff 15 00 00 00
	00		 call	 DWORD PTR __imp_?c_str@ioHashString@@QBEPBDXZ
  00053	89 7d 88	 mov	 DWORD PTR $T525909[ebp+20], edi
  00056	33 ff		 xor	 edi, edi
  00058	50		 push	 eax
  00059	8d 8d 74 ff ff
	ff		 lea	 ecx, DWORD PTR $T525909[ebp]
  0005f	89 7d 84	 mov	 DWORD PTR $T525909[ebp+16], edi
  00062	c6 85 74 ff ff
	ff 00		 mov	 BYTE PTR $T525909[ebp], 0
  00069	e8 00 00 00 00	 call	 ?assign@?$basic_string@DU?$char_traits@D@std@@V?$allocator@D@2@@std@@QAEAAV12@PBD@Z ; std::basic_string<char,std::char_traits<char>,std::allocator<char> >::assign
  0006e	57		 push	 edi
  0006f	8d 45 c8	 lea	 eax, DWORD PTR $T525908[ebp]
  00072	50		 push	 eax
  00073	8d 85 74 ff ff
	ff		 lea	 eax, DWORD PTR $T525909[ebp]
  00079	50		 push	 eax
  0007a	88 5d fc	 mov	 BYTE PTR __$EHRec$[ebp+8], bl
  0007d	ff 15 00 00 00
	00		 call	 DWORD PTR __imp_?Split@ioStringConverter@@SAABV?$vector@V?$basic_string@DU?$char_traits@D@std@@V?$allocator@D@2@@std@@V?$allocator@V?$basic_string@DU?$char_traits@D@std@@V?$allocator@D@2@@std@@@2@@std@@ABV?$basic_string@DU?$char_traits@D@std@@V?$allocator@D@2@@3@0H@Z
  00083	83 c4 0c	 add	 esp, 12			; 0000000cH
  00086	57		 push	 edi
  00087	53		 push	 ebx
  00088	8d 8d 74 ff ff
	ff		 lea	 ecx, DWORD PTR $T525909[ebp]
  0008e	8b f0		 mov	 esi, eax
  00090	e8 00 00 00 00	 call	 ?_Tidy@?$basic_string@DU?$char_traits@D@std@@V?$allocator@D@2@@std@@QAEX_NI@Z ; std::basic_string<char,std::char_traits<char>,std::allocator<char> >::_Tidy
  00095	83 4d fc ff	 or	 DWORD PTR __$EHRec$[ebp+8], -1
  00099	57		 push	 edi
  0009a	53		 push	 ebx
  0009b	8d 4d c8	 lea	 ecx, DWORD PTR $T525908[ebp]
  0009e	e8 00 00 00 00	 call	 ?_Tidy@?$basic_string@DU?$char_traits@D@std@@V?$allocator@D@2@@std@@QAEX_NI@Z ; std::basic_string<char,std::char_traits<char>,std::allocator<char> >::_Tidy
  000a3	8d 8d 10 ff ff
	ff		 lea	 ecx, DWORD PTR _szTexture$[ebp]
  000a9	ff 15 00 00 00
	00		 call	 DWORD PTR __imp_??0ioHashString@@QAE@XZ
  000af	8b 0e		 mov	 ecx, DWORD PTR [esi]
  000b1	8b 46 04	 mov	 eax, DWORD PTR [esi+4]
  000b4	2b c1		 sub	 eax, ecx
  000b6	6a 1c		 push	 28			; 0000001cH
  000b8	99		 cdq
  000b9	5f		 pop	 edi
  000ba	f7 ff		 idiv	 edi
  000bc	c7 45 fc 02 00
	00 00		 mov	 DWORD PTR __$EHRec$[ebp+8], 2
  000c3	3b c3		 cmp	 eax, ebx
  000c5	72 15		 jb	 SHORT $LN25@OnTrailSta

; 459  : 	const StringVector &vParam = ioStringConverter::Split( pEvent->szSubInfo.c_str(), " " );
; 460  : 
; 461  : 	ioHashString szTexture;
; 462  : 	if( vParam.size() >= 1 )
; 463  : 		szTexture = vParam[0].c_str();

  000c7	83 79 14 10	 cmp	 DWORD PTR [ecx+20], 16	; 00000010H
  000cb	72 02		 jb	 SHORT $LN111@OnTrailSta
  000cd	8b 09		 mov	 ecx, DWORD PTR [ecx]
$LN111@OnTrailSta:
  000cf	51		 push	 ecx
  000d0	8d 8d 10 ff ff
	ff		 lea	 ecx, DWORD PTR _szTexture$[ebp]
  000d6	ff 15 00 00 00
	00		 call	 DWORD PTR __imp_??4ioHashString@@QAEAAV0@PBD@Z
$LN25@OnTrailSta:

; 464  : 
; 465  : 	FXRenderType eRenderType = FRT_SRCALPHA;
; 466  : 	if( vParam.size() >= 2 )

  000dc	8b 0e		 mov	 ecx, DWORD PTR [esi]
  000de	8b 46 04	 mov	 eax, DWORD PTR [esi+4]
  000e1	2b c1		 sub	 eax, ecx
  000e3	6a 1c		 push	 28			; 0000001cH
  000e5	99		 cdq
  000e6	5f		 pop	 edi
  000e7	f7 ff		 idiv	 edi
  000e9	89 9d 5c ff ff
	ff		 mov	 DWORD PTR _eRenderType$[ebp], ebx
  000ef	83 f8 02	 cmp	 eax, 2
  000f2	72 36		 jb	 SHORT $LN24@OnTrailSta

; 467  : 		eRenderType = ioStringConverter::ParseFXRenderType( vParam[1].c_str() );

  000f4	03 cf		 add	 ecx, edi
  000f6	83 79 14 10	 cmp	 DWORD PTR [ecx+20], 16	; 00000010H
  000fa	72 02		 jb	 SHORT $LN121@OnTrailSta
  000fc	8b 09		 mov	 ecx, DWORD PTR [ecx]
$LN121@OnTrailSta:
  000fe	51		 push	 ecx
  000ff	8d 4d b8	 lea	 ecx, DWORD PTR $T534927[ebp]
  00102	ff 15 00 00 00
	00		 call	 DWORD PTR __imp_??0ioHashString@@QAE@PBD@Z
  00108	8d 45 b8	 lea	 eax, DWORD PTR $T534927[ebp]
  0010b	50		 push	 eax
  0010c	c6 45 fc 03	 mov	 BYTE PTR __$EHRec$[ebp+8], 3
  00110	ff 15 00 00 00
	00		 call	 DWORD PTR __imp_?ParseFXRenderType@ioStringConverter@@SA?AW4FXRenderType@@ABVioHashString@@@Z
  00116	59		 pop	 ecx
  00117	8d 4d b8	 lea	 ecx, DWORD PTR $T534927[ebp]
  0011a	89 85 5c ff ff
	ff		 mov	 DWORD PTR _eRenderType$[ebp], eax
  00120	c6 45 fc 02	 mov	 BYTE PTR __$EHRec$[ebp+8], 2
  00124	ff 15 00 00 00
	00		 call	 DWORD PTR __imp_??1ioHashString@@QAE@XZ
$LN24@OnTrailSta:

; 468  : 
; 469  : 	int iTickSegment = 20;
; 470  : 	if( vParam.size() >= 3 )

  0012a	8b 0e		 mov	 ecx, DWORD PTR [esi]
  0012c	8b 46 04	 mov	 eax, DWORD PTR [esi+4]
  0012f	2b c1		 sub	 eax, ecx
  00131	6a 1c		 push	 28			; 0000001cH
  00133	99		 cdq
  00134	5f		 pop	 edi
  00135	f7 ff		 idiv	 edi
  00137	c7 85 58 ff ff
	ff 14 00 00 00	 mov	 DWORD PTR _iTickSegment$[ebp], 20 ; 00000014H
  00141	83 f8 03	 cmp	 eax, 3
  00144	72 19		 jb	 SHORT $LN23@OnTrailSta

; 471  : 		iTickSegment = ioStringConverter::ParseInt( vParam[2].c_str() );

  00146	83 c1 38	 add	 ecx, 56			; 00000038H
  00149	83 79 14 10	 cmp	 DWORD PTR [ecx+20], 16	; 00000010H
  0014d	72 02		 jb	 SHORT $LN131@OnTrailSta
  0014f	8b 09		 mov	 ecx, DWORD PTR [ecx]
$LN131@OnTrailSta:
  00151	51		 push	 ecx
  00152	ff 15 00 00 00
	00		 call	 DWORD PTR __imp_?ParseInt@ioStringConverter@@SAHPBD@Z
  00158	59		 pop	 ecx
  00159	89 85 58 ff ff
	ff		 mov	 DWORD PTR _iTickSegment$[ebp], eax
$LN23@OnTrailSta:

; 472  : 
; 473  : 	float fMaxTick = FLOAT100;

  0015f	b8 64 00 00 00	 mov	 eax, 100		; 00000064H
  00164	89 85 64 ff ff
	ff		 mov	 DWORD PTR tv3513[ebp], eax
  0016a	db 85 64 ff ff
	ff		 fild	 DWORD PTR tv3513[ebp]
  00170	85 c0		 test	 eax, eax
  00172	79 06		 jns	 SHORT $LN604@OnTrailSta
  00174	d8 05 00 00 00
	00		 fadd	 DWORD PTR __real@4f800000
$LN604@OnTrailSta:

; 474  : 	if( vParam.size() >= 4 )

  0017a	8b 0e		 mov	 ecx, DWORD PTR [esi]
  0017c	d9 9d 48 ff ff
	ff		 fstp	 DWORD PTR _fMaxTick$[ebp]
  00182	8b 46 04	 mov	 eax, DWORD PTR [esi+4]
  00185	2b c1		 sub	 eax, ecx
  00187	6a 1c		 push	 28			; 0000001cH
  00189	99		 cdq
  0018a	5f		 pop	 edi
  0018b	f7 ff		 idiv	 edi
  0018d	83 f8 04	 cmp	 eax, 4
  00190	72 19		 jb	 SHORT $LN22@OnTrailSta

; 475  : 		fMaxTick = ioStringConverter::ParseFloat( vParam[3].c_str() );

  00192	8d 41 54	 lea	 eax, DWORD PTR [ecx+84]
  00195	83 78 14 10	 cmp	 DWORD PTR [eax+20], 16	; 00000010H
  00199	72 02		 jb	 SHORT $LN143@OnTrailSta
  0019b	8b 00		 mov	 eax, DWORD PTR [eax]
$LN143@OnTrailSta:
  0019d	50		 push	 eax
  0019e	ff 15 00 00 00
	00		 call	 DWORD PTR __imp_?ParseFloat@ioStringConverter@@SAMPBD@Z
  001a4	d9 9d 48 ff ff
	ff		 fstp	 DWORD PTR _fMaxTick$[ebp]
  001aa	59		 pop	 ecx
$LN22@OnTrailSta:

; 476  : 
; 477  : 	ioHashString szParts;

  001ab	8d 8d 2c ff ff
	ff		 lea	 ecx, DWORD PTR _szParts$[ebp]
  001b1	ff 15 00 00 00
	00		 call	 DWORD PTR __imp_??0ioHashString@@QAE@XZ

; 478  : 	if( vParam.size() >= 5 )

  001b7	8b 0e		 mov	 ecx, DWORD PTR [esi]
  001b9	8b 46 04	 mov	 eax, DWORD PTR [esi+4]
  001bc	2b c1		 sub	 eax, ecx
  001be	6a 1c		 push	 28			; 0000001cH
  001c0	99		 cdq
  001c1	5f		 pop	 edi
  001c2	f7 ff		 idiv	 edi
  001c4	c6 45 fc 04	 mov	 BYTE PTR __$EHRec$[ebp+8], 4
  001c8	83 f8 05	 cmp	 eax, 5
  001cb	72 18		 jb	 SHORT $LN21@OnTrailSta

; 479  : 		szParts = vParam[4].c_str();

  001cd	83 c1 70	 add	 ecx, 112		; 00000070H
  001d0	83 79 14 10	 cmp	 DWORD PTR [ecx+20], 16	; 00000010H
  001d4	72 02		 jb	 SHORT $LN153@OnTrailSta
  001d6	8b 09		 mov	 ecx, DWORD PTR [ecx]
$LN153@OnTrailSta:
  001d8	51		 push	 ecx
  001d9	8d 8d 2c ff ff
	ff		 lea	 ecx, DWORD PTR _szParts$[ebp]
  001df	ff 15 00 00 00
	00		 call	 DWORD PTR __imp_??4ioHashString@@QAEAAV0@PBD@Z
$LN21@OnTrailSta:

; 480  : 
; 481  : 	float fSampleTick = 200.0f;
; 482  : 	if( vParam.size() >= 6 )

  001e5	8b 0e		 mov	 ecx, DWORD PTR [esi]
  001e7	8b 46 04	 mov	 eax, DWORD PTR [esi+4]
  001ea	2b c1		 sub	 eax, ecx
  001ec	6a 1c		 push	 28			; 0000001cH
  001ee	99		 cdq
  001ef	5f		 pop	 edi
  001f0	f7 ff		 idiv	 edi
  001f2	f3 0f 10 05 00
	00 00 00	 movss	 xmm0, DWORD PTR __real@43480000
  001fa	f3 0f 11 85 60
	ff ff ff	 movss	 DWORD PTR _fSampleTick$[ebp], xmm0
  00202	83 f8 06	 cmp	 eax, 6
  00205	72 1c		 jb	 SHORT $LN20@OnTrailSta

; 483  : 		fSampleTick = ioStringConverter::ParseFloat( vParam[5].c_str() );

  00207	8d 81 8c 00 00
	00		 lea	 eax, DWORD PTR [ecx+140]
  0020d	83 78 14 10	 cmp	 DWORD PTR [eax+20], 16	; 00000010H
  00211	72 02		 jb	 SHORT $LN163@OnTrailSta
  00213	8b 00		 mov	 eax, DWORD PTR [eax]
$LN163@OnTrailSta:
  00215	50		 push	 eax
  00216	ff 15 00 00 00
	00		 call	 DWORD PTR __imp_?ParseFloat@ioStringConverter@@SAMPBD@Z
  0021c	d9 9d 60 ff ff
	ff		 fstp	 DWORD PTR _fSampleTick$[ebp]
  00222	59		 pop	 ecx
$LN20@OnTrailSta:

; 484  : 
; 485  : 	bool bDepthCheck = true;
; 486  : 	if( vParam.size() >= 7 )

  00223	8b 0e		 mov	 ecx, DWORD PTR [esi]
  00225	8b 46 04	 mov	 eax, DWORD PTR [esi+4]
  00228	2b c1		 sub	 eax, ecx
  0022a	6a 1c		 push	 28			; 0000001cH
  0022c	99		 cdq
  0022d	5f		 pop	 edi
  0022e	f7 ff		 idiv	 edi
  00230	88 9d 40 ff ff
	ff		 mov	 BYTE PTR _bDepthCheck$[ebp], bl
  00236	83 f8 07	 cmp	 eax, 7
  00239	72 1c		 jb	 SHORT $LN19@OnTrailSta

; 487  : 		bDepthCheck = ioStringConverter::ParseBool( vParam[6].c_str() );

  0023b	8d 81 a8 00 00
	00		 lea	 eax, DWORD PTR [ecx+168]
  00241	83 78 14 10	 cmp	 DWORD PTR [eax+20], 16	; 00000010H
  00245	72 02		 jb	 SHORT $LN173@OnTrailSta
  00247	8b 00		 mov	 eax, DWORD PTR [eax]
$LN173@OnTrailSta:
  00249	50		 push	 eax
  0024a	ff 15 00 00 00
	00		 call	 DWORD PTR __imp_?ParseBool@ioStringConverter@@SA_NPBD@Z
  00250	59		 pop	 ecx
  00251	88 85 40 ff ff
	ff		 mov	 BYTE PTR _bDepthCheck$[ebp], al
$LN19@OnTrailSta:

; 488  : 
; 489  : 	int iCtrlStart = 0;
; 490  : 	int iCtrlEnd = INT_MAX;
; 491  : 	if( vParam.size() >= 8 )

  00257	8b 0e		 mov	 ecx, DWORD PTR [esi]
  00259	8b 46 04	 mov	 eax, DWORD PTR [esi+4]
  0025c	2b c1		 sub	 eax, ecx
  0025e	6a 1c		 push	 28			; 0000001cH
  00260	99		 cdq
  00261	5f		 pop	 edi
  00262	f7 ff		 idiv	 edi
  00264	83 a5 54 ff ff
	ff 00		 and	 DWORD PTR _iCtrlStart$[ebp], 0
  0026b	c7 85 4c ff ff
	ff ff ff ff 7f	 mov	 DWORD PTR _iCtrlEnd$[ebp], 2147483647 ; 7fffffffH
  00275	83 f8 08	 cmp	 eax, 8
  00278	0f 82 a9 00 00
	00		 jb	 $LN231@OnTrailSta

; 492  : 	{
; 493  : 		// vParam ::Split  static , Split     
; 494  : 		std::string szCtrlParam = vParam[7];

  0027e	81 c1 c4 00 00
	00		 add	 ecx, 196		; 000000c4H
  00284	51		 push	 ecx
  00285	8d 4d ac	 lea	 ecx, DWORD PTR _szCtrlParam$525929[ebp]
  00288	e8 00 00 00 00	 call	 ??0?$basic_string@DU?$char_traits@D@std@@V?$allocator@D@2@@std@@QAE@ABV01@@Z ; std::basic_string<char,std::char_traits<char>,std::allocator<char> >::basic_string<char,std::char_traits<char>,std::allocator<char> >

; 495  : 
; 496  : 		const StringVector &vCtrl = ioStringConverter::Split( szCtrlParam, "-", 1 );

  0028d	83 65 a0 00	 and	 DWORD PTR $T525931[ebp+16], 0
  00291	53		 push	 ebx
  00292	68 00 00 00 00	 push	 OFFSET ??_C@_01JOAMLHOP@?9?$AA@
  00297	8d 4d 90	 lea	 ecx, DWORD PTR $T525931[ebp]
  0029a	c6 45 fc 05	 mov	 BYTE PTR __$EHRec$[ebp+8], 5
  0029e	c7 45 a4 0f 00
	00 00		 mov	 DWORD PTR $T525931[ebp+20], 15 ; 0000000fH
  002a5	c6 45 90 00	 mov	 BYTE PTR $T525931[ebp], 0
  002a9	e8 00 00 00 00	 call	 ?assign@?$basic_string@DU?$char_traits@D@std@@V?$allocator@D@2@@std@@QAEAAV12@PBDI@Z ; std::basic_string<char,std::char_traits<char>,std::allocator<char> >::assign
  002ae	53		 push	 ebx
  002af	8d 45 90	 lea	 eax, DWORD PTR $T525931[ebp]
  002b2	50		 push	 eax
  002b3	8d 45 ac	 lea	 eax, DWORD PTR _szCtrlParam$525929[ebp]
  002b6	50		 push	 eax
  002b7	c6 45 fc 06	 mov	 BYTE PTR __$EHRec$[ebp+8], 6
  002bb	ff 15 00 00 00
	00		 call	 DWORD PTR __imp_?Split@ioStringConverter@@SAABV?$vector@V?$basic_string@DU?$char_traits@D@std@@V?$allocator@D@2@@std@@V?$allocator@V?$basic_string@DU?$char_traits@D@std@@V?$allocator@D@2@@std@@@2@@std@@ABV?$basic_string@DU?$char_traits@D@std@@V?$allocator@D@2@@3@0H@Z
  002c1	83 c4 0c	 add	 esp, 12			; 0000000cH
  002c4	6a 00		 push	 0
  002c6	53		 push	 ebx
  002c7	8d 4d 90	 lea	 ecx, DWORD PTR $T525931[ebp]
  002ca	8b f8		 mov	 edi, eax
  002cc	c6 45 fc 05	 mov	 BYTE PTR __$EHRec$[ebp+8], 5
  002d0	e8 00 00 00 00	 call	 ?_Tidy@?$basic_string@DU?$char_traits@D@std@@V?$allocator@D@2@@std@@QAEX_NI@Z ; std::basic_string<char,std::char_traits<char>,std::allocator<char> >::_Tidy

; 497  : 		if( vCtrl.size() == 2 )

  002d5	8b 0f		 mov	 ecx, DWORD PTR [edi]
  002d7	8b 47 04	 mov	 eax, DWORD PTR [edi+4]
  002da	2b c1		 sub	 eax, ecx
  002dc	6a 1c		 push	 28			; 0000001cH
  002de	99		 cdq
  002df	5b		 pop	 ebx
  002e0	f7 fb		 idiv	 ebx
  002e2	83 f8 02	 cmp	 eax, 2
  002e5	75 30		 jne	 SHORT $LN17@OnTrailSta

; 498  : 		{
; 499  : 			iCtrlStart = ioStringConverter::ParseInt( vCtrl[0].c_str() );

  002e7	83 79 14 10	 cmp	 DWORD PTR [ecx+20], 16	; 00000010H
  002eb	72 02		 jb	 SHORT $LN221@OnTrailSta
  002ed	8b 09		 mov	 ecx, DWORD PTR [ecx]
$LN221@OnTrailSta:
  002ef	8b 1d 00 00 00
	00		 mov	 ebx, DWORD PTR __imp_?ParseInt@ioStringConverter@@SAHPBD@Z
  002f5	51		 push	 ecx
  002f6	ff d3		 call	 ebx

; 500  : 			iCtrlEnd   = ioStringConverter::ParseInt( vCtrl[1].c_str() ) + 1;

  002f8	8b 3f		 mov	 edi, DWORD PTR [edi]
  002fa	83 c7 1c	 add	 edi, 28			; 0000001cH
  002fd	83 7f 14 10	 cmp	 DWORD PTR [edi+20], 16	; 00000010H
  00301	59		 pop	 ecx
  00302	89 85 54 ff ff
	ff		 mov	 DWORD PTR _iCtrlStart$[ebp], eax
  00308	72 02		 jb	 SHORT $LN229@OnTrailSta
  0030a	8b 3f		 mov	 edi, DWORD PTR [edi]
$LN229@OnTrailSta:
  0030c	57		 push	 edi
  0030d	ff d3		 call	 ebx
  0030f	40		 inc	 eax
  00310	59		 pop	 ecx
  00311	89 85 4c ff ff
	ff		 mov	 DWORD PTR _iCtrlEnd$[ebp], eax
$LN17@OnTrailSta:

; 501  : 		}
; 502  : 	}

  00317	6a 00		 push	 0
  00319	6a 01		 push	 1
  0031b	8d 4d ac	 lea	 ecx, DWORD PTR _szCtrlParam$525929[ebp]
  0031e	c6 45 fc 04	 mov	 BYTE PTR __$EHRec$[ebp+8], 4
  00322	e8 00 00 00 00	 call	 ?_Tidy@?$basic_string@DU?$char_traits@D@std@@V?$allocator@D@2@@std@@QAEX_NI@Z ; std::basic_string<char,std::char_traits<char>,std::allocator<char> >::_Tidy
$LN231@OnTrailSta:

; 503  : 	
; 504  : 	float fGlowness = 2.0f;
; 505  : 	if( vParam.size() >= 9 )

  00327	8b 0e		 mov	 ecx, DWORD PTR [esi]
  00329	8b 46 04	 mov	 eax, DWORD PTR [esi+4]
  0032c	2b c1		 sub	 eax, ecx
  0032e	6a 1c		 push	 28			; 0000001cH
  00330	99		 cdq
  00331	5f		 pop	 edi
  00332	f7 ff		 idiv	 edi
  00334	f3 0f 10 05 00
	00 00 00	 movss	 xmm0, DWORD PTR __real@40000000
  0033c	f3 0f 11 85 3c
	ff ff ff	 movss	 DWORD PTR _fGlowness$[ebp], xmm0
  00344	83 f8 09	 cmp	 eax, 9
  00347	72 1c		 jb	 SHORT $LN16@OnTrailSta

; 506  : 		fGlowness = ioStringConverter::ParseFloat( vParam[8].c_str() );

  00349	8d 81 e0 00 00
	00		 lea	 eax, DWORD PTR [ecx+224]
  0034f	83 78 14 10	 cmp	 DWORD PTR [eax+20], 16	; 00000010H
  00353	72 02		 jb	 SHORT $LN243@OnTrailSta
  00355	8b 00		 mov	 eax, DWORD PTR [eax]
$LN243@OnTrailSta:
  00357	50		 push	 eax
  00358	ff 15 00 00 00
	00		 call	 DWORD PTR __imp_?ParseFloat@ioStringConverter@@SAMPBD@Z
  0035e	d9 9d 3c ff ff
	ff		 fstp	 DWORD PTR _fGlowness$[ebp]
  00364	59		 pop	 ecx
$LN16@OnTrailSta:

; 507  : 
; 508  : 	float fIntensity = 5.0f;
; 509  : 	if( vParam.size() >= 10 )

  00365	8b 0e		 mov	 ecx, DWORD PTR [esi]
  00367	8b 46 04	 mov	 eax, DWORD PTR [esi+4]
  0036a	2b c1		 sub	 eax, ecx
  0036c	6a 1c		 push	 28			; 0000001cH
  0036e	99		 cdq
  0036f	5e		 pop	 esi
  00370	f7 fe		 idiv	 esi
  00372	f3 0f 10 05 00
	00 00 00	 movss	 xmm0, DWORD PTR __real@40a00000
  0037a	f3 0f 11 85 44
	ff ff ff	 movss	 DWORD PTR _fIntensity$[ebp], xmm0
  00382	83 f8 0a	 cmp	 eax, 10			; 0000000aH
  00385	72 1c		 jb	 SHORT $LN15@OnTrailSta

; 510  : 		fIntensity = ioStringConverter::ParseFloat( vParam[9].c_str() );

  00387	8d 81 fc 00 00
	00		 lea	 eax, DWORD PTR [ecx+252]
  0038d	83 78 14 10	 cmp	 DWORD PTR [eax+20], 16	; 00000010H
  00391	72 02		 jb	 SHORT $LN253@OnTrailSta
  00393	8b 00		 mov	 eax, DWORD PTR [eax]
$LN253@OnTrailSta:
  00395	50		 push	 eax
  00396	ff 15 00 00 00
	00		 call	 DWORD PTR __imp_?ParseFloat@ioStringConverter@@SAMPBD@Z
  0039c	d9 9d 44 ff ff
	ff		 fstp	 DWORD PTR _fIntensity$[ebp]
  003a2	59		 pop	 ecx
$LN15@OnTrailSta:

; 511  : 
; 512  : 	ioEntity *pEntity = NULL;
; 513  : 	if( szParts == "weapon" )

  003a3	b8 ed ec eb ea	 mov	 eax, -353637139		; eaebecedH
  003a8	6a 04		 push	 4
  003aa	c7 45 e4 9a 89
	8a 9a		 mov	 DWORD PTR __t$535580[ebp], -1702196838 ; 9a8a899aH
  003b1	31 45 e4	 xor	 DWORD PTR __t$535580[ebp], eax
  003b4	66 c7 45 e8 82
	82		 mov	 WORD PTR __t$535580[ebp+4], 33410 ; 00008282H
  003ba	c6 45 ea 00	 mov	 BYTE PTR __t$535580[ebp+6], 0
  003be	5e		 pop	 esi
$LL355@OnTrailSta:
  003bf	8b ce		 mov	 ecx, esi
  003c1	81 e1 03 00 00
	80		 and	 ecx, -2147483645	; 80000003H
  003c7	79 05		 jns	 SHORT $LN605@OnTrailSta
  003c9	49		 dec	 ecx
  003ca	83 c9 fc	 or	 ecx, -4			; fffffffcH
  003cd	41		 inc	 ecx
$LN605@OnTrailSta:
  003ce	b2 ed		 mov	 dl, -19			; ffffffedH
  003d0	2a d1		 sub	 dl, cl
  003d2	30 54 35 e4	 xor	 BYTE PTR __t$535580[ebp+esi], dl
  003d6	46		 inc	 esi
  003d7	83 fe 06	 cmp	 esi, 6
  003da	7c e3		 jl	 SHORT $LL355@OnTrailSta
  003dc	8b b5 2c ff ff
	ff		 mov	 esi, DWORD PTR _szParts$[ebp]
  003e2	6a 02		 push	 2
  003e4	8d 4d e4	 lea	 ecx, DWORD PTR __t$535580[ebp]
  003e7	5f		 pop	 edi
$LL588@OnTrailSta:
  003e8	8a 16		 mov	 dl, BYTE PTR [esi]
  003ea	3a 11		 cmp	 dl, BYTE PTR [ecx]
  003ec	75 18		 jne	 SHORT $LN589@OnTrailSta
  003ee	84 d2		 test	 dl, dl
  003f0	74 10		 je	 SHORT $LN590@OnTrailSta
  003f2	8a 56 01	 mov	 dl, BYTE PTR [esi+1]
  003f5	3a 51 01	 cmp	 dl, BYTE PTR [ecx+1]
  003f8	75 0c		 jne	 SHORT $LN589@OnTrailSta
  003fa	03 f7		 add	 esi, edi
  003fc	03 cf		 add	 ecx, edi
  003fe	84 d2		 test	 dl, dl
  00400	75 e6		 jne	 SHORT $LL588@OnTrailSta
$LN590@OnTrailSta:
  00402	33 c9		 xor	 ecx, ecx
  00404	eb 05		 jmp	 SHORT $LN591@OnTrailSta
$LN589@OnTrailSta:
  00406	1b c9		 sbb	 ecx, ecx
  00408	83 d9 ff	 sbb	 ecx, -1
$LN591@OnTrailSta:
  0040b	85 c9		 test	 ecx, ecx
  0040d	75 16		 jne	 SHORT $LN587@OnTrailSta

; 514  : 	{
; 515  : 		pEntity = GetWeaponEntity();

  0040f	8b 8d 6c ff ff
	ff		 mov	 ecx, DWORD PTR _this$GSCopy$[ebp]
  00415	e8 00 00 00 00	 call	 ?GetWeaponEntity@ioClientAniEventHandler@@IAEPAVioEntity@@XZ ; ioClientAniEventHandler::GetWeaponEntity
  0041a	89 85 70 ff ff
	ff		 mov	 DWORD PTR _pEntity$[ebp], eax
  00420	e9 81 01 00 00	 jmp	 $LN484@OnTrailSta
$LN587@OnTrailSta:

; 516  : 	}
; 517  : 	else if( szParts == "hand" )

  00425	8b 8d 2c ff ff
	ff		 mov	 ecx, DWORD PTR _szParts$[ebp]
  0042b	c7 45 e4 85 8d
	85 8e		 mov	 DWORD PTR __t$535661[ebp], -1903850107 ; 8e858d85H
  00432	31 45 e4	 xor	 DWORD PTR __t$535661[ebp], eax
  00435	c6 45 e8 00	 mov	 BYTE PTR __t$535661[ebp+4], 0
  00439	8d 45 e4	 lea	 eax, DWORD PTR __t$535661[ebp]
$LL592@OnTrailSta:
  0043c	8a 11		 mov	 dl, BYTE PTR [ecx]
  0043e	3a 10		 cmp	 dl, BYTE PTR [eax]
  00440	75 18		 jne	 SHORT $LN593@OnTrailSta
  00442	84 d2		 test	 dl, dl
  00444	74 10		 je	 SHORT $LN594@OnTrailSta
  00446	8a 51 01	 mov	 dl, BYTE PTR [ecx+1]
  00449	3a 50 01	 cmp	 dl, BYTE PTR [eax+1]
  0044c	75 0c		 jne	 SHORT $LN593@OnTrailSta
  0044e	03 cf		 add	 ecx, edi
  00450	03 c7		 add	 eax, edi
  00452	84 d2		 test	 dl, dl
  00454	75 e6		 jne	 SHORT $LL592@OnTrailSta
$LN594@OnTrailSta:
  00456	33 c0		 xor	 eax, eax
  00458	eb 05		 jmp	 SHORT $LN595@OnTrailSta
$LN593@OnTrailSta:
  0045a	1b c0		 sbb	 eax, eax
  0045c	83 d8 ff	 sbb	 eax, -1
$LN595@OnTrailSta:
  0045f	85 c0		 test	 eax, eax
  00461	0f 85 97 00 00
	00		 jne	 $LN12@OnTrailSta

; 518  : 	{
; 519  : 		pEntity = GetHandEntity();

  00467	8b b5 6c ff ff
	ff		 mov	 esi, DWORD PTR _this$GSCopy$[ebp]
  0046d	39 46 18	 cmp	 DWORD PTR [esi+24], eax
  00470	0f 84 92 03 00
	00		 je	 $LN575@OnTrailSta
  00476	8d 4d d4	 lea	 ecx, DWORD PTR _szMeshName$535789[ebp]
  00479	ff 15 00 00 00
	00		 call	 DWORD PTR __imp_??0ioHashString@@QAE@XZ
  0047f	8b 4e 18	 mov	 ecx, DWORD PTR [esi+24]
  00482	c6 45 fc 07	 mov	 BYTE PTR __$EHRec$[ebp+8], 7
  00486	e8 00 00 00 00	 call	 ?GetArmor@ioBaseChar@@QBEPAVioArmorItem@@XZ ; ioBaseChar::GetArmor
  0048b	8b f8		 mov	 edi, eax
  0048d	85 ff		 test	 edi, edi
  0048f	74 21		 je	 SHORT $LN471@OnTrailSta
  00491	ff 76 18	 push	 DWORD PTR [esi+24]
  00494	8b cf		 mov	 ecx, edi
  00496	e8 00 00 00 00	 call	 ?HasHandMesh@ioArmorItem@@QBE_NPAVioBaseChar@@@Z ; ioArmorItem::HasHandMesh
  0049b	ff 76 18	 push	 DWORD PTR [esi+24]
  0049e	8b cf		 mov	 ecx, edi
  004a0	84 c0		 test	 al, al
  004a2	74 07		 je	 SHORT $LN470@OnTrailSta
  004a4	e8 00 00 00 00	 call	 ?GetHandMesh@ioArmorItem@@QBEABVioHashString@@PAVioBaseChar@@@Z ; ioArmorItem::GetHandMesh
  004a9	eb 15		 jmp	 SHORT $LN607@OnTrailSta
$LN470@OnTrailSta:
  004ab	e8 00 00 00 00	 call	 ?GetBodyMesh@ioArmorItem@@QBEABVioHashString@@PAVioBaseChar@@@Z ; ioArmorItem::GetBodyMesh
  004b0	eb 0e		 jmp	 SHORT $LN607@OnTrailSta
$LN471@OnTrailSta:
  004b2	8b 46 18	 mov	 eax, DWORD PTR [esi+24]
  004b5	8b 80 48 03 00
	00		 mov	 eax, DWORD PTR [eax+840]
  004bb	05 2c 01 00 00	 add	 eax, 300		; 0000012cH
$LN607@OnTrailSta:
  004c0	50		 push	 eax
  004c1	8d 4d d4	 lea	 ecx, DWORD PTR _szMeshName$535789[ebp]
  004c4	ff 15 00 00 00
	00		 call	 DWORD PTR __imp_??4ioHashString@@QAEAAV0@ABV0@@Z
  004ca	8d 4d d4	 lea	 ecx, DWORD PTR _szMeshName$535789[ebp]
  004cd	ff 15 00 00 00
	00		 call	 DWORD PTR __imp_?IsEmpty@ioHashString@@QBE_NXZ
  004d3	84 c0		 test	 al, al
  004d5	74 12		 je	 SHORT $LN467@OnTrailSta
  004d7	8d 4d d4	 lea	 ecx, DWORD PTR _szMeshName$535789[ebp]
$LN611@OnTrailSta:
  004da	c6 45 fc 04	 mov	 BYTE PTR __$EHRec$[ebp+8], 4
  004de	ff 15 00 00 00
	00		 call	 DWORD PTR __imp_??1ioHashString@@QAE@XZ
  004e4	e9 1f 03 00 00	 jmp	 $LN575@OnTrailSta
$LN467@OnTrailSta:
  004e9	8b 4e 04	 mov	 ecx, DWORD PTR [esi+4]
  004ec	8d 45 d4	 lea	 eax, DWORD PTR _szMeshName$535789[ebp]
  004ef	50		 push	 eax
  004f0	ff 15 00 00 00
	00		 call	 DWORD PTR __imp_?GetEntity@ioEntityGroup@@QAEPAVioEntity@@ABVioHashString@@@Z
  004f6	8d 4d d4	 lea	 ecx, DWORD PTR _szMeshName$535789[ebp]
  004f9	e9 98 00 00 00	 jmp	 $LN608@OnTrailSta
$LN12@OnTrailSta:

; 520  : 	}
; 521  : 	else if( strcmp( szParts.c_str(), "leg") == 0 )

  004fe	8d 8d 2c ff ff
	ff		 lea	 ecx, DWORD PTR _szParts$[ebp]
  00504	bf 00 00 00 00	 mov	 edi, OFFSET ??_C@_03MLOLJMPD@leg?$AA@
  00509	ff 15 00 00 00
	00		 call	 DWORD PTR __imp_?c_str@ioHashString@@QBEPBDXZ
  0050f	8b f0		 mov	 esi, eax
  00511	6a 04		 push	 4
  00513	59		 pop	 ecx
  00514	33 c0		 xor	 eax, eax
  00516	f3 a6		 repe cmpsb
  00518	0f 85 ea 02 00
	00		 jne	 $LN575@OnTrailSta

; 522  : 	{
; 523  : 		pEntity = GetLegEntity();

  0051e	8b 85 6c ff ff
	ff		 mov	 eax, DWORD PTR _this$GSCopy$[ebp]
  00524	83 78 18 00	 cmp	 DWORD PTR [eax+24], 0
  00528	0f 84 da 02 00
	00		 je	 $LN575@OnTrailSta
  0052e	8d 4d b8	 lea	 ecx, DWORD PTR _szMeshName$535816[ebp]
  00531	ff 15 00 00 00
	00		 call	 DWORD PTR __imp_??0ioHashString@@QAE@XZ
  00537	8b b5 6c ff ff
	ff		 mov	 esi, DWORD PTR _this$GSCopy$[ebp]
  0053d	8b 4e 18	 mov	 ecx, DWORD PTR [esi+24]
  00540	c6 45 fc 08	 mov	 BYTE PTR __$EHRec$[ebp+8], 8
  00544	e8 00 00 00 00	 call	 ?GetArmor@ioBaseChar@@QBEPAVioArmorItem@@XZ ; ioBaseChar::GetArmor
  00549	85 c0		 test	 eax, eax
  0054b	74 0c		 je	 SHORT $LN482@OnTrailSta
  0054d	ff 76 18	 push	 DWORD PTR [esi+24]
  00550	8b c8		 mov	 ecx, eax
  00552	e8 00 00 00 00	 call	 ?GetBodyMesh@ioArmorItem@@QBEABVioHashString@@PAVioBaseChar@@@Z ; ioArmorItem::GetBodyMesh
  00557	eb 0e		 jmp	 SHORT $LN609@OnTrailSta
$LN482@OnTrailSta:
  00559	8b 46 18	 mov	 eax, DWORD PTR [esi+24]
  0055c	8b 80 48 03 00
	00		 mov	 eax, DWORD PTR [eax+840]
  00562	05 8c 00 00 00	 add	 eax, 140		; 0000008cH
$LN609@OnTrailSta:
  00567	50		 push	 eax
  00568	8d 4d b8	 lea	 ecx, DWORD PTR _szMeshName$535816[ebp]
  0056b	ff 15 00 00 00
	00		 call	 DWORD PTR __imp_??4ioHashString@@QAEAAV0@ABV0@@Z
  00571	8d 4d b8	 lea	 ecx, DWORD PTR _szMeshName$535816[ebp]
  00574	ff 15 00 00 00
	00		 call	 DWORD PTR __imp_?IsEmpty@ioHashString@@QBE_NXZ
  0057a	84 c0		 test	 al, al
  0057c	74 08		 je	 SHORT $LN480@OnTrailSta
  0057e	8d 4d b8	 lea	 ecx, DWORD PTR _szMeshName$535816[ebp]
  00581	e9 54 ff ff ff	 jmp	 $LN611@OnTrailSta
$LN480@OnTrailSta:
  00586	8b 4e 04	 mov	 ecx, DWORD PTR [esi+4]
  00589	8d 45 b8	 lea	 eax, DWORD PTR _szMeshName$535816[ebp]
  0058c	50		 push	 eax
  0058d	ff 15 00 00 00
	00		 call	 DWORD PTR __imp_?GetEntity@ioEntityGroup@@QAEPAVioEntity@@ABVioHashString@@@Z
  00593	8d 4d b8	 lea	 ecx, DWORD PTR _szMeshName$535816[ebp]
$LN608@OnTrailSta:
  00596	89 85 70 ff ff
	ff		 mov	 DWORD PTR _pEntity$[ebp], eax
  0059c	c6 45 fc 04	 mov	 BYTE PTR __$EHRec$[ebp+8], 4
  005a0	ff 15 00 00 00
	00		 call	 DWORD PTR __imp_??1ioHashString@@QAE@XZ
$LN484@OnTrailSta:

; 524  : 	}
; 525  : 
; 526  : 	if( pEntity && pEntity->GetControlPointCnt() > 0 )

  005a6	83 bd 70 ff ff
	ff 00		 cmp	 DWORD PTR _pEntity$[ebp], 0
  005ad	0f 84 55 02 00
	00		 je	 $LN575@OnTrailSta
  005b3	8b 8d 70 ff ff
	ff		 mov	 ecx, DWORD PTR _pEntity$[ebp]
  005b9	ff 15 00 00 00
	00		 call	 DWORD PTR __imp_?GetControlPointCnt@ioEntity@@QBEHXZ
  005bf	85 c0		 test	 eax, eax
  005c1	0f 8e 41 02 00
	00		 jle	 $LN575@OnTrailSta

; 527  : 	{
; 528  : 		ConstCtrlPointList rkStart = pEntity->GetControlPointList( "trailstart" );

  005c7	8b 3d 00 00 00
	00		 mov	 edi, DWORD PTR __imp_??0ioHashString@@QAE@PBD@Z
  005cd	68 00 00 00 00	 push	 OFFSET ??_C@_0L@POMNJLOL@trailstart?$AA@
  005d2	8d 4d 80	 lea	 ecx, DWORD PTR $T534928[ebp]
  005d5	ff d7		 call	 edi
  005d7	8b 8d 70 ff ff
	ff		 mov	 ecx, DWORD PTR _pEntity$[ebp]
  005dd	8b 35 00 00 00
	00		 mov	 esi, DWORD PTR __imp_?GetControlPointList@ioEntity@@QAE?AV?$list@PBVioMeshControlPoint@@V?$allocator@PBVioMeshControlPoint@@@std@@@std@@ABVioHashString@@@Z
  005e3	8d 45 80	 lea	 eax, DWORD PTR $T534928[ebp]
  005e6	50		 push	 eax
  005e7	8d 45 e4	 lea	 eax, DWORD PTR _rkStart$526410[ebp]
  005ea	50		 push	 eax
  005eb	c6 45 fc 09	 mov	 BYTE PTR __$EHRec$[ebp+8], 9
  005ef	ff d6		 call	 esi
  005f1	8b 1d 00 00 00
	00		 mov	 ebx, DWORD PTR __imp_??1ioHashString@@QAE@XZ
  005f7	8d 4d 80	 lea	 ecx, DWORD PTR $T534928[ebp]
  005fa	c6 45 fc 0b	 mov	 BYTE PTR __$EHRec$[ebp+8], 11 ; 0000000bH
  005fe	ff d3		 call	 ebx

; 529  : 		ConstCtrlPointList rkEnd = pEntity->GetControlPointList( "trailend" );

  00600	68 00 00 00 00	 push	 OFFSET ??_C@_08ELBECDFC@trailend?$AA@
  00605	8d 4d 9c	 lea	 ecx, DWORD PTR $T534929[ebp]
  00608	ff d7		 call	 edi
  0060a	8b 8d 70 ff ff
	ff		 mov	 ecx, DWORD PTR _pEntity$[ebp]
  00610	8d 45 9c	 lea	 eax, DWORD PTR $T534929[ebp]
  00613	50		 push	 eax
  00614	8d 85 20 ff ff
	ff		 lea	 eax, DWORD PTR _rkEnd$526414[ebp]
  0061a	50		 push	 eax
  0061b	c6 45 fc 0c	 mov	 BYTE PTR __$EHRec$[ebp+8], 12 ; 0000000cH
  0061f	ff d6		 call	 esi
  00621	8d 4d 9c	 lea	 ecx, DWORD PTR $T534929[ebp]
  00624	c6 45 fc 0e	 mov	 BYTE PTR __$EHRec$[ebp+8], 14 ; 0000000eH
  00628	ff d3		 call	 ebx

; 530  : 
; 531  : 		if( !rkStart.empty() && rkStart.size() == rkEnd.size() )

  0062a	8b 45 e8	 mov	 eax, DWORD PTR _rkStart$526410[ebp+4]
  0062d	85 c0		 test	 eax, eax
  0062f	0f 84 a7 01 00
	00		 je	 $LN5@OnTrailSta
  00635	3b 85 24 ff ff
	ff		 cmp	 eax, DWORD PTR _rkEnd$526414[ebp+4]
  0063b	0f 85 9b 01 00
	00		 jne	 $LN5@OnTrailSta

; 532  : 		{
; 533  : 			ConstCtrlPointList::const_iterator iStart, iEnd;
; 534  : 			iStart = rkStart.begin();

  00641	8b 45 e4	 mov	 eax, DWORD PTR _rkStart$526410[ebp]
  00644	8b 38		 mov	 edi, DWORD PTR [eax]

; 535  : 			iEnd = rkEnd.begin();

  00646	8b 8d 20 ff ff
	ff		 mov	 ecx, DWORD PTR _rkEnd$526414[ebp]

; 536  : 
; 537  : 			for( int iIdx=0 ; iStart != rkStart.end() ; ++iStart, ++iEnd, iIdx++ )

  0064c	83 a5 68 ff ff
	ff 00		 and	 DWORD PTR _iIdx$526559[ebp], 0
  00653	8b 19		 mov	 ebx, DWORD PTR [ecx]
  00655	3b f8		 cmp	 edi, eax
  00657	0f 84 7f 01 00
	00		 je	 $LN5@OnTrailSta
$LL7@OnTrailSta:

; 538  : 			{
; 539  : 				if( !COMPARE( iIdx, iCtrlStart, iCtrlEnd ) )

  0065d	8b 85 54 ff ff
	ff		 mov	 eax, DWORD PTR _iCtrlStart$[ebp]
  00663	39 85 68 ff ff
	ff		 cmp	 DWORD PTR _iIdx$526559[ebp], eax
  00669	0f 8c 5a 01 00
	00		 jl	 $LN6@OnTrailSta
  0066f	8b 85 4c ff ff
	ff		 mov	 eax, DWORD PTR _iCtrlEnd$[ebp]
  00675	39 85 68 ff ff
	ff		 cmp	 DWORD PTR _iIdx$526559[ebp], eax
  0067b	0f 8d 48 01 00
	00		 jge	 $LN6@OnTrailSta

; 540  : 					continue;
; 541  : 
; 542  : 				ioMeshTrailer *pTrailer = m_pOwner->CreateTrailer();

  00681	8b 85 6c ff ff
	ff		 mov	 eax, DWORD PTR _this$GSCopy$[ebp]
  00687	8b 48 04	 mov	 ecx, DWORD PTR [eax+4]
  0068a	ff 15 00 00 00
	00		 call	 DWORD PTR __imp_?CreateTrailer@ioEntityGroup@@QAEPAVioMeshTrailer@@XZ
  00690	8b f0		 mov	 esi, eax

; 543  : 				if( !pTrailer ) continue;

  00692	85 f6		 test	 esi, esi
  00694	0f 84 2f 01 00
	00		 je	 $LN6@OnTrailSta

; 544  : 
; 545  : 				pTrailer->SetTexture( szTexture );

  0069a	8d 85 10 ff ff
	ff		 lea	 eax, DWORD PTR _szTexture$[ebp]
  006a0	50		 push	 eax
  006a1	8b ce		 mov	 ecx, esi
  006a3	ff 15 00 00 00
	00		 call	 DWORD PTR __imp_?SetTexture@ioMeshTrailer@@QAEXABVioHashString@@@Z

; 546  : 				pTrailer->SetRenderType( eRenderType );

  006a9	ff b5 5c ff ff
	ff		 push	 DWORD PTR _eRenderType$[ebp]
  006af	8b ce		 mov	 ecx, esi
  006b1	ff 15 00 00 00
	00		 call	 DWORD PTR __imp_?SetRenderType@ioMeshTrailer@@QAEXW4FXRenderType@@@Z

; 547  : 				pTrailer->SetIntensity( fIntensity );

  006b7	f3 0f 10 85 44
	ff ff ff	 movss	 xmm0, DWORD PTR _fIntensity$[ebp]
  006bf	51		 push	 ecx
  006c0	8b ce		 mov	 ecx, esi
  006c2	f3 0f 11 04 24	 movss	 DWORD PTR [esp], xmm0
  006c7	ff 15 00 00 00
	00		 call	 DWORD PTR __imp_?SetIntensity@ioMeshTrailer@@QAEXM@Z

; 548  : 				pTrailer->SetGlowness( fGlowness );

  006cd	f3 0f 10 85 3c
	ff ff ff	 movss	 xmm0, DWORD PTR _fGlowness$[ebp]
  006d5	51		 push	 ecx
  006d6	8b ce		 mov	 ecx, esi
  006d8	f3 0f 11 04 24	 movss	 DWORD PTR [esp], xmm0
  006dd	ff 15 00 00 00
	00		 call	 DWORD PTR __imp_?SetGlowness@ioMeshTrailer@@QAEXM@Z

; 549  : 				pTrailer->BuildMaterial();

  006e3	8b ce		 mov	 ecx, esi
  006e5	ff 15 00 00 00
	00		 call	 DWORD PTR __imp_?BuildMaterial@ioMeshTrailer@@QAEXXZ

; 550  : 
; 551  : 				pTrailer->SetDepthCheck( bDepthCheck );

  006eb	ff b5 40 ff ff
	ff		 push	 DWORD PTR _bDepthCheck$[ebp]
  006f1	8b ce		 mov	 ecx, esi
  006f3	ff 15 00 00 00
	00		 call	 DWORD PTR __imp_?SetDepthCheck@ioMeshTrailer@@QAEX_N@Z

; 552  : 
; 553  : 				pTrailer->SetMaxTickTime( fMaxTick );

  006f9	f3 0f 10 85 48
	ff ff ff	 movss	 xmm0, DWORD PTR _fMaxTick$[ebp]
  00701	51		 push	 ecx
  00702	8b ce		 mov	 ecx, esi
  00704	f3 0f 11 04 24	 movss	 DWORD PTR [esp], xmm0
  00709	ff 15 00 00 00
	00		 call	 DWORD PTR __imp_?SetMaxTickTime@ioMeshTrailer@@QAEXM@Z

; 554  : 				pTrailer->SetMaxSegment( iTickSegment );

  0070f	ff b5 58 ff ff
	ff		 push	 DWORD PTR _iTickSegment$[ebp]
  00715	8b ce		 mov	 ecx, esi
  00717	ff 15 00 00 00
	00		 call	 DWORD PTR __imp_?SetMaxSegment@ioMeshTrailer@@QAEXH@Z

; 555  : 				pTrailer->SetStartEndPoint( *iStart, *iEnd );

  0071d	ff 73 08	 push	 DWORD PTR [ebx+8]
  00720	8b ce		 mov	 ecx, esi
  00722	ff 77 08	 push	 DWORD PTR [edi+8]
  00725	ff 15 00 00 00
	00		 call	 DWORD PTR __imp_?SetStartEndPoint@ioMeshTrailer@@QAEXPBVioMeshControlPoint@@0@Z

; 556  : 				
; 557  : 				bool bDataOK = pTrailer->GenerateTrailData( m_pOwner->GetSkeleton()->GetName(),
; 558  : 															pEntity->GetMeshName(),
; 559  : 															pNotifier,
; 560  : 															iIdx,
; 561  : 															FLOAT1000 / fSampleTick,
; 562  : 															pEvent->fEventTime,
; 563  : 															400.0f );

  0072b	b8 e8 03 00 00	 mov	 eax, 1000		; 000003e8H
  00730	f3 0f 10 05 00
	00 00 00	 movss	 xmm0, DWORD PTR __real@43c80000
  00738	8b 8d 0c ff ff
	ff		 mov	 ecx, DWORD PTR _pEvent$GSCopy$[ebp]
  0073e	83 ec 0c	 sub	 esp, 12			; 0000000cH
  00741	f3 0f 11 44 24
	08		 movss	 DWORD PTR [esp+8], xmm0
  00747	f3 0f 10 01	 movss	 xmm0, DWORD PTR [ecx]
  0074b	89 85 64 ff ff
	ff		 mov	 DWORD PTR tv3341[ebp], eax
  00751	db 85 64 ff ff
	ff		 fild	 DWORD PTR tv3341[ebp]
  00757	f3 0f 11 44 24
	04		 movss	 DWORD PTR [esp+4], xmm0
  0075d	85 c0		 test	 eax, eax
  0075f	79 06		 jns	 SHORT $LN606@OnTrailSta
  00761	d8 05 00 00 00
	00		 fadd	 DWORD PTR __real@4f800000
$LN606@OnTrailSta:
  00767	d8 b5 60 ff ff
	ff		 fdiv	 DWORD PTR _fSampleTick$[ebp]
  0076d	8b 8d 70 ff ff
	ff		 mov	 ecx, DWORD PTR _pEntity$[ebp]
  00773	d9 9d 64 ff ff
	ff		 fstp	 DWORD PTR tv3338[ebp]
  00779	d9 85 64 ff ff
	ff		 fld	 DWORD PTR tv3338[ebp]
  0077f	d9 1c 24	 fstp	 DWORD PTR [esp]
  00782	ff b5 68 ff ff
	ff		 push	 DWORD PTR _iIdx$526559[ebp]
  00788	ff b5 50 ff ff
	ff		 push	 DWORD PTR _pNotifier$GSCopy$[ebp]
  0078e	ff 15 00 00 00
	00		 call	 DWORD PTR __imp_?GetMeshName@ioEntity@@QBEABVioHashString@@XZ
  00794	50		 push	 eax
  00795	8b 85 6c ff ff
	ff		 mov	 eax, DWORD PTR _this$GSCopy$[ebp]
  0079b	8b 48 04	 mov	 ecx, DWORD PTR [eax+4]
  0079e	ff 15 00 00 00
	00		 call	 DWORD PTR __imp_?GetSkeleton@ioEntityGroup@@QBEPAVioSkeleton@@XZ
  007a4	8b c8		 mov	 ecx, eax
  007a6	ff 15 00 00 00
	00		 call	 DWORD PTR __imp_?GetName@ioSkeleton@@QBEABVioHashString@@XZ
  007ac	50		 push	 eax
  007ad	8b ce		 mov	 ecx, esi
  007af	ff 15 00 00 00
	00		 call	 DWORD PTR __imp_?GenerateTrailData@ioMeshTrailer@@QAE_NABVioHashString@@0PBVioAnimation@@HMMM@Z

; 564  : 
; 565  : 				if( !bDataOK )

  007b5	84 c0		 test	 al, al
  007b7	75 10		 jne	 SHORT $LN6@OnTrailSta

; 566  : 				{
; 567  : 					m_pOwner->DestroyTrailer( pTrailer );

  007b9	8b 85 6c ff ff
	ff		 mov	 eax, DWORD PTR _this$GSCopy$[ebp]
  007bf	8b 48 04	 mov	 ecx, DWORD PTR [eax+4]
  007c2	56		 push	 esi
  007c3	ff 15 00 00 00
	00		 call	 DWORD PTR __imp_?DestroyTrailer@ioEntityGroup@@QAEXPAVioMeshTrailer@@@Z
$LN6@OnTrailSta:

; 536  : 
; 537  : 			for( int iIdx=0 ; iStart != rkStart.end() ; ++iStart, ++iEnd, iIdx++ )

  007c9	8b 3f		 mov	 edi, DWORD PTR [edi]
  007cb	ff 85 68 ff ff
	ff		 inc	 DWORD PTR _iIdx$526559[ebp]
  007d1	8b 1b		 mov	 ebx, DWORD PTR [ebx]
  007d3	3b 7d e4	 cmp	 edi, DWORD PTR _rkStart$526410[ebp]
  007d6	0f 85 81 fe ff
	ff		 jne	 $LL7@OnTrailSta
$LN5@OnTrailSta:

; 568  : 					pTrailer = NULL;	// !!
; 569  : 				}
; 570  : 			}
; 571  : 		}
; 572  : 	}

  007dc	8d 8d 20 ff ff
	ff		 lea	 ecx, DWORD PTR _rkEnd$526414[ebp]
  007e2	e8 00 00 00 00	 call	 ?clear@?$list@PBVioMeshControlPoint@@V?$allocator@PBVioMeshControlPoint@@@std@@@std@@QAEXXZ ; std::list<ioMeshControlPoint const *,std::allocator<ioMeshControlPoint const *> >::clear
  007e7	ff b5 20 ff ff
	ff		 push	 DWORD PTR _rkEnd$526414[ebp]
  007ed	e8 00 00 00 00	 call	 ??3@YAXPAX@Z		; operator delete
  007f2	59		 pop	 ecx
  007f3	8d 4d e4	 lea	 ecx, DWORD PTR _rkStart$526410[ebp]
  007f6	c6 45 fc 04	 mov	 BYTE PTR __$EHRec$[ebp+8], 4
  007fa	e8 00 00 00 00	 call	 ?clear@?$list@PBVioMeshControlPoint@@V?$allocator@PBVioMeshControlPoint@@@std@@@std@@QAEXXZ ; std::list<ioMeshControlPoint const *,std::allocator<ioMeshControlPoint const *> >::clear
  007ff	ff 75 e4	 push	 DWORD PTR _rkStart$526410[ebp]
  00802	e8 00 00 00 00	 call	 ??3@YAXPAX@Z		; operator delete
  00807	59		 pop	 ecx
$LN575@OnTrailSta:

; 573  : 
; 574  : 	pNotifier->SetEndEventNotify();

  00808	8b 8d 50 ff ff
	ff		 mov	 ecx, DWORD PTR _pNotifier$GSCopy$[ebp]
  0080e	ff 15 00 00 00
	00		 call	 DWORD PTR __imp_?SetEndEventNotify@ioAnimation@@QBEXXZ

; 575  : }

  00814	8b 35 00 00 00
	00		 mov	 esi, DWORD PTR __imp_??1ioHashString@@QAE@XZ
  0081a	8d 8d 2c ff ff
	ff		 lea	 ecx, DWORD PTR _szParts$[ebp]
  00820	c6 45 fc 02	 mov	 BYTE PTR __$EHRec$[ebp+8], 2
  00824	ff d6		 call	 esi
  00826	83 4d fc ff	 or	 DWORD PTR __$EHRec$[ebp+8], -1
  0082a	8d 8d 10 ff ff
	ff		 lea	 ecx, DWORD PTR _szTexture$[ebp]
  00830	ff d6		 call	 esi
  00832	e8 00 00 00 00	 call	 __EH_epilog3_GS
  00837	c2 08 00	 ret	 8
_TEXT	ENDS
;	COMDAT text$x
text$x	SEGMENT
__unwindfunclet$?OnTrailStart@ioClientAniEventHandler@@MAEXPBUAniEventTime@@PBVioAnimation@@@Z$0:
  00000	8d 4d c8	 lea	 ecx, DWORD PTR $T525908[ebp]
  00003	e9 00 00 00 00	 jmp	 ??1?$basic_string@DU?$char_traits@D@std@@V?$allocator@D@2@@std@@QAE@XZ ; std::basic_string<char,std::char_traits<char>,std::allocator<char> >::~basic_string<char,std::char_traits<char>,std::allocator<char> >
__unwindfunclet$?OnTrailStart@ioClientAniEventHandler@@MAEXPBUAniEventTime@@PBVioAnimation@@@Z$1:
  00008	8d 8d 74 ff ff
	ff		 lea	 ecx, DWORD PTR $T525909[ebp]
  0000e	e9 00 00 00 00	 jmp	 ??1?$basic_string@DU?$char_traits@D@std@@V?$allocator@D@2@@std@@QAE@XZ ; std::basic_string<char,std::char_traits<char>,std::allocator<char> >::~basic_string<char,std::char_traits<char>,std::allocator<char> >
__unwindfunclet$?OnTrailStart@ioClientAniEventHandler@@MAEXPBUAniEventTime@@PBVioAnimation@@@Z$2:
  00013	8d 8d 10 ff ff
	ff		 lea	 ecx, DWORD PTR _szTexture$[ebp]
  00019	ff 25 00 00 00
	00		 jmp	 DWORD PTR __imp_??1ioHashString@@QAE@XZ
__unwindfunclet$?OnTrailStart@ioClientAniEventHandler@@MAEXPBUAniEventTime@@PBVioAnimation@@@Z$3:
  0001f	8d 4d b8	 lea	 ecx, DWORD PTR $T534927[ebp]
  00022	ff 25 00 00 00
	00		 jmp	 DWORD PTR __imp_??1ioHashString@@QAE@XZ
__unwindfunclet$?OnTrailStart@ioClientAniEventHandler@@MAEXPBUAniEventTime@@PBVioAnimation@@@Z$4:
  00028	8d 8d 2c ff ff
	ff		 lea	 ecx, DWORD PTR _szParts$[ebp]
  0002e	ff 25 00 00 00
	00		 jmp	 DWORD PTR __imp_??1ioHashString@@QAE@XZ
__unwindfunclet$?OnTrailStart@ioClientAniEventHandler@@MAEXPBUAniEventTime@@PBVioAnimation@@@Z$5:
  00034	8d 4d ac	 lea	 ecx, DWORD PTR _szCtrlParam$525929[ebp]
  00037	e9 00 00 00 00	 jmp	 ??1?$basic_string@DU?$char_traits@D@std@@V?$allocator@D@2@@std@@QAE@XZ ; std::basic_string<char,std::char_traits<char>,std::allocator<char> >::~basic_string<char,std::char_traits<char>,std::allocator<char> >
__unwindfunclet$?OnTrailStart@ioClientAniEventHandler@@MAEXPBUAniEventTime@@PBVioAnimation@@@Z$6:
  0003c	8d 4d 90	 lea	 ecx, DWORD PTR $T525931[ebp]
  0003f	e9 00 00 00 00	 jmp	 ??1?$basic_string@DU?$char_traits@D@std@@V?$allocator@D@2@@std@@QAE@XZ ; std::basic_string<char,std::char_traits<char>,std::allocator<char> >::~basic_string<char,std::char_traits<char>,std::allocator<char> >
__unwindfunclet$?OnTrailStart@ioClientAniEventHandler@@MAEXPBUAniEventTime@@PBVioAnimation@@@Z$11:
  00044	8d 4d d4	 lea	 ecx, DWORD PTR _szMeshName$535789[ebp]
  00047	ff 25 00 00 00
	00		 jmp	 DWORD PTR __imp_??1ioHashString@@QAE@XZ
__unwindfunclet$?OnTrailStart@ioClientAniEventHandler@@MAEXPBUAniEventTime@@PBVioAnimation@@@Z$12:
  0004d	8d 4d b8	 lea	 ecx, DWORD PTR _szMeshName$535816[ebp]
  00050	ff 25 00 00 00
	00		 jmp	 DWORD PTR __imp_??1ioHashString@@QAE@XZ
__unwindfunclet$?OnTrailStart@ioClientAniEventHandler@@MAEXPBUAniEventTime@@PBVioAnimation@@@Z$7:
  00056	8d 4d 80	 lea	 ecx, DWORD PTR $T534928[ebp]
  00059	ff 25 00 00 00
	00		 jmp	 DWORD PTR __imp_??1ioHashString@@QAE@XZ
__unwindfunclet$?OnTrailStart@ioClientAniEventHandler@@MAEXPBUAniEventTime@@PBVioAnimation@@@Z$8:
  0005f	8d 4d e4	 lea	 ecx, DWORD PTR _rkStart$526410[ebp]
  00062	e9 00 00 00 00	 jmp	 ??1?$list@PBVioMeshControlPoint@@V?$allocator@PBVioMeshControlPoint@@@std@@@std@@QAE@XZ ; std::list<ioMeshControlPoint const *,std::allocator<ioMeshControlPoint const *> >::~list<ioMeshControlPoint const *,std::allocator<ioMeshControlPoint const *> >
__unwindfunclet$?OnTrailStart@ioClientAniEventHandler@@MAEXPBUAniEventTime@@PBVioAnimation@@@Z$9:
  00067	8d 4d 9c	 lea	 ecx, DWORD PTR $T534929[ebp]
  0006a	ff 25 00 00 00
	00		 jmp	 DWORD PTR __imp_??1ioHashString@@QAE@XZ
__unwindfunclet$?OnTrailStart@ioClientAniEventHandler@@MAEXPBUAniEventTime@@PBVioAnimation@@@Z$10:
  00070	8d 8d 20 ff ff
	ff		 lea	 ecx, DWORD PTR _rkEnd$526414[ebp]
  00076	e9 00 00 00 00	 jmp	 ??1?$list@PBVioMeshControlPoint@@V?$allocator@PBVioMeshControlPoint@@@std@@@std@@QAE@XZ ; std::list<ioMeshControlPoint const *,std::allocator<ioMeshControlPoint const *> >::~list<ioMeshControlPoint const *,std::allocator<ioMeshControlPoint const *> >
__ehhandler$?OnTrailStart@ioClientAniEventHandler@@MAEXPBUAniEventTime@@PBVioAnimation@@@Z:
  0007b	8b 54 24 08	 mov	 edx, DWORD PTR [esp+8]
  0007f	8d 42 0c	 lea	 eax, DWORD PTR [edx+12]
  00082	8b 8a 08 ff ff
	ff		 mov	 ecx, DWORD PTR [edx-248]
  00088	33 c8		 xor	 ecx, eax
  0008a	e8 00 00 00 00	 call	 @__security_check_cookie@4
  0008f	8b 4a fc	 mov	 ecx, DWORD PTR [edx-4]
  00092	33 c8		 xor	 ecx, eax
  00094	e8 00 00 00 00	 call	 @__security_check_cookie@4
  00099	b8 00 00 00 00	 mov	 eax, OFFSET __ehfuncinfo$?OnTrailStart@ioClientAniEventHandler@@MAEXPBUAniEventTime@@PBVioAnimation@@@Z
  0009e	e9 00 00 00 00	 jmp	 ___CxxFrameHandler3
text$x	ENDS
?OnTrailStart@ioClientAniEventHandler@@MAEXPBUAniEventTime@@PBVioAnimation@@@Z ENDP ; ioClientAniEventHandler::OnTrailStart
PUBLIC	??1?$vector@UAniEventInfo@@V?$allocator@UAniEventInfo@@@std@@@std@@QAE@XZ ; std::vector<AniEventInfo,std::allocator<AniEventInfo> >::~vector<AniEventInfo,std::allocator<AniEventInfo> >
; Function compile flags: /Ogsp
; File c:\program files (x86)\microsoft visual studio 10.0\vc\include\vector
;	COMDAT ??1?$vector@UAniEventInfo@@V?$allocator@UAniEventInfo@@@std@@@std@@QAE@XZ
_TEXT	SEGMENT
??1?$vector@UAniEventInfo@@V?$allocator@UAniEventInfo@@@std@@@std@@QAE@XZ PROC ; std::vector<AniEventInfo,std::allocator<AniEventInfo> >::~vector<AniEventInfo,std::allocator<AniEventInfo> >, COMDAT
; _this$ = ecx

; 705  : 		_Tidy();

  00000	e9 00 00 00 00	 jmp	 ?_Tidy@?$vector@UAniEventInfo@@V?$allocator@UAniEventInfo@@@std@@@std@@IAEXXZ ; std::vector<AniEventInfo,std::allocator<AniEventInfo> >::_Tidy
??1?$vector@UAniEventInfo@@V?$allocator@UAniEventInfo@@@std@@@std@@QAE@XZ ENDP ; std::vector<AniEventInfo,std::allocator<AniEventInfo> >::~vector<AniEventInfo,std::allocator<AniEventInfo> >
_TEXT	ENDS
PUBLIC	?erase@?$vector@UAniEventInfo@@V?$allocator@UAniEventInfo@@@std@@@std@@QAE?AV?$_Vector_iterator@V?$_Vector_val@UAniEventInfo@@V?$allocator@UAniEventInfo@@@std@@@std@@@2@V?$_Vector_const_iterator@V?$_Vector_val@UAniEventInfo@@V?$allocator@UAniEventInfo@@@std@@@std@@@2@@Z ; std::vector<AniEventInfo,std::allocator<AniEventInfo> >::erase
; Function compile flags: /Ogsp
;	COMDAT ?erase@?$vector@UAniEventInfo@@V?$allocator@UAniEventInfo@@@std@@@std@@QAE?AV?$_Vector_iterator@V?$_Vector_val@UAniEventInfo@@V?$allocator@UAniEventInfo@@@std@@@std@@@2@V?$_Vector_const_iterator@V?$_Vector_val@UAniEventInfo@@V?$allocator@UAniEventInfo@@@std@@@std@@@2@@Z
_TEXT	SEGMENT
___$ReturnUdt$ = 8					; size = 4
__Cat$536124 = 12					; size = 1
__Where$ = 12						; size = 4
?erase@?$vector@UAniEventInfo@@V?$allocator@UAniEventInfo@@@std@@@std@@QAE?AV?$_Vector_iterator@V?$_Vector_val@UAniEventInfo@@V?$allocator@UAniEventInfo@@@std@@@std@@@2@V?$_Vector_const_iterator@V?$_Vector_val@UAniEventInfo@@V?$allocator@UAniEventInfo@@@std@@@std@@@2@@Z PROC ; std::vector<AniEventInfo,std::allocator<AniEventInfo> >::erase, COMDAT
; _this$ = ecx

; 1179 : 		{	// erase element at where

  00000	55		 push	 ebp
  00001	8b ec		 mov	 ebp, esp

; 1180 : 		_Move(_VIPTR(_Where) + 1, this->_Mylast,
; 1181 : 			_VIPTR(_Where));

  00003	8b 45 0c	 mov	 eax, DWORD PTR __Where$[ebp]
  00006	53		 push	 ebx
  00007	56		 push	 esi
  00008	57		 push	 edi
  00009	ff 75 0c	 push	 DWORD PTR __Cat$536124[ebp]
  0000c	8b f1		 mov	 esi, ecx
  0000e	50		 push	 eax
  0000f	ff 76 04	 push	 DWORD PTR [esi+4]
  00012	83 c0 20	 add	 eax, 32			; 00000020H
  00015	50		 push	 eax
  00016	e8 00 00 00 00	 call	 ??$_Move@PAUAniEventInfo@@PAU1@@std@@YAPAUAniEventInfo@@PAU1@00U_Nonscalar_ptr_iterator_tag@0@@Z ; std::_Move<AniEventInfo *,AniEventInfo *>

; 1182 : 		_Destroy(this->_Mylast - 1, this->_Mylast);

  0001b	8b 7e 04	 mov	 edi, DWORD PTR [esi+4]
  0001e	83 c4 10	 add	 esp, 16			; 00000010H
  00021	8d 5f e0	 lea	 ebx, DWORD PTR [edi-32]
  00024	eb 0a		 jmp	 SHORT $LN37@erase@2
$LL15@erase@2:
  00026	8b cb		 mov	 ecx, ebx
  00028	e8 00 00 00 00	 call	 ??1AniEventInfo@@QAE@XZ
  0002d	83 c3 20	 add	 ebx, 32			; 00000020H
$LN37@erase@2:
  00030	3b df		 cmp	 ebx, edi
  00032	75 f2		 jne	 SHORT $LL15@erase@2

; 1183 : 		--this->_Mylast;

  00034	83 46 04 e0	 add	 DWORD PTR [esi+4], -32	; ffffffe0H

; 1184 : 		return (_Make_iter(_Where));

  00038	8b 45 08	 mov	 eax, DWORD PTR ___$ReturnUdt$[ebp]
  0003b	8b 4d 0c	 mov	 ecx, DWORD PTR __Where$[ebp]
  0003e	5f		 pop	 edi
  0003f	5e		 pop	 esi
  00040	89 08		 mov	 DWORD PTR [eax], ecx
  00042	5b		 pop	 ebx

; 1185 : 		}

  00043	5d		 pop	 ebp
  00044	c2 08 00	 ret	 8
?erase@?$vector@UAniEventInfo@@V?$allocator@UAniEventInfo@@@std@@@std@@QAE?AV?$_Vector_iterator@V?$_Vector_val@UAniEventInfo@@V?$allocator@UAniEventInfo@@@std@@@std@@@2@V?$_Vector_const_iterator@V?$_Vector_val@UAniEventInfo@@V?$allocator@UAniEventInfo@@@std@@@std@@@2@@Z ENDP ; std::vector<AniEventInfo,std::allocator<AniEventInfo> >::erase
_TEXT	ENDS
PUBLIC	??1?$vector@UtagAniSoundEventInfo@@V?$allocator@UtagAniSoundEventInfo@@@std@@@std@@QAE@XZ ; std::vector<tagAniSoundEventInfo,std::allocator<tagAniSoundEventInfo> >::~vector<tagAniSoundEventInfo,std::allocator<tagAniSoundEventInfo> >
; Function compile flags: /Ogsp
;	COMDAT ??1?$vector@UtagAniSoundEventInfo@@V?$allocator@UtagAniSoundEventInfo@@@std@@@std@@QAE@XZ
_TEXT	SEGMENT
??1?$vector@UtagAniSoundEventInfo@@V?$allocator@UtagAniSoundEventInfo@@@std@@@std@@QAE@XZ PROC ; std::vector<tagAniSoundEventInfo,std::allocator<tagAniSoundEventInfo> >::~vector<tagAniSoundEventInfo,std::allocator<tagAniSoundEventInfo> >, COMDAT
; _this$ = ecx

; 705  : 		_Tidy();

  00000	e9 00 00 00 00	 jmp	 ?_Tidy@?$vector@UtagAniSoundEventInfo@@V?$allocator@UtagAniSoundEventInfo@@@std@@@std@@IAEXXZ ; std::vector<tagAniSoundEventInfo,std::allocator<tagAniSoundEventInfo> >::_Tidy
??1?$vector@UtagAniSoundEventInfo@@V?$allocator@UtagAniSoundEventInfo@@@std@@@std@@QAE@XZ ENDP ; std::vector<tagAniSoundEventInfo,std::allocator<tagAniSoundEventInfo> >::~vector<tagAniSoundEventInfo,std::allocator<tagAniSoundEventInfo> >
_TEXT	ENDS
PUBLIC	?erase@?$vector@UtagAniSoundEventInfo@@V?$allocator@UtagAniSoundEventInfo@@@std@@@std@@QAE?AV?$_Vector_iterator@V?$_Vector_val@UtagAniSoundEventInfo@@V?$allocator@UtagAniSoundEventInfo@@@std@@@std@@@2@V?$_Vector_const_iterator@V?$_Vector_val@UtagAniSoundEventInfo@@V?$allocator@UtagAniSoundEventInfo@@@std@@@std@@@2@@Z ; std::vector<tagAniSoundEventInfo,std::allocator<tagAniSoundEventInfo> >::erase
; Function compile flags: /Ogsp
;	COMDAT ?erase@?$vector@UtagAniSoundEventInfo@@V?$allocator@UtagAniSoundEventInfo@@@std@@@std@@QAE?AV?$_Vector_iterator@V?$_Vector_val@UtagAniSoundEventInfo@@V?$allocator@UtagAniSoundEventInfo@@@std@@@std@@@2@V?$_Vector_const_iterator@V?$_Vector_val@UtagAniSoundEventInfo@@V?$allocator@UtagAniSoundEventInfo@@@std@@@std@@@2@@Z
_TEXT	SEGMENT
___$ReturnUdt$ = 8					; size = 4
__Cat$536268 = 12					; size = 1
__Where$ = 12						; size = 4
?erase@?$vector@UtagAniSoundEventInfo@@V?$allocator@UtagAniSoundEventInfo@@@std@@@std@@QAE?AV?$_Vector_iterator@V?$_Vector_val@UtagAniSoundEventInfo@@V?$allocator@UtagAniSoundEventInfo@@@std@@@std@@@2@V?$_Vector_const_iterator@V?$_Vector_val@UtagAniSoundEventInfo@@V?$allocator@UtagAniSoundEventInfo@@@std@@@std@@@2@@Z PROC ; std::vector<tagAniSoundEventInfo,std::allocator<tagAniSoundEventInfo> >::erase, COMDAT
; _this$ = ecx

; 1179 : 		{	// erase element at where

  00000	55		 push	 ebp
  00001	8b ec		 mov	 ebp, esp

; 1180 : 		_Move(_VIPTR(_Where) + 1, this->_Mylast,
; 1181 : 			_VIPTR(_Where));

  00003	8b 45 0c	 mov	 eax, DWORD PTR __Where$[ebp]
  00006	53		 push	 ebx
  00007	56		 push	 esi
  00008	57		 push	 edi
  00009	ff 75 0c	 push	 DWORD PTR __Cat$536268[ebp]
  0000c	8b f1		 mov	 esi, ecx
  0000e	50		 push	 eax
  0000f	ff 76 04	 push	 DWORD PTR [esi+4]
  00012	83 c0 24	 add	 eax, 36			; 00000024H
  00015	50		 push	 eax
  00016	e8 00 00 00 00	 call	 ??$_Move@PAUtagAniSoundEventInfo@@PAU1@@std@@YAPAUtagAniSoundEventInfo@@PAU1@00U_Nonscalar_ptr_iterator_tag@0@@Z ; std::_Move<tagAniSoundEventInfo *,tagAniSoundEventInfo *>

; 1182 : 		_Destroy(this->_Mylast - 1, this->_Mylast);

  0001b	8b 7e 04	 mov	 edi, DWORD PTR [esi+4]
  0001e	83 c4 10	 add	 esp, 16			; 00000010H
  00021	8d 5f dc	 lea	 ebx, DWORD PTR [edi-36]
  00024	eb 0a		 jmp	 SHORT $LN37@erase@3
$LL15@erase@3:
  00026	8b cb		 mov	 ecx, ebx
  00028	e8 00 00 00 00	 call	 ??1tagAniSoundEventInfo@@QAE@XZ
  0002d	83 c3 24	 add	 ebx, 36			; 00000024H
$LN37@erase@3:
  00030	3b df		 cmp	 ebx, edi
  00032	75 f2		 jne	 SHORT $LL15@erase@3

; 1183 : 		--this->_Mylast;

  00034	83 46 04 dc	 add	 DWORD PTR [esi+4], -36	; ffffffdcH

; 1184 : 		return (_Make_iter(_Where));

  00038	8b 45 08	 mov	 eax, DWORD PTR ___$ReturnUdt$[ebp]
  0003b	8b 4d 0c	 mov	 ecx, DWORD PTR __Where$[ebp]
  0003e	5f		 pop	 edi
  0003f	5e		 pop	 esi
  00040	89 08		 mov	 DWORD PTR [eax], ecx
  00042	5b		 pop	 ebx

; 1185 : 		}

  00043	5d		 pop	 ebp
  00044	c2 08 00	 ret	 8
?erase@?$vector@UtagAniSoundEventInfo@@V?$allocator@UtagAniSoundEventInfo@@@std@@@std@@QAE?AV?$_Vector_iterator@V?$_Vector_val@UtagAniSoundEventInfo@@V?$allocator@UtagAniSoundEventInfo@@@std@@@std@@@2@V?$_Vector_const_iterator@V?$_Vector_val@UtagAniSoundEventInfo@@V?$allocator@UtagAniSoundEventInfo@@@std@@@std@@@2@@Z ENDP ; std::vector<tagAniSoundEventInfo,std::allocator<tagAniSoundEventInfo> >::erase
_TEXT	ENDS
PUBLIC	?erase@?$vector@UAniEventInfo@@V?$allocator@UAniEventInfo@@@std@@@std@@QAE?AV?$_Vector_iterator@V?$_Vector_val@UAniEventInfo@@V?$allocator@UAniEventInfo@@@std@@@std@@@2@V?$_Vector_const_iterator@V?$_Vector_val@UAniEventInfo@@V?$allocator@UAniEventInfo@@@std@@@std@@@2@0@Z ; std::vector<AniEventInfo,std::allocator<AniEventInfo> >::erase
; Function compile flags: /Ogsp
;	COMDAT ?erase@?$vector@UAniEventInfo@@V?$allocator@UAniEventInfo@@@std@@@std@@QAE?AV?$_Vector_iterator@V?$_Vector_val@UAniEventInfo@@V?$allocator@UAniEventInfo@@@std@@@std@@@2@V?$_Vector_const_iterator@V?$_Vector_val@UAniEventInfo@@V?$allocator@UAniEventInfo@@@std@@@std@@@2@0@Z
_TEXT	SEGMENT
$T536522 = -4						; size = 4
___$ReturnUdt$ = 8					; size = 4
__First_arg$ = 12					; size = 4
__Cat$536468 = 16					; size = 1
__Last_arg$ = 16					; size = 4
?erase@?$vector@UAniEventInfo@@V?$allocator@UAniEventInfo@@@std@@@std@@QAE?AV?$_Vector_iterator@V?$_Vector_val@UAniEventInfo@@V?$allocator@UAniEventInfo@@@std@@@std@@@2@V?$_Vector_const_iterator@V?$_Vector_val@UAniEventInfo@@V?$allocator@UAniEventInfo@@@std@@@std@@@2@0@Z PROC ; std::vector<AniEventInfo,std::allocator<AniEventInfo> >::erase, COMDAT
; _this$ = ecx

; 1190 : 		{	// erase [_First, _Last)

  00000	55		 push	 ebp
  00001	8b ec		 mov	 ebp, esp
  00003	51		 push	 ecx

; 1191 : 		iterator _First = _Make_iter(_First_arg);

  00004	8b 45 08	 mov	 eax, DWORD PTR ___$ReturnUdt$[ebp]
  00007	56		 push	 esi
  00008	8b f1		 mov	 esi, ecx
  0000a	8b 4d 0c	 mov	 ecx, DWORD PTR __First_arg$[ebp]
  0000d	89 08		 mov	 DWORD PTR [eax], ecx

; 1192 : 		iterator _Last = _Make_iter(_Last_arg);
; 1193 : 
; 1194 : 		if (_First != _Last)

  0000f	3b 4d 10	 cmp	 ecx, DWORD PTR __Last_arg$[ebp]
  00012	74 37		 je	 SHORT $LN1@erase@4

; 1195 : 			{	// worth doing, copy down over hole
; 1196 :  #if _ITERATOR_DEBUG_LEVEL == 2
; 1197 : 			if (_Last < _First || _VICONT(_First) != this
; 1198 : 				|| _VIPTR(_First) < this->_Myfirst
; 1199 : 				|| this->_Mylast < _VIPTR(_Last))
; 1200 : 				_DEBUG_ERROR("vector erase iterator outside range");
; 1201 : 			pointer _Ptr = _Move(_VIPTR(_Last), this->_Mylast,
; 1202 : 				_VIPTR(_First));
; 1203 : 			_Orphan_range(_VIPTR(_First), this->_Mylast);
; 1204 : 
; 1205 :  #else /* _ITERATOR_DEBUG_LEVEL == 2 */
; 1206 : 			pointer _Ptr = _Move(_VIPTR(_Last), this->_Mylast,
; 1207 : 				_VIPTR(_First));

  00014	8b 46 04	 mov	 eax, DWORD PTR [esi+4]
  00017	53		 push	 ebx
  00018	57		 push	 edi
  00019	ff 75 10	 push	 DWORD PTR __Cat$536468[ebp]
  0001c	51		 push	 ecx
  0001d	50		 push	 eax
  0001e	ff 75 10	 push	 DWORD PTR __Last_arg$[ebp]
  00021	e8 00 00 00 00	 call	 ??$_Move@PAUAniEventInfo@@PAU1@@std@@YAPAUAniEventInfo@@PAU1@00U_Nonscalar_ptr_iterator_tag@0@@Z ; std::_Move<AniEventInfo *,AniEventInfo *>

; 1208 :  #endif /* _ITERATOR_DEBUG_LEVEL == 2 */
; 1209 : 
; 1210 : 			_Destroy(_Ptr, this->_Mylast);

  00026	8b 7e 04	 mov	 edi, DWORD PTR [esi+4]
  00029	8b d8		 mov	 ebx, eax
  0002b	83 c4 10	 add	 esp, 16			; 00000010H
  0002e	89 5d fc	 mov	 DWORD PTR $T536522[ebp], ebx
  00031	3b df		 cmp	 ebx, edi
  00033	74 11		 je	 SHORT $LN36@erase@4
$LL52@erase@4:
  00035	8b 4d fc	 mov	 ecx, DWORD PTR $T536522[ebp]
  00038	e8 00 00 00 00	 call	 ??1AniEventInfo@@QAE@XZ
  0003d	83 45 fc 20	 add	 DWORD PTR $T536522[ebp], 32 ; 00000020H
  00041	39 7d fc	 cmp	 DWORD PTR $T536522[ebp], edi
  00044	75 ef		 jne	 SHORT $LL52@erase@4
$LN36@erase@4:

; 1211 : 			this->_Mylast = _Ptr;

  00046	5f		 pop	 edi
  00047	89 5e 04	 mov	 DWORD PTR [esi+4], ebx
  0004a	5b		 pop	 ebx
$LN1@erase@4:

; 1212 : 			}
; 1213 : 		return (_First);

  0004b	8b 45 08	 mov	 eax, DWORD PTR ___$ReturnUdt$[ebp]
  0004e	5e		 pop	 esi

; 1214 : 		}

  0004f	c9		 leave
  00050	c2 0c 00	 ret	 12			; 0000000cH
?erase@?$vector@UAniEventInfo@@V?$allocator@UAniEventInfo@@@std@@@std@@QAE?AV?$_Vector_iterator@V?$_Vector_val@UAniEventInfo@@V?$allocator@UAniEventInfo@@@std@@@std@@@2@V?$_Vector_const_iterator@V?$_Vector_val@UAniEventInfo@@V?$allocator@UAniEventInfo@@@std@@@std@@@2@0@Z ENDP ; std::vector<AniEventInfo,std::allocator<AniEventInfo> >::erase
_TEXT	ENDS
PUBLIC	?_Reserve@?$vector@UAniEventInfo@@V?$allocator@UAniEventInfo@@@std@@@std@@IAEXI@Z ; std::vector<AniEventInfo,std::allocator<AniEventInfo> >::_Reserve
; Function compile flags: /Ogsp
;	COMDAT ?_Reserve@?$vector@UAniEventInfo@@V?$allocator@UAniEventInfo@@@std@@@std@@IAEXI@Z
_TEXT	SEGMENT
__Count$ = 8						; size = 4
?_Reserve@?$vector@UAniEventInfo@@V?$allocator@UAniEventInfo@@@std@@@std@@IAEXI@Z PROC ; std::vector<AniEventInfo,std::allocator<AniEventInfo> >::_Reserve, COMDAT
; _this$ = ecx

; 1290 : 		{	// ensure room for _Count new elements, grow exponentially

  00000	55		 push	 ebp
  00001	8b ec		 mov	 ebp, esp
  00003	56		 push	 esi
  00004	8b f1		 mov	 esi, ecx

; 1291 : 		size_type _Size = size();

  00006	8b 0e		 mov	 ecx, DWORD PTR [esi]
  00008	8b 46 04	 mov	 eax, DWORD PTR [esi+4]
  0000b	2b c1		 sub	 eax, ecx

; 1292 : 		if (max_size() - _Count < _Size)

  0000d	ba ff ff ff 07	 mov	 edx, 134217727		; 07ffffffH
  00012	2b 55 08	 sub	 edx, DWORD PTR __Count$[ebp]
  00015	c1 f8 05	 sar	 eax, 5
  00018	3b d0		 cmp	 edx, eax
  0001a	73 0b		 jae	 SHORT $LN4@Reserve

; 1293 : 			_Xlen();

  0001c	68 00 00 00 00	 push	 OFFSET ??_C@_0BD@OLBABOEK@vector?$DMT?$DO?5too?5long?$AA@
  00021	ff 15 00 00 00
	00		 call	 DWORD PTR __imp_?_Xlength_error@std@@YAXPBD@Z
$LN21@Reserve:
$LN4@Reserve:

; 1294 : 		else if ((_Size += _Count) <= capacity())

  00027	8b 56 08	 mov	 edx, DWORD PTR [esi+8]
  0002a	03 45 08	 add	 eax, DWORD PTR __Count$[ebp]
  0002d	2b d1		 sub	 edx, ecx
  0002f	c1 fa 05	 sar	 edx, 5
  00032	3b c2		 cmp	 eax, edx
  00034	76 10		 jbe	 SHORT $LN1@Reserve

; 1295 : 			;
; 1296 : 		else
; 1297 : 			reserve(_Grow_to(_Size));

  00036	50		 push	 eax
  00037	8b ce		 mov	 ecx, esi
  00039	e8 00 00 00 00	 call	 ?_Grow_to@?$vector@UAniEventInfo@@V?$allocator@UAniEventInfo@@@std@@@std@@IBEII@Z ; std::vector<AniEventInfo,std::allocator<AniEventInfo> >::_Grow_to
  0003e	50		 push	 eax
  0003f	8b ce		 mov	 ecx, esi
  00041	e8 00 00 00 00	 call	 ?reserve@?$vector@UAniEventInfo@@V?$allocator@UAniEventInfo@@@std@@@std@@QAEXI@Z ; std::vector<AniEventInfo,std::allocator<AniEventInfo> >::reserve
$LN1@Reserve:
  00046	5e		 pop	 esi

; 1298 : 		}

  00047	5d		 pop	 ebp
  00048	c2 04 00	 ret	 4
$LN20@Reserve:
?_Reserve@?$vector@UAniEventInfo@@V?$allocator@UAniEventInfo@@@std@@@std@@IAEXI@Z ENDP ; std::vector<AniEventInfo,std::allocator<AniEventInfo> >::_Reserve
_TEXT	ENDS
PUBLIC	?erase@?$vector@UtagAniSoundEventInfo@@V?$allocator@UtagAniSoundEventInfo@@@std@@@std@@QAE?AV?$_Vector_iterator@V?$_Vector_val@UtagAniSoundEventInfo@@V?$allocator@UtagAniSoundEventInfo@@@std@@@std@@@2@V?$_Vector_const_iterator@V?$_Vector_val@UtagAniSoundEventInfo@@V?$allocator@UtagAniSoundEventInfo@@@std@@@std@@@2@0@Z ; std::vector<tagAniSoundEventInfo,std::allocator<tagAniSoundEventInfo> >::erase
; Function compile flags: /Ogsp
;	COMDAT ?erase@?$vector@UtagAniSoundEventInfo@@V?$allocator@UtagAniSoundEventInfo@@@std@@@std@@QAE?AV?$_Vector_iterator@V?$_Vector_val@UtagAniSoundEventInfo@@V?$allocator@UtagAniSoundEventInfo@@@std@@@std@@@2@V?$_Vector_const_iterator@V?$_Vector_val@UtagAniSoundEventInfo@@V?$allocator@UtagAniSoundEventInfo@@@std@@@std@@@2@0@Z
_TEXT	SEGMENT
$T536729 = -4						; size = 4
___$ReturnUdt$ = 8					; size = 4
__First_arg$ = 12					; size = 4
__Cat$536674 = 16					; size = 1
__Last_arg$ = 16					; size = 4
?erase@?$vector@UtagAniSoundEventInfo@@V?$allocator@UtagAniSoundEventInfo@@@std@@@std@@QAE?AV?$_Vector_iterator@V?$_Vector_val@UtagAniSoundEventInfo@@V?$allocator@UtagAniSoundEventInfo@@@std@@@std@@@2@V?$_Vector_const_iterator@V?$_Vector_val@UtagAniSoundEventInfo@@V?$allocator@UtagAniSoundEventInfo@@@std@@@std@@@2@0@Z PROC ; std::vector<tagAniSoundEventInfo,std::allocator<tagAniSoundEventInfo> >::erase, COMDAT
; _this$ = ecx

; 1190 : 		{	// erase [_First, _Last)

  00000	55		 push	 ebp
  00001	8b ec		 mov	 ebp, esp
  00003	51		 push	 ecx

; 1191 : 		iterator _First = _Make_iter(_First_arg);

  00004	8b 45 08	 mov	 eax, DWORD PTR ___$ReturnUdt$[ebp]
  00007	56		 push	 esi
  00008	8b f1		 mov	 esi, ecx
  0000a	8b 4d 0c	 mov	 ecx, DWORD PTR __First_arg$[ebp]
  0000d	89 08		 mov	 DWORD PTR [eax], ecx

; 1192 : 		iterator _Last = _Make_iter(_Last_arg);
; 1193 : 
; 1194 : 		if (_First != _Last)

  0000f	3b 4d 10	 cmp	 ecx, DWORD PTR __Last_arg$[ebp]
  00012	74 37		 je	 SHORT $LN1@erase@5

; 1195 : 			{	// worth doing, copy down over hole
; 1196 :  #if _ITERATOR_DEBUG_LEVEL == 2
; 1197 : 			if (_Last < _First || _VICONT(_First) != this
; 1198 : 				|| _VIPTR(_First) < this->_Myfirst
; 1199 : 				|| this->_Mylast < _VIPTR(_Last))
; 1200 : 				_DEBUG_ERROR("vector erase iterator outside range");
; 1201 : 			pointer _Ptr = _Move(_VIPTR(_Last), this->_Mylast,
; 1202 : 				_VIPTR(_First));
; 1203 : 			_Orphan_range(_VIPTR(_First), this->_Mylast);
; 1204 : 
; 1205 :  #else /* _ITERATOR_DEBUG_LEVEL == 2 */
; 1206 : 			pointer _Ptr = _Move(_VIPTR(_Last), this->_Mylast,
; 1207 : 				_VIPTR(_First));

  00014	8b 46 04	 mov	 eax, DWORD PTR [esi+4]
  00017	53		 push	 ebx
  00018	57		 push	 edi
  00019	ff 75 10	 push	 DWORD PTR __Cat$536674[ebp]
  0001c	51		 push	 ecx
  0001d	50		 push	 eax
  0001e	ff 75 10	 push	 DWORD PTR __Last_arg$[ebp]
  00021	e8 00 00 00 00	 call	 ??$_Move@PAUtagAniSoundEventInfo@@PAU1@@std@@YAPAUtagAniSoundEventInfo@@PAU1@00U_Nonscalar_ptr_iterator_tag@0@@Z ; std::_Move<tagAniSoundEventInfo *,tagAniSoundEventInfo *>

; 1208 :  #endif /* _ITERATOR_DEBUG_LEVEL == 2 */
; 1209 : 
; 1210 : 			_Destroy(_Ptr, this->_Mylast);

  00026	8b 7e 04	 mov	 edi, DWORD PTR [esi+4]
  00029	8b d8		 mov	 ebx, eax
  0002b	83 c4 10	 add	 esp, 16			; 00000010H
  0002e	89 5d fc	 mov	 DWORD PTR $T536729[ebp], ebx
  00031	3b df		 cmp	 ebx, edi
  00033	74 11		 je	 SHORT $LN36@erase@5
$LL52@erase@5:
  00035	8b 4d fc	 mov	 ecx, DWORD PTR $T536729[ebp]
  00038	e8 00 00 00 00	 call	 ??1tagAniSoundEventInfo@@QAE@XZ
  0003d	83 45 fc 24	 add	 DWORD PTR $T536729[ebp], 36 ; 00000024H
  00041	39 7d fc	 cmp	 DWORD PTR $T536729[ebp], edi
  00044	75 ef		 jne	 SHORT $LL52@erase@5
$LN36@erase@5:

; 1211 : 			this->_Mylast = _Ptr;

  00046	5f		 pop	 edi
  00047	89 5e 04	 mov	 DWORD PTR [esi+4], ebx
  0004a	5b		 pop	 ebx
$LN1@erase@5:

; 1212 : 			}
; 1213 : 		return (_First);

  0004b	8b 45 08	 mov	 eax, DWORD PTR ___$ReturnUdt$[ebp]
  0004e	5e		 pop	 esi

; 1214 : 		}

  0004f	c9		 leave
  00050	c2 0c 00	 ret	 12			; 0000000cH
?erase@?$vector@UtagAniSoundEventInfo@@V?$allocator@UtagAniSoundEventInfo@@@std@@@std@@QAE?AV?$_Vector_iterator@V?$_Vector_val@UtagAniSoundEventInfo@@V?$allocator@UtagAniSoundEventInfo@@@std@@@std@@@2@V?$_Vector_const_iterator@V?$_Vector_val@UtagAniSoundEventInfo@@V?$allocator@UtagAniSoundEventInfo@@@std@@@std@@@2@0@Z ENDP ; std::vector<tagAniSoundEventInfo,std::allocator<tagAniSoundEventInfo> >::erase
_TEXT	ENDS
PUBLIC	?_Reserve@?$vector@UtagAniSoundEventInfo@@V?$allocator@UtagAniSoundEventInfo@@@std@@@std@@IAEXI@Z ; std::vector<tagAniSoundEventInfo,std::allocator<tagAniSoundEventInfo> >::_Reserve
; Function compile flags: /Ogsp
;	COMDAT ?_Reserve@?$vector@UtagAniSoundEventInfo@@V?$allocator@UtagAniSoundEventInfo@@@std@@@std@@IAEXI@Z
_TEXT	SEGMENT
__Count$ = 8						; size = 4
?_Reserve@?$vector@UtagAniSoundEventInfo@@V?$allocator@UtagAniSoundEventInfo@@@std@@@std@@IAEXI@Z PROC ; std::vector<tagAniSoundEventInfo,std::allocator<tagAniSoundEventInfo> >::_Reserve, COMDAT
; _this$ = ecx

; 1290 : 		{	// ensure room for _Count new elements, grow exponentially

  00000	55		 push	 ebp
  00001	8b ec		 mov	 ebp, esp
  00003	56		 push	 esi
  00004	8b f1		 mov	 esi, ecx

; 1291 : 		size_type _Size = size();

  00006	8b 0e		 mov	 ecx, DWORD PTR [esi]
  00008	8b 46 04	 mov	 eax, DWORD PTR [esi+4]
  0000b	2b c1		 sub	 eax, ecx
  0000d	57		 push	 edi
  0000e	99		 cdq
  0000f	6a 24		 push	 36			; 00000024H
  00011	5f		 pop	 edi
  00012	f7 ff		 idiv	 edi
  00014	8b f8		 mov	 edi, eax

; 1292 : 		if (max_size() - _Count < _Size)

  00016	b8 c7 71 1c 07	 mov	 eax, 119304647		; 071c71c7H
  0001b	2b 45 08	 sub	 eax, DWORD PTR __Count$[ebp]
  0001e	3b c7		 cmp	 eax, edi
  00020	73 0b		 jae	 SHORT $LN4@Reserve@2

; 1293 : 			_Xlen();

  00022	68 00 00 00 00	 push	 OFFSET ??_C@_0BD@OLBABOEK@vector?$DMT?$DO?5too?5long?$AA@
  00027	ff 15 00 00 00
	00		 call	 DWORD PTR __imp_?_Xlength_error@std@@YAXPBD@Z
$LN21@Reserve@2:
$LN4@Reserve@2:

; 1294 : 		else if ((_Size += _Count) <= capacity())

  0002d	8b 46 08	 mov	 eax, DWORD PTR [esi+8]
  00030	2b c1		 sub	 eax, ecx
  00032	6a 24		 push	 36			; 00000024H
  00034	99		 cdq
  00035	59		 pop	 ecx
  00036	f7 f9		 idiv	 ecx
  00038	03 7d 08	 add	 edi, DWORD PTR __Count$[ebp]
  0003b	3b f8		 cmp	 edi, eax
  0003d	76 10		 jbe	 SHORT $LN1@Reserve@2

; 1295 : 			;
; 1296 : 		else
; 1297 : 			reserve(_Grow_to(_Size));

  0003f	57		 push	 edi
  00040	8b ce		 mov	 ecx, esi
  00042	e8 00 00 00 00	 call	 ?_Grow_to@?$vector@UtagAniSoundEventInfo@@V?$allocator@UtagAniSoundEventInfo@@@std@@@std@@IBEII@Z ; std::vector<tagAniSoundEventInfo,std::allocator<tagAniSoundEventInfo> >::_Grow_to
  00047	50		 push	 eax
  00048	8b ce		 mov	 ecx, esi
  0004a	e8 00 00 00 00	 call	 ?reserve@?$vector@UtagAniSoundEventInfo@@V?$allocator@UtagAniSoundEventInfo@@@std@@@std@@QAEXI@Z ; std::vector<tagAniSoundEventInfo,std::allocator<tagAniSoundEventInfo> >::reserve
$LN1@Reserve@2:
  0004f	5f		 pop	 edi
  00050	5e		 pop	 esi

; 1298 : 		}

  00051	5d		 pop	 ebp
  00052	c2 04 00	 ret	 4
$LN20@Reserve@2:
?_Reserve@?$vector@UtagAniSoundEventInfo@@V?$allocator@UtagAniSoundEventInfo@@@std@@@std@@IAEXI@Z ENDP ; std::vector<tagAniSoundEventInfo,std::allocator<tagAniSoundEventInfo> >::_Reserve
_TEXT	ENDS
PUBLIC	?construct@?$allocator@V?$basic_string@DU?$char_traits@D@std@@V?$allocator@D@2@@std@@@std@@QAEXPAV?$basic_string@DU?$char_traits@D@std@@V?$allocator@D@2@@2@ABV32@@Z ; std::allocator<std::basic_string<char,std::char_traits<char>,std::allocator<char> > >::construct
; Function compile flags: /Ogsp
; File c:\program files (x86)\microsoft visual studio 10.0\vc\include\xmemory
;	COMDAT ?construct@?$allocator@V?$basic_string@DU?$char_traits@D@std@@V?$allocator@D@2@@std@@@std@@QAEXPAV?$basic_string@DU?$char_traits@D@std@@V?$allocator@D@2@@2@ABV32@@Z
_TEXT	SEGMENT
__Ptr$ = 8						; size = 4
__Val$ = 12						; size = 4
?construct@?$allocator@V?$basic_string@DU?$char_traits@D@std@@V?$allocator@D@2@@std@@@std@@QAEXPAV?$basic_string@DU?$char_traits@D@std@@V?$allocator@D@2@@2@ABV32@@Z PROC ; std::allocator<std::basic_string<char,std::char_traits<char>,std::allocator<char> > >::construct, COMDAT
; _this$ = ecx

; 196  : 		{	// construct object at _Ptr with value _Val

  00000	55		 push	 ebp
  00001	8b ec		 mov	 ebp, esp

; 197  : 		_Construct(_Ptr, _Val);

  00003	ff 75 0c	 push	 DWORD PTR __Val$[ebp]
  00006	ff 75 08	 push	 DWORD PTR __Ptr$[ebp]
  00009	e8 00 00 00 00	 call	 ??$_Construct@V?$basic_string@DU?$char_traits@D@std@@V?$allocator@D@2@@std@@ABV12@@std@@YAXPAV?$basic_string@DU?$char_traits@D@std@@V?$allocator@D@2@@0@ABV10@@Z ; std::_Construct<std::basic_string<char,std::char_traits<char>,std::allocator<char> >,std::basic_string<char,std::char_traits<char>,std::allocator<char> > const &>
  0000e	59		 pop	 ecx
  0000f	59		 pop	 ecx

; 198  : 		}

  00010	5d		 pop	 ebp
  00011	c2 08 00	 ret	 8
?construct@?$allocator@V?$basic_string@DU?$char_traits@D@std@@V?$allocator@D@2@@std@@@std@@QAEXPAV?$basic_string@DU?$char_traits@D@std@@V?$allocator@D@2@@2@ABV32@@Z ENDP ; std::allocator<std::basic_string<char,std::char_traits<char>,std::allocator<char> > >::construct
_TEXT	ENDS
PUBLIC	??$_Destroy_range@V?$allocator@V?$basic_string@DU?$char_traits@D@std@@V?$allocator@D@2@@std@@@std@@@std@@YAXPAV?$basic_string@DU?$char_traits@D@std@@V?$allocator@D@2@@0@0AAV?$allocator@V?$basic_string@DU?$char_traits@D@std@@V?$allocator@D@2@@std@@@0@U_Nonscalar_ptr_iterator_tag@0@@Z ; std::_Destroy_range<std::allocator<std::basic_string<char,std::char_traits<char>,std::allocator<char> > > >
; Function compile flags: /Ogsp
;	COMDAT ??$_Destroy_range@V?$allocator@V?$basic_string@DU?$char_traits@D@std@@V?$allocator@D@2@@std@@@std@@@std@@YAXPAV?$basic_string@DU?$char_traits@D@std@@V?$allocator@D@2@@0@0AAV?$allocator@V?$basic_string@DU?$char_traits@D@std@@V?$allocator@D@2@@std@@@0@U_Nonscalar_ptr_iterator_tag@0@@Z
_TEXT	SEGMENT
__First$ = 8						; size = 4
__Last$ = 12						; size = 4
__Al$ = 16						; size = 4
___formal$ = 20						; size = 1
??$_Destroy_range@V?$allocator@V?$basic_string@DU?$char_traits@D@std@@V?$allocator@D@2@@std@@@std@@@std@@YAXPAV?$basic_string@DU?$char_traits@D@std@@V?$allocator@D@2@@0@0AAV?$allocator@V?$basic_string@DU?$char_traits@D@std@@V?$allocator@D@2@@std@@@0@U_Nonscalar_ptr_iterator_tag@0@@Z PROC ; std::_Destroy_range<std::allocator<std::basic_string<char,std::char_traits<char>,std::allocator<char> > > >, COMDAT

; 95   : 	{	// destroy [_First, _Last), arbitrary type

  00000	55		 push	 ebp
  00001	8b ec		 mov	 ebp, esp
  00003	56		 push	 esi

; 96   : 	for (; _First != _Last; ++_First)

  00004	8b 75 08	 mov	 esi, DWORD PTR __First$[ebp]
  00007	eb 0e		 jmp	 SHORT $LN21@Destroy_ra@5
$LL3@Destroy_ra@5:

; 97   : 		_Dest_val(_Al, _First);

  00009	6a 00		 push	 0
  0000b	6a 01		 push	 1
  0000d	8b ce		 mov	 ecx, esi
  0000f	e8 00 00 00 00	 call	 ?_Tidy@?$basic_string@DU?$char_traits@D@std@@V?$allocator@D@2@@std@@QAEX_NI@Z ; std::basic_string<char,std::char_traits<char>,std::allocator<char> >::_Tidy
  00014	83 c6 1c	 add	 esi, 28			; 0000001cH
$LN21@Destroy_ra@5:

; 96   : 	for (; _First != _Last; ++_First)

  00017	3b 75 0c	 cmp	 esi, DWORD PTR __Last$[ebp]
  0001a	75 ed		 jne	 SHORT $LL3@Destroy_ra@5
  0001c	5e		 pop	 esi

; 98   : 	}

  0001d	5d		 pop	 ebp
  0001e	c3		 ret	 0
??$_Destroy_range@V?$allocator@V?$basic_string@DU?$char_traits@D@std@@V?$allocator@D@2@@std@@@std@@@std@@YAXPAV?$basic_string@DU?$char_traits@D@std@@V?$allocator@D@2@@0@0AAV?$allocator@V?$basic_string@DU?$char_traits@D@std@@V?$allocator@D@2@@std@@@0@U_Nonscalar_ptr_iterator_tag@0@@Z ENDP ; std::_Destroy_range<std::allocator<std::basic_string<char,std::char_traits<char>,std::allocator<char> > > >
_TEXT	ENDS
PUBLIC	??_7ioClientAniEventHandler@@6B@		; ioClientAniEventHandler::`vftable'
PUBLIC	??0ioClientAniEventHandler@@QAE@XZ		; ioClientAniEventHandler::ioClientAniEventHandler
PUBLIC	??_R4ioClientAniEventHandler@@6B@		; ioClientAniEventHandler::`RTTI Complete Object Locator'
PUBLIC	??_R0?AVioClientAniEventHandler@@@8		; ioClientAniEventHandler `RTTI Type Descriptor'
PUBLIC	??_R3ioClientAniEventHandler@@8			; ioClientAniEventHandler::`RTTI Class Hierarchy Descriptor'
PUBLIC	??_R2ioClientAniEventHandler@@8			; ioClientAniEventHandler::`RTTI Base Class Array'
PUBLIC	??_R1A@?0A@EA@ioClientAniEventHandler@@8	; ioClientAniEventHandler::`RTTI Base Class Descriptor at (0,-1,0,64)'
PUBLIC	??_R1A@?0A@EA@ioAniEventHandler@@8		; ioAniEventHandler::`RTTI Base Class Descriptor at (0,-1,0,64)'
PUBLIC	??_R0?AVioAniEventHandler@@@8			; ioAniEventHandler `RTTI Type Descriptor'
PUBLIC	??_R3ioAniEventHandler@@8			; ioAniEventHandler::`RTTI Class Hierarchy Descriptor'
PUBLIC	??_R2ioAniEventHandler@@8			; ioAniEventHandler::`RTTI Base Class Array'
PUBLIC	?EventHandling@ioClientAniEventHandler@@UAE_NPBUAniEventTime@@PBVioAnimation@@@Z ; ioClientAniEventHandler::EventHandling
PUBLIC	?ClearAniEvent@ioClientAniEventHandler@@MAEXXZ	; ioClientAniEventHandler::ClearAniEvent
PUBLIC	?ClearAniEffect@ioClientAniEventHandler@@MAEXXZ	; ioClientAniEventHandler::ClearAniEffect
PUBLIC	?OnAnimationClear@ioClientAniEventHandler@@MAEXPBUAniEventTime@@PBVioAnimation@@@Z ; ioClientAniEventHandler::OnAnimationClear
EXTRN	__imp_??0ioAniEventHandler@@QAE@XZ:PROC
EXTRN	?ChangeAniEventHandling@ioAniEventHandler@@UAE_NPBUAniEventTime@@PAVioAnimation@@@Z:PROC ; ioAniEventHandler::ChangeAniEventHandling
EXTRN	?HideMeshExceptionCheck@ioAniEventHandler@@UAEXABVioHashString@@@Z:PROC ; ioAniEventHandler::HideMeshExceptionCheck
EXTRN	?OnAutoSound@ioAniEventHandler@@MAEXPBUAniEventTime@@PBVioAnimation@@@Z:PROC ; ioAniEventHandler::OnAutoSound
EXTRN	?OnTrailEnd@ioAniEventHandler@@MAEXPBUAniEventTime@@PBVioAnimation@@@Z:PROC ; ioAniEventHandler::OnTrailEnd
EXTRN	?OnAnimationEnd@ioAniEventHandler@@MAEXPBUAniEventTime@@PBVioAnimation@@@Z:PROC ; ioAniEventHandler::OnAnimationEnd
EXTRN	?OnShowMesh@ioAniEventHandler@@MAEXPBUAniEventTime@@PBVioAnimation@@@Z:PROC ; ioAniEventHandler::OnShowMesh
EXTRN	?OnHideMesh@ioAniEventHandler@@MAEXPBUAniEventTime@@PBVioAnimation@@@Z:PROC ; ioAniEventHandler::OnHideMesh
EXTRN	??_EioClientAniEventHandler@@UAEPAXI@Z:PROC	; ioClientAniEventHandler::`vector deleting destructor'
;	COMDAT ??_R2ioAniEventHandler@@8
rdata$r	SEGMENT
??_R2ioAniEventHandler@@8 DD FLAT:??_R1A@?0A@EA@ioAniEventHandler@@8 ; ioAniEventHandler::`RTTI Base Class Array'
rdata$r	ENDS
;	COMDAT ??_R3ioAniEventHandler@@8
rdata$r	SEGMENT
??_R3ioAniEventHandler@@8 DD 00H			; ioAniEventHandler::`RTTI Class Hierarchy Descriptor'
	DD	00H
	DD	01H
	DD	FLAT:??_R2ioAniEventHandler@@8
rdata$r	ENDS
;	COMDAT ??_R0?AVioAniEventHandler@@@8
_DATA	SEGMENT
??_R0?AVioAniEventHandler@@@8 DD FLAT:??_7type_info@@6B@ ; ioAniEventHandler `RTTI Type Descriptor'
	DD	00H
	DB	'.?AVioAniEventHandler@@', 00H
_DATA	ENDS
;	COMDAT ??_R1A@?0A@EA@ioAniEventHandler@@8
rdata$r	SEGMENT
??_R1A@?0A@EA@ioAniEventHandler@@8 DD FLAT:??_R0?AVioAniEventHandler@@@8 ; ioAniEventHandler::`RTTI Base Class Descriptor at (0,-1,0,64)'
	DD	00H
	DD	00H
	DD	0ffffffffH
	DD	00H
	DD	040H
	DD	FLAT:??_R3ioAniEventHandler@@8
rdata$r	ENDS
;	COMDAT ??_R1A@?0A@EA@ioClientAniEventHandler@@8
rdata$r	SEGMENT
??_R1A@?0A@EA@ioClientAniEventHandler@@8 DD FLAT:??_R0?AVioClientAniEventHandler@@@8 ; ioClientAniEventHandler::`RTTI Base Class Descriptor at (0,-1,0,64)'
	DD	01H
	DD	00H
	DD	0ffffffffH
	DD	00H
	DD	040H
	DD	FLAT:??_R3ioClientAniEventHandler@@8
rdata$r	ENDS
;	COMDAT ??_R2ioClientAniEventHandler@@8
rdata$r	SEGMENT
??_R2ioClientAniEventHandler@@8 DD FLAT:??_R1A@?0A@EA@ioClientAniEventHandler@@8 ; ioClientAniEventHandler::`RTTI Base Class Array'
	DD	FLAT:??_R1A@?0A@EA@ioAniEventHandler@@8
rdata$r	ENDS
;	COMDAT ??_R3ioClientAniEventHandler@@8
rdata$r	SEGMENT
??_R3ioClientAniEventHandler@@8 DD 00H			; ioClientAniEventHandler::`RTTI Class Hierarchy Descriptor'
	DD	00H
	DD	02H
	DD	FLAT:??_R2ioClientAniEventHandler@@8
rdata$r	ENDS
;	COMDAT ??_R0?AVioClientAniEventHandler@@@8
_DATA	SEGMENT
??_R0?AVioClientAniEventHandler@@@8 DD FLAT:??_7type_info@@6B@ ; ioClientAniEventHandler `RTTI Type Descriptor'
	DD	00H
	DB	'.?AVioClientAniEventHandler@@', 00H
_DATA	ENDS
;	COMDAT ??_R4ioClientAniEventHandler@@6B@
rdata$r	SEGMENT
??_R4ioClientAniEventHandler@@6B@ DD 00H		; ioClientAniEventHandler::`RTTI Complete Object Locator'
	DD	00H
	DD	00H
	DD	FLAT:??_R0?AVioClientAniEventHandler@@@8
	DD	FLAT:??_R3ioClientAniEventHandler@@8
rdata$r	ENDS
;	COMDAT ??_7ioClientAniEventHandler@@6B@
CONST	SEGMENT
??_7ioClientAniEventHandler@@6B@ DD FLAT:??_R4ioClientAniEventHandler@@6B@ ; ioClientAniEventHandler::`vftable'
	DD	FLAT:?EventHandling@ioClientAniEventHandler@@UAE_NPBUAniEventTime@@PBVioAnimation@@@Z
	DD	FLAT:?ChangeAniEventHandling@ioAniEventHandler@@UAE_NPBUAniEventTime@@PAVioAnimation@@@Z
	DD	FLAT:?HideMeshExceptionCheck@ioAniEventHandler@@UAEXABVioHashString@@@Z
	DD	FLAT:?ClearAniEvent@ioClientAniEventHandler@@MAEXXZ
	DD	FLAT:?ClearAniEffect@ioClientAniEventHandler@@MAEXXZ
	DD	FLAT:?OnAutoSound@ioAniEventHandler@@MAEXPBUAniEventTime@@PBVioAnimation@@@Z
	DD	FLAT:?OnTrailStart@ioClientAniEventHandler@@MAEXPBUAniEventTime@@PBVioAnimation@@@Z
	DD	FLAT:?OnTrailEnd@ioAniEventHandler@@MAEXPBUAniEventTime@@PBVioAnimation@@@Z
	DD	FLAT:?OnAnimationEnd@ioAniEventHandler@@MAEXPBUAniEventTime@@PBVioAnimation@@@Z
	DD	FLAT:?OnAnimationClear@ioClientAniEventHandler@@MAEXPBUAniEventTime@@PBVioAnimation@@@Z
	DD	FLAT:?OnShowMesh@ioAniEventHandler@@MAEXPBUAniEventTime@@PBVioAnimation@@@Z
	DD	FLAT:?OnHideMesh@ioAniEventHandler@@MAEXPBUAniEventTime@@PBVioAnimation@@@Z
	DD	FLAT:??_EioClientAniEventHandler@@UAEPAXI@Z
; Function compile flags: /Ogsp
; File d:\lost saga for developer\youtube\tutorial\source\src\lsclient\ioclientanieventhandler.cpp
CONST	ENDS
;	COMDAT ??0ioClientAniEventHandler@@QAE@XZ
_TEXT	SEGMENT
??0ioClientAniEventHandler@@QAE@XZ PROC			; ioClientAniEventHandler::ioClientAniEventHandler, COMDAT
; _this$ = ecx

; 12   : {

  00000	56		 push	 esi
  00001	8b f1		 mov	 esi, ecx
  00003	ff 15 00 00 00
	00		 call	 DWORD PTR __imp_??0ioAniEventHandler@@QAE@XZ
  00009	33 c0		 xor	 eax, eax
  0000b	c7 06 00 00 00
	00		 mov	 DWORD PTR [esi], OFFSET ??_7ioClientAniEventHandler@@6B@
  00011	89 46 1c	 mov	 DWORD PTR [esi+28], eax
  00014	89 46 20	 mov	 DWORD PTR [esi+32], eax
  00017	89 46 24	 mov	 DWORD PTR [esi+36], eax
  0001a	89 46 2c	 mov	 DWORD PTR [esi+44], eax
  0001d	89 46 30	 mov	 DWORD PTR [esi+48], eax
  00020	89 46 34	 mov	 DWORD PTR [esi+52], eax
  00023	89 46 3c	 mov	 DWORD PTR [esi+60], eax
  00026	89 46 40	 mov	 DWORD PTR [esi+64], eax
  00029	89 46 44	 mov	 DWORD PTR [esi+68], eax

; 13   : 	m_pChar = NULL;

  0002c	89 46 18	 mov	 DWORD PTR [esi+24], eax

; 14   : 	m_bItemMeshHide = false;

  0002f	88 46 4c	 mov	 BYTE PTR [esi+76], al

; 15   : }

  00032	8b c6		 mov	 eax, esi
  00034	5e		 pop	 esi
  00035	c3		 ret	 0
??0ioClientAniEventHandler@@QAE@XZ ENDP			; ioClientAniEventHandler::ioClientAniEventHandler
_TEXT	ENDS
EXTRN	__imp_?StopSound@ioSoundManager@@QAEXABVioHashString@@K@Z:PROC
EXTRN	__imp_?EndEffect@ioEntityGroup@@QAEXABVioHashString@@_N1@Z:PROC
EXTRN	__imp_?SetEntityVisible@ioEntityGroup@@QAEXABVioHashString@@_N@Z:PROC
EXTRN	__imp_??8ioHashString@@QBE_NABV0@@Z:PROC
EXTRN	__imp_?GetName@ioAnimation@@QBEABVioHashString@@XZ:PROC
;	COMDAT xdata$x
; File c:\program files (x86)\microsoft visual studio 10.0\vc\include\vector
xdata$x	SEGMENT
__unwindtable$?OnAnimationClear@ioClientAniEventHandler@@MAEXPBUAniEventTime@@PBVioAnimation@@@Z DD 0ffffffffH
	DD	FLAT:__unwindfunclet$?OnAnimationClear@ioClientAniEventHandler@@MAEXPBUAniEventTime@@PBVioAnimation@@@Z$0
	DD	0ffffffffH
	DD	FLAT:__unwindfunclet$?OnAnimationClear@ioClientAniEventHandler@@MAEXPBUAniEventTime@@PBVioAnimation@@@Z$1
	DD	0ffffffffH
	DD	FLAT:__unwindfunclet$?OnAnimationClear@ioClientAniEventHandler@@MAEXPBUAniEventTime@@PBVioAnimation@@@Z$2
	DD	0ffffffffH
	DD	FLAT:__unwindfunclet$?OnAnimationClear@ioClientAniEventHandler@@MAEXPBUAniEventTime@@PBVioAnimation@@@Z$3
__ehfuncinfo$?OnAnimationClear@ioClientAniEventHandler@@MAEXPBUAniEventTime@@PBVioAnimation@@@Z DD 019930522H
	DD	04H
	DD	FLAT:__unwindtable$?OnAnimationClear@ioClientAniEventHandler@@MAEXPBUAniEventTime@@PBVioAnimation@@@Z
	DD	2 DUP(00H)
	DD	2 DUP(00H)
	DD	00H
	DD	01H
; Function compile flags: /Ogsp
; File d:\lost saga for developer\youtube\tutorial\source\src\lsclient\ioclientanieventhandler.cpp
xdata$x	ENDS
;	COMDAT ?OnAnimationClear@ioClientAniEventHandler@@MAEXPBUAniEventTime@@PBVioAnimation@@@Z
_TEXT	SEGMENT
_kInfo$525893 = -88					; size = 36
_kInfo$525881 = -52					; size = 32
_kInfo$525869 = -52					; size = 32
_kInfo$525857 = -52					; size = 32
$T536960 = -20						; size = 4
$T536957 = -16						; size = 4
$T536954 = -16						; size = 4
$T536951 = -16						; size = 4
__$EHRec$ = -12						; size = 12
_pEvent$ = 8						; size = 4
_pNotifier$ = 12					; size = 4
?OnAnimationClear@ioClientAniEventHandler@@MAEXPBUAniEventTime@@PBVioAnimation@@@Z PROC ; ioClientAniEventHandler::OnAnimationClear, COMDAT
; _this$ = ecx

; 369  : {

  00000	6a 4c		 push	 76			; 0000004cH
  00002	b8 00 00 00 00	 mov	 eax, __ehhandler$?OnAnimationClear@ioClientAniEventHandler@@MAEXPBUAniEventTime@@PBVioAnimation@@@Z
  00007	e8 00 00 00 00	 call	 __EH_prolog3
  0000c	8b f1		 mov	 esi, ecx

; 370  : 	// Hide  
; 371  : 	if( !m_HideMeshList.empty() )

  0000e	8b 46 08	 mov	 eax, DWORD PTR [esi+8]
  00011	3b 46 0c	 cmp	 eax, DWORD PTR [esi+12]
  00014	74 5c		 je	 SHORT $LN19@OnAnimatio

; 372  : 	{
; 373  : 		AniEventInfoList::iterator iter = m_HideMeshList.begin();

  00016	8b d8		 mov	 ebx, eax
  00018	eb 53		 jmp	 SHORT $LN166@OnAnimatio
$LL20@OnAnimatio:

; 375  : 		{
; 376  : 			AniEventInfo kInfo = *iter;

  0001a	53		 push	 ebx
  0001b	8d 4d cc	 lea	 ecx, DWORD PTR _kInfo$525857[ebp]
  0001e	e8 00 00 00 00	 call	 ??0AniEventInfo@@QAE@ABU0@@Z

; 377  : 
; 378  : 			if( kInfo.m_AniName == pNotifier->GetName() )

  00023	8b 4d 0c	 mov	 ecx, DWORD PTR _pNotifier$[ebp]
  00026	83 65 fc 00	 and	 DWORD PTR __$EHRec$[ebp+8], 0
  0002a	ff 15 00 00 00
	00		 call	 DWORD PTR __imp_?GetName@ioAnimation@@QBEABVioHashString@@XZ
  00030	50		 push	 eax
  00031	8d 4d cc	 lea	 ecx, DWORD PTR _kInfo$525857[ebp]
  00034	ff 15 00 00 00
	00		 call	 DWORD PTR __imp_??8ioHashString@@QBE_NABV0@@Z
  0003a	84 c0		 test	 al, al
  0003c	74 20		 je	 SHORT $LN18@OnAnimatio

; 379  : 			{
; 380  : 				m_pOwner->SetEntityVisible( kInfo.m_EventName, true );

  0003e	8b 4e 04	 mov	 ecx, DWORD PTR [esi+4]
  00041	6a 01		 push	 1
  00043	8d 45 dc	 lea	 eax, DWORD PTR _kInfo$525857[ebp+16]
  00046	50		 push	 eax
  00047	ff 15 00 00 00
	00		 call	 DWORD PTR __imp_?SetEntityVisible@ioEntityGroup@@QAEXABVioHashString@@_N@Z

; 381  : 				iter = m_HideMeshList.erase( iter );

  0004d	53		 push	 ebx
  0004e	8d 45 f0	 lea	 eax, DWORD PTR $T536951[ebp]
  00051	50		 push	 eax
  00052	8d 4e 08	 lea	 ecx, DWORD PTR [esi+8]
  00055	e8 00 00 00 00	 call	 ?erase@?$vector@UAniEventInfo@@V?$allocator@UAniEventInfo@@@std@@@std@@QAE?AV?$_Vector_iterator@V?$_Vector_val@UAniEventInfo@@V?$allocator@UAniEventInfo@@@std@@@std@@@2@V?$_Vector_const_iterator@V?$_Vector_val@UAniEventInfo@@V?$allocator@UAniEventInfo@@@std@@@std@@@2@@Z ; std::vector<AniEventInfo,std::allocator<AniEventInfo> >::erase
  0005a	8b 18		 mov	 ebx, DWORD PTR [eax]

; 382  : 			}
; 383  : 			else

  0005c	eb 03		 jmp	 SHORT $LN58@OnAnimatio
$LN18@OnAnimatio:

; 384  : 			{
; 385  : 				++iter;

  0005e	83 c3 20	 add	 ebx, 32			; 00000020H
$LN58@OnAnimatio:

; 386  : 			}
; 387  : 		}

  00061	83 4d fc ff	 or	 DWORD PTR __$EHRec$[ebp+8], -1
  00065	8d 4d cc	 lea	 ecx, DWORD PTR _kInfo$525857[ebp]
  00068	e8 00 00 00 00	 call	 ??1AniEventInfo@@QAE@XZ
$LN166@OnAnimatio:

; 374  : 		while( iter != m_HideMeshList.end() )

  0006d	3b 5e 0c	 cmp	 ebx, DWORD PTR [esi+12]
  00070	75 a8		 jne	 SHORT $LL20@OnAnimatio
$LN19@OnAnimatio:

; 388  : 	}
; 389  : 
; 390  : 	// Hide    
; 391  : 	if( !m_HideMeshLinkEffectList.empty() )

  00072	8b 46 3c	 mov	 eax, DWORD PTR [esi+60]
  00075	3b 46 40	 cmp	 eax, DWORD PTR [esi+64]
  00078	74 60		 je	 SHORT $LN14@OnAnimatio

; 392  : 	{
; 393  : 		AniEventInfoList::iterator iter = m_HideMeshLinkEffectList.begin();

  0007a	8b f8		 mov	 edi, eax
  0007c	eb 57		 jmp	 SHORT $LN167@OnAnimatio
$LL15@OnAnimatio:

; 395  : 		{
; 396  : 			AniEventInfo kInfo = *iter;

  0007e	57		 push	 edi
  0007f	8d 4d cc	 lea	 ecx, DWORD PTR _kInfo$525869[ebp]
  00082	e8 00 00 00 00	 call	 ??0AniEventInfo@@QAE@ABU0@@Z

; 397  : 
; 398  : 			if( kInfo.m_AniName == pNotifier->GetName() )

  00087	8b 4d 0c	 mov	 ecx, DWORD PTR _pNotifier$[ebp]
  0008a	c7 45 fc 01 00
	00 00		 mov	 DWORD PTR __$EHRec$[ebp+8], 1
  00091	ff 15 00 00 00
	00		 call	 DWORD PTR __imp_?GetName@ioAnimation@@QBEABVioHashString@@XZ
  00097	50		 push	 eax
  00098	8d 4d cc	 lea	 ecx, DWORD PTR _kInfo$525869[ebp]
  0009b	ff 15 00 00 00
	00		 call	 DWORD PTR __imp_??8ioHashString@@QBE_NABV0@@Z
  000a1	84 c0		 test	 al, al
  000a3	74 21		 je	 SHORT $LN13@OnAnimatio

; 399  : 			{
; 400  : 				m_pChar->AttachEffect( kInfo.m_EventName );

  000a5	8b 4e 18	 mov	 ecx, DWORD PTR [esi+24]
  000a8	6a 01		 push	 1
  000aa	6a 00		 push	 0
  000ac	8d 45 dc	 lea	 eax, DWORD PTR _kInfo$525869[ebp+16]
  000af	50		 push	 eax
  000b0	e8 00 00 00 00	 call	 ?AttachEffect@ioBaseChar@@QAEPAVioEffect@@ABVioHashString@@PAVioEntityEvent@@_N@Z ; ioBaseChar::AttachEffect

; 401  : 				iter = m_HideMeshLinkEffectList.erase( iter );

  000b5	57		 push	 edi
  000b6	8d 45 f0	 lea	 eax, DWORD PTR $T536954[ebp]
  000b9	50		 push	 eax
  000ba	8d 4e 3c	 lea	 ecx, DWORD PTR [esi+60]
  000bd	e8 00 00 00 00	 call	 ?erase@?$vector@UAniEventInfo@@V?$allocator@UAniEventInfo@@@std@@@std@@QAE?AV?$_Vector_iterator@V?$_Vector_val@UAniEventInfo@@V?$allocator@UAniEventInfo@@@std@@@std@@@2@V?$_Vector_const_iterator@V?$_Vector_val@UAniEventInfo@@V?$allocator@UAniEventInfo@@@std@@@std@@@2@@Z ; std::vector<AniEventInfo,std::allocator<AniEventInfo> >::erase
  000c2	8b 38		 mov	 edi, DWORD PTR [eax]

; 402  : 			}
; 403  : 			else

  000c4	eb 03		 jmp	 SHORT $LN90@OnAnimatio
$LN13@OnAnimatio:

; 404  : 			{
; 405  : 				++iter;

  000c6	83 c7 20	 add	 edi, 32			; 00000020H
$LN90@OnAnimatio:

; 406  : 			}
; 407  : 		}

  000c9	83 4d fc ff	 or	 DWORD PTR __$EHRec$[ebp+8], -1
  000cd	8d 4d cc	 lea	 ecx, DWORD PTR _kInfo$525869[ebp]
  000d0	e8 00 00 00 00	 call	 ??1AniEventInfo@@QAE@XZ
$LN167@OnAnimatio:

; 394  : 		while( iter != m_HideMeshLinkEffectList.end() )

  000d5	3b 7e 40	 cmp	 edi, DWORD PTR [esi+64]
  000d8	75 a4		 jne	 SHORT $LL15@OnAnimatio
$LN14@OnAnimatio:

; 408  : 	}
; 409  : 
; 410  : 	// ShopEffect 
; 411  : 	if( !m_ShopEffectList.empty() )

  000da	8b 46 1c	 mov	 eax, DWORD PTR [esi+28]
  000dd	3b 46 20	 cmp	 eax, DWORD PTR [esi+32]
  000e0	74 61		 je	 SHORT $LN9@OnAnimatio

; 412  : 	{
; 413  : 		AniEventInfoList::iterator iter = m_ShopEffectList.begin();

  000e2	8b f8		 mov	 edi, eax
  000e4	eb 58		 jmp	 SHORT $LN168@OnAnimatio
$LL10@OnAnimatio:

; 415  : 		{
; 416  : 			AniEventInfo kInfo = *iter;

  000e6	57		 push	 edi
  000e7	8d 4d cc	 lea	 ecx, DWORD PTR _kInfo$525881[ebp]
  000ea	e8 00 00 00 00	 call	 ??0AniEventInfo@@QAE@ABU0@@Z

; 417  : 			if( kInfo.m_AniName == pNotifier->GetName() )

  000ef	8b 4d 0c	 mov	 ecx, DWORD PTR _pNotifier$[ebp]
  000f2	c7 45 fc 02 00
	00 00		 mov	 DWORD PTR __$EHRec$[ebp+8], 2
  000f9	ff 15 00 00 00
	00		 call	 DWORD PTR __imp_?GetName@ioAnimation@@QBEABVioHashString@@XZ
  000ff	50		 push	 eax
  00100	8d 4d cc	 lea	 ecx, DWORD PTR _kInfo$525881[ebp]
  00103	ff 15 00 00 00
	00		 call	 DWORD PTR __imp_??8ioHashString@@QBE_NABV0@@Z
  00109	84 c0		 test	 al, al
  0010b	74 22		 je	 SHORT $LN8@OnAnimatio

; 418  : 			{
; 419  : 				m_pOwner->EndEffect( kInfo.m_EventName, false );

  0010d	8b 4e 04	 mov	 ecx, DWORD PTR [esi+4]
  00110	6a 01		 push	 1
  00112	6a 00		 push	 0
  00114	8d 45 dc	 lea	 eax, DWORD PTR _kInfo$525881[ebp+16]
  00117	50		 push	 eax
  00118	ff 15 00 00 00
	00		 call	 DWORD PTR __imp_?EndEffect@ioEntityGroup@@QAEXABVioHashString@@_N1@Z

; 420  : 				iter = m_ShopEffectList.erase( iter );

  0011e	57		 push	 edi
  0011f	8d 45 f0	 lea	 eax, DWORD PTR $T536957[ebp]
  00122	50		 push	 eax
  00123	8d 4e 1c	 lea	 ecx, DWORD PTR [esi+28]
  00126	e8 00 00 00 00	 call	 ?erase@?$vector@UAniEventInfo@@V?$allocator@UAniEventInfo@@@std@@@std@@QAE?AV?$_Vector_iterator@V?$_Vector_val@UAniEventInfo@@V?$allocator@UAniEventInfo@@@std@@@std@@@2@V?$_Vector_const_iterator@V?$_Vector_val@UAniEventInfo@@V?$allocator@UAniEventInfo@@@std@@@std@@@2@@Z ; std::vector<AniEventInfo,std::allocator<AniEventInfo> >::erase
  0012b	8b 38		 mov	 edi, DWORD PTR [eax]

; 421  : 			}
; 422  : 			else

  0012d	eb 03		 jmp	 SHORT $LN122@OnAnimatio
$LN8@OnAnimatio:

; 423  : 			{
; 424  : 				++iter;

  0012f	83 c7 20	 add	 edi, 32			; 00000020H
$LN122@OnAnimatio:

; 425  : 			}
; 426  : 		}

  00132	83 4d fc ff	 or	 DWORD PTR __$EHRec$[ebp+8], -1
  00136	8d 4d cc	 lea	 ecx, DWORD PTR _kInfo$525881[ebp]
  00139	e8 00 00 00 00	 call	 ??1AniEventInfo@@QAE@XZ
$LN168@OnAnimatio:

; 414  : 		while( iter != m_ShopEffectList.end() )

  0013e	3b 7e 20	 cmp	 edi, DWORD PTR [esi+32]
  00141	75 a3		 jne	 SHORT $LL10@OnAnimatio
$LN9@OnAnimatio:

; 427  : 	}
; 428  : 
; 429  : 	// ShopSound 
; 430  : 	if( !m_ShopSoundList.empty() )

  00143	8b 46 2c	 mov	 eax, DWORD PTR [esi+44]
  00146	3b 46 30	 cmp	 eax, DWORD PTR [esi+48]
  00149	74 64		 je	 SHORT $LN4@OnAnimatio

; 431  : 	{
; 432  : 		AniSoundEventInfoList::iterator iter = m_ShopSoundList.begin();

  0014b	8b f8		 mov	 edi, eax
  0014d	eb 5b		 jmp	 SHORT $LN169@OnAnimatio
$LL5@OnAnimatio:

; 434  : 		{
; 435  : 			AniSoundEventInfo kInfo = *iter;

  0014f	57		 push	 edi
  00150	8d 4d a8	 lea	 ecx, DWORD PTR _kInfo$525893[ebp]
  00153	e8 00 00 00 00	 call	 ??0tagAniSoundEventInfo@@QAE@ABU0@@Z

; 436  : 
; 437  : 			if( kInfo.m_AniName == pNotifier->GetName() )

  00158	8b 4d 0c	 mov	 ecx, DWORD PTR _pNotifier$[ebp]
  0015b	c7 45 fc 03 00
	00 00		 mov	 DWORD PTR __$EHRec$[ebp+8], 3
  00162	ff 15 00 00 00
	00		 call	 DWORD PTR __imp_?GetName@ioAnimation@@QBEABVioHashString@@XZ
  00168	50		 push	 eax
  00169	8d 4d a8	 lea	 ecx, DWORD PTR _kInfo$525893[ebp]
  0016c	ff 15 00 00 00
	00		 call	 DWORD PTR __imp_??8ioHashString@@QBE_NABV0@@Z
  00172	84 c0		 test	 al, al
  00174	74 25		 je	 SHORT $LN3@OnAnimatio

; 438  : 			{
; 439  : 				g_SoundMgr.StopSound( kInfo.m_EventName, 0 );

  00176	8d 45 b8	 lea	 eax, DWORD PTR _kInfo$525893[ebp+16]
  00179	6a 00		 push	 0
  0017b	50		 push	 eax
  0017c	ff 15 00 00 00
	00		 call	 DWORD PTR __imp_?GetSingleton@ioSoundManager@@SAAAV1@XZ
  00182	8b c8		 mov	 ecx, eax
  00184	ff 15 00 00 00
	00		 call	 DWORD PTR __imp_?StopSound@ioSoundManager@@QAEXABVioHashString@@K@Z

; 440  : 				iter = m_ShopSoundList.erase( iter );

  0018a	57		 push	 edi
  0018b	8d 45 ec	 lea	 eax, DWORD PTR $T536960[ebp]
  0018e	50		 push	 eax
  0018f	8d 4e 2c	 lea	 ecx, DWORD PTR [esi+44]
  00192	e8 00 00 00 00	 call	 ?erase@?$vector@UtagAniSoundEventInfo@@V?$allocator@UtagAniSoundEventInfo@@@std@@@std@@QAE?AV?$_Vector_iterator@V?$_Vector_val@UtagAniSoundEventInfo@@V?$allocator@UtagAniSoundEventInfo@@@std@@@std@@@2@V?$_Vector_const_iterator@V?$_Vector_val@UtagAniSoundEventInfo@@V?$allocator@UtagAniSoundEventInfo@@@std@@@std@@@2@@Z ; std::vector<tagAniSoundEventInfo,std::allocator<tagAniSoundEventInfo> >::erase
  00197	8b 38		 mov	 edi, DWORD PTR [eax]

; 441  : 			}
; 442  : 			else

  00199	eb 03		 jmp	 SHORT $LN154@OnAnimatio
$LN3@OnAnimatio:

; 443  : 			{
; 444  : 				++iter;

  0019b	83 c7 24	 add	 edi, 36			; 00000024H
$LN154@OnAnimatio:

; 445  : 			}
; 446  : 		}

  0019e	83 4d fc ff	 or	 DWORD PTR __$EHRec$[ebp+8], -1
  001a2	8d 4d a8	 lea	 ecx, DWORD PTR _kInfo$525893[ebp]
  001a5	e8 00 00 00 00	 call	 ??1tagAniSoundEventInfo@@QAE@XZ
$LN169@OnAnimatio:

; 433  : 		while( iter != m_ShopSoundList.end() )

  001aa	3b 7e 30	 cmp	 edi, DWORD PTR [esi+48]
  001ad	75 a0		 jne	 SHORT $LL5@OnAnimatio
$LN4@OnAnimatio:

; 447  : 	}
; 448  : 
; 449  : 	//
; 450  : 	if( m_bItemMeshHide )

  001af	80 7e 4c 00	 cmp	 BYTE PTR [esi+76], 0
  001b3	74 0c		 je	 SHORT $LN1@OnAnimatio

; 451  : 	{
; 452  : 		m_bItemMeshHide = false;
; 453  : 		m_pChar->SetItemMeshShow();

  001b5	8b 4e 18	 mov	 ecx, DWORD PTR [esi+24]
  001b8	c6 46 4c 00	 mov	 BYTE PTR [esi+76], 0
  001bc	e8 00 00 00 00	 call	 ?SetItemMeshShow@ioBaseChar@@QAEXXZ ; ioBaseChar::SetItemMeshShow
$LN1@OnAnimatio:

; 454  : 	}
; 455  : }

  001c1	e8 00 00 00 00	 call	 __EH_epilog3
  001c6	c2 08 00	 ret	 8
_TEXT	ENDS
;	COMDAT text$x
text$x	SEGMENT
__unwindfunclet$?OnAnimationClear@ioClientAniEventHandler@@MAEXPBUAniEventTime@@PBVioAnimation@@@Z$0:
  00000	8d 4d cc	 lea	 ecx, DWORD PTR _kInfo$525857[ebp]
  00003	e9 00 00 00 00	 jmp	 ??1AniEventInfo@@QAE@XZ
__unwindfunclet$?OnAnimationClear@ioClientAniEventHandler@@MAEXPBUAniEventTime@@PBVioAnimation@@@Z$1:
  00008	8d 4d cc	 lea	 ecx, DWORD PTR _kInfo$525869[ebp]
  0000b	e9 00 00 00 00	 jmp	 ??1AniEventInfo@@QAE@XZ
__unwindfunclet$?OnAnimationClear@ioClientAniEventHandler@@MAEXPBUAniEventTime@@PBVioAnimation@@@Z$2:
  00010	8d 4d cc	 lea	 ecx, DWORD PTR _kInfo$525881[ebp]
  00013	e9 00 00 00 00	 jmp	 ??1AniEventInfo@@QAE@XZ
__unwindfunclet$?OnAnimationClear@ioClientAniEventHandler@@MAEXPBUAniEventTime@@PBVioAnimation@@@Z$3:
  00018	8d 4d a8	 lea	 ecx, DWORD PTR _kInfo$525893[ebp]
  0001b	e9 00 00 00 00	 jmp	 ??1tagAniSoundEventInfo@@QAE@XZ
__ehhandler$?OnAnimationClear@ioClientAniEventHandler@@MAEXPBUAniEventTime@@PBVioAnimation@@@Z:
  00020	8b 54 24 08	 mov	 edx, DWORD PTR [esp+8]
  00024	8d 42 0c	 lea	 eax, DWORD PTR [edx+12]
  00027	8b 4a a4	 mov	 ecx, DWORD PTR [edx-92]
  0002a	33 c8		 xor	 ecx, eax
  0002c	e8 00 00 00 00	 call	 @__security_check_cookie@4
  00031	b8 00 00 00 00	 mov	 eax, OFFSET __ehfuncinfo$?OnAnimationClear@ioClientAniEventHandler@@MAEXPBUAniEventTime@@PBVioAnimation@@@Z
  00036	e9 00 00 00 00	 jmp	 ___CxxFrameHandler3
text$x	ENDS
?OnAnimationClear@ioClientAniEventHandler@@MAEXPBUAniEventTime@@PBVioAnimation@@@Z ENDP ; ioClientAniEventHandler::OnAnimationClear
PUBLIC	?ShowMeshLinkEffect@ioClientAniEventHandler@@IAEXABVioHashString@@PBVioAnimation@@@Z ; ioClientAniEventHandler::ShowMeshLinkEffect
EXTRN	__imp_?AttachEffect@ioEntityGroup@@QAEPAVioEffect@@ABVioHashString@@PAVioEntityEvent@@ABUD3DXQUATERNION@@ABUD3DXVECTOR3@@_N@Z:PROC
EXTRN	__imp_?QUAT_IDENTITY@ioMath@@2UD3DXQUATERNION@@A:BYTE
EXTRN	__imp_?VEC3_ZERO@ioMath@@2UD3DXVECTOR3@@A:BYTE
;	COMDAT xdata$x
; File c:\program files (x86)\microsoft visual studio 10.0\vc\include\vector
xdata$x	SEGMENT
__unwindtable$?ShowMeshLinkEffect@ioClientAniEventHandler@@IAEXABVioHashString@@PBVioAnimation@@@Z DD 0ffffffffH
	DD	FLAT:__unwindfunclet$?ShowMeshLinkEffect@ioClientAniEventHandler@@IAEXABVioHashString@@PBVioAnimation@@@Z$0
__ehfuncinfo$?ShowMeshLinkEffect@ioClientAniEventHandler@@IAEXABVioHashString@@PBVioAnimation@@@Z DD 019930522H
	DD	01H
	DD	FLAT:__unwindtable$?ShowMeshLinkEffect@ioClientAniEventHandler@@IAEXABVioHashString@@PBVioAnimation@@@Z
	DD	2 DUP(00H)
	DD	2 DUP(00H)
	DD	00H
	DD	01H
; Function compile flags: /Ogsp
; File d:\lost saga for developer\youtube\tutorial\source\src\lsclient\ioclientanieventhandler.cpp
xdata$x	ENDS
;	COMDAT ?ShowMeshLinkEffect@ioClientAniEventHandler@@IAEXABVioHashString@@PBVioAnimation@@@Z
_TEXT	SEGMENT
_kInfo$527164 = -44					; size = 32
__$EHRec$ = -12						; size = 12
$T537334 = 8						; size = 4
_rkEffectName$ = 8					; size = 4
_pNotifier$ = 12					; size = 4
?ShowMeshLinkEffect@ioClientAniEventHandler@@IAEXABVioHashString@@PBVioAnimation@@@Z PROC ; ioClientAniEventHandler::ShowMeshLinkEffect, COMDAT
; _this$ = ecx

; 756  : {

  00000	6a 20		 push	 32			; 00000020H
  00002	b8 00 00 00 00	 mov	 eax, __ehhandler$?ShowMeshLinkEffect@ioClientAniEventHandler@@IAEXABVioHashString@@PBVioAnimation@@@Z
  00007	e8 00 00 00 00	 call	 __EH_prolog3
  0000c	8b f1		 mov	 esi, ecx

; 757  : 	if( rkEffectName.IsEmpty() ) return;

  0000e	8b 4d 08	 mov	 ecx, DWORD PTR _rkEffectName$[ebp]
  00011	ff 15 00 00 00
	00		 call	 DWORD PTR __imp_?IsEmpty@ioHashString@@QBE_NXZ
  00017	84 c0		 test	 al, al
  00019	75 73		 jne	 SHORT $LN1@ShowMeshLi

; 758  : 
; 759  : 	// 
; 760  : 	m_pOwner->AttachEffect( rkEffectName, NULL );

  0001b	8b 4e 04	 mov	 ecx, DWORD PTR [esi+4]
  0001e	6a 01		 push	 1
  00020	ff 35 00 00 00
	00		 push	 DWORD PTR __imp_?VEC3_ZERO@ioMath@@2UD3DXVECTOR3@@A
  00026	ff 35 00 00 00
	00		 push	 DWORD PTR __imp_?QUAT_IDENTITY@ioMath@@2UD3DXQUATERNION@@A
  0002c	6a 00		 push	 0
  0002e	ff 75 08	 push	 DWORD PTR _rkEffectName$[ebp]
  00031	ff 15 00 00 00
	00		 call	 DWORD PTR __imp_?AttachEffect@ioEntityGroup@@QAEPAVioEffect@@ABVioHashString@@PAVioEntityEvent@@ABUD3DXQUATERNION@@ABUD3DXVECTOR3@@_N@Z

; 761  : 	if( !m_HideMeshLinkEffectList.empty() )

  00037	8b 46 3c	 mov	 eax, DWORD PTR [esi+60]
  0003a	3b 46 40	 cmp	 eax, DWORD PTR [esi+64]
  0003d	74 4f		 je	 SHORT $LN1@ShowMeshLi

; 762  : 	{
; 763  : 		AniEventInfoList::iterator iter;
; 764  : 
; 765  : 		for( iter=m_HideMeshLinkEffectList.begin(); iter != m_HideMeshLinkEffectList.end(); ++iter )

  0003f	8b d8		 mov	 ebx, eax
  00041	eb 2d		 jmp	 SHORT $LN65@ShowMeshLi
$LL27@ShowMeshLi:

; 766  : 		{
; 767  : 			AniEventInfo kInfo = *iter;

  00043	53		 push	 ebx
  00044	8d 4d d4	 lea	 ecx, DWORD PTR _kInfo$527164[ebp]
  00047	e8 00 00 00 00	 call	 ??0AniEventInfo@@QAE@ABU0@@Z

; 768  : 
; 769  : 			if( rkEffectName == kInfo.m_EventName )

  0004c	8b 4d 08	 mov	 ecx, DWORD PTR _rkEffectName$[ebp]
  0004f	83 65 fc 00	 and	 DWORD PTR __$EHRec$[ebp+8], 0
  00053	8d 45 e4	 lea	 eax, DWORD PTR _kInfo$527164[ebp+16]
  00056	50		 push	 eax
  00057	ff 15 00 00 00
	00		 call	 DWORD PTR __imp_??8ioHashString@@QBE_NABV0@@Z

; 771  : 		}

  0005d	83 4d fc ff	 or	 DWORD PTR __$EHRec$[ebp+8], -1
  00061	8d 4d d4	 lea	 ecx, DWORD PTR _kInfo$527164[ebp]
  00064	84 c0		 test	 al, al
  00066	75 0f		 jne	 SHORT $LN62@ShowMeshLi
  00068	e8 00 00 00 00	 call	 ??1AniEventInfo@@QAE@XZ
  0006d	83 c3 20	 add	 ebx, 32			; 00000020H
$LN65@ShowMeshLi:

; 762  : 	{
; 763  : 		AniEventInfoList::iterator iter;
; 764  : 
; 765  : 		for( iter=m_HideMeshLinkEffectList.begin(); iter != m_HideMeshLinkEffectList.end(); ++iter )

  00070	3b 5e 40	 cmp	 ebx, DWORD PTR [esi+64]
  00073	75 ce		 jne	 SHORT $LL27@ShowMeshLi

; 768  : 
; 769  : 			if( rkEffectName == kInfo.m_EventName )

  00075	eb 05		 jmp	 SHORT $LN3@ShowMeshLi
$LN62@ShowMeshLi:

; 770  : 				break;

  00077	e8 00 00 00 00	 call	 ??1AniEventInfo@@QAE@XZ
$LN3@ShowMeshLi:

; 772  : 
; 773  : 		if( iter != m_HideMeshLinkEffectList.end() )

  0007c	3b 5e 40	 cmp	 ebx, DWORD PTR [esi+64]
  0007f	74 0d		 je	 SHORT $LN1@ShowMeshLi

; 774  : 		{
; 775  : 			m_HideMeshLinkEffectList.erase( iter );

  00081	53		 push	 ebx
  00082	8d 45 08	 lea	 eax, DWORD PTR $T537334[ebp]
  00085	50		 push	 eax
  00086	8d 4e 3c	 lea	 ecx, DWORD PTR [esi+60]
  00089	e8 00 00 00 00	 call	 ?erase@?$vector@UAniEventInfo@@V?$allocator@UAniEventInfo@@@std@@@std@@QAE?AV?$_Vector_iterator@V?$_Vector_val@UAniEventInfo@@V?$allocator@UAniEventInfo@@@std@@@std@@@2@V?$_Vector_const_iterator@V?$_Vector_val@UAniEventInfo@@V?$allocator@UAniEventInfo@@@std@@@std@@@2@@Z ; std::vector<AniEventInfo,std::allocator<AniEventInfo> >::erase
$LN1@ShowMeshLi:

; 776  : 		}
; 777  : 	}
; 778  : }

  0008e	e8 00 00 00 00	 call	 __EH_epilog3
  00093	c2 08 00	 ret	 8
_TEXT	ENDS
;	COMDAT text$x
text$x	SEGMENT
__unwindfunclet$?ShowMeshLinkEffect@ioClientAniEventHandler@@IAEXABVioHashString@@PBVioAnimation@@@Z$0:
  00000	8d 4d d4	 lea	 ecx, DWORD PTR _kInfo$527164[ebp]
  00003	e9 00 00 00 00	 jmp	 ??1AniEventInfo@@QAE@XZ
__ehhandler$?ShowMeshLinkEffect@ioClientAniEventHandler@@IAEXABVioHashString@@PBVioAnimation@@@Z:
  00008	8b 54 24 08	 mov	 edx, DWORD PTR [esp+8]
  0000c	8d 42 0c	 lea	 eax, DWORD PTR [edx+12]
  0000f	8b 4a d0	 mov	 ecx, DWORD PTR [edx-48]
  00012	33 c8		 xor	 ecx, eax
  00014	e8 00 00 00 00	 call	 @__security_check_cookie@4
  00019	b8 00 00 00 00	 mov	 eax, OFFSET __ehfuncinfo$?ShowMeshLinkEffect@ioClientAniEventHandler@@IAEXABVioHashString@@PBVioAnimation@@@Z
  0001e	e9 00 00 00 00	 jmp	 ___CxxFrameHandler3
text$x	ENDS
?ShowMeshLinkEffect@ioClientAniEventHandler@@IAEXABVioHashString@@PBVioAnimation@@@Z ENDP ; ioClientAniEventHandler::ShowMeshLinkEffect
PUBLIC	?push_back@?$vector@UAniEventInfo@@V?$allocator@UAniEventInfo@@@std@@@std@@QAEXABUAniEventInfo@@@Z ; std::vector<AniEventInfo,std::allocator<AniEventInfo> >::push_back
; Function compile flags: /Ogsp
; File c:\program files (x86)\microsoft visual studio 10.0\vc\include\vector
;	COMDAT ?push_back@?$vector@UAniEventInfo@@V?$allocator@UAniEventInfo@@@std@@@std@@QAEXABUAniEventInfo@@@Z
_TEXT	SEGMENT
__Val$ = 8						; size = 4
?push_back@?$vector@UAniEventInfo@@V?$allocator@UAniEventInfo@@@std@@@std@@QAEXABUAniEventInfo@@@Z PROC ; std::vector<AniEventInfo,std::allocator<AniEventInfo> >::push_back, COMDAT
; _this$ = ecx

; 976  : 		{	// insert element at end

  00000	55		 push	 ebp
  00001	8b ec		 mov	 ebp, esp
  00003	56		 push	 esi
  00004	8b f1		 mov	 esi, ecx

; 977  : 		if (_Inside(_STD addressof(_Val)))

  00006	8b 46 04	 mov	 eax, DWORD PTR [esi+4]
  00009	57		 push	 edi
  0000a	8b 7d 08	 mov	 edi, DWORD PTR __Val$[ebp]
  0000d	3b f8		 cmp	 edi, eax
  0000f	73 2d		 jae	 SHORT $LN4@push_back
  00011	8b 0e		 mov	 ecx, DWORD PTR [esi]
  00013	3b cf		 cmp	 ecx, edi
  00015	77 27		 ja	 SHORT $LN4@push_back

; 978  : 			{	// push back an element
; 979  : 			size_type _Idx = _STD addressof(_Val) - this->_Myfirst;

  00017	2b f9		 sub	 edi, ecx

; 980  : 			if (this->_Mylast == this->_Myend)

  00019	3b 46 08	 cmp	 eax, DWORD PTR [esi+8]
  0001c	75 09		 jne	 SHORT $LN3@push_back

; 981  : 				_Reserve(1);

  0001e	6a 01		 push	 1
  00020	8b ce		 mov	 ecx, esi
  00022	e8 00 00 00 00	 call	 ?_Reserve@?$vector@UAniEventInfo@@V?$allocator@UAniEventInfo@@@std@@@std@@IAEXI@Z ; std::vector<AniEventInfo,std::allocator<AniEventInfo> >::_Reserve
$LN3@push_back:

; 982  : 			_Orphan_range(this->_Mylast, this->_Mylast);
; 983  : 			_Cons_val(this->_Alval,
; 984  : 				this->_Mylast,
; 985  : 				this->_Myfirst[_Idx]);

  00027	83 e7 e0	 and	 edi, -32		; ffffffe0H
  0002a	03 3e		 add	 edi, DWORD PTR [esi]
  0002c	8d 46 0c	 lea	 eax, DWORD PTR [esi+12]
  0002f	57		 push	 edi
  00030	ff 76 04	 push	 DWORD PTR [esi+4]
  00033	50		 push	 eax
  00034	e8 00 00 00 00	 call	 ??$_Cons_val@V?$allocator@UAniEventInfo@@@std@@UAniEventInfo@@AAU3@@std@@YAXAAV?$allocator@UAniEventInfo@@@0@PAUAniEventInfo@@AAU2@@Z ; std::_Cons_val<std::allocator<AniEventInfo>,AniEventInfo,AniEventInfo &>
  00039	83 c4 0c	 add	 esp, 12			; 0000000cH

; 986  : 			++this->_Mylast;
; 987  : 			}
; 988  : 		else

  0003c	eb 19		 jmp	 SHORT $LN26@push_back
$LN4@push_back:

; 989  : 			{	// push back a non-element
; 990  : 			if (this->_Mylast == this->_Myend)

  0003e	3b 46 08	 cmp	 eax, DWORD PTR [esi+8]
  00041	75 09		 jne	 SHORT $LN1@push_back

; 991  : 				_Reserve(1);

  00043	6a 01		 push	 1
  00045	8b ce		 mov	 ecx, esi
  00047	e8 00 00 00 00	 call	 ?_Reserve@?$vector@UAniEventInfo@@V?$allocator@UAniEventInfo@@@std@@@std@@IAEXI@Z ; std::vector<AniEventInfo,std::allocator<AniEventInfo> >::_Reserve
$LN1@push_back:

; 992  : 			_Orphan_range(this->_Mylast, this->_Mylast);
; 993  : 			_Cons_val(this->_Alval,
; 994  : 				this->_Mylast,
; 995  : 				_Val);

  0004c	57		 push	 edi
  0004d	ff 76 04	 push	 DWORD PTR [esi+4]
  00050	e8 00 00 00 00	 call	 ??$_Construct@UAniEventInfo@@ABU1@@std@@YAXPAUAniEventInfo@@ABU1@@Z ; std::_Construct<AniEventInfo,AniEventInfo const &>
  00055	59		 pop	 ecx
  00056	59		 pop	 ecx
$LN26@push_back:

; 996  : 			++this->_Mylast;

  00057	83 46 04 20	 add	 DWORD PTR [esi+4], 32	; 00000020H
  0005b	5f		 pop	 edi
  0005c	5e		 pop	 esi

; 997  : 			}
; 998  : 		}

  0005d	5d		 pop	 ebp
  0005e	c2 04 00	 ret	 4
?push_back@?$vector@UAniEventInfo@@V?$allocator@UAniEventInfo@@@std@@@std@@QAEXABUAniEventInfo@@@Z ENDP ; std::vector<AniEventInfo,std::allocator<AniEventInfo> >::push_back
_TEXT	ENDS
PUBLIC	?clear@?$vector@UAniEventInfo@@V?$allocator@UAniEventInfo@@@std@@@std@@QAEXXZ ; std::vector<AniEventInfo,std::allocator<AniEventInfo> >::clear
; Function compile flags: /Ogsp
;	COMDAT ?clear@?$vector@UAniEventInfo@@V?$allocator@UAniEventInfo@@@std@@@std@@QAEXXZ
_TEXT	SEGMENT
$T537523 = -4						; size = 4
?clear@?$vector@UAniEventInfo@@V?$allocator@UAniEventInfo@@@std@@@std@@QAEXXZ PROC ; std::vector<AniEventInfo,std::allocator<AniEventInfo> >::clear, COMDAT
; _this$ = ecx

; 1217 : 		{	// erase all

  00000	55		 push	 ebp
  00001	8b ec		 mov	 ebp, esp
  00003	51		 push	 ecx

; 1218 : 		erase(begin(), end());

  00004	8b 41 04	 mov	 eax, DWORD PTR [ecx+4]
  00007	8b 11		 mov	 edx, DWORD PTR [ecx]
  00009	50		 push	 eax
  0000a	52		 push	 edx
  0000b	8d 45 fc	 lea	 eax, DWORD PTR $T537523[ebp]
  0000e	50		 push	 eax
  0000f	e8 00 00 00 00	 call	 ?erase@?$vector@UAniEventInfo@@V?$allocator@UAniEventInfo@@@std@@@std@@QAE?AV?$_Vector_iterator@V?$_Vector_val@UAniEventInfo@@V?$allocator@UAniEventInfo@@@std@@@std@@@2@V?$_Vector_const_iterator@V?$_Vector_val@UAniEventInfo@@V?$allocator@UAniEventInfo@@@std@@@std@@@2@0@Z ; std::vector<AniEventInfo,std::allocator<AniEventInfo> >::erase

; 1219 : 		}

  00014	c9		 leave
  00015	c3		 ret	 0
?clear@?$vector@UAniEventInfo@@V?$allocator@UAniEventInfo@@@std@@@std@@QAEXXZ ENDP ; std::vector<AniEventInfo,std::allocator<AniEventInfo> >::clear
_TEXT	ENDS
PUBLIC	?push_back@?$vector@UtagAniSoundEventInfo@@V?$allocator@UtagAniSoundEventInfo@@@std@@@std@@QAEXABUtagAniSoundEventInfo@@@Z ; std::vector<tagAniSoundEventInfo,std::allocator<tagAniSoundEventInfo> >::push_back
; Function compile flags: /Ogsp
;	COMDAT ?push_back@?$vector@UtagAniSoundEventInfo@@V?$allocator@UtagAniSoundEventInfo@@@std@@@std@@QAEXABUtagAniSoundEventInfo@@@Z
_TEXT	SEGMENT
__Val$ = 8						; size = 4
?push_back@?$vector@UtagAniSoundEventInfo@@V?$allocator@UtagAniSoundEventInfo@@@std@@@std@@QAEXABUtagAniSoundEventInfo@@@Z PROC ; std::vector<tagAniSoundEventInfo,std::allocator<tagAniSoundEventInfo> >::push_back, COMDAT
; _this$ = ecx

; 976  : 		{	// insert element at end

  00000	55		 push	 ebp
  00001	8b ec		 mov	 ebp, esp
  00003	56		 push	 esi
  00004	8b f1		 mov	 esi, ecx

; 977  : 		if (_Inside(_STD addressof(_Val)))

  00006	8b 4e 04	 mov	 ecx, DWORD PTR [esi+4]
  00009	57		 push	 edi
  0000a	8b 7d 08	 mov	 edi, DWORD PTR __Val$[ebp]
  0000d	3b f9		 cmp	 edi, ecx
  0000f	73 37		 jae	 SHORT $LN4@push_back@2
  00011	8b 16		 mov	 edx, DWORD PTR [esi]
  00013	3b d7		 cmp	 edx, edi
  00015	77 31		 ja	 SHORT $LN4@push_back@2

; 978  : 			{	// push back an element
; 979  : 			size_type _Idx = _STD addressof(_Val) - this->_Myfirst;

  00017	8b c7		 mov	 eax, edi
  00019	2b c2		 sub	 eax, edx
  0001b	6a 24		 push	 36			; 00000024H
  0001d	99		 cdq
  0001e	5f		 pop	 edi
  0001f	f7 ff		 idiv	 edi
  00021	8b f8		 mov	 edi, eax

; 980  : 			if (this->_Mylast == this->_Myend)

  00023	3b 4e 08	 cmp	 ecx, DWORD PTR [esi+8]
  00026	75 09		 jne	 SHORT $LN3@push_back@2

; 981  : 				_Reserve(1);

  00028	6a 01		 push	 1
  0002a	8b ce		 mov	 ecx, esi
  0002c	e8 00 00 00 00	 call	 ?_Reserve@?$vector@UtagAniSoundEventInfo@@V?$allocator@UtagAniSoundEventInfo@@@std@@@std@@IAEXI@Z ; std::vector<tagAniSoundEventInfo,std::allocator<tagAniSoundEventInfo> >::_Reserve
$LN3@push_back@2:

; 982  : 			_Orphan_range(this->_Mylast, this->_Mylast);
; 983  : 			_Cons_val(this->_Alval,
; 984  : 				this->_Mylast,
; 985  : 				this->_Myfirst[_Idx]);

  00031	6b ff 24	 imul	 edi, 36			; 00000024H
  00034	03 3e		 add	 edi, DWORD PTR [esi]
  00036	8d 46 0c	 lea	 eax, DWORD PTR [esi+12]
  00039	57		 push	 edi
  0003a	ff 76 04	 push	 DWORD PTR [esi+4]
  0003d	50		 push	 eax
  0003e	e8 00 00 00 00	 call	 ??$_Cons_val@V?$allocator@UtagAniSoundEventInfo@@@std@@UtagAniSoundEventInfo@@AAU3@@std@@YAXAAV?$allocator@UtagAniSoundEventInfo@@@0@PAUtagAniSoundEventInfo@@AAU2@@Z ; std::_Cons_val<std::allocator<tagAniSoundEventInfo>,tagAniSoundEventInfo,tagAniSoundEventInfo &>
  00043	83 c4 0c	 add	 esp, 12			; 0000000cH

; 986  : 			++this->_Mylast;
; 987  : 			}
; 988  : 		else

  00046	eb 19		 jmp	 SHORT $LN26@push_back@2
$LN4@push_back@2:

; 989  : 			{	// push back a non-element
; 990  : 			if (this->_Mylast == this->_Myend)

  00048	3b 4e 08	 cmp	 ecx, DWORD PTR [esi+8]
  0004b	75 09		 jne	 SHORT $LN1@push_back@2

; 991  : 				_Reserve(1);

  0004d	6a 01		 push	 1
  0004f	8b ce		 mov	 ecx, esi
  00051	e8 00 00 00 00	 call	 ?_Reserve@?$vector@UtagAniSoundEventInfo@@V?$allocator@UtagAniSoundEventInfo@@@std@@@std@@IAEXI@Z ; std::vector<tagAniSoundEventInfo,std::allocator<tagAniSoundEventInfo> >::_Reserve
$LN1@push_back@2:

; 992  : 			_Orphan_range(this->_Mylast, this->_Mylast);
; 993  : 			_Cons_val(this->_Alval,
; 994  : 				this->_Mylast,
; 995  : 				_Val);

  00056	57		 push	 edi
  00057	ff 76 04	 push	 DWORD PTR [esi+4]
  0005a	e8 00 00 00 00	 call	 ??$_Construct@UtagAniSoundEventInfo@@ABU1@@std@@YAXPAUtagAniSoundEventInfo@@ABU1@@Z ; std::_Construct<tagAniSoundEventInfo,tagAniSoundEventInfo const &>
  0005f	59		 pop	 ecx
  00060	59		 pop	 ecx
$LN26@push_back@2:

; 996  : 			++this->_Mylast;

  00061	83 46 04 24	 add	 DWORD PTR [esi+4], 36	; 00000024H
  00065	5f		 pop	 edi
  00066	5e		 pop	 esi

; 997  : 			}
; 998  : 		}

  00067	5d		 pop	 ebp
  00068	c2 04 00	 ret	 4
?push_back@?$vector@UtagAniSoundEventInfo@@V?$allocator@UtagAniSoundEventInfo@@@std@@@std@@QAEXABUtagAniSoundEventInfo@@@Z ENDP ; std::vector<tagAniSoundEventInfo,std::allocator<tagAniSoundEventInfo> >::push_back
_TEXT	ENDS
PUBLIC	?clear@?$vector@UtagAniSoundEventInfo@@V?$allocator@UtagAniSoundEventInfo@@@std@@@std@@QAEXXZ ; std::vector<tagAniSoundEventInfo,std::allocator<tagAniSoundEventInfo> >::clear
; Function compile flags: /Ogsp
;	COMDAT ?clear@?$vector@UtagAniSoundEventInfo@@V?$allocator@UtagAniSoundEventInfo@@@std@@@std@@QAEXXZ
_TEXT	SEGMENT
$T537617 = -4						; size = 4
?clear@?$vector@UtagAniSoundEventInfo@@V?$allocator@UtagAniSoundEventInfo@@@std@@@std@@QAEXXZ PROC ; std::vector<tagAniSoundEventInfo,std::allocator<tagAniSoundEventInfo> >::clear, COMDAT
; _this$ = ecx

; 1217 : 		{	// erase all

  00000	55		 push	 ebp
  00001	8b ec		 mov	 ebp, esp
  00003	51		 push	 ecx

; 1218 : 		erase(begin(), end());

  00004	8b 41 04	 mov	 eax, DWORD PTR [ecx+4]
  00007	8b 11		 mov	 edx, DWORD PTR [ecx]
  00009	50		 push	 eax
  0000a	52		 push	 edx
  0000b	8d 45 fc	 lea	 eax, DWORD PTR $T537617[ebp]
  0000e	50		 push	 eax
  0000f	e8 00 00 00 00	 call	 ?erase@?$vector@UtagAniSoundEventInfo@@V?$allocator@UtagAniSoundEventInfo@@@std@@@std@@QAE?AV?$_Vector_iterator@V?$_Vector_val@UtagAniSoundEventInfo@@V?$allocator@UtagAniSoundEventInfo@@@std@@@std@@@2@V?$_Vector_const_iterator@V?$_Vector_val@UtagAniSoundEventInfo@@V?$allocator@UtagAniSoundEventInfo@@@std@@@std@@@2@0@Z ; std::vector<tagAniSoundEventInfo,std::allocator<tagAniSoundEventInfo> >::erase

; 1219 : 		}

  00014	c9		 leave
  00015	c3		 ret	 0
?clear@?$vector@UtagAniSoundEventInfo@@V?$allocator@UtagAniSoundEventInfo@@@std@@@std@@QAEXXZ ENDP ; std::vector<tagAniSoundEventInfo,std::allocator<tagAniSoundEventInfo> >::clear
_TEXT	ENDS
PUBLIC	??$_Cons_val@V?$allocator@V?$basic_string@DU?$char_traits@D@std@@V?$allocator@D@2@@std@@@std@@V?$basic_string@DU?$char_traits@D@std@@V?$allocator@D@2@@2@ABV32@@std@@YAXAAV?$allocator@V?$basic_string@DU?$char_traits@D@std@@V?$allocator@D@2@@std@@@0@PAV?$basic_string@DU?$char_traits@D@std@@V?$allocator@D@2@@0@ABV20@@Z ; std::_Cons_val<std::allocator<std::basic_string<char,std::char_traits<char>,std::allocator<char> > >,std::basic_string<char,std::char_traits<char>,std::allocator<char> >,std::basic_string<char,std::char_traits<char>,std::allocator<char> > const &>
; Function compile flags: /Ogsp
; File c:\program files (x86)\microsoft visual studio 10.0\vc\include\xmemory
;	COMDAT ??$_Cons_val@V?$allocator@V?$basic_string@DU?$char_traits@D@std@@V?$allocator@D@2@@std@@@std@@V?$basic_string@DU?$char_traits@D@std@@V?$allocator@D@2@@2@ABV32@@std@@YAXAAV?$allocator@V?$basic_string@DU?$char_traits@D@std@@V?$allocator@D@2@@std@@@0@PAV?$basic_string@DU?$char_traits@D@std@@V?$allocator@D@2@@0@ABV20@@Z
_TEXT	SEGMENT
__Alval$ = 8						; size = 4
__Pdest$ = 12						; size = 4
__Src$ = 16						; size = 4
??$_Cons_val@V?$allocator@V?$basic_string@DU?$char_traits@D@std@@V?$allocator@D@2@@std@@@std@@V?$basic_string@DU?$char_traits@D@std@@V?$allocator@D@2@@2@ABV32@@std@@YAXAAV?$allocator@V?$basic_string@DU?$char_traits@D@std@@V?$allocator@D@2@@std@@@0@PAV?$basic_string@DU?$char_traits@D@std@@V?$allocator@D@2@@0@ABV20@@Z PROC ; std::_Cons_val<std::allocator<std::basic_string<char,std::char_traits<char>,std::allocator<char> > >,std::basic_string<char,std::char_traits<char>,std::allocator<char> >,std::basic_string<char,std::char_traits<char>,std::allocator<char> > const &>, COMDAT

; 279  : 	{	// construct using allocator

  00000	55		 push	 ebp
  00001	8b ec		 mov	 ebp, esp

; 280  : 	_Alval.construct(_Pdest, _STD forward<_Ty2>(_Src));

  00003	ff 75 10	 push	 DWORD PTR __Src$[ebp]
  00006	ff 75 0c	 push	 DWORD PTR __Pdest$[ebp]
  00009	e8 00 00 00 00	 call	 ??$_Construct@V?$basic_string@DU?$char_traits@D@std@@V?$allocator@D@2@@std@@ABV12@@std@@YAXPAV?$basic_string@DU?$char_traits@D@std@@V?$allocator@D@2@@0@ABV10@@Z ; std::_Construct<std::basic_string<char,std::char_traits<char>,std::allocator<char> >,std::basic_string<char,std::char_traits<char>,std::allocator<char> > const &>
  0000e	59		 pop	 ecx
  0000f	59		 pop	 ecx

; 281  : 	}

  00010	5d		 pop	 ebp
  00011	c3		 ret	 0
??$_Cons_val@V?$allocator@V?$basic_string@DU?$char_traits@D@std@@V?$allocator@D@2@@std@@@std@@V?$basic_string@DU?$char_traits@D@std@@V?$allocator@D@2@@2@ABV32@@std@@YAXAAV?$allocator@V?$basic_string@DU?$char_traits@D@std@@V?$allocator@D@2@@std@@@0@PAV?$basic_string@DU?$char_traits@D@std@@V?$allocator@D@2@@0@ABV20@@Z ENDP ; std::_Cons_val<std::allocator<std::basic_string<char,std::char_traits<char>,std::allocator<char> > >,std::basic_string<char,std::char_traits<char>,std::allocator<char> >,std::basic_string<char,std::char_traits<char>,std::allocator<char> > const &>
_TEXT	ENDS
PUBLIC	??$_Destroy_range@V?$allocator@V?$basic_string@DU?$char_traits@D@std@@V?$allocator@D@2@@std@@@std@@@std@@YAXPAV?$basic_string@DU?$char_traits@D@std@@V?$allocator@D@2@@0@0AAV?$allocator@V?$basic_string@DU?$char_traits@D@std@@V?$allocator@D@2@@std@@@0@@Z ; std::_Destroy_range<std::allocator<std::basic_string<char,std::char_traits<char>,std::allocator<char> > > >
; Function compile flags: /Ogsp
;	COMDAT ??$_Destroy_range@V?$allocator@V?$basic_string@DU?$char_traits@D@std@@V?$allocator@D@2@@std@@@std@@@std@@YAXPAV?$basic_string@DU?$char_traits@D@std@@V?$allocator@D@2@@0@0AAV?$allocator@V?$basic_string@DU?$char_traits@D@std@@V?$allocator@D@2@@std@@@0@@Z
_TEXT	SEGMENT
__Cat$537681 = -4					; size = 1
__First$ = 8						; size = 4
__Last$ = 12						; size = 4
__Al$ = 16						; size = 4
??$_Destroy_range@V?$allocator@V?$basic_string@DU?$char_traits@D@std@@V?$allocator@D@2@@std@@@std@@@std@@YAXPAV?$basic_string@DU?$char_traits@D@std@@V?$allocator@D@2@@0@0AAV?$allocator@V?$basic_string@DU?$char_traits@D@std@@V?$allocator@D@2@@std@@@0@@Z PROC ; std::_Destroy_range<std::allocator<std::basic_string<char,std::char_traits<char>,std::allocator<char> > > >, COMDAT

; 87   : 	{	// destroy [_First, _Last)

  00000	55		 push	 ebp
  00001	8b ec		 mov	 ebp, esp
  00003	51		 push	 ecx

; 88   : 	_Destroy_range(_First, _Last, _Al, _Ptr_cat(_First, _Last));

  00004	ff 75 fc	 push	 DWORD PTR __Cat$537681[ebp]
  00007	ff 75 10	 push	 DWORD PTR __Al$[ebp]
  0000a	ff 75 0c	 push	 DWORD PTR __Last$[ebp]
  0000d	ff 75 08	 push	 DWORD PTR __First$[ebp]
  00010	e8 00 00 00 00	 call	 ??$_Destroy_range@V?$allocator@V?$basic_string@DU?$char_traits@D@std@@V?$allocator@D@2@@std@@@std@@@std@@YAXPAV?$basic_string@DU?$char_traits@D@std@@V?$allocator@D@2@@0@0AAV?$allocator@V?$basic_string@DU?$char_traits@D@std@@V?$allocator@D@2@@std@@@0@U_Nonscalar_ptr_iterator_tag@0@@Z ; std::_Destroy_range<std::allocator<std::basic_string<char,std::char_traits<char>,std::allocator<char> > > >
  00015	83 c4 10	 add	 esp, 16			; 00000010H

; 89   : 	}

  00018	c9		 leave
  00019	c3		 ret	 0
??$_Destroy_range@V?$allocator@V?$basic_string@DU?$char_traits@D@std@@V?$allocator@D@2@@std@@@std@@@std@@YAXPAV?$basic_string@DU?$char_traits@D@std@@V?$allocator@D@2@@0@0AAV?$allocator@V?$basic_string@DU?$char_traits@D@std@@V?$allocator@D@2@@std@@@0@@Z ENDP ; std::_Destroy_range<std::allocator<std::basic_string<char,std::char_traits<char>,std::allocator<char> > > >
_TEXT	ENDS
PUBLIC	??1ioClientAniEventHandler@@UAE@XZ		; ioClientAniEventHandler::~ioClientAniEventHandler
EXTRN	__imp_??1ioAniEventHandler@@UAE@XZ:PROC
;	COMDAT xdata$x
; File c:\program files (x86)\microsoft visual studio 10.0\vc\include\vector
xdata$x	SEGMENT
__unwindtable$??1ioClientAniEventHandler@@UAE@XZ DD 0ffffffffH
	DD	FLAT:__unwindfunclet$??1ioClientAniEventHandler@@UAE@XZ$0
	DD	00H
	DD	FLAT:__unwindfunclet$??1ioClientAniEventHandler@@UAE@XZ$1
	DD	01H
	DD	FLAT:__unwindfunclet$??1ioClientAniEventHandler@@UAE@XZ$2
	DD	02H
	DD	FLAT:__unwindfunclet$??1ioClientAniEventHandler@@UAE@XZ$3
__ehfuncinfo$??1ioClientAniEventHandler@@UAE@XZ DD 019930522H
	DD	04H
	DD	FLAT:__unwindtable$??1ioClientAniEventHandler@@UAE@XZ
	DD	2 DUP(00H)
	DD	2 DUP(00H)
	DD	00H
	DD	01H
; Function compile flags: /Ogsp
; File d:\lost saga for developer\youtube\tutorial\source\src\lsclient\ioclientanieventhandler.cpp
xdata$x	ENDS
;	COMDAT ??1ioClientAniEventHandler@@UAE@XZ
_TEXT	SEGMENT
$T537910 = -20						; size = 4
$T537830 = -20						; size = 4
$T537750 = -20						; size = 4
_this$ = -16						; size = 4
__$EHRec$ = -12						; size = 12
??1ioClientAniEventHandler@@UAE@XZ PROC			; ioClientAniEventHandler::~ioClientAniEventHandler, COMDAT
; _this$ = ecx

; 18   : {

  00000	6a 08		 push	 8
  00002	b8 00 00 00 00	 mov	 eax, __ehhandler$??1ioClientAniEventHandler@@UAE@XZ
  00007	e8 00 00 00 00	 call	 __EH_prolog3
  0000c	8b f1		 mov	 esi, ecx
  0000e	89 75 f0	 mov	 DWORD PTR _this$[ebp], esi
  00011	c7 06 00 00 00
	00		 mov	 DWORD PTR [esi], OFFSET ??_7ioClientAniEventHandler@@6B@

; 19   : 	m_ShopEffectList.clear();

  00017	8b 46 20	 mov	 eax, DWORD PTR [esi+32]
  0001a	8b 4e 1c	 mov	 ecx, DWORD PTR [esi+28]
  0001d	50		 push	 eax
  0001e	51		 push	 ecx
  0001f	8d 45 ec	 lea	 eax, DWORD PTR $T537750[ebp]
  00022	50		 push	 eax
  00023	8d 4e 1c	 lea	 ecx, DWORD PTR [esi+28]
  00026	c7 45 fc 03 00
	00 00		 mov	 DWORD PTR __$EHRec$[ebp+8], 3
  0002d	e8 00 00 00 00	 call	 ?erase@?$vector@UAniEventInfo@@V?$allocator@UAniEventInfo@@@std@@@std@@QAE?AV?$_Vector_iterator@V?$_Vector_val@UAniEventInfo@@V?$allocator@UAniEventInfo@@@std@@@std@@@2@V?$_Vector_const_iterator@V?$_Vector_val@UAniEventInfo@@V?$allocator@UAniEventInfo@@@std@@@std@@@2@0@Z ; std::vector<AniEventInfo,std::allocator<AniEventInfo> >::erase

; 20   : 	m_ShopSoundList.clear();

  00032	8b 46 30	 mov	 eax, DWORD PTR [esi+48]
  00035	8b 4e 2c	 mov	 ecx, DWORD PTR [esi+44]
  00038	50		 push	 eax
  00039	51		 push	 ecx
  0003a	8d 45 ec	 lea	 eax, DWORD PTR $T537830[ebp]
  0003d	50		 push	 eax
  0003e	8d 4e 2c	 lea	 ecx, DWORD PTR [esi+44]
  00041	e8 00 00 00 00	 call	 ?erase@?$vector@UtagAniSoundEventInfo@@V?$allocator@UtagAniSoundEventInfo@@@std@@@std@@QAE?AV?$_Vector_iterator@V?$_Vector_val@UtagAniSoundEventInfo@@V?$allocator@UtagAniSoundEventInfo@@@std@@@std@@@2@V?$_Vector_const_iterator@V?$_Vector_val@UtagAniSoundEventInfo@@V?$allocator@UtagAniSoundEventInfo@@@std@@@std@@@2@0@Z ; std::vector<tagAniSoundEventInfo,std::allocator<tagAniSoundEventInfo> >::erase

; 21   : 	m_HideMeshLinkEffectList.clear();

  00046	8d 4e 3c	 lea	 ecx, DWORD PTR [esi+60]
  00049	8b 41 04	 mov	 eax, DWORD PTR [ecx+4]
  0004c	8b 11		 mov	 edx, DWORD PTR [ecx]
  0004e	50		 push	 eax
  0004f	52		 push	 edx
  00050	8d 45 ec	 lea	 eax, DWORD PTR $T537910[ebp]
  00053	50		 push	 eax
  00054	e8 00 00 00 00	 call	 ?erase@?$vector@UAniEventInfo@@V?$allocator@UAniEventInfo@@@std@@@std@@QAE?AV?$_Vector_iterator@V?$_Vector_val@UAniEventInfo@@V?$allocator@UAniEventInfo@@@std@@@std@@@2@V?$_Vector_const_iterator@V?$_Vector_val@UAniEventInfo@@V?$allocator@UAniEventInfo@@@std@@@std@@@2@0@Z ; std::vector<AniEventInfo,std::allocator<AniEventInfo> >::erase

; 22   : }

  00059	8d 4e 3c	 lea	 ecx, DWORD PTR [esi+60]
  0005c	c6 45 fc 02	 mov	 BYTE PTR __$EHRec$[ebp+8], 2
  00060	e8 00 00 00 00	 call	 ?_Tidy@?$vector@UAniEventInfo@@V?$allocator@UAniEventInfo@@@std@@@std@@IAEXXZ ; std::vector<AniEventInfo,std::allocator<AniEventInfo> >::_Tidy
  00065	8d 4e 2c	 lea	 ecx, DWORD PTR [esi+44]
  00068	c6 45 fc 01	 mov	 BYTE PTR __$EHRec$[ebp+8], 1
  0006c	e8 00 00 00 00	 call	 ?_Tidy@?$vector@UtagAniSoundEventInfo@@V?$allocator@UtagAniSoundEventInfo@@@std@@@std@@IAEXXZ ; std::vector<tagAniSoundEventInfo,std::allocator<tagAniSoundEventInfo> >::_Tidy
  00071	8d 4e 1c	 lea	 ecx, DWORD PTR [esi+28]
  00074	c6 45 fc 00	 mov	 BYTE PTR __$EHRec$[ebp+8], 0
  00078	e8 00 00 00 00	 call	 ?_Tidy@?$vector@UAniEventInfo@@V?$allocator@UAniEventInfo@@@std@@@std@@IAEXXZ ; std::vector<AniEventInfo,std::allocator<AniEventInfo> >::_Tidy
  0007d	83 4d fc ff	 or	 DWORD PTR __$EHRec$[ebp+8], -1
  00081	8b ce		 mov	 ecx, esi
  00083	ff 15 00 00 00
	00		 call	 DWORD PTR __imp_??1ioAniEventHandler@@UAE@XZ
  00089	e8 00 00 00 00	 call	 __EH_epilog3
  0008e	c3		 ret	 0
_TEXT	ENDS
;	COMDAT text$x
text$x	SEGMENT
__unwindfunclet$??1ioClientAniEventHandler@@UAE@XZ$0:
  00000	8b 4d f0	 mov	 ecx, DWORD PTR _this$[ebp]
  00003	ff 25 00 00 00
	00		 jmp	 DWORD PTR __imp_??1ioAniEventHandler@@UAE@XZ
__unwindfunclet$??1ioClientAniEventHandler@@UAE@XZ$1:
  00009	8b 4d f0	 mov	 ecx, DWORD PTR _this$[ebp]
  0000c	83 c1 1c	 add	 ecx, 28			; 0000001cH
  0000f	e9 00 00 00 00	 jmp	 ??1?$vector@UAniEventInfo@@V?$allocator@UAniEventInfo@@@std@@@std@@QAE@XZ ; std::vector<AniEventInfo,std::allocator<AniEventInfo> >::~vector<AniEventInfo,std::allocator<AniEventInfo> >
__unwindfunclet$??1ioClientAniEventHandler@@UAE@XZ$2:
  00014	8b 4d f0	 mov	 ecx, DWORD PTR _this$[ebp]
  00017	83 c1 2c	 add	 ecx, 44			; 0000002cH
  0001a	e9 00 00 00 00	 jmp	 ??1?$vector@UtagAniSoundEventInfo@@V?$allocator@UtagAniSoundEventInfo@@@std@@@std@@QAE@XZ ; std::vector<tagAniSoundEventInfo,std::allocator<tagAniSoundEventInfo> >::~vector<tagAniSoundEventInfo,std::allocator<tagAniSoundEventInfo> >
__unwindfunclet$??1ioClientAniEventHandler@@UAE@XZ$3:
  0001f	8b 4d f0	 mov	 ecx, DWORD PTR _this$[ebp]
  00022	83 c1 3c	 add	 ecx, 60			; 0000003cH
  00025	e9 00 00 00 00	 jmp	 ??1?$vector@UAniEventInfo@@V?$allocator@UAniEventInfo@@@std@@@std@@QAE@XZ ; std::vector<AniEventInfo,std::allocator<AniEventInfo> >::~vector<AniEventInfo,std::allocator<AniEventInfo> >
__ehhandler$??1ioClientAniEventHandler@@UAE@XZ:
  0002a	8b 54 24 08	 mov	 edx, DWORD PTR [esp+8]
  0002e	8d 42 0c	 lea	 eax, DWORD PTR [edx+12]
  00031	8b 4a e8	 mov	 ecx, DWORD PTR [edx-24]
  00034	33 c8		 xor	 ecx, eax
  00036	e8 00 00 00 00	 call	 @__security_check_cookie@4
  0003b	b8 00 00 00 00	 mov	 eax, OFFSET __ehfuncinfo$??1ioClientAniEventHandler@@UAE@XZ
  00040	e9 00 00 00 00	 jmp	 ___CxxFrameHandler3
text$x	ENDS
??1ioClientAniEventHandler@@UAE@XZ ENDP			; ioClientAniEventHandler::~ioClientAniEventHandler
PUBLIC	?OnShopEffect@ioClientAniEventHandler@@IAEXPBUAniEventTime@@PBVioAnimation@@@Z ; ioClientAniEventHandler::OnShopEffect
;	COMDAT xdata$x
xdata$x	SEGMENT
__unwindtable$?OnShopEffect@ioClientAniEventHandler@@IAEXPBUAniEventTime@@PBVioAnimation@@@Z DD 0ffffffffH
	DD	FLAT:__unwindfunclet$?OnShopEffect@ioClientAniEventHandler@@IAEXPBUAniEventTime@@PBVioAnimation@@@Z$1
	DD	0ffffffffH
	DD	FLAT:__unwindfunclet$?OnShopEffect@ioClientAniEventHandler@@IAEXPBUAniEventTime@@PBVioAnimation@@@Z$0
__ehfuncinfo$?OnShopEffect@ioClientAniEventHandler@@IAEXPBUAniEventTime@@PBVioAnimation@@@Z DD 019930522H
	DD	02H
	DD	FLAT:__unwindtable$?OnShopEffect@ioClientAniEventHandler@@IAEXPBUAniEventTime@@PBVioAnimation@@@Z
	DD	2 DUP(00H)
	DD	2 DUP(00H)
	DD	00H
	DD	01H
; Function compile flags: /Ogsp
xdata$x	ENDS
;	COMDAT ?OnShopEffect@ioClientAniEventHandler@@IAEXPBUAniEventTime@@PBVioAnimation@@@Z
_TEXT	SEGMENT
_kInfo$ = -48						; size = 32
$T537963 = -16						; size = 4
__$EHRec$ = -12						; size = 12
_pEvent$ = 8						; size = 4
_pNotifier$ = 12					; size = 4
?OnShopEffect@ioClientAniEventHandler@@IAEXPBUAniEventTime@@PBVioAnimation@@@Z PROC ; ioClientAniEventHandler::OnShopEffect, COMDAT
; _this$ = ecx

; 222  : {

  00000	6a 24		 push	 36			; 00000024H
  00002	b8 00 00 00 00	 mov	 eax, __ehhandler$?OnShopEffect@ioClientAniEventHandler@@IAEXPBUAniEventTime@@PBVioAnimation@@@Z
  00007	e8 00 00 00 00	 call	 __EH_prolog3
  0000c	8b f1		 mov	 esi, ecx

; 223  : 	AniEventInfoList::iterator iter = m_ShopEffectList.begin();

  0000e	8d 7e 1c	 lea	 edi, DWORD PTR [esi+28]
  00011	8b 1f		 mov	 ebx, DWORD PTR [edi]
  00013	eb 17		 jmp	 SHORT $LN46@OnShopEffe
$LN4@OnShopEffe:

; 225  : 	{
; 226  : 		if( (*iter).m_EventName == pEvent->szSubInfo )

  00015	8b 45 08	 mov	 eax, DWORD PTR _pEvent$[ebp]
  00018	83 c0 14	 add	 eax, 20			; 00000014H
  0001b	50		 push	 eax
  0001c	8d 4b 10	 lea	 ecx, DWORD PTR [ebx+16]
  0001f	ff 15 00 00 00
	00		 call	 DWORD PTR __imp_??8ioHashString@@QBE_NABV0@@Z
  00025	84 c0		 test	 al, al
  00027	75 0a		 jne	 SHORT $LN43@OnShopEffe

; 230  : 			break;
; 231  : 		}
; 232  : 		else
; 233  : 		{
; 234  : 			++iter;

  00029	83 c3 20	 add	 ebx, 32			; 00000020H
$LN46@OnShopEffe:

; 224  : 	while( iter != m_ShopEffectList.end() )

  0002c	3b 5e 20	 cmp	 ebx, DWORD PTR [esi+32]
  0002f	75 e4		 jne	 SHORT $LN4@OnShopEffe

; 225  : 	{
; 226  : 		if( (*iter).m_EventName == pEvent->szSubInfo )

  00031	eb 20		 jmp	 SHORT $LN3@OnShopEffe
$LN43@OnShopEffe:

; 227  : 		{
; 228  : 			m_pOwner->EndEffect( pEvent->szSubInfo, false );

  00033	8b 45 08	 mov	 eax, DWORD PTR _pEvent$[ebp]
  00036	8b 4e 04	 mov	 ecx, DWORD PTR [esi+4]
  00039	6a 01		 push	 1
  0003b	6a 00		 push	 0
  0003d	83 c0 14	 add	 eax, 20			; 00000014H
  00040	50		 push	 eax
  00041	ff 15 00 00 00
	00		 call	 DWORD PTR __imp_?EndEffect@ioEntityGroup@@QAEXABVioHashString@@_N1@Z

; 229  : 			m_ShopEffectList.erase( iter );

  00047	53		 push	 ebx
  00048	8d 45 f0	 lea	 eax, DWORD PTR $T537963[ebp]
  0004b	50		 push	 eax
  0004c	8b cf		 mov	 ecx, edi
  0004e	e8 00 00 00 00	 call	 ?erase@?$vector@UAniEventInfo@@V?$allocator@UAniEventInfo@@@std@@@std@@QAE?AV?$_Vector_iterator@V?$_Vector_val@UAniEventInfo@@V?$allocator@UAniEventInfo@@@std@@@std@@@2@V?$_Vector_const_iterator@V?$_Vector_val@UAniEventInfo@@V?$allocator@UAniEventInfo@@@std@@@std@@@2@@Z ; std::vector<AniEventInfo,std::allocator<AniEventInfo> >::erase
$LN3@OnShopEffe:

; 235  : 		}
; 236  : 	}
; 237  : 
; 238  : 	m_pChar->AttachEffect( pEvent->szSubInfo );

  00053	8b 5d 08	 mov	 ebx, DWORD PTR _pEvent$[ebp]
  00056	8b 4e 18	 mov	 ecx, DWORD PTR [esi+24]
  00059	6a 01		 push	 1
  0005b	6a 00		 push	 0
  0005d	83 c3 14	 add	 ebx, 20			; 00000014H
  00060	53		 push	 ebx
  00061	e8 00 00 00 00	 call	 ?AttachEffect@ioBaseChar@@QAEPAVioEffect@@ABVioHashString@@PAVioEntityEvent@@_N@Z ; ioBaseChar::AttachEffect

; 239  : 
; 240  : 	AniEventInfo kInfo;

  00066	8b 35 00 00 00
	00		 mov	 esi, DWORD PTR __imp_??0ioHashString@@QAE@XZ
  0006c	8d 4d d0	 lea	 ecx, DWORD PTR _kInfo$[ebp]
  0006f	ff d6		 call	 esi
  00071	83 65 fc 00	 and	 DWORD PTR __$EHRec$[ebp+8], 0
  00075	8d 4d e0	 lea	 ecx, DWORD PTR _kInfo$[ebp+16]
  00078	ff d6		 call	 esi

; 241  : 	kInfo.m_AniName = pNotifier->GetName();

  0007a	8b 4d 0c	 mov	 ecx, DWORD PTR _pNotifier$[ebp]
  0007d	c7 45 fc 01 00
	00 00		 mov	 DWORD PTR __$EHRec$[ebp+8], 1
  00084	ff 15 00 00 00
	00		 call	 DWORD PTR __imp_?GetName@ioAnimation@@QBEABVioHashString@@XZ
  0008a	8b 35 00 00 00
	00		 mov	 esi, DWORD PTR __imp_??4ioHashString@@QAEAAV0@ABV0@@Z
  00090	50		 push	 eax
  00091	8d 4d d0	 lea	 ecx, DWORD PTR _kInfo$[ebp]
  00094	ff d6		 call	 esi

; 242  : 	kInfo.m_EventName = pEvent->szSubInfo;

  00096	53		 push	 ebx
  00097	8d 4d e0	 lea	 ecx, DWORD PTR _kInfo$[ebp+16]
  0009a	ff d6		 call	 esi

; 243  : 
; 244  : 	m_ShopEffectList.push_back( kInfo );

  0009c	8d 45 d0	 lea	 eax, DWORD PTR _kInfo$[ebp]
  0009f	50		 push	 eax
  000a0	8b cf		 mov	 ecx, edi
  000a2	e8 00 00 00 00	 call	 ?push_back@?$vector@UAniEventInfo@@V?$allocator@UAniEventInfo@@@std@@@std@@QAEXABUAniEventInfo@@@Z ; std::vector<AniEventInfo,std::allocator<AniEventInfo> >::push_back

; 245  : }

  000a7	83 4d fc ff	 or	 DWORD PTR __$EHRec$[ebp+8], -1
  000ab	8d 4d d0	 lea	 ecx, DWORD PTR _kInfo$[ebp]
  000ae	e8 00 00 00 00	 call	 ??1AniEventInfo@@QAE@XZ
  000b3	e8 00 00 00 00	 call	 __EH_epilog3
  000b8	c2 08 00	 ret	 8
_TEXT	ENDS
;	COMDAT text$x
text$x	SEGMENT
__unwindfunclet$?OnShopEffect@ioClientAniEventHandler@@IAEXPBUAniEventTime@@PBVioAnimation@@@Z$1:
  00000	8d 4d d0	 lea	 ecx, DWORD PTR _kInfo$[ebp]
  00003	ff 25 00 00 00
	00		 jmp	 DWORD PTR __imp_??1ioHashString@@QAE@XZ
__unwindfunclet$?OnShopEffect@ioClientAniEventHandler@@IAEXPBUAniEventTime@@PBVioAnimation@@@Z$0:
  00009	8d 4d d0	 lea	 ecx, DWORD PTR _kInfo$[ebp]
  0000c	e9 00 00 00 00	 jmp	 ??1AniEventInfo@@QAE@XZ
__ehhandler$?OnShopEffect@ioClientAniEventHandler@@IAEXPBUAniEventTime@@PBVioAnimation@@@Z:
  00011	8b 54 24 08	 mov	 edx, DWORD PTR [esp+8]
  00015	8d 42 0c	 lea	 eax, DWORD PTR [edx+12]
  00018	8b 4a cc	 mov	 ecx, DWORD PTR [edx-52]
  0001b	33 c8		 xor	 ecx, eax
  0001d	e8 00 00 00 00	 call	 @__security_check_cookie@4
  00022	b8 00 00 00 00	 mov	 eax, OFFSET __ehfuncinfo$?OnShopEffect@ioClientAniEventHandler@@IAEXPBUAniEventTime@@PBVioAnimation@@@Z
  00027	e9 00 00 00 00	 jmp	 ___CxxFrameHandler3
text$x	ENDS
?OnShopEffect@ioClientAniEventHandler@@IAEXPBUAniEventTime@@PBVioAnimation@@@Z ENDP ; ioClientAniEventHandler::OnShopEffect
PUBLIC	?OnShopSound@ioClientAniEventHandler@@IAEXPBUAniEventTime@@PBVioAnimation@@@Z ; ioClientAniEventHandler::OnShopSound
;	COMDAT xdata$x
; File c:\program files (x86)\microsoft visual studio 10.0\vc\include\vector
xdata$x	SEGMENT
__unwindtable$?OnShopSound@ioClientAniEventHandler@@IAEXPBUAniEventTime@@PBVioAnimation@@@Z DD 0ffffffffH
	DD	FLAT:__unwindfunclet$?OnShopSound@ioClientAniEventHandler@@IAEXPBUAniEventTime@@PBVioAnimation@@@Z$0
__ehfuncinfo$?OnShopSound@ioClientAniEventHandler@@IAEXPBUAniEventTime@@PBVioAnimation@@@Z DD 019930522H
	DD	01H
	DD	FLAT:__unwindtable$?OnShopSound@ioClientAniEventHandler@@IAEXPBUAniEventTime@@PBVioAnimation@@@Z
	DD	2 DUP(00H)
	DD	2 DUP(00H)
	DD	00H
	DD	01H
; Function compile flags: /Ogsp
; File d:\lost saga for developer\youtube\tutorial\source\src\lsclient\ioclientanieventhandler.cpp
xdata$x	ENDS
;	COMDAT ?OnShopSound@ioClientAniEventHandler@@IAEXPBUAniEventTime@@PBVioAnimation@@@Z
_TEXT	SEGMENT
_kInfo$ = -56						; size = 36
$T538066 = -20						; size = 4
tv288 = -16						; size = 4
__$EHRec$ = -12						; size = 12
_pEvent$ = 8						; size = 4
_pNotifier$ = 12					; size = 4
?OnShopSound@ioClientAniEventHandler@@IAEXPBUAniEventTime@@PBVioAnimation@@@Z PROC ; ioClientAniEventHandler::OnShopSound, COMDAT
; _this$ = ecx

; 248  : {

  00000	6a 2c		 push	 44			; 0000002cH
  00002	b8 00 00 00 00	 mov	 eax, __ehhandler$?OnShopSound@ioClientAniEventHandler@@IAEXPBUAniEventTime@@PBVioAnimation@@@Z
  00007	e8 00 00 00 00	 call	 __EH_prolog3
  0000c	8b f9		 mov	 edi, ecx

; 249  : 	AniSoundEventInfoList::iterator iter = m_ShopSoundList.begin();
; 250  : 	while( iter != m_ShopSoundList.end() )

  0000e	8b 1d 00 00 00
	00		 mov	 ebx, DWORD PTR __imp_?GetSingleton@ioSoundManager@@SAAAV1@XZ
  00014	8d 47 2c	 lea	 eax, DWORD PTR [edi+44]
  00017	8b 30		 mov	 esi, DWORD PTR [eax]
  00019	89 45 f0	 mov	 DWORD PTR tv288[ebp], eax
  0001c	eb 39		 jmp	 SHORT $LN49@OnShopSoun
$LN4@OnShopSoun:

; 251  : 	{
; 252  : 		if( (*iter).m_EventName == pEvent->szSubInfo )

  0001e	8b 45 08	 mov	 eax, DWORD PTR _pEvent$[ebp]
  00021	83 c0 14	 add	 eax, 20			; 00000014H
  00024	8d 4e 10	 lea	 ecx, DWORD PTR [esi+16]
  00027	50		 push	 eax
  00028	ff 15 00 00 00
	00		 call	 DWORD PTR __imp_??8ioHashString@@QBE_NABV0@@Z
  0002e	84 c0		 test	 al, al
  00030	74 22		 je	 SHORT $LN2@OnShopSoun

; 253  : 		{
; 254  : 			g_SoundMgr.StopSound( (*iter).m_EventName, (*iter).m_SoundID );

  00032	ff 76 20	 push	 DWORD PTR [esi+32]
  00035	8d 46 10	 lea	 eax, DWORD PTR [esi+16]
  00038	50		 push	 eax
  00039	ff d3		 call	 ebx
  0003b	8b c8		 mov	 ecx, eax
  0003d	ff 15 00 00 00
	00		 call	 DWORD PTR __imp_?StopSound@ioSoundManager@@QAEXABVioHashString@@K@Z

; 255  : 			//g_SoundMgr.StopSound( (*iter).m_EventName, 0 );
; 256  : 			iter = m_ShopSoundList.erase( iter );

  00043	8b 4d f0	 mov	 ecx, DWORD PTR tv288[ebp]
  00046	56		 push	 esi
  00047	8d 45 ec	 lea	 eax, DWORD PTR $T538066[ebp]
  0004a	50		 push	 eax
  0004b	e8 00 00 00 00	 call	 ?erase@?$vector@UtagAniSoundEventInfo@@V?$allocator@UtagAniSoundEventInfo@@@std@@@std@@QAE?AV?$_Vector_iterator@V?$_Vector_val@UtagAniSoundEventInfo@@V?$allocator@UtagAniSoundEventInfo@@@std@@@std@@@2@V?$_Vector_const_iterator@V?$_Vector_val@UtagAniSoundEventInfo@@V?$allocator@UtagAniSoundEventInfo@@@std@@@std@@@2@@Z ; std::vector<tagAniSoundEventInfo,std::allocator<tagAniSoundEventInfo> >::erase
  00050	8b 30		 mov	 esi, DWORD PTR [eax]

; 257  : 		}
; 258  : 		else

  00052	eb 03		 jmp	 SHORT $LN49@OnShopSoun
$LN2@OnShopSoun:

; 259  : 		{
; 260  : 			++iter;

  00054	83 c6 24	 add	 esi, 36			; 00000024H
$LN49@OnShopSoun:

; 249  : 	AniSoundEventInfoList::iterator iter = m_ShopSoundList.begin();
; 250  : 	while( iter != m_ShopSoundList.end() )

  00057	3b 77 30	 cmp	 esi, DWORD PTR [edi+48]
  0005a	75 c2		 jne	 SHORT $LN4@OnShopSoun

; 261  : 		}
; 262  : 	}
; 263  : 
; 264  : 	UniqueObjID eSoundID = g_SoundMgr.PlaySound( pEvent->szSubInfo, m_pOwner->GetParentSceneNode() );

  0005c	8b 4f 04	 mov	 ecx, DWORD PTR [edi+4]
  0005f	8b 7d 08	 mov	 edi, DWORD PTR _pEvent$[ebp]
  00062	8b 01		 mov	 eax, DWORD PTR [ecx]
  00064	6a 04		 push	 4
  00066	83 c7 14	 add	 edi, 20			; 00000014H
  00069	ff 50 34	 call	 DWORD PTR [eax+52]
  0006c	50		 push	 eax
  0006d	57		 push	 edi
  0006e	ff d3		 call	 ebx
  00070	8b c8		 mov	 ecx, eax
  00072	ff 15 00 00 00
	00		 call	 DWORD PTR __imp_?PlaySoundA@ioSoundManager@@QAEKABVioHashString@@PAVioSceneNode@@K@Z

; 265  : 
; 266  : 	AniSoundEventInfo kInfo;

  00078	8d 4d c8	 lea	 ecx, DWORD PTR _kInfo$[ebp]
  0007b	8b d8		 mov	 ebx, eax
  0007d	e8 00 00 00 00	 call	 ??0tagAniSoundEventInfo@@QAE@XZ ; tagAniSoundEventInfo::tagAniSoundEventInfo

; 267  : 	kInfo.m_AniName = pNotifier->GetName();

  00082	8b 4d 0c	 mov	 ecx, DWORD PTR _pNotifier$[ebp]
  00085	83 65 fc 00	 and	 DWORD PTR __$EHRec$[ebp+8], 0
  00089	ff 15 00 00 00
	00		 call	 DWORD PTR __imp_?GetName@ioAnimation@@QBEABVioHashString@@XZ
  0008f	8b 35 00 00 00
	00		 mov	 esi, DWORD PTR __imp_??4ioHashString@@QAEAAV0@ABV0@@Z
  00095	50		 push	 eax
  00096	8d 4d c8	 lea	 ecx, DWORD PTR _kInfo$[ebp]
  00099	ff d6		 call	 esi

; 268  : 	kInfo.m_EventName = pEvent->szSubInfo;

  0009b	57		 push	 edi
  0009c	8d 4d d8	 lea	 ecx, DWORD PTR _kInfo$[ebp+16]
  0009f	ff d6		 call	 esi

; 269  : 	kInfo.m_SoundID = eSoundID;
; 270  : 
; 271  : 	m_ShopSoundList.push_back( kInfo );

  000a1	8b 4d f0	 mov	 ecx, DWORD PTR tv288[ebp]
  000a4	8d 45 c8	 lea	 eax, DWORD PTR _kInfo$[ebp]
  000a7	50		 push	 eax
  000a8	89 5d e8	 mov	 DWORD PTR _kInfo$[ebp+32], ebx
  000ab	e8 00 00 00 00	 call	 ?push_back@?$vector@UtagAniSoundEventInfo@@V?$allocator@UtagAniSoundEventInfo@@@std@@@std@@QAEXABUtagAniSoundEventInfo@@@Z ; std::vector<tagAniSoundEventInfo,std::allocator<tagAniSoundEventInfo> >::push_back

; 272  : }

  000b0	83 4d fc ff	 or	 DWORD PTR __$EHRec$[ebp+8], -1
  000b4	8d 4d c8	 lea	 ecx, DWORD PTR _kInfo$[ebp]
  000b7	e8 00 00 00 00	 call	 ??1tagAniSoundEventInfo@@QAE@XZ
  000bc	e8 00 00 00 00	 call	 __EH_epilog3
  000c1	c2 08 00	 ret	 8
_TEXT	ENDS
;	COMDAT text$x
text$x	SEGMENT
__unwindfunclet$?OnShopSound@ioClientAniEventHandler@@IAEXPBUAniEventTime@@PBVioAnimation@@@Z$0:
  00000	8d 4d c8	 lea	 ecx, DWORD PTR _kInfo$[ebp]
  00003	e9 00 00 00 00	 jmp	 ??1tagAniSoundEventInfo@@QAE@XZ
__ehhandler$?OnShopSound@ioClientAniEventHandler@@IAEXPBUAniEventTime@@PBVioAnimation@@@Z:
  00008	8b 54 24 08	 mov	 edx, DWORD PTR [esp+8]
  0000c	8d 42 0c	 lea	 eax, DWORD PTR [edx+12]
  0000f	8b 4a c4	 mov	 ecx, DWORD PTR [edx-60]
  00012	33 c8		 xor	 ecx, eax
  00014	e8 00 00 00 00	 call	 @__security_check_cookie@4
  00019	b8 00 00 00 00	 mov	 eax, OFFSET __ehfuncinfo$?OnShopSound@ioClientAniEventHandler@@IAEXPBUAniEventTime@@PBVioAnimation@@@Z
  0001e	e9 00 00 00 00	 jmp	 ___CxxFrameHandler3
text$x	ENDS
?OnShopSound@ioClientAniEventHandler@@IAEXPBUAniEventTime@@PBVioAnimation@@@Z ENDP ; ioClientAniEventHandler::OnShopSound
; Function compile flags: /Ogsp
;	COMDAT ?ClearAniEvent@ioClientAniEventHandler@@MAEXXZ
_TEXT	SEGMENT
$T538321 = -4						; size = 4
$T538241 = -4						; size = 4
?ClearAniEvent@ioClientAniEventHandler@@MAEXXZ PROC	; ioClientAniEventHandler::ClearAniEvent, COMDAT
; _this$ = ecx

; 349  : {

  00000	55		 push	 ebp
  00001	8b ec		 mov	 ebp, esp
  00003	51		 push	 ecx
  00004	56		 push	 esi
  00005	8b f1		 mov	 esi, ecx

; 350  : 	m_HideMeshList.clear();

  00007	8d 4e 08	 lea	 ecx, DWORD PTR [esi+8]
  0000a	8b 41 04	 mov	 eax, DWORD PTR [ecx+4]
  0000d	8b 11		 mov	 edx, DWORD PTR [ecx]
  0000f	50		 push	 eax
  00010	52		 push	 edx
  00011	8d 45 fc	 lea	 eax, DWORD PTR $T538241[ebp]
  00014	50		 push	 eax
  00015	e8 00 00 00 00	 call	 ?erase@?$vector@UAniEventInfo@@V?$allocator@UAniEventInfo@@@std@@@std@@QAE?AV?$_Vector_iterator@V?$_Vector_val@UAniEventInfo@@V?$allocator@UAniEventInfo@@@std@@@std@@@2@V?$_Vector_const_iterator@V?$_Vector_val@UAniEventInfo@@V?$allocator@UAniEventInfo@@@std@@@std@@@2@0@Z ; std::vector<AniEventInfo,std::allocator<AniEventInfo> >::erase

; 351  : 	m_HideMeshLinkEffectList.clear();

  0001a	8d 4e 3c	 lea	 ecx, DWORD PTR [esi+60]
  0001d	8b 41 04	 mov	 eax, DWORD PTR [ecx+4]
  00020	8b 11		 mov	 edx, DWORD PTR [ecx]
  00022	50		 push	 eax
  00023	52		 push	 edx
  00024	8d 45 fc	 lea	 eax, DWORD PTR $T538321[ebp]
  00027	50		 push	 eax
  00028	e8 00 00 00 00	 call	 ?erase@?$vector@UAniEventInfo@@V?$allocator@UAniEventInfo@@@std@@@std@@QAE?AV?$_Vector_iterator@V?$_Vector_val@UAniEventInfo@@V?$allocator@UAniEventInfo@@@std@@@std@@@2@V?$_Vector_const_iterator@V?$_Vector_val@UAniEventInfo@@V?$allocator@UAniEventInfo@@@std@@@std@@@2@0@Z ; std::vector<AniEventInfo,std::allocator<AniEventInfo> >::erase
  0002d	5e		 pop	 esi

; 352  : }

  0002e	c9		 leave
  0002f	c3		 ret	 0
?ClearAniEvent@ioClientAniEventHandler@@MAEXXZ ENDP	; ioClientAniEventHandler::ClearAniEvent
_TEXT	ENDS
;	COMDAT xdata$x
; File c:\program files (x86)\microsoft visual studio 10.0\vc\include\xutility
xdata$x	SEGMENT
__unwindtable$?ClearAniEffect@ioClientAniEventHandler@@MAEXXZ DD 0ffffffffH
	DD	FLAT:__unwindfunclet$?ClearAniEffect@ioClientAniEventHandler@@MAEXXZ$0
__ehfuncinfo$?ClearAniEffect@ioClientAniEventHandler@@MAEXXZ DD 019930522H
	DD	01H
	DD	FLAT:__unwindtable$?ClearAniEffect@ioClientAniEventHandler@@MAEXXZ
	DD	2 DUP(00H)
	DD	2 DUP(00H)
	DD	00H
	DD	01H
; Function compile flags: /Ogsp
; File d:\lost saga for developer\youtube\tutorial\source\src\lsclient\ioclientanieventhandler.cpp
xdata$x	ENDS
;	COMDAT ?ClearAniEffect@ioClientAniEventHandler@@MAEXXZ
_TEXT	SEGMENT
_kInfo$525841 = -48					; size = 32
$T538500 = -16						; size = 4
__$EHRec$ = -12						; size = 12
?ClearAniEffect@ioClientAniEventHandler@@MAEXXZ PROC	; ioClientAniEventHandler::ClearAniEffect, COMDAT
; _this$ = ecx

; 355  : {

  00000	6a 24		 push	 36			; 00000024H
  00002	b8 00 00 00 00	 mov	 eax, __ehhandler$?ClearAniEffect@ioClientAniEventHandler@@MAEXXZ
  00007	e8 00 00 00 00	 call	 __EH_prolog3
  0000c	8b f9		 mov	 edi, ecx

; 356  : 	if( !m_ShopEffectList.empty() )

  0000e	8b 47 1c	 mov	 eax, DWORD PTR [edi+28]
  00011	3b 47 20	 cmp	 eax, DWORD PTR [edi+32]
  00014	74 4a		 je	 SHORT $LN42@ClearAniEf

; 357  : 	{
; 358  : 		AniEventInfoList::iterator iter = m_ShopEffectList.begin();

  00016	8b d8		 mov	 ebx, eax
  00018	eb 2d		 jmp	 SHORT $LN63@ClearAniEf

; 359  : 		for( ; iter != m_ShopEffectList.end(); iter++ )

$LL22@ClearAniEf:

; 360  : 		{
; 361  : 			AniEventInfo kInfo = *iter;

  0001a	53		 push	 ebx
  0001b	8d 4d d0	 lea	 ecx, DWORD PTR _kInfo$525841[ebp]
  0001e	e8 00 00 00 00	 call	 ??0AniEventInfo@@QAE@ABU0@@Z

; 362  : 			m_pOwner->EndEffect( kInfo.m_EventName, false );

  00023	8b 4f 04	 mov	 ecx, DWORD PTR [edi+4]
  00026	83 65 fc 00	 and	 DWORD PTR __$EHRec$[ebp+8], 0
  0002a	6a 01		 push	 1
  0002c	6a 00		 push	 0
  0002e	8d 45 e0	 lea	 eax, DWORD PTR _kInfo$525841[ebp+16]
  00031	50		 push	 eax
  00032	ff 15 00 00 00
	00		 call	 DWORD PTR __imp_?EndEffect@ioEntityGroup@@QAEXABVioHashString@@_N1@Z

; 363  : 		}

  00038	83 4d fc ff	 or	 DWORD PTR __$EHRec$[ebp+8], -1
  0003c	8d 4d d0	 lea	 ecx, DWORD PTR _kInfo$525841[ebp]
  0003f	e8 00 00 00 00	 call	 ??1AniEventInfo@@QAE@XZ
  00044	83 c3 20	 add	 ebx, 32			; 00000020H
$LN63@ClearAniEf:

; 359  : 		for( ; iter != m_ShopEffectList.end(); iter++ )

  00047	3b 5f 20	 cmp	 ebx, DWORD PTR [edi+32]
  0004a	75 ce		 jne	 SHORT $LL22@ClearAniEf

; 364  : 		m_ShopEffectList.clear();

  0004c	8b 47 20	 mov	 eax, DWORD PTR [edi+32]
  0004f	8b 4f 1c	 mov	 ecx, DWORD PTR [edi+28]
  00052	50		 push	 eax
  00053	51		 push	 ecx
  00054	8d 45 f0	 lea	 eax, DWORD PTR $T538500[ebp]
  00057	50		 push	 eax
  00058	8d 4f 1c	 lea	 ecx, DWORD PTR [edi+28]
  0005b	e8 00 00 00 00	 call	 ?erase@?$vector@UAniEventInfo@@V?$allocator@UAniEventInfo@@@std@@@std@@QAE?AV?$_Vector_iterator@V?$_Vector_val@UAniEventInfo@@V?$allocator@UAniEventInfo@@@std@@@std@@@2@V?$_Vector_const_iterator@V?$_Vector_val@UAniEventInfo@@V?$allocator@UAniEventInfo@@@std@@@std@@@2@0@Z ; std::vector<AniEventInfo,std::allocator<AniEventInfo> >::erase
$LN42@ClearAniEf:

; 365  : 	}
; 366  : }

  00060	e8 00 00 00 00	 call	 __EH_epilog3
  00065	c3		 ret	 0
_TEXT	ENDS
;	COMDAT text$x
text$x	SEGMENT
__unwindfunclet$?ClearAniEffect@ioClientAniEventHandler@@MAEXXZ$0:
  00000	8d 4d d0	 lea	 ecx, DWORD PTR _kInfo$525841[ebp]
  00003	e9 00 00 00 00	 jmp	 ??1AniEventInfo@@QAE@XZ
__ehhandler$?ClearAniEffect@ioClientAniEventHandler@@MAEXXZ:
  00008	8b 54 24 08	 mov	 edx, DWORD PTR [esp+8]
  0000c	8d 42 0c	 lea	 eax, DWORD PTR [edx+12]
  0000f	8b 4a cc	 mov	 ecx, DWORD PTR [edx-52]
  00012	33 c8		 xor	 ecx, eax
  00014	e8 00 00 00 00	 call	 @__security_check_cookie@4
  00019	b8 00 00 00 00	 mov	 eax, OFFSET __ehfuncinfo$?ClearAniEffect@ioClientAniEventHandler@@MAEXXZ
  0001e	e9 00 00 00 00	 jmp	 ___CxxFrameHandler3
text$x	ENDS
?ClearAniEffect@ioClientAniEventHandler@@MAEXXZ ENDP	; ioClientAniEventHandler::ClearAniEffect
PUBLIC	?ShowMesh@ioClientAniEventHandler@@IAEXABVioHashString@@0PBVioAnimation@@@Z ; ioClientAniEventHandler::ShowMesh
;	COMDAT xdata$x
; File c:\program files (x86)\microsoft visual studio 10.0\vc\include\vector
xdata$x	SEGMENT
__unwindtable$?ShowMesh@ioClientAniEventHandler@@IAEXABVioHashString@@0PBVioAnimation@@@Z DD 0ffffffffH
	DD	FLAT:__unwindfunclet$?ShowMesh@ioClientAniEventHandler@@IAEXABVioHashString@@0PBVioAnimation@@@Z$0
	DD	00H
	DD	FLAT:__unwindfunclet$?ShowMesh@ioClientAniEventHandler@@IAEXABVioHashString@@0PBVioAnimation@@@Z$1
	DD	00H
	DD	FLAT:__unwindfunclet$?ShowMesh@ioClientAniEventHandler@@IAEXABVioHashString@@0PBVioAnimation@@@Z$2
__ehfuncinfo$?ShowMesh@ioClientAniEventHandler@@IAEXABVioHashString@@0PBVioAnimation@@@Z DD 019930522H
	DD	03H
	DD	FLAT:__unwindtable$?ShowMesh@ioClientAniEventHandler@@IAEXABVioHashString@@0PBVioAnimation@@@Z
	DD	2 DUP(00H)
	DD	2 DUP(00H)
	DD	00H
	DD	01H
; Function compile flags: /Ogsp
; File d:\lost saga for developer\youtube\tutorial\source\src\lsclient\ioclientanieventhandler.cpp
xdata$x	ENDS
;	COMDAT ?ShowMesh@ioClientAniEventHandler@@IAEXABVioHashString@@0PBVioAnimation@@@Z
_TEXT	SEGMENT
_szNewMeshName$526981 = -328				; size = 16
$T538542 = -312						; size = 1
$T538535 = -312						; size = 4
_iter$527139 = -312					; size = 4
_szFullName$526984 = -308				; size = 260
_kInfo$527145 = -48					; size = 32
___encStr$526988 = -44					; size = 21
$T538530 = -32						; size = 16
__$EHRec$ = -12						; size = 12
_rkMeshName$ = 8					; size = 4
_rkEffectName$ = 12					; size = 4
_pNotifier$ = 16					; size = 4
?ShowMesh@ioClientAniEventHandler@@IAEXABVioHashString@@0PBVioAnimation@@@Z PROC ; ioClientAniEventHandler::ShowMesh, COMDAT
; _this$ = ecx

; 716  : {

  00000	68 3c 01 00 00	 push	 316			; 0000013cH
  00005	b8 00 00 00 00	 mov	 eax, __ehhandler$?ShowMesh@ioClientAniEventHandler@@IAEXABVioHashString@@0PBVioAnimation@@@Z
  0000a	e8 00 00 00 00	 call	 __EH_prolog3_GS

; 717  : 	ShowMeshLinkEffect( rkEffectName, pNotifier );

  0000f	ff 75 10	 push	 DWORD PTR _pNotifier$[ebp]
  00012	8b 45 0c	 mov	 eax, DWORD PTR _rkEffectName$[ebp]
  00015	8b 7d 08	 mov	 edi, DWORD PTR _rkMeshName$[ebp]
  00018	50		 push	 eax
  00019	8b f1		 mov	 esi, ecx
  0001b	e8 00 00 00 00	 call	 ?ShowMeshLinkEffect@ioClientAniEventHandler@@IAEXABVioHashString@@PBVioAnimation@@@Z ; ioClientAniEventHandler::ShowMeshLinkEffect

; 718  : 
; 719  : 	if( !rkMeshName.IsEmpty() )

  00020	8b cf		 mov	 ecx, edi
  00022	ff 15 00 00 00
	00		 call	 DWORD PTR __imp_?IsEmpty@ioHashString@@QBE_NXZ
  00028	84 c0		 test	 al, al
  0002a	0f 85 8e 01 00
	00		 jne	 $LN108@ShowMesh

; 720  : 	{
; 721  : 		// 
; 722  : 		ioHashString szNewMeshName = Help::ConvertName( rkMeshName, m_pChar->IsMale() );

  00030	8b 46 18	 mov	 eax, DWORD PTR [esi+24]
  00033	8a 80 20 03 00
	00		 mov	 al, BYTE PTR [eax+800]
  00039	88 85 c8 fe ff
	ff		 mov	 BYTE PTR $T538542[ebp], al
  0003f	ff b5 c8 fe ff
	ff		 push	 DWORD PTR $T538542[ebp]
  00045	8d 85 b8 fe ff
	ff		 lea	 eax, DWORD PTR _szNewMeshName$526981[ebp]
  0004b	57		 push	 edi
  0004c	50		 push	 eax
  0004d	e8 00 00 00 00	 call	 ?ConvertName@Help@@YA?AVioHashString@@ABV2@_N@Z ; Help::ConvertName
  00052	83 c4 0c	 add	 esp, 12			; 0000000cH

; 723  : 		if( !m_pChar->IsMale() )

  00055	8b 46 18	 mov	 eax, DWORD PTR [esi+24]
  00058	8a 80 20 03 00
	00		 mov	 al, BYTE PTR [eax+800]
  0005e	33 db		 xor	 ebx, ebx
  00060	89 5d fc	 mov	 DWORD PTR __$EHRec$[ebp+8], ebx
  00063	3a c3		 cmp	 al, bl
  00065	0f 85 be 00 00
	00		 jne	 $LN7@ShowMesh

; 724  : 		{
; 725  : 			char szFullName[MAX_PATH]="";

  0006b	68 03 01 00 00	 push	 259			; 00000103H
  00070	8d 85 cd fe ff
	ff		 lea	 eax, DWORD PTR _szFullName$526984[ebp+1]
  00076	53		 push	 ebx
  00077	50		 push	 eax
  00078	88 9d cc fe ff
	ff		 mov	 BYTE PTR _szFullName$526984[ebp], bl
  0007e	e8 00 00 00 00	 call	 _memset
  00083	83 c4 0c	 add	 esp, 12			; 0000000cH
  00086	6a 05		 push	 5

; 726  : 			StringCbPrintf_e( szFullName, sizeof( szFullName ), "resource\\mesh\\%s.msh" , szNewMeshName.c_str() );

  00088	c7 45 d4 9f 89
	98 85		 mov	 DWORD PTR ___encStr$526988[ebp], -2053600865 ; 8598899fH
  0008f	c7 45 d8 98 9e
	88 8f		 mov	 DWORD PTR ___encStr$526988[ebp+4], -1886871912 ; 8f889e98H
  00096	c7 45 dc b1 81
	8e 99		 mov	 DWORD PTR ___encStr$526988[ebp+8], -1718713935 ; 998e81b1H
  0009d	c7 45 e0 85 b0
	ce 99		 mov	 DWORD PTR ___encStr$526988[ebp+12], -1714507643 ; 99ceb085H
  000a4	c7 45 e4 c3 81
	98 82		 mov	 DWORD PTR ___encStr$526988[ebp+16], -2103934525 ; 829881c3H
  000ab	8d 45 d4	 lea	 eax, DWORD PTR ___encStr$526988[ebp]
  000ae	88 5d e8	 mov	 BYTE PTR ___encStr$526988[ebp+20], bl
  000b1	59		 pop	 ecx
$LL123@ShowMesh:
  000b2	81 30 ed ec eb
	ea		 xor	 DWORD PTR [eax], -353637139 ; eaebecedH
  000b8	83 c0 04	 add	 eax, 4
  000bb	49		 dec	 ecx
  000bc	75 f4		 jne	 SHORT $LL123@ShowMesh
  000be	8d 8d b8 fe ff
	ff		 lea	 ecx, DWORD PTR _szNewMeshName$526981[ebp]
  000c4	ff 15 00 00 00
	00		 call	 DWORD PTR __imp_?c_str@ioHashString@@QBEPBDXZ
  000ca	50		 push	 eax
  000cb	8d 45 d4	 lea	 eax, DWORD PTR ___encStr$526988[ebp]
  000ce	50		 push	 eax
  000cf	8d 85 cc fe ff
	ff		 lea	 eax, DWORD PTR _szFullName$526984[ebp]
  000d5	68 04 01 00 00	 push	 260			; 00000104H
  000da	50		 push	 eax
  000db	e8 00 00 00 00	 call	 ?StringCbPrintfA@@YAJPADIPBDZZ ; StringCbPrintfA
  000e0	83 c4 10	 add	 esp, 16			; 00000010H

; 727  : 			if( !g_ResourceLoader.IsFileExist( szFullName ) )

  000e3	8d 85 cc fe ff
	ff		 lea	 eax, DWORD PTR _szFullName$526984[ebp]
  000e9	53		 push	 ebx
  000ea	50		 push	 eax
  000eb	ff 15 00 00 00
	00		 call	 DWORD PTR __imp_?GetInstance@ioResourceLoader@@SAAAV1@XZ
  000f1	8b c8		 mov	 ecx, eax
  000f3	ff 15 00 00 00
	00		 call	 DWORD PTR __imp_?IsFileExist@ioResourceLoader@@QAE_NPBD_N@Z
  000f9	84 c0		 test	 al, al
  000fb	75 2c		 jne	 SHORT $LN7@ShowMesh

; 728  : 			{
; 729  : 				szNewMeshName = Help::ConvertName( rkMeshName, true );

  000fd	6a 01		 push	 1
  000ff	8d 45 e0	 lea	 eax, DWORD PTR $T538530[ebp]
  00102	57		 push	 edi
  00103	50		 push	 eax
  00104	e8 00 00 00 00	 call	 ?ConvertName@Help@@YA?AVioHashString@@ABV2@_N@Z ; Help::ConvertName
  00109	83 c4 0c	 add	 esp, 12			; 0000000cH
  0010c	50		 push	 eax
  0010d	8d 8d b8 fe ff
	ff		 lea	 ecx, DWORD PTR _szNewMeshName$526981[ebp]
  00113	c6 45 fc 01	 mov	 BYTE PTR __$EHRec$[ebp+8], 1
  00117	ff 15 00 00 00
	00		 call	 DWORD PTR __imp_??4ioHashString@@QAEAAV0@ABV0@@Z
  0011d	8d 4d e0	 lea	 ecx, DWORD PTR $T538530[ebp]
  00120	88 5d fc	 mov	 BYTE PTR __$EHRec$[ebp+8], bl
  00123	ff 15 00 00 00
	00		 call	 DWORD PTR __imp_??1ioHashString@@QAE@XZ
$LN7@ShowMesh:

; 730  : 			}
; 731  : 		}
; 732  : 
; 733  : 		m_pOwner->SetEntityVisible( szNewMeshName, true );

  00129	8b 4e 04	 mov	 ecx, DWORD PTR [esi+4]
  0012c	6a 01		 push	 1
  0012e	8d 85 b8 fe ff
	ff		 lea	 eax, DWORD PTR _szNewMeshName$526981[ebp]
  00134	50		 push	 eax
  00135	ff 15 00 00 00
	00		 call	 DWORD PTR __imp_?SetEntityVisible@ioEntityGroup@@QAEXABVioHashString@@_N@Z

; 734  : 
; 735  : 		if( !m_HideMeshList.empty() )

  0013b	8b 46 08	 mov	 eax, DWORD PTR [esi+8]
  0013e	3b 46 0c	 cmp	 eax, DWORD PTR [esi+12]
  00141	74 6b		 je	 SHORT $LN1@ShowMesh

; 736  : 		{
; 737  : 			AniEventInfoList::iterator iter;
; 738  : 
; 739  : 			for( iter=m_HideMeshList.begin(); iter != m_HideMeshList.end(); ++iter )

  00143	89 85 c8 fe ff
	ff		 mov	 DWORD PTR _iter$527139[ebp], eax
$LN142@ShowMesh:

; 740  : 			{
; 741  : 				AniEventInfo kInfo = *iter;

  00149	ff b5 c8 fe ff
	ff		 push	 DWORD PTR _iter$527139[ebp]
  0014f	8d 4d d0	 lea	 ecx, DWORD PTR _kInfo$527145[ebp]
  00152	e8 00 00 00 00	 call	 ??0AniEventInfo@@QAE@ABU0@@Z

; 742  : 
; 743  : 				if( szNewMeshName == kInfo.m_EventName )

  00157	8d 45 e0	 lea	 eax, DWORD PTR _kInfo$527145[ebp+16]
  0015a	50		 push	 eax
  0015b	8d 8d b8 fe ff
	ff		 lea	 ecx, DWORD PTR _szNewMeshName$526981[ebp]
  00161	c6 45 fc 02	 mov	 BYTE PTR __$EHRec$[ebp+8], 2
  00165	ff 15 00 00 00
	00		 call	 DWORD PTR __imp_??8ioHashString@@QBE_NABV0@@Z

; 745  : 			}

  0016b	88 5d fc	 mov	 BYTE PTR __$EHRec$[ebp+8], bl
  0016e	8d 4d d0	 lea	 ecx, DWORD PTR _kInfo$527145[ebp]
  00171	84 c0		 test	 al, al
  00173	75 19		 jne	 SHORT $LN179@ShowMesh
  00175	e8 00 00 00 00	 call	 ??1AniEventInfo@@QAE@XZ
  0017a	83 85 c8 fe ff
	ff 20		 add	 DWORD PTR _iter$527139[ebp], 32 ; 00000020H
  00181	8b 85 c8 fe ff
	ff		 mov	 eax, DWORD PTR _iter$527139[ebp]
  00187	3b 46 0c	 cmp	 eax, DWORD PTR [esi+12]
  0018a	75 bd		 jne	 SHORT $LN142@ShowMesh

; 742  : 
; 743  : 				if( szNewMeshName == kInfo.m_EventName )

  0018c	eb 05		 jmp	 SHORT $LN3@ShowMesh
$LN179@ShowMesh:

; 744  : 					break;

  0018e	e8 00 00 00 00	 call	 ??1AniEventInfo@@QAE@XZ
$LN3@ShowMesh:

; 746  : 
; 747  : 			if( iter != m_HideMeshList.end() )

  00193	8b 85 c8 fe ff
	ff		 mov	 eax, DWORD PTR _iter$527139[ebp]
  00199	3b 46 0c	 cmp	 eax, DWORD PTR [esi+12]
  0019c	74 10		 je	 SHORT $LN1@ShowMesh

; 748  : 			{
; 749  : 				m_HideMeshList.erase( iter );

  0019e	50		 push	 eax
  0019f	8d 85 c8 fe ff
	ff		 lea	 eax, DWORD PTR $T538535[ebp]
  001a5	50		 push	 eax
  001a6	8d 4e 08	 lea	 ecx, DWORD PTR [esi+8]
  001a9	e8 00 00 00 00	 call	 ?erase@?$vector@UAniEventInfo@@V?$allocator@UAniEventInfo@@@std@@@std@@QAE?AV?$_Vector_iterator@V?$_Vector_val@UAniEventInfo@@V?$allocator@UAniEventInfo@@@std@@@std@@@2@V?$_Vector_const_iterator@V?$_Vector_val@UAniEventInfo@@V?$allocator@UAniEventInfo@@@std@@@std@@@2@@Z ; std::vector<AniEventInfo,std::allocator<AniEventInfo> >::erase
$LN1@ShowMesh:

; 750  : 			}
; 751  : 		}
; 752  : 	}	

  001ae	83 4d fc ff	 or	 DWORD PTR __$EHRec$[ebp+8], -1
  001b2	8d 8d b8 fe ff
	ff		 lea	 ecx, DWORD PTR _szNewMeshName$526981[ebp]
  001b8	ff 15 00 00 00
	00		 call	 DWORD PTR __imp_??1ioHashString@@QAE@XZ
$LN108@ShowMesh:

; 753  : }

  001be	e8 00 00 00 00	 call	 __EH_epilog3_GS
  001c3	c2 0c 00	 ret	 12			; 0000000cH
_TEXT	ENDS
;	COMDAT text$x
text$x	SEGMENT
__unwindfunclet$?ShowMesh@ioClientAniEventHandler@@IAEXABVioHashString@@0PBVioAnimation@@@Z$0:
  00000	8d 8d b8 fe ff
	ff		 lea	 ecx, DWORD PTR _szNewMeshName$526981[ebp]
  00006	ff 25 00 00 00
	00		 jmp	 DWORD PTR __imp_??1ioHashString@@QAE@XZ
__unwindfunclet$?ShowMesh@ioClientAniEventHandler@@IAEXABVioHashString@@0PBVioAnimation@@@Z$1:
  0000c	8d 4d e0	 lea	 ecx, DWORD PTR $T538530[ebp]
  0000f	ff 25 00 00 00
	00		 jmp	 DWORD PTR __imp_??1ioHashString@@QAE@XZ
__unwindfunclet$?ShowMesh@ioClientAniEventHandler@@IAEXABVioHashString@@0PBVioAnimation@@@Z$2:
  00015	8d 4d d0	 lea	 ecx, DWORD PTR _kInfo$527145[ebp]
  00018	e9 00 00 00 00	 jmp	 ??1AniEventInfo@@QAE@XZ
__ehhandler$?ShowMesh@ioClientAniEventHandler@@IAEXABVioHashString@@0PBVioAnimation@@@Z:
  0001d	8b 54 24 08	 mov	 edx, DWORD PTR [esp+8]
  00021	8d 42 0c	 lea	 eax, DWORD PTR [edx+12]
  00024	8b 8a b4 fe ff
	ff		 mov	 ecx, DWORD PTR [edx-332]
  0002a	33 c8		 xor	 ecx, eax
  0002c	e8 00 00 00 00	 call	 @__security_check_cookie@4
  00031	8b 4a fc	 mov	 ecx, DWORD PTR [edx-4]
  00034	33 c8		 xor	 ecx, eax
  00036	e8 00 00 00 00	 call	 @__security_check_cookie@4
  0003b	b8 00 00 00 00	 mov	 eax, OFFSET __ehfuncinfo$?ShowMesh@ioClientAniEventHandler@@IAEXABVioHashString@@0PBVioAnimation@@@Z
  00040	e9 00 00 00 00	 jmp	 ___CxxFrameHandler3
text$x	ENDS
?ShowMesh@ioClientAniEventHandler@@IAEXABVioHashString@@0PBVioAnimation@@@Z ENDP ; ioClientAniEventHandler::ShowMesh
PUBLIC	??_C@_00CNPNBAHC@?$AA@				; `string'
PUBLIC	?OnShowHairMesh@ioClientAniEventHandler@@IAEXPBUAniEventTime@@PBVioAnimation@@@Z ; ioClientAniEventHandler::OnShowHairMesh
;	COMDAT ??_C@_00CNPNBAHC@?$AA@
; File d:\lost saga for developer\youtube\tutorial\source\src\lsclient\iogameentity.h
CONST	SEGMENT
??_C@_00CNPNBAHC@?$AA@ DB 00H				; `string'
CONST	ENDS
;	COMDAT xdata$x
xdata$x	SEGMENT
__unwindtable$?OnShowHairMesh@ioClientAniEventHandler@@IAEXPBUAniEventTime@@PBVioAnimation@@@Z DD 0ffffffffH
	DD	FLAT:__unwindfunclet$?OnShowHairMesh@ioClientAniEventHandler@@IAEXPBUAniEventTime@@PBVioAnimation@@@Z$0
__ehfuncinfo$?OnShowHairMesh@ioClientAniEventHandler@@IAEXPBUAniEventTime@@PBVioAnimation@@@Z DD 019930522H
	DD	01H
	DD	FLAT:__unwindtable$?OnShowHairMesh@ioClientAniEventHandler@@IAEXPBUAniEventTime@@PBVioAnimation@@@Z
	DD	2 DUP(00H)
	DD	2 DUP(00H)
	DD	00H
	DD	01H
; Function compile flags: /Ogsp
; File d:\lost saga for developer\youtube\tutorial\source\src\lsclient\ioclientanieventhandler.cpp
xdata$x	ENDS
;	COMDAT ?OnShowHairMesh@ioClientAniEventHandler@@IAEXPBUAniEventTime@@PBVioAnimation@@@Z
_TEXT	SEGMENT
$T538713 = -28						; size = 16
__$EHRec$ = -12						; size = 12
_pEvent$ = 8						; size = 4
_pNotifier$ = 12					; size = 4
?OnShowHairMesh@ioClientAniEventHandler@@IAEXPBUAniEventTime@@PBVioAnimation@@@Z PROC ; ioClientAniEventHandler::OnShowHairMesh, COMDAT
; _this$ = ecx

; 830  : {

  00000	6a 10		 push	 16			; 00000010H
  00002	b8 00 00 00 00	 mov	 eax, __ehhandler$?OnShowHairMesh@ioClientAniEventHandler@@IAEXPBUAniEventTime@@PBVioAnimation@@@Z
  00007	e8 00 00 00 00	 call	 __EH_prolog3
  0000c	8b f9		 mov	 edi, ecx

; 831  : 	if( !m_pChar || !m_pChar->GetGroup() || !m_pChar->GetEquipSlot() )

  0000e	8b 47 18	 mov	 eax, DWORD PTR [edi+24]
  00011	85 c0		 test	 eax, eax
  00013	0f 84 a1 00 00
	00		 je	 $LN4@OnShowHair
  00019	83 78 04 00	 cmp	 DWORD PTR [eax+4], 0
  0001d	0f 84 97 00 00
	00		 je	 $LN4@OnShowHair
  00023	83 b8 48 03 00
	00 00		 cmp	 DWORD PTR [eax+840], 0
  0002a	0f 84 8a 00 00
	00		 je	 $LN4@OnShowHair

; 832  : 		return;
; 833  : 
; 834  : 	ioEntity *pHair =m_pChar->GetGroup()->GetEntity( m_pChar->GetEquipSlot()->GetDefaultHairMesh() );

  00030	8b 90 48 03 00
	00		 mov	 edx, DWORD PTR [eax+840]
  00036	8b 48 04	 mov	 ecx, DWORD PTR [eax+4]
  00039	8b 35 00 00 00
	00		 mov	 esi, DWORD PTR __imp_?GetEntity@ioEntityGroup@@QAEPAVioEntity@@ABVioHashString@@@Z
  0003f	81 c2 ec 00 00
	00		 add	 edx, 236		; 000000ecH
  00045	52		 push	 edx
  00046	ff d6		 call	 esi
  00048	8b d8		 mov	 ebx, eax

; 835  : 	if( !pHair )

  0004a	85 db		 test	 ebx, ebx
  0004c	75 36		 jne	 SHORT $LN31@OnShowHair

; 836  : 	{
; 837  : 		pHair = m_pChar->GetGroup()->GetEntity( m_pChar->GetEquipSlot()->GetDefaultBindHairMesh() );

  0004e	8b 47 18	 mov	 eax, DWORD PTR [edi+24]
  00051	8b 90 48 03 00
	00		 mov	 edx, DWORD PTR [eax+840]
  00057	8b 48 04	 mov	 ecx, DWORD PTR [eax+4]
  0005a	81 c2 fc 00 00
	00		 add	 edx, 252		; 000000fcH
  00060	52		 push	 edx
  00061	ff d6		 call	 esi
  00063	8b d8		 mov	 ebx, eax

; 838  : 
; 839  : 		if( !pHair )

  00065	85 db		 test	 ebx, ebx
  00067	75 1b		 jne	 SHORT $LN31@OnShowHair

; 840  : 			pHair = m_pChar->GetGroup()->GetEntity( m_pChar->GetEquipSlot()->GetDefaultHalfHairMesh() );

  00069	8b 47 18	 mov	 eax, DWORD PTR [edi+24]
  0006c	8b 90 48 03 00
	00		 mov	 edx, DWORD PTR [eax+840]
  00072	8b 48 04	 mov	 ecx, DWORD PTR [eax+4]
  00075	81 c2 0c 01 00
	00		 add	 edx, 268		; 0000010cH
  0007b	52		 push	 edx
  0007c	ff d6		 call	 esi
  0007e	8b d8		 mov	 ebx, eax

; 841  : 	}
; 842  : 
; 843  : 	if( !pHair )

  00080	85 db		 test	 ebx, ebx
  00082	74 36		 je	 SHORT $LN4@OnShowHair
$LN31@OnShowHair:

; 844  : 		return;//???
; 845  : 
; 846  : 	ShowMesh( pHair->GetMeshName(), "", pNotifier );

  00084	68 00 00 00 00	 push	 OFFSET ??_C@_00CNPNBAHC@?$AA@
  00089	8d 4d e4	 lea	 ecx, DWORD PTR $T538713[ebp]
  0008c	ff 15 00 00 00
	00		 call	 DWORD PTR __imp_??0ioHashString@@QAE@PBD@Z
  00092	ff 75 0c	 push	 DWORD PTR _pNotifier$[ebp]
  00095	83 65 fc 00	 and	 DWORD PTR __$EHRec$[ebp+8], 0
  00099	8d 45 e4	 lea	 eax, DWORD PTR $T538713[ebp]
  0009c	50		 push	 eax
  0009d	8b cb		 mov	 ecx, ebx
  0009f	ff 15 00 00 00
	00		 call	 DWORD PTR __imp_?GetMeshName@ioEntity@@QBEABVioHashString@@XZ
  000a5	50		 push	 eax
  000a6	8b cf		 mov	 ecx, edi
  000a8	e8 00 00 00 00	 call	 ?ShowMesh@ioClientAniEventHandler@@IAEXABVioHashString@@0PBVioAnimation@@@Z ; ioClientAniEventHandler::ShowMesh
  000ad	83 4d fc ff	 or	 DWORD PTR __$EHRec$[ebp+8], -1
  000b1	8d 4d e4	 lea	 ecx, DWORD PTR $T538713[ebp]
  000b4	ff 15 00 00 00
	00		 call	 DWORD PTR __imp_??1ioHashString@@QAE@XZ
$LN4@OnShowHair:

; 847  : }

  000ba	e8 00 00 00 00	 call	 __EH_epilog3
  000bf	c2 08 00	 ret	 8
_TEXT	ENDS
;	COMDAT text$x
text$x	SEGMENT
__unwindfunclet$?OnShowHairMesh@ioClientAniEventHandler@@IAEXPBUAniEventTime@@PBVioAnimation@@@Z$0:
  00000	8d 4d e4	 lea	 ecx, DWORD PTR $T538713[ebp]
  00003	ff 25 00 00 00
	00		 jmp	 DWORD PTR __imp_??1ioHashString@@QAE@XZ
__ehhandler$?OnShowHairMesh@ioClientAniEventHandler@@IAEXPBUAniEventTime@@PBVioAnimation@@@Z:
  00009	8b 54 24 08	 mov	 edx, DWORD PTR [esp+8]
  0000d	8d 42 0c	 lea	 eax, DWORD PTR [edx+12]
  00010	8b 4a e0	 mov	 ecx, DWORD PTR [edx-32]
  00013	33 c8		 xor	 ecx, eax
  00015	e8 00 00 00 00	 call	 @__security_check_cookie@4
  0001a	b8 00 00 00 00	 mov	 eax, OFFSET __ehfuncinfo$?OnShowHairMesh@ioClientAniEventHandler@@IAEXPBUAniEventTime@@PBVioAnimation@@@Z
  0001f	e9 00 00 00 00	 jmp	 ___CxxFrameHandler3
text$x	ENDS
?OnShowHairMesh@ioClientAniEventHandler@@IAEXPBUAniEventTime@@PBVioAnimation@@@Z ENDP ; ioClientAniEventHandler::OnShowHairMesh
PUBLIC	?HideMeshLinkEffect@ioClientAniEventHandler@@IAEXABVioHashString@@PBVioAnimation@@@Z ; ioClientAniEventHandler::HideMeshLinkEffect
EXTRN	?EndEffect@ioBaseChar@@QAEXABVioHashString@@_N1@Z:PROC ; ioBaseChar::EndEffect
;	COMDAT xdata$x
xdata$x	SEGMENT
__unwindtable$?HideMeshLinkEffect@ioClientAniEventHandler@@IAEXABVioHashString@@PBVioAnimation@@@Z DD 0ffffffffH
	DD	FLAT:__unwindfunclet$?HideMeshLinkEffect@ioClientAniEventHandler@@IAEXABVioHashString@@PBVioAnimation@@@Z$1
	DD	0ffffffffH
	DD	FLAT:__unwindfunclet$?HideMeshLinkEffect@ioClientAniEventHandler@@IAEXABVioHashString@@PBVioAnimation@@@Z$0
__ehfuncinfo$?HideMeshLinkEffect@ioClientAniEventHandler@@IAEXABVioHashString@@PBVioAnimation@@@Z DD 019930522H
	DD	02H
	DD	FLAT:__unwindtable$?HideMeshLinkEffect@ioClientAniEventHandler@@IAEXABVioHashString@@PBVioAnimation@@@Z
	DD	2 DUP(00H)
	DD	2 DUP(00H)
	DD	00H
	DD	01H
; Function compile flags: /Ogsp
xdata$x	ENDS
;	COMDAT ?HideMeshLinkEffect@ioClientAniEventHandler@@IAEXABVioHashString@@PBVioAnimation@@@Z
_TEXT	SEGMENT
_kInfo$ = -44						; size = 32
__$EHRec$ = -12						; size = 12
_rkEffectName$ = 8					; size = 4
_pNotifier$ = 12					; size = 4
?HideMeshLinkEffect@ioClientAniEventHandler@@IAEXABVioHashString@@PBVioAnimation@@@Z PROC ; ioClientAniEventHandler::HideMeshLinkEffect, COMDAT
; _this$ = ecx

; 967  : {

  00000	6a 20		 push	 32			; 00000020H
  00002	b8 00 00 00 00	 mov	 eax, __ehhandler$?HideMeshLinkEffect@ioClientAniEventHandler@@IAEXABVioHashString@@PBVioAnimation@@@Z
  00007	e8 00 00 00 00	 call	 __EH_prolog3
  0000c	8b f1		 mov	 esi, ecx

; 968  : 	if( rkEffectName.IsEmpty() )

  0000e	8b 4d 08	 mov	 ecx, DWORD PTR _rkEffectName$[ebp]
  00011	ff 15 00 00 00
	00		 call	 DWORD PTR __imp_?IsEmpty@ioHashString@@QBE_NXZ
  00017	84 c0		 test	 al, al
  00019	75 7d		 jne	 SHORT $LN7@HideMeshLi

; 969  : 		return;
; 970  : 
; 971  : 	m_pChar->EndEffect( rkEffectName, false );

  0001b	8b 4e 18	 mov	 ecx, DWORD PTR [esi+24]
  0001e	6a 01		 push	 1
  00020	6a 00		 push	 0
  00022	ff 75 08	 push	 DWORD PTR _rkEffectName$[ebp]
  00025	e8 00 00 00 00	 call	 ?EndEffect@ioBaseChar@@QAEXABVioHashString@@_N1@Z ; ioBaseChar::EndEffect

; 972  : 
; 973  : 	bool bFind = false;
; 974  : 	AniEventInfoList::iterator iter = m_HideMeshLinkEffectList.begin();

  0002a	8d 7e 3c	 lea	 edi, DWORD PTR [esi+60]
  0002d	8b 1f		 mov	 ebx, DWORD PTR [edi]
  0002f	eb 13		 jmp	 SHORT $LN51@HideMeshLi
$LL5@HideMeshLi:

; 976  : 	{
; 977  : 		if( (*iter).m_EventName == rkEffectName )

  00031	ff 75 08	 push	 DWORD PTR _rkEffectName$[ebp]
  00034	8d 4b 10	 lea	 ecx, DWORD PTR [ebx+16]
  00037	ff 15 00 00 00
	00		 call	 DWORD PTR __imp_??8ioHashString@@QBE_NABV0@@Z
  0003d	84 c0		 test	 al, al
  0003f	75 5f		 jne	 SHORT $LN49@HideMeshLi

; 978  : 		{
; 979  : 			bFind = true;
; 980  : 			break;
; 981  : 		}
; 982  : 		else
; 983  : 		{
; 984  : 			++iter;

  00041	83 c3 20	 add	 ebx, 32			; 00000020H
$LN51@HideMeshLi:

; 975  : 	while( iter != m_HideMeshLinkEffectList.end() )

  00044	3b 5e 40	 cmp	 ebx, DWORD PTR [esi+64]
  00047	75 e8		 jne	 SHORT $LL5@HideMeshLi

; 992  : 	}
; 993  : 
; 994  : 	AniEventInfo kInfo;

  00049	8b 35 00 00 00
	00		 mov	 esi, DWORD PTR __imp_??0ioHashString@@QAE@XZ
  0004f	8d 4d d4	 lea	 ecx, DWORD PTR _kInfo$[ebp]
  00052	ff d6		 call	 esi
  00054	83 65 fc 00	 and	 DWORD PTR __$EHRec$[ebp+8], 0
  00058	8d 4d e4	 lea	 ecx, DWORD PTR _kInfo$[ebp+16]
  0005b	ff d6		 call	 esi

; 995  : 	kInfo.m_AniName   = pNotifier->GetName();

  0005d	8b 4d 0c	 mov	 ecx, DWORD PTR _pNotifier$[ebp]
  00060	c7 45 fc 01 00
	00 00		 mov	 DWORD PTR __$EHRec$[ebp+8], 1
  00067	ff 15 00 00 00
	00		 call	 DWORD PTR __imp_?GetName@ioAnimation@@QBEABVioHashString@@XZ
  0006d	8b 35 00 00 00
	00		 mov	 esi, DWORD PTR __imp_??4ioHashString@@QAEAAV0@ABV0@@Z
  00073	50		 push	 eax
  00074	8d 4d d4	 lea	 ecx, DWORD PTR _kInfo$[ebp]
  00077	ff d6		 call	 esi

; 996  : 	kInfo.m_EventName = rkEffectName;

  00079	ff 75 08	 push	 DWORD PTR _rkEffectName$[ebp]
  0007c	8d 4d e4	 lea	 ecx, DWORD PTR _kInfo$[ebp+16]
  0007f	ff d6		 call	 esi

; 997  : 
; 998  : 	m_HideMeshLinkEffectList.push_back( kInfo );

  00081	8d 45 d4	 lea	 eax, DWORD PTR _kInfo$[ebp]
  00084	50		 push	 eax
  00085	8b cf		 mov	 ecx, edi
  00087	e8 00 00 00 00	 call	 ?push_back@?$vector@UAniEventInfo@@V?$allocator@UAniEventInfo@@@std@@@std@@QAEXABUAniEventInfo@@@Z ; std::vector<AniEventInfo,std::allocator<AniEventInfo> >::push_back

; 999  : }

  0008c	83 4d fc ff	 or	 DWORD PTR __$EHRec$[ebp+8], -1
  00090	8d 4d d4	 lea	 ecx, DWORD PTR _kInfo$[ebp]
  00093	e8 00 00 00 00	 call	 ??1AniEventInfo@@QAE@XZ
$LN7@HideMeshLi:
  00098	e8 00 00 00 00	 call	 __EH_epilog3
  0009d	c2 08 00	 ret	 8
$LN49@HideMeshLi:

; 985  : 		}
; 986  : 	}
; 987  : 
; 988  : 	if( bFind )
; 989  : 	{
; 990  : 		(*iter).m_AniName = pNotifier->GetName();

  000a0	8b 4d 0c	 mov	 ecx, DWORD PTR _pNotifier$[ebp]
  000a3	ff 15 00 00 00
	00		 call	 DWORD PTR __imp_?GetName@ioAnimation@@QBEABVioHashString@@XZ
  000a9	50		 push	 eax
  000aa	8b cb		 mov	 ecx, ebx
  000ac	ff 15 00 00 00
	00		 call	 DWORD PTR __imp_??4ioHashString@@QAEAAV0@ABV0@@Z

; 991  : 		return;

  000b2	eb e4		 jmp	 SHORT $LN7@HideMeshLi
_TEXT	ENDS
;	COMDAT text$x
text$x	SEGMENT
__unwindfunclet$?HideMeshLinkEffect@ioClientAniEventHandler@@IAEXABVioHashString@@PBVioAnimation@@@Z$1:
  00000	8d 4d d4	 lea	 ecx, DWORD PTR _kInfo$[ebp]
  00003	ff 25 00 00 00
	00		 jmp	 DWORD PTR __imp_??1ioHashString@@QAE@XZ
__unwindfunclet$?HideMeshLinkEffect@ioClientAniEventHandler@@IAEXABVioHashString@@PBVioAnimation@@@Z$0:
  00009	8d 4d d4	 lea	 ecx, DWORD PTR _kInfo$[ebp]
  0000c	e9 00 00 00 00	 jmp	 ??1AniEventInfo@@QAE@XZ
__ehhandler$?HideMeshLinkEffect@ioClientAniEventHandler@@IAEXABVioHashString@@PBVioAnimation@@@Z:
  00011	8b 54 24 08	 mov	 edx, DWORD PTR [esp+8]
  00015	8d 42 0c	 lea	 eax, DWORD PTR [edx+12]
  00018	8b 4a d0	 mov	 ecx, DWORD PTR [edx-48]
  0001b	33 c8		 xor	 ecx, eax
  0001d	e8 00 00 00 00	 call	 @__security_check_cookie@4
  00022	b8 00 00 00 00	 mov	 eax, OFFSET __ehfuncinfo$?HideMeshLinkEffect@ioClientAniEventHandler@@IAEXABVioHashString@@PBVioAnimation@@@Z
  00027	e9 00 00 00 00	 jmp	 ___CxxFrameHandler3
text$x	ENDS
?HideMeshLinkEffect@ioClientAniEventHandler@@IAEXABVioHashString@@PBVioAnimation@@@Z ENDP ; ioClientAniEventHandler::HideMeshLinkEffect
PUBLIC	??$_Uninit_copy@V?$_Vector_const_iterator@V?$_Vector_val@V?$basic_string@DU?$char_traits@D@std@@V?$allocator@D@2@@std@@V?$allocator@V?$basic_string@DU?$char_traits@D@std@@V?$allocator@D@2@@std@@@2@@std@@@std@@PAV?$basic_string@DU?$char_traits@D@std@@V?$allocator@D@2@@2@V?$allocator@V?$basic_string@DU?$char_traits@D@std@@V?$allocator@D@2@@std@@@2@@std@@YAPAV?$basic_string@DU?$char_traits@D@std@@V?$allocator@D@2@@0@V?$_Vector_const_iterator@V?$_Vector_val@V?$basic_string@DU?$char_traits@D@std@@V?$allocator@D@2@@std@@V?$allocator@V?$basic_string@DU?$char_traits@D@std@@V?$allocator@D@2@@std@@@2@@std@@@0@0PAV10@AAV?$allocator@V?$basic_string@DU?$char_traits@D@std@@V?$allocator@D@2@@std@@@0@U_Nonscalar_ptr_iterator_tag@0@@Z ; std::_Uninit_copy<std::_Vector_const_iterator<std::_Vector_val<std::basic_string<char,std::char_traits<char>,std::allocator<char> >,std::allocator<std::basic_string<char,std::char_traits<char>,std::allocator<char> > > > >,std::basic_string<char,std::char_traits<char>,std::allocator<char> > *,std::allocator<std::basic_string<char,std::char_traits<char>,std::allocator<char> > > >
;	COMDAT xdata$x
; File c:\program files (x86)\microsoft visual studio 10.0\vc\include\xstring
xdata$x	SEGMENT
__catchsym$??$_Uninit_copy@V?$_Vector_const_iterator@V?$_Vector_val@V?$basic_string@DU?$char_traits@D@std@@V?$allocator@D@2@@std@@V?$allocator@V?$basic_string@DU?$char_traits@D@std@@V?$allocator@D@2@@std@@@2@@std@@@std@@PAV?$basic_string@DU?$char_traits@D@std@@V?$allocator@D@2@@2@V?$allocator@V?$basic_string@DU?$char_traits@D@std@@V?$allocator@D@2@@std@@@2@@std@@YAPAV?$basic_string@DU?$char_traits@D@std@@V?$allocator@D@2@@0@V?$_Vector_const_iterator@V?$_Vector_val@V?$basic_string@DU?$char_traits@D@std@@V?$allocator@D@2@@std@@V?$allocator@V?$basic_string@DU?$char_traits@D@std@@V?$allocator@D@2@@std@@@2@@std@@@0@0PAV10@AAV?$allocator@V?$basic_string@DU?$char_traits@D@std@@V?$allocator@D@2@@std@@@0@U_Nonscalar_ptr_iterator_tag@0@@Z$2 DD 040H
	DD	00H
	DD	00H
	DD	FLAT:__catch$??$_Uninit_copy@V?$_Vector_const_iterator@V?$_Vector_val@V?$basic_string@DU?$char_traits@D@std@@V?$allocator@D@2@@std@@V?$allocator@V?$basic_string@DU?$char_traits@D@std@@V?$allocator@D@2@@std@@@2@@std@@@std@@PAV?$basic_string@DU?$char_traits@D@std@@V?$allocator@D@2@@2@V?$allocator@V?$basic_string@DU?$char_traits@D@std@@V?$allocator@D@2@@std@@@2@@std@@YAPAV?$basic_string@DU?$char_traits@D@std@@V?$allocator@D@2@@0@V?$_Vector_const_iterator@V?$_Vector_val@V?$basic_string@DU?$char_traits@D@std@@V?$allocator@D@2@@std@@V?$allocator@V?$basic_string@DU?$char_traits@D@std@@V?$allocator@D@2@@std@@@2@@std@@@0@0PAV10@AAV?$allocator@V?$basic_string@DU?$char_traits@D@std@@V?$allocator@D@2@@std@@@0@U_Nonscalar_ptr_iterator_tag@0@@Z$0
__unwindtable$??$_Uninit_copy@V?$_Vector_const_iterator@V?$_Vector_val@V?$basic_string@DU?$char_traits@D@std@@V?$allocator@D@2@@std@@V?$allocator@V?$basic_string@DU?$char_traits@D@std@@V?$allocator@D@2@@std@@@2@@std@@@std@@PAV?$basic_string@DU?$char_traits@D@std@@V?$allocator@D@2@@2@V?$allocator@V?$basic_string@DU?$char_traits@D@std@@V?$allocator@D@2@@std@@@2@@std@@YAPAV?$basic_string@DU?$char_traits@D@std@@V?$allocator@D@2@@0@V?$_Vector_const_iterator@V?$_Vector_val@V?$basic_string@DU?$char_traits@D@std@@V?$allocator@D@2@@std@@V?$allocator@V?$basic_string@DU?$char_traits@D@std@@V?$allocator@D@2@@std@@@2@@std@@@0@0PAV10@AAV?$allocator@V?$basic_string@DU?$char_traits@D@std@@V?$allocator@D@2@@std@@@0@U_Nonscalar_ptr_iterator_tag@0@@Z DD 0ffffffffH
	DD	00H
	DD	0ffffffffH
	DD	00H
__tryblocktable$??$_Uninit_copy@V?$_Vector_const_iterator@V?$_Vector_val@V?$basic_string@DU?$char_traits@D@std@@V?$allocator@D@2@@std@@V?$allocator@V?$basic_string@DU?$char_traits@D@std@@V?$allocator@D@2@@std@@@2@@std@@@std@@PAV?$basic_string@DU?$char_traits@D@std@@V?$allocator@D@2@@2@V?$allocator@V?$basic_string@DU?$char_traits@D@std@@V?$allocator@D@2@@std@@@2@@std@@YAPAV?$basic_string@DU?$char_traits@D@std@@V?$allocator@D@2@@0@V?$_Vector_const_iterator@V?$_Vector_val@V?$basic_string@DU?$char_traits@D@std@@V?$allocator@D@2@@std@@V?$allocator@V?$basic_string@DU?$char_traits@D@std@@V?$allocator@D@2@@std@@@2@@std@@@0@0PAV10@AAV?$allocator@V?$basic_string@DU?$char_traits@D@std@@V?$allocator@D@2@@std@@@0@U_Nonscalar_ptr_iterator_tag@0@@Z DD 00H
	DD	00H
	DD	01H
	DD	01H
	DD	FLAT:__catchsym$??$_Uninit_copy@V?$_Vector_const_iterator@V?$_Vector_val@V?$basic_string@DU?$char_traits@D@std@@V?$allocator@D@2@@std@@V?$allocator@V?$basic_string@DU?$char_traits@D@std@@V?$allocator@D@2@@std@@@2@@std@@@std@@PAV?$basic_string@DU?$char_traits@D@std@@V?$allocator@D@2@@2@V?$allocator@V?$basic_string@DU?$char_traits@D@std@@V?$allocator@D@2@@std@@@2@@std@@YAPAV?$basic_string@DU?$char_traits@D@std@@V?$allocator@D@2@@0@V?$_Vector_const_iterator@V?$_Vector_val@V?$basic_string@DU?$char_traits@D@std@@V?$allocator@D@2@@std@@V?$allocator@V?$basic_string@DU?$char_traits@D@std@@V?$allocator@D@2@@std@@@2@@std@@@0@0PAV10@AAV?$allocator@V?$basic_string@DU?$char_traits@D@std@@V?$allocator@D@2@@std@@@0@U_Nonscalar_ptr_iterator_tag@0@@Z$2
__ehfuncinfo$??$_Uninit_copy@V?$_Vector_const_iterator@V?$_Vector_val@V?$basic_string@DU?$char_traits@D@std@@V?$allocator@D@2@@std@@V?$allocator@V?$basic_string@DU?$char_traits@D@std@@V?$allocator@D@2@@std@@@2@@std@@@std@@PAV?$basic_string@DU?$char_traits@D@std@@V?$allocator@D@2@@2@V?$allocator@V?$basic_string@DU?$char_traits@D@std@@V?$allocator@D@2@@std@@@2@@std@@YAPAV?$basic_string@DU?$char_traits@D@std@@V?$allocator@D@2@@0@V?$_Vector_const_iterator@V?$_Vector_val@V?$basic_string@DU?$char_traits@D@std@@V?$allocator@D@2@@std@@V?$allocator@V?$basic_string@DU?$char_traits@D@std@@V?$allocator@D@2@@std@@@2@@std@@@0@0PAV10@AAV?$allocator@V?$basic_string@DU?$char_traits@D@std@@V?$allocator@D@2@@std@@@0@U_Nonscalar_ptr_iterator_tag@0@@Z DD 019930522H
	DD	02H
	DD	FLAT:__unwindtable$??$_Uninit_copy@V?$_Vector_const_iterator@V?$_Vector_val@V?$basic_string@DU?$char_traits@D@std@@V?$allocator@D@2@@std@@V?$allocator@V?$basic_string@DU?$char_traits@D@std@@V?$allocator@D@2@@std@@@2@@std@@@std@@PAV?$basic_string@DU?$char_traits@D@std@@V?$allocator@D@2@@2@V?$allocator@V?$basic_string@DU?$char_traits@D@std@@V?$allocator@D@2@@std@@@2@@std@@YAPAV?$basic_string@DU?$char_traits@D@std@@V?$allocator@D@2@@0@V?$_Vector_const_iterator@V?$_Vector_val@V?$basic_string@DU?$char_traits@D@std@@V?$allocator@D@2@@std@@V?$allocator@V?$basic_string@DU?$char_traits@D@std@@V?$allocator@D@2@@std@@@2@@std@@@0@0PAV10@AAV?$allocator@V?$basic_string@DU?$char_traits@D@std@@V?$allocator@D@2@@std@@@0@U_Nonscalar_ptr_iterator_tag@0@@Z
	DD	01H
	DD	FLAT:__tryblocktable$??$_Uninit_copy@V?$_Vector_const_iterator@V?$_Vector_val@V?$basic_string@DU?$char_traits@D@std@@V?$allocator@D@2@@std@@V?$allocator@V?$basic_string@DU?$char_traits@D@std@@V?$allocator@D@2@@std@@@2@@std@@@std@@PAV?$basic_string@DU?$char_traits@D@std@@V?$allocator@D@2@@2@V?$allocator@V?$basic_string@DU?$char_traits@D@std@@V?$allocator@D@2@@std@@@2@@std@@YAPAV?$basic_string@DU?$char_traits@D@std@@V?$allocator@D@2@@0@V?$_Vector_const_iterator@V?$_Vector_val@V?$basic_string@DU?$char_traits@D@std@@V?$allocator@D@2@@std@@V?$allocator@V?$basic_string@DU?$char_traits@D@std@@V?$allocator@D@2@@std@@@2@@std@@@0@0PAV10@AAV?$allocator@V?$basic_string@DU?$char_traits@D@std@@V?$allocator@D@2@@std@@@0@U_Nonscalar_ptr_iterator_tag@0@@Z
	DD	2 DUP(00H)
	DD	00H
	DD	01H
; Function compile flags: /Ogsp
; File c:\program files (x86)\microsoft visual studio 10.0\vc\include\memory
xdata$x	ENDS
;	COMDAT ??$_Uninit_copy@V?$_Vector_const_iterator@V?$_Vector_val@V?$basic_string@DU?$char_traits@D@std@@V?$allocator@D@2@@std@@V?$allocator@V?$basic_string@DU?$char_traits@D@std@@V?$allocator@D@2@@std@@@2@@std@@@std@@PAV?$basic_string@DU?$char_traits@D@std@@V?$allocator@D@2@@2@V?$allocator@V?$basic_string@DU?$char_traits@D@std@@V?$allocator@D@2@@std@@@2@@std@@YAPAV?$basic_string@DU?$char_traits@D@std@@V?$allocator@D@2@@0@V?$_Vector_const_iterator@V?$_Vector_val@V?$basic_string@DU?$char_traits@D@std@@V?$allocator@D@2@@std@@V?$allocator@V?$basic_string@DU?$char_traits@D@std@@V?$allocator@D@2@@std@@@2@@std@@@0@0PAV10@AAV?$allocator@V?$basic_string@DU?$char_traits@D@std@@V?$allocator@D@2@@std@@@0@U_Nonscalar_ptr_iterator_tag@0@@Z
_TEXT	SEGMENT
__Next$ = -20						; size = 4
__$EHRec$ = -16						; size = 16
__First$ = 8						; size = 4
__Last$ = 12						; size = 4
__Dest$ = 16						; size = 4
__Al$ = 20						; size = 4
___formal$ = 24						; size = 1
??$_Uninit_copy@V?$_Vector_const_iterator@V?$_Vector_val@V?$basic_string@DU?$char_traits@D@std@@V?$allocator@D@2@@std@@V?$allocator@V?$basic_string@DU?$char_traits@D@std@@V?$allocator@D@2@@std@@@2@@std@@@std@@PAV?$basic_string@DU?$char_traits@D@std@@V?$allocator@D@2@@2@V?$allocator@V?$basic_string@DU?$char_traits@D@std@@V?$allocator@D@2@@std@@@2@@std@@YAPAV?$basic_string@DU?$char_traits@D@std@@V?$allocator@D@2@@0@V?$_Vector_const_iterator@V?$_Vector_val@V?$basic_string@DU?$char_traits@D@std@@V?$allocator@D@2@@std@@V?$allocator@V?$basic_string@DU?$char_traits@D@std@@V?$allocator@D@2@@std@@@2@@std@@@0@0PAV10@AAV?$allocator@V?$basic_string@DU?$char_traits@D@std@@V?$allocator@D@2@@std@@@0@U_Nonscalar_ptr_iterator_tag@0@@Z PROC ; std::_Uninit_copy<std::_Vector_const_iterator<std::_Vector_val<std::basic_string<char,std::char_traits<char>,std::allocator<char> >,std::allocator<std::basic_string<char,std::char_traits<char>,std::allocator<char> > > > >,std::basic_string<char,std::char_traits<char>,std::allocator<char> > *,std::allocator<std::basic_string<char,std::char_traits<char>,std::allocator<char> > > >, COMDAT

; 369  : 	{	// copy [_First, _Last) to raw _Dest, using _Al, arbitrary type

  00000	6a 08		 push	 8
  00002	b8 00 00 00 00	 mov	 eax, __ehhandler$??$_Uninit_copy@V?$_Vector_const_iterator@V?$_Vector_val@V?$basic_string@DU?$char_traits@D@std@@V?$allocator@D@2@@std@@V?$allocator@V?$basic_string@DU?$char_traits@D@std@@V?$allocator@D@2@@std@@@2@@std@@@std@@PAV?$basic_string@DU?$char_traits@D@std@@V?$allocator@D@2@@2@V?$allocator@V?$basic_string@DU?$char_traits@D@std@@V?$allocator@D@2@@std@@@2@@std@@YAPAV?$basic_string@DU?$char_traits@D@std@@V?$allocator@D@2@@0@V?$_Vector_const_iterator@V?$_Vector_val@V?$basic_string@DU?$char_traits@D@std@@V?$allocator@D@2@@std@@V?$allocator@V?$basic_string@DU?$char_traits@D@std@@V?$allocator@D@2@@std@@@2@@std@@@0@0PAV10@AAV?$allocator@V?$basic_string@DU?$char_traits@D@std@@V?$allocator@D@2@@std@@@0@U_Nonscalar_ptr_iterator_tag@0@@Z
  00007	e8 00 00 00 00	 call	 __EH_prolog3_catch

; 370  : 	_DEBUG_RANGE(_First, _Last);
; 371  : 	_DEBUG_POINTER(_Dest);
; 372  : 	_FwdIt _Next = _Dest;

  0000c	8b 45 10	 mov	 eax, DWORD PTR __Dest$[ebp]

; 373  : 
; 374  : 	_TRY_BEGIN

  0000f	83 65 fc 00	 and	 DWORD PTR __$EHRec$[ebp+12], 0
  00013	89 45 ec	 mov	 DWORD PTR __Next$[ebp], eax

; 375  : 	for (; _First != _Last; ++_Dest, ++_First)

$LL14@Uninit_cop:
  00016	8b 45 08	 mov	 eax, DWORD PTR __First$[ebp]
  00019	3b 45 0c	 cmp	 eax, DWORD PTR __Last$[ebp]
  0001c	74 34		 je	 SHORT $LN4@Uninit_cop

; 376  : 		_Cons_val(_Al, _Dest, *_First);

  0001e	50		 push	 eax
  0001f	ff 75 10	 push	 DWORD PTR __Dest$[ebp]
  00022	e8 00 00 00 00	 call	 ??$_Construct@V?$basic_string@DU?$char_traits@D@std@@V?$allocator@D@2@@std@@ABV12@@std@@YAXPAV?$basic_string@DU?$char_traits@D@std@@V?$allocator@D@2@@0@ABV10@@Z ; std::_Construct<std::basic_string<char,std::char_traits<char>,std::allocator<char> >,std::basic_string<char,std::char_traits<char>,std::allocator<char> > const &>
  00027	83 45 10 1c	 add	 DWORD PTR __Dest$[ebp], 28 ; 0000001cH
  0002b	83 45 08 1c	 add	 DWORD PTR __First$[ebp], 28 ; 0000001cH
  0002f	59		 pop	 ecx
  00030	59		 pop	 ecx
  00031	eb e3		 jmp	 SHORT $LL14@Uninit_cop
__catch$??$_Uninit_copy@V?$_Vector_const_iterator@V?$_Vector_val@V?$basic_string@DU?$char_traits@D@std@@V?$allocator@D@2@@std@@V?$allocator@V?$basic_string@DU?$char_traits@D@std@@V?$allocator@D@2@@std@@@2@@std@@@std@@PAV?$basic_string@DU?$char_traits@D@std@@V?$allocator@D@2@@2@V?$allocator@V?$basic_string@DU?$char_traits@D@std@@V?$allocator@D@2@@std@@@2@@std@@YAPAV?$basic_string@DU?$char_traits@D@std@@V?$allocator@D@2@@0@V?$_Vector_const_iterator@V?$_Vector_val@V?$basic_string@DU?$char_traits@D@std@@V?$allocator@D@2@@std@@V?$allocator@V?$basic_string@DU?$char_traits@D@std@@V?$allocator@D@2@@std@@@2@@std@@@0@0PAV10@AAV?$allocator@V?$basic_string@DU?$char_traits@D@std@@V?$allocator@D@2@@std@@@0@U_Nonscalar_ptr_iterator_tag@0@@Z$0:

; 377  : 	_CATCH_ALL
; 378  : 	for (; _Next != _Dest; ++_Next)

  00033	8b 75 ec	 mov	 esi, DWORD PTR __Next$[ebp]
  00036	eb 0c		 jmp	 SHORT $LN50@Uninit_cop
$LL3@Uninit_cop:

; 379  : 		_Dest_val(_Al, _Next);

  00038	6a 01		 push	 1
  0003a	8b ce		 mov	 ecx, esi
  0003c	e8 00 00 00 00	 call	 ?_Tidy@?$basic_string@DU?$char_traits@D@std@@V?$allocator@D@2@@std@@QAEX_NI@Z ; std::basic_string<char,std::char_traits<char>,std::allocator<char> >::_Tidy
  00041	83 c6 1c	 add	 esi, 28			; 0000001cH
$LN50@Uninit_cop:

; 380  : 	_RERAISE;

  00044	6a 00		 push	 0
  00046	3b 75 10	 cmp	 esi, DWORD PTR __Dest$[ebp]
  00049	75 ed		 jne	 SHORT $LL3@Uninit_cop
  0004b	6a 00		 push	 0
  0004d	e8 00 00 00 00	 call	 __CxxThrowException@8
$LN51@Uninit_cop:
$LN4@Uninit_cop:

; 381  : 	_CATCH_END
; 382  : 	return (_Dest);

  00052	8b 45 10	 mov	 eax, DWORD PTR __Dest$[ebp]

; 383  : 	}

  00055	e8 00 00 00 00	 call	 __EH_epilog3
  0005a	c3		 ret	 0
$LN49@Uninit_cop:
_TEXT	ENDS
;	COMDAT text$x
text$x	SEGMENT
__ehhandler$??$_Uninit_copy@V?$_Vector_const_iterator@V?$_Vector_val@V?$basic_string@DU?$char_traits@D@std@@V?$allocator@D@2@@std@@V?$allocator@V?$basic_string@DU?$char_traits@D@std@@V?$allocator@D@2@@std@@@2@@std@@@std@@PAV?$basic_string@DU?$char_traits@D@std@@V?$allocator@D@2@@2@V?$allocator@V?$basic_string@DU?$char_traits@D@std@@V?$allocator@D@2@@std@@@2@@std@@YAPAV?$basic_string@DU?$char_traits@D@std@@V?$allocator@D@2@@0@V?$_Vector_const_iterator@V?$_Vector_val@V?$basic_string@DU?$char_traits@D@std@@V?$allocator@D@2@@std@@V?$allocator@V?$basic_string@DU?$char_traits@D@std@@V?$allocator@D@2@@std@@@2@@std@@@0@0PAV10@AAV?$allocator@V?$basic_string@DU?$char_traits@D@std@@V?$allocator@D@2@@std@@@0@U_Nonscalar_ptr_iterator_tag@0@@Z:
  00000	8b 54 24 08	 mov	 edx, DWORD PTR [esp+8]
  00004	8d 42 0c	 lea	 eax, DWORD PTR [edx+12]
  00007	8b 4a e8	 mov	 ecx, DWORD PTR [edx-24]
  0000a	33 c8		 xor	 ecx, eax
  0000c	e8 00 00 00 00	 call	 @__security_check_cookie@4
  00011	b8 00 00 00 00	 mov	 eax, OFFSET __ehfuncinfo$??$_Uninit_copy@V?$_Vector_const_iterator@V?$_Vector_val@V?$basic_string@DU?$char_traits@D@std@@V?$allocator@D@2@@std@@V?$allocator@V?$basic_string@DU?$char_traits@D@std@@V?$allocator@D@2@@std@@@2@@std@@@std@@PAV?$basic_string@DU?$char_traits@D@std@@V?$allocator@D@2@@2@V?$allocator@V?$basic_string@DU?$char_traits@D@std@@V?$allocator@D@2@@std@@@2@@std@@YAPAV?$basic_string@DU?$char_traits@D@std@@V?$allocator@D@2@@0@V?$_Vector_const_iterator@V?$_Vector_val@V?$basic_string@DU?$char_traits@D@std@@V?$allocator@D@2@@std@@V?$allocator@V?$basic_string@DU?$char_traits@D@std@@V?$allocator@D@2@@std@@@2@@std@@@0@0PAV10@AAV?$allocator@V?$basic_string@DU?$char_traits@D@std@@V?$allocator@D@2@@std@@@0@U_Nonscalar_ptr_iterator_tag@0@@Z
  00016	e9 00 00 00 00	 jmp	 ___CxxFrameHandler3
text$x	ENDS
??$_Uninit_copy@V?$_Vector_const_iterator@V?$_Vector_val@V?$basic_string@DU?$char_traits@D@std@@V?$allocator@D@2@@std@@V?$allocator@V?$basic_string@DU?$char_traits@D@std@@V?$allocator@D@2@@std@@@2@@std@@@std@@PAV?$basic_string@DU?$char_traits@D@std@@V?$allocator@D@2@@2@V?$allocator@V?$basic_string@DU?$char_traits@D@std@@V?$allocator@D@2@@std@@@2@@std@@YAPAV?$basic_string@DU?$char_traits@D@std@@V?$allocator@D@2@@0@V?$_Vector_const_iterator@V?$_Vector_val@V?$basic_string@DU?$char_traits@D@std@@V?$allocator@D@2@@std@@V?$allocator@V?$basic_string@DU?$char_traits@D@std@@V?$allocator@D@2@@std@@@2@@std@@@0@0PAV10@AAV?$allocator@V?$basic_string@DU?$char_traits@D@std@@V?$allocator@D@2@@std@@@0@U_Nonscalar_ptr_iterator_tag@0@@Z ENDP ; std::_Uninit_copy<std::_Vector_const_iterator<std::_Vector_val<std::basic_string<char,std::char_traits<char>,std::allocator<char> >,std::allocator<std::basic_string<char,std::char_traits<char>,std::allocator<char> > > > >,std::basic_string<char,std::char_traits<char>,std::allocator<char> > *,std::allocator<std::basic_string<char,std::char_traits<char>,std::allocator<char> > > >
PUBLIC	?_Destroy@?$vector@V?$basic_string@DU?$char_traits@D@std@@V?$allocator@D@2@@std@@V?$allocator@V?$basic_string@DU?$char_traits@D@std@@V?$allocator@D@2@@std@@@2@@std@@IAEXPAV?$basic_string@DU?$char_traits@D@std@@V?$allocator@D@2@@2@0@Z ; std::vector<std::basic_string<char,std::char_traits<char>,std::allocator<char> >,std::allocator<std::basic_string<char,std::char_traits<char>,std::allocator<char> > > >::_Destroy
; Function compile flags: /Ogsp
; File c:\program files (x86)\microsoft visual studio 10.0\vc\include\vector
;	COMDAT ?_Destroy@?$vector@V?$basic_string@DU?$char_traits@D@std@@V?$allocator@D@2@@std@@V?$allocator@V?$basic_string@DU?$char_traits@D@std@@V?$allocator@D@2@@std@@@2@@std@@IAEXPAV?$basic_string@DU?$char_traits@D@std@@V?$allocator@D@2@@2@0@Z
_TEXT	SEGMENT
__First$ = 8						; size = 4
__Cat$538992 = 12					; size = 1
__Last$ = 12						; size = 4
?_Destroy@?$vector@V?$basic_string@DU?$char_traits@D@std@@V?$allocator@D@2@@std@@V?$allocator@V?$basic_string@DU?$char_traits@D@std@@V?$allocator@D@2@@std@@@2@@std@@IAEXPAV?$basic_string@DU?$char_traits@D@std@@V?$allocator@D@2@@2@0@Z PROC ; std::vector<std::basic_string<char,std::char_traits<char>,std::allocator<char> >,std::allocator<std::basic_string<char,std::char_traits<char>,std::allocator<char> > > >::_Destroy, COMDAT
; _this$ = ecx

; 1269 : 		{	// destroy [_First, _Last) using allocator

  00000	55		 push	 ebp
  00001	8b ec		 mov	 ebp, esp

; 1270 : 		_Destroy_range(_First, _Last, this->_Alval);

  00003	ff 75 0c	 push	 DWORD PTR __Cat$538992[ebp]
  00006	83 c1 0c	 add	 ecx, 12			; 0000000cH
  00009	51		 push	 ecx
  0000a	ff 75 0c	 push	 DWORD PTR __Last$[ebp]
  0000d	ff 75 08	 push	 DWORD PTR __First$[ebp]
  00010	e8 00 00 00 00	 call	 ??$_Destroy_range@V?$allocator@V?$basic_string@DU?$char_traits@D@std@@V?$allocator@D@2@@std@@@std@@@std@@YAXPAV?$basic_string@DU?$char_traits@D@std@@V?$allocator@D@2@@0@0AAV?$allocator@V?$basic_string@DU?$char_traits@D@std@@V?$allocator@D@2@@std@@@0@U_Nonscalar_ptr_iterator_tag@0@@Z ; std::_Destroy_range<std::allocator<std::basic_string<char,std::char_traits<char>,std::allocator<char> > > >
  00015	83 c4 10	 add	 esp, 16			; 00000010H

; 1271 : 		}

  00018	5d		 pop	 ebp
  00019	c2 08 00	 ret	 8
?_Destroy@?$vector@V?$basic_string@DU?$char_traits@D@std@@V?$allocator@D@2@@std@@V?$allocator@V?$basic_string@DU?$char_traits@D@std@@V?$allocator@D@2@@std@@@2@@std@@IAEXPAV?$basic_string@DU?$char_traits@D@std@@V?$allocator@D@2@@2@0@Z ENDP ; std::vector<std::basic_string<char,std::char_traits<char>,std::allocator<char> >,std::allocator<std::basic_string<char,std::char_traits<char>,std::allocator<char> > > >::_Destroy
; Function compile flags: /Ogsp
_TEXT	ENDS
;	COMDAT ??_GioClientAniEventHandler@@UAEPAXI@Z
_TEXT	SEGMENT
___flags$ = 8						; size = 4
??_GioClientAniEventHandler@@UAEPAXI@Z PROC		; ioClientAniEventHandler::`scalar deleting destructor', COMDAT
; _this$ = ecx
  00000	55		 push	 ebp
  00001	8b ec		 mov	 ebp, esp
  00003	56		 push	 esi
  00004	8b f1		 mov	 esi, ecx
  00006	e8 00 00 00 00	 call	 ??1ioClientAniEventHandler@@UAE@XZ ; ioClientAniEventHandler::~ioClientAniEventHandler
  0000b	f6 45 08 01	 test	 BYTE PTR ___flags$[ebp], 1
  0000f	74 07		 je	 SHORT $LN1@scalar@5
  00011	56		 push	 esi
  00012	e8 00 00 00 00	 call	 ??3@YAXPAX@Z		; operator delete
  00017	59		 pop	 ecx
$LN1@scalar@5:
  00018	8b c6		 mov	 eax, esi
  0001a	5e		 pop	 esi
  0001b	5d		 pop	 ebp
  0001c	c2 04 00	 ret	 4
??_GioClientAniEventHandler@@UAEPAXI@Z ENDP		; ioClientAniEventHandler::`scalar deleting destructor'
_TEXT	ENDS
PUBLIC	?OnShowWeaponMesh@ioClientAniEventHandler@@IAEXPBUAniEventTime@@PBVioAnimation@@@Z ; ioClientAniEventHandler::OnShowWeaponMesh
EXTRN	?GetItemEquipEffect@ioItem@@QBEABVioHashString@@_N@Z:PROC ; ioItem::GetItemEquipEffect
; Function compile flags: /Ogsp
; File d:\lost saga for developer\youtube\tutorial\source\src\lsclient\ioclientanieventhandler.cpp
;	COMDAT ?OnShowWeaponMesh@ioClientAniEventHandler@@IAEXPBUAniEventTime@@PBVioAnimation@@@Z
_TEXT	SEGMENT
$T539002 = -4						; size = 1
_pEvent$ = 8						; size = 4
_pNotifier$ = 12					; size = 4
?OnShowWeaponMesh@ioClientAniEventHandler@@IAEXPBUAniEventTime@@PBVioAnimation@@@Z PROC ; ioClientAniEventHandler::OnShowWeaponMesh, COMDAT
; _this$ = ecx

; 673  : {

  00000	55		 push	 ebp
  00001	8b ec		 mov	 ebp, esp
  00003	51		 push	 ecx
  00004	56		 push	 esi
  00005	8b f1		 mov	 esi, ecx

; 674  : 	const ioWeaponItem *pWeaponItem = m_pChar->GetWeapon();

  00007	8b 4e 18	 mov	 ecx, DWORD PTR [esi+24]
  0000a	57		 push	 edi
  0000b	e8 00 00 00 00	 call	 ?GetWeapon@ioBaseChar@@QBEPAVioWeaponItem@@XZ ; ioBaseChar::GetWeapon
  00010	8b f8		 mov	 edi, eax

; 675  : 	if( !pWeaponItem ) return;

  00012	85 ff		 test	 edi, edi
  00014	74 3b		 je	 SHORT $LN2@OnShowWeap

; 676  : 
; 677  : 	ShowMesh( pWeaponItem->GetEquipMesh(m_pChar), pWeaponItem->GetItemEquipEffect(m_pChar->IsMale()), pNotifier );

  00016	8b 46 18	 mov	 eax, DWORD PTR [esi+24]
  00019	8a 80 20 03 00
	00		 mov	 al, BYTE PTR [eax+800]
  0001f	ff 75 0c	 push	 DWORD PTR _pNotifier$[ebp]
  00022	88 45 fc	 mov	 BYTE PTR $T539002[ebp], al
  00025	ff 75 fc	 push	 DWORD PTR $T539002[ebp]
  00028	8b cf		 mov	 ecx, edi
  0002a	e8 00 00 00 00	 call	 ?GetItemEquipEffect@ioItem@@QBEABVioHashString@@_N@Z ; ioItem::GetItemEquipEffect
  0002f	50		 push	 eax
  00030	ff 76 18	 push	 DWORD PTR [esi+24]
  00033	8b 07		 mov	 eax, DWORD PTR [edi]
  00035	8b cf		 mov	 ecx, edi
  00037	ff 90 e8 02 00
	00		 call	 DWORD PTR [eax+744]
  0003d	50		 push	 eax
  0003e	8b ce		 mov	 ecx, esi
  00040	e8 00 00 00 00	 call	 ?ShowMesh@ioClientAniEventHandler@@IAEXABVioHashString@@0PBVioAnimation@@@Z ; ioClientAniEventHandler::ShowMesh

; 678  : 
; 679  : 	m_pChar->SetItemMeshShow();

  00045	8b 4e 18	 mov	 ecx, DWORD PTR [esi+24]
  00048	e8 00 00 00 00	 call	 ?SetItemMeshShow@ioBaseChar@@QAEXXZ ; ioBaseChar::SetItemMeshShow

; 680  : 	m_bItemMeshHide = false;

  0004d	c6 46 4c 00	 mov	 BYTE PTR [esi+76], 0
$LN2@OnShowWeap:
  00051	5f		 pop	 edi
  00052	5e		 pop	 esi

; 681  : }

  00053	c9		 leave
  00054	c2 08 00	 ret	 8
?OnShowWeaponMesh@ioClientAniEventHandler@@IAEXPBUAniEventTime@@PBVioAnimation@@@Z ENDP ; ioClientAniEventHandler::OnShowWeaponMesh
_TEXT	ENDS
PUBLIC	??_C@_04FANNOMIB@hand?$AA@			; `string'
PUBLIC	??_C@_04IEJGKNJ@body?$AA@			; `string'
PUBLIC	?OnShowArmorMesh@ioClientAniEventHandler@@IAEXPBUAniEventTime@@PBVioAnimation@@@Z ; ioClientAniEventHandler::OnShowArmorMesh
;	COMDAT ??_C@_04FANNOMIB@hand?$AA@
; File d:\lost saga for developer\youtube\tutorial\source\src\lsclient\iobasechar.h
CONST	SEGMENT
??_C@_04FANNOMIB@hand?$AA@ DB 'hand', 00H		; `string'
CONST	ENDS
;	COMDAT ??_C@_04IEJGKNJ@body?$AA@
CONST	SEGMENT
??_C@_04IEJGKNJ@body?$AA@ DB 'body', 00H		; `string'
; Function compile flags: /Ogsp
; File d:\lost saga for developer\youtube\tutorial\source\src\lsclient\ioclientanieventhandler.cpp
CONST	ENDS
;	COMDAT ?OnShowArmorMesh@ioClientAniEventHandler@@IAEXPBUAniEventTime@@PBVioAnimation@@@Z
_TEXT	SEGMENT
_pArmorItem$ = -4					; size = 4
tv196 = 8						; size = 4
$T539020 = 8						; size = 1
$T539012 = 8						; size = 1
$T539008 = 8						; size = 1
_pEvent$ = 8						; size = 4
_pNotifier$ = 12					; size = 4
?OnShowArmorMesh@ioClientAniEventHandler@@IAEXPBUAniEventTime@@PBVioAnimation@@@Z PROC ; ioClientAniEventHandler::OnShowArmorMesh, COMDAT
; _this$ = ecx

; 684  : {

  00000	55		 push	 ebp
  00001	8b ec		 mov	 ebp, esp
  00003	51		 push	 ecx
  00004	53		 push	 ebx
  00005	8b d9		 mov	 ebx, ecx

; 685  : 	const ioArmorItem *pArmorItem = m_pChar->GetArmor();

  00007	8b 4b 18	 mov	 ecx, DWORD PTR [ebx+24]
  0000a	e8 00 00 00 00	 call	 ?GetArmor@ioBaseChar@@QBEPAVioArmorItem@@XZ ; ioBaseChar::GetArmor
  0000f	89 45 fc	 mov	 DWORD PTR _pArmorItem$[ebp], eax

; 686  : 	if( !pArmorItem ) return;

  00012	85 c0		 test	 eax, eax
  00014	0f 84 cc 00 00
	00		 je	 $LN1@OnShowArmo

; 687  : 
; 688  : 	if( strcmp( pEvent->szSubInfo.c_str(), "body" ) == 0 )

  0001a	8b 4d 08	 mov	 ecx, DWORD PTR _pEvent$[ebp]
  0001d	56		 push	 esi
  0001e	83 c1 14	 add	 ecx, 20			; 00000014H
  00021	57		 push	 edi
  00022	89 4d 08	 mov	 DWORD PTR tv196[ebp], ecx
  00025	bf 00 00 00 00	 mov	 edi, OFFSET ??_C@_04IEJGKNJ@body?$AA@
  0002a	ff 15 00 00 00
	00		 call	 DWORD PTR __imp_?c_str@ioHashString@@QBEPBDXZ
  00030	8b f0		 mov	 esi, eax
  00032	6a 05		 push	 5
  00034	59		 pop	 ecx
  00035	33 c0		 xor	 eax, eax
  00037	f3 a6		 repe cmpsb
  00039	75 28		 jne	 SHORT $LN4@OnShowArmo

; 689  : 		ShowMesh( pArmorItem->GetBodyMesh(m_pChar), pArmorItem->GetItemEquipEffect(m_pChar->IsMale()), pNotifier );

  0003b	8b 43 18	 mov	 eax, DWORD PTR [ebx+24]
  0003e	8a 80 20 03 00
	00		 mov	 al, BYTE PTR [eax+800]
  00044	ff 75 0c	 push	 DWORD PTR _pNotifier$[ebp]
  00047	8b 4d fc	 mov	 ecx, DWORD PTR _pArmorItem$[ebp]
  0004a	88 45 08	 mov	 BYTE PTR $T539008[ebp], al
  0004d	ff 75 08	 push	 DWORD PTR $T539008[ebp]
  00050	e8 00 00 00 00	 call	 ?GetItemEquipEffect@ioItem@@QBEABVioHashString@@_N@Z ; ioItem::GetItemEquipEffect
  00055	8b 4d fc	 mov	 ecx, DWORD PTR _pArmorItem$[ebp]
  00058	50		 push	 eax
  00059	ff 73 18	 push	 DWORD PTR [ebx+24]
  0005c	e8 00 00 00 00	 call	 ?GetBodyMesh@ioArmorItem@@QBEABVioHashString@@PAVioBaseChar@@@Z ; ioArmorItem::GetBodyMesh
  00061	eb 79		 jmp	 SHORT $LN20@OnShowArmo
$LN4@OnShowArmo:

; 690  : 	else if( strcmp( pEvent->szSubInfo.c_str(), "hand" ) == 0 )

  00063	8b 4d 08	 mov	 ecx, DWORD PTR tv196[ebp]
  00066	bf 00 00 00 00	 mov	 edi, OFFSET ??_C@_04FANNOMIB@hand?$AA@
  0006b	ff 15 00 00 00
	00		 call	 DWORD PTR __imp_?c_str@ioHashString@@QBEPBDXZ
  00071	8b f0		 mov	 esi, eax
  00073	6a 05		 push	 5
  00075	33 c0		 xor	 eax, eax

; 691  : 		ShowMesh( pArmorItem->GetHandMesh(m_pChar), pArmorItem->GetItemEquipEffect(m_pChar->IsMale()), pNotifier );

  00077	8b 43 18	 mov	 eax, DWORD PTR [ebx+24]
  0007a	8a 80 20 03 00
	00		 mov	 al, BYTE PTR [eax+800]
  00080	59		 pop	 ecx
  00081	f3 a6		 repe cmpsb
  00083	ff 75 0c	 push	 DWORD PTR _pNotifier$[ebp]
  00086	88 45 08	 mov	 BYTE PTR $T539012[ebp], al
  00089	ff 75 08	 push	 DWORD PTR $T539012[ebp]
  0008c	75 0d		 jne	 SHORT $LN2@OnShowArmo
  0008e	8b 4d fc	 mov	 ecx, DWORD PTR _pArmorItem$[ebp]
  00091	e8 00 00 00 00	 call	 ?GetItemEquipEffect@ioItem@@QBEABVioHashString@@_N@Z ; ioItem::GetItemEquipEffect
  00096	8b 4d fc	 mov	 ecx, DWORD PTR _pArmorItem$[ebp]

; 692  : 	else

  00099	eb 38		 jmp	 SHORT $LN21@OnShowArmo
$LN2@OnShowArmo:

; 693  : 	{
; 694  : 		ShowMesh( pArmorItem->GetBodyMesh(m_pChar), pArmorItem->GetItemEquipEffect(m_pChar->IsMale()), pNotifier );

  0009b	8b 75 fc	 mov	 esi, DWORD PTR _pArmorItem$[ebp]
  0009e	8b ce		 mov	 ecx, esi
  000a0	e8 00 00 00 00	 call	 ?GetItemEquipEffect@ioItem@@QBEABVioHashString@@_N@Z ; ioItem::GetItemEquipEffect
  000a5	50		 push	 eax
  000a6	ff 73 18	 push	 DWORD PTR [ebx+24]
  000a9	8b ce		 mov	 ecx, esi
  000ab	e8 00 00 00 00	 call	 ?GetBodyMesh@ioArmorItem@@QBEABVioHashString@@PAVioBaseChar@@@Z ; ioArmorItem::GetBodyMesh
  000b0	50		 push	 eax
  000b1	8b cb		 mov	 ecx, ebx
  000b3	e8 00 00 00 00	 call	 ?ShowMesh@ioClientAniEventHandler@@IAEXABVioHashString@@0PBVioAnimation@@@Z ; ioClientAniEventHandler::ShowMesh

; 695  : 		ShowMesh( pArmorItem->GetHandMesh(m_pChar), pArmorItem->GetItemEquipEffect(m_pChar->IsMale()), pNotifier );

  000b8	8b 43 18	 mov	 eax, DWORD PTR [ebx+24]
  000bb	8a 80 20 03 00
	00		 mov	 al, BYTE PTR [eax+800]
  000c1	ff 75 0c	 push	 DWORD PTR _pNotifier$[ebp]
  000c4	88 45 08	 mov	 BYTE PTR $T539020[ebp], al
  000c7	ff 75 08	 push	 DWORD PTR $T539020[ebp]
  000ca	8b ce		 mov	 ecx, esi
  000cc	e8 00 00 00 00	 call	 ?GetItemEquipEffect@ioItem@@QBEABVioHashString@@_N@Z ; ioItem::GetItemEquipEffect
  000d1	8b ce		 mov	 ecx, esi
$LN21@OnShowArmo:
  000d3	50		 push	 eax
  000d4	ff 73 18	 push	 DWORD PTR [ebx+24]
  000d7	e8 00 00 00 00	 call	 ?GetHandMesh@ioArmorItem@@QBEABVioHashString@@PAVioBaseChar@@@Z ; ioArmorItem::GetHandMesh
$LN20@OnShowArmo:
  000dc	50		 push	 eax
  000dd	8b cb		 mov	 ecx, ebx
  000df	e8 00 00 00 00	 call	 ?ShowMesh@ioClientAniEventHandler@@IAEXABVioHashString@@0PBVioAnimation@@@Z ; ioClientAniEventHandler::ShowMesh
  000e4	5f		 pop	 edi
  000e5	5e		 pop	 esi
$LN1@OnShowArmo:
  000e6	5b		 pop	 ebx

; 696  : 	}
; 697  : }

  000e7	c9		 leave
  000e8	c2 08 00	 ret	 8
?OnShowArmorMesh@ioClientAniEventHandler@@IAEXPBUAniEventTime@@PBVioAnimation@@@Z ENDP ; ioClientAniEventHandler::OnShowArmorMesh
_TEXT	ENDS
PUBLIC	?OnShowHelmMesh@ioClientAniEventHandler@@IAEXPBUAniEventTime@@PBVioAnimation@@@Z ; ioClientAniEventHandler::OnShowHelmMesh
EXTRN	?GetEquipMesh@ioHelmetItem@@QBEABVioHashString@@PAVioBaseChar@@@Z:PROC ; ioHelmetItem::GetEquipMesh
EXTRN	?GetHelmet@ioBaseChar@@QBEPAVioHelmetItem@@XZ:PROC ; ioBaseChar::GetHelmet
; Function compile flags: /Ogsp
;	COMDAT ?OnShowHelmMesh@ioClientAniEventHandler@@IAEXPBUAniEventTime@@PBVioAnimation@@@Z
_TEXT	SEGMENT
$T539032 = -4						; size = 1
_pEvent$ = 8						; size = 4
_pNotifier$ = 12					; size = 4
?OnShowHelmMesh@ioClientAniEventHandler@@IAEXPBUAniEventTime@@PBVioAnimation@@@Z PROC ; ioClientAniEventHandler::OnShowHelmMesh, COMDAT
; _this$ = ecx

; 700  : {

  00000	55		 push	 ebp
  00001	8b ec		 mov	 ebp, esp
  00003	51		 push	 ecx
  00004	56		 push	 esi
  00005	8b f1		 mov	 esi, ecx

; 701  : 	const ioHelmetItem *pHelmetItem = m_pChar->GetHelmet();

  00007	8b 4e 18	 mov	 ecx, DWORD PTR [esi+24]
  0000a	57		 push	 edi
  0000b	e8 00 00 00 00	 call	 ?GetHelmet@ioBaseChar@@QBEPAVioHelmetItem@@XZ ; ioBaseChar::GetHelmet
  00010	8b f8		 mov	 edi, eax

; 702  : 	if( !pHelmetItem ) return;

  00012	85 ff		 test	 edi, edi
  00014	74 2c		 je	 SHORT $LN2@OnShowHelm

; 703  : 
; 704  : 	ShowMesh( pHelmetItem->GetEquipMesh(m_pChar), pHelmetItem->GetItemEquipEffect(m_pChar->IsMale()), pNotifier );

  00016	8b 46 18	 mov	 eax, DWORD PTR [esi+24]
  00019	8a 80 20 03 00
	00		 mov	 al, BYTE PTR [eax+800]
  0001f	ff 75 0c	 push	 DWORD PTR _pNotifier$[ebp]
  00022	88 45 fc	 mov	 BYTE PTR $T539032[ebp], al
  00025	ff 75 fc	 push	 DWORD PTR $T539032[ebp]
  00028	8b cf		 mov	 ecx, edi
  0002a	e8 00 00 00 00	 call	 ?GetItemEquipEffect@ioItem@@QBEABVioHashString@@_N@Z ; ioItem::GetItemEquipEffect
  0002f	50		 push	 eax
  00030	ff 76 18	 push	 DWORD PTR [esi+24]
  00033	8b cf		 mov	 ecx, edi
  00035	e8 00 00 00 00	 call	 ?GetEquipMesh@ioHelmetItem@@QBEABVioHashString@@PAVioBaseChar@@@Z ; ioHelmetItem::GetEquipMesh
  0003a	50		 push	 eax
  0003b	8b ce		 mov	 ecx, esi
  0003d	e8 00 00 00 00	 call	 ?ShowMesh@ioClientAniEventHandler@@IAEXABVioHashString@@0PBVioAnimation@@@Z ; ioClientAniEventHandler::ShowMesh
$LN2@OnShowHelm:
  00042	5f		 pop	 edi
  00043	5e		 pop	 esi

; 705  : }

  00044	c9		 leave
  00045	c2 08 00	 ret	 8
?OnShowHelmMesh@ioClientAniEventHandler@@IAEXPBUAniEventTime@@PBVioAnimation@@@Z ENDP ; ioClientAniEventHandler::OnShowHelmMesh
_TEXT	ENDS
PUBLIC	?OnShowCloakMesh@ioClientAniEventHandler@@IAEXPBUAniEventTime@@PBVioAnimation@@@Z ; ioClientAniEventHandler::OnShowCloakMesh
EXTRN	?GetEquipMesh@ioCloakItem@@QBEABVioHashString@@PAVioBaseChar@@@Z:PROC ; ioCloakItem::GetEquipMesh
EXTRN	?GetCloak@ioBaseChar@@QBEPAVioCloakItem@@XZ:PROC ; ioBaseChar::GetCloak
; Function compile flags: /Ogsp
;	COMDAT ?OnShowCloakMesh@ioClientAniEventHandler@@IAEXPBUAniEventTime@@PBVioAnimation@@@Z
_TEXT	SEGMENT
$T539038 = -4						; size = 1
_pEvent$ = 8						; size = 4
_pNotifier$ = 12					; size = 4
?OnShowCloakMesh@ioClientAniEventHandler@@IAEXPBUAniEventTime@@PBVioAnimation@@@Z PROC ; ioClientAniEventHandler::OnShowCloakMesh, COMDAT
; _this$ = ecx

; 708  : {

  00000	55		 push	 ebp
  00001	8b ec		 mov	 ebp, esp
  00003	51		 push	 ecx
  00004	56		 push	 esi
  00005	8b f1		 mov	 esi, ecx

; 709  : 	const ioCloakItem *pCloakItem = m_pChar->GetCloak();

  00007	8b 4e 18	 mov	 ecx, DWORD PTR [esi+24]
  0000a	57		 push	 edi
  0000b	e8 00 00 00 00	 call	 ?GetCloak@ioBaseChar@@QBEPAVioCloakItem@@XZ ; ioBaseChar::GetCloak
  00010	8b f8		 mov	 edi, eax

; 710  : 	if( !pCloakItem ) return;

  00012	85 ff		 test	 edi, edi
  00014	74 2c		 je	 SHORT $LN2@OnShowCloa

; 711  : 
; 712  : 	ShowMesh( pCloakItem->GetEquipMesh(m_pChar), pCloakItem->GetItemEquipEffect(m_pChar->IsMale()), pNotifier );

  00016	8b 46 18	 mov	 eax, DWORD PTR [esi+24]
  00019	8a 80 20 03 00
	00		 mov	 al, BYTE PTR [eax+800]
  0001f	ff 75 0c	 push	 DWORD PTR _pNotifier$[ebp]
  00022	88 45 fc	 mov	 BYTE PTR $T539038[ebp], al
  00025	ff 75 fc	 push	 DWORD PTR $T539038[ebp]
  00028	8b cf		 mov	 ecx, edi
  0002a	e8 00 00 00 00	 call	 ?GetItemEquipEffect@ioItem@@QBEABVioHashString@@_N@Z ; ioItem::GetItemEquipEffect
  0002f	50		 push	 eax
  00030	ff 76 18	 push	 DWORD PTR [esi+24]
  00033	8b cf		 mov	 ecx, edi
  00035	e8 00 00 00 00	 call	 ?GetEquipMesh@ioCloakItem@@QBEABVioHashString@@PAVioBaseChar@@@Z ; ioCloakItem::GetEquipMesh
  0003a	50		 push	 eax
  0003b	8b ce		 mov	 ecx, esi
  0003d	e8 00 00 00 00	 call	 ?ShowMesh@ioClientAniEventHandler@@IAEXABVioHashString@@0PBVioAnimation@@@Z ; ioClientAniEventHandler::ShowMesh
$LN2@OnShowCloa:
  00042	5f		 pop	 edi
  00043	5e		 pop	 esi

; 713  : }

  00044	c9		 leave
  00045	c2 08 00	 ret	 8
?OnShowCloakMesh@ioClientAniEventHandler@@IAEXPBUAniEventTime@@PBVioAnimation@@@Z ENDP ; ioClientAniEventHandler::OnShowCloakMesh
_TEXT	ENDS
PUBLIC	_rkMeshName$GSCopy$
PUBLIC	_pNotifier$GSCopy$
PUBLIC	?HideMesh@ioClientAniEventHandler@@IAEXABVioHashString@@0PBVioAnimation@@@Z ; ioClientAniEventHandler::HideMesh
;	COMDAT xdata$x
xdata$x	SEGMENT
__unwindtable$?HideMesh@ioClientAniEventHandler@@IAEXABVioHashString@@0PBVioAnimation@@@Z DD 0ffffffffH
	DD	FLAT:__unwindfunclet$?HideMesh@ioClientAniEventHandler@@IAEXABVioHashString@@0PBVioAnimation@@@Z$0
	DD	00H
	DD	FLAT:__unwindfunclet$?HideMesh@ioClientAniEventHandler@@IAEXABVioHashString@@0PBVioAnimation@@@Z$1
	DD	00H
	DD	FLAT:__unwindfunclet$?HideMesh@ioClientAniEventHandler@@IAEXABVioHashString@@0PBVioAnimation@@@Z$3
	DD	00H
	DD	FLAT:__unwindfunclet$?HideMesh@ioClientAniEventHandler@@IAEXABVioHashString@@0PBVioAnimation@@@Z$2
__ehfuncinfo$?HideMesh@ioClientAniEventHandler@@IAEXABVioHashString@@0PBVioAnimation@@@Z DD 019930522H
	DD	04H
	DD	FLAT:__unwindtable$?HideMesh@ioClientAniEventHandler@@IAEXABVioHashString@@0PBVioAnimation@@@Z
	DD	2 DUP(00H)
	DD	2 DUP(00H)
	DD	00H
	DD	01H
; Function compile flags: /Ogsp
xdata$x	ENDS
;	COMDAT ?HideMesh@ioClientAniEventHandler@@IAEXABVioHashString@@0PBVioAnimation@@@Z
_TEXT	SEGMENT
_kInfo$527600 = -364					; size = 32
_szNewMeshName$527433 = -332				; size = 16
_pNotifier$GSCopy$ = -316				; size = 4
tv944 = -312						; size = 4
_rkMeshName$GSCopy$ = -312				; size = 4
$T539050 = -308						; size = 1
_iter$527591 = -308					; size = 4
_szFullName$527436 = -304				; size = 260
___encStr$527440 = -44					; size = 21
$T539042 = -36						; size = 16
__$EHRec$ = -12						; size = 12
_rkMeshName$ = 8					; size = 4
_rkEffectName$ = 12					; size = 4
_pNotifier$ = 16					; size = 4
?HideMesh@ioClientAniEventHandler@@IAEXABVioHashString@@0PBVioAnimation@@@Z PROC ; ioClientAniEventHandler::HideMesh, COMDAT
; _this$ = ecx

; 918  : {

  00000	68 60 01 00 00	 push	 352			; 00000160H
  00005	b8 00 00 00 00	 mov	 eax, __ehhandler$?HideMesh@ioClientAniEventHandler@@IAEXABVioHashString@@0PBVioAnimation@@@Z
  0000a	e8 00 00 00 00	 call	 __EH_prolog3_GS
  0000f	8b 45 0c	 mov	 eax, DWORD PTR _rkEffectName$[ebp]
  00012	8b 7d 08	 mov	 edi, DWORD PTR _rkMeshName$[ebp]
  00015	8b f1		 mov	 esi, ecx
  00017	8b 4d 10	 mov	 ecx, DWORD PTR _pNotifier$[ebp]

; 919  : 	HideMeshLinkEffect( rkEffectName, pNotifier );

  0001a	51		 push	 ecx

; 955  : 		}
; 956  : 
; 957  : 		AniEventInfo kInfo;

  0001b	89 8d c4 fe ff
	ff		 mov	 DWORD PTR _pNotifier$GSCopy$[ebp], ecx
  00021	50		 push	 eax
  00022	8b ce		 mov	 ecx, esi
  00024	89 bd c8 fe ff
	ff		 mov	 DWORD PTR _rkMeshName$GSCopy$[ebp], edi
  0002a	e8 00 00 00 00	 call	 ?HideMeshLinkEffect@ioClientAniEventHandler@@IAEXABVioHashString@@PBVioAnimation@@@Z ; ioClientAniEventHandler::HideMeshLinkEffect
  0002f	8b cf		 mov	 ecx, edi
  00031	ff 15 00 00 00
	00		 call	 DWORD PTR __imp_?IsEmpty@ioHashString@@QBE_NXZ
  00037	84 c0		 test	 al, al
  00039	0f 85 ac 01 00
	00		 jne	 $LN107@HideMesh

; 920  : 
; 921  : 	if( !rkMeshName.IsEmpty() )
; 922  : 	{
; 923  : 		ioHashString szNewMeshName = Help::ConvertName( rkMeshName, m_pChar->IsMale() );

  0003f	8b 46 18	 mov	 eax, DWORD PTR [esi+24]
  00042	8a 80 20 03 00
	00		 mov	 al, BYTE PTR [eax+800]
  00048	88 85 cc fe ff
	ff		 mov	 BYTE PTR $T539050[ebp], al
  0004e	ff b5 cc fe ff
	ff		 push	 DWORD PTR $T539050[ebp]
  00054	8d 85 b4 fe ff
	ff		 lea	 eax, DWORD PTR _szNewMeshName$527433[ebp]
  0005a	57		 push	 edi
  0005b	50		 push	 eax
  0005c	e8 00 00 00 00	 call	 ?ConvertName@Help@@YA?AVioHashString@@ABV2@_N@Z ; Help::ConvertName
  00061	83 c4 0c	 add	 esp, 12			; 0000000cH

; 924  : 		if( !m_pChar->IsMale() )

  00064	8b 46 18	 mov	 eax, DWORD PTR [esi+24]
  00067	83 65 fc 00	 and	 DWORD PTR __$EHRec$[ebp+8], 0
  0006b	80 b8 20 03 00
	00 00		 cmp	 BYTE PTR [eax+800], 0
  00072	8b 1d 00 00 00
	00		 mov	 ebx, DWORD PTR __imp_??1ioHashString@@QAE@XZ
  00078	8b 3d 00 00 00
	00		 mov	 edi, DWORD PTR __imp_??4ioHashString@@QAEAAV0@ABV0@@Z
  0007e	0f 85 c0 00 00
	00		 jne	 $LN6@HideMesh

; 925  : 		{
; 926  : 			char szFullName[MAX_PATH]="";

  00084	68 03 01 00 00	 push	 259			; 00000103H
  00089	8d 85 d1 fe ff
	ff		 lea	 eax, DWORD PTR _szFullName$527436[ebp+1]
  0008f	6a 00		 push	 0
  00091	50		 push	 eax
  00092	c6 85 d0 fe ff
	ff 00		 mov	 BYTE PTR _szFullName$527436[ebp], 0
  00099	e8 00 00 00 00	 call	 _memset
  0009e	83 c4 0c	 add	 esp, 12			; 0000000cH
  000a1	6a 05		 push	 5

; 927  : 			StringCbPrintf_e( szFullName, sizeof( szFullName ), "resource\\mesh\\%s.msh" , szNewMeshName.c_str() );

  000a3	c7 45 d4 9f 89
	98 85		 mov	 DWORD PTR ___encStr$527440[ebp], -2053600865 ; 8598899fH
  000aa	c7 45 d8 98 9e
	88 8f		 mov	 DWORD PTR ___encStr$527440[ebp+4], -1886871912 ; 8f889e98H
  000b1	c7 45 dc b1 81
	8e 99		 mov	 DWORD PTR ___encStr$527440[ebp+8], -1718713935 ; 998e81b1H
  000b8	c7 45 e0 85 b0
	ce 99		 mov	 DWORD PTR ___encStr$527440[ebp+12], -1714507643 ; 99ceb085H
  000bf	c7 45 e4 c3 81
	98 82		 mov	 DWORD PTR ___encStr$527440[ebp+16], -2103934525 ; 829881c3H
  000c6	8d 45 d4	 lea	 eax, DWORD PTR ___encStr$527440[ebp]
  000c9	c6 45 e8 00	 mov	 BYTE PTR ___encStr$527440[ebp+20], 0
  000cd	59		 pop	 ecx
$LL122@HideMesh:
  000ce	81 30 ed ec eb
	ea		 xor	 DWORD PTR [eax], -353637139 ; eaebecedH
  000d4	83 c0 04	 add	 eax, 4
  000d7	49		 dec	 ecx
  000d8	75 f4		 jne	 SHORT $LL122@HideMesh
  000da	8d 8d b4 fe ff
	ff		 lea	 ecx, DWORD PTR _szNewMeshName$527433[ebp]
  000e0	ff 15 00 00 00
	00		 call	 DWORD PTR __imp_?c_str@ioHashString@@QBEPBDXZ
  000e6	50		 push	 eax
  000e7	8d 45 d4	 lea	 eax, DWORD PTR ___encStr$527440[ebp]
  000ea	50		 push	 eax
  000eb	8d 85 d0 fe ff
	ff		 lea	 eax, DWORD PTR _szFullName$527436[ebp]
  000f1	68 04 01 00 00	 push	 260			; 00000104H
  000f6	50		 push	 eax
  000f7	e8 00 00 00 00	 call	 ?StringCbPrintfA@@YAJPADIPBDZZ ; StringCbPrintfA
  000fc	83 c4 10	 add	 esp, 16			; 00000010H

; 928  : 			if( !g_ResourceLoader.IsFileExist( szFullName ) )

  000ff	8d 85 d0 fe ff
	ff		 lea	 eax, DWORD PTR _szFullName$527436[ebp]
  00105	6a 00		 push	 0
  00107	50		 push	 eax
  00108	ff 15 00 00 00
	00		 call	 DWORD PTR __imp_?GetInstance@ioResourceLoader@@SAAAV1@XZ
  0010e	8b c8		 mov	 ecx, eax
  00110	ff 15 00 00 00
	00		 call	 DWORD PTR __imp_?IsFileExist@ioResourceLoader@@QAE_NPBD_N@Z
  00116	84 c0		 test	 al, al
  00118	75 2a		 jne	 SHORT $LN6@HideMesh

; 929  : 			{
; 930  : 				szNewMeshName = Help::ConvertName( rkMeshName, true );

  0011a	6a 01		 push	 1
  0011c	ff b5 c8 fe ff
	ff		 push	 DWORD PTR _rkMeshName$GSCopy$[ebp]
  00122	8d 45 dc	 lea	 eax, DWORD PTR $T539042[ebp]
  00125	50		 push	 eax
  00126	e8 00 00 00 00	 call	 ?ConvertName@Help@@YA?AVioHashString@@ABV2@_N@Z ; Help::ConvertName
  0012b	83 c4 0c	 add	 esp, 12			; 0000000cH
  0012e	50		 push	 eax
  0012f	8d 8d b4 fe ff
	ff		 lea	 ecx, DWORD PTR _szNewMeshName$527433[ebp]
  00135	c6 45 fc 01	 mov	 BYTE PTR __$EHRec$[ebp+8], 1
  00139	ff d7		 call	 edi
  0013b	8d 4d dc	 lea	 ecx, DWORD PTR $T539042[ebp]
  0013e	c6 45 fc 00	 mov	 BYTE PTR __$EHRec$[ebp+8], 0
  00142	ff d3		 call	 ebx
$LN6@HideMesh:

; 931  : 			}
; 932  : 		}
; 933  : 
; 934  : 		m_pOwner->SetEntityVisible( szNewMeshName, false );

  00144	8b 4e 04	 mov	 ecx, DWORD PTR [esi+4]
  00147	6a 00		 push	 0
  00149	8d 85 b4 fe ff
	ff		 lea	 eax, DWORD PTR _szNewMeshName$527433[ebp]
  0014f	50		 push	 eax
  00150	ff 15 00 00 00
	00		 call	 DWORD PTR __imp_?SetEntityVisible@ioEntityGroup@@QAEXABVioHashString@@_N@Z

; 935  : 
; 936  : 		bool bFind = false;
; 937  : 		AniEventInfoList::iterator iter = m_HideMeshList.begin();

  00156	8d 46 08	 lea	 eax, DWORD PTR [esi+8]
  00159	89 85 c8 fe ff
	ff		 mov	 DWORD PTR tv944[ebp], eax
  0015f	8b 00		 mov	 eax, DWORD PTR [eax]
  00161	89 85 cc fe ff
	ff		 mov	 DWORD PTR _iter$527591[ebp], eax

; 938  : 		while( iter != m_HideMeshList.end() )

  00167	3b 46 0c	 cmp	 eax, DWORD PTR [esi+12]
  0016a	0f 85 89 00 00
	00		 jne	 $LN5@HideMesh
$LN1@HideMesh:

; 955  : 		}
; 956  : 
; 957  : 		AniEventInfo kInfo;

  00170	8b 35 00 00 00
	00		 mov	 esi, DWORD PTR __imp_??0ioHashString@@QAE@XZ
  00176	8d 8d 94 fe ff
	ff		 lea	 ecx, DWORD PTR _kInfo$527600[ebp]
  0017c	ff d6		 call	 esi
  0017e	8d 8d a4 fe ff
	ff		 lea	 ecx, DWORD PTR _kInfo$527600[ebp+16]
  00184	c6 45 fc 02	 mov	 BYTE PTR __$EHRec$[ebp+8], 2
  00188	ff d6		 call	 esi

; 958  : 		kInfo.m_AniName   = pNotifier->GetName();

  0018a	8b 8d c4 fe ff
	ff		 mov	 ecx, DWORD PTR _pNotifier$GSCopy$[ebp]
  00190	c6 45 fc 03	 mov	 BYTE PTR __$EHRec$[ebp+8], 3
  00194	ff 15 00 00 00
	00		 call	 DWORD PTR __imp_?GetName@ioAnimation@@QBEABVioHashString@@XZ
  0019a	50		 push	 eax
  0019b	8d 8d 94 fe ff
	ff		 lea	 ecx, DWORD PTR _kInfo$527600[ebp]
  001a1	ff d7		 call	 edi

; 959  : 		kInfo.m_EventName = szNewMeshName;

  001a3	8d 85 b4 fe ff
	ff		 lea	 eax, DWORD PTR _szNewMeshName$527433[ebp]
  001a9	50		 push	 eax
  001aa	8d 8d a4 fe ff
	ff		 lea	 ecx, DWORD PTR _kInfo$527600[ebp+16]
  001b0	ff d7		 call	 edi

; 960  : 
; 961  : 		m_HideMeshList.push_back( kInfo );

  001b2	8b 8d c8 fe ff
	ff		 mov	 ecx, DWORD PTR tv944[ebp]
  001b8	8d 85 94 fe ff
	ff		 lea	 eax, DWORD PTR _kInfo$527600[ebp]
  001be	50		 push	 eax
  001bf	e8 00 00 00 00	 call	 ?push_back@?$vector@UAniEventInfo@@V?$allocator@UAniEventInfo@@@std@@@std@@QAEXABUAniEventInfo@@@Z ; std::vector<AniEventInfo,std::allocator<AniEventInfo> >::push_back

; 962  : 		pNotifier->SetEndEventNotify();

  001c4	8b 8d c4 fe ff
	ff		 mov	 ecx, DWORD PTR _pNotifier$GSCopy$[ebp]
  001ca	ff 15 00 00 00
	00		 call	 DWORD PTR __imp_?SetEndEventNotify@ioAnimation@@QBEXXZ

; 963  : 	}

  001d0	8d 8d 94 fe ff
	ff		 lea	 ecx, DWORD PTR _kInfo$527600[ebp]
  001d6	c6 45 fc 00	 mov	 BYTE PTR __$EHRec$[ebp+8], 0
  001da	e8 00 00 00 00	 call	 ??1AniEventInfo@@QAE@XZ
$LN172@HideMesh:
  001df	83 4d fc ff	 or	 DWORD PTR __$EHRec$[ebp+8], -1
  001e3	8d 8d b4 fe ff
	ff		 lea	 ecx, DWORD PTR _szNewMeshName$527433[ebp]
  001e9	ff d3		 call	 ebx
$LN107@HideMesh:

; 964  : }

  001eb	e8 00 00 00 00	 call	 __EH_epilog3_GS
  001f0	c2 0c 00	 ret	 12			; 0000000cH
$LL170@HideMesh:

; 938  : 		while( iter != m_HideMeshList.end() )

  001f3	8b 85 cc fe ff
	ff		 mov	 eax, DWORD PTR _iter$527591[ebp]
$LN5@HideMesh:

; 939  : 		{
; 940  : 			if( (*iter).m_EventName == szNewMeshName )

  001f9	8d 8d b4 fe ff
	ff		 lea	 ecx, DWORD PTR _szNewMeshName$527433[ebp]
  001ff	51		 push	 ecx
  00200	8d 48 10	 lea	 ecx, DWORD PTR [eax+16]
  00203	ff 15 00 00 00
	00		 call	 DWORD PTR __imp_??8ioHashString@@QBE_NABV0@@Z
  00209	84 c0		 test	 al, al
  0020b	75 17		 jne	 SHORT $LN166@HideMesh

; 941  : 			{
; 942  : 				bFind = true;
; 943  : 				break;
; 944  : 			}
; 945  : 			else
; 946  : 			{
; 947  : 				++iter;

  0020d	83 85 cc fe ff
	ff 20		 add	 DWORD PTR _iter$527591[ebp], 32 ; 00000020H
  00214	8b 85 cc fe ff
	ff		 mov	 eax, DWORD PTR _iter$527591[ebp]
  0021a	3b 46 0c	 cmp	 eax, DWORD PTR [esi+12]
  0021d	75 d4		 jne	 SHORT $LL170@HideMesh

; 939  : 		{
; 940  : 			if( (*iter).m_EventName == szNewMeshName )

  0021f	e9 4c ff ff ff	 jmp	 $LN1@HideMesh
$LN166@HideMesh:

; 948  : 			}
; 949  : 		}
; 950  : 
; 951  : 		if( bFind )
; 952  : 		{
; 953  : 			(*iter).m_AniName = pNotifier->GetName();

  00224	8b 8d c4 fe ff
	ff		 mov	 ecx, DWORD PTR _pNotifier$GSCopy$[ebp]
  0022a	ff 15 00 00 00
	00		 call	 DWORD PTR __imp_?GetName@ioAnimation@@QBEABVioHashString@@XZ
  00230	8b 8d cc fe ff
	ff		 mov	 ecx, DWORD PTR _iter$527591[ebp]
  00236	50		 push	 eax
  00237	ff d7		 call	 edi

; 954  : 			return;

  00239	eb a4		 jmp	 SHORT $LN172@HideMesh
_TEXT	ENDS
;	COMDAT text$x
text$x	SEGMENT
__unwindfunclet$?HideMesh@ioClientAniEventHandler@@IAEXABVioHashString@@0PBVioAnimation@@@Z$0:
  00000	8d 8d b4 fe ff
	ff		 lea	 ecx, DWORD PTR _szNewMeshName$527433[ebp]
  00006	ff 25 00 00 00
	00		 jmp	 DWORD PTR __imp_??1ioHashString@@QAE@XZ
__unwindfunclet$?HideMesh@ioClientAniEventHandler@@IAEXABVioHashString@@0PBVioAnimation@@@Z$1:
  0000c	8d 4d dc	 lea	 ecx, DWORD PTR $T539042[ebp]
  0000f	ff 25 00 00 00
	00		 jmp	 DWORD PTR __imp_??1ioHashString@@QAE@XZ
__unwindfunclet$?HideMesh@ioClientAniEventHandler@@IAEXABVioHashString@@0PBVioAnimation@@@Z$3:
  00015	8d 8d 94 fe ff
	ff		 lea	 ecx, DWORD PTR _kInfo$527600[ebp]
  0001b	ff 25 00 00 00
	00		 jmp	 DWORD PTR __imp_??1ioHashString@@QAE@XZ
__unwindfunclet$?HideMesh@ioClientAniEventHandler@@IAEXABVioHashString@@0PBVioAnimation@@@Z$2:
  00021	8d 8d 94 fe ff
	ff		 lea	 ecx, DWORD PTR _kInfo$527600[ebp]
  00027	e9 00 00 00 00	 jmp	 ??1AniEventInfo@@QAE@XZ
__ehhandler$?HideMesh@ioClientAniEventHandler@@IAEXABVioHashString@@0PBVioAnimation@@@Z:
  0002c	8b 54 24 08	 mov	 edx, DWORD PTR [esp+8]
  00030	8d 42 0c	 lea	 eax, DWORD PTR [edx+12]
  00033	8b 8a 90 fe ff
	ff		 mov	 ecx, DWORD PTR [edx-368]
  00039	33 c8		 xor	 ecx, eax
  0003b	e8 00 00 00 00	 call	 @__security_check_cookie@4
  00040	8b 4a fc	 mov	 ecx, DWORD PTR [edx-4]
  00043	33 c8		 xor	 ecx, eax
  00045	e8 00 00 00 00	 call	 @__security_check_cookie@4
  0004a	b8 00 00 00 00	 mov	 eax, OFFSET __ehfuncinfo$?HideMesh@ioClientAniEventHandler@@IAEXABVioHashString@@0PBVioAnimation@@@Z
  0004f	e9 00 00 00 00	 jmp	 ___CxxFrameHandler3
text$x	ENDS
?HideMesh@ioClientAniEventHandler@@IAEXABVioHashString@@0PBVioAnimation@@@Z ENDP ; ioClientAniEventHandler::HideMesh
PUBLIC	??$_Uninitialized_copy@V?$_Vector_const_iterator@V?$_Vector_val@V?$basic_string@DU?$char_traits@D@std@@V?$allocator@D@2@@std@@V?$allocator@V?$basic_string@DU?$char_traits@D@std@@V?$allocator@D@2@@std@@@2@@std@@@std@@PAV?$basic_string@DU?$char_traits@D@std@@V?$allocator@D@2@@2@V?$allocator@V?$basic_string@DU?$char_traits@D@std@@V?$allocator@D@2@@std@@@2@@std@@YAPAV?$basic_string@DU?$char_traits@D@std@@V?$allocator@D@2@@0@V?$_Vector_const_iterator@V?$_Vector_val@V?$basic_string@DU?$char_traits@D@std@@V?$allocator@D@2@@std@@V?$allocator@V?$basic_string@DU?$char_traits@D@std@@V?$allocator@D@2@@std@@@2@@std@@@0@0PAV10@AAV?$allocator@V?$basic_string@DU?$char_traits@D@std@@V?$allocator@D@2@@std@@@0@@Z ; std::_Uninitialized_copy<std::_Vector_const_iterator<std::_Vector_val<std::basic_string<char,std::char_traits<char>,std::allocator<char> >,std::allocator<std::basic_string<char,std::char_traits<char>,std::allocator<char> > > > >,std::basic_string<char,std::char_traits<char>,std::allocator<char> > *,std::allocator<std::basic_string<char,std::char_traits<char>,std::allocator<char> > > >
; Function compile flags: /Ogsp
; File c:\program files (x86)\microsoft visual studio 10.0\vc\include\memory
;	COMDAT ??$_Uninitialized_copy@V?$_Vector_const_iterator@V?$_Vector_val@V?$basic_string@DU?$char_traits@D@std@@V?$allocator@D@2@@std@@V?$allocator@V?$basic_string@DU?$char_traits@D@std@@V?$allocator@D@2@@std@@@2@@std@@@std@@PAV?$basic_string@DU?$char_traits@D@std@@V?$allocator@D@2@@2@V?$allocator@V?$basic_string@DU?$char_traits@D@std@@V?$allocator@D@2@@std@@@2@@std@@YAPAV?$basic_string@DU?$char_traits@D@std@@V?$allocator@D@2@@0@V?$_Vector_const_iterator@V?$_Vector_val@V?$basic_string@DU?$char_traits@D@std@@V?$allocator@D@2@@std@@V?$allocator@V?$basic_string@DU?$char_traits@D@std@@V?$allocator@D@2@@std@@@2@@std@@@0@0PAV10@AAV?$allocator@V?$basic_string@DU?$char_traits@D@std@@V?$allocator@D@2@@std@@@0@@Z
_TEXT	SEGMENT
__Cat$539187 = -4					; size = 1
__First$ = 8						; size = 4
__Last$ = 12						; size = 4
__Dest$ = 16						; size = 4
__Al$ = 20						; size = 4
??$_Uninitialized_copy@V?$_Vector_const_iterator@V?$_Vector_val@V?$basic_string@DU?$char_traits@D@std@@V?$allocator@D@2@@std@@V?$allocator@V?$basic_string@DU?$char_traits@D@std@@V?$allocator@D@2@@std@@@2@@std@@@std@@PAV?$basic_string@DU?$char_traits@D@std@@V?$allocator@D@2@@2@V?$allocator@V?$basic_string@DU?$char_traits@D@std@@V?$allocator@D@2@@std@@@2@@std@@YAPAV?$basic_string@DU?$char_traits@D@std@@V?$allocator@D@2@@0@V?$_Vector_const_iterator@V?$_Vector_val@V?$basic_string@DU?$char_traits@D@std@@V?$allocator@D@2@@std@@V?$allocator@V?$basic_string@DU?$char_traits@D@std@@V?$allocator@D@2@@std@@@2@@std@@@0@0PAV10@AAV?$allocator@V?$basic_string@DU?$char_traits@D@std@@V?$allocator@D@2@@std@@@0@@Z PROC ; std::_Uninitialized_copy<std::_Vector_const_iterator<std::_Vector_val<std::basic_string<char,std::char_traits<char>,std::allocator<char> >,std::allocator<std::basic_string<char,std::char_traits<char>,std::allocator<char> > > > >,std::basic_string<char,std::char_traits<char>,std::allocator<char> > *,std::allocator<std::basic_string<char,std::char_traits<char>,std::allocator<char> > > >, COMDAT

; 412  : 	{	// copy [_First, _Last) to raw _Dest, using _Al

  00000	55		 push	 ebp
  00001	8b ec		 mov	 ebp, esp
  00003	51		 push	 ecx

; 413  : 	return (_Uninit_copy(_First, _Last, _Dest, _Al,
; 414  : 		_Ptr_cat(_First, _Dest)));

  00004	ff 75 fc	 push	 DWORD PTR __Cat$539187[ebp]
  00007	ff 75 14	 push	 DWORD PTR __Al$[ebp]
  0000a	ff 75 10	 push	 DWORD PTR __Dest$[ebp]
  0000d	ff 75 0c	 push	 DWORD PTR __Last$[ebp]
  00010	ff 75 08	 push	 DWORD PTR __First$[ebp]
  00013	e8 00 00 00 00	 call	 ??$_Uninit_copy@V?$_Vector_const_iterator@V?$_Vector_val@V?$basic_string@DU?$char_traits@D@std@@V?$allocator@D@2@@std@@V?$allocator@V?$basic_string@DU?$char_traits@D@std@@V?$allocator@D@2@@std@@@2@@std@@@std@@PAV?$basic_string@DU?$char_traits@D@std@@V?$allocator@D@2@@2@V?$allocator@V?$basic_string@DU?$char_traits@D@std@@V?$allocator@D@2@@std@@@2@@std@@YAPAV?$basic_string@DU?$char_traits@D@std@@V?$allocator@D@2@@0@V?$_Vector_const_iterator@V?$_Vector_val@V?$basic_string@DU?$char_traits@D@std@@V?$allocator@D@2@@std@@V?$allocator@V?$basic_string@DU?$char_traits@D@std@@V?$allocator@D@2@@std@@@2@@std@@@0@0PAV10@AAV?$allocator@V?$basic_string@DU?$char_traits@D@std@@V?$allocator@D@2@@std@@@0@U_Nonscalar_ptr_iterator_tag@0@@Z ; std::_Uninit_copy<std::_Vector_const_iterator<std::_Vector_val<std::basic_string<char,std::char_traits<char>,std::allocator<char> >,std::allocator<std::basic_string<char,std::char_traits<char>,std::allocator<char> > > > >,std::basic_string<char,std::char_traits<char>,std::allocator<char> > *,std::allocator<std::basic_string<char,std::char_traits<char>,std::allocator<char> > > >
  00018	83 c4 14	 add	 esp, 20			; 00000014H

; 415  : 	}

  0001b	c9		 leave
  0001c	c3		 ret	 0
??$_Uninitialized_copy@V?$_Vector_const_iterator@V?$_Vector_val@V?$basic_string@DU?$char_traits@D@std@@V?$allocator@D@2@@std@@V?$allocator@V?$basic_string@DU?$char_traits@D@std@@V?$allocator@D@2@@std@@@2@@std@@@std@@PAV?$basic_string@DU?$char_traits@D@std@@V?$allocator@D@2@@2@V?$allocator@V?$basic_string@DU?$char_traits@D@std@@V?$allocator@D@2@@std@@@2@@std@@YAPAV?$basic_string@DU?$char_traits@D@std@@V?$allocator@D@2@@0@V?$_Vector_const_iterator@V?$_Vector_val@V?$basic_string@DU?$char_traits@D@std@@V?$allocator@D@2@@std@@V?$allocator@V?$basic_string@DU?$char_traits@D@std@@V?$allocator@D@2@@std@@@2@@std@@@0@0PAV10@AAV?$allocator@V?$basic_string@DU?$char_traits@D@std@@V?$allocator@D@2@@std@@@0@@Z ENDP ; std::_Uninitialized_copy<std::_Vector_const_iterator<std::_Vector_val<std::basic_string<char,std::char_traits<char>,std::allocator<char> >,std::allocator<std::basic_string<char,std::char_traits<char>,std::allocator<char> > > > >,std::basic_string<char,std::char_traits<char>,std::allocator<char> > *,std::allocator<std::basic_string<char,std::char_traits<char>,std::allocator<char> > > >
_TEXT	ENDS
PUBLIC	?_Tidy@?$vector@V?$basic_string@DU?$char_traits@D@std@@V?$allocator@D@2@@std@@V?$allocator@V?$basic_string@DU?$char_traits@D@std@@V?$allocator@D@2@@std@@@2@@std@@IAEXXZ ; std::vector<std::basic_string<char,std::char_traits<char>,std::allocator<char> >,std::allocator<std::basic_string<char,std::char_traits<char>,std::allocator<char> > > >::_Tidy
; Function compile flags: /Ogsp
; File c:\program files (x86)\microsoft visual studio 10.0\vc\include\vector
;	COMDAT ?_Tidy@?$vector@V?$basic_string@DU?$char_traits@D@std@@V?$allocator@D@2@@std@@V?$allocator@V?$basic_string@DU?$char_traits@D@std@@V?$allocator@D@2@@std@@@2@@std@@IAEXXZ
_TEXT	SEGMENT
__Cat$539210 = -4					; size = 1
?_Tidy@?$vector@V?$basic_string@DU?$char_traits@D@std@@V?$allocator@D@2@@std@@V?$allocator@V?$basic_string@DU?$char_traits@D@std@@V?$allocator@D@2@@std@@@2@@std@@IAEXXZ PROC ; std::vector<std::basic_string<char,std::char_traits<char>,std::allocator<char> >,std::allocator<std::basic_string<char,std::char_traits<char>,std::allocator<char> > > >::_Tidy, COMDAT
; _this$ = ecx

; 1301 : 		{	// free all storage

  00000	55		 push	 ebp
  00001	8b ec		 mov	 ebp, esp
  00003	51		 push	 ecx
  00004	56		 push	 esi
  00005	8b f1		 mov	 esi, ecx

; 1302 : 		if (this->_Myfirst != 0)

  00007	83 3e 00	 cmp	 DWORD PTR [esi], 0
  0000a	74 21		 je	 SHORT $LN10@Tidy@4

; 1303 : 			{	// something to free, destroy and deallocate it
; 1304 : 			this->_Orphan_all();

  0000c	ff 15 00 00 00
	00		 call	 DWORD PTR __imp_?_Orphan_all@_Container_base0@std@@QAEXXZ

; 1305 : 			_Destroy(this->_Myfirst, this->_Mylast);

  00012	ff 75 fc	 push	 DWORD PTR __Cat$539210[ebp]
  00015	8d 46 0c	 lea	 eax, DWORD PTR [esi+12]
  00018	50		 push	 eax
  00019	ff 76 04	 push	 DWORD PTR [esi+4]
  0001c	ff 36		 push	 DWORD PTR [esi]
  0001e	e8 00 00 00 00	 call	 ??$_Destroy_range@V?$allocator@V?$basic_string@DU?$char_traits@D@std@@V?$allocator@D@2@@std@@@std@@@std@@YAXPAV?$basic_string@DU?$char_traits@D@std@@V?$allocator@D@2@@0@0AAV?$allocator@V?$basic_string@DU?$char_traits@D@std@@V?$allocator@D@2@@std@@@0@U_Nonscalar_ptr_iterator_tag@0@@Z ; std::_Destroy_range<std::allocator<std::basic_string<char,std::char_traits<char>,std::allocator<char> > > >

; 1306 : 			this->_Alval.deallocate(this->_Myfirst,
; 1307 : 				this->_Myend - this->_Myfirst);

  00023	ff 36		 push	 DWORD PTR [esi]
  00025	e8 00 00 00 00	 call	 ??3@YAXPAX@Z		; operator delete
  0002a	83 c4 14	 add	 esp, 20			; 00000014H
$LN10@Tidy@4:

; 1308 : 			}
; 1309 : 		this->_Myfirst = 0;

  0002d	83 26 00	 and	 DWORD PTR [esi], 0

; 1310 : 		this->_Mylast = 0;

  00030	83 66 04 00	 and	 DWORD PTR [esi+4], 0

; 1311 : 		this->_Myend = 0;

  00034	83 66 08 00	 and	 DWORD PTR [esi+8], 0
  00038	5e		 pop	 esi

; 1312 : 		}

  00039	c9		 leave
  0003a	c3		 ret	 0
?_Tidy@?$vector@V?$basic_string@DU?$char_traits@D@std@@V?$allocator@D@2@@std@@V?$allocator@V?$basic_string@DU?$char_traits@D@std@@V?$allocator@D@2@@std@@@2@@std@@IAEXXZ ENDP ; std::vector<std::basic_string<char,std::char_traits<char>,std::allocator<char> >,std::allocator<std::basic_string<char,std::char_traits<char>,std::allocator<char> > > >::_Tidy
_TEXT	ENDS
PUBLIC	_pNotifier$GSCopy$
PUBLIC	?OnHideWeaponMesh@ioClientAniEventHandler@@IAEXPBUAniEventTime@@PBVioAnimation@@@Z ; ioClientAniEventHandler::OnHideWeaponMesh
EXTRN	__imp__atoi:PROC
;	COMDAT xdata$x
; File d:\lost saga for developer\youtube\tutorial\source\src\lsclient\iobasechar.h
xdata$x	SEGMENT
__unwindtable$?OnHideWeaponMesh@ioClientAniEventHandler@@IAEXPBUAniEventTime@@PBVioAnimation@@@Z DD 0ffffffffH
	DD	FLAT:__unwindfunclet$?OnHideWeaponMesh@ioClientAniEventHandler@@IAEXPBUAniEventTime@@PBVioAnimation@@@Z$0
	DD	00H
	DD	FLAT:__unwindfunclet$?OnHideWeaponMesh@ioClientAniEventHandler@@IAEXPBUAniEventTime@@PBVioAnimation@@@Z$1
__ehfuncinfo$?OnHideWeaponMesh@ioClientAniEventHandler@@IAEXPBUAniEventTime@@PBVioAnimation@@@Z DD 019930522H
	DD	02H
	DD	FLAT:__unwindtable$?OnHideWeaponMesh@ioClientAniEventHandler@@IAEXPBUAniEventTime@@PBVioAnimation@@@Z
	DD	2 DUP(00H)
	DD	2 DUP(00H)
	DD	00H
	DD	01H
; Function compile flags: /Ogsp
; File d:\lost saga for developer\youtube\tutorial\source\src\lsclient\ioclientanieventhandler.cpp
xdata$x	ENDS
;	COMDAT ?OnHideWeaponMesh@ioClientAniEventHandler@@IAEXPBUAniEventTime@@PBVioAnimation@@@Z
_TEXT	SEGMENT
_value$539448 = -92					; size = 4
_pNotifier$GSCopy$ = -88				; size = 4
tv497 = -84						; size = 4
_i$527179 = -80						; size = 4
$T539473 = -76						; size = 1
_iReturnSize$ = -76					; size = 4
$T527177 = -72						; size = 28
$T527176 = -44						; size = 28
__$EHRec$ = -12						; size = 12
_pEvent$ = 8						; size = 4
_pNotifier$ = 12					; size = 4
?OnHideWeaponMesh@ioClientAniEventHandler@@IAEXPBUAniEventTime@@PBVioAnimation@@@Z PROC ; ioClientAniEventHandler::OnHideWeaponMesh, COMDAT
; _this$ = ecx

; 781  : {

  00000	6a 50		 push	 80			; 00000050H
  00002	b8 00 00 00 00	 mov	 eax, __ehhandler$?OnHideWeaponMesh@ioClientAniEventHandler@@IAEXPBUAniEventTime@@PBVioAnimation@@@Z
  00007	e8 00 00 00 00	 call	 __EH_prolog3_GS
  0000c	8b 45 0c	 mov	 eax, DWORD PTR _pNotifier$[ebp]
  0000f	8b 75 08	 mov	 esi, DWORD PTR _pEvent$[ebp]

; 782  : 	const StringVector &vParam = ioStringConverter::Split( pEvent->szSubInfo.c_str(), " " );

  00012	6a 01		 push	 1
  00014	8b f9		 mov	 edi, ecx
  00016	33 db		 xor	 ebx, ebx
  00018	68 00 00 00 00	 push	 OFFSET ??_C@_01CLKCMJKC@?5?$AA@
  0001d	8d 4d d4	 lea	 ecx, DWORD PTR $T527176[ebp]

; 783  : 	int iReturnSize = vParam.size();

  00020	89 45 a8	 mov	 DWORD PTR _pNotifier$GSCopy$[ebp], eax
  00023	c7 45 e8 0f 00
	00 00		 mov	 DWORD PTR $T527176[ebp+20], 15 ; 0000000fH
  0002a	89 5d e4	 mov	 DWORD PTR $T527176[ebp+16], ebx
  0002d	88 5d d4	 mov	 BYTE PTR $T527176[ebp], bl
  00030	e8 00 00 00 00	 call	 ?assign@?$basic_string@DU?$char_traits@D@std@@V?$allocator@D@2@@std@@QAEAAV12@PBDI@Z ; std::basic_string<char,std::char_traits<char>,std::allocator<char> >::assign
  00035	8d 4e 14	 lea	 ecx, DWORD PTR [esi+20]
  00038	89 5d fc	 mov	 DWORD PTR __$EHRec$[ebp+8], ebx
  0003b	ff 15 00 00 00
	00		 call	 DWORD PTR __imp_?c_str@ioHashString@@QBEPBDXZ
  00041	50		 push	 eax
  00042	8d 4d b8	 lea	 ecx, DWORD PTR $T527177[ebp]
  00045	c7 45 cc 0f 00
	00 00		 mov	 DWORD PTR $T527177[ebp+20], 15 ; 0000000fH
  0004c	89 5d c8	 mov	 DWORD PTR $T527177[ebp+16], ebx
  0004f	88 5d b8	 mov	 BYTE PTR $T527177[ebp], bl
  00052	e8 00 00 00 00	 call	 ?assign@?$basic_string@DU?$char_traits@D@std@@V?$allocator@D@2@@std@@QAEAAV12@PBD@Z ; std::basic_string<char,std::char_traits<char>,std::allocator<char> >::assign
  00057	53		 push	 ebx
  00058	8d 45 d4	 lea	 eax, DWORD PTR $T527176[ebp]
  0005b	50		 push	 eax
  0005c	8d 45 b8	 lea	 eax, DWORD PTR $T527177[ebp]
  0005f	50		 push	 eax
  00060	c6 45 fc 01	 mov	 BYTE PTR __$EHRec$[ebp+8], 1
  00064	ff 15 00 00 00
	00		 call	 DWORD PTR __imp_?Split@ioStringConverter@@SAABV?$vector@V?$basic_string@DU?$char_traits@D@std@@V?$allocator@D@2@@std@@V?$allocator@V?$basic_string@DU?$char_traits@D@std@@V?$allocator@D@2@@std@@@2@@std@@ABV?$basic_string@DU?$char_traits@D@std@@V?$allocator@D@2@@3@0H@Z
  0006a	83 c4 0c	 add	 esp, 12			; 0000000cH
  0006d	53		 push	 ebx
  0006e	6a 01		 push	 1
  00070	8d 4d b8	 lea	 ecx, DWORD PTR $T527177[ebp]
  00073	8b f0		 mov	 esi, eax
  00075	e8 00 00 00 00	 call	 ?_Tidy@?$basic_string@DU?$char_traits@D@std@@V?$allocator@D@2@@std@@QAEX_NI@Z ; std::basic_string<char,std::char_traits<char>,std::allocator<char> >::_Tidy
  0007a	83 4d fc ff	 or	 DWORD PTR __$EHRec$[ebp+8], -1
  0007e	53		 push	 ebx
  0007f	6a 01		 push	 1
  00081	8d 4d d4	 lea	 ecx, DWORD PTR $T527176[ebp]
  00084	e8 00 00 00 00	 call	 ?_Tidy@?$basic_string@DU?$char_traits@D@std@@V?$allocator@D@2@@std@@QAEX_NI@Z ; std::basic_string<char,std::char_traits<char>,std::allocator<char> >::_Tidy
  00089	8b 46 04	 mov	 eax, DWORD PTR [esi+4]
  0008c	2b 06		 sub	 eax, DWORD PTR [esi]
  0008e	6a 1c		 push	 28			; 0000001cH
  00090	99		 cdq
  00091	59		 pop	 ecx
  00092	f7 f9		 idiv	 ecx

; 784  : 	for(int i = 0;i < iReturnSize;i++)

  00094	89 5d b0	 mov	 DWORD PTR _i$527179[ebp], ebx
  00097	89 45 b4	 mov	 DWORD PTR _iReturnSize$[ebp], eax
  0009a	3b c3		 cmp	 eax, ebx
  0009c	7e 3e		 jle	 SHORT $LN3@OnHideWeap

; 785  : 	{
; 786  : 		if( m_pChar->GetCharacterInfo().m_class_type == atoi( vParam[i].c_str() ) )

  0009e	89 5d ac	 mov	 DWORD PTR tv497[ebp], ebx
$LL5@OnHideWeap:
  000a1	8b 4f 18	 mov	 ecx, DWORD PTR [edi+24]
  000a4	8d 45 a4	 lea	 eax, DWORD PTR _value$539448[ebp]
  000a7	50		 push	 eax
  000a8	81 c1 58 03 00
	00		 add	 ecx, 856		; 00000358H
  000ae	e8 00 00 00 00	 call	 ?DecryptValueToPool@?$CEncrypt@H@@QAEXPAH@Z ; CEncrypt<int>::DecryptValueToPool
  000b3	8b 06		 mov	 eax, DWORD PTR [esi]
  000b5	03 45 ac	 add	 eax, DWORD PTR tv497[ebp]
  000b8	83 78 14 10	 cmp	 DWORD PTR [eax+20], 16	; 00000010H
  000bc	72 02		 jb	 SHORT $LN86@OnHideWeap
  000be	8b 00		 mov	 eax, DWORD PTR [eax]
$LN86@OnHideWeap:
  000c0	50		 push	 eax
  000c1	ff 15 00 00 00
	00		 call	 DWORD PTR __imp__atoi
  000c7	59		 pop	 ecx
  000c8	39 45 a4	 cmp	 DWORD PTR _value$539448[ebp], eax
  000cb	74 58		 je	 SHORT $LN6@OnHideWeap

; 784  : 	for(int i = 0;i < iReturnSize;i++)

  000cd	ff 45 b0	 inc	 DWORD PTR _i$527179[ebp]
  000d0	8b 45 b0	 mov	 eax, DWORD PTR _i$527179[ebp]
  000d3	83 45 ac 1c	 add	 DWORD PTR tv497[ebp], 28 ; 0000001cH
  000d7	3b 45 b4	 cmp	 eax, DWORD PTR _iReturnSize$[ebp]
  000da	7c c5		 jl	 SHORT $LL5@OnHideWeap
$LN3@OnHideWeap:

; 787  : 			return;
; 788  : 	}
; 789  : 
; 790  : 	const ioWeaponItem *pWeaponItem = m_pChar->GetWeapon();

  000dc	8b 4f 18	 mov	 ecx, DWORD PTR [edi+24]
  000df	e8 00 00 00 00	 call	 ?GetWeapon@ioBaseChar@@QBEPAVioWeaponItem@@XZ ; ioBaseChar::GetWeapon
  000e4	8b f0		 mov	 esi, eax

; 791  : 	if( !pWeaponItem ) return;

  000e6	3b f3		 cmp	 esi, ebx
  000e8	74 3b		 je	 SHORT $LN6@OnHideWeap

; 792  : 
; 793  : 	HideMesh( pWeaponItem->GetEquipMesh(m_pChar), pWeaponItem->GetItemEquipEffect(m_pChar->IsMale()), pNotifier );

  000ea	8b 47 18	 mov	 eax, DWORD PTR [edi+24]
  000ed	8a 80 20 03 00
	00		 mov	 al, BYTE PTR [eax+800]
  000f3	ff 75 a8	 push	 DWORD PTR _pNotifier$GSCopy$[ebp]
  000f6	88 45 b4	 mov	 BYTE PTR $T539473[ebp], al
  000f9	ff 75 b4	 push	 DWORD PTR $T539473[ebp]
  000fc	8b ce		 mov	 ecx, esi
  000fe	e8 00 00 00 00	 call	 ?GetItemEquipEffect@ioItem@@QBEABVioHashString@@_N@Z ; ioItem::GetItemEquipEffect
  00103	50		 push	 eax
  00104	ff 77 18	 push	 DWORD PTR [edi+24]
  00107	8b 06		 mov	 eax, DWORD PTR [esi]
  00109	8b ce		 mov	 ecx, esi
  0010b	ff 90 e8 02 00
	00		 call	 DWORD PTR [eax+744]
  00111	50		 push	 eax
  00112	8b cf		 mov	 ecx, edi
  00114	e8 00 00 00 00	 call	 ?HideMesh@ioClientAniEventHandler@@IAEXABVioHashString@@0PBVioAnimation@@@Z ; ioClientAniEventHandler::HideMesh

; 794  : 
; 795  : 	m_bItemMeshHide = true;
; 796  : 	m_pChar->SetItemMeshHide();

  00119	8b 4f 18	 mov	 ecx, DWORD PTR [edi+24]
  0011c	c6 47 4c 01	 mov	 BYTE PTR [edi+76], 1
  00120	e8 00 00 00 00	 call	 ?SetItemMeshHide@ioBaseChar@@QAEXXZ ; ioBaseChar::SetItemMeshHide
$LN6@OnHideWeap:

; 797  : }

  00125	e8 00 00 00 00	 call	 __EH_epilog3_GS
  0012a	c2 08 00	 ret	 8
_TEXT	ENDS
;	COMDAT text$x
text$x	SEGMENT
__unwindfunclet$?OnHideWeaponMesh@ioClientAniEventHandler@@IAEXPBUAniEventTime@@PBVioAnimation@@@Z$0:
  00000	8d 4d d4	 lea	 ecx, DWORD PTR $T527176[ebp]
  00003	e9 00 00 00 00	 jmp	 ??1?$basic_string@DU?$char_traits@D@std@@V?$allocator@D@2@@std@@QAE@XZ ; std::basic_string<char,std::char_traits<char>,std::allocator<char> >::~basic_string<char,std::char_traits<char>,std::allocator<char> >
__unwindfunclet$?OnHideWeaponMesh@ioClientAniEventHandler@@IAEXPBUAniEventTime@@PBVioAnimation@@@Z$1:
  00008	8d 4d b8	 lea	 ecx, DWORD PTR $T527177[ebp]
  0000b	e9 00 00 00 00	 jmp	 ??1?$basic_string@DU?$char_traits@D@std@@V?$allocator@D@2@@std@@QAE@XZ ; std::basic_string<char,std::char_traits<char>,std::allocator<char> >::~basic_string<char,std::char_traits<char>,std::allocator<char> >
__ehhandler$?OnHideWeaponMesh@ioClientAniEventHandler@@IAEXPBUAniEventTime@@PBVioAnimation@@@Z:
  00010	8b 54 24 08	 mov	 edx, DWORD PTR [esp+8]
  00014	8d 42 0c	 lea	 eax, DWORD PTR [edx+12]
  00017	8b 4a a0	 mov	 ecx, DWORD PTR [edx-96]
  0001a	33 c8		 xor	 ecx, eax
  0001c	e8 00 00 00 00	 call	 @__security_check_cookie@4
  00021	8b 4a fc	 mov	 ecx, DWORD PTR [edx-4]
  00024	33 c8		 xor	 ecx, eax
  00026	e8 00 00 00 00	 call	 @__security_check_cookie@4
  0002b	b8 00 00 00 00	 mov	 eax, OFFSET __ehfuncinfo$?OnHideWeaponMesh@ioClientAniEventHandler@@IAEXPBUAniEventTime@@PBVioAnimation@@@Z
  00030	e9 00 00 00 00	 jmp	 ___CxxFrameHandler3
text$x	ENDS
?OnHideWeaponMesh@ioClientAniEventHandler@@IAEXPBUAniEventTime@@PBVioAnimation@@@Z ENDP ; ioClientAniEventHandler::OnHideWeaponMesh
PUBLIC	_pNotifier$GSCopy$
PUBLIC	?OnHideHairMesh@ioClientAniEventHandler@@IAEXPBUAniEventTime@@PBVioAnimation@@@Z ; ioClientAniEventHandler::OnHideHairMesh
;	COMDAT xdata$x
; File d:\lost saga for developer\youtube\tutorial\source\src\lsclient\iogameentity.h
xdata$x	SEGMENT
__unwindtable$?OnHideHairMesh@ioClientAniEventHandler@@IAEXPBUAniEventTime@@PBVioAnimation@@@Z DD 0ffffffffH
	DD	FLAT:__unwindfunclet$?OnHideHairMesh@ioClientAniEventHandler@@IAEXPBUAniEventTime@@PBVioAnimation@@@Z$0
	DD	00H
	DD	FLAT:__unwindfunclet$?OnHideHairMesh@ioClientAniEventHandler@@IAEXPBUAniEventTime@@PBVioAnimation@@@Z$1
	DD	0ffffffffH
	DD	FLAT:__unwindfunclet$?OnHideHairMesh@ioClientAniEventHandler@@IAEXPBUAniEventTime@@PBVioAnimation@@@Z$2
__ehfuncinfo$?OnHideHairMesh@ioClientAniEventHandler@@IAEXPBUAniEventTime@@PBVioAnimation@@@Z DD 019930522H
	DD	03H
	DD	FLAT:__unwindtable$?OnHideHairMesh@ioClientAniEventHandler@@IAEXPBUAniEventTime@@PBVioAnimation@@@Z
	DD	2 DUP(00H)
	DD	2 DUP(00H)
	DD	00H
	DD	01H
; Function compile flags: /Ogsp
; File d:\lost saga for developer\youtube\tutorial\source\src\lsclient\ioclientanieventhandler.cpp
xdata$x	ENDS
;	COMDAT ?OnHideHairMesh@ioClientAniEventHandler@@IAEXPBUAniEventTime@@PBVioAnimation@@@Z
_TEXT	SEGMENT
$T539489 = -108						; size = 16
_pNotifier$GSCopy$ = -92				; size = 4
_value$539718 = -88					; size = 4
_iReturnSize$ = -84					; size = 4
tv568 = -80						; size = 4
_pHair$ = -76						; size = 4
_i$527195 = -76						; size = 4
$T527192 = -72						; size = 28
$T527193 = -44						; size = 28
__$EHRec$ = -12						; size = 12
_pEvent$ = 8						; size = 4
_pNotifier$ = 12					; size = 4
?OnHideHairMesh@ioClientAniEventHandler@@IAEXPBUAniEventTime@@PBVioAnimation@@@Z PROC ; ioClientAniEventHandler::OnHideHairMesh, COMDAT
; _this$ = ecx

; 801  : {

  00000	6a 60		 push	 96			; 00000060H
  00002	b8 00 00 00 00	 mov	 eax, __ehhandler$?OnHideHairMesh@ioClientAniEventHandler@@IAEXPBUAniEventTime@@PBVioAnimation@@@Z
  00007	e8 00 00 00 00	 call	 __EH_prolog3_GS
  0000c	8b 45 0c	 mov	 eax, DWORD PTR _pNotifier$[ebp]
  0000f	8b 75 08	 mov	 esi, DWORD PTR _pEvent$[ebp]

; 802  : 	const StringVector &vParam = ioStringConverter::Split( pEvent->szSubInfo.c_str(), " " );

  00012	6a 01		 push	 1
  00014	8b f9		 mov	 edi, ecx
  00016	33 db		 xor	 ebx, ebx
  00018	68 00 00 00 00	 push	 OFFSET ??_C@_01CLKCMJKC@?5?$AA@
  0001d	8d 4d b8	 lea	 ecx, DWORD PTR $T527192[ebp]

; 803  : 	int iReturnSize = vParam.size();

  00020	89 45 a4	 mov	 DWORD PTR _pNotifier$GSCopy$[ebp], eax
  00023	c7 45 cc 0f 00
	00 00		 mov	 DWORD PTR $T527192[ebp+20], 15 ; 0000000fH
  0002a	89 5d c8	 mov	 DWORD PTR $T527192[ebp+16], ebx
  0002d	88 5d b8	 mov	 BYTE PTR $T527192[ebp], bl
  00030	e8 00 00 00 00	 call	 ?assign@?$basic_string@DU?$char_traits@D@std@@V?$allocator@D@2@@std@@QAEAAV12@PBDI@Z ; std::basic_string<char,std::char_traits<char>,std::allocator<char> >::assign
  00035	8d 4e 14	 lea	 ecx, DWORD PTR [esi+20]
  00038	89 5d fc	 mov	 DWORD PTR __$EHRec$[ebp+8], ebx
  0003b	ff 15 00 00 00
	00		 call	 DWORD PTR __imp_?c_str@ioHashString@@QBEPBDXZ
  00041	50		 push	 eax
  00042	8d 4d d4	 lea	 ecx, DWORD PTR $T527193[ebp]
  00045	c7 45 e8 0f 00
	00 00		 mov	 DWORD PTR $T527193[ebp+20], 15 ; 0000000fH
  0004c	89 5d e4	 mov	 DWORD PTR $T527193[ebp+16], ebx
  0004f	88 5d d4	 mov	 BYTE PTR $T527193[ebp], bl
  00052	e8 00 00 00 00	 call	 ?assign@?$basic_string@DU?$char_traits@D@std@@V?$allocator@D@2@@std@@QAEAAV12@PBD@Z ; std::basic_string<char,std::char_traits<char>,std::allocator<char> >::assign
  00057	53		 push	 ebx
  00058	8d 45 b8	 lea	 eax, DWORD PTR $T527192[ebp]
  0005b	50		 push	 eax
  0005c	8d 45 d4	 lea	 eax, DWORD PTR $T527193[ebp]
  0005f	50		 push	 eax
  00060	c6 45 fc 01	 mov	 BYTE PTR __$EHRec$[ebp+8], 1
  00064	ff 15 00 00 00
	00		 call	 DWORD PTR __imp_?Split@ioStringConverter@@SAABV?$vector@V?$basic_string@DU?$char_traits@D@std@@V?$allocator@D@2@@std@@V?$allocator@V?$basic_string@DU?$char_traits@D@std@@V?$allocator@D@2@@std@@@2@@std@@ABV?$basic_string@DU?$char_traits@D@std@@V?$allocator@D@2@@3@0H@Z
  0006a	83 c4 0c	 add	 esp, 12			; 0000000cH
  0006d	53		 push	 ebx
  0006e	6a 01		 push	 1
  00070	8d 4d d4	 lea	 ecx, DWORD PTR $T527193[ebp]
  00073	8b f0		 mov	 esi, eax
  00075	e8 00 00 00 00	 call	 ?_Tidy@?$basic_string@DU?$char_traits@D@std@@V?$allocator@D@2@@std@@QAEX_NI@Z ; std::basic_string<char,std::char_traits<char>,std::allocator<char> >::_Tidy
  0007a	83 4d fc ff	 or	 DWORD PTR __$EHRec$[ebp+8], -1
  0007e	53		 push	 ebx
  0007f	6a 01		 push	 1
  00081	8d 4d b8	 lea	 ecx, DWORD PTR $T527192[ebp]
  00084	e8 00 00 00 00	 call	 ?_Tidy@?$basic_string@DU?$char_traits@D@std@@V?$allocator@D@2@@std@@QAEX_NI@Z ; std::basic_string<char,std::char_traits<char>,std::allocator<char> >::_Tidy
  00089	8b 46 04	 mov	 eax, DWORD PTR [esi+4]
  0008c	2b 06		 sub	 eax, DWORD PTR [esi]
  0008e	6a 1c		 push	 28			; 0000001cH
  00090	99		 cdq
  00091	59		 pop	 ecx
  00092	f7 f9		 idiv	 ecx

; 804  : 	for(int i = 0;i < iReturnSize;i++)

  00094	89 5d b4	 mov	 DWORD PTR _i$527195[ebp], ebx
  00097	89 45 ac	 mov	 DWORD PTR _iReturnSize$[ebp], eax
  0009a	3b c3		 cmp	 eax, ebx
  0009c	7e 42		 jle	 SHORT $LN7@OnHideHair

; 805  : 	{
; 806  : 		if( m_pChar->GetCharacterInfo().m_class_type == atoi( vParam[i].c_str() ) )

  0009e	89 5d b0	 mov	 DWORD PTR tv568[ebp], ebx
$LL9@OnHideHair:
  000a1	8b 4f 18	 mov	 ecx, DWORD PTR [edi+24]
  000a4	8d 45 a8	 lea	 eax, DWORD PTR _value$539718[ebp]
  000a7	81 c1 58 03 00
	00		 add	 ecx, 856		; 00000358H
  000ad	50		 push	 eax
  000ae	e8 00 00 00 00	 call	 ?DecryptValueToPool@?$CEncrypt@H@@QAEXPAH@Z ; CEncrypt<int>::DecryptValueToPool
  000b3	8b 06		 mov	 eax, DWORD PTR [esi]
  000b5	03 45 b0	 add	 eax, DWORD PTR tv568[ebp]
  000b8	83 78 14 10	 cmp	 DWORD PTR [eax+20], 16	; 00000010H
  000bc	72 02		 jb	 SHORT $LN91@OnHideHair
  000be	8b 00		 mov	 eax, DWORD PTR [eax]
$LN91@OnHideHair:
  000c0	50		 push	 eax
  000c1	ff 15 00 00 00
	00		 call	 DWORD PTR __imp__atoi
  000c7	59		 pop	 ecx
  000c8	39 45 a8	 cmp	 DWORD PTR _value$539718[ebp], eax
  000cb	0f 84 c0 00 00
	00		 je	 $LN4@OnHideHair

; 804  : 	for(int i = 0;i < iReturnSize;i++)

  000d1	ff 45 b4	 inc	 DWORD PTR _i$527195[ebp]
  000d4	8b 45 b4	 mov	 eax, DWORD PTR _i$527195[ebp]
  000d7	83 45 b0 1c	 add	 DWORD PTR tv568[ebp], 28 ; 0000001cH
  000db	3b 45 ac	 cmp	 eax, DWORD PTR _iReturnSize$[ebp]
  000de	7c c1		 jl	 SHORT $LL9@OnHideHair
$LN7@OnHideHair:

; 807  : 			return;
; 808  : 	}
; 809  : 
; 810  : 	if( !m_pChar || !m_pChar->GetGroup() || !m_pChar->GetEquipSlot() )

  000e0	8b 47 18	 mov	 eax, DWORD PTR [edi+24]
  000e3	3b c3		 cmp	 eax, ebx
  000e5	0f 84 a6 00 00
	00		 je	 $LN4@OnHideHair
  000eb	39 58 04	 cmp	 DWORD PTR [eax+4], ebx
  000ee	0f 84 9d 00 00
	00		 je	 $LN4@OnHideHair
  000f4	39 98 48 03 00
	00		 cmp	 DWORD PTR [eax+840], ebx
  000fa	0f 84 91 00 00
	00		 je	 $LN4@OnHideHair

; 811  : 		return;
; 812  : 
; 813  : 	ioEntity *pHair =m_pChar->GetGroup()->GetEntity( m_pChar->GetEquipSlot()->GetDefaultHairMesh() );

  00100	8b 90 48 03 00
	00		 mov	 edx, DWORD PTR [eax+840]
  00106	8b 48 04	 mov	 ecx, DWORD PTR [eax+4]
  00109	8b 35 00 00 00
	00		 mov	 esi, DWORD PTR __imp_?GetEntity@ioEntityGroup@@QAEPAVioEntity@@ABVioHashString@@@Z
  0010f	81 c2 ec 00 00
	00		 add	 edx, 236		; 000000ecH
  00115	52		 push	 edx
  00116	ff d6		 call	 esi
  00118	89 45 b4	 mov	 DWORD PTR _pHair$[ebp], eax

; 814  : 	if( !pHair )

  0011b	3b c3		 cmp	 eax, ebx
  0011d	75 38		 jne	 SHORT $LN118@OnHideHair

; 815  : 	{
; 816  : 		pHair = m_pChar->GetGroup()->GetEntity( m_pChar->GetEquipSlot()->GetDefaultBindHairMesh() );

  0011f	8b 47 18	 mov	 eax, DWORD PTR [edi+24]
  00122	8b 90 48 03 00
	00		 mov	 edx, DWORD PTR [eax+840]
  00128	8b 48 04	 mov	 ecx, DWORD PTR [eax+4]
  0012b	81 c2 fc 00 00
	00		 add	 edx, 252		; 000000fcH
  00131	52		 push	 edx
  00132	ff d6		 call	 esi
  00134	89 45 b4	 mov	 DWORD PTR _pHair$[ebp], eax

; 817  : 
; 818  : 		if( !pHair )

  00137	3b c3		 cmp	 eax, ebx
  00139	75 1c		 jne	 SHORT $LN118@OnHideHair

; 819  : 			pHair = m_pChar->GetGroup()->GetEntity( m_pChar->GetEquipSlot()->GetDefaultHalfHairMesh() );

  0013b	8b 47 18	 mov	 eax, DWORD PTR [edi+24]
  0013e	8b 90 48 03 00
	00		 mov	 edx, DWORD PTR [eax+840]
  00144	8b 48 04	 mov	 ecx, DWORD PTR [eax+4]
  00147	81 c2 0c 01 00
	00		 add	 edx, 268		; 0000010cH
  0014d	52		 push	 edx
  0014e	ff d6		 call	 esi
  00150	89 45 b4	 mov	 DWORD PTR _pHair$[ebp], eax

; 820  : 	}
; 821  : 
; 822  : 	if( !pHair )

  00153	3b c3		 cmp	 eax, ebx
  00155	74 3a		 je	 SHORT $LN4@OnHideHair
$LN118@OnHideHair:

; 823  : 		return;//???
; 824  : 
; 825  : 	HideMesh( pHair->GetMeshName(), "", pNotifier );

  00157	68 00 00 00 00	 push	 OFFSET ??_C@_00CNPNBAHC@?$AA@
  0015c	8d 4d 94	 lea	 ecx, DWORD PTR $T539489[ebp]
  0015f	ff 15 00 00 00
	00		 call	 DWORD PTR __imp_??0ioHashString@@QAE@PBD@Z
  00165	ff 75 a4	 push	 DWORD PTR _pNotifier$GSCopy$[ebp]
  00168	8b 4d b4	 mov	 ecx, DWORD PTR _pHair$[ebp]
  0016b	8d 45 94	 lea	 eax, DWORD PTR $T539489[ebp]
  0016e	50		 push	 eax
  0016f	c7 45 fc 02 00
	00 00		 mov	 DWORD PTR __$EHRec$[ebp+8], 2
  00176	ff 15 00 00 00
	00		 call	 DWORD PTR __imp_?GetMeshName@ioEntity@@QBEABVioHashString@@XZ
  0017c	50		 push	 eax
  0017d	8b cf		 mov	 ecx, edi
  0017f	e8 00 00 00 00	 call	 ?HideMesh@ioClientAniEventHandler@@IAEXABVioHashString@@0PBVioAnimation@@@Z ; ioClientAniEventHandler::HideMesh
  00184	83 4d fc ff	 or	 DWORD PTR __$EHRec$[ebp+8], -1
  00188	8d 4d 94	 lea	 ecx, DWORD PTR $T539489[ebp]
  0018b	ff 15 00 00 00
	00		 call	 DWORD PTR __imp_??1ioHashString@@QAE@XZ
$LN4@OnHideHair:

; 826  : }

  00191	e8 00 00 00 00	 call	 __EH_epilog3_GS
  00196	c2 08 00	 ret	 8
_TEXT	ENDS
;	COMDAT text$x
text$x	SEGMENT
__unwindfunclet$?OnHideHairMesh@ioClientAniEventHandler@@IAEXPBUAniEventTime@@PBVioAnimation@@@Z$0:
  00000	8d 4d b8	 lea	 ecx, DWORD PTR $T527192[ebp]
  00003	e9 00 00 00 00	 jmp	 ??1?$basic_string@DU?$char_traits@D@std@@V?$allocator@D@2@@std@@QAE@XZ ; std::basic_string<char,std::char_traits<char>,std::allocator<char> >::~basic_string<char,std::char_traits<char>,std::allocator<char> >
__unwindfunclet$?OnHideHairMesh@ioClientAniEventHandler@@IAEXPBUAniEventTime@@PBVioAnimation@@@Z$1:
  00008	8d 4d d4	 lea	 ecx, DWORD PTR $T527193[ebp]
  0000b	e9 00 00 00 00	 jmp	 ??1?$basic_string@DU?$char_traits@D@std@@V?$allocator@D@2@@std@@QAE@XZ ; std::basic_string<char,std::char_traits<char>,std::allocator<char> >::~basic_string<char,std::char_traits<char>,std::allocator<char> >
__unwindfunclet$?OnHideHairMesh@ioClientAniEventHandler@@IAEXPBUAniEventTime@@PBVioAnimation@@@Z$2:
  00010	8d 4d 94	 lea	 ecx, DWORD PTR $T539489[ebp]
  00013	ff 25 00 00 00
	00		 jmp	 DWORD PTR __imp_??1ioHashString@@QAE@XZ
__ehhandler$?OnHideHairMesh@ioClientAniEventHandler@@IAEXPBUAniEventTime@@PBVioAnimation@@@Z:
  00019	8b 54 24 08	 mov	 edx, DWORD PTR [esp+8]
  0001d	8d 42 0c	 lea	 eax, DWORD PTR [edx+12]
  00020	8b 4a 90	 mov	 ecx, DWORD PTR [edx-112]
  00023	33 c8		 xor	 ecx, eax
  00025	e8 00 00 00 00	 call	 @__security_check_cookie@4
  0002a	8b 4a fc	 mov	 ecx, DWORD PTR [edx-4]
  0002d	33 c8		 xor	 ecx, eax
  0002f	e8 00 00 00 00	 call	 @__security_check_cookie@4
  00034	b8 00 00 00 00	 mov	 eax, OFFSET __ehfuncinfo$?OnHideHairMesh@ioClientAniEventHandler@@IAEXPBUAniEventTime@@PBVioAnimation@@@Z
  00039	e9 00 00 00 00	 jmp	 ___CxxFrameHandler3
text$x	ENDS
?OnHideHairMesh@ioClientAniEventHandler@@IAEXPBUAniEventTime@@PBVioAnimation@@@Z ENDP ; ioClientAniEventHandler::OnHideHairMesh
PUBLIC	_pNotifier$GSCopy$
PUBLIC	?OnHideArmorMesh@ioClientAniEventHandler@@IAEXPBUAniEventTime@@PBVioAnimation@@@Z ; ioClientAniEventHandler::OnHideArmorMesh
EXTRN	__imp__sprintf:PROC
;	COMDAT xdata$x
; File d:\lost saga for developer\youtube\tutorial\source\src\lsclient\iobasechar.h
xdata$x	SEGMENT
__unwindtable$?OnHideArmorMesh@ioClientAniEventHandler@@IAEXPBUAniEventTime@@PBVioAnimation@@@Z DD 0ffffffffH
	DD	FLAT:__unwindfunclet$?OnHideArmorMesh@ioClientAniEventHandler@@IAEXPBUAniEventTime@@PBVioAnimation@@@Z$0
	DD	00H
	DD	FLAT:__unwindfunclet$?OnHideArmorMesh@ioClientAniEventHandler@@IAEXPBUAniEventTime@@PBVioAnimation@@@Z$1
__ehfuncinfo$?OnHideArmorMesh@ioClientAniEventHandler@@IAEXPBUAniEventTime@@PBVioAnimation@@@Z DD 019930522H
	DD	02H
	DD	FLAT:__unwindtable$?OnHideArmorMesh@ioClientAniEventHandler@@IAEXPBUAniEventTime@@PBVioAnimation@@@Z
	DD	2 DUP(00H)
	DD	2 DUP(00H)
	DD	00H
	DD	01H
; Function compile flags: /Ogsp
; File d:\lost saga for developer\youtube\tutorial\source\src\lsclient\ioclientanieventhandler.cpp
xdata$x	ENDS
;	COMDAT ?OnHideArmorMesh@ioClientAniEventHandler@@IAEXPBUAniEventTime@@PBVioAnimation@@@Z
_TEXT	SEGMENT
_value$540053 = -356					; size = 4
___encStr$527237 = -352					; size = 3
_pNotifier$GSCopy$ = -344				; size = 4
$T540089 = -340						; size = 1
$T540081 = -340						; size = 1
$T540077 = -340						; size = 1
_iReturnSize$ = -340					; size = 4
_pArmorItem$ = -336					; size = 4
_i$527229 = -336					; size = 4
$T527227 = -332						; size = 28
$T527226 = -304						; size = 28
_szPart$ = -276						; size = 260
__$EHRec$ = -12						; size = 12
_pEvent$ = 8						; size = 4
_pNotifier$ = 12					; size = 4
?OnHideArmorMesh@ioClientAniEventHandler@@IAEXPBUAniEventTime@@PBVioAnimation@@@Z PROC ; ioClientAniEventHandler::OnHideArmorMesh, COMDAT
; _this$ = ecx

; 851  : {

  00000	68 58 01 00 00	 push	 344			; 00000158H
  00005	b8 00 00 00 00	 mov	 eax, __ehhandler$?OnHideArmorMesh@ioClientAniEventHandler@@IAEXPBUAniEventTime@@PBVioAnimation@@@Z
  0000a	e8 00 00 00 00	 call	 __EH_prolog3_GS
  0000f	8b 45 0c	 mov	 eax, DWORD PTR _pNotifier$[ebp]
  00012	8b 75 08	 mov	 esi, DWORD PTR _pEvent$[ebp]

; 852  : 	char szPart[MAX_PATH] = "";

  00015	68 03 01 00 00	 push	 259			; 00000103H

; 879  : 	{
; 880  : 		HideMesh( pArmorItem->GetBodyMesh(m_pChar), pArmorItem->GetItemEquipEffect(m_pChar->IsMale()), pNotifier );

  0001a	89 85 a8 fe ff
	ff		 mov	 DWORD PTR _pNotifier$GSCopy$[ebp], eax
  00020	8d 85 ed fe ff
	ff		 lea	 eax, DWORD PTR _szPart$[ebp+1]
  00026	6a 00		 push	 0
  00028	50		 push	 eax
  00029	8b d9		 mov	 ebx, ecx
  0002b	c6 85 ec fe ff
	ff 00		 mov	 BYTE PTR _szPart$[ebp], 0
  00032	e8 00 00 00 00	 call	 _memset
  00037	83 a5 e0 fe ff
	ff 00		 and	 DWORD PTR $T527226[ebp+16], 0
  0003e	83 c4 0c	 add	 esp, 12			; 0000000cH
  00041	6a 0f		 push	 15			; 0000000fH
  00043	5f		 pop	 edi
  00044	6a 01		 push	 1
  00046	68 00 00 00 00	 push	 OFFSET ??_C@_01CLKCMJKC@?5?$AA@
  0004b	8d 8d d0 fe ff
	ff		 lea	 ecx, DWORD PTR $T527226[ebp]
  00051	89 bd e4 fe ff
	ff		 mov	 DWORD PTR $T527226[ebp+20], edi
  00057	c6 85 d0 fe ff
	ff 00		 mov	 BYTE PTR $T527226[ebp], 0
  0005e	e8 00 00 00 00	 call	 ?assign@?$basic_string@DU?$char_traits@D@std@@V?$allocator@D@2@@std@@QAEAAV12@PBDI@Z ; std::basic_string<char,std::char_traits<char>,std::allocator<char> >::assign
  00063	83 65 fc 00	 and	 DWORD PTR __$EHRec$[ebp+8], 0
  00067	8d 4e 14	 lea	 ecx, DWORD PTR [esi+20]
  0006a	ff 15 00 00 00
	00		 call	 DWORD PTR __imp_?c_str@ioHashString@@QBEPBDXZ
  00070	89 bd c8 fe ff
	ff		 mov	 DWORD PTR $T527227[ebp+20], edi
  00076	33 ff		 xor	 edi, edi
  00078	50		 push	 eax
  00079	8d 8d b4 fe ff
	ff		 lea	 ecx, DWORD PTR $T527227[ebp]
  0007f	89 bd c4 fe ff
	ff		 mov	 DWORD PTR $T527227[ebp+16], edi
  00085	c6 85 b4 fe ff
	ff 00		 mov	 BYTE PTR $T527227[ebp], 0
  0008c	e8 00 00 00 00	 call	 ?assign@?$basic_string@DU?$char_traits@D@std@@V?$allocator@D@2@@std@@QAEAAV12@PBD@Z ; std::basic_string<char,std::char_traits<char>,std::allocator<char> >::assign
  00091	57		 push	 edi
  00092	8d 85 d0 fe ff
	ff		 lea	 eax, DWORD PTR $T527226[ebp]
  00098	50		 push	 eax
  00099	8d 85 b4 fe ff
	ff		 lea	 eax, DWORD PTR $T527227[ebp]
  0009f	50		 push	 eax
  000a0	c6 45 fc 01	 mov	 BYTE PTR __$EHRec$[ebp+8], 1
  000a4	ff 15 00 00 00
	00		 call	 DWORD PTR __imp_?Split@ioStringConverter@@SAABV?$vector@V?$basic_string@DU?$char_traits@D@std@@V?$allocator@D@2@@std@@V?$allocator@V?$basic_string@DU?$char_traits@D@std@@V?$allocator@D@2@@std@@@2@@std@@ABV?$basic_string@DU?$char_traits@D@std@@V?$allocator@D@2@@3@0H@Z
  000aa	83 c4 0c	 add	 esp, 12			; 0000000cH
  000ad	57		 push	 edi
  000ae	6a 01		 push	 1
  000b0	8d 8d b4 fe ff
	ff		 lea	 ecx, DWORD PTR $T527227[ebp]
  000b6	8b f0		 mov	 esi, eax
  000b8	e8 00 00 00 00	 call	 ?_Tidy@?$basic_string@DU?$char_traits@D@std@@V?$allocator@D@2@@std@@QAEX_NI@Z ; std::basic_string<char,std::char_traits<char>,std::allocator<char> >::_Tidy
  000bd	83 4d fc ff	 or	 DWORD PTR __$EHRec$[ebp+8], -1
  000c1	57		 push	 edi
  000c2	6a 01		 push	 1
  000c4	8d 8d d0 fe ff
	ff		 lea	 ecx, DWORD PTR $T527226[ebp]
  000ca	e8 00 00 00 00	 call	 ?_Tidy@?$basic_string@DU?$char_traits@D@std@@V?$allocator@D@2@@std@@QAEX_NI@Z ; std::basic_string<char,std::char_traits<char>,std::allocator<char> >::_Tidy
  000cf	8b 46 04	 mov	 eax, DWORD PTR [esi+4]
  000d2	2b 06		 sub	 eax, DWORD PTR [esi]
  000d4	6a 1c		 push	 28			; 0000001cH
  000d6	99		 cdq
  000d7	59		 pop	 ecx
  000d8	f7 f9		 idiv	 ecx
  000da	89 bd b0 fe ff
	ff		 mov	 DWORD PTR _i$527229[ebp], edi
  000e0	89 85 ac fe ff
	ff		 mov	 DWORD PTR _iReturnSize$[ebp], eax
  000e6	3b c7		 cmp	 eax, edi
  000e8	0f 8e b2 00 00
	00		 jle	 $LN108@OnHideArmo
$LN110@OnHideArmo:

; 856  : 	{
; 857  : 		if( i == 0 )

  000ee	39 bd b0 fe ff
	ff		 cmp	 DWORD PTR _i$527229[ebp], edi
  000f4	75 56		 jne	 SHORT $LN107@OnHideArmo

; 858  : 		{
; 859  : 			sprintf_e( szPart, "%s", vParam[i].c_str() );

  000f6	66 c7 85 a0 fe
	ff ff c8 9f	 mov	 WORD PTR ___encStr$527237[ebp], 40904 ; 00009fc8H
  000ff	c6 85 a2 fe ff
	ff 00		 mov	 BYTE PTR ___encStr$527237[ebp+2], 0
  00106	33 c0		 xor	 eax, eax
$LL183@OnHideArmo:
  00108	8b c8		 mov	 ecx, eax
  0010a	81 e1 03 00 00
	80		 and	 ecx, -2147483645	; 80000003H
  00110	79 05		 jns	 SHORT $LN228@OnHideArmo
  00112	49		 dec	 ecx
  00113	83 c9 fc	 or	 ecx, -4			; fffffffcH
  00116	41		 inc	 ecx
$LN228@OnHideArmo:
  00117	b2 ed		 mov	 dl, -19			; ffffffedH
  00119	2a d1		 sub	 dl, cl
  0011b	30 94 05 a0 fe
	ff ff		 xor	 BYTE PTR ___encStr$527237[ebp+eax], dl
  00122	40		 inc	 eax
  00123	83 f8 02	 cmp	 eax, 2
  00126	7c e0		 jl	 SHORT $LL183@OnHideArmo
  00128	8b 06		 mov	 eax, DWORD PTR [esi]
  0012a	83 78 14 10	 cmp	 DWORD PTR [eax+20], 16	; 00000010H
  0012e	72 02		 jb	 SHORT $LN195@OnHideArmo
  00130	8b 00		 mov	 eax, DWORD PTR [eax]
$LN195@OnHideArmo:
  00132	50		 push	 eax
  00133	8d 85 a0 fe ff
	ff		 lea	 eax, DWORD PTR ___encStr$527237[ebp]
  00139	50		 push	 eax
  0013a	8d 85 ec fe ff
	ff		 lea	 eax, DWORD PTR _szPart$[ebp]
  00140	50		 push	 eax
  00141	ff 15 00 00 00
	00		 call	 DWORD PTR __imp__sprintf
  00147	83 c4 0c	 add	 esp, 12			; 0000000cH

; 860  : 		}
; 861  : 		else if( m_pChar->GetCharacterInfo().m_class_type == atoi( vParam[i].c_str() ) )

  0014a	eb 3c		 jmp	 SHORT $LN109@OnHideArmo
$LN107@OnHideArmo:
  0014c	8b 4b 18	 mov	 ecx, DWORD PTR [ebx+24]
  0014f	8d 85 9c fe ff
	ff		 lea	 eax, DWORD PTR _value$540053[ebp]
  00155	50		 push	 eax
  00156	81 c1 58 03 00
	00		 add	 ecx, 856		; 00000358H
  0015c	e8 00 00 00 00	 call	 ?DecryptValueToPool@?$CEncrypt@H@@QAEXPAH@Z ; CEncrypt<int>::DecryptValueToPool
  00161	8b 85 b0 fe ff
	ff		 mov	 eax, DWORD PTR _i$527229[ebp]
  00167	6b c0 1c	 imul	 eax, 28			; 0000001cH
  0016a	03 06		 add	 eax, DWORD PTR [esi]
  0016c	83 78 14 10	 cmp	 DWORD PTR [eax+20], 16	; 00000010H
  00170	72 02		 jb	 SHORT $LN207@OnHideArmo
  00172	8b 00		 mov	 eax, DWORD PTR [eax]
$LN207@OnHideArmo:
  00174	50		 push	 eax
  00175	ff 15 00 00 00
	00		 call	 DWORD PTR __imp__atoi
  0017b	59		 pop	 ecx
  0017c	39 85 9c fe ff
	ff		 cmp	 DWORD PTR _value$540053[ebp], eax
  00182	0f 84 02 01 00
	00		 je	 $LN1@OnHideArmo
$LN109@OnHideArmo:

; 853  : 	const StringVector &vParam = ioStringConverter::Split( pEvent->szSubInfo.c_str(), " " );
; 854  : 	int iReturnSize = vParam.size();
; 855  : 	for(int i = 0;i < iReturnSize;i++)

  00188	ff 85 b0 fe ff
	ff		 inc	 DWORD PTR _i$527229[ebp]
  0018e	8b 85 b0 fe ff
	ff		 mov	 eax, DWORD PTR _i$527229[ebp]
  00194	3b 85 ac fe ff
	ff		 cmp	 eax, DWORD PTR _iReturnSize$[ebp]
  0019a	0f 8c 4e ff ff
	ff		 jl	 $LN110@OnHideArmo
$LN108@OnHideArmo:

; 862  : 		{
; 863  : 			return;
; 864  : 		}
; 865  : 	}
; 866  : 
; 867  : 	const ioArmorItem *pArmorItem = m_pChar->GetArmor();

  001a0	8b 4b 18	 mov	 ecx, DWORD PTR [ebx+24]
  001a3	e8 00 00 00 00	 call	 ?GetArmor@ioBaseChar@@QBEPAVioArmorItem@@XZ ; ioBaseChar::GetArmor
  001a8	89 85 b0 fe ff
	ff		 mov	 DWORD PTR _pArmorItem$[ebp], eax

; 868  : 	if( !pArmorItem ) return;

  001ae	3b c7		 cmp	 eax, edi
  001b0	0f 84 d4 00 00
	00		 je	 $LN1@OnHideArmo

; 869  : 
; 870  : 	if( strcmp( szPart, "body" ) == 0 )

  001b6	6a 05		 push	 5
  001b8	bf 00 00 00 00	 mov	 edi, OFFSET ??_C@_04IEJGKNJ@body?$AA@
  001bd	8d b5 ec fe ff
	ff		 lea	 esi, DWORD PTR _szPart$[ebp]
  001c3	59		 pop	 ecx
  001c4	33 d2		 xor	 edx, edx
  001c6	f3 a6		 repe cmpsb
  001c8	75 36		 jne	 SHORT $LN4@OnHideArmo

; 871  : 	{
; 872  : 		HideMesh( pArmorItem->GetBodyMesh(m_pChar), pArmorItem->GetItemEquipEffect(m_pChar->IsMale()), pNotifier );

  001ca	8b 4b 18	 mov	 ecx, DWORD PTR [ebx+24]
  001cd	8a 89 20 03 00
	00		 mov	 cl, BYTE PTR [ecx+800]
  001d3	ff b5 a8 fe ff
	ff		 push	 DWORD PTR _pNotifier$GSCopy$[ebp]
  001d9	88 8d ac fe ff
	ff		 mov	 BYTE PTR $T540077[ebp], cl
  001df	ff b5 ac fe ff
	ff		 push	 DWORD PTR $T540077[ebp]
  001e5	8b c8		 mov	 ecx, eax
  001e7	e8 00 00 00 00	 call	 ?GetItemEquipEffect@ioItem@@QBEABVioHashString@@_N@Z ; ioItem::GetItemEquipEffect
  001ec	8b 8d b0 fe ff
	ff		 mov	 ecx, DWORD PTR _pArmorItem$[ebp]
  001f2	50		 push	 eax
  001f3	ff 73 18	 push	 DWORD PTR [ebx+24]
  001f6	e8 00 00 00 00	 call	 ?GetBodyMesh@ioArmorItem@@QBEABVioHashString@@PAVioBaseChar@@@Z ; ioArmorItem::GetBodyMesh
  001fb	e9 82 00 00 00	 jmp	 $LN229@OnHideArmo
$LN4@OnHideArmo:

; 873  : 	}
; 874  : 	else if( strcmp( szPart, "hand" ) == 0 )

  00200	6a 05		 push	 5
  00202	59		 pop	 ecx

; 875  : 	{
; 876  : 		HideMesh( pArmorItem->GetHandMesh(m_pChar), pArmorItem->GetItemEquipEffect(m_pChar->IsMale()), pNotifier );

  00203	ff b5 a8 fe ff
	ff		 push	 DWORD PTR _pNotifier$GSCopy$[ebp]
  00209	bf 00 00 00 00	 mov	 edi, OFFSET ??_C@_04FANNOMIB@hand?$AA@
  0020e	8d b5 ec fe ff
	ff		 lea	 esi, DWORD PTR _szPart$[ebp]
  00214	33 d2		 xor	 edx, edx
  00216	f3 a6		 repe cmpsb
  00218	8b 4b 18	 mov	 ecx, DWORD PTR [ebx+24]
  0021b	8a 89 20 03 00
	00		 mov	 cl, BYTE PTR [ecx+800]
  00221	88 8d ac fe ff
	ff		 mov	 BYTE PTR $T540081[ebp], cl
  00227	ff b5 ac fe ff
	ff		 push	 DWORD PTR $T540081[ebp]
  0022d	8b c8		 mov	 ecx, eax

; 877  : 	}
; 878  : 	else

  0022f	74 3d		 je	 SHORT $LN230@OnHideArmo

; 879  : 	{
; 880  : 		HideMesh( pArmorItem->GetBodyMesh(m_pChar), pArmorItem->GetItemEquipEffect(m_pChar->IsMale()), pNotifier );

  00231	e8 00 00 00 00	 call	 ?GetItemEquipEffect@ioItem@@QBEABVioHashString@@_N@Z ; ioItem::GetItemEquipEffect
  00236	8b 8d b0 fe ff
	ff		 mov	 ecx, DWORD PTR _pArmorItem$[ebp]
  0023c	50		 push	 eax
  0023d	ff 73 18	 push	 DWORD PTR [ebx+24]
  00240	e8 00 00 00 00	 call	 ?GetBodyMesh@ioArmorItem@@QBEABVioHashString@@PAVioBaseChar@@@Z ; ioArmorItem::GetBodyMesh
  00245	50		 push	 eax
  00246	8b cb		 mov	 ecx, ebx
  00248	e8 00 00 00 00	 call	 ?HideMesh@ioClientAniEventHandler@@IAEXABVioHashString@@0PBVioAnimation@@@Z ; ioClientAniEventHandler::HideMesh

; 881  : 		HideMesh( pArmorItem->GetHandMesh(m_pChar), pArmorItem->GetItemEquipEffect(m_pChar->IsMale()), pNotifier );

  0024d	8b 43 18	 mov	 eax, DWORD PTR [ebx+24]
  00250	8a 80 20 03 00
	00		 mov	 al, BYTE PTR [eax+800]
  00256	ff b5 a8 fe ff
	ff		 push	 DWORD PTR _pNotifier$GSCopy$[ebp]
  0025c	8b 8d b0 fe ff
	ff		 mov	 ecx, DWORD PTR _pArmorItem$[ebp]
  00262	88 85 ac fe ff
	ff		 mov	 BYTE PTR $T540089[ebp], al
  00268	ff b5 ac fe ff
	ff		 push	 DWORD PTR $T540089[ebp]
$LN230@OnHideArmo:
  0026e	e8 00 00 00 00	 call	 ?GetItemEquipEffect@ioItem@@QBEABVioHashString@@_N@Z ; ioItem::GetItemEquipEffect
  00273	8b 8d b0 fe ff
	ff		 mov	 ecx, DWORD PTR _pArmorItem$[ebp]
  00279	50		 push	 eax
  0027a	ff 73 18	 push	 DWORD PTR [ebx+24]
  0027d	e8 00 00 00 00	 call	 ?GetHandMesh@ioArmorItem@@QBEABVioHashString@@PAVioBaseChar@@@Z ; ioArmorItem::GetHandMesh
$LN229@OnHideArmo:
  00282	50		 push	 eax
  00283	8b cb		 mov	 ecx, ebx
  00285	e8 00 00 00 00	 call	 ?HideMesh@ioClientAniEventHandler@@IAEXABVioHashString@@0PBVioAnimation@@@Z ; ioClientAniEventHandler::HideMesh
$LN1@OnHideArmo:

; 882  : 	}
; 883  : }

  0028a	e8 00 00 00 00	 call	 __EH_epilog3_GS
  0028f	c2 08 00	 ret	 8
_TEXT	ENDS
;	COMDAT text$x
text$x	SEGMENT
__unwindfunclet$?OnHideArmorMesh@ioClientAniEventHandler@@IAEXPBUAniEventTime@@PBVioAnimation@@@Z$0:
  00000	8d 8d d0 fe ff
	ff		 lea	 ecx, DWORD PTR $T527226[ebp]
  00006	e9 00 00 00 00	 jmp	 ??1?$basic_string@DU?$char_traits@D@std@@V?$allocator@D@2@@std@@QAE@XZ ; std::basic_string<char,std::char_traits<char>,std::allocator<char> >::~basic_string<char,std::char_traits<char>,std::allocator<char> >
__unwindfunclet$?OnHideArmorMesh@ioClientAniEventHandler@@IAEXPBUAniEventTime@@PBVioAnimation@@@Z$1:
  0000b	8d 8d b4 fe ff
	ff		 lea	 ecx, DWORD PTR $T527227[ebp]
  00011	e9 00 00 00 00	 jmp	 ??1?$basic_string@DU?$char_traits@D@std@@V?$allocator@D@2@@std@@QAE@XZ ; std::basic_string<char,std::char_traits<char>,std::allocator<char> >::~basic_string<char,std::char_traits<char>,std::allocator<char> >
__ehhandler$?OnHideArmorMesh@ioClientAniEventHandler@@IAEXPBUAniEventTime@@PBVioAnimation@@@Z:
  00016	8b 54 24 08	 mov	 edx, DWORD PTR [esp+8]
  0001a	8d 42 0c	 lea	 eax, DWORD PTR [edx+12]
  0001d	8b 8a 98 fe ff
	ff		 mov	 ecx, DWORD PTR [edx-360]
  00023	33 c8		 xor	 ecx, eax
  00025	e8 00 00 00 00	 call	 @__security_check_cookie@4
  0002a	8b 4a fc	 mov	 ecx, DWORD PTR [edx-4]
  0002d	33 c8		 xor	 ecx, eax
  0002f	e8 00 00 00 00	 call	 @__security_check_cookie@4
  00034	b8 00 00 00 00	 mov	 eax, OFFSET __ehfuncinfo$?OnHideArmorMesh@ioClientAniEventHandler@@IAEXPBUAniEventTime@@PBVioAnimation@@@Z
  00039	e9 00 00 00 00	 jmp	 ___CxxFrameHandler3
text$x	ENDS
?OnHideArmorMesh@ioClientAniEventHandler@@IAEXPBUAniEventTime@@PBVioAnimation@@@Z ENDP ; ioClientAniEventHandler::OnHideArmorMesh
PUBLIC	_pNotifier$GSCopy$
PUBLIC	_this$GSCopy$
PUBLIC	?OnHideHelmMesh@ioClientAniEventHandler@@IAEXPBUAniEventTime@@PBVioAnimation@@@Z ; ioClientAniEventHandler::OnHideHelmMesh
;	COMDAT xdata$x
; File d:\lost saga for developer\youtube\tutorial\source\src\lsclient\iobasechar.h
xdata$x	SEGMENT
__unwindtable$?OnHideHelmMesh@ioClientAniEventHandler@@IAEXPBUAniEventTime@@PBVioAnimation@@@Z DD 0ffffffffH
	DD	FLAT:__unwindfunclet$?OnHideHelmMesh@ioClientAniEventHandler@@IAEXPBUAniEventTime@@PBVioAnimation@@@Z$0
	DD	00H
	DD	FLAT:__unwindfunclet$?OnHideHelmMesh@ioClientAniEventHandler@@IAEXPBUAniEventTime@@PBVioAnimation@@@Z$1
__ehfuncinfo$?OnHideHelmMesh@ioClientAniEventHandler@@IAEXPBUAniEventTime@@PBVioAnimation@@@Z DD 019930522H
	DD	02H
	DD	FLAT:__unwindtable$?OnHideHelmMesh@ioClientAniEventHandler@@IAEXPBUAniEventTime@@PBVioAnimation@@@Z
	DD	2 DUP(00H)
	DD	2 DUP(00H)
	DD	00H
	DD	01H
; Function compile flags: /Ogsp
; File d:\lost saga for developer\youtube\tutorial\source\src\lsclient\ioclientanieventhandler.cpp
xdata$x	ENDS
;	COMDAT ?OnHideHelmMesh@ioClientAniEventHandler@@IAEXPBUAniEventTime@@PBVioAnimation@@@Z
_TEXT	SEGMENT
_pNotifier$GSCopy$ = -96				; size = 4
_value$540342 = -92					; size = 4
_this$GSCopy$ = -88					; size = 4
$T540366 = -84						; size = 1
_iReturnSize$ = -84					; size = 4
_i$527403 = -80						; size = 4
tv489 = -76						; size = 4
$T527401 = -72						; size = 28
$T527400 = -44						; size = 28
__$EHRec$ = -12						; size = 12
_pEvent$ = 8						; size = 4
_pNotifier$ = 12					; size = 4
?OnHideHelmMesh@ioClientAniEventHandler@@IAEXPBUAniEventTime@@PBVioAnimation@@@Z PROC ; ioClientAniEventHandler::OnHideHelmMesh, COMDAT
; _this$ = ecx

; 886  : {

  00000	6a 54		 push	 84			; 00000054H
  00002	b8 00 00 00 00	 mov	 eax, __ehhandler$?OnHideHelmMesh@ioClientAniEventHandler@@IAEXPBUAniEventTime@@PBVioAnimation@@@Z
  00007	e8 00 00 00 00	 call	 __EH_prolog3_GS
  0000c	8b 45 0c	 mov	 eax, DWORD PTR _pNotifier$[ebp]
  0000f	8b 75 08	 mov	 esi, DWORD PTR _pEvent$[ebp]

; 887  : 	const StringVector &vParam = ioStringConverter::Split( pEvent->szSubInfo.c_str(), " " );

  00012	6a 0f		 push	 15			; 0000000fH
  00014	5f		 pop	 edi
  00015	6a 01		 push	 1
  00017	89 4d a8	 mov	 DWORD PTR _this$GSCopy$[ebp], ecx
  0001a	33 db		 xor	 ebx, ebx
  0001c	68 00 00 00 00	 push	 OFFSET ??_C@_01CLKCMJKC@?5?$AA@
  00021	8d 4d d4	 lea	 ecx, DWORD PTR $T527400[ebp]
  00024	89 45 a0	 mov	 DWORD PTR _pNotifier$GSCopy$[ebp], eax
  00027	89 7d e8	 mov	 DWORD PTR $T527400[ebp+20], edi
  0002a	89 5d e4	 mov	 DWORD PTR $T527400[ebp+16], ebx
  0002d	88 5d d4	 mov	 BYTE PTR $T527400[ebp], bl
  00030	e8 00 00 00 00	 call	 ?assign@?$basic_string@DU?$char_traits@D@std@@V?$allocator@D@2@@std@@QAEAAV12@PBDI@Z ; std::basic_string<char,std::char_traits<char>,std::allocator<char> >::assign
  00035	8d 4e 14	 lea	 ecx, DWORD PTR [esi+20]
  00038	89 5d fc	 mov	 DWORD PTR __$EHRec$[ebp+8], ebx
  0003b	ff 15 00 00 00
	00		 call	 DWORD PTR __imp_?c_str@ioHashString@@QBEPBDXZ
  00041	50		 push	 eax
  00042	8d 4d b8	 lea	 ecx, DWORD PTR $T527401[ebp]
  00045	89 7d cc	 mov	 DWORD PTR $T527401[ebp+20], edi
  00048	89 5d c8	 mov	 DWORD PTR $T527401[ebp+16], ebx
  0004b	88 5d b8	 mov	 BYTE PTR $T527401[ebp], bl
  0004e	e8 00 00 00 00	 call	 ?assign@?$basic_string@DU?$char_traits@D@std@@V?$allocator@D@2@@std@@QAEAAV12@PBD@Z ; std::basic_string<char,std::char_traits<char>,std::allocator<char> >::assign
  00053	53		 push	 ebx
  00054	8d 45 d4	 lea	 eax, DWORD PTR $T527400[ebp]
  00057	50		 push	 eax
  00058	8d 45 b8	 lea	 eax, DWORD PTR $T527401[ebp]
  0005b	50		 push	 eax
  0005c	c6 45 fc 01	 mov	 BYTE PTR __$EHRec$[ebp+8], 1
  00060	ff 15 00 00 00
	00		 call	 DWORD PTR __imp_?Split@ioStringConverter@@SAABV?$vector@V?$basic_string@DU?$char_traits@D@std@@V?$allocator@D@2@@std@@V?$allocator@V?$basic_string@DU?$char_traits@D@std@@V?$allocator@D@2@@std@@@2@@std@@ABV?$basic_string@DU?$char_traits@D@std@@V?$allocator@D@2@@3@0H@Z
  00066	83 c4 0c	 add	 esp, 12			; 0000000cH
  00069	53		 push	 ebx
  0006a	6a 01		 push	 1
  0006c	8d 4d b8	 lea	 ecx, DWORD PTR $T527401[ebp]
  0006f	8b f0		 mov	 esi, eax
  00071	e8 00 00 00 00	 call	 ?_Tidy@?$basic_string@DU?$char_traits@D@std@@V?$allocator@D@2@@std@@QAEX_NI@Z ; std::basic_string<char,std::char_traits<char>,std::allocator<char> >::_Tidy
  00076	83 4d fc ff	 or	 DWORD PTR __$EHRec$[ebp+8], -1
  0007a	53		 push	 ebx
  0007b	6a 01		 push	 1
  0007d	8d 4d d4	 lea	 ecx, DWORD PTR $T527400[ebp]
  00080	e8 00 00 00 00	 call	 ?_Tidy@?$basic_string@DU?$char_traits@D@std@@V?$allocator@D@2@@std@@QAEX_NI@Z ; std::basic_string<char,std::char_traits<char>,std::allocator<char> >::_Tidy

; 888  : 	int iReturnSize = vParam.size();

  00085	8b 46 04	 mov	 eax, DWORD PTR [esi+4]
  00088	2b 06		 sub	 eax, DWORD PTR [esi]
  0008a	6a 1c		 push	 28			; 0000001cH
  0008c	99		 cdq
  0008d	59		 pop	 ecx
  0008e	f7 f9		 idiv	 ecx

; 889  : 	for(int i = 0;i < iReturnSize;i++)

  00090	89 5d b0	 mov	 DWORD PTR _i$527403[ebp], ebx
  00093	89 45 ac	 mov	 DWORD PTR _iReturnSize$[ebp], eax
  00096	3b c3		 cmp	 eax, ebx
  00098	7e 43		 jle	 SHORT $LN93@OnHideHelm

; 890  : 	{
; 891  : 		if( m_pChar->GetCharacterInfo().m_class_type == atoi( vParam[i].c_str() ) )

  0009a	89 5d b4	 mov	 DWORD PTR tv489[ebp], ebx
$LL5@OnHideHelm:
  0009d	8b 7d a8	 mov	 edi, DWORD PTR _this$GSCopy$[ebp]
  000a0	8b 4f 18	 mov	 ecx, DWORD PTR [edi+24]
  000a3	8d 45 a4	 lea	 eax, DWORD PTR _value$540342[ebp]
  000a6	50		 push	 eax
  000a7	81 c1 58 03 00
	00		 add	 ecx, 856		; 00000358H
  000ad	e8 00 00 00 00	 call	 ?DecryptValueToPool@?$CEncrypt@H@@QAEXPAH@Z ; CEncrypt<int>::DecryptValueToPool
  000b2	8b 06		 mov	 eax, DWORD PTR [esi]
  000b4	03 45 b4	 add	 eax, DWORD PTR tv489[ebp]
  000b7	83 78 14 10	 cmp	 DWORD PTR [eax+20], 16	; 00000010H
  000bb	72 02		 jb	 SHORT $LN86@OnHideHelm
  000bd	8b 00		 mov	 eax, DWORD PTR [eax]
$LN86@OnHideHelm:
  000bf	50		 push	 eax
  000c0	ff 15 00 00 00
	00		 call	 DWORD PTR __imp__atoi
  000c6	59		 pop	 ecx
  000c7	39 45 a4	 cmp	 DWORD PTR _value$540342[ebp], eax
  000ca	74 4e		 je	 SHORT $LN6@OnHideHelm

; 889  : 	for(int i = 0;i < iReturnSize;i++)

  000cc	ff 45 b0	 inc	 DWORD PTR _i$527403[ebp]
  000cf	8b 45 b0	 mov	 eax, DWORD PTR _i$527403[ebp]
  000d2	83 45 b4 1c	 add	 DWORD PTR tv489[ebp], 28 ; 0000001cH
  000d6	3b 45 ac	 cmp	 eax, DWORD PTR _iReturnSize$[ebp]
  000d9	7c c2		 jl	 SHORT $LL5@OnHideHelm
  000db	eb 03		 jmp	 SHORT $LN3@OnHideHelm
$LN93@OnHideHelm:
  000dd	8b 7d a8	 mov	 edi, DWORD PTR _this$GSCopy$[ebp]
$LN3@OnHideHelm:

; 892  : 			return;
; 893  : 	}
; 894  : 
; 895  : 	const ioHelmetItem *pHelmetItem = m_pChar->GetHelmet();

  000e0	8b 4f 18	 mov	 ecx, DWORD PTR [edi+24]
  000e3	e8 00 00 00 00	 call	 ?GetHelmet@ioBaseChar@@QBEPAVioHelmetItem@@XZ ; ioBaseChar::GetHelmet
  000e8	8b f0		 mov	 esi, eax

; 896  : 	if( !pHelmetItem ) return;

  000ea	3b f3		 cmp	 esi, ebx
  000ec	74 2c		 je	 SHORT $LN6@OnHideHelm

; 897  : 
; 898  : 	HideMesh( pHelmetItem->GetEquipMesh(m_pChar), pHelmetItem->GetItemEquipEffect(m_pChar->IsMale()), pNotifier );

  000ee	8b 47 18	 mov	 eax, DWORD PTR [edi+24]
  000f1	8a 80 20 03 00
	00		 mov	 al, BYTE PTR [eax+800]
  000f7	ff 75 a0	 push	 DWORD PTR _pNotifier$GSCopy$[ebp]
  000fa	88 45 ac	 mov	 BYTE PTR $T540366[ebp], al
  000fd	ff 75 ac	 push	 DWORD PTR $T540366[ebp]
  00100	8b ce		 mov	 ecx, esi
  00102	e8 00 00 00 00	 call	 ?GetItemEquipEffect@ioItem@@QBEABVioHashString@@_N@Z ; ioItem::GetItemEquipEffect
  00107	50		 push	 eax
  00108	ff 77 18	 push	 DWORD PTR [edi+24]
  0010b	8b ce		 mov	 ecx, esi
  0010d	e8 00 00 00 00	 call	 ?GetEquipMesh@ioHelmetItem@@QBEABVioHashString@@PAVioBaseChar@@@Z ; ioHelmetItem::GetEquipMesh
  00112	50		 push	 eax
  00113	8b cf		 mov	 ecx, edi
  00115	e8 00 00 00 00	 call	 ?HideMesh@ioClientAniEventHandler@@IAEXABVioHashString@@0PBVioAnimation@@@Z ; ioClientAniEventHandler::HideMesh
$LN6@OnHideHelm:

; 899  : }

  0011a	e8 00 00 00 00	 call	 __EH_epilog3_GS
  0011f	c2 08 00	 ret	 8
_TEXT	ENDS
;	COMDAT text$x
text$x	SEGMENT
__unwindfunclet$?OnHideHelmMesh@ioClientAniEventHandler@@IAEXPBUAniEventTime@@PBVioAnimation@@@Z$0:
  00000	8d 4d d4	 lea	 ecx, DWORD PTR $T527400[ebp]
  00003	e9 00 00 00 00	 jmp	 ??1?$basic_string@DU?$char_traits@D@std@@V?$allocator@D@2@@std@@QAE@XZ ; std::basic_string<char,std::char_traits<char>,std::allocator<char> >::~basic_string<char,std::char_traits<char>,std::allocator<char> >
__unwindfunclet$?OnHideHelmMesh@ioClientAniEventHandler@@IAEXPBUAniEventTime@@PBVioAnimation@@@Z$1:
  00008	8d 4d b8	 lea	 ecx, DWORD PTR $T527401[ebp]
  0000b	e9 00 00 00 00	 jmp	 ??1?$basic_string@DU?$char_traits@D@std@@V?$allocator@D@2@@std@@QAE@XZ ; std::basic_string<char,std::char_traits<char>,std::allocator<char> >::~basic_string<char,std::char_traits<char>,std::allocator<char> >
__ehhandler$?OnHideHelmMesh@ioClientAniEventHandler@@IAEXPBUAniEventTime@@PBVioAnimation@@@Z:
  00010	8b 54 24 08	 mov	 edx, DWORD PTR [esp+8]
  00014	8d 42 0c	 lea	 eax, DWORD PTR [edx+12]
  00017	8b 4a 9c	 mov	 ecx, DWORD PTR [edx-100]
  0001a	33 c8		 xor	 ecx, eax
  0001c	e8 00 00 00 00	 call	 @__security_check_cookie@4
  00021	8b 4a fc	 mov	 ecx, DWORD PTR [edx-4]
  00024	33 c8		 xor	 ecx, eax
  00026	e8 00 00 00 00	 call	 @__security_check_cookie@4
  0002b	b8 00 00 00 00	 mov	 eax, OFFSET __ehfuncinfo$?OnHideHelmMesh@ioClientAniEventHandler@@IAEXPBUAniEventTime@@PBVioAnimation@@@Z
  00030	e9 00 00 00 00	 jmp	 ___CxxFrameHandler3
text$x	ENDS
?OnHideHelmMesh@ioClientAniEventHandler@@IAEXPBUAniEventTime@@PBVioAnimation@@@Z ENDP ; ioClientAniEventHandler::OnHideHelmMesh
PUBLIC	_pNotifier$GSCopy$
PUBLIC	_this$GSCopy$
PUBLIC	?OnHideCloakMesh@ioClientAniEventHandler@@IAEXPBUAniEventTime@@PBVioAnimation@@@Z ; ioClientAniEventHandler::OnHideCloakMesh
;	COMDAT xdata$x
; File d:\lost saga for developer\youtube\tutorial\source\src\lsclient\iobasechar.h
xdata$x	SEGMENT
__unwindtable$?OnHideCloakMesh@ioClientAniEventHandler@@IAEXPBUAniEventTime@@PBVioAnimation@@@Z DD 0ffffffffH
	DD	FLAT:__unwindfunclet$?OnHideCloakMesh@ioClientAniEventHandler@@IAEXPBUAniEventTime@@PBVioAnimation@@@Z$0
	DD	00H
	DD	FLAT:__unwindfunclet$?OnHideCloakMesh@ioClientAniEventHandler@@IAEXPBUAniEventTime@@PBVioAnimation@@@Z$1
__ehfuncinfo$?OnHideCloakMesh@ioClientAniEventHandler@@IAEXPBUAniEventTime@@PBVioAnimation@@@Z DD 019930522H
	DD	02H
	DD	FLAT:__unwindtable$?OnHideCloakMesh@ioClientAniEventHandler@@IAEXPBUAniEventTime@@PBVioAnimation@@@Z
	DD	2 DUP(00H)
	DD	2 DUP(00H)
	DD	00H
	DD	01H
; Function compile flags: /Ogsp
; File d:\lost saga for developer\youtube\tutorial\source\src\lsclient\ioclientanieventhandler.cpp
xdata$x	ENDS
;	COMDAT ?OnHideCloakMesh@ioClientAniEventHandler@@IAEXPBUAniEventTime@@PBVioAnimation@@@Z
_TEXT	SEGMENT
_pNotifier$GSCopy$ = -96				; size = 4
_value$540609 = -92					; size = 4
_this$GSCopy$ = -88					; size = 4
$T540634 = -84						; size = 1
_iReturnSize$ = -84					; size = 4
_i$527419 = -80						; size = 4
tv489 = -76						; size = 4
$T527417 = -72						; size = 28
$T527416 = -44						; size = 28
__$EHRec$ = -12						; size = 12
_pEvent$ = 8						; size = 4
_pNotifier$ = 12					; size = 4
?OnHideCloakMesh@ioClientAniEventHandler@@IAEXPBUAniEventTime@@PBVioAnimation@@@Z PROC ; ioClientAniEventHandler::OnHideCloakMesh, COMDAT
; _this$ = ecx

; 902  : {

  00000	6a 54		 push	 84			; 00000054H
  00002	b8 00 00 00 00	 mov	 eax, __ehhandler$?OnHideCloakMesh@ioClientAniEventHandler@@IAEXPBUAniEventTime@@PBVioAnimation@@@Z
  00007	e8 00 00 00 00	 call	 __EH_prolog3_GS
  0000c	8b 45 0c	 mov	 eax, DWORD PTR _pNotifier$[ebp]
  0000f	8b 75 08	 mov	 esi, DWORD PTR _pEvent$[ebp]

; 903  : 	const StringVector &vParam = ioStringConverter::Split( pEvent->szSubInfo.c_str(), " " );

  00012	6a 0f		 push	 15			; 0000000fH
  00014	5f		 pop	 edi
  00015	6a 01		 push	 1
  00017	89 4d a8	 mov	 DWORD PTR _this$GSCopy$[ebp], ecx
  0001a	33 db		 xor	 ebx, ebx
  0001c	68 00 00 00 00	 push	 OFFSET ??_C@_01CLKCMJKC@?5?$AA@
  00021	8d 4d d4	 lea	 ecx, DWORD PTR $T527416[ebp]
  00024	89 45 a0	 mov	 DWORD PTR _pNotifier$GSCopy$[ebp], eax
  00027	89 7d e8	 mov	 DWORD PTR $T527416[ebp+20], edi
  0002a	89 5d e4	 mov	 DWORD PTR $T527416[ebp+16], ebx
  0002d	88 5d d4	 mov	 BYTE PTR $T527416[ebp], bl
  00030	e8 00 00 00 00	 call	 ?assign@?$basic_string@DU?$char_traits@D@std@@V?$allocator@D@2@@std@@QAEAAV12@PBDI@Z ; std::basic_string<char,std::char_traits<char>,std::allocator<char> >::assign
  00035	8d 4e 14	 lea	 ecx, DWORD PTR [esi+20]
  00038	89 5d fc	 mov	 DWORD PTR __$EHRec$[ebp+8], ebx
  0003b	ff 15 00 00 00
	00		 call	 DWORD PTR __imp_?c_str@ioHashString@@QBEPBDXZ
  00041	50		 push	 eax
  00042	8d 4d b8	 lea	 ecx, DWORD PTR $T527417[ebp]
  00045	89 7d cc	 mov	 DWORD PTR $T527417[ebp+20], edi
  00048	89 5d c8	 mov	 DWORD PTR $T527417[ebp+16], ebx
  0004b	88 5d b8	 mov	 BYTE PTR $T527417[ebp], bl
  0004e	e8 00 00 00 00	 call	 ?assign@?$basic_string@DU?$char_traits@D@std@@V?$allocator@D@2@@std@@QAEAAV12@PBD@Z ; std::basic_string<char,std::char_traits<char>,std::allocator<char> >::assign
  00053	53		 push	 ebx
  00054	8d 45 d4	 lea	 eax, DWORD PTR $T527416[ebp]
  00057	50		 push	 eax
  00058	8d 45 b8	 lea	 eax, DWORD PTR $T527417[ebp]
  0005b	50		 push	 eax
  0005c	c6 45 fc 01	 mov	 BYTE PTR __$EHRec$[ebp+8], 1
  00060	ff 15 00 00 00
	00		 call	 DWORD PTR __imp_?Split@ioStringConverter@@SAABV?$vector@V?$basic_string@DU?$char_traits@D@std@@V?$allocator@D@2@@std@@V?$allocator@V?$basic_string@DU?$char_traits@D@std@@V?$allocator@D@2@@std@@@2@@std@@ABV?$basic_string@DU?$char_traits@D@std@@V?$allocator@D@2@@3@0H@Z
  00066	83 c4 0c	 add	 esp, 12			; 0000000cH
  00069	53		 push	 ebx
  0006a	6a 01		 push	 1
  0006c	8d 4d b8	 lea	 ecx, DWORD PTR $T527417[ebp]
  0006f	8b f0		 mov	 esi, eax
  00071	e8 00 00 00 00	 call	 ?_Tidy@?$basic_string@DU?$char_traits@D@std@@V?$allocator@D@2@@std@@QAEX_NI@Z ; std::basic_string<char,std::char_traits<char>,std::allocator<char> >::_Tidy
  00076	83 4d fc ff	 or	 DWORD PTR __$EHRec$[ebp+8], -1
  0007a	53		 push	 ebx
  0007b	6a 01		 push	 1
  0007d	8d 4d d4	 lea	 ecx, DWORD PTR $T527416[ebp]
  00080	e8 00 00 00 00	 call	 ?_Tidy@?$basic_string@DU?$char_traits@D@std@@V?$allocator@D@2@@std@@QAEX_NI@Z ; std::basic_string<char,std::char_traits<char>,std::allocator<char> >::_Tidy

; 904  : 	int iReturnSize = vParam.size();

  00085	8b 46 04	 mov	 eax, DWORD PTR [esi+4]
  00088	2b 06		 sub	 eax, DWORD PTR [esi]
  0008a	6a 1c		 push	 28			; 0000001cH
  0008c	99		 cdq
  0008d	59		 pop	 ecx
  0008e	f7 f9		 idiv	 ecx

; 905  : 	for(int i = 0;i < iReturnSize;i++)

  00090	89 5d b0	 mov	 DWORD PTR _i$527419[ebp], ebx
  00093	89 45 ac	 mov	 DWORD PTR _iReturnSize$[ebp], eax
  00096	3b c3		 cmp	 eax, ebx
  00098	7e 43		 jle	 SHORT $LN93@OnHideCloa

; 906  : 	{
; 907  : 		if( m_pChar->GetCharacterInfo().m_class_type == atoi( vParam[i].c_str() ) )

  0009a	89 5d b4	 mov	 DWORD PTR tv489[ebp], ebx
$LL5@OnHideCloa:
  0009d	8b 7d a8	 mov	 edi, DWORD PTR _this$GSCopy$[ebp]
  000a0	8b 4f 18	 mov	 ecx, DWORD PTR [edi+24]
  000a3	8d 45 a4	 lea	 eax, DWORD PTR _value$540609[ebp]
  000a6	50		 push	 eax
  000a7	81 c1 58 03 00
	00		 add	 ecx, 856		; 00000358H
  000ad	e8 00 00 00 00	 call	 ?DecryptValueToPool@?$CEncrypt@H@@QAEXPAH@Z ; CEncrypt<int>::DecryptValueToPool
  000b2	8b 06		 mov	 eax, DWORD PTR [esi]
  000b4	03 45 b4	 add	 eax, DWORD PTR tv489[ebp]
  000b7	83 78 14 10	 cmp	 DWORD PTR [eax+20], 16	; 00000010H
  000bb	72 02		 jb	 SHORT $LN86@OnHideCloa
  000bd	8b 00		 mov	 eax, DWORD PTR [eax]
$LN86@OnHideCloa:
  000bf	50		 push	 eax
  000c0	ff 15 00 00 00
	00		 call	 DWORD PTR __imp__atoi
  000c6	59		 pop	 ecx
  000c7	39 45 a4	 cmp	 DWORD PTR _value$540609[ebp], eax
  000ca	74 4e		 je	 SHORT $LN6@OnHideCloa

; 905  : 	for(int i = 0;i < iReturnSize;i++)

  000cc	ff 45 b0	 inc	 DWORD PTR _i$527419[ebp]
  000cf	8b 45 b0	 mov	 eax, DWORD PTR _i$527419[ebp]
  000d2	83 45 b4 1c	 add	 DWORD PTR tv489[ebp], 28 ; 0000001cH
  000d6	3b 45 ac	 cmp	 eax, DWORD PTR _iReturnSize$[ebp]
  000d9	7c c2		 jl	 SHORT $LL5@OnHideCloa
  000db	eb 03		 jmp	 SHORT $LN3@OnHideCloa
$LN93@OnHideCloa:
  000dd	8b 7d a8	 mov	 edi, DWORD PTR _this$GSCopy$[ebp]
$LN3@OnHideCloa:

; 908  : 			return;
; 909  : 	}
; 910  : 
; 911  : 	const ioCloakItem *pCloakItem = m_pChar->GetCloak();

  000e0	8b 4f 18	 mov	 ecx, DWORD PTR [edi+24]
  000e3	e8 00 00 00 00	 call	 ?GetCloak@ioBaseChar@@QBEPAVioCloakItem@@XZ ; ioBaseChar::GetCloak
  000e8	8b f0		 mov	 esi, eax

; 912  : 	if( !pCloakItem ) return;

  000ea	3b f3		 cmp	 esi, ebx
  000ec	74 2c		 je	 SHORT $LN6@OnHideCloa

; 913  : 
; 914  : 	HideMesh( pCloakItem->GetEquipMesh(m_pChar), pCloakItem->GetItemEquipEffect(m_pChar->IsMale()), pNotifier );

  000ee	8b 47 18	 mov	 eax, DWORD PTR [edi+24]
  000f1	8a 80 20 03 00
	00		 mov	 al, BYTE PTR [eax+800]
  000f7	ff 75 a0	 push	 DWORD PTR _pNotifier$GSCopy$[ebp]
  000fa	88 45 ac	 mov	 BYTE PTR $T540634[ebp], al
  000fd	ff 75 ac	 push	 DWORD PTR $T540634[ebp]
  00100	8b ce		 mov	 ecx, esi
  00102	e8 00 00 00 00	 call	 ?GetItemEquipEffect@ioItem@@QBEABVioHashString@@_N@Z ; ioItem::GetItemEquipEffect
  00107	50		 push	 eax
  00108	ff 77 18	 push	 DWORD PTR [edi+24]
  0010b	8b ce		 mov	 ecx, esi
  0010d	e8 00 00 00 00	 call	 ?GetEquipMesh@ioCloakItem@@QBEABVioHashString@@PAVioBaseChar@@@Z ; ioCloakItem::GetEquipMesh
  00112	50		 push	 eax
  00113	8b cf		 mov	 ecx, edi
  00115	e8 00 00 00 00	 call	 ?HideMesh@ioClientAniEventHandler@@IAEXABVioHashString@@0PBVioAnimation@@@Z ; ioClientAniEventHandler::HideMesh
$LN6@OnHideCloa:

; 915  : }

  0011a	e8 00 00 00 00	 call	 __EH_epilog3_GS
  0011f	c2 08 00	 ret	 8
_TEXT	ENDS
;	COMDAT text$x
text$x	SEGMENT
__unwindfunclet$?OnHideCloakMesh@ioClientAniEventHandler@@IAEXPBUAniEventTime@@PBVioAnimation@@@Z$0:
  00000	8d 4d d4	 lea	 ecx, DWORD PTR $T527416[ebp]
  00003	e9 00 00 00 00	 jmp	 ??1?$basic_string@DU?$char_traits@D@std@@V?$allocator@D@2@@std@@QAE@XZ ; std::basic_string<char,std::char_traits<char>,std::allocator<char> >::~basic_string<char,std::char_traits<char>,std::allocator<char> >
__unwindfunclet$?OnHideCloakMesh@ioClientAniEventHandler@@IAEXPBUAniEventTime@@PBVioAnimation@@@Z$1:
  00008	8d 4d b8	 lea	 ecx, DWORD PTR $T527417[ebp]
  0000b	e9 00 00 00 00	 jmp	 ??1?$basic_string@DU?$char_traits@D@std@@V?$allocator@D@2@@std@@QAE@XZ ; std::basic_string<char,std::char_traits<char>,std::allocator<char> >::~basic_string<char,std::char_traits<char>,std::allocator<char> >
__ehhandler$?OnHideCloakMesh@ioClientAniEventHandler@@IAEXPBUAniEventTime@@PBVioAnimation@@@Z:
  00010	8b 54 24 08	 mov	 edx, DWORD PTR [esp+8]
  00014	8d 42 0c	 lea	 eax, DWORD PTR [edx+12]
  00017	8b 4a 9c	 mov	 ecx, DWORD PTR [edx-100]
  0001a	33 c8		 xor	 ecx, eax
  0001c	e8 00 00 00 00	 call	 @__security_check_cookie@4
  00021	8b 4a fc	 mov	 ecx, DWORD PTR [edx-4]
  00024	33 c8		 xor	 ecx, eax
  00026	e8 00 00 00 00	 call	 @__security_check_cookie@4
  0002b	b8 00 00 00 00	 mov	 eax, OFFSET __ehfuncinfo$?OnHideCloakMesh@ioClientAniEventHandler@@IAEXPBUAniEventTime@@PBVioAnimation@@@Z
  00030	e9 00 00 00 00	 jmp	 ___CxxFrameHandler3
text$x	ENDS
?OnHideCloakMesh@ioClientAniEventHandler@@IAEXPBUAniEventTime@@PBVioAnimation@@@Z ENDP ; ioClientAniEventHandler::OnHideCloakMesh
PUBLIC	??$_Ucopy@V?$_Vector_const_iterator@V?$_Vector_val@V?$basic_string@DU?$char_traits@D@std@@V?$allocator@D@2@@std@@V?$allocator@V?$basic_string@DU?$char_traits@D@std@@V?$allocator@D@2@@std@@@2@@std@@@std@@@?$vector@V?$basic_string@DU?$char_traits@D@std@@V?$allocator@D@2@@std@@V?$allocator@V?$basic_string@DU?$char_traits@D@std@@V?$allocator@D@2@@std@@@2@@std@@IAEPAV?$basic_string@DU?$char_traits@D@std@@V?$allocator@D@2@@1@V?$_Vector_const_iterator@V?$_Vector_val@V?$basic_string@DU?$char_traits@D@std@@V?$allocator@D@2@@std@@V?$allocator@V?$basic_string@DU?$char_traits@D@std@@V?$allocator@D@2@@std@@@2@@std@@@1@0PAV21@@Z ; std::vector<std::basic_string<char,std::char_traits<char>,std::allocator<char> >,std::allocator<std::basic_string<char,std::char_traits<char>,std::allocator<char> > > >::_Ucopy<std::_Vector_const_iterator<std::_Vector_val<std::basic_string<char,std::char_traits<char>,std::allocator<char> >,std::allocator<std::basic_string<char,std::char_traits<char>,std::allocator<char> > > > > >
; Function compile flags: /Ogsp
; File c:\program files (x86)\microsoft visual studio 10.0\vc\include\vector
;	COMDAT ??$_Ucopy@V?$_Vector_const_iterator@V?$_Vector_val@V?$basic_string@DU?$char_traits@D@std@@V?$allocator@D@2@@std@@V?$allocator@V?$basic_string@DU?$char_traits@D@std@@V?$allocator@D@2@@std@@@2@@std@@@std@@@?$vector@V?$basic_string@DU?$char_traits@D@std@@V?$allocator@D@2@@std@@V?$allocator@V?$basic_string@DU?$char_traits@D@std@@V?$allocator@D@2@@std@@@2@@std@@IAEPAV?$basic_string@DU?$char_traits@D@std@@V?$allocator@D@2@@1@V?$_Vector_const_iterator@V?$_Vector_val@V?$basic_string@DU?$char_traits@D@std@@V?$allocator@D@2@@std@@V?$allocator@V?$basic_string@DU?$char_traits@D@std@@V?$allocator@D@2@@std@@@2@@std@@@1@0PAV21@@Z
_TEXT	SEGMENT
__First$ = 8						; size = 4
__Last$ = 12						; size = 4
__Cat$540660 = 16					; size = 1
__Ptr$ = 16						; size = 4
??$_Ucopy@V?$_Vector_const_iterator@V?$_Vector_val@V?$basic_string@DU?$char_traits@D@std@@V?$allocator@D@2@@std@@V?$allocator@V?$basic_string@DU?$char_traits@D@std@@V?$allocator@D@2@@std@@@2@@std@@@std@@@?$vector@V?$basic_string@DU?$char_traits@D@std@@V?$allocator@D@2@@std@@V?$allocator@V?$basic_string@DU?$char_traits@D@std@@V?$allocator@D@2@@std@@@2@@std@@IAEPAV?$basic_string@DU?$char_traits@D@std@@V?$allocator@D@2@@1@V?$_Vector_const_iterator@V?$_Vector_val@V?$basic_string@DU?$char_traits@D@std@@V?$allocator@D@2@@std@@V?$allocator@V?$basic_string@DU?$char_traits@D@std@@V?$allocator@D@2@@std@@@2@@std@@@1@0PAV21@@Z PROC ; std::vector<std::basic_string<char,std::char_traits<char>,std::allocator<char> >,std::allocator<std::basic_string<char,std::char_traits<char>,std::allocator<char> > > >::_Ucopy<std::_Vector_const_iterator<std::_Vector_val<std::basic_string<char,std::char_traits<char>,std::allocator<char> >,std::allocator<std::basic_string<char,std::char_traits<char>,std::allocator<char> > > > > >, COMDAT
; _this$ = ecx

; 1315 : 		pointer _Ucopy(_Iter _First, _Iter _Last, pointer _Ptr)

  00000	55		 push	 ebp
  00001	8b ec		 mov	 ebp, esp

; 1316 : 		{	// copy initializing [_First, _Last), using allocator
; 1317 : 		return (_Uninitialized_copy(_First, _Last,
; 1318 : 			_Ptr, this->_Alval));

  00003	ff 75 10	 push	 DWORD PTR __Cat$540660[ebp]
  00006	83 c1 0c	 add	 ecx, 12			; 0000000cH
  00009	51		 push	 ecx
  0000a	ff 75 10	 push	 DWORD PTR __Ptr$[ebp]
  0000d	ff 75 0c	 push	 DWORD PTR __Last$[ebp]
  00010	ff 75 08	 push	 DWORD PTR __First$[ebp]
  00013	e8 00 00 00 00	 call	 ??$_Uninit_copy@V?$_Vector_const_iterator@V?$_Vector_val@V?$basic_string@DU?$char_traits@D@std@@V?$allocator@D@2@@std@@V?$allocator@V?$basic_string@DU?$char_traits@D@std@@V?$allocator@D@2@@std@@@2@@std@@@std@@PAV?$basic_string@DU?$char_traits@D@std@@V?$allocator@D@2@@2@V?$allocator@V?$basic_string@DU?$char_traits@D@std@@V?$allocator@D@2@@std@@@2@@std@@YAPAV?$basic_string@DU?$char_traits@D@std@@V?$allocator@D@2@@0@V?$_Vector_const_iterator@V?$_Vector_val@V?$basic_string@DU?$char_traits@D@std@@V?$allocator@D@2@@std@@V?$allocator@V?$basic_string@DU?$char_traits@D@std@@V?$allocator@D@2@@std@@@2@@std@@@0@0PAV10@AAV?$allocator@V?$basic_string@DU?$char_traits@D@std@@V?$allocator@D@2@@std@@@0@U_Nonscalar_ptr_iterator_tag@0@@Z ; std::_Uninit_copy<std::_Vector_const_iterator<std::_Vector_val<std::basic_string<char,std::char_traits<char>,std::allocator<char> >,std::allocator<std::basic_string<char,std::char_traits<char>,std::allocator<char> > > > >,std::basic_string<char,std::char_traits<char>,std::allocator<char> > *,std::allocator<std::basic_string<char,std::char_traits<char>,std::allocator<char> > > >
  00018	83 c4 14	 add	 esp, 20			; 00000014H

; 1319 : 		}

  0001b	5d		 pop	 ebp
  0001c	c2 0c 00	 ret	 12			; 0000000cH
??$_Ucopy@V?$_Vector_const_iterator@V?$_Vector_val@V?$basic_string@DU?$char_traits@D@std@@V?$allocator@D@2@@std@@V?$allocator@V?$basic_string@DU?$char_traits@D@std@@V?$allocator@D@2@@std@@@2@@std@@@std@@@?$vector@V?$basic_string@DU?$char_traits@D@std@@V?$allocator@D@2@@std@@V?$allocator@V?$basic_string@DU?$char_traits@D@std@@V?$allocator@D@2@@std@@@2@@std@@IAEPAV?$basic_string@DU?$char_traits@D@std@@V?$allocator@D@2@@1@V?$_Vector_const_iterator@V?$_Vector_val@V?$basic_string@DU?$char_traits@D@std@@V?$allocator@D@2@@std@@V?$allocator@V?$basic_string@DU?$char_traits@D@std@@V?$allocator@D@2@@std@@@2@@std@@@1@0PAV21@@Z ENDP ; std::vector<std::basic_string<char,std::char_traits<char>,std::allocator<char> >,std::allocator<std::basic_string<char,std::char_traits<char>,std::allocator<char> > > >::_Ucopy<std::_Vector_const_iterator<std::_Vector_val<std::basic_string<char,std::char_traits<char>,std::allocator<char> >,std::allocator<std::basic_string<char,std::char_traits<char>,std::allocator<char> > > > > >
_TEXT	ENDS
PUBLIC	??1?$vector@V?$basic_string@DU?$char_traits@D@std@@V?$allocator@D@2@@std@@V?$allocator@V?$basic_string@DU?$char_traits@D@std@@V?$allocator@D@2@@std@@@2@@std@@QAE@XZ ; std::vector<std::basic_string<char,std::char_traits<char>,std::allocator<char> >,std::allocator<std::basic_string<char,std::char_traits<char>,std::allocator<char> > > >::~vector<std::basic_string<char,std::char_traits<char>,std::allocator<char> >,std::allocator<std::basic_string<char,std::char_traits<char>,std::allocator<char> > > >
; Function compile flags: /Ogsp
;	COMDAT ??1?$vector@V?$basic_string@DU?$char_traits@D@std@@V?$allocator@D@2@@std@@V?$allocator@V?$basic_string@DU?$char_traits@D@std@@V?$allocator@D@2@@std@@@2@@std@@QAE@XZ
_TEXT	SEGMENT
??1?$vector@V?$basic_string@DU?$char_traits@D@std@@V?$allocator@D@2@@std@@V?$allocator@V?$basic_string@DU?$char_traits@D@std@@V?$allocator@D@2@@std@@@2@@std@@QAE@XZ PROC ; std::vector<std::basic_string<char,std::char_traits<char>,std::allocator<char> >,std::allocator<std::basic_string<char,std::char_traits<char>,std::allocator<char> > > >::~vector<std::basic_string<char,std::char_traits<char>,std::allocator<char> >,std::allocator<std::basic_string<char,std::char_traits<char>,std::allocator<char> > > >, COMDAT
; _this$ = ecx

; 705  : 		_Tidy();

  00000	e9 00 00 00 00	 jmp	 ?_Tidy@?$vector@V?$basic_string@DU?$char_traits@D@std@@V?$allocator@D@2@@std@@V?$allocator@V?$basic_string@DU?$char_traits@D@std@@V?$allocator@D@2@@std@@@2@@std@@IAEXXZ ; std::vector<std::basic_string<char,std::char_traits<char>,std::allocator<char> >,std::allocator<std::basic_string<char,std::char_traits<char>,std::allocator<char> > > >::_Tidy
??1?$vector@V?$basic_string@DU?$char_traits@D@std@@V?$allocator@D@2@@std@@V?$allocator@V?$basic_string@DU?$char_traits@D@std@@V?$allocator@D@2@@std@@@2@@std@@QAE@XZ ENDP ; std::vector<std::basic_string<char,std::char_traits<char>,std::allocator<char> >,std::allocator<std::basic_string<char,std::char_traits<char>,std::allocator<char> > > >::~vector<std::basic_string<char,std::char_traits<char>,std::allocator<char> >,std::allocator<std::basic_string<char,std::char_traits<char>,std::allocator<char> > > >
_TEXT	ENDS
PUBLIC	??0?$vector@V?$basic_string@DU?$char_traits@D@std@@V?$allocator@D@2@@std@@V?$allocator@V?$basic_string@DU?$char_traits@D@std@@V?$allocator@D@2@@std@@@2@@std@@QAE@ABV01@@Z ; std::vector<std::basic_string<char,std::char_traits<char>,std::allocator<char> >,std::allocator<std::basic_string<char,std::char_traits<char>,std::allocator<char> > > >::vector<std::basic_string<char,std::char_traits<char>,std::allocator<char> >,std::allocator<std::basic_string<char,std::char_traits<char>,std::allocator<char> > > >
;	COMDAT xdata$x
; File c:\program files (x86)\microsoft visual studio 10.0\vc\include\xutility
xdata$x	SEGMENT
__catchsym$??0?$vector@V?$basic_string@DU?$char_traits@D@std@@V?$allocator@D@2@@std@@V?$allocator@V?$basic_string@DU?$char_traits@D@std@@V?$allocator@D@2@@std@@@2@@std@@QAE@ABV01@@Z$2 DD 040H
	DD	00H
	DD	00H
	DD	FLAT:__catch$??0?$vector@V?$basic_string@DU?$char_traits@D@std@@V?$allocator@D@2@@std@@V?$allocator@V?$basic_string@DU?$char_traits@D@std@@V?$allocator@D@2@@std@@@2@@std@@QAE@ABV01@@Z$0
__unwindtable$??0?$vector@V?$basic_string@DU?$char_traits@D@std@@V?$allocator@D@2@@std@@V?$allocator@V?$basic_string@DU?$char_traits@D@std@@V?$allocator@D@2@@std@@@2@@std@@QAE@ABV01@@Z DD 0ffffffffH
	DD	00H
	DD	0ffffffffH
	DD	00H
__tryblocktable$??0?$vector@V?$basic_string@DU?$char_traits@D@std@@V?$allocator@D@2@@std@@V?$allocator@V?$basic_string@DU?$char_traits@D@std@@V?$allocator@D@2@@std@@@2@@std@@QAE@ABV01@@Z DD 00H
	DD	00H
	DD	01H
	DD	01H
	DD	FLAT:__catchsym$??0?$vector@V?$basic_string@DU?$char_traits@D@std@@V?$allocator@D@2@@std@@V?$allocator@V?$basic_string@DU?$char_traits@D@std@@V?$allocator@D@2@@std@@@2@@std@@QAE@ABV01@@Z$2
__ehfuncinfo$??0?$vector@V?$basic_string@DU?$char_traits@D@std@@V?$allocator@D@2@@std@@V?$allocator@V?$basic_string@DU?$char_traits@D@std@@V?$allocator@D@2@@std@@@2@@std@@QAE@ABV01@@Z DD 019930522H
	DD	02H
	DD	FLAT:__unwindtable$??0?$vector@V?$basic_string@DU?$char_traits@D@std@@V?$allocator@D@2@@std@@V?$allocator@V?$basic_string@DU?$char_traits@D@std@@V?$allocator@D@2@@std@@@2@@std@@QAE@ABV01@@Z
	DD	01H
	DD	FLAT:__tryblocktable$??0?$vector@V?$basic_string@DU?$char_traits@D@std@@V?$allocator@D@2@@std@@V?$allocator@V?$basic_string@DU?$char_traits@D@std@@V?$allocator@D@2@@std@@@2@@std@@QAE@ABV01@@Z
	DD	2 DUP(00H)
	DD	00H
	DD	01H
; Function compile flags: /Ogsp
; File c:\program files (x86)\microsoft visual studio 10.0\vc\include\vector
xdata$x	ENDS
;	COMDAT ??0?$vector@V?$basic_string@DU?$char_traits@D@std@@V?$allocator@D@2@@std@@V?$allocator@V?$basic_string@DU?$char_traits@D@std@@V?$allocator@D@2@@std@@@2@@std@@QAE@ABV01@@Z
_TEXT	SEGMENT
_this$ = -20						; size = 4
__$EHRec$ = -16						; size = 16
__Cat$540749 = 8					; size = 1
__Right$ = 8						; size = 4
??0?$vector@V?$basic_string@DU?$char_traits@D@std@@V?$allocator@D@2@@std@@V?$allocator@V?$basic_string@DU?$char_traits@D@std@@V?$allocator@D@2@@std@@@2@@std@@QAE@ABV01@@Z PROC ; std::vector<std::basic_string<char,std::char_traits<char>,std::allocator<char> >,std::allocator<std::basic_string<char,std::char_traits<char>,std::allocator<char> > > >::vector<std::basic_string<char,std::char_traits<char>,std::allocator<char> >,std::allocator<std::basic_string<char,std::char_traits<char>,std::allocator<char> > > >, COMDAT
; _this$ = ecx

; 535  : 		{	// construct by copying _Right

  00000	6a 08		 push	 8
  00002	b8 00 00 00 00	 mov	 eax, __ehhandler$??0?$vector@V?$basic_string@DU?$char_traits@D@std@@V?$allocator@D@2@@std@@V?$allocator@V?$basic_string@DU?$char_traits@D@std@@V?$allocator@D@2@@std@@@2@@std@@QAE@ABV01@@Z
  00007	e8 00 00 00 00	 call	 __EH_prolog3_catch
  0000c	8b f1		 mov	 esi, ecx
  0000e	89 75 ec	 mov	 DWORD PTR _this$[ebp], esi

; 536  : 		if (_Buy(_Right.size()))

  00011	8b 7d 08	 mov	 edi, DWORD PTR __Right$[ebp]
  00014	33 db		 xor	 ebx, ebx
  00016	89 1e		 mov	 DWORD PTR [esi], ebx
  00018	89 5e 04	 mov	 DWORD PTR [esi+4], ebx
  0001b	89 5e 08	 mov	 DWORD PTR [esi+8], ebx
  0001e	8b 47 04	 mov	 eax, DWORD PTR [edi+4]
  00021	2b 07		 sub	 eax, DWORD PTR [edi]
  00023	6a 1c		 push	 28			; 0000001cH
  00025	59		 pop	 ecx
  00026	99		 cdq
  00027	f7 f9		 idiv	 ecx
  00029	8b ce		 mov	 ecx, esi
  0002b	50		 push	 eax
  0002c	e8 00 00 00 00	 call	 ?_Buy@?$vector@V?$basic_string@DU?$char_traits@D@std@@V?$allocator@D@2@@std@@V?$allocator@V?$basic_string@DU?$char_traits@D@std@@V?$allocator@D@2@@std@@@2@@std@@IAE_NI@Z ; std::vector<std::basic_string<char,std::char_traits<char>,std::allocator<char> >,std::allocator<std::basic_string<char,std::char_traits<char>,std::allocator<char> > > >::_Buy
  00031	84 c0		 test	 al, al
  00033	74 1f		 je	 SHORT $LN7@vector

; 537  : 			_TRY_BEGIN
; 538  : 			this->_Mylast = _Ucopy(_Right.begin(), _Right.end(),
; 539  : 				this->_Myfirst);

  00035	ff 75 08	 push	 DWORD PTR __Cat$540749[ebp]
  00038	8b 0e		 mov	 ecx, DWORD PTR [esi]
  0003a	8b 47 04	 mov	 eax, DWORD PTR [edi+4]
  0003d	8b 3f		 mov	 edi, DWORD PTR [edi]
  0003f	8d 56 0c	 lea	 edx, DWORD PTR [esi+12]
  00042	52		 push	 edx
  00043	51		 push	 ecx
  00044	50		 push	 eax
  00045	57		 push	 edi
  00046	89 5d fc	 mov	 DWORD PTR __$EHRec$[ebp+12], ebx
  00049	e8 00 00 00 00	 call	 ??$_Uninit_copy@V?$_Vector_const_iterator@V?$_Vector_val@V?$basic_string@DU?$char_traits@D@std@@V?$allocator@D@2@@std@@V?$allocator@V?$basic_string@DU?$char_traits@D@std@@V?$allocator@D@2@@std@@@2@@std@@@std@@PAV?$basic_string@DU?$char_traits@D@std@@V?$allocator@D@2@@2@V?$allocator@V?$basic_string@DU?$char_traits@D@std@@V?$allocator@D@2@@std@@@2@@std@@YAPAV?$basic_string@DU?$char_traits@D@std@@V?$allocator@D@2@@0@V?$_Vector_const_iterator@V?$_Vector_val@V?$basic_string@DU?$char_traits@D@std@@V?$allocator@D@2@@std@@V?$allocator@V?$basic_string@DU?$char_traits@D@std@@V?$allocator@D@2@@std@@@2@@std@@@0@0PAV10@AAV?$allocator@V?$basic_string@DU?$char_traits@D@std@@V?$allocator@D@2@@std@@@0@U_Nonscalar_ptr_iterator_tag@0@@Z ; std::_Uninit_copy<std::_Vector_const_iterator<std::_Vector_val<std::basic_string<char,std::char_traits<char>,std::allocator<char> >,std::allocator<std::basic_string<char,std::char_traits<char>,std::allocator<char> > > > >,std::basic_string<char,std::char_traits<char>,std::allocator<char> > *,std::allocator<std::basic_string<char,std::char_traits<char>,std::allocator<char> > > >
  0004e	83 c4 14	 add	 esp, 20			; 00000014H
  00051	89 46 04	 mov	 DWORD PTR [esi+4], eax
$LN7@vector:

; 543  : 			_CATCH_END
; 544  : 		}

  00054	8b c6		 mov	 eax, esi
  00056	e8 00 00 00 00	 call	 __EH_epilog3
  0005b	c2 04 00	 ret	 4
__catch$??0?$vector@V?$basic_string@DU?$char_traits@D@std@@V?$allocator@D@2@@std@@V?$allocator@V?$basic_string@DU?$char_traits@D@std@@V?$allocator@D@2@@std@@@2@@std@@QAE@ABV01@@Z$0:

; 540  : 			_CATCH_ALL
; 541  : 			_Tidy();

  0005e	8b 4d ec	 mov	 ecx, DWORD PTR _this$[ebp]
  00061	e8 00 00 00 00	 call	 ?_Tidy@?$vector@V?$basic_string@DU?$char_traits@D@std@@V?$allocator@D@2@@std@@V?$allocator@V?$basic_string@DU?$char_traits@D@std@@V?$allocator@D@2@@std@@@2@@std@@IAEXXZ ; std::vector<std::basic_string<char,std::char_traits<char>,std::allocator<char> >,std::allocator<std::basic_string<char,std::char_traits<char>,std::allocator<char> > > >::_Tidy

; 542  : 			_RERAISE;

  00066	33 db		 xor	 ebx, ebx
  00068	53		 push	 ebx
  00069	53		 push	 ebx
  0006a	e8 00 00 00 00	 call	 __CxxThrowException@8
$LN38@vector:
$LN37@vector:
  0006f	cc		 int	 3
_TEXT	ENDS
;	COMDAT text$x
text$x	SEGMENT
__ehhandler$??0?$vector@V?$basic_string@DU?$char_traits@D@std@@V?$allocator@D@2@@std@@V?$allocator@V?$basic_string@DU?$char_traits@D@std@@V?$allocator@D@2@@std@@@2@@std@@QAE@ABV01@@Z:
  00000	8b 54 24 08	 mov	 edx, DWORD PTR [esp+8]
  00004	8d 42 0c	 lea	 eax, DWORD PTR [edx+12]
  00007	8b 4a e8	 mov	 ecx, DWORD PTR [edx-24]
  0000a	33 c8		 xor	 ecx, eax
  0000c	e8 00 00 00 00	 call	 @__security_check_cookie@4
  00011	b8 00 00 00 00	 mov	 eax, OFFSET __ehfuncinfo$??0?$vector@V?$basic_string@DU?$char_traits@D@std@@V?$allocator@D@2@@std@@V?$allocator@V?$basic_string@DU?$char_traits@D@std@@V?$allocator@D@2@@std@@@2@@std@@QAE@ABV01@@Z
  00016	e9 00 00 00 00	 jmp	 ___CxxFrameHandler3
text$x	ENDS
??0?$vector@V?$basic_string@DU?$char_traits@D@std@@V?$allocator@D@2@@std@@V?$allocator@V?$basic_string@DU?$char_traits@D@std@@V?$allocator@D@2@@std@@@2@@std@@QAE@ABV01@@Z ENDP ; std::vector<std::basic_string<char,std::char_traits<char>,std::allocator<char> >,std::allocator<std::basic_string<char,std::char_traits<char>,std::allocator<char> > > >::vector<std::basic_string<char,std::char_traits<char>,std::allocator<char> >,std::allocator<std::basic_string<char,std::char_traits<char>,std::allocator<char> > > >
PUBLIC	??_C@_01LFCBOECM@?4?$AA@			; `string'
PUBLIC	??_C@_0FA@GEHHOAGJ@ioClientAniEventHandler?3?3OnFaceC@ ; `string'
PUBLIC	_pNotifier$GSCopy$
PUBLIC	_this$GSCopy$
PUBLIC	?OnFaceChange@ioClientAniEventHandler@@IAEXPBUAniEventTime@@PBVioAnimation@@@Z ; ioClientAniEventHandler::OnFaceChange
EXTRN	__imp_?GetTimeFactor@ioAnimation@@QBEMXZ:PROC
EXTRN	__imp_?PrintTimeAndLog@CLog@@QAAXHPADZZ:PROC
EXTRN	__imp_?LOG@@3VCLog@@A:BYTE
EXTRN	__ftol2_sse:PROC
;	COMDAT ??_C@_01LFCBOECM@?4?$AA@
; File c:\program files (x86)\microsoft visual studio 10.0\vc\include\xstring
CONST	SEGMENT
??_C@_01LFCBOECM@?4?$AA@ DB '.', 00H			; `string'
CONST	ENDS
;	COMDAT ??_C@_0FA@GEHHOAGJ@ioClientAniEventHandler?3?3OnFaceC@
CONST	SEGMENT
??_C@_0FA@GEHHOAGJ@ioClientAniEventHandler?3?3OnFaceC@ DB 'ioClientAniEve'
	DB	'ntHandler::OnFaceChange - %s Param size Error( Expected least'
	DB	' 2 )', 00H					; `string'
CONST	ENDS
;	COMDAT xdata$x
xdata$x	SEGMENT
__ehfuncinfo$?OnFaceChange@ioClientAniEventHandler@@IAEXPBUAniEventTime@@PBVioAnimation@@@Z DD 019930522H
	DD	07H
	DD	FLAT:__unwindtable$?OnFaceChange@ioClientAniEventHandler@@IAEXPBUAniEventTime@@PBVioAnimation@@@Z
	DD	2 DUP(00H)
	DD	2 DUP(00H)
	DD	00H
	DD	01H
__unwindtable$?OnFaceChange@ioClientAniEventHandler@@IAEXPBUAniEventTime@@PBVioAnimation@@@Z DD 0ffffffffH
	DD	FLAT:__unwindfunclet$?OnFaceChange@ioClientAniEventHandler@@IAEXPBUAniEventTime@@PBVioAnimation@@@Z$0
	DD	00H
	DD	FLAT:__unwindfunclet$?OnFaceChange@ioClientAniEventHandler@@IAEXPBUAniEventTime@@PBVioAnimation@@@Z$1
	DD	0ffffffffH
	DD	FLAT:__unwindfunclet$?OnFaceChange@ioClientAniEventHandler@@IAEXPBUAniEventTime@@PBVioAnimation@@@Z$2
	DD	02H
	DD	FLAT:__unwindfunclet$?OnFaceChange@ioClientAniEventHandler@@IAEXPBUAniEventTime@@PBVioAnimation@@@Z$3
	DD	03H
	DD	FLAT:__unwindfunclet$?OnFaceChange@ioClientAniEventHandler@@IAEXPBUAniEventTime@@PBVioAnimation@@@Z$4
	DD	02H
	DD	FLAT:__unwindfunclet$?OnFaceChange@ioClientAniEventHandler@@IAEXPBUAniEventTime@@PBVioAnimation@@@Z$4
	DD	0ffffffffH
	DD	FLAT:__unwindfunclet$?OnFaceChange@ioClientAniEventHandler@@IAEXPBUAniEventTime@@PBVioAnimation@@@Z$4
; Function compile flags: /Ogsp
; File d:\lost saga for developer\youtube\tutorial\source\src\lsclient\ioclientanieventhandler.cpp
xdata$x	ENDS
;	COMDAT ?OnFaceChange@ioClientAniEventHandler@@IAEXPBUAniEventTime@@PBVioAnimation@@@Z
_TEXT	SEGMENT
_vHeadParam$525426 = -160				; size = 16
_pNotifier$GSCopy$ = -144				; size = 4
tv728 = -140						; size = 8
tv983 = -136						; size = 4
tv771 = -136						; size = 4
_iDuration$ = -136					; size = 4
_this$GSCopy$ = -132					; size = 4
$T525420 = -128						; size = 28
$T525427 = -100						; size = 28
$T525421 = -72						; size = 28
$T525428 = -44						; size = 28
__$EHRec$ = -12						; size = 12
_pEvent$ = 8						; size = 4
_pNotifier$ = 12					; size = 4
?OnFaceChange@ioClientAniEventHandler@@IAEXPBUAniEventTime@@PBVioAnimation@@@Z PROC ; ioClientAniEventHandler::OnFaceChange, COMDAT
; _this$ = ecx

; 175  : {

  00000	68 94 00 00 00	 push	 148			; 00000094H
  00005	b8 00 00 00 00	 mov	 eax, __ehhandler$?OnFaceChange@ioClientAniEventHandler@@IAEXPBUAniEventTime@@PBVioAnimation@@@Z
  0000a	e8 00 00 00 00	 call	 __EH_prolog3_GS
  0000f	8b 45 0c	 mov	 eax, DWORD PTR _pNotifier$[ebp]
  00012	8b 75 08	 mov	 esi, DWORD PTR _pEvent$[ebp]

; 176  : 	const StringVector &vParam = ioStringConverter::Split( pEvent->szSubInfo.c_str(), " " );

  00015	6a 0f		 push	 15			; 0000000fH
  00017	5f		 pop	 edi
  00018	6a 01		 push	 1
  0001a	89 8d 7c ff ff
	ff		 mov	 DWORD PTR _this$GSCopy$[ebp], ecx
  00020	33 db		 xor	 ebx, ebx
  00022	68 00 00 00 00	 push	 OFFSET ??_C@_01CLKCMJKC@?5?$AA@
  00027	8d 4d 80	 lea	 ecx, DWORD PTR $T525420[ebp]
  0002a	89 85 70 ff ff
	ff		 mov	 DWORD PTR _pNotifier$GSCopy$[ebp], eax
  00030	89 7d 94	 mov	 DWORD PTR $T525420[ebp+20], edi
  00033	89 5d 90	 mov	 DWORD PTR $T525420[ebp+16], ebx
  00036	88 5d 80	 mov	 BYTE PTR $T525420[ebp], bl
  00039	e8 00 00 00 00	 call	 ?assign@?$basic_string@DU?$char_traits@D@std@@V?$allocator@D@2@@std@@QAEAAV12@PBDI@Z ; std::basic_string<char,std::char_traits<char>,std::allocator<char> >::assign
  0003e	8d 4e 14	 lea	 ecx, DWORD PTR [esi+20]
  00041	89 5d fc	 mov	 DWORD PTR __$EHRec$[ebp+8], ebx
  00044	89 8d 78 ff ff
	ff		 mov	 DWORD PTR tv771[ebp], ecx
  0004a	ff 15 00 00 00
	00		 call	 DWORD PTR __imp_?c_str@ioHashString@@QBEPBDXZ
  00050	50		 push	 eax
  00051	8d 4d b8	 lea	 ecx, DWORD PTR $T525421[ebp]
  00054	89 7d cc	 mov	 DWORD PTR $T525421[ebp+20], edi
  00057	89 5d c8	 mov	 DWORD PTR $T525421[ebp+16], ebx
  0005a	88 5d b8	 mov	 BYTE PTR $T525421[ebp], bl
  0005d	e8 00 00 00 00	 call	 ?assign@?$basic_string@DU?$char_traits@D@std@@V?$allocator@D@2@@std@@QAEAAV12@PBD@Z ; std::basic_string<char,std::char_traits<char>,std::allocator<char> >::assign
  00062	53		 push	 ebx
  00063	8d 45 80	 lea	 eax, DWORD PTR $T525420[ebp]
  00066	50		 push	 eax
  00067	8d 45 b8	 lea	 eax, DWORD PTR $T525421[ebp]
  0006a	50		 push	 eax
  0006b	c6 45 fc 01	 mov	 BYTE PTR __$EHRec$[ebp+8], 1
  0006f	ff 15 00 00 00
	00		 call	 DWORD PTR __imp_?Split@ioStringConverter@@SAABV?$vector@V?$basic_string@DU?$char_traits@D@std@@V?$allocator@D@2@@std@@V?$allocator@V?$basic_string@DU?$char_traits@D@std@@V?$allocator@D@2@@std@@@2@@std@@ABV?$basic_string@DU?$char_traits@D@std@@V?$allocator@D@2@@3@0H@Z
  00075	83 c4 0c	 add	 esp, 12			; 0000000cH
  00078	53		 push	 ebx
  00079	6a 01		 push	 1
  0007b	8d 4d b8	 lea	 ecx, DWORD PTR $T525421[ebp]
  0007e	8b f0		 mov	 esi, eax
  00080	e8 00 00 00 00	 call	 ?_Tidy@?$basic_string@DU?$char_traits@D@std@@V?$allocator@D@2@@std@@QAEX_NI@Z ; std::basic_string<char,std::char_traits<char>,std::allocator<char> >::_Tidy
  00085	83 4d fc ff	 or	 DWORD PTR __$EHRec$[ebp+8], -1
  00089	53		 push	 ebx
  0008a	6a 01		 push	 1
  0008c	8d 4d 80	 lea	 ecx, DWORD PTR $T525420[ebp]
  0008f	e8 00 00 00 00	 call	 ?_Tidy@?$basic_string@DU?$char_traits@D@std@@V?$allocator@D@2@@std@@QAEX_NI@Z ; std::basic_string<char,std::char_traits<char>,std::allocator<char> >::_Tidy

; 177  : 	if( vParam.size() < 2 )

  00094	8b 46 04	 mov	 eax, DWORD PTR [esi+4]
  00097	2b 06		 sub	 eax, DWORD PTR [esi]
  00099	6a 1c		 push	 28			; 0000001cH
  0009b	99		 cdq
  0009c	59		 pop	 ecx
  0009d	f7 f9		 idiv	 ecx
  0009f	83 f8 02	 cmp	 eax, 2
  000a2	73 27		 jae	 SHORT $LN4@OnFaceChan

; 178  : 	{
; 179  : 		LOG.PrintTimeAndLog( 0, "ioClientAniEventHandler::OnFaceChange - %s Param size Error( Expected least 2 )",
; 180  : 								pEvent->szSubInfo.c_str() );

  000a4	8b 8d 78 ff ff
	ff		 mov	 ecx, DWORD PTR tv771[ebp]
  000aa	ff 15 00 00 00
	00		 call	 DWORD PTR __imp_?c_str@ioHashString@@QBEPBDXZ
  000b0	50		 push	 eax
  000b1	68 00 00 00 00	 push	 OFFSET ??_C@_0FA@GEHHOAGJ@ioClientAniEventHandler?3?3OnFaceC@
  000b6	53		 push	 ebx
  000b7	ff 35 00 00 00
	00		 push	 DWORD PTR __imp_?LOG@@3VCLog@@A
  000bd	ff 15 00 00 00
	00		 call	 DWORD PTR __imp_?PrintTimeAndLog@CLog@@QAAXHPADZZ
  000c3	83 c4 10	 add	 esp, 16			; 00000010H

; 181  : 		return;

  000c6	e9 75 01 00 00	 jmp	 $LN5@OnFaceChan
$LN4@OnFaceChan:

; 182  : 	}
; 183  : 
; 184  : 	int iDuration = ioStringConverter::ParseInt( vParam[1].c_str() ) * pNotifier->GetTimeFactor();

  000cb	8b 06		 mov	 eax, DWORD PTR [esi]
  000cd	83 c0 1c	 add	 eax, 28			; 0000001cH
  000d0	83 78 14 10	 cmp	 DWORD PTR [eax+20], 16	; 00000010H
  000d4	72 02		 jb	 SHORT $LN84@OnFaceChan
  000d6	8b 00		 mov	 eax, DWORD PTR [eax]
$LN84@OnFaceChan:
  000d8	50		 push	 eax
  000d9	ff 15 00 00 00
	00		 call	 DWORD PTR __imp_?ParseInt@ioStringConverter@@SAHPBD@Z
  000df	89 85 78 ff ff
	ff		 mov	 DWORD PTR tv983[ebp], eax
  000e5	db 85 78 ff ff
	ff		 fild	 DWORD PTR tv983[ebp]
  000eb	59		 pop	 ecx
  000ec	8b 8d 70 ff ff
	ff		 mov	 ecx, DWORD PTR _pNotifier$GSCopy$[ebp]
  000f2	dd 9d 74 ff ff
	ff		 fstp	 QWORD PTR tv728[ebp]
  000f8	ff 15 00 00 00
	00		 call	 DWORD PTR __imp_?GetTimeFactor@ioAnimation@@QBEMXZ
  000fe	dc 8d 74 ff ff
	ff		 fmul	 QWORD PTR tv728[ebp]
  00104	e8 00 00 00 00	 call	 __ftol2_sse
  00109	89 85 78 ff ff
	ff		 mov	 DWORD PTR _iDuration$[ebp], eax

; 185  : 
; 186  : 	if( ToNpcChar(m_pChar) && ToNpcChar(m_pChar)->IsUseHeadMeshChange() )

  0010f	8b 85 7c ff ff
	ff		 mov	 eax, DWORD PTR _this$GSCopy$[ebp]
  00115	ff 70 18	 push	 DWORD PTR [eax+24]
  00118	e8 00 00 00 00	 call	 ?ToNpcChar@@YAPAVioNpcChar@@PAVioGameEntity@@@Z ; ToNpcChar
  0011d	59		 pop	 ecx
  0011e	85 c0		 test	 eax, eax
  00120	0f 84 f8 00 00
	00		 je	 $LN3@OnFaceChan
  00126	8b 85 7c ff ff
	ff		 mov	 eax, DWORD PTR _this$GSCopy$[ebp]
  0012c	ff 70 18	 push	 DWORD PTR [eax+24]
  0012f	e8 00 00 00 00	 call	 ?ToNpcChar@@YAPAVioNpcChar@@PAVioGameEntity@@@Z ; ToNpcChar
  00134	59		 pop	 ecx
  00135	38 98 6d 48 00
	00		 cmp	 BYTE PTR [eax+18541], bl
  0013b	0f 84 dd 00 00
	00		 je	 $LN3@OnFaceChan

; 187  : 	{
; 188  : 		StringVector vHeadParam = ioStringConverter::Split( std::string(vParam[0].c_str()), ".", 1 );

  00141	6a 01		 push	 1
  00143	68 00 00 00 00	 push	 OFFSET ??_C@_01LFCBOECM@?4?$AA@
  00148	8d 4d d4	 lea	 ecx, DWORD PTR $T525428[ebp]
  0014b	89 7d e8	 mov	 DWORD PTR $T525428[ebp+20], edi
  0014e	89 5d e4	 mov	 DWORD PTR $T525428[ebp+16], ebx
  00151	88 5d d4	 mov	 BYTE PTR $T525428[ebp], bl
  00154	e8 00 00 00 00	 call	 ?assign@?$basic_string@DU?$char_traits@D@std@@V?$allocator@D@2@@std@@QAEAAV12@PBDI@Z ; std::basic_string<char,std::char_traits<char>,std::allocator<char> >::assign
  00159	8b 36		 mov	 esi, DWORD PTR [esi]
  0015b	83 7e 14 10	 cmp	 DWORD PTR [esi+20], 16	; 00000010H
  0015f	c7 45 fc 02 00
	00 00		 mov	 DWORD PTR __$EHRec$[ebp+8], 2
  00166	72 02		 jb	 SHORT $LN124@OnFaceChan
  00168	8b 36		 mov	 esi, DWORD PTR [esi]
$LN124@OnFaceChan:
  0016a	56		 push	 esi
  0016b	8d 4d 9c	 lea	 ecx, DWORD PTR $T525427[ebp]
  0016e	89 7d b0	 mov	 DWORD PTR $T525427[ebp+20], edi
  00171	89 5d ac	 mov	 DWORD PTR $T525427[ebp+16], ebx
  00174	88 5d 9c	 mov	 BYTE PTR $T525427[ebp], bl
  00177	e8 00 00 00 00	 call	 ?assign@?$basic_string@DU?$char_traits@D@std@@V?$allocator@D@2@@std@@QAEAAV12@PBD@Z ; std::basic_string<char,std::char_traits<char>,std::allocator<char> >::assign
  0017c	6a 01		 push	 1
  0017e	8d 45 d4	 lea	 eax, DWORD PTR $T525428[ebp]
  00181	50		 push	 eax
  00182	8d 45 9c	 lea	 eax, DWORD PTR $T525427[ebp]
  00185	50		 push	 eax
  00186	c6 45 fc 03	 mov	 BYTE PTR __$EHRec$[ebp+8], 3
  0018a	ff 15 00 00 00
	00		 call	 DWORD PTR __imp_?Split@ioStringConverter@@SAABV?$vector@V?$basic_string@DU?$char_traits@D@std@@V?$allocator@D@2@@std@@V?$allocator@V?$basic_string@DU?$char_traits@D@std@@V?$allocator@D@2@@std@@@2@@std@@ABV?$basic_string@DU?$char_traits@D@std@@V?$allocator@D@2@@3@0H@Z
  00190	83 c4 0c	 add	 esp, 12			; 0000000cH
  00193	50		 push	 eax
  00194	8d 8d 60 ff ff
	ff		 lea	 ecx, DWORD PTR _vHeadParam$525426[ebp]
  0019a	e8 00 00 00 00	 call	 ??0?$vector@V?$basic_string@DU?$char_traits@D@std@@V?$allocator@D@2@@std@@V?$allocator@V?$basic_string@DU?$char_traits@D@std@@V?$allocator@D@2@@std@@@2@@std@@QAE@ABV01@@Z ; std::vector<std::basic_string<char,std::char_traits<char>,std::allocator<char> >,std::allocator<std::basic_string<char,std::char_traits<char>,std::allocator<char> > > >::vector<std::basic_string<char,std::char_traits<char>,std::allocator<char> >,std::allocator<std::basic_string<char,std::char_traits<char>,std::allocator<char> > > >
  0019f	53		 push	 ebx
  001a0	6a 01		 push	 1
  001a2	8d 4d 9c	 lea	 ecx, DWORD PTR $T525427[ebp]
  001a5	e8 00 00 00 00	 call	 ?_Tidy@?$basic_string@DU?$char_traits@D@std@@V?$allocator@D@2@@std@@QAEX_NI@Z ; std::basic_string<char,std::char_traits<char>,std::allocator<char> >::_Tidy
  001aa	53		 push	 ebx
  001ab	6a 01		 push	 1
  001ad	8d 4d d4	 lea	 ecx, DWORD PTR $T525428[ebp]
  001b0	c6 45 fc 06	 mov	 BYTE PTR __$EHRec$[ebp+8], 6
  001b4	e8 00 00 00 00	 call	 ?_Tidy@?$basic_string@DU?$char_traits@D@std@@V?$allocator@D@2@@std@@QAEX_NI@Z ; std::basic_string<char,std::char_traits<char>,std::allocator<char> >::_Tidy

; 189  : 		if( vHeadParam.size() == 2 )

  001b9	8b 85 64 ff ff
	ff		 mov	 eax, DWORD PTR _vHeadParam$525426[ebp+4]
  001bf	8b 9d 60 ff ff
	ff		 mov	 ebx, DWORD PTR _vHeadParam$525426[ebp]
  001c5	2b c3		 sub	 eax, ebx
  001c7	6a 1c		 push	 28			; 0000001cH
  001c9	99		 cdq
  001ca	59		 pop	 ecx
  001cb	f7 f9		 idiv	 ecx
  001cd	83 f8 02	 cmp	 eax, 2
  001d0	75 3b		 jne	 SHORT $LN1@OnFaceChan

; 190  : 		{
; 191  : 			if( strcmp( vHeadParam[0].c_str(), "" ) != 0 )

  001d2	8b 43 14	 mov	 eax, DWORD PTR [ebx+20]
  001d5	83 f8 10	 cmp	 eax, 16			; 00000010H
  001d8	72 04		 jb	 SHORT $LN168@OnFaceChan
  001da	8b 33		 mov	 esi, DWORD PTR [ebx]
  001dc	eb 02		 jmp	 SHORT $LN169@OnFaceChan
$LN168@OnFaceChan:
  001de	8b f3		 mov	 esi, ebx
$LN169@OnFaceChan:
  001e0	33 c9		 xor	 ecx, ecx
  001e2	41		 inc	 ecx
  001e3	bf 00 00 00 00	 mov	 edi, OFFSET ??_C@_00CNPNBAHC@?$AA@
  001e8	33 d2		 xor	 edx, edx
  001ea	f3 a6		 repe cmpsb
  001ec	74 1f		 je	 SHORT $LN1@OnFaceChan

; 192  : 			{
; 193  : 				m_pChar->HeadMeshChange( vHeadParam[0].c_str(), iDuration );

  001ee	83 f8 10	 cmp	 eax, 16			; 00000010H
  001f1	72 02		 jb	 SHORT $LN176@OnFaceChan
  001f3	8b 1b		 mov	 ebx, DWORD PTR [ebx]
$LN176@OnFaceChan:
  001f5	8b 85 7c ff ff
	ff		 mov	 eax, DWORD PTR _this$GSCopy$[ebp]
  001fb	ff b5 78 ff ff
	ff		 push	 DWORD PTR _iDuration$[ebp]
  00201	8b 48 18	 mov	 ecx, DWORD PTR [eax+24]
  00204	8b 01		 mov	 eax, DWORD PTR [ecx]
  00206	53		 push	 ebx
  00207	ff 90 80 01 00
	00		 call	 DWORD PTR [eax+384]
$LN1@OnFaceChan:

; 194  : 			}
; 195  : 		}
; 196  : 		return;

  0020d	83 4d fc ff	 or	 DWORD PTR __$EHRec$[ebp+8], -1
  00211	8d 8d 60 ff ff
	ff		 lea	 ecx, DWORD PTR _vHeadParam$525426[ebp]
  00217	e8 00 00 00 00	 call	 ?_Tidy@?$vector@V?$basic_string@DU?$char_traits@D@std@@V?$allocator@D@2@@std@@V?$allocator@V?$basic_string@DU?$char_traits@D@std@@V?$allocator@D@2@@std@@@2@@std@@IAEXXZ ; std::vector<std::basic_string<char,std::char_traits<char>,std::allocator<char> >,std::allocator<std::basic_string<char,std::char_traits<char>,std::allocator<char> > > >::_Tidy
  0021c	eb 22		 jmp	 SHORT $LN5@OnFaceChan
$LN3@OnFaceChan:

; 197  : 	}
; 198  : 
; 199  : 	m_pChar->FaceChange( vParam[0].c_str(), iDuration );

  0021e	8b 36		 mov	 esi, DWORD PTR [esi]
  00220	83 7e 14 10	 cmp	 DWORD PTR [esi+20], 16	; 00000010H
  00224	72 02		 jb	 SHORT $LN188@OnFaceChan
  00226	8b 36		 mov	 esi, DWORD PTR [esi]
$LN188@OnFaceChan:
  00228	8b 85 7c ff ff
	ff		 mov	 eax, DWORD PTR _this$GSCopy$[ebp]
  0022e	ff b5 78 ff ff
	ff		 push	 DWORD PTR _iDuration$[ebp]
  00234	8b 48 18	 mov	 ecx, DWORD PTR [eax+24]
  00237	8b 01		 mov	 eax, DWORD PTR [ecx]
  00239	56		 push	 esi
  0023a	ff 90 7c 01 00
	00		 call	 DWORD PTR [eax+380]
$LN5@OnFaceChan:

; 200  : }

  00240	e8 00 00 00 00	 call	 __EH_epilog3_GS
  00245	c2 08 00	 ret	 8
_TEXT	ENDS
;	COMDAT text$x
text$x	SEGMENT
__unwindfunclet$?OnFaceChange@ioClientAniEventHandler@@IAEXPBUAniEventTime@@PBVioAnimation@@@Z$0:
  00000	8d 4d 80	 lea	 ecx, DWORD PTR $T525420[ebp]
  00003	e9 00 00 00 00	 jmp	 ??1?$basic_string@DU?$char_traits@D@std@@V?$allocator@D@2@@std@@QAE@XZ ; std::basic_string<char,std::char_traits<char>,std::allocator<char> >::~basic_string<char,std::char_traits<char>,std::allocator<char> >
__unwindfunclet$?OnFaceChange@ioClientAniEventHandler@@IAEXPBUAniEventTime@@PBVioAnimation@@@Z$1:
  00008	8d 4d b8	 lea	 ecx, DWORD PTR $T525421[ebp]
  0000b	e9 00 00 00 00	 jmp	 ??1?$basic_string@DU?$char_traits@D@std@@V?$allocator@D@2@@std@@QAE@XZ ; std::basic_string<char,std::char_traits<char>,std::allocator<char> >::~basic_string<char,std::char_traits<char>,std::allocator<char> >
__unwindfunclet$?OnFaceChange@ioClientAniEventHandler@@IAEXPBUAniEventTime@@PBVioAnimation@@@Z$2:
  00010	8d 4d d4	 lea	 ecx, DWORD PTR $T525428[ebp]
  00013	e9 00 00 00 00	 jmp	 ??1?$basic_string@DU?$char_traits@D@std@@V?$allocator@D@2@@std@@QAE@XZ ; std::basic_string<char,std::char_traits<char>,std::allocator<char> >::~basic_string<char,std::char_traits<char>,std::allocator<char> >
__unwindfunclet$?OnFaceChange@ioClientAniEventHandler@@IAEXPBUAniEventTime@@PBVioAnimation@@@Z$3:
  00018	8d 4d 9c	 lea	 ecx, DWORD PTR $T525427[ebp]
  0001b	e9 00 00 00 00	 jmp	 ??1?$basic_string@DU?$char_traits@D@std@@V?$allocator@D@2@@std@@QAE@XZ ; std::basic_string<char,std::char_traits<char>,std::allocator<char> >::~basic_string<char,std::char_traits<char>,std::allocator<char> >
__unwindfunclet$?OnFaceChange@ioClientAniEventHandler@@IAEXPBUAniEventTime@@PBVioAnimation@@@Z$4:
  00020	8d 8d 60 ff ff
	ff		 lea	 ecx, DWORD PTR _vHeadParam$525426[ebp]
  00026	e9 00 00 00 00	 jmp	 ??1?$vector@V?$basic_string@DU?$char_traits@D@std@@V?$allocator@D@2@@std@@V?$allocator@V?$basic_string@DU?$char_traits@D@std@@V?$allocator@D@2@@std@@@2@@std@@QAE@XZ ; std::vector<std::basic_string<char,std::char_traits<char>,std::allocator<char> >,std::allocator<std::basic_string<char,std::char_traits<char>,std::allocator<char> > > >::~vector<std::basic_string<char,std::char_traits<char>,std::allocator<char> >,std::allocator<std::basic_string<char,std::char_traits<char>,std::allocator<char> > > >
__ehhandler$?OnFaceChange@ioClientAniEventHandler@@IAEXPBUAniEventTime@@PBVioAnimation@@@Z:
  0002b	8b 54 24 08	 mov	 edx, DWORD PTR [esp+8]
  0002f	8d 42 0c	 lea	 eax, DWORD PTR [edx+12]
  00032	8b 8a 5c ff ff
	ff		 mov	 ecx, DWORD PTR [edx-164]
  00038	33 c8		 xor	 ecx, eax
  0003a	e8 00 00 00 00	 call	 @__security_check_cookie@4
  0003f	8b 4a fc	 mov	 ecx, DWORD PTR [edx-4]
  00042	33 c8		 xor	 ecx, eax
  00044	e8 00 00 00 00	 call	 @__security_check_cookie@4
  00049	b8 00 00 00 00	 mov	 eax, OFFSET __ehfuncinfo$?OnFaceChange@ioClientAniEventHandler@@IAEXPBUAniEventTime@@PBVioAnimation@@@Z
  0004e	e9 00 00 00 00	 jmp	 ___CxxFrameHandler3
text$x	ENDS
?OnFaceChange@ioClientAniEventHandler@@IAEXPBUAniEventTime@@PBVioAnimation@@@Z ENDP ; ioClientAniEventHandler::OnFaceChange
PUBLIC	_pEvent$GSCopy$
PUBLIC	_pNotifier$GSCopy$
PUBLIC	_this$GSCopy$
PUBLIC	__$ArrayPad$
EXTRN	__imp_?EventHandling@ioAniEventHandler@@UAE_NPBUAniEventTime@@PBVioAnimation@@@Z:PROC
; Function compile flags: /Ogsp
;	COMDAT ?EventHandling@ioClientAniEventHandler@@UAE_NPBUAniEventTime@@PBVioAnimation@@@Z
_TEXT	SEGMENT
_pNotifier$GSCopy$ = -424				; size = 4
_this$GSCopy$ = -420					; size = 4
_pEvent$GSCopy$ = -416					; size = 4
__t$544092 = -412					; size = 13
__t$541592 = -392					; size = 13
__t$543855 = -372					; size = 13
__t$543342 = -352					; size = 13
__t$544217 = -332					; size = 13
__t$542217 = -312					; size = 12
__t$542391 = -296					; size = 11
__t$541967 = -280					; size = 12
__t$542980 = -264					; size = 10
__t$541842 = -248					; size = 12
__t$541391 = -232					; size = 11
__t$541730 = -216					; size = 12
__t$542641 = -200					; size = 11
__t$543467 = -184					; size = 15
__t$542141 = -164					; size = 11
__t$542467 = -148					; size = 10
__t$543217 = -132					; size = 10
__t$543141 = -116					; size = 11
__t$542717 = -100					; size = 12
__t$542891 = -84					; size = 11
__t$543980 = -68					; size = 14
__t$541467 = -48					; size = 12
__t$543641 = -32					; size = 11
__t$543717 = -16					; size = 8
__$ArrayPad$ = -4					; size = 4
_pEvent$ = 8						; size = 4
_pNotifier$ = 12					; size = 4
?EventHandling@ioClientAniEventHandler@@UAE_NPBUAniEventTime@@PBVioAnimation@@@Z PROC ; ioClientAniEventHandler::EventHandling, COMDAT
; _this$ = ecx

; 31   : {

  00000	55		 push	 ebp
  00001	8b ec		 mov	 ebp, esp
  00003	81 ec a8 01 00
	00		 sub	 esp, 424		; 000001a8H
  00009	a1 00 00 00 00	 mov	 eax, DWORD PTR ___security_cookie
  0000e	33 c5		 xor	 eax, ebp
  00010	89 45 fc	 mov	 DWORD PTR __$ArrayPad$[ebp], eax
  00013	8b 45 08	 mov	 eax, DWORD PTR _pEvent$[ebp]
  00016	89 8d 5c fe ff
	ff		 mov	 DWORD PTR _this$GSCopy$[ebp], ecx
  0001c	8b 4d 0c	 mov	 ecx, DWORD PTR _pNotifier$[ebp]

; 32   : 	if( ioAniEventHandler::EventHandling( pEvent, pNotifier ) )

  0001f	51		 push	 ecx

; 152  : 	}
; 153  : 	else if( pEvent->szEventType == "trinity_hide")

  00020	89 8d 58 fe ff
	ff		 mov	 DWORD PTR _pNotifier$GSCopy$[ebp], ecx
  00026	8b 8d 5c fe ff
	ff		 mov	 ecx, DWORD PTR _this$GSCopy$[ebp]
  0002c	50		 push	 eax
  0002d	89 85 60 fe ff
	ff		 mov	 DWORD PTR _pEvent$GSCopy$[ebp], eax
  00033	ff 15 00 00 00
	00		 call	 DWORD PTR __imp_?EventHandling@ioAniEventHandler@@UAE_NPBUAniEventTime@@PBVioAnimation@@@Z
  00039	84 c0		 test	 al, al
  0003b	74 07		 je	 SHORT $LN2692@EventHandl

; 33   : 		return true;

  0003d	b0 01		 mov	 al, 1
  0003f	e9 f1 0e 00 00	 jmp	 $LN50@EventHandl
$LN2692@EventHandl:
  00044	53		 push	 ebx
  00045	57		 push	 edi

; 34   : 
; 35   : 	if( pEvent->szEventType == "auto_shake" )

  00046	6a 02		 push	 2
  00048	33 db		 xor	 ebx, ebx
  0004a	5f		 pop	 edi
  0004b	c7 85 18 ff ff
	ff 8c 99 9f 85	 mov	 DWORD PTR __t$541391[ebp], -2053138036 ; 859f998cH
  00055	c7 85 1c ff ff
	ff b2 9f 83 8b	 mov	 DWORD PTR __t$541391[ebp+4], -1954308174 ; 8b839fb2H
  0005f	66 c7 85 20 ff
	ff ff 86 89	 mov	 WORD PTR __t$541391[ebp+8], 35206 ; 00008986H
  00068	8d 85 18 ff ff
	ff		 lea	 eax, DWORD PTR __t$541391[ebp]
  0006e	88 9d 22 ff ff
	ff		 mov	 BYTE PTR __t$541391[ebp+10], bl
  00074	8b cf		 mov	 ecx, edi
$LL155@EventHandl:
  00076	81 30 ed ec eb
	ea		 xor	 DWORD PTR [eax], -353637139 ; eaebecedH
  0007c	83 c0 04	 add	 eax, 4
  0007f	49		 dec	 ecx
  00080	75 f4		 jne	 SHORT $LL155@EventHandl
  00082	6a 08		 push	 8
  00084	58		 pop	 eax
$LL152@EventHandl:
  00085	8b c8		 mov	 ecx, eax
  00087	81 e1 03 00 00
	80		 and	 ecx, -2147483645	; 80000003H
  0008d	79 05		 jns	 SHORT $LN2815@EventHandl
  0008f	49		 dec	 ecx
  00090	83 c9 fc	 or	 ecx, -4			; fffffffcH
  00093	41		 inc	 ecx
$LN2815@EventHandl:
  00094	b2 ed		 mov	 dl, -19			; ffffffedH
  00096	2a d1		 sub	 dl, cl
  00098	30 94 05 18 ff
	ff ff		 xor	 BYTE PTR __t$541391[ebp+eax], dl
  0009f	40		 inc	 eax
  000a0	83 f8 0a	 cmp	 eax, 10			; 0000000aH
  000a3	7c e0		 jl	 SHORT $LL152@EventHandl
  000a5	8b 8d 60 fe ff
	ff		 mov	 ecx, DWORD PTR _pEvent$GSCopy$[ebp]
  000ab	56		 push	 esi
  000ac	83 c1 04	 add	 ecx, 4
  000af	8d b5 18 ff ff
	ff		 lea	 esi, DWORD PTR __t$541391[ebp]
  000b5	ff 15 00 00 00
	00		 call	 DWORD PTR __imp_?c_str@ioHashString@@QBEPBDXZ
$LL2716@EventHandl:
  000bb	8a 08		 mov	 cl, BYTE PTR [eax]
  000bd	3a 0e		 cmp	 cl, BYTE PTR [esi]
  000bf	75 18		 jne	 SHORT $LN2717@EventHandl
  000c1	3a cb		 cmp	 cl, bl
  000c3	74 10		 je	 SHORT $LN2718@EventHandl
  000c5	8a 48 01	 mov	 cl, BYTE PTR [eax+1]
  000c8	3a 4e 01	 cmp	 cl, BYTE PTR [esi+1]
  000cb	75 0c		 jne	 SHORT $LN2717@EventHandl
  000cd	03 c7		 add	 eax, edi
  000cf	03 f7		 add	 esi, edi
  000d1	3a cb		 cmp	 cl, bl
  000d3	75 e6		 jne	 SHORT $LL2716@EventHandl
$LN2718@EventHandl:
  000d5	33 c0		 xor	 eax, eax
  000d7	eb 05		 jmp	 SHORT $LN2719@EventHandl
$LN2717@EventHandl:
  000d9	1b c0		 sbb	 eax, eax
  000db	83 d8 ff	 sbb	 eax, -1
$LN2719@EventHandl:
  000de	3b c3		 cmp	 eax, ebx
  000e0	75 1c		 jne	 SHORT $LN2693@EventHandl

; 36   : 	{
; 37   : 		OnAutoShakeCamera( pEvent, pNotifier );

  000e2	ff b5 58 fe ff
	ff		 push	 DWORD PTR _pNotifier$GSCopy$[ebp]
  000e8	8b 8d 5c fe ff
	ff		 mov	 ecx, DWORD PTR _this$GSCopy$[ebp]
  000ee	ff b5 60 fe ff
	ff		 push	 DWORD PTR _pEvent$GSCopy$[ebp]
  000f4	e8 00 00 00 00	 call	 ?OnAutoShakeCamera@ioClientAniEventHandler@@IAEXPBUAniEventTime@@PBVioAnimation@@@Z ; ioClientAniEventHandler::OnAutoShakeCamera

; 38   : 		return true;

  000f9	e9 2e 0e 00 00	 jmp	 $LN2830@EventHandl
$LN2693@EventHandl:

; 39   : 	}
; 40   : 	else if( pEvent->szEventType == "face_change" )

  000fe	c7 45 d0 8b 8d
	88 8f		 mov	 DWORD PTR __t$541467[ebp], -1886876277 ; 8f888d8bH
  00105	c7 45 d4 b2 8f
	83 8b		 mov	 DWORD PTR __t$541467[ebp+4], -1954312270 ; 8b838fb2H
  0010c	8d 45 d0	 lea	 eax, DWORD PTR __t$541467[ebp]
  0010f	c7 45 d8 83 8b
	8e 00		 mov	 DWORD PTR __t$541467[ebp+8], 9341827 ; 008e8b83H
  00116	8b cf		 mov	 ecx, edi
$LL261@EventHandl:
  00118	81 30 ed ec eb
	ea		 xor	 DWORD PTR [eax], -353637139 ; eaebecedH
  0011e	83 c0 04	 add	 eax, 4
  00121	49		 dec	 ecx
  00122	75 f4		 jne	 SHORT $LL261@EventHandl
  00124	6a 08		 push	 8
  00126	58		 pop	 eax
$LL258@EventHandl:
  00127	8b c8		 mov	 ecx, eax
  00129	81 e1 03 00 00
	80		 and	 ecx, -2147483645	; 80000003H
  0012f	79 05		 jns	 SHORT $LN2816@EventHandl
  00131	49		 dec	 ecx
  00132	83 c9 fc	 or	 ecx, -4			; fffffffcH
  00135	41		 inc	 ecx
$LN2816@EventHandl:
  00136	b2 ed		 mov	 dl, -19			; ffffffedH
  00138	2a d1		 sub	 dl, cl
  0013a	30 54 05 d0	 xor	 BYTE PTR __t$541467[ebp+eax], dl
  0013e	40		 inc	 eax
  0013f	83 f8 0b	 cmp	 eax, 11			; 0000000bH
  00142	7c e3		 jl	 SHORT $LL258@EventHandl
  00144	8b 8d 60 fe ff
	ff		 mov	 ecx, DWORD PTR _pEvent$GSCopy$[ebp]
  0014a	83 c1 04	 add	 ecx, 4
  0014d	8d 75 d0	 lea	 esi, DWORD PTR __t$541467[ebp]
  00150	ff 15 00 00 00
	00		 call	 DWORD PTR __imp_?c_str@ioHashString@@QBEPBDXZ
$LL2720@EventHandl:
  00156	8a 08		 mov	 cl, BYTE PTR [eax]
  00158	3a 0e		 cmp	 cl, BYTE PTR [esi]
  0015a	75 18		 jne	 SHORT $LN2721@EventHandl
  0015c	3a cb		 cmp	 cl, bl
  0015e	74 10		 je	 SHORT $LN2722@EventHandl
  00160	8a 48 01	 mov	 cl, BYTE PTR [eax+1]
  00163	3a 4e 01	 cmp	 cl, BYTE PTR [esi+1]
  00166	75 0c		 jne	 SHORT $LN2721@EventHandl
  00168	03 c7		 add	 eax, edi
  0016a	03 f7		 add	 esi, edi
  0016c	3a cb		 cmp	 cl, bl
  0016e	75 e6		 jne	 SHORT $LL2720@EventHandl
$LN2722@EventHandl:
  00170	33 c0		 xor	 eax, eax
  00172	eb 05		 jmp	 SHORT $LN2723@EventHandl
$LN2721@EventHandl:
  00174	1b c0		 sbb	 eax, eax
  00176	83 d8 ff	 sbb	 eax, -1
$LN2723@EventHandl:
  00179	3b c3		 cmp	 eax, ebx
  0017b	75 1c		 jne	 SHORT $LN2694@EventHandl

; 41   : 	{
; 42   : 		OnFaceChange( pEvent, pNotifier );

  0017d	ff b5 58 fe ff
	ff		 push	 DWORD PTR _pNotifier$GSCopy$[ebp]
  00183	8b 8d 5c fe ff
	ff		 mov	 ecx, DWORD PTR _this$GSCopy$[ebp]
  00189	ff b5 60 fe ff
	ff		 push	 DWORD PTR _pEvent$GSCopy$[ebp]
  0018f	e8 00 00 00 00	 call	 ?OnFaceChange@ioClientAniEventHandler@@IAEXPBUAniEventTime@@PBVioAnimation@@@Z ; ioClientAniEventHandler::OnFaceChange

; 43   : 		return true;

  00194	e9 93 0d 00 00	 jmp	 $LN2830@EventHandl
$LN2694@EventHandl:

; 44   : 	}
; 45   : 	else if( pEvent->szEventType == "motion_sound" )

  00199	6a 03		 push	 3
  0019b	c7 85 78 fe ff
	ff 80 83 9f 83	 mov	 DWORD PTR __t$541592[ebp], -2086698112 ; 839f8380H
  001a5	c7 85 7c fe ff
	ff 82 82 b4 99	 mov	 DWORD PTR __t$541592[ebp+4], -1716223358 ; 99b48282H
  001af	c7 85 80 fe ff
	ff 82 99 85 8e	 mov	 DWORD PTR __t$541592[ebp+8], -1903847038 ; 8e859982H
  001b9	8d 85 78 fe ff
	ff		 lea	 eax, DWORD PTR __t$541592[ebp]
  001bf	88 9d 84 fe ff
	ff		 mov	 BYTE PTR __t$541592[ebp+12], bl
  001c5	59		 pop	 ecx
$LL367@EventHandl:
  001c6	81 30 ed ec eb
	ea		 xor	 DWORD PTR [eax], -353637139 ; eaebecedH
  001cc	83 c0 04	 add	 eax, 4
  001cf	49		 dec	 ecx
  001d0	75 f4		 jne	 SHORT $LL367@EventHandl
  001d2	8b 8d 60 fe ff
	ff		 mov	 ecx, DWORD PTR _pEvent$GSCopy$[ebp]
  001d8	83 c1 04	 add	 ecx, 4
  001db	8d b5 78 fe ff
	ff		 lea	 esi, DWORD PTR __t$541592[ebp]
  001e1	ff 15 00 00 00
	00		 call	 DWORD PTR __imp_?c_str@ioHashString@@QBEPBDXZ
$LL2724@EventHandl:
  001e7	8a 08		 mov	 cl, BYTE PTR [eax]
  001e9	3a 0e		 cmp	 cl, BYTE PTR [esi]
  001eb	75 18		 jne	 SHORT $LN2725@EventHandl
  001ed	3a cb		 cmp	 cl, bl
  001ef	74 10		 je	 SHORT $LN2726@EventHandl
  001f1	8a 48 01	 mov	 cl, BYTE PTR [eax+1]
  001f4	3a 4e 01	 cmp	 cl, BYTE PTR [esi+1]
  001f7	75 0c		 jne	 SHORT $LN2725@EventHandl
  001f9	03 c7		 add	 eax, edi
  001fb	03 f7		 add	 esi, edi
  001fd	3a cb		 cmp	 cl, bl
  001ff	75 e6		 jne	 SHORT $LL2724@EventHandl
$LN2726@EventHandl:
  00201	33 c0		 xor	 eax, eax
  00203	eb 05		 jmp	 SHORT $LN2727@EventHandl
$LN2725@EventHandl:
  00205	1b c0		 sbb	 eax, eax
  00207	83 d8 ff	 sbb	 eax, -1
$LN2727@EventHandl:
  0020a	3b c3		 cmp	 eax, ebx
  0020c	75 1c		 jne	 SHORT $LN2695@EventHandl

; 46   : 	{
; 47   : 		OnMotionSound( pEvent, pNotifier );

  0020e	ff b5 58 fe ff
	ff		 push	 DWORD PTR _pNotifier$GSCopy$[ebp]
  00214	8b 8d 5c fe ff
	ff		 mov	 ecx, DWORD PTR _this$GSCopy$[ebp]
  0021a	ff b5 60 fe ff
	ff		 push	 DWORD PTR _pEvent$GSCopy$[ebp]
  00220	e8 00 00 00 00	 call	 ?OnMotionSound@ioClientAniEventHandler@@IAEXPBUAniEventTime@@PBVioAnimation@@@Z ; ioClientAniEventHandler::OnMotionSound

; 48   : 		return true;

  00225	e9 02 0d 00 00	 jmp	 $LN2830@EventHandl
$LN2695@EventHandl:

; 49   : 	}
; 50   : 	else if( pEvent->szEventType == "voice_sound" )

  0022a	c7 85 28 ff ff
	ff 9b 83 82 89	 mov	 DWORD PTR __t$541730[ebp], -1987935333 ; 8982839bH
  00234	c7 85 2c ff ff
	ff 88 b3 98 85	 mov	 DWORD PTR __t$541730[ebp+4], -2053590136 ; 8598b388H
  0023e	8d 85 28 ff ff
	ff		 lea	 eax, DWORD PTR __t$541730[ebp]
  00244	c7 85 30 ff ff
	ff 98 82 8f 00	 mov	 DWORD PTR __t$541730[ebp+8], 9405080 ; 008f8298H
  0024e	8b cf		 mov	 ecx, edi
$LL473@EventHandl:
  00250	81 30 ed ec eb
	ea		 xor	 DWORD PTR [eax], -353637139 ; eaebecedH
  00256	83 c0 04	 add	 eax, 4
  00259	49		 dec	 ecx
  0025a	75 f4		 jne	 SHORT $LL473@EventHandl
  0025c	6a 08		 push	 8
  0025e	58		 pop	 eax
$LL470@EventHandl:
  0025f	8b c8		 mov	 ecx, eax
  00261	81 e1 03 00 00
	80		 and	 ecx, -2147483645	; 80000003H
  00267	79 05		 jns	 SHORT $LN2817@EventHandl
  00269	49		 dec	 ecx
  0026a	83 c9 fc	 or	 ecx, -4			; fffffffcH
  0026d	41		 inc	 ecx
$LN2817@EventHandl:
  0026e	b2 ed		 mov	 dl, -19			; ffffffedH
  00270	2a d1		 sub	 dl, cl
  00272	30 94 05 28 ff
	ff ff		 xor	 BYTE PTR __t$541730[ebp+eax], dl
  00279	40		 inc	 eax
  0027a	83 f8 0b	 cmp	 eax, 11			; 0000000bH
  0027d	7c e0		 jl	 SHORT $LL470@EventHandl
  0027f	8b 8d 60 fe ff
	ff		 mov	 ecx, DWORD PTR _pEvent$GSCopy$[ebp]
  00285	83 c1 04	 add	 ecx, 4
  00288	8d b5 28 ff ff
	ff		 lea	 esi, DWORD PTR __t$541730[ebp]
  0028e	ff 15 00 00 00
	00		 call	 DWORD PTR __imp_?c_str@ioHashString@@QBEPBDXZ
$LL2728@EventHandl:
  00294	8a 08		 mov	 cl, BYTE PTR [eax]
  00296	3a 0e		 cmp	 cl, BYTE PTR [esi]
  00298	75 18		 jne	 SHORT $LN2729@EventHandl
  0029a	3a cb		 cmp	 cl, bl
  0029c	74 10		 je	 SHORT $LN2730@EventHandl
  0029e	8a 48 01	 mov	 cl, BYTE PTR [eax+1]
  002a1	3a 4e 01	 cmp	 cl, BYTE PTR [esi+1]
  002a4	75 0c		 jne	 SHORT $LN2729@EventHandl
  002a6	03 c7		 add	 eax, edi
  002a8	03 f7		 add	 esi, edi
  002aa	3a cb		 cmp	 cl, bl
  002ac	75 e6		 jne	 SHORT $LL2728@EventHandl
$LN2730@EventHandl:
  002ae	33 c0		 xor	 eax, eax
  002b0	eb 05		 jmp	 SHORT $LN2731@EventHandl
$LN2729@EventHandl:
  002b2	1b c0		 sbb	 eax, eax
  002b4	83 d8 ff	 sbb	 eax, -1
$LN2731@EventHandl:
  002b7	3b c3		 cmp	 eax, ebx
  002b9	75 1c		 jne	 SHORT $LN2696@EventHandl

; 51   : 	{
; 52   : 		OnVoiceSound( pEvent, pNotifier );

  002bb	ff b5 58 fe ff
	ff		 push	 DWORD PTR _pNotifier$GSCopy$[ebp]
  002c1	8b 8d 5c fe ff
	ff		 mov	 ecx, DWORD PTR _this$GSCopy$[ebp]
  002c7	ff b5 60 fe ff
	ff		 push	 DWORD PTR _pEvent$GSCopy$[ebp]
  002cd	e8 00 00 00 00	 call	 ?OnVoiceSound@ioClientAniEventHandler@@IAEXPBUAniEventTime@@PBVioAnimation@@@Z ; ioClientAniEventHandler::OnVoiceSound

; 53   : 		return true;

  002d2	e9 55 0c 00 00	 jmp	 $LN2830@EventHandl
$LN2696@EventHandl:

; 54   : 	}
; 55   : 	else if( pEvent->szEventType == "auto_effect" )

  002d7	c7 85 08 ff ff
	ff 8c 99 9f 85	 mov	 DWORD PTR __t$541842[ebp], -2053138036 ; 859f998cH
  002e1	c7 85 0c ff ff
	ff b2 89 8d 8c	 mov	 DWORD PTR __t$541842[ebp+4], -1936881230 ; 8c8d89b2H
  002eb	8d 85 08 ff ff
	ff		 lea	 eax, DWORD PTR __t$541842[ebp]
  002f1	c7 85 10 ff ff
	ff 88 8f 9f 00	 mov	 DWORD PTR __t$541842[ebp+8], 10456968 ; 009f8f88H
  002fb	8b cf		 mov	 ecx, edi
$LL579@EventHandl:
  002fd	81 30 ed ec eb
	ea		 xor	 DWORD PTR [eax], -353637139 ; eaebecedH
  00303	83 c0 04	 add	 eax, 4
  00306	49		 dec	 ecx
  00307	75 f4		 jne	 SHORT $LL579@EventHandl
  00309	6a 08		 push	 8
  0030b	58		 pop	 eax
$LL576@EventHandl:
  0030c	8b c8		 mov	 ecx, eax
  0030e	81 e1 03 00 00
	80		 and	 ecx, -2147483645	; 80000003H
  00314	79 05		 jns	 SHORT $LN2818@EventHandl
  00316	49		 dec	 ecx
  00317	83 c9 fc	 or	 ecx, -4			; fffffffcH
  0031a	41		 inc	 ecx
$LN2818@EventHandl:
  0031b	b2 ed		 mov	 dl, -19			; ffffffedH
  0031d	2a d1		 sub	 dl, cl
  0031f	30 94 05 08 ff
	ff ff		 xor	 BYTE PTR __t$541842[ebp+eax], dl
  00326	40		 inc	 eax
  00327	83 f8 0b	 cmp	 eax, 11			; 0000000bH
  0032a	7c e0		 jl	 SHORT $LL576@EventHandl
  0032c	8b 8d 60 fe ff
	ff		 mov	 ecx, DWORD PTR _pEvent$GSCopy$[ebp]
  00332	83 c1 04	 add	 ecx, 4
  00335	8d b5 08 ff ff
	ff		 lea	 esi, DWORD PTR __t$541842[ebp]
  0033b	ff 15 00 00 00
	00		 call	 DWORD PTR __imp_?c_str@ioHashString@@QBEPBDXZ
$LL2732@EventHandl:
  00341	8a 08		 mov	 cl, BYTE PTR [eax]
  00343	3a 0e		 cmp	 cl, BYTE PTR [esi]
  00345	75 18		 jne	 SHORT $LN2733@EventHandl
  00347	3a cb		 cmp	 cl, bl
  00349	74 10		 je	 SHORT $LN2734@EventHandl
  0034b	8a 48 01	 mov	 cl, BYTE PTR [eax+1]
  0034e	3a 4e 01	 cmp	 cl, BYTE PTR [esi+1]
  00351	75 0c		 jne	 SHORT $LN2733@EventHandl
  00353	03 c7		 add	 eax, edi
  00355	03 f7		 add	 esi, edi
  00357	3a cb		 cmp	 cl, bl
  00359	75 e6		 jne	 SHORT $LL2732@EventHandl
$LN2734@EventHandl:
  0035b	33 c0		 xor	 eax, eax
  0035d	eb 05		 jmp	 SHORT $LN2735@EventHandl
$LN2733@EventHandl:
  0035f	1b c0		 sbb	 eax, eax
  00361	83 d8 ff	 sbb	 eax, -1
$LN2735@EventHandl:
  00364	3b c3		 cmp	 eax, ebx
  00366	75 1c		 jne	 SHORT $LN2697@EventHandl

; 56   : 	{
; 57   : 		OnAutoEffect( pEvent, pNotifier );

  00368	ff b5 58 fe ff
	ff		 push	 DWORD PTR _pNotifier$GSCopy$[ebp]
  0036e	8b 8d 5c fe ff
	ff		 mov	 ecx, DWORD PTR _this$GSCopy$[ebp]
  00374	ff b5 60 fe ff
	ff		 push	 DWORD PTR _pEvent$GSCopy$[ebp]
  0037a	e8 00 00 00 00	 call	 ?OnAutoEffect@ioClientAniEventHandler@@IAEXPBUAniEventTime@@PBVioAnimation@@@Z ; ioClientAniEventHandler::OnAutoEffect

; 58   : 		return true;

  0037f	e9 a8 0b 00 00	 jmp	 $LN2830@EventHandl
$LN2697@EventHandl:

; 59   : 	}
; 60   : 	else if( pEvent->szEventType == "shop_effect" )

  00384	c7 85 e8 fe ff
	ff 9e 84 84 9a	 mov	 DWORD PTR __t$541967[ebp], -1702591330 ; 9a84849eH
  0038e	c7 85 ec fe ff
	ff b2 89 8d 8c	 mov	 DWORD PTR __t$541967[ebp+4], -1936881230 ; 8c8d89b2H
  00398	8d 85 e8 fe ff
	ff		 lea	 eax, DWORD PTR __t$541967[ebp]
  0039e	c7 85 f0 fe ff
	ff 88 8f 9f 00	 mov	 DWORD PTR __t$541967[ebp+8], 10456968 ; 009f8f88H
  003a8	8b cf		 mov	 ecx, edi
$LL685@EventHandl:
  003aa	81 30 ed ec eb
	ea		 xor	 DWORD PTR [eax], -353637139 ; eaebecedH
  003b0	83 c0 04	 add	 eax, 4
  003b3	49		 dec	 ecx
  003b4	75 f4		 jne	 SHORT $LL685@EventHandl
  003b6	6a 08		 push	 8
  003b8	58		 pop	 eax
$LL682@EventHandl:
  003b9	8b c8		 mov	 ecx, eax
  003bb	81 e1 03 00 00
	80		 and	 ecx, -2147483645	; 80000003H
  003c1	79 05		 jns	 SHORT $LN2819@EventHandl
  003c3	49		 dec	 ecx
  003c4	83 c9 fc	 or	 ecx, -4			; fffffffcH
  003c7	41		 inc	 ecx
$LN2819@EventHandl:
  003c8	b2 ed		 mov	 dl, -19			; ffffffedH
  003ca	2a d1		 sub	 dl, cl
  003cc	30 94 05 e8 fe
	ff ff		 xor	 BYTE PTR __t$541967[ebp+eax], dl
  003d3	40		 inc	 eax
  003d4	83 f8 0b	 cmp	 eax, 11			; 0000000bH
  003d7	7c e0		 jl	 SHORT $LL682@EventHandl
  003d9	8b 8d 60 fe ff
	ff		 mov	 ecx, DWORD PTR _pEvent$GSCopy$[ebp]
  003df	83 c1 04	 add	 ecx, 4
  003e2	8d b5 e8 fe ff
	ff		 lea	 esi, DWORD PTR __t$541967[ebp]
  003e8	ff 15 00 00 00
	00		 call	 DWORD PTR __imp_?c_str@ioHashString@@QBEPBDXZ
$LL2736@EventHandl:
  003ee	8a 08		 mov	 cl, BYTE PTR [eax]
  003f0	3a 0e		 cmp	 cl, BYTE PTR [esi]
  003f2	75 18		 jne	 SHORT $LN2737@EventHandl
  003f4	3a cb		 cmp	 cl, bl
  003f6	74 10		 je	 SHORT $LN2738@EventHandl
  003f8	8a 48 01	 mov	 cl, BYTE PTR [eax+1]
  003fb	3a 4e 01	 cmp	 cl, BYTE PTR [esi+1]
  003fe	75 0c		 jne	 SHORT $LN2737@EventHandl
  00400	03 c7		 add	 eax, edi
  00402	03 f7		 add	 esi, edi
  00404	3a cb		 cmp	 cl, bl
  00406	75 e6		 jne	 SHORT $LL2736@EventHandl
$LN2738@EventHandl:
  00408	33 c0		 xor	 eax, eax
  0040a	eb 05		 jmp	 SHORT $LN2739@EventHandl
$LN2737@EventHandl:
  0040c	1b c0		 sbb	 eax, eax
  0040e	83 d8 ff	 sbb	 eax, -1
$LN2739@EventHandl:
  00411	3b c3		 cmp	 eax, ebx
  00413	75 1c		 jne	 SHORT $LN2698@EventHandl

; 61   : 	{
; 62   : 		OnShopEffect( pEvent, pNotifier );

  00415	ff b5 58 fe ff
	ff		 push	 DWORD PTR _pNotifier$GSCopy$[ebp]
  0041b	8b 8d 5c fe ff
	ff		 mov	 ecx, DWORD PTR _this$GSCopy$[ebp]
  00421	ff b5 60 fe ff
	ff		 push	 DWORD PTR _pEvent$GSCopy$[ebp]
  00427	e8 00 00 00 00	 call	 ?OnShopEffect@ioClientAniEventHandler@@IAEXPBUAniEventTime@@PBVioAnimation@@@Z ; ioClientAniEventHandler::OnShopEffect

; 63   : 		return true;

  0042c	e9 fb 0a 00 00	 jmp	 $LN2830@EventHandl
$LN2698@EventHandl:

; 64   : 	}
; 65   : 	else if( pEvent->szEventType == "shop_sound" )

  00431	c7 85 5c ff ff
	ff 9e 84 84 9a	 mov	 DWORD PTR __t$542141[ebp], -1702591330 ; 9a84849eH
  0043b	c7 85 60 ff ff
	ff b2 9f 84 9f	 mov	 DWORD PTR __t$542141[ebp+4], -1618698318 ; 9f849fb2H
  00445	66 c7 85 64 ff
	ff ff 83 88	 mov	 WORD PTR __t$542141[ebp+8], 34947 ; 00008883H
  0044e	8d 85 5c ff ff
	ff		 lea	 eax, DWORD PTR __t$542141[ebp]
  00454	88 9d 66 ff ff
	ff		 mov	 BYTE PTR __t$542141[ebp+10], bl
  0045a	8b cf		 mov	 ecx, edi
$LL791@EventHandl:
  0045c	81 30 ed ec eb
	ea		 xor	 DWORD PTR [eax], -353637139 ; eaebecedH
  00462	83 c0 04	 add	 eax, 4
  00465	49		 dec	 ecx
  00466	75 f4		 jne	 SHORT $LL791@EventHandl
  00468	6a 08		 push	 8
  0046a	58		 pop	 eax
$LL788@EventHandl:
  0046b	8b c8		 mov	 ecx, eax
  0046d	81 e1 03 00 00
	80		 and	 ecx, -2147483645	; 80000003H
  00473	79 05		 jns	 SHORT $LN2820@EventHandl
  00475	49		 dec	 ecx
  00476	83 c9 fc	 or	 ecx, -4			; fffffffcH
  00479	41		 inc	 ecx
$LN2820@EventHandl:
  0047a	b2 ed		 mov	 dl, -19			; ffffffedH
  0047c	2a d1		 sub	 dl, cl
  0047e	30 94 05 5c ff
	ff ff		 xor	 BYTE PTR __t$542141[ebp+eax], dl
  00485	40		 inc	 eax
  00486	83 f8 0a	 cmp	 eax, 10			; 0000000aH
  00489	7c e0		 jl	 SHORT $LL788@EventHandl
  0048b	8b 8d 60 fe ff
	ff		 mov	 ecx, DWORD PTR _pEvent$GSCopy$[ebp]
  00491	83 c1 04	 add	 ecx, 4
  00494	8d b5 5c ff ff
	ff		 lea	 esi, DWORD PTR __t$542141[ebp]
  0049a	ff 15 00 00 00
	00		 call	 DWORD PTR __imp_?c_str@ioHashString@@QBEPBDXZ
$LL2740@EventHandl:
  004a0	8a 08		 mov	 cl, BYTE PTR [eax]
  004a2	3a 0e		 cmp	 cl, BYTE PTR [esi]
  004a4	75 18		 jne	 SHORT $LN2741@EventHandl
  004a6	3a cb		 cmp	 cl, bl
  004a8	74 10		 je	 SHORT $LN2742@EventHandl
  004aa	8a 48 01	 mov	 cl, BYTE PTR [eax+1]
  004ad	3a 4e 01	 cmp	 cl, BYTE PTR [esi+1]
  004b0	75 0c		 jne	 SHORT $LN2741@EventHandl
  004b2	03 c7		 add	 eax, edi
  004b4	03 f7		 add	 esi, edi
  004b6	3a cb		 cmp	 cl, bl
  004b8	75 e6		 jne	 SHORT $LL2740@EventHandl
$LN2742@EventHandl:
  004ba	33 c0		 xor	 eax, eax
  004bc	eb 05		 jmp	 SHORT $LN2743@EventHandl
$LN2741@EventHandl:
  004be	1b c0		 sbb	 eax, eax
  004c0	83 d8 ff	 sbb	 eax, -1
$LN2743@EventHandl:
  004c3	3b c3		 cmp	 eax, ebx
  004c5	75 2f		 jne	 SHORT $LN2699@EventHandl

; 66   : 	{
; 67   : 		if( IsCanShopSound() )

  004c7	8b 8d 5c fe ff
	ff		 mov	 ecx, DWORD PTR _this$GSCopy$[ebp]
  004cd	e8 00 00 00 00	 call	 ?IsCanShopSound@ioClientAniEventHandler@@IAE_NXZ ; ioClientAniEventHandler::IsCanShopSound
  004d2	84 c0		 test	 al, al
  004d4	0f 84 52 0a 00
	00		 je	 $LN2830@EventHandl

; 68   : 		{
; 69   : 			OnShopSound( pEvent, pNotifier );

  004da	ff b5 58 fe ff
	ff		 push	 DWORD PTR _pNotifier$GSCopy$[ebp]
  004e0	8b 8d 5c fe ff
	ff		 mov	 ecx, DWORD PTR _this$GSCopy$[ebp]
  004e6	ff b5 60 fe ff
	ff		 push	 DWORD PTR _pEvent$GSCopy$[ebp]
  004ec	e8 00 00 00 00	 call	 ?OnShopSound@ioClientAniEventHandler@@IAEXPBUAniEventTime@@PBVioAnimation@@@Z ; ioClientAniEventHandler::OnShopSound

; 70   : 		}
; 71   : 		return true;

  004f1	e9 36 0a 00 00	 jmp	 $LN2830@EventHandl
$LN2699@EventHandl:

; 72   : 	}
; 73   : 	else if( pEvent->szEventType == "show_weapon" )

  004f6	c7 85 c8 fe ff
	ff 9e 84 84 9d	 mov	 DWORD PTR __t$542217[ebp], -1652259682 ; 9d84849eH
  00500	c7 85 cc fe ff
	ff b2 9b 8e 8b	 mov	 DWORD PTR __t$542217[ebp+4], -1953588302 ; 8b8e9bb2H
  0050a	8d 85 c8 fe ff
	ff		 lea	 eax, DWORD PTR __t$542217[ebp]
  00510	c7 85 d0 fe ff
	ff 9d 83 85 00	 mov	 DWORD PTR __t$542217[ebp+8], 8749981 ; 0085839dH
  0051a	8b cf		 mov	 ecx, edi
$LL897@EventHandl:
  0051c	81 30 ed ec eb
	ea		 xor	 DWORD PTR [eax], -353637139 ; eaebecedH
  00522	83 c0 04	 add	 eax, 4
  00525	49		 dec	 ecx
  00526	75 f4		 jne	 SHORT $LL897@EventHandl
  00528	6a 08		 push	 8
  0052a	58		 pop	 eax
$LL894@EventHandl:
  0052b	8b c8		 mov	 ecx, eax
  0052d	81 e1 03 00 00
	80		 and	 ecx, -2147483645	; 80000003H
  00533	79 05		 jns	 SHORT $LN2821@EventHandl
  00535	49		 dec	 ecx
  00536	83 c9 fc	 or	 ecx, -4			; fffffffcH
  00539	41		 inc	 ecx
$LN2821@EventHandl:
  0053a	b2 ed		 mov	 dl, -19			; ffffffedH
  0053c	2a d1		 sub	 dl, cl
  0053e	30 94 05 c8 fe
	ff ff		 xor	 BYTE PTR __t$542217[ebp+eax], dl
  00545	40		 inc	 eax
  00546	83 f8 0b	 cmp	 eax, 11			; 0000000bH
  00549	7c e0		 jl	 SHORT $LL894@EventHandl
  0054b	8b 8d 60 fe ff
	ff		 mov	 ecx, DWORD PTR _pEvent$GSCopy$[ebp]
  00551	83 c1 04	 add	 ecx, 4
  00554	8d b5 c8 fe ff
	ff		 lea	 esi, DWORD PTR __t$542217[ebp]
  0055a	ff 15 00 00 00
	00		 call	 DWORD PTR __imp_?c_str@ioHashString@@QBEPBDXZ
$LL2744@EventHandl:
  00560	8a 08		 mov	 cl, BYTE PTR [eax]
  00562	3a 0e		 cmp	 cl, BYTE PTR [esi]
  00564	75 18		 jne	 SHORT $LN2745@EventHandl
  00566	3a cb		 cmp	 cl, bl
  00568	74 10		 je	 SHORT $LN2746@EventHandl
  0056a	8a 48 01	 mov	 cl, BYTE PTR [eax+1]
  0056d	3a 4e 01	 cmp	 cl, BYTE PTR [esi+1]
  00570	75 0c		 jne	 SHORT $LN2745@EventHandl
  00572	03 c7		 add	 eax, edi
  00574	03 f7		 add	 esi, edi
  00576	3a cb		 cmp	 cl, bl
  00578	75 e6		 jne	 SHORT $LL2744@EventHandl
$LN2746@EventHandl:
  0057a	33 c0		 xor	 eax, eax
  0057c	eb 05		 jmp	 SHORT $LN2747@EventHandl
$LN2745@EventHandl:
  0057e	1b c0		 sbb	 eax, eax
  00580	83 d8 ff	 sbb	 eax, -1
$LN2747@EventHandl:
  00583	3b c3		 cmp	 eax, ebx
  00585	75 1c		 jne	 SHORT $LN2700@EventHandl

; 74   : 	{
; 75   : 		OnShowWeaponMesh( pEvent, pNotifier );

  00587	ff b5 58 fe ff
	ff		 push	 DWORD PTR _pNotifier$GSCopy$[ebp]
  0058d	8b 8d 5c fe ff
	ff		 mov	 ecx, DWORD PTR _this$GSCopy$[ebp]
  00593	ff b5 60 fe ff
	ff		 push	 DWORD PTR _pEvent$GSCopy$[ebp]
  00599	e8 00 00 00 00	 call	 ?OnShowWeaponMesh@ioClientAniEventHandler@@IAEXPBUAniEventTime@@PBVioAnimation@@@Z ; ioClientAniEventHandler::OnShowWeaponMesh

; 76   : 		return true;

  0059e	e9 89 09 00 00	 jmp	 $LN2830@EventHandl
$LN2700@EventHandl:

; 77   : 	}
; 78   : 	else if( pEvent->szEventType == "show_armor" )

  005a3	c7 85 d8 fe ff
	ff 9e 84 84 9d	 mov	 DWORD PTR __t$542391[ebp], -1652259682 ; 9d84849eH
  005ad	c7 85 dc fe ff
	ff b2 8d 99 87	 mov	 DWORD PTR __t$542391[ebp+4], -2019979854 ; 87998db2H
  005b7	66 c7 85 e0 fe
	ff ff 82 9e	 mov	 WORD PTR __t$542391[ebp+8], 40578 ; 00009e82H
  005c0	8d 85 d8 fe ff
	ff		 lea	 eax, DWORD PTR __t$542391[ebp]
  005c6	88 9d e2 fe ff
	ff		 mov	 BYTE PTR __t$542391[ebp+10], bl
  005cc	8b cf		 mov	 ecx, edi
$LL1003@EventHandl:
  005ce	81 30 ed ec eb
	ea		 xor	 DWORD PTR [eax], -353637139 ; eaebecedH
  005d4	83 c0 04	 add	 eax, 4
  005d7	49		 dec	 ecx
  005d8	75 f4		 jne	 SHORT $LL1003@EventHandl
  005da	6a 08		 push	 8
  005dc	58		 pop	 eax
$LL1000@EventHandl:
  005dd	8b c8		 mov	 ecx, eax
  005df	81 e1 03 00 00
	80		 and	 ecx, -2147483645	; 80000003H
  005e5	79 05		 jns	 SHORT $LN2822@EventHandl
  005e7	49		 dec	 ecx
  005e8	83 c9 fc	 or	 ecx, -4			; fffffffcH
  005eb	41		 inc	 ecx
$LN2822@EventHandl:
  005ec	b2 ed		 mov	 dl, -19			; ffffffedH
  005ee	2a d1		 sub	 dl, cl
  005f0	30 94 05 d8 fe
	ff ff		 xor	 BYTE PTR __t$542391[ebp+eax], dl
  005f7	40		 inc	 eax
  005f8	83 f8 0a	 cmp	 eax, 10			; 0000000aH
  005fb	7c e0		 jl	 SHORT $LL1000@EventHandl
  005fd	8b 8d 60 fe ff
	ff		 mov	 ecx, DWORD PTR _pEvent$GSCopy$[ebp]
  00603	83 c1 04	 add	 ecx, 4
  00606	8d b5 d8 fe ff
	ff		 lea	 esi, DWORD PTR __t$542391[ebp]
  0060c	ff 15 00 00 00
	00		 call	 DWORD PTR __imp_?c_str@ioHashString@@QBEPBDXZ
$LL2748@EventHandl:
  00612	8a 08		 mov	 cl, BYTE PTR [eax]
  00614	3a 0e		 cmp	 cl, BYTE PTR [esi]
  00616	75 18		 jne	 SHORT $LN2749@EventHandl
  00618	3a cb		 cmp	 cl, bl
  0061a	74 10		 je	 SHORT $LN2750@EventHandl
  0061c	8a 48 01	 mov	 cl, BYTE PTR [eax+1]
  0061f	3a 4e 01	 cmp	 cl, BYTE PTR [esi+1]
  00622	75 0c		 jne	 SHORT $LN2749@EventHandl
  00624	03 c7		 add	 eax, edi
  00626	03 f7		 add	 esi, edi
  00628	3a cb		 cmp	 cl, bl
  0062a	75 e6		 jne	 SHORT $LL2748@EventHandl
$LN2750@EventHandl:
  0062c	33 c0		 xor	 eax, eax
  0062e	eb 05		 jmp	 SHORT $LN2751@EventHandl
$LN2749@EventHandl:
  00630	1b c0		 sbb	 eax, eax
  00632	83 d8 ff	 sbb	 eax, -1
$LN2751@EventHandl:
  00635	3b c3		 cmp	 eax, ebx
  00637	75 1c		 jne	 SHORT $LN2701@EventHandl

; 79   : 	{
; 80   : 		OnShowArmorMesh( pEvent, pNotifier );

  00639	ff b5 58 fe ff
	ff		 push	 DWORD PTR _pNotifier$GSCopy$[ebp]
  0063f	8b 8d 5c fe ff
	ff		 mov	 ecx, DWORD PTR _this$GSCopy$[ebp]
  00645	ff b5 60 fe ff
	ff		 push	 DWORD PTR _pEvent$GSCopy$[ebp]
  0064b	e8 00 00 00 00	 call	 ?OnShowArmorMesh@ioClientAniEventHandler@@IAEXPBUAniEventTime@@PBVioAnimation@@@Z ; ioClientAniEventHandler::OnShowArmorMesh

; 81   : 		return true;

  00650	e9 d7 08 00 00	 jmp	 $LN2830@EventHandl
$LN2701@EventHandl:

; 82   : 	}
; 83   : 	else if( pEvent->szEventType == "show_helm" )

  00655	c7 85 6c ff ff
	ff 9e 84 84 9d	 mov	 DWORD PTR __t$542467[ebp], -1652259682 ; 9d84849eH
  0065f	c7 85 70 ff ff
	ff b2 84 8e 86	 mov	 DWORD PTR __t$542467[ebp+4], -2037480270 ; 868e84b2H
  00669	8d 85 6c ff ff
	ff		 lea	 eax, DWORD PTR __t$542467[ebp]
  0066f	66 c7 85 74 ff
	ff ff 80 00	 mov	 WORD PTR __t$542467[ebp+8], 128 ; 00000080H
  00678	8b cf		 mov	 ecx, edi
$LL1109@EventHandl:
  0067a	81 30 ed ec eb
	ea		 xor	 DWORD PTR [eax], -353637139 ; eaebecedH
  00680	83 c0 04	 add	 eax, 4
  00683	49		 dec	 ecx
  00684	75 f4		 jne	 SHORT $LL1109@EventHandl
  00686	8b 8d 60 fe ff
	ff		 mov	 ecx, DWORD PTR _pEvent$GSCopy$[ebp]
  0068c	80 b5 74 ff ff
	ff ed		 xor	 BYTE PTR __t$542467[ebp+8], -19 ; ffffffedH
  00693	83 c1 04	 add	 ecx, 4
  00696	8d b5 6c ff ff
	ff		 lea	 esi, DWORD PTR __t$542467[ebp]
  0069c	ff 15 00 00 00
	00		 call	 DWORD PTR __imp_?c_str@ioHashString@@QBEPBDXZ
$LL2752@EventHandl:
  006a2	8a 08		 mov	 cl, BYTE PTR [eax]
  006a4	3a 0e		 cmp	 cl, BYTE PTR [esi]
  006a6	75 18		 jne	 SHORT $LN2753@EventHandl
  006a8	3a cb		 cmp	 cl, bl
  006aa	74 10		 je	 SHORT $LN2754@EventHandl
  006ac	8a 48 01	 mov	 cl, BYTE PTR [eax+1]
  006af	3a 4e 01	 cmp	 cl, BYTE PTR [esi+1]
  006b2	75 0c		 jne	 SHORT $LN2753@EventHandl
  006b4	03 c7		 add	 eax, edi
  006b6	03 f7		 add	 esi, edi
  006b8	3a cb		 cmp	 cl, bl
  006ba	75 e6		 jne	 SHORT $LL2752@EventHandl
$LN2754@EventHandl:
  006bc	33 c0		 xor	 eax, eax
  006be	eb 05		 jmp	 SHORT $LN2755@EventHandl
$LN2753@EventHandl:
  006c0	1b c0		 sbb	 eax, eax
  006c2	83 d8 ff	 sbb	 eax, -1
$LN2755@EventHandl:
  006c5	3b c3		 cmp	 eax, ebx
  006c7	75 1c		 jne	 SHORT $LN2702@EventHandl

; 84   : 	{
; 85   : 		OnShowHelmMesh( pEvent, pNotifier );

  006c9	ff b5 58 fe ff
	ff		 push	 DWORD PTR _pNotifier$GSCopy$[ebp]
  006cf	8b 8d 5c fe ff
	ff		 mov	 ecx, DWORD PTR _this$GSCopy$[ebp]
  006d5	ff b5 60 fe ff
	ff		 push	 DWORD PTR _pEvent$GSCopy$[ebp]
  006db	e8 00 00 00 00	 call	 ?OnShowHelmMesh@ioClientAniEventHandler@@IAEXPBUAniEventTime@@PBVioAnimation@@@Z ; ioClientAniEventHandler::OnShowHelmMesh

; 86   : 		return true;

  006e0	e9 47 08 00 00	 jmp	 $LN2830@EventHandl
$LN2702@EventHandl:

; 87   : 	}
; 88   : 	else if( pEvent->szEventType == "show_cloak" )

  006e5	c7 85 38 ff ff
	ff 9e 84 84 9d	 mov	 DWORD PTR __t$542641[ebp], -1652259682 ; 9d84849eH
  006ef	c7 85 3c ff ff
	ff b2 8f 87 85	 mov	 DWORD PTR __t$542641[ebp+4], -2054713422 ; 85878fb2H
  006f9	66 c7 85 40 ff
	ff ff 8c 87	 mov	 WORD PTR __t$542641[ebp+8], 34700 ; 0000878cH
  00702	8d 85 38 ff ff
	ff		 lea	 eax, DWORD PTR __t$542641[ebp]
  00708	88 9d 42 ff ff
	ff		 mov	 BYTE PTR __t$542641[ebp+10], bl
  0070e	8b cf		 mov	 ecx, edi
$LL1215@EventHandl:
  00710	81 30 ed ec eb
	ea		 xor	 DWORD PTR [eax], -353637139 ; eaebecedH
  00716	83 c0 04	 add	 eax, 4
  00719	49		 dec	 ecx
  0071a	75 f4		 jne	 SHORT $LL1215@EventHandl
  0071c	6a 08		 push	 8
  0071e	58		 pop	 eax
$LL1212@EventHandl:
  0071f	8b c8		 mov	 ecx, eax
  00721	81 e1 03 00 00
	80		 and	 ecx, -2147483645	; 80000003H
  00727	79 05		 jns	 SHORT $LN2823@EventHandl
  00729	49		 dec	 ecx
  0072a	83 c9 fc	 or	 ecx, -4			; fffffffcH
  0072d	41		 inc	 ecx
$LN2823@EventHandl:
  0072e	b2 ed		 mov	 dl, -19			; ffffffedH
  00730	2a d1		 sub	 dl, cl
  00732	30 94 05 38 ff
	ff ff		 xor	 BYTE PTR __t$542641[ebp+eax], dl
  00739	40		 inc	 eax
  0073a	83 f8 0a	 cmp	 eax, 10			; 0000000aH
  0073d	7c e0		 jl	 SHORT $LL1212@EventHandl
  0073f	8b 8d 60 fe ff
	ff		 mov	 ecx, DWORD PTR _pEvent$GSCopy$[ebp]
  00745	83 c1 04	 add	 ecx, 4
  00748	8d b5 38 ff ff
	ff		 lea	 esi, DWORD PTR __t$542641[ebp]
  0074e	ff 15 00 00 00
	00		 call	 DWORD PTR __imp_?c_str@ioHashString@@QBEPBDXZ
$LL2756@EventHandl:
  00754	8a 08		 mov	 cl, BYTE PTR [eax]
  00756	3a 0e		 cmp	 cl, BYTE PTR [esi]
  00758	75 18		 jne	 SHORT $LN2757@EventHandl
  0075a	3a cb		 cmp	 cl, bl
  0075c	74 10		 je	 SHORT $LN2758@EventHandl
  0075e	8a 48 01	 mov	 cl, BYTE PTR [eax+1]
  00761	3a 4e 01	 cmp	 cl, BYTE PTR [esi+1]
  00764	75 0c		 jne	 SHORT $LN2757@EventHandl
  00766	03 c7		 add	 eax, edi
  00768	03 f7		 add	 esi, edi
  0076a	3a cb		 cmp	 cl, bl
  0076c	75 e6		 jne	 SHORT $LL2756@EventHandl
$LN2758@EventHandl:
  0076e	33 c0		 xor	 eax, eax
  00770	eb 05		 jmp	 SHORT $LN2759@EventHandl
$LN2757@EventHandl:
  00772	1b c0		 sbb	 eax, eax
  00774	83 d8 ff	 sbb	 eax, -1
$LN2759@EventHandl:
  00777	3b c3		 cmp	 eax, ebx
  00779	75 1c		 jne	 SHORT $LN2703@EventHandl

; 89   : 	{
; 90   : 		OnShowCloakMesh( pEvent, pNotifier );

  0077b	ff b5 58 fe ff
	ff		 push	 DWORD PTR _pNotifier$GSCopy$[ebp]
  00781	8b 8d 5c fe ff
	ff		 mov	 ecx, DWORD PTR _this$GSCopy$[ebp]
  00787	ff b5 60 fe ff
	ff		 push	 DWORD PTR _pEvent$GSCopy$[ebp]
  0078d	e8 00 00 00 00	 call	 ?OnShowCloakMesh@ioClientAniEventHandler@@IAEXPBUAniEventTime@@PBVioAnimation@@@Z ; ioClientAniEventHandler::OnShowCloakMesh

; 91   : 		return true;

  00792	e9 95 07 00 00	 jmp	 $LN2830@EventHandl
$LN2703@EventHandl:

; 92   : 	}
; 93   : 	else if( pEvent->szEventType == "hide_weapon" )

  00797	c7 45 9c 85 85
	8f 8f		 mov	 DWORD PTR __t$542717[ebp], -1886419579 ; 8f8f8585H
  0079e	c7 45 a0 b2 9b
	8e 8b		 mov	 DWORD PTR __t$542717[ebp+4], -1953588302 ; 8b8e9bb2H
  007a5	8d 45 9c	 lea	 eax, DWORD PTR __t$542717[ebp]
  007a8	c7 45 a4 9d 83
	85 00		 mov	 DWORD PTR __t$542717[ebp+8], 8749981 ; 0085839dH
  007af	8b cf		 mov	 ecx, edi
$LL1321@EventHandl:
  007b1	81 30 ed ec eb
	ea		 xor	 DWORD PTR [eax], -353637139 ; eaebecedH
  007b7	83 c0 04	 add	 eax, 4
  007ba	49		 dec	 ecx
  007bb	75 f4		 jne	 SHORT $LL1321@EventHandl
  007bd	6a 08		 push	 8
  007bf	58		 pop	 eax
$LL1318@EventHandl:
  007c0	8b c8		 mov	 ecx, eax
  007c2	81 e1 03 00 00
	80		 and	 ecx, -2147483645	; 80000003H
  007c8	79 05		 jns	 SHORT $LN2824@EventHandl
  007ca	49		 dec	 ecx
  007cb	83 c9 fc	 or	 ecx, -4			; fffffffcH
  007ce	41		 inc	 ecx
$LN2824@EventHandl:
  007cf	b2 ed		 mov	 dl, -19			; ffffffedH
  007d1	2a d1		 sub	 dl, cl
  007d3	30 54 05 9c	 xor	 BYTE PTR __t$542717[ebp+eax], dl
  007d7	40		 inc	 eax
  007d8	83 f8 0b	 cmp	 eax, 11			; 0000000bH
  007db	7c e3		 jl	 SHORT $LL1318@EventHandl
  007dd	8b 8d 60 fe ff
	ff		 mov	 ecx, DWORD PTR _pEvent$GSCopy$[ebp]
  007e3	83 c1 04	 add	 ecx, 4
  007e6	8d 75 9c	 lea	 esi, DWORD PTR __t$542717[ebp]
  007e9	ff 15 00 00 00
	00		 call	 DWORD PTR __imp_?c_str@ioHashString@@QBEPBDXZ
$LL2760@EventHandl:
  007ef	8a 08		 mov	 cl, BYTE PTR [eax]
  007f1	3a 0e		 cmp	 cl, BYTE PTR [esi]
  007f3	75 18		 jne	 SHORT $LN2761@EventHandl
  007f5	3a cb		 cmp	 cl, bl
  007f7	74 10		 je	 SHORT $LN2762@EventHandl
  007f9	8a 48 01	 mov	 cl, BYTE PTR [eax+1]
  007fc	3a 4e 01	 cmp	 cl, BYTE PTR [esi+1]
  007ff	75 0c		 jne	 SHORT $LN2761@EventHandl
  00801	03 c7		 add	 eax, edi
  00803	03 f7		 add	 esi, edi
  00805	3a cb		 cmp	 cl, bl
  00807	75 e6		 jne	 SHORT $LL2760@EventHandl
$LN2762@EventHandl:
  00809	33 c0		 xor	 eax, eax
  0080b	eb 05		 jmp	 SHORT $LN2763@EventHandl
$LN2761@EventHandl:
  0080d	1b c0		 sbb	 eax, eax
  0080f	83 d8 ff	 sbb	 eax, -1
$LN2763@EventHandl:
  00812	3b c3		 cmp	 eax, ebx
  00814	75 1c		 jne	 SHORT $LN2704@EventHandl

; 94   : 	{
; 95   : 		OnHideWeaponMesh( pEvent, pNotifier );

  00816	ff b5 58 fe ff
	ff		 push	 DWORD PTR _pNotifier$GSCopy$[ebp]
  0081c	8b 8d 5c fe ff
	ff		 mov	 ecx, DWORD PTR _this$GSCopy$[ebp]
  00822	ff b5 60 fe ff
	ff		 push	 DWORD PTR _pEvent$GSCopy$[ebp]
  00828	e8 00 00 00 00	 call	 ?OnHideWeaponMesh@ioClientAniEventHandler@@IAEXPBUAniEventTime@@PBVioAnimation@@@Z ; ioClientAniEventHandler::OnHideWeaponMesh

; 96   : 		return true;

  0082d	e9 fa 06 00 00	 jmp	 $LN2830@EventHandl
$LN2704@EventHandl:

; 97   : 	}
; 98   : 	else if( pEvent->szEventType == "hide_armor" )

  00832	c7 45 ac 85 85
	8f 8f		 mov	 DWORD PTR __t$542891[ebp], -1886419579 ; 8f8f8585H
  00839	c7 45 b0 b2 8d
	99 87		 mov	 DWORD PTR __t$542891[ebp+4], -2019979854 ; 87998db2H
  00840	66 c7 45 b4 82
	9e		 mov	 WORD PTR __t$542891[ebp+8], 40578 ; 00009e82H
  00846	8d 45 ac	 lea	 eax, DWORD PTR __t$542891[ebp]
  00849	88 5d b6	 mov	 BYTE PTR __t$542891[ebp+10], bl
  0084c	8b cf		 mov	 ecx, edi
$LL1427@EventHandl:
  0084e	81 30 ed ec eb
	ea		 xor	 DWORD PTR [eax], -353637139 ; eaebecedH
  00854	83 c0 04	 add	 eax, 4
  00857	49		 dec	 ecx
  00858	75 f4		 jne	 SHORT $LL1427@EventHandl
  0085a	6a 08		 push	 8
  0085c	58		 pop	 eax
$LL1424@EventHandl:
  0085d	8b c8		 mov	 ecx, eax
  0085f	81 e1 03 00 00
	80		 and	 ecx, -2147483645	; 80000003H
  00865	79 05		 jns	 SHORT $LN2825@EventHandl
  00867	49		 dec	 ecx
  00868	83 c9 fc	 or	 ecx, -4			; fffffffcH
  0086b	41		 inc	 ecx
$LN2825@EventHandl:
  0086c	b2 ed		 mov	 dl, -19			; ffffffedH
  0086e	2a d1		 sub	 dl, cl
  00870	30 54 05 ac	 xor	 BYTE PTR __t$542891[ebp+eax], dl
  00874	40		 inc	 eax
  00875	83 f8 0a	 cmp	 eax, 10			; 0000000aH
  00878	7c e3		 jl	 SHORT $LL1424@EventHandl
  0087a	8b 8d 60 fe ff
	ff		 mov	 ecx, DWORD PTR _pEvent$GSCopy$[ebp]
  00880	83 c1 04	 add	 ecx, 4
  00883	8d 75 ac	 lea	 esi, DWORD PTR __t$542891[ebp]
  00886	ff 15 00 00 00
	00		 call	 DWORD PTR __imp_?c_str@ioHashString@@QBEPBDXZ
$LL2764@EventHandl:
  0088c	8a 08		 mov	 cl, BYTE PTR [eax]
  0088e	3a 0e		 cmp	 cl, BYTE PTR [esi]
  00890	75 18		 jne	 SHORT $LN2765@EventHandl
  00892	3a cb		 cmp	 cl, bl
  00894	74 10		 je	 SHORT $LN2766@EventHandl
  00896	8a 48 01	 mov	 cl, BYTE PTR [eax+1]
  00899	3a 4e 01	 cmp	 cl, BYTE PTR [esi+1]
  0089c	75 0c		 jne	 SHORT $LN2765@EventHandl
  0089e	03 c7		 add	 eax, edi
  008a0	03 f7		 add	 esi, edi
  008a2	3a cb		 cmp	 cl, bl
  008a4	75 e6		 jne	 SHORT $LL2764@EventHandl
$LN2766@EventHandl:
  008a6	33 c0		 xor	 eax, eax
  008a8	eb 05		 jmp	 SHORT $LN2767@EventHandl
$LN2765@EventHandl:
  008aa	1b c0		 sbb	 eax, eax
  008ac	83 d8 ff	 sbb	 eax, -1
$LN2767@EventHandl:
  008af	3b c3		 cmp	 eax, ebx
  008b1	75 1c		 jne	 SHORT $LN2705@EventHandl

; 99   : 	{
; 100  : 		OnHideArmorMesh( pEvent, pNotifier );

  008b3	ff b5 58 fe ff
	ff		 push	 DWORD PTR _pNotifier$GSCopy$[ebp]
  008b9	8b 8d 5c fe ff
	ff		 mov	 ecx, DWORD PTR _this$GSCopy$[ebp]
  008bf	ff b5 60 fe ff
	ff		 push	 DWORD PTR _pEvent$GSCopy$[ebp]
  008c5	e8 00 00 00 00	 call	 ?OnHideArmorMesh@ioClientAniEventHandler@@IAEXPBUAniEventTime@@PBVioAnimation@@@Z ; ioClientAniEventHandler::OnHideArmorMesh

; 101  : 		return true;

  008ca	e9 5d 06 00 00	 jmp	 $LN2830@EventHandl
$LN2705@EventHandl:

; 102  : 	}
; 103  : 	else if( pEvent->szEventType == "hide_helm" )

  008cf	c7 85 f8 fe ff
	ff 85 85 8f 8f	 mov	 DWORD PTR __t$542980[ebp], -1886419579 ; 8f8f8585H
  008d9	c7 85 fc fe ff
	ff b2 84 8e 86	 mov	 DWORD PTR __t$542980[ebp+4], -2037480270 ; 868e84b2H
  008e3	8d 85 f8 fe ff
	ff		 lea	 eax, DWORD PTR __t$542980[ebp]
  008e9	66 c7 85 00 ff
	ff ff 80 00	 mov	 WORD PTR __t$542980[ebp+8], 128 ; 00000080H
  008f2	8b cf		 mov	 ecx, edi
$LL1533@EventHandl:
  008f4	81 30 ed ec eb
	ea		 xor	 DWORD PTR [eax], -353637139 ; eaebecedH
  008fa	83 c0 04	 add	 eax, 4
  008fd	49		 dec	 ecx
  008fe	75 f4		 jne	 SHORT $LL1533@EventHandl
  00900	8b 8d 60 fe ff
	ff		 mov	 ecx, DWORD PTR _pEvent$GSCopy$[ebp]
  00906	80 b5 00 ff ff
	ff ed		 xor	 BYTE PTR __t$542980[ebp+8], -19 ; ffffffedH
  0090d	83 c1 04	 add	 ecx, 4
  00910	8d b5 f8 fe ff
	ff		 lea	 esi, DWORD PTR __t$542980[ebp]
  00916	ff 15 00 00 00
	00		 call	 DWORD PTR __imp_?c_str@ioHashString@@QBEPBDXZ
$LL2768@EventHandl:
  0091c	8a 08		 mov	 cl, BYTE PTR [eax]
  0091e	3a 0e		 cmp	 cl, BYTE PTR [esi]
  00920	75 18		 jne	 SHORT $LN2769@EventHandl
  00922	3a cb		 cmp	 cl, bl
  00924	74 10		 je	 SHORT $LN2770@EventHandl
  00926	8a 48 01	 mov	 cl, BYTE PTR [eax+1]
  00929	3a 4e 01	 cmp	 cl, BYTE PTR [esi+1]
  0092c	75 0c		 jne	 SHORT $LN2769@EventHandl
  0092e	03 c7		 add	 eax, edi
  00930	03 f7		 add	 esi, edi
  00932	3a cb		 cmp	 cl, bl
  00934	75 e6		 jne	 SHORT $LL2768@EventHandl
$LN2770@EventHandl:
  00936	33 c0		 xor	 eax, eax
  00938	eb 05		 jmp	 SHORT $LN2771@EventHandl
$LN2769@EventHandl:
  0093a	1b c0		 sbb	 eax, eax
  0093c	83 d8 ff	 sbb	 eax, -1
$LN2771@EventHandl:
  0093f	3b c3		 cmp	 eax, ebx
  00941	75 1c		 jne	 SHORT $LN2706@EventHandl

; 104  : 	{
; 105  : 		OnHideHelmMesh( pEvent, pNotifier );

  00943	ff b5 58 fe ff
	ff		 push	 DWORD PTR _pNotifier$GSCopy$[ebp]
  00949	8b 8d 5c fe ff
	ff		 mov	 ecx, DWORD PTR _this$GSCopy$[ebp]
  0094f	ff b5 60 fe ff
	ff		 push	 DWORD PTR _pEvent$GSCopy$[ebp]
  00955	e8 00 00 00 00	 call	 ?OnHideHelmMesh@ioClientAniEventHandler@@IAEXPBUAniEventTime@@PBVioAnimation@@@Z ; ioClientAniEventHandler::OnHideHelmMesh

; 106  : 		return true;

  0095a	e9 cd 05 00 00	 jmp	 $LN2830@EventHandl
$LN2706@EventHandl:

; 107  : 	}
; 108  : 	else if( pEvent->szEventType == "hide_cloak" )

  0095f	c7 45 8c 85 85
	8f 8f		 mov	 DWORD PTR __t$543141[ebp], -1886419579 ; 8f8f8585H
  00966	c7 45 90 b2 8f
	87 85		 mov	 DWORD PTR __t$543141[ebp+4], -2054713422 ; 85878fb2H
  0096d	66 c7 45 94 8c
	87		 mov	 WORD PTR __t$543141[ebp+8], 34700 ; 0000878cH
  00973	8d 45 8c	 lea	 eax, DWORD PTR __t$543141[ebp]
  00976	88 5d 96	 mov	 BYTE PTR __t$543141[ebp+10], bl
  00979	8b cf		 mov	 ecx, edi
$LL1639@EventHandl:
  0097b	81 30 ed ec eb
	ea		 xor	 DWORD PTR [eax], -353637139 ; eaebecedH
  00981	83 c0 04	 add	 eax, 4
  00984	49		 dec	 ecx
  00985	75 f4		 jne	 SHORT $LL1639@EventHandl
  00987	6a 08		 push	 8
  00989	58		 pop	 eax
$LL1636@EventHandl:
  0098a	8b c8		 mov	 ecx, eax
  0098c	81 e1 03 00 00
	80		 and	 ecx, -2147483645	; 80000003H
  00992	79 05		 jns	 SHORT $LN2826@EventHandl
  00994	49		 dec	 ecx
  00995	83 c9 fc	 or	 ecx, -4			; fffffffcH
  00998	41		 inc	 ecx
$LN2826@EventHandl:
  00999	b2 ed		 mov	 dl, -19			; ffffffedH
  0099b	2a d1		 sub	 dl, cl
  0099d	30 54 05 8c	 xor	 BYTE PTR __t$543141[ebp+eax], dl
  009a1	40		 inc	 eax
  009a2	83 f8 0a	 cmp	 eax, 10			; 0000000aH
  009a5	7c e3		 jl	 SHORT $LL1636@EventHandl
  009a7	8b 8d 60 fe ff
	ff		 mov	 ecx, DWORD PTR _pEvent$GSCopy$[ebp]
  009ad	83 c1 04	 add	 ecx, 4
  009b0	8d 75 8c	 lea	 esi, DWORD PTR __t$543141[ebp]
  009b3	ff 15 00 00 00
	00		 call	 DWORD PTR __imp_?c_str@ioHashString@@QBEPBDXZ
$LL2772@EventHandl:
  009b9	8a 08		 mov	 cl, BYTE PTR [eax]
  009bb	3a 0e		 cmp	 cl, BYTE PTR [esi]
  009bd	75 18		 jne	 SHORT $LN2773@EventHandl
  009bf	3a cb		 cmp	 cl, bl
  009c1	74 10		 je	 SHORT $LN2774@EventHandl
  009c3	8a 48 01	 mov	 cl, BYTE PTR [eax+1]
  009c6	3a 4e 01	 cmp	 cl, BYTE PTR [esi+1]
  009c9	75 0c		 jne	 SHORT $LN2773@EventHandl
  009cb	03 c7		 add	 eax, edi
  009cd	03 f7		 add	 esi, edi
  009cf	3a cb		 cmp	 cl, bl
  009d1	75 e6		 jne	 SHORT $LL2772@EventHandl
$LN2774@EventHandl:
  009d3	33 c0		 xor	 eax, eax
  009d5	eb 05		 jmp	 SHORT $LN2775@EventHandl
$LN2773@EventHandl:
  009d7	1b c0		 sbb	 eax, eax
  009d9	83 d8 ff	 sbb	 eax, -1
$LN2775@EventHandl:
  009dc	3b c3		 cmp	 eax, ebx
  009de	75 1c		 jne	 SHORT $LN2707@EventHandl

; 109  : 	{
; 110  : 		OnHideCloakMesh( pEvent, pNotifier );

  009e0	ff b5 58 fe ff
	ff		 push	 DWORD PTR _pNotifier$GSCopy$[ebp]
  009e6	8b 8d 5c fe ff
	ff		 mov	 ecx, DWORD PTR _this$GSCopy$[ebp]
  009ec	ff b5 60 fe ff
	ff		 push	 DWORD PTR _pEvent$GSCopy$[ebp]
  009f2	e8 00 00 00 00	 call	 ?OnHideCloakMesh@ioClientAniEventHandler@@IAEXPBUAniEventTime@@PBVioAnimation@@@Z ; ioClientAniEventHandler::OnHideCloakMesh

; 111  : 		return true;

  009f7	e9 30 05 00 00	 jmp	 $LN2830@EventHandl
$LN2707@EventHandl:

; 112  : 	}
; 113  : 	else if( pEvent->szEventType == "hide_hair" )

  009fc	c7 85 7c ff ff
	ff 85 85 8f 8f	 mov	 DWORD PTR __t$543217[ebp], -1886419579 ; 8f8f8585H
  00a06	c7 45 80 b2 84
	8a 83		 mov	 DWORD PTR __t$543217[ebp+4], -2088074062 ; 838a84b2H
  00a0d	8d 85 7c ff ff
	ff		 lea	 eax, DWORD PTR __t$543217[ebp]
  00a13	66 c7 45 84 9f
	00		 mov	 WORD PTR __t$543217[ebp+8], 159 ; 0000009fH
  00a19	8b cf		 mov	 ecx, edi
$LL1745@EventHandl:
  00a1b	81 30 ed ec eb
	ea		 xor	 DWORD PTR [eax], -353637139 ; eaebecedH
  00a21	83 c0 04	 add	 eax, 4
  00a24	49		 dec	 ecx
  00a25	75 f4		 jne	 SHORT $LL1745@EventHandl
  00a27	8b 8d 60 fe ff
	ff		 mov	 ecx, DWORD PTR _pEvent$GSCopy$[ebp]
  00a2d	80 75 84 ed	 xor	 BYTE PTR __t$543217[ebp+8], -19 ; ffffffedH
  00a31	83 c1 04	 add	 ecx, 4
  00a34	8d b5 7c ff ff
	ff		 lea	 esi, DWORD PTR __t$543217[ebp]
  00a3a	ff 15 00 00 00
	00		 call	 DWORD PTR __imp_?c_str@ioHashString@@QBEPBDXZ
$LL2776@EventHandl:
  00a40	8a 08		 mov	 cl, BYTE PTR [eax]
  00a42	3a 0e		 cmp	 cl, BYTE PTR [esi]
  00a44	75 18		 jne	 SHORT $LN2777@EventHandl
  00a46	3a cb		 cmp	 cl, bl
  00a48	74 10		 je	 SHORT $LN2778@EventHandl
  00a4a	8a 48 01	 mov	 cl, BYTE PTR [eax+1]
  00a4d	3a 4e 01	 cmp	 cl, BYTE PTR [esi+1]
  00a50	75 0c		 jne	 SHORT $LN2777@EventHandl
  00a52	03 c7		 add	 eax, edi
  00a54	03 f7		 add	 esi, edi
  00a56	3a cb		 cmp	 cl, bl
  00a58	75 e6		 jne	 SHORT $LL2776@EventHandl
$LN2778@EventHandl:
  00a5a	33 c0		 xor	 eax, eax
  00a5c	eb 05		 jmp	 SHORT $LN2779@EventHandl
$LN2777@EventHandl:
  00a5e	1b c0		 sbb	 eax, eax
  00a60	83 d8 ff	 sbb	 eax, -1
$LN2779@EventHandl:
  00a63	3b c3		 cmp	 eax, ebx
  00a65	75 1c		 jne	 SHORT $LN2708@EventHandl

; 114  : 	{
; 115  : 		OnHideHairMesh( pEvent, pNotifier );

  00a67	ff b5 58 fe ff
	ff		 push	 DWORD PTR _pNotifier$GSCopy$[ebp]
  00a6d	8b 8d 5c fe ff
	ff		 mov	 ecx, DWORD PTR _this$GSCopy$[ebp]
  00a73	ff b5 60 fe ff
	ff		 push	 DWORD PTR _pEvent$GSCopy$[ebp]
  00a79	e8 00 00 00 00	 call	 ?OnHideHairMesh@ioClientAniEventHandler@@IAEXPBUAniEventTime@@PBVioAnimation@@@Z ; ioClientAniEventHandler::OnHideHairMesh

; 116  : 		return true;

  00a7e	e9 a9 04 00 00	 jmp	 $LN2830@EventHandl
$LN2708@EventHandl:

; 117  : 	}
; 118  : 	else if( pEvent->szEventType == "dummy_attack" )

  00a83	6a 03		 push	 3
  00a85	c7 85 a0 fe ff
	ff 89 99 86 87	 mov	 DWORD PTR __t$543342[ebp], -2021222007 ; 87869989H
  00a8f	c7 85 a4 fe ff
	ff 94 b3 8a 9e	 mov	 DWORD PTR __t$543342[ebp+4], -1635077228 ; 9e8ab394H
  00a99	c7 85 a8 fe ff
	ff 99 8d 88 81	 mov	 DWORD PTR __t$543342[ebp+8], -2121757287 ; 81888d99H
  00aa3	8d 85 a0 fe ff
	ff		 lea	 eax, DWORD PTR __t$543342[ebp]
  00aa9	88 9d ac fe ff
	ff		 mov	 BYTE PTR __t$543342[ebp+12], bl
  00aaf	59		 pop	 ecx
$LL1851@EventHandl:
  00ab0	81 30 ed ec eb
	ea		 xor	 DWORD PTR [eax], -353637139 ; eaebecedH
  00ab6	83 c0 04	 add	 eax, 4
  00ab9	49		 dec	 ecx
  00aba	75 f4		 jne	 SHORT $LL1851@EventHandl
  00abc	8b 8d 60 fe ff
	ff		 mov	 ecx, DWORD PTR _pEvent$GSCopy$[ebp]
  00ac2	83 c1 04	 add	 ecx, 4
  00ac5	8d b5 a0 fe ff
	ff		 lea	 esi, DWORD PTR __t$543342[ebp]
  00acb	ff 15 00 00 00
	00		 call	 DWORD PTR __imp_?c_str@ioHashString@@QBEPBDXZ
$LL2780@EventHandl:
  00ad1	8a 08		 mov	 cl, BYTE PTR [eax]
  00ad3	3a 0e		 cmp	 cl, BYTE PTR [esi]
  00ad5	75 18		 jne	 SHORT $LN2781@EventHandl
  00ad7	3a cb		 cmp	 cl, bl
  00ad9	74 10		 je	 SHORT $LN2782@EventHandl
  00adb	8a 48 01	 mov	 cl, BYTE PTR [eax+1]
  00ade	3a 4e 01	 cmp	 cl, BYTE PTR [esi+1]
  00ae1	75 0c		 jne	 SHORT $LN2781@EventHandl
  00ae3	03 c7		 add	 eax, edi
  00ae5	03 f7		 add	 esi, edi
  00ae7	3a cb		 cmp	 cl, bl
  00ae9	75 e6		 jne	 SHORT $LL2780@EventHandl
$LN2782@EventHandl:
  00aeb	33 c0		 xor	 eax, eax
  00aed	eb 05		 jmp	 SHORT $LN2783@EventHandl
$LN2781@EventHandl:
  00aef	1b c0		 sbb	 eax, eax
  00af1	83 d8 ff	 sbb	 eax, -1
$LN2783@EventHandl:
  00af4	3b c3		 cmp	 eax, ebx
  00af6	75 1c		 jne	 SHORT $LN2709@EventHandl

; 119  : 	{
; 120  : 		OnDummyCharAttack( pEvent, pNotifier );

  00af8	ff b5 58 fe ff
	ff		 push	 DWORD PTR _pNotifier$GSCopy$[ebp]
  00afe	8b 8d 5c fe ff
	ff		 mov	 ecx, DWORD PTR _this$GSCopy$[ebp]
  00b04	ff b5 60 fe ff
	ff		 push	 DWORD PTR _pEvent$GSCopy$[ebp]
  00b0a	e8 00 00 00 00	 call	 ?OnDummyCharAttack@ioClientAniEventHandler@@IAEXPBUAniEventTime@@PBVioAnimation@@@Z ; ioClientAniEventHandler::OnDummyCharAttack

; 121  : 		return true;

  00b0f	e9 18 04 00 00	 jmp	 $LN2830@EventHandl
$LN2709@EventHandl:

; 122  : 	}
; 123  : 	else if( pEvent->szEventType == "lobelia_action" )

  00b14	6a 03		 push	 3
  00b16	c7 85 48 ff ff
	ff 81 83 89 8f	 mov	 DWORD PTR __t$543467[ebp], -1886813311 ; 8f898381H
  00b20	c7 85 4c ff ff
	ff 81 85 8a b5	 mov	 DWORD PTR __t$543467[ebp+4], -1249213055 ; b58a8581H
  00b2a	c7 85 50 ff ff
	ff 8c 8f 9f 83	 mov	 DWORD PTR __t$543467[ebp+8], -2086695028 ; 839f8f8cH
  00b34	66 c7 85 54 ff
	ff ff 82 82	 mov	 WORD PTR __t$543467[ebp+12], 33410 ; 00008282H
  00b3d	8d 85 48 ff ff
	ff		 lea	 eax, DWORD PTR __t$543467[ebp]
  00b43	88 9d 56 ff ff
	ff		 mov	 BYTE PTR __t$543467[ebp+14], bl
  00b49	59		 pop	 ecx
$LL1957@EventHandl:
  00b4a	81 30 ed ec eb
	ea		 xor	 DWORD PTR [eax], -353637139 ; eaebecedH
  00b50	83 c0 04	 add	 eax, 4
  00b53	49		 dec	 ecx
  00b54	75 f4		 jne	 SHORT $LL1957@EventHandl
  00b56	6a 0c		 push	 12			; 0000000cH
  00b58	58		 pop	 eax
$LL1954@EventHandl:
  00b59	8b c8		 mov	 ecx, eax
  00b5b	81 e1 03 00 00
	80		 and	 ecx, -2147483645	; 80000003H
  00b61	79 05		 jns	 SHORT $LN2827@EventHandl
  00b63	49		 dec	 ecx
  00b64	83 c9 fc	 or	 ecx, -4			; fffffffcH
  00b67	41		 inc	 ecx
$LN2827@EventHandl:
  00b68	b2 ed		 mov	 dl, -19			; ffffffedH
  00b6a	2a d1		 sub	 dl, cl
  00b6c	30 94 05 48 ff
	ff ff		 xor	 BYTE PTR __t$543467[ebp+eax], dl
  00b73	40		 inc	 eax
  00b74	83 f8 0e	 cmp	 eax, 14			; 0000000eH
  00b77	7c e0		 jl	 SHORT $LL1954@EventHandl
  00b79	8b 8d 60 fe ff
	ff		 mov	 ecx, DWORD PTR _pEvent$GSCopy$[ebp]
  00b7f	83 c1 04	 add	 ecx, 4
  00b82	8d b5 48 ff ff
	ff		 lea	 esi, DWORD PTR __t$543467[ebp]
  00b88	ff 15 00 00 00
	00		 call	 DWORD PTR __imp_?c_str@ioHashString@@QBEPBDXZ
$LL2784@EventHandl:
  00b8e	8a 08		 mov	 cl, BYTE PTR [eax]
  00b90	3a 0e		 cmp	 cl, BYTE PTR [esi]
  00b92	75 18		 jne	 SHORT $LN2785@EventHandl
  00b94	3a cb		 cmp	 cl, bl
  00b96	74 10		 je	 SHORT $LN2786@EventHandl
  00b98	8a 48 01	 mov	 cl, BYTE PTR [eax+1]
  00b9b	3a 4e 01	 cmp	 cl, BYTE PTR [esi+1]
  00b9e	75 0c		 jne	 SHORT $LN2785@EventHandl
  00ba0	03 c7		 add	 eax, edi
  00ba2	03 f7		 add	 esi, edi
  00ba4	3a cb		 cmp	 cl, bl
  00ba6	75 e6		 jne	 SHORT $LL2784@EventHandl
$LN2786@EventHandl:
  00ba8	33 c0		 xor	 eax, eax
  00baa	eb 05		 jmp	 SHORT $LN2787@EventHandl
$LN2785@EventHandl:
  00bac	1b c0		 sbb	 eax, eax
  00bae	83 d8 ff	 sbb	 eax, -1
$LN2787@EventHandl:
  00bb1	3b c3		 cmp	 eax, ebx
  00bb3	75 1c		 jne	 SHORT $LN2710@EventHandl

; 124  : 	{
; 125  : 		OnLobeliaAction( pEvent, pNotifier );

  00bb5	ff b5 58 fe ff
	ff		 push	 DWORD PTR _pNotifier$GSCopy$[ebp]
  00bbb	8b 8d 5c fe ff
	ff		 mov	 ecx, DWORD PTR _this$GSCopy$[ebp]
  00bc1	ff b5 60 fe ff
	ff		 push	 DWORD PTR _pEvent$GSCopy$[ebp]
  00bc7	e8 00 00 00 00	 call	 ?OnLobeliaAction@ioClientAniEventHandler@@IAEXPBUAniEventTime@@PBVioAnimation@@@Z ; ioClientAniEventHandler::OnLobeliaAction

; 126  : 		return true;

  00bcc	e9 5b 03 00 00	 jmp	 $LN2830@EventHandl
$LN2710@EventHandl:

; 127  : 	}
; 128  : 	else if( pEvent->szEventType == "cmd_action" )

  00bd1	c7 45 e0 8e 81
	8f b5		 mov	 DWORD PTR __t$543641[ebp], -1248886386 ; b58f818eH
  00bd8	c7 45 e4 8c 8f
	9f 83		 mov	 DWORD PTR __t$543641[ebp+4], -2086695028 ; 839f8f8cH
  00bdf	66 c7 45 e8 82
	82		 mov	 WORD PTR __t$543641[ebp+8], 33410 ; 00008282H
  00be5	8d 45 e0	 lea	 eax, DWORD PTR __t$543641[ebp]
  00be8	88 5d ea	 mov	 BYTE PTR __t$543641[ebp+10], bl
  00beb	8b cf		 mov	 ecx, edi
$LL2063@EventHandl:
  00bed	81 30 ed ec eb
	ea		 xor	 DWORD PTR [eax], -353637139 ; eaebecedH
  00bf3	83 c0 04	 add	 eax, 4
  00bf6	49		 dec	 ecx
  00bf7	75 f4		 jne	 SHORT $LL2063@EventHandl
  00bf9	6a 08		 push	 8
  00bfb	58		 pop	 eax
$LL2060@EventHandl:
  00bfc	8b c8		 mov	 ecx, eax
  00bfe	81 e1 03 00 00
	80		 and	 ecx, -2147483645	; 80000003H
  00c04	79 05		 jns	 SHORT $LN2828@EventHandl
  00c06	49		 dec	 ecx
  00c07	83 c9 fc	 or	 ecx, -4			; fffffffcH
  00c0a	41		 inc	 ecx
$LN2828@EventHandl:
  00c0b	b2 ed		 mov	 dl, -19			; ffffffedH
  00c0d	2a d1		 sub	 dl, cl
  00c0f	30 54 05 e0	 xor	 BYTE PTR __t$543641[ebp+eax], dl
  00c13	40		 inc	 eax
  00c14	83 f8 0a	 cmp	 eax, 10			; 0000000aH
  00c17	7c e3		 jl	 SHORT $LL2060@EventHandl
  00c19	8b 8d 60 fe ff
	ff		 mov	 ecx, DWORD PTR _pEvent$GSCopy$[ebp]
  00c1f	83 c1 04	 add	 ecx, 4
  00c22	8d 75 e0	 lea	 esi, DWORD PTR __t$543641[ebp]
  00c25	ff 15 00 00 00
	00		 call	 DWORD PTR __imp_?c_str@ioHashString@@QBEPBDXZ
$LL2788@EventHandl:
  00c2b	8a 08		 mov	 cl, BYTE PTR [eax]
  00c2d	3a 0e		 cmp	 cl, BYTE PTR [esi]
  00c2f	75 18		 jne	 SHORT $LN2789@EventHandl
  00c31	3a cb		 cmp	 cl, bl
  00c33	74 10		 je	 SHORT $LN2790@EventHandl
  00c35	8a 48 01	 mov	 cl, BYTE PTR [eax+1]
  00c38	3a 4e 01	 cmp	 cl, BYTE PTR [esi+1]
  00c3b	75 0c		 jne	 SHORT $LN2789@EventHandl
  00c3d	03 c7		 add	 eax, edi
  00c3f	03 f7		 add	 esi, edi
  00c41	3a cb		 cmp	 cl, bl
  00c43	75 e6		 jne	 SHORT $LL2788@EventHandl
$LN2790@EventHandl:
  00c45	33 c0		 xor	 eax, eax
  00c47	eb 05		 jmp	 SHORT $LN2791@EventHandl
$LN2789@EventHandl:
  00c49	1b c0		 sbb	 eax, eax
  00c4b	83 d8 ff	 sbb	 eax, -1
$LN2791@EventHandl:
  00c4e	3b c3		 cmp	 eax, ebx
  00c50	75 1c		 jne	 SHORT $LN2711@EventHandl

; 129  : 	{
; 130  : 		OnCmdAction( pEvent, pNotifier );

  00c52	ff b5 58 fe ff
	ff		 push	 DWORD PTR _pNotifier$GSCopy$[ebp]
  00c58	8b 8d 5c fe ff
	ff		 mov	 ecx, DWORD PTR _this$GSCopy$[ebp]
  00c5e	ff b5 60 fe ff
	ff		 push	 DWORD PTR _pEvent$GSCopy$[ebp]
  00c64	e8 00 00 00 00	 call	 ?OnCmdAction@ioClientAniEventHandler@@IAEXPBUAniEventTime@@PBVioAnimation@@@Z ; ioClientAniEventHandler::OnCmdAction

; 131  : 		return true;

  00c69	e9 be 02 00 00	 jmp	 $LN2830@EventHandl
$LN2711@EventHandl:

; 132  : 	}
; 133  : 	else if( pEvent->szEventType == "cmd_end" )

  00c6e	6a 04		 push	 4
  00c70	c7 45 f0 8e 81
	8f b5		 mov	 DWORD PTR __t$543717[ebp], -1248886386 ; b58f818eH
  00c77	81 75 f0 ed ec
	eb ea		 xor	 DWORD PTR __t$543717[ebp], -353637139 ; eaebecedH
  00c7e	c7 45 f4 88 82
	8f 00		 mov	 DWORD PTR __t$543717[ebp+4], 9405064 ; 008f8288H
  00c85	58		 pop	 eax
$LL2166@EventHandl:
  00c86	8b c8		 mov	 ecx, eax
  00c88	81 e1 03 00 00
	80		 and	 ecx, -2147483645	; 80000003H
  00c8e	79 05		 jns	 SHORT $LN2829@EventHandl
  00c90	49		 dec	 ecx
  00c91	83 c9 fc	 or	 ecx, -4			; fffffffcH
  00c94	41		 inc	 ecx
$LN2829@EventHandl:
  00c95	b2 ed		 mov	 dl, -19			; ffffffedH
  00c97	2a d1		 sub	 dl, cl
  00c99	30 54 05 f0	 xor	 BYTE PTR __t$543717[ebp+eax], dl
  00c9d	40		 inc	 eax
  00c9e	83 f8 07	 cmp	 eax, 7
  00ca1	7c e3		 jl	 SHORT $LL2166@EventHandl
  00ca3	8b 8d 60 fe ff
	ff		 mov	 ecx, DWORD PTR _pEvent$GSCopy$[ebp]
  00ca9	83 c1 04	 add	 ecx, 4
  00cac	8d 75 f0	 lea	 esi, DWORD PTR __t$543717[ebp]
  00caf	ff 15 00 00 00
	00		 call	 DWORD PTR __imp_?c_str@ioHashString@@QBEPBDXZ
$LL2792@EventHandl:
  00cb5	8a 08		 mov	 cl, BYTE PTR [eax]
  00cb7	3a 0e		 cmp	 cl, BYTE PTR [esi]
  00cb9	75 18		 jne	 SHORT $LN2793@EventHandl
  00cbb	3a cb		 cmp	 cl, bl
  00cbd	74 10		 je	 SHORT $LN2794@EventHandl
  00cbf	8a 48 01	 mov	 cl, BYTE PTR [eax+1]
  00cc2	3a 4e 01	 cmp	 cl, BYTE PTR [esi+1]
  00cc5	75 0c		 jne	 SHORT $LN2793@EventHandl
  00cc7	03 c7		 add	 eax, edi
  00cc9	03 f7		 add	 esi, edi
  00ccb	3a cb		 cmp	 cl, bl
  00ccd	75 e6		 jne	 SHORT $LL2792@EventHandl
$LN2794@EventHandl:
  00ccf	33 c0		 xor	 eax, eax
  00cd1	eb 05		 jmp	 SHORT $LN2795@EventHandl
$LN2793@EventHandl:
  00cd3	1b c0		 sbb	 eax, eax
  00cd5	83 d8 ff	 sbb	 eax, -1
$LN2795@EventHandl:
  00cd8	3b c3		 cmp	 eax, ebx
  00cda	75 1c		 jne	 SHORT $LN2712@EventHandl

; 134  : 	{
; 135  : 		OnCmdEnd( pEvent, pNotifier );

  00cdc	ff b5 58 fe ff
	ff		 push	 DWORD PTR _pNotifier$GSCopy$[ebp]
  00ce2	8b 8d 5c fe ff
	ff		 mov	 ecx, DWORD PTR _this$GSCopy$[ebp]
  00ce8	ff b5 60 fe ff
	ff		 push	 DWORD PTR _pEvent$GSCopy$[ebp]
  00cee	e8 00 00 00 00	 call	 ?OnCmdEnd@ioClientAniEventHandler@@IAEXPBUAniEventTime@@PBVioAnimation@@@Z ; ioClientAniEventHandler::OnCmdEnd

; 136  : 		return true;

  00cf3	e9 34 02 00 00	 jmp	 $LN2830@EventHandl
$LN2712@EventHandl:

; 137  : 	}
; 138  : 	else if( pEvent->szEventType == "skill_action" )

  00cf8	6a 03		 push	 3
  00cfa	c7 85 8c fe ff
	ff 9e 87 82 86	 mov	 DWORD PTR __t$543855[ebp], -2038265954 ; 8682879eH
  00d04	c7 85 90 fe ff
	ff 81 b3 8a 89	 mov	 DWORD PTR __t$543855[ebp+4], -1987398783 ; 898ab381H
  00d0e	c7 85 94 fe ff
	ff 99 85 84 84	 mov	 DWORD PTR __t$543855[ebp+8], -2071689831 ; 84848599H
  00d18	8d 85 8c fe ff
	ff		 lea	 eax, DWORD PTR __t$543855[ebp]
  00d1e	88 9d 98 fe ff
	ff		 mov	 BYTE PTR __t$543855[ebp+12], bl
  00d24	59		 pop	 ecx
$LL2275@EventHandl:
  00d25	81 30 ed ec eb
	ea		 xor	 DWORD PTR [eax], -353637139 ; eaebecedH
  00d2b	83 c0 04	 add	 eax, 4
  00d2e	49		 dec	 ecx
  00d2f	75 f4		 jne	 SHORT $LL2275@EventHandl
  00d31	8b 8d 60 fe ff
	ff		 mov	 ecx, DWORD PTR _pEvent$GSCopy$[ebp]
  00d37	83 c1 04	 add	 ecx, 4
  00d3a	8d b5 8c fe ff
	ff		 lea	 esi, DWORD PTR __t$543855[ebp]
  00d40	ff 15 00 00 00
	00		 call	 DWORD PTR __imp_?c_str@ioHashString@@QBEPBDXZ
$LL2796@EventHandl:
  00d46	8a 08		 mov	 cl, BYTE PTR [eax]
  00d48	3a 0e		 cmp	 cl, BYTE PTR [esi]
  00d4a	75 18		 jne	 SHORT $LN2797@EventHandl
  00d4c	3a cb		 cmp	 cl, bl
  00d4e	74 10		 je	 SHORT $LN2798@EventHandl
  00d50	8a 48 01	 mov	 cl, BYTE PTR [eax+1]
  00d53	3a 4e 01	 cmp	 cl, BYTE PTR [esi+1]
  00d56	75 0c		 jne	 SHORT $LN2797@EventHandl
  00d58	03 c7		 add	 eax, edi
  00d5a	03 f7		 add	 esi, edi
  00d5c	3a cb		 cmp	 cl, bl
  00d5e	75 e6		 jne	 SHORT $LL2796@EventHandl
$LN2798@EventHandl:
  00d60	33 c0		 xor	 eax, eax
  00d62	eb 05		 jmp	 SHORT $LN2799@EventHandl
$LN2797@EventHandl:
  00d64	1b c0		 sbb	 eax, eax
  00d66	83 d8 ff	 sbb	 eax, -1
$LN2799@EventHandl:
  00d69	3b c3		 cmp	 eax, ebx
  00d6b	75 1c		 jne	 SHORT $LN2713@EventHandl

; 139  : 	{
; 140  : 		OnSkillAction( pEvent, pNotifier );

  00d6d	ff b5 58 fe ff
	ff		 push	 DWORD PTR _pNotifier$GSCopy$[ebp]
  00d73	8b 8d 5c fe ff
	ff		 mov	 ecx, DWORD PTR _this$GSCopy$[ebp]
  00d79	ff b5 60 fe ff
	ff		 push	 DWORD PTR _pEvent$GSCopy$[ebp]
  00d7f	e8 00 00 00 00	 call	 ?OnSkillAction@ioClientAniEventHandler@@IAEXPBUAniEventTime@@PBVioAnimation@@@Z ; ioClientAniEventHandler::OnSkillAction

; 141  : 		return true;

  00d84	e9 a3 01 00 00	 jmp	 $LN2830@EventHandl
$LN2713@EventHandl:

; 142  : 	}
; 143  : 	else if( pEvent->szEventType == "use_gp_action" )

  00d89	6a 03		 push	 3
  00d8b	c7 45 bc 98 9f
	8e b5		 mov	 DWORD PTR __t$543980[ebp], -1248944232 ; b58e9f98H
  00d92	c7 45 c0 8a 9c
	b4 8b		 mov	 DWORD PTR __t$543980[ebp+4], -1951097718 ; 8bb49c8aH
  00d99	c7 45 c4 8e 98
	82 85		 mov	 DWORD PTR __t$543980[ebp+8], -2055038834 ; 8582988eH
  00da0	8d 45 bc	 lea	 eax, DWORD PTR __t$543980[ebp]
  00da3	66 c7 45 c8 83
	00		 mov	 WORD PTR __t$543980[ebp+12], 131 ; 00000083H
  00da9	59		 pop	 ecx
$LL2381@EventHandl:
  00daa	81 30 ed ec eb
	ea		 xor	 DWORD PTR [eax], -353637139 ; eaebecedH
  00db0	83 c0 04	 add	 eax, 4
  00db3	49		 dec	 ecx
  00db4	75 f4		 jne	 SHORT $LL2381@EventHandl
  00db6	8b 8d 60 fe ff
	ff		 mov	 ecx, DWORD PTR _pEvent$GSCopy$[ebp]
  00dbc	80 75 c8 ed	 xor	 BYTE PTR __t$543980[ebp+12], -19 ; ffffffedH
  00dc0	83 c1 04	 add	 ecx, 4
  00dc3	8d 75 bc	 lea	 esi, DWORD PTR __t$543980[ebp]
  00dc6	ff 15 00 00 00
	00		 call	 DWORD PTR __imp_?c_str@ioHashString@@QBEPBDXZ
$LL2800@EventHandl:
  00dcc	8a 08		 mov	 cl, BYTE PTR [eax]
  00dce	3a 0e		 cmp	 cl, BYTE PTR [esi]
  00dd0	75 18		 jne	 SHORT $LN2801@EventHandl
  00dd2	3a cb		 cmp	 cl, bl
  00dd4	74 10		 je	 SHORT $LN2802@EventHandl
  00dd6	8a 48 01	 mov	 cl, BYTE PTR [eax+1]
  00dd9	3a 4e 01	 cmp	 cl, BYTE PTR [esi+1]
  00ddc	75 0c		 jne	 SHORT $LN2801@EventHandl
  00dde	03 c7		 add	 eax, edi
  00de0	03 f7		 add	 esi, edi
  00de2	3a cb		 cmp	 cl, bl
  00de4	75 e6		 jne	 SHORT $LL2800@EventHandl
$LN2802@EventHandl:
  00de6	33 c0		 xor	 eax, eax
  00de8	eb 05		 jmp	 SHORT $LN2803@EventHandl
$LN2801@EventHandl:
  00dea	1b c0		 sbb	 eax, eax
  00dec	83 d8 ff	 sbb	 eax, -1
$LN2803@EventHandl:
  00def	3b c3		 cmp	 eax, ebx
  00df1	75 1c		 jne	 SHORT $LN2714@EventHandl

; 144  : 	{
; 145  : 		OnUseGPAction( pEvent, pNotifier );

  00df3	ff b5 58 fe ff
	ff		 push	 DWORD PTR _pNotifier$GSCopy$[ebp]
  00df9	8b 8d 5c fe ff
	ff		 mov	 ecx, DWORD PTR _this$GSCopy$[ebp]
  00dff	ff b5 60 fe ff
	ff		 push	 DWORD PTR _pEvent$GSCopy$[ebp]
  00e05	e8 00 00 00 00	 call	 ?OnUseGPAction@ioClientAniEventHandler@@IAEXPBUAniEventTime@@PBVioAnimation@@@Z ; ioClientAniEventHandler::OnUseGPAction

; 146  : 		return true;

  00e0a	e9 1d 01 00 00	 jmp	 $LN2830@EventHandl
$LN2714@EventHandl:

; 147  : 	}
; 148  : 	else if( pEvent->szEventType == "trinity_show" )

  00e0f	6a 03		 push	 3
  00e11	c7 85 64 fe ff
	ff 99 9e 82 84	 mov	 DWORD PTR __t$544092[ebp], -2071814503 ; 84829e99H
  00e1b	c7 85 68 fe ff
	ff 84 98 92 b5	 mov	 DWORD PTR __t$544092[ebp+4], -1248683900 ; b5929884H
  00e25	c7 85 6c fe ff
	ff 9e 84 84 9d	 mov	 DWORD PTR __t$544092[ebp+8], -1652259682 ; 9d84849eH
  00e2f	8d 85 64 fe ff
	ff		 lea	 eax, DWORD PTR __t$544092[ebp]
  00e35	88 9d 70 fe ff
	ff		 mov	 BYTE PTR __t$544092[ebp+12], bl
  00e3b	59		 pop	 ecx
$LL2487@EventHandl:
  00e3c	81 30 ed ec eb
	ea		 xor	 DWORD PTR [eax], -353637139 ; eaebecedH
  00e42	83 c0 04	 add	 eax, 4
  00e45	49		 dec	 ecx
  00e46	75 f4		 jne	 SHORT $LL2487@EventHandl
  00e48	8b 8d 60 fe ff
	ff		 mov	 ecx, DWORD PTR _pEvent$GSCopy$[ebp]
  00e4e	83 c1 04	 add	 ecx, 4
  00e51	8d b5 64 fe ff
	ff		 lea	 esi, DWORD PTR __t$544092[ebp]
  00e57	ff 15 00 00 00
	00		 call	 DWORD PTR __imp_?c_str@ioHashString@@QBEPBDXZ
$LL2804@EventHandl:
  00e5d	8a 08		 mov	 cl, BYTE PTR [eax]
  00e5f	3a 0e		 cmp	 cl, BYTE PTR [esi]
  00e61	75 18		 jne	 SHORT $LN2805@EventHandl
  00e63	3a cb		 cmp	 cl, bl
  00e65	74 10		 je	 SHORT $LN2806@EventHandl
  00e67	8a 48 01	 mov	 cl, BYTE PTR [eax+1]
  00e6a	3a 4e 01	 cmp	 cl, BYTE PTR [esi+1]
  00e6d	75 0c		 jne	 SHORT $LN2805@EventHandl
  00e6f	03 c7		 add	 eax, edi
  00e71	03 f7		 add	 esi, edi
  00e73	3a cb		 cmp	 cl, bl
  00e75	75 e6		 jne	 SHORT $LL2804@EventHandl
$LN2806@EventHandl:
  00e77	33 c0		 xor	 eax, eax
  00e79	eb 05		 jmp	 SHORT $LN2807@EventHandl
$LN2805@EventHandl:
  00e7b	1b c0		 sbb	 eax, eax
  00e7d	83 d8 ff	 sbb	 eax, -1
$LN2807@EventHandl:
  00e80	3b c3		 cmp	 eax, ebx
  00e82	75 1c		 jne	 SHORT $LN2715@EventHandl

; 149  : 	{
; 150  : 		OnShowTrinityMesh( pEvent, pNotifier );

  00e84	ff b5 58 fe ff
	ff		 push	 DWORD PTR _pNotifier$GSCopy$[ebp]
  00e8a	8b 8d 5c fe ff
	ff		 mov	 ecx, DWORD PTR _this$GSCopy$[ebp]
  00e90	ff b5 60 fe ff
	ff		 push	 DWORD PTR _pEvent$GSCopy$[ebp]
  00e96	e8 00 00 00 00	 call	 ?OnShowTrinityMesh@ioClientAniEventHandler@@IAEXPBUAniEventTime@@PBVioAnimation@@@Z ; ioClientAniEventHandler::OnShowTrinityMesh

; 151  : 		return true;

  00e9b	e9 8c 00 00 00	 jmp	 $LN2830@EventHandl
$LN2715@EventHandl:

; 152  : 	}
; 153  : 	else if( pEvent->szEventType == "trinity_hide")

  00ea0	6a 03		 push	 3
  00ea2	c7 85 b4 fe ff
	ff 99 9e 82 84	 mov	 DWORD PTR __t$544217[ebp], -2071814503 ; 84829e99H
  00eac	c7 85 b8 fe ff
	ff 84 98 92 b5	 mov	 DWORD PTR __t$544217[ebp+4], -1248683900 ; b5929884H
  00eb6	c7 85 bc fe ff
	ff 85 85 8f 8f	 mov	 DWORD PTR __t$544217[ebp+8], -1886419579 ; 8f8f8585H
  00ec0	8d 85 b4 fe ff
	ff		 lea	 eax, DWORD PTR __t$544217[ebp]
  00ec6	88 9d c0 fe ff
	ff		 mov	 BYTE PTR __t$544217[ebp+12], bl
  00ecc	59		 pop	 ecx
$LL2593@EventHandl:
  00ecd	81 30 ed ec eb
	ea		 xor	 DWORD PTR [eax], -353637139 ; eaebecedH
  00ed3	83 c0 04	 add	 eax, 4
  00ed6	49		 dec	 ecx
  00ed7	75 f4		 jne	 SHORT $LL2593@EventHandl
  00ed9	8b 8d 60 fe ff
	ff		 mov	 ecx, DWORD PTR _pEvent$GSCopy$[ebp]
  00edf	83 c1 04	 add	 ecx, 4
  00ee2	8d b5 b4 fe ff
	ff		 lea	 esi, DWORD PTR __t$544217[ebp]
  00ee8	ff 15 00 00 00
	00		 call	 DWORD PTR __imp_?c_str@ioHashString@@QBEPBDXZ
$LL2808@EventHandl:
  00eee	8a 08		 mov	 cl, BYTE PTR [eax]
  00ef0	3a 0e		 cmp	 cl, BYTE PTR [esi]
  00ef2	75 18		 jne	 SHORT $LN2809@EventHandl
  00ef4	3a cb		 cmp	 cl, bl
  00ef6	74 10		 je	 SHORT $LN2810@EventHandl
  00ef8	8a 48 01	 mov	 cl, BYTE PTR [eax+1]
  00efb	3a 4e 01	 cmp	 cl, BYTE PTR [esi+1]
  00efe	75 0c		 jne	 SHORT $LN2809@EventHandl
  00f00	03 c7		 add	 eax, edi
  00f02	03 f7		 add	 esi, edi
  00f04	3a cb		 cmp	 cl, bl
  00f06	75 e6		 jne	 SHORT $LL2808@EventHandl
$LN2810@EventHandl:
  00f08	33 c0		 xor	 eax, eax
  00f0a	eb 05		 jmp	 SHORT $LN2811@EventHandl
$LN2809@EventHandl:
  00f0c	1b c0		 sbb	 eax, eax
  00f0e	83 d8 ff	 sbb	 eax, -1
$LN2811@EventHandl:
  00f11	3b c3		 cmp	 eax, ebx
  00f13	75 1b		 jne	 SHORT $LN1@EventHandl

; 154  : 	{
; 155  : 		OnHideTrinityMesh( pEvent, pNotifier );

  00f15	ff b5 58 fe ff
	ff		 push	 DWORD PTR _pNotifier$GSCopy$[ebp]
  00f1b	8b 8d 5c fe ff
	ff		 mov	 ecx, DWORD PTR _this$GSCopy$[ebp]
  00f21	ff b5 60 fe ff
	ff		 push	 DWORD PTR _pEvent$GSCopy$[ebp]
  00f27	e8 00 00 00 00	 call	 ?OnHideTrinityMesh@ioClientAniEventHandler@@IAEXPBUAniEventTime@@PBVioAnimation@@@Z ; ioClientAniEventHandler::OnHideTrinityMesh
$LN2830@EventHandl:

; 156  : 		return true;

  00f2c	b0 01		 mov	 al, 1
  00f2e	eb 02		 jmp	 SHORT $LN2814@EventHandl
$LN1@EventHandl:

; 157  : 	}
; 158  : 
; 159  : 	return false;

  00f30	32 c0		 xor	 al, al
$LN2814@EventHandl:
  00f32	5e		 pop	 esi
  00f33	5f		 pop	 edi
  00f34	5b		 pop	 ebx
$LN50@EventHandl:

; 160  : }

  00f35	8b 4d fc	 mov	 ecx, DWORD PTR __$ArrayPad$[ebp]
  00f38	33 cd		 xor	 ecx, ebp
  00f3a	e8 00 00 00 00	 call	 @__security_check_cookie@4
  00f3f	c9		 leave
  00f40	c2 08 00	 ret	 8
?EventHandling@ioClientAniEventHandler@@UAE_NPBUAniEventTime@@PBVioAnimation@@@Z ENDP ; ioClientAniEventHandler::EventHandling
_TEXT	ENDS
END
