; Listing generated by Microsoft (R) Optimizing Compiler Version 16.00.30319.01 

	TITLE	D:\Lost Saga For Developer\Youtube\Tutorial\Source\src\LSClient\ioConsecutionItem.cpp
	.686P
	.XMM
	include listing.inc
	.model	flat

INCLUDELIB MSVCRT
INCLUDELIB OLDNAMES

PUBLIC	?return1@@YAIXZ					; return1
; Function compile flags: /Ogsp
; File d:\lost saga for developer\youtube\tutorial\source\src\lsclient\stdafx.h
;	COMDAT ?return1@@YAIXZ
_TEXT	SEGMENT
?return1@@YAIXZ PROC					; return1, COMDAT

; 17   : 	__forceinline unsigned int return1() { __asm mov eax, 1 };

  00000	b8 01 00 00 00	 mov	 eax, 1
  00005	c3		 ret	 0
?return1@@YAIXZ ENDP					; return1
_TEXT	ENDS
PUBLIC	?return100@@YAIXZ				; return100
; Function compile flags: /Ogsp
;	COMDAT ?return100@@YAIXZ
_TEXT	SEGMENT
?return100@@YAIXZ PROC					; return100, COMDAT

; 25   : 	__forceinline unsigned int return100() { __asm mov eax, 100 };

  00000	b8 64 00 00 00	 mov	 eax, 100		; 00000064H
  00005	c3		 ret	 0
?return100@@YAIXZ ENDP					; return100
_TEXT	ENDS
PUBLIC	?GetState@ioBaseChar@@QBE?AW4CharState@@XZ	; ioBaseChar::GetState
; Function compile flags: /Ogsp
; File d:\lost saga for developer\youtube\tutorial\source\src\lsclient\iobasechar.h
;	COMDAT ?GetState@ioBaseChar@@QBE?AW4CharState@@XZ
_TEXT	SEGMENT
?GetState@ioBaseChar@@QBE?AW4CharState@@XZ PROC		; ioBaseChar::GetState, COMDAT
; _this$ = ecx

; 2156 : 	inline CharState GetState() const { return m_CharState; }	

  00000	8a 81 10 03 00
	00		 mov	 al, BYTE PTR [ecx+784]
  00006	c3		 ret	 0
?GetState@ioBaseChar@@QBE?AW4CharState@@XZ ENDP		; ioBaseChar::GetState
_TEXT	ENDS
PUBLIC	?GetTargetRot@ioBaseChar@@QBEABUD3DXQUATERNION@@XZ ; ioBaseChar::GetTargetRot
; Function compile flags: /Ogsp
;	COMDAT ?GetTargetRot@ioBaseChar@@QBEABUD3DXQUATERNION@@XZ
_TEXT	SEGMENT
?GetTargetRot@ioBaseChar@@QBEABUD3DXQUATERNION@@XZ PROC	; ioBaseChar::GetTargetRot, COMDAT
; _this$ = ecx

; 2599 : 	inline const D3DXQUATERNION& GetTargetRot() const { return m_qtTargetRot; }

  00000	8d 81 a4 06 00
	00		 lea	 eax, DWORD PTR [ecx+1700]
  00006	c3		 ret	 0
?GetTargetRot@ioBaseChar@@QBEABUD3DXQUATERNION@@XZ ENDP	; ioBaseChar::GetTargetRot
_TEXT	ENDS
PUBLIC	?IsDirKeyDoubleClick@ioBaseChar@@QBE_NXZ	; ioBaseChar::IsDirKeyDoubleClick
EXTRN	?IsDirDoubleClick@ioUserKeyInput@@QBE_NXZ:PROC	; ioUserKeyInput::IsDirDoubleClick
; Function compile flags: /Ogsp
;	COMDAT ?IsDirKeyDoubleClick@ioBaseChar@@QBE_NXZ
_TEXT	SEGMENT
?IsDirKeyDoubleClick@ioBaseChar@@QBE_NXZ PROC		; ioBaseChar::IsDirKeyDoubleClick, COMDAT
; _this$ = ecx

; 3398 : 	bool IsDirKeyDoubleClick() const { return m_KeyInput.IsDirDoubleClick(); }

  00000	81 c1 80 0c 00
	00		 add	 ecx, 3200		; 00000c80H
  00006	e9 00 00 00 00	 jmp	 ?IsDirDoubleClick@ioUserKeyInput@@QBE_NXZ ; ioUserKeyInput::IsDirDoubleClick
?IsDirKeyDoubleClick@ioBaseChar@@QBE_NXZ ENDP		; ioBaseChar::IsDirKeyDoubleClick
_TEXT	ENDS
PUBLIC	??_7bad_alloc@std@@6B@				; std::bad_alloc::`vftable'
PUBLIC	??0bad_alloc@std@@QAE@PBD@Z			; std::bad_alloc::bad_alloc
PUBLIC	??_R4bad_alloc@std@@6B@				; std::bad_alloc::`RTTI Complete Object Locator'
PUBLIC	??_R0?AVbad_alloc@std@@@8			; std::bad_alloc `RTTI Type Descriptor'
PUBLIC	??_R3bad_alloc@std@@8				; std::bad_alloc::`RTTI Class Hierarchy Descriptor'
PUBLIC	??_R2bad_alloc@std@@8				; std::bad_alloc::`RTTI Base Class Array'
PUBLIC	??_R1A@?0A@EA@bad_alloc@std@@8			; std::bad_alloc::`RTTI Base Class Descriptor at (0,-1,0,64)'
PUBLIC	??_R1A@?0A@EA@exception@std@@8			; std::exception::`RTTI Base Class Descriptor at (0,-1,0,64)'
PUBLIC	??_R0?AVexception@std@@@8			; std::exception `RTTI Type Descriptor'
PUBLIC	??_R3exception@std@@8				; std::exception::`RTTI Class Hierarchy Descriptor'
PUBLIC	??_R2exception@std@@8				; std::exception::`RTTI Base Class Array'
EXTRN	__imp_??0exception@std@@QAE@ABQBD@Z:PROC
EXTRN	??_7type_info@@6B@:QWORD			; type_info::`vftable'
EXTRN	??_Ebad_alloc@std@@UAEPAXI@Z:PROC		; std::bad_alloc::`vector deleting destructor'
EXTRN	?what@exception@std@@UBEPBDXZ:PROC		; std::exception::what
;	COMDAT ??_R2exception@std@@8
; File c:\program files (x86)\microsoft visual studio 10.0\vc\include\exception
rdata$r	SEGMENT
??_R2exception@std@@8 DD FLAT:??_R1A@?0A@EA@exception@std@@8 ; std::exception::`RTTI Base Class Array'
rdata$r	ENDS
;	COMDAT ??_R3exception@std@@8
rdata$r	SEGMENT
??_R3exception@std@@8 DD 00H				; std::exception::`RTTI Class Hierarchy Descriptor'
	DD	00H
	DD	01H
	DD	FLAT:??_R2exception@std@@8
rdata$r	ENDS
;	COMDAT ??_R0?AVexception@std@@@8
_DATA	SEGMENT
??_R0?AVexception@std@@@8 DD FLAT:??_7type_info@@6B@	; std::exception `RTTI Type Descriptor'
	DD	00H
	DB	'.?AVexception@std@@', 00H
_DATA	ENDS
;	COMDAT ??_R1A@?0A@EA@exception@std@@8
rdata$r	SEGMENT
??_R1A@?0A@EA@exception@std@@8 DD FLAT:??_R0?AVexception@std@@@8 ; std::exception::`RTTI Base Class Descriptor at (0,-1,0,64)'
	DD	00H
	DD	00H
	DD	0ffffffffH
	DD	00H
	DD	040H
	DD	FLAT:??_R3exception@std@@8
rdata$r	ENDS
;	COMDAT ??_R1A@?0A@EA@bad_alloc@std@@8
rdata$r	SEGMENT
??_R1A@?0A@EA@bad_alloc@std@@8 DD FLAT:??_R0?AVbad_alloc@std@@@8 ; std::bad_alloc::`RTTI Base Class Descriptor at (0,-1,0,64)'
	DD	01H
	DD	00H
	DD	0ffffffffH
	DD	00H
	DD	040H
	DD	FLAT:??_R3bad_alloc@std@@8
rdata$r	ENDS
;	COMDAT ??_R2bad_alloc@std@@8
rdata$r	SEGMENT
??_R2bad_alloc@std@@8 DD FLAT:??_R1A@?0A@EA@bad_alloc@std@@8 ; std::bad_alloc::`RTTI Base Class Array'
	DD	FLAT:??_R1A@?0A@EA@exception@std@@8
rdata$r	ENDS
;	COMDAT ??_R3bad_alloc@std@@8
rdata$r	SEGMENT
??_R3bad_alloc@std@@8 DD 00H				; std::bad_alloc::`RTTI Class Hierarchy Descriptor'
	DD	00H
	DD	02H
	DD	FLAT:??_R2bad_alloc@std@@8
rdata$r	ENDS
;	COMDAT ??_R0?AVbad_alloc@std@@@8
_DATA	SEGMENT
??_R0?AVbad_alloc@std@@@8 DD FLAT:??_7type_info@@6B@	; std::bad_alloc `RTTI Type Descriptor'
	DD	00H
	DB	'.?AVbad_alloc@std@@', 00H
_DATA	ENDS
;	COMDAT ??_R4bad_alloc@std@@6B@
rdata$r	SEGMENT
??_R4bad_alloc@std@@6B@ DD 00H				; std::bad_alloc::`RTTI Complete Object Locator'
	DD	00H
	DD	00H
	DD	FLAT:??_R0?AVbad_alloc@std@@@8
	DD	FLAT:??_R3bad_alloc@std@@8
rdata$r	ENDS
;	COMDAT ??_7bad_alloc@std@@6B@
CONST	SEGMENT
??_7bad_alloc@std@@6B@ DD FLAT:??_R4bad_alloc@std@@6B@	; std::bad_alloc::`vftable'
	DD	FLAT:??_Ebad_alloc@std@@UAEPAXI@Z
	DD	FLAT:?what@exception@std@@UBEPBDXZ
; Function compile flags: /Ogsp
CONST	ENDS
;	COMDAT ??0bad_alloc@std@@QAE@PBD@Z
_TEXT	SEGMENT
__Message$ = 8						; size = 4
??0bad_alloc@std@@QAE@PBD@Z PROC			; std::bad_alloc::bad_alloc, COMDAT
; _this$ = ecx

; 345  : 		{	// construct from message string

  00000	55		 push	 ebp
  00001	8b ec		 mov	 ebp, esp
  00003	56		 push	 esi
  00004	8d 45 08	 lea	 eax, DWORD PTR __Message$[ebp]
  00007	50		 push	 eax
  00008	8b f1		 mov	 esi, ecx
  0000a	ff 15 00 00 00
	00		 call	 DWORD PTR __imp_??0exception@std@@QAE@ABQBD@Z
  00010	c7 06 00 00 00
	00		 mov	 DWORD PTR [esi], OFFSET ??_7bad_alloc@std@@6B@

; 346  : 		}

  00016	8b c6		 mov	 eax, esi
  00018	5e		 pop	 esi
  00019	5d		 pop	 ebp
  0001a	c2 04 00	 ret	 4
??0bad_alloc@std@@QAE@PBD@Z ENDP			; std::bad_alloc::bad_alloc
_TEXT	ENDS
PUBLIC	??1bad_alloc@std@@UAE@XZ			; std::bad_alloc::~bad_alloc
EXTRN	__imp_??1exception@std@@UAE@XZ:PROC
; Function compile flags: /Ogsp
;	COMDAT ??1bad_alloc@std@@UAE@XZ
_TEXT	SEGMENT
??1bad_alloc@std@@UAE@XZ PROC				; std::bad_alloc::~bad_alloc, COMDAT
; _this$ = ecx

; 354  : 		{	// destroy the object

  00000	c7 01 00 00 00
	00		 mov	 DWORD PTR [ecx], OFFSET ??_7bad_alloc@std@@6B@

; 355  : 		}

  00006	ff 25 00 00 00
	00		 jmp	 DWORD PTR __imp_??1exception@std@@UAE@XZ
??1bad_alloc@std@@UAE@XZ ENDP				; std::bad_alloc::~bad_alloc
_TEXT	ENDS
EXTRN	??3@YAXPAX@Z:PROC				; operator delete
; Function compile flags: /Ogsp
;	COMDAT ??_Gbad_alloc@std@@UAEPAXI@Z
_TEXT	SEGMENT
___flags$ = 8						; size = 4
??_Gbad_alloc@std@@UAEPAXI@Z PROC			; std::bad_alloc::`scalar deleting destructor', COMDAT
; _this$ = ecx
  00000	55		 push	 ebp
  00001	8b ec		 mov	 ebp, esp
  00003	56		 push	 esi
  00004	8b f1		 mov	 esi, ecx
  00006	c7 06 00 00 00
	00		 mov	 DWORD PTR [esi], OFFSET ??_7bad_alloc@std@@6B@
  0000c	ff 15 00 00 00
	00		 call	 DWORD PTR __imp_??1exception@std@@UAE@XZ
  00012	f6 45 08 01	 test	 BYTE PTR ___flags$[ebp], 1
  00016	74 07		 je	 SHORT $LN1@scalar
  00018	56		 push	 esi
  00019	e8 00 00 00 00	 call	 ??3@YAXPAX@Z		; operator delete
  0001e	59		 pop	 ecx
$LN1@scalar:
  0001f	8b c6		 mov	 eax, esi
  00021	5e		 pop	 esi
  00022	5d		 pop	 ebp
  00023	c2 04 00	 ret	 4
??_Gbad_alloc@std@@UAEPAXI@Z ENDP			; std::bad_alloc::`scalar deleting destructor'
_TEXT	ENDS
PUBLIC	??2@YAPAXIPAX@Z					; operator new
; Function compile flags: /Ogsp
; File c:\program files (x86)\microsoft visual studio 10.0\vc\include\new
;	COMDAT ??2@YAPAXIPAX@Z
_TEXT	SEGMENT
___formal$ = 8						; size = 4
__Where$ = 12						; size = 4
??2@YAPAXIPAX@Z PROC					; operator new, COMDAT

; 56   : 	{	// construct array with placement at _Where

  00000	55		 push	 ebp
  00001	8b ec		 mov	 ebp, esp

; 57   : 	return (_Where);

  00003	8b 45 0c	 mov	 eax, DWORD PTR __Where$[ebp]

; 58   : 	}

  00006	5d		 pop	 ebp
  00007	c3		 ret	 0
??2@YAPAXIPAX@Z ENDP					; operator new
_TEXT	ENDS
PUBLIC	??3@YAXPAX0@Z					; operator delete
; Function compile flags: /Ogsp
;	COMDAT ??3@YAXPAX0@Z
_TEXT	SEGMENT
___formal$ = 8						; size = 4
___formal$ = 12						; size = 4
??3@YAXPAX0@Z PROC					; operator delete, COMDAT

; 62   : 	}

  00000	c3		 ret	 0
??3@YAXPAX0@Z ENDP					; operator delete
_TEXT	ENDS
PUBLIC	??_R0?AVioWeapon@@@8				; ioWeapon `RTTI Type Descriptor'
PUBLIC	??_R0?AVioZoneEffectWeapon@@@8			; ioZoneEffectWeapon `RTTI Type Descriptor'
PUBLIC	?ToZoneEffectWeapon@@YAPAVioZoneEffectWeapon@@PAVioWeapon@@@Z ; ToZoneEffectWeapon
EXTRN	___RTDynamicCast:PROC
;	COMDAT ??_R0?AVioWeapon@@@8
; File d:\lost saga for developer\youtube\tutorial\source\src\lsclient\iozoneeffectweapon.h
_DATA	SEGMENT
??_R0?AVioWeapon@@@8 DD FLAT:??_7type_info@@6B@		; ioWeapon `RTTI Type Descriptor'
	DD	00H
	DB	'.?AVioWeapon@@', 00H
_DATA	ENDS
;	COMDAT ??_R0?AVioZoneEffectWeapon@@@8
_DATA	SEGMENT
??_R0?AVioZoneEffectWeapon@@@8 DD FLAT:??_7type_info@@6B@ ; ioZoneEffectWeapon `RTTI Type Descriptor'
	DD	00H
	DB	'.?AVioZoneEffectWeapon@@', 00H
; Function compile flags: /Ogsp
_DATA	ENDS
;	COMDAT ?ToZoneEffectWeapon@@YAPAVioZoneEffectWeapon@@PAVioWeapon@@@Z
_TEXT	SEGMENT
_pWeapon$ = 8						; size = 4
?ToZoneEffectWeapon@@YAPAVioZoneEffectWeapon@@PAVioWeapon@@@Z PROC ; ToZoneEffectWeapon, COMDAT

; 217  : {

  00000	55		 push	 ebp
  00001	8b ec		 mov	 ebp, esp
  00003	56		 push	 esi

; 218  : 	if( !pWeapon || pWeapon->GetType() != ioWeapon::WT_ZONE_EFFECT )

  00004	8b 75 08	 mov	 esi, DWORD PTR _pWeapon$[ebp]
  00007	85 f6		 test	 esi, esi
  00009	74 28		 je	 SHORT $LN1@ToZoneEffe
  0000b	8b 06		 mov	 eax, DWORD PTR [esi]
  0000d	8b ce		 mov	 ecx, esi
  0000f	ff 90 10 01 00
	00		 call	 DWORD PTR [eax+272]
  00015	83 f8 08	 cmp	 eax, 8
  00018	75 19		 jne	 SHORT $LN1@ToZoneEffe

; 220  : 
; 221  : 	return dynamic_cast< ioZoneEffectWeapon* >( pWeapon );

  0001a	6a 00		 push	 0
  0001c	68 00 00 00 00	 push	 OFFSET ??_R0?AVioZoneEffectWeapon@@@8
  00021	68 00 00 00 00	 push	 OFFSET ??_R0?AVioWeapon@@@8
  00026	6a 00		 push	 0
  00028	56		 push	 esi
  00029	e8 00 00 00 00	 call	 ___RTDynamicCast
  0002e	83 c4 14	 add	 esp, 20			; 00000014H
  00031	eb 02		 jmp	 SHORT $LN3@ToZoneEffe
$LN1@ToZoneEffe:

; 219  : 		return NULL;

  00033	33 c0		 xor	 eax, eax
$LN3@ToZoneEffe:
  00035	5e		 pop	 esi

; 222  : }

  00036	5d		 pop	 ebp
  00037	c3		 ret	 0
?ToZoneEffectWeapon@@YAPAVioZoneEffectWeapon@@PAVioWeapon@@@Z ENDP ; ToZoneEffectWeapon
_TEXT	ENDS
PUBLIC	?_Adopt@_Iterator_base0@std@@QAEXPBX@Z		; std::_Iterator_base0::_Adopt
; Function compile flags: /Ogsp
; File c:\program files (x86)\microsoft visual studio 10.0\vc\include\xutility
;	COMDAT ?_Adopt@_Iterator_base0@std@@QAEXPBX@Z
_TEXT	SEGMENT
___formal$ = 8						; size = 4
?_Adopt@_Iterator_base0@std@@QAEXPBX@Z PROC		; std::_Iterator_base0::_Adopt, COMDAT
; _this$ = ecx

; 49   : 		}

  00000	c2 04 00	 ret	 4
?_Adopt@_Iterator_base0@std@@QAEXPBX@Z ENDP		; std::_Iterator_base0::_Adopt
_TEXT	ENDS
PUBLIC	??0D3DXQUATERNION@@QAE@XZ			; D3DXQUATERNION::D3DXQUATERNION
; Function compile flags: /Ogsp
; File c:\program files (x86)\microsoft directx sdk (june 2010)\include\d3dx9math.h
;	COMDAT ??0D3DXQUATERNION@@QAE@XZ
_TEXT	SEGMENT
??0D3DXQUATERNION@@QAE@XZ PROC				; D3DXQUATERNION::D3DXQUATERNION, COMDAT
; _this$ = ecx

; 429  :     D3DXQUATERNION() {}

  00000	8b c1		 mov	 eax, ecx
  00002	c3		 ret	 0
??0D3DXQUATERNION@@QAE@XZ ENDP				; D3DXQUATERNION::D3DXQUATERNION
_TEXT	ENDS
PUBLIC	??0D3DXVECTOR3@@QAE@MMM@Z			; D3DXVECTOR3::D3DXVECTOR3
EXTRN	__fltused:DWORD
; Function compile flags: /Ogsp
; File c:\program files (x86)\microsoft directx sdk (june 2010)\include\d3dx9math.inl
;	COMDAT ??0D3DXVECTOR3@@QAE@MMM@Z
_TEXT	SEGMENT
_fx$ = 8						; size = 4
_fy$ = 12						; size = 4
_fz$ = 16						; size = 4
??0D3DXVECTOR3@@QAE@MMM@Z PROC				; D3DXVECTOR3::D3DXVECTOR3, COMDAT
; _this$ = ecx

; 303  : {

  00000	55		 push	 ebp
  00001	8b ec		 mov	 ebp, esp

; 304  :     x = fx;

  00003	f3 0f 10 45 08	 movss	 xmm0, DWORD PTR _fx$[ebp]
  00008	8b c1		 mov	 eax, ecx
  0000a	f3 0f 11 00	 movss	 DWORD PTR [eax], xmm0

; 305  :     y = fy;

  0000e	f3 0f 10 45 0c	 movss	 xmm0, DWORD PTR _fy$[ebp]
  00013	f3 0f 11 40 04	 movss	 DWORD PTR [eax+4], xmm0

; 306  :     z = fz;

  00018	f3 0f 10 45 10	 movss	 xmm0, DWORD PTR _fz$[ebp]
  0001d	f3 0f 11 40 08	 movss	 DWORD PTR [eax+8], xmm0

; 307  : }

  00022	5d		 pop	 ebp
  00023	c2 0c 00	 ret	 12			; 0000000cH
??0D3DXVECTOR3@@QAE@MMM@Z ENDP				; D3DXVECTOR3::D3DXVECTOR3
_TEXT	ENDS
PUBLIC	?GetFlightTime@ioChargeComboJump2@@QBEKXZ	; ioChargeComboJump2::GetFlightTime
; Function compile flags: /Ogsp
; File d:\lost saga for developer\youtube\tutorial\source\src\lsclient\iochargecombojump2.h
;	COMDAT ?GetFlightTime@ioChargeComboJump2@@QBEKXZ
_TEXT	SEGMENT
?GetFlightTime@ioChargeComboJump2@@QBEKXZ PROC		; ioChargeComboJump2::GetFlightTime, COMDAT
; _this$ = ecx

; 417  : 	inline DWORD GetFlightTime() const { return m_dwFlightTime; }

  00000	8b 81 d4 04 00
	00		 mov	 eax, DWORD PTR [ecx+1236]
  00006	c3		 ret	 0
?GetFlightTime@ioChargeComboJump2@@QBEKXZ ENDP		; ioChargeComboJump2::GetFlightTime
_TEXT	ENDS
PUBLIC	??_R0?AVioExtendJump@@@8			; ioExtendJump `RTTI Type Descriptor'
PUBLIC	??_R0?AVioChargeComboJump2@@@8			; ioChargeComboJump2 `RTTI Type Descriptor'
PUBLIC	?ToChargeComboJump2@@YAPAVioChargeComboJump2@@PAVioExtendJump@@@Z ; ToChargeComboJump2
;	COMDAT ??_R0?AVioExtendJump@@@8
_DATA	SEGMENT
??_R0?AVioExtendJump@@@8 DD FLAT:??_7type_info@@6B@	; ioExtendJump `RTTI Type Descriptor'
	DD	00H
	DB	'.?AVioExtendJump@@', 00H
_DATA	ENDS
;	COMDAT ??_R0?AVioChargeComboJump2@@@8
_DATA	SEGMENT
??_R0?AVioChargeComboJump2@@@8 DD FLAT:??_7type_info@@6B@ ; ioChargeComboJump2 `RTTI Type Descriptor'
	DD	00H
	DB	'.?AVioChargeComboJump2@@', 00H
; Function compile flags: /Ogsp
_DATA	ENDS
;	COMDAT ?ToChargeComboJump2@@YAPAVioChargeComboJump2@@PAVioExtendJump@@@Z
_TEXT	SEGMENT
_pJump$ = 8						; size = 4
?ToChargeComboJump2@@YAPAVioChargeComboJump2@@PAVioExtendJump@@@Z PROC ; ToChargeComboJump2, COMDAT

; 686  : {

  00000	55		 push	 ebp
  00001	8b ec		 mov	 ebp, esp
  00003	56		 push	 esi

; 687  : 	if( !pJump || pJump->GetType() != JT_CHARGE_COMBO2 )

  00004	8b 75 08	 mov	 esi, DWORD PTR _pJump$[ebp]
  00007	85 f6		 test	 esi, esi
  00009	74 25		 je	 SHORT $LN1@ToChargeCo
  0000b	8b 06		 mov	 eax, DWORD PTR [esi]
  0000d	8b ce		 mov	 ecx, esi
  0000f	ff 50 08	 call	 DWORD PTR [eax+8]
  00012	83 f8 12	 cmp	 eax, 18			; 00000012H
  00015	75 19		 jne	 SHORT $LN1@ToChargeCo

; 689  : 
; 690  : 	return dynamic_cast< ioChargeComboJump2* >( pJump );

  00017	6a 00		 push	 0
  00019	68 00 00 00 00	 push	 OFFSET ??_R0?AVioChargeComboJump2@@@8
  0001e	68 00 00 00 00	 push	 OFFSET ??_R0?AVioExtendJump@@@8
  00023	6a 00		 push	 0
  00025	56		 push	 esi
  00026	e8 00 00 00 00	 call	 ___RTDynamicCast
  0002b	83 c4 14	 add	 esp, 20			; 00000014H
  0002e	eb 02		 jmp	 SHORT $LN3@ToChargeCo
$LN1@ToChargeCo:

; 688  : 		return NULL;

  00030	33 c0		 xor	 eax, eax
$LN3@ToChargeCo:
  00032	5e		 pop	 esi

; 691  : }

  00033	5d		 pop	 ebp
  00034	c3		 ret	 0
?ToChargeComboJump2@@YAPAVioChargeComboJump2@@PAVioExtendJump@@@Z ENDP ; ToChargeComboJump2
_TEXT	ENDS
PUBLIC	?GetFlightTime@ioChargeComboDefenseJump@@QBEKXZ	; ioChargeComboDefenseJump::GetFlightTime
; Function compile flags: /Ogsp
; File d:\lost saga for developer\youtube\tutorial\source\src\lsclient\iochargecombodefensejump.h
;	COMDAT ?GetFlightTime@ioChargeComboDefenseJump@@QBEKXZ
_TEXT	SEGMENT
?GetFlightTime@ioChargeComboDefenseJump@@QBEKXZ PROC	; ioChargeComboDefenseJump::GetFlightTime, COMDAT
; _this$ = ecx

; 196  : 	inline DWORD GetFlightTime() const { return m_dwFlightTime; }

  00000	8b 81 98 04 00
	00		 mov	 eax, DWORD PTR [ecx+1176]
  00006	c3		 ret	 0
?GetFlightTime@ioChargeComboDefenseJump@@QBEKXZ ENDP	; ioChargeComboDefenseJump::GetFlightTime
_TEXT	ENDS
PUBLIC	??_R0?AVioChargeComboDefenseJump@@@8		; ioChargeComboDefenseJump `RTTI Type Descriptor'
PUBLIC	?ToChargeComboDefenseJump@@YAPAVioChargeComboDefenseJump@@PAVioExtendJump@@@Z ; ToChargeComboDefenseJump
;	COMDAT ??_R0?AVioChargeComboDefenseJump@@@8
_DATA	SEGMENT
??_R0?AVioChargeComboDefenseJump@@@8 DD FLAT:??_7type_info@@6B@ ; ioChargeComboDefenseJump `RTTI Type Descriptor'
	DD	00H
	DB	'.?AVioChargeComboDefenseJump@@', 00H
; Function compile flags: /Ogsp
_DATA	ENDS
;	COMDAT ?ToChargeComboDefenseJump@@YAPAVioChargeComboDefenseJump@@PAVioExtendJump@@@Z
_TEXT	SEGMENT
_pJump$ = 8						; size = 4
?ToChargeComboDefenseJump@@YAPAVioChargeComboDefenseJump@@PAVioExtendJump@@@Z PROC ; ToChargeComboDefenseJump, COMDAT

; 259  : {

  00000	55		 push	 ebp
  00001	8b ec		 mov	 ebp, esp
  00003	56		 push	 esi

; 260  : 	if( !pJump || pJump->GetType() != JT_CHARGE_COMBO_DEFENSE )

  00004	8b 75 08	 mov	 esi, DWORD PTR _pJump$[ebp]
  00007	85 f6		 test	 esi, esi
  00009	74 25		 je	 SHORT $LN1@ToChargeCo@2
  0000b	8b 06		 mov	 eax, DWORD PTR [esi]
  0000d	8b ce		 mov	 ecx, esi
  0000f	ff 50 08	 call	 DWORD PTR [eax+8]
  00012	83 f8 1f	 cmp	 eax, 31			; 0000001fH
  00015	75 19		 jne	 SHORT $LN1@ToChargeCo@2

; 262  : 
; 263  : 	return dynamic_cast< ioChargeComboDefenseJump* >( pJump );

  00017	6a 00		 push	 0
  00019	68 00 00 00 00	 push	 OFFSET ??_R0?AVioChargeComboDefenseJump@@@8
  0001e	68 00 00 00 00	 push	 OFFSET ??_R0?AVioExtendJump@@@8
  00023	6a 00		 push	 0
  00025	56		 push	 esi
  00026	e8 00 00 00 00	 call	 ___RTDynamicCast
  0002b	83 c4 14	 add	 esp, 20			; 00000014H
  0002e	eb 02		 jmp	 SHORT $LN3@ToChargeCo@2
$LN1@ToChargeCo@2:

; 261  : 		return NULL;

  00030	33 c0		 xor	 eax, eax
$LN3@ToChargeCo@2:
  00032	5e		 pop	 esi

; 264  : }

  00033	5d		 pop	 ebp
  00034	c3		 ret	 0
?ToChargeComboDefenseJump@@YAPAVioChargeComboDefenseJump@@PAVioExtendJump@@@Z ENDP ; ToChargeComboDefenseJump
_TEXT	ENDS
PUBLIC	?GetSubType@ioConsecutionItem@@UBE?AW4WeaponSubType@ioWeaponItem@@XZ ; ioConsecutionItem::GetSubType
; Function compile flags: /Ogsp
; File d:\lost saga for developer\youtube\tutorial\source\src\lsclient\ioconsecutionitem.cpp
;	COMDAT ?GetSubType@ioConsecutionItem@@UBE?AW4WeaponSubType@ioWeaponItem@@XZ
_TEXT	SEGMENT
?GetSubType@ioConsecutionItem@@UBE?AW4WeaponSubType@ioWeaponItem@@XZ PROC ; ioConsecutionItem::GetSubType, COMDAT
; _this$ = ecx

; 92   : 	return WST_CONSECUTION;

  00000	6a 28		 push	 40			; 00000028H
  00002	58		 pop	 eax

; 93   : }

  00003	c3		 ret	 0
?GetSubType@ioConsecutionItem@@UBE?AW4WeaponSubType@ioWeaponItem@@XZ ENDP ; ioConsecutionItem::GetSubType
_TEXT	ENDS
PUBLIC	?IsChargeAttackState@ioConsecutionItem@@UAE_NPAVioBaseChar@@@Z ; ioConsecutionItem::IsChargeAttackState
; Function compile flags: /Ogsp
;	COMDAT ?IsChargeAttackState@ioConsecutionItem@@UAE_NPAVioBaseChar@@@Z
_TEXT	SEGMENT
_pOwner$ = 8						; size = 4
?IsChargeAttackState@ioConsecutionItem@@UAE_NPAVioBaseChar@@@Z PROC ; ioConsecutionItem::IsChargeAttackState, COMDAT
; _this$ = ecx

; 408  : {

  00000	55		 push	 ebp
  00001	8b ec		 mov	 ebp, esp

; 409  : 	if( pOwner->GetState() == CS_ATTACK )

  00003	8b 45 08	 mov	 eax, DWORD PTR _pOwner$[ebp]
  00006	80 b8 10 03 00
	00 05		 cmp	 BYTE PTR [eax+784], 5
  0000d	75 0b		 jne	 SHORT $LN1@IsChargeAt

; 410  : 	{
; 411  : 		if( m_ChargeState == CS_CHARGING )

  0000f	33 c0		 xor	 eax, eax
  00011	40		 inc	 eax
  00012	39 81 c4 19 00
	00		 cmp	 DWORD PTR [ecx+6596], eax

; 412  : 			return true;

  00018	74 02		 je	 SHORT $LN3@IsChargeAt
$LN1@IsChargeAt:

; 413  : 	}
; 414  : 
; 415  : 	return false;

  0001a	32 c0		 xor	 al, al
$LN3@IsChargeAt:

; 416  : }

  0001c	5d		 pop	 ebp
  0001d	c2 04 00	 ret	 4
?IsChargeAttackState@ioConsecutionItem@@UAE_NPAVioBaseChar@@@Z ENDP ; ioConsecutionItem::IsChargeAttackState
_TEXT	ENDS
PUBLIC	?CheckReserve@ioConsecutionItem@@MAEXPAVioBaseChar@@@Z ; ioConsecutionItem::CheckReserve
EXTRN	?IsJumpKey@ioBaseChar@@QBE_NXZ:PROC		; ioBaseChar::IsJumpKey
EXTRN	?IsAttackKey@ioBaseChar@@QBE_NXZ:PROC		; ioBaseChar::IsAttackKey
EXTRN	?IsDefenseKeyDown@ioBaseChar@@QBE_NXZ:PROC	; ioBaseChar::IsDefenseKeyDown
EXTRN	?GetSkillKeyInput@ioBaseChar@@QAEHXZ:PROC	; ioBaseChar::GetSkillKeyInput
; Function compile flags: /Ogsp
;	COMDAT ?CheckReserve@ioConsecutionItem@@MAEXPAVioBaseChar@@@Z
_TEXT	SEGMENT
_bReserveSkill$ = -1					; size = 1
_pOwner$ = 8						; size = 4
?CheckReserve@ioConsecutionItem@@MAEXPAVioBaseChar@@@Z PROC ; ioConsecutionItem::CheckReserve, COMDAT
; _this$ = ecx

; 439  : {

  00000	55		 push	 ebp
  00001	8b ec		 mov	 ebp, esp
  00003	51		 push	 ecx
  00004	53		 push	 ebx
  00005	56		 push	 esi
  00006	57		 push	 edi

; 440  : 	bool bReserveSkill = false;
; 441  : 	int iSkillNum = pOwner->GetSkillKeyInput();

  00007	8b 7d 08	 mov	 edi, DWORD PTR _pOwner$[ebp]
  0000a	8b f1		 mov	 esi, ecx
  0000c	33 db		 xor	 ebx, ebx
  0000e	8b cf		 mov	 ecx, edi
  00010	88 5d ff	 mov	 BYTE PTR _bReserveSkill$[ebp], bl
  00013	e8 00 00 00 00	 call	 ?GetSkillKeyInput@ioBaseChar@@QAEHXZ ; ioBaseChar::GetSkillKeyInput

; 442  : 	if( iSkillNum >= 0 )

  00018	3b c3		 cmp	 eax, ebx
  0001a	7c 0a		 jl	 SHORT $LN6@CheckReser

; 443  : 	{
; 444  : 		m_iSkillInput = iSkillNum;

  0001c	89 86 fc 0e 00
	00		 mov	 DWORD PTR [esi+3836], eax

; 445  : 		bReserveSkill = true;

  00022	c6 45 ff 01	 mov	 BYTE PTR _bReserveSkill$[ebp], 1
$LN6@CheckReser:

; 446  : 	}
; 447  : 
; 448  : 	if( pOwner->IsDefenseKeyDown() && !m_bEnableDefenseState && !bReserveSkill )

  00026	8b cf		 mov	 ecx, edi
  00028	e8 00 00 00 00	 call	 ?IsDefenseKeyDown@ioBaseChar@@QBE_NXZ ; ioBaseChar::IsDefenseKeyDown
  0002d	84 c0		 test	 al, al
  0002f	74 1e		 je	 SHORT $LN5@CheckReser
  00031	38 9e 00 0f 00
	00		 cmp	 BYTE PTR [esi+3840], bl
  00037	75 16		 jne	 SHORT $LN5@CheckReser
  00039	38 5d ff	 cmp	 BYTE PTR _bReserveSkill$[ebp], bl
  0003c	75 11		 jne	 SHORT $LN5@CheckReser

; 449  : 	{
; 450  : 		m_bEnableDefenseState = true;

  0003e	66 c7 86 00 0f
	00 00 01 00	 mov	 WORD PTR [esi+3840], 1
$LN10@CheckReser:

; 451  : 		m_bEnableAttackState = false;
; 452  : 		m_bEnableJumpState = false;

  00047	88 9e 02 0f 00
	00		 mov	 BYTE PTR [esi+3842], bl

; 453  : 
; 454  : 		m_iSkillInput = -1;

  0004d	eb 4a		 jmp	 SHORT $LN9@CheckReser
$LN5@CheckReser:

; 455  : 	}
; 456  : 	else if( pOwner->IsAttackKey() && !m_bEnableAttackState && !bReserveSkill )

  0004f	8b cf		 mov	 ecx, edi
  00051	e8 00 00 00 00	 call	 ?IsAttackKey@ioBaseChar@@QBE_NXZ ; ioBaseChar::IsAttackKey
  00056	84 c0		 test	 al, al
  00058	74 18		 je	 SHORT $LN3@CheckReser
  0005a	38 9e 01 0f 00
	00		 cmp	 BYTE PTR [esi+3841], bl
  00060	75 10		 jne	 SHORT $LN3@CheckReser
  00062	38 5d ff	 cmp	 BYTE PTR _bReserveSkill$[ebp], bl
  00065	75 0b		 jne	 SHORT $LN3@CheckReser

; 457  : 	{
; 458  : 		m_bEnableAttackState = true;

  00067	66 c7 86 00 0f
	00 00 00 01	 mov	 WORD PTR [esi+3840], 256 ; 00000100H

; 459  : 		m_bEnableDefenseState = false;
; 460  : 		m_bEnableJumpState = false;
; 461  : 
; 462  : 		m_iSkillInput = -1;

  00070	eb d5		 jmp	 SHORT $LN10@CheckReser
$LN3@CheckReser:

; 463  : 	}
; 464  : 	else if( pOwner->IsJumpKey() && !m_bEnableJumpState && !bReserveSkill )

  00072	8b cf		 mov	 ecx, edi
  00074	e8 00 00 00 00	 call	 ?IsJumpKey@ioBaseChar@@QBE_NXZ ; ioBaseChar::IsJumpKey
  00079	84 c0		 test	 al, al
  0007b	74 23		 je	 SHORT $LN1@CheckReser
  0007d	38 9e 02 0f 00
	00		 cmp	 BYTE PTR [esi+3842], bl
  00083	75 1b		 jne	 SHORT $LN1@CheckReser
  00085	38 5d ff	 cmp	 BYTE PTR _bReserveSkill$[ebp], bl
  00088	75 16		 jne	 SHORT $LN1@CheckReser

; 465  : 	{
; 466  : 		m_bEnableJumpState = true;

  0008a	66 c7 86 01 0f
	00 00 00 01	 mov	 WORD PTR [esi+3841], 256 ; 00000100H

; 467  : 		m_bEnableAttackState = false;
; 468  : 		m_bEnableDefenseState = false;

  00093	88 9e 00 0f 00
	00		 mov	 BYTE PTR [esi+3840], bl
$LN9@CheckReser:

; 469  : 		m_iSkillInput = -1;

  00099	83 8e fc 0e 00
	00 ff		 or	 DWORD PTR [esi+3836], -1
$LN1@CheckReser:
  000a0	5f		 pop	 edi
  000a1	5e		 pop	 esi
  000a2	5b		 pop	 ebx

; 470  : 	}
; 471  : }

  000a3	c9		 leave
  000a4	c2 04 00	 ret	 4
?CheckReserve@ioConsecutionItem@@MAEXPAVioBaseChar@@@Z ENDP ; ioConsecutionItem::CheckReserve
_TEXT	ENDS
PUBLIC	?ProcessJumpAttack@ioConsecutionItem@@UAEXPAVioBaseChar@@M@Z ; ioConsecutionItem::ProcessJumpAttack
; Function compile flags: /Ogsp
;	COMDAT ?ProcessJumpAttack@ioConsecutionItem@@UAEXPAVioBaseChar@@M@Z
_TEXT	SEGMENT
_pOwner$ = 8						; size = 4
_fHeightGap$ = 12					; size = 4
?ProcessJumpAttack@ioConsecutionItem@@UAEXPAVioBaseChar@@M@Z PROC ; ioConsecutionItem::ProcessJumpAttack, COMDAT
; _this$ = ecx

; 564  : {

  00000	55		 push	 ebp
  00001	8b ec		 mov	 ebp, esp
  00003	56		 push	 esi
  00004	8b f1		 mov	 esi, ecx

; 565  : 	if( m_pExtendJump )

  00006	83 be c8 0b 00
	00 00		 cmp	 DWORD PTR [esi+3016], 0
  0000d	74 1b		 je	 SHORT $LN1@ProcessJum

; 566  : 	{
; 567  : 		m_pExtendJump->ProcessJumpAttack( pOwner, fHeightGap );

  0000f	8b 86 c8 0b 00
	00		 mov	 eax, DWORD PTR [esi+3016]
  00015	f3 0f 10 45 0c	 movss	 xmm0, DWORD PTR _fHeightGap$[ebp]
  0001a	8b 10		 mov	 edx, DWORD PTR [eax]
  0001c	51		 push	 ecx
  0001d	f3 0f 11 04 24	 movss	 DWORD PTR [esp], xmm0
  00022	ff 75 08	 push	 DWORD PTR _pOwner$[ebp]
  00025	8b c8		 mov	 ecx, eax
  00027	ff 52 24	 call	 DWORD PTR [edx+36]
$LN1@ProcessJum:

; 568  : 	}
; 569  : 
; 570  : 	CheckAirJump( pOwner );

  0002a	ff 75 08	 push	 DWORD PTR _pOwner$[ebp]
  0002d	8b 06		 mov	 eax, DWORD PTR [esi]
  0002f	8b ce		 mov	 ecx, esi
  00031	ff 90 b0 02 00
	00		 call	 DWORD PTR [eax+688]
  00037	5e		 pop	 esi

; 571  : }

  00038	5d		 pop	 ebp
  00039	c2 08 00	 ret	 8
?ProcessJumpAttack@ioConsecutionItem@@UAEXPAVioBaseChar@@M@Z ENDP ; ioConsecutionItem::ProcessJumpAttack
_TEXT	ENDS
PUBLIC	??A?$vector@VioHashString@@V?$allocator@VioHashString@@@std@@@std@@QAEAAVioHashString@@I@Z ; std::vector<ioHashString,std::allocator<ioHashString> >::operator[]
; Function compile flags: /Ogsp
; File c:\program files (x86)\microsoft visual studio 10.0\vc\include\vector
;	COMDAT ??A?$vector@VioHashString@@V?$allocator@VioHashString@@@std@@@std@@QAEAAVioHashString@@I@Z
_TEXT	SEGMENT
__Pos$ = 8						; size = 4
??A?$vector@VioHashString@@V?$allocator@VioHashString@@@std@@@std@@QAEAAVioHashString@@I@Z PROC ; std::vector<ioHashString,std::allocator<ioHashString> >::operator[], COMDAT
; _this$ = ecx

; 928  : 		{	// subscript mutable sequence

  00000	55		 push	 ebp
  00001	8b ec		 mov	 ebp, esp

; 929  :  #if _ITERATOR_DEBUG_LEVEL == 2
; 930  : 		if (size() <= _Pos)
; 931  : 			{	// report error
; 932  : 			_DEBUG_ERROR("vector subscript out of range");
; 933  : 			_SCL_SECURE_OUT_OF_RANGE;
; 934  : 			}
; 935  : 
; 936  :  #elif _ITERATOR_DEBUG_LEVEL == 1
; 937  : 		_SCL_SECURE_VALIDATE_RANGE(_Pos < size());
; 938  :  #endif /* _ITERATOR_DEBUG_LEVEL */
; 939  : 
; 940  : 		return (*(this->_Myfirst + _Pos));

  00003	8b 45 08	 mov	 eax, DWORD PTR __Pos$[ebp]
  00006	c1 e0 04	 shl	 eax, 4
  00009	03 01		 add	 eax, DWORD PTR [ecx]

; 941  : 		}

  0000b	5d		 pop	 ebp
  0000c	c2 04 00	 ret	 4
??A?$vector@VioHashString@@V?$allocator@VioHashString@@@std@@@std@@QAEAAVioHashString@@I@Z ENDP ; std::vector<ioHashString,std::allocator<ioHashString> >::operator[]
_TEXT	ENDS
PUBLIC	?size@?$vector@UAttackAttribute@@V?$allocator@UAttackAttribute@@@std@@@std@@QBEIXZ ; std::vector<AttackAttribute,std::allocator<AttackAttribute> >::size
; Function compile flags: /Ogsp
;	COMDAT ?size@?$vector@UAttackAttribute@@V?$allocator@UAttackAttribute@@@std@@@std@@QBEIXZ
_TEXT	SEGMENT
?size@?$vector@UAttackAttribute@@V?$allocator@UAttackAttribute@@@std@@@std@@QBEIXZ PROC ; std::vector<AttackAttribute,std::allocator<AttackAttribute> >::size, COMDAT
; _this$ = ecx

; 879  : 		return (this->_Mylast - this->_Myfirst);

  00000	8b 41 04	 mov	 eax, DWORD PTR [ecx+4]
  00003	2b 01		 sub	 eax, DWORD PTR [ecx]
  00005	6a 50		 push	 80			; 00000050H
  00007	99		 cdq
  00008	59		 pop	 ecx
  00009	f7 f9		 idiv	 ecx

; 880  : 		}

  0000b	c3		 ret	 0
?size@?$vector@UAttackAttribute@@V?$allocator@UAttackAttribute@@@std@@@std@@QBEIXZ ENDP ; std::vector<AttackAttribute,std::allocator<AttackAttribute> >::size
_TEXT	ENDS
PUBLIC	??A?$vector@UAttackAttribute@@V?$allocator@UAttackAttribute@@@std@@@std@@QAEAAUAttackAttribute@@I@Z ; std::vector<AttackAttribute,std::allocator<AttackAttribute> >::operator[]
; Function compile flags: /Ogsp
;	COMDAT ??A?$vector@UAttackAttribute@@V?$allocator@UAttackAttribute@@@std@@@std@@QAEAAUAttackAttribute@@I@Z
_TEXT	SEGMENT
__Pos$ = 8						; size = 4
??A?$vector@UAttackAttribute@@V?$allocator@UAttackAttribute@@@std@@@std@@QAEAAUAttackAttribute@@I@Z PROC ; std::vector<AttackAttribute,std::allocator<AttackAttribute> >::operator[], COMDAT
; _this$ = ecx

; 928  : 		{	// subscript mutable sequence

  00000	55		 push	 ebp
  00001	8b ec		 mov	 ebp, esp

; 929  :  #if _ITERATOR_DEBUG_LEVEL == 2
; 930  : 		if (size() <= _Pos)
; 931  : 			{	// report error
; 932  : 			_DEBUG_ERROR("vector subscript out of range");
; 933  : 			_SCL_SECURE_OUT_OF_RANGE;
; 934  : 			}
; 935  : 
; 936  :  #elif _ITERATOR_DEBUG_LEVEL == 1
; 937  : 		_SCL_SECURE_VALIDATE_RANGE(_Pos < size());
; 938  :  #endif /* _ITERATOR_DEBUG_LEVEL */
; 939  : 
; 940  : 		return (*(this->_Myfirst + _Pos));

  00003	8b 45 08	 mov	 eax, DWORD PTR __Pos$[ebp]
  00006	6b c0 50	 imul	 eax, 80			; 00000050H
  00009	03 01		 add	 eax, DWORD PTR [ecx]

; 941  : 		}

  0000b	5d		 pop	 ebp
  0000c	c2 04 00	 ret	 4
??A?$vector@UAttackAttribute@@V?$allocator@UAttackAttribute@@@std@@@std@@QAEAAUAttackAttribute@@I@Z ENDP ; std::vector<AttackAttribute,std::allocator<AttackAttribute> >::operator[]
_TEXT	ENDS
PUBLIC	?empty@?$list@MV?$allocator@M@std@@@std@@QBE_NXZ ; std::list<float,std::allocator<float> >::empty
; Function compile flags: /Ogsp
; File c:\program files (x86)\microsoft visual studio 10.0\vc\include\list
;	COMDAT ?empty@?$list@MV?$allocator@M@std@@@std@@QBE_NXZ
_TEXT	SEGMENT
?empty@?$list@MV?$allocator@M@std@@@std@@QBE_NXZ PROC	; std::list<float,std::allocator<float> >::empty, COMDAT
; _this$ = ecx

; 887  : 		return (this->_Mysize == 0);

  00000	33 c0		 xor	 eax, eax
  00002	39 41 04	 cmp	 DWORD PTR [ecx+4], eax
  00005	0f 94 c0	 sete	 al

; 888  : 		}

  00008	c3		 ret	 0
?empty@?$list@MV?$allocator@M@std@@@std@@QBE_NXZ ENDP	; std::list<float,std::allocator<float> >::empty
_TEXT	ENDS
PUBLIC	?capacity@?$vector@VioHashString@@V?$allocator@VioHashString@@@std@@@std@@QBEIXZ ; std::vector<ioHashString,std::allocator<ioHashString> >::capacity
; Function compile flags: /Ogsp
; File c:\program files (x86)\microsoft visual studio 10.0\vc\include\vector
;	COMDAT ?capacity@?$vector@VioHashString@@V?$allocator@VioHashString@@@std@@@std@@QBEIXZ
_TEXT	SEGMENT
?capacity@?$vector@VioHashString@@V?$allocator@VioHashString@@@std@@@std@@QBEIXZ PROC ; std::vector<ioHashString,std::allocator<ioHashString> >::capacity, COMDAT
; _this$ = ecx

; 777  : 		return (this->_Myend - this->_Myfirst);

  00000	8b 41 08	 mov	 eax, DWORD PTR [ecx+8]
  00003	2b 01		 sub	 eax, DWORD PTR [ecx]
  00005	c1 f8 04	 sar	 eax, 4

; 778  : 		}

  00008	c3		 ret	 0
?capacity@?$vector@VioHashString@@V?$allocator@VioHashString@@@std@@@std@@QBEIXZ ENDP ; std::vector<ioHashString,std::allocator<ioHashString> >::capacity
_TEXT	ENDS
PUBLIC	?_Inside@?$vector@VioHashString@@V?$allocator@VioHashString@@@std@@@std@@IBE_NPBVioHashString@@@Z ; std::vector<ioHashString,std::allocator<ioHashString> >::_Inside
; Function compile flags: /Ogsp
;	COMDAT ?_Inside@?$vector@VioHashString@@V?$allocator@VioHashString@@@std@@@std@@IBE_NPBVioHashString@@@Z
_TEXT	SEGMENT
__Ptr$ = 8						; size = 4
?_Inside@?$vector@VioHashString@@V?$allocator@VioHashString@@@std@@@std@@IBE_NPBVioHashString@@@Z PROC ; std::vector<ioHashString,std::allocator<ioHashString> >::_Inside, COMDAT
; _this$ = ecx

; 1285 : 		{	// test if _Ptr points inside vector

  00000	55		 push	 ebp
  00001	8b ec		 mov	 ebp, esp

; 1286 : 		return (_Ptr < this->_Mylast && this->_Myfirst <= _Ptr);

  00003	8b 45 08	 mov	 eax, DWORD PTR __Ptr$[ebp]
  00006	3b 41 04	 cmp	 eax, DWORD PTR [ecx+4]
  00009	73 09		 jae	 SHORT $LN3@Inside
  0000b	39 01		 cmp	 DWORD PTR [ecx], eax
  0000d	77 05		 ja	 SHORT $LN3@Inside
  0000f	33 c0		 xor	 eax, eax
  00011	40		 inc	 eax
  00012	eb 02		 jmp	 SHORT $LN4@Inside
$LN3@Inside:
  00014	33 c0		 xor	 eax, eax
$LN4@Inside:

; 1287 : 		}

  00016	5d		 pop	 ebp
  00017	c2 04 00	 ret	 4
?_Inside@?$vector@VioHashString@@V?$allocator@VioHashString@@@std@@@std@@IBE_NPBVioHashString@@@Z ENDP ; std::vector<ioHashString,std::allocator<ioHashString> >::_Inside
_TEXT	ENDS
PUBLIC	?_Orphan_range@?$vector@VioHashString@@V?$allocator@VioHashString@@@std@@@std@@IBEXPAVioHashString@@0@Z ; std::vector<ioHashString,std::allocator<ioHashString> >::_Orphan_range
; Function compile flags: /Ogsp
;	COMDAT ?_Orphan_range@?$vector@VioHashString@@V?$allocator@VioHashString@@@std@@@std@@IBEXPAVioHashString@@0@Z
_TEXT	SEGMENT
___formal$ = 8						; size = 4
___formal$ = 12						; size = 4
?_Orphan_range@?$vector@VioHashString@@V?$allocator@VioHashString@@@std@@@std@@IBEXPAVioHashString@@0@Z PROC ; std::vector<ioHashString,std::allocator<ioHashString> >::_Orphan_range, COMDAT
; _this$ = ecx

; 1454 : 		}

  00000	c2 08 00	 ret	 8
?_Orphan_range@?$vector@VioHashString@@V?$allocator@VioHashString@@@std@@@std@@IBEXPAVioHashString@@0@Z ENDP ; std::vector<ioHashString,std::allocator<ioHashString> >::_Orphan_range
_TEXT	ENDS
PUBLIC	?capacity@?$vector@UAttackAttribute@@V?$allocator@UAttackAttribute@@@std@@@std@@QBEIXZ ; std::vector<AttackAttribute,std::allocator<AttackAttribute> >::capacity
; Function compile flags: /Ogsp
;	COMDAT ?capacity@?$vector@UAttackAttribute@@V?$allocator@UAttackAttribute@@@std@@@std@@QBEIXZ
_TEXT	SEGMENT
?capacity@?$vector@UAttackAttribute@@V?$allocator@UAttackAttribute@@@std@@@std@@QBEIXZ PROC ; std::vector<AttackAttribute,std::allocator<AttackAttribute> >::capacity, COMDAT
; _this$ = ecx

; 777  : 		return (this->_Myend - this->_Myfirst);

  00000	8b 41 08	 mov	 eax, DWORD PTR [ecx+8]
  00003	2b 01		 sub	 eax, DWORD PTR [ecx]
  00005	6a 50		 push	 80			; 00000050H
  00007	99		 cdq
  00008	59		 pop	 ecx
  00009	f7 f9		 idiv	 ecx

; 778  : 		}

  0000b	c3		 ret	 0
?capacity@?$vector@UAttackAttribute@@V?$allocator@UAttackAttribute@@@std@@@std@@QBEIXZ ENDP ; std::vector<AttackAttribute,std::allocator<AttackAttribute> >::capacity
_TEXT	ENDS
PUBLIC	?_Inside@?$vector@UAttackAttribute@@V?$allocator@UAttackAttribute@@@std@@@std@@IBE_NPBUAttackAttribute@@@Z ; std::vector<AttackAttribute,std::allocator<AttackAttribute> >::_Inside
; Function compile flags: /Ogsp
;	COMDAT ?_Inside@?$vector@UAttackAttribute@@V?$allocator@UAttackAttribute@@@std@@@std@@IBE_NPBUAttackAttribute@@@Z
_TEXT	SEGMENT
__Ptr$ = 8						; size = 4
?_Inside@?$vector@UAttackAttribute@@V?$allocator@UAttackAttribute@@@std@@@std@@IBE_NPBUAttackAttribute@@@Z PROC ; std::vector<AttackAttribute,std::allocator<AttackAttribute> >::_Inside, COMDAT
; _this$ = ecx

; 1285 : 		{	// test if _Ptr points inside vector

  00000	55		 push	 ebp
  00001	8b ec		 mov	 ebp, esp

; 1286 : 		return (_Ptr < this->_Mylast && this->_Myfirst <= _Ptr);

  00003	8b 45 08	 mov	 eax, DWORD PTR __Ptr$[ebp]
  00006	3b 41 04	 cmp	 eax, DWORD PTR [ecx+4]
  00009	73 09		 jae	 SHORT $LN3@Inside@2
  0000b	39 01		 cmp	 DWORD PTR [ecx], eax
  0000d	77 05		 ja	 SHORT $LN3@Inside@2
  0000f	33 c0		 xor	 eax, eax
  00011	40		 inc	 eax
  00012	eb 02		 jmp	 SHORT $LN4@Inside@2
$LN3@Inside@2:
  00014	33 c0		 xor	 eax, eax
$LN4@Inside@2:

; 1287 : 		}

  00016	5d		 pop	 ebp
  00017	c2 04 00	 ret	 4
?_Inside@?$vector@UAttackAttribute@@V?$allocator@UAttackAttribute@@@std@@@std@@IBE_NPBUAttackAttribute@@@Z ENDP ; std::vector<AttackAttribute,std::allocator<AttackAttribute> >::_Inside
_TEXT	ENDS
PUBLIC	??_C@_0BD@OLBABOEK@vector?$DMT?$DO?5too?5long?$AA@ ; `string'
PUBLIC	?_Xlen@?$vector@UAttackAttribute@@V?$allocator@UAttackAttribute@@@std@@@std@@IBEXXZ ; std::vector<AttackAttribute,std::allocator<AttackAttribute> >::_Xlen
EXTRN	__imp_?_Xlength_error@std@@YAXPBD@Z:PROC
;	COMDAT ??_C@_0BD@OLBABOEK@vector?$DMT?$DO?5too?5long?$AA@
CONST	SEGMENT
??_C@_0BD@OLBABOEK@vector?$DMT?$DO?5too?5long?$AA@ DB 'vector<T> too long'
	DB	00H						; `string'
; Function compile flags: /Ogsp
CONST	ENDS
;	COMDAT ?_Xlen@?$vector@UAttackAttribute@@V?$allocator@UAttackAttribute@@@std@@@std@@IBEXXZ
_TEXT	SEGMENT
?_Xlen@?$vector@UAttackAttribute@@V?$allocator@UAttackAttribute@@@std@@@std@@IBEXXZ PROC ; std::vector<AttackAttribute,std::allocator<AttackAttribute> >::_Xlen, COMDAT
; _this$ = ecx

; 1427 : 		_Xlength_error("vector<T> too long");

  00000	68 00 00 00 00	 push	 OFFSET ??_C@_0BD@OLBABOEK@vector?$DMT?$DO?5too?5long?$AA@
  00005	ff 15 00 00 00
	00		 call	 DWORD PTR __imp_?_Xlength_error@std@@YAXPBD@Z
$LN4@Xlen:
$LN3@Xlen:
  0000b	cc		 int	 3
?_Xlen@?$vector@UAttackAttribute@@V?$allocator@UAttackAttribute@@@std@@@std@@IBEXXZ ENDP ; std::vector<AttackAttribute,std::allocator<AttackAttribute> >::_Xlen
_TEXT	ENDS
PUBLIC	?_Orphan_range@?$vector@UAttackAttribute@@V?$allocator@UAttackAttribute@@@std@@@std@@IBEXPAUAttackAttribute@@0@Z ; std::vector<AttackAttribute,std::allocator<AttackAttribute> >::_Orphan_range
; Function compile flags: /Ogsp
;	COMDAT ?_Orphan_range@?$vector@UAttackAttribute@@V?$allocator@UAttackAttribute@@@std@@@std@@IBEXPAUAttackAttribute@@0@Z
_TEXT	SEGMENT
___formal$ = 8						; size = 4
___formal$ = 12						; size = 4
?_Orphan_range@?$vector@UAttackAttribute@@V?$allocator@UAttackAttribute@@@std@@@std@@IBEXPAUAttackAttribute@@0@Z PROC ; std::vector<AttackAttribute,std::allocator<AttackAttribute> >::_Orphan_range, COMDAT
; _this$ = ecx

; 1454 : 		}

  00000	c2 08 00	 ret	 8
?_Orphan_range@?$vector@UAttackAttribute@@V?$allocator@UAttackAttribute@@@std@@@std@@IBEXPAUAttackAttribute@@0@Z ENDP ; std::vector<AttackAttribute,std::allocator<AttackAttribute> >::_Orphan_range
_TEXT	ENDS
PUBLIC	?_Nextnode@?$_List_val@MV?$allocator@M@std@@@std@@SAAAPAU_Node@?$_List_nod@MV?$allocator@M@std@@@2@PAU342@@Z ; std::_List_val<float,std::allocator<float> >::_Nextnode
; Function compile flags: /Ogsp
; File c:\program files (x86)\microsoft visual studio 10.0\vc\include\list
;	COMDAT ?_Nextnode@?$_List_val@MV?$allocator@M@std@@@std@@SAAAPAU_Node@?$_List_nod@MV?$allocator@M@std@@@2@PAU342@@Z
_TEXT	SEGMENT
__Pnode$ = 8						; size = 4
?_Nextnode@?$_List_val@MV?$allocator@M@std@@@std@@SAAAPAU_Node@?$_List_nod@MV?$allocator@M@std@@@2@PAU342@@Z PROC ; std::_List_val<float,std::allocator<float> >::_Nextnode, COMDAT

; 560  : 		{	// return reference to successor pointer in node

  00000	55		 push	 ebp
  00001	8b ec		 mov	 ebp, esp

; 561  : 		return ((_Nodepref)(*_Pnode)._Next);

  00003	8b 45 08	 mov	 eax, DWORD PTR __Pnode$[ebp]

; 562  : 		}

  00006	5d		 pop	 ebp
  00007	c3		 ret	 0
?_Nextnode@?$_List_val@MV?$allocator@M@std@@@std@@SAAAPAU_Node@?$_List_nod@MV?$allocator@M@std@@@2@PAU342@@Z ENDP ; std::_List_val<float,std::allocator<float> >::_Nextnode
_TEXT	ENDS
PUBLIC	?DecryptValueToPool@?$CEncrypt@W4JumpState@@@@QAEXPAW4JumpState@@@Z ; CEncrypt<enum JumpState>::DecryptValueToPool
EXTRN	?DecryptByte@ccddaabb@@QBEXPBDPADH@Z:PROC	; ccddaabb::DecryptByte
; Function compile flags: /Ogsp
; File d:\lost saga for developer\youtube\tutorial\source\src\lsclient\encryptvalue.h
;	COMDAT ?DecryptValueToPool@?$CEncrypt@W4JumpState@@@@QAEXPAW4JumpState@@@Z
_TEXT	SEGMENT
_value$ = 8						; size = 4
?DecryptValueToPool@?$CEncrypt@W4JumpState@@@@QAEXPAW4JumpState@@@Z PROC ; CEncrypt<enum JumpState>::DecryptValueToPool, COMDAT
; _this$ = ecx

; 2317 : 	{

  00000	55		 push	 ebp
  00001	8b ec		 mov	 ebp, esp
  00003	56		 push	 esi

; 2318 : 		m_RC5.DecryptByte( m_MemPool, m_TempMem, sizeof(JumpState) );

  00004	8d 71 28	 lea	 esi, DWORD PTR [ecx+40]
  00007	6a 04		 push	 4
  00009	8d 41 1c	 lea	 eax, DWORD PTR [ecx+28]
  0000c	56		 push	 esi
  0000d	50		 push	 eax
  0000e	83 c1 0c	 add	 ecx, 12			; 0000000cH
  00011	e8 00 00 00 00	 call	 ?DecryptByte@ccddaabb@@QBEXPBDPADH@Z ; ccddaabb::DecryptByte

; 2319 : 		*value = *((JumpState*)m_TempMem);

  00016	8b 06		 mov	 eax, DWORD PTR [esi]
  00018	8b 4d 08	 mov	 ecx, DWORD PTR _value$[ebp]
  0001b	89 01		 mov	 DWORD PTR [ecx], eax
  0001d	5e		 pop	 esi

; 2320 : 	}

  0001e	5d		 pop	 ebp
  0001f	c2 04 00	 ret	 4
?DecryptValueToPool@?$CEncrypt@W4JumpState@@@@QAEXPAW4JumpState@@@Z ENDP ; CEncrypt<enum JumpState>::DecryptValueToPool
_TEXT	ENDS
PUBLIC	??8?$_List_const_iterator@V?$_List_val@MV?$allocator@M@std@@@std@@@std@@QBE_NABV01@@Z ; std::_List_const_iterator<std::_List_val<float,std::allocator<float> > >::operator==
; Function compile flags: /Ogsp
; File c:\program files (x86)\microsoft visual studio 10.0\vc\include\list
;	COMDAT ??8?$_List_const_iterator@V?$_List_val@MV?$allocator@M@std@@@std@@@std@@QBE_NABV01@@Z
_TEXT	SEGMENT
__Right$ = 8						; size = 4
??8?$_List_const_iterator@V?$_List_val@MV?$allocator@M@std@@@std@@@std@@QBE_NABV01@@Z PROC ; std::_List_const_iterator<std::_List_val<float,std::allocator<float> > >::operator==, COMDAT
; _this$ = ecx

; 281  : 		{	// test for iterator equality

  00000	55		 push	 ebp
  00001	8b ec		 mov	 ebp, esp

; 282  :  #if _ITERATOR_DEBUG_LEVEL == 2
; 283  : 		if (this->_Getcont() == 0
; 284  : 			|| this->_Getcont() != _Right._Getcont())
; 285  : 			{	// report error
; 286  : 			_DEBUG_ERROR("list iterators incompatible");
; 287  : 			_SCL_SECURE_INVALID_ARGUMENT;
; 288  : 			}
; 289  : 
; 290  :  #elif _ITERATOR_DEBUG_LEVEL == 1
; 291  : 		_SCL_SECURE_VALIDATE(this->_Getcont() != 0
; 292  : 			&& this->_Getcont() == _Right._Getcont());
; 293  :  #endif /* _ITERATOR_DEBUG_LEVEL */
; 294  : 
; 295  : 		return (this->_Ptr == _Right._Ptr);

  00003	8b 01		 mov	 eax, DWORD PTR [ecx]
  00005	8b 4d 08	 mov	 ecx, DWORD PTR __Right$[ebp]
  00008	2b 01		 sub	 eax, DWORD PTR [ecx]
  0000a	f7 d8		 neg	 eax
  0000c	1b c0		 sbb	 eax, eax
  0000e	40		 inc	 eax

; 296  : 		}

  0000f	5d		 pop	 ebp
  00010	c2 04 00	 ret	 4
??8?$_List_const_iterator@V?$_List_val@MV?$allocator@M@std@@@std@@@std@@QBE_NABV01@@Z ENDP ; std::_List_const_iterator<std::_List_val<float,std::allocator<float> > >::operator==
_TEXT	ENDS
PUBLIC	?max_size@?$allocator@UAttackAttribute@@@std@@QBEIXZ ; std::allocator<AttackAttribute>::max_size
; Function compile flags: /Ogsp
; File c:\program files (x86)\microsoft visual studio 10.0\vc\include\xmemory
;	COMDAT ?max_size@?$allocator@UAttackAttribute@@@std@@QBEIXZ
_TEXT	SEGMENT
?max_size@?$allocator@UAttackAttribute@@@std@@QBEIXZ PROC ; std::allocator<AttackAttribute>::max_size, COMDAT
; _this$ = ecx

; 218  : 		_SIZT _Count = (_SIZT)(-1) / sizeof (_Ty);
; 219  : 		return (0 < _Count ? _Count : 1);

  00000	b8 33 33 33 03	 mov	 eax, 53687091		; 03333333H

; 220  : 		}

  00005	c3		 ret	 0
?max_size@?$allocator@UAttackAttribute@@@std@@QBEIXZ ENDP ; std::allocator<AttackAttribute>::max_size
_TEXT	ENDS
PUBLIC	?_Prevnode@?$_List_val@MV?$allocator@M@std@@@std@@SAAAPAU_Node@?$_List_nod@MV?$allocator@M@std@@@2@PAU342@@Z ; std::_List_val<float,std::allocator<float> >::_Prevnode
; Function compile flags: /Ogsp
; File c:\program files (x86)\microsoft visual studio 10.0\vc\include\list
;	COMDAT ?_Prevnode@?$_List_val@MV?$allocator@M@std@@@std@@SAAAPAU_Node@?$_List_nod@MV?$allocator@M@std@@@2@PAU342@@Z
_TEXT	SEGMENT
__Pnode$ = 8						; size = 4
?_Prevnode@?$_List_val@MV?$allocator@M@std@@@std@@SAAAPAU_Node@?$_List_nod@MV?$allocator@M@std@@@2@PAU342@@Z PROC ; std::_List_val<float,std::allocator<float> >::_Prevnode, COMDAT

; 565  : 		{	// return reference to predecessor pointer in node

  00000	55		 push	 ebp
  00001	8b ec		 mov	 ebp, esp

; 566  : 		return ((_Nodepref)(*_Pnode)._Prev);

  00003	8b 45 08	 mov	 eax, DWORD PTR __Pnode$[ebp]
  00006	83 c0 04	 add	 eax, 4

; 567  : 		}

  00009	5d		 pop	 ebp
  0000a	c3		 ret	 0
?_Prevnode@?$_List_val@MV?$allocator@M@std@@@std@@SAAAPAU_Node@?$_List_nod@MV?$allocator@M@std@@@2@PAU342@@Z ENDP ; std::_List_val<float,std::allocator<float> >::_Prevnode
_TEXT	ENDS
PUBLIC	?_Myval@?$_List_val@MV?$allocator@M@std@@@std@@SAAAMPAU_Node@?$_List_nod@MV?$allocator@M@std@@@2@@Z ; std::_List_val<float,std::allocator<float> >::_Myval
; Function compile flags: /Ogsp
;	COMDAT ?_Myval@?$_List_val@MV?$allocator@M@std@@@std@@SAAAMPAU_Node@?$_List_nod@MV?$allocator@M@std@@@2@@Z
_TEXT	SEGMENT
__Pnode$ = 8						; size = 4
?_Myval@?$_List_val@MV?$allocator@M@std@@@std@@SAAAMPAU_Node@?$_List_nod@MV?$allocator@M@std@@@2@@Z PROC ; std::_List_val<float,std::allocator<float> >::_Myval, COMDAT

; 570  : 		{	// return reference to value in node

  00000	55		 push	 ebp
  00001	8b ec		 mov	 ebp, esp

; 571  : 		return ((reference)(*_Pnode)._Myval);

  00003	8b 45 08	 mov	 eax, DWORD PTR __Pnode$[ebp]
  00006	83 c0 08	 add	 eax, 8

; 572  : 		}

  00009	5d		 pop	 ebp
  0000a	c3		 ret	 0
?_Myval@?$_List_val@MV?$allocator@M@std@@@std@@SAAAMPAU_Node@?$_List_nod@MV?$allocator@M@std@@@2@@Z ENDP ; std::_List_val<float,std::allocator<float> >::_Myval
_TEXT	ENDS
PUBLIC	?deallocate@?$allocator@U_Node@?$_List_nod@MV?$allocator@M@std@@@std@@@std@@QAEXPAU_Node@?$_List_nod@MV?$allocator@M@std@@@2@I@Z ; std::allocator<std::_List_nod<float,std::allocator<float> >::_Node>::deallocate
; Function compile flags: /Ogsp
; File c:\program files (x86)\microsoft visual studio 10.0\vc\include\xmemory
;	COMDAT ?deallocate@?$allocator@U_Node@?$_List_nod@MV?$allocator@M@std@@@std@@@std@@QAEXPAU_Node@?$_List_nod@MV?$allocator@M@std@@@2@I@Z
_TEXT	SEGMENT
__Ptr$ = 8						; size = 4
___formal$ = 12						; size = 4
?deallocate@?$allocator@U_Node@?$_List_nod@MV?$allocator@M@std@@@std@@@std@@QAEXPAU_Node@?$_List_nod@MV?$allocator@M@std@@@2@I@Z PROC ; std::allocator<std::_List_nod<float,std::allocator<float> >::_Node>::deallocate, COMDAT
; _this$ = ecx

; 181  : 		{	// deallocate object at _Ptr, ignore size

  00000	55		 push	 ebp
  00001	8b ec		 mov	 ebp, esp

; 182  : 		::operator delete(_Ptr);

  00003	ff 75 08	 push	 DWORD PTR __Ptr$[ebp]
  00006	e8 00 00 00 00	 call	 ??3@YAXPAX@Z		; operator delete
  0000b	59		 pop	 ecx

; 183  : 		}

  0000c	5d		 pop	 ebp
  0000d	c2 08 00	 ret	 8
?deallocate@?$allocator@U_Node@?$_List_nod@MV?$allocator@M@std@@@std@@@std@@QAEXPAU_Node@?$_List_nod@MV?$allocator@M@std@@@2@I@Z ENDP ; std::allocator<std::_List_nod<float,std::allocator<float> >::_Node>::deallocate
_TEXT	ENDS
PUBLIC	??E?$_List_const_iterator@V?$_List_val@MV?$allocator@M@std@@@std@@@std@@QAEAAV01@XZ ; std::_List_const_iterator<std::_List_val<float,std::allocator<float> > >::operator++
; Function compile flags: /Ogsp
; File c:\program files (x86)\microsoft visual studio 10.0\vc\include\list
;	COMDAT ??E?$_List_const_iterator@V?$_List_val@MV?$allocator@M@std@@@std@@@std@@QAEAAV01@XZ
_TEXT	SEGMENT
??E?$_List_const_iterator@V?$_List_val@MV?$allocator@M@std@@@std@@@std@@QAEAAV01@XZ PROC ; std::_List_const_iterator<std::_List_val<float,std::allocator<float> > >::operator++, COMDAT
; _this$ = ecx

; 221  : 		{	// preincrement

  00000	8b c1		 mov	 eax, ecx

; 222  :  #if _ITERATOR_DEBUG_LEVEL == 2
; 223  : 		if (this->_Getcont() == 0
; 224  : 			|| this->_Ptr == 0
; 225  : 			|| this->_Ptr == ((_Mylist *)this->_Getcont())->_Myhead)
; 226  : 			{	// report error
; 227  : 			_DEBUG_ERROR("list iterator not incrementable");
; 228  : 			_SCL_SECURE_OUT_OF_RANGE;
; 229  : 			}
; 230  : 
; 231  :  #elif _ITERATOR_DEBUG_LEVEL == 1
; 232  : 		_SCL_SECURE_VALIDATE(this->_Getcont() != 0 && this->_Ptr != 0);
; 233  : 		_SCL_SECURE_VALIDATE_RANGE(this->_Ptr !=
; 234  : 			((_Mylist *)this->_Getcont())->_Myhead);
; 235  :  #endif /* _ITERATOR_DEBUG_LEVEL */
; 236  : 
; 237  : 		this->_Ptr = _Mylist::_Nextnode(this->_Ptr);

  00002	8b 08		 mov	 ecx, DWORD PTR [eax]
  00004	8b 09		 mov	 ecx, DWORD PTR [ecx]
  00006	89 08		 mov	 DWORD PTR [eax], ecx

; 238  : 		return (*this);
; 239  : 		}

  00008	c3		 ret	 0
??E?$_List_const_iterator@V?$_List_val@MV?$allocator@M@std@@@std@@@std@@QAEAAV01@XZ ENDP ; std::_List_const_iterator<std::_List_val<float,std::allocator<float> > >::operator++
_TEXT	ENDS
PUBLIC	??0?$_List_unchecked_const_iterator@V?$_List_val@MV?$allocator@M@std@@@std@@U_Iterator_base0@2@@std@@QAE@PAU_Node@?$_List_nod@MV?$allocator@M@std@@@1@PBV?$_List_val@MV?$allocator@M@std@@@1@@Z ; std::_List_unchecked_const_iterator<std::_List_val<float,std::allocator<float> >,std::_Iterator_base0>::_List_unchecked_const_iterator<std::_List_val<float,std::allocator<float> >,std::_Iterator_base0>
; Function compile flags: /Ogsp
;	COMDAT ??0?$_List_unchecked_const_iterator@V?$_List_val@MV?$allocator@M@std@@@std@@U_Iterator_base0@2@@std@@QAE@PAU_Node@?$_List_nod@MV?$allocator@M@std@@@1@PBV?$_List_val@MV?$allocator@M@std@@@1@@Z
_TEXT	SEGMENT
__Pnode$ = 8						; size = 4
__Plist$ = 12						; size = 4
??0?$_List_unchecked_const_iterator@V?$_List_val@MV?$allocator@M@std@@@std@@U_Iterator_base0@2@@std@@QAE@PAU_Node@?$_List_nod@MV?$allocator@M@std@@@1@PBV?$_List_val@MV?$allocator@M@std@@@1@@Z PROC ; std::_List_unchecked_const_iterator<std::_List_val<float,std::allocator<float> >,std::_Iterator_base0>::_List_unchecked_const_iterator<std::_List_val<float,std::allocator<float> >,std::_Iterator_base0>, COMDAT
; _this$ = ecx

; 41   : 		{	// construct with node pointer _Pnode

  00000	55		 push	 ebp
  00001	8b ec		 mov	 ebp, esp
  00003	8b c1		 mov	 eax, ecx
  00005	8b 4d 08	 mov	 ecx, DWORD PTR __Pnode$[ebp]
  00008	89 08		 mov	 DWORD PTR [eax], ecx

; 42   : 		this->_Adopt(_Plist);
; 43   : 		}

  0000a	5d		 pop	 ebp
  0000b	c2 08 00	 ret	 8
??0?$_List_unchecked_const_iterator@V?$_List_val@MV?$allocator@M@std@@@std@@U_Iterator_base0@2@@std@@QAE@PAU_Node@?$_List_nod@MV?$allocator@M@std@@@1@PBV?$_List_val@MV?$allocator@M@std@@@1@@Z ENDP ; std::_List_unchecked_const_iterator<std::_List_val<float,std::allocator<float> >,std::_Iterator_base0>::_List_unchecked_const_iterator<std::_List_val<float,std::allocator<float> >,std::_Iterator_base0>
_TEXT	ENDS
PUBLIC	??$addressof@VioHashString@@@std@@YAPAVioHashString@@AAV1@@Z ; std::addressof<ioHashString>
; Function compile flags: /Ogsp
; File c:\program files (x86)\microsoft visual studio 10.0\vc\include\xmemory
;	COMDAT ??$addressof@VioHashString@@@std@@YAPAVioHashString@@AAV1@@Z
_TEXT	SEGMENT
__Val$ = 8						; size = 4
??$addressof@VioHashString@@@std@@YAPAVioHashString@@AAV1@@Z PROC ; std::addressof<ioHashString>, COMDAT

; 110  : 	{	// return address of _Val

  00000	55		 push	 ebp
  00001	8b ec		 mov	 ebp, esp

; 111  : 	return ((_Ty *) &(char&)_Val);

  00003	8b 45 08	 mov	 eax, DWORD PTR __Val$[ebp]

; 112  : 	}

  00006	5d		 pop	 ebp
  00007	c3		 ret	 0
??$addressof@VioHashString@@@std@@YAPAVioHashString@@AAV1@@Z ENDP ; std::addressof<ioHashString>
_TEXT	ENDS
PUBLIC	??$forward@VioHashString@@@std@@YA$$QAVioHashString@@AAV1@@Z ; std::forward<ioHashString>
; Function compile flags: /Ogsp
; File c:\program files (x86)\microsoft visual studio 10.0\vc\include\utility
;	COMDAT ??$forward@VioHashString@@@std@@YA$$QAVioHashString@@AAV1@@Z
_TEXT	SEGMENT
__Arg$ = 8						; size = 4
??$forward@VioHashString@@@std@@YA$$QAVioHashString@@AAV1@@Z PROC ; std::forward<ioHashString>, COMDAT

; 78   : 	{	// forward _Arg, given explicitly specified type parameter

  00000	55		 push	 ebp
  00001	8b ec		 mov	 ebp, esp

; 79   : 	return ((_Ty&&)_Arg);

  00003	8b 45 08	 mov	 eax, DWORD PTR __Arg$[ebp]

; 80   : 	}

  00006	5d		 pop	 ebp
  00007	c3		 ret	 0
??$forward@VioHashString@@@std@@YA$$QAVioHashString@@AAV1@@Z ENDP ; std::forward<ioHashString>
_TEXT	ENDS
PUBLIC	??$addressof@$$CBUAttackAttribute@@@std@@YAPBUAttackAttribute@@ABU1@@Z ; std::addressof<AttackAttribute const >
; Function compile flags: /Ogsp
; File c:\program files (x86)\microsoft visual studio 10.0\vc\include\xmemory
;	COMDAT ??$addressof@$$CBUAttackAttribute@@@std@@YAPBUAttackAttribute@@ABU1@@Z
_TEXT	SEGMENT
__Val$ = 8						; size = 4
??$addressof@$$CBUAttackAttribute@@@std@@YAPBUAttackAttribute@@ABU1@@Z PROC ; std::addressof<AttackAttribute const >, COMDAT

; 110  : 	{	// return address of _Val

  00000	55		 push	 ebp
  00001	8b ec		 mov	 ebp, esp

; 111  : 	return ((_Ty *) &(char&)_Val);

  00003	8b 45 08	 mov	 eax, DWORD PTR __Val$[ebp]

; 112  : 	}

  00006	5d		 pop	 ebp
  00007	c3		 ret	 0
??$addressof@$$CBUAttackAttribute@@@std@@YAPBUAttackAttribute@@ABU1@@Z ENDP ; std::addressof<AttackAttribute const >
_TEXT	ENDS
PUBLIC	__TI2?AVbad_alloc@std@@
PUBLIC	??$_Allocate@UAttackAttribute@@@std@@YAPAUAttackAttribute@@IPAU1@@Z ; std::_Allocate<AttackAttribute>
PUBLIC	__CTA2?AVbad_alloc@std@@
PUBLIC	__CT??_R0?AVbad_alloc@std@@@8??0bad_alloc@std@@QAE@ABV01@@Z12
PUBLIC	??0bad_alloc@std@@QAE@ABV01@@Z			; std::bad_alloc::bad_alloc
PUBLIC	__CT??_R0?AVexception@std@@@8??0exception@std@@QAE@ABV01@@Z12
EXTRN	??2@YAPAXI@Z:PROC				; operator new
EXTRN	__CxxThrowException@8:PROC
EXTRN	??0exception@std@@QAE@ABV01@@Z:PROC		; std::exception::exception
;	COMDAT __CT??_R0?AVexception@std@@@8??0exception@std@@QAE@ABV01@@Z12
; File c:\program files (x86)\microsoft visual studio 10.0\vc\include\exception
xdata$x	SEGMENT
__CT??_R0?AVexception@std@@@8??0exception@std@@QAE@ABV01@@Z12 DD 00H
	DD	FLAT:??_R0?AVexception@std@@@8
	DD	00H
	DD	0ffffffffH
	ORG $+4
	DD	0cH
	DD	FLAT:??0exception@std@@QAE@ABV01@@Z
xdata$x	ENDS
;	COMDAT __CT??_R0?AVbad_alloc@std@@@8??0bad_alloc@std@@QAE@ABV01@@Z12
xdata$x	SEGMENT
__CT??_R0?AVbad_alloc@std@@@8??0bad_alloc@std@@QAE@ABV01@@Z12 DD 00H
	DD	FLAT:??_R0?AVbad_alloc@std@@@8
	DD	00H
	DD	0ffffffffH
	ORG $+4
	DD	0cH
	DD	FLAT:??0bad_alloc@std@@QAE@ABV01@@Z
xdata$x	ENDS
;	COMDAT __CTA2?AVbad_alloc@std@@
xdata$x	SEGMENT
__CTA2?AVbad_alloc@std@@ DD 02H
	DD	FLAT:__CT??_R0?AVbad_alloc@std@@@8??0bad_alloc@std@@QAE@ABV01@@Z12
	DD	FLAT:__CT??_R0?AVexception@std@@@8??0exception@std@@QAE@ABV01@@Z12
xdata$x	ENDS
;	COMDAT __TI2?AVbad_alloc@std@@
xdata$x	SEGMENT
__TI2?AVbad_alloc@std@@ DD 00H
	DD	FLAT:??1bad_alloc@std@@UAE@XZ
	DD	00H
	DD	FLAT:__CTA2?AVbad_alloc@std@@
; Function compile flags: /Ogsp
; File c:\program files (x86)\microsoft visual studio 10.0\vc\include\xmemory
xdata$x	ENDS
;	COMDAT ??$_Allocate@UAttackAttribute@@@std@@YAPAUAttackAttribute@@IPAU1@@Z
_TEXT	SEGMENT
$T606287 = -12						; size = 12
$T606292 = 8						; size = 4
__Count$ = 8						; size = 4
___formal$ = 12						; size = 4
??$_Allocate@UAttackAttribute@@@std@@YAPAUAttackAttribute@@IPAU1@@Z PROC ; std::_Allocate<AttackAttribute>, COMDAT

; 30   : 	{	// allocate storage for _Count elements of type _Ty

  00000	55		 push	 ebp
  00001	8b ec		 mov	 ebp, esp

; 31   : 	void *_Ptr = 0;
; 32   : 
; 33   : 	if (_Count <= 0)

  00003	8b 4d 08	 mov	 ecx, DWORD PTR __Count$[ebp]
  00006	83 ec 0c	 sub	 esp, 12			; 0000000cH
  00009	33 c0		 xor	 eax, eax
  0000b	85 c9		 test	 ecx, ecx

; 34   : 		_Count = 0;
; 35   : 	else if (((_SIZT)(-1) / sizeof (_Ty) < _Count)

  0000d	74 3c		 je	 SHORT $LN5@Allocate

; 36   : 		|| (_Ptr = ::operator new(_Count * sizeof (_Ty))) == 0)

  0000f	81 f9 33 33 33
	03		 cmp	 ecx, 53687091		; 03333333H
  00015	77 0e		 ja	 SHORT $LN1@Allocate
  00017	6b c9 50	 imul	 ecx, 80			; 00000050H
  0001a	51		 push	 ecx
  0001b	e8 00 00 00 00	 call	 ??2@YAPAXI@Z		; operator new
  00020	59		 pop	 ecx
  00021	85 c0		 test	 eax, eax

; 38   : 
; 39   : 	return ((_Ty _FARQ *)_Ptr);

  00023	75 26		 jne	 SHORT $LN5@Allocate
$LN1@Allocate:

; 37   : 		_THROW_NCEE(bad_alloc, 0);

  00025	83 65 08 00	 and	 DWORD PTR $T606292[ebp], 0
  00029	8d 45 08	 lea	 eax, DWORD PTR $T606292[ebp]
  0002c	50		 push	 eax
  0002d	8d 4d f4	 lea	 ecx, DWORD PTR $T606287[ebp]
  00030	ff 15 00 00 00
	00		 call	 DWORD PTR __imp_??0exception@std@@QAE@ABQBD@Z
  00036	68 00 00 00 00	 push	 OFFSET __TI2?AVbad_alloc@std@@
  0003b	8d 45 f4	 lea	 eax, DWORD PTR $T606287[ebp]
  0003e	50		 push	 eax
  0003f	c7 45 f4 00 00
	00 00		 mov	 DWORD PTR $T606287[ebp], OFFSET ??_7bad_alloc@std@@6B@
  00046	e8 00 00 00 00	 call	 __CxxThrowException@8
$LN10@Allocate:
$LN5@Allocate:

; 40   : 	}

  0004b	c9		 leave
  0004c	c3		 ret	 0
$LN9@Allocate:
??$_Allocate@UAttackAttribute@@@std@@YAPAUAttackAttribute@@IPAU1@@Z ENDP ; std::_Allocate<AttackAttribute>
_TEXT	ENDS
PUBLIC	??$?0M@?$allocator@U_Node@?$_List_nod@MV?$allocator@M@std@@@std@@@std@@QAE@ABV?$allocator@M@1@@Z ; std::allocator<std::_List_nod<float,std::allocator<float> >::_Node>::allocator<std::_List_nod<float,std::allocator<float> >::_Node><float>
; Function compile flags: /Ogsp
;	COMDAT ??$?0M@?$allocator@U_Node@?$_List_nod@MV?$allocator@M@std@@@std@@@std@@QAE@ABV?$allocator@M@1@@Z
_TEXT	SEGMENT
___formal$ = 8						; size = 4
??$?0M@?$allocator@U_Node@?$_List_nod@MV?$allocator@M@std@@@std@@@std@@QAE@ABV?$allocator@M@1@@Z PROC ; std::allocator<std::_List_nod<float,std::allocator<float> >::_Node>::allocator<std::_List_nod<float,std::allocator<float> >::_Node><float>, COMDAT
; _this$ = ecx

; 170  : 		_ALLOCATOR(const _ALLOCATOR<_Other>&) _THROW0()

  00000	8b c1		 mov	 eax, ecx

; 171  : 		{	// construct from a related allocator (do nothing)
; 172  : 		}

  00002	c2 04 00	 ret	 4
??$?0M@?$allocator@U_Node@?$_List_nod@MV?$allocator@M@std@@@std@@@std@@QAE@ABV?$allocator@M@1@@Z ENDP ; std::allocator<std::_List_nod<float,std::allocator<float> >::_Node>::allocator<std::_List_nod<float,std::allocator<float> >::_Node><float>
_TEXT	ENDS
PUBLIC	??$_Allocate@U_Node@?$_List_nod@MV?$allocator@M@std@@@std@@@std@@YAPAU_Node@?$_List_nod@MV?$allocator@M@std@@@0@IPAU120@@Z ; std::_Allocate<std::_List_nod<float,std::allocator<float> >::_Node>
; Function compile flags: /Ogsp
;	COMDAT ??$_Allocate@U_Node@?$_List_nod@MV?$allocator@M@std@@@std@@@std@@YAPAU_Node@?$_List_nod@MV?$allocator@M@std@@@0@IPAU120@@Z
_TEXT	SEGMENT
$T606300 = -12						; size = 12
$T606304 = 8						; size = 4
__Count$ = 8						; size = 4
___formal$ = 12						; size = 4
??$_Allocate@U_Node@?$_List_nod@MV?$allocator@M@std@@@std@@@std@@YAPAU_Node@?$_List_nod@MV?$allocator@M@std@@@0@IPAU120@@Z PROC ; std::_Allocate<std::_List_nod<float,std::allocator<float> >::_Node>, COMDAT

; 30   : 	{	// allocate storage for _Count elements of type _Ty

  00000	55		 push	 ebp
  00001	8b ec		 mov	 ebp, esp

; 31   : 	void *_Ptr = 0;
; 32   : 
; 33   : 	if (_Count <= 0)

  00003	8b 4d 08	 mov	 ecx, DWORD PTR __Count$[ebp]
  00006	83 ec 0c	 sub	 esp, 12			; 0000000cH
  00009	33 c0		 xor	 eax, eax
  0000b	85 c9		 test	 ecx, ecx

; 34   : 		_Count = 0;
; 35   : 	else if (((_SIZT)(-1) / sizeof (_Ty) < _Count)

  0000d	74 3c		 je	 SHORT $LN5@Allocate@2

; 36   : 		|| (_Ptr = ::operator new(_Count * sizeof (_Ty))) == 0)

  0000f	81 f9 55 55 55
	15		 cmp	 ecx, 357913941		; 15555555H
  00015	77 0e		 ja	 SHORT $LN1@Allocate@2
  00017	6b c9 0c	 imul	 ecx, 12			; 0000000cH
  0001a	51		 push	 ecx
  0001b	e8 00 00 00 00	 call	 ??2@YAPAXI@Z		; operator new
  00020	59		 pop	 ecx
  00021	85 c0		 test	 eax, eax

; 38   : 
; 39   : 	return ((_Ty _FARQ *)_Ptr);

  00023	75 26		 jne	 SHORT $LN5@Allocate@2
$LN1@Allocate@2:

; 37   : 		_THROW_NCEE(bad_alloc, 0);

  00025	83 65 08 00	 and	 DWORD PTR $T606304[ebp], 0
  00029	8d 45 08	 lea	 eax, DWORD PTR $T606304[ebp]
  0002c	50		 push	 eax
  0002d	8d 4d f4	 lea	 ecx, DWORD PTR $T606300[ebp]
  00030	ff 15 00 00 00
	00		 call	 DWORD PTR __imp_??0exception@std@@QAE@ABQBD@Z
  00036	68 00 00 00 00	 push	 OFFSET __TI2?AVbad_alloc@std@@
  0003b	8d 45 f4	 lea	 eax, DWORD PTR $T606300[ebp]
  0003e	50		 push	 eax
  0003f	c7 45 f4 00 00
	00 00		 mov	 DWORD PTR $T606300[ebp], OFFSET ??_7bad_alloc@std@@6B@
  00046	e8 00 00 00 00	 call	 __CxxThrowException@8
$LN10@Allocate@2:
$LN5@Allocate@2:

; 40   : 	}

  0004b	c9		 leave
  0004c	c3		 ret	 0
$LN9@Allocate@2:
??$_Allocate@U_Node@?$_List_nod@MV?$allocator@M@std@@@std@@@std@@YAPAU_Node@?$_List_nod@MV?$allocator@M@std@@@0@IPAU120@@Z ENDP ; std::_Allocate<std::_List_nod<float,std::allocator<float> >::_Node>
_TEXT	ENDS
PUBLIC	?construct@?$allocator@VioHashString@@@std@@QAEXPAVioHashString@@$$QAV3@@Z ; std::allocator<ioHashString>::construct
EXTRN	__imp_??0ioHashString@@QAE@ABV0@@Z:PROC
EXTRN	___CxxFrameHandler3:PROC
EXTRN	@__security_check_cookie@4:PROC
EXTRN	__EH_epilog3:PROC
EXTRN	__EH_prolog3:PROC
;	COMDAT xdata$x
; File c:\program files (x86)\microsoft visual studio 10.0\vc\include\utility
xdata$x	SEGMENT
__unwindtable$?construct@?$allocator@VioHashString@@@std@@QAEXPAVioHashString@@$$QAV3@@Z DD 0ffffffffH
	DD	FLAT:__unwindfunclet$?construct@?$allocator@VioHashString@@@std@@QAEXPAVioHashString@@$$QAV3@@Z$0
__ehfuncinfo$?construct@?$allocator@VioHashString@@@std@@QAEXPAVioHashString@@$$QAV3@@Z DD 019930522H
	DD	01H
	DD	FLAT:__unwindtable$?construct@?$allocator@VioHashString@@@std@@QAEXPAVioHashString@@$$QAV3@@Z
	DD	2 DUP(00H)
	DD	2 DUP(00H)
	DD	00H
	DD	01H
; Function compile flags: /Ogsp
; File c:\program files (x86)\microsoft visual studio 10.0\vc\include\xmemory
xdata$x	ENDS
;	COMDAT ?construct@?$allocator@VioHashString@@@std@@QAEXPAVioHashString@@$$QAV3@@Z
_TEXT	SEGMENT
$T606310 = -16						; size = 4
__$EHRec$ = -12						; size = 12
__Ptr$ = 8						; size = 4
__Val$ = 12						; size = 4
?construct@?$allocator@VioHashString@@@std@@QAEXPAVioHashString@@$$QAV3@@Z PROC ; std::allocator<ioHashString>::construct, COMDAT
; _this$ = ecx

; 201  : 		{	// construct object at _Ptr with value _Val

  00000	6a 04		 push	 4
  00002	b8 00 00 00 00	 mov	 eax, __ehhandler$?construct@?$allocator@VioHashString@@@std@@QAEXPAVioHashString@@$$QAV3@@Z
  00007	e8 00 00 00 00	 call	 __EH_prolog3

; 202  : 		::new ((void _FARQ *)_Ptr) _Ty(_STD forward<_Ty>(_Val));

  0000c	8b 4d 08	 mov	 ecx, DWORD PTR __Ptr$[ebp]
  0000f	89 4d f0	 mov	 DWORD PTR $T606310[ebp], ecx
  00012	83 65 fc 00	 and	 DWORD PTR __$EHRec$[ebp+8], 0
  00016	85 c9		 test	 ecx, ecx
  00018	74 09		 je	 SHORT $LN3@construct
  0001a	ff 75 0c	 push	 DWORD PTR __Val$[ebp]
  0001d	ff 15 00 00 00
	00		 call	 DWORD PTR __imp_??0ioHashString@@QAE@ABV0@@Z
$LN3@construct:

; 203  : 		}

  00023	e8 00 00 00 00	 call	 __EH_epilog3
  00028	c2 08 00	 ret	 8
_TEXT	ENDS
;	COMDAT text$x
text$x	SEGMENT
__unwindfunclet$?construct@?$allocator@VioHashString@@@std@@QAEXPAVioHashString@@$$QAV3@@Z$0:
  00000	ff 75 08	 push	 DWORD PTR __Ptr$[ebp]
  00003	ff 75 f0	 push	 DWORD PTR $T606310[ebp]
  00006	e8 00 00 00 00	 call	 ??3@YAXPAX0@Z		; operator delete
  0000b	59		 pop	 ecx
  0000c	59		 pop	 ecx
  0000d	c3		 ret	 0
__ehhandler$?construct@?$allocator@VioHashString@@@std@@QAEXPAVioHashString@@$$QAV3@@Z:
  0000e	8b 54 24 08	 mov	 edx, DWORD PTR [esp+8]
  00012	8d 42 0c	 lea	 eax, DWORD PTR [edx+12]
  00015	8b 4a ec	 mov	 ecx, DWORD PTR [edx-20]
  00018	33 c8		 xor	 ecx, eax
  0001a	e8 00 00 00 00	 call	 @__security_check_cookie@4
  0001f	b8 00 00 00 00	 mov	 eax, OFFSET __ehfuncinfo$?construct@?$allocator@VioHashString@@@std@@QAEXPAVioHashString@@$$QAV3@@Z
  00024	e9 00 00 00 00	 jmp	 ___CxxFrameHandler3
text$x	ENDS
?construct@?$allocator@VioHashString@@@std@@QAEXPAVioHashString@@$$QAV3@@Z ENDP ; std::allocator<ioHashString>::construct
PUBLIC	??$forward@AAUAttackAttribute@@@std@@YAAAUAttackAttribute@@AAU1@@Z ; std::forward<AttackAttribute &>
; Function compile flags: /Ogsp
; File c:\program files (x86)\microsoft visual studio 10.0\vc\include\utility
;	COMDAT ??$forward@AAUAttackAttribute@@@std@@YAAAUAttackAttribute@@AAU1@@Z
_TEXT	SEGMENT
__Arg$ = 8						; size = 4
??$forward@AAUAttackAttribute@@@std@@YAAAUAttackAttribute@@AAU1@@Z PROC ; std::forward<AttackAttribute &>, COMDAT

; 78   : 	{	// forward _Arg, given explicitly specified type parameter

  00000	55		 push	 ebp
  00001	8b ec		 mov	 ebp, esp

; 79   : 	return ((_Ty&&)_Arg);

  00003	8b 45 08	 mov	 eax, DWORD PTR __Arg$[ebp]

; 80   : 	}

  00006	5d		 pop	 ebp
  00007	c3		 ret	 0
??$forward@AAUAttackAttribute@@@std@@YAAAUAttackAttribute@@AAU1@@Z ENDP ; std::forward<AttackAttribute &>
_TEXT	ENDS
PUBLIC	??$forward@ABUAttackAttribute@@@std@@YAABUAttackAttribute@@ABU1@@Z ; std::forward<AttackAttribute const &>
; Function compile flags: /Ogsp
;	COMDAT ??$forward@ABUAttackAttribute@@@std@@YAABUAttackAttribute@@ABU1@@Z
_TEXT	SEGMENT
__Arg$ = 8						; size = 4
??$forward@ABUAttackAttribute@@@std@@YAABUAttackAttribute@@ABU1@@Z PROC ; std::forward<AttackAttribute const &>, COMDAT

; 78   : 	{	// forward _Arg, given explicitly specified type parameter

  00000	55		 push	 ebp
  00001	8b ec		 mov	 ebp, esp

; 79   : 	return ((_Ty&&)_Arg);

  00003	8b 45 08	 mov	 eax, DWORD PTR __Arg$[ebp]

; 80   : 	}

  00006	5d		 pop	 ebp
  00007	c3		 ret	 0
??$forward@ABUAttackAttribute@@@std@@YAABUAttackAttribute@@ABU1@@Z ENDP ; std::forward<AttackAttribute const &>
_TEXT	ENDS
PUBLIC	??$_Destroy@U_Node@?$_List_nod@MV?$allocator@M@std@@@std@@@std@@YAXPAU_Node@?$_List_nod@MV?$allocator@M@std@@@0@@Z ; std::_Destroy<std::_List_nod<float,std::allocator<float> >::_Node>
; Function compile flags: /Ogsp
; File c:\program files (x86)\microsoft visual studio 10.0\vc\include\xmemory
;	COMDAT ??$_Destroy@U_Node@?$_List_nod@MV?$allocator@M@std@@@std@@@std@@YAXPAU_Node@?$_List_nod@MV?$allocator@M@std@@@0@@Z
_TEXT	SEGMENT
__Ptr$ = 8						; size = 4
??$_Destroy@U_Node@?$_List_nod@MV?$allocator@M@std@@@std@@@std@@YAXPAU_Node@?$_List_nod@MV?$allocator@M@std@@@0@@Z PROC ; std::_Destroy<std::_List_nod<float,std::allocator<float> >::_Node>, COMDAT

; 63   : 	_Ptr->~_Ty();
; 64   : 	}

  00000	c3		 ret	 0
??$_Destroy@U_Node@?$_List_nod@MV?$allocator@M@std@@@std@@@std@@YAXPAU_Node@?$_List_nod@MV?$allocator@M@std@@@0@@Z ENDP ; std::_Destroy<std::_List_nod<float,std::allocator<float> >::_Node>
_TEXT	ENDS
PUBLIC	??$_Ptr_cat@V?$_Vector_const_iterator@V?$_Vector_val@UWeaponInfo@@V?$allocator@UWeaponInfo@@@std@@@std@@@std@@PAUWeaponInfo@@@std@@YA?AU_Nonscalar_ptr_iterator_tag@0@AAV?$_Vector_const_iterator@V?$_Vector_val@UWeaponInfo@@V?$allocator@UWeaponInfo@@@std@@@std@@@0@AAPAUWeaponInfo@@@Z ; std::_Ptr_cat<std::_Vector_const_iterator<std::_Vector_val<WeaponInfo,std::allocator<WeaponInfo> > >,WeaponInfo *>
; Function compile flags: /Ogsp
; File c:\program files (x86)\microsoft visual studio 10.0\vc\include\xutility
;	COMDAT ??$_Ptr_cat@V?$_Vector_const_iterator@V?$_Vector_val@UWeaponInfo@@V?$allocator@UWeaponInfo@@@std@@@std@@@std@@PAUWeaponInfo@@@std@@YA?AU_Nonscalar_ptr_iterator_tag@0@AAV?$_Vector_const_iterator@V?$_Vector_val@UWeaponInfo@@V?$allocator@UWeaponInfo@@@std@@@std@@@0@AAPAUWeaponInfo@@@Z
_TEXT	SEGMENT
__Cat$ = -1						; size = 1
___formal$ = 8						; size = 4
___formal$ = 12						; size = 4
??$_Ptr_cat@V?$_Vector_const_iterator@V?$_Vector_val@UWeaponInfo@@V?$allocator@UWeaponInfo@@@std@@@std@@@std@@PAUWeaponInfo@@@std@@YA?AU_Nonscalar_ptr_iterator_tag@0@AAV?$_Vector_const_iterator@V?$_Vector_val@UWeaponInfo@@V?$allocator@UWeaponInfo@@@std@@@std@@@0@AAPAUWeaponInfo@@@Z PROC ; std::_Ptr_cat<std::_Vector_const_iterator<std::_Vector_val<WeaponInfo,std::allocator<WeaponInfo> > >,WeaponInfo *>, COMDAT

; 485  : 	{	// return pointer category from arbitrary arguments

  00000	55		 push	 ebp
  00001	8b ec		 mov	 ebp, esp
  00003	51		 push	 ecx

; 486  : 	_Nonscalar_ptr_iterator_tag _Cat;
; 487  : 	return (_Cat);

  00004	8a 45 ff	 mov	 al, BYTE PTR __Cat$[ebp]

; 488  : 	}

  00007	c9		 leave
  00008	c3		 ret	 0
??$_Ptr_cat@V?$_Vector_const_iterator@V?$_Vector_val@UWeaponInfo@@V?$allocator@UWeaponInfo@@@std@@@std@@@std@@PAUWeaponInfo@@@std@@YA?AU_Nonscalar_ptr_iterator_tag@0@AAV?$_Vector_const_iterator@V?$_Vector_val@UWeaponInfo@@V?$allocator@UWeaponInfo@@@std@@@std@@@0@AAPAUWeaponInfo@@@Z ENDP ; std::_Ptr_cat<std::_Vector_const_iterator<std::_Vector_val<WeaponInfo,std::allocator<WeaponInfo> > >,WeaponInfo *>
_TEXT	ENDS
PUBLIC	??$_Ptr_cat@V?$_Vector_const_iterator@V?$_Vector_val@UForceInfo@@V?$allocator@UForceInfo@@@std@@@std@@@std@@PAUForceInfo@@@std@@YA?AU_Nonscalar_ptr_iterator_tag@0@AAV?$_Vector_const_iterator@V?$_Vector_val@UForceInfo@@V?$allocator@UForceInfo@@@std@@@std@@@0@AAPAUForceInfo@@@Z ; std::_Ptr_cat<std::_Vector_const_iterator<std::_Vector_val<ForceInfo,std::allocator<ForceInfo> > >,ForceInfo *>
; Function compile flags: /Ogsp
;	COMDAT ??$_Ptr_cat@V?$_Vector_const_iterator@V?$_Vector_val@UForceInfo@@V?$allocator@UForceInfo@@@std@@@std@@@std@@PAUForceInfo@@@std@@YA?AU_Nonscalar_ptr_iterator_tag@0@AAV?$_Vector_const_iterator@V?$_Vector_val@UForceInfo@@V?$allocator@UForceInfo@@@std@@@std@@@0@AAPAUForceInfo@@@Z
_TEXT	SEGMENT
__Cat$ = -1						; size = 1
___formal$ = 8						; size = 4
___formal$ = 12						; size = 4
??$_Ptr_cat@V?$_Vector_const_iterator@V?$_Vector_val@UForceInfo@@V?$allocator@UForceInfo@@@std@@@std@@@std@@PAUForceInfo@@@std@@YA?AU_Nonscalar_ptr_iterator_tag@0@AAV?$_Vector_const_iterator@V?$_Vector_val@UForceInfo@@V?$allocator@UForceInfo@@@std@@@std@@@0@AAPAUForceInfo@@@Z PROC ; std::_Ptr_cat<std::_Vector_const_iterator<std::_Vector_val<ForceInfo,std::allocator<ForceInfo> > >,ForceInfo *>, COMDAT

; 485  : 	{	// return pointer category from arbitrary arguments

  00000	55		 push	 ebp
  00001	8b ec		 mov	 ebp, esp
  00003	51		 push	 ecx

; 486  : 	_Nonscalar_ptr_iterator_tag _Cat;
; 487  : 	return (_Cat);

  00004	8a 45 ff	 mov	 al, BYTE PTR __Cat$[ebp]

; 488  : 	}

  00007	c9		 leave
  00008	c3		 ret	 0
??$_Ptr_cat@V?$_Vector_const_iterator@V?$_Vector_val@UForceInfo@@V?$allocator@UForceInfo@@@std@@@std@@@std@@PAUForceInfo@@@std@@YA?AU_Nonscalar_ptr_iterator_tag@0@AAV?$_Vector_const_iterator@V?$_Vector_val@UForceInfo@@V?$allocator@UForceInfo@@@std@@@std@@@0@AAPAUForceInfo@@@Z ENDP ; std::_Ptr_cat<std::_Vector_const_iterator<std::_Vector_val<ForceInfo,std::allocator<ForceInfo> > >,ForceInfo *>
_TEXT	ENDS
PUBLIC	??$_Ptr_cat@V?$_Vector_const_iterator@V?$_Vector_val@UAttackAttribute@@V?$allocator@UAttackAttribute@@@std@@@std@@@std@@PAUAttackAttribute@@@std@@YA?AU_Nonscalar_ptr_iterator_tag@0@AAV?$_Vector_const_iterator@V?$_Vector_val@UAttackAttribute@@V?$allocator@UAttackAttribute@@@std@@@std@@@0@AAPAUAttackAttribute@@@Z ; std::_Ptr_cat<std::_Vector_const_iterator<std::_Vector_val<AttackAttribute,std::allocator<AttackAttribute> > >,AttackAttribute *>
; Function compile flags: /Ogsp
;	COMDAT ??$_Ptr_cat@V?$_Vector_const_iterator@V?$_Vector_val@UAttackAttribute@@V?$allocator@UAttackAttribute@@@std@@@std@@@std@@PAUAttackAttribute@@@std@@YA?AU_Nonscalar_ptr_iterator_tag@0@AAV?$_Vector_const_iterator@V?$_Vector_val@UAttackAttribute@@V?$allocator@UAttackAttribute@@@std@@@std@@@0@AAPAUAttackAttribute@@@Z
_TEXT	SEGMENT
__Cat$ = -1						; size = 1
___formal$ = 8						; size = 4
___formal$ = 12						; size = 4
??$_Ptr_cat@V?$_Vector_const_iterator@V?$_Vector_val@UAttackAttribute@@V?$allocator@UAttackAttribute@@@std@@@std@@@std@@PAUAttackAttribute@@@std@@YA?AU_Nonscalar_ptr_iterator_tag@0@AAV?$_Vector_const_iterator@V?$_Vector_val@UAttackAttribute@@V?$allocator@UAttackAttribute@@@std@@@std@@@0@AAPAUAttackAttribute@@@Z PROC ; std::_Ptr_cat<std::_Vector_const_iterator<std::_Vector_val<AttackAttribute,std::allocator<AttackAttribute> > >,AttackAttribute *>, COMDAT

; 485  : 	{	// return pointer category from arbitrary arguments

  00000	55		 push	 ebp
  00001	8b ec		 mov	 ebp, esp
  00003	51		 push	 ecx

; 486  : 	_Nonscalar_ptr_iterator_tag _Cat;
; 487  : 	return (_Cat);

  00004	8a 45 ff	 mov	 al, BYTE PTR __Cat$[ebp]

; 488  : 	}

  00007	c9		 leave
  00008	c3		 ret	 0
??$_Ptr_cat@V?$_Vector_const_iterator@V?$_Vector_val@UAttackAttribute@@V?$allocator@UAttackAttribute@@@std@@@std@@@std@@PAUAttackAttribute@@@std@@YA?AU_Nonscalar_ptr_iterator_tag@0@AAV?$_Vector_const_iterator@V?$_Vector_val@UAttackAttribute@@V?$allocator@UAttackAttribute@@@std@@@std@@@0@AAPAUAttackAttribute@@@Z ENDP ; std::_Ptr_cat<std::_Vector_const_iterator<std::_Vector_val<AttackAttribute,std::allocator<AttackAttribute> > >,AttackAttribute *>
_TEXT	ENDS
PUBLIC	??$_Val_type@PAUAttackAttribute@@@std@@YAPAUAttackAttribute@@PAU1@@Z ; std::_Val_type<AttackAttribute *>
; Function compile flags: /Ogsp
;	COMDAT ??$_Val_type@PAUAttackAttribute@@@std@@YAPAUAttackAttribute@@PAU1@@Z
_TEXT	SEGMENT
___formal$ = 8						; size = 4
??$_Val_type@PAUAttackAttribute@@@std@@YAPAUAttackAttribute@@PAU1@@Z PROC ; std::_Val_type<AttackAttribute *>, COMDAT

; 790  : 	return (0);

  00000	33 c0		 xor	 eax, eax

; 791  : 	}

  00002	c3		 ret	 0
??$_Val_type@PAUAttackAttribute@@@std@@YAPAUAttackAttribute@@PAU1@@Z ENDP ; std::_Val_type<AttackAttribute *>
_TEXT	ENDS
PUBLIC	??$_Val_type@PAVioHashString@@@std@@YAPAVioHashString@@PAV1@@Z ; std::_Val_type<ioHashString *>
; Function compile flags: /Ogsp
;	COMDAT ??$_Val_type@PAVioHashString@@@std@@YAPAVioHashString@@PAV1@@Z
_TEXT	SEGMENT
___formal$ = 8						; size = 4
??$_Val_type@PAVioHashString@@@std@@YAPAVioHashString@@PAV1@@Z PROC ; std::_Val_type<ioHashString *>, COMDAT

; 790  : 	return (0);

  00000	33 c0		 xor	 eax, eax

; 791  : 	}

  00002	c3		 ret	 0
??$_Val_type@PAVioHashString@@@std@@YAPAVioHashString@@PAV1@@Z ENDP ; std::_Val_type<ioHashString *>
_TEXT	ENDS
PUBLIC	??D?$_Vector_const_iterator@V?$_Vector_val@UAttackAttribute@@V?$allocator@UAttackAttribute@@@std@@@std@@@std@@QBEABUAttackAttribute@@XZ ; std::_Vector_const_iterator<std::_Vector_val<AttackAttribute,std::allocator<AttackAttribute> > >::operator*
; Function compile flags: /Ogsp
; File c:\program files (x86)\microsoft visual studio 10.0\vc\include\vector
;	COMDAT ??D?$_Vector_const_iterator@V?$_Vector_val@UAttackAttribute@@V?$allocator@UAttackAttribute@@@std@@@std@@@std@@QBEABUAttackAttribute@@XZ
_TEXT	SEGMENT
??D?$_Vector_const_iterator@V?$_Vector_val@UAttackAttribute@@V?$allocator@UAttackAttribute@@@std@@@std@@@std@@QBEABUAttackAttribute@@XZ PROC ; std::_Vector_const_iterator<std::_Vector_val<AttackAttribute,std::allocator<AttackAttribute> > >::operator*, COMDAT
; _this$ = ecx

; 64   :  #if _ITERATOR_DEBUG_LEVEL == 2
; 65   : 		if (this->_Getcont() == 0
; 66   : 			|| this->_Ptr == 0
; 67   : 			|| this->_Ptr < ((_Myvec *)this->_Getcont())->_Myfirst
; 68   : 			|| ((_Myvec *)this->_Getcont())->_Mylast <= this->_Ptr)
; 69   : 			{	// report error
; 70   : 			_DEBUG_ERROR("vector iterator not dereferencable");
; 71   : 			_SCL_SECURE_OUT_OF_RANGE;
; 72   : 			}
; 73   : 
; 74   :  #elif _ITERATOR_DEBUG_LEVEL == 1
; 75   : 		_SCL_SECURE_VALIDATE(this->_Getcont() != 0);
; 76   : 		_SCL_SECURE_VALIDATE_RANGE(
; 77   : 			this->_Ptr != 0
; 78   : 			&& ((_Myvec *)this->_Getcont())->_Myfirst <= this->_Ptr
; 79   : 			&& this->_Ptr < ((_Myvec *)this->_Getcont())->_Mylast);
; 80   :  #endif /* _ITERATOR_DEBUG_LEVEL */
; 81   : 
; 82   : 		__analysis_assume(this->_Ptr != 0);
; 83   : 
; 84   : 		return (*this->_Ptr);

  00000	8b 01		 mov	 eax, DWORD PTR [ecx]

; 85   : 		}

  00002	c3		 ret	 0
??D?$_Vector_const_iterator@V?$_Vector_val@UAttackAttribute@@V?$allocator@UAttackAttribute@@@std@@@std@@@std@@QBEABUAttackAttribute@@XZ ENDP ; std::_Vector_const_iterator<std::_Vector_val<AttackAttribute,std::allocator<AttackAttribute> > >::operator*
_TEXT	ENDS
PUBLIC	??E?$_Vector_const_iterator@V?$_Vector_val@UAttackAttribute@@V?$allocator@UAttackAttribute@@@std@@@std@@@std@@QAEAAV01@XZ ; std::_Vector_const_iterator<std::_Vector_val<AttackAttribute,std::allocator<AttackAttribute> > >::operator++
; Function compile flags: /Ogsp
;	COMDAT ??E?$_Vector_const_iterator@V?$_Vector_val@UAttackAttribute@@V?$allocator@UAttackAttribute@@@std@@@std@@@std@@QAEAAV01@XZ
_TEXT	SEGMENT
??E?$_Vector_const_iterator@V?$_Vector_val@UAttackAttribute@@V?$allocator@UAttackAttribute@@@std@@@std@@@std@@QAEAAV01@XZ PROC ; std::_Vector_const_iterator<std::_Vector_val<AttackAttribute,std::allocator<AttackAttribute> > >::operator++, COMDAT
; _this$ = ecx

; 93   : 		{	// preincrement

  00000	8b c1		 mov	 eax, ecx

; 94   :  #if _ITERATOR_DEBUG_LEVEL == 2
; 95   : 		if (this->_Getcont() == 0
; 96   : 			|| this->_Ptr == 0
; 97   : 			|| ((_Myvec *)this->_Getcont())->_Mylast <= this->_Ptr)
; 98   : 			{	// report error
; 99   : 			_DEBUG_ERROR("vector iterator not incrementable");
; 100  : 			_SCL_SECURE_OUT_OF_RANGE;
; 101  : 			}
; 102  : 
; 103  :  #elif _ITERATOR_DEBUG_LEVEL == 1
; 104  : 		_SCL_SECURE_VALIDATE(this->_Getcont() != 0);
; 105  : 		_SCL_SECURE_VALIDATE_RANGE(
; 106  : 			this->_Ptr != 0
; 107  : 			&& this->_Ptr < ((_Myvec *)this->_Getcont())->_Mylast);
; 108  :  #endif /* _ITERATOR_DEBUG_LEVEL */
; 109  : 
; 110  : 		++this->_Ptr;

  00002	83 00 50	 add	 DWORD PTR [eax], 80	; 00000050H

; 111  : 		return (*this);
; 112  : 		}

  00005	c3		 ret	 0
??E?$_Vector_const_iterator@V?$_Vector_val@UAttackAttribute@@V?$allocator@UAttackAttribute@@@std@@@std@@@std@@QAEAAV01@XZ ENDP ; std::_Vector_const_iterator<std::_Vector_val<AttackAttribute,std::allocator<AttackAttribute> > >::operator++
_TEXT	ENDS
PUBLIC	??D?$_Vector_const_iterator@V?$_Vector_val@UWeaponInfo@@V?$allocator@UWeaponInfo@@@std@@@std@@@std@@QBEABUWeaponInfo@@XZ ; std::_Vector_const_iterator<std::_Vector_val<WeaponInfo,std::allocator<WeaponInfo> > >::operator*
; Function compile flags: /Ogsp
;	COMDAT ??D?$_Vector_const_iterator@V?$_Vector_val@UWeaponInfo@@V?$allocator@UWeaponInfo@@@std@@@std@@@std@@QBEABUWeaponInfo@@XZ
_TEXT	SEGMENT
??D?$_Vector_const_iterator@V?$_Vector_val@UWeaponInfo@@V?$allocator@UWeaponInfo@@@std@@@std@@@std@@QBEABUWeaponInfo@@XZ PROC ; std::_Vector_const_iterator<std::_Vector_val<WeaponInfo,std::allocator<WeaponInfo> > >::operator*, COMDAT
; _this$ = ecx

; 64   :  #if _ITERATOR_DEBUG_LEVEL == 2
; 65   : 		if (this->_Getcont() == 0
; 66   : 			|| this->_Ptr == 0
; 67   : 			|| this->_Ptr < ((_Myvec *)this->_Getcont())->_Myfirst
; 68   : 			|| ((_Myvec *)this->_Getcont())->_Mylast <= this->_Ptr)
; 69   : 			{	// report error
; 70   : 			_DEBUG_ERROR("vector iterator not dereferencable");
; 71   : 			_SCL_SECURE_OUT_OF_RANGE;
; 72   : 			}
; 73   : 
; 74   :  #elif _ITERATOR_DEBUG_LEVEL == 1
; 75   : 		_SCL_SECURE_VALIDATE(this->_Getcont() != 0);
; 76   : 		_SCL_SECURE_VALIDATE_RANGE(
; 77   : 			this->_Ptr != 0
; 78   : 			&& ((_Myvec *)this->_Getcont())->_Myfirst <= this->_Ptr
; 79   : 			&& this->_Ptr < ((_Myvec *)this->_Getcont())->_Mylast);
; 80   :  #endif /* _ITERATOR_DEBUG_LEVEL */
; 81   : 
; 82   : 		__analysis_assume(this->_Ptr != 0);
; 83   : 
; 84   : 		return (*this->_Ptr);

  00000	8b 01		 mov	 eax, DWORD PTR [ecx]

; 85   : 		}

  00002	c3		 ret	 0
??D?$_Vector_const_iterator@V?$_Vector_val@UWeaponInfo@@V?$allocator@UWeaponInfo@@@std@@@std@@@std@@QBEABUWeaponInfo@@XZ ENDP ; std::_Vector_const_iterator<std::_Vector_val<WeaponInfo,std::allocator<WeaponInfo> > >::operator*
_TEXT	ENDS
PUBLIC	??E?$_Vector_const_iterator@V?$_Vector_val@UWeaponInfo@@V?$allocator@UWeaponInfo@@@std@@@std@@@std@@QAEAAV01@XZ ; std::_Vector_const_iterator<std::_Vector_val<WeaponInfo,std::allocator<WeaponInfo> > >::operator++
; Function compile flags: /Ogsp
;	COMDAT ??E?$_Vector_const_iterator@V?$_Vector_val@UWeaponInfo@@V?$allocator@UWeaponInfo@@@std@@@std@@@std@@QAEAAV01@XZ
_TEXT	SEGMENT
??E?$_Vector_const_iterator@V?$_Vector_val@UWeaponInfo@@V?$allocator@UWeaponInfo@@@std@@@std@@@std@@QAEAAV01@XZ PROC ; std::_Vector_const_iterator<std::_Vector_val<WeaponInfo,std::allocator<WeaponInfo> > >::operator++, COMDAT
; _this$ = ecx

; 93   : 		{	// preincrement

  00000	8b c1		 mov	 eax, ecx

; 94   :  #if _ITERATOR_DEBUG_LEVEL == 2
; 95   : 		if (this->_Getcont() == 0
; 96   : 			|| this->_Ptr == 0
; 97   : 			|| ((_Myvec *)this->_Getcont())->_Mylast <= this->_Ptr)
; 98   : 			{	// report error
; 99   : 			_DEBUG_ERROR("vector iterator not incrementable");
; 100  : 			_SCL_SECURE_OUT_OF_RANGE;
; 101  : 			}
; 102  : 
; 103  :  #elif _ITERATOR_DEBUG_LEVEL == 1
; 104  : 		_SCL_SECURE_VALIDATE(this->_Getcont() != 0);
; 105  : 		_SCL_SECURE_VALIDATE_RANGE(
; 106  : 			this->_Ptr != 0
; 107  : 			&& this->_Ptr < ((_Myvec *)this->_Getcont())->_Mylast);
; 108  :  #endif /* _ITERATOR_DEBUG_LEVEL */
; 109  : 
; 110  : 		++this->_Ptr;

  00002	83 00 28	 add	 DWORD PTR [eax], 40	; 00000028H

; 111  : 		return (*this);
; 112  : 		}

  00005	c3		 ret	 0
??E?$_Vector_const_iterator@V?$_Vector_val@UWeaponInfo@@V?$allocator@UWeaponInfo@@@std@@@std@@@std@@QAEAAV01@XZ ENDP ; std::_Vector_const_iterator<std::_Vector_val<WeaponInfo,std::allocator<WeaponInfo> > >::operator++
_TEXT	ENDS
PUBLIC	??D?$_Vector_const_iterator@V?$_Vector_val@UForceInfo@@V?$allocator@UForceInfo@@@std@@@std@@@std@@QBEABUForceInfo@@XZ ; std::_Vector_const_iterator<std::_Vector_val<ForceInfo,std::allocator<ForceInfo> > >::operator*
; Function compile flags: /Ogsp
;	COMDAT ??D?$_Vector_const_iterator@V?$_Vector_val@UForceInfo@@V?$allocator@UForceInfo@@@std@@@std@@@std@@QBEABUForceInfo@@XZ
_TEXT	SEGMENT
??D?$_Vector_const_iterator@V?$_Vector_val@UForceInfo@@V?$allocator@UForceInfo@@@std@@@std@@@std@@QBEABUForceInfo@@XZ PROC ; std::_Vector_const_iterator<std::_Vector_val<ForceInfo,std::allocator<ForceInfo> > >::operator*, COMDAT
; _this$ = ecx

; 64   :  #if _ITERATOR_DEBUG_LEVEL == 2
; 65   : 		if (this->_Getcont() == 0
; 66   : 			|| this->_Ptr == 0
; 67   : 			|| this->_Ptr < ((_Myvec *)this->_Getcont())->_Myfirst
; 68   : 			|| ((_Myvec *)this->_Getcont())->_Mylast <= this->_Ptr)
; 69   : 			{	// report error
; 70   : 			_DEBUG_ERROR("vector iterator not dereferencable");
; 71   : 			_SCL_SECURE_OUT_OF_RANGE;
; 72   : 			}
; 73   : 
; 74   :  #elif _ITERATOR_DEBUG_LEVEL == 1
; 75   : 		_SCL_SECURE_VALIDATE(this->_Getcont() != 0);
; 76   : 		_SCL_SECURE_VALIDATE_RANGE(
; 77   : 			this->_Ptr != 0
; 78   : 			&& ((_Myvec *)this->_Getcont())->_Myfirst <= this->_Ptr
; 79   : 			&& this->_Ptr < ((_Myvec *)this->_Getcont())->_Mylast);
; 80   :  #endif /* _ITERATOR_DEBUG_LEVEL */
; 81   : 
; 82   : 		__analysis_assume(this->_Ptr != 0);
; 83   : 
; 84   : 		return (*this->_Ptr);

  00000	8b 01		 mov	 eax, DWORD PTR [ecx]

; 85   : 		}

  00002	c3		 ret	 0
??D?$_Vector_const_iterator@V?$_Vector_val@UForceInfo@@V?$allocator@UForceInfo@@@std@@@std@@@std@@QBEABUForceInfo@@XZ ENDP ; std::_Vector_const_iterator<std::_Vector_val<ForceInfo,std::allocator<ForceInfo> > >::operator*
_TEXT	ENDS
PUBLIC	??E?$_Vector_const_iterator@V?$_Vector_val@UForceInfo@@V?$allocator@UForceInfo@@@std@@@std@@@std@@QAEAAV01@XZ ; std::_Vector_const_iterator<std::_Vector_val<ForceInfo,std::allocator<ForceInfo> > >::operator++
; Function compile flags: /Ogsp
;	COMDAT ??E?$_Vector_const_iterator@V?$_Vector_val@UForceInfo@@V?$allocator@UForceInfo@@@std@@@std@@@std@@QAEAAV01@XZ
_TEXT	SEGMENT
??E?$_Vector_const_iterator@V?$_Vector_val@UForceInfo@@V?$allocator@UForceInfo@@@std@@@std@@@std@@QAEAAV01@XZ PROC ; std::_Vector_const_iterator<std::_Vector_val<ForceInfo,std::allocator<ForceInfo> > >::operator++, COMDAT
; _this$ = ecx

; 93   : 		{	// preincrement

  00000	8b c1		 mov	 eax, ecx

; 94   :  #if _ITERATOR_DEBUG_LEVEL == 2
; 95   : 		if (this->_Getcont() == 0
; 96   : 			|| this->_Ptr == 0
; 97   : 			|| ((_Myvec *)this->_Getcont())->_Mylast <= this->_Ptr)
; 98   : 			{	// report error
; 99   : 			_DEBUG_ERROR("vector iterator not incrementable");
; 100  : 			_SCL_SECURE_OUT_OF_RANGE;
; 101  : 			}
; 102  : 
; 103  :  #elif _ITERATOR_DEBUG_LEVEL == 1
; 104  : 		_SCL_SECURE_VALIDATE(this->_Getcont() != 0);
; 105  : 		_SCL_SECURE_VALIDATE_RANGE(
; 106  : 			this->_Ptr != 0
; 107  : 			&& this->_Ptr < ((_Myvec *)this->_Getcont())->_Mylast);
; 108  :  #endif /* _ITERATOR_DEBUG_LEVEL */
; 109  : 
; 110  : 		++this->_Ptr;

  00002	83 00 0c	 add	 DWORD PTR [eax], 12	; 0000000cH

; 111  : 		return (*this);
; 112  : 		}

  00005	c3		 ret	 0
??E?$_Vector_const_iterator@V?$_Vector_val@UForceInfo@@V?$allocator@UForceInfo@@@std@@@std@@@std@@QAEAAV01@XZ ENDP ; std::_Vector_const_iterator<std::_Vector_val<ForceInfo,std::allocator<ForceInfo> > >::operator++
_TEXT	ENDS
PUBLIC	??$forward@ABUWeaponInfo@@@std@@YAABUWeaponInfo@@ABU1@@Z ; std::forward<WeaponInfo const &>
; Function compile flags: /Ogsp
; File c:\program files (x86)\microsoft visual studio 10.0\vc\include\utility
;	COMDAT ??$forward@ABUWeaponInfo@@@std@@YAABUWeaponInfo@@ABU1@@Z
_TEXT	SEGMENT
__Arg$ = 8						; size = 4
??$forward@ABUWeaponInfo@@@std@@YAABUWeaponInfo@@ABU1@@Z PROC ; std::forward<WeaponInfo const &>, COMDAT

; 78   : 	{	// forward _Arg, given explicitly specified type parameter

  00000	55		 push	 ebp
  00001	8b ec		 mov	 ebp, esp

; 79   : 	return ((_Ty&&)_Arg);

  00003	8b 45 08	 mov	 eax, DWORD PTR __Arg$[ebp]

; 80   : 	}

  00006	5d		 pop	 ebp
  00007	c3		 ret	 0
??$forward@ABUWeaponInfo@@@std@@YAABUWeaponInfo@@ABU1@@Z ENDP ; std::forward<WeaponInfo const &>
_TEXT	ENDS
PUBLIC	??$forward@ABUForceInfo@@@std@@YAABUForceInfo@@ABU1@@Z ; std::forward<ForceInfo const &>
; Function compile flags: /Ogsp
;	COMDAT ??$forward@ABUForceInfo@@@std@@YAABUForceInfo@@ABU1@@Z
_TEXT	SEGMENT
__Arg$ = 8						; size = 4
??$forward@ABUForceInfo@@@std@@YAABUForceInfo@@ABU1@@Z PROC ; std::forward<ForceInfo const &>, COMDAT

; 78   : 	{	// forward _Arg, given explicitly specified type parameter

  00000	55		 push	 ebp
  00001	8b ec		 mov	 ebp, esp

; 79   : 	return ((_Ty&&)_Arg);

  00003	8b 45 08	 mov	 eax, DWORD PTR __Arg$[ebp]

; 80   : 	}

  00006	5d		 pop	 ebp
  00007	c3		 ret	 0
??$forward@ABUForceInfo@@@std@@YAABUForceInfo@@ABU1@@Z ENDP ; std::forward<ForceInfo const &>
_TEXT	ENDS
PUBLIC	??$forward@UAttackAttribute@@@std@@YA$$QAUAttackAttribute@@AAU1@@Z ; std::forward<AttackAttribute>
; Function compile flags: /Ogsp
;	COMDAT ??$forward@UAttackAttribute@@@std@@YA$$QAUAttackAttribute@@AAU1@@Z
_TEXT	SEGMENT
__Arg$ = 8						; size = 4
??$forward@UAttackAttribute@@@std@@YA$$QAUAttackAttribute@@AAU1@@Z PROC ; std::forward<AttackAttribute>, COMDAT

; 78   : 	{	// forward _Arg, given explicitly specified type parameter

  00000	55		 push	 ebp
  00001	8b ec		 mov	 ebp, esp

; 79   : 	return ((_Ty&&)_Arg);

  00003	8b 45 08	 mov	 eax, DWORD PTR __Arg$[ebp]

; 80   : 	}

  00006	5d		 pop	 ebp
  00007	c3		 ret	 0
??$forward@UAttackAttribute@@@std@@YA$$QAUAttackAttribute@@AAU1@@Z ENDP ; std::forward<AttackAttribute>
_TEXT	ENDS
PUBLIC	??$_Construct@UForceInfo@@ABU1@@std@@YAXPAUForceInfo@@ABU1@@Z ; std::_Construct<ForceInfo,ForceInfo const &>
; Function compile flags: /Ogsp
; File c:\program files (x86)\microsoft visual studio 10.0\vc\include\xmemory
;	COMDAT ??$_Construct@UForceInfo@@ABU1@@std@@YAXPAUForceInfo@@ABU1@@Z
_TEXT	SEGMENT
__Ptr$ = 8						; size = 4
__Val$ = 12						; size = 4
??$_Construct@UForceInfo@@ABU1@@std@@YAXPAUForceInfo@@ABU1@@Z PROC ; std::_Construct<ForceInfo,ForceInfo const &>, COMDAT

; 46   : 	{	// construct object at _Ptr with value _Val

  00000	55		 push	 ebp
  00001	8b ec		 mov	 ebp, esp
  00003	57		 push	 edi

; 47   : 	void _FARQ *_Vptr = _Ptr;
; 48   : 	::new (_Vptr) _Ty1(_STD forward<_Ty2>(_Val));

  00004	8b 7d 08	 mov	 edi, DWORD PTR __Ptr$[ebp]
  00007	85 ff		 test	 edi, edi
  00009	74 08		 je	 SHORT $LN3@Construct
  0000b	56		 push	 esi
  0000c	8b 75 0c	 mov	 esi, DWORD PTR __Val$[ebp]
  0000f	a5		 movsd
  00010	a5		 movsd
  00011	a5		 movsd
  00012	5e		 pop	 esi
$LN3@Construct:
  00013	5f		 pop	 edi

; 49   : 	}

  00014	5d		 pop	 ebp
  00015	c3		 ret	 0
??$_Construct@UForceInfo@@ABU1@@std@@YAXPAUForceInfo@@ABU1@@Z ENDP ; std::_Construct<ForceInfo,ForceInfo const &>
_TEXT	ENDS
PUBLIC	?_DECSTR@@YAXPADH@Z				; _DECSTR
; Function compile flags: /Ogsp
; File d:\lost saga for developer\youtube\tutorial\source\src\lsclient\stringprotect.h
;	COMDAT ?_DECSTR@@YAXPADH@Z
_TEXT	SEGMENT
_s$ = 8							; size = 4
_l$ = 12						; size = 4
?_DECSTR@@YAXPADH@Z PROC				; _DECSTR, COMDAT

; 40   : __forceinline void _DECSTR(char* s, int l){int i=0,l4=(l-1)/4,*p=(int*)s;s[l-1]=0;for(;i<l4;++i)*(p++)^=0xEAEBECED;for(i=l4*4;i<l-1;++i)s[i]^=0xED-i%4;}

  00000	55		 push	 ebp
  00001	8b ec		 mov	 ebp, esp
  00003	8b 4d 0c	 mov	 ecx, DWORD PTR _l$[ebp]
  00006	56		 push	 esi
  00007	8b 75 08	 mov	 esi, DWORD PTR _s$[ebp]
  0000a	57		 push	 edi
  0000b	8d 79 ff	 lea	 edi, DWORD PTR [ecx-1]
  0000e	8b c7		 mov	 eax, edi
  00010	99		 cdq
  00011	83 e2 03	 and	 edx, 3
  00014	03 c2		 add	 eax, edx
  00016	c1 f8 02	 sar	 eax, 2
  00019	8b d6		 mov	 edx, esi
  0001b	c6 44 0e ff 00	 mov	 BYTE PTR [esi+ecx-1], 0
  00020	85 c0		 test	 eax, eax
  00022	7e 0e		 jle	 SHORT $LN4@DECSTR
  00024	8b c8		 mov	 ecx, eax
$LL6@DECSTR:
  00026	81 32 ed ec eb
	ea		 xor	 DWORD PTR [edx], -353637139 ; eaebecedH
  0002c	83 c2 04	 add	 edx, 4
  0002f	49		 dec	 ecx
  00030	75 f4		 jne	 SHORT $LL6@DECSTR
$LN4@DECSTR:
  00032	c1 e0 02	 shl	 eax, 2
  00035	eb 17		 jmp	 SHORT $LN14@DECSTR
$LL3@DECSTR:
  00037	8b c8		 mov	 ecx, eax
  00039	81 e1 03 00 00
	80		 and	 ecx, -2147483645	; 80000003H
  0003f	79 05		 jns	 SHORT $LN13@DECSTR
  00041	49		 dec	 ecx
  00042	83 c9 fc	 or	 ecx, -4			; fffffffcH
  00045	41		 inc	 ecx
$LN13@DECSTR:
  00046	b2 ed		 mov	 dl, -19			; ffffffedH
  00048	2a d1		 sub	 dl, cl
  0004a	30 14 30	 xor	 BYTE PTR [eax+esi], dl
  0004d	40		 inc	 eax
$LN14@DECSTR:
  0004e	3b c7		 cmp	 eax, edi
  00050	7c e5		 jl	 SHORT $LL3@DECSTR
  00052	5f		 pop	 edi
  00053	5e		 pop	 esi
  00054	5d		 pop	 ebp
  00055	c3		 ret	 0
?_DECSTR@@YAXPADH@Z ENDP				; _DECSTR
_TEXT	ENDS
PUBLIC	?GetGroup@ioGameEntity@@QBEPAVioEntityGroup@@XZ	; ioGameEntity::GetGroup
; Function compile flags: /Ogsp
; File d:\lost saga for developer\youtube\tutorial\source\src\lsclient\iogameentity.h
;	COMDAT ?GetGroup@ioGameEntity@@QBEPAVioEntityGroup@@XZ
_TEXT	SEGMENT
?GetGroup@ioGameEntity@@QBEPAVioEntityGroup@@XZ PROC	; ioGameEntity::GetGroup, COMDAT
; _this$ = ecx

; 166  : 	inline ioEntityGroup* GetGroup() const { return m_pGroup; }

  00000	8b 41 04	 mov	 eax, DWORD PTR [ecx+4]
  00003	c3		 ret	 0
?GetGroup@ioGameEntity@@QBEPAVioEntityGroup@@XZ ENDP	; ioGameEntity::GetGroup
_TEXT	ENDS
PUBLIC	??1WeaponInfo@@QAE@XZ				; WeaponInfo::~WeaponInfo
EXTRN	__imp_??1ioHashString@@QAE@XZ:PROC
; Function compile flags: /Ogsp
;	COMDAT ??1WeaponInfo@@QAE@XZ
_TEXT	SEGMENT
??1WeaponInfo@@QAE@XZ PROC				; WeaponInfo::~WeaponInfo, COMDAT
; _this$ = ecx
  00000	83 c1 08	 add	 ecx, 8
  00003	ff 25 00 00 00
	00		 jmp	 DWORD PTR __imp_??1ioHashString@@QAE@XZ
??1WeaponInfo@@QAE@XZ ENDP				; WeaponInfo::~WeaponInfo
_TEXT	ENDS
PUBLIC	?size@?$vector@VioHashString@@V?$allocator@VioHashString@@@std@@@std@@QBEIXZ ; std::vector<ioHashString,std::allocator<ioHashString> >::size
; Function compile flags: /Ogsp
; File c:\program files (x86)\microsoft visual studio 10.0\vc\include\vector
;	COMDAT ?size@?$vector@VioHashString@@V?$allocator@VioHashString@@@std@@@std@@QBEIXZ
_TEXT	SEGMENT
?size@?$vector@VioHashString@@V?$allocator@VioHashString@@@std@@@std@@QBEIXZ PROC ; std::vector<ioHashString,std::allocator<ioHashString> >::size, COMDAT
; _this$ = ecx

; 879  : 		return (this->_Mylast - this->_Myfirst);

  00000	8b 41 04	 mov	 eax, DWORD PTR [ecx+4]
  00003	2b 01		 sub	 eax, DWORD PTR [ecx]
  00005	c1 f8 04	 sar	 eax, 4

; 880  : 		}

  00008	c3		 ret	 0
?size@?$vector@VioHashString@@V?$allocator@VioHashString@@@std@@@std@@QBEIXZ ENDP ; std::vector<ioHashString,std::allocator<ioHashString> >::size
_TEXT	ENDS
PUBLIC	??_7?$CEncrypt@K@@6B@				; CEncrypt<unsigned long>::`vftable'
PUBLIC	??1?$CEncrypt@K@@UAE@XZ				; CEncrypt<unsigned long>::~CEncrypt<unsigned long>
PUBLIC	??_R4?$CEncrypt@K@@6B@				; CEncrypt<unsigned long>::`RTTI Complete Object Locator'
PUBLIC	??_R0?AV?$CEncrypt@K@@@8			; CEncrypt<unsigned long> `RTTI Type Descriptor'
PUBLIC	??_R3?$CEncrypt@K@@8				; CEncrypt<unsigned long>::`RTTI Class Hierarchy Descriptor'
PUBLIC	??_R2?$CEncrypt@K@@8				; CEncrypt<unsigned long>::`RTTI Base Class Array'
PUBLIC	??_R1A@?0A@EA@?$CEncrypt@K@@8			; CEncrypt<unsigned long>::`RTTI Base Class Descriptor at (0,-1,0,64)'
EXTRN	??1ccddaabb@@UAE@XZ:PROC			; ccddaabb::~ccddaabb
EXTRN	??_E?$CEncrypt@K@@UAEPAXI@Z:PROC		; CEncrypt<unsigned long>::`vector deleting destructor'
;	COMDAT ??_R1A@?0A@EA@?$CEncrypt@K@@8
; File d:\lost saga for developer\youtube\tutorial\source\src\lsclient\encryptvalue.h
rdata$r	SEGMENT
??_R1A@?0A@EA@?$CEncrypt@K@@8 DD FLAT:??_R0?AV?$CEncrypt@K@@@8 ; CEncrypt<unsigned long>::`RTTI Base Class Descriptor at (0,-1,0,64)'
	DD	00H
	DD	00H
	DD	0ffffffffH
	DD	00H
	DD	040H
	DD	FLAT:??_R3?$CEncrypt@K@@8
rdata$r	ENDS
;	COMDAT ??_R2?$CEncrypt@K@@8
rdata$r	SEGMENT
??_R2?$CEncrypt@K@@8 DD FLAT:??_R1A@?0A@EA@?$CEncrypt@K@@8 ; CEncrypt<unsigned long>::`RTTI Base Class Array'
rdata$r	ENDS
;	COMDAT ??_R3?$CEncrypt@K@@8
rdata$r	SEGMENT
??_R3?$CEncrypt@K@@8 DD 00H				; CEncrypt<unsigned long>::`RTTI Class Hierarchy Descriptor'
	DD	00H
	DD	01H
	DD	FLAT:??_R2?$CEncrypt@K@@8
rdata$r	ENDS
;	COMDAT ??_R0?AV?$CEncrypt@K@@@8
_DATA	SEGMENT
??_R0?AV?$CEncrypt@K@@@8 DD FLAT:??_7type_info@@6B@	; CEncrypt<unsigned long> `RTTI Type Descriptor'
	DD	00H
	DB	'.?AV?$CEncrypt@K@@', 00H
_DATA	ENDS
;	COMDAT ??_R4?$CEncrypt@K@@6B@
rdata$r	SEGMENT
??_R4?$CEncrypt@K@@6B@ DD 00H				; CEncrypt<unsigned long>::`RTTI Complete Object Locator'
	DD	00H
	DD	00H
	DD	FLAT:??_R0?AV?$CEncrypt@K@@@8
	DD	FLAT:??_R3?$CEncrypt@K@@8
rdata$r	ENDS
;	COMDAT ??_7?$CEncrypt@K@@6B@
CONST	SEGMENT
??_7?$CEncrypt@K@@6B@ DD FLAT:??_R4?$CEncrypt@K@@6B@	; CEncrypt<unsigned long>::`vftable'
	DD	FLAT:??_E?$CEncrypt@K@@UAEPAXI@Z
; Function compile flags: /Ogsp
CONST	ENDS
;	COMDAT ??1?$CEncrypt@K@@UAE@XZ
_TEXT	SEGMENT
??1?$CEncrypt@K@@UAE@XZ PROC				; CEncrypt<unsigned long>::~CEncrypt<unsigned long>, COMDAT
; _this$ = ecx

; 127  : 	{

  00000	c7 01 00 00 00
	00		 mov	 DWORD PTR [ecx], OFFSET ??_7?$CEncrypt@K@@6B@

; 128  : 	}

  00006	83 c1 0c	 add	 ecx, 12			; 0000000cH
  00009	e9 00 00 00 00	 jmp	 ??1ccddaabb@@UAE@XZ	; ccddaabb::~ccddaabb
??1?$CEncrypt@K@@UAE@XZ ENDP				; CEncrypt<unsigned long>::~CEncrypt<unsigned long>
_TEXT	ENDS
PUBLIC	??_7?$CEncrypt@H@@6B@				; CEncrypt<int>::`vftable'
PUBLIC	??1?$CEncrypt@H@@UAE@XZ				; CEncrypt<int>::~CEncrypt<int>
PUBLIC	??_R4?$CEncrypt@H@@6B@				; CEncrypt<int>::`RTTI Complete Object Locator'
PUBLIC	??_R0?AV?$CEncrypt@H@@@8			; CEncrypt<int> `RTTI Type Descriptor'
PUBLIC	??_R3?$CEncrypt@H@@8				; CEncrypt<int>::`RTTI Class Hierarchy Descriptor'
PUBLIC	??_R2?$CEncrypt@H@@8				; CEncrypt<int>::`RTTI Base Class Array'
PUBLIC	??_R1A@?0A@EA@?$CEncrypt@H@@8			; CEncrypt<int>::`RTTI Base Class Descriptor at (0,-1,0,64)'
EXTRN	??_E?$CEncrypt@H@@UAEPAXI@Z:PROC		; CEncrypt<int>::`vector deleting destructor'
;	COMDAT ??_R1A@?0A@EA@?$CEncrypt@H@@8
rdata$r	SEGMENT
??_R1A@?0A@EA@?$CEncrypt@H@@8 DD FLAT:??_R0?AV?$CEncrypt@H@@@8 ; CEncrypt<int>::`RTTI Base Class Descriptor at (0,-1,0,64)'
	DD	00H
	DD	00H
	DD	0ffffffffH
	DD	00H
	DD	040H
	DD	FLAT:??_R3?$CEncrypt@H@@8
rdata$r	ENDS
;	COMDAT ??_R2?$CEncrypt@H@@8
rdata$r	SEGMENT
??_R2?$CEncrypt@H@@8 DD FLAT:??_R1A@?0A@EA@?$CEncrypt@H@@8 ; CEncrypt<int>::`RTTI Base Class Array'
rdata$r	ENDS
;	COMDAT ??_R3?$CEncrypt@H@@8
rdata$r	SEGMENT
??_R3?$CEncrypt@H@@8 DD 00H				; CEncrypt<int>::`RTTI Class Hierarchy Descriptor'
	DD	00H
	DD	01H
	DD	FLAT:??_R2?$CEncrypt@H@@8
rdata$r	ENDS
;	COMDAT ??_R0?AV?$CEncrypt@H@@@8
_DATA	SEGMENT
??_R0?AV?$CEncrypt@H@@@8 DD FLAT:??_7type_info@@6B@	; CEncrypt<int> `RTTI Type Descriptor'
	DD	00H
	DB	'.?AV?$CEncrypt@H@@', 00H
_DATA	ENDS
;	COMDAT ??_R4?$CEncrypt@H@@6B@
rdata$r	SEGMENT
??_R4?$CEncrypt@H@@6B@ DD 00H				; CEncrypt<int>::`RTTI Complete Object Locator'
	DD	00H
	DD	00H
	DD	FLAT:??_R0?AV?$CEncrypt@H@@@8
	DD	FLAT:??_R3?$CEncrypt@H@@8
rdata$r	ENDS
;	COMDAT ??_7?$CEncrypt@H@@6B@
CONST	SEGMENT
??_7?$CEncrypt@H@@6B@ DD FLAT:??_R4?$CEncrypt@H@@6B@	; CEncrypt<int>::`vftable'
	DD	FLAT:??_E?$CEncrypt@H@@UAEPAXI@Z
; Function compile flags: /Ogsp
CONST	ENDS
;	COMDAT ??1?$CEncrypt@H@@UAE@XZ
_TEXT	SEGMENT
??1?$CEncrypt@H@@UAE@XZ PROC				; CEncrypt<int>::~CEncrypt<int>, COMDAT
; _this$ = ecx

; 127  : 	{

  00000	c7 01 00 00 00
	00		 mov	 DWORD PTR [ecx], OFFSET ??_7?$CEncrypt@H@@6B@

; 128  : 	}

  00006	83 c1 0c	 add	 ecx, 12			; 0000000cH
  00009	e9 00 00 00 00	 jmp	 ??1ccddaabb@@UAE@XZ	; ccddaabb::~ccddaabb
??1?$CEncrypt@H@@UAE@XZ ENDP				; CEncrypt<int>::~CEncrypt<int>
; Function compile flags: /Ogsp
_TEXT	ENDS
;	COMDAT ??_G?$CEncrypt@K@@UAEPAXI@Z
_TEXT	SEGMENT
___flags$ = 8						; size = 4
??_G?$CEncrypt@K@@UAEPAXI@Z PROC			; CEncrypt<unsigned long>::`scalar deleting destructor', COMDAT
; _this$ = ecx
  00000	55		 push	 ebp
  00001	8b ec		 mov	 ebp, esp
  00003	56		 push	 esi
  00004	8b f1		 mov	 esi, ecx
  00006	8d 4e 0c	 lea	 ecx, DWORD PTR [esi+12]
  00009	c7 06 00 00 00
	00		 mov	 DWORD PTR [esi], OFFSET ??_7?$CEncrypt@K@@6B@
  0000f	e8 00 00 00 00	 call	 ??1ccddaabb@@UAE@XZ	; ccddaabb::~ccddaabb
  00014	f6 45 08 01	 test	 BYTE PTR ___flags$[ebp], 1
  00018	74 07		 je	 SHORT $LN1@scalar@2
  0001a	56		 push	 esi
  0001b	e8 00 00 00 00	 call	 ??3@YAXPAX@Z		; operator delete
  00020	59		 pop	 ecx
$LN1@scalar@2:
  00021	8b c6		 mov	 eax, esi
  00023	5e		 pop	 esi
  00024	5d		 pop	 ebp
  00025	c2 04 00	 ret	 4
??_G?$CEncrypt@K@@UAEPAXI@Z ENDP			; CEncrypt<unsigned long>::`scalar deleting destructor'
; Function compile flags: /Ogsp
_TEXT	ENDS
;	COMDAT ??_G?$CEncrypt@H@@UAEPAXI@Z
_TEXT	SEGMENT
___flags$ = 8						; size = 4
??_G?$CEncrypt@H@@UAEPAXI@Z PROC			; CEncrypt<int>::`scalar deleting destructor', COMDAT
; _this$ = ecx
  00000	55		 push	 ebp
  00001	8b ec		 mov	 ebp, esp
  00003	56		 push	 esi
  00004	8b f1		 mov	 esi, ecx
  00006	8d 4e 0c	 lea	 ecx, DWORD PTR [esi+12]
  00009	c7 06 00 00 00
	00		 mov	 DWORD PTR [esi], OFFSET ??_7?$CEncrypt@H@@6B@
  0000f	e8 00 00 00 00	 call	 ??1ccddaabb@@UAE@XZ	; ccddaabb::~ccddaabb
  00014	f6 45 08 01	 test	 BYTE PTR ___flags$[ebp], 1
  00018	74 07		 je	 SHORT $LN1@scalar@3
  0001a	56		 push	 esi
  0001b	e8 00 00 00 00	 call	 ??3@YAXPAX@Z		; operator delete
  00020	59		 pop	 ecx
$LN1@scalar@3:
  00021	8b c6		 mov	 eax, esi
  00023	5e		 pop	 esi
  00024	5d		 pop	 ebp
  00025	c2 04 00	 ret	 4
??_G?$CEncrypt@H@@UAEPAXI@Z ENDP			; CEncrypt<int>::`scalar deleting destructor'
_TEXT	ENDS
PUBLIC	??1?$_Vector_val@VioHashString@@V?$allocator@VioHashString@@@std@@@std@@QAE@XZ ; std::_Vector_val<ioHashString,std::allocator<ioHashString> >::~_Vector_val<ioHashString,std::allocator<ioHashString> >
; Function compile flags: /Ogsp
; File c:\program files (x86)\microsoft visual studio 10.0\vc\include\vector
;	COMDAT ??1?$_Vector_val@VioHashString@@V?$allocator@VioHashString@@@std@@@std@@QAE@XZ
_TEXT	SEGMENT
??1?$_Vector_val@VioHashString@@V?$allocator@VioHashString@@@std@@@std@@QAE@XZ PROC ; std::_Vector_val<ioHashString,std::allocator<ioHashString> >::~_Vector_val<ioHashString,std::allocator<ioHashString> >, COMDAT
; _this$ = ecx

; 434  : 		}

  00000	c3		 ret	 0
??1?$_Vector_val@VioHashString@@V?$allocator@VioHashString@@@std@@@std@@QAE@XZ ENDP ; std::_Vector_val<ioHashString,std::allocator<ioHashString> >::~_Vector_val<ioHashString,std::allocator<ioHashString> >
_TEXT	ENDS
PUBLIC	??0?$allocator@VioHashString@@@std@@QAE@XZ	; std::allocator<ioHashString>::allocator<ioHashString>
; Function compile flags: /Ogsp
; File c:\program files (x86)\microsoft visual studio 10.0\vc\include\xmemory
;	COMDAT ??0?$allocator@VioHashString@@@std@@QAE@XZ
_TEXT	SEGMENT
??0?$allocator@VioHashString@@@std@@QAE@XZ PROC		; std::allocator<ioHashString>::allocator<ioHashString>, COMDAT
; _this$ = ecx

; 161  : 	_ALLOCATOR() _THROW0()

  00000	8b c1		 mov	 eax, ecx

; 162  : 		{	// construct default allocator (do nothing)
; 163  : 		}

  00002	c3		 ret	 0
??0?$allocator@VioHashString@@@std@@QAE@XZ ENDP		; std::allocator<ioHashString>::allocator<ioHashString>
_TEXT	ENDS
PUBLIC	??0?$allocator@VioHashString@@@std@@QAE@ABV01@@Z ; std::allocator<ioHashString>::allocator<ioHashString>
; Function compile flags: /Ogsp
;	COMDAT ??0?$allocator@VioHashString@@@std@@QAE@ABV01@@Z
_TEXT	SEGMENT
___formal$ = 8						; size = 4
??0?$allocator@VioHashString@@@std@@QAE@ABV01@@Z PROC	; std::allocator<ioHashString>::allocator<ioHashString>, COMDAT
; _this$ = ecx

; 165  : 	_ALLOCATOR(const _ALLOCATOR<_Ty>&) _THROW0()

  00000	8b c1		 mov	 eax, ecx

; 166  : 		{	// construct by copying (do nothing)
; 167  : 		}

  00002	c2 04 00	 ret	 4
??0?$allocator@VioHashString@@@std@@QAE@ABV01@@Z ENDP	; std::allocator<ioHashString>::allocator<ioHashString>
_TEXT	ENDS
PUBLIC	??0?$allocator@M@std@@QAE@XZ			; std::allocator<float>::allocator<float>
; Function compile flags: /Ogsp
;	COMDAT ??0?$allocator@M@std@@QAE@XZ
_TEXT	SEGMENT
??0?$allocator@M@std@@QAE@XZ PROC			; std::allocator<float>::allocator<float>, COMDAT
; _this$ = ecx

; 161  : 	_ALLOCATOR() _THROW0()

  00000	8b c1		 mov	 eax, ecx

; 162  : 		{	// construct default allocator (do nothing)
; 163  : 		}

  00002	c3		 ret	 0
??0?$allocator@M@std@@QAE@XZ ENDP			; std::allocator<float>::allocator<float>
_TEXT	ENDS
PUBLIC	??1?$_Vector_val@UWeaponInfo@@V?$allocator@UWeaponInfo@@@std@@@std@@QAE@XZ ; std::_Vector_val<WeaponInfo,std::allocator<WeaponInfo> >::~_Vector_val<WeaponInfo,std::allocator<WeaponInfo> >
; Function compile flags: /Ogsp
; File c:\program files (x86)\microsoft visual studio 10.0\vc\include\vector
;	COMDAT ??1?$_Vector_val@UWeaponInfo@@V?$allocator@UWeaponInfo@@@std@@@std@@QAE@XZ
_TEXT	SEGMENT
??1?$_Vector_val@UWeaponInfo@@V?$allocator@UWeaponInfo@@@std@@@std@@QAE@XZ PROC ; std::_Vector_val<WeaponInfo,std::allocator<WeaponInfo> >::~_Vector_val<WeaponInfo,std::allocator<WeaponInfo> >, COMDAT
; _this$ = ecx

; 434  : 		}

  00000	c3		 ret	 0
??1?$_Vector_val@UWeaponInfo@@V?$allocator@UWeaponInfo@@@std@@@std@@QAE@XZ ENDP ; std::_Vector_val<WeaponInfo,std::allocator<WeaponInfo> >::~_Vector_val<WeaponInfo,std::allocator<WeaponInfo> >
_TEXT	ENDS
PUBLIC	??0?$allocator@UWeaponInfo@@@std@@QAE@XZ	; std::allocator<WeaponInfo>::allocator<WeaponInfo>
; Function compile flags: /Ogsp
; File c:\program files (x86)\microsoft visual studio 10.0\vc\include\xmemory
;	COMDAT ??0?$allocator@UWeaponInfo@@@std@@QAE@XZ
_TEXT	SEGMENT
??0?$allocator@UWeaponInfo@@@std@@QAE@XZ PROC		; std::allocator<WeaponInfo>::allocator<WeaponInfo>, COMDAT
; _this$ = ecx

; 161  : 	_ALLOCATOR() _THROW0()

  00000	8b c1		 mov	 eax, ecx

; 162  : 		{	// construct default allocator (do nothing)
; 163  : 		}

  00002	c3		 ret	 0
??0?$allocator@UWeaponInfo@@@std@@QAE@XZ ENDP		; std::allocator<WeaponInfo>::allocator<WeaponInfo>
_TEXT	ENDS
PUBLIC	??1?$_Vector_val@UForceInfo@@V?$allocator@UForceInfo@@@std@@@std@@QAE@XZ ; std::_Vector_val<ForceInfo,std::allocator<ForceInfo> >::~_Vector_val<ForceInfo,std::allocator<ForceInfo> >
; Function compile flags: /Ogsp
; File c:\program files (x86)\microsoft visual studio 10.0\vc\include\vector
;	COMDAT ??1?$_Vector_val@UForceInfo@@V?$allocator@UForceInfo@@@std@@@std@@QAE@XZ
_TEXT	SEGMENT
??1?$_Vector_val@UForceInfo@@V?$allocator@UForceInfo@@@std@@@std@@QAE@XZ PROC ; std::_Vector_val<ForceInfo,std::allocator<ForceInfo> >::~_Vector_val<ForceInfo,std::allocator<ForceInfo> >, COMDAT
; _this$ = ecx

; 434  : 		}

  00000	c3		 ret	 0
??1?$_Vector_val@UForceInfo@@V?$allocator@UForceInfo@@@std@@@std@@QAE@XZ ENDP ; std::_Vector_val<ForceInfo,std::allocator<ForceInfo> >::~_Vector_val<ForceInfo,std::allocator<ForceInfo> >
_TEXT	ENDS
PUBLIC	??0?$allocator@UForceInfo@@@std@@QAE@XZ		; std::allocator<ForceInfo>::allocator<ForceInfo>
; Function compile flags: /Ogsp
; File c:\program files (x86)\microsoft visual studio 10.0\vc\include\xmemory
;	COMDAT ??0?$allocator@UForceInfo@@@std@@QAE@XZ
_TEXT	SEGMENT
??0?$allocator@UForceInfo@@@std@@QAE@XZ PROC		; std::allocator<ForceInfo>::allocator<ForceInfo>, COMDAT
; _this$ = ecx

; 161  : 	_ALLOCATOR() _THROW0()

  00000	8b c1		 mov	 eax, ecx

; 162  : 		{	// construct default allocator (do nothing)
; 163  : 		}

  00002	c3		 ret	 0
??0?$allocator@UForceInfo@@@std@@QAE@XZ ENDP		; std::allocator<ForceInfo>::allocator<ForceInfo>
_TEXT	ENDS
PUBLIC	?EncryptValueToPool@?$CEncrypt@K@@AAEXPBD@Z	; CEncrypt<unsigned long>::EncryptValueToPool
EXTRN	?EncryptByte@ccddaabb@@QAEXPBDPADH@Z:PROC	; ccddaabb::EncryptByte
; Function compile flags: /Ogsp
; File d:\lost saga for developer\youtube\tutorial\source\src\lsclient\encryptvalue.h
;	COMDAT ?EncryptValueToPool@?$CEncrypt@K@@AAEXPBD@Z
_TEXT	SEGMENT
_value$ = 8						; size = 4
?EncryptValueToPool@?$CEncrypt@K@@AAEXPBD@Z PROC	; CEncrypt<unsigned long>::EncryptValueToPool, COMDAT
; _this$ = ecx

; 67   : 	{

  00000	55		 push	 ebp
  00001	8b ec		 mov	 ebp, esp

; 68   : 		m_RC5.EncryptByte( value, m_MemPool, max(m_ValueSize, DEFAULT_ENCRYPT) );

  00003	0f b7 41 06	 movzx	 eax, WORD PTR [ecx+6]
  00007	83 f8 04	 cmp	 eax, 4
  0000a	77 03		 ja	 SHORT $LN4@EncryptVal
  0000c	6a 04		 push	 4
  0000e	58		 pop	 eax
$LN4@EncryptVal:
  0000f	50		 push	 eax
  00010	8d 41 1c	 lea	 eax, DWORD PTR [ecx+28]
  00013	50		 push	 eax
  00014	ff 75 08	 push	 DWORD PTR _value$[ebp]
  00017	83 c1 0c	 add	 ecx, 12			; 0000000cH
  0001a	e8 00 00 00 00	 call	 ?EncryptByte@ccddaabb@@QAEXPBDPADH@Z ; ccddaabb::EncryptByte

; 69   : 		
; 70   : 	}

  0001f	5d		 pop	 ebp
  00020	c2 04 00	 ret	 4
?EncryptValueToPool@?$CEncrypt@K@@AAEXPBD@Z ENDP	; CEncrypt<unsigned long>::EncryptValueToPool
_TEXT	ENDS
PUBLIC	?Init@?$CEncrypt@K@@AAEXXZ			; CEncrypt<unsigned long>::Init
EXTRN	?Setup@ccddaabb@@QAEXPBDHH@Z:PROC		; ccddaabb::Setup
EXTRN	__imp__rand:PROC
EXTRN	__imp__timeGetTime@0:PROC
EXTRN	__imp__GetCurrentProcessId@0:PROC
; Function compile flags: /Ogsp
;	COMDAT ?Init@?$CEncrypt@K@@AAEXXZ
_TEXT	SEGMENT
_pid$ = -8						; size = 4
_tick$ = -4						; size = 4
?Init@?$CEncrypt@K@@AAEXXZ PROC				; CEncrypt<unsigned long>::Init, COMDAT
; _this$ = ecx

; 73   : 	{

  00000	55		 push	 ebp
  00001	8b ec		 mov	 ebp, esp
  00003	51		 push	 ecx
  00004	51		 push	 ecx
  00005	53		 push	 ebx
  00006	56		 push	 esi
  00007	57		 push	 edi
  00008	8b f1		 mov	 esi, ecx

; 74   : 		DWORD pid = GetCurrentProcessId();

  0000a	ff 15 00 00 00
	00		 call	 DWORD PTR __imp__GetCurrentProcessId@0
  00010	89 45 f8	 mov	 DWORD PTR _pid$[ebp], eax

; 75   : 		DWORD tick = timeGetTime();

  00013	ff 15 00 00 00
	00		 call	 DWORD PTR __imp__timeGetTime@0

; 76   : 		m_ValueSize    = sizeof(type);
; 77   : 		m_MemPoolPos   = (unsigned short)( rand()+pid+tick )%(MAX_MEM_POOL-m_ValueSize);

  00019	8b 3d 00 00 00
	00		 mov	 edi, DWORD PTR __imp__rand
  0001f	89 45 fc	 mov	 DWORD PTR _tick$[ebp], eax
  00022	6a 04		 push	 4
  00024	58		 pop	 eax
  00025	66 89 46 06	 mov	 WORD PTR [esi+6], ax
  00029	ff d7		 call	 edi
  0002b	03 45 f8	 add	 eax, DWORD PTR _pid$[ebp]
  0002e	0f b7 4e 06	 movzx	 ecx, WORD PTR [esi+6]
  00032	03 45 fc	 add	 eax, DWORD PTR _tick$[ebp]
  00035	6a 0c		 push	 12			; 0000000cH
  00037	0f b7 c0	 movzx	 eax, ax
  0003a	5b		 pop	 ebx
  0003b	99		 cdq
  0003c	2b d9		 sub	 ebx, ecx
  0003e	f7 fb		 idiv	 ebx
  00040	66 89 56 04	 mov	 WORD PTR [esi+4], dx

; 78   : 		m_EncryptSeed  = (char)( rand()+pid+tick )%256;

  00044	ff d7		 call	 edi
  00046	02 45 f8	 add	 al, BYTE PTR _pid$[ebp]
  00049	02 45 fc	 add	 al, BYTE PTR _tick$[ebp]
  0004c	0f be c0	 movsx	 eax, al
  0004f	25 ff 00 00 80	 and	 eax, -2147483393	; 800000ffH
  00054	79 07		 jns	 SHORT $LN8@Init
  00056	48		 dec	 eax
  00057	0d 00 ff ff ff	 or	 eax, -256		; ffffff00H
  0005c	40		 inc	 eax
$LN8@Init:
  0005d	88 46 08	 mov	 BYTE PTR [esi+8], al

; 79   : 
; 80   : 		for (int i = 0; i < MAX_MEM_POOL ; i++)

  00060	33 db		 xor	 ebx, ebx
$LL3@Init:

; 81   : 			m_MemPool[i] = (char)( rand()+pid+tick )%256; // 

  00062	ff d7		 call	 edi
  00064	02 45 f8	 add	 al, BYTE PTR _pid$[ebp]
  00067	02 45 fc	 add	 al, BYTE PTR _tick$[ebp]
  0006a	0f be c0	 movsx	 eax, al
  0006d	25 ff 00 00 80	 and	 eax, -2147483393	; 800000ffH
  00072	79 07		 jns	 SHORT $LN9@Init
  00074	48		 dec	 eax
  00075	0d 00 ff ff ff	 or	 eax, -256		; ffffff00H
  0007a	40		 inc	 eax
$LN9@Init:
  0007b	88 44 1e 1c	 mov	 BYTE PTR [esi+ebx+28], al
  0007f	43		 inc	 ebx
  00080	83 fb 0c	 cmp	 ebx, 12			; 0000000cH
  00083	7c dd		 jl	 SHORT $LL3@Init

; 82   : 
; 83   : 		//UJ 130913, : szKey  
; 84   : 		//char szKey[ccddaabb::KEY_SIZE];//="";
; 85   : 		//for (int i = 0; i < ccddaabb::KEY_SIZE  ; i++)
; 86   : 		//	szKey[i] = (char)( rand()+pid+tick )%256; // 
; 87   : 		m_RC5.Setup( NULL, pid, tick );

  00085	ff 75 fc	 push	 DWORD PTR _tick$[ebp]
  00088	8d 4e 0c	 lea	 ecx, DWORD PTR [esi+12]
  0008b	ff 75 f8	 push	 DWORD PTR _pid$[ebp]
  0008e	6a 00		 push	 0
  00090	e8 00 00 00 00	 call	 ?Setup@ccddaabb@@QAEXPBDHH@Z ; ccddaabb::Setup
  00095	5f		 pop	 edi
  00096	5e		 pop	 esi
  00097	5b		 pop	 ebx

; 88   : 
; 89   : #ifdef _NOTUSE
; 90   : 		m_value        = 0;
; 91   : 		EncryptValueToPool((char*)&m_value);
; 92   : 		Debug();
; 93   : #endif
; 94   : 	}

  00098	c9		 leave
  00099	c3		 ret	 0
?Init@?$CEncrypt@K@@AAEXXZ ENDP				; CEncrypt<unsigned long>::Init
_TEXT	ENDS
PUBLIC	?DecryptValueToPool@?$CEncrypt@K@@QAEXPAK@Z	; CEncrypt<unsigned long>::DecryptValueToPool
; Function compile flags: /Ogsp
;	COMDAT ?DecryptValueToPool@?$CEncrypt@K@@QAEXPAK@Z
_TEXT	SEGMENT
_value$ = 8						; size = 4
?DecryptValueToPool@?$CEncrypt@K@@QAEXPAK@Z PROC	; CEncrypt<unsigned long>::DecryptValueToPool, COMDAT
; _this$ = ecx

; 1256 : 	{

  00000	55		 push	 ebp
  00001	8b ec		 mov	 ebp, esp
  00003	56		 push	 esi

; 1257 : 		m_RC5.DecryptByte( m_MemPool, m_TempMem, 4 );

  00004	8d 71 28	 lea	 esi, DWORD PTR [ecx+40]
  00007	6a 04		 push	 4
  00009	8d 41 1c	 lea	 eax, DWORD PTR [ecx+28]
  0000c	56		 push	 esi
  0000d	50		 push	 eax
  0000e	83 c1 0c	 add	 ecx, 12			; 0000000cH
  00011	e8 00 00 00 00	 call	 ?DecryptByte@ccddaabb@@QBEXPBDPADH@Z ; ccddaabb::DecryptByte

; 1258 : 		*value = *((DWORD*)m_TempMem);

  00016	8b 06		 mov	 eax, DWORD PTR [esi]
  00018	8b 4d 08	 mov	 ecx, DWORD PTR _value$[ebp]
  0001b	89 01		 mov	 DWORD PTR [ecx], eax
  0001d	5e		 pop	 esi

; 1259 : 	}

  0001e	5d		 pop	 ebp
  0001f	c2 04 00	 ret	 4
?DecryptValueToPool@?$CEncrypt@K@@QAEXPAK@Z ENDP	; CEncrypt<unsigned long>::DecryptValueToPool
_TEXT	ENDS
PUBLIC	?DecryptValueToPool@?$CEncrypt@_N@@QAEXPA_N@Z	; CEncrypt<bool>::DecryptValueToPool
; Function compile flags: /Ogsp
;	COMDAT ?DecryptValueToPool@?$CEncrypt@_N@@QAEXPA_N@Z
_TEXT	SEGMENT
_value$ = 8						; size = 4
?DecryptValueToPool@?$CEncrypt@_N@@QAEXPA_N@Z PROC	; CEncrypt<bool>::DecryptValueToPool, COMDAT
; _this$ = ecx

; 219  : 	{

  00000	55		 push	 ebp
  00001	8b ec		 mov	 ebp, esp
  00003	56		 push	 esi

; 220  : 		m_RC5.DecryptByte( m_MemPool, m_TempMem, 4 );

  00004	8d 71 28	 lea	 esi, DWORD PTR [ecx+40]
  00007	6a 04		 push	 4
  00009	8d 41 1c	 lea	 eax, DWORD PTR [ecx+28]
  0000c	56		 push	 esi
  0000d	50		 push	 eax
  0000e	83 c1 0c	 add	 ecx, 12			; 0000000cH
  00011	e8 00 00 00 00	 call	 ?DecryptByte@ccddaabb@@QBEXPBDPADH@Z ; ccddaabb::DecryptByte

; 221  : 		*value = *((bool*)m_TempMem);

  00016	8a 06		 mov	 al, BYTE PTR [esi]
  00018	8b 4d 08	 mov	 ecx, DWORD PTR _value$[ebp]
  0001b	88 01		 mov	 BYTE PTR [ecx], al
  0001d	5e		 pop	 esi

; 222  : 	}

  0001e	5d		 pop	 ebp
  0001f	c2 04 00	 ret	 4
?DecryptValueToPool@?$CEncrypt@_N@@QAEXPA_N@Z ENDP	; CEncrypt<bool>::DecryptValueToPool
_TEXT	ENDS
PUBLIC	?EncryptValueToPool@?$CEncrypt@H@@AAEXPBD@Z	; CEncrypt<int>::EncryptValueToPool
; Function compile flags: /Ogsp
;	COMDAT ?EncryptValueToPool@?$CEncrypt@H@@AAEXPBD@Z
_TEXT	SEGMENT
_value$ = 8						; size = 4
?EncryptValueToPool@?$CEncrypt@H@@AAEXPBD@Z PROC	; CEncrypt<int>::EncryptValueToPool, COMDAT
; _this$ = ecx

; 67   : 	{

  00000	55		 push	 ebp
  00001	8b ec		 mov	 ebp, esp

; 68   : 		m_RC5.EncryptByte( value, m_MemPool, max(m_ValueSize, DEFAULT_ENCRYPT) );

  00003	0f b7 41 06	 movzx	 eax, WORD PTR [ecx+6]
  00007	83 f8 04	 cmp	 eax, 4
  0000a	77 03		 ja	 SHORT $LN4@EncryptVal@2
  0000c	6a 04		 push	 4
  0000e	58		 pop	 eax
$LN4@EncryptVal@2:
  0000f	50		 push	 eax
  00010	8d 41 1c	 lea	 eax, DWORD PTR [ecx+28]
  00013	50		 push	 eax
  00014	ff 75 08	 push	 DWORD PTR _value$[ebp]
  00017	83 c1 0c	 add	 ecx, 12			; 0000000cH
  0001a	e8 00 00 00 00	 call	 ?EncryptByte@ccddaabb@@QAEXPBDPADH@Z ; ccddaabb::EncryptByte

; 69   : 		
; 70   : 	}

  0001f	5d		 pop	 ebp
  00020	c2 04 00	 ret	 4
?EncryptValueToPool@?$CEncrypt@H@@AAEXPBD@Z ENDP	; CEncrypt<int>::EncryptValueToPool
_TEXT	ENDS
PUBLIC	?Init@?$CEncrypt@H@@AAEXXZ			; CEncrypt<int>::Init
; Function compile flags: /Ogsp
;	COMDAT ?Init@?$CEncrypt@H@@AAEXXZ
_TEXT	SEGMENT
_pid$ = -8						; size = 4
_tick$ = -4						; size = 4
?Init@?$CEncrypt@H@@AAEXXZ PROC				; CEncrypt<int>::Init, COMDAT
; _this$ = ecx

; 73   : 	{

  00000	55		 push	 ebp
  00001	8b ec		 mov	 ebp, esp
  00003	51		 push	 ecx
  00004	51		 push	 ecx
  00005	53		 push	 ebx
  00006	56		 push	 esi
  00007	57		 push	 edi
  00008	8b f1		 mov	 esi, ecx

; 74   : 		DWORD pid = GetCurrentProcessId();

  0000a	ff 15 00 00 00
	00		 call	 DWORD PTR __imp__GetCurrentProcessId@0
  00010	89 45 f8	 mov	 DWORD PTR _pid$[ebp], eax

; 75   : 		DWORD tick = timeGetTime();

  00013	ff 15 00 00 00
	00		 call	 DWORD PTR __imp__timeGetTime@0

; 76   : 		m_ValueSize    = sizeof(type);
; 77   : 		m_MemPoolPos   = (unsigned short)( rand()+pid+tick )%(MAX_MEM_POOL-m_ValueSize);

  00019	8b 3d 00 00 00
	00		 mov	 edi, DWORD PTR __imp__rand
  0001f	89 45 fc	 mov	 DWORD PTR _tick$[ebp], eax
  00022	6a 04		 push	 4
  00024	58		 pop	 eax
  00025	66 89 46 06	 mov	 WORD PTR [esi+6], ax
  00029	ff d7		 call	 edi
  0002b	03 45 f8	 add	 eax, DWORD PTR _pid$[ebp]
  0002e	0f b7 4e 06	 movzx	 ecx, WORD PTR [esi+6]
  00032	03 45 fc	 add	 eax, DWORD PTR _tick$[ebp]
  00035	6a 0c		 push	 12			; 0000000cH
  00037	0f b7 c0	 movzx	 eax, ax
  0003a	5b		 pop	 ebx
  0003b	99		 cdq
  0003c	2b d9		 sub	 ebx, ecx
  0003e	f7 fb		 idiv	 ebx
  00040	66 89 56 04	 mov	 WORD PTR [esi+4], dx

; 78   : 		m_EncryptSeed  = (char)( rand()+pid+tick )%256;

  00044	ff d7		 call	 edi
  00046	02 45 f8	 add	 al, BYTE PTR _pid$[ebp]
  00049	02 45 fc	 add	 al, BYTE PTR _tick$[ebp]
  0004c	0f be c0	 movsx	 eax, al
  0004f	25 ff 00 00 80	 and	 eax, -2147483393	; 800000ffH
  00054	79 07		 jns	 SHORT $LN8@Init@2
  00056	48		 dec	 eax
  00057	0d 00 ff ff ff	 or	 eax, -256		; ffffff00H
  0005c	40		 inc	 eax
$LN8@Init@2:
  0005d	88 46 08	 mov	 BYTE PTR [esi+8], al

; 79   : 
; 80   : 		for (int i = 0; i < MAX_MEM_POOL ; i++)

  00060	33 db		 xor	 ebx, ebx
$LL3@Init@2:

; 81   : 			m_MemPool[i] = (char)( rand()+pid+tick )%256; // 

  00062	ff d7		 call	 edi
  00064	02 45 f8	 add	 al, BYTE PTR _pid$[ebp]
  00067	02 45 fc	 add	 al, BYTE PTR _tick$[ebp]
  0006a	0f be c0	 movsx	 eax, al
  0006d	25 ff 00 00 80	 and	 eax, -2147483393	; 800000ffH
  00072	79 07		 jns	 SHORT $LN9@Init@2
  00074	48		 dec	 eax
  00075	0d 00 ff ff ff	 or	 eax, -256		; ffffff00H
  0007a	40		 inc	 eax
$LN9@Init@2:
  0007b	88 44 1e 1c	 mov	 BYTE PTR [esi+ebx+28], al
  0007f	43		 inc	 ebx
  00080	83 fb 0c	 cmp	 ebx, 12			; 0000000cH
  00083	7c dd		 jl	 SHORT $LL3@Init@2

; 82   : 
; 83   : 		//UJ 130913, : szKey  
; 84   : 		//char szKey[ccddaabb::KEY_SIZE];//="";
; 85   : 		//for (int i = 0; i < ccddaabb::KEY_SIZE  ; i++)
; 86   : 		//	szKey[i] = (char)( rand()+pid+tick )%256; // 
; 87   : 		m_RC5.Setup( NULL, pid, tick );

  00085	ff 75 fc	 push	 DWORD PTR _tick$[ebp]
  00088	8d 4e 0c	 lea	 ecx, DWORD PTR [esi+12]
  0008b	ff 75 f8	 push	 DWORD PTR _pid$[ebp]
  0008e	6a 00		 push	 0
  00090	e8 00 00 00 00	 call	 ?Setup@ccddaabb@@QAEXPBDHH@Z ; ccddaabb::Setup
  00095	5f		 pop	 edi
  00096	5e		 pop	 esi
  00097	5b		 pop	 ebx

; 88   : 
; 89   : #ifdef _NOTUSE
; 90   : 		m_value        = 0;
; 91   : 		EncryptValueToPool((char*)&m_value);
; 92   : 		Debug();
; 93   : #endif
; 94   : 	}

  00098	c9		 leave
  00099	c3		 ret	 0
?Init@?$CEncrypt@H@@AAEXXZ ENDP				; CEncrypt<int>::Init
_TEXT	ENDS
PUBLIC	?DecryptValueToPool@?$CEncrypt@H@@QAEXPAH@Z	; CEncrypt<int>::DecryptValueToPool
; Function compile flags: /Ogsp
;	COMDAT ?DecryptValueToPool@?$CEncrypt@H@@QAEXPAH@Z
_TEXT	SEGMENT
_value$ = 8						; size = 4
?DecryptValueToPool@?$CEncrypt@H@@QAEXPAH@Z PROC	; CEncrypt<int>::DecryptValueToPool, COMDAT
; _this$ = ecx

; 837  : 	{

  00000	55		 push	 ebp
  00001	8b ec		 mov	 ebp, esp
  00003	56		 push	 esi

; 838  : 		m_RC5.DecryptByte( m_MemPool, m_TempMem, 4 );

  00004	8d 71 28	 lea	 esi, DWORD PTR [ecx+40]
  00007	6a 04		 push	 4
  00009	8d 41 1c	 lea	 eax, DWORD PTR [ecx+28]
  0000c	56		 push	 esi
  0000d	50		 push	 eax
  0000e	83 c1 0c	 add	 ecx, 12			; 0000000cH
  00011	e8 00 00 00 00	 call	 ?DecryptByte@ccddaabb@@QBEXPBDPADH@Z ; ccddaabb::DecryptByte

; 839  : 		*value = *((int*)m_TempMem);

  00016	8b 06		 mov	 eax, DWORD PTR [esi]
  00018	8b 4d 08	 mov	 ecx, DWORD PTR _value$[ebp]
  0001b	89 01		 mov	 DWORD PTR [ecx], eax
  0001d	5e		 pop	 esi

; 840  : 	}

  0001e	5d		 pop	 ebp
  0001f	c2 04 00	 ret	 4
?DecryptValueToPool@?$CEncrypt@H@@QAEXPAH@Z ENDP	; CEncrypt<int>::DecryptValueToPool
_TEXT	ENDS
PUBLIC	??1?$_Vector_val@UAttackAttribute@@V?$allocator@UAttackAttribute@@@std@@@std@@QAE@XZ ; std::_Vector_val<AttackAttribute,std::allocator<AttackAttribute> >::~_Vector_val<AttackAttribute,std::allocator<AttackAttribute> >
; Function compile flags: /Ogsp
; File c:\program files (x86)\microsoft visual studio 10.0\vc\include\vector
;	COMDAT ??1?$_Vector_val@UAttackAttribute@@V?$allocator@UAttackAttribute@@@std@@@std@@QAE@XZ
_TEXT	SEGMENT
??1?$_Vector_val@UAttackAttribute@@V?$allocator@UAttackAttribute@@@std@@@std@@QAE@XZ PROC ; std::_Vector_val<AttackAttribute,std::allocator<AttackAttribute> >::~_Vector_val<AttackAttribute,std::allocator<AttackAttribute> >, COMDAT
; _this$ = ecx

; 434  : 		}

  00000	c3		 ret	 0
??1?$_Vector_val@UAttackAttribute@@V?$allocator@UAttackAttribute@@@std@@@std@@QAE@XZ ENDP ; std::_Vector_val<AttackAttribute,std::allocator<AttackAttribute> >::~_Vector_val<AttackAttribute,std::allocator<AttackAttribute> >
_TEXT	ENDS
PUBLIC	??0?$allocator@UAttackAttribute@@@std@@QAE@XZ	; std::allocator<AttackAttribute>::allocator<AttackAttribute>
; Function compile flags: /Ogsp
; File c:\program files (x86)\microsoft visual studio 10.0\vc\include\xmemory
;	COMDAT ??0?$allocator@UAttackAttribute@@@std@@QAE@XZ
_TEXT	SEGMENT
??0?$allocator@UAttackAttribute@@@std@@QAE@XZ PROC	; std::allocator<AttackAttribute>::allocator<AttackAttribute>, COMDAT
; _this$ = ecx

; 161  : 	_ALLOCATOR() _THROW0()

  00000	8b c1		 mov	 eax, ecx

; 162  : 		{	// construct default allocator (do nothing)
; 163  : 		}

  00002	c3		 ret	 0
??0?$allocator@UAttackAttribute@@@std@@QAE@XZ ENDP	; std::allocator<AttackAttribute>::allocator<AttackAttribute>
_TEXT	ENDS
PUBLIC	?_Xlen@?$vector@VioHashString@@V?$allocator@VioHashString@@@std@@@std@@IBEXXZ ; std::vector<ioHashString,std::allocator<ioHashString> >::_Xlen
; Function compile flags: /Ogsp
; File c:\program files (x86)\microsoft visual studio 10.0\vc\include\vector
;	COMDAT ?_Xlen@?$vector@VioHashString@@V?$allocator@VioHashString@@@std@@@std@@IBEXXZ
_TEXT	SEGMENT
?_Xlen@?$vector@VioHashString@@V?$allocator@VioHashString@@@std@@@std@@IBEXXZ PROC ; std::vector<ioHashString,std::allocator<ioHashString> >::_Xlen, COMDAT
; _this$ = ecx

; 1427 : 		_Xlength_error("vector<T> too long");

  00000	68 00 00 00 00	 push	 OFFSET ??_C@_0BD@OLBABOEK@vector?$DMT?$DO?5too?5long?$AA@
  00005	ff 15 00 00 00
	00		 call	 DWORD PTR __imp_?_Xlength_error@std@@YAXPBD@Z
$LN4@Xlen@2:
$LN3@Xlen@2:
  0000b	cc		 int	 3
?_Xlen@?$vector@VioHashString@@V?$allocator@VioHashString@@@std@@@std@@IBEXXZ ENDP ; std::vector<ioHashString,std::allocator<ioHashString> >::_Xlen
_TEXT	ENDS
PUBLIC	?deallocate@?$allocator@VioHashString@@@std@@QAEXPAVioHashString@@I@Z ; std::allocator<ioHashString>::deallocate
; Function compile flags: /Ogsp
; File c:\program files (x86)\microsoft visual studio 10.0\vc\include\xmemory
;	COMDAT ?deallocate@?$allocator@VioHashString@@@std@@QAEXPAVioHashString@@I@Z
_TEXT	SEGMENT
__Ptr$ = 8						; size = 4
___formal$ = 12						; size = 4
?deallocate@?$allocator@VioHashString@@@std@@QAEXPAVioHashString@@I@Z PROC ; std::allocator<ioHashString>::deallocate, COMDAT
; _this$ = ecx

; 181  : 		{	// deallocate object at _Ptr, ignore size

  00000	55		 push	 ebp
  00001	8b ec		 mov	 ebp, esp

; 182  : 		::operator delete(_Ptr);

  00003	ff 75 08	 push	 DWORD PTR __Ptr$[ebp]
  00006	e8 00 00 00 00	 call	 ??3@YAXPAX@Z		; operator delete
  0000b	59		 pop	 ecx

; 183  : 		}

  0000c	5d		 pop	 ebp
  0000d	c2 08 00	 ret	 8
?deallocate@?$allocator@VioHashString@@@std@@QAEXPAVioHashString@@I@Z ENDP ; std::allocator<ioHashString>::deallocate
_TEXT	ENDS
PUBLIC	??0?$allocator@M@std@@QAE@ABV01@@Z		; std::allocator<float>::allocator<float>
; Function compile flags: /Ogsp
;	COMDAT ??0?$allocator@M@std@@QAE@ABV01@@Z
_TEXT	SEGMENT
___formal$ = 8						; size = 4
??0?$allocator@M@std@@QAE@ABV01@@Z PROC			; std::allocator<float>::allocator<float>, COMDAT
; _this$ = ecx

; 165  : 	_ALLOCATOR(const _ALLOCATOR<_Ty>&) _THROW0()

  00000	8b c1		 mov	 eax, ecx

; 166  : 		{	// construct by copying (do nothing)
; 167  : 		}

  00002	c2 04 00	 ret	 4
??0?$allocator@M@std@@QAE@ABV01@@Z ENDP			; std::allocator<float>::allocator<float>
_TEXT	ENDS
PUBLIC	??0?$allocator@UWeaponInfo@@@std@@QAE@ABV01@@Z	; std::allocator<WeaponInfo>::allocator<WeaponInfo>
; Function compile flags: /Ogsp
;	COMDAT ??0?$allocator@UWeaponInfo@@@std@@QAE@ABV01@@Z
_TEXT	SEGMENT
___formal$ = 8						; size = 4
??0?$allocator@UWeaponInfo@@@std@@QAE@ABV01@@Z PROC	; std::allocator<WeaponInfo>::allocator<WeaponInfo>, COMDAT
; _this$ = ecx

; 165  : 	_ALLOCATOR(const _ALLOCATOR<_Ty>&) _THROW0()

  00000	8b c1		 mov	 eax, ecx

; 166  : 		{	// construct by copying (do nothing)
; 167  : 		}

  00002	c2 04 00	 ret	 4
??0?$allocator@UWeaponInfo@@@std@@QAE@ABV01@@Z ENDP	; std::allocator<WeaponInfo>::allocator<WeaponInfo>
_TEXT	ENDS
PUBLIC	?deallocate@?$allocator@UWeaponInfo@@@std@@QAEXPAUWeaponInfo@@I@Z ; std::allocator<WeaponInfo>::deallocate
; Function compile flags: /Ogsp
;	COMDAT ?deallocate@?$allocator@UWeaponInfo@@@std@@QAEXPAUWeaponInfo@@I@Z
_TEXT	SEGMENT
__Ptr$ = 8						; size = 4
___formal$ = 12						; size = 4
?deallocate@?$allocator@UWeaponInfo@@@std@@QAEXPAUWeaponInfo@@I@Z PROC ; std::allocator<WeaponInfo>::deallocate, COMDAT
; _this$ = ecx

; 181  : 		{	// deallocate object at _Ptr, ignore size

  00000	55		 push	 ebp
  00001	8b ec		 mov	 ebp, esp

; 182  : 		::operator delete(_Ptr);

  00003	ff 75 08	 push	 DWORD PTR __Ptr$[ebp]
  00006	e8 00 00 00 00	 call	 ??3@YAXPAX@Z		; operator delete
  0000b	59		 pop	 ecx

; 183  : 		}

  0000c	5d		 pop	 ebp
  0000d	c2 08 00	 ret	 8
?deallocate@?$allocator@UWeaponInfo@@@std@@QAEXPAUWeaponInfo@@I@Z ENDP ; std::allocator<WeaponInfo>::deallocate
_TEXT	ENDS
PUBLIC	??0?$allocator@UForceInfo@@@std@@QAE@ABV01@@Z	; std::allocator<ForceInfo>::allocator<ForceInfo>
; Function compile flags: /Ogsp
;	COMDAT ??0?$allocator@UForceInfo@@@std@@QAE@ABV01@@Z
_TEXT	SEGMENT
___formal$ = 8						; size = 4
??0?$allocator@UForceInfo@@@std@@QAE@ABV01@@Z PROC	; std::allocator<ForceInfo>::allocator<ForceInfo>, COMDAT
; _this$ = ecx

; 165  : 	_ALLOCATOR(const _ALLOCATOR<_Ty>&) _THROW0()

  00000	8b c1		 mov	 eax, ecx

; 166  : 		{	// construct by copying (do nothing)
; 167  : 		}

  00002	c2 04 00	 ret	 4
??0?$allocator@UForceInfo@@@std@@QAE@ABV01@@Z ENDP	; std::allocator<ForceInfo>::allocator<ForceInfo>
_TEXT	ENDS
PUBLIC	?deallocate@?$allocator@UForceInfo@@@std@@QAEXPAUForceInfo@@I@Z ; std::allocator<ForceInfo>::deallocate
; Function compile flags: /Ogsp
;	COMDAT ?deallocate@?$allocator@UForceInfo@@@std@@QAEXPAUForceInfo@@I@Z
_TEXT	SEGMENT
__Ptr$ = 8						; size = 4
___formal$ = 12						; size = 4
?deallocate@?$allocator@UForceInfo@@@std@@QAEXPAUForceInfo@@I@Z PROC ; std::allocator<ForceInfo>::deallocate, COMDAT
; _this$ = ecx

; 181  : 		{	// deallocate object at _Ptr, ignore size

  00000	55		 push	 ebp
  00001	8b ec		 mov	 ebp, esp

; 182  : 		::operator delete(_Ptr);

  00003	ff 75 08	 push	 DWORD PTR __Ptr$[ebp]
  00006	e8 00 00 00 00	 call	 ??3@YAXPAX@Z		; operator delete
  0000b	59		 pop	 ecx

; 183  : 		}

  0000c	5d		 pop	 ebp
  0000d	c2 08 00	 ret	 8
?deallocate@?$allocator@UForceInfo@@@std@@QAEXPAUForceInfo@@I@Z ENDP ; std::allocator<ForceInfo>::deallocate
_TEXT	ENDS
PUBLIC	??0?$allocator@UAttackAttribute@@@std@@QAE@ABV01@@Z ; std::allocator<AttackAttribute>::allocator<AttackAttribute>
; Function compile flags: /Ogsp
;	COMDAT ??0?$allocator@UAttackAttribute@@@std@@QAE@ABV01@@Z
_TEXT	SEGMENT
___formal$ = 8						; size = 4
??0?$allocator@UAttackAttribute@@@std@@QAE@ABV01@@Z PROC ; std::allocator<AttackAttribute>::allocator<AttackAttribute>, COMDAT
; _this$ = ecx

; 165  : 	_ALLOCATOR(const _ALLOCATOR<_Ty>&) _THROW0()

  00000	8b c1		 mov	 eax, ecx

; 166  : 		{	// construct by copying (do nothing)
; 167  : 		}

  00002	c2 04 00	 ret	 4
??0?$allocator@UAttackAttribute@@@std@@QAE@ABV01@@Z ENDP ; std::allocator<AttackAttribute>::allocator<AttackAttribute>
_TEXT	ENDS
PUBLIC	?deallocate@?$allocator@UAttackAttribute@@@std@@QAEXPAUAttackAttribute@@I@Z ; std::allocator<AttackAttribute>::deallocate
; Function compile flags: /Ogsp
;	COMDAT ?deallocate@?$allocator@UAttackAttribute@@@std@@QAEXPAUAttackAttribute@@I@Z
_TEXT	SEGMENT
__Ptr$ = 8						; size = 4
___formal$ = 12						; size = 4
?deallocate@?$allocator@UAttackAttribute@@@std@@QAEXPAUAttackAttribute@@I@Z PROC ; std::allocator<AttackAttribute>::deallocate, COMDAT
; _this$ = ecx

; 181  : 		{	// deallocate object at _Ptr, ignore size

  00000	55		 push	 ebp
  00001	8b ec		 mov	 ebp, esp

; 182  : 		::operator delete(_Ptr);

  00003	ff 75 08	 push	 DWORD PTR __Ptr$[ebp]
  00006	e8 00 00 00 00	 call	 ??3@YAXPAX@Z		; operator delete
  0000b	59		 pop	 ecx

; 183  : 		}

  0000c	5d		 pop	 ebp
  0000d	c2 08 00	 ret	 8
?deallocate@?$allocator@UAttackAttribute@@@std@@QAEXPAUAttackAttribute@@I@Z ENDP ; std::allocator<AttackAttribute>::deallocate
_TEXT	ENDS
PUBLIC	??0?$_Vector_const_iterator@V?$_Vector_val@VioHashString@@V?$allocator@VioHashString@@@std@@@std@@@std@@QAE@PAVioHashString@@PBU_Container_base0@1@@Z ; std::_Vector_const_iterator<std::_Vector_val<ioHashString,std::allocator<ioHashString> > >::_Vector_const_iterator<std::_Vector_val<ioHashString,std::allocator<ioHashString> > >
; Function compile flags: /Ogsp
; File c:\program files (x86)\microsoft visual studio 10.0\vc\include\vector
;	COMDAT ??0?$_Vector_const_iterator@V?$_Vector_val@VioHashString@@V?$allocator@VioHashString@@@std@@@std@@@std@@QAE@PAVioHashString@@PBU_Container_base0@1@@Z
_TEXT	SEGMENT
__Parg$ = 8						; size = 4
__Pvector$ = 12						; size = 4
??0?$_Vector_const_iterator@V?$_Vector_val@VioHashString@@V?$allocator@VioHashString@@@std@@@std@@@std@@QAE@PAVioHashString@@PBU_Container_base0@1@@Z PROC ; std::_Vector_const_iterator<std::_Vector_val<ioHashString,std::allocator<ioHashString> > >::_Vector_const_iterator<std::_Vector_val<ioHashString,std::allocator<ioHashString> > >, COMDAT
; _this$ = ecx

; 45   : 		{	// construct with pointer _Parg

  00000	55		 push	 ebp
  00001	8b ec		 mov	 ebp, esp
  00003	8b c1		 mov	 eax, ecx
  00005	8b 4d 08	 mov	 ecx, DWORD PTR __Parg$[ebp]
  00008	89 08		 mov	 DWORD PTR [eax], ecx

; 46   : 		this->_Adopt(_Pvector);
; 47   : 		}

  0000a	5d		 pop	 ebp
  0000b	c2 08 00	 ret	 8
??0?$_Vector_const_iterator@V?$_Vector_val@VioHashString@@V?$allocator@VioHashString@@@std@@@std@@@std@@QAE@PAVioHashString@@PBU_Container_base0@1@@Z ENDP ; std::_Vector_const_iterator<std::_Vector_val<ioHashString,std::allocator<ioHashString> > >::_Vector_const_iterator<std::_Vector_val<ioHashString,std::allocator<ioHashString> > >
_TEXT	ENDS
PUBLIC	??0?$_Vector_iterator@V?$_Vector_val@VioHashString@@V?$allocator@VioHashString@@@std@@@std@@@std@@QAE@PAVioHashString@@PBU_Container_base0@1@@Z ; std::_Vector_iterator<std::_Vector_val<ioHashString,std::allocator<ioHashString> > >::_Vector_iterator<std::_Vector_val<ioHashString,std::allocator<ioHashString> > >
; Function compile flags: /Ogsp
;	COMDAT ??0?$_Vector_iterator@V?$_Vector_val@VioHashString@@V?$allocator@VioHashString@@@std@@@std@@@std@@QAE@PAVioHashString@@PBU_Container_base0@1@@Z
_TEXT	SEGMENT
__Parg$ = 8						; size = 4
__Pvector$ = 12						; size = 4
??0?$_Vector_iterator@V?$_Vector_val@VioHashString@@V?$allocator@VioHashString@@@std@@@std@@@std@@QAE@PAVioHashString@@PBU_Container_base0@1@@Z PROC ; std::_Vector_iterator<std::_Vector_val<ioHashString,std::allocator<ioHashString> > >::_Vector_iterator<std::_Vector_val<ioHashString,std::allocator<ioHashString> > >, COMDAT
; _this$ = ecx

; 304  : 		{	// construct with pointer _Parg

  00000	55		 push	 ebp
  00001	8b ec		 mov	 ebp, esp
  00003	8b c1		 mov	 eax, ecx
  00005	8b 4d 08	 mov	 ecx, DWORD PTR __Parg$[ebp]
  00008	89 08		 mov	 DWORD PTR [eax], ecx

; 305  : 		}

  0000a	5d		 pop	 ebp
  0000b	c2 08 00	 ret	 8
??0?$_Vector_iterator@V?$_Vector_val@VioHashString@@V?$allocator@VioHashString@@@std@@@std@@@std@@QAE@PAVioHashString@@PBU_Container_base0@1@@Z ENDP ; std::_Vector_iterator<std::_Vector_val<ioHashString,std::allocator<ioHashString> > >::_Vector_iterator<std::_Vector_val<ioHashString,std::allocator<ioHashString> > >
_TEXT	ENDS
PUBLIC	?max_size@?$allocator@VioHashString@@@std@@QBEIXZ ; std::allocator<ioHashString>::max_size
; Function compile flags: /Ogsp
; File c:\program files (x86)\microsoft visual studio 10.0\vc\include\xmemory
;	COMDAT ?max_size@?$allocator@VioHashString@@@std@@QBEIXZ
_TEXT	SEGMENT
?max_size@?$allocator@VioHashString@@@std@@QBEIXZ PROC	; std::allocator<ioHashString>::max_size, COMDAT
; _this$ = ecx

; 218  : 		_SIZT _Count = (_SIZT)(-1) / sizeof (_Ty);
; 219  : 		return (0 < _Count ? _Count : 1);

  00000	b8 ff ff ff 0f	 mov	 eax, 268435455		; 0fffffffH

; 220  : 		}

  00005	c3		 ret	 0
?max_size@?$allocator@VioHashString@@@std@@QBEIXZ ENDP	; std::allocator<ioHashString>::max_size
_TEXT	ENDS
PUBLIC	??0?$_Vector_const_iterator@V?$_Vector_val@UAttackAttribute@@V?$allocator@UAttackAttribute@@@std@@@std@@@std@@QAE@PAUAttackAttribute@@PBU_Container_base0@1@@Z ; std::_Vector_const_iterator<std::_Vector_val<AttackAttribute,std::allocator<AttackAttribute> > >::_Vector_const_iterator<std::_Vector_val<AttackAttribute,std::allocator<AttackAttribute> > >
; Function compile flags: /Ogsp
; File c:\program files (x86)\microsoft visual studio 10.0\vc\include\vector
;	COMDAT ??0?$_Vector_const_iterator@V?$_Vector_val@UAttackAttribute@@V?$allocator@UAttackAttribute@@@std@@@std@@@std@@QAE@PAUAttackAttribute@@PBU_Container_base0@1@@Z
_TEXT	SEGMENT
__Parg$ = 8						; size = 4
__Pvector$ = 12						; size = 4
??0?$_Vector_const_iterator@V?$_Vector_val@UAttackAttribute@@V?$allocator@UAttackAttribute@@@std@@@std@@@std@@QAE@PAUAttackAttribute@@PBU_Container_base0@1@@Z PROC ; std::_Vector_const_iterator<std::_Vector_val<AttackAttribute,std::allocator<AttackAttribute> > >::_Vector_const_iterator<std::_Vector_val<AttackAttribute,std::allocator<AttackAttribute> > >, COMDAT
; _this$ = ecx

; 45   : 		{	// construct with pointer _Parg

  00000	55		 push	 ebp
  00001	8b ec		 mov	 ebp, esp
  00003	8b c1		 mov	 eax, ecx
  00005	8b 4d 08	 mov	 ecx, DWORD PTR __Parg$[ebp]
  00008	89 08		 mov	 DWORD PTR [eax], ecx

; 46   : 		this->_Adopt(_Pvector);
; 47   : 		}

  0000a	5d		 pop	 ebp
  0000b	c2 08 00	 ret	 8
??0?$_Vector_const_iterator@V?$_Vector_val@UAttackAttribute@@V?$allocator@UAttackAttribute@@@std@@@std@@@std@@QAE@PAUAttackAttribute@@PBU_Container_base0@1@@Z ENDP ; std::_Vector_const_iterator<std::_Vector_val<AttackAttribute,std::allocator<AttackAttribute> > >::_Vector_const_iterator<std::_Vector_val<AttackAttribute,std::allocator<AttackAttribute> > >
_TEXT	ENDS
PUBLIC	?_Compat@?$_Vector_const_iterator@V?$_Vector_val@VioHashString@@V?$allocator@VioHashString@@@std@@@std@@@std@@QBEXABV12@@Z ; std::_Vector_const_iterator<std::_Vector_val<ioHashString,std::allocator<ioHashString> > >::_Compat
; Function compile flags: /Ogsp
;	COMDAT ?_Compat@?$_Vector_const_iterator@V?$_Vector_val@VioHashString@@V?$allocator@VioHashString@@@std@@@std@@@std@@QBEXABV12@@Z
_TEXT	SEGMENT
___formal$ = 8						; size = 4
?_Compat@?$_Vector_const_iterator@V?$_Vector_val@VioHashString@@V?$allocator@VioHashString@@@std@@@std@@@std@@QBEXABV12@@Z PROC ; std::_Vector_const_iterator<std::_Vector_val<ioHashString,std::allocator<ioHashString> > >::_Compat, COMDAT
; _this$ = ecx

; 253  : 		}

  00000	c2 04 00	 ret	 4
?_Compat@?$_Vector_const_iterator@V?$_Vector_val@VioHashString@@V?$allocator@VioHashString@@@std@@@std@@@std@@QBEXABV12@@Z ENDP ; std::_Vector_const_iterator<std::_Vector_val<ioHashString,std::allocator<ioHashString> > >::_Compat
_TEXT	ENDS
PUBLIC	?_Compat@?$_Vector_const_iterator@V?$_Vector_val@UAttackAttribute@@V?$allocator@UAttackAttribute@@@std@@@std@@@std@@QBEXABV12@@Z ; std::_Vector_const_iterator<std::_Vector_val<AttackAttribute,std::allocator<AttackAttribute> > >::_Compat
; Function compile flags: /Ogsp
;	COMDAT ?_Compat@?$_Vector_const_iterator@V?$_Vector_val@UAttackAttribute@@V?$allocator@UAttackAttribute@@@std@@@std@@@std@@QBEXABV12@@Z
_TEXT	SEGMENT
___formal$ = 8						; size = 4
?_Compat@?$_Vector_const_iterator@V?$_Vector_val@UAttackAttribute@@V?$allocator@UAttackAttribute@@@std@@@std@@@std@@QBEXABV12@@Z PROC ; std::_Vector_const_iterator<std::_Vector_val<AttackAttribute,std::allocator<AttackAttribute> > >::_Compat, COMDAT
; _this$ = ecx

; 253  : 		}

  00000	c2 04 00	 ret	 4
?_Compat@?$_Vector_const_iterator@V?$_Vector_val@UAttackAttribute@@V?$allocator@UAttackAttribute@@@std@@@std@@@std@@QBEXABV12@@Z ENDP ; std::_Vector_const_iterator<std::_Vector_val<AttackAttribute,std::allocator<AttackAttribute> > >::_Compat
_TEXT	ENDS
PUBLIC	??$_Allocate@VioHashString@@@std@@YAPAVioHashString@@IPAV1@@Z ; std::_Allocate<ioHashString>
; Function compile flags: /Ogsp
; File c:\program files (x86)\microsoft visual studio 10.0\vc\include\xmemory
;	COMDAT ??$_Allocate@VioHashString@@@std@@YAPAVioHashString@@IPAV1@@Z
_TEXT	SEGMENT
$T606542 = -12						; size = 12
$T606546 = 8						; size = 4
__Count$ = 8						; size = 4
___formal$ = 12						; size = 4
??$_Allocate@VioHashString@@@std@@YAPAVioHashString@@IPAV1@@Z PROC ; std::_Allocate<ioHashString>, COMDAT

; 30   : 	{	// allocate storage for _Count elements of type _Ty

  00000	55		 push	 ebp
  00001	8b ec		 mov	 ebp, esp

; 31   : 	void *_Ptr = 0;
; 32   : 
; 33   : 	if (_Count <= 0)

  00003	8b 4d 08	 mov	 ecx, DWORD PTR __Count$[ebp]
  00006	83 ec 0c	 sub	 esp, 12			; 0000000cH
  00009	33 c0		 xor	 eax, eax
  0000b	85 c9		 test	 ecx, ecx

; 34   : 		_Count = 0;
; 35   : 	else if (((_SIZT)(-1) / sizeof (_Ty) < _Count)

  0000d	74 3c		 je	 SHORT $LN5@Allocate@3

; 36   : 		|| (_Ptr = ::operator new(_Count * sizeof (_Ty))) == 0)

  0000f	81 f9 ff ff ff
	0f		 cmp	 ecx, 268435455		; 0fffffffH
  00015	77 0e		 ja	 SHORT $LN1@Allocate@3
  00017	c1 e1 04	 shl	 ecx, 4
  0001a	51		 push	 ecx
  0001b	e8 00 00 00 00	 call	 ??2@YAPAXI@Z		; operator new
  00020	59		 pop	 ecx
  00021	85 c0		 test	 eax, eax

; 38   : 
; 39   : 	return ((_Ty _FARQ *)_Ptr);

  00023	75 26		 jne	 SHORT $LN5@Allocate@3
$LN1@Allocate@3:

; 37   : 		_THROW_NCEE(bad_alloc, 0);

  00025	83 65 08 00	 and	 DWORD PTR $T606546[ebp], 0
  00029	8d 45 08	 lea	 eax, DWORD PTR $T606546[ebp]
  0002c	50		 push	 eax
  0002d	8d 4d f4	 lea	 ecx, DWORD PTR $T606542[ebp]
  00030	ff 15 00 00 00
	00		 call	 DWORD PTR __imp_??0exception@std@@QAE@ABQBD@Z
  00036	68 00 00 00 00	 push	 OFFSET __TI2?AVbad_alloc@std@@
  0003b	8d 45 f4	 lea	 eax, DWORD PTR $T606542[ebp]
  0003e	50		 push	 eax
  0003f	c7 45 f4 00 00
	00 00		 mov	 DWORD PTR $T606542[ebp], OFFSET ??_7bad_alloc@std@@6B@
  00046	e8 00 00 00 00	 call	 __CxxThrowException@8
$LN10@Allocate@3:
$LN5@Allocate@3:

; 40   : 	}

  0004b	c9		 leave
  0004c	c3		 ret	 0
$LN9@Allocate@3:
??$_Allocate@VioHashString@@@std@@YAPAVioHashString@@IPAV1@@Z ENDP ; std::_Allocate<ioHashString>
_TEXT	ENDS
EXTRN	__imp_??0exception@std@@QAE@ABV01@@Z:PROC
; Function compile flags: /Ogsp
;	COMDAT ??0bad_alloc@std@@QAE@ABV01@@Z
_TEXT	SEGMENT
___that$ = 8						; size = 4
??0bad_alloc@std@@QAE@ABV01@@Z PROC			; std::bad_alloc::bad_alloc, COMDAT
; _this$ = ecx
  00000	55		 push	 ebp
  00001	8b ec		 mov	 ebp, esp
  00003	56		 push	 esi
  00004	ff 75 08	 push	 DWORD PTR ___that$[ebp]
  00007	8b f1		 mov	 esi, ecx
  00009	ff 15 00 00 00
	00		 call	 DWORD PTR __imp_??0exception@std@@QAE@ABV01@@Z
  0000f	c7 06 00 00 00
	00		 mov	 DWORD PTR [esi], OFFSET ??_7bad_alloc@std@@6B@
  00015	8b c6		 mov	 eax, esi
  00017	5e		 pop	 esi
  00018	5d		 pop	 ebp
  00019	c2 04 00	 ret	 4
??0bad_alloc@std@@QAE@ABV01@@Z ENDP			; std::bad_alloc::bad_alloc
_TEXT	ENDS
PUBLIC	??$forward@ABVioHashString@@@std@@YAABVioHashString@@ABV1@@Z ; std::forward<ioHashString const &>
; Function compile flags: /Ogsp
; File c:\program files (x86)\microsoft visual studio 10.0\vc\include\utility
;	COMDAT ??$forward@ABVioHashString@@@std@@YAABVioHashString@@ABV1@@Z
_TEXT	SEGMENT
__Arg$ = 8						; size = 4
??$forward@ABVioHashString@@@std@@YAABVioHashString@@ABV1@@Z PROC ; std::forward<ioHashString const &>, COMDAT

; 78   : 	{	// forward _Arg, given explicitly specified type parameter

  00000	55		 push	 ebp
  00001	8b ec		 mov	 ebp, esp

; 79   : 	return ((_Ty&&)_Arg);

  00003	8b 45 08	 mov	 eax, DWORD PTR __Arg$[ebp]

; 80   : 	}

  00006	5d		 pop	 ebp
  00007	c3		 ret	 0
??$forward@ABVioHashString@@@std@@YAABVioHashString@@ABV1@@Z ENDP ; std::forward<ioHashString const &>
_TEXT	ENDS
PUBLIC	??$_Ptr_cat@VioHashString@@V1@@std@@YA?AU_Nonscalar_ptr_iterator_tag@0@PAVioHashString@@0@Z ; std::_Ptr_cat<ioHashString,ioHashString>
; Function compile flags: /Ogsp
; File c:\program files (x86)\microsoft visual studio 10.0\vc\include\xutility
;	COMDAT ??$_Ptr_cat@VioHashString@@V1@@std@@YA?AU_Nonscalar_ptr_iterator_tag@0@PAVioHashString@@0@Z
_TEXT	SEGMENT
__Cat$ = -1						; size = 1
___formal$ = 8						; size = 4
___formal$ = 12						; size = 4
??$_Ptr_cat@VioHashString@@V1@@std@@YA?AU_Nonscalar_ptr_iterator_tag@0@PAVioHashString@@0@Z PROC ; std::_Ptr_cat<ioHashString,ioHashString>, COMDAT

; 516  : 	{	// return pointer category from pointers

  00000	55		 push	 ebp
  00001	8b ec		 mov	 ebp, esp
  00003	51		 push	 ecx

; 517  : 	typename _Ptr_cat_helper<_Elem1, _Elem2>::_Type _Cat;
; 518  : 	return (_Cat);

  00004	8a 45 ff	 mov	 al, BYTE PTR __Cat$[ebp]

; 519  : 	}

  00007	c9		 leave
  00008	c3		 ret	 0
??$_Ptr_cat@VioHashString@@V1@@std@@YA?AU_Nonscalar_ptr_iterator_tag@0@PAVioHashString@@0@Z ENDP ; std::_Ptr_cat<ioHashString,ioHashString>
_TEXT	ENDS
PUBLIC	??$_Ptr_cat@UAttackAttribute@@U1@@std@@YA?AU_Nonscalar_ptr_iterator_tag@0@PAUAttackAttribute@@0@Z ; std::_Ptr_cat<AttackAttribute,AttackAttribute>
; Function compile flags: /Ogsp
;	COMDAT ??$_Ptr_cat@UAttackAttribute@@U1@@std@@YA?AU_Nonscalar_ptr_iterator_tag@0@PAUAttackAttribute@@0@Z
_TEXT	SEGMENT
__Cat$ = -1						; size = 1
___formal$ = 8						; size = 4
___formal$ = 12						; size = 4
??$_Ptr_cat@UAttackAttribute@@U1@@std@@YA?AU_Nonscalar_ptr_iterator_tag@0@PAUAttackAttribute@@0@Z PROC ; std::_Ptr_cat<AttackAttribute,AttackAttribute>, COMDAT

; 516  : 	{	// return pointer category from pointers

  00000	55		 push	 ebp
  00001	8b ec		 mov	 ebp, esp
  00003	51		 push	 ecx

; 517  : 	typename _Ptr_cat_helper<_Elem1, _Elem2>::_Type _Cat;
; 518  : 	return (_Cat);

  00004	8a 45 ff	 mov	 al, BYTE PTR __Cat$[ebp]

; 519  : 	}

  00007	c9		 leave
  00008	c3		 ret	 0
??$_Ptr_cat@UAttackAttribute@@U1@@std@@YA?AU_Nonscalar_ptr_iterator_tag@0@PAUAttackAttribute@@0@Z ENDP ; std::_Ptr_cat<AttackAttribute,AttackAttribute>
_TEXT	ENDS
PUBLIC	??$_Ptr_cat@UWeaponInfo@@U1@@std@@YA?AU_Nonscalar_ptr_iterator_tag@0@PAUWeaponInfo@@0@Z ; std::_Ptr_cat<WeaponInfo,WeaponInfo>
; Function compile flags: /Ogsp
;	COMDAT ??$_Ptr_cat@UWeaponInfo@@U1@@std@@YA?AU_Nonscalar_ptr_iterator_tag@0@PAUWeaponInfo@@0@Z
_TEXT	SEGMENT
__Cat$ = -1						; size = 1
___formal$ = 8						; size = 4
___formal$ = 12						; size = 4
??$_Ptr_cat@UWeaponInfo@@U1@@std@@YA?AU_Nonscalar_ptr_iterator_tag@0@PAUWeaponInfo@@0@Z PROC ; std::_Ptr_cat<WeaponInfo,WeaponInfo>, COMDAT

; 516  : 	{	// return pointer category from pointers

  00000	55		 push	 ebp
  00001	8b ec		 mov	 ebp, esp
  00003	51		 push	 ecx

; 517  : 	typename _Ptr_cat_helper<_Elem1, _Elem2>::_Type _Cat;
; 518  : 	return (_Cat);

  00004	8a 45 ff	 mov	 al, BYTE PTR __Cat$[ebp]

; 519  : 	}

  00007	c9		 leave
  00008	c3		 ret	 0
??$_Ptr_cat@UWeaponInfo@@U1@@std@@YA?AU_Nonscalar_ptr_iterator_tag@0@PAUWeaponInfo@@0@Z ENDP ; std::_Ptr_cat<WeaponInfo,WeaponInfo>
_TEXT	ENDS
PUBLIC	??$_Ptr_cat@UForceInfo@@U1@@std@@YA?AU_Nonscalar_ptr_iterator_tag@0@PAUForceInfo@@0@Z ; std::_Ptr_cat<ForceInfo,ForceInfo>
; Function compile flags: /Ogsp
;	COMDAT ??$_Ptr_cat@UForceInfo@@U1@@std@@YA?AU_Nonscalar_ptr_iterator_tag@0@PAUForceInfo@@0@Z
_TEXT	SEGMENT
__Cat$ = -1						; size = 1
___formal$ = 8						; size = 4
___formal$ = 12						; size = 4
??$_Ptr_cat@UForceInfo@@U1@@std@@YA?AU_Nonscalar_ptr_iterator_tag@0@PAUForceInfo@@0@Z PROC ; std::_Ptr_cat<ForceInfo,ForceInfo>, COMDAT

; 516  : 	{	// return pointer category from pointers

  00000	55		 push	 ebp
  00001	8b ec		 mov	 ebp, esp
  00003	51		 push	 ecx

; 517  : 	typename _Ptr_cat_helper<_Elem1, _Elem2>::_Type _Cat;
; 518  : 	return (_Cat);

  00004	8a 45 ff	 mov	 al, BYTE PTR __Cat$[ebp]

; 519  : 	}

  00007	c9		 leave
  00008	c3		 ret	 0
??$_Ptr_cat@UForceInfo@@U1@@std@@YA?AU_Nonscalar_ptr_iterator_tag@0@PAUForceInfo@@0@Z ENDP ; std::_Ptr_cat<ForceInfo,ForceInfo>
_TEXT	ENDS
PUBLIC	?capacity@?$vector@UWeaponInfo@@V?$allocator@UWeaponInfo@@@std@@@std@@QBEIXZ ; std::vector<WeaponInfo,std::allocator<WeaponInfo> >::capacity
; Function compile flags: /Ogsp
; File c:\program files (x86)\microsoft visual studio 10.0\vc\include\vector
;	COMDAT ?capacity@?$vector@UWeaponInfo@@V?$allocator@UWeaponInfo@@@std@@@std@@QBEIXZ
_TEXT	SEGMENT
?capacity@?$vector@UWeaponInfo@@V?$allocator@UWeaponInfo@@@std@@@std@@QBEIXZ PROC ; std::vector<WeaponInfo,std::allocator<WeaponInfo> >::capacity, COMDAT
; _this$ = ecx

; 777  : 		return (this->_Myend - this->_Myfirst);

  00000	8b 41 08	 mov	 eax, DWORD PTR [ecx+8]
  00003	2b 01		 sub	 eax, DWORD PTR [ecx]
  00005	6a 28		 push	 40			; 00000028H
  00007	99		 cdq
  00008	59		 pop	 ecx
  00009	f7 f9		 idiv	 ecx

; 778  : 		}

  0000b	c3		 ret	 0
?capacity@?$vector@UWeaponInfo@@V?$allocator@UWeaponInfo@@@std@@@std@@QBEIXZ ENDP ; std::vector<WeaponInfo,std::allocator<WeaponInfo> >::capacity
_TEXT	ENDS
PUBLIC	?size@?$vector@UWeaponInfo@@V?$allocator@UWeaponInfo@@@std@@@std@@QBEIXZ ; std::vector<WeaponInfo,std::allocator<WeaponInfo> >::size
; Function compile flags: /Ogsp
;	COMDAT ?size@?$vector@UWeaponInfo@@V?$allocator@UWeaponInfo@@@std@@@std@@QBEIXZ
_TEXT	SEGMENT
?size@?$vector@UWeaponInfo@@V?$allocator@UWeaponInfo@@@std@@@std@@QBEIXZ PROC ; std::vector<WeaponInfo,std::allocator<WeaponInfo> >::size, COMDAT
; _this$ = ecx

; 879  : 		return (this->_Mylast - this->_Myfirst);

  00000	8b 41 04	 mov	 eax, DWORD PTR [ecx+4]
  00003	2b 01		 sub	 eax, DWORD PTR [ecx]
  00005	6a 28		 push	 40			; 00000028H
  00007	99		 cdq
  00008	59		 pop	 ecx
  00009	f7 f9		 idiv	 ecx

; 880  : 		}

  0000b	c3		 ret	 0
?size@?$vector@UWeaponInfo@@V?$allocator@UWeaponInfo@@@std@@@std@@QBEIXZ ENDP ; std::vector<WeaponInfo,std::allocator<WeaponInfo> >::size
_TEXT	ENDS
PUBLIC	?capacity@?$vector@UForceInfo@@V?$allocator@UForceInfo@@@std@@@std@@QBEIXZ ; std::vector<ForceInfo,std::allocator<ForceInfo> >::capacity
; Function compile flags: /Ogsp
;	COMDAT ?capacity@?$vector@UForceInfo@@V?$allocator@UForceInfo@@@std@@@std@@QBEIXZ
_TEXT	SEGMENT
?capacity@?$vector@UForceInfo@@V?$allocator@UForceInfo@@@std@@@std@@QBEIXZ PROC ; std::vector<ForceInfo,std::allocator<ForceInfo> >::capacity, COMDAT
; _this$ = ecx

; 777  : 		return (this->_Myend - this->_Myfirst);

  00000	8b 41 08	 mov	 eax, DWORD PTR [ecx+8]
  00003	2b 01		 sub	 eax, DWORD PTR [ecx]
  00005	6a 0c		 push	 12			; 0000000cH
  00007	99		 cdq
  00008	59		 pop	 ecx
  00009	f7 f9		 idiv	 ecx

; 778  : 		}

  0000b	c3		 ret	 0
?capacity@?$vector@UForceInfo@@V?$allocator@UForceInfo@@@std@@@std@@QBEIXZ ENDP ; std::vector<ForceInfo,std::allocator<ForceInfo> >::capacity
_TEXT	ENDS
PUBLIC	?size@?$vector@UForceInfo@@V?$allocator@UForceInfo@@@std@@@std@@QBEIXZ ; std::vector<ForceInfo,std::allocator<ForceInfo> >::size
; Function compile flags: /Ogsp
;	COMDAT ?size@?$vector@UForceInfo@@V?$allocator@UForceInfo@@@std@@@std@@QBEIXZ
_TEXT	SEGMENT
?size@?$vector@UForceInfo@@V?$allocator@UForceInfo@@@std@@@std@@QBEIXZ PROC ; std::vector<ForceInfo,std::allocator<ForceInfo> >::size, COMDAT
; _this$ = ecx

; 879  : 		return (this->_Mylast - this->_Myfirst);

  00000	8b 41 04	 mov	 eax, DWORD PTR [ecx+4]
  00003	2b 01		 sub	 eax, DWORD PTR [ecx]
  00005	6a 0c		 push	 12			; 0000000cH
  00007	99		 cdq
  00008	59		 pop	 ecx
  00009	f7 f9		 idiv	 ecx

; 880  : 		}

  0000b	c3		 ret	 0
?size@?$vector@UForceInfo@@V?$allocator@UForceInfo@@@std@@@std@@QBEIXZ ENDP ; std::vector<ForceInfo,std::allocator<ForceInfo> >::size
_TEXT	ENDS
PUBLIC	?_Xlen@?$vector@UWeaponInfo@@V?$allocator@UWeaponInfo@@@std@@@std@@IBEXXZ ; std::vector<WeaponInfo,std::allocator<WeaponInfo> >::_Xlen
; Function compile flags: /Ogsp
;	COMDAT ?_Xlen@?$vector@UWeaponInfo@@V?$allocator@UWeaponInfo@@@std@@@std@@IBEXXZ
_TEXT	SEGMENT
?_Xlen@?$vector@UWeaponInfo@@V?$allocator@UWeaponInfo@@@std@@@std@@IBEXXZ PROC ; std::vector<WeaponInfo,std::allocator<WeaponInfo> >::_Xlen, COMDAT
; _this$ = ecx

; 1427 : 		_Xlength_error("vector<T> too long");

  00000	68 00 00 00 00	 push	 OFFSET ??_C@_0BD@OLBABOEK@vector?$DMT?$DO?5too?5long?$AA@
  00005	ff 15 00 00 00
	00		 call	 DWORD PTR __imp_?_Xlength_error@std@@YAXPBD@Z
$LN4@Xlen@3:
$LN3@Xlen@3:
  0000b	cc		 int	 3
?_Xlen@?$vector@UWeaponInfo@@V?$allocator@UWeaponInfo@@@std@@@std@@IBEXXZ ENDP ; std::vector<WeaponInfo,std::allocator<WeaponInfo> >::_Xlen
_TEXT	ENDS
PUBLIC	?_Xlen@?$vector@UForceInfo@@V?$allocator@UForceInfo@@@std@@@std@@IBEXXZ ; std::vector<ForceInfo,std::allocator<ForceInfo> >::_Xlen
; Function compile flags: /Ogsp
;	COMDAT ?_Xlen@?$vector@UForceInfo@@V?$allocator@UForceInfo@@@std@@@std@@IBEXXZ
_TEXT	SEGMENT
?_Xlen@?$vector@UForceInfo@@V?$allocator@UForceInfo@@@std@@@std@@IBEXXZ PROC ; std::vector<ForceInfo,std::allocator<ForceInfo> >::_Xlen, COMDAT
; _this$ = ecx

; 1427 : 		_Xlength_error("vector<T> too long");

  00000	68 00 00 00 00	 push	 OFFSET ??_C@_0BD@OLBABOEK@vector?$DMT?$DO?5too?5long?$AA@
  00005	ff 15 00 00 00
	00		 call	 DWORD PTR __imp_?_Xlength_error@std@@YAXPBD@Z
$LN4@Xlen@4:
$LN3@Xlen@4:
  0000b	cc		 int	 3
?_Xlen@?$vector@UForceInfo@@V?$allocator@UForceInfo@@@std@@@std@@IBEXXZ ENDP ; std::vector<ForceInfo,std::allocator<ForceInfo> >::_Xlen
_TEXT	ENDS
PUBLIC	?max_size@?$allocator@UWeaponInfo@@@std@@QBEIXZ	; std::allocator<WeaponInfo>::max_size
; Function compile flags: /Ogsp
; File c:\program files (x86)\microsoft visual studio 10.0\vc\include\xmemory
;	COMDAT ?max_size@?$allocator@UWeaponInfo@@@std@@QBEIXZ
_TEXT	SEGMENT
?max_size@?$allocator@UWeaponInfo@@@std@@QBEIXZ PROC	; std::allocator<WeaponInfo>::max_size, COMDAT
; _this$ = ecx

; 218  : 		_SIZT _Count = (_SIZT)(-1) / sizeof (_Ty);
; 219  : 		return (0 < _Count ? _Count : 1);

  00000	b8 66 66 66 06	 mov	 eax, 107374182		; 06666666H

; 220  : 		}

  00005	c3		 ret	 0
?max_size@?$allocator@UWeaponInfo@@@std@@QBEIXZ ENDP	; std::allocator<WeaponInfo>::max_size
_TEXT	ENDS
PUBLIC	?max_size@?$allocator@UForceInfo@@@std@@QBEIXZ	; std::allocator<ForceInfo>::max_size
; Function compile flags: /Ogsp
;	COMDAT ?max_size@?$allocator@UForceInfo@@@std@@QBEIXZ
_TEXT	SEGMENT
?max_size@?$allocator@UForceInfo@@@std@@QBEIXZ PROC	; std::allocator<ForceInfo>::max_size, COMDAT
; _this$ = ecx

; 218  : 		_SIZT _Count = (_SIZT)(-1) / sizeof (_Ty);
; 219  : 		return (0 < _Count ? _Count : 1);

  00000	b8 55 55 55 15	 mov	 eax, 357913941		; 15555555H

; 220  : 		}

  00005	c3		 ret	 0
?max_size@?$allocator@UForceInfo@@@std@@QBEIXZ ENDP	; std::allocator<ForceInfo>::max_size
_TEXT	ENDS
PUBLIC	??0?$_Vector_const_iterator@V?$_Vector_val@UWeaponInfo@@V?$allocator@UWeaponInfo@@@std@@@std@@@std@@QAE@PAUWeaponInfo@@PBU_Container_base0@1@@Z ; std::_Vector_const_iterator<std::_Vector_val<WeaponInfo,std::allocator<WeaponInfo> > >::_Vector_const_iterator<std::_Vector_val<WeaponInfo,std::allocator<WeaponInfo> > >
; Function compile flags: /Ogsp
; File c:\program files (x86)\microsoft visual studio 10.0\vc\include\vector
;	COMDAT ??0?$_Vector_const_iterator@V?$_Vector_val@UWeaponInfo@@V?$allocator@UWeaponInfo@@@std@@@std@@@std@@QAE@PAUWeaponInfo@@PBU_Container_base0@1@@Z
_TEXT	SEGMENT
__Parg$ = 8						; size = 4
__Pvector$ = 12						; size = 4
??0?$_Vector_const_iterator@V?$_Vector_val@UWeaponInfo@@V?$allocator@UWeaponInfo@@@std@@@std@@@std@@QAE@PAUWeaponInfo@@PBU_Container_base0@1@@Z PROC ; std::_Vector_const_iterator<std::_Vector_val<WeaponInfo,std::allocator<WeaponInfo> > >::_Vector_const_iterator<std::_Vector_val<WeaponInfo,std::allocator<WeaponInfo> > >, COMDAT
; _this$ = ecx

; 45   : 		{	// construct with pointer _Parg

  00000	55		 push	 ebp
  00001	8b ec		 mov	 ebp, esp
  00003	8b c1		 mov	 eax, ecx
  00005	8b 4d 08	 mov	 ecx, DWORD PTR __Parg$[ebp]
  00008	89 08		 mov	 DWORD PTR [eax], ecx

; 46   : 		this->_Adopt(_Pvector);
; 47   : 		}

  0000a	5d		 pop	 ebp
  0000b	c2 08 00	 ret	 8
??0?$_Vector_const_iterator@V?$_Vector_val@UWeaponInfo@@V?$allocator@UWeaponInfo@@@std@@@std@@@std@@QAE@PAUWeaponInfo@@PBU_Container_base0@1@@Z ENDP ; std::_Vector_const_iterator<std::_Vector_val<WeaponInfo,std::allocator<WeaponInfo> > >::_Vector_const_iterator<std::_Vector_val<WeaponInfo,std::allocator<WeaponInfo> > >
_TEXT	ENDS
PUBLIC	??0?$_Vector_const_iterator@V?$_Vector_val@UForceInfo@@V?$allocator@UForceInfo@@@std@@@std@@@std@@QAE@PAUForceInfo@@PBU_Container_base0@1@@Z ; std::_Vector_const_iterator<std::_Vector_val<ForceInfo,std::allocator<ForceInfo> > >::_Vector_const_iterator<std::_Vector_val<ForceInfo,std::allocator<ForceInfo> > >
; Function compile flags: /Ogsp
;	COMDAT ??0?$_Vector_const_iterator@V?$_Vector_val@UForceInfo@@V?$allocator@UForceInfo@@@std@@@std@@@std@@QAE@PAUForceInfo@@PBU_Container_base0@1@@Z
_TEXT	SEGMENT
__Parg$ = 8						; size = 4
__Pvector$ = 12						; size = 4
??0?$_Vector_const_iterator@V?$_Vector_val@UForceInfo@@V?$allocator@UForceInfo@@@std@@@std@@@std@@QAE@PAUForceInfo@@PBU_Container_base0@1@@Z PROC ; std::_Vector_const_iterator<std::_Vector_val<ForceInfo,std::allocator<ForceInfo> > >::_Vector_const_iterator<std::_Vector_val<ForceInfo,std::allocator<ForceInfo> > >, COMDAT
; _this$ = ecx

; 45   : 		{	// construct with pointer _Parg

  00000	55		 push	 ebp
  00001	8b ec		 mov	 ebp, esp
  00003	8b c1		 mov	 eax, ecx
  00005	8b 4d 08	 mov	 ecx, DWORD PTR __Parg$[ebp]
  00008	89 08		 mov	 DWORD PTR [eax], ecx

; 46   : 		this->_Adopt(_Pvector);
; 47   : 		}

  0000a	5d		 pop	 ebp
  0000b	c2 08 00	 ret	 8
??0?$_Vector_const_iterator@V?$_Vector_val@UForceInfo@@V?$allocator@UForceInfo@@@std@@@std@@@std@@QAE@PAUForceInfo@@PBU_Container_base0@1@@Z ENDP ; std::_Vector_const_iterator<std::_Vector_val<ForceInfo,std::allocator<ForceInfo> > >::_Vector_const_iterator<std::_Vector_val<ForceInfo,std::allocator<ForceInfo> > >
_TEXT	ENDS
PUBLIC	?_Compat@?$_Vector_const_iterator@V?$_Vector_val@UWeaponInfo@@V?$allocator@UWeaponInfo@@@std@@@std@@@std@@QBEXABV12@@Z ; std::_Vector_const_iterator<std::_Vector_val<WeaponInfo,std::allocator<WeaponInfo> > >::_Compat
; Function compile flags: /Ogsp
;	COMDAT ?_Compat@?$_Vector_const_iterator@V?$_Vector_val@UWeaponInfo@@V?$allocator@UWeaponInfo@@@std@@@std@@@std@@QBEXABV12@@Z
_TEXT	SEGMENT
___formal$ = 8						; size = 4
?_Compat@?$_Vector_const_iterator@V?$_Vector_val@UWeaponInfo@@V?$allocator@UWeaponInfo@@@std@@@std@@@std@@QBEXABV12@@Z PROC ; std::_Vector_const_iterator<std::_Vector_val<WeaponInfo,std::allocator<WeaponInfo> > >::_Compat, COMDAT
; _this$ = ecx

; 253  : 		}

  00000	c2 04 00	 ret	 4
?_Compat@?$_Vector_const_iterator@V?$_Vector_val@UWeaponInfo@@V?$allocator@UWeaponInfo@@@std@@@std@@@std@@QBEXABV12@@Z ENDP ; std::_Vector_const_iterator<std::_Vector_val<WeaponInfo,std::allocator<WeaponInfo> > >::_Compat
_TEXT	ENDS
PUBLIC	?_Compat@?$_Vector_const_iterator@V?$_Vector_val@UForceInfo@@V?$allocator@UForceInfo@@@std@@@std@@@std@@QBEXABV12@@Z ; std::_Vector_const_iterator<std::_Vector_val<ForceInfo,std::allocator<ForceInfo> > >::_Compat
; Function compile flags: /Ogsp
;	COMDAT ?_Compat@?$_Vector_const_iterator@V?$_Vector_val@UForceInfo@@V?$allocator@UForceInfo@@@std@@@std@@@std@@QBEXABV12@@Z
_TEXT	SEGMENT
___formal$ = 8						; size = 4
?_Compat@?$_Vector_const_iterator@V?$_Vector_val@UForceInfo@@V?$allocator@UForceInfo@@@std@@@std@@@std@@QBEXABV12@@Z PROC ; std::_Vector_const_iterator<std::_Vector_val<ForceInfo,std::allocator<ForceInfo> > >::_Compat, COMDAT
; _this$ = ecx

; 253  : 		}

  00000	c2 04 00	 ret	 4
?_Compat@?$_Vector_const_iterator@V?$_Vector_val@UForceInfo@@V?$allocator@UForceInfo@@@std@@@std@@@std@@QBEXABV12@@Z ENDP ; std::_Vector_const_iterator<std::_Vector_val<ForceInfo,std::allocator<ForceInfo> > >::_Compat
_TEXT	ENDS
PUBLIC	??$_Ptr_cat@V?$_Vector_const_iterator@V?$_Vector_val@VioHashString@@V?$allocator@VioHashString@@@std@@@std@@@std@@PAVioHashString@@@std@@YA?AU_Nonscalar_ptr_iterator_tag@0@AAV?$_Vector_const_iterator@V?$_Vector_val@VioHashString@@V?$allocator@VioHashString@@@std@@@std@@@0@AAPAVioHashString@@@Z ; std::_Ptr_cat<std::_Vector_const_iterator<std::_Vector_val<ioHashString,std::allocator<ioHashString> > >,ioHashString *>
; Function compile flags: /Ogsp
; File c:\program files (x86)\microsoft visual studio 10.0\vc\include\xutility
;	COMDAT ??$_Ptr_cat@V?$_Vector_const_iterator@V?$_Vector_val@VioHashString@@V?$allocator@VioHashString@@@std@@@std@@@std@@PAVioHashString@@@std@@YA?AU_Nonscalar_ptr_iterator_tag@0@AAV?$_Vector_const_iterator@V?$_Vector_val@VioHashString@@V?$allocator@VioHashString@@@std@@@std@@@0@AAPAVioHashString@@@Z
_TEXT	SEGMENT
__Cat$ = -1						; size = 1
___formal$ = 8						; size = 4
___formal$ = 12						; size = 4
??$_Ptr_cat@V?$_Vector_const_iterator@V?$_Vector_val@VioHashString@@V?$allocator@VioHashString@@@std@@@std@@@std@@PAVioHashString@@@std@@YA?AU_Nonscalar_ptr_iterator_tag@0@AAV?$_Vector_const_iterator@V?$_Vector_val@VioHashString@@V?$allocator@VioHashString@@@std@@@std@@@0@AAPAVioHashString@@@Z PROC ; std::_Ptr_cat<std::_Vector_const_iterator<std::_Vector_val<ioHashString,std::allocator<ioHashString> > >,ioHashString *>, COMDAT

; 485  : 	{	// return pointer category from arbitrary arguments

  00000	55		 push	 ebp
  00001	8b ec		 mov	 ebp, esp
  00003	51		 push	 ecx

; 486  : 	_Nonscalar_ptr_iterator_tag _Cat;
; 487  : 	return (_Cat);

  00004	8a 45 ff	 mov	 al, BYTE PTR __Cat$[ebp]

; 488  : 	}

  00007	c9		 leave
  00008	c3		 ret	 0
??$_Ptr_cat@V?$_Vector_const_iterator@V?$_Vector_val@VioHashString@@V?$allocator@VioHashString@@@std@@@std@@@std@@PAVioHashString@@@std@@YA?AU_Nonscalar_ptr_iterator_tag@0@AAV?$_Vector_const_iterator@V?$_Vector_val@VioHashString@@V?$allocator@VioHashString@@@std@@@std@@@0@AAPAVioHashString@@@Z ENDP ; std::_Ptr_cat<std::_Vector_const_iterator<std::_Vector_val<ioHashString,std::allocator<ioHashString> > >,ioHashString *>
_TEXT	ENDS
PUBLIC	??$move@AAVioHashString@@@std@@YA$$QAVioHashString@@AAV1@@Z ; std::move<ioHashString &>
; Function compile flags: /Ogsp
; File c:\program files (x86)\microsoft visual studio 10.0\vc\include\utility
;	COMDAT ??$move@AAVioHashString@@@std@@YA$$QAVioHashString@@AAV1@@Z
_TEXT	SEGMENT
__Arg$ = 8						; size = 4
??$move@AAVioHashString@@@std@@YA$$QAVioHashString@@AAV1@@Z PROC ; std::move<ioHashString &>, COMDAT

; 86   : 	{	// forward _Arg as movable

  00000	55		 push	 ebp
  00001	8b ec		 mov	 ebp, esp

; 87   : 	return ((typename tr1::_Remove_reference<_Ty>::_Type&&)_Arg);

  00003	8b 45 08	 mov	 eax, DWORD PTR __Arg$[ebp]

; 88   : 	}

  00006	5d		 pop	 ebp
  00007	c3		 ret	 0
??$move@AAVioHashString@@@std@@YA$$QAVioHashString@@AAV1@@Z ENDP ; std::move<ioHashString &>
_TEXT	ENDS
PUBLIC	??$move@AAUAttackAttribute@@@std@@YA$$QAUAttackAttribute@@AAU1@@Z ; std::move<AttackAttribute &>
; Function compile flags: /Ogsp
;	COMDAT ??$move@AAUAttackAttribute@@@std@@YA$$QAUAttackAttribute@@AAU1@@Z
_TEXT	SEGMENT
__Arg$ = 8						; size = 4
??$move@AAUAttackAttribute@@@std@@YA$$QAUAttackAttribute@@AAU1@@Z PROC ; std::move<AttackAttribute &>, COMDAT

; 86   : 	{	// forward _Arg as movable

  00000	55		 push	 ebp
  00001	8b ec		 mov	 ebp, esp

; 87   : 	return ((typename tr1::_Remove_reference<_Ty>::_Type&&)_Arg);

  00003	8b 45 08	 mov	 eax, DWORD PTR __Arg$[ebp]

; 88   : 	}

  00006	5d		 pop	 ebp
  00007	c3		 ret	 0
??$move@AAUAttackAttribute@@@std@@YA$$QAUAttackAttribute@@AAU1@@Z ENDP ; std::move<AttackAttribute &>
_TEXT	ENDS
PUBLIC	??$_Allocate@UWeaponInfo@@@std@@YAPAUWeaponInfo@@IPAU1@@Z ; std::_Allocate<WeaponInfo>
; Function compile flags: /Ogsp
; File c:\program files (x86)\microsoft visual studio 10.0\vc\include\xmemory
;	COMDAT ??$_Allocate@UWeaponInfo@@@std@@YAPAUWeaponInfo@@IPAU1@@Z
_TEXT	SEGMENT
$T606618 = -12						; size = 12
$T606622 = 8						; size = 4
__Count$ = 8						; size = 4
___formal$ = 12						; size = 4
??$_Allocate@UWeaponInfo@@@std@@YAPAUWeaponInfo@@IPAU1@@Z PROC ; std::_Allocate<WeaponInfo>, COMDAT

; 30   : 	{	// allocate storage for _Count elements of type _Ty

  00000	55		 push	 ebp
  00001	8b ec		 mov	 ebp, esp

; 31   : 	void *_Ptr = 0;
; 32   : 
; 33   : 	if (_Count <= 0)

  00003	8b 4d 08	 mov	 ecx, DWORD PTR __Count$[ebp]
  00006	83 ec 0c	 sub	 esp, 12			; 0000000cH
  00009	33 c0		 xor	 eax, eax
  0000b	85 c9		 test	 ecx, ecx

; 34   : 		_Count = 0;
; 35   : 	else if (((_SIZT)(-1) / sizeof (_Ty) < _Count)

  0000d	74 3c		 je	 SHORT $LN5@Allocate@4

; 36   : 		|| (_Ptr = ::operator new(_Count * sizeof (_Ty))) == 0)

  0000f	81 f9 66 66 66
	06		 cmp	 ecx, 107374182		; 06666666H
  00015	77 0e		 ja	 SHORT $LN1@Allocate@4
  00017	6b c9 28	 imul	 ecx, 40			; 00000028H
  0001a	51		 push	 ecx
  0001b	e8 00 00 00 00	 call	 ??2@YAPAXI@Z		; operator new
  00020	59		 pop	 ecx
  00021	85 c0		 test	 eax, eax

; 38   : 
; 39   : 	return ((_Ty _FARQ *)_Ptr);

  00023	75 26		 jne	 SHORT $LN5@Allocate@4
$LN1@Allocate@4:

; 37   : 		_THROW_NCEE(bad_alloc, 0);

  00025	83 65 08 00	 and	 DWORD PTR $T606622[ebp], 0
  00029	8d 45 08	 lea	 eax, DWORD PTR $T606622[ebp]
  0002c	50		 push	 eax
  0002d	8d 4d f4	 lea	 ecx, DWORD PTR $T606618[ebp]
  00030	ff 15 00 00 00
	00		 call	 DWORD PTR __imp_??0exception@std@@QAE@ABQBD@Z
  00036	68 00 00 00 00	 push	 OFFSET __TI2?AVbad_alloc@std@@
  0003b	8d 45 f4	 lea	 eax, DWORD PTR $T606618[ebp]
  0003e	50		 push	 eax
  0003f	c7 45 f4 00 00
	00 00		 mov	 DWORD PTR $T606618[ebp], OFFSET ??_7bad_alloc@std@@6B@
  00046	e8 00 00 00 00	 call	 __CxxThrowException@8
$LN10@Allocate@4:
$LN5@Allocate@4:

; 40   : 	}

  0004b	c9		 leave
  0004c	c3		 ret	 0
$LN9@Allocate@4:
??$_Allocate@UWeaponInfo@@@std@@YAPAUWeaponInfo@@IPAU1@@Z ENDP ; std::_Allocate<WeaponInfo>
_TEXT	ENDS
PUBLIC	??$_Allocate@UForceInfo@@@std@@YAPAUForceInfo@@IPAU1@@Z ; std::_Allocate<ForceInfo>
; Function compile flags: /Ogsp
;	COMDAT ??$_Allocate@UForceInfo@@@std@@YAPAUForceInfo@@IPAU1@@Z
_TEXT	SEGMENT
$T606627 = -12						; size = 12
$T606631 = 8						; size = 4
__Count$ = 8						; size = 4
___formal$ = 12						; size = 4
??$_Allocate@UForceInfo@@@std@@YAPAUForceInfo@@IPAU1@@Z PROC ; std::_Allocate<ForceInfo>, COMDAT

; 30   : 	{	// allocate storage for _Count elements of type _Ty

  00000	55		 push	 ebp
  00001	8b ec		 mov	 ebp, esp

; 31   : 	void *_Ptr = 0;
; 32   : 
; 33   : 	if (_Count <= 0)

  00003	8b 4d 08	 mov	 ecx, DWORD PTR __Count$[ebp]
  00006	83 ec 0c	 sub	 esp, 12			; 0000000cH
  00009	33 c0		 xor	 eax, eax
  0000b	85 c9		 test	 ecx, ecx

; 34   : 		_Count = 0;
; 35   : 	else if (((_SIZT)(-1) / sizeof (_Ty) < _Count)

  0000d	74 3c		 je	 SHORT $LN5@Allocate@5

; 36   : 		|| (_Ptr = ::operator new(_Count * sizeof (_Ty))) == 0)

  0000f	81 f9 55 55 55
	15		 cmp	 ecx, 357913941		; 15555555H
  00015	77 0e		 ja	 SHORT $LN1@Allocate@5
  00017	6b c9 0c	 imul	 ecx, 12			; 0000000cH
  0001a	51		 push	 ecx
  0001b	e8 00 00 00 00	 call	 ??2@YAPAXI@Z		; operator new
  00020	59		 pop	 ecx
  00021	85 c0		 test	 eax, eax

; 38   : 
; 39   : 	return ((_Ty _FARQ *)_Ptr);

  00023	75 26		 jne	 SHORT $LN5@Allocate@5
$LN1@Allocate@5:

; 37   : 		_THROW_NCEE(bad_alloc, 0);

  00025	83 65 08 00	 and	 DWORD PTR $T606631[ebp], 0
  00029	8d 45 08	 lea	 eax, DWORD PTR $T606631[ebp]
  0002c	50		 push	 eax
  0002d	8d 4d f4	 lea	 ecx, DWORD PTR $T606627[ebp]
  00030	ff 15 00 00 00
	00		 call	 DWORD PTR __imp_??0exception@std@@QAE@ABQBD@Z
  00036	68 00 00 00 00	 push	 OFFSET __TI2?AVbad_alloc@std@@
  0003b	8d 45 f4	 lea	 eax, DWORD PTR $T606627[ebp]
  0003e	50		 push	 eax
  0003f	c7 45 f4 00 00
	00 00		 mov	 DWORD PTR $T606627[ebp], OFFSET ??_7bad_alloc@std@@6B@
  00046	e8 00 00 00 00	 call	 __CxxThrowException@8
$LN10@Allocate@5:
$LN5@Allocate@5:

; 40   : 	}

  0004b	c9		 leave
  0004c	c3		 ret	 0
$LN9@Allocate@5:
??$_Allocate@UForceInfo@@@std@@YAPAUForceInfo@@IPAU1@@Z ENDP ; std::_Allocate<ForceInfo>
_TEXT	ENDS
PUBLIC	??D?$_Vector_const_iterator@V?$_Vector_val@VioHashString@@V?$allocator@VioHashString@@@std@@@std@@@std@@QBEABVioHashString@@XZ ; std::_Vector_const_iterator<std::_Vector_val<ioHashString,std::allocator<ioHashString> > >::operator*
; Function compile flags: /Ogsp
; File c:\program files (x86)\microsoft visual studio 10.0\vc\include\vector
;	COMDAT ??D?$_Vector_const_iterator@V?$_Vector_val@VioHashString@@V?$allocator@VioHashString@@@std@@@std@@@std@@QBEABVioHashString@@XZ
_TEXT	SEGMENT
??D?$_Vector_const_iterator@V?$_Vector_val@VioHashString@@V?$allocator@VioHashString@@@std@@@std@@@std@@QBEABVioHashString@@XZ PROC ; std::_Vector_const_iterator<std::_Vector_val<ioHashString,std::allocator<ioHashString> > >::operator*, COMDAT
; _this$ = ecx

; 64   :  #if _ITERATOR_DEBUG_LEVEL == 2
; 65   : 		if (this->_Getcont() == 0
; 66   : 			|| this->_Ptr == 0
; 67   : 			|| this->_Ptr < ((_Myvec *)this->_Getcont())->_Myfirst
; 68   : 			|| ((_Myvec *)this->_Getcont())->_Mylast <= this->_Ptr)
; 69   : 			{	// report error
; 70   : 			_DEBUG_ERROR("vector iterator not dereferencable");
; 71   : 			_SCL_SECURE_OUT_OF_RANGE;
; 72   : 			}
; 73   : 
; 74   :  #elif _ITERATOR_DEBUG_LEVEL == 1
; 75   : 		_SCL_SECURE_VALIDATE(this->_Getcont() != 0);
; 76   : 		_SCL_SECURE_VALIDATE_RANGE(
; 77   : 			this->_Ptr != 0
; 78   : 			&& ((_Myvec *)this->_Getcont())->_Myfirst <= this->_Ptr
; 79   : 			&& this->_Ptr < ((_Myvec *)this->_Getcont())->_Mylast);
; 80   :  #endif /* _ITERATOR_DEBUG_LEVEL */
; 81   : 
; 82   : 		__analysis_assume(this->_Ptr != 0);
; 83   : 
; 84   : 		return (*this->_Ptr);

  00000	8b 01		 mov	 eax, DWORD PTR [ecx]

; 85   : 		}

  00002	c3		 ret	 0
??D?$_Vector_const_iterator@V?$_Vector_val@VioHashString@@V?$allocator@VioHashString@@@std@@@std@@@std@@QBEABVioHashString@@XZ ENDP ; std::_Vector_const_iterator<std::_Vector_val<ioHashString,std::allocator<ioHashString> > >::operator*
_TEXT	ENDS
PUBLIC	??E?$_Vector_const_iterator@V?$_Vector_val@VioHashString@@V?$allocator@VioHashString@@@std@@@std@@@std@@QAEAAV01@XZ ; std::_Vector_const_iterator<std::_Vector_val<ioHashString,std::allocator<ioHashString> > >::operator++
; Function compile flags: /Ogsp
;	COMDAT ??E?$_Vector_const_iterator@V?$_Vector_val@VioHashString@@V?$allocator@VioHashString@@@std@@@std@@@std@@QAEAAV01@XZ
_TEXT	SEGMENT
??E?$_Vector_const_iterator@V?$_Vector_val@VioHashString@@V?$allocator@VioHashString@@@std@@@std@@@std@@QAEAAV01@XZ PROC ; std::_Vector_const_iterator<std::_Vector_val<ioHashString,std::allocator<ioHashString> > >::operator++, COMDAT
; _this$ = ecx

; 93   : 		{	// preincrement

  00000	8b c1		 mov	 eax, ecx

; 94   :  #if _ITERATOR_DEBUG_LEVEL == 2
; 95   : 		if (this->_Getcont() == 0
; 96   : 			|| this->_Ptr == 0
; 97   : 			|| ((_Myvec *)this->_Getcont())->_Mylast <= this->_Ptr)
; 98   : 			{	// report error
; 99   : 			_DEBUG_ERROR("vector iterator not incrementable");
; 100  : 			_SCL_SECURE_OUT_OF_RANGE;
; 101  : 			}
; 102  : 
; 103  :  #elif _ITERATOR_DEBUG_LEVEL == 1
; 104  : 		_SCL_SECURE_VALIDATE(this->_Getcont() != 0);
; 105  : 		_SCL_SECURE_VALIDATE_RANGE(
; 106  : 			this->_Ptr != 0
; 107  : 			&& this->_Ptr < ((_Myvec *)this->_Getcont())->_Mylast);
; 108  :  #endif /* _ITERATOR_DEBUG_LEVEL */
; 109  : 
; 110  : 		++this->_Ptr;

  00002	83 00 10	 add	 DWORD PTR [eax], 16	; 00000010H

; 111  : 		return (*this);
; 112  : 		}

  00005	c3		 ret	 0
??E?$_Vector_const_iterator@V?$_Vector_val@VioHashString@@V?$allocator@VioHashString@@@std@@@std@@@std@@QAEAAV01@XZ ENDP ; std::_Vector_const_iterator<std::_Vector_val<ioHashString,std::allocator<ioHashString> > >::operator++
_TEXT	ENDS
PUBLIC	??$_Copy_impl@PAUForceInfo@@PAU1@@std@@YAPAUForceInfo@@PAU1@00U_Nonscalar_ptr_iterator_tag@0@@Z ; std::_Copy_impl<ForceInfo *,ForceInfo *>
; Function compile flags: /Ogsp
; File c:\program files (x86)\microsoft visual studio 10.0\vc\include\xutility
;	COMDAT ??$_Copy_impl@PAUForceInfo@@PAU1@@std@@YAPAUForceInfo@@PAU1@00U_Nonscalar_ptr_iterator_tag@0@@Z
_TEXT	SEGMENT
__First$ = 8						; size = 4
__Last$ = 12						; size = 4
__Dest$ = 16						; size = 4
___formal$ = 20						; size = 1
??$_Copy_impl@PAUForceInfo@@PAU1@@std@@YAPAUForceInfo@@PAU1@00U_Nonscalar_ptr_iterator_tag@0@@Z PROC ; std::_Copy_impl<ForceInfo *,ForceInfo *>, COMDAT

; 2142 : 	{	// copy [_First, _Last) to [_Dest, ...), arbitrary iterators

  00000	55		 push	 ebp
  00001	8b ec		 mov	 ebp, esp

; 2143 : 	for (; _First != _Last; ++_Dest, ++_First)

  00003	8b 45 08	 mov	 eax, DWORD PTR __First$[ebp]
  00006	3b 45 0c	 cmp	 eax, DWORD PTR __Last$[ebp]
  00009	74 18		 je	 SHORT $LN8@Copy_impl
  0000b	56		 push	 esi
  0000c	57		 push	 edi
$LL3@Copy_impl:

; 2144 : 		*_Dest = *_First;

  0000d	8b 7d 10	 mov	 edi, DWORD PTR __Dest$[ebp]
  00010	83 45 10 0c	 add	 DWORD PTR __Dest$[ebp], 12 ; 0000000cH
  00014	8b f0		 mov	 esi, eax
  00016	a5		 movsd
  00017	a5		 movsd
  00018	83 c0 0c	 add	 eax, 12			; 0000000cH
  0001b	a5		 movsd
  0001c	3b 45 0c	 cmp	 eax, DWORD PTR __Last$[ebp]
  0001f	75 ec		 jne	 SHORT $LL3@Copy_impl
  00021	5f		 pop	 edi
  00022	5e		 pop	 esi
$LN8@Copy_impl:

; 2145 : 	return (_Dest);

  00023	8b 45 10	 mov	 eax, DWORD PTR __Dest$[ebp]

; 2146 : 	}

  00026	5d		 pop	 ebp
  00027	c3		 ret	 0
??$_Copy_impl@PAUForceInfo@@PAU1@@std@@YAPAUForceInfo@@PAU1@00U_Nonscalar_ptr_iterator_tag@0@@Z ENDP ; std::_Copy_impl<ForceInfo *,ForceInfo *>
_TEXT	ENDS
PUBLIC	??$_Destroy@UForceInfo@@@std@@YAXPAUForceInfo@@@Z ; std::_Destroy<ForceInfo>
; Function compile flags: /Ogsp
; File c:\program files (x86)\microsoft visual studio 10.0\vc\include\xmemory
;	COMDAT ??$_Destroy@UForceInfo@@@std@@YAXPAUForceInfo@@@Z
_TEXT	SEGMENT
__Ptr$ = 8						; size = 4
??$_Destroy@UForceInfo@@@std@@YAXPAUForceInfo@@@Z PROC	; std::_Destroy<ForceInfo>, COMDAT

; 63   : 	_Ptr->~_Ty();
; 64   : 	}

  00000	c3		 ret	 0
??$_Destroy@UForceInfo@@@std@@YAXPAUForceInfo@@@Z ENDP	; std::_Destroy<ForceInfo>
_TEXT	ENDS
PUBLIC	??4WeaponInfo@@QAEAAU0@ABU0@@Z			; WeaponInfo::operator=
EXTRN	__imp_??4ioHashString@@QAEAAV0@ABV0@@Z:PROC
; Function compile flags: /Ogsp
;	COMDAT ??4WeaponInfo@@QAEAAU0@ABU0@@Z
_TEXT	SEGMENT
___that$ = 8						; size = 4
??4WeaponInfo@@QAEAAU0@ABU0@@Z PROC			; WeaponInfo::operator=, COMDAT
; _this$ = ecx
  00000	55		 push	 ebp
  00001	8b ec		 mov	 ebp, esp
  00003	56		 push	 esi
  00004	57		 push	 edi
  00005	8b 7d 08	 mov	 edi, DWORD PTR ___that$[ebp]
  00008	8b 07		 mov	 eax, DWORD PTR [edi]
  0000a	8b f1		 mov	 esi, ecx
  0000c	89 06		 mov	 DWORD PTR [esi], eax
  0000e	8b 47 04	 mov	 eax, DWORD PTR [edi+4]
  00011	89 46 04	 mov	 DWORD PTR [esi+4], eax
  00014	8d 47 08	 lea	 eax, DWORD PTR [edi+8]
  00017	50		 push	 eax
  00018	8d 4e 08	 lea	 ecx, DWORD PTR [esi+8]
  0001b	ff 15 00 00 00
	00		 call	 DWORD PTR __imp_??4ioHashString@@QAEAAV0@ABV0@@Z
  00021	8b 47 18	 mov	 eax, DWORD PTR [edi+24]
  00024	89 46 18	 mov	 DWORD PTR [esi+24], eax
  00027	8b 47 1c	 mov	 eax, DWORD PTR [edi+28]
  0002a	89 46 1c	 mov	 DWORD PTR [esi+28], eax
  0002d	8a 47 20	 mov	 al, BYTE PTR [edi+32]
  00030	88 46 20	 mov	 BYTE PTR [esi+32], al
  00033	8b 47 24	 mov	 eax, DWORD PTR [edi+36]
  00036	89 46 24	 mov	 DWORD PTR [esi+36], eax
  00039	5f		 pop	 edi
  0003a	8b c6		 mov	 eax, esi
  0003c	5e		 pop	 esi
  0003d	5d		 pop	 ebp
  0003e	c2 04 00	 ret	 4
??4WeaponInfo@@QAEAAU0@ABU0@@Z ENDP			; WeaponInfo::operator=
_TEXT	ENDS
PUBLIC	??_GioHashString@@QAEPAXI@Z			; ioHashString::`scalar deleting destructor'
; Function compile flags: /Ogsp
;	COMDAT ??_GioHashString@@QAEPAXI@Z
_TEXT	SEGMENT
___flags$ = 8						; size = 4
??_GioHashString@@QAEPAXI@Z PROC			; ioHashString::`scalar deleting destructor', COMDAT
; _this$ = ecx
  00000	55		 push	 ebp
  00001	8b ec		 mov	 ebp, esp
  00003	56		 push	 esi
  00004	8b f1		 mov	 esi, ecx
  00006	ff 15 00 00 00
	00		 call	 DWORD PTR __imp_??1ioHashString@@QAE@XZ
  0000c	f6 45 08 01	 test	 BYTE PTR ___flags$[ebp], 1
  00010	74 07		 je	 SHORT $LN1@scalar@4
  00012	56		 push	 esi
  00013	e8 00 00 00 00	 call	 ??3@YAXPAX@Z		; operator delete
  00018	59		 pop	 ecx
$LN1@scalar@4:
  00019	8b c6		 mov	 eax, esi
  0001b	5e		 pop	 esi
  0001c	5d		 pop	 ebp
  0001d	c2 04 00	 ret	 4
??_GioHashString@@QAEPAXI@Z ENDP			; ioHashString::`scalar deleting destructor'
_TEXT	ENDS
PUBLIC	??_GWeaponInfo@@QAEPAXI@Z			; WeaponInfo::`scalar deleting destructor'
; Function compile flags: /Ogsp
;	COMDAT ??_GWeaponInfo@@QAEPAXI@Z
_TEXT	SEGMENT
___flags$ = 8						; size = 4
??_GWeaponInfo@@QAEPAXI@Z PROC				; WeaponInfo::`scalar deleting destructor', COMDAT
; _this$ = ecx
  00000	55		 push	 ebp
  00001	8b ec		 mov	 ebp, esp
  00003	56		 push	 esi
  00004	8b f1		 mov	 esi, ecx
  00006	8d 4e 08	 lea	 ecx, DWORD PTR [esi+8]
  00009	ff 15 00 00 00
	00		 call	 DWORD PTR __imp_??1ioHashString@@QAE@XZ
  0000f	f6 45 08 01	 test	 BYTE PTR ___flags$[ebp], 1
  00013	74 07		 je	 SHORT $LN1@scalar@5
  00015	56		 push	 esi
  00016	e8 00 00 00 00	 call	 ??3@YAXPAX@Z		; operator delete
  0001b	59		 pop	 ecx
$LN1@scalar@5:
  0001c	8b c6		 mov	 eax, esi
  0001e	5e		 pop	 esi
  0001f	5d		 pop	 ebp
  00020	c2 04 00	 ret	 4
??_GWeaponInfo@@QAEPAXI@Z ENDP				; WeaponInfo::`scalar deleting destructor'
_TEXT	ENDS
PUBLIC	??$move@AAUWeaponInfo@@@std@@YA$$QAUWeaponInfo@@AAU1@@Z ; std::move<WeaponInfo &>
; Function compile flags: /Ogsp
; File c:\program files (x86)\microsoft visual studio 10.0\vc\include\utility
;	COMDAT ??$move@AAUWeaponInfo@@@std@@YA$$QAUWeaponInfo@@AAU1@@Z
_TEXT	SEGMENT
__Arg$ = 8						; size = 4
??$move@AAUWeaponInfo@@@std@@YA$$QAUWeaponInfo@@AAU1@@Z PROC ; std::move<WeaponInfo &>, COMDAT

; 86   : 	{	// forward _Arg as movable

  00000	55		 push	 ebp
  00001	8b ec		 mov	 ebp, esp

; 87   : 	return ((typename tr1::_Remove_reference<_Ty>::_Type&&)_Arg);

  00003	8b 45 08	 mov	 eax, DWORD PTR __Arg$[ebp]

; 88   : 	}

  00006	5d		 pop	 ebp
  00007	c3		 ret	 0
??$move@AAUWeaponInfo@@@std@@YA$$QAUWeaponInfo@@AAU1@@Z ENDP ; std::move<WeaponInfo &>
_TEXT	ENDS
PUBLIC	??$move@AAUForceInfo@@@std@@YA$$QAUForceInfo@@AAU1@@Z ; std::move<ForceInfo &>
; Function compile flags: /Ogsp
;	COMDAT ??$move@AAUForceInfo@@@std@@YA$$QAUForceInfo@@AAU1@@Z
_TEXT	SEGMENT
__Arg$ = 8						; size = 4
??$move@AAUForceInfo@@@std@@YA$$QAUForceInfo@@AAU1@@Z PROC ; std::move<ForceInfo &>, COMDAT

; 86   : 	{	// forward _Arg as movable

  00000	55		 push	 ebp
  00001	8b ec		 mov	 ebp, esp

; 87   : 	return ((typename tr1::_Remove_reference<_Ty>::_Type&&)_Arg);

  00003	8b 45 08	 mov	 eax, DWORD PTR __Arg$[ebp]

; 88   : 	}

  00006	5d		 pop	 ebp
  00007	c3		 ret	 0
??$move@AAUForceInfo@@@std@@YA$$QAUForceInfo@@AAU1@@Z ENDP ; std::move<ForceInfo &>
_TEXT	ENDS
PUBLIC	??$_Construct@VioHashString@@ABV1@@std@@YAXPAVioHashString@@ABV1@@Z ; std::_Construct<ioHashString,ioHashString const &>
;	COMDAT xdata$x
xdata$x	SEGMENT
__unwindtable$??$_Construct@VioHashString@@ABV1@@std@@YAXPAVioHashString@@ABV1@@Z DD 0ffffffffH
	DD	FLAT:__unwindfunclet$??$_Construct@VioHashString@@ABV1@@std@@YAXPAVioHashString@@ABV1@@Z$0
__ehfuncinfo$??$_Construct@VioHashString@@ABV1@@std@@YAXPAVioHashString@@ABV1@@Z DD 019930522H
	DD	01H
	DD	FLAT:__unwindtable$??$_Construct@VioHashString@@ABV1@@std@@YAXPAVioHashString@@ABV1@@Z
	DD	2 DUP(00H)
	DD	2 DUP(00H)
	DD	00H
	DD	01H
; Function compile flags: /Ogsp
; File c:\program files (x86)\microsoft visual studio 10.0\vc\include\xmemory
xdata$x	ENDS
;	COMDAT ??$_Construct@VioHashString@@ABV1@@std@@YAXPAVioHashString@@ABV1@@Z
_TEXT	SEGMENT
$T606665 = -16						; size = 4
__$EHRec$ = -12						; size = 12
__Vptr$ = 8						; size = 4
__Ptr$ = 8						; size = 4
__Val$ = 12						; size = 4
??$_Construct@VioHashString@@ABV1@@std@@YAXPAVioHashString@@ABV1@@Z PROC ; std::_Construct<ioHashString,ioHashString const &>, COMDAT

; 46   : 	{	// construct object at _Ptr with value _Val

  00000	6a 04		 push	 4
  00002	b8 00 00 00 00	 mov	 eax, __ehhandler$??$_Construct@VioHashString@@ABV1@@std@@YAXPAVioHashString@@ABV1@@Z
  00007	e8 00 00 00 00	 call	 __EH_prolog3

; 47   : 	void _FARQ *_Vptr = _Ptr;

  0000c	8b 4d 08	 mov	 ecx, DWORD PTR __Ptr$[ebp]
  0000f	89 4d 08	 mov	 DWORD PTR __Vptr$[ebp], ecx

; 48   : 	::new (_Vptr) _Ty1(_STD forward<_Ty2>(_Val));

  00012	89 4d f0	 mov	 DWORD PTR $T606665[ebp], ecx
  00015	83 65 fc 00	 and	 DWORD PTR __$EHRec$[ebp+8], 0
  00019	85 c9		 test	 ecx, ecx
  0001b	74 09		 je	 SHORT $LN3@Construct@2
  0001d	ff 75 0c	 push	 DWORD PTR __Val$[ebp]
  00020	ff 15 00 00 00
	00		 call	 DWORD PTR __imp_??0ioHashString@@QAE@ABV0@@Z
$LN3@Construct@2:

; 49   : 	}

  00026	e8 00 00 00 00	 call	 __EH_epilog3
  0002b	c3		 ret	 0
_TEXT	ENDS
;	COMDAT text$x
text$x	SEGMENT
__unwindfunclet$??$_Construct@VioHashString@@ABV1@@std@@YAXPAVioHashString@@ABV1@@Z$0:
  00000	ff 75 08	 push	 DWORD PTR __Vptr$[ebp]
  00003	ff 75 f0	 push	 DWORD PTR $T606665[ebp]
  00006	e8 00 00 00 00	 call	 ??3@YAXPAX0@Z		; operator delete
  0000b	59		 pop	 ecx
  0000c	59		 pop	 ecx
  0000d	c3		 ret	 0
__ehhandler$??$_Construct@VioHashString@@ABV1@@std@@YAXPAVioHashString@@ABV1@@Z:
  0000e	8b 54 24 08	 mov	 edx, DWORD PTR [esp+8]
  00012	8d 42 0c	 lea	 eax, DWORD PTR [edx+12]
  00015	8b 4a ec	 mov	 ecx, DWORD PTR [edx-20]
  00018	33 c8		 xor	 ecx, eax
  0001a	e8 00 00 00 00	 call	 @__security_check_cookie@4
  0001f	b8 00 00 00 00	 mov	 eax, OFFSET __ehfuncinfo$??$_Construct@VioHashString@@ABV1@@std@@YAXPAVioHashString@@ABV1@@Z
  00024	e9 00 00 00 00	 jmp	 ___CxxFrameHandler3
text$x	ENDS
??$_Construct@VioHashString@@ABV1@@std@@YAXPAVioHashString@@ABV1@@Z ENDP ; std::_Construct<ioHashString,ioHashString const &>
PUBLIC	??$forward@AAUWeaponInfo@@@std@@YAAAUWeaponInfo@@AAU1@@Z ; std::forward<WeaponInfo &>
; Function compile flags: /Ogsp
; File c:\program files (x86)\microsoft visual studio 10.0\vc\include\utility
;	COMDAT ??$forward@AAUWeaponInfo@@@std@@YAAAUWeaponInfo@@AAU1@@Z
_TEXT	SEGMENT
__Arg$ = 8						; size = 4
??$forward@AAUWeaponInfo@@@std@@YAAAUWeaponInfo@@AAU1@@Z PROC ; std::forward<WeaponInfo &>, COMDAT

; 78   : 	{	// forward _Arg, given explicitly specified type parameter

  00000	55		 push	 ebp
  00001	8b ec		 mov	 ebp, esp

; 79   : 	return ((_Ty&&)_Arg);

  00003	8b 45 08	 mov	 eax, DWORD PTR __Arg$[ebp]

; 80   : 	}

  00006	5d		 pop	 ebp
  00007	c3		 ret	 0
??$forward@AAUWeaponInfo@@@std@@YAAAUWeaponInfo@@AAU1@@Z ENDP ; std::forward<WeaponInfo &>
_TEXT	ENDS
PUBLIC	??$forward@AAUForceInfo@@@std@@YAAAUForceInfo@@AAU1@@Z ; std::forward<ForceInfo &>
; Function compile flags: /Ogsp
;	COMDAT ??$forward@AAUForceInfo@@@std@@YAAAUForceInfo@@AAU1@@Z
_TEXT	SEGMENT
__Arg$ = 8						; size = 4
??$forward@AAUForceInfo@@@std@@YAAAUForceInfo@@AAU1@@Z PROC ; std::forward<ForceInfo &>, COMDAT

; 78   : 	{	// forward _Arg, given explicitly specified type parameter

  00000	55		 push	 ebp
  00001	8b ec		 mov	 ebp, esp

; 79   : 	return ((_Ty&&)_Arg);

  00003	8b 45 08	 mov	 eax, DWORD PTR __Arg$[ebp]

; 80   : 	}

  00006	5d		 pop	 ebp
  00007	c3		 ret	 0
??$forward@AAUForceInfo@@@std@@YAAAUForceInfo@@AAU1@@Z ENDP ; std::forward<ForceInfo &>
_TEXT	ENDS
PUBLIC	??$construct@AAUForceInfo@@@?$allocator@UForceInfo@@@std@@QAEXPAUForceInfo@@AAU2@@Z ; std::allocator<ForceInfo>::construct<ForceInfo &>
; Function compile flags: /Ogsp
; File c:\program files (x86)\microsoft visual studio 10.0\vc\include\xmemory
;	COMDAT ??$construct@AAUForceInfo@@@?$allocator@UForceInfo@@@std@@QAEXPAUForceInfo@@AAU2@@Z
_TEXT	SEGMENT
__Ptr$ = 8						; size = 4
__Val$ = 12						; size = 4
??$construct@AAUForceInfo@@@?$allocator@UForceInfo@@@std@@QAEXPAUForceInfo@@AAU2@@Z PROC ; std::allocator<ForceInfo>::construct<ForceInfo &>, COMDAT
; _this$ = ecx

; 206  : 		void construct(pointer _Ptr, _Other&& _Val)

  00000	55		 push	 ebp
  00001	8b ec		 mov	 ebp, esp
  00003	57		 push	 edi

; 207  : 		{	// construct object at _Ptr with value _Val
; 208  : 		::new ((void _FARQ *)_Ptr) _Ty(_STD forward<_Other>(_Val));

  00004	8b 7d 08	 mov	 edi, DWORD PTR __Ptr$[ebp]
  00007	85 ff		 test	 edi, edi
  00009	74 08		 je	 SHORT $LN3@construct@2
  0000b	56		 push	 esi
  0000c	8b 75 0c	 mov	 esi, DWORD PTR __Val$[ebp]
  0000f	a5		 movsd
  00010	a5		 movsd
  00011	a5		 movsd
  00012	5e		 pop	 esi
$LN3@construct@2:
  00013	5f		 pop	 edi

; 209  : 		}

  00014	5d		 pop	 ebp
  00015	c2 08 00	 ret	 8
??$construct@AAUForceInfo@@@?$allocator@UForceInfo@@@std@@QAEXPAUForceInfo@@AAU2@@Z ENDP ; std::allocator<ForceInfo>::construct<ForceInfo &>
_TEXT	ENDS
PUBLIC	??0WeaponInfo@@QAE@ABU0@@Z			; WeaponInfo::WeaponInfo
; Function compile flags: /Ogsp
;	COMDAT ??0WeaponInfo@@QAE@ABU0@@Z
_TEXT	SEGMENT
___that$ = 8						; size = 4
??0WeaponInfo@@QAE@ABU0@@Z PROC				; WeaponInfo::WeaponInfo, COMDAT
; _this$ = ecx
  00000	55		 push	 ebp
  00001	8b ec		 mov	 ebp, esp
  00003	56		 push	 esi
  00004	57		 push	 edi
  00005	8b 7d 08	 mov	 edi, DWORD PTR ___that$[ebp]
  00008	8b 07		 mov	 eax, DWORD PTR [edi]
  0000a	8b f1		 mov	 esi, ecx
  0000c	89 06		 mov	 DWORD PTR [esi], eax
  0000e	8b 47 04	 mov	 eax, DWORD PTR [edi+4]
  00011	89 46 04	 mov	 DWORD PTR [esi+4], eax
  00014	8d 47 08	 lea	 eax, DWORD PTR [edi+8]
  00017	50		 push	 eax
  00018	8d 4e 08	 lea	 ecx, DWORD PTR [esi+8]
  0001b	ff 15 00 00 00
	00		 call	 DWORD PTR __imp_??0ioHashString@@QAE@ABV0@@Z
  00021	8b 47 18	 mov	 eax, DWORD PTR [edi+24]
  00024	89 46 18	 mov	 DWORD PTR [esi+24], eax
  00027	8b 47 1c	 mov	 eax, DWORD PTR [edi+28]
  0002a	89 46 1c	 mov	 DWORD PTR [esi+28], eax
  0002d	8a 47 20	 mov	 al, BYTE PTR [edi+32]
  00030	88 46 20	 mov	 BYTE PTR [esi+32], al
  00033	8b 47 24	 mov	 eax, DWORD PTR [edi+36]
  00036	89 46 24	 mov	 DWORD PTR [esi+36], eax
  00039	5f		 pop	 edi
  0003a	8b c6		 mov	 eax, esi
  0003c	5e		 pop	 esi
  0003d	5d		 pop	 ebp
  0003e	c2 04 00	 ret	 4
??0WeaponInfo@@QAE@ABU0@@Z ENDP				; WeaponInfo::WeaponInfo
_TEXT	ENDS
PUBLIC	??_C@_0EC@IOBMGHOL@ioConsecutionItem?3?3SetJumpAttack@ ; `string'
PUBLIC	??_C@_0DN@BPCCMEBN@ioConsecutionItem?3?3SetJumpAttack@ ; `string'
PUBLIC	?SetJumpAttack@ioConsecutionItem@@UAE_NPAVioBaseChar@@HMW4AttackType@@@Z ; ioConsecutionItem::SetJumpAttack
EXTRN	__imp_?GetAnimationIdx@ioEntityGroup@@QAEHABVioHashString@@@Z:PROC
EXTRN	__imp_?PrintTimeAndLog@CLog@@QAAXHPADZZ:PROC
EXTRN	__imp_?LOG@@3VCLog@@A:BYTE
EXTRN	__imp_?GetLoopSec@ioFrameTimer@@QBEKXZ:PROC
EXTRN	__imp_?GetSingleton@ioFrameTimer@@SAAAV1@XZ:PROC
;	COMDAT ??_C@_0EC@IOBMGHOL@ioConsecutionItem?3?3SetJumpAttack@
; File d:\lost saga for developer\youtube\tutorial\source\src\lsclient\iogameentity.h
CONST	SEGMENT
??_C@_0EC@IOBMGHOL@ioConsecutionItem?3?3SetJumpAttack@ DB 'ioConsecutionI'
	DB	'tem::SetJumpAttack - JumpAttack Animation Not Exist', 00H ; `string'
CONST	ENDS
;	COMDAT ??_C@_0DN@BPCCMEBN@ioConsecutionItem?3?3SetJumpAttack@
CONST	SEGMENT
??_C@_0DN@BPCCMEBN@ioConsecutionItem?3?3SetJumpAttack@ DB 'ioConsecutionI'
	DB	'tem::SetJumpAttack - AttackAttribute Not Exist', 00H ; `string'
; Function compile flags: /Ogsp
; File d:\lost saga for developer\youtube\tutorial\source\src\lsclient\ioconsecutionitem.cpp
CONST	ENDS
;	COMDAT ?SetJumpAttack@ioConsecutionItem@@UAE_NPAVioBaseChar@@HMW4AttackType@@@Z
_TEXT	SEGMENT
_pOwner$ = 8						; size = 4
_iAniID$ = 12						; size = 4
_fTimeRate$ = 16					; size = 4
_eType$ = 20						; size = 4
?SetJumpAttack@ioConsecutionItem@@UAE_NPAVioBaseChar@@HMW4AttackType@@@Z PROC ; ioConsecutionItem::SetJumpAttack, COMDAT
; _this$ = ecx

; 531  : {

  00000	55		 push	 ebp
  00001	8b ec		 mov	 ebp, esp
  00003	53		 push	 ebx

; 532  : 	if( !pOwner ) return false;

  00004	8b 5d 08	 mov	 ebx, DWORD PTR _pOwner$[ebp]
  00007	56		 push	 esi
  00008	8b f1		 mov	 esi, ecx
  0000a	85 db		 test	 ebx, ebx
  0000c	74 73		 je	 SHORT $LN11@SetJumpAtt

; 533  : 
; 534  : 	DWORD dwCurTime = FRAMEGETTIME();

  0000e	57		 push	 edi
  0000f	ff 15 00 00 00
	00		 call	 DWORD PTR __imp_?GetSingleton@ioFrameTimer@@SAAAV1@XZ
  00015	8b c8		 mov	 ecx, eax
  00017	ff 15 00 00 00
	00		 call	 DWORD PTR __imp_?GetLoopSec@ioFrameTimer@@QBEKXZ

; 535  : 	ClearAirJump();

  0001d	8b 06		 mov	 eax, DWORD PTR [esi]
  0001f	8b ce		 mov	 ecx, esi
  00021	ff 90 a8 02 00
	00		 call	 DWORD PTR [eax+680]

; 536  : 
; 537  : 	AttackType eExtendType = AT_JUMP_ATTACK;
; 538  : 
; 539  : 	const AttackAttribute *pAttr = GetAttackAttribute( eExtendType );

  00027	8b 06		 mov	 eax, DWORD PTR [esi]
  00029	6a 00		 push	 0
  0002b	6a 03		 push	 3
  0002d	8b ce		 mov	 ecx, esi
  0002f	ff 90 08 02 00
	00		 call	 DWORD PTR [eax+520]
  00035	8b f8		 mov	 edi, eax

; 540  : 	if( !pAttr )

  00037	85 ff		 test	 edi, edi
  00039	75 18		 jne	 SHORT $LN2@SetJumpAtt

; 541  : 	{
; 542  : 		LOG.PrintTimeAndLog( 0, "ioConsecutionItem::SetJumpAttack - AttackAttribute Not Exist" );

  0003b	68 00 00 00 00	 push	 OFFSET ??_C@_0DN@BPCCMEBN@ioConsecutionItem?3?3SetJumpAttack@
$LN10@SetJumpAtt:
  00040	6a 00		 push	 0
  00042	ff 35 00 00 00
	00		 push	 DWORD PTR __imp_?LOG@@3VCLog@@A
  00048	ff 15 00 00 00
	00		 call	 DWORD PTR __imp_?PrintTimeAndLog@CLog@@QAAXHPADZZ
  0004e	83 c4 0c	 add	 esp, 12			; 0000000cH

; 543  : 		return false;

  00051	eb 2d		 jmp	 SHORT $LN9@SetJumpAtt
$LN2@SetJumpAtt:

; 544  : 	}
; 545  : 
; 546  : 	ioEntityGroup *pGrp = pOwner->GetGroup();

  00053	8b 4b 04	 mov	 ecx, DWORD PTR [ebx+4]

; 547  : 	iAniID = pGrp->GetAnimationIdx( pAttr->m_AttackAnimation );

  00056	57		 push	 edi
  00057	ff 15 00 00 00
	00		 call	 DWORD PTR __imp_?GetAnimationIdx@ioEntityGroup@@QAEHABVioHashString@@@Z

; 548  : 	if( iAniID == -1 )

  0005d	83 f8 ff	 cmp	 eax, -1
  00060	75 07		 jne	 SHORT $LN1@SetJumpAtt

; 549  : 	{
; 550  : 		LOG.PrintTimeAndLog( 0, "ioConsecutionItem::SetJumpAttack - JumpAttack Animation Not Exist" );

  00062	68 00 00 00 00	 push	 OFFSET ??_C@_0EC@IOBMGHOL@ioConsecutionItem?3?3SetJumpAttack@

; 551  : 		return false;

  00067	eb d7		 jmp	 SHORT $LN10@SetJumpAtt
$LN1@SetJumpAtt:

; 552  : 	}
; 553  : 
; 554  : 	fTimeRate   = pAttr->m_fAttackAniRate;
; 555  : 	DWORD dwPreDelay  = pAttr->m_dwPreDelay;
; 556  : 
; 557  : 	// For AirJumpPower
; 558  : 	SetAirJump( pOwner, iAniID, fTimeRate );

  00069	f3 0f 10 47 10	 movss	 xmm0, DWORD PTR [edi+16]
  0006e	8b 16		 mov	 edx, DWORD PTR [esi]
  00070	51		 push	 ecx
  00071	f3 0f 11 04 24	 movss	 DWORD PTR [esp], xmm0
  00076	50		 push	 eax
  00077	53		 push	 ebx
  00078	8b ce		 mov	 ecx, esi
  0007a	ff 92 ac 02 00
	00		 call	 DWORD PTR [edx+684]
$LN9@SetJumpAtt:
  00080	5f		 pop	 edi
$LN11@SetJumpAtt:
  00081	5e		 pop	 esi

; 559  : 
; 560  : 	return false;

  00082	32 c0		 xor	 al, al
  00084	5b		 pop	 ebx

; 561  : }

  00085	5d		 pop	 ebp
  00086	c2 10 00	 ret	 16			; 00000010H
?SetJumpAttack@ioConsecutionItem@@UAE_NPAVioBaseChar@@HMW4AttackType@@@Z ENDP ; ioConsecutionItem::SetJumpAttack
_TEXT	ENDS
PUBLIC	??8?$CEncrypt@K@@QAE_NABH@Z			; CEncrypt<unsigned long>::operator==
; Function compile flags: /Ogsp
; File d:\lost saga for developer\youtube\tutorial\source\src\lsclient\encryptvalue.h
;	COMDAT ??8?$CEncrypt@K@@QAE_NABH@Z
_TEXT	SEGMENT
_value$ = -4						; size = 4
_inValue$ = 8						; size = 4
??8?$CEncrypt@K@@QAE_NABH@Z PROC			; CEncrypt<unsigned long>::operator==, COMDAT
; _this$ = ecx

; 976  : 	{

  00000	55		 push	 ebp
  00001	8b ec		 mov	 ebp, esp
  00003	51		 push	 ecx

; 977  : 		
; 978  : 		type value;
; 979  : 		DecryptValueToPool(&value);

  00004	8d 45 fc	 lea	 eax, DWORD PTR _value$[ebp]
  00007	50		 push	 eax
  00008	e8 00 00 00 00	 call	 ?DecryptValueToPool@?$CEncrypt@K@@QAEXPAK@Z ; CEncrypt<unsigned long>::DecryptValueToPool

; 980  : #ifdef _NOTUSE
; 981  : 		Debug();
; 982  : #endif
; 983  : 		return (value == inValue);

  0000d	8b 4d 08	 mov	 ecx, DWORD PTR _inValue$[ebp]
  00010	8b 55 fc	 mov	 edx, DWORD PTR _value$[ebp]
  00013	33 c0		 xor	 eax, eax
  00015	3b 11		 cmp	 edx, DWORD PTR [ecx]
  00017	0f 94 c0	 sete	 al

; 984  : 	} 

  0001a	c9		 leave
  0001b	c2 04 00	 ret	 4
??8?$CEncrypt@K@@QAE_NABH@Z ENDP			; CEncrypt<unsigned long>::operator==
_TEXT	ENDS
PUBLIC	??H?$CEncrypt@K@@QAEKABK@Z			; CEncrypt<unsigned long>::operator+
; Function compile flags: /Ogsp
;	COMDAT ??H?$CEncrypt@K@@QAEKABK@Z
_TEXT	SEGMENT
_value$ = -4						; size = 4
_inValue$ = 8						; size = 4
??H?$CEncrypt@K@@QAEKABK@Z PROC				; CEncrypt<unsigned long>::operator+, COMDAT
; _this$ = ecx

; 1285 : 	{

  00000	55		 push	 ebp
  00001	8b ec		 mov	 ebp, esp
  00003	51		 push	 ecx

; 1286 : 		type value;
; 1287 : 		DecryptValueToPool(&value);

  00004	8d 45 fc	 lea	 eax, DWORD PTR _value$[ebp]
  00007	50		 push	 eax
  00008	e8 00 00 00 00	 call	 ?DecryptValueToPool@?$CEncrypt@K@@QAEXPAK@Z ; CEncrypt<unsigned long>::DecryptValueToPool

; 1288 : #ifdef _NOTUSE
; 1289 : 		Debug();
; 1290 : #endif
; 1291 : 		return value + inValue;

  0000d	8b 45 08	 mov	 eax, DWORD PTR _inValue$[ebp]
  00010	8b 00		 mov	 eax, DWORD PTR [eax]
  00012	03 45 fc	 add	 eax, DWORD PTR _value$[ebp]

; 1292 : 	}

  00015	c9		 leave
  00016	c2 04 00	 ret	 4
??H?$CEncrypt@K@@QAEKABK@Z ENDP				; CEncrypt<unsigned long>::operator+
_TEXT	ENDS
PUBLIC	??O?$CEncrypt@H@@QAE_NABH@Z			; CEncrypt<int>::operator>
; Function compile flags: /Ogsp
;	COMDAT ??O?$CEncrypt@H@@QAE_NABH@Z
_TEXT	SEGMENT
_value$ = -4						; size = 4
_inValue$ = 8						; size = 4
??O?$CEncrypt@H@@QAE_NABH@Z PROC			; CEncrypt<int>::operator>, COMDAT
; _this$ = ecx

; 1009 : 	{

  00000	55		 push	 ebp
  00001	8b ec		 mov	 ebp, esp
  00003	51		 push	 ecx

; 1010 : 		
; 1011 : 		type value;
; 1012 : 		DecryptValueToPool(&value);

  00004	8d 45 fc	 lea	 eax, DWORD PTR _value$[ebp]
  00007	50		 push	 eax
  00008	e8 00 00 00 00	 call	 ?DecryptValueToPool@?$CEncrypt@H@@QAEXPAH@Z ; CEncrypt<int>::DecryptValueToPool

; 1013 : #ifdef _NOTUSE
; 1014 : 		Debug();
; 1015 : #endif
; 1016 : 		return (value > inValue);

  0000d	8b 4d 08	 mov	 ecx, DWORD PTR _inValue$[ebp]
  00010	8b 55 fc	 mov	 edx, DWORD PTR _value$[ebp]
  00013	33 c0		 xor	 eax, eax
  00015	3b 11		 cmp	 edx, DWORD PTR [ecx]
  00017	0f 9f c0	 setg	 al

; 1017 : 	}		

  0001a	c9		 leave
  0001b	c2 04 00	 ret	 4
??O?$CEncrypt@H@@QAE_NABH@Z ENDP			; CEncrypt<int>::operator>
_TEXT	ENDS
PUBLIC	??P?$CEncrypt@H@@QAE_NABH@Z			; CEncrypt<int>::operator>=
; Function compile flags: /Ogsp
;	COMDAT ??P?$CEncrypt@H@@QAE_NABH@Z
_TEXT	SEGMENT
_value$ = -4						; size = 4
_inValue$ = 8						; size = 4
??P?$CEncrypt@H@@QAE_NABH@Z PROC			; CEncrypt<int>::operator>=, COMDAT
; _this$ = ecx

; 1031 : 	{

  00000	55		 push	 ebp
  00001	8b ec		 mov	 ebp, esp
  00003	51		 push	 ecx

; 1032 : 		
; 1033 : 		type value;
; 1034 : 		DecryptValueToPool(&value);

  00004	8d 45 fc	 lea	 eax, DWORD PTR _value$[ebp]
  00007	50		 push	 eax
  00008	e8 00 00 00 00	 call	 ?DecryptValueToPool@?$CEncrypt@H@@QAEXPAH@Z ; CEncrypt<int>::DecryptValueToPool

; 1035 : #ifdef _NOTUSE
; 1036 : 		Debug();
; 1037 : #endif
; 1038 : 		return (value >= inValue);

  0000d	8b 4d 08	 mov	 ecx, DWORD PTR _inValue$[ebp]
  00010	8b 55 fc	 mov	 edx, DWORD PTR _value$[ebp]
  00013	33 c0		 xor	 eax, eax
  00015	3b 11		 cmp	 edx, DWORD PTR [ecx]
  00017	0f 9d c0	 setge	 al

; 1039 : 	}		

  0001a	c9		 leave
  0001b	c2 04 00	 ret	 4
??P?$CEncrypt@H@@QAE_NABH@Z ENDP			; CEncrypt<int>::operator>=
_TEXT	ENDS
PUBLIC	??B?$CEncrypt@W4JumpState@@@@QBE?AW4JumpState@@XZ ; CEncrypt<enum JumpState>::operator enum JumpState
; Function compile flags: /Ogsp
;	COMDAT ??B?$CEncrypt@W4JumpState@@@@QBE?AW4JumpState@@XZ
_TEXT	SEGMENT
_value$ = -4						; size = 4
??B?$CEncrypt@W4JumpState@@@@QBE?AW4JumpState@@XZ PROC	; CEncrypt<enum JumpState>::operator enum JumpState, COMDAT
; _this$ = ecx

; 145  : 	{

  00000	55		 push	 ebp
  00001	8b ec		 mov	 ebp, esp
  00003	51		 push	 ecx

; 146  : 		//UJ 130829, const    --start
; 147  : 		type value;
; 148  : 		CEncrypt<type>* pThis = const_cast<CEncrypt<type>*>(this);
; 149  : 		pThis->DecryptValueToPool(&value);

  00004	8d 45 fc	 lea	 eax, DWORD PTR _value$[ebp]
  00007	50		 push	 eax
  00008	e8 00 00 00 00	 call	 ?DecryptValueToPool@?$CEncrypt@W4JumpState@@@@QAEXPAW4JumpState@@@Z ; CEncrypt<enum JumpState>::DecryptValueToPool

; 150  : 		//// const DecryptValueToPool     .
; 151  :  		//type value;
; 152  : 		//char szTempMem[MAX_ENCRYPT];
; 153  : 		//m_RC5.DecryptByte( m_MemPool, szTempMem, max(m_ValueSize, DEFAULT_ENCRYPT) );
; 154  : 		//memcpy( &value, szTempMem, m_ValueSize );
; 155  : 		//UJ --end
; 156  : 
; 157  : #ifdef _NOTUSE
; 158  : 		Debug();
; 159  : #endif
; 160  : 		return value;

  0000d	8b 45 fc	 mov	 eax, DWORD PTR _value$[ebp]

; 161  : 	}

  00010	c9		 leave
  00011	c3		 ret	 0
??B?$CEncrypt@W4JumpState@@@@QBE?AW4JumpState@@XZ ENDP	; CEncrypt<enum JumpState>::operator enum JumpState
_TEXT	ENDS
PUBLIC	??9?$_List_const_iterator@V?$_List_val@MV?$allocator@M@std@@@std@@@std@@QBE_NABV01@@Z ; std::_List_const_iterator<std::_List_val<float,std::allocator<float> > >::operator!=
; Function compile flags: /Ogsp
; File c:\program files (x86)\microsoft visual studio 10.0\vc\include\list
;	COMDAT ??9?$_List_const_iterator@V?$_List_val@MV?$allocator@M@std@@@std@@@std@@QBE_NABV01@@Z
_TEXT	SEGMENT
__Right$ = 8						; size = 4
??9?$_List_const_iterator@V?$_List_val@MV?$allocator@M@std@@@std@@@std@@QBE_NABV01@@Z PROC ; std::_List_const_iterator<std::_List_val<float,std::allocator<float> > >::operator!=, COMDAT
; _this$ = ecx

; 299  : 		{	// test for iterator inequality

  00000	55		 push	 ebp
  00001	8b ec		 mov	 ebp, esp

; 300  : 		return (!(*this == _Right));

  00003	8b 01		 mov	 eax, DWORD PTR [ecx]
  00005	8b 55 08	 mov	 edx, DWORD PTR __Right$[ebp]
  00008	33 c9		 xor	 ecx, ecx
  0000a	3b 02		 cmp	 eax, DWORD PTR [edx]
  0000c	0f 95 c0	 setne	 al

; 301  : 		}

  0000f	5d		 pop	 ebp
  00010	c2 04 00	 ret	 4
??9?$_List_const_iterator@V?$_List_val@MV?$allocator@M@std@@@std@@@std@@QBE_NABV01@@Z ENDP ; std::_List_const_iterator<std::_List_val<float,std::allocator<float> > >::operator!=
_TEXT	ENDS
PUBLIC	?begin@?$vector@UWeaponInfo@@V?$allocator@UWeaponInfo@@@std@@@std@@QBE?AV?$_Vector_const_iterator@V?$_Vector_val@UWeaponInfo@@V?$allocator@UWeaponInfo@@@std@@@std@@@2@XZ ; std::vector<WeaponInfo,std::allocator<WeaponInfo> >::begin
; Function compile flags: /Ogsp
; File c:\program files (x86)\microsoft visual studio 10.0\vc\include\vector
;	COMDAT ?begin@?$vector@UWeaponInfo@@V?$allocator@UWeaponInfo@@@std@@@std@@QBE?AV?$_Vector_const_iterator@V?$_Vector_val@UWeaponInfo@@V?$allocator@UWeaponInfo@@@std@@@std@@@2@XZ
_TEXT	SEGMENT
___$ReturnUdt$ = 8					; size = 4
?begin@?$vector@UWeaponInfo@@V?$allocator@UWeaponInfo@@@std@@@std@@QBE?AV?$_Vector_const_iterator@V?$_Vector_val@UWeaponInfo@@V?$allocator@UWeaponInfo@@@std@@@std@@@2@XZ PROC ; std::vector<WeaponInfo,std::allocator<WeaponInfo> >::begin, COMDAT
; _this$ = ecx

; 786  : 		{	// return iterator for beginning of nonmutable sequence

  00000	55		 push	 ebp
  00001	8b ec		 mov	 ebp, esp

; 787  : 		return (const_iterator(this->_Myfirst, this));

  00003	8b 09		 mov	 ecx, DWORD PTR [ecx]
  00005	8b 45 08	 mov	 eax, DWORD PTR ___$ReturnUdt$[ebp]
  00008	89 08		 mov	 DWORD PTR [eax], ecx

; 788  : 		}

  0000a	5d		 pop	 ebp
  0000b	c2 04 00	 ret	 4
?begin@?$vector@UWeaponInfo@@V?$allocator@UWeaponInfo@@@std@@@std@@QBE?AV?$_Vector_const_iterator@V?$_Vector_val@UWeaponInfo@@V?$allocator@UWeaponInfo@@@std@@@std@@@2@XZ ENDP ; std::vector<WeaponInfo,std::allocator<WeaponInfo> >::begin
_TEXT	ENDS
PUBLIC	?end@?$vector@UWeaponInfo@@V?$allocator@UWeaponInfo@@@std@@@std@@QBE?AV?$_Vector_const_iterator@V?$_Vector_val@UWeaponInfo@@V?$allocator@UWeaponInfo@@@std@@@std@@@2@XZ ; std::vector<WeaponInfo,std::allocator<WeaponInfo> >::end
; Function compile flags: /Ogsp
;	COMDAT ?end@?$vector@UWeaponInfo@@V?$allocator@UWeaponInfo@@@std@@@std@@QBE?AV?$_Vector_const_iterator@V?$_Vector_val@UWeaponInfo@@V?$allocator@UWeaponInfo@@@std@@@std@@@2@XZ
_TEXT	SEGMENT
___$ReturnUdt$ = 8					; size = 4
?end@?$vector@UWeaponInfo@@V?$allocator@UWeaponInfo@@@std@@@std@@QBE?AV?$_Vector_const_iterator@V?$_Vector_val@UWeaponInfo@@V?$allocator@UWeaponInfo@@@std@@@std@@@2@XZ PROC ; std::vector<WeaponInfo,std::allocator<WeaponInfo> >::end, COMDAT
; _this$ = ecx

; 796  : 		{	// return iterator for end of nonmutable sequence

  00000	55		 push	 ebp
  00001	8b ec		 mov	 ebp, esp

; 797  : 		return (const_iterator(this->_Mylast, this));

  00003	8b 49 04	 mov	 ecx, DWORD PTR [ecx+4]
  00006	8b 45 08	 mov	 eax, DWORD PTR ___$ReturnUdt$[ebp]
  00009	89 08		 mov	 DWORD PTR [eax], ecx

; 798  : 		}

  0000b	5d		 pop	 ebp
  0000c	c2 04 00	 ret	 4
?end@?$vector@UWeaponInfo@@V?$allocator@UWeaponInfo@@@std@@@std@@QBE?AV?$_Vector_const_iterator@V?$_Vector_val@UWeaponInfo@@V?$allocator@UWeaponInfo@@@std@@@std@@@2@XZ ENDP ; std::vector<WeaponInfo,std::allocator<WeaponInfo> >::end
_TEXT	ENDS
PUBLIC	?begin@?$vector@UForceInfo@@V?$allocator@UForceInfo@@@std@@@std@@QBE?AV?$_Vector_const_iterator@V?$_Vector_val@UForceInfo@@V?$allocator@UForceInfo@@@std@@@std@@@2@XZ ; std::vector<ForceInfo,std::allocator<ForceInfo> >::begin
; Function compile flags: /Ogsp
;	COMDAT ?begin@?$vector@UForceInfo@@V?$allocator@UForceInfo@@@std@@@std@@QBE?AV?$_Vector_const_iterator@V?$_Vector_val@UForceInfo@@V?$allocator@UForceInfo@@@std@@@std@@@2@XZ
_TEXT	SEGMENT
___$ReturnUdt$ = 8					; size = 4
?begin@?$vector@UForceInfo@@V?$allocator@UForceInfo@@@std@@@std@@QBE?AV?$_Vector_const_iterator@V?$_Vector_val@UForceInfo@@V?$allocator@UForceInfo@@@std@@@std@@@2@XZ PROC ; std::vector<ForceInfo,std::allocator<ForceInfo> >::begin, COMDAT
; _this$ = ecx

; 786  : 		{	// return iterator for beginning of nonmutable sequence

  00000	55		 push	 ebp
  00001	8b ec		 mov	 ebp, esp

; 787  : 		return (const_iterator(this->_Myfirst, this));

  00003	8b 09		 mov	 ecx, DWORD PTR [ecx]
  00005	8b 45 08	 mov	 eax, DWORD PTR ___$ReturnUdt$[ebp]
  00008	89 08		 mov	 DWORD PTR [eax], ecx

; 788  : 		}

  0000a	5d		 pop	 ebp
  0000b	c2 04 00	 ret	 4
?begin@?$vector@UForceInfo@@V?$allocator@UForceInfo@@@std@@@std@@QBE?AV?$_Vector_const_iterator@V?$_Vector_val@UForceInfo@@V?$allocator@UForceInfo@@@std@@@std@@@2@XZ ENDP ; std::vector<ForceInfo,std::allocator<ForceInfo> >::begin
_TEXT	ENDS
PUBLIC	?end@?$vector@UForceInfo@@V?$allocator@UForceInfo@@@std@@@std@@QBE?AV?$_Vector_const_iterator@V?$_Vector_val@UForceInfo@@V?$allocator@UForceInfo@@@std@@@std@@@2@XZ ; std::vector<ForceInfo,std::allocator<ForceInfo> >::end
; Function compile flags: /Ogsp
;	COMDAT ?end@?$vector@UForceInfo@@V?$allocator@UForceInfo@@@std@@@std@@QBE?AV?$_Vector_const_iterator@V?$_Vector_val@UForceInfo@@V?$allocator@UForceInfo@@@std@@@std@@@2@XZ
_TEXT	SEGMENT
___$ReturnUdt$ = 8					; size = 4
?end@?$vector@UForceInfo@@V?$allocator@UForceInfo@@@std@@@std@@QBE?AV?$_Vector_const_iterator@V?$_Vector_val@UForceInfo@@V?$allocator@UForceInfo@@@std@@@std@@@2@XZ PROC ; std::vector<ForceInfo,std::allocator<ForceInfo> >::end, COMDAT
; _this$ = ecx

; 796  : 		{	// return iterator for end of nonmutable sequence

  00000	55		 push	 ebp
  00001	8b ec		 mov	 ebp, esp

; 797  : 		return (const_iterator(this->_Mylast, this));

  00003	8b 49 04	 mov	 ecx, DWORD PTR [ecx+4]
  00006	8b 45 08	 mov	 eax, DWORD PTR ___$ReturnUdt$[ebp]
  00009	89 08		 mov	 DWORD PTR [eax], ecx

; 798  : 		}

  0000b	5d		 pop	 ebp
  0000c	c2 04 00	 ret	 4
?end@?$vector@UForceInfo@@V?$allocator@UForceInfo@@@std@@@std@@QBE?AV?$_Vector_const_iterator@V?$_Vector_val@UForceInfo@@V?$allocator@UForceInfo@@@std@@@std@@@2@XZ ENDP ; std::vector<ForceInfo,std::allocator<ForceInfo> >::end
_TEXT	ENDS
PUBLIC	?begin@?$vector@UAttackAttribute@@V?$allocator@UAttackAttribute@@@std@@@std@@QBE?AV?$_Vector_const_iterator@V?$_Vector_val@UAttackAttribute@@V?$allocator@UAttackAttribute@@@std@@@std@@@2@XZ ; std::vector<AttackAttribute,std::allocator<AttackAttribute> >::begin
; Function compile flags: /Ogsp
;	COMDAT ?begin@?$vector@UAttackAttribute@@V?$allocator@UAttackAttribute@@@std@@@std@@QBE?AV?$_Vector_const_iterator@V?$_Vector_val@UAttackAttribute@@V?$allocator@UAttackAttribute@@@std@@@std@@@2@XZ
_TEXT	SEGMENT
___$ReturnUdt$ = 8					; size = 4
?begin@?$vector@UAttackAttribute@@V?$allocator@UAttackAttribute@@@std@@@std@@QBE?AV?$_Vector_const_iterator@V?$_Vector_val@UAttackAttribute@@V?$allocator@UAttackAttribute@@@std@@@std@@@2@XZ PROC ; std::vector<AttackAttribute,std::allocator<AttackAttribute> >::begin, COMDAT
; _this$ = ecx

; 786  : 		{	// return iterator for beginning of nonmutable sequence

  00000	55		 push	 ebp
  00001	8b ec		 mov	 ebp, esp

; 787  : 		return (const_iterator(this->_Myfirst, this));

  00003	8b 09		 mov	 ecx, DWORD PTR [ecx]
  00005	8b 45 08	 mov	 eax, DWORD PTR ___$ReturnUdt$[ebp]
  00008	89 08		 mov	 DWORD PTR [eax], ecx

; 788  : 		}

  0000a	5d		 pop	 ebp
  0000b	c2 04 00	 ret	 4
?begin@?$vector@UAttackAttribute@@V?$allocator@UAttackAttribute@@@std@@@std@@QBE?AV?$_Vector_const_iterator@V?$_Vector_val@UAttackAttribute@@V?$allocator@UAttackAttribute@@@std@@@std@@@2@XZ ENDP ; std::vector<AttackAttribute,std::allocator<AttackAttribute> >::begin
_TEXT	ENDS
PUBLIC	?end@?$vector@UAttackAttribute@@V?$allocator@UAttackAttribute@@@std@@@std@@QBE?AV?$_Vector_const_iterator@V?$_Vector_val@UAttackAttribute@@V?$allocator@UAttackAttribute@@@std@@@std@@@2@XZ ; std::vector<AttackAttribute,std::allocator<AttackAttribute> >::end
; Function compile flags: /Ogsp
;	COMDAT ?end@?$vector@UAttackAttribute@@V?$allocator@UAttackAttribute@@@std@@@std@@QBE?AV?$_Vector_const_iterator@V?$_Vector_val@UAttackAttribute@@V?$allocator@UAttackAttribute@@@std@@@std@@@2@XZ
_TEXT	SEGMENT
___$ReturnUdt$ = 8					; size = 4
?end@?$vector@UAttackAttribute@@V?$allocator@UAttackAttribute@@@std@@@std@@QBE?AV?$_Vector_const_iterator@V?$_Vector_val@UAttackAttribute@@V?$allocator@UAttackAttribute@@@std@@@std@@@2@XZ PROC ; std::vector<AttackAttribute,std::allocator<AttackAttribute> >::end, COMDAT
; _this$ = ecx

; 796  : 		{	// return iterator for end of nonmutable sequence

  00000	55		 push	 ebp
  00001	8b ec		 mov	 ebp, esp

; 797  : 		return (const_iterator(this->_Mylast, this));

  00003	8b 49 04	 mov	 ecx, DWORD PTR [ecx+4]
  00006	8b 45 08	 mov	 eax, DWORD PTR ___$ReturnUdt$[ebp]
  00009	89 08		 mov	 DWORD PTR [eax], ecx

; 798  : 		}

  0000b	5d		 pop	 ebp
  0000c	c2 04 00	 ret	 4
?end@?$vector@UAttackAttribute@@V?$allocator@UAttackAttribute@@@std@@@std@@QBE?AV?$_Vector_const_iterator@V?$_Vector_val@UAttackAttribute@@V?$allocator@UAttackAttribute@@@std@@@std@@@2@XZ ENDP ; std::vector<AttackAttribute,std::allocator<AttackAttribute> >::end
_TEXT	ENDS
PUBLIC	?max_size@?$vector@UAttackAttribute@@V?$allocator@UAttackAttribute@@@std@@@std@@QBEIXZ ; std::vector<AttackAttribute,std::allocator<AttackAttribute> >::max_size
; Function compile flags: /Ogsp
;	COMDAT ?max_size@?$vector@UAttackAttribute@@V?$allocator@UAttackAttribute@@@std@@@std@@QBEIXZ
_TEXT	SEGMENT
?max_size@?$vector@UAttackAttribute@@V?$allocator@UAttackAttribute@@@std@@@std@@QBEIXZ PROC ; std::vector<AttackAttribute,std::allocator<AttackAttribute> >::max_size, COMDAT
; _this$ = ecx

; 884  : 		return (this->_Alval.max_size());

  00000	b8 33 33 33 03	 mov	 eax, 53687091		; 03333333H

; 885  : 		}

  00005	c3		 ret	 0
?max_size@?$vector@UAttackAttribute@@V?$allocator@UAttackAttribute@@@std@@@std@@QBEIXZ ENDP ; std::vector<AttackAttribute,std::allocator<AttackAttribute> >::max_size
_TEXT	ENDS
PUBLIC	?allocate@?$allocator@UAttackAttribute@@@std@@QAEPAUAttackAttribute@@I@Z ; std::allocator<AttackAttribute>::allocate
; Function compile flags: /Ogsp
; File c:\program files (x86)\microsoft visual studio 10.0\vc\include\xmemory
;	COMDAT ?allocate@?$allocator@UAttackAttribute@@@std@@QAEPAUAttackAttribute@@I@Z
_TEXT	SEGMENT
__Count$ = 8						; size = 4
?allocate@?$allocator@UAttackAttribute@@@std@@QAEPAUAttackAttribute@@I@Z PROC ; std::allocator<AttackAttribute>::allocate, COMDAT
; _this$ = ecx

; 186  : 		{	// allocate array of _Count elements

  00000	55		 push	 ebp
  00001	8b ec		 mov	 ebp, esp

; 187  : 		return (_Allocate(_Count, (pointer)0));

  00003	6a 00		 push	 0
  00005	ff 75 08	 push	 DWORD PTR __Count$[ebp]
  00008	e8 00 00 00 00	 call	 ??$_Allocate@UAttackAttribute@@@std@@YAPAUAttackAttribute@@IPAU1@@Z ; std::_Allocate<AttackAttribute>
  0000d	59		 pop	 ecx
  0000e	59		 pop	 ecx

; 188  : 		}

  0000f	5d		 pop	 ebp
  00010	c2 04 00	 ret	 4
?allocate@?$allocator@UAttackAttribute@@@std@@QAEPAUAttackAttribute@@I@Z ENDP ; std::allocator<AttackAttribute>::allocate
_TEXT	ENDS
PUBLIC	??1?$_List_val@MV?$allocator@M@std@@@std@@QAE@XZ ; std::_List_val<float,std::allocator<float> >::~_List_val<float,std::allocator<float> >
; Function compile flags: /Ogsp
; File c:\program files (x86)\microsoft visual studio 10.0\vc\include\list
;	COMDAT ??1?$_List_val@MV?$allocator@M@std@@@std@@QAE@XZ
_TEXT	SEGMENT
??1?$_List_val@MV?$allocator@M@std@@@std@@QAE@XZ PROC	; std::_List_val<float,std::allocator<float> >::~_List_val<float,std::allocator<float> >, COMDAT
; _this$ = ecx

; 502  : 		this->_Alnod.deallocate(this->_Myhead, 1);

  00000	ff 31		 push	 DWORD PTR [ecx]
  00002	e8 00 00 00 00	 call	 ??3@YAXPAX@Z		; operator delete
  00007	59		 pop	 ecx

; 503  : 		}

  00008	c3		 ret	 0
??1?$_List_val@MV?$allocator@M@std@@@std@@QAE@XZ ENDP	; std::_List_val<float,std::allocator<float> >::~_List_val<float,std::allocator<float> >
_TEXT	ENDS
PUBLIC	??E?$_List_iterator@V?$_List_val@MV?$allocator@M@std@@@std@@@std@@QAEAAV01@XZ ; std::_List_iterator<std::_List_val<float,std::allocator<float> > >::operator++
; Function compile flags: /Ogsp
;	COMDAT ??E?$_List_iterator@V?$_List_val@MV?$allocator@M@std@@@std@@@std@@QAEAAV01@XZ
_TEXT	SEGMENT
??E?$_List_iterator@V?$_List_val@MV?$allocator@M@std@@@std@@@std@@QAEAAV01@XZ PROC ; std::_List_iterator<std::_List_val<float,std::allocator<float> > >::operator++, COMDAT
; _this$ = ecx

; 369  : 		{	// preincrement

  00000	8b c1		 mov	 eax, ecx

; 370  : 		++(*(_Mybase *)this);

  00002	8b 08		 mov	 ecx, DWORD PTR [eax]
  00004	8b 09		 mov	 ecx, DWORD PTR [ecx]
  00006	89 08		 mov	 DWORD PTR [eax], ecx

; 371  : 		return (*this);
; 372  : 		}

  00008	c3		 ret	 0
??E?$_List_iterator@V?$_List_val@MV?$allocator@M@std@@@std@@@std@@QAEAAV01@XZ ENDP ; std::_List_iterator<std::_List_val<float,std::allocator<float> > >::operator++
_TEXT	ENDS
PUBLIC	??D?$_List_const_iterator@V?$_List_val@MV?$allocator@M@std@@@std@@@std@@QBEABMXZ ; std::_List_const_iterator<std::_List_val<float,std::allocator<float> > >::operator*
; Function compile flags: /Ogsp
;	COMDAT ??D?$_List_const_iterator@V?$_List_val@MV?$allocator@M@std@@@std@@@std@@QBEABMXZ
_TEXT	SEGMENT
??D?$_List_const_iterator@V?$_List_val@MV?$allocator@M@std@@@std@@@std@@QBEABMXZ PROC ; std::_List_const_iterator<std::_List_val<float,std::allocator<float> > >::operator*, COMDAT
; _this$ = ecx

; 202  :  #if _ITERATOR_DEBUG_LEVEL == 2
; 203  : 		if (this->_Getcont() == 0
; 204  : 			|| this->_Ptr == 0
; 205  : 			|| this->_Ptr == ((_Mylist *)this->_Getcont())->_Myhead)
; 206  : 			{	// report error
; 207  : 			_DEBUG_ERROR("list iterator not dereferencable");
; 208  : 			_SCL_SECURE_OUT_OF_RANGE;
; 209  : 			}
; 210  : 
; 211  :  #elif _ITERATOR_DEBUG_LEVEL == 1
; 212  : 		_SCL_SECURE_VALIDATE(this->_Getcont() != 0 && this->_Ptr != 0);
; 213  : 		_SCL_SECURE_VALIDATE_RANGE(this->_Ptr !=
; 214  : 			((_Mylist *)this->_Getcont())->_Myhead);
; 215  :  #endif /* _ITERATOR_DEBUG_LEVEL */
; 216  : 
; 217  : 		return (_Mylist::_Myval(this->_Ptr));

  00000	8b 01		 mov	 eax, DWORD PTR [ecx]
  00002	83 c0 08	 add	 eax, 8

; 218  : 		}

  00005	c3		 ret	 0
??D?$_List_const_iterator@V?$_List_val@MV?$allocator@M@std@@@std@@@std@@QBEABMXZ ENDP ; std::_List_const_iterator<std::_List_val<float,std::allocator<float> > >::operator*
_TEXT	ENDS
PUBLIC	?_Grow_to@?$vector@UAttackAttribute@@V?$allocator@UAttackAttribute@@@std@@@std@@IBEII@Z ; std::vector<AttackAttribute,std::allocator<AttackAttribute> >::_Grow_to
; Function compile flags: /Ogsp
; File c:\program files (x86)\microsoft visual studio 10.0\vc\include\vector
;	COMDAT ?_Grow_to@?$vector@UAttackAttribute@@V?$allocator@UAttackAttribute@@@std@@@std@@IBEII@Z
_TEXT	SEGMENT
__Count$ = 8						; size = 4
?_Grow_to@?$vector@UAttackAttribute@@V?$allocator@UAttackAttribute@@@std@@@std@@IBEII@Z PROC ; std::vector<AttackAttribute,std::allocator<AttackAttribute> >::_Grow_to, COMDAT
; _this$ = ecx

; 1274 : 		{	// grow by 50% or at least to _Count

  00000	55		 push	 ebp
  00001	8b ec		 mov	 ebp, esp

; 1275 : 		size_type _Capacity = capacity();

  00003	8b 41 08	 mov	 eax, DWORD PTR [ecx+8]
  00006	2b 01		 sub	 eax, DWORD PTR [ecx]
  00008	6a 50		 push	 80			; 00000050H
  0000a	99		 cdq
  0000b	59		 pop	 ecx
  0000c	f7 f9		 idiv	 ecx

; 1276 : 
; 1277 : 		_Capacity = max_size() - _Capacity / 2 < _Capacity
; 1278 : 			? 0 : _Capacity + _Capacity / 2;	// try to grow by 50%

  0000e	ba 33 33 33 03	 mov	 edx, 53687091		; 03333333H
  00013	8b c8		 mov	 ecx, eax
  00015	d1 e9		 shr	 ecx, 1
  00017	2b d1		 sub	 edx, ecx
  00019	3b d0		 cmp	 edx, eax
  0001b	73 04		 jae	 SHORT $LN4@Grow_to
  0001d	33 c0		 xor	 eax, eax
  0001f	eb 02		 jmp	 SHORT $LN5@Grow_to
$LN4@Grow_to:
  00021	03 c1		 add	 eax, ecx
$LN5@Grow_to:

; 1279 : 		if (_Capacity < _Count)

  00023	3b 45 08	 cmp	 eax, DWORD PTR __Count$[ebp]

; 1280 : 			_Capacity = _Count;

  00026	0f 42 45 08	 cmovb	 eax, DWORD PTR __Count$[ebp]

; 1281 : 		return (_Capacity);
; 1282 : 		}

  0002a	5d		 pop	 ebp
  0002b	c2 04 00	 ret	 4
?_Grow_to@?$vector@UAttackAttribute@@V?$allocator@UAttackAttribute@@@std@@@std@@IBEII@Z ENDP ; std::vector<AttackAttribute,std::allocator<AttackAttribute> >::_Grow_to
_TEXT	ENDS
PUBLIC	??0?$_List_nod@MV?$allocator@M@std@@@std@@QAE@V?$allocator@M@1@@Z ; std::_List_nod<float,std::allocator<float> >::_List_nod<float,std::allocator<float> >
; Function compile flags: /Ogsp
; File c:\program files (x86)\microsoft visual studio 10.0\vc\include\list
;	COMDAT ??0?$_List_nod@MV?$allocator@M@std@@@std@@QAE@V?$allocator@M@1@@Z
_TEXT	SEGMENT
__Al$ = 8						; size = 1
??0?$_List_nod@MV?$allocator@M@std@@@std@@QAE@V?$allocator@M@1@@Z PROC ; std::_List_nod<float,std::allocator<float> >::_List_nod<float,std::allocator<float> >, COMDAT
; _this$ = ecx

; 438  : 		{	// construct allocators from _Al

  00000	8b c1		 mov	 eax, ecx

; 439  : 		}

  00002	c2 04 00	 ret	 4
??0?$_List_nod@MV?$allocator@M@std@@@std@@QAE@V?$allocator@M@1@@Z ENDP ; std::_List_nod<float,std::allocator<float> >::_List_nod<float,std::allocator<float> >
_TEXT	ENDS
PUBLIC	?allocate@?$allocator@U_Node@?$_List_nod@MV?$allocator@M@std@@@std@@@std@@QAEPAU_Node@?$_List_nod@MV?$allocator@M@std@@@2@I@Z ; std::allocator<std::_List_nod<float,std::allocator<float> >::_Node>::allocate
; Function compile flags: /Ogsp
; File c:\program files (x86)\microsoft visual studio 10.0\vc\include\xmemory
;	COMDAT ?allocate@?$allocator@U_Node@?$_List_nod@MV?$allocator@M@std@@@std@@@std@@QAEPAU_Node@?$_List_nod@MV?$allocator@M@std@@@2@I@Z
_TEXT	SEGMENT
__Count$ = 8						; size = 4
?allocate@?$allocator@U_Node@?$_List_nod@MV?$allocator@M@std@@@std@@@std@@QAEPAU_Node@?$_List_nod@MV?$allocator@M@std@@@2@I@Z PROC ; std::allocator<std::_List_nod<float,std::allocator<float> >::_Node>::allocate, COMDAT
; _this$ = ecx

; 186  : 		{	// allocate array of _Count elements

  00000	55		 push	 ebp
  00001	8b ec		 mov	 ebp, esp

; 187  : 		return (_Allocate(_Count, (pointer)0));

  00003	6a 00		 push	 0
  00005	ff 75 08	 push	 DWORD PTR __Count$[ebp]
  00008	e8 00 00 00 00	 call	 ??$_Allocate@U_Node@?$_List_nod@MV?$allocator@M@std@@@std@@@std@@YAPAU_Node@?$_List_nod@MV?$allocator@M@std@@@0@IPAU120@@Z ; std::_Allocate<std::_List_nod<float,std::allocator<float> >::_Node>
  0000d	59		 pop	 ecx
  0000e	59		 pop	 ecx

; 188  : 		}

  0000f	5d		 pop	 ebp
  00010	c2 04 00	 ret	 4
?allocate@?$allocator@U_Node@?$_List_nod@MV?$allocator@M@std@@@std@@@std@@QAEPAU_Node@?$_List_nod@MV?$allocator@M@std@@@2@I@Z ENDP ; std::allocator<std::_List_nod<float,std::allocator<float> >::_Node>::allocate
_TEXT	ENDS
PUBLIC	??0?$_List_const_iterator@V?$_List_val@MV?$allocator@M@std@@@std@@@std@@QAE@PAU_Node@?$_List_nod@MV?$allocator@M@std@@@1@PBV?$_List_val@MV?$allocator@M@std@@@1@@Z ; std::_List_const_iterator<std::_List_val<float,std::allocator<float> > >::_List_const_iterator<std::_List_val<float,std::allocator<float> > >
; Function compile flags: /Ogsp
; File c:\program files (x86)\microsoft visual studio 10.0\vc\include\list
;	COMDAT ??0?$_List_const_iterator@V?$_List_val@MV?$allocator@M@std@@@std@@@std@@QAE@PAU_Node@?$_List_nod@MV?$allocator@M@std@@@1@PBV?$_List_val@MV?$allocator@M@std@@@1@@Z
_TEXT	SEGMENT
__Pnode$ = 8						; size = 4
__Plist$ = 12						; size = 4
??0?$_List_const_iterator@V?$_List_val@MV?$allocator@M@std@@@std@@@std@@QAE@PAU_Node@?$_List_nod@MV?$allocator@M@std@@@1@PBV?$_List_val@MV?$allocator@M@std@@@1@@Z PROC ; std::_List_const_iterator<std::_List_val<float,std::allocator<float> > >::_List_const_iterator<std::_List_val<float,std::allocator<float> > >, COMDAT
; _this$ = ecx

; 184  : 		{	// construct with node pointer _Pnode

  00000	55		 push	 ebp
  00001	8b ec		 mov	 ebp, esp
  00003	8b c1		 mov	 eax, ecx
  00005	8b 4d 08	 mov	 ecx, DWORD PTR __Pnode$[ebp]
  00008	89 08		 mov	 DWORD PTR [eax], ecx

; 185  : 		}

  0000a	5d		 pop	 ebp
  0000b	c2 08 00	 ret	 8
??0?$_List_const_iterator@V?$_List_val@MV?$allocator@M@std@@@std@@@std@@QAE@PAU_Node@?$_List_nod@MV?$allocator@M@std@@@1@PBV?$_List_val@MV?$allocator@M@std@@@1@@Z ENDP ; std::_List_const_iterator<std::_List_val<float,std::allocator<float> > >::_List_const_iterator<std::_List_val<float,std::allocator<float> > >
_TEXT	ENDS
PUBLIC	__$ArrayPad$
PUBLIC	??$LoadInt_e@$0BC@@ioINILoader@@QAEHAAY0BC@$$CBDH@Z ; ioINILoader::LoadInt_e<18>
EXTRN	__imp_?LoadInt@ioINILoader@@QAEHPBDH@Z:PROC
EXTRN	___security_cookie:DWORD
; Function compile flags: /Ogsp
; File d:\lost saga for developer\youtube\tutorial\source\src\io3dengine\ioiniloader.h
;	COMDAT ??$LoadInt_e@$0BC@@ioINILoader@@QAEHAAY0BC@$$CBDH@Z
_TEXT	SEGMENT
__k$ = -28						; size = 18
__$ArrayPad$ = -4					; size = 4
_k$ = 8							; size = 4
_i$ = 12						; size = 4
??$LoadInt_e@$0BC@@ioINILoader@@QAEHAAY0BC@$$CBDH@Z PROC ; ioINILoader::LoadInt_e<18>, COMDAT
; _this$ = ecx

; 118  : 	{

  00000	55		 push	 ebp
  00001	8b ec		 mov	 ebp, esp
  00003	83 ec 1c	 sub	 esp, 28			; 0000001cH
  00006	a1 00 00 00 00	 mov	 eax, DWORD PTR ___security_cookie
  0000b	33 c5		 xor	 eax, ebp
  0000d	89 45 fc	 mov	 DWORD PTR __$ArrayPad$[ebp], eax
  00010	8b 45 08	 mov	 eax, DWORD PTR _k$[ebp]

; 119  : 		_ENCSTR(k, _k);

  00013	8a 10		 mov	 dl, BYTE PTR [eax]
  00015	56		 push	 esi
  00016	8b f1		 mov	 esi, ecx
  00018	84 d2		 test	 dl, dl
  0001a	0f 84 be 01 00
	00		 je	 $LN96@LoadInt_e
  00020	80 f2 ed	 xor	 dl, -19			; ffffffedH
  00023	88 55 e4	 mov	 BYTE PTR __k$[ebp], dl
  00026	8a 50 01	 mov	 dl, BYTE PTR [eax+1]
  00029	84 d2		 test	 dl, dl
  0002b	0f 84 a7 01 00
	00		 je	 $LN95@LoadInt_e
  00031	80 f2 ec	 xor	 dl, -20			; ffffffecH
  00034	88 55 e5	 mov	 BYTE PTR __k$[ebp+1], dl
  00037	8a 50 02	 mov	 dl, BYTE PTR [eax+2]
  0003a	84 d2		 test	 dl, dl
  0003c	0f 84 90 01 00
	00		 je	 $LN94@LoadInt_e
  00042	b1 eb		 mov	 cl, -21			; ffffffebH
  00044	32 d1		 xor	 dl, cl
  00046	88 55 e6	 mov	 BYTE PTR __k$[ebp+2], dl
  00049	8a 50 03	 mov	 dl, BYTE PTR [eax+3]
  0004c	84 d2		 test	 dl, dl
  0004e	0f 84 78 01 00
	00		 je	 $LN93@LoadInt_e
  00054	80 f2 ea	 xor	 dl, -22			; ffffffeaH
  00057	88 55 e7	 mov	 BYTE PTR __k$[ebp+3], dl
  0005a	8a 50 04	 mov	 dl, BYTE PTR [eax+4]
  0005d	84 d2		 test	 dl, dl
  0005f	0f 84 61 01 00
	00		 je	 $LN92@LoadInt_e
  00065	80 f2 ed	 xor	 dl, -19			; ffffffedH
  00068	88 55 e8	 mov	 BYTE PTR __k$[ebp+4], dl
  0006b	8a 50 05	 mov	 dl, BYTE PTR [eax+5]
  0006e	84 d2		 test	 dl, dl
  00070	0f 84 4a 01 00
	00		 je	 $LN91@LoadInt_e
  00076	80 f2 ec	 xor	 dl, -20			; ffffffecH
  00079	88 55 e9	 mov	 BYTE PTR __k$[ebp+5], dl
  0007c	8a 50 06	 mov	 dl, BYTE PTR [eax+6]
  0007f	84 d2		 test	 dl, dl
  00081	0f 84 34 01 00
	00		 je	 $LN90@LoadInt_e
  00087	32 d1		 xor	 dl, cl
  00089	88 55 ea	 mov	 BYTE PTR __k$[ebp+6], dl
  0008c	8a 50 07	 mov	 dl, BYTE PTR [eax+7]
  0008f	84 d2		 test	 dl, dl
  00091	0f 84 1e 01 00
	00		 je	 $LN89@LoadInt_e
  00097	80 f2 ea	 xor	 dl, -22			; ffffffeaH
  0009a	88 55 eb	 mov	 BYTE PTR __k$[ebp+7], dl
  0009d	8a 50 08	 mov	 dl, BYTE PTR [eax+8]
  000a0	84 d2		 test	 dl, dl
  000a2	0f 84 07 01 00
	00		 je	 $LN88@LoadInt_e
  000a8	80 f2 ed	 xor	 dl, -19			; ffffffedH
  000ab	88 55 ec	 mov	 BYTE PTR __k$[ebp+8], dl
  000ae	8a 50 09	 mov	 dl, BYTE PTR [eax+9]
  000b1	84 d2		 test	 dl, dl
  000b3	0f 84 f0 00 00
	00		 je	 $LN87@LoadInt_e
  000b9	80 f2 ec	 xor	 dl, -20			; ffffffecH
  000bc	88 55 ed	 mov	 BYTE PTR __k$[ebp+9], dl
  000bf	8a 50 0a	 mov	 dl, BYTE PTR [eax+10]
  000c2	84 d2		 test	 dl, dl
  000c4	0f 84 da 00 00
	00		 je	 $LN86@LoadInt_e
  000ca	32 d1		 xor	 dl, cl
  000cc	88 55 ee	 mov	 BYTE PTR __k$[ebp+10], dl
  000cf	8a 50 0b	 mov	 dl, BYTE PTR [eax+11]
  000d2	84 d2		 test	 dl, dl
  000d4	0f 84 c4 00 00
	00		 je	 $LN85@LoadInt_e
  000da	80 f2 ea	 xor	 dl, -22			; ffffffeaH
  000dd	88 55 ef	 mov	 BYTE PTR __k$[ebp+11], dl
  000e0	8a 50 0c	 mov	 dl, BYTE PTR [eax+12]
  000e3	84 d2		 test	 dl, dl
  000e5	0f 84 ad 00 00
	00		 je	 $LN84@LoadInt_e
  000eb	80 f2 ed	 xor	 dl, -19			; ffffffedH
  000ee	88 55 f0	 mov	 BYTE PTR __k$[ebp+12], dl
  000f1	8a 50 0d	 mov	 dl, BYTE PTR [eax+13]
  000f4	84 d2		 test	 dl, dl
  000f6	0f 84 96 00 00
	00		 je	 $LN83@LoadInt_e
  000fc	80 f2 ec	 xor	 dl, -20			; ffffffecH
  000ff	88 55 f1	 mov	 BYTE PTR __k$[ebp+13], dl
  00102	8a 50 0e	 mov	 dl, BYTE PTR [eax+14]
  00105	84 d2		 test	 dl, dl
  00107	0f 84 80 00 00
	00		 je	 $LN82@LoadInt_e
  0010d	32 d1		 xor	 dl, cl
  0010f	88 55 f2	 mov	 BYTE PTR __k$[ebp+14], dl
  00112	8a 50 0f	 mov	 dl, BYTE PTR [eax+15]
  00115	84 d2		 test	 dl, dl
  00117	74 6e		 je	 SHORT $LN81@LoadInt_e
  00119	80 f2 ea	 xor	 dl, -22			; ffffffeaH
  0011c	88 55 f3	 mov	 BYTE PTR __k$[ebp+15], dl
  0011f	8a 50 10	 mov	 dl, BYTE PTR [eax+16]
  00122	84 d2		 test	 dl, dl
  00124	74 5b		 je	 SHORT $LN80@LoadInt_e
  00126	80 f2 ed	 xor	 dl, -19			; ffffffedH
  00129	80 78 11 00	 cmp	 BYTE PTR [eax+17], 0
  0012d	88 55 f4	 mov	 BYTE PTR __k$[ebp+16], dl
  00130	0f 84 ac 00 00
	00		 je	 $LN1@LoadInt_e
  00136	8a 50 12	 mov	 dl, BYTE PTR [eax+18]
  00139	84 d2		 test	 dl, dl
  0013b	74 3f		 je	 SHORT $LN78@LoadInt_e
  0013d	32 d1		 xor	 dl, cl
  0013f	88 55 f6	 mov	 BYTE PTR __k$[ebp+18], dl
  00142	8a 50 13	 mov	 dl, BYTE PTR [eax+19]
  00145	84 d2		 test	 dl, dl
  00147	74 2d		 je	 SHORT $LN77@LoadInt_e
  00149	80 f2 ea	 xor	 dl, -22			; ffffffeaH
  0014c	88 55 f7	 mov	 BYTE PTR __k$[ebp+19], dl
  0014f	8a 50 14	 mov	 dl, BYTE PTR [eax+20]
  00152	84 d2		 test	 dl, dl
  00154	74 1a		 je	 SHORT $LN76@LoadInt_e
  00156	8a 40 15	 mov	 al, BYTE PTR [eax+21]
  00159	80 f2 ed	 xor	 dl, -19			; ffffffedH
  0015c	88 55 f8	 mov	 BYTE PTR __k$[ebp+20], dl
  0015f	84 c0		 test	 al, al
  00161	74 07		 je	 SHORT $LN75@LoadInt_e
  00163	34 ec		 xor	 al, -20			; ffffffecH
  00165	88 45 f9	 mov	 BYTE PTR __k$[ebp+21], al
  00168	eb 78		 jmp	 SHORT $LN1@LoadInt_e
$LN75@LoadInt_e:
  0016a	c6 45 f9 ec	 mov	 BYTE PTR __k$[ebp+21], -20 ; ffffffecH
  0016e	eb 72		 jmp	 SHORT $LN1@LoadInt_e
$LN76@LoadInt_e:
  00170	c6 45 f8 ed	 mov	 BYTE PTR __k$[ebp+20], -19 ; ffffffedH
  00174	eb 6c		 jmp	 SHORT $LN1@LoadInt_e
$LN77@LoadInt_e:
  00176	c6 45 f7 ea	 mov	 BYTE PTR __k$[ebp+19], -22 ; ffffffeaH
  0017a	eb 66		 jmp	 SHORT $LN1@LoadInt_e
$LN78@LoadInt_e:
  0017c	88 4d f6	 mov	 BYTE PTR __k$[ebp+18], cl
  0017f	eb 61		 jmp	 SHORT $LN1@LoadInt_e
$LN80@LoadInt_e:
  00181	c6 45 f4 ed	 mov	 BYTE PTR __k$[ebp+16], -19 ; ffffffedH
  00185	eb 5b		 jmp	 SHORT $LN1@LoadInt_e
$LN81@LoadInt_e:
  00187	c6 45 f3 ea	 mov	 BYTE PTR __k$[ebp+15], -22 ; ffffffeaH
  0018b	eb 55		 jmp	 SHORT $LN1@LoadInt_e
$LN82@LoadInt_e:
  0018d	88 4d f2	 mov	 BYTE PTR __k$[ebp+14], cl
  00190	eb 50		 jmp	 SHORT $LN1@LoadInt_e
$LN83@LoadInt_e:
  00192	c6 45 f1 ec	 mov	 BYTE PTR __k$[ebp+13], -20 ; ffffffecH
  00196	eb 4a		 jmp	 SHORT $LN1@LoadInt_e
$LN84@LoadInt_e:
  00198	c6 45 f0 ed	 mov	 BYTE PTR __k$[ebp+12], -19 ; ffffffedH
  0019c	eb 44		 jmp	 SHORT $LN1@LoadInt_e
$LN85@LoadInt_e:
  0019e	c6 45 ef ea	 mov	 BYTE PTR __k$[ebp+11], -22 ; ffffffeaH
  001a2	eb 3e		 jmp	 SHORT $LN1@LoadInt_e
$LN86@LoadInt_e:
  001a4	88 4d ee	 mov	 BYTE PTR __k$[ebp+10], cl
  001a7	eb 39		 jmp	 SHORT $LN1@LoadInt_e
$LN87@LoadInt_e:
  001a9	c6 45 ed ec	 mov	 BYTE PTR __k$[ebp+9], -20 ; ffffffecH
  001ad	eb 33		 jmp	 SHORT $LN1@LoadInt_e
$LN88@LoadInt_e:
  001af	c6 45 ec ed	 mov	 BYTE PTR __k$[ebp+8], -19 ; ffffffedH
  001b3	eb 2d		 jmp	 SHORT $LN1@LoadInt_e
$LN89@LoadInt_e:
  001b5	c6 45 eb ea	 mov	 BYTE PTR __k$[ebp+7], -22 ; ffffffeaH
  001b9	eb 27		 jmp	 SHORT $LN1@LoadInt_e
$LN90@LoadInt_e:
  001bb	88 4d ea	 mov	 BYTE PTR __k$[ebp+6], cl
  001be	eb 22		 jmp	 SHORT $LN1@LoadInt_e
$LN91@LoadInt_e:
  001c0	c6 45 e9 ec	 mov	 BYTE PTR __k$[ebp+5], -20 ; ffffffecH
  001c4	eb 1c		 jmp	 SHORT $LN1@LoadInt_e
$LN92@LoadInt_e:
  001c6	c6 45 e8 ed	 mov	 BYTE PTR __k$[ebp+4], -19 ; ffffffedH
  001ca	eb 16		 jmp	 SHORT $LN1@LoadInt_e
$LN93@LoadInt_e:
  001cc	c6 45 e7 ea	 mov	 BYTE PTR __k$[ebp+3], -22 ; ffffffeaH
  001d0	eb 10		 jmp	 SHORT $LN1@LoadInt_e
$LN94@LoadInt_e:
  001d2	c6 45 e6 eb	 mov	 BYTE PTR __k$[ebp+2], -21 ; ffffffebH
  001d6	eb 0a		 jmp	 SHORT $LN1@LoadInt_e
$LN95@LoadInt_e:
  001d8	c6 45 e5 ec	 mov	 BYTE PTR __k$[ebp+1], -20 ; ffffffecH
  001dc	eb 04		 jmp	 SHORT $LN1@LoadInt_e
$LN96@LoadInt_e:
  001de	c6 45 e4 ed	 mov	 BYTE PTR __k$[ebp], -19	; ffffffedH
$LN1@LoadInt_e:
  001e2	6a 04		 push	 4
  001e4	8d 45 e4	 lea	 eax, DWORD PTR __k$[ebp]
  001e7	c6 45 f5 00	 mov	 BYTE PTR __k$[ebp+17], 0
  001eb	5a		 pop	 edx
$LL104@LoadInt_e:
  001ec	81 30 ed ec eb
	ea		 xor	 DWORD PTR [eax], -353637139 ; eaebecedH
  001f2	83 c0 04	 add	 eax, 4
  001f5	4a		 dec	 edx
  001f6	75 f4		 jne	 SHORT $LL104@LoadInt_e

; 120  : 		return LoadInt(_k, i);

  001f8	ff 75 0c	 push	 DWORD PTR _i$[ebp]
  001fb	80 75 f4 ed	 xor	 BYTE PTR __k$[ebp+16], -19 ; ffffffedH
  001ff	8d 45 e4	 lea	 eax, DWORD PTR __k$[ebp]
  00202	50		 push	 eax
  00203	8b ce		 mov	 ecx, esi
  00205	ff 15 00 00 00
	00		 call	 DWORD PTR __imp_?LoadInt@ioINILoader@@QAEHPBDH@Z

; 121  : 	}

  0020b	8b 4d fc	 mov	 ecx, DWORD PTR __$ArrayPad$[ebp]
  0020e	33 cd		 xor	 ecx, ebp
  00210	5e		 pop	 esi
  00211	e8 00 00 00 00	 call	 @__security_check_cookie@4
  00216	c9		 leave
  00217	c2 08 00	 ret	 8
??$LoadInt_e@$0BC@@ioINILoader@@QAEHAAY0BC@$$CBDH@Z ENDP ; ioINILoader::LoadInt_e<18>
_TEXT	ENDS
PUBLIC	__$ArrayPad$
PUBLIC	??$LoadInt_e@$0BE@@ioINILoader@@QAEHAAY0BE@$$CBDH@Z ; ioINILoader::LoadInt_e<20>
; Function compile flags: /Ogsp
;	COMDAT ??$LoadInt_e@$0BE@@ioINILoader@@QAEHAAY0BE@$$CBDH@Z
_TEXT	SEGMENT
__k$ = -28						; size = 20
__$ArrayPad$ = -4					; size = 4
_k$ = 8							; size = 4
_i$ = 12						; size = 4
??$LoadInt_e@$0BE@@ioINILoader@@QAEHAAY0BE@$$CBDH@Z PROC ; ioINILoader::LoadInt_e<20>, COMDAT
; _this$ = ecx

; 118  : 	{

  00000	55		 push	 ebp
  00001	8b ec		 mov	 ebp, esp
  00003	83 ec 1c	 sub	 esp, 28			; 0000001cH
  00006	a1 00 00 00 00	 mov	 eax, DWORD PTR ___security_cookie
  0000b	33 c5		 xor	 eax, ebp
  0000d	89 45 fc	 mov	 DWORD PTR __$ArrayPad$[ebp], eax
  00010	8b 45 08	 mov	 eax, DWORD PTR _k$[ebp]

; 119  : 		_ENCSTR(k, _k);

  00013	8a 10		 mov	 dl, BYTE PTR [eax]
  00015	53		 push	 ebx
  00016	56		 push	 esi
  00017	8b f1		 mov	 esi, ecx
  00019	84 d2		 test	 dl, dl
  0001b	0f 84 dd 01 00
	00		 je	 $LN96@LoadInt_e@2
  00021	80 f2 ed	 xor	 dl, -19			; ffffffedH
  00024	88 55 e4	 mov	 BYTE PTR __k$[ebp], dl
  00027	8a 50 01	 mov	 dl, BYTE PTR [eax+1]
  0002a	84 d2		 test	 dl, dl
  0002c	0f 84 c6 01 00
	00		 je	 $LN95@LoadInt_e@2
  00032	b3 ec		 mov	 bl, -20			; ffffffecH
  00034	32 d3		 xor	 dl, bl
  00036	88 55 e5	 mov	 BYTE PTR __k$[ebp+1], dl
  00039	8a 50 02	 mov	 dl, BYTE PTR [eax+2]
  0003c	84 d2		 test	 dl, dl
  0003e	0f 84 ae 01 00
	00		 je	 $LN94@LoadInt_e@2
  00044	b1 eb		 mov	 cl, -21			; ffffffebH
  00046	32 d1		 xor	 dl, cl
  00048	88 55 e6	 mov	 BYTE PTR __k$[ebp+2], dl
  0004b	8a 50 03	 mov	 dl, BYTE PTR [eax+3]
  0004e	84 d2		 test	 dl, dl
  00050	0f 84 96 01 00
	00		 je	 $LN93@LoadInt_e@2
  00056	80 f2 ea	 xor	 dl, -22			; ffffffeaH
  00059	88 55 e7	 mov	 BYTE PTR __k$[ebp+3], dl
  0005c	8a 50 04	 mov	 dl, BYTE PTR [eax+4]
  0005f	84 d2		 test	 dl, dl
  00061	0f 84 7f 01 00
	00		 je	 $LN92@LoadInt_e@2
  00067	80 f2 ed	 xor	 dl, -19			; ffffffedH
  0006a	88 55 e8	 mov	 BYTE PTR __k$[ebp+4], dl
  0006d	8a 50 05	 mov	 dl, BYTE PTR [eax+5]
  00070	84 d2		 test	 dl, dl
  00072	0f 84 69 01 00
	00		 je	 $LN91@LoadInt_e@2
  00078	32 d3		 xor	 dl, bl
  0007a	88 55 e9	 mov	 BYTE PTR __k$[ebp+5], dl
  0007d	8a 50 06	 mov	 dl, BYTE PTR [eax+6]
  00080	84 d2		 test	 dl, dl
  00082	0f 84 54 01 00
	00		 je	 $LN90@LoadInt_e@2
  00088	32 d1		 xor	 dl, cl
  0008a	88 55 ea	 mov	 BYTE PTR __k$[ebp+6], dl
  0008d	8a 50 07	 mov	 dl, BYTE PTR [eax+7]
  00090	84 d2		 test	 dl, dl
  00092	0f 84 3e 01 00
	00		 je	 $LN89@LoadInt_e@2
  00098	80 f2 ea	 xor	 dl, -22			; ffffffeaH
  0009b	88 55 eb	 mov	 BYTE PTR __k$[ebp+7], dl
  0009e	8a 50 08	 mov	 dl, BYTE PTR [eax+8]
  000a1	84 d2		 test	 dl, dl
  000a3	0f 84 27 01 00
	00		 je	 $LN88@LoadInt_e@2
  000a9	80 f2 ed	 xor	 dl, -19			; ffffffedH
  000ac	88 55 ec	 mov	 BYTE PTR __k$[ebp+8], dl
  000af	8a 50 09	 mov	 dl, BYTE PTR [eax+9]
  000b2	84 d2		 test	 dl, dl
  000b4	0f 84 11 01 00
	00		 je	 $LN87@LoadInt_e@2
  000ba	32 d3		 xor	 dl, bl
  000bc	88 55 ed	 mov	 BYTE PTR __k$[ebp+9], dl
  000bf	8a 50 0a	 mov	 dl, BYTE PTR [eax+10]
  000c2	84 d2		 test	 dl, dl
  000c4	0f 84 fc 00 00
	00		 je	 $LN86@LoadInt_e@2
  000ca	32 d1		 xor	 dl, cl
  000cc	88 55 ee	 mov	 BYTE PTR __k$[ebp+10], dl
  000cf	8a 50 0b	 mov	 dl, BYTE PTR [eax+11]
  000d2	84 d2		 test	 dl, dl
  000d4	0f 84 e6 00 00
	00		 je	 $LN85@LoadInt_e@2
  000da	80 f2 ea	 xor	 dl, -22			; ffffffeaH
  000dd	88 55 ef	 mov	 BYTE PTR __k$[ebp+11], dl
  000e0	8a 50 0c	 mov	 dl, BYTE PTR [eax+12]
  000e3	84 d2		 test	 dl, dl
  000e5	0f 84 cf 00 00
	00		 je	 $LN84@LoadInt_e@2
  000eb	80 f2 ed	 xor	 dl, -19			; ffffffedH
  000ee	88 55 f0	 mov	 BYTE PTR __k$[ebp+12], dl
  000f1	8a 50 0d	 mov	 dl, BYTE PTR [eax+13]
  000f4	84 d2		 test	 dl, dl
  000f6	0f 84 b9 00 00
	00		 je	 $LN83@LoadInt_e@2
  000fc	32 d3		 xor	 dl, bl
  000fe	88 55 f1	 mov	 BYTE PTR __k$[ebp+13], dl
  00101	8a 50 0e	 mov	 dl, BYTE PTR [eax+14]
  00104	84 d2		 test	 dl, dl
  00106	0f 84 a4 00 00
	00		 je	 $LN82@LoadInt_e@2
  0010c	32 d1		 xor	 dl, cl
  0010e	88 55 f2	 mov	 BYTE PTR __k$[ebp+14], dl
  00111	8a 50 0f	 mov	 dl, BYTE PTR [eax+15]
  00114	84 d2		 test	 dl, dl
  00116	0f 84 8e 00 00
	00		 je	 $LN81@LoadInt_e@2
  0011c	80 f2 ea	 xor	 dl, -22			; ffffffeaH
  0011f	88 55 f3	 mov	 BYTE PTR __k$[ebp+15], dl
  00122	8a 50 10	 mov	 dl, BYTE PTR [eax+16]
  00125	84 d2		 test	 dl, dl
  00127	74 7b		 je	 SHORT $LN80@LoadInt_e@2
  00129	80 f2 ed	 xor	 dl, -19			; ffffffedH
  0012c	88 55 f4	 mov	 BYTE PTR __k$[ebp+16], dl
  0012f	8a 50 11	 mov	 dl, BYTE PTR [eax+17]
  00132	84 d2		 test	 dl, dl
  00134	74 69		 je	 SHORT $LN79@LoadInt_e@2
  00136	32 d3		 xor	 dl, bl
  00138	88 55 f5	 mov	 BYTE PTR __k$[ebp+17], dl
  0013b	8a 50 12	 mov	 dl, BYTE PTR [eax+18]
  0013e	84 d2		 test	 dl, dl
  00140	74 58		 je	 SHORT $LN78@LoadInt_e@2
  00142	32 d1		 xor	 dl, cl
  00144	80 78 13 00	 cmp	 BYTE PTR [eax+19], 0
  00148	88 55 f6	 mov	 BYTE PTR __k$[ebp+18], dl
  0014b	0f 84 b1 00 00
	00		 je	 $LN1@LoadInt_e@2
  00151	8a 50 14	 mov	 dl, BYTE PTR [eax+20]
  00154	84 d2		 test	 dl, dl
  00156	74 3c		 je	 SHORT $LN76@LoadInt_e@2
  00158	80 f2 ed	 xor	 dl, -19			; ffffffedH
  0015b	88 55 f8	 mov	 BYTE PTR __k$[ebp+20], dl
  0015e	8a 50 15	 mov	 dl, BYTE PTR [eax+21]
  00161	84 d2		 test	 dl, dl
  00163	74 2a		 je	 SHORT $LN75@LoadInt_e@2
  00165	32 d3		 xor	 dl, bl
  00167	88 55 f9	 mov	 BYTE PTR __k$[ebp+21], dl
  0016a	8a 50 16	 mov	 dl, BYTE PTR [eax+22]
  0016d	84 d2		 test	 dl, dl
  0016f	74 19		 je	 SHORT $LN74@LoadInt_e@2
  00171	8a 40 17	 mov	 al, BYTE PTR [eax+23]
  00174	32 d1		 xor	 dl, cl
  00176	88 55 fa	 mov	 BYTE PTR __k$[ebp+22], dl
  00179	84 c0		 test	 al, al
  0017b	74 07		 je	 SHORT $LN73@LoadInt_e@2
  0017d	34 ea		 xor	 al, -22			; ffffffeaH
  0017f	88 45 fb	 mov	 BYTE PTR __k$[ebp+23], al
  00182	eb 7e		 jmp	 SHORT $LN1@LoadInt_e@2
$LN73@LoadInt_e@2:
  00184	c6 45 fb ea	 mov	 BYTE PTR __k$[ebp+23], -22 ; ffffffeaH
  00188	eb 78		 jmp	 SHORT $LN1@LoadInt_e@2
$LN74@LoadInt_e@2:
  0018a	88 4d fa	 mov	 BYTE PTR __k$[ebp+22], cl
  0018d	eb 73		 jmp	 SHORT $LN1@LoadInt_e@2
$LN75@LoadInt_e@2:
  0018f	88 5d f9	 mov	 BYTE PTR __k$[ebp+21], bl
  00192	eb 6e		 jmp	 SHORT $LN1@LoadInt_e@2
$LN76@LoadInt_e@2:
  00194	c6 45 f8 ed	 mov	 BYTE PTR __k$[ebp+20], -19 ; ffffffedH
  00198	eb 68		 jmp	 SHORT $LN1@LoadInt_e@2
$LN78@LoadInt_e@2:
  0019a	88 4d f6	 mov	 BYTE PTR __k$[ebp+18], cl
  0019d	eb 63		 jmp	 SHORT $LN1@LoadInt_e@2
$LN79@LoadInt_e@2:
  0019f	88 5d f5	 mov	 BYTE PTR __k$[ebp+17], bl
  001a2	eb 5e		 jmp	 SHORT $LN1@LoadInt_e@2
$LN80@LoadInt_e@2:
  001a4	c6 45 f4 ed	 mov	 BYTE PTR __k$[ebp+16], -19 ; ffffffedH
  001a8	eb 58		 jmp	 SHORT $LN1@LoadInt_e@2
$LN81@LoadInt_e@2:
  001aa	c6 45 f3 ea	 mov	 BYTE PTR __k$[ebp+15], -22 ; ffffffeaH
  001ae	eb 52		 jmp	 SHORT $LN1@LoadInt_e@2
$LN82@LoadInt_e@2:
  001b0	88 4d f2	 mov	 BYTE PTR __k$[ebp+14], cl
  001b3	eb 4d		 jmp	 SHORT $LN1@LoadInt_e@2
$LN83@LoadInt_e@2:
  001b5	88 5d f1	 mov	 BYTE PTR __k$[ebp+13], bl
  001b8	eb 48		 jmp	 SHORT $LN1@LoadInt_e@2
$LN84@LoadInt_e@2:
  001ba	c6 45 f0 ed	 mov	 BYTE PTR __k$[ebp+12], -19 ; ffffffedH
  001be	eb 42		 jmp	 SHORT $LN1@LoadInt_e@2
$LN85@LoadInt_e@2:
  001c0	c6 45 ef ea	 mov	 BYTE PTR __k$[ebp+11], -22 ; ffffffeaH
  001c4	eb 3c		 jmp	 SHORT $LN1@LoadInt_e@2
$LN86@LoadInt_e@2:
  001c6	88 4d ee	 mov	 BYTE PTR __k$[ebp+10], cl
  001c9	eb 37		 jmp	 SHORT $LN1@LoadInt_e@2
$LN87@LoadInt_e@2:
  001cb	88 5d ed	 mov	 BYTE PTR __k$[ebp+9], bl
  001ce	eb 32		 jmp	 SHORT $LN1@LoadInt_e@2
$LN88@LoadInt_e@2:
  001d0	c6 45 ec ed	 mov	 BYTE PTR __k$[ebp+8], -19 ; ffffffedH
  001d4	eb 2c		 jmp	 SHORT $LN1@LoadInt_e@2
$LN89@LoadInt_e@2:
  001d6	c6 45 eb ea	 mov	 BYTE PTR __k$[ebp+7], -22 ; ffffffeaH
  001da	eb 26		 jmp	 SHORT $LN1@LoadInt_e@2
$LN90@LoadInt_e@2:
  001dc	88 4d ea	 mov	 BYTE PTR __k$[ebp+6], cl
  001df	eb 21		 jmp	 SHORT $LN1@LoadInt_e@2
$LN91@LoadInt_e@2:
  001e1	88 5d e9	 mov	 BYTE PTR __k$[ebp+5], bl
  001e4	eb 1c		 jmp	 SHORT $LN1@LoadInt_e@2
$LN92@LoadInt_e@2:
  001e6	c6 45 e8 ed	 mov	 BYTE PTR __k$[ebp+4], -19 ; ffffffedH
  001ea	eb 16		 jmp	 SHORT $LN1@LoadInt_e@2
$LN93@LoadInt_e@2:
  001ec	c6 45 e7 ea	 mov	 BYTE PTR __k$[ebp+3], -22 ; ffffffeaH
  001f0	eb 10		 jmp	 SHORT $LN1@LoadInt_e@2
$LN94@LoadInt_e@2:
  001f2	c6 45 e6 eb	 mov	 BYTE PTR __k$[ebp+2], -21 ; ffffffebH
  001f6	eb 0a		 jmp	 SHORT $LN1@LoadInt_e@2
$LN95@LoadInt_e@2:
  001f8	c6 45 e5 ec	 mov	 BYTE PTR __k$[ebp+1], -20 ; ffffffecH
  001fc	eb 04		 jmp	 SHORT $LN1@LoadInt_e@2
$LN96@LoadInt_e@2:
  001fe	c6 45 e4 ed	 mov	 BYTE PTR __k$[ebp], -19	; ffffffedH
$LN1@LoadInt_e@2:
  00202	6a 04		 push	 4
  00204	8d 45 e4	 lea	 eax, DWORD PTR __k$[ebp]
  00207	c6 45 f7 00	 mov	 BYTE PTR __k$[ebp+19], 0
  0020b	5a		 pop	 edx
$LL104@LoadInt_e@2:
  0020c	81 30 ed ec eb
	ea		 xor	 DWORD PTR [eax], -353637139 ; eaebecedH
  00212	83 c0 04	 add	 eax, 4
  00215	4a		 dec	 edx
  00216	75 f4		 jne	 SHORT $LL104@LoadInt_e@2
  00218	6a 10		 push	 16			; 00000010H
  0021a	58		 pop	 eax
$LL101@LoadInt_e@2:
  0021b	8b c8		 mov	 ecx, eax
  0021d	81 e1 03 00 00
	80		 and	 ecx, -2147483645	; 80000003H
  00223	79 05		 jns	 SHORT $LN111@LoadInt_e@2
  00225	49		 dec	 ecx
  00226	83 c9 fc	 or	 ecx, -4			; fffffffcH
  00229	41		 inc	 ecx
$LN111@LoadInt_e@2:
  0022a	b2 ed		 mov	 dl, -19			; ffffffedH
  0022c	2a d1		 sub	 dl, cl
  0022e	30 54 05 e4	 xor	 BYTE PTR __k$[ebp+eax], dl
  00232	40		 inc	 eax
  00233	83 f8 13	 cmp	 eax, 19			; 00000013H
  00236	7c e3		 jl	 SHORT $LL101@LoadInt_e@2

; 120  : 		return LoadInt(_k, i);

  00238	ff 75 0c	 push	 DWORD PTR _i$[ebp]
  0023b	8d 45 e4	 lea	 eax, DWORD PTR __k$[ebp]
  0023e	50		 push	 eax
  0023f	8b ce		 mov	 ecx, esi
  00241	ff 15 00 00 00
	00		 call	 DWORD PTR __imp_?LoadInt@ioINILoader@@QAEHPBDH@Z

; 121  : 	}

  00247	8b 4d fc	 mov	 ecx, DWORD PTR __$ArrayPad$[ebp]
  0024a	5e		 pop	 esi
  0024b	33 cd		 xor	 ecx, ebp
  0024d	5b		 pop	 ebx
  0024e	e8 00 00 00 00	 call	 @__security_check_cookie@4
  00253	c9		 leave
  00254	c2 08 00	 ret	 8
??$LoadInt_e@$0BE@@ioINILoader@@QAEHAAY0BE@$$CBDH@Z ENDP ; ioINILoader::LoadInt_e<20>
_TEXT	ENDS
PUBLIC	__$ArrayPad$
PUBLIC	??$LoadInt_e@$0BH@@ioINILoader@@QAEHAAY0BH@$$CBDH@Z ; ioINILoader::LoadInt_e<23>
; Function compile flags: /Ogsp
;	COMDAT ??$LoadInt_e@$0BH@@ioINILoader@@QAEHAAY0BH@$$CBDH@Z
_TEXT	SEGMENT
__k$ = -32						; size = 23
__$ArrayPad$ = -4					; size = 4
_k$ = 8							; size = 4
_i$ = 12						; size = 4
??$LoadInt_e@$0BH@@ioINILoader@@QAEHAAY0BH@$$CBDH@Z PROC ; ioINILoader::LoadInt_e<23>, COMDAT
; _this$ = ecx

; 118  : 	{

  00000	55		 push	 ebp
  00001	8b ec		 mov	 ebp, esp
  00003	83 ec 20	 sub	 esp, 32			; 00000020H
  00006	a1 00 00 00 00	 mov	 eax, DWORD PTR ___security_cookie
  0000b	33 c5		 xor	 eax, ebp
  0000d	89 45 fc	 mov	 DWORD PTR __$ArrayPad$[ebp], eax
  00010	8b 45 08	 mov	 eax, DWORD PTR _k$[ebp]

; 119  : 		_ENCSTR(k, _k);

  00013	8a 10		 mov	 dl, BYTE PTR [eax]
  00015	53		 push	 ebx
  00016	56		 push	 esi
  00017	8b f1		 mov	 esi, ecx
  00019	84 d2		 test	 dl, dl
  0001b	0f 84 2d 02 00
	00		 je	 $LN96@LoadInt_e@3
  00021	80 f2 ed	 xor	 dl, -19			; ffffffedH
  00024	88 55 e0	 mov	 BYTE PTR __k$[ebp], dl
  00027	8a 50 01	 mov	 dl, BYTE PTR [eax+1]
  0002a	84 d2		 test	 dl, dl
  0002c	0f 84 16 02 00
	00		 je	 $LN95@LoadInt_e@3
  00032	b1 ec		 mov	 cl, -20			; ffffffecH
  00034	32 d1		 xor	 dl, cl
  00036	88 55 e1	 mov	 BYTE PTR __k$[ebp+1], dl
  00039	8a 50 02	 mov	 dl, BYTE PTR [eax+2]
  0003c	84 d2		 test	 dl, dl
  0003e	0f 84 fe 01 00
	00		 je	 $LN94@LoadInt_e@3
  00044	80 f2 eb	 xor	 dl, -21			; ffffffebH
  00047	88 55 e2	 mov	 BYTE PTR __k$[ebp+2], dl
  0004a	8a 50 03	 mov	 dl, BYTE PTR [eax+3]
  0004d	84 d2		 test	 dl, dl
  0004f	0f 84 e7 01 00
	00		 je	 $LN93@LoadInt_e@3
  00055	b3 ea		 mov	 bl, -22			; ffffffeaH
  00057	32 d3		 xor	 dl, bl
  00059	88 55 e3	 mov	 BYTE PTR __k$[ebp+3], dl
  0005c	8a 50 04	 mov	 dl, BYTE PTR [eax+4]
  0005f	84 d2		 test	 dl, dl
  00061	0f 84 cf 01 00
	00		 je	 $LN92@LoadInt_e@3
  00067	80 f2 ed	 xor	 dl, -19			; ffffffedH
  0006a	88 55 e4	 mov	 BYTE PTR __k$[ebp+4], dl
  0006d	8a 50 05	 mov	 dl, BYTE PTR [eax+5]
  00070	84 d2		 test	 dl, dl
  00072	0f 84 b9 01 00
	00		 je	 $LN91@LoadInt_e@3
  00078	32 d1		 xor	 dl, cl
  0007a	88 55 e5	 mov	 BYTE PTR __k$[ebp+5], dl
  0007d	8a 50 06	 mov	 dl, BYTE PTR [eax+6]
  00080	84 d2		 test	 dl, dl
  00082	0f 84 a3 01 00
	00		 je	 $LN90@LoadInt_e@3
  00088	80 f2 eb	 xor	 dl, -21			; ffffffebH
  0008b	88 55 e6	 mov	 BYTE PTR __k$[ebp+6], dl
  0008e	8a 50 07	 mov	 dl, BYTE PTR [eax+7]
  00091	84 d2		 test	 dl, dl
  00093	0f 84 8d 01 00
	00		 je	 $LN89@LoadInt_e@3
  00099	32 d3		 xor	 dl, bl
  0009b	88 55 e7	 mov	 BYTE PTR __k$[ebp+7], dl
  0009e	8a 50 08	 mov	 dl, BYTE PTR [eax+8]
  000a1	84 d2		 test	 dl, dl
  000a3	0f 84 77 01 00
	00		 je	 $LN88@LoadInt_e@3
  000a9	80 f2 ed	 xor	 dl, -19			; ffffffedH
  000ac	88 55 e8	 mov	 BYTE PTR __k$[ebp+8], dl
  000af	8a 50 09	 mov	 dl, BYTE PTR [eax+9]
  000b2	84 d2		 test	 dl, dl
  000b4	0f 84 61 01 00
	00		 je	 $LN87@LoadInt_e@3
  000ba	32 d1		 xor	 dl, cl
  000bc	88 55 e9	 mov	 BYTE PTR __k$[ebp+9], dl
  000bf	8a 50 0a	 mov	 dl, BYTE PTR [eax+10]
  000c2	84 d2		 test	 dl, dl
  000c4	0f 84 4b 01 00
	00		 je	 $LN86@LoadInt_e@3
  000ca	80 f2 eb	 xor	 dl, -21			; ffffffebH
  000cd	88 55 ea	 mov	 BYTE PTR __k$[ebp+10], dl
  000d0	8a 50 0b	 mov	 dl, BYTE PTR [eax+11]
  000d3	84 d2		 test	 dl, dl
  000d5	0f 84 35 01 00
	00		 je	 $LN85@LoadInt_e@3
  000db	32 d3		 xor	 dl, bl
  000dd	88 55 eb	 mov	 BYTE PTR __k$[ebp+11], dl
  000e0	8a 50 0c	 mov	 dl, BYTE PTR [eax+12]
  000e3	84 d2		 test	 dl, dl
  000e5	0f 84 1f 01 00
	00		 je	 $LN84@LoadInt_e@3
  000eb	80 f2 ed	 xor	 dl, -19			; ffffffedH
  000ee	88 55 ec	 mov	 BYTE PTR __k$[ebp+12], dl
  000f1	8a 50 0d	 mov	 dl, BYTE PTR [eax+13]
  000f4	84 d2		 test	 dl, dl
  000f6	0f 84 09 01 00
	00		 je	 $LN83@LoadInt_e@3
  000fc	32 d1		 xor	 dl, cl
  000fe	88 55 ed	 mov	 BYTE PTR __k$[ebp+13], dl
  00101	8a 50 0e	 mov	 dl, BYTE PTR [eax+14]
  00104	84 d2		 test	 dl, dl
  00106	0f 84 f3 00 00
	00		 je	 $LN82@LoadInt_e@3
  0010c	80 f2 eb	 xor	 dl, -21			; ffffffebH
  0010f	88 55 ee	 mov	 BYTE PTR __k$[ebp+14], dl
  00112	8a 50 0f	 mov	 dl, BYTE PTR [eax+15]
  00115	84 d2		 test	 dl, dl
  00117	0f 84 dd 00 00
	00		 je	 $LN81@LoadInt_e@3
  0011d	32 d3		 xor	 dl, bl
  0011f	88 55 ef	 mov	 BYTE PTR __k$[ebp+15], dl
  00122	8a 50 10	 mov	 dl, BYTE PTR [eax+16]
  00125	84 d2		 test	 dl, dl
  00127	0f 84 c7 00 00
	00		 je	 $LN80@LoadInt_e@3
  0012d	80 f2 ed	 xor	 dl, -19			; ffffffedH
  00130	88 55 f0	 mov	 BYTE PTR __k$[ebp+16], dl
  00133	8a 50 11	 mov	 dl, BYTE PTR [eax+17]
  00136	84 d2		 test	 dl, dl
  00138	0f 84 b1 00 00
	00		 je	 $LN79@LoadInt_e@3
  0013e	32 d1		 xor	 dl, cl
  00140	88 55 f1	 mov	 BYTE PTR __k$[ebp+17], dl
  00143	8a 50 12	 mov	 dl, BYTE PTR [eax+18]
  00146	84 d2		 test	 dl, dl
  00148	0f 84 9b 00 00
	00		 je	 $LN78@LoadInt_e@3
  0014e	80 f2 eb	 xor	 dl, -21			; ffffffebH
  00151	88 55 f2	 mov	 BYTE PTR __k$[ebp+18], dl
  00154	8a 50 13	 mov	 dl, BYTE PTR [eax+19]
  00157	84 d2		 test	 dl, dl
  00159	0f 84 85 00 00
	00		 je	 $LN77@LoadInt_e@3
  0015f	32 d3		 xor	 dl, bl
  00161	88 55 f3	 mov	 BYTE PTR __k$[ebp+19], dl
  00164	8a 50 14	 mov	 dl, BYTE PTR [eax+20]
  00167	84 d2		 test	 dl, dl
  00169	74 73		 je	 SHORT $LN76@LoadInt_e@3
  0016b	80 f2 ed	 xor	 dl, -19			; ffffffedH
  0016e	88 55 f4	 mov	 BYTE PTR __k$[ebp+20], dl
  00171	8a 50 15	 mov	 dl, BYTE PTR [eax+21]
  00174	84 d2		 test	 dl, dl
  00176	74 61		 je	 SHORT $LN75@LoadInt_e@3
  00178	32 d1		 xor	 dl, cl
  0017a	80 78 16 00	 cmp	 BYTE PTR [eax+22], 0
  0017e	88 55 f5	 mov	 BYTE PTR __k$[ebp+21], dl
  00181	0f 84 cb 00 00
	00		 je	 $LN1@LoadInt_e@3
  00187	8a 50 17	 mov	 dl, BYTE PTR [eax+23]
  0018a	84 d2		 test	 dl, dl
  0018c	74 46		 je	 SHORT $LN73@LoadInt_e@3
  0018e	32 d3		 xor	 dl, bl
  00190	88 55 f7	 mov	 BYTE PTR __k$[ebp+23], dl
  00193	8a 50 18	 mov	 dl, BYTE PTR [eax+24]
  00196	84 d2		 test	 dl, dl
  00198	74 34		 je	 SHORT $LN72@LoadInt_e@3
  0019a	80 f2 ed	 xor	 dl, -19			; ffffffedH
  0019d	88 55 f8	 mov	 BYTE PTR __k$[ebp+24], dl
  001a0	8a 50 19	 mov	 dl, BYTE PTR [eax+25]
  001a3	84 d2		 test	 dl, dl
  001a5	74 1f		 je	 SHORT $LN71@LoadInt_e@3
  001a7	8a 40 1a	 mov	 al, BYTE PTR [eax+26]
  001aa	32 d1		 xor	 dl, cl
  001ac	88 55 f9	 mov	 BYTE PTR __k$[ebp+25], dl
  001af	84 c0		 test	 al, al
  001b1	74 0a		 je	 SHORT $LN70@LoadInt_e@3
  001b3	34 eb		 xor	 al, -21			; ffffffebH
  001b5	88 45 fa	 mov	 BYTE PTR __k$[ebp+26], al
  001b8	e9 95 00 00 00	 jmp	 $LN1@LoadInt_e@3
$LN70@LoadInt_e@3:
  001bd	c6 45 fa eb	 mov	 BYTE PTR __k$[ebp+26], -21 ; ffffffebH
  001c1	e9 8c 00 00 00	 jmp	 $LN1@LoadInt_e@3
$LN71@LoadInt_e@3:
  001c6	88 4d f9	 mov	 BYTE PTR __k$[ebp+25], cl
  001c9	e9 84 00 00 00	 jmp	 $LN1@LoadInt_e@3
$LN72@LoadInt_e@3:
  001ce	c6 45 f8 ed	 mov	 BYTE PTR __k$[ebp+24], -19 ; ffffffedH
  001d2	eb 7e		 jmp	 SHORT $LN1@LoadInt_e@3
$LN73@LoadInt_e@3:
  001d4	88 5d f7	 mov	 BYTE PTR __k$[ebp+23], bl
  001d7	eb 79		 jmp	 SHORT $LN1@LoadInt_e@3
$LN75@LoadInt_e@3:
  001d9	88 4d f5	 mov	 BYTE PTR __k$[ebp+21], cl
  001dc	eb 74		 jmp	 SHORT $LN1@LoadInt_e@3
$LN76@LoadInt_e@3:
  001de	c6 45 f4 ed	 mov	 BYTE PTR __k$[ebp+20], -19 ; ffffffedH
  001e2	eb 6e		 jmp	 SHORT $LN1@LoadInt_e@3
$LN77@LoadInt_e@3:
  001e4	88 5d f3	 mov	 BYTE PTR __k$[ebp+19], bl
  001e7	eb 69		 jmp	 SHORT $LN1@LoadInt_e@3
$LN78@LoadInt_e@3:
  001e9	c6 45 f2 eb	 mov	 BYTE PTR __k$[ebp+18], -21 ; ffffffebH
  001ed	eb 63		 jmp	 SHORT $LN1@LoadInt_e@3
$LN79@LoadInt_e@3:
  001ef	88 4d f1	 mov	 BYTE PTR __k$[ebp+17], cl
  001f2	eb 5e		 jmp	 SHORT $LN1@LoadInt_e@3
$LN80@LoadInt_e@3:
  001f4	c6 45 f0 ed	 mov	 BYTE PTR __k$[ebp+16], -19 ; ffffffedH
  001f8	eb 58		 jmp	 SHORT $LN1@LoadInt_e@3
$LN81@LoadInt_e@3:
  001fa	88 5d ef	 mov	 BYTE PTR __k$[ebp+15], bl
  001fd	eb 53		 jmp	 SHORT $LN1@LoadInt_e@3
$LN82@LoadInt_e@3:
  001ff	c6 45 ee eb	 mov	 BYTE PTR __k$[ebp+14], -21 ; ffffffebH
  00203	eb 4d		 jmp	 SHORT $LN1@LoadInt_e@3
$LN83@LoadInt_e@3:
  00205	88 4d ed	 mov	 BYTE PTR __k$[ebp+13], cl
  00208	eb 48		 jmp	 SHORT $LN1@LoadInt_e@3
$LN84@LoadInt_e@3:
  0020a	c6 45 ec ed	 mov	 BYTE PTR __k$[ebp+12], -19 ; ffffffedH
  0020e	eb 42		 jmp	 SHORT $LN1@LoadInt_e@3
$LN85@LoadInt_e@3:
  00210	88 5d eb	 mov	 BYTE PTR __k$[ebp+11], bl
  00213	eb 3d		 jmp	 SHORT $LN1@LoadInt_e@3
$LN86@LoadInt_e@3:
  00215	c6 45 ea eb	 mov	 BYTE PTR __k$[ebp+10], -21 ; ffffffebH
  00219	eb 37		 jmp	 SHORT $LN1@LoadInt_e@3
$LN87@LoadInt_e@3:
  0021b	88 4d e9	 mov	 BYTE PTR __k$[ebp+9], cl
  0021e	eb 32		 jmp	 SHORT $LN1@LoadInt_e@3
$LN88@LoadInt_e@3:
  00220	c6 45 e8 ed	 mov	 BYTE PTR __k$[ebp+8], -19 ; ffffffedH
  00224	eb 2c		 jmp	 SHORT $LN1@LoadInt_e@3
$LN89@LoadInt_e@3:
  00226	88 5d e7	 mov	 BYTE PTR __k$[ebp+7], bl
  00229	eb 27		 jmp	 SHORT $LN1@LoadInt_e@3
$LN90@LoadInt_e@3:
  0022b	c6 45 e6 eb	 mov	 BYTE PTR __k$[ebp+6], -21 ; ffffffebH
  0022f	eb 21		 jmp	 SHORT $LN1@LoadInt_e@3
$LN91@LoadInt_e@3:
  00231	88 4d e5	 mov	 BYTE PTR __k$[ebp+5], cl
  00234	eb 1c		 jmp	 SHORT $LN1@LoadInt_e@3
$LN92@LoadInt_e@3:
  00236	c6 45 e4 ed	 mov	 BYTE PTR __k$[ebp+4], -19 ; ffffffedH
  0023a	eb 16		 jmp	 SHORT $LN1@LoadInt_e@3
$LN93@LoadInt_e@3:
  0023c	c6 45 e3 ea	 mov	 BYTE PTR __k$[ebp+3], -22 ; ffffffeaH
  00240	eb 10		 jmp	 SHORT $LN1@LoadInt_e@3
$LN94@LoadInt_e@3:
  00242	c6 45 e2 eb	 mov	 BYTE PTR __k$[ebp+2], -21 ; ffffffebH
  00246	eb 0a		 jmp	 SHORT $LN1@LoadInt_e@3
$LN95@LoadInt_e@3:
  00248	c6 45 e1 ec	 mov	 BYTE PTR __k$[ebp+1], -20 ; ffffffecH
  0024c	eb 04		 jmp	 SHORT $LN1@LoadInt_e@3
$LN96@LoadInt_e@3:
  0024e	c6 45 e0 ed	 mov	 BYTE PTR __k$[ebp], -19	; ffffffedH
$LN1@LoadInt_e@3:
  00252	6a 05		 push	 5
  00254	8d 45 e0	 lea	 eax, DWORD PTR __k$[ebp]
  00257	c6 45 f6 00	 mov	 BYTE PTR __k$[ebp+22], 0
  0025b	5a		 pop	 edx
$LL104@LoadInt_e@3:
  0025c	81 30 ed ec eb
	ea		 xor	 DWORD PTR [eax], -353637139 ; eaebecedH
  00262	83 c0 04	 add	 eax, 4
  00265	4a		 dec	 edx
  00266	75 f4		 jne	 SHORT $LL104@LoadInt_e@3
  00268	6a 14		 push	 20			; 00000014H
  0026a	58		 pop	 eax
$LL101@LoadInt_e@3:
  0026b	8b c8		 mov	 ecx, eax
  0026d	81 e1 03 00 00
	80		 and	 ecx, -2147483645	; 80000003H
  00273	79 05		 jns	 SHORT $LN111@LoadInt_e@3
  00275	49		 dec	 ecx
  00276	83 c9 fc	 or	 ecx, -4			; fffffffcH
  00279	41		 inc	 ecx
$LN111@LoadInt_e@3:
  0027a	b2 ed		 mov	 dl, -19			; ffffffedH
  0027c	2a d1		 sub	 dl, cl
  0027e	30 54 05 e0	 xor	 BYTE PTR __k$[ebp+eax], dl
  00282	40		 inc	 eax
  00283	83 f8 16	 cmp	 eax, 22			; 00000016H
  00286	7c e3		 jl	 SHORT $LL101@LoadInt_e@3

; 120  : 		return LoadInt(_k, i);

  00288	ff 75 0c	 push	 DWORD PTR _i$[ebp]
  0028b	8d 45 e0	 lea	 eax, DWORD PTR __k$[ebp]
  0028e	50		 push	 eax
  0028f	8b ce		 mov	 ecx, esi
  00291	ff 15 00 00 00
	00		 call	 DWORD PTR __imp_?LoadInt@ioINILoader@@QAEHPBDH@Z

; 121  : 	}

  00297	8b 4d fc	 mov	 ecx, DWORD PTR __$ArrayPad$[ebp]
  0029a	5e		 pop	 esi
  0029b	33 cd		 xor	 ecx, ebp
  0029d	5b		 pop	 ebx
  0029e	e8 00 00 00 00	 call	 @__security_check_cookie@4
  002a3	c9		 leave
  002a4	c2 08 00	 ret	 8
??$LoadInt_e@$0BH@@ioINILoader@@QAEHAAY0BH@$$CBDH@Z ENDP ; ioINILoader::LoadInt_e<23>
_TEXT	ENDS
PUBLIC	__$ArrayPad$
PUBLIC	??$LoadAttackAttribute_e@$0BD@@@YAXAAY0BD@$$CBDAAUAttackAttribute@@AAVioINILoader@@@Z ; LoadAttackAttribute_e<19>
EXTRN	?LoadAttackAttribute@@YAXPBDAAUAttackAttribute@@AAVioINILoader@@@Z:PROC ; LoadAttackAttribute
; Function compile flags: /Ogsp
; File d:\lost saga for developer\youtube\tutorial\source\src\lsclient\ioattackattribute.h
;	COMDAT ??$LoadAttackAttribute_e@$0BD@@@YAXAAY0BD@$$CBDAAUAttackAttribute@@AAVioINILoader@@@Z
_TEXT	SEGMENT
_szEncAttack$ = -28					; size = 19
__$ArrayPad$ = -4					; size = 4
_szAttack$ = 8						; size = 4
_rkAttribute$ = 12					; size = 4
_rkLoader$ = 16						; size = 4
??$LoadAttackAttribute_e@$0BD@@@YAXAAY0BD@$$CBDAAUAttackAttribute@@AAVioINILoader@@@Z PROC ; LoadAttackAttribute_e<19>, COMDAT

; 131  : {

  00000	55		 push	 ebp
  00001	8b ec		 mov	 ebp, esp
  00003	83 ec 1c	 sub	 esp, 28			; 0000001cH
  00006	a1 00 00 00 00	 mov	 eax, DWORD PTR ___security_cookie
  0000b	33 c5		 xor	 eax, ebp
  0000d	89 45 fc	 mov	 DWORD PTR __$ArrayPad$[ebp], eax
  00010	8b 45 08	 mov	 eax, DWORD PTR _szAttack$[ebp]

; 132  : 	_ENCSTR(szAttack, szEncAttack);

  00013	8a 08		 mov	 cl, BYTE PTR [eax]
  00015	53		 push	 ebx
  00016	56		 push	 esi
  00017	8b 75 0c	 mov	 esi, DWORD PTR _rkAttribute$[ebp]
  0001a	57		 push	 edi
  0001b	8b 7d 10	 mov	 edi, DWORD PTR _rkLoader$[ebp]
  0001e	84 c9		 test	 cl, cl
  00020	0f 84 c8 01 00
	00		 je	 $LN96@LoadAttack
  00026	80 f1 ed	 xor	 cl, -19			; ffffffedH
  00029	88 4d e4	 mov	 BYTE PTR _szEncAttack$[ebp], cl
  0002c	8a 48 01	 mov	 cl, BYTE PTR [eax+1]
  0002f	84 c9		 test	 cl, cl
  00031	0f 84 b1 01 00
	00		 je	 $LN95@LoadAttack
  00037	b3 ec		 mov	 bl, -20			; ffffffecH
  00039	32 cb		 xor	 cl, bl
  0003b	88 4d e5	 mov	 BYTE PTR _szEncAttack$[ebp+1], cl
  0003e	8a 48 02	 mov	 cl, BYTE PTR [eax+2]
  00041	84 c9		 test	 cl, cl
  00043	0f 84 99 01 00
	00		 je	 $LN94@LoadAttack
  00049	80 f1 eb	 xor	 cl, -21			; ffffffebH
  0004c	88 4d e6	 mov	 BYTE PTR _szEncAttack$[ebp+2], cl
  0004f	8a 48 03	 mov	 cl, BYTE PTR [eax+3]
  00052	84 c9		 test	 cl, cl
  00054	0f 84 82 01 00
	00		 je	 $LN93@LoadAttack
  0005a	b2 ea		 mov	 dl, -22			; ffffffeaH
  0005c	32 ca		 xor	 cl, dl
  0005e	88 4d e7	 mov	 BYTE PTR _szEncAttack$[ebp+3], cl
  00061	8a 48 04	 mov	 cl, BYTE PTR [eax+4]
  00064	84 c9		 test	 cl, cl
  00066	0f 84 6a 01 00
	00		 je	 $LN92@LoadAttack
  0006c	80 f1 ed	 xor	 cl, -19			; ffffffedH
  0006f	88 4d e8	 mov	 BYTE PTR _szEncAttack$[ebp+4], cl
  00072	8a 48 05	 mov	 cl, BYTE PTR [eax+5]
  00075	84 c9		 test	 cl, cl
  00077	0f 84 54 01 00
	00		 je	 $LN91@LoadAttack
  0007d	32 cb		 xor	 cl, bl
  0007f	88 4d e9	 mov	 BYTE PTR _szEncAttack$[ebp+5], cl
  00082	8a 48 06	 mov	 cl, BYTE PTR [eax+6]
  00085	84 c9		 test	 cl, cl
  00087	0f 84 3e 01 00
	00		 je	 $LN90@LoadAttack
  0008d	80 f1 eb	 xor	 cl, -21			; ffffffebH
  00090	88 4d ea	 mov	 BYTE PTR _szEncAttack$[ebp+6], cl
  00093	8a 48 07	 mov	 cl, BYTE PTR [eax+7]
  00096	84 c9		 test	 cl, cl
  00098	0f 84 28 01 00
	00		 je	 $LN89@LoadAttack
  0009e	32 ca		 xor	 cl, dl
  000a0	88 4d eb	 mov	 BYTE PTR _szEncAttack$[ebp+7], cl
  000a3	8a 48 08	 mov	 cl, BYTE PTR [eax+8]
  000a6	84 c9		 test	 cl, cl
  000a8	0f 84 12 01 00
	00		 je	 $LN88@LoadAttack
  000ae	80 f1 ed	 xor	 cl, -19			; ffffffedH
  000b1	88 4d ec	 mov	 BYTE PTR _szEncAttack$[ebp+8], cl
  000b4	8a 48 09	 mov	 cl, BYTE PTR [eax+9]
  000b7	84 c9		 test	 cl, cl
  000b9	0f 84 fc 00 00
	00		 je	 $LN87@LoadAttack
  000bf	32 cb		 xor	 cl, bl
  000c1	88 4d ed	 mov	 BYTE PTR _szEncAttack$[ebp+9], cl
  000c4	8a 48 0a	 mov	 cl, BYTE PTR [eax+10]
  000c7	84 c9		 test	 cl, cl
  000c9	0f 84 e6 00 00
	00		 je	 $LN86@LoadAttack
  000cf	80 f1 eb	 xor	 cl, -21			; ffffffebH
  000d2	88 4d ee	 mov	 BYTE PTR _szEncAttack$[ebp+10], cl
  000d5	8a 48 0b	 mov	 cl, BYTE PTR [eax+11]
  000d8	84 c9		 test	 cl, cl
  000da	0f 84 d0 00 00
	00		 je	 $LN85@LoadAttack
  000e0	32 ca		 xor	 cl, dl
  000e2	88 4d ef	 mov	 BYTE PTR _szEncAttack$[ebp+11], cl
  000e5	8a 48 0c	 mov	 cl, BYTE PTR [eax+12]
  000e8	84 c9		 test	 cl, cl
  000ea	0f 84 ba 00 00
	00		 je	 $LN84@LoadAttack
  000f0	80 f1 ed	 xor	 cl, -19			; ffffffedH
  000f3	88 4d f0	 mov	 BYTE PTR _szEncAttack$[ebp+12], cl
  000f6	8a 48 0d	 mov	 cl, BYTE PTR [eax+13]
  000f9	84 c9		 test	 cl, cl
  000fb	0f 84 a4 00 00
	00		 je	 $LN83@LoadAttack
  00101	32 cb		 xor	 cl, bl
  00103	88 4d f1	 mov	 BYTE PTR _szEncAttack$[ebp+13], cl
  00106	8a 48 0e	 mov	 cl, BYTE PTR [eax+14]
  00109	84 c9		 test	 cl, cl
  0010b	0f 84 8e 00 00
	00		 je	 $LN82@LoadAttack
  00111	80 f1 eb	 xor	 cl, -21			; ffffffebH
  00114	88 4d f2	 mov	 BYTE PTR _szEncAttack$[ebp+14], cl
  00117	8a 48 0f	 mov	 cl, BYTE PTR [eax+15]
  0011a	84 c9		 test	 cl, cl
  0011c	74 7c		 je	 SHORT $LN81@LoadAttack
  0011e	32 ca		 xor	 cl, dl
  00120	88 4d f3	 mov	 BYTE PTR _szEncAttack$[ebp+15], cl
  00123	8a 48 10	 mov	 cl, BYTE PTR [eax+16]
  00126	84 c9		 test	 cl, cl
  00128	74 6a		 je	 SHORT $LN80@LoadAttack
  0012a	80 f1 ed	 xor	 cl, -19			; ffffffedH
  0012d	88 4d f4	 mov	 BYTE PTR _szEncAttack$[ebp+16], cl
  00130	8a 48 11	 mov	 cl, BYTE PTR [eax+17]
  00133	84 c9		 test	 cl, cl
  00135	74 58		 je	 SHORT $LN79@LoadAttack
  00137	32 cb		 xor	 cl, bl
  00139	80 78 12 00	 cmp	 BYTE PTR [eax+18], 0
  0013d	88 4d f5	 mov	 BYTE PTR _szEncAttack$[ebp+17], cl
  00140	0f 84 ac 00 00
	00		 je	 $LN1@LoadAttack
  00146	8a 48 13	 mov	 cl, BYTE PTR [eax+19]
  00149	84 c9		 test	 cl, cl
  0014b	74 3d		 je	 SHORT $LN77@LoadAttack
  0014d	32 ca		 xor	 cl, dl
  0014f	88 4d f7	 mov	 BYTE PTR _szEncAttack$[ebp+19], cl
  00152	8a 48 14	 mov	 cl, BYTE PTR [eax+20]
  00155	84 c9		 test	 cl, cl
  00157	74 2b		 je	 SHORT $LN76@LoadAttack
  00159	80 f1 ed	 xor	 cl, -19			; ffffffedH
  0015c	88 4d f8	 mov	 BYTE PTR _szEncAttack$[ebp+20], cl
  0015f	8a 48 15	 mov	 cl, BYTE PTR [eax+21]
  00162	84 c9		 test	 cl, cl
  00164	74 19		 je	 SHORT $LN75@LoadAttack
  00166	8a 40 16	 mov	 al, BYTE PTR [eax+22]
  00169	32 cb		 xor	 cl, bl
  0016b	88 4d f9	 mov	 BYTE PTR _szEncAttack$[ebp+21], cl
  0016e	84 c0		 test	 al, al
  00170	74 07		 je	 SHORT $LN74@LoadAttack
  00172	34 eb		 xor	 al, -21			; ffffffebH
  00174	88 45 fa	 mov	 BYTE PTR _szEncAttack$[ebp+22], al
  00177	eb 79		 jmp	 SHORT $LN1@LoadAttack
$LN74@LoadAttack:
  00179	c6 45 fa eb	 mov	 BYTE PTR _szEncAttack$[ebp+22], -21 ; ffffffebH
  0017d	eb 73		 jmp	 SHORT $LN1@LoadAttack
$LN75@LoadAttack:
  0017f	88 5d f9	 mov	 BYTE PTR _szEncAttack$[ebp+21], bl
  00182	eb 6e		 jmp	 SHORT $LN1@LoadAttack
$LN76@LoadAttack:
  00184	c6 45 f8 ed	 mov	 BYTE PTR _szEncAttack$[ebp+20], -19 ; ffffffedH
  00188	eb 68		 jmp	 SHORT $LN1@LoadAttack
$LN77@LoadAttack:
  0018a	88 55 f7	 mov	 BYTE PTR _szEncAttack$[ebp+19], dl
  0018d	eb 63		 jmp	 SHORT $LN1@LoadAttack
$LN79@LoadAttack:
  0018f	88 5d f5	 mov	 BYTE PTR _szEncAttack$[ebp+17], bl
  00192	eb 5e		 jmp	 SHORT $LN1@LoadAttack
$LN80@LoadAttack:
  00194	c6 45 f4 ed	 mov	 BYTE PTR _szEncAttack$[ebp+16], -19 ; ffffffedH
  00198	eb 58		 jmp	 SHORT $LN1@LoadAttack
$LN81@LoadAttack:
  0019a	88 55 f3	 mov	 BYTE PTR _szEncAttack$[ebp+15], dl
  0019d	eb 53		 jmp	 SHORT $LN1@LoadAttack
$LN82@LoadAttack:
  0019f	c6 45 f2 eb	 mov	 BYTE PTR _szEncAttack$[ebp+14], -21 ; ffffffebH
  001a3	eb 4d		 jmp	 SHORT $LN1@LoadAttack
$LN83@LoadAttack:
  001a5	88 5d f1	 mov	 BYTE PTR _szEncAttack$[ebp+13], bl
  001a8	eb 48		 jmp	 SHORT $LN1@LoadAttack
$LN84@LoadAttack:
  001aa	c6 45 f0 ed	 mov	 BYTE PTR _szEncAttack$[ebp+12], -19 ; ffffffedH
  001ae	eb 42		 jmp	 SHORT $LN1@LoadAttack
$LN85@LoadAttack:
  001b0	88 55 ef	 mov	 BYTE PTR _szEncAttack$[ebp+11], dl
  001b3	eb 3d		 jmp	 SHORT $LN1@LoadAttack
$LN86@LoadAttack:
  001b5	c6 45 ee eb	 mov	 BYTE PTR _szEncAttack$[ebp+10], -21 ; ffffffebH
  001b9	eb 37		 jmp	 SHORT $LN1@LoadAttack
$LN87@LoadAttack:
  001bb	88 5d ed	 mov	 BYTE PTR _szEncAttack$[ebp+9], bl
  001be	eb 32		 jmp	 SHORT $LN1@LoadAttack
$LN88@LoadAttack:
  001c0	c6 45 ec ed	 mov	 BYTE PTR _szEncAttack$[ebp+8], -19 ; ffffffedH
  001c4	eb 2c		 jmp	 SHORT $LN1@LoadAttack
$LN89@LoadAttack:
  001c6	88 55 eb	 mov	 BYTE PTR _szEncAttack$[ebp+7], dl
  001c9	eb 27		 jmp	 SHORT $LN1@LoadAttack
$LN90@LoadAttack:
  001cb	c6 45 ea eb	 mov	 BYTE PTR _szEncAttack$[ebp+6], -21 ; ffffffebH
  001cf	eb 21		 jmp	 SHORT $LN1@LoadAttack
$LN91@LoadAttack:
  001d1	88 5d e9	 mov	 BYTE PTR _szEncAttack$[ebp+5], bl
  001d4	eb 1c		 jmp	 SHORT $LN1@LoadAttack
$LN92@LoadAttack:
  001d6	c6 45 e8 ed	 mov	 BYTE PTR _szEncAttack$[ebp+4], -19 ; ffffffedH
  001da	eb 16		 jmp	 SHORT $LN1@LoadAttack
$LN93@LoadAttack:
  001dc	c6 45 e7 ea	 mov	 BYTE PTR _szEncAttack$[ebp+3], -22 ; ffffffeaH
  001e0	eb 10		 jmp	 SHORT $LN1@LoadAttack
$LN94@LoadAttack:
  001e2	c6 45 e6 eb	 mov	 BYTE PTR _szEncAttack$[ebp+2], -21 ; ffffffebH
  001e6	eb 0a		 jmp	 SHORT $LN1@LoadAttack
$LN95@LoadAttack:
  001e8	c6 45 e5 ec	 mov	 BYTE PTR _szEncAttack$[ebp+1], -20 ; ffffffecH
  001ec	eb 04		 jmp	 SHORT $LN1@LoadAttack
$LN96@LoadAttack:
  001ee	c6 45 e4 ed	 mov	 BYTE PTR _szEncAttack$[ebp], -19 ; ffffffedH
$LN1@LoadAttack:
  001f2	6a 04		 push	 4
  001f4	8d 45 e4	 lea	 eax, DWORD PTR _szEncAttack$[ebp]
  001f7	c6 45 f6 00	 mov	 BYTE PTR _szEncAttack$[ebp+18], 0
  001fb	59		 pop	 ecx
$LL104@LoadAttack:
  001fc	81 30 ed ec eb
	ea		 xor	 DWORD PTR [eax], -353637139 ; eaebecedH
  00202	83 c0 04	 add	 eax, 4
  00205	49		 dec	 ecx
  00206	75 f4		 jne	 SHORT $LL104@LoadAttack
  00208	6a 10		 push	 16			; 00000010H
  0020a	58		 pop	 eax
$LL101@LoadAttack:
  0020b	8b c8		 mov	 ecx, eax
  0020d	81 e1 03 00 00
	80		 and	 ecx, -2147483645	; 80000003H
  00213	79 05		 jns	 SHORT $LN111@LoadAttack
  00215	49		 dec	 ecx
  00216	83 c9 fc	 or	 ecx, -4			; fffffffcH
  00219	41		 inc	 ecx
$LN111@LoadAttack:
  0021a	b2 ed		 mov	 dl, -19			; ffffffedH
  0021c	2a d1		 sub	 dl, cl
  0021e	30 54 05 e4	 xor	 BYTE PTR _szEncAttack$[ebp+eax], dl
  00222	40		 inc	 eax
  00223	83 f8 12	 cmp	 eax, 18			; 00000012H
  00226	7c e3		 jl	 SHORT $LL101@LoadAttack

; 133  : 	LoadAttackAttribute(szEncAttack, rkAttribute, rkLoader);

  00228	57		 push	 edi
  00229	8d 45 e4	 lea	 eax, DWORD PTR _szEncAttack$[ebp]
  0022c	56		 push	 esi
  0022d	50		 push	 eax
  0022e	e8 00 00 00 00	 call	 ?LoadAttackAttribute@@YAXPBDAAUAttackAttribute@@AAVioINILoader@@@Z ; LoadAttackAttribute

; 134  : }

  00233	8b 4d fc	 mov	 ecx, DWORD PTR __$ArrayPad$[ebp]
  00236	83 c4 0c	 add	 esp, 12			; 0000000cH
  00239	5f		 pop	 edi
  0023a	5e		 pop	 esi
  0023b	33 cd		 xor	 ecx, ebp
  0023d	5b		 pop	 ebx
  0023e	e8 00 00 00 00	 call	 @__security_check_cookie@4
  00243	c9		 leave
  00244	c3		 ret	 0
??$LoadAttackAttribute_e@$0BD@@@YAXAAY0BD@$$CBDAAUAttackAttribute@@AAVioINILoader@@@Z ENDP ; LoadAttackAttribute_e<19>
_TEXT	ENDS
PUBLIC	??$GetAnimationEventTime_e@$0L@@ioEntityGroup@@QAEMHAAY0L@$$CBD@Z ; ioEntityGroup::GetAnimationEventTime_e<11>
EXTRN	__imp_?GetAnimationEventTime@ioEntityGroup@@QAEMHABVioHashString@@@Z:PROC
EXTRN	__imp_??0ioHashString@@QAE@PBD@Z:PROC
EXTRN	__EH_epilog3_GS:PROC
EXTRN	__EH_prolog3_GS:PROC
;	COMDAT xdata$x
; File d:\lost saga for developer\youtube\tutorial\source\src\lsclient\stringprotect.h
xdata$x	SEGMENT
__unwindtable$??$GetAnimationEventTime_e@$0L@@ioEntityGroup@@QAEMHAAY0L@$$CBD@Z DD 0ffffffffH
	DD	FLAT:__unwindfunclet$??$GetAnimationEventTime_e@$0L@@ioEntityGroup@@QAEMHAAY0L@$$CBD@Z$0
__ehfuncinfo$??$GetAnimationEventTime_e@$0L@@ioEntityGroup@@QAEMHAAY0L@$$CBD@Z DD 019930522H
	DD	01H
	DD	FLAT:__unwindtable$??$GetAnimationEventTime_e@$0L@@ioEntityGroup@@QAEMHAAY0L@$$CBD@Z
	DD	2 DUP(00H)
	DD	2 DUP(00H)
	DD	00H
	DD	01H
; Function compile flags: /Ogsp
; File d:\lost saga for developer\youtube\tutorial\source\src\io3dengine\ioentitygroup.h
xdata$x	ENDS
;	COMDAT ??$GetAnimationEventTime_e@$0L@@ioEntityGroup@@QAEMHAAY0L@$$CBD@Z
_TEXT	SEGMENT
$T606966 = -52						; size = 16
$T606965 = -36						; size = 4
_szEncEventType$ = -32					; size = 11
__$EHRec$ = -12						; size = 12
_id$ = 8						; size = 4
_szEventType$ = 12					; size = 4
??$GetAnimationEventTime_e@$0L@@ioEntityGroup@@QAEMHAAY0L@$$CBD@Z PROC ; ioEntityGroup::GetAnimationEventTime_e<11>, COMDAT
; _this$ = ecx

; 414  : 	{

  00000	6a 28		 push	 40			; 00000028H
  00002	b8 00 00 00 00	 mov	 eax, __ehhandler$??$GetAnimationEventTime_e@$0L@@ioEntityGroup@@QAEMHAAY0L@$$CBD@Z
  00007	e8 00 00 00 00	 call	 __EH_prolog3_GS
  0000c	8b 45 0c	 mov	 eax, DWORD PTR _szEventType$[ebp]
  0000f	8b f1		 mov	 esi, ecx

; 415  : 		_ENCSTR(szEventType, szEncEventType);

  00011	8a 08		 mov	 cl, BYTE PTR [eax]
  00013	84 c9		 test	 cl, cl
  00015	0f 84 1b 01 00
	00		 je	 $LN96@GetAnimati
  0001b	b2 ed		 mov	 dl, -19			; ffffffedH
  0001d	32 ca		 xor	 cl, dl
  0001f	88 4d e0	 mov	 BYTE PTR _szEncEventType$[ebp], cl
  00022	8a 48 01	 mov	 cl, BYTE PTR [eax+1]
  00025	84 c9		 test	 cl, cl
  00027	0f 84 03 01 00
	00		 je	 $LN95@GetAnimati
  0002d	80 f1 ec	 xor	 cl, -20			; ffffffecH
  00030	88 4d e1	 mov	 BYTE PTR _szEncEventType$[ebp+1], cl
  00033	8a 48 02	 mov	 cl, BYTE PTR [eax+2]
  00036	84 c9		 test	 cl, cl
  00038	0f 84 ec 00 00
	00		 je	 $LN94@GetAnimati
  0003e	80 f1 eb	 xor	 cl, -21			; ffffffebH
  00041	88 4d e2	 mov	 BYTE PTR _szEncEventType$[ebp+2], cl
  00044	8a 48 03	 mov	 cl, BYTE PTR [eax+3]
  00047	84 c9		 test	 cl, cl
  00049	0f 84 d5 00 00
	00		 je	 $LN93@GetAnimati
  0004f	80 f1 ea	 xor	 cl, -22			; ffffffeaH
  00052	88 4d e3	 mov	 BYTE PTR _szEncEventType$[ebp+3], cl
  00055	8a 48 04	 mov	 cl, BYTE PTR [eax+4]
  00058	84 c9		 test	 cl, cl
  0005a	0f 84 bf 00 00
	00		 je	 $LN92@GetAnimati
  00060	32 ca		 xor	 cl, dl
  00062	88 4d e4	 mov	 BYTE PTR _szEncEventType$[ebp+4], cl
  00065	8a 48 05	 mov	 cl, BYTE PTR [eax+5]
  00068	84 c9		 test	 cl, cl
  0006a	0f 84 a9 00 00
	00		 je	 $LN91@GetAnimati
  00070	80 f1 ec	 xor	 cl, -20			; ffffffecH
  00073	88 4d e5	 mov	 BYTE PTR _szEncEventType$[ebp+5], cl
  00076	8a 48 06	 mov	 cl, BYTE PTR [eax+6]
  00079	84 c9		 test	 cl, cl
  0007b	0f 84 92 00 00
	00		 je	 $LN90@GetAnimati
  00081	80 f1 eb	 xor	 cl, -21			; ffffffebH
  00084	88 4d e6	 mov	 BYTE PTR _szEncEventType$[ebp+6], cl
  00087	8a 48 07	 mov	 cl, BYTE PTR [eax+7]
  0008a	84 c9		 test	 cl, cl
  0008c	74 7f		 je	 SHORT $LN89@GetAnimati
  0008e	80 f1 ea	 xor	 cl, -22			; ffffffeaH
  00091	88 4d e7	 mov	 BYTE PTR _szEncEventType$[ebp+7], cl
  00094	8a 48 08	 mov	 cl, BYTE PTR [eax+8]
  00097	84 c9		 test	 cl, cl
  00099	74 6d		 je	 SHORT $LN88@GetAnimati
  0009b	32 ca		 xor	 cl, dl
  0009d	88 4d e8	 mov	 BYTE PTR _szEncEventType$[ebp+8], cl
  000a0	8a 48 09	 mov	 cl, BYTE PTR [eax+9]
  000a3	84 c9		 test	 cl, cl
  000a5	74 5b		 je	 SHORT $LN87@GetAnimati
  000a7	80 f1 ec	 xor	 cl, -20			; ffffffecH
  000aa	80 78 0a 00	 cmp	 BYTE PTR [eax+10], 0
  000ae	88 4d e9	 mov	 BYTE PTR _szEncEventType$[ebp+9], cl
  000b1	0f 84 83 00 00
	00		 je	 $LN1@GetAnimati
  000b7	8a 48 0b	 mov	 cl, BYTE PTR [eax+11]
  000ba	84 c9		 test	 cl, cl
  000bc	74 3e		 je	 SHORT $LN85@GetAnimati
  000be	80 f1 ea	 xor	 cl, -22			; ffffffeaH
  000c1	88 4d eb	 mov	 BYTE PTR _szEncEventType$[ebp+11], cl
  000c4	8a 48 0c	 mov	 cl, BYTE PTR [eax+12]
  000c7	84 c9		 test	 cl, cl
  000c9	74 2c		 je	 SHORT $LN84@GetAnimati
  000cb	32 ca		 xor	 cl, dl
  000cd	88 4d ec	 mov	 BYTE PTR _szEncEventType$[ebp+12], cl
  000d0	8a 48 0d	 mov	 cl, BYTE PTR [eax+13]
  000d3	84 c9		 test	 cl, cl
  000d5	74 1a		 je	 SHORT $LN83@GetAnimati
  000d7	8a 40 0e	 mov	 al, BYTE PTR [eax+14]
  000da	80 f1 ec	 xor	 cl, -20			; ffffffecH
  000dd	88 4d ed	 mov	 BYTE PTR _szEncEventType$[ebp+13], cl
  000e0	84 c0		 test	 al, al
  000e2	74 07		 je	 SHORT $LN82@GetAnimati
  000e4	34 eb		 xor	 al, -21			; ffffffebH
  000e6	88 45 ee	 mov	 BYTE PTR _szEncEventType$[ebp+14], al
  000e9	eb 4f		 jmp	 SHORT $LN1@GetAnimati
$LN82@GetAnimati:
  000eb	c6 45 ee eb	 mov	 BYTE PTR _szEncEventType$[ebp+14], -21 ; ffffffebH
  000ef	eb 49		 jmp	 SHORT $LN1@GetAnimati
$LN83@GetAnimati:
  000f1	c6 45 ed ec	 mov	 BYTE PTR _szEncEventType$[ebp+13], -20 ; ffffffecH
  000f5	eb 43		 jmp	 SHORT $LN1@GetAnimati
$LN84@GetAnimati:
  000f7	88 55 ec	 mov	 BYTE PTR _szEncEventType$[ebp+12], dl
  000fa	eb 3e		 jmp	 SHORT $LN1@GetAnimati
$LN85@GetAnimati:
  000fc	c6 45 eb ea	 mov	 BYTE PTR _szEncEventType$[ebp+11], -22 ; ffffffeaH
  00100	eb 38		 jmp	 SHORT $LN1@GetAnimati
$LN87@GetAnimati:
  00102	c6 45 e9 ec	 mov	 BYTE PTR _szEncEventType$[ebp+9], -20 ; ffffffecH
  00106	eb 32		 jmp	 SHORT $LN1@GetAnimati
$LN88@GetAnimati:
  00108	88 55 e8	 mov	 BYTE PTR _szEncEventType$[ebp+8], dl
  0010b	eb 2d		 jmp	 SHORT $LN1@GetAnimati
$LN89@GetAnimati:
  0010d	c6 45 e7 ea	 mov	 BYTE PTR _szEncEventType$[ebp+7], -22 ; ffffffeaH
  00111	eb 27		 jmp	 SHORT $LN1@GetAnimati
$LN90@GetAnimati:
  00113	c6 45 e6 eb	 mov	 BYTE PTR _szEncEventType$[ebp+6], -21 ; ffffffebH
  00117	eb 21		 jmp	 SHORT $LN1@GetAnimati
$LN91@GetAnimati:
  00119	c6 45 e5 ec	 mov	 BYTE PTR _szEncEventType$[ebp+5], -20 ; ffffffecH
  0011d	eb 1b		 jmp	 SHORT $LN1@GetAnimati
$LN92@GetAnimati:
  0011f	88 55 e4	 mov	 BYTE PTR _szEncEventType$[ebp+4], dl
  00122	eb 16		 jmp	 SHORT $LN1@GetAnimati
$LN93@GetAnimati:
  00124	c6 45 e3 ea	 mov	 BYTE PTR _szEncEventType$[ebp+3], -22 ; ffffffeaH
  00128	eb 10		 jmp	 SHORT $LN1@GetAnimati
$LN94@GetAnimati:
  0012a	c6 45 e2 eb	 mov	 BYTE PTR _szEncEventType$[ebp+2], -21 ; ffffffebH
  0012e	eb 0a		 jmp	 SHORT $LN1@GetAnimati
$LN95@GetAnimati:
  00130	c6 45 e1 ec	 mov	 BYTE PTR _szEncEventType$[ebp+1], -20 ; ffffffecH
  00134	eb 04		 jmp	 SHORT $LN1@GetAnimati
$LN96@GetAnimati:
  00136	c6 45 e0 ed	 mov	 BYTE PTR _szEncEventType$[ebp], -19 ; ffffffedH
$LN1@GetAnimati:
  0013a	6a 02		 push	 2
  0013c	8d 45 e0	 lea	 eax, DWORD PTR _szEncEventType$[ebp]
  0013f	c6 45 ea 00	 mov	 BYTE PTR _szEncEventType$[ebp+10], 0
  00143	59		 pop	 ecx
$LL105@GetAnimati:
  00144	81 30 ed ec eb
	ea		 xor	 DWORD PTR [eax], -353637139 ; eaebecedH
  0014a	83 c0 04	 add	 eax, 4
  0014d	49		 dec	 ecx
  0014e	75 f4		 jne	 SHORT $LL105@GetAnimati
  00150	6a 08		 push	 8
  00152	58		 pop	 eax
$LL102@GetAnimati:
  00153	8b c8		 mov	 ecx, eax
  00155	81 e1 03 00 00
	80		 and	 ecx, -2147483645	; 80000003H
  0015b	79 05		 jns	 SHORT $LN113@GetAnimati
  0015d	49		 dec	 ecx
  0015e	83 c9 fc	 or	 ecx, -4			; fffffffcH
  00161	41		 inc	 ecx
$LN113@GetAnimati:
  00162	b2 ed		 mov	 dl, -19			; ffffffedH
  00164	2a d1		 sub	 dl, cl
  00166	30 54 05 e0	 xor	 BYTE PTR _szEncEventType$[ebp+eax], dl
  0016a	40		 inc	 eax
  0016b	83 f8 0a	 cmp	 eax, 10			; 0000000aH
  0016e	7c e3		 jl	 SHORT $LL102@GetAnimati

; 416  : 		return GetAnimationEventTime(id, szEncEventType);

  00170	8d 45 e0	 lea	 eax, DWORD PTR _szEncEventType$[ebp]
  00173	50		 push	 eax
  00174	8d 4d cc	 lea	 ecx, DWORD PTR $T606966[ebp]
  00177	ff 15 00 00 00
	00		 call	 DWORD PTR __imp_??0ioHashString@@QAE@PBD@Z
  0017d	83 65 fc 00	 and	 DWORD PTR __$EHRec$[ebp+8], 0
  00181	8d 45 cc	 lea	 eax, DWORD PTR $T606966[ebp]
  00184	50		 push	 eax
  00185	ff 75 08	 push	 DWORD PTR _id$[ebp]
  00188	8b ce		 mov	 ecx, esi
  0018a	ff 15 00 00 00
	00		 call	 DWORD PTR __imp_?GetAnimationEventTime@ioEntityGroup@@QAEMHABVioHashString@@@Z
  00190	d9 5d dc	 fstp	 DWORD PTR $T606965[ebp]
  00193	83 4d fc ff	 or	 DWORD PTR __$EHRec$[ebp+8], -1
  00197	8d 4d cc	 lea	 ecx, DWORD PTR $T606966[ebp]
  0019a	ff 15 00 00 00
	00		 call	 DWORD PTR __imp_??1ioHashString@@QAE@XZ
  001a0	d9 45 dc	 fld	 DWORD PTR $T606965[ebp]

; 417  : 	}

  001a3	e8 00 00 00 00	 call	 __EH_epilog3_GS
  001a8	c2 08 00	 ret	 8
_TEXT	ENDS
;	COMDAT text$x
text$x	SEGMENT
__unwindfunclet$??$GetAnimationEventTime_e@$0L@@ioEntityGroup@@QAEMHAAY0L@$$CBD@Z$0:
  00000	8d 4d cc	 lea	 ecx, DWORD PTR $T606966[ebp]
  00003	ff 25 00 00 00
	00		 jmp	 DWORD PTR __imp_??1ioHashString@@QAE@XZ
__ehhandler$??$GetAnimationEventTime_e@$0L@@ioEntityGroup@@QAEMHAAY0L@$$CBD@Z:
  00009	8b 54 24 08	 mov	 edx, DWORD PTR [esp+8]
  0000d	8d 42 0c	 lea	 eax, DWORD PTR [edx+12]
  00010	8b 4a c8	 mov	 ecx, DWORD PTR [edx-56]
  00013	33 c8		 xor	 ecx, eax
  00015	e8 00 00 00 00	 call	 @__security_check_cookie@4
  0001a	8b 4a fc	 mov	 ecx, DWORD PTR [edx-4]
  0001d	33 c8		 xor	 ecx, eax
  0001f	e8 00 00 00 00	 call	 @__security_check_cookie@4
  00024	b8 00 00 00 00	 mov	 eax, OFFSET __ehfuncinfo$??$GetAnimationEventTime_e@$0L@@ioEntityGroup@@QAEMHAAY0L@$$CBD@Z
  00029	e9 00 00 00 00	 jmp	 ___CxxFrameHandler3
text$x	ENDS
??$GetAnimationEventTime_e@$0L@@ioEntityGroup@@QAEMHAAY0L@$$CBD@Z ENDP ; ioEntityGroup::GetAnimationEventTime_e<11>
PUBLIC	??$GetAnimationEventTimeList_e@$0N@@ioEntityGroup@@QAEHHAAY0N@$$CBDAAV?$list@MV?$allocator@M@std@@@std@@@Z ; ioEntityGroup::GetAnimationEventTimeList_e<13>
EXTRN	__imp_?GetAnimationEventTimeList@ioEntityGroup@@QAEHHABVioHashString@@AAV?$list@MV?$allocator@M@std@@@std@@@Z:PROC
;	COMDAT xdata$x
; File d:\lost saga for developer\youtube\tutorial\source\src\lsclient\stringprotect.h
xdata$x	SEGMENT
__unwindtable$??$GetAnimationEventTimeList_e@$0N@@ioEntityGroup@@QAEHHAAY0N@$$CBDAAV?$list@MV?$allocator@M@std@@@std@@@Z DD 0ffffffffH
	DD	FLAT:__unwindfunclet$??$GetAnimationEventTimeList_e@$0N@@ioEntityGroup@@QAEHHAAY0N@$$CBDAAV?$list@MV?$allocator@M@std@@@std@@@Z$0
__ehfuncinfo$??$GetAnimationEventTimeList_e@$0N@@ioEntityGroup@@QAEHHAAY0N@$$CBDAAV?$list@MV?$allocator@M@std@@@std@@@Z DD 019930522H
	DD	01H
	DD	FLAT:__unwindtable$??$GetAnimationEventTimeList_e@$0N@@ioEntityGroup@@QAEHHAAY0N@$$CBDAAV?$list@MV?$allocator@M@std@@@std@@@Z
	DD	2 DUP(00H)
	DD	2 DUP(00H)
	DD	00H
	DD	01H
; Function compile flags: /Ogsp
; File d:\lost saga for developer\youtube\tutorial\source\src\io3dengine\ioentitygroup.h
xdata$x	ENDS
;	COMDAT ??$GetAnimationEventTimeList_e@$0N@@ioEntityGroup@@QAEHHAAY0N@$$CBDAAV?$list@MV?$allocator@M@std@@@std@@@Z
_TEXT	SEGMENT
$T606999 = -52						; size = 16
_szEncEventType$ = -36					; size = 13
__$EHRec$ = -12						; size = 12
_id$ = 8						; size = 4
_szEventType$ = 12					; size = 4
_vTimeList$ = 16					; size = 4
??$GetAnimationEventTimeList_e@$0N@@ioEntityGroup@@QAEHHAAY0N@$$CBDAAV?$list@MV?$allocator@M@std@@@std@@@Z PROC ; ioEntityGroup::GetAnimationEventTimeList_e<13>, COMDAT
; _this$ = ecx

; 406  : 	{

  00000	6a 28		 push	 40			; 00000028H
  00002	b8 00 00 00 00	 mov	 eax, __ehhandler$??$GetAnimationEventTimeList_e@$0N@@ioEntityGroup@@QAEHHAAY0N@$$CBDAAV?$list@MV?$allocator@M@std@@@std@@@Z
  00007	e8 00 00 00 00	 call	 __EH_prolog3_GS
  0000c	8b 45 0c	 mov	 eax, DWORD PTR _szEventType$[ebp]
  0000f	8b 75 10	 mov	 esi, DWORD PTR _vTimeList$[ebp]
  00012	8b f9		 mov	 edi, ecx

; 407  : 		_ENCSTR(szEventType, szEncEventType);

  00014	8a 08		 mov	 cl, BYTE PTR [eax]
  00016	84 c9		 test	 cl, cl
  00018	0f 84 49 01 00
	00		 je	 $LN96@GetAnimati@2
  0001e	80 f1 ed	 xor	 cl, -19			; ffffffedH
  00021	88 4d dc	 mov	 BYTE PTR _szEncEventType$[ebp], cl
  00024	8a 48 01	 mov	 cl, BYTE PTR [eax+1]
  00027	84 c9		 test	 cl, cl
  00029	0f 84 32 01 00
	00		 je	 $LN95@GetAnimati@2
  0002f	80 f1 ec	 xor	 cl, -20			; ffffffecH
  00032	88 4d dd	 mov	 BYTE PTR _szEncEventType$[ebp+1], cl
  00035	8a 48 02	 mov	 cl, BYTE PTR [eax+2]
  00038	84 c9		 test	 cl, cl
  0003a	0f 84 1b 01 00
	00		 je	 $LN94@GetAnimati@2
  00040	b2 eb		 mov	 dl, -21			; ffffffebH
  00042	32 ca		 xor	 cl, dl
  00044	88 4d de	 mov	 BYTE PTR _szEncEventType$[ebp+2], cl
  00047	8a 48 03	 mov	 cl, BYTE PTR [eax+3]
  0004a	84 c9		 test	 cl, cl
  0004c	0f 84 03 01 00
	00		 je	 $LN93@GetAnimati@2
  00052	80 f1 ea	 xor	 cl, -22			; ffffffeaH
  00055	88 4d df	 mov	 BYTE PTR _szEncEventType$[ebp+3], cl
  00058	8a 48 04	 mov	 cl, BYTE PTR [eax+4]
  0005b	84 c9		 test	 cl, cl
  0005d	0f 84 ec 00 00
	00		 je	 $LN92@GetAnimati@2
  00063	80 f1 ed	 xor	 cl, -19			; ffffffedH
  00066	88 4d e0	 mov	 BYTE PTR _szEncEventType$[ebp+4], cl
  00069	8a 48 05	 mov	 cl, BYTE PTR [eax+5]
  0006c	84 c9		 test	 cl, cl
  0006e	0f 84 d5 00 00
	00		 je	 $LN91@GetAnimati@2
  00074	80 f1 ec	 xor	 cl, -20			; ffffffecH
  00077	88 4d e1	 mov	 BYTE PTR _szEncEventType$[ebp+5], cl
  0007a	8a 48 06	 mov	 cl, BYTE PTR [eax+6]
  0007d	84 c9		 test	 cl, cl
  0007f	0f 84 bf 00 00
	00		 je	 $LN90@GetAnimati@2
  00085	32 ca		 xor	 cl, dl
  00087	88 4d e2	 mov	 BYTE PTR _szEncEventType$[ebp+6], cl
  0008a	8a 48 07	 mov	 cl, BYTE PTR [eax+7]
  0008d	84 c9		 test	 cl, cl
  0008f	0f 84 a9 00 00
	00		 je	 $LN89@GetAnimati@2
  00095	80 f1 ea	 xor	 cl, -22			; ffffffeaH
  00098	88 4d e3	 mov	 BYTE PTR _szEncEventType$[ebp+7], cl
  0009b	8a 48 08	 mov	 cl, BYTE PTR [eax+8]
  0009e	84 c9		 test	 cl, cl
  000a0	0f 84 92 00 00
	00		 je	 $LN88@GetAnimati@2
  000a6	80 f1 ed	 xor	 cl, -19			; ffffffedH
  000a9	88 4d e4	 mov	 BYTE PTR _szEncEventType$[ebp+8], cl
  000ac	8a 48 09	 mov	 cl, BYTE PTR [eax+9]
  000af	84 c9		 test	 cl, cl
  000b1	74 7f		 je	 SHORT $LN87@GetAnimati@2
  000b3	80 f1 ec	 xor	 cl, -20			; ffffffecH
  000b6	88 4d e5	 mov	 BYTE PTR _szEncEventType$[ebp+9], cl
  000b9	8a 48 0a	 mov	 cl, BYTE PTR [eax+10]
  000bc	84 c9		 test	 cl, cl
  000be	74 6d		 je	 SHORT $LN86@GetAnimati@2
  000c0	32 ca		 xor	 cl, dl
  000c2	88 4d e6	 mov	 BYTE PTR _szEncEventType$[ebp+10], cl
  000c5	8a 48 0b	 mov	 cl, BYTE PTR [eax+11]
  000c8	84 c9		 test	 cl, cl
  000ca	74 5b		 je	 SHORT $LN85@GetAnimati@2
  000cc	80 f1 ea	 xor	 cl, -22			; ffffffeaH
  000cf	80 78 0c 00	 cmp	 BYTE PTR [eax+12], 0
  000d3	88 4d e7	 mov	 BYTE PTR _szEncEventType$[ebp+11], cl
  000d6	0f 84 8f 00 00
	00		 je	 $LN1@GetAnimati@2
  000dc	8a 48 0d	 mov	 cl, BYTE PTR [eax+13]
  000df	84 c9		 test	 cl, cl
  000e1	74 3e		 je	 SHORT $LN83@GetAnimati@2
  000e3	80 f1 ec	 xor	 cl, -20			; ffffffecH
  000e6	88 4d e9	 mov	 BYTE PTR _szEncEventType$[ebp+13], cl
  000e9	8a 48 0e	 mov	 cl, BYTE PTR [eax+14]
  000ec	84 c9		 test	 cl, cl
  000ee	74 2c		 je	 SHORT $LN82@GetAnimati@2
  000f0	32 ca		 xor	 cl, dl
  000f2	88 4d ea	 mov	 BYTE PTR _szEncEventType$[ebp+14], cl
  000f5	8a 48 0f	 mov	 cl, BYTE PTR [eax+15]
  000f8	84 c9		 test	 cl, cl
  000fa	74 1a		 je	 SHORT $LN81@GetAnimati@2
  000fc	8a 40 10	 mov	 al, BYTE PTR [eax+16]
  000ff	80 f1 ea	 xor	 cl, -22			; ffffffeaH
  00102	88 4d eb	 mov	 BYTE PTR _szEncEventType$[ebp+15], cl
  00105	84 c0		 test	 al, al
  00107	74 07		 je	 SHORT $LN80@GetAnimati@2
  00109	34 ed		 xor	 al, -19			; ffffffedH
  0010b	88 45 ec	 mov	 BYTE PTR _szEncEventType$[ebp+16], al
  0010e	eb 5b		 jmp	 SHORT $LN1@GetAnimati@2
$LN80@GetAnimati@2:
  00110	c6 45 ec ed	 mov	 BYTE PTR _szEncEventType$[ebp+16], -19 ; ffffffedH
  00114	eb 55		 jmp	 SHORT $LN1@GetAnimati@2
$LN81@GetAnimati@2:
  00116	c6 45 eb ea	 mov	 BYTE PTR _szEncEventType$[ebp+15], -22 ; ffffffeaH
  0011a	eb 4f		 jmp	 SHORT $LN1@GetAnimati@2
$LN82@GetAnimati@2:
  0011c	88 55 ea	 mov	 BYTE PTR _szEncEventType$[ebp+14], dl
  0011f	eb 4a		 jmp	 SHORT $LN1@GetAnimati@2
$LN83@GetAnimati@2:
  00121	c6 45 e9 ec	 mov	 BYTE PTR _szEncEventType$[ebp+13], -20 ; ffffffecH
  00125	eb 44		 jmp	 SHORT $LN1@GetAnimati@2
$LN85@GetAnimati@2:
  00127	c6 45 e7 ea	 mov	 BYTE PTR _szEncEventType$[ebp+11], -22 ; ffffffeaH
  0012b	eb 3e		 jmp	 SHORT $LN1@GetAnimati@2
$LN86@GetAnimati@2:
  0012d	88 55 e6	 mov	 BYTE PTR _szEncEventType$[ebp+10], dl
  00130	eb 39		 jmp	 SHORT $LN1@GetAnimati@2
$LN87@GetAnimati@2:
  00132	c6 45 e5 ec	 mov	 BYTE PTR _szEncEventType$[ebp+9], -20 ; ffffffecH
  00136	eb 33		 jmp	 SHORT $LN1@GetAnimati@2
$LN88@GetAnimati@2:
  00138	c6 45 e4 ed	 mov	 BYTE PTR _szEncEventType$[ebp+8], -19 ; ffffffedH
  0013c	eb 2d		 jmp	 SHORT $LN1@GetAnimati@2
$LN89@GetAnimati@2:
  0013e	c6 45 e3 ea	 mov	 BYTE PTR _szEncEventType$[ebp+7], -22 ; ffffffeaH
  00142	eb 27		 jmp	 SHORT $LN1@GetAnimati@2
$LN90@GetAnimati@2:
  00144	88 55 e2	 mov	 BYTE PTR _szEncEventType$[ebp+6], dl
  00147	eb 22		 jmp	 SHORT $LN1@GetAnimati@2
$LN91@GetAnimati@2:
  00149	c6 45 e1 ec	 mov	 BYTE PTR _szEncEventType$[ebp+5], -20 ; ffffffecH
  0014d	eb 1c		 jmp	 SHORT $LN1@GetAnimati@2
$LN92@GetAnimati@2:
  0014f	c6 45 e0 ed	 mov	 BYTE PTR _szEncEventType$[ebp+4], -19 ; ffffffedH
  00153	eb 16		 jmp	 SHORT $LN1@GetAnimati@2
$LN93@GetAnimati@2:
  00155	c6 45 df ea	 mov	 BYTE PTR _szEncEventType$[ebp+3], -22 ; ffffffeaH
  00159	eb 10		 jmp	 SHORT $LN1@GetAnimati@2
$LN94@GetAnimati@2:
  0015b	c6 45 de eb	 mov	 BYTE PTR _szEncEventType$[ebp+2], -21 ; ffffffebH
  0015f	eb 0a		 jmp	 SHORT $LN1@GetAnimati@2
$LN95@GetAnimati@2:
  00161	c6 45 dd ec	 mov	 BYTE PTR _szEncEventType$[ebp+1], -20 ; ffffffecH
  00165	eb 04		 jmp	 SHORT $LN1@GetAnimati@2
$LN96@GetAnimati@2:
  00167	c6 45 dc ed	 mov	 BYTE PTR _szEncEventType$[ebp], -19 ; ffffffedH
$LN1@GetAnimati@2:
  0016b	6a 03		 push	 3
  0016d	8d 45 dc	 lea	 eax, DWORD PTR _szEncEventType$[ebp]
  00170	c6 45 e8 00	 mov	 BYTE PTR _szEncEventType$[ebp+12], 0
  00174	59		 pop	 ecx
$LL105@GetAnimati@2:
  00175	81 30 ed ec eb
	ea		 xor	 DWORD PTR [eax], -353637139 ; eaebecedH
  0017b	83 c0 04	 add	 eax, 4
  0017e	49		 dec	 ecx
  0017f	75 f4		 jne	 SHORT $LL105@GetAnimati@2

; 408  : 		return GetAnimationEventTimeList(id, szEncEventType, vTimeList);

  00181	8d 45 dc	 lea	 eax, DWORD PTR _szEncEventType$[ebp]
  00184	50		 push	 eax
  00185	8d 4d cc	 lea	 ecx, DWORD PTR $T606999[ebp]
  00188	ff 15 00 00 00
	00		 call	 DWORD PTR __imp_??0ioHashString@@QAE@PBD@Z
  0018e	83 65 fc 00	 and	 DWORD PTR __$EHRec$[ebp+8], 0
  00192	56		 push	 esi
  00193	8d 45 cc	 lea	 eax, DWORD PTR $T606999[ebp]
  00196	50		 push	 eax
  00197	ff 75 08	 push	 DWORD PTR _id$[ebp]
  0019a	8b cf		 mov	 ecx, edi
  0019c	ff 15 00 00 00
	00		 call	 DWORD PTR __imp_?GetAnimationEventTimeList@ioEntityGroup@@QAEHHABVioHashString@@AAV?$list@MV?$allocator@M@std@@@std@@@Z
  001a2	83 4d fc ff	 or	 DWORD PTR __$EHRec$[ebp+8], -1
  001a6	8d 4d cc	 lea	 ecx, DWORD PTR $T606999[ebp]
  001a9	8b f0		 mov	 esi, eax
  001ab	ff 15 00 00 00
	00		 call	 DWORD PTR __imp_??1ioHashString@@QAE@XZ
  001b1	8b c6		 mov	 eax, esi

; 409  : 	}

  001b3	e8 00 00 00 00	 call	 __EH_epilog3_GS
  001b8	c2 0c 00	 ret	 12			; 0000000cH
_TEXT	ENDS
;	COMDAT text$x
text$x	SEGMENT
__unwindfunclet$??$GetAnimationEventTimeList_e@$0N@@ioEntityGroup@@QAEHHAAY0N@$$CBDAAV?$list@MV?$allocator@M@std@@@std@@@Z$0:
  00000	8d 4d cc	 lea	 ecx, DWORD PTR $T606999[ebp]
  00003	ff 25 00 00 00
	00		 jmp	 DWORD PTR __imp_??1ioHashString@@QAE@XZ
__ehhandler$??$GetAnimationEventTimeList_e@$0N@@ioEntityGroup@@QAEHHAAY0N@$$CBDAAV?$list@MV?$allocator@M@std@@@std@@@Z:
  00009	8b 54 24 08	 mov	 edx, DWORD PTR [esp+8]
  0000d	8d 42 0c	 lea	 eax, DWORD PTR [edx+12]
  00010	8b 4a c8	 mov	 ecx, DWORD PTR [edx-56]
  00013	33 c8		 xor	 ecx, eax
  00015	e8 00 00 00 00	 call	 @__security_check_cookie@4
  0001a	8b 4a fc	 mov	 ecx, DWORD PTR [edx-4]
  0001d	33 c8		 xor	 ecx, eax
  0001f	e8 00 00 00 00	 call	 @__security_check_cookie@4
  00024	b8 00 00 00 00	 mov	 eax, OFFSET __ehfuncinfo$??$GetAnimationEventTimeList_e@$0N@@ioEntityGroup@@QAEHHAAY0N@$$CBDAAV?$list@MV?$allocator@M@std@@@std@@@Z
  00029	e9 00 00 00 00	 jmp	 ___CxxFrameHandler3
text$x	ENDS
??$GetAnimationEventTimeList_e@$0N@@ioEntityGroup@@QAEHHAAY0N@$$CBDAAV?$list@MV?$allocator@M@std@@@std@@@Z ENDP ; ioEntityGroup::GetAnimationEventTimeList_e<13>
PUBLIC	??$_Cons_val@V?$allocator@VioHashString@@@std@@VioHashString@@V3@@std@@YAXAAV?$allocator@VioHashString@@@0@PAVioHashString@@$$QAV2@@Z ; std::_Cons_val<std::allocator<ioHashString>,ioHashString,ioHashString>
; Function compile flags: /Ogsp
; File c:\program files (x86)\microsoft visual studio 10.0\vc\include\xmemory
;	COMDAT ??$_Cons_val@V?$allocator@VioHashString@@@std@@VioHashString@@V3@@std@@YAXAAV?$allocator@VioHashString@@@0@PAVioHashString@@$$QAV2@@Z
_TEXT	SEGMENT
__Alval$ = 8						; size = 4
__Pdest$ = 12						; size = 4
__Src$ = 16						; size = 4
??$_Cons_val@V?$allocator@VioHashString@@@std@@VioHashString@@V3@@std@@YAXAAV?$allocator@VioHashString@@@0@PAVioHashString@@$$QAV2@@Z PROC ; std::_Cons_val<std::allocator<ioHashString>,ioHashString,ioHashString>, COMDAT

; 279  : 	{	// construct using allocator

  00000	55		 push	 ebp
  00001	8b ec		 mov	 ebp, esp

; 280  : 	_Alval.construct(_Pdest, _STD forward<_Ty2>(_Src));

  00003	ff 75 10	 push	 DWORD PTR __Src$[ebp]
  00006	8b 4d 08	 mov	 ecx, DWORD PTR __Alval$[ebp]
  00009	ff 75 0c	 push	 DWORD PTR __Pdest$[ebp]
  0000c	e8 00 00 00 00	 call	 ?construct@?$allocator@VioHashString@@@std@@QAEXPAVioHashString@@$$QAV3@@Z ; std::allocator<ioHashString>::construct

; 281  : 	}

  00011	5d		 pop	 ebp
  00012	c3		 ret	 0
??$_Cons_val@V?$allocator@VioHashString@@@std@@VioHashString@@V3@@std@@YAXAAV?$allocator@VioHashString@@@0@PAVioHashString@@$$QAV2@@Z ENDP ; std::_Cons_val<std::allocator<ioHashString>,ioHashString,ioHashString>
_TEXT	ENDS
PUBLIC	?destroy@?$allocator@U_Node@?$_List_nod@MV?$allocator@M@std@@@std@@@std@@QAEXPAU_Node@?$_List_nod@MV?$allocator@M@std@@@2@@Z ; std::allocator<std::_List_nod<float,std::allocator<float> >::_Node>::destroy
; Function compile flags: /Ogsp
;	COMDAT ?destroy@?$allocator@U_Node@?$_List_nod@MV?$allocator@M@std@@@std@@@std@@QAEXPAU_Node@?$_List_nod@MV?$allocator@M@std@@@2@@Z
_TEXT	SEGMENT
__Ptr$ = 8						; size = 4
?destroy@?$allocator@U_Node@?$_List_nod@MV?$allocator@M@std@@@std@@@std@@QAEXPAU_Node@?$_List_nod@MV?$allocator@M@std@@@2@@Z PROC ; std::allocator<std::_List_nod<float,std::allocator<float> >::_Node>::destroy, COMDAT
; _this$ = ecx

; 213  : 		_Destroy(_Ptr);
; 214  : 		}

  00000	c2 04 00	 ret	 4
?destroy@?$allocator@U_Node@?$_List_nod@MV?$allocator@M@std@@@std@@@std@@QAEXPAU_Node@?$_List_nod@MV?$allocator@M@std@@@2@@Z ENDP ; std::allocator<std::_List_nod<float,std::allocator<float> >::_Node>::destroy
_TEXT	ENDS
PUBLIC	?construct@?$allocator@UForceInfo@@@std@@QAEXPAUForceInfo@@ABU3@@Z ; std::allocator<ForceInfo>::construct
; Function compile flags: /Ogsp
;	COMDAT ?construct@?$allocator@UForceInfo@@@std@@QAEXPAUForceInfo@@ABU3@@Z
_TEXT	SEGMENT
__Ptr$ = 8						; size = 4
__Val$ = 12						; size = 4
?construct@?$allocator@UForceInfo@@@std@@QAEXPAUForceInfo@@ABU3@@Z PROC ; std::allocator<ForceInfo>::construct, COMDAT
; _this$ = ecx

; 196  : 		{	// construct object at _Ptr with value _Val

  00000	55		 push	 ebp
  00001	8b ec		 mov	 ebp, esp
  00003	57		 push	 edi

; 197  : 		_Construct(_Ptr, _Val);

  00004	8b 7d 08	 mov	 edi, DWORD PTR __Ptr$[ebp]
  00007	85 ff		 test	 edi, edi
  00009	74 08		 je	 SHORT $LN5@construct@3
  0000b	56		 push	 esi
  0000c	8b 75 0c	 mov	 esi, DWORD PTR __Val$[ebp]
  0000f	a5		 movsd
  00010	a5		 movsd
  00011	a5		 movsd
  00012	5e		 pop	 esi
$LN5@construct@3:
  00013	5f		 pop	 edi

; 198  : 		}

  00014	5d		 pop	 ebp
  00015	c2 08 00	 ret	 8
?construct@?$allocator@UForceInfo@@@std@@QAEXPAUForceInfo@@ABU3@@Z ENDP ; std::allocator<ForceInfo>::construct
_TEXT	ENDS
PUBLIC	??$_Construct@UWeaponInfo@@ABU1@@std@@YAXPAUWeaponInfo@@ABU1@@Z ; std::_Construct<WeaponInfo,WeaponInfo const &>
;	COMDAT xdata$x
; File c:\program files (x86)\microsoft visual studio 10.0\vc\include\utility
xdata$x	SEGMENT
__unwindtable$??$_Construct@UWeaponInfo@@ABU1@@std@@YAXPAUWeaponInfo@@ABU1@@Z DD 0ffffffffH
	DD	FLAT:__unwindfunclet$??$_Construct@UWeaponInfo@@ABU1@@std@@YAXPAUWeaponInfo@@ABU1@@Z$0
__ehfuncinfo$??$_Construct@UWeaponInfo@@ABU1@@std@@YAXPAUWeaponInfo@@ABU1@@Z DD 019930522H
	DD	01H
	DD	FLAT:__unwindtable$??$_Construct@UWeaponInfo@@ABU1@@std@@YAXPAUWeaponInfo@@ABU1@@Z
	DD	2 DUP(00H)
	DD	2 DUP(00H)
	DD	00H
	DD	01H
; Function compile flags: /Ogsp
; File c:\program files (x86)\microsoft visual studio 10.0\vc\include\xmemory
xdata$x	ENDS
;	COMDAT ??$_Construct@UWeaponInfo@@ABU1@@std@@YAXPAUWeaponInfo@@ABU1@@Z
_TEXT	SEGMENT
$T607064 = -16						; size = 4
__$EHRec$ = -12						; size = 12
__Vptr$ = 8						; size = 4
__Ptr$ = 8						; size = 4
__Val$ = 12						; size = 4
??$_Construct@UWeaponInfo@@ABU1@@std@@YAXPAUWeaponInfo@@ABU1@@Z PROC ; std::_Construct<WeaponInfo,WeaponInfo const &>, COMDAT

; 46   : 	{	// construct object at _Ptr with value _Val

  00000	6a 04		 push	 4
  00002	b8 00 00 00 00	 mov	 eax, __ehhandler$??$_Construct@UWeaponInfo@@ABU1@@std@@YAXPAUWeaponInfo@@ABU1@@Z
  00007	e8 00 00 00 00	 call	 __EH_prolog3

; 47   : 	void _FARQ *_Vptr = _Ptr;

  0000c	8b 4d 08	 mov	 ecx, DWORD PTR __Ptr$[ebp]
  0000f	89 4d 08	 mov	 DWORD PTR __Vptr$[ebp], ecx

; 48   : 	::new (_Vptr) _Ty1(_STD forward<_Ty2>(_Val));

  00012	89 4d f0	 mov	 DWORD PTR $T607064[ebp], ecx
  00015	83 65 fc 00	 and	 DWORD PTR __$EHRec$[ebp+8], 0
  00019	85 c9		 test	 ecx, ecx
  0001b	74 08		 je	 SHORT $LN3@Construct@3
  0001d	ff 75 0c	 push	 DWORD PTR __Val$[ebp]
  00020	e8 00 00 00 00	 call	 ??0WeaponInfo@@QAE@ABU0@@Z
$LN3@Construct@3:

; 49   : 	}

  00025	e8 00 00 00 00	 call	 __EH_epilog3
  0002a	c3		 ret	 0
_TEXT	ENDS
;	COMDAT text$x
text$x	SEGMENT
__unwindfunclet$??$_Construct@UWeaponInfo@@ABU1@@std@@YAXPAUWeaponInfo@@ABU1@@Z$0:
  00000	ff 75 08	 push	 DWORD PTR __Vptr$[ebp]
  00003	ff 75 f0	 push	 DWORD PTR $T607064[ebp]
  00006	e8 00 00 00 00	 call	 ??3@YAXPAX0@Z		; operator delete
  0000b	59		 pop	 ecx
  0000c	59		 pop	 ecx
  0000d	c3		 ret	 0
__ehhandler$??$_Construct@UWeaponInfo@@ABU1@@std@@YAXPAUWeaponInfo@@ABU1@@Z:
  0000e	8b 54 24 08	 mov	 edx, DWORD PTR [esp+8]
  00012	8d 42 0c	 lea	 eax, DWORD PTR [edx+12]
  00015	8b 4a ec	 mov	 ecx, DWORD PTR [edx-20]
  00018	33 c8		 xor	 ecx, eax
  0001a	e8 00 00 00 00	 call	 @__security_check_cookie@4
  0001f	b8 00 00 00 00	 mov	 eax, OFFSET __ehfuncinfo$??$_Construct@UWeaponInfo@@ABU1@@std@@YAXPAUWeaponInfo@@ABU1@@Z
  00024	e9 00 00 00 00	 jmp	 ___CxxFrameHandler3
text$x	ENDS
??$_Construct@UWeaponInfo@@ABU1@@std@@YAXPAUWeaponInfo@@ABU1@@Z ENDP ; std::_Construct<WeaponInfo,WeaponInfo const &>
PUBLIC	??0?$CEncrypt@K@@QAE@XZ				; CEncrypt<unsigned long>::CEncrypt<unsigned long>
EXTRN	??0ccddaabb@@QAE@XZ:PROC			; ccddaabb::ccddaabb
;	COMDAT xdata$x
; File d:\lost saga for developer\youtube\tutorial\source\src\lsclient\encryptvalue.h
xdata$x	SEGMENT
__unwindtable$??0?$CEncrypt@K@@QAE@XZ DD 0ffffffffH
	DD	FLAT:__unwindfunclet$??0?$CEncrypt@K@@QAE@XZ$0
__ehfuncinfo$??0?$CEncrypt@K@@QAE@XZ DD 019930522H
	DD	01H
	DD	FLAT:__unwindtable$??0?$CEncrypt@K@@QAE@XZ
	DD	2 DUP(00H)
	DD	2 DUP(00H)
	DD	00H
	DD	01H
; Function compile flags: /Ogsp
xdata$x	ENDS
;	COMDAT ??0?$CEncrypt@K@@QAE@XZ
_TEXT	SEGMENT
_this$ = -16						; size = 4
__$EHRec$ = -12						; size = 12
??0?$CEncrypt@K@@QAE@XZ PROC				; CEncrypt<unsigned long>::CEncrypt<unsigned long>, COMDAT
; _this$ = ecx

; 109  : 	CEncrypt()

  00000	6a 04		 push	 4
  00002	b8 00 00 00 00	 mov	 eax, __ehhandler$??0?$CEncrypt@K@@QAE@XZ
  00007	e8 00 00 00 00	 call	 __EH_prolog3
  0000c	8b f1		 mov	 esi, ecx
  0000e	89 75 f0	 mov	 DWORD PTR _this$[ebp], esi
  00011	8d 4e 0c	 lea	 ecx, DWORD PTR [esi+12]
  00014	c7 06 00 00 00
	00		 mov	 DWORD PTR [esi], OFFSET ??_7?$CEncrypt@K@@6B@
  0001a	e8 00 00 00 00	 call	 ??0ccddaabb@@QAE@XZ	; ccddaabb::ccddaabb
  0001f	83 65 fc 00	 and	 DWORD PTR __$EHRec$[ebp+8], 0

; 110  : 	{
; 111  : 		Init();

  00023	8b ce		 mov	 ecx, esi
  00025	e8 00 00 00 00	 call	 ?Init@?$CEncrypt@K@@AAEXXZ ; CEncrypt<unsigned long>::Init

; 112  : 	}

  0002a	8b c6		 mov	 eax, esi
  0002c	e8 00 00 00 00	 call	 __EH_epilog3
  00031	c3		 ret	 0
_TEXT	ENDS
;	COMDAT text$x
text$x	SEGMENT
__unwindfunclet$??0?$CEncrypt@K@@QAE@XZ$0:
  00000	8b 4d f0	 mov	 ecx, DWORD PTR _this$[ebp]
  00003	83 c1 0c	 add	 ecx, 12			; 0000000cH
  00006	e9 00 00 00 00	 jmp	 ??1ccddaabb@@UAE@XZ	; ccddaabb::~ccddaabb
__ehhandler$??0?$CEncrypt@K@@QAE@XZ:
  0000b	8b 54 24 08	 mov	 edx, DWORD PTR [esp+8]
  0000f	8d 42 0c	 lea	 eax, DWORD PTR [edx+12]
  00012	8b 4a ec	 mov	 ecx, DWORD PTR [edx-20]
  00015	33 c8		 xor	 ecx, eax
  00017	e8 00 00 00 00	 call	 @__security_check_cookie@4
  0001c	b8 00 00 00 00	 mov	 eax, OFFSET __ehfuncinfo$??0?$CEncrypt@K@@QAE@XZ
  00021	e9 00 00 00 00	 jmp	 ___CxxFrameHandler3
text$x	ENDS
??0?$CEncrypt@K@@QAE@XZ ENDP				; CEncrypt<unsigned long>::CEncrypt<unsigned long>
PUBLIC	??B?$CEncrypt@K@@QAEKXZ				; CEncrypt<unsigned long>::operator unsigned long
; Function compile flags: /Ogsp
;	COMDAT ??B?$CEncrypt@K@@QAEKXZ
_TEXT	SEGMENT
_value$ = -4						; size = 4
??B?$CEncrypt@K@@QAEKXZ PROC				; CEncrypt<unsigned long>::operator unsigned long, COMDAT
; _this$ = ecx

; 134  : 	{

  00000	55		 push	 ebp
  00001	8b ec		 mov	 ebp, esp
  00003	51		 push	 ecx

; 135  : 		type value;
; 136  : 		DecryptValueToPool(&value);

  00004	8d 45 fc	 lea	 eax, DWORD PTR _value$[ebp]
  00007	50		 push	 eax
  00008	e8 00 00 00 00	 call	 ?DecryptValueToPool@?$CEncrypt@K@@QAEXPAK@Z ; CEncrypt<unsigned long>::DecryptValueToPool

; 137  : 
; 138  : #ifdef _NOTUSE
; 139  : 		Debug();
; 140  : #endif
; 141  : 		return value;

  0000d	8b 45 fc	 mov	 eax, DWORD PTR _value$[ebp]

; 142  : 	}

  00010	c9		 leave
  00011	c3		 ret	 0
??B?$CEncrypt@K@@QAEKXZ ENDP				; CEncrypt<unsigned long>::operator unsigned long
_TEXT	ENDS
PUBLIC	??B?$CEncrypt@K@@QBEKXZ				; CEncrypt<unsigned long>::operator unsigned long
; Function compile flags: /Ogsp
;	COMDAT ??B?$CEncrypt@K@@QBEKXZ
_TEXT	SEGMENT
_value$ = -4						; size = 4
??B?$CEncrypt@K@@QBEKXZ PROC				; CEncrypt<unsigned long>::operator unsigned long, COMDAT
; _this$ = ecx

; 145  : 	{

  00000	55		 push	 ebp
  00001	8b ec		 mov	 ebp, esp
  00003	51		 push	 ecx

; 146  : 		//UJ 130829, const    --start
; 147  : 		type value;
; 148  : 		CEncrypt<type>* pThis = const_cast<CEncrypt<type>*>(this);
; 149  : 		pThis->DecryptValueToPool(&value);

  00004	8d 45 fc	 lea	 eax, DWORD PTR _value$[ebp]
  00007	50		 push	 eax
  00008	e8 00 00 00 00	 call	 ?DecryptValueToPool@?$CEncrypt@K@@QAEXPAK@Z ; CEncrypt<unsigned long>::DecryptValueToPool

; 150  : 		//// const DecryptValueToPool     .
; 151  :  		//type value;
; 152  : 		//char szTempMem[MAX_ENCRYPT];
; 153  : 		//m_RC5.DecryptByte( m_MemPool, szTempMem, max(m_ValueSize, DEFAULT_ENCRYPT) );
; 154  : 		//memcpy( &value, szTempMem, m_ValueSize );
; 155  : 		//UJ --end
; 156  : 
; 157  : #ifdef _NOTUSE
; 158  : 		Debug();
; 159  : #endif
; 160  : 		return value;

  0000d	8b 45 fc	 mov	 eax, DWORD PTR _value$[ebp]

; 161  : 	}

  00010	c9		 leave
  00011	c3		 ret	 0
??B?$CEncrypt@K@@QBEKXZ ENDP				; CEncrypt<unsigned long>::operator unsigned long
_TEXT	ENDS
PUBLIC	??4?$CEncrypt@K@@QAEKH@Z			; CEncrypt<unsigned long>::operator=
; Function compile flags: /Ogsp
;	COMDAT ??4?$CEncrypt@K@@QAEKH@Z
_TEXT	SEGMENT
_value$ = 8						; size = 4
_inValue$ = 8						; size = 4
??4?$CEncrypt@K@@QAEKH@Z PROC				; CEncrypt<unsigned long>::operator=, COMDAT
; _this$ = ecx

; 843  : 	{

  00000	55		 push	 ebp
  00001	8b ec		 mov	 ebp, esp

; 844  : 		type value = inValue;

  00003	8b 45 08	 mov	 eax, DWORD PTR _inValue$[ebp]
  00006	89 45 08	 mov	 DWORD PTR _value$[ebp], eax

; 845  : 		EncryptValueToPool((char*)&value);

  00009	8d 45 08	 lea	 eax, DWORD PTR _value$[ebp]
  0000c	50		 push	 eax
  0000d	e8 00 00 00 00	 call	 ?EncryptValueToPool@?$CEncrypt@K@@AAEXPBD@Z ; CEncrypt<unsigned long>::EncryptValueToPool

; 846  : #ifdef _NOTUSE
; 847  : 		m_value = inValue;
; 848  : 		Debug();
; 849  : #endif
; 850  : 		return value;

  00012	8b 45 08	 mov	 eax, DWORD PTR _value$[ebp]

; 851  : 	}

  00015	5d		 pop	 ebp
  00016	c2 04 00	 ret	 4
??4?$CEncrypt@K@@QAEKH@Z ENDP				; CEncrypt<unsigned long>::operator=
_TEXT	ENDS
PUBLIC	??4?$CEncrypt@K@@QAEKK@Z			; CEncrypt<unsigned long>::operator=
; Function compile flags: /Ogsp
;	COMDAT ??4?$CEncrypt@K@@QAEKK@Z
_TEXT	SEGMENT
_value$ = 8						; size = 4
_inValue$ = 8						; size = 4
??4?$CEncrypt@K@@QAEKK@Z PROC				; CEncrypt<unsigned long>::operator=, COMDAT
; _this$ = ecx

; 1262 : 	{

  00000	55		 push	 ebp
  00001	8b ec		 mov	 ebp, esp

; 1263 : 		
; 1264 : 		type value = inValue;

  00003	8b 45 08	 mov	 eax, DWORD PTR _inValue$[ebp]
  00006	89 45 08	 mov	 DWORD PTR _value$[ebp], eax

; 1265 : 		EncryptValueToPool((char*)&value);

  00009	8d 45 08	 lea	 eax, DWORD PTR _value$[ebp]
  0000c	50		 push	 eax
  0000d	e8 00 00 00 00	 call	 ?EncryptValueToPool@?$CEncrypt@K@@AAEXPBD@Z ; CEncrypt<unsigned long>::EncryptValueToPool

; 1266 : #ifdef _NOTUSE
; 1267 : 		m_value = inValue;
; 1268 : 		Debug();
; 1269 : #endif
; 1270 : 		return value;

  00012	8b 45 08	 mov	 eax, DWORD PTR _value$[ebp]

; 1271 : 	}

  00015	5d		 pop	 ebp
  00016	c2 04 00	 ret	 4
??4?$CEncrypt@K@@QAEKK@Z ENDP				; CEncrypt<unsigned long>::operator=
_TEXT	ENDS
PUBLIC	??B?$CEncrypt@_N@@QBE_NXZ			; CEncrypt<bool>::operator bool
; Function compile flags: /Ogsp
;	COMDAT ??B?$CEncrypt@_N@@QBE_NXZ
_TEXT	SEGMENT
_value$ = -1						; size = 1
??B?$CEncrypt@_N@@QBE_NXZ PROC				; CEncrypt<bool>::operator bool, COMDAT
; _this$ = ecx

; 145  : 	{

  00000	55		 push	 ebp
  00001	8b ec		 mov	 ebp, esp
  00003	51		 push	 ecx

; 146  : 		//UJ 130829, const    --start
; 147  : 		type value;
; 148  : 		CEncrypt<type>* pThis = const_cast<CEncrypt<type>*>(this);
; 149  : 		pThis->DecryptValueToPool(&value);

  00004	8d 45 ff	 lea	 eax, DWORD PTR _value$[ebp]
  00007	50		 push	 eax
  00008	e8 00 00 00 00	 call	 ?DecryptValueToPool@?$CEncrypt@_N@@QAEXPA_N@Z ; CEncrypt<bool>::DecryptValueToPool

; 150  : 		//// const DecryptValueToPool     .
; 151  :  		//type value;
; 152  : 		//char szTempMem[MAX_ENCRYPT];
; 153  : 		//m_RC5.DecryptByte( m_MemPool, szTempMem, max(m_ValueSize, DEFAULT_ENCRYPT) );
; 154  : 		//memcpy( &value, szTempMem, m_ValueSize );
; 155  : 		//UJ --end
; 156  : 
; 157  : #ifdef _NOTUSE
; 158  : 		Debug();
; 159  : #endif
; 160  : 		return value;

  0000d	8a 45 ff	 mov	 al, BYTE PTR _value$[ebp]

; 161  : 	}

  00010	c9		 leave
  00011	c3		 ret	 0
??B?$CEncrypt@_N@@QBE_NXZ ENDP				; CEncrypt<bool>::operator bool
_TEXT	ENDS
PUBLIC	??0?$CEncrypt@H@@QAE@XZ				; CEncrypt<int>::CEncrypt<int>
;	COMDAT xdata$x
xdata$x	SEGMENT
__unwindtable$??0?$CEncrypt@H@@QAE@XZ DD 0ffffffffH
	DD	FLAT:__unwindfunclet$??0?$CEncrypt@H@@QAE@XZ$0
__ehfuncinfo$??0?$CEncrypt@H@@QAE@XZ DD 019930522H
	DD	01H
	DD	FLAT:__unwindtable$??0?$CEncrypt@H@@QAE@XZ
	DD	2 DUP(00H)
	DD	2 DUP(00H)
	DD	00H
	DD	01H
; Function compile flags: /Ogsp
xdata$x	ENDS
;	COMDAT ??0?$CEncrypt@H@@QAE@XZ
_TEXT	SEGMENT
_this$ = -16						; size = 4
__$EHRec$ = -12						; size = 12
??0?$CEncrypt@H@@QAE@XZ PROC				; CEncrypt<int>::CEncrypt<int>, COMDAT
; _this$ = ecx

; 109  : 	CEncrypt()

  00000	6a 04		 push	 4
  00002	b8 00 00 00 00	 mov	 eax, __ehhandler$??0?$CEncrypt@H@@QAE@XZ
  00007	e8 00 00 00 00	 call	 __EH_prolog3
  0000c	8b f1		 mov	 esi, ecx
  0000e	89 75 f0	 mov	 DWORD PTR _this$[ebp], esi
  00011	8d 4e 0c	 lea	 ecx, DWORD PTR [esi+12]
  00014	c7 06 00 00 00
	00		 mov	 DWORD PTR [esi], OFFSET ??_7?$CEncrypt@H@@6B@
  0001a	e8 00 00 00 00	 call	 ??0ccddaabb@@QAE@XZ	; ccddaabb::ccddaabb
  0001f	83 65 fc 00	 and	 DWORD PTR __$EHRec$[ebp+8], 0

; 110  : 	{
; 111  : 		Init();

  00023	8b ce		 mov	 ecx, esi
  00025	e8 00 00 00 00	 call	 ?Init@?$CEncrypt@H@@AAEXXZ ; CEncrypt<int>::Init

; 112  : 	}

  0002a	8b c6		 mov	 eax, esi
  0002c	e8 00 00 00 00	 call	 __EH_epilog3
  00031	c3		 ret	 0
_TEXT	ENDS
;	COMDAT text$x
text$x	SEGMENT
__unwindfunclet$??0?$CEncrypt@H@@QAE@XZ$0:
  00000	8b 4d f0	 mov	 ecx, DWORD PTR _this$[ebp]
  00003	83 c1 0c	 add	 ecx, 12			; 0000000cH
  00006	e9 00 00 00 00	 jmp	 ??1ccddaabb@@UAE@XZ	; ccddaabb::~ccddaabb
__ehhandler$??0?$CEncrypt@H@@QAE@XZ:
  0000b	8b 54 24 08	 mov	 edx, DWORD PTR [esp+8]
  0000f	8d 42 0c	 lea	 eax, DWORD PTR [edx+12]
  00012	8b 4a ec	 mov	 ecx, DWORD PTR [edx-20]
  00015	33 c8		 xor	 ecx, eax
  00017	e8 00 00 00 00	 call	 @__security_check_cookie@4
  0001c	b8 00 00 00 00	 mov	 eax, OFFSET __ehfuncinfo$??0?$CEncrypt@H@@QAE@XZ
  00021	e9 00 00 00 00	 jmp	 ___CxxFrameHandler3
text$x	ENDS
??0?$CEncrypt@H@@QAE@XZ ENDP				; CEncrypt<int>::CEncrypt<int>
PUBLIC	??B?$CEncrypt@H@@QAEHXZ				; CEncrypt<int>::operator int
; Function compile flags: /Ogsp
;	COMDAT ??B?$CEncrypt@H@@QAEHXZ
_TEXT	SEGMENT
_value$ = -4						; size = 4
??B?$CEncrypt@H@@QAEHXZ PROC				; CEncrypt<int>::operator int, COMDAT
; _this$ = ecx

; 134  : 	{

  00000	55		 push	 ebp
  00001	8b ec		 mov	 ebp, esp
  00003	51		 push	 ecx

; 135  : 		type value;
; 136  : 		DecryptValueToPool(&value);

  00004	8d 45 fc	 lea	 eax, DWORD PTR _value$[ebp]
  00007	50		 push	 eax
  00008	e8 00 00 00 00	 call	 ?DecryptValueToPool@?$CEncrypt@H@@QAEXPAH@Z ; CEncrypt<int>::DecryptValueToPool

; 137  : 
; 138  : #ifdef _NOTUSE
; 139  : 		Debug();
; 140  : #endif
; 141  : 		return value;

  0000d	8b 45 fc	 mov	 eax, DWORD PTR _value$[ebp]

; 142  : 	}

  00010	c9		 leave
  00011	c3		 ret	 0
??B?$CEncrypt@H@@QAEHXZ ENDP				; CEncrypt<int>::operator int
_TEXT	ENDS
PUBLIC	??B?$CEncrypt@H@@QBEHXZ				; CEncrypt<int>::operator int
; Function compile flags: /Ogsp
;	COMDAT ??B?$CEncrypt@H@@QBEHXZ
_TEXT	SEGMENT
_value$ = -4						; size = 4
??B?$CEncrypt@H@@QBEHXZ PROC				; CEncrypt<int>::operator int, COMDAT
; _this$ = ecx

; 145  : 	{

  00000	55		 push	 ebp
  00001	8b ec		 mov	 ebp, esp
  00003	51		 push	 ecx

; 146  : 		//UJ 130829, const    --start
; 147  : 		type value;
; 148  : 		CEncrypt<type>* pThis = const_cast<CEncrypt<type>*>(this);
; 149  : 		pThis->DecryptValueToPool(&value);

  00004	8d 45 fc	 lea	 eax, DWORD PTR _value$[ebp]
  00007	50		 push	 eax
  00008	e8 00 00 00 00	 call	 ?DecryptValueToPool@?$CEncrypt@H@@QAEXPAH@Z ; CEncrypt<int>::DecryptValueToPool

; 150  : 		//// const DecryptValueToPool     .
; 151  :  		//type value;
; 152  : 		//char szTempMem[MAX_ENCRYPT];
; 153  : 		//m_RC5.DecryptByte( m_MemPool, szTempMem, max(m_ValueSize, DEFAULT_ENCRYPT) );
; 154  : 		//memcpy( &value, szTempMem, m_ValueSize );
; 155  : 		//UJ --end
; 156  : 
; 157  : #ifdef _NOTUSE
; 158  : 		Debug();
; 159  : #endif
; 160  : 		return value;

  0000d	8b 45 fc	 mov	 eax, DWORD PTR _value$[ebp]

; 161  : 	}

  00010	c9		 leave
  00011	c3		 ret	 0
??B?$CEncrypt@H@@QBEHXZ ENDP				; CEncrypt<int>::operator int
_TEXT	ENDS
PUBLIC	??E?$CEncrypt@H@@QAEHH@Z			; CEncrypt<int>::operator++
; Function compile flags: /Ogsp
;	COMDAT ??E?$CEncrypt@H@@QAEHH@Z
_TEXT	SEGMENT
_value$ = -4						; size = 4
___formal$ = 8						; size = 4
??E?$CEncrypt@H@@QAEHH@Z PROC				; CEncrypt<int>::operator++, COMDAT
; _this$ = ecx

; 190  : 	{

  00000	55		 push	 ebp
  00001	8b ec		 mov	 ebp, esp
  00003	51		 push	 ecx
  00004	56		 push	 esi

; 191  : 		type value;
; 192  : 		DecryptValueToPool(&value);

  00005	8d 45 fc	 lea	 eax, DWORD PTR _value$[ebp]
  00008	50		 push	 eax
  00009	8b f1		 mov	 esi, ecx
  0000b	e8 00 00 00 00	 call	 ?DecryptValueToPool@?$CEncrypt@H@@QAEXPAH@Z ; CEncrypt<int>::DecryptValueToPool

; 193  : 		++value;

  00010	ff 45 fc	 inc	 DWORD PTR _value$[ebp]

; 194  : 		EncryptValueToPool((char*)&value);

  00013	8d 45 fc	 lea	 eax, DWORD PTR _value$[ebp]
  00016	50		 push	 eax
  00017	8b ce		 mov	 ecx, esi
  00019	e8 00 00 00 00	 call	 ?EncryptValueToPool@?$CEncrypt@H@@AAEXPBD@Z ; CEncrypt<int>::EncryptValueToPool

; 195  : #ifdef _NOTUSE
; 196  : 		++m_value;
; 197  : 		Debug();
; 198  : #endif
; 199  : 		return value;

  0001e	8b 45 fc	 mov	 eax, DWORD PTR _value$[ebp]
  00021	5e		 pop	 esi

; 200  : 	}	

  00022	c9		 leave
  00023	c2 04 00	 ret	 4
??E?$CEncrypt@H@@QAEHH@Z ENDP				; CEncrypt<int>::operator++
_TEXT	ENDS
PUBLIC	??4?$CEncrypt@H@@QAEHH@Z			; CEncrypt<int>::operator=
; Function compile flags: /Ogsp
;	COMDAT ??4?$CEncrypt@H@@QAEHH@Z
_TEXT	SEGMENT
_value$ = 8						; size = 4
_inValue$ = 8						; size = 4
??4?$CEncrypt@H@@QAEHH@Z PROC				; CEncrypt<int>::operator=, COMDAT
; _this$ = ecx

; 843  : 	{

  00000	55		 push	 ebp
  00001	8b ec		 mov	 ebp, esp

; 844  : 		type value = inValue;

  00003	8b 45 08	 mov	 eax, DWORD PTR _inValue$[ebp]
  00006	89 45 08	 mov	 DWORD PTR _value$[ebp], eax

; 845  : 		EncryptValueToPool((char*)&value);

  00009	8d 45 08	 lea	 eax, DWORD PTR _value$[ebp]
  0000c	50		 push	 eax
  0000d	e8 00 00 00 00	 call	 ?EncryptValueToPool@?$CEncrypt@H@@AAEXPBD@Z ; CEncrypt<int>::EncryptValueToPool

; 846  : #ifdef _NOTUSE
; 847  : 		m_value = inValue;
; 848  : 		Debug();
; 849  : #endif
; 850  : 		return value;

  00012	8b 45 08	 mov	 eax, DWORD PTR _value$[ebp]

; 851  : 	}

  00015	5d		 pop	 ebp
  00016	c2 04 00	 ret	 4
??4?$CEncrypt@H@@QAEHH@Z ENDP				; CEncrypt<int>::operator=
_TEXT	ENDS
PUBLIC	?begin@?$vector@VioHashString@@V?$allocator@VioHashString@@@std@@@std@@QAE?AV?$_Vector_iterator@V?$_Vector_val@VioHashString@@V?$allocator@VioHashString@@@std@@@std@@@2@XZ ; std::vector<ioHashString,std::allocator<ioHashString> >::begin
; Function compile flags: /Ogsp
; File c:\program files (x86)\microsoft visual studio 10.0\vc\include\vector
;	COMDAT ?begin@?$vector@VioHashString@@V?$allocator@VioHashString@@@std@@@std@@QAE?AV?$_Vector_iterator@V?$_Vector_val@VioHashString@@V?$allocator@VioHashString@@@std@@@std@@@2@XZ
_TEXT	SEGMENT
___$ReturnUdt$ = 8					; size = 4
?begin@?$vector@VioHashString@@V?$allocator@VioHashString@@@std@@@std@@QAE?AV?$_Vector_iterator@V?$_Vector_val@VioHashString@@V?$allocator@VioHashString@@@std@@@std@@@2@XZ PROC ; std::vector<ioHashString,std::allocator<ioHashString> >::begin, COMDAT
; _this$ = ecx

; 781  : 		{	// return iterator for beginning of mutable sequence

  00000	55		 push	 ebp
  00001	8b ec		 mov	 ebp, esp

; 782  : 		return (iterator(this->_Myfirst, this));

  00003	8b 09		 mov	 ecx, DWORD PTR [ecx]
  00005	8b 45 08	 mov	 eax, DWORD PTR ___$ReturnUdt$[ebp]
  00008	89 08		 mov	 DWORD PTR [eax], ecx

; 783  : 		}

  0000a	5d		 pop	 ebp
  0000b	c2 04 00	 ret	 4
?begin@?$vector@VioHashString@@V?$allocator@VioHashString@@@std@@@std@@QAE?AV?$_Vector_iterator@V?$_Vector_val@VioHashString@@V?$allocator@VioHashString@@@std@@@std@@@2@XZ ENDP ; std::vector<ioHashString,std::allocator<ioHashString> >::begin
_TEXT	ENDS
PUBLIC	?begin@?$vector@VioHashString@@V?$allocator@VioHashString@@@std@@@std@@QBE?AV?$_Vector_const_iterator@V?$_Vector_val@VioHashString@@V?$allocator@VioHashString@@@std@@@std@@@2@XZ ; std::vector<ioHashString,std::allocator<ioHashString> >::begin
; Function compile flags: /Ogsp
;	COMDAT ?begin@?$vector@VioHashString@@V?$allocator@VioHashString@@@std@@@std@@QBE?AV?$_Vector_const_iterator@V?$_Vector_val@VioHashString@@V?$allocator@VioHashString@@@std@@@std@@@2@XZ
_TEXT	SEGMENT
___$ReturnUdt$ = 8					; size = 4
?begin@?$vector@VioHashString@@V?$allocator@VioHashString@@@std@@@std@@QBE?AV?$_Vector_const_iterator@V?$_Vector_val@VioHashString@@V?$allocator@VioHashString@@@std@@@std@@@2@XZ PROC ; std::vector<ioHashString,std::allocator<ioHashString> >::begin, COMDAT
; _this$ = ecx

; 786  : 		{	// return iterator for beginning of nonmutable sequence

  00000	55		 push	 ebp
  00001	8b ec		 mov	 ebp, esp

; 787  : 		return (const_iterator(this->_Myfirst, this));

  00003	8b 09		 mov	 ecx, DWORD PTR [ecx]
  00005	8b 45 08	 mov	 eax, DWORD PTR ___$ReturnUdt$[ebp]
  00008	89 08		 mov	 DWORD PTR [eax], ecx

; 788  : 		}

  0000a	5d		 pop	 ebp
  0000b	c2 04 00	 ret	 4
?begin@?$vector@VioHashString@@V?$allocator@VioHashString@@@std@@@std@@QBE?AV?$_Vector_const_iterator@V?$_Vector_val@VioHashString@@V?$allocator@VioHashString@@@std@@@std@@@2@XZ ENDP ; std::vector<ioHashString,std::allocator<ioHashString> >::begin
_TEXT	ENDS
PUBLIC	?end@?$vector@VioHashString@@V?$allocator@VioHashString@@@std@@@std@@QAE?AV?$_Vector_iterator@V?$_Vector_val@VioHashString@@V?$allocator@VioHashString@@@std@@@std@@@2@XZ ; std::vector<ioHashString,std::allocator<ioHashString> >::end
; Function compile flags: /Ogsp
;	COMDAT ?end@?$vector@VioHashString@@V?$allocator@VioHashString@@@std@@@std@@QAE?AV?$_Vector_iterator@V?$_Vector_val@VioHashString@@V?$allocator@VioHashString@@@std@@@std@@@2@XZ
_TEXT	SEGMENT
___$ReturnUdt$ = 8					; size = 4
?end@?$vector@VioHashString@@V?$allocator@VioHashString@@@std@@@std@@QAE?AV?$_Vector_iterator@V?$_Vector_val@VioHashString@@V?$allocator@VioHashString@@@std@@@std@@@2@XZ PROC ; std::vector<ioHashString,std::allocator<ioHashString> >::end, COMDAT
; _this$ = ecx

; 791  : 		{	// return iterator for end of mutable sequence

  00000	55		 push	 ebp
  00001	8b ec		 mov	 ebp, esp

; 792  : 		return (iterator(this->_Mylast, this));

  00003	8b 49 04	 mov	 ecx, DWORD PTR [ecx+4]
  00006	8b 45 08	 mov	 eax, DWORD PTR ___$ReturnUdt$[ebp]
  00009	89 08		 mov	 DWORD PTR [eax], ecx

; 793  : 		}

  0000b	5d		 pop	 ebp
  0000c	c2 04 00	 ret	 4
?end@?$vector@VioHashString@@V?$allocator@VioHashString@@@std@@@std@@QAE?AV?$_Vector_iterator@V?$_Vector_val@VioHashString@@V?$allocator@VioHashString@@@std@@@std@@@2@XZ ENDP ; std::vector<ioHashString,std::allocator<ioHashString> >::end
_TEXT	ENDS
PUBLIC	?end@?$vector@VioHashString@@V?$allocator@VioHashString@@@std@@@std@@QBE?AV?$_Vector_const_iterator@V?$_Vector_val@VioHashString@@V?$allocator@VioHashString@@@std@@@std@@@2@XZ ; std::vector<ioHashString,std::allocator<ioHashString> >::end
; Function compile flags: /Ogsp
;	COMDAT ?end@?$vector@VioHashString@@V?$allocator@VioHashString@@@std@@@std@@QBE?AV?$_Vector_const_iterator@V?$_Vector_val@VioHashString@@V?$allocator@VioHashString@@@std@@@std@@@2@XZ
_TEXT	SEGMENT
___$ReturnUdt$ = 8					; size = 4
?end@?$vector@VioHashString@@V?$allocator@VioHashString@@@std@@@std@@QBE?AV?$_Vector_const_iterator@V?$_Vector_val@VioHashString@@V?$allocator@VioHashString@@@std@@@std@@@2@XZ PROC ; std::vector<ioHashString,std::allocator<ioHashString> >::end, COMDAT
; _this$ = ecx

; 796  : 		{	// return iterator for end of nonmutable sequence

  00000	55		 push	 ebp
  00001	8b ec		 mov	 ebp, esp

; 797  : 		return (const_iterator(this->_Mylast, this));

  00003	8b 49 04	 mov	 ecx, DWORD PTR [ecx+4]
  00006	8b 45 08	 mov	 eax, DWORD PTR ___$ReturnUdt$[ebp]
  00009	89 08		 mov	 DWORD PTR [eax], ecx

; 798  : 		}

  0000b	5d		 pop	 ebp
  0000c	c2 04 00	 ret	 4
?end@?$vector@VioHashString@@V?$allocator@VioHashString@@@std@@@std@@QBE?AV?$_Vector_const_iterator@V?$_Vector_val@VioHashString@@V?$allocator@VioHashString@@@std@@@std@@@2@XZ ENDP ; std::vector<ioHashString,std::allocator<ioHashString> >::end
_TEXT	ENDS
PUBLIC	??0?$_Vector_val@VioHashString@@V?$allocator@VioHashString@@@std@@@std@@QAE@V?$allocator@VioHashString@@@1@@Z ; std::_Vector_val<ioHashString,std::allocator<ioHashString> >::_Vector_val<ioHashString,std::allocator<ioHashString> >
; Function compile flags: /Ogsp
;	COMDAT ??0?$_Vector_val@VioHashString@@V?$allocator@VioHashString@@@std@@@std@@QAE@V?$allocator@VioHashString@@@1@@Z
_TEXT	SEGMENT
__Al$ = 8						; size = 1
??0?$_Vector_val@VioHashString@@V?$allocator@VioHashString@@@std@@@std@@QAE@V?$allocator@VioHashString@@@1@@Z PROC ; std::_Vector_val<ioHashString,std::allocator<ioHashString> >::_Vector_val<ioHashString,std::allocator<ioHashString> >, COMDAT
; _this$ = ecx

; 426  : 		{	// construct allocator from _Al

  00000	8b c1		 mov	 eax, ecx

; 427  : 		_Myfirst = 0;

  00002	33 c9		 xor	 ecx, ecx
  00004	89 08		 mov	 DWORD PTR [eax], ecx

; 428  : 		_Mylast = 0;

  00006	89 48 04	 mov	 DWORD PTR [eax+4], ecx

; 429  : 		_Myend = 0;

  00009	89 48 08	 mov	 DWORD PTR [eax+8], ecx

; 430  : 		}

  0000c	c2 04 00	 ret	 4
??0?$_Vector_val@VioHashString@@V?$allocator@VioHashString@@@std@@@std@@QAE@V?$allocator@VioHashString@@@1@@Z ENDP ; std::_Vector_val<ioHashString,std::allocator<ioHashString> >::_Vector_val<ioHashString,std::allocator<ioHashString> >
_TEXT	ENDS
PUBLIC	??0?$_Vector_val@UWeaponInfo@@V?$allocator@UWeaponInfo@@@std@@@std@@QAE@V?$allocator@UWeaponInfo@@@1@@Z ; std::_Vector_val<WeaponInfo,std::allocator<WeaponInfo> >::_Vector_val<WeaponInfo,std::allocator<WeaponInfo> >
; Function compile flags: /Ogsp
;	COMDAT ??0?$_Vector_val@UWeaponInfo@@V?$allocator@UWeaponInfo@@@std@@@std@@QAE@V?$allocator@UWeaponInfo@@@1@@Z
_TEXT	SEGMENT
__Al$ = 8						; size = 1
??0?$_Vector_val@UWeaponInfo@@V?$allocator@UWeaponInfo@@@std@@@std@@QAE@V?$allocator@UWeaponInfo@@@1@@Z PROC ; std::_Vector_val<WeaponInfo,std::allocator<WeaponInfo> >::_Vector_val<WeaponInfo,std::allocator<WeaponInfo> >, COMDAT
; _this$ = ecx

; 426  : 		{	// construct allocator from _Al

  00000	8b c1		 mov	 eax, ecx

; 427  : 		_Myfirst = 0;

  00002	33 c9		 xor	 ecx, ecx
  00004	89 08		 mov	 DWORD PTR [eax], ecx

; 428  : 		_Mylast = 0;

  00006	89 48 04	 mov	 DWORD PTR [eax+4], ecx

; 429  : 		_Myend = 0;

  00009	89 48 08	 mov	 DWORD PTR [eax+8], ecx

; 430  : 		}

  0000c	c2 04 00	 ret	 4
??0?$_Vector_val@UWeaponInfo@@V?$allocator@UWeaponInfo@@@std@@@std@@QAE@V?$allocator@UWeaponInfo@@@1@@Z ENDP ; std::_Vector_val<WeaponInfo,std::allocator<WeaponInfo> >::_Vector_val<WeaponInfo,std::allocator<WeaponInfo> >
_TEXT	ENDS
PUBLIC	??0?$_Vector_val@UForceInfo@@V?$allocator@UForceInfo@@@std@@@std@@QAE@V?$allocator@UForceInfo@@@1@@Z ; std::_Vector_val<ForceInfo,std::allocator<ForceInfo> >::_Vector_val<ForceInfo,std::allocator<ForceInfo> >
; Function compile flags: /Ogsp
;	COMDAT ??0?$_Vector_val@UForceInfo@@V?$allocator@UForceInfo@@@std@@@std@@QAE@V?$allocator@UForceInfo@@@1@@Z
_TEXT	SEGMENT
__Al$ = 8						; size = 1
??0?$_Vector_val@UForceInfo@@V?$allocator@UForceInfo@@@std@@@std@@QAE@V?$allocator@UForceInfo@@@1@@Z PROC ; std::_Vector_val<ForceInfo,std::allocator<ForceInfo> >::_Vector_val<ForceInfo,std::allocator<ForceInfo> >, COMDAT
; _this$ = ecx

; 426  : 		{	// construct allocator from _Al

  00000	8b c1		 mov	 eax, ecx

; 427  : 		_Myfirst = 0;

  00002	33 c9		 xor	 ecx, ecx
  00004	89 08		 mov	 DWORD PTR [eax], ecx

; 428  : 		_Mylast = 0;

  00006	89 48 04	 mov	 DWORD PTR [eax+4], ecx

; 429  : 		_Myend = 0;

  00009	89 48 08	 mov	 DWORD PTR [eax+8], ecx

; 430  : 		}

  0000c	c2 04 00	 ret	 4
??0?$_Vector_val@UForceInfo@@V?$allocator@UForceInfo@@@std@@@std@@QAE@V?$allocator@UForceInfo@@@1@@Z ENDP ; std::_Vector_val<ForceInfo,std::allocator<ForceInfo> >::_Vector_val<ForceInfo,std::allocator<ForceInfo> >
_TEXT	ENDS
PUBLIC	??0?$_Vector_val@UAttackAttribute@@V?$allocator@UAttackAttribute@@@std@@@std@@QAE@V?$allocator@UAttackAttribute@@@1@@Z ; std::_Vector_val<AttackAttribute,std::allocator<AttackAttribute> >::_Vector_val<AttackAttribute,std::allocator<AttackAttribute> >
; Function compile flags: /Ogsp
;	COMDAT ??0?$_Vector_val@UAttackAttribute@@V?$allocator@UAttackAttribute@@@std@@@std@@QAE@V?$allocator@UAttackAttribute@@@1@@Z
_TEXT	SEGMENT
__Al$ = 8						; size = 1
??0?$_Vector_val@UAttackAttribute@@V?$allocator@UAttackAttribute@@@std@@@std@@QAE@V?$allocator@UAttackAttribute@@@1@@Z PROC ; std::_Vector_val<AttackAttribute,std::allocator<AttackAttribute> >::_Vector_val<AttackAttribute,std::allocator<AttackAttribute> >, COMDAT
; _this$ = ecx

; 426  : 		{	// construct allocator from _Al

  00000	8b c1		 mov	 eax, ecx

; 427  : 		_Myfirst = 0;

  00002	33 c9		 xor	 ecx, ecx
  00004	89 08		 mov	 DWORD PTR [eax], ecx

; 428  : 		_Mylast = 0;

  00006	89 48 04	 mov	 DWORD PTR [eax+4], ecx

; 429  : 		_Myend = 0;

  00009	89 48 08	 mov	 DWORD PTR [eax+8], ecx

; 430  : 		}

  0000c	c2 04 00	 ret	 4
??0?$_Vector_val@UAttackAttribute@@V?$allocator@UAttackAttribute@@@std@@@std@@QAE@V?$allocator@UAttackAttribute@@@1@@Z ENDP ; std::_Vector_val<AttackAttribute,std::allocator<AttackAttribute> >::_Vector_val<AttackAttribute,std::allocator<AttackAttribute> >
_TEXT	ENDS
PUBLIC	?_Make_iter@?$vector@VioHashString@@V?$allocator@VioHashString@@@std@@@std@@QBE?AV?$_Vector_iterator@V?$_Vector_val@VioHashString@@V?$allocator@VioHashString@@@std@@@std@@@2@V?$_Vector_const_iterator@V?$_Vector_val@VioHashString@@V?$allocator@VioHashString@@@std@@@std@@@2@@Z ; std::vector<ioHashString,std::allocator<ioHashString> >::_Make_iter
; Function compile flags: /Ogsp
;	COMDAT ?_Make_iter@?$vector@VioHashString@@V?$allocator@VioHashString@@@std@@@std@@QBE?AV?$_Vector_iterator@V?$_Vector_val@VioHashString@@V?$allocator@VioHashString@@@std@@@std@@@2@V?$_Vector_const_iterator@V?$_Vector_val@VioHashString@@V?$allocator@VioHashString@@@std@@@std@@@2@@Z
_TEXT	SEGMENT
___$ReturnUdt$ = 8					; size = 4
__Where$ = 12						; size = 4
?_Make_iter@?$vector@VioHashString@@V?$allocator@VioHashString@@@std@@@std@@QBE?AV?$_Vector_iterator@V?$_Vector_val@VioHashString@@V?$allocator@VioHashString@@@std@@@std@@@2@V?$_Vector_const_iterator@V?$_Vector_val@VioHashString@@V?$allocator@VioHashString@@@std@@@std@@@2@@Z PROC ; std::vector<ioHashString,std::allocator<ioHashString> >::_Make_iter, COMDAT
; _this$ = ecx

; 801  : 		{	// make iterator from const_iterator

  00000	55		 push	 ebp
  00001	8b ec		 mov	 ebp, esp

; 802  : 		return (iterator(_Where._Ptr, this));

  00003	8b 45 08	 mov	 eax, DWORD PTR ___$ReturnUdt$[ebp]
  00006	8b 4d 0c	 mov	 ecx, DWORD PTR __Where$[ebp]
  00009	89 08		 mov	 DWORD PTR [eax], ecx

; 803  : 		}

  0000b	5d		 pop	 ebp
  0000c	c2 08 00	 ret	 8
?_Make_iter@?$vector@VioHashString@@V?$allocator@VioHashString@@@std@@@std@@QBE?AV?$_Vector_iterator@V?$_Vector_val@VioHashString@@V?$allocator@VioHashString@@@std@@@std@@@2@V?$_Vector_const_iterator@V?$_Vector_val@VioHashString@@V?$allocator@VioHashString@@@std@@@std@@@2@@Z ENDP ; std::vector<ioHashString,std::allocator<ioHashString> >::_Make_iter
_TEXT	ENDS
PUBLIC	?max_size@?$vector@VioHashString@@V?$allocator@VioHashString@@@std@@@std@@QBEIXZ ; std::vector<ioHashString,std::allocator<ioHashString> >::max_size
; Function compile flags: /Ogsp
;	COMDAT ?max_size@?$vector@VioHashString@@V?$allocator@VioHashString@@@std@@@std@@QBEIXZ
_TEXT	SEGMENT
?max_size@?$vector@VioHashString@@V?$allocator@VioHashString@@@std@@@std@@QBEIXZ PROC ; std::vector<ioHashString,std::allocator<ioHashString> >::max_size, COMDAT
; _this$ = ecx

; 884  : 		return (this->_Alval.max_size());

  00000	b8 ff ff ff 0f	 mov	 eax, 268435455		; 0fffffffH

; 885  : 		}

  00005	c3		 ret	 0
?max_size@?$vector@VioHashString@@V?$allocator@VioHashString@@@std@@@std@@QBEIXZ ENDP ; std::vector<ioHashString,std::allocator<ioHashString> >::max_size
_TEXT	ENDS
PUBLIC	?allocate@?$allocator@VioHashString@@@std@@QAEPAVioHashString@@I@Z ; std::allocator<ioHashString>::allocate
; Function compile flags: /Ogsp
; File c:\program files (x86)\microsoft visual studio 10.0\vc\include\xmemory
;	COMDAT ?allocate@?$allocator@VioHashString@@@std@@QAEPAVioHashString@@I@Z
_TEXT	SEGMENT
__Count$ = 8						; size = 4
?allocate@?$allocator@VioHashString@@@std@@QAEPAVioHashString@@I@Z PROC ; std::allocator<ioHashString>::allocate, COMDAT
; _this$ = ecx

; 186  : 		{	// allocate array of _Count elements

  00000	55		 push	 ebp
  00001	8b ec		 mov	 ebp, esp

; 187  : 		return (_Allocate(_Count, (pointer)0));

  00003	6a 00		 push	 0
  00005	ff 75 08	 push	 DWORD PTR __Count$[ebp]
  00008	e8 00 00 00 00	 call	 ??$_Allocate@VioHashString@@@std@@YAPAVioHashString@@IPAV1@@Z ; std::_Allocate<ioHashString>
  0000d	59		 pop	 ecx
  0000e	59		 pop	 ecx

; 188  : 		}

  0000f	5d		 pop	 ebp
  00010	c2 04 00	 ret	 4
?allocate@?$allocator@VioHashString@@@std@@QAEPAVioHashString@@I@Z ENDP ; std::allocator<ioHashString>::allocate
_TEXT	ENDS
PUBLIC	??0?$_Vector_iterator@V?$_Vector_val@UAttackAttribute@@V?$allocator@UAttackAttribute@@@std@@@std@@@std@@QAE@PAUAttackAttribute@@PBU_Container_base0@1@@Z ; std::_Vector_iterator<std::_Vector_val<AttackAttribute,std::allocator<AttackAttribute> > >::_Vector_iterator<std::_Vector_val<AttackAttribute,std::allocator<AttackAttribute> > >
; Function compile flags: /Ogsp
; File c:\program files (x86)\microsoft visual studio 10.0\vc\include\vector
;	COMDAT ??0?$_Vector_iterator@V?$_Vector_val@UAttackAttribute@@V?$allocator@UAttackAttribute@@@std@@@std@@@std@@QAE@PAUAttackAttribute@@PBU_Container_base0@1@@Z
_TEXT	SEGMENT
__Parg$ = 8						; size = 4
__Pvector$ = 12						; size = 4
??0?$_Vector_iterator@V?$_Vector_val@UAttackAttribute@@V?$allocator@UAttackAttribute@@@std@@@std@@@std@@QAE@PAUAttackAttribute@@PBU_Container_base0@1@@Z PROC ; std::_Vector_iterator<std::_Vector_val<AttackAttribute,std::allocator<AttackAttribute> > >::_Vector_iterator<std::_Vector_val<AttackAttribute,std::allocator<AttackAttribute> > >, COMDAT
; _this$ = ecx

; 304  : 		{	// construct with pointer _Parg

  00000	55		 push	 ebp
  00001	8b ec		 mov	 ebp, esp
  00003	8b c1		 mov	 eax, ecx
  00005	8b 4d 08	 mov	 ecx, DWORD PTR __Parg$[ebp]
  00008	89 08		 mov	 DWORD PTR [eax], ecx

; 305  : 		}

  0000a	5d		 pop	 ebp
  0000b	c2 08 00	 ret	 8
??0?$_Vector_iterator@V?$_Vector_val@UAttackAttribute@@V?$allocator@UAttackAttribute@@@std@@@std@@@std@@QAE@PAUAttackAttribute@@PBU_Container_base0@1@@Z ENDP ; std::_Vector_iterator<std::_Vector_val<AttackAttribute,std::allocator<AttackAttribute> > >::_Vector_iterator<std::_Vector_val<AttackAttribute,std::allocator<AttackAttribute> > >
_TEXT	ENDS
PUBLIC	??8?$_Vector_const_iterator@V?$_Vector_val@VioHashString@@V?$allocator@VioHashString@@@std@@@std@@@std@@QBE_NABV01@@Z ; std::_Vector_const_iterator<std::_Vector_val<ioHashString,std::allocator<ioHashString> > >::operator==
; Function compile flags: /Ogsp
;	COMDAT ??8?$_Vector_const_iterator@V?$_Vector_val@VioHashString@@V?$allocator@VioHashString@@@std@@@std@@@std@@QBE_NABV01@@Z
_TEXT	SEGMENT
__Right$ = 8						; size = 4
??8?$_Vector_const_iterator@V?$_Vector_val@VioHashString@@V?$allocator@VioHashString@@@std@@@std@@@std@@QBE_NABV01@@Z PROC ; std::_Vector_const_iterator<std::_Vector_val<ioHashString,std::allocator<ioHashString> > >::operator==, COMDAT
; _this$ = ecx

; 201  : 		{	// test for iterator equality

  00000	55		 push	 ebp
  00001	8b ec		 mov	 ebp, esp

; 202  : 		_Compat(_Right);
; 203  : 		return (this->_Ptr == _Right._Ptr);

  00003	8b 01		 mov	 eax, DWORD PTR [ecx]
  00005	8b 4d 08	 mov	 ecx, DWORD PTR __Right$[ebp]
  00008	2b 01		 sub	 eax, DWORD PTR [ecx]
  0000a	f7 d8		 neg	 eax
  0000c	1b c0		 sbb	 eax, eax
  0000e	40		 inc	 eax

; 204  : 		}

  0000f	5d		 pop	 ebp
  00010	c2 04 00	 ret	 4
??8?$_Vector_const_iterator@V?$_Vector_val@VioHashString@@V?$allocator@VioHashString@@@std@@@std@@@std@@QBE_NABV01@@Z ENDP ; std::_Vector_const_iterator<std::_Vector_val<ioHashString,std::allocator<ioHashString> > >::operator==
_TEXT	ENDS
PUBLIC	??8?$_Vector_const_iterator@V?$_Vector_val@UAttackAttribute@@V?$allocator@UAttackAttribute@@@std@@@std@@@std@@QBE_NABV01@@Z ; std::_Vector_const_iterator<std::_Vector_val<AttackAttribute,std::allocator<AttackAttribute> > >::operator==
; Function compile flags: /Ogsp
;	COMDAT ??8?$_Vector_const_iterator@V?$_Vector_val@UAttackAttribute@@V?$allocator@UAttackAttribute@@@std@@@std@@@std@@QBE_NABV01@@Z
_TEXT	SEGMENT
__Right$ = 8						; size = 4
??8?$_Vector_const_iterator@V?$_Vector_val@UAttackAttribute@@V?$allocator@UAttackAttribute@@@std@@@std@@@std@@QBE_NABV01@@Z PROC ; std::_Vector_const_iterator<std::_Vector_val<AttackAttribute,std::allocator<AttackAttribute> > >::operator==, COMDAT
; _this$ = ecx

; 201  : 		{	// test for iterator equality

  00000	55		 push	 ebp
  00001	8b ec		 mov	 ebp, esp

; 202  : 		_Compat(_Right);
; 203  : 		return (this->_Ptr == _Right._Ptr);

  00003	8b 01		 mov	 eax, DWORD PTR [ecx]
  00005	8b 4d 08	 mov	 ecx, DWORD PTR __Right$[ebp]
  00008	2b 01		 sub	 eax, DWORD PTR [ecx]
  0000a	f7 d8		 neg	 eax
  0000c	1b c0		 sbb	 eax, eax
  0000e	40		 inc	 eax

; 204  : 		}

  0000f	5d		 pop	 ebp
  00010	c2 04 00	 ret	 4
??8?$_Vector_const_iterator@V?$_Vector_val@UAttackAttribute@@V?$allocator@UAttackAttribute@@@std@@@std@@@std@@QBE_NABV01@@Z ENDP ; std::_Vector_const_iterator<std::_Vector_val<AttackAttribute,std::allocator<AttackAttribute> > >::operator==
_TEXT	ENDS
PUBLIC	??$_Move@PAVioHashString@@PAV1@@std@@YAPAVioHashString@@PAV1@00U_Nonscalar_ptr_iterator_tag@0@@Z ; std::_Move<ioHashString *,ioHashString *>
; Function compile flags: /Ogsp
; File c:\program files (x86)\microsoft visual studio 10.0\vc\include\xutility
;	COMDAT ??$_Move@PAVioHashString@@PAV1@@std@@YAPAVioHashString@@PAV1@00U_Nonscalar_ptr_iterator_tag@0@@Z
_TEXT	SEGMENT
__First$ = 8						; size = 4
__Last$ = 12						; size = 4
__Dest$ = 16						; size = 4
___formal$ = 20						; size = 1
??$_Move@PAVioHashString@@PAV1@@std@@YAPAVioHashString@@PAV1@00U_Nonscalar_ptr_iterator_tag@0@@Z PROC ; std::_Move<ioHashString *,ioHashString *>, COMDAT

; 2512 : 	{	// move [_First, _Last) to [_Dest, ...), arbitrary iterators

  00000	55		 push	 ebp
  00001	8b ec		 mov	 ebp, esp
  00003	56		 push	 esi

; 2513 : 	for (; _First != _Last; ++_Dest, ++_First)

  00004	8b 75 08	 mov	 esi, DWORD PTR __First$[ebp]
  00007	eb 11		 jmp	 SHORT $LN11@Move
$LL3@Move:

; 2514 : 		*_Dest = _STD move(*_First);

  00009	8b 4d 10	 mov	 ecx, DWORD PTR __Dest$[ebp]
  0000c	56		 push	 esi
  0000d	ff 15 00 00 00
	00		 call	 DWORD PTR __imp_??4ioHashString@@QAEAAV0@ABV0@@Z
  00013	83 45 10 10	 add	 DWORD PTR __Dest$[ebp], 16 ; 00000010H
  00017	83 c6 10	 add	 esi, 16			; 00000010H
$LN11@Move:

; 2513 : 	for (; _First != _Last; ++_Dest, ++_First)

  0001a	3b 75 0c	 cmp	 esi, DWORD PTR __Last$[ebp]
  0001d	75 ea		 jne	 SHORT $LL3@Move

; 2515 : 	return (_Dest);

  0001f	8b 45 10	 mov	 eax, DWORD PTR __Dest$[ebp]
  00022	5e		 pop	 esi

; 2516 : 	}

  00023	5d		 pop	 ebp
  00024	c3		 ret	 0
??$_Move@PAVioHashString@@PAV1@@std@@YAPAVioHashString@@PAV1@00U_Nonscalar_ptr_iterator_tag@0@@Z ENDP ; std::_Move<ioHashString *,ioHashString *>
_TEXT	ENDS
PUBLIC	?max_size@?$vector@UWeaponInfo@@V?$allocator@UWeaponInfo@@@std@@@std@@QBEIXZ ; std::vector<WeaponInfo,std::allocator<WeaponInfo> >::max_size
; Function compile flags: /Ogsp
; File c:\program files (x86)\microsoft visual studio 10.0\vc\include\vector
;	COMDAT ?max_size@?$vector@UWeaponInfo@@V?$allocator@UWeaponInfo@@@std@@@std@@QBEIXZ
_TEXT	SEGMENT
?max_size@?$vector@UWeaponInfo@@V?$allocator@UWeaponInfo@@@std@@@std@@QBEIXZ PROC ; std::vector<WeaponInfo,std::allocator<WeaponInfo> >::max_size, COMDAT
; _this$ = ecx

; 884  : 		return (this->_Alval.max_size());

  00000	b8 66 66 66 06	 mov	 eax, 107374182		; 06666666H

; 885  : 		}

  00005	c3		 ret	 0
?max_size@?$vector@UWeaponInfo@@V?$allocator@UWeaponInfo@@@std@@@std@@QBEIXZ ENDP ; std::vector<WeaponInfo,std::allocator<WeaponInfo> >::max_size
_TEXT	ENDS
PUBLIC	?allocate@?$allocator@UWeaponInfo@@@std@@QAEPAUWeaponInfo@@I@Z ; std::allocator<WeaponInfo>::allocate
; Function compile flags: /Ogsp
; File c:\program files (x86)\microsoft visual studio 10.0\vc\include\xmemory
;	COMDAT ?allocate@?$allocator@UWeaponInfo@@@std@@QAEPAUWeaponInfo@@I@Z
_TEXT	SEGMENT
__Count$ = 8						; size = 4
?allocate@?$allocator@UWeaponInfo@@@std@@QAEPAUWeaponInfo@@I@Z PROC ; std::allocator<WeaponInfo>::allocate, COMDAT
; _this$ = ecx

; 186  : 		{	// allocate array of _Count elements

  00000	55		 push	 ebp
  00001	8b ec		 mov	 ebp, esp

; 187  : 		return (_Allocate(_Count, (pointer)0));

  00003	6a 00		 push	 0
  00005	ff 75 08	 push	 DWORD PTR __Count$[ebp]
  00008	e8 00 00 00 00	 call	 ??$_Allocate@UWeaponInfo@@@std@@YAPAUWeaponInfo@@IPAU1@@Z ; std::_Allocate<WeaponInfo>
  0000d	59		 pop	 ecx
  0000e	59		 pop	 ecx

; 188  : 		}

  0000f	5d		 pop	 ebp
  00010	c2 04 00	 ret	 4
?allocate@?$allocator@UWeaponInfo@@@std@@QAEPAUWeaponInfo@@I@Z ENDP ; std::allocator<WeaponInfo>::allocate
_TEXT	ENDS
PUBLIC	?max_size@?$vector@UForceInfo@@V?$allocator@UForceInfo@@@std@@@std@@QBEIXZ ; std::vector<ForceInfo,std::allocator<ForceInfo> >::max_size
; Function compile flags: /Ogsp
; File c:\program files (x86)\microsoft visual studio 10.0\vc\include\vector
;	COMDAT ?max_size@?$vector@UForceInfo@@V?$allocator@UForceInfo@@@std@@@std@@QBEIXZ
_TEXT	SEGMENT
?max_size@?$vector@UForceInfo@@V?$allocator@UForceInfo@@@std@@@std@@QBEIXZ PROC ; std::vector<ForceInfo,std::allocator<ForceInfo> >::max_size, COMDAT
; _this$ = ecx

; 884  : 		return (this->_Alval.max_size());

  00000	b8 55 55 55 15	 mov	 eax, 357913941		; 15555555H

; 885  : 		}

  00005	c3		 ret	 0
?max_size@?$vector@UForceInfo@@V?$allocator@UForceInfo@@@std@@@std@@QBEIXZ ENDP ; std::vector<ForceInfo,std::allocator<ForceInfo> >::max_size
_TEXT	ENDS
PUBLIC	?allocate@?$allocator@UForceInfo@@@std@@QAEPAUForceInfo@@I@Z ; std::allocator<ForceInfo>::allocate
; Function compile flags: /Ogsp
; File c:\program files (x86)\microsoft visual studio 10.0\vc\include\xmemory
;	COMDAT ?allocate@?$allocator@UForceInfo@@@std@@QAEPAUForceInfo@@I@Z
_TEXT	SEGMENT
__Count$ = 8						; size = 4
?allocate@?$allocator@UForceInfo@@@std@@QAEPAUForceInfo@@I@Z PROC ; std::allocator<ForceInfo>::allocate, COMDAT
; _this$ = ecx

; 186  : 		{	// allocate array of _Count elements

  00000	55		 push	 ebp
  00001	8b ec		 mov	 ebp, esp

; 187  : 		return (_Allocate(_Count, (pointer)0));

  00003	6a 00		 push	 0
  00005	ff 75 08	 push	 DWORD PTR __Count$[ebp]
  00008	e8 00 00 00 00	 call	 ??$_Allocate@UForceInfo@@@std@@YAPAUForceInfo@@IPAU1@@Z ; std::_Allocate<ForceInfo>
  0000d	59		 pop	 ecx
  0000e	59		 pop	 ecx

; 188  : 		}

  0000f	5d		 pop	 ebp
  00010	c2 04 00	 ret	 4
?allocate@?$allocator@UForceInfo@@@std@@QAEPAUForceInfo@@I@Z ENDP ; std::allocator<ForceInfo>::allocate
_TEXT	ENDS
PUBLIC	??0?$_Vector_iterator@V?$_Vector_val@UWeaponInfo@@V?$allocator@UWeaponInfo@@@std@@@std@@@std@@QAE@PAUWeaponInfo@@PBU_Container_base0@1@@Z ; std::_Vector_iterator<std::_Vector_val<WeaponInfo,std::allocator<WeaponInfo> > >::_Vector_iterator<std::_Vector_val<WeaponInfo,std::allocator<WeaponInfo> > >
; Function compile flags: /Ogsp
; File c:\program files (x86)\microsoft visual studio 10.0\vc\include\vector
;	COMDAT ??0?$_Vector_iterator@V?$_Vector_val@UWeaponInfo@@V?$allocator@UWeaponInfo@@@std@@@std@@@std@@QAE@PAUWeaponInfo@@PBU_Container_base0@1@@Z
_TEXT	SEGMENT
__Parg$ = 8						; size = 4
__Pvector$ = 12						; size = 4
??0?$_Vector_iterator@V?$_Vector_val@UWeaponInfo@@V?$allocator@UWeaponInfo@@@std@@@std@@@std@@QAE@PAUWeaponInfo@@PBU_Container_base0@1@@Z PROC ; std::_Vector_iterator<std::_Vector_val<WeaponInfo,std::allocator<WeaponInfo> > >::_Vector_iterator<std::_Vector_val<WeaponInfo,std::allocator<WeaponInfo> > >, COMDAT
; _this$ = ecx

; 304  : 		{	// construct with pointer _Parg

  00000	55		 push	 ebp
  00001	8b ec		 mov	 ebp, esp
  00003	8b c1		 mov	 eax, ecx
  00005	8b 4d 08	 mov	 ecx, DWORD PTR __Parg$[ebp]
  00008	89 08		 mov	 DWORD PTR [eax], ecx

; 305  : 		}

  0000a	5d		 pop	 ebp
  0000b	c2 08 00	 ret	 8
??0?$_Vector_iterator@V?$_Vector_val@UWeaponInfo@@V?$allocator@UWeaponInfo@@@std@@@std@@@std@@QAE@PAUWeaponInfo@@PBU_Container_base0@1@@Z ENDP ; std::_Vector_iterator<std::_Vector_val<WeaponInfo,std::allocator<WeaponInfo> > >::_Vector_iterator<std::_Vector_val<WeaponInfo,std::allocator<WeaponInfo> > >
_TEXT	ENDS
PUBLIC	??0?$_Vector_iterator@V?$_Vector_val@UForceInfo@@V?$allocator@UForceInfo@@@std@@@std@@@std@@QAE@PAUForceInfo@@PBU_Container_base0@1@@Z ; std::_Vector_iterator<std::_Vector_val<ForceInfo,std::allocator<ForceInfo> > >::_Vector_iterator<std::_Vector_val<ForceInfo,std::allocator<ForceInfo> > >
; Function compile flags: /Ogsp
;	COMDAT ??0?$_Vector_iterator@V?$_Vector_val@UForceInfo@@V?$allocator@UForceInfo@@@std@@@std@@@std@@QAE@PAUForceInfo@@PBU_Container_base0@1@@Z
_TEXT	SEGMENT
__Parg$ = 8						; size = 4
__Pvector$ = 12						; size = 4
??0?$_Vector_iterator@V?$_Vector_val@UForceInfo@@V?$allocator@UForceInfo@@@std@@@std@@@std@@QAE@PAUForceInfo@@PBU_Container_base0@1@@Z PROC ; std::_Vector_iterator<std::_Vector_val<ForceInfo,std::allocator<ForceInfo> > >::_Vector_iterator<std::_Vector_val<ForceInfo,std::allocator<ForceInfo> > >, COMDAT
; _this$ = ecx

; 304  : 		{	// construct with pointer _Parg

  00000	55		 push	 ebp
  00001	8b ec		 mov	 ebp, esp
  00003	8b c1		 mov	 eax, ecx
  00005	8b 4d 08	 mov	 ecx, DWORD PTR __Parg$[ebp]
  00008	89 08		 mov	 DWORD PTR [eax], ecx

; 305  : 		}

  0000a	5d		 pop	 ebp
  0000b	c2 08 00	 ret	 8
??0?$_Vector_iterator@V?$_Vector_val@UForceInfo@@V?$allocator@UForceInfo@@@std@@@std@@@std@@QAE@PAUForceInfo@@PBU_Container_base0@1@@Z ENDP ; std::_Vector_iterator<std::_Vector_val<ForceInfo,std::allocator<ForceInfo> > >::_Vector_iterator<std::_Vector_val<ForceInfo,std::allocator<ForceInfo> > >
_TEXT	ENDS
PUBLIC	??8?$_Vector_const_iterator@V?$_Vector_val@UWeaponInfo@@V?$allocator@UWeaponInfo@@@std@@@std@@@std@@QBE_NABV01@@Z ; std::_Vector_const_iterator<std::_Vector_val<WeaponInfo,std::allocator<WeaponInfo> > >::operator==
; Function compile flags: /Ogsp
;	COMDAT ??8?$_Vector_const_iterator@V?$_Vector_val@UWeaponInfo@@V?$allocator@UWeaponInfo@@@std@@@std@@@std@@QBE_NABV01@@Z
_TEXT	SEGMENT
__Right$ = 8						; size = 4
??8?$_Vector_const_iterator@V?$_Vector_val@UWeaponInfo@@V?$allocator@UWeaponInfo@@@std@@@std@@@std@@QBE_NABV01@@Z PROC ; std::_Vector_const_iterator<std::_Vector_val<WeaponInfo,std::allocator<WeaponInfo> > >::operator==, COMDAT
; _this$ = ecx

; 201  : 		{	// test for iterator equality

  00000	55		 push	 ebp
  00001	8b ec		 mov	 ebp, esp

; 202  : 		_Compat(_Right);
; 203  : 		return (this->_Ptr == _Right._Ptr);

  00003	8b 01		 mov	 eax, DWORD PTR [ecx]
  00005	8b 4d 08	 mov	 ecx, DWORD PTR __Right$[ebp]
  00008	2b 01		 sub	 eax, DWORD PTR [ecx]
  0000a	f7 d8		 neg	 eax
  0000c	1b c0		 sbb	 eax, eax
  0000e	40		 inc	 eax

; 204  : 		}

  0000f	5d		 pop	 ebp
  00010	c2 04 00	 ret	 4
??8?$_Vector_const_iterator@V?$_Vector_val@UWeaponInfo@@V?$allocator@UWeaponInfo@@@std@@@std@@@std@@QBE_NABV01@@Z ENDP ; std::_Vector_const_iterator<std::_Vector_val<WeaponInfo,std::allocator<WeaponInfo> > >::operator==
_TEXT	ENDS
PUBLIC	??8?$_Vector_const_iterator@V?$_Vector_val@UForceInfo@@V?$allocator@UForceInfo@@@std@@@std@@@std@@QBE_NABV01@@Z ; std::_Vector_const_iterator<std::_Vector_val<ForceInfo,std::allocator<ForceInfo> > >::operator==
; Function compile flags: /Ogsp
;	COMDAT ??8?$_Vector_const_iterator@V?$_Vector_val@UForceInfo@@V?$allocator@UForceInfo@@@std@@@std@@@std@@QBE_NABV01@@Z
_TEXT	SEGMENT
__Right$ = 8						; size = 4
??8?$_Vector_const_iterator@V?$_Vector_val@UForceInfo@@V?$allocator@UForceInfo@@@std@@@std@@@std@@QBE_NABV01@@Z PROC ; std::_Vector_const_iterator<std::_Vector_val<ForceInfo,std::allocator<ForceInfo> > >::operator==, COMDAT
; _this$ = ecx

; 201  : 		{	// test for iterator equality

  00000	55		 push	 ebp
  00001	8b ec		 mov	 ebp, esp

; 202  : 		_Compat(_Right);
; 203  : 		return (this->_Ptr == _Right._Ptr);

  00003	8b 01		 mov	 eax, DWORD PTR [ecx]
  00005	8b 4d 08	 mov	 ecx, DWORD PTR __Right$[ebp]
  00008	2b 01		 sub	 eax, DWORD PTR [ecx]
  0000a	f7 d8		 neg	 eax
  0000c	1b c0		 sbb	 eax, eax
  0000e	40		 inc	 eax

; 204  : 		}

  0000f	5d		 pop	 ebp
  00010	c2 04 00	 ret	 4
??8?$_Vector_const_iterator@V?$_Vector_val@UForceInfo@@V?$allocator@UForceInfo@@@std@@@std@@@std@@QBE_NABV01@@Z ENDP ; std::_Vector_const_iterator<std::_Vector_val<ForceInfo,std::allocator<ForceInfo> > >::operator==
_TEXT	ENDS
PUBLIC	??$_Copy_impl@PAUForceInfo@@PAU1@@std@@YAPAUForceInfo@@PAU1@00@Z ; std::_Copy_impl<ForceInfo *,ForceInfo *>
; Function compile flags: /Ogsp
; File c:\program files (x86)\microsoft visual studio 10.0\vc\include\xutility
;	COMDAT ??$_Copy_impl@PAUForceInfo@@PAU1@@std@@YAPAUForceInfo@@PAU1@00@Z
_TEXT	SEGMENT
__Cat$607319 = -4					; size = 1
__First$ = 8						; size = 4
__Last$ = 12						; size = 4
__Dest$ = 16						; size = 4
??$_Copy_impl@PAUForceInfo@@PAU1@@std@@YAPAUForceInfo@@PAU1@00@Z PROC ; std::_Copy_impl<ForceInfo *,ForceInfo *>, COMDAT

; 2163 : 	{	// copy [_First, _Last) to [_Dest, ...)

  00000	55		 push	 ebp
  00001	8b ec		 mov	 ebp, esp
  00003	51		 push	 ecx

; 2164 : 	return (_Copy_impl(_First, _Last,
; 2165 : 		_Dest, _Ptr_cat(_First, _Dest)));

  00004	ff 75 fc	 push	 DWORD PTR __Cat$607319[ebp]
  00007	ff 75 10	 push	 DWORD PTR __Dest$[ebp]
  0000a	ff 75 0c	 push	 DWORD PTR __Last$[ebp]
  0000d	ff 75 08	 push	 DWORD PTR __First$[ebp]
  00010	e8 00 00 00 00	 call	 ??$_Copy_impl@PAUForceInfo@@PAU1@@std@@YAPAUForceInfo@@PAU1@00U_Nonscalar_ptr_iterator_tag@0@@Z ; std::_Copy_impl<ForceInfo *,ForceInfo *>
  00015	83 c4 10	 add	 esp, 16			; 00000010H

; 2166 : 	}

  00018	c9		 leave
  00019	c3		 ret	 0
??$_Copy_impl@PAUForceInfo@@PAU1@@std@@YAPAUForceInfo@@PAU1@00@Z ENDP ; std::_Copy_impl<ForceInfo *,ForceInfo *>
_TEXT	ENDS
PUBLIC	?destroy@?$allocator@UForceInfo@@@std@@QAEXPAUForceInfo@@@Z ; std::allocator<ForceInfo>::destroy
; Function compile flags: /Ogsp
; File c:\program files (x86)\microsoft visual studio 10.0\vc\include\xmemory
;	COMDAT ?destroy@?$allocator@UForceInfo@@@std@@QAEXPAUForceInfo@@@Z
_TEXT	SEGMENT
__Ptr$ = 8						; size = 4
?destroy@?$allocator@UForceInfo@@@std@@QAEXPAUForceInfo@@@Z PROC ; std::allocator<ForceInfo>::destroy, COMDAT
; _this$ = ecx

; 213  : 		_Destroy(_Ptr);
; 214  : 		}

  00000	c2 04 00	 ret	 4
?destroy@?$allocator@UForceInfo@@@std@@QAEXPAUForceInfo@@@Z ENDP ; std::allocator<ForceInfo>::destroy
_TEXT	ENDS
PUBLIC	??$_Copy_impl@PAUWeaponInfo@@PAU1@@std@@YAPAUWeaponInfo@@PAU1@00U_Nonscalar_ptr_iterator_tag@0@@Z ; std::_Copy_impl<WeaponInfo *,WeaponInfo *>
; Function compile flags: /Ogsp
; File c:\program files (x86)\microsoft visual studio 10.0\vc\include\xutility
;	COMDAT ??$_Copy_impl@PAUWeaponInfo@@PAU1@@std@@YAPAUWeaponInfo@@PAU1@00U_Nonscalar_ptr_iterator_tag@0@@Z
_TEXT	SEGMENT
__First$ = 8						; size = 4
__Last$ = 12						; size = 4
__Dest$ = 16						; size = 4
___formal$ = 20						; size = 1
??$_Copy_impl@PAUWeaponInfo@@PAU1@@std@@YAPAUWeaponInfo@@PAU1@00U_Nonscalar_ptr_iterator_tag@0@@Z PROC ; std::_Copy_impl<WeaponInfo *,WeaponInfo *>, COMDAT

; 2142 : 	{	// copy [_First, _Last) to [_Dest, ...), arbitrary iterators

  00000	55		 push	 ebp
  00001	8b ec		 mov	 ebp, esp
  00003	56		 push	 esi

; 2143 : 	for (; _First != _Last; ++_Dest, ++_First)

  00004	8b 75 08	 mov	 esi, DWORD PTR __First$[ebp]
  00007	eb 10		 jmp	 SHORT $LN9@Copy_impl@2
$LL3@Copy_impl@2:

; 2144 : 		*_Dest = *_First;

  00009	8b 4d 10	 mov	 ecx, DWORD PTR __Dest$[ebp]
  0000c	56		 push	 esi
  0000d	e8 00 00 00 00	 call	 ??4WeaponInfo@@QAEAAU0@ABU0@@Z
  00012	83 45 10 28	 add	 DWORD PTR __Dest$[ebp], 40 ; 00000028H
  00016	83 c6 28	 add	 esi, 40			; 00000028H
$LN9@Copy_impl@2:

; 2143 : 	for (; _First != _Last; ++_Dest, ++_First)

  00019	3b 75 0c	 cmp	 esi, DWORD PTR __Last$[ebp]
  0001c	75 eb		 jne	 SHORT $LL3@Copy_impl@2

; 2145 : 	return (_Dest);

  0001e	8b 45 10	 mov	 eax, DWORD PTR __Dest$[ebp]
  00021	5e		 pop	 esi

; 2146 : 	}

  00022	5d		 pop	 ebp
  00023	c3		 ret	 0
??$_Copy_impl@PAUWeaponInfo@@PAU1@@std@@YAPAUWeaponInfo@@PAU1@00U_Nonscalar_ptr_iterator_tag@0@@Z ENDP ; std::_Copy_impl<WeaponInfo *,WeaponInfo *>
_TEXT	ENDS
PUBLIC	??$_Move@PAUWeaponInfo@@PAU1@@std@@YAPAUWeaponInfo@@PAU1@00U_Nonscalar_ptr_iterator_tag@0@@Z ; std::_Move<WeaponInfo *,WeaponInfo *>
; Function compile flags: /Ogsp
;	COMDAT ??$_Move@PAUWeaponInfo@@PAU1@@std@@YAPAUWeaponInfo@@PAU1@00U_Nonscalar_ptr_iterator_tag@0@@Z
_TEXT	SEGMENT
__First$ = 8						; size = 4
__Last$ = 12						; size = 4
__Dest$ = 16						; size = 4
___formal$ = 20						; size = 1
??$_Move@PAUWeaponInfo@@PAU1@@std@@YAPAUWeaponInfo@@PAU1@00U_Nonscalar_ptr_iterator_tag@0@@Z PROC ; std::_Move<WeaponInfo *,WeaponInfo *>, COMDAT

; 2512 : 	{	// move [_First, _Last) to [_Dest, ...), arbitrary iterators

  00000	55		 push	 ebp
  00001	8b ec		 mov	 ebp, esp
  00003	56		 push	 esi

; 2513 : 	for (; _First != _Last; ++_Dest, ++_First)

  00004	8b 75 08	 mov	 esi, DWORD PTR __First$[ebp]
  00007	eb 10		 jmp	 SHORT $LN11@Move@2
$LL3@Move@2:

; 2514 : 		*_Dest = _STD move(*_First);

  00009	8b 4d 10	 mov	 ecx, DWORD PTR __Dest$[ebp]
  0000c	56		 push	 esi
  0000d	e8 00 00 00 00	 call	 ??4WeaponInfo@@QAEAAU0@ABU0@@Z
  00012	83 45 10 28	 add	 DWORD PTR __Dest$[ebp], 40 ; 00000028H
  00016	83 c6 28	 add	 esi, 40			; 00000028H
$LN11@Move@2:

; 2513 : 	for (; _First != _Last; ++_Dest, ++_First)

  00019	3b 75 0c	 cmp	 esi, DWORD PTR __Last$[ebp]
  0001c	75 eb		 jne	 SHORT $LL3@Move@2

; 2515 : 	return (_Dest);

  0001e	8b 45 10	 mov	 eax, DWORD PTR __Dest$[ebp]
  00021	5e		 pop	 esi

; 2516 : 	}

  00022	5d		 pop	 ebp
  00023	c3		 ret	 0
??$_Move@PAUWeaponInfo@@PAU1@@std@@YAPAUWeaponInfo@@PAU1@00U_Nonscalar_ptr_iterator_tag@0@@Z ENDP ; std::_Move<WeaponInfo *,WeaponInfo *>
_TEXT	ENDS
PUBLIC	??$_Move@PAUForceInfo@@PAU1@@std@@YAPAUForceInfo@@PAU1@00U_Nonscalar_ptr_iterator_tag@0@@Z ; std::_Move<ForceInfo *,ForceInfo *>
; Function compile flags: /Ogsp
;	COMDAT ??$_Move@PAUForceInfo@@PAU1@@std@@YAPAUForceInfo@@PAU1@00U_Nonscalar_ptr_iterator_tag@0@@Z
_TEXT	SEGMENT
__First$ = 8						; size = 4
__Last$ = 12						; size = 4
__Dest$ = 16						; size = 4
___formal$ = 20						; size = 1
??$_Move@PAUForceInfo@@PAU1@@std@@YAPAUForceInfo@@PAU1@00U_Nonscalar_ptr_iterator_tag@0@@Z PROC ; std::_Move<ForceInfo *,ForceInfo *>, COMDAT

; 2512 : 	{	// move [_First, _Last) to [_Dest, ...), arbitrary iterators

  00000	55		 push	 ebp
  00001	8b ec		 mov	 ebp, esp

; 2513 : 	for (; _First != _Last; ++_Dest, ++_First)

  00003	8b 45 08	 mov	 eax, DWORD PTR __First$[ebp]
  00006	3b 45 0c	 cmp	 eax, DWORD PTR __Last$[ebp]
  00009	74 18		 je	 SHORT $LN10@Move@3
  0000b	56		 push	 esi
  0000c	57		 push	 edi
$LL3@Move@3:

; 2514 : 		*_Dest = _STD move(*_First);

  0000d	8b 7d 10	 mov	 edi, DWORD PTR __Dest$[ebp]
  00010	83 45 10 0c	 add	 DWORD PTR __Dest$[ebp], 12 ; 0000000cH
  00014	8b f0		 mov	 esi, eax
  00016	a5		 movsd
  00017	a5		 movsd
  00018	83 c0 0c	 add	 eax, 12			; 0000000cH
  0001b	a5		 movsd
  0001c	3b 45 0c	 cmp	 eax, DWORD PTR __Last$[ebp]
  0001f	75 ec		 jne	 SHORT $LL3@Move@3
  00021	5f		 pop	 edi
  00022	5e		 pop	 esi
$LN10@Move@3:

; 2515 : 	return (_Dest);

  00023	8b 45 10	 mov	 eax, DWORD PTR __Dest$[ebp]

; 2516 : 	}

  00026	5d		 pop	 ebp
  00027	c3		 ret	 0
??$_Move@PAUForceInfo@@PAU1@@std@@YAPAUForceInfo@@PAU1@00U_Nonscalar_ptr_iterator_tag@0@@Z ENDP ; std::_Move<ForceInfo *,ForceInfo *>
_TEXT	ENDS
PUBLIC	??$_Destroy@VioHashString@@@std@@YAXPAVioHashString@@@Z ; std::_Destroy<ioHashString>
; Function compile flags: /Ogsp
; File c:\program files (x86)\microsoft visual studio 10.0\vc\include\xmemory
;	COMDAT ??$_Destroy@VioHashString@@@std@@YAXPAVioHashString@@@Z
_TEXT	SEGMENT
__Ptr$ = 8						; size = 4
??$_Destroy@VioHashString@@@std@@YAXPAVioHashString@@@Z PROC ; std::_Destroy<ioHashString>, COMDAT

; 62   : 	{	// destroy object at _Ptr

  00000	55		 push	 ebp
  00001	8b ec		 mov	 ebp, esp

; 63   : 	_Ptr->~_Ty();

  00003	8b 4d 08	 mov	 ecx, DWORD PTR __Ptr$[ebp]

; 64   : 	}

  00006	5d		 pop	 ebp

; 63   : 	_Ptr->~_Ty();

  00007	ff 25 00 00 00
	00		 jmp	 DWORD PTR __imp_??1ioHashString@@QAE@XZ
??$_Destroy@VioHashString@@@std@@YAXPAVioHashString@@@Z ENDP ; std::_Destroy<ioHashString>
_TEXT	ENDS
PUBLIC	??$_Destroy@UWeaponInfo@@@std@@YAXPAUWeaponInfo@@@Z ; std::_Destroy<WeaponInfo>
; Function compile flags: /Ogsp
;	COMDAT ??$_Destroy@UWeaponInfo@@@std@@YAXPAUWeaponInfo@@@Z
_TEXT	SEGMENT
__Ptr$ = 8						; size = 4
??$_Destroy@UWeaponInfo@@@std@@YAXPAUWeaponInfo@@@Z PROC ; std::_Destroy<WeaponInfo>, COMDAT

; 62   : 	{	// destroy object at _Ptr

  00000	55		 push	 ebp
  00001	8b ec		 mov	 ebp, esp

; 63   : 	_Ptr->~_Ty();

  00003	8b 4d 08	 mov	 ecx, DWORD PTR __Ptr$[ebp]
  00006	83 c1 08	 add	 ecx, 8

; 64   : 	}

  00009	5d		 pop	 ebp

; 63   : 	_Ptr->~_Ty();

  0000a	ff 25 00 00 00
	00		 jmp	 DWORD PTR __imp_??1ioHashString@@QAE@XZ
??$_Destroy@UWeaponInfo@@@std@@YAXPAUWeaponInfo@@@Z ENDP ; std::_Destroy<WeaponInfo>
_TEXT	ENDS
PUBLIC	?construct@?$allocator@VioHashString@@@std@@QAEXPAVioHashString@@ABV3@@Z ; std::allocator<ioHashString>::construct
; Function compile flags: /Ogsp
;	COMDAT ?construct@?$allocator@VioHashString@@@std@@QAEXPAVioHashString@@ABV3@@Z
_TEXT	SEGMENT
__Ptr$ = 8						; size = 4
__Val$ = 12						; size = 4
?construct@?$allocator@VioHashString@@@std@@QAEXPAVioHashString@@ABV3@@Z PROC ; std::allocator<ioHashString>::construct, COMDAT
; _this$ = ecx

; 196  : 		{	// construct object at _Ptr with value _Val

  00000	55		 push	 ebp
  00001	8b ec		 mov	 ebp, esp

; 197  : 		_Construct(_Ptr, _Val);

  00003	ff 75 0c	 push	 DWORD PTR __Val$[ebp]
  00006	ff 75 08	 push	 DWORD PTR __Ptr$[ebp]
  00009	e8 00 00 00 00	 call	 ??$_Construct@VioHashString@@ABV1@@std@@YAXPAVioHashString@@ABV1@@Z ; std::_Construct<ioHashString,ioHashString const &>
  0000e	59		 pop	 ecx
  0000f	59		 pop	 ecx

; 198  : 		}

  00010	5d		 pop	 ebp
  00011	c2 08 00	 ret	 8
?construct@?$allocator@VioHashString@@@std@@QAEXPAVioHashString@@ABV3@@Z ENDP ; std::allocator<ioHashString>::construct
_TEXT	ENDS
PUBLIC	??$_Cons_val@V?$allocator@UForceInfo@@@std@@UForceInfo@@AAU3@@std@@YAXAAV?$allocator@UForceInfo@@@0@PAUForceInfo@@AAU2@@Z ; std::_Cons_val<std::allocator<ForceInfo>,ForceInfo,ForceInfo &>
; Function compile flags: /Ogsp
;	COMDAT ??$_Cons_val@V?$allocator@UForceInfo@@@std@@UForceInfo@@AAU3@@std@@YAXAAV?$allocator@UForceInfo@@@0@PAUForceInfo@@AAU2@@Z
_TEXT	SEGMENT
__Alval$ = 8						; size = 4
__Pdest$ = 12						; size = 4
__Src$ = 16						; size = 4
??$_Cons_val@V?$allocator@UForceInfo@@@std@@UForceInfo@@AAU3@@std@@YAXAAV?$allocator@UForceInfo@@@0@PAUForceInfo@@AAU2@@Z PROC ; std::_Cons_val<std::allocator<ForceInfo>,ForceInfo,ForceInfo &>, COMDAT

; 279  : 	{	// construct using allocator

  00000	55		 push	 ebp
  00001	8b ec		 mov	 ebp, esp
  00003	57		 push	 edi

; 280  : 	_Alval.construct(_Pdest, _STD forward<_Ty2>(_Src));

  00004	8b 7d 0c	 mov	 edi, DWORD PTR __Pdest$[ebp]
  00007	85 ff		 test	 edi, edi
  00009	74 08		 je	 SHORT $LN7@Cons_val
  0000b	56		 push	 esi
  0000c	8b 75 10	 mov	 esi, DWORD PTR __Src$[ebp]
  0000f	a5		 movsd
  00010	a5		 movsd
  00011	a5		 movsd
  00012	5e		 pop	 esi
$LN7@Cons_val:
  00013	5f		 pop	 edi

; 281  : 	}

  00014	5d		 pop	 ebp
  00015	c3		 ret	 0
??$_Cons_val@V?$allocator@UForceInfo@@@std@@UForceInfo@@AAU3@@std@@YAXAAV?$allocator@UForceInfo@@@0@PAUForceInfo@@AAU2@@Z ENDP ; std::_Cons_val<std::allocator<ForceInfo>,ForceInfo,ForceInfo &>
_TEXT	ENDS
PUBLIC	??$construct@AAUWeaponInfo@@@?$allocator@UWeaponInfo@@@std@@QAEXPAUWeaponInfo@@AAU2@@Z ; std::allocator<WeaponInfo>::construct<WeaponInfo &>
;	COMDAT xdata$x
; File c:\program files (x86)\microsoft visual studio 10.0\vc\include\utility
xdata$x	SEGMENT
__unwindtable$??$construct@AAUWeaponInfo@@@?$allocator@UWeaponInfo@@@std@@QAEXPAUWeaponInfo@@AAU2@@Z DD 0ffffffffH
	DD	FLAT:__unwindfunclet$??$construct@AAUWeaponInfo@@@?$allocator@UWeaponInfo@@@std@@QAEXPAUWeaponInfo@@AAU2@@Z$0
__ehfuncinfo$??$construct@AAUWeaponInfo@@@?$allocator@UWeaponInfo@@@std@@QAEXPAUWeaponInfo@@AAU2@@Z DD 019930522H
	DD	01H
	DD	FLAT:__unwindtable$??$construct@AAUWeaponInfo@@@?$allocator@UWeaponInfo@@@std@@QAEXPAUWeaponInfo@@AAU2@@Z
	DD	2 DUP(00H)
	DD	2 DUP(00H)
	DD	00H
	DD	01H
; Function compile flags: /Ogsp
; File c:\program files (x86)\microsoft visual studio 10.0\vc\include\xmemory
xdata$x	ENDS
;	COMDAT ??$construct@AAUWeaponInfo@@@?$allocator@UWeaponInfo@@@std@@QAEXPAUWeaponInfo@@AAU2@@Z
_TEXT	SEGMENT
$T607400 = -16						; size = 4
__$EHRec$ = -12						; size = 12
__Ptr$ = 8						; size = 4
__Val$ = 12						; size = 4
??$construct@AAUWeaponInfo@@@?$allocator@UWeaponInfo@@@std@@QAEXPAUWeaponInfo@@AAU2@@Z PROC ; std::allocator<WeaponInfo>::construct<WeaponInfo &>, COMDAT
; _this$ = ecx

; 206  : 		void construct(pointer _Ptr, _Other&& _Val)

  00000	6a 04		 push	 4
  00002	b8 00 00 00 00	 mov	 eax, __ehhandler$??$construct@AAUWeaponInfo@@@?$allocator@UWeaponInfo@@@std@@QAEXPAUWeaponInfo@@AAU2@@Z
  00007	e8 00 00 00 00	 call	 __EH_prolog3

; 207  : 		{	// construct object at _Ptr with value _Val
; 208  : 		::new ((void _FARQ *)_Ptr) _Ty(_STD forward<_Other>(_Val));

  0000c	8b 4d 08	 mov	 ecx, DWORD PTR __Ptr$[ebp]
  0000f	89 4d f0	 mov	 DWORD PTR $T607400[ebp], ecx
  00012	83 65 fc 00	 and	 DWORD PTR __$EHRec$[ebp+8], 0
  00016	85 c9		 test	 ecx, ecx
  00018	74 08		 je	 SHORT $LN3@construct@4
  0001a	ff 75 0c	 push	 DWORD PTR __Val$[ebp]
  0001d	e8 00 00 00 00	 call	 ??0WeaponInfo@@QAE@ABU0@@Z
$LN3@construct@4:

; 209  : 		}

  00022	e8 00 00 00 00	 call	 __EH_epilog3
  00027	c2 08 00	 ret	 8
_TEXT	ENDS
;	COMDAT text$x
text$x	SEGMENT
__unwindfunclet$??$construct@AAUWeaponInfo@@@?$allocator@UWeaponInfo@@@std@@QAEXPAUWeaponInfo@@AAU2@@Z$0:
  00000	ff 75 08	 push	 DWORD PTR __Ptr$[ebp]
  00003	ff 75 f0	 push	 DWORD PTR $T607400[ebp]
  00006	e8 00 00 00 00	 call	 ??3@YAXPAX0@Z		; operator delete
  0000b	59		 pop	 ecx
  0000c	59		 pop	 ecx
  0000d	c3		 ret	 0
__ehhandler$??$construct@AAUWeaponInfo@@@?$allocator@UWeaponInfo@@@std@@QAEXPAUWeaponInfo@@AAU2@@Z:
  0000e	8b 54 24 08	 mov	 edx, DWORD PTR [esp+8]
  00012	8d 42 0c	 lea	 eax, DWORD PTR [edx+12]
  00015	8b 4a ec	 mov	 ecx, DWORD PTR [edx-20]
  00018	33 c8		 xor	 ecx, eax
  0001a	e8 00 00 00 00	 call	 @__security_check_cookie@4
  0001f	b8 00 00 00 00	 mov	 eax, OFFSET __ehfuncinfo$??$construct@AAUWeaponInfo@@@?$allocator@UWeaponInfo@@@std@@QAEXPAUWeaponInfo@@AAU2@@Z
  00024	e9 00 00 00 00	 jmp	 ___CxxFrameHandler3
text$x	ENDS
??$construct@AAUWeaponInfo@@@?$allocator@UWeaponInfo@@@std@@QAEXPAUWeaponInfo@@AAU2@@Z ENDP ; std::allocator<WeaponInfo>::construct<WeaponInfo &>
PUBLIC	?GetJumpState@ioBaseChar@@QBE?AW4JumpState@@XZ	; ioBaseChar::GetJumpState
; Function compile flags: /Ogsp
; File d:\lost saga for developer\youtube\tutorial\source\src\lsclient\iobasechar.h
;	COMDAT ?GetJumpState@ioBaseChar@@QBE?AW4JumpState@@XZ
_TEXT	SEGMENT
_value$607421 = -4					; size = 4
?GetJumpState@ioBaseChar@@QBE?AW4JumpState@@XZ PROC	; ioBaseChar::GetJumpState, COMDAT
; _this$ = ecx

; 2158 : 	inline JumpState GetJumpState() const { return m_JumpState; }

  00000	55		 push	 ebp
  00001	8b ec		 mov	 ebp, esp
  00003	51		 push	 ecx
  00004	8d 45 fc	 lea	 eax, DWORD PTR _value$607421[ebp]
  00007	50		 push	 eax
  00008	81 c1 40 0e 00
	00		 add	 ecx, 3648		; 00000e40H
  0000e	e8 00 00 00 00	 call	 ?DecryptValueToPool@?$CEncrypt@W4JumpState@@@@QAEXPAW4JumpState@@@Z ; CEncrypt<enum JumpState>::DecryptValueToPool
  00013	8b 45 fc	 mov	 eax, DWORD PTR _value$607421[ebp]
  00016	c9		 leave
  00017	c3		 ret	 0
?GetJumpState@ioBaseChar@@QBE?AW4JumpState@@XZ ENDP	; ioBaseChar::GetJumpState
_TEXT	ENDS
PUBLIC	?OnReleased@ioConsecutionItem@@UAEXPAVioBaseChar@@@Z ; ioConsecutionItem::OnReleased
EXTRN	?OnReleased@ioAttackableItem@@UAEXPAVioBaseChar@@@Z:PROC ; ioAttackableItem::OnReleased
; Function compile flags: /Ogsp
; File d:\lost saga for developer\youtube\tutorial\source\src\lsclient\ioconsecutionitem.cpp
;	COMDAT ?OnReleased@ioConsecutionItem@@UAEXPAVioBaseChar@@@Z
_TEXT	SEGMENT
_value$607432 = -4					; size = 4
_value$607428 = -4					; size = 4
_pOwner$ = 8						; size = 4
?OnReleased@ioConsecutionItem@@UAEXPAVioBaseChar@@@Z PROC ; ioConsecutionItem::OnReleased, COMDAT
; _this$ = ecx

; 96   : {

  00000	55		 push	 ebp
  00001	8b ec		 mov	 ebp, esp
  00003	51		 push	 ecx

; 97   : 	m_iCurConsecutionCnt = 0;

  00004	83 65 fc 00	 and	 DWORD PTR _value$607428[ebp], 0
  00008	56		 push	 esi
  00009	8b f1		 mov	 esi, ecx
  0000b	8d 45 fc	 lea	 eax, DWORD PTR _value$607428[ebp]
  0000e	50		 push	 eax
  0000f	8d 8e 04 1a 00
	00		 lea	 ecx, DWORD PTR [esi+6660]
  00015	e8 00 00 00 00	 call	 ?EncryptValueToPool@?$CEncrypt@H@@AAEXPBD@Z ; CEncrypt<int>::EncryptValueToPool

; 98   : 	m_dwConsecutionCheckTime = 0;

  0001a	83 65 fc 00	 and	 DWORD PTR _value$607432[ebp], 0
  0001e	8d 45 fc	 lea	 eax, DWORD PTR _value$607432[ebp]
  00021	50		 push	 eax
  00022	8d 8e 64 1a 00
	00		 lea	 ecx, DWORD PTR [esi+6756]
  00028	e8 00 00 00 00	 call	 ?EncryptValueToPool@?$CEncrypt@K@@AAEXPBD@Z ; CEncrypt<unsigned long>::EncryptValueToPool

; 99   : 
; 100  : 	ioAttackableItem::OnReleased( pOwner );

  0002d	ff 75 08	 push	 DWORD PTR _pOwner$[ebp]
  00030	8b ce		 mov	 ecx, esi
  00032	e8 00 00 00 00	 call	 ?OnReleased@ioAttackableItem@@UAEXPAVioBaseChar@@@Z ; ioAttackableItem::OnReleased
  00037	5e		 pop	 esi

; 101  : }

  00038	c9		 leave
  00039	c2 04 00	 ret	 4
?OnReleased@ioConsecutionItem@@UAEXPAVioBaseChar@@@Z ENDP ; ioConsecutionItem::OnReleased
_TEXT	ENDS
PUBLIC	__real@41f0000000000000
PUBLIC	__real@4f800000
PUBLIC	_iCurCombo$GSCopy$
PUBLIC	_pOwner$GSCopy$
PUBLIC	?SetNormalAttack@ioConsecutionItem@@UAEXPAVioBaseChar@@H@Z ; ioConsecutionItem::SetNormalAttack
EXTRN	?SetNormalAttack@ioAttackableItem@@UAEXPAVioBaseChar@@H@Z:PROC ; ioAttackableItem::SetNormalAttack
EXTRN	?SetAutoTargetTrackingEndTime@ioBaseChar@@QAEXK@Z:PROC ; ioBaseChar::SetAutoTargetTrackingEndTime
EXTRN	?SetState@ioBaseChar@@QAEXH_N@Z:PROC		; ioBaseChar::SetState
EXTRN	__imp_?SetActionAni@ioEntityGroup@@QAE_NHMMMMMM_N0@Z:PROC
EXTRN	__imp_?GetAnimationFullTime@ioEntityGroup@@QAEMH@Z:PROC
EXTRN	__imp_?ClearAllActionAni@ioEntityGroup@@QAEXM_N@Z:PROC
EXTRN	__imp_?ClearAllLoopAni@ioEntityGroup@@QAEXM_N@Z:PROC
EXTRN	__ftol2:PROC
;	COMDAT __real@41f0000000000000
; File d:\lost saga for developer\youtube\tutorial\source\src\lsclient\stringprotect.h
CONST	SEGMENT
__real@41f0000000000000 DQ 041f0000000000000r	; 4.29497e+009
CONST	ENDS
;	COMDAT __real@4f800000
CONST	SEGMENT
__real@4f800000 DD 04f800000r			; 4.29497e+009
CONST	ENDS
;	COMDAT xdata$x
xdata$x	SEGMENT
__unwindtable$?SetNormalAttack@ioConsecutionItem@@UAEXPAVioBaseChar@@H@Z DD 0ffffffffH
	DD	FLAT:__unwindfunclet$?SetNormalAttack@ioConsecutionItem@@UAEXPAVioBaseChar@@H@Z$0
__ehfuncinfo$?SetNormalAttack@ioConsecutionItem@@UAEXPAVioBaseChar@@H@Z DD 019930522H
	DD	01H
	DD	FLAT:__unwindtable$?SetNormalAttack@ioConsecutionItem@@UAEXPAVioBaseChar@@H@Z
	DD	2 DUP(00H)
	DD	2 DUP(00H)
	DD	00H
	DD	01H
; Function compile flags: /Ogsp
; File d:\lost saga for developer\youtube\tutorial\source\src\lsclient\ioconsecutionitem.cpp
xdata$x	ENDS
;	COMDAT ?SetNormalAttack@ioConsecutionItem@@UAEXPAVioBaseChar@@H@Z
_TEXT	SEGMENT
$T607495 = -72						; size = 16
_iCurCombo$GSCopy$ = -56				; size = 4
_pOwner$GSCopy$ = -52					; size = 4
tv1140 = -48						; size = 4
tv1137 = -48						; size = 4
tv1135 = -48						; size = 4
_iAniID$601126 = -44					; size = 4
tv1102 = -40						; size = 4
_value$607457 = -40					; size = 4
_fTimeRate$601127 = -40					; size = 4
tv1163 = -36						; size = 4
tv1158 = -36						; size = 4
tv1151 = -36						; size = 4
tv1133 = -36						; size = 4
tv1131 = -36						; size = 4
tv1107 = -36						; size = 4
$T607494 = -36						; size = 4
$T607470 = -36						; size = 4
_szEncEventType$607508 = -32				; size = 11
__$EHRec$ = -12						; size = 12
_pOwner$ = 8						; size = 4
_iCurCombo$ = 12					; size = 4
?SetNormalAttack@ioConsecutionItem@@UAEXPAVioBaseChar@@H@Z PROC ; ioConsecutionItem::SetNormalAttack, COMDAT
; _this$ = ecx

; 104  : {

  00000	6a 3c		 push	 60			; 0000003cH
  00002	b8 00 00 00 00	 mov	 eax, __ehhandler$?SetNormalAttack@ioConsecutionItem@@UAEXPAVioBaseChar@@H@Z
  00007	e8 00 00 00 00	 call	 __EH_prolog3_GS
  0000c	8b 7d 08	 mov	 edi, DWORD PTR _pOwner$[ebp]
  0000f	8b 5d 0c	 mov	 ebx, DWORD PTR _iCurCombo$[ebp]
  00012	8b f1		 mov	 esi, ecx

; 105  : 	ClearCancelInfo();

  00014	8b 06		 mov	 eax, DWORD PTR [esi]

; 116  : 	}
; 117  : 	else
; 118  : 	{
; 119  : 		ioEntityGroup *pGrp = pOwner->GetGroup();

  00016	89 7d cc	 mov	 DWORD PTR _pOwner$GSCopy$[ebp], edi
  00019	89 5d c8	 mov	 DWORD PTR _iCurCombo$GSCopy$[ebp], ebx
  0001c	ff 90 3c 02 00
	00		 call	 DWORD PTR [eax+572]
  00022	c6 86 d0 19 00
	00 00		 mov	 BYTE PTR [esi+6608], 0
  00029	8b 86 68 19 00
	00		 mov	 eax, DWORD PTR [esi+6504]
  0002f	2b 86 64 19 00
	00		 sub	 eax, DWORD PTR [esi+6500]
  00035	6a 50		 push	 80			; 00000050H
  00037	99		 cdq
  00038	59		 pop	 ecx
  00039	f7 f9		 idiv	 ecx
  0003b	85 db		 test	 ebx, ebx
  0003d	0f 88 0e 02 00
	00		 js	 $LN2@SetNormalA

; 106  : 
; 107  : 	m_bCharged = false;
; 108  : 
; 109  : 	int iExtendCnt = m_vExtendAttributeList.size();
; 110  : 	if( !COMPARE( iCurCombo, 0, iExtendCnt ) )

  00043	3b d8		 cmp	 ebx, eax
  00045	0f 8d 06 02 00
	00		 jge	 $LN2@SetNormalA

; 116  : 	}
; 117  : 	else
; 118  : 	{
; 119  : 		ioEntityGroup *pGrp = pOwner->GetGroup();

  0004b	8b 7f 04	 mov	 edi, DWORD PTR [edi+4]

; 120  : 		pGrp->ClearAllLoopAni( FLOAT100, true );

  0004e	b8 64 00 00 00	 mov	 eax, 100		; 00000064H
  00053	33 db		 xor	 ebx, ebx
  00055	43		 inc	 ebx
  00056	89 45 dc	 mov	 DWORD PTR tv1163[ebp], eax
  00059	db 45 dc	 fild	 DWORD PTR tv1163[ebp]
  0005c	53		 push	 ebx
  0005d	85 c0		 test	 eax, eax
  0005f	79 06		 jns	 SHORT $LN138@SetNormalA
  00061	d8 05 00 00 00
	00		 fadd	 DWORD PTR __real@4f800000
$LN138@SetNormalA:
  00067	51		 push	 ecx
  00068	8b cf		 mov	 ecx, edi
  0006a	d9 1c 24	 fstp	 DWORD PTR [esp]
  0006d	ff 15 00 00 00
	00		 call	 DWORD PTR __imp_?ClearAllLoopAni@ioEntityGroup@@QAEXM_N@Z

; 121  : 		pGrp->ClearAllActionAni( FLOAT100, true );

  00073	b8 64 00 00 00	 mov	 eax, 100		; 00000064H
  00078	89 45 dc	 mov	 DWORD PTR tv1158[ebp], eax
  0007b	db 45 dc	 fild	 DWORD PTR tv1158[ebp]
  0007e	53		 push	 ebx
  0007f	85 c0		 test	 eax, eax
  00081	79 06		 jns	 SHORT $LN139@SetNormalA
  00083	d8 05 00 00 00
	00		 fadd	 DWORD PTR __real@4f800000
$LN139@SetNormalA:
  00089	51		 push	 ecx
  0008a	8b cf		 mov	 ecx, edi
  0008c	d9 1c 24	 fstp	 DWORD PTR [esp]
  0008f	ff 15 00 00 00
	00		 call	 DWORD PTR __imp_?ClearAllActionAni@ioEntityGroup@@QAEXM_N@Z

; 122  : 
; 123  : 		int iAniID = pGrp->GetAnimationIdx( m_AttackReadyAniList[iCurCombo] );

  00095	8b 45 c8	 mov	 eax, DWORD PTR _iCurCombo$GSCopy$[ebp]
  00098	c1 e0 04	 shl	 eax, 4
  0009b	03 86 54 19 00
	00		 add	 eax, DWORD PTR [esi+6484]
  000a1	8b cf		 mov	 ecx, edi
  000a3	50		 push	 eax
  000a4	ff 15 00 00 00
	00		 call	 DWORD PTR __imp_?GetAnimationIdx@ioEntityGroup@@QAEHABVioHashString@@@Z
  000aa	89 45 d4	 mov	 DWORD PTR _iAniID$601126[ebp], eax

; 124  : 		float fTimeRate = (float)m_dwChargeTime / pGrp->GetAnimationFullTime( iAniID );

  000ad	8d 45 d8	 lea	 eax, DWORD PTR _value$607457[ebp]
  000b0	50		 push	 eax
  000b1	8d 8e b0 18 00
	00		 lea	 ecx, DWORD PTR [esi+6320]
  000b7	e8 00 00 00 00	 call	 ?DecryptValueToPool@?$CEncrypt@K@@QAEXPAK@Z ; CEncrypt<unsigned long>::DecryptValueToPool
  000bc	db 45 d8	 fild	 DWORD PTR _value$607457[ebp]
  000bf	8b 45 d8	 mov	 eax, DWORD PTR _value$607457[ebp]
  000c2	85 c0		 test	 eax, eax
  000c4	79 06		 jns	 SHORT $LN140@SetNormalA
  000c6	d8 05 00 00 00
	00		 fadd	 DWORD PTR __real@4f800000
$LN140@SetNormalA:
  000cc	ff 75 d4	 push	 DWORD PTR _iAniID$601126[ebp]
  000cf	d9 5d d8	 fstp	 DWORD PTR tv1102[ebp]
  000d2	8b cf		 mov	 ecx, edi
  000d4	ff 15 00 00 00
	00		 call	 DWORD PTR __imp_?GetAnimationFullTime@ioEntityGroup@@QAEMH@Z
  000da	d8 7d d8	 fdivr	 DWORD PTR tv1102[ebp]
  000dd	d9 5d d8	 fstp	 DWORD PTR _fTimeRate$601127[ebp]

; 125  : 		pGrp->SetActionAni( iAniID, FLOAT100, FLOAT100, FLOAT1, FLOAT1/fTimeRate, 0.0f, 0.0f, true );

  000e0	b8 01 00 00 00	 mov	 eax, 1
  000e5	8b c8		 mov	 ecx, eax
  000e7	b8 01 00 00 00	 mov	 eax, 1
  000ec	8b d0		 mov	 edx, eax
  000ee	b8 64 00 00 00	 mov	 eax, 100		; 00000064H
  000f3	89 45 dc	 mov	 DWORD PTR $T607470[ebp], eax
  000f6	b8 64 00 00 00	 mov	 eax, 100		; 00000064H
  000fb	0f 57 c0	 xorps	 xmm0, xmm0
  000fe	53		 push	 ebx
  000ff	53		 push	 ebx
  00100	83 ec 18	 sub	 esp, 24			; 00000018H
  00103	89 4d d0	 mov	 DWORD PTR tv1140[ebp], ecx
  00106	db 45 d0	 fild	 DWORD PTR tv1140[ebp]
  00109	f3 0f 11 44 24
	14		 movss	 DWORD PTR [esp+20], xmm0
  0010f	f3 0f 11 44 24
	10		 movss	 DWORD PTR [esp+16], xmm0
  00115	85 c9		 test	 ecx, ecx
  00117	79 06		 jns	 SHORT $LN141@SetNormalA
  00119	d8 05 00 00 00
	00		 fadd	 DWORD PTR __real@4f800000
$LN141@SetNormalA:
  0011f	d8 75 d8	 fdiv	 DWORD PTR _fTimeRate$601127[ebp]
  00122	d9 5d d0	 fstp	 DWORD PTR tv1137[ebp]
  00125	d9 45 d0	 fld	 DWORD PTR tv1137[ebp]
  00128	d9 5c 24 0c	 fstp	 DWORD PTR [esp+12]
  0012c	89 55 d0	 mov	 DWORD PTR tv1135[ebp], edx
  0012f	db 45 d0	 fild	 DWORD PTR tv1135[ebp]
  00132	85 d2		 test	 edx, edx
  00134	79 06		 jns	 SHORT $LN142@SetNormalA
  00136	d8 05 00 00 00
	00		 fadd	 DWORD PTR __real@4f800000
$LN142@SetNormalA:
  0013c	8b 4d dc	 mov	 ecx, DWORD PTR $T607470[ebp]
  0013f	d9 5c 24 08	 fstp	 DWORD PTR [esp+8]
  00143	db 45 dc	 fild	 DWORD PTR $T607470[ebp]
  00146	85 c9		 test	 ecx, ecx
  00148	79 06		 jns	 SHORT $LN143@SetNormalA
  0014a	d8 05 00 00 00
	00		 fadd	 DWORD PTR __real@4f800000
$LN143@SetNormalA:
  00150	89 45 dc	 mov	 DWORD PTR tv1131[ebp], eax
  00153	d9 5c 24 04	 fstp	 DWORD PTR [esp+4]
  00157	db 45 dc	 fild	 DWORD PTR tv1131[ebp]
  0015a	85 c0		 test	 eax, eax
  0015c	79 06		 jns	 SHORT $LN144@SetNormalA
  0015e	d8 05 00 00 00
	00		 fadd	 DWORD PTR __real@4f800000
$LN144@SetNormalA:
  00164	d9 1c 24	 fstp	 DWORD PTR [esp]
  00167	ff 75 d4	 push	 DWORD PTR _iAniID$601126[ebp]
  0016a	8b cf		 mov	 ecx, edi
  0016c	ff 15 00 00 00
	00		 call	 DWORD PTR __imp_?SetActionAni@ioEntityGroup@@QAE_NHMMMMMM_N0@Z

; 126  : 
; 127  : 		m_ChargeState = CS_CHARGING;

  00172	89 9e c4 19 00
	00		 mov	 DWORD PTR [esi+6596], ebx

; 128  : 		m_dwAttackStartTime = FRAMEGETTIME();

  00178	8b 1d 00 00 00
	00		 mov	 ebx, DWORD PTR __imp_?GetSingleton@ioFrameTimer@@SAAAV1@XZ
  0017e	ff d3		 call	 ebx
  00180	8b c8		 mov	 ecx, eax
  00182	ff 15 00 00 00
	00		 call	 DWORD PTR __imp_?GetLoopSec@ioFrameTimer@@QBEKXZ

; 129  : 		m_iCurCombo = iCurCombo;
; 130  : 		pOwner->SetState( CS_ATTACK );

  00188	8b 4d cc	 mov	 ecx, DWORD PTR _pOwner$GSCopy$[ebp]
  0018b	89 86 c8 19 00
	00		 mov	 DWORD PTR [esi+6600], eax
  00191	8b 45 c8	 mov	 eax, DWORD PTR _iCurCombo$GSCopy$[ebp]
  00194	6a 01		 push	 1
  00196	6a 05		 push	 5
  00198	89 86 cc 19 00
	00		 mov	 DWORD PTR [esi+6604], eax
  0019e	e8 00 00 00 00	 call	 ?SetState@ioBaseChar@@QAEXH_N@Z ; ioBaseChar::SetState

; 131  : 
; 132  : 		DWORD dwTrackingTime = FRAMEGETTIME();

  001a3	ff d3		 call	 ebx
  001a5	8b c8		 mov	 ecx, eax
  001a7	ff 15 00 00 00
	00		 call	 DWORD PTR __imp_?GetLoopSec@ioFrameTimer@@QBEKXZ
  001ad	6a 02		 push	 2
  001af	8b f0		 mov	 esi, eax

; 133  : 		dwTrackingTime += pGrp->GetAnimationEventTime_e( iAniID, "tracking_e" ) * fTimeRate;

  001b1	c7 45 e0 99 9e
	8a 89		 mov	 DWORD PTR _szEncEventType$607508[ebp], -1987404135 ; 898a9e99H
  001b8	c7 45 e4 86 85
	85 8d		 mov	 DWORD PTR _szEncEventType$607508[ebp+4], -1920629370 ; 8d858586H
  001bf	66 c7 45 e8 b2
	89		 mov	 WORD PTR _szEncEventType$607508[ebp+8], 35250 ; 000089b2H
  001c5	8d 45 e0	 lea	 eax, DWORD PTR _szEncEventType$607508[ebp]
  001c8	c6 45 ea 00	 mov	 BYTE PTR _szEncEventType$607508[ebp+10], 0
  001cc	59		 pop	 ecx
$LL130@SetNormalA:
  001cd	81 30 ed ec eb
	ea		 xor	 DWORD PTR [eax], -353637139 ; eaebecedH
  001d3	83 c0 04	 add	 eax, 4
  001d6	49		 dec	 ecx
  001d7	75 f4		 jne	 SHORT $LL130@SetNormalA
  001d9	6a 08		 push	 8
  001db	58		 pop	 eax
$LL127@SetNormalA:
  001dc	8b c8		 mov	 ecx, eax
  001de	81 e1 03 00 00
	80		 and	 ecx, -2147483645	; 80000003H
  001e4	79 05		 jns	 SHORT $LN145@SetNormalA
  001e6	49		 dec	 ecx
  001e7	83 c9 fc	 or	 ecx, -4			; fffffffcH
  001ea	41		 inc	 ecx
$LN145@SetNormalA:
  001eb	b2 ed		 mov	 dl, -19			; ffffffedH
  001ed	2a d1		 sub	 dl, cl
  001ef	30 54 05 e0	 xor	 BYTE PTR _szEncEventType$607508[ebp+eax], dl
  001f3	40		 inc	 eax
  001f4	83 f8 0a	 cmp	 eax, 10			; 0000000aH
  001f7	7c e3		 jl	 SHORT $LL127@SetNormalA
  001f9	8d 45 e0	 lea	 eax, DWORD PTR _szEncEventType$607508[ebp]
  001fc	50		 push	 eax
  001fd	8d 4d b8	 lea	 ecx, DWORD PTR $T607495[ebp]
  00200	ff 15 00 00 00
	00		 call	 DWORD PTR __imp_??0ioHashString@@QAE@PBD@Z
  00206	83 65 fc 00	 and	 DWORD PTR __$EHRec$[ebp+8], 0
  0020a	8d 45 b8	 lea	 eax, DWORD PTR $T607495[ebp]
  0020d	50		 push	 eax
  0020e	ff 75 d4	 push	 DWORD PTR _iAniID$601126[ebp]
  00211	8b cf		 mov	 ecx, edi
  00213	ff 15 00 00 00
	00		 call	 DWORD PTR __imp_?GetAnimationEventTime@ioEntityGroup@@QAEMHABVioHashString@@@Z
  00219	d9 5d dc	 fstp	 DWORD PTR $T607494[ebp]
  0021c	83 4d fc ff	 or	 DWORD PTR __$EHRec$[ebp+8], -1
  00220	8d 4d b8	 lea	 ecx, DWORD PTR $T607495[ebp]
  00223	ff 15 00 00 00
	00		 call	 DWORD PTR __imp_??1ioHashString@@QAE@XZ

; 134  : 		pOwner->SetAutoTargetTrackingEndTime( dwTrackingTime );

  00229	d9 45 dc	 fld	 DWORD PTR $T607494[ebp]
  0022c	d8 4d d8	 fmul	 DWORD PTR _fTimeRate$601127[ebp]
  0022f	89 75 dc	 mov	 DWORD PTR tv1107[ebp], esi
  00232	db 45 dc	 fild	 DWORD PTR tv1107[ebp]
  00235	85 f6		 test	 esi, esi
  00237	79 06		 jns	 SHORT $LN146@SetNormalA
  00239	dc 05 00 00 00
	00		 fadd	 QWORD PTR __real@41f0000000000000
$LN146@SetNormalA:

; 133  : 		dwTrackingTime += pGrp->GetAnimationEventTime_e( iAniID, "tracking_e" ) * fTimeRate;

  0023f	de c1		 faddp	 ST(1), ST(0)

; 134  : 		pOwner->SetAutoTargetTrackingEndTime( dwTrackingTime );

  00241	e8 00 00 00 00	 call	 __ftol2
  00246	8b 4d cc	 mov	 ecx, DWORD PTR _pOwner$GSCopy$[ebp]
  00249	50		 push	 eax
  0024a	e8 00 00 00 00	 call	 ?SetAutoTargetTrackingEndTime@ioBaseChar@@QAEXK@Z ; ioBaseChar::SetAutoTargetTrackingEndTime
  0024f	eb 16		 jmp	 SHORT $LN1@SetNormalA
$LN2@SetNormalA:

; 111  : 	{
; 112  : 		ioWeaponItem::SetNormalAttack( pOwner, iCurCombo );

  00251	53		 push	 ebx
  00252	57		 push	 edi
  00253	8b ce		 mov	 ecx, esi
  00255	e8 00 00 00 00	 call	 ?SetNormalAttack@ioAttackableItem@@UAEXPAVioBaseChar@@H@Z ; ioAttackableItem::SetNormalAttack

; 113  : 		
; 114  : 		m_ChargeState = CS_NONE;

  0025a	83 a6 c4 19 00
	00 00		 and	 DWORD PTR [esi+6596], 0

; 115  : 		m_iCurCombo = iCurCombo;

  00261	89 9e cc 19 00
	00		 mov	 DWORD PTR [esi+6604], ebx
$LN1@SetNormalA:

; 135  : 	}
; 136  : }

  00267	e8 00 00 00 00	 call	 __EH_epilog3_GS
  0026c	c2 08 00	 ret	 8
_TEXT	ENDS
;	COMDAT text$x
text$x	SEGMENT
__unwindfunclet$?SetNormalAttack@ioConsecutionItem@@UAEXPAVioBaseChar@@H@Z$0:
  00000	8d 4d b8	 lea	 ecx, DWORD PTR $T607495[ebp]
  00003	ff 25 00 00 00
	00		 jmp	 DWORD PTR __imp_??1ioHashString@@QAE@XZ
__ehhandler$?SetNormalAttack@ioConsecutionItem@@UAEXPAVioBaseChar@@H@Z:
  00009	8b 54 24 08	 mov	 edx, DWORD PTR [esp+8]
  0000d	8d 42 0c	 lea	 eax, DWORD PTR [edx+12]
  00010	8b 4a b4	 mov	 ecx, DWORD PTR [edx-76]
  00013	33 c8		 xor	 ecx, eax
  00015	e8 00 00 00 00	 call	 @__security_check_cookie@4
  0001a	8b 4a fc	 mov	 ecx, DWORD PTR [edx-4]
  0001d	33 c8		 xor	 ecx, eax
  0001f	e8 00 00 00 00	 call	 @__security_check_cookie@4
  00024	b8 00 00 00 00	 mov	 eax, OFFSET __ehfuncinfo$?SetNormalAttack@ioConsecutionItem@@UAEXPAVioBaseChar@@H@Z
  00029	e9 00 00 00 00	 jmp	 ___CxxFrameHandler3
text$x	ENDS
?SetNormalAttack@ioConsecutionItem@@UAEXPAVioBaseChar@@H@Z ENDP ; ioConsecutionItem::SetNormalAttack
PUBLIC	__real@3f800000
PUBLIC	__$ArrayPad$
PUBLIC	?ChangeToNormalAttack@ioConsecutionItem@@IAEXPAVioBaseChar@@@Z ; ioConsecutionItem::ChangeToNormalAttack
EXTRN	??1SP2Packet@@UAE@XZ:PROC			; SP2Packet::~SP2Packet
EXTRN	?SendToAllPlayingUser@P2PNetwork@@YAXAAVSP2Packet@@PAVioBaseChar@@@Z:PROC ; P2PNetwork::SendToAllPlayingUser
EXTRN	??6SP2Packet@@QAEAAV0@ABUD3DXQUATERNION@@@Z:PROC ; SP2Packet::operator<<
EXTRN	??6SP2Packet@@QAEAAV0@H@Z:PROC			; SP2Packet::operator<<
EXTRN	?FillItemGaugePacketHeader@ioAttackableItem@@QAEXPAVioBaseChar@@AAVSP2Packet@@@Z:PROC ; ioAttackableItem::FillItemGaugePacketHeader
EXTRN	??0SP2Packet@@QAE@K@Z:PROC			; SP2Packet::SP2Packet
EXTRN	?ApplyNormalAttackResult@ioBaseChar@@QAEXH_N@Z:PROC ; ioBaseChar::ApplyNormalAttackResult
EXTRN	?SetNormalAttackByAttribute@ioBaseChar@@QAEKABUAttackAttribute@@_NMM@Z:PROC ; ioBaseChar::SetNormalAttackByAttribute
EXTRN	?GetAttribute@ioFormalAttackGrp@@QBEPBUAttackAttribute@@W4AttackType@@H@Z:PROC ; ioFormalAttackGrp::GetAttribute
EXTRN	?InitExtendAttackTagInfo@ioBaseChar@@QAEXXZ:PROC ; ioBaseChar::InitExtendAttackTagInfo
EXTRN	__chkstk:PROC
;	COMDAT __real@3f800000
; File d:\lost saga for developer\youtube\tutorial\source\src\lsclient\iobasechar.h
CONST	SEGMENT
__real@3f800000 DD 03f800000r			; 1
CONST	ENDS
;	COMDAT xdata$x
xdata$x	SEGMENT
__unwindtable$?ChangeToNormalAttack@ioConsecutionItem@@IAEXPAVioBaseChar@@@Z DD 0ffffffffH
	DD	FLAT:__unwindfunclet$?ChangeToNormalAttack@ioConsecutionItem@@IAEXPAVioBaseChar@@@Z$0
__ehfuncinfo$?ChangeToNormalAttack@ioConsecutionItem@@IAEXPAVioBaseChar@@@Z DD 019930522H
	DD	01H
	DD	FLAT:__unwindtable$?ChangeToNormalAttack@ioConsecutionItem@@IAEXPAVioBaseChar@@@Z
	DD	2 DUP(00H)
	DD	2 DUP(00H)
	DD	00H
	DD	01H
; Function compile flags: /Ogsp
; File d:\lost saga for developer\youtube\tutorial\source\src\lsclient\ioconsecutionitem.cpp
xdata$x	ENDS
;	COMDAT ?ChangeToNormalAttack@ioConsecutionItem@@IAEXPAVioBaseChar@@@Z
_TEXT	SEGMENT
_value$607641 = -32816					; size = 4
_dwCurTime$ = -32812					; size = 4
_kPacket$601174 = -32808				; size = 32792
__$ArrayPad$ = -16					; size = 4
__$EHRec$ = -12						; size = 12
_pOwner$ = 8						; size = 4
?ChangeToNormalAttack@ioConsecutionItem@@IAEXPAVioBaseChar@@@Z PROC ; ioConsecutionItem::ChangeToNormalAttack, COMDAT
; _this$ = ecx

; 198  : {

  00000	55		 push	 ebp
  00001	8b ec		 mov	 ebp, esp
  00003	6a ff		 push	 -1
  00005	68 00 00 00 00	 push	 __ehhandler$?ChangeToNormalAttack@ioConsecutionItem@@IAEXPAVioBaseChar@@@Z
  0000a	64 a1 00 00 00
	00		 mov	 eax, DWORD PTR fs:0
  00010	50		 push	 eax
  00011	b8 24 80 00 00	 mov	 eax, 32804		; 00008024H
  00016	e8 00 00 00 00	 call	 __chkstk
  0001b	a1 00 00 00 00	 mov	 eax, DWORD PTR ___security_cookie
  00020	33 c5		 xor	 eax, ebp
  00022	89 45 f0	 mov	 DWORD PTR __$ArrayPad$[ebp], eax
  00025	53		 push	 ebx
  00026	56		 push	 esi
  00027	57		 push	 edi
  00028	50		 push	 eax
  00029	8d 45 f4	 lea	 eax, DWORD PTR __$EHRec$[ebp]
  0002c	64 a3 00 00 00
	00		 mov	 DWORD PTR fs:0, eax
  00032	8b 7d 08	 mov	 edi, DWORD PTR _pOwner$[ebp]
  00035	8b f1		 mov	 esi, ecx

; 199  : 	if( !pOwner ) return;

  00037	85 ff		 test	 edi, edi
  00039	0f 84 42 01 00
	00		 je	 $LN1@ChangeToNo

; 200  : 
; 201  : 	DWORD dwCurTime = FRAMEGETTIME();

  0003f	ff 15 00 00 00
	00		 call	 DWORD PTR __imp_?GetSingleton@ioFrameTimer@@SAAAV1@XZ
  00045	8b c8		 mov	 ecx, eax
  00047	ff 15 00 00 00
	00		 call	 DWORD PTR __imp_?GetLoopSec@ioFrameTimer@@QBEKXZ

; 202  : 	m_bCharged = false;
; 203  : 
; 204  : 	pOwner->InitExtendAttackTagInfo();

  0004d	8b cf		 mov	 ecx, edi
  0004f	89 85 d4 7f ff
	ff		 mov	 DWORD PTR _dwCurTime$[ebp], eax
  00055	c6 86 d0 19 00
	00 00		 mov	 BYTE PTR [esi+6608], 0
  0005c	e8 00 00 00 00	 call	 ?InitExtendAttackTagInfo@ioBaseChar@@QAEXXZ ; ioBaseChar::InitExtendAttackTagInfo

; 205  : 
; 206  : 	ClearCancelInfo();

  00061	8b 06		 mov	 eax, DWORD PTR [esi]
  00063	8b ce		 mov	 ecx, esi
  00065	ff 90 3c 02 00
	00		 call	 DWORD PTR [eax+572]

; 207  : 
; 208  : 	m_iCurConsecutionCnt = 0;

  0006b	83 a5 d0 7f ff
	ff 00		 and	 DWORD PTR _value$607641[ebp], 0
  00072	8d 85 d0 7f ff
	ff		 lea	 eax, DWORD PTR _value$607641[ebp]
  00078	50		 push	 eax
  00079	8d 8e 04 1a 00
	00		 lea	 ecx, DWORD PTR [esi+6660]
  0007f	e8 00 00 00 00	 call	 ?EncryptValueToPool@?$CEncrypt@H@@AAEXPBD@Z ; CEncrypt<int>::EncryptValueToPool

; 209  : 
; 210  : 	const AttackAttribute *pAttribute = m_FormalAttack.GetAttribute( AT_NORMAL, m_iCurCombo );

  00084	ff b6 cc 19 00
	00		 push	 DWORD PTR [esi+6604]
  0008a	8d 8e 2c 06 00
	00		 lea	 ecx, DWORD PTR [esi+1580]
  00090	6a 00		 push	 0
  00092	e8 00 00 00 00	 call	 ?GetAttribute@ioFormalAttackGrp@@QBEPBUAttackAttribute@@W4AttackType@@H@Z ; ioFormalAttackGrp::GetAttribute
  00097	8b d8		 mov	 ebx, eax

; 211  : 	if( pAttribute )

  00099	85 db		 test	 ebx, ebx
  0009b	74 47		 je	 SHORT $LN2@ChangeToNo

; 212  : 	{
; 213  : 		pOwner->SetNormalAttackByAttribute( *pAttribute );

  0009d	f3 0f 10 05 00
	00 00 00	 movss	 xmm0, DWORD PTR __real@3f800000
  000a5	51		 push	 ecx
  000a6	51		 push	 ecx
  000a7	f3 0f 11 44 24
	04		 movss	 DWORD PTR [esp+4], xmm0
  000ad	f3 0f 11 04 24	 movss	 DWORD PTR [esp], xmm0
  000b2	6a 01		 push	 1
  000b4	53		 push	 ebx
  000b5	8b cf		 mov	 ecx, edi
  000b7	e8 00 00 00 00	 call	 ?SetNormalAttackByAttribute@ioBaseChar@@QAEKABUAttackAttribute@@_NMM@Z ; ioBaseChar::SetNormalAttackByAttribute

; 214  : 
; 215  : 		m_szCurAni = pAttribute->m_AttackAnimation;

  000bc	53		 push	 ebx
  000bd	8d 8e 10 0f 00
	00		 lea	 ecx, DWORD PTR [esi+3856]
  000c3	ff 15 00 00 00
	00		 call	 DWORD PTR __imp_??4ioHashString@@QAEAAV0@ABV0@@Z

; 216  : 		m_fCurAniRate = pAttribute->m_fAttackAniRate;

  000c9	d9 43 10	 fld	 DWORD PTR [ebx+16]

; 217  : 
; 218  : 		m_dwInputCancelCheckTime = dwCurTime;

  000cc	8b 85 d4 7f ff
	ff		 mov	 eax, DWORD PTR _dwCurTime$[ebp]
  000d2	d9 9e 20 0f 00
	00		 fstp	 DWORD PTR [esi+3872]
  000d8	89 86 0c 0f 00
	00		 mov	 DWORD PTR [esi+3852], eax

; 219  : 		m_dwCancelCheckTime = dwCurTime;

  000de	89 86 08 0f 00
	00		 mov	 DWORD PTR [esi+3848], eax
$LN2@ChangeToNo:

; 220  : 	}
; 221  : 
; 222  : 	pOwner->ApplyNormalAttackResult( m_iCurCombo );

  000e4	6a 00		 push	 0
  000e6	ff b6 cc 19 00
	00		 push	 DWORD PTR [esi+6604]
  000ec	8b cf		 mov	 ecx, edi
  000ee	e8 00 00 00 00	 call	 ?ApplyNormalAttackResult@ioBaseChar@@QAEXH_N@Z ; ioBaseChar::ApplyNormalAttackResult

; 223  : 
; 224  : 	m_ChargeState = CS_NORMAL_ATTACK;

  000f3	c7 86 c4 19 00
	00 02 00 00 00	 mov	 DWORD PTR [esi+6596], 2

; 225  : 
; 226  : 	if( pOwner->IsNeedSendNetwork() )

  000fd	8b 07		 mov	 eax, DWORD PTR [edi]
  000ff	8b cf		 mov	 ecx, edi
  00101	ff 90 04 01 00
	00		 call	 DWORD PTR [eax+260]
  00107	84 c0		 test	 al, al
  00109	74 76		 je	 SHORT $LN1@ChangeToNo

; 227  : 	{
; 228  : 		SP2Packet kPacket( CUPK_ITEM_GAUGE_OK );

  0010b	68 27 41 00 00	 push	 16679			; 00004127H
  00110	8d 8d d8 7f ff
	ff		 lea	 ecx, DWORD PTR _kPacket$601174[ebp]
  00116	e8 00 00 00 00	 call	 ??0SP2Packet@@QAE@K@Z	; SP2Packet::SP2Packet
  0011b	83 65 fc 00	 and	 DWORD PTR __$EHRec$[ebp+8], 0

; 229  : 		FillItemGaugePacketHeader( pOwner, kPacket );

  0011f	8d 85 d8 7f ff
	ff		 lea	 eax, DWORD PTR _kPacket$601174[ebp]
  00125	50		 push	 eax
  00126	57		 push	 edi
  00127	8b ce		 mov	 ecx, esi
  00129	e8 00 00 00 00	 call	 ?FillItemGaugePacketHeader@ioAttackableItem@@QAEXPAVioBaseChar@@AAVSP2Packet@@@Z ; ioAttackableItem::FillItemGaugePacketHeader

; 230  : 		kPacket << m_ChargeState;

  0012e	ff b6 c4 19 00
	00		 push	 DWORD PTR [esi+6596]
  00134	8d 8d d8 7f ff
	ff		 lea	 ecx, DWORD PTR _kPacket$601174[ebp]
  0013a	e8 00 00 00 00	 call	 ??6SP2Packet@@QAEAAV0@H@Z ; SP2Packet::operator<<

; 231  : 		kPacket << m_iCurCombo;

  0013f	ff b6 cc 19 00
	00		 push	 DWORD PTR [esi+6604]
  00145	8d 8d d8 7f ff
	ff		 lea	 ecx, DWORD PTR _kPacket$601174[ebp]
  0014b	e8 00 00 00 00	 call	 ??6SP2Packet@@QAEAAV0@H@Z ; SP2Packet::operator<<

; 232  : 		kPacket << pOwner->GetTargetRot();

  00150	81 c7 a4 06 00
	00		 add	 edi, 1700		; 000006a4H
  00156	57		 push	 edi
  00157	8d 8d d8 7f ff
	ff		 lea	 ecx, DWORD PTR _kPacket$601174[ebp]
  0015d	e8 00 00 00 00	 call	 ??6SP2Packet@@QAEAAV0@ABUD3DXQUATERNION@@@Z ; SP2Packet::operator<<

; 233  : 		P2PNetwork::SendToAllPlayingUser( kPacket );

  00162	8d 85 d8 7f ff
	ff		 lea	 eax, DWORD PTR _kPacket$601174[ebp]
  00168	6a 00		 push	 0
  0016a	50		 push	 eax
  0016b	e8 00 00 00 00	 call	 ?SendToAllPlayingUser@P2PNetwork@@YAXAAVSP2Packet@@PAVioBaseChar@@@Z ; P2PNetwork::SendToAllPlayingUser

; 234  : 	}

  00170	83 4d fc ff	 or	 DWORD PTR __$EHRec$[ebp+8], -1
  00174	59		 pop	 ecx
  00175	59		 pop	 ecx
  00176	8d 8d d8 7f ff
	ff		 lea	 ecx, DWORD PTR _kPacket$601174[ebp]
  0017c	e8 00 00 00 00	 call	 ??1SP2Packet@@UAE@XZ	; SP2Packet::~SP2Packet
$LN1@ChangeToNo:

; 235  : }

  00181	8b 4d f4	 mov	 ecx, DWORD PTR __$EHRec$[ebp]
  00184	64 89 0d 00 00
	00 00		 mov	 DWORD PTR fs:0, ecx
  0018b	59		 pop	 ecx
  0018c	5f		 pop	 edi
  0018d	5e		 pop	 esi
  0018e	5b		 pop	 ebx
  0018f	8b 4d f0	 mov	 ecx, DWORD PTR __$ArrayPad$[ebp]
  00192	33 cd		 xor	 ecx, ebp
  00194	e8 00 00 00 00	 call	 @__security_check_cookie@4
  00199	c9		 leave
  0019a	c2 04 00	 ret	 4
_TEXT	ENDS
;	COMDAT text$x
text$x	SEGMENT
__unwindfunclet$?ChangeToNormalAttack@ioConsecutionItem@@IAEXPAVioBaseChar@@@Z$0:
  00000	8d 8d d8 7f ff
	ff		 lea	 ecx, DWORD PTR _kPacket$601174[ebp]
  00006	e9 00 00 00 00	 jmp	 ??1SP2Packet@@UAE@XZ	; SP2Packet::~SP2Packet
__ehhandler$?ChangeToNormalAttack@ioConsecutionItem@@IAEXPAVioBaseChar@@@Z:
  0000b	8b 54 24 08	 mov	 edx, DWORD PTR [esp+8]
  0000f	8d 42 0c	 lea	 eax, DWORD PTR [edx+12]
  00012	8b 8a cc 7f ff
	ff		 mov	 ecx, DWORD PTR [edx-32820]
  00018	33 c8		 xor	 ecx, eax
  0001a	e8 00 00 00 00	 call	 @__security_check_cookie@4
  0001f	8b 4a fc	 mov	 ecx, DWORD PTR [edx-4]
  00022	33 c8		 xor	 ecx, eax
  00024	e8 00 00 00 00	 call	 @__security_check_cookie@4
  00029	b8 00 00 00 00	 mov	 eax, OFFSET __ehfuncinfo$?ChangeToNormalAttack@ioConsecutionItem@@IAEXPAVioBaseChar@@@Z
  0002e	e9 00 00 00 00	 jmp	 ___CxxFrameHandler3
text$x	ENDS
?ChangeToNormalAttack@ioConsecutionItem@@IAEXPAVioBaseChar@@@Z ENDP ; ioConsecutionItem::ChangeToNormalAttack
PUBLIC	__$ArrayPad$
PUBLIC	?ChangeToAttackFire@ioConsecutionItem@@IAEXPAVioBaseChar@@@Z ; ioConsecutionItem::ChangeToAttackFire
EXTRN	?SetExtendAttackEndJumpInfo@ioBaseChar@@QAEXHMK@Z:PROC ; ioBaseChar::SetExtendAttackEndJumpInfo
EXTRN	?SetBaseAttackExtraAniJump@ioBaseChar@@QAEXHMK@Z:PROC ; ioBaseChar::SetBaseAttackExtraAniJump
;	COMDAT xdata$x
; File d:\lost saga for developer\youtube\tutorial\source\src\lsclient\iobasechar.h
xdata$x	SEGMENT
__unwindtable$?ChangeToAttackFire@ioConsecutionItem@@IAEXPAVioBaseChar@@@Z DD 0ffffffffH
	DD	FLAT:__unwindfunclet$?ChangeToAttackFire@ioConsecutionItem@@IAEXPAVioBaseChar@@@Z$0
__ehfuncinfo$?ChangeToAttackFire@ioConsecutionItem@@IAEXPAVioBaseChar@@@Z DD 019930522H
	DD	01H
	DD	FLAT:__unwindtable$?ChangeToAttackFire@ioConsecutionItem@@IAEXPAVioBaseChar@@@Z
	DD	2 DUP(00H)
	DD	2 DUP(00H)
	DD	00H
	DD	01H
; Function compile flags: /Ogsp
; File d:\lost saga for developer\youtube\tutorial\source\src\lsclient\ioconsecutionitem.cpp
xdata$x	ENDS
;	COMDAT ?ChangeToAttackFire@ioConsecutionItem@@IAEXPAVioBaseChar@@@Z
_TEXT	SEGMENT
_value$607683 = -32824					; size = 4
_value$607712 = -32820					; size = 4
_value$607704 = -32820					; size = 4
_fTimeRate$601201 = -32820				; size = 4
_value$607687 = -32816					; size = 4
_value$607679 = -32816					; size = 4
_value$607667 = -32816					; size = 4
_value$607671 = -32816					; size = 4
_iExtendCnt$ = -32816					; size = 4
_value$607708 = -32812					; size = 4
_value$607700 = -32812					; size = 4
_value$607691 = -32812					; size = 4
_value$607675 = -32812					; size = 4
_iAniID$601200 = -32812					; size = 4
_iAniID$601194 = -32812					; size = 4
_kPacket$601206 = -32808				; size = 32792
__$ArrayPad$ = -16					; size = 4
__$EHRec$ = -12						; size = 12
_pOwner$ = 8						; size = 4
?ChangeToAttackFire@ioConsecutionItem@@IAEXPAVioBaseChar@@@Z PROC ; ioConsecutionItem::ChangeToAttackFire, COMDAT
; _this$ = ecx

; 238  : {

  00000	55		 push	 ebp
  00001	8b ec		 mov	 ebp, esp
  00003	6a ff		 push	 -1
  00005	68 00 00 00 00	 push	 __ehhandler$?ChangeToAttackFire@ioConsecutionItem@@IAEXPAVioBaseChar@@@Z
  0000a	64 a1 00 00 00
	00		 mov	 eax, DWORD PTR fs:0
  00010	50		 push	 eax
  00011	b8 2c 80 00 00	 mov	 eax, 32812		; 0000802cH
  00016	e8 00 00 00 00	 call	 __chkstk
  0001b	a1 00 00 00 00	 mov	 eax, DWORD PTR ___security_cookie
  00020	33 c5		 xor	 eax, ebp
  00022	89 45 f0	 mov	 DWORD PTR __$ArrayPad$[ebp], eax
  00025	53		 push	 ebx
  00026	56		 push	 esi
  00027	57		 push	 edi
  00028	50		 push	 eax
  00029	8d 45 f4	 lea	 eax, DWORD PTR __$EHRec$[ebp]
  0002c	64 a3 00 00 00
	00		 mov	 DWORD PTR fs:0, eax
  00032	8b 7d 08	 mov	 edi, DWORD PTR _pOwner$[ebp]
  00035	8b f1		 mov	 esi, ecx

; 239  : 	if( !pOwner ) return;

  00037	85 ff		 test	 edi, edi
  00039	0f 84 9a 03 00
	00		 je	 $LN1@ChangeToAt

; 240  : 
; 241  : 	DWORD dwCurTime = FRAMEGETTIME();

  0003f	ff 15 00 00 00
	00		 call	 DWORD PTR __imp_?GetSingleton@ioFrameTimer@@SAAAV1@XZ
  00045	8b c8		 mov	 ecx, eax
  00047	ff 15 00 00 00
	00		 call	 DWORD PTR __imp_?GetLoopSec@ioFrameTimer@@QBEKXZ

; 242  : 	m_bCharged = true;
; 243  : 
; 244  : 	pOwner->InitExtendAttackTagInfo();

  0004d	8b cf		 mov	 ecx, edi
  0004f	8b d8		 mov	 ebx, eax
  00051	c6 86 d0 19 00
	00 01		 mov	 BYTE PTR [esi+6608], 1
  00058	e8 00 00 00 00	 call	 ?InitExtendAttackTagInfo@ioBaseChar@@QAEXXZ ; ioBaseChar::InitExtendAttackTagInfo

; 245  : 
; 246  : 	ClearCancelInfo();

  0005d	8b 06		 mov	 eax, DWORD PTR [esi]
  0005f	8b ce		 mov	 ecx, esi
  00061	ff 90 3c 02 00
	00		 call	 DWORD PTR [eax+572]

; 247  : 
; 248  : 	if( pOwner->IsNeedProcess() )

  00067	8b 07		 mov	 eax, DWORD PTR [edi]
  00069	8b cf		 mov	 ecx, edi
  0006b	ff 90 00 01 00
	00		 call	 DWORD PTR [eax+256]
  00071	84 c0		 test	 al, al
  00073	74 68		 je	 SHORT $LN21@ChangeToAt

; 249  : 	{
; 250  : 		if( m_dwConsecutionCheckTime == 0 ||
; 251  : 			m_dwConsecutionCheckTime+m_dwConsecutionTime < dwCurTime )

  00075	8d 85 d0 7f ff
	ff		 lea	 eax, DWORD PTR _value$607667[ebp]
  0007b	8d 8e 64 1a 00
	00		 lea	 ecx, DWORD PTR [esi+6756]
  00081	50		 push	 eax
  00082	e8 00 00 00 00	 call	 ?DecryptValueToPool@?$CEncrypt@K@@QAEXPAK@Z ; CEncrypt<unsigned long>::DecryptValueToPool
  00087	83 bd d0 7f ff
	ff 00		 cmp	 DWORD PTR _value$607667[ebp], 0
  0008e	74 34		 je	 SHORT $LN8@ChangeToAt
  00090	8d 85 d0 7f ff
	ff		 lea	 eax, DWORD PTR _value$607671[ebp]
  00096	50		 push	 eax
  00097	8d 8e 34 1a 00
	00		 lea	 ecx, DWORD PTR [esi+6708]
  0009d	e8 00 00 00 00	 call	 ?DecryptValueToPool@?$CEncrypt@K@@QAEXPAK@Z ; CEncrypt<unsigned long>::DecryptValueToPool
  000a2	8d 85 d4 7f ff
	ff		 lea	 eax, DWORD PTR _value$607675[ebp]
  000a8	50		 push	 eax
  000a9	8d 8e 64 1a 00
	00		 lea	 ecx, DWORD PTR [esi+6756]
  000af	e8 00 00 00 00	 call	 ?DecryptValueToPool@?$CEncrypt@K@@QAEXPAK@Z ; CEncrypt<unsigned long>::DecryptValueToPool
  000b4	8b 8d d4 7f ff
	ff		 mov	 ecx, DWORD PTR _value$607675[ebp]
  000ba	03 8d d0 7f ff
	ff		 add	 ecx, DWORD PTR _value$607671[ebp]
  000c0	3b cb		 cmp	 ecx, ebx
  000c2	73 19		 jae	 SHORT $LN21@ChangeToAt
$LN8@ChangeToAt:

; 252  : 		{
; 253  : 			m_iCurConsecutionCnt = 0;

  000c4	83 a5 d0 7f ff
	ff 00		 and	 DWORD PTR _value$607679[ebp], 0
  000cb	8d 85 d0 7f ff
	ff		 lea	 eax, DWORD PTR _value$607679[ebp]
  000d1	8d 8e 04 1a 00
	00		 lea	 ecx, DWORD PTR [esi+6660]
  000d7	50		 push	 eax
  000d8	e8 00 00 00 00	 call	 ?EncryptValueToPool@?$CEncrypt@H@@AAEXPBD@Z ; CEncrypt<int>::EncryptValueToPool
$LN21@ChangeToAt:

; 254  : 		}
; 255  : 	}
; 256  : 
; 257  : 	int iCurConsecutionCnt = m_iCurConsecutionCnt;

  000dd	8d 85 c8 7f ff
	ff		 lea	 eax, DWORD PTR _value$607683[ebp]
  000e3	8d 8e 04 1a 00
	00		 lea	 ecx, DWORD PTR [esi+6660]
  000e9	50		 push	 eax
  000ea	e8 00 00 00 00	 call	 ?DecryptValueToPool@?$CEncrypt@H@@QAEXPAH@Z ; CEncrypt<int>::DecryptValueToPool

; 258  : 	m_dwConsecutionCheckTime = dwCurTime;

  000ef	8d 85 d0 7f ff
	ff		 lea	 eax, DWORD PTR _value$607687[ebp]
  000f5	50		 push	 eax
  000f6	8d 8e 64 1a 00
	00		 lea	 ecx, DWORD PTR [esi+6756]
  000fc	89 9d d0 7f ff
	ff		 mov	 DWORD PTR _value$607687[ebp], ebx
  00102	e8 00 00 00 00	 call	 ?EncryptValueToPool@?$CEncrypt@K@@AAEXPBD@Z ; CEncrypt<unsigned long>::EncryptValueToPool

; 259  : 
; 260  : 	m_iCurConsecutionCnt++;

  00107	8d 85 d4 7f ff
	ff		 lea	 eax, DWORD PTR _value$607691[ebp]
  0010d	50		 push	 eax
  0010e	8d 8e 04 1a 00
	00		 lea	 ecx, DWORD PTR [esi+6660]
  00114	e8 00 00 00 00	 call	 ?DecryptValueToPool@?$CEncrypt@H@@QAEXPAH@Z ; CEncrypt<int>::DecryptValueToPool
  00119	ff 85 d4 7f ff
	ff		 inc	 DWORD PTR _value$607691[ebp]
  0011f	8d 85 d4 7f ff
	ff		 lea	 eax, DWORD PTR _value$607691[ebp]
  00125	50		 push	 eax
  00126	8d 8e 04 1a 00
	00		 lea	 ecx, DWORD PTR [esi+6660]
  0012c	e8 00 00 00 00	 call	 ?EncryptValueToPool@?$CEncrypt@H@@AAEXPBD@Z ; CEncrypt<int>::EncryptValueToPool

; 261  : 	bool bConsecutionMax = false;
; 262  : 	int iExtendCnt = m_vExtendAttributeList.size();

  00131	8b 86 68 19 00
	00		 mov	 eax, DWORD PTR [esi+6504]
  00137	2b 86 64 19 00
	00		 sub	 eax, DWORD PTR [esi+6500]
  0013d	6a 50		 push	 80			; 00000050H
  0013f	99		 cdq
  00140	59		 pop	 ecx
  00141	f7 f9		 idiv	 ecx

; 263  : 
; 264  : 	if( m_iMaxConsecutionCnt > 0 && m_iCurConsecutionCnt >= m_iMaxConsecutionCnt )

  00143	8d 8e d4 19 00
	00		 lea	 ecx, DWORD PTR [esi+6612]
  00149	89 85 d0 7f ff
	ff		 mov	 DWORD PTR _iExtendCnt$[ebp], eax
  0014f	8d 85 d4 7f ff
	ff		 lea	 eax, DWORD PTR _value$607700[ebp]
  00155	50		 push	 eax
  00156	e8 00 00 00 00	 call	 ?DecryptValueToPool@?$CEncrypt@H@@QAEXPAH@Z ; CEncrypt<int>::DecryptValueToPool
  0015b	83 bd d4 7f ff
	ff 00		 cmp	 DWORD PTR _value$607700[ebp], 0
  00162	0f 8e ca 00 00
	00		 jle	 $LN6@ChangeToAt
  00168	8d 85 cc 7f ff
	ff		 lea	 eax, DWORD PTR _value$607704[ebp]
  0016e	50		 push	 eax
  0016f	8d 8e d4 19 00
	00		 lea	 ecx, DWORD PTR [esi+6612]
  00175	e8 00 00 00 00	 call	 ?DecryptValueToPool@?$CEncrypt@H@@QAEXPAH@Z ; CEncrypt<int>::DecryptValueToPool
  0017a	8d 85 d4 7f ff
	ff		 lea	 eax, DWORD PTR _value$607708[ebp]
  00180	50		 push	 eax
  00181	8d 8e 04 1a 00
	00		 lea	 ecx, DWORD PTR [esi+6660]
  00187	e8 00 00 00 00	 call	 ?DecryptValueToPool@?$CEncrypt@H@@QAEXPAH@Z ; CEncrypt<int>::DecryptValueToPool
  0018c	8b 85 d4 7f ff
	ff		 mov	 eax, DWORD PTR _value$607708[ebp]
  00192	3b 85 cc 7f ff
	ff		 cmp	 eax, DWORD PTR _value$607704[ebp]
  00198	0f 8c 94 00 00
	00		 jl	 $LN6@ChangeToAt

; 265  : 	{
; 266  : 		bConsecutionMax = true;
; 267  : 		m_iCurConsecutionCnt = 0;

  0019e	83 a5 cc 7f ff
	ff 00		 and	 DWORD PTR _value$607712[ebp], 0
  001a5	8d 85 cc 7f ff
	ff		 lea	 eax, DWORD PTR _value$607712[ebp]
  001ab	50		 push	 eax
  001ac	8d 8e 04 1a 00
	00		 lea	 ecx, DWORD PTR [esi+6660]
  001b2	e8 00 00 00 00	 call	 ?EncryptValueToPool@?$CEncrypt@H@@AAEXPBD@Z ; CEncrypt<int>::EncryptValueToPool

; 268  : 	}
; 269  : 	
; 270  : 	if( bConsecutionMax )
; 271  : 	{
; 272  : 		m_szCurAni = m_ConsecutionAttribute.m_AttackAnimation;

  001b7	8d 86 74 19 00
	00		 lea	 eax, DWORD PTR [esi+6516]
  001bd	50		 push	 eax
  001be	8d 8e 10 0f 00
	00		 lea	 ecx, DWORD PTR [esi+3856]
  001c4	ff 15 00 00 00
	00		 call	 DWORD PTR __imp_??4ioHashString@@QAEAAV0@ABV0@@Z

; 273  : 		m_fCurAniRate = m_ConsecutionAttribute.m_fAttackAniRate;

  001ca	d9 86 84 19 00
	00		 fld	 DWORD PTR [esi+6532]

; 274  : 
; 275  : 		m_dwInputCancelCheckTime = dwCurTime;
; 276  : 		m_dwCancelCheckTime = dwCurTime;
; 277  : 
; 278  : 		pOwner->SetNormalAttackByAttribute( m_ConsecutionAttribute );

  001d0	f3 0f 10 05 00
	00 00 00	 movss	 xmm0, DWORD PTR __real@3f800000
  001d8	d9 9e 20 0f 00
	00		 fstp	 DWORD PTR [esi+3872]
  001de	51		 push	 ecx
  001df	51		 push	 ecx
  001e0	f3 0f 11 44 24
	04		 movss	 DWORD PTR [esp+4], xmm0
  001e6	f3 0f 11 04 24	 movss	 DWORD PTR [esp], xmm0
  001eb	89 9e 0c 0f 00
	00		 mov	 DWORD PTR [esi+3852], ebx
  001f1	89 9e 08 0f 00
	00		 mov	 DWORD PTR [esi+3848], ebx
  001f7	6a 01		 push	 1
  001f9	8d 9e 74 19 00
	00		 lea	 ebx, DWORD PTR [esi+6516]
  001ff	53		 push	 ebx
  00200	8b cf		 mov	 ecx, edi
  00202	e8 00 00 00 00	 call	 ?SetNormalAttackByAttribute@ioBaseChar@@QAEKABUAttackAttribute@@_NMM@Z ; ioBaseChar::SetNormalAttackByAttribute

; 279  : 
; 280  : 		ioEntityGroup *pGrp = pOwner->GetGroup();

  00207	8b 4f 04	 mov	 ecx, DWORD PTR [edi+4]

; 281  : 		int iAniID	     = pGrp->GetAnimationIdx( m_ConsecutionAttribute.m_AttackAnimation );

  0020a	53		 push	 ebx
  0020b	ff 15 00 00 00
	00		 call	 DWORD PTR __imp_?GetAnimationIdx@ioEntityGroup@@QAEHABVioHashString@@@Z

; 282  : 		float fTimeRate  = m_ConsecutionAttribute.m_fAttackAniRate;
; 283  : 		DWORD dwPreDelay = m_ConsecutionAttribute.m_dwPreDelay;

  00211	8b 9e bc 19 00
	00		 mov	 ebx, DWORD PTR [esi+6588]
  00217	f3 0f 10 86 84
	19 00 00	 movss	 xmm0, DWORD PTR [esi+6532]

; 284  : 
; 285  : 		pOwner->SetBaseAttackExtraAniJump( iAniID, fTimeRate, dwPreDelay );

  0021f	53		 push	 ebx
  00220	51		 push	 ecx
  00221	f3 0f 11 04 24	 movss	 DWORD PTR [esp], xmm0
  00226	89 85 d4 7f ff
	ff		 mov	 DWORD PTR _iAniID$601194[ebp], eax
  0022c	50		 push	 eax

; 286  : 		pOwner->SetExtendAttackEndJumpInfo( iAniID, fTimeRate, dwPreDelay );

  0022d	e9 ba 00 00 00	 jmp	 $LN61@ChangeToAt
$LN6@ChangeToAt:

; 287  : 	}
; 288  : 	else if( COMPARE( m_iCurCombo, 0, iExtendCnt ) )

  00232	8b 86 cc 19 00
	00		 mov	 eax, DWORD PTR [esi+6604]
  00238	85 c0		 test	 eax, eax
  0023a	0f 88 d7 00 00
	00		 js	 $LN4@ChangeToAt
  00240	3b 85 d0 7f ff
	ff		 cmp	 eax, DWORD PTR _iExtendCnt$[ebp]
  00246	0f 8d cb 00 00
	00		 jge	 $LN4@ChangeToAt

; 289  : 	{
; 290  : 		m_szCurAni = m_vExtendAttributeList[m_iCurCombo].m_AttackAnimation;

  0024c	6b c0 50	 imul	 eax, 80			; 00000050H
  0024f	03 86 64 19 00
	00		 add	 eax, DWORD PTR [esi+6500]
  00255	8d 8e 10 0f 00
	00		 lea	 ecx, DWORD PTR [esi+3856]
  0025b	50		 push	 eax
  0025c	ff 15 00 00 00
	00		 call	 DWORD PTR __imp_??4ioHashString@@QAEAAV0@ABV0@@Z

; 291  : 		m_fCurAniRate = m_vExtendAttributeList[m_iCurCombo].m_fAttackAniRate;

  00262	8b 86 cc 19 00
	00		 mov	 eax, DWORD PTR [esi+6604]
  00268	8b 8e 64 19 00
	00		 mov	 ecx, DWORD PTR [esi+6500]
  0026e	6b c0 50	 imul	 eax, 80			; 00000050H

; 292  : 
; 293  : 		m_dwInputCancelCheckTime = dwCurTime;
; 294  : 		m_dwCancelCheckTime = dwCurTime;
; 295  : 
; 296  : 		pOwner->SetNormalAttackByAttribute( m_vExtendAttributeList[m_iCurCombo] );

  00271	f3 0f 10 05 00
	00 00 00	 movss	 xmm0, DWORD PTR __real@3f800000
  00279	51		 push	 ecx
  0027a	51		 push	 ecx
  0027b	f3 0f 11 44 24
	04		 movss	 DWORD PTR [esp+4], xmm0
  00281	03 c1		 add	 eax, ecx
  00283	d9 40 10	 fld	 DWORD PTR [eax+16]
  00286	f3 0f 11 04 24	 movss	 DWORD PTR [esp], xmm0
  0028b	6a 01		 push	 1
  0028d	d9 9e 20 0f 00
	00		 fstp	 DWORD PTR [esi+3872]
  00293	50		 push	 eax
  00294	8b cf		 mov	 ecx, edi
  00296	89 9e 0c 0f 00
	00		 mov	 DWORD PTR [esi+3852], ebx
  0029c	89 9e 08 0f 00
	00		 mov	 DWORD PTR [esi+3848], ebx
  002a2	e8 00 00 00 00	 call	 ?SetNormalAttackByAttribute@ioBaseChar@@QAEKABUAttackAttribute@@_NMM@Z ; ioBaseChar::SetNormalAttackByAttribute

; 297  : 
; 298  : 		ioEntityGroup *pGrp = pOwner->GetGroup();
; 299  : 		int iAniID	     = pGrp->GetAnimationIdx( m_vExtendAttributeList[m_iCurCombo].m_AttackAnimation );

  002a7	8b 86 cc 19 00
	00		 mov	 eax, DWORD PTR [esi+6604]
  002ad	8b 4f 04	 mov	 ecx, DWORD PTR [edi+4]
  002b0	6b c0 50	 imul	 eax, 80			; 00000050H
  002b3	03 86 64 19 00
	00		 add	 eax, DWORD PTR [esi+6500]
  002b9	50		 push	 eax
  002ba	ff 15 00 00 00
	00		 call	 DWORD PTR __imp_?GetAnimationIdx@ioEntityGroup@@QAEHABVioHashString@@@Z

; 300  : 		float fTimeRate  = m_vExtendAttributeList[m_iCurCombo].m_fAttackAniRate;

  002c0	8b 8e 64 19 00
	00		 mov	 ecx, DWORD PTR [esi+6500]
  002c6	89 85 d4 7f ff
	ff		 mov	 DWORD PTR _iAniID$601200[ebp], eax
  002cc	8b 86 cc 19 00
	00		 mov	 eax, DWORD PTR [esi+6604]
  002d2	6b c0 50	 imul	 eax, 80			; 00000050H

; 301  : 		DWORD dwPreDelay = m_vExtendAttributeList[m_iCurCombo].m_dwPreDelay;

  002d5	8b 5c 08 48	 mov	 ebx, DWORD PTR [eax+ecx+72]
  002d9	f3 0f 10 44 08
	10		 movss	 xmm0, DWORD PTR [eax+ecx+16]

; 302  : 
; 303  : 		pOwner->SetBaseAttackExtraAniJump( iAniID, fTimeRate, dwPreDelay );

  002df	53		 push	 ebx
  002e0	51		 push	 ecx
  002e1	f3 0f 11 04 24	 movss	 DWORD PTR [esp], xmm0
  002e6	ff b5 d4 7f ff
	ff		 push	 DWORD PTR _iAniID$601200[ebp]
$LN61@ChangeToAt:
  002ec	8b cf		 mov	 ecx, edi
  002ee	f3 0f 11 85 cc
	7f ff ff	 movss	 DWORD PTR _fTimeRate$601201[ebp], xmm0
  002f6	e8 00 00 00 00	 call	 ?SetBaseAttackExtraAniJump@ioBaseChar@@QAEXHMK@Z ; ioBaseChar::SetBaseAttackExtraAniJump

; 304  : 		pOwner->SetExtendAttackEndJumpInfo( iAniID, fTimeRate, dwPreDelay );

  002fb	f3 0f 10 85 cc
	7f ff ff	 movss	 xmm0, DWORD PTR _fTimeRate$601201[ebp]
  00303	53		 push	 ebx
  00304	51		 push	 ecx
  00305	f3 0f 11 04 24	 movss	 DWORD PTR [esp], xmm0
  0030a	ff b5 d4 7f ff
	ff		 push	 DWORD PTR _iAniID$601200[ebp]
  00310	8b cf		 mov	 ecx, edi
  00312	e8 00 00 00 00	 call	 ?SetExtendAttackEndJumpInfo@ioBaseChar@@QAEXHMK@Z ; ioBaseChar::SetExtendAttackEndJumpInfo
$LN4@ChangeToAt:

; 305  : 	}
; 306  : 
; 307  : 	if( iExtendCnt <= m_iCurCombo + 1 )

  00317	8b 86 cc 19 00
	00		 mov	 eax, DWORD PTR [esi+6604]
  0031d	8d 48 01	 lea	 ecx, DWORD PTR [eax+1]
  00320	39 8d d0 7f ff
	ff		 cmp	 DWORD PTR _iExtendCnt$[ebp], ecx

; 308  : 		pOwner->ApplyNormalAttackResult( m_iCurCombo, true );

  00326	8b cf		 mov	 ecx, edi
  00328	7f 04		 jg	 SHORT $LN3@ChangeToAt
  0032a	6a 01		 push	 1

; 309  : 	else

  0032c	eb 02		 jmp	 SHORT $LN62@ChangeToAt
$LN3@ChangeToAt:

; 310  : 		pOwner->ApplyNormalAttackResult( m_iCurCombo );

  0032e	6a 00		 push	 0
$LN62@ChangeToAt:
  00330	50		 push	 eax
  00331	e8 00 00 00 00	 call	 ?ApplyNormalAttackResult@ioBaseChar@@QAEXH_N@Z ; ioBaseChar::ApplyNormalAttackResult

; 311  : 
; 312  : 	m_ChargeState = CS_ATTACK_FIRE;

  00336	c7 86 c4 19 00
	00 03 00 00 00	 mov	 DWORD PTR [esi+6596], 3

; 313  : 
; 314  : 	if( pOwner->IsNeedSendNetwork() )

  00340	8b 07		 mov	 eax, DWORD PTR [edi]
  00342	8b cf		 mov	 ecx, edi
  00344	ff 90 04 01 00
	00		 call	 DWORD PTR [eax+260]
  0034a	84 c0		 test	 al, al
  0034c	0f 84 87 00 00
	00		 je	 $LN1@ChangeToAt

; 315  : 	{
; 316  : 		SP2Packet kPacket( CUPK_ITEM_GAUGE_OK );

  00352	68 27 41 00 00	 push	 16679			; 00004127H
  00357	8d 8d d8 7f ff
	ff		 lea	 ecx, DWORD PTR _kPacket$601206[ebp]
  0035d	e8 00 00 00 00	 call	 ??0SP2Packet@@QAE@K@Z	; SP2Packet::SP2Packet
  00362	83 65 fc 00	 and	 DWORD PTR __$EHRec$[ebp+8], 0

; 317  : 		FillItemGaugePacketHeader( pOwner, kPacket );

  00366	8d 85 d8 7f ff
	ff		 lea	 eax, DWORD PTR _kPacket$601206[ebp]
  0036c	50		 push	 eax
  0036d	57		 push	 edi
  0036e	8b ce		 mov	 ecx, esi
  00370	e8 00 00 00 00	 call	 ?FillItemGaugePacketHeader@ioAttackableItem@@QAEXPAVioBaseChar@@AAVSP2Packet@@@Z ; ioAttackableItem::FillItemGaugePacketHeader

; 318  : 		kPacket << m_ChargeState;

  00375	ff b6 c4 19 00
	00		 push	 DWORD PTR [esi+6596]
  0037b	8d 8d d8 7f ff
	ff		 lea	 ecx, DWORD PTR _kPacket$601206[ebp]
  00381	e8 00 00 00 00	 call	 ??6SP2Packet@@QAEAAV0@H@Z ; SP2Packet::operator<<

; 319  : 		kPacket << m_iCurCombo;

  00386	ff b6 cc 19 00
	00		 push	 DWORD PTR [esi+6604]
  0038c	8d 8d d8 7f ff
	ff		 lea	 ecx, DWORD PTR _kPacket$601206[ebp]
  00392	e8 00 00 00 00	 call	 ??6SP2Packet@@QAEAAV0@H@Z ; SP2Packet::operator<<

; 320  : 		kPacket << pOwner->GetTargetRot();

  00397	81 c7 a4 06 00
	00		 add	 edi, 1700		; 000006a4H
  0039d	57		 push	 edi
  0039e	8d 8d d8 7f ff
	ff		 lea	 ecx, DWORD PTR _kPacket$601206[ebp]
  003a4	e8 00 00 00 00	 call	 ??6SP2Packet@@QAEAAV0@ABUD3DXQUATERNION@@@Z ; SP2Packet::operator<<

; 321  : 		kPacket << iCurConsecutionCnt;

  003a9	ff b5 c8 7f ff
	ff		 push	 DWORD PTR _value$607683[ebp]
  003af	8d 8d d8 7f ff
	ff		 lea	 ecx, DWORD PTR _kPacket$601206[ebp]
  003b5	e8 00 00 00 00	 call	 ??6SP2Packet@@QAEAAV0@H@Z ; SP2Packet::operator<<

; 322  : 		P2PNetwork::SendToAllPlayingUser( kPacket );

  003ba	8d 85 d8 7f ff
	ff		 lea	 eax, DWORD PTR _kPacket$601206[ebp]
  003c0	6a 00		 push	 0
  003c2	50		 push	 eax
  003c3	e8 00 00 00 00	 call	 ?SendToAllPlayingUser@P2PNetwork@@YAXAAVSP2Packet@@PAVioBaseChar@@@Z ; P2PNetwork::SendToAllPlayingUser

; 323  : 	}

  003c8	83 4d fc ff	 or	 DWORD PTR __$EHRec$[ebp+8], -1
  003cc	59		 pop	 ecx
  003cd	59		 pop	 ecx
  003ce	8d 8d d8 7f ff
	ff		 lea	 ecx, DWORD PTR _kPacket$601206[ebp]
  003d4	e8 00 00 00 00	 call	 ??1SP2Packet@@UAE@XZ	; SP2Packet::~SP2Packet
$LN1@ChangeToAt:

; 324  : }

  003d9	8b 4d f4	 mov	 ecx, DWORD PTR __$EHRec$[ebp]
  003dc	64 89 0d 00 00
	00 00		 mov	 DWORD PTR fs:0, ecx
  003e3	59		 pop	 ecx
  003e4	5f		 pop	 edi
  003e5	5e		 pop	 esi
  003e6	5b		 pop	 ebx
  003e7	8b 4d f0	 mov	 ecx, DWORD PTR __$ArrayPad$[ebp]
  003ea	33 cd		 xor	 ecx, ebp
  003ec	e8 00 00 00 00	 call	 @__security_check_cookie@4
  003f1	c9		 leave
  003f2	c2 04 00	 ret	 4
_TEXT	ENDS
;	COMDAT text$x
text$x	SEGMENT
__unwindfunclet$?ChangeToAttackFire@ioConsecutionItem@@IAEXPAVioBaseChar@@@Z$0:
  00000	8d 8d d8 7f ff
	ff		 lea	 ecx, DWORD PTR _kPacket$601206[ebp]
  00006	e9 00 00 00 00	 jmp	 ??1SP2Packet@@UAE@XZ	; SP2Packet::~SP2Packet
__ehhandler$?ChangeToAttackFire@ioConsecutionItem@@IAEXPAVioBaseChar@@@Z:
  0000b	8b 54 24 08	 mov	 edx, DWORD PTR [esp+8]
  0000f	8d 42 0c	 lea	 eax, DWORD PTR [edx+12]
  00012	8b 8a c4 7f ff
	ff		 mov	 ecx, DWORD PTR [edx-32828]
  00018	33 c8		 xor	 ecx, eax
  0001a	e8 00 00 00 00	 call	 @__security_check_cookie@4
  0001f	8b 4a fc	 mov	 ecx, DWORD PTR [edx-4]
  00022	33 c8		 xor	 ecx, eax
  00024	e8 00 00 00 00	 call	 @__security_check_cookie@4
  00029	b8 00 00 00 00	 mov	 eax, OFFSET __ehfuncinfo$?ChangeToAttackFire@ioConsecutionItem@@IAEXPAVioBaseChar@@@Z
  0002e	e9 00 00 00 00	 jmp	 ___CxxFrameHandler3
text$x	ENDS
?ChangeToAttackFire@ioConsecutionItem@@IAEXPAVioBaseChar@@@Z ENDP ; ioConsecutionItem::ChangeToAttackFire
PUBLIC	?OnItemGaugeOK@ioConsecutionItem@@UAEXPAVioBaseChar@@AAVSP2Packet@@@Z ; ioConsecutionItem::OnItemGaugeOK
EXTRN	??5SP2Packet@@QAEAAV0@AAV?$CEncrypt@H@@@Z:PROC	; SP2Packet::operator>>
EXTRN	?SetTargetRot@ioBaseChar@@QAEXABUD3DXQUATERNION@@@Z:PROC ; ioBaseChar::SetTargetRot
EXTRN	??5SP2Packet@@QAEAAV0@AAUD3DXQUATERNION@@@Z:PROC ; SP2Packet::operator>>
EXTRN	??5SP2Packet@@QAEAAV0@AAH@Z:PROC		; SP2Packet::operator>>
; Function compile flags: /Ogsp
;	COMDAT ?OnItemGaugeOK@ioConsecutionItem@@UAEXPAVioBaseChar@@AAVSP2Packet@@@Z
_TEXT	SEGMENT
_qtRot$ = -16						; size = 16
_iState$ = 8						; size = 4
_pOwner$ = 8						; size = 4
_rkPacket$ = 12						; size = 4
?OnItemGaugeOK@ioConsecutionItem@@UAEXPAVioBaseChar@@AAVSP2Packet@@@Z PROC ; ioConsecutionItem::OnItemGaugeOK, COMDAT
; _this$ = ecx

; 327  : {

  00000	55		 push	 ebp
  00001	8b ec		 mov	 ebp, esp
  00003	83 ec 10	 sub	 esp, 16			; 00000010H
  00006	53		 push	 ebx

; 328  : 	if( !pOwner ) return;

  00007	8b 5d 08	 mov	 ebx, DWORD PTR _pOwner$[ebp]
  0000a	56		 push	 esi
  0000b	8b f1		 mov	 esi, ecx
  0000d	85 db		 test	 ebx, ebx
  0000f	74 5e		 je	 SHORT $LN3@OnItemGaug

; 329  : 
; 330  : 	int iState;
; 331  : 	rkPacket >> iState;

  00011	57		 push	 edi
  00012	8b 7d 0c	 mov	 edi, DWORD PTR _rkPacket$[ebp]
  00015	8d 45 08	 lea	 eax, DWORD PTR _iState$[ebp]
  00018	50		 push	 eax
  00019	8b cf		 mov	 ecx, edi
  0001b	e8 00 00 00 00	 call	 ??5SP2Packet@@QAEAAV0@AAH@Z ; SP2Packet::operator>>

; 332  : 	rkPacket >> m_iCurCombo;

  00020	8d 86 cc 19 00
	00		 lea	 eax, DWORD PTR [esi+6604]
  00026	50		 push	 eax
  00027	8b cf		 mov	 ecx, edi
  00029	e8 00 00 00 00	 call	 ??5SP2Packet@@QAEAAV0@AAH@Z ; SP2Packet::operator>>

; 333  : 
; 334  : 	D3DXQUATERNION qtRot;
; 335  : 	rkPacket >> qtRot;

  0002e	8d 45 f0	 lea	 eax, DWORD PTR _qtRot$[ebp]
  00031	50		 push	 eax
  00032	8b cf		 mov	 ecx, edi
  00034	e8 00 00 00 00	 call	 ??5SP2Packet@@QAEAAV0@AAUD3DXQUATERNION@@@Z ; SP2Packet::operator>>

; 336  : 	pOwner->SetTargetRot( qtRot );

  00039	8d 45 f0	 lea	 eax, DWORD PTR _qtRot$[ebp]
  0003c	50		 push	 eax
  0003d	8b cb		 mov	 ecx, ebx
  0003f	e8 00 00 00 00	 call	 ?SetTargetRot@ioBaseChar@@QAEXABUD3DXQUATERNION@@@Z ; ioBaseChar::SetTargetRot

; 337  : 
; 338  : 	switch( iState )

  00044	8b 45 08	 mov	 eax, DWORD PTR _iState$[ebp]
  00047	48		 dec	 eax
  00048	48		 dec	 eax
  00049	74 1b		 je	 SHORT $LN2@OnItemGaug
  0004b	48		 dec	 eax
  0004c	75 20		 jne	 SHORT $LN10@OnItemGaug

; 342  : 		break;
; 343  : 	case CS_ATTACK_FIRE:
; 344  : 		{
; 345  : 			rkPacket >> m_iCurConsecutionCnt;

  0004e	8d 86 04 1a 00
	00		 lea	 eax, DWORD PTR [esi+6660]
  00054	50		 push	 eax
  00055	8b cf		 mov	 ecx, edi
  00057	e8 00 00 00 00	 call	 ??5SP2Packet@@QAEAAV0@AAV?$CEncrypt@H@@@Z ; SP2Packet::operator>>

; 346  : 			ChangeToAttackFire( pOwner );

  0005c	53		 push	 ebx
  0005d	8b ce		 mov	 ecx, esi
  0005f	e8 00 00 00 00	 call	 ?ChangeToAttackFire@ioConsecutionItem@@IAEXPAVioBaseChar@@@Z ; ioConsecutionItem::ChangeToAttackFire

; 347  : 		}
; 348  : 		break;

  00064	eb 08		 jmp	 SHORT $LN10@OnItemGaug
$LN2@OnItemGaug:

; 339  : 	{
; 340  : 	case CS_NORMAL_ATTACK:
; 341  : 		ChangeToNormalAttack( pOwner );

  00066	53		 push	 ebx
  00067	8b ce		 mov	 ecx, esi
  00069	e8 00 00 00 00	 call	 ?ChangeToNormalAttack@ioConsecutionItem@@IAEXPAVioBaseChar@@@Z ; ioConsecutionItem::ChangeToNormalAttack
$LN10@OnItemGaug:
  0006e	5f		 pop	 edi
$LN3@OnItemGaug:
  0006f	5e		 pop	 esi
  00070	5b		 pop	 ebx

; 349  : 	}
; 350  : }

  00071	c9		 leave
  00072	c2 08 00	 ret	 8
?OnItemGaugeOK@ioConsecutionItem@@UAEXPAVioBaseChar@@AAVSP2Packet@@@Z ENDP ; ioConsecutionItem::OnItemGaugeOK
_TEXT	ENDS
PUBLIC	_pWeapon$GSCopy$
PUBLIC	_this$GSCopy$
PUBLIC	__$ArrayPad$
PUBLIC	?SetExtraInfoToWeapon@ioConsecutionItem@@UAEXPAVioWeapon@@_N@Z ; ioConsecutionItem::SetExtraInfoToWeapon
EXTRN	?GetCurChargeComboState@ioChargeComboDefenseJump@@QAEHXZ:PROC ; ioChargeComboDefenseJump::GetCurChargeComboState
EXTRN	?GetCurChargeComboState@ioChargeComboJump2@@QAEHXZ:PROC ; ioChargeComboJump2::GetCurChargeComboState
EXTRN	?GetCurExtendJump@ioAttackableItem@@QAEPAVioExtendJump@@XZ:PROC ; ioAttackableItem::GetCurExtendJump
EXTRN	?SetZoneValue@ioZoneEffectWeapon@@QAEX_N0@Z:PROC ; ioZoneEffectWeapon::SetZoneValue
EXTRN	?SetCollisionDir@ioZoneEffectWeapon@@QAEXAAUD3DXVECTOR3@@@Z:PROC ; ioZoneEffectWeapon::SetCollisionDir
EXTRN	__imp_??D@YA?AUD3DXVECTOR3@@ABUD3DXQUATERNION@@ABU0@@Z:PROC
EXTRN	?GetOwner@ioWeapon@@QBEPAVioBaseChar@@XZ:PROC	; ioWeapon::GetOwner
EXTRN	?SetExtraInfoToWeapon@ioAttackableItem@@UAEXPAVioWeapon@@_N@Z:PROC ; ioAttackableItem::SetExtraInfoToWeapon
; Function compile flags: /Ogsp
;	COMDAT ?SetExtraInfoToWeapon@ioConsecutionItem@@UAEXPAVioWeapon@@_N@Z
_TEXT	SEGMENT
_pWeapon$GSCopy$ = -44					; size = 4
_this$GSCopy$ = -40					; size = 4
tv272 = -36						; size = 4
_value$607807 = -36					; size = 4
_value$607787 = -36					; size = 4
_bInputLiveTime$ = -29					; size = 1
_vDir$601230 = -28					; size = 12
$T601232 = -16						; size = 12
__$ArrayPad$ = -4					; size = 4
_pWeapon$ = 8						; size = 4
_bJumpAttack$ = 12					; size = 1
?SetExtraInfoToWeapon@ioConsecutionItem@@UAEXPAVioWeapon@@_N@Z PROC ; ioConsecutionItem::SetExtraInfoToWeapon, COMDAT
; _this$ = ecx

; 353  : {

  00000	55		 push	 ebp
  00001	8b ec		 mov	 ebp, esp
  00003	83 ec 2c	 sub	 esp, 44			; 0000002cH
  00006	a1 00 00 00 00	 mov	 eax, DWORD PTR ___security_cookie
  0000b	33 c5		 xor	 eax, ebp
  0000d	89 45 fc	 mov	 DWORD PTR __$ArrayPad$[ebp], eax
  00010	56		 push	 esi
  00011	8b 75 08	 mov	 esi, DWORD PTR _pWeapon$[ebp]
  00014	57		 push	 edi

; 354  : 	ioAttackableItem::SetExtraInfoToWeapon( pWeapon, bJumpAttack );

  00015	ff 75 0c	 push	 DWORD PTR _bJumpAttack$[ebp]

; 380  : 			{
; 381  : 				bInputLiveTime = true;

  00018	89 4d d8	 mov	 DWORD PTR _this$GSCopy$[ebp], ecx
  0001b	56		 push	 esi
  0001c	89 75 d4	 mov	 DWORD PTR _pWeapon$GSCopy$[ebp], esi
  0001f	e8 00 00 00 00	 call	 ?SetExtraInfoToWeapon@ioAttackableItem@@UAEXPAVioWeapon@@_N@Z ; ioAttackableItem::SetExtraInfoToWeapon
  00024	8b ce		 mov	 ecx, esi
  00026	e8 00 00 00 00	 call	 ?GetOwner@ioWeapon@@QBEPAVioBaseChar@@XZ ; ioWeapon::GetOwner
  0002b	56		 push	 esi
  0002c	8b f8		 mov	 edi, eax
  0002e	e8 00 00 00 00	 call	 ?ToZoneEffectWeapon@@YAPAVioZoneEffectWeapon@@PAVioWeapon@@@Z ; ToZoneEffectWeapon
  00033	8b f0		 mov	 esi, eax
  00035	59		 pop	 ecx
  00036	85 f6		 test	 esi, esi
  00038	74 59		 je	 SHORT $LN8@SetExtraIn

; 355  : 
; 356  : 	ioBaseChar *pOwner = pWeapon->GetOwner();
; 357  : 
; 358  : 	//
; 359  : 	ioZoneEffectWeapon *pZone = ToZoneEffectWeapon( pWeapon );
; 360  : 	if( pZone )
; 361  : 	{
; 362  : 		if( pOwner )

  0003a	85 ff		 test	 edi, edi
  0003c	74 55		 je	 SHORT $LN8@SetExtraIn

; 363  : 		{
; 364  : 			D3DXVECTOR3 vDir = pOwner->GetTargetRot() * D3DXVECTOR3( 0.0f, 0.0f, -FLOAT1 );

  0003e	b8 01 00 00 00	 mov	 eax, 1
  00043	0f 57 c0	 xorps	 xmm0, xmm0
  00046	89 45 dc	 mov	 DWORD PTR tv272[ebp], eax
  00049	db 45 dc	 fild	 DWORD PTR tv272[ebp]
  0004c	f3 0f 11 45 f0	 movss	 DWORD PTR $T601232[ebp], xmm0
  00051	f3 0f 11 45 f4	 movss	 DWORD PTR $T601232[ebp+4], xmm0
  00056	85 c0		 test	 eax, eax
  00058	79 06		 jns	 SHORT $LN35@SetExtraIn
  0005a	d8 05 00 00 00
	00		 fadd	 DWORD PTR __real@4f800000
$LN35@SetExtraIn:
  00060	8d 45 f0	 lea	 eax, DWORD PTR $T601232[ebp]
  00063	d9 e0		 fchs
  00065	50		 push	 eax
  00066	d9 5d f8	 fstp	 DWORD PTR $T601232[ebp+8]
  00069	8d 87 a4 06 00
	00		 lea	 eax, DWORD PTR [edi+1700]
  0006f	50		 push	 eax
  00070	8d 45 e4	 lea	 eax, DWORD PTR _vDir$601230[ebp]
  00073	50		 push	 eax
  00074	ff 15 00 00 00
	00		 call	 DWORD PTR __imp_??D@YA?AUD3DXVECTOR3@@ABUD3DXQUATERNION@@ABU0@@Z
  0007a	83 c4 0c	 add	 esp, 12			; 0000000cH

; 365  : 			pZone->SetCollisionDir( vDir );

  0007d	8d 45 e4	 lea	 eax, DWORD PTR _vDir$601230[ebp]
  00080	50		 push	 eax
  00081	8b ce		 mov	 ecx, esi
  00083	e8 00 00 00 00	 call	 ?SetCollisionDir@ioZoneEffectWeapon@@QAEXAAUD3DXVECTOR3@@@Z ; ioZoneEffectWeapon::SetCollisionDir

; 366  : 			pZone->SetZoneValue( false, false );

  00088	6a 00		 push	 0
  0008a	6a 00		 push	 0
  0008c	8b ce		 mov	 ecx, esi
  0008e	e8 00 00 00 00	 call	 ?SetZoneValue@ioZoneEffectWeapon@@QAEX_N0@Z ; ioZoneEffectWeapon::SetZoneValue
$LN8@SetExtraIn:

; 367  : 		}
; 368  : 	}
; 369  : 
; 370  : 	bool bInputLiveTime = false;
; 371  : 	DWORD dwLiveTime = 0;
; 372  : 
; 373  : 	ioChargeComboJump2 *pCharComboJump2 = ToChargeComboJump2( GetCurExtendJump() );

  00093	8b 4d d8	 mov	 ecx, DWORD PTR _this$GSCopy$[ebp]
  00096	53		 push	 ebx
  00097	c6 45 e3 00	 mov	 BYTE PTR _bInputLiveTime$[ebp], 0
  0009b	33 f6		 xor	 esi, esi
  0009d	e8 00 00 00 00	 call	 ?GetCurExtendJump@ioAttackableItem@@QAEPAVioExtendJump@@XZ ; ioAttackableItem::GetCurExtendJump
  000a2	50		 push	 eax
  000a3	e8 00 00 00 00	 call	 ?ToChargeComboJump2@@YAPAVioChargeComboJump2@@PAVioExtendJump@@@Z ; ToChargeComboJump2
  000a8	59		 pop	 ecx
  000a9	8b d8		 mov	 ebx, eax

; 374  : 	if( pOwner && pOwner->GetState() == CS_JUMP )

  000ab	85 ff		 test	 edi, edi
  000ad	74 3b		 je	 SHORT $LN5@SetExtraIn
  000af	80 bf 10 03 00
	00 04		 cmp	 BYTE PTR [edi+784], 4
  000b6	75 32		 jne	 SHORT $LN5@SetExtraIn

; 375  : 	{
; 376  : 		if( pOwner->GetJumpState() == JS_JUMP_ATTACK )

  000b8	8d 45 dc	 lea	 eax, DWORD PTR _value$607787[ebp]
  000bb	50		 push	 eax
  000bc	8d 8f 40 0e 00
	00		 lea	 ecx, DWORD PTR [edi+3648]
  000c2	e8 00 00 00 00	 call	 ?DecryptValueToPool@?$CEncrypt@W4JumpState@@@@QAEXPAW4JumpState@@@Z ; CEncrypt<enum JumpState>::DecryptValueToPool
  000c7	83 7d dc 04	 cmp	 DWORD PTR _value$607787[ebp], 4
  000cb	75 1d		 jne	 SHORT $LN5@SetExtraIn

; 377  : 		{
; 378  : 			if( pCharComboJump2 &&
; 379  : 				pCharComboJump2->GetCurChargeComboState() == ioChargeComboJump2::CCS_EXTEND_ATTACK )

  000cd	85 db		 test	 ebx, ebx
  000cf	74 19		 je	 SHORT $LN5@SetExtraIn
  000d1	8b cb		 mov	 ecx, ebx
  000d3	e8 00 00 00 00	 call	 ?GetCurChargeComboState@ioChargeComboJump2@@QAEHXZ ; ioChargeComboJump2::GetCurChargeComboState
  000d8	83 f8 03	 cmp	 eax, 3
  000db	75 0d		 jne	 SHORT $LN5@SetExtraIn

; 382  : 				dwLiveTime = pCharComboJump2->GetFlightTime() * 10;

  000dd	8b b3 d4 04 00
	00		 mov	 esi, DWORD PTR [ebx+1236]
  000e3	c6 45 e3 01	 mov	 BYTE PTR _bInputLiveTime$[ebp], 1
  000e7	6b f6 0a	 imul	 esi, 10			; 0000000aH
$LN5@SetExtraIn:

; 383  : 			}
; 384  : 		}
; 385  : 	}
; 386  : 
; 387  : 	ioChargeComboDefenseJump *pCharComboDefense = ToChargeComboDefenseJump( GetCurExtendJump() );

  000ea	8b 4d d8	 mov	 ecx, DWORD PTR _this$GSCopy$[ebp]
  000ed	e8 00 00 00 00	 call	 ?GetCurExtendJump@ioAttackableItem@@QAEPAVioExtendJump@@XZ ; ioAttackableItem::GetCurExtendJump
  000f2	50		 push	 eax
  000f3	e8 00 00 00 00	 call	 ?ToChargeComboDefenseJump@@YAPAVioChargeComboDefenseJump@@PAVioExtendJump@@@Z ; ToChargeComboDefenseJump
  000f8	59		 pop	 ecx
  000f9	8b d8		 mov	 ebx, eax

; 388  : 	if( pOwner && pOwner->GetState() == CS_JUMP )

  000fb	85 ff		 test	 edi, edi
  000fd	74 3b		 je	 SHORT $LN34@SetExtraIn
  000ff	80 bf 10 03 00
	00 04		 cmp	 BYTE PTR [edi+784], 4
  00106	75 32		 jne	 SHORT $LN34@SetExtraIn

; 389  : 	{
; 390  : 		if( pOwner->GetJumpState() == JS_JUMP_ATTACK )

  00108	8d 45 dc	 lea	 eax, DWORD PTR _value$607807[ebp]
  0010b	50		 push	 eax
  0010c	8d 8f 40 0e 00
	00		 lea	 ecx, DWORD PTR [edi+3648]
  00112	e8 00 00 00 00	 call	 ?DecryptValueToPool@?$CEncrypt@W4JumpState@@@@QAEXPAW4JumpState@@@Z ; CEncrypt<enum JumpState>::DecryptValueToPool
  00117	83 7d dc 04	 cmp	 DWORD PTR _value$607807[ebp], 4
  0011b	75 1d		 jne	 SHORT $LN34@SetExtraIn

; 391  : 		{
; 392  : 			if( pCharComboDefense &&
; 393  : 				pCharComboDefense->GetCurChargeComboState() == ioChargeComboDefenseJump::CCS_EXTEND_ATTACK )

  0011d	85 db		 test	 ebx, ebx
  0011f	74 19		 je	 SHORT $LN34@SetExtraIn
  00121	8b cb		 mov	 ecx, ebx
  00123	e8 00 00 00 00	 call	 ?GetCurChargeComboState@ioChargeComboDefenseJump@@QAEHXZ ; ioChargeComboDefenseJump::GetCurChargeComboState
  00128	83 f8 03	 cmp	 eax, 3
  0012b	75 0d		 jne	 SHORT $LN34@SetExtraIn

; 394  : 			{
; 395  : 				bInputLiveTime = true;
; 396  : 				dwLiveTime = pCharComboDefense->GetFlightTime() * 10;

  0012d	8b b3 98 04 00
	00		 mov	 esi, DWORD PTR [ebx+1176]
  00133	c6 45 e3 01	 mov	 BYTE PTR _bInputLiveTime$[ebp], 1
  00137	6b f6 0a	 imul	 esi, 10			; 0000000aH
$LN34@SetExtraIn:

; 397  : 			}
; 398  : 		}
; 399  : 	}
; 400  : 
; 401  : 	if( bInputLiveTime )

  0013a	80 7d e3 00	 cmp	 BYTE PTR _bInputLiveTime$[ebp], 0
  0013e	5b		 pop	 ebx
  0013f	74 0c		 je	 SHORT $LN1@SetExtraIn

; 402  : 	{
; 403  : 		pWeapon->SetLiveTime( dwLiveTime );

  00141	8b 4d d4	 mov	 ecx, DWORD PTR _pWeapon$GSCopy$[ebp]
  00144	8b 01		 mov	 eax, DWORD PTR [ecx]
  00146	56		 push	 esi
  00147	ff 90 ac 00 00
	00		 call	 DWORD PTR [eax+172]
$LN1@SetExtraIn:

; 404  : 	}
; 405  : }

  0014d	8b 4d fc	 mov	 ecx, DWORD PTR __$ArrayPad$[ebp]
  00150	5f		 pop	 edi
  00151	33 cd		 xor	 ecx, ebp
  00153	5e		 pop	 esi
  00154	e8 00 00 00 00	 call	 @__security_check_cookie@4
  00159	c9		 leave
  0015a	c2 08 00	 ret	 8
?SetExtraInfoToWeapon@ioConsecutionItem@@UAEXPAVioWeapon@@_N@Z ENDP ; ioConsecutionItem::SetExtraInfoToWeapon
_TEXT	ENDS
PUBLIC	??0?$CEncrypt@K@@QAE@ABV0@@Z			; CEncrypt<unsigned long>::CEncrypt<unsigned long>
;	COMDAT xdata$x
; File d:\lost saga for developer\youtube\tutorial\source\src\lsclient\encryptvalue.h
xdata$x	SEGMENT
__unwindtable$??0?$CEncrypt@K@@QAE@ABV0@@Z DD 0ffffffffH
	DD	FLAT:__unwindfunclet$??0?$CEncrypt@K@@QAE@ABV0@@Z$0
__ehfuncinfo$??0?$CEncrypt@K@@QAE@ABV0@@Z DD 019930522H
	DD	01H
	DD	FLAT:__unwindtable$??0?$CEncrypt@K@@QAE@ABV0@@Z
	DD	2 DUP(00H)
	DD	2 DUP(00H)
	DD	00H
	DD	01H
; Function compile flags: /Ogsp
xdata$x	ENDS
;	COMDAT ??0?$CEncrypt@K@@QAE@ABV0@@Z
_TEXT	SEGMENT
_this$ = -16						; size = 4
__$EHRec$ = -12						; size = 12
_value$607828 = 8					; size = 4
_value$607823 = 8					; size = 4
_inValue$ = 8						; size = 4
??0?$CEncrypt@K@@QAE@ABV0@@Z PROC			; CEncrypt<unsigned long>::CEncrypt<unsigned long>, COMDAT
; _this$ = ecx

; 120  : 	CEncrypt( const CEncrypt<type> &inValue )   //     

  00000	6a 04		 push	 4
  00002	b8 00 00 00 00	 mov	 eax, __ehhandler$??0?$CEncrypt@K@@QAE@ABV0@@Z
  00007	e8 00 00 00 00	 call	 __EH_prolog3
  0000c	8b f1		 mov	 esi, ecx
  0000e	89 75 f0	 mov	 DWORD PTR _this$[ebp], esi
  00011	8d 4e 0c	 lea	 ecx, DWORD PTR [esi+12]
  00014	c7 06 00 00 00
	00		 mov	 DWORD PTR [esi], OFFSET ??_7?$CEncrypt@K@@6B@
  0001a	e8 00 00 00 00	 call	 ??0ccddaabb@@QAE@XZ	; ccddaabb::ccddaabb
  0001f	83 65 fc 00	 and	 DWORD PTR __$EHRec$[ebp+8], 0

; 121  : 	{
; 122  : 		Init();

  00023	8b ce		 mov	 ecx, esi
  00025	e8 00 00 00 00	 call	 ?Init@?$CEncrypt@K@@AAEXXZ ; CEncrypt<unsigned long>::Init

; 123  : 		*this = inValue;

  0002a	8b 4d 08	 mov	 ecx, DWORD PTR _inValue$[ebp]
  0002d	8d 45 08	 lea	 eax, DWORD PTR _value$607823[ebp]
  00030	50		 push	 eax
  00031	e8 00 00 00 00	 call	 ?DecryptValueToPool@?$CEncrypt@K@@QAEXPAK@Z ; CEncrypt<unsigned long>::DecryptValueToPool
  00036	8b 45 08	 mov	 eax, DWORD PTR _value$607823[ebp]
  00039	89 45 08	 mov	 DWORD PTR _value$607828[ebp], eax
  0003c	8d 45 08	 lea	 eax, DWORD PTR _value$607828[ebp]
  0003f	50		 push	 eax
  00040	8b ce		 mov	 ecx, esi
  00042	e8 00 00 00 00	 call	 ?EncryptValueToPool@?$CEncrypt@K@@AAEXPBD@Z ; CEncrypt<unsigned long>::EncryptValueToPool

; 124  : 	}

  00047	8b c6		 mov	 eax, esi
  00049	e8 00 00 00 00	 call	 __EH_epilog3
  0004e	c2 04 00	 ret	 4
_TEXT	ENDS
;	COMDAT text$x
text$x	SEGMENT
__unwindfunclet$??0?$CEncrypt@K@@QAE@ABV0@@Z$0:
  00000	8b 4d f0	 mov	 ecx, DWORD PTR _this$[ebp]
  00003	83 c1 0c	 add	 ecx, 12			; 0000000cH
  00006	e9 00 00 00 00	 jmp	 ??1ccddaabb@@UAE@XZ	; ccddaabb::~ccddaabb
__ehhandler$??0?$CEncrypt@K@@QAE@ABV0@@Z:
  0000b	8b 54 24 08	 mov	 edx, DWORD PTR [esp+8]
  0000f	8d 42 0c	 lea	 eax, DWORD PTR [edx+12]
  00012	8b 4a ec	 mov	 ecx, DWORD PTR [edx-20]
  00015	33 c8		 xor	 ecx, eax
  00017	e8 00 00 00 00	 call	 @__security_check_cookie@4
  0001c	b8 00 00 00 00	 mov	 eax, OFFSET __ehfuncinfo$??0?$CEncrypt@K@@QAE@ABV0@@Z
  00021	e9 00 00 00 00	 jmp	 ___CxxFrameHandler3
text$x	ENDS
??0?$CEncrypt@K@@QAE@ABV0@@Z ENDP			; CEncrypt<unsigned long>::CEncrypt<unsigned long>
PUBLIC	??0?$CEncrypt@H@@QAE@ABV0@@Z			; CEncrypt<int>::CEncrypt<int>
;	COMDAT xdata$x
xdata$x	SEGMENT
__unwindtable$??0?$CEncrypt@H@@QAE@ABV0@@Z DD 0ffffffffH
	DD	FLAT:__unwindfunclet$??0?$CEncrypt@H@@QAE@ABV0@@Z$0
__ehfuncinfo$??0?$CEncrypt@H@@QAE@ABV0@@Z DD 019930522H
	DD	01H
	DD	FLAT:__unwindtable$??0?$CEncrypt@H@@QAE@ABV0@@Z
	DD	2 DUP(00H)
	DD	2 DUP(00H)
	DD	00H
	DD	01H
; Function compile flags: /Ogsp
xdata$x	ENDS
;	COMDAT ??0?$CEncrypt@H@@QAE@ABV0@@Z
_TEXT	SEGMENT
_this$ = -16						; size = 4
__$EHRec$ = -12						; size = 12
_value$607847 = 8					; size = 4
_value$607842 = 8					; size = 4
_inValue$ = 8						; size = 4
??0?$CEncrypt@H@@QAE@ABV0@@Z PROC			; CEncrypt<int>::CEncrypt<int>, COMDAT
; _this$ = ecx

; 120  : 	CEncrypt( const CEncrypt<type> &inValue )   //     

  00000	6a 04		 push	 4
  00002	b8 00 00 00 00	 mov	 eax, __ehhandler$??0?$CEncrypt@H@@QAE@ABV0@@Z
  00007	e8 00 00 00 00	 call	 __EH_prolog3
  0000c	8b f1		 mov	 esi, ecx
  0000e	89 75 f0	 mov	 DWORD PTR _this$[ebp], esi
  00011	8d 4e 0c	 lea	 ecx, DWORD PTR [esi+12]
  00014	c7 06 00 00 00
	00		 mov	 DWORD PTR [esi], OFFSET ??_7?$CEncrypt@H@@6B@
  0001a	e8 00 00 00 00	 call	 ??0ccddaabb@@QAE@XZ	; ccddaabb::ccddaabb
  0001f	83 65 fc 00	 and	 DWORD PTR __$EHRec$[ebp+8], 0

; 121  : 	{
; 122  : 		Init();

  00023	8b ce		 mov	 ecx, esi
  00025	e8 00 00 00 00	 call	 ?Init@?$CEncrypt@H@@AAEXXZ ; CEncrypt<int>::Init

; 123  : 		*this = inValue;

  0002a	8b 4d 08	 mov	 ecx, DWORD PTR _inValue$[ebp]
  0002d	8d 45 08	 lea	 eax, DWORD PTR _value$607842[ebp]
  00030	50		 push	 eax
  00031	e8 00 00 00 00	 call	 ?DecryptValueToPool@?$CEncrypt@H@@QAEXPAH@Z ; CEncrypt<int>::DecryptValueToPool
  00036	8b 45 08	 mov	 eax, DWORD PTR _value$607842[ebp]
  00039	89 45 08	 mov	 DWORD PTR _value$607847[ebp], eax
  0003c	8d 45 08	 lea	 eax, DWORD PTR _value$607847[ebp]
  0003f	50		 push	 eax
  00040	8b ce		 mov	 ecx, esi
  00042	e8 00 00 00 00	 call	 ?EncryptValueToPool@?$CEncrypt@H@@AAEXPBD@Z ; CEncrypt<int>::EncryptValueToPool

; 124  : 	}

  00047	8b c6		 mov	 eax, esi
  00049	e8 00 00 00 00	 call	 __EH_epilog3
  0004e	c2 04 00	 ret	 4
_TEXT	ENDS
;	COMDAT text$x
text$x	SEGMENT
__unwindfunclet$??0?$CEncrypt@H@@QAE@ABV0@@Z$0:
  00000	8b 4d f0	 mov	 ecx, DWORD PTR _this$[ebp]
  00003	83 c1 0c	 add	 ecx, 12			; 0000000cH
  00006	e9 00 00 00 00	 jmp	 ??1ccddaabb@@UAE@XZ	; ccddaabb::~ccddaabb
__ehhandler$??0?$CEncrypt@H@@QAE@ABV0@@Z:
  0000b	8b 54 24 08	 mov	 edx, DWORD PTR [esp+8]
  0000f	8d 42 0c	 lea	 eax, DWORD PTR [edx+12]
  00012	8b 4a ec	 mov	 ecx, DWORD PTR [edx-20]
  00015	33 c8		 xor	 ecx, eax
  00017	e8 00 00 00 00	 call	 @__security_check_cookie@4
  0001c	b8 00 00 00 00	 mov	 eax, OFFSET __ehfuncinfo$??0?$CEncrypt@H@@QAE@ABV0@@Z
  00021	e9 00 00 00 00	 jmp	 ___CxxFrameHandler3
text$x	ENDS
??0?$CEncrypt@H@@QAE@ABV0@@Z ENDP			; CEncrypt<int>::CEncrypt<int>
PUBLIC	??D?$_List_iterator@V?$_List_val@MV?$allocator@M@std@@@std@@@std@@QBEAAMXZ ; std::_List_iterator<std::_List_val<float,std::allocator<float> > >::operator*
; Function compile flags: /Ogsp
; File c:\program files (x86)\microsoft visual studio 10.0\vc\include\list
;	COMDAT ??D?$_List_iterator@V?$_List_val@MV?$allocator@M@std@@@std@@@std@@QBEAAMXZ
_TEXT	SEGMENT
??D?$_List_iterator@V?$_List_val@MV?$allocator@M@std@@@std@@@std@@QBEAAMXZ PROC ; std::_List_iterator<std::_List_val<float,std::allocator<float> > >::operator*, COMDAT
; _this$ = ecx

; 360  : 		return ((reference)**(_Mybase *)this);

  00000	8b 01		 mov	 eax, DWORD PTR [ecx]
  00002	83 c0 08	 add	 eax, 8

; 361  : 		}

  00005	c3		 ret	 0
??D?$_List_iterator@V?$_List_val@MV?$allocator@M@std@@@std@@@std@@QBEAAMXZ ENDP ; std::_List_iterator<std::_List_val<float,std::allocator<float> > >::operator*
_TEXT	ENDS
PUBLIC	??E?$_List_iterator@V?$_List_val@MV?$allocator@M@std@@@std@@@std@@QAE?AV01@H@Z ; std::_List_iterator<std::_List_val<float,std::allocator<float> > >::operator++
; Function compile flags: /Ogsp
;	COMDAT ??E?$_List_iterator@V?$_List_val@MV?$allocator@M@std@@@std@@@std@@QAE?AV01@H@Z
_TEXT	SEGMENT
___$ReturnUdt$ = 8					; size = 4
___formal$ = 12						; size = 4
??E?$_List_iterator@V?$_List_val@MV?$allocator@M@std@@@std@@@std@@QAE?AV01@H@Z PROC ; std::_List_iterator<std::_List_val<float,std::allocator<float> > >::operator++, COMDAT
; _this$ = ecx

; 375  : 		{	// postincrement

  00000	55		 push	 ebp
  00001	8b ec		 mov	 ebp, esp

; 376  : 		_Myiter _Tmp = *this;

  00003	8b 11		 mov	 edx, DWORD PTR [ecx]
  00005	8b 45 08	 mov	 eax, DWORD PTR ___$ReturnUdt$[ebp]
  00008	89 10		 mov	 DWORD PTR [eax], edx

; 377  : 		++*this;

  0000a	8b 12		 mov	 edx, DWORD PTR [edx]
  0000c	89 11		 mov	 DWORD PTR [ecx], edx

; 378  : 		return (_Tmp);
; 379  : 		}

  0000e	5d		 pop	 ebp
  0000f	c2 08 00	 ret	 8
??E?$_List_iterator@V?$_List_val@MV?$allocator@M@std@@@std@@@std@@QAE?AV01@H@Z ENDP ; std::_List_iterator<std::_List_val<float,std::allocator<float> > >::operator++
_TEXT	ENDS
PUBLIC	?_Buy@?$vector@UAttackAttribute@@V?$allocator@UAttackAttribute@@@std@@@std@@IAE_NI@Z ; std::vector<AttackAttribute,std::allocator<AttackAttribute> >::_Buy
; Function compile flags: /Ogsp
; File c:\program files (x86)\microsoft visual studio 10.0\vc\include\vector
;	COMDAT ?_Buy@?$vector@UAttackAttribute@@V?$allocator@UAttackAttribute@@@std@@@std@@IAE_NI@Z
_TEXT	SEGMENT
__Capacity$ = 8						; size = 4
?_Buy@?$vector@UAttackAttribute@@V?$allocator@UAttackAttribute@@@std@@@std@@IAE_NI@Z PROC ; std::vector<AttackAttribute,std::allocator<AttackAttribute> >::_Buy, COMDAT
; _this$ = ecx

; 1250 : 		{	// allocate array with _Capacity elements

  00000	55		 push	 ebp
  00001	8b ec		 mov	 ebp, esp
  00003	56		 push	 esi

; 1251 : 		this->_Myfirst = 0;

  00004	33 c0		 xor	 eax, eax
  00006	57		 push	 edi

; 1252 : 		this->_Mylast = 0;
; 1253 : 		this->_Myend = 0;
; 1254 : 
; 1255 : 		if (_Capacity == 0)

  00007	8b 7d 08	 mov	 edi, DWORD PTR __Capacity$[ebp]
  0000a	8b f1		 mov	 esi, ecx
  0000c	89 06		 mov	 DWORD PTR [esi], eax
  0000e	89 46 04	 mov	 DWORD PTR [esi+4], eax
  00011	89 46 08	 mov	 DWORD PTR [esi+8], eax
  00014	3b f8		 cmp	 edi, eax
  00016	75 04		 jne	 SHORT $LN4@Buy

; 1256 : 			return (false);

  00018	32 c0		 xor	 al, al
  0001a	eb 2b		 jmp	 SHORT $LN5@Buy
$LN4@Buy:

; 1257 : 		else if (max_size() < _Capacity)

  0001c	81 ff 33 33 33
	03		 cmp	 edi, 53687091		; 03333333H
  00022	76 0b		 jbe	 SHORT $LN2@Buy

; 1258 : 			_Xlen();	// result too long

  00024	68 00 00 00 00	 push	 OFFSET ??_C@_0BD@OLBABOEK@vector?$DMT?$DO?5too?5long?$AA@
  00029	ff 15 00 00 00
	00		 call	 DWORD PTR __imp_?_Xlength_error@std@@YAXPBD@Z
$LN19@Buy:
$LN2@Buy:

; 1259 : 		else
; 1260 : 			{	// nonempty array, allocate storage
; 1261 : 			this->_Myfirst = this->_Alval.allocate(_Capacity);

  0002f	50		 push	 eax
  00030	57		 push	 edi
  00031	e8 00 00 00 00	 call	 ??$_Allocate@UAttackAttribute@@@std@@YAPAUAttackAttribute@@IPAU1@@Z ; std::_Allocate<AttackAttribute>

; 1262 : 			this->_Mylast = this->_Myfirst;
; 1263 : 			this->_Myend = this->_Myfirst + _Capacity;

  00036	6b ff 50	 imul	 edi, 80			; 00000050H
  00039	03 f8		 add	 edi, eax
  0003b	59		 pop	 ecx
  0003c	89 06		 mov	 DWORD PTR [esi], eax
  0003e	89 46 04	 mov	 DWORD PTR [esi+4], eax
  00041	59		 pop	 ecx
  00042	89 7e 08	 mov	 DWORD PTR [esi+8], edi

; 1264 : 			}
; 1265 : 		return (true);

  00045	b0 01		 mov	 al, 1
$LN5@Buy:
  00047	5f		 pop	 edi
  00048	5e		 pop	 esi

; 1266 : 		}

  00049	5d		 pop	 ebp
  0004a	c2 04 00	 ret	 4
$LN18@Buy:
?_Buy@?$vector@UAttackAttribute@@V?$allocator@UAttackAttribute@@@std@@@std@@IAE_NI@Z ENDP ; std::vector<AttackAttribute,std::allocator<AttackAttribute> >::_Buy
_TEXT	ENDS
PUBLIC	??0?$_List_val@MV?$allocator@M@std@@@std@@QAE@V?$allocator@M@1@@Z ; std::_List_val<float,std::allocator<float> >::_List_val<float,std::allocator<float> >
; Function compile flags: /Ogsp
; File c:\program files (x86)\microsoft visual studio 10.0\vc\include\list
;	COMDAT ??0?$_List_val@MV?$allocator@M@std@@@std@@QAE@V?$allocator@M@1@@Z
_TEXT	SEGMENT
$T607961 = -16						; size = 12
$T607938 = -4						; size = 4
__Al$ = 8						; size = 1
??0?$_List_val@MV?$allocator@M@std@@@std@@QAE@V?$allocator@M@1@@Z PROC ; std::_List_val<float,std::allocator<float> >::_List_val<float,std::allocator<float> >, COMDAT
; _this$ = ecx

; 493  : 		{	// construct base, and allocator from _Al

  00000	55		 push	 ebp
  00001	8b ec		 mov	 ebp, esp
  00003	83 ec 10	 sub	 esp, 16			; 00000010H
  00006	56		 push	 esi
  00007	8b f1		 mov	 esi, ecx

; 494  : 		this->_Mysize = 0;

  00009	83 66 04 00	 and	 DWORD PTR [esi+4], 0

; 495  : 		this->_Myhead = this->_Alnod.allocate(1);

  0000d	6a 0c		 push	 12			; 0000000cH
  0000f	e8 00 00 00 00	 call	 ??2@YAPAXI@Z		; operator new
  00014	59		 pop	 ecx
  00015	85 c0		 test	 eax, eax
  00017	74 10		 je	 SHORT $LN13@List_val
  00019	89 06		 mov	 DWORD PTR [esi], eax

; 496  : 		this->_Nextnode(this->_Myhead) = this->_Myhead;

  0001b	89 00		 mov	 DWORD PTR [eax], eax

; 497  : 		this->_Prevnode(this->_Myhead) = this->_Myhead;

  0001d	8b 06		 mov	 eax, DWORD PTR [esi]
  0001f	89 40 04	 mov	 DWORD PTR [eax+4], eax

; 498  : 		}

  00022	8b c6		 mov	 eax, esi
  00024	5e		 pop	 esi
  00025	c9		 leave
  00026	c2 04 00	 ret	 4

; 495  : 		this->_Myhead = this->_Alnod.allocate(1);

$LN13@List_val:
  00029	83 65 fc 00	 and	 DWORD PTR $T607938[ebp], 0
  0002d	8d 45 fc	 lea	 eax, DWORD PTR $T607938[ebp]
  00030	50		 push	 eax
  00031	8d 4d f0	 lea	 ecx, DWORD PTR $T607961[ebp]
  00034	ff 15 00 00 00
	00		 call	 DWORD PTR __imp_??0exception@std@@QAE@ABQBD@Z
  0003a	68 00 00 00 00	 push	 OFFSET __TI2?AVbad_alloc@std@@
  0003f	8d 45 f0	 lea	 eax, DWORD PTR $T607961[ebp]
  00042	50		 push	 eax
  00043	c7 45 f0 00 00
	00 00		 mov	 DWORD PTR $T607961[ebp], OFFSET ??_7bad_alloc@std@@6B@
  0004a	e8 00 00 00 00	 call	 __CxxThrowException@8
$LN29@List_val:
$LN28@List_val:
  0004f	cc		 int	 3
??0?$_List_val@MV?$allocator@M@std@@@std@@QAE@V?$allocator@M@1@@Z ENDP ; std::_List_val<float,std::allocator<float> >::_List_val<float,std::allocator<float> >
_TEXT	ENDS
PUBLIC	??0?$_List_iterator@V?$_List_val@MV?$allocator@M@std@@@std@@@std@@QAE@PAU_Node@?$_List_nod@MV?$allocator@M@std@@@1@PBV?$_List_val@MV?$allocator@M@std@@@1@@Z ; std::_List_iterator<std::_List_val<float,std::allocator<float> > >::_List_iterator<std::_List_val<float,std::allocator<float> > >
; Function compile flags: /Ogsp
;	COMDAT ??0?$_List_iterator@V?$_List_val@MV?$allocator@M@std@@@std@@@std@@QAE@PAU_Node@?$_List_nod@MV?$allocator@M@std@@@1@PBV?$_List_val@MV?$allocator@M@std@@@1@@Z
_TEXT	SEGMENT
__Pnode$ = 8						; size = 4
__Plist$ = 12						; size = 4
??0?$_List_iterator@V?$_List_val@MV?$allocator@M@std@@@std@@@std@@QAE@PAU_Node@?$_List_nod@MV?$allocator@M@std@@@1@PBV?$_List_val@MV?$allocator@M@std@@@1@@Z PROC ; std::_List_iterator<std::_List_val<float,std::allocator<float> > >::_List_iterator<std::_List_val<float,std::allocator<float> > >, COMDAT
; _this$ = ecx

; 342  : 		{	// construct with node pointer _Pnode

  00000	55		 push	 ebp
  00001	8b ec		 mov	 ebp, esp
  00003	8b c1		 mov	 eax, ecx
  00005	8b 4d 08	 mov	 ecx, DWORD PTR __Pnode$[ebp]
  00008	89 08		 mov	 DWORD PTR [eax], ecx

; 343  : 		}

  0000a	5d		 pop	 ebp
  0000b	c2 08 00	 ret	 8
??0?$_List_iterator@V?$_List_val@MV?$allocator@M@std@@@std@@@std@@QAE@PAU_Node@?$_List_nod@MV?$allocator@M@std@@@1@PBV?$_List_val@MV?$allocator@M@std@@@1@@Z ENDP ; std::_List_iterator<std::_List_val<float,std::allocator<float> > >::_List_iterator<std::_List_val<float,std::allocator<float> > >
_TEXT	ENDS
PUBLIC	?_Grow_to@?$vector@VioHashString@@V?$allocator@VioHashString@@@std@@@std@@IBEII@Z ; std::vector<ioHashString,std::allocator<ioHashString> >::_Grow_to
; Function compile flags: /Ogsp
; File c:\program files (x86)\microsoft visual studio 10.0\vc\include\vector
;	COMDAT ?_Grow_to@?$vector@VioHashString@@V?$allocator@VioHashString@@@std@@@std@@IBEII@Z
_TEXT	SEGMENT
__Count$ = 8						; size = 4
?_Grow_to@?$vector@VioHashString@@V?$allocator@VioHashString@@@std@@@std@@IBEII@Z PROC ; std::vector<ioHashString,std::allocator<ioHashString> >::_Grow_to, COMDAT
; _this$ = ecx

; 1274 : 		{	// grow by 50% or at least to _Count

  00000	55		 push	 ebp
  00001	8b ec		 mov	 ebp, esp

; 1275 : 		size_type _Capacity = capacity();

  00003	8b 41 08	 mov	 eax, DWORD PTR [ecx+8]
  00006	2b 01		 sub	 eax, DWORD PTR [ecx]

; 1276 : 
; 1277 : 		_Capacity = max_size() - _Capacity / 2 < _Capacity
; 1278 : 			? 0 : _Capacity + _Capacity / 2;	// try to grow by 50%

  00008	ba ff ff ff 0f	 mov	 edx, 268435455		; 0fffffffH
  0000d	c1 f8 04	 sar	 eax, 4
  00010	8b c8		 mov	 ecx, eax
  00012	d1 e9		 shr	 ecx, 1
  00014	2b d1		 sub	 edx, ecx
  00016	3b d0		 cmp	 edx, eax
  00018	73 04		 jae	 SHORT $LN4@Grow_to@2
  0001a	33 c0		 xor	 eax, eax
  0001c	eb 02		 jmp	 SHORT $LN5@Grow_to@2
$LN4@Grow_to@2:
  0001e	03 c1		 add	 eax, ecx
$LN5@Grow_to@2:

; 1279 : 		if (_Capacity < _Count)

  00020	3b 45 08	 cmp	 eax, DWORD PTR __Count$[ebp]

; 1280 : 			_Capacity = _Count;

  00023	0f 42 45 08	 cmovb	 eax, DWORD PTR __Count$[ebp]

; 1281 : 		return (_Capacity);
; 1282 : 		}

  00027	5d		 pop	 ebp
  00028	c2 04 00	 ret	 4
?_Grow_to@?$vector@VioHashString@@V?$allocator@VioHashString@@@std@@@std@@IBEII@Z ENDP ; std::vector<ioHashString,std::allocator<ioHashString> >::_Grow_to
_TEXT	ENDS
PUBLIC	??$_Dest_val@V?$allocator@U_Node@?$_List_nod@MV?$allocator@M@std@@@std@@@std@@U_Node@?$_List_nod@MV?$allocator@M@std@@@2@@std@@YAXAAV?$allocator@U_Node@?$_List_nod@MV?$allocator@M@std@@@std@@@0@PAU_Node@?$_List_nod@MV?$allocator@M@std@@@0@@Z ; std::_Dest_val<std::allocator<std::_List_nod<float,std::allocator<float> >::_Node>,std::_List_nod<float,std::allocator<float> >::_Node>
; Function compile flags: /Ogsp
; File c:\program files (x86)\microsoft visual studio 10.0\vc\include\xmemory
;	COMDAT ??$_Dest_val@V?$allocator@U_Node@?$_List_nod@MV?$allocator@M@std@@@std@@@std@@U_Node@?$_List_nod@MV?$allocator@M@std@@@2@@std@@YAXAAV?$allocator@U_Node@?$_List_nod@MV?$allocator@M@std@@@std@@@0@PAU_Node@?$_List_nod@MV?$allocator@M@std@@@0@@Z
_TEXT	SEGMENT
__Alval$ = 8						; size = 4
__Pdest$ = 12						; size = 4
??$_Dest_val@V?$allocator@U_Node@?$_List_nod@MV?$allocator@M@std@@@std@@@std@@U_Node@?$_List_nod@MV?$allocator@M@std@@@2@@std@@YAXAAV?$allocator@U_Node@?$_List_nod@MV?$allocator@M@std@@@std@@@0@PAU_Node@?$_List_nod@MV?$allocator@M@std@@@0@@Z PROC ; std::_Dest_val<std::allocator<std::_List_nod<float,std::allocator<float> >::_Node>,std::_List_nod<float,std::allocator<float> >::_Node>, COMDAT

; 287  : 	_Alval.destroy(_Pdest);
; 288  : 	}

  00000	c3		 ret	 0
??$_Dest_val@V?$allocator@U_Node@?$_List_nod@MV?$allocator@M@std@@@std@@@std@@U_Node@?$_List_nod@MV?$allocator@M@std@@@2@@std@@YAXAAV?$allocator@U_Node@?$_List_nod@MV?$allocator@M@std@@@std@@@0@PAU_Node@?$_List_nod@MV?$allocator@M@std@@@0@@Z ENDP ; std::_Dest_val<std::allocator<std::_List_nod<float,std::allocator<float> >::_Node>,std::_List_nod<float,std::allocator<float> >::_Node>
_TEXT	ENDS
PUBLIC	??$_Cons_val@V?$allocator@UForceInfo@@@std@@UForceInfo@@ABU3@@std@@YAXAAV?$allocator@UForceInfo@@@0@PAUForceInfo@@ABU2@@Z ; std::_Cons_val<std::allocator<ForceInfo>,ForceInfo,ForceInfo const &>
; Function compile flags: /Ogsp
;	COMDAT ??$_Cons_val@V?$allocator@UForceInfo@@@std@@UForceInfo@@ABU3@@std@@YAXAAV?$allocator@UForceInfo@@@0@PAUForceInfo@@ABU2@@Z
_TEXT	SEGMENT
__Alval$ = 8						; size = 4
__Pdest$ = 12						; size = 4
__Src$ = 16						; size = 4
??$_Cons_val@V?$allocator@UForceInfo@@@std@@UForceInfo@@ABU3@@std@@YAXAAV?$allocator@UForceInfo@@@0@PAUForceInfo@@ABU2@@Z PROC ; std::_Cons_val<std::allocator<ForceInfo>,ForceInfo,ForceInfo const &>, COMDAT

; 279  : 	{	// construct using allocator

  00000	55		 push	 ebp
  00001	8b ec		 mov	 ebp, esp
  00003	57		 push	 edi

; 280  : 	_Alval.construct(_Pdest, _STD forward<_Ty2>(_Src));

  00004	8b 7d 0c	 mov	 edi, DWORD PTR __Pdest$[ebp]
  00007	85 ff		 test	 edi, edi
  00009	74 08		 je	 SHORT $LN9@Cons_val@2
  0000b	56		 push	 esi
  0000c	8b 75 10	 mov	 esi, DWORD PTR __Src$[ebp]
  0000f	a5		 movsd
  00010	a5		 movsd
  00011	a5		 movsd
  00012	5e		 pop	 esi
$LN9@Cons_val@2:
  00013	5f		 pop	 edi

; 281  : 	}

  00014	5d		 pop	 ebp
  00015	c3		 ret	 0
??$_Cons_val@V?$allocator@UForceInfo@@@std@@UForceInfo@@ABU3@@std@@YAXAAV?$allocator@UForceInfo@@@0@PAUForceInfo@@ABU2@@Z ENDP ; std::_Cons_val<std::allocator<ForceInfo>,ForceInfo,ForceInfo const &>
_TEXT	ENDS
PUBLIC	?construct@?$allocator@UWeaponInfo@@@std@@QAEXPAUWeaponInfo@@ABU3@@Z ; std::allocator<WeaponInfo>::construct
; Function compile flags: /Ogsp
;	COMDAT ?construct@?$allocator@UWeaponInfo@@@std@@QAEXPAUWeaponInfo@@ABU3@@Z
_TEXT	SEGMENT
__Ptr$ = 8						; size = 4
__Val$ = 12						; size = 4
?construct@?$allocator@UWeaponInfo@@@std@@QAEXPAUWeaponInfo@@ABU3@@Z PROC ; std::allocator<WeaponInfo>::construct, COMDAT
; _this$ = ecx

; 196  : 		{	// construct object at _Ptr with value _Val

  00000	55		 push	 ebp
  00001	8b ec		 mov	 ebp, esp

; 197  : 		_Construct(_Ptr, _Val);

  00003	ff 75 0c	 push	 DWORD PTR __Val$[ebp]
  00006	ff 75 08	 push	 DWORD PTR __Ptr$[ebp]
  00009	e8 00 00 00 00	 call	 ??$_Construct@UWeaponInfo@@ABU1@@std@@YAXPAUWeaponInfo@@ABU1@@Z ; std::_Construct<WeaponInfo,WeaponInfo const &>
  0000e	59		 pop	 ecx
  0000f	59		 pop	 ecx

; 198  : 		}

  00010	5d		 pop	 ebp
  00011	c2 08 00	 ret	 8
?construct@?$allocator@UWeaponInfo@@@std@@QAEXPAUWeaponInfo@@ABU3@@Z ENDP ; std::allocator<WeaponInfo>::construct
_TEXT	ENDS
PUBLIC	?IsChargeDash@ioAttackableItem@@QBE_NXZ		; ioAttackableItem::IsChargeDash
; Function compile flags: /Ogsp
; File d:\lost saga for developer\youtube\tutorial\source\src\lsclient\ioattackableitem.h
;	COMDAT ?IsChargeDash@ioAttackableItem@@QBE_NXZ
_TEXT	SEGMENT
_value$608074 = -1					; size = 1
?IsChargeDash@ioAttackableItem@@QBE_NXZ PROC		; ioAttackableItem::IsChargeDash, COMDAT
; _this$ = ecx

; 690  : 	inline bool IsChargeDash() const { return m_bChargeCharDash; }

  00000	55		 push	 ebp
  00001	8b ec		 mov	 ebp, esp
  00003	51		 push	 ecx
  00004	8d 45 ff	 lea	 eax, DWORD PTR _value$608074[ebp]
  00007	50		 push	 eax
  00008	81 c1 64 0d 00
	00		 add	 ecx, 3428		; 00000d64H
  0000e	e8 00 00 00 00	 call	 ?DecryptValueToPool@?$CEncrypt@_N@@QAEXPA_N@Z ; CEncrypt<bool>::DecryptValueToPool
  00013	8a 45 ff	 mov	 al, BYTE PTR _value$608074[ebp]
  00016	c9		 leave
  00017	c3		 ret	 0
?IsChargeDash@ioAttackableItem@@QBE_NXZ ENDP		; ioAttackableItem::IsChargeDash
_TEXT	ENDS
PUBLIC	??0?$vector@VioHashString@@V?$allocator@VioHashString@@@std@@@std@@QAE@XZ ; std::vector<ioHashString,std::allocator<ioHashString> >::vector<ioHashString,std::allocator<ioHashString> >
; Function compile flags: /Ogsp
; File c:\program files (x86)\microsoft visual studio 10.0\vc\include\vector
;	COMDAT ??0?$vector@VioHashString@@V?$allocator@VioHashString@@@std@@@std@@QAE@XZ
_TEXT	SEGMENT
??0?$vector@VioHashString@@V?$allocator@VioHashString@@@std@@@std@@QAE@XZ PROC ; std::vector<ioHashString,std::allocator<ioHashString> >::vector<ioHashString,std::allocator<ioHashString> >, COMDAT
; _this$ = ecx

; 507  : 		{	// construct empty vector

  00000	8b c1		 mov	 eax, ecx
  00002	33 c9		 xor	 ecx, ecx
  00004	89 08		 mov	 DWORD PTR [eax], ecx
  00006	89 48 04	 mov	 DWORD PTR [eax+4], ecx
  00009	89 48 08	 mov	 DWORD PTR [eax+8], ecx

; 508  : 		}

  0000c	c3		 ret	 0
??0?$vector@VioHashString@@V?$allocator@VioHashString@@@std@@@std@@QAE@XZ ENDP ; std::vector<ioHashString,std::allocator<ioHashString> >::vector<ioHashString,std::allocator<ioHashString> >
_TEXT	ENDS
PUBLIC	??0?$vector@UWeaponInfo@@V?$allocator@UWeaponInfo@@@std@@@std@@QAE@XZ ; std::vector<WeaponInfo,std::allocator<WeaponInfo> >::vector<WeaponInfo,std::allocator<WeaponInfo> >
; Function compile flags: /Ogsp
;	COMDAT ??0?$vector@UWeaponInfo@@V?$allocator@UWeaponInfo@@@std@@@std@@QAE@XZ
_TEXT	SEGMENT
??0?$vector@UWeaponInfo@@V?$allocator@UWeaponInfo@@@std@@@std@@QAE@XZ PROC ; std::vector<WeaponInfo,std::allocator<WeaponInfo> >::vector<WeaponInfo,std::allocator<WeaponInfo> >, COMDAT
; _this$ = ecx

; 507  : 		{	// construct empty vector

  00000	8b c1		 mov	 eax, ecx
  00002	33 c9		 xor	 ecx, ecx
  00004	89 08		 mov	 DWORD PTR [eax], ecx
  00006	89 48 04	 mov	 DWORD PTR [eax+4], ecx
  00009	89 48 08	 mov	 DWORD PTR [eax+8], ecx

; 508  : 		}

  0000c	c3		 ret	 0
??0?$vector@UWeaponInfo@@V?$allocator@UWeaponInfo@@@std@@@std@@QAE@XZ ENDP ; std::vector<WeaponInfo,std::allocator<WeaponInfo> >::vector<WeaponInfo,std::allocator<WeaponInfo> >
_TEXT	ENDS
PUBLIC	??0?$vector@UForceInfo@@V?$allocator@UForceInfo@@@std@@@std@@QAE@XZ ; std::vector<ForceInfo,std::allocator<ForceInfo> >::vector<ForceInfo,std::allocator<ForceInfo> >
; Function compile flags: /Ogsp
;	COMDAT ??0?$vector@UForceInfo@@V?$allocator@UForceInfo@@@std@@@std@@QAE@XZ
_TEXT	SEGMENT
??0?$vector@UForceInfo@@V?$allocator@UForceInfo@@@std@@@std@@QAE@XZ PROC ; std::vector<ForceInfo,std::allocator<ForceInfo> >::vector<ForceInfo,std::allocator<ForceInfo> >, COMDAT
; _this$ = ecx

; 507  : 		{	// construct empty vector

  00000	8b c1		 mov	 eax, ecx
  00002	33 c9		 xor	 ecx, ecx
  00004	89 08		 mov	 DWORD PTR [eax], ecx
  00006	89 48 04	 mov	 DWORD PTR [eax+4], ecx
  00009	89 48 08	 mov	 DWORD PTR [eax+8], ecx

; 508  : 		}

  0000c	c3		 ret	 0
??0?$vector@UForceInfo@@V?$allocator@UForceInfo@@@std@@@std@@QAE@XZ ENDP ; std::vector<ForceInfo,std::allocator<ForceInfo> >::vector<ForceInfo,std::allocator<ForceInfo> >
_TEXT	ENDS
PUBLIC	??0?$vector@UAttackAttribute@@V?$allocator@UAttackAttribute@@@std@@@std@@QAE@XZ ; std::vector<AttackAttribute,std::allocator<AttackAttribute> >::vector<AttackAttribute,std::allocator<AttackAttribute> >
; Function compile flags: /Ogsp
;	COMDAT ??0?$vector@UAttackAttribute@@V?$allocator@UAttackAttribute@@@std@@@std@@QAE@XZ
_TEXT	SEGMENT
??0?$vector@UAttackAttribute@@V?$allocator@UAttackAttribute@@@std@@@std@@QAE@XZ PROC ; std::vector<AttackAttribute,std::allocator<AttackAttribute> >::vector<AttackAttribute,std::allocator<AttackAttribute> >, COMDAT
; _this$ = ecx

; 507  : 		{	// construct empty vector

  00000	8b c1		 mov	 eax, ecx
  00002	33 c9		 xor	 ecx, ecx
  00004	89 08		 mov	 DWORD PTR [eax], ecx
  00006	89 48 04	 mov	 DWORD PTR [eax+4], ecx
  00009	89 48 08	 mov	 DWORD PTR [eax+8], ecx

; 508  : 		}

  0000c	c3		 ret	 0
??0?$vector@UAttackAttribute@@V?$allocator@UAttackAttribute@@@std@@@std@@QAE@XZ ENDP ; std::vector<AttackAttribute,std::allocator<AttackAttribute> >::vector<AttackAttribute,std::allocator<AttackAttribute> >
_TEXT	ENDS
PUBLIC	?_Buy@?$vector@VioHashString@@V?$allocator@VioHashString@@@std@@@std@@IAE_NI@Z ; std::vector<ioHashString,std::allocator<ioHashString> >::_Buy
; Function compile flags: /Ogsp
;	COMDAT ?_Buy@?$vector@VioHashString@@V?$allocator@VioHashString@@@std@@@std@@IAE_NI@Z
_TEXT	SEGMENT
__Capacity$ = 8						; size = 4
?_Buy@?$vector@VioHashString@@V?$allocator@VioHashString@@@std@@@std@@IAE_NI@Z PROC ; std::vector<ioHashString,std::allocator<ioHashString> >::_Buy, COMDAT
; _this$ = ecx

; 1250 : 		{	// allocate array with _Capacity elements

  00000	55		 push	 ebp
  00001	8b ec		 mov	 ebp, esp
  00003	56		 push	 esi

; 1251 : 		this->_Myfirst = 0;

  00004	33 c0		 xor	 eax, eax
  00006	57		 push	 edi

; 1252 : 		this->_Mylast = 0;
; 1253 : 		this->_Myend = 0;
; 1254 : 
; 1255 : 		if (_Capacity == 0)

  00007	8b 7d 08	 mov	 edi, DWORD PTR __Capacity$[ebp]
  0000a	8b f1		 mov	 esi, ecx
  0000c	89 06		 mov	 DWORD PTR [esi], eax
  0000e	89 46 04	 mov	 DWORD PTR [esi+4], eax
  00011	89 46 08	 mov	 DWORD PTR [esi+8], eax
  00014	3b f8		 cmp	 edi, eax
  00016	75 04		 jne	 SHORT $LN4@Buy@2

; 1256 : 			return (false);

  00018	32 c0		 xor	 al, al
  0001a	eb 2b		 jmp	 SHORT $LN5@Buy@2
$LN4@Buy@2:

; 1257 : 		else if (max_size() < _Capacity)

  0001c	81 ff ff ff ff
	0f		 cmp	 edi, 268435455		; 0fffffffH
  00022	76 0b		 jbe	 SHORT $LN2@Buy@2

; 1258 : 			_Xlen();	// result too long

  00024	68 00 00 00 00	 push	 OFFSET ??_C@_0BD@OLBABOEK@vector?$DMT?$DO?5too?5long?$AA@
  00029	ff 15 00 00 00
	00		 call	 DWORD PTR __imp_?_Xlength_error@std@@YAXPBD@Z
$LN19@Buy@2:
$LN2@Buy@2:

; 1259 : 		else
; 1260 : 			{	// nonempty array, allocate storage
; 1261 : 			this->_Myfirst = this->_Alval.allocate(_Capacity);

  0002f	50		 push	 eax
  00030	57		 push	 edi
  00031	e8 00 00 00 00	 call	 ??$_Allocate@VioHashString@@@std@@YAPAVioHashString@@IPAV1@@Z ; std::_Allocate<ioHashString>

; 1262 : 			this->_Mylast = this->_Myfirst;
; 1263 : 			this->_Myend = this->_Myfirst + _Capacity;

  00036	c1 e7 04	 shl	 edi, 4
  00039	03 f8		 add	 edi, eax
  0003b	59		 pop	 ecx
  0003c	89 06		 mov	 DWORD PTR [esi], eax
  0003e	89 46 04	 mov	 DWORD PTR [esi+4], eax
  00041	59		 pop	 ecx
  00042	89 7e 08	 mov	 DWORD PTR [esi+8], edi

; 1264 : 			}
; 1265 : 		return (true);

  00045	b0 01		 mov	 al, 1
$LN5@Buy@2:
  00047	5f		 pop	 edi
  00048	5e		 pop	 esi

; 1266 : 		}

  00049	5d		 pop	 ebp
  0004a	c2 04 00	 ret	 4
$LN18@Buy@2:
?_Buy@?$vector@VioHashString@@V?$allocator@VioHashString@@@std@@@std@@IAE_NI@Z ENDP ; std::vector<ioHashString,std::allocator<ioHashString> >::_Buy
_TEXT	ENDS
PUBLIC	?begin@?$vector@UAttackAttribute@@V?$allocator@UAttackAttribute@@@std@@@std@@QAE?AV?$_Vector_iterator@V?$_Vector_val@UAttackAttribute@@V?$allocator@UAttackAttribute@@@std@@@std@@@2@XZ ; std::vector<AttackAttribute,std::allocator<AttackAttribute> >::begin
; Function compile flags: /Ogsp
;	COMDAT ?begin@?$vector@UAttackAttribute@@V?$allocator@UAttackAttribute@@@std@@@std@@QAE?AV?$_Vector_iterator@V?$_Vector_val@UAttackAttribute@@V?$allocator@UAttackAttribute@@@std@@@std@@@2@XZ
_TEXT	SEGMENT
___$ReturnUdt$ = 8					; size = 4
?begin@?$vector@UAttackAttribute@@V?$allocator@UAttackAttribute@@@std@@@std@@QAE?AV?$_Vector_iterator@V?$_Vector_val@UAttackAttribute@@V?$allocator@UAttackAttribute@@@std@@@std@@@2@XZ PROC ; std::vector<AttackAttribute,std::allocator<AttackAttribute> >::begin, COMDAT
; _this$ = ecx

; 781  : 		{	// return iterator for beginning of mutable sequence

  00000	55		 push	 ebp
  00001	8b ec		 mov	 ebp, esp

; 782  : 		return (iterator(this->_Myfirst, this));

  00003	8b 09		 mov	 ecx, DWORD PTR [ecx]
  00005	8b 45 08	 mov	 eax, DWORD PTR ___$ReturnUdt$[ebp]
  00008	89 08		 mov	 DWORD PTR [eax], ecx

; 783  : 		}

  0000a	5d		 pop	 ebp
  0000b	c2 04 00	 ret	 4
?begin@?$vector@UAttackAttribute@@V?$allocator@UAttackAttribute@@@std@@@std@@QAE?AV?$_Vector_iterator@V?$_Vector_val@UAttackAttribute@@V?$allocator@UAttackAttribute@@@std@@@std@@@2@XZ ENDP ; std::vector<AttackAttribute,std::allocator<AttackAttribute> >::begin
_TEXT	ENDS
PUBLIC	?end@?$vector@UAttackAttribute@@V?$allocator@UAttackAttribute@@@std@@@std@@QAE?AV?$_Vector_iterator@V?$_Vector_val@UAttackAttribute@@V?$allocator@UAttackAttribute@@@std@@@std@@@2@XZ ; std::vector<AttackAttribute,std::allocator<AttackAttribute> >::end
; Function compile flags: /Ogsp
;	COMDAT ?end@?$vector@UAttackAttribute@@V?$allocator@UAttackAttribute@@@std@@@std@@QAE?AV?$_Vector_iterator@V?$_Vector_val@UAttackAttribute@@V?$allocator@UAttackAttribute@@@std@@@std@@@2@XZ
_TEXT	SEGMENT
___$ReturnUdt$ = 8					; size = 4
?end@?$vector@UAttackAttribute@@V?$allocator@UAttackAttribute@@@std@@@std@@QAE?AV?$_Vector_iterator@V?$_Vector_val@UAttackAttribute@@V?$allocator@UAttackAttribute@@@std@@@std@@@2@XZ PROC ; std::vector<AttackAttribute,std::allocator<AttackAttribute> >::end, COMDAT
; _this$ = ecx

; 791  : 		{	// return iterator for end of mutable sequence

  00000	55		 push	 ebp
  00001	8b ec		 mov	 ebp, esp

; 792  : 		return (iterator(this->_Mylast, this));

  00003	8b 49 04	 mov	 ecx, DWORD PTR [ecx+4]
  00006	8b 45 08	 mov	 eax, DWORD PTR ___$ReturnUdt$[ebp]
  00009	89 08		 mov	 DWORD PTR [eax], ecx

; 793  : 		}

  0000b	5d		 pop	 ebp
  0000c	c2 04 00	 ret	 4
?end@?$vector@UAttackAttribute@@V?$allocator@UAttackAttribute@@@std@@@std@@QAE?AV?$_Vector_iterator@V?$_Vector_val@UAttackAttribute@@V?$allocator@UAttackAttribute@@@std@@@std@@@2@XZ ENDP ; std::vector<AttackAttribute,std::allocator<AttackAttribute> >::end
_TEXT	ENDS
PUBLIC	?_Make_iter@?$vector@UAttackAttribute@@V?$allocator@UAttackAttribute@@@std@@@std@@QBE?AV?$_Vector_iterator@V?$_Vector_val@UAttackAttribute@@V?$allocator@UAttackAttribute@@@std@@@std@@@2@V?$_Vector_const_iterator@V?$_Vector_val@UAttackAttribute@@V?$allocator@UAttackAttribute@@@std@@@std@@@2@@Z ; std::vector<AttackAttribute,std::allocator<AttackAttribute> >::_Make_iter
; Function compile flags: /Ogsp
;	COMDAT ?_Make_iter@?$vector@UAttackAttribute@@V?$allocator@UAttackAttribute@@@std@@@std@@QBE?AV?$_Vector_iterator@V?$_Vector_val@UAttackAttribute@@V?$allocator@UAttackAttribute@@@std@@@std@@@2@V?$_Vector_const_iterator@V?$_Vector_val@UAttackAttribute@@V?$allocator@UAttackAttribute@@@std@@@std@@@2@@Z
_TEXT	SEGMENT
___$ReturnUdt$ = 8					; size = 4
__Where$ = 12						; size = 4
?_Make_iter@?$vector@UAttackAttribute@@V?$allocator@UAttackAttribute@@@std@@@std@@QBE?AV?$_Vector_iterator@V?$_Vector_val@UAttackAttribute@@V?$allocator@UAttackAttribute@@@std@@@std@@@2@V?$_Vector_const_iterator@V?$_Vector_val@UAttackAttribute@@V?$allocator@UAttackAttribute@@@std@@@std@@@2@@Z PROC ; std::vector<AttackAttribute,std::allocator<AttackAttribute> >::_Make_iter, COMDAT
; _this$ = ecx

; 801  : 		{	// make iterator from const_iterator

  00000	55		 push	 ebp
  00001	8b ec		 mov	 ebp, esp

; 802  : 		return (iterator(_Where._Ptr, this));

  00003	8b 45 08	 mov	 eax, DWORD PTR ___$ReturnUdt$[ebp]
  00006	8b 4d 0c	 mov	 ecx, DWORD PTR __Where$[ebp]
  00009	89 08		 mov	 DWORD PTR [eax], ecx

; 803  : 		}

  0000b	5d		 pop	 ebp
  0000c	c2 08 00	 ret	 8
?_Make_iter@?$vector@UAttackAttribute@@V?$allocator@UAttackAttribute@@@std@@@std@@QBE?AV?$_Vector_iterator@V?$_Vector_val@UAttackAttribute@@V?$allocator@UAttackAttribute@@@std@@@std@@@2@V?$_Vector_const_iterator@V?$_Vector_val@UAttackAttribute@@V?$allocator@UAttackAttribute@@@std@@@std@@@2@@Z ENDP ; std::vector<AttackAttribute,std::allocator<AttackAttribute> >::_Make_iter
_TEXT	ENDS
PUBLIC	??9?$_Vector_const_iterator@V?$_Vector_val@VioHashString@@V?$allocator@VioHashString@@@std@@@std@@@std@@QBE_NABV01@@Z ; std::_Vector_const_iterator<std::_Vector_val<ioHashString,std::allocator<ioHashString> > >::operator!=
; Function compile flags: /Ogsp
;	COMDAT ??9?$_Vector_const_iterator@V?$_Vector_val@VioHashString@@V?$allocator@VioHashString@@@std@@@std@@@std@@QBE_NABV01@@Z
_TEXT	SEGMENT
__Right$ = 8						; size = 4
??9?$_Vector_const_iterator@V?$_Vector_val@VioHashString@@V?$allocator@VioHashString@@@std@@@std@@@std@@QBE_NABV01@@Z PROC ; std::_Vector_const_iterator<std::_Vector_val<ioHashString,std::allocator<ioHashString> > >::operator!=, COMDAT
; _this$ = ecx

; 207  : 		{	// test for iterator inequality

  00000	55		 push	 ebp
  00001	8b ec		 mov	 ebp, esp

; 208  : 		return (!(*this == _Right));

  00003	8b 01		 mov	 eax, DWORD PTR [ecx]
  00005	8b 55 08	 mov	 edx, DWORD PTR __Right$[ebp]
  00008	33 c9		 xor	 ecx, ecx
  0000a	3b 02		 cmp	 eax, DWORD PTR [edx]
  0000c	0f 95 c0	 setne	 al

; 209  : 		}

  0000f	5d		 pop	 ebp
  00010	c2 04 00	 ret	 4
??9?$_Vector_const_iterator@V?$_Vector_val@VioHashString@@V?$allocator@VioHashString@@@std@@@std@@@std@@QBE_NABV01@@Z ENDP ; std::_Vector_const_iterator<std::_Vector_val<ioHashString,std::allocator<ioHashString> > >::operator!=
_TEXT	ENDS
PUBLIC	??9?$_Vector_const_iterator@V?$_Vector_val@UAttackAttribute@@V?$allocator@UAttackAttribute@@@std@@@std@@@std@@QBE_NABV01@@Z ; std::_Vector_const_iterator<std::_Vector_val<AttackAttribute,std::allocator<AttackAttribute> > >::operator!=
; Function compile flags: /Ogsp
;	COMDAT ??9?$_Vector_const_iterator@V?$_Vector_val@UAttackAttribute@@V?$allocator@UAttackAttribute@@@std@@@std@@@std@@QBE_NABV01@@Z
_TEXT	SEGMENT
__Right$ = 8						; size = 4
??9?$_Vector_const_iterator@V?$_Vector_val@UAttackAttribute@@V?$allocator@UAttackAttribute@@@std@@@std@@@std@@QBE_NABV01@@Z PROC ; std::_Vector_const_iterator<std::_Vector_val<AttackAttribute,std::allocator<AttackAttribute> > >::operator!=, COMDAT
; _this$ = ecx

; 207  : 		{	// test for iterator inequality

  00000	55		 push	 ebp
  00001	8b ec		 mov	 ebp, esp

; 208  : 		return (!(*this == _Right));

  00003	8b 01		 mov	 eax, DWORD PTR [ecx]
  00005	8b 55 08	 mov	 edx, DWORD PTR __Right$[ebp]
  00008	33 c9		 xor	 ecx, ecx
  0000a	3b 02		 cmp	 eax, DWORD PTR [edx]
  0000c	0f 95 c0	 setne	 al

; 209  : 		}

  0000f	5d		 pop	 ebp
  00010	c2 04 00	 ret	 4
??9?$_Vector_const_iterator@V?$_Vector_val@UAttackAttribute@@V?$allocator@UAttackAttribute@@@std@@@std@@@std@@QBE_NABV01@@Z ENDP ; std::_Vector_const_iterator<std::_Vector_val<AttackAttribute,std::allocator<AttackAttribute> > >::operator!=
_TEXT	ENDS
PUBLIC	??$_Move@PAVioHashString@@PAV1@@std@@YAPAVioHashString@@PAV1@00@Z ; std::_Move<ioHashString *,ioHashString *>
; Function compile flags: /Ogsp
; File c:\program files (x86)\microsoft visual studio 10.0\vc\include\xutility
;	COMDAT ??$_Move@PAVioHashString@@PAV1@@std@@YAPAVioHashString@@PAV1@00@Z
_TEXT	SEGMENT
__Cat$608250 = -4					; size = 1
__First$ = 8						; size = 4
__Last$ = 12						; size = 4
__Dest$ = 16						; size = 4
??$_Move@PAVioHashString@@PAV1@@std@@YAPAVioHashString@@PAV1@00@Z PROC ; std::_Move<ioHashString *,ioHashString *>, COMDAT

; 2533 : 	{	// move [_First, _Last) to [_Dest, ...), unchecked

  00000	55		 push	 ebp
  00001	8b ec		 mov	 ebp, esp
  00003	51		 push	 ecx

; 2534 : 	return (_Move(_First, _Last,
; 2535 : 		_Dest, _Ptr_cat(_First, _Dest)));

  00004	ff 75 fc	 push	 DWORD PTR __Cat$608250[ebp]
  00007	ff 75 10	 push	 DWORD PTR __Dest$[ebp]
  0000a	ff 75 0c	 push	 DWORD PTR __Last$[ebp]
  0000d	ff 75 08	 push	 DWORD PTR __First$[ebp]
  00010	e8 00 00 00 00	 call	 ??$_Move@PAVioHashString@@PAV1@@std@@YAPAVioHashString@@PAV1@00U_Nonscalar_ptr_iterator_tag@0@@Z ; std::_Move<ioHashString *,ioHashString *>
  00015	83 c4 10	 add	 esp, 16			; 00000010H

; 2536 : 	}

  00018	c9		 leave
  00019	c3		 ret	 0
??$_Move@PAVioHashString@@PAV1@@std@@YAPAVioHashString@@PAV1@00@Z ENDP ; std::_Move<ioHashString *,ioHashString *>
_TEXT	ENDS
PUBLIC	?_Buy@?$vector@UWeaponInfo@@V?$allocator@UWeaponInfo@@@std@@@std@@IAE_NI@Z ; std::vector<WeaponInfo,std::allocator<WeaponInfo> >::_Buy
; Function compile flags: /Ogsp
; File c:\program files (x86)\microsoft visual studio 10.0\vc\include\vector
;	COMDAT ?_Buy@?$vector@UWeaponInfo@@V?$allocator@UWeaponInfo@@@std@@@std@@IAE_NI@Z
_TEXT	SEGMENT
__Capacity$ = 8						; size = 4
?_Buy@?$vector@UWeaponInfo@@V?$allocator@UWeaponInfo@@@std@@@std@@IAE_NI@Z PROC ; std::vector<WeaponInfo,std::allocator<WeaponInfo> >::_Buy, COMDAT
; _this$ = ecx

; 1250 : 		{	// allocate array with _Capacity elements

  00000	55		 push	 ebp
  00001	8b ec		 mov	 ebp, esp
  00003	56		 push	 esi

; 1251 : 		this->_Myfirst = 0;

  00004	33 c0		 xor	 eax, eax
  00006	57		 push	 edi

; 1252 : 		this->_Mylast = 0;
; 1253 : 		this->_Myend = 0;
; 1254 : 
; 1255 : 		if (_Capacity == 0)

  00007	8b 7d 08	 mov	 edi, DWORD PTR __Capacity$[ebp]
  0000a	8b f1		 mov	 esi, ecx
  0000c	89 06		 mov	 DWORD PTR [esi], eax
  0000e	89 46 04	 mov	 DWORD PTR [esi+4], eax
  00011	89 46 08	 mov	 DWORD PTR [esi+8], eax
  00014	3b f8		 cmp	 edi, eax
  00016	75 04		 jne	 SHORT $LN4@Buy@3

; 1256 : 			return (false);

  00018	32 c0		 xor	 al, al
  0001a	eb 2b		 jmp	 SHORT $LN5@Buy@3
$LN4@Buy@3:

; 1257 : 		else if (max_size() < _Capacity)

  0001c	81 ff 66 66 66
	06		 cmp	 edi, 107374182		; 06666666H
  00022	76 0b		 jbe	 SHORT $LN2@Buy@3

; 1258 : 			_Xlen();	// result too long

  00024	68 00 00 00 00	 push	 OFFSET ??_C@_0BD@OLBABOEK@vector?$DMT?$DO?5too?5long?$AA@
  00029	ff 15 00 00 00
	00		 call	 DWORD PTR __imp_?_Xlength_error@std@@YAXPBD@Z
$LN19@Buy@3:
$LN2@Buy@3:

; 1259 : 		else
; 1260 : 			{	// nonempty array, allocate storage
; 1261 : 			this->_Myfirst = this->_Alval.allocate(_Capacity);

  0002f	50		 push	 eax
  00030	57		 push	 edi
  00031	e8 00 00 00 00	 call	 ??$_Allocate@UWeaponInfo@@@std@@YAPAUWeaponInfo@@IPAU1@@Z ; std::_Allocate<WeaponInfo>

; 1262 : 			this->_Mylast = this->_Myfirst;
; 1263 : 			this->_Myend = this->_Myfirst + _Capacity;

  00036	6b ff 28	 imul	 edi, 40			; 00000028H
  00039	03 f8		 add	 edi, eax
  0003b	59		 pop	 ecx
  0003c	89 06		 mov	 DWORD PTR [esi], eax
  0003e	89 46 04	 mov	 DWORD PTR [esi+4], eax
  00041	59		 pop	 ecx
  00042	89 7e 08	 mov	 DWORD PTR [esi+8], edi

; 1264 : 			}
; 1265 : 		return (true);

  00045	b0 01		 mov	 al, 1
$LN5@Buy@3:
  00047	5f		 pop	 edi
  00048	5e		 pop	 esi

; 1266 : 		}

  00049	5d		 pop	 ebp
  0004a	c2 04 00	 ret	 4
$LN18@Buy@3:
?_Buy@?$vector@UWeaponInfo@@V?$allocator@UWeaponInfo@@@std@@@std@@IAE_NI@Z ENDP ; std::vector<WeaponInfo,std::allocator<WeaponInfo> >::_Buy
_TEXT	ENDS
PUBLIC	?_Buy@?$vector@UForceInfo@@V?$allocator@UForceInfo@@@std@@@std@@IAE_NI@Z ; std::vector<ForceInfo,std::allocator<ForceInfo> >::_Buy
; Function compile flags: /Ogsp
;	COMDAT ?_Buy@?$vector@UForceInfo@@V?$allocator@UForceInfo@@@std@@@std@@IAE_NI@Z
_TEXT	SEGMENT
__Capacity$ = 8						; size = 4
?_Buy@?$vector@UForceInfo@@V?$allocator@UForceInfo@@@std@@@std@@IAE_NI@Z PROC ; std::vector<ForceInfo,std::allocator<ForceInfo> >::_Buy, COMDAT
; _this$ = ecx

; 1250 : 		{	// allocate array with _Capacity elements

  00000	55		 push	 ebp
  00001	8b ec		 mov	 ebp, esp
  00003	56		 push	 esi

; 1251 : 		this->_Myfirst = 0;

  00004	33 c0		 xor	 eax, eax
  00006	57		 push	 edi

; 1252 : 		this->_Mylast = 0;
; 1253 : 		this->_Myend = 0;
; 1254 : 
; 1255 : 		if (_Capacity == 0)

  00007	8b 7d 08	 mov	 edi, DWORD PTR __Capacity$[ebp]
  0000a	8b f1		 mov	 esi, ecx
  0000c	89 06		 mov	 DWORD PTR [esi], eax
  0000e	89 46 04	 mov	 DWORD PTR [esi+4], eax
  00011	89 46 08	 mov	 DWORD PTR [esi+8], eax
  00014	3b f8		 cmp	 edi, eax
  00016	75 04		 jne	 SHORT $LN4@Buy@4

; 1256 : 			return (false);

  00018	32 c0		 xor	 al, al
  0001a	eb 2b		 jmp	 SHORT $LN5@Buy@4
$LN4@Buy@4:

; 1257 : 		else if (max_size() < _Capacity)

  0001c	81 ff 55 55 55
	15		 cmp	 edi, 357913941		; 15555555H
  00022	76 0b		 jbe	 SHORT $LN2@Buy@4

; 1258 : 			_Xlen();	// result too long

  00024	68 00 00 00 00	 push	 OFFSET ??_C@_0BD@OLBABOEK@vector?$DMT?$DO?5too?5long?$AA@
  00029	ff 15 00 00 00
	00		 call	 DWORD PTR __imp_?_Xlength_error@std@@YAXPBD@Z
$LN19@Buy@4:
$LN2@Buy@4:

; 1259 : 		else
; 1260 : 			{	// nonempty array, allocate storage
; 1261 : 			this->_Myfirst = this->_Alval.allocate(_Capacity);

  0002f	50		 push	 eax
  00030	57		 push	 edi
  00031	e8 00 00 00 00	 call	 ??$_Allocate@UForceInfo@@@std@@YAPAUForceInfo@@IPAU1@@Z ; std::_Allocate<ForceInfo>

; 1262 : 			this->_Mylast = this->_Myfirst;
; 1263 : 			this->_Myend = this->_Myfirst + _Capacity;

  00036	6b ff 0c	 imul	 edi, 12			; 0000000cH
  00039	03 f8		 add	 edi, eax
  0003b	59		 pop	 ecx
  0003c	89 06		 mov	 DWORD PTR [esi], eax
  0003e	89 46 04	 mov	 DWORD PTR [esi+4], eax
  00041	59		 pop	 ecx
  00042	89 7e 08	 mov	 DWORD PTR [esi+8], edi

; 1264 : 			}
; 1265 : 		return (true);

  00045	b0 01		 mov	 al, 1
$LN5@Buy@4:
  00047	5f		 pop	 edi
  00048	5e		 pop	 esi

; 1266 : 		}

  00049	5d		 pop	 ebp
  0004a	c2 04 00	 ret	 4
$LN18@Buy@4:
?_Buy@?$vector@UForceInfo@@V?$allocator@UForceInfo@@@std@@@std@@IAE_NI@Z ENDP ; std::vector<ForceInfo,std::allocator<ForceInfo> >::_Buy
_TEXT	ENDS
PUBLIC	?begin@?$vector@UWeaponInfo@@V?$allocator@UWeaponInfo@@@std@@@std@@QAE?AV?$_Vector_iterator@V?$_Vector_val@UWeaponInfo@@V?$allocator@UWeaponInfo@@@std@@@std@@@2@XZ ; std::vector<WeaponInfo,std::allocator<WeaponInfo> >::begin
; Function compile flags: /Ogsp
;	COMDAT ?begin@?$vector@UWeaponInfo@@V?$allocator@UWeaponInfo@@@std@@@std@@QAE?AV?$_Vector_iterator@V?$_Vector_val@UWeaponInfo@@V?$allocator@UWeaponInfo@@@std@@@std@@@2@XZ
_TEXT	SEGMENT
___$ReturnUdt$ = 8					; size = 4
?begin@?$vector@UWeaponInfo@@V?$allocator@UWeaponInfo@@@std@@@std@@QAE?AV?$_Vector_iterator@V?$_Vector_val@UWeaponInfo@@V?$allocator@UWeaponInfo@@@std@@@std@@@2@XZ PROC ; std::vector<WeaponInfo,std::allocator<WeaponInfo> >::begin, COMDAT
; _this$ = ecx

; 781  : 		{	// return iterator for beginning of mutable sequence

  00000	55		 push	 ebp
  00001	8b ec		 mov	 ebp, esp

; 782  : 		return (iterator(this->_Myfirst, this));

  00003	8b 09		 mov	 ecx, DWORD PTR [ecx]
  00005	8b 45 08	 mov	 eax, DWORD PTR ___$ReturnUdt$[ebp]
  00008	89 08		 mov	 DWORD PTR [eax], ecx

; 783  : 		}

  0000a	5d		 pop	 ebp
  0000b	c2 04 00	 ret	 4
?begin@?$vector@UWeaponInfo@@V?$allocator@UWeaponInfo@@@std@@@std@@QAE?AV?$_Vector_iterator@V?$_Vector_val@UWeaponInfo@@V?$allocator@UWeaponInfo@@@std@@@std@@@2@XZ ENDP ; std::vector<WeaponInfo,std::allocator<WeaponInfo> >::begin
_TEXT	ENDS
PUBLIC	?end@?$vector@UWeaponInfo@@V?$allocator@UWeaponInfo@@@std@@@std@@QAE?AV?$_Vector_iterator@V?$_Vector_val@UWeaponInfo@@V?$allocator@UWeaponInfo@@@std@@@std@@@2@XZ ; std::vector<WeaponInfo,std::allocator<WeaponInfo> >::end
; Function compile flags: /Ogsp
;	COMDAT ?end@?$vector@UWeaponInfo@@V?$allocator@UWeaponInfo@@@std@@@std@@QAE?AV?$_Vector_iterator@V?$_Vector_val@UWeaponInfo@@V?$allocator@UWeaponInfo@@@std@@@std@@@2@XZ
_TEXT	SEGMENT
___$ReturnUdt$ = 8					; size = 4
?end@?$vector@UWeaponInfo@@V?$allocator@UWeaponInfo@@@std@@@std@@QAE?AV?$_Vector_iterator@V?$_Vector_val@UWeaponInfo@@V?$allocator@UWeaponInfo@@@std@@@std@@@2@XZ PROC ; std::vector<WeaponInfo,std::allocator<WeaponInfo> >::end, COMDAT
; _this$ = ecx

; 791  : 		{	// return iterator for end of mutable sequence

  00000	55		 push	 ebp
  00001	8b ec		 mov	 ebp, esp

; 792  : 		return (iterator(this->_Mylast, this));

  00003	8b 49 04	 mov	 ecx, DWORD PTR [ecx+4]
  00006	8b 45 08	 mov	 eax, DWORD PTR ___$ReturnUdt$[ebp]
  00009	89 08		 mov	 DWORD PTR [eax], ecx

; 793  : 		}

  0000b	5d		 pop	 ebp
  0000c	c2 04 00	 ret	 4
?end@?$vector@UWeaponInfo@@V?$allocator@UWeaponInfo@@@std@@@std@@QAE?AV?$_Vector_iterator@V?$_Vector_val@UWeaponInfo@@V?$allocator@UWeaponInfo@@@std@@@std@@@2@XZ ENDP ; std::vector<WeaponInfo,std::allocator<WeaponInfo> >::end
_TEXT	ENDS
PUBLIC	?begin@?$vector@UForceInfo@@V?$allocator@UForceInfo@@@std@@@std@@QAE?AV?$_Vector_iterator@V?$_Vector_val@UForceInfo@@V?$allocator@UForceInfo@@@std@@@std@@@2@XZ ; std::vector<ForceInfo,std::allocator<ForceInfo> >::begin
; Function compile flags: /Ogsp
;	COMDAT ?begin@?$vector@UForceInfo@@V?$allocator@UForceInfo@@@std@@@std@@QAE?AV?$_Vector_iterator@V?$_Vector_val@UForceInfo@@V?$allocator@UForceInfo@@@std@@@std@@@2@XZ
_TEXT	SEGMENT
___$ReturnUdt$ = 8					; size = 4
?begin@?$vector@UForceInfo@@V?$allocator@UForceInfo@@@std@@@std@@QAE?AV?$_Vector_iterator@V?$_Vector_val@UForceInfo@@V?$allocator@UForceInfo@@@std@@@std@@@2@XZ PROC ; std::vector<ForceInfo,std::allocator<ForceInfo> >::begin, COMDAT
; _this$ = ecx

; 781  : 		{	// return iterator for beginning of mutable sequence

  00000	55		 push	 ebp
  00001	8b ec		 mov	 ebp, esp

; 782  : 		return (iterator(this->_Myfirst, this));

  00003	8b 09		 mov	 ecx, DWORD PTR [ecx]
  00005	8b 45 08	 mov	 eax, DWORD PTR ___$ReturnUdt$[ebp]
  00008	89 08		 mov	 DWORD PTR [eax], ecx

; 783  : 		}

  0000a	5d		 pop	 ebp
  0000b	c2 04 00	 ret	 4
?begin@?$vector@UForceInfo@@V?$allocator@UForceInfo@@@std@@@std@@QAE?AV?$_Vector_iterator@V?$_Vector_val@UForceInfo@@V?$allocator@UForceInfo@@@std@@@std@@@2@XZ ENDP ; std::vector<ForceInfo,std::allocator<ForceInfo> >::begin
_TEXT	ENDS
PUBLIC	?end@?$vector@UForceInfo@@V?$allocator@UForceInfo@@@std@@@std@@QAE?AV?$_Vector_iterator@V?$_Vector_val@UForceInfo@@V?$allocator@UForceInfo@@@std@@@std@@@2@XZ ; std::vector<ForceInfo,std::allocator<ForceInfo> >::end
; Function compile flags: /Ogsp
;	COMDAT ?end@?$vector@UForceInfo@@V?$allocator@UForceInfo@@@std@@@std@@QAE?AV?$_Vector_iterator@V?$_Vector_val@UForceInfo@@V?$allocator@UForceInfo@@@std@@@std@@@2@XZ
_TEXT	SEGMENT
___$ReturnUdt$ = 8					; size = 4
?end@?$vector@UForceInfo@@V?$allocator@UForceInfo@@@std@@@std@@QAE?AV?$_Vector_iterator@V?$_Vector_val@UForceInfo@@V?$allocator@UForceInfo@@@std@@@std@@@2@XZ PROC ; std::vector<ForceInfo,std::allocator<ForceInfo> >::end, COMDAT
; _this$ = ecx

; 791  : 		{	// return iterator for end of mutable sequence

  00000	55		 push	 ebp
  00001	8b ec		 mov	 ebp, esp

; 792  : 		return (iterator(this->_Mylast, this));

  00003	8b 49 04	 mov	 ecx, DWORD PTR [ecx+4]
  00006	8b 45 08	 mov	 eax, DWORD PTR ___$ReturnUdt$[ebp]
  00009	89 08		 mov	 DWORD PTR [eax], ecx

; 793  : 		}

  0000b	5d		 pop	 ebp
  0000c	c2 04 00	 ret	 4
?end@?$vector@UForceInfo@@V?$allocator@UForceInfo@@@std@@@std@@QAE?AV?$_Vector_iterator@V?$_Vector_val@UForceInfo@@V?$allocator@UForceInfo@@@std@@@std@@@2@XZ ENDP ; std::vector<ForceInfo,std::allocator<ForceInfo> >::end
_TEXT	ENDS
PUBLIC	?_Make_iter@?$vector@UWeaponInfo@@V?$allocator@UWeaponInfo@@@std@@@std@@QBE?AV?$_Vector_iterator@V?$_Vector_val@UWeaponInfo@@V?$allocator@UWeaponInfo@@@std@@@std@@@2@V?$_Vector_const_iterator@V?$_Vector_val@UWeaponInfo@@V?$allocator@UWeaponInfo@@@std@@@std@@@2@@Z ; std::vector<WeaponInfo,std::allocator<WeaponInfo> >::_Make_iter
; Function compile flags: /Ogsp
;	COMDAT ?_Make_iter@?$vector@UWeaponInfo@@V?$allocator@UWeaponInfo@@@std@@@std@@QBE?AV?$_Vector_iterator@V?$_Vector_val@UWeaponInfo@@V?$allocator@UWeaponInfo@@@std@@@std@@@2@V?$_Vector_const_iterator@V?$_Vector_val@UWeaponInfo@@V?$allocator@UWeaponInfo@@@std@@@std@@@2@@Z
_TEXT	SEGMENT
___$ReturnUdt$ = 8					; size = 4
__Where$ = 12						; size = 4
?_Make_iter@?$vector@UWeaponInfo@@V?$allocator@UWeaponInfo@@@std@@@std@@QBE?AV?$_Vector_iterator@V?$_Vector_val@UWeaponInfo@@V?$allocator@UWeaponInfo@@@std@@@std@@@2@V?$_Vector_const_iterator@V?$_Vector_val@UWeaponInfo@@V?$allocator@UWeaponInfo@@@std@@@std@@@2@@Z PROC ; std::vector<WeaponInfo,std::allocator<WeaponInfo> >::_Make_iter, COMDAT
; _this$ = ecx

; 801  : 		{	// make iterator from const_iterator

  00000	55		 push	 ebp
  00001	8b ec		 mov	 ebp, esp

; 802  : 		return (iterator(_Where._Ptr, this));

  00003	8b 45 08	 mov	 eax, DWORD PTR ___$ReturnUdt$[ebp]
  00006	8b 4d 0c	 mov	 ecx, DWORD PTR __Where$[ebp]
  00009	89 08		 mov	 DWORD PTR [eax], ecx

; 803  : 		}

  0000b	5d		 pop	 ebp
  0000c	c2 08 00	 ret	 8
?_Make_iter@?$vector@UWeaponInfo@@V?$allocator@UWeaponInfo@@@std@@@std@@QBE?AV?$_Vector_iterator@V?$_Vector_val@UWeaponInfo@@V?$allocator@UWeaponInfo@@@std@@@std@@@2@V?$_Vector_const_iterator@V?$_Vector_val@UWeaponInfo@@V?$allocator@UWeaponInfo@@@std@@@std@@@2@@Z ENDP ; std::vector<WeaponInfo,std::allocator<WeaponInfo> >::_Make_iter
_TEXT	ENDS
PUBLIC	?_Make_iter@?$vector@UForceInfo@@V?$allocator@UForceInfo@@@std@@@std@@QBE?AV?$_Vector_iterator@V?$_Vector_val@UForceInfo@@V?$allocator@UForceInfo@@@std@@@std@@@2@V?$_Vector_const_iterator@V?$_Vector_val@UForceInfo@@V?$allocator@UForceInfo@@@std@@@std@@@2@@Z ; std::vector<ForceInfo,std::allocator<ForceInfo> >::_Make_iter
; Function compile flags: /Ogsp
;	COMDAT ?_Make_iter@?$vector@UForceInfo@@V?$allocator@UForceInfo@@@std@@@std@@QBE?AV?$_Vector_iterator@V?$_Vector_val@UForceInfo@@V?$allocator@UForceInfo@@@std@@@std@@@2@V?$_Vector_const_iterator@V?$_Vector_val@UForceInfo@@V?$allocator@UForceInfo@@@std@@@std@@@2@@Z
_TEXT	SEGMENT
___$ReturnUdt$ = 8					; size = 4
__Where$ = 12						; size = 4
?_Make_iter@?$vector@UForceInfo@@V?$allocator@UForceInfo@@@std@@@std@@QBE?AV?$_Vector_iterator@V?$_Vector_val@UForceInfo@@V?$allocator@UForceInfo@@@std@@@std@@@2@V?$_Vector_const_iterator@V?$_Vector_val@UForceInfo@@V?$allocator@UForceInfo@@@std@@@std@@@2@@Z PROC ; std::vector<ForceInfo,std::allocator<ForceInfo> >::_Make_iter, COMDAT
; _this$ = ecx

; 801  : 		{	// make iterator from const_iterator

  00000	55		 push	 ebp
  00001	8b ec		 mov	 ebp, esp

; 802  : 		return (iterator(_Where._Ptr, this));

  00003	8b 45 08	 mov	 eax, DWORD PTR ___$ReturnUdt$[ebp]
  00006	8b 4d 0c	 mov	 ecx, DWORD PTR __Where$[ebp]
  00009	89 08		 mov	 DWORD PTR [eax], ecx

; 803  : 		}

  0000b	5d		 pop	 ebp
  0000c	c2 08 00	 ret	 8
?_Make_iter@?$vector@UForceInfo@@V?$allocator@UForceInfo@@@std@@@std@@QBE?AV?$_Vector_iterator@V?$_Vector_val@UForceInfo@@V?$allocator@UForceInfo@@@std@@@std@@@2@V?$_Vector_const_iterator@V?$_Vector_val@UForceInfo@@V?$allocator@UForceInfo@@@std@@@std@@@2@@Z ENDP ; std::vector<ForceInfo,std::allocator<ForceInfo> >::_Make_iter
_TEXT	ENDS
PUBLIC	??9?$_Vector_const_iterator@V?$_Vector_val@UWeaponInfo@@V?$allocator@UWeaponInfo@@@std@@@std@@@std@@QBE_NABV01@@Z ; std::_Vector_const_iterator<std::_Vector_val<WeaponInfo,std::allocator<WeaponInfo> > >::operator!=
; Function compile flags: /Ogsp
;	COMDAT ??9?$_Vector_const_iterator@V?$_Vector_val@UWeaponInfo@@V?$allocator@UWeaponInfo@@@std@@@std@@@std@@QBE_NABV01@@Z
_TEXT	SEGMENT
__Right$ = 8						; size = 4
??9?$_Vector_const_iterator@V?$_Vector_val@UWeaponInfo@@V?$allocator@UWeaponInfo@@@std@@@std@@@std@@QBE_NABV01@@Z PROC ; std::_Vector_const_iterator<std::_Vector_val<WeaponInfo,std::allocator<WeaponInfo> > >::operator!=, COMDAT
; _this$ = ecx

; 207  : 		{	// test for iterator inequality

  00000	55		 push	 ebp
  00001	8b ec		 mov	 ebp, esp

; 208  : 		return (!(*this == _Right));

  00003	8b 01		 mov	 eax, DWORD PTR [ecx]
  00005	8b 55 08	 mov	 edx, DWORD PTR __Right$[ebp]
  00008	33 c9		 xor	 ecx, ecx
  0000a	3b 02		 cmp	 eax, DWORD PTR [edx]
  0000c	0f 95 c0	 setne	 al

; 209  : 		}

  0000f	5d		 pop	 ebp
  00010	c2 04 00	 ret	 4
??9?$_Vector_const_iterator@V?$_Vector_val@UWeaponInfo@@V?$allocator@UWeaponInfo@@@std@@@std@@@std@@QBE_NABV01@@Z ENDP ; std::_Vector_const_iterator<std::_Vector_val<WeaponInfo,std::allocator<WeaponInfo> > >::operator!=
_TEXT	ENDS
PUBLIC	??9?$_Vector_const_iterator@V?$_Vector_val@UForceInfo@@V?$allocator@UForceInfo@@@std@@@std@@@std@@QBE_NABV01@@Z ; std::_Vector_const_iterator<std::_Vector_val<ForceInfo,std::allocator<ForceInfo> > >::operator!=
; Function compile flags: /Ogsp
;	COMDAT ??9?$_Vector_const_iterator@V?$_Vector_val@UForceInfo@@V?$allocator@UForceInfo@@@std@@@std@@@std@@QBE_NABV01@@Z
_TEXT	SEGMENT
__Right$ = 8						; size = 4
??9?$_Vector_const_iterator@V?$_Vector_val@UForceInfo@@V?$allocator@UForceInfo@@@std@@@std@@@std@@QBE_NABV01@@Z PROC ; std::_Vector_const_iterator<std::_Vector_val<ForceInfo,std::allocator<ForceInfo> > >::operator!=, COMDAT
; _this$ = ecx

; 207  : 		{	// test for iterator inequality

  00000	55		 push	 ebp
  00001	8b ec		 mov	 ebp, esp

; 208  : 		return (!(*this == _Right));

  00003	8b 01		 mov	 eax, DWORD PTR [ecx]
  00005	8b 55 08	 mov	 edx, DWORD PTR __Right$[ebp]
  00008	33 c9		 xor	 ecx, ecx
  0000a	3b 02		 cmp	 eax, DWORD PTR [edx]
  0000c	0f 95 c0	 setne	 al

; 209  : 		}

  0000f	5d		 pop	 ebp
  00010	c2 04 00	 ret	 4
??9?$_Vector_const_iterator@V?$_Vector_val@UForceInfo@@V?$allocator@UForceInfo@@@std@@@std@@@std@@QBE_NABV01@@Z ENDP ; std::_Vector_const_iterator<std::_Vector_val<ForceInfo,std::allocator<ForceInfo> > >::operator!=
_TEXT	ENDS
PUBLIC	??$_Dest_val@V?$allocator@UForceInfo@@@std@@UForceInfo@@@std@@YAXAAV?$allocator@UForceInfo@@@0@PAUForceInfo@@@Z ; std::_Dest_val<std::allocator<ForceInfo>,ForceInfo>
; Function compile flags: /Ogsp
; File c:\program files (x86)\microsoft visual studio 10.0\vc\include\xmemory
;	COMDAT ??$_Dest_val@V?$allocator@UForceInfo@@@std@@UForceInfo@@@std@@YAXAAV?$allocator@UForceInfo@@@0@PAUForceInfo@@@Z
_TEXT	SEGMENT
__Alval$ = 8						; size = 4
__Pdest$ = 12						; size = 4
??$_Dest_val@V?$allocator@UForceInfo@@@std@@UForceInfo@@@std@@YAXAAV?$allocator@UForceInfo@@@0@PAUForceInfo@@@Z PROC ; std::_Dest_val<std::allocator<ForceInfo>,ForceInfo>, COMDAT

; 287  : 	_Alval.destroy(_Pdest);
; 288  : 	}

  00000	c3		 ret	 0
??$_Dest_val@V?$allocator@UForceInfo@@@std@@UForceInfo@@@std@@YAXAAV?$allocator@UForceInfo@@@0@PAUForceInfo@@@Z ENDP ; std::_Dest_val<std::allocator<ForceInfo>,ForceInfo>
_TEXT	ENDS
PUBLIC	??$_Copy_impl@PAUWeaponInfo@@PAU1@@std@@YAPAUWeaponInfo@@PAU1@00@Z ; std::_Copy_impl<WeaponInfo *,WeaponInfo *>
; Function compile flags: /Ogsp
; File c:\program files (x86)\microsoft visual studio 10.0\vc\include\xutility
;	COMDAT ??$_Copy_impl@PAUWeaponInfo@@PAU1@@std@@YAPAUWeaponInfo@@PAU1@00@Z
_TEXT	SEGMENT
__Cat$608449 = -4					; size = 1
__First$ = 8						; size = 4
__Last$ = 12						; size = 4
__Dest$ = 16						; size = 4
??$_Copy_impl@PAUWeaponInfo@@PAU1@@std@@YAPAUWeaponInfo@@PAU1@00@Z PROC ; std::_Copy_impl<WeaponInfo *,WeaponInfo *>, COMDAT

; 2163 : 	{	// copy [_First, _Last) to [_Dest, ...)

  00000	55		 push	 ebp
  00001	8b ec		 mov	 ebp, esp
  00003	51		 push	 ecx

; 2164 : 	return (_Copy_impl(_First, _Last,
; 2165 : 		_Dest, _Ptr_cat(_First, _Dest)));

  00004	ff 75 fc	 push	 DWORD PTR __Cat$608449[ebp]
  00007	ff 75 10	 push	 DWORD PTR __Dest$[ebp]
  0000a	ff 75 0c	 push	 DWORD PTR __Last$[ebp]
  0000d	ff 75 08	 push	 DWORD PTR __First$[ebp]
  00010	e8 00 00 00 00	 call	 ??$_Copy_impl@PAUWeaponInfo@@PAU1@@std@@YAPAUWeaponInfo@@PAU1@00U_Nonscalar_ptr_iterator_tag@0@@Z ; std::_Copy_impl<WeaponInfo *,WeaponInfo *>
  00015	83 c4 10	 add	 esp, 16			; 00000010H

; 2166 : 	}

  00018	c9		 leave
  00019	c3		 ret	 0
??$_Copy_impl@PAUWeaponInfo@@PAU1@@std@@YAPAUWeaponInfo@@PAU1@00@Z ENDP ; std::_Copy_impl<WeaponInfo *,WeaponInfo *>
_TEXT	ENDS
PUBLIC	??$_Move@PAUWeaponInfo@@PAU1@@std@@YAPAUWeaponInfo@@PAU1@00@Z ; std::_Move<WeaponInfo *,WeaponInfo *>
; Function compile flags: /Ogsp
;	COMDAT ??$_Move@PAUWeaponInfo@@PAU1@@std@@YAPAUWeaponInfo@@PAU1@00@Z
_TEXT	SEGMENT
__Cat$608456 = -4					; size = 1
__First$ = 8						; size = 4
__Last$ = 12						; size = 4
__Dest$ = 16						; size = 4
??$_Move@PAUWeaponInfo@@PAU1@@std@@YAPAUWeaponInfo@@PAU1@00@Z PROC ; std::_Move<WeaponInfo *,WeaponInfo *>, COMDAT

; 2533 : 	{	// move [_First, _Last) to [_Dest, ...), unchecked

  00000	55		 push	 ebp
  00001	8b ec		 mov	 ebp, esp
  00003	51		 push	 ecx

; 2534 : 	return (_Move(_First, _Last,
; 2535 : 		_Dest, _Ptr_cat(_First, _Dest)));

  00004	ff 75 fc	 push	 DWORD PTR __Cat$608456[ebp]
  00007	ff 75 10	 push	 DWORD PTR __Dest$[ebp]
  0000a	ff 75 0c	 push	 DWORD PTR __Last$[ebp]
  0000d	ff 75 08	 push	 DWORD PTR __First$[ebp]
  00010	e8 00 00 00 00	 call	 ??$_Move@PAUWeaponInfo@@PAU1@@std@@YAPAUWeaponInfo@@PAU1@00U_Nonscalar_ptr_iterator_tag@0@@Z ; std::_Move<WeaponInfo *,WeaponInfo *>
  00015	83 c4 10	 add	 esp, 16			; 00000010H

; 2536 : 	}

  00018	c9		 leave
  00019	c3		 ret	 0
??$_Move@PAUWeaponInfo@@PAU1@@std@@YAPAUWeaponInfo@@PAU1@00@Z ENDP ; std::_Move<WeaponInfo *,WeaponInfo *>
_TEXT	ENDS
PUBLIC	??$_Move@PAUForceInfo@@PAU1@@std@@YAPAUForceInfo@@PAU1@00@Z ; std::_Move<ForceInfo *,ForceInfo *>
; Function compile flags: /Ogsp
;	COMDAT ??$_Move@PAUForceInfo@@PAU1@@std@@YAPAUForceInfo@@PAU1@00@Z
_TEXT	SEGMENT
__Cat$608463 = -4					; size = 1
__First$ = 8						; size = 4
__Last$ = 12						; size = 4
__Dest$ = 16						; size = 4
??$_Move@PAUForceInfo@@PAU1@@std@@YAPAUForceInfo@@PAU1@00@Z PROC ; std::_Move<ForceInfo *,ForceInfo *>, COMDAT

; 2533 : 	{	// move [_First, _Last) to [_Dest, ...), unchecked

  00000	55		 push	 ebp
  00001	8b ec		 mov	 ebp, esp
  00003	51		 push	 ecx

; 2534 : 	return (_Move(_First, _Last,
; 2535 : 		_Dest, _Ptr_cat(_First, _Dest)));

  00004	ff 75 fc	 push	 DWORD PTR __Cat$608463[ebp]
  00007	ff 75 10	 push	 DWORD PTR __Dest$[ebp]
  0000a	ff 75 0c	 push	 DWORD PTR __Last$[ebp]
  0000d	ff 75 08	 push	 DWORD PTR __First$[ebp]
  00010	e8 00 00 00 00	 call	 ??$_Move@PAUForceInfo@@PAU1@@std@@YAPAUForceInfo@@PAU1@00U_Nonscalar_ptr_iterator_tag@0@@Z ; std::_Move<ForceInfo *,ForceInfo *>
  00015	83 c4 10	 add	 esp, 16			; 00000010H

; 2536 : 	}

  00018	c9		 leave
  00019	c3		 ret	 0
??$_Move@PAUForceInfo@@PAU1@@std@@YAPAUForceInfo@@PAU1@00@Z ENDP ; std::_Move<ForceInfo *,ForceInfo *>
_TEXT	ENDS
PUBLIC	?destroy@?$allocator@VioHashString@@@std@@QAEXPAVioHashString@@@Z ; std::allocator<ioHashString>::destroy
; Function compile flags: /Ogsp
; File c:\program files (x86)\microsoft visual studio 10.0\vc\include\xmemory
;	COMDAT ?destroy@?$allocator@VioHashString@@@std@@QAEXPAVioHashString@@@Z
_TEXT	SEGMENT
__Ptr$ = 8						; size = 4
?destroy@?$allocator@VioHashString@@@std@@QAEXPAVioHashString@@@Z PROC ; std::allocator<ioHashString>::destroy, COMDAT
; _this$ = ecx

; 212  : 		{	// destroy object at _Ptr

  00000	55		 push	 ebp
  00001	8b ec		 mov	 ebp, esp

; 213  : 		_Destroy(_Ptr);

  00003	8b 4d 08	 mov	 ecx, DWORD PTR __Ptr$[ebp]
  00006	ff 15 00 00 00
	00		 call	 DWORD PTR __imp_??1ioHashString@@QAE@XZ

; 214  : 		}

  0000c	5d		 pop	 ebp
  0000d	c2 04 00	 ret	 4
?destroy@?$allocator@VioHashString@@@std@@QAEXPAVioHashString@@@Z ENDP ; std::allocator<ioHashString>::destroy
_TEXT	ENDS
PUBLIC	?destroy@?$allocator@UWeaponInfo@@@std@@QAEXPAUWeaponInfo@@@Z ; std::allocator<WeaponInfo>::destroy
; Function compile flags: /Ogsp
;	COMDAT ?destroy@?$allocator@UWeaponInfo@@@std@@QAEXPAUWeaponInfo@@@Z
_TEXT	SEGMENT
__Ptr$ = 8						; size = 4
?destroy@?$allocator@UWeaponInfo@@@std@@QAEXPAUWeaponInfo@@@Z PROC ; std::allocator<WeaponInfo>::destroy, COMDAT
; _this$ = ecx

; 212  : 		{	// destroy object at _Ptr

  00000	55		 push	 ebp
  00001	8b ec		 mov	 ebp, esp

; 213  : 		_Destroy(_Ptr);

  00003	8b 4d 08	 mov	 ecx, DWORD PTR __Ptr$[ebp]
  00006	83 c1 08	 add	 ecx, 8
  00009	ff 15 00 00 00
	00		 call	 DWORD PTR __imp_??1ioHashString@@QAE@XZ

; 214  : 		}

  0000f	5d		 pop	 ebp
  00010	c2 04 00	 ret	 4
?destroy@?$allocator@UWeaponInfo@@@std@@QAEXPAUWeaponInfo@@@Z ENDP ; std::allocator<WeaponInfo>::destroy
_TEXT	ENDS
PUBLIC	??$_Cons_val@V?$allocator@VioHashString@@@std@@VioHashString@@ABV3@@std@@YAXAAV?$allocator@VioHashString@@@0@PAVioHashString@@ABV2@@Z ; std::_Cons_val<std::allocator<ioHashString>,ioHashString,ioHashString const &>
; Function compile flags: /Ogsp
;	COMDAT ??$_Cons_val@V?$allocator@VioHashString@@@std@@VioHashString@@ABV3@@std@@YAXAAV?$allocator@VioHashString@@@0@PAVioHashString@@ABV2@@Z
_TEXT	SEGMENT
__Alval$ = 8						; size = 4
__Pdest$ = 12						; size = 4
__Src$ = 16						; size = 4
??$_Cons_val@V?$allocator@VioHashString@@@std@@VioHashString@@ABV3@@std@@YAXAAV?$allocator@VioHashString@@@0@PAVioHashString@@ABV2@@Z PROC ; std::_Cons_val<std::allocator<ioHashString>,ioHashString,ioHashString const &>, COMDAT

; 279  : 	{	// construct using allocator

  00000	55		 push	 ebp
  00001	8b ec		 mov	 ebp, esp

; 280  : 	_Alval.construct(_Pdest, _STD forward<_Ty2>(_Src));

  00003	ff 75 10	 push	 DWORD PTR __Src$[ebp]
  00006	ff 75 0c	 push	 DWORD PTR __Pdest$[ebp]
  00009	e8 00 00 00 00	 call	 ??$_Construct@VioHashString@@ABV1@@std@@YAXPAVioHashString@@ABV1@@Z ; std::_Construct<ioHashString,ioHashString const &>
  0000e	59		 pop	 ecx
  0000f	59		 pop	 ecx

; 281  : 	}

  00010	5d		 pop	 ebp
  00011	c3		 ret	 0
??$_Cons_val@V?$allocator@VioHashString@@@std@@VioHashString@@ABV3@@std@@YAXAAV?$allocator@VioHashString@@@0@PAVioHashString@@ABV2@@Z ENDP ; std::_Cons_val<std::allocator<ioHashString>,ioHashString,ioHashString const &>
_TEXT	ENDS
PUBLIC	??$_Uninit_copy@PAUForceInfo@@PAU1@V?$allocator@UForceInfo@@@std@@@std@@YAPAUForceInfo@@PAU1@00AAV?$allocator@UForceInfo@@@0@U_Nonscalar_ptr_iterator_tag@0@@Z ; std::_Uninit_copy<ForceInfo *,ForceInfo *,std::allocator<ForceInfo> >
; Function compile flags: /Ogsp
; File c:\program files (x86)\microsoft visual studio 10.0\vc\include\memory
;	COMDAT ??$_Uninit_copy@PAUForceInfo@@PAU1@V?$allocator@UForceInfo@@@std@@@std@@YAPAUForceInfo@@PAU1@00AAV?$allocator@UForceInfo@@@0@U_Nonscalar_ptr_iterator_tag@0@@Z
_TEXT	SEGMENT
__First$ = 8						; size = 4
__Last$ = 12						; size = 4
__Dest$ = 16						; size = 4
__Al$ = 20						; size = 4
___formal$ = 24						; size = 1
??$_Uninit_copy@PAUForceInfo@@PAU1@V?$allocator@UForceInfo@@@std@@@std@@YAPAUForceInfo@@PAU1@00AAV?$allocator@UForceInfo@@@0@U_Nonscalar_ptr_iterator_tag@0@@Z PROC ; std::_Uninit_copy<ForceInfo *,ForceInfo *,std::allocator<ForceInfo> >, COMDAT

; 369  : 	{	// copy [_First, _Last) to raw _Dest, using _Al, arbitrary type

  00000	55		 push	 ebp
  00001	8b ec		 mov	 ebp, esp
  00003	56		 push	 esi

; 370  : 	_DEBUG_RANGE(_First, _Last);
; 371  : 	_DEBUG_POINTER(_Dest);
; 372  : 	_FwdIt _Next = _Dest;
; 373  : 
; 374  : 	_TRY_BEGIN
; 375  : 	for (; _First != _Last; ++_Dest, ++_First)

  00004	8b 75 08	 mov	 esi, DWORD PTR __First$[ebp]
  00007	eb 16		 jmp	 SHORT $LN24@Uninit_cop
$LL6@Uninit_cop:

; 376  : 		_Cons_val(_Al, _Dest, *_First);

  00009	56		 push	 esi
  0000a	ff 75 10	 push	 DWORD PTR __Dest$[ebp]
  0000d	ff 75 14	 push	 DWORD PTR __Al$[ebp]
  00010	e8 00 00 00 00	 call	 ??$_Cons_val@V?$allocator@UForceInfo@@@std@@UForceInfo@@AAU3@@std@@YAXAAV?$allocator@UForceInfo@@@0@PAUForceInfo@@AAU2@@Z ; std::_Cons_val<std::allocator<ForceInfo>,ForceInfo,ForceInfo &>
  00015	83 45 10 0c	 add	 DWORD PTR __Dest$[ebp], 12 ; 0000000cH
  00019	83 c4 0c	 add	 esp, 12			; 0000000cH
  0001c	83 c6 0c	 add	 esi, 12			; 0000000cH
$LN24@Uninit_cop:

; 370  : 	_DEBUG_RANGE(_First, _Last);
; 371  : 	_DEBUG_POINTER(_Dest);
; 372  : 	_FwdIt _Next = _Dest;
; 373  : 
; 374  : 	_TRY_BEGIN
; 375  : 	for (; _First != _Last; ++_Dest, ++_First)

  0001f	3b 75 0c	 cmp	 esi, DWORD PTR __Last$[ebp]
  00022	75 e5		 jne	 SHORT $LL6@Uninit_cop

; 377  : 	_CATCH_ALL
; 378  : 	for (; _Next != _Dest; ++_Next)
; 379  : 		_Dest_val(_Al, _Next);
; 380  : 	_RERAISE;
; 381  : 	_CATCH_END
; 382  : 	return (_Dest);

  00024	8b 45 10	 mov	 eax, DWORD PTR __Dest$[ebp]
  00027	5e		 pop	 esi

; 383  : 	}

  00028	5d		 pop	 ebp
  00029	c3		 ret	 0
??$_Uninit_copy@PAUForceInfo@@PAU1@V?$allocator@UForceInfo@@@std@@@std@@YAPAUForceInfo@@PAU1@00AAV?$allocator@UForceInfo@@@0@U_Nonscalar_ptr_iterator_tag@0@@Z ENDP ; std::_Uninit_copy<ForceInfo *,ForceInfo *,std::allocator<ForceInfo> >
_TEXT	ENDS
PUBLIC	??$_Cons_val@V?$allocator@UWeaponInfo@@@std@@UWeaponInfo@@AAU3@@std@@YAXAAV?$allocator@UWeaponInfo@@@0@PAUWeaponInfo@@AAU2@@Z ; std::_Cons_val<std::allocator<WeaponInfo>,WeaponInfo,WeaponInfo &>
;	COMDAT xdata$x
; File c:\program files (x86)\microsoft visual studio 10.0\vc\include\utility
xdata$x	SEGMENT
__unwindtable$??$_Cons_val@V?$allocator@UWeaponInfo@@@std@@UWeaponInfo@@AAU3@@std@@YAXAAV?$allocator@UWeaponInfo@@@0@PAUWeaponInfo@@AAU2@@Z DD 0ffffffffH
	DD	FLAT:__unwindfunclet$??$_Cons_val@V?$allocator@UWeaponInfo@@@std@@UWeaponInfo@@AAU3@@std@@YAXAAV?$allocator@UWeaponInfo@@@0@PAUWeaponInfo@@AAU2@@Z$0
__ehfuncinfo$??$_Cons_val@V?$allocator@UWeaponInfo@@@std@@UWeaponInfo@@AAU3@@std@@YAXAAV?$allocator@UWeaponInfo@@@0@PAUWeaponInfo@@AAU2@@Z DD 019930522H
	DD	01H
	DD	FLAT:__unwindtable$??$_Cons_val@V?$allocator@UWeaponInfo@@@std@@UWeaponInfo@@AAU3@@std@@YAXAAV?$allocator@UWeaponInfo@@@0@PAUWeaponInfo@@AAU2@@Z
	DD	2 DUP(00H)
	DD	2 DUP(00H)
	DD	00H
	DD	01H
; Function compile flags: /Ogsp
; File c:\program files (x86)\microsoft visual studio 10.0\vc\include\xmemory
xdata$x	ENDS
;	COMDAT ??$_Cons_val@V?$allocator@UWeaponInfo@@@std@@UWeaponInfo@@AAU3@@std@@YAXAAV?$allocator@UWeaponInfo@@@0@PAUWeaponInfo@@AAU2@@Z
_TEXT	SEGMENT
$T608552 = -16						; size = 4
__$EHRec$ = -12						; size = 12
__Alval$ = 8						; size = 4
__Pdest$ = 12						; size = 4
__Src$ = 16						; size = 4
??$_Cons_val@V?$allocator@UWeaponInfo@@@std@@UWeaponInfo@@AAU3@@std@@YAXAAV?$allocator@UWeaponInfo@@@0@PAUWeaponInfo@@AAU2@@Z PROC ; std::_Cons_val<std::allocator<WeaponInfo>,WeaponInfo,WeaponInfo &>, COMDAT

; 279  : 	{	// construct using allocator

  00000	6a 04		 push	 4
  00002	b8 00 00 00 00	 mov	 eax, __ehhandler$??$_Cons_val@V?$allocator@UWeaponInfo@@@std@@UWeaponInfo@@AAU3@@std@@YAXAAV?$allocator@UWeaponInfo@@@0@PAUWeaponInfo@@AAU2@@Z
  00007	e8 00 00 00 00	 call	 __EH_prolog3

; 280  : 	_Alval.construct(_Pdest, _STD forward<_Ty2>(_Src));

  0000c	8b 4d 0c	 mov	 ecx, DWORD PTR __Pdest$[ebp]
  0000f	89 4d f0	 mov	 DWORD PTR $T608552[ebp], ecx
  00012	83 65 fc 00	 and	 DWORD PTR __$EHRec$[ebp+8], 0
  00016	85 c9		 test	 ecx, ecx
  00018	74 08		 je	 SHORT $LN7@Cons_val@3
  0001a	ff 75 10	 push	 DWORD PTR __Src$[ebp]
  0001d	e8 00 00 00 00	 call	 ??0WeaponInfo@@QAE@ABU0@@Z
$LN7@Cons_val@3:

; 281  : 	}

  00022	e8 00 00 00 00	 call	 __EH_epilog3
  00027	c3		 ret	 0
_TEXT	ENDS
;	COMDAT text$x
text$x	SEGMENT
__unwindfunclet$??$_Cons_val@V?$allocator@UWeaponInfo@@@std@@UWeaponInfo@@AAU3@@std@@YAXAAV?$allocator@UWeaponInfo@@@0@PAUWeaponInfo@@AAU2@@Z$0:
  00000	ff 75 0c	 push	 DWORD PTR __Pdest$[ebp]
  00003	ff 75 f0	 push	 DWORD PTR $T608552[ebp]
  00006	e8 00 00 00 00	 call	 ??3@YAXPAX0@Z		; operator delete
  0000b	59		 pop	 ecx
  0000c	59		 pop	 ecx
  0000d	c3		 ret	 0
__ehhandler$??$_Cons_val@V?$allocator@UWeaponInfo@@@std@@UWeaponInfo@@AAU3@@std@@YAXAAV?$allocator@UWeaponInfo@@@0@PAUWeaponInfo@@AAU2@@Z:
  0000e	8b 54 24 08	 mov	 edx, DWORD PTR [esp+8]
  00012	8d 42 0c	 lea	 eax, DWORD PTR [edx+12]
  00015	8b 4a ec	 mov	 ecx, DWORD PTR [edx-20]
  00018	33 c8		 xor	 ecx, eax
  0001a	e8 00 00 00 00	 call	 @__security_check_cookie@4
  0001f	b8 00 00 00 00	 mov	 eax, OFFSET __ehfuncinfo$??$_Cons_val@V?$allocator@UWeaponInfo@@@std@@UWeaponInfo@@AAU3@@std@@YAXAAV?$allocator@UWeaponInfo@@@0@PAUWeaponInfo@@AAU2@@Z
  00024	e9 00 00 00 00	 jmp	 ___CxxFrameHandler3
text$x	ENDS
??$_Cons_val@V?$allocator@UWeaponInfo@@@std@@UWeaponInfo@@AAU3@@std@@YAXAAV?$allocator@UWeaponInfo@@@0@PAUWeaponInfo@@AAU2@@Z ENDP ; std::_Cons_val<std::allocator<WeaponInfo>,WeaponInfo,WeaponInfo &>
PUBLIC	?OnCharging@ioConsecutionItem@@IAEXPAVioBaseChar@@@Z ; ioConsecutionItem::OnCharging
EXTRN	?ActionChargeAttack@ioTutorialManager@@QAEXXZ:PROC ; ioTutorialManager::ActionChargeAttack
EXTRN	?GetSingleton@ioTutorialManager@@SAAAV1@XZ:PROC	; ioTutorialManager::GetSingleton
EXTRN	?IsAttackKeyDown@ioBaseChar@@QBE_NXZ:PROC	; ioBaseChar::IsAttackKeyDown
; Function compile flags: /Ogsp
; File d:\lost saga for developer\youtube\tutorial\source\src\lsclient\ioconsecutionitem.cpp
;	COMDAT ?OnCharging@ioConsecutionItem@@IAEXPAVioBaseChar@@@Z
_TEXT	SEGMENT
_value$608570 = 8					; size = 4
_pOwner$ = 8						; size = 4
?OnCharging@ioConsecutionItem@@IAEXPAVioBaseChar@@@Z PROC ; ioConsecutionItem::OnCharging, COMDAT
; _this$ = ecx

; 180  : {

  00000	55		 push	 ebp
  00001	8b ec		 mov	 ebp, esp
  00003	56		 push	 esi

; 181  : 	if( !pOwner->IsNeedProcess() )	return;

  00004	8b 75 08	 mov	 esi, DWORD PTR _pOwner$[ebp]
  00007	8b 06		 mov	 eax, DWORD PTR [esi]
  00009	57		 push	 edi
  0000a	8b f9		 mov	 edi, ecx
  0000c	8b ce		 mov	 ecx, esi
  0000e	ff 90 00 01 00
	00		 call	 DWORD PTR [eax+256]
  00014	84 c0		 test	 al, al
  00016	74 53		 je	 SHORT $LN1@OnCharging

; 182  : 
; 183  : 	if( pOwner->IsAttackKeyDown() )

  00018	8b ce		 mov	 ecx, esi
  0001a	e8 00 00 00 00	 call	 ?IsAttackKeyDown@ioBaseChar@@QBE_NXZ ; ioBaseChar::IsAttackKeyDown
  0001f	84 c0		 test	 al, al
  00021	74 40		 je	 SHORT $LN3@OnCharging

; 184  : 	{
; 185  : 		if( m_dwAttackStartTime + m_dwChargeTime <= FRAMEGETTIME() )

  00023	8d 45 08	 lea	 eax, DWORD PTR _value$608570[ebp]
  00026	50		 push	 eax
  00027	8d 8f b0 18 00
	00		 lea	 ecx, DWORD PTR [edi+6320]
  0002d	e8 00 00 00 00	 call	 ?DecryptValueToPool@?$CEncrypt@K@@QAEXPAK@Z ; CEncrypt<unsigned long>::DecryptValueToPool
  00032	ff 15 00 00 00
	00		 call	 DWORD PTR __imp_?GetSingleton@ioFrameTimer@@SAAAV1@XZ
  00038	8b c8		 mov	 ecx, eax
  0003a	ff 15 00 00 00
	00		 call	 DWORD PTR __imp_?GetLoopSec@ioFrameTimer@@QBEKXZ
  00040	8b 8f c8 19 00
	00		 mov	 ecx, DWORD PTR [edi+6600]
  00046	03 4d 08	 add	 ecx, DWORD PTR _value$608570[ebp]
  00049	3b c8		 cmp	 ecx, eax
  0004b	77 1e		 ja	 SHORT $LN1@OnCharging

; 186  : 		{
; 187  : 			ChangeToAttackFire( pOwner );

  0004d	56		 push	 esi
  0004e	8b cf		 mov	 ecx, edi
  00050	e8 00 00 00 00	 call	 ?ChangeToAttackFire@ioConsecutionItem@@IAEXPAVioBaseChar@@@Z ; ioConsecutionItem::ChangeToAttackFire

; 188  : 			g_TutorialMgr.ActionChargeAttack();

  00055	e8 00 00 00 00	 call	 ?GetSingleton@ioTutorialManager@@SAAAV1@XZ ; ioTutorialManager::GetSingleton
  0005a	8b c8		 mov	 ecx, eax
  0005c	e8 00 00 00 00	 call	 ?ActionChargeAttack@ioTutorialManager@@QAEXXZ ; ioTutorialManager::ActionChargeAttack

; 189  : 		}
; 190  : 	}
; 191  : 	else

  00061	eb 08		 jmp	 SHORT $LN1@OnCharging
$LN3@OnCharging:

; 192  : 	{
; 193  : 		ChangeToNormalAttack( pOwner );

  00063	56		 push	 esi
  00064	8b cf		 mov	 ecx, edi
  00066	e8 00 00 00 00	 call	 ?ChangeToNormalAttack@ioConsecutionItem@@IAEXPAVioBaseChar@@@Z ; ioConsecutionItem::ChangeToNormalAttack
$LN1@OnCharging:
  0006b	5f		 pop	 edi
  0006c	5e		 pop	 esi

; 194  : 	}
; 195  : }

  0006d	5d		 pop	 ebp
  0006e	c2 04 00	 ret	 4
?OnCharging@ioConsecutionItem@@IAEXPAVioBaseChar@@@Z ENDP ; ioConsecutionItem::OnCharging
_TEXT	ENDS
PUBLIC	?IsEnableAttackDashCheck@ioConsecutionItem@@UAE_NPAVioBaseChar@@_N@Z ; ioConsecutionItem::IsEnableAttackDashCheck
; Function compile flags: /Ogsp
;	COMDAT ?IsEnableAttackDashCheck@ioConsecutionItem@@UAE_NPAVioBaseChar@@_N@Z
_TEXT	SEGMENT
_value$608583 = -1					; size = 1
_pOwner$ = 8						; size = 4
_bCheck$ = 12						; size = 1
?IsEnableAttackDashCheck@ioConsecutionItem@@UAE_NPAVioBaseChar@@_N@Z PROC ; ioConsecutionItem::IsEnableAttackDashCheck, COMDAT
; _this$ = ecx

; 419  : {

  00000	55		 push	 ebp
  00001	8b ec		 mov	 ebp, esp
  00003	51		 push	 ecx
  00004	56		 push	 esi
  00005	8b f1		 mov	 esi, ecx

; 420  : 	if( !IsChargeDash() ) return false;

  00007	8d 45 ff	 lea	 eax, DWORD PTR _value$608583[ebp]
  0000a	50		 push	 eax
  0000b	8d 8e 64 0d 00
	00		 lea	 ecx, DWORD PTR [esi+3428]
  00011	e8 00 00 00 00	 call	 ?DecryptValueToPool@?$CEncrypt@_N@@QAEXPA_N@Z ; CEncrypt<bool>::DecryptValueToPool
  00016	32 c0		 xor	 al, al
  00018	38 45 ff	 cmp	 BYTE PTR _value$608583[ebp], al
  0001b	74 25		 je	 SHORT $LN3@IsEnableAt

; 421  : 	if( !m_bCharged ) return false;

  0001d	38 86 d0 19 00
	00		 cmp	 BYTE PTR [esi+6608], al
  00023	74 1d		 je	 SHORT $LN3@IsEnableAt

; 422  : 
; 423  : 	if( pOwner->GetState() == CS_ATTACK )

  00025	8b 4d 08	 mov	 ecx, DWORD PTR _pOwner$[ebp]
  00028	80 b9 10 03 00
	00 05		 cmp	 BYTE PTR [ecx+784], 5
  0002f	75 11		 jne	 SHORT $LN3@IsEnableAt

; 424  : 	{
; 425  : 		switch( m_ChargeState )

  00031	83 be c4 19 00
	00 03		 cmp	 DWORD PTR [esi+6596], 3
  00038	75 08		 jne	 SHORT $LN3@IsEnableAt

; 426  : 		{
; 427  : 		case CS_ATTACK_FIRE:
; 428  : 			if( !bCheck )

  0003a	38 45 0c	 cmp	 BYTE PTR _bCheck$[ebp], al
  0003d	0f 95 c0	 setne	 al

; 429  : 				return false;
; 430  : 
; 431  : 			return true;

  00040	eb 02		 jmp	 SHORT $LN8@IsEnableAt
$LN3@IsEnableAt:

; 432  : 		}
; 433  : 	}
; 434  : 
; 435  : 	return false;

  00042	32 c0		 xor	 al, al
$LN8@IsEnableAt:
  00044	5e		 pop	 esi

; 436  : }

  00045	c9		 leave
  00046	c2 08 00	 ret	 8
?IsEnableAttackDashCheck@ioConsecutionItem@@UAE_NPAVioBaseChar@@_N@Z ENDP ; ioConsecutionItem::IsEnableAttackDashCheck
_TEXT	ENDS
PUBLIC	??0?$list@MV?$allocator@M@std@@@std@@QAE@XZ	; std::list<float,std::allocator<float> >::list<float,std::allocator<float> >
; Function compile flags: /Ogsp
; File c:\program files (x86)\microsoft visual studio 10.0\vc\include\list
;	COMDAT ??0?$list@MV?$allocator@M@std@@@std@@QAE@XZ
_TEXT	SEGMENT
$T608597 = -4						; size = 4
$T608592 = -4						; size = 4
??0?$list@MV?$allocator@M@std@@@std@@QAE@XZ PROC	; std::list<float,std::allocator<float> >::list<float,std::allocator<float> >, COMDAT
; _this$ = ecx

; 607  : 		{	// construct empty list

  00000	55		 push	 ebp
  00001	8b ec		 mov	 ebp, esp
  00003	51		 push	 ecx
  00004	56		 push	 esi
  00005	51		 push	 ecx
  00006	89 65 fc	 mov	 DWORD PTR $T608592[ebp], esp
  00009	8b f1		 mov	 esi, ecx
  0000b	89 65 fc	 mov	 DWORD PTR $T608597[ebp], esp
  0000e	e8 00 00 00 00	 call	 ??0?$_List_val@MV?$allocator@M@std@@@std@@QAE@V?$allocator@M@1@@Z ; std::_List_val<float,std::allocator<float> >::_List_val<float,std::allocator<float> >

; 608  : 		}

  00013	8b c6		 mov	 eax, esi
  00015	5e		 pop	 esi
  00016	c9		 leave
  00017	c3		 ret	 0
??0?$list@MV?$allocator@M@std@@@std@@QAE@XZ ENDP	; std::list<float,std::allocator<float> >::list<float,std::allocator<float> >
_TEXT	ENDS
PUBLIC	?begin@?$list@MV?$allocator@M@std@@@std@@QAE?AV?$_List_iterator@V?$_List_val@MV?$allocator@M@std@@@std@@@2@XZ ; std::list<float,std::allocator<float> >::begin
; Function compile flags: /Ogsp
;	COMDAT ?begin@?$list@MV?$allocator@M@std@@@std@@QAE?AV?$_List_iterator@V?$_List_val@MV?$allocator@M@std@@@std@@@2@XZ
_TEXT	SEGMENT
___$ReturnUdt$ = 8					; size = 4
?begin@?$list@MV?$allocator@M@std@@@std@@QAE?AV?$_List_iterator@V?$_List_val@MV?$allocator@M@std@@@std@@@2@XZ PROC ; std::list<float,std::allocator<float> >::begin, COMDAT
; _this$ = ecx

; 781  : 		{	// return iterator for beginning of mutable sequence

  00000	55		 push	 ebp
  00001	8b ec		 mov	 ebp, esp

; 782  : 		return (iterator(this->_Nextnode(this->_Myhead), this));

  00003	8b 01		 mov	 eax, DWORD PTR [ecx]
  00005	8b 08		 mov	 ecx, DWORD PTR [eax]
  00007	8b 45 08	 mov	 eax, DWORD PTR ___$ReturnUdt$[ebp]
  0000a	89 08		 mov	 DWORD PTR [eax], ecx

; 783  : 		}

  0000c	5d		 pop	 ebp
  0000d	c2 04 00	 ret	 4
?begin@?$list@MV?$allocator@M@std@@@std@@QAE?AV?$_List_iterator@V?$_List_val@MV?$allocator@M@std@@@std@@@2@XZ ENDP ; std::list<float,std::allocator<float> >::begin
_TEXT	ENDS
PUBLIC	?end@?$list@MV?$allocator@M@std@@@std@@QAE?AV?$_List_iterator@V?$_List_val@MV?$allocator@M@std@@@std@@@2@XZ ; std::list<float,std::allocator<float> >::end
; Function compile flags: /Ogsp
;	COMDAT ?end@?$list@MV?$allocator@M@std@@@std@@QAE?AV?$_List_iterator@V?$_List_val@MV?$allocator@M@std@@@std@@@2@XZ
_TEXT	SEGMENT
___$ReturnUdt$ = 8					; size = 4
?end@?$list@MV?$allocator@M@std@@@std@@QAE?AV?$_List_iterator@V?$_List_val@MV?$allocator@M@std@@@std@@@2@XZ PROC ; std::list<float,std::allocator<float> >::end, COMDAT
; _this$ = ecx

; 791  : 		{	// return iterator for end of mutable sequence

  00000	55		 push	 ebp
  00001	8b ec		 mov	 ebp, esp

; 792  : 		return (iterator(this->_Myhead, this));

  00003	8b 09		 mov	 ecx, DWORD PTR [ecx]
  00005	8b 45 08	 mov	 eax, DWORD PTR ___$ReturnUdt$[ebp]
  00008	89 08		 mov	 DWORD PTR [eax], ecx

; 793  : 		}

  0000a	5d		 pop	 ebp
  0000b	c2 04 00	 ret	 4
?end@?$list@MV?$allocator@M@std@@@std@@QAE?AV?$_List_iterator@V?$_List_val@MV?$allocator@M@std@@@std@@@2@XZ ENDP ; std::list<float,std::allocator<float> >::end
_TEXT	ENDS
PUBLIC	?clear@?$list@MV?$allocator@M@std@@@std@@QAEXXZ	; std::list<float,std::allocator<float> >::clear
; Function compile flags: /Ogsp
;	COMDAT ?clear@?$list@MV?$allocator@M@std@@@std@@QAEXXZ
_TEXT	SEGMENT
?clear@?$list@MV?$allocator@M@std@@@std@@QAEXXZ PROC	; std::list<float,std::allocator<float> >::clear, COMDAT
; _this$ = ecx

; 1096 : 		{	// erase all

  00000	56		 push	 esi
  00001	8b f1		 mov	 esi, ecx

; 1097 :  #if _ITERATOR_DEBUG_LEVEL == 2
; 1098 : 		this->_Orphan_ptr(*this, 0);
; 1099 :  #endif /* _ITERATOR_DEBUG_LEVEL == 2 */
; 1100 : 
; 1101 : 		_Nodeptr _Pnext;
; 1102 : 		_Nodeptr _Pnode = this->_Nextnode(this->_Myhead);

  00003	8b 06		 mov	 eax, DWORD PTR [esi]
  00005	8b 08		 mov	 ecx, DWORD PTR [eax]

; 1103 : 		this->_Nextnode(this->_Myhead) = this->_Myhead;

  00007	89 00		 mov	 DWORD PTR [eax], eax

; 1104 : 		this->_Prevnode(this->_Myhead) = this->_Myhead;

  00009	8b 06		 mov	 eax, DWORD PTR [esi]
  0000b	89 40 04	 mov	 DWORD PTR [eax+4], eax

; 1105 : 		this->_Mysize = 0;

  0000e	83 66 04 00	 and	 DWORD PTR [esi+4], 0

; 1106 : 
; 1107 : 		for (; _Pnode != this->_Myhead; _Pnode = _Pnext)

  00012	3b 0e		 cmp	 ecx, DWORD PTR [esi]
  00014	74 11		 je	 SHORT $LN1@clear
  00016	57		 push	 edi
$LL3@clear:

; 1108 : 			{	// delete an element
; 1109 : 			_Pnext = this->_Nextnode(_Pnode);

  00017	8b 39		 mov	 edi, DWORD PTR [ecx]

; 1110 : 
; 1111 : 			_Dest_val(this->_Alnod, _Pnode);
; 1112 : 			this->_Alnod.deallocate(_Pnode, 1);

  00019	51		 push	 ecx
  0001a	e8 00 00 00 00	 call	 ??3@YAXPAX@Z		; operator delete
  0001f	59		 pop	 ecx
  00020	8b cf		 mov	 ecx, edi
  00022	3b 3e		 cmp	 edi, DWORD PTR [esi]
  00024	75 f1		 jne	 SHORT $LL3@clear
  00026	5f		 pop	 edi
$LN1@clear:
  00027	5e		 pop	 esi

; 1113 : 			}
; 1114 : 		}

  00028	c3		 ret	 0
?clear@?$list@MV?$allocator@M@std@@@std@@QAEXXZ ENDP	; std::list<float,std::allocator<float> >::clear
_TEXT	ENDS
PUBLIC	??$_Uninit_copy@V?$_Vector_const_iterator@V?$_Vector_val@UForceInfo@@V?$allocator@UForceInfo@@@std@@@std@@@std@@PAUForceInfo@@V?$allocator@UForceInfo@@@2@@std@@YAPAUForceInfo@@V?$_Vector_const_iterator@V?$_Vector_val@UForceInfo@@V?$allocator@UForceInfo@@@std@@@std@@@0@0PAU1@AAV?$allocator@UForceInfo@@@0@U_Nonscalar_ptr_iterator_tag@0@@Z ; std::_Uninit_copy<std::_Vector_const_iterator<std::_Vector_val<ForceInfo,std::allocator<ForceInfo> > >,ForceInfo *,std::allocator<ForceInfo> >
; Function compile flags: /Ogsp
; File c:\program files (x86)\microsoft visual studio 10.0\vc\include\memory
;	COMDAT ??$_Uninit_copy@V?$_Vector_const_iterator@V?$_Vector_val@UForceInfo@@V?$allocator@UForceInfo@@@std@@@std@@@std@@PAUForceInfo@@V?$allocator@UForceInfo@@@2@@std@@YAPAUForceInfo@@V?$_Vector_const_iterator@V?$_Vector_val@UForceInfo@@V?$allocator@UForceInfo@@@std@@@std@@@0@0PAU1@AAV?$allocator@UForceInfo@@@0@U_Nonscalar_ptr_iterator_tag@0@@Z
_TEXT	SEGMENT
__First$ = 8						; size = 4
__Last$ = 12						; size = 4
__Dest$ = 16						; size = 4
__Al$ = 20						; size = 4
___formal$ = 24						; size = 1
??$_Uninit_copy@V?$_Vector_const_iterator@V?$_Vector_val@UForceInfo@@V?$allocator@UForceInfo@@@std@@@std@@@std@@PAUForceInfo@@V?$allocator@UForceInfo@@@2@@std@@YAPAUForceInfo@@V?$_Vector_const_iterator@V?$_Vector_val@UForceInfo@@V?$allocator@UForceInfo@@@std@@@std@@@0@0PAU1@AAV?$allocator@UForceInfo@@@0@U_Nonscalar_ptr_iterator_tag@0@@Z PROC ; std::_Uninit_copy<std::_Vector_const_iterator<std::_Vector_val<ForceInfo,std::allocator<ForceInfo> > >,ForceInfo *,std::allocator<ForceInfo> >, COMDAT

; 369  : 	{	// copy [_First, _Last) to raw _Dest, using _Al, arbitrary type

  00000	55		 push	 ebp
  00001	8b ec		 mov	 ebp, esp

; 370  : 	_DEBUG_RANGE(_First, _Last);
; 371  : 	_DEBUG_POINTER(_Dest);
; 372  : 	_FwdIt _Next = _Dest;
; 373  : 
; 374  : 	_TRY_BEGIN
; 375  : 	for (; _First != _Last; ++_Dest, ++_First)

  00003	eb 19		 jmp	 SHORT $LN35@Uninit_cop@2
$LL14@Uninit_cop@2:

; 376  : 		_Cons_val(_Al, _Dest, *_First);

  00005	ff 75 08	 push	 DWORD PTR __First$[ebp]
  00008	ff 75 10	 push	 DWORD PTR __Dest$[ebp]
  0000b	ff 75 14	 push	 DWORD PTR __Al$[ebp]
  0000e	e8 00 00 00 00	 call	 ??$_Cons_val@V?$allocator@UForceInfo@@@std@@UForceInfo@@ABU3@@std@@YAXAAV?$allocator@UForceInfo@@@0@PAUForceInfo@@ABU2@@Z ; std::_Cons_val<std::allocator<ForceInfo>,ForceInfo,ForceInfo const &>
  00013	83 45 10 0c	 add	 DWORD PTR __Dest$[ebp], 12 ; 0000000cH
  00017	83 c4 0c	 add	 esp, 12			; 0000000cH
  0001a	83 45 08 0c	 add	 DWORD PTR __First$[ebp], 12 ; 0000000cH
$LN35@Uninit_cop@2:

; 370  : 	_DEBUG_RANGE(_First, _Last);
; 371  : 	_DEBUG_POINTER(_Dest);
; 372  : 	_FwdIt _Next = _Dest;
; 373  : 
; 374  : 	_TRY_BEGIN
; 375  : 	for (; _First != _Last; ++_Dest, ++_First)

  0001e	8b 45 08	 mov	 eax, DWORD PTR __First$[ebp]
  00021	3b 45 0c	 cmp	 eax, DWORD PTR __Last$[ebp]
  00024	75 df		 jne	 SHORT $LL14@Uninit_cop@2

; 377  : 	_CATCH_ALL
; 378  : 	for (; _Next != _Dest; ++_Next)
; 379  : 		_Dest_val(_Al, _Next);
; 380  : 	_RERAISE;
; 381  : 	_CATCH_END
; 382  : 	return (_Dest);

  00026	8b 45 10	 mov	 eax, DWORD PTR __Dest$[ebp]

; 383  : 	}

  00029	5d		 pop	 ebp
  0002a	c3		 ret	 0
??$_Uninit_copy@V?$_Vector_const_iterator@V?$_Vector_val@UForceInfo@@V?$allocator@UForceInfo@@@std@@@std@@@std@@PAUForceInfo@@V?$allocator@UForceInfo@@@2@@std@@YAPAUForceInfo@@V?$_Vector_const_iterator@V?$_Vector_val@UForceInfo@@V?$allocator@UForceInfo@@@std@@@std@@@0@0PAU1@AAV?$allocator@UForceInfo@@@0@U_Nonscalar_ptr_iterator_tag@0@@Z ENDP ; std::_Uninit_copy<std::_Vector_const_iterator<std::_Vector_val<ForceInfo,std::allocator<ForceInfo> > >,ForceInfo *,std::allocator<ForceInfo> >
_TEXT	ENDS
PUBLIC	??$_Cons_val@V?$allocator@UWeaponInfo@@@std@@UWeaponInfo@@ABU3@@std@@YAXAAV?$allocator@UWeaponInfo@@@0@PAUWeaponInfo@@ABU2@@Z ; std::_Cons_val<std::allocator<WeaponInfo>,WeaponInfo,WeaponInfo const &>
; Function compile flags: /Ogsp
; File c:\program files (x86)\microsoft visual studio 10.0\vc\include\xmemory
;	COMDAT ??$_Cons_val@V?$allocator@UWeaponInfo@@@std@@UWeaponInfo@@ABU3@@std@@YAXAAV?$allocator@UWeaponInfo@@@0@PAUWeaponInfo@@ABU2@@Z
_TEXT	SEGMENT
__Alval$ = 8						; size = 4
__Pdest$ = 12						; size = 4
__Src$ = 16						; size = 4
??$_Cons_val@V?$allocator@UWeaponInfo@@@std@@UWeaponInfo@@ABU3@@std@@YAXAAV?$allocator@UWeaponInfo@@@0@PAUWeaponInfo@@ABU2@@Z PROC ; std::_Cons_val<std::allocator<WeaponInfo>,WeaponInfo,WeaponInfo const &>, COMDAT

; 279  : 	{	// construct using allocator

  00000	55		 push	 ebp
  00001	8b ec		 mov	 ebp, esp

; 280  : 	_Alval.construct(_Pdest, _STD forward<_Ty2>(_Src));

  00003	ff 75 10	 push	 DWORD PTR __Src$[ebp]
  00006	ff 75 0c	 push	 DWORD PTR __Pdest$[ebp]
  00009	e8 00 00 00 00	 call	 ??$_Construct@UWeaponInfo@@ABU1@@std@@YAXPAUWeaponInfo@@ABU1@@Z ; std::_Construct<WeaponInfo,WeaponInfo const &>
  0000e	59		 pop	 ecx
  0000f	59		 pop	 ecx

; 281  : 	}

  00010	5d		 pop	 ebp
  00011	c3		 ret	 0
??$_Cons_val@V?$allocator@UWeaponInfo@@@std@@UWeaponInfo@@ABU3@@std@@YAXAAV?$allocator@UWeaponInfo@@@0@PAUWeaponInfo@@ABU2@@Z ENDP ; std::_Cons_val<std::allocator<WeaponInfo>,WeaponInfo,WeaponInfo const &>
_TEXT	ENDS
PUBLIC	??$_Destroy_range@V?$allocator@UForceInfo@@@std@@@std@@YAXPAUForceInfo@@0AAV?$allocator@UForceInfo@@@0@U_Nonscalar_ptr_iterator_tag@0@@Z ; std::_Destroy_range<std::allocator<ForceInfo> >
; Function compile flags: /Ogsp
;	COMDAT ??$_Destroy_range@V?$allocator@UForceInfo@@@std@@@std@@YAXPAUForceInfo@@0AAV?$allocator@UForceInfo@@@0@U_Nonscalar_ptr_iterator_tag@0@@Z
_TEXT	SEGMENT
__First$ = 8						; size = 4
__Last$ = 12						; size = 4
__Al$ = 16						; size = 4
___formal$ = 20						; size = 1
??$_Destroy_range@V?$allocator@UForceInfo@@@std@@@std@@YAXPAUForceInfo@@0AAV?$allocator@UForceInfo@@@0@U_Nonscalar_ptr_iterator_tag@0@@Z PROC ; std::_Destroy_range<std::allocator<ForceInfo> >, COMDAT

; 96   : 	for (; _First != _Last; ++_First)
; 97   : 		_Dest_val(_Al, _First);
; 98   : 	}

  00000	c3		 ret	 0
??$_Destroy_range@V?$allocator@UForceInfo@@@std@@@std@@YAXPAUForceInfo@@0AAV?$allocator@UForceInfo@@@0@U_Nonscalar_ptr_iterator_tag@0@@Z ENDP ; std::_Destroy_range<std::allocator<ForceInfo> >
_TEXT	ENDS
PUBLIC	??$_Dest_val@V?$allocator@VioHashString@@@std@@VioHashString@@@std@@YAXAAV?$allocator@VioHashString@@@0@PAVioHashString@@@Z ; std::_Dest_val<std::allocator<ioHashString>,ioHashString>
; Function compile flags: /Ogsp
;	COMDAT ??$_Dest_val@V?$allocator@VioHashString@@@std@@VioHashString@@@std@@YAXAAV?$allocator@VioHashString@@@0@PAVioHashString@@@Z
_TEXT	SEGMENT
__Alval$ = 8						; size = 4
__Pdest$ = 12						; size = 4
??$_Dest_val@V?$allocator@VioHashString@@@std@@VioHashString@@@std@@YAXAAV?$allocator@VioHashString@@@0@PAVioHashString@@@Z PROC ; std::_Dest_val<std::allocator<ioHashString>,ioHashString>, COMDAT

; 286  : 	{	// destroy using allocator

  00000	55		 push	 ebp
  00001	8b ec		 mov	 ebp, esp

; 287  : 	_Alval.destroy(_Pdest);

  00003	8b 4d 0c	 mov	 ecx, DWORD PTR __Pdest$[ebp]

; 288  : 	}

  00006	5d		 pop	 ebp

; 287  : 	_Alval.destroy(_Pdest);

  00007	ff 25 00 00 00
	00		 jmp	 DWORD PTR __imp_??1ioHashString@@QAE@XZ
??$_Dest_val@V?$allocator@VioHashString@@@std@@VioHashString@@@std@@YAXAAV?$allocator@VioHashString@@@0@PAVioHashString@@@Z ENDP ; std::_Dest_val<std::allocator<ioHashString>,ioHashString>
_TEXT	ENDS
PUBLIC	??$_Dest_val@V?$allocator@UWeaponInfo@@@std@@UWeaponInfo@@@std@@YAXAAV?$allocator@UWeaponInfo@@@0@PAUWeaponInfo@@@Z ; std::_Dest_val<std::allocator<WeaponInfo>,WeaponInfo>
; Function compile flags: /Ogsp
;	COMDAT ??$_Dest_val@V?$allocator@UWeaponInfo@@@std@@UWeaponInfo@@@std@@YAXAAV?$allocator@UWeaponInfo@@@0@PAUWeaponInfo@@@Z
_TEXT	SEGMENT
__Alval$ = 8						; size = 4
__Pdest$ = 12						; size = 4
??$_Dest_val@V?$allocator@UWeaponInfo@@@std@@UWeaponInfo@@@std@@YAXAAV?$allocator@UWeaponInfo@@@0@PAUWeaponInfo@@@Z PROC ; std::_Dest_val<std::allocator<WeaponInfo>,WeaponInfo>, COMDAT

; 286  : 	{	// destroy using allocator

  00000	55		 push	 ebp
  00001	8b ec		 mov	 ebp, esp

; 287  : 	_Alval.destroy(_Pdest);

  00003	8b 4d 0c	 mov	 ecx, DWORD PTR __Pdest$[ebp]
  00006	83 c1 08	 add	 ecx, 8

; 288  : 	}

  00009	5d		 pop	 ebp

; 287  : 	_Alval.destroy(_Pdest);

  0000a	ff 25 00 00 00
	00		 jmp	 DWORD PTR __imp_??1ioHashString@@QAE@XZ
??$_Dest_val@V?$allocator@UWeaponInfo@@@std@@UWeaponInfo@@@std@@YAXAAV?$allocator@UWeaponInfo@@@0@PAUWeaponInfo@@@Z ENDP ; std::_Dest_val<std::allocator<WeaponInfo>,WeaponInfo>
_TEXT	ENDS
PUBLIC	??$_Uninitialized_copy@PAUForceInfo@@PAU1@V?$allocator@UForceInfo@@@std@@@std@@YAPAUForceInfo@@PAU1@00AAV?$allocator@UForceInfo@@@0@@Z ; std::_Uninitialized_copy<ForceInfo *,ForceInfo *,std::allocator<ForceInfo> >
; Function compile flags: /Ogsp
; File c:\program files (x86)\microsoft visual studio 10.0\vc\include\memory
;	COMDAT ??$_Uninitialized_copy@PAUForceInfo@@PAU1@V?$allocator@UForceInfo@@@std@@@std@@YAPAUForceInfo@@PAU1@00AAV?$allocator@UForceInfo@@@0@@Z
_TEXT	SEGMENT
__Cat$608829 = -4					; size = 1
__First$ = 8						; size = 4
__Last$ = 12						; size = 4
__Dest$ = 16						; size = 4
__Al$ = 20						; size = 4
??$_Uninitialized_copy@PAUForceInfo@@PAU1@V?$allocator@UForceInfo@@@std@@@std@@YAPAUForceInfo@@PAU1@00AAV?$allocator@UForceInfo@@@0@@Z PROC ; std::_Uninitialized_copy<ForceInfo *,ForceInfo *,std::allocator<ForceInfo> >, COMDAT

; 412  : 	{	// copy [_First, _Last) to raw _Dest, using _Al

  00000	55		 push	 ebp
  00001	8b ec		 mov	 ebp, esp
  00003	51		 push	 ecx

; 413  : 	return (_Uninit_copy(_First, _Last, _Dest, _Al,
; 414  : 		_Ptr_cat(_First, _Dest)));

  00004	ff 75 fc	 push	 DWORD PTR __Cat$608829[ebp]
  00007	ff 75 14	 push	 DWORD PTR __Al$[ebp]
  0000a	ff 75 10	 push	 DWORD PTR __Dest$[ebp]
  0000d	ff 75 0c	 push	 DWORD PTR __Last$[ebp]
  00010	ff 75 08	 push	 DWORD PTR __First$[ebp]
  00013	e8 00 00 00 00	 call	 ??$_Uninit_copy@PAUForceInfo@@PAU1@V?$allocator@UForceInfo@@@std@@@std@@YAPAUForceInfo@@PAU1@00AAV?$allocator@UForceInfo@@@0@U_Nonscalar_ptr_iterator_tag@0@@Z ; std::_Uninit_copy<ForceInfo *,ForceInfo *,std::allocator<ForceInfo> >
  00018	83 c4 14	 add	 esp, 20			; 00000014H

; 415  : 	}

  0001b	c9		 leave
  0001c	c3		 ret	 0
??$_Uninitialized_copy@PAUForceInfo@@PAU1@V?$allocator@UForceInfo@@@std@@@std@@YAPAUForceInfo@@PAU1@00AAV?$allocator@UForceInfo@@@0@@Z ENDP ; std::_Uninitialized_copy<ForceInfo *,ForceInfo *,std::allocator<ForceInfo> >
_TEXT	ENDS
PUBLIC	??$_Uninit_copy@PAUWeaponInfo@@PAU1@V?$allocator@UWeaponInfo@@@std@@@std@@YAPAUWeaponInfo@@PAU1@00AAV?$allocator@UWeaponInfo@@@0@U_Nonscalar_ptr_iterator_tag@0@@Z ; std::_Uninit_copy<WeaponInfo *,WeaponInfo *,std::allocator<WeaponInfo> >
EXTRN	__EH_prolog3_catch:PROC
;	COMDAT xdata$x
; File d:\lost saga for developer\youtube\tutorial\source\src\lsclient\playentityhelpstruct.h
xdata$x	SEGMENT
__catchsym$??$_Uninit_copy@PAUWeaponInfo@@PAU1@V?$allocator@UWeaponInfo@@@std@@@std@@YAPAUWeaponInfo@@PAU1@00AAV?$allocator@UWeaponInfo@@@0@U_Nonscalar_ptr_iterator_tag@0@@Z$3 DD 040H
	DD	00H
	DD	00H
	DD	FLAT:__catch$??$_Uninit_copy@PAUWeaponInfo@@PAU1@V?$allocator@UWeaponInfo@@@std@@@std@@YAPAUWeaponInfo@@PAU1@00AAV?$allocator@UWeaponInfo@@@0@U_Nonscalar_ptr_iterator_tag@0@@Z$0
__unwindtable$??$_Uninit_copy@PAUWeaponInfo@@PAU1@V?$allocator@UWeaponInfo@@@std@@@std@@YAPAUWeaponInfo@@PAU1@00AAV?$allocator@UWeaponInfo@@@0@U_Nonscalar_ptr_iterator_tag@0@@Z DD 0ffffffffH
	DD	00H
	DD	0ffffffffH
	DD	00H
__tryblocktable$??$_Uninit_copy@PAUWeaponInfo@@PAU1@V?$allocator@UWeaponInfo@@@std@@@std@@YAPAUWeaponInfo@@PAU1@00AAV?$allocator@UWeaponInfo@@@0@U_Nonscalar_ptr_iterator_tag@0@@Z DD 00H
	DD	00H
	DD	01H
	DD	01H
	DD	FLAT:__catchsym$??$_Uninit_copy@PAUWeaponInfo@@PAU1@V?$allocator@UWeaponInfo@@@std@@@std@@YAPAUWeaponInfo@@PAU1@00AAV?$allocator@UWeaponInfo@@@0@U_Nonscalar_ptr_iterator_tag@0@@Z$3
__ehfuncinfo$??$_Uninit_copy@PAUWeaponInfo@@PAU1@V?$allocator@UWeaponInfo@@@std@@@std@@YAPAUWeaponInfo@@PAU1@00AAV?$allocator@UWeaponInfo@@@0@U_Nonscalar_ptr_iterator_tag@0@@Z DD 019930522H
	DD	02H
	DD	FLAT:__unwindtable$??$_Uninit_copy@PAUWeaponInfo@@PAU1@V?$allocator@UWeaponInfo@@@std@@@std@@YAPAUWeaponInfo@@PAU1@00AAV?$allocator@UWeaponInfo@@@0@U_Nonscalar_ptr_iterator_tag@0@@Z
	DD	01H
	DD	FLAT:__tryblocktable$??$_Uninit_copy@PAUWeaponInfo@@PAU1@V?$allocator@UWeaponInfo@@@std@@@std@@YAPAUWeaponInfo@@PAU1@00AAV?$allocator@UWeaponInfo@@@0@U_Nonscalar_ptr_iterator_tag@0@@Z
	DD	2 DUP(00H)
	DD	00H
	DD	01H
; Function compile flags: /Ogsp
; File c:\program files (x86)\microsoft visual studio 10.0\vc\include\memory
xdata$x	ENDS
;	COMDAT ??$_Uninit_copy@PAUWeaponInfo@@PAU1@V?$allocator@UWeaponInfo@@@std@@@std@@YAPAUWeaponInfo@@PAU1@00AAV?$allocator@UWeaponInfo@@@0@U_Nonscalar_ptr_iterator_tag@0@@Z
_TEXT	SEGMENT
__Next$ = -20						; size = 4
__$EHRec$ = -16						; size = 16
__First$ = 8						; size = 4
__Last$ = 12						; size = 4
__Dest$ = 16						; size = 4
__Al$ = 20						; size = 4
___formal$ = 24						; size = 1
??$_Uninit_copy@PAUWeaponInfo@@PAU1@V?$allocator@UWeaponInfo@@@std@@@std@@YAPAUWeaponInfo@@PAU1@00AAV?$allocator@UWeaponInfo@@@0@U_Nonscalar_ptr_iterator_tag@0@@Z PROC ; std::_Uninit_copy<WeaponInfo *,WeaponInfo *,std::allocator<WeaponInfo> >, COMDAT

; 369  : 	{	// copy [_First, _Last) to raw _Dest, using _Al, arbitrary type

  00000	6a 08		 push	 8
  00002	b8 00 00 00 00	 mov	 eax, __ehhandler$??$_Uninit_copy@PAUWeaponInfo@@PAU1@V?$allocator@UWeaponInfo@@@std@@@std@@YAPAUWeaponInfo@@PAU1@00AAV?$allocator@UWeaponInfo@@@0@U_Nonscalar_ptr_iterator_tag@0@@Z
  00007	e8 00 00 00 00	 call	 __EH_prolog3_catch

; 370  : 	_DEBUG_RANGE(_First, _Last);
; 371  : 	_DEBUG_POINTER(_Dest);
; 372  : 	_FwdIt _Next = _Dest;

  0000c	8b 45 10	 mov	 eax, DWORD PTR __Dest$[ebp]

; 373  : 
; 374  : 	_TRY_BEGIN

  0000f	83 65 fc 00	 and	 DWORD PTR __$EHRec$[ebp+12], 0
  00013	8b 75 08	 mov	 esi, DWORD PTR __First$[ebp]
  00016	89 45 ec	 mov	 DWORD PTR __Next$[ebp], eax
$LL6@Uninit_cop@3:

; 375  : 	for (; _First != _Last; ++_Dest, ++_First)

  00019	3b 75 0c	 cmp	 esi, DWORD PTR __Last$[ebp]
  0001c	74 37		 je	 SHORT $LN4@Uninit_cop@3

; 376  : 		_Cons_val(_Al, _Dest, *_First);

  0001e	56		 push	 esi
  0001f	ff 75 10	 push	 DWORD PTR __Dest$[ebp]
  00022	ff 75 14	 push	 DWORD PTR __Al$[ebp]
  00025	e8 00 00 00 00	 call	 ??$_Cons_val@V?$allocator@UWeaponInfo@@@std@@UWeaponInfo@@AAU3@@std@@YAXAAV?$allocator@UWeaponInfo@@@0@PAUWeaponInfo@@AAU2@@Z ; std::_Cons_val<std::allocator<WeaponInfo>,WeaponInfo,WeaponInfo &>
  0002a	83 45 10 28	 add	 DWORD PTR __Dest$[ebp], 40 ; 00000028H
  0002e	83 c4 0c	 add	 esp, 12			; 0000000cH
  00031	83 c6 28	 add	 esi, 40			; 00000028H
  00034	eb e3		 jmp	 SHORT $LL6@Uninit_cop@3
__catch$??$_Uninit_copy@PAUWeaponInfo@@PAU1@V?$allocator@UWeaponInfo@@@std@@@std@@YAPAUWeaponInfo@@PAU1@00AAV?$allocator@UWeaponInfo@@@0@U_Nonscalar_ptr_iterator_tag@0@@Z$0:

; 377  : 	_CATCH_ALL
; 378  : 	for (; _Next != _Dest; ++_Next)

  00036	8b 75 ec	 mov	 esi, DWORD PTR __Next$[ebp]
  00039	eb 0c		 jmp	 SHORT $LN32@Uninit_cop@3
$LL3@Uninit_cop@3:

; 379  : 		_Dest_val(_Al, _Next);

  0003b	8d 4e 08	 lea	 ecx, DWORD PTR [esi+8]
  0003e	ff 15 00 00 00
	00		 call	 DWORD PTR __imp_??1ioHashString@@QAE@XZ
  00044	83 c6 28	 add	 esi, 40			; 00000028H
$LN32@Uninit_cop@3:

; 377  : 	_CATCH_ALL
; 378  : 	for (; _Next != _Dest; ++_Next)

  00047	3b 75 10	 cmp	 esi, DWORD PTR __Dest$[ebp]
  0004a	75 ef		 jne	 SHORT $LL3@Uninit_cop@3

; 380  : 	_RERAISE;

  0004c	6a 00		 push	 0
  0004e	6a 00		 push	 0
  00050	e8 00 00 00 00	 call	 __CxxThrowException@8
$LN33@Uninit_cop@3:
$LN4@Uninit_cop@3:

; 381  : 	_CATCH_END
; 382  : 	return (_Dest);

  00055	8b 45 10	 mov	 eax, DWORD PTR __Dest$[ebp]

; 383  : 	}

  00058	e8 00 00 00 00	 call	 __EH_epilog3
  0005d	c3		 ret	 0
$LN31@Uninit_cop@3:
_TEXT	ENDS
;	COMDAT text$x
text$x	SEGMENT
__ehhandler$??$_Uninit_copy@PAUWeaponInfo@@PAU1@V?$allocator@UWeaponInfo@@@std@@@std@@YAPAUWeaponInfo@@PAU1@00AAV?$allocator@UWeaponInfo@@@0@U_Nonscalar_ptr_iterator_tag@0@@Z:
  00000	8b 54 24 08	 mov	 edx, DWORD PTR [esp+8]
  00004	8d 42 0c	 lea	 eax, DWORD PTR [edx+12]
  00007	8b 4a e8	 mov	 ecx, DWORD PTR [edx-24]
  0000a	33 c8		 xor	 ecx, eax
  0000c	e8 00 00 00 00	 call	 @__security_check_cookie@4
  00011	b8 00 00 00 00	 mov	 eax, OFFSET __ehfuncinfo$??$_Uninit_copy@PAUWeaponInfo@@PAU1@V?$allocator@UWeaponInfo@@@std@@@std@@YAPAUWeaponInfo@@PAU1@00AAV?$allocator@UWeaponInfo@@@0@U_Nonscalar_ptr_iterator_tag@0@@Z
  00016	e9 00 00 00 00	 jmp	 ___CxxFrameHandler3
text$x	ENDS
??$_Uninit_copy@PAUWeaponInfo@@PAU1@V?$allocator@UWeaponInfo@@@std@@@std@@YAPAUWeaponInfo@@PAU1@00AAV?$allocator@UWeaponInfo@@@0@U_Nonscalar_ptr_iterator_tag@0@@Z ENDP ; std::_Uninit_copy<WeaponInfo *,WeaponInfo *,std::allocator<WeaponInfo> >
PUBLIC	?CheckNormalAttack@ioConsecutionItem@@UAEXPAVioBaseChar@@@Z ; ioConsecutionItem::CheckNormalAttack
EXTRN	?CheckNormalAttack@ioAttackableItem@@UAEXPAVioBaseChar@@@Z:PROC ; ioAttackableItem::CheckNormalAttack
EXTRN	?CheckExtendAttackEndJump@ioBaseChar@@QAE_NXZ:PROC ; ioBaseChar::CheckExtendAttackEndJump
EXTRN	?CheckExtraAniJump@ioBaseChar@@QAEXXZ:PROC	; ioBaseChar::CheckExtraAniJump
; Function compile flags: /Ogsp
; File d:\lost saga for developer\youtube\tutorial\source\src\lsclient\ioconsecutionitem.cpp
;	COMDAT ?CheckNormalAttack@ioConsecutionItem@@UAEXPAVioBaseChar@@@Z
_TEXT	SEGMENT
_pOwner$ = 8						; size = 4
?CheckNormalAttack@ioConsecutionItem@@UAEXPAVioBaseChar@@@Z PROC ; ioConsecutionItem::CheckNormalAttack, COMDAT
; _this$ = ecx

; 139  : {

  00000	55		 push	 ebp
  00001	8b ec		 mov	 ebp, esp
  00003	56		 push	 esi
  00004	8b f1		 mov	 esi, ecx

; 140  : 	switch( m_ChargeState )

  00006	8b 86 c4 19 00
	00		 mov	 eax, DWORD PTR [esi+6596]
  0000c	48		 dec	 eax
  0000d	57		 push	 edi
  0000e	74 71		 je	 SHORT $LN10@CheckNorma
  00010	48		 dec	 eax
  00011	74 5b		 je	 SHORT $LN3@CheckNorma
  00013	48		 dec	 eax
  00014	75 73		 jne	 SHORT $LN11@CheckNorma

; 144  : 		break;
; 145  : 	case CS_ATTACK_FIRE:
; 146  : 		if( m_bCharged )

  00016	8b 7d 08	 mov	 edi, DWORD PTR _pOwner$[ebp]
  00019	38 86 d0 19 00
	00		 cmp	 BYTE PTR [esi+6608], al
  0001f	74 07		 je	 SHORT $LN8@CheckNorma

; 147  : 			pOwner->CheckExtraAniJump();

  00021	8b cf		 mov	 ecx, edi
  00023	e8 00 00 00 00	 call	 ?CheckExtraAniJump@ioBaseChar@@QAEXXZ ; ioBaseChar::CheckExtraAniJump
$LN8@CheckNorma:

; 148  : 
; 149  : 		if( pOwner->IsNeedProcess() )

  00028	8b 07		 mov	 eax, DWORD PTR [edi]
  0002a	8b cf		 mov	 ecx, edi
  0002c	ff 90 00 01 00
	00		 call	 DWORD PTR [eax+256]
  00032	84 c0		 test	 al, al
  00034	74 2e		 je	 SHORT $LN4@CheckNorma

; 150  : 		{
; 151  : 			if( m_bCharged )

  00036	80 be d0 19 00
	00 00		 cmp	 BYTE PTR [esi+6608], 0
  0003d	74 0b		 je	 SHORT $LN5@CheckNorma

; 152  : 			{
; 153  : 				if( pOwner->CheckExtendAttackEndJump() )

  0003f	8b cf		 mov	 ecx, edi
  00041	e8 00 00 00 00	 call	 ?CheckExtendAttackEndJump@ioBaseChar@@QAE_NXZ ; ioBaseChar::CheckExtendAttackEndJump
  00046	84 c0		 test	 al, al
  00048	75 3f		 jne	 SHORT $LN11@CheckNorma
$LN5@CheckNorma:

; 154  : 					return;
; 155  : 			}
; 156  : 
; 157  : 			CheckCancelReserve( pOwner );

  0004a	8b 06		 mov	 eax, DWORD PTR [esi]
  0004c	57		 push	 edi
  0004d	8b ce		 mov	 ecx, esi
  0004f	ff 90 40 02 00
	00		 call	 DWORD PTR [eax+576]

; 158  : 
; 159  : 			if( ProcessCancel(pOwner) )

  00055	8b 06		 mov	 eax, DWORD PTR [esi]
  00057	57		 push	 edi
  00058	8b ce		 mov	 ecx, esi
  0005a	ff 90 48 02 00
	00		 call	 DWORD PTR [eax+584]
  00060	84 c0		 test	 al, al
  00062	75 25		 jne	 SHORT $LN11@CheckNorma
$LN4@CheckNorma:

; 160  : 				return;
; 161  : 		}
; 162  : 
; 163  : 		ioWeaponItem::CheckNormalAttack( pOwner );

  00064	57		 push	 edi
  00065	8b ce		 mov	 ecx, esi
  00067	e8 00 00 00 00	 call	 ?CheckNormalAttack@ioAttackableItem@@UAEXPAVioBaseChar@@@Z ; ioAttackableItem::CheckNormalAttack

; 164  : 		break;

  0006c	eb 1b		 jmp	 SHORT $LN11@CheckNorma
$LN3@CheckNorma:

; 165  : 	case CS_NORMAL_ATTACK:
; 166  : 		if( pOwner->IsNeedProcess() )

  0006e	8b 7d 08	 mov	 edi, DWORD PTR _pOwner$[ebp]
  00071	8b 07		 mov	 eax, DWORD PTR [edi]
  00073	8b cf		 mov	 ecx, edi
  00075	ff 90 00 01 00
	00		 call	 DWORD PTR [eax+256]
  0007b	84 c0		 test	 al, al
  0007d	74 e5		 je	 SHORT $LN4@CheckNorma

; 167  : 		{
; 168  : 			CheckCancelReserve( pOwner );
; 169  : 
; 170  : 			if( ProcessCancel(pOwner) )
; 171  : 				return;
; 172  : 		}
; 173  : 
; 174  : 		ioWeaponItem::CheckNormalAttack( pOwner );
; 175  : 		break;

  0007f	eb c9		 jmp	 SHORT $LN5@CheckNorma
$LN10@CheckNorma:

; 141  : 	{
; 142  : 	case CS_CHARGING:
; 143  : 		OnCharging( pOwner );

  00081	ff 75 08	 push	 DWORD PTR _pOwner$[ebp]
  00084	e8 00 00 00 00	 call	 ?OnCharging@ioConsecutionItem@@IAEXPAVioBaseChar@@@Z ; ioConsecutionItem::OnCharging
$LN11@CheckNorma:
  00089	5f		 pop	 edi
  0008a	5e		 pop	 esi

; 176  : 	}
; 177  : }

  0008b	5d		 pop	 ebp
  0008c	c2 04 00	 ret	 4
?CheckNormalAttack@ioConsecutionItem@@UAEXPAVioBaseChar@@@Z ENDP ; ioConsecutionItem::CheckNormalAttack
_TEXT	ENDS
PUBLIC	?_Tidy@?$list@MV?$allocator@M@std@@@std@@QAEXXZ	; std::list<float,std::allocator<float> >::_Tidy
; Function compile flags: /Ogsp
; File c:\program files (x86)\microsoft visual studio 10.0\vc\include\list
;	COMDAT ?_Tidy@?$list@MV?$allocator@M@std@@@std@@QAEXXZ
_TEXT	SEGMENT
?_Tidy@?$list@MV?$allocator@M@std@@@std@@QAEXXZ PROC	; std::list<float,std::allocator<float> >::_Tidy, COMDAT
; _this$ = ecx

; 1497 : 		clear();

  00000	e9 00 00 00 00	 jmp	 ?clear@?$list@MV?$allocator@M@std@@@std@@QAEXXZ ; std::list<float,std::allocator<float> >::clear
?_Tidy@?$list@MV?$allocator@M@std@@@std@@QAEXXZ ENDP	; std::list<float,std::allocator<float> >::_Tidy
_TEXT	ENDS
PUBLIC	??$_Uninitialized_copy@V?$_Vector_const_iterator@V?$_Vector_val@UForceInfo@@V?$allocator@UForceInfo@@@std@@@std@@@std@@PAUForceInfo@@V?$allocator@UForceInfo@@@2@@std@@YAPAUForceInfo@@V?$_Vector_const_iterator@V?$_Vector_val@UForceInfo@@V?$allocator@UForceInfo@@@std@@@std@@@0@0PAU1@AAV?$allocator@UForceInfo@@@0@@Z ; std::_Uninitialized_copy<std::_Vector_const_iterator<std::_Vector_val<ForceInfo,std::allocator<ForceInfo> > >,ForceInfo *,std::allocator<ForceInfo> >
; Function compile flags: /Ogsp
; File c:\program files (x86)\microsoft visual studio 10.0\vc\include\memory
;	COMDAT ??$_Uninitialized_copy@V?$_Vector_const_iterator@V?$_Vector_val@UForceInfo@@V?$allocator@UForceInfo@@@std@@@std@@@std@@PAUForceInfo@@V?$allocator@UForceInfo@@@2@@std@@YAPAUForceInfo@@V?$_Vector_const_iterator@V?$_Vector_val@UForceInfo@@V?$allocator@UForceInfo@@@std@@@std@@@0@0PAU1@AAV?$allocator@UForceInfo@@@0@@Z
_TEXT	SEGMENT
__Cat$608903 = -4					; size = 1
__First$ = 8						; size = 4
__Last$ = 12						; size = 4
__Dest$ = 16						; size = 4
__Al$ = 20						; size = 4
??$_Uninitialized_copy@V?$_Vector_const_iterator@V?$_Vector_val@UForceInfo@@V?$allocator@UForceInfo@@@std@@@std@@@std@@PAUForceInfo@@V?$allocator@UForceInfo@@@2@@std@@YAPAUForceInfo@@V?$_Vector_const_iterator@V?$_Vector_val@UForceInfo@@V?$allocator@UForceInfo@@@std@@@std@@@0@0PAU1@AAV?$allocator@UForceInfo@@@0@@Z PROC ; std::_Uninitialized_copy<std::_Vector_const_iterator<std::_Vector_val<ForceInfo,std::allocator<ForceInfo> > >,ForceInfo *,std::allocator<ForceInfo> >, COMDAT

; 412  : 	{	// copy [_First, _Last) to raw _Dest, using _Al

  00000	55		 push	 ebp
  00001	8b ec		 mov	 ebp, esp
  00003	51		 push	 ecx

; 413  : 	return (_Uninit_copy(_First, _Last, _Dest, _Al,
; 414  : 		_Ptr_cat(_First, _Dest)));

  00004	ff 75 fc	 push	 DWORD PTR __Cat$608903[ebp]
  00007	ff 75 14	 push	 DWORD PTR __Al$[ebp]
  0000a	ff 75 10	 push	 DWORD PTR __Dest$[ebp]
  0000d	ff 75 0c	 push	 DWORD PTR __Last$[ebp]
  00010	ff 75 08	 push	 DWORD PTR __First$[ebp]
  00013	e8 00 00 00 00	 call	 ??$_Uninit_copy@V?$_Vector_const_iterator@V?$_Vector_val@UForceInfo@@V?$allocator@UForceInfo@@@std@@@std@@@std@@PAUForceInfo@@V?$allocator@UForceInfo@@@2@@std@@YAPAUForceInfo@@V?$_Vector_const_iterator@V?$_Vector_val@UForceInfo@@V?$allocator@UForceInfo@@@std@@@std@@@0@0PAU1@AAV?$allocator@UForceInfo@@@0@U_Nonscalar_ptr_iterator_tag@0@@Z ; std::_Uninit_copy<std::_Vector_const_iterator<std::_Vector_val<ForceInfo,std::allocator<ForceInfo> > >,ForceInfo *,std::allocator<ForceInfo> >
  00018	83 c4 14	 add	 esp, 20			; 00000014H

; 415  : 	}

  0001b	c9		 leave
  0001c	c3		 ret	 0
??$_Uninitialized_copy@V?$_Vector_const_iterator@V?$_Vector_val@UForceInfo@@V?$allocator@UForceInfo@@@std@@@std@@@std@@PAUForceInfo@@V?$allocator@UForceInfo@@@2@@std@@YAPAUForceInfo@@V?$_Vector_const_iterator@V?$_Vector_val@UForceInfo@@V?$allocator@UForceInfo@@@std@@@std@@@0@0PAU1@AAV?$allocator@UForceInfo@@@0@@Z ENDP ; std::_Uninitialized_copy<std::_Vector_const_iterator<std::_Vector_val<ForceInfo,std::allocator<ForceInfo> > >,ForceInfo *,std::allocator<ForceInfo> >
_TEXT	ENDS
PUBLIC	??$_Uninit_copy@V?$_Vector_const_iterator@V?$_Vector_val@UWeaponInfo@@V?$allocator@UWeaponInfo@@@std@@@std@@@std@@PAUWeaponInfo@@V?$allocator@UWeaponInfo@@@2@@std@@YAPAUWeaponInfo@@V?$_Vector_const_iterator@V?$_Vector_val@UWeaponInfo@@V?$allocator@UWeaponInfo@@@std@@@std@@@0@0PAU1@AAV?$allocator@UWeaponInfo@@@0@U_Nonscalar_ptr_iterator_tag@0@@Z ; std::_Uninit_copy<std::_Vector_const_iterator<std::_Vector_val<WeaponInfo,std::allocator<WeaponInfo> > >,WeaponInfo *,std::allocator<WeaponInfo> >
;	COMDAT xdata$x
; File d:\lost saga for developer\youtube\tutorial\source\src\lsclient\playentityhelpstruct.h
xdata$x	SEGMENT
__catchsym$??$_Uninit_copy@V?$_Vector_const_iterator@V?$_Vector_val@UWeaponInfo@@V?$allocator@UWeaponInfo@@@std@@@std@@@std@@PAUWeaponInfo@@V?$allocator@UWeaponInfo@@@2@@std@@YAPAUWeaponInfo@@V?$_Vector_const_iterator@V?$_Vector_val@UWeaponInfo@@V?$allocator@UWeaponInfo@@@std@@@std@@@0@0PAU1@AAV?$allocator@UWeaponInfo@@@0@U_Nonscalar_ptr_iterator_tag@0@@Z$3 DD 040H
	DD	00H
	DD	00H
	DD	FLAT:__catch$??$_Uninit_copy@V?$_Vector_const_iterator@V?$_Vector_val@UWeaponInfo@@V?$allocator@UWeaponInfo@@@std@@@std@@@std@@PAUWeaponInfo@@V?$allocator@UWeaponInfo@@@2@@std@@YAPAUWeaponInfo@@V?$_Vector_const_iterator@V?$_Vector_val@UWeaponInfo@@V?$allocator@UWeaponInfo@@@std@@@std@@@0@0PAU1@AAV?$allocator@UWeaponInfo@@@0@U_Nonscalar_ptr_iterator_tag@0@@Z$0
__unwindtable$??$_Uninit_copy@V?$_Vector_const_iterator@V?$_Vector_val@UWeaponInfo@@V?$allocator@UWeaponInfo@@@std@@@std@@@std@@PAUWeaponInfo@@V?$allocator@UWeaponInfo@@@2@@std@@YAPAUWeaponInfo@@V?$_Vector_const_iterator@V?$_Vector_val@UWeaponInfo@@V?$allocator@UWeaponInfo@@@std@@@std@@@0@0PAU1@AAV?$allocator@UWeaponInfo@@@0@U_Nonscalar_ptr_iterator_tag@0@@Z DD 0ffffffffH
	DD	00H
	DD	0ffffffffH
	DD	00H
__tryblocktable$??$_Uninit_copy@V?$_Vector_const_iterator@V?$_Vector_val@UWeaponInfo@@V?$allocator@UWeaponInfo@@@std@@@std@@@std@@PAUWeaponInfo@@V?$allocator@UWeaponInfo@@@2@@std@@YAPAUWeaponInfo@@V?$_Vector_const_iterator@V?$_Vector_val@UWeaponInfo@@V?$allocator@UWeaponInfo@@@std@@@std@@@0@0PAU1@AAV?$allocator@UWeaponInfo@@@0@U_Nonscalar_ptr_iterator_tag@0@@Z DD 00H
	DD	00H
	DD	01H
	DD	01H
	DD	FLAT:__catchsym$??$_Uninit_copy@V?$_Vector_const_iterator@V?$_Vector_val@UWeaponInfo@@V?$allocator@UWeaponInfo@@@std@@@std@@@std@@PAUWeaponInfo@@V?$allocator@UWeaponInfo@@@2@@std@@YAPAUWeaponInfo@@V?$_Vector_const_iterator@V?$_Vector_val@UWeaponInfo@@V?$allocator@UWeaponInfo@@@std@@@std@@@0@0PAU1@AAV?$allocator@UWeaponInfo@@@0@U_Nonscalar_ptr_iterator_tag@0@@Z$3
__ehfuncinfo$??$_Uninit_copy@V?$_Vector_const_iterator@V?$_Vector_val@UWeaponInfo@@V?$allocator@UWeaponInfo@@@std@@@std@@@std@@PAUWeaponInfo@@V?$allocator@UWeaponInfo@@@2@@std@@YAPAUWeaponInfo@@V?$_Vector_const_iterator@V?$_Vector_val@UWeaponInfo@@V?$allocator@UWeaponInfo@@@std@@@std@@@0@0PAU1@AAV?$allocator@UWeaponInfo@@@0@U_Nonscalar_ptr_iterator_tag@0@@Z DD 019930522H
	DD	02H
	DD	FLAT:__unwindtable$??$_Uninit_copy@V?$_Vector_const_iterator@V?$_Vector_val@UWeaponInfo@@V?$allocator@UWeaponInfo@@@std@@@std@@@std@@PAUWeaponInfo@@V?$allocator@UWeaponInfo@@@2@@std@@YAPAUWeaponInfo@@V?$_Vector_const_iterator@V?$_Vector_val@UWeaponInfo@@V?$allocator@UWeaponInfo@@@std@@@std@@@0@0PAU1@AAV?$allocator@UWeaponInfo@@@0@U_Nonscalar_ptr_iterator_tag@0@@Z
	DD	01H
	DD	FLAT:__tryblocktable$??$_Uninit_copy@V?$_Vector_const_iterator@V?$_Vector_val@UWeaponInfo@@V?$allocator@UWeaponInfo@@@std@@@std@@@std@@PAUWeaponInfo@@V?$allocator@UWeaponInfo@@@2@@std@@YAPAUWeaponInfo@@V?$_Vector_const_iterator@V?$_Vector_val@UWeaponInfo@@V?$allocator@UWeaponInfo@@@std@@@std@@@0@0PAU1@AAV?$allocator@UWeaponInfo@@@0@U_Nonscalar_ptr_iterator_tag@0@@Z
	DD	2 DUP(00H)
	DD	00H
	DD	01H
; Function compile flags: /Ogsp
; File c:\program files (x86)\microsoft visual studio 10.0\vc\include\memory
xdata$x	ENDS
;	COMDAT ??$_Uninit_copy@V?$_Vector_const_iterator@V?$_Vector_val@UWeaponInfo@@V?$allocator@UWeaponInfo@@@std@@@std@@@std@@PAUWeaponInfo@@V?$allocator@UWeaponInfo@@@2@@std@@YAPAUWeaponInfo@@V?$_Vector_const_iterator@V?$_Vector_val@UWeaponInfo@@V?$allocator@UWeaponInfo@@@std@@@std@@@0@0PAU1@AAV?$allocator@UWeaponInfo@@@0@U_Nonscalar_ptr_iterator_tag@0@@Z
_TEXT	SEGMENT
__Next$ = -20						; size = 4
__$EHRec$ = -16						; size = 16
__First$ = 8						; size = 4
__Last$ = 12						; size = 4
__Dest$ = 16						; size = 4
__Al$ = 20						; size = 4
___formal$ = 24						; size = 1
??$_Uninit_copy@V?$_Vector_const_iterator@V?$_Vector_val@UWeaponInfo@@V?$allocator@UWeaponInfo@@@std@@@std@@@std@@PAUWeaponInfo@@V?$allocator@UWeaponInfo@@@2@@std@@YAPAUWeaponInfo@@V?$_Vector_const_iterator@V?$_Vector_val@UWeaponInfo@@V?$allocator@UWeaponInfo@@@std@@@std@@@0@0PAU1@AAV?$allocator@UWeaponInfo@@@0@U_Nonscalar_ptr_iterator_tag@0@@Z PROC ; std::_Uninit_copy<std::_Vector_const_iterator<std::_Vector_val<WeaponInfo,std::allocator<WeaponInfo> > >,WeaponInfo *,std::allocator<WeaponInfo> >, COMDAT

; 369  : 	{	// copy [_First, _Last) to raw _Dest, using _Al, arbitrary type

  00000	6a 08		 push	 8
  00002	b8 00 00 00 00	 mov	 eax, __ehhandler$??$_Uninit_copy@V?$_Vector_const_iterator@V?$_Vector_val@UWeaponInfo@@V?$allocator@UWeaponInfo@@@std@@@std@@@std@@PAUWeaponInfo@@V?$allocator@UWeaponInfo@@@2@@std@@YAPAUWeaponInfo@@V?$_Vector_const_iterator@V?$_Vector_val@UWeaponInfo@@V?$allocator@UWeaponInfo@@@std@@@std@@@0@0PAU1@AAV?$allocator@UWeaponInfo@@@0@U_Nonscalar_ptr_iterator_tag@0@@Z
  00007	e8 00 00 00 00	 call	 __EH_prolog3_catch

; 370  : 	_DEBUG_RANGE(_First, _Last);
; 371  : 	_DEBUG_POINTER(_Dest);
; 372  : 	_FwdIt _Next = _Dest;

  0000c	8b 45 10	 mov	 eax, DWORD PTR __Dest$[ebp]

; 373  : 
; 374  : 	_TRY_BEGIN

  0000f	83 65 fc 00	 and	 DWORD PTR __$EHRec$[ebp+12], 0
  00013	89 45 ec	 mov	 DWORD PTR __Next$[ebp], eax

; 375  : 	for (; _First != _Last; ++_Dest, ++_First)

$LL14@Uninit_cop@4:
  00016	8b 45 08	 mov	 eax, DWORD PTR __First$[ebp]
  00019	3b 45 0c	 cmp	 eax, DWORD PTR __Last$[ebp]
  0001c	74 34		 je	 SHORT $LN4@Uninit_cop@4

; 376  : 		_Cons_val(_Al, _Dest, *_First);

  0001e	50		 push	 eax
  0001f	ff 75 10	 push	 DWORD PTR __Dest$[ebp]
  00022	e8 00 00 00 00	 call	 ??$_Construct@UWeaponInfo@@ABU1@@std@@YAXPAUWeaponInfo@@ABU1@@Z ; std::_Construct<WeaponInfo,WeaponInfo const &>
  00027	83 45 10 28	 add	 DWORD PTR __Dest$[ebp], 40 ; 00000028H
  0002b	83 45 08 28	 add	 DWORD PTR __First$[ebp], 40 ; 00000028H
  0002f	59		 pop	 ecx
  00030	59		 pop	 ecx
  00031	eb e3		 jmp	 SHORT $LL14@Uninit_cop@4
__catch$??$_Uninit_copy@V?$_Vector_const_iterator@V?$_Vector_val@UWeaponInfo@@V?$allocator@UWeaponInfo@@@std@@@std@@@std@@PAUWeaponInfo@@V?$allocator@UWeaponInfo@@@2@@std@@YAPAUWeaponInfo@@V?$_Vector_const_iterator@V?$_Vector_val@UWeaponInfo@@V?$allocator@UWeaponInfo@@@std@@@std@@@0@0PAU1@AAV?$allocator@UWeaponInfo@@@0@U_Nonscalar_ptr_iterator_tag@0@@Z$0:

; 377  : 	_CATCH_ALL
; 378  : 	for (; _Next != _Dest; ++_Next)

  00033	8b 75 ec	 mov	 esi, DWORD PTR __Next$[ebp]
  00036	eb 0c		 jmp	 SHORT $LN48@Uninit_cop@4
$LL3@Uninit_cop@4:

; 379  : 		_Dest_val(_Al, _Next);

  00038	8d 4e 08	 lea	 ecx, DWORD PTR [esi+8]
  0003b	ff 15 00 00 00
	00		 call	 DWORD PTR __imp_??1ioHashString@@QAE@XZ
  00041	83 c6 28	 add	 esi, 40			; 00000028H
$LN48@Uninit_cop@4:

; 377  : 	_CATCH_ALL
; 378  : 	for (; _Next != _Dest; ++_Next)

  00044	3b 75 10	 cmp	 esi, DWORD PTR __Dest$[ebp]
  00047	75 ef		 jne	 SHORT $LL3@Uninit_cop@4

; 380  : 	_RERAISE;

  00049	6a 00		 push	 0
  0004b	6a 00		 push	 0
  0004d	e8 00 00 00 00	 call	 __CxxThrowException@8
$LN49@Uninit_cop@4:
$LN4@Uninit_cop@4:

; 381  : 	_CATCH_END
; 382  : 	return (_Dest);

  00052	8b 45 10	 mov	 eax, DWORD PTR __Dest$[ebp]

; 383  : 	}

  00055	e8 00 00 00 00	 call	 __EH_epilog3
  0005a	c3		 ret	 0
$LN47@Uninit_cop@4:
_TEXT	ENDS
;	COMDAT text$x
text$x	SEGMENT
__ehhandler$??$_Uninit_copy@V?$_Vector_const_iterator@V?$_Vector_val@UWeaponInfo@@V?$allocator@UWeaponInfo@@@std@@@std@@@std@@PAUWeaponInfo@@V?$allocator@UWeaponInfo@@@2@@std@@YAPAUWeaponInfo@@V?$_Vector_const_iterator@V?$_Vector_val@UWeaponInfo@@V?$allocator@UWeaponInfo@@@std@@@std@@@0@0PAU1@AAV?$allocator@UWeaponInfo@@@0@U_Nonscalar_ptr_iterator_tag@0@@Z:
  00000	8b 54 24 08	 mov	 edx, DWORD PTR [esp+8]
  00004	8d 42 0c	 lea	 eax, DWORD PTR [edx+12]
  00007	8b 4a e8	 mov	 ecx, DWORD PTR [edx-24]
  0000a	33 c8		 xor	 ecx, eax
  0000c	e8 00 00 00 00	 call	 @__security_check_cookie@4
  00011	b8 00 00 00 00	 mov	 eax, OFFSET __ehfuncinfo$??$_Uninit_copy@V?$_Vector_const_iterator@V?$_Vector_val@UWeaponInfo@@V?$allocator@UWeaponInfo@@@std@@@std@@@std@@PAUWeaponInfo@@V?$allocator@UWeaponInfo@@@2@@std@@YAPAUWeaponInfo@@V?$_Vector_const_iterator@V?$_Vector_val@UWeaponInfo@@V?$allocator@UWeaponInfo@@@std@@@std@@@0@0PAU1@AAV?$allocator@UWeaponInfo@@@0@U_Nonscalar_ptr_iterator_tag@0@@Z
  00016	e9 00 00 00 00	 jmp	 ___CxxFrameHandler3
text$x	ENDS
??$_Uninit_copy@V?$_Vector_const_iterator@V?$_Vector_val@UWeaponInfo@@V?$allocator@UWeaponInfo@@@std@@@std@@@std@@PAUWeaponInfo@@V?$allocator@UWeaponInfo@@@2@@std@@YAPAUWeaponInfo@@V?$_Vector_const_iterator@V?$_Vector_val@UWeaponInfo@@V?$allocator@UWeaponInfo@@@std@@@std@@@0@0PAU1@AAV?$allocator@UWeaponInfo@@@0@U_Nonscalar_ptr_iterator_tag@0@@Z ENDP ; std::_Uninit_copy<std::_Vector_const_iterator<std::_Vector_val<WeaponInfo,std::allocator<WeaponInfo> > >,WeaponInfo *,std::allocator<WeaponInfo> >
PUBLIC	??$_Uninit_move@PAVioHashString@@PAV1@V?$allocator@VioHashString@@@std@@V1@@std@@YAPAVioHashString@@PAV1@00AAV?$allocator@VioHashString@@@0@0U_Nonscalar_ptr_iterator_tag@0@@Z ; std::_Uninit_move<ioHashString *,ioHashString *,std::allocator<ioHashString>,ioHashString>
;	COMDAT xdata$x
; File c:\program files (x86)\microsoft visual studio 10.0\vc\include\vector
xdata$x	SEGMENT
__catchsym$??$_Uninit_move@PAVioHashString@@PAV1@V?$allocator@VioHashString@@@std@@V1@@std@@YAPAVioHashString@@PAV1@00AAV?$allocator@VioHashString@@@0@0U_Nonscalar_ptr_iterator_tag@0@@Z$2 DD 040H
	DD	00H
	DD	00H
	DD	FLAT:__catch$??$_Uninit_move@PAVioHashString@@PAV1@V?$allocator@VioHashString@@@std@@V1@@std@@YAPAVioHashString@@PAV1@00AAV?$allocator@VioHashString@@@0@0U_Nonscalar_ptr_iterator_tag@0@@Z$0
__unwindtable$??$_Uninit_move@PAVioHashString@@PAV1@V?$allocator@VioHashString@@@std@@V1@@std@@YAPAVioHashString@@PAV1@00AAV?$allocator@VioHashString@@@0@0U_Nonscalar_ptr_iterator_tag@0@@Z DD 0ffffffffH
	DD	00H
	DD	0ffffffffH
	DD	00H
__tryblocktable$??$_Uninit_move@PAVioHashString@@PAV1@V?$allocator@VioHashString@@@std@@V1@@std@@YAPAVioHashString@@PAV1@00AAV?$allocator@VioHashString@@@0@0U_Nonscalar_ptr_iterator_tag@0@@Z DD 00H
	DD	00H
	DD	01H
	DD	01H
	DD	FLAT:__catchsym$??$_Uninit_move@PAVioHashString@@PAV1@V?$allocator@VioHashString@@@std@@V1@@std@@YAPAVioHashString@@PAV1@00AAV?$allocator@VioHashString@@@0@0U_Nonscalar_ptr_iterator_tag@0@@Z$2
__ehfuncinfo$??$_Uninit_move@PAVioHashString@@PAV1@V?$allocator@VioHashString@@@std@@V1@@std@@YAPAVioHashString@@PAV1@00AAV?$allocator@VioHashString@@@0@0U_Nonscalar_ptr_iterator_tag@0@@Z DD 019930522H
	DD	02H
	DD	FLAT:__unwindtable$??$_Uninit_move@PAVioHashString@@PAV1@V?$allocator@VioHashString@@@std@@V1@@std@@YAPAVioHashString@@PAV1@00AAV?$allocator@VioHashString@@@0@0U_Nonscalar_ptr_iterator_tag@0@@Z
	DD	01H
	DD	FLAT:__tryblocktable$??$_Uninit_move@PAVioHashString@@PAV1@V?$allocator@VioHashString@@@std@@V1@@std@@YAPAVioHashString@@PAV1@00AAV?$allocator@VioHashString@@@0@0U_Nonscalar_ptr_iterator_tag@0@@Z
	DD	2 DUP(00H)
	DD	00H
	DD	01H
; Function compile flags: /Ogsp
; File c:\program files (x86)\microsoft visual studio 10.0\vc\include\memory
xdata$x	ENDS
;	COMDAT ??$_Uninit_move@PAVioHashString@@PAV1@V?$allocator@VioHashString@@@std@@V1@@std@@YAPAVioHashString@@PAV1@00AAV?$allocator@VioHashString@@@0@0U_Nonscalar_ptr_iterator_tag@0@@Z
_TEXT	SEGMENT
__Next$ = -20						; size = 4
__$EHRec$ = -16						; size = 16
__First$ = 8						; size = 4
__Last$ = 12						; size = 4
__Dest$ = 16						; size = 4
__Al$ = 20						; size = 4
___formal$ = 24						; size = 4
___formal$ = 28						; size = 1
??$_Uninit_move@PAVioHashString@@PAV1@V?$allocator@VioHashString@@@std@@V1@@std@@YAPAVioHashString@@PAV1@00AAV?$allocator@VioHashString@@@0@0U_Nonscalar_ptr_iterator_tag@0@@Z PROC ; std::_Uninit_move<ioHashString *,ioHashString *,std::allocator<ioHashString>,ioHashString>, COMDAT

; 424  : 	{	// move [_First, _Last) to raw _Dest, using _Al, arbitrary type

  00000	6a 08		 push	 8
  00002	b8 00 00 00 00	 mov	 eax, __ehhandler$??$_Uninit_move@PAVioHashString@@PAV1@V?$allocator@VioHashString@@@std@@V1@@std@@YAPAVioHashString@@PAV1@00AAV?$allocator@VioHashString@@@0@0U_Nonscalar_ptr_iterator_tag@0@@Z
  00007	e8 00 00 00 00	 call	 __EH_prolog3_catch

; 425  : 	_DEBUG_RANGE(_First, _Last);
; 426  : 	_DEBUG_POINTER(_Dest);
; 427  : 	_FwdIt _Next = _Dest;

  0000c	8b 45 10	 mov	 eax, DWORD PTR __Dest$[ebp]

; 428  : 
; 429  : 	_TRY_BEGIN

  0000f	83 65 fc 00	 and	 DWORD PTR __$EHRec$[ebp+12], 0
  00013	8b 75 08	 mov	 esi, DWORD PTR __First$[ebp]
  00016	89 45 ec	 mov	 DWORD PTR __Next$[ebp], eax
$LL6@Uninit_mov:

; 430  : 	for (; _First != _Last; ++_Dest, ++_First)

  00019	3b 75 0c	 cmp	 esi, DWORD PTR __Last$[ebp]
  0001c	74 33		 je	 SHORT $LN4@Uninit_mov

; 431  : 		_Cons_val(_Al, _Dest, (_Valty &&)*_First);

  0001e	8b 4d 14	 mov	 ecx, DWORD PTR __Al$[ebp]
  00021	56		 push	 esi
  00022	ff 75 10	 push	 DWORD PTR __Dest$[ebp]
  00025	e8 00 00 00 00	 call	 ?construct@?$allocator@VioHashString@@@std@@QAEXPAVioHashString@@$$QAV3@@Z ; std::allocator<ioHashString>::construct
  0002a	83 45 10 10	 add	 DWORD PTR __Dest$[ebp], 16 ; 00000010H
  0002e	83 c6 10	 add	 esi, 16			; 00000010H
  00031	eb e6		 jmp	 SHORT $LL6@Uninit_mov
__catch$??$_Uninit_move@PAVioHashString@@PAV1@V?$allocator@VioHashString@@@std@@V1@@std@@YAPAVioHashString@@PAV1@00AAV?$allocator@VioHashString@@@0@0U_Nonscalar_ptr_iterator_tag@0@@Z$0:

; 432  : 	_CATCH_ALL
; 433  : 	for (; _Next != _Dest; ++_Next)

  00033	8b 75 ec	 mov	 esi, DWORD PTR __Next$[ebp]
  00036	eb 0b		 jmp	 SHORT $LN33@Uninit_mov
$LL3@Uninit_mov:

; 434  : 		_Dest_val(_Al, _Next);

  00038	8b ce		 mov	 ecx, esi
  0003a	ff 15 00 00 00
	00		 call	 DWORD PTR __imp_??1ioHashString@@QAE@XZ
  00040	83 c6 10	 add	 esi, 16			; 00000010H
$LN33@Uninit_mov:

; 432  : 	_CATCH_ALL
; 433  : 	for (; _Next != _Dest; ++_Next)

  00043	3b 75 10	 cmp	 esi, DWORD PTR __Dest$[ebp]
  00046	75 f0		 jne	 SHORT $LL3@Uninit_mov

; 435  : 	_RERAISE;

  00048	6a 00		 push	 0
  0004a	6a 00		 push	 0
  0004c	e8 00 00 00 00	 call	 __CxxThrowException@8
$LN34@Uninit_mov:
$LN4@Uninit_mov:

; 436  : 	_CATCH_END
; 437  : 	return (_Dest);

  00051	8b 45 10	 mov	 eax, DWORD PTR __Dest$[ebp]

; 438  : 	}

  00054	e8 00 00 00 00	 call	 __EH_epilog3
  00059	c3		 ret	 0
$LN32@Uninit_mov:
_TEXT	ENDS
;	COMDAT text$x
text$x	SEGMENT
__ehhandler$??$_Uninit_move@PAVioHashString@@PAV1@V?$allocator@VioHashString@@@std@@V1@@std@@YAPAVioHashString@@PAV1@00AAV?$allocator@VioHashString@@@0@0U_Nonscalar_ptr_iterator_tag@0@@Z:
  00000	8b 54 24 08	 mov	 edx, DWORD PTR [esp+8]
  00004	8d 42 0c	 lea	 eax, DWORD PTR [edx+12]
  00007	8b 4a e8	 mov	 ecx, DWORD PTR [edx-24]
  0000a	33 c8		 xor	 ecx, eax
  0000c	e8 00 00 00 00	 call	 @__security_check_cookie@4
  00011	b8 00 00 00 00	 mov	 eax, OFFSET __ehfuncinfo$??$_Uninit_move@PAVioHashString@@PAV1@V?$allocator@VioHashString@@@std@@V1@@std@@YAPAVioHashString@@PAV1@00AAV?$allocator@VioHashString@@@0@0U_Nonscalar_ptr_iterator_tag@0@@Z
  00016	e9 00 00 00 00	 jmp	 ___CxxFrameHandler3
text$x	ENDS
??$_Uninit_move@PAVioHashString@@PAV1@V?$allocator@VioHashString@@@std@@V1@@std@@YAPAVioHashString@@PAV1@00AAV?$allocator@VioHashString@@@0@0U_Nonscalar_ptr_iterator_tag@0@@Z ENDP ; std::_Uninit_move<ioHashString *,ioHashString *,std::allocator<ioHashString>,ioHashString>
PUBLIC	??$_Destroy_range@V?$allocator@UForceInfo@@@std@@@std@@YAXPAUForceInfo@@0AAV?$allocator@UForceInfo@@@0@@Z ; std::_Destroy_range<std::allocator<ForceInfo> >
; Function compile flags: /Ogsp
; File c:\program files (x86)\microsoft visual studio 10.0\vc\include\xmemory
;	COMDAT ??$_Destroy_range@V?$allocator@UForceInfo@@@std@@@std@@YAXPAUForceInfo@@0AAV?$allocator@UForceInfo@@@0@@Z
_TEXT	SEGMENT
__First$ = 8						; size = 4
__Last$ = 12						; size = 4
__Al$ = 16						; size = 4
??$_Destroy_range@V?$allocator@UForceInfo@@@std@@@std@@YAXPAUForceInfo@@0AAV?$allocator@UForceInfo@@@0@@Z PROC ; std::_Destroy_range<std::allocator<ForceInfo> >, COMDAT

; 88   : 	_Destroy_range(_First, _Last, _Al, _Ptr_cat(_First, _Last));
; 89   : 	}

  00000	c3		 ret	 0
??$_Destroy_range@V?$allocator@UForceInfo@@@std@@@std@@YAXPAUForceInfo@@0AAV?$allocator@UForceInfo@@@0@@Z ENDP ; std::_Destroy_range<std::allocator<ForceInfo> >
_TEXT	ENDS
PUBLIC	??$_Destroy_range@V?$allocator@VioHashString@@@std@@@std@@YAXPAVioHashString@@0AAV?$allocator@VioHashString@@@0@U_Nonscalar_ptr_iterator_tag@0@@Z ; std::_Destroy_range<std::allocator<ioHashString> >
; Function compile flags: /Ogsp
;	COMDAT ??$_Destroy_range@V?$allocator@VioHashString@@@std@@@std@@YAXPAVioHashString@@0AAV?$allocator@VioHashString@@@0@U_Nonscalar_ptr_iterator_tag@0@@Z
_TEXT	SEGMENT
__First$ = 8						; size = 4
__Last$ = 12						; size = 4
__Al$ = 16						; size = 4
___formal$ = 20						; size = 1
??$_Destroy_range@V?$allocator@VioHashString@@@std@@@std@@YAXPAVioHashString@@0AAV?$allocator@VioHashString@@@0@U_Nonscalar_ptr_iterator_tag@0@@Z PROC ; std::_Destroy_range<std::allocator<ioHashString> >, COMDAT

; 95   : 	{	// destroy [_First, _Last), arbitrary type

  00000	55		 push	 ebp
  00001	8b ec		 mov	 ebp, esp
  00003	56		 push	 esi

; 96   : 	for (; _First != _Last; ++_First)

  00004	8b 75 08	 mov	 esi, DWORD PTR __First$[ebp]
  00007	eb 0b		 jmp	 SHORT $LN17@Destroy_ra
$LL3@Destroy_ra:

; 97   : 		_Dest_val(_Al, _First);

  00009	8b ce		 mov	 ecx, esi
  0000b	ff 15 00 00 00
	00		 call	 DWORD PTR __imp_??1ioHashString@@QAE@XZ
  00011	83 c6 10	 add	 esi, 16			; 00000010H
$LN17@Destroy_ra:

; 96   : 	for (; _First != _Last; ++_First)

  00014	3b 75 0c	 cmp	 esi, DWORD PTR __Last$[ebp]
  00017	75 f0		 jne	 SHORT $LL3@Destroy_ra
  00019	5e		 pop	 esi

; 98   : 	}

  0001a	5d		 pop	 ebp
  0001b	c3		 ret	 0
??$_Destroy_range@V?$allocator@VioHashString@@@std@@@std@@YAXPAVioHashString@@0AAV?$allocator@VioHashString@@@0@U_Nonscalar_ptr_iterator_tag@0@@Z ENDP ; std::_Destroy_range<std::allocator<ioHashString> >
_TEXT	ENDS
PUBLIC	??$_Destroy_range@V?$allocator@UWeaponInfo@@@std@@@std@@YAXPAUWeaponInfo@@0AAV?$allocator@UWeaponInfo@@@0@U_Nonscalar_ptr_iterator_tag@0@@Z ; std::_Destroy_range<std::allocator<WeaponInfo> >
; Function compile flags: /Ogsp
;	COMDAT ??$_Destroy_range@V?$allocator@UWeaponInfo@@@std@@@std@@YAXPAUWeaponInfo@@0AAV?$allocator@UWeaponInfo@@@0@U_Nonscalar_ptr_iterator_tag@0@@Z
_TEXT	SEGMENT
__First$ = 8						; size = 4
__Last$ = 12						; size = 4
__Al$ = 16						; size = 4
___formal$ = 20						; size = 1
??$_Destroy_range@V?$allocator@UWeaponInfo@@@std@@@std@@YAXPAUWeaponInfo@@0AAV?$allocator@UWeaponInfo@@@0@U_Nonscalar_ptr_iterator_tag@0@@Z PROC ; std::_Destroy_range<std::allocator<WeaponInfo> >, COMDAT

; 95   : 	{	// destroy [_First, _Last), arbitrary type

  00000	55		 push	 ebp
  00001	8b ec		 mov	 ebp, esp
  00003	56		 push	 esi

; 96   : 	for (; _First != _Last; ++_First)

  00004	8b 75 08	 mov	 esi, DWORD PTR __First$[ebp]
  00007	eb 0c		 jmp	 SHORT $LN20@Destroy_ra@2
$LL3@Destroy_ra@2:

; 97   : 		_Dest_val(_Al, _First);

  00009	8d 4e 08	 lea	 ecx, DWORD PTR [esi+8]
  0000c	ff 15 00 00 00
	00		 call	 DWORD PTR __imp_??1ioHashString@@QAE@XZ
  00012	83 c6 28	 add	 esi, 40			; 00000028H
$LN20@Destroy_ra@2:

; 96   : 	for (; _First != _Last; ++_First)

  00015	3b 75 0c	 cmp	 esi, DWORD PTR __Last$[ebp]
  00018	75 ef		 jne	 SHORT $LL3@Destroy_ra@2
  0001a	5e		 pop	 esi

; 98   : 	}

  0001b	5d		 pop	 ebp
  0001c	c3		 ret	 0
??$_Destroy_range@V?$allocator@UWeaponInfo@@@std@@@std@@YAXPAUWeaponInfo@@0AAV?$allocator@UWeaponInfo@@@0@U_Nonscalar_ptr_iterator_tag@0@@Z ENDP ; std::_Destroy_range<std::allocator<WeaponInfo> >
_TEXT	ENDS
PUBLIC	??$_Uninit_copy@V?$_Vector_const_iterator@V?$_Vector_val@VioHashString@@V?$allocator@VioHashString@@@std@@@std@@@std@@PAVioHashString@@V?$allocator@VioHashString@@@2@@std@@YAPAVioHashString@@V?$_Vector_const_iterator@V?$_Vector_val@VioHashString@@V?$allocator@VioHashString@@@std@@@std@@@0@0PAV1@AAV?$allocator@VioHashString@@@0@U_Nonscalar_ptr_iterator_tag@0@@Z ; std::_Uninit_copy<std::_Vector_const_iterator<std::_Vector_val<ioHashString,std::allocator<ioHashString> > >,ioHashString *,std::allocator<ioHashString> >
;	COMDAT xdata$x
; File c:\program files (x86)\microsoft visual studio 10.0\vc\include\vector
xdata$x	SEGMENT
__catchsym$??$_Uninit_copy@V?$_Vector_const_iterator@V?$_Vector_val@VioHashString@@V?$allocator@VioHashString@@@std@@@std@@@std@@PAVioHashString@@V?$allocator@VioHashString@@@2@@std@@YAPAVioHashString@@V?$_Vector_const_iterator@V?$_Vector_val@VioHashString@@V?$allocator@VioHashString@@@std@@@std@@@0@0PAV1@AAV?$allocator@VioHashString@@@0@U_Nonscalar_ptr_iterator_tag@0@@Z$2 DD 040H
	DD	00H
	DD	00H
	DD	FLAT:__catch$??$_Uninit_copy@V?$_Vector_const_iterator@V?$_Vector_val@VioHashString@@V?$allocator@VioHashString@@@std@@@std@@@std@@PAVioHashString@@V?$allocator@VioHashString@@@2@@std@@YAPAVioHashString@@V?$_Vector_const_iterator@V?$_Vector_val@VioHashString@@V?$allocator@VioHashString@@@std@@@std@@@0@0PAV1@AAV?$allocator@VioHashString@@@0@U_Nonscalar_ptr_iterator_tag@0@@Z$0
__unwindtable$??$_Uninit_copy@V?$_Vector_const_iterator@V?$_Vector_val@VioHashString@@V?$allocator@VioHashString@@@std@@@std@@@std@@PAVioHashString@@V?$allocator@VioHashString@@@2@@std@@YAPAVioHashString@@V?$_Vector_const_iterator@V?$_Vector_val@VioHashString@@V?$allocator@VioHashString@@@std@@@std@@@0@0PAV1@AAV?$allocator@VioHashString@@@0@U_Nonscalar_ptr_iterator_tag@0@@Z DD 0ffffffffH
	DD	00H
	DD	0ffffffffH
	DD	00H
__tryblocktable$??$_Uninit_copy@V?$_Vector_const_iterator@V?$_Vector_val@VioHashString@@V?$allocator@VioHashString@@@std@@@std@@@std@@PAVioHashString@@V?$allocator@VioHashString@@@2@@std@@YAPAVioHashString@@V?$_Vector_const_iterator@V?$_Vector_val@VioHashString@@V?$allocator@VioHashString@@@std@@@std@@@0@0PAV1@AAV?$allocator@VioHashString@@@0@U_Nonscalar_ptr_iterator_tag@0@@Z DD 00H
	DD	00H
	DD	01H
	DD	01H
	DD	FLAT:__catchsym$??$_Uninit_copy@V?$_Vector_const_iterator@V?$_Vector_val@VioHashString@@V?$allocator@VioHashString@@@std@@@std@@@std@@PAVioHashString@@V?$allocator@VioHashString@@@2@@std@@YAPAVioHashString@@V?$_Vector_const_iterator@V?$_Vector_val@VioHashString@@V?$allocator@VioHashString@@@std@@@std@@@0@0PAV1@AAV?$allocator@VioHashString@@@0@U_Nonscalar_ptr_iterator_tag@0@@Z$2
__ehfuncinfo$??$_Uninit_copy@V?$_Vector_const_iterator@V?$_Vector_val@VioHashString@@V?$allocator@VioHashString@@@std@@@std@@@std@@PAVioHashString@@V?$allocator@VioHashString@@@2@@std@@YAPAVioHashString@@V?$_Vector_const_iterator@V?$_Vector_val@VioHashString@@V?$allocator@VioHashString@@@std@@@std@@@0@0PAV1@AAV?$allocator@VioHashString@@@0@U_Nonscalar_ptr_iterator_tag@0@@Z DD 019930522H
	DD	02H
	DD	FLAT:__unwindtable$??$_Uninit_copy@V?$_Vector_const_iterator@V?$_Vector_val@VioHashString@@V?$allocator@VioHashString@@@std@@@std@@@std@@PAVioHashString@@V?$allocator@VioHashString@@@2@@std@@YAPAVioHashString@@V?$_Vector_const_iterator@V?$_Vector_val@VioHashString@@V?$allocator@VioHashString@@@std@@@std@@@0@0PAV1@AAV?$allocator@VioHashString@@@0@U_Nonscalar_ptr_iterator_tag@0@@Z
	DD	01H
	DD	FLAT:__tryblocktable$??$_Uninit_copy@V?$_Vector_const_iterator@V?$_Vector_val@VioHashString@@V?$allocator@VioHashString@@@std@@@std@@@std@@PAVioHashString@@V?$allocator@VioHashString@@@2@@std@@YAPAVioHashString@@V?$_Vector_const_iterator@V?$_Vector_val@VioHashString@@V?$allocator@VioHashString@@@std@@@std@@@0@0PAV1@AAV?$allocator@VioHashString@@@0@U_Nonscalar_ptr_iterator_tag@0@@Z
	DD	2 DUP(00H)
	DD	00H
	DD	01H
; Function compile flags: /Ogsp
; File c:\program files (x86)\microsoft visual studio 10.0\vc\include\memory
xdata$x	ENDS
;	COMDAT ??$_Uninit_copy@V?$_Vector_const_iterator@V?$_Vector_val@VioHashString@@V?$allocator@VioHashString@@@std@@@std@@@std@@PAVioHashString@@V?$allocator@VioHashString@@@2@@std@@YAPAVioHashString@@V?$_Vector_const_iterator@V?$_Vector_val@VioHashString@@V?$allocator@VioHashString@@@std@@@std@@@0@0PAV1@AAV?$allocator@VioHashString@@@0@U_Nonscalar_ptr_iterator_tag@0@@Z
_TEXT	SEGMENT
__Next$ = -20						; size = 4
__$EHRec$ = -16						; size = 16
__First$ = 8						; size = 4
__Last$ = 12						; size = 4
__Dest$ = 16						; size = 4
__Al$ = 20						; size = 4
___formal$ = 24						; size = 1
??$_Uninit_copy@V?$_Vector_const_iterator@V?$_Vector_val@VioHashString@@V?$allocator@VioHashString@@@std@@@std@@@std@@PAVioHashString@@V?$allocator@VioHashString@@@2@@std@@YAPAVioHashString@@V?$_Vector_const_iterator@V?$_Vector_val@VioHashString@@V?$allocator@VioHashString@@@std@@@std@@@0@0PAV1@AAV?$allocator@VioHashString@@@0@U_Nonscalar_ptr_iterator_tag@0@@Z PROC ; std::_Uninit_copy<std::_Vector_const_iterator<std::_Vector_val<ioHashString,std::allocator<ioHashString> > >,ioHashString *,std::allocator<ioHashString> >, COMDAT

; 369  : 	{	// copy [_First, _Last) to raw _Dest, using _Al, arbitrary type

  00000	6a 08		 push	 8
  00002	b8 00 00 00 00	 mov	 eax, __ehhandler$??$_Uninit_copy@V?$_Vector_const_iterator@V?$_Vector_val@VioHashString@@V?$allocator@VioHashString@@@std@@@std@@@std@@PAVioHashString@@V?$allocator@VioHashString@@@2@@std@@YAPAVioHashString@@V?$_Vector_const_iterator@V?$_Vector_val@VioHashString@@V?$allocator@VioHashString@@@std@@@std@@@0@0PAV1@AAV?$allocator@VioHashString@@@0@U_Nonscalar_ptr_iterator_tag@0@@Z
  00007	e8 00 00 00 00	 call	 __EH_prolog3_catch

; 370  : 	_DEBUG_RANGE(_First, _Last);
; 371  : 	_DEBUG_POINTER(_Dest);
; 372  : 	_FwdIt _Next = _Dest;

  0000c	8b 45 10	 mov	 eax, DWORD PTR __Dest$[ebp]

; 373  : 
; 374  : 	_TRY_BEGIN

  0000f	83 65 fc 00	 and	 DWORD PTR __$EHRec$[ebp+12], 0
  00013	89 45 ec	 mov	 DWORD PTR __Next$[ebp], eax

; 375  : 	for (; _First != _Last; ++_Dest, ++_First)

$LL14@Uninit_cop@5:
  00016	8b 45 08	 mov	 eax, DWORD PTR __First$[ebp]
  00019	3b 45 0c	 cmp	 eax, DWORD PTR __Last$[ebp]
  0001c	74 33		 je	 SHORT $LN4@Uninit_cop@5

; 376  : 		_Cons_val(_Al, _Dest, *_First);

  0001e	50		 push	 eax
  0001f	ff 75 10	 push	 DWORD PTR __Dest$[ebp]
  00022	e8 00 00 00 00	 call	 ??$_Construct@VioHashString@@ABV1@@std@@YAXPAVioHashString@@ABV1@@Z ; std::_Construct<ioHashString,ioHashString const &>
  00027	83 45 10 10	 add	 DWORD PTR __Dest$[ebp], 16 ; 00000010H
  0002b	83 45 08 10	 add	 DWORD PTR __First$[ebp], 16 ; 00000010H
  0002f	59		 pop	 ecx
  00030	59		 pop	 ecx
  00031	eb e3		 jmp	 SHORT $LL14@Uninit_cop@5
__catch$??$_Uninit_copy@V?$_Vector_const_iterator@V?$_Vector_val@VioHashString@@V?$allocator@VioHashString@@@std@@@std@@@std@@PAVioHashString@@V?$allocator@VioHashString@@@2@@std@@YAPAVioHashString@@V?$_Vector_const_iterator@V?$_Vector_val@VioHashString@@V?$allocator@VioHashString@@@std@@@std@@@0@0PAV1@AAV?$allocator@VioHashString@@@0@U_Nonscalar_ptr_iterator_tag@0@@Z$0:

; 377  : 	_CATCH_ALL
; 378  : 	for (; _Next != _Dest; ++_Next)

  00033	8b 75 ec	 mov	 esi, DWORD PTR __Next$[ebp]
  00036	eb 0b		 jmp	 SHORT $LN45@Uninit_cop@5
$LL3@Uninit_cop@5:

; 379  : 		_Dest_val(_Al, _Next);

  00038	8b ce		 mov	 ecx, esi
  0003a	ff 15 00 00 00
	00		 call	 DWORD PTR __imp_??1ioHashString@@QAE@XZ
  00040	83 c6 10	 add	 esi, 16			; 00000010H
$LN45@Uninit_cop@5:

; 377  : 	_CATCH_ALL
; 378  : 	for (; _Next != _Dest; ++_Next)

  00043	3b 75 10	 cmp	 esi, DWORD PTR __Dest$[ebp]
  00046	75 f0		 jne	 SHORT $LL3@Uninit_cop@5

; 380  : 	_RERAISE;

  00048	6a 00		 push	 0
  0004a	6a 00		 push	 0
  0004c	e8 00 00 00 00	 call	 __CxxThrowException@8
$LN46@Uninit_cop@5:
$LN4@Uninit_cop@5:

; 381  : 	_CATCH_END
; 382  : 	return (_Dest);

  00051	8b 45 10	 mov	 eax, DWORD PTR __Dest$[ebp]

; 383  : 	}

  00054	e8 00 00 00 00	 call	 __EH_epilog3
  00059	c3		 ret	 0
$LN44@Uninit_cop@5:
_TEXT	ENDS
;	COMDAT text$x
text$x	SEGMENT
__ehhandler$??$_Uninit_copy@V?$_Vector_const_iterator@V?$_Vector_val@VioHashString@@V?$allocator@VioHashString@@@std@@@std@@@std@@PAVioHashString@@V?$allocator@VioHashString@@@2@@std@@YAPAVioHashString@@V?$_Vector_const_iterator@V?$_Vector_val@VioHashString@@V?$allocator@VioHashString@@@std@@@std@@@0@0PAV1@AAV?$allocator@VioHashString@@@0@U_Nonscalar_ptr_iterator_tag@0@@Z:
  00000	8b 54 24 08	 mov	 edx, DWORD PTR [esp+8]
  00004	8d 42 0c	 lea	 eax, DWORD PTR [edx+12]
  00007	8b 4a e8	 mov	 ecx, DWORD PTR [edx-24]
  0000a	33 c8		 xor	 ecx, eax
  0000c	e8 00 00 00 00	 call	 @__security_check_cookie@4
  00011	b8 00 00 00 00	 mov	 eax, OFFSET __ehfuncinfo$??$_Uninit_copy@V?$_Vector_const_iterator@V?$_Vector_val@VioHashString@@V?$allocator@VioHashString@@@std@@@std@@@std@@PAVioHashString@@V?$allocator@VioHashString@@@2@@std@@YAPAVioHashString@@V?$_Vector_const_iterator@V?$_Vector_val@VioHashString@@V?$allocator@VioHashString@@@std@@@std@@@0@0PAV1@AAV?$allocator@VioHashString@@@0@U_Nonscalar_ptr_iterator_tag@0@@Z
  00016	e9 00 00 00 00	 jmp	 ___CxxFrameHandler3
text$x	ENDS
??$_Uninit_copy@V?$_Vector_const_iterator@V?$_Vector_val@VioHashString@@V?$allocator@VioHashString@@@std@@@std@@@std@@PAVioHashString@@V?$allocator@VioHashString@@@2@@std@@YAPAVioHashString@@V?$_Vector_const_iterator@V?$_Vector_val@VioHashString@@V?$allocator@VioHashString@@@std@@@std@@@0@0PAV1@AAV?$allocator@VioHashString@@@0@U_Nonscalar_ptr_iterator_tag@0@@Z ENDP ; std::_Uninit_copy<std::_Vector_const_iterator<std::_Vector_val<ioHashString,std::allocator<ioHashString> > >,ioHashString *,std::allocator<ioHashString> >
PUBLIC	??$_Ucopy@PAUForceInfo@@@?$vector@UForceInfo@@V?$allocator@UForceInfo@@@std@@@std@@IAEPAUForceInfo@@PAU2@00@Z ; std::vector<ForceInfo,std::allocator<ForceInfo> >::_Ucopy<ForceInfo *>
; Function compile flags: /Ogsp
; File c:\program files (x86)\microsoft visual studio 10.0\vc\include\vector
;	COMDAT ??$_Ucopy@PAUForceInfo@@@?$vector@UForceInfo@@V?$allocator@UForceInfo@@@std@@@std@@IAEPAUForceInfo@@PAU2@00@Z
_TEXT	SEGMENT
__First$ = 8						; size = 4
__Last$ = 12						; size = 4
__Cat$609270 = 16					; size = 1
__Ptr$ = 16						; size = 4
??$_Ucopy@PAUForceInfo@@@?$vector@UForceInfo@@V?$allocator@UForceInfo@@@std@@@std@@IAEPAUForceInfo@@PAU2@00@Z PROC ; std::vector<ForceInfo,std::allocator<ForceInfo> >::_Ucopy<ForceInfo *>, COMDAT
; _this$ = ecx

; 1315 : 		pointer _Ucopy(_Iter _First, _Iter _Last, pointer _Ptr)

  00000	55		 push	 ebp
  00001	8b ec		 mov	 ebp, esp

; 1316 : 		{	// copy initializing [_First, _Last), using allocator
; 1317 : 		return (_Uninitialized_copy(_First, _Last,
; 1318 : 			_Ptr, this->_Alval));

  00003	ff 75 10	 push	 DWORD PTR __Cat$609270[ebp]
  00006	83 c1 0c	 add	 ecx, 12			; 0000000cH
  00009	51		 push	 ecx
  0000a	ff 75 10	 push	 DWORD PTR __Ptr$[ebp]
  0000d	ff 75 0c	 push	 DWORD PTR __Last$[ebp]
  00010	ff 75 08	 push	 DWORD PTR __First$[ebp]
  00013	e8 00 00 00 00	 call	 ??$_Uninit_copy@PAUForceInfo@@PAU1@V?$allocator@UForceInfo@@@std@@@std@@YAPAUForceInfo@@PAU1@00AAV?$allocator@UForceInfo@@@0@U_Nonscalar_ptr_iterator_tag@0@@Z ; std::_Uninit_copy<ForceInfo *,ForceInfo *,std::allocator<ForceInfo> >
  00018	83 c4 14	 add	 esp, 20			; 00000014H

; 1319 : 		}

  0001b	5d		 pop	 ebp
  0001c	c2 0c 00	 ret	 12			; 0000000cH
??$_Ucopy@PAUForceInfo@@@?$vector@UForceInfo@@V?$allocator@UForceInfo@@@std@@@std@@IAEPAUForceInfo@@PAU2@00@Z ENDP ; std::vector<ForceInfo,std::allocator<ForceInfo> >::_Ucopy<ForceInfo *>
_TEXT	ENDS
PUBLIC	??$_Uninitialized_copy@PAUWeaponInfo@@PAU1@V?$allocator@UWeaponInfo@@@std@@@std@@YAPAUWeaponInfo@@PAU1@00AAV?$allocator@UWeaponInfo@@@0@@Z ; std::_Uninitialized_copy<WeaponInfo *,WeaponInfo *,std::allocator<WeaponInfo> >
; Function compile flags: /Ogsp
; File c:\program files (x86)\microsoft visual studio 10.0\vc\include\memory
;	COMDAT ??$_Uninitialized_copy@PAUWeaponInfo@@PAU1@V?$allocator@UWeaponInfo@@@std@@@std@@YAPAUWeaponInfo@@PAU1@00AAV?$allocator@UWeaponInfo@@@0@@Z
_TEXT	SEGMENT
__Cat$609277 = -4					; size = 1
__First$ = 8						; size = 4
__Last$ = 12						; size = 4
__Dest$ = 16						; size = 4
__Al$ = 20						; size = 4
??$_Uninitialized_copy@PAUWeaponInfo@@PAU1@V?$allocator@UWeaponInfo@@@std@@@std@@YAPAUWeaponInfo@@PAU1@00AAV?$allocator@UWeaponInfo@@@0@@Z PROC ; std::_Uninitialized_copy<WeaponInfo *,WeaponInfo *,std::allocator<WeaponInfo> >, COMDAT

; 412  : 	{	// copy [_First, _Last) to raw _Dest, using _Al

  00000	55		 push	 ebp
  00001	8b ec		 mov	 ebp, esp
  00003	51		 push	 ecx

; 413  : 	return (_Uninit_copy(_First, _Last, _Dest, _Al,
; 414  : 		_Ptr_cat(_First, _Dest)));

  00004	ff 75 fc	 push	 DWORD PTR __Cat$609277[ebp]
  00007	ff 75 14	 push	 DWORD PTR __Al$[ebp]
  0000a	ff 75 10	 push	 DWORD PTR __Dest$[ebp]
  0000d	ff 75 0c	 push	 DWORD PTR __Last$[ebp]
  00010	ff 75 08	 push	 DWORD PTR __First$[ebp]
  00013	e8 00 00 00 00	 call	 ??$_Uninit_copy@PAUWeaponInfo@@PAU1@V?$allocator@UWeaponInfo@@@std@@@std@@YAPAUWeaponInfo@@PAU1@00AAV?$allocator@UWeaponInfo@@@0@U_Nonscalar_ptr_iterator_tag@0@@Z ; std::_Uninit_copy<WeaponInfo *,WeaponInfo *,std::allocator<WeaponInfo> >
  00018	83 c4 14	 add	 esp, 20			; 00000014H

; 415  : 	}

  0001b	c9		 leave
  0001c	c3		 ret	 0
??$_Uninitialized_copy@PAUWeaponInfo@@PAU1@V?$allocator@UWeaponInfo@@@std@@@std@@YAPAUWeaponInfo@@PAU1@00AAV?$allocator@UWeaponInfo@@@0@@Z ENDP ; std::_Uninitialized_copy<WeaponInfo *,WeaponInfo *,std::allocator<WeaponInfo> >
_TEXT	ENDS
PUBLIC	??1?$list@MV?$allocator@M@std@@@std@@QAE@XZ	; std::list<float,std::allocator<float> >::~list<float,std::allocator<float> >
; Function compile flags: /Ogsp
; File c:\program files (x86)\microsoft visual studio 10.0\vc\include\list
;	COMDAT ??1?$list@MV?$allocator@M@std@@@std@@QAE@XZ
_TEXT	SEGMENT
??1?$list@MV?$allocator@M@std@@@std@@QAE@XZ PROC	; std::list<float,std::allocator<float> >::~list<float,std::allocator<float> >, COMDAT
; _this$ = ecx

; 769  : 		{	// destroy the object

  00000	56		 push	 esi
  00001	8b f1		 mov	 esi, ecx

; 770  : 		_Tidy();

  00003	e8 00 00 00 00	 call	 ?clear@?$list@MV?$allocator@M@std@@@std@@QAEXXZ ; std::list<float,std::allocator<float> >::clear

; 771  : 		}

  00008	ff 36		 push	 DWORD PTR [esi]
  0000a	e8 00 00 00 00	 call	 ??3@YAXPAX@Z		; operator delete
  0000f	59		 pop	 ecx
  00010	5e		 pop	 esi
  00011	c3		 ret	 0
??1?$list@MV?$allocator@M@std@@@std@@QAE@XZ ENDP	; std::list<float,std::allocator<float> >::~list<float,std::allocator<float> >
_TEXT	ENDS
PUBLIC	??$_Ucopy@V?$_Vector_const_iterator@V?$_Vector_val@UForceInfo@@V?$allocator@UForceInfo@@@std@@@std@@@std@@@?$vector@UForceInfo@@V?$allocator@UForceInfo@@@std@@@std@@IAEPAUForceInfo@@V?$_Vector_const_iterator@V?$_Vector_val@UForceInfo@@V?$allocator@UForceInfo@@@std@@@std@@@1@0PAU2@@Z ; std::vector<ForceInfo,std::allocator<ForceInfo> >::_Ucopy<std::_Vector_const_iterator<std::_Vector_val<ForceInfo,std::allocator<ForceInfo> > > >
; Function compile flags: /Ogsp
; File c:\program files (x86)\microsoft visual studio 10.0\vc\include\vector
;	COMDAT ??$_Ucopy@V?$_Vector_const_iterator@V?$_Vector_val@UForceInfo@@V?$allocator@UForceInfo@@@std@@@std@@@std@@@?$vector@UForceInfo@@V?$allocator@UForceInfo@@@std@@@std@@IAEPAUForceInfo@@V?$_Vector_const_iterator@V?$_Vector_val@UForceInfo@@V?$allocator@UForceInfo@@@std@@@std@@@1@0PAU2@@Z
_TEXT	SEGMENT
__First$ = 8						; size = 4
__Last$ = 12						; size = 4
__Cat$609307 = 16					; size = 1
__Ptr$ = 16						; size = 4
??$_Ucopy@V?$_Vector_const_iterator@V?$_Vector_val@UForceInfo@@V?$allocator@UForceInfo@@@std@@@std@@@std@@@?$vector@UForceInfo@@V?$allocator@UForceInfo@@@std@@@std@@IAEPAUForceInfo@@V?$_Vector_const_iterator@V?$_Vector_val@UForceInfo@@V?$allocator@UForceInfo@@@std@@@std@@@1@0PAU2@@Z PROC ; std::vector<ForceInfo,std::allocator<ForceInfo> >::_Ucopy<std::_Vector_const_iterator<std::_Vector_val<ForceInfo,std::allocator<ForceInfo> > > >, COMDAT
; _this$ = ecx

; 1315 : 		pointer _Ucopy(_Iter _First, _Iter _Last, pointer _Ptr)

  00000	55		 push	 ebp
  00001	8b ec		 mov	 ebp, esp

; 1316 : 		{	// copy initializing [_First, _Last), using allocator
; 1317 : 		return (_Uninitialized_copy(_First, _Last,
; 1318 : 			_Ptr, this->_Alval));

  00003	ff 75 10	 push	 DWORD PTR __Cat$609307[ebp]
  00006	83 c1 0c	 add	 ecx, 12			; 0000000cH
  00009	51		 push	 ecx
  0000a	ff 75 10	 push	 DWORD PTR __Ptr$[ebp]
  0000d	ff 75 0c	 push	 DWORD PTR __Last$[ebp]
  00010	ff 75 08	 push	 DWORD PTR __First$[ebp]
  00013	e8 00 00 00 00	 call	 ??$_Uninit_copy@V?$_Vector_const_iterator@V?$_Vector_val@UForceInfo@@V?$allocator@UForceInfo@@@std@@@std@@@std@@PAUForceInfo@@V?$allocator@UForceInfo@@@2@@std@@YAPAUForceInfo@@V?$_Vector_const_iterator@V?$_Vector_val@UForceInfo@@V?$allocator@UForceInfo@@@std@@@std@@@0@0PAU1@AAV?$allocator@UForceInfo@@@0@U_Nonscalar_ptr_iterator_tag@0@@Z ; std::_Uninit_copy<std::_Vector_const_iterator<std::_Vector_val<ForceInfo,std::allocator<ForceInfo> > >,ForceInfo *,std::allocator<ForceInfo> >
  00018	83 c4 14	 add	 esp, 20			; 00000014H

; 1319 : 		}

  0001b	5d		 pop	 ebp
  0001c	c2 0c 00	 ret	 12			; 0000000cH
??$_Ucopy@V?$_Vector_const_iterator@V?$_Vector_val@UForceInfo@@V?$allocator@UForceInfo@@@std@@@std@@@std@@@?$vector@UForceInfo@@V?$allocator@UForceInfo@@@std@@@std@@IAEPAUForceInfo@@V?$_Vector_const_iterator@V?$_Vector_val@UForceInfo@@V?$allocator@UForceInfo@@@std@@@std@@@1@0PAU2@@Z ENDP ; std::vector<ForceInfo,std::allocator<ForceInfo> >::_Ucopy<std::_Vector_const_iterator<std::_Vector_val<ForceInfo,std::allocator<ForceInfo> > > >
_TEXT	ENDS
PUBLIC	??$_Uninitialized_copy@V?$_Vector_const_iterator@V?$_Vector_val@UWeaponInfo@@V?$allocator@UWeaponInfo@@@std@@@std@@@std@@PAUWeaponInfo@@V?$allocator@UWeaponInfo@@@2@@std@@YAPAUWeaponInfo@@V?$_Vector_const_iterator@V?$_Vector_val@UWeaponInfo@@V?$allocator@UWeaponInfo@@@std@@@std@@@0@0PAU1@AAV?$allocator@UWeaponInfo@@@0@@Z ; std::_Uninitialized_copy<std::_Vector_const_iterator<std::_Vector_val<WeaponInfo,std::allocator<WeaponInfo> > >,WeaponInfo *,std::allocator<WeaponInfo> >
; Function compile flags: /Ogsp
; File c:\program files (x86)\microsoft visual studio 10.0\vc\include\memory
;	COMDAT ??$_Uninitialized_copy@V?$_Vector_const_iterator@V?$_Vector_val@UWeaponInfo@@V?$allocator@UWeaponInfo@@@std@@@std@@@std@@PAUWeaponInfo@@V?$allocator@UWeaponInfo@@@2@@std@@YAPAUWeaponInfo@@V?$_Vector_const_iterator@V?$_Vector_val@UWeaponInfo@@V?$allocator@UWeaponInfo@@@std@@@std@@@0@0PAU1@AAV?$allocator@UWeaponInfo@@@0@@Z
_TEXT	SEGMENT
__Cat$609317 = -4					; size = 1
__First$ = 8						; size = 4
__Last$ = 12						; size = 4
__Dest$ = 16						; size = 4
__Al$ = 20						; size = 4
??$_Uninitialized_copy@V?$_Vector_const_iterator@V?$_Vector_val@UWeaponInfo@@V?$allocator@UWeaponInfo@@@std@@@std@@@std@@PAUWeaponInfo@@V?$allocator@UWeaponInfo@@@2@@std@@YAPAUWeaponInfo@@V?$_Vector_const_iterator@V?$_Vector_val@UWeaponInfo@@V?$allocator@UWeaponInfo@@@std@@@std@@@0@0PAU1@AAV?$allocator@UWeaponInfo@@@0@@Z PROC ; std::_Uninitialized_copy<std::_Vector_const_iterator<std::_Vector_val<WeaponInfo,std::allocator<WeaponInfo> > >,WeaponInfo *,std::allocator<WeaponInfo> >, COMDAT

; 412  : 	{	// copy [_First, _Last) to raw _Dest, using _Al

  00000	55		 push	 ebp
  00001	8b ec		 mov	 ebp, esp
  00003	51		 push	 ecx

; 413  : 	return (_Uninit_copy(_First, _Last, _Dest, _Al,
; 414  : 		_Ptr_cat(_First, _Dest)));

  00004	ff 75 fc	 push	 DWORD PTR __Cat$609317[ebp]
  00007	ff 75 14	 push	 DWORD PTR __Al$[ebp]
  0000a	ff 75 10	 push	 DWORD PTR __Dest$[ebp]
  0000d	ff 75 0c	 push	 DWORD PTR __Last$[ebp]
  00010	ff 75 08	 push	 DWORD PTR __First$[ebp]
  00013	e8 00 00 00 00	 call	 ??$_Uninit_copy@V?$_Vector_const_iterator@V?$_Vector_val@UWeaponInfo@@V?$allocator@UWeaponInfo@@@std@@@std@@@std@@PAUWeaponInfo@@V?$allocator@UWeaponInfo@@@2@@std@@YAPAUWeaponInfo@@V?$_Vector_const_iterator@V?$_Vector_val@UWeaponInfo@@V?$allocator@UWeaponInfo@@@std@@@std@@@0@0PAU1@AAV?$allocator@UWeaponInfo@@@0@U_Nonscalar_ptr_iterator_tag@0@@Z ; std::_Uninit_copy<std::_Vector_const_iterator<std::_Vector_val<WeaponInfo,std::allocator<WeaponInfo> > >,WeaponInfo *,std::allocator<WeaponInfo> >
  00018	83 c4 14	 add	 esp, 20			; 00000014H

; 415  : 	}

  0001b	c9		 leave
  0001c	c3		 ret	 0
??$_Uninitialized_copy@V?$_Vector_const_iterator@V?$_Vector_val@UWeaponInfo@@V?$allocator@UWeaponInfo@@@std@@@std@@@std@@PAUWeaponInfo@@V?$allocator@UWeaponInfo@@@2@@std@@YAPAUWeaponInfo@@V?$_Vector_const_iterator@V?$_Vector_val@UWeaponInfo@@V?$allocator@UWeaponInfo@@@std@@@std@@@0@0PAU1@AAV?$allocator@UWeaponInfo@@@0@@Z ENDP ; std::_Uninitialized_copy<std::_Vector_const_iterator<std::_Vector_val<WeaponInfo,std::allocator<WeaponInfo> > >,WeaponInfo *,std::allocator<WeaponInfo> >
_TEXT	ENDS
PUBLIC	??$_Uninitialized_move@PAVioHashString@@PAV1@V?$allocator@VioHashString@@@std@@@std@@YAPAVioHashString@@PAV1@00AAV?$allocator@VioHashString@@@0@@Z ; std::_Uninitialized_move<ioHashString *,ioHashString *,std::allocator<ioHashString> >
; Function compile flags: /Ogsp
;	COMDAT ??$_Uninitialized_move@PAVioHashString@@PAV1@V?$allocator@VioHashString@@@std@@@std@@YAPAVioHashString@@PAV1@00AAV?$allocator@VioHashString@@@0@@Z
_TEXT	SEGMENT
__Cat$609324 = -4					; size = 1
__First$ = 8						; size = 4
__Last$ = 12						; size = 4
__Dest$ = 16						; size = 4
__Al$ = 20						; size = 4
??$_Uninitialized_move@PAVioHashString@@PAV1@V?$allocator@VioHashString@@@std@@@std@@YAPAVioHashString@@PAV1@00AAV?$allocator@VioHashString@@@0@@Z PROC ; std::_Uninitialized_move<ioHashString *,ioHashString *,std::allocator<ioHashString> >, COMDAT

; 469  : 	{	// move [_First, _Last) to raw _Dest, using _Al

  00000	55		 push	 ebp
  00001	8b ec		 mov	 ebp, esp
  00003	51		 push	 ecx

; 470  : 	return (_Uninit_move(_First, _Last, _Dest, _Al,
; 471  : 		_Val_type(_First), _Ptr_cat(_First, _Dest)));

  00004	ff 75 fc	 push	 DWORD PTR __Cat$609324[ebp]
  00007	6a 00		 push	 0
  00009	ff 75 14	 push	 DWORD PTR __Al$[ebp]
  0000c	ff 75 10	 push	 DWORD PTR __Dest$[ebp]
  0000f	ff 75 0c	 push	 DWORD PTR __Last$[ebp]
  00012	ff 75 08	 push	 DWORD PTR __First$[ebp]
  00015	e8 00 00 00 00	 call	 ??$_Uninit_move@PAVioHashString@@PAV1@V?$allocator@VioHashString@@@std@@V1@@std@@YAPAVioHashString@@PAV1@00AAV?$allocator@VioHashString@@@0@0U_Nonscalar_ptr_iterator_tag@0@@Z ; std::_Uninit_move<ioHashString *,ioHashString *,std::allocator<ioHashString>,ioHashString>
  0001a	83 c4 18	 add	 esp, 24			; 00000018H

; 472  : 	}

  0001d	c9		 leave
  0001e	c3		 ret	 0
??$_Uninitialized_move@PAVioHashString@@PAV1@V?$allocator@VioHashString@@@std@@@std@@YAPAVioHashString@@PAV1@00AAV?$allocator@VioHashString@@@0@@Z ENDP ; std::_Uninitialized_move<ioHashString *,ioHashString *,std::allocator<ioHashString> >
_TEXT	ENDS
PUBLIC	?_Destroy@?$vector@UForceInfo@@V?$allocator@UForceInfo@@@std@@@std@@IAEXPAUForceInfo@@0@Z ; std::vector<ForceInfo,std::allocator<ForceInfo> >::_Destroy
; Function compile flags: /Ogsp
; File c:\program files (x86)\microsoft visual studio 10.0\vc\include\vector
;	COMDAT ?_Destroy@?$vector@UForceInfo@@V?$allocator@UForceInfo@@@std@@@std@@IAEXPAUForceInfo@@0@Z
_TEXT	SEGMENT
__First$ = 8						; size = 4
__Last$ = 12						; size = 4
?_Destroy@?$vector@UForceInfo@@V?$allocator@UForceInfo@@@std@@@std@@IAEXPAUForceInfo@@0@Z PROC ; std::vector<ForceInfo,std::allocator<ForceInfo> >::_Destroy, COMDAT
; _this$ = ecx

; 1270 : 		_Destroy_range(_First, _Last, this->_Alval);
; 1271 : 		}

  00000	c2 08 00	 ret	 8
?_Destroy@?$vector@UForceInfo@@V?$allocator@UForceInfo@@@std@@@std@@IAEXPAUForceInfo@@0@Z ENDP ; std::vector<ForceInfo,std::allocator<ForceInfo> >::_Destroy
_TEXT	ENDS
PUBLIC	??$_Destroy_range@V?$allocator@VioHashString@@@std@@@std@@YAXPAVioHashString@@0AAV?$allocator@VioHashString@@@0@@Z ; std::_Destroy_range<std::allocator<ioHashString> >
; Function compile flags: /Ogsp
; File c:\program files (x86)\microsoft visual studio 10.0\vc\include\xmemory
;	COMDAT ??$_Destroy_range@V?$allocator@VioHashString@@@std@@@std@@YAXPAVioHashString@@0AAV?$allocator@VioHashString@@@0@@Z
_TEXT	SEGMENT
__First$ = 8						; size = 4
__Last$ = 12						; size = 4
__Al$ = 16						; size = 4
??$_Destroy_range@V?$allocator@VioHashString@@@std@@@std@@YAXPAVioHashString@@0AAV?$allocator@VioHashString@@@0@@Z PROC ; std::_Destroy_range<std::allocator<ioHashString> >, COMDAT

; 87   : 	{	// destroy [_First, _Last)

  00000	55		 push	 ebp
  00001	8b ec		 mov	 ebp, esp
  00003	56		 push	 esi

; 88   : 	_Destroy_range(_First, _Last, _Al, _Ptr_cat(_First, _Last));

  00004	8b 75 08	 mov	 esi, DWORD PTR __First$[ebp]
  00007	eb 0b		 jmp	 SHORT $LN21@Destroy_ra@3
$LL7@Destroy_ra@3:
  00009	8b ce		 mov	 ecx, esi
  0000b	ff 15 00 00 00
	00		 call	 DWORD PTR __imp_??1ioHashString@@QAE@XZ
  00011	83 c6 10	 add	 esi, 16			; 00000010H
$LN21@Destroy_ra@3:
  00014	3b 75 0c	 cmp	 esi, DWORD PTR __Last$[ebp]
  00017	75 f0		 jne	 SHORT $LL7@Destroy_ra@3
  00019	5e		 pop	 esi

; 89   : 	}

  0001a	5d		 pop	 ebp
  0001b	c3		 ret	 0
??$_Destroy_range@V?$allocator@VioHashString@@@std@@@std@@YAXPAVioHashString@@0AAV?$allocator@VioHashString@@@0@@Z ENDP ; std::_Destroy_range<std::allocator<ioHashString> >
_TEXT	ENDS
PUBLIC	??$_Destroy_range@V?$allocator@UWeaponInfo@@@std@@@std@@YAXPAUWeaponInfo@@0AAV?$allocator@UWeaponInfo@@@0@@Z ; std::_Destroy_range<std::allocator<WeaponInfo> >
; Function compile flags: /Ogsp
;	COMDAT ??$_Destroy_range@V?$allocator@UWeaponInfo@@@std@@@std@@YAXPAUWeaponInfo@@0AAV?$allocator@UWeaponInfo@@@0@@Z
_TEXT	SEGMENT
__First$ = 8						; size = 4
__Last$ = 12						; size = 4
__Al$ = 16						; size = 4
??$_Destroy_range@V?$allocator@UWeaponInfo@@@std@@@std@@YAXPAUWeaponInfo@@0AAV?$allocator@UWeaponInfo@@@0@@Z PROC ; std::_Destroy_range<std::allocator<WeaponInfo> >, COMDAT

; 87   : 	{	// destroy [_First, _Last)

  00000	55		 push	 ebp
  00001	8b ec		 mov	 ebp, esp
  00003	56		 push	 esi

; 88   : 	_Destroy_range(_First, _Last, _Al, _Ptr_cat(_First, _Last));

  00004	8b 75 08	 mov	 esi, DWORD PTR __First$[ebp]
  00007	eb 0c		 jmp	 SHORT $LN24@Destroy_ra@4
$LL7@Destroy_ra@4:
  00009	8d 4e 08	 lea	 ecx, DWORD PTR [esi+8]
  0000c	ff 15 00 00 00
	00		 call	 DWORD PTR __imp_??1ioHashString@@QAE@XZ
  00012	83 c6 28	 add	 esi, 40			; 00000028H
$LN24@Destroy_ra@4:
  00015	3b 75 0c	 cmp	 esi, DWORD PTR __Last$[ebp]
  00018	75 ef		 jne	 SHORT $LL7@Destroy_ra@4
  0001a	5e		 pop	 esi

; 89   : 	}

  0001b	5d		 pop	 ebp
  0001c	c3		 ret	 0
??$_Destroy_range@V?$allocator@UWeaponInfo@@@std@@@std@@YAXPAUWeaponInfo@@0AAV?$allocator@UWeaponInfo@@@0@@Z ENDP ; std::_Destroy_range<std::allocator<WeaponInfo> >
_TEXT	ENDS
PUBLIC	??$_Uninitialized_copy@V?$_Vector_const_iterator@V?$_Vector_val@VioHashString@@V?$allocator@VioHashString@@@std@@@std@@@std@@PAVioHashString@@V?$allocator@VioHashString@@@2@@std@@YAPAVioHashString@@V?$_Vector_const_iterator@V?$_Vector_val@VioHashString@@V?$allocator@VioHashString@@@std@@@std@@@0@0PAV1@AAV?$allocator@VioHashString@@@0@@Z ; std::_Uninitialized_copy<std::_Vector_const_iterator<std::_Vector_val<ioHashString,std::allocator<ioHashString> > >,ioHashString *,std::allocator<ioHashString> >
; Function compile flags: /Ogsp
; File c:\program files (x86)\microsoft visual studio 10.0\vc\include\memory
;	COMDAT ??$_Uninitialized_copy@V?$_Vector_const_iterator@V?$_Vector_val@VioHashString@@V?$allocator@VioHashString@@@std@@@std@@@std@@PAVioHashString@@V?$allocator@VioHashString@@@2@@std@@YAPAVioHashString@@V?$_Vector_const_iterator@V?$_Vector_val@VioHashString@@V?$allocator@VioHashString@@@std@@@std@@@0@0PAV1@AAV?$allocator@VioHashString@@@0@@Z
_TEXT	SEGMENT
__Cat$609511 = -4					; size = 1
__First$ = 8						; size = 4
__Last$ = 12						; size = 4
__Dest$ = 16						; size = 4
__Al$ = 20						; size = 4
??$_Uninitialized_copy@V?$_Vector_const_iterator@V?$_Vector_val@VioHashString@@V?$allocator@VioHashString@@@std@@@std@@@std@@PAVioHashString@@V?$allocator@VioHashString@@@2@@std@@YAPAVioHashString@@V?$_Vector_const_iterator@V?$_Vector_val@VioHashString@@V?$allocator@VioHashString@@@std@@@std@@@0@0PAV1@AAV?$allocator@VioHashString@@@0@@Z PROC ; std::_Uninitialized_copy<std::_Vector_const_iterator<std::_Vector_val<ioHashString,std::allocator<ioHashString> > >,ioHashString *,std::allocator<ioHashString> >, COMDAT

; 412  : 	{	// copy [_First, _Last) to raw _Dest, using _Al

  00000	55		 push	 ebp
  00001	8b ec		 mov	 ebp, esp
  00003	51		 push	 ecx

; 413  : 	return (_Uninit_copy(_First, _Last, _Dest, _Al,
; 414  : 		_Ptr_cat(_First, _Dest)));

  00004	ff 75 fc	 push	 DWORD PTR __Cat$609511[ebp]
  00007	ff 75 14	 push	 DWORD PTR __Al$[ebp]
  0000a	ff 75 10	 push	 DWORD PTR __Dest$[ebp]
  0000d	ff 75 0c	 push	 DWORD PTR __Last$[ebp]
  00010	ff 75 08	 push	 DWORD PTR __First$[ebp]
  00013	e8 00 00 00 00	 call	 ??$_Uninit_copy@V?$_Vector_const_iterator@V?$_Vector_val@VioHashString@@V?$allocator@VioHashString@@@std@@@std@@@std@@PAVioHashString@@V?$allocator@VioHashString@@@2@@std@@YAPAVioHashString@@V?$_Vector_const_iterator@V?$_Vector_val@VioHashString@@V?$allocator@VioHashString@@@std@@@std@@@0@0PAV1@AAV?$allocator@VioHashString@@@0@U_Nonscalar_ptr_iterator_tag@0@@Z ; std::_Uninit_copy<std::_Vector_const_iterator<std::_Vector_val<ioHashString,std::allocator<ioHashString> > >,ioHashString *,std::allocator<ioHashString> >
  00018	83 c4 14	 add	 esp, 20			; 00000014H

; 415  : 	}

  0001b	c9		 leave
  0001c	c3		 ret	 0
??$_Uninitialized_copy@V?$_Vector_const_iterator@V?$_Vector_val@VioHashString@@V?$allocator@VioHashString@@@std@@@std@@@std@@PAVioHashString@@V?$allocator@VioHashString@@@2@@std@@YAPAVioHashString@@V?$_Vector_const_iterator@V?$_Vector_val@VioHashString@@V?$allocator@VioHashString@@@std@@@std@@@0@0PAV1@AAV?$allocator@VioHashString@@@0@@Z ENDP ; std::_Uninitialized_copy<std::_Vector_const_iterator<std::_Vector_val<ioHashString,std::allocator<ioHashString> > >,ioHashString *,std::allocator<ioHashString> >
_TEXT	ENDS
PUBLIC	?erase@?$vector@UForceInfo@@V?$allocator@UForceInfo@@@std@@@std@@QAE?AV?$_Vector_iterator@V?$_Vector_val@UForceInfo@@V?$allocator@UForceInfo@@@std@@@std@@@2@V?$_Vector_const_iterator@V?$_Vector_val@UForceInfo@@V?$allocator@UForceInfo@@@std@@@std@@@2@0@Z ; std::vector<ForceInfo,std::allocator<ForceInfo> >::erase
; Function compile flags: /Ogsp
; File c:\program files (x86)\microsoft visual studio 10.0\vc\include\vector
;	COMDAT ?erase@?$vector@UForceInfo@@V?$allocator@UForceInfo@@@std@@@std@@QAE?AV?$_Vector_iterator@V?$_Vector_val@UForceInfo@@V?$allocator@UForceInfo@@@std@@@std@@@2@V?$_Vector_const_iterator@V?$_Vector_val@UForceInfo@@V?$allocator@UForceInfo@@@std@@@std@@@2@0@Z
_TEXT	SEGMENT
___$ReturnUdt$ = 8					; size = 4
__First_arg$ = 12					; size = 4
__Cat$609588 = 16					; size = 1
__Last_arg$ = 16					; size = 4
?erase@?$vector@UForceInfo@@V?$allocator@UForceInfo@@@std@@@std@@QAE?AV?$_Vector_iterator@V?$_Vector_val@UForceInfo@@V?$allocator@UForceInfo@@@std@@@std@@@2@V?$_Vector_const_iterator@V?$_Vector_val@UForceInfo@@V?$allocator@UForceInfo@@@std@@@std@@@2@0@Z PROC ; std::vector<ForceInfo,std::allocator<ForceInfo> >::erase, COMDAT
; _this$ = ecx

; 1190 : 		{	// erase [_First, _Last)

  00000	55		 push	 ebp
  00001	8b ec		 mov	 ebp, esp

; 1191 : 		iterator _First = _Make_iter(_First_arg);

  00003	8b 45 0c	 mov	 eax, DWORD PTR __First_arg$[ebp]
  00006	56		 push	 esi
  00007	57		 push	 edi
  00008	8b 7d 08	 mov	 edi, DWORD PTR ___$ReturnUdt$[ebp]
  0000b	8b f1		 mov	 esi, ecx
  0000d	89 07		 mov	 DWORD PTR [edi], eax

; 1192 : 		iterator _Last = _Make_iter(_Last_arg);
; 1193 : 
; 1194 : 		if (_First != _Last)

  0000f	3b 45 10	 cmp	 eax, DWORD PTR __Last_arg$[ebp]
  00012	74 16		 je	 SHORT $LN1@erase

; 1195 : 			{	// worth doing, copy down over hole
; 1196 :  #if _ITERATOR_DEBUG_LEVEL == 2
; 1197 : 			if (_Last < _First || _VICONT(_First) != this
; 1198 : 				|| _VIPTR(_First) < this->_Myfirst
; 1199 : 				|| this->_Mylast < _VIPTR(_Last))
; 1200 : 				_DEBUG_ERROR("vector erase iterator outside range");
; 1201 : 			pointer _Ptr = _Move(_VIPTR(_Last), this->_Mylast,
; 1202 : 				_VIPTR(_First));
; 1203 : 			_Orphan_range(_VIPTR(_First), this->_Mylast);
; 1204 : 
; 1205 :  #else /* _ITERATOR_DEBUG_LEVEL == 2 */
; 1206 : 			pointer _Ptr = _Move(_VIPTR(_Last), this->_Mylast,
; 1207 : 				_VIPTR(_First));

  00014	ff 75 10	 push	 DWORD PTR __Cat$609588[ebp]
  00017	8b 4e 04	 mov	 ecx, DWORD PTR [esi+4]
  0001a	50		 push	 eax
  0001b	51		 push	 ecx
  0001c	ff 75 10	 push	 DWORD PTR __Last_arg$[ebp]
  0001f	e8 00 00 00 00	 call	 ??$_Move@PAUForceInfo@@PAU1@@std@@YAPAUForceInfo@@PAU1@00U_Nonscalar_ptr_iterator_tag@0@@Z ; std::_Move<ForceInfo *,ForceInfo *>
  00024	83 c4 10	 add	 esp, 16			; 00000010H

; 1208 :  #endif /* _ITERATOR_DEBUG_LEVEL == 2 */
; 1209 : 
; 1210 : 			_Destroy(_Ptr, this->_Mylast);
; 1211 : 			this->_Mylast = _Ptr;

  00027	89 46 04	 mov	 DWORD PTR [esi+4], eax
$LN1@erase:

; 1212 : 			}
; 1213 : 		return (_First);

  0002a	8b c7		 mov	 eax, edi
  0002c	5f		 pop	 edi
  0002d	5e		 pop	 esi

; 1214 : 		}

  0002e	5d		 pop	 ebp
  0002f	c2 0c 00	 ret	 12			; 0000000cH
?erase@?$vector@UForceInfo@@V?$allocator@UForceInfo@@@std@@@std@@QAE?AV?$_Vector_iterator@V?$_Vector_val@UForceInfo@@V?$allocator@UForceInfo@@@std@@@std@@@2@V?$_Vector_const_iterator@V?$_Vector_val@UForceInfo@@V?$allocator@UForceInfo@@@std@@@std@@@2@0@Z ENDP ; std::vector<ForceInfo,std::allocator<ForceInfo> >::erase
_TEXT	ENDS
PUBLIC	??$_Ucopy@PAUWeaponInfo@@@?$vector@UWeaponInfo@@V?$allocator@UWeaponInfo@@@std@@@std@@IAEPAUWeaponInfo@@PAU2@00@Z ; std::vector<WeaponInfo,std::allocator<WeaponInfo> >::_Ucopy<WeaponInfo *>
; Function compile flags: /Ogsp
;	COMDAT ??$_Ucopy@PAUWeaponInfo@@@?$vector@UWeaponInfo@@V?$allocator@UWeaponInfo@@@std@@@std@@IAEPAUWeaponInfo@@PAU2@00@Z
_TEXT	SEGMENT
__First$ = 8						; size = 4
__Last$ = 12						; size = 4
__Cat$609678 = 16					; size = 1
__Ptr$ = 16						; size = 4
??$_Ucopy@PAUWeaponInfo@@@?$vector@UWeaponInfo@@V?$allocator@UWeaponInfo@@@std@@@std@@IAEPAUWeaponInfo@@PAU2@00@Z PROC ; std::vector<WeaponInfo,std::allocator<WeaponInfo> >::_Ucopy<WeaponInfo *>, COMDAT
; _this$ = ecx

; 1315 : 		pointer _Ucopy(_Iter _First, _Iter _Last, pointer _Ptr)

  00000	55		 push	 ebp
  00001	8b ec		 mov	 ebp, esp

; 1316 : 		{	// copy initializing [_First, _Last), using allocator
; 1317 : 		return (_Uninitialized_copy(_First, _Last,
; 1318 : 			_Ptr, this->_Alval));

  00003	ff 75 10	 push	 DWORD PTR __Cat$609678[ebp]
  00006	83 c1 0c	 add	 ecx, 12			; 0000000cH
  00009	51		 push	 ecx
  0000a	ff 75 10	 push	 DWORD PTR __Ptr$[ebp]
  0000d	ff 75 0c	 push	 DWORD PTR __Last$[ebp]
  00010	ff 75 08	 push	 DWORD PTR __First$[ebp]
  00013	e8 00 00 00 00	 call	 ??$_Uninit_copy@PAUWeaponInfo@@PAU1@V?$allocator@UWeaponInfo@@@std@@@std@@YAPAUWeaponInfo@@PAU1@00AAV?$allocator@UWeaponInfo@@@0@U_Nonscalar_ptr_iterator_tag@0@@Z ; std::_Uninit_copy<WeaponInfo *,WeaponInfo *,std::allocator<WeaponInfo> >
  00018	83 c4 14	 add	 esp, 20			; 00000014H

; 1319 : 		}

  0001b	5d		 pop	 ebp
  0001c	c2 0c 00	 ret	 12			; 0000000cH
??$_Ucopy@PAUWeaponInfo@@@?$vector@UWeaponInfo@@V?$allocator@UWeaponInfo@@@std@@@std@@IAEPAUWeaponInfo@@PAU2@00@Z ENDP ; std::vector<WeaponInfo,std::allocator<WeaponInfo> >::_Ucopy<WeaponInfo *>
_TEXT	ENDS
PUBLIC	_pOwner$GSCopy$
PUBLIC	?ProcessCancel@ioConsecutionItem@@MAE_NPAVioBaseChar@@@Z ; ioConsecutionItem::ProcessCancel
EXTRN	?SetJumpState@ioBaseChar@@QAEX_N@Z:PROC		; ioBaseChar::SetJumpState
EXTRN	?IsBuffLimitJump@ioBaseChar@@QBE_NXZ:PROC	; ioBaseChar::IsBuffLimitJump
EXTRN	?SendDashState@ioBaseChar@@QAEX_N0@Z:PROC	; ioBaseChar::SendDashState
EXTRN	?SetDashState@ioBaseChar@@QAEX_N@Z:PROC		; ioBaseChar::SetDashState
EXTRN	?ChangeDirectionByInputDir@ioBaseChar@@QAE_N_N0@Z:PROC ; ioBaseChar::ChangeDirectionByInputDir
EXTRN	?HasBuff@ioBaseChar@@QBE_NH@Z:PROC		; ioBaseChar::HasBuff
EXTRN	__imp_?IsEmpty@ioHashString@@QBE_NXZ:PROC
;	COMDAT xdata$x
; File c:\program files (x86)\microsoft visual studio 10.0\vc\include\xmemory
xdata$x	SEGMENT
__unwindtable$?ProcessCancel@ioConsecutionItem@@MAE_NPAVioBaseChar@@@Z DD 0ffffffffH
	DD	FLAT:__unwindfunclet$?ProcessCancel@ioConsecutionItem@@MAE_NPAVioBaseChar@@@Z$0
	DD	00H
	DD	FLAT:__unwindfunclet$?ProcessCancel@ioConsecutionItem@@MAE_NPAVioBaseChar@@@Z$2
__ehfuncinfo$?ProcessCancel@ioConsecutionItem@@MAE_NPAVioBaseChar@@@Z DD 019930522H
	DD	02H
	DD	FLAT:__unwindtable$?ProcessCancel@ioConsecutionItem@@MAE_NPAVioBaseChar@@@Z
	DD	2 DUP(00H)
	DD	2 DUP(00H)
	DD	00H
	DD	01H
; Function compile flags: /Ogsp
; File d:\lost saga for developer\youtube\tutorial\source\src\lsclient\ioconsecutionitem.cpp
xdata$x	ENDS
;	COMDAT ?ProcessCancel@ioConsecutionItem@@MAE_NPAVioBaseChar@@@Z
_TEXT	SEGMENT
$T609759 = -80						; size = 16
tv1391 = -64						; size = 4
_vTimeList$ = -60					; size = 12
_pOwner$GSCopy$ = -48					; size = 4
tv1251 = -44						; size = 4
$T609700 = -44						; size = 4
$T609702 = -44						; size = 4
_dwCurTime$ = -40					; size = 4
_iAniID$ = -40						; size = 4
_szEncEventType$609772 = -36				; size = 13
__$EHRec$ = -12						; size = 12
_pOwner$ = 8						; size = 4
?ProcessCancel@ioConsecutionItem@@MAE_NPAVioBaseChar@@@Z PROC ; ioConsecutionItem::ProcessCancel, COMDAT
; _this$ = ecx

; 474  : {

  00000	6a 44		 push	 68			; 00000044H
  00002	b8 00 00 00 00	 mov	 eax, __ehhandler$?ProcessCancel@ioConsecutionItem@@MAE_NPAVioBaseChar@@@Z
  00007	e8 00 00 00 00	 call	 __EH_prolog3_GS
  0000c	8b 75 08	 mov	 esi, DWORD PTR _pOwner$[ebp]
  0000f	8b f9		 mov	 edi, ecx

; 475  : 	if( m_szCurAni.IsEmpty() )

  00011	8d 8f 10 0f 00
	00		 lea	 ecx, DWORD PTR [edi+3856]

; 513  : 			{
; 514  : 				pOwner->SetJumpState();

  00017	89 75 d0	 mov	 DWORD PTR _pOwner$GSCopy$[ebp], esi
  0001a	ff 15 00 00 00
	00		 call	 DWORD PTR __imp_?IsEmpty@ioHashString@@QBE_NXZ
  00020	84 c0		 test	 al, al
  00022	74 0a		 je	 SHORT $LN11@ProcessCan
$LN238@ProcessCan:

; 476  : 		return false;

  00024	32 c0		 xor	 al, al
$LN12@ProcessCan:

; 525  : 	}
; 526  : 
; 527  : 	return false;
; 528  : }

  00026	e8 00 00 00 00	 call	 __EH_epilog3_GS
  0002b	c2 04 00	 ret	 4
$LN11@ProcessCan:

; 477  : 
; 478  : 	if( !pOwner ) return false;

  0002e	33 db		 xor	 ebx, ebx
  00030	3b f3		 cmp	 esi, ebx
  00032	74 f0		 je	 SHORT $LN238@ProcessCan

; 479  : 
; 480  : 	ioEntityGroup *pGrp = pOwner->GetGroup();

  00034	8b 76 04	 mov	 esi, DWORD PTR [esi+4]

; 481  : 	if( !pGrp ) return false;

  00037	3b f3		 cmp	 esi, ebx
  00039	74 e9		 je	 SHORT $LN238@ProcessCan

; 482  : 
; 483  : 	int iAniID = pGrp->GetAnimationIdx( m_szCurAni );

  0003b	8d 87 10 0f 00
	00		 lea	 eax, DWORD PTR [edi+3856]
  00041	50		 push	 eax
  00042	8b ce		 mov	 ecx, esi
  00044	ff 15 00 00 00
	00		 call	 DWORD PTR __imp_?GetAnimationIdx@ioEntityGroup@@QAEHABVioHashString@@@Z

; 484  : 
; 485  : 	std::list<float> vTimeList;

  0004a	51		 push	 ecx
  0004b	89 65 d4	 mov	 DWORD PTR $T609702[ebp], esp
  0004e	8d 4d c4	 lea	 ecx, DWORD PTR _vTimeList$[ebp]
  00051	89 45 d8	 mov	 DWORD PTR _iAniID$[ebp], eax
  00054	89 65 d4	 mov	 DWORD PTR $T609700[ebp], esp
  00057	e8 00 00 00 00	 call	 ??0?$_List_val@MV?$allocator@M@std@@@std@@QAE@V?$allocator@M@1@@Z ; std::_List_val<float,std::allocator<float> >::_List_val<float,std::allocator<float> >
  0005c	6a 03		 push	 3
  0005e	89 5d fc	 mov	 DWORD PTR __$EHRec$[ebp+8], ebx

; 486  : 	pGrp->GetAnimationEventTimeList_e( iAniID, "input_jump_s", vTimeList );

  00061	c7 45 dc 84 82
	9b 9f		 mov	 DWORD PTR _szEncEventType$609772[ebp], -1617198460 ; 9f9b8284H
  00068	c7 45 e0 99 b3
	81 9f		 mov	 DWORD PTR _szEncEventType$609772[ebp+4], -1618889831 ; 9f81b399H
  0006f	c7 45 e4 80 9c
	b4 99		 mov	 DWORD PTR _szEncEventType$609772[ebp+8], -1716216704 ; 99b49c80H
  00076	8d 45 dc	 lea	 eax, DWORD PTR _szEncEventType$609772[ebp]
  00079	88 5d e8	 mov	 BYTE PTR _szEncEventType$609772[ebp+12], bl
  0007c	59		 pop	 ecx
$LL126@ProcessCan:
  0007d	81 30 ed ec eb
	ea		 xor	 DWORD PTR [eax], -353637139 ; eaebecedH
  00083	83 c0 04	 add	 eax, 4
  00086	49		 dec	 ecx
  00087	75 f4		 jne	 SHORT $LL126@ProcessCan
  00089	8d 45 dc	 lea	 eax, DWORD PTR _szEncEventType$609772[ebp]
  0008c	50		 push	 eax
  0008d	8d 4d b0	 lea	 ecx, DWORD PTR $T609759[ebp]
  00090	ff 15 00 00 00
	00		 call	 DWORD PTR __imp_??0ioHashString@@QAE@PBD@Z
  00096	8d 45 c4	 lea	 eax, DWORD PTR _vTimeList$[ebp]
  00099	50		 push	 eax
  0009a	8d 45 b0	 lea	 eax, DWORD PTR $T609759[ebp]
  0009d	50		 push	 eax
  0009e	ff 75 d8	 push	 DWORD PTR _iAniID$[ebp]
  000a1	8b ce		 mov	 ecx, esi
  000a3	c6 45 fc 01	 mov	 BYTE PTR __$EHRec$[ebp+8], 1
  000a7	ff 15 00 00 00
	00		 call	 DWORD PTR __imp_?GetAnimationEventTimeList@ioEntityGroup@@QAEHHABVioHashString@@AAV?$list@MV?$allocator@M@std@@@std@@@Z
  000ad	8d 4d b0	 lea	 ecx, DWORD PTR $T609759[ebp]
  000b0	88 5d fc	 mov	 BYTE PTR __$EHRec$[ebp+8], bl
  000b3	ff 15 00 00 00
	00		 call	 DWORD PTR __imp_??1ioHashString@@QAE@XZ

; 487  : 
; 488  : 	if( vTimeList.empty() )

  000b9	39 5d c8	 cmp	 DWORD PTR _vTimeList$[ebp+4], ebx
  000bc	75 18		 jne	 SHORT $LN8@ProcessCan
$LN229@ProcessCan:

; 489  : 		return false;

  000be	8d 4d c4	 lea	 ecx, DWORD PTR _vTimeList$[ebp]
  000c1	e8 00 00 00 00	 call	 ?clear@?$list@MV?$allocator@M@std@@@std@@QAEXXZ ; std::list<float,std::allocator<float> >::clear
  000c6	ff 75 c4	 push	 DWORD PTR _vTimeList$[ebp]
  000c9	e8 00 00 00 00	 call	 ??3@YAXPAX@Z		; operator delete
  000ce	59		 pop	 ecx
  000cf	8a c3		 mov	 al, bl
  000d1	e9 50 ff ff ff	 jmp	 $LN12@ProcessCan
$LN8@ProcessCan:

; 490  : 
; 491  : 	DWORD dwCurTime = FRAMEGETTIME();

  000d6	ff 15 00 00 00
	00		 call	 DWORD PTR __imp_?GetSingleton@ioFrameTimer@@SAAAV1@XZ
  000dc	8b c8		 mov	 ecx, eax
  000de	ff 15 00 00 00
	00		 call	 DWORD PTR __imp_?GetLoopSec@ioFrameTimer@@QBEKXZ
  000e4	89 45 d8	 mov	 DWORD PTR _dwCurTime$[ebp], eax

; 492  : 	std::list< float >::iterator iter = vTimeList.begin();

  000e7	8b 45 c4	 mov	 eax, DWORD PTR _vTimeList$[ebp]
  000ea	8b 30		 mov	 esi, DWORD PTR [eax]

; 493  : 	while( iter != vTimeList.end() )

  000ec	3b f0		 cmp	 esi, eax
  000ee	74 ce		 je	 SHORT $LN229@ProcessCan
  000f0	f3 0f 10 87 20
	0f 00 00	 movss	 xmm0, DWORD PTR [edi+3872]
  000f8	f3 0f 11 45 d4	 movss	 DWORD PTR tv1251[ebp], xmm0
$LL7@ProcessCan:

; 497  : 
; 498  : 		dwTime += m_dwInputCancelCheckTime;

  000fd	d9 46 08	 fld	 DWORD PTR [esi+8]
  00100	e8 00 00 00 00	 call	 __ftol2
  00105	89 45 c0	 mov	 DWORD PTR tv1391[ebp], eax
  00108	db 45 c0	 fild	 DWORD PTR tv1391[ebp]
  0010b	85 c0		 test	 eax, eax
  0010d	79 06		 jns	 SHORT $LN236@ProcessCan
  0010f	d8 05 00 00 00
	00		 fadd	 DWORD PTR __real@4f800000
$LN236@ProcessCan:

; 494  : 	{
; 495  : 		DWORD dwTime = (DWORD)*iter;
; 496  : 		dwTime *= m_fCurAniRate;

  00115	d8 4d d4	 fmul	 DWORD PTR tv1251[ebp]

; 497  : 
; 498  : 		dwTime += m_dwInputCancelCheckTime;

  00118	e8 00 00 00 00	 call	 __ftol2

; 499  : 
; 500  : 		if( m_dwCancelCheckTime > 0 && COMPARE( dwTime, m_dwCancelCheckTime, dwCurTime ) )

  0011d	8b 8f 08 0f 00
	00		 mov	 ecx, DWORD PTR [edi+3848]
  00123	03 87 0c 0f 00
	00		 add	 eax, DWORD PTR [edi+3852]
  00129	3b cb		 cmp	 ecx, ebx
  0012b	76 09		 jbe	 SHORT $LN5@ProcessCan
  0012d	3b c1		 cmp	 eax, ecx
  0012f	72 05		 jb	 SHORT $LN5@ProcessCan
  00131	3b 45 d8	 cmp	 eax, DWORD PTR _dwCurTime$[ebp]
  00134	72 11		 jb	 SHORT $LN224@ProcessCan
$LN5@ProcessCan:

; 515  : 				return true;
; 516  : 			}
; 517  : 
; 518  : 			return false;
; 519  : 		}
; 520  : 
; 521  : 		if( dwTime > dwCurTime )

  00136	3b 45 d8	 cmp	 eax, DWORD PTR _dwCurTime$[ebp]
  00139	77 83		 ja	 SHORT $LN229@ProcessCan

; 522  : 			return false;
; 523  : 
; 524  : 		iter++;

  0013b	8b 36		 mov	 esi, DWORD PTR [esi]
  0013d	3b 75 c4	 cmp	 esi, DWORD PTR _vTimeList$[ebp]
  00140	75 bb		 jne	 SHORT $LL7@ProcessCan

; 515  : 				return true;
; 516  : 			}
; 517  : 
; 518  : 			return false;
; 519  : 		}
; 520  : 
; 521  : 		if( dwTime > dwCurTime )

  00142	e9 77 ff ff ff	 jmp	 $LN229@ProcessCan
$LN224@ProcessCan:

; 501  : 		{
; 502  : 			m_dwCancelCheckTime = dwTime+1;
; 503  : 			
; 504  : 			if( m_bCharged && pOwner->IsDirKeyDoubleClick() && !pOwner->HasBuff(BT_DISABLE_DASH) )

  00147	8b 75 d0	 mov	 esi, DWORD PTR _pOwner$GSCopy$[ebp]
  0014a	40		 inc	 eax
  0014b	89 87 08 0f 00
	00		 mov	 DWORD PTR [edi+3848], eax
  00151	38 9f d0 19 00
	00		 cmp	 BYTE PTR [edi+6608], bl
  00157	74 3e		 je	 SHORT $LN4@ProcessCan
  00159	8d 8e 80 0c 00
	00		 lea	 ecx, DWORD PTR [esi+3200]
  0015f	e8 00 00 00 00	 call	 ?IsDirDoubleClick@ioUserKeyInput@@QBE_NXZ ; ioUserKeyInput::IsDirDoubleClick
  00164	84 c0		 test	 al, al
  00166	74 2f		 je	 SHORT $LN4@ProcessCan
  00168	6a 34		 push	 52			; 00000034H
  0016a	8b ce		 mov	 ecx, esi
  0016c	e8 00 00 00 00	 call	 ?HasBuff@ioBaseChar@@QBE_NH@Z ; ioBaseChar::HasBuff
  00171	84 c0		 test	 al, al
  00173	75 22		 jne	 SHORT $LN4@ProcessCan

; 505  : 			{
; 506  : 				pOwner->ChangeDirectionByInputDir( false );

  00175	6a 01		 push	 1
  00177	53		 push	 ebx
  00178	8b ce		 mov	 ecx, esi
  0017a	e8 00 00 00 00	 call	 ?ChangeDirectionByInputDir@ioBaseChar@@QAE_N_N0@Z ; ioBaseChar::ChangeDirectionByInputDir

; 507  : 				pOwner->SetDashState( false );

  0017f	53		 push	 ebx
  00180	8b ce		 mov	 ecx, esi
  00182	e8 00 00 00 00	 call	 ?SetDashState@ioBaseChar@@QAEX_N@Z ; ioBaseChar::SetDashState

; 508  : 				pOwner->SendDashState( false );

  00187	53		 push	 ebx
  00188	53		 push	 ebx
  00189	8b ce		 mov	 ecx, esi
  0018b	e8 00 00 00 00	 call	 ?SendDashState@ioBaseChar@@QAEX_N0@Z ; ioBaseChar::SendDashState
$LN237@ProcessCan:
  00190	b3 01		 mov	 bl, 1
  00192	e9 27 ff ff ff	 jmp	 $LN229@ProcessCan
$LN4@ProcessCan:

; 509  : 				
; 510  : 				return true;
; 511  : 			}
; 512  : 			else if( m_bEnableJumpState && !pOwner->IsBuffLimitJump() )

  00197	38 9f 02 0f 00
	00		 cmp	 BYTE PTR [edi+3842], bl
  0019d	0f 84 1b ff ff
	ff		 je	 $LN229@ProcessCan
  001a3	8b ce		 mov	 ecx, esi
  001a5	e8 00 00 00 00	 call	 ?IsBuffLimitJump@ioBaseChar@@QBE_NXZ ; ioBaseChar::IsBuffLimitJump
  001aa	84 c0		 test	 al, al
  001ac	0f 85 0c ff ff
	ff		 jne	 $LN229@ProcessCan

; 513  : 			{
; 514  : 				pOwner->SetJumpState();

  001b2	6a 01		 push	 1
  001b4	8b ce		 mov	 ecx, esi
  001b6	e8 00 00 00 00	 call	 ?SetJumpState@ioBaseChar@@QAEX_N@Z ; ioBaseChar::SetJumpState
  001bb	eb d3		 jmp	 SHORT $LN237@ProcessCan
_TEXT	ENDS
;	COMDAT text$x
text$x	SEGMENT
__unwindfunclet$?ProcessCancel@ioConsecutionItem@@MAE_NPAVioBaseChar@@@Z$0:
  00000	8d 4d c4	 lea	 ecx, DWORD PTR _vTimeList$[ebp]
  00003	e9 00 00 00 00	 jmp	 ??1?$list@MV?$allocator@M@std@@@std@@QAE@XZ ; std::list<float,std::allocator<float> >::~list<float,std::allocator<float> >
__unwindfunclet$?ProcessCancel@ioConsecutionItem@@MAE_NPAVioBaseChar@@@Z$2:
  00008	8d 4d b0	 lea	 ecx, DWORD PTR $T609759[ebp]
  0000b	ff 25 00 00 00
	00		 jmp	 DWORD PTR __imp_??1ioHashString@@QAE@XZ
__ehhandler$?ProcessCancel@ioConsecutionItem@@MAE_NPAVioBaseChar@@@Z:
  00011	8b 54 24 08	 mov	 edx, DWORD PTR [esp+8]
  00015	8d 42 0c	 lea	 eax, DWORD PTR [edx+12]
  00018	8b 4a ac	 mov	 ecx, DWORD PTR [edx-84]
  0001b	33 c8		 xor	 ecx, eax
  0001d	e8 00 00 00 00	 call	 @__security_check_cookie@4
  00022	8b 4a fc	 mov	 ecx, DWORD PTR [edx-4]
  00025	33 c8		 xor	 ecx, eax
  00027	e8 00 00 00 00	 call	 @__security_check_cookie@4
  0002c	b8 00 00 00 00	 mov	 eax, OFFSET __ehfuncinfo$?ProcessCancel@ioConsecutionItem@@MAE_NPAVioBaseChar@@@Z
  00031	e9 00 00 00 00	 jmp	 ___CxxFrameHandler3
text$x	ENDS
?ProcessCancel@ioConsecutionItem@@MAE_NPAVioBaseChar@@@Z ENDP ; ioConsecutionItem::ProcessCancel
PUBLIC	??$_Ucopy@V?$_Vector_const_iterator@V?$_Vector_val@UWeaponInfo@@V?$allocator@UWeaponInfo@@@std@@@std@@@std@@@?$vector@UWeaponInfo@@V?$allocator@UWeaponInfo@@@std@@@std@@IAEPAUWeaponInfo@@V?$_Vector_const_iterator@V?$_Vector_val@UWeaponInfo@@V?$allocator@UWeaponInfo@@@std@@@std@@@1@0PAU2@@Z ; std::vector<WeaponInfo,std::allocator<WeaponInfo> >::_Ucopy<std::_Vector_const_iterator<std::_Vector_val<WeaponInfo,std::allocator<WeaponInfo> > > >
; Function compile flags: /Ogsp
; File c:\program files (x86)\microsoft visual studio 10.0\vc\include\vector
;	COMDAT ??$_Ucopy@V?$_Vector_const_iterator@V?$_Vector_val@UWeaponInfo@@V?$allocator@UWeaponInfo@@@std@@@std@@@std@@@?$vector@UWeaponInfo@@V?$allocator@UWeaponInfo@@@std@@@std@@IAEPAUWeaponInfo@@V?$_Vector_const_iterator@V?$_Vector_val@UWeaponInfo@@V?$allocator@UWeaponInfo@@@std@@@std@@@1@0PAU2@@Z
_TEXT	SEGMENT
__First$ = 8						; size = 4
__Last$ = 12						; size = 4
__Cat$610129 = 16					; size = 1
__Ptr$ = 16						; size = 4
??$_Ucopy@V?$_Vector_const_iterator@V?$_Vector_val@UWeaponInfo@@V?$allocator@UWeaponInfo@@@std@@@std@@@std@@@?$vector@UWeaponInfo@@V?$allocator@UWeaponInfo@@@std@@@std@@IAEPAUWeaponInfo@@V?$_Vector_const_iterator@V?$_Vector_val@UWeaponInfo@@V?$allocator@UWeaponInfo@@@std@@@std@@@1@0PAU2@@Z PROC ; std::vector<WeaponInfo,std::allocator<WeaponInfo> >::_Ucopy<std::_Vector_const_iterator<std::_Vector_val<WeaponInfo,std::allocator<WeaponInfo> > > >, COMDAT
; _this$ = ecx

; 1315 : 		pointer _Ucopy(_Iter _First, _Iter _Last, pointer _Ptr)

  00000	55		 push	 ebp
  00001	8b ec		 mov	 ebp, esp

; 1316 : 		{	// copy initializing [_First, _Last), using allocator
; 1317 : 		return (_Uninitialized_copy(_First, _Last,
; 1318 : 			_Ptr, this->_Alval));

  00003	ff 75 10	 push	 DWORD PTR __Cat$610129[ebp]
  00006	83 c1 0c	 add	 ecx, 12			; 0000000cH
  00009	51		 push	 ecx
  0000a	ff 75 10	 push	 DWORD PTR __Ptr$[ebp]
  0000d	ff 75 0c	 push	 DWORD PTR __Last$[ebp]
  00010	ff 75 08	 push	 DWORD PTR __First$[ebp]
  00013	e8 00 00 00 00	 call	 ??$_Uninit_copy@V?$_Vector_const_iterator@V?$_Vector_val@UWeaponInfo@@V?$allocator@UWeaponInfo@@@std@@@std@@@std@@PAUWeaponInfo@@V?$allocator@UWeaponInfo@@@2@@std@@YAPAUWeaponInfo@@V?$_Vector_const_iterator@V?$_Vector_val@UWeaponInfo@@V?$allocator@UWeaponInfo@@@std@@@std@@@0@0PAU1@AAV?$allocator@UWeaponInfo@@@0@U_Nonscalar_ptr_iterator_tag@0@@Z ; std::_Uninit_copy<std::_Vector_const_iterator<std::_Vector_val<WeaponInfo,std::allocator<WeaponInfo> > >,WeaponInfo *,std::allocator<WeaponInfo> >
  00018	83 c4 14	 add	 esp, 20			; 00000014H

; 1319 : 		}

  0001b	5d		 pop	 ebp
  0001c	c2 0c 00	 ret	 12			; 0000000cH
??$_Ucopy@V?$_Vector_const_iterator@V?$_Vector_val@UWeaponInfo@@V?$allocator@UWeaponInfo@@@std@@@std@@@std@@@?$vector@UWeaponInfo@@V?$allocator@UWeaponInfo@@@std@@@std@@IAEPAUWeaponInfo@@V?$_Vector_const_iterator@V?$_Vector_val@UWeaponInfo@@V?$allocator@UWeaponInfo@@@std@@@std@@@1@0PAU2@@Z ENDP ; std::vector<WeaponInfo,std::allocator<WeaponInfo> >::_Ucopy<std::_Vector_const_iterator<std::_Vector_val<WeaponInfo,std::allocator<WeaponInfo> > > >
_TEXT	ENDS
PUBLIC	??$_Umove@PAVioHashString@@@?$vector@VioHashString@@V?$allocator@VioHashString@@@std@@@std@@IAEPAVioHashString@@PAV2@00@Z ; std::vector<ioHashString,std::allocator<ioHashString> >::_Umove<ioHashString *>
; Function compile flags: /Ogsp
;	COMDAT ??$_Umove@PAVioHashString@@@?$vector@VioHashString@@V?$allocator@VioHashString@@@std@@@std@@IAEPAVioHashString@@PAV2@00@Z
_TEXT	SEGMENT
__First$ = 8						; size = 4
__Last$ = 12						; size = 4
__Ptr$ = 16						; size = 4
??$_Umove@PAVioHashString@@@?$vector@VioHashString@@V?$allocator@VioHashString@@@std@@@std@@IAEPAVioHashString@@PAV2@00@Z PROC ; std::vector<ioHashString,std::allocator<ioHashString> >::_Umove<ioHashString *>, COMDAT
; _this$ = ecx

; 1322 : 		pointer _Umove(_Iter _First, _Iter _Last, pointer _Ptr)

  00000	55		 push	 ebp
  00001	8b ec		 mov	 ebp, esp

; 1323 : 		{	// move initializing [_First, _Last), using allocator
; 1324 : 		return (_Uninitialized_move(_First, _Last,
; 1325 : 			_Ptr, this->_Alval));

  00003	83 c1 0c	 add	 ecx, 12			; 0000000cH
  00006	51		 push	 ecx
  00007	ff 75 10	 push	 DWORD PTR __Ptr$[ebp]
  0000a	ff 75 0c	 push	 DWORD PTR __Last$[ebp]
  0000d	ff 75 08	 push	 DWORD PTR __First$[ebp]
  00010	e8 00 00 00 00	 call	 ??$_Uninitialized_move@PAVioHashString@@PAV1@V?$allocator@VioHashString@@@std@@@std@@YAPAVioHashString@@PAV1@00AAV?$allocator@VioHashString@@@0@@Z ; std::_Uninitialized_move<ioHashString *,ioHashString *,std::allocator<ioHashString> >
  00015	83 c4 10	 add	 esp, 16			; 00000010H

; 1326 : 		}

  00018	5d		 pop	 ebp
  00019	c2 0c 00	 ret	 12			; 0000000cH
??$_Umove@PAVioHashString@@@?$vector@VioHashString@@V?$allocator@VioHashString@@@std@@@std@@IAEPAVioHashString@@PAV2@00@Z ENDP ; std::vector<ioHashString,std::allocator<ioHashString> >::_Umove<ioHashString *>
_TEXT	ENDS
PUBLIC	?_Tidy@?$vector@UForceInfo@@V?$allocator@UForceInfo@@@std@@@std@@IAEXXZ ; std::vector<ForceInfo,std::allocator<ForceInfo> >::_Tidy
EXTRN	__imp_?_Orphan_all@_Container_base0@std@@QAEXXZ:PROC
; Function compile flags: /Ogsp
;	COMDAT ?_Tidy@?$vector@UForceInfo@@V?$allocator@UForceInfo@@@std@@@std@@IAEXXZ
_TEXT	SEGMENT
?_Tidy@?$vector@UForceInfo@@V?$allocator@UForceInfo@@@std@@@std@@IAEXXZ PROC ; std::vector<ForceInfo,std::allocator<ForceInfo> >::_Tidy, COMDAT
; _this$ = ecx

; 1301 : 		{	// free all storage

  00000	56		 push	 esi
  00001	8b f1		 mov	 esi, ecx

; 1302 : 		if (this->_Myfirst != 0)

  00003	83 3e 00	 cmp	 DWORD PTR [esi], 0
  00006	74 0e		 je	 SHORT $LN21@Tidy

; 1303 : 			{	// something to free, destroy and deallocate it
; 1304 : 			this->_Orphan_all();

  00008	ff 15 00 00 00
	00		 call	 DWORD PTR __imp_?_Orphan_all@_Container_base0@std@@QAEXXZ

; 1305 : 			_Destroy(this->_Myfirst, this->_Mylast);
; 1306 : 			this->_Alval.deallocate(this->_Myfirst,
; 1307 : 				this->_Myend - this->_Myfirst);

  0000e	ff 36		 push	 DWORD PTR [esi]
  00010	e8 00 00 00 00	 call	 ??3@YAXPAX@Z		; operator delete
  00015	59		 pop	 ecx
$LN21@Tidy:

; 1308 : 			}
; 1309 : 		this->_Myfirst = 0;

  00016	83 26 00	 and	 DWORD PTR [esi], 0

; 1310 : 		this->_Mylast = 0;

  00019	83 66 04 00	 and	 DWORD PTR [esi+4], 0

; 1311 : 		this->_Myend = 0;

  0001d	83 66 08 00	 and	 DWORD PTR [esi+8], 0
  00021	5e		 pop	 esi

; 1312 : 		}

  00022	c3		 ret	 0
?_Tidy@?$vector@UForceInfo@@V?$allocator@UForceInfo@@@std@@@std@@IAEXXZ ENDP ; std::vector<ForceInfo,std::allocator<ForceInfo> >::_Tidy
_TEXT	ENDS
PUBLIC	?_Destroy@?$vector@VioHashString@@V?$allocator@VioHashString@@@std@@@std@@IAEXPAVioHashString@@0@Z ; std::vector<ioHashString,std::allocator<ioHashString> >::_Destroy
; Function compile flags: /Ogsp
;	COMDAT ?_Destroy@?$vector@VioHashString@@V?$allocator@VioHashString@@@std@@@std@@IAEXPAVioHashString@@0@Z
_TEXT	SEGMENT
__First$ = 8						; size = 4
__Last$ = 12						; size = 4
?_Destroy@?$vector@VioHashString@@V?$allocator@VioHashString@@@std@@@std@@IAEXPAVioHashString@@0@Z PROC ; std::vector<ioHashString,std::allocator<ioHashString> >::_Destroy, COMDAT
; _this$ = ecx

; 1269 : 		{	// destroy [_First, _Last) using allocator

  00000	55		 push	 ebp
  00001	8b ec		 mov	 ebp, esp
  00003	56		 push	 esi

; 1270 : 		_Destroy_range(_First, _Last, this->_Alval);

  00004	8b 75 08	 mov	 esi, DWORD PTR __First$[ebp]
  00007	eb 0b		 jmp	 SHORT $LN23@Destroy
$LL9@Destroy:
  00009	8b ce		 mov	 ecx, esi
  0000b	ff 15 00 00 00
	00		 call	 DWORD PTR __imp_??1ioHashString@@QAE@XZ
  00011	83 c6 10	 add	 esi, 16			; 00000010H
$LN23@Destroy:
  00014	3b 75 0c	 cmp	 esi, DWORD PTR __Last$[ebp]
  00017	75 f0		 jne	 SHORT $LL9@Destroy
  00019	5e		 pop	 esi

; 1271 : 		}

  0001a	5d		 pop	 ebp
  0001b	c2 08 00	 ret	 8
?_Destroy@?$vector@VioHashString@@V?$allocator@VioHashString@@@std@@@std@@IAEXPAVioHashString@@0@Z ENDP ; std::vector<ioHashString,std::allocator<ioHashString> >::_Destroy
_TEXT	ENDS
PUBLIC	?_Destroy@?$vector@UWeaponInfo@@V?$allocator@UWeaponInfo@@@std@@@std@@IAEXPAUWeaponInfo@@0@Z ; std::vector<WeaponInfo,std::allocator<WeaponInfo> >::_Destroy
; Function compile flags: /Ogsp
;	COMDAT ?_Destroy@?$vector@UWeaponInfo@@V?$allocator@UWeaponInfo@@@std@@@std@@IAEXPAUWeaponInfo@@0@Z
_TEXT	SEGMENT
__First$ = 8						; size = 4
__Last$ = 12						; size = 4
?_Destroy@?$vector@UWeaponInfo@@V?$allocator@UWeaponInfo@@@std@@@std@@IAEXPAUWeaponInfo@@0@Z PROC ; std::vector<WeaponInfo,std::allocator<WeaponInfo> >::_Destroy, COMDAT
; _this$ = ecx

; 1269 : 		{	// destroy [_First, _Last) using allocator

  00000	55		 push	 ebp
  00001	8b ec		 mov	 ebp, esp

; 1270 : 		_Destroy_range(_First, _Last, this->_Alval);

  00003	83 c1 0c	 add	 ecx, 12			; 0000000cH
  00006	51		 push	 ecx
  00007	ff 75 0c	 push	 DWORD PTR __Last$[ebp]
  0000a	ff 75 08	 push	 DWORD PTR __First$[ebp]
  0000d	e8 00 00 00 00	 call	 ??$_Destroy_range@V?$allocator@UWeaponInfo@@@std@@@std@@YAXPAUWeaponInfo@@0AAV?$allocator@UWeaponInfo@@@0@@Z ; std::_Destroy_range<std::allocator<WeaponInfo> >
  00012	83 c4 0c	 add	 esp, 12			; 0000000cH

; 1271 : 		}

  00015	5d		 pop	 ebp
  00016	c2 08 00	 ret	 8
?_Destroy@?$vector@UWeaponInfo@@V?$allocator@UWeaponInfo@@@std@@@std@@IAEXPAUWeaponInfo@@0@Z ENDP ; std::vector<WeaponInfo,std::allocator<WeaponInfo> >::_Destroy
_TEXT	ENDS
PUBLIC	??$_Ucopy@V?$_Vector_const_iterator@V?$_Vector_val@VioHashString@@V?$allocator@VioHashString@@@std@@@std@@@std@@@?$vector@VioHashString@@V?$allocator@VioHashString@@@std@@@std@@IAEPAVioHashString@@V?$_Vector_const_iterator@V?$_Vector_val@VioHashString@@V?$allocator@VioHashString@@@std@@@std@@@1@0PAV2@@Z ; std::vector<ioHashString,std::allocator<ioHashString> >::_Ucopy<std::_Vector_const_iterator<std::_Vector_val<ioHashString,std::allocator<ioHashString> > > >
; Function compile flags: /Ogsp
;	COMDAT ??$_Ucopy@V?$_Vector_const_iterator@V?$_Vector_val@VioHashString@@V?$allocator@VioHashString@@@std@@@std@@@std@@@?$vector@VioHashString@@V?$allocator@VioHashString@@@std@@@std@@IAEPAVioHashString@@V?$_Vector_const_iterator@V?$_Vector_val@VioHashString@@V?$allocator@VioHashString@@@std@@@std@@@1@0PAV2@@Z
_TEXT	SEGMENT
__First$ = 8						; size = 4
__Last$ = 12						; size = 4
__Cat$610305 = 16					; size = 1
__Ptr$ = 16						; size = 4
??$_Ucopy@V?$_Vector_const_iterator@V?$_Vector_val@VioHashString@@V?$allocator@VioHashString@@@std@@@std@@@std@@@?$vector@VioHashString@@V?$allocator@VioHashString@@@std@@@std@@IAEPAVioHashString@@V?$_Vector_const_iterator@V?$_Vector_val@VioHashString@@V?$allocator@VioHashString@@@std@@@std@@@1@0PAV2@@Z PROC ; std::vector<ioHashString,std::allocator<ioHashString> >::_Ucopy<std::_Vector_const_iterator<std::_Vector_val<ioHashString,std::allocator<ioHashString> > > >, COMDAT
; _this$ = ecx

; 1315 : 		pointer _Ucopy(_Iter _First, _Iter _Last, pointer _Ptr)

  00000	55		 push	 ebp
  00001	8b ec		 mov	 ebp, esp

; 1316 : 		{	// copy initializing [_First, _Last), using allocator
; 1317 : 		return (_Uninitialized_copy(_First, _Last,
; 1318 : 			_Ptr, this->_Alval));

  00003	ff 75 10	 push	 DWORD PTR __Cat$610305[ebp]
  00006	83 c1 0c	 add	 ecx, 12			; 0000000cH
  00009	51		 push	 ecx
  0000a	ff 75 10	 push	 DWORD PTR __Ptr$[ebp]
  0000d	ff 75 0c	 push	 DWORD PTR __Last$[ebp]
  00010	ff 75 08	 push	 DWORD PTR __First$[ebp]
  00013	e8 00 00 00 00	 call	 ??$_Uninit_copy@V?$_Vector_const_iterator@V?$_Vector_val@VioHashString@@V?$allocator@VioHashString@@@std@@@std@@@std@@PAVioHashString@@V?$allocator@VioHashString@@@2@@std@@YAPAVioHashString@@V?$_Vector_const_iterator@V?$_Vector_val@VioHashString@@V?$allocator@VioHashString@@@std@@@std@@@0@0PAV1@AAV?$allocator@VioHashString@@@0@U_Nonscalar_ptr_iterator_tag@0@@Z ; std::_Uninit_copy<std::_Vector_const_iterator<std::_Vector_val<ioHashString,std::allocator<ioHashString> > >,ioHashString *,std::allocator<ioHashString> >
  00018	83 c4 14	 add	 esp, 20			; 00000014H

; 1319 : 		}

  0001b	5d		 pop	 ebp
  0001c	c2 0c 00	 ret	 12			; 0000000cH
??$_Ucopy@V?$_Vector_const_iterator@V?$_Vector_val@VioHashString@@V?$allocator@VioHashString@@@std@@@std@@@std@@@?$vector@VioHashString@@V?$allocator@VioHashString@@@std@@@std@@IAEPAVioHashString@@V?$_Vector_const_iterator@V?$_Vector_val@VioHashString@@V?$allocator@VioHashString@@@std@@@std@@@1@0PAV2@@Z ENDP ; std::vector<ioHashString,std::allocator<ioHashString> >::_Ucopy<std::_Vector_const_iterator<std::_Vector_val<ioHashString,std::allocator<ioHashString> > > >
_TEXT	ENDS
PUBLIC	?clear@?$vector@UForceInfo@@V?$allocator@UForceInfo@@@std@@@std@@QAEXXZ ; std::vector<ForceInfo,std::allocator<ForceInfo> >::clear
; Function compile flags: /Ogsp
;	COMDAT ?clear@?$vector@UForceInfo@@V?$allocator@UForceInfo@@@std@@@std@@QAEXXZ
_TEXT	SEGMENT
$T610315 = -4						; size = 4
?clear@?$vector@UForceInfo@@V?$allocator@UForceInfo@@@std@@@std@@QAEXXZ PROC ; std::vector<ForceInfo,std::allocator<ForceInfo> >::clear, COMDAT
; _this$ = ecx

; 1217 : 		{	// erase all

  00000	55		 push	 ebp
  00001	8b ec		 mov	 ebp, esp
  00003	51		 push	 ecx

; 1218 : 		erase(begin(), end());

  00004	8b 41 04	 mov	 eax, DWORD PTR [ecx+4]
  00007	8b 11		 mov	 edx, DWORD PTR [ecx]
  00009	50		 push	 eax
  0000a	52		 push	 edx
  0000b	8d 45 fc	 lea	 eax, DWORD PTR $T610315[ebp]
  0000e	50		 push	 eax
  0000f	e8 00 00 00 00	 call	 ?erase@?$vector@UForceInfo@@V?$allocator@UForceInfo@@@std@@@std@@QAE?AV?$_Vector_iterator@V?$_Vector_val@UForceInfo@@V?$allocator@UForceInfo@@@std@@@std@@@2@V?$_Vector_const_iterator@V?$_Vector_val@UForceInfo@@V?$allocator@UForceInfo@@@std@@@std@@@2@0@Z ; std::vector<ForceInfo,std::allocator<ForceInfo> >::erase

; 1219 : 		}

  00014	c9		 leave
  00015	c3		 ret	 0
?clear@?$vector@UForceInfo@@V?$allocator@UForceInfo@@@std@@@std@@QAEXXZ ENDP ; std::vector<ForceInfo,std::allocator<ForceInfo> >::clear
_TEXT	ENDS
PUBLIC	?erase@?$vector@UWeaponInfo@@V?$allocator@UWeaponInfo@@@std@@@std@@QAE?AV?$_Vector_iterator@V?$_Vector_val@UWeaponInfo@@V?$allocator@UWeaponInfo@@@std@@@std@@@2@V?$_Vector_const_iterator@V?$_Vector_val@UWeaponInfo@@V?$allocator@UWeaponInfo@@@std@@@std@@@2@0@Z ; std::vector<WeaponInfo,std::allocator<WeaponInfo> >::erase
; Function compile flags: /Ogsp
;	COMDAT ?erase@?$vector@UWeaponInfo@@V?$allocator@UWeaponInfo@@@std@@@std@@QAE?AV?$_Vector_iterator@V?$_Vector_val@UWeaponInfo@@V?$allocator@UWeaponInfo@@@std@@@std@@@2@V?$_Vector_const_iterator@V?$_Vector_val@UWeaponInfo@@V?$allocator@UWeaponInfo@@@std@@@std@@@2@0@Z
_TEXT	SEGMENT
___$ReturnUdt$ = 8					; size = 4
__First_arg$ = 12					; size = 4
__Cat$610441 = 16					; size = 1
__Last_arg$ = 16					; size = 4
?erase@?$vector@UWeaponInfo@@V?$allocator@UWeaponInfo@@@std@@@std@@QAE?AV?$_Vector_iterator@V?$_Vector_val@UWeaponInfo@@V?$allocator@UWeaponInfo@@@std@@@std@@@2@V?$_Vector_const_iterator@V?$_Vector_val@UWeaponInfo@@V?$allocator@UWeaponInfo@@@std@@@std@@@2@0@Z PROC ; std::vector<WeaponInfo,std::allocator<WeaponInfo> >::erase, COMDAT
; _this$ = ecx

; 1190 : 		{	// erase [_First, _Last)

  00000	55		 push	 ebp
  00001	8b ec		 mov	 ebp, esp

; 1191 : 		iterator _First = _Make_iter(_First_arg);

  00003	8b 45 0c	 mov	 eax, DWORD PTR __First_arg$[ebp]
  00006	53		 push	 ebx
  00007	8b 5d 08	 mov	 ebx, DWORD PTR ___$ReturnUdt$[ebp]
  0000a	56		 push	 esi
  0000b	8b f1		 mov	 esi, ecx
  0000d	89 03		 mov	 DWORD PTR [ebx], eax

; 1192 : 		iterator _Last = _Make_iter(_Last_arg);
; 1193 : 
; 1194 : 		if (_First != _Last)

  0000f	3b 45 10	 cmp	 eax, DWORD PTR __Last_arg$[ebp]
  00012	74 27		 je	 SHORT $LN1@erase@2

; 1195 : 			{	// worth doing, copy down over hole
; 1196 :  #if _ITERATOR_DEBUG_LEVEL == 2
; 1197 : 			if (_Last < _First || _VICONT(_First) != this
; 1198 : 				|| _VIPTR(_First) < this->_Myfirst
; 1199 : 				|| this->_Mylast < _VIPTR(_Last))
; 1200 : 				_DEBUG_ERROR("vector erase iterator outside range");
; 1201 : 			pointer _Ptr = _Move(_VIPTR(_Last), this->_Mylast,
; 1202 : 				_VIPTR(_First));
; 1203 : 			_Orphan_range(_VIPTR(_First), this->_Mylast);
; 1204 : 
; 1205 :  #else /* _ITERATOR_DEBUG_LEVEL == 2 */
; 1206 : 			pointer _Ptr = _Move(_VIPTR(_Last), this->_Mylast,
; 1207 : 				_VIPTR(_First));

  00014	8b 4e 04	 mov	 ecx, DWORD PTR [esi+4]
  00017	57		 push	 edi
  00018	ff 75 10	 push	 DWORD PTR __Cat$610441[ebp]
  0001b	50		 push	 eax
  0001c	51		 push	 ecx
  0001d	ff 75 10	 push	 DWORD PTR __Last_arg$[ebp]
  00020	e8 00 00 00 00	 call	 ??$_Move@PAUWeaponInfo@@PAU1@@std@@YAPAUWeaponInfo@@PAU1@00U_Nonscalar_ptr_iterator_tag@0@@Z ; std::_Move<WeaponInfo *,WeaponInfo *>
  00025	8b f8		 mov	 edi, eax

; 1208 :  #endif /* _ITERATOR_DEBUG_LEVEL == 2 */
; 1209 : 
; 1210 : 			_Destroy(_Ptr, this->_Mylast);

  00027	8d 46 0c	 lea	 eax, DWORD PTR [esi+12]
  0002a	50		 push	 eax
  0002b	ff 76 04	 push	 DWORD PTR [esi+4]
  0002e	57		 push	 edi
  0002f	e8 00 00 00 00	 call	 ??$_Destroy_range@V?$allocator@UWeaponInfo@@@std@@@std@@YAXPAUWeaponInfo@@0AAV?$allocator@UWeaponInfo@@@0@@Z ; std::_Destroy_range<std::allocator<WeaponInfo> >
  00034	83 c4 1c	 add	 esp, 28			; 0000001cH

; 1211 : 			this->_Mylast = _Ptr;

  00037	89 7e 04	 mov	 DWORD PTR [esi+4], edi
  0003a	5f		 pop	 edi
$LN1@erase@2:

; 1212 : 			}
; 1213 : 		return (_First);

  0003b	5e		 pop	 esi
  0003c	8b c3		 mov	 eax, ebx
  0003e	5b		 pop	 ebx

; 1214 : 		}

  0003f	5d		 pop	 ebp
  00040	c2 0c 00	 ret	 12			; 0000000cH
?erase@?$vector@UWeaponInfo@@V?$allocator@UWeaponInfo@@@std@@@std@@QAE?AV?$_Vector_iterator@V?$_Vector_val@UWeaponInfo@@V?$allocator@UWeaponInfo@@@std@@@std@@@2@V?$_Vector_const_iterator@V?$_Vector_val@UWeaponInfo@@V?$allocator@UWeaponInfo@@@std@@@std@@@2@0@Z ENDP ; std::vector<WeaponInfo,std::allocator<WeaponInfo> >::erase
_TEXT	ENDS
PUBLIC	??0?$vector@UForceInfo@@V?$allocator@UForceInfo@@@std@@@std@@QAE@ABV01@@Z ; std::vector<ForceInfo,std::allocator<ForceInfo> >::vector<ForceInfo,std::allocator<ForceInfo> >
;	COMDAT xdata$x
; File c:\program files (x86)\microsoft visual studio 10.0\vc\include\xutility
xdata$x	SEGMENT
__catchsym$??0?$vector@UForceInfo@@V?$allocator@UForceInfo@@@std@@@std@@QAE@ABV01@@Z$2 DD 040H
	DD	00H
	DD	00H
	DD	FLAT:__catch$??0?$vector@UForceInfo@@V?$allocator@UForceInfo@@@std@@@std@@QAE@ABV01@@Z$0
__unwindtable$??0?$vector@UForceInfo@@V?$allocator@UForceInfo@@@std@@@std@@QAE@ABV01@@Z DD 0ffffffffH
	DD	00H
	DD	0ffffffffH
	DD	00H
__tryblocktable$??0?$vector@UForceInfo@@V?$allocator@UForceInfo@@@std@@@std@@QAE@ABV01@@Z DD 00H
	DD	00H
	DD	01H
	DD	01H
	DD	FLAT:__catchsym$??0?$vector@UForceInfo@@V?$allocator@UForceInfo@@@std@@@std@@QAE@ABV01@@Z$2
__ehfuncinfo$??0?$vector@UForceInfo@@V?$allocator@UForceInfo@@@std@@@std@@QAE@ABV01@@Z DD 019930522H
	DD	02H
	DD	FLAT:__unwindtable$??0?$vector@UForceInfo@@V?$allocator@UForceInfo@@@std@@@std@@QAE@ABV01@@Z
	DD	01H
	DD	FLAT:__tryblocktable$??0?$vector@UForceInfo@@V?$allocator@UForceInfo@@@std@@@std@@QAE@ABV01@@Z
	DD	2 DUP(00H)
	DD	00H
	DD	01H
; Function compile flags: /Ogsp
; File c:\program files (x86)\microsoft visual studio 10.0\vc\include\vector
xdata$x	ENDS
;	COMDAT ??0?$vector@UForceInfo@@V?$allocator@UForceInfo@@@std@@@std@@QAE@ABV01@@Z
_TEXT	SEGMENT
_this$ = -20						; size = 4
__$EHRec$ = -16						; size = 16
__Cat$610530 = 8					; size = 1
__Right$ = 8						; size = 4
??0?$vector@UForceInfo@@V?$allocator@UForceInfo@@@std@@@std@@QAE@ABV01@@Z PROC ; std::vector<ForceInfo,std::allocator<ForceInfo> >::vector<ForceInfo,std::allocator<ForceInfo> >, COMDAT
; _this$ = ecx

; 535  : 		{	// construct by copying _Right

  00000	6a 08		 push	 8
  00002	b8 00 00 00 00	 mov	 eax, __ehhandler$??0?$vector@UForceInfo@@V?$allocator@UForceInfo@@@std@@@std@@QAE@ABV01@@Z
  00007	e8 00 00 00 00	 call	 __EH_prolog3_catch
  0000c	8b f1		 mov	 esi, ecx
  0000e	89 75 ec	 mov	 DWORD PTR _this$[ebp], esi

; 536  : 		if (_Buy(_Right.size()))

  00011	8b 7d 08	 mov	 edi, DWORD PTR __Right$[ebp]
  00014	33 db		 xor	 ebx, ebx
  00016	89 1e		 mov	 DWORD PTR [esi], ebx
  00018	89 5e 04	 mov	 DWORD PTR [esi+4], ebx
  0001b	89 5e 08	 mov	 DWORD PTR [esi+8], ebx
  0001e	8b 47 04	 mov	 eax, DWORD PTR [edi+4]
  00021	2b 07		 sub	 eax, DWORD PTR [edi]
  00023	6a 0c		 push	 12			; 0000000cH
  00025	59		 pop	 ecx
  00026	99		 cdq
  00027	f7 f9		 idiv	 ecx
  00029	8b ce		 mov	 ecx, esi
  0002b	50		 push	 eax
  0002c	e8 00 00 00 00	 call	 ?_Buy@?$vector@UForceInfo@@V?$allocator@UForceInfo@@@std@@@std@@IAE_NI@Z ; std::vector<ForceInfo,std::allocator<ForceInfo> >::_Buy
  00031	84 c0		 test	 al, al
  00033	74 1f		 je	 SHORT $LN7@vector

; 537  : 			_TRY_BEGIN
; 538  : 			this->_Mylast = _Ucopy(_Right.begin(), _Right.end(),
; 539  : 				this->_Myfirst);

  00035	ff 75 08	 push	 DWORD PTR __Cat$610530[ebp]
  00038	8b 0e		 mov	 ecx, DWORD PTR [esi]
  0003a	8b 47 04	 mov	 eax, DWORD PTR [edi+4]
  0003d	8b 3f		 mov	 edi, DWORD PTR [edi]
  0003f	8d 56 0c	 lea	 edx, DWORD PTR [esi+12]
  00042	52		 push	 edx
  00043	51		 push	 ecx
  00044	50		 push	 eax
  00045	57		 push	 edi
  00046	89 5d fc	 mov	 DWORD PTR __$EHRec$[ebp+12], ebx
  00049	e8 00 00 00 00	 call	 ??$_Uninit_copy@V?$_Vector_const_iterator@V?$_Vector_val@UForceInfo@@V?$allocator@UForceInfo@@@std@@@std@@@std@@PAUForceInfo@@V?$allocator@UForceInfo@@@2@@std@@YAPAUForceInfo@@V?$_Vector_const_iterator@V?$_Vector_val@UForceInfo@@V?$allocator@UForceInfo@@@std@@@std@@@0@0PAU1@AAV?$allocator@UForceInfo@@@0@U_Nonscalar_ptr_iterator_tag@0@@Z ; std::_Uninit_copy<std::_Vector_const_iterator<std::_Vector_val<ForceInfo,std::allocator<ForceInfo> > >,ForceInfo *,std::allocator<ForceInfo> >
  0004e	83 c4 14	 add	 esp, 20			; 00000014H
  00051	89 46 04	 mov	 DWORD PTR [esi+4], eax
$LN7@vector:

; 543  : 			_CATCH_END
; 544  : 		}

  00054	8b c6		 mov	 eax, esi
  00056	e8 00 00 00 00	 call	 __EH_epilog3
  0005b	c2 04 00	 ret	 4
__catch$??0?$vector@UForceInfo@@V?$allocator@UForceInfo@@@std@@@std@@QAE@ABV01@@Z$0:

; 540  : 			_CATCH_ALL
; 541  : 			_Tidy();

  0005e	8b 4d ec	 mov	 ecx, DWORD PTR _this$[ebp]
  00061	e8 00 00 00 00	 call	 ?_Tidy@?$vector@UForceInfo@@V?$allocator@UForceInfo@@@std@@@std@@IAEXXZ ; std::vector<ForceInfo,std::allocator<ForceInfo> >::_Tidy

; 542  : 			_RERAISE;

  00066	33 db		 xor	 ebx, ebx
  00068	53		 push	 ebx
  00069	53		 push	 ebx
  0006a	e8 00 00 00 00	 call	 __CxxThrowException@8
$LN38@vector:
$LN37@vector:
  0006f	cc		 int	 3
_TEXT	ENDS
;	COMDAT text$x
text$x	SEGMENT
__ehhandler$??0?$vector@UForceInfo@@V?$allocator@UForceInfo@@@std@@@std@@QAE@ABV01@@Z:
  00000	8b 54 24 08	 mov	 edx, DWORD PTR [esp+8]
  00004	8d 42 0c	 lea	 eax, DWORD PTR [edx+12]
  00007	8b 4a e8	 mov	 ecx, DWORD PTR [edx-24]
  0000a	33 c8		 xor	 ecx, eax
  0000c	e8 00 00 00 00	 call	 @__security_check_cookie@4
  00011	b8 00 00 00 00	 mov	 eax, OFFSET __ehfuncinfo$??0?$vector@UForceInfo@@V?$allocator@UForceInfo@@@std@@@std@@QAE@ABV01@@Z
  00016	e9 00 00 00 00	 jmp	 ___CxxFrameHandler3
text$x	ENDS
??0?$vector@UForceInfo@@V?$allocator@UForceInfo@@@std@@@std@@QAE@ABV01@@Z ENDP ; std::vector<ForceInfo,std::allocator<ForceInfo> >::vector<ForceInfo,std::allocator<ForceInfo> >
PUBLIC	?reserve@?$vector@VioHashString@@V?$allocator@VioHashString@@@std@@@std@@QAEXI@Z ; std::vector<ioHashString,std::allocator<ioHashString> >::reserve
;	COMDAT xdata$x
; File c:\program files (x86)\microsoft visual studio 10.0\vc\include\xmemory
xdata$x	SEGMENT
__catchsym$?reserve@?$vector@VioHashString@@V?$allocator@VioHashString@@@std@@@std@@QAEXI@Z$2 DD 040H
	DD	00H
	DD	00H
	DD	FLAT:__catch$?reserve@?$vector@VioHashString@@V?$allocator@VioHashString@@@std@@@std@@QAEXI@Z$0
__unwindtable$?reserve@?$vector@VioHashString@@V?$allocator@VioHashString@@@std@@@std@@QAEXI@Z DD 0ffffffffH
	DD	00H
	DD	0ffffffffH
	DD	00H
__tryblocktable$?reserve@?$vector@VioHashString@@V?$allocator@VioHashString@@@std@@@std@@QAEXI@Z DD 00H
	DD	00H
	DD	01H
	DD	01H
	DD	FLAT:__catchsym$?reserve@?$vector@VioHashString@@V?$allocator@VioHashString@@@std@@@std@@QAEXI@Z$2
__ehfuncinfo$?reserve@?$vector@VioHashString@@V?$allocator@VioHashString@@@std@@@std@@QAEXI@Z DD 019930522H
	DD	02H
	DD	FLAT:__unwindtable$?reserve@?$vector@VioHashString@@V?$allocator@VioHashString@@@std@@@std@@QAEXI@Z
	DD	01H
	DD	FLAT:__tryblocktable$?reserve@?$vector@VioHashString@@V?$allocator@VioHashString@@@std@@@std@@QAEXI@Z
	DD	2 DUP(00H)
	DD	00H
	DD	01H
; Function compile flags: /Ogsp
; File c:\program files (x86)\microsoft visual studio 10.0\vc\include\vector
xdata$x	ENDS
;	COMDAT ?reserve@?$vector@VioHashString@@V?$allocator@VioHashString@@@std@@@std@@QAEXI@Z
_TEXT	SEGMENT
tv300 = -24						; size = 4
__Ptr$602162 = -20					; size = 4
__$EHRec$ = -16						; size = 16
$T610638 = 8						; size = 4
__Count$ = 8						; size = 4
?reserve@?$vector@VioHashString@@V?$allocator@VioHashString@@@std@@@std@@QAEXI@Z PROC ; std::vector<ioHashString,std::allocator<ioHashString> >::reserve, COMDAT
; _this$ = ecx

; 746  : 		{	// determine new minimum length of allocated storage

  00000	6a 0c		 push	 12			; 0000000cH
  00002	b8 00 00 00 00	 mov	 eax, __ehhandler$?reserve@?$vector@VioHashString@@V?$allocator@VioHashString@@@std@@@std@@QAEXI@Z
  00007	e8 00 00 00 00	 call	 __EH_prolog3_catch
  0000c	8b f1		 mov	 esi, ecx

; 747  : 		if (max_size() < _Count)

  0000e	8b 5d 08	 mov	 ebx, DWORD PTR __Count$[ebp]
  00011	81 fb ff ff ff
	0f		 cmp	 ebx, 268435455		; 0fffffffH
  00017	76 0b		 jbe	 SHORT $LN5@reserve

; 748  : 			_Xlen();	// result too long

  00019	68 00 00 00 00	 push	 OFFSET ??_C@_0BD@OLBABOEK@vector?$DMT?$DO?5too?5long?$AA@
  0001e	ff 15 00 00 00
	00		 call	 DWORD PTR __imp_?_Xlength_error@std@@YAXPBD@Z
$LN59@reserve:
$LN5@reserve:

; 749  : 		else if (capacity() < _Count)

  00024	8b 46 08	 mov	 eax, DWORD PTR [esi+8]
  00027	2b 06		 sub	 eax, DWORD PTR [esi]
  00029	c1 f8 04	 sar	 eax, 4
  0002c	3b c3		 cmp	 eax, ebx
  0002e	73 7a		 jae	 SHORT $LN3@reserve

; 750  : 			{	// not enough room, reallocate
; 751  : 			pointer _Ptr = this->_Alval.allocate(_Count);

  00030	6a 00		 push	 0
  00032	53		 push	 ebx
  00033	e8 00 00 00 00	 call	 ??$_Allocate@VioHashString@@@std@@YAPAVioHashString@@IPAV1@@Z ; std::_Allocate<ioHashString>

; 752  : 
; 753  : 			_TRY_BEGIN
; 754  : 			_Umove(this->_Myfirst, this->_Mylast, _Ptr);

  00038	8b 0e		 mov	 ecx, DWORD PTR [esi]
  0003a	83 65 fc 00	 and	 DWORD PTR __$EHRec$[ebp+12], 0
  0003e	8d 56 0c	 lea	 edx, DWORD PTR [esi+12]
  00041	52		 push	 edx
  00042	89 45 ec	 mov	 DWORD PTR __Ptr$602162[ebp], eax
  00045	ff 75 ec	 push	 DWORD PTR __Ptr$602162[ebp]
  00048	8b 46 04	 mov	 eax, DWORD PTR [esi+4]
  0004b	50		 push	 eax
  0004c	51		 push	 ecx
  0004d	e8 00 00 00 00	 call	 ??$_Uninitialized_move@PAVioHashString@@PAV1@V?$allocator@VioHashString@@@std@@@std@@YAPAVioHashString@@PAV1@00AAV?$allocator@VioHashString@@@0@@Z ; std::_Uninitialized_move<ioHashString *,ioHashString *,std::allocator<ioHashString> >

; 758  : 			_CATCH_END
; 759  : 
; 760  : 			size_type _Size = size();

  00052	8b 4e 04	 mov	 ecx, DWORD PTR [esi+4]
  00055	8b 06		 mov	 eax, DWORD PTR [esi]
  00057	83 4d fc ff	 or	 DWORD PTR __$EHRec$[ebp+12], -1
  0005b	8b f9		 mov	 edi, ecx
  0005d	83 c4 18	 add	 esp, 24			; 00000018H
  00060	2b f8		 sub	 edi, eax
  00062	89 4d e8	 mov	 DWORD PTR tv300[ebp], ecx
  00065	85 c0		 test	 eax, eax
  00067	74 24		 je	 SHORT $LN51@reserve

; 761  : 			if (this->_Myfirst != 0)
; 762  : 				{	// destroy and deallocate old array
; 763  : 				_Destroy(this->_Myfirst, this->_Mylast);

  00069	89 45 08	 mov	 DWORD PTR $T610638[ebp], eax
  0006c	3b c1		 cmp	 eax, ecx
  0006e	74 15		 je	 SHORT $LN37@reserve
$LN39@reserve:
  00070	8b 4d 08	 mov	 ecx, DWORD PTR $T610638[ebp]
  00073	ff 15 00 00 00
	00		 call	 DWORD PTR __imp_??1ioHashString@@QAE@XZ
  00079	83 45 08 10	 add	 DWORD PTR $T610638[ebp], 16 ; 00000010H
  0007d	8b 45 08	 mov	 eax, DWORD PTR $T610638[ebp]
  00080	3b 45 e8	 cmp	 eax, DWORD PTR tv300[ebp]
  00083	75 eb		 jne	 SHORT $LN39@reserve
$LN37@reserve:

; 764  : 				this->_Alval.deallocate(this->_Myfirst,
; 765  : 					this->_Myend - this->_Myfirst);

  00085	ff 36		 push	 DWORD PTR [esi]
  00087	e8 00 00 00 00	 call	 ??3@YAXPAX@Z		; operator delete
  0008c	59		 pop	 ecx
$LN51@reserve:

; 766  : 				}
; 767  : 
; 768  : 			this->_Orphan_all();

  0008d	8b ce		 mov	 ecx, esi
  0008f	ff 15 00 00 00
	00		 call	 DWORD PTR __imp_?_Orphan_all@_Container_base0@std@@QAEXXZ

; 769  : 			this->_Myend = _Ptr + _Count;

  00095	8b 45 ec	 mov	 eax, DWORD PTR __Ptr$602162[ebp]
  00098	c1 e3 04	 shl	 ebx, 4
  0009b	03 d8		 add	 ebx, eax

; 770  : 			this->_Mylast = _Ptr + _Size;

  0009d	83 e7 f0	 and	 edi, -16		; fffffff0H
  000a0	03 f8		 add	 edi, eax
  000a2	89 5e 08	 mov	 DWORD PTR [esi+8], ebx
  000a5	89 7e 04	 mov	 DWORD PTR [esi+4], edi

; 771  : 			this->_Myfirst = _Ptr;

  000a8	89 06		 mov	 DWORD PTR [esi], eax
$LN3@reserve:

; 772  : 			}
; 773  : 		}

  000aa	e8 00 00 00 00	 call	 __EH_epilog3
  000af	c2 04 00	 ret	 4
__catch$?reserve@?$vector@VioHashString@@V?$allocator@VioHashString@@@std@@@std@@QAEXI@Z$0:

; 755  : 			_CATCH_ALL
; 756  : 			this->_Alval.deallocate(_Ptr, _Count);

  000b2	ff 75 ec	 push	 DWORD PTR __Ptr$602162[ebp]
  000b5	e8 00 00 00 00	 call	 ??3@YAXPAX@Z		; operator delete
  000ba	59		 pop	 ecx

; 757  : 			_RERAISE;

  000bb	6a 00		 push	 0
  000bd	6a 00		 push	 0
  000bf	e8 00 00 00 00	 call	 __CxxThrowException@8
$LN60@reserve:
$LN58@reserve:
  000c4	cc		 int	 3
_TEXT	ENDS
;	COMDAT text$x
text$x	SEGMENT
__ehhandler$?reserve@?$vector@VioHashString@@V?$allocator@VioHashString@@@std@@@std@@QAEXI@Z:
  00000	8b 54 24 08	 mov	 edx, DWORD PTR [esp+8]
  00004	8d 42 0c	 lea	 eax, DWORD PTR [edx+12]
  00007	8b 4a e4	 mov	 ecx, DWORD PTR [edx-28]
  0000a	33 c8		 xor	 ecx, eax
  0000c	e8 00 00 00 00	 call	 @__security_check_cookie@4
  00011	b8 00 00 00 00	 mov	 eax, OFFSET __ehfuncinfo$?reserve@?$vector@VioHashString@@V?$allocator@VioHashString@@@std@@@std@@QAEXI@Z
  00016	e9 00 00 00 00	 jmp	 ___CxxFrameHandler3
text$x	ENDS
?reserve@?$vector@VioHashString@@V?$allocator@VioHashString@@@std@@@std@@QAEXI@Z ENDP ; std::vector<ioHashString,std::allocator<ioHashString> >::reserve
PUBLIC	??1?$vector@UForceInfo@@V?$allocator@UForceInfo@@@std@@@std@@QAE@XZ ; std::vector<ForceInfo,std::allocator<ForceInfo> >::~vector<ForceInfo,std::allocator<ForceInfo> >
; Function compile flags: /Ogsp
;	COMDAT ??1?$vector@UForceInfo@@V?$allocator@UForceInfo@@@std@@@std@@QAE@XZ
_TEXT	SEGMENT
??1?$vector@UForceInfo@@V?$allocator@UForceInfo@@@std@@@std@@QAE@XZ PROC ; std::vector<ForceInfo,std::allocator<ForceInfo> >::~vector<ForceInfo,std::allocator<ForceInfo> >, COMDAT
; _this$ = ecx

; 705  : 		_Tidy();

  00000	e9 00 00 00 00	 jmp	 ?_Tidy@?$vector@UForceInfo@@V?$allocator@UForceInfo@@@std@@@std@@IAEXXZ ; std::vector<ForceInfo,std::allocator<ForceInfo> >::_Tidy
??1?$vector@UForceInfo@@V?$allocator@UForceInfo@@@std@@@std@@QAE@XZ ENDP ; std::vector<ForceInfo,std::allocator<ForceInfo> >::~vector<ForceInfo,std::allocator<ForceInfo> >
_TEXT	ENDS
PUBLIC	?erase@?$vector@VioHashString@@V?$allocator@VioHashString@@@std@@@std@@QAE?AV?$_Vector_iterator@V?$_Vector_val@VioHashString@@V?$allocator@VioHashString@@@std@@@std@@@2@V?$_Vector_const_iterator@V?$_Vector_val@VioHashString@@V?$allocator@VioHashString@@@std@@@std@@@2@0@Z ; std::vector<ioHashString,std::allocator<ioHashString> >::erase
; Function compile flags: /Ogsp
;	COMDAT ?erase@?$vector@VioHashString@@V?$allocator@VioHashString@@@std@@@std@@QAE?AV?$_Vector_iterator@V?$_Vector_val@VioHashString@@V?$allocator@VioHashString@@@std@@@std@@@2@V?$_Vector_const_iterator@V?$_Vector_val@VioHashString@@V?$allocator@VioHashString@@@std@@@std@@@2@0@Z
_TEXT	SEGMENT
$T610840 = -4						; size = 4
___$ReturnUdt$ = 8					; size = 4
__First_arg$ = 12					; size = 4
__Cat$610784 = 16					; size = 1
__Last_arg$ = 16					; size = 4
?erase@?$vector@VioHashString@@V?$allocator@VioHashString@@@std@@@std@@QAE?AV?$_Vector_iterator@V?$_Vector_val@VioHashString@@V?$allocator@VioHashString@@@std@@@std@@@2@V?$_Vector_const_iterator@V?$_Vector_val@VioHashString@@V?$allocator@VioHashString@@@std@@@std@@@2@0@Z PROC ; std::vector<ioHashString,std::allocator<ioHashString> >::erase, COMDAT
; _this$ = ecx

; 1190 : 		{	// erase [_First, _Last)

  00000	55		 push	 ebp
  00001	8b ec		 mov	 ebp, esp
  00003	51		 push	 ecx

; 1191 : 		iterator _First = _Make_iter(_First_arg);

  00004	8b 45 08	 mov	 eax, DWORD PTR ___$ReturnUdt$[ebp]
  00007	56		 push	 esi
  00008	8b f1		 mov	 esi, ecx
  0000a	8b 4d 0c	 mov	 ecx, DWORD PTR __First_arg$[ebp]
  0000d	89 08		 mov	 DWORD PTR [eax], ecx

; 1192 : 		iterator _Last = _Make_iter(_Last_arg);
; 1193 : 
; 1194 : 		if (_First != _Last)

  0000f	3b 4d 10	 cmp	 ecx, DWORD PTR __Last_arg$[ebp]
  00012	74 38		 je	 SHORT $LN1@erase@3

; 1195 : 			{	// worth doing, copy down over hole
; 1196 :  #if _ITERATOR_DEBUG_LEVEL == 2
; 1197 : 			if (_Last < _First || _VICONT(_First) != this
; 1198 : 				|| _VIPTR(_First) < this->_Myfirst
; 1199 : 				|| this->_Mylast < _VIPTR(_Last))
; 1200 : 				_DEBUG_ERROR("vector erase iterator outside range");
; 1201 : 			pointer _Ptr = _Move(_VIPTR(_Last), this->_Mylast,
; 1202 : 				_VIPTR(_First));
; 1203 : 			_Orphan_range(_VIPTR(_First), this->_Mylast);
; 1204 : 
; 1205 :  #else /* _ITERATOR_DEBUG_LEVEL == 2 */
; 1206 : 			pointer _Ptr = _Move(_VIPTR(_Last), this->_Mylast,
; 1207 : 				_VIPTR(_First));

  00014	8b 46 04	 mov	 eax, DWORD PTR [esi+4]
  00017	53		 push	 ebx
  00018	57		 push	 edi
  00019	ff 75 10	 push	 DWORD PTR __Cat$610784[ebp]
  0001c	51		 push	 ecx
  0001d	50		 push	 eax
  0001e	ff 75 10	 push	 DWORD PTR __Last_arg$[ebp]
  00021	e8 00 00 00 00	 call	 ??$_Move@PAVioHashString@@PAV1@@std@@YAPAVioHashString@@PAV1@00U_Nonscalar_ptr_iterator_tag@0@@Z ; std::_Move<ioHashString *,ioHashString *>

; 1208 :  #endif /* _ITERATOR_DEBUG_LEVEL == 2 */
; 1209 : 
; 1210 : 			_Destroy(_Ptr, this->_Mylast);

  00026	8b 7e 04	 mov	 edi, DWORD PTR [esi+4]
  00029	8b d8		 mov	 ebx, eax
  0002b	83 c4 10	 add	 esp, 16			; 00000010H
  0002e	89 5d fc	 mov	 DWORD PTR $T610840[ebp], ebx
  00031	3b df		 cmp	 ebx, edi
  00033	74 12		 je	 SHORT $LN36@erase@3
$LL52@erase@3:
  00035	8b 4d fc	 mov	 ecx, DWORD PTR $T610840[ebp]
  00038	ff 15 00 00 00
	00		 call	 DWORD PTR __imp_??1ioHashString@@QAE@XZ
  0003e	83 45 fc 10	 add	 DWORD PTR $T610840[ebp], 16 ; 00000010H
  00042	39 7d fc	 cmp	 DWORD PTR $T610840[ebp], edi
  00045	75 ee		 jne	 SHORT $LL52@erase@3
$LN36@erase@3:

; 1211 : 			this->_Mylast = _Ptr;

  00047	5f		 pop	 edi
  00048	89 5e 04	 mov	 DWORD PTR [esi+4], ebx
  0004b	5b		 pop	 ebx
$LN1@erase@3:

; 1212 : 			}
; 1213 : 		return (_First);

  0004c	8b 45 08	 mov	 eax, DWORD PTR ___$ReturnUdt$[ebp]
  0004f	5e		 pop	 esi

; 1214 : 		}

  00050	c9		 leave
  00051	c2 0c 00	 ret	 12			; 0000000cH
?erase@?$vector@VioHashString@@V?$allocator@VioHashString@@@std@@@std@@QAE?AV?$_Vector_iterator@V?$_Vector_val@VioHashString@@V?$allocator@VioHashString@@@std@@@std@@@2@V?$_Vector_const_iterator@V?$_Vector_val@VioHashString@@V?$allocator@VioHashString@@@std@@@std@@@2@0@Z ENDP ; std::vector<ioHashString,std::allocator<ioHashString> >::erase
_TEXT	ENDS
PUBLIC	?_Tidy@?$vector@VioHashString@@V?$allocator@VioHashString@@@std@@@std@@IAEXXZ ; std::vector<ioHashString,std::allocator<ioHashString> >::_Tidy
; Function compile flags: /Ogsp
;	COMDAT ?_Tidy@?$vector@VioHashString@@V?$allocator@VioHashString@@@std@@@std@@IAEXXZ
_TEXT	SEGMENT
?_Tidy@?$vector@VioHashString@@V?$allocator@VioHashString@@@std@@@std@@IAEXXZ PROC ; std::vector<ioHashString,std::allocator<ioHashString> >::_Tidy, COMDAT
; _this$ = ecx

; 1301 : 		{	// free all storage

  00000	56		 push	 esi
  00001	8b f1		 mov	 esi, ecx

; 1302 : 		if (this->_Myfirst != 0)

  00003	83 3e 00	 cmp	 DWORD PTR [esi], 0
  00006	74 28		 je	 SHORT $LN24@Tidy@2

; 1303 : 			{	// something to free, destroy and deallocate it
; 1304 : 			this->_Orphan_all();

  00008	53		 push	 ebx
  00009	57		 push	 edi
  0000a	ff 15 00 00 00
	00		 call	 DWORD PTR __imp_?_Orphan_all@_Container_base0@std@@QAEXXZ

; 1305 : 			_Destroy(this->_Myfirst, this->_Mylast);

  00010	8b 5e 04	 mov	 ebx, DWORD PTR [esi+4]
  00013	8b 3e		 mov	 edi, DWORD PTR [esi]
  00015	eb 0b		 jmp	 SHORT $LN28@Tidy@2
$LL12@Tidy@2:
  00017	8b cf		 mov	 ecx, edi
  00019	ff 15 00 00 00
	00		 call	 DWORD PTR __imp_??1ioHashString@@QAE@XZ
  0001f	83 c7 10	 add	 edi, 16			; 00000010H
$LN28@Tidy@2:
  00022	3b fb		 cmp	 edi, ebx
  00024	75 f1		 jne	 SHORT $LL12@Tidy@2

; 1306 : 			this->_Alval.deallocate(this->_Myfirst,
; 1307 : 				this->_Myend - this->_Myfirst);

  00026	ff 36		 push	 DWORD PTR [esi]
  00028	e8 00 00 00 00	 call	 ??3@YAXPAX@Z		; operator delete
  0002d	59		 pop	 ecx
  0002e	5f		 pop	 edi
  0002f	5b		 pop	 ebx
$LN24@Tidy@2:

; 1308 : 			}
; 1309 : 		this->_Myfirst = 0;

  00030	33 c0		 xor	 eax, eax
  00032	89 06		 mov	 DWORD PTR [esi], eax

; 1310 : 		this->_Mylast = 0;

  00034	89 46 04	 mov	 DWORD PTR [esi+4], eax

; 1311 : 		this->_Myend = 0;

  00037	89 46 08	 mov	 DWORD PTR [esi+8], eax
  0003a	5e		 pop	 esi

; 1312 : 		}

  0003b	c3		 ret	 0
?_Tidy@?$vector@VioHashString@@V?$allocator@VioHashString@@@std@@@std@@IAEXXZ ENDP ; std::vector<ioHashString,std::allocator<ioHashString> >::_Tidy
_TEXT	ENDS
PUBLIC	?_Tidy@?$vector@UWeaponInfo@@V?$allocator@UWeaponInfo@@@std@@@std@@IAEXXZ ; std::vector<WeaponInfo,std::allocator<WeaponInfo> >::_Tidy
; Function compile flags: /Ogsp
;	COMDAT ?_Tidy@?$vector@UWeaponInfo@@V?$allocator@UWeaponInfo@@@std@@@std@@IAEXXZ
_TEXT	SEGMENT
?_Tidy@?$vector@UWeaponInfo@@V?$allocator@UWeaponInfo@@@std@@@std@@IAEXXZ PROC ; std::vector<WeaponInfo,std::allocator<WeaponInfo> >::_Tidy, COMDAT
; _this$ = ecx

; 1301 : 		{	// free all storage

  00000	56		 push	 esi
  00001	8b f1		 mov	 esi, ecx

; 1302 : 		if (this->_Myfirst != 0)

  00003	83 3e 00	 cmp	 DWORD PTR [esi], 0
  00006	74 1e		 je	 SHORT $LN6@Tidy@3

; 1303 : 			{	// something to free, destroy and deallocate it
; 1304 : 			this->_Orphan_all();

  00008	ff 15 00 00 00
	00		 call	 DWORD PTR __imp_?_Orphan_all@_Container_base0@std@@QAEXXZ

; 1305 : 			_Destroy(this->_Myfirst, this->_Mylast);

  0000e	8d 46 0c	 lea	 eax, DWORD PTR [esi+12]
  00011	50		 push	 eax
  00012	ff 76 04	 push	 DWORD PTR [esi+4]
  00015	ff 36		 push	 DWORD PTR [esi]
  00017	e8 00 00 00 00	 call	 ??$_Destroy_range@V?$allocator@UWeaponInfo@@@std@@@std@@YAXPAUWeaponInfo@@0AAV?$allocator@UWeaponInfo@@@0@@Z ; std::_Destroy_range<std::allocator<WeaponInfo> >

; 1306 : 			this->_Alval.deallocate(this->_Myfirst,
; 1307 : 				this->_Myend - this->_Myfirst);

  0001c	ff 36		 push	 DWORD PTR [esi]
  0001e	e8 00 00 00 00	 call	 ??3@YAXPAX@Z		; operator delete
  00023	83 c4 10	 add	 esp, 16			; 00000010H
$LN6@Tidy@3:

; 1308 : 			}
; 1309 : 		this->_Myfirst = 0;

  00026	83 26 00	 and	 DWORD PTR [esi], 0

; 1310 : 		this->_Mylast = 0;

  00029	83 66 04 00	 and	 DWORD PTR [esi+4], 0

; 1311 : 		this->_Myend = 0;

  0002d	83 66 08 00	 and	 DWORD PTR [esi+8], 0
  00031	5e		 pop	 esi

; 1312 : 		}

  00032	c3		 ret	 0
?_Tidy@?$vector@UWeaponInfo@@V?$allocator@UWeaponInfo@@@std@@@std@@IAEXXZ ENDP ; std::vector<WeaponInfo,std::allocator<WeaponInfo> >::_Tidy
_TEXT	ENDS
PUBLIC	??4?$vector@UForceInfo@@V?$allocator@UForceInfo@@@std@@@std@@QAEAAV01@ABV01@@Z ; std::vector<ForceInfo,std::allocator<ForceInfo> >::operator=
; Function compile flags: /Ogsp
;	COMDAT ??4?$vector@UForceInfo@@V?$allocator@UForceInfo@@@std@@@std@@QAEAAV01@ABV01@@Z
_TEXT	SEGMENT
tv551 = 8						; size = 4
__Cat$611330 = 8					; size = 1
__Cat$611227 = 8					; size = 1
__Cat$611204 = 8					; size = 1
__Cat$611107 = 8					; size = 1
$T611072 = 8						; size = 4
__Right$ = 8						; size = 4
??4?$vector@UForceInfo@@V?$allocator@UForceInfo@@@std@@@std@@QAEAAV01@ABV01@@Z PROC ; std::vector<ForceInfo,std::allocator<ForceInfo> >::operator=, COMDAT
; _this$ = ecx

; 709  : 		{	// assign _Right

  00000	55		 push	 ebp
  00001	8b ec		 mov	 ebp, esp
  00003	56		 push	 esi
  00004	57		 push	 edi

; 710  : 		if (this != &_Right)

  00005	8b 7d 08	 mov	 edi, DWORD PTR __Right$[ebp]
  00008	8b f1		 mov	 esi, ecx
  0000a	3b f7		 cmp	 esi, edi
  0000c	0f 84 e2 00 00
	00		 je	 $LN1@operator

; 711  : 			{	// worth doing
; 712  : 			this->_Orphan_all();

  00012	53		 push	 ebx
  00013	ff 15 00 00 00
	00		 call	 DWORD PTR __imp_?_Orphan_all@_Container_base0@std@@QAEXXZ

; 713  : 
; 714  : 			if (_Right.size() == 0)

  00019	8b 5f 04	 mov	 ebx, DWORD PTR [edi+4]
  0001c	8b c3		 mov	 eax, ebx
  0001e	2b 07		 sub	 eax, DWORD PTR [edi]
  00020	6a 0c		 push	 12			; 0000000cH
  00022	99		 cdq
  00023	59		 pop	 ecx
  00024	f7 f9		 idiv	 ecx
  00026	89 45 08	 mov	 DWORD PTR tv551[ebp], eax
  00029	85 c0		 test	 eax, eax

; 715  : 				clear();	// new sequence empty, erase existing sequence

  0002b	8b 46 04	 mov	 eax, DWORD PTR [esi+4]
  0002e	75 14		 jne	 SHORT $LN8@operator
  00030	8b 0e		 mov	 ecx, DWORD PTR [esi]
  00032	50		 push	 eax
  00033	51		 push	 ecx
  00034	8d 45 08	 lea	 eax, DWORD PTR $T611072[ebp]
  00037	50		 push	 eax
  00038	8b ce		 mov	 ecx, esi
  0003a	e8 00 00 00 00	 call	 ?erase@?$vector@UForceInfo@@V?$allocator@UForceInfo@@@std@@@std@@QAE?AV?$_Vector_iterator@V?$_Vector_val@UForceInfo@@V?$allocator@UForceInfo@@@std@@@std@@@2@V?$_Vector_const_iterator@V?$_Vector_val@UForceInfo@@V?$allocator@UForceInfo@@@std@@@std@@@2@0@Z ; std::vector<ForceInfo,std::allocator<ForceInfo> >::erase

; 716  : 			else if (_Right.size() <= size())

  0003f	e9 af 00 00 00	 jmp	 $LN106@operator
$LN8@operator:
  00044	2b 06		 sub	 eax, DWORD PTR [esi]
  00046	6a 0c		 push	 12			; 0000000cH
  00048	99		 cdq
  00049	59		 pop	 ecx
  0004a	f7 f9		 idiv	 ecx
  0004c	8b c8		 mov	 ecx, eax
  0004e	39 4d 08	 cmp	 DWORD PTR tv551[ebp], ecx
  00051	77 22		 ja	 SHORT $LN6@operator

; 717  : 				{	// enough elements, copy new and destroy old
; 718  : 				pointer _Ptr = _STD _Copy_impl(_Right._Myfirst, _Right._Mylast,
; 719  : 					this->_Myfirst);	// copy new

  00053	ff 75 08	 push	 DWORD PTR __Cat$611107[ebp]
  00056	ff 36		 push	 DWORD PTR [esi]
  00058	53		 push	 ebx
  00059	ff 37		 push	 DWORD PTR [edi]
  0005b	e8 00 00 00 00	 call	 ??$_Copy_impl@PAUForceInfo@@PAU1@@std@@YAPAUForceInfo@@PAU1@00U_Nonscalar_ptr_iterator_tag@0@@Z ; std::_Copy_impl<ForceInfo *,ForceInfo *>

; 720  : 				_Destroy(_Ptr, this->_Mylast);	// destroy old
; 721  : 				this->_Mylast = this->_Myfirst + _Right.size();

  00060	8b 47 04	 mov	 eax, DWORD PTR [edi+4]
  00063	2b 07		 sub	 eax, DWORD PTR [edi]
  00065	83 c4 10	 add	 esp, 16			; 00000010H
  00068	99		 cdq
  00069	6a 0c		 push	 12			; 0000000cH
  0006b	59		 pop	 ecx
  0006c	f7 f9		 idiv	 ecx
  0006e	6b c0 0c	 imul	 eax, 12			; 0000000cH
  00071	03 06		 add	 eax, DWORD PTR [esi]

; 722  : 				}
; 723  : 			else if (_Right.size() <= capacity())

  00073	eb 7b		 jmp	 SHORT $LN107@operator
$LN6@operator:
  00075	8b 46 08	 mov	 eax, DWORD PTR [esi+8]
  00078	2b 06		 sub	 eax, DWORD PTR [esi]
  0007a	6a 0c		 push	 12			; 0000000cH
  0007c	99		 cdq
  0007d	5b		 pop	 ebx
  0007e	f7 fb		 idiv	 ebx
  00080	39 45 08	 cmp	 DWORD PTR tv551[ebp], eax
  00083	77 2e		 ja	 SHORT $LN4@operator

; 724  : 				{	// enough room, copy and construct new
; 725  : 				pointer _Ptr = _Right._Myfirst + size();
; 726  : 				_STD _Copy_impl(_Right._Myfirst, _Ptr, this->_Myfirst);

  00085	ff 75 08	 push	 DWORD PTR __Cat$611204[ebp]
  00088	6b c9 0c	 imul	 ecx, 12			; 0000000cH
  0008b	8b 07		 mov	 eax, DWORD PTR [edi]
  0008d	ff 36		 push	 DWORD PTR [esi]
  0008f	8d 1c 08	 lea	 ebx, DWORD PTR [eax+ecx]
  00092	53		 push	 ebx
  00093	50		 push	 eax
  00094	e8 00 00 00 00	 call	 ??$_Copy_impl@PAUForceInfo@@PAU1@@std@@YAPAUForceInfo@@PAU1@00U_Nonscalar_ptr_iterator_tag@0@@Z ; std::_Copy_impl<ForceInfo *,ForceInfo *>

; 727  : 				this->_Mylast = _Ucopy(_Ptr, _Right._Mylast, this->_Mylast);

  00099	ff 75 08	 push	 DWORD PTR __Cat$611227[ebp]
  0009c	8b 46 04	 mov	 eax, DWORD PTR [esi+4]
  0009f	8b 7f 04	 mov	 edi, DWORD PTR [edi+4]
  000a2	8d 4e 0c	 lea	 ecx, DWORD PTR [esi+12]
  000a5	51		 push	 ecx
  000a6	50		 push	 eax
  000a7	57		 push	 edi
  000a8	53		 push	 ebx
  000a9	e8 00 00 00 00	 call	 ??$_Uninit_copy@PAUForceInfo@@PAU1@V?$allocator@UForceInfo@@@std@@@std@@YAPAUForceInfo@@PAU1@00AAV?$allocator@UForceInfo@@@0@U_Nonscalar_ptr_iterator_tag@0@@Z ; std::_Uninit_copy<ForceInfo *,ForceInfo *,std::allocator<ForceInfo> >
  000ae	83 c4 24	 add	 esp, 36			; 00000024H

; 728  : 				}
; 729  : 			else

  000b1	eb 3d		 jmp	 SHORT $LN107@operator
$LN4@operator:

; 730  : 				{	// not enough room, allocate new array and construct new
; 731  : 				if (this->_Myfirst != 0)

  000b3	8b 06		 mov	 eax, DWORD PTR [esi]
  000b5	85 c0		 test	 eax, eax
  000b7	74 07		 je	 SHORT $LN92@operator

; 732  : 					{	// discard old array
; 733  : 					_Destroy(this->_Myfirst, this->_Mylast);
; 734  : 					this->_Alval.deallocate(this->_Myfirst,
; 735  : 						this->_Myend - this->_Myfirst);

  000b9	50		 push	 eax
  000ba	e8 00 00 00 00	 call	 ??3@YAXPAX@Z		; operator delete
  000bf	59		 pop	 ecx
$LN92@operator:

; 736  : 					}
; 737  : 				if (_Buy(_Right.size()))

  000c0	8b 47 04	 mov	 eax, DWORD PTR [edi+4]
  000c3	2b 07		 sub	 eax, DWORD PTR [edi]
  000c5	6a 0c		 push	 12			; 0000000cH
  000c7	59		 pop	 ecx
  000c8	99		 cdq
  000c9	f7 f9		 idiv	 ecx
  000cb	8b ce		 mov	 ecx, esi
  000cd	50		 push	 eax
  000ce	e8 00 00 00 00	 call	 ?_Buy@?$vector@UForceInfo@@V?$allocator@UForceInfo@@@std@@@std@@IAE_NI@Z ; std::vector<ForceInfo,std::allocator<ForceInfo> >::_Buy
  000d3	84 c0		 test	 al, al
  000d5	74 1c		 je	 SHORT $LN106@operator

; 738  : 					this->_Mylast = _Ucopy(_Right._Myfirst, _Right._Mylast,
; 739  : 						this->_Myfirst);

  000d7	ff 75 08	 push	 DWORD PTR __Cat$611330[ebp]
  000da	8b 06		 mov	 eax, DWORD PTR [esi]
  000dc	8b 4f 04	 mov	 ecx, DWORD PTR [edi+4]
  000df	8b 3f		 mov	 edi, DWORD PTR [edi]
  000e1	8d 56 0c	 lea	 edx, DWORD PTR [esi+12]
  000e4	52		 push	 edx
  000e5	50		 push	 eax
  000e6	51		 push	 ecx
  000e7	57		 push	 edi
  000e8	e8 00 00 00 00	 call	 ??$_Uninit_copy@PAUForceInfo@@PAU1@V?$allocator@UForceInfo@@@std@@@std@@YAPAUForceInfo@@PAU1@00AAV?$allocator@UForceInfo@@@0@U_Nonscalar_ptr_iterator_tag@0@@Z ; std::_Uninit_copy<ForceInfo *,ForceInfo *,std::allocator<ForceInfo> >
  000ed	83 c4 14	 add	 esp, 20			; 00000014H
$LN107@operator:
  000f0	89 46 04	 mov	 DWORD PTR [esi+4], eax
$LN106@operator:
  000f3	5b		 pop	 ebx
$LN1@operator:
  000f4	5f		 pop	 edi

; 740  : 				}
; 741  : 			}
; 742  : 		return (*this);

  000f5	8b c6		 mov	 eax, esi
  000f7	5e		 pop	 esi

; 743  : 		}

  000f8	5d		 pop	 ebp
  000f9	c2 04 00	 ret	 4
??4?$vector@UForceInfo@@V?$allocator@UForceInfo@@@std@@@std@@QAEAAV01@ABV01@@Z ENDP ; std::vector<ForceInfo,std::allocator<ForceInfo> >::operator=
_TEXT	ENDS
PUBLIC	?clear@?$vector@UWeaponInfo@@V?$allocator@UWeaponInfo@@@std@@@std@@QAEXXZ ; std::vector<WeaponInfo,std::allocator<WeaponInfo> >::clear
; Function compile flags: /Ogsp
;	COMDAT ?clear@?$vector@UWeaponInfo@@V?$allocator@UWeaponInfo@@@std@@@std@@QAEXXZ
_TEXT	SEGMENT
$T611347 = -4						; size = 4
?clear@?$vector@UWeaponInfo@@V?$allocator@UWeaponInfo@@@std@@@std@@QAEXXZ PROC ; std::vector<WeaponInfo,std::allocator<WeaponInfo> >::clear, COMDAT
; _this$ = ecx

; 1217 : 		{	// erase all

  00000	55		 push	 ebp
  00001	8b ec		 mov	 ebp, esp
  00003	51		 push	 ecx

; 1218 : 		erase(begin(), end());

  00004	8b 41 04	 mov	 eax, DWORD PTR [ecx+4]
  00007	8b 11		 mov	 edx, DWORD PTR [ecx]
  00009	50		 push	 eax
  0000a	52		 push	 edx
  0000b	8d 45 fc	 lea	 eax, DWORD PTR $T611347[ebp]
  0000e	50		 push	 eax
  0000f	e8 00 00 00 00	 call	 ?erase@?$vector@UWeaponInfo@@V?$allocator@UWeaponInfo@@@std@@@std@@QAE?AV?$_Vector_iterator@V?$_Vector_val@UWeaponInfo@@V?$allocator@UWeaponInfo@@@std@@@std@@@2@V?$_Vector_const_iterator@V?$_Vector_val@UWeaponInfo@@V?$allocator@UWeaponInfo@@@std@@@std@@@2@0@Z ; std::vector<WeaponInfo,std::allocator<WeaponInfo> >::erase

; 1219 : 		}

  00014	c9		 leave
  00015	c3		 ret	 0
?clear@?$vector@UWeaponInfo@@V?$allocator@UWeaponInfo@@@std@@@std@@QAEXXZ ENDP ; std::vector<WeaponInfo,std::allocator<WeaponInfo> >::clear
_TEXT	ENDS
PUBLIC	??0?$vector@UWeaponInfo@@V?$allocator@UWeaponInfo@@@std@@@std@@QAE@ABV01@@Z ; std::vector<WeaponInfo,std::allocator<WeaponInfo> >::vector<WeaponInfo,std::allocator<WeaponInfo> >
;	COMDAT xdata$x
; File c:\program files (x86)\microsoft visual studio 10.0\vc\include\xutility
xdata$x	SEGMENT
__catchsym$??0?$vector@UWeaponInfo@@V?$allocator@UWeaponInfo@@@std@@@std@@QAE@ABV01@@Z$2 DD 040H
	DD	00H
	DD	00H
	DD	FLAT:__catch$??0?$vector@UWeaponInfo@@V?$allocator@UWeaponInfo@@@std@@@std@@QAE@ABV01@@Z$0
__unwindtable$??0?$vector@UWeaponInfo@@V?$allocator@UWeaponInfo@@@std@@@std@@QAE@ABV01@@Z DD 0ffffffffH
	DD	00H
	DD	0ffffffffH
	DD	00H
__tryblocktable$??0?$vector@UWeaponInfo@@V?$allocator@UWeaponInfo@@@std@@@std@@QAE@ABV01@@Z DD 00H
	DD	00H
	DD	01H
	DD	01H
	DD	FLAT:__catchsym$??0?$vector@UWeaponInfo@@V?$allocator@UWeaponInfo@@@std@@@std@@QAE@ABV01@@Z$2
__ehfuncinfo$??0?$vector@UWeaponInfo@@V?$allocator@UWeaponInfo@@@std@@@std@@QAE@ABV01@@Z DD 019930522H
	DD	02H
	DD	FLAT:__unwindtable$??0?$vector@UWeaponInfo@@V?$allocator@UWeaponInfo@@@std@@@std@@QAE@ABV01@@Z
	DD	01H
	DD	FLAT:__tryblocktable$??0?$vector@UWeaponInfo@@V?$allocator@UWeaponInfo@@@std@@@std@@QAE@ABV01@@Z
	DD	2 DUP(00H)
	DD	00H
	DD	01H
; Function compile flags: /Ogsp
; File c:\program files (x86)\microsoft visual studio 10.0\vc\include\vector
xdata$x	ENDS
;	COMDAT ??0?$vector@UWeaponInfo@@V?$allocator@UWeaponInfo@@@std@@@std@@QAE@ABV01@@Z
_TEXT	SEGMENT
_this$ = -20						; size = 4
__$EHRec$ = -16						; size = 16
__Cat$611478 = 8					; size = 1
__Right$ = 8						; size = 4
??0?$vector@UWeaponInfo@@V?$allocator@UWeaponInfo@@@std@@@std@@QAE@ABV01@@Z PROC ; std::vector<WeaponInfo,std::allocator<WeaponInfo> >::vector<WeaponInfo,std::allocator<WeaponInfo> >, COMDAT
; _this$ = ecx

; 535  : 		{	// construct by copying _Right

  00000	6a 08		 push	 8
  00002	b8 00 00 00 00	 mov	 eax, __ehhandler$??0?$vector@UWeaponInfo@@V?$allocator@UWeaponInfo@@@std@@@std@@QAE@ABV01@@Z
  00007	e8 00 00 00 00	 call	 __EH_prolog3_catch
  0000c	8b f1		 mov	 esi, ecx
  0000e	89 75 ec	 mov	 DWORD PTR _this$[ebp], esi

; 536  : 		if (_Buy(_Right.size()))

  00011	8b 7d 08	 mov	 edi, DWORD PTR __Right$[ebp]
  00014	33 db		 xor	 ebx, ebx
  00016	89 1e		 mov	 DWORD PTR [esi], ebx
  00018	89 5e 04	 mov	 DWORD PTR [esi+4], ebx
  0001b	89 5e 08	 mov	 DWORD PTR [esi+8], ebx
  0001e	8b 47 04	 mov	 eax, DWORD PTR [edi+4]
  00021	2b 07		 sub	 eax, DWORD PTR [edi]
  00023	6a 28		 push	 40			; 00000028H
  00025	59		 pop	 ecx
  00026	99		 cdq
  00027	f7 f9		 idiv	 ecx
  00029	8b ce		 mov	 ecx, esi
  0002b	50		 push	 eax
  0002c	e8 00 00 00 00	 call	 ?_Buy@?$vector@UWeaponInfo@@V?$allocator@UWeaponInfo@@@std@@@std@@IAE_NI@Z ; std::vector<WeaponInfo,std::allocator<WeaponInfo> >::_Buy
  00031	84 c0		 test	 al, al
  00033	74 1f		 je	 SHORT $LN7@vector@2

; 537  : 			_TRY_BEGIN
; 538  : 			this->_Mylast = _Ucopy(_Right.begin(), _Right.end(),
; 539  : 				this->_Myfirst);

  00035	ff 75 08	 push	 DWORD PTR __Cat$611478[ebp]
  00038	8b 0e		 mov	 ecx, DWORD PTR [esi]
  0003a	8b 47 04	 mov	 eax, DWORD PTR [edi+4]
  0003d	8b 3f		 mov	 edi, DWORD PTR [edi]
  0003f	8d 56 0c	 lea	 edx, DWORD PTR [esi+12]
  00042	52		 push	 edx
  00043	51		 push	 ecx
  00044	50		 push	 eax
  00045	57		 push	 edi
  00046	89 5d fc	 mov	 DWORD PTR __$EHRec$[ebp+12], ebx
  00049	e8 00 00 00 00	 call	 ??$_Uninit_copy@V?$_Vector_const_iterator@V?$_Vector_val@UWeaponInfo@@V?$allocator@UWeaponInfo@@@std@@@std@@@std@@PAUWeaponInfo@@V?$allocator@UWeaponInfo@@@2@@std@@YAPAUWeaponInfo@@V?$_Vector_const_iterator@V?$_Vector_val@UWeaponInfo@@V?$allocator@UWeaponInfo@@@std@@@std@@@0@0PAU1@AAV?$allocator@UWeaponInfo@@@0@U_Nonscalar_ptr_iterator_tag@0@@Z ; std::_Uninit_copy<std::_Vector_const_iterator<std::_Vector_val<WeaponInfo,std::allocator<WeaponInfo> > >,WeaponInfo *,std::allocator<WeaponInfo> >
  0004e	83 c4 14	 add	 esp, 20			; 00000014H
  00051	89 46 04	 mov	 DWORD PTR [esi+4], eax
$LN7@vector@2:

; 543  : 			_CATCH_END
; 544  : 		}

  00054	8b c6		 mov	 eax, esi
  00056	e8 00 00 00 00	 call	 __EH_epilog3
  0005b	c2 04 00	 ret	 4
__catch$??0?$vector@UWeaponInfo@@V?$allocator@UWeaponInfo@@@std@@@std@@QAE@ABV01@@Z$0:

; 540  : 			_CATCH_ALL
; 541  : 			_Tidy();

  0005e	8b 4d ec	 mov	 ecx, DWORD PTR _this$[ebp]
  00061	e8 00 00 00 00	 call	 ?_Tidy@?$vector@UWeaponInfo@@V?$allocator@UWeaponInfo@@@std@@@std@@IAEXXZ ; std::vector<WeaponInfo,std::allocator<WeaponInfo> >::_Tidy

; 542  : 			_RERAISE;

  00066	33 db		 xor	 ebx, ebx
  00068	53		 push	 ebx
  00069	53		 push	 ebx
  0006a	e8 00 00 00 00	 call	 __CxxThrowException@8
$LN38@vector@2:
$LN37@vector@2:
  0006f	cc		 int	 3
_TEXT	ENDS
;	COMDAT text$x
text$x	SEGMENT
__ehhandler$??0?$vector@UWeaponInfo@@V?$allocator@UWeaponInfo@@@std@@@std@@QAE@ABV01@@Z:
  00000	8b 54 24 08	 mov	 edx, DWORD PTR [esp+8]
  00004	8d 42 0c	 lea	 eax, DWORD PTR [edx+12]
  00007	8b 4a e8	 mov	 ecx, DWORD PTR [edx-24]
  0000a	33 c8		 xor	 ecx, eax
  0000c	e8 00 00 00 00	 call	 @__security_check_cookie@4
  00011	b8 00 00 00 00	 mov	 eax, OFFSET __ehfuncinfo$??0?$vector@UWeaponInfo@@V?$allocator@UWeaponInfo@@@std@@@std@@QAE@ABV01@@Z
  00016	e9 00 00 00 00	 jmp	 ___CxxFrameHandler3
text$x	ENDS
??0?$vector@UWeaponInfo@@V?$allocator@UWeaponInfo@@@std@@@std@@QAE@ABV01@@Z ENDP ; std::vector<WeaponInfo,std::allocator<WeaponInfo> >::vector<WeaponInfo,std::allocator<WeaponInfo> >
PUBLIC	?_Reserve@?$vector@VioHashString@@V?$allocator@VioHashString@@@std@@@std@@IAEXI@Z ; std::vector<ioHashString,std::allocator<ioHashString> >::_Reserve
; Function compile flags: /Ogsp
;	COMDAT ?_Reserve@?$vector@VioHashString@@V?$allocator@VioHashString@@@std@@@std@@IAEXI@Z
_TEXT	SEGMENT
__Count$ = 8						; size = 4
?_Reserve@?$vector@VioHashString@@V?$allocator@VioHashString@@@std@@@std@@IAEXI@Z PROC ; std::vector<ioHashString,std::allocator<ioHashString> >::_Reserve, COMDAT
; _this$ = ecx

; 1290 : 		{	// ensure room for _Count new elements, grow exponentially

  00000	55		 push	 ebp
  00001	8b ec		 mov	 ebp, esp
  00003	56		 push	 esi
  00004	8b f1		 mov	 esi, ecx

; 1291 : 		size_type _Size = size();

  00006	8b 0e		 mov	 ecx, DWORD PTR [esi]
  00008	8b 46 04	 mov	 eax, DWORD PTR [esi+4]
  0000b	2b c1		 sub	 eax, ecx

; 1292 : 		if (max_size() - _Count < _Size)

  0000d	ba ff ff ff 0f	 mov	 edx, 268435455		; 0fffffffH
  00012	2b 55 08	 sub	 edx, DWORD PTR __Count$[ebp]
  00015	c1 f8 04	 sar	 eax, 4
  00018	3b d0		 cmp	 edx, eax
  0001a	73 0b		 jae	 SHORT $LN4@Reserve

; 1293 : 			_Xlen();

  0001c	68 00 00 00 00	 push	 OFFSET ??_C@_0BD@OLBABOEK@vector?$DMT?$DO?5too?5long?$AA@
  00021	ff 15 00 00 00
	00		 call	 DWORD PTR __imp_?_Xlength_error@std@@YAXPBD@Z
$LN21@Reserve:
$LN4@Reserve:

; 1294 : 		else if ((_Size += _Count) <= capacity())

  00027	8b 56 08	 mov	 edx, DWORD PTR [esi+8]
  0002a	03 45 08	 add	 eax, DWORD PTR __Count$[ebp]
  0002d	2b d1		 sub	 edx, ecx
  0002f	c1 fa 04	 sar	 edx, 4
  00032	3b c2		 cmp	 eax, edx
  00034	76 10		 jbe	 SHORT $LN1@Reserve

; 1295 : 			;
; 1296 : 		else
; 1297 : 			reserve(_Grow_to(_Size));

  00036	50		 push	 eax
  00037	8b ce		 mov	 ecx, esi
  00039	e8 00 00 00 00	 call	 ?_Grow_to@?$vector@VioHashString@@V?$allocator@VioHashString@@@std@@@std@@IBEII@Z ; std::vector<ioHashString,std::allocator<ioHashString> >::_Grow_to
  0003e	50		 push	 eax
  0003f	8b ce		 mov	 ecx, esi
  00041	e8 00 00 00 00	 call	 ?reserve@?$vector@VioHashString@@V?$allocator@VioHashString@@@std@@@std@@QAEXI@Z ; std::vector<ioHashString,std::allocator<ioHashString> >::reserve
$LN1@Reserve:
  00046	5e		 pop	 esi

; 1298 : 		}

  00047	5d		 pop	 ebp
  00048	c2 04 00	 ret	 4
$LN20@Reserve:
?_Reserve@?$vector@VioHashString@@V?$allocator@VioHashString@@@std@@@std@@IAEXI@Z ENDP ; std::vector<ioHashString,std::allocator<ioHashString> >::_Reserve
_TEXT	ENDS
PUBLIC	??0?$vector@VioHashString@@V?$allocator@VioHashString@@@std@@@std@@QAE@ABV01@@Z ; std::vector<ioHashString,std::allocator<ioHashString> >::vector<ioHashString,std::allocator<ioHashString> >
;	COMDAT xdata$x
; File c:\program files (x86)\microsoft visual studio 10.0\vc\include\xutility
xdata$x	SEGMENT
__catchsym$??0?$vector@VioHashString@@V?$allocator@VioHashString@@@std@@@std@@QAE@ABV01@@Z$2 DD 040H
	DD	00H
	DD	00H
	DD	FLAT:__catch$??0?$vector@VioHashString@@V?$allocator@VioHashString@@@std@@@std@@QAE@ABV01@@Z$0
__unwindtable$??0?$vector@VioHashString@@V?$allocator@VioHashString@@@std@@@std@@QAE@ABV01@@Z DD 0ffffffffH
	DD	00H
	DD	0ffffffffH
	DD	00H
__tryblocktable$??0?$vector@VioHashString@@V?$allocator@VioHashString@@@std@@@std@@QAE@ABV01@@Z DD 00H
	DD	00H
	DD	01H
	DD	01H
	DD	FLAT:__catchsym$??0?$vector@VioHashString@@V?$allocator@VioHashString@@@std@@@std@@QAE@ABV01@@Z$2
__ehfuncinfo$??0?$vector@VioHashString@@V?$allocator@VioHashString@@@std@@@std@@QAE@ABV01@@Z DD 019930522H
	DD	02H
	DD	FLAT:__unwindtable$??0?$vector@VioHashString@@V?$allocator@VioHashString@@@std@@@std@@QAE@ABV01@@Z
	DD	01H
	DD	FLAT:__tryblocktable$??0?$vector@VioHashString@@V?$allocator@VioHashString@@@std@@@std@@QAE@ABV01@@Z
	DD	2 DUP(00H)
	DD	00H
	DD	01H
; Function compile flags: /Ogsp
; File c:\program files (x86)\microsoft visual studio 10.0\vc\include\vector
xdata$x	ENDS
;	COMDAT ??0?$vector@VioHashString@@V?$allocator@VioHashString@@@std@@@std@@QAE@ABV01@@Z
_TEXT	SEGMENT
_this$ = -20						; size = 4
__$EHRec$ = -16						; size = 16
__Cat$611601 = 8					; size = 1
__Right$ = 8						; size = 4
??0?$vector@VioHashString@@V?$allocator@VioHashString@@@std@@@std@@QAE@ABV01@@Z PROC ; std::vector<ioHashString,std::allocator<ioHashString> >::vector<ioHashString,std::allocator<ioHashString> >, COMDAT
; _this$ = ecx

; 535  : 		{	// construct by copying _Right

  00000	6a 08		 push	 8
  00002	b8 00 00 00 00	 mov	 eax, __ehhandler$??0?$vector@VioHashString@@V?$allocator@VioHashString@@@std@@@std@@QAE@ABV01@@Z
  00007	e8 00 00 00 00	 call	 __EH_prolog3_catch
  0000c	8b f1		 mov	 esi, ecx
  0000e	89 75 ec	 mov	 DWORD PTR _this$[ebp], esi

; 536  : 		if (_Buy(_Right.size()))

  00011	8b 7d 08	 mov	 edi, DWORD PTR __Right$[ebp]
  00014	33 db		 xor	 ebx, ebx
  00016	89 1e		 mov	 DWORD PTR [esi], ebx
  00018	89 5e 04	 mov	 DWORD PTR [esi+4], ebx
  0001b	89 5e 08	 mov	 DWORD PTR [esi+8], ebx
  0001e	8b 47 04	 mov	 eax, DWORD PTR [edi+4]
  00021	2b 07		 sub	 eax, DWORD PTR [edi]
  00023	c1 f8 04	 sar	 eax, 4
  00026	50		 push	 eax
  00027	e8 00 00 00 00	 call	 ?_Buy@?$vector@VioHashString@@V?$allocator@VioHashString@@@std@@@std@@IAE_NI@Z ; std::vector<ioHashString,std::allocator<ioHashString> >::_Buy
  0002c	84 c0		 test	 al, al
  0002e	74 1f		 je	 SHORT $LN7@vector@3

; 537  : 			_TRY_BEGIN
; 538  : 			this->_Mylast = _Ucopy(_Right.begin(), _Right.end(),
; 539  : 				this->_Myfirst);

  00030	ff 75 08	 push	 DWORD PTR __Cat$611601[ebp]
  00033	8b 0e		 mov	 ecx, DWORD PTR [esi]
  00035	8b 47 04	 mov	 eax, DWORD PTR [edi+4]
  00038	8b 3f		 mov	 edi, DWORD PTR [edi]
  0003a	8d 56 0c	 lea	 edx, DWORD PTR [esi+12]
  0003d	52		 push	 edx
  0003e	51		 push	 ecx
  0003f	50		 push	 eax
  00040	57		 push	 edi
  00041	89 5d fc	 mov	 DWORD PTR __$EHRec$[ebp+12], ebx
  00044	e8 00 00 00 00	 call	 ??$_Uninit_copy@V?$_Vector_const_iterator@V?$_Vector_val@VioHashString@@V?$allocator@VioHashString@@@std@@@std@@@std@@PAVioHashString@@V?$allocator@VioHashString@@@2@@std@@YAPAVioHashString@@V?$_Vector_const_iterator@V?$_Vector_val@VioHashString@@V?$allocator@VioHashString@@@std@@@std@@@0@0PAV1@AAV?$allocator@VioHashString@@@0@U_Nonscalar_ptr_iterator_tag@0@@Z ; std::_Uninit_copy<std::_Vector_const_iterator<std::_Vector_val<ioHashString,std::allocator<ioHashString> > >,ioHashString *,std::allocator<ioHashString> >
  00049	83 c4 14	 add	 esp, 20			; 00000014H
  0004c	89 46 04	 mov	 DWORD PTR [esi+4], eax
$LN7@vector@3:

; 543  : 			_CATCH_END
; 544  : 		}

  0004f	8b c6		 mov	 eax, esi
  00051	e8 00 00 00 00	 call	 __EH_epilog3
  00056	c2 04 00	 ret	 4
__catch$??0?$vector@VioHashString@@V?$allocator@VioHashString@@@std@@@std@@QAE@ABV01@@Z$0:

; 540  : 			_CATCH_ALL
; 541  : 			_Tidy();

  00059	8b 4d ec	 mov	 ecx, DWORD PTR _this$[ebp]
  0005c	e8 00 00 00 00	 call	 ?_Tidy@?$vector@VioHashString@@V?$allocator@VioHashString@@@std@@@std@@IAEXXZ ; std::vector<ioHashString,std::allocator<ioHashString> >::_Tidy

; 542  : 			_RERAISE;

  00061	33 db		 xor	 ebx, ebx
  00063	53		 push	 ebx
  00064	53		 push	 ebx
  00065	e8 00 00 00 00	 call	 __CxxThrowException@8
$LN38@vector@3:
$LN37@vector@3:
  0006a	cc		 int	 3
_TEXT	ENDS
;	COMDAT text$x
text$x	SEGMENT
__ehhandler$??0?$vector@VioHashString@@V?$allocator@VioHashString@@@std@@@std@@QAE@ABV01@@Z:
  00000	8b 54 24 08	 mov	 edx, DWORD PTR [esp+8]
  00004	8d 42 0c	 lea	 eax, DWORD PTR [edx+12]
  00007	8b 4a e8	 mov	 ecx, DWORD PTR [edx-24]
  0000a	33 c8		 xor	 ecx, eax
  0000c	e8 00 00 00 00	 call	 @__security_check_cookie@4
  00011	b8 00 00 00 00	 mov	 eax, OFFSET __ehfuncinfo$??0?$vector@VioHashString@@V?$allocator@VioHashString@@@std@@@std@@QAE@ABV01@@Z
  00016	e9 00 00 00 00	 jmp	 ___CxxFrameHandler3
text$x	ENDS
??0?$vector@VioHashString@@V?$allocator@VioHashString@@@std@@@std@@QAE@ABV01@@Z ENDP ; std::vector<ioHashString,std::allocator<ioHashString> >::vector<ioHashString,std::allocator<ioHashString> >
PUBLIC	??1?$vector@VioHashString@@V?$allocator@VioHashString@@@std@@@std@@QAE@XZ ; std::vector<ioHashString,std::allocator<ioHashString> >::~vector<ioHashString,std::allocator<ioHashString> >
; Function compile flags: /Ogsp
;	COMDAT ??1?$vector@VioHashString@@V?$allocator@VioHashString@@@std@@@std@@QAE@XZ
_TEXT	SEGMENT
??1?$vector@VioHashString@@V?$allocator@VioHashString@@@std@@@std@@QAE@XZ PROC ; std::vector<ioHashString,std::allocator<ioHashString> >::~vector<ioHashString,std::allocator<ioHashString> >, COMDAT
; _this$ = ecx

; 705  : 		_Tidy();

  00000	e9 00 00 00 00	 jmp	 ?_Tidy@?$vector@VioHashString@@V?$allocator@VioHashString@@@std@@@std@@IAEXXZ ; std::vector<ioHashString,std::allocator<ioHashString> >::_Tidy
??1?$vector@VioHashString@@V?$allocator@VioHashString@@@std@@@std@@QAE@XZ ENDP ; std::vector<ioHashString,std::allocator<ioHashString> >::~vector<ioHashString,std::allocator<ioHashString> >
_TEXT	ENDS
PUBLIC	?clear@?$vector@VioHashString@@V?$allocator@VioHashString@@@std@@@std@@QAEXXZ ; std::vector<ioHashString,std::allocator<ioHashString> >::clear
; Function compile flags: /Ogsp
;	COMDAT ?clear@?$vector@VioHashString@@V?$allocator@VioHashString@@@std@@@std@@QAEXXZ
_TEXT	SEGMENT
$T611631 = -4						; size = 4
?clear@?$vector@VioHashString@@V?$allocator@VioHashString@@@std@@@std@@QAEXXZ PROC ; std::vector<ioHashString,std::allocator<ioHashString> >::clear, COMDAT
; _this$ = ecx

; 1217 : 		{	// erase all

  00000	55		 push	 ebp
  00001	8b ec		 mov	 ebp, esp
  00003	51		 push	 ecx

; 1218 : 		erase(begin(), end());

  00004	8b 41 04	 mov	 eax, DWORD PTR [ecx+4]
  00007	8b 11		 mov	 edx, DWORD PTR [ecx]
  00009	50		 push	 eax
  0000a	52		 push	 edx
  0000b	8d 45 fc	 lea	 eax, DWORD PTR $T611631[ebp]
  0000e	50		 push	 eax
  0000f	e8 00 00 00 00	 call	 ?erase@?$vector@VioHashString@@V?$allocator@VioHashString@@@std@@@std@@QAE?AV?$_Vector_iterator@V?$_Vector_val@VioHashString@@V?$allocator@VioHashString@@@std@@@std@@@2@V?$_Vector_const_iterator@V?$_Vector_val@VioHashString@@V?$allocator@VioHashString@@@std@@@std@@@2@0@Z ; std::vector<ioHashString,std::allocator<ioHashString> >::erase

; 1219 : 		}

  00014	c9		 leave
  00015	c3		 ret	 0
?clear@?$vector@VioHashString@@V?$allocator@VioHashString@@@std@@@std@@QAEXXZ ENDP ; std::vector<ioHashString,std::allocator<ioHashString> >::clear
_TEXT	ENDS
PUBLIC	??1?$vector@UWeaponInfo@@V?$allocator@UWeaponInfo@@@std@@@std@@QAE@XZ ; std::vector<WeaponInfo,std::allocator<WeaponInfo> >::~vector<WeaponInfo,std::allocator<WeaponInfo> >
; Function compile flags: /Ogsp
;	COMDAT ??1?$vector@UWeaponInfo@@V?$allocator@UWeaponInfo@@@std@@@std@@QAE@XZ
_TEXT	SEGMENT
??1?$vector@UWeaponInfo@@V?$allocator@UWeaponInfo@@@std@@@std@@QAE@XZ PROC ; std::vector<WeaponInfo,std::allocator<WeaponInfo> >::~vector<WeaponInfo,std::allocator<WeaponInfo> >, COMDAT
; _this$ = ecx

; 705  : 		_Tidy();

  00000	e9 00 00 00 00	 jmp	 ?_Tidy@?$vector@UWeaponInfo@@V?$allocator@UWeaponInfo@@@std@@@std@@IAEXXZ ; std::vector<WeaponInfo,std::allocator<WeaponInfo> >::_Tidy
??1?$vector@UWeaponInfo@@V?$allocator@UWeaponInfo@@@std@@@std@@QAE@XZ ENDP ; std::vector<WeaponInfo,std::allocator<WeaponInfo> >::~vector<WeaponInfo,std::allocator<WeaponInfo> >
_TEXT	ENDS
PUBLIC	??4?$vector@UWeaponInfo@@V?$allocator@UWeaponInfo@@@std@@@std@@QAEAAV01@ABV01@@Z ; std::vector<WeaponInfo,std::allocator<WeaponInfo> >::operator=
; Function compile flags: /Ogsp
;	COMDAT ??4?$vector@UWeaponInfo@@V?$allocator@UWeaponInfo@@@std@@@std@@QAEAAV01@ABV01@@Z
_TEXT	SEGMENT
tv551 = 8						; size = 4
__Cat$611880 = 8					; size = 1
__Cat$611843 = 8					; size = 1
__Cat$611821 = 8					; size = 1
__Cat$611790 = 8					; size = 1
$T611755 = 8						; size = 4
__Right$ = 8						; size = 4
??4?$vector@UWeaponInfo@@V?$allocator@UWeaponInfo@@@std@@@std@@QAEAAV01@ABV01@@Z PROC ; std::vector<WeaponInfo,std::allocator<WeaponInfo> >::operator=, COMDAT
; _this$ = ecx

; 709  : 		{	// assign _Right

  00000	55		 push	 ebp
  00001	8b ec		 mov	 ebp, esp
  00003	56		 push	 esi
  00004	57		 push	 edi

; 710  : 		if (this != &_Right)

  00005	8b 7d 08	 mov	 edi, DWORD PTR __Right$[ebp]
  00008	8b f1		 mov	 esi, ecx
  0000a	3b f7		 cmp	 esi, edi
  0000c	0f 84 03 01 00
	00		 je	 $LN1@operator@2

; 711  : 			{	// worth doing
; 712  : 			this->_Orphan_all();

  00012	ff 15 00 00 00
	00		 call	 DWORD PTR __imp_?_Orphan_all@_Container_base0@std@@QAEXXZ

; 713  : 
; 714  : 			if (_Right.size() == 0)

  00018	8b 47 04	 mov	 eax, DWORD PTR [edi+4]
  0001b	2b 07		 sub	 eax, DWORD PTR [edi]
  0001d	6a 28		 push	 40			; 00000028H
  0001f	99		 cdq
  00020	59		 pop	 ecx
  00021	f7 f9		 idiv	 ecx
  00023	89 45 08	 mov	 DWORD PTR tv551[ebp], eax
  00026	85 c0		 test	 eax, eax

; 715  : 				clear();	// new sequence empty, erase existing sequence

  00028	8b 46 04	 mov	 eax, DWORD PTR [esi+4]
  0002b	75 14		 jne	 SHORT $LN8@operator@2
  0002d	8b 0e		 mov	 ecx, DWORD PTR [esi]
  0002f	50		 push	 eax
  00030	51		 push	 ecx
  00031	8d 45 08	 lea	 eax, DWORD PTR $T611755[ebp]
  00034	50		 push	 eax
  00035	8b ce		 mov	 ecx, esi
  00037	e8 00 00 00 00	 call	 ?erase@?$vector@UWeaponInfo@@V?$allocator@UWeaponInfo@@@std@@@std@@QAE?AV?$_Vector_iterator@V?$_Vector_val@UWeaponInfo@@V?$allocator@UWeaponInfo@@@std@@@std@@@2@V?$_Vector_const_iterator@V?$_Vector_val@UWeaponInfo@@V?$allocator@UWeaponInfo@@@std@@@std@@@2@0@Z ; std::vector<WeaponInfo,std::allocator<WeaponInfo> >::erase

; 716  : 			else if (_Right.size() <= size())

  0003c	e9 d4 00 00 00	 jmp	 $LN1@operator@2
$LN8@operator@2:
  00041	53		 push	 ebx
  00042	8b 1e		 mov	 ebx, DWORD PTR [esi]
  00044	2b c3		 sub	 eax, ebx
  00046	6a 28		 push	 40			; 00000028H
  00048	99		 cdq
  00049	59		 pop	 ecx
  0004a	f7 f9		 idiv	 ecx
  0004c	8b c8		 mov	 ecx, eax
  0004e	39 4d 08	 cmp	 DWORD PTR tv551[ebp], ecx
  00051	77 33		 ja	 SHORT $LN6@operator@2

; 717  : 				{	// enough elements, copy new and destroy old
; 718  : 				pointer _Ptr = _STD _Copy_impl(_Right._Myfirst, _Right._Mylast,
; 719  : 					this->_Myfirst);	// copy new

  00053	ff 75 08	 push	 DWORD PTR __Cat$611790[ebp]
  00056	53		 push	 ebx
  00057	ff 77 04	 push	 DWORD PTR [edi+4]
  0005a	ff 37		 push	 DWORD PTR [edi]
  0005c	e8 00 00 00 00	 call	 ??$_Copy_impl@PAUWeaponInfo@@PAU1@@std@@YAPAUWeaponInfo@@PAU1@00U_Nonscalar_ptr_iterator_tag@0@@Z ; std::_Copy_impl<WeaponInfo *,WeaponInfo *>

; 720  : 				_Destroy(_Ptr, this->_Mylast);	// destroy old

  00061	8d 4e 0c	 lea	 ecx, DWORD PTR [esi+12]
  00064	51		 push	 ecx
  00065	ff 76 04	 push	 DWORD PTR [esi+4]
  00068	50		 push	 eax
  00069	e8 00 00 00 00	 call	 ??$_Destroy_range@V?$allocator@UWeaponInfo@@@std@@@std@@YAXPAUWeaponInfo@@0AAV?$allocator@UWeaponInfo@@@0@@Z ; std::_Destroy_range<std::allocator<WeaponInfo> >

; 721  : 				this->_Mylast = this->_Myfirst + _Right.size();

  0006e	8b 47 04	 mov	 eax, DWORD PTR [edi+4]
  00071	2b 07		 sub	 eax, DWORD PTR [edi]
  00073	83 c4 1c	 add	 esp, 28			; 0000001cH
  00076	99		 cdq
  00077	6a 28		 push	 40			; 00000028H
  00079	59		 pop	 ecx
  0007a	f7 f9		 idiv	 ecx
  0007c	6b c0 28	 imul	 eax, 40			; 00000028H
  0007f	03 06		 add	 eax, DWORD PTR [esi]

; 722  : 				}
; 723  : 			else if (_Right.size() <= capacity())

  00081	e9 8b 00 00 00	 jmp	 $LN73@operator@2
$LN6@operator@2:
  00086	8b 46 08	 mov	 eax, DWORD PTR [esi+8]
  00089	2b c3		 sub	 eax, ebx
  0008b	6a 28		 push	 40			; 00000028H
  0008d	99		 cdq
  0008e	5b		 pop	 ebx
  0008f	f7 fb		 idiv	 ebx
  00091	39 45 08	 cmp	 DWORD PTR tv551[ebp], eax
  00094	77 2e		 ja	 SHORT $LN4@operator@2

; 724  : 				{	// enough room, copy and construct new
; 725  : 				pointer _Ptr = _Right._Myfirst + size();
; 726  : 				_STD _Copy_impl(_Right._Myfirst, _Ptr, this->_Myfirst);

  00096	ff 75 08	 push	 DWORD PTR __Cat$611821[ebp]
  00099	6b c9 28	 imul	 ecx, 40			; 00000028H
  0009c	8b 07		 mov	 eax, DWORD PTR [edi]
  0009e	ff 36		 push	 DWORD PTR [esi]
  000a0	8d 1c 08	 lea	 ebx, DWORD PTR [eax+ecx]
  000a3	53		 push	 ebx
  000a4	50		 push	 eax
  000a5	e8 00 00 00 00	 call	 ??$_Copy_impl@PAUWeaponInfo@@PAU1@@std@@YAPAUWeaponInfo@@PAU1@00U_Nonscalar_ptr_iterator_tag@0@@Z ; std::_Copy_impl<WeaponInfo *,WeaponInfo *>

; 727  : 				this->_Mylast = _Ucopy(_Ptr, _Right._Mylast, this->_Mylast);

  000aa	ff 75 08	 push	 DWORD PTR __Cat$611843[ebp]
  000ad	8b 46 04	 mov	 eax, DWORD PTR [esi+4]
  000b0	8b 7f 04	 mov	 edi, DWORD PTR [edi+4]
  000b3	8d 4e 0c	 lea	 ecx, DWORD PTR [esi+12]
  000b6	51		 push	 ecx
  000b7	50		 push	 eax
  000b8	57		 push	 edi
  000b9	53		 push	 ebx
  000ba	e8 00 00 00 00	 call	 ??$_Uninit_copy@PAUWeaponInfo@@PAU1@V?$allocator@UWeaponInfo@@@std@@@std@@YAPAUWeaponInfo@@PAU1@00AAV?$allocator@UWeaponInfo@@@0@U_Nonscalar_ptr_iterator_tag@0@@Z ; std::_Uninit_copy<WeaponInfo *,WeaponInfo *,std::allocator<WeaponInfo> >
  000bf	83 c4 24	 add	 esp, 36			; 00000024H

; 728  : 				}
; 729  : 			else

  000c2	eb 4d		 jmp	 SHORT $LN73@operator@2
$LN4@operator@2:

; 730  : 				{	// not enough room, allocate new array and construct new
; 731  : 				if (this->_Myfirst != 0)

  000c4	8b 06		 mov	 eax, DWORD PTR [esi]
  000c6	85 c0		 test	 eax, eax
  000c8	74 17		 je	 SHORT $LN62@operator@2

; 732  : 					{	// discard old array
; 733  : 					_Destroy(this->_Myfirst, this->_Mylast);

  000ca	8d 4e 0c	 lea	 ecx, DWORD PTR [esi+12]
  000cd	51		 push	 ecx
  000ce	ff 76 04	 push	 DWORD PTR [esi+4]
  000d1	50		 push	 eax
  000d2	e8 00 00 00 00	 call	 ??$_Destroy_range@V?$allocator@UWeaponInfo@@@std@@@std@@YAXPAUWeaponInfo@@0AAV?$allocator@UWeaponInfo@@@0@@Z ; std::_Destroy_range<std::allocator<WeaponInfo> >

; 734  : 					this->_Alval.deallocate(this->_Myfirst,
; 735  : 						this->_Myend - this->_Myfirst);

  000d7	ff 36		 push	 DWORD PTR [esi]
  000d9	e8 00 00 00 00	 call	 ??3@YAXPAX@Z		; operator delete
  000de	83 c4 10	 add	 esp, 16			; 00000010H
$LN62@operator@2:

; 736  : 					}
; 737  : 				if (_Buy(_Right.size()))

  000e1	8b 47 04	 mov	 eax, DWORD PTR [edi+4]
  000e4	2b 07		 sub	 eax, DWORD PTR [edi]
  000e6	6a 28		 push	 40			; 00000028H
  000e8	59		 pop	 ecx
  000e9	99		 cdq
  000ea	f7 f9		 idiv	 ecx
  000ec	8b ce		 mov	 ecx, esi
  000ee	50		 push	 eax
  000ef	e8 00 00 00 00	 call	 ?_Buy@?$vector@UWeaponInfo@@V?$allocator@UWeaponInfo@@@std@@@std@@IAE_NI@Z ; std::vector<WeaponInfo,std::allocator<WeaponInfo> >::_Buy
  000f4	84 c0		 test	 al, al
  000f6	74 1c		 je	 SHORT $LN72@operator@2

; 738  : 					this->_Mylast = _Ucopy(_Right._Myfirst, _Right._Mylast,
; 739  : 						this->_Myfirst);

  000f8	ff 75 08	 push	 DWORD PTR __Cat$611880[ebp]
  000fb	8b 06		 mov	 eax, DWORD PTR [esi]
  000fd	8b 4f 04	 mov	 ecx, DWORD PTR [edi+4]
  00100	8b 3f		 mov	 edi, DWORD PTR [edi]
  00102	8d 56 0c	 lea	 edx, DWORD PTR [esi+12]
  00105	52		 push	 edx
  00106	50		 push	 eax
  00107	51		 push	 ecx
  00108	57		 push	 edi
  00109	e8 00 00 00 00	 call	 ??$_Uninit_copy@PAUWeaponInfo@@PAU1@V?$allocator@UWeaponInfo@@@std@@@std@@YAPAUWeaponInfo@@PAU1@00AAV?$allocator@UWeaponInfo@@@0@U_Nonscalar_ptr_iterator_tag@0@@Z ; std::_Uninit_copy<WeaponInfo *,WeaponInfo *,std::allocator<WeaponInfo> >
  0010e	83 c4 14	 add	 esp, 20			; 00000014H
$LN73@operator@2:
  00111	89 46 04	 mov	 DWORD PTR [esi+4], eax
$LN72@operator@2:
  00114	5b		 pop	 ebx
$LN1@operator@2:
  00115	5f		 pop	 edi

; 740  : 				}
; 741  : 			}
; 742  : 		return (*this);

  00116	8b c6		 mov	 eax, esi
  00118	5e		 pop	 esi

; 743  : 		}

  00119	5d		 pop	 ebp
  0011a	c2 04 00	 ret	 4
??4?$vector@UWeaponInfo@@V?$allocator@UWeaponInfo@@@std@@@std@@QAEAAV01@ABV01@@Z ENDP ; std::vector<WeaponInfo,std::allocator<WeaponInfo> >::operator=
_TEXT	ENDS
PUBLIC	??0AttackAttribute@@QAE@ABU0@@Z			; AttackAttribute::AttackAttribute
;	COMDAT xdata$x
xdata$x	SEGMENT
__unwindtable$??0AttackAttribute@@QAE@ABU0@@Z DD 0ffffffffH
	DD	FLAT:__unwindfunclet$??0AttackAttribute@@QAE@ABU0@@Z$0
	DD	00H
	DD	FLAT:__unwindfunclet$??0AttackAttribute@@QAE@ABU0@@Z$1
	DD	01H
	DD	FLAT:__unwindfunclet$??0AttackAttribute@@QAE@ABU0@@Z$2
__ehfuncinfo$??0AttackAttribute@@QAE@ABU0@@Z DD 019930522H
	DD	03H
	DD	FLAT:__unwindtable$??0AttackAttribute@@QAE@ABU0@@Z
	DD	2 DUP(00H)
	DD	2 DUP(00H)
	DD	00H
	DD	01H
; Function compile flags: /Ogsp
xdata$x	ENDS
;	COMDAT ??0AttackAttribute@@QAE@ABU0@@Z
_TEXT	SEGMENT
_this$ = -16						; size = 4
__$EHRec$ = -12						; size = 12
___that$ = 8						; size = 4
??0AttackAttribute@@QAE@ABU0@@Z PROC			; AttackAttribute::AttackAttribute, COMDAT
; _this$ = ecx
  00000	6a 04		 push	 4
  00002	b8 00 00 00 00	 mov	 eax, __ehhandler$??0AttackAttribute@@QAE@ABU0@@Z
  00007	e8 00 00 00 00	 call	 __EH_prolog3
  0000c	8b f1		 mov	 esi, ecx
  0000e	89 75 f0	 mov	 DWORD PTR _this$[ebp], esi
  00011	8b 7d 08	 mov	 edi, DWORD PTR ___that$[ebp]
  00014	8b 1d 00 00 00
	00		 mov	 ebx, DWORD PTR __imp_??0ioHashString@@QAE@ABV0@@Z
  0001a	57		 push	 edi
  0001b	ff d3		 call	 ebx
  0001d	d9 47 10	 fld	 DWORD PTR [edi+16]
  00020	83 65 fc 00	 and	 DWORD PTR __$EHRec$[ebp+8], 0
  00024	d9 5e 10	 fstp	 DWORD PTR [esi+16]
  00027	8d 47 14	 lea	 eax, DWORD PTR [edi+20]
  0002a	50		 push	 eax
  0002b	8d 4e 14	 lea	 ecx, DWORD PTR [esi+20]
  0002e	ff d3		 call	 ebx
  00030	d9 47 24	 fld	 DWORD PTR [edi+36]
  00033	8d 47 28	 lea	 eax, DWORD PTR [edi+40]
  00036	d9 5e 24	 fstp	 DWORD PTR [esi+36]
  00039	50		 push	 eax
  0003a	8d 4e 28	 lea	 ecx, DWORD PTR [esi+40]
  0003d	c6 45 fc 01	 mov	 BYTE PTR __$EHRec$[ebp+8], 1
  00041	e8 00 00 00 00	 call	 ??0?$vector@UWeaponInfo@@V?$allocator@UWeaponInfo@@@std@@@std@@QAE@ABV01@@Z ; std::vector<WeaponInfo,std::allocator<WeaponInfo> >::vector<WeaponInfo,std::allocator<WeaponInfo> >
  00046	8d 47 38	 lea	 eax, DWORD PTR [edi+56]
  00049	50		 push	 eax
  0004a	8d 4e 38	 lea	 ecx, DWORD PTR [esi+56]
  0004d	c6 45 fc 02	 mov	 BYTE PTR __$EHRec$[ebp+8], 2
  00051	e8 00 00 00 00	 call	 ??0?$vector@UForceInfo@@V?$allocator@UForceInfo@@@std@@@std@@QAE@ABV01@@Z ; std::vector<ForceInfo,std::allocator<ForceInfo> >::vector<ForceInfo,std::allocator<ForceInfo> >
  00056	8b 47 48	 mov	 eax, DWORD PTR [edi+72]
  00059	89 46 48	 mov	 DWORD PTR [esi+72], eax
  0005c	8b 47 4c	 mov	 eax, DWORD PTR [edi+76]
  0005f	89 46 4c	 mov	 DWORD PTR [esi+76], eax
  00062	8b c6		 mov	 eax, esi
  00064	e8 00 00 00 00	 call	 __EH_epilog3
  00069	c2 04 00	 ret	 4
_TEXT	ENDS
;	COMDAT text$x
text$x	SEGMENT
__unwindfunclet$??0AttackAttribute@@QAE@ABU0@@Z$0:
  00000	8b 4d f0	 mov	 ecx, DWORD PTR _this$[ebp]
  00003	ff 25 00 00 00
	00		 jmp	 DWORD PTR __imp_??1ioHashString@@QAE@XZ
__unwindfunclet$??0AttackAttribute@@QAE@ABU0@@Z$1:
  00009	8b 4d f0	 mov	 ecx, DWORD PTR _this$[ebp]
  0000c	83 c1 14	 add	 ecx, 20			; 00000014H
  0000f	ff 25 00 00 00
	00		 jmp	 DWORD PTR __imp_??1ioHashString@@QAE@XZ
__unwindfunclet$??0AttackAttribute@@QAE@ABU0@@Z$2:
  00015	8b 4d f0	 mov	 ecx, DWORD PTR _this$[ebp]
  00018	83 c1 28	 add	 ecx, 40			; 00000028H
  0001b	e9 00 00 00 00	 jmp	 ??1?$vector@UWeaponInfo@@V?$allocator@UWeaponInfo@@@std@@@std@@QAE@XZ ; std::vector<WeaponInfo,std::allocator<WeaponInfo> >::~vector<WeaponInfo,std::allocator<WeaponInfo> >
__ehhandler$??0AttackAttribute@@QAE@ABU0@@Z:
  00020	8b 54 24 08	 mov	 edx, DWORD PTR [esp+8]
  00024	8d 42 0c	 lea	 eax, DWORD PTR [edx+12]
  00027	8b 4a ec	 mov	 ecx, DWORD PTR [edx-20]
  0002a	33 c8		 xor	 ecx, eax
  0002c	e8 00 00 00 00	 call	 @__security_check_cookie@4
  00031	b8 00 00 00 00	 mov	 eax, OFFSET __ehfuncinfo$??0AttackAttribute@@QAE@ABU0@@Z
  00036	e9 00 00 00 00	 jmp	 ___CxxFrameHandler3
text$x	ENDS
??0AttackAttribute@@QAE@ABU0@@Z ENDP			; AttackAttribute::AttackAttribute
PUBLIC	?push_back@?$vector@VioHashString@@V?$allocator@VioHashString@@@std@@@std@@QAEX$$QAVioHashString@@@Z ; std::vector<ioHashString,std::allocator<ioHashString> >::push_back
; Function compile flags: /Ogsp
;	COMDAT ?push_back@?$vector@VioHashString@@V?$allocator@VioHashString@@@std@@@std@@QAEX$$QAVioHashString@@@Z
_TEXT	SEGMENT
__Val$ = 8						; size = 4
?push_back@?$vector@VioHashString@@V?$allocator@VioHashString@@@std@@@std@@QAEX$$QAVioHashString@@@Z PROC ; std::vector<ioHashString,std::allocator<ioHashString> >::push_back, COMDAT
; _this$ = ecx

; 631  : 		{	// insert element at end

  00000	55		 push	 ebp
  00001	8b ec		 mov	 ebp, esp
  00003	56		 push	 esi
  00004	8b f1		 mov	 esi, ecx

; 632  : 		if (_Inside(_STD addressof(_Val)))

  00006	8b 46 04	 mov	 eax, DWORD PTR [esi+4]
  00009	57		 push	 edi
  0000a	8b 7d 08	 mov	 edi, DWORD PTR __Val$[ebp]
  0000d	3b f8		 cmp	 edi, eax
  0000f	73 1d		 jae	 SHORT $LN4@push_back
  00011	8b 0e		 mov	 ecx, DWORD PTR [esi]
  00013	3b cf		 cmp	 ecx, edi
  00015	77 17		 ja	 SHORT $LN4@push_back

; 633  : 			{	// push back an element
; 634  : 			size_type _Idx = _STD addressof(_Val) - this->_Myfirst;

  00017	2b f9		 sub	 edi, ecx

; 635  : 			if (this->_Mylast == this->_Myend)

  00019	3b 46 08	 cmp	 eax, DWORD PTR [esi+8]
  0001c	75 09		 jne	 SHORT $LN3@push_back

; 636  : 				_Reserve(1);

  0001e	6a 01		 push	 1
  00020	8b ce		 mov	 ecx, esi
  00022	e8 00 00 00 00	 call	 ?_Reserve@?$vector@VioHashString@@V?$allocator@VioHashString@@@std@@@std@@IAEXI@Z ; std::vector<ioHashString,std::allocator<ioHashString> >::_Reserve
$LN3@push_back:

; 637  : 			_Orphan_range(this->_Mylast, this->_Mylast);
; 638  : 			_Cons_val(this->_Alval,
; 639  : 				this->_Mylast,
; 640  : 				_STD forward<_Ty>(this->_Myfirst[_Idx]));

  00027	83 e7 f0	 and	 edi, -16		; fffffff0H
  0002a	03 3e		 add	 edi, DWORD PTR [esi]

; 641  : 			++this->_Mylast;
; 642  : 			}
; 643  : 		else

  0002c	eb 0e		 jmp	 SHORT $LN1@push_back
$LN4@push_back:

; 644  : 			{	// push back a non-element
; 645  : 			if (this->_Mylast == this->_Myend)

  0002e	3b 46 08	 cmp	 eax, DWORD PTR [esi+8]
  00031	75 09		 jne	 SHORT $LN1@push_back

; 646  : 				_Reserve(1);

  00033	6a 01		 push	 1
  00035	8b ce		 mov	 ecx, esi
  00037	e8 00 00 00 00	 call	 ?_Reserve@?$vector@VioHashString@@V?$allocator@VioHashString@@@std@@@std@@IAEXI@Z ; std::vector<ioHashString,std::allocator<ioHashString> >::_Reserve
$LN1@push_back:

; 647  : 			_Orphan_range(this->_Mylast, this->_Mylast);
; 648  : 			_Cons_val(this->_Alval,
; 649  : 				this->_Mylast,
; 650  : 				_STD forward<_Ty>(_Val));

  0003c	57		 push	 edi
  0003d	ff 76 04	 push	 DWORD PTR [esi+4]
  00040	8d 4e 0c	 lea	 ecx, DWORD PTR [esi+12]
  00043	e8 00 00 00 00	 call	 ?construct@?$allocator@VioHashString@@@std@@QAEXPAVioHashString@@$$QAV3@@Z ; std::allocator<ioHashString>::construct

; 651  : 			++this->_Mylast;

  00048	83 46 04 10	 add	 DWORD PTR [esi+4], 16	; 00000010H
  0004c	5f		 pop	 edi
  0004d	5e		 pop	 esi

; 652  : 			}
; 653  : 		}

  0004e	5d		 pop	 ebp
  0004f	c2 04 00	 ret	 4
?push_back@?$vector@VioHashString@@V?$allocator@VioHashString@@@std@@@std@@QAEX$$QAVioHashString@@@Z ENDP ; std::vector<ioHashString,std::allocator<ioHashString> >::push_back
_TEXT	ENDS
PUBLIC	??$construct@AAUAttackAttribute@@@?$allocator@UAttackAttribute@@@std@@QAEXPAUAttackAttribute@@AAU2@@Z ; std::allocator<AttackAttribute>::construct<AttackAttribute &>
;	COMDAT xdata$x
; File c:\program files (x86)\microsoft visual studio 10.0\vc\include\utility
xdata$x	SEGMENT
__unwindtable$??$construct@AAUAttackAttribute@@@?$allocator@UAttackAttribute@@@std@@QAEXPAUAttackAttribute@@AAU2@@Z DD 0ffffffffH
	DD	FLAT:__unwindfunclet$??$construct@AAUAttackAttribute@@@?$allocator@UAttackAttribute@@@std@@QAEXPAUAttackAttribute@@AAU2@@Z$0
__ehfuncinfo$??$construct@AAUAttackAttribute@@@?$allocator@UAttackAttribute@@@std@@QAEXPAUAttackAttribute@@AAU2@@Z DD 019930522H
	DD	01H
	DD	FLAT:__unwindtable$??$construct@AAUAttackAttribute@@@?$allocator@UAttackAttribute@@@std@@QAEXPAUAttackAttribute@@AAU2@@Z
	DD	2 DUP(00H)
	DD	2 DUP(00H)
	DD	00H
	DD	01H
; Function compile flags: /Ogsp
; File c:\program files (x86)\microsoft visual studio 10.0\vc\include\xmemory
xdata$x	ENDS
;	COMDAT ??$construct@AAUAttackAttribute@@@?$allocator@UAttackAttribute@@@std@@QAEXPAUAttackAttribute@@AAU2@@Z
_TEXT	SEGMENT
$T611949 = -16						; size = 4
__$EHRec$ = -12						; size = 12
__Ptr$ = 8						; size = 4
__Val$ = 12						; size = 4
??$construct@AAUAttackAttribute@@@?$allocator@UAttackAttribute@@@std@@QAEXPAUAttackAttribute@@AAU2@@Z PROC ; std::allocator<AttackAttribute>::construct<AttackAttribute &>, COMDAT
; _this$ = ecx

; 206  : 		void construct(pointer _Ptr, _Other&& _Val)

  00000	6a 04		 push	 4
  00002	b8 00 00 00 00	 mov	 eax, __ehhandler$??$construct@AAUAttackAttribute@@@?$allocator@UAttackAttribute@@@std@@QAEXPAUAttackAttribute@@AAU2@@Z
  00007	e8 00 00 00 00	 call	 __EH_prolog3

; 207  : 		{	// construct object at _Ptr with value _Val
; 208  : 		::new ((void _FARQ *)_Ptr) _Ty(_STD forward<_Other>(_Val));

  0000c	8b 4d 08	 mov	 ecx, DWORD PTR __Ptr$[ebp]
  0000f	89 4d f0	 mov	 DWORD PTR $T611949[ebp], ecx
  00012	83 65 fc 00	 and	 DWORD PTR __$EHRec$[ebp+8], 0
  00016	85 c9		 test	 ecx, ecx
  00018	74 08		 je	 SHORT $LN3@construct@5
  0001a	ff 75 0c	 push	 DWORD PTR __Val$[ebp]
  0001d	e8 00 00 00 00	 call	 ??0AttackAttribute@@QAE@ABU0@@Z
$LN3@construct@5:

; 209  : 		}

  00022	e8 00 00 00 00	 call	 __EH_epilog3
  00027	c2 08 00	 ret	 8
_TEXT	ENDS
;	COMDAT text$x
text$x	SEGMENT
__unwindfunclet$??$construct@AAUAttackAttribute@@@?$allocator@UAttackAttribute@@@std@@QAEXPAUAttackAttribute@@AAU2@@Z$0:
  00000	ff 75 08	 push	 DWORD PTR __Ptr$[ebp]
  00003	ff 75 f0	 push	 DWORD PTR $T611949[ebp]
  00006	e8 00 00 00 00	 call	 ??3@YAXPAX0@Z		; operator delete
  0000b	59		 pop	 ecx
  0000c	59		 pop	 ecx
  0000d	c3		 ret	 0
__ehhandler$??$construct@AAUAttackAttribute@@@?$allocator@UAttackAttribute@@@std@@QAEXPAUAttackAttribute@@AAU2@@Z:
  0000e	8b 54 24 08	 mov	 edx, DWORD PTR [esp+8]
  00012	8d 42 0c	 lea	 eax, DWORD PTR [edx+12]
  00015	8b 4a ec	 mov	 ecx, DWORD PTR [edx-20]
  00018	33 c8		 xor	 ecx, eax
  0001a	e8 00 00 00 00	 call	 @__security_check_cookie@4
  0001f	b8 00 00 00 00	 mov	 eax, OFFSET __ehfuncinfo$??$construct@AAUAttackAttribute@@@?$allocator@UAttackAttribute@@@std@@QAEXPAUAttackAttribute@@AAU2@@Z
  00024	e9 00 00 00 00	 jmp	 ___CxxFrameHandler3
text$x	ENDS
??$construct@AAUAttackAttribute@@@?$allocator@UAttackAttribute@@@std@@QAEXPAUAttackAttribute@@AAU2@@Z ENDP ; std::allocator<AttackAttribute>::construct<AttackAttribute &>
PUBLIC	??$_Construct@UAttackAttribute@@ABU1@@std@@YAXPAUAttackAttribute@@ABU1@@Z ; std::_Construct<AttackAttribute,AttackAttribute const &>
;	COMDAT xdata$x
; File c:\program files (x86)\microsoft visual studio 10.0\vc\include\utility
xdata$x	SEGMENT
__unwindtable$??$_Construct@UAttackAttribute@@ABU1@@std@@YAXPAUAttackAttribute@@ABU1@@Z DD 0ffffffffH
	DD	FLAT:__unwindfunclet$??$_Construct@UAttackAttribute@@ABU1@@std@@YAXPAUAttackAttribute@@ABU1@@Z$0
__ehfuncinfo$??$_Construct@UAttackAttribute@@ABU1@@std@@YAXPAUAttackAttribute@@ABU1@@Z DD 019930522H
	DD	01H
	DD	FLAT:__unwindtable$??$_Construct@UAttackAttribute@@ABU1@@std@@YAXPAUAttackAttribute@@ABU1@@Z
	DD	2 DUP(00H)
	DD	2 DUP(00H)
	DD	00H
	DD	01H
; Function compile flags: /Ogsp
; File c:\program files (x86)\microsoft visual studio 10.0\vc\include\xmemory
xdata$x	ENDS
;	COMDAT ??$_Construct@UAttackAttribute@@ABU1@@std@@YAXPAUAttackAttribute@@ABU1@@Z
_TEXT	SEGMENT
$T611968 = -16						; size = 4
__$EHRec$ = -12						; size = 12
__Vptr$ = 8						; size = 4
__Ptr$ = 8						; size = 4
__Val$ = 12						; size = 4
??$_Construct@UAttackAttribute@@ABU1@@std@@YAXPAUAttackAttribute@@ABU1@@Z PROC ; std::_Construct<AttackAttribute,AttackAttribute const &>, COMDAT

; 46   : 	{	// construct object at _Ptr with value _Val

  00000	6a 04		 push	 4
  00002	b8 00 00 00 00	 mov	 eax, __ehhandler$??$_Construct@UAttackAttribute@@ABU1@@std@@YAXPAUAttackAttribute@@ABU1@@Z
  00007	e8 00 00 00 00	 call	 __EH_prolog3

; 47   : 	void _FARQ *_Vptr = _Ptr;

  0000c	8b 4d 08	 mov	 ecx, DWORD PTR __Ptr$[ebp]
  0000f	89 4d 08	 mov	 DWORD PTR __Vptr$[ebp], ecx

; 48   : 	::new (_Vptr) _Ty1(_STD forward<_Ty2>(_Val));

  00012	89 4d f0	 mov	 DWORD PTR $T611968[ebp], ecx
  00015	83 65 fc 00	 and	 DWORD PTR __$EHRec$[ebp+8], 0
  00019	85 c9		 test	 ecx, ecx
  0001b	74 08		 je	 SHORT $LN3@Construct@4
  0001d	ff 75 0c	 push	 DWORD PTR __Val$[ebp]
  00020	e8 00 00 00 00	 call	 ??0AttackAttribute@@QAE@ABU0@@Z
$LN3@Construct@4:

; 49   : 	}

  00025	e8 00 00 00 00	 call	 __EH_epilog3
  0002a	c3		 ret	 0
_TEXT	ENDS
;	COMDAT text$x
text$x	SEGMENT
__unwindfunclet$??$_Construct@UAttackAttribute@@ABU1@@std@@YAXPAUAttackAttribute@@ABU1@@Z$0:
  00000	ff 75 08	 push	 DWORD PTR __Vptr$[ebp]
  00003	ff 75 f0	 push	 DWORD PTR $T611968[ebp]
  00006	e8 00 00 00 00	 call	 ??3@YAXPAX0@Z		; operator delete
  0000b	59		 pop	 ecx
  0000c	59		 pop	 ecx
  0000d	c3		 ret	 0
__ehhandler$??$_Construct@UAttackAttribute@@ABU1@@std@@YAXPAUAttackAttribute@@ABU1@@Z:
  0000e	8b 54 24 08	 mov	 edx, DWORD PTR [esp+8]
  00012	8d 42 0c	 lea	 eax, DWORD PTR [edx+12]
  00015	8b 4a ec	 mov	 ecx, DWORD PTR [edx-20]
  00018	33 c8		 xor	 ecx, eax
  0001a	e8 00 00 00 00	 call	 @__security_check_cookie@4
  0001f	b8 00 00 00 00	 mov	 eax, OFFSET __ehfuncinfo$??$_Construct@UAttackAttribute@@ABU1@@std@@YAXPAUAttackAttribute@@ABU1@@Z
  00024	e9 00 00 00 00	 jmp	 ___CxxFrameHandler3
text$x	ENDS
??$_Construct@UAttackAttribute@@ABU1@@std@@YAXPAUAttackAttribute@@ABU1@@Z ENDP ; std::_Construct<AttackAttribute,AttackAttribute const &>
PUBLIC	?construct@?$allocator@UAttackAttribute@@@std@@QAEXPAUAttackAttribute@@$$QAU3@@Z ; std::allocator<AttackAttribute>::construct
;	COMDAT xdata$x
; File c:\program files (x86)\microsoft visual studio 10.0\vc\include\utility
xdata$x	SEGMENT
__unwindtable$?construct@?$allocator@UAttackAttribute@@@std@@QAEXPAUAttackAttribute@@$$QAU3@@Z DD 0ffffffffH
	DD	FLAT:__unwindfunclet$?construct@?$allocator@UAttackAttribute@@@std@@QAEXPAUAttackAttribute@@$$QAU3@@Z$0
__ehfuncinfo$?construct@?$allocator@UAttackAttribute@@@std@@QAEXPAUAttackAttribute@@$$QAU3@@Z DD 019930522H
	DD	01H
	DD	FLAT:__unwindtable$?construct@?$allocator@UAttackAttribute@@@std@@QAEXPAUAttackAttribute@@$$QAU3@@Z
	DD	2 DUP(00H)
	DD	2 DUP(00H)
	DD	00H
	DD	01H
; Function compile flags: /Ogsp
; File c:\program files (x86)\microsoft visual studio 10.0\vc\include\xmemory
xdata$x	ENDS
;	COMDAT ?construct@?$allocator@UAttackAttribute@@@std@@QAEXPAUAttackAttribute@@$$QAU3@@Z
_TEXT	SEGMENT
$T611987 = -16						; size = 4
__$EHRec$ = -12						; size = 12
__Ptr$ = 8						; size = 4
__Val$ = 12						; size = 4
?construct@?$allocator@UAttackAttribute@@@std@@QAEXPAUAttackAttribute@@$$QAU3@@Z PROC ; std::allocator<AttackAttribute>::construct, COMDAT
; _this$ = ecx

; 201  : 		{	// construct object at _Ptr with value _Val

  00000	6a 04		 push	 4
  00002	b8 00 00 00 00	 mov	 eax, __ehhandler$?construct@?$allocator@UAttackAttribute@@@std@@QAEXPAUAttackAttribute@@$$QAU3@@Z
  00007	e8 00 00 00 00	 call	 __EH_prolog3

; 202  : 		::new ((void _FARQ *)_Ptr) _Ty(_STD forward<_Ty>(_Val));

  0000c	8b 4d 08	 mov	 ecx, DWORD PTR __Ptr$[ebp]
  0000f	89 4d f0	 mov	 DWORD PTR $T611987[ebp], ecx
  00012	83 65 fc 00	 and	 DWORD PTR __$EHRec$[ebp+8], 0
  00016	85 c9		 test	 ecx, ecx
  00018	74 08		 je	 SHORT $LN3@construct@6
  0001a	ff 75 0c	 push	 DWORD PTR __Val$[ebp]
  0001d	e8 00 00 00 00	 call	 ??0AttackAttribute@@QAE@ABU0@@Z
$LN3@construct@6:

; 203  : 		}

  00022	e8 00 00 00 00	 call	 __EH_epilog3
  00027	c2 08 00	 ret	 8
_TEXT	ENDS
;	COMDAT text$x
text$x	SEGMENT
__unwindfunclet$?construct@?$allocator@UAttackAttribute@@@std@@QAEXPAUAttackAttribute@@$$QAU3@@Z$0:
  00000	ff 75 08	 push	 DWORD PTR __Ptr$[ebp]
  00003	ff 75 f0	 push	 DWORD PTR $T611987[ebp]
  00006	e8 00 00 00 00	 call	 ??3@YAXPAX0@Z		; operator delete
  0000b	59		 pop	 ecx
  0000c	59		 pop	 ecx
  0000d	c3		 ret	 0
__ehhandler$?construct@?$allocator@UAttackAttribute@@@std@@QAEXPAUAttackAttribute@@$$QAU3@@Z:
  0000e	8b 54 24 08	 mov	 edx, DWORD PTR [esp+8]
  00012	8d 42 0c	 lea	 eax, DWORD PTR [edx+12]
  00015	8b 4a ec	 mov	 ecx, DWORD PTR [edx-20]
  00018	33 c8		 xor	 ecx, eax
  0001a	e8 00 00 00 00	 call	 @__security_check_cookie@4
  0001f	b8 00 00 00 00	 mov	 eax, OFFSET __ehfuncinfo$?construct@?$allocator@UAttackAttribute@@@std@@QAEXPAUAttackAttribute@@$$QAU3@@Z
  00024	e9 00 00 00 00	 jmp	 ___CxxFrameHandler3
text$x	ENDS
?construct@?$allocator@UAttackAttribute@@@std@@QAEXPAUAttackAttribute@@$$QAU3@@Z ENDP ; std::allocator<AttackAttribute>::construct
PUBLIC	??0AttackAttribute@@QAE@XZ			; AttackAttribute::AttackAttribute
EXTRN	?Init@AttackAttribute@@QAEXXZ:PROC		; AttackAttribute::Init
EXTRN	__imp_??0ioHashString@@QAE@XZ:PROC
;	COMDAT xdata$x
xdata$x	SEGMENT
__unwindtable$??0AttackAttribute@@QAE@XZ DD 0ffffffffH
	DD	FLAT:__unwindfunclet$??0AttackAttribute@@QAE@XZ$0
	DD	00H
	DD	FLAT:__unwindfunclet$??0AttackAttribute@@QAE@XZ$1
	DD	01H
	DD	FLAT:__unwindfunclet$??0AttackAttribute@@QAE@XZ$2
	DD	02H
	DD	FLAT:__unwindfunclet$??0AttackAttribute@@QAE@XZ$3
__ehfuncinfo$??0AttackAttribute@@QAE@XZ DD 019930522H
	DD	04H
	DD	FLAT:__unwindtable$??0AttackAttribute@@QAE@XZ
	DD	2 DUP(00H)
	DD	2 DUP(00H)
	DD	00H
	DD	01H
; Function compile flags: /Ogsp
; File d:\lost saga for developer\youtube\tutorial\source\src\lsclient\ioattackattribute.h
xdata$x	ENDS
;	COMDAT ??0AttackAttribute@@QAE@XZ
_TEXT	SEGMENT
_this$ = -16						; size = 4
__$EHRec$ = -12						; size = 12
??0AttackAttribute@@QAE@XZ PROC				; AttackAttribute::AttackAttribute, COMDAT
; _this$ = ecx

; 107  : 	AttackAttribute()

  00000	6a 04		 push	 4
  00002	b8 00 00 00 00	 mov	 eax, __ehhandler$??0AttackAttribute@@QAE@XZ
  00007	e8 00 00 00 00	 call	 __EH_prolog3
  0000c	8b f1		 mov	 esi, ecx
  0000e	89 75 f0	 mov	 DWORD PTR _this$[ebp], esi
  00011	8b 3d 00 00 00
	00		 mov	 edi, DWORD PTR __imp_??0ioHashString@@QAE@XZ
  00017	ff d7		 call	 edi
  00019	33 db		 xor	 ebx, ebx
  0001b	8d 4e 14	 lea	 ecx, DWORD PTR [esi+20]
  0001e	89 5d fc	 mov	 DWORD PTR __$EHRec$[ebp+8], ebx
  00021	ff d7		 call	 edi
  00023	89 5e 28	 mov	 DWORD PTR [esi+40], ebx
  00026	89 5e 2c	 mov	 DWORD PTR [esi+44], ebx
  00029	89 5e 30	 mov	 DWORD PTR [esi+48], ebx
  0002c	89 5e 38	 mov	 DWORD PTR [esi+56], ebx
  0002f	89 5e 3c	 mov	 DWORD PTR [esi+60], ebx
  00032	89 5e 40	 mov	 DWORD PTR [esi+64], ebx

; 108  : 	{
; 109  : 		Init();

  00035	8b ce		 mov	 ecx, esi
  00037	c6 45 fc 03	 mov	 BYTE PTR __$EHRec$[ebp+8], 3
  0003b	e8 00 00 00 00	 call	 ?Init@AttackAttribute@@QAEXXZ ; AttackAttribute::Init

; 110  : 	}

  00040	8b c6		 mov	 eax, esi
  00042	e8 00 00 00 00	 call	 __EH_epilog3
  00047	c3		 ret	 0
_TEXT	ENDS
;	COMDAT text$x
text$x	SEGMENT
__unwindfunclet$??0AttackAttribute@@QAE@XZ$0:
  00000	8b 4d f0	 mov	 ecx, DWORD PTR _this$[ebp]
  00003	ff 25 00 00 00
	00		 jmp	 DWORD PTR __imp_??1ioHashString@@QAE@XZ
__unwindfunclet$??0AttackAttribute@@QAE@XZ$1:
  00009	8b 4d f0	 mov	 ecx, DWORD PTR _this$[ebp]
  0000c	83 c1 14	 add	 ecx, 20			; 00000014H
  0000f	ff 25 00 00 00
	00		 jmp	 DWORD PTR __imp_??1ioHashString@@QAE@XZ
__unwindfunclet$??0AttackAttribute@@QAE@XZ$2:
  00015	8b 4d f0	 mov	 ecx, DWORD PTR _this$[ebp]
  00018	83 c1 28	 add	 ecx, 40			; 00000028H
  0001b	e9 00 00 00 00	 jmp	 ??1?$vector@UWeaponInfo@@V?$allocator@UWeaponInfo@@@std@@@std@@QAE@XZ ; std::vector<WeaponInfo,std::allocator<WeaponInfo> >::~vector<WeaponInfo,std::allocator<WeaponInfo> >
__unwindfunclet$??0AttackAttribute@@QAE@XZ$3:
  00020	8b 4d f0	 mov	 ecx, DWORD PTR _this$[ebp]
  00023	83 c1 38	 add	 ecx, 56			; 00000038H
  00026	e9 00 00 00 00	 jmp	 ??1?$vector@UForceInfo@@V?$allocator@UForceInfo@@@std@@@std@@QAE@XZ ; std::vector<ForceInfo,std::allocator<ForceInfo> >::~vector<ForceInfo,std::allocator<ForceInfo> >
__ehhandler$??0AttackAttribute@@QAE@XZ:
  0002b	8b 54 24 08	 mov	 edx, DWORD PTR [esp+8]
  0002f	8d 42 0c	 lea	 eax, DWORD PTR [edx+12]
  00032	8b 4a ec	 mov	 ecx, DWORD PTR [edx-20]
  00035	33 c8		 xor	 ecx, eax
  00037	e8 00 00 00 00	 call	 @__security_check_cookie@4
  0003c	b8 00 00 00 00	 mov	 eax, OFFSET __ehfuncinfo$??0AttackAttribute@@QAE@XZ
  00041	e9 00 00 00 00	 jmp	 ___CxxFrameHandler3
text$x	ENDS
??0AttackAttribute@@QAE@XZ ENDP				; AttackAttribute::AttackAttribute
PUBLIC	??1AttackAttribute@@QAE@XZ			; AttackAttribute::~AttackAttribute
;	COMDAT xdata$x
xdata$x	SEGMENT
__unwindtable$??1AttackAttribute@@QAE@XZ DD 0ffffffffH
	DD	FLAT:__unwindfunclet$??1AttackAttribute@@QAE@XZ$0
	DD	00H
	DD	FLAT:__unwindfunclet$??1AttackAttribute@@QAE@XZ$1
	DD	01H
	DD	FLAT:__unwindfunclet$??1AttackAttribute@@QAE@XZ$2
__ehfuncinfo$??1AttackAttribute@@QAE@XZ DD 019930522H
	DD	03H
	DD	FLAT:__unwindtable$??1AttackAttribute@@QAE@XZ
	DD	2 DUP(00H)
	DD	2 DUP(00H)
	DD	00H
	DD	01H
; Function compile flags: /Ogsp
xdata$x	ENDS
;	COMDAT ??1AttackAttribute@@QAE@XZ
_TEXT	SEGMENT
_this$ = -16						; size = 4
__$EHRec$ = -12						; size = 12
??1AttackAttribute@@QAE@XZ PROC				; AttackAttribute::~AttackAttribute, COMDAT
; _this$ = ecx
  00000	6a 04		 push	 4
  00002	b8 00 00 00 00	 mov	 eax, __ehhandler$??1AttackAttribute@@QAE@XZ
  00007	e8 00 00 00 00	 call	 __EH_prolog3
  0000c	8b f1		 mov	 esi, ecx
  0000e	89 75 f0	 mov	 DWORD PTR _this$[ebp], esi
  00011	8d 4e 38	 lea	 ecx, DWORD PTR [esi+56]
  00014	c7 45 fc 02 00
	00 00		 mov	 DWORD PTR __$EHRec$[ebp+8], 2
  0001b	e8 00 00 00 00	 call	 ?_Tidy@?$vector@UForceInfo@@V?$allocator@UForceInfo@@@std@@@std@@IAEXXZ ; std::vector<ForceInfo,std::allocator<ForceInfo> >::_Tidy
  00020	8d 4e 28	 lea	 ecx, DWORD PTR [esi+40]
  00023	c6 45 fc 01	 mov	 BYTE PTR __$EHRec$[ebp+8], 1
  00027	e8 00 00 00 00	 call	 ?_Tidy@?$vector@UWeaponInfo@@V?$allocator@UWeaponInfo@@@std@@@std@@IAEXXZ ; std::vector<WeaponInfo,std::allocator<WeaponInfo> >::_Tidy
  0002c	8b 3d 00 00 00
	00		 mov	 edi, DWORD PTR __imp_??1ioHashString@@QAE@XZ
  00032	8d 4e 14	 lea	 ecx, DWORD PTR [esi+20]
  00035	c6 45 fc 00	 mov	 BYTE PTR __$EHRec$[ebp+8], 0
  00039	ff d7		 call	 edi
  0003b	83 4d fc ff	 or	 DWORD PTR __$EHRec$[ebp+8], -1
  0003f	8b ce		 mov	 ecx, esi
  00041	ff d7		 call	 edi
  00043	e8 00 00 00 00	 call	 __EH_epilog3
  00048	c3		 ret	 0
_TEXT	ENDS
;	COMDAT text$x
text$x	SEGMENT
__unwindfunclet$??1AttackAttribute@@QAE@XZ$0:
  00000	8b 4d f0	 mov	 ecx, DWORD PTR _this$[ebp]
  00003	ff 25 00 00 00
	00		 jmp	 DWORD PTR __imp_??1ioHashString@@QAE@XZ
__unwindfunclet$??1AttackAttribute@@QAE@XZ$1:
  00009	8b 4d f0	 mov	 ecx, DWORD PTR _this$[ebp]
  0000c	83 c1 14	 add	 ecx, 20			; 00000014H
  0000f	ff 25 00 00 00
	00		 jmp	 DWORD PTR __imp_??1ioHashString@@QAE@XZ
__unwindfunclet$??1AttackAttribute@@QAE@XZ$2:
  00015	8b 4d f0	 mov	 ecx, DWORD PTR _this$[ebp]
  00018	83 c1 28	 add	 ecx, 40			; 00000028H
  0001b	e9 00 00 00 00	 jmp	 ??1?$vector@UWeaponInfo@@V?$allocator@UWeaponInfo@@@std@@@std@@QAE@XZ ; std::vector<WeaponInfo,std::allocator<WeaponInfo> >::~vector<WeaponInfo,std::allocator<WeaponInfo> >
__ehhandler$??1AttackAttribute@@QAE@XZ:
  00020	8b 54 24 08	 mov	 edx, DWORD PTR [esp+8]
  00024	8d 42 0c	 lea	 eax, DWORD PTR [edx+12]
  00027	8b 4a ec	 mov	 ecx, DWORD PTR [edx-20]
  0002a	33 c8		 xor	 ecx, eax
  0002c	e8 00 00 00 00	 call	 @__security_check_cookie@4
  00031	b8 00 00 00 00	 mov	 eax, OFFSET __ehfuncinfo$??1AttackAttribute@@QAE@XZ
  00036	e9 00 00 00 00	 jmp	 ___CxxFrameHandler3
text$x	ENDS
??1AttackAttribute@@QAE@XZ ENDP				; AttackAttribute::~AttackAttribute
PUBLIC	??4AttackAttribute@@QAEAAU0@ABU0@@Z		; AttackAttribute::operator=
; Function compile flags: /Ogsp
;	COMDAT ??4AttackAttribute@@QAEAAU0@ABU0@@Z
_TEXT	SEGMENT
___that$ = 8						; size = 4
??4AttackAttribute@@QAEAAU0@ABU0@@Z PROC		; AttackAttribute::operator=, COMDAT
; _this$ = ecx
  00000	55		 push	 ebp
  00001	8b ec		 mov	 ebp, esp
  00003	53		 push	 ebx
  00004	8b 1d 00 00 00
	00		 mov	 ebx, DWORD PTR __imp_??4ioHashString@@QAEAAV0@ABV0@@Z
  0000a	56		 push	 esi
  0000b	57		 push	 edi
  0000c	8b 7d 08	 mov	 edi, DWORD PTR ___that$[ebp]
  0000f	57		 push	 edi
  00010	8b f1		 mov	 esi, ecx
  00012	ff d3		 call	 ebx
  00014	d9 47 10	 fld	 DWORD PTR [edi+16]
  00017	8d 47 14	 lea	 eax, DWORD PTR [edi+20]
  0001a	d9 5e 10	 fstp	 DWORD PTR [esi+16]
  0001d	50		 push	 eax
  0001e	8d 4e 14	 lea	 ecx, DWORD PTR [esi+20]
  00021	ff d3		 call	 ebx
  00023	d9 47 24	 fld	 DWORD PTR [edi+36]
  00026	8d 47 28	 lea	 eax, DWORD PTR [edi+40]
  00029	d9 5e 24	 fstp	 DWORD PTR [esi+36]
  0002c	50		 push	 eax
  0002d	8d 4e 28	 lea	 ecx, DWORD PTR [esi+40]
  00030	e8 00 00 00 00	 call	 ??4?$vector@UWeaponInfo@@V?$allocator@UWeaponInfo@@@std@@@std@@QAEAAV01@ABV01@@Z ; std::vector<WeaponInfo,std::allocator<WeaponInfo> >::operator=
  00035	8d 47 38	 lea	 eax, DWORD PTR [edi+56]
  00038	50		 push	 eax
  00039	8d 4e 38	 lea	 ecx, DWORD PTR [esi+56]
  0003c	e8 00 00 00 00	 call	 ??4?$vector@UForceInfo@@V?$allocator@UForceInfo@@@std@@@std@@QAEAAV01@ABV01@@Z ; std::vector<ForceInfo,std::allocator<ForceInfo> >::operator=
  00041	8b 47 48	 mov	 eax, DWORD PTR [edi+72]
  00044	89 46 48	 mov	 DWORD PTR [esi+72], eax
  00047	8b 47 4c	 mov	 eax, DWORD PTR [edi+76]
  0004a	89 46 4c	 mov	 DWORD PTR [esi+76], eax
  0004d	5f		 pop	 edi
  0004e	8b c6		 mov	 eax, esi
  00050	5e		 pop	 esi
  00051	5b		 pop	 ebx
  00052	5d		 pop	 ebp
  00053	c2 04 00	 ret	 4
??4AttackAttribute@@QAEAAU0@ABU0@@Z ENDP		; AttackAttribute::operator=
_TEXT	ENDS
PUBLIC	??_GAttackAttribute@@QAEPAXI@Z			; AttackAttribute::`scalar deleting destructor'
; Function compile flags: /Ogsp
;	COMDAT ??_GAttackAttribute@@QAEPAXI@Z
_TEXT	SEGMENT
___flags$ = 8						; size = 4
??_GAttackAttribute@@QAEPAXI@Z PROC			; AttackAttribute::`scalar deleting destructor', COMDAT
; _this$ = ecx
  00000	55		 push	 ebp
  00001	8b ec		 mov	 ebp, esp
  00003	56		 push	 esi
  00004	8b f1		 mov	 esi, ecx
  00006	e8 00 00 00 00	 call	 ??1AttackAttribute@@QAE@XZ
  0000b	f6 45 08 01	 test	 BYTE PTR ___flags$[ebp], 1
  0000f	74 07		 je	 SHORT $LN1@scalar@6
  00011	56		 push	 esi
  00012	e8 00 00 00 00	 call	 ??3@YAXPAX@Z		; operator delete
  00017	59		 pop	 ecx
$LN1@scalar@6:
  00018	8b c6		 mov	 eax, esi
  0001a	5e		 pop	 esi
  0001b	5d		 pop	 ebp
  0001c	c2 04 00	 ret	 4
??_GAttackAttribute@@QAEPAXI@Z ENDP			; AttackAttribute::`scalar deleting destructor'
_TEXT	ENDS
PUBLIC	??$_Cons_val@V?$allocator@UAttackAttribute@@@std@@UAttackAttribute@@AAU3@@std@@YAXAAV?$allocator@UAttackAttribute@@@0@PAUAttackAttribute@@AAU2@@Z ; std::_Cons_val<std::allocator<AttackAttribute>,AttackAttribute,AttackAttribute &>
;	COMDAT xdata$x
; File c:\program files (x86)\microsoft visual studio 10.0\vc\include\utility
xdata$x	SEGMENT
__unwindtable$??$_Cons_val@V?$allocator@UAttackAttribute@@@std@@UAttackAttribute@@AAU3@@std@@YAXAAV?$allocator@UAttackAttribute@@@0@PAUAttackAttribute@@AAU2@@Z DD 0ffffffffH
	DD	FLAT:__unwindfunclet$??$_Cons_val@V?$allocator@UAttackAttribute@@@std@@UAttackAttribute@@AAU3@@std@@YAXAAV?$allocator@UAttackAttribute@@@0@PAUAttackAttribute@@AAU2@@Z$0
__ehfuncinfo$??$_Cons_val@V?$allocator@UAttackAttribute@@@std@@UAttackAttribute@@AAU3@@std@@YAXAAV?$allocator@UAttackAttribute@@@0@PAUAttackAttribute@@AAU2@@Z DD 019930522H
	DD	01H
	DD	FLAT:__unwindtable$??$_Cons_val@V?$allocator@UAttackAttribute@@@std@@UAttackAttribute@@AAU3@@std@@YAXAAV?$allocator@UAttackAttribute@@@0@PAUAttackAttribute@@AAU2@@Z
	DD	2 DUP(00H)
	DD	2 DUP(00H)
	DD	00H
	DD	01H
; Function compile flags: /Ogsp
; File c:\program files (x86)\microsoft visual studio 10.0\vc\include\xmemory
xdata$x	ENDS
;	COMDAT ??$_Cons_val@V?$allocator@UAttackAttribute@@@std@@UAttackAttribute@@AAU3@@std@@YAXAAV?$allocator@UAttackAttribute@@@0@PAUAttackAttribute@@AAU2@@Z
_TEXT	SEGMENT
$T612117 = -16						; size = 4
__$EHRec$ = -12						; size = 12
__Alval$ = 8						; size = 4
__Pdest$ = 12						; size = 4
__Src$ = 16						; size = 4
??$_Cons_val@V?$allocator@UAttackAttribute@@@std@@UAttackAttribute@@AAU3@@std@@YAXAAV?$allocator@UAttackAttribute@@@0@PAUAttackAttribute@@AAU2@@Z PROC ; std::_Cons_val<std::allocator<AttackAttribute>,AttackAttribute,AttackAttribute &>, COMDAT

; 279  : 	{	// construct using allocator

  00000	6a 04		 push	 4
  00002	b8 00 00 00 00	 mov	 eax, __ehhandler$??$_Cons_val@V?$allocator@UAttackAttribute@@@std@@UAttackAttribute@@AAU3@@std@@YAXAAV?$allocator@UAttackAttribute@@@0@PAUAttackAttribute@@AAU2@@Z
  00007	e8 00 00 00 00	 call	 __EH_prolog3

; 280  : 	_Alval.construct(_Pdest, _STD forward<_Ty2>(_Src));

  0000c	8b 4d 0c	 mov	 ecx, DWORD PTR __Pdest$[ebp]
  0000f	89 4d f0	 mov	 DWORD PTR $T612117[ebp], ecx
  00012	83 65 fc 00	 and	 DWORD PTR __$EHRec$[ebp+8], 0
  00016	85 c9		 test	 ecx, ecx
  00018	74 08		 je	 SHORT $LN7@Cons_val@4
  0001a	ff 75 10	 push	 DWORD PTR __Src$[ebp]
  0001d	e8 00 00 00 00	 call	 ??0AttackAttribute@@QAE@ABU0@@Z
$LN7@Cons_val@4:

; 281  : 	}

  00022	e8 00 00 00 00	 call	 __EH_epilog3
  00027	c3		 ret	 0
_TEXT	ENDS
;	COMDAT text$x
text$x	SEGMENT
__unwindfunclet$??$_Cons_val@V?$allocator@UAttackAttribute@@@std@@UAttackAttribute@@AAU3@@std@@YAXAAV?$allocator@UAttackAttribute@@@0@PAUAttackAttribute@@AAU2@@Z$0:
  00000	ff 75 0c	 push	 DWORD PTR __Pdest$[ebp]
  00003	ff 75 f0	 push	 DWORD PTR $T612117[ebp]
  00006	e8 00 00 00 00	 call	 ??3@YAXPAX0@Z		; operator delete
  0000b	59		 pop	 ecx
  0000c	59		 pop	 ecx
  0000d	c3		 ret	 0
__ehhandler$??$_Cons_val@V?$allocator@UAttackAttribute@@@std@@UAttackAttribute@@AAU3@@std@@YAXAAV?$allocator@UAttackAttribute@@@0@PAUAttackAttribute@@AAU2@@Z:
  0000e	8b 54 24 08	 mov	 edx, DWORD PTR [esp+8]
  00012	8d 42 0c	 lea	 eax, DWORD PTR [edx+12]
  00015	8b 4a ec	 mov	 ecx, DWORD PTR [edx-20]
  00018	33 c8		 xor	 ecx, eax
  0001a	e8 00 00 00 00	 call	 @__security_check_cookie@4
  0001f	b8 00 00 00 00	 mov	 eax, OFFSET __ehfuncinfo$??$_Cons_val@V?$allocator@UAttackAttribute@@@std@@UAttackAttribute@@AAU3@@std@@YAXAAV?$allocator@UAttackAttribute@@@0@PAUAttackAttribute@@AAU2@@Z
  00024	e9 00 00 00 00	 jmp	 ___CxxFrameHandler3
text$x	ENDS
??$_Cons_val@V?$allocator@UAttackAttribute@@@std@@UAttackAttribute@@AAU3@@std@@YAXAAV?$allocator@UAttackAttribute@@@0@PAUAttackAttribute@@AAU2@@Z ENDP ; std::_Cons_val<std::allocator<AttackAttribute>,AttackAttribute,AttackAttribute &>
PUBLIC	?construct@?$allocator@UAttackAttribute@@@std@@QAEXPAUAttackAttribute@@ABU3@@Z ; std::allocator<AttackAttribute>::construct
; Function compile flags: /Ogsp
;	COMDAT ?construct@?$allocator@UAttackAttribute@@@std@@QAEXPAUAttackAttribute@@ABU3@@Z
_TEXT	SEGMENT
__Ptr$ = 8						; size = 4
__Val$ = 12						; size = 4
?construct@?$allocator@UAttackAttribute@@@std@@QAEXPAUAttackAttribute@@ABU3@@Z PROC ; std::allocator<AttackAttribute>::construct, COMDAT
; _this$ = ecx

; 196  : 		{	// construct object at _Ptr with value _Val

  00000	55		 push	 ebp
  00001	8b ec		 mov	 ebp, esp

; 197  : 		_Construct(_Ptr, _Val);

  00003	ff 75 0c	 push	 DWORD PTR __Val$[ebp]
  00006	ff 75 08	 push	 DWORD PTR __Ptr$[ebp]
  00009	e8 00 00 00 00	 call	 ??$_Construct@UAttackAttribute@@ABU1@@std@@YAXPAUAttackAttribute@@ABU1@@Z ; std::_Construct<AttackAttribute,AttackAttribute const &>
  0000e	59		 pop	 ecx
  0000f	59		 pop	 ecx

; 198  : 		}

  00010	5d		 pop	 ebp
  00011	c2 08 00	 ret	 8
?construct@?$allocator@UAttackAttribute@@@std@@QAEXPAUAttackAttribute@@ABU3@@Z ENDP ; std::allocator<AttackAttribute>::construct
_TEXT	ENDS
PUBLIC	??$_Cons_val@V?$allocator@UAttackAttribute@@@std@@UAttackAttribute@@U3@@std@@YAXAAV?$allocator@UAttackAttribute@@@0@PAUAttackAttribute@@$$QAU2@@Z ; std::_Cons_val<std::allocator<AttackAttribute>,AttackAttribute,AttackAttribute>
;	COMDAT xdata$x
; File c:\program files (x86)\microsoft visual studio 10.0\vc\include\utility
xdata$x	SEGMENT
__unwindtable$??$_Cons_val@V?$allocator@UAttackAttribute@@@std@@UAttackAttribute@@U3@@std@@YAXAAV?$allocator@UAttackAttribute@@@0@PAUAttackAttribute@@$$QAU2@@Z DD 0ffffffffH
	DD	FLAT:__unwindfunclet$??$_Cons_val@V?$allocator@UAttackAttribute@@@std@@UAttackAttribute@@U3@@std@@YAXAAV?$allocator@UAttackAttribute@@@0@PAUAttackAttribute@@$$QAU2@@Z$0
__ehfuncinfo$??$_Cons_val@V?$allocator@UAttackAttribute@@@std@@UAttackAttribute@@U3@@std@@YAXAAV?$allocator@UAttackAttribute@@@0@PAUAttackAttribute@@$$QAU2@@Z DD 019930522H
	DD	01H
	DD	FLAT:__unwindtable$??$_Cons_val@V?$allocator@UAttackAttribute@@@std@@UAttackAttribute@@U3@@std@@YAXAAV?$allocator@UAttackAttribute@@@0@PAUAttackAttribute@@$$QAU2@@Z
	DD	2 DUP(00H)
	DD	2 DUP(00H)
	DD	00H
	DD	01H
; Function compile flags: /Ogsp
; File c:\program files (x86)\microsoft visual studio 10.0\vc\include\xmemory
xdata$x	ENDS
;	COMDAT ??$_Cons_val@V?$allocator@UAttackAttribute@@@std@@UAttackAttribute@@U3@@std@@YAXAAV?$allocator@UAttackAttribute@@@0@PAUAttackAttribute@@$$QAU2@@Z
_TEXT	SEGMENT
$T612152 = -16						; size = 4
__$EHRec$ = -12						; size = 12
__Alval$ = 8						; size = 4
__Pdest$ = 12						; size = 4
__Src$ = 16						; size = 4
??$_Cons_val@V?$allocator@UAttackAttribute@@@std@@UAttackAttribute@@U3@@std@@YAXAAV?$allocator@UAttackAttribute@@@0@PAUAttackAttribute@@$$QAU2@@Z PROC ; std::_Cons_val<std::allocator<AttackAttribute>,AttackAttribute,AttackAttribute>, COMDAT

; 279  : 	{	// construct using allocator

  00000	6a 04		 push	 4
  00002	b8 00 00 00 00	 mov	 eax, __ehhandler$??$_Cons_val@V?$allocator@UAttackAttribute@@@std@@UAttackAttribute@@U3@@std@@YAXAAV?$allocator@UAttackAttribute@@@0@PAUAttackAttribute@@$$QAU2@@Z
  00007	e8 00 00 00 00	 call	 __EH_prolog3

; 280  : 	_Alval.construct(_Pdest, _STD forward<_Ty2>(_Src));

  0000c	8b 4d 0c	 mov	 ecx, DWORD PTR __Pdest$[ebp]
  0000f	89 4d f0	 mov	 DWORD PTR $T612152[ebp], ecx
  00012	83 65 fc 00	 and	 DWORD PTR __$EHRec$[ebp+8], 0
  00016	85 c9		 test	 ecx, ecx
  00018	74 08		 je	 SHORT $LN7@Cons_val@5
  0001a	ff 75 10	 push	 DWORD PTR __Src$[ebp]
  0001d	e8 00 00 00 00	 call	 ??0AttackAttribute@@QAE@ABU0@@Z
$LN7@Cons_val@5:

; 281  : 	}

  00022	e8 00 00 00 00	 call	 __EH_epilog3
  00027	c3		 ret	 0
_TEXT	ENDS
;	COMDAT text$x
text$x	SEGMENT
__unwindfunclet$??$_Cons_val@V?$allocator@UAttackAttribute@@@std@@UAttackAttribute@@U3@@std@@YAXAAV?$allocator@UAttackAttribute@@@0@PAUAttackAttribute@@$$QAU2@@Z$0:
  00000	ff 75 0c	 push	 DWORD PTR __Pdest$[ebp]
  00003	ff 75 f0	 push	 DWORD PTR $T612152[ebp]
  00006	e8 00 00 00 00	 call	 ??3@YAXPAX0@Z		; operator delete
  0000b	59		 pop	 ecx
  0000c	59		 pop	 ecx
  0000d	c3		 ret	 0
__ehhandler$??$_Cons_val@V?$allocator@UAttackAttribute@@@std@@UAttackAttribute@@U3@@std@@YAXAAV?$allocator@UAttackAttribute@@@0@PAUAttackAttribute@@$$QAU2@@Z:
  0000e	8b 54 24 08	 mov	 edx, DWORD PTR [esp+8]
  00012	8d 42 0c	 lea	 eax, DWORD PTR [edx+12]
  00015	8b 4a ec	 mov	 ecx, DWORD PTR [edx-20]
  00018	33 c8		 xor	 ecx, eax
  0001a	e8 00 00 00 00	 call	 @__security_check_cookie@4
  0001f	b8 00 00 00 00	 mov	 eax, OFFSET __ehfuncinfo$??$_Cons_val@V?$allocator@UAttackAttribute@@@std@@UAttackAttribute@@U3@@std@@YAXAAV?$allocator@UAttackAttribute@@@0@PAUAttackAttribute@@$$QAU2@@Z
  00024	e9 00 00 00 00	 jmp	 ___CxxFrameHandler3
text$x	ENDS
??$_Cons_val@V?$allocator@UAttackAttribute@@@std@@UAttackAttribute@@U3@@std@@YAXAAV?$allocator@UAttackAttribute@@@0@PAUAttackAttribute@@$$QAU2@@Z ENDP ; std::_Cons_val<std::allocator<AttackAttribute>,AttackAttribute,AttackAttribute>
PUBLIC	??$_Move@PAUAttackAttribute@@PAU1@@std@@YAPAUAttackAttribute@@PAU1@00U_Nonscalar_ptr_iterator_tag@0@@Z ; std::_Move<AttackAttribute *,AttackAttribute *>
; Function compile flags: /Ogsp
; File c:\program files (x86)\microsoft visual studio 10.0\vc\include\xutility
;	COMDAT ??$_Move@PAUAttackAttribute@@PAU1@@std@@YAPAUAttackAttribute@@PAU1@00U_Nonscalar_ptr_iterator_tag@0@@Z
_TEXT	SEGMENT
__First$ = 8						; size = 4
__Last$ = 12						; size = 4
__Dest$ = 16						; size = 4
___formal$ = 20						; size = 1
??$_Move@PAUAttackAttribute@@PAU1@@std@@YAPAUAttackAttribute@@PAU1@00U_Nonscalar_ptr_iterator_tag@0@@Z PROC ; std::_Move<AttackAttribute *,AttackAttribute *>, COMDAT

; 2512 : 	{	// move [_First, _Last) to [_Dest, ...), arbitrary iterators

  00000	55		 push	 ebp
  00001	8b ec		 mov	 ebp, esp
  00003	56		 push	 esi

; 2513 : 	for (; _First != _Last; ++_Dest, ++_First)

  00004	8b 75 08	 mov	 esi, DWORD PTR __First$[ebp]
  00007	eb 10		 jmp	 SHORT $LN11@Move@4
$LL3@Move@4:

; 2514 : 		*_Dest = _STD move(*_First);

  00009	8b 4d 10	 mov	 ecx, DWORD PTR __Dest$[ebp]
  0000c	56		 push	 esi
  0000d	e8 00 00 00 00	 call	 ??4AttackAttribute@@QAEAAU0@ABU0@@Z
  00012	83 45 10 50	 add	 DWORD PTR __Dest$[ebp], 80 ; 00000050H
  00016	83 c6 50	 add	 esi, 80			; 00000050H
$LN11@Move@4:

; 2513 : 	for (; _First != _Last; ++_Dest, ++_First)

  00019	3b 75 0c	 cmp	 esi, DWORD PTR __Last$[ebp]
  0001c	75 eb		 jne	 SHORT $LL3@Move@4

; 2515 : 	return (_Dest);

  0001e	8b 45 10	 mov	 eax, DWORD PTR __Dest$[ebp]
  00021	5e		 pop	 esi

; 2516 : 	}

  00022	5d		 pop	 ebp
  00023	c3		 ret	 0
??$_Move@PAUAttackAttribute@@PAU1@@std@@YAPAUAttackAttribute@@PAU1@00U_Nonscalar_ptr_iterator_tag@0@@Z ENDP ; std::_Move<AttackAttribute *,AttackAttribute *>
_TEXT	ENDS
PUBLIC	??$_Destroy@UAttackAttribute@@@std@@YAXPAUAttackAttribute@@@Z ; std::_Destroy<AttackAttribute>
; Function compile flags: /Ogsp
; File c:\program files (x86)\microsoft visual studio 10.0\vc\include\xmemory
;	COMDAT ??$_Destroy@UAttackAttribute@@@std@@YAXPAUAttackAttribute@@@Z
_TEXT	SEGMENT
__Ptr$ = 8						; size = 4
??$_Destroy@UAttackAttribute@@@std@@YAXPAUAttackAttribute@@@Z PROC ; std::_Destroy<AttackAttribute>, COMDAT

; 62   : 	{	// destroy object at _Ptr

  00000	55		 push	 ebp
  00001	8b ec		 mov	 ebp, esp

; 63   : 	_Ptr->~_Ty();

  00003	8b 4d 08	 mov	 ecx, DWORD PTR __Ptr$[ebp]

; 64   : 	}

  00006	5d		 pop	 ebp

; 63   : 	_Ptr->~_Ty();

  00007	e9 00 00 00 00	 jmp	 ??1AttackAttribute@@QAE@XZ
??$_Destroy@UAttackAttribute@@@std@@YAXPAUAttackAttribute@@@Z ENDP ; std::_Destroy<AttackAttribute>
_TEXT	ENDS
PUBLIC	??$_Cons_val@V?$allocator@UAttackAttribute@@@std@@UAttackAttribute@@ABU3@@std@@YAXAAV?$allocator@UAttackAttribute@@@0@PAUAttackAttribute@@ABU2@@Z ; std::_Cons_val<std::allocator<AttackAttribute>,AttackAttribute,AttackAttribute const &>
; Function compile flags: /Ogsp
;	COMDAT ??$_Cons_val@V?$allocator@UAttackAttribute@@@std@@UAttackAttribute@@ABU3@@std@@YAXAAV?$allocator@UAttackAttribute@@@0@PAUAttackAttribute@@ABU2@@Z
_TEXT	SEGMENT
__Alval$ = 8						; size = 4
__Pdest$ = 12						; size = 4
__Src$ = 16						; size = 4
??$_Cons_val@V?$allocator@UAttackAttribute@@@std@@UAttackAttribute@@ABU3@@std@@YAXAAV?$allocator@UAttackAttribute@@@0@PAUAttackAttribute@@ABU2@@Z PROC ; std::_Cons_val<std::allocator<AttackAttribute>,AttackAttribute,AttackAttribute const &>, COMDAT

; 279  : 	{	// construct using allocator

  00000	55		 push	 ebp
  00001	8b ec		 mov	 ebp, esp

; 280  : 	_Alval.construct(_Pdest, _STD forward<_Ty2>(_Src));

  00003	ff 75 10	 push	 DWORD PTR __Src$[ebp]
  00006	ff 75 0c	 push	 DWORD PTR __Pdest$[ebp]
  00009	e8 00 00 00 00	 call	 ??$_Construct@UAttackAttribute@@ABU1@@std@@YAXPAUAttackAttribute@@ABU1@@Z ; std::_Construct<AttackAttribute,AttackAttribute const &>
  0000e	59		 pop	 ecx
  0000f	59		 pop	 ecx

; 281  : 	}

  00010	5d		 pop	 ebp
  00011	c3		 ret	 0
??$_Cons_val@V?$allocator@UAttackAttribute@@@std@@UAttackAttribute@@ABU3@@std@@YAXAAV?$allocator@UAttackAttribute@@@0@PAUAttackAttribute@@ABU2@@Z ENDP ; std::_Cons_val<std::allocator<AttackAttribute>,AttackAttribute,AttackAttribute const &>
_TEXT	ENDS
PUBLIC	??$_Move@PAUAttackAttribute@@PAU1@@std@@YAPAUAttackAttribute@@PAU1@00@Z ; std::_Move<AttackAttribute *,AttackAttribute *>
; Function compile flags: /Ogsp
; File c:\program files (x86)\microsoft visual studio 10.0\vc\include\xutility
;	COMDAT ??$_Move@PAUAttackAttribute@@PAU1@@std@@YAPAUAttackAttribute@@PAU1@00@Z
_TEXT	SEGMENT
__Cat$612195 = -4					; size = 1
__First$ = 8						; size = 4
__Last$ = 12						; size = 4
__Dest$ = 16						; size = 4
??$_Move@PAUAttackAttribute@@PAU1@@std@@YAPAUAttackAttribute@@PAU1@00@Z PROC ; std::_Move<AttackAttribute *,AttackAttribute *>, COMDAT

; 2533 : 	{	// move [_First, _Last) to [_Dest, ...), unchecked

  00000	55		 push	 ebp
  00001	8b ec		 mov	 ebp, esp
  00003	51		 push	 ecx

; 2534 : 	return (_Move(_First, _Last,
; 2535 : 		_Dest, _Ptr_cat(_First, _Dest)));

  00004	ff 75 fc	 push	 DWORD PTR __Cat$612195[ebp]
  00007	ff 75 10	 push	 DWORD PTR __Dest$[ebp]
  0000a	ff 75 0c	 push	 DWORD PTR __Last$[ebp]
  0000d	ff 75 08	 push	 DWORD PTR __First$[ebp]
  00010	e8 00 00 00 00	 call	 ??$_Move@PAUAttackAttribute@@PAU1@@std@@YAPAUAttackAttribute@@PAU1@00U_Nonscalar_ptr_iterator_tag@0@@Z ; std::_Move<AttackAttribute *,AttackAttribute *>
  00015	83 c4 10	 add	 esp, 16			; 00000010H

; 2536 : 	}

  00018	c9		 leave
  00019	c3		 ret	 0
??$_Move@PAUAttackAttribute@@PAU1@@std@@YAPAUAttackAttribute@@PAU1@00@Z ENDP ; std::_Move<AttackAttribute *,AttackAttribute *>
_TEXT	ENDS
PUBLIC	?destroy@?$allocator@UAttackAttribute@@@std@@QAEXPAUAttackAttribute@@@Z ; std::allocator<AttackAttribute>::destroy
; Function compile flags: /Ogsp
; File c:\program files (x86)\microsoft visual studio 10.0\vc\include\xmemory
;	COMDAT ?destroy@?$allocator@UAttackAttribute@@@std@@QAEXPAUAttackAttribute@@@Z
_TEXT	SEGMENT
__Ptr$ = 8						; size = 4
?destroy@?$allocator@UAttackAttribute@@@std@@QAEXPAUAttackAttribute@@@Z PROC ; std::allocator<AttackAttribute>::destroy, COMDAT
; _this$ = ecx

; 212  : 		{	// destroy object at _Ptr

  00000	55		 push	 ebp
  00001	8b ec		 mov	 ebp, esp

; 213  : 		_Destroy(_Ptr);

  00003	8b 4d 08	 mov	 ecx, DWORD PTR __Ptr$[ebp]
  00006	e8 00 00 00 00	 call	 ??1AttackAttribute@@QAE@XZ

; 214  : 		}

  0000b	5d		 pop	 ebp
  0000c	c2 04 00	 ret	 4
?destroy@?$allocator@UAttackAttribute@@@std@@QAEXPAUAttackAttribute@@@Z ENDP ; std::allocator<AttackAttribute>::destroy
_TEXT	ENDS
PUBLIC	??$_Dest_val@V?$allocator@UAttackAttribute@@@std@@UAttackAttribute@@@std@@YAXAAV?$allocator@UAttackAttribute@@@0@PAUAttackAttribute@@@Z ; std::_Dest_val<std::allocator<AttackAttribute>,AttackAttribute>
; Function compile flags: /Ogsp
;	COMDAT ??$_Dest_val@V?$allocator@UAttackAttribute@@@std@@UAttackAttribute@@@std@@YAXAAV?$allocator@UAttackAttribute@@@0@PAUAttackAttribute@@@Z
_TEXT	SEGMENT
__Alval$ = 8						; size = 4
__Pdest$ = 12						; size = 4
??$_Dest_val@V?$allocator@UAttackAttribute@@@std@@UAttackAttribute@@@std@@YAXAAV?$allocator@UAttackAttribute@@@0@PAUAttackAttribute@@@Z PROC ; std::_Dest_val<std::allocator<AttackAttribute>,AttackAttribute>, COMDAT

; 286  : 	{	// destroy using allocator

  00000	55		 push	 ebp
  00001	8b ec		 mov	 ebp, esp

; 287  : 	_Alval.destroy(_Pdest);

  00003	8b 4d 0c	 mov	 ecx, DWORD PTR __Pdest$[ebp]

; 288  : 	}

  00006	5d		 pop	 ebp

; 287  : 	_Alval.destroy(_Pdest);

  00007	e9 00 00 00 00	 jmp	 ??1AttackAttribute@@QAE@XZ
??$_Dest_val@V?$allocator@UAttackAttribute@@@std@@UAttackAttribute@@@std@@YAXAAV?$allocator@UAttackAttribute@@@0@PAUAttackAttribute@@@Z ENDP ; std::_Dest_val<std::allocator<AttackAttribute>,AttackAttribute>
_TEXT	ENDS
PUBLIC	??$_Uninit_copy@V?$_Vector_const_iterator@V?$_Vector_val@UAttackAttribute@@V?$allocator@UAttackAttribute@@@std@@@std@@@std@@PAUAttackAttribute@@V?$allocator@UAttackAttribute@@@2@@std@@YAPAUAttackAttribute@@V?$_Vector_const_iterator@V?$_Vector_val@UAttackAttribute@@V?$allocator@UAttackAttribute@@@std@@@std@@@0@0PAU1@AAV?$allocator@UAttackAttribute@@@0@U_Nonscalar_ptr_iterator_tag@0@@Z ; std::_Uninit_copy<std::_Vector_const_iterator<std::_Vector_val<AttackAttribute,std::allocator<AttackAttribute> > >,AttackAttribute *,std::allocator<AttackAttribute> >
;	COMDAT xdata$x
; File c:\program files (x86)\microsoft visual studio 10.0\vc\include\vector
xdata$x	SEGMENT
__catchsym$??$_Uninit_copy@V?$_Vector_const_iterator@V?$_Vector_val@UAttackAttribute@@V?$allocator@UAttackAttribute@@@std@@@std@@@std@@PAUAttackAttribute@@V?$allocator@UAttackAttribute@@@2@@std@@YAPAUAttackAttribute@@V?$_Vector_const_iterator@V?$_Vector_val@UAttackAttribute@@V?$allocator@UAttackAttribute@@@std@@@std@@@0@0PAU1@AAV?$allocator@UAttackAttribute@@@0@U_Nonscalar_ptr_iterator_tag@0@@Z$2 DD 040H
	DD	00H
	DD	00H
	DD	FLAT:__catch$??$_Uninit_copy@V?$_Vector_const_iterator@V?$_Vector_val@UAttackAttribute@@V?$allocator@UAttackAttribute@@@std@@@std@@@std@@PAUAttackAttribute@@V?$allocator@UAttackAttribute@@@2@@std@@YAPAUAttackAttribute@@V?$_Vector_const_iterator@V?$_Vector_val@UAttackAttribute@@V?$allocator@UAttackAttribute@@@std@@@std@@@0@0PAU1@AAV?$allocator@UAttackAttribute@@@0@U_Nonscalar_ptr_iterator_tag@0@@Z$0
__unwindtable$??$_Uninit_copy@V?$_Vector_const_iterator@V?$_Vector_val@UAttackAttribute@@V?$allocator@UAttackAttribute@@@std@@@std@@@std@@PAUAttackAttribute@@V?$allocator@UAttackAttribute@@@2@@std@@YAPAUAttackAttribute@@V?$_Vector_const_iterator@V?$_Vector_val@UAttackAttribute@@V?$allocator@UAttackAttribute@@@std@@@std@@@0@0PAU1@AAV?$allocator@UAttackAttribute@@@0@U_Nonscalar_ptr_iterator_tag@0@@Z DD 0ffffffffH
	DD	00H
	DD	0ffffffffH
	DD	00H
__tryblocktable$??$_Uninit_copy@V?$_Vector_const_iterator@V?$_Vector_val@UAttackAttribute@@V?$allocator@UAttackAttribute@@@std@@@std@@@std@@PAUAttackAttribute@@V?$allocator@UAttackAttribute@@@2@@std@@YAPAUAttackAttribute@@V?$_Vector_const_iterator@V?$_Vector_val@UAttackAttribute@@V?$allocator@UAttackAttribute@@@std@@@std@@@0@0PAU1@AAV?$allocator@UAttackAttribute@@@0@U_Nonscalar_ptr_iterator_tag@0@@Z DD 00H
	DD	00H
	DD	01H
	DD	01H
	DD	FLAT:__catchsym$??$_Uninit_copy@V?$_Vector_const_iterator@V?$_Vector_val@UAttackAttribute@@V?$allocator@UAttackAttribute@@@std@@@std@@@std@@PAUAttackAttribute@@V?$allocator@UAttackAttribute@@@2@@std@@YAPAUAttackAttribute@@V?$_Vector_const_iterator@V?$_Vector_val@UAttackAttribute@@V?$allocator@UAttackAttribute@@@std@@@std@@@0@0PAU1@AAV?$allocator@UAttackAttribute@@@0@U_Nonscalar_ptr_iterator_tag@0@@Z$2
__ehfuncinfo$??$_Uninit_copy@V?$_Vector_const_iterator@V?$_Vector_val@UAttackAttribute@@V?$allocator@UAttackAttribute@@@std@@@std@@@std@@PAUAttackAttribute@@V?$allocator@UAttackAttribute@@@2@@std@@YAPAUAttackAttribute@@V?$_Vector_const_iterator@V?$_Vector_val@UAttackAttribute@@V?$allocator@UAttackAttribute@@@std@@@std@@@0@0PAU1@AAV?$allocator@UAttackAttribute@@@0@U_Nonscalar_ptr_iterator_tag@0@@Z DD 019930522H
	DD	02H
	DD	FLAT:__unwindtable$??$_Uninit_copy@V?$_Vector_const_iterator@V?$_Vector_val@UAttackAttribute@@V?$allocator@UAttackAttribute@@@std@@@std@@@std@@PAUAttackAttribute@@V?$allocator@UAttackAttribute@@@2@@std@@YAPAUAttackAttribute@@V?$_Vector_const_iterator@V?$_Vector_val@UAttackAttribute@@V?$allocator@UAttackAttribute@@@std@@@std@@@0@0PAU1@AAV?$allocator@UAttackAttribute@@@0@U_Nonscalar_ptr_iterator_tag@0@@Z
	DD	01H
	DD	FLAT:__tryblocktable$??$_Uninit_copy@V?$_Vector_const_iterator@V?$_Vector_val@UAttackAttribute@@V?$allocator@UAttackAttribute@@@std@@@std@@@std@@PAUAttackAttribute@@V?$allocator@UAttackAttribute@@@2@@std@@YAPAUAttackAttribute@@V?$_Vector_const_iterator@V?$_Vector_val@UAttackAttribute@@V?$allocator@UAttackAttribute@@@std@@@std@@@0@0PAU1@AAV?$allocator@UAttackAttribute@@@0@U_Nonscalar_ptr_iterator_tag@0@@Z
	DD	2 DUP(00H)
	DD	00H
	DD	01H
; Function compile flags: /Ogsp
; File c:\program files (x86)\microsoft visual studio 10.0\vc\include\memory
xdata$x	ENDS
;	COMDAT ??$_Uninit_copy@V?$_Vector_const_iterator@V?$_Vector_val@UAttackAttribute@@V?$allocator@UAttackAttribute@@@std@@@std@@@std@@PAUAttackAttribute@@V?$allocator@UAttackAttribute@@@2@@std@@YAPAUAttackAttribute@@V?$_Vector_const_iterator@V?$_Vector_val@UAttackAttribute@@V?$allocator@UAttackAttribute@@@std@@@std@@@0@0PAU1@AAV?$allocator@UAttackAttribute@@@0@U_Nonscalar_ptr_iterator_tag@0@@Z
_TEXT	SEGMENT
__Next$ = -20						; size = 4
__$EHRec$ = -16						; size = 16
__First$ = 8						; size = 4
__Last$ = 12						; size = 4
__Dest$ = 16						; size = 4
__Al$ = 20						; size = 4
___formal$ = 24						; size = 1
??$_Uninit_copy@V?$_Vector_const_iterator@V?$_Vector_val@UAttackAttribute@@V?$allocator@UAttackAttribute@@@std@@@std@@@std@@PAUAttackAttribute@@V?$allocator@UAttackAttribute@@@2@@std@@YAPAUAttackAttribute@@V?$_Vector_const_iterator@V?$_Vector_val@UAttackAttribute@@V?$allocator@UAttackAttribute@@@std@@@std@@@0@0PAU1@AAV?$allocator@UAttackAttribute@@@0@U_Nonscalar_ptr_iterator_tag@0@@Z PROC ; std::_Uninit_copy<std::_Vector_const_iterator<std::_Vector_val<AttackAttribute,std::allocator<AttackAttribute> > >,AttackAttribute *,std::allocator<AttackAttribute> >, COMDAT

; 369  : 	{	// copy [_First, _Last) to raw _Dest, using _Al, arbitrary type

  00000	6a 08		 push	 8
  00002	b8 00 00 00 00	 mov	 eax, __ehhandler$??$_Uninit_copy@V?$_Vector_const_iterator@V?$_Vector_val@UAttackAttribute@@V?$allocator@UAttackAttribute@@@std@@@std@@@std@@PAUAttackAttribute@@V?$allocator@UAttackAttribute@@@2@@std@@YAPAUAttackAttribute@@V?$_Vector_const_iterator@V?$_Vector_val@UAttackAttribute@@V?$allocator@UAttackAttribute@@@std@@@std@@@0@0PAU1@AAV?$allocator@UAttackAttribute@@@0@U_Nonscalar_ptr_iterator_tag@0@@Z
  00007	e8 00 00 00 00	 call	 __EH_prolog3_catch

; 370  : 	_DEBUG_RANGE(_First, _Last);
; 371  : 	_DEBUG_POINTER(_Dest);
; 372  : 	_FwdIt _Next = _Dest;

  0000c	8b 45 10	 mov	 eax, DWORD PTR __Dest$[ebp]

; 373  : 
; 374  : 	_TRY_BEGIN

  0000f	83 65 fc 00	 and	 DWORD PTR __$EHRec$[ebp+12], 0
  00013	89 45 ec	 mov	 DWORD PTR __Next$[ebp], eax

; 375  : 	for (; _First != _Last; ++_Dest, ++_First)

$LL14@Uninit_cop@6:
  00016	8b 45 08	 mov	 eax, DWORD PTR __First$[ebp]
  00019	3b 45 0c	 cmp	 eax, DWORD PTR __Last$[ebp]
  0001c	74 32		 je	 SHORT $LN4@Uninit_cop@6

; 376  : 		_Cons_val(_Al, _Dest, *_First);

  0001e	50		 push	 eax
  0001f	ff 75 10	 push	 DWORD PTR __Dest$[ebp]
  00022	e8 00 00 00 00	 call	 ??$_Construct@UAttackAttribute@@ABU1@@std@@YAXPAUAttackAttribute@@ABU1@@Z ; std::_Construct<AttackAttribute,AttackAttribute const &>
  00027	83 45 10 50	 add	 DWORD PTR __Dest$[ebp], 80 ; 00000050H
  0002b	83 45 08 50	 add	 DWORD PTR __First$[ebp], 80 ; 00000050H
  0002f	59		 pop	 ecx
  00030	59		 pop	 ecx
  00031	eb e3		 jmp	 SHORT $LL14@Uninit_cop@6
__catch$??$_Uninit_copy@V?$_Vector_const_iterator@V?$_Vector_val@UAttackAttribute@@V?$allocator@UAttackAttribute@@@std@@@std@@@std@@PAUAttackAttribute@@V?$allocator@UAttackAttribute@@@2@@std@@YAPAUAttackAttribute@@V?$_Vector_const_iterator@V?$_Vector_val@UAttackAttribute@@V?$allocator@UAttackAttribute@@@std@@@std@@@0@0PAU1@AAV?$allocator@UAttackAttribute@@@0@U_Nonscalar_ptr_iterator_tag@0@@Z$0:

; 377  : 	_CATCH_ALL
; 378  : 	for (; _Next != _Dest; ++_Next)

  00033	8b 75 ec	 mov	 esi, DWORD PTR __Next$[ebp]
  00036	eb 0a		 jmp	 SHORT $LN45@Uninit_cop@6
$LL3@Uninit_cop@6:

; 379  : 		_Dest_val(_Al, _Next);

  00038	8b ce		 mov	 ecx, esi
  0003a	e8 00 00 00 00	 call	 ??1AttackAttribute@@QAE@XZ
  0003f	83 c6 50	 add	 esi, 80			; 00000050H
$LN45@Uninit_cop@6:

; 377  : 	_CATCH_ALL
; 378  : 	for (; _Next != _Dest; ++_Next)

  00042	3b 75 10	 cmp	 esi, DWORD PTR __Dest$[ebp]
  00045	75 f1		 jne	 SHORT $LL3@Uninit_cop@6

; 380  : 	_RERAISE;

  00047	6a 00		 push	 0
  00049	6a 00		 push	 0
  0004b	e8 00 00 00 00	 call	 __CxxThrowException@8
$LN46@Uninit_cop@6:
$LN4@Uninit_cop@6:

; 381  : 	_CATCH_END
; 382  : 	return (_Dest);

  00050	8b 45 10	 mov	 eax, DWORD PTR __Dest$[ebp]

; 383  : 	}

  00053	e8 00 00 00 00	 call	 __EH_epilog3
  00058	c3		 ret	 0
$LN44@Uninit_cop@6:
_TEXT	ENDS
;	COMDAT text$x
text$x	SEGMENT
__ehhandler$??$_Uninit_copy@V?$_Vector_const_iterator@V?$_Vector_val@UAttackAttribute@@V?$allocator@UAttackAttribute@@@std@@@std@@@std@@PAUAttackAttribute@@V?$allocator@UAttackAttribute@@@2@@std@@YAPAUAttackAttribute@@V?$_Vector_const_iterator@V?$_Vector_val@UAttackAttribute@@V?$allocator@UAttackAttribute@@@std@@@std@@@0@0PAU1@AAV?$allocator@UAttackAttribute@@@0@U_Nonscalar_ptr_iterator_tag@0@@Z:
  00000	8b 54 24 08	 mov	 edx, DWORD PTR [esp+8]
  00004	8d 42 0c	 lea	 eax, DWORD PTR [edx+12]
  00007	8b 4a e8	 mov	 ecx, DWORD PTR [edx-24]
  0000a	33 c8		 xor	 ecx, eax
  0000c	e8 00 00 00 00	 call	 @__security_check_cookie@4
  00011	b8 00 00 00 00	 mov	 eax, OFFSET __ehfuncinfo$??$_Uninit_copy@V?$_Vector_const_iterator@V?$_Vector_val@UAttackAttribute@@V?$allocator@UAttackAttribute@@@std@@@std@@@std@@PAUAttackAttribute@@V?$allocator@UAttackAttribute@@@2@@std@@YAPAUAttackAttribute@@V?$_Vector_const_iterator@V?$_Vector_val@UAttackAttribute@@V?$allocator@UAttackAttribute@@@std@@@std@@@0@0PAU1@AAV?$allocator@UAttackAttribute@@@0@U_Nonscalar_ptr_iterator_tag@0@@Z
  00016	e9 00 00 00 00	 jmp	 ___CxxFrameHandler3
text$x	ENDS
??$_Uninit_copy@V?$_Vector_const_iterator@V?$_Vector_val@UAttackAttribute@@V?$allocator@UAttackAttribute@@@std@@@std@@@std@@PAUAttackAttribute@@V?$allocator@UAttackAttribute@@@2@@std@@YAPAUAttackAttribute@@V?$_Vector_const_iterator@V?$_Vector_val@UAttackAttribute@@V?$allocator@UAttackAttribute@@@std@@@std@@@0@0PAU1@AAV?$allocator@UAttackAttribute@@@0@U_Nonscalar_ptr_iterator_tag@0@@Z ENDP ; std::_Uninit_copy<std::_Vector_const_iterator<std::_Vector_val<AttackAttribute,std::allocator<AttackAttribute> > >,AttackAttribute *,std::allocator<AttackAttribute> >
PUBLIC	??$_Uninit_move@PAUAttackAttribute@@PAU1@V?$allocator@UAttackAttribute@@@std@@U1@@std@@YAPAUAttackAttribute@@PAU1@00AAV?$allocator@UAttackAttribute@@@0@0U_Nonscalar_ptr_iterator_tag@0@@Z ; std::_Uninit_move<AttackAttribute *,AttackAttribute *,std::allocator<AttackAttribute>,AttackAttribute>
;	COMDAT xdata$x
; File c:\program files (x86)\microsoft visual studio 10.0\vc\include\vector
xdata$x	SEGMENT
__catchsym$??$_Uninit_move@PAUAttackAttribute@@PAU1@V?$allocator@UAttackAttribute@@@std@@U1@@std@@YAPAUAttackAttribute@@PAU1@00AAV?$allocator@UAttackAttribute@@@0@0U_Nonscalar_ptr_iterator_tag@0@@Z$2 DD 040H
	DD	00H
	DD	00H
	DD	FLAT:__catch$??$_Uninit_move@PAUAttackAttribute@@PAU1@V?$allocator@UAttackAttribute@@@std@@U1@@std@@YAPAUAttackAttribute@@PAU1@00AAV?$allocator@UAttackAttribute@@@0@0U_Nonscalar_ptr_iterator_tag@0@@Z$0
__unwindtable$??$_Uninit_move@PAUAttackAttribute@@PAU1@V?$allocator@UAttackAttribute@@@std@@U1@@std@@YAPAUAttackAttribute@@PAU1@00AAV?$allocator@UAttackAttribute@@@0@0U_Nonscalar_ptr_iterator_tag@0@@Z DD 0ffffffffH
	DD	00H
	DD	0ffffffffH
	DD	00H
__tryblocktable$??$_Uninit_move@PAUAttackAttribute@@PAU1@V?$allocator@UAttackAttribute@@@std@@U1@@std@@YAPAUAttackAttribute@@PAU1@00AAV?$allocator@UAttackAttribute@@@0@0U_Nonscalar_ptr_iterator_tag@0@@Z DD 00H
	DD	00H
	DD	01H
	DD	01H
	DD	FLAT:__catchsym$??$_Uninit_move@PAUAttackAttribute@@PAU1@V?$allocator@UAttackAttribute@@@std@@U1@@std@@YAPAUAttackAttribute@@PAU1@00AAV?$allocator@UAttackAttribute@@@0@0U_Nonscalar_ptr_iterator_tag@0@@Z$2
__ehfuncinfo$??$_Uninit_move@PAUAttackAttribute@@PAU1@V?$allocator@UAttackAttribute@@@std@@U1@@std@@YAPAUAttackAttribute@@PAU1@00AAV?$allocator@UAttackAttribute@@@0@0U_Nonscalar_ptr_iterator_tag@0@@Z DD 019930522H
	DD	02H
	DD	FLAT:__unwindtable$??$_Uninit_move@PAUAttackAttribute@@PAU1@V?$allocator@UAttackAttribute@@@std@@U1@@std@@YAPAUAttackAttribute@@PAU1@00AAV?$allocator@UAttackAttribute@@@0@0U_Nonscalar_ptr_iterator_tag@0@@Z
	DD	01H
	DD	FLAT:__tryblocktable$??$_Uninit_move@PAUAttackAttribute@@PAU1@V?$allocator@UAttackAttribute@@@std@@U1@@std@@YAPAUAttackAttribute@@PAU1@00AAV?$allocator@UAttackAttribute@@@0@0U_Nonscalar_ptr_iterator_tag@0@@Z
	DD	2 DUP(00H)
	DD	00H
	DD	01H
; Function compile flags: /Ogsp
; File c:\program files (x86)\microsoft visual studio 10.0\vc\include\memory
xdata$x	ENDS
;	COMDAT ??$_Uninit_move@PAUAttackAttribute@@PAU1@V?$allocator@UAttackAttribute@@@std@@U1@@std@@YAPAUAttackAttribute@@PAU1@00AAV?$allocator@UAttackAttribute@@@0@0U_Nonscalar_ptr_iterator_tag@0@@Z
_TEXT	SEGMENT
__Next$ = -20						; size = 4
__$EHRec$ = -16						; size = 16
__First$ = 8						; size = 4
__Last$ = 12						; size = 4
__Dest$ = 16						; size = 4
__Al$ = 20						; size = 4
___formal$ = 24						; size = 4
___formal$ = 28						; size = 1
??$_Uninit_move@PAUAttackAttribute@@PAU1@V?$allocator@UAttackAttribute@@@std@@U1@@std@@YAPAUAttackAttribute@@PAU1@00AAV?$allocator@UAttackAttribute@@@0@0U_Nonscalar_ptr_iterator_tag@0@@Z PROC ; std::_Uninit_move<AttackAttribute *,AttackAttribute *,std::allocator<AttackAttribute>,AttackAttribute>, COMDAT

; 424  : 	{	// move [_First, _Last) to raw _Dest, using _Al, arbitrary type

  00000	6a 08		 push	 8
  00002	b8 00 00 00 00	 mov	 eax, __ehhandler$??$_Uninit_move@PAUAttackAttribute@@PAU1@V?$allocator@UAttackAttribute@@@std@@U1@@std@@YAPAUAttackAttribute@@PAU1@00AAV?$allocator@UAttackAttribute@@@0@0U_Nonscalar_ptr_iterator_tag@0@@Z
  00007	e8 00 00 00 00	 call	 __EH_prolog3_catch

; 425  : 	_DEBUG_RANGE(_First, _Last);
; 426  : 	_DEBUG_POINTER(_Dest);
; 427  : 	_FwdIt _Next = _Dest;

  0000c	8b 45 10	 mov	 eax, DWORD PTR __Dest$[ebp]

; 428  : 
; 429  : 	_TRY_BEGIN

  0000f	83 65 fc 00	 and	 DWORD PTR __$EHRec$[ebp+12], 0
  00013	8b 75 08	 mov	 esi, DWORD PTR __First$[ebp]
  00016	89 45 ec	 mov	 DWORD PTR __Next$[ebp], eax
$LL6@Uninit_mov@2:

; 430  : 	for (; _First != _Last; ++_Dest, ++_First)

  00019	3b 75 0c	 cmp	 esi, DWORD PTR __Last$[ebp]
  0001c	74 35		 je	 SHORT $LN4@Uninit_mov@2

; 431  : 		_Cons_val(_Al, _Dest, (_Valty &&)*_First);

  0001e	56		 push	 esi
  0001f	ff 75 10	 push	 DWORD PTR __Dest$[ebp]
  00022	ff 75 14	 push	 DWORD PTR __Al$[ebp]
  00025	e8 00 00 00 00	 call	 ??$_Cons_val@V?$allocator@UAttackAttribute@@@std@@UAttackAttribute@@U3@@std@@YAXAAV?$allocator@UAttackAttribute@@@0@PAUAttackAttribute@@$$QAU2@@Z ; std::_Cons_val<std::allocator<AttackAttribute>,AttackAttribute,AttackAttribute>
  0002a	83 45 10 50	 add	 DWORD PTR __Dest$[ebp], 80 ; 00000050H
  0002e	83 c4 0c	 add	 esp, 12			; 0000000cH
  00031	83 c6 50	 add	 esi, 80			; 00000050H
  00034	eb e3		 jmp	 SHORT $LL6@Uninit_mov@2
__catch$??$_Uninit_move@PAUAttackAttribute@@PAU1@V?$allocator@UAttackAttribute@@@std@@U1@@std@@YAPAUAttackAttribute@@PAU1@00AAV?$allocator@UAttackAttribute@@@0@0U_Nonscalar_ptr_iterator_tag@0@@Z$0:

; 432  : 	_CATCH_ALL
; 433  : 	for (; _Next != _Dest; ++_Next)

  00036	8b 75 ec	 mov	 esi, DWORD PTR __Next$[ebp]
  00039	eb 0a		 jmp	 SHORT $LN29@Uninit_mov@2
$LL3@Uninit_mov@2:

; 434  : 		_Dest_val(_Al, _Next);

  0003b	8b ce		 mov	 ecx, esi
  0003d	e8 00 00 00 00	 call	 ??1AttackAttribute@@QAE@XZ
  00042	83 c6 50	 add	 esi, 80			; 00000050H
$LN29@Uninit_mov@2:

; 432  : 	_CATCH_ALL
; 433  : 	for (; _Next != _Dest; ++_Next)

  00045	3b 75 10	 cmp	 esi, DWORD PTR __Dest$[ebp]
  00048	75 f1		 jne	 SHORT $LL3@Uninit_mov@2

; 435  : 	_RERAISE;

  0004a	6a 00		 push	 0
  0004c	6a 00		 push	 0
  0004e	e8 00 00 00 00	 call	 __CxxThrowException@8
$LN30@Uninit_mov@2:
$LN4@Uninit_mov@2:

; 436  : 	_CATCH_END
; 437  : 	return (_Dest);

  00053	8b 45 10	 mov	 eax, DWORD PTR __Dest$[ebp]

; 438  : 	}

  00056	e8 00 00 00 00	 call	 __EH_epilog3
  0005b	c3		 ret	 0
$LN28@Uninit_mov@2:
_TEXT	ENDS
;	COMDAT text$x
text$x	SEGMENT
__ehhandler$??$_Uninit_move@PAUAttackAttribute@@PAU1@V?$allocator@UAttackAttribute@@@std@@U1@@std@@YAPAUAttackAttribute@@PAU1@00AAV?$allocator@UAttackAttribute@@@0@0U_Nonscalar_ptr_iterator_tag@0@@Z:
  00000	8b 54 24 08	 mov	 edx, DWORD PTR [esp+8]
  00004	8d 42 0c	 lea	 eax, DWORD PTR [edx+12]
  00007	8b 4a e8	 mov	 ecx, DWORD PTR [edx-24]
  0000a	33 c8		 xor	 ecx, eax
  0000c	e8 00 00 00 00	 call	 @__security_check_cookie@4
  00011	b8 00 00 00 00	 mov	 eax, OFFSET __ehfuncinfo$??$_Uninit_move@PAUAttackAttribute@@PAU1@V?$allocator@UAttackAttribute@@@std@@U1@@std@@YAPAUAttackAttribute@@PAU1@00AAV?$allocator@UAttackAttribute@@@0@0U_Nonscalar_ptr_iterator_tag@0@@Z
  00016	e9 00 00 00 00	 jmp	 ___CxxFrameHandler3
text$x	ENDS
??$_Uninit_move@PAUAttackAttribute@@PAU1@V?$allocator@UAttackAttribute@@@std@@U1@@std@@YAPAUAttackAttribute@@PAU1@00AAV?$allocator@UAttackAttribute@@@0@0U_Nonscalar_ptr_iterator_tag@0@@Z ENDP ; std::_Uninit_move<AttackAttribute *,AttackAttribute *,std::allocator<AttackAttribute>,AttackAttribute>
PUBLIC	??$_Destroy_range@V?$allocator@UAttackAttribute@@@std@@@std@@YAXPAUAttackAttribute@@0AAV?$allocator@UAttackAttribute@@@0@U_Nonscalar_ptr_iterator_tag@0@@Z ; std::_Destroy_range<std::allocator<AttackAttribute> >
; Function compile flags: /Ogsp
; File c:\program files (x86)\microsoft visual studio 10.0\vc\include\xmemory
;	COMDAT ??$_Destroy_range@V?$allocator@UAttackAttribute@@@std@@@std@@YAXPAUAttackAttribute@@0AAV?$allocator@UAttackAttribute@@@0@U_Nonscalar_ptr_iterator_tag@0@@Z
_TEXT	SEGMENT
__First$ = 8						; size = 4
__Last$ = 12						; size = 4
__Al$ = 16						; size = 4
___formal$ = 20						; size = 1
??$_Destroy_range@V?$allocator@UAttackAttribute@@@std@@@std@@YAXPAUAttackAttribute@@0AAV?$allocator@UAttackAttribute@@@0@U_Nonscalar_ptr_iterator_tag@0@@Z PROC ; std::_Destroy_range<std::allocator<AttackAttribute> >, COMDAT

; 95   : 	{	// destroy [_First, _Last), arbitrary type

  00000	55		 push	 ebp
  00001	8b ec		 mov	 ebp, esp
  00003	56		 push	 esi

; 96   : 	for (; _First != _Last; ++_First)

  00004	8b 75 08	 mov	 esi, DWORD PTR __First$[ebp]
  00007	eb 0a		 jmp	 SHORT $LN17@Destroy_ra@5
$LL3@Destroy_ra@5:

; 97   : 		_Dest_val(_Al, _First);

  00009	8b ce		 mov	 ecx, esi
  0000b	e8 00 00 00 00	 call	 ??1AttackAttribute@@QAE@XZ
  00010	83 c6 50	 add	 esi, 80			; 00000050H
$LN17@Destroy_ra@5:

; 96   : 	for (; _First != _Last; ++_First)

  00013	3b 75 0c	 cmp	 esi, DWORD PTR __Last$[ebp]
  00016	75 f1		 jne	 SHORT $LL3@Destroy_ra@5
  00018	5e		 pop	 esi

; 98   : 	}

  00019	5d		 pop	 ebp
  0001a	c3		 ret	 0
??$_Destroy_range@V?$allocator@UAttackAttribute@@@std@@@std@@YAXPAUAttackAttribute@@0AAV?$allocator@UAttackAttribute@@@0@U_Nonscalar_ptr_iterator_tag@0@@Z ENDP ; std::_Destroy_range<std::allocator<AttackAttribute> >
_TEXT	ENDS
PUBLIC	??$_Uninitialized_copy@V?$_Vector_const_iterator@V?$_Vector_val@UAttackAttribute@@V?$allocator@UAttackAttribute@@@std@@@std@@@std@@PAUAttackAttribute@@V?$allocator@UAttackAttribute@@@2@@std@@YAPAUAttackAttribute@@V?$_Vector_const_iterator@V?$_Vector_val@UAttackAttribute@@V?$allocator@UAttackAttribute@@@std@@@std@@@0@0PAU1@AAV?$allocator@UAttackAttribute@@@0@@Z ; std::_Uninitialized_copy<std::_Vector_const_iterator<std::_Vector_val<AttackAttribute,std::allocator<AttackAttribute> > >,AttackAttribute *,std::allocator<AttackAttribute> >
; Function compile flags: /Ogsp
; File c:\program files (x86)\microsoft visual studio 10.0\vc\include\memory
;	COMDAT ??$_Uninitialized_copy@V?$_Vector_const_iterator@V?$_Vector_val@UAttackAttribute@@V?$allocator@UAttackAttribute@@@std@@@std@@@std@@PAUAttackAttribute@@V?$allocator@UAttackAttribute@@@2@@std@@YAPAUAttackAttribute@@V?$_Vector_const_iterator@V?$_Vector_val@UAttackAttribute@@V?$allocator@UAttackAttribute@@@std@@@std@@@0@0PAU1@AAV?$allocator@UAttackAttribute@@@0@@Z
_TEXT	SEGMENT
__Cat$612403 = -4					; size = 1
__First$ = 8						; size = 4
__Last$ = 12						; size = 4
__Dest$ = 16						; size = 4
__Al$ = 20						; size = 4
??$_Uninitialized_copy@V?$_Vector_const_iterator@V?$_Vector_val@UAttackAttribute@@V?$allocator@UAttackAttribute@@@std@@@std@@@std@@PAUAttackAttribute@@V?$allocator@UAttackAttribute@@@2@@std@@YAPAUAttackAttribute@@V?$_Vector_const_iterator@V?$_Vector_val@UAttackAttribute@@V?$allocator@UAttackAttribute@@@std@@@std@@@0@0PAU1@AAV?$allocator@UAttackAttribute@@@0@@Z PROC ; std::_Uninitialized_copy<std::_Vector_const_iterator<std::_Vector_val<AttackAttribute,std::allocator<AttackAttribute> > >,AttackAttribute *,std::allocator<AttackAttribute> >, COMDAT

; 412  : 	{	// copy [_First, _Last) to raw _Dest, using _Al

  00000	55		 push	 ebp
  00001	8b ec		 mov	 ebp, esp
  00003	51		 push	 ecx

; 413  : 	return (_Uninit_copy(_First, _Last, _Dest, _Al,
; 414  : 		_Ptr_cat(_First, _Dest)));

  00004	ff 75 fc	 push	 DWORD PTR __Cat$612403[ebp]
  00007	ff 75 14	 push	 DWORD PTR __Al$[ebp]
  0000a	ff 75 10	 push	 DWORD PTR __Dest$[ebp]
  0000d	ff 75 0c	 push	 DWORD PTR __Last$[ebp]
  00010	ff 75 08	 push	 DWORD PTR __First$[ebp]
  00013	e8 00 00 00 00	 call	 ??$_Uninit_copy@V?$_Vector_const_iterator@V?$_Vector_val@UAttackAttribute@@V?$allocator@UAttackAttribute@@@std@@@std@@@std@@PAUAttackAttribute@@V?$allocator@UAttackAttribute@@@2@@std@@YAPAUAttackAttribute@@V?$_Vector_const_iterator@V?$_Vector_val@UAttackAttribute@@V?$allocator@UAttackAttribute@@@std@@@std@@@0@0PAU1@AAV?$allocator@UAttackAttribute@@@0@U_Nonscalar_ptr_iterator_tag@0@@Z ; std::_Uninit_copy<std::_Vector_const_iterator<std::_Vector_val<AttackAttribute,std::allocator<AttackAttribute> > >,AttackAttribute *,std::allocator<AttackAttribute> >
  00018	83 c4 14	 add	 esp, 20			; 00000014H

; 415  : 	}

  0001b	c9		 leave
  0001c	c3		 ret	 0
??$_Uninitialized_copy@V?$_Vector_const_iterator@V?$_Vector_val@UAttackAttribute@@V?$allocator@UAttackAttribute@@@std@@@std@@@std@@PAUAttackAttribute@@V?$allocator@UAttackAttribute@@@2@@std@@YAPAUAttackAttribute@@V?$_Vector_const_iterator@V?$_Vector_val@UAttackAttribute@@V?$allocator@UAttackAttribute@@@std@@@std@@@0@0PAU1@AAV?$allocator@UAttackAttribute@@@0@@Z ENDP ; std::_Uninitialized_copy<std::_Vector_const_iterator<std::_Vector_val<AttackAttribute,std::allocator<AttackAttribute> > >,AttackAttribute *,std::allocator<AttackAttribute> >
_TEXT	ENDS
PUBLIC	??$_Uninitialized_move@PAUAttackAttribute@@PAU1@V?$allocator@UAttackAttribute@@@std@@@std@@YAPAUAttackAttribute@@PAU1@00AAV?$allocator@UAttackAttribute@@@0@@Z ; std::_Uninitialized_move<AttackAttribute *,AttackAttribute *,std::allocator<AttackAttribute> >
; Function compile flags: /Ogsp
;	COMDAT ??$_Uninitialized_move@PAUAttackAttribute@@PAU1@V?$allocator@UAttackAttribute@@@std@@@std@@YAPAUAttackAttribute@@PAU1@00AAV?$allocator@UAttackAttribute@@@0@@Z
_TEXT	SEGMENT
__Cat$612410 = -4					; size = 1
__First$ = 8						; size = 4
__Last$ = 12						; size = 4
__Dest$ = 16						; size = 4
__Al$ = 20						; size = 4
??$_Uninitialized_move@PAUAttackAttribute@@PAU1@V?$allocator@UAttackAttribute@@@std@@@std@@YAPAUAttackAttribute@@PAU1@00AAV?$allocator@UAttackAttribute@@@0@@Z PROC ; std::_Uninitialized_move<AttackAttribute *,AttackAttribute *,std::allocator<AttackAttribute> >, COMDAT

; 469  : 	{	// move [_First, _Last) to raw _Dest, using _Al

  00000	55		 push	 ebp
  00001	8b ec		 mov	 ebp, esp
  00003	51		 push	 ecx

; 470  : 	return (_Uninit_move(_First, _Last, _Dest, _Al,
; 471  : 		_Val_type(_First), _Ptr_cat(_First, _Dest)));

  00004	ff 75 fc	 push	 DWORD PTR __Cat$612410[ebp]
  00007	6a 00		 push	 0
  00009	ff 75 14	 push	 DWORD PTR __Al$[ebp]
  0000c	ff 75 10	 push	 DWORD PTR __Dest$[ebp]
  0000f	ff 75 0c	 push	 DWORD PTR __Last$[ebp]
  00012	ff 75 08	 push	 DWORD PTR __First$[ebp]
  00015	e8 00 00 00 00	 call	 ??$_Uninit_move@PAUAttackAttribute@@PAU1@V?$allocator@UAttackAttribute@@@std@@U1@@std@@YAPAUAttackAttribute@@PAU1@00AAV?$allocator@UAttackAttribute@@@0@0U_Nonscalar_ptr_iterator_tag@0@@Z ; std::_Uninit_move<AttackAttribute *,AttackAttribute *,std::allocator<AttackAttribute>,AttackAttribute>
  0001a	83 c4 18	 add	 esp, 24			; 00000018H

; 472  : 	}

  0001d	c9		 leave
  0001e	c3		 ret	 0
??$_Uninitialized_move@PAUAttackAttribute@@PAU1@V?$allocator@UAttackAttribute@@@std@@@std@@YAPAUAttackAttribute@@PAU1@00AAV?$allocator@UAttackAttribute@@@0@@Z ENDP ; std::_Uninitialized_move<AttackAttribute *,AttackAttribute *,std::allocator<AttackAttribute> >
_TEXT	ENDS
PUBLIC	??$_Destroy_range@V?$allocator@UAttackAttribute@@@std@@@std@@YAXPAUAttackAttribute@@0AAV?$allocator@UAttackAttribute@@@0@@Z ; std::_Destroy_range<std::allocator<AttackAttribute> >
; Function compile flags: /Ogsp
; File c:\program files (x86)\microsoft visual studio 10.0\vc\include\xmemory
;	COMDAT ??$_Destroy_range@V?$allocator@UAttackAttribute@@@std@@@std@@YAXPAUAttackAttribute@@0AAV?$allocator@UAttackAttribute@@@0@@Z
_TEXT	SEGMENT
__First$ = 8						; size = 4
__Last$ = 12						; size = 4
__Al$ = 16						; size = 4
??$_Destroy_range@V?$allocator@UAttackAttribute@@@std@@@std@@YAXPAUAttackAttribute@@0AAV?$allocator@UAttackAttribute@@@0@@Z PROC ; std::_Destroy_range<std::allocator<AttackAttribute> >, COMDAT

; 87   : 	{	// destroy [_First, _Last)

  00000	55		 push	 ebp
  00001	8b ec		 mov	 ebp, esp
  00003	56		 push	 esi

; 88   : 	_Destroy_range(_First, _Last, _Al, _Ptr_cat(_First, _Last));

  00004	8b 75 08	 mov	 esi, DWORD PTR __First$[ebp]
  00007	eb 0a		 jmp	 SHORT $LN21@Destroy_ra@6
$LL7@Destroy_ra@6:
  00009	8b ce		 mov	 ecx, esi
  0000b	e8 00 00 00 00	 call	 ??1AttackAttribute@@QAE@XZ
  00010	83 c6 50	 add	 esi, 80			; 00000050H
$LN21@Destroy_ra@6:
  00013	3b 75 0c	 cmp	 esi, DWORD PTR __Last$[ebp]
  00016	75 f1		 jne	 SHORT $LL7@Destroy_ra@6
  00018	5e		 pop	 esi

; 89   : 	}

  00019	5d		 pop	 ebp
  0001a	c3		 ret	 0
??$_Destroy_range@V?$allocator@UAttackAttribute@@@std@@@std@@YAXPAUAttackAttribute@@0AAV?$allocator@UAttackAttribute@@@0@@Z ENDP ; std::_Destroy_range<std::allocator<AttackAttribute> >
_TEXT	ENDS
PUBLIC	??$_Ucopy@V?$_Vector_const_iterator@V?$_Vector_val@UAttackAttribute@@V?$allocator@UAttackAttribute@@@std@@@std@@@std@@@?$vector@UAttackAttribute@@V?$allocator@UAttackAttribute@@@std@@@std@@IAEPAUAttackAttribute@@V?$_Vector_const_iterator@V?$_Vector_val@UAttackAttribute@@V?$allocator@UAttackAttribute@@@std@@@std@@@1@0PAU2@@Z ; std::vector<AttackAttribute,std::allocator<AttackAttribute> >::_Ucopy<std::_Vector_const_iterator<std::_Vector_val<AttackAttribute,std::allocator<AttackAttribute> > > >
; Function compile flags: /Ogsp
; File c:\program files (x86)\microsoft visual studio 10.0\vc\include\vector
;	COMDAT ??$_Ucopy@V?$_Vector_const_iterator@V?$_Vector_val@UAttackAttribute@@V?$allocator@UAttackAttribute@@@std@@@std@@@std@@@?$vector@UAttackAttribute@@V?$allocator@UAttackAttribute@@@std@@@std@@IAEPAUAttackAttribute@@V?$_Vector_const_iterator@V?$_Vector_val@UAttackAttribute@@V?$allocator@UAttackAttribute@@@std@@@std@@@1@0PAU2@@Z
_TEXT	SEGMENT
__First$ = 8						; size = 4
__Last$ = 12						; size = 4
__Cat$612480 = 16					; size = 1
__Ptr$ = 16						; size = 4
??$_Ucopy@V?$_Vector_const_iterator@V?$_Vector_val@UAttackAttribute@@V?$allocator@UAttackAttribute@@@std@@@std@@@std@@@?$vector@UAttackAttribute@@V?$allocator@UAttackAttribute@@@std@@@std@@IAEPAUAttackAttribute@@V?$_Vector_const_iterator@V?$_Vector_val@UAttackAttribute@@V?$allocator@UAttackAttribute@@@std@@@std@@@1@0PAU2@@Z PROC ; std::vector<AttackAttribute,std::allocator<AttackAttribute> >::_Ucopy<std::_Vector_const_iterator<std::_Vector_val<AttackAttribute,std::allocator<AttackAttribute> > > >, COMDAT
; _this$ = ecx

; 1315 : 		pointer _Ucopy(_Iter _First, _Iter _Last, pointer _Ptr)

  00000	55		 push	 ebp
  00001	8b ec		 mov	 ebp, esp

; 1316 : 		{	// copy initializing [_First, _Last), using allocator
; 1317 : 		return (_Uninitialized_copy(_First, _Last,
; 1318 : 			_Ptr, this->_Alval));

  00003	ff 75 10	 push	 DWORD PTR __Cat$612480[ebp]
  00006	83 c1 0c	 add	 ecx, 12			; 0000000cH
  00009	51		 push	 ecx
  0000a	ff 75 10	 push	 DWORD PTR __Ptr$[ebp]
  0000d	ff 75 0c	 push	 DWORD PTR __Last$[ebp]
  00010	ff 75 08	 push	 DWORD PTR __First$[ebp]
  00013	e8 00 00 00 00	 call	 ??$_Uninit_copy@V?$_Vector_const_iterator@V?$_Vector_val@UAttackAttribute@@V?$allocator@UAttackAttribute@@@std@@@std@@@std@@PAUAttackAttribute@@V?$allocator@UAttackAttribute@@@2@@std@@YAPAUAttackAttribute@@V?$_Vector_const_iterator@V?$_Vector_val@UAttackAttribute@@V?$allocator@UAttackAttribute@@@std@@@std@@@0@0PAU1@AAV?$allocator@UAttackAttribute@@@0@U_Nonscalar_ptr_iterator_tag@0@@Z ; std::_Uninit_copy<std::_Vector_const_iterator<std::_Vector_val<AttackAttribute,std::allocator<AttackAttribute> > >,AttackAttribute *,std::allocator<AttackAttribute> >
  00018	83 c4 14	 add	 esp, 20			; 00000014H

; 1319 : 		}

  0001b	5d		 pop	 ebp
  0001c	c2 0c 00	 ret	 12			; 0000000cH
??$_Ucopy@V?$_Vector_const_iterator@V?$_Vector_val@UAttackAttribute@@V?$allocator@UAttackAttribute@@@std@@@std@@@std@@@?$vector@UAttackAttribute@@V?$allocator@UAttackAttribute@@@std@@@std@@IAEPAUAttackAttribute@@V?$_Vector_const_iterator@V?$_Vector_val@UAttackAttribute@@V?$allocator@UAttackAttribute@@@std@@@std@@@1@0PAU2@@Z ENDP ; std::vector<AttackAttribute,std::allocator<AttackAttribute> >::_Ucopy<std::_Vector_const_iterator<std::_Vector_val<AttackAttribute,std::allocator<AttackAttribute> > > >
_TEXT	ENDS
PUBLIC	??$_Umove@PAUAttackAttribute@@@?$vector@UAttackAttribute@@V?$allocator@UAttackAttribute@@@std@@@std@@IAEPAUAttackAttribute@@PAU2@00@Z ; std::vector<AttackAttribute,std::allocator<AttackAttribute> >::_Umove<AttackAttribute *>
; Function compile flags: /Ogsp
;	COMDAT ??$_Umove@PAUAttackAttribute@@@?$vector@UAttackAttribute@@V?$allocator@UAttackAttribute@@@std@@@std@@IAEPAUAttackAttribute@@PAU2@00@Z
_TEXT	SEGMENT
__First$ = 8						; size = 4
__Last$ = 12						; size = 4
__Ptr$ = 16						; size = 4
??$_Umove@PAUAttackAttribute@@@?$vector@UAttackAttribute@@V?$allocator@UAttackAttribute@@@std@@@std@@IAEPAUAttackAttribute@@PAU2@00@Z PROC ; std::vector<AttackAttribute,std::allocator<AttackAttribute> >::_Umove<AttackAttribute *>, COMDAT
; _this$ = ecx

; 1322 : 		pointer _Umove(_Iter _First, _Iter _Last, pointer _Ptr)

  00000	55		 push	 ebp
  00001	8b ec		 mov	 ebp, esp

; 1323 : 		{	// move initializing [_First, _Last), using allocator
; 1324 : 		return (_Uninitialized_move(_First, _Last,
; 1325 : 			_Ptr, this->_Alval));

  00003	83 c1 0c	 add	 ecx, 12			; 0000000cH
  00006	51		 push	 ecx
  00007	ff 75 10	 push	 DWORD PTR __Ptr$[ebp]
  0000a	ff 75 0c	 push	 DWORD PTR __Last$[ebp]
  0000d	ff 75 08	 push	 DWORD PTR __First$[ebp]
  00010	e8 00 00 00 00	 call	 ??$_Uninitialized_move@PAUAttackAttribute@@PAU1@V?$allocator@UAttackAttribute@@@std@@@std@@YAPAUAttackAttribute@@PAU1@00AAV?$allocator@UAttackAttribute@@@0@@Z ; std::_Uninitialized_move<AttackAttribute *,AttackAttribute *,std::allocator<AttackAttribute> >
  00015	83 c4 10	 add	 esp, 16			; 00000010H

; 1326 : 		}

  00018	5d		 pop	 ebp
  00019	c2 0c 00	 ret	 12			; 0000000cH
??$_Umove@PAUAttackAttribute@@@?$vector@UAttackAttribute@@V?$allocator@UAttackAttribute@@@std@@@std@@IAEPAUAttackAttribute@@PAU2@00@Z ENDP ; std::vector<AttackAttribute,std::allocator<AttackAttribute> >::_Umove<AttackAttribute *>
_TEXT	ENDS
PUBLIC	?_Destroy@?$vector@UAttackAttribute@@V?$allocator@UAttackAttribute@@@std@@@std@@IAEXPAUAttackAttribute@@0@Z ; std::vector<AttackAttribute,std::allocator<AttackAttribute> >::_Destroy
; Function compile flags: /Ogsp
;	COMDAT ?_Destroy@?$vector@UAttackAttribute@@V?$allocator@UAttackAttribute@@@std@@@std@@IAEXPAUAttackAttribute@@0@Z
_TEXT	SEGMENT
__First$ = 8						; size = 4
__Last$ = 12						; size = 4
?_Destroy@?$vector@UAttackAttribute@@V?$allocator@UAttackAttribute@@@std@@@std@@IAEXPAUAttackAttribute@@0@Z PROC ; std::vector<AttackAttribute,std::allocator<AttackAttribute> >::_Destroy, COMDAT
; _this$ = ecx

; 1269 : 		{	// destroy [_First, _Last) using allocator

  00000	55		 push	 ebp
  00001	8b ec		 mov	 ebp, esp
  00003	56		 push	 esi

; 1270 : 		_Destroy_range(_First, _Last, this->_Alval);

  00004	8b 75 08	 mov	 esi, DWORD PTR __First$[ebp]
  00007	eb 0a		 jmp	 SHORT $LN23@Destroy@2
$LL9@Destroy@2:
  00009	8b ce		 mov	 ecx, esi
  0000b	e8 00 00 00 00	 call	 ??1AttackAttribute@@QAE@XZ
  00010	83 c6 50	 add	 esi, 80			; 00000050H
$LN23@Destroy@2:
  00013	3b 75 0c	 cmp	 esi, DWORD PTR __Last$[ebp]
  00016	75 f1		 jne	 SHORT $LL9@Destroy@2
  00018	5e		 pop	 esi

; 1271 : 		}

  00019	5d		 pop	 ebp
  0001a	c2 08 00	 ret	 8
?_Destroy@?$vector@UAttackAttribute@@V?$allocator@UAttackAttribute@@@std@@@std@@IAEXPAUAttackAttribute@@0@Z ENDP ; std::vector<AttackAttribute,std::allocator<AttackAttribute> >::_Destroy
_TEXT	ENDS
PUBLIC	?reserve@?$vector@UAttackAttribute@@V?$allocator@UAttackAttribute@@@std@@@std@@QAEXI@Z ; std::vector<AttackAttribute,std::allocator<AttackAttribute> >::reserve
;	COMDAT xdata$x
; File c:\program files (x86)\microsoft visual studio 10.0\vc\include\xmemory
xdata$x	SEGMENT
__catchsym$?reserve@?$vector@UAttackAttribute@@V?$allocator@UAttackAttribute@@@std@@@std@@QAEXI@Z$2 DD 040H
	DD	00H
	DD	00H
	DD	FLAT:__catch$?reserve@?$vector@UAttackAttribute@@V?$allocator@UAttackAttribute@@@std@@@std@@QAEXI@Z$0
__unwindtable$?reserve@?$vector@UAttackAttribute@@V?$allocator@UAttackAttribute@@@std@@@std@@QAEXI@Z DD 0ffffffffH
	DD	00H
	DD	0ffffffffH
	DD	00H
__tryblocktable$?reserve@?$vector@UAttackAttribute@@V?$allocator@UAttackAttribute@@@std@@@std@@QAEXI@Z DD 00H
	DD	00H
	DD	01H
	DD	01H
	DD	FLAT:__catchsym$?reserve@?$vector@UAttackAttribute@@V?$allocator@UAttackAttribute@@@std@@@std@@QAEXI@Z$2
__ehfuncinfo$?reserve@?$vector@UAttackAttribute@@V?$allocator@UAttackAttribute@@@std@@@std@@QAEXI@Z DD 019930522H
	DD	02H
	DD	FLAT:__unwindtable$?reserve@?$vector@UAttackAttribute@@V?$allocator@UAttackAttribute@@@std@@@std@@QAEXI@Z
	DD	01H
	DD	FLAT:__tryblocktable$?reserve@?$vector@UAttackAttribute@@V?$allocator@UAttackAttribute@@@std@@@std@@QAEXI@Z
	DD	2 DUP(00H)
	DD	00H
	DD	01H
; Function compile flags: /Ogsp
; File c:\program files (x86)\microsoft visual studio 10.0\vc\include\vector
xdata$x	ENDS
;	COMDAT ?reserve@?$vector@UAttackAttribute@@V?$allocator@UAttackAttribute@@@std@@@std@@QAEXI@Z
_TEXT	SEGMENT
__Ptr$601623 = -24					; size = 4
$T612654 = -20						; size = 4
__$EHRec$ = -16						; size = 16
__Count$ = 8						; size = 4
?reserve@?$vector@UAttackAttribute@@V?$allocator@UAttackAttribute@@@std@@@std@@QAEXI@Z PROC ; std::vector<AttackAttribute,std::allocator<AttackAttribute> >::reserve, COMDAT
; _this$ = ecx

; 746  : 		{	// determine new minimum length of allocated storage

  00000	6a 0c		 push	 12			; 0000000cH
  00002	b8 00 00 00 00	 mov	 eax, __ehhandler$?reserve@?$vector@UAttackAttribute@@V?$allocator@UAttackAttribute@@@std@@@std@@QAEXI@Z
  00007	e8 00 00 00 00	 call	 __EH_prolog3_catch
  0000c	8b f1		 mov	 esi, ecx

; 747  : 		if (max_size() < _Count)

  0000e	81 7d 08 33 33
	33 03		 cmp	 DWORD PTR __Count$[ebp], 53687091 ; 03333333H
  00015	76 0b		 jbe	 SHORT $LN5@reserve@2

; 748  : 			_Xlen();	// result too long

  00017	68 00 00 00 00	 push	 OFFSET ??_C@_0BD@OLBABOEK@vector?$DMT?$DO?5too?5long?$AA@
  0001c	ff 15 00 00 00
	00		 call	 DWORD PTR __imp_?_Xlength_error@std@@YAXPBD@Z
$LN59@reserve@2:
$LN5@reserve@2:

; 749  : 		else if (capacity() < _Count)

  00022	8b 46 08	 mov	 eax, DWORD PTR [esi+8]
  00025	2b 06		 sub	 eax, DWORD PTR [esi]
  00027	6a 50		 push	 80			; 00000050H
  00029	99		 cdq
  0002a	59		 pop	 ecx
  0002b	f7 f9		 idiv	 ecx
  0002d	3b 45 08	 cmp	 eax, DWORD PTR __Count$[ebp]
  00030	0f 83 80 00 00
	00		 jae	 $LN3@reserve@2

; 750  : 			{	// not enough room, reallocate
; 751  : 			pointer _Ptr = this->_Alval.allocate(_Count);

  00036	6a 00		 push	 0
  00038	ff 75 08	 push	 DWORD PTR __Count$[ebp]
  0003b	e8 00 00 00 00	 call	 ??$_Allocate@UAttackAttribute@@@std@@YAPAUAttackAttribute@@IPAU1@@Z ; std::_Allocate<AttackAttribute>

; 752  : 
; 753  : 			_TRY_BEGIN
; 754  : 			_Umove(this->_Myfirst, this->_Mylast, _Ptr);

  00040	8b 0e		 mov	 ecx, DWORD PTR [esi]
  00042	83 65 fc 00	 and	 DWORD PTR __$EHRec$[ebp+12], 0
  00046	8d 56 0c	 lea	 edx, DWORD PTR [esi+12]
  00049	52		 push	 edx
  0004a	89 45 e8	 mov	 DWORD PTR __Ptr$601623[ebp], eax
  0004d	ff 75 e8	 push	 DWORD PTR __Ptr$601623[ebp]
  00050	8b 46 04	 mov	 eax, DWORD PTR [esi+4]
  00053	50		 push	 eax
  00054	51		 push	 ecx
  00055	e8 00 00 00 00	 call	 ??$_Uninitialized_move@PAUAttackAttribute@@PAU1@V?$allocator@UAttackAttribute@@@std@@@std@@YAPAUAttackAttribute@@PAU1@00AAV?$allocator@UAttackAttribute@@@0@@Z ; std::_Uninitialized_move<AttackAttribute *,AttackAttribute *,std::allocator<AttackAttribute> >

; 758  : 			_CATCH_END
; 759  : 
; 760  : 			size_type _Size = size();

  0005a	8b 5e 04	 mov	 ebx, DWORD PTR [esi+4]
  0005d	8b 0e		 mov	 ecx, DWORD PTR [esi]
  0005f	83 c4 18	 add	 esp, 24			; 00000018H
  00062	8b c3		 mov	 eax, ebx
  00064	2b c1		 sub	 eax, ecx
  00066	6a 50		 push	 80			; 00000050H
  00068	99		 cdq
  00069	5f		 pop	 edi
  0006a	f7 ff		 idiv	 edi
  0006c	83 4d fc ff	 or	 DWORD PTR __$EHRec$[ebp+12], -1
  00070	8b f8		 mov	 edi, eax
  00072	85 c9		 test	 ecx, ecx
  00074	74 20		 je	 SHORT $LN51@reserve@2

; 761  : 			if (this->_Myfirst != 0)
; 762  : 				{	// destroy and deallocate old array
; 763  : 				_Destroy(this->_Myfirst, this->_Mylast);

  00076	89 4d ec	 mov	 DWORD PTR $T612654[ebp], ecx
  00079	3b cb		 cmp	 ecx, ebx
  0007b	74 11		 je	 SHORT $LN37@reserve@2
$LN39@reserve@2:
  0007d	8b 4d ec	 mov	 ecx, DWORD PTR $T612654[ebp]
  00080	e8 00 00 00 00	 call	 ??1AttackAttribute@@QAE@XZ
  00085	83 45 ec 50	 add	 DWORD PTR $T612654[ebp], 80 ; 00000050H
  00089	39 5d ec	 cmp	 DWORD PTR $T612654[ebp], ebx
  0008c	75 ef		 jne	 SHORT $LN39@reserve@2
$LN37@reserve@2:

; 764  : 				this->_Alval.deallocate(this->_Myfirst,
; 765  : 					this->_Myend - this->_Myfirst);

  0008e	ff 36		 push	 DWORD PTR [esi]
  00090	e8 00 00 00 00	 call	 ??3@YAXPAX@Z		; operator delete
  00095	59		 pop	 ecx
$LN51@reserve@2:

; 766  : 				}
; 767  : 
; 768  : 			this->_Orphan_all();

  00096	8b ce		 mov	 ecx, esi
  00098	ff 15 00 00 00
	00		 call	 DWORD PTR __imp_?_Orphan_all@_Container_base0@std@@QAEXXZ

; 769  : 			this->_Myend = _Ptr + _Count;
; 770  : 			this->_Mylast = _Ptr + _Size;

  0009e	6b ff 50	 imul	 edi, 80			; 00000050H
  000a1	8b 45 08	 mov	 eax, DWORD PTR __Count$[ebp]
  000a4	8b 4d e8	 mov	 ecx, DWORD PTR __Ptr$601623[ebp]
  000a7	6b c0 50	 imul	 eax, 80			; 00000050H
  000aa	03 c1		 add	 eax, ecx
  000ac	03 f9		 add	 edi, ecx
  000ae	89 46 08	 mov	 DWORD PTR [esi+8], eax
  000b1	89 7e 04	 mov	 DWORD PTR [esi+4], edi

; 771  : 			this->_Myfirst = _Ptr;

  000b4	89 0e		 mov	 DWORD PTR [esi], ecx
$LN3@reserve@2:

; 772  : 			}
; 773  : 		}

  000b6	e8 00 00 00 00	 call	 __EH_epilog3
  000bb	c2 04 00	 ret	 4
__catch$?reserve@?$vector@UAttackAttribute@@V?$allocator@UAttackAttribute@@@std@@@std@@QAEXI@Z$0:

; 755  : 			_CATCH_ALL
; 756  : 			this->_Alval.deallocate(_Ptr, _Count);

  000be	ff 75 e8	 push	 DWORD PTR __Ptr$601623[ebp]
  000c1	e8 00 00 00 00	 call	 ??3@YAXPAX@Z		; operator delete
  000c6	59		 pop	 ecx

; 757  : 			_RERAISE;

  000c7	6a 00		 push	 0
  000c9	6a 00		 push	 0
  000cb	e8 00 00 00 00	 call	 __CxxThrowException@8
$LN60@reserve@2:
$LN58@reserve@2:
  000d0	cc		 int	 3
_TEXT	ENDS
;	COMDAT text$x
text$x	SEGMENT
__ehhandler$?reserve@?$vector@UAttackAttribute@@V?$allocator@UAttackAttribute@@@std@@@std@@QAEXI@Z:
  00000	8b 54 24 08	 mov	 edx, DWORD PTR [esp+8]
  00004	8d 42 0c	 lea	 eax, DWORD PTR [edx+12]
  00007	8b 4a e4	 mov	 ecx, DWORD PTR [edx-28]
  0000a	33 c8		 xor	 ecx, eax
  0000c	e8 00 00 00 00	 call	 @__security_check_cookie@4
  00011	b8 00 00 00 00	 mov	 eax, OFFSET __ehfuncinfo$?reserve@?$vector@UAttackAttribute@@V?$allocator@UAttackAttribute@@@std@@@std@@QAEXI@Z
  00016	e9 00 00 00 00	 jmp	 ___CxxFrameHandler3
text$x	ENDS
?reserve@?$vector@UAttackAttribute@@V?$allocator@UAttackAttribute@@@std@@@std@@QAEXI@Z ENDP ; std::vector<AttackAttribute,std::allocator<AttackAttribute> >::reserve
PUBLIC	?_Reserve@?$vector@UAttackAttribute@@V?$allocator@UAttackAttribute@@@std@@@std@@IAEXI@Z ; std::vector<AttackAttribute,std::allocator<AttackAttribute> >::_Reserve
; Function compile flags: /Ogsp
;	COMDAT ?_Reserve@?$vector@UAttackAttribute@@V?$allocator@UAttackAttribute@@@std@@@std@@IAEXI@Z
_TEXT	SEGMENT
__Count$ = 8						; size = 4
?_Reserve@?$vector@UAttackAttribute@@V?$allocator@UAttackAttribute@@@std@@@std@@IAEXI@Z PROC ; std::vector<AttackAttribute,std::allocator<AttackAttribute> >::_Reserve, COMDAT
; _this$ = ecx

; 1290 : 		{	// ensure room for _Count new elements, grow exponentially

  00000	55		 push	 ebp
  00001	8b ec		 mov	 ebp, esp
  00003	56		 push	 esi
  00004	8b f1		 mov	 esi, ecx

; 1291 : 		size_type _Size = size();

  00006	8b 0e		 mov	 ecx, DWORD PTR [esi]
  00008	8b 46 04	 mov	 eax, DWORD PTR [esi+4]
  0000b	2b c1		 sub	 eax, ecx
  0000d	57		 push	 edi
  0000e	99		 cdq
  0000f	6a 50		 push	 80			; 00000050H
  00011	5f		 pop	 edi
  00012	f7 ff		 idiv	 edi
  00014	8b f8		 mov	 edi, eax

; 1292 : 		if (max_size() - _Count < _Size)

  00016	b8 33 33 33 03	 mov	 eax, 53687091		; 03333333H
  0001b	2b 45 08	 sub	 eax, DWORD PTR __Count$[ebp]
  0001e	3b c7		 cmp	 eax, edi
  00020	73 0b		 jae	 SHORT $LN4@Reserve@2

; 1293 : 			_Xlen();

  00022	68 00 00 00 00	 push	 OFFSET ??_C@_0BD@OLBABOEK@vector?$DMT?$DO?5too?5long?$AA@
  00027	ff 15 00 00 00
	00		 call	 DWORD PTR __imp_?_Xlength_error@std@@YAXPBD@Z
$LN21@Reserve@2:
$LN4@Reserve@2:

; 1294 : 		else if ((_Size += _Count) <= capacity())

  0002d	8b 46 08	 mov	 eax, DWORD PTR [esi+8]
  00030	2b c1		 sub	 eax, ecx
  00032	6a 50		 push	 80			; 00000050H
  00034	99		 cdq
  00035	59		 pop	 ecx
  00036	f7 f9		 idiv	 ecx
  00038	03 7d 08	 add	 edi, DWORD PTR __Count$[ebp]
  0003b	3b f8		 cmp	 edi, eax
  0003d	76 10		 jbe	 SHORT $LN1@Reserve@2

; 1295 : 			;
; 1296 : 		else
; 1297 : 			reserve(_Grow_to(_Size));

  0003f	57		 push	 edi
  00040	8b ce		 mov	 ecx, esi
  00042	e8 00 00 00 00	 call	 ?_Grow_to@?$vector@UAttackAttribute@@V?$allocator@UAttackAttribute@@@std@@@std@@IBEII@Z ; std::vector<AttackAttribute,std::allocator<AttackAttribute> >::_Grow_to
  00047	50		 push	 eax
  00048	8b ce		 mov	 ecx, esi
  0004a	e8 00 00 00 00	 call	 ?reserve@?$vector@UAttackAttribute@@V?$allocator@UAttackAttribute@@@std@@@std@@QAEXI@Z ; std::vector<AttackAttribute,std::allocator<AttackAttribute> >::reserve
$LN1@Reserve@2:
  0004f	5f		 pop	 edi
  00050	5e		 pop	 esi

; 1298 : 		}

  00051	5d		 pop	 ebp
  00052	c2 04 00	 ret	 4
$LN20@Reserve@2:
?_Reserve@?$vector@UAttackAttribute@@V?$allocator@UAttackAttribute@@@std@@@std@@IAEXI@Z ENDP ; std::vector<AttackAttribute,std::allocator<AttackAttribute> >::_Reserve
_TEXT	ENDS
PUBLIC	?erase@?$vector@UAttackAttribute@@V?$allocator@UAttackAttribute@@@std@@@std@@QAE?AV?$_Vector_iterator@V?$_Vector_val@UAttackAttribute@@V?$allocator@UAttackAttribute@@@std@@@std@@@2@V?$_Vector_const_iterator@V?$_Vector_val@UAttackAttribute@@V?$allocator@UAttackAttribute@@@std@@@std@@@2@0@Z ; std::vector<AttackAttribute,std::allocator<AttackAttribute> >::erase
; Function compile flags: /Ogsp
;	COMDAT ?erase@?$vector@UAttackAttribute@@V?$allocator@UAttackAttribute@@@std@@@std@@QAE?AV?$_Vector_iterator@V?$_Vector_val@UAttackAttribute@@V?$allocator@UAttackAttribute@@@std@@@std@@@2@V?$_Vector_const_iterator@V?$_Vector_val@UAttackAttribute@@V?$allocator@UAttackAttribute@@@std@@@std@@@2@0@Z
_TEXT	SEGMENT
$T612879 = -4						; size = 4
___$ReturnUdt$ = 8					; size = 4
__First_arg$ = 12					; size = 4
__Cat$612823 = 16					; size = 1
__Last_arg$ = 16					; size = 4
?erase@?$vector@UAttackAttribute@@V?$allocator@UAttackAttribute@@@std@@@std@@QAE?AV?$_Vector_iterator@V?$_Vector_val@UAttackAttribute@@V?$allocator@UAttackAttribute@@@std@@@std@@@2@V?$_Vector_const_iterator@V?$_Vector_val@UAttackAttribute@@V?$allocator@UAttackAttribute@@@std@@@std@@@2@0@Z PROC ; std::vector<AttackAttribute,std::allocator<AttackAttribute> >::erase, COMDAT
; _this$ = ecx

; 1190 : 		{	// erase [_First, _Last)

  00000	55		 push	 ebp
  00001	8b ec		 mov	 ebp, esp
  00003	51		 push	 ecx

; 1191 : 		iterator _First = _Make_iter(_First_arg);

  00004	8b 45 08	 mov	 eax, DWORD PTR ___$ReturnUdt$[ebp]
  00007	56		 push	 esi
  00008	8b f1		 mov	 esi, ecx
  0000a	8b 4d 0c	 mov	 ecx, DWORD PTR __First_arg$[ebp]
  0000d	89 08		 mov	 DWORD PTR [eax], ecx

; 1192 : 		iterator _Last = _Make_iter(_Last_arg);
; 1193 : 
; 1194 : 		if (_First != _Last)

  0000f	3b 4d 10	 cmp	 ecx, DWORD PTR __Last_arg$[ebp]
  00012	74 37		 je	 SHORT $LN1@erase@4

; 1195 : 			{	// worth doing, copy down over hole
; 1196 :  #if _ITERATOR_DEBUG_LEVEL == 2
; 1197 : 			if (_Last < _First || _VICONT(_First) != this
; 1198 : 				|| _VIPTR(_First) < this->_Myfirst
; 1199 : 				|| this->_Mylast < _VIPTR(_Last))
; 1200 : 				_DEBUG_ERROR("vector erase iterator outside range");
; 1201 : 			pointer _Ptr = _Move(_VIPTR(_Last), this->_Mylast,
; 1202 : 				_VIPTR(_First));
; 1203 : 			_Orphan_range(_VIPTR(_First), this->_Mylast);
; 1204 : 
; 1205 :  #else /* _ITERATOR_DEBUG_LEVEL == 2 */
; 1206 : 			pointer _Ptr = _Move(_VIPTR(_Last), this->_Mylast,
; 1207 : 				_VIPTR(_First));

  00014	8b 46 04	 mov	 eax, DWORD PTR [esi+4]
  00017	53		 push	 ebx
  00018	57		 push	 edi
  00019	ff 75 10	 push	 DWORD PTR __Cat$612823[ebp]
  0001c	51		 push	 ecx
  0001d	50		 push	 eax
  0001e	ff 75 10	 push	 DWORD PTR __Last_arg$[ebp]
  00021	e8 00 00 00 00	 call	 ??$_Move@PAUAttackAttribute@@PAU1@@std@@YAPAUAttackAttribute@@PAU1@00U_Nonscalar_ptr_iterator_tag@0@@Z ; std::_Move<AttackAttribute *,AttackAttribute *>

; 1208 :  #endif /* _ITERATOR_DEBUG_LEVEL == 2 */
; 1209 : 
; 1210 : 			_Destroy(_Ptr, this->_Mylast);

  00026	8b 7e 04	 mov	 edi, DWORD PTR [esi+4]
  00029	8b d8		 mov	 ebx, eax
  0002b	83 c4 10	 add	 esp, 16			; 00000010H
  0002e	89 5d fc	 mov	 DWORD PTR $T612879[ebp], ebx
  00031	3b df		 cmp	 ebx, edi
  00033	74 11		 je	 SHORT $LN36@erase@4
$LL52@erase@4:
  00035	8b 4d fc	 mov	 ecx, DWORD PTR $T612879[ebp]
  00038	e8 00 00 00 00	 call	 ??1AttackAttribute@@QAE@XZ
  0003d	83 45 fc 50	 add	 DWORD PTR $T612879[ebp], 80 ; 00000050H
  00041	39 7d fc	 cmp	 DWORD PTR $T612879[ebp], edi
  00044	75 ef		 jne	 SHORT $LL52@erase@4
$LN36@erase@4:

; 1211 : 			this->_Mylast = _Ptr;

  00046	5f		 pop	 edi
  00047	89 5e 04	 mov	 DWORD PTR [esi+4], ebx
  0004a	5b		 pop	 ebx
$LN1@erase@4:

; 1212 : 			}
; 1213 : 		return (_First);

  0004b	8b 45 08	 mov	 eax, DWORD PTR ___$ReturnUdt$[ebp]
  0004e	5e		 pop	 esi

; 1214 : 		}

  0004f	c9		 leave
  00050	c2 0c 00	 ret	 12			; 0000000cH
?erase@?$vector@UAttackAttribute@@V?$allocator@UAttackAttribute@@@std@@@std@@QAE?AV?$_Vector_iterator@V?$_Vector_val@UAttackAttribute@@V?$allocator@UAttackAttribute@@@std@@@std@@@2@V?$_Vector_const_iterator@V?$_Vector_val@UAttackAttribute@@V?$allocator@UAttackAttribute@@@std@@@std@@@2@0@Z ENDP ; std::vector<AttackAttribute,std::allocator<AttackAttribute> >::erase
_TEXT	ENDS
PUBLIC	?_Tidy@?$vector@UAttackAttribute@@V?$allocator@UAttackAttribute@@@std@@@std@@IAEXXZ ; std::vector<AttackAttribute,std::allocator<AttackAttribute> >::_Tidy
; Function compile flags: /Ogsp
;	COMDAT ?_Tidy@?$vector@UAttackAttribute@@V?$allocator@UAttackAttribute@@@std@@@std@@IAEXXZ
_TEXT	SEGMENT
?_Tidy@?$vector@UAttackAttribute@@V?$allocator@UAttackAttribute@@@std@@@std@@IAEXXZ PROC ; std::vector<AttackAttribute,std::allocator<AttackAttribute> >::_Tidy, COMDAT
; _this$ = ecx

; 1301 : 		{	// free all storage

  00000	56		 push	 esi
  00001	8b f1		 mov	 esi, ecx

; 1302 : 		if (this->_Myfirst != 0)

  00003	83 3e 00	 cmp	 DWORD PTR [esi], 0
  00006	74 27		 je	 SHORT $LN24@Tidy@4

; 1303 : 			{	// something to free, destroy and deallocate it
; 1304 : 			this->_Orphan_all();

  00008	53		 push	 ebx
  00009	57		 push	 edi
  0000a	ff 15 00 00 00
	00		 call	 DWORD PTR __imp_?_Orphan_all@_Container_base0@std@@QAEXXZ

; 1305 : 			_Destroy(this->_Myfirst, this->_Mylast);

  00010	8b 5e 04	 mov	 ebx, DWORD PTR [esi+4]
  00013	8b 3e		 mov	 edi, DWORD PTR [esi]
  00015	eb 0a		 jmp	 SHORT $LN28@Tidy@4
$LL12@Tidy@4:
  00017	8b cf		 mov	 ecx, edi
  00019	e8 00 00 00 00	 call	 ??1AttackAttribute@@QAE@XZ
  0001e	83 c7 50	 add	 edi, 80			; 00000050H
$LN28@Tidy@4:
  00021	3b fb		 cmp	 edi, ebx
  00023	75 f2		 jne	 SHORT $LL12@Tidy@4

; 1306 : 			this->_Alval.deallocate(this->_Myfirst,
; 1307 : 				this->_Myend - this->_Myfirst);

  00025	ff 36		 push	 DWORD PTR [esi]
  00027	e8 00 00 00 00	 call	 ??3@YAXPAX@Z		; operator delete
  0002c	59		 pop	 ecx
  0002d	5f		 pop	 edi
  0002e	5b		 pop	 ebx
$LN24@Tidy@4:

; 1308 : 			}
; 1309 : 		this->_Myfirst = 0;

  0002f	33 c0		 xor	 eax, eax
  00031	89 06		 mov	 DWORD PTR [esi], eax

; 1310 : 		this->_Mylast = 0;

  00033	89 46 04	 mov	 DWORD PTR [esi+4], eax

; 1311 : 		this->_Myend = 0;

  00036	89 46 08	 mov	 DWORD PTR [esi+8], eax
  00039	5e		 pop	 esi

; 1312 : 		}

  0003a	c3		 ret	 0
?_Tidy@?$vector@UAttackAttribute@@V?$allocator@UAttackAttribute@@@std@@@std@@IAEXXZ ENDP ; std::vector<AttackAttribute,std::allocator<AttackAttribute> >::_Tidy
_TEXT	ENDS
PUBLIC	??0?$vector@UAttackAttribute@@V?$allocator@UAttackAttribute@@@std@@@std@@QAE@ABV01@@Z ; std::vector<AttackAttribute,std::allocator<AttackAttribute> >::vector<AttackAttribute,std::allocator<AttackAttribute> >
;	COMDAT xdata$x
; File c:\program files (x86)\microsoft visual studio 10.0\vc\include\xutility
xdata$x	SEGMENT
__catchsym$??0?$vector@UAttackAttribute@@V?$allocator@UAttackAttribute@@@std@@@std@@QAE@ABV01@@Z$2 DD 040H
	DD	00H
	DD	00H
	DD	FLAT:__catch$??0?$vector@UAttackAttribute@@V?$allocator@UAttackAttribute@@@std@@@std@@QAE@ABV01@@Z$0
__unwindtable$??0?$vector@UAttackAttribute@@V?$allocator@UAttackAttribute@@@std@@@std@@QAE@ABV01@@Z DD 0ffffffffH
	DD	00H
	DD	0ffffffffH
	DD	00H
__tryblocktable$??0?$vector@UAttackAttribute@@V?$allocator@UAttackAttribute@@@std@@@std@@QAE@ABV01@@Z DD 00H
	DD	00H
	DD	01H
	DD	01H
	DD	FLAT:__catchsym$??0?$vector@UAttackAttribute@@V?$allocator@UAttackAttribute@@@std@@@std@@QAE@ABV01@@Z$2
__ehfuncinfo$??0?$vector@UAttackAttribute@@V?$allocator@UAttackAttribute@@@std@@@std@@QAE@ABV01@@Z DD 019930522H
	DD	02H
	DD	FLAT:__unwindtable$??0?$vector@UAttackAttribute@@V?$allocator@UAttackAttribute@@@std@@@std@@QAE@ABV01@@Z
	DD	01H
	DD	FLAT:__tryblocktable$??0?$vector@UAttackAttribute@@V?$allocator@UAttackAttribute@@@std@@@std@@QAE@ABV01@@Z
	DD	2 DUP(00H)
	DD	00H
	DD	01H
; Function compile flags: /Ogsp
; File c:\program files (x86)\microsoft visual studio 10.0\vc\include\vector
xdata$x	ENDS
;	COMDAT ??0?$vector@UAttackAttribute@@V?$allocator@UAttackAttribute@@@std@@@std@@QAE@ABV01@@Z
_TEXT	SEGMENT
_this$ = -20						; size = 4
__$EHRec$ = -16						; size = 16
__Cat$613111 = 8					; size = 1
__Right$ = 8						; size = 4
??0?$vector@UAttackAttribute@@V?$allocator@UAttackAttribute@@@std@@@std@@QAE@ABV01@@Z PROC ; std::vector<AttackAttribute,std::allocator<AttackAttribute> >::vector<AttackAttribute,std::allocator<AttackAttribute> >, COMDAT
; _this$ = ecx

; 535  : 		{	// construct by copying _Right

  00000	6a 08		 push	 8
  00002	b8 00 00 00 00	 mov	 eax, __ehhandler$??0?$vector@UAttackAttribute@@V?$allocator@UAttackAttribute@@@std@@@std@@QAE@ABV01@@Z
  00007	e8 00 00 00 00	 call	 __EH_prolog3_catch
  0000c	8b f1		 mov	 esi, ecx
  0000e	89 75 ec	 mov	 DWORD PTR _this$[ebp], esi

; 536  : 		if (_Buy(_Right.size()))

  00011	8b 7d 08	 mov	 edi, DWORD PTR __Right$[ebp]
  00014	33 db		 xor	 ebx, ebx
  00016	89 1e		 mov	 DWORD PTR [esi], ebx
  00018	89 5e 04	 mov	 DWORD PTR [esi+4], ebx
  0001b	89 5e 08	 mov	 DWORD PTR [esi+8], ebx
  0001e	8b 47 04	 mov	 eax, DWORD PTR [edi+4]
  00021	2b 07		 sub	 eax, DWORD PTR [edi]
  00023	6a 50		 push	 80			; 00000050H
  00025	59		 pop	 ecx
  00026	99		 cdq
  00027	f7 f9		 idiv	 ecx
  00029	8b ce		 mov	 ecx, esi
  0002b	50		 push	 eax
  0002c	e8 00 00 00 00	 call	 ?_Buy@?$vector@UAttackAttribute@@V?$allocator@UAttackAttribute@@@std@@@std@@IAE_NI@Z ; std::vector<AttackAttribute,std::allocator<AttackAttribute> >::_Buy
  00031	84 c0		 test	 al, al
  00033	74 1f		 je	 SHORT $LN7@vector@4

; 537  : 			_TRY_BEGIN
; 538  : 			this->_Mylast = _Ucopy(_Right.begin(), _Right.end(),
; 539  : 				this->_Myfirst);

  00035	ff 75 08	 push	 DWORD PTR __Cat$613111[ebp]
  00038	8b 0e		 mov	 ecx, DWORD PTR [esi]
  0003a	8b 47 04	 mov	 eax, DWORD PTR [edi+4]
  0003d	8b 3f		 mov	 edi, DWORD PTR [edi]
  0003f	8d 56 0c	 lea	 edx, DWORD PTR [esi+12]
  00042	52		 push	 edx
  00043	51		 push	 ecx
  00044	50		 push	 eax
  00045	57		 push	 edi
  00046	89 5d fc	 mov	 DWORD PTR __$EHRec$[ebp+12], ebx
  00049	e8 00 00 00 00	 call	 ??$_Uninit_copy@V?$_Vector_const_iterator@V?$_Vector_val@UAttackAttribute@@V?$allocator@UAttackAttribute@@@std@@@std@@@std@@PAUAttackAttribute@@V?$allocator@UAttackAttribute@@@2@@std@@YAPAUAttackAttribute@@V?$_Vector_const_iterator@V?$_Vector_val@UAttackAttribute@@V?$allocator@UAttackAttribute@@@std@@@std@@@0@0PAU1@AAV?$allocator@UAttackAttribute@@@0@U_Nonscalar_ptr_iterator_tag@0@@Z ; std::_Uninit_copy<std::_Vector_const_iterator<std::_Vector_val<AttackAttribute,std::allocator<AttackAttribute> > >,AttackAttribute *,std::allocator<AttackAttribute> >
  0004e	83 c4 14	 add	 esp, 20			; 00000014H
  00051	89 46 04	 mov	 DWORD PTR [esi+4], eax
$LN7@vector@4:

; 543  : 			_CATCH_END
; 544  : 		}

  00054	8b c6		 mov	 eax, esi
  00056	e8 00 00 00 00	 call	 __EH_epilog3
  0005b	c2 04 00	 ret	 4
__catch$??0?$vector@UAttackAttribute@@V?$allocator@UAttackAttribute@@@std@@@std@@QAE@ABV01@@Z$0:

; 540  : 			_CATCH_ALL
; 541  : 			_Tidy();

  0005e	8b 4d ec	 mov	 ecx, DWORD PTR _this$[ebp]
  00061	e8 00 00 00 00	 call	 ?_Tidy@?$vector@UAttackAttribute@@V?$allocator@UAttackAttribute@@@std@@@std@@IAEXXZ ; std::vector<AttackAttribute,std::allocator<AttackAttribute> >::_Tidy

; 542  : 			_RERAISE;

  00066	33 db		 xor	 ebx, ebx
  00068	53		 push	 ebx
  00069	53		 push	 ebx
  0006a	e8 00 00 00 00	 call	 __CxxThrowException@8
$LN38@vector@4:
$LN37@vector@4:
  0006f	cc		 int	 3
_TEXT	ENDS
;	COMDAT text$x
text$x	SEGMENT
__ehhandler$??0?$vector@UAttackAttribute@@V?$allocator@UAttackAttribute@@@std@@@std@@QAE@ABV01@@Z:
  00000	8b 54 24 08	 mov	 edx, DWORD PTR [esp+8]
  00004	8d 42 0c	 lea	 eax, DWORD PTR [edx+12]
  00007	8b 4a e8	 mov	 ecx, DWORD PTR [edx-24]
  0000a	33 c8		 xor	 ecx, eax
  0000c	e8 00 00 00 00	 call	 @__security_check_cookie@4
  00011	b8 00 00 00 00	 mov	 eax, OFFSET __ehfuncinfo$??0?$vector@UAttackAttribute@@V?$allocator@UAttackAttribute@@@std@@@std@@QAE@ABV01@@Z
  00016	e9 00 00 00 00	 jmp	 ___CxxFrameHandler3
text$x	ENDS
??0?$vector@UAttackAttribute@@V?$allocator@UAttackAttribute@@@std@@@std@@QAE@ABV01@@Z ENDP ; std::vector<AttackAttribute,std::allocator<AttackAttribute> >::vector<AttackAttribute,std::allocator<AttackAttribute> >
PUBLIC	?push_back@?$vector@UAttackAttribute@@V?$allocator@UAttackAttribute@@@std@@@std@@QAEXABUAttackAttribute@@@Z ; std::vector<AttackAttribute,std::allocator<AttackAttribute> >::push_back
; Function compile flags: /Ogsp
;	COMDAT ?push_back@?$vector@UAttackAttribute@@V?$allocator@UAttackAttribute@@@std@@@std@@QAEXABUAttackAttribute@@@Z
_TEXT	SEGMENT
__Val$ = 8						; size = 4
?push_back@?$vector@UAttackAttribute@@V?$allocator@UAttackAttribute@@@std@@@std@@QAEXABUAttackAttribute@@@Z PROC ; std::vector<AttackAttribute,std::allocator<AttackAttribute> >::push_back, COMDAT
; _this$ = ecx

; 976  : 		{	// insert element at end

  00000	55		 push	 ebp
  00001	8b ec		 mov	 ebp, esp
  00003	56		 push	 esi
  00004	8b f1		 mov	 esi, ecx

; 977  : 		if (_Inside(_STD addressof(_Val)))

  00006	8b 4e 04	 mov	 ecx, DWORD PTR [esi+4]
  00009	57		 push	 edi
  0000a	8b 7d 08	 mov	 edi, DWORD PTR __Val$[ebp]
  0000d	3b f9		 cmp	 edi, ecx
  0000f	73 37		 jae	 SHORT $LN4@push_back@2
  00011	8b 16		 mov	 edx, DWORD PTR [esi]
  00013	3b d7		 cmp	 edx, edi
  00015	77 31		 ja	 SHORT $LN4@push_back@2

; 978  : 			{	// push back an element
; 979  : 			size_type _Idx = _STD addressof(_Val) - this->_Myfirst;

  00017	8b c7		 mov	 eax, edi
  00019	2b c2		 sub	 eax, edx
  0001b	6a 50		 push	 80			; 00000050H
  0001d	99		 cdq
  0001e	5f		 pop	 edi
  0001f	f7 ff		 idiv	 edi
  00021	8b f8		 mov	 edi, eax

; 980  : 			if (this->_Mylast == this->_Myend)

  00023	3b 4e 08	 cmp	 ecx, DWORD PTR [esi+8]
  00026	75 09		 jne	 SHORT $LN3@push_back@2

; 981  : 				_Reserve(1);

  00028	6a 01		 push	 1
  0002a	8b ce		 mov	 ecx, esi
  0002c	e8 00 00 00 00	 call	 ?_Reserve@?$vector@UAttackAttribute@@V?$allocator@UAttackAttribute@@@std@@@std@@IAEXI@Z ; std::vector<AttackAttribute,std::allocator<AttackAttribute> >::_Reserve
$LN3@push_back@2:

; 982  : 			_Orphan_range(this->_Mylast, this->_Mylast);
; 983  : 			_Cons_val(this->_Alval,
; 984  : 				this->_Mylast,
; 985  : 				this->_Myfirst[_Idx]);

  00031	6b ff 50	 imul	 edi, 80			; 00000050H
  00034	03 3e		 add	 edi, DWORD PTR [esi]
  00036	8d 46 0c	 lea	 eax, DWORD PTR [esi+12]
  00039	57		 push	 edi
  0003a	ff 76 04	 push	 DWORD PTR [esi+4]
  0003d	50		 push	 eax
  0003e	e8 00 00 00 00	 call	 ??$_Cons_val@V?$allocator@UAttackAttribute@@@std@@UAttackAttribute@@AAU3@@std@@YAXAAV?$allocator@UAttackAttribute@@@0@PAUAttackAttribute@@AAU2@@Z ; std::_Cons_val<std::allocator<AttackAttribute>,AttackAttribute,AttackAttribute &>
  00043	83 c4 0c	 add	 esp, 12			; 0000000cH

; 986  : 			++this->_Mylast;
; 987  : 			}
; 988  : 		else

  00046	eb 19		 jmp	 SHORT $LN26@push_back@2
$LN4@push_back@2:

; 989  : 			{	// push back a non-element
; 990  : 			if (this->_Mylast == this->_Myend)

  00048	3b 4e 08	 cmp	 ecx, DWORD PTR [esi+8]
  0004b	75 09		 jne	 SHORT $LN1@push_back@2

; 991  : 				_Reserve(1);

  0004d	6a 01		 push	 1
  0004f	8b ce		 mov	 ecx, esi
  00051	e8 00 00 00 00	 call	 ?_Reserve@?$vector@UAttackAttribute@@V?$allocator@UAttackAttribute@@@std@@@std@@IAEXI@Z ; std::vector<AttackAttribute,std::allocator<AttackAttribute> >::_Reserve
$LN1@push_back@2:

; 992  : 			_Orphan_range(this->_Mylast, this->_Mylast);
; 993  : 			_Cons_val(this->_Alval,
; 994  : 				this->_Mylast,
; 995  : 				_Val);

  00056	57		 push	 edi
  00057	ff 76 04	 push	 DWORD PTR [esi+4]
  0005a	e8 00 00 00 00	 call	 ??$_Construct@UAttackAttribute@@ABU1@@std@@YAXPAUAttackAttribute@@ABU1@@Z ; std::_Construct<AttackAttribute,AttackAttribute const &>
  0005f	59		 pop	 ecx
  00060	59		 pop	 ecx
$LN26@push_back@2:

; 996  : 			++this->_Mylast;

  00061	83 46 04 50	 add	 DWORD PTR [esi+4], 80	; 00000050H
  00065	5f		 pop	 edi
  00066	5e		 pop	 esi

; 997  : 			}
; 998  : 		}

  00067	5d		 pop	 ebp
  00068	c2 04 00	 ret	 4
?push_back@?$vector@UAttackAttribute@@V?$allocator@UAttackAttribute@@@std@@@std@@QAEXABUAttackAttribute@@@Z ENDP ; std::vector<AttackAttribute,std::allocator<AttackAttribute> >::push_back
_TEXT	ENDS
PUBLIC	??1?$vector@UAttackAttribute@@V?$allocator@UAttackAttribute@@@std@@@std@@QAE@XZ ; std::vector<AttackAttribute,std::allocator<AttackAttribute> >::~vector<AttackAttribute,std::allocator<AttackAttribute> >
; Function compile flags: /Ogsp
;	COMDAT ??1?$vector@UAttackAttribute@@V?$allocator@UAttackAttribute@@@std@@@std@@QAE@XZ
_TEXT	SEGMENT
??1?$vector@UAttackAttribute@@V?$allocator@UAttackAttribute@@@std@@@std@@QAE@XZ PROC ; std::vector<AttackAttribute,std::allocator<AttackAttribute> >::~vector<AttackAttribute,std::allocator<AttackAttribute> >, COMDAT
; _this$ = ecx

; 705  : 		_Tidy();

  00000	e9 00 00 00 00	 jmp	 ?_Tidy@?$vector@UAttackAttribute@@V?$allocator@UAttackAttribute@@@std@@@std@@IAEXXZ ; std::vector<AttackAttribute,std::allocator<AttackAttribute> >::_Tidy
??1?$vector@UAttackAttribute@@V?$allocator@UAttackAttribute@@@std@@@std@@QAE@XZ ENDP ; std::vector<AttackAttribute,std::allocator<AttackAttribute> >::~vector<AttackAttribute,std::allocator<AttackAttribute> >
_TEXT	ENDS
PUBLIC	?clear@?$vector@UAttackAttribute@@V?$allocator@UAttackAttribute@@@std@@@std@@QAEXXZ ; std::vector<AttackAttribute,std::allocator<AttackAttribute> >::clear
; Function compile flags: /Ogsp
;	COMDAT ?clear@?$vector@UAttackAttribute@@V?$allocator@UAttackAttribute@@@std@@@std@@QAEXXZ
_TEXT	SEGMENT
$T613177 = -4						; size = 4
?clear@?$vector@UAttackAttribute@@V?$allocator@UAttackAttribute@@@std@@@std@@QAEXXZ PROC ; std::vector<AttackAttribute,std::allocator<AttackAttribute> >::clear, COMDAT
; _this$ = ecx

; 1217 : 		{	// erase all

  00000	55		 push	 ebp
  00001	8b ec		 mov	 ebp, esp
  00003	51		 push	 ecx

; 1218 : 		erase(begin(), end());

  00004	8b 41 04	 mov	 eax, DWORD PTR [ecx+4]
  00007	8b 11		 mov	 edx, DWORD PTR [ecx]
  00009	50		 push	 eax
  0000a	52		 push	 edx
  0000b	8d 45 fc	 lea	 eax, DWORD PTR $T613177[ebp]
  0000e	50		 push	 eax
  0000f	e8 00 00 00 00	 call	 ?erase@?$vector@UAttackAttribute@@V?$allocator@UAttackAttribute@@@std@@@std@@QAE?AV?$_Vector_iterator@V?$_Vector_val@UAttackAttribute@@V?$allocator@UAttackAttribute@@@std@@@std@@@2@V?$_Vector_const_iterator@V?$_Vector_val@UAttackAttribute@@V?$allocator@UAttackAttribute@@@std@@@std@@@2@0@Z ; std::vector<AttackAttribute,std::allocator<AttackAttribute> >::erase

; 1219 : 		}

  00014	c9		 leave
  00015	c3		 ret	 0
?clear@?$vector@UAttackAttribute@@V?$allocator@UAttackAttribute@@@std@@@std@@QAEXXZ ENDP ; std::vector<AttackAttribute,std::allocator<AttackAttribute> >::clear
_TEXT	ENDS
PUBLIC	??_7ioConsecutionItem@@6B@			; ioConsecutionItem::`vftable'
PUBLIC	??0ioConsecutionItem@@QAE@XZ			; ioConsecutionItem::ioConsecutionItem
PUBLIC	??_R4ioConsecutionItem@@6B@			; ioConsecutionItem::`RTTI Complete Object Locator'
PUBLIC	??_R0?AVioConsecutionItem@@@8			; ioConsecutionItem `RTTI Type Descriptor'
PUBLIC	??_R3ioConsecutionItem@@8			; ioConsecutionItem::`RTTI Class Hierarchy Descriptor'
PUBLIC	??_R2ioConsecutionItem@@8			; ioConsecutionItem::`RTTI Base Class Array'
PUBLIC	??_R1A@?0A@EA@ioConsecutionItem@@8		; ioConsecutionItem::`RTTI Base Class Descriptor at (0,-1,0,64)'
PUBLIC	??_R1A@?0A@EA@ioWeaponItem@@8			; ioWeaponItem::`RTTI Base Class Descriptor at (0,-1,0,64)'
PUBLIC	??_R0?AVioWeaponItem@@@8			; ioWeaponItem `RTTI Type Descriptor'
PUBLIC	??_R3ioWeaponItem@@8				; ioWeaponItem::`RTTI Class Hierarchy Descriptor'
PUBLIC	??_R2ioWeaponItem@@8				; ioWeaponItem::`RTTI Base Class Array'
PUBLIC	??_R1A@?0A@EA@ioAttackableItem@@8		; ioAttackableItem::`RTTI Base Class Descriptor at (0,-1,0,64)'
PUBLIC	??_R0?AVioAttackableItem@@@8			; ioAttackableItem `RTTI Type Descriptor'
PUBLIC	??_R3ioAttackableItem@@8			; ioAttackableItem::`RTTI Class Hierarchy Descriptor'
PUBLIC	??_R2ioAttackableItem@@8			; ioAttackableItem::`RTTI Base Class Array'
PUBLIC	??_R1A@?0A@EA@ioItem@@8				; ioItem::`RTTI Base Class Descriptor at (0,-1,0,64)'
PUBLIC	??_R0?AVioItem@@@8				; ioItem `RTTI Type Descriptor'
PUBLIC	??_R3ioItem@@8					; ioItem::`RTTI Class Hierarchy Descriptor'
PUBLIC	??_R2ioItem@@8					; ioItem::`RTTI Base Class Array'
PUBLIC	?LoadProperty@ioConsecutionItem@@UAEXAAVioINILoader@@@Z ; ioConsecutionItem::LoadProperty
PUBLIC	?Clone@ioConsecutionItem@@UAEPAVioItem@@XZ	; ioConsecutionItem::Clone
PUBLIC	?IsEnableExtraGauge@ioItem@@UAE_NPAVioBaseChar@@@Z ; ioItem::IsEnableExtraGauge
PUBLIC	?GetExtraGauge@ioItem@@UAEMXZ			; ioItem::GetExtraGauge
PUBLIC	?CheckOnHand@ioAttackableItem@@UAE_NXZ		; ioAttackableItem::CheckOnHand
PUBLIC	?CheckAimState@ioAttackableItem@@UAE_N_N@Z	; ioAttackableItem::CheckAimState
PUBLIC	?SetAimState@ioAttackableItem@@UAE_NPAVioBaseChar@@@Z ; ioAttackableItem::SetAimState
PUBLIC	?CheckExtendDefenseEnable@ioAttackableItem@@UAE_NPAVioBaseChar@@@Z ; ioAttackableItem::CheckExtendDefenseEnable
PUBLIC	?IsMoveAttackState@ioAttackableItem@@UAE_NPAVioBaseChar@@@Z ; ioAttackableItem::IsMoveAttackState
PUBLIC	?IsNoGhostWalk@ioAttackableItem@@UAE_NPAVioBaseChar@@@Z ; ioAttackableItem::IsNoGhostWalk
PUBLIC	?IsEnableItemDashCheck@ioAttackableItem@@UAE_NPAVioBaseChar@@_N@Z ; ioAttackableItem::IsEnableItemDashCheck
PUBLIC	?IsEnableAttackRotateCheck@ioAttackableItem@@UAE_NPAVioBaseChar@@@Z ; ioAttackableItem::IsEnableAttackRotateCheck
PUBLIC	?IsEnableChargeDefenseCheck@ioAttackableItem@@UAE_NXZ ; ioAttackableItem::IsEnableChargeDefenseCheck
PUBLIC	?IsUseDefenceCounterAttackEndDash@ioAttackableItem@@UAE_NXZ ; ioAttackableItem::IsUseDefenceCounterAttackEndDash
PUBLIC	?IsAutoTarget@ioAttackableItem@@UBE_NXZ		; ioAttackableItem::IsAutoTarget
PUBLIC	?IsWoundAfterUseExtendState@ioAttackableItem@@UAE_NXZ ; ioAttackableItem::IsWoundAfterUseExtendState
PUBLIC	?CheckWoundAfterUseExtendState@ioAttackableItem@@UAE_NPAVioBaseChar@@W4BlowTargetType@@@Z ; ioAttackableItem::CheckWoundAfterUseExtendState
PUBLIC	?IsCharSkipState@ioAttackableItem@@UAE_NPBVioBaseChar@@@Z ; ioAttackableItem::IsCharSkipState
EXTRN	??1ioWeaponItem@@UAE@XZ:PROC			; ioWeaponItem::~ioWeaponItem
EXTRN	??0ioWeaponItem@@QAE@XZ:PROC			; ioWeaponItem::ioWeaponItem
EXTRN	?FindFieldEntityGrp@ioItem@@MBEABVioHashString@@XZ:PROC ; ioItem::FindFieldEntityGrp
EXTRN	?GetType@ioWeaponItem@@UBE?AW4ItemType@ioItem@@XZ:PROC ; ioWeaponItem::GetType
EXTRN	?UseCreateIndexItem@ioItem@@UBE_NXZ:PROC	; ioItem::UseCreateIndexItem
EXTRN	?GetSetFocusColor@ioItem@@UBEKXZ:PROC		; ioItem::GetSetFocusColor
EXTRN	?Initialize@ioItem@@UAEXABVioHashString@@PAVioPlayStage@@@Z:PROC ; ioItem::Initialize
EXTRN	?InitializeBeforeEquip@ioItem@@UAEXABVioHashString@@PAVioPlayStage@@@Z:PROC ; ioItem::InitializeBeforeEquip
EXTRN	?OnEquiped@ioAttackableItem@@UAEXPAVioBaseChar@@@Z:PROC ; ioAttackableItem::OnEquiped
EXTRN	?SetExtendEquipEffect@ioItem@@UAEXPAVioBaseChar@@@Z:PROC ; ioItem::SetExtendEquipEffect
EXTRN	?ReleaseExtendEquipEffect@ioItem@@UAEXPAVioBaseChar@@@Z:PROC ; ioItem::ReleaseExtendEquipEffect
EXTRN	?AddGlowLine@ioWeaponItem@@UAEXPAVioBaseChar@@@Z:PROC ; ioWeaponItem::AddGlowLine
EXTRN	?RemoveGlowLine@ioWeaponItem@@UAEXPAVioBaseChar@@@Z:PROC ; ioWeaponItem::RemoveGlowLine
EXTRN	?GetTargetName@ioItem@@UAE?AVioHashString@@XZ:PROC ; ioItem::GetTargetName
EXTRN	?ClearTarget@ioItem@@UAEXXZ:PROC		; ioItem::ClearTarget
EXTRN	?SetItemType@ioWeaponItem@@UAEXXZ:PROC		; ioWeaponItem::SetItemType
EXTRN	?UpdateExtraData@ioItem@@UAEXPAVioBaseChar@@@Z:PROC ; ioItem::UpdateExtraData
EXTRN	?CheckWeaponDefenseState@ioItem@@UAEXPAVioBaseChar@@@Z:PROC ; ioItem::CheckWeaponDefenseState
EXTRN	?CheckWoundedState@ioItem@@UAEXPAVioBaseChar@@@Z:PROC ; ioItem::CheckWoundedState
EXTRN	?SetVisible@ioItem@@UAEXPAVioBaseChar@@_N@Z:PROC ; ioItem::SetVisible
EXTRN	?UpdateSkillGauge@ioItem@@UAEXPAVioBaseChar@@M_N@Z:PROC ; ioItem::UpdateSkillGauge
EXTRN	?ReduceNeedGauge@ioItem@@UAEXMPAVioBaseChar@@@Z:PROC ; ioItem::ReduceNeedGauge
EXTRN	?GetCurBullet@ioItem@@UAEHXZ:PROC		; ioItem::GetCurBullet
EXTRN	?GetMaxBullet@ioItem@@UAEHXZ:PROC		; ioItem::GetMaxBullet
EXTRN	?SetCurBullet@ioItem@@UAEXH@Z:PROC		; ioItem::SetCurBullet
EXTRN	?GetCurSecoundBullet@ioItem@@UAEHXZ:PROC	; ioItem::GetCurSecoundBullet
EXTRN	?GetMaxSecoundBullet@ioItem@@UAEHXZ:PROC	; ioItem::GetMaxSecoundBullet
EXTRN	?SetCurSecoundBullet@ioItem@@UAEXH@Z:PROC	; ioItem::SetCurSecoundBullet
EXTRN	?GetGrowthInfoNum@ioItem@@UBEHH@Z:PROC		; ioItem::GetGrowthInfoNum
EXTRN	?GetGrowthInfoNumByType@ioItem@@UBEHHAAH@Z:PROC	; ioItem::GetGrowthInfoNumByType
EXTRN	?ClearCurChargeRateForSkill@ioItem@@UAEXXZ:PROC	; ioItem::ClearCurChargeRateForSkill
EXTRN	?GetChargeDamageRateForSkill@ioItem@@UAEMXZ:PROC ; ioItem::GetChargeDamageRateForSkill
EXTRN	?GetChargeForceRateForSkill@ioItem@@UAEMXZ:PROC	; ioItem::GetChargeForceRateForSkill
EXTRN	?GetChargeBlowRateForSkill@ioItem@@UAEMXZ:PROC	; ioItem::GetChargeBlowRateForSkill
EXTRN	?GetChargeRangeRateForSkill@ioItem@@UAEMXZ:PROC	; ioItem::GetChargeRangeRateForSkill
EXTRN	?GetChargeSpeedRateForSkill@ioItem@@UAEMXZ:PROC	; ioItem::GetChargeSpeedRateForSkill
EXTRN	?GetChargeFloatRateForSkill@ioItem@@UAEMXZ:PROC	; ioItem::GetChargeFloatRateForSkill
EXTRN	?GetChargeScaleRateForSkill@ioItem@@UAEMXZ:PROC	; ioItem::GetChargeScaleRateForSkill
EXTRN	?GetChargeExplosionRateForSkill@ioItem@@UAEMXZ:PROC ; ioItem::GetChargeExplosionRateForSkill
EXTRN	?GetChargeWoundedTimeRateForSkill@ioItem@@UAEMXZ:PROC ; ioItem::GetChargeWoundedTimeRateForSkill
EXTRN	?SetCurEquipEffect@ioItem@@UAEX_N@Z:PROC	; ioItem::SetCurEquipEffect
EXTRN	?SetCostume@ioItem@@UAEXH_N@Z:PROC		; ioItem::SetCostume
EXTRN	??_EioConsecutionItem@@UAEPAXI@Z:PROC		; ioConsecutionItem::`vector deleting destructor'
EXTRN	?IsCanFire@ioAttackableItem@@UBE_NPBVioBaseChar@@H_N@Z:PROC ; ioAttackableItem::IsCanFire
EXTRN	?CallItemProcess@ioAttackableItem@@UAEXPAVioBaseChar@@@Z:PROC ; ioAttackableItem::CallItemProcess
EXTRN	?CheckChargeInfo@ioAttackableItem@@UAEXPAVioWeapon@@_N@Z:PROC ; ioAttackableItem::CheckChargeInfo
EXTRN	?SetExtendDefenseState@ioAttackableItem@@UAE_NPAVioBaseChar@@@Z:PROC ; ioAttackableItem::SetExtendDefenseState
EXTRN	?CheckExtendDefenseState@ioAttackableItem@@UAEXPAVioBaseChar@@@Z:PROC ; ioAttackableItem::CheckExtendDefenseState
EXTRN	?CheckDefenseMoveAniState@ioAttackableItem@@UAEXPAVioBaseChar@@@Z:PROC ; ioAttackableItem::CheckDefenseMoveAniState
EXTRN	?SetDodgeDefenseState@ioAttackableItem@@UAE_NPAVioBaseChar@@@Z:PROC ; ioAttackableItem::SetDodgeDefenseState
EXTRN	?CheckDodgeDefenseState@ioAttackableItem@@UAEXPAVioBaseChar@@@Z:PROC ; ioAttackableItem::CheckDodgeDefenseState
EXTRN	?ApplyDodgeDefenseState@ioAttackableItem@@UAEXPAVioBaseChar@@AAVSP2Packet@@@Z:PROC ; ioAttackableItem::ApplyDodgeDefenseState
EXTRN	?SetDefenseAttackState@ioAttackableItem@@UAE_NPAVioBaseChar@@@Z:PROC ; ioAttackableItem::SetDefenseAttackState
EXTRN	?CheckDefenseAttackState@ioAttackableItem@@UAEXPAVioBaseChar@@@Z:PROC ; ioAttackableItem::CheckDefenseAttackState
EXTRN	?ApplyDefenseAttackState@ioAttackableItem@@UAEXPAVioBaseChar@@AAVSP2Packet@@@Z:PROC ; ioAttackableItem::ApplyDefenseAttackState
EXTRN	?SetExtendDashState@ioAttackableItem@@UAE_NPAVioBaseChar@@@Z:PROC ; ioAttackableItem::SetExtendDashState
EXTRN	?CheckExtendDashState@ioAttackableItem@@UAEXPAVioBaseChar@@@Z:PROC ; ioAttackableItem::CheckExtendDashState
EXTRN	?CheckJumpAttack@ioAttackableItem@@UAEXPAVioBaseChar@@@Z:PROC ; ioAttackableItem::CheckJumpAttack
EXTRN	?SetJumpReloadState@ioAttackableItem@@UAE_NPAVioBaseChar@@@Z:PROC ; ioAttackableItem::SetJumpReloadState
EXTRN	?SetJumpReload@ioAttackableItem@@UAE_NPAVioBaseChar@@@Z:PROC ; ioAttackableItem::SetJumpReload
EXTRN	?CheckJumpReloadState@ioAttackableItem@@UAEXPAVioBaseChar@@@Z:PROC ; ioAttackableItem::CheckJumpReloadState
EXTRN	?CheckJumpReloadReserve@ioAttackableItem@@UAEXPAVioBaseChar@@@Z:PROC ; ioAttackableItem::CheckJumpReloadReserve
EXTRN	?ProcessJumpReloadState@ioAttackableItem@@UAEXPAVioBaseChar@@@Z:PROC ; ioAttackableItem::ProcessJumpReloadState
EXTRN	?ApplyJumpReload@ioAttackableItem@@UAEXPAVioBaseChar@@AAVSP2Packet@@@Z:PROC ; ioAttackableItem::ApplyJumpReload
EXTRN	?OnItemGaugeCancel@ioAttackableItem@@UAEXPAVioBaseChar@@AAVSP2Packet@@@Z:PROC ; ioAttackableItem::OnItemGaugeCancel
EXTRN	?OnEndExtendDefense@ioAttackableItem@@UAEXPAVioBaseChar@@@Z:PROC ; ioAttackableItem::OnEndExtendDefense
EXTRN	?OnEndNormalAttack@ioAttackableItem@@UAEXPAVioBaseChar@@@Z:PROC ; ioAttackableItem::OnEndNormalAttack
EXTRN	?OnEndExtendAttack@ioAttackableItem@@UAEXPAVioBaseChar@@_N@Z:PROC ; ioAttackableItem::OnEndExtendAttack
EXTRN	?OnEndExtendJump@ioAttackableItem@@UAEXPAVioBaseChar@@@Z:PROC ; ioAttackableItem::OnEndExtendJump
EXTRN	?FillNormalAttackExtraInfo@ioAttackableItem@@UAEXAAVSP2Packet@@@Z:PROC ; ioAttackableItem::FillNormalAttackExtraInfo
EXTRN	?ApplyNormalAttackExtraInfo@ioAttackableItem@@UAEXAAVSP2Packet@@@Z:PROC ; ioAttackableItem::ApplyNormalAttackExtraInfo
EXTRN	?CheckLanding@ioAttackableItem@@UAE_NPAVioBaseChar@@@Z:PROC ; ioAttackableItem::CheckLanding
EXTRN	?SetNoneState@ioAttackableItem@@UAEXPAVioBaseChar@@H@Z:PROC ; ioAttackableItem::SetNoneState
EXTRN	?IsCanUpdateGauge@ioAttackableItem@@UAE_NPAVioBaseChar@@@Z:PROC ; ioAttackableItem::IsCanUpdateGauge
EXTRN	?CheckAimJumpState@ioAttackableItem@@UAEXPAVioBaseChar@@@Z:PROC ; ioAttackableItem::CheckAimJumpState
EXTRN	?GetJumppingAnimation@ioAttackableItem@@UBEABVioHashString@@XZ:PROC ; ioAttackableItem::GetJumppingAnimation
EXTRN	?GetExtendJumppingAnimation@ioAttackableItem@@UBEABVioHashString@@XZ:PROC ; ioAttackableItem::GetExtendJumppingAnimation
EXTRN	?CheckRetreatState@ioAttackableItem@@UAEXPAVioBaseChar@@@Z:PROC ; ioAttackableItem::CheckRetreatState
EXTRN	?SetNextItemState@ioAttackableItem@@UAEXPAVioBaseChar@@0PAVioWeapon@@_NM@Z:PROC ; ioAttackableItem::SetNextItemState
EXTRN	?WeaponWounded@ioWeaponItem@@UAEXPAVioWeapon@@PAVioBaseChar@@@Z:PROC ; ioWeaponItem::WeaponWounded
EXTRN	?WeaponMapColDead@ioAttackableItem@@UAEXPAVioWeapon@@@Z:PROC ; ioAttackableItem::WeaponMapColDead
EXTRN	?SetDefenceCounterState@ioAttackableItem@@UAEXPAVioBaseChar@@@Z:PROC ; ioAttackableItem::SetDefenceCounterState
EXTRN	?IsUseDefenceCounterAttack@ioAttackableItem@@UAE_NXZ:PROC ; ioAttackableItem::IsUseDefenceCounterAttack
EXTRN	?ProcessDefenceCounterAttack@ioAttackableItem@@UAEXPAVioBaseChar@@@Z:PROC ; ioAttackableItem::ProcessDefenceCounterAttack
EXTRN	?ProcessExtraJump@ioAttackableItem@@UAEXPAVioBaseChar@@@Z:PROC ; ioAttackableItem::ProcessExtraJump
EXTRN	?SetEndGrappling@ioAttackableItem@@UAEXPAVioBaseChar@@@Z:PROC ; ioAttackableItem::SetEndGrappling
EXTRN	?ClearKeyReserve@ioAttackableItem@@MAEXXZ:PROC	; ioAttackableItem::ClearKeyReserve
EXTRN	?ProcessReserveKeyInput@ioAttackableItem@@MAEXPAVioBaseChar@@@Z:PROC ; ioAttackableItem::ProcessReserveKeyInput
EXTRN	?SetJumpState@ioAttackableItem@@UAEXXZ:PROC	; ioAttackableItem::SetJumpState
EXTRN	?SetJumpping@ioAttackableItem@@UAEXPAVioBaseChar@@_N@Z:PROC ; ioAttackableItem::SetJumpping
EXTRN	?ProcessJumpping@ioAttackableItem@@UAEXPAVioBaseChar@@M@Z:PROC ; ioAttackableItem::ProcessJumpping
EXTRN	?ProcessJumppingByNoNeedProcess@ioAttackableItem@@UAEXPAVioBaseChar@@M@Z:PROC ; ioAttackableItem::ProcessJumppingByNoNeedProcess
EXTRN	?ProcessLanding@ioAttackableItem@@UAEXPAVioBaseChar@@@Z:PROC ; ioAttackableItem::ProcessLanding
EXTRN	?ProcessAimJump@ioAttackableItem@@UAE_NPAVioBaseChar@@M@Z:PROC ; ioAttackableItem::ProcessAimJump
EXTRN	?ApplyJump@ioAttackableItem@@UAEXPAVioBaseChar@@AAVSP2Packet@@@Z:PROC ; ioAttackableItem::ApplyJump
EXTRN	?ApplyDash@ioAttackableItem@@UAEXPAVioBaseChar@@AAVSP2Packet@@@Z:PROC ; ioAttackableItem::ApplyDash
EXTRN	?ApplyCounterAttack@ioAttackableItem@@UAEXPAVioBaseChar@@AAVSP2Packet@@@Z:PROC ; ioAttackableItem::ApplyCounterAttack
EXTRN	?CheckComboJumpAttack@ioAttackableItem@@UAEXPAVioBaseChar@@@Z:PROC ; ioAttackableItem::CheckComboJumpAttack
EXTRN	?SetFlashJumpAttack@ioAttackableItem@@UAE_NPAVioBaseChar@@@Z:PROC ; ioAttackableItem::SetFlashJumpAttack
EXTRN	?SetComboFlashAttack@ioAttackableItem@@UAE_NPAVioBaseChar@@@Z:PROC ; ioAttackableItem::SetComboFlashAttack
EXTRN	?SetCollectJumpAttack@ioAttackableItem@@UAE_NPAVioBaseChar@@@Z:PROC ; ioAttackableItem::SetCollectJumpAttack
EXTRN	?SetPowerChargeJumpAttack@ioAttackableItem@@UAE_NPAVioBaseChar@@@Z:PROC ; ioAttackableItem::SetPowerChargeJumpAttack
EXTRN	?GetAttackSpeedRate@ioAttackableItem@@UBEMXZ:PROC ; ioAttackableItem::GetAttackSpeedRate
EXTRN	?GetExtraJumpSpeedRate@ioAttackableItem@@UBEMABUD3DXVECTOR3@@ABUD3DXQUATERNION@@@Z:PROC ; ioAttackableItem::GetExtraJumpSpeedRate
EXTRN	?IsEnableExtendJump@ioAttackableItem@@UAE_NXZ:PROC ; ioAttackableItem::IsEnableExtendJump
EXTRN	?RecevieExtendJumpUse@ioAttackableItem@@UAEXPAVioBaseChar@@@Z:PROC ; ioAttackableItem::RecevieExtendJumpUse
EXTRN	?HasAniFile@ioAttackableItem@@UBE_NW4AttackType@@H@Z:PROC ; ioAttackableItem::HasAniFile
EXTRN	?HasEndAniFile@ioAttackableItem@@UBE_NW4AttackType@@H@Z:PROC ; ioAttackableItem::HasEndAniFile
EXTRN	?GetAttackAttribute@ioAttackableItem@@UBEPBUAttackAttribute@@W4AttackType@@H@Z:PROC ; ioAttackableItem::GetAttackAttribute
EXTRN	?GetAniFile@ioAttackableItem@@UBEABVioHashString@@W4AttackType@@H@Z:PROC ; ioAttackableItem::GetAniFile
EXTRN	?GetAttackAniRate@ioAttackableItem@@UBEMW4AttackType@@H@Z:PROC ; ioAttackableItem::GetAttackAniRate
EXTRN	?GetEndAniFile@ioAttackableItem@@UBEABVioHashString@@W4AttackType@@H@Z:PROC ; ioAttackableItem::GetEndAniFile
EXTRN	?GetAttackEndAniRate@ioAttackableItem@@UBEMW4AttackType@@H@Z:PROC ; ioAttackableItem::GetAttackEndAniRate
EXTRN	?GetAttackAttributeIdx@ioAttackableItem@@UBEABV?$vector@UWeaponInfo@@V?$allocator@UWeaponInfo@@@std@@@std@@W4AttackType@@H@Z:PROC ; ioAttackableItem::GetAttackAttributeIdx
EXTRN	?GetForceInfoList@ioAttackableItem@@UBEABV?$vector@UForceInfo@@V?$allocator@UForceInfo@@@std@@@std@@W4AttackType@@H@Z:PROC ; ioAttackableItem::GetForceInfoList
EXTRN	?GetAttackPreDelay@ioAttackableItem@@UBEKW4AttackType@@H@Z:PROC ; ioAttackableItem::GetAttackPreDelay
EXTRN	?GetAttackAnimationDelay@ioAttackableItem@@UBEKW4AttackType@@H@Z:PROC ; ioAttackableItem::GetAttackAnimationDelay
EXTRN	?GetMaxCombo@ioAttackableItem@@UBEHXZ:PROC	; ioAttackableItem::GetMaxCombo
EXTRN	?GetExtraDashAttackMax@ioAttackableItem@@UBEHXZ:PROC ; ioAttackableItem::GetExtraDashAttackMax
EXTRN	?HasJumpEndAnimation@ioAttackableItem@@UBE_N_NPAVioBaseChar@@@Z:PROC ; ioAttackableItem::HasJumpEndAnimation
EXTRN	?GetJumpEndAnimation@ioAttackableItem@@UBEABVioHashString@@_NPAVioBaseChar@@@Z:PROC ; ioAttackableItem::GetJumpEndAnimation
EXTRN	?ClearCancelInfo@ioAttackableItem@@MAEXXZ:PROC	; ioAttackableItem::ClearCancelInfo
EXTRN	?CheckCancelReserve@ioAttackableItem@@MAEXPAVioBaseChar@@@Z:PROC ; ioAttackableItem::CheckCancelReserve
EXTRN	?SetCurAttackAniForInputJump@ioAttackableItem@@MAEXABVioHashString@@M@Z:PROC ; ioAttackableItem::SetCurAttackAniForInputJump
EXTRN	?ProcessCancelBySpeicalDash@ioAttackableItem@@MAE_NPAVioBaseChar@@@Z:PROC ; ioAttackableItem::ProcessCancelBySpeicalDash
EXTRN	?SetCurAttackAniForInputDashS@ioAttackableItem@@UAEXABVioHashString@@M@Z:PROC ; ioAttackableItem::SetCurAttackAniForInputDashS
EXTRN	?CheckCancelReserveByConditionalSpecialDash@ioAttackableItem@@UAEXPAVioBaseChar@@@Z:PROC ; ioAttackableItem::CheckCancelReserveByConditionalSpecialDash
EXTRN	?IsConditionalSpecialDashReserve@ioAttackableItem@@UAE_NPAVioBaseChar@@@Z:PROC ; ioAttackableItem::IsConditionalSpecialDashReserve
EXTRN	?SetChangeConditionalSpecialDash@ioAttackableItem@@UAEXPAVioBaseChar@@W4DirKeyInput@ioUserKeyInput@@H@Z:PROC ; ioAttackableItem::SetChangeConditionalSpecialDash
EXTRN	?CheckChangeWereWolfState@ioAttackableItem@@UAE_NPAVioBaseChar@@@Z:PROC ; ioAttackableItem::CheckChangeWereWolfState
EXTRN	?SetChangeWereWolfState@ioAttackableItem@@UAEXPAVioBaseChar@@@Z:PROC ; ioAttackableItem::SetChangeWereWolfState
EXTRN	?CheckReleaseWereWolfState@ioAttackableItem@@UAE_NPAVioBaseChar@@@Z:PROC ; ioAttackableItem::CheckReleaseWereWolfState
EXTRN	?ReleseWereWolfState@ioAttackableItem@@UAEXPAVioBaseChar@@@Z:PROC ; ioAttackableItem::ReleseWereWolfState
EXTRN	?ReleseWereWolfStateByOwner@ioAttackableItem@@UAEXPAVioBaseChar@@@Z:PROC ; ioAttackableItem::ReleseWereWolfStateByOwner
EXTRN	?IncreaseChangeDamage@ioAttackableItem@@UAEXMH_N@Z:PROC ; ioAttackableItem::IncreaseChangeDamage
EXTRN	?IncreaseChangeDamageByWeapon@ioAttackableItem@@UAEXM@Z:PROC ; ioAttackableItem::IncreaseChangeDamageByWeapon
EXTRN	?CheckIncreaseChangeDamage@ioAttackableItem@@UAEXPAVioBaseChar@@@Z:PROC ; ioAttackableItem::CheckIncreaseChangeDamage
EXTRN	?DecreaseChangeDamage@ioAttackableItem@@UAEXPAVioBaseChar@@@Z:PROC ; ioAttackableItem::DecreaseChangeDamage
EXTRN	?IsEnableActionStopDelay@ioAttackableItem@@UAE_NXZ:PROC ; ioAttackableItem::IsEnableActionStopDelay
EXTRN	?SetExtraGaugeTypeByWeapon@ioAttackableItem@@UAEXPAVioBaseChar@@HHM@Z:PROC ; ioAttackableItem::SetExtraGaugeTypeByWeapon
EXTRN	?SetUseExtraGauge@ioAttackableItem@@UAEXM@Z:PROC ; ioAttackableItem::SetUseExtraGauge
EXTRN	?InitExtraGauge@ioAttackableItem@@UAEXXZ:PROC	; ioAttackableItem::InitExtraGauge
EXTRN	?MaxExtraGauge@ioAttackableItem@@UAEXXZ:PROC	; ioAttackableItem::MaxExtraGauge
EXTRN	?GetMaxExtraGauge@ioAttackableItem@@UAEMXZ:PROC	; ioAttackableItem::GetMaxExtraGauge
EXTRN	?GetCurExtraGauge@ioAttackableItem@@UAEMXZ:PROC	; ioAttackableItem::GetCurExtraGauge
EXTRN	?SetCurExtraGauge@ioAttackableItem@@UAEXM@Z:PROC ; ioAttackableItem::SetCurExtraGauge
EXTRN	?GetAutoTargetValue@ioAttackableItem@@UAEXPAVioBaseChar@@AAM11W4AutoTargetType@@@Z:PROC ; ioAttackableItem::GetAutoTargetValue
EXTRN	?ClearAirJump@ioAttackableItem@@UAEXXZ:PROC	; ioAttackableItem::ClearAirJump
EXTRN	?SetAirJump@ioAttackableItem@@UAEXPAVioBaseChar@@HM@Z:PROC ; ioAttackableItem::SetAirJump
EXTRN	?CheckAirJump@ioAttackableItem@@UAEXPAVioBaseChar@@@Z:PROC ; ioAttackableItem::CheckAirJump
EXTRN	?EquipObjectItemByAttakable@ioAttackableItem@@UAEXPAVioBaseChar@@PAVioItem@@@Z:PROC ; ioAttackableItem::EquipObjectItemByAttakable
EXTRN	?ReleaseObjectItemByAttack@ioAttackableItem@@UAEXPAVioBaseChar@@PAVioItem@@@Z:PROC ; ioAttackableItem::ReleaseObjectItemByAttack
EXTRN	?IsBuffFlyChange@ioAttackableItem@@UAE_NPAVioBaseChar@@@Z:PROC ; ioAttackableItem::IsBuffFlyChange
EXTRN	?GetAttackStateText@ioAttackableItem@@UBEPBDXZ:PROC ; ioAttackableItem::GetAttackStateText
EXTRN	?SetJumpLandingExtraState@ioAttackableItem@@UAE_NPAVioBaseChar@@@Z:PROC ; ioAttackableItem::SetJumpLandingExtraState
EXTRN	?ReleaseObjectState@ioWeaponItem@@UAEXPAVioBaseChar@@PAVioObjectItem@@@Z:PROC ; ioWeaponItem::ReleaseObjectState
EXTRN	?IsCmdCheckEnableTime@ioWeaponItem@@UAE_NXZ:PROC ; ioWeaponItem::IsCmdCheckEnableTime
EXTRN	?IsCmdSuccess@ioWeaponItem@@UAE_NXZ:PROC	; ioWeaponItem::IsCmdSuccess
EXTRN	?IsOneTimeWeaponItem@ioWeaponItem@@UBE_NXZ:PROC	; ioWeaponItem::IsOneTimeWeaponItem
EXTRN	?GetEquipMesh@ioWeaponItem@@UBEABVioHashString@@PAVioBaseChar@@@Z:PROC ; ioWeaponItem::GetEquipMesh
EXTRN	?IsCanSendControl@ioWeaponItem@@UBE_NXZ:PROC	; ioWeaponItem::IsCanSendControl
;	COMDAT ??_R2ioItem@@8
; File d:\lost saga for developer\youtube\tutorial\source\src\lsclient\encryptvalue.h
rdata$r	SEGMENT
??_R2ioItem@@8 DD FLAT:??_R1A@?0A@EA@ioItem@@8		; ioItem::`RTTI Base Class Array'
rdata$r	ENDS
;	COMDAT ??_R3ioItem@@8
rdata$r	SEGMENT
??_R3ioItem@@8 DD 00H					; ioItem::`RTTI Class Hierarchy Descriptor'
	DD	00H
	DD	01H
	DD	FLAT:??_R2ioItem@@8
rdata$r	ENDS
;	COMDAT ??_R0?AVioItem@@@8
_DATA	SEGMENT
??_R0?AVioItem@@@8 DD FLAT:??_7type_info@@6B@		; ioItem `RTTI Type Descriptor'
	DD	00H
	DB	'.?AVioItem@@', 00H
_DATA	ENDS
;	COMDAT ??_R1A@?0A@EA@ioItem@@8
rdata$r	SEGMENT
??_R1A@?0A@EA@ioItem@@8 DD FLAT:??_R0?AVioItem@@@8	; ioItem::`RTTI Base Class Descriptor at (0,-1,0,64)'
	DD	00H
	DD	00H
	DD	0ffffffffH
	DD	00H
	DD	040H
	DD	FLAT:??_R3ioItem@@8
rdata$r	ENDS
;	COMDAT ??_R2ioAttackableItem@@8
rdata$r	SEGMENT
??_R2ioAttackableItem@@8 DD FLAT:??_R1A@?0A@EA@ioAttackableItem@@8 ; ioAttackableItem::`RTTI Base Class Array'
	DD	FLAT:??_R1A@?0A@EA@ioItem@@8
rdata$r	ENDS
;	COMDAT ??_R3ioAttackableItem@@8
rdata$r	SEGMENT
??_R3ioAttackableItem@@8 DD 00H				; ioAttackableItem::`RTTI Class Hierarchy Descriptor'
	DD	00H
	DD	02H
	DD	FLAT:??_R2ioAttackableItem@@8
rdata$r	ENDS
;	COMDAT ??_R0?AVioAttackableItem@@@8
_DATA	SEGMENT
??_R0?AVioAttackableItem@@@8 DD FLAT:??_7type_info@@6B@	; ioAttackableItem `RTTI Type Descriptor'
	DD	00H
	DB	'.?AVioAttackableItem@@', 00H
_DATA	ENDS
;	COMDAT ??_R1A@?0A@EA@ioAttackableItem@@8
rdata$r	SEGMENT
??_R1A@?0A@EA@ioAttackableItem@@8 DD FLAT:??_R0?AVioAttackableItem@@@8 ; ioAttackableItem::`RTTI Base Class Descriptor at (0,-1,0,64)'
	DD	01H
	DD	00H
	DD	0ffffffffH
	DD	00H
	DD	040H
	DD	FLAT:??_R3ioAttackableItem@@8
rdata$r	ENDS
;	COMDAT ??_R2ioWeaponItem@@8
rdata$r	SEGMENT
??_R2ioWeaponItem@@8 DD FLAT:??_R1A@?0A@EA@ioWeaponItem@@8 ; ioWeaponItem::`RTTI Base Class Array'
	DD	FLAT:??_R1A@?0A@EA@ioAttackableItem@@8
	DD	FLAT:??_R1A@?0A@EA@ioItem@@8
rdata$r	ENDS
;	COMDAT ??_R3ioWeaponItem@@8
rdata$r	SEGMENT
??_R3ioWeaponItem@@8 DD 00H				; ioWeaponItem::`RTTI Class Hierarchy Descriptor'
	DD	00H
	DD	03H
	DD	FLAT:??_R2ioWeaponItem@@8
rdata$r	ENDS
;	COMDAT ??_R0?AVioWeaponItem@@@8
_DATA	SEGMENT
??_R0?AVioWeaponItem@@@8 DD FLAT:??_7type_info@@6B@	; ioWeaponItem `RTTI Type Descriptor'
	DD	00H
	DB	'.?AVioWeaponItem@@', 00H
_DATA	ENDS
;	COMDAT ??_R1A@?0A@EA@ioWeaponItem@@8
rdata$r	SEGMENT
??_R1A@?0A@EA@ioWeaponItem@@8 DD FLAT:??_R0?AVioWeaponItem@@@8 ; ioWeaponItem::`RTTI Base Class Descriptor at (0,-1,0,64)'
	DD	02H
	DD	00H
	DD	0ffffffffH
	DD	00H
	DD	040H
	DD	FLAT:??_R3ioWeaponItem@@8
rdata$r	ENDS
;	COMDAT ??_R1A@?0A@EA@ioConsecutionItem@@8
rdata$r	SEGMENT
??_R1A@?0A@EA@ioConsecutionItem@@8 DD FLAT:??_R0?AVioConsecutionItem@@@8 ; ioConsecutionItem::`RTTI Base Class Descriptor at (0,-1,0,64)'
	DD	03H
	DD	00H
	DD	0ffffffffH
	DD	00H
	DD	040H
	DD	FLAT:??_R3ioConsecutionItem@@8
rdata$r	ENDS
;	COMDAT ??_R2ioConsecutionItem@@8
rdata$r	SEGMENT
??_R2ioConsecutionItem@@8 DD FLAT:??_R1A@?0A@EA@ioConsecutionItem@@8 ; ioConsecutionItem::`RTTI Base Class Array'
	DD	FLAT:??_R1A@?0A@EA@ioWeaponItem@@8
	DD	FLAT:??_R1A@?0A@EA@ioAttackableItem@@8
	DD	FLAT:??_R1A@?0A@EA@ioItem@@8
rdata$r	ENDS
;	COMDAT ??_R3ioConsecutionItem@@8
rdata$r	SEGMENT
??_R3ioConsecutionItem@@8 DD 00H			; ioConsecutionItem::`RTTI Class Hierarchy Descriptor'
	DD	00H
	DD	04H
	DD	FLAT:??_R2ioConsecutionItem@@8
rdata$r	ENDS
;	COMDAT ??_R0?AVioConsecutionItem@@@8
_DATA	SEGMENT
??_R0?AVioConsecutionItem@@@8 DD FLAT:??_7type_info@@6B@ ; ioConsecutionItem `RTTI Type Descriptor'
	DD	00H
	DB	'.?AVioConsecutionItem@@', 00H
_DATA	ENDS
;	COMDAT ??_R4ioConsecutionItem@@6B@
rdata$r	SEGMENT
??_R4ioConsecutionItem@@6B@ DD 00H			; ioConsecutionItem::`RTTI Complete Object Locator'
	DD	00H
	DD	00H
	DD	FLAT:??_R0?AVioConsecutionItem@@@8
	DD	FLAT:??_R3ioConsecutionItem@@8
rdata$r	ENDS
;	COMDAT ??_7ioConsecutionItem@@6B@
CONST	SEGMENT
??_7ioConsecutionItem@@6B@ DD FLAT:??_R4ioConsecutionItem@@6B@ ; ioConsecutionItem::`vftable'
	DD	FLAT:?FindFieldEntityGrp@ioItem@@MBEABVioHashString@@XZ
	DD	FLAT:?LoadProperty@ioConsecutionItem@@UAEXAAVioINILoader@@@Z
	DD	FLAT:?GetType@ioWeaponItem@@UBE?AW4ItemType@ioItem@@XZ
	DD	FLAT:?Clone@ioConsecutionItem@@UAEPAVioItem@@XZ
	DD	FLAT:?UseCreateIndexItem@ioItem@@UBE_NXZ
	DD	FLAT:?GetSetFocusColor@ioItem@@UBEKXZ
	DD	FLAT:?Initialize@ioItem@@UAEXABVioHashString@@PAVioPlayStage@@@Z
	DD	FLAT:?InitializeBeforeEquip@ioItem@@UAEXABVioHashString@@PAVioPlayStage@@@Z
	DD	FLAT:?OnEquiped@ioAttackableItem@@UAEXPAVioBaseChar@@@Z
	DD	FLAT:?OnReleased@ioConsecutionItem@@UAEXPAVioBaseChar@@@Z
	DD	FLAT:?SetExtendEquipEffect@ioItem@@UAEXPAVioBaseChar@@@Z
	DD	FLAT:?ReleaseExtendEquipEffect@ioItem@@UAEXPAVioBaseChar@@@Z
	DD	FLAT:?AddGlowLine@ioWeaponItem@@UAEXPAVioBaseChar@@@Z
	DD	FLAT:?RemoveGlowLine@ioWeaponItem@@UAEXPAVioBaseChar@@@Z
	DD	FLAT:?GetTargetName@ioItem@@UAE?AVioHashString@@XZ
	DD	FLAT:?ClearTarget@ioItem@@UAEXXZ
	DD	FLAT:?SetItemType@ioWeaponItem@@UAEXXZ
	DD	FLAT:?UpdateExtraData@ioItem@@UAEXPAVioBaseChar@@@Z
	DD	FLAT:?CheckWeaponDefenseState@ioItem@@UAEXPAVioBaseChar@@@Z
	DD	FLAT:?CheckWoundedState@ioItem@@UAEXPAVioBaseChar@@@Z
	DD	FLAT:?SetVisible@ioItem@@UAEXPAVioBaseChar@@_N@Z
	DD	FLAT:?UpdateSkillGauge@ioItem@@UAEXPAVioBaseChar@@M_N@Z
	DD	FLAT:?IsEnableExtraGauge@ioItem@@UAE_NPAVioBaseChar@@@Z
	DD	FLAT:?GetExtraGauge@ioItem@@UAEMXZ
	DD	FLAT:?ReduceNeedGauge@ioItem@@UAEXMPAVioBaseChar@@@Z
	DD	FLAT:?GetCurBullet@ioItem@@UAEHXZ
	DD	FLAT:?GetMaxBullet@ioItem@@UAEHXZ
	DD	FLAT:?SetCurBullet@ioItem@@UAEXH@Z
	DD	FLAT:?GetCurSecoundBullet@ioItem@@UAEHXZ
	DD	FLAT:?GetMaxSecoundBullet@ioItem@@UAEHXZ
	DD	FLAT:?SetCurSecoundBullet@ioItem@@UAEXH@Z
	DD	FLAT:?GetGrowthInfoNum@ioItem@@UBEHH@Z
	DD	FLAT:?GetGrowthInfoNumByType@ioItem@@UBEHHAAH@Z
	DD	FLAT:?ClearCurChargeRateForSkill@ioItem@@UAEXXZ
	DD	FLAT:?GetChargeDamageRateForSkill@ioItem@@UAEMXZ
	DD	FLAT:?GetChargeForceRateForSkill@ioItem@@UAEMXZ
	DD	FLAT:?GetChargeBlowRateForSkill@ioItem@@UAEMXZ
	DD	FLAT:?GetChargeRangeRateForSkill@ioItem@@UAEMXZ
	DD	FLAT:?GetChargeSpeedRateForSkill@ioItem@@UAEMXZ
	DD	FLAT:?GetChargeFloatRateForSkill@ioItem@@UAEMXZ
	DD	FLAT:?GetChargeScaleRateForSkill@ioItem@@UAEMXZ
	DD	FLAT:?GetChargeExplosionRateForSkill@ioItem@@UAEMXZ
	DD	FLAT:?GetChargeWoundedTimeRateForSkill@ioItem@@UAEMXZ
	DD	FLAT:?SetCurEquipEffect@ioItem@@UAEX_N@Z
	DD	FLAT:?SetCostume@ioItem@@UAEXH_N@Z
	DD	FLAT:??_EioConsecutionItem@@UAEPAXI@Z
	DD	FLAT:?IsCanFire@ioAttackableItem@@UBE_NPBVioBaseChar@@H_N@Z
	DD	FLAT:?CallItemProcess@ioAttackableItem@@UAEXPAVioBaseChar@@@Z
	DD	FLAT:?SetExtraInfoToWeapon@ioConsecutionItem@@UAEXPAVioWeapon@@_N@Z
	DD	FLAT:?CheckChargeInfo@ioAttackableItem@@UAEXPAVioWeapon@@_N@Z
	DD	FLAT:?SetExtendDefenseState@ioAttackableItem@@UAE_NPAVioBaseChar@@@Z
	DD	FLAT:?CheckExtendDefenseState@ioAttackableItem@@UAEXPAVioBaseChar@@@Z
	DD	FLAT:?CheckDefenseMoveAniState@ioAttackableItem@@UAEXPAVioBaseChar@@@Z
	DD	FLAT:?SetDodgeDefenseState@ioAttackableItem@@UAE_NPAVioBaseChar@@@Z
	DD	FLAT:?CheckDodgeDefenseState@ioAttackableItem@@UAEXPAVioBaseChar@@@Z
	DD	FLAT:?ApplyDodgeDefenseState@ioAttackableItem@@UAEXPAVioBaseChar@@AAVSP2Packet@@@Z
	DD	FLAT:?SetDefenseAttackState@ioAttackableItem@@UAE_NPAVioBaseChar@@@Z
	DD	FLAT:?CheckDefenseAttackState@ioAttackableItem@@UAEXPAVioBaseChar@@@Z
	DD	FLAT:?ApplyDefenseAttackState@ioAttackableItem@@UAEXPAVioBaseChar@@AAVSP2Packet@@@Z
	DD	FLAT:?SetExtendDashState@ioAttackableItem@@UAE_NPAVioBaseChar@@@Z
	DD	FLAT:?CheckExtendDashState@ioAttackableItem@@UAEXPAVioBaseChar@@@Z
	DD	FLAT:?SetNormalAttack@ioConsecutionItem@@UAEXPAVioBaseChar@@H@Z
	DD	FLAT:?CheckNormalAttack@ioConsecutionItem@@UAEXPAVioBaseChar@@@Z
	DD	FLAT:?SetJumpAttack@ioConsecutionItem@@UAE_NPAVioBaseChar@@HMW4AttackType@@@Z
	DD	FLAT:?CheckJumpAttack@ioAttackableItem@@UAEXPAVioBaseChar@@@Z
	DD	FLAT:?SetJumpReloadState@ioAttackableItem@@UAE_NPAVioBaseChar@@@Z
	DD	FLAT:?SetJumpReload@ioAttackableItem@@UAE_NPAVioBaseChar@@@Z
	DD	FLAT:?CheckJumpReloadState@ioAttackableItem@@UAEXPAVioBaseChar@@@Z
	DD	FLAT:?CheckJumpReloadReserve@ioAttackableItem@@UAEXPAVioBaseChar@@@Z
	DD	FLAT:?ProcessJumpReloadState@ioAttackableItem@@UAEXPAVioBaseChar@@@Z
	DD	FLAT:?ApplyJumpReload@ioAttackableItem@@UAEXPAVioBaseChar@@AAVSP2Packet@@@Z
	DD	FLAT:?OnItemGaugeOK@ioConsecutionItem@@UAEXPAVioBaseChar@@AAVSP2Packet@@@Z
	DD	FLAT:?OnItemGaugeCancel@ioAttackableItem@@UAEXPAVioBaseChar@@AAVSP2Packet@@@Z
	DD	FLAT:?OnEndExtendDefense@ioAttackableItem@@UAEXPAVioBaseChar@@@Z
	DD	FLAT:?OnEndNormalAttack@ioAttackableItem@@UAEXPAVioBaseChar@@@Z
	DD	FLAT:?OnEndExtendAttack@ioAttackableItem@@UAEXPAVioBaseChar@@_N@Z
	DD	FLAT:?OnEndExtendJump@ioAttackableItem@@UAEXPAVioBaseChar@@@Z
	DD	FLAT:?FillNormalAttackExtraInfo@ioAttackableItem@@UAEXAAVSP2Packet@@@Z
	DD	FLAT:?ApplyNormalAttackExtraInfo@ioAttackableItem@@UAEXAAVSP2Packet@@@Z
	DD	FLAT:?CheckOnHand@ioAttackableItem@@UAE_NXZ
	DD	FLAT:?CheckAimState@ioAttackableItem@@UAE_N_N@Z
	DD	FLAT:?SetAimState@ioAttackableItem@@UAE_NPAVioBaseChar@@@Z
	DD	FLAT:?CheckLanding@ioAttackableItem@@UAE_NPAVioBaseChar@@@Z
	DD	FLAT:?SetNoneState@ioAttackableItem@@UAEXPAVioBaseChar@@H@Z
	DD	FLAT:?CheckExtendDefenseEnable@ioAttackableItem@@UAE_NPAVioBaseChar@@@Z
	DD	FLAT:?IsChargeAttackState@ioConsecutionItem@@UAE_NPAVioBaseChar@@@Z
	DD	FLAT:?IsMoveAttackState@ioAttackableItem@@UAE_NPAVioBaseChar@@@Z
	DD	FLAT:?IsCanUpdateGauge@ioAttackableItem@@UAE_NPAVioBaseChar@@@Z
	DD	FLAT:?IsNoGhostWalk@ioAttackableItem@@UAE_NPAVioBaseChar@@@Z
	DD	FLAT:?IsEnableAttackDashCheck@ioConsecutionItem@@UAE_NPAVioBaseChar@@_N@Z
	DD	FLAT:?IsEnableItemDashCheck@ioAttackableItem@@UAE_NPAVioBaseChar@@_N@Z
	DD	FLAT:?IsEnableAttackRotateCheck@ioAttackableItem@@UAE_NPAVioBaseChar@@@Z
	DD	FLAT:?IsEnableChargeDefenseCheck@ioAttackableItem@@UAE_NXZ
	DD	FLAT:?CheckAimJumpState@ioAttackableItem@@UAEXPAVioBaseChar@@@Z
	DD	FLAT:?GetJumppingAnimation@ioAttackableItem@@UBEABVioHashString@@XZ
	DD	FLAT:?GetExtendJumppingAnimation@ioAttackableItem@@UBEABVioHashString@@XZ
	DD	FLAT:?CheckRetreatState@ioAttackableItem@@UAEXPAVioBaseChar@@@Z
	DD	FLAT:?SetNextItemState@ioAttackableItem@@UAEXPAVioBaseChar@@0PAVioWeapon@@_NM@Z
	DD	FLAT:?WeaponWounded@ioWeaponItem@@UAEXPAVioWeapon@@PAVioBaseChar@@@Z
	DD	FLAT:?WeaponMapColDead@ioAttackableItem@@UAEXPAVioWeapon@@@Z
	DD	FLAT:?SetDefenceCounterState@ioAttackableItem@@UAEXPAVioBaseChar@@@Z
	DD	FLAT:?IsUseDefenceCounterAttack@ioAttackableItem@@UAE_NXZ
	DD	FLAT:?ProcessDefenceCounterAttack@ioAttackableItem@@UAEXPAVioBaseChar@@@Z
	DD	FLAT:?IsUseDefenceCounterAttackEndDash@ioAttackableItem@@UAE_NXZ
	DD	FLAT:?ProcessExtraJump@ioAttackableItem@@UAEXPAVioBaseChar@@@Z
	DD	FLAT:?SetEndGrappling@ioAttackableItem@@UAEXPAVioBaseChar@@@Z
	DD	FLAT:?ClearKeyReserve@ioAttackableItem@@MAEXXZ
	DD	FLAT:?CheckReserve@ioConsecutionItem@@MAEXPAVioBaseChar@@@Z
	DD	FLAT:?ProcessReserveKeyInput@ioAttackableItem@@MAEXPAVioBaseChar@@@Z
	DD	FLAT:?SetJumpState@ioAttackableItem@@UAEXXZ
	DD	FLAT:?SetJumpping@ioAttackableItem@@UAEXPAVioBaseChar@@_N@Z
	DD	FLAT:?ProcessJumpping@ioAttackableItem@@UAEXPAVioBaseChar@@M@Z
	DD	FLAT:?ProcessJumppingByNoNeedProcess@ioAttackableItem@@UAEXPAVioBaseChar@@M@Z
	DD	FLAT:?ProcessLanding@ioAttackableItem@@UAEXPAVioBaseChar@@@Z
	DD	FLAT:?ProcessJumpAttack@ioConsecutionItem@@UAEXPAVioBaseChar@@M@Z
	DD	FLAT:?ProcessAimJump@ioAttackableItem@@UAE_NPAVioBaseChar@@M@Z
	DD	FLAT:?ApplyJump@ioAttackableItem@@UAEXPAVioBaseChar@@AAVSP2Packet@@@Z
	DD	FLAT:?ApplyDash@ioAttackableItem@@UAEXPAVioBaseChar@@AAVSP2Packet@@@Z
	DD	FLAT:?ApplyCounterAttack@ioAttackableItem@@UAEXPAVioBaseChar@@AAVSP2Packet@@@Z
	DD	FLAT:?CheckComboJumpAttack@ioAttackableItem@@UAEXPAVioBaseChar@@@Z
	DD	FLAT:?SetFlashJumpAttack@ioAttackableItem@@UAE_NPAVioBaseChar@@@Z
	DD	FLAT:?SetComboFlashAttack@ioAttackableItem@@UAE_NPAVioBaseChar@@@Z
	DD	FLAT:?SetCollectJumpAttack@ioAttackableItem@@UAE_NPAVioBaseChar@@@Z
	DD	FLAT:?SetPowerChargeJumpAttack@ioAttackableItem@@UAE_NPAVioBaseChar@@@Z
	DD	FLAT:?GetAttackSpeedRate@ioAttackableItem@@UBEMXZ
	DD	FLAT:?GetExtraJumpSpeedRate@ioAttackableItem@@UBEMABUD3DXVECTOR3@@ABUD3DXQUATERNION@@@Z
	DD	FLAT:?IsEnableExtendJump@ioAttackableItem@@UAE_NXZ
	DD	FLAT:?RecevieExtendJumpUse@ioAttackableItem@@UAEXPAVioBaseChar@@@Z
	DD	FLAT:?HasAniFile@ioAttackableItem@@UBE_NW4AttackType@@H@Z
	DD	FLAT:?HasEndAniFile@ioAttackableItem@@UBE_NW4AttackType@@H@Z
	DD	FLAT:?GetAttackAttribute@ioAttackableItem@@UBEPBUAttackAttribute@@W4AttackType@@H@Z
	DD	FLAT:?GetAniFile@ioAttackableItem@@UBEABVioHashString@@W4AttackType@@H@Z
	DD	FLAT:?GetAttackAniRate@ioAttackableItem@@UBEMW4AttackType@@H@Z
	DD	FLAT:?GetEndAniFile@ioAttackableItem@@UBEABVioHashString@@W4AttackType@@H@Z
	DD	FLAT:?GetAttackEndAniRate@ioAttackableItem@@UBEMW4AttackType@@H@Z
	DD	FLAT:?GetAttackAttributeIdx@ioAttackableItem@@UBEABV?$vector@UWeaponInfo@@V?$allocator@UWeaponInfo@@@std@@@std@@W4AttackType@@H@Z
	DD	FLAT:?GetForceInfoList@ioAttackableItem@@UBEABV?$vector@UForceInfo@@V?$allocator@UForceInfo@@@std@@@std@@W4AttackType@@H@Z
	DD	FLAT:?GetAttackPreDelay@ioAttackableItem@@UBEKW4AttackType@@H@Z
	DD	FLAT:?GetAttackAnimationDelay@ioAttackableItem@@UBEKW4AttackType@@H@Z
	DD	FLAT:?GetMaxCombo@ioAttackableItem@@UBEHXZ
	DD	FLAT:?GetExtraDashAttackMax@ioAttackableItem@@UBEHXZ
	DD	FLAT:?HasJumpEndAnimation@ioAttackableItem@@UBE_N_NPAVioBaseChar@@@Z
	DD	FLAT:?GetJumpEndAnimation@ioAttackableItem@@UBEABVioHashString@@_NPAVioBaseChar@@@Z
	DD	FLAT:?ClearCancelInfo@ioAttackableItem@@MAEXXZ
	DD	FLAT:?CheckCancelReserve@ioAttackableItem@@MAEXPAVioBaseChar@@@Z
	DD	FLAT:?SetCurAttackAniForInputJump@ioAttackableItem@@MAEXABVioHashString@@M@Z
	DD	FLAT:?ProcessCancel@ioConsecutionItem@@MAE_NPAVioBaseChar@@@Z
	DD	FLAT:?ProcessCancelBySpeicalDash@ioAttackableItem@@MAE_NPAVioBaseChar@@@Z
	DD	FLAT:?SetCurAttackAniForInputDashS@ioAttackableItem@@UAEXABVioHashString@@M@Z
	DD	FLAT:?CheckCancelReserveByConditionalSpecialDash@ioAttackableItem@@UAEXPAVioBaseChar@@@Z
	DD	FLAT:?IsConditionalSpecialDashReserve@ioAttackableItem@@UAE_NPAVioBaseChar@@@Z
	DD	FLAT:?SetChangeConditionalSpecialDash@ioAttackableItem@@UAEXPAVioBaseChar@@W4DirKeyInput@ioUserKeyInput@@H@Z
	DD	FLAT:?CheckChangeWereWolfState@ioAttackableItem@@UAE_NPAVioBaseChar@@@Z
	DD	FLAT:?SetChangeWereWolfState@ioAttackableItem@@UAEXPAVioBaseChar@@@Z
	DD	FLAT:?CheckReleaseWereWolfState@ioAttackableItem@@UAE_NPAVioBaseChar@@@Z
	DD	FLAT:?ReleseWereWolfState@ioAttackableItem@@UAEXPAVioBaseChar@@@Z
	DD	FLAT:?ReleseWereWolfStateByOwner@ioAttackableItem@@UAEXPAVioBaseChar@@@Z
	DD	FLAT:?IncreaseChangeDamage@ioAttackableItem@@UAEXMH_N@Z
	DD	FLAT:?IncreaseChangeDamageByWeapon@ioAttackableItem@@UAEXM@Z
	DD	FLAT:?CheckIncreaseChangeDamage@ioAttackableItem@@UAEXPAVioBaseChar@@@Z
	DD	FLAT:?DecreaseChangeDamage@ioAttackableItem@@UAEXPAVioBaseChar@@@Z
	DD	FLAT:?IsEnableActionStopDelay@ioAttackableItem@@UAE_NXZ
	DD	FLAT:?SetExtraGaugeTypeByWeapon@ioAttackableItem@@UAEXPAVioBaseChar@@HHM@Z
	DD	FLAT:?SetUseExtraGauge@ioAttackableItem@@UAEXM@Z
	DD	FLAT:?InitExtraGauge@ioAttackableItem@@UAEXXZ
	DD	FLAT:?MaxExtraGauge@ioAttackableItem@@UAEXXZ
	DD	FLAT:?GetMaxExtraGauge@ioAttackableItem@@UAEMXZ
	DD	FLAT:?GetCurExtraGauge@ioAttackableItem@@UAEMXZ
	DD	FLAT:?SetCurExtraGauge@ioAttackableItem@@UAEXM@Z
	DD	FLAT:?GetAutoTargetValue@ioAttackableItem@@UAEXPAVioBaseChar@@AAM11W4AutoTargetType@@@Z
	DD	FLAT:?ClearAirJump@ioAttackableItem@@UAEXXZ
	DD	FLAT:?SetAirJump@ioAttackableItem@@UAEXPAVioBaseChar@@HM@Z
	DD	FLAT:?CheckAirJump@ioAttackableItem@@UAEXPAVioBaseChar@@@Z
	DD	FLAT:?IsAutoTarget@ioAttackableItem@@UBE_NXZ
	DD	FLAT:?EquipObjectItemByAttakable@ioAttackableItem@@UAEXPAVioBaseChar@@PAVioItem@@@Z
	DD	FLAT:?ReleaseObjectItemByAttack@ioAttackableItem@@UAEXPAVioBaseChar@@PAVioItem@@@Z
	DD	FLAT:?IsBuffFlyChange@ioAttackableItem@@UAE_NPAVioBaseChar@@@Z
	DD	FLAT:?GetAttackStateText@ioAttackableItem@@UBEPBDXZ
	DD	FLAT:?SetJumpLandingExtraState@ioAttackableItem@@UAE_NPAVioBaseChar@@@Z
	DD	FLAT:?IsWoundAfterUseExtendState@ioAttackableItem@@UAE_NXZ
	DD	FLAT:?CheckWoundAfterUseExtendState@ioAttackableItem@@UAE_NPAVioBaseChar@@W4BlowTargetType@@@Z
	DD	FLAT:?IsCharSkipState@ioAttackableItem@@UAE_NPBVioBaseChar@@@Z
	DD	FLAT:?ReleaseObjectState@ioWeaponItem@@UAEXPAVioBaseChar@@PAVioObjectItem@@@Z
	DD	FLAT:?IsCmdCheckEnableTime@ioWeaponItem@@UAE_NXZ
	DD	FLAT:?IsCmdSuccess@ioWeaponItem@@UAE_NXZ
	DD	FLAT:?IsOneTimeWeaponItem@ioWeaponItem@@UBE_NXZ
	DD	FLAT:?GetEquipMesh@ioWeaponItem@@UBEABVioHashString@@PAVioBaseChar@@@Z
	DD	FLAT:?IsCanSendControl@ioWeaponItem@@UBE_NXZ
	DD	FLAT:?GetSubType@ioConsecutionItem@@UBE?AW4WeaponSubType@ioWeaponItem@@XZ
CONST	ENDS
;	COMDAT xdata$x
xdata$x	SEGMENT
__ehfuncinfo$??0ioConsecutionItem@@QAE@XZ DD 019930522H
	DD	08H
	DD	FLAT:__unwindtable$??0ioConsecutionItem@@QAE@XZ
	DD	2 DUP(00H)
	DD	2 DUP(00H)
	DD	00H
	DD	01H
__unwindtable$??0ioConsecutionItem@@QAE@XZ DD 0ffffffffH
	DD	FLAT:__unwindfunclet$??0ioConsecutionItem@@QAE@XZ$0
	DD	00H
	DD	FLAT:__unwindfunclet$??0ioConsecutionItem@@QAE@XZ$1
	DD	01H
	DD	FLAT:__unwindfunclet$??0ioConsecutionItem@@QAE@XZ$2
	DD	02H
	DD	FLAT:__unwindfunclet$??0ioConsecutionItem@@QAE@XZ$3
	DD	03H
	DD	FLAT:__unwindfunclet$??0ioConsecutionItem@@QAE@XZ$4
	DD	04H
	DD	FLAT:__unwindfunclet$??0ioConsecutionItem@@QAE@XZ$5
	DD	05H
	DD	FLAT:__unwindfunclet$??0ioConsecutionItem@@QAE@XZ$6
	DD	06H
	DD	FLAT:__unwindfunclet$??0ioConsecutionItem@@QAE@XZ$7
; Function compile flags: /Ogsp
; File d:\lost saga for developer\youtube\tutorial\source\src\lsclient\ioconsecutionitem.cpp
xdata$x	ENDS
;	COMDAT ??0ioConsecutionItem@@QAE@XZ
_TEXT	SEGMENT
_this$ = -20						; size = 4
_value$613294 = -16					; size = 4
_value$613290 = -16					; size = 4
__$EHRec$ = -12						; size = 12
??0ioConsecutionItem@@QAE@XZ PROC			; ioConsecutionItem::ioConsecutionItem, COMDAT
; _this$ = ecx

; 13   : {

  00000	6a 08		 push	 8
  00002	b8 00 00 00 00	 mov	 eax, __ehhandler$??0ioConsecutionItem@@QAE@XZ
  00007	e8 00 00 00 00	 call	 __EH_prolog3
  0000c	8b f1		 mov	 esi, ecx
  0000e	89 75 ec	 mov	 DWORD PTR _this$[ebp], esi
  00011	e8 00 00 00 00	 call	 ??0ioWeaponItem@@QAE@XZ	; ioWeaponItem::ioWeaponItem
  00016	33 db		 xor	 ebx, ebx
  00018	c7 06 00 00 00
	00		 mov	 DWORD PTR [esi], OFFSET ??_7ioConsecutionItem@@6B@
  0001e	89 5d fc	 mov	 DWORD PTR __$EHRec$[ebp+8], ebx
  00021	89 9e 54 19 00
	00		 mov	 DWORD PTR [esi+6484], ebx
  00027	89 9e 58 19 00
	00		 mov	 DWORD PTR [esi+6488], ebx
  0002d	89 9e 5c 19 00
	00		 mov	 DWORD PTR [esi+6492], ebx
  00033	89 9e 64 19 00
	00		 mov	 DWORD PTR [esi+6500], ebx
  00039	89 9e 68 19 00
	00		 mov	 DWORD PTR [esi+6504], ebx
  0003f	89 9e 6c 19 00
	00		 mov	 DWORD PTR [esi+6508], ebx
  00045	8d 8e 74 19 00
	00		 lea	 ecx, DWORD PTR [esi+6516]
  0004b	c6 45 fc 02	 mov	 BYTE PTR __$EHRec$[ebp+8], 2
  0004f	e8 00 00 00 00	 call	 ??0AttackAttribute@@QAE@XZ ; AttackAttribute::AttackAttribute
  00054	8d 8e d4 19 00
	00		 lea	 ecx, DWORD PTR [esi+6612]
  0005a	c6 45 fc 03	 mov	 BYTE PTR __$EHRec$[ebp+8], 3
  0005e	e8 00 00 00 00	 call	 ??0?$CEncrypt@H@@QAE@XZ	; CEncrypt<int>::CEncrypt<int>
  00063	8d 8e 04 1a 00
	00		 lea	 ecx, DWORD PTR [esi+6660]
  00069	c6 45 fc 04	 mov	 BYTE PTR __$EHRec$[ebp+8], 4
  0006d	e8 00 00 00 00	 call	 ??0?$CEncrypt@H@@QAE@XZ	; CEncrypt<int>::CEncrypt<int>
  00072	8d 8e 34 1a 00
	00		 lea	 ecx, DWORD PTR [esi+6708]
  00078	c6 45 fc 05	 mov	 BYTE PTR __$EHRec$[ebp+8], 5
  0007c	e8 00 00 00 00	 call	 ??0?$CEncrypt@K@@QAE@XZ	; CEncrypt<unsigned long>::CEncrypt<unsigned long>
  00081	8d 8e 64 1a 00
	00		 lea	 ecx, DWORD PTR [esi+6756]
  00087	c6 45 fc 06	 mov	 BYTE PTR __$EHRec$[ebp+8], 6
  0008b	e8 00 00 00 00	 call	 ??0?$CEncrypt@K@@QAE@XZ	; CEncrypt<unsigned long>::CEncrypt<unsigned long>

; 14   : 	m_ChargeState = CS_NONE;
; 15   : 	m_dwAttackStartTime = 0;
; 16   : 	m_iCurCombo = 0;
; 17   : 
; 18   : 	m_iCurAirJump = 0;
; 19   : 	m_fAirJumpPowerRate = 0.0f;

  00090	0f 57 c0	 xorps	 xmm0, xmm0

; 20   : 
; 21   : 	m_iCurConsecutionCnt = 0;

  00093	8d 45 f0	 lea	 eax, DWORD PTR _value$613290[ebp]
  00096	50		 push	 eax
  00097	8d 8e 04 1a 00
	00		 lea	 ecx, DWORD PTR [esi+6660]
  0009d	c6 45 fc 07	 mov	 BYTE PTR __$EHRec$[ebp+8], 7
  000a1	89 9e c4 19 00
	00		 mov	 DWORD PTR [esi+6596], ebx
  000a7	89 9e c8 19 00
	00		 mov	 DWORD PTR [esi+6600], ebx
  000ad	89 9e cc 19 00
	00		 mov	 DWORD PTR [esi+6604], ebx
  000b3	89 9e 58 0f 00
	00		 mov	 DWORD PTR [esi+3928], ebx
  000b9	f3 0f 11 86 48
	0f 00 00	 movss	 DWORD PTR [esi+3912], xmm0
  000c1	89 5d f0	 mov	 DWORD PTR _value$613290[ebp], ebx
  000c4	e8 00 00 00 00	 call	 ?EncryptValueToPool@?$CEncrypt@H@@AAEXPBD@Z ; CEncrypt<int>::EncryptValueToPool

; 22   : 	m_dwConsecutionCheckTime = 0;

  000c9	8d 45 f0	 lea	 eax, DWORD PTR _value$613294[ebp]
  000cc	50		 push	 eax
  000cd	8d 8e 64 1a 00
	00		 lea	 ecx, DWORD PTR [esi+6756]
  000d3	89 5d f0	 mov	 DWORD PTR _value$613294[ebp], ebx
  000d6	e8 00 00 00 00	 call	 ?EncryptValueToPool@?$CEncrypt@K@@AAEXPBD@Z ; CEncrypt<unsigned long>::EncryptValueToPool

; 23   : 
; 24   : 	m_bCharged = false;

  000db	88 9e d0 19 00
	00		 mov	 BYTE PTR [esi+6608], bl

; 25   : }

  000e1	8b c6		 mov	 eax, esi
  000e3	e8 00 00 00 00	 call	 __EH_epilog3
  000e8	c3		 ret	 0
_TEXT	ENDS
;	COMDAT text$x
text$x	SEGMENT
__unwindfunclet$??0ioConsecutionItem@@QAE@XZ$0:
  00000	8b 4d ec	 mov	 ecx, DWORD PTR _this$[ebp]
  00003	e9 00 00 00 00	 jmp	 ??1ioWeaponItem@@UAE@XZ	; ioWeaponItem::~ioWeaponItem
__unwindfunclet$??0ioConsecutionItem@@QAE@XZ$1:
  00008	8b 4d ec	 mov	 ecx, DWORD PTR _this$[ebp]
  0000b	81 c1 54 19 00
	00		 add	 ecx, 6484		; 00001954H
  00011	e9 00 00 00 00	 jmp	 ??1?$vector@VioHashString@@V?$allocator@VioHashString@@@std@@@std@@QAE@XZ ; std::vector<ioHashString,std::allocator<ioHashString> >::~vector<ioHashString,std::allocator<ioHashString> >
__unwindfunclet$??0ioConsecutionItem@@QAE@XZ$2:
  00016	8b 4d ec	 mov	 ecx, DWORD PTR _this$[ebp]
  00019	81 c1 64 19 00
	00		 add	 ecx, 6500		; 00001964H
  0001f	e9 00 00 00 00	 jmp	 ??1?$vector@UAttackAttribute@@V?$allocator@UAttackAttribute@@@std@@@std@@QAE@XZ ; std::vector<AttackAttribute,std::allocator<AttackAttribute> >::~vector<AttackAttribute,std::allocator<AttackAttribute> >
__unwindfunclet$??0ioConsecutionItem@@QAE@XZ$3:
  00024	8b 4d ec	 mov	 ecx, DWORD PTR _this$[ebp]
  00027	81 c1 74 19 00
	00		 add	 ecx, 6516		; 00001974H
  0002d	e9 00 00 00 00	 jmp	 ??1AttackAttribute@@QAE@XZ
__unwindfunclet$??0ioConsecutionItem@@QAE@XZ$4:
  00032	8b 4d ec	 mov	 ecx, DWORD PTR _this$[ebp]
  00035	81 c1 d4 19 00
	00		 add	 ecx, 6612		; 000019d4H
  0003b	e9 00 00 00 00	 jmp	 ??1?$CEncrypt@H@@UAE@XZ	; CEncrypt<int>::~CEncrypt<int>
__unwindfunclet$??0ioConsecutionItem@@QAE@XZ$5:
  00040	8b 4d ec	 mov	 ecx, DWORD PTR _this$[ebp]
  00043	81 c1 04 1a 00
	00		 add	 ecx, 6660		; 00001a04H
  00049	e9 00 00 00 00	 jmp	 ??1?$CEncrypt@H@@UAE@XZ	; CEncrypt<int>::~CEncrypt<int>
__unwindfunclet$??0ioConsecutionItem@@QAE@XZ$6:
  0004e	8b 4d ec	 mov	 ecx, DWORD PTR _this$[ebp]
  00051	81 c1 34 1a 00
	00		 add	 ecx, 6708		; 00001a34H
  00057	e9 00 00 00 00	 jmp	 ??1?$CEncrypt@K@@UAE@XZ	; CEncrypt<unsigned long>::~CEncrypt<unsigned long>
__unwindfunclet$??0ioConsecutionItem@@QAE@XZ$7:
  0005c	8b 4d ec	 mov	 ecx, DWORD PTR _this$[ebp]
  0005f	81 c1 64 1a 00
	00		 add	 ecx, 6756		; 00001a64H
  00065	e9 00 00 00 00	 jmp	 ??1?$CEncrypt@K@@UAE@XZ	; CEncrypt<unsigned long>::~CEncrypt<unsigned long>
__ehhandler$??0ioConsecutionItem@@QAE@XZ:
  0006a	8b 54 24 08	 mov	 edx, DWORD PTR [esp+8]
  0006e	8d 42 0c	 lea	 eax, DWORD PTR [edx+12]
  00071	8b 4a e8	 mov	 ecx, DWORD PTR [edx-24]
  00074	33 c8		 xor	 ecx, eax
  00076	e8 00 00 00 00	 call	 @__security_check_cookie@4
  0007b	b8 00 00 00 00	 mov	 eax, OFFSET __ehfuncinfo$??0ioConsecutionItem@@QAE@XZ
  00080	e9 00 00 00 00	 jmp	 ___CxxFrameHandler3
text$x	ENDS
??0ioConsecutionItem@@QAE@XZ ENDP			; ioConsecutionItem::ioConsecutionItem
; Function compile flags: /Ogsp
; File d:\lost saga for developer\youtube\tutorial\source\src\lsclient\ioitem.h
;	COMDAT ?IsEnableExtraGauge@ioItem@@UAE_NPAVioBaseChar@@@Z
_TEXT	SEGMENT
_pChar$ = 8						; size = 4
?IsEnableExtraGauge@ioItem@@UAE_NPAVioBaseChar@@@Z PROC	; ioItem::IsEnableExtraGauge, COMDAT
; _this$ = ecx

; 375  : 	virtual bool IsEnableExtraGauge( ioBaseChar *pChar ) { return true; }

  00000	b0 01		 mov	 al, 1
  00002	c2 04 00	 ret	 4
?IsEnableExtraGauge@ioItem@@UAE_NPAVioBaseChar@@@Z ENDP	; ioItem::IsEnableExtraGauge
; Function compile flags: /Ogsp
_TEXT	ENDS
;	COMDAT ?GetExtraGauge@ioItem@@UAEMXZ
_TEXT	SEGMENT
tv64 = -4						; size = 4
?GetExtraGauge@ioItem@@UAEMXZ PROC			; ioItem::GetExtraGauge, COMDAT
; _this$ = ecx

; 376  : 	virtual float GetExtraGauge() { return FLOAT1; }

  00000	55		 push	 ebp
  00001	8b ec		 mov	 ebp, esp
  00003	51		 push	 ecx
  00004	b8 01 00 00 00	 mov	 eax, 1
  00009	89 45 fc	 mov	 DWORD PTR tv64[ebp], eax
  0000c	db 45 fc	 fild	 DWORD PTR tv64[ebp]
  0000f	85 c0		 test	 eax, eax
  00011	79 06		 jns	 SHORT $LN5@GetExtraGa
  00013	d8 05 00 00 00
	00		 fadd	 DWORD PTR __real@4f800000
$LN5@GetExtraGa:
  00019	c9		 leave
  0001a	c3		 ret	 0
?GetExtraGauge@ioItem@@UAEMXZ ENDP			; ioItem::GetExtraGauge
; Function compile flags: /Ogsp
; File d:\lost saga for developer\youtube\tutorial\source\src\lsclient\ioattackableitem.h
_TEXT	ENDS
;	COMDAT ?CheckOnHand@ioAttackableItem@@UAE_NXZ
_TEXT	SEGMENT
?CheckOnHand@ioAttackableItem@@UAE_NXZ PROC		; ioAttackableItem::CheckOnHand, COMDAT
; _this$ = ecx

; 429  : 	virtual bool CheckOnHand() { return false; }

  00000	32 c0		 xor	 al, al
  00002	c3		 ret	 0
?CheckOnHand@ioAttackableItem@@UAE_NXZ ENDP		; ioAttackableItem::CheckOnHand
; Function compile flags: /Ogsp
_TEXT	ENDS
;	COMDAT ?CheckAimState@ioAttackableItem@@UAE_N_N@Z
_TEXT	SEGMENT
_bAimMove$ = 8						; size = 1
?CheckAimState@ioAttackableItem@@UAE_N_N@Z PROC		; ioAttackableItem::CheckAimState, COMDAT
; _this$ = ecx

; 430  : 	virtual bool CheckAimState( bool bAimMove = false ) { return false; }

  00000	32 c0		 xor	 al, al
  00002	c2 04 00	 ret	 4
?CheckAimState@ioAttackableItem@@UAE_N_N@Z ENDP		; ioAttackableItem::CheckAimState
; Function compile flags: /Ogsp
_TEXT	ENDS
;	COMDAT ?SetAimState@ioAttackableItem@@UAE_NPAVioBaseChar@@@Z
_TEXT	SEGMENT
_pChar$ = 8						; size = 4
?SetAimState@ioAttackableItem@@UAE_NPAVioBaseChar@@@Z PROC ; ioAttackableItem::SetAimState, COMDAT
; _this$ = ecx

; 431  : 	virtual bool SetAimState( ioBaseChar *pChar ) { return false; }

  00000	32 c0		 xor	 al, al
  00002	c2 04 00	 ret	 4
?SetAimState@ioAttackableItem@@UAE_NPAVioBaseChar@@@Z ENDP ; ioAttackableItem::SetAimState
; Function compile flags: /Ogsp
_TEXT	ENDS
;	COMDAT ?CheckExtendDefenseEnable@ioAttackableItem@@UAE_NPAVioBaseChar@@@Z
_TEXT	SEGMENT
_pChar$ = 8						; size = 4
?CheckExtendDefenseEnable@ioAttackableItem@@UAE_NPAVioBaseChar@@@Z PROC ; ioAttackableItem::CheckExtendDefenseEnable, COMDAT
; _this$ = ecx

; 434  : 	virtual bool CheckExtendDefenseEnable( ioBaseChar *pChar ) { return true; }

  00000	b0 01		 mov	 al, 1
  00002	c2 04 00	 ret	 4
?CheckExtendDefenseEnable@ioAttackableItem@@UAE_NPAVioBaseChar@@@Z ENDP ; ioAttackableItem::CheckExtendDefenseEnable
; Function compile flags: /Ogsp
_TEXT	ENDS
;	COMDAT ?IsMoveAttackState@ioAttackableItem@@UAE_NPAVioBaseChar@@@Z
_TEXT	SEGMENT
_pOwner$ = 8						; size = 4
?IsMoveAttackState@ioAttackableItem@@UAE_NPAVioBaseChar@@@Z PROC ; ioAttackableItem::IsMoveAttackState, COMDAT
; _this$ = ecx

; 437  : 	virtual bool IsMoveAttackState( ioBaseChar *pOwner ) { return false; }

  00000	32 c0		 xor	 al, al
  00002	c2 04 00	 ret	 4
?IsMoveAttackState@ioAttackableItem@@UAE_NPAVioBaseChar@@@Z ENDP ; ioAttackableItem::IsMoveAttackState
; Function compile flags: /Ogsp
_TEXT	ENDS
;	COMDAT ?IsNoGhostWalk@ioAttackableItem@@UAE_NPAVioBaseChar@@@Z
_TEXT	SEGMENT
_pOwner$ = 8						; size = 4
?IsNoGhostWalk@ioAttackableItem@@UAE_NPAVioBaseChar@@@Z PROC ; ioAttackableItem::IsNoGhostWalk, COMDAT
; _this$ = ecx

; 439  : 	virtual bool IsNoGhostWalk( ioBaseChar *pOwner ) { return false; }

  00000	32 c0		 xor	 al, al
  00002	c2 04 00	 ret	 4
?IsNoGhostWalk@ioAttackableItem@@UAE_NPAVioBaseChar@@@Z ENDP ; ioAttackableItem::IsNoGhostWalk
; Function compile flags: /Ogsp
_TEXT	ENDS
;	COMDAT ?IsEnableItemDashCheck@ioAttackableItem@@UAE_NPAVioBaseChar@@_N@Z
_TEXT	SEGMENT
_pOwner$ = 8						; size = 4
_bCheck$ = 12						; size = 1
?IsEnableItemDashCheck@ioAttackableItem@@UAE_NPAVioBaseChar@@_N@Z PROC ; ioAttackableItem::IsEnableItemDashCheck, COMDAT
; _this$ = ecx

; 442  : 	virtual bool IsEnableItemDashCheck( ioBaseChar *pOwner, bool bCheck ) { return false; }

  00000	32 c0		 xor	 al, al
  00002	c2 08 00	 ret	 8
?IsEnableItemDashCheck@ioAttackableItem@@UAE_NPAVioBaseChar@@_N@Z ENDP ; ioAttackableItem::IsEnableItemDashCheck
; Function compile flags: /Ogsp
_TEXT	ENDS
;	COMDAT ?IsEnableAttackRotateCheck@ioAttackableItem@@UAE_NPAVioBaseChar@@@Z
_TEXT	SEGMENT
_pOwner$ = 8						; size = 4
?IsEnableAttackRotateCheck@ioAttackableItem@@UAE_NPAVioBaseChar@@@Z PROC ; ioAttackableItem::IsEnableAttackRotateCheck, COMDAT
; _this$ = ecx

; 443  : 	virtual bool IsEnableAttackRotateCheck( ioBaseChar *pOwner ) { return false; }

  00000	32 c0		 xor	 al, al
  00002	c2 04 00	 ret	 4
?IsEnableAttackRotateCheck@ioAttackableItem@@UAE_NPAVioBaseChar@@@Z ENDP ; ioAttackableItem::IsEnableAttackRotateCheck
; Function compile flags: /Ogsp
_TEXT	ENDS
;	COMDAT ?IsEnableChargeDefenseCheck@ioAttackableItem@@UAE_NXZ
_TEXT	SEGMENT
?IsEnableChargeDefenseCheck@ioAttackableItem@@UAE_NXZ PROC ; ioAttackableItem::IsEnableChargeDefenseCheck, COMDAT
; _this$ = ecx

; 444  : 	virtual bool IsEnableChargeDefenseCheck() { return false; }

  00000	32 c0		 xor	 al, al
  00002	c3		 ret	 0
?IsEnableChargeDefenseCheck@ioAttackableItem@@UAE_NXZ ENDP ; ioAttackableItem::IsEnableChargeDefenseCheck
; Function compile flags: /Ogsp
_TEXT	ENDS
;	COMDAT ?IsUseDefenceCounterAttackEndDash@ioAttackableItem@@UAE_NXZ
_TEXT	SEGMENT
?IsUseDefenceCounterAttackEndDash@ioAttackableItem@@UAE_NXZ PROC ; ioAttackableItem::IsUseDefenceCounterAttackEndDash, COMDAT
; _this$ = ecx

; 464  : 	virtual bool IsUseDefenceCounterAttackEndDash() { return false; }

  00000	32 c0		 xor	 al, al
  00002	c3		 ret	 0
?IsUseDefenceCounterAttackEndDash@ioAttackableItem@@UAE_NXZ ENDP ; ioAttackableItem::IsUseDefenceCounterAttackEndDash
; Function compile flags: /Ogsp
_TEXT	ENDS
;	COMDAT ?IsAutoTarget@ioAttackableItem@@UBE_NXZ
_TEXT	SEGMENT
?IsAutoTarget@ioAttackableItem@@UBE_NXZ PROC		; ioAttackableItem::IsAutoTarget, COMDAT
; _this$ = ecx

; 707  : 	virtual bool IsAutoTarget() const { return true; }

  00000	b0 01		 mov	 al, 1
  00002	c3		 ret	 0
?IsAutoTarget@ioAttackableItem@@UBE_NXZ ENDP		; ioAttackableItem::IsAutoTarget
; Function compile flags: /Ogsp
_TEXT	ENDS
;	COMDAT ?IsWoundAfterUseExtendState@ioAttackableItem@@UAE_NXZ
_TEXT	SEGMENT
?IsWoundAfterUseExtendState@ioAttackableItem@@UAE_NXZ PROC ; ioAttackableItem::IsWoundAfterUseExtendState, COMDAT
; _this$ = ecx

; 724  : 	virtual bool IsWoundAfterUseExtendState(){ return false; }

  00000	32 c0		 xor	 al, al
  00002	c3		 ret	 0
?IsWoundAfterUseExtendState@ioAttackableItem@@UAE_NXZ ENDP ; ioAttackableItem::IsWoundAfterUseExtendState
; Function compile flags: /Ogsp
_TEXT	ENDS
;	COMDAT ?CheckWoundAfterUseExtendState@ioAttackableItem@@UAE_NPAVioBaseChar@@W4BlowTargetType@@@Z
_TEXT	SEGMENT
_pOwner$ = 8						; size = 4
_eType$ = 12						; size = 4
?CheckWoundAfterUseExtendState@ioAttackableItem@@UAE_NPAVioBaseChar@@W4BlowTargetType@@@Z PROC ; ioAttackableItem::CheckWoundAfterUseExtendState, COMDAT
; _this$ = ecx

; 725  : 	virtual bool CheckWoundAfterUseExtendState( ioBaseChar* pOwner, BlowTargetType eType ){ return false; }

  00000	32 c0		 xor	 al, al
  00002	c2 08 00	 ret	 8
?CheckWoundAfterUseExtendState@ioAttackableItem@@UAE_NPAVioBaseChar@@W4BlowTargetType@@@Z ENDP ; ioAttackableItem::CheckWoundAfterUseExtendState
; Function compile flags: /Ogsp
_TEXT	ENDS
;	COMDAT ?IsCharSkipState@ioAttackableItem@@UAE_NPBVioBaseChar@@@Z
_TEXT	SEGMENT
_pOwner$ = 8						; size = 4
?IsCharSkipState@ioAttackableItem@@UAE_NPBVioBaseChar@@@Z PROC ; ioAttackableItem::IsCharSkipState, COMDAT
; _this$ = ecx

; 728  : 	virtual bool IsCharSkipState( const ioBaseChar* pOwner ){ return false; }

  00000	32 c0		 xor	 al, al
  00002	c2 04 00	 ret	 4
?IsCharSkipState@ioAttackableItem@@UAE_NPBVioBaseChar@@@Z ENDP ; ioAttackableItem::IsCharSkipState
_TEXT	ENDS
PUBLIC	??0ioConsecutionItem@@QAE@ABV0@@Z		; ioConsecutionItem::ioConsecutionItem
EXTRN	??0ioWeaponItem@@QAE@ABV0@@Z:PROC		; ioWeaponItem::ioWeaponItem
;	COMDAT xdata$x
; File d:\lost saga for developer\youtube\tutorial\source\src\lsclient\encryptvalue.h
xdata$x	SEGMENT
__ehfuncinfo$??0ioConsecutionItem@@QAE@ABV0@@Z DD 019930522H
	DD	08H
	DD	FLAT:__unwindtable$??0ioConsecutionItem@@QAE@ABV0@@Z
	DD	2 DUP(00H)
	DD	2 DUP(00H)
	DD	00H
	DD	01H
__unwindtable$??0ioConsecutionItem@@QAE@ABV0@@Z DD 0ffffffffH
	DD	FLAT:__unwindfunclet$??0ioConsecutionItem@@QAE@ABV0@@Z$0
	DD	00H
	DD	FLAT:__unwindfunclet$??0ioConsecutionItem@@QAE@ABV0@@Z$1
	DD	01H
	DD	FLAT:__unwindfunclet$??0ioConsecutionItem@@QAE@ABV0@@Z$2
	DD	02H
	DD	FLAT:__unwindfunclet$??0ioConsecutionItem@@QAE@ABV0@@Z$3
	DD	03H
	DD	FLAT:__unwindfunclet$??0ioConsecutionItem@@QAE@ABV0@@Z$4
	DD	04H
	DD	FLAT:__unwindfunclet$??0ioConsecutionItem@@QAE@ABV0@@Z$5
	DD	05H
	DD	FLAT:__unwindfunclet$??0ioConsecutionItem@@QAE@ABV0@@Z$6
	DD	06H
	DD	FLAT:__unwindfunclet$??0ioConsecutionItem@@QAE@ABV0@@Z$7
; Function compile flags: /Ogsp
; File d:\lost saga for developer\youtube\tutorial\source\src\lsclient\ioconsecutionitem.cpp
xdata$x	ENDS
;	COMDAT ??0ioConsecutionItem@@QAE@ABV0@@Z
_TEXT	SEGMENT
_this$ = -16						; size = 4
__$EHRec$ = -12						; size = 12
_value$613370 = 8					; size = 4
_value$613366 = 8					; size = 4
_rhs$ = 8						; size = 4
??0ioConsecutionItem@@QAE@ABV0@@Z PROC			; ioConsecutionItem::ioConsecutionItem, COMDAT
; _this$ = ecx

; 34   : {

  00000	6a 04		 push	 4
  00002	b8 00 00 00 00	 mov	 eax, __ehhandler$??0ioConsecutionItem@@QAE@ABV0@@Z
  00007	e8 00 00 00 00	 call	 __EH_prolog3
  0000c	8b f1		 mov	 esi, ecx
  0000e	89 75 f0	 mov	 DWORD PTR _this$[ebp], esi
  00011	8b 7d 08	 mov	 edi, DWORD PTR _rhs$[ebp]
  00014	57		 push	 edi
  00015	e8 00 00 00 00	 call	 ??0ioWeaponItem@@QAE@ABV0@@Z ; ioWeaponItem::ioWeaponItem
  0001a	8d 87 54 19 00
	00		 lea	 eax, DWORD PTR [edi+6484]
  00020	33 db		 xor	 ebx, ebx
  00022	50		 push	 eax
  00023	8d 8e 54 19 00
	00		 lea	 ecx, DWORD PTR [esi+6484]
  00029	89 5d fc	 mov	 DWORD PTR __$EHRec$[ebp+8], ebx
  0002c	c7 06 00 00 00
	00		 mov	 DWORD PTR [esi], OFFSET ??_7ioConsecutionItem@@6B@
  00032	e8 00 00 00 00	 call	 ??0?$vector@VioHashString@@V?$allocator@VioHashString@@@std@@@std@@QAE@ABV01@@Z ; std::vector<ioHashString,std::allocator<ioHashString> >::vector<ioHashString,std::allocator<ioHashString> >
  00037	8d 87 64 19 00
	00		 lea	 eax, DWORD PTR [edi+6500]
  0003d	50		 push	 eax
  0003e	8d 8e 64 19 00
	00		 lea	 ecx, DWORD PTR [esi+6500]
  00044	c6 45 fc 01	 mov	 BYTE PTR __$EHRec$[ebp+8], 1
  00048	e8 00 00 00 00	 call	 ??0?$vector@UAttackAttribute@@V?$allocator@UAttackAttribute@@@std@@@std@@QAE@ABV01@@Z ; std::vector<AttackAttribute,std::allocator<AttackAttribute> >::vector<AttackAttribute,std::allocator<AttackAttribute> >
  0004d	8d 87 74 19 00
	00		 lea	 eax, DWORD PTR [edi+6516]
  00053	50		 push	 eax
  00054	8d 8e 74 19 00
	00		 lea	 ecx, DWORD PTR [esi+6516]
  0005a	c6 45 fc 02	 mov	 BYTE PTR __$EHRec$[ebp+8], 2
  0005e	e8 00 00 00 00	 call	 ??0AttackAttribute@@QAE@ABU0@@Z
  00063	8d 87 d4 19 00
	00		 lea	 eax, DWORD PTR [edi+6612]
  00069	50		 push	 eax
  0006a	8d 8e d4 19 00
	00		 lea	 ecx, DWORD PTR [esi+6612]
  00070	c6 45 fc 03	 mov	 BYTE PTR __$EHRec$[ebp+8], 3
  00074	e8 00 00 00 00	 call	 ??0?$CEncrypt@H@@QAE@ABV0@@Z ; CEncrypt<int>::CEncrypt<int>
  00079	8d 8e 04 1a 00
	00		 lea	 ecx, DWORD PTR [esi+6660]
  0007f	c6 45 fc 04	 mov	 BYTE PTR __$EHRec$[ebp+8], 4
  00083	e8 00 00 00 00	 call	 ??0?$CEncrypt@H@@QAE@XZ	; CEncrypt<int>::CEncrypt<int>
  00088	81 c7 34 1a 00
	00		 add	 edi, 6708		; 00001a34H
  0008e	57		 push	 edi
  0008f	8d 8e 34 1a 00
	00		 lea	 ecx, DWORD PTR [esi+6708]
  00095	c6 45 fc 05	 mov	 BYTE PTR __$EHRec$[ebp+8], 5
  00099	e8 00 00 00 00	 call	 ??0?$CEncrypt@K@@QAE@ABV0@@Z ; CEncrypt<unsigned long>::CEncrypt<unsigned long>
  0009e	8d 8e 64 1a 00
	00		 lea	 ecx, DWORD PTR [esi+6756]
  000a4	c6 45 fc 06	 mov	 BYTE PTR __$EHRec$[ebp+8], 6
  000a8	e8 00 00 00 00	 call	 ??0?$CEncrypt@K@@QAE@XZ	; CEncrypt<unsigned long>::CEncrypt<unsigned long>

; 35   : 	m_ChargeState = CS_NONE;
; 36   : 	m_dwAttackStartTime = 0;
; 37   : 	m_iCurCombo = 0;
; 38   : 
; 39   : 	m_iCurAirJump = 0;
; 40   : 	m_fAirJumpPowerRate = 0.0f;

  000ad	0f 57 c0	 xorps	 xmm0, xmm0

; 41   : 
; 42   : 	m_iCurConsecutionCnt = 0;

  000b0	8d 45 08	 lea	 eax, DWORD PTR _value$613366[ebp]
  000b3	50		 push	 eax
  000b4	8d 8e 04 1a 00
	00		 lea	 ecx, DWORD PTR [esi+6660]
  000ba	c6 45 fc 07	 mov	 BYTE PTR __$EHRec$[ebp+8], 7
  000be	89 9e c4 19 00
	00		 mov	 DWORD PTR [esi+6596], ebx
  000c4	89 9e c8 19 00
	00		 mov	 DWORD PTR [esi+6600], ebx
  000ca	89 9e cc 19 00
	00		 mov	 DWORD PTR [esi+6604], ebx
  000d0	89 9e 58 0f 00
	00		 mov	 DWORD PTR [esi+3928], ebx
  000d6	f3 0f 11 86 48
	0f 00 00	 movss	 DWORD PTR [esi+3912], xmm0
  000de	89 5d 08	 mov	 DWORD PTR _value$613366[ebp], ebx
  000e1	e8 00 00 00 00	 call	 ?EncryptValueToPool@?$CEncrypt@H@@AAEXPBD@Z ; CEncrypt<int>::EncryptValueToPool

; 43   : 	m_dwConsecutionCheckTime = 0;

  000e6	8d 45 08	 lea	 eax, DWORD PTR _value$613370[ebp]
  000e9	50		 push	 eax
  000ea	8d 8e 64 1a 00
	00		 lea	 ecx, DWORD PTR [esi+6756]
  000f0	89 5d 08	 mov	 DWORD PTR _value$613370[ebp], ebx
  000f3	e8 00 00 00 00	 call	 ?EncryptValueToPool@?$CEncrypt@K@@AAEXPBD@Z ; CEncrypt<unsigned long>::EncryptValueToPool

; 44   : 
; 45   : 	m_bCharged = false;

  000f8	88 9e d0 19 00
	00		 mov	 BYTE PTR [esi+6608], bl

; 46   : }

  000fe	8b c6		 mov	 eax, esi
  00100	e8 00 00 00 00	 call	 __EH_epilog3
  00105	c2 04 00	 ret	 4
_TEXT	ENDS
;	COMDAT text$x
text$x	SEGMENT
__unwindfunclet$??0ioConsecutionItem@@QAE@ABV0@@Z$0:
  00000	8b 4d f0	 mov	 ecx, DWORD PTR _this$[ebp]
  00003	e9 00 00 00 00	 jmp	 ??1ioWeaponItem@@UAE@XZ	; ioWeaponItem::~ioWeaponItem
__unwindfunclet$??0ioConsecutionItem@@QAE@ABV0@@Z$1:
  00008	8b 4d f0	 mov	 ecx, DWORD PTR _this$[ebp]
  0000b	81 c1 54 19 00
	00		 add	 ecx, 6484		; 00001954H
  00011	e9 00 00 00 00	 jmp	 ??1?$vector@VioHashString@@V?$allocator@VioHashString@@@std@@@std@@QAE@XZ ; std::vector<ioHashString,std::allocator<ioHashString> >::~vector<ioHashString,std::allocator<ioHashString> >
__unwindfunclet$??0ioConsecutionItem@@QAE@ABV0@@Z$2:
  00016	8b 4d f0	 mov	 ecx, DWORD PTR _this$[ebp]
  00019	81 c1 64 19 00
	00		 add	 ecx, 6500		; 00001964H
  0001f	e9 00 00 00 00	 jmp	 ??1?$vector@UAttackAttribute@@V?$allocator@UAttackAttribute@@@std@@@std@@QAE@XZ ; std::vector<AttackAttribute,std::allocator<AttackAttribute> >::~vector<AttackAttribute,std::allocator<AttackAttribute> >
__unwindfunclet$??0ioConsecutionItem@@QAE@ABV0@@Z$3:
  00024	8b 4d f0	 mov	 ecx, DWORD PTR _this$[ebp]
  00027	81 c1 74 19 00
	00		 add	 ecx, 6516		; 00001974H
  0002d	e9 00 00 00 00	 jmp	 ??1AttackAttribute@@QAE@XZ
__unwindfunclet$??0ioConsecutionItem@@QAE@ABV0@@Z$4:
  00032	8b 4d f0	 mov	 ecx, DWORD PTR _this$[ebp]
  00035	81 c1 d4 19 00
	00		 add	 ecx, 6612		; 000019d4H
  0003b	e9 00 00 00 00	 jmp	 ??1?$CEncrypt@H@@UAE@XZ	; CEncrypt<int>::~CEncrypt<int>
__unwindfunclet$??0ioConsecutionItem@@QAE@ABV0@@Z$5:
  00040	8b 4d f0	 mov	 ecx, DWORD PTR _this$[ebp]
  00043	81 c1 04 1a 00
	00		 add	 ecx, 6660		; 00001a04H
  00049	e9 00 00 00 00	 jmp	 ??1?$CEncrypt@H@@UAE@XZ	; CEncrypt<int>::~CEncrypt<int>
__unwindfunclet$??0ioConsecutionItem@@QAE@ABV0@@Z$6:
  0004e	8b 4d f0	 mov	 ecx, DWORD PTR _this$[ebp]
  00051	81 c1 34 1a 00
	00		 add	 ecx, 6708		; 00001a34H
  00057	e9 00 00 00 00	 jmp	 ??1?$CEncrypt@K@@UAE@XZ	; CEncrypt<unsigned long>::~CEncrypt<unsigned long>
__unwindfunclet$??0ioConsecutionItem@@QAE@ABV0@@Z$7:
  0005c	8b 4d f0	 mov	 ecx, DWORD PTR _this$[ebp]
  0005f	81 c1 64 1a 00
	00		 add	 ecx, 6756		; 00001a64H
  00065	e9 00 00 00 00	 jmp	 ??1?$CEncrypt@K@@UAE@XZ	; CEncrypt<unsigned long>::~CEncrypt<unsigned long>
__ehhandler$??0ioConsecutionItem@@QAE@ABV0@@Z:
  0006a	8b 54 24 08	 mov	 edx, DWORD PTR [esp+8]
  0006e	8d 42 0c	 lea	 eax, DWORD PTR [edx+12]
  00071	8b 4a ec	 mov	 ecx, DWORD PTR [edx-20]
  00074	33 c8		 xor	 ecx, eax
  00076	e8 00 00 00 00	 call	 @__security_check_cookie@4
  0007b	b8 00 00 00 00	 mov	 eax, OFFSET __ehfuncinfo$??0ioConsecutionItem@@QAE@ABV0@@Z
  00080	e9 00 00 00 00	 jmp	 ___CxxFrameHandler3
text$x	ENDS
??0ioConsecutionItem@@QAE@ABV0@@Z ENDP			; ioConsecutionItem::ioConsecutionItem
PUBLIC	??1ioConsecutionItem@@UAE@XZ			; ioConsecutionItem::~ioConsecutionItem
;	COMDAT xdata$x
; File c:\program files (x86)\microsoft visual studio 10.0\vc\include\vector
xdata$x	SEGMENT
__ehfuncinfo$??1ioConsecutionItem@@UAE@XZ DD 019930522H
	DD	07H
	DD	FLAT:__unwindtable$??1ioConsecutionItem@@UAE@XZ
	DD	2 DUP(00H)
	DD	2 DUP(00H)
	DD	00H
	DD	01H
__unwindtable$??1ioConsecutionItem@@UAE@XZ DD 0ffffffffH
	DD	FLAT:__unwindfunclet$??1ioConsecutionItem@@UAE@XZ$0
	DD	00H
	DD	FLAT:__unwindfunclet$??1ioConsecutionItem@@UAE@XZ$1
	DD	01H
	DD	FLAT:__unwindfunclet$??1ioConsecutionItem@@UAE@XZ$2
	DD	02H
	DD	FLAT:__unwindfunclet$??1ioConsecutionItem@@UAE@XZ$3
	DD	03H
	DD	FLAT:__unwindfunclet$??1ioConsecutionItem@@UAE@XZ$4
	DD	04H
	DD	FLAT:__unwindfunclet$??1ioConsecutionItem@@UAE@XZ$5
	DD	05H
	DD	FLAT:__unwindfunclet$??1ioConsecutionItem@@UAE@XZ$6
; Function compile flags: /Ogsp
; File d:\lost saga for developer\youtube\tutorial\source\src\lsclient\ioconsecutionitem.cpp
xdata$x	ENDS
;	COMDAT ??1ioConsecutionItem@@UAE@XZ
_TEXT	SEGMENT
_this$ = -16						; size = 4
__$EHRec$ = -12						; size = 12
??1ioConsecutionItem@@UAE@XZ PROC			; ioConsecutionItem::~ioConsecutionItem, COMDAT
; _this$ = ecx

; 49   : {

  00000	6a 04		 push	 4
  00002	b8 00 00 00 00	 mov	 eax, __ehhandler$??1ioConsecutionItem@@UAE@XZ
  00007	e8 00 00 00 00	 call	 __EH_prolog3
  0000c	8b f1		 mov	 esi, ecx
  0000e	89 75 f0	 mov	 DWORD PTR _this$[ebp], esi
  00011	c7 06 00 00 00
	00		 mov	 DWORD PTR [esi], OFFSET ??_7ioConsecutionItem@@6B@

; 50   : }

  00017	bf 00 00 00 00	 mov	 edi, OFFSET ??_7?$CEncrypt@K@@6B@
  0001c	8d 8e 70 1a 00
	00		 lea	 ecx, DWORD PTR [esi+6768]
  00022	c7 45 fc 06 00
	00 00		 mov	 DWORD PTR __$EHRec$[ebp+8], 6
  00029	89 be 64 1a 00
	00		 mov	 DWORD PTR [esi+6756], edi
  0002f	e8 00 00 00 00	 call	 ??1ccddaabb@@UAE@XZ	; ccddaabb::~ccddaabb
  00034	8d 8e 40 1a 00
	00		 lea	 ecx, DWORD PTR [esi+6720]
  0003a	c6 45 fc 05	 mov	 BYTE PTR __$EHRec$[ebp+8], 5
  0003e	89 be 34 1a 00
	00		 mov	 DWORD PTR [esi+6708], edi
  00044	e8 00 00 00 00	 call	 ??1ccddaabb@@UAE@XZ	; ccddaabb::~ccddaabb
  00049	bf 00 00 00 00	 mov	 edi, OFFSET ??_7?$CEncrypt@H@@6B@
  0004e	8d 8e 10 1a 00
	00		 lea	 ecx, DWORD PTR [esi+6672]
  00054	c6 45 fc 04	 mov	 BYTE PTR __$EHRec$[ebp+8], 4
  00058	89 be 04 1a 00
	00		 mov	 DWORD PTR [esi+6660], edi
  0005e	e8 00 00 00 00	 call	 ??1ccddaabb@@UAE@XZ	; ccddaabb::~ccddaabb
  00063	8d 8e e0 19 00
	00		 lea	 ecx, DWORD PTR [esi+6624]
  00069	c6 45 fc 03	 mov	 BYTE PTR __$EHRec$[ebp+8], 3
  0006d	89 be d4 19 00
	00		 mov	 DWORD PTR [esi+6612], edi
  00073	e8 00 00 00 00	 call	 ??1ccddaabb@@UAE@XZ	; ccddaabb::~ccddaabb
  00078	8d 8e 74 19 00
	00		 lea	 ecx, DWORD PTR [esi+6516]
  0007e	c6 45 fc 02	 mov	 BYTE PTR __$EHRec$[ebp+8], 2
  00082	e8 00 00 00 00	 call	 ??1AttackAttribute@@QAE@XZ
  00087	8d 8e 64 19 00
	00		 lea	 ecx, DWORD PTR [esi+6500]
  0008d	c6 45 fc 01	 mov	 BYTE PTR __$EHRec$[ebp+8], 1
  00091	e8 00 00 00 00	 call	 ?_Tidy@?$vector@UAttackAttribute@@V?$allocator@UAttackAttribute@@@std@@@std@@IAEXXZ ; std::vector<AttackAttribute,std::allocator<AttackAttribute> >::_Tidy
  00096	8d 8e 54 19 00
	00		 lea	 ecx, DWORD PTR [esi+6484]
  0009c	c6 45 fc 00	 mov	 BYTE PTR __$EHRec$[ebp+8], 0
  000a0	e8 00 00 00 00	 call	 ?_Tidy@?$vector@VioHashString@@V?$allocator@VioHashString@@@std@@@std@@IAEXXZ ; std::vector<ioHashString,std::allocator<ioHashString> >::_Tidy
  000a5	83 4d fc ff	 or	 DWORD PTR __$EHRec$[ebp+8], -1
  000a9	8b ce		 mov	 ecx, esi
  000ab	e8 00 00 00 00	 call	 ??1ioWeaponItem@@UAE@XZ	; ioWeaponItem::~ioWeaponItem
  000b0	e8 00 00 00 00	 call	 __EH_epilog3
  000b5	c3		 ret	 0
_TEXT	ENDS
;	COMDAT text$x
text$x	SEGMENT
__unwindfunclet$??1ioConsecutionItem@@UAE@XZ$0:
  00000	8b 4d f0	 mov	 ecx, DWORD PTR _this$[ebp]
  00003	e9 00 00 00 00	 jmp	 ??1ioWeaponItem@@UAE@XZ	; ioWeaponItem::~ioWeaponItem
__unwindfunclet$??1ioConsecutionItem@@UAE@XZ$1:
  00008	8b 4d f0	 mov	 ecx, DWORD PTR _this$[ebp]
  0000b	81 c1 54 19 00
	00		 add	 ecx, 6484		; 00001954H
  00011	e9 00 00 00 00	 jmp	 ??1?$vector@VioHashString@@V?$allocator@VioHashString@@@std@@@std@@QAE@XZ ; std::vector<ioHashString,std::allocator<ioHashString> >::~vector<ioHashString,std::allocator<ioHashString> >
__unwindfunclet$??1ioConsecutionItem@@UAE@XZ$2:
  00016	8b 4d f0	 mov	 ecx, DWORD PTR _this$[ebp]
  00019	81 c1 64 19 00
	00		 add	 ecx, 6500		; 00001964H
  0001f	e9 00 00 00 00	 jmp	 ??1?$vector@UAttackAttribute@@V?$allocator@UAttackAttribute@@@std@@@std@@QAE@XZ ; std::vector<AttackAttribute,std::allocator<AttackAttribute> >::~vector<AttackAttribute,std::allocator<AttackAttribute> >
__unwindfunclet$??1ioConsecutionItem@@UAE@XZ$3:
  00024	8b 4d f0	 mov	 ecx, DWORD PTR _this$[ebp]
  00027	81 c1 74 19 00
	00		 add	 ecx, 6516		; 00001974H
  0002d	e9 00 00 00 00	 jmp	 ??1AttackAttribute@@QAE@XZ
__unwindfunclet$??1ioConsecutionItem@@UAE@XZ$4:
  00032	8b 4d f0	 mov	 ecx, DWORD PTR _this$[ebp]
  00035	81 c1 d4 19 00
	00		 add	 ecx, 6612		; 000019d4H
  0003b	e9 00 00 00 00	 jmp	 ??1?$CEncrypt@H@@UAE@XZ	; CEncrypt<int>::~CEncrypt<int>
__unwindfunclet$??1ioConsecutionItem@@UAE@XZ$5:
  00040	8b 4d f0	 mov	 ecx, DWORD PTR _this$[ebp]
  00043	81 c1 04 1a 00
	00		 add	 ecx, 6660		; 00001a04H
  00049	e9 00 00 00 00	 jmp	 ??1?$CEncrypt@H@@UAE@XZ	; CEncrypt<int>::~CEncrypt<int>
__unwindfunclet$??1ioConsecutionItem@@UAE@XZ$6:
  0004e	8b 4d f0	 mov	 ecx, DWORD PTR _this$[ebp]
  00051	81 c1 34 1a 00
	00		 add	 ecx, 6708		; 00001a34H
  00057	e9 00 00 00 00	 jmp	 ??1?$CEncrypt@K@@UAE@XZ	; CEncrypt<unsigned long>::~CEncrypt<unsigned long>
__ehhandler$??1ioConsecutionItem@@UAE@XZ:
  0005c	8b 54 24 08	 mov	 edx, DWORD PTR [esp+8]
  00060	8d 42 0c	 lea	 eax, DWORD PTR [edx+12]
  00063	8b 4a ec	 mov	 ecx, DWORD PTR [edx-20]
  00066	33 c8		 xor	 ecx, eax
  00068	e8 00 00 00 00	 call	 @__security_check_cookie@4
  0006d	b8 00 00 00 00	 mov	 eax, OFFSET __ehfuncinfo$??1ioConsecutionItem@@UAE@XZ
  00072	e9 00 00 00 00	 jmp	 ___CxxFrameHandler3
text$x	ENDS
??1ioConsecutionItem@@UAE@XZ ENDP			; ioConsecutionItem::~ioConsecutionItem
PUBLIC	??_C@_00CNPNBAHC@?$AA@				; `string'
PUBLIC	_rkLoader$GSCopy$
EXTRN	__imp_?LoadStringA@ioINILoader@@QAEXPBD0PADH@Z:PROC
EXTRN	__imp__wsprintfA:PROC
EXTRN	?LoadProperty@ioWeaponItem@@UAEXAAVioINILoader@@@Z:PROC ; ioWeaponItem::LoadProperty
;	COMDAT ??_C@_00CNPNBAHC@?$AA@
; File d:\lost saga for developer\youtube\tutorial\source\src\lsclient\stringprotect.h
CONST	SEGMENT
??_C@_00CNPNBAHC@?$AA@ DB 00H				; `string'
CONST	ENDS
;	COMDAT xdata$x
xdata$x	SEGMENT
__unwindtable$?LoadProperty@ioConsecutionItem@@UAEXAAVioINILoader@@@Z DD 0ffffffffH
	DD	FLAT:__unwindfunclet$?LoadProperty@ioConsecutionItem@@UAEXAAVioINILoader@@@Z$0
	DD	0ffffffffH
	DD	FLAT:__unwindfunclet$?LoadProperty@ioConsecutionItem@@UAEXAAVioINILoader@@@Z$1
__ehfuncinfo$?LoadProperty@ioConsecutionItem@@UAEXAAVioINILoader@@@Z DD 019930522H
	DD	02H
	DD	FLAT:__unwindtable$?LoadProperty@ioConsecutionItem@@UAEXAAVioINILoader@@@Z
	DD	2 DUP(00H)
	DD	2 DUP(00H)
	DD	00H
	DD	01H
; Function compile flags: /Ogsp
; File d:\lost saga for developer\youtube\tutorial\source\src\lsclient\ioconsecutionitem.cpp
xdata$x	ENDS
;	COMDAT ?LoadProperty@ioConsecutionItem@@UAEXAAVioINILoader@@@Z
_TEXT	SEGMENT
_kAttribute$600772 = -452				; size = 80
_iExtendCnt$ = -372					; size = 4
_rkLoader$GSCopy$ = -368				; size = 4
tv4392 = -364						; size = 4
_value$614003 = -364					; size = 4
_value$613873 = -364					; size = 4
$T613715 = -364						; size = 4
$T613622 = -364						; size = 4
_i$ = -364						; size = 4
_szBuf$ = -360						; size = 260
___encStr$600932 = -100					; size = 25
_szEncAttack$614032 = -68				; size = 19
__k$613890 = -44					; size = 23
__k$613760 = -44					; size = 20
__k$613464 = -40					; size = 18
___encStr$600776 = -40					; size = 17
$T613433 = -36						; size = 16
__$EHRec$ = -12						; size = 12
_rkLoader$ = 8						; size = 4
?LoadProperty@ioConsecutionItem@@UAEXAAVioINILoader@@@Z PROC ; ioConsecutionItem::LoadProperty, COMDAT
; _this$ = ecx

; 53   : {

  00000	68 b8 01 00 00	 push	 440			; 000001b8H
  00005	b8 00 00 00 00	 mov	 eax, __ehhandler$?LoadProperty@ioConsecutionItem@@UAEXAAVioINILoader@@@Z
  0000a	e8 00 00 00 00	 call	 __EH_prolog3_GS
  0000f	8b 75 08	 mov	 esi, DWORD PTR _rkLoader$[ebp]

; 54   : 	ioWeaponItem::LoadProperty( rkLoader );

  00012	56		 push	 esi
  00013	8b f9		 mov	 edi, ecx

; 62   : 	for( i=0 ; i<iExtendCnt ; i++ )

  00015	89 b5 90 fe ff
	ff		 mov	 DWORD PTR _rkLoader$GSCopy$[ebp], esi
  0001b	e8 00 00 00 00	 call	 ?LoadProperty@ioWeaponItem@@UAEXAAVioINILoader@@@Z ; ioWeaponItem::LoadProperty
  00020	6a 04		 push	 4
  00022	c7 45 d8 88 94
	9f 8f		 mov	 DWORD PTR __k$613464[ebp], -1885367160 ; 8f9f9488H
  00029	c7 45 dc 83 88
	b4 8b		 mov	 DWORD PTR __k$613464[ebp+4], -1951102845 ; 8bb48883H
  00030	c7 45 e0 99 98
	8a 89		 mov	 DWORD PTR __k$613464[ebp+8], -1987405671 ; 898a9899H
  00037	c7 45 e4 86 b3
	88 84		 mov	 DWORD PTR __k$613464[ebp+12], -2071415930 ; 8488b386H
  0003e	8d 45 d8	 lea	 eax, DWORD PTR __k$613464[ebp]
  00041	33 db		 xor	 ebx, ebx
  00043	66 c7 45 e8 99
	00		 mov	 WORD PTR __k$613464[ebp+16], 153 ; 00000099H
  00049	59		 pop	 ecx
$LL312@LoadProper:

; 55   : 
; 56   : 	int i;
; 57   : 	char szBuf[MAX_PATH];
; 58   : 
; 59   : 	int iExtendCnt = rkLoader.LoadInt_e( "extend_attack_cnt", 0 );

  0004a	81 30 ed ec eb
	ea		 xor	 DWORD PTR [eax], -353637139 ; eaebecedH
  00050	83 c0 04	 add	 eax, 4
  00053	49		 dec	 ecx
  00054	75 f4		 jne	 SHORT $LL312@LoadProper
  00056	80 75 e8 ed	 xor	 BYTE PTR __k$613464[ebp+16], -19 ; ffffffedH
  0005a	53		 push	 ebx
  0005b	8d 45 d8	 lea	 eax, DWORD PTR __k$613464[ebp]
  0005e	50		 push	 eax
  0005f	8b ce		 mov	 ecx, esi
  00061	ff 15 00 00 00
	00		 call	 DWORD PTR __imp_?LoadInt@ioINILoader@@QAEHPBDH@Z

; 60   : 	m_vExtendAttributeList.clear();

  00067	8b 8f 64 19 00
	00		 mov	 ecx, DWORD PTR [edi+6500]
  0006d	89 85 8c fe ff
	ff		 mov	 DWORD PTR _iExtendCnt$[ebp], eax
  00073	8b 87 68 19 00
	00		 mov	 eax, DWORD PTR [edi+6504]
  00079	50		 push	 eax
  0007a	51		 push	 ecx
  0007b	8d 85 94 fe ff
	ff		 lea	 eax, DWORD PTR $T613622[ebp]
  00081	50		 push	 eax
  00082	8d 8f 64 19 00
	00		 lea	 ecx, DWORD PTR [edi+6500]
  00088	e8 00 00 00 00	 call	 ?erase@?$vector@UAttackAttribute@@V?$allocator@UAttackAttribute@@@std@@@std@@QAE?AV?$_Vector_iterator@V?$_Vector_val@UAttackAttribute@@V?$allocator@UAttackAttribute@@@std@@@std@@@2@V?$_Vector_const_iterator@V?$_Vector_val@UAttackAttribute@@V?$allocator@UAttackAttribute@@@std@@@std@@@2@0@Z ; std::vector<AttackAttribute,std::allocator<AttackAttribute> >::erase

; 61   : 	m_vExtendAttributeList.reserve( iExtendCnt );

  0008d	ff b5 8c fe ff
	ff		 push	 DWORD PTR _iExtendCnt$[ebp]
  00093	8d 8f 64 19 00
	00		 lea	 ecx, DWORD PTR [edi+6500]
  00099	e8 00 00 00 00	 call	 ?reserve@?$vector@UAttackAttribute@@V?$allocator@UAttackAttribute@@@std@@@std@@QAEXI@Z ; std::vector<AttackAttribute,std::allocator<AttackAttribute> >::reserve

; 62   : 	for( i=0 ; i<iExtendCnt ; i++ )

  0009e	89 9d 94 fe ff
	ff		 mov	 DWORD PTR _i$[ebp], ebx
  000a4	39 9d 8c fe ff
	ff		 cmp	 DWORD PTR _iExtendCnt$[ebp], ebx
  000aa	0f 8e b3 00 00
	00		 jle	 $LN202@LoadProper
$LL204@LoadProper:

; 63   : 	{
; 64   : 		AttackAttribute kAttribute;

  000b0	8d 8d 3c fe ff
	ff		 lea	 ecx, DWORD PTR _kAttribute$600772[ebp]
  000b6	e8 00 00 00 00	 call	 ??0AttackAttribute@@QAE@XZ ; AttackAttribute::AttackAttribute
  000bb	6a 04		 push	 4
  000bd	89 5d fc	 mov	 DWORD PTR __$EHRec$[ebp+8], ebx

; 65   : 		wsprintf_e( szBuf, "extend_attack0%d", i+1 );

  000c0	c7 45 d8 88 94
	9f 8f		 mov	 DWORD PTR ___encStr$600776[ebp], -1885367160 ; 8f9f9488H
  000c7	c7 45 dc 83 88
	b4 8b		 mov	 DWORD PTR ___encStr$600776[ebp+4], -1951102845 ; 8bb48883H
  000ce	c7 45 e0 99 98
	8a 89		 mov	 DWORD PTR ___encStr$600776[ebp+8], -1987405671 ; 898a9899H
  000d5	c7 45 e4 86 dc
	ce 8e		 mov	 DWORD PTR ___encStr$600776[ebp+12], -1899045754 ; 8ecedc86H
  000dc	8d 45 d8	 lea	 eax, DWORD PTR ___encStr$600776[ebp]
  000df	88 5d e8	 mov	 BYTE PTR ___encStr$600776[ebp+16], bl
  000e2	59		 pop	 ecx
$LL338@LoadProper:
  000e3	81 30 ed ec eb
	ea		 xor	 DWORD PTR [eax], -353637139 ; eaebecedH
  000e9	83 c0 04	 add	 eax, 4
  000ec	49		 dec	 ecx
  000ed	75 f4		 jne	 SHORT $LL338@LoadProper
  000ef	8b 85 94 fe ff
	ff		 mov	 eax, DWORD PTR _i$[ebp]
  000f5	40		 inc	 eax
  000f6	50		 push	 eax
  000f7	89 85 94 fe ff
	ff		 mov	 DWORD PTR tv4392[ebp], eax
  000fd	8d 45 d8	 lea	 eax, DWORD PTR ___encStr$600776[ebp]
  00100	50		 push	 eax
  00101	8d 85 98 fe ff
	ff		 lea	 eax, DWORD PTR _szBuf$[ebp]
  00107	50		 push	 eax
  00108	ff 15 00 00 00
	00		 call	 DWORD PTR __imp__wsprintfA

; 66   : 		LoadAttackAttribute( szBuf, kAttribute, rkLoader );

  0010e	ff b5 90 fe ff
	ff		 push	 DWORD PTR _rkLoader$GSCopy$[ebp]
  00114	8d 85 3c fe ff
	ff		 lea	 eax, DWORD PTR _kAttribute$600772[ebp]
  0011a	50		 push	 eax
  0011b	8d 85 98 fe ff
	ff		 lea	 eax, DWORD PTR _szBuf$[ebp]
  00121	50		 push	 eax
  00122	e8 00 00 00 00	 call	 ?LoadAttackAttribute@@YAXPBDAAUAttackAttribute@@AAVioINILoader@@@Z ; LoadAttackAttribute
  00127	83 c4 18	 add	 esp, 24			; 00000018H

; 67   : 		m_vExtendAttributeList.push_back( kAttribute );

  0012a	8d 85 3c fe ff
	ff		 lea	 eax, DWORD PTR _kAttribute$600772[ebp]
  00130	50		 push	 eax
  00131	8d 8f 64 19 00
	00		 lea	 ecx, DWORD PTR [edi+6500]
  00137	e8 00 00 00 00	 call	 ?push_back@?$vector@UAttackAttribute@@V?$allocator@UAttackAttribute@@@std@@@std@@QAEXABUAttackAttribute@@@Z ; std::vector<AttackAttribute,std::allocator<AttackAttribute> >::push_back

; 68   : 	}

  0013c	83 4d fc ff	 or	 DWORD PTR __$EHRec$[ebp+8], -1
  00140	8d 8d 3c fe ff
	ff		 lea	 ecx, DWORD PTR _kAttribute$600772[ebp]
  00146	e8 00 00 00 00	 call	 ??1AttackAttribute@@QAE@XZ
  0014b	8b 85 94 fe ff
	ff		 mov	 eax, DWORD PTR tv4392[ebp]
  00151	89 85 94 fe ff
	ff		 mov	 DWORD PTR _i$[ebp], eax
  00157	3b 85 8c fe ff
	ff		 cmp	 eax, DWORD PTR _iExtendCnt$[ebp]
  0015d	0f 8c 4d ff ff
	ff		 jl	 $LL204@LoadProper
$LN202@LoadProper:

; 69   : 
; 70   : 	m_AttackReadyAniList.clear();

  00163	8b 87 58 19 00
	00		 mov	 eax, DWORD PTR [edi+6488]
  00169	8b 8f 54 19 00
	00		 mov	 ecx, DWORD PTR [edi+6484]
  0016f	50		 push	 eax
  00170	51		 push	 ecx
  00171	8d 85 94 fe ff
	ff		 lea	 eax, DWORD PTR $T613715[ebp]
  00177	50		 push	 eax
  00178	8d 8f 54 19 00
	00		 lea	 ecx, DWORD PTR [edi+6484]
  0017e	e8 00 00 00 00	 call	 ?erase@?$vector@VioHashString@@V?$allocator@VioHashString@@@std@@@std@@QAE?AV?$_Vector_iterator@V?$_Vector_val@VioHashString@@V?$allocator@VioHashString@@@std@@@std@@@2@V?$_Vector_const_iterator@V?$_Vector_val@VioHashString@@V?$allocator@VioHashString@@@std@@@std@@@2@0@Z ; std::vector<ioHashString,std::allocator<ioHashString> >::erase

; 71   : 	for( i=0 ; i<iExtendCnt ; i++ )

  00183	33 c9		 xor	 ecx, ecx
  00185	39 9d 8c fe ff
	ff		 cmp	 DWORD PTR _iExtendCnt$[ebp], ebx
  0018b	0f 8e bd 00 00
	00		 jle	 $LN100@LoadProper
$LL102@LoadProper:

; 69   : 
; 70   : 	m_AttackReadyAniList.clear();

  00191	6a 06		 push	 6

; 72   : 	{
; 73   : 		wsprintf_e( szBuf, "attack_ready_animation%d", i+1 );

  00193	c7 45 9c 8c 98
	9f 8b		 mov	 DWORD PTR ___encStr$600932[ebp], -1952474996 ; 8b9f988cH
  0019a	c7 45 a0 8e 87
	b4 98		 mov	 DWORD PTR ___encStr$600932[ebp+4], -1732999282 ; 98b4878eH
  001a1	c7 45 a4 88 8d
	8f 93		 mov	 DWORD PTR ___encStr$600932[ebp+8], -1819308664 ; 938f8d88H
  001a8	c7 45 a8 b2 8d
	85 83		 mov	 DWORD PTR ___encStr$600932[ebp+12], -2088399438 ; 83858db2H
  001af	c7 45 ac 80 8d
	9f 83		 mov	 DWORD PTR ___encStr$600932[ebp+16], -2086695552 ; 839f8d80H
  001b6	c7 45 b0 82 82
	ce 8e		 mov	 DWORD PTR ___encStr$600932[ebp+20], -1899068798 ; 8ece8282H
  001bd	8d 45 9c	 lea	 eax, DWORD PTR ___encStr$600932[ebp]
  001c0	88 5d b4	 mov	 BYTE PTR ___encStr$600932[ebp+24], bl
  001c3	5a		 pop	 edx
$LL364@LoadProper:
  001c4	81 30 ed ec eb
	ea		 xor	 DWORD PTR [eax], -353637139 ; eaebecedH
  001ca	83 c0 04	 add	 eax, 4
  001cd	4a		 dec	 edx
  001ce	75 f4		 jne	 SHORT $LL364@LoadProper
  001d0	8d 41 01	 lea	 eax, DWORD PTR [ecx+1]
  001d3	50		 push	 eax
  001d4	89 85 94 fe ff
	ff		 mov	 DWORD PTR tv4392[ebp], eax
  001da	8d 45 9c	 lea	 eax, DWORD PTR ___encStr$600932[ebp]
  001dd	50		 push	 eax
  001de	8d 85 98 fe ff
	ff		 lea	 eax, DWORD PTR _szBuf$[ebp]
  001e4	50		 push	 eax
  001e5	ff 15 00 00 00
	00		 call	 DWORD PTR __imp__wsprintfA

; 74   : 		rkLoader.LoadString( szBuf, "", szBuf, MAX_PATH );

  001eb	8b 8d 90 fe ff
	ff		 mov	 ecx, DWORD PTR _rkLoader$GSCopy$[ebp]
  001f1	83 c4 0c	 add	 esp, 12			; 0000000cH
  001f4	68 04 01 00 00	 push	 260			; 00000104H
  001f9	8d 85 98 fe ff
	ff		 lea	 eax, DWORD PTR _szBuf$[ebp]
  001ff	50		 push	 eax
  00200	68 00 00 00 00	 push	 OFFSET ??_C@_00CNPNBAHC@?$AA@
  00205	50		 push	 eax
  00206	ff 15 00 00 00
	00		 call	 DWORD PTR __imp_?LoadStringA@ioINILoader@@QAEXPBD0PADH@Z

; 75   : 		m_AttackReadyAniList.push_back( ioHashString(szBuf) );

  0020c	8d 85 98 fe ff
	ff		 lea	 eax, DWORD PTR _szBuf$[ebp]
  00212	50		 push	 eax
  00213	8d 4d dc	 lea	 ecx, DWORD PTR $T613433[ebp]
  00216	ff 15 00 00 00
	00		 call	 DWORD PTR __imp_??0ioHashString@@QAE@PBD@Z
  0021c	50		 push	 eax
  0021d	8d 8f 54 19 00
	00		 lea	 ecx, DWORD PTR [edi+6484]
  00223	c7 45 fc 01 00
	00 00		 mov	 DWORD PTR __$EHRec$[ebp+8], 1
  0022a	e8 00 00 00 00	 call	 ?push_back@?$vector@VioHashString@@V?$allocator@VioHashString@@@std@@@std@@QAEX$$QAVioHashString@@@Z ; std::vector<ioHashString,std::allocator<ioHashString> >::push_back
  0022f	83 4d fc ff	 or	 DWORD PTR __$EHRec$[ebp+8], -1
  00233	8d 4d dc	 lea	 ecx, DWORD PTR $T613433[ebp]
  00236	ff 15 00 00 00
	00		 call	 DWORD PTR __imp_??1ioHashString@@QAE@XZ
  0023c	8b 8d 94 fe ff
	ff		 mov	 ecx, DWORD PTR tv4392[ebp]
  00242	3b 8d 8c fe ff
	ff		 cmp	 ecx, DWORD PTR _iExtendCnt$[ebp]
  00248	0f 8c 43 ff ff
	ff		 jl	 $LL102@LoadProper
$LN100@LoadProper:

; 76   : 	}
; 77   : 
; 78   : 	//
; 79   : 	m_iMaxConsecutionCnt = rkLoader.LoadInt_e( "max_consecution_cnt", 0 );

  0024e	6a 04		 push	 4
  00250	c7 45 d4 80 8d
	93 b5		 mov	 DWORD PTR __k$613760[ebp], -1248621184 ; b5938d80H
  00257	c7 45 d8 8e 83
	85 99		 mov	 DWORD PTR __k$613760[ebp+4], -1719303282 ; 9985838eH
  0025e	c7 45 dc 88 8f
	9e 9e		 mov	 DWORD PTR __k$613760[ebp+8], -1633775736 ; 9e9e8f88H
  00265	c7 45 e0 84 83
	85 b5		 mov	 DWORD PTR __k$613760[ebp+12], -1249541244 ; b5858384H
  0026c	8d 45 d4	 lea	 eax, DWORD PTR __k$613760[ebp]
  0026f	c7 45 e4 8e 82
	9f 00		 mov	 DWORD PTR __k$613760[ebp+16], 10453646 ; 009f828eH
  00276	59		 pop	 ecx
$LL470@LoadProper:
  00277	81 30 ed ec eb
	ea		 xor	 DWORD PTR [eax], -353637139 ; eaebecedH
  0027d	83 c0 04	 add	 eax, 4
  00280	49		 dec	 ecx
  00281	75 f4		 jne	 SHORT $LL470@LoadProper
  00283	6a 10		 push	 16			; 00000010H
  00285	5e		 pop	 esi
$LL467@LoadProper:
  00286	8b c6		 mov	 eax, esi
  00288	25 03 00 00 80	 and	 eax, -2147483645	; 80000003H
  0028d	79 05		 jns	 SHORT $LN719@LoadProper
  0028f	48		 dec	 eax
  00290	83 c8 fc	 or	 eax, -4			; fffffffcH
  00293	40		 inc	 eax
$LN719@LoadProper:
  00294	b1 ed		 mov	 cl, -19			; ffffffedH
  00296	2a c8		 sub	 cl, al
  00298	30 4c 35 d4	 xor	 BYTE PTR __k$613760[ebp+esi], cl
  0029c	46		 inc	 esi
  0029d	83 fe 13	 cmp	 esi, 19			; 00000013H
  002a0	7c e4		 jl	 SHORT $LL467@LoadProper
  002a2	8b 8d 90 fe ff
	ff		 mov	 ecx, DWORD PTR _rkLoader$GSCopy$[ebp]
  002a8	8b 35 00 00 00
	00		 mov	 esi, DWORD PTR __imp_?LoadInt@ioINILoader@@QAEHPBDH@Z
  002ae	53		 push	 ebx
  002af	8d 45 d4	 lea	 eax, DWORD PTR __k$613760[ebp]
  002b2	50		 push	 eax
  002b3	ff d6		 call	 esi
  002b5	89 85 94 fe ff
	ff		 mov	 DWORD PTR _value$613873[ebp], eax
  002bb	8d 85 94 fe ff
	ff		 lea	 eax, DWORD PTR _value$613873[ebp]
  002c1	50		 push	 eax
  002c2	8d 8f d4 19 00
	00		 lea	 ecx, DWORD PTR [edi+6612]
  002c8	e8 00 00 00 00	 call	 ?EncryptValueToPool@?$CEncrypt@H@@AAEXPBD@Z ; CEncrypt<int>::EncryptValueToPool
  002cd	6a 05		 push	 5

; 80   : 	m_dwConsecutionTime = (DWORD)rkLoader.LoadInt_e( "consecution_limit_time", 0 );

  002cf	c7 45 d4 8e 83
	85 99		 mov	 DWORD PTR __k$613890[ebp], -1719303282 ; 9985838eH
  002d6	c7 45 d8 88 8f
	9e 9e		 mov	 DWORD PTR __k$613890[ebp+4], -1633775736 ; 9e9e8f88H
  002dd	c7 45 dc 84 83
	85 b5		 mov	 DWORD PTR __k$613890[ebp+8], -1249541244 ; b5858384H
  002e4	c7 45 e0 81 85
	86 83		 mov	 DWORD PTR __k$613890[ebp+12], -2088335999 ; 83868581H
  002eb	c7 45 e4 99 b3
	9f 83		 mov	 DWORD PTR __k$613890[ebp+16], -2086685799 ; 839fb399H
  002f2	66 c7 45 e8 80
	89		 mov	 WORD PTR __k$613890[ebp+20], 35200 ; 00008980H
  002f8	8d 45 d4	 lea	 eax, DWORD PTR __k$613890[ebp]
  002fb	88 5d ea	 mov	 BYTE PTR __k$613890[ebp+22], bl
  002fe	59		 pop	 ecx
$LL578@LoadProper:
  002ff	81 30 ed ec eb
	ea		 xor	 DWORD PTR [eax], -353637139 ; eaebecedH
  00305	83 c0 04	 add	 eax, 4
  00308	49		 dec	 ecx
  00309	75 f4		 jne	 SHORT $LL578@LoadProper
  0030b	6a 14		 push	 20			; 00000014H
  0030d	58		 pop	 eax
$LL575@LoadProper:
  0030e	8b c8		 mov	 ecx, eax
  00310	81 e1 03 00 00
	80		 and	 ecx, -2147483645	; 80000003H
  00316	79 05		 jns	 SHORT $LN720@LoadProper
  00318	49		 dec	 ecx
  00319	83 c9 fc	 or	 ecx, -4			; fffffffcH
  0031c	41		 inc	 ecx
$LN720@LoadProper:
  0031d	b2 ed		 mov	 dl, -19			; ffffffedH
  0031f	2a d1		 sub	 dl, cl
  00321	30 54 05 d4	 xor	 BYTE PTR __k$613890[ebp+eax], dl
  00325	40		 inc	 eax
  00326	83 f8 16	 cmp	 eax, 22			; 00000016H
  00329	7c e3		 jl	 SHORT $LL575@LoadProper
  0032b	8b 8d 90 fe ff
	ff		 mov	 ecx, DWORD PTR _rkLoader$GSCopy$[ebp]
  00331	53		 push	 ebx
  00332	8d 45 d4	 lea	 eax, DWORD PTR __k$613890[ebp]
  00335	50		 push	 eax
  00336	ff d6		 call	 esi
  00338	89 85 94 fe ff
	ff		 mov	 DWORD PTR _value$614003[ebp], eax
  0033e	8d 85 94 fe ff
	ff		 lea	 eax, DWORD PTR _value$614003[ebp]
  00344	50		 push	 eax
  00345	8d 8f 34 1a 00
	00		 lea	 ecx, DWORD PTR [edi+6708]
  0034b	e8 00 00 00 00	 call	 ?EncryptValueToPool@?$CEncrypt@K@@AAEXPBD@Z ; CEncrypt<unsigned long>::EncryptValueToPool
  00350	6a 04		 push	 4

; 81   : 
; 82   : 	LoadAttackAttribute_e( "consecution_attack", m_ConsecutionAttribute, rkLoader );

  00352	c7 45 bc 8e 83
	85 99		 mov	 DWORD PTR _szEncAttack$614032[ebp], -1719303282 ; 9985838eH
  00359	c7 45 c0 88 8f
	9e 9e		 mov	 DWORD PTR _szEncAttack$614032[ebp+4], -1633775736 ; 9e9e8f88H
  00360	c7 45 c4 84 83
	85 b5		 mov	 DWORD PTR _szEncAttack$614032[ebp+8], -1249541244 ; b5858384H
  00367	c7 45 c8 8c 98
	9f 8b		 mov	 DWORD PTR _szEncAttack$614032[ebp+12], -1952474996 ; 8b9f988cH
  0036e	66 c7 45 cc 8e
	87		 mov	 WORD PTR _szEncAttack$614032[ebp+16], 34702 ; 0000878eH
  00374	8d 45 bc	 lea	 eax, DWORD PTR _szEncAttack$614032[ebp]
  00377	88 5d ce	 mov	 BYTE PTR _szEncAttack$614032[ebp+18], bl
  0037a	59		 pop	 ecx
$LL686@LoadProper:
  0037b	81 30 ed ec eb
	ea		 xor	 DWORD PTR [eax], -353637139 ; eaebecedH
  00381	83 c0 04	 add	 eax, 4
  00384	49		 dec	 ecx
  00385	75 f4		 jne	 SHORT $LL686@LoadProper
  00387	6a 10		 push	 16			; 00000010H
  00389	58		 pop	 eax
$LL683@LoadProper:
  0038a	8b c8		 mov	 ecx, eax
  0038c	81 e1 03 00 00
	80		 and	 ecx, -2147483645	; 80000003H
  00392	79 05		 jns	 SHORT $LN721@LoadProper
  00394	49		 dec	 ecx
  00395	83 c9 fc	 or	 ecx, -4			; fffffffcH
  00398	41		 inc	 ecx
$LN721@LoadProper:
  00399	b2 ed		 mov	 dl, -19			; ffffffedH
  0039b	2a d1		 sub	 dl, cl
  0039d	30 54 05 bc	 xor	 BYTE PTR _szEncAttack$614032[ebp+eax], dl
  003a1	40		 inc	 eax
  003a2	83 f8 12	 cmp	 eax, 18			; 00000012H
  003a5	7c e3		 jl	 SHORT $LL683@LoadProper
  003a7	ff b5 90 fe ff
	ff		 push	 DWORD PTR _rkLoader$GSCopy$[ebp]
  003ad	81 c7 74 19 00
	00		 add	 edi, 6516		; 00001974H
  003b3	8d 45 bc	 lea	 eax, DWORD PTR _szEncAttack$614032[ebp]
  003b6	57		 push	 edi
  003b7	50		 push	 eax
  003b8	e8 00 00 00 00	 call	 ?LoadAttackAttribute@@YAXPBDAAUAttackAttribute@@AAVioINILoader@@@Z ; LoadAttackAttribute
  003bd	83 c4 0c	 add	 esp, 12			; 0000000cH

; 83   : }

  003c0	e8 00 00 00 00	 call	 __EH_epilog3_GS
  003c5	c2 04 00	 ret	 4
_TEXT	ENDS
;	COMDAT text$x
text$x	SEGMENT
__unwindfunclet$?LoadProperty@ioConsecutionItem@@UAEXAAVioINILoader@@@Z$0:
  00000	8d 8d 3c fe ff
	ff		 lea	 ecx, DWORD PTR _kAttribute$600772[ebp]
  00006	e9 00 00 00 00	 jmp	 ??1AttackAttribute@@QAE@XZ
__unwindfunclet$?LoadProperty@ioConsecutionItem@@UAEXAAVioINILoader@@@Z$1:
  0000b	8d 4d dc	 lea	 ecx, DWORD PTR $T613433[ebp]
  0000e	ff 25 00 00 00
	00		 jmp	 DWORD PTR __imp_??1ioHashString@@QAE@XZ
__ehhandler$?LoadProperty@ioConsecutionItem@@UAEXAAVioINILoader@@@Z:
  00014	8b 54 24 08	 mov	 edx, DWORD PTR [esp+8]
  00018	8d 42 0c	 lea	 eax, DWORD PTR [edx+12]
  0001b	8b 8a 38 fe ff
	ff		 mov	 ecx, DWORD PTR [edx-456]
  00021	33 c8		 xor	 ecx, eax
  00023	e8 00 00 00 00	 call	 @__security_check_cookie@4
  00028	8b 4a fc	 mov	 ecx, DWORD PTR [edx-4]
  0002b	33 c8		 xor	 ecx, eax
  0002d	e8 00 00 00 00	 call	 @__security_check_cookie@4
  00032	b8 00 00 00 00	 mov	 eax, OFFSET __ehfuncinfo$?LoadProperty@ioConsecutionItem@@UAEXAAVioINILoader@@@Z
  00037	e9 00 00 00 00	 jmp	 ___CxxFrameHandler3
text$x	ENDS
?LoadProperty@ioConsecutionItem@@UAEXAAVioINILoader@@@Z ENDP ; ioConsecutionItem::LoadProperty
;	COMDAT xdata$x
xdata$x	SEGMENT
__unwindtable$?Clone@ioConsecutionItem@@UAEPAVioItem@@XZ DD 0ffffffffH
	DD	FLAT:__unwindfunclet$?Clone@ioConsecutionItem@@UAEPAVioItem@@XZ$0
__ehfuncinfo$?Clone@ioConsecutionItem@@UAEPAVioItem@@XZ DD 019930522H
	DD	01H
	DD	FLAT:__unwindtable$?Clone@ioConsecutionItem@@UAEPAVioItem@@XZ
	DD	2 DUP(00H)
	DD	2 DUP(00H)
	DD	00H
	DD	01H
; Function compile flags: /Ogsp
xdata$x	ENDS
;	COMDAT ?Clone@ioConsecutionItem@@UAEPAVioItem@@XZ
_TEXT	SEGMENT
$T614173 = -16						; size = 4
__$EHRec$ = -12						; size = 12
?Clone@ioConsecutionItem@@UAEPAVioItem@@XZ PROC		; ioConsecutionItem::Clone, COMDAT
; _this$ = ecx

; 86   : {

  00000	6a 04		 push	 4
  00002	b8 00 00 00 00	 mov	 eax, __ehhandler$?Clone@ioConsecutionItem@@UAEPAVioItem@@XZ
  00007	e8 00 00 00 00	 call	 __EH_prolog3
  0000c	8b f1		 mov	 esi, ecx

; 87   : 	return new ioConsecutionItem( *this );

  0000e	68 94 1a 00 00	 push	 6804			; 00001a94H
  00013	e8 00 00 00 00	 call	 ??2@YAPAXI@Z		; operator new
  00018	59		 pop	 ecx
  00019	8b c8		 mov	 ecx, eax
  0001b	89 4d f0	 mov	 DWORD PTR $T614173[ebp], ecx
  0001e	33 c0		 xor	 eax, eax
  00020	89 45 fc	 mov	 DWORD PTR __$EHRec$[ebp+8], eax
  00023	3b c8		 cmp	 ecx, eax
  00025	74 06		 je	 SHORT $LN3@Clone
  00027	56		 push	 esi
  00028	e8 00 00 00 00	 call	 ??0ioConsecutionItem@@QAE@ABV0@@Z ; ioConsecutionItem::ioConsecutionItem
$LN3@Clone:

; 88   : }

  0002d	e8 00 00 00 00	 call	 __EH_epilog3
  00032	c3		 ret	 0
_TEXT	ENDS
;	COMDAT text$x
text$x	SEGMENT
__unwindfunclet$?Clone@ioConsecutionItem@@UAEPAVioItem@@XZ$0:
  00000	ff 75 f0	 push	 DWORD PTR $T614173[ebp]
  00003	e8 00 00 00 00	 call	 ??3@YAXPAX@Z		; operator delete
  00008	59		 pop	 ecx
  00009	c3		 ret	 0
__ehhandler$?Clone@ioConsecutionItem@@UAEPAVioItem@@XZ:
  0000a	8b 54 24 08	 mov	 edx, DWORD PTR [esp+8]
  0000e	8d 42 0c	 lea	 eax, DWORD PTR [edx+12]
  00011	8b 4a ec	 mov	 ecx, DWORD PTR [edx-20]
  00014	33 c8		 xor	 ecx, eax
  00016	e8 00 00 00 00	 call	 @__security_check_cookie@4
  0001b	b8 00 00 00 00	 mov	 eax, OFFSET __ehfuncinfo$?Clone@ioConsecutionItem@@UAEPAVioItem@@XZ
  00020	e9 00 00 00 00	 jmp	 ___CxxFrameHandler3
text$x	ENDS
?Clone@ioConsecutionItem@@UAEPAVioItem@@XZ ENDP		; ioConsecutionItem::Clone
; Function compile flags: /Ogsp
;	COMDAT ??_GioConsecutionItem@@UAEPAXI@Z
_TEXT	SEGMENT
___flags$ = 8						; size = 4
??_GioConsecutionItem@@UAEPAXI@Z PROC			; ioConsecutionItem::`scalar deleting destructor', COMDAT
; _this$ = ecx
  00000	55		 push	 ebp
  00001	8b ec		 mov	 ebp, esp
  00003	56		 push	 esi
  00004	8b f1		 mov	 esi, ecx
  00006	e8 00 00 00 00	 call	 ??1ioConsecutionItem@@UAE@XZ ; ioConsecutionItem::~ioConsecutionItem
  0000b	f6 45 08 01	 test	 BYTE PTR ___flags$[ebp], 1
  0000f	74 07		 je	 SHORT $LN1@scalar@7
  00011	56		 push	 esi
  00012	e8 00 00 00 00	 call	 ??3@YAXPAX@Z		; operator delete
  00017	59		 pop	 ecx
$LN1@scalar@7:
  00018	8b c6		 mov	 eax, esi
  0001a	5e		 pop	 esi
  0001b	5d		 pop	 ebp
  0001c	c2 04 00	 ret	 4
??_GioConsecutionItem@@UAEPAXI@Z ENDP			; ioConsecutionItem::`scalar deleting destructor'
_TEXT	ENDS
END
