; Listing generated by Microsoft (R) Optimizing Compiler Version 16.00.30319.01 

	TITLE	D:\Lost Saga For Developer\Youtube\Tutorial\Source\src\LSClient\ioCopyOwnerDummyChar5.cpp
	.686P
	.XMM
	include listing.inc
	.model	flat

INCLUDELIB MSVCRT
INCLUDELIB OLDNAMES

PUBLIC	?_EEM_DS@?$deque@UD3DXVECTOR3@@V?$allocator@UD3DXVECTOR3@@@std@@@std@@2HB ; std::deque<D3DXVECTOR3,std::allocator<D3DXVECTOR3> >::_EEM_DS
;	COMDAT ?_EEM_DS@?$deque@UD3DXVECTOR3@@V?$allocator@UD3DXVECTOR3@@@std@@@std@@2HB
CONST	SEGMENT
?_EEM_DS@?$deque@UD3DXVECTOR3@@V?$allocator@UD3DXVECTOR3@@@std@@@std@@2HB DD 01H ; std::deque<D3DXVECTOR3,std::allocator<D3DXVECTOR3> >::_EEM_DS
CONST	ENDS
PUBLIC	?GetHeroTitle@ioBaseGUISupport@@QBEABHXZ	; ioBaseGUISupport::GetHeroTitle
; Function compile flags: /Ogsp
; File d:\lost saga for developer\youtube\tutorial\source\src\lsclient\iobaseguisupport.h
;	COMDAT ?GetHeroTitle@ioBaseGUISupport@@QBEABHXZ
_TEXT	SEGMENT
?GetHeroTitle@ioBaseGUISupport@@QBEABHXZ PROC		; ioBaseGUISupport::GetHeroTitle, COMDAT
; _this$ = ecx

; 266  : 	inline const int& GetHeroTitle() const { return m_iHeroTitle; }

  00000	8d 41 58	 lea	 eax, DWORD PTR [ecx+88]
  00003	c3		 ret	 0
?GetHeroTitle@ioBaseGUISupport@@QBEABHXZ ENDP		; ioBaseGUISupport::GetHeroTitle
_TEXT	ENDS
PUBLIC	?IsOwnerChar@ioBaseChar@@QBE_NXZ		; ioBaseChar::IsOwnerChar
; Function compile flags: /Ogsp
; File d:\lost saga for developer\youtube\tutorial\source\src\lsclient\iobasechar.h
;	COMDAT ?IsOwnerChar@ioBaseChar@@QBE_NXZ
_TEXT	SEGMENT
?IsOwnerChar@ioBaseChar@@QBE_NXZ PROC			; ioBaseChar::IsOwnerChar, COMDAT
; _this$ = ecx

; 1467 : 	inline bool IsOwnerChar() const { return m_bOwnerChar; }

  00000	8a 81 84 13 00
	00		 mov	 al, BYTE PTR [ecx+4996]
  00006	c3		 ret	 0
?IsOwnerChar@ioBaseChar@@QBE_NXZ ENDP			; ioBaseChar::IsOwnerChar
_TEXT	ENDS
PUBLIC	?GetEquipSlot@ioBaseChar@@QAEPAVioEquipSlot@@XZ	; ioBaseChar::GetEquipSlot
; Function compile flags: /Ogsp
;	COMDAT ?GetEquipSlot@ioBaseChar@@QAEPAVioEquipSlot@@XZ
_TEXT	SEGMENT
?GetEquipSlot@ioBaseChar@@QAEPAVioEquipSlot@@XZ PROC	; ioBaseChar::GetEquipSlot, COMDAT
; _this$ = ecx

; 1871 : 	ioEquipSlot* GetEquipSlot() { return m_pEquipSlot; }

  00000	8b 81 48 03 00
	00		 mov	 eax, DWORD PTR [ecx+840]
  00006	c3		 ret	 0
?GetEquipSlot@ioBaseChar@@QAEPAVioEquipSlot@@XZ ENDP	; ioBaseChar::GetEquipSlot
_TEXT	ENDS
PUBLIC	?GetLevel@ioBaseChar@@QBEHXZ			; ioBaseChar::GetLevel
; Function compile flags: /Ogsp
;	COMDAT ?GetLevel@ioBaseChar@@QBEHXZ
_TEXT	SEGMENT
?GetLevel@ioBaseChar@@QBEHXZ PROC			; ioBaseChar::GetLevel, COMDAT
; _this$ = ecx

; 2592 : 	inline int GetLevel() const { return m_iLevel; }

  00000	8b 81 cc 02 00
	00		 mov	 eax, DWORD PTR [ecx+716]
  00006	c3		 ret	 0
?GetLevel@ioBaseChar@@QBEHXZ ENDP			; ioBaseChar::GetLevel
_TEXT	ENDS
PUBLIC	?GetClassLevel@ioBaseChar@@QBEHXZ		; ioBaseChar::GetClassLevel
; Function compile flags: /Ogsp
;	COMDAT ?GetClassLevel@ioBaseChar@@QBEHXZ
_TEXT	SEGMENT
?GetClassLevel@ioBaseChar@@QBEHXZ PROC			; ioBaseChar::GetClassLevel, COMDAT
; _this$ = ecx

; 2593 : 	inline int GetClassLevel() const { return m_iClassLevel; }

  00000	8b 81 d0 02 00
	00		 mov	 eax, DWORD PTR [ecx+720]
  00006	c3		 ret	 0
?GetClassLevel@ioBaseChar@@QBEHXZ ENDP			; ioBaseChar::GetClassLevel
_TEXT	ENDS
PUBLIC	?GetCharName@ioBaseChar@@QBEABVioHashString@@XZ	; ioBaseChar::GetCharName
; Function compile flags: /Ogsp
;	COMDAT ?GetCharName@ioBaseChar@@QBEABVioHashString@@XZ
_TEXT	SEGMENT
?GetCharName@ioBaseChar@@QBEABVioHashString@@XZ PROC	; ioBaseChar::GetCharName, COMDAT
; _this$ = ecx

; 2594 : 	inline const ioHashString& GetCharName() const { return m_Name; }

  00000	8d 81 d4 02 00
	00		 lea	 eax, DWORD PTR [ecx+724]
  00006	c3		 ret	 0
?GetCharName@ioBaseChar@@QBEABVioHashString@@XZ ENDP	; ioBaseChar::GetCharName
_TEXT	ENDS
PUBLIC	?GetTargetRot@ioBaseChar@@QBEABUD3DXQUATERNION@@XZ ; ioBaseChar::GetTargetRot
; Function compile flags: /Ogsp
;	COMDAT ?GetTargetRot@ioBaseChar@@QBEABUD3DXQUATERNION@@XZ
_TEXT	SEGMENT
?GetTargetRot@ioBaseChar@@QBEABUD3DXQUATERNION@@XZ PROC	; ioBaseChar::GetTargetRot, COMDAT
; _this$ = ecx

; 2599 : 	inline const D3DXQUATERNION& GetTargetRot() const { return m_qtTargetRot; }

  00000	8d 81 a4 06 00
	00		 lea	 eax, DWORD PTR [ecx+1700]
  00006	c3		 ret	 0
?GetTargetRot@ioBaseChar@@QBEABUD3DXQUATERNION@@XZ ENDP	; ioBaseChar::GetTargetRot
_TEXT	ENDS
PUBLIC	?IsMale@ioBaseChar@@QBE_NXZ			; ioBaseChar::IsMale
; Function compile flags: /Ogsp
;	COMDAT ?IsMale@ioBaseChar@@QBE_NXZ
_TEXT	SEGMENT
?IsMale@ioBaseChar@@QBE_NXZ PROC			; ioBaseChar::IsMale, COMDAT
; _this$ = ecx

; 2775 : 	inline bool IsMale() const { return m_bMale; }

  00000	8a 81 20 03 00
	00		 mov	 al, BYTE PTR [ecx+800]
  00006	c3		 ret	 0
?IsMale@ioBaseChar@@QBE_NXZ ENDP			; ioBaseChar::IsMale
_TEXT	ENDS
PUBLIC	?GetCreator@ioBaseChar@@QAEPAVioPlayStage@@XZ	; ioBaseChar::GetCreator
; Function compile flags: /Ogsp
;	COMDAT ?GetCreator@ioBaseChar@@QAEPAVioPlayStage@@XZ
_TEXT	SEGMENT
?GetCreator@ioBaseChar@@QAEPAVioPlayStage@@XZ PROC	; ioBaseChar::GetCreator, COMDAT
; _this$ = ecx

; 4013 : 	inline ioPlayStage* GetCreator() { return m_pCreator; }

  00000	8b 81 44 03 00
	00		 mov	 eax, DWORD PTR [ecx+836]
  00006	c3		 ret	 0
?GetCreator@ioBaseChar@@QAEPAVioPlayStage@@XZ ENDP	; ioBaseChar::GetCreator
_TEXT	ENDS
PUBLIC	?IsHeroMatchMode@ioLadderTeamMgr@@QAE_NXZ	; ioLadderTeamMgr::IsHeroMatchMode
; Function compile flags: /Ogsp
; File d:\lost saga for developer\youtube\tutorial\source\src\lsclient\ioladderteammgr.h
;	COMDAT ?IsHeroMatchMode@ioLadderTeamMgr@@QAE_NXZ
_TEXT	SEGMENT
?IsHeroMatchMode@ioLadderTeamMgr@@QAE_NXZ PROC		; ioLadderTeamMgr::IsHeroMatchMode, COMDAT
; _this$ = ecx

; 274  : 	bool IsHeroMatchMode(){ return m_bHeroMatchMode; }

  00000	8a 81 be 04 00
	00		 mov	 al, BYTE PTR [ecx+1214]
  00006	c3		 ret	 0
?IsHeroMatchMode@ioLadderTeamMgr@@QAE_NXZ ENDP		; ioLadderTeamMgr::IsHeroMatchMode
_TEXT	ENDS
PUBLIC	??_7ioCopyOwnerDummyChar5@@6BioWorldEventReceiver@@@ ; ioCopyOwnerDummyChar5::`vftable'
PUBLIC	??_7ioCopyOwnerDummyChar5@@6BioPlayEntity@@@	; ioCopyOwnerDummyChar5::`vftable'
PUBLIC	??0ioCopyOwnerDummyChar5@@QAE@PAVioEntityGroup@@PAVioPlayMode@@@Z ; ioCopyOwnerDummyChar5::ioCopyOwnerDummyChar5
PUBLIC	??_R4ioCopyOwnerDummyChar5@@6BioPlayEntity@@@	; ioCopyOwnerDummyChar5::`RTTI Complete Object Locator'
PUBLIC	??_R0?AVioCopyOwnerDummyChar5@@@8		; ioCopyOwnerDummyChar5 `RTTI Type Descriptor'
PUBLIC	??_R3ioCopyOwnerDummyChar5@@8			; ioCopyOwnerDummyChar5::`RTTI Class Hierarchy Descriptor'
PUBLIC	??_R2ioCopyOwnerDummyChar5@@8			; ioCopyOwnerDummyChar5::`RTTI Base Class Array'
PUBLIC	??_R1A@?0A@EA@ioCopyOwnerDummyChar5@@8		; ioCopyOwnerDummyChar5::`RTTI Base Class Descriptor at (0,-1,0,64)'
PUBLIC	??_R1A@?0A@EA@ioDummyChar@@8			; ioDummyChar::`RTTI Base Class Descriptor at (0,-1,0,64)'
PUBLIC	??_R0?AVioDummyChar@@@8				; ioDummyChar `RTTI Type Descriptor'
PUBLIC	??_R3ioDummyChar@@8				; ioDummyChar::`RTTI Class Hierarchy Descriptor'
PUBLIC	??_R2ioDummyChar@@8				; ioDummyChar::`RTTI Base Class Array'
PUBLIC	??_R1A@?0A@EA@ioPlayEntity@@8			; ioPlayEntity::`RTTI Base Class Descriptor at (0,-1,0,64)'
PUBLIC	??_R0?AVioPlayEntity@@@8			; ioPlayEntity `RTTI Type Descriptor'
PUBLIC	??_R3ioPlayEntity@@8				; ioPlayEntity::`RTTI Class Hierarchy Descriptor'
PUBLIC	??_R2ioPlayEntity@@8				; ioPlayEntity::`RTTI Base Class Array'
PUBLIC	??_R1A@?0A@EA@ioGameEntity@@8			; ioGameEntity::`RTTI Base Class Descriptor at (0,-1,0,64)'
PUBLIC	??_R0?AVioGameEntity@@@8			; ioGameEntity `RTTI Type Descriptor'
PUBLIC	??_R3ioGameEntity@@8				; ioGameEntity::`RTTI Class Hierarchy Descriptor'
PUBLIC	??_R2ioGameEntity@@8				; ioGameEntity::`RTTI Base Class Array'
PUBLIC	??_R1A@?0A@EA@ioEntityEvent@@8			; ioEntityEvent::`RTTI Base Class Descriptor at (0,-1,0,64)'
PUBLIC	??_R0?AVioEntityEvent@@@8			; ioEntityEvent `RTTI Type Descriptor'
PUBLIC	??_R3ioEntityEvent@@8				; ioEntityEvent::`RTTI Class Hierarchy Descriptor'
PUBLIC	??_R2ioEntityEvent@@8				; ioEntityEvent::`RTTI Base Class Array'
PUBLIC	??_R1BMI@?0A@EA@ioWorldEventReceiver@@8		; ioWorldEventReceiver::`RTTI Base Class Descriptor at (456,-1,0,64)'
PUBLIC	??_R0?AVioWorldEventReceiver@@@8		; ioWorldEventReceiver `RTTI Type Descriptor'
PUBLIC	??_R3ioWorldEventReceiver@@8			; ioWorldEventReceiver::`RTTI Class Hierarchy Descriptor'
PUBLIC	??_R2ioWorldEventReceiver@@8			; ioWorldEventReceiver::`RTTI Base Class Array'
PUBLIC	??_R1A@?0A@EA@ioWorldEventReceiver@@8		; ioWorldEventReceiver::`RTTI Base Class Descriptor at (0,-1,0,64)'
PUBLIC	?IsCollisionAvailableWeapon@ioCopyOwnerDummyChar5@@UAE_NPAVioWeapon@@@Z ; ioCopyOwnerDummyChar5::IsCollisionAvailableWeapon
PUBLIC	?LoadProperty@ioCopyOwnerDummyChar5@@UAEXAAVioINILoader@@@Z ; ioCopyOwnerDummyChar5::LoadProperty
PUBLIC	?RenderGauge@ioCopyOwnerDummyChar5@@UAEXXZ	; ioCopyOwnerDummyChar5::RenderGauge
PUBLIC	?SetTeam@ioPlayEntity@@UAEXW4TeamType@@@Z	; ioPlayEntity::SetTeam
PUBLIC	?ProcessState@ioCopyOwnerDummyChar5@@UAEXMK@Z	; ioCopyOwnerDummyChar5::ProcessState
PUBLIC	?ProcessPos@ioCopyOwnerDummyChar5@@UAEXM@Z	; ioCopyOwnerDummyChar5::ProcessPos
PUBLIC	?DropZoneCheck@ioCopyOwnerDummyChar5@@MAEXXZ	; ioCopyOwnerDummyChar5::DropZoneCheck
PUBLIC	?IsDummyCharMidSync@ioDummyChar@@UAE_NXZ	; ioDummyChar::IsDummyCharMidSync
PUBLIC	??_R4ioCopyOwnerDummyChar5@@6BioWorldEventReceiver@@@ ; ioCopyOwnerDummyChar5::`RTTI Complete Object Locator'
PUBLIC	??_EioCopyOwnerDummyChar5@@WBMI@AEPAXI@Z	; [thunk]:ioCopyOwnerDummyChar5::`vector deleting destructor'
EXTRN	??1ioDummyChar@@UAE@XZ:PROC			; ioDummyChar::~ioDummyChar
EXTRN	__imp_??0ioHashString@@QAE@XZ:PROC
EXTRN	??0ioDummyChar@@QAE@PAVioEntityGroup@@PAVioPlayMode@@@Z:PROC ; ioDummyChar::ioDummyChar
EXTRN	___CxxFrameHandler3:PROC
EXTRN	@__security_check_cookie@4:PROC
EXTRN	__EH_epilog3:PROC
EXTRN	__EH_prolog3:PROC
EXTRN	??_7type_info@@6B@:QWORD			; type_info::`vftable'
EXTRN	?AddEntityEvent@ioDummyChar@@UAEXPAVioEntity@@@Z:PROC ; ioDummyChar::AddEntityEvent
EXTRN	??_EioCopyOwnerDummyChar5@@UAEPAXI@Z:PROC	; ioCopyOwnerDummyChar5::`vector deleting destructor'
EXTRN	?Update@ioDummyChar@@UAEXMKK@Z:PROC		; ioDummyChar::Update
EXTRN	?UpdateAfter@ioDummyChar@@UAEXM@Z:PROC		; ioDummyChar::UpdateAfter
EXTRN	?GetTypeID@ioPlayEntity@@UBEHXZ:PROC		; ioPlayEntity::GetTypeID
EXTRN	?IsNeedCheckMapCollision@ioDummyChar@@UBE_NXZ:PROC ; ioDummyChar::IsNeedCheckMapCollision
EXTRN	?IsMountAvailable@ioDummyChar@@UBE_NXZ:PROC	; ioDummyChar::IsMountAvailable
EXTRN	?IsMountingAvailable@ioDummyChar@@UBE_NXZ:PROC	; ioDummyChar::IsMountingAvailable
EXTRN	?IsNowMountEnable@ioDummyChar@@UBE_NXZ:PROC	; ioDummyChar::IsNowMountEnable
EXTRN	?IsAllWeaponDefence@ioGameEntity@@UBE_NXZ:PROC	; ioGameEntity::IsAllWeaponDefence
EXTRN	?HasEntity@ioGameEntity@@UAE_NABVioHashString@@@Z:PROC ; ioGameEntity::HasEntity
EXTRN	?AddEntity@ioGameEntity@@UAEPAVioEntity@@ABVioHashString@@@Z:PROC ; ioGameEntity::AddEntity
EXTRN	?DestroyEntity@ioGameEntity@@UAE_NABVioHashString@@@Z:PROC ; ioGameEntity::DestroyEntity
EXTRN	?GetEntity@ioGameEntity@@UAEPAVioEntity@@ABVioHashString@@@Z:PROC ; ioGameEntity::GetEntity
EXTRN	?UpdateBound@ioGameEntity@@MBEXXZ:PROC		; ioGameEntity::UpdateBound
EXTRN	?UpdateBottomHeight@ioDummyChar@@MBEXXZ:PROC	; ioDummyChar::UpdateBottomHeight
EXTRN	?NeedUpdateBottomHeight@ioDummyChar@@UAEXXZ:PROC ; ioDummyChar::NeedUpdateBottomHeight
EXTRN	?SetWorldPosition@ioGameEntity@@UAEXABUD3DXVECTOR3@@@Z:PROC ; ioGameEntity::SetWorldPosition
EXTRN	?SetWorldOrientation@ioGameEntity@@UAEXABUD3DXQUATERNION@@@Z:PROC ; ioGameEntity::SetWorldOrientation
EXTRN	?SetWorldScale@ioGameEntity@@UAEXABUD3DXVECTOR3@@@Z:PROC ; ioGameEntity::SetWorldScale
EXTRN	?Translate@ioDummyChar@@UAEXABUD3DXVECTOR3@@@Z:PROC ; ioDummyChar::Translate
EXTRN	?TranslateByConveyer@ioDummyChar@@UAEXABUD3DXVECTOR3@@@Z:PROC ; ioDummyChar::TranslateByConveyer
EXTRN	?TranslateByWorldEntity@ioDummyChar@@UAEXABUD3DXVECTOR3@@@Z:PROC ; ioDummyChar::TranslateByWorldEntity
EXTRN	?MapCollisionPushingTranslate@ioDummyChar@@UAEXABUD3DXVECTOR3@@@Z:PROC ; ioDummyChar::MapCollisionPushingTranslate
EXTRN	?DontMoveCollisionPushingTranslate@ioGameEntity@@UAEXPAV1@ABUD3DXVECTOR3@@@Z:PROC ; ioGameEntity::DontMoveCollisionPushingTranslate
EXTRN	?Rotate@ioGameEntity@@UAEXABUD3DXVECTOR3@@MW4TransformSpace@ioNode@@@Z:PROC ; ioGameEntity::Rotate
EXTRN	?Scale@ioGameEntity@@UAEXMMM@Z:PROC		; ioGameEntity::Scale
EXTRN	?Scale@ioGameEntity@@UAEXABUD3DXVECTOR3@@@Z:PROC ; ioGameEntity::Scale
EXTRN	?GetWorldPosition@ioGameEntity@@UBEABUD3DXVECTOR3@@XZ:PROC ; ioGameEntity::GetWorldPosition
EXTRN	?GetWorldOrientation@ioGameEntity@@UBEABUD3DXQUATERNION@@XZ:PROC ; ioGameEntity::GetWorldOrientation
EXTRN	?GetWorldScale@ioGameEntity@@UBEABUD3DXVECTOR3@@XZ:PROC ; ioGameEntity::GetWorldScale
EXTRN	?ApplyWeapon@ioDummyChar@@UAE?AW4ApplyWeaponExp@@PAVioWeapon@@@Z:PROC ; ioDummyChar::ApplyWeapon
EXTRN	?IsCollisionAvailableRange@ioPlayEntity@@UAE_NPAVioWeapon@@@Z:PROC ; ioPlayEntity::IsCollisionAvailableRange
EXTRN	?IsEntityCollisionSkipState@ioDummyChar@@UBE_NPAVioGameEntity@@@Z:PROC ; ioDummyChar::IsEntityCollisionSkipState
EXTRN	?IsCharCollisionSkipState@ioDummyChar@@UBE_NW4TeamType@@H@Z:PROC ; ioDummyChar::IsCharCollisionSkipState
EXTRN	?IsWoundedCollision@ioPlayEntity@@UBE_NABVioOrientBox@@PAUD3DXVECTOR3@@@Z:PROC ; ioPlayEntity::IsWoundedCollision
EXTRN	?GetAttackCollisionBox@ioDummyChar@@UAE?AVioOrientBox@@W4AniCollisionType@@_N@Z:PROC ; ioDummyChar::GetAttackCollisionBox
EXTRN	?CheckSphereDistance@ioPlayEntity@@UBE_NABUD3DXVECTOR3@@MAAM@Z:PROC ; ioPlayEntity::CheckSphereDistance
EXTRN	?CheckSpherePoint@ioPlayEntity@@UBE_NABUD3DXVECTOR3@@MAAU2@@Z:PROC ; ioPlayEntity::CheckSpherePoint
EXTRN	?CheckCylinderPoint@ioPlayEntity@@UBE_NABVioCylinder@@ABUD3DXVECTOR3@@AAU3@@Z:PROC ; ioPlayEntity::CheckCylinderPoint
EXTRN	?GetSubType@ioDummyChar@@UBE?AW4PlaySubType@ioPlayEntity@@XZ:PROC ; ioDummyChar::GetSubType
EXTRN	?GetArmorType@ioDummyChar@@UBE?AW4ArmorType@@XZ:PROC ; ioDummyChar::GetArmorType
EXTRN	?DontMoveEntityLevel@ioDummyChar@@UBEHXZ:PROC	; ioDummyChar::DontMoveEntityLevel
EXTRN	?NotifyDontMoveCollisionPushingSkip@ioPlayEntity@@UAEXPAVioGameEntity@@@Z:PROC ; ioPlayEntity::NotifyDontMoveCollisionPushingSkip
EXTRN	?GetWorldEventReceiver@ioDummyChar@@UAEPAVioWorldEventReceiver@@XZ:PROC ; ioDummyChar::GetWorldEventReceiver
EXTRN	?Revival@ioPlayEntity@@UAEXXZ:PROC		; ioPlayEntity::Revival
EXTRN	?UpdateGauge@ioDummyChar@@UAEXXZ:PROC		; ioDummyChar::UpdateGauge
EXTRN	?FillMaxHP@ioPlayEntity@@UAEXXZ:PROC		; ioPlayEntity::FillMaxHP
EXTRN	?ProcessRecovery@ioPlayEntity@@MAEXXZ:PROC	; ioPlayEntity::ProcessRecovery
EXTRN	?AddHeadDamageInfo@ioPlayEntity@@UAEXH_N@Z:PROC	; ioPlayEntity::AddHeadDamageInfo
EXTRN	?RenderHeadInfoList@ioPlayEntity@@UAEXHH@Z:PROC	; ioPlayEntity::RenderHeadInfoList
EXTRN	?UpdateHeadInfoList@ioPlayEntity@@MAEXK@Z:PROC	; ioPlayEntity::UpdateHeadInfoList
EXTRN	?InitDummyCharInfo@ioDummyChar@@UAEXHKABUD3DXVECTOR3@@0M_N@Z:PROC ; ioDummyChar::InitDummyCharInfo
EXTRN	?TestMapCollision@ioDummyChar@@UAE_NPAVioOpcodeShape@@PAVioPlayStage@@PBUD3DXMATRIX@@@Z:PROC ; ioDummyChar::TestMapCollision
EXTRN	?CheckEntityCollision@ioDummyChar@@UAEXPAVioPlayEntity@@@Z:PROC ; ioDummyChar::CheckEntityCollision
EXTRN	?GetDummyGrassType@ioDummyChar@@UAEHXZ:PROC	; ioDummyChar::GetDummyGrassType
EXTRN	?IsActivateWeapon@ioDummyChar@@UAE_NXZ:PROC	; ioDummyChar::IsActivateWeapon
EXTRN	?IsDummyVsDummyCollisionSkipState@ioDummyChar@@UAE_NPBV1@@Z:PROC ; ioDummyChar::IsDummyVsDummyCollisionSkipState
EXTRN	?ProcessDelayState@ioDummyChar@@MAEXM@Z:PROC	; ioDummyChar::ProcessDelayState
EXTRN	?ProcessMoveState@ioDummyChar@@MAEXM@Z:PROC	; ioDummyChar::ProcessMoveState
EXTRN	?ProcessDashState@ioDummyChar@@MAEXM@Z:PROC	; ioDummyChar::ProcessDashState
EXTRN	?ProcessAttackState@ioDummyChar@@MAEXMK@Z:PROC	; ioDummyChar::ProcessAttackState
EXTRN	?ApplyDummyCharSync@ioDummyChar@@UAEXPAVioPlayStage@@AAVSP2Packet@@@Z:PROC ; ioDummyChar::ApplyDummyCharSync
EXTRN	?SetDelayState@ioDummyChar@@UAEX_N@Z:PROC	; ioDummyChar::SetDelayState
EXTRN	?SetMoveState@ioDummyChar@@UAEXXZ:PROC		; ioDummyChar::SetMoveState
EXTRN	?SetDieState@ioDummyChar@@UAEX_N0@Z:PROC	; ioDummyChar::SetDieState
EXTRN	?SetDashState@ioDummyChar@@UAEXXZ:PROC		; ioDummyChar::SetDashState
EXTRN	?SetAttackState@ioDummyChar@@UAEXXZ:PROC	; ioDummyChar::SetAttackState
EXTRN	?SendAttackInfoToSkill@ioDummyChar@@MAEXXZ:PROC	; ioDummyChar::SendAttackInfoToSkill
EXTRN	?CheckCollisionWeapon@ioDummyChar@@UAEXPAVioBaseChar@@@Z:PROC ; ioDummyChar::CheckCollisionWeapon
EXTRN	?TranslateMountEntity@ioDummyChar@@MAEXABUD3DXVECTOR3@@@Z:PROC ; ioDummyChar::TranslateMountEntity
EXTRN	?ClearMountEntity@ioDummyChar@@MAEXXZ:PROC	; ioDummyChar::ClearMountEntity
EXTRN	?UpdateMountedEntityList@ioDummyChar@@MAEXXZ:PROC ; ioDummyChar::UpdateMountedEntityList
EXTRN	?UpdateMountedWeaponList@ioDummyChar@@MAEXXZ:PROC ; ioDummyChar::UpdateMountedWeaponList
EXTRN	?SetWorldPositionMountEntity@ioDummyChar@@MAEXM@Z:PROC ; ioDummyChar::SetWorldPositionMountEntity
EXTRN	?DummyDieClearMountEntity@ioDummyChar@@MAEXXZ:PROC ; ioDummyChar::DummyDieClearMountEntity
EXTRN	?FillDummyCharMidSync@ioDummyChar@@UAEXPAVioBaseChar@@AAVSP2Packet@@@Z:PROC ; ioDummyChar::FillDummyCharMidSync
EXTRN	?ApplyDummyCharMidSync@ioDummyChar@@UAEXPAVioBaseChar@@AAVSP2Packet@@@Z:PROC ; ioDummyChar::ApplyDummyCharMidSync
EXTRN	?GetSkillMaxActiveCnt@ioDummyChar@@UAEHXZ:PROC	; ioDummyChar::GetSkillMaxActiveCnt
EXTRN	?GetSkillCurActiveCnt@ioDummyChar@@UAEHXZ:PROC	; ioDummyChar::GetSkillCurActiveCnt
EXTRN	?OnTelepotation@ioDummyChar@@UAEXABUD3DXVECTOR3@@@Z:PROC ; ioDummyChar::OnTelepotation
EXTRN	?OnFireZoneDamage@ioDummyChar@@UAEXMABVioHashString@@@Z:PROC ; ioDummyChar::OnFireZoneDamage
EXTRN	?OnPoisonZoneDamage@ioDummyChar@@UAEXXZ:PROC	; ioDummyChar::OnPoisonZoneDamage
;	COMDAT ??_R4ioCopyOwnerDummyChar5@@6BioWorldEventReceiver@@@
; File d:\lost saga for developer\youtube\tutorial\source\src\lsclient\iocopyownerdummychar5.cpp
rdata$r	SEGMENT
??_R4ioCopyOwnerDummyChar5@@6BioWorldEventReceiver@@@ DD 00H ; ioCopyOwnerDummyChar5::`RTTI Complete Object Locator'
	DD	01c8H
	DD	00H
	DD	FLAT:??_R0?AVioCopyOwnerDummyChar5@@@8
	DD	FLAT:??_R3ioCopyOwnerDummyChar5@@8
rdata$r	ENDS
;	COMDAT ??_R1A@?0A@EA@ioWorldEventReceiver@@8
rdata$r	SEGMENT
??_R1A@?0A@EA@ioWorldEventReceiver@@8 DD FLAT:??_R0?AVioWorldEventReceiver@@@8 ; ioWorldEventReceiver::`RTTI Base Class Descriptor at (0,-1,0,64)'
	DD	00H
	DD	00H
	DD	0ffffffffH
	DD	00H
	DD	040H
	DD	FLAT:??_R3ioWorldEventReceiver@@8
rdata$r	ENDS
;	COMDAT ??_R2ioWorldEventReceiver@@8
rdata$r	SEGMENT
??_R2ioWorldEventReceiver@@8 DD FLAT:??_R1A@?0A@EA@ioWorldEventReceiver@@8 ; ioWorldEventReceiver::`RTTI Base Class Array'
rdata$r	ENDS
;	COMDAT ??_R3ioWorldEventReceiver@@8
rdata$r	SEGMENT
??_R3ioWorldEventReceiver@@8 DD 00H			; ioWorldEventReceiver::`RTTI Class Hierarchy Descriptor'
	DD	00H
	DD	01H
	DD	FLAT:??_R2ioWorldEventReceiver@@8
rdata$r	ENDS
;	COMDAT ??_R0?AVioWorldEventReceiver@@@8
_DATA	SEGMENT
??_R0?AVioWorldEventReceiver@@@8 DD FLAT:??_7type_info@@6B@ ; ioWorldEventReceiver `RTTI Type Descriptor'
	DD	00H
	DB	'.?AVioWorldEventReceiver@@', 00H
_DATA	ENDS
;	COMDAT ??_R1BMI@?0A@EA@ioWorldEventReceiver@@8
rdata$r	SEGMENT
??_R1BMI@?0A@EA@ioWorldEventReceiver@@8 DD FLAT:??_R0?AVioWorldEventReceiver@@@8 ; ioWorldEventReceiver::`RTTI Base Class Descriptor at (456,-1,0,64)'
	DD	00H
	DD	01c8H
	DD	0ffffffffH
	DD	00H
	DD	040H
	DD	FLAT:??_R3ioWorldEventReceiver@@8
rdata$r	ENDS
;	COMDAT ??_R2ioEntityEvent@@8
rdata$r	SEGMENT
??_R2ioEntityEvent@@8 DD FLAT:??_R1A@?0A@EA@ioEntityEvent@@8 ; ioEntityEvent::`RTTI Base Class Array'
rdata$r	ENDS
;	COMDAT ??_R3ioEntityEvent@@8
rdata$r	SEGMENT
??_R3ioEntityEvent@@8 DD 00H				; ioEntityEvent::`RTTI Class Hierarchy Descriptor'
	DD	00H
	DD	01H
	DD	FLAT:??_R2ioEntityEvent@@8
rdata$r	ENDS
;	COMDAT ??_R0?AVioEntityEvent@@@8
_DATA	SEGMENT
??_R0?AVioEntityEvent@@@8 DD FLAT:??_7type_info@@6B@	; ioEntityEvent `RTTI Type Descriptor'
	DD	00H
	DB	'.?AVioEntityEvent@@', 00H
_DATA	ENDS
;	COMDAT ??_R1A@?0A@EA@ioEntityEvent@@8
rdata$r	SEGMENT
??_R1A@?0A@EA@ioEntityEvent@@8 DD FLAT:??_R0?AVioEntityEvent@@@8 ; ioEntityEvent::`RTTI Base Class Descriptor at (0,-1,0,64)'
	DD	00H
	DD	00H
	DD	0ffffffffH
	DD	00H
	DD	040H
	DD	FLAT:??_R3ioEntityEvent@@8
rdata$r	ENDS
;	COMDAT ??_R2ioGameEntity@@8
rdata$r	SEGMENT
??_R2ioGameEntity@@8 DD FLAT:??_R1A@?0A@EA@ioGameEntity@@8 ; ioGameEntity::`RTTI Base Class Array'
	DD	FLAT:??_R1A@?0A@EA@ioEntityEvent@@8
rdata$r	ENDS
;	COMDAT ??_R3ioGameEntity@@8
rdata$r	SEGMENT
??_R3ioGameEntity@@8 DD 00H				; ioGameEntity::`RTTI Class Hierarchy Descriptor'
	DD	00H
	DD	02H
	DD	FLAT:??_R2ioGameEntity@@8
rdata$r	ENDS
;	COMDAT ??_R0?AVioGameEntity@@@8
_DATA	SEGMENT
??_R0?AVioGameEntity@@@8 DD FLAT:??_7type_info@@6B@	; ioGameEntity `RTTI Type Descriptor'
	DD	00H
	DB	'.?AVioGameEntity@@', 00H
_DATA	ENDS
;	COMDAT ??_R1A@?0A@EA@ioGameEntity@@8
rdata$r	SEGMENT
??_R1A@?0A@EA@ioGameEntity@@8 DD FLAT:??_R0?AVioGameEntity@@@8 ; ioGameEntity::`RTTI Base Class Descriptor at (0,-1,0,64)'
	DD	01H
	DD	00H
	DD	0ffffffffH
	DD	00H
	DD	040H
	DD	FLAT:??_R3ioGameEntity@@8
rdata$r	ENDS
;	COMDAT ??_R2ioPlayEntity@@8
rdata$r	SEGMENT
??_R2ioPlayEntity@@8 DD FLAT:??_R1A@?0A@EA@ioPlayEntity@@8 ; ioPlayEntity::`RTTI Base Class Array'
	DD	FLAT:??_R1A@?0A@EA@ioGameEntity@@8
	DD	FLAT:??_R1A@?0A@EA@ioEntityEvent@@8
rdata$r	ENDS
;	COMDAT ??_R3ioPlayEntity@@8
rdata$r	SEGMENT
??_R3ioPlayEntity@@8 DD 00H				; ioPlayEntity::`RTTI Class Hierarchy Descriptor'
	DD	00H
	DD	03H
	DD	FLAT:??_R2ioPlayEntity@@8
rdata$r	ENDS
;	COMDAT ??_R0?AVioPlayEntity@@@8
_DATA	SEGMENT
??_R0?AVioPlayEntity@@@8 DD FLAT:??_7type_info@@6B@	; ioPlayEntity `RTTI Type Descriptor'
	DD	00H
	DB	'.?AVioPlayEntity@@', 00H
_DATA	ENDS
;	COMDAT ??_R1A@?0A@EA@ioPlayEntity@@8
rdata$r	SEGMENT
??_R1A@?0A@EA@ioPlayEntity@@8 DD FLAT:??_R0?AVioPlayEntity@@@8 ; ioPlayEntity::`RTTI Base Class Descriptor at (0,-1,0,64)'
	DD	02H
	DD	00H
	DD	0ffffffffH
	DD	00H
	DD	040H
	DD	FLAT:??_R3ioPlayEntity@@8
rdata$r	ENDS
;	COMDAT ??_R2ioDummyChar@@8
rdata$r	SEGMENT
??_R2ioDummyChar@@8 DD FLAT:??_R1A@?0A@EA@ioDummyChar@@8 ; ioDummyChar::`RTTI Base Class Array'
	DD	FLAT:??_R1A@?0A@EA@ioPlayEntity@@8
	DD	FLAT:??_R1A@?0A@EA@ioGameEntity@@8
	DD	FLAT:??_R1A@?0A@EA@ioEntityEvent@@8
	DD	FLAT:??_R1BMI@?0A@EA@ioWorldEventReceiver@@8
rdata$r	ENDS
;	COMDAT ??_R3ioDummyChar@@8
rdata$r	SEGMENT
??_R3ioDummyChar@@8 DD 00H				; ioDummyChar::`RTTI Class Hierarchy Descriptor'
	DD	01H
	DD	05H
	DD	FLAT:??_R2ioDummyChar@@8
rdata$r	ENDS
;	COMDAT ??_R0?AVioDummyChar@@@8
_DATA	SEGMENT
??_R0?AVioDummyChar@@@8 DD FLAT:??_7type_info@@6B@	; ioDummyChar `RTTI Type Descriptor'
	DD	00H
	DB	'.?AVioDummyChar@@', 00H
_DATA	ENDS
;	COMDAT ??_R1A@?0A@EA@ioDummyChar@@8
rdata$r	SEGMENT
??_R1A@?0A@EA@ioDummyChar@@8 DD FLAT:??_R0?AVioDummyChar@@@8 ; ioDummyChar::`RTTI Base Class Descriptor at (0,-1,0,64)'
	DD	04H
	DD	00H
	DD	0ffffffffH
	DD	00H
	DD	040H
	DD	FLAT:??_R3ioDummyChar@@8
rdata$r	ENDS
;	COMDAT ??_R1A@?0A@EA@ioCopyOwnerDummyChar5@@8
rdata$r	SEGMENT
??_R1A@?0A@EA@ioCopyOwnerDummyChar5@@8 DD FLAT:??_R0?AVioCopyOwnerDummyChar5@@@8 ; ioCopyOwnerDummyChar5::`RTTI Base Class Descriptor at (0,-1,0,64)'
	DD	05H
	DD	00H
	DD	0ffffffffH
	DD	00H
	DD	040H
	DD	FLAT:??_R3ioCopyOwnerDummyChar5@@8
rdata$r	ENDS
;	COMDAT ??_R2ioCopyOwnerDummyChar5@@8
rdata$r	SEGMENT
??_R2ioCopyOwnerDummyChar5@@8 DD FLAT:??_R1A@?0A@EA@ioCopyOwnerDummyChar5@@8 ; ioCopyOwnerDummyChar5::`RTTI Base Class Array'
	DD	FLAT:??_R1A@?0A@EA@ioDummyChar@@8
	DD	FLAT:??_R1A@?0A@EA@ioPlayEntity@@8
	DD	FLAT:??_R1A@?0A@EA@ioGameEntity@@8
	DD	FLAT:??_R1A@?0A@EA@ioEntityEvent@@8
	DD	FLAT:??_R1BMI@?0A@EA@ioWorldEventReceiver@@8
rdata$r	ENDS
;	COMDAT ??_R3ioCopyOwnerDummyChar5@@8
rdata$r	SEGMENT
??_R3ioCopyOwnerDummyChar5@@8 DD 00H			; ioCopyOwnerDummyChar5::`RTTI Class Hierarchy Descriptor'
	DD	01H
	DD	06H
	DD	FLAT:??_R2ioCopyOwnerDummyChar5@@8
rdata$r	ENDS
;	COMDAT ??_R0?AVioCopyOwnerDummyChar5@@@8
_DATA	SEGMENT
??_R0?AVioCopyOwnerDummyChar5@@@8 DD FLAT:??_7type_info@@6B@ ; ioCopyOwnerDummyChar5 `RTTI Type Descriptor'
	DD	00H
	DB	'.?AVioCopyOwnerDummyChar5@@', 00H
_DATA	ENDS
;	COMDAT ??_R4ioCopyOwnerDummyChar5@@6BioPlayEntity@@@
rdata$r	SEGMENT
??_R4ioCopyOwnerDummyChar5@@6BioPlayEntity@@@ DD 00H	; ioCopyOwnerDummyChar5::`RTTI Complete Object Locator'
	DD	00H
	DD	00H
	DD	FLAT:??_R0?AVioCopyOwnerDummyChar5@@@8
	DD	FLAT:??_R3ioCopyOwnerDummyChar5@@8
rdata$r	ENDS
;	COMDAT ??_7ioCopyOwnerDummyChar5@@6BioWorldEventReceiver@@@
CONST	SEGMENT
??_7ioCopyOwnerDummyChar5@@6BioWorldEventReceiver@@@ DD FLAT:??_R4ioCopyOwnerDummyChar5@@6BioWorldEventReceiver@@@ ; ioCopyOwnerDummyChar5::`vftable'
	DD	FLAT:?OnTelepotation@ioDummyChar@@UAEXABUD3DXVECTOR3@@@Z
	DD	FLAT:?OnFireZoneDamage@ioDummyChar@@UAEXMABVioHashString@@@Z
	DD	FLAT:?OnPoisonZoneDamage@ioDummyChar@@UAEXXZ
	DD	FLAT:??_EioCopyOwnerDummyChar5@@WBMI@AEPAXI@Z
CONST	ENDS
;	COMDAT ??_7ioCopyOwnerDummyChar5@@6BioPlayEntity@@@
CONST	SEGMENT
??_7ioCopyOwnerDummyChar5@@6BioPlayEntity@@@ DD FLAT:??_R4ioCopyOwnerDummyChar5@@6BioPlayEntity@@@ ; ioCopyOwnerDummyChar5::`vftable'
	DD	FLAT:?AddEntityEvent@ioDummyChar@@UAEXPAVioEntity@@@Z
	DD	FLAT:??_EioCopyOwnerDummyChar5@@UAEPAXI@Z
	DD	FLAT:?Update@ioDummyChar@@UAEXMKK@Z
	DD	FLAT:?UpdateAfter@ioDummyChar@@UAEXM@Z
	DD	FLAT:?GetTypeID@ioPlayEntity@@UBEHXZ
	DD	FLAT:?IsNeedCheckMapCollision@ioDummyChar@@UBE_NXZ
	DD	FLAT:?IsMountAvailable@ioDummyChar@@UBE_NXZ
	DD	FLAT:?IsMountingAvailable@ioDummyChar@@UBE_NXZ
	DD	FLAT:?IsNowMountEnable@ioDummyChar@@UBE_NXZ
	DD	FLAT:?IsAllWeaponDefence@ioGameEntity@@UBE_NXZ
	DD	FLAT:?HasEntity@ioGameEntity@@UAE_NABVioHashString@@@Z
	DD	FLAT:?AddEntity@ioGameEntity@@UAEPAVioEntity@@ABVioHashString@@@Z
	DD	FLAT:?DestroyEntity@ioGameEntity@@UAE_NABVioHashString@@@Z
	DD	FLAT:?GetEntity@ioGameEntity@@UAEPAVioEntity@@ABVioHashString@@@Z
	DD	FLAT:?UpdateBound@ioGameEntity@@MBEXXZ
	DD	FLAT:?UpdateBottomHeight@ioDummyChar@@MBEXXZ
	DD	FLAT:?NeedUpdateBottomHeight@ioDummyChar@@UAEXXZ
	DD	FLAT:?SetWorldPosition@ioGameEntity@@UAEXABUD3DXVECTOR3@@@Z
	DD	FLAT:?SetWorldOrientation@ioGameEntity@@UAEXABUD3DXQUATERNION@@@Z
	DD	FLAT:?SetWorldScale@ioGameEntity@@UAEXABUD3DXVECTOR3@@@Z
	DD	FLAT:?Translate@ioDummyChar@@UAEXABUD3DXVECTOR3@@@Z
	DD	FLAT:?TranslateByConveyer@ioDummyChar@@UAEXABUD3DXVECTOR3@@@Z
	DD	FLAT:?TranslateByWorldEntity@ioDummyChar@@UAEXABUD3DXVECTOR3@@@Z
	DD	FLAT:?MapCollisionPushingTranslate@ioDummyChar@@UAEXABUD3DXVECTOR3@@@Z
	DD	FLAT:?DontMoveCollisionPushingTranslate@ioGameEntity@@UAEXPAV1@ABUD3DXVECTOR3@@@Z
	DD	FLAT:?Rotate@ioGameEntity@@UAEXABUD3DXVECTOR3@@MW4TransformSpace@ioNode@@@Z
	DD	FLAT:?Scale@ioGameEntity@@UAEXMMM@Z
	DD	FLAT:?Scale@ioGameEntity@@UAEXABUD3DXVECTOR3@@@Z
	DD	FLAT:?GetWorldPosition@ioGameEntity@@UBEABUD3DXVECTOR3@@XZ
	DD	FLAT:?GetWorldOrientation@ioGameEntity@@UBEABUD3DXQUATERNION@@XZ
	DD	FLAT:?GetWorldScale@ioGameEntity@@UBEABUD3DXVECTOR3@@XZ
	DD	FLAT:?ApplyWeapon@ioDummyChar@@UAE?AW4ApplyWeaponExp@@PAVioWeapon@@@Z
	DD	FLAT:?IsCollisionAvailableWeapon@ioCopyOwnerDummyChar5@@UAE_NPAVioWeapon@@@Z
	DD	FLAT:?IsCollisionAvailableRange@ioPlayEntity@@UAE_NPAVioWeapon@@@Z
	DD	FLAT:?IsEntityCollisionSkipState@ioDummyChar@@UBE_NPAVioGameEntity@@@Z
	DD	FLAT:?IsCharCollisionSkipState@ioDummyChar@@UBE_NW4TeamType@@H@Z
	DD	FLAT:?IsWoundedCollision@ioPlayEntity@@UBE_NABVioOrientBox@@PAUD3DXVECTOR3@@@Z
	DD	FLAT:?GetAttackCollisionBox@ioDummyChar@@UAE?AVioOrientBox@@W4AniCollisionType@@_N@Z
	DD	FLAT:?CheckSphereDistance@ioPlayEntity@@UBE_NABUD3DXVECTOR3@@MAAM@Z
	DD	FLAT:?CheckSpherePoint@ioPlayEntity@@UBE_NABUD3DXVECTOR3@@MAAU2@@Z
	DD	FLAT:?CheckCylinderPoint@ioPlayEntity@@UBE_NABVioCylinder@@ABUD3DXVECTOR3@@AAU3@@Z
	DD	FLAT:?GetSubType@ioDummyChar@@UBE?AW4PlaySubType@ioPlayEntity@@XZ
	DD	FLAT:?GetArmorType@ioDummyChar@@UBE?AW4ArmorType@@XZ
	DD	FLAT:?DontMoveEntityLevel@ioDummyChar@@UBEHXZ
	DD	FLAT:?NotifyDontMoveCollisionPushingSkip@ioPlayEntity@@UAEXPAVioGameEntity@@@Z
	DD	FLAT:?LoadProperty@ioCopyOwnerDummyChar5@@UAEXAAVioINILoader@@@Z
	DD	FLAT:?GetWorldEventReceiver@ioDummyChar@@UAEPAVioWorldEventReceiver@@XZ
	DD	FLAT:?Revival@ioPlayEntity@@UAEXXZ
	DD	FLAT:?UpdateGauge@ioDummyChar@@UAEXXZ
	DD	FLAT:?RenderGauge@ioCopyOwnerDummyChar5@@UAEXXZ
	DD	FLAT:?FillMaxHP@ioPlayEntity@@UAEXXZ
	DD	FLAT:?ProcessRecovery@ioPlayEntity@@MAEXXZ
	DD	FLAT:?AddHeadDamageInfo@ioPlayEntity@@UAEXH_N@Z
	DD	FLAT:?RenderHeadInfoList@ioPlayEntity@@UAEXHH@Z
	DD	FLAT:?UpdateHeadInfoList@ioPlayEntity@@MAEXK@Z
	DD	FLAT:?SetTeam@ioPlayEntity@@UAEXW4TeamType@@@Z
	DD	FLAT:?InitDummyCharInfo@ioDummyChar@@UAEXHKABUD3DXVECTOR3@@0M_N@Z
	DD	FLAT:?TestMapCollision@ioDummyChar@@UAE_NPAVioOpcodeShape@@PAVioPlayStage@@PBUD3DXMATRIX@@@Z
	DD	FLAT:?CheckEntityCollision@ioDummyChar@@UAEXPAVioPlayEntity@@@Z
	DD	FLAT:?GetDummyGrassType@ioDummyChar@@UAEHXZ
	DD	FLAT:?IsActivateWeapon@ioDummyChar@@UAE_NXZ
	DD	FLAT:?IsDummyVsDummyCollisionSkipState@ioDummyChar@@UAE_NPBV1@@Z
	DD	FLAT:?ProcessState@ioCopyOwnerDummyChar5@@UAEXMK@Z
	DD	FLAT:?ProcessPos@ioCopyOwnerDummyChar5@@UAEXM@Z
	DD	FLAT:?ProcessDelayState@ioDummyChar@@MAEXM@Z
	DD	FLAT:?ProcessMoveState@ioDummyChar@@MAEXM@Z
	DD	FLAT:?ProcessDashState@ioDummyChar@@MAEXM@Z
	DD	FLAT:?ProcessAttackState@ioDummyChar@@MAEXMK@Z
	DD	FLAT:?ApplyDummyCharSync@ioDummyChar@@UAEXPAVioPlayStage@@AAVSP2Packet@@@Z
	DD	FLAT:?SetDelayState@ioDummyChar@@UAEX_N@Z
	DD	FLAT:?SetMoveState@ioDummyChar@@UAEXXZ
	DD	FLAT:?SetDieState@ioDummyChar@@UAEX_N0@Z
	DD	FLAT:?SetDashState@ioDummyChar@@UAEXXZ
	DD	FLAT:?SetAttackState@ioDummyChar@@UAEXXZ
	DD	FLAT:?DropZoneCheck@ioCopyOwnerDummyChar5@@MAEXXZ
	DD	FLAT:?SendAttackInfoToSkill@ioDummyChar@@MAEXXZ
	DD	FLAT:?CheckCollisionWeapon@ioDummyChar@@UAEXPAVioBaseChar@@@Z
	DD	FLAT:?TranslateMountEntity@ioDummyChar@@MAEXABUD3DXVECTOR3@@@Z
	DD	FLAT:?ClearMountEntity@ioDummyChar@@MAEXXZ
	DD	FLAT:?UpdateMountedEntityList@ioDummyChar@@MAEXXZ
	DD	FLAT:?UpdateMountedWeaponList@ioDummyChar@@MAEXXZ
	DD	FLAT:?SetWorldPositionMountEntity@ioDummyChar@@MAEXM@Z
	DD	FLAT:?DummyDieClearMountEntity@ioDummyChar@@MAEXXZ
	DD	FLAT:?IsDummyCharMidSync@ioDummyChar@@UAE_NXZ
	DD	FLAT:?FillDummyCharMidSync@ioDummyChar@@UAEXPAVioBaseChar@@AAVSP2Packet@@@Z
	DD	FLAT:?ApplyDummyCharMidSync@ioDummyChar@@UAEXPAVioBaseChar@@AAVSP2Packet@@@Z
	DD	FLAT:?GetSkillMaxActiveCnt@ioDummyChar@@UAEHXZ
	DD	FLAT:?GetSkillCurActiveCnt@ioDummyChar@@UAEHXZ
CONST	ENDS
;	COMDAT xdata$x
xdata$x	SEGMENT
__unwindtable$??0ioCopyOwnerDummyChar5@@QAE@PAVioEntityGroup@@PAVioPlayMode@@@Z DD 0ffffffffH
	DD	FLAT:__unwindfunclet$??0ioCopyOwnerDummyChar5@@QAE@PAVioEntityGroup@@PAVioPlayMode@@@Z$0
__ehfuncinfo$??0ioCopyOwnerDummyChar5@@QAE@PAVioEntityGroup@@PAVioPlayMode@@@Z DD 019930522H
	DD	01H
	DD	FLAT:__unwindtable$??0ioCopyOwnerDummyChar5@@QAE@PAVioEntityGroup@@PAVioPlayMode@@@Z
	DD	2 DUP(00H)
	DD	2 DUP(00H)
	DD	00H
	DD	01H
; Function compile flags: /Ogsp
xdata$x	ENDS
;	COMDAT ??0ioCopyOwnerDummyChar5@@QAE@PAVioEntityGroup@@PAVioPlayMode@@@Z
_TEXT	SEGMENT
_this$ = -16						; size = 4
__$EHRec$ = -12						; size = 12
_pGrp$ = 8						; size = 4
_pMode$ = 12						; size = 4
??0ioCopyOwnerDummyChar5@@QAE@PAVioEntityGroup@@PAVioPlayMode@@@Z PROC ; ioCopyOwnerDummyChar5::ioCopyOwnerDummyChar5, COMDAT
; _this$ = ecx

; 23   : {

  00000	6a 04		 push	 4
  00002	b8 00 00 00 00	 mov	 eax, __ehhandler$??0ioCopyOwnerDummyChar5@@QAE@PAVioEntityGroup@@PAVioPlayMode@@@Z
  00007	e8 00 00 00 00	 call	 __EH_prolog3
  0000c	8b f1		 mov	 esi, ecx
  0000e	89 75 f0	 mov	 DWORD PTR _this$[ebp], esi
  00011	ff 75 0c	 push	 DWORD PTR _pMode$[ebp]
  00014	ff 75 08	 push	 DWORD PTR _pGrp$[ebp]
  00017	e8 00 00 00 00	 call	 ??0ioDummyChar@@QAE@PAVioEntityGroup@@PAVioPlayMode@@@Z ; ioDummyChar::ioDummyChar
  0001c	83 65 fc 00	 and	 DWORD PTR __$EHRec$[ebp+8], 0
  00020	8d 8e 84 14 00
	00		 lea	 ecx, DWORD PTR [esi+5252]
  00026	c7 06 00 00 00
	00		 mov	 DWORD PTR [esi], OFFSET ??_7ioCopyOwnerDummyChar5@@6BioPlayEntity@@@
  0002c	c7 86 c8 01 00
	00 00 00 00 00	 mov	 DWORD PTR [esi+456], OFFSET ??_7ioCopyOwnerDummyChar5@@6BioWorldEventReceiver@@@
  00036	ff 15 00 00 00
	00		 call	 DWORD PTR __imp_??0ioHashString@@QAE@XZ

; 24   : }

  0003c	8b c6		 mov	 eax, esi
  0003e	e8 00 00 00 00	 call	 __EH_epilog3
  00043	c2 08 00	 ret	 8
_TEXT	ENDS
;	COMDAT text$x
text$x	SEGMENT
__unwindfunclet$??0ioCopyOwnerDummyChar5@@QAE@PAVioEntityGroup@@PAVioPlayMode@@@Z$0:
  00000	8b 4d f0	 mov	 ecx, DWORD PTR _this$[ebp]
  00003	e9 00 00 00 00	 jmp	 ??1ioDummyChar@@UAE@XZ	; ioDummyChar::~ioDummyChar
__ehhandler$??0ioCopyOwnerDummyChar5@@QAE@PAVioEntityGroup@@PAVioPlayMode@@@Z:
  00008	8b 54 24 08	 mov	 edx, DWORD PTR [esp+8]
  0000c	8d 42 0c	 lea	 eax, DWORD PTR [edx+12]
  0000f	8b 4a ec	 mov	 ecx, DWORD PTR [edx-20]
  00012	33 c8		 xor	 ecx, eax
  00014	e8 00 00 00 00	 call	 @__security_check_cookie@4
  00019	b8 00 00 00 00	 mov	 eax, OFFSET __ehfuncinfo$??0ioCopyOwnerDummyChar5@@QAE@PAVioEntityGroup@@PAVioPlayMode@@@Z
  0001e	e9 00 00 00 00	 jmp	 ___CxxFrameHandler3
text$x	ENDS
??0ioCopyOwnerDummyChar5@@QAE@PAVioEntityGroup@@PAVioPlayMode@@@Z ENDP ; ioCopyOwnerDummyChar5::ioCopyOwnerDummyChar5
PUBLIC	??1ioCopyOwnerDummyChar5@@UAE@XZ		; ioCopyOwnerDummyChar5::~ioCopyOwnerDummyChar5
EXTRN	__imp_??1ioHashString@@QAE@XZ:PROC
;	COMDAT xdata$x
xdata$x	SEGMENT
__unwindtable$??1ioCopyOwnerDummyChar5@@UAE@XZ DD 0ffffffffH
	DD	FLAT:__unwindfunclet$??1ioCopyOwnerDummyChar5@@UAE@XZ$0
__ehfuncinfo$??1ioCopyOwnerDummyChar5@@UAE@XZ DD 019930522H
	DD	01H
	DD	FLAT:__unwindtable$??1ioCopyOwnerDummyChar5@@UAE@XZ
	DD	2 DUP(00H)
	DD	2 DUP(00H)
	DD	00H
	DD	01H
; Function compile flags: /Ogsp
xdata$x	ENDS
;	COMDAT ??1ioCopyOwnerDummyChar5@@UAE@XZ
_TEXT	SEGMENT
_this$ = -16						; size = 4
__$EHRec$ = -12						; size = 12
??1ioCopyOwnerDummyChar5@@UAE@XZ PROC			; ioCopyOwnerDummyChar5::~ioCopyOwnerDummyChar5, COMDAT
; _this$ = ecx

; 27   : {

  00000	6a 04		 push	 4
  00002	b8 00 00 00 00	 mov	 eax, __ehhandler$??1ioCopyOwnerDummyChar5@@UAE@XZ
  00007	e8 00 00 00 00	 call	 __EH_prolog3
  0000c	8b f1		 mov	 esi, ecx
  0000e	89 75 f0	 mov	 DWORD PTR _this$[ebp], esi
  00011	c7 06 00 00 00
	00		 mov	 DWORD PTR [esi], OFFSET ??_7ioCopyOwnerDummyChar5@@6BioPlayEntity@@@
  00017	c7 86 c8 01 00
	00 00 00 00 00	 mov	 DWORD PTR [esi+456], OFFSET ??_7ioCopyOwnerDummyChar5@@6BioWorldEventReceiver@@@
  00021	83 65 fc 00	 and	 DWORD PTR __$EHRec$[ebp+8], 0

; 28   : }

  00025	8d 8e 84 14 00
	00		 lea	 ecx, DWORD PTR [esi+5252]
  0002b	ff 15 00 00 00
	00		 call	 DWORD PTR __imp_??1ioHashString@@QAE@XZ
  00031	83 4d fc ff	 or	 DWORD PTR __$EHRec$[ebp+8], -1
  00035	8b ce		 mov	 ecx, esi
  00037	e8 00 00 00 00	 call	 ??1ioDummyChar@@UAE@XZ	; ioDummyChar::~ioDummyChar
  0003c	e8 00 00 00 00	 call	 __EH_epilog3
  00041	c3		 ret	 0
_TEXT	ENDS
;	COMDAT text$x
text$x	SEGMENT
__unwindfunclet$??1ioCopyOwnerDummyChar5@@UAE@XZ$0:
  00000	8b 4d f0	 mov	 ecx, DWORD PTR _this$[ebp]
  00003	e9 00 00 00 00	 jmp	 ??1ioDummyChar@@UAE@XZ	; ioDummyChar::~ioDummyChar
__ehhandler$??1ioCopyOwnerDummyChar5@@UAE@XZ:
  00008	8b 54 24 08	 mov	 edx, DWORD PTR [esp+8]
  0000c	8d 42 0c	 lea	 eax, DWORD PTR [edx+12]
  0000f	8b 4a ec	 mov	 ecx, DWORD PTR [edx-20]
  00012	33 c8		 xor	 ecx, eax
  00014	e8 00 00 00 00	 call	 @__security_check_cookie@4
  00019	b8 00 00 00 00	 mov	 eax, OFFSET __ehfuncinfo$??1ioCopyOwnerDummyChar5@@UAE@XZ
  0001e	e9 00 00 00 00	 jmp	 ___CxxFrameHandler3
text$x	ENDS
??1ioCopyOwnerDummyChar5@@UAE@XZ ENDP			; ioCopyOwnerDummyChar5::~ioCopyOwnerDummyChar5
EXTRN	?IsCollisionAvailableWeapon@ioDummyChar@@UAE_NPAVioWeapon@@@Z:PROC ; ioDummyChar::IsCollisionAvailableWeapon
; Function compile flags: /Ogsp
;	COMDAT ?IsCollisionAvailableWeapon@ioCopyOwnerDummyChar5@@UAE_NPAVioWeapon@@@Z
_TEXT	SEGMENT
_pWeapon$ = 8						; size = 4
?IsCollisionAvailableWeapon@ioCopyOwnerDummyChar5@@UAE_NPAVioWeapon@@@Z PROC ; ioCopyOwnerDummyChar5::IsCollisionAvailableWeapon, COMDAT
; _this$ = ecx

; 107  : {

  00000	55		 push	 ebp
  00001	8b ec		 mov	 ebp, esp

; 109  : }

  00003	5d		 pop	 ebp

; 108  : 	return ioDummyChar::IsCollisionAvailableWeapon( pWeapon );

  00004	e9 00 00 00 00	 jmp	 ?IsCollisionAvailableWeapon@ioDummyChar@@UAE_NPAVioWeapon@@@Z ; ioDummyChar::IsCollisionAvailableWeapon
?IsCollisionAvailableWeapon@ioCopyOwnerDummyChar5@@UAE_NPAVioWeapon@@@Z ENDP ; ioCopyOwnerDummyChar5::IsCollisionAvailableWeapon
; Function compile flags: /Ogsp
_TEXT	ENDS
;	COMDAT ?DropZoneCheck@ioCopyOwnerDummyChar5@@MAEXXZ
_TEXT	SEGMENT
?DropZoneCheck@ioCopyOwnerDummyChar5@@MAEXXZ PROC	; ioCopyOwnerDummyChar5::DropZoneCheck, COMDAT
; _this$ = ecx

; 372  : 	return;
; 373  : }

  00000	c3		 ret	 0
?DropZoneCheck@ioCopyOwnerDummyChar5@@MAEXXZ ENDP	; ioCopyOwnerDummyChar5::DropZoneCheck
; Function compile flags: /Odsp
_TEXT	ENDS
;	COMDAT ??_EioCopyOwnerDummyChar5@@WBMI@AEPAXI@Z
_TEXT	SEGMENT
??_EioCopyOwnerDummyChar5@@WBMI@AEPAXI@Z PROC		; [thunk]:ioCopyOwnerDummyChar5::`vector deleting destructor', COMDAT
  00000	81 e9 c8 01 00
	00		 sub	 ecx, 456		; 000001c8H
  00006	e9 00 00 00 00	 jmp	 ??_EioCopyOwnerDummyChar5@@UAEPAXI@Z
??_EioCopyOwnerDummyChar5@@WBMI@AEPAXI@Z ENDP		; [thunk]:ioCopyOwnerDummyChar5::`vector deleting destructor'
; Function compile flags: /Ogsp
; File c:\program files (x86)\microsoft sdks\windows\v7.0a\include\strsafe.h
_TEXT	ENDS
;	COMDAT ?StringValidateDestA@@YGJPBDII@Z
_TEXT	SEGMENT
_cchMax$ = 8						; size = 4
?StringValidateDestA@@YGJPBDII@Z PROC			; StringValidateDestA, COMDAT
; _cchDest$ = ecx

; 8721 : {

  00000	55		 push	 ebp
  00001	8b ec		 mov	 ebp, esp

; 8722 :     HRESULT hr = S_OK;

  00003	33 c0		 xor	 eax, eax

; 8723 : 
; 8724 :     if ((cchDest == 0) || (cchDest > cchMax))

  00005	85 c9		 test	 ecx, ecx
  00007	74 05		 je	 SHORT $LN1@StringVali
  00009	3b 4d 08	 cmp	 ecx, DWORD PTR _cchMax$[ebp]
  0000c	76 05		 jbe	 SHORT $LN2@StringVali
$LN1@StringVali:

; 8725 :     {
; 8726 :         hr = STRSAFE_E_INVALID_PARAMETER;

  0000e	b8 57 00 07 80	 mov	 eax, -2147024809	; 80070057H
$LN2@StringVali:

; 8727 :     }
; 8728 : 
; 8729 :     return hr;
; 8730 : }

  00013	5d		 pop	 ebp
  00014	c2 04 00	 ret	 4
?StringValidateDestA@@YGJPBDII@Z ENDP			; StringValidateDestA
_TEXT	ENDS
EXTRN	__imp___vsnprintf:PROC
; Function compile flags: /Ogsp
;	COMDAT ?StringVPrintfWorkerA@@YGJPADIPAIPBD0@Z
_TEXT	SEGMENT
_pcchNewDestLength$ = 8					; size = 4
_pszFormat$ = 12					; size = 4
_argList$ = 16						; size = 4
?StringVPrintfWorkerA@@YGJPADIPAIPBD0@Z PROC		; StringVPrintfWorkerA, COMDAT
; _pszDest$ = edi
; _cchDest$ = eax

; 9029 : {

  00000	55		 push	 ebp
  00001	8b ec		 mov	 ebp, esp
  00003	53		 push	 ebx
  00004	56		 push	 esi

; 9030 :     HRESULT hr = S_OK;
; 9031 :     int iRet;
; 9032 :     size_t cchMax;
; 9033 :     size_t cchNewDestLength = 0;
; 9034 : 
; 9035 :     // leave the last space for the null terminator
; 9036 :     cchMax = cchDest - 1;
; 9037 : 
; 9038 : #if (STRSAFE_USE_SECURE_CRT == 1) && !defined(STRSAFE_LIB_IMPL)
; 9039 :     iRet = _vsnprintf_s(pszDest, cchDest, cchMax, pszFormat, argList);
; 9040 : #else
; 9041 :     #pragma warning(push)
; 9042 :     #pragma warning(disable: __WARNING_BANNED_API_USAGE)// "STRSAFE not included"
; 9043 :     iRet = _vsnprintf(pszDest, cchMax, pszFormat, argList);

  00005	ff 75 10	 push	 DWORD PTR _argList$[ebp]
  00008	8d 70 ff	 lea	 esi, DWORD PTR [eax-1]
  0000b	ff 75 0c	 push	 DWORD PTR _pszFormat$[ebp]
  0000e	33 db		 xor	 ebx, ebx
  00010	56		 push	 esi
  00011	57		 push	 edi
  00012	ff 15 00 00 00
	00		 call	 DWORD PTR __imp___vsnprintf
  00018	83 c4 10	 add	 esp, 16			; 00000010H

; 9044 :     #pragma warning(pop)
; 9045 : #endif
; 9046 :     // ASSERT((iRet < 0) || (((size_t)iRet) <= cchMax));
; 9047 : 
; 9048 :     if ((iRet < 0) || (((size_t)iRet) > cchMax))

  0001b	85 c0		 test	 eax, eax
  0001d	78 0b		 js	 SHORT $LN5@StringVPri
  0001f	3b c6		 cmp	 eax, esi
  00021	77 07		 ja	 SHORT $LN5@StringVPri

; 9058 :     }
; 9059 :     else if (((size_t)iRet) == cchMax)

  00023	75 0f		 jne	 SHORT $LN2@StringVPri

; 9060 :     {
; 9061 :         // need to null terminate the string
; 9062 :         pszDest += cchMax;
; 9063 :         *pszDest = '\0';

  00025	88 1c 3e	 mov	 BYTE PTR [esi+edi], bl

; 9064 : 
; 9065 :         cchNewDestLength = cchMax;
; 9066 :     }
; 9067 :     else

  00028	eb 08		 jmp	 SHORT $LN9@StringVPri
$LN5@StringVPri:

; 9049 :     {
; 9050 :         // need to null terminate the string
; 9051 :         pszDest += cchMax;
; 9052 :         *pszDest = '\0';

  0002a	88 1c 3e	 mov	 BYTE PTR [esi+edi], bl

; 9055 : 
; 9056 :         // we have truncated pszDest
; 9057 :         hr = STRSAFE_E_INSUFFICIENT_BUFFER;

  0002d	bb 7a 00 07 80	 mov	 ebx, -2147024774	; 8007007aH
$LN9@StringVPri:

; 9053 : 
; 9054 :         cchNewDestLength = cchMax;

  00032	8b c6		 mov	 eax, esi
$LN2@StringVPri:

; 9068 :     {
; 9069 :         cchNewDestLength = (size_t)iRet;
; 9070 :     }
; 9071 : 
; 9072 :     if (pcchNewDestLength)

  00034	8b 4d 08	 mov	 ecx, DWORD PTR _pcchNewDestLength$[ebp]
  00037	85 c9		 test	 ecx, ecx
  00039	74 02		 je	 SHORT $LN1@StringVPri

; 9073 :     {
; 9074 :         *pcchNewDestLength = cchNewDestLength;

  0003b	89 01		 mov	 DWORD PTR [ecx], eax
$LN1@StringVPri:
  0003d	5e		 pop	 esi

; 9075 :     }
; 9076 : 
; 9077 :     return hr;

  0003e	8b c3		 mov	 eax, ebx
  00040	5b		 pop	 ebx

; 9078 : }

  00041	5d		 pop	 ebp
  00042	c2 0c 00	 ret	 12			; 0000000cH
?StringVPrintfWorkerA@@YGJPADIPAIPBD0@Z ENDP		; StringVPrintfWorkerA
_TEXT	ENDS
PUBLIC	??_H@YGXPAXIHP6EPAX0@Z@Z			; `vector constructor iterator'
; Function compile flags: /Ogsp
;	COMDAT ??_H@YGXPAXIHP6EPAX0@Z@Z
_TEXT	SEGMENT
___t$ = 8						; size = 4
___s$ = 12						; size = 4
___n$ = 16						; size = 4
___f$ = 20						; size = 4
??_H@YGXPAXIHP6EPAX0@Z@Z PROC				; `vector constructor iterator', COMDAT
  00000	55		 push	 ebp
  00001	8b ec		 mov	 ebp, esp
  00003	ff 4d 10	 dec	 DWORD PTR ___n$[ebp]
  00006	78 12		 js	 SHORT $LN1@vector
  00008	56		 push	 esi
  00009	8b 75 08	 mov	 esi, DWORD PTR ___t$[ebp]
$LL2@vector:
  0000c	8b ce		 mov	 ecx, esi
  0000e	ff 55 14	 call	 DWORD PTR ___f$[ebp]
  00011	03 75 0c	 add	 esi, DWORD PTR ___s$[ebp]
  00014	ff 4d 10	 dec	 DWORD PTR ___n$[ebp]
  00017	79 f3		 jns	 SHORT $LL2@vector
  00019	5e		 pop	 esi
$LN1@vector:
  0001a	5d		 pop	 ebp
  0001b	c2 10 00	 ret	 16			; 00000010H
??_H@YGXPAXIHP6EPAX0@Z@Z ENDP				; `vector constructor iterator'
_TEXT	ENDS
PUBLIC	?_DECSTR@@YAXPADH@Z				; _DECSTR
; Function compile flags: /Ogsp
; File d:\lost saga for developer\youtube\tutorial\source\src\lsclient\stringprotect.h
;	COMDAT ?_DECSTR@@YAXPADH@Z
_TEXT	SEGMENT
_s$ = 8							; size = 4
_l$ = 12						; size = 4
?_DECSTR@@YAXPADH@Z PROC				; _DECSTR, COMDAT

; 40   : __forceinline void _DECSTR(char* s, int l){int i=0,l4=(l-1)/4,*p=(int*)s;s[l-1]=0;for(;i<l4;++i)*(p++)^=0xEAEBECED;for(i=l4*4;i<l-1;++i)s[i]^=0xED-i%4;}

  00000	55		 push	 ebp
  00001	8b ec		 mov	 ebp, esp
  00003	8b 4d 0c	 mov	 ecx, DWORD PTR _l$[ebp]
  00006	56		 push	 esi
  00007	8b 75 08	 mov	 esi, DWORD PTR _s$[ebp]
  0000a	57		 push	 edi
  0000b	8d 79 ff	 lea	 edi, DWORD PTR [ecx-1]
  0000e	8b c7		 mov	 eax, edi
  00010	99		 cdq
  00011	83 e2 03	 and	 edx, 3
  00014	03 c2		 add	 eax, edx
  00016	c1 f8 02	 sar	 eax, 2
  00019	8b d6		 mov	 edx, esi
  0001b	c6 44 0e ff 00	 mov	 BYTE PTR [esi+ecx-1], 0
  00020	85 c0		 test	 eax, eax
  00022	7e 0e		 jle	 SHORT $LN4@DECSTR
  00024	8b c8		 mov	 ecx, eax
$LL6@DECSTR:
  00026	81 32 ed ec eb
	ea		 xor	 DWORD PTR [edx], -353637139 ; eaebecedH
  0002c	83 c2 04	 add	 edx, 4
  0002f	49		 dec	 ecx
  00030	75 f4		 jne	 SHORT $LL6@DECSTR
$LN4@DECSTR:
  00032	c1 e0 02	 shl	 eax, 2
  00035	eb 17		 jmp	 SHORT $LN14@DECSTR
$LL3@DECSTR:
  00037	8b c8		 mov	 ecx, eax
  00039	81 e1 03 00 00
	80		 and	 ecx, -2147483645	; 80000003H
  0003f	79 05		 jns	 SHORT $LN13@DECSTR
  00041	49		 dec	 ecx
  00042	83 c9 fc	 or	 ecx, -4			; fffffffcH
  00045	41		 inc	 ecx
$LN13@DECSTR:
  00046	b2 ed		 mov	 dl, -19			; ffffffedH
  00048	2a d1		 sub	 dl, cl
  0004a	30 14 30	 xor	 BYTE PTR [eax+esi], dl
  0004d	40		 inc	 eax
$LN14@DECSTR:
  0004e	3b c7		 cmp	 eax, edi
  00050	7c e5		 jl	 SHORT $LL3@DECSTR
  00052	5f		 pop	 edi
  00053	5e		 pop	 esi
  00054	5d		 pop	 ebp
  00055	c3		 ret	 0
?_DECSTR@@YAXPADH@Z ENDP				; _DECSTR
_TEXT	ENDS
PUBLIC	?GetGroup@ioGameEntity@@QBEPAVioEntityGroup@@XZ	; ioGameEntity::GetGroup
; Function compile flags: /Ogsp
; File d:\lost saga for developer\youtube\tutorial\source\src\lsclient\iogameentity.h
;	COMDAT ?GetGroup@ioGameEntity@@QBEPAVioEntityGroup@@XZ
_TEXT	SEGMENT
?GetGroup@ioGameEntity@@QBEPAVioEntityGroup@@XZ PROC	; ioGameEntity::GetGroup, COMDAT
; _this$ = ecx

; 166  : 	inline ioEntityGroup* GetGroup() const { return m_pGroup; }

  00000	8b 41 04	 mov	 eax, DWORD PTR [ecx+4]
  00003	c3		 ret	 0
?GetGroup@ioGameEntity@@QBEPAVioEntityGroup@@XZ ENDP	; ioGameEntity::GetGroup
_TEXT	ENDS
PUBLIC	?GetHP@ioPlayEntity@@QAEAAUStatusValue@@XZ	; ioPlayEntity::GetHP
; Function compile flags: /Ogsp
; File d:\lost saga for developer\youtube\tutorial\source\src\lsclient\ioplayentity.h
;	COMDAT ?GetHP@ioPlayEntity@@QAEAAUStatusValue@@XZ
_TEXT	SEGMENT
?GetHP@ioPlayEntity@@QAEAAUStatusValue@@XZ PROC		; ioPlayEntity::GetHP, COMDAT
; _this$ = ecx

; 96   : 	inline StatusValue& GetHP() { return m_HP; }

  00000	8d 81 c0 00 00
	00		 lea	 eax, DWORD PTR [ecx+192]
  00006	c3		 ret	 0
?GetHP@ioPlayEntity@@QAEAAUStatusValue@@XZ ENDP		; ioPlayEntity::GetHP
_TEXT	ENDS
PUBLIC	?NoUIModeHPShow@Setting@@SA_NXZ			; Setting::NoUIModeHPShow
EXTRN	?m_Option@Setting@@1USettingOption@@A:BYTE	; Setting::m_Option
; Function compile flags: /Ogsp
; File d:\lost saga for developer\youtube\tutorial\source\src\lsclient\setting.h
;	COMDAT ?NoUIModeHPShow@Setting@@SA_NXZ
_TEXT	SEGMENT
?NoUIModeHPShow@Setting@@SA_NXZ PROC			; Setting::NoUIModeHPShow, COMDAT

; 362  : 	static bool NoUIModeHPShow(){ return m_Option.m_bNoUIModeHPShow; }

  00000	a0 6b 00 00 00	 mov	 al, BYTE PTR ?m_Option@Setting@@1USettingOption@@A+107
  00005	c3		 ret	 0
?NoUIModeHPShow@Setting@@SA_NXZ ENDP			; Setting::NoUIModeHPShow
_TEXT	ENDS
PUBLIC	?GetPublicID@ioMyInfo@@QBEABVioHashString@@XZ	; ioMyInfo::GetPublicID
; Function compile flags: /Ogsp
; File d:\lost saga for developer\youtube\tutorial\source\src\lsclient\iomyinfo.h
;	COMDAT ?GetPublicID@ioMyInfo@@QBEABVioHashString@@XZ
_TEXT	SEGMENT
?GetPublicID@ioMyInfo@@QBEABVioHashString@@XZ PROC	; ioMyInfo::GetPublicID, COMDAT
; _this$ = ecx

; 517  : 	const ioHashString& GetPublicID() const { return m_user_data.m_public_id; }    

  00000	8d 41 1c	 lea	 eax, DWORD PTR [ecx+28]
  00003	c3		 ret	 0
?GetPublicID@ioMyInfo@@QBEABVioHashString@@XZ ENDP	; ioMyInfo::GetPublicID
; Function compile flags: /Ogsp
; File d:\lost saga for developer\youtube\tutorial\source\src\lsclient\iodummychar.h
_TEXT	ENDS
;	COMDAT ?IsDummyCharMidSync@ioDummyChar@@UAE_NXZ
_TEXT	SEGMENT
?IsDummyCharMidSync@ioDummyChar@@UAE_NXZ PROC		; ioDummyChar::IsDummyCharMidSync, COMDAT
; _this$ = ecx

; 742  : 	virtual bool IsDummyCharMidSync(){ return false; }

  00000	32 c0		 xor	 al, al
  00002	c3		 ret	 0
?IsDummyCharMidSync@ioDummyChar@@UAE_NXZ ENDP		; ioDummyChar::IsDummyCharMidSync
_TEXT	ENDS
PUBLIC	?GetDelayAnimation@ioAttackableItem@@QBEABVioHashString@@XZ ; ioAttackableItem::GetDelayAnimation
; Function compile flags: /Ogsp
; File d:\lost saga for developer\youtube\tutorial\source\src\lsclient\ioattackableitem.h
;	COMDAT ?GetDelayAnimation@ioAttackableItem@@QBEABVioHashString@@XZ
_TEXT	SEGMENT
?GetDelayAnimation@ioAttackableItem@@QBEABVioHashString@@XZ PROC ; ioAttackableItem::GetDelayAnimation, COMDAT
; _this$ = ecx

; 602  : 	inline const ioHashString& GetDelayAnimation() const { return m_DelayAnimation; }

  00000	8d 81 b0 08 00
	00		 lea	 eax, DWORD PTR [ecx+2224]
  00006	c3		 ret	 0
?GetDelayAnimation@ioAttackableItem@@QBEABVioHashString@@XZ ENDP ; ioAttackableItem::GetDelayAnimation
_TEXT	ENDS
PUBLIC	?GetCreator@ioPlayMode@@QBEPAVioPlayStage@@XZ	; ioPlayMode::GetCreator
; Function compile flags: /Ogsp
; File d:\lost saga for developer\youtube\tutorial\source\src\lsclient\ioplaymode.h
;	COMDAT ?GetCreator@ioPlayMode@@QBEPAVioPlayStage@@XZ
_TEXT	SEGMENT
?GetCreator@ioPlayMode@@QBEPAVioPlayStage@@XZ PROC	; ioPlayMode::GetCreator, COMDAT
; _this$ = ecx

; 631  : 	inline ioPlayStage* GetCreator() const { return m_pCreator; }

  00000	8b 41 34	 mov	 eax, DWORD PTR [ecx+52]
  00003	c3		 ret	 0
?GetCreator@ioPlayMode@@QBEPAVioPlayStage@@XZ ENDP	; ioPlayMode::GetCreator
_TEXT	ENDS
PUBLIC	?IsNoneUIMode@ioSP2GUIManager@@QBE_NXZ		; ioSP2GUIManager::IsNoneUIMode
; Function compile flags: /Ogsp
; File d:\lost saga for developer\youtube\tutorial\source\src\lsclient\gui\iosp2guimanager.h
;	COMDAT ?IsNoneUIMode@ioSP2GUIManager@@QBE_NXZ
_TEXT	SEGMENT
?IsNoneUIMode@ioSP2GUIManager@@QBE_NXZ PROC		; ioSP2GUIManager::IsNoneUIMode, COMDAT
; _this$ = ecx

; 237  : 	inline bool IsNoneUIMode() const { return m_bNoneUIMode; }

  00000	8a 81 e1 04 00
	00		 mov	 al, BYTE PTR [ecx+1249]
  00006	c3		 ret	 0
?IsNoneUIMode@ioSP2GUIManager@@QBE_NXZ ENDP		; ioSP2GUIManager::IsNoneUIMode
_TEXT	ENDS
PUBLIC	?EncryptValueToPool@?$CEncrypt@M@@AAEXPBD@Z	; CEncrypt<float>::EncryptValueToPool
EXTRN	?EncryptByte@ccddaabb@@QAEXPBDPADH@Z:PROC	; ccddaabb::EncryptByte
; Function compile flags: /Ogsp
; File d:\lost saga for developer\youtube\tutorial\source\src\lsclient\encryptvalue.h
;	COMDAT ?EncryptValueToPool@?$CEncrypt@M@@AAEXPBD@Z
_TEXT	SEGMENT
_value$ = 8						; size = 4
?EncryptValueToPool@?$CEncrypt@M@@AAEXPBD@Z PROC	; CEncrypt<float>::EncryptValueToPool, COMDAT
; _this$ = ecx

; 67   : 	{

  00000	55		 push	 ebp
  00001	8b ec		 mov	 ebp, esp

; 68   : 		m_RC5.EncryptByte( value, m_MemPool, max(m_ValueSize, DEFAULT_ENCRYPT) );

  00003	0f b7 41 06	 movzx	 eax, WORD PTR [ecx+6]
  00007	83 f8 04	 cmp	 eax, 4
  0000a	77 03		 ja	 SHORT $LN4@EncryptVal
  0000c	6a 04		 push	 4
  0000e	58		 pop	 eax
$LN4@EncryptVal:
  0000f	50		 push	 eax
  00010	8d 41 1c	 lea	 eax, DWORD PTR [ecx+28]
  00013	50		 push	 eax
  00014	ff 75 08	 push	 DWORD PTR _value$[ebp]
  00017	83 c1 0c	 add	 ecx, 12			; 0000000cH
  0001a	e8 00 00 00 00	 call	 ?EncryptByte@ccddaabb@@QAEXPBDPADH@Z ; ccddaabb::EncryptByte

; 69   : 		
; 70   : 	}

  0001f	5d		 pop	 ebp
  00020	c2 04 00	 ret	 4
?EncryptValueToPool@?$CEncrypt@M@@AAEXPBD@Z ENDP	; CEncrypt<float>::EncryptValueToPool
_TEXT	ENDS
PUBLIC	?DecryptValueToPool@?$CEncrypt@M@@QAEXPAM@Z	; CEncrypt<float>::DecryptValueToPool
EXTRN	?DecryptByte@ccddaabb@@QBEXPBDPADH@Z:PROC	; ccddaabb::DecryptByte
EXTRN	__fltused:DWORD
; Function compile flags: /Ogsp
;	COMDAT ?DecryptValueToPool@?$CEncrypt@M@@QAEXPAM@Z
_TEXT	SEGMENT
_value$ = 8						; size = 4
?DecryptValueToPool@?$CEncrypt@M@@QAEXPAM@Z PROC	; CEncrypt<float>::DecryptValueToPool, COMDAT
; _this$ = ecx

; 1648 : 	{

  00000	55		 push	 ebp
  00001	8b ec		 mov	 ebp, esp
  00003	56		 push	 esi

; 1649 : 		m_RC5.DecryptByte( m_MemPool, m_TempMem, 4 );

  00004	8d 71 28	 lea	 esi, DWORD PTR [ecx+40]
  00007	6a 04		 push	 4
  00009	8d 41 1c	 lea	 eax, DWORD PTR [ecx+28]
  0000c	56		 push	 esi
  0000d	50		 push	 eax
  0000e	83 c1 0c	 add	 ecx, 12			; 0000000cH
  00011	e8 00 00 00 00	 call	 ?DecryptByte@ccddaabb@@QBEXPBDPADH@Z ; ccddaabb::DecryptByte

; 1650 : 		*value = *((float*)m_TempMem);

  00016	d9 06		 fld	 DWORD PTR [esi]
  00018	8b 45 08	 mov	 eax, DWORD PTR _value$[ebp]
  0001b	d9 18		 fstp	 DWORD PTR [eax]
  0001d	5e		 pop	 esi

; 1651 : 	}

  0001e	5d		 pop	 ebp
  0001f	c2 04 00	 ret	 4
?DecryptValueToPool@?$CEncrypt@M@@QAEXPAM@Z ENDP	; CEncrypt<float>::DecryptValueToPool
_TEXT	ENDS
PUBLIC	?DecryptValueToPool@?$CEncrypt@_N@@QAEXPA_N@Z	; CEncrypt<bool>::DecryptValueToPool
; Function compile flags: /Ogsp
;	COMDAT ?DecryptValueToPool@?$CEncrypt@_N@@QAEXPA_N@Z
_TEXT	SEGMENT
_value$ = 8						; size = 4
?DecryptValueToPool@?$CEncrypt@_N@@QAEXPA_N@Z PROC	; CEncrypt<bool>::DecryptValueToPool, COMDAT
; _this$ = ecx

; 219  : 	{

  00000	55		 push	 ebp
  00001	8b ec		 mov	 ebp, esp
  00003	56		 push	 esi

; 220  : 		m_RC5.DecryptByte( m_MemPool, m_TempMem, 4 );

  00004	8d 71 28	 lea	 esi, DWORD PTR [ecx+40]
  00007	6a 04		 push	 4
  00009	8d 41 1c	 lea	 eax, DWORD PTR [ecx+28]
  0000c	56		 push	 esi
  0000d	50		 push	 eax
  0000e	83 c1 0c	 add	 ecx, 12			; 0000000cH
  00011	e8 00 00 00 00	 call	 ?DecryptByte@ccddaabb@@QBEXPBDPADH@Z ; ccddaabb::DecryptByte

; 221  : 		*value = *((bool*)m_TempMem);

  00016	8a 06		 mov	 al, BYTE PTR [esi]
  00018	8b 4d 08	 mov	 ecx, DWORD PTR _value$[ebp]
  0001b	88 01		 mov	 BYTE PTR [ecx], al
  0001d	5e		 pop	 esi

; 222  : 	}

  0001e	5d		 pop	 ebp
  0001f	c2 04 00	 ret	 4
?DecryptValueToPool@?$CEncrypt@_N@@QAEXPA_N@Z ENDP	; CEncrypt<bool>::DecryptValueToPool
_TEXT	ENDS
PUBLIC	?EncryptValueToPool@?$CEncrypt@W4TeamType@@@@AAEXPBD@Z ; CEncrypt<enum TeamType>::EncryptValueToPool
; Function compile flags: /Ogsp
;	COMDAT ?EncryptValueToPool@?$CEncrypt@W4TeamType@@@@AAEXPBD@Z
_TEXT	SEGMENT
_value$ = 8						; size = 4
?EncryptValueToPool@?$CEncrypt@W4TeamType@@@@AAEXPBD@Z PROC ; CEncrypt<enum TeamType>::EncryptValueToPool, COMDAT
; _this$ = ecx

; 67   : 	{

  00000	55		 push	 ebp
  00001	8b ec		 mov	 ebp, esp

; 68   : 		m_RC5.EncryptByte( value, m_MemPool, max(m_ValueSize, DEFAULT_ENCRYPT) );

  00003	0f b7 41 06	 movzx	 eax, WORD PTR [ecx+6]
  00007	83 f8 04	 cmp	 eax, 4
  0000a	77 03		 ja	 SHORT $LN4@EncryptVal@2
  0000c	6a 04		 push	 4
  0000e	58		 pop	 eax
$LN4@EncryptVal@2:
  0000f	50		 push	 eax
  00010	8d 41 1c	 lea	 eax, DWORD PTR [ecx+28]
  00013	50		 push	 eax
  00014	ff 75 08	 push	 DWORD PTR _value$[ebp]
  00017	83 c1 0c	 add	 ecx, 12			; 0000000cH
  0001a	e8 00 00 00 00	 call	 ?EncryptByte@ccddaabb@@QAEXPBDPADH@Z ; ccddaabb::EncryptByte

; 69   : 		
; 70   : 	}

  0001f	5d		 pop	 ebp
  00020	c2 04 00	 ret	 4
?EncryptValueToPool@?$CEncrypt@W4TeamType@@@@AAEXPBD@Z ENDP ; CEncrypt<enum TeamType>::EncryptValueToPool
_TEXT	ENDS
PUBLIC	?DecryptValueToPool@?$CEncrypt@W4TeamType@@@@QAEXPAW4TeamType@@@Z ; CEncrypt<enum TeamType>::DecryptValueToPool
; Function compile flags: /Ogsp
;	COMDAT ?DecryptValueToPool@?$CEncrypt@W4TeamType@@@@QAEXPAW4TeamType@@@Z
_TEXT	SEGMENT
_value$ = 8						; size = 4
?DecryptValueToPool@?$CEncrypt@W4TeamType@@@@QAEXPAW4TeamType@@@Z PROC ; CEncrypt<enum TeamType>::DecryptValueToPool, COMDAT
; _this$ = ecx

; 2959 : 	{

  00000	55		 push	 ebp
  00001	8b ec		 mov	 ebp, esp
  00003	56		 push	 esi

; 2960 : 		m_RC5.DecryptByte( m_MemPool, m_TempMem, sizeof(TeamType) );

  00004	8d 71 28	 lea	 esi, DWORD PTR [ecx+40]
  00007	6a 04		 push	 4
  00009	8d 41 1c	 lea	 eax, DWORD PTR [ecx+28]
  0000c	56		 push	 esi
  0000d	50		 push	 eax
  0000e	83 c1 0c	 add	 ecx, 12			; 0000000cH
  00011	e8 00 00 00 00	 call	 ?DecryptByte@ccddaabb@@QBEXPBDPADH@Z ; ccddaabb::DecryptByte

; 2961 : 		*value = *((TeamType*)m_TempMem);

  00016	8b 06		 mov	 eax, DWORD PTR [esi]
  00018	8b 4d 08	 mov	 ecx, DWORD PTR _value$[ebp]
  0001b	89 01		 mov	 DWORD PTR [ecx], eax
  0001d	5e		 pop	 esi

; 2962 : 	}

  0001e	5d		 pop	 ebp
  0001f	c2 04 00	 ret	 4
?DecryptValueToPool@?$CEncrypt@W4TeamType@@@@QAEXPAW4TeamType@@@Z ENDP ; CEncrypt<enum TeamType>::DecryptValueToPool
_TEXT	ENDS
EXTRN	??3@YAXPAX@Z:PROC				; operator delete
; Function compile flags: /Ogsp
;	COMDAT ??_GioCopyOwnerDummyChar5@@UAEPAXI@Z
_TEXT	SEGMENT
___flags$ = 8						; size = 4
??_GioCopyOwnerDummyChar5@@UAEPAXI@Z PROC		; ioCopyOwnerDummyChar5::`scalar deleting destructor', COMDAT
; _this$ = ecx
  00000	55		 push	 ebp
  00001	8b ec		 mov	 ebp, esp
  00003	56		 push	 esi
  00004	8b f1		 mov	 esi, ecx
  00006	e8 00 00 00 00	 call	 ??1ioCopyOwnerDummyChar5@@UAE@XZ ; ioCopyOwnerDummyChar5::~ioCopyOwnerDummyChar5
  0000b	f6 45 08 01	 test	 BYTE PTR ___flags$[ebp], 1
  0000f	74 07		 je	 SHORT $LN1@scalar
  00011	56		 push	 esi
  00012	e8 00 00 00 00	 call	 ??3@YAXPAX@Z		; operator delete
  00017	59		 pop	 ecx
$LN1@scalar:
  00018	8b c6		 mov	 eax, esi
  0001a	5e		 pop	 esi
  0001b	5d		 pop	 ebp
  0001c	c2 04 00	 ret	 4
??_GioCopyOwnerDummyChar5@@UAEPAXI@Z ENDP		; ioCopyOwnerDummyChar5::`scalar deleting destructor'
_TEXT	ENDS
PUBLIC	??D?$CEncrypt@M@@QAEMABM@Z			; CEncrypt<float>::operator*
; Function compile flags: /Ogsp
;	COMDAT ??D?$CEncrypt@M@@QAEMABM@Z
_TEXT	SEGMENT
_value$ = -4						; size = 4
tv130 = 8						; size = 4
_inValue$ = 8						; size = 4
??D?$CEncrypt@M@@QAEMABM@Z PROC				; CEncrypt<float>::operator*, COMDAT
; _this$ = ecx

; 1685 : 	{	

  00000	55		 push	 ebp
  00001	8b ec		 mov	 ebp, esp
  00003	51		 push	 ecx

; 1686 : 		type value;
; 1687 : 		DecryptValueToPool(&value);

  00004	8d 45 fc	 lea	 eax, DWORD PTR _value$[ebp]
  00007	50		 push	 eax
  00008	e8 00 00 00 00	 call	 ?DecryptValueToPool@?$CEncrypt@M@@QAEXPAM@Z ; CEncrypt<float>::DecryptValueToPool

; 1688 : #ifdef _NOTUSE
; 1689 : 		Debug();
; 1690 : #endif
; 1691 : 		return value * inValue;

  0000d	8b 45 08	 mov	 eax, DWORD PTR _inValue$[ebp]
  00010	d9 00		 fld	 DWORD PTR [eax]
  00012	d8 4d fc	 fmul	 DWORD PTR _value$[ebp]
  00015	d9 5d 08	 fstp	 DWORD PTR tv130[ebp]
  00018	d9 45 08	 fld	 DWORD PTR tv130[ebp]

; 1692 : 	}

  0001b	c9		 leave
  0001c	c2 04 00	 ret	 4
??D?$CEncrypt@M@@QAEMABM@Z ENDP				; CEncrypt<float>::operator*
_TEXT	ENDS
PUBLIC	__$ArrayPad$
PUBLIC	??$LoadBool_e@$0BJ@@ioINILoader@@QAE_NAAY0BJ@$$CBD_N@Z ; ioINILoader::LoadBool_e<25>
EXTRN	__imp_?LoadBool@ioINILoader@@QAE_NPBD_N@Z:PROC
EXTRN	___security_cookie:DWORD
; Function compile flags: /Ogsp
; File d:\lost saga for developer\youtube\tutorial\source\src\io3dengine\ioiniloader.h
;	COMDAT ??$LoadBool_e@$0BJ@@ioINILoader@@QAE_NAAY0BJ@$$CBD_N@Z
_TEXT	SEGMENT
__k$ = -36						; size = 25
__$ArrayPad$ = -4					; size = 4
_k$ = 8							; size = 4
_b$ = 12						; size = 1
??$LoadBool_e@$0BJ@@ioINILoader@@QAE_NAAY0BJ@$$CBD_N@Z PROC ; ioINILoader::LoadBool_e<25>, COMDAT
; _this$ = ecx

; 101  : 	{

  00000	55		 push	 ebp
  00001	8b ec		 mov	 ebp, esp
  00003	83 ec 24	 sub	 esp, 36			; 00000024H
  00006	a1 00 00 00 00	 mov	 eax, DWORD PTR ___security_cookie
  0000b	33 c5		 xor	 eax, ebp
  0000d	89 45 fc	 mov	 DWORD PTR __$ArrayPad$[ebp], eax
  00010	8b 45 08	 mov	 eax, DWORD PTR _k$[ebp]

; 102  : 		_ENCSTR(k, _k);

  00013	8a 10		 mov	 dl, BYTE PTR [eax]
  00015	53		 push	 ebx
  00016	56		 push	 esi
  00017	8b f1		 mov	 esi, ecx
  00019	84 d2		 test	 dl, dl
  0001b	0f 84 5f 02 00
	00		 je	 $LN96@LoadBool_e
  00021	80 f2 ed	 xor	 dl, -19			; ffffffedH
  00024	88 55 dc	 mov	 BYTE PTR __k$[ebp], dl
  00027	8a 50 01	 mov	 dl, BYTE PTR [eax+1]
  0002a	84 d2		 test	 dl, dl
  0002c	0f 84 48 02 00
	00		 je	 $LN95@LoadBool_e
  00032	b1 ec		 mov	 cl, -20			; ffffffecH
  00034	32 d1		 xor	 dl, cl
  00036	88 55 dd	 mov	 BYTE PTR __k$[ebp+1], dl
  00039	8a 50 02	 mov	 dl, BYTE PTR [eax+2]
  0003c	84 d2		 test	 dl, dl
  0003e	0f 84 30 02 00
	00		 je	 $LN94@LoadBool_e
  00044	b3 eb		 mov	 bl, -21			; ffffffebH
  00046	32 d3		 xor	 dl, bl
  00048	88 55 de	 mov	 BYTE PTR __k$[ebp+2], dl
  0004b	8a 50 03	 mov	 dl, BYTE PTR [eax+3]
  0004e	84 d2		 test	 dl, dl
  00050	0f 84 18 02 00
	00		 je	 $LN93@LoadBool_e
  00056	80 f2 ea	 xor	 dl, -22			; ffffffeaH
  00059	88 55 df	 mov	 BYTE PTR __k$[ebp+3], dl
  0005c	8a 50 04	 mov	 dl, BYTE PTR [eax+4]
  0005f	84 d2		 test	 dl, dl
  00061	0f 84 01 02 00
	00		 je	 $LN92@LoadBool_e
  00067	80 f2 ed	 xor	 dl, -19			; ffffffedH
  0006a	88 55 e0	 mov	 BYTE PTR __k$[ebp+4], dl
  0006d	8a 50 05	 mov	 dl, BYTE PTR [eax+5]
  00070	84 d2		 test	 dl, dl
  00072	0f 84 eb 01 00
	00		 je	 $LN91@LoadBool_e
  00078	32 d1		 xor	 dl, cl
  0007a	88 55 e1	 mov	 BYTE PTR __k$[ebp+5], dl
  0007d	8a 50 06	 mov	 dl, BYTE PTR [eax+6]
  00080	84 d2		 test	 dl, dl
  00082	0f 84 d6 01 00
	00		 je	 $LN90@LoadBool_e
  00088	32 d3		 xor	 dl, bl
  0008a	88 55 e2	 mov	 BYTE PTR __k$[ebp+6], dl
  0008d	8a 50 07	 mov	 dl, BYTE PTR [eax+7]
  00090	84 d2		 test	 dl, dl
  00092	0f 84 c0 01 00
	00		 je	 $LN89@LoadBool_e
  00098	80 f2 ea	 xor	 dl, -22			; ffffffeaH
  0009b	88 55 e3	 mov	 BYTE PTR __k$[ebp+7], dl
  0009e	8a 50 08	 mov	 dl, BYTE PTR [eax+8]
  000a1	84 d2		 test	 dl, dl
  000a3	0f 84 a9 01 00
	00		 je	 $LN88@LoadBool_e
  000a9	80 f2 ed	 xor	 dl, -19			; ffffffedH
  000ac	88 55 e4	 mov	 BYTE PTR __k$[ebp+8], dl
  000af	8a 50 09	 mov	 dl, BYTE PTR [eax+9]
  000b2	84 d2		 test	 dl, dl
  000b4	0f 84 93 01 00
	00		 je	 $LN87@LoadBool_e
  000ba	32 d1		 xor	 dl, cl
  000bc	88 55 e5	 mov	 BYTE PTR __k$[ebp+9], dl
  000bf	8a 50 0a	 mov	 dl, BYTE PTR [eax+10]
  000c2	84 d2		 test	 dl, dl
  000c4	0f 84 7e 01 00
	00		 je	 $LN86@LoadBool_e
  000ca	32 d3		 xor	 dl, bl
  000cc	88 55 e6	 mov	 BYTE PTR __k$[ebp+10], dl
  000cf	8a 50 0b	 mov	 dl, BYTE PTR [eax+11]
  000d2	84 d2		 test	 dl, dl
  000d4	0f 84 68 01 00
	00		 je	 $LN85@LoadBool_e
  000da	80 f2 ea	 xor	 dl, -22			; ffffffeaH
  000dd	88 55 e7	 mov	 BYTE PTR __k$[ebp+11], dl
  000e0	8a 50 0c	 mov	 dl, BYTE PTR [eax+12]
  000e3	84 d2		 test	 dl, dl
  000e5	0f 84 51 01 00
	00		 je	 $LN84@LoadBool_e
  000eb	80 f2 ed	 xor	 dl, -19			; ffffffedH
  000ee	88 55 e8	 mov	 BYTE PTR __k$[ebp+12], dl
  000f1	8a 50 0d	 mov	 dl, BYTE PTR [eax+13]
  000f4	84 d2		 test	 dl, dl
  000f6	0f 84 3b 01 00
	00		 je	 $LN83@LoadBool_e
  000fc	32 d1		 xor	 dl, cl
  000fe	88 55 e9	 mov	 BYTE PTR __k$[ebp+13], dl
  00101	8a 50 0e	 mov	 dl, BYTE PTR [eax+14]
  00104	84 d2		 test	 dl, dl
  00106	0f 84 26 01 00
	00		 je	 $LN82@LoadBool_e
  0010c	32 d3		 xor	 dl, bl
  0010e	88 55 ea	 mov	 BYTE PTR __k$[ebp+14], dl
  00111	8a 50 0f	 mov	 dl, BYTE PTR [eax+15]
  00114	84 d2		 test	 dl, dl
  00116	0f 84 10 01 00
	00		 je	 $LN81@LoadBool_e
  0011c	80 f2 ea	 xor	 dl, -22			; ffffffeaH
  0011f	88 55 eb	 mov	 BYTE PTR __k$[ebp+15], dl
  00122	8a 50 10	 mov	 dl, BYTE PTR [eax+16]
  00125	84 d2		 test	 dl, dl
  00127	0f 84 f9 00 00
	00		 je	 $LN80@LoadBool_e
  0012d	80 f2 ed	 xor	 dl, -19			; ffffffedH
  00130	88 55 ec	 mov	 BYTE PTR __k$[ebp+16], dl
  00133	8a 50 11	 mov	 dl, BYTE PTR [eax+17]
  00136	84 d2		 test	 dl, dl
  00138	0f 84 e3 00 00
	00		 je	 $LN79@LoadBool_e
  0013e	32 d1		 xor	 dl, cl
  00140	88 55 ed	 mov	 BYTE PTR __k$[ebp+17], dl
  00143	8a 50 12	 mov	 dl, BYTE PTR [eax+18]
  00146	84 d2		 test	 dl, dl
  00148	0f 84 ce 00 00
	00		 je	 $LN78@LoadBool_e
  0014e	32 d3		 xor	 dl, bl
  00150	88 55 ee	 mov	 BYTE PTR __k$[ebp+18], dl
  00153	8a 50 13	 mov	 dl, BYTE PTR [eax+19]
  00156	84 d2		 test	 dl, dl
  00158	0f 84 b8 00 00
	00		 je	 $LN77@LoadBool_e
  0015e	80 f2 ea	 xor	 dl, -22			; ffffffeaH
  00161	88 55 ef	 mov	 BYTE PTR __k$[ebp+19], dl
  00164	8a 50 14	 mov	 dl, BYTE PTR [eax+20]
  00167	84 d2		 test	 dl, dl
  00169	0f 84 a1 00 00
	00		 je	 $LN76@LoadBool_e
  0016f	80 f2 ed	 xor	 dl, -19			; ffffffedH
  00172	88 55 f0	 mov	 BYTE PTR __k$[ebp+20], dl
  00175	8a 50 15	 mov	 dl, BYTE PTR [eax+21]
  00178	84 d2		 test	 dl, dl
  0017a	0f 84 8b 00 00
	00		 je	 $LN75@LoadBool_e
  00180	32 d1		 xor	 dl, cl
  00182	88 55 f1	 mov	 BYTE PTR __k$[ebp+21], dl
  00185	8a 50 16	 mov	 dl, BYTE PTR [eax+22]
  00188	84 d2		 test	 dl, dl
  0018a	74 7a		 je	 SHORT $LN74@LoadBool_e
  0018c	32 d3		 xor	 dl, bl
  0018e	88 55 f2	 mov	 BYTE PTR __k$[ebp+22], dl
  00191	8a 50 17	 mov	 dl, BYTE PTR [eax+23]
  00194	84 d2		 test	 dl, dl
  00196	74 68		 je	 SHORT $LN73@LoadBool_e
  00198	80 f2 ea	 xor	 dl, -22			; ffffffeaH
  0019b	80 78 18 00	 cmp	 BYTE PTR [eax+24], 0
  0019f	88 55 f3	 mov	 BYTE PTR __k$[ebp+23], dl
  001a2	0f 84 dc 00 00
	00		 je	 $LN1@LoadBool_e
  001a8	8a 50 19	 mov	 dl, BYTE PTR [eax+25]
  001ab	84 d2		 test	 dl, dl
  001ad	74 49		 je	 SHORT $LN71@LoadBool_e
  001af	32 d1		 xor	 dl, cl
  001b1	88 55 f5	 mov	 BYTE PTR __k$[ebp+25], dl
  001b4	8a 50 1a	 mov	 dl, BYTE PTR [eax+26]
  001b7	84 d2		 test	 dl, dl
  001b9	74 35		 je	 SHORT $LN70@LoadBool_e
  001bb	32 d3		 xor	 dl, bl
  001bd	88 55 f6	 mov	 BYTE PTR __k$[ebp+26], dl
  001c0	8a 50 1b	 mov	 dl, BYTE PTR [eax+27]
  001c3	84 d2		 test	 dl, dl
  001c5	74 20		 je	 SHORT $LN69@LoadBool_e
  001c7	8a 40 1c	 mov	 al, BYTE PTR [eax+28]
  001ca	80 f2 ea	 xor	 dl, -22			; ffffffeaH
  001cd	88 55 f7	 mov	 BYTE PTR __k$[ebp+27], dl
  001d0	84 c0		 test	 al, al
  001d2	74 0a		 je	 SHORT $LN68@LoadBool_e
  001d4	34 ed		 xor	 al, -19			; ffffffedH
  001d6	88 45 f8	 mov	 BYTE PTR __k$[ebp+28], al
  001d9	e9 a6 00 00 00	 jmp	 $LN1@LoadBool_e
$LN68@LoadBool_e:
  001de	c6 45 f8 ed	 mov	 BYTE PTR __k$[ebp+28], -19 ; ffffffedH
  001e2	e9 9d 00 00 00	 jmp	 $LN1@LoadBool_e
$LN69@LoadBool_e:
  001e7	c6 45 f7 ea	 mov	 BYTE PTR __k$[ebp+27], -22 ; ffffffeaH
  001eb	e9 94 00 00 00	 jmp	 $LN1@LoadBool_e
$LN70@LoadBool_e:
  001f0	88 5d f6	 mov	 BYTE PTR __k$[ebp+26], bl
  001f3	e9 8c 00 00 00	 jmp	 $LN1@LoadBool_e
$LN71@LoadBool_e:
  001f8	88 4d f5	 mov	 BYTE PTR __k$[ebp+25], cl
  001fb	e9 84 00 00 00	 jmp	 $LN1@LoadBool_e
$LN73@LoadBool_e:
  00200	c6 45 f3 ea	 mov	 BYTE PTR __k$[ebp+23], -22 ; ffffffeaH
  00204	eb 7e		 jmp	 SHORT $LN1@LoadBool_e
$LN74@LoadBool_e:
  00206	88 5d f2	 mov	 BYTE PTR __k$[ebp+22], bl
  00209	eb 79		 jmp	 SHORT $LN1@LoadBool_e
$LN75@LoadBool_e:
  0020b	88 4d f1	 mov	 BYTE PTR __k$[ebp+21], cl
  0020e	eb 74		 jmp	 SHORT $LN1@LoadBool_e
$LN76@LoadBool_e:
  00210	c6 45 f0 ed	 mov	 BYTE PTR __k$[ebp+20], -19 ; ffffffedH
  00214	eb 6e		 jmp	 SHORT $LN1@LoadBool_e
$LN77@LoadBool_e:
  00216	c6 45 ef ea	 mov	 BYTE PTR __k$[ebp+19], -22 ; ffffffeaH
  0021a	eb 68		 jmp	 SHORT $LN1@LoadBool_e
$LN78@LoadBool_e:
  0021c	88 5d ee	 mov	 BYTE PTR __k$[ebp+18], bl
  0021f	eb 63		 jmp	 SHORT $LN1@LoadBool_e
$LN79@LoadBool_e:
  00221	88 4d ed	 mov	 BYTE PTR __k$[ebp+17], cl
  00224	eb 5e		 jmp	 SHORT $LN1@LoadBool_e
$LN80@LoadBool_e:
  00226	c6 45 ec ed	 mov	 BYTE PTR __k$[ebp+16], -19 ; ffffffedH
  0022a	eb 58		 jmp	 SHORT $LN1@LoadBool_e
$LN81@LoadBool_e:
  0022c	c6 45 eb ea	 mov	 BYTE PTR __k$[ebp+15], -22 ; ffffffeaH
  00230	eb 52		 jmp	 SHORT $LN1@LoadBool_e
$LN82@LoadBool_e:
  00232	88 5d ea	 mov	 BYTE PTR __k$[ebp+14], bl
  00235	eb 4d		 jmp	 SHORT $LN1@LoadBool_e
$LN83@LoadBool_e:
  00237	88 4d e9	 mov	 BYTE PTR __k$[ebp+13], cl
  0023a	eb 48		 jmp	 SHORT $LN1@LoadBool_e
$LN84@LoadBool_e:
  0023c	c6 45 e8 ed	 mov	 BYTE PTR __k$[ebp+12], -19 ; ffffffedH
  00240	eb 42		 jmp	 SHORT $LN1@LoadBool_e
$LN85@LoadBool_e:
  00242	c6 45 e7 ea	 mov	 BYTE PTR __k$[ebp+11], -22 ; ffffffeaH
  00246	eb 3c		 jmp	 SHORT $LN1@LoadBool_e
$LN86@LoadBool_e:
  00248	88 5d e6	 mov	 BYTE PTR __k$[ebp+10], bl
  0024b	eb 37		 jmp	 SHORT $LN1@LoadBool_e
$LN87@LoadBool_e:
  0024d	88 4d e5	 mov	 BYTE PTR __k$[ebp+9], cl
  00250	eb 32		 jmp	 SHORT $LN1@LoadBool_e
$LN88@LoadBool_e:
  00252	c6 45 e4 ed	 mov	 BYTE PTR __k$[ebp+8], -19 ; ffffffedH
  00256	eb 2c		 jmp	 SHORT $LN1@LoadBool_e
$LN89@LoadBool_e:
  00258	c6 45 e3 ea	 mov	 BYTE PTR __k$[ebp+7], -22 ; ffffffeaH
  0025c	eb 26		 jmp	 SHORT $LN1@LoadBool_e
$LN90@LoadBool_e:
  0025e	88 5d e2	 mov	 BYTE PTR __k$[ebp+6], bl
  00261	eb 21		 jmp	 SHORT $LN1@LoadBool_e
$LN91@LoadBool_e:
  00263	88 4d e1	 mov	 BYTE PTR __k$[ebp+5], cl
  00266	eb 1c		 jmp	 SHORT $LN1@LoadBool_e
$LN92@LoadBool_e:
  00268	c6 45 e0 ed	 mov	 BYTE PTR __k$[ebp+4], -19 ; ffffffedH
  0026c	eb 16		 jmp	 SHORT $LN1@LoadBool_e
$LN93@LoadBool_e:
  0026e	c6 45 df ea	 mov	 BYTE PTR __k$[ebp+3], -22 ; ffffffeaH
  00272	eb 10		 jmp	 SHORT $LN1@LoadBool_e
$LN94@LoadBool_e:
  00274	c6 45 de eb	 mov	 BYTE PTR __k$[ebp+2], -21 ; ffffffebH
  00278	eb 0a		 jmp	 SHORT $LN1@LoadBool_e
$LN95@LoadBool_e:
  0027a	c6 45 dd ec	 mov	 BYTE PTR __k$[ebp+1], -20 ; ffffffecH
  0027e	eb 04		 jmp	 SHORT $LN1@LoadBool_e
$LN96@LoadBool_e:
  00280	c6 45 dc ed	 mov	 BYTE PTR __k$[ebp], -19	; ffffffedH
$LN1@LoadBool_e:
  00284	6a 06		 push	 6
  00286	8d 45 dc	 lea	 eax, DWORD PTR __k$[ebp]
  00289	c6 45 f4 00	 mov	 BYTE PTR __k$[ebp+24], 0
  0028d	5a		 pop	 edx
$LL104@LoadBool_e:
  0028e	81 30 ed ec eb
	ea		 xor	 DWORD PTR [eax], -353637139 ; eaebecedH
  00294	83 c0 04	 add	 eax, 4
  00297	4a		 dec	 edx
  00298	75 f4		 jne	 SHORT $LL104@LoadBool_e

; 103  : 		return LoadBool(_k, b);

  0029a	ff 75 0c	 push	 DWORD PTR _b$[ebp]
  0029d	8d 45 dc	 lea	 eax, DWORD PTR __k$[ebp]
  002a0	50		 push	 eax
  002a1	8b ce		 mov	 ecx, esi
  002a3	ff 15 00 00 00
	00		 call	 DWORD PTR __imp_?LoadBool@ioINILoader@@QAE_NPBD_N@Z

; 104  : 	}

  002a9	8b 4d fc	 mov	 ecx, DWORD PTR __$ArrayPad$[ebp]
  002ac	5e		 pop	 esi
  002ad	33 cd		 xor	 ecx, ebp
  002af	5b		 pop	 ebx
  002b0	e8 00 00 00 00	 call	 @__security_check_cookie@4
  002b5	c9		 leave
  002b6	c2 08 00	 ret	 8
??$LoadBool_e@$0BJ@@ioINILoader@@QAE_NAAY0BJ@$$CBD_N@Z ENDP ; ioINILoader::LoadBool_e<25>
_TEXT	ENDS
PUBLIC	_this$GSCopy$
PUBLIC	__$ArrayPad$
PUBLIC	??$LoadString_e@$0BB@@ioINILoader@@QAEXAAY0BB@$$CBDAAY00$$CBDPADH@Z ; ioINILoader::LoadString_e<17>
EXTRN	__imp_?LoadStringA@ioINILoader@@QAEXPBD0PADH@Z:PROC
; Function compile flags: /Ogsp
;	COMDAT ??$LoadString_e@$0BB@@ioINILoader@@QAEXAAY0BB@$$CBDAAY00$$CBDPADH@Z
_TEXT	SEGMENT
_this$GSCopy$ = -32					; size = 4
__k$ = -28						; size = 17
__$ArrayPad$ = -4					; size = 4
_k$ = 8							; size = 4
_d$ = 12						; size = 4
_b$ = 16						; size = 4
_i$ = 20						; size = 4
??$LoadString_e@$0BB@@ioINILoader@@QAEXAAY0BB@$$CBDAAY00$$CBDPADH@Z PROC ; ioINILoader::LoadString_e<17>, COMDAT
; _this$ = ecx

; 161  : 	{

  00000	55		 push	 ebp
  00001	8b ec		 mov	 ebp, esp
  00003	83 ec 20	 sub	 esp, 32			; 00000020H
  00006	a1 00 00 00 00	 mov	 eax, DWORD PTR ___security_cookie
  0000b	33 c5		 xor	 eax, ebp
  0000d	89 45 fc	 mov	 DWORD PTR __$ArrayPad$[ebp], eax
  00010	8b 45 08	 mov	 eax, DWORD PTR _k$[ebp]

; 162  : 		_ENCSTR(k, _k);

  00013	8a 10		 mov	 dl, BYTE PTR [eax]
  00015	56		 push	 esi
  00016	8b 75 0c	 mov	 esi, DWORD PTR _d$[ebp]
  00019	57		 push	 edi
  0001a	8b 7d 10	 mov	 edi, DWORD PTR _b$[ebp]
  0001d	89 4d e0	 mov	 DWORD PTR _this$GSCopy$[ebp], ecx
  00020	84 d2		 test	 dl, dl
  00022	0f 84 a7 01 00
	00		 je	 $LN96@LoadString
  00028	80 f2 ed	 xor	 dl, -19			; ffffffedH
  0002b	88 55 e4	 mov	 BYTE PTR __k$[ebp], dl
  0002e	8a 50 01	 mov	 dl, BYTE PTR [eax+1]
  00031	84 d2		 test	 dl, dl
  00033	0f 84 90 01 00
	00		 je	 $LN95@LoadString
  00039	b1 ec		 mov	 cl, -20			; ffffffecH
  0003b	32 d1		 xor	 dl, cl
  0003d	88 55 e5	 mov	 BYTE PTR __k$[ebp+1], dl
  00040	8a 50 02	 mov	 dl, BYTE PTR [eax+2]
  00043	84 d2		 test	 dl, dl
  00045	0f 84 78 01 00
	00		 je	 $LN94@LoadString
  0004b	80 f2 eb	 xor	 dl, -21			; ffffffebH
  0004e	88 55 e6	 mov	 BYTE PTR __k$[ebp+2], dl
  00051	8a 50 03	 mov	 dl, BYTE PTR [eax+3]
  00054	84 d2		 test	 dl, dl
  00056	0f 84 61 01 00
	00		 je	 $LN93@LoadString
  0005c	80 f2 ea	 xor	 dl, -22			; ffffffeaH
  0005f	88 55 e7	 mov	 BYTE PTR __k$[ebp+3], dl
  00062	8a 50 04	 mov	 dl, BYTE PTR [eax+4]
  00065	84 d2		 test	 dl, dl
  00067	0f 84 4a 01 00
	00		 je	 $LN92@LoadString
  0006d	80 f2 ed	 xor	 dl, -19			; ffffffedH
  00070	88 55 e8	 mov	 BYTE PTR __k$[ebp+4], dl
  00073	8a 50 05	 mov	 dl, BYTE PTR [eax+5]
  00076	84 d2		 test	 dl, dl
  00078	0f 84 34 01 00
	00		 je	 $LN91@LoadString
  0007e	32 d1		 xor	 dl, cl
  00080	88 55 e9	 mov	 BYTE PTR __k$[ebp+5], dl
  00083	8a 50 06	 mov	 dl, BYTE PTR [eax+6]
  00086	84 d2		 test	 dl, dl
  00088	0f 84 1e 01 00
	00		 je	 $LN90@LoadString
  0008e	80 f2 eb	 xor	 dl, -21			; ffffffebH
  00091	88 55 ea	 mov	 BYTE PTR __k$[ebp+6], dl
  00094	8a 50 07	 mov	 dl, BYTE PTR [eax+7]
  00097	84 d2		 test	 dl, dl
  00099	0f 84 07 01 00
	00		 je	 $LN89@LoadString
  0009f	80 f2 ea	 xor	 dl, -22			; ffffffeaH
  000a2	88 55 eb	 mov	 BYTE PTR __k$[ebp+7], dl
  000a5	8a 50 08	 mov	 dl, BYTE PTR [eax+8]
  000a8	84 d2		 test	 dl, dl
  000aa	0f 84 f0 00 00
	00		 je	 $LN88@LoadString
  000b0	80 f2 ed	 xor	 dl, -19			; ffffffedH
  000b3	88 55 ec	 mov	 BYTE PTR __k$[ebp+8], dl
  000b6	8a 50 09	 mov	 dl, BYTE PTR [eax+9]
  000b9	84 d2		 test	 dl, dl
  000bb	0f 84 da 00 00
	00		 je	 $LN87@LoadString
  000c1	32 d1		 xor	 dl, cl
  000c3	88 55 ed	 mov	 BYTE PTR __k$[ebp+9], dl
  000c6	8a 50 0a	 mov	 dl, BYTE PTR [eax+10]
  000c9	84 d2		 test	 dl, dl
  000cb	0f 84 c4 00 00
	00		 je	 $LN86@LoadString
  000d1	80 f2 eb	 xor	 dl, -21			; ffffffebH
  000d4	88 55 ee	 mov	 BYTE PTR __k$[ebp+10], dl
  000d7	8a 50 0b	 mov	 dl, BYTE PTR [eax+11]
  000da	84 d2		 test	 dl, dl
  000dc	0f 84 ad 00 00
	00		 je	 $LN85@LoadString
  000e2	80 f2 ea	 xor	 dl, -22			; ffffffeaH
  000e5	88 55 ef	 mov	 BYTE PTR __k$[ebp+11], dl
  000e8	8a 50 0c	 mov	 dl, BYTE PTR [eax+12]
  000eb	84 d2		 test	 dl, dl
  000ed	0f 84 96 00 00
	00		 je	 $LN84@LoadString
  000f3	80 f2 ed	 xor	 dl, -19			; ffffffedH
  000f6	88 55 f0	 mov	 BYTE PTR __k$[ebp+12], dl
  000f9	8a 50 0d	 mov	 dl, BYTE PTR [eax+13]
  000fc	84 d2		 test	 dl, dl
  000fe	0f 84 80 00 00
	00		 je	 $LN83@LoadString
  00104	32 d1		 xor	 dl, cl
  00106	88 55 f1	 mov	 BYTE PTR __k$[ebp+13], dl
  00109	8a 50 0e	 mov	 dl, BYTE PTR [eax+14]
  0010c	84 d2		 test	 dl, dl
  0010e	74 6e		 je	 SHORT $LN82@LoadString
  00110	80 f2 eb	 xor	 dl, -21			; ffffffebH
  00113	88 55 f2	 mov	 BYTE PTR __k$[ebp+14], dl
  00116	8a 50 0f	 mov	 dl, BYTE PTR [eax+15]
  00119	84 d2		 test	 dl, dl
  0011b	74 5b		 je	 SHORT $LN81@LoadString
  0011d	80 f2 ea	 xor	 dl, -22			; ffffffeaH
  00120	80 78 10 00	 cmp	 BYTE PTR [eax+16], 0
  00124	88 55 f3	 mov	 BYTE PTR __k$[ebp+15], dl
  00127	0f 84 a6 00 00
	00		 je	 $LN111@LoadString
  0012d	8a 50 11	 mov	 dl, BYTE PTR [eax+17]
  00130	84 d2		 test	 dl, dl
  00132	74 3f		 je	 SHORT $LN79@LoadString
  00134	32 d1		 xor	 dl, cl
  00136	88 55 f5	 mov	 BYTE PTR __k$[ebp+17], dl
  00139	8a 50 12	 mov	 dl, BYTE PTR [eax+18]
  0013c	84 d2		 test	 dl, dl
  0013e	74 2d		 je	 SHORT $LN78@LoadString
  00140	80 f2 eb	 xor	 dl, -21			; ffffffebH
  00143	88 55 f6	 mov	 BYTE PTR __k$[ebp+18], dl
  00146	8a 50 13	 mov	 dl, BYTE PTR [eax+19]
  00149	84 d2		 test	 dl, dl
  0014b	74 1a		 je	 SHORT $LN77@LoadString
  0014d	8a 40 14	 mov	 al, BYTE PTR [eax+20]
  00150	80 f2 ea	 xor	 dl, -22			; ffffffeaH
  00153	88 55 f7	 mov	 BYTE PTR __k$[ebp+19], dl
  00156	84 c0		 test	 al, al
  00158	74 07		 je	 SHORT $LN76@LoadString
  0015a	34 ed		 xor	 al, -19			; ffffffedH
  0015c	88 45 f8	 mov	 BYTE PTR __k$[ebp+20], al
  0015f	eb 72		 jmp	 SHORT $LN111@LoadString
$LN76@LoadString:
  00161	c6 45 f8 ed	 mov	 BYTE PTR __k$[ebp+20], -19 ; ffffffedH
  00165	eb 6c		 jmp	 SHORT $LN111@LoadString
$LN77@LoadString:
  00167	c6 45 f7 ea	 mov	 BYTE PTR __k$[ebp+19], -22 ; ffffffeaH
  0016b	eb 66		 jmp	 SHORT $LN111@LoadString
$LN78@LoadString:
  0016d	c6 45 f6 eb	 mov	 BYTE PTR __k$[ebp+18], -21 ; ffffffebH
  00171	eb 60		 jmp	 SHORT $LN111@LoadString
$LN79@LoadString:
  00173	88 4d f5	 mov	 BYTE PTR __k$[ebp+17], cl
  00176	eb 5b		 jmp	 SHORT $LN111@LoadString
$LN81@LoadString:
  00178	c6 45 f3 ea	 mov	 BYTE PTR __k$[ebp+15], -22 ; ffffffeaH
  0017c	eb 55		 jmp	 SHORT $LN111@LoadString
$LN82@LoadString:
  0017e	c6 45 f2 eb	 mov	 BYTE PTR __k$[ebp+14], -21 ; ffffffebH
  00182	eb 4f		 jmp	 SHORT $LN111@LoadString
$LN83@LoadString:
  00184	88 4d f1	 mov	 BYTE PTR __k$[ebp+13], cl
  00187	eb 4a		 jmp	 SHORT $LN111@LoadString
$LN84@LoadString:
  00189	c6 45 f0 ed	 mov	 BYTE PTR __k$[ebp+12], -19 ; ffffffedH
  0018d	eb 44		 jmp	 SHORT $LN111@LoadString
$LN85@LoadString:
  0018f	c6 45 ef ea	 mov	 BYTE PTR __k$[ebp+11], -22 ; ffffffeaH
  00193	eb 3e		 jmp	 SHORT $LN111@LoadString
$LN86@LoadString:
  00195	c6 45 ee eb	 mov	 BYTE PTR __k$[ebp+10], -21 ; ffffffebH
  00199	eb 38		 jmp	 SHORT $LN111@LoadString
$LN87@LoadString:
  0019b	88 4d ed	 mov	 BYTE PTR __k$[ebp+9], cl
  0019e	eb 33		 jmp	 SHORT $LN111@LoadString
$LN88@LoadString:
  001a0	c6 45 ec ed	 mov	 BYTE PTR __k$[ebp+8], -19 ; ffffffedH
  001a4	eb 2d		 jmp	 SHORT $LN111@LoadString
$LN89@LoadString:
  001a6	c6 45 eb ea	 mov	 BYTE PTR __k$[ebp+7], -22 ; ffffffeaH
  001aa	eb 27		 jmp	 SHORT $LN111@LoadString
$LN90@LoadString:
  001ac	c6 45 ea eb	 mov	 BYTE PTR __k$[ebp+6], -21 ; ffffffebH
  001b0	eb 21		 jmp	 SHORT $LN111@LoadString
$LN91@LoadString:
  001b2	88 4d e9	 mov	 BYTE PTR __k$[ebp+5], cl
  001b5	eb 1c		 jmp	 SHORT $LN111@LoadString
$LN92@LoadString:
  001b7	c6 45 e8 ed	 mov	 BYTE PTR __k$[ebp+4], -19 ; ffffffedH
  001bb	eb 16		 jmp	 SHORT $LN111@LoadString
$LN93@LoadString:
  001bd	c6 45 e7 ea	 mov	 BYTE PTR __k$[ebp+3], -22 ; ffffffeaH
  001c1	eb 10		 jmp	 SHORT $LN111@LoadString
$LN94@LoadString:
  001c3	c6 45 e6 eb	 mov	 BYTE PTR __k$[ebp+2], -21 ; ffffffebH
  001c7	eb 0a		 jmp	 SHORT $LN111@LoadString
$LN95@LoadString:
  001c9	c6 45 e5 ec	 mov	 BYTE PTR __k$[ebp+1], -20 ; ffffffecH
  001cd	eb 04		 jmp	 SHORT $LN111@LoadString
$LN96@LoadString:
  001cf	c6 45 e4 ed	 mov	 BYTE PTR __k$[ebp], -19	; ffffffedH
$LN111@LoadString:
  001d3	6a 04		 push	 4
  001d5	8d 45 e4	 lea	 eax, DWORD PTR __k$[ebp]
  001d8	c6 45 f4 00	 mov	 BYTE PTR __k$[ebp+16], 0
  001dc	5a		 pop	 edx
$LL104@LoadString:
  001dd	81 30 ed ec eb
	ea		 xor	 DWORD PTR [eax], -353637139 ; eaebecedH
  001e3	83 c0 04	 add	 eax, 4
  001e6	4a		 dec	 edx
  001e7	75 f4		 jne	 SHORT $LL104@LoadString

; 163  : 		LoadString(_k, d, b, i);

  001e9	ff 75 14	 push	 DWORD PTR _i$[ebp]
  001ec	8b 4d e0	 mov	 ecx, DWORD PTR _this$GSCopy$[ebp]
  001ef	57		 push	 edi
  001f0	56		 push	 esi
  001f1	8d 45 e4	 lea	 eax, DWORD PTR __k$[ebp]
  001f4	50		 push	 eax
  001f5	ff 15 00 00 00
	00		 call	 DWORD PTR __imp_?LoadStringA@ioINILoader@@QAEXPBD0PADH@Z

; 164  : 	}

  001fb	8b 4d fc	 mov	 ecx, DWORD PTR __$ArrayPad$[ebp]
  001fe	5f		 pop	 edi
  001ff	33 cd		 xor	 ecx, ebp
  00201	5e		 pop	 esi
  00202	e8 00 00 00 00	 call	 @__security_check_cookie@4
  00207	c9		 leave
  00208	c2 10 00	 ret	 16			; 00000010H
??$LoadString_e@$0BB@@ioINILoader@@QAEXAAY0BB@$$CBDAAY00$$CBDPADH@Z ENDP ; ioINILoader::LoadString_e<17>
_TEXT	ENDS
PUBLIC	__$ArrayPad$
PUBLIC	??$LoadFloat_e@$0BG@@ioINILoader@@QAEMAAY0BG@$$CBDM@Z ; ioINILoader::LoadFloat_e<22>
EXTRN	__imp_?LoadFloat@ioINILoader@@QAEMPBDM@Z:PROC
; Function compile flags: /Ogsp
;	COMDAT ??$LoadFloat_e@$0BG@@ioINILoader@@QAEMAAY0BG@$$CBDM@Z
_TEXT	SEGMENT
__k$ = -32						; size = 22
__$ArrayPad$ = -4					; size = 4
_k$ = 8							; size = 4
_f$ = 12						; size = 4
??$LoadFloat_e@$0BG@@ioINILoader@@QAEMAAY0BG@$$CBDM@Z PROC ; ioINILoader::LoadFloat_e<22>, COMDAT
; _this$ = ecx

; 135  : 	{

  00000	55		 push	 ebp
  00001	8b ec		 mov	 ebp, esp
  00003	83 ec 20	 sub	 esp, 32			; 00000020H
  00006	a1 00 00 00 00	 mov	 eax, DWORD PTR ___security_cookie
  0000b	33 c5		 xor	 eax, ebp
  0000d	89 45 fc	 mov	 DWORD PTR __$ArrayPad$[ebp], eax
  00010	8b 45 08	 mov	 eax, DWORD PTR _k$[ebp]

; 136  : 		_ENCSTR(k, _k);

  00013	8a 10		 mov	 dl, BYTE PTR [eax]
  00015	53		 push	 ebx
  00016	56		 push	 esi
  00017	8b f1		 mov	 esi, ecx
  00019	84 d2		 test	 dl, dl
  0001b	0f 84 15 02 00
	00		 je	 $LN96@LoadFloat_
  00021	80 f2 ed	 xor	 dl, -19			; ffffffedH
  00024	88 55 e0	 mov	 BYTE PTR __k$[ebp], dl
  00027	8a 50 01	 mov	 dl, BYTE PTR [eax+1]
  0002a	84 d2		 test	 dl, dl
  0002c	0f 84 fe 01 00
	00		 je	 $LN95@LoadFloat_
  00032	80 f2 ec	 xor	 dl, -20			; ffffffecH
  00035	88 55 e1	 mov	 BYTE PTR __k$[ebp+1], dl
  00038	8a 50 02	 mov	 dl, BYTE PTR [eax+2]
  0003b	84 d2		 test	 dl, dl
  0003d	0f 84 e7 01 00
	00		 je	 $LN94@LoadFloat_
  00043	b1 eb		 mov	 cl, -21			; ffffffebH
  00045	32 d1		 xor	 dl, cl
  00047	88 55 e2	 mov	 BYTE PTR __k$[ebp+2], dl
  0004a	8a 50 03	 mov	 dl, BYTE PTR [eax+3]
  0004d	84 d2		 test	 dl, dl
  0004f	0f 84 cf 01 00
	00		 je	 $LN93@LoadFloat_
  00055	b3 ea		 mov	 bl, -22			; ffffffeaH
  00057	32 d3		 xor	 dl, bl
  00059	88 55 e3	 mov	 BYTE PTR __k$[ebp+3], dl
  0005c	8a 50 04	 mov	 dl, BYTE PTR [eax+4]
  0005f	84 d2		 test	 dl, dl
  00061	0f 84 b7 01 00
	00		 je	 $LN92@LoadFloat_
  00067	80 f2 ed	 xor	 dl, -19			; ffffffedH
  0006a	88 55 e4	 mov	 BYTE PTR __k$[ebp+4], dl
  0006d	8a 50 05	 mov	 dl, BYTE PTR [eax+5]
  00070	84 d2		 test	 dl, dl
  00072	0f 84 a0 01 00
	00		 je	 $LN91@LoadFloat_
  00078	80 f2 ec	 xor	 dl, -20			; ffffffecH
  0007b	88 55 e5	 mov	 BYTE PTR __k$[ebp+5], dl
  0007e	8a 50 06	 mov	 dl, BYTE PTR [eax+6]
  00081	84 d2		 test	 dl, dl
  00083	0f 84 8a 01 00
	00		 je	 $LN90@LoadFloat_
  00089	32 d1		 xor	 dl, cl
  0008b	88 55 e6	 mov	 BYTE PTR __k$[ebp+6], dl
  0008e	8a 50 07	 mov	 dl, BYTE PTR [eax+7]
  00091	84 d2		 test	 dl, dl
  00093	0f 84 75 01 00
	00		 je	 $LN89@LoadFloat_
  00099	32 d3		 xor	 dl, bl
  0009b	88 55 e7	 mov	 BYTE PTR __k$[ebp+7], dl
  0009e	8a 50 08	 mov	 dl, BYTE PTR [eax+8]
  000a1	84 d2		 test	 dl, dl
  000a3	0f 84 5f 01 00
	00		 je	 $LN88@LoadFloat_
  000a9	80 f2 ed	 xor	 dl, -19			; ffffffedH
  000ac	88 55 e8	 mov	 BYTE PTR __k$[ebp+8], dl
  000af	8a 50 09	 mov	 dl, BYTE PTR [eax+9]
  000b2	84 d2		 test	 dl, dl
  000b4	0f 84 48 01 00
	00		 je	 $LN87@LoadFloat_
  000ba	80 f2 ec	 xor	 dl, -20			; ffffffecH
  000bd	88 55 e9	 mov	 BYTE PTR __k$[ebp+9], dl
  000c0	8a 50 0a	 mov	 dl, BYTE PTR [eax+10]
  000c3	84 d2		 test	 dl, dl
  000c5	0f 84 32 01 00
	00		 je	 $LN86@LoadFloat_
  000cb	32 d1		 xor	 dl, cl
  000cd	88 55 ea	 mov	 BYTE PTR __k$[ebp+10], dl
  000d0	8a 50 0b	 mov	 dl, BYTE PTR [eax+11]
  000d3	84 d2		 test	 dl, dl
  000d5	0f 84 1d 01 00
	00		 je	 $LN85@LoadFloat_
  000db	32 d3		 xor	 dl, bl
  000dd	88 55 eb	 mov	 BYTE PTR __k$[ebp+11], dl
  000e0	8a 50 0c	 mov	 dl, BYTE PTR [eax+12]
  000e3	84 d2		 test	 dl, dl
  000e5	0f 84 07 01 00
	00		 je	 $LN84@LoadFloat_
  000eb	80 f2 ed	 xor	 dl, -19			; ffffffedH
  000ee	88 55 ec	 mov	 BYTE PTR __k$[ebp+12], dl
  000f1	8a 50 0d	 mov	 dl, BYTE PTR [eax+13]
  000f4	84 d2		 test	 dl, dl
  000f6	0f 84 f0 00 00
	00		 je	 $LN83@LoadFloat_
  000fc	80 f2 ec	 xor	 dl, -20			; ffffffecH
  000ff	88 55 ed	 mov	 BYTE PTR __k$[ebp+13], dl
  00102	8a 50 0e	 mov	 dl, BYTE PTR [eax+14]
  00105	84 d2		 test	 dl, dl
  00107	0f 84 da 00 00
	00		 je	 $LN82@LoadFloat_
  0010d	32 d1		 xor	 dl, cl
  0010f	88 55 ee	 mov	 BYTE PTR __k$[ebp+14], dl
  00112	8a 50 0f	 mov	 dl, BYTE PTR [eax+15]
  00115	84 d2		 test	 dl, dl
  00117	0f 84 c5 00 00
	00		 je	 $LN81@LoadFloat_
  0011d	32 d3		 xor	 dl, bl
  0011f	88 55 ef	 mov	 BYTE PTR __k$[ebp+15], dl
  00122	8a 50 10	 mov	 dl, BYTE PTR [eax+16]
  00125	84 d2		 test	 dl, dl
  00127	0f 84 af 00 00
	00		 je	 $LN80@LoadFloat_
  0012d	80 f2 ed	 xor	 dl, -19			; ffffffedH
  00130	88 55 f0	 mov	 BYTE PTR __k$[ebp+16], dl
  00133	8a 50 11	 mov	 dl, BYTE PTR [eax+17]
  00136	84 d2		 test	 dl, dl
  00138	0f 84 98 00 00
	00		 je	 $LN79@LoadFloat_
  0013e	80 f2 ec	 xor	 dl, -20			; ffffffecH
  00141	88 55 f1	 mov	 BYTE PTR __k$[ebp+17], dl
  00144	8a 50 12	 mov	 dl, BYTE PTR [eax+18]
  00147	84 d2		 test	 dl, dl
  00149	0f 84 82 00 00
	00		 je	 $LN78@LoadFloat_
  0014f	32 d1		 xor	 dl, cl
  00151	88 55 f2	 mov	 BYTE PTR __k$[ebp+18], dl
  00154	8a 50 13	 mov	 dl, BYTE PTR [eax+19]
  00157	84 d2		 test	 dl, dl
  00159	74 71		 je	 SHORT $LN77@LoadFloat_
  0015b	32 d3		 xor	 dl, bl
  0015d	88 55 f3	 mov	 BYTE PTR __k$[ebp+19], dl
  00160	8a 50 14	 mov	 dl, BYTE PTR [eax+20]
  00163	84 d2		 test	 dl, dl
  00165	74 5f		 je	 SHORT $LN76@LoadFloat_
  00167	80 f2 ed	 xor	 dl, -19			; ffffffedH
  0016a	80 78 15 00	 cmp	 BYTE PTR [eax+21], 0
  0016e	88 55 f4	 mov	 BYTE PTR __k$[ebp+20], dl
  00171	0f 84 c3 00 00
	00		 je	 $LN1@LoadFloat_
  00177	8a 50 16	 mov	 dl, BYTE PTR [eax+22]
  0017a	84 d2		 test	 dl, dl
  0017c	74 43		 je	 SHORT $LN74@LoadFloat_
  0017e	32 d1		 xor	 dl, cl
  00180	88 55 f6	 mov	 BYTE PTR __k$[ebp+22], dl
  00183	8a 50 17	 mov	 dl, BYTE PTR [eax+23]
  00186	84 d2		 test	 dl, dl
  00188	74 32		 je	 SHORT $LN73@LoadFloat_
  0018a	32 d3		 xor	 dl, bl
  0018c	88 55 f7	 mov	 BYTE PTR __k$[ebp+23], dl
  0018f	8a 50 18	 mov	 dl, BYTE PTR [eax+24]
  00192	84 d2		 test	 dl, dl
  00194	74 20		 je	 SHORT $LN72@LoadFloat_
  00196	8a 40 19	 mov	 al, BYTE PTR [eax+25]
  00199	80 f2 ed	 xor	 dl, -19			; ffffffedH
  0019c	88 55 f8	 mov	 BYTE PTR __k$[ebp+24], dl
  0019f	84 c0		 test	 al, al
  001a1	74 0a		 je	 SHORT $LN71@LoadFloat_
  001a3	34 ec		 xor	 al, -20			; ffffffecH
  001a5	88 45 f9	 mov	 BYTE PTR __k$[ebp+25], al
  001a8	e9 8d 00 00 00	 jmp	 $LN1@LoadFloat_
$LN71@LoadFloat_:
  001ad	c6 45 f9 ec	 mov	 BYTE PTR __k$[ebp+25], -20 ; ffffffecH
  001b1	e9 84 00 00 00	 jmp	 $LN1@LoadFloat_
$LN72@LoadFloat_:
  001b6	c6 45 f8 ed	 mov	 BYTE PTR __k$[ebp+24], -19 ; ffffffedH
  001ba	eb 7e		 jmp	 SHORT $LN1@LoadFloat_
$LN73@LoadFloat_:
  001bc	88 5d f7	 mov	 BYTE PTR __k$[ebp+23], bl
  001bf	eb 79		 jmp	 SHORT $LN1@LoadFloat_
$LN74@LoadFloat_:
  001c1	88 4d f6	 mov	 BYTE PTR __k$[ebp+22], cl
  001c4	eb 74		 jmp	 SHORT $LN1@LoadFloat_
$LN76@LoadFloat_:
  001c6	c6 45 f4 ed	 mov	 BYTE PTR __k$[ebp+20], -19 ; ffffffedH
  001ca	eb 6e		 jmp	 SHORT $LN1@LoadFloat_
$LN77@LoadFloat_:
  001cc	88 5d f3	 mov	 BYTE PTR __k$[ebp+19], bl
  001cf	eb 69		 jmp	 SHORT $LN1@LoadFloat_
$LN78@LoadFloat_:
  001d1	88 4d f2	 mov	 BYTE PTR __k$[ebp+18], cl
  001d4	eb 64		 jmp	 SHORT $LN1@LoadFloat_
$LN79@LoadFloat_:
  001d6	c6 45 f1 ec	 mov	 BYTE PTR __k$[ebp+17], -20 ; ffffffecH
  001da	eb 5e		 jmp	 SHORT $LN1@LoadFloat_
$LN80@LoadFloat_:
  001dc	c6 45 f0 ed	 mov	 BYTE PTR __k$[ebp+16], -19 ; ffffffedH
  001e0	eb 58		 jmp	 SHORT $LN1@LoadFloat_
$LN81@LoadFloat_:
  001e2	88 5d ef	 mov	 BYTE PTR __k$[ebp+15], bl
  001e5	eb 53		 jmp	 SHORT $LN1@LoadFloat_
$LN82@LoadFloat_:
  001e7	88 4d ee	 mov	 BYTE PTR __k$[ebp+14], cl
  001ea	eb 4e		 jmp	 SHORT $LN1@LoadFloat_
$LN83@LoadFloat_:
  001ec	c6 45 ed ec	 mov	 BYTE PTR __k$[ebp+13], -20 ; ffffffecH
  001f0	eb 48		 jmp	 SHORT $LN1@LoadFloat_
$LN84@LoadFloat_:
  001f2	c6 45 ec ed	 mov	 BYTE PTR __k$[ebp+12], -19 ; ffffffedH
  001f6	eb 42		 jmp	 SHORT $LN1@LoadFloat_
$LN85@LoadFloat_:
  001f8	88 5d eb	 mov	 BYTE PTR __k$[ebp+11], bl
  001fb	eb 3d		 jmp	 SHORT $LN1@LoadFloat_
$LN86@LoadFloat_:
  001fd	88 4d ea	 mov	 BYTE PTR __k$[ebp+10], cl
  00200	eb 38		 jmp	 SHORT $LN1@LoadFloat_
$LN87@LoadFloat_:
  00202	c6 45 e9 ec	 mov	 BYTE PTR __k$[ebp+9], -20 ; ffffffecH
  00206	eb 32		 jmp	 SHORT $LN1@LoadFloat_
$LN88@LoadFloat_:
  00208	c6 45 e8 ed	 mov	 BYTE PTR __k$[ebp+8], -19 ; ffffffedH
  0020c	eb 2c		 jmp	 SHORT $LN1@LoadFloat_
$LN89@LoadFloat_:
  0020e	88 5d e7	 mov	 BYTE PTR __k$[ebp+7], bl
  00211	eb 27		 jmp	 SHORT $LN1@LoadFloat_
$LN90@LoadFloat_:
  00213	88 4d e6	 mov	 BYTE PTR __k$[ebp+6], cl
  00216	eb 22		 jmp	 SHORT $LN1@LoadFloat_
$LN91@LoadFloat_:
  00218	c6 45 e5 ec	 mov	 BYTE PTR __k$[ebp+5], -20 ; ffffffecH
  0021c	eb 1c		 jmp	 SHORT $LN1@LoadFloat_
$LN92@LoadFloat_:
  0021e	c6 45 e4 ed	 mov	 BYTE PTR __k$[ebp+4], -19 ; ffffffedH
  00222	eb 16		 jmp	 SHORT $LN1@LoadFloat_
$LN93@LoadFloat_:
  00224	c6 45 e3 ea	 mov	 BYTE PTR __k$[ebp+3], -22 ; ffffffeaH
  00228	eb 10		 jmp	 SHORT $LN1@LoadFloat_
$LN94@LoadFloat_:
  0022a	c6 45 e2 eb	 mov	 BYTE PTR __k$[ebp+2], -21 ; ffffffebH
  0022e	eb 0a		 jmp	 SHORT $LN1@LoadFloat_
$LN95@LoadFloat_:
  00230	c6 45 e1 ec	 mov	 BYTE PTR __k$[ebp+1], -20 ; ffffffecH
  00234	eb 04		 jmp	 SHORT $LN1@LoadFloat_
$LN96@LoadFloat_:
  00236	c6 45 e0 ed	 mov	 BYTE PTR __k$[ebp], -19	; ffffffedH
$LN1@LoadFloat_:
  0023a	6a 05		 push	 5
  0023c	8d 45 e0	 lea	 eax, DWORD PTR __k$[ebp]
  0023f	c6 45 f5 00	 mov	 BYTE PTR __k$[ebp+21], 0
  00243	5a		 pop	 edx
$LL104@LoadFloat_:
  00244	81 30 ed ec eb
	ea		 xor	 DWORD PTR [eax], -353637139 ; eaebecedH
  0024a	83 c0 04	 add	 eax, 4
  0024d	4a		 dec	 edx
  0024e	75 f4		 jne	 SHORT $LL104@LoadFloat_

; 137  : 		return LoadFloat(_k, f);

  00250	f3 0f 10 45 0c	 movss	 xmm0, DWORD PTR _f$[ebp]
  00255	80 75 f4 ed	 xor	 BYTE PTR __k$[ebp+20], -19 ; ffffffedH
  00259	51		 push	 ecx
  0025a	8d 45 e0	 lea	 eax, DWORD PTR __k$[ebp]
  0025d	f3 0f 11 04 24	 movss	 DWORD PTR [esp], xmm0
  00262	50		 push	 eax
  00263	8b ce		 mov	 ecx, esi
  00265	ff 15 00 00 00
	00		 call	 DWORD PTR __imp_?LoadFloat@ioINILoader@@QAEMPBDM@Z

; 138  : 	}

  0026b	8b 4d fc	 mov	 ecx, DWORD PTR __$ArrayPad$[ebp]
  0026e	5e		 pop	 esi
  0026f	33 cd		 xor	 ecx, ebp
  00271	5b		 pop	 ebx
  00272	e8 00 00 00 00	 call	 @__security_check_cookie@4
  00277	c9		 leave
  00278	c2 08 00	 ret	 8
??$LoadFloat_e@$0BG@@ioINILoader@@QAEMAAY0BG@$$CBDM@Z ENDP ; ioINILoader::LoadFloat_e<22>
_TEXT	ENDS
PUBLIC	?StringCbPrintfA@@YAJPADIPBDZZ			; StringCbPrintfA
; Function compile flags: /Ogsp
; File c:\program files (x86)\microsoft sdks\windows\v7.0a\include\strsafe.h
;	COMDAT ?StringCbPrintfA@@YAJPADIPBDZZ
_TEXT	SEGMENT
_pszDest$ = 8						; size = 4
_cbDest$ = 12						; size = 4
_pszFormat$ = 16					; size = 4
?StringCbPrintfA@@YAJPADIPBDZZ PROC			; StringCbPrintfA, COMDAT

; 4767 : {

  00000	55		 push	 ebp
  00001	8b ec		 mov	 ebp, esp

; 4768 :     HRESULT hr;
; 4769 :     size_t cchDest = cbDest / sizeof(char);
; 4770 : 
; 4771 :     hr = StringValidateDestA(pszDest, cchDest, STRSAFE_MAX_CCH);

  00003	8b 4d 0c	 mov	 ecx, DWORD PTR _cbDest$[ebp]
  00006	33 c0		 xor	 eax, eax
  00008	85 c9		 test	 ecx, ecx
  0000a	74 08		 je	 SHORT $LN4@StringCbPr
  0000c	81 f9 ff ff ff
	7f		 cmp	 ecx, 2147483647		; 7fffffffH
  00012	76 05		 jbe	 SHORT $LN5@StringCbPr
$LN4@StringCbPr:
  00014	b8 57 00 07 80	 mov	 eax, -2147024809	; 80070057H
$LN5@StringCbPr:

; 4772 :     
; 4773 :     if (SUCCEEDED(hr))

  00019	85 c0		 test	 eax, eax
  0001b	78 39		 js	 SHORT $LN1@StringCbPr

; 4774 :     {
; 4775 :         va_list argList;
; 4776 : 
; 4777 :         va_start(argList, pszFormat);
; 4778 : 
; 4779 :         hr = StringVPrintfWorkerA(pszDest,
; 4780 :                                   cchDest,
; 4781 :                                   NULL,
; 4782 :                                   pszFormat,
; 4783 :                                   argList);

  0001d	53		 push	 ebx
  0001e	56		 push	 esi
  0001f	57		 push	 edi
  00020	8b 7d 08	 mov	 edi, DWORD PTR _pszDest$[ebp]
  00023	8d 45 14	 lea	 eax, DWORD PTR _pszFormat$[ebp+4]
  00026	50		 push	 eax
  00027	ff 75 10	 push	 DWORD PTR _pszFormat$[ebp]
  0002a	8d 71 ff	 lea	 esi, DWORD PTR [ecx-1]
  0002d	56		 push	 esi
  0002e	57		 push	 edi
  0002f	33 db		 xor	 ebx, ebx
  00031	ff 15 00 00 00
	00		 call	 DWORD PTR __imp___vsnprintf
  00037	83 c4 10	 add	 esp, 16			; 00000010H
  0003a	85 c0		 test	 eax, eax
  0003c	78 0b		 js	 SHORT $LN12@StringCbPr
  0003e	3b c6		 cmp	 eax, esi
  00040	77 07		 ja	 SHORT $LN12@StringCbPr
  00042	75 0d		 jne	 SHORT $LN9@StringCbPr
  00044	88 1c 3e	 mov	 BYTE PTR [esi+edi], bl
  00047	eb 08		 jmp	 SHORT $LN9@StringCbPr
$LN12@StringCbPr:
  00049	88 1c 3e	 mov	 BYTE PTR [esi+edi], bl
  0004c	bb 7a 00 07 80	 mov	 ebx, -2147024774	; 8007007aH
$LN9@StringCbPr:
  00051	5f		 pop	 edi
  00052	5e		 pop	 esi
  00053	8b c3		 mov	 eax, ebx
  00055	5b		 pop	 ebx
$LN1@StringCbPr:

; 4784 : 
; 4785 :         va_end(argList);
; 4786 :     }
; 4787 : 
; 4788 :     return hr;
; 4789 : }

  00056	5d		 pop	 ebp
  00057	c3		 ret	 0
?StringCbPrintfA@@YAJPADIPBDZZ ENDP			; StringCbPrintfA
_TEXT	ENDS
PUBLIC	??B?$CEncrypt@M@@QAEMXZ				; CEncrypt<float>::operator float
; Function compile flags: /Ogsp
; File d:\lost saga for developer\youtube\tutorial\source\src\lsclient\encryptvalue.h
;	COMDAT ??B?$CEncrypt@M@@QAEMXZ
_TEXT	SEGMENT
_value$ = -4						; size = 4
??B?$CEncrypt@M@@QAEMXZ PROC				; CEncrypt<float>::operator float, COMDAT
; _this$ = ecx

; 134  : 	{

  00000	55		 push	 ebp
  00001	8b ec		 mov	 ebp, esp
  00003	51		 push	 ecx

; 135  : 		type value;
; 136  : 		DecryptValueToPool(&value);

  00004	8d 45 fc	 lea	 eax, DWORD PTR _value$[ebp]
  00007	50		 push	 eax
  00008	e8 00 00 00 00	 call	 ?DecryptValueToPool@?$CEncrypt@M@@QAEXPAM@Z ; CEncrypt<float>::DecryptValueToPool

; 137  : 
; 138  : #ifdef _NOTUSE
; 139  : 		Debug();
; 140  : #endif
; 141  : 		return value;

  0000d	d9 45 fc	 fld	 DWORD PTR _value$[ebp]

; 142  : 	}

  00010	c9		 leave
  00011	c3		 ret	 0
??B?$CEncrypt@M@@QAEMXZ ENDP				; CEncrypt<float>::operator float
_TEXT	ENDS
PUBLIC	??4?$CEncrypt@M@@QAEMM@Z			; CEncrypt<float>::operator=
; Function compile flags: /Ogsp
;	COMDAT ??4?$CEncrypt@M@@QAEMM@Z
_TEXT	SEGMENT
_value$ = 8						; size = 4
_inValue$ = 8						; size = 4
??4?$CEncrypt@M@@QAEMM@Z PROC				; CEncrypt<float>::operator=, COMDAT
; _this$ = ecx

; 1654 : 	{	

  00000	55		 push	 ebp
  00001	8b ec		 mov	 ebp, esp

; 1655 : 		type value = inValue;

  00003	d9 45 08	 fld	 DWORD PTR _inValue$[ebp]

; 1656 : 		EncryptValueToPool((char*)&value);

  00006	8d 45 08	 lea	 eax, DWORD PTR _value$[ebp]
  00009	50		 push	 eax
  0000a	d9 5d 08	 fstp	 DWORD PTR _value$[ebp]
  0000d	e8 00 00 00 00	 call	 ?EncryptValueToPool@?$CEncrypt@M@@AAEXPBD@Z ; CEncrypt<float>::EncryptValueToPool

; 1657 : #ifdef _NOTUSE
; 1658 : 		m_value = inValue;
; 1659 : 		Debug();
; 1660 : #endif
; 1661 : 		return value;

  00012	d9 45 08	 fld	 DWORD PTR _value$[ebp]

; 1662 : 	}

  00015	5d		 pop	 ebp
  00016	c2 04 00	 ret	 4
??4?$CEncrypt@M@@QAEMM@Z ENDP				; CEncrypt<float>::operator=
_TEXT	ENDS
PUBLIC	??Y?$CEncrypt@M@@QAEAAMABM@Z			; CEncrypt<float>::operator+=
; Function compile flags: /Ogsp
;	COMDAT ??Y?$CEncrypt@M@@QAEAAMABM@Z
_TEXT	SEGMENT
_value$ = -4						; size = 4
_inValue$ = 8						; size = 4
??Y?$CEncrypt@M@@QAEAAMABM@Z PROC			; CEncrypt<float>::operator+=, COMDAT
; _this$ = ecx

; 1715 : 	{

  00000	55		 push	 ebp
  00001	8b ec		 mov	 ebp, esp
  00003	51		 push	 ecx
  00004	56		 push	 esi

; 1716 : 		type value;
; 1717 : 		DecryptValueToPool(&value);

  00005	8d 45 fc	 lea	 eax, DWORD PTR _value$[ebp]
  00008	50		 push	 eax
  00009	8b f1		 mov	 esi, ecx
  0000b	e8 00 00 00 00	 call	 ?DecryptValueToPool@?$CEncrypt@M@@QAEXPAM@Z ; CEncrypt<float>::DecryptValueToPool

; 1718 : 		value += inValue;

  00010	8b 45 08	 mov	 eax, DWORD PTR _inValue$[ebp]
  00013	f3 0f 10 00	 movss	 xmm0, DWORD PTR [eax]
  00017	f3 0f 10 4d fc	 movss	 xmm1, DWORD PTR _value$[ebp]
  0001c	0f 5a c0	 cvtps2pd xmm0, xmm0
  0001f	0f 5a c9	 cvtps2pd xmm1, xmm1

; 1719 : 		EncryptValueToPool((char*)&value);

  00022	8d 45 fc	 lea	 eax, DWORD PTR _value$[ebp]
  00025	f2 0f 58 c1	 addsd	 xmm0, xmm1
  00029	66 0f 5a c0	 cvtpd2ps xmm0, xmm0
  0002d	50		 push	 eax
  0002e	8b ce		 mov	 ecx, esi
  00030	f3 0f 11 45 fc	 movss	 DWORD PTR _value$[ebp], xmm0
  00035	e8 00 00 00 00	 call	 ?EncryptValueToPool@?$CEncrypt@M@@AAEXPBD@Z ; CEncrypt<float>::EncryptValueToPool

; 1720 : #ifdef _NOTUSE
; 1721 : 		m_value += inValue;
; 1722 : 		Debug();
; 1723 : #endif
; 1724 : 		return value;

  0003a	8d 45 fc	 lea	 eax, DWORD PTR _value$[ebp]
  0003d	5e		 pop	 esi

; 1725 : 	} 

  0003e	c9		 leave
  0003f	c2 04 00	 ret	 4
??Y?$CEncrypt@M@@QAEAAMABM@Z ENDP			; CEncrypt<float>::operator+=
_TEXT	ENDS
PUBLIC	??O?$CEncrypt@M@@QAE_NABM@Z			; CEncrypt<float>::operator>
; Function compile flags: /Ogsp
;	COMDAT ??O?$CEncrypt@M@@QAE_NABM@Z
_TEXT	SEGMENT
_value$ = -4						; size = 4
_inValue$ = 8						; size = 4
??O?$CEncrypt@M@@QAE_NABM@Z PROC			; CEncrypt<float>::operator>, COMDAT
; _this$ = ecx

; 1811 : 	{

  00000	55		 push	 ebp
  00001	8b ec		 mov	 ebp, esp
  00003	51		 push	 ecx

; 1812 : 		type value;
; 1813 : 		DecryptValueToPool(&value);

  00004	8d 45 fc	 lea	 eax, DWORD PTR _value$[ebp]
  00007	50		 push	 eax
  00008	e8 00 00 00 00	 call	 ?DecryptValueToPool@?$CEncrypt@M@@QAEXPAM@Z ; CEncrypt<float>::DecryptValueToPool

; 1814 : #ifdef _NOTUSE
; 1815 : 		Debug();
; 1816 : #endif
; 1817 : 		return (value > inValue);

  0000d	8b 45 08	 mov	 eax, DWORD PTR _inValue$[ebp]
  00010	f3 0f 10 08	 movss	 xmm1, DWORD PTR [eax]
  00014	f3 0f 10 45 fc	 movss	 xmm0, DWORD PTR _value$[ebp]
  00019	0f 5a c0	 cvtps2pd xmm0, xmm0
  0001c	0f 5a c9	 cvtps2pd xmm1, xmm1
  0001f	33 c0		 xor	 eax, eax
  00021	66 0f 2f c1	 comisd	 xmm0, xmm1
  00025	76 01		 jbe	 SHORT $LN4@operator
  00027	40		 inc	 eax
$LN4@operator:

; 1818 : 	}		

  00028	c9		 leave
  00029	c2 04 00	 ret	 4
??O?$CEncrypt@M@@QAE_NABM@Z ENDP			; CEncrypt<float>::operator>
_TEXT	ENDS
PUBLIC	??B?$CEncrypt@_N@@QAE_NXZ			; CEncrypt<bool>::operator bool
; Function compile flags: /Ogsp
;	COMDAT ??B?$CEncrypt@_N@@QAE_NXZ
_TEXT	SEGMENT
_value$ = -1						; size = 1
??B?$CEncrypt@_N@@QAE_NXZ PROC				; CEncrypt<bool>::operator bool, COMDAT
; _this$ = ecx

; 134  : 	{

  00000	55		 push	 ebp
  00001	8b ec		 mov	 ebp, esp
  00003	51		 push	 ecx

; 135  : 		type value;
; 136  : 		DecryptValueToPool(&value);

  00004	8d 45 ff	 lea	 eax, DWORD PTR _value$[ebp]
  00007	50		 push	 eax
  00008	e8 00 00 00 00	 call	 ?DecryptValueToPool@?$CEncrypt@_N@@QAEXPA_N@Z ; CEncrypt<bool>::DecryptValueToPool

; 137  : 
; 138  : #ifdef _NOTUSE
; 139  : 		Debug();
; 140  : #endif
; 141  : 		return value;

  0000d	8a 45 ff	 mov	 al, BYTE PTR _value$[ebp]

; 142  : 	}

  00010	c9		 leave
  00011	c3		 ret	 0
??B?$CEncrypt@_N@@QAE_NXZ ENDP				; CEncrypt<bool>::operator bool
_TEXT	ENDS
PUBLIC	??B?$CEncrypt@W4TeamType@@@@QBE?AW4TeamType@@XZ	; CEncrypt<enum TeamType>::operator enum TeamType
; Function compile flags: /Ogsp
;	COMDAT ??B?$CEncrypt@W4TeamType@@@@QBE?AW4TeamType@@XZ
_TEXT	SEGMENT
_value$ = -4						; size = 4
??B?$CEncrypt@W4TeamType@@@@QBE?AW4TeamType@@XZ PROC	; CEncrypt<enum TeamType>::operator enum TeamType, COMDAT
; _this$ = ecx

; 145  : 	{

  00000	55		 push	 ebp
  00001	8b ec		 mov	 ebp, esp
  00003	51		 push	 ecx

; 146  : 		//UJ 130829, const    --start
; 147  : 		type value;
; 148  : 		CEncrypt<type>* pThis = const_cast<CEncrypt<type>*>(this);
; 149  : 		pThis->DecryptValueToPool(&value);

  00004	8d 45 fc	 lea	 eax, DWORD PTR _value$[ebp]
  00007	50		 push	 eax
  00008	e8 00 00 00 00	 call	 ?DecryptValueToPool@?$CEncrypt@W4TeamType@@@@QAEXPAW4TeamType@@@Z ; CEncrypt<enum TeamType>::DecryptValueToPool

; 150  : 		//// const DecryptValueToPool     .
; 151  :  		//type value;
; 152  : 		//char szTempMem[MAX_ENCRYPT];
; 153  : 		//m_RC5.DecryptByte( m_MemPool, szTempMem, max(m_ValueSize, DEFAULT_ENCRYPT) );
; 154  : 		//memcpy( &value, szTempMem, m_ValueSize );
; 155  : 		//UJ --end
; 156  : 
; 157  : #ifdef _NOTUSE
; 158  : 		Debug();
; 159  : #endif
; 160  : 		return value;

  0000d	8b 45 fc	 mov	 eax, DWORD PTR _value$[ebp]

; 161  : 	}

  00010	c9		 leave
  00011	c3		 ret	 0
??B?$CEncrypt@W4TeamType@@@@QBE?AW4TeamType@@XZ ENDP	; CEncrypt<enum TeamType>::operator enum TeamType
_TEXT	ENDS
PUBLIC	??4?$CEncrypt@W4TeamType@@@@QAE?AW4TeamType@@W41@@Z ; CEncrypt<enum TeamType>::operator=
; Function compile flags: /Ogsp
;	COMDAT ??4?$CEncrypt@W4TeamType@@@@QAE?AW4TeamType@@W41@@Z
_TEXT	SEGMENT
_value$ = 8						; size = 4
_inValue$ = 8						; size = 4
??4?$CEncrypt@W4TeamType@@@@QAE?AW4TeamType@@W41@@Z PROC ; CEncrypt<enum TeamType>::operator=, COMDAT
; _this$ = ecx

; 2965 : 	{

  00000	55		 push	 ebp
  00001	8b ec		 mov	 ebp, esp

; 2966 : 		type value = inValue;

  00003	8b 45 08	 mov	 eax, DWORD PTR _inValue$[ebp]
  00006	89 45 08	 mov	 DWORD PTR _value$[ebp], eax

; 2967 : 		EncryptValueToPool((char*)&value);

  00009	8d 45 08	 lea	 eax, DWORD PTR _value$[ebp]
  0000c	50		 push	 eax
  0000d	e8 00 00 00 00	 call	 ?EncryptValueToPool@?$CEncrypt@W4TeamType@@@@AAEXPBD@Z ; CEncrypt<enum TeamType>::EncryptValueToPool

; 2968 : #ifdef _NOTUSE
; 2969 : 		m_value = inValue;
; 2970 : 		Debug();
; 2971 : #endif
; 2972 : 		return value;

  00012	8b 45 08	 mov	 eax, DWORD PTR _value$[ebp]

; 2973 : 	}

  00015	5d		 pop	 ebp
  00016	c2 04 00	 ret	 4
??4?$CEncrypt@W4TeamType@@@@QAE?AW4TeamType@@W41@@Z ENDP ; CEncrypt<enum TeamType>::operator=
_TEXT	ENDS
PUBLIC	__real@3f800000
PUBLIC	??_C@_00CNPNBAHC@?$AA@				; `string'
PUBLIC	__$ArrayPad$
EXTRN	__imp_??4ioHashString@@QAEAAV0@PBD@Z:PROC
EXTRN	?LoadProperty@ioDummyChar@@UAEXAAVioINILoader@@@Z:PROC ; ioDummyChar::LoadProperty
EXTRN	_memset:PROC
;	COMDAT __real@3f800000
; File d:\lost saga for developer\youtube\tutorial\source\src\lsclient\stringprotect.h
CONST	SEGMENT
__real@3f800000 DD 03f800000r			; 1
CONST	ENDS
;	COMDAT ??_C@_00CNPNBAHC@?$AA@
CONST	SEGMENT
??_C@_00CNPNBAHC@?$AA@ DB 00H				; `string'
; Function compile flags: /Ogsp
; File d:\lost saga for developer\youtube\tutorial\source\src\lsclient\iocopyownerdummychar5.cpp
CONST	ENDS
;	COMDAT ?LoadProperty@ioCopyOwnerDummyChar5@@UAEXAAVioINILoader@@@Z
_TEXT	SEGMENT
_szBuf$ = -296						; size = 260
__k$559127 = -36					; size = 22
__k$558866 = -36					; size = 25
__k$558991 = -28					; size = 17
__$ArrayPad$ = -4					; size = 4
_rkLoader$ = 8						; size = 4
?LoadProperty@ioCopyOwnerDummyChar5@@UAEXAAVioINILoader@@@Z PROC ; ioCopyOwnerDummyChar5::LoadProperty, COMDAT
; _this$ = ecx

; 31   : {

  00000	55		 push	 ebp
  00001	8b ec		 mov	 ebp, esp
  00003	81 ec 28 01 00
	00		 sub	 esp, 296		; 00000128H
  00009	a1 00 00 00 00	 mov	 eax, DWORD PTR ___security_cookie
  0000e	33 c5		 xor	 eax, ebp
  00010	89 45 fc	 mov	 DWORD PTR __$ArrayPad$[ebp], eax
  00013	53		 push	 ebx
  00014	56		 push	 esi
  00015	57		 push	 edi
  00016	8b 7d 08	 mov	 edi, DWORD PTR _rkLoader$[ebp]

; 32   : 	ioDummyChar::LoadProperty( rkLoader );

  00019	57		 push	 edi
  0001a	8b f1		 mov	 esi, ecx
  0001c	e8 00 00 00 00	 call	 ?LoadProperty@ioDummyChar@@UAEXAAVioINILoader@@@Z ; ioDummyChar::LoadProperty

; 33   : 
; 34   : 	char szBuf[MAX_PATH] = "";

  00021	33 db		 xor	 ebx, ebx
  00023	68 03 01 00 00	 push	 259			; 00000103H
  00028	8d 85 d9 fe ff
	ff		 lea	 eax, DWORD PTR _szBuf$[ebp+1]
  0002e	53		 push	 ebx
  0002f	50		 push	 eax
  00030	88 9d d8 fe ff
	ff		 mov	 BYTE PTR _szBuf$[ebp], bl
  00036	e8 00 00 00 00	 call	 _memset
  0003b	83 c4 0c	 add	 esp, 12			; 0000000cH

; 35   : 	char szKey[MAX_PATH] = "";
; 36   : 
; 37   : 	m_bDisableWeaponCollision = rkLoader.LoadBool_e( "disable_weapon_collision", false );

  0003e	6a 06		 push	 6
  00040	c7 45 dc 89 85
	98 8b		 mov	 DWORD PTR __k$558866[ebp], -1952938615 ; 8b988589H
  00047	c7 45 e0 8f 80
	8e b5		 mov	 DWORD PTR __k$558866[ebp+4], -1248952177 ; b58e808fH
  0004e	c7 45 e4 9a 89
	8a 9a		 mov	 DWORD PTR __k$558866[ebp+8], -1702196838 ; 9a8a899aH
  00055	c7 45 e8 82 82
	b4 89		 mov	 DWORD PTR __k$558866[ebp+12], -1984658814 ; 89b48282H
  0005c	c7 45 ec 82 80
	87 83		 mov	 DWORD PTR __k$558866[ebp+16], -2088271742 ; 83878082H
  00063	c7 45 f0 9e 85
	84 84		 mov	 DWORD PTR __k$558866[ebp+20], -2071689826 ; 8484859eH
  0006a	8d 45 dc	 lea	 eax, DWORD PTR __k$558866[ebp]
  0006d	88 5d f4	 mov	 BYTE PTR __k$558866[ebp+24], bl
  00070	59		 pop	 ecx
$LL106@LoadProper:
  00071	81 30 ed ec eb
	ea		 xor	 DWORD PTR [eax], -353637139 ; eaebecedH
  00077	83 c0 04	 add	 eax, 4
  0007a	49		 dec	 ecx
  0007b	75 f4		 jne	 SHORT $LL106@LoadProper
  0007d	53		 push	 ebx
  0007e	8d 45 dc	 lea	 eax, DWORD PTR __k$558866[ebp]
  00081	50		 push	 eax
  00082	8b cf		 mov	 ecx, edi
  00084	ff 15 00 00 00
	00		 call	 DWORD PTR __imp_?LoadBool@ioINILoader@@QAE_NPBD_N@Z
  0008a	6a 04		 push	 4
  0008c	88 86 80 14 00
	00		 mov	 BYTE PTR [esi+5248], al

; 38   : 
; 39   : 	rkLoader.LoadString_e( "defult_delay_ani", "", szBuf, MAX_PATH );

  00092	c7 45 e4 89 89
	8d 9f		 mov	 DWORD PTR __k$558991[ebp], -1618114167 ; 9f8d8989H
  00099	c7 45 e8 81 98
	b4 8e		 mov	 DWORD PTR __k$558991[ebp+4], -1900767103 ; 8eb49881H
  000a0	c7 45 ec 88 80
	8a 93		 mov	 DWORD PTR __k$558991[ebp+8], -1819639672 ; 938a8088H
  000a7	c7 45 f0 b2 8d
	85 83		 mov	 DWORD PTR __k$558991[ebp+12], -2088399438 ; 83858db2H
  000ae	8d 45 e4	 lea	 eax, DWORD PTR __k$558991[ebp]
  000b1	88 5d f4	 mov	 BYTE PTR __k$558991[ebp+16], bl
  000b4	59		 pop	 ecx
$LL212@LoadProper:
  000b5	81 30 ed ec eb
	ea		 xor	 DWORD PTR [eax], -353637139 ; eaebecedH
  000bb	83 c0 04	 add	 eax, 4
  000be	49		 dec	 ecx
  000bf	75 f4		 jne	 SHORT $LL212@LoadProper
  000c1	68 04 01 00 00	 push	 260			; 00000104H
  000c6	8d 85 d8 fe ff
	ff		 lea	 eax, DWORD PTR _szBuf$[ebp]
  000cc	50		 push	 eax
  000cd	68 00 00 00 00	 push	 OFFSET ??_C@_00CNPNBAHC@?$AA@
  000d2	8d 45 e4	 lea	 eax, DWORD PTR __k$558991[ebp]
  000d5	50		 push	 eax
  000d6	8b cf		 mov	 ecx, edi
  000d8	ff 15 00 00 00
	00		 call	 DWORD PTR __imp_?LoadStringA@ioINILoader@@QAEXPBD0PADH@Z

; 40   : 	m_szDefaultDelayMotion = szBuf;

  000de	8d 85 d8 fe ff
	ff		 lea	 eax, DWORD PTR _szBuf$[ebp]
  000e4	50		 push	 eax
  000e5	8d 8e 84 14 00
	00		 lea	 ecx, DWORD PTR [esi+5252]
  000eb	ff 15 00 00 00
	00		 call	 DWORD PTR __imp_??4ioHashString@@QAEAAV0@PBD@Z
  000f1	6a 05		 push	 5

; 41   : 	m_fDefaultDelayMotionRate = rkLoader.LoadFloat_e( "defult_delay_ani_rate", 1.0f );

  000f3	c7 45 dc 89 89
	8d 9f		 mov	 DWORD PTR __k$559127[ebp], -1618114167 ; 9f8d8989H
  000fa	c7 45 e0 81 98
	b4 8e		 mov	 DWORD PTR __k$559127[ebp+4], -1900767103 ; 8eb49881H
  00101	c7 45 e4 88 80
	8a 93		 mov	 DWORD PTR __k$559127[ebp+8], -1819639672 ; 938a8088H
  00108	c7 45 e8 b2 8d
	85 83		 mov	 DWORD PTR __k$559127[ebp+12], -2088399438 ; 83858db2H
  0010f	c7 45 ec b2 9e
	8a 9e		 mov	 DWORD PTR __k$559127[ebp+16], -1635082574 ; 9e8a9eb2H
  00116	8d 45 dc	 lea	 eax, DWORD PTR __k$559127[ebp]
  00119	66 c7 45 f0 88
	00		 mov	 WORD PTR __k$559127[ebp+20], 136 ; 00000088H
  0011f	59		 pop	 ecx
$LL318@LoadProper:
  00120	81 30 ed ec eb
	ea		 xor	 DWORD PTR [eax], -353637139 ; eaebecedH
  00126	83 c0 04	 add	 eax, 4
  00129	49		 dec	 ecx
  0012a	75 f4		 jne	 SHORT $LL318@LoadProper
  0012c	f3 0f 10 05 00
	00 00 00	 movss	 xmm0, DWORD PTR __real@3f800000
  00134	80 75 f0 ed	 xor	 BYTE PTR __k$559127[ebp+20], -19 ; ffffffedH
  00138	51		 push	 ecx
  00139	8d 45 dc	 lea	 eax, DWORD PTR __k$559127[ebp]
  0013c	f3 0f 11 04 24	 movss	 DWORD PTR [esp], xmm0
  00141	50		 push	 eax
  00142	8b cf		 mov	 ecx, edi
  00144	ff 15 00 00 00
	00		 call	 DWORD PTR __imp_?LoadFloat@ioINILoader@@QAEMPBDM@Z
  0014a	d9 9e 94 14 00
	00		 fstp	 DWORD PTR [esi+5268]

; 42   : }

  00150	8b 4d fc	 mov	 ecx, DWORD PTR __$ArrayPad$[ebp]
  00153	5f		 pop	 edi
  00154	5e		 pop	 esi
  00155	33 cd		 xor	 ecx, ebp
  00157	5b		 pop	 ebx
  00158	e8 00 00 00 00	 call	 @__security_check_cookie@4
  0015d	c9		 leave
  0015e	c2 04 00	 ret	 4
?LoadProperty@ioCopyOwnerDummyChar5@@UAEXAAVioINILoader@@@Z ENDP ; ioCopyOwnerDummyChar5::LoadProperty
_TEXT	ENDS
PUBLIC	__real@00000000
PUBLIC	__real@408f400000000000
PUBLIC	__real@4f800000
PUBLIC	__$ArrayPad$
EXTRN	?GetRoomGravity@ioPlayStage@@QAEMXZ:PROC	; ioPlayStage::GetRoomGravity
EXTRN	?GetBottomHeight@ioGameEntity@@QBEMXZ:PROC	; ioGameEntity::GetBottomHeight
EXTRN	?GetOwner@ioDummyChar@@QBEPAVioBaseChar@@XZ:PROC ; ioDummyChar::GetOwner
EXTRN	?ProcessForceMove@ioDummyChar@@IAEXM@Z:PROC	; ioDummyChar::ProcessForceMove
EXTRN	__imp_?GetLoopSec@ioFrameTimer@@QBEKXZ:PROC
EXTRN	__imp_?GetSingleton@ioFrameTimer@@SAAAV1@XZ:PROC
;	COMDAT __real@00000000
; File d:\lost saga for developer\youtube\tutorial\source\src\lsclient\encryptvalue.h
CONST	SEGMENT
__real@00000000 DD 000000000r			; 0
CONST	ENDS
;	COMDAT __real@408f400000000000
CONST	SEGMENT
__real@408f400000000000 DQ 0408f400000000000r	; 1000
CONST	ENDS
;	COMDAT __real@4f800000
CONST	SEGMENT
__real@4f800000 DD 04f800000r			; 4.29497e+009
; Function compile flags: /Ogsp
; File d:\lost saga for developer\youtube\tutorial\source\src\lsclient\iocopyownerdummychar5.cpp
CONST	ENDS
;	COMDAT ?ProcessPos@ioCopyOwnerDummyChar5@@UAEXM@Z
_TEXT	SEGMENT
_value$559264 = -64					; size = 4
_value$559285 = -60					; size = 4
_value$559276 = -56					; size = 4
_value$559290 = -52					; size = 4
_value$559267 = -48					; size = 4
_dwCurTime$ = -44					; size = 4
tv436 = -40						; size = 4
$T559249 = -40						; size = 4
_value$559281 = -36					; size = 4
_fNewTimePerSec$557046 = -32				; size = 4
_fMapHeight$ = -28					; size = 4
_value$559302 = -24					; size = 4
_value$559298 = -24					; size = 4
_value$559294 = -24					; size = 4
_value$559253 = -17					; size = 1
_vCurPos$ = -16						; size = 12
__$ArrayPad$ = -4					; size = 4
_fTimePerSec$ = 8					; size = 4
?ProcessPos@ioCopyOwnerDummyChar5@@UAEXM@Z PROC		; ioCopyOwnerDummyChar5::ProcessPos, COMDAT
; _this$ = ecx

; 160  : {

  00000	55		 push	 ebp
  00001	8b ec		 mov	 ebp, esp
  00003	83 ec 40	 sub	 esp, 64			; 00000040H
  00006	a1 00 00 00 00	 mov	 eax, DWORD PTR ___security_cookie
  0000b	33 c5		 xor	 eax, ebp
  0000d	89 45 fc	 mov	 DWORD PTR __$ArrayPad$[ebp], eax
  00010	53		 push	 ebx
  00011	8b d9		 mov	 ebx, ecx

; 161  : 	DWORD dwCurTime = FRAMEGETTIME();

  00013	ff 15 00 00 00
	00		 call	 DWORD PTR __imp_?GetSingleton@ioFrameTimer@@SAAAV1@XZ
  00019	8b c8		 mov	 ecx, eax
  0001b	ff 15 00 00 00
	00		 call	 DWORD PTR __imp_?GetLoopSec@ioFrameTimer@@QBEKXZ

; 162  : 
; 163  : 	if( m_State == DCS_START )

  00021	83 bb 30 02 00
	00 01		 cmp	 DWORD PTR [ebx+560], 1
  00028	89 45 d4	 mov	 DWORD PTR _dwCurTime$[ebp], eax

; 164  : 	{
; 165  : 		m_dwProcessTime = dwCurTime;
; 166  : 		return;

  0002b	0f 84 37 02 00
	00		 je	 $LN48@ProcessPos

; 167  : 	}
; 168  : 
; 169  : 	ProcessForceMove( fTimePerSec );

  00031	f3 0f 10 45 08	 movss	 xmm0, DWORD PTR _fTimePerSec$[ebp]
  00036	51		 push	 ecx
  00037	8b cb		 mov	 ecx, ebx
  00039	f3 0f 11 04 24	 movss	 DWORD PTR [esp], xmm0
  0003e	e8 00 00 00 00	 call	 ?ProcessForceMove@ioDummyChar@@IAEXM@Z ; ioDummyChar::ProcessForceMove

; 170  : 
; 171  : 	if( m_bOwnerRotate )

  00043	8d 45 ef	 lea	 eax, DWORD PTR _value$559253[ebp]
  00046	50		 push	 eax
  00047	8d 8b 10 04 00
	00		 lea	 ecx, DWORD PTR [ebx+1040]
  0004d	e8 00 00 00 00	 call	 ?DecryptValueToPool@?$CEncrypt@_N@@QAEXPA_N@Z ; CEncrypt<bool>::DecryptValueToPool
  00052	80 7d ef 00	 cmp	 BYTE PTR _value$559253[ebp], 0
  00056	74 18		 je	 SHORT $LN10@ProcessPos

; 172  : 	{
; 173  : 		ioBaseChar *pOwner = GetOwner();

  00058	8b cb		 mov	 ecx, ebx
  0005a	e8 00 00 00 00	 call	 ?GetOwner@ioDummyChar@@QBEPAVioBaseChar@@XZ ; ioDummyChar::GetOwner

; 174  : 		if(	pOwner )

  0005f	85 c0		 test	 eax, eax
  00061	74 0d		 je	 SHORT $LN10@ProcessPos

; 175  : 		{
; 176  : 			SetWorldOrientation( pOwner->GetTargetRot() );

  00063	8b 13		 mov	 edx, DWORD PTR [ebx]
  00065	05 a4 06 00 00	 add	 eax, 1700		; 000006a4H
  0006a	50		 push	 eax
  0006b	8b cb		 mov	 ecx, ebx
  0006d	ff 52 48	 call	 DWORD PTR [edx+72]
$LN10@ProcessPos:

; 177  : 		}
; 178  : 	}
; 179  : 
; 180  : 	//   .
; 181  : 
; 182  : 	D3DXVECTOR3 vPrePos = GetWorldPosition();

  00070	8b 03		 mov	 eax, DWORD PTR [ebx]
  00072	56		 push	 esi
  00073	57		 push	 edi
  00074	8b cb		 mov	 ecx, ebx
  00076	ff 50 70	 call	 DWORD PTR [eax+112]

; 183  : 	D3DXVECTOR3 vCurPos = vPrePos;

  00079	8b f0		 mov	 esi, eax
  0007b	8d 7d f0	 lea	 edi, DWORD PTR _vCurPos$[ebp]
  0007e	a5		 movsd
  0007f	a5		 movsd

; 184  : 	float fMapHeight = GetBottomHeight();

  00080	8b cb		 mov	 ecx, ebx
  00082	a5		 movsd
  00083	e8 00 00 00 00	 call	 ?GetBottomHeight@ioGameEntity@@QBEMXZ ; ioGameEntity::GetBottomHeight

; 185  : 
; 186  : 	DWORD dwGapTime = dwCurTime - m_dwProcessTime;

  00088	8b 75 d4	 mov	 esi, DWORD PTR _dwCurTime$[ebp]
  0008b	2b b3 1c 02 00
	00		 sub	 esi, DWORD PTR [ebx+540]
  00091	d9 5d e4	 fstp	 DWORD PTR _fMapHeight$[ebp]
$LL9@ProcessPos:

; 187  : 
; 188  : 	do 
; 189  : 	{
; 190  : 		DWORD dwCurGap = min( dwGapTime, 10 );

  00094	6a 0a		 push	 10			; 0000000aH
  00096	58		 pop	 eax
  00097	3b f0		 cmp	 esi, eax
  00099	8b ce		 mov	 ecx, esi
  0009b	0f 43 c8	 cmovae	 ecx, eax

; 191  : 		if( dwGapTime >= 10 )

  0009e	72 04		 jb	 SHORT $LN6@ProcessPos

; 192  : 		{
; 193  : 			dwGapTime -= 10;

  000a0	2b f0		 sub	 esi, eax

; 194  : 		}
; 195  : 		else

  000a2	eb 04		 jmp	 SHORT $LN5@ProcessPos
$LN6@ProcessPos:

; 196  : 		{
; 197  : 			dwCurGap = dwGapTime;

  000a4	8b ce		 mov	 ecx, esi

; 198  : 			dwGapTime = 0;

  000a6	33 f6		 xor	 esi, esi
$LN5@ProcessPos:

; 199  : 		}
; 200  : 
; 201  : 		float fNewTimePerSec = (float)dwCurGap / 1000.0f;

  000a8	89 4d d8	 mov	 DWORD PTR tv436[ebp], ecx
  000ab	db 45 d8	 fild	 DWORD PTR tv436[ebp]
  000ae	85 c9		 test	 ecx, ecx
  000b0	79 06		 jns	 SHORT $LN47@ProcessPos
  000b2	d8 05 00 00 00
	00		 fadd	 DWORD PTR __real@4f800000
$LN47@ProcessPos:
  000b8	dc 35 00 00 00
	00		 fdiv	 QWORD PTR __real@408f400000000000

; 202  : 
; 203  : 		if( m_fCurJumpPowerAmt > 0.0f )

  000be	8d 45 c0	 lea	 eax, DWORD PTR _value$559264[ebp]
  000c1	50		 push	 eax
  000c2	8d 8b 20 03 00
	00		 lea	 ecx, DWORD PTR [ebx+800]
  000c8	d9 5d e0	 fstp	 DWORD PTR _fNewTimePerSec$557046[ebp]
  000cb	e8 00 00 00 00	 call	 ?DecryptValueToPool@?$CEncrypt@M@@QAEXPAM@Z ; CEncrypt<float>::DecryptValueToPool
  000d0	f3 0f 10 45 c0	 movss	 xmm0, DWORD PTR _value$559264[ebp]
  000d5	0f 2f 05 00 00
	00 00		 comiss	 xmm0, DWORD PTR __real@00000000
  000dc	76 40		 jbe	 SHORT $LN45@ProcessPos

; 204  : 		{
; 205  : 			vCurPos.y += m_fCurJumpPowerAmt * fNewTimePerSec;

  000de	8d 45 d0	 lea	 eax, DWORD PTR _value$559267[ebp]
  000e1	50		 push	 eax
  000e2	8d 8b 20 03 00
	00		 lea	 ecx, DWORD PTR [ebx+800]
  000e8	e8 00 00 00 00	 call	 ?DecryptValueToPool@?$CEncrypt@M@@QAEXPAM@Z ; CEncrypt<float>::DecryptValueToPool
  000ed	f3 0f 10 45 d0	 movss	 xmm0, DWORD PTR _value$559267[ebp]
  000f2	f3 0f 10 4d e0	 movss	 xmm1, DWORD PTR _fNewTimePerSec$557046[ebp]
  000f7	0f 5a c0	 cvtps2pd xmm0, xmm0
  000fa	0f 5a c9	 cvtps2pd xmm1, xmm1
  000fd	f2 0f 59 c1	 mulsd	 xmm0, xmm1
  00101	f3 0f 10 4d f4	 movss	 xmm1, DWORD PTR _vCurPos$[ebp+4]
  00106	66 0f 5a c0	 cvtpd2ps xmm0, xmm0
  0010a	f3 0f 5a c0	 cvtss2sd xmm0, xmm0
  0010e	0f 5a c9	 cvtps2pd xmm1, xmm1
  00111	f2 0f 58 c1	 addsd	 xmm0, xmm1
  00115	66 0f 5a c0	 cvtpd2ps xmm0, xmm0
  00119	f3 0f 11 45 f4	 movss	 DWORD PTR _vCurPos$[ebp+4], xmm0
$LN45@ProcessPos:

; 206  : 		}
; 207  : 
; 208  : 		float fBoundBlowGravityRate = 1.0f;
; 209  : 
; 210  : 		if( vCurPos.y > fMapHeight )

  0011e	f3 0f 10 45 f4	 movss	 xmm0, DWORD PTR _vCurPos$[ebp+4]
  00123	f3 0f 10 4d e4	 movss	 xmm1, DWORD PTR _fMapHeight$[ebp]
  00128	0f 5a c0	 cvtps2pd xmm0, xmm0
  0012b	0f 5a c9	 cvtps2pd xmm1, xmm1
  0012e	66 0f 2f c1	 comisd	 xmm0, xmm1
  00132	0f 86 cf 00 00
	00		 jbe	 $LN8@ProcessPos

; 211  : 		{
; 212  : 			m_fGravityAmt += (m_pModeParent->GetCreator()->GetRoomGravity() * m_fGravityRate * fBoundBlowGravityRate)* fNewTimePerSec;

  00138	8b 83 8c 00 00
	00		 mov	 eax, DWORD PTR [ebx+140]
  0013e	8b 78 34	 mov	 edi, DWORD PTR [eax+52]
  00141	8d 45 c8	 lea	 eax, DWORD PTR _value$559276[ebp]
  00144	50		 push	 eax
  00145	8d 8b f0 02 00
	00		 lea	 ecx, DWORD PTR [ebx+752]
  0014b	e8 00 00 00 00	 call	 ?DecryptValueToPool@?$CEncrypt@M@@QAEXPAM@Z ; CEncrypt<float>::DecryptValueToPool
  00150	8b cf		 mov	 ecx, edi
  00152	e8 00 00 00 00	 call	 ?GetRoomGravity@ioPlayStage@@QAEMXZ ; ioPlayStage::GetRoomGravity
  00157	d8 4d c8	 fmul	 DWORD PTR _value$559276[ebp]
  0015a	8d 45 dc	 lea	 eax, DWORD PTR _value$559281[ebp]
  0015d	50		 push	 eax
  0015e	d8 4d e0	 fmul	 DWORD PTR _fNewTimePerSec$557046[ebp]
  00161	8d 8b c0 02 00
	00		 lea	 ecx, DWORD PTR [ebx+704]
  00167	d9 5d d8	 fstp	 DWORD PTR $T559249[ebp]
  0016a	e8 00 00 00 00	 call	 ?DecryptValueToPool@?$CEncrypt@M@@QAEXPAM@Z ; CEncrypt<float>::DecryptValueToPool
  0016f	d9 45 dc	 fld	 DWORD PTR _value$559281[ebp]
  00172	8d 45 dc	 lea	 eax, DWORD PTR _value$559281[ebp]
  00175	d8 45 d8	 fadd	 DWORD PTR $T559249[ebp]
  00178	50		 push	 eax
  00179	8d 8b c0 02 00
	00		 lea	 ecx, DWORD PTR [ebx+704]
  0017f	d9 5d dc	 fstp	 DWORD PTR _value$559281[ebp]
  00182	e8 00 00 00 00	 call	 ?EncryptValueToPool@?$CEncrypt@M@@AAEXPBD@Z ; CEncrypt<float>::EncryptValueToPool

; 213  : 			vCurPos.y -= m_fGravityAmt * fNewTimePerSec;

  00187	8d 45 c4	 lea	 eax, DWORD PTR _value$559285[ebp]
  0018a	50		 push	 eax
  0018b	8d 8b c0 02 00
	00		 lea	 ecx, DWORD PTR [ebx+704]
  00191	e8 00 00 00 00	 call	 ?DecryptValueToPool@?$CEncrypt@M@@QAEXPAM@Z ; CEncrypt<float>::DecryptValueToPool
  00196	f3 0f 10 4d c4	 movss	 xmm1, DWORD PTR _value$559285[ebp]
  0019b	f3 0f 10 55 e0	 movss	 xmm2, DWORD PTR _fNewTimePerSec$557046[ebp]
  001a0	f3 0f 10 45 f4	 movss	 xmm0, DWORD PTR _vCurPos$[ebp+4]
  001a5	0f 5a c9	 cvtps2pd xmm1, xmm1
  001a8	0f 5a d2	 cvtps2pd xmm2, xmm2
  001ab	f2 0f 59 ca	 mulsd	 xmm1, xmm2
  001af	66 0f 5a c9	 cvtpd2ps xmm1, xmm1
  001b3	0f 5a c0	 cvtps2pd xmm0, xmm0
  001b6	f3 0f 5a c9	 cvtss2sd xmm1, xmm1
  001ba	f2 0f 5c c1	 subsd	 xmm0, xmm1

; 214  : 
; 215  : 			if( vCurPos.y <= fMapHeight )

  001be	f3 0f 10 4d e4	 movss	 xmm1, DWORD PTR _fMapHeight$[ebp]
  001c3	66 0f 5a c0	 cvtpd2ps xmm0, xmm0
  001c7	f3 0f 11 45 f4	 movss	 DWORD PTR _vCurPos$[ebp+4], xmm0
  001cc	f3 0f 5a c0	 cvtss2sd xmm0, xmm0
  001d0	0f 5a c9	 cvtps2pd xmm1, xmm1
  001d3	66 0f 2f c8	 comisd	 xmm1, xmm0
  001d7	72 2e		 jb	 SHORT $LN8@ProcessPos

; 216  : 			{
; 217  : 				m_fGravityAmt = 0.0f;

  001d9	0f 57 c0	 xorps	 xmm0, xmm0
  001dc	8d 45 cc	 lea	 eax, DWORD PTR _value$559290[ebp]
  001df	50		 push	 eax
  001e0	8d 8b c0 02 00
	00		 lea	 ecx, DWORD PTR [ebx+704]
  001e6	f3 0f 11 45 cc	 movss	 DWORD PTR _value$559290[ebp], xmm0
  001eb	e8 00 00 00 00	 call	 ?EncryptValueToPool@?$CEncrypt@M@@AAEXPBD@Z ; CEncrypt<float>::EncryptValueToPool

; 218  : 				m_fCurJumpPowerAmt = 0.0f;

  001f0	0f 57 c0	 xorps	 xmm0, xmm0
  001f3	8d 45 e8	 lea	 eax, DWORD PTR _value$559294[ebp]
  001f6	50		 push	 eax
  001f7	8d 8b 20 03 00
	00		 lea	 ecx, DWORD PTR [ebx+800]
  001fd	f3 0f 11 45 e8	 movss	 DWORD PTR _value$559294[ebp], xmm0
  00202	e8 00 00 00 00	 call	 ?EncryptValueToPool@?$CEncrypt@M@@AAEXPBD@Z ; CEncrypt<float>::EncryptValueToPool
$LN8@ProcessPos:

; 219  : 			}
; 220  : 		}
; 221  : 	} while( dwGapTime > 0 );

  00207	85 f6		 test	 esi, esi
  00209	0f 85 85 fe ff
	ff		 jne	 $LL9@ProcessPos

; 222  : 
; 223  : 	if( vCurPos.y < fMapHeight )

  0020f	f3 0f 10 4d f4	 movss	 xmm1, DWORD PTR _vCurPos$[ebp+4]
  00214	f3 0f 10 45 e4	 movss	 xmm0, DWORD PTR _fMapHeight$[ebp]
  00219	0f 5a c9	 cvtps2pd xmm1, xmm1
  0021c	0f 5a d0	 cvtps2pd xmm2, xmm0
  0021f	66 0f 2f d1	 comisd	 xmm2, xmm1
  00223	5f		 pop	 edi
  00224	5e		 pop	 esi
  00225	76 33		 jbe	 SHORT $LN41@ProcessPos

; 224  : 	{
; 225  : 		vCurPos.y = fMapHeight;
; 226  : 		m_fGravityAmt = 0.0f;

  00227	8d 45 e8	 lea	 eax, DWORD PTR _value$559298[ebp]
  0022a	f3 0f 11 45 f4	 movss	 DWORD PTR _vCurPos$[ebp+4], xmm0
  0022f	0f 57 c0	 xorps	 xmm0, xmm0
  00232	8d 8b c0 02 00
	00		 lea	 ecx, DWORD PTR [ebx+704]
  00238	50		 push	 eax
  00239	f3 0f 11 45 e8	 movss	 DWORD PTR _value$559298[ebp], xmm0
  0023e	e8 00 00 00 00	 call	 ?EncryptValueToPool@?$CEncrypt@M@@AAEXPBD@Z ; CEncrypt<float>::EncryptValueToPool

; 227  : 		m_fCurJumpPowerAmt = 0.0f;

  00243	0f 57 c0	 xorps	 xmm0, xmm0
  00246	8d 45 e8	 lea	 eax, DWORD PTR _value$559302[ebp]
  00249	50		 push	 eax
  0024a	8d 8b 20 03 00
	00		 lea	 ecx, DWORD PTR [ebx+800]
  00250	f3 0f 11 45 e8	 movss	 DWORD PTR _value$559302[ebp], xmm0
  00255	e8 00 00 00 00	 call	 ?EncryptValueToPool@?$CEncrypt@M@@AAEXPBD@Z ; CEncrypt<float>::EncryptValueToPool
$LN41@ProcessPos:

; 228  : 	}
; 229  : 
; 230  : 	SetWorldPosition( vCurPos );

  0025a	8b 03		 mov	 eax, DWORD PTR [ebx]
  0025c	8d 4d f0	 lea	 ecx, DWORD PTR _vCurPos$[ebp]
  0025f	51		 push	 ecx
  00260	8b cb		 mov	 ecx, ebx
  00262	ff 50 44	 call	 DWORD PTR [eax+68]

; 231  : 
; 232  : 	m_dwProcessTime = dwCurTime;

  00265	8b 45 d4	 mov	 eax, DWORD PTR _dwCurTime$[ebp]
$LN48@ProcessPos:

; 233  : }

  00268	8b 4d fc	 mov	 ecx, DWORD PTR __$ArrayPad$[ebp]
  0026b	89 83 1c 02 00
	00		 mov	 DWORD PTR [ebx+540], eax
  00271	33 cd		 xor	 ecx, ebp
  00273	5b		 pop	 ebx
  00274	e8 00 00 00 00	 call	 @__security_check_cookie@4
  00279	c9		 leave
  0027a	c2 04 00	 ret	 4
?ProcessPos@ioCopyOwnerDummyChar5@@UAEXM@Z ENDP		; ioCopyOwnerDummyChar5::ProcessPos
_TEXT	ENDS
PUBLIC	??4?$CEncrypt@M@@QAE_NAAV0@@Z			; CEncrypt<float>::operator=
; Function compile flags: /Ogsp
; File d:\lost saga for developer\youtube\tutorial\source\src\lsclient\encryptvalue.h
;	COMDAT ??4?$CEncrypt@M@@QAE_NAAV0@@Z
_TEXT	SEGMENT
_value$559323 = -4					; size = 4
_value$ = 8						; size = 4
_inValue$ = 8						; size = 4
??4?$CEncrypt@M@@QAE_NAAV0@@Z PROC			; CEncrypt<float>::operator=, COMDAT
; _this$ = ecx

; 3314 : 	 {

  00000	55		 push	 ebp
  00001	8b ec		 mov	 ebp, esp
  00003	51		 push	 ecx
  00004	56		 push	 esi

; 3315 : 		 type value = inValue;

  00005	8d 45 fc	 lea	 eax, DWORD PTR _value$559323[ebp]
  00008	8b f1		 mov	 esi, ecx
  0000a	8b 4d 08	 mov	 ecx, DWORD PTR _inValue$[ebp]
  0000d	50		 push	 eax
  0000e	e8 00 00 00 00	 call	 ?DecryptValueToPool@?$CEncrypt@M@@QAEXPAM@Z ; CEncrypt<float>::DecryptValueToPool
  00013	f3 0f 10 45 fc	 movss	 xmm0, DWORD PTR _value$559323[ebp]

; 3316 : 		 EncryptValueToPool((char*)&value);

  00018	8d 45 08	 lea	 eax, DWORD PTR _value$[ebp]
  0001b	50		 push	 eax
  0001c	8b ce		 mov	 ecx, esi
  0001e	f3 0f 11 45 08	 movss	 DWORD PTR _value$[ebp], xmm0
  00023	e8 00 00 00 00	 call	 ?EncryptValueToPool@?$CEncrypt@M@@AAEXPBD@Z ; CEncrypt<float>::EncryptValueToPool

; 3317 : #ifdef _NOTUSE
; 3318 : 		 m_value = inValue;
; 3319 : 		 Debug();
; 3320 : #endif
; 3321 : 		 return value;

  00028	f3 0f 10 45 08	 movss	 xmm0, DWORD PTR _value$[ebp]
  0002d	0f 2e 05 00 00
	00 00		 ucomiss xmm0, DWORD PTR __real@00000000
  00034	9f		 lahf
  00035	5e		 pop	 esi
  00036	f6 c4 44	 test	 ah, 68			; 00000044H
  00039	7b 04		 jnp	 SHORT $LN3@operator@2
  0003b	b0 01		 mov	 al, 1
  0003d	eb 02		 jmp	 SHORT $LN4@operator@2
$LN3@operator@2:
  0003f	32 c0		 xor	 al, al
$LN4@operator@2:

; 3322 : 	 }

  00041	c9		 leave
  00042	c2 04 00	 ret	 4
??4?$CEncrypt@M@@QAE_NAAV0@@Z ENDP			; CEncrypt<float>::operator=
; Function compile flags: /Ogsp
; File d:\lost saga for developer\youtube\tutorial\source\src\lsclient\ioplayentity.h
_TEXT	ENDS
;	COMDAT ?SetTeam@ioPlayEntity@@UAEXW4TeamType@@@Z
_TEXT	SEGMENT
_value$559329 = 8					; size = 4
_eType$ = 8						; size = 4
?SetTeam@ioPlayEntity@@UAEXW4TeamType@@@Z PROC		; ioPlayEntity::SetTeam, COMDAT
; _this$ = ecx

; 106  : 	virtual void SetTeam( TeamType eType ) { m_TeamType = eType; }

  00000	55		 push	 ebp
  00001	8b ec		 mov	 ebp, esp
  00003	8b 45 08	 mov	 eax, DWORD PTR _eType$[ebp]
  00006	89 45 08	 mov	 DWORD PTR _value$559329[ebp], eax
  00009	8d 45 08	 lea	 eax, DWORD PTR _value$559329[ebp]
  0000c	50		 push	 eax
  0000d	81 c1 90 00 00
	00		 add	 ecx, 144		; 00000090H
  00013	e8 00 00 00 00	 call	 ?EncryptValueToPool@?$CEncrypt@W4TeamType@@@@AAEXPBD@Z ; CEncrypt<enum TeamType>::EncryptValueToPool
  00018	5d		 pop	 ebp
  00019	c2 04 00	 ret	 4
?SetTeam@ioPlayEntity@@UAEXW4TeamType@@@Z ENDP		; ioPlayEntity::SetTeam
_TEXT	ENDS
PUBLIC	?GetTeam@ioPlayEntity@@QBE?AW4TeamType@@XZ	; ioPlayEntity::GetTeam
; Function compile flags: /Ogsp
;	COMDAT ?GetTeam@ioPlayEntity@@QBE?AW4TeamType@@XZ
_TEXT	SEGMENT
_value$559335 = -4					; size = 4
?GetTeam@ioPlayEntity@@QBE?AW4TeamType@@XZ PROC		; ioPlayEntity::GetTeam, COMDAT
; _this$ = ecx

; 107  : 	inline TeamType GetTeam() const { return m_TeamType; }

  00000	55		 push	 ebp
  00001	8b ec		 mov	 ebp, esp
  00003	51		 push	 ecx
  00004	8d 45 fc	 lea	 eax, DWORD PTR _value$559335[ebp]
  00007	50		 push	 eax
  00008	81 c1 90 00 00
	00		 add	 ecx, 144		; 00000090H
  0000e	e8 00 00 00 00	 call	 ?DecryptValueToPool@?$CEncrypt@W4TeamType@@@@QAEXPAW4TeamType@@@Z ; CEncrypt<enum TeamType>::DecryptValueToPool
  00013	8b 45 fc	 mov	 eax, DWORD PTR _value$559335[ebp]
  00016	c9		 leave
  00017	c3		 ret	 0
?GetTeam@ioPlayEntity@@QBE?AW4TeamType@@XZ ENDP		; ioPlayEntity::GetTeam
_TEXT	ENDS
PUBLIC	?IsZeroHP@ioPlayMode@@SA_NXZ			; ioPlayMode::IsZeroHP
EXTRN	?m_bZeroHP@ioPlayMode@@1V?$CEncrypt@_N@@A:BYTE	; ioPlayMode::m_bZeroHP
; Function compile flags: /Ogsp
; File d:\lost saga for developer\youtube\tutorial\source\src\lsclient\ioplaymode.h
;	COMDAT ?IsZeroHP@ioPlayMode@@SA_NXZ
_TEXT	SEGMENT
?IsZeroHP@ioPlayMode@@SA_NXZ PROC			; ioPlayMode::IsZeroHP, COMDAT

; 781  : 	static bool IsZeroHP() { return m_bZeroHP; }

  00000	6a 04		 push	 4
  00002	68 28 00 00 00	 push	 OFFSET ?m_bZeroHP@ioPlayMode@@1V?$CEncrypt@_N@@A+40
  00007	68 1c 00 00 00	 push	 OFFSET ?m_bZeroHP@ioPlayMode@@1V?$CEncrypt@_N@@A+28
  0000c	b9 0c 00 00 00	 mov	 ecx, OFFSET ?m_bZeroHP@ioPlayMode@@1V?$CEncrypt@_N@@A+12
  00011	e8 00 00 00 00	 call	 ?DecryptByte@ccddaabb@@QBEXPBDPADH@Z ; ccddaabb::DecryptByte
  00016	a0 28 00 00 00	 mov	 al, BYTE PTR ?m_bZeroHP@ioPlayMode@@1V?$CEncrypt@_N@@A+40
  0001b	c3		 ret	 0
?IsZeroHP@ioPlayMode@@SA_NXZ ENDP			; ioPlayMode::IsZeroHP
_TEXT	ENDS
PUBLIC	??_C@_0BG@MBEDEIOM@resource?2animation?2?$CFs?$AA@ ; `string'
PUBLIC	?SetCopyOwnerInfo@ioCopyOwnerDummyChar5@@QAEXPAVioBaseChar@@@Z ; ioCopyOwnerDummyChar5::SetCopyOwnerInfo
EXTRN	?SetTeam@ioGaugeHelper@@QAEXW4TeamType@@@Z:PROC	; ioGaugeHelper::SetTeam
EXTRN	?GetSingleConvertTeam@ioBaseChar@@QAE?AW4TeamType@@XZ:PROC ; ioBaseChar::GetSingleConvertTeam
EXTRN	__imp_?GetAnimationName@ioEntityGroup@@QBE?AVioHashString@@H@Z:PROC
EXTRN	__imp_?IsFileExist@ioResourceLoader@@QAE_NPBD_N@Z:PROC
EXTRN	__imp_?GetInstance@ioResourceLoader@@SAAAV1@XZ:PROC
EXTRN	__imp_?c_str@ioHashString@@QBEPBDXZ:PROC
EXTRN	__imp_??4ioHashString@@QAEAAV0@ABV0@@Z:PROC
EXTRN	?ConvertTailName@Help@@YA?AVioHashString@@ABV2@_N@Z:PROC ; Help::ConvertTailName
EXTRN	?GetWeapon@ioEquipSlot@@QBEPAVioWeaponItem@@XZ:PROC ; ioEquipSlot::GetWeapon
EXTRN	__imp_?IsEmpty@ioHashString@@QBE_NXZ:PROC
EXTRN	__EH_epilog3_GS:PROC
EXTRN	__EH_prolog3_GS:PROC
;	COMDAT ??_C@_0BG@MBEDEIOM@resource?2animation?2?$CFs?$AA@
; File d:\lost saga for developer\youtube\tutorial\source\src\lsclient\encryptvalue.h
CONST	SEGMENT
??_C@_0BG@MBEDEIOM@resource?2animation?2?$CFs?$AA@ DB 'resource\animation'
	DB	'\%s', 00H					; `string'
CONST	ENDS
;	COMDAT xdata$x
xdata$x	SEGMENT
__unwindtable$?SetCopyOwnerInfo@ioCopyOwnerDummyChar5@@QAEXPAVioBaseChar@@@Z DD 0ffffffffH
	DD	FLAT:__unwindfunclet$?SetCopyOwnerInfo@ioCopyOwnerDummyChar5@@QAEXPAVioBaseChar@@@Z$0
	DD	0ffffffffH
	DD	FLAT:__unwindfunclet$?SetCopyOwnerInfo@ioCopyOwnerDummyChar5@@QAEXPAVioBaseChar@@@Z$1
	DD	0ffffffffH
	DD	FLAT:__unwindfunclet$?SetCopyOwnerInfo@ioCopyOwnerDummyChar5@@QAEXPAVioBaseChar@@@Z$2
__ehfuncinfo$?SetCopyOwnerInfo@ioCopyOwnerDummyChar5@@QAEXPAVioBaseChar@@@Z DD 019930522H
	DD	03H
	DD	FLAT:__unwindtable$?SetCopyOwnerInfo@ioCopyOwnerDummyChar5@@QAEXPAVioBaseChar@@@Z
	DD	2 DUP(00H)
	DD	2 DUP(00H)
	DD	00H
	DD	01H
; Function compile flags: /Ogsp
; File d:\lost saga for developer\youtube\tutorial\source\src\lsclient\iocopyownerdummychar5.cpp
xdata$x	ENDS
;	COMDAT ?SetCopyOwnerInfo@ioCopyOwnerDummyChar5@@QAEXPAVioBaseChar@@@Z
_TEXT	SEGMENT
$T559354 = -300						; size = 16
$T559353 = -300						; size = 16
$T559352 = -300						; size = 16
tv331 = -284						; size = 4
$T559364 = -280						; size = 1
_value$559389 = -280					; size = 4
_szFullName$556975 = -276				; size = 260
__$EHRec$ = -12						; size = 12
_pOwner$ = 8						; size = 4
?SetCopyOwnerInfo@ioCopyOwnerDummyChar5@@QAEXPAVioBaseChar@@@Z PROC ; ioCopyOwnerDummyChar5::SetCopyOwnerInfo, COMDAT
; _this$ = ecx

; 45   : {

  00000	68 20 01 00 00	 push	 288			; 00000120H
  00005	b8 00 00 00 00	 mov	 eax, __ehhandler$?SetCopyOwnerInfo@ioCopyOwnerDummyChar5@@QAEXPAVioBaseChar@@@Z
  0000a	e8 00 00 00 00	 call	 __EH_prolog3_GS
  0000f	8b 75 08	 mov	 esi, DWORD PTR _pOwner$[ebp]
  00012	8b f9		 mov	 edi, ecx

; 46   : 	if( !pOwner )

  00014	85 f6		 test	 esi, esi
  00016	0f 84 ef 01 00
	00		 je	 $LN13@SetCopyOwn

; 47   : 		return;
; 48   : 
; 49   : 	if ( m_szDefaultDelayMotion.IsEmpty() )

  0001c	8d 9f 84 14 00
	00		 lea	 ebx, DWORD PTR [edi+5252]
  00022	8b cb		 mov	 ecx, ebx
  00024	ff 15 00 00 00
	00		 call	 DWORD PTR __imp_?IsEmpty@ioHashString@@QBE_NXZ
  0002a	84 c0		 test	 al, al
  0002c	0f 84 41 01 00
	00		 je	 $LN11@SetCopyOwn

; 50   : 	{
; 51   : 		ioEquipSlot *pEquip = pOwner->GetEquipSlot();

  00032	8b 8e 48 03 00
	00		 mov	 ecx, DWORD PTR [esi+840]

; 52   : 		if( pEquip )

  00038	85 c9		 test	 ecx, ecx
  0003a	0f 84 4c 01 00
	00		 je	 $LN5@SetCopyOwn

; 53   : 		{
; 54   : 			ioWeaponItem *pItem = pEquip->GetWeapon();

  00040	e8 00 00 00 00	 call	 ?GetWeapon@ioEquipSlot@@QBEPAVioWeaponItem@@XZ ; ioEquipSlot::GetWeapon

; 55   : 			if( pItem )

  00045	85 c0		 test	 eax, eax
  00047	0f 84 db 00 00
	00		 je	 $LN9@SetCopyOwn

; 56   : 			{
; 57   : 				m_DelayAnimation = Help::ConvertTailName( pItem->GetDelayAnimation(), pOwner->IsMale() );

  0004d	8a 8e 20 03 00
	00		 mov	 cl, BYTE PTR [esi+800]
  00053	88 8d e8 fe ff
	ff		 mov	 BYTE PTR $T559364[ebp], cl
  00059	ff b5 e8 fe ff
	ff		 push	 DWORD PTR $T559364[ebp]
  0005f	05 b0 08 00 00	 add	 eax, 2224		; 000008b0H
  00064	50		 push	 eax
  00065	89 85 e4 fe ff
	ff		 mov	 DWORD PTR tv331[ebp], eax
  0006b	8d 85 d4 fe ff
	ff		 lea	 eax, DWORD PTR $T559352[ebp]
  00071	50		 push	 eax
  00072	e8 00 00 00 00	 call	 ?ConvertTailName@Help@@YA?AVioHashString@@ABV2@_N@Z ; Help::ConvertTailName
  00077	83 c4 0c	 add	 esp, 12			; 0000000cH
  0007a	8b 1d 00 00 00
	00		 mov	 ebx, DWORD PTR __imp_??4ioHashString@@QAEAAV0@ABV0@@Z
  00080	83 65 fc 00	 and	 DWORD PTR __$EHRec$[ebp+8], 0
  00084	8d 8f a8 06 00
	00		 lea	 ecx, DWORD PTR [edi+1704]
  0008a	50		 push	 eax
  0008b	ff d3		 call	 ebx
  0008d	83 4d fc ff	 or	 DWORD PTR __$EHRec$[ebp+8], -1
  00091	8d 8d d4 fe ff
	ff		 lea	 ecx, DWORD PTR $T559352[ebp]
  00097	ff 15 00 00 00
	00		 call	 DWORD PTR __imp_??1ioHashString@@QAE@XZ

; 58   : 
; 59   : 				char szFullName[MAX_PATH]="";

  0009d	68 03 01 00 00	 push	 259			; 00000103H
  000a2	8d 85 ed fe ff
	ff		 lea	 eax, DWORD PTR _szFullName$556975[ebp+1]
  000a8	6a 00		 push	 0
  000aa	50		 push	 eax
  000ab	c6 85 ec fe ff
	ff 00		 mov	 BYTE PTR _szFullName$556975[ebp], 0
  000b2	e8 00 00 00 00	 call	 _memset
  000b7	83 c4 0c	 add	 esp, 12			; 0000000cH

; 60   : 				StringCbPrintf( szFullName, sizeof( szFullName ), "resource\\animation\\%s" , m_DelayAnimation.c_str() );

  000ba	8d 8f a8 06 00
	00		 lea	 ecx, DWORD PTR [edi+1704]
  000c0	ff 15 00 00 00
	00		 call	 DWORD PTR __imp_?c_str@ioHashString@@QBEPBDXZ
  000c6	50		 push	 eax
  000c7	68 00 00 00 00	 push	 OFFSET ??_C@_0BG@MBEDEIOM@resource?2animation?2?$CFs?$AA@
  000cc	8d 85 ec fe ff
	ff		 lea	 eax, DWORD PTR _szFullName$556975[ebp]
  000d2	68 04 01 00 00	 push	 260			; 00000104H
  000d7	50		 push	 eax
  000d8	e8 00 00 00 00	 call	 ?StringCbPrintfA@@YAJPADIPBDZZ ; StringCbPrintfA
  000dd	83 c4 10	 add	 esp, 16			; 00000010H

; 61   : 				if( !g_ResourceLoader.IsFileExist( szFullName ) )

  000e0	8d 85 ec fe ff
	ff		 lea	 eax, DWORD PTR _szFullName$556975[ebp]
  000e6	6a 00		 push	 0
  000e8	50		 push	 eax
  000e9	ff 15 00 00 00
	00		 call	 DWORD PTR __imp_?GetInstance@ioResourceLoader@@SAAAV1@XZ
  000ef	8b c8		 mov	 ecx, eax
  000f1	ff 15 00 00 00
	00		 call	 DWORD PTR __imp_?IsFileExist@ioResourceLoader@@QAE_NPBD_N@Z
  000f7	84 c0		 test	 al, al
  000f9	0f 85 8d 00 00
	00		 jne	 $LN5@SetCopyOwn

; 62   : 				{
; 63   : 					m_DelayAnimation = Help::ConvertTailName( pItem->GetDelayAnimation(), true ); // 

  000ff	6a 01		 push	 1
  00101	ff b5 e4 fe ff
	ff		 push	 DWORD PTR tv331[ebp]
  00107	8d 85 d4 fe ff
	ff		 lea	 eax, DWORD PTR $T559353[ebp]
  0010d	50		 push	 eax
  0010e	e8 00 00 00 00	 call	 ?ConvertTailName@Help@@YA?AVioHashString@@ABV2@_N@Z ; Help::ConvertTailName
  00113	83 c4 0c	 add	 esp, 12			; 0000000cH
  00116	50		 push	 eax
  00117	8d 8f a8 06 00
	00		 lea	 ecx, DWORD PTR [edi+1704]
  0011d	c7 45 fc 01 00
	00 00		 mov	 DWORD PTR __$EHRec$[ebp+8], 1
  00124	ff d3		 call	 ebx

; 64   : 				}
; 65   : 			}
; 66   : 			else

  00126	eb 39		 jmp	 SHORT $LN39@SetCopyOwn
$LN9@SetCopyOwn:

; 67   : 			{
; 68   : 				ioEntityGroup *pGrp = pOwner->GetGroup();

  00128	8b 5e 04	 mov	 ebx, DWORD PTR [esi+4]

; 69   : 				if( !pGrp )

  0012b	85 db		 test	 ebx, ebx
  0012d	0f 84 d8 00 00
	00		 je	 $LN13@SetCopyOwn

; 70   : 					return;
; 71   : 
; 72   : 				m_DelayAnimation = pGrp->GetAnimationName( pOwner->GetDelayAnimationIdx() );

  00133	8b 06		 mov	 eax, DWORD PTR [esi]
  00135	8b ce		 mov	 ecx, esi
  00137	ff 90 54 01 00
	00		 call	 DWORD PTR [eax+340]
  0013d	50		 push	 eax
  0013e	8d 85 d4 fe ff
	ff		 lea	 eax, DWORD PTR $T559354[ebp]
  00144	50		 push	 eax
  00145	8b cb		 mov	 ecx, ebx
  00147	ff 15 00 00 00
	00		 call	 DWORD PTR __imp_?GetAnimationName@ioEntityGroup@@QBE?AVioHashString@@H@Z
  0014d	50		 push	 eax
  0014e	8d 8f a8 06 00
	00		 lea	 ecx, DWORD PTR [edi+1704]
  00154	c7 45 fc 02 00
	00 00		 mov	 DWORD PTR __$EHRec$[ebp+8], 2
  0015b	ff 15 00 00 00
	00		 call	 DWORD PTR __imp_??4ioHashString@@QAEAAV0@ABV0@@Z
$LN39@SetCopyOwn:
  00161	83 4d fc ff	 or	 DWORD PTR __$EHRec$[ebp+8], -1
  00165	8d 8d d4 fe ff
	ff		 lea	 ecx, DWORD PTR $T559354[ebp]
  0016b	ff 15 00 00 00
	00		 call	 DWORD PTR __imp_??1ioHashString@@QAE@XZ

; 73   : 			}
; 74   : 		}
; 75   : 	}
; 76   : 	else

  00171	eb 19		 jmp	 SHORT $LN5@SetCopyOwn
$LN11@SetCopyOwn:

; 77   : 	{
; 78   : 		m_DelayAnimation = m_szDefaultDelayMotion;

  00173	53		 push	 ebx
  00174	8d 8f a8 06 00
	00		 lea	 ecx, DWORD PTR [edi+1704]
  0017a	ff 15 00 00 00
	00		 call	 DWORD PTR __imp_??4ioHashString@@QAEAAV0@ABV0@@Z

; 79   : 		m_fDelayAniRate = m_fDefaultDelayMotionRate;

  00180	d9 87 94 14 00
	00		 fld	 DWORD PTR [edi+5268]
  00186	d9 9f b8 06 00
	00		 fstp	 DWORD PTR [edi+1720]
$LN5@SetCopyOwn:

; 80   : 	}
; 81   : 	
; 82   : 
; 83   : 	m_HP.m_fMaxValue = pOwner->GetHP().m_fMaxValue;

  0018c	8d 86 f0 00 00
	00		 lea	 eax, DWORD PTR [esi+240]
  00192	50		 push	 eax
  00193	8d 8f f0 00 00
	00		 lea	 ecx, DWORD PTR [edi+240]
  00199	e8 00 00 00 00	 call	 ??4?$CEncrypt@M@@QAE_NAAV0@@Z ; CEncrypt<float>::operator=

; 84   : 	m_HP.m_fCurValue = pOwner->GetHP().m_fCurValue;

  0019e	8d 86 c0 00 00
	00		 lea	 eax, DWORD PTR [esi+192]
  001a4	50		 push	 eax
  001a5	8d 8f c0 00 00
	00		 lea	 ecx, DWORD PTR [edi+192]
  001ab	e8 00 00 00 00	 call	 ??4?$CEncrypt@M@@QAE_NAAV0@@Z ; CEncrypt<float>::operator=

; 85   : 
; 86   : 	// 
; 87   : 	TeamType eCurTeamType = pOwner->GetTeam();

  001b0	8d 85 e8 fe ff
	ff		 lea	 eax, DWORD PTR _value$559389[ebp]
  001b6	50		 push	 eax
  001b7	8d 8e 90 00 00
	00		 lea	 ecx, DWORD PTR [esi+144]
  001bd	e8 00 00 00 00	 call	 ?DecryptValueToPool@?$CEncrypt@W4TeamType@@@@QAEXPAW4TeamType@@@Z ; CEncrypt<enum TeamType>::DecryptValueToPool

; 88   : 	TeamType eCurSingleTeamType = pOwner->GetSingleConvertTeam();

  001c2	8b ce		 mov	 ecx, esi
  001c4	e8 00 00 00 00	 call	 ?GetSingleConvertTeam@ioBaseChar@@QAE?AW4TeamType@@XZ ; ioBaseChar::GetSingleConvertTeam

; 89   : 
; 90   : 	switch( eCurTeamType )

  001c9	83 bd e8 fe ff
	ff 00		 cmp	 DWORD PTR _value$559389[ebp], 0
  001d0	7e 11		 jle	 SHORT $LN1@SetCopyOwn
  001d2	83 bd e8 fe ff
	ff 02		 cmp	 DWORD PTR _value$559389[ebp], 2
  001d9	7f 08		 jg	 SHORT $LN1@SetCopyOwn

; 91   : 	{
; 92   : 	case TEAM_BLUE:
; 93   : 	case TEAM_RED:
; 94   : 		m_pGauge->SetTeam( eCurTeamType );

  001db	ff b5 e8 fe ff
	ff		 push	 DWORD PTR _value$559389[ebp]

; 95   : 		break;

  001e1	eb 01		 jmp	 SHORT $LN40@SetCopyOwn
$LN1@SetCopyOwn:

; 96   : 	default:
; 97   : 		m_pGauge->SetTeam( eCurSingleTeamType );

  001e3	50		 push	 eax
$LN40@SetCopyOwn:
  001e4	8b 8f 70 02 00
	00		 mov	 ecx, DWORD PTR [edi+624]
  001ea	e8 00 00 00 00	 call	 ?SetTeam@ioGaugeHelper@@QAEXW4TeamType@@@Z ; ioGaugeHelper::SetTeam

; 98   : 		break;
; 99   : 	}
; 100  : 
; 101  : 	m_ArmorType = pOwner->GetArmorType();

  001ef	8b 06		 mov	 eax, DWORD PTR [esi]
  001f1	8b ce		 mov	 ecx, esi
  001f3	ff 90 a8 00 00
	00		 call	 DWORD PTR [eax+168]
  001f9	89 87 34 02 00
	00		 mov	 DWORD PTR [edi+564], eax

; 102  : 	SetDelayState( false );

  001ff	8b 07		 mov	 eax, DWORD PTR [edi]
  00201	6a 00		 push	 0
  00203	8b cf		 mov	 ecx, edi
  00205	ff 90 14 01 00
	00		 call	 DWORD PTR [eax+276]
$LN13@SetCopyOwn:

; 103  : }

  0020b	e8 00 00 00 00	 call	 __EH_epilog3_GS
  00210	c2 04 00	 ret	 4
_TEXT	ENDS
;	COMDAT text$x
text$x	SEGMENT
__unwindfunclet$?SetCopyOwnerInfo@ioCopyOwnerDummyChar5@@QAEXPAVioBaseChar@@@Z$0:
  00000	8d 8d d4 fe ff
	ff		 lea	 ecx, DWORD PTR $T559352[ebp]
  00006	ff 25 00 00 00
	00		 jmp	 DWORD PTR __imp_??1ioHashString@@QAE@XZ
__unwindfunclet$?SetCopyOwnerInfo@ioCopyOwnerDummyChar5@@QAEXPAVioBaseChar@@@Z$1:
  0000c	8d 8d d4 fe ff
	ff		 lea	 ecx, DWORD PTR $T559353[ebp]
  00012	ff 25 00 00 00
	00		 jmp	 DWORD PTR __imp_??1ioHashString@@QAE@XZ
__unwindfunclet$?SetCopyOwnerInfo@ioCopyOwnerDummyChar5@@QAEXPAVioBaseChar@@@Z$2:
  00018	8d 8d d4 fe ff
	ff		 lea	 ecx, DWORD PTR $T559354[ebp]
  0001e	ff 25 00 00 00
	00		 jmp	 DWORD PTR __imp_??1ioHashString@@QAE@XZ
__ehhandler$?SetCopyOwnerInfo@ioCopyOwnerDummyChar5@@QAEXPAVioBaseChar@@@Z:
  00024	8b 54 24 08	 mov	 edx, DWORD PTR [esp+8]
  00028	8d 42 0c	 lea	 eax, DWORD PTR [edx+12]
  0002b	8b 8a d0 fe ff
	ff		 mov	 ecx, DWORD PTR [edx-304]
  00031	33 c8		 xor	 ecx, eax
  00033	e8 00 00 00 00	 call	 @__security_check_cookie@4
  00038	8b 4a fc	 mov	 ecx, DWORD PTR [edx-4]
  0003b	33 c8		 xor	 ecx, eax
  0003d	e8 00 00 00 00	 call	 @__security_check_cookie@4
  00042	b8 00 00 00 00	 mov	 eax, OFFSET __ehfuncinfo$?SetCopyOwnerInfo@ioCopyOwnerDummyChar5@@QAEXPAVioBaseChar@@@Z
  00047	e9 00 00 00 00	 jmp	 ___CxxFrameHandler3
text$x	ENDS
?SetCopyOwnerInfo@ioCopyOwnerDummyChar5@@QAEXPAVioBaseChar@@@Z ENDP ; ioCopyOwnerDummyChar5::SetCopyOwnerInfo
EXTRN	?ProcessStartState@ioDummyChar@@IAEXM@Z:PROC	; ioDummyChar::ProcessStartState
EXTRN	?ProcessDieState@ioDummyChar@@IAEXM@Z:PROC	; ioDummyChar::ProcessDieState
; Function compile flags: /Ogsp
;	COMDAT ?ProcessState@ioCopyOwnerDummyChar5@@UAEXMK@Z
_TEXT	SEGMENT
_value$559420 = 8					; size = 4
_value$559416 = 8					; size = 4
_fTimePerSec$ = 8					; size = 4
_dwPreTime$ = 12					; size = 4
?ProcessState@ioCopyOwnerDummyChar5@@UAEXMK@Z PROC	; ioCopyOwnerDummyChar5::ProcessState, COMDAT
; _this$ = ecx

; 136  : {

  00000	55		 push	 ebp
  00001	8b ec		 mov	 ebp, esp

; 137  : 	switch( m_State )

  00003	f3 0f 10 45 08	 movss	 xmm0, DWORD PTR _fTimePerSec$[ebp]
  00008	56		 push	 esi
  00009	8b f1		 mov	 esi, ecx
  0000b	8b 86 30 02 00
	00		 mov	 eax, DWORD PTR [esi+560]
  00011	48		 dec	 eax
  00012	74 25		 je	 SHORT $LN5@ProcessSta
  00014	48		 dec	 eax
  00015	74 12		 je	 SHORT $LN4@ProcessSta
  00017	83 e8 04	 sub	 eax, 4
  0001a	75 28		 jne	 SHORT $LN6@ProcessSta

; 145  : 	case DCS_DIE:
; 146  : 		ProcessDieState( fTimePerSec );

  0001c	51		 push	 ecx
  0001d	f3 0f 11 04 24	 movss	 DWORD PTR [esp], xmm0
  00022	e8 00 00 00 00	 call	 ?ProcessDieState@ioDummyChar@@IAEXM@Z ; ioDummyChar::ProcessDieState

; 147  : 		break;

  00027	eb 1b		 jmp	 SHORT $LN6@ProcessSta
$LN4@ProcessSta:

; 141  : 		break;
; 142  : 	case DCS_DELAY:
; 143  : 		ProcessDelayState( fTimePerSec );

  00029	8b 06		 mov	 eax, DWORD PTR [esi]
  0002b	51		 push	 ecx
  0002c	f3 0f 11 04 24	 movss	 DWORD PTR [esp], xmm0
  00031	ff 90 00 01 00
	00		 call	 DWORD PTR [eax+256]

; 144  : 		break;

  00037	eb 0b		 jmp	 SHORT $LN6@ProcessSta
$LN5@ProcessSta:

; 138  : 	{
; 139  : 	case DCS_START:
; 140  : 		ProcessStartState( fTimePerSec );

  00039	51		 push	 ecx
  0003a	f3 0f 11 04 24	 movss	 DWORD PTR [esp], xmm0
  0003f	e8 00 00 00 00	 call	 ?ProcessStartState@ioDummyChar@@IAEXM@Z ; ioDummyChar::ProcessStartState
$LN6@ProcessSta:

; 148  : 	}
; 149  : 
; 150  : 	ProcessPos( fTimePerSec );

  00044	f3 0f 10 45 08	 movss	 xmm0, DWORD PTR _fTimePerSec$[ebp]
  00049	8b 06		 mov	 eax, DWORD PTR [esi]
  0004b	51		 push	 ecx
  0004c	8b ce		 mov	 ecx, esi
  0004e	f3 0f 11 04 24	 movss	 DWORD PTR [esp], xmm0
  00053	ff 90 fc 00 00
	00		 call	 DWORD PTR [eax+252]

; 151  : 
; 152  : 	if( m_pModeParent && m_pModeParent->IsZeroHP() )

  00059	83 be 8c 00 00
	00 00		 cmp	 DWORD PTR [esi+140], 0
  00060	74 39		 je	 SHORT $LN14@ProcessSta
  00062	e8 00 00 00 00	 call	 ?IsZeroHP@ioPlayMode@@SA_NXZ ; ioPlayMode::IsZeroHP
  00067	84 c0		 test	 al, al
  00069	74 30		 je	 SHORT $LN14@ProcessSta

; 153  : 	{
; 154  : 		if( m_HP.m_fCurValue > 0.0f )

  0006b	8d 45 08	 lea	 eax, DWORD PTR _value$559416[ebp]
  0006e	50		 push	 eax
  0006f	8d 8e c0 00 00
	00		 lea	 ecx, DWORD PTR [esi+192]
  00075	e8 00 00 00 00	 call	 ?DecryptValueToPool@?$CEncrypt@M@@QAEXPAM@Z ; CEncrypt<float>::DecryptValueToPool
  0007a	f3 0f 10 4d 08	 movss	 xmm1, DWORD PTR _value$559416[ebp]
  0007f	0f 57 c0	 xorps	 xmm0, xmm0
  00082	0f 2f c8	 comiss	 xmm1, xmm0
  00085	76 14		 jbe	 SHORT $LN14@ProcessSta

; 155  : 			m_HP.m_fCurValue = 0.0f;

  00087	8d 45 08	 lea	 eax, DWORD PTR _value$559420[ebp]
  0008a	50		 push	 eax
  0008b	8d 8e c0 00 00
	00		 lea	 ecx, DWORD PTR [esi+192]
  00091	f3 0f 11 45 08	 movss	 DWORD PTR _value$559420[ebp], xmm0
  00096	e8 00 00 00 00	 call	 ?EncryptValueToPool@?$CEncrypt@M@@AAEXPBD@Z ; CEncrypt<float>::EncryptValueToPool
$LN14@ProcessSta:
  0009b	5e		 pop	 esi

; 156  : 	}
; 157  : }

  0009c	5d		 pop	 ebp
  0009d	c2 08 00	 ret	 8
?ProcessState@ioCopyOwnerDummyChar5@@UAEXMK@Z ENDP	; ioCopyOwnerDummyChar5::ProcessState
_TEXT	ENDS
PUBLIC	??_C@_02DKCKIIND@?$CFs?$AA@			; `string'
PUBLIC	??_C@_04LIFAFMCE@?$FL?$CFs?$FN?$AA@		; `string'
PUBLIC	__real@3f19999a
PUBLIC	__real@4044000000000000
PUBLIC	_this$GSCopy$
PUBLIC	__$ArrayPad$
PUBLIC	?RenderGaugeOwnerInfo@ioCopyOwnerDummyChar5@@QAEXXZ ; ioCopyOwnerDummyChar5::RenderGaugeOwnerInfo
EXTRN	?RenderGauge@ioGaugeHelper@@QAEXMM_N@Z:PROC	; ioGaugeHelper::RenderGauge
EXTRN	?RenderClassLevel@ioMyLevelMgr@@QAEXHHHW4TeamType@@_NW4UIRenderType@@@Z:PROC ; ioMyLevelMgr::RenderClassLevel
EXTRN	__imp__sprintf:PROC
EXTRN	?GetGrowthInstantLevel@ioBaseChar@@QAEHXZ:PROC	; ioBaseChar::GetGrowthInstantLevel
EXTRN	?IsMonsterDungeonMode@Help@@YA_NW4ModeType@@@Z:PROC ; Help::IsMonsterDungeonMode
EXTRN	__imp_?PrintText@ioFontManager@@QAEXMMMPBD0@Z:PROC
EXTRN	?GetHeroTitleString@ioMyLevelMgr@@QAEABVioHashString@@K@Z:PROC ; ioMyLevelMgr::GetHeroTitleString
EXTRN	?IsLadderTeam@ioLadderTeamMgr@@QAE_NXZ:PROC	; ioLadderTeamMgr::IsLadderTeam
EXTRN	?GetSingleton@ioLadderTeamMgr@@SAAAV1@XZ:PROC	; ioLadderTeamMgr::GetSingleton
EXTRN	?RenderSmallMark@ioGuildMarkMgr@@QAEXKKMMW4UIRenderType@@@Z:PROC ; ioGuildMarkMgr::RenderSmallMark
EXTRN	__imp_?PrintText@ioFontManager@@QAAXMMMPBDZZ:PROC
EXTRN	?RenderGrade@ioMyLevelMgr@@QAEXABVioHashString@@HHKW4TeamType@@W4UIRenderType@@K@Z:PROC ; ioMyLevelMgr::RenderGrade
EXTRN	?GetSingleton@ioMyLevelMgr@@SAAAV1@XZ:PROC	; ioMyLevelMgr::GetSingleton
EXTRN	?GetGuildSmallMarkSize@ioGuildMarkMgr@@QAEHKK@Z:PROC ; ioGuildMarkMgr::GetGuildSmallMarkSize
EXTRN	?GetSingleton@ioGuildMarkMgr@@SAAAV1@XZ:PROC	; ioGuildMarkMgr::GetSingleton
EXTRN	__imp_?GetTextWidth@ioFontManager@@QAEMPBDW4TextStyle@@MH@Z:PROC
EXTRN	?GetGuildInfo@ioUserInfoMgr@@QAEXABVioHashString@@AAK1@Z:PROC ; ioUserInfoMgr::GetGuildInfo
EXTRN	?GetSingleton@ioUserInfoMgr@@SAAAV1@XZ:PROC	; ioUserInfoMgr::GetSingleton
EXTRN	?GetSingleton@ioMyInfo@@SAAAV1@XZ:PROC		; ioMyInfo::GetSingleton
EXTRN	__imp_?SetAlignType@ioFontManager@@QAEXW4TextAlignType@@@Z:PROC
EXTRN	?IsNetworkMode@ioPlayStage@@QAE_NXZ:PROC	; ioPlayStage::IsNetworkMode
EXTRN	?GetModeType@ioPlayStage@@QBE?AW4ModeType@@XZ:PROC ; ioPlayStage::GetModeType
EXTRN	__imp_?SetTextColor@ioFontManager@@QAEXHHH@Z:PROC
EXTRN	__imp_?SetBkColor@ioFontManager@@QAEXHHH@Z:PROC
EXTRN	__imp_?SetTextStyle@ioFontManager@@QAEXW4TextStyle@@@Z:PROC
EXTRN	__imp_?GetSingleton@ioFontManager@@SAAAV1@XZ:PROC
EXTRN	?Check2DInScreen@Setting@@SA_NABUD3DXVECTOR3@@AAH1@Z:PROC ; Setting::Check2DInScreen
EXTRN	?GetMidPositionByRate@ioGameEntity@@QBE?AUD3DXVECTOR3@@M@Z:PROC ; ioGameEntity::GetMidPositionByRate
EXTRN	__ftol2_sse:PROC
;	COMDAT ??_C@_02DKCKIIND@?$CFs?$AA@
; File d:\lost saga for developer\youtube\tutorial\source\src\lsclient\iobasechar.h
CONST	SEGMENT
??_C@_02DKCKIIND@?$CFs?$AA@ DB '%s', 00H		; `string'
CONST	ENDS
;	COMDAT ??_C@_04LIFAFMCE@?$FL?$CFs?$FN?$AA@
CONST	SEGMENT
??_C@_04LIFAFMCE@?$FL?$CFs?$FN?$AA@ DB '[%s]', 00H	; `string'
CONST	ENDS
;	COMDAT __real@3f19999a
CONST	SEGMENT
__real@3f19999a DD 03f19999ar			; 0.6
CONST	ENDS
;	COMDAT __real@4044000000000000
CONST	SEGMENT
__real@4044000000000000 DQ 04044000000000000r	; 40
; Function compile flags: /Ogsp
; File d:\lost saga for developer\youtube\tutorial\source\src\lsclient\iocopyownerdummychar5.cpp
CONST	ENDS
;	COMDAT ?RenderGaugeOwnerInfo@ioCopyOwnerDummyChar5@@QAEXXZ
_TEXT	SEGMENT
_this$GSCopy$ = -316					; size = 4
_pStage$ = -312						; size = 4
_value$559437 = -308					; size = 4
_eCurSingleTeamType$557069 = -304			; size = 4
_iHalfWidth$557097 = -300				; size = 4
_dwGuildMark$557086 = -300				; size = 4
_iNameWidth$557096 = -296				; size = 4
_dwGuildIndex$557085 = -296				; size = 4
_dwGuildMark$557095 = -292				; size = 4
_iHalfWidth$557088 = -292				; size = 4
$T559535 = -288						; size = 1
$T559523 = -288						; size = 1
$T559455 = -288						; size = 4
_dwGuildIndex$557094 = -288				; size = 4
_iXPos$ = -284						; size = 4
_iYPos$ = -280						; size = 4
_vPos$557065 = -276					; size = 12
_szCharName$557092 = -264				; size = 260
__$ArrayPad$ = -4					; size = 4
?RenderGaugeOwnerInfo@ioCopyOwnerDummyChar5@@QAEXXZ PROC ; ioCopyOwnerDummyChar5::RenderGaugeOwnerInfo, COMDAT
; _this$ = ecx

; 236  : {

  00000	55		 push	 ebp
  00001	8b ec		 mov	 ebp, esp
  00003	81 ec 3c 01 00
	00		 sub	 esp, 316		; 0000013cH
  00009	a1 00 00 00 00	 mov	 eax, DWORD PTR ___security_cookie
  0000e	33 c5		 xor	 eax, ebp
  00010	89 45 fc	 mov	 DWORD PTR __$ArrayPad$[ebp], eax
  00013	53		 push	 ebx
  00014	56		 push	 esi
  00015	8b f1		 mov	 esi, ecx
  00017	57		 push	 edi

; 283  : 				{
; 284  : 					g_FontMgr.SetAlignType( TAT_LEFT );

  00018	89 b5 c4 fe ff
	ff		 mov	 DWORD PTR _this$GSCopy$[ebp], esi
  0001e	e8 00 00 00 00	 call	 ?GetOwner@ioDummyChar@@QBEPAVioBaseChar@@XZ ; ioDummyChar::GetOwner
  00023	8b f8		 mov	 edi, eax
  00025	33 db		 xor	 ebx, ebx
  00027	3b fb		 cmp	 edi, ebx
  00029	0f 84 73 06 00
	00		 je	 $LN28@RenderGaug

; 237  : 	ioBaseChar *pOwner = GetOwner();
; 238  : 	if( !pOwner )
; 239  : 		return;
; 240  : 
; 241  : 	ioPlayStage *pStage = pOwner->GetCreator();

  0002f	8b 87 44 03 00
	00		 mov	 eax, DWORD PTR [edi+836]
  00035	89 85 c8 fe ff
	ff		 mov	 DWORD PTR _pStage$[ebp], eax

; 242  : 	if( !pStage )

  0003b	3b c3		 cmp	 eax, ebx
  0003d	0f 84 5f 06 00
	00		 je	 $LN28@RenderGaug

; 243  : 		return;
; 244  : 
; 245  : 	int iXPos = 0;

  00043	89 9d e4 fe ff
	ff		 mov	 DWORD PTR _iXPos$[ebp], ebx

; 246  : 	int iYPos = 0;

  00049	89 9d e8 fe ff
	ff		 mov	 DWORD PTR _iYPos$[ebp], ebx

; 247  : 
; 248  : 	if( m_pGauge )

  0004f	39 9e 70 02 00
	00		 cmp	 DWORD PTR [esi+624], ebx
  00055	0f 84 47 06 00
	00		 je	 $LN28@RenderGaug

; 249  : 	{
; 250  : 		D3DXVECTOR3 vPos = GetMidPositionByRate( 1.0f );

  0005b	f3 0f 10 05 00
	00 00 00	 movss	 xmm0, DWORD PTR __real@3f800000
  00063	51		 push	 ecx
  00064	8d 85 ec fe ff
	ff		 lea	 eax, DWORD PTR _vPos$557065[ebp]
  0006a	f3 0f 11 04 24	 movss	 DWORD PTR [esp], xmm0
  0006f	50		 push	 eax
  00070	8b ce		 mov	 ecx, esi
  00072	e8 00 00 00 00	 call	 ?GetMidPositionByRate@ioGameEntity@@QBE?AUD3DXVECTOR3@@M@Z ; ioGameEntity::GetMidPositionByRate

; 251  : 		vPos.y += 40.0f;

  00077	f3 0f 10 85 f0
	fe ff ff	 movss	 xmm0, DWORD PTR _vPos$557065[ebp+4]

; 252  : 
; 253  : 		if( Setting::Check2DInScreen( vPos, iXPos, iYPos ) )

  0007f	8d 85 e8 fe ff
	ff		 lea	 eax, DWORD PTR _iYPos$[ebp]
  00085	50		 push	 eax
  00086	8d 85 e4 fe ff
	ff		 lea	 eax, DWORD PTR _iXPos$[ebp]
  0008c	50		 push	 eax
  0008d	0f 5a c0	 cvtps2pd xmm0, xmm0
  00090	f2 0f 58 05 00
	00 00 00	 addsd	 xmm0, QWORD PTR __real@4044000000000000
  00098	8d 85 ec fe ff
	ff		 lea	 eax, DWORD PTR _vPos$557065[ebp]
  0009e	66 0f 5a c0	 cvtpd2ps xmm0, xmm0
  000a2	50		 push	 eax
  000a3	f3 0f 11 85 f0
	fe ff ff	 movss	 DWORD PTR _vPos$557065[ebp+4], xmm0
  000ab	e8 00 00 00 00	 call	 ?Check2DInScreen@Setting@@SA_NABUD3DXVECTOR3@@AAH1@Z ; Setting::Check2DInScreen
  000b0	83 c4 0c	 add	 esp, 12			; 0000000cH
  000b3	84 c0		 test	 al, al
  000b5	0f 84 e7 05 00
	00		 je	 $LN28@RenderGaug

; 254  : 		{
; 255  : 			g_FontMgr.SetTextStyle( TS_BOLD_OUTLINE_FULL );

  000bb	8b 35 00 00 00
	00		 mov	 esi, DWORD PTR __imp_?GetSingleton@ioFontManager@@SAAAV1@XZ
  000c1	6a 0b		 push	 11			; 0000000bH
  000c3	ff d6		 call	 esi
  000c5	8b c8		 mov	 ecx, eax
  000c7	ff 15 00 00 00
	00		 call	 DWORD PTR __imp_?SetTextStyle@ioFontManager@@QAEXW4TextStyle@@@Z

; 256  : 			g_FontMgr.SetBkColor( 0, 0, 0 );

  000cd	53		 push	 ebx
  000ce	53		 push	 ebx
  000cf	53		 push	 ebx
  000d0	ff d6		 call	 esi
  000d2	8b c8		 mov	 ecx, eax
  000d4	ff 15 00 00 00
	00		 call	 DWORD PTR __imp_?SetBkColor@ioFontManager@@QAEXHHH@Z

; 257  : 
; 258  : 			TeamType eCurTeamType = pOwner->GetTeam();

  000da	8d 85 cc fe ff
	ff		 lea	 eax, DWORD PTR _value$559437[ebp]
  000e0	50		 push	 eax
  000e1	8d 8f 90 00 00
	00		 lea	 ecx, DWORD PTR [edi+144]
  000e7	e8 00 00 00 00	 call	 ?DecryptValueToPool@?$CEncrypt@W4TeamType@@@@QAEXPAW4TeamType@@@Z ; CEncrypt<enum TeamType>::DecryptValueToPool

; 259  : 			TeamType eCurSingleTeamType = pOwner->GetSingleConvertTeam();

  000ec	8b cf		 mov	 ecx, edi
  000ee	e8 00 00 00 00	 call	 ?GetSingleConvertTeam@ioBaseChar@@QAE?AW4TeamType@@XZ ; ioBaseChar::GetSingleConvertTeam
  000f3	89 85 d0 fe ff
	ff		 mov	 DWORD PTR _eCurSingleTeamType$557069[ebp], eax

; 260  : 
; 261  : 			switch( eCurTeamType )

  000f9	8b 85 cc fe ff
	ff		 mov	 eax, DWORD PTR _value$559437[ebp]
  000ff	48		 dec	 eax
  00100	74 19		 je	 SHORT $LN24@RenderGaug
  00102	48		 dec	 eax
  00103	74 09		 je	 SHORT $LN25@RenderGaug

; 268  : 				break;
; 269  : 			default: //
; 270  : 				{
; 271  : 					if( eCurSingleTeamType == TEAM_BLUE )

  00105	83 bd d0 fe ff
	ff 02		 cmp	 DWORD PTR _eCurSingleTeamType$557069[ebp], 2
  0010c	75 0d		 jne	 SHORT $LN24@RenderGaug
$LN25@RenderGaug:

; 272  : 						g_FontMgr.SetTextColor( 0, 150, 255 );

  0010e	68 ff 00 00 00	 push	 255			; 000000ffH
  00113	68 96 00 00 00	 push	 150			; 00000096H
  00118	53		 push	 ebx

; 273  : 					else

  00119	eb 08		 jmp	 SHORT $LN102@RenderGaug
$LN24@RenderGaug:

; 262  : 			{
; 263  : 			case TEAM_BLUE:
; 264  : 				g_FontMgr.SetTextColor( 0, 150, 255 );
; 265  : 				break;
; 266  : 			case TEAM_RED:
; 267  : 				g_FontMgr.SetTextColor( 255, 60, 0 );

  0011b	53		 push	 ebx
  0011c	6a 3c		 push	 60			; 0000003cH
  0011e	68 ff 00 00 00	 push	 255			; 000000ffH
$LN102@RenderGaug:
  00123	ff d6		 call	 esi
  00125	8b c8		 mov	 ecx, eax
  00127	ff 15 00 00 00
	00		 call	 DWORD PTR __imp_?SetTextColor@ioFontManager@@QAEXHHH@Z

; 274  : 						g_FontMgr.SetTextColor( 255, 60, 0 );
; 275  : 				}				
; 276  : 				break;
; 277  : 			}
; 278  : 
; 279  : 			enum { UPPER_Y_OFFSET = -12, GUILD_Y_OFFSET = -11, LADDER_TITLE_Y_OFFSET = -16, };
; 280  : 			if( pStage->GetModeType() == MT_MYROOM && !pStage->IsNetworkMode() )

  0012d	8b 8d c8 fe ff
	ff		 mov	 ecx, DWORD PTR _pStage$[ebp]
  00133	e8 00 00 00 00	 call	 ?GetModeType@ioPlayStage@@QBE?AW4ModeType@@XZ ; ioPlayStage::GetModeType
  00138	83 f8 18	 cmp	 eax, 24			; 00000018H
  0013b	0f 85 81 02 00
	00		 jne	 $LN20@RenderGaug
  00141	8b 8d c8 fe ff
	ff		 mov	 ecx, DWORD PTR _pStage$[ebp]
  00147	e8 00 00 00 00	 call	 ?IsNetworkMode@ioPlayStage@@QAE_NXZ ; ioPlayStage::IsNetworkMode
  0014c	84 c0		 test	 al, al
  0014e	0f 85 6e 02 00
	00		 jne	 $LN20@RenderGaug

; 281  : 			{
; 282  : 				if( pOwner->IsOwnerChar() )

  00154	38 9f 84 13 00
	00		 cmp	 BYTE PTR [edi+4996], bl
  0015a	0f 84 0f 02 00
	00		 je	 $LN100@RenderGaug

; 283  : 				{
; 284  : 					g_FontMgr.SetAlignType( TAT_LEFT );

  00160	53		 push	 ebx
  00161	ff d6		 call	 esi
  00163	8b c8		 mov	 ecx, eax
  00165	ff 15 00 00 00
	00		 call	 DWORD PTR __imp_?SetAlignType@ioFontManager@@QAEXW4TextAlignType@@@Z

; 285  : 
; 286  : 					DWORD dwGuildIndex, dwGuildMark;
; 287  : 					g_UserInfoMgr.GetGuildInfo( g_MyInfo.GetPublicID(), dwGuildIndex, dwGuildMark );

  0016b	e8 00 00 00 00	 call	 ?GetSingleton@ioMyInfo@@SAAAV1@XZ ; ioMyInfo::GetSingleton
  00170	8d 8d d4 fe ff
	ff		 lea	 ecx, DWORD PTR _dwGuildMark$557086[ebp]
  00176	51		 push	 ecx
  00177	8d 8d d8 fe ff
	ff		 lea	 ecx, DWORD PTR _dwGuildIndex$557085[ebp]
  0017d	51		 push	 ecx
  0017e	83 c0 1c	 add	 eax, 28			; 0000001cH
  00181	50		 push	 eax
  00182	e8 00 00 00 00	 call	 ?GetSingleton@ioUserInfoMgr@@SAAAV1@XZ ; ioUserInfoMgr::GetSingleton
  00187	8b c8		 mov	 ecx, eax
  00189	e8 00 00 00 00	 call	 ?GetGuildInfo@ioUserInfoMgr@@QAEXABVioHashString@@AAK1@Z ; ioUserInfoMgr::GetGuildInfo

; 288  : 					int iNameWidth = g_FontMgr.GetTextWidth( g_MyInfo.GetPublicID().c_str(), TS_BOLD_OUTLINE_FULL, FONT_SIZE_12 );

  0018e	e8 00 00 00 00	 call	 ?GetSingleton@ioMyInfo@@SAAAV1@XZ ; ioMyInfo::GetSingleton
  00193	f3 0f 10 05 00
	00 00 00	 movss	 xmm0, DWORD PTR __real@3f19999a
  0019b	53		 push	 ebx
  0019c	51		 push	 ecx
  0019d	f3 0f 11 04 24	 movss	 DWORD PTR [esp], xmm0
  001a2	6a 0b		 push	 11			; 0000000bH
  001a4	8d 48 1c	 lea	 ecx, DWORD PTR [eax+28]
  001a7	ff 15 00 00 00
	00		 call	 DWORD PTR __imp_?c_str@ioHashString@@QBEPBDXZ
  001ad	50		 push	 eax
  001ae	ff d6		 call	 esi
  001b0	8b c8		 mov	 ecx, eax
  001b2	ff 15 00 00 00
	00		 call	 DWORD PTR __imp_?GetTextWidth@ioFontManager@@QAEMPBDW4TextStyle@@MH@Z
  001b8	e8 00 00 00 00	 call	 __ftol2_sse

; 289  : 					int iHalfWidth = ( iNameWidth + 20 + g_GuildMarkMgr.GetGuildSmallMarkSize( dwGuildIndex, dwGuildMark ) + 1 ) / 2;	// 20  

  001bd	ff b5 d4 fe ff
	ff		 push	 DWORD PTR _dwGuildMark$557086[ebp]
  001c3	8b d8		 mov	 ebx, eax
  001c5	ff b5 d8 fe ff
	ff		 push	 DWORD PTR _dwGuildIndex$557085[ebp]
  001cb	e8 00 00 00 00	 call	 ?GetSingleton@ioGuildMarkMgr@@SAAAV1@XZ ; ioGuildMarkMgr::GetSingleton
  001d0	8b c8		 mov	 ecx, eax
  001d2	e8 00 00 00 00	 call	 ?GetGuildSmallMarkSize@ioGuildMarkMgr@@QAEHKK@Z ; ioGuildMarkMgr::GetGuildSmallMarkSize
  001d7	8d 44 18 15	 lea	 eax, DWORD PTR [eax+ebx+21]
  001db	99		 cdq
  001dc	2b c2		 sub	 eax, edx
  001de	d1 f8		 sar	 eax, 1
  001e0	89 85 dc fe ff
	ff		 mov	 DWORD PTR _iHalfWidth$557088[ebp], eax

; 290  : 
; 291  : 					g_LevelMgr.RenderGrade( g_MyInfo.GetPublicID(), iXPos - iHalfWidth, iYPos + UPPER_Y_OFFSET, pOwner->GetLevel(), TEAM_BLUE );

  001e6	8b 87 cc 02 00
	00		 mov	 eax, DWORD PTR [edi+716]
  001ec	89 85 e0 fe ff
	ff		 mov	 DWORD PTR $T559455[ebp], eax
  001f2	e8 00 00 00 00	 call	 ?GetSingleton@ioMyInfo@@SAAAV1@XZ ; ioMyInfo::GetSingleton
  001f7	8b 8d e8 fe ff
	ff		 mov	 ecx, DWORD PTR _iYPos$[ebp]
  001fd	6a ff		 push	 -1
  001ff	6a 00		 push	 0
  00201	6a 02		 push	 2
  00203	ff b5 e0 fe ff
	ff		 push	 DWORD PTR $T559455[ebp]
  00209	83 c1 f4	 add	 ecx, -12		; fffffff4H
  0020c	51		 push	 ecx
  0020d	8b 8d e4 fe ff
	ff		 mov	 ecx, DWORD PTR _iXPos$[ebp]
  00213	2b 8d dc fe ff
	ff		 sub	 ecx, DWORD PTR _iHalfWidth$557088[ebp]
  00219	83 c0 1c	 add	 eax, 28			; 0000001cH
  0021c	51		 push	 ecx
  0021d	50		 push	 eax
  0021e	e8 00 00 00 00	 call	 ?GetSingleton@ioMyLevelMgr@@SAAAV1@XZ ; ioMyLevelMgr::GetSingleton
  00223	8b c8		 mov	 ecx, eax
  00225	e8 00 00 00 00	 call	 ?RenderGrade@ioMyLevelMgr@@QAEXABVioHashString@@HHKW4TeamType@@W4UIRenderType@@K@Z ; ioMyLevelMgr::RenderGrade

; 292  : 					g_FontMgr.PrintText( iXPos - iHalfWidth + 20 - 2, iYPos + UPPER_Y_OFFSET, FONT_SIZE_12, g_MyInfo.GetPublicID().c_str() );

  0022a	e8 00 00 00 00	 call	 ?GetSingleton@ioMyInfo@@SAAAV1@XZ ; ioMyInfo::GetSingleton
  0022f	8d 48 1c	 lea	 ecx, DWORD PTR [eax+28]
  00232	ff 15 00 00 00
	00		 call	 DWORD PTR __imp_?c_str@ioHashString@@QBEPBDXZ
  00238	f3 0f 10 05 00
	00 00 00	 movss	 xmm0, DWORD PTR __real@3f19999a
  00240	50		 push	 eax
  00241	8b 85 e8 fe ff
	ff		 mov	 eax, DWORD PTR _iYPos$[ebp]
  00247	83 ec 0c	 sub	 esp, 12			; 0000000cH
  0024a	f3 0f 11 44 24
	08		 movss	 DWORD PTR [esp+8], xmm0
  00250	83 c0 f4	 add	 eax, -12		; fffffff4H
  00253	0f 57 c0	 xorps	 xmm0, xmm0
  00256	f3 0f 2a c0	 cvtsi2ss xmm0, eax
  0025a	8b 85 e4 fe ff
	ff		 mov	 eax, DWORD PTR _iXPos$[ebp]
  00260	2b 85 dc fe ff
	ff		 sub	 eax, DWORD PTR _iHalfWidth$557088[ebp]
  00266	f3 0f 11 44 24
	04		 movss	 DWORD PTR [esp+4], xmm0
  0026c	83 c0 12	 add	 eax, 18			; 00000012H
  0026f	0f 57 c0	 xorps	 xmm0, xmm0
  00272	f3 0f 2a c0	 cvtsi2ss xmm0, eax
  00276	f3 0f 11 04 24	 movss	 DWORD PTR [esp], xmm0
  0027b	ff d6		 call	 esi
  0027d	50		 push	 eax
  0027e	ff 15 00 00 00
	00		 call	 DWORD PTR __imp_?PrintText@ioFontManager@@QAAXMMMPBDZZ

; 293  : 
; 294  : 					g_GuildMarkMgr.RenderSmallMark( dwGuildIndex, dwGuildMark, ( iXPos - iHalfWidth ) + 20 + iNameWidth + 2, iYPos + GUILD_Y_OFFSET );

  00284	8b 85 e8 fe ff
	ff		 mov	 eax, DWORD PTR _iYPos$[ebp]
  0028a	83 c4 14	 add	 esp, 20			; 00000014H
  0028d	6a 00		 push	 0
  0028f	83 c0 f5	 add	 eax, -11		; fffffff5H
  00292	2b 9d dc fe ff
	ff		 sub	 ebx, DWORD PTR _iHalfWidth$557088[ebp]
  00298	0f 57 c0	 xorps	 xmm0, xmm0
  0029b	f3 0f 2a c0	 cvtsi2ss xmm0, eax
  0029f	8b 85 e4 fe ff
	ff		 mov	 eax, DWORD PTR _iXPos$[ebp]
  002a5	51		 push	 ecx
  002a6	51		 push	 ecx
  002a7	f3 0f 11 44 24
	04		 movss	 DWORD PTR [esp+4], xmm0
  002ad	8d 44 03 16	 lea	 eax, DWORD PTR [ebx+eax+22]
  002b1	0f 57 c0	 xorps	 xmm0, xmm0
  002b4	f3 0f 2a c0	 cvtsi2ss xmm0, eax
  002b8	f3 0f 11 04 24	 movss	 DWORD PTR [esp], xmm0
  002bd	ff b5 d4 fe ff
	ff		 push	 DWORD PTR _dwGuildMark$557086[ebp]
  002c3	ff b5 d8 fe ff
	ff		 push	 DWORD PTR _dwGuildIndex$557085[ebp]
  002c9	e8 00 00 00 00	 call	 ?GetSingleton@ioGuildMarkMgr@@SAAAV1@XZ ; ioGuildMarkMgr::GetSingleton
  002ce	8b c8		 mov	 ecx, eax
  002d0	e8 00 00 00 00	 call	 ?RenderSmallMark@ioGuildMarkMgr@@QAEXKKMMW4UIRenderType@@@Z ; ioGuildMarkMgr::RenderSmallMark

; 295  : 
; 296  : 					//  
; 297  : 					if( g_LadderTeamMgr.IsLadderTeam() && g_LadderTeamMgr.IsHeroMatchMode() && pOwner->GetHeroTitle() != 0 )

  002d5	e8 00 00 00 00	 call	 ?GetSingleton@ioLadderTeamMgr@@SAAAV1@XZ ; ioLadderTeamMgr::GetSingleton
  002da	8b c8		 mov	 ecx, eax
  002dc	e8 00 00 00 00	 call	 ?IsLadderTeam@ioLadderTeamMgr@@QAE_NXZ ; ioLadderTeamMgr::IsLadderTeam
  002e1	84 c0		 test	 al, al
  002e3	0f 84 84 00 00
	00		 je	 $LN99@RenderGaug
  002e9	e8 00 00 00 00	 call	 ?GetSingleton@ioLadderTeamMgr@@SAAAV1@XZ ; ioLadderTeamMgr::GetSingleton
  002ee	80 b8 be 04 00
	00 00		 cmp	 BYTE PTR [eax+1214], 0
  002f5	74 76		 je	 SHORT $LN99@RenderGaug
  002f7	83 bf 24 02 00
	00 00		 cmp	 DWORD PTR [edi+548], 0
  002fe	74 6d		 je	 SHORT $LN99@RenderGaug

; 298  : 					{
; 299  : 						g_FontMgr.SetAlignType( TAT_CENTER );

  00300	6a 01		 push	 1
  00302	ff d6		 call	 esi
  00304	8b c8		 mov	 ecx, eax
  00306	ff 15 00 00 00
	00		 call	 DWORD PTR __imp_?SetAlignType@ioFontManager@@QAEXW4TextAlignType@@@Z

; 300  : 						g_FontMgr.PrintText( iXPos, (iYPos + UPPER_Y_OFFSET)+LADDER_TITLE_Y_OFFSET, FONT_SIZE_12, "[%s]", g_LevelMgr.GetHeroTitleString( pOwner->GetHeroTitle() ).c_str() );

  0030c	ff b7 24 02 00
	00		 push	 DWORD PTR [edi+548]
  00312	e8 00 00 00 00	 call	 ?GetSingleton@ioMyLevelMgr@@SAAAV1@XZ ; ioMyLevelMgr::GetSingleton
  00317	8b c8		 mov	 ecx, eax
  00319	e8 00 00 00 00	 call	 ?GetHeroTitleString@ioMyLevelMgr@@QAEABVioHashString@@K@Z ; ioMyLevelMgr::GetHeroTitleString
  0031e	8b c8		 mov	 ecx, eax
  00320	ff 15 00 00 00
	00		 call	 DWORD PTR __imp_?c_str@ioHashString@@QBEPBDXZ
  00326	f3 0f 10 05 00
	00 00 00	 movss	 xmm0, DWORD PTR __real@3f19999a
  0032e	50		 push	 eax
  0032f	8b 85 e8 fe ff
	ff		 mov	 eax, DWORD PTR _iYPos$[ebp]
  00335	68 00 00 00 00	 push	 OFFSET ??_C@_04LIFAFMCE@?$FL?$CFs?$FN?$AA@
  0033a	83 ec 0c	 sub	 esp, 12			; 0000000cH
  0033d	f3 0f 11 44 24
	08		 movss	 DWORD PTR [esp+8], xmm0
  00343	0f 57 c0	 xorps	 xmm0, xmm0
  00346	83 c0 e4	 add	 eax, -28		; ffffffe4H
  00349	f3 0f 2a c0	 cvtsi2ss xmm0, eax
  0034d	f3 0f 11 44 24
	04		 movss	 DWORD PTR [esp+4], xmm0
  00353	66 0f 6e 85 e4
	fe ff ff	 movd	 xmm0, DWORD PTR _iXPos$[ebp]
  0035b	0f 5b c0	 cvtdq2ps xmm0, xmm0
  0035e	f3 0f 11 04 24	 movss	 DWORD PTR [esp], xmm0
  00363	ff d6		 call	 esi
  00365	8b c8		 mov	 ecx, eax
  00367	ff 15 00 00 00
	00		 call	 DWORD PTR __imp_?PrintText@ioFontManager@@QAEXMMMPBD0@Z
$LN99@RenderGaug:

; 301  : 					}
; 302  : 				}
; 303  : 			}
; 304  : 			else

  0036d	33 db		 xor	 ebx, ebx
$LN100@RenderGaug:

; 339  : 				}
; 340  : 			}
; 341  : 
; 342  : 			enum { LEVEL_X_OFFSET = -1, LEVEL_Y_OFFSET = 16, };
; 343  : 			switch( eCurTeamType )

  0036f	8b b5 cc fe ff
	ff		 mov	 esi, DWORD PTR _value$559437[ebp]
  00375	3b f3		 cmp	 esi, ebx
  00377	0f 8e a4 02 00
	00		 jle	 $LN101@RenderGaug
  0037d	83 fe 02	 cmp	 esi, 2
  00380	0f 8f 9b 02 00
	00		 jg	 $LN101@RenderGaug

; 344  : 			{
; 345  : 			case TEAM_BLUE:
; 346  : 			case TEAM_RED:
; 347  : 				if(Help::IsMonsterDungeonMode(pStage->GetModeType()))

  00386	8b 8d c8 fe ff
	ff		 mov	 ecx, DWORD PTR _pStage$[ebp]
  0038c	e8 00 00 00 00	 call	 ?GetModeType@ioPlayStage@@QBE?AW4ModeType@@XZ ; ioPlayStage::GetModeType
  00391	50		 push	 eax
  00392	e8 00 00 00 00	 call	 ?IsMonsterDungeonMode@Help@@YA_NW4ModeType@@@Z ; Help::IsMonsterDungeonMode
  00397	59		 pop	 ecx
  00398	84 c0		 test	 al, al

; 348  : 				{
; 349  : 					g_LevelMgr.RenderClassLevel( iXPos + LEVEL_X_OFFSET, iYPos + LEVEL_Y_OFFSET, pOwner->GetGrowthInstantLevel()+1, eCurTeamType, pOwner->IsOwnerChar() );

  0039a	8a 87 84 13 00
	00		 mov	 al, BYTE PTR [edi+4996]
  003a0	53		 push	 ebx
  003a1	88 85 e0 fe ff
	ff		 mov	 BYTE PTR $T559523[ebp], al
  003a7	ff b5 e0 fe ff
	ff		 push	 DWORD PTR $T559523[ebp]
  003ad	56		 push	 esi
  003ae	0f 84 8f 02 00
	00		 je	 $LN5@RenderGaug
  003b4	8b cf		 mov	 ecx, edi
  003b6	e8 00 00 00 00	 call	 ?GetGrowthInstantLevel@ioBaseChar@@QAEHXZ ; ioBaseChar::GetGrowthInstantLevel
  003bb	40		 inc	 eax
  003bc	50		 push	 eax

; 350  : 				}
; 351  : 				else

  003bd	e9 88 02 00 00	 jmp	 $LN104@RenderGaug
$LN20@RenderGaug:

; 305  : 			{
; 306  : 				g_FontMgr.SetAlignType( TAT_LEFT );

  003c2	53		 push	 ebx
  003c3	ff d6		 call	 esi
  003c5	8b c8		 mov	 ecx, eax
  003c7	ff 15 00 00 00
	00		 call	 DWORD PTR __imp_?SetAlignType@ioFontManager@@QAEXW4TextAlignType@@@Z

; 307  : 
; 308  : 				char szCharName[MAX_PATH] = "";

  003cd	68 03 01 00 00	 push	 259			; 00000103H
  003d2	8d 85 f9 fe ff
	ff		 lea	 eax, DWORD PTR _szCharName$557092[ebp+1]
  003d8	53		 push	 ebx
  003d9	50		 push	 eax
  003da	88 9d f8 fe ff
	ff		 mov	 BYTE PTR _szCharName$557092[ebp], bl
  003e0	e8 00 00 00 00	 call	 _memset
  003e5	83 c4 0c	 add	 esp, 12			; 0000000cH

; 309  : 				sprintf( szCharName, "%s", pOwner->GetCharName().c_str() );

  003e8	8d 8f d4 02 00
	00		 lea	 ecx, DWORD PTR [edi+724]
  003ee	ff 15 00 00 00
	00		 call	 DWORD PTR __imp_?c_str@ioHashString@@QBEPBDXZ
  003f4	50		 push	 eax
  003f5	8d 85 f8 fe ff
	ff		 lea	 eax, DWORD PTR _szCharName$557092[ebp]
  003fb	68 00 00 00 00	 push	 OFFSET ??_C@_02DKCKIIND@?$CFs?$AA@
  00400	50		 push	 eax
  00401	ff 15 00 00 00
	00		 call	 DWORD PTR __imp__sprintf
  00407	83 c4 0c	 add	 esp, 12			; 0000000cH

; 310  : 				DWORD dwGuildIndex, dwGuildMark;
; 311  : 				g_UserInfoMgr.GetGuildInfo( pOwner->GetCharName(), dwGuildIndex, dwGuildMark );

  0040a	8d 85 dc fe ff
	ff		 lea	 eax, DWORD PTR _dwGuildMark$557095[ebp]
  00410	50		 push	 eax
  00411	8d 85 e0 fe ff
	ff		 lea	 eax, DWORD PTR _dwGuildIndex$557094[ebp]
  00417	50		 push	 eax
  00418	8d 87 d4 02 00
	00		 lea	 eax, DWORD PTR [edi+724]
  0041e	50		 push	 eax
  0041f	e8 00 00 00 00	 call	 ?GetSingleton@ioUserInfoMgr@@SAAAV1@XZ ; ioUserInfoMgr::GetSingleton
  00424	8b c8		 mov	 ecx, eax
  00426	e8 00 00 00 00	 call	 ?GetGuildInfo@ioUserInfoMgr@@QAEXABVioHashString@@AAK1@Z ; ioUserInfoMgr::GetGuildInfo

; 312  : 				int iNameWidth = g_FontMgr.GetTextWidth( szCharName, TS_BOLD_OUTLINE_FULL, FONT_SIZE_12 );

  0042b	f3 0f 10 05 00
	00 00 00	 movss	 xmm0, DWORD PTR __real@3f19999a
  00433	53		 push	 ebx
  00434	51		 push	 ecx
  00435	f3 0f 11 04 24	 movss	 DWORD PTR [esp], xmm0
  0043a	8d 85 f8 fe ff
	ff		 lea	 eax, DWORD PTR _szCharName$557092[ebp]
  00440	6a 0b		 push	 11			; 0000000bH
  00442	50		 push	 eax
  00443	ff d6		 call	 esi
  00445	8b c8		 mov	 ecx, eax
  00447	ff 15 00 00 00
	00		 call	 DWORD PTR __imp_?GetTextWidth@ioFontManager@@QAEMPBDW4TextStyle@@MH@Z
  0044d	e8 00 00 00 00	 call	 __ftol2_sse

; 313  : 				int iHalfWidth = ( iNameWidth + 20+ g_GuildMarkMgr.GetGuildSmallMarkSize( dwGuildIndex, dwGuildMark ) + 1 ) / 2;	// 20  

  00452	ff b5 dc fe ff
	ff		 push	 DWORD PTR _dwGuildMark$557095[ebp]
  00458	89 85 d8 fe ff
	ff		 mov	 DWORD PTR _iNameWidth$557096[ebp], eax
  0045e	ff b5 e0 fe ff
	ff		 push	 DWORD PTR _dwGuildIndex$557094[ebp]
  00464	e8 00 00 00 00	 call	 ?GetSingleton@ioGuildMarkMgr@@SAAAV1@XZ ; ioGuildMarkMgr::GetSingleton
  00469	8b c8		 mov	 ecx, eax
  0046b	e8 00 00 00 00	 call	 ?GetGuildSmallMarkSize@ioGuildMarkMgr@@QAEHKK@Z ; ioGuildMarkMgr::GetGuildSmallMarkSize
  00470	8b 8d d8 fe ff
	ff		 mov	 ecx, DWORD PTR _iNameWidth$557096[ebp]
  00476	8d 44 08 15	 lea	 eax, DWORD PTR [eax+ecx+21]

; 314  : 
; 315  : 				switch( eCurTeamType )

  0047a	8b 8d cc fe ff
	ff		 mov	 ecx, DWORD PTR _value$559437[ebp]
  00480	99		 cdq
  00481	2b c2		 sub	 eax, edx
  00483	d1 f8		 sar	 eax, 1
  00485	49		 dec	 ecx

; 325  : 						g_LevelMgr.RenderGrade( pOwner->GetCharName(), iXPos - iHalfWidth, iYPos + UPPER_Y_OFFSET, pOwner->GetLevel(), TEAM_BLUE );

  00486	6a ff		 push	 -1
  00488	89 85 d4 fe ff
	ff		 mov	 DWORD PTR _iHalfWidth$557097[ebp], eax
  0048e	53		 push	 ebx
  0048f	74 16		 je	 SHORT $LN13@RenderGaug
  00491	49		 dec	 ecx
  00492	8b 8f cc 02 00
	00		 mov	 ecx, DWORD PTR [edi+716]
  00498	74 09		 je	 SHORT $LN14@RenderGaug

; 322  : 					break;
; 323  : 				default: //
; 324  : 					if( eCurSingleTeamType == TEAM_BLUE )

  0049a	83 bd d0 fe ff
	ff 02		 cmp	 DWORD PTR _eCurSingleTeamType$557069[ebp], 2
  004a1	75 0a		 jne	 SHORT $LN11@RenderGaug
$LN14@RenderGaug:

; 325  : 						g_LevelMgr.RenderGrade( pOwner->GetCharName(), iXPos - iHalfWidth, iYPos + UPPER_Y_OFFSET, pOwner->GetLevel(), TEAM_BLUE );

  004a3	6a 02		 push	 2

; 326  : 					else

  004a5	eb 08		 jmp	 SHORT $LN103@RenderGaug
$LN13@RenderGaug:

; 316  : 				{
; 317  : 				case TEAM_BLUE:
; 318  : 					g_LevelMgr.RenderGrade( pOwner->GetCharName(), iXPos - iHalfWidth, iYPos + UPPER_Y_OFFSET, pOwner->GetLevel(), TEAM_BLUE );
; 319  : 					break;
; 320  : 				case TEAM_RED:
; 321  : 					g_LevelMgr.RenderGrade( pOwner->GetCharName(), iXPos - iHalfWidth, iYPos + UPPER_Y_OFFSET, pOwner->GetLevel(), TEAM_RED );

  004a7	8b 8f cc 02 00
	00		 mov	 ecx, DWORD PTR [edi+716]
$LN11@RenderGaug:
  004ad	6a 01		 push	 1
$LN103@RenderGaug:
  004af	51		 push	 ecx
  004b0	8b 8d e8 fe ff
	ff		 mov	 ecx, DWORD PTR _iYPos$[ebp]
  004b6	83 c1 f4	 add	 ecx, -12		; fffffff4H
  004b9	51		 push	 ecx
  004ba	8b 8d e4 fe ff
	ff		 mov	 ecx, DWORD PTR _iXPos$[ebp]
  004c0	2b c8		 sub	 ecx, eax
  004c2	51		 push	 ecx
  004c3	8d 87 d4 02 00
	00		 lea	 eax, DWORD PTR [edi+724]
  004c9	50		 push	 eax
  004ca	e8 00 00 00 00	 call	 ?GetSingleton@ioMyLevelMgr@@SAAAV1@XZ ; ioMyLevelMgr::GetSingleton
  004cf	8b c8		 mov	 ecx, eax
  004d1	e8 00 00 00 00	 call	 ?RenderGrade@ioMyLevelMgr@@QAEXABVioHashString@@HHKW4TeamType@@W4UIRenderType@@K@Z ; ioMyLevelMgr::RenderGrade

; 327  : 						g_LevelMgr.RenderGrade( pOwner->GetCharName(), iXPos - iHalfWidth, iYPos + UPPER_Y_OFFSET, pOwner->GetLevel(), TEAM_RED );
; 328  : 					break;
; 329  : 				}
; 330  : 
; 331  : 				g_FontMgr.PrintText( iXPos - iHalfWidth + 20 - 2, iYPos + UPPER_Y_OFFSET, FONT_SIZE_12, szCharName );

  004d6	f3 0f 10 05 00
	00 00 00	 movss	 xmm0, DWORD PTR __real@3f19999a
  004de	8d 85 f8 fe ff
	ff		 lea	 eax, DWORD PTR _szCharName$557092[ebp]
  004e4	50		 push	 eax
  004e5	8b 85 e8 fe ff
	ff		 mov	 eax, DWORD PTR _iYPos$[ebp]
  004eb	83 ec 0c	 sub	 esp, 12			; 0000000cH
  004ee	f3 0f 11 44 24
	08		 movss	 DWORD PTR [esp+8], xmm0
  004f4	83 c0 f4	 add	 eax, -12		; fffffff4H
  004f7	0f 57 c0	 xorps	 xmm0, xmm0
  004fa	f3 0f 2a c0	 cvtsi2ss xmm0, eax
  004fe	8b 85 e4 fe ff
	ff		 mov	 eax, DWORD PTR _iXPos$[ebp]
  00504	2b 85 d4 fe ff
	ff		 sub	 eax, DWORD PTR _iHalfWidth$557097[ebp]
  0050a	f3 0f 11 44 24
	04		 movss	 DWORD PTR [esp+4], xmm0
  00510	83 c0 12	 add	 eax, 18			; 00000012H
  00513	0f 57 c0	 xorps	 xmm0, xmm0
  00516	f3 0f 2a c0	 cvtsi2ss xmm0, eax
  0051a	f3 0f 11 04 24	 movss	 DWORD PTR [esp], xmm0
  0051f	ff d6		 call	 esi
  00521	50		 push	 eax
  00522	ff 15 00 00 00
	00		 call	 DWORD PTR __imp_?PrintText@ioFontManager@@QAAXMMMPBDZZ

; 332  : 				g_GuildMarkMgr.RenderSmallMark( dwGuildIndex, dwGuildMark, ( iXPos - iHalfWidth ) + 20 + iNameWidth + 2, iYPos + GUILD_Y_OFFSET );

  00528	8b 85 e8 fe ff
	ff		 mov	 eax, DWORD PTR _iYPos$[ebp]
  0052e	83 c4 14	 add	 esp, 20			; 00000014H
  00531	83 c0 f5	 add	 eax, -11		; fffffff5H
  00534	53		 push	 ebx
  00535	0f 57 c0	 xorps	 xmm0, xmm0
  00538	f3 0f 2a c0	 cvtsi2ss xmm0, eax
  0053c	8b 85 d8 fe ff
	ff		 mov	 eax, DWORD PTR _iNameWidth$557096[ebp]
  00542	2b 85 d4 fe ff
	ff		 sub	 eax, DWORD PTR _iHalfWidth$557097[ebp]
  00548	51		 push	 ecx
  00549	51		 push	 ecx
  0054a	8b 8d e4 fe ff
	ff		 mov	 ecx, DWORD PTR _iXPos$[ebp]
  00550	f3 0f 11 44 24
	04		 movss	 DWORD PTR [esp+4], xmm0
  00556	8d 44 08 16	 lea	 eax, DWORD PTR [eax+ecx+22]
  0055a	0f 57 c0	 xorps	 xmm0, xmm0
  0055d	f3 0f 2a c0	 cvtsi2ss xmm0, eax
  00561	f3 0f 11 04 24	 movss	 DWORD PTR [esp], xmm0
  00566	ff b5 dc fe ff
	ff		 push	 DWORD PTR _dwGuildMark$557095[ebp]
  0056c	ff b5 e0 fe ff
	ff		 push	 DWORD PTR _dwGuildIndex$557094[ebp]
  00572	e8 00 00 00 00	 call	 ?GetSingleton@ioGuildMarkMgr@@SAAAV1@XZ ; ioGuildMarkMgr::GetSingleton
  00577	8b c8		 mov	 ecx, eax
  00579	e8 00 00 00 00	 call	 ?RenderSmallMark@ioGuildMarkMgr@@QAEXKKMMW4UIRenderType@@@Z ; ioGuildMarkMgr::RenderSmallMark

; 333  : 
; 334  : 				//  
; 335  : 				if( g_LadderTeamMgr.IsLadderTeam() && g_LadderTeamMgr.IsHeroMatchMode() && pOwner->GetHeroTitle() != 0 )

  0057e	e8 00 00 00 00	 call	 ?GetSingleton@ioLadderTeamMgr@@SAAAV1@XZ ; ioLadderTeamMgr::GetSingleton
  00583	8b c8		 mov	 ecx, eax
  00585	e8 00 00 00 00	 call	 ?IsLadderTeam@ioLadderTeamMgr@@QAE_NXZ ; ioLadderTeamMgr::IsLadderTeam
  0058a	84 c0		 test	 al, al
  0058c	0f 84 dd fd ff
	ff		 je	 $LN100@RenderGaug
  00592	e8 00 00 00 00	 call	 ?GetSingleton@ioLadderTeamMgr@@SAAAV1@XZ ; ioLadderTeamMgr::GetSingleton
  00597	38 98 be 04 00
	00		 cmp	 BYTE PTR [eax+1214], bl
  0059d	0f 84 cc fd ff
	ff		 je	 $LN100@RenderGaug
  005a3	39 9f 24 02 00
	00		 cmp	 DWORD PTR [edi+548], ebx
  005a9	0f 84 c0 fd ff
	ff		 je	 $LN100@RenderGaug

; 336  : 				{
; 337  : 					g_FontMgr.SetAlignType( TAT_CENTER );

  005af	6a 01		 push	 1
  005b1	ff d6		 call	 esi
  005b3	8b c8		 mov	 ecx, eax
  005b5	ff 15 00 00 00
	00		 call	 DWORD PTR __imp_?SetAlignType@ioFontManager@@QAEXW4TextAlignType@@@Z

; 338  : 					g_FontMgr.PrintText( iXPos, (iYPos + UPPER_Y_OFFSET)+LADDER_TITLE_Y_OFFSET, FONT_SIZE_12, "[%s]", g_LevelMgr.GetHeroTitleString( pOwner->GetHeroTitle() ).c_str() );

  005bb	ff b7 24 02 00
	00		 push	 DWORD PTR [edi+548]
  005c1	e8 00 00 00 00	 call	 ?GetSingleton@ioMyLevelMgr@@SAAAV1@XZ ; ioMyLevelMgr::GetSingleton
  005c6	8b c8		 mov	 ecx, eax
  005c8	e8 00 00 00 00	 call	 ?GetHeroTitleString@ioMyLevelMgr@@QAEABVioHashString@@K@Z ; ioMyLevelMgr::GetHeroTitleString
  005cd	8b c8		 mov	 ecx, eax
  005cf	ff 15 00 00 00
	00		 call	 DWORD PTR __imp_?c_str@ioHashString@@QBEPBDXZ
  005d5	f3 0f 10 05 00
	00 00 00	 movss	 xmm0, DWORD PTR __real@3f19999a
  005dd	50		 push	 eax
  005de	8b 85 e8 fe ff
	ff		 mov	 eax, DWORD PTR _iYPos$[ebp]
  005e4	68 00 00 00 00	 push	 OFFSET ??_C@_04LIFAFMCE@?$FL?$CFs?$FN?$AA@
  005e9	83 ec 0c	 sub	 esp, 12			; 0000000cH
  005ec	f3 0f 11 44 24
	08		 movss	 DWORD PTR [esp+8], xmm0
  005f2	0f 57 c0	 xorps	 xmm0, xmm0
  005f5	83 c0 e4	 add	 eax, -28		; ffffffe4H
  005f8	f3 0f 2a c0	 cvtsi2ss xmm0, eax
  005fc	f3 0f 11 44 24
	04		 movss	 DWORD PTR [esp+4], xmm0
  00602	66 0f 6e 85 e4
	fe ff ff	 movd	 xmm0, DWORD PTR _iXPos$[ebp]
  0060a	0f 5b c0	 cvtdq2ps xmm0, xmm0
  0060d	f3 0f 11 04 24	 movss	 DWORD PTR [esp], xmm0
  00612	ff d6		 call	 esi
  00614	8b c8		 mov	 ecx, eax
  00616	ff 15 00 00 00
	00		 call	 DWORD PTR __imp_?PrintText@ioFontManager@@QAEXMMMPBD0@Z
  0061c	e9 4e fd ff ff	 jmp	 $LN100@RenderGaug
$LN101@RenderGaug:

; 352  : 				{
; 353  : 					g_LevelMgr.RenderClassLevel( iXPos + LEVEL_X_OFFSET, iYPos + LEVEL_Y_OFFSET, pOwner->GetClassLevel(), eCurTeamType, pOwner->IsOwnerChar() );
; 354  : 				}
; 355  : 				break;
; 356  : 			default: //
; 357  : 				if( eCurSingleTeamType == TEAM_BLUE )

  00621	83 bd d0 fe ff
	ff 02		 cmp	 DWORD PTR _eCurSingleTeamType$557069[ebp], 2

; 358  : 					g_LevelMgr.RenderClassLevel( iXPos + LEVEL_X_OFFSET, iYPos + LEVEL_Y_OFFSET, pOwner->GetClassLevel(), TEAM_BLUE, pOwner->IsOwnerChar() );

  00628	8a 87 84 13 00
	00		 mov	 al, BYTE PTR [edi+4996]
  0062e	53		 push	 ebx
  0062f	88 85 e0 fe ff
	ff		 mov	 BYTE PTR $T559535[ebp], al
  00635	ff b5 e0 fe ff
	ff		 push	 DWORD PTR $T559535[ebp]
  0063b	75 04		 jne	 SHORT $LN2@RenderGaug
  0063d	6a 02		 push	 2

; 359  : 				else

  0063f	eb 02		 jmp	 SHORT $LN5@RenderGaug
$LN2@RenderGaug:

; 360  : 					g_LevelMgr.RenderClassLevel( iXPos + LEVEL_X_OFFSET, iYPos + LEVEL_Y_OFFSET, pOwner->GetClassLevel(), TEAM_RED, pOwner->IsOwnerChar() );

  00641	6a 01		 push	 1
$LN5@RenderGaug:
  00643	8b bf d0 02 00
	00		 mov	 edi, DWORD PTR [edi+720]
  00649	57		 push	 edi
$LN104@RenderGaug:
  0064a	8b 85 e8 fe ff
	ff		 mov	 eax, DWORD PTR _iYPos$[ebp]
  00650	83 c0 10	 add	 eax, 16			; 00000010H
  00653	50		 push	 eax
  00654	8b 85 e4 fe ff
	ff		 mov	 eax, DWORD PTR _iXPos$[ebp]
  0065a	48		 dec	 eax
  0065b	50		 push	 eax
  0065c	e8 00 00 00 00	 call	 ?GetSingleton@ioMyLevelMgr@@SAAAV1@XZ ; ioMyLevelMgr::GetSingleton
  00661	8b c8		 mov	 ecx, eax
  00663	e8 00 00 00 00	 call	 ?RenderClassLevel@ioMyLevelMgr@@QAEXHHHW4TeamType@@_NW4UIRenderType@@@Z ; ioMyLevelMgr::RenderClassLevel

; 361  : 				break;
; 362  : 			}
; 363  : 
; 364  : 			enum { GAUGE_Y_OFFSET = 6, };
; 365  : 			m_pGauge->RenderGauge( iXPos, iYPos + GAUGE_Y_OFFSET, false );

  00668	8b 85 e8 fe ff
	ff		 mov	 eax, DWORD PTR _iYPos$[ebp]
  0066e	53		 push	 ebx
  0066f	51		 push	 ecx
  00670	83 c0 06	 add	 eax, 6
  00673	0f 57 c0	 xorps	 xmm0, xmm0
  00676	f3 0f 2a c0	 cvtsi2ss xmm0, eax
  0067a	8b 85 c4 fe ff
	ff		 mov	 eax, DWORD PTR _this$GSCopy$[ebp]
  00680	51		 push	 ecx
  00681	8b 88 70 02 00
	00		 mov	 ecx, DWORD PTR [eax+624]
  00687	f3 0f 11 44 24
	04		 movss	 DWORD PTR [esp+4], xmm0
  0068d	66 0f 6e 85 e4
	fe ff ff	 movd	 xmm0, DWORD PTR _iXPos$[ebp]
  00695	0f 5b c0	 cvtdq2ps xmm0, xmm0
  00698	f3 0f 11 04 24	 movss	 DWORD PTR [esp], xmm0
  0069d	e8 00 00 00 00	 call	 ?RenderGauge@ioGaugeHelper@@QAEXMM_N@Z ; ioGaugeHelper::RenderGauge
$LN28@RenderGaug:

; 366  : 		}
; 367  : 	}
; 368  : }

  006a2	8b 4d fc	 mov	 ecx, DWORD PTR __$ArrayPad$[ebp]
  006a5	5f		 pop	 edi
  006a6	5e		 pop	 esi
  006a7	33 cd		 xor	 ecx, ebp
  006a9	5b		 pop	 ebx
  006aa	e8 00 00 00 00	 call	 @__security_check_cookie@4
  006af	c9		 leave
  006b0	c3		 ret	 0
?RenderGaugeOwnerInfo@ioCopyOwnerDummyChar5@@QAEXXZ ENDP ; ioCopyOwnerDummyChar5::RenderGaugeOwnerInfo
_TEXT	ENDS
PUBLIC	__$ArrayPad$
EXTRN	?HasCameraFixedStyle@ioPlayStage@@QAE_NK@Z:PROC	; ioPlayStage::HasCameraFixedStyle
EXTRN	?GetSingleton@ioSP2GUIManager@@SAAAV1@XZ:PROC	; ioSP2GUIManager::GetSingleton
; Function compile flags: /Ogsp
;	COMDAT ?RenderGauge@ioCopyOwnerDummyChar5@@UAEXXZ
_TEXT	SEGMENT
_iXPos$ = -28						; size = 4
_iYPos$ = -24						; size = 4
_value$559567 = -17					; size = 1
_vPos$ = -16						; size = 12
__$ArrayPad$ = -4					; size = 4
?RenderGauge@ioCopyOwnerDummyChar5@@UAEXXZ PROC		; ioCopyOwnerDummyChar5::RenderGauge, COMDAT
; _this$ = ecx

; 112  : {

  00000	55		 push	 ebp
  00001	8b ec		 mov	 ebp, esp
  00003	83 ec 1c	 sub	 esp, 28			; 0000001cH
  00006	a1 00 00 00 00	 mov	 eax, DWORD PTR ___security_cookie
  0000b	33 c5		 xor	 eax, ebp
  0000d	89 45 fc	 mov	 DWORD PTR __$ArrayPad$[ebp], eax
  00010	53		 push	 ebx
  00011	56		 push	 esi
  00012	8b f1		 mov	 esi, ecx

; 113  : 	if( !m_pGauge || !m_bGaugeVisible || m_bDisableHPVisible ) return;

  00014	33 db		 xor	 ebx, ebx
  00016	39 9e 70 02 00
	00		 cmp	 DWORD PTR [esi+624], ebx
  0001c	0f 84 c1 00 00
	00		 je	 $LN6@RenderGaug@2
  00022	38 9e c4 01 00
	00		 cmp	 BYTE PTR [esi+452], bl
  00028	0f 84 b5 00 00
	00		 je	 $LN6@RenderGaug@2
  0002e	8d 45 ef	 lea	 eax, DWORD PTR _value$559567[ebp]
  00031	50		 push	 eax
  00032	8d 8e 38 02 00
	00		 lea	 ecx, DWORD PTR [esi+568]
  00038	e8 00 00 00 00	 call	 ?DecryptValueToPool@?$CEncrypt@_N@@QAEXPA_N@Z ; CEncrypt<bool>::DecryptValueToPool
  0003d	38 5d ef	 cmp	 BYTE PTR _value$559567[ebp], bl
  00040	0f 85 9d 00 00
	00		 jne	 $LN6@RenderGaug@2

; 114  : 
; 115  : 	bool bCheckMode = g_GUIMgr.IsNoneUIMode();

  00046	57		 push	 edi
  00047	e8 00 00 00 00	 call	 ?GetSingleton@ioSP2GUIManager@@SAAAV1@XZ ; ioSP2GUIManager::GetSingleton

; 116  : 	ioPlayStage *pStage = m_pModeParent->GetCreator();

  0004c	8b 8e 8c 00 00
	00		 mov	 ecx, DWORD PTR [esi+140]
  00052	8b 79 34	 mov	 edi, DWORD PTR [ecx+52]
  00055	8a 80 e1 04 00
	00		 mov	 al, BYTE PTR [eax+1249]

; 117  : 	if( pStage && !bCheckMode )

  0005b	3b fb		 cmp	 edi, ebx
  0005d	74 20		 je	 SHORT $LN4@RenderGaug@2
  0005f	3a c3		 cmp	 al, bl
  00061	75 20		 jne	 SHORT $LN18@RenderGaug@2

; 118  : 	{
; 119  : 		if( pStage->HasCameraFixedStyle(CAMERA_STYLE_MOVIE) || pStage->HasCameraFixedStyle(CAMERA_STYLE_VIEW) )

  00063	6a 01		 push	 1
  00065	8b cf		 mov	 ecx, edi
  00067	e8 00 00 00 00	 call	 ?HasCameraFixedStyle@ioPlayStage@@QAE_NK@Z ; ioPlayStage::HasCameraFixedStyle
  0006c	84 c0		 test	 al, al
  0006e	75 0d		 jne	 SHORT $LN3@RenderGaug@2
  00070	6a 02		 push	 2
  00072	8b cf		 mov	 ecx, edi
  00074	e8 00 00 00 00	 call	 ?HasCameraFixedStyle@ioPlayStage@@QAE_NK@Z ; ioPlayStage::HasCameraFixedStyle
  00079	84 c0		 test	 al, al
  0007b	74 0e		 je	 SHORT $LN2@RenderGaug@2
$LN3@RenderGaug@2:

; 120  : 			bCheckMode = true;

  0007d	b0 01		 mov	 al, 1
$LN4@RenderGaug@2:

; 121  : 	}
; 122  : 
; 123  : 	if( bCheckMode && !Setting::NoUIModeHPShow() ) return;

  0007f	3a c3		 cmp	 al, bl
  00081	74 08		 je	 SHORT $LN2@RenderGaug@2
$LN18@RenderGaug@2:
  00083	38 1d 6b 00 00
	00		 cmp	 BYTE PTR ?m_Option@Setting@@1USettingOption@@A+107, bl
  00089	74 57		 je	 SHORT $LN19@RenderGaug@2
$LN2@RenderGaug@2:

; 124  : 
; 125  : 	D3DXVECTOR3 vPos = GetMidPositionByRate( 1.0f );

  0008b	f3 0f 10 05 00
	00 00 00	 movss	 xmm0, DWORD PTR __real@3f800000
  00093	51		 push	 ecx
  00094	8d 45 f0	 lea	 eax, DWORD PTR _vPos$[ebp]
  00097	f3 0f 11 04 24	 movss	 DWORD PTR [esp], xmm0
  0009c	50		 push	 eax
  0009d	8b ce		 mov	 ecx, esi
  0009f	e8 00 00 00 00	 call	 ?GetMidPositionByRate@ioGameEntity@@QBE?AUD3DXVECTOR3@@M@Z ; ioGameEntity::GetMidPositionByRate

; 126  : 	vPos.y += 40.0f;

  000a4	f3 0f 10 45 f4	 movss	 xmm0, DWORD PTR _vPos$[ebp+4]

; 127  : 
; 128  : 	int iXPos = 0, iYPos = 0;
; 129  : 	if( Setting::Check2DInScreen( vPos, iXPos, iYPos ) )

  000a9	8d 45 e8	 lea	 eax, DWORD PTR _iYPos$[ebp]
  000ac	50		 push	 eax
  000ad	8d 45 e4	 lea	 eax, DWORD PTR _iXPos$[ebp]
  000b0	50		 push	 eax
  000b1	0f 5a c0	 cvtps2pd xmm0, xmm0
  000b4	f2 0f 58 05 00
	00 00 00	 addsd	 xmm0, QWORD PTR __real@4044000000000000
  000bc	8d 45 f0	 lea	 eax, DWORD PTR _vPos$[ebp]
  000bf	66 0f 5a c0	 cvtpd2ps xmm0, xmm0
  000c3	50		 push	 eax
  000c4	f3 0f 11 45 f4	 movss	 DWORD PTR _vPos$[ebp+4], xmm0
  000c9	89 5d e4	 mov	 DWORD PTR _iXPos$[ebp], ebx
  000cc	89 5d e8	 mov	 DWORD PTR _iYPos$[ebp], ebx
  000cf	e8 00 00 00 00	 call	 ?Check2DInScreen@Setting@@SA_NABUD3DXVECTOR3@@AAH1@Z ; Setting::Check2DInScreen
  000d4	83 c4 0c	 add	 esp, 12			; 0000000cH
  000d7	84 c0		 test	 al, al
  000d9	74 07		 je	 SHORT $LN19@RenderGaug@2

; 130  : 	{
; 131  : 		RenderGaugeOwnerInfo();

  000db	8b ce		 mov	 ecx, esi
  000dd	e8 00 00 00 00	 call	 ?RenderGaugeOwnerInfo@ioCopyOwnerDummyChar5@@QAEXXZ ; ioCopyOwnerDummyChar5::RenderGaugeOwnerInfo
$LN19@RenderGaug@2:
  000e2	5f		 pop	 edi
$LN6@RenderGaug@2:

; 132  : 	}
; 133  : }

  000e3	8b 4d fc	 mov	 ecx, DWORD PTR __$ArrayPad$[ebp]
  000e6	5e		 pop	 esi
  000e7	33 cd		 xor	 ecx, ebp
  000e9	5b		 pop	 ebx
  000ea	e8 00 00 00 00	 call	 @__security_check_cookie@4
  000ef	c9		 leave
  000f0	c3		 ret	 0
?RenderGauge@ioCopyOwnerDummyChar5@@UAEXXZ ENDP		; ioCopyOwnerDummyChar5::RenderGauge
_TEXT	ENDS
END
