; Listing generated by Microsoft (R) Optimizing Compiler Version 16.00.30319.01 

	TITLE	D:\Lost Saga For Developer\Youtube\Tutorial\Source\src\LSClient\ioComboJumpAttackSkill.cpp
	.686P
	.XMM
	include listing.inc
	.model	flat

INCLUDELIB MSVCRT
INCLUDELIB OLDNAMES

PUBLIC	?_EEM_DS@?$deque@UD3DXVECTOR3@@V?$allocator@UD3DXVECTOR3@@@std@@@std@@2HB ; std::deque<D3DXVECTOR3,std::allocator<D3DXVECTOR3> >::_EEM_DS
;	COMDAT ?_EEM_DS@?$deque@UD3DXVECTOR3@@V?$allocator@UD3DXVECTOR3@@@std@@@std@@2HB
CONST	SEGMENT
?_EEM_DS@?$deque@UD3DXVECTOR3@@V?$allocator@UD3DXVECTOR3@@@std@@@std@@2HB DD 01H ; std::deque<D3DXVECTOR3,std::allocator<D3DXVECTOR3> >::_EEM_DS
CONST	ENDS
PUBLIC	?return1@@YAIXZ					; return1
; Function compile flags: /Ogsp
; File d:\lost saga for developer\youtube\tutorial\source\src\lsclient\stdafx.h
;	COMDAT ?return1@@YAIXZ
_TEXT	SEGMENT
?return1@@YAIXZ PROC					; return1, COMDAT

; 17   : 	__forceinline unsigned int return1() { __asm mov eax, 1 };

  00000	b8 01 00 00 00	 mov	 eax, 1
  00005	c3		 ret	 0
?return1@@YAIXZ ENDP					; return1
_TEXT	ENDS
PUBLIC	?return10@@YAIXZ				; return10
; Function compile flags: /Ogsp
;	COMDAT ?return10@@YAIXZ
_TEXT	SEGMENT
?return10@@YAIXZ PROC					; return10, COMDAT

; 21   : 	__forceinline unsigned int return10() { __asm mov eax, 10 };

  00000	b8 0a 00 00 00	 mov	 eax, 10			; 0000000aH
  00005	c3		 ret	 0
?return10@@YAIXZ ENDP					; return10
_TEXT	ENDS
PUBLIC	?return100@@YAIXZ				; return100
; Function compile flags: /Ogsp
;	COMDAT ?return100@@YAIXZ
_TEXT	SEGMENT
?return100@@YAIXZ PROC					; return100, COMDAT

; 25   : 	__forceinline unsigned int return100() { __asm mov eax, 100 };

  00000	b8 64 00 00 00	 mov	 eax, 100		; 00000064H
  00005	c3		 ret	 0
?return100@@YAIXZ ENDP					; return100
_TEXT	ENDS
PUBLIC	?GetCharName@ioBaseChar@@QBEABVioHashString@@XZ	; ioBaseChar::GetCharName
; Function compile flags: /Ogsp
; File d:\lost saga for developer\youtube\tutorial\source\src\lsclient\iobasechar.h
;	COMDAT ?GetCharName@ioBaseChar@@QBEABVioHashString@@XZ
_TEXT	SEGMENT
?GetCharName@ioBaseChar@@QBEABVioHashString@@XZ PROC	; ioBaseChar::GetCharName, COMDAT
; _this$ = ecx

; 2594 : 	inline const ioHashString& GetCharName() const { return m_Name; }

  00000	8d 81 d4 02 00
	00		 lea	 eax, DWORD PTR [ecx+724]
  00006	c3		 ret	 0
?GetCharName@ioBaseChar@@QBEABVioHashString@@XZ ENDP	; ioBaseChar::GetCharName
_TEXT	ENDS
PUBLIC	?GetTargetRot@ioBaseChar@@QBEABUD3DXQUATERNION@@XZ ; ioBaseChar::GetTargetRot
; Function compile flags: /Ogsp
;	COMDAT ?GetTargetRot@ioBaseChar@@QBEABUD3DXQUATERNION@@XZ
_TEXT	SEGMENT
?GetTargetRot@ioBaseChar@@QBEABUD3DXQUATERNION@@XZ PROC	; ioBaseChar::GetTargetRot, COMDAT
; _this$ = ecx

; 2599 : 	inline const D3DXQUATERNION& GetTargetRot() const { return m_qtTargetRot; }

  00000	8d 81 a4 06 00
	00		 lea	 eax, DWORD PTR [ecx+1700]
  00006	c3		 ret	 0
?GetTargetRot@ioBaseChar@@QBEABUD3DXQUATERNION@@XZ ENDP	; ioBaseChar::GetTargetRot
_TEXT	ENDS
PUBLIC	_fabsf
EXTRN	__fltused:DWORD
; Function compile flags: /Ogsp
; File c:\program files (x86)\microsoft visual studio 10.0\vc\include\math.h
;	COMDAT _fabsf
_TEXT	SEGMENT
tv129 = 8						; size = 4
__X$ = 8						; size = 4
_fabsf	PROC						; COMDAT

; 395  :         {return ((float)fabs((double)_X)); }

  00000	55		 push	 ebp
  00001	8b ec		 mov	 ebp, esp
  00003	d9 45 08	 fld	 DWORD PTR __X$[ebp]
  00006	d9 e1		 fabs
  00008	d9 5d 08	 fstp	 DWORD PTR tv129[ebp]
  0000b	d9 45 08	 fld	 DWORD PTR tv129[ebp]
  0000e	5d		 pop	 ebp
  0000f	c3		 ret	 0
_fabsf	ENDP
_TEXT	ENDS
PUBLIC	?SetCurJumpPowerAmt@ioBaseChar@@QAEXM@Z		; ioBaseChar::SetCurJumpPowerAmt
; Function compile flags: /Ogsp
; File d:\lost saga for developer\youtube\tutorial\source\src\lsclient\iobasechar.h
;	COMDAT ?SetCurJumpPowerAmt@ioBaseChar@@QAEXM@Z
_TEXT	SEGMENT
_fAmt$ = 8						; size = 4
?SetCurJumpPowerAmt@ioBaseChar@@QAEXM@Z PROC		; ioBaseChar::SetCurJumpPowerAmt, COMDAT
; _this$ = ecx

; 2628 : 	inline void SetCurJumpPowerAmt( float fAmt ) { m_fCurJumpPowerAmt = fAmt; }

  00000	55		 push	 ebp
  00001	8b ec		 mov	 ebp, esp
  00003	f3 0f 10 45 08	 movss	 xmm0, DWORD PTR _fAmt$[ebp]
  00008	f3 0f 11 81 90
	0e 00 00	 movss	 DWORD PTR [ecx+3728], xmm0
  00010	5d		 pop	 ebp
  00011	c2 04 00	 ret	 4
?SetCurJumpPowerAmt@ioBaseChar@@QAEXM@Z ENDP		; ioBaseChar::SetCurJumpPowerAmt
_TEXT	ENDS
PUBLIC	?abs@@YAMM@Z					; abs
; Function compile flags: /Ogsp
; File c:\program files (x86)\microsoft visual studio 10.0\vc\include\math.h
;	COMDAT ?abs@@YAMM@Z
_TEXT	SEGMENT
tv131 = 8						; size = 4
__X$ = 8						; size = 4
?abs@@YAMM@Z PROC					; abs, COMDAT

; 500  :         {return (fabsf(_X)); }

  00000	55		 push	 ebp
  00001	8b ec		 mov	 ebp, esp
  00003	d9 45 08	 fld	 DWORD PTR __X$[ebp]
  00006	d9 e1		 fabs
  00008	d9 5d 08	 fstp	 DWORD PTR tv131[ebp]
  0000b	d9 45 08	 fld	 DWORD PTR tv131[ebp]
  0000e	5d		 pop	 ebp
  0000f	c3		 ret	 0
?abs@@YAMM@Z ENDP					; abs
_TEXT	ENDS
PUBLIC	?GetCreator@ioBaseChar@@QAEPAVioPlayStage@@XZ	; ioBaseChar::GetCreator
; Function compile flags: /Ogsp
; File d:\lost saga for developer\youtube\tutorial\source\src\lsclient\iobasechar.h
;	COMDAT ?GetCreator@ioBaseChar@@QAEPAVioPlayStage@@XZ
_TEXT	SEGMENT
?GetCreator@ioBaseChar@@QAEPAVioPlayStage@@XZ PROC	; ioBaseChar::GetCreator, COMDAT
; _this$ = ecx

; 4013 : 	inline ioPlayStage* GetCreator() { return m_pCreator; }

  00000	8b 81 44 03 00
	00		 mov	 eax, DWORD PTR [ecx+836]
  00006	c3		 ret	 0
?GetCreator@ioBaseChar@@QAEPAVioPlayStage@@XZ ENDP	; ioBaseChar::GetCreator
_TEXT	ENDS
PUBLIC	?GetType@ioGrowthUpInfo@@QBE?AW4GrowthType@@XZ	; ioGrowthUpInfo::GetType
; Function compile flags: /Ogsp
; File d:\lost saga for developer\youtube\tutorial\source\src\lsclient\iogrowthupinfo.h
;	COMDAT ?GetType@ioGrowthUpInfo@@QBE?AW4GrowthType@@XZ
_TEXT	SEGMENT
?GetType@ioGrowthUpInfo@@QBE?AW4GrowthType@@XZ PROC	; ioGrowthUpInfo::GetType, COMDAT
; _this$ = ecx

; 23   : 	inline GrowthType GetType() const { return m_GrowthType; }

  00000	8b 41 04	 mov	 eax, DWORD PTR [ecx+4]
  00003	c3		 ret	 0
?GetType@ioGrowthUpInfo@@QBE?AW4GrowthType@@XZ ENDP	; ioGrowthUpInfo::GetType
_TEXT	ENDS
PUBLIC	??_R0?AVioGrowthUpInfo@@@8			; ioGrowthUpInfo `RTTI Type Descriptor'
PUBLIC	??_R0?AVioGrowthNormalUpInfo@@@8		; ioGrowthNormalUpInfo `RTTI Type Descriptor'
PUBLIC	?ToNormalUpInfo@@YAPAVioGrowthNormalUpInfo@@PAVioGrowthUpInfo@@@Z ; ToNormalUpInfo
EXTRN	___RTDynamicCast:PROC
EXTRN	??_7type_info@@6B@:QWORD			; type_info::`vftable'
;	COMDAT ??_R0?AVioGrowthUpInfo@@@8
_DATA	SEGMENT
??_R0?AVioGrowthUpInfo@@@8 DD FLAT:??_7type_info@@6B@	; ioGrowthUpInfo `RTTI Type Descriptor'
	DD	00H
	DB	'.?AVioGrowthUpInfo@@', 00H
_DATA	ENDS
;	COMDAT ??_R0?AVioGrowthNormalUpInfo@@@8
_DATA	SEGMENT
??_R0?AVioGrowthNormalUpInfo@@@8 DD FLAT:??_7type_info@@6B@ ; ioGrowthNormalUpInfo `RTTI Type Descriptor'
	DD	00H
	DB	'.?AVioGrowthNormalUpInfo@@', 00H
; Function compile flags: /Ogsp
_DATA	ENDS
;	COMDAT ?ToNormalUpInfo@@YAPAVioGrowthNormalUpInfo@@PAVioGrowthUpInfo@@@Z
_TEXT	SEGMENT
_pUpInfo$ = 8						; size = 4
?ToNormalUpInfo@@YAPAVioGrowthNormalUpInfo@@PAVioGrowthUpInfo@@@Z PROC ; ToNormalUpInfo, COMDAT

; 59   : {

  00000	55		 push	 ebp
  00001	8b ec		 mov	 ebp, esp

; 60   : 	if( !pUpInfo || pUpInfo->GetType() == GT_NONE )

  00003	8b 4d 08	 mov	 ecx, DWORD PTR _pUpInfo$[ebp]
  00006	85 c9		 test	 ecx, ecx
  00008	74 39		 je	 SHORT $LN6@ToNormalUp
  0000a	8b 41 04	 mov	 eax, DWORD PTR [ecx+4]
  0000d	85 c0		 test	 eax, eax
  0000f	74 32		 je	 SHORT $LN6@ToNormalUp

; 62   : 
; 63   : 	if( pUpInfo->GetType() == GT_CHAR_ATTACK || pUpInfo->GetType() == GT_SKILL_ATTACK )

  00011	83 f8 01	 cmp	 eax, 1
  00014	74 2d		 je	 SHORT $LN6@ToNormalUp
  00016	83 f8 07	 cmp	 eax, 7
  00019	74 28		 je	 SHORT $LN6@ToNormalUp

; 64   : 		return NULL;
; 65   : 	if( pUpInfo->GetType() == GT_BLOW_PUSH )

  0001b	83 f8 1e	 cmp	 eax, 30			; 0000001eH

; 66   : 		return NULL;

  0001e	74 23		 je	 SHORT $LN6@ToNormalUp

; 67   : 	if( pUpInfo->GetType() == GT_TELEPORT_ANI_RATE )

  00020	83 f8 20	 cmp	 eax, 32			; 00000020H

; 68   : 		return NULL;

  00023	74 1e		 je	 SHORT $LN6@ToNormalUp

; 69   : 	if( pUpInfo->GetType() == GT_SKILL_ATTACK_FORCE )

  00025	83 f8 1c	 cmp	 eax, 28			; 0000001cH

; 70   : 		return NULL;

  00028	74 19		 je	 SHORT $LN6@ToNormalUp

; 71   : 
; 72   : 	return dynamic_cast< ioGrowthNormalUpInfo* >( pUpInfo );

  0002a	6a 00		 push	 0
  0002c	68 00 00 00 00	 push	 OFFSET ??_R0?AVioGrowthNormalUpInfo@@@8
  00031	68 00 00 00 00	 push	 OFFSET ??_R0?AVioGrowthUpInfo@@@8
  00036	6a 00		 push	 0
  00038	51		 push	 ecx
  00039	e8 00 00 00 00	 call	 ___RTDynamicCast
  0003e	83 c4 14	 add	 esp, 20			; 00000014H

; 73   : }

  00041	5d		 pop	 ebp
  00042	c3		 ret	 0
$LN6@ToNormalUp:

; 61   : 		return NULL;

  00043	33 c0		 xor	 eax, eax

; 73   : }

  00045	5d		 pop	 ebp
  00046	c3		 ret	 0
?ToNormalUpInfo@@YAPAVioGrowthNormalUpInfo@@PAVioGrowthUpInfo@@@Z ENDP ; ToNormalUpInfo
_TEXT	ENDS
PUBLIC	?SetSkillWeapon@ioContactWeapon@@QAEX_N@Z	; ioContactWeapon::SetSkillWeapon
; Function compile flags: /Ogsp
; File d:\lost saga for developer\youtube\tutorial\source\src\lsclient\iocontactweapon.h
;	COMDAT ?SetSkillWeapon@ioContactWeapon@@QAEX_N@Z
_TEXT	SEGMENT
_b$ = 8							; size = 1
?SetSkillWeapon@ioContactWeapon@@QAEX_N@Z PROC		; ioContactWeapon::SetSkillWeapon, COMDAT
; _this$ = ecx

; 83   : 	void SetSkillWeapon( bool b ){ m_bSkillWeapon = b;}

  00000	55		 push	 ebp
  00001	8b ec		 mov	 ebp, esp
  00003	8a 45 08	 mov	 al, BYTE PTR _b$[ebp]
  00006	88 81 1f 09 00
	00		 mov	 BYTE PTR [ecx+2335], al
  0000c	5d		 pop	 ebp
  0000d	c2 04 00	 ret	 4
?SetSkillWeapon@ioContactWeapon@@QAEX_N@Z ENDP		; ioContactWeapon::SetSkillWeapon
_TEXT	ENDS
PUBLIC	??_R0?AVioWeapon@@@8				; ioWeapon `RTTI Type Descriptor'
PUBLIC	??_R0?AVioContactWeapon@@@8			; ioContactWeapon `RTTI Type Descriptor'
PUBLIC	?ToContactWeapon@@YAPAVioContactWeapon@@PAVioWeapon@@@Z ; ToContactWeapon
;	COMDAT ??_R0?AVioWeapon@@@8
_DATA	SEGMENT
??_R0?AVioWeapon@@@8 DD FLAT:??_7type_info@@6B@		; ioWeapon `RTTI Type Descriptor'
	DD	00H
	DB	'.?AVioWeapon@@', 00H
_DATA	ENDS
;	COMDAT ??_R0?AVioContactWeapon@@@8
_DATA	SEGMENT
??_R0?AVioContactWeapon@@@8 DD FLAT:??_7type_info@@6B@	; ioContactWeapon `RTTI Type Descriptor'
	DD	00H
	DB	'.?AVioContactWeapon@@', 00H
; Function compile flags: /Ogsp
_DATA	ENDS
;	COMDAT ?ToContactWeapon@@YAPAVioContactWeapon@@PAVioWeapon@@@Z
_TEXT	SEGMENT
_pWeapon$ = 8						; size = 4
?ToContactWeapon@@YAPAVioContactWeapon@@PAVioWeapon@@@Z PROC ; ToContactWeapon, COMDAT

; 96   : {

  00000	55		 push	 ebp
  00001	8b ec		 mov	 ebp, esp
  00003	56		 push	 esi

; 97   : 	if( !pWeapon || pWeapon->GetType() != ioWeapon::WT_CONTACT )

  00004	8b 75 08	 mov	 esi, DWORD PTR _pWeapon$[ebp]
  00007	85 f6		 test	 esi, esi
  00009	74 28		 je	 SHORT $LN1@ToContactW
  0000b	8b 06		 mov	 eax, DWORD PTR [esi]
  0000d	8b ce		 mov	 ecx, esi
  0000f	ff 90 10 01 00
	00		 call	 DWORD PTR [eax+272]
  00015	83 f8 01	 cmp	 eax, 1
  00018	75 19		 jne	 SHORT $LN1@ToContactW

; 99   : 
; 100  : 	return dynamic_cast< ioContactWeapon* >( pWeapon );

  0001a	6a 00		 push	 0
  0001c	68 00 00 00 00	 push	 OFFSET ??_R0?AVioContactWeapon@@@8
  00021	68 00 00 00 00	 push	 OFFSET ??_R0?AVioWeapon@@@8
  00026	6a 00		 push	 0
  00028	56		 push	 esi
  00029	e8 00 00 00 00	 call	 ___RTDynamicCast
  0002e	83 c4 14	 add	 esp, 20			; 00000014H
  00031	eb 02		 jmp	 SHORT $LN3@ToContactW
$LN1@ToContactW:

; 98   : 		return NULL;

  00033	33 c0		 xor	 eax, eax
$LN3@ToContactW:
  00035	5e		 pop	 esi

; 101  : }

  00036	5d		 pop	 ebp
  00037	c3		 ret	 0
?ToContactWeapon@@YAPAVioContactWeapon@@PAVioWeapon@@@Z ENDP ; ToContactWeapon
_TEXT	ENDS
PUBLIC	??_R0?AVioZoneEffectWeapon@@@8			; ioZoneEffectWeapon `RTTI Type Descriptor'
PUBLIC	?ToZoneEffectWeapon@@YAPAVioZoneEffectWeapon@@PAVioWeapon@@@Z ; ToZoneEffectWeapon
;	COMDAT ??_R0?AVioZoneEffectWeapon@@@8
; File d:\lost saga for developer\youtube\tutorial\source\src\lsclient\iozoneeffectweapon.h
_DATA	SEGMENT
??_R0?AVioZoneEffectWeapon@@@8 DD FLAT:??_7type_info@@6B@ ; ioZoneEffectWeapon `RTTI Type Descriptor'
	DD	00H
	DB	'.?AVioZoneEffectWeapon@@', 00H
; Function compile flags: /Ogsp
_DATA	ENDS
;	COMDAT ?ToZoneEffectWeapon@@YAPAVioZoneEffectWeapon@@PAVioWeapon@@@Z
_TEXT	SEGMENT
_pWeapon$ = 8						; size = 4
?ToZoneEffectWeapon@@YAPAVioZoneEffectWeapon@@PAVioWeapon@@@Z PROC ; ToZoneEffectWeapon, COMDAT

; 217  : {

  00000	55		 push	 ebp
  00001	8b ec		 mov	 ebp, esp
  00003	56		 push	 esi

; 218  : 	if( !pWeapon || pWeapon->GetType() != ioWeapon::WT_ZONE_EFFECT )

  00004	8b 75 08	 mov	 esi, DWORD PTR _pWeapon$[ebp]
  00007	85 f6		 test	 esi, esi
  00009	74 28		 je	 SHORT $LN1@ToZoneEffe
  0000b	8b 06		 mov	 eax, DWORD PTR [esi]
  0000d	8b ce		 mov	 ecx, esi
  0000f	ff 90 10 01 00
	00		 call	 DWORD PTR [eax+272]
  00015	83 f8 08	 cmp	 eax, 8
  00018	75 19		 jne	 SHORT $LN1@ToZoneEffe

; 220  : 
; 221  : 	return dynamic_cast< ioZoneEffectWeapon* >( pWeapon );

  0001a	6a 00		 push	 0
  0001c	68 00 00 00 00	 push	 OFFSET ??_R0?AVioZoneEffectWeapon@@@8
  00021	68 00 00 00 00	 push	 OFFSET ??_R0?AVioWeapon@@@8
  00026	6a 00		 push	 0
  00028	56		 push	 esi
  00029	e8 00 00 00 00	 call	 ___RTDynamicCast
  0002e	83 c4 14	 add	 esp, 20			; 00000014H
  00031	eb 02		 jmp	 SHORT $LN3@ToZoneEffe
$LN1@ToZoneEffe:

; 219  : 		return NULL;

  00033	33 c0		 xor	 eax, eax
$LN3@ToZoneEffe:
  00035	5e		 pop	 esi

; 222  : }

  00036	5d		 pop	 ebp
  00037	c3		 ret	 0
?ToZoneEffectWeapon@@YAPAVioZoneEffectWeapon@@PAVioWeapon@@@Z ENDP ; ToZoneEffectWeapon
_TEXT	ENDS
PUBLIC	?IsSkillMotionEnd@ioComboJumpAttackSkill@@UBE_NKPAVioBaseChar@@@Z ; ioComboJumpAttackSkill::IsSkillMotionEnd
EXTRN	__imp_?GetLoopSec@ioFrameTimer@@QBEKXZ:PROC
EXTRN	__imp_?GetSingleton@ioFrameTimer@@SAAAV1@XZ:PROC
; Function compile flags: /Ogsp
; File d:\lost saga for developer\youtube\tutorial\source\src\lsclient\iocombojumpattackskill.cpp
;	COMDAT ?IsSkillMotionEnd@ioComboJumpAttackSkill@@UBE_NKPAVioBaseChar@@@Z
_TEXT	SEGMENT
_dwActionStop$ = 8					; size = 4
_pOwner$ = 12						; size = 4
?IsSkillMotionEnd@ioComboJumpAttackSkill@@UBE_NKPAVioBaseChar@@@Z PROC ; ioComboJumpAttackSkill::IsSkillMotionEnd, COMDAT
; _this$ = ecx

; 312  : {

  00000	55		 push	 ebp
  00001	8b ec		 mov	 ebp, esp
  00003	56		 push	 esi
  00004	8b f1		 mov	 esi, ecx

; 313  : 	if( m_dwPreDelayStartTime > 0 )

  00006	83 be 20 02 00
	00 00		 cmp	 DWORD PTR [esi+544], 0
  0000d	76 04		 jbe	 SHORT $LN6@IsSkillMot
$LN3@IsSkillMot:

; 314  : 		return false;

  0000f	32 c0		 xor	 al, al
  00011	eb 31		 jmp	 SHORT $LN7@IsSkillMot
$LN6@IsSkillMot:

; 315  : 
; 316  : 	switch( m_SkillState )

  00013	8b 86 e4 10 00
	00		 mov	 eax, DWORD PTR [esi+4324]
  00019	85 c0		 test	 eax, eax
  0001b	78 25		 js	 SHORT $LN1@IsSkillMot
  0001d	83 f8 02	 cmp	 eax, 2
  00020	7e ed		 jle	 SHORT $LN3@IsSkillMot
  00022	83 f8 03	 cmp	 eax, 3
  00025	75 1b		 jne	 SHORT $LN1@IsSkillMot

; 317  : 	{
; 318  : 	case SS_NONE:
; 319  : 	case SS_LOOP:
; 320  : 	case SS_ACTION:
; 321  : 		return false;
; 322  : 
; 323  : 	case SS_END:
; 324  : 		if( m_dwMotionEndTime + dwActionStop > FRAMEGETTIME() )

  00027	ff 15 00 00 00
	00		 call	 DWORD PTR __imp_?GetSingleton@ioFrameTimer@@SAAAV1@XZ
  0002d	8b c8		 mov	 ecx, eax
  0002f	ff 15 00 00 00
	00		 call	 DWORD PTR __imp_?GetLoopSec@ioFrameTimer@@QBEKXZ
  00035	8b 8e d8 02 00
	00		 mov	 ecx, DWORD PTR [esi+728]
  0003b	03 4d 08	 add	 ecx, DWORD PTR _dwActionStop$[ebp]
  0003e	3b c8		 cmp	 ecx, eax

; 325  : 			return false;

  00040	77 cd		 ja	 SHORT $LN3@IsSkillMot
$LN1@IsSkillMot:

; 326  : 	}
; 327  : 
; 328  : 	return true;

  00042	b0 01		 mov	 al, 1
$LN7@IsSkillMot:
  00044	5e		 pop	 esi

; 329  : }

  00045	5d		 pop	 ebp
  00046	c2 08 00	 ret	 8
?IsSkillMotionEnd@ioComboJumpAttackSkill@@UBE_NKPAVioBaseChar@@@Z ENDP ; ioComboJumpAttackSkill::IsSkillMotionEnd
_TEXT	ENDS
PUBLIC	?CheckLanding@ioComboJumpAttackSkill@@IAE_NPAVioBaseChar@@@Z ; ioComboJumpAttackSkill::CheckLanding
EXTRN	?IsDownState@ioBaseChar@@QAE_NXZ:PROC		; ioBaseChar::IsDownState
EXTRN	?GetBottomHeight@ioGameEntity@@QBEMXZ:PROC	; ioGameEntity::GetBottomHeight
; Function compile flags: /Ogsp
;	COMDAT ?CheckLanding@ioComboJumpAttackSkill@@IAE_NPAVioBaseChar@@@Z
_TEXT	SEGMENT
tv161 = -8						; size = 8
tv175 = 8						; size = 4
tv171 = 8						; size = 4
$T552157 = 8						; size = 4
_fHeight$ = 8						; size = 4
_pChar$ = 8						; size = 4
?CheckLanding@ioComboJumpAttackSkill@@IAE_NPAVioBaseChar@@@Z PROC ; ioComboJumpAttackSkill::CheckLanding, COMDAT
; _this$ = ecx

; 383  : {

  00000	55		 push	 ebp
  00001	8b ec		 mov	 ebp, esp
  00003	51		 push	 ecx
  00004	51		 push	 ecx
  00005	56		 push	 esi

; 384  : 	float fHeightGap = 0.0f;
; 385  : 	float fHeight = pChar->GetWorldPosition().y;

  00006	8b 75 08	 mov	 esi, DWORD PTR _pChar$[ebp]
  00009	8b 06		 mov	 eax, DWORD PTR [esi]
  0000b	57		 push	 edi
  0000c	8b f9		 mov	 edi, ecx
  0000e	8b ce		 mov	 ecx, esi
  00010	ff 50 70	 call	 DWORD PTR [eax+112]
  00013	d9 40 04	 fld	 DWORD PTR [eax+4]
  00016	d9 5d 08	 fstp	 DWORD PTR _fHeight$[ebp]

; 386  : 	float fMapHeight = pChar->GetBottomHeight();

  00019	8b ce		 mov	 ecx, esi

; 387  : 
; 388  : 	//if( pChar->CheckGhostState() )
; 389  : 	//{
; 390  : 	//	fHeightGap = fHeight - pChar->GetPreHeightForGhostState();
; 391  : 	//}
; 392  : 	
; 393  : 	//       if( m_fLastHeight > 0.0f && fMapHeight <= 0.0f )
; 394  : 	//{
; 395  : 	//	fHeightGap = fHeight - m_fLastHeight;
; 396  : 	//}
; 397  : 	//else
; 398  : 	//{
; 399  : 		fHeightGap = fHeight - fMapHeight;
; 400  : 	//}
; 401  : 
; 402  : 	if( abs( fHeightGap ) > m_fSetHeightGap || !pChar->IsDownState() )

  0001b	d9 45 08	 fld	 DWORD PTR _fHeight$[ebp]
  0001e	dd 5d f8	 fstp	 QWORD PTR tv161[ebp]
  00021	e8 00 00 00 00	 call	 ?GetBottomHeight@ioGameEntity@@QBEMXZ ; ioGameEntity::GetBottomHeight
  00026	dc 6d f8	 fsubr	 QWORD PTR tv161[ebp]
  00029	d9 5d 08	 fstp	 DWORD PTR tv175[ebp]
  0002c	d9 45 08	 fld	 DWORD PTR tv175[ebp]
  0002f	d9 e1		 fabs
  00031	d9 5d 08	 fstp	 DWORD PTR tv171[ebp]
  00034	d9 45 08	 fld	 DWORD PTR tv171[ebp]
  00037	d9 5d 08	 fstp	 DWORD PTR $T552157[ebp]
  0003a	d9 87 94 12 00
	00		 fld	 DWORD PTR [edi+4756]
  00040	d9 45 08	 fld	 DWORD PTR $T552157[ebp]
  00043	df f1		 fcomip	 ST(1)
  00045	dd d8		 fstp	 ST(0)
  00047	77 0f		 ja	 SHORT $LN1@CheckLandi
  00049	8b ce		 mov	 ecx, esi
  0004b	e8 00 00 00 00	 call	 ?IsDownState@ioBaseChar@@QAE_NXZ ; ioBaseChar::IsDownState
  00050	84 c0		 test	 al, al
  00052	74 04		 je	 SHORT $LN1@CheckLandi

; 405  : 	}
; 406  : 
; 407  : 	return true;

  00054	b0 01		 mov	 al, 1
  00056	eb 02		 jmp	 SHORT $LN3@CheckLandi
$LN1@CheckLandi:

; 403  : 	{
; 404  : 		return false;

  00058	32 c0		 xor	 al, al
$LN3@CheckLandi:
  0005a	5f		 pop	 edi
  0005b	5e		 pop	 esi

; 408  : }

  0005c	c9		 leave
  0005d	c2 04 00	 ret	 4
?CheckLanding@ioComboJumpAttackSkill@@IAE_NPAVioBaseChar@@@Z ENDP ; ioComboJumpAttackSkill::CheckLanding
_TEXT	ENDS
PUBLIC	?IsEndState@ioComboJumpAttackSkill@@UBE_NXZ	; ioComboJumpAttackSkill::IsEndState
; Function compile flags: /Ogsp
;	COMDAT ?IsEndState@ioComboJumpAttackSkill@@UBE_NXZ
_TEXT	SEGMENT
?IsEndState@ioComboJumpAttackSkill@@UBE_NXZ PROC	; ioComboJumpAttackSkill::IsEndState, COMDAT
; _this$ = ecx

; 474  : 	if( m_SkillState == SS_END && m_bEnd )

  00000	83 b9 e4 10 00
	00 03		 cmp	 DWORD PTR [ecx+4324], 3
  00007	75 0c		 jne	 SHORT $LN1@IsEndState
  00009	80 b9 88 12 00
	00 00		 cmp	 BYTE PTR [ecx+4744], 0
  00010	74 03		 je	 SHORT $LN1@IsEndState

; 475  : 		return true;

  00012	b0 01		 mov	 al, 1

; 478  : }

  00014	c3		 ret	 0
$LN1@IsEndState:

; 476  : 
; 477  : 	return false;

  00015	32 c0		 xor	 al, al

; 478  : }

  00017	c3		 ret	 0
?IsEndState@ioComboJumpAttackSkill@@UBE_NXZ ENDP	; ioComboJumpAttackSkill::IsEndState
_TEXT	ENDS
PUBLIC	?IsAttackEndState@ioComboJumpAttackSkill@@UBE_NXZ ; ioComboJumpAttackSkill::IsAttackEndState
; Function compile flags: /Ogsp
;	COMDAT ?IsAttackEndState@ioComboJumpAttackSkill@@UBE_NXZ
_TEXT	SEGMENT
?IsAttackEndState@ioComboJumpAttackSkill@@UBE_NXZ PROC	; ioComboJumpAttackSkill::IsAttackEndState, COMDAT
; _this$ = ecx

; 482  : 	return IsEndState();

  00000	8b 01		 mov	 eax, DWORD PTR [ecx]
  00002	ff 60 74	 jmp	 DWORD PTR [eax+116]
?IsAttackEndState@ioComboJumpAttackSkill@@UBE_NXZ ENDP	; ioComboJumpAttackSkill::IsAttackEndState
_TEXT	ENDS
PUBLIC	??0D3DXVECTOR3@@QAE@XZ				; D3DXVECTOR3::D3DXVECTOR3
; Function compile flags: /Ogsp
; File c:\program files (x86)\microsoft directx sdk (june 2010)\include\d3dx9math.h
;	COMDAT ??0D3DXVECTOR3@@QAE@XZ
_TEXT	SEGMENT
??0D3DXVECTOR3@@QAE@XZ PROC				; D3DXVECTOR3::D3DXVECTOR3, COMDAT
; _this$ = ecx

; 165  :     D3DXVECTOR3() {};

  00000	8b c1		 mov	 eax, ecx
  00002	c3		 ret	 0
??0D3DXVECTOR3@@QAE@XZ ENDP				; D3DXVECTOR3::D3DXVECTOR3
_TEXT	ENDS
PUBLIC	??0D3DXQUATERNION@@QAE@XZ			; D3DXQUATERNION::D3DXQUATERNION
; Function compile flags: /Ogsp
;	COMDAT ??0D3DXQUATERNION@@QAE@XZ
_TEXT	SEGMENT
??0D3DXQUATERNION@@QAE@XZ PROC				; D3DXQUATERNION::D3DXQUATERNION, COMDAT
; _this$ = ecx

; 429  :     D3DXQUATERNION() {}

  00000	8b c1		 mov	 eax, ecx
  00002	c3		 ret	 0
??0D3DXQUATERNION@@QAE@XZ ENDP				; D3DXQUATERNION::D3DXQUATERNION
_TEXT	ENDS
PUBLIC	??0D3DXVECTOR3@@QAE@MMM@Z			; D3DXVECTOR3::D3DXVECTOR3
; Function compile flags: /Ogsp
; File c:\program files (x86)\microsoft directx sdk (june 2010)\include\d3dx9math.inl
;	COMDAT ??0D3DXVECTOR3@@QAE@MMM@Z
_TEXT	SEGMENT
_fx$ = 8						; size = 4
_fy$ = 12						; size = 4
_fz$ = 16						; size = 4
??0D3DXVECTOR3@@QAE@MMM@Z PROC				; D3DXVECTOR3::D3DXVECTOR3, COMDAT
; _this$ = ecx

; 303  : {

  00000	55		 push	 ebp
  00001	8b ec		 mov	 ebp, esp

; 304  :     x = fx;

  00003	f3 0f 10 45 08	 movss	 xmm0, DWORD PTR _fx$[ebp]
  00008	8b c1		 mov	 eax, ecx
  0000a	f3 0f 11 00	 movss	 DWORD PTR [eax], xmm0

; 305  :     y = fy;

  0000e	f3 0f 10 45 0c	 movss	 xmm0, DWORD PTR _fy$[ebp]
  00013	f3 0f 11 40 04	 movss	 DWORD PTR [eax+4], xmm0

; 306  :     z = fz;

  00018	f3 0f 10 45 10	 movss	 xmm0, DWORD PTR _fz$[ebp]
  0001d	f3 0f 11 40 08	 movss	 DWORD PTR [eax+8], xmm0

; 307  : }

  00022	5d		 pop	 ebp
  00023	c2 0c 00	 ret	 12			; 0000000cH
??0D3DXVECTOR3@@QAE@MMM@Z ENDP				; D3DXVECTOR3::D3DXVECTOR3
_TEXT	ENDS
PUBLIC	?_DECSTR@@YAXPADH@Z				; _DECSTR
; Function compile flags: /Ogsp
; File d:\lost saga for developer\youtube\tutorial\source\src\lsclient\stringprotect.h
;	COMDAT ?_DECSTR@@YAXPADH@Z
_TEXT	SEGMENT
_s$ = 8							; size = 4
_l$ = 12						; size = 4
?_DECSTR@@YAXPADH@Z PROC				; _DECSTR, COMDAT

; 40   : __forceinline void _DECSTR(char* s, int l){int i=0,l4=(l-1)/4,*p=(int*)s;s[l-1]=0;for(;i<l4;++i)*(p++)^=0xEAEBECED;for(i=l4*4;i<l-1;++i)s[i]^=0xED-i%4;}

  00000	55		 push	 ebp
  00001	8b ec		 mov	 ebp, esp
  00003	8b 4d 0c	 mov	 ecx, DWORD PTR _l$[ebp]
  00006	56		 push	 esi
  00007	8b 75 08	 mov	 esi, DWORD PTR _s$[ebp]
  0000a	57		 push	 edi
  0000b	8d 79 ff	 lea	 edi, DWORD PTR [ecx-1]
  0000e	8b c7		 mov	 eax, edi
  00010	99		 cdq
  00011	83 e2 03	 and	 edx, 3
  00014	03 c2		 add	 eax, edx
  00016	c1 f8 02	 sar	 eax, 2
  00019	8b d6		 mov	 edx, esi
  0001b	c6 44 0e ff 00	 mov	 BYTE PTR [esi+ecx-1], 0
  00020	85 c0		 test	 eax, eax
  00022	7e 0e		 jle	 SHORT $LN4@DECSTR
  00024	8b c8		 mov	 ecx, eax
$LL6@DECSTR:
  00026	81 32 ed ec eb
	ea		 xor	 DWORD PTR [edx], -353637139 ; eaebecedH
  0002c	83 c2 04	 add	 edx, 4
  0002f	49		 dec	 ecx
  00030	75 f4		 jne	 SHORT $LL6@DECSTR
$LN4@DECSTR:
  00032	c1 e0 02	 shl	 eax, 2
  00035	eb 17		 jmp	 SHORT $LN14@DECSTR
$LL3@DECSTR:
  00037	8b c8		 mov	 ecx, eax
  00039	81 e1 03 00 00
	80		 and	 ecx, -2147483645	; 80000003H
  0003f	79 05		 jns	 SHORT $LN13@DECSTR
  00041	49		 dec	 ecx
  00042	83 c9 fc	 or	 ecx, -4			; fffffffcH
  00045	41		 inc	 ecx
$LN13@DECSTR:
  00046	b2 ed		 mov	 dl, -19			; ffffffedH
  00048	2a d1		 sub	 dl, cl
  0004a	30 14 30	 xor	 BYTE PTR [eax+esi], dl
  0004d	40		 inc	 eax
$LN14@DECSTR:
  0004e	3b c7		 cmp	 eax, edi
  00050	7c e5		 jl	 SHORT $LL3@DECSTR
  00052	5f		 pop	 edi
  00053	5e		 pop	 esi
  00054	5d		 pop	 ebp
  00055	c3		 ret	 0
?_DECSTR@@YAXPADH@Z ENDP				; _DECSTR
_TEXT	ENDS
PUBLIC	?GetGroup@ioGameEntity@@QBEPAVioEntityGroup@@XZ	; ioGameEntity::GetGroup
; Function compile flags: /Ogsp
; File d:\lost saga for developer\youtube\tutorial\source\src\lsclient\iogameentity.h
;	COMDAT ?GetGroup@ioGameEntity@@QBEPAVioEntityGroup@@XZ
_TEXT	SEGMENT
?GetGroup@ioGameEntity@@QBEPAVioEntityGroup@@XZ PROC	; ioGameEntity::GetGroup, COMDAT
; _this$ = ecx

; 166  : 	inline ioEntityGroup* GetGroup() const { return m_pGroup; }

  00000	8b 41 04	 mov	 eax, DWORD PTR [ecx+4]
  00003	c3		 ret	 0
?GetGroup@ioGameEntity@@QBEPAVioEntityGroup@@XZ ENDP	; ioGameEntity::GetGroup
_TEXT	ENDS
PUBLIC	?Init@WeaponInfo@@QAEXXZ			; WeaponInfo::Init
; Function compile flags: /Ogsp
; File d:\lost saga for developer\youtube\tutorial\source\src\lsclient\ioattackattribute.h
;	COMDAT ?Init@WeaponInfo@@QAEXXZ
_TEXT	SEGMENT
?Init@WeaponInfo@@QAEXXZ PROC				; WeaponInfo::Init, COMDAT
; _this$ = ecx

; 71   : 		m_iWeaponIdx = 0;

  00000	33 c0		 xor	 eax, eax
  00002	89 01		 mov	 DWORD PTR [ecx], eax

; 72   : 		m_iResistanceIdx = 0;

  00004	89 41 04	 mov	 DWORD PTR [ecx+4], eax

; 73   : 
; 74   : 		m_dwWoundedDuration = 0;

  00007	89 41 18	 mov	 DWORD PTR [ecx+24], eax

; 75   : 		m_dwCallTime = 0;

  0000a	89 41 1c	 mov	 DWORD PTR [ecx+28], eax

; 76   : 
; 77   : 		m_bWoundedLoopAni = false;

  0000d	88 41 20	 mov	 BYTE PTR [ecx+32], al

; 78   : 
; 79   : 		m_dwDuration = 0;

  00010	89 41 24	 mov	 DWORD PTR [ecx+36], eax

; 80   : 	}

  00013	c3		 ret	 0
?Init@WeaponInfo@@QAEXXZ ENDP				; WeaponInfo::Init
_TEXT	ENDS
PUBLIC	??1WeaponInfo@@QAE@XZ				; WeaponInfo::~WeaponInfo
EXTRN	__imp_??1ioHashString@@QAE@XZ:PROC
; Function compile flags: /Ogsp
;	COMDAT ??1WeaponInfo@@QAE@XZ
_TEXT	SEGMENT
??1WeaponInfo@@QAE@XZ PROC				; WeaponInfo::~WeaponInfo, COMDAT
; _this$ = ecx
  00000	83 c1 08	 add	 ecx, 8
  00003	ff 25 00 00 00
	00		 jmp	 DWORD PTR __imp_??1ioHashString@@QAE@XZ
??1WeaponInfo@@QAE@XZ ENDP				; WeaponInfo::~WeaponInfo
_TEXT	ENDS
PUBLIC	?GetOwnerItem@ioSkill@@QBEPAVioItem@@XZ		; ioSkill::GetOwnerItem
; Function compile flags: /Ogsp
; File d:\lost saga for developer\youtube\tutorial\source\src\lsclient\ioskill.h
;	COMDAT ?GetOwnerItem@ioSkill@@QBEPAVioItem@@XZ
_TEXT	SEGMENT
?GetOwnerItem@ioSkill@@QBEPAVioItem@@XZ PROC		; ioSkill::GetOwnerItem, COMDAT
; _this$ = ecx

; 397  : 	inline ioItem *GetOwnerItem() const { return m_pOwnerItem; }

  00000	8b 81 a4 02 00
	00		 mov	 eax, DWORD PTR [ecx+676]
  00006	c3		 ret	 0
?GetOwnerItem@ioSkill@@QBEPAVioItem@@XZ ENDP		; ioSkill::GetOwnerItem
_TEXT	ENDS
PUBLIC	?GetName@ioSkill@@QBEABVioHashString@@XZ	; ioSkill::GetName
; Function compile flags: /Ogsp
;	COMDAT ?GetName@ioSkill@@QBEABVioHashString@@XZ
_TEXT	SEGMENT
?GetName@ioSkill@@QBEABVioHashString@@XZ PROC		; ioSkill::GetName, COMDAT
; _this$ = ecx

; 414  : 	inline const ioHashString& GetName() const { return m_Name; }

  00000	8d 41 24	 lea	 eax, DWORD PTR [ecx+36]
  00003	c3		 ret	 0
?GetName@ioSkill@@QBEABVioHashString@@XZ ENDP		; ioSkill::GetName
_TEXT	ENDS
PUBLIC	??_7?$CEncrypt@M@@6B@				; CEncrypt<float>::`vftable'
PUBLIC	??1?$CEncrypt@M@@UAE@XZ				; CEncrypt<float>::~CEncrypt<float>
PUBLIC	??_R4?$CEncrypt@M@@6B@				; CEncrypt<float>::`RTTI Complete Object Locator'
PUBLIC	??_R0?AV?$CEncrypt@M@@@8			; CEncrypt<float> `RTTI Type Descriptor'
PUBLIC	??_R3?$CEncrypt@M@@8				; CEncrypt<float>::`RTTI Class Hierarchy Descriptor'
PUBLIC	??_R2?$CEncrypt@M@@8				; CEncrypt<float>::`RTTI Base Class Array'
PUBLIC	??_R1A@?0A@EA@?$CEncrypt@M@@8			; CEncrypt<float>::`RTTI Base Class Descriptor at (0,-1,0,64)'
EXTRN	??1ccddaabb@@UAE@XZ:PROC			; ccddaabb::~ccddaabb
EXTRN	??_E?$CEncrypt@M@@UAEPAXI@Z:PROC		; CEncrypt<float>::`vector deleting destructor'
;	COMDAT ??_R1A@?0A@EA@?$CEncrypt@M@@8
; File d:\lost saga for developer\youtube\tutorial\source\src\lsclient\encryptvalue.h
rdata$r	SEGMENT
??_R1A@?0A@EA@?$CEncrypt@M@@8 DD FLAT:??_R0?AV?$CEncrypt@M@@@8 ; CEncrypt<float>::`RTTI Base Class Descriptor at (0,-1,0,64)'
	DD	00H
	DD	00H
	DD	0ffffffffH
	DD	00H
	DD	040H
	DD	FLAT:??_R3?$CEncrypt@M@@8
rdata$r	ENDS
;	COMDAT ??_R2?$CEncrypt@M@@8
rdata$r	SEGMENT
??_R2?$CEncrypt@M@@8 DD FLAT:??_R1A@?0A@EA@?$CEncrypt@M@@8 ; CEncrypt<float>::`RTTI Base Class Array'
rdata$r	ENDS
;	COMDAT ??_R3?$CEncrypt@M@@8
rdata$r	SEGMENT
??_R3?$CEncrypt@M@@8 DD 00H				; CEncrypt<float>::`RTTI Class Hierarchy Descriptor'
	DD	00H
	DD	01H
	DD	FLAT:??_R2?$CEncrypt@M@@8
rdata$r	ENDS
;	COMDAT ??_R0?AV?$CEncrypt@M@@@8
_DATA	SEGMENT
??_R0?AV?$CEncrypt@M@@@8 DD FLAT:??_7type_info@@6B@	; CEncrypt<float> `RTTI Type Descriptor'
	DD	00H
	DB	'.?AV?$CEncrypt@M@@', 00H
_DATA	ENDS
;	COMDAT ??_R4?$CEncrypt@M@@6B@
rdata$r	SEGMENT
??_R4?$CEncrypt@M@@6B@ DD 00H				; CEncrypt<float>::`RTTI Complete Object Locator'
	DD	00H
	DD	00H
	DD	FLAT:??_R0?AV?$CEncrypt@M@@@8
	DD	FLAT:??_R3?$CEncrypt@M@@8
rdata$r	ENDS
;	COMDAT ??_7?$CEncrypt@M@@6B@
CONST	SEGMENT
??_7?$CEncrypt@M@@6B@ DD FLAT:??_R4?$CEncrypt@M@@6B@	; CEncrypt<float>::`vftable'
	DD	FLAT:??_E?$CEncrypt@M@@UAEPAXI@Z
; Function compile flags: /Ogsp
CONST	ENDS
;	COMDAT ??1?$CEncrypt@M@@UAE@XZ
_TEXT	SEGMENT
??1?$CEncrypt@M@@UAE@XZ PROC				; CEncrypt<float>::~CEncrypt<float>, COMDAT
; _this$ = ecx

; 127  : 	{

  00000	c7 01 00 00 00
	00		 mov	 DWORD PTR [ecx], OFFSET ??_7?$CEncrypt@M@@6B@

; 128  : 	}

  00006	83 c1 0c	 add	 ecx, 12			; 0000000cH
  00009	e9 00 00 00 00	 jmp	 ??1ccddaabb@@UAE@XZ	; ccddaabb::~ccddaabb
??1?$CEncrypt@M@@UAE@XZ ENDP				; CEncrypt<float>::~CEncrypt<float>
_TEXT	ENDS
PUBLIC	??_7?$CEncrypt@K@@6B@				; CEncrypt<unsigned long>::`vftable'
PUBLIC	??1?$CEncrypt@K@@UAE@XZ				; CEncrypt<unsigned long>::~CEncrypt<unsigned long>
PUBLIC	??_R4?$CEncrypt@K@@6B@				; CEncrypt<unsigned long>::`RTTI Complete Object Locator'
PUBLIC	??_R0?AV?$CEncrypt@K@@@8			; CEncrypt<unsigned long> `RTTI Type Descriptor'
PUBLIC	??_R3?$CEncrypt@K@@8				; CEncrypt<unsigned long>::`RTTI Class Hierarchy Descriptor'
PUBLIC	??_R2?$CEncrypt@K@@8				; CEncrypt<unsigned long>::`RTTI Base Class Array'
PUBLIC	??_R1A@?0A@EA@?$CEncrypt@K@@8			; CEncrypt<unsigned long>::`RTTI Base Class Descriptor at (0,-1,0,64)'
EXTRN	??_E?$CEncrypt@K@@UAEPAXI@Z:PROC		; CEncrypt<unsigned long>::`vector deleting destructor'
;	COMDAT ??_R1A@?0A@EA@?$CEncrypt@K@@8
rdata$r	SEGMENT
??_R1A@?0A@EA@?$CEncrypt@K@@8 DD FLAT:??_R0?AV?$CEncrypt@K@@@8 ; CEncrypt<unsigned long>::`RTTI Base Class Descriptor at (0,-1,0,64)'
	DD	00H
	DD	00H
	DD	0ffffffffH
	DD	00H
	DD	040H
	DD	FLAT:??_R3?$CEncrypt@K@@8
rdata$r	ENDS
;	COMDAT ??_R2?$CEncrypt@K@@8
rdata$r	SEGMENT
??_R2?$CEncrypt@K@@8 DD FLAT:??_R1A@?0A@EA@?$CEncrypt@K@@8 ; CEncrypt<unsigned long>::`RTTI Base Class Array'
rdata$r	ENDS
;	COMDAT ??_R3?$CEncrypt@K@@8
rdata$r	SEGMENT
??_R3?$CEncrypt@K@@8 DD 00H				; CEncrypt<unsigned long>::`RTTI Class Hierarchy Descriptor'
	DD	00H
	DD	01H
	DD	FLAT:??_R2?$CEncrypt@K@@8
rdata$r	ENDS
;	COMDAT ??_R0?AV?$CEncrypt@K@@@8
_DATA	SEGMENT
??_R0?AV?$CEncrypt@K@@@8 DD FLAT:??_7type_info@@6B@	; CEncrypt<unsigned long> `RTTI Type Descriptor'
	DD	00H
	DB	'.?AV?$CEncrypt@K@@', 00H
_DATA	ENDS
;	COMDAT ??_R4?$CEncrypt@K@@6B@
rdata$r	SEGMENT
??_R4?$CEncrypt@K@@6B@ DD 00H				; CEncrypt<unsigned long>::`RTTI Complete Object Locator'
	DD	00H
	DD	00H
	DD	FLAT:??_R0?AV?$CEncrypt@K@@@8
	DD	FLAT:??_R3?$CEncrypt@K@@8
rdata$r	ENDS
;	COMDAT ??_7?$CEncrypt@K@@6B@
CONST	SEGMENT
??_7?$CEncrypt@K@@6B@ DD FLAT:??_R4?$CEncrypt@K@@6B@	; CEncrypt<unsigned long>::`vftable'
	DD	FLAT:??_E?$CEncrypt@K@@UAEPAXI@Z
; Function compile flags: /Ogsp
CONST	ENDS
;	COMDAT ??1?$CEncrypt@K@@UAE@XZ
_TEXT	SEGMENT
??1?$CEncrypt@K@@UAE@XZ PROC				; CEncrypt<unsigned long>::~CEncrypt<unsigned long>, COMDAT
; _this$ = ecx

; 127  : 	{

  00000	c7 01 00 00 00
	00		 mov	 DWORD PTR [ecx], OFFSET ??_7?$CEncrypt@K@@6B@

; 128  : 	}

  00006	83 c1 0c	 add	 ecx, 12			; 0000000cH
  00009	e9 00 00 00 00	 jmp	 ??1ccddaabb@@UAE@XZ	; ccddaabb::~ccddaabb
??1?$CEncrypt@K@@UAE@XZ ENDP				; CEncrypt<unsigned long>::~CEncrypt<unsigned long>
_TEXT	ENDS
PUBLIC	??_7?$CEncrypt@_N@@6B@				; CEncrypt<bool>::`vftable'
PUBLIC	??1?$CEncrypt@_N@@UAE@XZ			; CEncrypt<bool>::~CEncrypt<bool>
PUBLIC	??_R4?$CEncrypt@_N@@6B@				; CEncrypt<bool>::`RTTI Complete Object Locator'
PUBLIC	??_R0?AV?$CEncrypt@_N@@@8			; CEncrypt<bool> `RTTI Type Descriptor'
PUBLIC	??_R3?$CEncrypt@_N@@8				; CEncrypt<bool>::`RTTI Class Hierarchy Descriptor'
PUBLIC	??_R2?$CEncrypt@_N@@8				; CEncrypt<bool>::`RTTI Base Class Array'
PUBLIC	??_R1A@?0A@EA@?$CEncrypt@_N@@8			; CEncrypt<bool>::`RTTI Base Class Descriptor at (0,-1,0,64)'
EXTRN	??_E?$CEncrypt@_N@@UAEPAXI@Z:PROC		; CEncrypt<bool>::`vector deleting destructor'
;	COMDAT ??_R1A@?0A@EA@?$CEncrypt@_N@@8
rdata$r	SEGMENT
??_R1A@?0A@EA@?$CEncrypt@_N@@8 DD FLAT:??_R0?AV?$CEncrypt@_N@@@8 ; CEncrypt<bool>::`RTTI Base Class Descriptor at (0,-1,0,64)'
	DD	00H
	DD	00H
	DD	0ffffffffH
	DD	00H
	DD	040H
	DD	FLAT:??_R3?$CEncrypt@_N@@8
rdata$r	ENDS
;	COMDAT ??_R2?$CEncrypt@_N@@8
rdata$r	SEGMENT
??_R2?$CEncrypt@_N@@8 DD FLAT:??_R1A@?0A@EA@?$CEncrypt@_N@@8 ; CEncrypt<bool>::`RTTI Base Class Array'
rdata$r	ENDS
;	COMDAT ??_R3?$CEncrypt@_N@@8
rdata$r	SEGMENT
??_R3?$CEncrypt@_N@@8 DD 00H				; CEncrypt<bool>::`RTTI Class Hierarchy Descriptor'
	DD	00H
	DD	01H
	DD	FLAT:??_R2?$CEncrypt@_N@@8
rdata$r	ENDS
;	COMDAT ??_R0?AV?$CEncrypt@_N@@@8
_DATA	SEGMENT
??_R0?AV?$CEncrypt@_N@@@8 DD FLAT:??_7type_info@@6B@	; CEncrypt<bool> `RTTI Type Descriptor'
	DD	00H
	DB	'.?AV?$CEncrypt@_N@@', 00H
_DATA	ENDS
;	COMDAT ??_R4?$CEncrypt@_N@@6B@
rdata$r	SEGMENT
??_R4?$CEncrypt@_N@@6B@ DD 00H				; CEncrypt<bool>::`RTTI Complete Object Locator'
	DD	00H
	DD	00H
	DD	FLAT:??_R0?AV?$CEncrypt@_N@@@8
	DD	FLAT:??_R3?$CEncrypt@_N@@8
rdata$r	ENDS
;	COMDAT ??_7?$CEncrypt@_N@@6B@
CONST	SEGMENT
??_7?$CEncrypt@_N@@6B@ DD FLAT:??_R4?$CEncrypt@_N@@6B@	; CEncrypt<bool>::`vftable'
	DD	FLAT:??_E?$CEncrypt@_N@@UAEPAXI@Z
; Function compile flags: /Ogsp
CONST	ENDS
;	COMDAT ??1?$CEncrypt@_N@@UAE@XZ
_TEXT	SEGMENT
??1?$CEncrypt@_N@@UAE@XZ PROC				; CEncrypt<bool>::~CEncrypt<bool>, COMDAT
; _this$ = ecx

; 127  : 	{

  00000	c7 01 00 00 00
	00		 mov	 DWORD PTR [ecx], OFFSET ??_7?$CEncrypt@_N@@6B@

; 128  : 	}

  00006	83 c1 0c	 add	 ecx, 12			; 0000000cH
  00009	e9 00 00 00 00	 jmp	 ??1ccddaabb@@UAE@XZ	; ccddaabb::~ccddaabb
??1?$CEncrypt@_N@@UAE@XZ ENDP				; CEncrypt<bool>::~CEncrypt<bool>
_TEXT	ENDS
EXTRN	??3@YAXPAX@Z:PROC				; operator delete
; Function compile flags: /Ogsp
;	COMDAT ??_G?$CEncrypt@M@@UAEPAXI@Z
_TEXT	SEGMENT
___flags$ = 8						; size = 4
??_G?$CEncrypt@M@@UAEPAXI@Z PROC			; CEncrypt<float>::`scalar deleting destructor', COMDAT
; _this$ = ecx
  00000	55		 push	 ebp
  00001	8b ec		 mov	 ebp, esp
  00003	56		 push	 esi
  00004	8b f1		 mov	 esi, ecx
  00006	8d 4e 0c	 lea	 ecx, DWORD PTR [esi+12]
  00009	c7 06 00 00 00
	00		 mov	 DWORD PTR [esi], OFFSET ??_7?$CEncrypt@M@@6B@
  0000f	e8 00 00 00 00	 call	 ??1ccddaabb@@UAE@XZ	; ccddaabb::~ccddaabb
  00014	f6 45 08 01	 test	 BYTE PTR ___flags$[ebp], 1
  00018	74 07		 je	 SHORT $LN1@scalar
  0001a	56		 push	 esi
  0001b	e8 00 00 00 00	 call	 ??3@YAXPAX@Z		; operator delete
  00020	59		 pop	 ecx
$LN1@scalar:
  00021	8b c6		 mov	 eax, esi
  00023	5e		 pop	 esi
  00024	5d		 pop	 ebp
  00025	c2 04 00	 ret	 4
??_G?$CEncrypt@M@@UAEPAXI@Z ENDP			; CEncrypt<float>::`scalar deleting destructor'
; Function compile flags: /Ogsp
_TEXT	ENDS
;	COMDAT ??_G?$CEncrypt@K@@UAEPAXI@Z
_TEXT	SEGMENT
___flags$ = 8						; size = 4
??_G?$CEncrypt@K@@UAEPAXI@Z PROC			; CEncrypt<unsigned long>::`scalar deleting destructor', COMDAT
; _this$ = ecx
  00000	55		 push	 ebp
  00001	8b ec		 mov	 ebp, esp
  00003	56		 push	 esi
  00004	8b f1		 mov	 esi, ecx
  00006	8d 4e 0c	 lea	 ecx, DWORD PTR [esi+12]
  00009	c7 06 00 00 00
	00		 mov	 DWORD PTR [esi], OFFSET ??_7?$CEncrypt@K@@6B@
  0000f	e8 00 00 00 00	 call	 ??1ccddaabb@@UAE@XZ	; ccddaabb::~ccddaabb
  00014	f6 45 08 01	 test	 BYTE PTR ___flags$[ebp], 1
  00018	74 07		 je	 SHORT $LN1@scalar@2
  0001a	56		 push	 esi
  0001b	e8 00 00 00 00	 call	 ??3@YAXPAX@Z		; operator delete
  00020	59		 pop	 ecx
$LN1@scalar@2:
  00021	8b c6		 mov	 eax, esi
  00023	5e		 pop	 esi
  00024	5d		 pop	 ebp
  00025	c2 04 00	 ret	 4
??_G?$CEncrypt@K@@UAEPAXI@Z ENDP			; CEncrypt<unsigned long>::`scalar deleting destructor'
; Function compile flags: /Ogsp
_TEXT	ENDS
;	COMDAT ??_G?$CEncrypt@_N@@UAEPAXI@Z
_TEXT	SEGMENT
___flags$ = 8						; size = 4
??_G?$CEncrypt@_N@@UAEPAXI@Z PROC			; CEncrypt<bool>::`scalar deleting destructor', COMDAT
; _this$ = ecx
  00000	55		 push	 ebp
  00001	8b ec		 mov	 ebp, esp
  00003	56		 push	 esi
  00004	8b f1		 mov	 esi, ecx
  00006	8d 4e 0c	 lea	 ecx, DWORD PTR [esi+12]
  00009	c7 06 00 00 00
	00		 mov	 DWORD PTR [esi], OFFSET ??_7?$CEncrypt@_N@@6B@
  0000f	e8 00 00 00 00	 call	 ??1ccddaabb@@UAE@XZ	; ccddaabb::~ccddaabb
  00014	f6 45 08 01	 test	 BYTE PTR ___flags$[ebp], 1
  00018	74 07		 je	 SHORT $LN1@scalar@3
  0001a	56		 push	 esi
  0001b	e8 00 00 00 00	 call	 ??3@YAXPAX@Z		; operator delete
  00020	59		 pop	 ecx
$LN1@scalar@3:
  00021	8b c6		 mov	 eax, esi
  00023	5e		 pop	 esi
  00024	5d		 pop	 ebp
  00025	c2 04 00	 ret	 4
??_G?$CEncrypt@_N@@UAEPAXI@Z ENDP			; CEncrypt<bool>::`scalar deleting destructor'
_TEXT	ENDS
PUBLIC	?EncryptValueToPool@?$CEncrypt@M@@AAEXPBD@Z	; CEncrypt<float>::EncryptValueToPool
EXTRN	?EncryptByte@ccddaabb@@QAEXPBDPADH@Z:PROC	; ccddaabb::EncryptByte
; Function compile flags: /Ogsp
;	COMDAT ?EncryptValueToPool@?$CEncrypt@M@@AAEXPBD@Z
_TEXT	SEGMENT
_value$ = 8						; size = 4
?EncryptValueToPool@?$CEncrypt@M@@AAEXPBD@Z PROC	; CEncrypt<float>::EncryptValueToPool, COMDAT
; _this$ = ecx

; 67   : 	{

  00000	55		 push	 ebp
  00001	8b ec		 mov	 ebp, esp

; 68   : 		m_RC5.EncryptByte( value, m_MemPool, max(m_ValueSize, DEFAULT_ENCRYPT) );

  00003	0f b7 41 06	 movzx	 eax, WORD PTR [ecx+6]
  00007	83 f8 04	 cmp	 eax, 4
  0000a	77 03		 ja	 SHORT $LN4@EncryptVal
  0000c	6a 04		 push	 4
  0000e	58		 pop	 eax
$LN4@EncryptVal:
  0000f	50		 push	 eax
  00010	8d 41 1c	 lea	 eax, DWORD PTR [ecx+28]
  00013	50		 push	 eax
  00014	ff 75 08	 push	 DWORD PTR _value$[ebp]
  00017	83 c1 0c	 add	 ecx, 12			; 0000000cH
  0001a	e8 00 00 00 00	 call	 ?EncryptByte@ccddaabb@@QAEXPBDPADH@Z ; ccddaabb::EncryptByte

; 69   : 		
; 70   : 	}

  0001f	5d		 pop	 ebp
  00020	c2 04 00	 ret	 4
?EncryptValueToPool@?$CEncrypt@M@@AAEXPBD@Z ENDP	; CEncrypt<float>::EncryptValueToPool
_TEXT	ENDS
PUBLIC	?Init@?$CEncrypt@M@@AAEXXZ			; CEncrypt<float>::Init
EXTRN	?Setup@ccddaabb@@QAEXPBDHH@Z:PROC		; ccddaabb::Setup
EXTRN	__imp__rand:PROC
EXTRN	__imp__timeGetTime@0:PROC
EXTRN	__imp__GetCurrentProcessId@0:PROC
; Function compile flags: /Ogsp
;	COMDAT ?Init@?$CEncrypt@M@@AAEXXZ
_TEXT	SEGMENT
_pid$ = -8						; size = 4
_tick$ = -4						; size = 4
?Init@?$CEncrypt@M@@AAEXXZ PROC				; CEncrypt<float>::Init, COMDAT
; _this$ = ecx

; 73   : 	{

  00000	55		 push	 ebp
  00001	8b ec		 mov	 ebp, esp
  00003	51		 push	 ecx
  00004	51		 push	 ecx
  00005	53		 push	 ebx
  00006	56		 push	 esi
  00007	57		 push	 edi
  00008	8b f1		 mov	 esi, ecx

; 74   : 		DWORD pid = GetCurrentProcessId();

  0000a	ff 15 00 00 00
	00		 call	 DWORD PTR __imp__GetCurrentProcessId@0
  00010	89 45 f8	 mov	 DWORD PTR _pid$[ebp], eax

; 75   : 		DWORD tick = timeGetTime();

  00013	ff 15 00 00 00
	00		 call	 DWORD PTR __imp__timeGetTime@0

; 76   : 		m_ValueSize    = sizeof(type);
; 77   : 		m_MemPoolPos   = (unsigned short)( rand()+pid+tick )%(MAX_MEM_POOL-m_ValueSize);

  00019	8b 3d 00 00 00
	00		 mov	 edi, DWORD PTR __imp__rand
  0001f	89 45 fc	 mov	 DWORD PTR _tick$[ebp], eax
  00022	6a 04		 push	 4
  00024	58		 pop	 eax
  00025	66 89 46 06	 mov	 WORD PTR [esi+6], ax
  00029	ff d7		 call	 edi
  0002b	03 45 f8	 add	 eax, DWORD PTR _pid$[ebp]
  0002e	0f b7 4e 06	 movzx	 ecx, WORD PTR [esi+6]
  00032	03 45 fc	 add	 eax, DWORD PTR _tick$[ebp]
  00035	6a 0c		 push	 12			; 0000000cH
  00037	0f b7 c0	 movzx	 eax, ax
  0003a	5b		 pop	 ebx
  0003b	99		 cdq
  0003c	2b d9		 sub	 ebx, ecx
  0003e	f7 fb		 idiv	 ebx
  00040	66 89 56 04	 mov	 WORD PTR [esi+4], dx

; 78   : 		m_EncryptSeed  = (char)( rand()+pid+tick )%256;

  00044	ff d7		 call	 edi
  00046	02 45 f8	 add	 al, BYTE PTR _pid$[ebp]
  00049	02 45 fc	 add	 al, BYTE PTR _tick$[ebp]
  0004c	0f be c0	 movsx	 eax, al
  0004f	25 ff 00 00 80	 and	 eax, -2147483393	; 800000ffH
  00054	79 07		 jns	 SHORT $LN8@Init
  00056	48		 dec	 eax
  00057	0d 00 ff ff ff	 or	 eax, -256		; ffffff00H
  0005c	40		 inc	 eax
$LN8@Init:
  0005d	88 46 08	 mov	 BYTE PTR [esi+8], al

; 79   : 
; 80   : 		for (int i = 0; i < MAX_MEM_POOL ; i++)

  00060	33 db		 xor	 ebx, ebx
$LL3@Init:

; 81   : 			m_MemPool[i] = (char)( rand()+pid+tick )%256; // 더미

  00062	ff d7		 call	 edi
  00064	02 45 f8	 add	 al, BYTE PTR _pid$[ebp]
  00067	02 45 fc	 add	 al, BYTE PTR _tick$[ebp]
  0006a	0f be c0	 movsx	 eax, al
  0006d	25 ff 00 00 80	 and	 eax, -2147483393	; 800000ffH
  00072	79 07		 jns	 SHORT $LN9@Init
  00074	48		 dec	 eax
  00075	0d 00 ff ff ff	 or	 eax, -256		; ffffff00H
  0007a	40		 inc	 eax
$LN9@Init:
  0007b	88 44 1e 1c	 mov	 BYTE PTR [esi+ebx+28], al
  0007f	43		 inc	 ebx
  00080	83 fb 0c	 cmp	 ebx, 12			; 0000000cH
  00083	7c dd		 jl	 SHORT $LL3@Init

; 82   : 
; 83   : 		//UJ 130913, 최적화: szKey 사용안하도록 간략화
; 84   : 		//char szKey[ccddaabb::KEY_SIZE];//="";
; 85   : 		//for (int i = 0; i < ccddaabb::KEY_SIZE  ; i++)
; 86   : 		//	szKey[i] = (char)( rand()+pid+tick )%256; // 더미
; 87   : 		m_RC5.Setup( NULL, pid, tick );

  00085	ff 75 fc	 push	 DWORD PTR _tick$[ebp]
  00088	8d 4e 0c	 lea	 ecx, DWORD PTR [esi+12]
  0008b	ff 75 f8	 push	 DWORD PTR _pid$[ebp]
  0008e	6a 00		 push	 0
  00090	e8 00 00 00 00	 call	 ?Setup@ccddaabb@@QAEXPBDHH@Z ; ccddaabb::Setup
  00095	5f		 pop	 edi
  00096	5e		 pop	 esi
  00097	5b		 pop	 ebx

; 88   : 
; 89   : #ifdef _NOTUSE
; 90   : 		m_value        = 0;
; 91   : 		EncryptValueToPool((char*)&m_value);
; 92   : 		Debug();
; 93   : #endif
; 94   : 	}

  00098	c9		 leave
  00099	c3		 ret	 0
?Init@?$CEncrypt@M@@AAEXXZ ENDP				; CEncrypt<float>::Init
_TEXT	ENDS
PUBLIC	?DecryptValueToPool@?$CEncrypt@M@@QAEXPAM@Z	; CEncrypt<float>::DecryptValueToPool
EXTRN	?DecryptByte@ccddaabb@@QBEXPBDPADH@Z:PROC	; ccddaabb::DecryptByte
; Function compile flags: /Ogsp
;	COMDAT ?DecryptValueToPool@?$CEncrypt@M@@QAEXPAM@Z
_TEXT	SEGMENT
_value$ = 8						; size = 4
?DecryptValueToPool@?$CEncrypt@M@@QAEXPAM@Z PROC	; CEncrypt<float>::DecryptValueToPool, COMDAT
; _this$ = ecx

; 1648 : 	{

  00000	55		 push	 ebp
  00001	8b ec		 mov	 ebp, esp
  00003	56		 push	 esi

; 1649 : 		m_RC5.DecryptByte( m_MemPool, m_TempMem, 4 );

  00004	8d 71 28	 lea	 esi, DWORD PTR [ecx+40]
  00007	6a 04		 push	 4
  00009	8d 41 1c	 lea	 eax, DWORD PTR [ecx+28]
  0000c	56		 push	 esi
  0000d	50		 push	 eax
  0000e	83 c1 0c	 add	 ecx, 12			; 0000000cH
  00011	e8 00 00 00 00	 call	 ?DecryptByte@ccddaabb@@QBEXPBDPADH@Z ; ccddaabb::DecryptByte

; 1650 : 		*value = *((float*)m_TempMem);

  00016	d9 06		 fld	 DWORD PTR [esi]
  00018	8b 45 08	 mov	 eax, DWORD PTR _value$[ebp]
  0001b	d9 18		 fstp	 DWORD PTR [eax]
  0001d	5e		 pop	 esi

; 1651 : 	}

  0001e	5d		 pop	 ebp
  0001f	c2 04 00	 ret	 4
?DecryptValueToPool@?$CEncrypt@M@@QAEXPAM@Z ENDP	; CEncrypt<float>::DecryptValueToPool
_TEXT	ENDS
PUBLIC	?EncryptValueToPool@?$CEncrypt@K@@AAEXPBD@Z	; CEncrypt<unsigned long>::EncryptValueToPool
; Function compile flags: /Ogsp
;	COMDAT ?EncryptValueToPool@?$CEncrypt@K@@AAEXPBD@Z
_TEXT	SEGMENT
_value$ = 8						; size = 4
?EncryptValueToPool@?$CEncrypt@K@@AAEXPBD@Z PROC	; CEncrypt<unsigned long>::EncryptValueToPool, COMDAT
; _this$ = ecx

; 67   : 	{

  00000	55		 push	 ebp
  00001	8b ec		 mov	 ebp, esp

; 68   : 		m_RC5.EncryptByte( value, m_MemPool, max(m_ValueSize, DEFAULT_ENCRYPT) );

  00003	0f b7 41 06	 movzx	 eax, WORD PTR [ecx+6]
  00007	83 f8 04	 cmp	 eax, 4
  0000a	77 03		 ja	 SHORT $LN4@EncryptVal@2
  0000c	6a 04		 push	 4
  0000e	58		 pop	 eax
$LN4@EncryptVal@2:
  0000f	50		 push	 eax
  00010	8d 41 1c	 lea	 eax, DWORD PTR [ecx+28]
  00013	50		 push	 eax
  00014	ff 75 08	 push	 DWORD PTR _value$[ebp]
  00017	83 c1 0c	 add	 ecx, 12			; 0000000cH
  0001a	e8 00 00 00 00	 call	 ?EncryptByte@ccddaabb@@QAEXPBDPADH@Z ; ccddaabb::EncryptByte

; 69   : 		
; 70   : 	}

  0001f	5d		 pop	 ebp
  00020	c2 04 00	 ret	 4
?EncryptValueToPool@?$CEncrypt@K@@AAEXPBD@Z ENDP	; CEncrypt<unsigned long>::EncryptValueToPool
_TEXT	ENDS
PUBLIC	?Init@?$CEncrypt@K@@AAEXXZ			; CEncrypt<unsigned long>::Init
; Function compile flags: /Ogsp
;	COMDAT ?Init@?$CEncrypt@K@@AAEXXZ
_TEXT	SEGMENT
_pid$ = -8						; size = 4
_tick$ = -4						; size = 4
?Init@?$CEncrypt@K@@AAEXXZ PROC				; CEncrypt<unsigned long>::Init, COMDAT
; _this$ = ecx

; 73   : 	{

  00000	55		 push	 ebp
  00001	8b ec		 mov	 ebp, esp
  00003	51		 push	 ecx
  00004	51		 push	 ecx
  00005	53		 push	 ebx
  00006	56		 push	 esi
  00007	57		 push	 edi
  00008	8b f1		 mov	 esi, ecx

; 74   : 		DWORD pid = GetCurrentProcessId();

  0000a	ff 15 00 00 00
	00		 call	 DWORD PTR __imp__GetCurrentProcessId@0
  00010	89 45 f8	 mov	 DWORD PTR _pid$[ebp], eax

; 75   : 		DWORD tick = timeGetTime();

  00013	ff 15 00 00 00
	00		 call	 DWORD PTR __imp__timeGetTime@0

; 76   : 		m_ValueSize    = sizeof(type);
; 77   : 		m_MemPoolPos   = (unsigned short)( rand()+pid+tick )%(MAX_MEM_POOL-m_ValueSize);

  00019	8b 3d 00 00 00
	00		 mov	 edi, DWORD PTR __imp__rand
  0001f	89 45 fc	 mov	 DWORD PTR _tick$[ebp], eax
  00022	6a 04		 push	 4
  00024	58		 pop	 eax
  00025	66 89 46 06	 mov	 WORD PTR [esi+6], ax
  00029	ff d7		 call	 edi
  0002b	03 45 f8	 add	 eax, DWORD PTR _pid$[ebp]
  0002e	0f b7 4e 06	 movzx	 ecx, WORD PTR [esi+6]
  00032	03 45 fc	 add	 eax, DWORD PTR _tick$[ebp]
  00035	6a 0c		 push	 12			; 0000000cH
  00037	0f b7 c0	 movzx	 eax, ax
  0003a	5b		 pop	 ebx
  0003b	99		 cdq
  0003c	2b d9		 sub	 ebx, ecx
  0003e	f7 fb		 idiv	 ebx
  00040	66 89 56 04	 mov	 WORD PTR [esi+4], dx

; 78   : 		m_EncryptSeed  = (char)( rand()+pid+tick )%256;

  00044	ff d7		 call	 edi
  00046	02 45 f8	 add	 al, BYTE PTR _pid$[ebp]
  00049	02 45 fc	 add	 al, BYTE PTR _tick$[ebp]
  0004c	0f be c0	 movsx	 eax, al
  0004f	25 ff 00 00 80	 and	 eax, -2147483393	; 800000ffH
  00054	79 07		 jns	 SHORT $LN8@Init@2
  00056	48		 dec	 eax
  00057	0d 00 ff ff ff	 or	 eax, -256		; ffffff00H
  0005c	40		 inc	 eax
$LN8@Init@2:
  0005d	88 46 08	 mov	 BYTE PTR [esi+8], al

; 79   : 
; 80   : 		for (int i = 0; i < MAX_MEM_POOL ; i++)

  00060	33 db		 xor	 ebx, ebx
$LL3@Init@2:

; 81   : 			m_MemPool[i] = (char)( rand()+pid+tick )%256; // 더미

  00062	ff d7		 call	 edi
  00064	02 45 f8	 add	 al, BYTE PTR _pid$[ebp]
  00067	02 45 fc	 add	 al, BYTE PTR _tick$[ebp]
  0006a	0f be c0	 movsx	 eax, al
  0006d	25 ff 00 00 80	 and	 eax, -2147483393	; 800000ffH
  00072	79 07		 jns	 SHORT $LN9@Init@2
  00074	48		 dec	 eax
  00075	0d 00 ff ff ff	 or	 eax, -256		; ffffff00H
  0007a	40		 inc	 eax
$LN9@Init@2:
  0007b	88 44 1e 1c	 mov	 BYTE PTR [esi+ebx+28], al
  0007f	43		 inc	 ebx
  00080	83 fb 0c	 cmp	 ebx, 12			; 0000000cH
  00083	7c dd		 jl	 SHORT $LL3@Init@2

; 82   : 
; 83   : 		//UJ 130913, 최적화: szKey 사용안하도록 간략화
; 84   : 		//char szKey[ccddaabb::KEY_SIZE];//="";
; 85   : 		//for (int i = 0; i < ccddaabb::KEY_SIZE  ; i++)
; 86   : 		//	szKey[i] = (char)( rand()+pid+tick )%256; // 더미
; 87   : 		m_RC5.Setup( NULL, pid, tick );

  00085	ff 75 fc	 push	 DWORD PTR _tick$[ebp]
  00088	8d 4e 0c	 lea	 ecx, DWORD PTR [esi+12]
  0008b	ff 75 f8	 push	 DWORD PTR _pid$[ebp]
  0008e	6a 00		 push	 0
  00090	e8 00 00 00 00	 call	 ?Setup@ccddaabb@@QAEXPBDHH@Z ; ccddaabb::Setup
  00095	5f		 pop	 edi
  00096	5e		 pop	 esi
  00097	5b		 pop	 ebx

; 88   : 
; 89   : #ifdef _NOTUSE
; 90   : 		m_value        = 0;
; 91   : 		EncryptValueToPool((char*)&m_value);
; 92   : 		Debug();
; 93   : #endif
; 94   : 	}

  00098	c9		 leave
  00099	c3		 ret	 0
?Init@?$CEncrypt@K@@AAEXXZ ENDP				; CEncrypt<unsigned long>::Init
_TEXT	ENDS
PUBLIC	?DecryptValueToPool@?$CEncrypt@K@@QAEXPAK@Z	; CEncrypt<unsigned long>::DecryptValueToPool
; Function compile flags: /Ogsp
;	COMDAT ?DecryptValueToPool@?$CEncrypt@K@@QAEXPAK@Z
_TEXT	SEGMENT
_value$ = 8						; size = 4
?DecryptValueToPool@?$CEncrypt@K@@QAEXPAK@Z PROC	; CEncrypt<unsigned long>::DecryptValueToPool, COMDAT
; _this$ = ecx

; 1256 : 	{

  00000	55		 push	 ebp
  00001	8b ec		 mov	 ebp, esp
  00003	56		 push	 esi

; 1257 : 		m_RC5.DecryptByte( m_MemPool, m_TempMem, 4 );

  00004	8d 71 28	 lea	 esi, DWORD PTR [ecx+40]
  00007	6a 04		 push	 4
  00009	8d 41 1c	 lea	 eax, DWORD PTR [ecx+28]
  0000c	56		 push	 esi
  0000d	50		 push	 eax
  0000e	83 c1 0c	 add	 ecx, 12			; 0000000cH
  00011	e8 00 00 00 00	 call	 ?DecryptByte@ccddaabb@@QBEXPBDPADH@Z ; ccddaabb::DecryptByte

; 1258 : 		*value = *((DWORD*)m_TempMem);

  00016	8b 06		 mov	 eax, DWORD PTR [esi]
  00018	8b 4d 08	 mov	 ecx, DWORD PTR _value$[ebp]
  0001b	89 01		 mov	 DWORD PTR [ecx], eax
  0001d	5e		 pop	 esi

; 1259 : 	}

  0001e	5d		 pop	 ebp
  0001f	c2 04 00	 ret	 4
?DecryptValueToPool@?$CEncrypt@K@@QAEXPAK@Z ENDP	; CEncrypt<unsigned long>::DecryptValueToPool
_TEXT	ENDS
PUBLIC	?EncryptValueToPool@?$CEncrypt@_N@@AAEXPBD@Z	; CEncrypt<bool>::EncryptValueToPool
; Function compile flags: /Ogsp
;	COMDAT ?EncryptValueToPool@?$CEncrypt@_N@@AAEXPBD@Z
_TEXT	SEGMENT
_value$ = 8						; size = 4
?EncryptValueToPool@?$CEncrypt@_N@@AAEXPBD@Z PROC	; CEncrypt<bool>::EncryptValueToPool, COMDAT
; _this$ = ecx

; 67   : 	{

  00000	55		 push	 ebp
  00001	8b ec		 mov	 ebp, esp

; 68   : 		m_RC5.EncryptByte( value, m_MemPool, max(m_ValueSize, DEFAULT_ENCRYPT) );

  00003	0f b7 41 06	 movzx	 eax, WORD PTR [ecx+6]
  00007	83 f8 04	 cmp	 eax, 4
  0000a	77 03		 ja	 SHORT $LN4@EncryptVal@3
  0000c	6a 04		 push	 4
  0000e	58		 pop	 eax
$LN4@EncryptVal@3:
  0000f	50		 push	 eax
  00010	8d 41 1c	 lea	 eax, DWORD PTR [ecx+28]
  00013	50		 push	 eax
  00014	ff 75 08	 push	 DWORD PTR _value$[ebp]
  00017	83 c1 0c	 add	 ecx, 12			; 0000000cH
  0001a	e8 00 00 00 00	 call	 ?EncryptByte@ccddaabb@@QAEXPBDPADH@Z ; ccddaabb::EncryptByte

; 69   : 		
; 70   : 	}

  0001f	5d		 pop	 ebp
  00020	c2 04 00	 ret	 4
?EncryptValueToPool@?$CEncrypt@_N@@AAEXPBD@Z ENDP	; CEncrypt<bool>::EncryptValueToPool
_TEXT	ENDS
PUBLIC	?Init@?$CEncrypt@_N@@AAEXXZ			; CEncrypt<bool>::Init
; Function compile flags: /Ogsp
;	COMDAT ?Init@?$CEncrypt@_N@@AAEXXZ
_TEXT	SEGMENT
_pid$ = -8						; size = 4
_tick$ = -4						; size = 4
?Init@?$CEncrypt@_N@@AAEXXZ PROC			; CEncrypt<bool>::Init, COMDAT
; _this$ = ecx

; 73   : 	{

  00000	55		 push	 ebp
  00001	8b ec		 mov	 ebp, esp
  00003	51		 push	 ecx
  00004	51		 push	 ecx
  00005	53		 push	 ebx
  00006	56		 push	 esi
  00007	57		 push	 edi
  00008	8b f1		 mov	 esi, ecx

; 74   : 		DWORD pid = GetCurrentProcessId();

  0000a	ff 15 00 00 00
	00		 call	 DWORD PTR __imp__GetCurrentProcessId@0
  00010	89 45 f8	 mov	 DWORD PTR _pid$[ebp], eax

; 75   : 		DWORD tick = timeGetTime();

  00013	ff 15 00 00 00
	00		 call	 DWORD PTR __imp__timeGetTime@0

; 76   : 		m_ValueSize    = sizeof(type);
; 77   : 		m_MemPoolPos   = (unsigned short)( rand()+pid+tick )%(MAX_MEM_POOL-m_ValueSize);

  00019	8b 3d 00 00 00
	00		 mov	 edi, DWORD PTR __imp__rand
  0001f	89 45 fc	 mov	 DWORD PTR _tick$[ebp], eax
  00022	33 c0		 xor	 eax, eax
  00024	40		 inc	 eax
  00025	66 89 46 06	 mov	 WORD PTR [esi+6], ax
  00029	ff d7		 call	 edi
  0002b	03 45 f8	 add	 eax, DWORD PTR _pid$[ebp]
  0002e	0f b7 4e 06	 movzx	 ecx, WORD PTR [esi+6]
  00032	03 45 fc	 add	 eax, DWORD PTR _tick$[ebp]
  00035	6a 0c		 push	 12			; 0000000cH
  00037	0f b7 c0	 movzx	 eax, ax
  0003a	5b		 pop	 ebx
  0003b	99		 cdq
  0003c	2b d9		 sub	 ebx, ecx
  0003e	f7 fb		 idiv	 ebx
  00040	66 89 56 04	 mov	 WORD PTR [esi+4], dx

; 78   : 		m_EncryptSeed  = (char)( rand()+pid+tick )%256;

  00044	ff d7		 call	 edi
  00046	02 45 f8	 add	 al, BYTE PTR _pid$[ebp]
  00049	02 45 fc	 add	 al, BYTE PTR _tick$[ebp]
  0004c	0f be c0	 movsx	 eax, al
  0004f	25 ff 00 00 80	 and	 eax, -2147483393	; 800000ffH
  00054	79 07		 jns	 SHORT $LN8@Init@3
  00056	48		 dec	 eax
  00057	0d 00 ff ff ff	 or	 eax, -256		; ffffff00H
  0005c	40		 inc	 eax
$LN8@Init@3:
  0005d	88 46 08	 mov	 BYTE PTR [esi+8], al

; 79   : 
; 80   : 		for (int i = 0; i < MAX_MEM_POOL ; i++)

  00060	33 db		 xor	 ebx, ebx
$LL3@Init@3:

; 81   : 			m_MemPool[i] = (char)( rand()+pid+tick )%256; // 더미

  00062	ff d7		 call	 edi
  00064	02 45 f8	 add	 al, BYTE PTR _pid$[ebp]
  00067	02 45 fc	 add	 al, BYTE PTR _tick$[ebp]
  0006a	0f be c0	 movsx	 eax, al
  0006d	25 ff 00 00 80	 and	 eax, -2147483393	; 800000ffH
  00072	79 07		 jns	 SHORT $LN9@Init@3
  00074	48		 dec	 eax
  00075	0d 00 ff ff ff	 or	 eax, -256		; ffffff00H
  0007a	40		 inc	 eax
$LN9@Init@3:
  0007b	88 44 1e 1c	 mov	 BYTE PTR [esi+ebx+28], al
  0007f	43		 inc	 ebx
  00080	83 fb 0c	 cmp	 ebx, 12			; 0000000cH
  00083	7c dd		 jl	 SHORT $LL3@Init@3

; 82   : 
; 83   : 		//UJ 130913, 최적화: szKey 사용안하도록 간략화
; 84   : 		//char szKey[ccddaabb::KEY_SIZE];//="";
; 85   : 		//for (int i = 0; i < ccddaabb::KEY_SIZE  ; i++)
; 86   : 		//	szKey[i] = (char)( rand()+pid+tick )%256; // 더미
; 87   : 		m_RC5.Setup( NULL, pid, tick );

  00085	ff 75 fc	 push	 DWORD PTR _tick$[ebp]
  00088	8d 4e 0c	 lea	 ecx, DWORD PTR [esi+12]
  0008b	ff 75 f8	 push	 DWORD PTR _pid$[ebp]
  0008e	6a 00		 push	 0
  00090	e8 00 00 00 00	 call	 ?Setup@ccddaabb@@QAEXPBDHH@Z ; ccddaabb::Setup
  00095	5f		 pop	 edi
  00096	5e		 pop	 esi
  00097	5b		 pop	 ebx

; 88   : 
; 89   : #ifdef _NOTUSE
; 90   : 		m_value        = 0;
; 91   : 		EncryptValueToPool((char*)&m_value);
; 92   : 		Debug();
; 93   : #endif
; 94   : 	}

  00098	c9		 leave
  00099	c3		 ret	 0
?Init@?$CEncrypt@_N@@AAEXXZ ENDP			; CEncrypt<bool>::Init
_TEXT	ENDS
PUBLIC	?DecryptValueToPool@?$CEncrypt@_N@@QAEXPA_N@Z	; CEncrypt<bool>::DecryptValueToPool
; Function compile flags: /Ogsp
;	COMDAT ?DecryptValueToPool@?$CEncrypt@_N@@QAEXPA_N@Z
_TEXT	SEGMENT
_value$ = 8						; size = 4
?DecryptValueToPool@?$CEncrypt@_N@@QAEXPA_N@Z PROC	; CEncrypt<bool>::DecryptValueToPool, COMDAT
; _this$ = ecx

; 219  : 	{

  00000	55		 push	 ebp
  00001	8b ec		 mov	 ebp, esp
  00003	56		 push	 esi

; 220  : 		m_RC5.DecryptByte( m_MemPool, m_TempMem, 4 );

  00004	8d 71 28	 lea	 esi, DWORD PTR [ecx+40]
  00007	6a 04		 push	 4
  00009	8d 41 1c	 lea	 eax, DWORD PTR [ecx+28]
  0000c	56		 push	 esi
  0000d	50		 push	 eax
  0000e	83 c1 0c	 add	 ecx, 12			; 0000000cH
  00011	e8 00 00 00 00	 call	 ?DecryptByte@ccddaabb@@QBEXPBDPADH@Z ; ccddaabb::DecryptByte

; 221  : 		*value = *((bool*)m_TempMem);

  00016	8a 06		 mov	 al, BYTE PTR [esi]
  00018	8b 4d 08	 mov	 ecx, DWORD PTR _value$[ebp]
  0001b	88 01		 mov	 BYTE PTR [ecx], al
  0001d	5e		 pop	 esi

; 222  : 	}

  0001e	5d		 pop	 ebp
  0001f	c2 04 00	 ret	 4
?DecryptValueToPool@?$CEncrypt@_N@@QAEXPA_N@Z ENDP	; CEncrypt<bool>::DecryptValueToPool
_TEXT	ENDS
PUBLIC	??0WeaponInfo@@QAE@ABU0@@Z			; WeaponInfo::WeaponInfo
EXTRN	__imp_??0ioHashString@@QAE@ABV0@@Z:PROC
; Function compile flags: /Ogsp
;	COMDAT ??0WeaponInfo@@QAE@ABU0@@Z
_TEXT	SEGMENT
___that$ = 8						; size = 4
??0WeaponInfo@@QAE@ABU0@@Z PROC				; WeaponInfo::WeaponInfo, COMDAT
; _this$ = ecx
  00000	55		 push	 ebp
  00001	8b ec		 mov	 ebp, esp
  00003	56		 push	 esi
  00004	57		 push	 edi
  00005	8b 7d 08	 mov	 edi, DWORD PTR ___that$[ebp]
  00008	8b 07		 mov	 eax, DWORD PTR [edi]
  0000a	8b f1		 mov	 esi, ecx
  0000c	89 06		 mov	 DWORD PTR [esi], eax
  0000e	8b 47 04	 mov	 eax, DWORD PTR [edi+4]
  00011	89 46 04	 mov	 DWORD PTR [esi+4], eax
  00014	8d 47 08	 lea	 eax, DWORD PTR [edi+8]
  00017	50		 push	 eax
  00018	8d 4e 08	 lea	 ecx, DWORD PTR [esi+8]
  0001b	ff 15 00 00 00
	00		 call	 DWORD PTR __imp_??0ioHashString@@QAE@ABV0@@Z
  00021	8b 47 18	 mov	 eax, DWORD PTR [edi+24]
  00024	89 46 18	 mov	 DWORD PTR [esi+24], eax
  00027	8b 47 1c	 mov	 eax, DWORD PTR [edi+28]
  0002a	89 46 1c	 mov	 DWORD PTR [esi+28], eax
  0002d	8a 47 20	 mov	 al, BYTE PTR [edi+32]
  00030	88 46 20	 mov	 BYTE PTR [esi+32], al
  00033	8b 47 24	 mov	 eax, DWORD PTR [edi+36]
  00036	89 46 24	 mov	 DWORD PTR [esi+36], eax
  00039	5f		 pop	 edi
  0003a	8b c6		 mov	 eax, esi
  0003c	5e		 pop	 esi
  0003d	5d		 pop	 ebp
  0003e	c2 04 00	 ret	 4
??0WeaponInfo@@QAE@ABU0@@Z ENDP				; WeaponInfo::WeaponInfo
_TEXT	ENDS
PUBLIC	??_7ioComboJumpAttackSkill@@6B@			; ioComboJumpAttackSkill::`vftable'
PUBLIC	??1ioComboJumpAttackSkill@@UAE@XZ		; ioComboJumpAttackSkill::~ioComboJumpAttackSkill
PUBLIC	??_R4ioComboJumpAttackSkill@@6B@		; ioComboJumpAttackSkill::`RTTI Complete Object Locator'
PUBLIC	??_R0?AVioComboJumpAttackSkill@@@8		; ioComboJumpAttackSkill `RTTI Type Descriptor'
PUBLIC	??_R3ioComboJumpAttackSkill@@8			; ioComboJumpAttackSkill::`RTTI Class Hierarchy Descriptor'
PUBLIC	??_R2ioComboJumpAttackSkill@@8			; ioComboJumpAttackSkill::`RTTI Base Class Array'
PUBLIC	??_R1A@?0A@EA@ioComboJumpAttackSkill@@8		; ioComboJumpAttackSkill::`RTTI Base Class Descriptor at (0,-1,0,64)'
PUBLIC	??_R1A@?0A@EA@ioAttackSkill@@8			; ioAttackSkill::`RTTI Base Class Descriptor at (0,-1,0,64)'
PUBLIC	??_R0?AVioAttackSkill@@@8			; ioAttackSkill `RTTI Type Descriptor'
PUBLIC	??_R3ioAttackSkill@@8				; ioAttackSkill::`RTTI Class Hierarchy Descriptor'
PUBLIC	??_R2ioAttackSkill@@8				; ioAttackSkill::`RTTI Base Class Array'
PUBLIC	??_R1A@?0A@EA@ioSkill@@8			; ioSkill::`RTTI Base Class Descriptor at (0,-1,0,64)'
PUBLIC	??_R0?AVioSkill@@@8				; ioSkill `RTTI Type Descriptor'
PUBLIC	??_R3ioSkill@@8					; ioSkill::`RTTI Class Hierarchy Descriptor'
PUBLIC	??_R2ioSkill@@8					; ioSkill::`RTTI Base Class Array'
PUBLIC	?LoadProperty@ioComboJumpAttackSkill@@UAEXAAVioINILoader@@@Z ; ioComboJumpAttackSkill::LoadProperty
PUBLIC	?Clone@ioComboJumpAttackSkill@@UAEPAVioSkill@@XZ ; ioComboJumpAttackSkill::Clone
PUBLIC	?IsProtected@ioComboJumpAttackSkill@@UBE_NH@Z	; ioComboJumpAttackSkill::IsProtected
PUBLIC	?GetDefenseSkillBreakeType@ioSkill@@UBE?AW4DefenseBreakType@@XZ ; ioSkill::GetDefenseSkillBreakeType
PUBLIC	?GetSkillEndNextJumpAmt@ioSkill@@UBEMXZ		; ioSkill::GetSkillEndNextJumpAmt
PUBLIC	?GetSkillEndNextLandRate@ioSkill@@UBEMXZ	; ioSkill::GetSkillEndNextLandRate
PUBLIC	?GetSkillEndNextJumpMustEnable@ioSkill@@UAE?AW4SkillEndJumpType@@XZ ; ioSkill::GetSkillEndNextJumpMustEnable
PUBLIC	?EnableChangeGrapplingTargetPos@ioSkill@@UBE_NXZ ; ioSkill::EnableChangeGrapplingTargetPos
PUBLIC	?OnSkillStart@ioComboJumpAttackSkill@@UAE_NPAVioBaseChar@@@Z ; ioComboJumpAttackSkill::OnSkillStart
PUBLIC	?OnProcessState@ioComboJumpAttackSkill@@UAEXPAVioBaseChar@@PAVioPlayStage@@@Z ; ioComboJumpAttackSkill::OnProcessState
PUBLIC	?OnSkillEnd@ioComboJumpAttackSkill@@UAEXPAVioBaseChar@@@Z ; ioComboJumpAttackSkill::OnSkillEnd
PUBLIC	?ApplyAttributeToWeapon@ioComboJumpAttackSkill@@UAEXPAVioWeapon@@PAVioPlayStage@@@Z ; ioComboJumpAttackSkill::ApplyAttributeToWeapon
PUBLIC	?ApplyExtraSkillInfo@ioComboJumpAttackSkill@@UAEXPAVioBaseChar@@PAVioPlayStage@@AAVSP2Packet@@@Z ; ioComboJumpAttackSkill::ApplyExtraSkillInfo
PUBLIC	?IsInvisibleBottomCircle@ioSkill@@UAE_NPAVioBaseChar@@@Z ; ioSkill::IsInvisibleBottomCircle
PUBLIC	?IsCanJumpingSkill@ioSkill@@UBE_NXZ		; ioSkill::IsCanJumpingSkill
PUBLIC	?IsCanJumpingSkillOnBlowWound@ioSkill@@UBE_NXZ	; ioSkill::IsCanJumpingSkillOnBlowWound
PUBLIC	?IsCanDownSkill@ioSkill@@UBE_NXZ		; ioSkill::IsCanDownSkill
PUBLIC	?IsCanBlowWoundSkill@ioSkill@@UBE_NXZ		; ioSkill::IsCanBlowWoundSkill
PUBLIC	?IsCanWoundSkill@ioSkill@@UBE_NXZ		; ioSkill::IsCanWoundSkill
PUBLIC	?IsUseActiveCnt@ioSkill@@UBE_NXZ		; ioSkill::IsUseActiveCnt
PUBLIC	?GetMaxActiveCnt@ioSkill@@UBEHPAVioBaseChar@@@Z	; ioSkill::GetMaxActiveCnt
PUBLIC	?GetCurActiveCnt@ioSkill@@UBEHPAVioBaseChar@@@Z	; ioSkill::GetCurActiveCnt
EXTRN	??1ioAttackSkill@@UAE@XZ:PROC			; ioAttackSkill::~ioAttackSkill
EXTRN	___CxxFrameHandler3:PROC
EXTRN	@__security_check_cookie@4:PROC
EXTRN	__EH_epilog3:PROC
EXTRN	__EH_prolog3:PROC
EXTRN	?GetTypeID@ioAttackSkill@@UBEHXZ:PROC		; ioAttackSkill::GetTypeID
EXTRN	?IsCanSwitchSkill@ioSkill@@UBE_NXZ:PROC		; ioSkill::IsCanSwitchSkill
EXTRN	?IsCanSemiSwitchSkill@ioSkill@@UBE_NXZ:PROC	; ioSkill::IsCanSemiSwitchSkill
EXTRN	?IsCanCancelBySkill@ioSkill@@UBE_NPAVioBaseChar@@AAH@Z:PROC ; ioSkill::IsCanCancelBySkill
EXTRN	?IsCanUseZeroHP@ioSkill@@UBE_NPAVioBaseChar@@@Z:PROC ; ioSkill::IsCanUseZeroHP
EXTRN	?IsCanUseSkillWithCrown@ioSkill@@UAE_NPAVioBaseChar@@@Z:PROC ; ioSkill::IsCanUseSkillWithCrown
EXTRN	?IsCanUseBoss@ioSkill@@UBE_NPAVioBaseChar@@@Z:PROC ; ioSkill::IsCanUseBoss
EXTRN	?IsCanUseFootball@ioSkill@@UBE_NXZ:PROC		; ioSkill::IsCanUseFootball
EXTRN	?IsCanUseGangSiMode@ioSkill@@UBE_NXZ:PROC	; ioSkill::IsCanUseGangSiMode
EXTRN	?IsCanUseByWeaponType@ioSkill@@UBE_NPAVioBaseChar@@@Z:PROC ; ioSkill::IsCanUseByWeaponType
EXTRN	?IsCanUseThunderBirdHold@ioSkill@@UBE_NPAVioBaseChar@@@Z:PROC ; ioSkill::IsCanUseThunderBirdHold
EXTRN	?IsCanUseLimitHP@ioSkill@@UBE_NPAVioBaseChar@@@Z:PROC ; ioSkill::IsCanUseLimitHP
EXTRN	?IsCanUseSkill@ioAttackSkill@@UAE_NPAVioBaseChar@@_N@Z:PROC ; ioAttackSkill::IsCanUseSkill
EXTRN	?IsOnOffEnable@ioSkill@@UAE_NXZ:PROC		; ioSkill::IsOnOffEnable
EXTRN	?IsCanDefenseStateSkill@ioSkill@@UAE_NXZ:PROC	; ioSkill::IsCanDefenseStateSkill
EXTRN	?SetDefenseStateSkill@ioSkill@@UAEXPAVioBaseChar@@@Z:PROC ; ioSkill::SetDefenseStateSkill
EXTRN	?HasBuff@ioSkill@@UBE_NH@Z:PROC			; ioSkill::HasBuff
EXTRN	?GetBuffType@ioSkill@@UAEHH@Z:PROC		; ioSkill::GetBuffType
EXTRN	?IsEnableReserve@ioSkill@@UBE_NXZ:PROC		; ioSkill::IsEnableReserve
EXTRN	?IsCharSkipState@ioSkill@@UBE?AW4SkillCharColType@@XZ:PROC ; ioSkill::IsCharSkipState
EXTRN	?IsEntityCollisionSkipState@ioSkill@@UBE_NXZ:PROC ; ioSkill::IsEntityCollisionSkipState
EXTRN	?IsJumpState@ioSkill@@UBE_NXZ:PROC		; ioSkill::IsJumpState
EXTRN	?IsDownState@ioSkill@@UBE_NXZ:PROC		; ioSkill::IsDownState
EXTRN	?IsNoDropState@ioSkill@@UBE_NXZ:PROC		; ioSkill::IsNoDropState
EXTRN	?IsCanSendControl@ioSkill@@UBE_NXZ:PROC		; ioSkill::IsCanSendControl
EXTRN	?IsSkipState@ioSkill@@UBE_NXZ:PROC		; ioSkill::IsSkipState
EXTRN	?GetSkillMoveRate@ioSkill@@UBEMXZ:PROC		; ioSkill::GetSkillMoveRate
EXTRN	?SetSkillGrapplingState@ioSkill@@UAE_NPAVioBaseChar@@ABVioHashString@@@Z:PROC ; ioSkill::SetSkillGrapplingState
EXTRN	?GetGrapplingTargetPos@ioSkill@@UAE?AUD3DXVECTOR3@@PAVioBaseChar@@0@Z:PROC ; ioSkill::GetGrapplingTargetPos
EXTRN	?GetGrapplingTargetPos@ioSkill@@UAE?AUD3DXVECTOR3@@PAVioBaseChar@@@Z:PROC ; ioSkill::GetGrapplingTargetPos
EXTRN	?GetSkillWoundGrapplingInfo@ioSkill@@UAE?AUGrapplingSkillWoundedInfo@@XZ:PROC ; ioSkill::GetSkillWoundGrapplingInfo
EXTRN	?SetCreateWeaponDependency@ioSkill@@UAEXPAVioBaseChar@@PAVioPlayStage@@@Z:PROC ; ioSkill::SetCreateWeaponDependency
EXTRN	?SetNextSkillState@ioSkill@@UAEXPAVioBaseChar@@PAVioWeapon@@@Z:PROC ; ioSkill::SetNextSkillState
EXTRN	?OnSkillEndByWounded@ioSkill@@UAEXPAVioBaseChar@@@Z:PROC ; ioSkill::OnSkillEndByWounded
EXTRN	?OnProcessNotUseSkill@ioSkill@@UAEXPAVioBaseChar@@PAVioPlayStage@@@Z:PROC ; ioSkill::OnProcessNotUseSkill
EXTRN	?OnSkillItemRelease@ioSkill@@UAEXPAVioBaseChar@@@Z:PROC ; ioSkill::OnSkillItemRelease
EXTRN	?ApplyEquipSlotSkillExtraInfo@ioSkill@@UAEXPAVioBaseChar@@PAVioPlayStage@@AAVSP2Packet@@@Z:PROC ; ioSkill::ApplyEquipSlotSkillExtraInfo
EXTRN	?ApplyExtraPassiveSkillInfo@ioSkill@@UAEXPAVioBaseChar@@PAVioPlayStage@@AAVSP2Packet@@@Z:PROC ; ioSkill::ApplyExtraPassiveSkillInfo
EXTRN	?StartPreDelayEffect@ioAttackSkill@@UAEXPAVioBaseChar@@@Z:PROC ; ioAttackSkill::StartPreDelayEffect
EXTRN	?EndPreDelayEffect@ioAttackSkill@@UAEXPAVioBaseChar@@@Z:PROC ; ioAttackSkill::EndPreDelayEffect
EXTRN	?IsUseAutoTargetValue@ioAttackSkill@@UAE_NXZ:PROC ; ioAttackSkill::IsUseAutoTargetValue
EXTRN	?IsAutoTargetDownState@ioSkill@@UAE_NXZ:PROC	; ioSkill::IsAutoTargetDownState
EXTRN	?CheckUseBuff@ioSkill@@UAE_NPAVioBaseChar@@@Z:PROC ; ioSkill::CheckUseBuff
EXTRN	?CheckUseItemMesh@ioSkill@@UAE_NXZ:PROC		; ioSkill::CheckUseItemMesh
EXTRN	?CheckUseActiveCount@ioSkill@@UAE_NXZ:PROC	; ioSkill::CheckUseActiveCount
EXTRN	?CheckAniRotate@ioSkill@@UAEXPAVioBaseChar@@@Z:PROC ; ioSkill::CheckAniRotate
EXTRN	?IsEnableDashCheck@ioSkill@@UAE_NPAVioBaseChar@@@Z:PROC ; ioSkill::IsEnableDashCheck
EXTRN	?IsEnableMultiActive@ioSkill@@UAE_NPAVioBaseChar@@@Z:PROC ; ioSkill::IsEnableMultiActive
EXTRN	?GetAutoTargetValue@ioSkill@@UAEXAAM00@Z:PROC	; ioSkill::GetAutoTargetValue
EXTRN	?GetSkillGravityRate@ioSkill@@UAEMXZ:PROC	; ioSkill::GetSkillGravityRate
EXTRN	?GetSkillMotionName@ioSkill@@UBEABVioHashString@@XZ:PROC ; ioSkill::GetSkillMotionName
EXTRN	?HasSkillMotion@ioSkill@@UBE_NXZ:PROC		; ioSkill::HasSkillMotion
EXTRN	?GetSkillMotionRate@ioSkill@@UBEMXZ:PROC	; ioSkill::GetSkillMotionRate
EXTRN	?IsPreDelayProtect@ioSkill@@UBE_NXZ:PROC	; ioSkill::IsPreDelayProtect
EXTRN	?GetPreDelayAniName@ioSkill@@UBEABVioHashString@@XZ:PROC ; ioSkill::GetPreDelayAniName
EXTRN	?GetPreDelayTime@ioSkill@@UBEKXZ:PROC		; ioSkill::GetPreDelayTime
EXTRN	?GetPreDelayOwnerEffect@ioSkill@@UBEABVioHashString@@XZ:PROC ; ioSkill::GetPreDelayOwnerEffect
EXTRN	?GetPreDelayOtherEffect@ioSkill@@UBEABVioHashString@@XZ:PROC ; ioSkill::GetPreDelayOtherEffect
EXTRN	?SetCancelSkill@ioSkill@@UAEXPAVioBaseChar@@@Z:PROC ; ioSkill::SetCancelSkill
EXTRN	?ClearAirJump@ioSkill@@MAEXXZ:PROC		; ioSkill::ClearAirJump
EXTRN	?SetAirJump@ioSkill@@MAEXPAVioBaseChar@@HM@Z:PROC ; ioSkill::SetAirJump
EXTRN	?CheckAirJump@ioSkill@@MAEXPAVioBaseChar@@@Z:PROC ; ioSkill::CheckAirJump
EXTRN	?UseActiveCount@ioSkill@@UAE_NPAVioBaseChar@@@Z:PROC ; ioSkill::UseActiveCount
EXTRN	?GetMaxActiveCount@ioSkill@@UAEHPAVioBaseChar@@@Z:PROC ; ioSkill::GetMaxActiveCount
EXTRN	?GetCurActiveCount@ioSkill@@UAEHPAVioBaseChar@@@Z:PROC ; ioSkill::GetCurActiveCount
EXTRN	?HideHPGauge@ioSkill@@UAE_NXZ:PROC		; ioSkill::HideHPGauge
EXTRN	?SetInfoByApplyWeapon@ioSkill@@UAEXPAVioBaseChar@@0K_N@Z:PROC ; ioSkill::SetInfoByApplyWeapon
EXTRN	?SetCollisionByApplySkill@ioSkill@@UAEXXZ:PROC	; ioSkill::SetCollisionByApplySkill
EXTRN	?SetChargingRateForWeapon@ioSkill@@UAEXPAVioWeapon@@@Z:PROC ; ioSkill::SetChargingRateForWeapon
EXTRN	?CheckExceptionCamera@ioSkill@@UAE_NXZ:PROC	; ioSkill::CheckExceptionCamera
EXTRN	?GetExceptionCameraPos@ioSkill@@UAE?AUD3DXVECTOR3@@PAVioBaseChar@@@Z:PROC ; ioSkill::GetExceptionCameraPos
EXTRN	?IsFixedExceptionCamera@ioSkill@@UAE_NXZ:PROC	; ioSkill::IsFixedExceptionCamera
EXTRN	??_EioComboJumpAttackSkill@@UAEPAXI@Z:PROC	; ioComboJumpAttackSkill::`vector deleting destructor'
EXTRN	?StartPreDelayAnimation@ioAttackSkill@@MAE_NPAVioBaseChar@@@Z:PROC ; ioAttackSkill::StartPreDelayAnimation
EXTRN	?AttackSkillFire@ioAttackSkill@@MAEXPAVioBaseChar@@@Z:PROC ; ioAttackSkill::AttackSkillFire
EXTRN	?GetAttackTimeRate@ioAttackSkill@@MBEMXZ:PROC	; ioAttackSkill::GetAttackTimeRate
EXTRN	?GetAttackEndTimeRate@ioAttackSkill@@MBEMXZ:PROC ; ioAttackSkill::GetAttackEndTimeRate
EXTRN	?LoadNormalAttribute@ioAttackSkill@@MAEXAAVioINILoader@@@Z:PROC ; ioAttackSkill::LoadNormalAttribute
EXTRN	?LoadDownAttribute@ioAttackSkill@@MAEXAAVioINILoader@@@Z:PROC ; ioAttackSkill::LoadDownAttribute
EXTRN	?LoadJumpAttribute@ioAttackSkill@@MAEXAAVioINILoader@@@Z:PROC ; ioAttackSkill::LoadJumpAttribute
EXTRN	?GetAttribute@ioAttackSkill@@UAEAAUAttackAttribute@@XZ:PROC ; ioAttackSkill::GetAttribute
EXTRN	?GetAttributeConst@ioAttackSkill@@UBEABUAttackAttribute@@XZ:PROC ; ioAttackSkill::GetAttributeConst
EXTRN	?IsCanStateEscape@ioAttackSkill@@UBE_NXZ:PROC	; ioAttackSkill::IsCanStateEscape
EXTRN	?IsCanStateEscapeOnStand@ioAttackSkill@@UBE_NPAVioBaseChar@@@Z:PROC ; ioAttackSkill::IsCanStateEscapeOnStand
EXTRN	?IsCanStateEscapeOnAir@ioAttackSkill@@UBE_NPAVioBaseChar@@@Z:PROC ; ioAttackSkill::IsCanStateEscapeOnAir
EXTRN	?IsCanStateEscapeOnDown@ioAttackSkill@@UBE_NPAVioBaseChar@@@Z:PROC ; ioAttackSkill::IsCanStateEscapeOnDown
;	COMDAT ??_R2ioSkill@@8
rdata$r	SEGMENT
??_R2ioSkill@@8 DD FLAT:??_R1A@?0A@EA@ioSkill@@8	; ioSkill::`RTTI Base Class Array'
rdata$r	ENDS
;	COMDAT ??_R3ioSkill@@8
rdata$r	SEGMENT
??_R3ioSkill@@8 DD 00H					; ioSkill::`RTTI Class Hierarchy Descriptor'
	DD	00H
	DD	01H
	DD	FLAT:??_R2ioSkill@@8
rdata$r	ENDS
;	COMDAT ??_R0?AVioSkill@@@8
_DATA	SEGMENT
??_R0?AVioSkill@@@8 DD FLAT:??_7type_info@@6B@		; ioSkill `RTTI Type Descriptor'
	DD	00H
	DB	'.?AVioSkill@@', 00H
_DATA	ENDS
;	COMDAT ??_R1A@?0A@EA@ioSkill@@8
rdata$r	SEGMENT
??_R1A@?0A@EA@ioSkill@@8 DD FLAT:??_R0?AVioSkill@@@8	; ioSkill::`RTTI Base Class Descriptor at (0,-1,0,64)'
	DD	00H
	DD	00H
	DD	0ffffffffH
	DD	00H
	DD	040H
	DD	FLAT:??_R3ioSkill@@8
rdata$r	ENDS
;	COMDAT ??_R2ioAttackSkill@@8
rdata$r	SEGMENT
??_R2ioAttackSkill@@8 DD FLAT:??_R1A@?0A@EA@ioAttackSkill@@8 ; ioAttackSkill::`RTTI Base Class Array'
	DD	FLAT:??_R1A@?0A@EA@ioSkill@@8
rdata$r	ENDS
;	COMDAT ??_R3ioAttackSkill@@8
rdata$r	SEGMENT
??_R3ioAttackSkill@@8 DD 00H				; ioAttackSkill::`RTTI Class Hierarchy Descriptor'
	DD	00H
	DD	02H
	DD	FLAT:??_R2ioAttackSkill@@8
rdata$r	ENDS
;	COMDAT ??_R0?AVioAttackSkill@@@8
_DATA	SEGMENT
??_R0?AVioAttackSkill@@@8 DD FLAT:??_7type_info@@6B@	; ioAttackSkill `RTTI Type Descriptor'
	DD	00H
	DB	'.?AVioAttackSkill@@', 00H
_DATA	ENDS
;	COMDAT ??_R1A@?0A@EA@ioAttackSkill@@8
rdata$r	SEGMENT
??_R1A@?0A@EA@ioAttackSkill@@8 DD FLAT:??_R0?AVioAttackSkill@@@8 ; ioAttackSkill::`RTTI Base Class Descriptor at (0,-1,0,64)'
	DD	01H
	DD	00H
	DD	0ffffffffH
	DD	00H
	DD	040H
	DD	FLAT:??_R3ioAttackSkill@@8
rdata$r	ENDS
;	COMDAT ??_R1A@?0A@EA@ioComboJumpAttackSkill@@8
rdata$r	SEGMENT
??_R1A@?0A@EA@ioComboJumpAttackSkill@@8 DD FLAT:??_R0?AVioComboJumpAttackSkill@@@8 ; ioComboJumpAttackSkill::`RTTI Base Class Descriptor at (0,-1,0,64)'
	DD	02H
	DD	00H
	DD	0ffffffffH
	DD	00H
	DD	040H
	DD	FLAT:??_R3ioComboJumpAttackSkill@@8
rdata$r	ENDS
;	COMDAT ??_R2ioComboJumpAttackSkill@@8
rdata$r	SEGMENT
??_R2ioComboJumpAttackSkill@@8 DD FLAT:??_R1A@?0A@EA@ioComboJumpAttackSkill@@8 ; ioComboJumpAttackSkill::`RTTI Base Class Array'
	DD	FLAT:??_R1A@?0A@EA@ioAttackSkill@@8
	DD	FLAT:??_R1A@?0A@EA@ioSkill@@8
rdata$r	ENDS
;	COMDAT ??_R3ioComboJumpAttackSkill@@8
rdata$r	SEGMENT
??_R3ioComboJumpAttackSkill@@8 DD 00H			; ioComboJumpAttackSkill::`RTTI Class Hierarchy Descriptor'
	DD	00H
	DD	03H
	DD	FLAT:??_R2ioComboJumpAttackSkill@@8
rdata$r	ENDS
;	COMDAT ??_R0?AVioComboJumpAttackSkill@@@8
_DATA	SEGMENT
??_R0?AVioComboJumpAttackSkill@@@8 DD FLAT:??_7type_info@@6B@ ; ioComboJumpAttackSkill `RTTI Type Descriptor'
	DD	00H
	DB	'.?AVioComboJumpAttackSkill@@', 00H
_DATA	ENDS
;	COMDAT ??_R4ioComboJumpAttackSkill@@6B@
rdata$r	SEGMENT
??_R4ioComboJumpAttackSkill@@6B@ DD 00H			; ioComboJumpAttackSkill::`RTTI Complete Object Locator'
	DD	00H
	DD	00H
	DD	FLAT:??_R0?AVioComboJumpAttackSkill@@@8
	DD	FLAT:??_R3ioComboJumpAttackSkill@@8
rdata$r	ENDS
;	COMDAT ??_7ioComboJumpAttackSkill@@6B@
CONST	SEGMENT
??_7ioComboJumpAttackSkill@@6B@ DD FLAT:??_R4ioComboJumpAttackSkill@@6B@ ; ioComboJumpAttackSkill::`vftable'
	DD	FLAT:?LoadProperty@ioComboJumpAttackSkill@@UAEXAAVioINILoader@@@Z
	DD	FLAT:?Clone@ioComboJumpAttackSkill@@UAEPAVioSkill@@XZ
	DD	FLAT:?GetTypeID@ioAttackSkill@@UBEHXZ
	DD	FLAT:?IsProtected@ioComboJumpAttackSkill@@UBE_NH@Z
	DD	FLAT:?IsCanSwitchSkill@ioSkill@@UBE_NXZ
	DD	FLAT:?IsCanSemiSwitchSkill@ioSkill@@UBE_NXZ
	DD	FLAT:?IsCanCancelBySkill@ioSkill@@UBE_NPAVioBaseChar@@AAH@Z
	DD	FLAT:?IsCanUseZeroHP@ioSkill@@UBE_NPAVioBaseChar@@@Z
	DD	FLAT:?IsCanUseSkillWithCrown@ioSkill@@UAE_NPAVioBaseChar@@@Z
	DD	FLAT:?IsCanUseBoss@ioSkill@@UBE_NPAVioBaseChar@@@Z
	DD	FLAT:?IsCanUseFootball@ioSkill@@UBE_NXZ
	DD	FLAT:?IsCanUseGangSiMode@ioSkill@@UBE_NXZ
	DD	FLAT:?IsCanUseByWeaponType@ioSkill@@UBE_NPAVioBaseChar@@@Z
	DD	FLAT:?IsCanUseThunderBirdHold@ioSkill@@UBE_NPAVioBaseChar@@@Z
	DD	FLAT:?IsCanUseLimitHP@ioSkill@@UBE_NPAVioBaseChar@@@Z
	DD	FLAT:?IsCanUseSkill@ioAttackSkill@@UAE_NPAVioBaseChar@@_N@Z
	DD	FLAT:?IsOnOffEnable@ioSkill@@UAE_NXZ
	DD	FLAT:?IsCanDefenseStateSkill@ioSkill@@UAE_NXZ
	DD	FLAT:?SetDefenseStateSkill@ioSkill@@UAEXPAVioBaseChar@@@Z
	DD	FLAT:?GetDefenseSkillBreakeType@ioSkill@@UBE?AW4DefenseBreakType@@XZ
	DD	FLAT:?HasBuff@ioSkill@@UBE_NH@Z
	DD	FLAT:?GetBuffType@ioSkill@@UAEHH@Z
	DD	FLAT:?IsEnableReserve@ioSkill@@UBE_NXZ
	DD	FLAT:?IsSkillMotionEnd@ioComboJumpAttackSkill@@UBE_NKPAVioBaseChar@@@Z
	DD	FLAT:?IsCharSkipState@ioSkill@@UBE?AW4SkillCharColType@@XZ
	DD	FLAT:?IsEntityCollisionSkipState@ioSkill@@UBE_NXZ
	DD	FLAT:?GetSkillEndNextJumpAmt@ioSkill@@UBEMXZ
	DD	FLAT:?GetSkillEndNextLandRate@ioSkill@@UBEMXZ
	DD	FLAT:?GetSkillEndNextJumpMustEnable@ioSkill@@UAE?AW4SkillEndJumpType@@XZ
	DD	FLAT:?IsEndState@ioComboJumpAttackSkill@@UBE_NXZ
	DD	FLAT:?IsAttackEndState@ioComboJumpAttackSkill@@UBE_NXZ
	DD	FLAT:?IsJumpState@ioSkill@@UBE_NXZ
	DD	FLAT:?IsDownState@ioSkill@@UBE_NXZ
	DD	FLAT:?IsNoDropState@ioSkill@@UBE_NXZ
	DD	FLAT:?IsCanSendControl@ioSkill@@UBE_NXZ
	DD	FLAT:?IsSkipState@ioSkill@@UBE_NXZ
	DD	FLAT:?GetSkillMoveRate@ioSkill@@UBEMXZ
	DD	FLAT:?SetSkillGrapplingState@ioSkill@@UAE_NPAVioBaseChar@@ABVioHashString@@@Z
	DD	FLAT:?GetGrapplingTargetPos@ioSkill@@UAE?AUD3DXVECTOR3@@PAVioBaseChar@@0@Z
	DD	FLAT:?GetGrapplingTargetPos@ioSkill@@UAE?AUD3DXVECTOR3@@PAVioBaseChar@@@Z
	DD	FLAT:?EnableChangeGrapplingTargetPos@ioSkill@@UBE_NXZ
	DD	FLAT:?GetSkillWoundGrapplingInfo@ioSkill@@UAE?AUGrapplingSkillWoundedInfo@@XZ
	DD	FLAT:?SetCreateWeaponDependency@ioSkill@@UAEXPAVioBaseChar@@PAVioPlayStage@@@Z
	DD	FLAT:?SetNextSkillState@ioSkill@@UAEXPAVioBaseChar@@PAVioWeapon@@@Z
	DD	FLAT:?OnSkillStart@ioComboJumpAttackSkill@@UAE_NPAVioBaseChar@@@Z
	DD	FLAT:?OnProcessState@ioComboJumpAttackSkill@@UAEXPAVioBaseChar@@PAVioPlayStage@@@Z
	DD	FLAT:?OnSkillEndByWounded@ioSkill@@UAEXPAVioBaseChar@@@Z
	DD	FLAT:?OnSkillEnd@ioComboJumpAttackSkill@@UAEXPAVioBaseChar@@@Z
	DD	FLAT:?OnProcessNotUseSkill@ioSkill@@UAEXPAVioBaseChar@@PAVioPlayStage@@@Z
	DD	FLAT:?OnSkillItemRelease@ioSkill@@UAEXPAVioBaseChar@@@Z
	DD	FLAT:?ApplyAttributeToWeapon@ioComboJumpAttackSkill@@UAEXPAVioWeapon@@PAVioPlayStage@@@Z
	DD	FLAT:?ApplyExtraSkillInfo@ioComboJumpAttackSkill@@UAEXPAVioBaseChar@@PAVioPlayStage@@AAVSP2Packet@@@Z
	DD	FLAT:?ApplyEquipSlotSkillExtraInfo@ioSkill@@UAEXPAVioBaseChar@@PAVioPlayStage@@AAVSP2Packet@@@Z
	DD	FLAT:?ApplyExtraPassiveSkillInfo@ioSkill@@UAEXPAVioBaseChar@@PAVioPlayStage@@AAVSP2Packet@@@Z
	DD	FLAT:?StartPreDelayEffect@ioAttackSkill@@UAEXPAVioBaseChar@@@Z
	DD	FLAT:?EndPreDelayEffect@ioAttackSkill@@UAEXPAVioBaseChar@@@Z
	DD	FLAT:?IsUseAutoTargetValue@ioAttackSkill@@UAE_NXZ
	DD	FLAT:?IsAutoTargetDownState@ioSkill@@UAE_NXZ
	DD	FLAT:?CheckUseBuff@ioSkill@@UAE_NPAVioBaseChar@@@Z
	DD	FLAT:?CheckUseItemMesh@ioSkill@@UAE_NXZ
	DD	FLAT:?CheckUseActiveCount@ioSkill@@UAE_NXZ
	DD	FLAT:?CheckAniRotate@ioSkill@@UAEXPAVioBaseChar@@@Z
	DD	FLAT:?IsEnableDashCheck@ioSkill@@UAE_NPAVioBaseChar@@@Z
	DD	FLAT:?IsEnableMultiActive@ioSkill@@UAE_NPAVioBaseChar@@@Z
	DD	FLAT:?IsInvisibleBottomCircle@ioSkill@@UAE_NPAVioBaseChar@@@Z
	DD	FLAT:?GetAutoTargetValue@ioSkill@@UAEXAAM00@Z
	DD	FLAT:?IsCanJumpingSkill@ioSkill@@UBE_NXZ
	DD	FLAT:?IsCanJumpingSkillOnBlowWound@ioSkill@@UBE_NXZ
	DD	FLAT:?IsCanDownSkill@ioSkill@@UBE_NXZ
	DD	FLAT:?IsCanBlowWoundSkill@ioSkill@@UBE_NXZ
	DD	FLAT:?IsCanWoundSkill@ioSkill@@UBE_NXZ
	DD	FLAT:?GetSkillGravityRate@ioSkill@@UAEMXZ
	DD	FLAT:?GetSkillMotionName@ioSkill@@UBEABVioHashString@@XZ
	DD	FLAT:?HasSkillMotion@ioSkill@@UBE_NXZ
	DD	FLAT:?GetSkillMotionRate@ioSkill@@UBEMXZ
	DD	FLAT:?IsPreDelayProtect@ioSkill@@UBE_NXZ
	DD	FLAT:?GetPreDelayAniName@ioSkill@@UBEABVioHashString@@XZ
	DD	FLAT:?GetPreDelayTime@ioSkill@@UBEKXZ
	DD	FLAT:?GetPreDelayOwnerEffect@ioSkill@@UBEABVioHashString@@XZ
	DD	FLAT:?GetPreDelayOtherEffect@ioSkill@@UBEABVioHashString@@XZ
	DD	FLAT:?SetCancelSkill@ioSkill@@UAEXPAVioBaseChar@@@Z
	DD	FLAT:?ClearAirJump@ioSkill@@MAEXXZ
	DD	FLAT:?SetAirJump@ioSkill@@MAEXPAVioBaseChar@@HM@Z
	DD	FLAT:?CheckAirJump@ioSkill@@MAEXPAVioBaseChar@@@Z
	DD	FLAT:?UseActiveCount@ioSkill@@UAE_NPAVioBaseChar@@@Z
	DD	FLAT:?GetMaxActiveCount@ioSkill@@UAEHPAVioBaseChar@@@Z
	DD	FLAT:?GetCurActiveCount@ioSkill@@UAEHPAVioBaseChar@@@Z
	DD	FLAT:?HideHPGauge@ioSkill@@UAE_NXZ
	DD	FLAT:?SetInfoByApplyWeapon@ioSkill@@UAEXPAVioBaseChar@@0K_N@Z
	DD	FLAT:?SetCollisionByApplySkill@ioSkill@@UAEXXZ
	DD	FLAT:?SetChargingRateForWeapon@ioSkill@@UAEXPAVioWeapon@@@Z
	DD	FLAT:?CheckExceptionCamera@ioSkill@@UAE_NXZ
	DD	FLAT:?GetExceptionCameraPos@ioSkill@@UAE?AUD3DXVECTOR3@@PAVioBaseChar@@@Z
	DD	FLAT:?IsFixedExceptionCamera@ioSkill@@UAE_NXZ
	DD	FLAT:?IsUseActiveCnt@ioSkill@@UBE_NXZ
	DD	FLAT:?GetMaxActiveCnt@ioSkill@@UBEHPAVioBaseChar@@@Z
	DD	FLAT:?GetCurActiveCnt@ioSkill@@UBEHPAVioBaseChar@@@Z
	DD	FLAT:??_EioComboJumpAttackSkill@@UAEPAXI@Z
	DD	FLAT:?StartPreDelayAnimation@ioAttackSkill@@MAE_NPAVioBaseChar@@@Z
	DD	FLAT:?AttackSkillFire@ioAttackSkill@@MAEXPAVioBaseChar@@@Z
	DD	FLAT:?GetAttackTimeRate@ioAttackSkill@@MBEMXZ
	DD	FLAT:?GetAttackEndTimeRate@ioAttackSkill@@MBEMXZ
	DD	FLAT:?LoadNormalAttribute@ioAttackSkill@@MAEXAAVioINILoader@@@Z
	DD	FLAT:?LoadDownAttribute@ioAttackSkill@@MAEXAAVioINILoader@@@Z
	DD	FLAT:?LoadJumpAttribute@ioAttackSkill@@MAEXAAVioINILoader@@@Z
	DD	FLAT:?GetAttribute@ioAttackSkill@@UAEAAUAttackAttribute@@XZ
	DD	FLAT:?GetAttributeConst@ioAttackSkill@@UBEABUAttackAttribute@@XZ
	DD	FLAT:?IsCanStateEscape@ioAttackSkill@@UBE_NXZ
	DD	FLAT:?IsCanStateEscapeOnStand@ioAttackSkill@@UBE_NPAVioBaseChar@@@Z
	DD	FLAT:?IsCanStateEscapeOnAir@ioAttackSkill@@UBE_NPAVioBaseChar@@@Z
	DD	FLAT:?IsCanStateEscapeOnDown@ioAttackSkill@@UBE_NPAVioBaseChar@@@Z
CONST	ENDS
;	COMDAT xdata$x
xdata$x	SEGMENT
__ehfuncinfo$??1ioComboJumpAttackSkill@@UAE@XZ DD 019930522H
	DD	09H
	DD	FLAT:__unwindtable$??1ioComboJumpAttackSkill@@UAE@XZ
	DD	2 DUP(00H)
	DD	2 DUP(00H)
	DD	00H
	DD	01H
__unwindtable$??1ioComboJumpAttackSkill@@UAE@XZ DD 0ffffffffH
	DD	FLAT:__unwindfunclet$??1ioComboJumpAttackSkill@@UAE@XZ$0
	DD	00H
	DD	FLAT:__unwindfunclet$??1ioComboJumpAttackSkill@@UAE@XZ$1
	DD	01H
	DD	FLAT:__unwindfunclet$??1ioComboJumpAttackSkill@@UAE@XZ$2
	DD	02H
	DD	FLAT:__unwindfunclet$??1ioComboJumpAttackSkill@@UAE@XZ$3
	DD	03H
	DD	FLAT:__unwindfunclet$??1ioComboJumpAttackSkill@@UAE@XZ$4
	DD	04H
	DD	FLAT:__unwindfunclet$??1ioComboJumpAttackSkill@@UAE@XZ$5
	DD	05H
	DD	FLAT:__unwindfunclet$??1ioComboJumpAttackSkill@@UAE@XZ$6
	DD	06H
	DD	FLAT:__unwindfunclet$??1ioComboJumpAttackSkill@@UAE@XZ$7
	DD	07H
	DD	FLAT:__unwindfunclet$??1ioComboJumpAttackSkill@@UAE@XZ$8
; Function compile flags: /Ogsp
; File d:\lost saga for developer\youtube\tutorial\source\src\lsclient\iocombojumpattackskill.cpp
xdata$x	ENDS
;	COMDAT ??1ioComboJumpAttackSkill@@UAE@XZ
_TEXT	SEGMENT
_this$ = -16						; size = 4
__$EHRec$ = -12						; size = 12
??1ioComboJumpAttackSkill@@UAE@XZ PROC			; ioComboJumpAttackSkill::~ioComboJumpAttackSkill, COMDAT
; _this$ = ecx

; 40   : {

  00000	6a 04		 push	 4
  00002	b8 00 00 00 00	 mov	 eax, __ehhandler$??1ioComboJumpAttackSkill@@UAE@XZ
  00007	e8 00 00 00 00	 call	 __EH_prolog3
  0000c	8b f1		 mov	 esi, ecx
  0000e	89 75 f0	 mov	 DWORD PTR _this$[ebp], esi
  00011	c7 06 00 00 00
	00		 mov	 DWORD PTR [esi], OFFSET ??_7ioComboJumpAttackSkill@@6B@

; 41   : }

  00017	8b 1d 00 00 00
	00		 mov	 ebx, DWORD PTR __imp_??1ioHashString@@QAE@XZ
  0001d	8d 8e 68 12 00
	00		 lea	 ecx, DWORD PTR [esi+4712]
  00023	c7 45 fc 08 00
	00 00		 mov	 DWORD PTR __$EHRec$[ebp+8], 8
  0002a	ff d3		 call	 ebx
  0002c	bf 00 00 00 00	 mov	 edi, OFFSET ??_7?$CEncrypt@K@@6B@
  00031	8d 8e 38 12 00
	00		 lea	 ecx, DWORD PTR [esi+4664]
  00037	c6 45 fc 07	 mov	 BYTE PTR __$EHRec$[ebp+8], 7
  0003b	89 be 2c 12 00
	00		 mov	 DWORD PTR [esi+4652], edi
  00041	e8 00 00 00 00	 call	 ??1ccddaabb@@UAE@XZ	; ccddaabb::~ccddaabb
  00046	8d 8e 08 12 00
	00		 lea	 ecx, DWORD PTR [esi+4616]
  0004c	c6 45 fc 06	 mov	 BYTE PTR __$EHRec$[ebp+8], 6
  00050	89 be fc 11 00
	00		 mov	 DWORD PTR [esi+4604], edi
  00056	e8 00 00 00 00	 call	 ??1ccddaabb@@UAE@XZ	; ccddaabb::~ccddaabb
  0005b	8d 8e dc 11 00
	00		 lea	 ecx, DWORD PTR [esi+4572]
  00061	c6 45 fc 05	 mov	 BYTE PTR __$EHRec$[ebp+8], 5
  00065	ff d3		 call	 ebx
  00067	8d 8e b8 11 00
	00		 lea	 ecx, DWORD PTR [esi+4536]
  0006d	c6 45 fc 04	 mov	 BYTE PTR __$EHRec$[ebp+8], 4
  00071	89 be ac 11 00
	00		 mov	 DWORD PTR [esi+4524], edi
  00077	e8 00 00 00 00	 call	 ??1ccddaabb@@UAE@XZ	; ccddaabb::~ccddaabb
  0007c	bb 00 00 00 00	 mov	 ebx, OFFSET ??_7?$CEncrypt@M@@6B@
  00081	8d 8e 88 11 00
	00		 lea	 ecx, DWORD PTR [esi+4488]
  00087	c6 45 fc 03	 mov	 BYTE PTR __$EHRec$[ebp+8], 3
  0008b	89 9e 7c 11 00
	00		 mov	 DWORD PTR [esi+4476], ebx
  00091	e8 00 00 00 00	 call	 ??1ccddaabb@@UAE@XZ	; ccddaabb::~ccddaabb
  00096	8d 8e 54 11 00
	00		 lea	 ecx, DWORD PTR [esi+4436]
  0009c	c6 45 fc 02	 mov	 BYTE PTR __$EHRec$[ebp+8], 2
  000a0	89 be 48 11 00
	00		 mov	 DWORD PTR [esi+4424], edi
  000a6	e8 00 00 00 00	 call	 ??1ccddaabb@@UAE@XZ	; ccddaabb::~ccddaabb
  000ab	8d 8e 24 11 00
	00		 lea	 ecx, DWORD PTR [esi+4388]
  000b1	c6 45 fc 01	 mov	 BYTE PTR __$EHRec$[ebp+8], 1
  000b5	89 9e 18 11 00
	00		 mov	 DWORD PTR [esi+4376], ebx
  000bb	e8 00 00 00 00	 call	 ??1ccddaabb@@UAE@XZ	; ccddaabb::~ccddaabb
  000c0	8d 8e f4 10 00
	00		 lea	 ecx, DWORD PTR [esi+4340]
  000c6	c6 45 fc 00	 mov	 BYTE PTR __$EHRec$[ebp+8], 0
  000ca	c7 86 e8 10 00
	00 00 00 00 00	 mov	 DWORD PTR [esi+4328], OFFSET ??_7?$CEncrypt@_N@@6B@
  000d4	e8 00 00 00 00	 call	 ??1ccddaabb@@UAE@XZ	; ccddaabb::~ccddaabb
  000d9	83 4d fc ff	 or	 DWORD PTR __$EHRec$[ebp+8], -1
  000dd	8b ce		 mov	 ecx, esi
  000df	e8 00 00 00 00	 call	 ??1ioAttackSkill@@UAE@XZ ; ioAttackSkill::~ioAttackSkill
  000e4	e8 00 00 00 00	 call	 __EH_epilog3
  000e9	c3		 ret	 0
_TEXT	ENDS
;	COMDAT text$x
text$x	SEGMENT
__unwindfunclet$??1ioComboJumpAttackSkill@@UAE@XZ$0:
  00000	8b 4d f0	 mov	 ecx, DWORD PTR _this$[ebp]
  00003	e9 00 00 00 00	 jmp	 ??1ioAttackSkill@@UAE@XZ ; ioAttackSkill::~ioAttackSkill
__unwindfunclet$??1ioComboJumpAttackSkill@@UAE@XZ$1:
  00008	8b 4d f0	 mov	 ecx, DWORD PTR _this$[ebp]
  0000b	81 c1 e8 10 00
	00		 add	 ecx, 4328		; 000010e8H
  00011	e9 00 00 00 00	 jmp	 ??1?$CEncrypt@_N@@UAE@XZ ; CEncrypt<bool>::~CEncrypt<bool>
__unwindfunclet$??1ioComboJumpAttackSkill@@UAE@XZ$2:
  00016	8b 4d f0	 mov	 ecx, DWORD PTR _this$[ebp]
  00019	81 c1 18 11 00
	00		 add	 ecx, 4376		; 00001118H
  0001f	e9 00 00 00 00	 jmp	 ??1?$CEncrypt@M@@UAE@XZ	; CEncrypt<float>::~CEncrypt<float>
__unwindfunclet$??1ioComboJumpAttackSkill@@UAE@XZ$3:
  00024	8b 4d f0	 mov	 ecx, DWORD PTR _this$[ebp]
  00027	81 c1 48 11 00
	00		 add	 ecx, 4424		; 00001148H
  0002d	e9 00 00 00 00	 jmp	 ??1?$CEncrypt@K@@UAE@XZ	; CEncrypt<unsigned long>::~CEncrypt<unsigned long>
__unwindfunclet$??1ioComboJumpAttackSkill@@UAE@XZ$4:
  00032	8b 4d f0	 mov	 ecx, DWORD PTR _this$[ebp]
  00035	81 c1 7c 11 00
	00		 add	 ecx, 4476		; 0000117cH
  0003b	e9 00 00 00 00	 jmp	 ??1?$CEncrypt@M@@UAE@XZ	; CEncrypt<float>::~CEncrypt<float>
__unwindfunclet$??1ioComboJumpAttackSkill@@UAE@XZ$5:
  00040	8b 4d f0	 mov	 ecx, DWORD PTR _this$[ebp]
  00043	81 c1 ac 11 00
	00		 add	 ecx, 4524		; 000011acH
  00049	e9 00 00 00 00	 jmp	 ??1?$CEncrypt@K@@UAE@XZ	; CEncrypt<unsigned long>::~CEncrypt<unsigned long>
__unwindfunclet$??1ioComboJumpAttackSkill@@UAE@XZ$6:
  0004e	8b 4d f0	 mov	 ecx, DWORD PTR _this$[ebp]
  00051	81 c1 dc 11 00
	00		 add	 ecx, 4572		; 000011dcH
  00057	ff 25 00 00 00
	00		 jmp	 DWORD PTR __imp_??1ioHashString@@QAE@XZ
__unwindfunclet$??1ioComboJumpAttackSkill@@UAE@XZ$7:
  0005d	8b 4d f0	 mov	 ecx, DWORD PTR _this$[ebp]
  00060	81 c1 fc 11 00
	00		 add	 ecx, 4604		; 000011fcH
  00066	e9 00 00 00 00	 jmp	 ??1?$CEncrypt@K@@UAE@XZ	; CEncrypt<unsigned long>::~CEncrypt<unsigned long>
__unwindfunclet$??1ioComboJumpAttackSkill@@UAE@XZ$8:
  0006b	8b 4d f0	 mov	 ecx, DWORD PTR _this$[ebp]
  0006e	81 c1 2c 12 00
	00		 add	 ecx, 4652		; 0000122cH
  00074	e9 00 00 00 00	 jmp	 ??1?$CEncrypt@K@@UAE@XZ	; CEncrypt<unsigned long>::~CEncrypt<unsigned long>
__ehhandler$??1ioComboJumpAttackSkill@@UAE@XZ:
  00079	8b 54 24 08	 mov	 edx, DWORD PTR [esp+8]
  0007d	8d 42 0c	 lea	 eax, DWORD PTR [edx+12]
  00080	8b 4a ec	 mov	 ecx, DWORD PTR [edx-20]
  00083	33 c8		 xor	 ecx, eax
  00085	e8 00 00 00 00	 call	 @__security_check_cookie@4
  0008a	b8 00 00 00 00	 mov	 eax, OFFSET __ehfuncinfo$??1ioComboJumpAttackSkill@@UAE@XZ
  0008f	e9 00 00 00 00	 jmp	 ___CxxFrameHandler3
text$x	ENDS
??1ioComboJumpAttackSkill@@UAE@XZ ENDP			; ioComboJumpAttackSkill::~ioComboJumpAttackSkill
; Function compile flags: /Ogsp
; File d:\lost saga for developer\youtube\tutorial\source\src\lsclient\ioskill.h
;	COMDAT ?GetDefenseSkillBreakeType@ioSkill@@UBE?AW4DefenseBreakType@@XZ
_TEXT	SEGMENT
?GetDefenseSkillBreakeType@ioSkill@@UBE?AW4DefenseBreakType@@XZ PROC ; ioSkill::GetDefenseSkillBreakeType, COMDAT
; _this$ = ecx

; 327  : 	virtual DefenseBreakType GetDefenseSkillBreakeType() const { return m_eDefenseSkillBreakType; }

  00000	8b 81 30 0e 00
	00		 mov	 eax, DWORD PTR [ecx+3632]
  00006	c3		 ret	 0
?GetDefenseSkillBreakeType@ioSkill@@UBE?AW4DefenseBreakType@@XZ ENDP ; ioSkill::GetDefenseSkillBreakeType
; Function compile flags: /Ogsp
_TEXT	ENDS
;	COMDAT ?GetSkillEndNextJumpAmt@ioSkill@@UBEMXZ
_TEXT	SEGMENT
?GetSkillEndNextJumpAmt@ioSkill@@UBEMXZ PROC		; ioSkill::GetSkillEndNextJumpAmt, COMDAT
; _this$ = ecx

; 335  : 	virtual float GetSkillEndNextJumpAmt() const { return m_fSkillEndNextJumpAmt; }

  00000	d9 81 4c 05 00
	00		 fld	 DWORD PTR [ecx+1356]
  00006	c3		 ret	 0
?GetSkillEndNextJumpAmt@ioSkill@@UBEMXZ ENDP		; ioSkill::GetSkillEndNextJumpAmt
; Function compile flags: /Ogsp
_TEXT	ENDS
;	COMDAT ?GetSkillEndNextLandRate@ioSkill@@UBEMXZ
_TEXT	SEGMENT
?GetSkillEndNextLandRate@ioSkill@@UBEMXZ PROC		; ioSkill::GetSkillEndNextLandRate, COMDAT
; _this$ = ecx

; 336  : 	virtual float GetSkillEndNextLandRate() const { return m_fSkillEndNextLandRate; }

  00000	d9 81 50 05 00
	00		 fld	 DWORD PTR [ecx+1360]
  00006	c3		 ret	 0
?GetSkillEndNextLandRate@ioSkill@@UBEMXZ ENDP		; ioSkill::GetSkillEndNextLandRate
; Function compile flags: /Ogsp
_TEXT	ENDS
;	COMDAT ?GetSkillEndNextJumpMustEnable@ioSkill@@UAE?AW4SkillEndJumpType@@XZ
_TEXT	SEGMENT
?GetSkillEndNextJumpMustEnable@ioSkill@@UAE?AW4SkillEndJumpType@@XZ PROC ; ioSkill::GetSkillEndNextJumpMustEnable, COMDAT
; _this$ = ecx

; 337  : 	virtual SkillEndJumpType GetSkillEndNextJumpMustEnable(){ return SEJT_DEFAULT; }

  00000	33 c0		 xor	 eax, eax
  00002	c3		 ret	 0
?GetSkillEndNextJumpMustEnable@ioSkill@@UAE?AW4SkillEndJumpType@@XZ ENDP ; ioSkill::GetSkillEndNextJumpMustEnable
; Function compile flags: /Ogsp
_TEXT	ENDS
;	COMDAT ?EnableChangeGrapplingTargetPos@ioSkill@@UBE_NXZ
_TEXT	SEGMENT
?EnableChangeGrapplingTargetPos@ioSkill@@UBE_NXZ PROC	; ioSkill::EnableChangeGrapplingTargetPos, COMDAT
; _this$ = ecx

; 355  : 	virtual bool EnableChangeGrapplingTargetPos() const { return m_bChangeGrapplingTargetPos; }

  00000	8a 81 40 09 00
	00		 mov	 al, BYTE PTR [ecx+2368]
  00006	c3		 ret	 0
?EnableChangeGrapplingTargetPos@ioSkill@@UBE_NXZ ENDP	; ioSkill::EnableChangeGrapplingTargetPos
; Function compile flags: /Ogsp
_TEXT	ENDS
;	COMDAT ?IsInvisibleBottomCircle@ioSkill@@UAE_NPAVioBaseChar@@@Z
_TEXT	SEGMENT
_pChar$ = 8						; size = 4
?IsInvisibleBottomCircle@ioSkill@@UAE_NPAVioBaseChar@@@Z PROC ; ioSkill::IsInvisibleBottomCircle, COMDAT
; _this$ = ecx

; 393  : 	virtual bool IsInvisibleBottomCircle( ioBaseChar *pChar ) { return false; }

  00000	32 c0		 xor	 al, al
  00002	c2 04 00	 ret	 4
?IsInvisibleBottomCircle@ioSkill@@UAE_NPAVioBaseChar@@@Z ENDP ; ioSkill::IsInvisibleBottomCircle
; Function compile flags: /Ogsp
_TEXT	ENDS
;	COMDAT ?IsUseActiveCnt@ioSkill@@UBE_NXZ
_TEXT	SEGMENT
?IsUseActiveCnt@ioSkill@@UBE_NXZ PROC			; ioSkill::IsUseActiveCnt, COMDAT
; _this$ = ecx

; 544  : 	virtual bool IsUseActiveCnt() const { return false; }

  00000	32 c0		 xor	 al, al
  00002	c3		 ret	 0
?IsUseActiveCnt@ioSkill@@UBE_NXZ ENDP			; ioSkill::IsUseActiveCnt
; Function compile flags: /Ogsp
_TEXT	ENDS
;	COMDAT ?GetMaxActiveCnt@ioSkill@@UBEHPAVioBaseChar@@@Z
_TEXT	SEGMENT
_pChar$ = 8						; size = 4
?GetMaxActiveCnt@ioSkill@@UBEHPAVioBaseChar@@@Z PROC	; ioSkill::GetMaxActiveCnt, COMDAT
; _this$ = ecx

; 545  : 	virtual int GetMaxActiveCnt( ioBaseChar *pChar ) const { return 0; }

  00000	33 c0		 xor	 eax, eax
  00002	c2 04 00	 ret	 4
?GetMaxActiveCnt@ioSkill@@UBEHPAVioBaseChar@@@Z ENDP	; ioSkill::GetMaxActiveCnt
; Function compile flags: /Ogsp
_TEXT	ENDS
;	COMDAT ?GetCurActiveCnt@ioSkill@@UBEHPAVioBaseChar@@@Z
_TEXT	SEGMENT
_pChar$ = 8						; size = 4
?GetCurActiveCnt@ioSkill@@UBEHPAVioBaseChar@@@Z PROC	; ioSkill::GetCurActiveCnt, COMDAT
; _this$ = ecx

; 546  : 	virtual int GetCurActiveCnt( ioBaseChar *pChar ) const { return 0; }

  00000	33 c0		 xor	 eax, eax
  00002	c2 04 00	 ret	 4
?GetCurActiveCnt@ioSkill@@UBEHPAVioBaseChar@@@Z ENDP	; ioSkill::GetCurActiveCnt
_TEXT	ENDS
PUBLIC	__real@4f800000
PUBLIC	__$ArrayPad$
EXTRN	?SetZoneValue@ioZoneEffectWeapon@@QAEX_N0@Z:PROC ; ioZoneEffectWeapon::SetZoneValue
EXTRN	?SetCollisionDir@ioZoneEffectWeapon@@QAEXAAUD3DXVECTOR3@@@Z:PROC ; ioZoneEffectWeapon::SetCollisionDir
EXTRN	__imp_??D@YA?AUD3DXVECTOR3@@ABUD3DXQUATERNION@@ABU0@@Z:PROC
EXTRN	?GetOwner@ioWeapon@@QBEPAVioBaseChar@@XZ:PROC	; ioWeapon::GetOwner
EXTRN	?ApplyAttributeToWeapon@ioSkill@@UAEXPAVioWeapon@@PAVioPlayStage@@@Z:PROC ; ioSkill::ApplyAttributeToWeapon
EXTRN	___security_cookie:DWORD
;	COMDAT __real@4f800000
; File d:\lost saga for developer\youtube\tutorial\source\src\lsclient\iocontactweapon.h
CONST	SEGMENT
__real@4f800000 DD 04f800000r			; 4.29497e+009
; Function compile flags: /Ogsp
; File d:\lost saga for developer\youtube\tutorial\source\src\lsclient\iocombojumpattackskill.cpp
CONST	ENDS
;	COMDAT ?ApplyAttributeToWeapon@ioComboJumpAttackSkill@@UAEXPAVioWeapon@@PAVioPlayStage@@@Z
_TEXT	SEGMENT
tv175 = -32						; size = 4
_vDir$548497 = -28					; size = 12
$T548499 = -16						; size = 12
__$ArrayPad$ = -4					; size = 4
_pWeapon$ = 8						; size = 4
_pStage$ = 12						; size = 4
?ApplyAttributeToWeapon@ioComboJumpAttackSkill@@UAEXPAVioWeapon@@PAVioPlayStage@@@Z PROC ; ioComboJumpAttackSkill::ApplyAttributeToWeapon, COMDAT
; _this$ = ecx

; 285  : {

  00000	55		 push	 ebp
  00001	8b ec		 mov	 ebp, esp
  00003	83 ec 20	 sub	 esp, 32			; 00000020H
  00006	a1 00 00 00 00	 mov	 eax, DWORD PTR ___security_cookie
  0000b	33 c5		 xor	 eax, ebp
  0000d	89 45 fc	 mov	 DWORD PTR __$ArrayPad$[ebp], eax
  00010	8b 45 0c	 mov	 eax, DWORD PTR _pStage$[ebp]
  00013	56		 push	 esi
  00014	8b 75 08	 mov	 esi, DWORD PTR _pWeapon$[ebp]
  00017	57		 push	 edi

; 286  : 	ioAttackSkill::ApplyAttributeToWeapon( pWeapon, pStage );

  00018	50		 push	 eax
  00019	56		 push	 esi
  0001a	e8 00 00 00 00	 call	 ?ApplyAttributeToWeapon@ioSkill@@UAEXPAVioWeapon@@PAVioPlayStage@@@Z ; ioSkill::ApplyAttributeToWeapon

; 287  : 	
; 288  : 	ioZoneEffectWeapon *pZone = ToZoneEffectWeapon( pWeapon );

  0001f	56		 push	 esi
  00020	e8 00 00 00 00	 call	 ?ToZoneEffectWeapon@@YAPAVioZoneEffectWeapon@@PAVioWeapon@@@Z ; ToZoneEffectWeapon
  00025	8b f8		 mov	 edi, eax
  00027	59		 pop	 ecx

; 289  : 	if( pZone )

  00028	85 ff		 test	 edi, edi
  0002a	74 62		 je	 SHORT $LN3@ApplyAttri

; 290  : 	{
; 291  : 		ioBaseChar *pChar = pZone->GetOwner();

  0002c	8b cf		 mov	 ecx, edi
  0002e	e8 00 00 00 00	 call	 ?GetOwner@ioWeapon@@QBEPAVioBaseChar@@XZ ; ioWeapon::GetOwner
  00033	8b c8		 mov	 ecx, eax

; 292  : 		if( pChar )

  00035	85 c9		 test	 ecx, ecx
  00037	74 55		 je	 SHORT $LN3@ApplyAttri

; 293  : 		{
; 294  : 			D3DXVECTOR3 vDir = pChar->GetTargetRot() * D3DXVECTOR3( 0.0f, 0.0f, -FLOAT1 );

  00039	b8 01 00 00 00	 mov	 eax, 1
  0003e	0f 57 c0	 xorps	 xmm0, xmm0
  00041	89 45 e0	 mov	 DWORD PTR tv175[ebp], eax
  00044	db 45 e0	 fild	 DWORD PTR tv175[ebp]
  00047	f3 0f 11 45 f0	 movss	 DWORD PTR $T548499[ebp], xmm0
  0004c	f3 0f 11 45 f4	 movss	 DWORD PTR $T548499[ebp+4], xmm0
  00051	85 c0		 test	 eax, eax
  00053	79 06		 jns	 SHORT $LN15@ApplyAttri
  00055	d8 05 00 00 00
	00		 fadd	 DWORD PTR __real@4f800000
$LN15@ApplyAttri:
  0005b	8d 45 f0	 lea	 eax, DWORD PTR $T548499[ebp]
  0005e	d9 e0		 fchs
  00060	50		 push	 eax
  00061	d9 5d f8	 fstp	 DWORD PTR $T548499[ebp+8]
  00064	81 c1 a4 06 00
	00		 add	 ecx, 1700		; 000006a4H
  0006a	51		 push	 ecx
  0006b	8d 45 e4	 lea	 eax, DWORD PTR _vDir$548497[ebp]
  0006e	50		 push	 eax
  0006f	ff 15 00 00 00
	00		 call	 DWORD PTR __imp_??D@YA?AUD3DXVECTOR3@@ABUD3DXQUATERNION@@ABU0@@Z
  00075	83 c4 0c	 add	 esp, 12			; 0000000cH

; 295  : 			pZone->SetCollisionDir( vDir );

  00078	8d 45 e4	 lea	 eax, DWORD PTR _vDir$548497[ebp]
  0007b	50		 push	 eax
  0007c	8b cf		 mov	 ecx, edi
  0007e	e8 00 00 00 00	 call	 ?SetCollisionDir@ioZoneEffectWeapon@@QAEXAAUD3DXVECTOR3@@@Z ; ioZoneEffectWeapon::SetCollisionDir

; 296  : 			pZone->SetZoneValue( false, true );

  00083	6a 01		 push	 1
  00085	6a 00		 push	 0
  00087	8b cf		 mov	 ecx, edi
  00089	e8 00 00 00 00	 call	 ?SetZoneValue@ioZoneEffectWeapon@@QAEX_N0@Z ; ioZoneEffectWeapon::SetZoneValue
$LN3@ApplyAttri:

; 297  : 		}
; 298  : 	}
; 299  : 
; 300  : 	ioContactWeapon *pContact = ToContactWeapon( pWeapon );

  0008e	56		 push	 esi
  0008f	e8 00 00 00 00	 call	 ?ToContactWeapon@@YAPAVioContactWeapon@@PAVioWeapon@@@Z ; ToContactWeapon
  00094	8b f8		 mov	 edi, eax
  00096	59		 pop	 ecx

; 301  : 	if ( pContact )

  00097	85 ff		 test	 edi, edi
  00099	74 12		 je	 SHORT $LN13@ApplyAttri

; 302  : 	{
; 303  : 		ioBaseChar *pChar = pWeapon->GetOwner();

  0009b	8b ce		 mov	 ecx, esi
  0009d	e8 00 00 00 00	 call	 ?GetOwner@ioWeapon@@QBEPAVioBaseChar@@XZ ; ioWeapon::GetOwner

; 304  : 		if ( pChar )

  000a2	85 c0		 test	 eax, eax
  000a4	74 07		 je	 SHORT $LN13@ApplyAttri

; 305  : 		{
; 306  : 			pContact->SetSkillWeapon( true );

  000a6	c6 87 1f 09 00
	00 01		 mov	 BYTE PTR [edi+2335], 1
$LN13@ApplyAttri:

; 307  : 		}
; 308  : 	}
; 309  : }

  000ad	8b 4d fc	 mov	 ecx, DWORD PTR __$ArrayPad$[ebp]
  000b0	5f		 pop	 edi
  000b1	33 cd		 xor	 ecx, ebp
  000b3	5e		 pop	 esi
  000b4	e8 00 00 00 00	 call	 @__security_check_cookie@4
  000b9	c9		 leave
  000ba	c2 08 00	 ret	 8
?ApplyAttributeToWeapon@ioComboJumpAttackSkill@@UAEXPAVioWeapon@@PAVioPlayStage@@@Z ENDP ; ioComboJumpAttackSkill::ApplyAttributeToWeapon
_TEXT	ENDS
PUBLIC	__real@3f800000
PUBLIC	?SetLoopState@ioComboJumpAttackSkill@@IAEXPAVioBaseChar@@@Z ; ioComboJumpAttackSkill::SetLoopState
EXTRN	?SetSkillMoveEnable@ioBaseChar@@QAEX_N0@Z:PROC	; ioBaseChar::SetSkillMoveEnable
EXTRN	?SetJumpPower@ioBaseChar@@QAEXM@Z:PROC		; ioBaseChar::SetJumpPower
EXTRN	__imp_?SetLoopAni@ioEntityGroup@@QAE_NHMMMM@Z:PROC
EXTRN	__imp_?ClearAllLoopAni@ioEntityGroup@@QAEXM_N@Z:PROC
EXTRN	__imp_?ClearAllActionAni@ioEntityGroup@@QAEXM_N@Z:PROC
EXTRN	__imp_?GetAnimationIdx@ioEntityGroup@@QAEHABVioHashString@@@Z:PROC
;	COMDAT __real@3f800000
; File d:\lost saga for developer\youtube\tutorial\source\src\lsclient\stdafx.h
CONST	SEGMENT
__real@3f800000 DD 03f800000r			; 1
; Function compile flags: /Ogsp
; File d:\lost saga for developer\youtube\tutorial\source\src\lsclient\iocombojumpattackskill.cpp
CONST	ENDS
;	COMDAT ?SetLoopState@ioComboJumpAttackSkill@@IAEXPAVioBaseChar@@@Z
_TEXT	SEGMENT
tv178 = -12						; size = 4
tv173 = -12						; size = 4
tv168 = -12						; size = 4
_iAniID$ = -8						; size = 4
_pGrp$ = -4						; size = 4
_pChar$ = 8						; size = 4
?SetLoopState@ioComboJumpAttackSkill@@IAEXPAVioBaseChar@@@Z PROC ; ioComboJumpAttackSkill::SetLoopState, COMDAT
; _this$ = ecx

; 356  : {

  00000	55		 push	 ebp
  00001	8b ec		 mov	 ebp, esp

; 357  : 	if( !pChar )

  00003	8b 45 08	 mov	 eax, DWORD PTR _pChar$[ebp]
  00006	83 ec 0c	 sub	 esp, 12			; 0000000cH
  00009	56		 push	 esi
  0000a	8b f1		 mov	 esi, ecx
  0000c	85 c0		 test	 eax, eax
  0000e	0f 84 f5 00 00
	00		 je	 $LN3@SetLoopSta

; 358  : 		return;
; 359  : 	
; 360  : 	m_SkillState = SS_LOOP;

  00014	53		 push	 ebx
  00015	33 db		 xor	 ebx, ebx
  00017	43		 inc	 ebx
  00018	89 9e e4 10 00
	00		 mov	 DWORD PTR [esi+4324], ebx

; 361  : 
; 362  : 	ioEntityGroup *pGrp = pChar->GetGroup();

  0001e	8b 40 04	 mov	 eax, DWORD PTR [eax+4]
  00021	57		 push	 edi
  00022	89 45 fc	 mov	 DWORD PTR _pGrp$[ebp], eax

; 363  : 	DWORD dwCurTime = FRAMEGETTIME();

  00025	ff 15 00 00 00
	00		 call	 DWORD PTR __imp_?GetSingleton@ioFrameTimer@@SAAAV1@XZ
  0002b	8b c8		 mov	 ecx, eax
  0002d	ff 15 00 00 00
	00		 call	 DWORD PTR __imp_?GetLoopSec@ioFrameTimer@@QBEKXZ

; 364  : 	int iAniID = 0;
; 365  : 	iAniID = pGrp->GetAnimationIdx( m_szRunLoopMotion );

  00033	8b 4d fc	 mov	 ecx, DWORD PTR _pGrp$[ebp]
  00036	8b f8		 mov	 edi, eax
  00038	8d 86 dc 11 00
	00		 lea	 eax, DWORD PTR [esi+4572]
  0003e	50		 push	 eax
  0003f	ff 15 00 00 00
	00		 call	 DWORD PTR __imp_?GetAnimationIdx@ioEntityGroup@@QAEHABVioHashString@@@Z
  00045	89 45 f8	 mov	 DWORD PTR _iAniID$[ebp], eax

; 366  : 	if( iAniID == -1 )

  00048	83 f8 ff	 cmp	 eax, -1
  0004b	0f 84 b6 00 00
	00		 je	 $LN13@SetLoopSta

; 367  : 		return;
; 368  : 
; 369  : 	pGrp->ClearAllActionAni( FLOAT100, true );

  00051	b8 64 00 00 00	 mov	 eax, 100		; 00000064H
  00056	89 45 f4	 mov	 DWORD PTR tv178[ebp], eax
  00059	db 45 f4	 fild	 DWORD PTR tv178[ebp]
  0005c	53		 push	 ebx
  0005d	85 c0		 test	 eax, eax
  0005f	79 06		 jns	 SHORT $LN15@SetLoopSta
  00061	d8 05 00 00 00
	00		 fadd	 DWORD PTR __real@4f800000
$LN15@SetLoopSta:
  00067	51		 push	 ecx
  00068	8b 4d fc	 mov	 ecx, DWORD PTR _pGrp$[ebp]
  0006b	d9 1c 24	 fstp	 DWORD PTR [esp]
  0006e	ff 15 00 00 00
	00		 call	 DWORD PTR __imp_?ClearAllActionAni@ioEntityGroup@@QAEXM_N@Z

; 370  : 	pGrp->ClearAllLoopAni( FLOAT100, true );

  00074	b8 64 00 00 00	 mov	 eax, 100		; 00000064H
  00079	89 45 f4	 mov	 DWORD PTR tv173[ebp], eax
  0007c	db 45 f4	 fild	 DWORD PTR tv173[ebp]
  0007f	53		 push	 ebx
  00080	85 c0		 test	 eax, eax
  00082	79 06		 jns	 SHORT $LN16@SetLoopSta
  00084	d8 05 00 00 00
	00		 fadd	 DWORD PTR __real@4f800000
$LN16@SetLoopSta:
  0008a	51		 push	 ecx
  0008b	8b 4d fc	 mov	 ecx, DWORD PTR _pGrp$[ebp]
  0008e	d9 1c 24	 fstp	 DWORD PTR [esp]
  00091	ff 15 00 00 00
	00		 call	 DWORD PTR __imp_?ClearAllLoopAni@ioEntityGroup@@QAEXM_N@Z

; 371  : 
; 372  : 	pGrp->SetLoopAni( iAniID, FLOAT100 );

  00097	b8 64 00 00 00	 mov	 eax, 100		; 00000064H
  0009c	0f 57 c0	 xorps	 xmm0, xmm0
  0009f	83 ec 10	 sub	 esp, 16			; 00000010H
  000a2	f3 0f 11 44 24
	0c		 movss	 DWORD PTR [esp+12], xmm0
  000a8	f3 0f 10 05 00
	00 00 00	 movss	 xmm0, DWORD PTR __real@3f800000
  000b0	89 45 f4	 mov	 DWORD PTR tv168[ebp], eax
  000b3	db 45 f4	 fild	 DWORD PTR tv168[ebp]
  000b6	f3 0f 11 44 24
	08		 movss	 DWORD PTR [esp+8], xmm0
  000bc	f3 0f 11 44 24
	04		 movss	 DWORD PTR [esp+4], xmm0
  000c2	85 c0		 test	 eax, eax
  000c4	79 06		 jns	 SHORT $LN17@SetLoopSta
  000c6	d8 05 00 00 00
	00		 fadd	 DWORD PTR __real@4f800000
$LN17@SetLoopSta:
  000cc	8b 4d fc	 mov	 ecx, DWORD PTR _pGrp$[ebp]
  000cf	d9 1c 24	 fstp	 DWORD PTR [esp]
  000d2	ff 75 f8	 push	 DWORD PTR _iAniID$[ebp]
  000d5	ff 15 00 00 00
	00		 call	 DWORD PTR __imp_?SetLoopAni@ioEntityGroup@@QAE_NHMMMM@Z

; 373  : 
; 374  : 	pChar->SetJumpPower( m_fJumpPower );

  000db	f3 0f 10 86 ec
	11 00 00	 movss	 xmm0, DWORD PTR [esi+4588]
  000e3	51		 push	 ecx
  000e4	8b 4d 08	 mov	 ecx, DWORD PTR _pChar$[ebp]
  000e7	f3 0f 11 04 24	 movss	 DWORD PTR [esp], xmm0
  000ec	e8 00 00 00 00	 call	 ?SetJumpPower@ioBaseChar@@QAEXM@Z ; ioBaseChar::SetJumpPower

; 375  : 
; 376  : 	pChar->SetSkillMoveEnable( true, true );

  000f1	8b 4d 08	 mov	 ecx, DWORD PTR _pChar$[ebp]
  000f4	53		 push	 ebx
  000f5	53		 push	 ebx
  000f6	e8 00 00 00 00	 call	 ?SetSkillMoveEnable@ioBaseChar@@QAEX_N0@Z ; ioBaseChar::SetSkillMoveEnable

; 377  : 	
; 378  : 	m_dwLoopStartTime = m_dwKeyCheckStartTime = dwCurTime;

  000fb	89 be f8 11 00
	00		 mov	 DWORD PTR [esi+4600], edi
  00101	89 be f0 11 00
	00		 mov	 DWORD PTR [esi+4592], edi
$LN13@SetLoopSta:
  00107	5f		 pop	 edi
  00108	5b		 pop	 ebx
$LN3@SetLoopSta:
  00109	5e		 pop	 esi

; 379  : }

  0010a	c9		 leave
  0010b	c2 04 00	 ret	 4
?SetLoopState@ioComboJumpAttackSkill@@IAEXPAVioBaseChar@@@Z ENDP ; ioComboJumpAttackSkill::SetLoopState
_TEXT	ENDS
PUBLIC	?LandingExplosion@ioComboJumpAttackSkill@@IAEXPAVioBaseChar@@@Z ; ioComboJumpAttackSkill::LandingExplosion
EXTRN	?SkillFireExplicit@ioBaseChar@@QAEPAVioWeapon@@ABUWeaponInfo@@ABVioHashString@@KABUD3DXVECTOR3@@2@Z:PROC ; ioBaseChar::SkillFireExplicit
EXTRN	__imp_?VEC3_ZERO@ioMath@@2UD3DXVECTOR3@@A:BYTE
EXTRN	?IncreaseWeaponIndexBase@ioBaseChar@@QAEKXZ:PROC ; ioBaseChar::IncreaseWeaponIndexBase
; Function compile flags: /Ogsp
;	COMDAT ?LandingExplosion@ioComboJumpAttackSkill@@IAEXPAVioBaseChar@@@Z
_TEXT	SEGMENT
_pChar$ = 8						; size = 4
?LandingExplosion@ioComboJumpAttackSkill@@IAEXPAVioBaseChar@@@Z PROC ; ioComboJumpAttackSkill::LandingExplosion, COMDAT
; _this$ = ecx

; 463  : {

  00000	55		 push	 ebp
  00001	8b ec		 mov	 ebp, esp
  00003	56		 push	 esi
  00004	57		 push	 edi

; 464  : 	if( !pChar )	return;

  00005	8b 7d 08	 mov	 edi, DWORD PTR _pChar$[ebp]
  00008	8b f1		 mov	 esi, ecx
  0000a	85 ff		 test	 edi, edi
  0000c	74 2d		 je	 SHORT $LN2@LandingExp

; 465  : 
; 466  : 	m_dwWeaponBaseIndex = pChar->IncreaseWeaponIndexBase();

  0000e	8b cf		 mov	 ecx, edi
  00010	e8 00 00 00 00	 call	 ?IncreaseWeaponIndexBase@ioBaseChar@@QAEKXZ ; ioBaseChar::IncreaseWeaponIndexBase
  00015	89 46 78	 mov	 DWORD PTR [esi+120], eax

; 467  : 
; 468  : 	pChar->SkillFireExplicit( m_WeaponInfo,	GetName(),
; 469  : 			m_dwWeaponBaseIndex, pChar->GetWorldPosition() );

  00018	ff 35 00 00 00
	00		 push	 DWORD PTR __imp_?VEC3_ZERO@ioMath@@2UD3DXVECTOR3@@A
  0001e	8b 07		 mov	 eax, DWORD PTR [edi]
  00020	8b cf		 mov	 ecx, edi
  00022	ff 50 70	 call	 DWORD PTR [eax+112]
  00025	50		 push	 eax
  00026	ff 76 78	 push	 DWORD PTR [esi+120]
  00029	8d 46 24	 lea	 eax, DWORD PTR [esi+36]
  0002c	50		 push	 eax
  0002d	81 c6 60 12 00
	00		 add	 esi, 4704		; 00001260H
  00033	56		 push	 esi
  00034	8b cf		 mov	 ecx, edi
  00036	e8 00 00 00 00	 call	 ?SkillFireExplicit@ioBaseChar@@QAEPAVioWeapon@@ABUWeaponInfo@@ABVioHashString@@KABUD3DXVECTOR3@@2@Z ; ioBaseChar::SkillFireExplicit
$LN2@LandingExp:
  0003b	5f		 pop	 edi
  0003c	5e		 pop	 esi

; 470  : }

  0003d	5d		 pop	 ebp
  0003e	c2 04 00	 ret	 4
?LandingExplosion@ioComboJumpAttackSkill@@IAEXPAVioBaseChar@@@Z ENDP ; ioComboJumpAttackSkill::LandingExplosion
_TEXT	ENDS
PUBLIC	??K?$CEncrypt@M@@QAEMABM@Z			; CEncrypt<float>::operator/
; Function compile flags: /Ogsp
; File d:\lost saga for developer\youtube\tutorial\source\src\lsclient\encryptvalue.h
;	COMDAT ??K?$CEncrypt@M@@QAEMABM@Z
_TEXT	SEGMENT
_value$ = -4						; size = 4
tv130 = 8						; size = 4
_inValue$ = 8						; size = 4
??K?$CEncrypt@M@@QAEMABM@Z PROC				; CEncrypt<float>::operator/, COMDAT
; _this$ = ecx

; 1695 : 	{

  00000	55		 push	 ebp
  00001	8b ec		 mov	 ebp, esp
  00003	51		 push	 ecx

; 1696 : 		type value;
; 1697 : 		DecryptValueToPool(&value);

  00004	8d 45 fc	 lea	 eax, DWORD PTR _value$[ebp]
  00007	50		 push	 eax
  00008	e8 00 00 00 00	 call	 ?DecryptValueToPool@?$CEncrypt@M@@QAEXPAM@Z ; CEncrypt<float>::DecryptValueToPool

; 1698 : #ifdef _NOTUSE
; 1699 : 		Debug();
; 1700 : #endif
; 1701 : 		return value / inValue;

  0000d	d9 45 fc	 fld	 DWORD PTR _value$[ebp]
  00010	8b 45 08	 mov	 eax, DWORD PTR _inValue$[ebp]
  00013	d8 30		 fdiv	 DWORD PTR [eax]
  00015	d9 5d 08	 fstp	 DWORD PTR tv130[ebp]
  00018	d9 45 08	 fld	 DWORD PTR tv130[ebp]

; 1702 : 	}

  0001b	c9		 leave
  0001c	c2 04 00	 ret	 4
??K?$CEncrypt@M@@QAEMABM@Z ENDP				; CEncrypt<float>::operator/
_TEXT	ENDS
PUBLIC	??M?$CEncrypt@M@@QAE_NABM@Z			; CEncrypt<float>::operator<
; Function compile flags: /Ogsp
;	COMDAT ??M?$CEncrypt@M@@QAE_NABM@Z
_TEXT	SEGMENT
_value$ = -4						; size = 4
_inValue$ = 8						; size = 4
??M?$CEncrypt@M@@QAE_NABM@Z PROC			; CEncrypt<float>::operator<, COMDAT
; _this$ = ecx

; 1791 : 	{

  00000	55		 push	 ebp
  00001	8b ec		 mov	 ebp, esp
  00003	51		 push	 ecx

; 1792 : 		type value;
; 1793 : 		DecryptValueToPool(&value);

  00004	8d 45 fc	 lea	 eax, DWORD PTR _value$[ebp]
  00007	50		 push	 eax
  00008	e8 00 00 00 00	 call	 ?DecryptValueToPool@?$CEncrypt@M@@QAEXPAM@Z ; CEncrypt<float>::DecryptValueToPool

; 1794 : #ifdef _NOTUSE
; 1795 : 		Debug();
; 1796 : #endif
; 1797 : 		return (value < inValue);

  0000d	8b 45 08	 mov	 eax, DWORD PTR _inValue$[ebp]
  00010	f3 0f 10 08	 movss	 xmm1, DWORD PTR [eax]
  00014	f3 0f 10 45 fc	 movss	 xmm0, DWORD PTR _value$[ebp]
  00019	0f 5a c0	 cvtps2pd xmm0, xmm0
  0001c	0f 5a c9	 cvtps2pd xmm1, xmm1
  0001f	33 c0		 xor	 eax, eax
  00021	66 0f 2f c8	 comisd	 xmm1, xmm0
  00025	76 01		 jbe	 SHORT $LN4@operator
  00027	40		 inc	 eax
$LN4@operator:

; 1798 : 	} 

  00028	c9		 leave
  00029	c2 04 00	 ret	 4
??M?$CEncrypt@M@@QAE_NABM@Z ENDP			; CEncrypt<float>::operator<
_TEXT	ENDS
PUBLIC	??H?$CEncrypt@K@@QAEKABK@Z			; CEncrypt<unsigned long>::operator+
; Function compile flags: /Ogsp
;	COMDAT ??H?$CEncrypt@K@@QAEKABK@Z
_TEXT	SEGMENT
_value$ = -4						; size = 4
_inValue$ = 8						; size = 4
??H?$CEncrypt@K@@QAEKABK@Z PROC				; CEncrypt<unsigned long>::operator+, COMDAT
; _this$ = ecx

; 1285 : 	{

  00000	55		 push	 ebp
  00001	8b ec		 mov	 ebp, esp
  00003	51		 push	 ecx

; 1286 : 		type value;
; 1287 : 		DecryptValueToPool(&value);

  00004	8d 45 fc	 lea	 eax, DWORD PTR _value$[ebp]
  00007	50		 push	 eax
  00008	e8 00 00 00 00	 call	 ?DecryptValueToPool@?$CEncrypt@K@@QAEXPAK@Z ; CEncrypt<unsigned long>::DecryptValueToPool

; 1288 : #ifdef _NOTUSE
; 1289 : 		Debug();
; 1290 : #endif
; 1291 : 		return value + inValue;

  0000d	8b 45 08	 mov	 eax, DWORD PTR _inValue$[ebp]
  00010	8b 00		 mov	 eax, DWORD PTR [eax]
  00012	03 45 fc	 add	 eax, DWORD PTR _value$[ebp]

; 1292 : 	}

  00015	c9		 leave
  00016	c2 04 00	 ret	 4
??H?$CEncrypt@K@@QAEKABK@Z ENDP				; CEncrypt<unsigned long>::operator+
_TEXT	ENDS
PUBLIC	??4?$CEncrypt@K@@QAEKM@Z			; CEncrypt<unsigned long>::operator=
EXTRN	__ftol2:PROC
; Function compile flags: /Ogsp
;	COMDAT ??4?$CEncrypt@K@@QAEKM@Z
_TEXT	SEGMENT
_value$ = 8						; size = 4
_inValue$ = 8						; size = 4
??4?$CEncrypt@K@@QAEKM@Z PROC				; CEncrypt<unsigned long>::operator=, COMDAT
; _this$ = ecx

; 1654 : 	{	

  00000	55		 push	 ebp
  00001	8b ec		 mov	 ebp, esp

; 1655 : 		type value = inValue;

  00003	d9 45 08	 fld	 DWORD PTR _inValue$[ebp]
  00006	56		 push	 esi
  00007	8b f1		 mov	 esi, ecx
  00009	e8 00 00 00 00	 call	 __ftol2
  0000e	89 45 08	 mov	 DWORD PTR _value$[ebp], eax

; 1656 : 		EncryptValueToPool((char*)&value);

  00011	8d 45 08	 lea	 eax, DWORD PTR _value$[ebp]
  00014	50		 push	 eax
  00015	8b ce		 mov	 ecx, esi
  00017	e8 00 00 00 00	 call	 ?EncryptValueToPool@?$CEncrypt@K@@AAEXPBD@Z ; CEncrypt<unsigned long>::EncryptValueToPool

; 1657 : #ifdef _NOTUSE
; 1658 : 		m_value = inValue;
; 1659 : 		Debug();
; 1660 : #endif
; 1661 : 		return value;

  0001c	8b 45 08	 mov	 eax, DWORD PTR _value$[ebp]
  0001f	5e		 pop	 esi

; 1662 : 	}

  00020	5d		 pop	 ebp
  00021	c2 04 00	 ret	 4
??4?$CEncrypt@K@@QAEKM@Z ENDP				; CEncrypt<unsigned long>::operator=
_TEXT	ENDS
PUBLIC	__$ArrayPad$
PUBLIC	??$LoadBool_e@$0P@@ioINILoader@@QAE_NAAY0P@$$CBD_N@Z ; ioINILoader::LoadBool_e<15>
EXTRN	__imp_?LoadBool@ioINILoader@@QAE_NPBD_N@Z:PROC
; Function compile flags: /Ogsp
; File d:\lost saga for developer\youtube\tutorial\source\src\io3dengine\ioiniloader.h
;	COMDAT ??$LoadBool_e@$0P@@ioINILoader@@QAE_NAAY0P@$$CBD_N@Z
_TEXT	SEGMENT
__k$ = -24						; size = 15
__$ArrayPad$ = -4					; size = 4
_k$ = 8							; size = 4
_b$ = 12						; size = 1
??$LoadBool_e@$0P@@ioINILoader@@QAE_NAAY0P@$$CBD_N@Z PROC ; ioINILoader::LoadBool_e<15>, COMDAT
; _this$ = ecx

; 101  : 	{

  00000	55		 push	 ebp
  00001	8b ec		 mov	 ebp, esp
  00003	83 ec 18	 sub	 esp, 24			; 00000018H
  00006	a1 00 00 00 00	 mov	 eax, DWORD PTR ___security_cookie
  0000b	33 c5		 xor	 eax, ebp
  0000d	89 45 fc	 mov	 DWORD PTR __$ArrayPad$[ebp], eax
  00010	8b 45 08	 mov	 eax, DWORD PTR _k$[ebp]

; 102  : 		_ENCSTR(k, _k);

  00013	8a 10		 mov	 dl, BYTE PTR [eax]
  00015	56		 push	 esi
  00016	8b f1		 mov	 esi, ecx
  00018	84 d2		 test	 dl, dl
  0001a	0f 84 75 01 00
	00		 je	 $LN96@LoadBool_e
  00020	80 f2 ed	 xor	 dl, -19			; ffffffedH
  00023	88 55 e8	 mov	 BYTE PTR __k$[ebp], dl
  00026	8a 50 01	 mov	 dl, BYTE PTR [eax+1]
  00029	84 d2		 test	 dl, dl
  0002b	0f 84 5e 01 00
	00		 je	 $LN95@LoadBool_e
  00031	b1 ec		 mov	 cl, -20			; ffffffecH
  00033	32 d1		 xor	 dl, cl
  00035	88 55 e9	 mov	 BYTE PTR __k$[ebp+1], dl
  00038	8a 50 02	 mov	 dl, BYTE PTR [eax+2]
  0003b	84 d2		 test	 dl, dl
  0003d	0f 84 46 01 00
	00		 je	 $LN94@LoadBool_e
  00043	80 f2 eb	 xor	 dl, -21			; ffffffebH
  00046	88 55 ea	 mov	 BYTE PTR __k$[ebp+2], dl
  00049	8a 50 03	 mov	 dl, BYTE PTR [eax+3]
  0004c	84 d2		 test	 dl, dl
  0004e	0f 84 2f 01 00
	00		 je	 $LN93@LoadBool_e
  00054	80 f2 ea	 xor	 dl, -22			; ffffffeaH
  00057	88 55 eb	 mov	 BYTE PTR __k$[ebp+3], dl
  0005a	8a 50 04	 mov	 dl, BYTE PTR [eax+4]
  0005d	84 d2		 test	 dl, dl
  0005f	0f 84 18 01 00
	00		 je	 $LN92@LoadBool_e
  00065	80 f2 ed	 xor	 dl, -19			; ffffffedH
  00068	88 55 ec	 mov	 BYTE PTR __k$[ebp+4], dl
  0006b	8a 50 05	 mov	 dl, BYTE PTR [eax+5]
  0006e	84 d2		 test	 dl, dl
  00070	0f 84 02 01 00
	00		 je	 $LN91@LoadBool_e
  00076	32 d1		 xor	 dl, cl
  00078	88 55 ed	 mov	 BYTE PTR __k$[ebp+5], dl
  0007b	8a 50 06	 mov	 dl, BYTE PTR [eax+6]
  0007e	84 d2		 test	 dl, dl
  00080	0f 84 ec 00 00
	00		 je	 $LN90@LoadBool_e
  00086	80 f2 eb	 xor	 dl, -21			; ffffffebH
  00089	88 55 ee	 mov	 BYTE PTR __k$[ebp+6], dl
  0008c	8a 50 07	 mov	 dl, BYTE PTR [eax+7]
  0008f	84 d2		 test	 dl, dl
  00091	0f 84 d5 00 00
	00		 je	 $LN89@LoadBool_e
  00097	80 f2 ea	 xor	 dl, -22			; ffffffeaH
  0009a	88 55 ef	 mov	 BYTE PTR __k$[ebp+7], dl
  0009d	8a 50 08	 mov	 dl, BYTE PTR [eax+8]
  000a0	84 d2		 test	 dl, dl
  000a2	0f 84 be 00 00
	00		 je	 $LN88@LoadBool_e
  000a8	80 f2 ed	 xor	 dl, -19			; ffffffedH
  000ab	88 55 f0	 mov	 BYTE PTR __k$[ebp+8], dl
  000ae	8a 50 09	 mov	 dl, BYTE PTR [eax+9]
  000b1	84 d2		 test	 dl, dl
  000b3	0f 84 a8 00 00
	00		 je	 $LN87@LoadBool_e
  000b9	32 d1		 xor	 dl, cl
  000bb	88 55 f1	 mov	 BYTE PTR __k$[ebp+9], dl
  000be	8a 50 0a	 mov	 dl, BYTE PTR [eax+10]
  000c1	84 d2		 test	 dl, dl
  000c3	0f 84 92 00 00
	00		 je	 $LN86@LoadBool_e
  000c9	80 f2 eb	 xor	 dl, -21			; ffffffebH
  000cc	88 55 f2	 mov	 BYTE PTR __k$[ebp+10], dl
  000cf	8a 50 0b	 mov	 dl, BYTE PTR [eax+11]
  000d2	84 d2		 test	 dl, dl
  000d4	74 7f		 je	 SHORT $LN85@LoadBool_e
  000d6	80 f2 ea	 xor	 dl, -22			; ffffffeaH
  000d9	88 55 f3	 mov	 BYTE PTR __k$[ebp+11], dl
  000dc	8a 50 0c	 mov	 dl, BYTE PTR [eax+12]
  000df	84 d2		 test	 dl, dl
  000e1	74 6c		 je	 SHORT $LN84@LoadBool_e
  000e3	80 f2 ed	 xor	 dl, -19			; ffffffedH
  000e6	88 55 f4	 mov	 BYTE PTR __k$[ebp+12], dl
  000e9	8a 50 0d	 mov	 dl, BYTE PTR [eax+13]
  000ec	84 d2		 test	 dl, dl
  000ee	74 5a		 je	 SHORT $LN83@LoadBool_e
  000f0	32 d1		 xor	 dl, cl
  000f2	80 78 0e 00	 cmp	 BYTE PTR [eax+14], 0
  000f6	88 55 f5	 mov	 BYTE PTR __k$[ebp+13], dl
  000f9	0f 84 9a 00 00
	00		 je	 $LN1@LoadBool_e
  000ff	8a 50 0f	 mov	 dl, BYTE PTR [eax+15]
  00102	84 d2		 test	 dl, dl
  00104	74 3e		 je	 SHORT $LN81@LoadBool_e
  00106	80 f2 ea	 xor	 dl, -22			; ffffffeaH
  00109	88 55 f7	 mov	 BYTE PTR __k$[ebp+15], dl
  0010c	8a 50 10	 mov	 dl, BYTE PTR [eax+16]
  0010f	84 d2		 test	 dl, dl
  00111	74 2b		 je	 SHORT $LN80@LoadBool_e
  00113	80 f2 ed	 xor	 dl, -19			; ffffffedH
  00116	88 55 f8	 mov	 BYTE PTR __k$[ebp+16], dl
  00119	8a 50 11	 mov	 dl, BYTE PTR [eax+17]
  0011c	84 d2		 test	 dl, dl
  0011e	74 19		 je	 SHORT $LN79@LoadBool_e
  00120	8a 40 12	 mov	 al, BYTE PTR [eax+18]
  00123	32 d1		 xor	 dl, cl
  00125	88 55 f9	 mov	 BYTE PTR __k$[ebp+17], dl
  00128	84 c0		 test	 al, al
  0012a	74 07		 je	 SHORT $LN78@LoadBool_e
  0012c	34 eb		 xor	 al, -21			; ffffffebH
  0012e	88 45 fa	 mov	 BYTE PTR __k$[ebp+18], al
  00131	eb 66		 jmp	 SHORT $LN1@LoadBool_e
$LN78@LoadBool_e:
  00133	c6 45 fa eb	 mov	 BYTE PTR __k$[ebp+18], -21 ; ffffffebH
  00137	eb 60		 jmp	 SHORT $LN1@LoadBool_e
$LN79@LoadBool_e:
  00139	88 4d f9	 mov	 BYTE PTR __k$[ebp+17], cl
  0013c	eb 5b		 jmp	 SHORT $LN1@LoadBool_e
$LN80@LoadBool_e:
  0013e	c6 45 f8 ed	 mov	 BYTE PTR __k$[ebp+16], -19 ; ffffffedH
  00142	eb 55		 jmp	 SHORT $LN1@LoadBool_e
$LN81@LoadBool_e:
  00144	c6 45 f7 ea	 mov	 BYTE PTR __k$[ebp+15], -22 ; ffffffeaH
  00148	eb 4f		 jmp	 SHORT $LN1@LoadBool_e
$LN83@LoadBool_e:
  0014a	88 4d f5	 mov	 BYTE PTR __k$[ebp+13], cl
  0014d	eb 4a		 jmp	 SHORT $LN1@LoadBool_e
$LN84@LoadBool_e:
  0014f	c6 45 f4 ed	 mov	 BYTE PTR __k$[ebp+12], -19 ; ffffffedH
  00153	eb 44		 jmp	 SHORT $LN1@LoadBool_e
$LN85@LoadBool_e:
  00155	c6 45 f3 ea	 mov	 BYTE PTR __k$[ebp+11], -22 ; ffffffeaH
  00159	eb 3e		 jmp	 SHORT $LN1@LoadBool_e
$LN86@LoadBool_e:
  0015b	c6 45 f2 eb	 mov	 BYTE PTR __k$[ebp+10], -21 ; ffffffebH
  0015f	eb 38		 jmp	 SHORT $LN1@LoadBool_e
$LN87@LoadBool_e:
  00161	88 4d f1	 mov	 BYTE PTR __k$[ebp+9], cl
  00164	eb 33		 jmp	 SHORT $LN1@LoadBool_e
$LN88@LoadBool_e:
  00166	c6 45 f0 ed	 mov	 BYTE PTR __k$[ebp+8], -19 ; ffffffedH
  0016a	eb 2d		 jmp	 SHORT $LN1@LoadBool_e
$LN89@LoadBool_e:
  0016c	c6 45 ef ea	 mov	 BYTE PTR __k$[ebp+7], -22 ; ffffffeaH
  00170	eb 27		 jmp	 SHORT $LN1@LoadBool_e
$LN90@LoadBool_e:
  00172	c6 45 ee eb	 mov	 BYTE PTR __k$[ebp+6], -21 ; ffffffebH
  00176	eb 21		 jmp	 SHORT $LN1@LoadBool_e
$LN91@LoadBool_e:
  00178	88 4d ed	 mov	 BYTE PTR __k$[ebp+5], cl
  0017b	eb 1c		 jmp	 SHORT $LN1@LoadBool_e
$LN92@LoadBool_e:
  0017d	c6 45 ec ed	 mov	 BYTE PTR __k$[ebp+4], -19 ; ffffffedH
  00181	eb 16		 jmp	 SHORT $LN1@LoadBool_e
$LN93@LoadBool_e:
  00183	c6 45 eb ea	 mov	 BYTE PTR __k$[ebp+3], -22 ; ffffffeaH
  00187	eb 10		 jmp	 SHORT $LN1@LoadBool_e
$LN94@LoadBool_e:
  00189	c6 45 ea eb	 mov	 BYTE PTR __k$[ebp+2], -21 ; ffffffebH
  0018d	eb 0a		 jmp	 SHORT $LN1@LoadBool_e
$LN95@LoadBool_e:
  0018f	c6 45 e9 ec	 mov	 BYTE PTR __k$[ebp+1], -20 ; ffffffecH
  00193	eb 04		 jmp	 SHORT $LN1@LoadBool_e
$LN96@LoadBool_e:
  00195	c6 45 e8 ed	 mov	 BYTE PTR __k$[ebp], -19	; ffffffedH
$LN1@LoadBool_e:
  00199	6a 03		 push	 3
  0019b	8d 45 e8	 lea	 eax, DWORD PTR __k$[ebp]
  0019e	c6 45 f6 00	 mov	 BYTE PTR __k$[ebp+14], 0
  001a2	5a		 pop	 edx
$LL104@LoadBool_e:
  001a3	81 30 ed ec eb
	ea		 xor	 DWORD PTR [eax], -353637139 ; eaebecedH
  001a9	83 c0 04	 add	 eax, 4
  001ac	4a		 dec	 edx
  001ad	75 f4		 jne	 SHORT $LL104@LoadBool_e
  001af	6a 0c		 push	 12			; 0000000cH
  001b1	58		 pop	 eax
$LL101@LoadBool_e:
  001b2	8b c8		 mov	 ecx, eax
  001b4	81 e1 03 00 00
	80		 and	 ecx, -2147483645	; 80000003H
  001ba	79 05		 jns	 SHORT $LN111@LoadBool_e
  001bc	49		 dec	 ecx
  001bd	83 c9 fc	 or	 ecx, -4			; fffffffcH
  001c0	41		 inc	 ecx
$LN111@LoadBool_e:
  001c1	b2 ed		 mov	 dl, -19			; ffffffedH
  001c3	2a d1		 sub	 dl, cl
  001c5	30 54 05 e8	 xor	 BYTE PTR __k$[ebp+eax], dl
  001c9	40		 inc	 eax
  001ca	83 f8 0e	 cmp	 eax, 14			; 0000000eH
  001cd	7c e3		 jl	 SHORT $LL101@LoadBool_e

; 103  : 		return LoadBool(_k, b);

  001cf	ff 75 0c	 push	 DWORD PTR _b$[ebp]
  001d2	8d 45 e8	 lea	 eax, DWORD PTR __k$[ebp]
  001d5	50		 push	 eax
  001d6	8b ce		 mov	 ecx, esi
  001d8	ff 15 00 00 00
	00		 call	 DWORD PTR __imp_?LoadBool@ioINILoader@@QAE_NPBD_N@Z

; 104  : 	}

  001de	8b 4d fc	 mov	 ecx, DWORD PTR __$ArrayPad$[ebp]
  001e1	33 cd		 xor	 ecx, ebp
  001e3	5e		 pop	 esi
  001e4	e8 00 00 00 00	 call	 @__security_check_cookie@4
  001e9	c9		 leave
  001ea	c2 08 00	 ret	 8
??$LoadBool_e@$0P@@ioINILoader@@QAE_NAAY0P@$$CBD_N@Z ENDP ; ioINILoader::LoadBool_e<15>
_TEXT	ENDS
PUBLIC	__$ArrayPad$
PUBLIC	??$LoadFloat_e@$0P@@ioINILoader@@QAEMAAY0P@$$CBDM@Z ; ioINILoader::LoadFloat_e<15>
EXTRN	__imp_?LoadFloat@ioINILoader@@QAEMPBDM@Z:PROC
; Function compile flags: /Ogsp
;	COMDAT ??$LoadFloat_e@$0P@@ioINILoader@@QAEMAAY0P@$$CBDM@Z
_TEXT	SEGMENT
__k$ = -24						; size = 15
__$ArrayPad$ = -4					; size = 4
_k$ = 8							; size = 4
_f$ = 12						; size = 4
??$LoadFloat_e@$0P@@ioINILoader@@QAEMAAY0P@$$CBDM@Z PROC ; ioINILoader::LoadFloat_e<15>, COMDAT
; _this$ = ecx

; 135  : 	{

  00000	55		 push	 ebp
  00001	8b ec		 mov	 ebp, esp
  00003	83 ec 18	 sub	 esp, 24			; 00000018H
  00006	a1 00 00 00 00	 mov	 eax, DWORD PTR ___security_cookie
  0000b	33 c5		 xor	 eax, ebp
  0000d	89 45 fc	 mov	 DWORD PTR __$ArrayPad$[ebp], eax
  00010	8b 45 08	 mov	 eax, DWORD PTR _k$[ebp]

; 136  : 		_ENCSTR(k, _k);

  00013	8a 10		 mov	 dl, BYTE PTR [eax]
  00015	56		 push	 esi
  00016	8b f1		 mov	 esi, ecx
  00018	84 d2		 test	 dl, dl
  0001a	0f 84 75 01 00
	00		 je	 $LN96@LoadFloat_
  00020	80 f2 ed	 xor	 dl, -19			; ffffffedH
  00023	88 55 e8	 mov	 BYTE PTR __k$[ebp], dl
  00026	8a 50 01	 mov	 dl, BYTE PTR [eax+1]
  00029	84 d2		 test	 dl, dl
  0002b	0f 84 5e 01 00
	00		 je	 $LN95@LoadFloat_
  00031	b1 ec		 mov	 cl, -20			; ffffffecH
  00033	32 d1		 xor	 dl, cl
  00035	88 55 e9	 mov	 BYTE PTR __k$[ebp+1], dl
  00038	8a 50 02	 mov	 dl, BYTE PTR [eax+2]
  0003b	84 d2		 test	 dl, dl
  0003d	0f 84 46 01 00
	00		 je	 $LN94@LoadFloat_
  00043	80 f2 eb	 xor	 dl, -21			; ffffffebH
  00046	88 55 ea	 mov	 BYTE PTR __k$[ebp+2], dl
  00049	8a 50 03	 mov	 dl, BYTE PTR [eax+3]
  0004c	84 d2		 test	 dl, dl
  0004e	0f 84 2f 01 00
	00		 je	 $LN93@LoadFloat_
  00054	80 f2 ea	 xor	 dl, -22			; ffffffeaH
  00057	88 55 eb	 mov	 BYTE PTR __k$[ebp+3], dl
  0005a	8a 50 04	 mov	 dl, BYTE PTR [eax+4]
  0005d	84 d2		 test	 dl, dl
  0005f	0f 84 18 01 00
	00		 je	 $LN92@LoadFloat_
  00065	80 f2 ed	 xor	 dl, -19			; ffffffedH
  00068	88 55 ec	 mov	 BYTE PTR __k$[ebp+4], dl
  0006b	8a 50 05	 mov	 dl, BYTE PTR [eax+5]
  0006e	84 d2		 test	 dl, dl
  00070	0f 84 02 01 00
	00		 je	 $LN91@LoadFloat_
  00076	32 d1		 xor	 dl, cl
  00078	88 55 ed	 mov	 BYTE PTR __k$[ebp+5], dl
  0007b	8a 50 06	 mov	 dl, BYTE PTR [eax+6]
  0007e	84 d2		 test	 dl, dl
  00080	0f 84 ec 00 00
	00		 je	 $LN90@LoadFloat_
  00086	80 f2 eb	 xor	 dl, -21			; ffffffebH
  00089	88 55 ee	 mov	 BYTE PTR __k$[ebp+6], dl
  0008c	8a 50 07	 mov	 dl, BYTE PTR [eax+7]
  0008f	84 d2		 test	 dl, dl
  00091	0f 84 d5 00 00
	00		 je	 $LN89@LoadFloat_
  00097	80 f2 ea	 xor	 dl, -22			; ffffffeaH
  0009a	88 55 ef	 mov	 BYTE PTR __k$[ebp+7], dl
  0009d	8a 50 08	 mov	 dl, BYTE PTR [eax+8]
  000a0	84 d2		 test	 dl, dl
  000a2	0f 84 be 00 00
	00		 je	 $LN88@LoadFloat_
  000a8	80 f2 ed	 xor	 dl, -19			; ffffffedH
  000ab	88 55 f0	 mov	 BYTE PTR __k$[ebp+8], dl
  000ae	8a 50 09	 mov	 dl, BYTE PTR [eax+9]
  000b1	84 d2		 test	 dl, dl
  000b3	0f 84 a8 00 00
	00		 je	 $LN87@LoadFloat_
  000b9	32 d1		 xor	 dl, cl
  000bb	88 55 f1	 mov	 BYTE PTR __k$[ebp+9], dl
  000be	8a 50 0a	 mov	 dl, BYTE PTR [eax+10]
  000c1	84 d2		 test	 dl, dl
  000c3	0f 84 92 00 00
	00		 je	 $LN86@LoadFloat_
  000c9	80 f2 eb	 xor	 dl, -21			; ffffffebH
  000cc	88 55 f2	 mov	 BYTE PTR __k$[ebp+10], dl
  000cf	8a 50 0b	 mov	 dl, BYTE PTR [eax+11]
  000d2	84 d2		 test	 dl, dl
  000d4	74 7f		 je	 SHORT $LN85@LoadFloat_
  000d6	80 f2 ea	 xor	 dl, -22			; ffffffeaH
  000d9	88 55 f3	 mov	 BYTE PTR __k$[ebp+11], dl
  000dc	8a 50 0c	 mov	 dl, BYTE PTR [eax+12]
  000df	84 d2		 test	 dl, dl
  000e1	74 6c		 je	 SHORT $LN84@LoadFloat_
  000e3	80 f2 ed	 xor	 dl, -19			; ffffffedH
  000e6	88 55 f4	 mov	 BYTE PTR __k$[ebp+12], dl
  000e9	8a 50 0d	 mov	 dl, BYTE PTR [eax+13]
  000ec	84 d2		 test	 dl, dl
  000ee	74 5a		 je	 SHORT $LN83@LoadFloat_
  000f0	32 d1		 xor	 dl, cl
  000f2	80 78 0e 00	 cmp	 BYTE PTR [eax+14], 0
  000f6	88 55 f5	 mov	 BYTE PTR __k$[ebp+13], dl
  000f9	0f 84 9a 00 00
	00		 je	 $LN1@LoadFloat_
  000ff	8a 50 0f	 mov	 dl, BYTE PTR [eax+15]
  00102	84 d2		 test	 dl, dl
  00104	74 3e		 je	 SHORT $LN81@LoadFloat_
  00106	80 f2 ea	 xor	 dl, -22			; ffffffeaH
  00109	88 55 f7	 mov	 BYTE PTR __k$[ebp+15], dl
  0010c	8a 50 10	 mov	 dl, BYTE PTR [eax+16]
  0010f	84 d2		 test	 dl, dl
  00111	74 2b		 je	 SHORT $LN80@LoadFloat_
  00113	80 f2 ed	 xor	 dl, -19			; ffffffedH
  00116	88 55 f8	 mov	 BYTE PTR __k$[ebp+16], dl
  00119	8a 50 11	 mov	 dl, BYTE PTR [eax+17]
  0011c	84 d2		 test	 dl, dl
  0011e	74 19		 je	 SHORT $LN79@LoadFloat_
  00120	8a 40 12	 mov	 al, BYTE PTR [eax+18]
  00123	32 d1		 xor	 dl, cl
  00125	88 55 f9	 mov	 BYTE PTR __k$[ebp+17], dl
  00128	84 c0		 test	 al, al
  0012a	74 07		 je	 SHORT $LN78@LoadFloat_
  0012c	34 eb		 xor	 al, -21			; ffffffebH
  0012e	88 45 fa	 mov	 BYTE PTR __k$[ebp+18], al
  00131	eb 66		 jmp	 SHORT $LN1@LoadFloat_
$LN78@LoadFloat_:
  00133	c6 45 fa eb	 mov	 BYTE PTR __k$[ebp+18], -21 ; ffffffebH
  00137	eb 60		 jmp	 SHORT $LN1@LoadFloat_
$LN79@LoadFloat_:
  00139	88 4d f9	 mov	 BYTE PTR __k$[ebp+17], cl
  0013c	eb 5b		 jmp	 SHORT $LN1@LoadFloat_
$LN80@LoadFloat_:
  0013e	c6 45 f8 ed	 mov	 BYTE PTR __k$[ebp+16], -19 ; ffffffedH
  00142	eb 55		 jmp	 SHORT $LN1@LoadFloat_
$LN81@LoadFloat_:
  00144	c6 45 f7 ea	 mov	 BYTE PTR __k$[ebp+15], -22 ; ffffffeaH
  00148	eb 4f		 jmp	 SHORT $LN1@LoadFloat_
$LN83@LoadFloat_:
  0014a	88 4d f5	 mov	 BYTE PTR __k$[ebp+13], cl
  0014d	eb 4a		 jmp	 SHORT $LN1@LoadFloat_
$LN84@LoadFloat_:
  0014f	c6 45 f4 ed	 mov	 BYTE PTR __k$[ebp+12], -19 ; ffffffedH
  00153	eb 44		 jmp	 SHORT $LN1@LoadFloat_
$LN85@LoadFloat_:
  00155	c6 45 f3 ea	 mov	 BYTE PTR __k$[ebp+11], -22 ; ffffffeaH
  00159	eb 3e		 jmp	 SHORT $LN1@LoadFloat_
$LN86@LoadFloat_:
  0015b	c6 45 f2 eb	 mov	 BYTE PTR __k$[ebp+10], -21 ; ffffffebH
  0015f	eb 38		 jmp	 SHORT $LN1@LoadFloat_
$LN87@LoadFloat_:
  00161	88 4d f1	 mov	 BYTE PTR __k$[ebp+9], cl
  00164	eb 33		 jmp	 SHORT $LN1@LoadFloat_
$LN88@LoadFloat_:
  00166	c6 45 f0 ed	 mov	 BYTE PTR __k$[ebp+8], -19 ; ffffffedH
  0016a	eb 2d		 jmp	 SHORT $LN1@LoadFloat_
$LN89@LoadFloat_:
  0016c	c6 45 ef ea	 mov	 BYTE PTR __k$[ebp+7], -22 ; ffffffeaH
  00170	eb 27		 jmp	 SHORT $LN1@LoadFloat_
$LN90@LoadFloat_:
  00172	c6 45 ee eb	 mov	 BYTE PTR __k$[ebp+6], -21 ; ffffffebH
  00176	eb 21		 jmp	 SHORT $LN1@LoadFloat_
$LN91@LoadFloat_:
  00178	88 4d ed	 mov	 BYTE PTR __k$[ebp+5], cl
  0017b	eb 1c		 jmp	 SHORT $LN1@LoadFloat_
$LN92@LoadFloat_:
  0017d	c6 45 ec ed	 mov	 BYTE PTR __k$[ebp+4], -19 ; ffffffedH
  00181	eb 16		 jmp	 SHORT $LN1@LoadFloat_
$LN93@LoadFloat_:
  00183	c6 45 eb ea	 mov	 BYTE PTR __k$[ebp+3], -22 ; ffffffeaH
  00187	eb 10		 jmp	 SHORT $LN1@LoadFloat_
$LN94@LoadFloat_:
  00189	c6 45 ea eb	 mov	 BYTE PTR __k$[ebp+2], -21 ; ffffffebH
  0018d	eb 0a		 jmp	 SHORT $LN1@LoadFloat_
$LN95@LoadFloat_:
  0018f	c6 45 e9 ec	 mov	 BYTE PTR __k$[ebp+1], -20 ; ffffffecH
  00193	eb 04		 jmp	 SHORT $LN1@LoadFloat_
$LN96@LoadFloat_:
  00195	c6 45 e8 ed	 mov	 BYTE PTR __k$[ebp], -19	; ffffffedH
$LN1@LoadFloat_:
  00199	6a 03		 push	 3
  0019b	8d 45 e8	 lea	 eax, DWORD PTR __k$[ebp]
  0019e	c6 45 f6 00	 mov	 BYTE PTR __k$[ebp+14], 0
  001a2	5a		 pop	 edx
$LL104@LoadFloat_:
  001a3	81 30 ed ec eb
	ea		 xor	 DWORD PTR [eax], -353637139 ; eaebecedH
  001a9	83 c0 04	 add	 eax, 4
  001ac	4a		 dec	 edx
  001ad	75 f4		 jne	 SHORT $LL104@LoadFloat_
  001af	6a 0c		 push	 12			; 0000000cH
  001b1	58		 pop	 eax
$LL101@LoadFloat_:
  001b2	8b c8		 mov	 ecx, eax
  001b4	81 e1 03 00 00
	80		 and	 ecx, -2147483645	; 80000003H
  001ba	79 05		 jns	 SHORT $LN111@LoadFloat_
  001bc	49		 dec	 ecx
  001bd	83 c9 fc	 or	 ecx, -4			; fffffffcH
  001c0	41		 inc	 ecx
$LN111@LoadFloat_:
  001c1	b2 ed		 mov	 dl, -19			; ffffffedH
  001c3	2a d1		 sub	 dl, cl
  001c5	30 54 05 e8	 xor	 BYTE PTR __k$[ebp+eax], dl
  001c9	40		 inc	 eax
  001ca	83 f8 0e	 cmp	 eax, 14			; 0000000eH
  001cd	7c e3		 jl	 SHORT $LL101@LoadFloat_

; 137  : 		return LoadFloat(_k, f);

  001cf	f3 0f 10 45 0c	 movss	 xmm0, DWORD PTR _f$[ebp]
  001d4	51		 push	 ecx
  001d5	8d 45 e8	 lea	 eax, DWORD PTR __k$[ebp]
  001d8	f3 0f 11 04 24	 movss	 DWORD PTR [esp], xmm0
  001dd	50		 push	 eax
  001de	8b ce		 mov	 ecx, esi
  001e0	ff 15 00 00 00
	00		 call	 DWORD PTR __imp_?LoadFloat@ioINILoader@@QAEMPBDM@Z

; 138  : 	}

  001e6	8b 4d fc	 mov	 ecx, DWORD PTR __$ArrayPad$[ebp]
  001e9	33 cd		 xor	 ecx, ebp
  001eb	5e		 pop	 esi
  001ec	e8 00 00 00 00	 call	 @__security_check_cookie@4
  001f1	c9		 leave
  001f2	c2 08 00	 ret	 8
??$LoadFloat_e@$0P@@ioINILoader@@QAEMAAY0P@$$CBDM@Z ENDP ; ioINILoader::LoadFloat_e<15>
_TEXT	ENDS
PUBLIC	__$ArrayPad$
PUBLIC	??$LoadInt_e@$09@ioINILoader@@QAEHAAY09$$CBDH@Z	; ioINILoader::LoadInt_e<10>
EXTRN	__imp_?LoadInt@ioINILoader@@QAEHPBDH@Z:PROC
; Function compile flags: /Ogsp
;	COMDAT ??$LoadInt_e@$09@ioINILoader@@QAEHAAY09$$CBDH@Z
_TEXT	SEGMENT
__k$ = -20						; size = 10
__$ArrayPad$ = -4					; size = 4
_k$ = 8							; size = 4
_i$ = 12						; size = 4
??$LoadInt_e@$09@ioINILoader@@QAEHAAY09$$CBDH@Z PROC	; ioINILoader::LoadInt_e<10>, COMDAT
; _this$ = ecx

; 118  : 	{

  00000	55		 push	 ebp
  00001	8b ec		 mov	 ebp, esp
  00003	83 ec 14	 sub	 esp, 20			; 00000014H
  00006	a1 00 00 00 00	 mov	 eax, DWORD PTR ___security_cookie
  0000b	33 c5		 xor	 eax, ebp
  0000d	89 45 fc	 mov	 DWORD PTR __$ArrayPad$[ebp], eax
  00010	8b 45 08	 mov	 eax, DWORD PTR _k$[ebp]

; 119  : 		_ENCSTR(k, _k);

  00013	8a 10		 mov	 dl, BYTE PTR [eax]
  00015	84 d2		 test	 dl, dl
  00017	0f 84 0d 01 00
	00		 je	 $LN96@LoadInt_e
  0001d	80 f2 ed	 xor	 dl, -19			; ffffffedH
  00020	88 55 ec	 mov	 BYTE PTR __k$[ebp], dl
  00023	8a 50 01	 mov	 dl, BYTE PTR [eax+1]
  00026	84 d2		 test	 dl, dl
  00028	0f 84 f6 00 00
	00		 je	 $LN95@LoadInt_e
  0002e	80 f2 ec	 xor	 dl, -20			; ffffffecH
  00031	88 55 ed	 mov	 BYTE PTR __k$[ebp+1], dl
  00034	8a 50 02	 mov	 dl, BYTE PTR [eax+2]
  00037	84 d2		 test	 dl, dl
  00039	0f 84 df 00 00
	00		 je	 $LN94@LoadInt_e
  0003f	80 f2 eb	 xor	 dl, -21			; ffffffebH
  00042	88 55 ee	 mov	 BYTE PTR __k$[ebp+2], dl
  00045	8a 50 03	 mov	 dl, BYTE PTR [eax+3]
  00048	84 d2		 test	 dl, dl
  0004a	0f 84 c8 00 00
	00		 je	 $LN93@LoadInt_e
  00050	80 f2 ea	 xor	 dl, -22			; ffffffeaH
  00053	88 55 ef	 mov	 BYTE PTR __k$[ebp+3], dl
  00056	8a 50 04	 mov	 dl, BYTE PTR [eax+4]
  00059	84 d2		 test	 dl, dl
  0005b	0f 84 b1 00 00
	00		 je	 $LN92@LoadInt_e
  00061	80 f2 ed	 xor	 dl, -19			; ffffffedH
  00064	88 55 f0	 mov	 BYTE PTR __k$[ebp+4], dl
  00067	8a 50 05	 mov	 dl, BYTE PTR [eax+5]
  0006a	84 d2		 test	 dl, dl
  0006c	0f 84 9a 00 00
	00		 je	 $LN91@LoadInt_e
  00072	80 f2 ec	 xor	 dl, -20			; ffffffecH
  00075	88 55 f1	 mov	 BYTE PTR __k$[ebp+5], dl
  00078	8a 50 06	 mov	 dl, BYTE PTR [eax+6]
  0007b	84 d2		 test	 dl, dl
  0007d	0f 84 83 00 00
	00		 je	 $LN90@LoadInt_e
  00083	80 f2 eb	 xor	 dl, -21			; ffffffebH
  00086	88 55 f2	 mov	 BYTE PTR __k$[ebp+6], dl
  00089	8a 50 07	 mov	 dl, BYTE PTR [eax+7]
  0008c	84 d2		 test	 dl, dl
  0008e	74 70		 je	 SHORT $LN89@LoadInt_e
  00090	80 f2 ea	 xor	 dl, -22			; ffffffeaH
  00093	88 55 f3	 mov	 BYTE PTR __k$[ebp+7], dl
  00096	8a 50 08	 mov	 dl, BYTE PTR [eax+8]
  00099	84 d2		 test	 dl, dl
  0009b	74 5d		 je	 SHORT $LN88@LoadInt_e
  0009d	80 f2 ed	 xor	 dl, -19			; ffffffedH
  000a0	80 78 09 00	 cmp	 BYTE PTR [eax+9], 0
  000a4	88 55 f4	 mov	 BYTE PTR __k$[ebp+8], dl
  000a7	0f 84 81 00 00
	00		 je	 $LN1@LoadInt_e
  000ad	8a 50 0a	 mov	 dl, BYTE PTR [eax+10]
  000b0	84 d2		 test	 dl, dl
  000b2	74 40		 je	 SHORT $LN86@LoadInt_e
  000b4	80 f2 eb	 xor	 dl, -21			; ffffffebH
  000b7	88 55 f6	 mov	 BYTE PTR __k$[ebp+10], dl
  000ba	8a 50 0b	 mov	 dl, BYTE PTR [eax+11]
  000bd	84 d2		 test	 dl, dl
  000bf	74 2d		 je	 SHORT $LN85@LoadInt_e
  000c1	80 f2 ea	 xor	 dl, -22			; ffffffeaH
  000c4	88 55 f7	 mov	 BYTE PTR __k$[ebp+11], dl
  000c7	8a 50 0c	 mov	 dl, BYTE PTR [eax+12]
  000ca	84 d2		 test	 dl, dl
  000cc	74 1a		 je	 SHORT $LN84@LoadInt_e
  000ce	8a 40 0d	 mov	 al, BYTE PTR [eax+13]
  000d1	80 f2 ed	 xor	 dl, -19			; ffffffedH
  000d4	88 55 f8	 mov	 BYTE PTR __k$[ebp+12], dl
  000d7	84 c0		 test	 al, al
  000d9	74 07		 je	 SHORT $LN83@LoadInt_e
  000db	34 ec		 xor	 al, -20			; ffffffecH
  000dd	88 45 f9	 mov	 BYTE PTR __k$[ebp+13], al
  000e0	eb 4c		 jmp	 SHORT $LN1@LoadInt_e
$LN83@LoadInt_e:
  000e2	c6 45 f9 ec	 mov	 BYTE PTR __k$[ebp+13], -20 ; ffffffecH
  000e6	eb 46		 jmp	 SHORT $LN1@LoadInt_e
$LN84@LoadInt_e:
  000e8	c6 45 f8 ed	 mov	 BYTE PTR __k$[ebp+12], -19 ; ffffffedH
  000ec	eb 40		 jmp	 SHORT $LN1@LoadInt_e
$LN85@LoadInt_e:
  000ee	c6 45 f7 ea	 mov	 BYTE PTR __k$[ebp+11], -22 ; ffffffeaH
  000f2	eb 3a		 jmp	 SHORT $LN1@LoadInt_e
$LN86@LoadInt_e:
  000f4	c6 45 f6 eb	 mov	 BYTE PTR __k$[ebp+10], -21 ; ffffffebH
  000f8	eb 34		 jmp	 SHORT $LN1@LoadInt_e
$LN88@LoadInt_e:
  000fa	c6 45 f4 ed	 mov	 BYTE PTR __k$[ebp+8], -19 ; ffffffedH
  000fe	eb 2e		 jmp	 SHORT $LN1@LoadInt_e
$LN89@LoadInt_e:
  00100	c6 45 f3 ea	 mov	 BYTE PTR __k$[ebp+7], -22 ; ffffffeaH
  00104	eb 28		 jmp	 SHORT $LN1@LoadInt_e
$LN90@LoadInt_e:
  00106	c6 45 f2 eb	 mov	 BYTE PTR __k$[ebp+6], -21 ; ffffffebH
  0010a	eb 22		 jmp	 SHORT $LN1@LoadInt_e
$LN91@LoadInt_e:
  0010c	c6 45 f1 ec	 mov	 BYTE PTR __k$[ebp+5], -20 ; ffffffecH
  00110	eb 1c		 jmp	 SHORT $LN1@LoadInt_e
$LN92@LoadInt_e:
  00112	c6 45 f0 ed	 mov	 BYTE PTR __k$[ebp+4], -19 ; ffffffedH
  00116	eb 16		 jmp	 SHORT $LN1@LoadInt_e
$LN93@LoadInt_e:
  00118	c6 45 ef ea	 mov	 BYTE PTR __k$[ebp+3], -22 ; ffffffeaH
  0011c	eb 10		 jmp	 SHORT $LN1@LoadInt_e
$LN94@LoadInt_e:
  0011e	c6 45 ee eb	 mov	 BYTE PTR __k$[ebp+2], -21 ; ffffffebH
  00122	eb 0a		 jmp	 SHORT $LN1@LoadInt_e
$LN95@LoadInt_e:
  00124	c6 45 ed ec	 mov	 BYTE PTR __k$[ebp+1], -20 ; ffffffecH
  00128	eb 04		 jmp	 SHORT $LN1@LoadInt_e
$LN96@LoadInt_e:
  0012a	c6 45 ec ed	 mov	 BYTE PTR __k$[ebp], -19	; ffffffedH
$LN1@LoadInt_e:
  0012e	6a 02		 push	 2
  00130	8d 45 ec	 lea	 eax, DWORD PTR __k$[ebp]
  00133	c6 45 f5 00	 mov	 BYTE PTR __k$[ebp+9], 0
  00137	5a		 pop	 edx
$LL104@LoadInt_e:
  00138	81 30 ed ec eb
	ea		 xor	 DWORD PTR [eax], -353637139 ; eaebecedH
  0013e	83 c0 04	 add	 eax, 4
  00141	4a		 dec	 edx
  00142	75 f4		 jne	 SHORT $LL104@LoadInt_e

; 120  : 		return LoadInt(_k, i);

  00144	ff 75 0c	 push	 DWORD PTR _i$[ebp]
  00147	80 75 f4 ed	 xor	 BYTE PTR __k$[ebp+8], -19 ; ffffffedH
  0014b	8d 45 ec	 lea	 eax, DWORD PTR __k$[ebp]
  0014e	50		 push	 eax
  0014f	ff 15 00 00 00
	00		 call	 DWORD PTR __imp_?LoadInt@ioINILoader@@QAEHPBDH@Z

; 121  : 	}

  00155	8b 4d fc	 mov	 ecx, DWORD PTR __$ArrayPad$[ebp]
  00158	33 cd		 xor	 ecx, ebp
  0015a	e8 00 00 00 00	 call	 @__security_check_cookie@4
  0015f	c9		 leave
  00160	c2 08 00	 ret	 8
??$LoadInt_e@$09@ioINILoader@@QAEHAAY09$$CBDH@Z ENDP	; ioINILoader::LoadInt_e<10>
_TEXT	ENDS
PUBLIC	_this$GSCopy$
PUBLIC	__$ArrayPad$
PUBLIC	??$LoadString_e@$0P@@ioINILoader@@QAEXAAY0P@$$CBDAAY00$$CBDPADH@Z ; ioINILoader::LoadString_e<15>
EXTRN	__imp_?LoadStringA@ioINILoader@@QAEXPBD0PADH@Z:PROC
; Function compile flags: /Ogsp
;	COMDAT ??$LoadString_e@$0P@@ioINILoader@@QAEXAAY0P@$$CBDAAY00$$CBDPADH@Z
_TEXT	SEGMENT
_this$GSCopy$ = -28					; size = 4
__k$ = -24						; size = 15
__$ArrayPad$ = -4					; size = 4
_k$ = 8							; size = 4
_d$ = 12						; size = 4
_b$ = 16						; size = 4
_i$ = 20						; size = 4
??$LoadString_e@$0P@@ioINILoader@@QAEXAAY0P@$$CBDAAY00$$CBDPADH@Z PROC ; ioINILoader::LoadString_e<15>, COMDAT
; _this$ = ecx

; 161  : 	{

  00000	55		 push	 ebp
  00001	8b ec		 mov	 ebp, esp
  00003	83 ec 1c	 sub	 esp, 28			; 0000001cH
  00006	a1 00 00 00 00	 mov	 eax, DWORD PTR ___security_cookie
  0000b	33 c5		 xor	 eax, ebp
  0000d	89 45 fc	 mov	 DWORD PTR __$ArrayPad$[ebp], eax
  00010	8b 45 08	 mov	 eax, DWORD PTR _k$[ebp]

; 162  : 		_ENCSTR(k, _k);

  00013	8a 10		 mov	 dl, BYTE PTR [eax]
  00015	56		 push	 esi
  00016	8b 75 0c	 mov	 esi, DWORD PTR _d$[ebp]
  00019	57		 push	 edi
  0001a	8b 7d 10	 mov	 edi, DWORD PTR _b$[ebp]
  0001d	89 4d e4	 mov	 DWORD PTR _this$GSCopy$[ebp], ecx
  00020	84 d2		 test	 dl, dl
  00022	0f 84 75 01 00
	00		 je	 $LN96@LoadString
  00028	80 f2 ed	 xor	 dl, -19			; ffffffedH
  0002b	88 55 e8	 mov	 BYTE PTR __k$[ebp], dl
  0002e	8a 50 01	 mov	 dl, BYTE PTR [eax+1]
  00031	84 d2		 test	 dl, dl
  00033	0f 84 5e 01 00
	00		 je	 $LN95@LoadString
  00039	b1 ec		 mov	 cl, -20			; ffffffecH
  0003b	32 d1		 xor	 dl, cl
  0003d	88 55 e9	 mov	 BYTE PTR __k$[ebp+1], dl
  00040	8a 50 02	 mov	 dl, BYTE PTR [eax+2]
  00043	84 d2		 test	 dl, dl
  00045	0f 84 46 01 00
	00		 je	 $LN94@LoadString
  0004b	80 f2 eb	 xor	 dl, -21			; ffffffebH
  0004e	88 55 ea	 mov	 BYTE PTR __k$[ebp+2], dl
  00051	8a 50 03	 mov	 dl, BYTE PTR [eax+3]
  00054	84 d2		 test	 dl, dl
  00056	0f 84 2f 01 00
	00		 je	 $LN93@LoadString
  0005c	80 f2 ea	 xor	 dl, -22			; ffffffeaH
  0005f	88 55 eb	 mov	 BYTE PTR __k$[ebp+3], dl
  00062	8a 50 04	 mov	 dl, BYTE PTR [eax+4]
  00065	84 d2		 test	 dl, dl
  00067	0f 84 18 01 00
	00		 je	 $LN92@LoadString
  0006d	80 f2 ed	 xor	 dl, -19			; ffffffedH
  00070	88 55 ec	 mov	 BYTE PTR __k$[ebp+4], dl
  00073	8a 50 05	 mov	 dl, BYTE PTR [eax+5]
  00076	84 d2		 test	 dl, dl
  00078	0f 84 02 01 00
	00		 je	 $LN91@LoadString
  0007e	32 d1		 xor	 dl, cl
  00080	88 55 ed	 mov	 BYTE PTR __k$[ebp+5], dl
  00083	8a 50 06	 mov	 dl, BYTE PTR [eax+6]
  00086	84 d2		 test	 dl, dl
  00088	0f 84 ec 00 00
	00		 je	 $LN90@LoadString
  0008e	80 f2 eb	 xor	 dl, -21			; ffffffebH
  00091	88 55 ee	 mov	 BYTE PTR __k$[ebp+6], dl
  00094	8a 50 07	 mov	 dl, BYTE PTR [eax+7]
  00097	84 d2		 test	 dl, dl
  00099	0f 84 d5 00 00
	00		 je	 $LN89@LoadString
  0009f	80 f2 ea	 xor	 dl, -22			; ffffffeaH
  000a2	88 55 ef	 mov	 BYTE PTR __k$[ebp+7], dl
  000a5	8a 50 08	 mov	 dl, BYTE PTR [eax+8]
  000a8	84 d2		 test	 dl, dl
  000aa	0f 84 be 00 00
	00		 je	 $LN88@LoadString
  000b0	80 f2 ed	 xor	 dl, -19			; ffffffedH
  000b3	88 55 f0	 mov	 BYTE PTR __k$[ebp+8], dl
  000b6	8a 50 09	 mov	 dl, BYTE PTR [eax+9]
  000b9	84 d2		 test	 dl, dl
  000bb	0f 84 a8 00 00
	00		 je	 $LN87@LoadString
  000c1	32 d1		 xor	 dl, cl
  000c3	88 55 f1	 mov	 BYTE PTR __k$[ebp+9], dl
  000c6	8a 50 0a	 mov	 dl, BYTE PTR [eax+10]
  000c9	84 d2		 test	 dl, dl
  000cb	0f 84 92 00 00
	00		 je	 $LN86@LoadString
  000d1	80 f2 eb	 xor	 dl, -21			; ffffffebH
  000d4	88 55 f2	 mov	 BYTE PTR __k$[ebp+10], dl
  000d7	8a 50 0b	 mov	 dl, BYTE PTR [eax+11]
  000da	84 d2		 test	 dl, dl
  000dc	74 7f		 je	 SHORT $LN85@LoadString
  000de	80 f2 ea	 xor	 dl, -22			; ffffffeaH
  000e1	88 55 f3	 mov	 BYTE PTR __k$[ebp+11], dl
  000e4	8a 50 0c	 mov	 dl, BYTE PTR [eax+12]
  000e7	84 d2		 test	 dl, dl
  000e9	74 6c		 je	 SHORT $LN84@LoadString
  000eb	80 f2 ed	 xor	 dl, -19			; ffffffedH
  000ee	88 55 f4	 mov	 BYTE PTR __k$[ebp+12], dl
  000f1	8a 50 0d	 mov	 dl, BYTE PTR [eax+13]
  000f4	84 d2		 test	 dl, dl
  000f6	74 5a		 je	 SHORT $LN83@LoadString
  000f8	32 d1		 xor	 dl, cl
  000fa	80 78 0e 00	 cmp	 BYTE PTR [eax+14], 0
  000fe	88 55 f5	 mov	 BYTE PTR __k$[ebp+13], dl
  00101	0f 84 9a 00 00
	00		 je	 $LN111@LoadString
  00107	8a 50 0f	 mov	 dl, BYTE PTR [eax+15]
  0010a	84 d2		 test	 dl, dl
  0010c	74 3e		 je	 SHORT $LN81@LoadString
  0010e	80 f2 ea	 xor	 dl, -22			; ffffffeaH
  00111	88 55 f7	 mov	 BYTE PTR __k$[ebp+15], dl
  00114	8a 50 10	 mov	 dl, BYTE PTR [eax+16]
  00117	84 d2		 test	 dl, dl
  00119	74 2b		 je	 SHORT $LN80@LoadString
  0011b	80 f2 ed	 xor	 dl, -19			; ffffffedH
  0011e	88 55 f8	 mov	 BYTE PTR __k$[ebp+16], dl
  00121	8a 50 11	 mov	 dl, BYTE PTR [eax+17]
  00124	84 d2		 test	 dl, dl
  00126	74 19		 je	 SHORT $LN79@LoadString
  00128	8a 40 12	 mov	 al, BYTE PTR [eax+18]
  0012b	32 d1		 xor	 dl, cl
  0012d	88 55 f9	 mov	 BYTE PTR __k$[ebp+17], dl
  00130	84 c0		 test	 al, al
  00132	74 07		 je	 SHORT $LN78@LoadString
  00134	34 eb		 xor	 al, -21			; ffffffebH
  00136	88 45 fa	 mov	 BYTE PTR __k$[ebp+18], al
  00139	eb 66		 jmp	 SHORT $LN111@LoadString
$LN78@LoadString:
  0013b	c6 45 fa eb	 mov	 BYTE PTR __k$[ebp+18], -21 ; ffffffebH
  0013f	eb 60		 jmp	 SHORT $LN111@LoadString
$LN79@LoadString:
  00141	88 4d f9	 mov	 BYTE PTR __k$[ebp+17], cl
  00144	eb 5b		 jmp	 SHORT $LN111@LoadString
$LN80@LoadString:
  00146	c6 45 f8 ed	 mov	 BYTE PTR __k$[ebp+16], -19 ; ffffffedH
  0014a	eb 55		 jmp	 SHORT $LN111@LoadString
$LN81@LoadString:
  0014c	c6 45 f7 ea	 mov	 BYTE PTR __k$[ebp+15], -22 ; ffffffeaH
  00150	eb 4f		 jmp	 SHORT $LN111@LoadString
$LN83@LoadString:
  00152	88 4d f5	 mov	 BYTE PTR __k$[ebp+13], cl
  00155	eb 4a		 jmp	 SHORT $LN111@LoadString
$LN84@LoadString:
  00157	c6 45 f4 ed	 mov	 BYTE PTR __k$[ebp+12], -19 ; ffffffedH
  0015b	eb 44		 jmp	 SHORT $LN111@LoadString
$LN85@LoadString:
  0015d	c6 45 f3 ea	 mov	 BYTE PTR __k$[ebp+11], -22 ; ffffffeaH
  00161	eb 3e		 jmp	 SHORT $LN111@LoadString
$LN86@LoadString:
  00163	c6 45 f2 eb	 mov	 BYTE PTR __k$[ebp+10], -21 ; ffffffebH
  00167	eb 38		 jmp	 SHORT $LN111@LoadString
$LN87@LoadString:
  00169	88 4d f1	 mov	 BYTE PTR __k$[ebp+9], cl
  0016c	eb 33		 jmp	 SHORT $LN111@LoadString
$LN88@LoadString:
  0016e	c6 45 f0 ed	 mov	 BYTE PTR __k$[ebp+8], -19 ; ffffffedH
  00172	eb 2d		 jmp	 SHORT $LN111@LoadString
$LN89@LoadString:
  00174	c6 45 ef ea	 mov	 BYTE PTR __k$[ebp+7], -22 ; ffffffeaH
  00178	eb 27		 jmp	 SHORT $LN111@LoadString
$LN90@LoadString:
  0017a	c6 45 ee eb	 mov	 BYTE PTR __k$[ebp+6], -21 ; ffffffebH
  0017e	eb 21		 jmp	 SHORT $LN111@LoadString
$LN91@LoadString:
  00180	88 4d ed	 mov	 BYTE PTR __k$[ebp+5], cl
  00183	eb 1c		 jmp	 SHORT $LN111@LoadString
$LN92@LoadString:
  00185	c6 45 ec ed	 mov	 BYTE PTR __k$[ebp+4], -19 ; ffffffedH
  00189	eb 16		 jmp	 SHORT $LN111@LoadString
$LN93@LoadString:
  0018b	c6 45 eb ea	 mov	 BYTE PTR __k$[ebp+3], -22 ; ffffffeaH
  0018f	eb 10		 jmp	 SHORT $LN111@LoadString
$LN94@LoadString:
  00191	c6 45 ea eb	 mov	 BYTE PTR __k$[ebp+2], -21 ; ffffffebH
  00195	eb 0a		 jmp	 SHORT $LN111@LoadString
$LN95@LoadString:
  00197	c6 45 e9 ec	 mov	 BYTE PTR __k$[ebp+1], -20 ; ffffffecH
  0019b	eb 04		 jmp	 SHORT $LN111@LoadString
$LN96@LoadString:
  0019d	c6 45 e8 ed	 mov	 BYTE PTR __k$[ebp], -19	; ffffffedH
$LN111@LoadString:
  001a1	6a 03		 push	 3
  001a3	8d 45 e8	 lea	 eax, DWORD PTR __k$[ebp]
  001a6	c6 45 f6 00	 mov	 BYTE PTR __k$[ebp+14], 0
  001aa	5a		 pop	 edx
$LL104@LoadString:
  001ab	81 30 ed ec eb
	ea		 xor	 DWORD PTR [eax], -353637139 ; eaebecedH
  001b1	83 c0 04	 add	 eax, 4
  001b4	4a		 dec	 edx
  001b5	75 f4		 jne	 SHORT $LL104@LoadString
  001b7	6a 0c		 push	 12			; 0000000cH
  001b9	58		 pop	 eax
$LL101@LoadString:
  001ba	8b c8		 mov	 ecx, eax
  001bc	81 e1 03 00 00
	80		 and	 ecx, -2147483645	; 80000003H
  001c2	79 05		 jns	 SHORT $LN112@LoadString
  001c4	49		 dec	 ecx
  001c5	83 c9 fc	 or	 ecx, -4			; fffffffcH
  001c8	41		 inc	 ecx
$LN112@LoadString:
  001c9	b2 ed		 mov	 dl, -19			; ffffffedH
  001cb	2a d1		 sub	 dl, cl
  001cd	30 54 05 e8	 xor	 BYTE PTR __k$[ebp+eax], dl
  001d1	40		 inc	 eax
  001d2	83 f8 0e	 cmp	 eax, 14			; 0000000eH
  001d5	7c e3		 jl	 SHORT $LL101@LoadString

; 163  : 		LoadString(_k, d, b, i);

  001d7	ff 75 14	 push	 DWORD PTR _i$[ebp]
  001da	8b 4d e4	 mov	 ecx, DWORD PTR _this$GSCopy$[ebp]
  001dd	57		 push	 edi
  001de	56		 push	 esi
  001df	8d 45 e8	 lea	 eax, DWORD PTR __k$[ebp]
  001e2	50		 push	 eax
  001e3	ff 15 00 00 00
	00		 call	 DWORD PTR __imp_?LoadStringA@ioINILoader@@QAEXPBD0PADH@Z

; 164  : 	}

  001e9	8b 4d fc	 mov	 ecx, DWORD PTR __$ArrayPad$[ebp]
  001ec	5f		 pop	 edi
  001ed	33 cd		 xor	 ecx, ebp
  001ef	5e		 pop	 esi
  001f0	e8 00 00 00 00	 call	 @__security_check_cookie@4
  001f5	c9		 leave
  001f6	c2 10 00	 ret	 16			; 00000010H
??$LoadString_e@$0P@@ioINILoader@@QAEXAAY0P@$$CBDAAY00$$CBDPADH@Z ENDP ; ioINILoader::LoadString_e<15>
_TEXT	ENDS
PUBLIC	__$ArrayPad$
PUBLIC	??$LoadFloat_e@$0L@@ioINILoader@@QAEMAAY0L@$$CBDM@Z ; ioINILoader::LoadFloat_e<11>
; Function compile flags: /Ogsp
;	COMDAT ??$LoadFloat_e@$0L@@ioINILoader@@QAEMAAY0L@$$CBDM@Z
_TEXT	SEGMENT
__k$ = -20						; size = 11
__$ArrayPad$ = -4					; size = 4
_k$ = 8							; size = 4
_f$ = 12						; size = 4
??$LoadFloat_e@$0L@@ioINILoader@@QAEMAAY0L@$$CBDM@Z PROC ; ioINILoader::LoadFloat_e<11>, COMDAT
; _this$ = ecx

; 135  : 	{

  00000	55		 push	 ebp
  00001	8b ec		 mov	 ebp, esp
  00003	83 ec 14	 sub	 esp, 20			; 00000014H
  00006	a1 00 00 00 00	 mov	 eax, DWORD PTR ___security_cookie
  0000b	33 c5		 xor	 eax, ebp
  0000d	89 45 fc	 mov	 DWORD PTR __$ArrayPad$[ebp], eax
  00010	8b 45 08	 mov	 eax, DWORD PTR _k$[ebp]

; 136  : 		_ENCSTR(k, _k);

  00013	8a 10		 mov	 dl, BYTE PTR [eax]
  00015	56		 push	 esi
  00016	8b f1		 mov	 esi, ecx
  00018	84 d2		 test	 dl, dl
  0001a	0f 84 24 01 00
	00		 je	 $LN96@LoadFloat_@2
  00020	80 f2 ed	 xor	 dl, -19			; ffffffedH
  00023	88 55 ec	 mov	 BYTE PTR __k$[ebp], dl
  00026	8a 50 01	 mov	 dl, BYTE PTR [eax+1]
  00029	84 d2		 test	 dl, dl
  0002b	0f 84 0d 01 00
	00		 je	 $LN95@LoadFloat_@2
  00031	80 f2 ec	 xor	 dl, -20			; ffffffecH
  00034	88 55 ed	 mov	 BYTE PTR __k$[ebp+1], dl
  00037	8a 50 02	 mov	 dl, BYTE PTR [eax+2]
  0003a	84 d2		 test	 dl, dl
  0003c	0f 84 f6 00 00
	00		 je	 $LN94@LoadFloat_@2
  00042	80 f2 eb	 xor	 dl, -21			; ffffffebH
  00045	88 55 ee	 mov	 BYTE PTR __k$[ebp+2], dl
  00048	8a 50 03	 mov	 dl, BYTE PTR [eax+3]
  0004b	84 d2		 test	 dl, dl
  0004d	0f 84 df 00 00
	00		 je	 $LN93@LoadFloat_@2
  00053	80 f2 ea	 xor	 dl, -22			; ffffffeaH
  00056	88 55 ef	 mov	 BYTE PTR __k$[ebp+3], dl
  00059	8a 50 04	 mov	 dl, BYTE PTR [eax+4]
  0005c	84 d2		 test	 dl, dl
  0005e	0f 84 c8 00 00
	00		 je	 $LN92@LoadFloat_@2
  00064	80 f2 ed	 xor	 dl, -19			; ffffffedH
  00067	88 55 f0	 mov	 BYTE PTR __k$[ebp+4], dl
  0006a	8a 50 05	 mov	 dl, BYTE PTR [eax+5]
  0006d	84 d2		 test	 dl, dl
  0006f	0f 84 b1 00 00
	00		 je	 $LN91@LoadFloat_@2
  00075	80 f2 ec	 xor	 dl, -20			; ffffffecH
  00078	88 55 f1	 mov	 BYTE PTR __k$[ebp+5], dl
  0007b	8a 50 06	 mov	 dl, BYTE PTR [eax+6]
  0007e	84 d2		 test	 dl, dl
  00080	0f 84 9a 00 00
	00		 je	 $LN90@LoadFloat_@2
  00086	80 f2 eb	 xor	 dl, -21			; ffffffebH
  00089	88 55 f2	 mov	 BYTE PTR __k$[ebp+6], dl
  0008c	8a 50 07	 mov	 dl, BYTE PTR [eax+7]
  0008f	84 d2		 test	 dl, dl
  00091	0f 84 83 00 00
	00		 je	 $LN89@LoadFloat_@2
  00097	80 f2 ea	 xor	 dl, -22			; ffffffeaH
  0009a	88 55 f3	 mov	 BYTE PTR __k$[ebp+7], dl
  0009d	8a 50 08	 mov	 dl, BYTE PTR [eax+8]
  000a0	84 d2		 test	 dl, dl
  000a2	74 70		 je	 SHORT $LN88@LoadFloat_@2
  000a4	80 f2 ed	 xor	 dl, -19			; ffffffedH
  000a7	88 55 f4	 mov	 BYTE PTR __k$[ebp+8], dl
  000aa	8a 50 09	 mov	 dl, BYTE PTR [eax+9]
  000ad	84 d2		 test	 dl, dl
  000af	74 5d		 je	 SHORT $LN87@LoadFloat_@2
  000b1	80 f2 ec	 xor	 dl, -20			; ffffffecH
  000b4	80 78 0a 00	 cmp	 BYTE PTR [eax+10], 0
  000b8	88 55 f5	 mov	 BYTE PTR __k$[ebp+9], dl
  000bb	0f 84 87 00 00
	00		 je	 $LN1@LoadFloat_@2
  000c1	8a 50 0b	 mov	 dl, BYTE PTR [eax+11]
  000c4	84 d2		 test	 dl, dl
  000c6	74 40		 je	 SHORT $LN85@LoadFloat_@2
  000c8	80 f2 ea	 xor	 dl, -22			; ffffffeaH
  000cb	88 55 f7	 mov	 BYTE PTR __k$[ebp+11], dl
  000ce	8a 50 0c	 mov	 dl, BYTE PTR [eax+12]
  000d1	84 d2		 test	 dl, dl
  000d3	74 2d		 je	 SHORT $LN84@LoadFloat_@2
  000d5	80 f2 ed	 xor	 dl, -19			; ffffffedH
  000d8	88 55 f8	 mov	 BYTE PTR __k$[ebp+12], dl
  000db	8a 50 0d	 mov	 dl, BYTE PTR [eax+13]
  000de	84 d2		 test	 dl, dl
  000e0	74 1a		 je	 SHORT $LN83@LoadFloat_@2
  000e2	8a 40 0e	 mov	 al, BYTE PTR [eax+14]
  000e5	80 f2 ec	 xor	 dl, -20			; ffffffecH
  000e8	88 55 f9	 mov	 BYTE PTR __k$[ebp+13], dl
  000eb	84 c0		 test	 al, al
  000ed	74 07		 je	 SHORT $LN82@LoadFloat_@2
  000ef	34 eb		 xor	 al, -21			; ffffffebH
  000f1	88 45 fa	 mov	 BYTE PTR __k$[ebp+14], al
  000f4	eb 52		 jmp	 SHORT $LN1@LoadFloat_@2
$LN82@LoadFloat_@2:
  000f6	c6 45 fa eb	 mov	 BYTE PTR __k$[ebp+14], -21 ; ffffffebH
  000fa	eb 4c		 jmp	 SHORT $LN1@LoadFloat_@2
$LN83@LoadFloat_@2:
  000fc	c6 45 f9 ec	 mov	 BYTE PTR __k$[ebp+13], -20 ; ffffffecH
  00100	eb 46		 jmp	 SHORT $LN1@LoadFloat_@2
$LN84@LoadFloat_@2:
  00102	c6 45 f8 ed	 mov	 BYTE PTR __k$[ebp+12], -19 ; ffffffedH
  00106	eb 40		 jmp	 SHORT $LN1@LoadFloat_@2
$LN85@LoadFloat_@2:
  00108	c6 45 f7 ea	 mov	 BYTE PTR __k$[ebp+11], -22 ; ffffffeaH
  0010c	eb 3a		 jmp	 SHORT $LN1@LoadFloat_@2
$LN87@LoadFloat_@2:
  0010e	c6 45 f5 ec	 mov	 BYTE PTR __k$[ebp+9], -20 ; ffffffecH
  00112	eb 34		 jmp	 SHORT $LN1@LoadFloat_@2
$LN88@LoadFloat_@2:
  00114	c6 45 f4 ed	 mov	 BYTE PTR __k$[ebp+8], -19 ; ffffffedH
  00118	eb 2e		 jmp	 SHORT $LN1@LoadFloat_@2
$LN89@LoadFloat_@2:
  0011a	c6 45 f3 ea	 mov	 BYTE PTR __k$[ebp+7], -22 ; ffffffeaH
  0011e	eb 28		 jmp	 SHORT $LN1@LoadFloat_@2
$LN90@LoadFloat_@2:
  00120	c6 45 f2 eb	 mov	 BYTE PTR __k$[ebp+6], -21 ; ffffffebH
  00124	eb 22		 jmp	 SHORT $LN1@LoadFloat_@2
$LN91@LoadFloat_@2:
  00126	c6 45 f1 ec	 mov	 BYTE PTR __k$[ebp+5], -20 ; ffffffecH
  0012a	eb 1c		 jmp	 SHORT $LN1@LoadFloat_@2
$LN92@LoadFloat_@2:
  0012c	c6 45 f0 ed	 mov	 BYTE PTR __k$[ebp+4], -19 ; ffffffedH
  00130	eb 16		 jmp	 SHORT $LN1@LoadFloat_@2
$LN93@LoadFloat_@2:
  00132	c6 45 ef ea	 mov	 BYTE PTR __k$[ebp+3], -22 ; ffffffeaH
  00136	eb 10		 jmp	 SHORT $LN1@LoadFloat_@2
$LN94@LoadFloat_@2:
  00138	c6 45 ee eb	 mov	 BYTE PTR __k$[ebp+2], -21 ; ffffffebH
  0013c	eb 0a		 jmp	 SHORT $LN1@LoadFloat_@2
$LN95@LoadFloat_@2:
  0013e	c6 45 ed ec	 mov	 BYTE PTR __k$[ebp+1], -20 ; ffffffecH
  00142	eb 04		 jmp	 SHORT $LN1@LoadFloat_@2
$LN96@LoadFloat_@2:
  00144	c6 45 ec ed	 mov	 BYTE PTR __k$[ebp], -19	; ffffffedH
$LN1@LoadFloat_@2:
  00148	6a 02		 push	 2
  0014a	8d 45 ec	 lea	 eax, DWORD PTR __k$[ebp]
  0014d	c6 45 f6 00	 mov	 BYTE PTR __k$[ebp+10], 0
  00151	5a		 pop	 edx
$LL104@LoadFloat_@2:
  00152	81 30 ed ec eb
	ea		 xor	 DWORD PTR [eax], -353637139 ; eaebecedH
  00158	83 c0 04	 add	 eax, 4
  0015b	4a		 dec	 edx
  0015c	75 f4		 jne	 SHORT $LL104@LoadFloat_@2
  0015e	6a 08		 push	 8
  00160	58		 pop	 eax
$LL101@LoadFloat_@2:
  00161	8b c8		 mov	 ecx, eax
  00163	81 e1 03 00 00
	80		 and	 ecx, -2147483645	; 80000003H
  00169	79 05		 jns	 SHORT $LN111@LoadFloat_@2
  0016b	49		 dec	 ecx
  0016c	83 c9 fc	 or	 ecx, -4			; fffffffcH
  0016f	41		 inc	 ecx
$LN111@LoadFloat_@2:
  00170	b2 ed		 mov	 dl, -19			; ffffffedH
  00172	2a d1		 sub	 dl, cl
  00174	30 54 05 ec	 xor	 BYTE PTR __k$[ebp+eax], dl
  00178	40		 inc	 eax
  00179	83 f8 0a	 cmp	 eax, 10			; 0000000aH
  0017c	7c e3		 jl	 SHORT $LL101@LoadFloat_@2

; 137  : 		return LoadFloat(_k, f);

  0017e	f3 0f 10 45 0c	 movss	 xmm0, DWORD PTR _f$[ebp]
  00183	51		 push	 ecx
  00184	8d 45 ec	 lea	 eax, DWORD PTR __k$[ebp]
  00187	f3 0f 11 04 24	 movss	 DWORD PTR [esp], xmm0
  0018c	50		 push	 eax
  0018d	8b ce		 mov	 ecx, esi
  0018f	ff 15 00 00 00
	00		 call	 DWORD PTR __imp_?LoadFloat@ioINILoader@@QAEMPBDM@Z

; 138  : 	}

  00195	8b 4d fc	 mov	 ecx, DWORD PTR __$ArrayPad$[ebp]
  00198	33 cd		 xor	 ecx, ebp
  0019a	5e		 pop	 esi
  0019b	e8 00 00 00 00	 call	 @__security_check_cookie@4
  001a0	c9		 leave
  001a1	c2 08 00	 ret	 8
??$LoadFloat_e@$0L@@ioINILoader@@QAEMAAY0L@$$CBDM@Z ENDP ; ioINILoader::LoadFloat_e<11>
_TEXT	ENDS
PUBLIC	__$ArrayPad$
PUBLIC	??$LoadInt_e@$0O@@ioINILoader@@QAEHAAY0O@$$CBDH@Z ; ioINILoader::LoadInt_e<14>
; Function compile flags: /Ogsp
;	COMDAT ??$LoadInt_e@$0O@@ioINILoader@@QAEHAAY0O@$$CBDH@Z
_TEXT	SEGMENT
__k$ = -24						; size = 14
__$ArrayPad$ = -4					; size = 4
_k$ = 8							; size = 4
_i$ = 12						; size = 4
??$LoadInt_e@$0O@@ioINILoader@@QAEHAAY0O@$$CBDH@Z PROC	; ioINILoader::LoadInt_e<14>, COMDAT
; _this$ = ecx

; 118  : 	{

  00000	55		 push	 ebp
  00001	8b ec		 mov	 ebp, esp
  00003	83 ec 18	 sub	 esp, 24			; 00000018H
  00006	a1 00 00 00 00	 mov	 eax, DWORD PTR ___security_cookie
  0000b	33 c5		 xor	 eax, ebp
  0000d	89 45 fc	 mov	 DWORD PTR __$ArrayPad$[ebp], eax
  00010	8b 45 08	 mov	 eax, DWORD PTR _k$[ebp]

; 119  : 		_ENCSTR(k, _k);

  00013	8a 10		 mov	 dl, BYTE PTR [eax]
  00015	56		 push	 esi
  00016	8b f1		 mov	 esi, ecx
  00018	84 d2		 test	 dl, dl
  0001a	0f 84 64 01 00
	00		 je	 $LN96@LoadInt_e@2
  00020	80 f2 ed	 xor	 dl, -19			; ffffffedH
  00023	88 55 e8	 mov	 BYTE PTR __k$[ebp], dl
  00026	8a 50 01	 mov	 dl, BYTE PTR [eax+1]
  00029	84 d2		 test	 dl, dl
  0002b	0f 84 4d 01 00
	00		 je	 $LN95@LoadInt_e@2
  00031	80 f2 ec	 xor	 dl, -20			; ffffffecH
  00034	88 55 e9	 mov	 BYTE PTR __k$[ebp+1], dl
  00037	8a 50 02	 mov	 dl, BYTE PTR [eax+2]
  0003a	84 d2		 test	 dl, dl
  0003c	0f 84 36 01 00
	00		 je	 $LN94@LoadInt_e@2
  00042	b1 eb		 mov	 cl, -21			; ffffffebH
  00044	32 d1		 xor	 dl, cl
  00046	88 55 ea	 mov	 BYTE PTR __k$[ebp+2], dl
  00049	8a 50 03	 mov	 dl, BYTE PTR [eax+3]
  0004c	84 d2		 test	 dl, dl
  0004e	0f 84 1e 01 00
	00		 je	 $LN93@LoadInt_e@2
  00054	80 f2 ea	 xor	 dl, -22			; ffffffeaH
  00057	88 55 eb	 mov	 BYTE PTR __k$[ebp+3], dl
  0005a	8a 50 04	 mov	 dl, BYTE PTR [eax+4]
  0005d	84 d2		 test	 dl, dl
  0005f	0f 84 07 01 00
	00		 je	 $LN92@LoadInt_e@2
  00065	80 f2 ed	 xor	 dl, -19			; ffffffedH
  00068	88 55 ec	 mov	 BYTE PTR __k$[ebp+4], dl
  0006b	8a 50 05	 mov	 dl, BYTE PTR [eax+5]
  0006e	84 d2		 test	 dl, dl
  00070	0f 84 f0 00 00
	00		 je	 $LN91@LoadInt_e@2
  00076	80 f2 ec	 xor	 dl, -20			; ffffffecH
  00079	88 55 ed	 mov	 BYTE PTR __k$[ebp+5], dl
  0007c	8a 50 06	 mov	 dl, BYTE PTR [eax+6]
  0007f	84 d2		 test	 dl, dl
  00081	0f 84 da 00 00
	00		 je	 $LN90@LoadInt_e@2
  00087	32 d1		 xor	 dl, cl
  00089	88 55 ee	 mov	 BYTE PTR __k$[ebp+6], dl
  0008c	8a 50 07	 mov	 dl, BYTE PTR [eax+7]
  0008f	84 d2		 test	 dl, dl
  00091	0f 84 c4 00 00
	00		 je	 $LN89@LoadInt_e@2
  00097	80 f2 ea	 xor	 dl, -22			; ffffffeaH
  0009a	88 55 ef	 mov	 BYTE PTR __k$[ebp+7], dl
  0009d	8a 50 08	 mov	 dl, BYTE PTR [eax+8]
  000a0	84 d2		 test	 dl, dl
  000a2	0f 84 ad 00 00
	00		 je	 $LN88@LoadInt_e@2
  000a8	80 f2 ed	 xor	 dl, -19			; ffffffedH
  000ab	88 55 f0	 mov	 BYTE PTR __k$[ebp+8], dl
  000ae	8a 50 09	 mov	 dl, BYTE PTR [eax+9]
  000b1	84 d2		 test	 dl, dl
  000b3	0f 84 96 00 00
	00		 je	 $LN87@LoadInt_e@2
  000b9	80 f2 ec	 xor	 dl, -20			; ffffffecH
  000bc	88 55 f1	 mov	 BYTE PTR __k$[ebp+9], dl
  000bf	8a 50 0a	 mov	 dl, BYTE PTR [eax+10]
  000c2	84 d2		 test	 dl, dl
  000c4	0f 84 80 00 00
	00		 je	 $LN86@LoadInt_e@2
  000ca	32 d1		 xor	 dl, cl
  000cc	88 55 f2	 mov	 BYTE PTR __k$[ebp+10], dl
  000cf	8a 50 0b	 mov	 dl, BYTE PTR [eax+11]
  000d2	84 d2		 test	 dl, dl
  000d4	74 6e		 je	 SHORT $LN85@LoadInt_e@2
  000d6	80 f2 ea	 xor	 dl, -22			; ffffffeaH
  000d9	88 55 f3	 mov	 BYTE PTR __k$[ebp+11], dl
  000dc	8a 50 0c	 mov	 dl, BYTE PTR [eax+12]
  000df	84 d2		 test	 dl, dl
  000e1	74 5b		 je	 SHORT $LN84@LoadInt_e@2
  000e3	80 f2 ed	 xor	 dl, -19			; ffffffedH
  000e6	80 78 0d 00	 cmp	 BYTE PTR [eax+13], 0
  000ea	88 55 f4	 mov	 BYTE PTR __k$[ebp+12], dl
  000ed	0f 84 95 00 00
	00		 je	 $LN1@LoadInt_e@2
  000f3	8a 50 0e	 mov	 dl, BYTE PTR [eax+14]
  000f6	84 d2		 test	 dl, dl
  000f8	74 3f		 je	 SHORT $LN82@LoadInt_e@2
  000fa	32 d1		 xor	 dl, cl
  000fc	88 55 f6	 mov	 BYTE PTR __k$[ebp+14], dl
  000ff	8a 50 0f	 mov	 dl, BYTE PTR [eax+15]
  00102	84 d2		 test	 dl, dl
  00104	74 2d		 je	 SHORT $LN81@LoadInt_e@2
  00106	80 f2 ea	 xor	 dl, -22			; ffffffeaH
  00109	88 55 f7	 mov	 BYTE PTR __k$[ebp+15], dl
  0010c	8a 50 10	 mov	 dl, BYTE PTR [eax+16]
  0010f	84 d2		 test	 dl, dl
  00111	74 1a		 je	 SHORT $LN80@LoadInt_e@2
  00113	8a 40 11	 mov	 al, BYTE PTR [eax+17]
  00116	80 f2 ed	 xor	 dl, -19			; ffffffedH
  00119	88 55 f8	 mov	 BYTE PTR __k$[ebp+16], dl
  0011c	84 c0		 test	 al, al
  0011e	74 07		 je	 SHORT $LN79@LoadInt_e@2
  00120	34 ec		 xor	 al, -20			; ffffffecH
  00122	88 45 f9	 mov	 BYTE PTR __k$[ebp+17], al
  00125	eb 61		 jmp	 SHORT $LN1@LoadInt_e@2
$LN79@LoadInt_e@2:
  00127	c6 45 f9 ec	 mov	 BYTE PTR __k$[ebp+17], -20 ; ffffffecH
  0012b	eb 5b		 jmp	 SHORT $LN1@LoadInt_e@2
$LN80@LoadInt_e@2:
  0012d	c6 45 f8 ed	 mov	 BYTE PTR __k$[ebp+16], -19 ; ffffffedH
  00131	eb 55		 jmp	 SHORT $LN1@LoadInt_e@2
$LN81@LoadInt_e@2:
  00133	c6 45 f7 ea	 mov	 BYTE PTR __k$[ebp+15], -22 ; ffffffeaH
  00137	eb 4f		 jmp	 SHORT $LN1@LoadInt_e@2
$LN82@LoadInt_e@2:
  00139	88 4d f6	 mov	 BYTE PTR __k$[ebp+14], cl
  0013c	eb 4a		 jmp	 SHORT $LN1@LoadInt_e@2
$LN84@LoadInt_e@2:
  0013e	c6 45 f4 ed	 mov	 BYTE PTR __k$[ebp+12], -19 ; ffffffedH
  00142	eb 44		 jmp	 SHORT $LN1@LoadInt_e@2
$LN85@LoadInt_e@2:
  00144	c6 45 f3 ea	 mov	 BYTE PTR __k$[ebp+11], -22 ; ffffffeaH
  00148	eb 3e		 jmp	 SHORT $LN1@LoadInt_e@2
$LN86@LoadInt_e@2:
  0014a	88 4d f2	 mov	 BYTE PTR __k$[ebp+10], cl
  0014d	eb 39		 jmp	 SHORT $LN1@LoadInt_e@2
$LN87@LoadInt_e@2:
  0014f	c6 45 f1 ec	 mov	 BYTE PTR __k$[ebp+9], -20 ; ffffffecH
  00153	eb 33		 jmp	 SHORT $LN1@LoadInt_e@2
$LN88@LoadInt_e@2:
  00155	c6 45 f0 ed	 mov	 BYTE PTR __k$[ebp+8], -19 ; ffffffedH
  00159	eb 2d		 jmp	 SHORT $LN1@LoadInt_e@2
$LN89@LoadInt_e@2:
  0015b	c6 45 ef ea	 mov	 BYTE PTR __k$[ebp+7], -22 ; ffffffeaH
  0015f	eb 27		 jmp	 SHORT $LN1@LoadInt_e@2
$LN90@LoadInt_e@2:
  00161	88 4d ee	 mov	 BYTE PTR __k$[ebp+6], cl
  00164	eb 22		 jmp	 SHORT $LN1@LoadInt_e@2
$LN91@LoadInt_e@2:
  00166	c6 45 ed ec	 mov	 BYTE PTR __k$[ebp+5], -20 ; ffffffecH
  0016a	eb 1c		 jmp	 SHORT $LN1@LoadInt_e@2
$LN92@LoadInt_e@2:
  0016c	c6 45 ec ed	 mov	 BYTE PTR __k$[ebp+4], -19 ; ffffffedH
  00170	eb 16		 jmp	 SHORT $LN1@LoadInt_e@2
$LN93@LoadInt_e@2:
  00172	c6 45 eb ea	 mov	 BYTE PTR __k$[ebp+3], -22 ; ffffffeaH
  00176	eb 10		 jmp	 SHORT $LN1@LoadInt_e@2
$LN94@LoadInt_e@2:
  00178	c6 45 ea eb	 mov	 BYTE PTR __k$[ebp+2], -21 ; ffffffebH
  0017c	eb 0a		 jmp	 SHORT $LN1@LoadInt_e@2
$LN95@LoadInt_e@2:
  0017e	c6 45 e9 ec	 mov	 BYTE PTR __k$[ebp+1], -20 ; ffffffecH
  00182	eb 04		 jmp	 SHORT $LN1@LoadInt_e@2
$LN96@LoadInt_e@2:
  00184	c6 45 e8 ed	 mov	 BYTE PTR __k$[ebp], -19	; ffffffedH
$LN1@LoadInt_e@2:
  00188	6a 03		 push	 3
  0018a	8d 45 e8	 lea	 eax, DWORD PTR __k$[ebp]
  0018d	c6 45 f5 00	 mov	 BYTE PTR __k$[ebp+13], 0
  00191	5a		 pop	 edx
$LL104@LoadInt_e@2:
  00192	81 30 ed ec eb
	ea		 xor	 DWORD PTR [eax], -353637139 ; eaebecedH
  00198	83 c0 04	 add	 eax, 4
  0019b	4a		 dec	 edx
  0019c	75 f4		 jne	 SHORT $LL104@LoadInt_e@2

; 120  : 		return LoadInt(_k, i);

  0019e	ff 75 0c	 push	 DWORD PTR _i$[ebp]
  001a1	80 75 f4 ed	 xor	 BYTE PTR __k$[ebp+12], -19 ; ffffffedH
  001a5	8d 45 e8	 lea	 eax, DWORD PTR __k$[ebp]
  001a8	50		 push	 eax
  001a9	8b ce		 mov	 ecx, esi
  001ab	ff 15 00 00 00
	00		 call	 DWORD PTR __imp_?LoadInt@ioINILoader@@QAEHPBDH@Z

; 121  : 	}

  001b1	8b 4d fc	 mov	 ecx, DWORD PTR __$ArrayPad$[ebp]
  001b4	33 cd		 xor	 ecx, ebp
  001b6	5e		 pop	 esi
  001b7	e8 00 00 00 00	 call	 @__security_check_cookie@4
  001bc	c9		 leave
  001bd	c2 08 00	 ret	 8
??$LoadInt_e@$0O@@ioINILoader@@QAEHAAY0O@$$CBDH@Z ENDP	; ioINILoader::LoadInt_e<14>
_TEXT	ENDS
PUBLIC	__$ArrayPad$
PUBLIC	??$LoadInt_e@$0BB@@ioINILoader@@QAEHAAY0BB@$$CBDH@Z ; ioINILoader::LoadInt_e<17>
; Function compile flags: /Ogsp
;	COMDAT ??$LoadInt_e@$0BB@@ioINILoader@@QAEHAAY0BB@$$CBDH@Z
_TEXT	SEGMENT
__k$ = -28						; size = 17
__$ArrayPad$ = -4					; size = 4
_k$ = 8							; size = 4
_i$ = 12						; size = 4
??$LoadInt_e@$0BB@@ioINILoader@@QAEHAAY0BB@$$CBDH@Z PROC ; ioINILoader::LoadInt_e<17>, COMDAT
; _this$ = ecx

; 118  : 	{

  00000	55		 push	 ebp
  00001	8b ec		 mov	 ebp, esp
  00003	83 ec 1c	 sub	 esp, 28			; 0000001cH
  00006	a1 00 00 00 00	 mov	 eax, DWORD PTR ___security_cookie
  0000b	33 c5		 xor	 eax, ebp
  0000d	89 45 fc	 mov	 DWORD PTR __$ArrayPad$[ebp], eax
  00010	8b 45 08	 mov	 eax, DWORD PTR _k$[ebp]

; 119  : 		_ENCSTR(k, _k);

  00013	8a 10		 mov	 dl, BYTE PTR [eax]
  00015	56		 push	 esi
  00016	8b f1		 mov	 esi, ecx
  00018	84 d2		 test	 dl, dl
  0001a	0f 84 a7 01 00
	00		 je	 $LN96@LoadInt_e@3
  00020	80 f2 ed	 xor	 dl, -19			; ffffffedH
  00023	88 55 e4	 mov	 BYTE PTR __k$[ebp], dl
  00026	8a 50 01	 mov	 dl, BYTE PTR [eax+1]
  00029	84 d2		 test	 dl, dl
  0002b	0f 84 90 01 00
	00		 je	 $LN95@LoadInt_e@3
  00031	b1 ec		 mov	 cl, -20			; ffffffecH
  00033	32 d1		 xor	 dl, cl
  00035	88 55 e5	 mov	 BYTE PTR __k$[ebp+1], dl
  00038	8a 50 02	 mov	 dl, BYTE PTR [eax+2]
  0003b	84 d2		 test	 dl, dl
  0003d	0f 84 78 01 00
	00		 je	 $LN94@LoadInt_e@3
  00043	80 f2 eb	 xor	 dl, -21			; ffffffebH
  00046	88 55 e6	 mov	 BYTE PTR __k$[ebp+2], dl
  00049	8a 50 03	 mov	 dl, BYTE PTR [eax+3]
  0004c	84 d2		 test	 dl, dl
  0004e	0f 84 61 01 00
	00		 je	 $LN93@LoadInt_e@3
  00054	80 f2 ea	 xor	 dl, -22			; ffffffeaH
  00057	88 55 e7	 mov	 BYTE PTR __k$[ebp+3], dl
  0005a	8a 50 04	 mov	 dl, BYTE PTR [eax+4]
  0005d	84 d2		 test	 dl, dl
  0005f	0f 84 4a 01 00
	00		 je	 $LN92@LoadInt_e@3
  00065	80 f2 ed	 xor	 dl, -19			; ffffffedH
  00068	88 55 e8	 mov	 BYTE PTR __k$[ebp+4], dl
  0006b	8a 50 05	 mov	 dl, BYTE PTR [eax+5]
  0006e	84 d2		 test	 dl, dl
  00070	0f 84 34 01 00
	00		 je	 $LN91@LoadInt_e@3
  00076	32 d1		 xor	 dl, cl
  00078	88 55 e9	 mov	 BYTE PTR __k$[ebp+5], dl
  0007b	8a 50 06	 mov	 dl, BYTE PTR [eax+6]
  0007e	84 d2		 test	 dl, dl
  00080	0f 84 1e 01 00
	00		 je	 $LN90@LoadInt_e@3
  00086	80 f2 eb	 xor	 dl, -21			; ffffffebH
  00089	88 55 ea	 mov	 BYTE PTR __k$[ebp+6], dl
  0008c	8a 50 07	 mov	 dl, BYTE PTR [eax+7]
  0008f	84 d2		 test	 dl, dl
  00091	0f 84 07 01 00
	00		 je	 $LN89@LoadInt_e@3
  00097	80 f2 ea	 xor	 dl, -22			; ffffffeaH
  0009a	88 55 eb	 mov	 BYTE PTR __k$[ebp+7], dl
  0009d	8a 50 08	 mov	 dl, BYTE PTR [eax+8]
  000a0	84 d2		 test	 dl, dl
  000a2	0f 84 f0 00 00
	00		 je	 $LN88@LoadInt_e@3
  000a8	80 f2 ed	 xor	 dl, -19			; ffffffedH
  000ab	88 55 ec	 mov	 BYTE PTR __k$[ebp+8], dl
  000ae	8a 50 09	 mov	 dl, BYTE PTR [eax+9]
  000b1	84 d2		 test	 dl, dl
  000b3	0f 84 da 00 00
	00		 je	 $LN87@LoadInt_e@3
  000b9	32 d1		 xor	 dl, cl
  000bb	88 55 ed	 mov	 BYTE PTR __k$[ebp+9], dl
  000be	8a 50 0a	 mov	 dl, BYTE PTR [eax+10]
  000c1	84 d2		 test	 dl, dl
  000c3	0f 84 c4 00 00
	00		 je	 $LN86@LoadInt_e@3
  000c9	80 f2 eb	 xor	 dl, -21			; ffffffebH
  000cc	88 55 ee	 mov	 BYTE PTR __k$[ebp+10], dl
  000cf	8a 50 0b	 mov	 dl, BYTE PTR [eax+11]
  000d2	84 d2		 test	 dl, dl
  000d4	0f 84 ad 00 00
	00		 je	 $LN85@LoadInt_e@3
  000da	80 f2 ea	 xor	 dl, -22			; ffffffeaH
  000dd	88 55 ef	 mov	 BYTE PTR __k$[ebp+11], dl
  000e0	8a 50 0c	 mov	 dl, BYTE PTR [eax+12]
  000e3	84 d2		 test	 dl, dl
  000e5	0f 84 96 00 00
	00		 je	 $LN84@LoadInt_e@3
  000eb	80 f2 ed	 xor	 dl, -19			; ffffffedH
  000ee	88 55 f0	 mov	 BYTE PTR __k$[ebp+12], dl
  000f1	8a 50 0d	 mov	 dl, BYTE PTR [eax+13]
  000f4	84 d2		 test	 dl, dl
  000f6	0f 84 80 00 00
	00		 je	 $LN83@LoadInt_e@3
  000fc	32 d1		 xor	 dl, cl
  000fe	88 55 f1	 mov	 BYTE PTR __k$[ebp+13], dl
  00101	8a 50 0e	 mov	 dl, BYTE PTR [eax+14]
  00104	84 d2		 test	 dl, dl
  00106	74 6e		 je	 SHORT $LN82@LoadInt_e@3
  00108	80 f2 eb	 xor	 dl, -21			; ffffffebH
  0010b	88 55 f2	 mov	 BYTE PTR __k$[ebp+14], dl
  0010e	8a 50 0f	 mov	 dl, BYTE PTR [eax+15]
  00111	84 d2		 test	 dl, dl
  00113	74 5b		 je	 SHORT $LN81@LoadInt_e@3
  00115	80 f2 ea	 xor	 dl, -22			; ffffffeaH
  00118	80 78 10 00	 cmp	 BYTE PTR [eax+16], 0
  0011c	88 55 f3	 mov	 BYTE PTR __k$[ebp+15], dl
  0011f	0f 84 a6 00 00
	00		 je	 $LN1@LoadInt_e@3
  00125	8a 50 11	 mov	 dl, BYTE PTR [eax+17]
  00128	84 d2		 test	 dl, dl
  0012a	74 3f		 je	 SHORT $LN79@LoadInt_e@3
  0012c	32 d1		 xor	 dl, cl
  0012e	88 55 f5	 mov	 BYTE PTR __k$[ebp+17], dl
  00131	8a 50 12	 mov	 dl, BYTE PTR [eax+18]
  00134	84 d2		 test	 dl, dl
  00136	74 2d		 je	 SHORT $LN78@LoadInt_e@3
  00138	80 f2 eb	 xor	 dl, -21			; ffffffebH
  0013b	88 55 f6	 mov	 BYTE PTR __k$[ebp+18], dl
  0013e	8a 50 13	 mov	 dl, BYTE PTR [eax+19]
  00141	84 d2		 test	 dl, dl
  00143	74 1a		 je	 SHORT $LN77@LoadInt_e@3
  00145	8a 40 14	 mov	 al, BYTE PTR [eax+20]
  00148	80 f2 ea	 xor	 dl, -22			; ffffffeaH
  0014b	88 55 f7	 mov	 BYTE PTR __k$[ebp+19], dl
  0014e	84 c0		 test	 al, al
  00150	74 07		 je	 SHORT $LN76@LoadInt_e@3
  00152	34 ed		 xor	 al, -19			; ffffffedH
  00154	88 45 f8	 mov	 BYTE PTR __k$[ebp+20], al
  00157	eb 72		 jmp	 SHORT $LN1@LoadInt_e@3
$LN76@LoadInt_e@3:
  00159	c6 45 f8 ed	 mov	 BYTE PTR __k$[ebp+20], -19 ; ffffffedH
  0015d	eb 6c		 jmp	 SHORT $LN1@LoadInt_e@3
$LN77@LoadInt_e@3:
  0015f	c6 45 f7 ea	 mov	 BYTE PTR __k$[ebp+19], -22 ; ffffffeaH
  00163	eb 66		 jmp	 SHORT $LN1@LoadInt_e@3
$LN78@LoadInt_e@3:
  00165	c6 45 f6 eb	 mov	 BYTE PTR __k$[ebp+18], -21 ; ffffffebH
  00169	eb 60		 jmp	 SHORT $LN1@LoadInt_e@3
$LN79@LoadInt_e@3:
  0016b	88 4d f5	 mov	 BYTE PTR __k$[ebp+17], cl
  0016e	eb 5b		 jmp	 SHORT $LN1@LoadInt_e@3
$LN81@LoadInt_e@3:
  00170	c6 45 f3 ea	 mov	 BYTE PTR __k$[ebp+15], -22 ; ffffffeaH
  00174	eb 55		 jmp	 SHORT $LN1@LoadInt_e@3
$LN82@LoadInt_e@3:
  00176	c6 45 f2 eb	 mov	 BYTE PTR __k$[ebp+14], -21 ; ffffffebH
  0017a	eb 4f		 jmp	 SHORT $LN1@LoadInt_e@3
$LN83@LoadInt_e@3:
  0017c	88 4d f1	 mov	 BYTE PTR __k$[ebp+13], cl
  0017f	eb 4a		 jmp	 SHORT $LN1@LoadInt_e@3
$LN84@LoadInt_e@3:
  00181	c6 45 f0 ed	 mov	 BYTE PTR __k$[ebp+12], -19 ; ffffffedH
  00185	eb 44		 jmp	 SHORT $LN1@LoadInt_e@3
$LN85@LoadInt_e@3:
  00187	c6 45 ef ea	 mov	 BYTE PTR __k$[ebp+11], -22 ; ffffffeaH
  0018b	eb 3e		 jmp	 SHORT $LN1@LoadInt_e@3
$LN86@LoadInt_e@3:
  0018d	c6 45 ee eb	 mov	 BYTE PTR __k$[ebp+10], -21 ; ffffffebH
  00191	eb 38		 jmp	 SHORT $LN1@LoadInt_e@3
$LN87@LoadInt_e@3:
  00193	88 4d ed	 mov	 BYTE PTR __k$[ebp+9], cl
  00196	eb 33		 jmp	 SHORT $LN1@LoadInt_e@3
$LN88@LoadInt_e@3:
  00198	c6 45 ec ed	 mov	 BYTE PTR __k$[ebp+8], -19 ; ffffffedH
  0019c	eb 2d		 jmp	 SHORT $LN1@LoadInt_e@3
$LN89@LoadInt_e@3:
  0019e	c6 45 eb ea	 mov	 BYTE PTR __k$[ebp+7], -22 ; ffffffeaH
  001a2	eb 27		 jmp	 SHORT $LN1@LoadInt_e@3
$LN90@LoadInt_e@3:
  001a4	c6 45 ea eb	 mov	 BYTE PTR __k$[ebp+6], -21 ; ffffffebH
  001a8	eb 21		 jmp	 SHORT $LN1@LoadInt_e@3
$LN91@LoadInt_e@3:
  001aa	88 4d e9	 mov	 BYTE PTR __k$[ebp+5], cl
  001ad	eb 1c		 jmp	 SHORT $LN1@LoadInt_e@3
$LN92@LoadInt_e@3:
  001af	c6 45 e8 ed	 mov	 BYTE PTR __k$[ebp+4], -19 ; ffffffedH
  001b3	eb 16		 jmp	 SHORT $LN1@LoadInt_e@3
$LN93@LoadInt_e@3:
  001b5	c6 45 e7 ea	 mov	 BYTE PTR __k$[ebp+3], -22 ; ffffffeaH
  001b9	eb 10		 jmp	 SHORT $LN1@LoadInt_e@3
$LN94@LoadInt_e@3:
  001bb	c6 45 e6 eb	 mov	 BYTE PTR __k$[ebp+2], -21 ; ffffffebH
  001bf	eb 0a		 jmp	 SHORT $LN1@LoadInt_e@3
$LN95@LoadInt_e@3:
  001c1	c6 45 e5 ec	 mov	 BYTE PTR __k$[ebp+1], -20 ; ffffffecH
  001c5	eb 04		 jmp	 SHORT $LN1@LoadInt_e@3
$LN96@LoadInt_e@3:
  001c7	c6 45 e4 ed	 mov	 BYTE PTR __k$[ebp], -19	; ffffffedH
$LN1@LoadInt_e@3:
  001cb	6a 04		 push	 4
  001cd	8d 45 e4	 lea	 eax, DWORD PTR __k$[ebp]
  001d0	c6 45 f4 00	 mov	 BYTE PTR __k$[ebp+16], 0
  001d4	5a		 pop	 edx
$LL104@LoadInt_e@3:
  001d5	81 30 ed ec eb
	ea		 xor	 DWORD PTR [eax], -353637139 ; eaebecedH
  001db	83 c0 04	 add	 eax, 4
  001de	4a		 dec	 edx
  001df	75 f4		 jne	 SHORT $LL104@LoadInt_e@3

; 120  : 		return LoadInt(_k, i);

  001e1	ff 75 0c	 push	 DWORD PTR _i$[ebp]
  001e4	8d 45 e4	 lea	 eax, DWORD PTR __k$[ebp]
  001e7	50		 push	 eax
  001e8	8b ce		 mov	 ecx, esi
  001ea	ff 15 00 00 00
	00		 call	 DWORD PTR __imp_?LoadInt@ioINILoader@@QAEHPBDH@Z

; 121  : 	}

  001f0	8b 4d fc	 mov	 ecx, DWORD PTR __$ArrayPad$[ebp]
  001f3	33 cd		 xor	 ecx, ebp
  001f5	5e		 pop	 esi
  001f6	e8 00 00 00 00	 call	 @__security_check_cookie@4
  001fb	c9		 leave
  001fc	c2 08 00	 ret	 8
??$LoadInt_e@$0BB@@ioINILoader@@QAEHAAY0BB@$$CBDH@Z ENDP ; ioINILoader::LoadInt_e<17>
_TEXT	ENDS
PUBLIC	__$ArrayPad$
PUBLIC	??$LoadInt_e@$0BA@@ioINILoader@@QAEHAAY0BA@$$CBDH@Z ; ioINILoader::LoadInt_e<16>
; Function compile flags: /Ogsp
;	COMDAT ??$LoadInt_e@$0BA@@ioINILoader@@QAEHAAY0BA@$$CBDH@Z
_TEXT	SEGMENT
__k$ = -24						; size = 16
__$ArrayPad$ = -4					; size = 4
_k$ = 8							; size = 4
_i$ = 12						; size = 4
??$LoadInt_e@$0BA@@ioINILoader@@QAEHAAY0BA@$$CBDH@Z PROC ; ioINILoader::LoadInt_e<16>, COMDAT
; _this$ = ecx

; 118  : 	{

  00000	55		 push	 ebp
  00001	8b ec		 mov	 ebp, esp
  00003	83 ec 18	 sub	 esp, 24			; 00000018H
  00006	a1 00 00 00 00	 mov	 eax, DWORD PTR ___security_cookie
  0000b	33 c5		 xor	 eax, ebp
  0000d	89 45 fc	 mov	 DWORD PTR __$ArrayPad$[ebp], eax
  00010	8b 45 08	 mov	 eax, DWORD PTR _k$[ebp]

; 119  : 		_ENCSTR(k, _k);

  00013	8a 10		 mov	 dl, BYTE PTR [eax]
  00015	56		 push	 esi
  00016	8b f1		 mov	 esi, ecx
  00018	84 d2		 test	 dl, dl
  0001a	0f 84 8c 01 00
	00		 je	 $LN96@LoadInt_e@4
  00020	80 f2 ed	 xor	 dl, -19			; ffffffedH
  00023	88 55 e8	 mov	 BYTE PTR __k$[ebp], dl
  00026	8a 50 01	 mov	 dl, BYTE PTR [eax+1]
  00029	84 d2		 test	 dl, dl
  0002b	0f 84 75 01 00
	00		 je	 $LN95@LoadInt_e@4
  00031	80 f2 ec	 xor	 dl, -20			; ffffffecH
  00034	88 55 e9	 mov	 BYTE PTR __k$[ebp+1], dl
  00037	8a 50 02	 mov	 dl, BYTE PTR [eax+2]
  0003a	84 d2		 test	 dl, dl
  0003c	0f 84 5e 01 00
	00		 je	 $LN94@LoadInt_e@4
  00042	b1 eb		 mov	 cl, -21			; ffffffebH
  00044	32 d1		 xor	 dl, cl
  00046	88 55 ea	 mov	 BYTE PTR __k$[ebp+2], dl
  00049	8a 50 03	 mov	 dl, BYTE PTR [eax+3]
  0004c	84 d2		 test	 dl, dl
  0004e	0f 84 46 01 00
	00		 je	 $LN93@LoadInt_e@4
  00054	80 f2 ea	 xor	 dl, -22			; ffffffeaH
  00057	88 55 eb	 mov	 BYTE PTR __k$[ebp+3], dl
  0005a	8a 50 04	 mov	 dl, BYTE PTR [eax+4]
  0005d	84 d2		 test	 dl, dl
  0005f	0f 84 2f 01 00
	00		 je	 $LN92@LoadInt_e@4
  00065	80 f2 ed	 xor	 dl, -19			; ffffffedH
  00068	88 55 ec	 mov	 BYTE PTR __k$[ebp+4], dl
  0006b	8a 50 05	 mov	 dl, BYTE PTR [eax+5]
  0006e	84 d2		 test	 dl, dl
  00070	0f 84 18 01 00
	00		 je	 $LN91@LoadInt_e@4
  00076	80 f2 ec	 xor	 dl, -20			; ffffffecH
  00079	88 55 ed	 mov	 BYTE PTR __k$[ebp+5], dl
  0007c	8a 50 06	 mov	 dl, BYTE PTR [eax+6]
  0007f	84 d2		 test	 dl, dl
  00081	0f 84 02 01 00
	00		 je	 $LN90@LoadInt_e@4
  00087	32 d1		 xor	 dl, cl
  00089	88 55 ee	 mov	 BYTE PTR __k$[ebp+6], dl
  0008c	8a 50 07	 mov	 dl, BYTE PTR [eax+7]
  0008f	84 d2		 test	 dl, dl
  00091	0f 84 ec 00 00
	00		 je	 $LN89@LoadInt_e@4
  00097	80 f2 ea	 xor	 dl, -22			; ffffffeaH
  0009a	88 55 ef	 mov	 BYTE PTR __k$[ebp+7], dl
  0009d	8a 50 08	 mov	 dl, BYTE PTR [eax+8]
  000a0	84 d2		 test	 dl, dl
  000a2	0f 84 d5 00 00
	00		 je	 $LN88@LoadInt_e@4
  000a8	80 f2 ed	 xor	 dl, -19			; ffffffedH
  000ab	88 55 f0	 mov	 BYTE PTR __k$[ebp+8], dl
  000ae	8a 50 09	 mov	 dl, BYTE PTR [eax+9]
  000b1	84 d2		 test	 dl, dl
  000b3	0f 84 be 00 00
	00		 je	 $LN87@LoadInt_e@4
  000b9	80 f2 ec	 xor	 dl, -20			; ffffffecH
  000bc	88 55 f1	 mov	 BYTE PTR __k$[ebp+9], dl
  000bf	8a 50 0a	 mov	 dl, BYTE PTR [eax+10]
  000c2	84 d2		 test	 dl, dl
  000c4	0f 84 a8 00 00
	00		 je	 $LN86@LoadInt_e@4
  000ca	32 d1		 xor	 dl, cl
  000cc	88 55 f2	 mov	 BYTE PTR __k$[ebp+10], dl
  000cf	8a 50 0b	 mov	 dl, BYTE PTR [eax+11]
  000d2	84 d2		 test	 dl, dl
  000d4	0f 84 92 00 00
	00		 je	 $LN85@LoadInt_e@4
  000da	80 f2 ea	 xor	 dl, -22			; ffffffeaH
  000dd	88 55 f3	 mov	 BYTE PTR __k$[ebp+11], dl
  000e0	8a 50 0c	 mov	 dl, BYTE PTR [eax+12]
  000e3	84 d2		 test	 dl, dl
  000e5	74 7f		 je	 SHORT $LN84@LoadInt_e@4
  000e7	80 f2 ed	 xor	 dl, -19			; ffffffedH
  000ea	88 55 f4	 mov	 BYTE PTR __k$[ebp+12], dl
  000ed	8a 50 0d	 mov	 dl, BYTE PTR [eax+13]
  000f0	84 d2		 test	 dl, dl
  000f2	74 6c		 je	 SHORT $LN83@LoadInt_e@4
  000f4	80 f2 ec	 xor	 dl, -20			; ffffffecH
  000f7	88 55 f5	 mov	 BYTE PTR __k$[ebp+13], dl
  000fa	8a 50 0e	 mov	 dl, BYTE PTR [eax+14]
  000fd	84 d2		 test	 dl, dl
  000ff	74 5a		 je	 SHORT $LN82@LoadInt_e@4
  00101	32 d1		 xor	 dl, cl
  00103	80 78 0f 00	 cmp	 BYTE PTR [eax+15], 0
  00107	88 55 f6	 mov	 BYTE PTR __k$[ebp+14], dl
  0010a	0f 84 a0 00 00
	00		 je	 $LN1@LoadInt_e@4
  00110	8a 50 10	 mov	 dl, BYTE PTR [eax+16]
  00113	84 d2		 test	 dl, dl
  00115	74 3e		 je	 SHORT $LN80@LoadInt_e@4
  00117	80 f2 ed	 xor	 dl, -19			; ffffffedH
  0011a	88 55 f8	 mov	 BYTE PTR __k$[ebp+16], dl
  0011d	8a 50 11	 mov	 dl, BYTE PTR [eax+17]
  00120	84 d2		 test	 dl, dl
  00122	74 2b		 je	 SHORT $LN79@LoadInt_e@4
  00124	80 f2 ec	 xor	 dl, -20			; ffffffecH
  00127	88 55 f9	 mov	 BYTE PTR __k$[ebp+17], dl
  0012a	8a 50 12	 mov	 dl, BYTE PTR [eax+18]
  0012d	84 d2		 test	 dl, dl
  0012f	74 19		 je	 SHORT $LN78@LoadInt_e@4
  00131	8a 40 13	 mov	 al, BYTE PTR [eax+19]
  00134	32 d1		 xor	 dl, cl
  00136	88 55 fa	 mov	 BYTE PTR __k$[ebp+18], dl
  00139	84 c0		 test	 al, al
  0013b	74 07		 je	 SHORT $LN77@LoadInt_e@4
  0013d	34 ea		 xor	 al, -22			; ffffffeaH
  0013f	88 45 fb	 mov	 BYTE PTR __k$[ebp+19], al
  00142	eb 6c		 jmp	 SHORT $LN1@LoadInt_e@4
$LN77@LoadInt_e@4:
  00144	c6 45 fb ea	 mov	 BYTE PTR __k$[ebp+19], -22 ; ffffffeaH
  00148	eb 66		 jmp	 SHORT $LN1@LoadInt_e@4
$LN78@LoadInt_e@4:
  0014a	88 4d fa	 mov	 BYTE PTR __k$[ebp+18], cl
  0014d	eb 61		 jmp	 SHORT $LN1@LoadInt_e@4
$LN79@LoadInt_e@4:
  0014f	c6 45 f9 ec	 mov	 BYTE PTR __k$[ebp+17], -20 ; ffffffecH
  00153	eb 5b		 jmp	 SHORT $LN1@LoadInt_e@4
$LN80@LoadInt_e@4:
  00155	c6 45 f8 ed	 mov	 BYTE PTR __k$[ebp+16], -19 ; ffffffedH
  00159	eb 55		 jmp	 SHORT $LN1@LoadInt_e@4
$LN82@LoadInt_e@4:
  0015b	88 4d f6	 mov	 BYTE PTR __k$[ebp+14], cl
  0015e	eb 50		 jmp	 SHORT $LN1@LoadInt_e@4
$LN83@LoadInt_e@4:
  00160	c6 45 f5 ec	 mov	 BYTE PTR __k$[ebp+13], -20 ; ffffffecH
  00164	eb 4a		 jmp	 SHORT $LN1@LoadInt_e@4
$LN84@LoadInt_e@4:
  00166	c6 45 f4 ed	 mov	 BYTE PTR __k$[ebp+12], -19 ; ffffffedH
  0016a	eb 44		 jmp	 SHORT $LN1@LoadInt_e@4
$LN85@LoadInt_e@4:
  0016c	c6 45 f3 ea	 mov	 BYTE PTR __k$[ebp+11], -22 ; ffffffeaH
  00170	eb 3e		 jmp	 SHORT $LN1@LoadInt_e@4
$LN86@LoadInt_e@4:
  00172	88 4d f2	 mov	 BYTE PTR __k$[ebp+10], cl
  00175	eb 39		 jmp	 SHORT $LN1@LoadInt_e@4
$LN87@LoadInt_e@4:
  00177	c6 45 f1 ec	 mov	 BYTE PTR __k$[ebp+9], -20 ; ffffffecH
  0017b	eb 33		 jmp	 SHORT $LN1@LoadInt_e@4
$LN88@LoadInt_e@4:
  0017d	c6 45 f0 ed	 mov	 BYTE PTR __k$[ebp+8], -19 ; ffffffedH
  00181	eb 2d		 jmp	 SHORT $LN1@LoadInt_e@4
$LN89@LoadInt_e@4:
  00183	c6 45 ef ea	 mov	 BYTE PTR __k$[ebp+7], -22 ; ffffffeaH
  00187	eb 27		 jmp	 SHORT $LN1@LoadInt_e@4
$LN90@LoadInt_e@4:
  00189	88 4d ee	 mov	 BYTE PTR __k$[ebp+6], cl
  0018c	eb 22		 jmp	 SHORT $LN1@LoadInt_e@4
$LN91@LoadInt_e@4:
  0018e	c6 45 ed ec	 mov	 BYTE PTR __k$[ebp+5], -20 ; ffffffecH
  00192	eb 1c		 jmp	 SHORT $LN1@LoadInt_e@4
$LN92@LoadInt_e@4:
  00194	c6 45 ec ed	 mov	 BYTE PTR __k$[ebp+4], -19 ; ffffffedH
  00198	eb 16		 jmp	 SHORT $LN1@LoadInt_e@4
$LN93@LoadInt_e@4:
  0019a	c6 45 eb ea	 mov	 BYTE PTR __k$[ebp+3], -22 ; ffffffeaH
  0019e	eb 10		 jmp	 SHORT $LN1@LoadInt_e@4
$LN94@LoadInt_e@4:
  001a0	c6 45 ea eb	 mov	 BYTE PTR __k$[ebp+2], -21 ; ffffffebH
  001a4	eb 0a		 jmp	 SHORT $LN1@LoadInt_e@4
$LN95@LoadInt_e@4:
  001a6	c6 45 e9 ec	 mov	 BYTE PTR __k$[ebp+1], -20 ; ffffffecH
  001aa	eb 04		 jmp	 SHORT $LN1@LoadInt_e@4
$LN96@LoadInt_e@4:
  001ac	c6 45 e8 ed	 mov	 BYTE PTR __k$[ebp], -19	; ffffffedH
$LN1@LoadInt_e@4:
  001b0	6a 03		 push	 3
  001b2	8d 45 e8	 lea	 eax, DWORD PTR __k$[ebp]
  001b5	c6 45 f7 00	 mov	 BYTE PTR __k$[ebp+15], 0
  001b9	5a		 pop	 edx
$LL104@LoadInt_e@4:
  001ba	81 30 ed ec eb
	ea		 xor	 DWORD PTR [eax], -353637139 ; eaebecedH
  001c0	83 c0 04	 add	 eax, 4
  001c3	4a		 dec	 edx
  001c4	75 f4		 jne	 SHORT $LL104@LoadInt_e@4
  001c6	6a 0c		 push	 12			; 0000000cH
  001c8	58		 pop	 eax
$LL101@LoadInt_e@4:
  001c9	8b c8		 mov	 ecx, eax
  001cb	81 e1 03 00 00
	80		 and	 ecx, -2147483645	; 80000003H
  001d1	79 05		 jns	 SHORT $LN111@LoadInt_e@4
  001d3	49		 dec	 ecx
  001d4	83 c9 fc	 or	 ecx, -4			; fffffffcH
  001d7	41		 inc	 ecx
$LN111@LoadInt_e@4:
  001d8	b2 ed		 mov	 dl, -19			; ffffffedH
  001da	2a d1		 sub	 dl, cl
  001dc	30 54 05 e8	 xor	 BYTE PTR __k$[ebp+eax], dl
  001e0	40		 inc	 eax
  001e1	83 f8 0f	 cmp	 eax, 15			; 0000000fH
  001e4	7c e3		 jl	 SHORT $LL101@LoadInt_e@4

; 120  : 		return LoadInt(_k, i);

  001e6	ff 75 0c	 push	 DWORD PTR _i$[ebp]
  001e9	8d 45 e8	 lea	 eax, DWORD PTR __k$[ebp]
  001ec	50		 push	 eax
  001ed	8b ce		 mov	 ecx, esi
  001ef	ff 15 00 00 00
	00		 call	 DWORD PTR __imp_?LoadInt@ioINILoader@@QAEHPBDH@Z

; 121  : 	}

  001f5	8b 4d fc	 mov	 ecx, DWORD PTR __$ArrayPad$[ebp]
  001f8	33 cd		 xor	 ecx, ebp
  001fa	5e		 pop	 esi
  001fb	e8 00 00 00 00	 call	 @__security_check_cookie@4
  00200	c9		 leave
  00201	c2 08 00	 ret	 8
??$LoadInt_e@$0BA@@ioINILoader@@QAEHAAY0BA@$$CBDH@Z ENDP ; ioINILoader::LoadInt_e<16>
_TEXT	ENDS
PUBLIC	__$ArrayPad$
PUBLIC	??$LoadInt_e@$0BE@@ioINILoader@@QAEHAAY0BE@$$CBDH@Z ; ioINILoader::LoadInt_e<20>
; Function compile flags: /Ogsp
;	COMDAT ??$LoadInt_e@$0BE@@ioINILoader@@QAEHAAY0BE@$$CBDH@Z
_TEXT	SEGMENT
__k$ = -28						; size = 20
__$ArrayPad$ = -4					; size = 4
_k$ = 8							; size = 4
_i$ = 12						; size = 4
??$LoadInt_e@$0BE@@ioINILoader@@QAEHAAY0BE@$$CBDH@Z PROC ; ioINILoader::LoadInt_e<20>, COMDAT
; _this$ = ecx

; 118  : 	{

  00000	55		 push	 ebp
  00001	8b ec		 mov	 ebp, esp
  00003	83 ec 1c	 sub	 esp, 28			; 0000001cH
  00006	a1 00 00 00 00	 mov	 eax, DWORD PTR ___security_cookie
  0000b	33 c5		 xor	 eax, ebp
  0000d	89 45 fc	 mov	 DWORD PTR __$ArrayPad$[ebp], eax
  00010	8b 45 08	 mov	 eax, DWORD PTR _k$[ebp]

; 119  : 		_ENCSTR(k, _k);

  00013	8a 10		 mov	 dl, BYTE PTR [eax]
  00015	53		 push	 ebx
  00016	56		 push	 esi
  00017	8b f1		 mov	 esi, ecx
  00019	84 d2		 test	 dl, dl
  0001b	0f 84 dd 01 00
	00		 je	 $LN96@LoadInt_e@5
  00021	80 f2 ed	 xor	 dl, -19			; ffffffedH
  00024	88 55 e4	 mov	 BYTE PTR __k$[ebp], dl
  00027	8a 50 01	 mov	 dl, BYTE PTR [eax+1]
  0002a	84 d2		 test	 dl, dl
  0002c	0f 84 c6 01 00
	00		 je	 $LN95@LoadInt_e@5
  00032	b3 ec		 mov	 bl, -20			; ffffffecH
  00034	32 d3		 xor	 dl, bl
  00036	88 55 e5	 mov	 BYTE PTR __k$[ebp+1], dl
  00039	8a 50 02	 mov	 dl, BYTE PTR [eax+2]
  0003c	84 d2		 test	 dl, dl
  0003e	0f 84 ae 01 00
	00		 je	 $LN94@LoadInt_e@5
  00044	b1 eb		 mov	 cl, -21			; ffffffebH
  00046	32 d1		 xor	 dl, cl
  00048	88 55 e6	 mov	 BYTE PTR __k$[ebp+2], dl
  0004b	8a 50 03	 mov	 dl, BYTE PTR [eax+3]
  0004e	84 d2		 test	 dl, dl
  00050	0f 84 96 01 00
	00		 je	 $LN93@LoadInt_e@5
  00056	80 f2 ea	 xor	 dl, -22			; ffffffeaH
  00059	88 55 e7	 mov	 BYTE PTR __k$[ebp+3], dl
  0005c	8a 50 04	 mov	 dl, BYTE PTR [eax+4]
  0005f	84 d2		 test	 dl, dl
  00061	0f 84 7f 01 00
	00		 je	 $LN92@LoadInt_e@5
  00067	80 f2 ed	 xor	 dl, -19			; ffffffedH
  0006a	88 55 e8	 mov	 BYTE PTR __k$[ebp+4], dl
  0006d	8a 50 05	 mov	 dl, BYTE PTR [eax+5]
  00070	84 d2		 test	 dl, dl
  00072	0f 84 69 01 00
	00		 je	 $LN91@LoadInt_e@5
  00078	32 d3		 xor	 dl, bl
  0007a	88 55 e9	 mov	 BYTE PTR __k$[ebp+5], dl
  0007d	8a 50 06	 mov	 dl, BYTE PTR [eax+6]
  00080	84 d2		 test	 dl, dl
  00082	0f 84 54 01 00
	00		 je	 $LN90@LoadInt_e@5
  00088	32 d1		 xor	 dl, cl
  0008a	88 55 ea	 mov	 BYTE PTR __k$[ebp+6], dl
  0008d	8a 50 07	 mov	 dl, BYTE PTR [eax+7]
  00090	84 d2		 test	 dl, dl
  00092	0f 84 3e 01 00
	00		 je	 $LN89@LoadInt_e@5
  00098	80 f2 ea	 xor	 dl, -22			; ffffffeaH
  0009b	88 55 eb	 mov	 BYTE PTR __k$[ebp+7], dl
  0009e	8a 50 08	 mov	 dl, BYTE PTR [eax+8]
  000a1	84 d2		 test	 dl, dl
  000a3	0f 84 27 01 00
	00		 je	 $LN88@LoadInt_e@5
  000a9	80 f2 ed	 xor	 dl, -19			; ffffffedH
  000ac	88 55 ec	 mov	 BYTE PTR __k$[ebp+8], dl
  000af	8a 50 09	 mov	 dl, BYTE PTR [eax+9]
  000b2	84 d2		 test	 dl, dl
  000b4	0f 84 11 01 00
	00		 je	 $LN87@LoadInt_e@5
  000ba	32 d3		 xor	 dl, bl
  000bc	88 55 ed	 mov	 BYTE PTR __k$[ebp+9], dl
  000bf	8a 50 0a	 mov	 dl, BYTE PTR [eax+10]
  000c2	84 d2		 test	 dl, dl
  000c4	0f 84 fc 00 00
	00		 je	 $LN86@LoadInt_e@5
  000ca	32 d1		 xor	 dl, cl
  000cc	88 55 ee	 mov	 BYTE PTR __k$[ebp+10], dl
  000cf	8a 50 0b	 mov	 dl, BYTE PTR [eax+11]
  000d2	84 d2		 test	 dl, dl
  000d4	0f 84 e6 00 00
	00		 je	 $LN85@LoadInt_e@5
  000da	80 f2 ea	 xor	 dl, -22			; ffffffeaH
  000dd	88 55 ef	 mov	 BYTE PTR __k$[ebp+11], dl
  000e0	8a 50 0c	 mov	 dl, BYTE PTR [eax+12]
  000e3	84 d2		 test	 dl, dl
  000e5	0f 84 cf 00 00
	00		 je	 $LN84@LoadInt_e@5
  000eb	80 f2 ed	 xor	 dl, -19			; ffffffedH
  000ee	88 55 f0	 mov	 BYTE PTR __k$[ebp+12], dl
  000f1	8a 50 0d	 mov	 dl, BYTE PTR [eax+13]
  000f4	84 d2		 test	 dl, dl
  000f6	0f 84 b9 00 00
	00		 je	 $LN83@LoadInt_e@5
  000fc	32 d3		 xor	 dl, bl
  000fe	88 55 f1	 mov	 BYTE PTR __k$[ebp+13], dl
  00101	8a 50 0e	 mov	 dl, BYTE PTR [eax+14]
  00104	84 d2		 test	 dl, dl
  00106	0f 84 a4 00 00
	00		 je	 $LN82@LoadInt_e@5
  0010c	32 d1		 xor	 dl, cl
  0010e	88 55 f2	 mov	 BYTE PTR __k$[ebp+14], dl
  00111	8a 50 0f	 mov	 dl, BYTE PTR [eax+15]
  00114	84 d2		 test	 dl, dl
  00116	0f 84 8e 00 00
	00		 je	 $LN81@LoadInt_e@5
  0011c	80 f2 ea	 xor	 dl, -22			; ffffffeaH
  0011f	88 55 f3	 mov	 BYTE PTR __k$[ebp+15], dl
  00122	8a 50 10	 mov	 dl, BYTE PTR [eax+16]
  00125	84 d2		 test	 dl, dl
  00127	74 7b		 je	 SHORT $LN80@LoadInt_e@5
  00129	80 f2 ed	 xor	 dl, -19			; ffffffedH
  0012c	88 55 f4	 mov	 BYTE PTR __k$[ebp+16], dl
  0012f	8a 50 11	 mov	 dl, BYTE PTR [eax+17]
  00132	84 d2		 test	 dl, dl
  00134	74 69		 je	 SHORT $LN79@LoadInt_e@5
  00136	32 d3		 xor	 dl, bl
  00138	88 55 f5	 mov	 BYTE PTR __k$[ebp+17], dl
  0013b	8a 50 12	 mov	 dl, BYTE PTR [eax+18]
  0013e	84 d2		 test	 dl, dl
  00140	74 58		 je	 SHORT $LN78@LoadInt_e@5
  00142	32 d1		 xor	 dl, cl
  00144	80 78 13 00	 cmp	 BYTE PTR [eax+19], 0
  00148	88 55 f6	 mov	 BYTE PTR __k$[ebp+18], dl
  0014b	0f 84 b1 00 00
	00		 je	 $LN1@LoadInt_e@5
  00151	8a 50 14	 mov	 dl, BYTE PTR [eax+20]
  00154	84 d2		 test	 dl, dl
  00156	74 3c		 je	 SHORT $LN76@LoadInt_e@5
  00158	80 f2 ed	 xor	 dl, -19			; ffffffedH
  0015b	88 55 f8	 mov	 BYTE PTR __k$[ebp+20], dl
  0015e	8a 50 15	 mov	 dl, BYTE PTR [eax+21]
  00161	84 d2		 test	 dl, dl
  00163	74 2a		 je	 SHORT $LN75@LoadInt_e@5
  00165	32 d3		 xor	 dl, bl
  00167	88 55 f9	 mov	 BYTE PTR __k$[ebp+21], dl
  0016a	8a 50 16	 mov	 dl, BYTE PTR [eax+22]
  0016d	84 d2		 test	 dl, dl
  0016f	74 19		 je	 SHORT $LN74@LoadInt_e@5
  00171	8a 40 17	 mov	 al, BYTE PTR [eax+23]
  00174	32 d1		 xor	 dl, cl
  00176	88 55 fa	 mov	 BYTE PTR __k$[ebp+22], dl
  00179	84 c0		 test	 al, al
  0017b	74 07		 je	 SHORT $LN73@LoadInt_e@5
  0017d	34 ea		 xor	 al, -22			; ffffffeaH
  0017f	88 45 fb	 mov	 BYTE PTR __k$[ebp+23], al
  00182	eb 7e		 jmp	 SHORT $LN1@LoadInt_e@5
$LN73@LoadInt_e@5:
  00184	c6 45 fb ea	 mov	 BYTE PTR __k$[ebp+23], -22 ; ffffffeaH
  00188	eb 78		 jmp	 SHORT $LN1@LoadInt_e@5
$LN74@LoadInt_e@5:
  0018a	88 4d fa	 mov	 BYTE PTR __k$[ebp+22], cl
  0018d	eb 73		 jmp	 SHORT $LN1@LoadInt_e@5
$LN75@LoadInt_e@5:
  0018f	88 5d f9	 mov	 BYTE PTR __k$[ebp+21], bl
  00192	eb 6e		 jmp	 SHORT $LN1@LoadInt_e@5
$LN76@LoadInt_e@5:
  00194	c6 45 f8 ed	 mov	 BYTE PTR __k$[ebp+20], -19 ; ffffffedH
  00198	eb 68		 jmp	 SHORT $LN1@LoadInt_e@5
$LN78@LoadInt_e@5:
  0019a	88 4d f6	 mov	 BYTE PTR __k$[ebp+18], cl
  0019d	eb 63		 jmp	 SHORT $LN1@LoadInt_e@5
$LN79@LoadInt_e@5:
  0019f	88 5d f5	 mov	 BYTE PTR __k$[ebp+17], bl
  001a2	eb 5e		 jmp	 SHORT $LN1@LoadInt_e@5
$LN80@LoadInt_e@5:
  001a4	c6 45 f4 ed	 mov	 BYTE PTR __k$[ebp+16], -19 ; ffffffedH
  001a8	eb 58		 jmp	 SHORT $LN1@LoadInt_e@5
$LN81@LoadInt_e@5:
  001aa	c6 45 f3 ea	 mov	 BYTE PTR __k$[ebp+15], -22 ; ffffffeaH
  001ae	eb 52		 jmp	 SHORT $LN1@LoadInt_e@5
$LN82@LoadInt_e@5:
  001b0	88 4d f2	 mov	 BYTE PTR __k$[ebp+14], cl
  001b3	eb 4d		 jmp	 SHORT $LN1@LoadInt_e@5
$LN83@LoadInt_e@5:
  001b5	88 5d f1	 mov	 BYTE PTR __k$[ebp+13], bl
  001b8	eb 48		 jmp	 SHORT $LN1@LoadInt_e@5
$LN84@LoadInt_e@5:
  001ba	c6 45 f0 ed	 mov	 BYTE PTR __k$[ebp+12], -19 ; ffffffedH
  001be	eb 42		 jmp	 SHORT $LN1@LoadInt_e@5
$LN85@LoadInt_e@5:
  001c0	c6 45 ef ea	 mov	 BYTE PTR __k$[ebp+11], -22 ; ffffffeaH
  001c4	eb 3c		 jmp	 SHORT $LN1@LoadInt_e@5
$LN86@LoadInt_e@5:
  001c6	88 4d ee	 mov	 BYTE PTR __k$[ebp+10], cl
  001c9	eb 37		 jmp	 SHORT $LN1@LoadInt_e@5
$LN87@LoadInt_e@5:
  001cb	88 5d ed	 mov	 BYTE PTR __k$[ebp+9], bl
  001ce	eb 32		 jmp	 SHORT $LN1@LoadInt_e@5
$LN88@LoadInt_e@5:
  001d0	c6 45 ec ed	 mov	 BYTE PTR __k$[ebp+8], -19 ; ffffffedH
  001d4	eb 2c		 jmp	 SHORT $LN1@LoadInt_e@5
$LN89@LoadInt_e@5:
  001d6	c6 45 eb ea	 mov	 BYTE PTR __k$[ebp+7], -22 ; ffffffeaH
  001da	eb 26		 jmp	 SHORT $LN1@LoadInt_e@5
$LN90@LoadInt_e@5:
  001dc	88 4d ea	 mov	 BYTE PTR __k$[ebp+6], cl
  001df	eb 21		 jmp	 SHORT $LN1@LoadInt_e@5
$LN91@LoadInt_e@5:
  001e1	88 5d e9	 mov	 BYTE PTR __k$[ebp+5], bl
  001e4	eb 1c		 jmp	 SHORT $LN1@LoadInt_e@5
$LN92@LoadInt_e@5:
  001e6	c6 45 e8 ed	 mov	 BYTE PTR __k$[ebp+4], -19 ; ffffffedH
  001ea	eb 16		 jmp	 SHORT $LN1@LoadInt_e@5
$LN93@LoadInt_e@5:
  001ec	c6 45 e7 ea	 mov	 BYTE PTR __k$[ebp+3], -22 ; ffffffeaH
  001f0	eb 10		 jmp	 SHORT $LN1@LoadInt_e@5
$LN94@LoadInt_e@5:
  001f2	c6 45 e6 eb	 mov	 BYTE PTR __k$[ebp+2], -21 ; ffffffebH
  001f6	eb 0a		 jmp	 SHORT $LN1@LoadInt_e@5
$LN95@LoadInt_e@5:
  001f8	c6 45 e5 ec	 mov	 BYTE PTR __k$[ebp+1], -20 ; ffffffecH
  001fc	eb 04		 jmp	 SHORT $LN1@LoadInt_e@5
$LN96@LoadInt_e@5:
  001fe	c6 45 e4 ed	 mov	 BYTE PTR __k$[ebp], -19	; ffffffedH
$LN1@LoadInt_e@5:
  00202	6a 04		 push	 4
  00204	8d 45 e4	 lea	 eax, DWORD PTR __k$[ebp]
  00207	c6 45 f7 00	 mov	 BYTE PTR __k$[ebp+19], 0
  0020b	5a		 pop	 edx
$LL104@LoadInt_e@5:
  0020c	81 30 ed ec eb
	ea		 xor	 DWORD PTR [eax], -353637139 ; eaebecedH
  00212	83 c0 04	 add	 eax, 4
  00215	4a		 dec	 edx
  00216	75 f4		 jne	 SHORT $LL104@LoadInt_e@5
  00218	6a 10		 push	 16			; 00000010H
  0021a	58		 pop	 eax
$LL101@LoadInt_e@5:
  0021b	8b c8		 mov	 ecx, eax
  0021d	81 e1 03 00 00
	80		 and	 ecx, -2147483645	; 80000003H
  00223	79 05		 jns	 SHORT $LN111@LoadInt_e@5
  00225	49		 dec	 ecx
  00226	83 c9 fc	 or	 ecx, -4			; fffffffcH
  00229	41		 inc	 ecx
$LN111@LoadInt_e@5:
  0022a	b2 ed		 mov	 dl, -19			; ffffffedH
  0022c	2a d1		 sub	 dl, cl
  0022e	30 54 05 e4	 xor	 BYTE PTR __k$[ebp+eax], dl
  00232	40		 inc	 eax
  00233	83 f8 13	 cmp	 eax, 19			; 00000013H
  00236	7c e3		 jl	 SHORT $LL101@LoadInt_e@5

; 120  : 		return LoadInt(_k, i);

  00238	ff 75 0c	 push	 DWORD PTR _i$[ebp]
  0023b	8d 45 e4	 lea	 eax, DWORD PTR __k$[ebp]
  0023e	50		 push	 eax
  0023f	8b ce		 mov	 ecx, esi
  00241	ff 15 00 00 00
	00		 call	 DWORD PTR __imp_?LoadInt@ioINILoader@@QAEHPBDH@Z

; 121  : 	}

  00247	8b 4d fc	 mov	 ecx, DWORD PTR __$ArrayPad$[ebp]
  0024a	5e		 pop	 esi
  0024b	33 cd		 xor	 ecx, ebp
  0024d	5b		 pop	 ebx
  0024e	e8 00 00 00 00	 call	 @__security_check_cookie@4
  00253	c9		 leave
  00254	c2 08 00	 ret	 8
??$LoadInt_e@$0BE@@ioINILoader@@QAEHAAY0BE@$$CBDH@Z ENDP ; ioINILoader::LoadInt_e<20>
_TEXT	ENDS
PUBLIC	__$ArrayPad$
PUBLIC	??$LoadInt_e@$0BL@@ioINILoader@@QAEHAAY0BL@$$CBDH@Z ; ioINILoader::LoadInt_e<27>
; Function compile flags: /Ogsp
;	COMDAT ??$LoadInt_e@$0BL@@ioINILoader@@QAEHAAY0BL@$$CBDH@Z
_TEXT	SEGMENT
__k$ = -36						; size = 27
__$ArrayPad$ = -4					; size = 4
_k$ = 8							; size = 4
_i$ = 12						; size = 4
??$LoadInt_e@$0BL@@ioINILoader@@QAEHAAY0BL@$$CBDH@Z PROC ; ioINILoader::LoadInt_e<27>, COMDAT
; _this$ = ecx

; 118  : 	{

  00000	55		 push	 ebp
  00001	8b ec		 mov	 ebp, esp
  00003	83 ec 24	 sub	 esp, 36			; 00000024H
  00006	a1 00 00 00 00	 mov	 eax, DWORD PTR ___security_cookie
  0000b	33 c5		 xor	 eax, ebp
  0000d	89 45 fc	 mov	 DWORD PTR __$ArrayPad$[ebp], eax
  00010	8b 45 08	 mov	 eax, DWORD PTR _k$[ebp]

; 119  : 		_ENCSTR(k, _k);

  00013	8a 10		 mov	 dl, BYTE PTR [eax]
  00015	53		 push	 ebx
  00016	56		 push	 esi
  00017	8b f1		 mov	 esi, ecx
  00019	84 d2		 test	 dl, dl
  0001b	0f 84 91 02 00
	00		 je	 $LN96@LoadInt_e@6
  00021	80 f2 ed	 xor	 dl, -19			; ffffffedH
  00024	88 55 dc	 mov	 BYTE PTR __k$[ebp], dl
  00027	8a 50 01	 mov	 dl, BYTE PTR [eax+1]
  0002a	84 d2		 test	 dl, dl
  0002c	0f 84 7a 02 00
	00		 je	 $LN95@LoadInt_e@6
  00032	b1 ec		 mov	 cl, -20			; ffffffecH
  00034	32 d1		 xor	 dl, cl
  00036	88 55 dd	 mov	 BYTE PTR __k$[ebp+1], dl
  00039	8a 50 02	 mov	 dl, BYTE PTR [eax+2]
  0003c	84 d2		 test	 dl, dl
  0003e	0f 84 62 02 00
	00		 je	 $LN94@LoadInt_e@6
  00044	80 f2 eb	 xor	 dl, -21			; ffffffebH
  00047	88 55 de	 mov	 BYTE PTR __k$[ebp+2], dl
  0004a	8a 50 03	 mov	 dl, BYTE PTR [eax+3]
  0004d	84 d2		 test	 dl, dl
  0004f	0f 84 4b 02 00
	00		 je	 $LN93@LoadInt_e@6
  00055	b3 ea		 mov	 bl, -22			; ffffffeaH
  00057	32 d3		 xor	 dl, bl
  00059	88 55 df	 mov	 BYTE PTR __k$[ebp+3], dl
  0005c	8a 50 04	 mov	 dl, BYTE PTR [eax+4]
  0005f	84 d2		 test	 dl, dl
  00061	0f 84 33 02 00
	00		 je	 $LN92@LoadInt_e@6
  00067	80 f2 ed	 xor	 dl, -19			; ffffffedH
  0006a	88 55 e0	 mov	 BYTE PTR __k$[ebp+4], dl
  0006d	8a 50 05	 mov	 dl, BYTE PTR [eax+5]
  00070	84 d2		 test	 dl, dl
  00072	0f 84 1d 02 00
	00		 je	 $LN91@LoadInt_e@6
  00078	32 d1		 xor	 dl, cl
  0007a	88 55 e1	 mov	 BYTE PTR __k$[ebp+5], dl
  0007d	8a 50 06	 mov	 dl, BYTE PTR [eax+6]
  00080	84 d2		 test	 dl, dl
  00082	0f 84 07 02 00
	00		 je	 $LN90@LoadInt_e@6
  00088	80 f2 eb	 xor	 dl, -21			; ffffffebH
  0008b	88 55 e2	 mov	 BYTE PTR __k$[ebp+6], dl
  0008e	8a 50 07	 mov	 dl, BYTE PTR [eax+7]
  00091	84 d2		 test	 dl, dl
  00093	0f 84 f1 01 00
	00		 je	 $LN89@LoadInt_e@6
  00099	32 d3		 xor	 dl, bl
  0009b	88 55 e3	 mov	 BYTE PTR __k$[ebp+7], dl
  0009e	8a 50 08	 mov	 dl, BYTE PTR [eax+8]
  000a1	84 d2		 test	 dl, dl
  000a3	0f 84 db 01 00
	00		 je	 $LN88@LoadInt_e@6
  000a9	80 f2 ed	 xor	 dl, -19			; ffffffedH
  000ac	88 55 e4	 mov	 BYTE PTR __k$[ebp+8], dl
  000af	8a 50 09	 mov	 dl, BYTE PTR [eax+9]
  000b2	84 d2		 test	 dl, dl
  000b4	0f 84 c5 01 00
	00		 je	 $LN87@LoadInt_e@6
  000ba	32 d1		 xor	 dl, cl
  000bc	88 55 e5	 mov	 BYTE PTR __k$[ebp+9], dl
  000bf	8a 50 0a	 mov	 dl, BYTE PTR [eax+10]
  000c2	84 d2		 test	 dl, dl
  000c4	0f 84 af 01 00
	00		 je	 $LN86@LoadInt_e@6
  000ca	80 f2 eb	 xor	 dl, -21			; ffffffebH
  000cd	88 55 e6	 mov	 BYTE PTR __k$[ebp+10], dl
  000d0	8a 50 0b	 mov	 dl, BYTE PTR [eax+11]
  000d3	84 d2		 test	 dl, dl
  000d5	0f 84 99 01 00
	00		 je	 $LN85@LoadInt_e@6
  000db	32 d3		 xor	 dl, bl
  000dd	88 55 e7	 mov	 BYTE PTR __k$[ebp+11], dl
  000e0	8a 50 0c	 mov	 dl, BYTE PTR [eax+12]
  000e3	84 d2		 test	 dl, dl
  000e5	0f 84 83 01 00
	00		 je	 $LN84@LoadInt_e@6
  000eb	80 f2 ed	 xor	 dl, -19			; ffffffedH
  000ee	88 55 e8	 mov	 BYTE PTR __k$[ebp+12], dl
  000f1	8a 50 0d	 mov	 dl, BYTE PTR [eax+13]
  000f4	84 d2		 test	 dl, dl
  000f6	0f 84 6d 01 00
	00		 je	 $LN83@LoadInt_e@6
  000fc	32 d1		 xor	 dl, cl
  000fe	88 55 e9	 mov	 BYTE PTR __k$[ebp+13], dl
  00101	8a 50 0e	 mov	 dl, BYTE PTR [eax+14]
  00104	84 d2		 test	 dl, dl
  00106	0f 84 57 01 00
	00		 je	 $LN82@LoadInt_e@6
  0010c	80 f2 eb	 xor	 dl, -21			; ffffffebH
  0010f	88 55 ea	 mov	 BYTE PTR __k$[ebp+14], dl
  00112	8a 50 0f	 mov	 dl, BYTE PTR [eax+15]
  00115	84 d2		 test	 dl, dl
  00117	0f 84 41 01 00
	00		 je	 $LN81@LoadInt_e@6
  0011d	32 d3		 xor	 dl, bl
  0011f	88 55 eb	 mov	 BYTE PTR __k$[ebp+15], dl
  00122	8a 50 10	 mov	 dl, BYTE PTR [eax+16]
  00125	84 d2		 test	 dl, dl
  00127	0f 84 2b 01 00
	00		 je	 $LN80@LoadInt_e@6
  0012d	80 f2 ed	 xor	 dl, -19			; ffffffedH
  00130	88 55 ec	 mov	 BYTE PTR __k$[ebp+16], dl
  00133	8a 50 11	 mov	 dl, BYTE PTR [eax+17]
  00136	84 d2		 test	 dl, dl
  00138	0f 84 15 01 00
	00		 je	 $LN79@LoadInt_e@6
  0013e	32 d1		 xor	 dl, cl
  00140	88 55 ed	 mov	 BYTE PTR __k$[ebp+17], dl
  00143	8a 50 12	 mov	 dl, BYTE PTR [eax+18]
  00146	84 d2		 test	 dl, dl
  00148	0f 84 ff 00 00
	00		 je	 $LN78@LoadInt_e@6
  0014e	80 f2 eb	 xor	 dl, -21			; ffffffebH
  00151	88 55 ee	 mov	 BYTE PTR __k$[ebp+18], dl
  00154	8a 50 13	 mov	 dl, BYTE PTR [eax+19]
  00157	84 d2		 test	 dl, dl
  00159	0f 84 e9 00 00
	00		 je	 $LN77@LoadInt_e@6
  0015f	32 d3		 xor	 dl, bl
  00161	88 55 ef	 mov	 BYTE PTR __k$[ebp+19], dl
  00164	8a 50 14	 mov	 dl, BYTE PTR [eax+20]
  00167	84 d2		 test	 dl, dl
  00169	0f 84 d3 00 00
	00		 je	 $LN76@LoadInt_e@6
  0016f	80 f2 ed	 xor	 dl, -19			; ffffffedH
  00172	88 55 f0	 mov	 BYTE PTR __k$[ebp+20], dl
  00175	8a 50 15	 mov	 dl, BYTE PTR [eax+21]
  00178	84 d2		 test	 dl, dl
  0017a	0f 84 bd 00 00
	00		 je	 $LN75@LoadInt_e@6
  00180	32 d1		 xor	 dl, cl
  00182	88 55 f1	 mov	 BYTE PTR __k$[ebp+21], dl
  00185	8a 50 16	 mov	 dl, BYTE PTR [eax+22]
  00188	84 d2		 test	 dl, dl
  0018a	0f 84 a7 00 00
	00		 je	 $LN74@LoadInt_e@6
  00190	80 f2 eb	 xor	 dl, -21			; ffffffebH
  00193	88 55 f2	 mov	 BYTE PTR __k$[ebp+22], dl
  00196	8a 50 17	 mov	 dl, BYTE PTR [eax+23]
  00199	84 d2		 test	 dl, dl
  0019b	0f 84 91 00 00
	00		 je	 $LN73@LoadInt_e@6
  001a1	32 d3		 xor	 dl, bl
  001a3	88 55 f3	 mov	 BYTE PTR __k$[ebp+23], dl
  001a6	8a 50 18	 mov	 dl, BYTE PTR [eax+24]
  001a9	84 d2		 test	 dl, dl
  001ab	74 7c		 je	 SHORT $LN72@LoadInt_e@6
  001ad	80 f2 ed	 xor	 dl, -19			; ffffffedH
  001b0	88 55 f4	 mov	 BYTE PTR __k$[ebp+24], dl
  001b3	8a 50 19	 mov	 dl, BYTE PTR [eax+25]
  001b6	84 d2		 test	 dl, dl
  001b8	74 67		 je	 SHORT $LN71@LoadInt_e@6
  001ba	32 d1		 xor	 dl, cl
  001bc	80 78 1a 00	 cmp	 BYTE PTR [eax+26], 0
  001c0	88 55 f5	 mov	 BYTE PTR __k$[ebp+25], dl
  001c3	0f 84 ed 00 00
	00		 je	 $LN1@LoadInt_e@6
  001c9	8a 50 1b	 mov	 dl, BYTE PTR [eax+27]
  001cc	84 d2		 test	 dl, dl
  001ce	74 49		 je	 SHORT $LN69@LoadInt_e@6
  001d0	32 d3		 xor	 dl, bl
  001d2	88 55 f7	 mov	 BYTE PTR __k$[ebp+27], dl
  001d5	8a 50 1c	 mov	 dl, BYTE PTR [eax+28]
  001d8	84 d2		 test	 dl, dl
  001da	74 34		 je	 SHORT $LN68@LoadInt_e@6
  001dc	80 f2 ed	 xor	 dl, -19			; ffffffedH
  001df	88 55 f8	 mov	 BYTE PTR __k$[ebp+28], dl
  001e2	8a 50 1d	 mov	 dl, BYTE PTR [eax+29]
  001e5	84 d2		 test	 dl, dl
  001e7	74 1f		 je	 SHORT $LN67@LoadInt_e@6
  001e9	8a 40 1e	 mov	 al, BYTE PTR [eax+30]
  001ec	32 d1		 xor	 dl, cl
  001ee	88 55 f9	 mov	 BYTE PTR __k$[ebp+29], dl
  001f1	84 c0		 test	 al, al
  001f3	74 0a		 je	 SHORT $LN66@LoadInt_e@6
  001f5	34 eb		 xor	 al, -21			; ffffffebH
  001f7	88 45 fa	 mov	 BYTE PTR __k$[ebp+30], al
  001fa	e9 b7 00 00 00	 jmp	 $LN1@LoadInt_e@6
$LN66@LoadInt_e@6:
  001ff	c6 45 fa eb	 mov	 BYTE PTR __k$[ebp+30], -21 ; ffffffebH
  00203	e9 ae 00 00 00	 jmp	 $LN1@LoadInt_e@6
$LN67@LoadInt_e@6:
  00208	88 4d f9	 mov	 BYTE PTR __k$[ebp+29], cl
  0020b	e9 a6 00 00 00	 jmp	 $LN1@LoadInt_e@6
$LN68@LoadInt_e@6:
  00210	c6 45 f8 ed	 mov	 BYTE PTR __k$[ebp+28], -19 ; ffffffedH
  00214	e9 9d 00 00 00	 jmp	 $LN1@LoadInt_e@6
$LN69@LoadInt_e@6:
  00219	88 5d f7	 mov	 BYTE PTR __k$[ebp+27], bl
  0021c	e9 95 00 00 00	 jmp	 $LN1@LoadInt_e@6
$LN71@LoadInt_e@6:
  00221	88 4d f5	 mov	 BYTE PTR __k$[ebp+25], cl
  00224	e9 8d 00 00 00	 jmp	 $LN1@LoadInt_e@6
$LN72@LoadInt_e@6:
  00229	c6 45 f4 ed	 mov	 BYTE PTR __k$[ebp+24], -19 ; ffffffedH
  0022d	e9 84 00 00 00	 jmp	 $LN1@LoadInt_e@6
$LN73@LoadInt_e@6:
  00232	88 5d f3	 mov	 BYTE PTR __k$[ebp+23], bl
  00235	eb 7f		 jmp	 SHORT $LN1@LoadInt_e@6
$LN74@LoadInt_e@6:
  00237	c6 45 f2 eb	 mov	 BYTE PTR __k$[ebp+22], -21 ; ffffffebH
  0023b	eb 79		 jmp	 SHORT $LN1@LoadInt_e@6
$LN75@LoadInt_e@6:
  0023d	88 4d f1	 mov	 BYTE PTR __k$[ebp+21], cl
  00240	eb 74		 jmp	 SHORT $LN1@LoadInt_e@6
$LN76@LoadInt_e@6:
  00242	c6 45 f0 ed	 mov	 BYTE PTR __k$[ebp+20], -19 ; ffffffedH
  00246	eb 6e		 jmp	 SHORT $LN1@LoadInt_e@6
$LN77@LoadInt_e@6:
  00248	88 5d ef	 mov	 BYTE PTR __k$[ebp+19], bl
  0024b	eb 69		 jmp	 SHORT $LN1@LoadInt_e@6
$LN78@LoadInt_e@6:
  0024d	c6 45 ee eb	 mov	 BYTE PTR __k$[ebp+18], -21 ; ffffffebH
  00251	eb 63		 jmp	 SHORT $LN1@LoadInt_e@6
$LN79@LoadInt_e@6:
  00253	88 4d ed	 mov	 BYTE PTR __k$[ebp+17], cl
  00256	eb 5e		 jmp	 SHORT $LN1@LoadInt_e@6
$LN80@LoadInt_e@6:
  00258	c6 45 ec ed	 mov	 BYTE PTR __k$[ebp+16], -19 ; ffffffedH
  0025c	eb 58		 jmp	 SHORT $LN1@LoadInt_e@6
$LN81@LoadInt_e@6:
  0025e	88 5d eb	 mov	 BYTE PTR __k$[ebp+15], bl
  00261	eb 53		 jmp	 SHORT $LN1@LoadInt_e@6
$LN82@LoadInt_e@6:
  00263	c6 45 ea eb	 mov	 BYTE PTR __k$[ebp+14], -21 ; ffffffebH
  00267	eb 4d		 jmp	 SHORT $LN1@LoadInt_e@6
$LN83@LoadInt_e@6:
  00269	88 4d e9	 mov	 BYTE PTR __k$[ebp+13], cl
  0026c	eb 48		 jmp	 SHORT $LN1@LoadInt_e@6
$LN84@LoadInt_e@6:
  0026e	c6 45 e8 ed	 mov	 BYTE PTR __k$[ebp+12], -19 ; ffffffedH
  00272	eb 42		 jmp	 SHORT $LN1@LoadInt_e@6
$LN85@LoadInt_e@6:
  00274	88 5d e7	 mov	 BYTE PTR __k$[ebp+11], bl
  00277	eb 3d		 jmp	 SHORT $LN1@LoadInt_e@6
$LN86@LoadInt_e@6:
  00279	c6 45 e6 eb	 mov	 BYTE PTR __k$[ebp+10], -21 ; ffffffebH
  0027d	eb 37		 jmp	 SHORT $LN1@LoadInt_e@6
$LN87@LoadInt_e@6:
  0027f	88 4d e5	 mov	 BYTE PTR __k$[ebp+9], cl
  00282	eb 32		 jmp	 SHORT $LN1@LoadInt_e@6
$LN88@LoadInt_e@6:
  00284	c6 45 e4 ed	 mov	 BYTE PTR __k$[ebp+8], -19 ; ffffffedH
  00288	eb 2c		 jmp	 SHORT $LN1@LoadInt_e@6
$LN89@LoadInt_e@6:
  0028a	88 5d e3	 mov	 BYTE PTR __k$[ebp+7], bl
  0028d	eb 27		 jmp	 SHORT $LN1@LoadInt_e@6
$LN90@LoadInt_e@6:
  0028f	c6 45 e2 eb	 mov	 BYTE PTR __k$[ebp+6], -21 ; ffffffebH
  00293	eb 21		 jmp	 SHORT $LN1@LoadInt_e@6
$LN91@LoadInt_e@6:
  00295	88 4d e1	 mov	 BYTE PTR __k$[ebp+5], cl
  00298	eb 1c		 jmp	 SHORT $LN1@LoadInt_e@6
$LN92@LoadInt_e@6:
  0029a	c6 45 e0 ed	 mov	 BYTE PTR __k$[ebp+4], -19 ; ffffffedH
  0029e	eb 16		 jmp	 SHORT $LN1@LoadInt_e@6
$LN93@LoadInt_e@6:
  002a0	c6 45 df ea	 mov	 BYTE PTR __k$[ebp+3], -22 ; ffffffeaH
  002a4	eb 10		 jmp	 SHORT $LN1@LoadInt_e@6
$LN94@LoadInt_e@6:
  002a6	c6 45 de eb	 mov	 BYTE PTR __k$[ebp+2], -21 ; ffffffebH
  002aa	eb 0a		 jmp	 SHORT $LN1@LoadInt_e@6
$LN95@LoadInt_e@6:
  002ac	c6 45 dd ec	 mov	 BYTE PTR __k$[ebp+1], -20 ; ffffffecH
  002b0	eb 04		 jmp	 SHORT $LN1@LoadInt_e@6
$LN96@LoadInt_e@6:
  002b2	c6 45 dc ed	 mov	 BYTE PTR __k$[ebp], -19	; ffffffedH
$LN1@LoadInt_e@6:
  002b6	6a 06		 push	 6
  002b8	8d 45 dc	 lea	 eax, DWORD PTR __k$[ebp]
  002bb	c6 45 f6 00	 mov	 BYTE PTR __k$[ebp+26], 0
  002bf	5a		 pop	 edx
$LL104@LoadInt_e@6:
  002c0	81 30 ed ec eb
	ea		 xor	 DWORD PTR [eax], -353637139 ; eaebecedH
  002c6	83 c0 04	 add	 eax, 4
  002c9	4a		 dec	 edx
  002ca	75 f4		 jne	 SHORT $LL104@LoadInt_e@6
  002cc	6a 18		 push	 24			; 00000018H
  002ce	58		 pop	 eax
$LL101@LoadInt_e@6:
  002cf	8b c8		 mov	 ecx, eax
  002d1	81 e1 03 00 00
	80		 and	 ecx, -2147483645	; 80000003H
  002d7	79 05		 jns	 SHORT $LN111@LoadInt_e@6
  002d9	49		 dec	 ecx
  002da	83 c9 fc	 or	 ecx, -4			; fffffffcH
  002dd	41		 inc	 ecx
$LN111@LoadInt_e@6:
  002de	b2 ed		 mov	 dl, -19			; ffffffedH
  002e0	2a d1		 sub	 dl, cl
  002e2	30 54 05 dc	 xor	 BYTE PTR __k$[ebp+eax], dl
  002e6	40		 inc	 eax
  002e7	83 f8 1a	 cmp	 eax, 26			; 0000001aH
  002ea	7c e3		 jl	 SHORT $LL101@LoadInt_e@6

; 120  : 		return LoadInt(_k, i);

  002ec	ff 75 0c	 push	 DWORD PTR _i$[ebp]
  002ef	8d 45 dc	 lea	 eax, DWORD PTR __k$[ebp]
  002f2	50		 push	 eax
  002f3	8b ce		 mov	 ecx, esi
  002f5	ff 15 00 00 00
	00		 call	 DWORD PTR __imp_?LoadInt@ioINILoader@@QAEHPBDH@Z

; 121  : 	}

  002fb	8b 4d fc	 mov	 ecx, DWORD PTR __$ArrayPad$[ebp]
  002fe	5e		 pop	 esi
  002ff	33 cd		 xor	 ecx, ebp
  00301	5b		 pop	 ebx
  00302	e8 00 00 00 00	 call	 @__security_check_cookie@4
  00307	c9		 leave
  00308	c2 08 00	 ret	 8
??$LoadInt_e@$0BL@@ioINILoader@@QAEHAAY0BL@$$CBDH@Z ENDP ; ioINILoader::LoadInt_e<27>
_TEXT	ENDS
PUBLIC	_this$GSCopy$
PUBLIC	__$ArrayPad$
PUBLIC	??$LoadString_e@$0BE@@ioINILoader@@QAEXAAY0BE@$$CBDAAY00$$CBDPADH@Z ; ioINILoader::LoadString_e<20>
; Function compile flags: /Ogsp
;	COMDAT ??$LoadString_e@$0BE@@ioINILoader@@QAEXAAY0BE@$$CBDAAY00$$CBDPADH@Z
_TEXT	SEGMENT
_this$GSCopy$ = -32					; size = 4
__k$ = -28						; size = 20
__$ArrayPad$ = -4					; size = 4
_k$ = 8							; size = 4
_d$ = 12						; size = 4
_b$ = 16						; size = 4
_i$ = 20						; size = 4
??$LoadString_e@$0BE@@ioINILoader@@QAEXAAY0BE@$$CBDAAY00$$CBDPADH@Z PROC ; ioINILoader::LoadString_e<20>, COMDAT
; _this$ = ecx

; 161  : 	{

  00000	55		 push	 ebp
  00001	8b ec		 mov	 ebp, esp
  00003	83 ec 20	 sub	 esp, 32			; 00000020H
  00006	a1 00 00 00 00	 mov	 eax, DWORD PTR ___security_cookie
  0000b	33 c5		 xor	 eax, ebp
  0000d	89 45 fc	 mov	 DWORD PTR __$ArrayPad$[ebp], eax
  00010	8b 45 08	 mov	 eax, DWORD PTR _k$[ebp]

; 162  : 		_ENCSTR(k, _k);

  00013	8a 10		 mov	 dl, BYTE PTR [eax]
  00015	53		 push	 ebx
  00016	56		 push	 esi
  00017	8b 75 0c	 mov	 esi, DWORD PTR _d$[ebp]
  0001a	57		 push	 edi
  0001b	8b 7d 10	 mov	 edi, DWORD PTR _b$[ebp]
  0001e	89 4d e0	 mov	 DWORD PTR _this$GSCopy$[ebp], ecx
  00021	84 d2		 test	 dl, dl
  00023	0f 84 dd 01 00
	00		 je	 $LN96@LoadString@2
  00029	80 f2 ed	 xor	 dl, -19			; ffffffedH
  0002c	88 55 e4	 mov	 BYTE PTR __k$[ebp], dl
  0002f	8a 50 01	 mov	 dl, BYTE PTR [eax+1]
  00032	84 d2		 test	 dl, dl
  00034	0f 84 c6 01 00
	00		 je	 $LN95@LoadString@2
  0003a	b3 ec		 mov	 bl, -20			; ffffffecH
  0003c	32 d3		 xor	 dl, bl
  0003e	88 55 e5	 mov	 BYTE PTR __k$[ebp+1], dl
  00041	8a 50 02	 mov	 dl, BYTE PTR [eax+2]
  00044	84 d2		 test	 dl, dl
  00046	0f 84 ae 01 00
	00		 je	 $LN94@LoadString@2
  0004c	b1 eb		 mov	 cl, -21			; ffffffebH
  0004e	32 d1		 xor	 dl, cl
  00050	88 55 e6	 mov	 BYTE PTR __k$[ebp+2], dl
  00053	8a 50 03	 mov	 dl, BYTE PTR [eax+3]
  00056	84 d2		 test	 dl, dl
  00058	0f 84 96 01 00
	00		 je	 $LN93@LoadString@2
  0005e	80 f2 ea	 xor	 dl, -22			; ffffffeaH
  00061	88 55 e7	 mov	 BYTE PTR __k$[ebp+3], dl
  00064	8a 50 04	 mov	 dl, BYTE PTR [eax+4]
  00067	84 d2		 test	 dl, dl
  00069	0f 84 7f 01 00
	00		 je	 $LN92@LoadString@2
  0006f	80 f2 ed	 xor	 dl, -19			; ffffffedH
  00072	88 55 e8	 mov	 BYTE PTR __k$[ebp+4], dl
  00075	8a 50 05	 mov	 dl, BYTE PTR [eax+5]
  00078	84 d2		 test	 dl, dl
  0007a	0f 84 69 01 00
	00		 je	 $LN91@LoadString@2
  00080	32 d3		 xor	 dl, bl
  00082	88 55 e9	 mov	 BYTE PTR __k$[ebp+5], dl
  00085	8a 50 06	 mov	 dl, BYTE PTR [eax+6]
  00088	84 d2		 test	 dl, dl
  0008a	0f 84 54 01 00
	00		 je	 $LN90@LoadString@2
  00090	32 d1		 xor	 dl, cl
  00092	88 55 ea	 mov	 BYTE PTR __k$[ebp+6], dl
  00095	8a 50 07	 mov	 dl, BYTE PTR [eax+7]
  00098	84 d2		 test	 dl, dl
  0009a	0f 84 3e 01 00
	00		 je	 $LN89@LoadString@2
  000a0	80 f2 ea	 xor	 dl, -22			; ffffffeaH
  000a3	88 55 eb	 mov	 BYTE PTR __k$[ebp+7], dl
  000a6	8a 50 08	 mov	 dl, BYTE PTR [eax+8]
  000a9	84 d2		 test	 dl, dl
  000ab	0f 84 27 01 00
	00		 je	 $LN88@LoadString@2
  000b1	80 f2 ed	 xor	 dl, -19			; ffffffedH
  000b4	88 55 ec	 mov	 BYTE PTR __k$[ebp+8], dl
  000b7	8a 50 09	 mov	 dl, BYTE PTR [eax+9]
  000ba	84 d2		 test	 dl, dl
  000bc	0f 84 11 01 00
	00		 je	 $LN87@LoadString@2
  000c2	32 d3		 xor	 dl, bl
  000c4	88 55 ed	 mov	 BYTE PTR __k$[ebp+9], dl
  000c7	8a 50 0a	 mov	 dl, BYTE PTR [eax+10]
  000ca	84 d2		 test	 dl, dl
  000cc	0f 84 fc 00 00
	00		 je	 $LN86@LoadString@2
  000d2	32 d1		 xor	 dl, cl
  000d4	88 55 ee	 mov	 BYTE PTR __k$[ebp+10], dl
  000d7	8a 50 0b	 mov	 dl, BYTE PTR [eax+11]
  000da	84 d2		 test	 dl, dl
  000dc	0f 84 e6 00 00
	00		 je	 $LN85@LoadString@2
  000e2	80 f2 ea	 xor	 dl, -22			; ffffffeaH
  000e5	88 55 ef	 mov	 BYTE PTR __k$[ebp+11], dl
  000e8	8a 50 0c	 mov	 dl, BYTE PTR [eax+12]
  000eb	84 d2		 test	 dl, dl
  000ed	0f 84 cf 00 00
	00		 je	 $LN84@LoadString@2
  000f3	80 f2 ed	 xor	 dl, -19			; ffffffedH
  000f6	88 55 f0	 mov	 BYTE PTR __k$[ebp+12], dl
  000f9	8a 50 0d	 mov	 dl, BYTE PTR [eax+13]
  000fc	84 d2		 test	 dl, dl
  000fe	0f 84 b9 00 00
	00		 je	 $LN83@LoadString@2
  00104	32 d3		 xor	 dl, bl
  00106	88 55 f1	 mov	 BYTE PTR __k$[ebp+13], dl
  00109	8a 50 0e	 mov	 dl, BYTE PTR [eax+14]
  0010c	84 d2		 test	 dl, dl
  0010e	0f 84 a4 00 00
	00		 je	 $LN82@LoadString@2
  00114	32 d1		 xor	 dl, cl
  00116	88 55 f2	 mov	 BYTE PTR __k$[ebp+14], dl
  00119	8a 50 0f	 mov	 dl, BYTE PTR [eax+15]
  0011c	84 d2		 test	 dl, dl
  0011e	0f 84 8e 00 00
	00		 je	 $LN81@LoadString@2
  00124	80 f2 ea	 xor	 dl, -22			; ffffffeaH
  00127	88 55 f3	 mov	 BYTE PTR __k$[ebp+15], dl
  0012a	8a 50 10	 mov	 dl, BYTE PTR [eax+16]
  0012d	84 d2		 test	 dl, dl
  0012f	74 7b		 je	 SHORT $LN80@LoadString@2
  00131	80 f2 ed	 xor	 dl, -19			; ffffffedH
  00134	88 55 f4	 mov	 BYTE PTR __k$[ebp+16], dl
  00137	8a 50 11	 mov	 dl, BYTE PTR [eax+17]
  0013a	84 d2		 test	 dl, dl
  0013c	74 69		 je	 SHORT $LN79@LoadString@2
  0013e	32 d3		 xor	 dl, bl
  00140	88 55 f5	 mov	 BYTE PTR __k$[ebp+17], dl
  00143	8a 50 12	 mov	 dl, BYTE PTR [eax+18]
  00146	84 d2		 test	 dl, dl
  00148	74 58		 je	 SHORT $LN78@LoadString@2
  0014a	32 d1		 xor	 dl, cl
  0014c	80 78 13 00	 cmp	 BYTE PTR [eax+19], 0
  00150	88 55 f6	 mov	 BYTE PTR __k$[ebp+18], dl
  00153	0f 84 b1 00 00
	00		 je	 $LN111@LoadString@2
  00159	8a 50 14	 mov	 dl, BYTE PTR [eax+20]
  0015c	84 d2		 test	 dl, dl
  0015e	74 3c		 je	 SHORT $LN76@LoadString@2
  00160	80 f2 ed	 xor	 dl, -19			; ffffffedH
  00163	88 55 f8	 mov	 BYTE PTR __k$[ebp+20], dl
  00166	8a 50 15	 mov	 dl, BYTE PTR [eax+21]
  00169	84 d2		 test	 dl, dl
  0016b	74 2a		 je	 SHORT $LN75@LoadString@2
  0016d	32 d3		 xor	 dl, bl
  0016f	88 55 f9	 mov	 BYTE PTR __k$[ebp+21], dl
  00172	8a 50 16	 mov	 dl, BYTE PTR [eax+22]
  00175	84 d2		 test	 dl, dl
  00177	74 19		 je	 SHORT $LN74@LoadString@2
  00179	8a 40 17	 mov	 al, BYTE PTR [eax+23]
  0017c	32 d1		 xor	 dl, cl
  0017e	88 55 fa	 mov	 BYTE PTR __k$[ebp+22], dl
  00181	84 c0		 test	 al, al
  00183	74 07		 je	 SHORT $LN73@LoadString@2
  00185	34 ea		 xor	 al, -22			; ffffffeaH
  00187	88 45 fb	 mov	 BYTE PTR __k$[ebp+23], al
  0018a	eb 7e		 jmp	 SHORT $LN111@LoadString@2
$LN73@LoadString@2:
  0018c	c6 45 fb ea	 mov	 BYTE PTR __k$[ebp+23], -22 ; ffffffeaH
  00190	eb 78		 jmp	 SHORT $LN111@LoadString@2
$LN74@LoadString@2:
  00192	88 4d fa	 mov	 BYTE PTR __k$[ebp+22], cl
  00195	eb 73		 jmp	 SHORT $LN111@LoadString@2
$LN75@LoadString@2:
  00197	88 5d f9	 mov	 BYTE PTR __k$[ebp+21], bl
  0019a	eb 6e		 jmp	 SHORT $LN111@LoadString@2
$LN76@LoadString@2:
  0019c	c6 45 f8 ed	 mov	 BYTE PTR __k$[ebp+20], -19 ; ffffffedH
  001a0	eb 68		 jmp	 SHORT $LN111@LoadString@2
$LN78@LoadString@2:
  001a2	88 4d f6	 mov	 BYTE PTR __k$[ebp+18], cl
  001a5	eb 63		 jmp	 SHORT $LN111@LoadString@2
$LN79@LoadString@2:
  001a7	88 5d f5	 mov	 BYTE PTR __k$[ebp+17], bl
  001aa	eb 5e		 jmp	 SHORT $LN111@LoadString@2
$LN80@LoadString@2:
  001ac	c6 45 f4 ed	 mov	 BYTE PTR __k$[ebp+16], -19 ; ffffffedH
  001b0	eb 58		 jmp	 SHORT $LN111@LoadString@2
$LN81@LoadString@2:
  001b2	c6 45 f3 ea	 mov	 BYTE PTR __k$[ebp+15], -22 ; ffffffeaH
  001b6	eb 52		 jmp	 SHORT $LN111@LoadString@2
$LN82@LoadString@2:
  001b8	88 4d f2	 mov	 BYTE PTR __k$[ebp+14], cl
  001bb	eb 4d		 jmp	 SHORT $LN111@LoadString@2
$LN83@LoadString@2:
  001bd	88 5d f1	 mov	 BYTE PTR __k$[ebp+13], bl
  001c0	eb 48		 jmp	 SHORT $LN111@LoadString@2
$LN84@LoadString@2:
  001c2	c6 45 f0 ed	 mov	 BYTE PTR __k$[ebp+12], -19 ; ffffffedH
  001c6	eb 42		 jmp	 SHORT $LN111@LoadString@2
$LN85@LoadString@2:
  001c8	c6 45 ef ea	 mov	 BYTE PTR __k$[ebp+11], -22 ; ffffffeaH
  001cc	eb 3c		 jmp	 SHORT $LN111@LoadString@2
$LN86@LoadString@2:
  001ce	88 4d ee	 mov	 BYTE PTR __k$[ebp+10], cl
  001d1	eb 37		 jmp	 SHORT $LN111@LoadString@2
$LN87@LoadString@2:
  001d3	88 5d ed	 mov	 BYTE PTR __k$[ebp+9], bl
  001d6	eb 32		 jmp	 SHORT $LN111@LoadString@2
$LN88@LoadString@2:
  001d8	c6 45 ec ed	 mov	 BYTE PTR __k$[ebp+8], -19 ; ffffffedH
  001dc	eb 2c		 jmp	 SHORT $LN111@LoadString@2
$LN89@LoadString@2:
  001de	c6 45 eb ea	 mov	 BYTE PTR __k$[ebp+7], -22 ; ffffffeaH
  001e2	eb 26		 jmp	 SHORT $LN111@LoadString@2
$LN90@LoadString@2:
  001e4	88 4d ea	 mov	 BYTE PTR __k$[ebp+6], cl
  001e7	eb 21		 jmp	 SHORT $LN111@LoadString@2
$LN91@LoadString@2:
  001e9	88 5d e9	 mov	 BYTE PTR __k$[ebp+5], bl
  001ec	eb 1c		 jmp	 SHORT $LN111@LoadString@2
$LN92@LoadString@2:
  001ee	c6 45 e8 ed	 mov	 BYTE PTR __k$[ebp+4], -19 ; ffffffedH
  001f2	eb 16		 jmp	 SHORT $LN111@LoadString@2
$LN93@LoadString@2:
  001f4	c6 45 e7 ea	 mov	 BYTE PTR __k$[ebp+3], -22 ; ffffffeaH
  001f8	eb 10		 jmp	 SHORT $LN111@LoadString@2
$LN94@LoadString@2:
  001fa	c6 45 e6 eb	 mov	 BYTE PTR __k$[ebp+2], -21 ; ffffffebH
  001fe	eb 0a		 jmp	 SHORT $LN111@LoadString@2
$LN95@LoadString@2:
  00200	c6 45 e5 ec	 mov	 BYTE PTR __k$[ebp+1], -20 ; ffffffecH
  00204	eb 04		 jmp	 SHORT $LN111@LoadString@2
$LN96@LoadString@2:
  00206	c6 45 e4 ed	 mov	 BYTE PTR __k$[ebp], -19	; ffffffedH
$LN111@LoadString@2:
  0020a	6a 04		 push	 4
  0020c	8d 45 e4	 lea	 eax, DWORD PTR __k$[ebp]
  0020f	c6 45 f7 00	 mov	 BYTE PTR __k$[ebp+19], 0
  00213	5a		 pop	 edx
$LL104@LoadString@2:
  00214	81 30 ed ec eb
	ea		 xor	 DWORD PTR [eax], -353637139 ; eaebecedH
  0021a	83 c0 04	 add	 eax, 4
  0021d	4a		 dec	 edx
  0021e	75 f4		 jne	 SHORT $LL104@LoadString@2
  00220	6a 10		 push	 16			; 00000010H
  00222	58		 pop	 eax
$LL101@LoadString@2:
  00223	8b c8		 mov	 ecx, eax
  00225	81 e1 03 00 00
	80		 and	 ecx, -2147483645	; 80000003H
  0022b	79 05		 jns	 SHORT $LN112@LoadString@2
  0022d	49		 dec	 ecx
  0022e	83 c9 fc	 or	 ecx, -4			; fffffffcH
  00231	41		 inc	 ecx
$LN112@LoadString@2:
  00232	b2 ed		 mov	 dl, -19			; ffffffedH
  00234	2a d1		 sub	 dl, cl
  00236	30 54 05 e4	 xor	 BYTE PTR __k$[ebp+eax], dl
  0023a	40		 inc	 eax
  0023b	83 f8 13	 cmp	 eax, 19			; 00000013H
  0023e	7c e3		 jl	 SHORT $LL101@LoadString@2

; 163  : 		LoadString(_k, d, b, i);

  00240	ff 75 14	 push	 DWORD PTR _i$[ebp]
  00243	8b 4d e0	 mov	 ecx, DWORD PTR _this$GSCopy$[ebp]
  00246	57		 push	 edi
  00247	56		 push	 esi
  00248	8d 45 e4	 lea	 eax, DWORD PTR __k$[ebp]
  0024b	50		 push	 eax
  0024c	ff 15 00 00 00
	00		 call	 DWORD PTR __imp_?LoadStringA@ioINILoader@@QAEXPBD0PADH@Z

; 164  : 	}

  00252	8b 4d fc	 mov	 ecx, DWORD PTR __$ArrayPad$[ebp]
  00255	5f		 pop	 edi
  00256	5e		 pop	 esi
  00257	33 cd		 xor	 ecx, ebp
  00259	5b		 pop	 ebx
  0025a	e8 00 00 00 00	 call	 @__security_check_cookie@4
  0025f	c9		 leave
  00260	c2 10 00	 ret	 16			; 00000010H
??$LoadString_e@$0BE@@ioINILoader@@QAEXAAY0BE@$$CBDAAY00$$CBDPADH@Z ENDP ; ioINILoader::LoadString_e<20>
_TEXT	ENDS
PUBLIC	__$ArrayPad$
PUBLIC	??$LoadInt_e@$0CB@@ioINILoader@@QAEHAAY0CB@$$CBDH@Z ; ioINILoader::LoadInt_e<33>
; Function compile flags: /Ogsp
;	COMDAT ??$LoadInt_e@$0CB@@ioINILoader@@QAEHAAY0CB@$$CBDH@Z
_TEXT	SEGMENT
__k$ = -44						; size = 33
__$ArrayPad$ = -4					; size = 4
_k$ = 8							; size = 4
_i$ = 12						; size = 4
??$LoadInt_e@$0CB@@ioINILoader@@QAEHAAY0CB@$$CBDH@Z PROC ; ioINILoader::LoadInt_e<33>, COMDAT
; _this$ = ecx

; 118  : 	{

  00000	55		 push	 ebp
  00001	8b ec		 mov	 ebp, esp
  00003	83 ec 2c	 sub	 esp, 44			; 0000002cH
  00006	a1 00 00 00 00	 mov	 eax, DWORD PTR ___security_cookie
  0000b	33 c5		 xor	 eax, ebp
  0000d	89 45 fc	 mov	 DWORD PTR __$ArrayPad$[ebp], eax
  00010	8b 45 08	 mov	 eax, DWORD PTR _k$[ebp]

; 119  : 		_ENCSTR(k, _k);

  00013	8a 10		 mov	 dl, BYTE PTR [eax]
  00015	53		 push	 ebx
  00016	56		 push	 esi
  00017	8b f1		 mov	 esi, ecx
  00019	84 d2		 test	 dl, dl
  0001b	0f 84 27 03 00
	00		 je	 $LN96@LoadInt_e@7
  00021	80 f2 ed	 xor	 dl, -19			; ffffffedH
  00024	88 55 d4	 mov	 BYTE PTR __k$[ebp], dl
  00027	8a 50 01	 mov	 dl, BYTE PTR [eax+1]
  0002a	84 d2		 test	 dl, dl
  0002c	0f 84 10 03 00
	00		 je	 $LN95@LoadInt_e@7
  00032	b1 ec		 mov	 cl, -20			; ffffffecH
  00034	32 d1		 xor	 dl, cl
  00036	88 55 d5	 mov	 BYTE PTR __k$[ebp+1], dl
  00039	8a 50 02	 mov	 dl, BYTE PTR [eax+2]
  0003c	84 d2		 test	 dl, dl
  0003e	0f 84 f8 02 00
	00		 je	 $LN94@LoadInt_e@7
  00044	b3 eb		 mov	 bl, -21			; ffffffebH
  00046	32 d3		 xor	 dl, bl
  00048	88 55 d6	 mov	 BYTE PTR __k$[ebp+2], dl
  0004b	8a 50 03	 mov	 dl, BYTE PTR [eax+3]
  0004e	84 d2		 test	 dl, dl
  00050	0f 84 e0 02 00
	00		 je	 $LN93@LoadInt_e@7
  00056	80 f2 ea	 xor	 dl, -22			; ffffffeaH
  00059	88 55 d7	 mov	 BYTE PTR __k$[ebp+3], dl
  0005c	8a 50 04	 mov	 dl, BYTE PTR [eax+4]
  0005f	84 d2		 test	 dl, dl
  00061	0f 84 c9 02 00
	00		 je	 $LN92@LoadInt_e@7
  00067	80 f2 ed	 xor	 dl, -19			; ffffffedH
  0006a	88 55 d8	 mov	 BYTE PTR __k$[ebp+4], dl
  0006d	8a 50 05	 mov	 dl, BYTE PTR [eax+5]
  00070	84 d2		 test	 dl, dl
  00072	0f 84 b3 02 00
	00		 je	 $LN91@LoadInt_e@7
  00078	32 d1		 xor	 dl, cl
  0007a	88 55 d9	 mov	 BYTE PTR __k$[ebp+5], dl
  0007d	8a 50 06	 mov	 dl, BYTE PTR [eax+6]
  00080	84 d2		 test	 dl, dl
  00082	0f 84 9e 02 00
	00		 je	 $LN90@LoadInt_e@7
  00088	32 d3		 xor	 dl, bl
  0008a	88 55 da	 mov	 BYTE PTR __k$[ebp+6], dl
  0008d	8a 50 07	 mov	 dl, BYTE PTR [eax+7]
  00090	84 d2		 test	 dl, dl
  00092	0f 84 88 02 00
	00		 je	 $LN89@LoadInt_e@7
  00098	80 f2 ea	 xor	 dl, -22			; ffffffeaH
  0009b	88 55 db	 mov	 BYTE PTR __k$[ebp+7], dl
  0009e	8a 50 08	 mov	 dl, BYTE PTR [eax+8]
  000a1	84 d2		 test	 dl, dl
  000a3	0f 84 71 02 00
	00		 je	 $LN88@LoadInt_e@7
  000a9	80 f2 ed	 xor	 dl, -19			; ffffffedH
  000ac	88 55 dc	 mov	 BYTE PTR __k$[ebp+8], dl
  000af	8a 50 09	 mov	 dl, BYTE PTR [eax+9]
  000b2	84 d2		 test	 dl, dl
  000b4	0f 84 5b 02 00
	00		 je	 $LN87@LoadInt_e@7
  000ba	32 d1		 xor	 dl, cl
  000bc	88 55 dd	 mov	 BYTE PTR __k$[ebp+9], dl
  000bf	8a 50 0a	 mov	 dl, BYTE PTR [eax+10]
  000c2	84 d2		 test	 dl, dl
  000c4	0f 84 46 02 00
	00		 je	 $LN86@LoadInt_e@7
  000ca	32 d3		 xor	 dl, bl
  000cc	88 55 de	 mov	 BYTE PTR __k$[ebp+10], dl
  000cf	8a 50 0b	 mov	 dl, BYTE PTR [eax+11]
  000d2	84 d2		 test	 dl, dl
  000d4	0f 84 30 02 00
	00		 je	 $LN85@LoadInt_e@7
  000da	80 f2 ea	 xor	 dl, -22			; ffffffeaH
  000dd	88 55 df	 mov	 BYTE PTR __k$[ebp+11], dl
  000e0	8a 50 0c	 mov	 dl, BYTE PTR [eax+12]
  000e3	84 d2		 test	 dl, dl
  000e5	0f 84 19 02 00
	00		 je	 $LN84@LoadInt_e@7
  000eb	80 f2 ed	 xor	 dl, -19			; ffffffedH
  000ee	88 55 e0	 mov	 BYTE PTR __k$[ebp+12], dl
  000f1	8a 50 0d	 mov	 dl, BYTE PTR [eax+13]
  000f4	84 d2		 test	 dl, dl
  000f6	0f 84 03 02 00
	00		 je	 $LN83@LoadInt_e@7
  000fc	32 d1		 xor	 dl, cl
  000fe	88 55 e1	 mov	 BYTE PTR __k$[ebp+13], dl
  00101	8a 50 0e	 mov	 dl, BYTE PTR [eax+14]
  00104	84 d2		 test	 dl, dl
  00106	0f 84 ee 01 00
	00		 je	 $LN82@LoadInt_e@7
  0010c	32 d3		 xor	 dl, bl
  0010e	88 55 e2	 mov	 BYTE PTR __k$[ebp+14], dl
  00111	8a 50 0f	 mov	 dl, BYTE PTR [eax+15]
  00114	84 d2		 test	 dl, dl
  00116	0f 84 d8 01 00
	00		 je	 $LN81@LoadInt_e@7
  0011c	80 f2 ea	 xor	 dl, -22			; ffffffeaH
  0011f	88 55 e3	 mov	 BYTE PTR __k$[ebp+15], dl
  00122	8a 50 10	 mov	 dl, BYTE PTR [eax+16]
  00125	84 d2		 test	 dl, dl
  00127	0f 84 c1 01 00
	00		 je	 $LN80@LoadInt_e@7
  0012d	80 f2 ed	 xor	 dl, -19			; ffffffedH
  00130	88 55 e4	 mov	 BYTE PTR __k$[ebp+16], dl
  00133	8a 50 11	 mov	 dl, BYTE PTR [eax+17]
  00136	84 d2		 test	 dl, dl
  00138	0f 84 ab 01 00
	00		 je	 $LN79@LoadInt_e@7
  0013e	32 d1		 xor	 dl, cl
  00140	88 55 e5	 mov	 BYTE PTR __k$[ebp+17], dl
  00143	8a 50 12	 mov	 dl, BYTE PTR [eax+18]
  00146	84 d2		 test	 dl, dl
  00148	0f 84 96 01 00
	00		 je	 $LN78@LoadInt_e@7
  0014e	32 d3		 xor	 dl, bl
  00150	88 55 e6	 mov	 BYTE PTR __k$[ebp+18], dl
  00153	8a 50 13	 mov	 dl, BYTE PTR [eax+19]
  00156	84 d2		 test	 dl, dl
  00158	0f 84 80 01 00
	00		 je	 $LN77@LoadInt_e@7
  0015e	80 f2 ea	 xor	 dl, -22			; ffffffeaH
  00161	88 55 e7	 mov	 BYTE PTR __k$[ebp+19], dl
  00164	8a 50 14	 mov	 dl, BYTE PTR [eax+20]
  00167	84 d2		 test	 dl, dl
  00169	0f 84 69 01 00
	00		 je	 $LN76@LoadInt_e@7
  0016f	80 f2 ed	 xor	 dl, -19			; ffffffedH
  00172	88 55 e8	 mov	 BYTE PTR __k$[ebp+20], dl
  00175	8a 50 15	 mov	 dl, BYTE PTR [eax+21]
  00178	84 d2		 test	 dl, dl
  0017a	0f 84 53 01 00
	00		 je	 $LN75@LoadInt_e@7
  00180	32 d1		 xor	 dl, cl
  00182	88 55 e9	 mov	 BYTE PTR __k$[ebp+21], dl
  00185	8a 50 16	 mov	 dl, BYTE PTR [eax+22]
  00188	84 d2		 test	 dl, dl
  0018a	0f 84 3e 01 00
	00		 je	 $LN74@LoadInt_e@7
  00190	32 d3		 xor	 dl, bl
  00192	88 55 ea	 mov	 BYTE PTR __k$[ebp+22], dl
  00195	8a 50 17	 mov	 dl, BYTE PTR [eax+23]
  00198	84 d2		 test	 dl, dl
  0019a	0f 84 28 01 00
	00		 je	 $LN73@LoadInt_e@7
  001a0	80 f2 ea	 xor	 dl, -22			; ffffffeaH
  001a3	88 55 eb	 mov	 BYTE PTR __k$[ebp+23], dl
  001a6	8a 50 18	 mov	 dl, BYTE PTR [eax+24]
  001a9	84 d2		 test	 dl, dl
  001ab	0f 84 0e 01 00
	00		 je	 $LN72@LoadInt_e@7
  001b1	80 f2 ed	 xor	 dl, -19			; ffffffedH
  001b4	88 55 ec	 mov	 BYTE PTR __k$[ebp+24], dl
  001b7	8a 50 19	 mov	 dl, BYTE PTR [eax+25]
  001ba	84 d2		 test	 dl, dl
  001bc	0f 84 f5 00 00
	00		 je	 $LN71@LoadInt_e@7
  001c2	32 d1		 xor	 dl, cl
  001c4	88 55 ed	 mov	 BYTE PTR __k$[ebp+25], dl
  001c7	8a 50 1a	 mov	 dl, BYTE PTR [eax+26]
  001ca	84 d2		 test	 dl, dl
  001cc	0f 84 dd 00 00
	00		 je	 $LN70@LoadInt_e@7
  001d2	32 d3		 xor	 dl, bl
  001d4	88 55 ee	 mov	 BYTE PTR __k$[ebp+26], dl
  001d7	8a 50 1b	 mov	 dl, BYTE PTR [eax+27]
  001da	84 d2		 test	 dl, dl
  001dc	0f 84 c4 00 00
	00		 je	 $LN69@LoadInt_e@7
  001e2	80 f2 ea	 xor	 dl, -22			; ffffffeaH
  001e5	88 55 ef	 mov	 BYTE PTR __k$[ebp+27], dl
  001e8	8a 50 1c	 mov	 dl, BYTE PTR [eax+28]
  001eb	84 d2		 test	 dl, dl
  001ed	0f 84 aa 00 00
	00		 je	 $LN68@LoadInt_e@7
  001f3	80 f2 ed	 xor	 dl, -19			; ffffffedH
  001f6	88 55 f0	 mov	 BYTE PTR __k$[ebp+28], dl
  001f9	8a 50 1d	 mov	 dl, BYTE PTR [eax+29]
  001fc	84 d2		 test	 dl, dl
  001fe	0f 84 91 00 00
	00		 je	 $LN67@LoadInt_e@7
  00204	32 d1		 xor	 dl, cl
  00206	88 55 f1	 mov	 BYTE PTR __k$[ebp+29], dl
  00209	8a 50 1e	 mov	 dl, BYTE PTR [eax+30]
  0020c	84 d2		 test	 dl, dl
  0020e	74 7d		 je	 SHORT $LN66@LoadInt_e@7
  00210	32 d3		 xor	 dl, bl
  00212	88 55 f2	 mov	 BYTE PTR __k$[ebp+30], dl
  00215	8a 50 1f	 mov	 dl, BYTE PTR [eax+31]
  00218	84 d2		 test	 dl, dl
  0021a	74 68		 je	 SHORT $LN65@LoadInt_e@7
  0021c	80 f2 ea	 xor	 dl, -22			; ffffffeaH
  0021f	80 78 20 00	 cmp	 BYTE PTR [eax+32], 0
  00223	88 55 f3	 mov	 BYTE PTR __k$[ebp+31], dl
  00226	0f 84 20 01 00
	00		 je	 $LN1@LoadInt_e@7
  0022c	8a 50 21	 mov	 dl, BYTE PTR [eax+33]
  0022f	84 d2		 test	 dl, dl
  00231	74 49		 je	 SHORT $LN63@LoadInt_e@7
  00233	32 d1		 xor	 dl, cl
  00235	88 55 f5	 mov	 BYTE PTR __k$[ebp+33], dl
  00238	8a 50 22	 mov	 dl, BYTE PTR [eax+34]
  0023b	84 d2		 test	 dl, dl
  0023d	74 35		 je	 SHORT $LN62@LoadInt_e@7
  0023f	32 d3		 xor	 dl, bl
  00241	88 55 f6	 mov	 BYTE PTR __k$[ebp+34], dl
  00244	8a 50 23	 mov	 dl, BYTE PTR [eax+35]
  00247	84 d2		 test	 dl, dl
  00249	74 20		 je	 SHORT $LN61@LoadInt_e@7
  0024b	8a 40 24	 mov	 al, BYTE PTR [eax+36]
  0024e	80 f2 ea	 xor	 dl, -22			; ffffffeaH
  00251	88 55 f7	 mov	 BYTE PTR __k$[ebp+35], dl
  00254	84 c0		 test	 al, al
  00256	74 0a		 je	 SHORT $LN60@LoadInt_e@7
  00258	34 ed		 xor	 al, -19			; ffffffedH
  0025a	88 45 f8	 mov	 BYTE PTR __k$[ebp+36], al
  0025d	e9 ea 00 00 00	 jmp	 $LN1@LoadInt_e@7
$LN60@LoadInt_e@7:
  00262	c6 45 f8 ed	 mov	 BYTE PTR __k$[ebp+36], -19 ; ffffffedH
  00266	e9 e1 00 00 00	 jmp	 $LN1@LoadInt_e@7
$LN61@LoadInt_e@7:
  0026b	c6 45 f7 ea	 mov	 BYTE PTR __k$[ebp+35], -22 ; ffffffeaH
  0026f	e9 d8 00 00 00	 jmp	 $LN1@LoadInt_e@7
$LN62@LoadInt_e@7:
  00274	88 5d f6	 mov	 BYTE PTR __k$[ebp+34], bl
  00277	e9 d0 00 00 00	 jmp	 $LN1@LoadInt_e@7
$LN63@LoadInt_e@7:
  0027c	88 4d f5	 mov	 BYTE PTR __k$[ebp+33], cl
  0027f	e9 c8 00 00 00	 jmp	 $LN1@LoadInt_e@7
$LN65@LoadInt_e@7:
  00284	c6 45 f3 ea	 mov	 BYTE PTR __k$[ebp+31], -22 ; ffffffeaH
  00288	e9 bf 00 00 00	 jmp	 $LN1@LoadInt_e@7
$LN66@LoadInt_e@7:
  0028d	88 5d f2	 mov	 BYTE PTR __k$[ebp+30], bl
  00290	e9 b7 00 00 00	 jmp	 $LN1@LoadInt_e@7
$LN67@LoadInt_e@7:
  00295	88 4d f1	 mov	 BYTE PTR __k$[ebp+29], cl
  00298	e9 af 00 00 00	 jmp	 $LN1@LoadInt_e@7
$LN68@LoadInt_e@7:
  0029d	c6 45 f0 ed	 mov	 BYTE PTR __k$[ebp+28], -19 ; ffffffedH
  002a1	e9 a6 00 00 00	 jmp	 $LN1@LoadInt_e@7
$LN69@LoadInt_e@7:
  002a6	c6 45 ef ea	 mov	 BYTE PTR __k$[ebp+27], -22 ; ffffffeaH
  002aa	e9 9d 00 00 00	 jmp	 $LN1@LoadInt_e@7
$LN70@LoadInt_e@7:
  002af	88 5d ee	 mov	 BYTE PTR __k$[ebp+26], bl
  002b2	e9 95 00 00 00	 jmp	 $LN1@LoadInt_e@7
$LN71@LoadInt_e@7:
  002b7	88 4d ed	 mov	 BYTE PTR __k$[ebp+25], cl
  002ba	e9 8d 00 00 00	 jmp	 $LN1@LoadInt_e@7
$LN72@LoadInt_e@7:
  002bf	c6 45 ec ed	 mov	 BYTE PTR __k$[ebp+24], -19 ; ffffffedH
  002c3	e9 84 00 00 00	 jmp	 $LN1@LoadInt_e@7
$LN73@LoadInt_e@7:
  002c8	c6 45 eb ea	 mov	 BYTE PTR __k$[ebp+23], -22 ; ffffffeaH
  002cc	eb 7e		 jmp	 SHORT $LN1@LoadInt_e@7
$LN74@LoadInt_e@7:
  002ce	88 5d ea	 mov	 BYTE PTR __k$[ebp+22], bl
  002d1	eb 79		 jmp	 SHORT $LN1@LoadInt_e@7
$LN75@LoadInt_e@7:
  002d3	88 4d e9	 mov	 BYTE PTR __k$[ebp+21], cl
  002d6	eb 74		 jmp	 SHORT $LN1@LoadInt_e@7
$LN76@LoadInt_e@7:
  002d8	c6 45 e8 ed	 mov	 BYTE PTR __k$[ebp+20], -19 ; ffffffedH
  002dc	eb 6e		 jmp	 SHORT $LN1@LoadInt_e@7
$LN77@LoadInt_e@7:
  002de	c6 45 e7 ea	 mov	 BYTE PTR __k$[ebp+19], -22 ; ffffffeaH
  002e2	eb 68		 jmp	 SHORT $LN1@LoadInt_e@7
$LN78@LoadInt_e@7:
  002e4	88 5d e6	 mov	 BYTE PTR __k$[ebp+18], bl
  002e7	eb 63		 jmp	 SHORT $LN1@LoadInt_e@7
$LN79@LoadInt_e@7:
  002e9	88 4d e5	 mov	 BYTE PTR __k$[ebp+17], cl
  002ec	eb 5e		 jmp	 SHORT $LN1@LoadInt_e@7
$LN80@LoadInt_e@7:
  002ee	c6 45 e4 ed	 mov	 BYTE PTR __k$[ebp+16], -19 ; ffffffedH
  002f2	eb 58		 jmp	 SHORT $LN1@LoadInt_e@7
$LN81@LoadInt_e@7:
  002f4	c6 45 e3 ea	 mov	 BYTE PTR __k$[ebp+15], -22 ; ffffffeaH
  002f8	eb 52		 jmp	 SHORT $LN1@LoadInt_e@7
$LN82@LoadInt_e@7:
  002fa	88 5d e2	 mov	 BYTE PTR __k$[ebp+14], bl
  002fd	eb 4d		 jmp	 SHORT $LN1@LoadInt_e@7
$LN83@LoadInt_e@7:
  002ff	88 4d e1	 mov	 BYTE PTR __k$[ebp+13], cl
  00302	eb 48		 jmp	 SHORT $LN1@LoadInt_e@7
$LN84@LoadInt_e@7:
  00304	c6 45 e0 ed	 mov	 BYTE PTR __k$[ebp+12], -19 ; ffffffedH
  00308	eb 42		 jmp	 SHORT $LN1@LoadInt_e@7
$LN85@LoadInt_e@7:
  0030a	c6 45 df ea	 mov	 BYTE PTR __k$[ebp+11], -22 ; ffffffeaH
  0030e	eb 3c		 jmp	 SHORT $LN1@LoadInt_e@7
$LN86@LoadInt_e@7:
  00310	88 5d de	 mov	 BYTE PTR __k$[ebp+10], bl
  00313	eb 37		 jmp	 SHORT $LN1@LoadInt_e@7
$LN87@LoadInt_e@7:
  00315	88 4d dd	 mov	 BYTE PTR __k$[ebp+9], cl
  00318	eb 32		 jmp	 SHORT $LN1@LoadInt_e@7
$LN88@LoadInt_e@7:
  0031a	c6 45 dc ed	 mov	 BYTE PTR __k$[ebp+8], -19 ; ffffffedH
  0031e	eb 2c		 jmp	 SHORT $LN1@LoadInt_e@7
$LN89@LoadInt_e@7:
  00320	c6 45 db ea	 mov	 BYTE PTR __k$[ebp+7], -22 ; ffffffeaH
  00324	eb 26		 jmp	 SHORT $LN1@LoadInt_e@7
$LN90@LoadInt_e@7:
  00326	88 5d da	 mov	 BYTE PTR __k$[ebp+6], bl
  00329	eb 21		 jmp	 SHORT $LN1@LoadInt_e@7
$LN91@LoadInt_e@7:
  0032b	88 4d d9	 mov	 BYTE PTR __k$[ebp+5], cl
  0032e	eb 1c		 jmp	 SHORT $LN1@LoadInt_e@7
$LN92@LoadInt_e@7:
  00330	c6 45 d8 ed	 mov	 BYTE PTR __k$[ebp+4], -19 ; ffffffedH
  00334	eb 16		 jmp	 SHORT $LN1@LoadInt_e@7
$LN93@LoadInt_e@7:
  00336	c6 45 d7 ea	 mov	 BYTE PTR __k$[ebp+3], -22 ; ffffffeaH
  0033a	eb 10		 jmp	 SHORT $LN1@LoadInt_e@7
$LN94@LoadInt_e@7:
  0033c	c6 45 d6 eb	 mov	 BYTE PTR __k$[ebp+2], -21 ; ffffffebH
  00340	eb 0a		 jmp	 SHORT $LN1@LoadInt_e@7
$LN95@LoadInt_e@7:
  00342	c6 45 d5 ec	 mov	 BYTE PTR __k$[ebp+1], -20 ; ffffffecH
  00346	eb 04		 jmp	 SHORT $LN1@LoadInt_e@7
$LN96@LoadInt_e@7:
  00348	c6 45 d4 ed	 mov	 BYTE PTR __k$[ebp], -19	; ffffffedH
$LN1@LoadInt_e@7:
  0034c	6a 08		 push	 8
  0034e	8d 45 d4	 lea	 eax, DWORD PTR __k$[ebp]
  00351	c6 45 f4 00	 mov	 BYTE PTR __k$[ebp+32], 0
  00355	5a		 pop	 edx
$LL104@LoadInt_e@7:
  00356	81 30 ed ec eb
	ea		 xor	 DWORD PTR [eax], -353637139 ; eaebecedH
  0035c	83 c0 04	 add	 eax, 4
  0035f	4a		 dec	 edx
  00360	75 f4		 jne	 SHORT $LL104@LoadInt_e@7

; 120  : 		return LoadInt(_k, i);

  00362	ff 75 0c	 push	 DWORD PTR _i$[ebp]
  00365	8d 45 d4	 lea	 eax, DWORD PTR __k$[ebp]
  00368	50		 push	 eax
  00369	8b ce		 mov	 ecx, esi
  0036b	ff 15 00 00 00
	00		 call	 DWORD PTR __imp_?LoadInt@ioINILoader@@QAEHPBDH@Z

; 121  : 	}

  00371	8b 4d fc	 mov	 ecx, DWORD PTR __$ArrayPad$[ebp]
  00374	5e		 pop	 esi
  00375	33 cd		 xor	 ecx, ebp
  00377	5b		 pop	 ebx
  00378	e8 00 00 00 00	 call	 @__security_check_cookie@4
  0037d	c9		 leave
  0037e	c2 08 00	 ret	 8
??$LoadInt_e@$0CB@@ioINILoader@@QAEHAAY0CB@$$CBDH@Z ENDP ; ioINILoader::LoadInt_e<33>
_TEXT	ENDS
PUBLIC	__$ArrayPad$
PUBLIC	??$LoadBool_e@$0BN@@ioINILoader@@QAE_NAAY0BN@$$CBD_N@Z ; ioINILoader::LoadBool_e<29>
; Function compile flags: /Ogsp
;	COMDAT ??$LoadBool_e@$0BN@@ioINILoader@@QAE_NAAY0BN@$$CBD_N@Z
_TEXT	SEGMENT
__k$ = -40						; size = 29
__$ArrayPad$ = -4					; size = 4
_k$ = 8							; size = 4
_b$ = 12						; size = 1
??$LoadBool_e@$0BN@@ioINILoader@@QAE_NAAY0BN@$$CBD_N@Z PROC ; ioINILoader::LoadBool_e<29>, COMDAT
; _this$ = ecx

; 101  : 	{

  00000	55		 push	 ebp
  00001	8b ec		 mov	 ebp, esp
  00003	83 ec 28	 sub	 esp, 40			; 00000028H
  00006	a1 00 00 00 00	 mov	 eax, DWORD PTR ___security_cookie
  0000b	33 c5		 xor	 eax, ebp
  0000d	89 45 fc	 mov	 DWORD PTR __$ArrayPad$[ebp], eax
  00010	8b 45 08	 mov	 eax, DWORD PTR _k$[ebp]

; 102  : 		_ENCSTR(k, _k);

  00013	8a 10		 mov	 dl, BYTE PTR [eax]
  00015	53		 push	 ebx
  00016	56		 push	 esi
  00017	8b f1		 mov	 esi, ecx
  00019	84 d2		 test	 dl, dl
  0001b	0f 84 c3 02 00
	00		 je	 $LN96@LoadBool_e@2
  00021	80 f2 ed	 xor	 dl, -19			; ffffffedH
  00024	88 55 d8	 mov	 BYTE PTR __k$[ebp], dl
  00027	8a 50 01	 mov	 dl, BYTE PTR [eax+1]
  0002a	84 d2		 test	 dl, dl
  0002c	0f 84 ac 02 00
	00		 je	 $LN95@LoadBool_e@2
  00032	b1 ec		 mov	 cl, -20			; ffffffecH
  00034	32 d1		 xor	 dl, cl
  00036	88 55 d9	 mov	 BYTE PTR __k$[ebp+1], dl
  00039	8a 50 02	 mov	 dl, BYTE PTR [eax+2]
  0003c	84 d2		 test	 dl, dl
  0003e	0f 84 94 02 00
	00		 je	 $LN94@LoadBool_e@2
  00044	b3 eb		 mov	 bl, -21			; ffffffebH
  00046	32 d3		 xor	 dl, bl
  00048	88 55 da	 mov	 BYTE PTR __k$[ebp+2], dl
  0004b	8a 50 03	 mov	 dl, BYTE PTR [eax+3]
  0004e	84 d2		 test	 dl, dl
  00050	0f 84 7c 02 00
	00		 je	 $LN93@LoadBool_e@2
  00056	80 f2 ea	 xor	 dl, -22			; ffffffeaH
  00059	88 55 db	 mov	 BYTE PTR __k$[ebp+3], dl
  0005c	8a 50 04	 mov	 dl, BYTE PTR [eax+4]
  0005f	84 d2		 test	 dl, dl
  00061	0f 84 65 02 00
	00		 je	 $LN92@LoadBool_e@2
  00067	80 f2 ed	 xor	 dl, -19			; ffffffedH
  0006a	88 55 dc	 mov	 BYTE PTR __k$[ebp+4], dl
  0006d	8a 50 05	 mov	 dl, BYTE PTR [eax+5]
  00070	84 d2		 test	 dl, dl
  00072	0f 84 4f 02 00
	00		 je	 $LN91@LoadBool_e@2
  00078	32 d1		 xor	 dl, cl
  0007a	88 55 dd	 mov	 BYTE PTR __k$[ebp+5], dl
  0007d	8a 50 06	 mov	 dl, BYTE PTR [eax+6]
  00080	84 d2		 test	 dl, dl
  00082	0f 84 3a 02 00
	00		 je	 $LN90@LoadBool_e@2
  00088	32 d3		 xor	 dl, bl
  0008a	88 55 de	 mov	 BYTE PTR __k$[ebp+6], dl
  0008d	8a 50 07	 mov	 dl, BYTE PTR [eax+7]
  00090	84 d2		 test	 dl, dl
  00092	0f 84 24 02 00
	00		 je	 $LN89@LoadBool_e@2
  00098	80 f2 ea	 xor	 dl, -22			; ffffffeaH
  0009b	88 55 df	 mov	 BYTE PTR __k$[ebp+7], dl
  0009e	8a 50 08	 mov	 dl, BYTE PTR [eax+8]
  000a1	84 d2		 test	 dl, dl
  000a3	0f 84 0d 02 00
	00		 je	 $LN88@LoadBool_e@2
  000a9	80 f2 ed	 xor	 dl, -19			; ffffffedH
  000ac	88 55 e0	 mov	 BYTE PTR __k$[ebp+8], dl
  000af	8a 50 09	 mov	 dl, BYTE PTR [eax+9]
  000b2	84 d2		 test	 dl, dl
  000b4	0f 84 f7 01 00
	00		 je	 $LN87@LoadBool_e@2
  000ba	32 d1		 xor	 dl, cl
  000bc	88 55 e1	 mov	 BYTE PTR __k$[ebp+9], dl
  000bf	8a 50 0a	 mov	 dl, BYTE PTR [eax+10]
  000c2	84 d2		 test	 dl, dl
  000c4	0f 84 e2 01 00
	00		 je	 $LN86@LoadBool_e@2
  000ca	32 d3		 xor	 dl, bl
  000cc	88 55 e2	 mov	 BYTE PTR __k$[ebp+10], dl
  000cf	8a 50 0b	 mov	 dl, BYTE PTR [eax+11]
  000d2	84 d2		 test	 dl, dl
  000d4	0f 84 cc 01 00
	00		 je	 $LN85@LoadBool_e@2
  000da	80 f2 ea	 xor	 dl, -22			; ffffffeaH
  000dd	88 55 e3	 mov	 BYTE PTR __k$[ebp+11], dl
  000e0	8a 50 0c	 mov	 dl, BYTE PTR [eax+12]
  000e3	84 d2		 test	 dl, dl
  000e5	0f 84 b5 01 00
	00		 je	 $LN84@LoadBool_e@2
  000eb	80 f2 ed	 xor	 dl, -19			; ffffffedH
  000ee	88 55 e4	 mov	 BYTE PTR __k$[ebp+12], dl
  000f1	8a 50 0d	 mov	 dl, BYTE PTR [eax+13]
  000f4	84 d2		 test	 dl, dl
  000f6	0f 84 9f 01 00
	00		 je	 $LN83@LoadBool_e@2
  000fc	32 d1		 xor	 dl, cl
  000fe	88 55 e5	 mov	 BYTE PTR __k$[ebp+13], dl
  00101	8a 50 0e	 mov	 dl, BYTE PTR [eax+14]
  00104	84 d2		 test	 dl, dl
  00106	0f 84 8a 01 00
	00		 je	 $LN82@LoadBool_e@2
  0010c	32 d3		 xor	 dl, bl
  0010e	88 55 e6	 mov	 BYTE PTR __k$[ebp+14], dl
  00111	8a 50 0f	 mov	 dl, BYTE PTR [eax+15]
  00114	84 d2		 test	 dl, dl
  00116	0f 84 74 01 00
	00		 je	 $LN81@LoadBool_e@2
  0011c	80 f2 ea	 xor	 dl, -22			; ffffffeaH
  0011f	88 55 e7	 mov	 BYTE PTR __k$[ebp+15], dl
  00122	8a 50 10	 mov	 dl, BYTE PTR [eax+16]
  00125	84 d2		 test	 dl, dl
  00127	0f 84 5d 01 00
	00		 je	 $LN80@LoadBool_e@2
  0012d	80 f2 ed	 xor	 dl, -19			; ffffffedH
  00130	88 55 e8	 mov	 BYTE PTR __k$[ebp+16], dl
  00133	8a 50 11	 mov	 dl, BYTE PTR [eax+17]
  00136	84 d2		 test	 dl, dl
  00138	0f 84 47 01 00
	00		 je	 $LN79@LoadBool_e@2
  0013e	32 d1		 xor	 dl, cl
  00140	88 55 e9	 mov	 BYTE PTR __k$[ebp+17], dl
  00143	8a 50 12	 mov	 dl, BYTE PTR [eax+18]
  00146	84 d2		 test	 dl, dl
  00148	0f 84 32 01 00
	00		 je	 $LN78@LoadBool_e@2
  0014e	32 d3		 xor	 dl, bl
  00150	88 55 ea	 mov	 BYTE PTR __k$[ebp+18], dl
  00153	8a 50 13	 mov	 dl, BYTE PTR [eax+19]
  00156	84 d2		 test	 dl, dl
  00158	0f 84 1c 01 00
	00		 je	 $LN77@LoadBool_e@2
  0015e	80 f2 ea	 xor	 dl, -22			; ffffffeaH
  00161	88 55 eb	 mov	 BYTE PTR __k$[ebp+19], dl
  00164	8a 50 14	 mov	 dl, BYTE PTR [eax+20]
  00167	84 d2		 test	 dl, dl
  00169	0f 84 05 01 00
	00		 je	 $LN76@LoadBool_e@2
  0016f	80 f2 ed	 xor	 dl, -19			; ffffffedH
  00172	88 55 ec	 mov	 BYTE PTR __k$[ebp+20], dl
  00175	8a 50 15	 mov	 dl, BYTE PTR [eax+21]
  00178	84 d2		 test	 dl, dl
  0017a	0f 84 ef 00 00
	00		 je	 $LN75@LoadBool_e@2
  00180	32 d1		 xor	 dl, cl
  00182	88 55 ed	 mov	 BYTE PTR __k$[ebp+21], dl
  00185	8a 50 16	 mov	 dl, BYTE PTR [eax+22]
  00188	84 d2		 test	 dl, dl
  0018a	0f 84 da 00 00
	00		 je	 $LN74@LoadBool_e@2
  00190	32 d3		 xor	 dl, bl
  00192	88 55 ee	 mov	 BYTE PTR __k$[ebp+22], dl
  00195	8a 50 17	 mov	 dl, BYTE PTR [eax+23]
  00198	84 d2		 test	 dl, dl
  0019a	0f 84 c4 00 00
	00		 je	 $LN73@LoadBool_e@2
  001a0	80 f2 ea	 xor	 dl, -22			; ffffffeaH
  001a3	88 55 ef	 mov	 BYTE PTR __k$[ebp+23], dl
  001a6	8a 50 18	 mov	 dl, BYTE PTR [eax+24]
  001a9	84 d2		 test	 dl, dl
  001ab	0f 84 aa 00 00
	00		 je	 $LN72@LoadBool_e@2
  001b1	80 f2 ed	 xor	 dl, -19			; ffffffedH
  001b4	88 55 f0	 mov	 BYTE PTR __k$[ebp+24], dl
  001b7	8a 50 19	 mov	 dl, BYTE PTR [eax+25]
  001ba	84 d2		 test	 dl, dl
  001bc	0f 84 91 00 00
	00		 je	 $LN71@LoadBool_e@2
  001c2	32 d1		 xor	 dl, cl
  001c4	88 55 f1	 mov	 BYTE PTR __k$[ebp+25], dl
  001c7	8a 50 1a	 mov	 dl, BYTE PTR [eax+26]
  001ca	84 d2		 test	 dl, dl
  001cc	74 7d		 je	 SHORT $LN70@LoadBool_e@2
  001ce	32 d3		 xor	 dl, bl
  001d0	88 55 f2	 mov	 BYTE PTR __k$[ebp+26], dl
  001d3	8a 50 1b	 mov	 dl, BYTE PTR [eax+27]
  001d6	84 d2		 test	 dl, dl
  001d8	74 68		 je	 SHORT $LN69@LoadBool_e@2
  001da	80 f2 ea	 xor	 dl, -22			; ffffffeaH
  001dd	80 78 1c 00	 cmp	 BYTE PTR [eax+28], 0
  001e1	88 55 f3	 mov	 BYTE PTR __k$[ebp+27], dl
  001e4	0f 84 fe 00 00
	00		 je	 $LN1@LoadBool_e@2
  001ea	8a 50 1d	 mov	 dl, BYTE PTR [eax+29]
  001ed	84 d2		 test	 dl, dl
  001ef	74 49		 je	 SHORT $LN67@LoadBool_e@2
  001f1	32 d1		 xor	 dl, cl
  001f3	88 55 f5	 mov	 BYTE PTR __k$[ebp+29], dl
  001f6	8a 50 1e	 mov	 dl, BYTE PTR [eax+30]
  001f9	84 d2		 test	 dl, dl
  001fb	74 35		 je	 SHORT $LN66@LoadBool_e@2
  001fd	32 d3		 xor	 dl, bl
  001ff	88 55 f6	 mov	 BYTE PTR __k$[ebp+30], dl
  00202	8a 50 1f	 mov	 dl, BYTE PTR [eax+31]
  00205	84 d2		 test	 dl, dl
  00207	74 20		 je	 SHORT $LN65@LoadBool_e@2
  00209	8a 40 20	 mov	 al, BYTE PTR [eax+32]
  0020c	80 f2 ea	 xor	 dl, -22			; ffffffeaH
  0020f	88 55 f7	 mov	 BYTE PTR __k$[ebp+31], dl
  00212	84 c0		 test	 al, al
  00214	74 0a		 je	 SHORT $LN64@LoadBool_e@2
  00216	34 ed		 xor	 al, -19			; ffffffedH
  00218	88 45 f8	 mov	 BYTE PTR __k$[ebp+32], al
  0021b	e9 c8 00 00 00	 jmp	 $LN1@LoadBool_e@2
$LN64@LoadBool_e@2:
  00220	c6 45 f8 ed	 mov	 BYTE PTR __k$[ebp+32], -19 ; ffffffedH
  00224	e9 bf 00 00 00	 jmp	 $LN1@LoadBool_e@2
$LN65@LoadBool_e@2:
  00229	c6 45 f7 ea	 mov	 BYTE PTR __k$[ebp+31], -22 ; ffffffeaH
  0022d	e9 b6 00 00 00	 jmp	 $LN1@LoadBool_e@2
$LN66@LoadBool_e@2:
  00232	88 5d f6	 mov	 BYTE PTR __k$[ebp+30], bl
  00235	e9 ae 00 00 00	 jmp	 $LN1@LoadBool_e@2
$LN67@LoadBool_e@2:
  0023a	88 4d f5	 mov	 BYTE PTR __k$[ebp+29], cl
  0023d	e9 a6 00 00 00	 jmp	 $LN1@LoadBool_e@2
$LN69@LoadBool_e@2:
  00242	c6 45 f3 ea	 mov	 BYTE PTR __k$[ebp+27], -22 ; ffffffeaH
  00246	e9 9d 00 00 00	 jmp	 $LN1@LoadBool_e@2
$LN70@LoadBool_e@2:
  0024b	88 5d f2	 mov	 BYTE PTR __k$[ebp+26], bl
  0024e	e9 95 00 00 00	 jmp	 $LN1@LoadBool_e@2
$LN71@LoadBool_e@2:
  00253	88 4d f1	 mov	 BYTE PTR __k$[ebp+25], cl
  00256	e9 8d 00 00 00	 jmp	 $LN1@LoadBool_e@2
$LN72@LoadBool_e@2:
  0025b	c6 45 f0 ed	 mov	 BYTE PTR __k$[ebp+24], -19 ; ffffffedH
  0025f	e9 84 00 00 00	 jmp	 $LN1@LoadBool_e@2
$LN73@LoadBool_e@2:
  00264	c6 45 ef ea	 mov	 BYTE PTR __k$[ebp+23], -22 ; ffffffeaH
  00268	eb 7e		 jmp	 SHORT $LN1@LoadBool_e@2
$LN74@LoadBool_e@2:
  0026a	88 5d ee	 mov	 BYTE PTR __k$[ebp+22], bl
  0026d	eb 79		 jmp	 SHORT $LN1@LoadBool_e@2
$LN75@LoadBool_e@2:
  0026f	88 4d ed	 mov	 BYTE PTR __k$[ebp+21], cl
  00272	eb 74		 jmp	 SHORT $LN1@LoadBool_e@2
$LN76@LoadBool_e@2:
  00274	c6 45 ec ed	 mov	 BYTE PTR __k$[ebp+20], -19 ; ffffffedH
  00278	eb 6e		 jmp	 SHORT $LN1@LoadBool_e@2
$LN77@LoadBool_e@2:
  0027a	c6 45 eb ea	 mov	 BYTE PTR __k$[ebp+19], -22 ; ffffffeaH
  0027e	eb 68		 jmp	 SHORT $LN1@LoadBool_e@2
$LN78@LoadBool_e@2:
  00280	88 5d ea	 mov	 BYTE PTR __k$[ebp+18], bl
  00283	eb 63		 jmp	 SHORT $LN1@LoadBool_e@2
$LN79@LoadBool_e@2:
  00285	88 4d e9	 mov	 BYTE PTR __k$[ebp+17], cl
  00288	eb 5e		 jmp	 SHORT $LN1@LoadBool_e@2
$LN80@LoadBool_e@2:
  0028a	c6 45 e8 ed	 mov	 BYTE PTR __k$[ebp+16], -19 ; ffffffedH
  0028e	eb 58		 jmp	 SHORT $LN1@LoadBool_e@2
$LN81@LoadBool_e@2:
  00290	c6 45 e7 ea	 mov	 BYTE PTR __k$[ebp+15], -22 ; ffffffeaH
  00294	eb 52		 jmp	 SHORT $LN1@LoadBool_e@2
$LN82@LoadBool_e@2:
  00296	88 5d e6	 mov	 BYTE PTR __k$[ebp+14], bl
  00299	eb 4d		 jmp	 SHORT $LN1@LoadBool_e@2
$LN83@LoadBool_e@2:
  0029b	88 4d e5	 mov	 BYTE PTR __k$[ebp+13], cl
  0029e	eb 48		 jmp	 SHORT $LN1@LoadBool_e@2
$LN84@LoadBool_e@2:
  002a0	c6 45 e4 ed	 mov	 BYTE PTR __k$[ebp+12], -19 ; ffffffedH
  002a4	eb 42		 jmp	 SHORT $LN1@LoadBool_e@2
$LN85@LoadBool_e@2:
  002a6	c6 45 e3 ea	 mov	 BYTE PTR __k$[ebp+11], -22 ; ffffffeaH
  002aa	eb 3c		 jmp	 SHORT $LN1@LoadBool_e@2
$LN86@LoadBool_e@2:
  002ac	88 5d e2	 mov	 BYTE PTR __k$[ebp+10], bl
  002af	eb 37		 jmp	 SHORT $LN1@LoadBool_e@2
$LN87@LoadBool_e@2:
  002b1	88 4d e1	 mov	 BYTE PTR __k$[ebp+9], cl
  002b4	eb 32		 jmp	 SHORT $LN1@LoadBool_e@2
$LN88@LoadBool_e@2:
  002b6	c6 45 e0 ed	 mov	 BYTE PTR __k$[ebp+8], -19 ; ffffffedH
  002ba	eb 2c		 jmp	 SHORT $LN1@LoadBool_e@2
$LN89@LoadBool_e@2:
  002bc	c6 45 df ea	 mov	 BYTE PTR __k$[ebp+7], -22 ; ffffffeaH
  002c0	eb 26		 jmp	 SHORT $LN1@LoadBool_e@2
$LN90@LoadBool_e@2:
  002c2	88 5d de	 mov	 BYTE PTR __k$[ebp+6], bl
  002c5	eb 21		 jmp	 SHORT $LN1@LoadBool_e@2
$LN91@LoadBool_e@2:
  002c7	88 4d dd	 mov	 BYTE PTR __k$[ebp+5], cl
  002ca	eb 1c		 jmp	 SHORT $LN1@LoadBool_e@2
$LN92@LoadBool_e@2:
  002cc	c6 45 dc ed	 mov	 BYTE PTR __k$[ebp+4], -19 ; ffffffedH
  002d0	eb 16		 jmp	 SHORT $LN1@LoadBool_e@2
$LN93@LoadBool_e@2:
  002d2	c6 45 db ea	 mov	 BYTE PTR __k$[ebp+3], -22 ; ffffffeaH
  002d6	eb 10		 jmp	 SHORT $LN1@LoadBool_e@2
$LN94@LoadBool_e@2:
  002d8	c6 45 da eb	 mov	 BYTE PTR __k$[ebp+2], -21 ; ffffffebH
  002dc	eb 0a		 jmp	 SHORT $LN1@LoadBool_e@2
$LN95@LoadBool_e@2:
  002de	c6 45 d9 ec	 mov	 BYTE PTR __k$[ebp+1], -20 ; ffffffecH
  002e2	eb 04		 jmp	 SHORT $LN1@LoadBool_e@2
$LN96@LoadBool_e@2:
  002e4	c6 45 d8 ed	 mov	 BYTE PTR __k$[ebp], -19	; ffffffedH
$LN1@LoadBool_e@2:
  002e8	6a 07		 push	 7
  002ea	8d 45 d8	 lea	 eax, DWORD PTR __k$[ebp]
  002ed	c6 45 f4 00	 mov	 BYTE PTR __k$[ebp+28], 0
  002f1	5a		 pop	 edx
$LL104@LoadBool_e@2:
  002f2	81 30 ed ec eb
	ea		 xor	 DWORD PTR [eax], -353637139 ; eaebecedH
  002f8	83 c0 04	 add	 eax, 4
  002fb	4a		 dec	 edx
  002fc	75 f4		 jne	 SHORT $LL104@LoadBool_e@2

; 103  : 		return LoadBool(_k, b);

  002fe	ff 75 0c	 push	 DWORD PTR _b$[ebp]
  00301	8d 45 d8	 lea	 eax, DWORD PTR __k$[ebp]
  00304	50		 push	 eax
  00305	8b ce		 mov	 ecx, esi
  00307	ff 15 00 00 00
	00		 call	 DWORD PTR __imp_?LoadBool@ioINILoader@@QAE_NPBD_N@Z

; 104  : 	}

  0030d	8b 4d fc	 mov	 ecx, DWORD PTR __$ArrayPad$[ebp]
  00310	5e		 pop	 esi
  00311	33 cd		 xor	 ecx, ebp
  00313	5b		 pop	 ebx
  00314	e8 00 00 00 00	 call	 @__security_check_cookie@4
  00319	c9		 leave
  0031a	c2 08 00	 ret	 8
??$LoadBool_e@$0BN@@ioINILoader@@QAE_NAAY0BN@$$CBD_N@Z ENDP ; ioINILoader::LoadBool_e<29>
_TEXT	ENDS
PUBLIC	__$ArrayPad$
PUBLIC	??$LoadFloat_e@$0BD@@ioINILoader@@QAEMAAY0BD@$$CBDM@Z ; ioINILoader::LoadFloat_e<19>
; Function compile flags: /Ogsp
;	COMDAT ??$LoadFloat_e@$0BD@@ioINILoader@@QAEMAAY0BD@$$CBDM@Z
_TEXT	SEGMENT
__k$ = -28						; size = 19
__$ArrayPad$ = -4					; size = 4
_k$ = 8							; size = 4
_f$ = 12						; size = 4
??$LoadFloat_e@$0BD@@ioINILoader@@QAEMAAY0BD@$$CBDM@Z PROC ; ioINILoader::LoadFloat_e<19>, COMDAT
; _this$ = ecx

; 135  : 	{

  00000	55		 push	 ebp
  00001	8b ec		 mov	 ebp, esp
  00003	83 ec 1c	 sub	 esp, 28			; 0000001cH
  00006	a1 00 00 00 00	 mov	 eax, DWORD PTR ___security_cookie
  0000b	33 c5		 xor	 eax, ebp
  0000d	89 45 fc	 mov	 DWORD PTR __$ArrayPad$[ebp], eax
  00010	8b 45 08	 mov	 eax, DWORD PTR _k$[ebp]

; 136  : 		_ENCSTR(k, _k);

  00013	8a 10		 mov	 dl, BYTE PTR [eax]
  00015	56		 push	 esi
  00016	8b f1		 mov	 esi, ecx
  00018	84 d2		 test	 dl, dl
  0001a	0f 84 cf 01 00
	00		 je	 $LN96@LoadFloat_@3
  00020	80 f2 ed	 xor	 dl, -19			; ffffffedH
  00023	88 55 e4	 mov	 BYTE PTR __k$[ebp], dl
  00026	8a 50 01	 mov	 dl, BYTE PTR [eax+1]
  00029	84 d2		 test	 dl, dl
  0002b	0f 84 b8 01 00
	00		 je	 $LN95@LoadFloat_@3
  00031	b1 ec		 mov	 cl, -20			; ffffffecH
  00033	32 d1		 xor	 dl, cl
  00035	88 55 e5	 mov	 BYTE PTR __k$[ebp+1], dl
  00038	8a 50 02	 mov	 dl, BYTE PTR [eax+2]
  0003b	84 d2		 test	 dl, dl
  0003d	0f 84 a0 01 00
	00		 je	 $LN94@LoadFloat_@3
  00043	80 f2 eb	 xor	 dl, -21			; ffffffebH
  00046	88 55 e6	 mov	 BYTE PTR __k$[ebp+2], dl
  00049	8a 50 03	 mov	 dl, BYTE PTR [eax+3]
  0004c	84 d2		 test	 dl, dl
  0004e	0f 84 89 01 00
	00		 je	 $LN93@LoadFloat_@3
  00054	80 f2 ea	 xor	 dl, -22			; ffffffeaH
  00057	88 55 e7	 mov	 BYTE PTR __k$[ebp+3], dl
  0005a	8a 50 04	 mov	 dl, BYTE PTR [eax+4]
  0005d	84 d2		 test	 dl, dl
  0005f	0f 84 72 01 00
	00		 je	 $LN92@LoadFloat_@3
  00065	80 f2 ed	 xor	 dl, -19			; ffffffedH
  00068	88 55 e8	 mov	 BYTE PTR __k$[ebp+4], dl
  0006b	8a 50 05	 mov	 dl, BYTE PTR [eax+5]
  0006e	84 d2		 test	 dl, dl
  00070	0f 84 5c 01 00
	00		 je	 $LN91@LoadFloat_@3
  00076	32 d1		 xor	 dl, cl
  00078	88 55 e9	 mov	 BYTE PTR __k$[ebp+5], dl
  0007b	8a 50 06	 mov	 dl, BYTE PTR [eax+6]
  0007e	84 d2		 test	 dl, dl
  00080	0f 84 46 01 00
	00		 je	 $LN90@LoadFloat_@3
  00086	80 f2 eb	 xor	 dl, -21			; ffffffebH
  00089	88 55 ea	 mov	 BYTE PTR __k$[ebp+6], dl
  0008c	8a 50 07	 mov	 dl, BYTE PTR [eax+7]
  0008f	84 d2		 test	 dl, dl
  00091	0f 84 2f 01 00
	00		 je	 $LN89@LoadFloat_@3
  00097	80 f2 ea	 xor	 dl, -22			; ffffffeaH
  0009a	88 55 eb	 mov	 BYTE PTR __k$[ebp+7], dl
  0009d	8a 50 08	 mov	 dl, BYTE PTR [eax+8]
  000a0	84 d2		 test	 dl, dl
  000a2	0f 84 18 01 00
	00		 je	 $LN88@LoadFloat_@3
  000a8	80 f2 ed	 xor	 dl, -19			; ffffffedH
  000ab	88 55 ec	 mov	 BYTE PTR __k$[ebp+8], dl
  000ae	8a 50 09	 mov	 dl, BYTE PTR [eax+9]
  000b1	84 d2		 test	 dl, dl
  000b3	0f 84 02 01 00
	00		 je	 $LN87@LoadFloat_@3
  000b9	32 d1		 xor	 dl, cl
  000bb	88 55 ed	 mov	 BYTE PTR __k$[ebp+9], dl
  000be	8a 50 0a	 mov	 dl, BYTE PTR [eax+10]
  000c1	84 d2		 test	 dl, dl
  000c3	0f 84 ec 00 00
	00		 je	 $LN86@LoadFloat_@3
  000c9	80 f2 eb	 xor	 dl, -21			; ffffffebH
  000cc	88 55 ee	 mov	 BYTE PTR __k$[ebp+10], dl
  000cf	8a 50 0b	 mov	 dl, BYTE PTR [eax+11]
  000d2	84 d2		 test	 dl, dl
  000d4	0f 84 d5 00 00
	00		 je	 $LN85@LoadFloat_@3
  000da	80 f2 ea	 xor	 dl, -22			; ffffffeaH
  000dd	88 55 ef	 mov	 BYTE PTR __k$[ebp+11], dl
  000e0	8a 50 0c	 mov	 dl, BYTE PTR [eax+12]
  000e3	84 d2		 test	 dl, dl
  000e5	0f 84 be 00 00
	00		 je	 $LN84@LoadFloat_@3
  000eb	80 f2 ed	 xor	 dl, -19			; ffffffedH
  000ee	88 55 f0	 mov	 BYTE PTR __k$[ebp+12], dl
  000f1	8a 50 0d	 mov	 dl, BYTE PTR [eax+13]
  000f4	84 d2		 test	 dl, dl
  000f6	0f 84 a8 00 00
	00		 je	 $LN83@LoadFloat_@3
  000fc	32 d1		 xor	 dl, cl
  000fe	88 55 f1	 mov	 BYTE PTR __k$[ebp+13], dl
  00101	8a 50 0e	 mov	 dl, BYTE PTR [eax+14]
  00104	84 d2		 test	 dl, dl
  00106	0f 84 92 00 00
	00		 je	 $LN82@LoadFloat_@3
  0010c	80 f2 eb	 xor	 dl, -21			; ffffffebH
  0010f	88 55 f2	 mov	 BYTE PTR __k$[ebp+14], dl
  00112	8a 50 0f	 mov	 dl, BYTE PTR [eax+15]
  00115	84 d2		 test	 dl, dl
  00117	74 7f		 je	 SHORT $LN81@LoadFloat_@3
  00119	80 f2 ea	 xor	 dl, -22			; ffffffeaH
  0011c	88 55 f3	 mov	 BYTE PTR __k$[ebp+15], dl
  0011f	8a 50 10	 mov	 dl, BYTE PTR [eax+16]
  00122	84 d2		 test	 dl, dl
  00124	74 6c		 je	 SHORT $LN80@LoadFloat_@3
  00126	80 f2 ed	 xor	 dl, -19			; ffffffedH
  00129	88 55 f4	 mov	 BYTE PTR __k$[ebp+16], dl
  0012c	8a 50 11	 mov	 dl, BYTE PTR [eax+17]
  0012f	84 d2		 test	 dl, dl
  00131	74 5a		 je	 SHORT $LN79@LoadFloat_@3
  00133	32 d1		 xor	 dl, cl
  00135	80 78 12 00	 cmp	 BYTE PTR [eax+18], 0
  00139	88 55 f5	 mov	 BYTE PTR __k$[ebp+17], dl
  0013c	0f 84 b1 00 00
	00		 je	 $LN1@LoadFloat_@3
  00142	8a 50 13	 mov	 dl, BYTE PTR [eax+19]
  00145	84 d2		 test	 dl, dl
  00147	74 3e		 je	 SHORT $LN77@LoadFloat_@3
  00149	80 f2 ea	 xor	 dl, -22			; ffffffeaH
  0014c	88 55 f7	 mov	 BYTE PTR __k$[ebp+19], dl
  0014f	8a 50 14	 mov	 dl, BYTE PTR [eax+20]
  00152	84 d2		 test	 dl, dl
  00154	74 2b		 je	 SHORT $LN76@LoadFloat_@3
  00156	80 f2 ed	 xor	 dl, -19			; ffffffedH
  00159	88 55 f8	 mov	 BYTE PTR __k$[ebp+20], dl
  0015c	8a 50 15	 mov	 dl, BYTE PTR [eax+21]
  0015f	84 d2		 test	 dl, dl
  00161	74 19		 je	 SHORT $LN75@LoadFloat_@3
  00163	8a 40 16	 mov	 al, BYTE PTR [eax+22]
  00166	32 d1		 xor	 dl, cl
  00168	88 55 f9	 mov	 BYTE PTR __k$[ebp+21], dl
  0016b	84 c0		 test	 al, al
  0016d	74 07		 je	 SHORT $LN74@LoadFloat_@3
  0016f	34 eb		 xor	 al, -21			; ffffffebH
  00171	88 45 fa	 mov	 BYTE PTR __k$[ebp+22], al
  00174	eb 7d		 jmp	 SHORT $LN1@LoadFloat_@3
$LN74@LoadFloat_@3:
  00176	c6 45 fa eb	 mov	 BYTE PTR __k$[ebp+22], -21 ; ffffffebH
  0017a	eb 77		 jmp	 SHORT $LN1@LoadFloat_@3
$LN75@LoadFloat_@3:
  0017c	88 4d f9	 mov	 BYTE PTR __k$[ebp+21], cl
  0017f	eb 72		 jmp	 SHORT $LN1@LoadFloat_@3
$LN76@LoadFloat_@3:
  00181	c6 45 f8 ed	 mov	 BYTE PTR __k$[ebp+20], -19 ; ffffffedH
  00185	eb 6c		 jmp	 SHORT $LN1@LoadFloat_@3
$LN77@LoadFloat_@3:
  00187	c6 45 f7 ea	 mov	 BYTE PTR __k$[ebp+19], -22 ; ffffffeaH
  0018b	eb 66		 jmp	 SHORT $LN1@LoadFloat_@3
$LN79@LoadFloat_@3:
  0018d	88 4d f5	 mov	 BYTE PTR __k$[ebp+17], cl
  00190	eb 61		 jmp	 SHORT $LN1@LoadFloat_@3
$LN80@LoadFloat_@3:
  00192	c6 45 f4 ed	 mov	 BYTE PTR __k$[ebp+16], -19 ; ffffffedH
  00196	eb 5b		 jmp	 SHORT $LN1@LoadFloat_@3
$LN81@LoadFloat_@3:
  00198	c6 45 f3 ea	 mov	 BYTE PTR __k$[ebp+15], -22 ; ffffffeaH
  0019c	eb 55		 jmp	 SHORT $LN1@LoadFloat_@3
$LN82@LoadFloat_@3:
  0019e	c6 45 f2 eb	 mov	 BYTE PTR __k$[ebp+14], -21 ; ffffffebH
  001a2	eb 4f		 jmp	 SHORT $LN1@LoadFloat_@3
$LN83@LoadFloat_@3:
  001a4	88 4d f1	 mov	 BYTE PTR __k$[ebp+13], cl
  001a7	eb 4a		 jmp	 SHORT $LN1@LoadFloat_@3
$LN84@LoadFloat_@3:
  001a9	c6 45 f0 ed	 mov	 BYTE PTR __k$[ebp+12], -19 ; ffffffedH
  001ad	eb 44		 jmp	 SHORT $LN1@LoadFloat_@3
$LN85@LoadFloat_@3:
  001af	c6 45 ef ea	 mov	 BYTE PTR __k$[ebp+11], -22 ; ffffffeaH
  001b3	eb 3e		 jmp	 SHORT $LN1@LoadFloat_@3
$LN86@LoadFloat_@3:
  001b5	c6 45 ee eb	 mov	 BYTE PTR __k$[ebp+10], -21 ; ffffffebH
  001b9	eb 38		 jmp	 SHORT $LN1@LoadFloat_@3
$LN87@LoadFloat_@3:
  001bb	88 4d ed	 mov	 BYTE PTR __k$[ebp+9], cl
  001be	eb 33		 jmp	 SHORT $LN1@LoadFloat_@3
$LN88@LoadFloat_@3:
  001c0	c6 45 ec ed	 mov	 BYTE PTR __k$[ebp+8], -19 ; ffffffedH
  001c4	eb 2d		 jmp	 SHORT $LN1@LoadFloat_@3
$LN89@LoadFloat_@3:
  001c6	c6 45 eb ea	 mov	 BYTE PTR __k$[ebp+7], -22 ; ffffffeaH
  001ca	eb 27		 jmp	 SHORT $LN1@LoadFloat_@3
$LN90@LoadFloat_@3:
  001cc	c6 45 ea eb	 mov	 BYTE PTR __k$[ebp+6], -21 ; ffffffebH
  001d0	eb 21		 jmp	 SHORT $LN1@LoadFloat_@3
$LN91@LoadFloat_@3:
  001d2	88 4d e9	 mov	 BYTE PTR __k$[ebp+5], cl
  001d5	eb 1c		 jmp	 SHORT $LN1@LoadFloat_@3
$LN92@LoadFloat_@3:
  001d7	c6 45 e8 ed	 mov	 BYTE PTR __k$[ebp+4], -19 ; ffffffedH
  001db	eb 16		 jmp	 SHORT $LN1@LoadFloat_@3
$LN93@LoadFloat_@3:
  001dd	c6 45 e7 ea	 mov	 BYTE PTR __k$[ebp+3], -22 ; ffffffeaH
  001e1	eb 10		 jmp	 SHORT $LN1@LoadFloat_@3
$LN94@LoadFloat_@3:
  001e3	c6 45 e6 eb	 mov	 BYTE PTR __k$[ebp+2], -21 ; ffffffebH
  001e7	eb 0a		 jmp	 SHORT $LN1@LoadFloat_@3
$LN95@LoadFloat_@3:
  001e9	c6 45 e5 ec	 mov	 BYTE PTR __k$[ebp+1], -20 ; ffffffecH
  001ed	eb 04		 jmp	 SHORT $LN1@LoadFloat_@3
$LN96@LoadFloat_@3:
  001ef	c6 45 e4 ed	 mov	 BYTE PTR __k$[ebp], -19	; ffffffedH
$LN1@LoadFloat_@3:
  001f3	6a 04		 push	 4
  001f5	8d 45 e4	 lea	 eax, DWORD PTR __k$[ebp]
  001f8	c6 45 f6 00	 mov	 BYTE PTR __k$[ebp+18], 0
  001fc	5a		 pop	 edx
$LL104@LoadFloat_@3:
  001fd	81 30 ed ec eb
	ea		 xor	 DWORD PTR [eax], -353637139 ; eaebecedH
  00203	83 c0 04	 add	 eax, 4
  00206	4a		 dec	 edx
  00207	75 f4		 jne	 SHORT $LL104@LoadFloat_@3
  00209	6a 10		 push	 16			; 00000010H
  0020b	58		 pop	 eax
$LL101@LoadFloat_@3:
  0020c	8b c8		 mov	 ecx, eax
  0020e	81 e1 03 00 00
	80		 and	 ecx, -2147483645	; 80000003H
  00214	79 05		 jns	 SHORT $LN111@LoadFloat_@3
  00216	49		 dec	 ecx
  00217	83 c9 fc	 or	 ecx, -4			; fffffffcH
  0021a	41		 inc	 ecx
$LN111@LoadFloat_@3:
  0021b	b2 ed		 mov	 dl, -19			; ffffffedH
  0021d	2a d1		 sub	 dl, cl
  0021f	30 54 05 e4	 xor	 BYTE PTR __k$[ebp+eax], dl
  00223	40		 inc	 eax
  00224	83 f8 12	 cmp	 eax, 18			; 00000012H
  00227	7c e3		 jl	 SHORT $LL101@LoadFloat_@3

; 137  : 		return LoadFloat(_k, f);

  00229	f3 0f 10 45 0c	 movss	 xmm0, DWORD PTR _f$[ebp]
  0022e	51		 push	 ecx
  0022f	8d 45 e4	 lea	 eax, DWORD PTR __k$[ebp]
  00232	f3 0f 11 04 24	 movss	 DWORD PTR [esp], xmm0
  00237	50		 push	 eax
  00238	8b ce		 mov	 ecx, esi
  0023a	ff 15 00 00 00
	00		 call	 DWORD PTR __imp_?LoadFloat@ioINILoader@@QAEMPBDM@Z

; 138  : 	}

  00240	8b 4d fc	 mov	 ecx, DWORD PTR __$ArrayPad$[ebp]
  00243	33 cd		 xor	 ecx, ebp
  00245	5e		 pop	 esi
  00246	e8 00 00 00 00	 call	 @__security_check_cookie@4
  0024b	c9		 leave
  0024c	c2 08 00	 ret	 8
??$LoadFloat_e@$0BD@@ioINILoader@@QAEMAAY0BD@$$CBDM@Z ENDP ; ioINILoader::LoadFloat_e<19>
_TEXT	ENDS
PUBLIC	__$ArrayPad$
PUBLIC	??$LoadInt_e@$0BD@@ioINILoader@@QAEHAAY0BD@$$CBDH@Z ; ioINILoader::LoadInt_e<19>
; Function compile flags: /Ogsp
;	COMDAT ??$LoadInt_e@$0BD@@ioINILoader@@QAEHAAY0BD@$$CBDH@Z
_TEXT	SEGMENT
__k$ = -28						; size = 19
__$ArrayPad$ = -4					; size = 4
_k$ = 8							; size = 4
_i$ = 12						; size = 4
??$LoadInt_e@$0BD@@ioINILoader@@QAEHAAY0BD@$$CBDH@Z PROC ; ioINILoader::LoadInt_e<19>, COMDAT
; _this$ = ecx

; 118  : 	{

  00000	55		 push	 ebp
  00001	8b ec		 mov	 ebp, esp
  00003	83 ec 1c	 sub	 esp, 28			; 0000001cH
  00006	a1 00 00 00 00	 mov	 eax, DWORD PTR ___security_cookie
  0000b	33 c5		 xor	 eax, ebp
  0000d	89 45 fc	 mov	 DWORD PTR __$ArrayPad$[ebp], eax
  00010	8b 45 08	 mov	 eax, DWORD PTR _k$[ebp]

; 119  : 		_ENCSTR(k, _k);

  00013	8a 10		 mov	 dl, BYTE PTR [eax]
  00015	56		 push	 esi
  00016	8b f1		 mov	 esi, ecx
  00018	84 d2		 test	 dl, dl
  0001a	0f 84 cf 01 00
	00		 je	 $LN96@LoadInt_e@8
  00020	80 f2 ed	 xor	 dl, -19			; ffffffedH
  00023	88 55 e4	 mov	 BYTE PTR __k$[ebp], dl
  00026	8a 50 01	 mov	 dl, BYTE PTR [eax+1]
  00029	84 d2		 test	 dl, dl
  0002b	0f 84 b8 01 00
	00		 je	 $LN95@LoadInt_e@8
  00031	b1 ec		 mov	 cl, -20			; ffffffecH
  00033	32 d1		 xor	 dl, cl
  00035	88 55 e5	 mov	 BYTE PTR __k$[ebp+1], dl
  00038	8a 50 02	 mov	 dl, BYTE PTR [eax+2]
  0003b	84 d2		 test	 dl, dl
  0003d	0f 84 a0 01 00
	00		 je	 $LN94@LoadInt_e@8
  00043	80 f2 eb	 xor	 dl, -21			; ffffffebH
  00046	88 55 e6	 mov	 BYTE PTR __k$[ebp+2], dl
  00049	8a 50 03	 mov	 dl, BYTE PTR [eax+3]
  0004c	84 d2		 test	 dl, dl
  0004e	0f 84 89 01 00
	00		 je	 $LN93@LoadInt_e@8
  00054	80 f2 ea	 xor	 dl, -22			; ffffffeaH
  00057	88 55 e7	 mov	 BYTE PTR __k$[ebp+3], dl
  0005a	8a 50 04	 mov	 dl, BYTE PTR [eax+4]
  0005d	84 d2		 test	 dl, dl
  0005f	0f 84 72 01 00
	00		 je	 $LN92@LoadInt_e@8
  00065	80 f2 ed	 xor	 dl, -19			; ffffffedH
  00068	88 55 e8	 mov	 BYTE PTR __k$[ebp+4], dl
  0006b	8a 50 05	 mov	 dl, BYTE PTR [eax+5]
  0006e	84 d2		 test	 dl, dl
  00070	0f 84 5c 01 00
	00		 je	 $LN91@LoadInt_e@8
  00076	32 d1		 xor	 dl, cl
  00078	88 55 e9	 mov	 BYTE PTR __k$[ebp+5], dl
  0007b	8a 50 06	 mov	 dl, BYTE PTR [eax+6]
  0007e	84 d2		 test	 dl, dl
  00080	0f 84 46 01 00
	00		 je	 $LN90@LoadInt_e@8
  00086	80 f2 eb	 xor	 dl, -21			; ffffffebH
  00089	88 55 ea	 mov	 BYTE PTR __k$[ebp+6], dl
  0008c	8a 50 07	 mov	 dl, BYTE PTR [eax+7]
  0008f	84 d2		 test	 dl, dl
  00091	0f 84 2f 01 00
	00		 je	 $LN89@LoadInt_e@8
  00097	80 f2 ea	 xor	 dl, -22			; ffffffeaH
  0009a	88 55 eb	 mov	 BYTE PTR __k$[ebp+7], dl
  0009d	8a 50 08	 mov	 dl, BYTE PTR [eax+8]
  000a0	84 d2		 test	 dl, dl
  000a2	0f 84 18 01 00
	00		 je	 $LN88@LoadInt_e@8
  000a8	80 f2 ed	 xor	 dl, -19			; ffffffedH
  000ab	88 55 ec	 mov	 BYTE PTR __k$[ebp+8], dl
  000ae	8a 50 09	 mov	 dl, BYTE PTR [eax+9]
  000b1	84 d2		 test	 dl, dl
  000b3	0f 84 02 01 00
	00		 je	 $LN87@LoadInt_e@8
  000b9	32 d1		 xor	 dl, cl
  000bb	88 55 ed	 mov	 BYTE PTR __k$[ebp+9], dl
  000be	8a 50 0a	 mov	 dl, BYTE PTR [eax+10]
  000c1	84 d2		 test	 dl, dl
  000c3	0f 84 ec 00 00
	00		 je	 $LN86@LoadInt_e@8
  000c9	80 f2 eb	 xor	 dl, -21			; ffffffebH
  000cc	88 55 ee	 mov	 BYTE PTR __k$[ebp+10], dl
  000cf	8a 50 0b	 mov	 dl, BYTE PTR [eax+11]
  000d2	84 d2		 test	 dl, dl
  000d4	0f 84 d5 00 00
	00		 je	 $LN85@LoadInt_e@8
  000da	80 f2 ea	 xor	 dl, -22			; ffffffeaH
  000dd	88 55 ef	 mov	 BYTE PTR __k$[ebp+11], dl
  000e0	8a 50 0c	 mov	 dl, BYTE PTR [eax+12]
  000e3	84 d2		 test	 dl, dl
  000e5	0f 84 be 00 00
	00		 je	 $LN84@LoadInt_e@8
  000eb	80 f2 ed	 xor	 dl, -19			; ffffffedH
  000ee	88 55 f0	 mov	 BYTE PTR __k$[ebp+12], dl
  000f1	8a 50 0d	 mov	 dl, BYTE PTR [eax+13]
  000f4	84 d2		 test	 dl, dl
  000f6	0f 84 a8 00 00
	00		 je	 $LN83@LoadInt_e@8
  000fc	32 d1		 xor	 dl, cl
  000fe	88 55 f1	 mov	 BYTE PTR __k$[ebp+13], dl
  00101	8a 50 0e	 mov	 dl, BYTE PTR [eax+14]
  00104	84 d2		 test	 dl, dl
  00106	0f 84 92 00 00
	00		 je	 $LN82@LoadInt_e@8
  0010c	80 f2 eb	 xor	 dl, -21			; ffffffebH
  0010f	88 55 f2	 mov	 BYTE PTR __k$[ebp+14], dl
  00112	8a 50 0f	 mov	 dl, BYTE PTR [eax+15]
  00115	84 d2		 test	 dl, dl
  00117	74 7f		 je	 SHORT $LN81@LoadInt_e@8
  00119	80 f2 ea	 xor	 dl, -22			; ffffffeaH
  0011c	88 55 f3	 mov	 BYTE PTR __k$[ebp+15], dl
  0011f	8a 50 10	 mov	 dl, BYTE PTR [eax+16]
  00122	84 d2		 test	 dl, dl
  00124	74 6c		 je	 SHORT $LN80@LoadInt_e@8
  00126	80 f2 ed	 xor	 dl, -19			; ffffffedH
  00129	88 55 f4	 mov	 BYTE PTR __k$[ebp+16], dl
  0012c	8a 50 11	 mov	 dl, BYTE PTR [eax+17]
  0012f	84 d2		 test	 dl, dl
  00131	74 5a		 je	 SHORT $LN79@LoadInt_e@8
  00133	32 d1		 xor	 dl, cl
  00135	80 78 12 00	 cmp	 BYTE PTR [eax+18], 0
  00139	88 55 f5	 mov	 BYTE PTR __k$[ebp+17], dl
  0013c	0f 84 b1 00 00
	00		 je	 $LN1@LoadInt_e@8
  00142	8a 50 13	 mov	 dl, BYTE PTR [eax+19]
  00145	84 d2		 test	 dl, dl
  00147	74 3e		 je	 SHORT $LN77@LoadInt_e@8
  00149	80 f2 ea	 xor	 dl, -22			; ffffffeaH
  0014c	88 55 f7	 mov	 BYTE PTR __k$[ebp+19], dl
  0014f	8a 50 14	 mov	 dl, BYTE PTR [eax+20]
  00152	84 d2		 test	 dl, dl
  00154	74 2b		 je	 SHORT $LN76@LoadInt_e@8
  00156	80 f2 ed	 xor	 dl, -19			; ffffffedH
  00159	88 55 f8	 mov	 BYTE PTR __k$[ebp+20], dl
  0015c	8a 50 15	 mov	 dl, BYTE PTR [eax+21]
  0015f	84 d2		 test	 dl, dl
  00161	74 19		 je	 SHORT $LN75@LoadInt_e@8
  00163	8a 40 16	 mov	 al, BYTE PTR [eax+22]
  00166	32 d1		 xor	 dl, cl
  00168	88 55 f9	 mov	 BYTE PTR __k$[ebp+21], dl
  0016b	84 c0		 test	 al, al
  0016d	74 07		 je	 SHORT $LN74@LoadInt_e@8
  0016f	34 eb		 xor	 al, -21			; ffffffebH
  00171	88 45 fa	 mov	 BYTE PTR __k$[ebp+22], al
  00174	eb 7d		 jmp	 SHORT $LN1@LoadInt_e@8
$LN74@LoadInt_e@8:
  00176	c6 45 fa eb	 mov	 BYTE PTR __k$[ebp+22], -21 ; ffffffebH
  0017a	eb 77		 jmp	 SHORT $LN1@LoadInt_e@8
$LN75@LoadInt_e@8:
  0017c	88 4d f9	 mov	 BYTE PTR __k$[ebp+21], cl
  0017f	eb 72		 jmp	 SHORT $LN1@LoadInt_e@8
$LN76@LoadInt_e@8:
  00181	c6 45 f8 ed	 mov	 BYTE PTR __k$[ebp+20], -19 ; ffffffedH
  00185	eb 6c		 jmp	 SHORT $LN1@LoadInt_e@8
$LN77@LoadInt_e@8:
  00187	c6 45 f7 ea	 mov	 BYTE PTR __k$[ebp+19], -22 ; ffffffeaH
  0018b	eb 66		 jmp	 SHORT $LN1@LoadInt_e@8
$LN79@LoadInt_e@8:
  0018d	88 4d f5	 mov	 BYTE PTR __k$[ebp+17], cl
  00190	eb 61		 jmp	 SHORT $LN1@LoadInt_e@8
$LN80@LoadInt_e@8:
  00192	c6 45 f4 ed	 mov	 BYTE PTR __k$[ebp+16], -19 ; ffffffedH
  00196	eb 5b		 jmp	 SHORT $LN1@LoadInt_e@8
$LN81@LoadInt_e@8:
  00198	c6 45 f3 ea	 mov	 BYTE PTR __k$[ebp+15], -22 ; ffffffeaH
  0019c	eb 55		 jmp	 SHORT $LN1@LoadInt_e@8
$LN82@LoadInt_e@8:
  0019e	c6 45 f2 eb	 mov	 BYTE PTR __k$[ebp+14], -21 ; ffffffebH
  001a2	eb 4f		 jmp	 SHORT $LN1@LoadInt_e@8
$LN83@LoadInt_e@8:
  001a4	88 4d f1	 mov	 BYTE PTR __k$[ebp+13], cl
  001a7	eb 4a		 jmp	 SHORT $LN1@LoadInt_e@8
$LN84@LoadInt_e@8:
  001a9	c6 45 f0 ed	 mov	 BYTE PTR __k$[ebp+12], -19 ; ffffffedH
  001ad	eb 44		 jmp	 SHORT $LN1@LoadInt_e@8
$LN85@LoadInt_e@8:
  001af	c6 45 ef ea	 mov	 BYTE PTR __k$[ebp+11], -22 ; ffffffeaH
  001b3	eb 3e		 jmp	 SHORT $LN1@LoadInt_e@8
$LN86@LoadInt_e@8:
  001b5	c6 45 ee eb	 mov	 BYTE PTR __k$[ebp+10], -21 ; ffffffebH
  001b9	eb 38		 jmp	 SHORT $LN1@LoadInt_e@8
$LN87@LoadInt_e@8:
  001bb	88 4d ed	 mov	 BYTE PTR __k$[ebp+9], cl
  001be	eb 33		 jmp	 SHORT $LN1@LoadInt_e@8
$LN88@LoadInt_e@8:
  001c0	c6 45 ec ed	 mov	 BYTE PTR __k$[ebp+8], -19 ; ffffffedH
  001c4	eb 2d		 jmp	 SHORT $LN1@LoadInt_e@8
$LN89@LoadInt_e@8:
  001c6	c6 45 eb ea	 mov	 BYTE PTR __k$[ebp+7], -22 ; ffffffeaH
  001ca	eb 27		 jmp	 SHORT $LN1@LoadInt_e@8
$LN90@LoadInt_e@8:
  001cc	c6 45 ea eb	 mov	 BYTE PTR __k$[ebp+6], -21 ; ffffffebH
  001d0	eb 21		 jmp	 SHORT $LN1@LoadInt_e@8
$LN91@LoadInt_e@8:
  001d2	88 4d e9	 mov	 BYTE PTR __k$[ebp+5], cl
  001d5	eb 1c		 jmp	 SHORT $LN1@LoadInt_e@8
$LN92@LoadInt_e@8:
  001d7	c6 45 e8 ed	 mov	 BYTE PTR __k$[ebp+4], -19 ; ffffffedH
  001db	eb 16		 jmp	 SHORT $LN1@LoadInt_e@8
$LN93@LoadInt_e@8:
  001dd	c6 45 e7 ea	 mov	 BYTE PTR __k$[ebp+3], -22 ; ffffffeaH
  001e1	eb 10		 jmp	 SHORT $LN1@LoadInt_e@8
$LN94@LoadInt_e@8:
  001e3	c6 45 e6 eb	 mov	 BYTE PTR __k$[ebp+2], -21 ; ffffffebH
  001e7	eb 0a		 jmp	 SHORT $LN1@LoadInt_e@8
$LN95@LoadInt_e@8:
  001e9	c6 45 e5 ec	 mov	 BYTE PTR __k$[ebp+1], -20 ; ffffffecH
  001ed	eb 04		 jmp	 SHORT $LN1@LoadInt_e@8
$LN96@LoadInt_e@8:
  001ef	c6 45 e4 ed	 mov	 BYTE PTR __k$[ebp], -19	; ffffffedH
$LN1@LoadInt_e@8:
  001f3	6a 04		 push	 4
  001f5	8d 45 e4	 lea	 eax, DWORD PTR __k$[ebp]
  001f8	c6 45 f6 00	 mov	 BYTE PTR __k$[ebp+18], 0
  001fc	5a		 pop	 edx
$LL104@LoadInt_e@8:
  001fd	81 30 ed ec eb
	ea		 xor	 DWORD PTR [eax], -353637139 ; eaebecedH
  00203	83 c0 04	 add	 eax, 4
  00206	4a		 dec	 edx
  00207	75 f4		 jne	 SHORT $LL104@LoadInt_e@8
  00209	6a 10		 push	 16			; 00000010H
  0020b	58		 pop	 eax
$LL101@LoadInt_e@8:
  0020c	8b c8		 mov	 ecx, eax
