; Listing generated by Microsoft (R) Optimizing Compiler Version 16.00.30319.01 

	TITLE	D:\Lost Saga For Developer\Youtube\Tutorial\Source\src\LSClient\GUI\ioCostumeReleaseWnd.cpp
	.686P
	.XMM
	include listing.inc
	.model	flat

INCLUDELIB MSVCRT
INCLUDELIB OLDNAMES

PUBLIC	??_7ioCostumeReleaseWnd@@6B@			; ioCostumeReleaseWnd::`vftable'
PUBLIC	??0ioCostumeReleaseWnd@@QAE@XZ			; ioCostumeReleaseWnd::ioCostumeReleaseWnd
PUBLIC	??_R4ioCostumeReleaseWnd@@6B@			; ioCostumeReleaseWnd::`RTTI Complete Object Locator'
PUBLIC	??_R0?AVioCostumeReleaseWnd@@@8			; ioCostumeReleaseWnd `RTTI Type Descriptor'
PUBLIC	??_R3ioCostumeReleaseWnd@@8			; ioCostumeReleaseWnd::`RTTI Class Hierarchy Descriptor'
PUBLIC	??_R2ioCostumeReleaseWnd@@8			; ioCostumeReleaseWnd::`RTTI Base Class Array'
PUBLIC	??_R1A@?0A@EA@ioCostumeReleaseWnd@@8		; ioCostumeReleaseWnd::`RTTI Base Class Descriptor at (0,-1,0,64)'
PUBLIC	??_R1A@?0A@EA@ioMovingWnd@@8			; ioMovingWnd::`RTTI Base Class Descriptor at (0,-1,0,64)'
PUBLIC	??_R0?AVioMovingWnd@@@8				; ioMovingWnd `RTTI Type Descriptor'
PUBLIC	??_R3ioMovingWnd@@8				; ioMovingWnd::`RTTI Class Hierarchy Descriptor'
PUBLIC	??_R2ioMovingWnd@@8				; ioMovingWnd::`RTTI Base Class Array'
PUBLIC	??_R1A@?0A@EA@ioWnd@@8				; ioWnd::`RTTI Base Class Descriptor at (0,-1,0,64)'
PUBLIC	??_R0?AVioWnd@@@8				; ioWnd `RTTI Type Descriptor'
PUBLIC	??_R3ioWnd@@8					; ioWnd::`RTTI Class Hierarchy Descriptor'
PUBLIC	??_R2ioWnd@@8					; ioWnd::`RTTI Base Class Array'
PUBLIC	?AddRenderImage@ioCostumeReleaseWnd@@MAEXABVioHashString@@PAVioUIRenderImage@@@Z ; ioCostumeReleaseWnd::AddRenderImage
PUBLIC	?OnRender@ioCostumeReleaseWnd@@MAEXXZ		; ioCostumeReleaseWnd::OnRender
PUBLIC	?OnProcess@ioCostumeReleaseWnd@@MAEXM@Z		; ioCostumeReleaseWnd::OnProcess
PUBLIC	?iwm_command@ioCostumeReleaseWnd@@UAEXPAVioWnd@@HK@Z ; ioCostumeReleaseWnd::iwm_command
PUBLIC	?iwm_show@ioCostumeReleaseWnd@@UAEXXZ		; ioCostumeReleaseWnd::iwm_show
PUBLIC	?iwm_hide@ioCostumeReleaseWnd@@UAEXXZ		; ioCostumeReleaseWnd::iwm_hide
PUBLIC	?iwm_esc@ioCostumeReleaseWnd@@UAE_NXZ		; ioCostumeReleaseWnd::iwm_esc
EXTRN	__imp_??1ioHashString@@QAE@XZ:PROC
EXTRN	__imp_??1ioMovingWnd@@UAE@XZ:PROC
EXTRN	__imp_??0ioHashString@@QAE@XZ:PROC
EXTRN	__imp_??0ioMovingWnd@@QAE@XZ:PROC
EXTRN	___CxxFrameHandler3:PROC
EXTRN	@__security_check_cookie@4:PROC
EXTRN	__EH_epilog3:PROC
EXTRN	__EH_prolog3:PROC
EXTRN	??_7type_info@@6B@:QWORD			; type_info::`vftable'
EXTRN	?AddRenderFrame@ioWnd@@UAEXABVioHashString@@PAVioUIRenderFrame@@@Z:PROC ; ioWnd::AddRenderFrame
EXTRN	?AddTooltipHelp@ioWnd@@UAEXABVioHashString@@00@Z:PROC ; ioWnd::AddTooltipHelp
EXTRN	?ParseExtraInfo@ioWnd@@UAEXAAVioXMLElement@@@Z:PROC ; ioWnd::ParseExtraInfo
EXTRN	?AddNamedRenderImage@ioWnd@@UAEXABVioHashString@@PAVioUIRenderImage@@@Z:PROC ; ioWnd::AddNamedRenderImage
EXTRN	?RemoveNamedRenderImage@ioWnd@@UAEXABVioHashString@@@Z:PROC ; ioWnd::RemoveNamedRenderImage
EXTRN	?GetNamedRenderImage@ioWnd@@UBEPAVioUIRenderImage@@ABVioHashString@@@Z:PROC ; ioWnd::GetNamedRenderImage
EXTRN	?SetWindowAlpha@ioWnd@@UAEXH@Z:PROC		; ioWnd::SetWindowAlpha
EXTRN	?SetActive@ioWnd@@UAEXXZ:PROC			; ioWnd::SetActive
EXTRN	?SetInActive@ioWnd@@UAEXXZ:PROC			; ioWnd::SetInActive
EXTRN	?ClearElementImageList@ioWnd@@UAEXXZ:PROC	; ioWnd::ClearElementImageList
EXTRN	?SetSize@ioWnd@@UAEXHH@Z:PROC			; ioWnd::SetSize
EXTRN	?SetPositionToDefault@ioMovingWnd@@UAEXHH_N0@Z:PROC ; ioMovingWnd::SetPositionToDefault
EXTRN	?IsNeedProcess@ioWnd@@UBE_NXZ:PROC		; ioWnd::IsNeedProcess
EXTRN	?IsCanMouseReaction@ioWnd@@UBE_NXZ:PROC		; ioWnd::IsCanMouseReaction
EXTRN	?AddChild@ioWnd@@UAEXPAV1@@Z:PROC		; ioWnd::AddChild
EXTRN	?DeleteChild@ioWnd@@UAEXK@Z:PROC		; ioWnd::DeleteChild
EXTRN	?DeleteAllChild@ioWnd@@UAEXXZ:PROC		; ioWnd::DeleteAllChild
EXTRN	?OnRenderShowAndHide@ioWnd@@MAE_NXZ:PROC	; ioWnd::OnRenderShowAndHide
EXTRN	?OnRenderShowAndHideByDefault@ioWnd@@MAE_NK@Z:PROC ; ioWnd::OnRenderShowAndHideByDefault
EXTRN	?OnRenderShowAndHideByTop@ioWnd@@MAE_NK@Z:PROC	; ioWnd::OnRenderShowAndHideByTop
EXTRN	?OnRenderShowAndHideByDown@ioWnd@@MAE_NK@Z:PROC	; ioWnd::OnRenderShowAndHideByDown
EXTRN	?OnRenderAfterChild@ioWnd@@MAEXXZ:PROC		; ioWnd::OnRenderAfterChild
EXTRN	?OnMouseProcess@ioMovingWnd@@MAEXABVioMouse@@@Z:PROC ; ioMovingWnd::OnMouseProcess
EXTRN	?CheckFrameReSize@ioWnd@@MAEXHHHH@Z:PROC	; ioWnd::CheckFrameReSize
EXTRN	?RenderImageList@ioWnd@@MAEXHHW4UIRenderType@@@Z:PROC ; ioWnd::RenderImageList
EXTRN	?iwm_create@ioWnd@@UAEXXZ:PROC			; ioWnd::iwm_create
EXTRN	?iwm_destroy@ioWnd@@UAEXXZ:PROC			; ioWnd::iwm_destroy
EXTRN	?iwm_lbuttondown@ioMovingWnd@@UAEXABVioMouse@@@Z:PROC ; ioMovingWnd::iwm_lbuttondown
EXTRN	?iwm_lbuttonup@ioMovingWnd@@UAEXABVioMouse@@@Z:PROC ; ioMovingWnd::iwm_lbuttonup
EXTRN	?iwm_lbuttonDBLCLK@ioWnd@@UAEXABVioMouse@@@Z:PROC ; ioWnd::iwm_lbuttonDBLCLK
EXTRN	?iwm_rbuttondown@ioWnd@@UAEXABVioMouse@@@Z:PROC	; ioWnd::iwm_rbuttondown
EXTRN	?iwm_rbuttonup@ioWnd@@UAEXABVioMouse@@@Z:PROC	; ioWnd::iwm_rbuttonup
EXTRN	?iwm_mouseover@ioWnd@@UAEXABVioMouse@@@Z:PROC	; ioWnd::iwm_mouseover
EXTRN	?iwm_mousemove@ioWnd@@UAEXABVioMouse@@@Z:PROC	; ioWnd::iwm_mousemove
EXTRN	?iwm_mouseleave@ioWnd@@UAEXABVioMouse@@@Z:PROC	; ioWnd::iwm_mouseleave
EXTRN	?iwm_vscroll@ioWnd@@UAEXKH@Z:PROC		; ioWnd::iwm_vscroll
EXTRN	?iwm_wheel@ioWnd@@UAEXH@Z:PROC			; ioWnd::iwm_wheel
EXTRN	?iwm_spacebar@ioWnd@@UAE_NXZ:PROC		; ioWnd::iwm_spacebar
EXTRN	?iwm_gototop@ioWnd@@UAEXXZ:PROC			; ioWnd::iwm_gototop
EXTRN	?iwm_dragenter@ioWnd@@UAE?AW4IWDropEffect@@PAVioDragItem@@ABVioMouse@@@Z:PROC ; ioWnd::iwm_dragenter
EXTRN	?iwm_dragover@ioWnd@@UAE?AW4IWDropEffect@@PAVioDragItem@@ABVioMouse@@@Z:PROC ; ioWnd::iwm_dragover
EXTRN	?iwm_dragleave@ioWnd@@UAEXXZ:PROC		; ioWnd::iwm_dragleave
EXTRN	?iwm_dropitem@ioWnd@@UAE_NPAVioDragItem@@ABVioMouse@@PAV1@@Z:PROC ; ioWnd::iwm_dropitem
EXTRN	?iwm_dropdone@ioWnd@@UAEXPAVioDragItem@@PAV1@_N@Z:PROC ; ioWnd::iwm_dropdone
EXTRN	?IsEXType@ioWnd@@UBE_NXZ:PROC			; ioWnd::IsEXType
EXTRN	?GetWndType@ioWnd@@UBEKXZ:PROC			; ioWnd::GetWndType
EXTRN	?RenderWnd@ioWnd@@UAEXXZ:PROC			; ioWnd::RenderWnd
EXTRN	?SetIDEX@ioWnd@@UAEXAAK_N@Z:PROC		; ioWnd::SetIDEX
EXTRN	?ParseXML@ioWnd@@UAEXAAVioXMLElement@@@Z:PROC	; ioWnd::ParseXML
EXTRN	?GetHeaderFileName@ioWnd@@UAEPBDXZ:PROC		; ioWnd::GetHeaderFileName
EXTRN	?GetTemplateName@ioWnd@@UAEPBDXZ:PROC		; ioWnd::GetTemplateName
EXTRN	?GetDefClassName@ioWnd@@UBEPBDXZ:PROC		; ioWnd::GetDefClassName
EXTRN	?_Clone@ioWnd@@UAEPAV1@XZ:PROC			; ioWnd::_Clone
EXTRN	?Copy@ioWnd@@UAEXPAV1@@Z:PROC			; ioWnd::Copy
EXTRN	?Save@ioWnd@@UAE_NAAVioXMLElement@@@Z:PROC	; ioWnd::Save
EXTRN	?SetSaveData@ioWnd@@UAEXAAVioXMLElement@@@Z:PROC ; ioWnd::SetSaveData
EXTRN	?SetPosX@ioWnd@@UAEXH@Z:PROC			; ioWnd::SetPosX
EXTRN	?SetPosY@ioWnd@@UAEXH@Z:PROC			; ioWnd::SetPosY
EXTRN	?SetWidth@ioWnd@@UAEXH@Z:PROC			; ioWnd::SetWidth
EXTRN	?SetHeight@ioWnd@@UAEXH@Z:PROC			; ioWnd::SetHeight
EXTRN	?GetNumFixedRenderFrame@ioWnd@@UBEHXZ:PROC	; ioWnd::GetNumFixedRenderFrame
EXTRN	?GetFixedRenderFrameType@ioWnd@@UAEPBDH@Z:PROC	; ioWnd::GetFixedRenderFrameType
EXTRN	?GetRenderFrame@ioWnd@@UAEPAPAVioUIRenderElement@@PBD@Z:PROC ; ioWnd::GetRenderFrame
EXTRN	?GetNumFixedRenderImage@ioWnd@@UBEHXZ:PROC	; ioWnd::GetNumFixedRenderImage
EXTRN	?GetFixedRenderImageType@ioWnd@@UAEPBDH@Z:PROC	; ioWnd::GetFixedRenderImageType
EXTRN	?GetRenderImage@ioWnd@@UAEPAPAVioUIRenderElement@@PBD@Z:PROC ; ioWnd::GetRenderImage
EXTRN	?AddEffect@ioWnd@@UAEXABVioHashString@@PAVioUI3DEffectRender@@@Z:PROC ; ioWnd::AddEffect
EXTRN	?GetEffect@ioWnd@@UAEPAVioUI3DEffectRender@@VioHashString@@@Z:PROC ; ioWnd::GetEffect
EXTRN	??_EioCostumeReleaseWnd@@UAEPAXI@Z:PROC		; ioCostumeReleaseWnd::`vector deleting destructor'
;	COMDAT ??_R2ioWnd@@8
; File d:\lost saga for developer\youtube\tutorial\source\src\lsclient\gui\iocostumereleasewnd.cpp
rdata$r	SEGMENT
??_R2ioWnd@@8 DD FLAT:??_R1A@?0A@EA@ioWnd@@8		; ioWnd::`RTTI Base Class Array'
rdata$r	ENDS
;	COMDAT ??_R3ioWnd@@8
rdata$r	SEGMENT
??_R3ioWnd@@8 DD 00H					; ioWnd::`RTTI Class Hierarchy Descriptor'
	DD	00H
	DD	01H
	DD	FLAT:??_R2ioWnd@@8
rdata$r	ENDS
;	COMDAT ??_R0?AVioWnd@@@8
_DATA	SEGMENT
??_R0?AVioWnd@@@8 DD FLAT:??_7type_info@@6B@		; ioWnd `RTTI Type Descriptor'
	DD	00H
	DB	'.?AVioWnd@@', 00H
_DATA	ENDS
;	COMDAT ??_R1A@?0A@EA@ioWnd@@8
rdata$r	SEGMENT
??_R1A@?0A@EA@ioWnd@@8 DD FLAT:??_R0?AVioWnd@@@8	; ioWnd::`RTTI Base Class Descriptor at (0,-1,0,64)'
	DD	00H
	DD	00H
	DD	0ffffffffH
	DD	00H
	DD	040H
	DD	FLAT:??_R3ioWnd@@8
rdata$r	ENDS
;	COMDAT ??_R2ioMovingWnd@@8
rdata$r	SEGMENT
??_R2ioMovingWnd@@8 DD FLAT:??_R1A@?0A@EA@ioMovingWnd@@8 ; ioMovingWnd::`RTTI Base Class Array'
	DD	FLAT:??_R1A@?0A@EA@ioWnd@@8
rdata$r	ENDS
;	COMDAT ??_R3ioMovingWnd@@8
rdata$r	SEGMENT
??_R3ioMovingWnd@@8 DD 00H				; ioMovingWnd::`RTTI Class Hierarchy Descriptor'
	DD	00H
	DD	02H
	DD	FLAT:??_R2ioMovingWnd@@8
rdata$r	ENDS
;	COMDAT ??_R0?AVioMovingWnd@@@8
_DATA	SEGMENT
??_R0?AVioMovingWnd@@@8 DD FLAT:??_7type_info@@6B@	; ioMovingWnd `RTTI Type Descriptor'
	DD	00H
	DB	'.?AVioMovingWnd@@', 00H
_DATA	ENDS
;	COMDAT ??_R1A@?0A@EA@ioMovingWnd@@8
rdata$r	SEGMENT
??_R1A@?0A@EA@ioMovingWnd@@8 DD FLAT:??_R0?AVioMovingWnd@@@8 ; ioMovingWnd::`RTTI Base Class Descriptor at (0,-1,0,64)'
	DD	01H
	DD	00H
	DD	0ffffffffH
	DD	00H
	DD	040H
	DD	FLAT:??_R3ioMovingWnd@@8
rdata$r	ENDS
;	COMDAT ??_R1A@?0A@EA@ioCostumeReleaseWnd@@8
rdata$r	SEGMENT
??_R1A@?0A@EA@ioCostumeReleaseWnd@@8 DD FLAT:??_R0?AVioCostumeReleaseWnd@@@8 ; ioCostumeReleaseWnd::`RTTI Base Class Descriptor at (0,-1,0,64)'
	DD	02H
	DD	00H
	DD	0ffffffffH
	DD	00H
	DD	040H
	DD	FLAT:??_R3ioCostumeReleaseWnd@@8
rdata$r	ENDS
;	COMDAT ??_R2ioCostumeReleaseWnd@@8
rdata$r	SEGMENT
??_R2ioCostumeReleaseWnd@@8 DD FLAT:??_R1A@?0A@EA@ioCostumeReleaseWnd@@8 ; ioCostumeReleaseWnd::`RTTI Base Class Array'
	DD	FLAT:??_R1A@?0A@EA@ioMovingWnd@@8
	DD	FLAT:??_R1A@?0A@EA@ioWnd@@8
rdata$r	ENDS
;	COMDAT ??_R3ioCostumeReleaseWnd@@8
rdata$r	SEGMENT
??_R3ioCostumeReleaseWnd@@8 DD 00H			; ioCostumeReleaseWnd::`RTTI Class Hierarchy Descriptor'
	DD	00H
	DD	03H
	DD	FLAT:??_R2ioCostumeReleaseWnd@@8
rdata$r	ENDS
;	COMDAT ??_R0?AVioCostumeReleaseWnd@@@8
_DATA	SEGMENT
??_R0?AVioCostumeReleaseWnd@@@8 DD FLAT:??_7type_info@@6B@ ; ioCostumeReleaseWnd `RTTI Type Descriptor'
	DD	00H
	DB	'.?AVioCostumeReleaseWnd@@', 00H
_DATA	ENDS
;	COMDAT ??_R4ioCostumeReleaseWnd@@6B@
rdata$r	SEGMENT
??_R4ioCostumeReleaseWnd@@6B@ DD 00H			; ioCostumeReleaseWnd::`RTTI Complete Object Locator'
	DD	00H
	DD	00H
	DD	FLAT:??_R0?AVioCostumeReleaseWnd@@@8
	DD	FLAT:??_R3ioCostumeReleaseWnd@@8
rdata$r	ENDS
;	COMDAT ??_7ioCostumeReleaseWnd@@6B@
CONST	SEGMENT
??_7ioCostumeReleaseWnd@@6B@ DD FLAT:??_R4ioCostumeReleaseWnd@@6B@ ; ioCostumeReleaseWnd::`vftable'
	DD	FLAT:?AddRenderFrame@ioWnd@@UAEXABVioHashString@@PAVioUIRenderFrame@@@Z
	DD	FLAT:?AddRenderImage@ioCostumeReleaseWnd@@MAEXABVioHashString@@PAVioUIRenderImage@@@Z
	DD	FLAT:?AddTooltipHelp@ioWnd@@UAEXABVioHashString@@00@Z
	DD	FLAT:?ParseExtraInfo@ioWnd@@UAEXAAVioXMLElement@@@Z
	DD	FLAT:?AddNamedRenderImage@ioWnd@@UAEXABVioHashString@@PAVioUIRenderImage@@@Z
	DD	FLAT:?RemoveNamedRenderImage@ioWnd@@UAEXABVioHashString@@@Z
	DD	FLAT:?GetNamedRenderImage@ioWnd@@UBEPAVioUIRenderImage@@ABVioHashString@@@Z
	DD	FLAT:?SetWindowAlpha@ioWnd@@UAEXH@Z
	DD	FLAT:?SetActive@ioWnd@@UAEXXZ
	DD	FLAT:?SetInActive@ioWnd@@UAEXXZ
	DD	FLAT:?ClearElementImageList@ioWnd@@UAEXXZ
	DD	FLAT:?SetSize@ioWnd@@UAEXHH@Z
	DD	FLAT:?SetPositionToDefault@ioMovingWnd@@UAEXHH_N0@Z
	DD	FLAT:?IsNeedProcess@ioWnd@@UBE_NXZ
	DD	FLAT:?IsCanMouseReaction@ioWnd@@UBE_NXZ
	DD	FLAT:?AddChild@ioWnd@@UAEXPAV1@@Z
	DD	FLAT:?DeleteChild@ioWnd@@UAEXK@Z
	DD	FLAT:?DeleteAllChild@ioWnd@@UAEXXZ
	DD	FLAT:?OnRenderShowAndHide@ioWnd@@MAE_NXZ
	DD	FLAT:?OnRenderShowAndHideByDefault@ioWnd@@MAE_NK@Z
	DD	FLAT:?OnRenderShowAndHideByTop@ioWnd@@MAE_NK@Z
	DD	FLAT:?OnRenderShowAndHideByDown@ioWnd@@MAE_NK@Z
	DD	FLAT:?OnRender@ioCostumeReleaseWnd@@MAEXXZ
	DD	FLAT:?OnRenderAfterChild@ioWnd@@MAEXXZ
	DD	FLAT:?OnProcess@ioCostumeReleaseWnd@@MAEXM@Z
	DD	FLAT:?OnMouseProcess@ioMovingWnd@@MAEXABVioMouse@@@Z
	DD	FLAT:?CheckFrameReSize@ioWnd@@MAEXHHHH@Z
	DD	FLAT:?RenderImageList@ioWnd@@MAEXHHW4UIRenderType@@@Z
	DD	FLAT:?iwm_create@ioWnd@@UAEXXZ
	DD	FLAT:?iwm_destroy@ioWnd@@UAEXXZ
	DD	FLAT:?iwm_lbuttondown@ioMovingWnd@@UAEXABVioMouse@@@Z
	DD	FLAT:?iwm_lbuttonup@ioMovingWnd@@UAEXABVioMouse@@@Z
	DD	FLAT:?iwm_lbuttonDBLCLK@ioWnd@@UAEXABVioMouse@@@Z
	DD	FLAT:?iwm_rbuttondown@ioWnd@@UAEXABVioMouse@@@Z
	DD	FLAT:?iwm_rbuttonup@ioWnd@@UAEXABVioMouse@@@Z
	DD	FLAT:?iwm_command@ioCostumeReleaseWnd@@UAEXPAVioWnd@@HK@Z
	DD	FLAT:?iwm_mouseover@ioWnd@@UAEXABVioMouse@@@Z
	DD	FLAT:?iwm_mousemove@ioWnd@@UAEXABVioMouse@@@Z
	DD	FLAT:?iwm_mouseleave@ioWnd@@UAEXABVioMouse@@@Z
	DD	FLAT:?iwm_vscroll@ioWnd@@UAEXKH@Z
	DD	FLAT:?iwm_wheel@ioWnd@@UAEXH@Z
	DD	FLAT:?iwm_show@ioCostumeReleaseWnd@@UAEXXZ
	DD	FLAT:?iwm_hide@ioCostumeReleaseWnd@@UAEXXZ
	DD	FLAT:?iwm_esc@ioCostumeReleaseWnd@@UAE_NXZ
	DD	FLAT:?iwm_spacebar@ioWnd@@UAE_NXZ
	DD	FLAT:?iwm_gototop@ioWnd@@UAEXXZ
	DD	FLAT:?iwm_dragenter@ioWnd@@UAE?AW4IWDropEffect@@PAVioDragItem@@ABVioMouse@@@Z
	DD	FLAT:?iwm_dragover@ioWnd@@UAE?AW4IWDropEffect@@PAVioDragItem@@ABVioMouse@@@Z
	DD	FLAT:?iwm_dragleave@ioWnd@@UAEXXZ
	DD	FLAT:?iwm_dropitem@ioWnd@@UAE_NPAVioDragItem@@ABVioMouse@@PAV1@@Z
	DD	FLAT:?iwm_dropdone@ioWnd@@UAEXPAVioDragItem@@PAV1@_N@Z
	DD	FLAT:?IsEXType@ioWnd@@UBE_NXZ
	DD	FLAT:?GetWndType@ioWnd@@UBEKXZ
	DD	FLAT:?RenderWnd@ioWnd@@UAEXXZ
	DD	FLAT:?SetIDEX@ioWnd@@UAEXAAK_N@Z
	DD	FLAT:?ParseXML@ioWnd@@UAEXAAVioXMLElement@@@Z
	DD	FLAT:?GetHeaderFileName@ioWnd@@UAEPBDXZ
	DD	FLAT:?GetTemplateName@ioWnd@@UAEPBDXZ
	DD	FLAT:?GetDefClassName@ioWnd@@UBEPBDXZ
	DD	FLAT:?_Clone@ioWnd@@UAEPAV1@XZ
	DD	FLAT:?Copy@ioWnd@@UAEXPAV1@@Z
	DD	FLAT:?Save@ioWnd@@UAE_NAAVioXMLElement@@@Z
	DD	FLAT:?SetSaveData@ioWnd@@UAEXAAVioXMLElement@@@Z
	DD	FLAT:?SetPosX@ioWnd@@UAEXH@Z
	DD	FLAT:?SetPosY@ioWnd@@UAEXH@Z
	DD	FLAT:?SetWidth@ioWnd@@UAEXH@Z
	DD	FLAT:?SetHeight@ioWnd@@UAEXH@Z
	DD	FLAT:?GetNumFixedRenderFrame@ioWnd@@UBEHXZ
	DD	FLAT:?GetFixedRenderFrameType@ioWnd@@UAEPBDH@Z
	DD	FLAT:?GetRenderFrame@ioWnd@@UAEPAPAVioUIRenderElement@@PBD@Z
	DD	FLAT:?GetNumFixedRenderImage@ioWnd@@UBEHXZ
	DD	FLAT:?GetFixedRenderImageType@ioWnd@@UAEPBDH@Z
	DD	FLAT:?GetRenderImage@ioWnd@@UAEPAPAVioUIRenderElement@@PBD@Z
	DD	FLAT:?AddEffect@ioWnd@@UAEXABVioHashString@@PAVioUI3DEffectRender@@@Z
	DD	FLAT:?GetEffect@ioWnd@@UAEPAVioUI3DEffectRender@@VioHashString@@@Z
	DD	FLAT:??_EioCostumeReleaseWnd@@UAEPAXI@Z
CONST	ENDS
;	COMDAT xdata$x
xdata$x	SEGMENT
__unwindtable$??0ioCostumeReleaseWnd@@QAE@XZ DD 0ffffffffH
	DD	FLAT:__unwindfunclet$??0ioCostumeReleaseWnd@@QAE@XZ$0
	DD	00H
	DD	FLAT:__unwindfunclet$??0ioCostumeReleaseWnd@@QAE@XZ$1
	DD	01H
	DD	FLAT:__unwindfunclet$??0ioCostumeReleaseWnd@@QAE@XZ$2
__ehfuncinfo$??0ioCostumeReleaseWnd@@QAE@XZ DD 019930522H
	DD	03H
	DD	FLAT:__unwindtable$??0ioCostumeReleaseWnd@@QAE@XZ
	DD	2 DUP(00H)
	DD	2 DUP(00H)
	DD	00H
	DD	01H
; Function compile flags: /Ogsp
xdata$x	ENDS
;	COMDAT ??0ioCostumeReleaseWnd@@QAE@XZ
_TEXT	SEGMENT
_this$ = -16						; size = 4
__$EHRec$ = -12						; size = 12
??0ioCostumeReleaseWnd@@QAE@XZ PROC			; ioCostumeReleaseWnd::ioCostumeReleaseWnd, COMDAT
; _this$ = ecx

; 8    : {

  00000	6a 04		 push	 4
  00002	b8 00 00 00 00	 mov	 eax, __ehhandler$??0ioCostumeReleaseWnd@@QAE@XZ
  00007	e8 00 00 00 00	 call	 __EH_prolog3
  0000c	8b f1		 mov	 esi, ecx
  0000e	89 75 f0	 mov	 DWORD PTR _this$[ebp], esi
  00011	ff 15 00 00 00
	00		 call	 DWORD PTR __imp_??0ioMovingWnd@@QAE@XZ
  00017	8b 3d 00 00 00
	00		 mov	 edi, DWORD PTR __imp_??0ioHashString@@QAE@XZ
  0001d	33 db		 xor	 ebx, ebx
  0001f	8d 8e 9c 01 00
	00		 lea	 ecx, DWORD PTR [esi+412]
  00025	89 5d fc	 mov	 DWORD PTR __$EHRec$[ebp+8], ebx
  00028	c7 06 00 00 00
	00		 mov	 DWORD PTR [esi], OFFSET ??_7ioCostumeReleaseWnd@@6B@
  0002e	ff d7		 call	 edi
  00030	8d 8e ac 01 00
	00		 lea	 ecx, DWORD PTR [esi+428]
  00036	c6 45 fc 01	 mov	 BYTE PTR __$EHRec$[ebp+8], 1
  0003a	ff d7		 call	 edi
  0003c	8d 8e bc 01 00
	00		 lea	 ecx, DWORD PTR [esi+444]
  00042	c6 45 fc 02	 mov	 BYTE PTR __$EHRec$[ebp+8], 2
  00046	ff d7		 call	 edi

; 9    : 	m_pIconBack		 = NULL;

  00048	89 9e 90 01 00
	00		 mov	 DWORD PTR [esi+400], ebx

; 10   : 	m_pCostumeIcon = NULL;

  0004e	89 9e 94 01 00
	00		 mov	 DWORD PTR [esi+404], ebx

; 11   : 	m_pCostumeMark = NULL;

  00054	89 9e 98 01 00
	00		 mov	 DWORD PTR [esi+408], ebx

; 12   : 	m_dwHideDelayTime = 0;

  0005a	89 9e d0 01 00
	00		 mov	 DWORD PTR [esi+464], ebx

; 13   : 	m_nGradeType = 0;

  00060	89 9e cc 01 00
	00		 mov	 DWORD PTR [esi+460], ebx

; 14   : }

  00066	8b c6		 mov	 eax, esi
  00068	e8 00 00 00 00	 call	 __EH_epilog3
  0006d	c3		 ret	 0
_TEXT	ENDS
;	COMDAT text$x
text$x	SEGMENT
__unwindfunclet$??0ioCostumeReleaseWnd@@QAE@XZ$0:
  00000	8b 4d f0	 mov	 ecx, DWORD PTR _this$[ebp]
  00003	ff 25 00 00 00
	00		 jmp	 DWORD PTR __imp_??1ioMovingWnd@@UAE@XZ
__unwindfunclet$??0ioCostumeReleaseWnd@@QAE@XZ$1:
  00009	8b 4d f0	 mov	 ecx, DWORD PTR _this$[ebp]
  0000c	81 c1 9c 01 00
	00		 add	 ecx, 412		; 0000019cH
  00012	ff 25 00 00 00
	00		 jmp	 DWORD PTR __imp_??1ioHashString@@QAE@XZ
__unwindfunclet$??0ioCostumeReleaseWnd@@QAE@XZ$2:
  00018	8b 4d f0	 mov	 ecx, DWORD PTR _this$[ebp]
  0001b	81 c1 ac 01 00
	00		 add	 ecx, 428		; 000001acH
  00021	ff 25 00 00 00
	00		 jmp	 DWORD PTR __imp_??1ioHashString@@QAE@XZ
__ehhandler$??0ioCostumeReleaseWnd@@QAE@XZ:
  00027	8b 54 24 08	 mov	 edx, DWORD PTR [esp+8]
  0002b	8d 42 0c	 lea	 eax, DWORD PTR [edx+12]
  0002e	8b 4a ec	 mov	 ecx, DWORD PTR [edx-20]
  00031	33 c8		 xor	 ecx, eax
  00033	e8 00 00 00 00	 call	 @__security_check_cookie@4
  00038	b8 00 00 00 00	 mov	 eax, OFFSET __ehfuncinfo$??0ioCostumeReleaseWnd@@QAE@XZ
  0003d	e9 00 00 00 00	 jmp	 ___CxxFrameHandler3
text$x	ENDS
??0ioCostumeReleaseWnd@@QAE@XZ ENDP			; ioCostumeReleaseWnd::ioCostumeReleaseWnd
PUBLIC	??1ioCostumeReleaseWnd@@UAE@XZ			; ioCostumeReleaseWnd::~ioCostumeReleaseWnd
;	COMDAT xdata$x
xdata$x	SEGMENT
__unwindtable$??1ioCostumeReleaseWnd@@UAE@XZ DD 0ffffffffH
	DD	FLAT:__unwindfunclet$??1ioCostumeReleaseWnd@@UAE@XZ$0
	DD	00H
	DD	FLAT:__unwindfunclet$??1ioCostumeReleaseWnd@@UAE@XZ$1
	DD	01H
	DD	FLAT:__unwindfunclet$??1ioCostumeReleaseWnd@@UAE@XZ$2
	DD	02H
	DD	FLAT:__unwindfunclet$??1ioCostumeReleaseWnd@@UAE@XZ$3
__ehfuncinfo$??1ioCostumeReleaseWnd@@UAE@XZ DD 019930522H
	DD	04H
	DD	FLAT:__unwindtable$??1ioCostumeReleaseWnd@@UAE@XZ
	DD	2 DUP(00H)
	DD	2 DUP(00H)
	DD	00H
	DD	01H
; Function compile flags: /Ogsp
xdata$x	ENDS
;	COMDAT ??1ioCostumeReleaseWnd@@UAE@XZ
_TEXT	SEGMENT
_this$ = -16						; size = 4
__$EHRec$ = -12						; size = 12
??1ioCostumeReleaseWnd@@UAE@XZ PROC			; ioCostumeReleaseWnd::~ioCostumeReleaseWnd, COMDAT
; _this$ = ecx

; 17   : {

  00000	6a 04		 push	 4
  00002	b8 00 00 00 00	 mov	 eax, __ehhandler$??1ioCostumeReleaseWnd@@UAE@XZ
  00007	e8 00 00 00 00	 call	 __EH_prolog3
  0000c	8b f1		 mov	 esi, ecx
  0000e	89 75 f0	 mov	 DWORD PTR _this$[ebp], esi
  00011	c7 06 00 00 00
	00		 mov	 DWORD PTR [esi], OFFSET ??_7ioCostumeReleaseWnd@@6B@

; 18   : 	SAFEDELETE( m_pIconBack );

  00017	8b 8e 90 01 00
	00		 mov	 ecx, DWORD PTR [esi+400]
  0001d	c7 45 fc 03 00
	00 00		 mov	 DWORD PTR __$EHRec$[ebp+8], 3
  00024	85 c9		 test	 ecx, ecx
  00026	74 0e		 je	 SHORT $LN3@ioCostumeR
  00028	8b 01		 mov	 eax, DWORD PTR [ecx]
  0002a	6a 01		 push	 1
  0002c	ff 50 40	 call	 DWORD PTR [eax+64]
  0002f	83 a6 90 01 00
	00 00		 and	 DWORD PTR [esi+400], 0
$LN3@ioCostumeR:

; 19   : 	SAFEDELETE( m_pCostumeIcon );

  00036	8b 8e 94 01 00
	00		 mov	 ecx, DWORD PTR [esi+404]
  0003c	85 c9		 test	 ecx, ecx
  0003e	74 0e		 je	 SHORT $LN2@ioCostumeR
  00040	8b 01		 mov	 eax, DWORD PTR [ecx]
  00042	6a 01		 push	 1
  00044	ff 50 40	 call	 DWORD PTR [eax+64]
  00047	83 a6 94 01 00
	00 00		 and	 DWORD PTR [esi+404], 0
$LN2@ioCostumeR:

; 20   : 	SAFEDELETE( m_pCostumeMark );

  0004e	8b 8e 98 01 00
	00		 mov	 ecx, DWORD PTR [esi+408]
  00054	85 c9		 test	 ecx, ecx
  00056	74 0e		 je	 SHORT $LN1@ioCostumeR
  00058	8b 01		 mov	 eax, DWORD PTR [ecx]
  0005a	6a 01		 push	 1
  0005c	ff 50 40	 call	 DWORD PTR [eax+64]
  0005f	83 a6 98 01 00
	00 00		 and	 DWORD PTR [esi+408], 0
$LN1@ioCostumeR:

; 21   : }

  00066	8b 3d 00 00 00
	00		 mov	 edi, DWORD PTR __imp_??1ioHashString@@QAE@XZ
  0006c	8d 8e bc 01 00
	00		 lea	 ecx, DWORD PTR [esi+444]
  00072	c6 45 fc 02	 mov	 BYTE PTR __$EHRec$[ebp+8], 2
  00076	ff d7		 call	 edi
  00078	8d 8e ac 01 00
	00		 lea	 ecx, DWORD PTR [esi+428]
  0007e	c6 45 fc 01	 mov	 BYTE PTR __$EHRec$[ebp+8], 1
  00082	ff d7		 call	 edi
  00084	8d 8e 9c 01 00
	00		 lea	 ecx, DWORD PTR [esi+412]
  0008a	c6 45 fc 00	 mov	 BYTE PTR __$EHRec$[ebp+8], 0
  0008e	ff d7		 call	 edi
  00090	83 4d fc ff	 or	 DWORD PTR __$EHRec$[ebp+8], -1
  00094	8b ce		 mov	 ecx, esi
  00096	ff 15 00 00 00
	00		 call	 DWORD PTR __imp_??1ioMovingWnd@@UAE@XZ
  0009c	e8 00 00 00 00	 call	 __EH_epilog3
  000a1	c3		 ret	 0
_TEXT	ENDS
;	COMDAT text$x
text$x	SEGMENT
__unwindfunclet$??1ioCostumeReleaseWnd@@UAE@XZ$0:
  00000	8b 4d f0	 mov	 ecx, DWORD PTR _this$[ebp]
  00003	ff 25 00 00 00
	00		 jmp	 DWORD PTR __imp_??1ioMovingWnd@@UAE@XZ
__unwindfunclet$??1ioCostumeReleaseWnd@@UAE@XZ$1:
  00009	8b 4d f0	 mov	 ecx, DWORD PTR _this$[ebp]
  0000c	81 c1 9c 01 00
	00		 add	 ecx, 412		; 0000019cH
  00012	ff 25 00 00 00
	00		 jmp	 DWORD PTR __imp_??1ioHashString@@QAE@XZ
__unwindfunclet$??1ioCostumeReleaseWnd@@UAE@XZ$2:
  00018	8b 4d f0	 mov	 ecx, DWORD PTR _this$[ebp]
  0001b	81 c1 ac 01 00
	00		 add	 ecx, 428		; 000001acH
  00021	ff 25 00 00 00
	00		 jmp	 DWORD PTR __imp_??1ioHashString@@QAE@XZ
__unwindfunclet$??1ioCostumeReleaseWnd@@UAE@XZ$3:
  00027	8b 4d f0	 mov	 ecx, DWORD PTR _this$[ebp]
  0002a	81 c1 bc 01 00
	00		 add	 ecx, 444		; 000001bcH
  00030	ff 25 00 00 00
	00		 jmp	 DWORD PTR __imp_??1ioHashString@@QAE@XZ
__ehhandler$??1ioCostumeReleaseWnd@@UAE@XZ:
  00036	8b 54 24 08	 mov	 edx, DWORD PTR [esp+8]
  0003a	8d 42 0c	 lea	 eax, DWORD PTR [edx+12]
  0003d	8b 4a ec	 mov	 ecx, DWORD PTR [edx-20]
  00040	33 c8		 xor	 ecx, eax
  00042	e8 00 00 00 00	 call	 @__security_check_cookie@4
  00047	b8 00 00 00 00	 mov	 eax, OFFSET __ehfuncinfo$??1ioCostumeReleaseWnd@@UAE@XZ
  0004c	e9 00 00 00 00	 jmp	 ___CxxFrameHandler3
text$x	ENDS
??1ioCostumeReleaseWnd@@UAE@XZ ENDP			; ioCostumeReleaseWnd::~ioCostumeReleaseWnd
EXTRN	__imp_?OnProcess@ioWnd@@MAEXM@Z:PROC
EXTRN	__imp_?ShowWnd@ioWnd@@QAEXXZ:PROC
EXTRN	?IsReserveDeleteCostume@ioMyInfo@@QAE_NXZ:PROC	; ioMyInfo::IsReserveDeleteCostume
EXTRN	?GetSingleton@ioMyInfo@@SAAAV1@XZ:PROC		; ioMyInfo::GetSingleton
EXTRN	__imp_?GetLoopSec@ioFrameTimer@@QBEKXZ:PROC
EXTRN	__imp_?GetSingleton@ioFrameTimer@@SAAAV1@XZ:PROC
EXTRN	__imp_?IsShow@ioWnd@@QBE_NXZ:PROC
EXTRN	__fltused:DWORD
; Function compile flags: /Ogsp
;	COMDAT ?OnProcess@ioCostumeReleaseWnd@@MAEXM@Z
_TEXT	SEGMENT
_fTimePerSec$ = 8					; size = 4
?OnProcess@ioCostumeReleaseWnd@@MAEXM@Z PROC		; ioCostumeReleaseWnd::OnProcess, COMDAT
; _this$ = ecx

; 40   : {

  00000	55		 push	 ebp
  00001	8b ec		 mov	 ebp, esp
  00003	56		 push	 esi
  00004	8b f1		 mov	 esi, ecx

; 41   : 	if( !IsShow() )

  00006	ff 15 00 00 00
	00		 call	 DWORD PTR __imp_?IsShow@ioWnd@@QBE_NXZ
  0000c	84 c0		 test	 al, al
  0000e	75 33		 jne	 SHORT $LN3@OnProcess

; 42   : 	{
; 43   : 		if( FRAMEGETTIME() - m_dwHideDelayTime < 100 )

  00010	ff 15 00 00 00
	00		 call	 DWORD PTR __imp_?GetSingleton@ioFrameTimer@@SAAAV1@XZ
  00016	8b c8		 mov	 ecx, eax
  00018	ff 15 00 00 00
	00		 call	 DWORD PTR __imp_?GetLoopSec@ioFrameTimer@@QBEKXZ
  0001e	2b 86 d0 01 00
	00		 sub	 eax, DWORD PTR [esi+464]
  00024	83 f8 64	 cmp	 eax, 100		; 00000064H
  00027	72 2d		 jb	 SHORT $LN4@OnProcess

; 44   : 			return;
; 45   : 
; 46   : 		if( g_MyInfo.IsReserveDeleteCostume() )

  00029	e8 00 00 00 00	 call	 ?GetSingleton@ioMyInfo@@SAAAV1@XZ ; ioMyInfo::GetSingleton
  0002e	8b c8		 mov	 ecx, eax
  00030	e8 00 00 00 00	 call	 ?IsReserveDeleteCostume@ioMyInfo@@QAE_NXZ ; ioMyInfo::IsReserveDeleteCostume
  00035	84 c0		 test	 al, al
  00037	74 1d		 je	 SHORT $LN4@OnProcess

; 47   : 			ShowWnd();

  00039	8b ce		 mov	 ecx, esi
  0003b	ff 15 00 00 00
	00		 call	 DWORD PTR __imp_?ShowWnd@ioWnd@@QAEXXZ

; 48   : 		return;

  00041	eb 13		 jmp	 SHORT $LN4@OnProcess
$LN3@OnProcess:

; 49   : 	}
; 50   : 
; 51   : 	ioMovingWnd::OnProcess( fTimePerSec );

  00043	f3 0f 10 45 08	 movss	 xmm0, DWORD PTR _fTimePerSec$[ebp]
  00048	51		 push	 ecx
  00049	8b ce		 mov	 ecx, esi
  0004b	f3 0f 11 04 24	 movss	 DWORD PTR [esp], xmm0
  00050	ff 15 00 00 00
	00		 call	 DWORD PTR __imp_?OnProcess@ioWnd@@MAEXM@Z
$LN4@OnProcess:
  00056	5e		 pop	 esi

; 52   : }

  00057	5d		 pop	 ebp
  00058	c2 04 00	 ret	 4
?OnProcess@ioCostumeReleaseWnd@@MAEXM@Z ENDP		; ioCostumeReleaseWnd::OnProcess
_TEXT	ENDS
PUBLIC	__real@3f266666
PUBLIC	??_C@_0BO@JLDFAMHO@ioCostumeReleaseWnd?3?3OnRender?$AA@ ; `string'
PUBLIC	??_C@_00CNPNBAHC@?$AA@				; `string'
PUBLIC	__real@3f800000
EXTRN	__imp_?PrintText@ioFontManager@@QAAXMMMPBDZZ:PROC
EXTRN	__imp_?PrintText@ioFontManager@@QAEXMMMPBD0@Z:PROC
EXTRN	__imp_?GetString@ioStringManager@@QAEPADPBD0HW4FileNamePrefix@1@@Z:PROC
EXTRN	__imp_?GetSingleton@ioStringManager@@SAAAV1@XZ:PROC
EXTRN	__imp_?c_str@ioHashString@@QBEPBDXZ:PROC
EXTRN	__imp_?SetTextColor@ioFontManager@@QAEXK@Z:PROC
EXTRN	__imp_?SetBkColor@ioFontManager@@QAEXHHH@Z:PROC
EXTRN	__imp_?SetAlignType@ioFontManager@@QAEXW4TextAlignType@@@Z:PROC
EXTRN	__imp_?SetTextStyle@ioFontManager@@QAEXW4TextStyle@@@Z:PROC
EXTRN	__imp_?GetSingleton@ioFontManager@@SAAAV1@XZ:PROC
EXTRN	?RenderGradeIconBack@ioUIImageRenderManager@@QAEXHHHMW4UIRenderType@@W4TextureFilterOption@@HHH_N0@Z:PROC ; ioUIImageRenderManager::RenderGradeIconBack
EXTRN	?GetSingleton@ioUIImageRenderManager@@SAAAV1@XZ:PROC ; ioUIImageRenderManager::GetSingleton
EXTRN	__imp_?GetDerivedPosY@ioWnd@@QBEHXZ:PROC
EXTRN	__imp_?GetDerivedPosX@ioWnd@@QBEHXZ:PROC
EXTRN	__imp_?OnRender@ioWnd@@MAEXXZ:PROC
;	COMDAT __real@3f266666
CONST	SEGMENT
__real@3f266666 DD 03f266666r			; 0.65
CONST	ENDS
;	COMDAT ??_C@_0BO@JLDFAMHO@ioCostumeReleaseWnd?3?3OnRender?$AA@
CONST	SEGMENT
??_C@_0BO@JLDFAMHO@ioCostumeReleaseWnd?3?3OnRender?$AA@ DB 'ioCostumeRele'
	DB	'aseWnd::OnRender', 00H			; `string'
CONST	ENDS
;	COMDAT ??_C@_00CNPNBAHC@?$AA@
CONST	SEGMENT
??_C@_00CNPNBAHC@?$AA@ DB 00H				; `string'
CONST	ENDS
;	COMDAT __real@3f800000
CONST	SEGMENT
__real@3f800000 DD 03f800000r			; 1
; Function compile flags: /Ogsp
CONST	ENDS
;	COMDAT ?OnRender@ioCostumeReleaseWnd@@MAEXXZ
_TEXT	SEGMENT
_iYPos$ = -8						; size = 4
tv314 = -4						; size = 4
tv301 = -4						; size = 4
_iXPos$ = -4						; size = 4
?OnRender@ioCostumeReleaseWnd@@MAEXXZ PROC		; ioCostumeReleaseWnd::OnRender, COMDAT
; _this$ = ecx

; 55   : {

  00000	55		 push	 ebp
  00001	8b ec		 mov	 ebp, esp
  00003	51		 push	 ecx
  00004	51		 push	 ecx
  00005	53		 push	 ebx
  00006	56		 push	 esi
  00007	57		 push	 edi
  00008	8b d9		 mov	 ebx, ecx

; 56   : 	ioWnd::OnRender();

  0000a	ff 15 00 00 00
	00		 call	 DWORD PTR __imp_?OnRender@ioWnd@@MAEXXZ

; 57   : 
; 58   : 	int iXPos = GetDerivedPosX();

  00010	8b cb		 mov	 ecx, ebx
  00012	ff 15 00 00 00
	00		 call	 DWORD PTR __imp_?GetDerivedPosX@ioWnd@@QBEHXZ

; 59   : 	int iYPos = GetDerivedPosY();

  00018	8b cb		 mov	 ecx, ebx
  0001a	89 45 fc	 mov	 DWORD PTR _iXPos$[ebp], eax
  0001d	ff 15 00 00 00
	00		 call	 DWORD PTR __imp_?GetDerivedPosY@ioWnd@@QBEHXZ

; 60   : 
; 61   : 	if( m_pIconBack )

  00023	33 ff		 xor	 edi, edi
  00025	8b f0		 mov	 esi, eax
  00027	89 75 f8	 mov	 DWORD PTR _iYPos$[ebp], esi
  0002a	39 bb 90 01 00
	00		 cmp	 DWORD PTR [ebx+400], edi
  00030	74 2d		 je	 SHORT $LN3@OnRender

; 62   : 		m_pIconBack->Render( iXPos, iYPos, UI_RENDER_MULTIPLY );

  00032	8b 83 90 01 00
	00		 mov	 eax, DWORD PTR [ebx+400]
  00038	8b 10		 mov	 edx, DWORD PTR [eax]
  0003a	57		 push	 edi
  0003b	57		 push	 edi
  0003c	57		 push	 edi
  0003d	6a 08		 push	 8
  0003f	51		 push	 ecx
  00040	0f 57 c0	 xorps	 xmm0, xmm0
  00043	51		 push	 ecx
  00044	f3 0f 2a c6	 cvtsi2ss xmm0, esi
  00048	f3 0f 11 44 24
	04		 movss	 DWORD PTR [esp+4], xmm0
  0004e	66 0f 6e 45 fc	 movd	 xmm0, DWORD PTR _iXPos$[ebp]
  00053	0f 5b c0	 cvtdq2ps xmm0, xmm0
  00056	8b c8		 mov	 ecx, eax
  00058	f3 0f 11 04 24	 movss	 DWORD PTR [esp], xmm0
  0005d	ff 12		 call	 DWORD PTR [edx]
$LN3@OnRender:

; 63   : 
; 64   : 	g_UIImageRenderMgr.RenderGradeIconBack( m_nGradeType, iXPos + 103, iYPos + 98 );

  0005f	8b 4d fc	 mov	 ecx, DWORD PTR _iXPos$[ebp]
  00062	f3 0f 10 05 00
	00 00 00	 movss	 xmm0, DWORD PTR __real@3f800000
  0006a	57		 push	 edi
  0006b	57		 push	 edi
  0006c	b8 ff 00 00 00	 mov	 eax, 255		; 000000ffH
  00071	50		 push	 eax
  00072	50		 push	 eax
  00073	50		 push	 eax
  00074	57		 push	 edi
  00075	83 c1 67	 add	 ecx, 103		; 00000067H
  00078	57		 push	 edi
  00079	51		 push	 ecx
  0007a	f3 0f 11 04 24	 movss	 DWORD PTR [esp], xmm0
  0007f	83 c6 62	 add	 esi, 98			; 00000062H
  00082	56		 push	 esi
  00083	51		 push	 ecx
  00084	ff b3 cc 01 00
	00		 push	 DWORD PTR [ebx+460]
  0008a	89 4d fc	 mov	 DWORD PTR tv301[ebp], ecx
  0008d	e8 00 00 00 00	 call	 ?GetSingleton@ioUIImageRenderManager@@SAAAV1@XZ ; ioUIImageRenderManager::GetSingleton
  00092	8b c8		 mov	 ecx, eax
  00094	e8 00 00 00 00	 call	 ?RenderGradeIconBack@ioUIImageRenderManager@@QAEXHHHMW4UIRenderType@@W4TextureFilterOption@@HHH_N0@Z ; ioUIImageRenderManager::RenderGradeIconBack

; 65   : 
; 66   : 	if( m_pCostumeIcon )

  00099	39 bb 94 01 00
	00		 cmp	 DWORD PTR [ebx+404], edi
  0009f	74 2c		 je	 SHORT $LN2@OnRender

; 67   : 		m_pCostumeIcon->Render( iXPos + 103, iYPos + 98 );

  000a1	8b 83 94 01 00
	00		 mov	 eax, DWORD PTR [ebx+404]
  000a7	8b 10		 mov	 edx, DWORD PTR [eax]
  000a9	57		 push	 edi
  000aa	57		 push	 edi
  000ab	57		 push	 edi
  000ac	57		 push	 edi
  000ad	51		 push	 ecx
  000ae	0f 57 c0	 xorps	 xmm0, xmm0
  000b1	51		 push	 ecx
  000b2	f3 0f 2a c6	 cvtsi2ss xmm0, esi
  000b6	f3 0f 11 44 24
	04		 movss	 DWORD PTR [esp+4], xmm0
  000bc	66 0f 6e 45 fc	 movd	 xmm0, DWORD PTR tv301[ebp]
  000c1	0f 5b c0	 cvtdq2ps xmm0, xmm0
  000c4	8b c8		 mov	 ecx, eax
  000c6	f3 0f 11 04 24	 movss	 DWORD PTR [esp], xmm0
  000cb	ff 12		 call	 DWORD PTR [edx]
$LN2@OnRender:

; 68   : 
; 69   : 	// UI内胶片 包访 (内胶片 付农)
; 70   : 	if( m_pCostumeMark )

  000cd	39 bb 98 01 00
	00		 cmp	 DWORD PTR [ebx+408], edi
  000d3	74 2a		 je	 SHORT $LN1@OnRender

; 71   : 		m_pCostumeMark->Render( iXPos + 103, iYPos + 98 );

  000d5	8b 8b 98 01 00
	00		 mov	 ecx, DWORD PTR [ebx+408]
  000db	8b 01		 mov	 eax, DWORD PTR [ecx]
  000dd	57		 push	 edi
  000de	57		 push	 edi
  000df	57		 push	 edi
  000e0	57		 push	 edi
  000e1	0f 57 c0	 xorps	 xmm0, xmm0
  000e4	51		 push	 ecx
  000e5	f3 0f 2a c6	 cvtsi2ss xmm0, esi
  000e9	51		 push	 ecx
  000ea	f3 0f 11 44 24
	04		 movss	 DWORD PTR [esp+4], xmm0
  000f0	66 0f 6e 45 fc	 movd	 xmm0, DWORD PTR tv301[ebp]
  000f5	0f 5b c0	 cvtdq2ps xmm0, xmm0
  000f8	f3 0f 11 04 24	 movss	 DWORD PTR [esp], xmm0
  000fd	ff 10		 call	 DWORD PTR [eax]
$LN1@OnRender:

; 72   : 
; 73   : 	g_FontMgr.SetTextStyle( TS_NORMAL );

  000ff	8b 35 00 00 00
	00		 mov	 esi, DWORD PTR __imp_?GetSingleton@ioFontManager@@SAAAV1@XZ
  00105	57		 push	 edi
  00106	ff d6		 call	 esi
  00108	8b c8		 mov	 ecx, eax
  0010a	ff 15 00 00 00
	00		 call	 DWORD PTR __imp_?SetTextStyle@ioFontManager@@QAEXW4TextStyle@@@Z

; 74   : 	g_FontMgr.SetAlignType( TAT_CENTER );

  00110	6a 01		 push	 1
  00112	ff d6		 call	 esi
  00114	8b c8		 mov	 ecx, eax
  00116	ff 15 00 00 00
	00		 call	 DWORD PTR __imp_?SetAlignType@ioFontManager@@QAEXW4TextAlignType@@@Z

; 75   : 	g_FontMgr.SetBkColor( 0, 0, 0 );

  0011c	57		 push	 edi
  0011d	57		 push	 edi
  0011e	57		 push	 edi
  0011f	ff d6		 call	 esi
  00121	8b c8		 mov	 ecx, eax
  00123	ff 15 00 00 00
	00		 call	 DWORD PTR __imp_?SetBkColor@ioFontManager@@QAEXHHH@Z

; 76   : 	g_FontMgr.SetTextColor( TCT_DEFAULT_DARKGRAY );

  00129	68 3a 3a 3a ff	 push	 -12961222		; ff3a3a3aH
  0012e	ff d6		 call	 esi
  00130	8b c8		 mov	 ecx, eax
  00132	ff 15 00 00 00
	00		 call	 DWORD PTR __imp_?SetTextColor@ioFontManager@@QAEXK@Z

; 77   : 	g_FontMgr.PrintText( iXPos + 103, iYPos + 144, FONT_SIZE_13, STR(1), m_szClassName.c_str() ); 

  00138	66 0f 6e 45 fc	 movd	 xmm0, DWORD PTR tv301[ebp]
  0013d	0f 5b c0	 cvtdq2ps xmm0, xmm0
  00140	8d 8b 9c 01 00
	00		 lea	 ecx, DWORD PTR [ebx+412]
  00146	f3 0f 11 45 fc	 movss	 DWORD PTR tv314[ebp], xmm0
  0014b	ff 15 00 00 00
	00		 call	 DWORD PTR __imp_?c_str@ioHashString@@QBEPBDXZ
  00151	50		 push	 eax
  00152	57		 push	 edi
  00153	6a 01		 push	 1
  00155	68 00 00 00 00	 push	 OFFSET ??_C@_00CNPNBAHC@?$AA@
  0015a	68 00 00 00 00	 push	 OFFSET ??_C@_0BO@JLDFAMHO@ioCostumeReleaseWnd?3?3OnRender?$AA@
  0015f	ff 15 00 00 00
	00		 call	 DWORD PTR __imp_?GetSingleton@ioStringManager@@SAAAV1@XZ
  00165	8b c8		 mov	 ecx, eax
  00167	ff 15 00 00 00
	00		 call	 DWORD PTR __imp_?GetString@ioStringManager@@QAEPADPBD0HW4FileNamePrefix@1@@Z
  0016d	f3 0f 10 05 00
	00 00 00	 movss	 xmm0, DWORD PTR __real@3f266666
  00175	50		 push	 eax
  00176	8b 45 f8	 mov	 eax, DWORD PTR _iYPos$[ebp]
  00179	83 ec 0c	 sub	 esp, 12			; 0000000cH
  0017c	f3 0f 11 44 24
	08		 movss	 DWORD PTR [esp+8], xmm0
  00182	05 90 00 00 00	 add	 eax, 144		; 00000090H
  00187	0f 57 c0	 xorps	 xmm0, xmm0
  0018a	f3 0f 2a c0	 cvtsi2ss xmm0, eax
  0018e	f3 0f 11 44 24
	04		 movss	 DWORD PTR [esp+4], xmm0
  00194	f3 0f 10 45 fc	 movss	 xmm0, DWORD PTR tv314[ebp]
  00199	f3 0f 11 04 24	 movss	 DWORD PTR [esp], xmm0
  0019e	ff d6		 call	 esi
  001a0	8b c8		 mov	 ecx, eax
  001a2	ff 15 00 00 00
	00		 call	 DWORD PTR __imp_?PrintText@ioFontManager@@QAEXMMMPBD0@Z

; 78   : 	g_FontMgr.PrintText( iXPos + 103, iYPos + 162, FONT_SIZE_13, STR(2), m_szName.c_str() ); 

  001a8	8d 8b ac 01 00
	00		 lea	 ecx, DWORD PTR [ebx+428]
  001ae	ff 15 00 00 00
	00		 call	 DWORD PTR __imp_?c_str@ioHashString@@QBEPBDXZ
  001b4	8b 1d 00 00 00
	00		 mov	 ebx, DWORD PTR __imp_?GetSingleton@ioStringManager@@SAAAV1@XZ
  001ba	50		 push	 eax
  001bb	57		 push	 edi
  001bc	6a 02		 push	 2
  001be	68 00 00 00 00	 push	 OFFSET ??_C@_00CNPNBAHC@?$AA@
  001c3	68 00 00 00 00	 push	 OFFSET ??_C@_0BO@JLDFAMHO@ioCostumeReleaseWnd?3?3OnRender?$AA@
  001c8	ff d3		 call	 ebx
  001ca	8b c8		 mov	 ecx, eax
  001cc	ff 15 00 00 00
	00		 call	 DWORD PTR __imp_?GetString@ioStringManager@@QAEPADPBD0HW4FileNamePrefix@1@@Z
  001d2	f3 0f 10 05 00
	00 00 00	 movss	 xmm0, DWORD PTR __real@3f266666
  001da	50		 push	 eax
  001db	8b 45 f8	 mov	 eax, DWORD PTR _iYPos$[ebp]
  001de	83 ec 0c	 sub	 esp, 12			; 0000000cH
  001e1	f3 0f 11 44 24
	08		 movss	 DWORD PTR [esp+8], xmm0
  001e7	05 a2 00 00 00	 add	 eax, 162		; 000000a2H
  001ec	0f 57 c0	 xorps	 xmm0, xmm0
  001ef	f3 0f 2a c0	 cvtsi2ss xmm0, eax
  001f3	f3 0f 11 44 24
	04		 movss	 DWORD PTR [esp+4], xmm0
  001f9	f3 0f 10 45 fc	 movss	 xmm0, DWORD PTR tv314[ebp]
  001fe	f3 0f 11 04 24	 movss	 DWORD PTR [esp], xmm0
  00203	ff d6		 call	 esi
  00205	8b c8		 mov	 ecx, eax
  00207	ff 15 00 00 00
	00		 call	 DWORD PTR __imp_?PrintText@ioFontManager@@QAEXMMMPBD0@Z

; 79   : 	g_FontMgr.SetTextColor( TCT_DEFAULT_GRAY );

  0020d	68 6e 6e 6e ff	 push	 -9539986		; ff6e6e6eH
  00212	ff d6		 call	 esi
  00214	8b c8		 mov	 ecx, eax
  00216	ff 15 00 00 00
	00		 call	 DWORD PTR __imp_?SetTextColor@ioFontManager@@QAEXK@Z

; 80   : 	g_FontMgr.PrintText( iXPos + 103, iYPos + 180, FONT_SIZE_13, STR(3) ); 

  0021c	57		 push	 edi
  0021d	6a 03		 push	 3
  0021f	68 00 00 00 00	 push	 OFFSET ??_C@_00CNPNBAHC@?$AA@
  00224	68 00 00 00 00	 push	 OFFSET ??_C@_0BO@JLDFAMHO@ioCostumeReleaseWnd?3?3OnRender?$AA@
  00229	ff d3		 call	 ebx
  0022b	8b c8		 mov	 ecx, eax
  0022d	ff 15 00 00 00
	00		 call	 DWORD PTR __imp_?GetString@ioStringManager@@QAEPADPBD0HW4FileNamePrefix@1@@Z
  00233	f3 0f 10 05 00
	00 00 00	 movss	 xmm0, DWORD PTR __real@3f266666
  0023b	50		 push	 eax
  0023c	8b 45 f8	 mov	 eax, DWORD PTR _iYPos$[ebp]
  0023f	83 ec 0c	 sub	 esp, 12			; 0000000cH
  00242	f3 0f 11 44 24
	08		 movss	 DWORD PTR [esp+8], xmm0
  00248	05 b4 00 00 00	 add	 eax, 180		; 000000b4H
  0024d	0f 57 c0	 xorps	 xmm0, xmm0
  00250	f3 0f 2a c0	 cvtsi2ss xmm0, eax
  00254	f3 0f 11 44 24
	04		 movss	 DWORD PTR [esp+4], xmm0
  0025a	f3 0f 10 45 fc	 movss	 xmm0, DWORD PTR tv314[ebp]
  0025f	f3 0f 11 04 24	 movss	 DWORD PTR [esp], xmm0
  00264	ff d6		 call	 esi
  00266	50		 push	 eax
  00267	ff 15 00 00 00
	00		 call	 DWORD PTR __imp_?PrintText@ioFontManager@@QAAXMMMPBDZZ
  0026d	83 c4 14	 add	 esp, 20			; 00000014H
  00270	5f		 pop	 edi
  00271	5e		 pop	 esi
  00272	5b		 pop	 ebx

; 81   : }

  00273	c9		 leave
  00274	c3		 ret	 0
?OnRender@ioCostumeReleaseWnd@@MAEXXZ ENDP		; ioCostumeReleaseWnd::OnRender
_TEXT	ENDS
EXTRN	?GetGradeType@ioCostumeInfoManager@@QAEHH@Z:PROC ; ioCostumeInfoManager::GetGradeType
EXTRN	?GetSingleton@ioCostumeInfoManager@@SAAAV1@XZ:PROC ; ioCostumeInfoManager::GetSingleton
EXTRN	__imp_?CreateImageByFullName@ioUIImageSetManager@@QAEPAVioUIRenderImage@@ABVioHashString@@_N@Z:PROC
EXTRN	__imp_?GetSingleton@ioUIImageSetManager@@SAAAV1@XZ:PROC
EXTRN	?GetFirstDeleteCostume@ioMyInfo@@QAEXAAVioHashString@@00AAH@Z:PROC ; ioMyInfo::GetFirstDeleteCostume
EXTRN	__imp_?Clear@ioHashString@@QAEXXZ:PROC
; Function compile flags: /Ogsp
;	COMDAT ?iwm_show@ioCostumeReleaseWnd@@UAEXXZ
_TEXT	SEGMENT
_nCostumeCode$ = -4					; size = 4
?iwm_show@ioCostumeReleaseWnd@@UAEXXZ PROC		; ioCostumeReleaseWnd::iwm_show, COMDAT
; _this$ = ecx

; 84   : {

  00000	55		 push	 ebp
  00001	8b ec		 mov	 ebp, esp
  00003	51		 push	 ecx
  00004	53		 push	 ebx
  00005	56		 push	 esi
  00006	8b f1		 mov	 esi, ecx

; 85   : 	SAFEDELETE( m_pCostumeIcon );

  00008	8b 8e 94 01 00
	00		 mov	 ecx, DWORD PTR [esi+404]
  0000e	57		 push	 edi
  0000f	85 c9		 test	 ecx, ecx
  00011	74 0e		 je	 SHORT $LN1@iwm_show
  00013	8b 01		 mov	 eax, DWORD PTR [ecx]
  00015	6a 01		 push	 1
  00017	ff 50 40	 call	 DWORD PTR [eax+64]
  0001a	83 a6 94 01 00
	00 00		 and	 DWORD PTR [esi+404], 0
$LN1@iwm_show:

; 86   : 	m_szClassName.Clear();

  00021	8b 3d 00 00 00
	00		 mov	 edi, DWORD PTR __imp_?Clear@ioHashString@@QAEXXZ
  00027	8d 8e 9c 01 00
	00		 lea	 ecx, DWORD PTR [esi+412]
  0002d	ff d7		 call	 edi

; 87   : 	m_szName.Clear();

  0002f	8d 8e ac 01 00
	00		 lea	 ecx, DWORD PTR [esi+428]
  00035	ff d7		 call	 edi

; 88   : 	m_szIconName.Clear();

  00037	8d 9e bc 01 00
	00		 lea	 ebx, DWORD PTR [esi+444]
  0003d	8b cb		 mov	 ecx, ebx
  0003f	ff d7		 call	 edi

; 89   : 
; 90   : 	int nCostumeCode = 0;

  00041	83 65 fc 00	 and	 DWORD PTR _nCostumeCode$[ebp], 0

; 91   : 
; 92   : 	g_MyInfo.GetFirstDeleteCostume( m_szClassName, m_szName, m_szIconName, nCostumeCode );

  00045	8d 45 fc	 lea	 eax, DWORD PTR _nCostumeCode$[ebp]
  00048	50		 push	 eax
  00049	53		 push	 ebx
  0004a	8d 86 ac 01 00
	00		 lea	 eax, DWORD PTR [esi+428]
  00050	50		 push	 eax
  00051	8d 86 9c 01 00
	00		 lea	 eax, DWORD PTR [esi+412]
  00057	50		 push	 eax
  00058	e8 00 00 00 00	 call	 ?GetSingleton@ioMyInfo@@SAAAV1@XZ ; ioMyInfo::GetSingleton
  0005d	8b c8		 mov	 ecx, eax
  0005f	e8 00 00 00 00	 call	 ?GetFirstDeleteCostume@ioMyInfo@@QAEXAAVioHashString@@00AAH@Z ; ioMyInfo::GetFirstDeleteCostume

; 93   : 	m_pCostumeIcon = g_UIImageSetMgr.CreateImageByFullName( m_szIconName );

  00064	6a 00		 push	 0
  00066	53		 push	 ebx
  00067	ff 15 00 00 00
	00		 call	 DWORD PTR __imp_?GetSingleton@ioUIImageSetManager@@SAAAV1@XZ
  0006d	8b c8		 mov	 ecx, eax
  0006f	ff 15 00 00 00
	00		 call	 DWORD PTR __imp_?CreateImageByFullName@ioUIImageSetManager@@QAEPAVioUIRenderImage@@ABVioHashString@@_N@Z

; 94   : 
; 95   : 	m_nGradeType = g_CostumeInfoMgr.GetGradeType( nCostumeCode );

  00075	ff 75 fc	 push	 DWORD PTR _nCostumeCode$[ebp]
  00078	89 86 94 01 00
	00		 mov	 DWORD PTR [esi+404], eax
  0007e	e8 00 00 00 00	 call	 ?GetSingleton@ioCostumeInfoManager@@SAAAV1@XZ ; ioCostumeInfoManager::GetSingleton
  00083	8b c8		 mov	 ecx, eax
  00085	e8 00 00 00 00	 call	 ?GetGradeType@ioCostumeInfoManager@@QAEHH@Z ; ioCostumeInfoManager::GetGradeType
  0008a	5f		 pop	 edi
  0008b	89 86 cc 01 00
	00		 mov	 DWORD PTR [esi+460], eax
  00091	5e		 pop	 esi
  00092	5b		 pop	 ebx

; 96   : }

  00093	c9		 leave
  00094	c3		 ret	 0
?iwm_show@ioCostumeReleaseWnd@@UAEXXZ ENDP		; ioCostumeReleaseWnd::iwm_show
; Function compile flags: /Ogsp
_TEXT	ENDS
;	COMDAT ?iwm_hide@ioCostumeReleaseWnd@@UAEXXZ
_TEXT	SEGMENT
?iwm_hide@ioCostumeReleaseWnd@@UAEXXZ PROC		; ioCostumeReleaseWnd::iwm_hide, COMDAT
; _this$ = ecx

; 99   : {

  00000	56		 push	 esi
  00001	8b f1		 mov	 esi, ecx
  00003	57		 push	 edi

; 100  : 	m_szClassName.Clear();

  00004	8b 3d 00 00 00
	00		 mov	 edi, DWORD PTR __imp_?Clear@ioHashString@@QAEXXZ
  0000a	8d 8e 9c 01 00
	00		 lea	 ecx, DWORD PTR [esi+412]
  00010	ff d7		 call	 edi

; 101  : 	m_szName.Clear();

  00012	8d 8e ac 01 00
	00		 lea	 ecx, DWORD PTR [esi+428]
  00018	ff d7		 call	 edi

; 102  : 	m_szIconName.Clear();

  0001a	8d 8e bc 01 00
	00		 lea	 ecx, DWORD PTR [esi+444]
  00020	ff d7		 call	 edi

; 103  : 
; 104  : 	m_dwHideDelayTime = FRAMEGETTIME();

  00022	ff 15 00 00 00
	00		 call	 DWORD PTR __imp_?GetSingleton@ioFrameTimer@@SAAAV1@XZ
  00028	8b c8		 mov	 ecx, eax
  0002a	ff 15 00 00 00
	00		 call	 DWORD PTR __imp_?GetLoopSec@ioFrameTimer@@QBEKXZ
  00030	5f		 pop	 edi
  00031	89 86 d0 01 00
	00		 mov	 DWORD PTR [esi+464], eax
  00037	5e		 pop	 esi

; 105  : }

  00038	c3		 ret	 0
?iwm_hide@ioCostumeReleaseWnd@@UAEXXZ ENDP		; ioCostumeReleaseWnd::iwm_hide
_TEXT	ENDS
EXTRN	?EraseDeleteCostume@ioMyInfo@@QAEX_N@Z:PROC	; ioMyInfo::EraseDeleteCostume
EXTRN	__imp_?iwm_esc@ioWnd@@UAE_NXZ:PROC
; Function compile flags: /Ogsp
;	COMDAT ?iwm_esc@ioCostumeReleaseWnd@@UAE_NXZ
_TEXT	SEGMENT
?iwm_esc@ioCostumeReleaseWnd@@UAE_NXZ PROC		; ioCostumeReleaseWnd::iwm_esc, COMDAT
; _this$ = ecx

; 108  : {

  00000	56		 push	 esi
  00001	8b f1		 mov	 esi, ecx

; 109  : 	if( !IsShow() ) 

  00003	ff 15 00 00 00
	00		 call	 DWORD PTR __imp_?IsShow@ioWnd@@QBE_NXZ
  00009	84 c0		 test	 al, al

; 110  : 		return false;

  0000b	74 1e		 je	 SHORT $LN1@iwm_esc

; 111  : 
; 112  : 	if( ioWnd::iwm_esc() )

  0000d	8b ce		 mov	 ecx, esi
  0000f	ff 15 00 00 00
	00		 call	 DWORD PTR __imp_?iwm_esc@ioWnd@@UAE_NXZ
  00015	84 c0		 test	 al, al
  00017	74 12		 je	 SHORT $LN1@iwm_esc

; 113  : 	{
; 114  : 		g_MyInfo.EraseDeleteCostume( false );

  00019	6a 00		 push	 0
  0001b	e8 00 00 00 00	 call	 ?GetSingleton@ioMyInfo@@SAAAV1@XZ ; ioMyInfo::GetSingleton
  00020	8b c8		 mov	 ecx, eax
  00022	e8 00 00 00 00	 call	 ?EraseDeleteCostume@ioMyInfo@@QAEX_N@Z ; ioMyInfo::EraseDeleteCostume

; 115  : 		return true;

  00027	b0 01		 mov	 al, 1
  00029	5e		 pop	 esi

; 118  : }

  0002a	c3		 ret	 0
$LN1@iwm_esc:

; 116  : 	}
; 117  : 	return false;

  0002b	32 c0		 xor	 al, al
  0002d	5e		 pop	 esi

; 118  : }

  0002e	c3		 ret	 0
?iwm_esc@ioCostumeReleaseWnd@@UAE_NXZ ENDP		; ioCostumeReleaseWnd::iwm_esc
_TEXT	ENDS
EXTRN	__imp_?HideWnd@ioWnd@@QAEXXZ:PROC
EXTRN	__imp_?GetID@ioWnd@@QBEKXZ:PROC
; Function compile flags: /Ogsp
;	COMDAT ?iwm_command@ioCostumeReleaseWnd@@UAEXPAVioWnd@@HK@Z
_TEXT	SEGMENT
_pWnd$ = 8						; size = 4
_cmd$ = 12						; size = 4
_param$ = 16						; size = 4
?iwm_command@ioCostumeReleaseWnd@@UAEXPAVioWnd@@HK@Z PROC ; ioCostumeReleaseWnd::iwm_command, COMDAT
; _this$ = ecx

; 121  : {

  00000	55		 push	 ebp
  00001	8b ec		 mov	 ebp, esp
  00003	56		 push	 esi
  00004	8b f1		 mov	 esi, ecx

; 122  : 	DWORD dwID = pWnd->GetID();

  00006	8b 4d 08	 mov	 ecx, DWORD PTR _pWnd$[ebp]
  00009	ff 15 00 00 00
	00		 call	 DWORD PTR __imp_?GetID@ioWnd@@QBEKXZ

; 123  : 
; 124  : 	switch( dwID )

  0000f	48		 dec	 eax
  00010	74 06		 je	 SHORT $LN2@iwm_comman
  00012	48		 dec	 eax
  00013	74 24		 je	 SHORT $LN4@iwm_comman
  00015	48		 dec	 eax
  00016	75 1c		 jne	 SHORT $LN1@iwm_comman
$LN2@iwm_comman:

; 133  : 	case ID_X:
; 134  : 	case ID_OK:
; 135  : 		if( cmd == IOBN_BTNUP )

  00018	83 7d 0c 11	 cmp	 DWORD PTR _cmd$[ebp], 17 ; 00000011H
  0001c	75 16		 jne	 SHORT $LN1@iwm_comman

; 136  : 		{
; 137  : 			g_MyInfo.EraseDeleteCostume( false );

  0001e	6a 00		 push	 0
$LN9@iwm_comman:
  00020	e8 00 00 00 00	 call	 ?GetSingleton@ioMyInfo@@SAAAV1@XZ ; ioMyInfo::GetSingleton
  00025	8b c8		 mov	 ecx, eax
  00027	e8 00 00 00 00	 call	 ?EraseDeleteCostume@ioMyInfo@@QAEX_N@Z ; ioMyInfo::EraseDeleteCostume

; 138  : 			HideWnd();

  0002c	8b ce		 mov	 ecx, esi
  0002e	ff 15 00 00 00
	00		 call	 DWORD PTR __imp_?HideWnd@ioWnd@@QAEXXZ
$LN1@iwm_comman:
  00034	5e		 pop	 esi

; 139  : 		}
; 140  : 		break;
; 141  : 	}
; 142  : }

  00035	5d		 pop	 ebp
  00036	c2 0c 00	 ret	 12			; 0000000cH
$LN4@iwm_comman:

; 125  : 	{
; 126  : 	case ID_ALL_OK:
; 127  : 		if( cmd == IOBN_BTNUP )

  00039	83 7d 0c 11	 cmp	 DWORD PTR _cmd$[ebp], 17 ; 00000011H
  0003d	75 f5		 jne	 SHORT $LN1@iwm_comman

; 128  : 		{
; 129  : 			g_MyInfo.EraseDeleteCostume( true );

  0003f	6a 01		 push	 1

; 130  : 			HideWnd();
; 131  : 		}
; 132  : 		break;

  00041	eb dd		 jmp	 SHORT $LN9@iwm_comman
?iwm_command@ioCostumeReleaseWnd@@UAEXPAVioWnd@@HK@Z ENDP ; ioCostumeReleaseWnd::iwm_command
_TEXT	ENDS
PUBLIC	?_DECSTR@@YAXPADH@Z				; _DECSTR
; Function compile flags: /Ogsp
; File d:\lost saga for developer\youtube\tutorial\source\src\lsclient\stringprotect.h
;	COMDAT ?_DECSTR@@YAXPADH@Z
_TEXT	SEGMENT
_s$ = 8							; size = 4
_l$ = 12						; size = 4
?_DECSTR@@YAXPADH@Z PROC				; _DECSTR, COMDAT

; 40   : __forceinline void _DECSTR(char* s, int l){int i=0,l4=(l-1)/4,*p=(int*)s;s[l-1]=0;for(;i<l4;++i)*(p++)^=0xEAEBECED;for(i=l4*4;i<l-1;++i)s[i]^=0xED-i%4;}

  00000	55		 push	 ebp
  00001	8b ec		 mov	 ebp, esp
  00003	8b 4d 0c	 mov	 ecx, DWORD PTR _l$[ebp]
  00006	56		 push	 esi
  00007	8b 75 08	 mov	 esi, DWORD PTR _s$[ebp]
  0000a	57		 push	 edi
  0000b	8d 79 ff	 lea	 edi, DWORD PTR [ecx-1]
  0000e	8b c7		 mov	 eax, edi
  00010	99		 cdq
  00011	83 e2 03	 and	 edx, 3
  00014	03 c2		 add	 eax, edx
  00016	c1 f8 02	 sar	 eax, 2
  00019	8b d6		 mov	 edx, esi
  0001b	c6 44 0e ff 00	 mov	 BYTE PTR [esi+ecx-1], 0
  00020	85 c0		 test	 eax, eax
  00022	7e 0e		 jle	 SHORT $LN4@DECSTR
  00024	8b c8		 mov	 ecx, eax
$LL6@DECSTR:
  00026	81 32 ed ec eb
	ea		 xor	 DWORD PTR [edx], -353637139 ; eaebecedH
  0002c	83 c2 04	 add	 edx, 4
  0002f	49		 dec	 ecx
  00030	75 f4		 jne	 SHORT $LL6@DECSTR
$LN4@DECSTR:
  00032	c1 e0 02	 shl	 eax, 2
  00035	eb 17		 jmp	 SHORT $LN14@DECSTR
$LL3@DECSTR:
  00037	8b c8		 mov	 ecx, eax
  00039	81 e1 03 00 00
	80		 and	 ecx, -2147483645	; 80000003H
  0003f	79 05		 jns	 SHORT $LN13@DECSTR
  00041	49		 dec	 ecx
  00042	83 c9 fc	 or	 ecx, -4			; fffffffcH
  00045	41		 inc	 ecx
$LN13@DECSTR:
  00046	b2 ed		 mov	 dl, -19			; ffffffedH
  00048	2a d1		 sub	 dl, cl
  0004a	30 14 30	 xor	 BYTE PTR [eax+esi], dl
  0004d	40		 inc	 eax
$LN14@DECSTR:
  0004e	3b c7		 cmp	 eax, edi
  00050	7c e5		 jl	 SHORT $LL3@DECSTR
  00052	5f		 pop	 edi
  00053	5e		 pop	 esi
  00054	5d		 pop	 ebp
  00055	c3		 ret	 0
?_DECSTR@@YAXPADH@Z ENDP				; _DECSTR
_TEXT	ENDS
EXTRN	??3@YAXPAX@Z:PROC				; operator delete
; Function compile flags: /Ogsp
;	COMDAT ??_GioCostumeReleaseWnd@@UAEPAXI@Z
_TEXT	SEGMENT
___flags$ = 8						; size = 4
??_GioCostumeReleaseWnd@@UAEPAXI@Z PROC			; ioCostumeReleaseWnd::`scalar deleting destructor', COMDAT
; _this$ = ecx
  00000	55		 push	 ebp
  00001	8b ec		 mov	 ebp, esp
  00003	56		 push	 esi
  00004	8b f1		 mov	 esi, ecx
  00006	e8 00 00 00 00	 call	 ??1ioCostumeReleaseWnd@@UAE@XZ ; ioCostumeReleaseWnd::~ioCostumeReleaseWnd
  0000b	f6 45 08 01	 test	 BYTE PTR ___flags$[ebp], 1
  0000f	74 07		 je	 SHORT $LN1@scalar
  00011	56		 push	 esi
  00012	e8 00 00 00 00	 call	 ??3@YAXPAX@Z		; operator delete
  00017	59		 pop	 ecx
$LN1@scalar:
  00018	8b c6		 mov	 eax, esi
  0001a	5e		 pop	 esi
  0001b	5d		 pop	 ebp
  0001c	c2 04 00	 ret	 4
??_GioCostumeReleaseWnd@@UAEPAXI@Z ENDP			; ioCostumeReleaseWnd::`scalar deleting destructor'
_TEXT	ENDS
PUBLIC	__$ArrayPad$
PUBLIC	??$?8$08@@YA_NABVioHashString@@AAY08$$CBD@Z	; operator==<9>
EXTRN	___security_cookie:DWORD
; Function compile flags: /Ogsp
; File d:\lost saga for developer\youtube\tutorial\source\src\io3dengine\iohashstring.h
;	COMDAT ??$?8$08@@YA_NABVioHashString@@AAY08$$CBD@Z
_TEXT	SEGMENT
__t$ = -20						; size = 9
__$ArrayPad$ = -4					; size = 4
_lhs$ = 8						; size = 4
_t$ = 12						; size = 4
??$?8$08@@YA_NABVioHashString@@AAY08$$CBD@Z PROC	; operator==<9>, COMDAT

; 146  : {

  00000	55		 push	 ebp
  00001	8b ec		 mov	 ebp, esp
  00003	83 ec 14	 sub	 esp, 20			; 00000014H
  00006	a1 00 00 00 00	 mov	 eax, DWORD PTR ___security_cookie
  0000b	33 c5		 xor	 eax, ebp
  0000d	89 45 fc	 mov	 DWORD PTR __$ArrayPad$[ebp], eax
  00010	8b 45 0c	 mov	 eax, DWORD PTR _t$[ebp]

; 147  : 	_ENCSTR(t, _t); return ( strcmp( lhs.c_str(), _t ) == 0 );

  00013	8a 10		 mov	 dl, BYTE PTR [eax]
  00015	8b 4d 08	 mov	 ecx, DWORD PTR _lhs$[ebp]
  00018	84 d2		 test	 dl, dl
  0001a	0f 84 ee 00 00
	00		 je	 $LN96@operator
  00020	80 f2 ed	 xor	 dl, -19			; ffffffedH
  00023	88 55 ec	 mov	 BYTE PTR __t$[ebp], dl
  00026	8a 50 01	 mov	 dl, BYTE PTR [eax+1]
  00029	84 d2		 test	 dl, dl
  0002b	0f 84 d7 00 00
	00		 je	 $LN95@operator
  00031	80 f2 ec	 xor	 dl, -20			; ffffffecH
  00034	88 55 ed	 mov	 BYTE PTR __t$[ebp+1], dl
  00037	8a 50 02	 mov	 dl, BYTE PTR [eax+2]
  0003a	84 d2		 test	 dl, dl
  0003c	0f 84 c0 00 00
	00		 je	 $LN94@operator
  00042	80 f2 eb	 xor	 dl, -21			; ffffffebH
  00045	88 55 ee	 mov	 BYTE PTR __t$[ebp+2], dl
  00048	8a 50 03	 mov	 dl, BYTE PTR [eax+3]
  0004b	84 d2		 test	 dl, dl
  0004d	0f 84 a9 00 00
	00		 je	 $LN93@operator
  00053	80 f2 ea	 xor	 dl, -22			; ffffffeaH
  00056	88 55 ef	 mov	 BYTE PTR __t$[ebp+3], dl
  00059	8a 50 04	 mov	 dl, BYTE PTR [eax+4]
  0005c	84 d2		 test	 dl, dl
  0005e	0f 84 92 00 00
	00		 je	 $LN92@operator
  00064	80 f2 ed	 xor	 dl, -19			; ffffffedH
  00067	88 55 f0	 mov	 BYTE PTR __t$[ebp+4], dl
  0006a	8a 50 05	 mov	 dl, BYTE PTR [eax+5]
  0006d	84 d2		 test	 dl, dl
  0006f	74 7f		 je	 SHORT $LN91@operator
  00071	80 f2 ec	 xor	 dl, -20			; ffffffecH
  00074	88 55 f1	 mov	 BYTE PTR __t$[ebp+5], dl
  00077	8a 50 06	 mov	 dl, BYTE PTR [eax+6]
  0007a	84 d2		 test	 dl, dl
  0007c	74 6c		 je	 SHORT $LN90@operator
  0007e	80 f2 eb	 xor	 dl, -21			; ffffffebH
  00081	88 55 f2	 mov	 BYTE PTR __t$[ebp+6], dl
  00084	8a 50 07	 mov	 dl, BYTE PTR [eax+7]
  00087	84 d2		 test	 dl, dl
  00089	74 59		 je	 SHORT $LN89@operator
  0008b	80 f2 ea	 xor	 dl, -22			; ffffffeaH
  0008e	80 78 08 00	 cmp	 BYTE PTR [eax+8], 0
  00092	88 55 f3	 mov	 BYTE PTR __t$[ebp+7], dl
  00095	74 7b		 je	 SHORT $LN1@operator
  00097	8a 50 09	 mov	 dl, BYTE PTR [eax+9]
  0009a	84 d2		 test	 dl, dl
  0009c	74 40		 je	 SHORT $LN87@operator
  0009e	80 f2 ec	 xor	 dl, -20			; ffffffecH
  000a1	88 55 f5	 mov	 BYTE PTR __t$[ebp+9], dl
  000a4	8a 50 0a	 mov	 dl, BYTE PTR [eax+10]
  000a7	84 d2		 test	 dl, dl
  000a9	74 2d		 je	 SHORT $LN86@operator
  000ab	80 f2 eb	 xor	 dl, -21			; ffffffebH
  000ae	88 55 f6	 mov	 BYTE PTR __t$[ebp+10], dl
  000b1	8a 50 0b	 mov	 dl, BYTE PTR [eax+11]
  000b4	84 d2		 test	 dl, dl
  000b6	74 1a		 je	 SHORT $LN85@operator
  000b8	8a 40 0c	 mov	 al, BYTE PTR [eax+12]
  000bb	80 f2 ea	 xor	 dl, -22			; ffffffeaH
  000be	88 55 f7	 mov	 BYTE PTR __t$[ebp+11], dl
  000c1	84 c0		 test	 al, al
  000c3	74 07		 je	 SHORT $LN84@operator
  000c5	34 ed		 xor	 al, -19			; ffffffedH
  000c7	88 45 f8	 mov	 BYTE PTR __t$[ebp+12], al
  000ca	eb 46		 jmp	 SHORT $LN1@operator
$LN84@operator:
  000cc	c6 45 f8 ed	 mov	 BYTE PTR __t$[ebp+12], -19 ; ffffffedH
  000d0	eb 40		 jmp	 SHORT $LN1@operator
$LN85@operator:
  000d2	c6 45 f7 ea	 mov	 BYTE PTR __t$[ebp+11], -22 ; ffffffeaH
  000d6	eb 3a		 jmp	 SHORT $LN1@operator
$LN86@operator:
  000d8	c6 45 f6 eb	 mov	 BYTE PTR __t$[ebp+10], -21 ; ffffffebH
  000dc	eb 34		 jmp	 SHORT $LN1@operator
$LN87@operator:
  000de	c6 45 f5 ec	 mov	 BYTE PTR __t$[ebp+9], -20 ; ffffffecH
  000e2	eb 2e		 jmp	 SHORT $LN1@operator
$LN89@operator:
  000e4	c6 45 f3 ea	 mov	 BYTE PTR __t$[ebp+7], -22 ; ffffffeaH
  000e8	eb 28		 jmp	 SHORT $LN1@operator
$LN90@operator:
  000ea	c6 45 f2 eb	 mov	 BYTE PTR __t$[ebp+6], -21 ; ffffffebH
  000ee	eb 22		 jmp	 SHORT $LN1@operator
$LN91@operator:
  000f0	c6 45 f1 ec	 mov	 BYTE PTR __t$[ebp+5], -20 ; ffffffecH
  000f4	eb 1c		 jmp	 SHORT $LN1@operator
$LN92@operator:
  000f6	c6 45 f0 ed	 mov	 BYTE PTR __t$[ebp+4], -19 ; ffffffedH
  000fa	eb 16		 jmp	 SHORT $LN1@operator
$LN93@operator:
  000fc	c6 45 ef ea	 mov	 BYTE PTR __t$[ebp+3], -22 ; ffffffeaH
  00100	eb 10		 jmp	 SHORT $LN1@operator
$LN94@operator:
  00102	c6 45 ee eb	 mov	 BYTE PTR __t$[ebp+2], -21 ; ffffffebH
  00106	eb 0a		 jmp	 SHORT $LN1@operator
$LN95@operator:
  00108	c6 45 ed ec	 mov	 BYTE PTR __t$[ebp+1], -20 ; ffffffecH
  0010c	eb 04		 jmp	 SHORT $LN1@operator
$LN96@operator:
  0010e	c6 45 ec ed	 mov	 BYTE PTR __t$[ebp], -19	; ffffffedH
$LN1@operator:
  00112	6a 02		 push	 2
  00114	8d 45 ec	 lea	 eax, DWORD PTR __t$[ebp]
  00117	c6 45 f4 00	 mov	 BYTE PTR __t$[ebp+8], 0
  0011b	5a		 pop	 edx
$LL104@operator:
  0011c	81 30 ed ec eb
	ea		 xor	 DWORD PTR [eax], -353637139 ; eaebecedH
  00122	83 c0 04	 add	 eax, 4
  00125	4a		 dec	 edx
  00126	75 f4		 jne	 SHORT $LL104@operator
  00128	56		 push	 esi
  00129	8d 75 ec	 lea	 esi, DWORD PTR __t$[ebp]
  0012c	ff 15 00 00 00
	00		 call	 DWORD PTR __imp_?c_str@ioHashString@@QBEPBDXZ
$LL111@operator:
  00132	8a 08		 mov	 cl, BYTE PTR [eax]
  00134	3a 0e		 cmp	 cl, BYTE PTR [esi]
  00136	75 1a		 jne	 SHORT $LN112@operator
  00138	84 c9		 test	 cl, cl
  0013a	74 12		 je	 SHORT $LN113@operator
  0013c	8a 48 01	 mov	 cl, BYTE PTR [eax+1]
  0013f	3a 4e 01	 cmp	 cl, BYTE PTR [esi+1]
  00142	75 0e		 jne	 SHORT $LN112@operator
  00144	83 c0 02	 add	 eax, 2
  00147	83 c6 02	 add	 esi, 2
  0014a	84 c9		 test	 cl, cl
  0014c	75 e4		 jne	 SHORT $LL111@operator
$LN113@operator:
  0014e	33 c0		 xor	 eax, eax
  00150	eb 05		 jmp	 SHORT $LN114@operator
$LN112@operator:
  00152	1b c0		 sbb	 eax, eax
  00154	83 d8 ff	 sbb	 eax, -1
$LN114@operator:
  00157	33 c9		 xor	 ecx, ecx
  00159	85 c0		 test	 eax, eax
  0015b	0f 94 c0	 sete	 al

; 148  : }

  0015e	8b 4d fc	 mov	 ecx, DWORD PTR __$ArrayPad$[ebp]
  00161	33 cd		 xor	 ecx, ebp
  00163	5e		 pop	 esi
  00164	e8 00 00 00 00	 call	 @__security_check_cookie@4
  00169	c9		 leave
  0016a	c3		 ret	 0
??$?8$08@@YA_NABVioHashString@@AAY08$$CBD@Z ENDP	; operator==<9>
_TEXT	ENDS
PUBLIC	__$ArrayPad$
PUBLIC	??$?8$0O@@@YA_NABVioHashString@@AAY0O@$$CBD@Z	; operator==<14>
; Function compile flags: /Ogsp
;	COMDAT ??$?8$0O@@@YA_NABVioHashString@@AAY0O@$$CBD@Z
_TEXT	SEGMENT
__t$ = -24						; size = 14
__$ArrayPad$ = -4					; size = 4
_lhs$ = 8						; size = 4
_t$ = 12						; size = 4
??$?8$0O@@@YA_NABVioHashString@@AAY0O@$$CBD@Z PROC	; operator==<14>, COMDAT

; 146  : {

  00000	55		 push	 ebp
  00001	8b ec		 mov	 ebp, esp
  00003	83 ec 18	 sub	 esp, 24			; 00000018H
  00006	a1 00 00 00 00	 mov	 eax, DWORD PTR ___security_cookie
  0000b	33 c5		 xor	 eax, ebp
  0000d	89 45 fc	 mov	 DWORD PTR __$ArrayPad$[ebp], eax
  00010	8b 45 0c	 mov	 eax, DWORD PTR _t$[ebp]

; 147  : 	_ENCSTR(t, _t); return ( strcmp( lhs.c_str(), _t ) == 0 );

  00013	8a 10		 mov	 dl, BYTE PTR [eax]
  00015	56		 push	 esi
  00016	57		 push	 edi
  00017	8b 7d 08	 mov	 edi, DWORD PTR _lhs$[ebp]
  0001a	84 d2		 test	 dl, dl
  0001c	0f 84 64 01 00
	00		 je	 $LN96@operator@2
  00022	80 f2 ed	 xor	 dl, -19			; ffffffedH
  00025	88 55 e8	 mov	 BYTE PTR __t$[ebp], dl
  00028	8a 50 01	 mov	 dl, BYTE PTR [eax+1]
  0002b	84 d2		 test	 dl, dl
  0002d	0f 84 4d 01 00
	00		 je	 $LN95@operator@2
  00033	80 f2 ec	 xor	 dl, -20			; ffffffecH
  00036	88 55 e9	 mov	 BYTE PTR __t$[ebp+1], dl
  00039	8a 50 02	 mov	 dl, BYTE PTR [eax+2]
  0003c	84 d2		 test	 dl, dl
  0003e	0f 84 36 01 00
	00		 je	 $LN94@operator@2
  00044	b1 eb		 mov	 cl, -21			; ffffffebH
  00046	32 d1		 xor	 dl, cl
  00048	88 55 ea	 mov	 BYTE PTR __t$[ebp+2], dl
  0004b	8a 50 03	 mov	 dl, BYTE PTR [eax+3]
  0004e	84 d2		 test	 dl, dl
  00050	0f 84 1e 01 00
	00		 je	 $LN93@operator@2
  00056	80 f2 ea	 xor	 dl, -22			; ffffffeaH
  00059	88 55 eb	 mov	 BYTE PTR __t$[ebp+3], dl
  0005c	8a 50 04	 mov	 dl, BYTE PTR [eax+4]
  0005f	84 d2		 test	 dl, dl
  00061	0f 84 07 01 00
	00		 je	 $LN92@operator@2
  00067	80 f2 ed	 xor	 dl, -19			; ffffffedH
  0006a	88 55 ec	 mov	 BYTE PTR __t$[ebp+4], dl
  0006d	8a 50 05	 mov	 dl, BYTE PTR [eax+5]
  00070	84 d2		 test	 dl, dl
  00072	0f 84 f0 00 00
	00		 je	 $LN91@operator@2
  00078	80 f2 ec	 xor	 dl, -20			; ffffffecH
  0007b	88 55 ed	 mov	 BYTE PTR __t$[ebp+5], dl
  0007e	8a 50 06	 mov	 dl, BYTE PTR [eax+6]
  00081	84 d2		 test	 dl, dl
  00083	0f 84 da 00 00
	00		 je	 $LN90@operator@2
  00089	32 d1		 xor	 dl, cl
  0008b	88 55 ee	 mov	 BYTE PTR __t$[ebp+6], dl
  0008e	8a 50 07	 mov	 dl, BYTE PTR [eax+7]
  00091	84 d2		 test	 dl, dl
  00093	0f 84 c4 00 00
	00		 je	 $LN89@operator@2
  00099	80 f2 ea	 xor	 dl, -22			; ffffffeaH
  0009c	88 55 ef	 mov	 BYTE PTR __t$[ebp+7], dl
  0009f	8a 50 08	 mov	 dl, BYTE PTR [eax+8]
  000a2	84 d2		 test	 dl, dl
  000a4	0f 84 ad 00 00
	00		 je	 $LN88@operator@2
  000aa	80 f2 ed	 xor	 dl, -19			; ffffffedH
  000ad	88 55 f0	 mov	 BYTE PTR __t$[ebp+8], dl
  000b0	8a 50 09	 mov	 dl, BYTE PTR [eax+9]
  000b3	84 d2		 test	 dl, dl
  000b5	0f 84 96 00 00
	00		 je	 $LN87@operator@2
  000bb	80 f2 ec	 xor	 dl, -20			; ffffffecH
  000be	88 55 f1	 mov	 BYTE PTR __t$[ebp+9], dl
  000c1	8a 50 0a	 mov	 dl, BYTE PTR [eax+10]
  000c4	84 d2		 test	 dl, dl
  000c6	0f 84 80 00 00
	00		 je	 $LN86@operator@2
  000cc	32 d1		 xor	 dl, cl
  000ce	88 55 f2	 mov	 BYTE PTR __t$[ebp+10], dl
  000d1	8a 50 0b	 mov	 dl, BYTE PTR [eax+11]
  000d4	84 d2		 test	 dl, dl
  000d6	74 6e		 je	 SHORT $LN85@operator@2
  000d8	80 f2 ea	 xor	 dl, -22			; ffffffeaH
  000db	88 55 f3	 mov	 BYTE PTR __t$[ebp+11], dl
  000de	8a 50 0c	 mov	 dl, BYTE PTR [eax+12]
  000e1	84 d2		 test	 dl, dl
  000e3	74 5b		 je	 SHORT $LN84@operator@2
  000e5	80 f2 ed	 xor	 dl, -19			; ffffffedH
  000e8	80 78 0d 00	 cmp	 BYTE PTR [eax+13], 0
  000ec	88 55 f4	 mov	 BYTE PTR __t$[ebp+12], dl
  000ef	0f 84 95 00 00
	00		 je	 $LN1@operator@2
  000f5	8a 50 0e	 mov	 dl, BYTE PTR [eax+14]
  000f8	84 d2		 test	 dl, dl
  000fa	74 3f		 je	 SHORT $LN82@operator@2
  000fc	32 d1		 xor	 dl, cl
  000fe	88 55 f6	 mov	 BYTE PTR __t$[ebp+14], dl
  00101	8a 50 0f	 mov	 dl, BYTE PTR [eax+15]
  00104	84 d2		 test	 dl, dl
  00106	74 2d		 je	 SHORT $LN81@operator@2
  00108	80 f2 ea	 xor	 dl, -22			; ffffffeaH
  0010b	88 55 f7	 mov	 BYTE PTR __t$[ebp+15], dl
  0010e	8a 50 10	 mov	 dl, BYTE PTR [eax+16]
  00111	84 d2		 test	 dl, dl
  00113	74 1a		 je	 SHORT $LN80@operator@2
  00115	8a 40 11	 mov	 al, BYTE PTR [eax+17]
  00118	80 f2 ed	 xor	 dl, -19			; ffffffedH
  0011b	88 55 f8	 mov	 BYTE PTR __t$[ebp+16], dl
  0011e	84 c0		 test	 al, al
  00120	74 07		 je	 SHORT $LN79@operator@2
  00122	34 ec		 xor	 al, -20			; ffffffecH
  00124	88 45 f9	 mov	 BYTE PTR __t$[ebp+17], al
  00127	eb 61		 jmp	 SHORT $LN1@operator@2
$LN79@operator@2:
  00129	c6 45 f9 ec	 mov	 BYTE PTR __t$[ebp+17], -20 ; ffffffecH
  0012d	eb 5b		 jmp	 SHORT $LN1@operator@2
$LN80@operator@2:
  0012f	c6 45 f8 ed	 mov	 BYTE PTR __t$[ebp+16], -19 ; ffffffedH
  00133	eb 55		 jmp	 SHORT $LN1@operator@2
$LN81@operator@2:
  00135	c6 45 f7 ea	 mov	 BYTE PTR __t$[ebp+15], -22 ; ffffffeaH
  00139	eb 4f		 jmp	 SHORT $LN1@operator@2
$LN82@operator@2:
  0013b	88 4d f6	 mov	 BYTE PTR __t$[ebp+14], cl
  0013e	eb 4a		 jmp	 SHORT $LN1@operator@2
$LN84@operator@2:
  00140	c6 45 f4 ed	 mov	 BYTE PTR __t$[ebp+12], -19 ; ffffffedH
  00144	eb 44		 jmp	 SHORT $LN1@operator@2
$LN85@operator@2:
  00146	c6 45 f3 ea	 mov	 BYTE PTR __t$[ebp+11], -22 ; ffffffeaH
  0014a	eb 3e		 jmp	 SHORT $LN1@operator@2
$LN86@operator@2:
  0014c	88 4d f2	 mov	 BYTE PTR __t$[ebp+10], cl
  0014f	eb 39		 jmp	 SHORT $LN1@operator@2
$LN87@operator@2:
  00151	c6 45 f1 ec	 mov	 BYTE PTR __t$[ebp+9], -20 ; ffffffecH
  00155	eb 33		 jmp	 SHORT $LN1@operator@2
$LN88@operator@2:
  00157	c6 45 f0 ed	 mov	 BYTE PTR __t$[ebp+8], -19 ; ffffffedH
  0015b	eb 2d		 jmp	 SHORT $LN1@operator@2
$LN89@operator@2:
  0015d	c6 45 ef ea	 mov	 BYTE PTR __t$[ebp+7], -22 ; ffffffeaH
  00161	eb 27		 jmp	 SHORT $LN1@operator@2
$LN90@operator@2:
  00163	88 4d ee	 mov	 BYTE PTR __t$[ebp+6], cl
  00166	eb 22		 jmp	 SHORT $LN1@operator@2
$LN91@operator@2:
  00168	c6 45 ed ec	 mov	 BYTE PTR __t$[ebp+5], -20 ; ffffffecH
  0016c	eb 1c		 jmp	 SHORT $LN1@operator@2
$LN92@operator@2:
  0016e	c6 45 ec ed	 mov	 BYTE PTR __t$[ebp+4], -19 ; ffffffedH
  00172	eb 16		 jmp	 SHORT $LN1@operator@2
$LN93@operator@2:
  00174	c6 45 eb ea	 mov	 BYTE PTR __t$[ebp+3], -22 ; ffffffeaH
  00178	eb 10		 jmp	 SHORT $LN1@operator@2
$LN94@operator@2:
  0017a	c6 45 ea eb	 mov	 BYTE PTR __t$[ebp+2], -21 ; ffffffebH
  0017e	eb 0a		 jmp	 SHORT $LN1@operator@2
$LN95@operator@2:
  00180	c6 45 e9 ec	 mov	 BYTE PTR __t$[ebp+1], -20 ; ffffffecH
  00184	eb 04		 jmp	 SHORT $LN1@operator@2
$LN96@operator@2:
  00186	c6 45 e8 ed	 mov	 BYTE PTR __t$[ebp], -19	; ffffffedH
$LN1@operator@2:
  0018a	6a 03		 push	 3
  0018c	8d 45 e8	 lea	 eax, DWORD PTR __t$[ebp]
  0018f	c6 45 f5 00	 mov	 BYTE PTR __t$[ebp+13], 0
  00193	5a		 pop	 edx
$LL104@operator@2:
  00194	81 30 ed ec eb
	ea		 xor	 DWORD PTR [eax], -353637139 ; eaebecedH
  0019a	83 c0 04	 add	 eax, 4
  0019d	4a		 dec	 edx
  0019e	75 f4		 jne	 SHORT $LL104@operator@2
  001a0	80 75 f4 ed	 xor	 BYTE PTR __t$[ebp+12], -19 ; ffffffedH
  001a4	8b cf		 mov	 ecx, edi
  001a6	8d 75 e8	 lea	 esi, DWORD PTR __t$[ebp]
  001a9	ff 15 00 00 00
	00		 call	 DWORD PTR __imp_?c_str@ioHashString@@QBEPBDXZ
$LL111@operator@2:
  001af	8a 08		 mov	 cl, BYTE PTR [eax]
  001b1	3a 0e		 cmp	 cl, BYTE PTR [esi]
  001b3	75 1a		 jne	 SHORT $LN112@operator@2
  001b5	84 c9		 test	 cl, cl
  001b7	74 12		 je	 SHORT $LN113@operator@2
  001b9	8a 48 01	 mov	 cl, BYTE PTR [eax+1]
  001bc	3a 4e 01	 cmp	 cl, BYTE PTR [esi+1]
  001bf	75 0e		 jne	 SHORT $LN112@operator@2
  001c1	83 c0 02	 add	 eax, 2
  001c4	83 c6 02	 add	 esi, 2
  001c7	84 c9		 test	 cl, cl
  001c9	75 e4		 jne	 SHORT $LL111@operator@2
$LN113@operator@2:
  001cb	33 c0		 xor	 eax, eax
  001cd	eb 05		 jmp	 SHORT $LN114@operator@2
$LN112@operator@2:
  001cf	1b c0		 sbb	 eax, eax
  001d1	83 d8 ff	 sbb	 eax, -1
$LN114@operator@2:
  001d4	33 c9		 xor	 ecx, ecx
  001d6	85 c0		 test	 eax, eax
  001d8	0f 94 c0	 sete	 al

; 148  : }

  001db	8b 4d fc	 mov	 ecx, DWORD PTR __$ArrayPad$[ebp]
  001de	5f		 pop	 edi
  001df	33 cd		 xor	 ecx, ebp
  001e1	5e		 pop	 esi
  001e2	e8 00 00 00 00	 call	 @__security_check_cookie@4
  001e7	c9		 leave
  001e8	c3		 ret	 0
??$?8$0O@@@YA_NABVioHashString@@AAY0O@$$CBD@Z ENDP	; operator==<14>
_TEXT	ENDS
PUBLIC	_szType$GSCopy$
PUBLIC	_pImage$GSCopy$
PUBLIC	_this$GSCopy$
PUBLIC	__$ArrayPad$
EXTRN	__imp_?AddRenderImage@ioWnd@@UAEXABVioHashString@@PAVioUIRenderImage@@@Z:PROC
; Function compile flags: /Ogsp
; File d:\lost saga for developer\youtube\tutorial\source\src\lsclient\gui\iocostumereleasewnd.cpp
;	COMDAT ?AddRenderImage@ioCostumeReleaseWnd@@MAEXABVioHashString@@PAVioUIRenderImage@@@Z
_TEXT	SEGMENT
_szType$GSCopy$ = -36					; size = 4
_pImage$GSCopy$ = -32					; size = 4
_this$GSCopy$ = -28					; size = 4
__t$505984 = -24					; size = 14
__t$505846 = -20					; size = 9
__$ArrayPad$ = -4					; size = 4
_szType$ = 8						; size = 4
_pImage$ = 12						; size = 4
?AddRenderImage@ioCostumeReleaseWnd@@MAEXABVioHashString@@PAVioUIRenderImage@@@Z PROC ; ioCostumeReleaseWnd::AddRenderImage, COMDAT
; _this$ = ecx

; 24   : {

  00000	55		 push	 ebp
  00001	8b ec		 mov	 ebp, esp
  00003	83 ec 24	 sub	 esp, 36			; 00000024H
  00006	a1 00 00 00 00	 mov	 eax, DWORD PTR ___security_cookie
  0000b	33 c5		 xor	 eax, ebp
  0000d	89 45 fc	 mov	 DWORD PTR __$ArrayPad$[ebp], eax
  00010	8b 45 0c	 mov	 eax, DWORD PTR _pImage$[ebp]
  00013	8b 55 08	 mov	 edx, DWORD PTR _szType$[ebp]
  00016	56		 push	 esi
  00017	57		 push	 edi

; 25   : 	if( szType == "IconBack" )

  00018	6a 02		 push	 2
  0001a	89 4d e4	 mov	 DWORD PTR _this$GSCopy$[ebp], ecx

; 31   : 	{
; 32   : 		SAFEDELETE( m_pCostumeMark );

  0001d	89 45 e0	 mov	 DWORD PTR _pImage$GSCopy$[ebp], eax
  00020	89 55 dc	 mov	 DWORD PTR _szType$GSCopy$[ebp], edx
  00023	c7 45 ec a4 8f
	84 84		 mov	 DWORD PTR __t$505846[ebp], -2071687260 ; 84848fa4H
  0002a	c7 45 f0 af 8d
	88 81		 mov	 DWORD PTR __t$505846[ebp+4], -2121757265 ; 81888dafH
  00031	8d 45 ec	 lea	 eax, DWORD PTR __t$505846[ebp]
  00034	c6 45 f4 00	 mov	 BYTE PTR __t$505846[ebp+8], 0
  00038	59		 pop	 ecx
  00039	bf ed ec eb ea	 mov	 edi, -353637139		; eaebecedH
$LL116@AddRenderI:

; 25   : 	if( szType == "IconBack" )

  0003e	31 38		 xor	 DWORD PTR [eax], edi
  00040	83 c0 04	 add	 eax, 4
  00043	49		 dec	 ecx
  00044	75 f8		 jne	 SHORT $LL116@AddRenderI
  00046	8b ca		 mov	 ecx, edx
  00048	8d 75 ec	 lea	 esi, DWORD PTR __t$505846[ebp]
  0004b	ff 15 00 00 00
	00		 call	 DWORD PTR __imp_?c_str@ioHashString@@QBEPBDXZ
$LL234@AddRenderI:
  00051	8a 08		 mov	 cl, BYTE PTR [eax]
  00053	3a 0e		 cmp	 cl, BYTE PTR [esi]
  00055	75 1a		 jne	 SHORT $LN235@AddRenderI
  00057	84 c9		 test	 cl, cl
  00059	74 12		 je	 SHORT $LN236@AddRenderI
  0005b	8a 48 01	 mov	 cl, BYTE PTR [eax+1]
  0005e	3a 4e 01	 cmp	 cl, BYTE PTR [esi+1]
  00061	75 0e		 jne	 SHORT $LN235@AddRenderI
  00063	83 c0 02	 add	 eax, 2
  00066	83 c6 02	 add	 esi, 2
  00069	84 c9		 test	 cl, cl
  0006b	75 e4		 jne	 SHORT $LL234@AddRenderI
$LN236@AddRenderI:
  0006d	33 c0		 xor	 eax, eax
  0006f	eb 05		 jmp	 SHORT $LN237@AddRenderI
$LN235@AddRenderI:
  00071	1b c0		 sbb	 eax, eax
  00073	83 d8 ff	 sbb	 eax, -1
$LN237@AddRenderI:
  00076	85 c0		 test	 eax, eax
  00078	75 29		 jne	 SHORT $LN233@AddRenderI

; 26   : 	{
; 27   : 		SAFEDELETE( m_pIconBack );

  0007a	8b 75 e4	 mov	 esi, DWORD PTR _this$GSCopy$[ebp]
  0007d	8b 8e 90 01 00
	00		 mov	 ecx, DWORD PTR [esi+400]
  00083	85 c9		 test	 ecx, ecx
  00085	74 0e		 je	 SHORT $LN5@AddRenderI
  00087	8b 01		 mov	 eax, DWORD PTR [ecx]
  00089	6a 01		 push	 1
  0008b	ff 50 40	 call	 DWORD PTR [eax+64]
  0008e	83 a6 90 01 00
	00 00		 and	 DWORD PTR [esi+400], 0
$LN5@AddRenderI:

; 28   : 		m_pIconBack = pImage;

  00095	8b 45 e0	 mov	 eax, DWORD PTR _pImage$GSCopy$[ebp]
  00098	89 86 90 01 00
	00		 mov	 DWORD PTR [esi+400], eax
  0009e	e9 97 00 00 00	 jmp	 $LN1@AddRenderI
$LN233@AddRenderI:

; 29   : 	}
; 30   : 	else if( szType == "costume_image" )

  000a3	6a 03		 push	 3
  000a5	c7 45 e8 8e 83
	98 9e		 mov	 DWORD PTR __t$505984[ebp], -1634172018 ; 9e98838eH
  000ac	c7 45 ec 98 81
	8e b5		 mov	 DWORD PTR __t$505984[ebp+4], -1248951912 ; b58e8198H
  000b3	c7 45 f0 84 81
	8a 8d		 mov	 DWORD PTR __t$505984[ebp+8], -1920302716 ; 8d8a8184H
  000ba	8d 45 e8	 lea	 eax, DWORD PTR __t$505984[ebp]
  000bd	66 c7 45 f4 88
	00		 mov	 WORD PTR __t$505984[ebp+12], 136 ; 00000088H
  000c3	59		 pop	 ecx
$LL222@AddRenderI:
  000c4	31 38		 xor	 DWORD PTR [eax], edi
  000c6	83 c0 04	 add	 eax, 4
  000c9	49		 dec	 ecx
  000ca	75 f8		 jne	 SHORT $LL222@AddRenderI
  000cc	8b 4d dc	 mov	 ecx, DWORD PTR _szType$GSCopy$[ebp]
  000cf	80 75 f4 ed	 xor	 BYTE PTR __t$505984[ebp+12], -19 ; ffffffedH
  000d3	8d 75 e8	 lea	 esi, DWORD PTR __t$505984[ebp]
  000d6	ff 15 00 00 00
	00		 call	 DWORD PTR __imp_?c_str@ioHashString@@QBEPBDXZ
$LL238@AddRenderI:
  000dc	8a 08		 mov	 cl, BYTE PTR [eax]
  000de	3a 0e		 cmp	 cl, BYTE PTR [esi]
  000e0	75 1a		 jne	 SHORT $LN239@AddRenderI
  000e2	84 c9		 test	 cl, cl
  000e4	74 12		 je	 SHORT $LN240@AddRenderI
  000e6	8a 48 01	 mov	 cl, BYTE PTR [eax+1]
  000e9	3a 4e 01	 cmp	 cl, BYTE PTR [esi+1]
  000ec	75 0e		 jne	 SHORT $LN239@AddRenderI
  000ee	83 c0 02	 add	 eax, 2
  000f1	83 c6 02	 add	 esi, 2
  000f4	84 c9		 test	 cl, cl
  000f6	75 e4		 jne	 SHORT $LL238@AddRenderI
$LN240@AddRenderI:
  000f8	33 c0		 xor	 eax, eax
  000fa	eb 05		 jmp	 SHORT $LN241@AddRenderI
$LN239@AddRenderI:
  000fc	1b c0		 sbb	 eax, eax
  000fe	83 d8 ff	 sbb	 eax, -1
$LN241@AddRenderI:
  00101	85 c0		 test	 eax, eax
  00103	75 26		 jne	 SHORT $LN3@AddRenderI

; 31   : 	{
; 32   : 		SAFEDELETE( m_pCostumeMark );

  00105	8b 75 e4	 mov	 esi, DWORD PTR _this$GSCopy$[ebp]
  00108	8b 8e 98 01 00
	00		 mov	 ecx, DWORD PTR [esi+408]
  0010e	85 c9		 test	 ecx, ecx
  00110	74 0e		 je	 SHORT $LN2@AddRenderI
  00112	8b 01		 mov	 eax, DWORD PTR [ecx]
  00114	6a 01		 push	 1
  00116	ff 50 40	 call	 DWORD PTR [eax+64]
  00119	83 a6 98 01 00
	00 00		 and	 DWORD PTR [esi+408], 0
$LN2@AddRenderI:

; 33   : 		m_pCostumeMark = pImage;

  00120	8b 45 e0	 mov	 eax, DWORD PTR _pImage$GSCopy$[ebp]
  00123	89 86 98 01 00
	00		 mov	 DWORD PTR [esi+408], eax

; 34   : 	}
; 35   : 	else

  00129	eb 0f		 jmp	 SHORT $LN1@AddRenderI
$LN3@AddRenderI:

; 36   : 		ioWnd::AddRenderImage( szType, pImage );

  0012b	ff 75 e0	 push	 DWORD PTR _pImage$GSCopy$[ebp]
  0012e	8b 4d e4	 mov	 ecx, DWORD PTR _this$GSCopy$[ebp]
  00131	ff 75 dc	 push	 DWORD PTR _szType$GSCopy$[ebp]
  00134	ff 15 00 00 00
	00		 call	 DWORD PTR __imp_?AddRenderImage@ioWnd@@UAEXABVioHashString@@PAVioUIRenderImage@@@Z
$LN1@AddRenderI:

; 37   : }

  0013a	8b 4d fc	 mov	 ecx, DWORD PTR __$ArrayPad$[ebp]
  0013d	5f		 pop	 edi
  0013e	33 cd		 xor	 ecx, ebp
  00140	5e		 pop	 esi
  00141	e8 00 00 00 00	 call	 @__security_check_cookie@4
  00146	c9		 leave
  00147	c2 08 00	 ret	 8
?AddRenderImage@ioCostumeReleaseWnd@@MAEXABVioHashString@@PAVioUIRenderImage@@@Z ENDP ; ioCostumeReleaseWnd::AddRenderImage
_TEXT	ENDS
END
