; Listing generated by Microsoft (R) Optimizing Compiler Version 16.00.30319.01 

	TITLE	D:\Lost Saga For Developer\Youtube\Tutorial\Source\src\LSClient\ioConsecution2Skill.cpp
	.686P
	.XMM
	include listing.inc
	.model	flat

INCLUDELIB MSVCRT
INCLUDELIB OLDNAMES

PUBLIC	?_EEM_DS@?$deque@UD3DXVECTOR3@@V?$allocator@UD3DXVECTOR3@@@std@@@std@@2HB ; std::deque<D3DXVECTOR3,std::allocator<D3DXVECTOR3> >::_EEM_DS
;	COMDAT ?_EEM_DS@?$deque@UD3DXVECTOR3@@V?$allocator@UD3DXVECTOR3@@@std@@@std@@2HB
CONST	SEGMENT
?_EEM_DS@?$deque@UD3DXVECTOR3@@V?$allocator@UD3DXVECTOR3@@@std@@@std@@2HB DD 01H ; std::deque<D3DXVECTOR3,std::allocator<D3DXVECTOR3> >::_EEM_DS
CONST	ENDS
PUBLIC	?return1@@YAIXZ					; return1
; Function compile flags: /Ogsp
; File d:\lost saga for developer\youtube\tutorial\source\src\lsclient\stdafx.h
;	COMDAT ?return1@@YAIXZ
_TEXT	SEGMENT
?return1@@YAIXZ PROC					; return1, COMDAT

; 17   : 	__forceinline unsigned int return1() { __asm mov eax, 1 };

  00000	b8 01 00 00 00	 mov	 eax, 1
  00005	c3		 ret	 0
?return1@@YAIXZ ENDP					; return1
_TEXT	ENDS
PUBLIC	?return5@@YAIXZ					; return5
; Function compile flags: /Ogsp
;	COMDAT ?return5@@YAIXZ
_TEXT	SEGMENT
?return5@@YAIXZ PROC					; return5, COMDAT

; 18   : 	__forceinline unsigned int return5() { __asm mov eax, 5 };

  00000	b8 05 00 00 00	 mov	 eax, 5
  00005	c3		 ret	 0
?return5@@YAIXZ ENDP					; return5
_TEXT	ENDS
PUBLIC	?return10@@YAIXZ				; return10
; Function compile flags: /Ogsp
;	COMDAT ?return10@@YAIXZ
_TEXT	SEGMENT
?return10@@YAIXZ PROC					; return10, COMDAT

; 21   : 	__forceinline unsigned int return10() { __asm mov eax, 10 };

  00000	b8 0a 00 00 00	 mov	 eax, 10			; 0000000aH
  00005	c3		 ret	 0
?return10@@YAIXZ ENDP					; return10
_TEXT	ENDS
PUBLIC	?return100@@YAIXZ				; return100
; Function compile flags: /Ogsp
;	COMDAT ?return100@@YAIXZ
_TEXT	SEGMENT
?return100@@YAIXZ PROC					; return100, COMDAT

; 25   : 	__forceinline unsigned int return100() { __asm mov eax, 100 };

  00000	b8 64 00 00 00	 mov	 eax, 100		; 00000064H
  00005	c3		 ret	 0
?return100@@YAIXZ ENDP					; return100
_TEXT	ENDS
PUBLIC	?GetCharName@ioBaseChar@@QBEABVioHashString@@XZ	; ioBaseChar::GetCharName
; Function compile flags: /Ogsp
; File d:\lost saga for developer\youtube\tutorial\source\src\lsclient\iobasechar.h
;	COMDAT ?GetCharName@ioBaseChar@@QBEABVioHashString@@XZ
_TEXT	SEGMENT
?GetCharName@ioBaseChar@@QBEABVioHashString@@XZ PROC	; ioBaseChar::GetCharName, COMDAT
; _this$ = ecx

; 2594 : 	inline const ioHashString& GetCharName() const { return m_Name; }

  00000	8d 81 d4 02 00
	00		 lea	 eax, DWORD PTR [ecx+724]
  00006	c3		 ret	 0
?GetCharName@ioBaseChar@@QBEABVioHashString@@XZ ENDP	; ioBaseChar::GetCharName
_TEXT	ENDS
PUBLIC	?GetTargetRot@ioBaseChar@@QBEABUD3DXQUATERNION@@XZ ; ioBaseChar::GetTargetRot
; Function compile flags: /Ogsp
;	COMDAT ?GetTargetRot@ioBaseChar@@QBEABUD3DXQUATERNION@@XZ
_TEXT	SEGMENT
?GetTargetRot@ioBaseChar@@QBEABUD3DXQUATERNION@@XZ PROC	; ioBaseChar::GetTargetRot, COMDAT
; _this$ = ecx

; 2599 : 	inline const D3DXQUATERNION& GetTargetRot() const { return m_qtTargetRot; }

  00000	8d 81 a4 06 00
	00		 lea	 eax, DWORD PTR [ecx+1700]
  00006	c3		 ret	 0
?GetTargetRot@ioBaseChar@@QBEABUD3DXQUATERNION@@XZ ENDP	; ioBaseChar::GetTargetRot
_TEXT	ENDS
PUBLIC	?SetCurJumpPowerAmt@ioBaseChar@@QAEXM@Z		; ioBaseChar::SetCurJumpPowerAmt
EXTRN	__fltused:DWORD
; Function compile flags: /Ogsp
;	COMDAT ?SetCurJumpPowerAmt@ioBaseChar@@QAEXM@Z
_TEXT	SEGMENT
_fAmt$ = 8						; size = 4
?SetCurJumpPowerAmt@ioBaseChar@@QAEXM@Z PROC		; ioBaseChar::SetCurJumpPowerAmt, COMDAT
; _this$ = ecx

; 2628 : 	inline void SetCurJumpPowerAmt( float fAmt ) { m_fCurJumpPowerAmt = fAmt; }

  00000	55		 push	 ebp
  00001	8b ec		 mov	 ebp, esp
  00003	f3 0f 10 45 08	 movss	 xmm0, DWORD PTR _fAmt$[ebp]
  00008	f3 0f 11 81 90
	0e 00 00	 movss	 DWORD PTR [ecx+3728], xmm0
  00010	5d		 pop	 ebp
  00011	c2 04 00	 ret	 4
?SetCurJumpPowerAmt@ioBaseChar@@QAEXM@Z ENDP		; ioBaseChar::SetCurJumpPowerAmt
_TEXT	ENDS
PUBLIC	??_7bad_alloc@std@@6B@				; std::bad_alloc::`vftable'
PUBLIC	??0bad_alloc@std@@QAE@PBD@Z			; std::bad_alloc::bad_alloc
PUBLIC	??_R4bad_alloc@std@@6B@				; std::bad_alloc::`RTTI Complete Object Locator'
PUBLIC	??_R0?AVbad_alloc@std@@@8			; std::bad_alloc `RTTI Type Descriptor'
PUBLIC	??_R3bad_alloc@std@@8				; std::bad_alloc::`RTTI Class Hierarchy Descriptor'
PUBLIC	??_R2bad_alloc@std@@8				; std::bad_alloc::`RTTI Base Class Array'
PUBLIC	??_R1A@?0A@EA@bad_alloc@std@@8			; std::bad_alloc::`RTTI Base Class Descriptor at (0,-1,0,64)'
PUBLIC	??_R1A@?0A@EA@exception@std@@8			; std::exception::`RTTI Base Class Descriptor at (0,-1,0,64)'
PUBLIC	??_R0?AVexception@std@@@8			; std::exception `RTTI Type Descriptor'
PUBLIC	??_R3exception@std@@8				; std::exception::`RTTI Class Hierarchy Descriptor'
PUBLIC	??_R2exception@std@@8				; std::exception::`RTTI Base Class Array'
EXTRN	__imp_??0exception@std@@QAE@ABQBD@Z:PROC
EXTRN	??_7type_info@@6B@:QWORD			; type_info::`vftable'
EXTRN	??_Ebad_alloc@std@@UAEPAXI@Z:PROC		; std::bad_alloc::`vector deleting destructor'
EXTRN	?what@exception@std@@UBEPBDXZ:PROC		; std::exception::what
;	COMDAT ??_R2exception@std@@8
; File c:\program files (x86)\microsoft visual studio 10.0\vc\include\exception
rdata$r	SEGMENT
??_R2exception@std@@8 DD FLAT:??_R1A@?0A@EA@exception@std@@8 ; std::exception::`RTTI Base Class Array'
rdata$r	ENDS
;	COMDAT ??_R3exception@std@@8
rdata$r	SEGMENT
??_R3exception@std@@8 DD 00H				; std::exception::`RTTI Class Hierarchy Descriptor'
	DD	00H
	DD	01H
	DD	FLAT:??_R2exception@std@@8
rdata$r	ENDS
;	COMDAT ??_R0?AVexception@std@@@8
_DATA	SEGMENT
??_R0?AVexception@std@@@8 DD FLAT:??_7type_info@@6B@	; std::exception `RTTI Type Descriptor'
	DD	00H
	DB	'.?AVexception@std@@', 00H
_DATA	ENDS
;	COMDAT ??_R1A@?0A@EA@exception@std@@8
rdata$r	SEGMENT
??_R1A@?0A@EA@exception@std@@8 DD FLAT:??_R0?AVexception@std@@@8 ; std::exception::`RTTI Base Class Descriptor at (0,-1,0,64)'
	DD	00H
	DD	00H
	DD	0ffffffffH
	DD	00H
	DD	040H
	DD	FLAT:??_R3exception@std@@8
rdata$r	ENDS
;	COMDAT ??_R1A@?0A@EA@bad_alloc@std@@8
rdata$r	SEGMENT
??_R1A@?0A@EA@bad_alloc@std@@8 DD FLAT:??_R0?AVbad_alloc@std@@@8 ; std::bad_alloc::`RTTI Base Class Descriptor at (0,-1,0,64)'
	DD	01H
	DD	00H
	DD	0ffffffffH
	DD	00H
	DD	040H
	DD	FLAT:??_R3bad_alloc@std@@8
rdata$r	ENDS
;	COMDAT ??_R2bad_alloc@std@@8
rdata$r	SEGMENT
??_R2bad_alloc@std@@8 DD FLAT:??_R1A@?0A@EA@bad_alloc@std@@8 ; std::bad_alloc::`RTTI Base Class Array'
	DD	FLAT:??_R1A@?0A@EA@exception@std@@8
rdata$r	ENDS
;	COMDAT ??_R3bad_alloc@std@@8
rdata$r	SEGMENT
??_R3bad_alloc@std@@8 DD 00H				; std::bad_alloc::`RTTI Class Hierarchy Descriptor'
	DD	00H
	DD	02H
	DD	FLAT:??_R2bad_alloc@std@@8
rdata$r	ENDS
;	COMDAT ??_R0?AVbad_alloc@std@@@8
_DATA	SEGMENT
??_R0?AVbad_alloc@std@@@8 DD FLAT:??_7type_info@@6B@	; std::bad_alloc `RTTI Type Descriptor'
	DD	00H
	DB	'.?AVbad_alloc@std@@', 00H
_DATA	ENDS
;	COMDAT ??_R4bad_alloc@std@@6B@
rdata$r	SEGMENT
??_R4bad_alloc@std@@6B@ DD 00H				; std::bad_alloc::`RTTI Complete Object Locator'
	DD	00H
	DD	00H
	DD	FLAT:??_R0?AVbad_alloc@std@@@8
	DD	FLAT:??_R3bad_alloc@std@@8
rdata$r	ENDS
;	COMDAT ??_7bad_alloc@std@@6B@
CONST	SEGMENT
??_7bad_alloc@std@@6B@ DD FLAT:??_R4bad_alloc@std@@6B@	; std::bad_alloc::`vftable'
	DD	FLAT:??_Ebad_alloc@std@@UAEPAXI@Z
	DD	FLAT:?what@exception@std@@UBEPBDXZ
; Function compile flags: /Ogsp
CONST	ENDS
;	COMDAT ??0bad_alloc@std@@QAE@PBD@Z
_TEXT	SEGMENT
__Message$ = 8						; size = 4
??0bad_alloc@std@@QAE@PBD@Z PROC			; std::bad_alloc::bad_alloc, COMDAT
; _this$ = ecx

; 345  : 		{	// construct from message string

  00000	55		 push	 ebp
  00001	8b ec		 mov	 ebp, esp
  00003	56		 push	 esi
  00004	8d 45 08	 lea	 eax, DWORD PTR __Message$[ebp]
  00007	50		 push	 eax
  00008	8b f1		 mov	 esi, ecx
  0000a	ff 15 00 00 00
	00		 call	 DWORD PTR __imp_??0exception@std@@QAE@ABQBD@Z
  00010	c7 06 00 00 00
	00		 mov	 DWORD PTR [esi], OFFSET ??_7bad_alloc@std@@6B@

; 346  : 		}

  00016	8b c6		 mov	 eax, esi
  00018	5e		 pop	 esi
  00019	5d		 pop	 ebp
  0001a	c2 04 00	 ret	 4
??0bad_alloc@std@@QAE@PBD@Z ENDP			; std::bad_alloc::bad_alloc
_TEXT	ENDS
PUBLIC	??1bad_alloc@std@@UAE@XZ			; std::bad_alloc::~bad_alloc
EXTRN	__imp_??1exception@std@@UAE@XZ:PROC
; Function compile flags: /Ogsp
;	COMDAT ??1bad_alloc@std@@UAE@XZ
_TEXT	SEGMENT
??1bad_alloc@std@@UAE@XZ PROC				; std::bad_alloc::~bad_alloc, COMDAT
; _this$ = ecx

; 354  : 		{	// destroy the object

  00000	c7 01 00 00 00
	00		 mov	 DWORD PTR [ecx], OFFSET ??_7bad_alloc@std@@6B@

; 355  : 		}

  00006	ff 25 00 00 00
	00		 jmp	 DWORD PTR __imp_??1exception@std@@UAE@XZ
??1bad_alloc@std@@UAE@XZ ENDP				; std::bad_alloc::~bad_alloc
_TEXT	ENDS
EXTRN	??3@YAXPAX@Z:PROC				; operator delete
; Function compile flags: /Ogsp
;	COMDAT ??_Gbad_alloc@std@@UAEPAXI@Z
_TEXT	SEGMENT
___flags$ = 8						; size = 4
??_Gbad_alloc@std@@UAEPAXI@Z PROC			; std::bad_alloc::`scalar deleting destructor', COMDAT
; _this$ = ecx
  00000	55		 push	 ebp
  00001	8b ec		 mov	 ebp, esp
  00003	56		 push	 esi
  00004	8b f1		 mov	 esi, ecx
  00006	c7 06 00 00 00
	00		 mov	 DWORD PTR [esi], OFFSET ??_7bad_alloc@std@@6B@
  0000c	ff 15 00 00 00
	00		 call	 DWORD PTR __imp_??1exception@std@@UAE@XZ
  00012	f6 45 08 01	 test	 BYTE PTR ___flags$[ebp], 1
  00016	74 07		 je	 SHORT $LN1@scalar
  00018	56		 push	 esi
  00019	e8 00 00 00 00	 call	 ??3@YAXPAX@Z		; operator delete
  0001e	59		 pop	 ecx
$LN1@scalar:
  0001f	8b c6		 mov	 eax, esi
  00021	5e		 pop	 esi
  00022	5d		 pop	 ebp
  00023	c2 04 00	 ret	 4
??_Gbad_alloc@std@@UAEPAXI@Z ENDP			; std::bad_alloc::`scalar deleting destructor'
_TEXT	ENDS
PUBLIC	??2@YAPAXIPAX@Z					; operator new
; Function compile flags: /Ogsp
; File c:\program files (x86)\microsoft visual studio 10.0\vc\include\new
;	COMDAT ??2@YAPAXIPAX@Z
_TEXT	SEGMENT
___formal$ = 8						; size = 4
__Where$ = 12						; size = 4
??2@YAPAXIPAX@Z PROC					; operator new, COMDAT

; 56   : 	{	// construct array with placement at _Where

  00000	55		 push	 ebp
  00001	8b ec		 mov	 ebp, esp

; 57   : 	return (_Where);

  00003	8b 45 0c	 mov	 eax, DWORD PTR __Where$[ebp]

; 58   : 	}

  00006	5d		 pop	 ebp
  00007	c3		 ret	 0
??2@YAPAXIPAX@Z ENDP					; operator new
_TEXT	ENDS
PUBLIC	??3@YAXPAX0@Z					; operator delete
; Function compile flags: /Ogsp
;	COMDAT ??3@YAXPAX0@Z
_TEXT	SEGMENT
___formal$ = 8						; size = 4
___formal$ = 12						; size = 4
??3@YAXPAX0@Z PROC					; operator delete, COMDAT

; 62   : 	}

  00000	c3		 ret	 0
??3@YAXPAX0@Z ENDP					; operator delete
_TEXT	ENDS
PUBLIC	?GetCreator@ioBaseChar@@QAEPAVioPlayStage@@XZ	; ioBaseChar::GetCreator
; Function compile flags: /Ogsp
; File d:\lost saga for developer\youtube\tutorial\source\src\lsclient\iobasechar.h
;	COMDAT ?GetCreator@ioBaseChar@@QAEPAVioPlayStage@@XZ
_TEXT	SEGMENT
?GetCreator@ioBaseChar@@QAEPAVioPlayStage@@XZ PROC	; ioBaseChar::GetCreator, COMDAT
; _this$ = ecx

; 4013 : 	inline ioPlayStage* GetCreator() { return m_pCreator; }

  00000	8b 81 44 03 00
	00		 mov	 eax, DWORD PTR [ecx+836]
  00006	c3		 ret	 0
?GetCreator@ioBaseChar@@QAEPAVioPlayStage@@XZ ENDP	; ioBaseChar::GetCreator
_TEXT	ENDS
PUBLIC	?GetType@ioGrowthUpInfo@@QBE?AW4GrowthType@@XZ	; ioGrowthUpInfo::GetType
; Function compile flags: /Ogsp
; File d:\lost saga for developer\youtube\tutorial\source\src\lsclient\iogrowthupinfo.h
;	COMDAT ?GetType@ioGrowthUpInfo@@QBE?AW4GrowthType@@XZ
_TEXT	SEGMENT
?GetType@ioGrowthUpInfo@@QBE?AW4GrowthType@@XZ PROC	; ioGrowthUpInfo::GetType, COMDAT
; _this$ = ecx

; 23   : 	inline GrowthType GetType() const { return m_GrowthType; }

  00000	8b 41 04	 mov	 eax, DWORD PTR [ecx+4]
  00003	c3		 ret	 0
?GetType@ioGrowthUpInfo@@QBE?AW4GrowthType@@XZ ENDP	; ioGrowthUpInfo::GetType
_TEXT	ENDS
PUBLIC	??_R0?AVioGrowthUpInfo@@@8			; ioGrowthUpInfo `RTTI Type Descriptor'
PUBLIC	??_R0?AVioGrowthAttackForceUpInfo@@@8		; ioGrowthAttackForceUpInfo `RTTI Type Descriptor'
PUBLIC	?ToAttackForceUpInfo@@YAPAVioGrowthAttackForceUpInfo@@PAVioGrowthUpInfo@@@Z ; ToAttackForceUpInfo
EXTRN	___RTDynamicCast:PROC
;	COMDAT ??_R0?AVioGrowthUpInfo@@@8
_DATA	SEGMENT
??_R0?AVioGrowthUpInfo@@@8 DD FLAT:??_7type_info@@6B@	; ioGrowthUpInfo `RTTI Type Descriptor'
	DD	00H
	DB	'.?AVioGrowthUpInfo@@', 00H
_DATA	ENDS
;	COMDAT ??_R0?AVioGrowthAttackForceUpInfo@@@8
_DATA	SEGMENT
??_R0?AVioGrowthAttackForceUpInfo@@@8 DD FLAT:??_7type_info@@6B@ ; ioGrowthAttackForceUpInfo `RTTI Type Descriptor'
	DD	00H
	DB	'.?AVioGrowthAttackForceUpInfo@@', 00H
; Function compile flags: /Ogsp
_DATA	ENDS
;	COMDAT ?ToAttackForceUpInfo@@YAPAVioGrowthAttackForceUpInfo@@PAVioGrowthUpInfo@@@Z
_TEXT	SEGMENT
_pUpInfo$ = 8						; size = 4
?ToAttackForceUpInfo@@YAPAVioGrowthAttackForceUpInfo@@PAVioGrowthUpInfo@@@Z PROC ; ToAttackForceUpInfo, COMDAT

; 194  : {

  00000	55		 push	 ebp
  00001	8b ec		 mov	 ebp, esp

; 195  : 	if( !pUpInfo || pUpInfo->GetType() != GT_SKILL_ATTACK_FORCE )

  00003	8b 45 08	 mov	 eax, DWORD PTR _pUpInfo$[ebp]
  00006	85 c0		 test	 eax, eax
  00008	74 1f		 je	 SHORT $LN1@ToAttackFo
  0000a	83 78 04 1c	 cmp	 DWORD PTR [eax+4], 28	; 0000001cH
  0000e	75 19		 jne	 SHORT $LN1@ToAttackFo

; 197  : 
; 198  : 	return dynamic_cast< ioGrowthAttackForceUpInfo* >( pUpInfo );

  00010	6a 00		 push	 0
  00012	68 00 00 00 00	 push	 OFFSET ??_R0?AVioGrowthAttackForceUpInfo@@@8
  00017	68 00 00 00 00	 push	 OFFSET ??_R0?AVioGrowthUpInfo@@@8
  0001c	6a 00		 push	 0
  0001e	50		 push	 eax
  0001f	e8 00 00 00 00	 call	 ___RTDynamicCast
  00024	83 c4 14	 add	 esp, 20			; 00000014H

; 199  : }

  00027	5d		 pop	 ebp
  00028	c3		 ret	 0
$LN1@ToAttackFo:

; 196  : 		return NULL;

  00029	33 c0		 xor	 eax, eax

; 199  : }

  0002b	5d		 pop	 ebp
  0002c	c3		 ret	 0
?ToAttackForceUpInfo@@YAPAVioGrowthAttackForceUpInfo@@PAVioGrowthUpInfo@@@Z ENDP ; ToAttackForceUpInfo
_TEXT	ENDS
PUBLIC	?ClearData@ioConsecution2Skill@@IAEXXZ		; ioConsecution2Skill::ClearData
; Function compile flags: /Ogsp
; File d:\lost saga for developer\youtube\tutorial\source\src\lsclient\ioconsecution2skill.cpp
;	COMDAT ?ClearData@ioConsecution2Skill@@IAEXXZ
_TEXT	SEGMENT
?ClearData@ioConsecution2Skill@@IAEXXZ PROC		; ioConsecution2Skill::ClearData, COMDAT
; _this$ = ecx

; 40   : 	m_SkillState = SS_NONE;
; 41   : 
; 42   : 	m_iWeaponFireCnt = 0;
; 43   : 
; 44   : 	m_bMotionSetted = false;
; 45   : 	m_bLoopMotionSetted = false;
; 46   : 	m_bFirstMoveMotion = true;
; 47   : 
; 48   : 	m_bSetHandMesh = false;
; 49   : 
; 50   : 	m_dwLoopStartTime = 0;
; 51   : 
; 52   : 	m_dwTargetMarkerID = -1;

  00000	83 89 2c 11 00
	00 ff		 or	 DWORD PTR [ecx+4396], -1
  00007	33 c0		 xor	 eax, eax
  00009	89 81 e4 10 00
	00		 mov	 DWORD PTR [ecx+4324], eax
  0000f	89 81 3c 12 00
	00		 mov	 DWORD PTR [ecx+4668], eax
  00015	66 89 81 40 12
	00 00		 mov	 WORD PTR [ecx+4672], ax
  0001c	c6 81 42 12 00
	00 01		 mov	 BYTE PTR [ecx+4674], 1
  00023	88 81 0a 0f 00
	00		 mov	 BYTE PTR [ecx+3850], al
  00029	89 81 e8 10 00
	00		 mov	 DWORD PTR [ecx+4328], eax

; 53   : }

  0002f	c3		 ret	 0
?ClearData@ioConsecution2Skill@@IAEXXZ ENDP		; ioConsecution2Skill::ClearData
_TEXT	ENDS
PUBLIC	?_Adopt@_Iterator_base0@std@@QAEXPBX@Z		; std::_Iterator_base0::_Adopt
; Function compile flags: /Ogsp
; File c:\program files (x86)\microsoft visual studio 10.0\vc\include\xutility
;	COMDAT ?_Adopt@_Iterator_base0@std@@QAEXPBX@Z
_TEXT	SEGMENT
___formal$ = 8						; size = 4
?_Adopt@_Iterator_base0@std@@QAEXPBX@Z PROC		; std::_Iterator_base0::_Adopt, COMDAT
; _this$ = ecx

; 49   : 		}

  00000	c2 04 00	 ret	 4
?_Adopt@_Iterator_base0@std@@QAEXPBX@Z ENDP		; std::_Iterator_base0::_Adopt
_TEXT	ENDS
PUBLIC	?IsSkillMotionEnd@ioConsecution2Skill@@UBE_NKPAVioBaseChar@@@Z ; ioConsecution2Skill::IsSkillMotionEnd
EXTRN	__imp_?GetLoopSec@ioFrameTimer@@QBEKXZ:PROC
EXTRN	__imp_?GetSingleton@ioFrameTimer@@SAAAV1@XZ:PROC
; Function compile flags: /Ogsp
; File d:\lost saga for developer\youtube\tutorial\source\src\lsclient\ioconsecution2skill.cpp
;	COMDAT ?IsSkillMotionEnd@ioConsecution2Skill@@UBE_NKPAVioBaseChar@@@Z
_TEXT	SEGMENT
_dwActionStop$ = 8					; size = 4
_pOwner$ = 12						; size = 4
?IsSkillMotionEnd@ioConsecution2Skill@@UBE_NKPAVioBaseChar@@@Z PROC ; ioConsecution2Skill::IsSkillMotionEnd, COMDAT
; _this$ = ecx

; 411  : {

  00000	55		 push	 ebp
  00001	8b ec		 mov	 ebp, esp
  00003	56		 push	 esi
  00004	8b f1		 mov	 esi, ecx

; 412  : 	if( m_dwPreDelayStartTime > 0 )

  00006	83 be 20 02 00
	00 00		 cmp	 DWORD PTR [esi+544], 0
  0000d	76 04		 jbe	 SHORT $LN6@IsSkillMot
$LN3@IsSkillMot:

; 413  : 		return false;

  0000f	32 c0		 xor	 al, al
  00011	eb 31		 jmp	 SHORT $LN7@IsSkillMot
$LN6@IsSkillMot:

; 414  : 
; 415  : 	switch( m_SkillState )

  00013	8b 86 e4 10 00
	00		 mov	 eax, DWORD PTR [esi+4324]
  00019	85 c0		 test	 eax, eax
  0001b	78 25		 js	 SHORT $LN4@IsSkillMot
  0001d	83 f8 01	 cmp	 eax, 1
  00020	7e ed		 jle	 SHORT $LN3@IsSkillMot
  00022	83 f8 02	 cmp	 eax, 2
  00025	75 1b		 jne	 SHORT $LN4@IsSkillMot

; 416  : 	{
; 417  : 	case SS_NONE:
; 418  : 	case SS_LOOP:
; 419  : 		return false;
; 420  : 	case SS_ACTION:
; 421  : 		if( m_dwMotionEndTime + dwActionStop > FRAMEGETTIME() )

  00027	ff 15 00 00 00
	00		 call	 DWORD PTR __imp_?GetSingleton@ioFrameTimer@@SAAAV1@XZ
  0002d	8b c8		 mov	 ecx, eax
  0002f	ff 15 00 00 00
	00		 call	 DWORD PTR __imp_?GetLoopSec@ioFrameTimer@@QBEKXZ
  00035	8b 8e d8 02 00
	00		 mov	 ecx, DWORD PTR [esi+728]
  0003b	03 4d 08	 add	 ecx, DWORD PTR _dwActionStop$[ebp]
  0003e	3b c8		 cmp	 ecx, eax

; 422  : 			return false;

  00040	77 cd		 ja	 SHORT $LN3@IsSkillMot
$LN4@IsSkillMot:

; 423  : 		break;
; 424  : 	}
; 425  : 
; 426  : 	return true;

  00042	b0 01		 mov	 al, 1
$LN7@IsSkillMot:
  00044	5e		 pop	 esi

; 427  : }

  00045	5d		 pop	 ebp
  00046	c2 08 00	 ret	 8
?IsSkillMotionEnd@ioConsecution2Skill@@UBE_NKPAVioBaseChar@@@Z ENDP ; ioConsecution2Skill::IsSkillMotionEnd
_TEXT	ENDS
PUBLIC	?CheckUseItemMesh@ioConsecution2Skill@@UAE_NXZ	; ioConsecution2Skill::CheckUseItemMesh
; Function compile flags: /Ogsp
;	COMDAT ?CheckUseItemMesh@ioConsecution2Skill@@UAE_NXZ
_TEXT	SEGMENT
?CheckUseItemMesh@ioConsecution2Skill@@UAE_NXZ PROC	; ioConsecution2Skill::CheckUseItemMesh, COMDAT
; _this$ = ecx

; 653  : 	return m_bUseItemMesh;

  00000	8a 81 08 0f 00
	00		 mov	 al, BYTE PTR [ecx+3848]

; 654  : }

  00006	c3		 ret	 0
?CheckUseItemMesh@ioConsecution2Skill@@UAE_NXZ ENDP	; ioConsecution2Skill::CheckUseItemMesh
_TEXT	ENDS
PUBLIC	?size@?$vector@UWeaponFireInfo@@V?$allocator@UWeaponFireInfo@@@std@@@std@@QBEIXZ ; std::vector<WeaponFireInfo,std::allocator<WeaponFireInfo> >::size
; Function compile flags: /Ogsp
; File c:\program files (x86)\microsoft visual studio 10.0\vc\include\vector
;	COMDAT ?size@?$vector@UWeaponFireInfo@@V?$allocator@UWeaponFireInfo@@@std@@@std@@QBEIXZ
_TEXT	SEGMENT
?size@?$vector@UWeaponFireInfo@@V?$allocator@UWeaponFireInfo@@@std@@@std@@QBEIXZ PROC ; std::vector<WeaponFireInfo,std::allocator<WeaponFireInfo> >::size, COMDAT
; _this$ = ecx

; 879  : 		return (this->_Mylast - this->_Myfirst);

  00000	8b 41 04	 mov	 eax, DWORD PTR [ecx+4]
  00003	2b 01		 sub	 eax, DWORD PTR [ecx]
  00005	6a 30		 push	 48			; 00000030H
  00007	99		 cdq
  00008	59		 pop	 ecx
  00009	f7 f9		 idiv	 ecx

; 880  : 		}

  0000b	c3		 ret	 0
?size@?$vector@UWeaponFireInfo@@V?$allocator@UWeaponFireInfo@@@std@@@std@@QBEIXZ ENDP ; std::vector<WeaponFireInfo,std::allocator<WeaponFireInfo> >::size
_TEXT	ENDS
PUBLIC	??A?$vector@UWeaponFireInfo@@V?$allocator@UWeaponFireInfo@@@std@@@std@@QAEAAUWeaponFireInfo@@I@Z ; std::vector<WeaponFireInfo,std::allocator<WeaponFireInfo> >::operator[]
; Function compile flags: /Ogsp
;	COMDAT ??A?$vector@UWeaponFireInfo@@V?$allocator@UWeaponFireInfo@@@std@@@std@@QAEAAUWeaponFireInfo@@I@Z
_TEXT	SEGMENT
__Pos$ = 8						; size = 4
??A?$vector@UWeaponFireInfo@@V?$allocator@UWeaponFireInfo@@@std@@@std@@QAEAAUWeaponFireInfo@@I@Z PROC ; std::vector<WeaponFireInfo,std::allocator<WeaponFireInfo> >::operator[], COMDAT
; _this$ = ecx

; 928  : 		{	// subscript mutable sequence

  00000	55		 push	 ebp
  00001	8b ec		 mov	 ebp, esp

; 929  :  #if _ITERATOR_DEBUG_LEVEL == 2
; 930  : 		if (size() <= _Pos)
; 931  : 			{	// report error
; 932  : 			_DEBUG_ERROR("vector subscript out of range");
; 933  : 			_SCL_SECURE_OUT_OF_RANGE;
; 934  : 			}
; 935  : 
; 936  :  #elif _ITERATOR_DEBUG_LEVEL == 1
; 937  : 		_SCL_SECURE_VALIDATE_RANGE(_Pos < size());
; 938  :  #endif /* _ITERATOR_DEBUG_LEVEL */
; 939  : 
; 940  : 		return (*(this->_Myfirst + _Pos));

  00003	8b 45 08	 mov	 eax, DWORD PTR __Pos$[ebp]
  00006	6b c0 30	 imul	 eax, 48			; 00000030H
  00009	03 01		 add	 eax, DWORD PTR [ecx]

; 941  : 		}

  0000b	5d		 pop	 ebp
  0000c	c2 04 00	 ret	 4
??A?$vector@UWeaponFireInfo@@V?$allocator@UWeaponFireInfo@@@std@@@std@@QAEAAUWeaponFireInfo@@I@Z ENDP ; std::vector<WeaponFireInfo,std::allocator<WeaponFireInfo> >::operator[]
_TEXT	ENDS
PUBLIC	?capacity@?$vector@UWeaponFireInfo@@V?$allocator@UWeaponFireInfo@@@std@@@std@@QBEIXZ ; std::vector<WeaponFireInfo,std::allocator<WeaponFireInfo> >::capacity
; Function compile flags: /Ogsp
;	COMDAT ?capacity@?$vector@UWeaponFireInfo@@V?$allocator@UWeaponFireInfo@@@std@@@std@@QBEIXZ
_TEXT	SEGMENT
?capacity@?$vector@UWeaponFireInfo@@V?$allocator@UWeaponFireInfo@@@std@@@std@@QBEIXZ PROC ; std::vector<WeaponFireInfo,std::allocator<WeaponFireInfo> >::capacity, COMDAT
; _this$ = ecx

; 777  : 		return (this->_Myend - this->_Myfirst);

  00000	8b 41 08	 mov	 eax, DWORD PTR [ecx+8]
  00003	2b 01		 sub	 eax, DWORD PTR [ecx]
  00005	6a 30		 push	 48			; 00000030H
  00007	99		 cdq
  00008	59		 pop	 ecx
  00009	f7 f9		 idiv	 ecx

; 778  : 		}

  0000b	c3		 ret	 0
?capacity@?$vector@UWeaponFireInfo@@V?$allocator@UWeaponFireInfo@@@std@@@std@@QBEIXZ ENDP ; std::vector<WeaponFireInfo,std::allocator<WeaponFireInfo> >::capacity
_TEXT	ENDS
PUBLIC	?_Inside@?$vector@UWeaponFireInfo@@V?$allocator@UWeaponFireInfo@@@std@@@std@@IBE_NPBUWeaponFireInfo@@@Z ; std::vector<WeaponFireInfo,std::allocator<WeaponFireInfo> >::_Inside
; Function compile flags: /Ogsp
;	COMDAT ?_Inside@?$vector@UWeaponFireInfo@@V?$allocator@UWeaponFireInfo@@@std@@@std@@IBE_NPBUWeaponFireInfo@@@Z
_TEXT	SEGMENT
__Ptr$ = 8						; size = 4
?_Inside@?$vector@UWeaponFireInfo@@V?$allocator@UWeaponFireInfo@@@std@@@std@@IBE_NPBUWeaponFireInfo@@@Z PROC ; std::vector<WeaponFireInfo,std::allocator<WeaponFireInfo> >::_Inside, COMDAT
; _this$ = ecx

; 1285 : 		{	// test if _Ptr points inside vector

  00000	55		 push	 ebp
  00001	8b ec		 mov	 ebp, esp

; 1286 : 		return (_Ptr < this->_Mylast && this->_Myfirst <= _Ptr);

  00003	8b 45 08	 mov	 eax, DWORD PTR __Ptr$[ebp]
  00006	3b 41 04	 cmp	 eax, DWORD PTR [ecx+4]
  00009	73 09		 jae	 SHORT $LN3@Inside
  0000b	39 01		 cmp	 DWORD PTR [ecx], eax
  0000d	77 05		 ja	 SHORT $LN3@Inside
  0000f	33 c0		 xor	 eax, eax
  00011	40		 inc	 eax
  00012	eb 02		 jmp	 SHORT $LN4@Inside
$LN3@Inside:
  00014	33 c0		 xor	 eax, eax
$LN4@Inside:

; 1287 : 		}

  00016	5d		 pop	 ebp
  00017	c2 04 00	 ret	 4
?_Inside@?$vector@UWeaponFireInfo@@V?$allocator@UWeaponFireInfo@@@std@@@std@@IBE_NPBUWeaponFireInfo@@@Z ENDP ; std::vector<WeaponFireInfo,std::allocator<WeaponFireInfo> >::_Inside
_TEXT	ENDS
PUBLIC	??_C@_0BD@OLBABOEK@vector?$DMT?$DO?5too?5long?$AA@ ; `string'
PUBLIC	?_Xlen@?$vector@UWeaponFireInfo@@V?$allocator@UWeaponFireInfo@@@std@@@std@@IBEXXZ ; std::vector<WeaponFireInfo,std::allocator<WeaponFireInfo> >::_Xlen
EXTRN	__imp_?_Xlength_error@std@@YAXPBD@Z:PROC
;	COMDAT ??_C@_0BD@OLBABOEK@vector?$DMT?$DO?5too?5long?$AA@
CONST	SEGMENT
??_C@_0BD@OLBABOEK@vector?$DMT?$DO?5too?5long?$AA@ DB 'vector<T> too long'
	DB	00H						; `string'
; Function compile flags: /Ogsp
CONST	ENDS
;	COMDAT ?_Xlen@?$vector@UWeaponFireInfo@@V?$allocator@UWeaponFireInfo@@@std@@@std@@IBEXXZ
_TEXT	SEGMENT
?_Xlen@?$vector@UWeaponFireInfo@@V?$allocator@UWeaponFireInfo@@@std@@@std@@IBEXXZ PROC ; std::vector<WeaponFireInfo,std::allocator<WeaponFireInfo> >::_Xlen, COMDAT
; _this$ = ecx

; 1427 : 		_Xlength_error("vector<T> too long");

  00000	68 00 00 00 00	 push	 OFFSET ??_C@_0BD@OLBABOEK@vector?$DMT?$DO?5too?5long?$AA@
  00005	ff 15 00 00 00
	00		 call	 DWORD PTR __imp_?_Xlength_error@std@@YAXPBD@Z
$LN4@Xlen:
$LN3@Xlen:
  0000b	cc		 int	 3
?_Xlen@?$vector@UWeaponFireInfo@@V?$allocator@UWeaponFireInfo@@@std@@@std@@IBEXXZ ENDP ; std::vector<WeaponFireInfo,std::allocator<WeaponFireInfo> >::_Xlen
_TEXT	ENDS
PUBLIC	?_Orphan_range@?$vector@UWeaponFireInfo@@V?$allocator@UWeaponFireInfo@@@std@@@std@@IBEXPAUWeaponFireInfo@@0@Z ; std::vector<WeaponFireInfo,std::allocator<WeaponFireInfo> >::_Orphan_range
; Function compile flags: /Ogsp
;	COMDAT ?_Orphan_range@?$vector@UWeaponFireInfo@@V?$allocator@UWeaponFireInfo@@@std@@@std@@IBEXPAUWeaponFireInfo@@0@Z
_TEXT	SEGMENT
___formal$ = 8						; size = 4
___formal$ = 12						; size = 4
?_Orphan_range@?$vector@UWeaponFireInfo@@V?$allocator@UWeaponFireInfo@@@std@@@std@@IBEXPAUWeaponFireInfo@@0@Z PROC ; std::vector<WeaponFireInfo,std::allocator<WeaponFireInfo> >::_Orphan_range, COMDAT
; _this$ = ecx

; 1454 : 		}

  00000	c2 08 00	 ret	 8
?_Orphan_range@?$vector@UWeaponFireInfo@@V?$allocator@UWeaponFireInfo@@@std@@@std@@IBEXPAUWeaponFireInfo@@0@Z ENDP ; std::vector<WeaponFireInfo,std::allocator<WeaponFireInfo> >::_Orphan_range
_TEXT	ENDS
PUBLIC	??1?$_Vector_val@UWeaponFireInfo@@V?$allocator@UWeaponFireInfo@@@std@@@std@@QAE@XZ ; std::_Vector_val<WeaponFireInfo,std::allocator<WeaponFireInfo> >::~_Vector_val<WeaponFireInfo,std::allocator<WeaponFireInfo> >
; Function compile flags: /Ogsp
;	COMDAT ??1?$_Vector_val@UWeaponFireInfo@@V?$allocator@UWeaponFireInfo@@@std@@@std@@QAE@XZ
_TEXT	SEGMENT
??1?$_Vector_val@UWeaponFireInfo@@V?$allocator@UWeaponFireInfo@@@std@@@std@@QAE@XZ PROC ; std::_Vector_val<WeaponFireInfo,std::allocator<WeaponFireInfo> >::~_Vector_val<WeaponFireInfo,std::allocator<WeaponFireInfo> >, COMDAT
; _this$ = ecx

; 434  : 		}

  00000	c3		 ret	 0
??1?$_Vector_val@UWeaponFireInfo@@V?$allocator@UWeaponFireInfo@@@std@@@std@@QAE@XZ ENDP ; std::_Vector_val<WeaponFireInfo,std::allocator<WeaponFireInfo> >::~_Vector_val<WeaponFireInfo,std::allocator<WeaponFireInfo> >
_TEXT	ENDS
PUBLIC	??0?$allocator@UWeaponFireInfo@@@std@@QAE@XZ	; std::allocator<WeaponFireInfo>::allocator<WeaponFireInfo>
; Function compile flags: /Ogsp
; File c:\program files (x86)\microsoft visual studio 10.0\vc\include\xmemory
;	COMDAT ??0?$allocator@UWeaponFireInfo@@@std@@QAE@XZ
_TEXT	SEGMENT
??0?$allocator@UWeaponFireInfo@@@std@@QAE@XZ PROC	; std::allocator<WeaponFireInfo>::allocator<WeaponFireInfo>, COMDAT
; _this$ = ecx

; 161  : 	_ALLOCATOR() _THROW0()

  00000	8b c1		 mov	 eax, ecx

; 162  : 		{	// construct default allocator (do nothing)
; 163  : 		}

  00002	c3		 ret	 0
??0?$allocator@UWeaponFireInfo@@@std@@QAE@XZ ENDP	; std::allocator<WeaponFireInfo>::allocator<WeaponFireInfo>
_TEXT	ENDS
PUBLIC	??0?$allocator@UWeaponFireInfo@@@std@@QAE@ABV01@@Z ; std::allocator<WeaponFireInfo>::allocator<WeaponFireInfo>
; Function compile flags: /Ogsp
;	COMDAT ??0?$allocator@UWeaponFireInfo@@@std@@QAE@ABV01@@Z
_TEXT	SEGMENT
___formal$ = 8						; size = 4
??0?$allocator@UWeaponFireInfo@@@std@@QAE@ABV01@@Z PROC	; std::allocator<WeaponFireInfo>::allocator<WeaponFireInfo>, COMDAT
; _this$ = ecx

; 165  : 	_ALLOCATOR(const _ALLOCATOR<_Ty>&) _THROW0()

  00000	8b c1		 mov	 eax, ecx

; 166  : 		{	// construct by copying (do nothing)
; 167  : 		}

  00002	c2 04 00	 ret	 4
??0?$allocator@UWeaponFireInfo@@@std@@QAE@ABV01@@Z ENDP	; std::allocator<WeaponFireInfo>::allocator<WeaponFireInfo>
_TEXT	ENDS
PUBLIC	?deallocate@?$allocator@UWeaponFireInfo@@@std@@QAEXPAUWeaponFireInfo@@I@Z ; std::allocator<WeaponFireInfo>::deallocate
; Function compile flags: /Ogsp
;	COMDAT ?deallocate@?$allocator@UWeaponFireInfo@@@std@@QAEXPAUWeaponFireInfo@@I@Z
_TEXT	SEGMENT
__Ptr$ = 8						; size = 4
___formal$ = 12						; size = 4
?deallocate@?$allocator@UWeaponFireInfo@@@std@@QAEXPAUWeaponFireInfo@@I@Z PROC ; std::allocator<WeaponFireInfo>::deallocate, COMDAT
; _this$ = ecx

; 181  : 		{	// deallocate object at _Ptr, ignore size

  00000	55		 push	 ebp
  00001	8b ec		 mov	 ebp, esp

; 182  : 		::operator delete(_Ptr);

  00003	ff 75 08	 push	 DWORD PTR __Ptr$[ebp]
  00006	e8 00 00 00 00	 call	 ??3@YAXPAX@Z		; operator delete
  0000b	59		 pop	 ecx

; 183  : 		}

  0000c	5d		 pop	 ebp
  0000d	c2 08 00	 ret	 8
?deallocate@?$allocator@UWeaponFireInfo@@@std@@QAEXPAUWeaponFireInfo@@I@Z ENDP ; std::allocator<WeaponFireInfo>::deallocate
_TEXT	ENDS
PUBLIC	?max_size@?$allocator@UWeaponFireInfo@@@std@@QBEIXZ ; std::allocator<WeaponFireInfo>::max_size
; Function compile flags: /Ogsp
;	COMDAT ?max_size@?$allocator@UWeaponFireInfo@@@std@@QBEIXZ
_TEXT	SEGMENT
?max_size@?$allocator@UWeaponFireInfo@@@std@@QBEIXZ PROC ; std::allocator<WeaponFireInfo>::max_size, COMDAT
; _this$ = ecx

; 218  : 		_SIZT _Count = (_SIZT)(-1) / sizeof (_Ty);
; 219  : 		return (0 < _Count ? _Count : 1);

  00000	b8 55 55 55 05	 mov	 eax, 89478485		; 05555555H

; 220  : 		}

  00005	c3		 ret	 0
?max_size@?$allocator@UWeaponFireInfo@@@std@@QBEIXZ ENDP ; std::allocator<WeaponFireInfo>::max_size
_TEXT	ENDS
PUBLIC	??0?$_Vector_const_iterator@V?$_Vector_val@UWeaponFireInfo@@V?$allocator@UWeaponFireInfo@@@std@@@std@@@std@@QAE@PAUWeaponFireInfo@@PBU_Container_base0@1@@Z ; std::_Vector_const_iterator<std::_Vector_val<WeaponFireInfo,std::allocator<WeaponFireInfo> > >::_Vector_const_iterator<std::_Vector_val<WeaponFireInfo,std::allocator<WeaponFireInfo> > >
; Function compile flags: /Ogsp
; File c:\program files (x86)\microsoft visual studio 10.0\vc\include\vector
;	COMDAT ??0?$_Vector_const_iterator@V?$_Vector_val@UWeaponFireInfo@@V?$allocator@UWeaponFireInfo@@@std@@@std@@@std@@QAE@PAUWeaponFireInfo@@PBU_Container_base0@1@@Z
_TEXT	SEGMENT
__Parg$ = 8						; size = 4
__Pvector$ = 12						; size = 4
??0?$_Vector_const_iterator@V?$_Vector_val@UWeaponFireInfo@@V?$allocator@UWeaponFireInfo@@@std@@@std@@@std@@QAE@PAUWeaponFireInfo@@PBU_Container_base0@1@@Z PROC ; std::_Vector_const_iterator<std::_Vector_val<WeaponFireInfo,std::allocator<WeaponFireInfo> > >::_Vector_const_iterator<std::_Vector_val<WeaponFireInfo,std::allocator<WeaponFireInfo> > >, COMDAT
; _this$ = ecx

; 45   : 		{	// construct with pointer _Parg

  00000	55		 push	 ebp
  00001	8b ec		 mov	 ebp, esp
  00003	8b c1		 mov	 eax, ecx
  00005	8b 4d 08	 mov	 ecx, DWORD PTR __Parg$[ebp]
  00008	89 08		 mov	 DWORD PTR [eax], ecx

; 46   : 		this->_Adopt(_Pvector);
; 47   : 		}

  0000a	5d		 pop	 ebp
  0000b	c2 08 00	 ret	 8
??0?$_Vector_const_iterator@V?$_Vector_val@UWeaponFireInfo@@V?$allocator@UWeaponFireInfo@@@std@@@std@@@std@@QAE@PAUWeaponFireInfo@@PBU_Container_base0@1@@Z ENDP ; std::_Vector_const_iterator<std::_Vector_val<WeaponFireInfo,std::allocator<WeaponFireInfo> > >::_Vector_const_iterator<std::_Vector_val<WeaponFireInfo,std::allocator<WeaponFireInfo> > >
_TEXT	ENDS
PUBLIC	??0?$_Vector_iterator@V?$_Vector_val@UWeaponFireInfo@@V?$allocator@UWeaponFireInfo@@@std@@@std@@@std@@QAE@PAUWeaponFireInfo@@PBU_Container_base0@1@@Z ; std::_Vector_iterator<std::_Vector_val<WeaponFireInfo,std::allocator<WeaponFireInfo> > >::_Vector_iterator<std::_Vector_val<WeaponFireInfo,std::allocator<WeaponFireInfo> > >
; Function compile flags: /Ogsp
;	COMDAT ??0?$_Vector_iterator@V?$_Vector_val@UWeaponFireInfo@@V?$allocator@UWeaponFireInfo@@@std@@@std@@@std@@QAE@PAUWeaponFireInfo@@PBU_Container_base0@1@@Z
_TEXT	SEGMENT
__Parg$ = 8						; size = 4
__Pvector$ = 12						; size = 4
??0?$_Vector_iterator@V?$_Vector_val@UWeaponFireInfo@@V?$allocator@UWeaponFireInfo@@@std@@@std@@@std@@QAE@PAUWeaponFireInfo@@PBU_Container_base0@1@@Z PROC ; std::_Vector_iterator<std::_Vector_val<WeaponFireInfo,std::allocator<WeaponFireInfo> > >::_Vector_iterator<std::_Vector_val<WeaponFireInfo,std::allocator<WeaponFireInfo> > >, COMDAT
; _this$ = ecx

; 304  : 		{	// construct with pointer _Parg

  00000	55		 push	 ebp
  00001	8b ec		 mov	 ebp, esp
  00003	8b c1		 mov	 eax, ecx
  00005	8b 4d 08	 mov	 ecx, DWORD PTR __Parg$[ebp]
  00008	89 08		 mov	 DWORD PTR [eax], ecx

; 305  : 		}

  0000a	5d		 pop	 ebp
  0000b	c2 08 00	 ret	 8
??0?$_Vector_iterator@V?$_Vector_val@UWeaponFireInfo@@V?$allocator@UWeaponFireInfo@@@std@@@std@@@std@@QAE@PAUWeaponFireInfo@@PBU_Container_base0@1@@Z ENDP ; std::_Vector_iterator<std::_Vector_val<WeaponFireInfo,std::allocator<WeaponFireInfo> > >::_Vector_iterator<std::_Vector_val<WeaponFireInfo,std::allocator<WeaponFireInfo> > >
_TEXT	ENDS
PUBLIC	?_Compat@?$_Vector_const_iterator@V?$_Vector_val@UWeaponFireInfo@@V?$allocator@UWeaponFireInfo@@@std@@@std@@@std@@QBEXABV12@@Z ; std::_Vector_const_iterator<std::_Vector_val<WeaponFireInfo,std::allocator<WeaponFireInfo> > >::_Compat
; Function compile flags: /Ogsp
;	COMDAT ?_Compat@?$_Vector_const_iterator@V?$_Vector_val@UWeaponFireInfo@@V?$allocator@UWeaponFireInfo@@@std@@@std@@@std@@QBEXABV12@@Z
_TEXT	SEGMENT
___formal$ = 8						; size = 4
?_Compat@?$_Vector_const_iterator@V?$_Vector_val@UWeaponFireInfo@@V?$allocator@UWeaponFireInfo@@@std@@@std@@@std@@QBEXABV12@@Z PROC ; std::_Vector_const_iterator<std::_Vector_val<WeaponFireInfo,std::allocator<WeaponFireInfo> > >::_Compat, COMDAT
; _this$ = ecx

; 253  : 		}

  00000	c2 04 00	 ret	 4
?_Compat@?$_Vector_const_iterator@V?$_Vector_val@UWeaponFireInfo@@V?$allocator@UWeaponFireInfo@@@std@@@std@@@std@@QBEXABV12@@Z ENDP ; std::_Vector_const_iterator<std::_Vector_val<WeaponFireInfo,std::allocator<WeaponFireInfo> > >::_Compat
_TEXT	ENDS
PUBLIC	??0D3DXVECTOR3@@QAE@MMM@Z			; D3DXVECTOR3::D3DXVECTOR3
; Function compile flags: /Ogsp
; File c:\program files (x86)\microsoft directx sdk (june 2010)\include\d3dx9math.inl
;	COMDAT ??0D3DXVECTOR3@@QAE@MMM@Z
_TEXT	SEGMENT
_fx$ = 8						; size = 4
_fy$ = 12						; size = 4
_fz$ = 16						; size = 4
??0D3DXVECTOR3@@QAE@MMM@Z PROC				; D3DXVECTOR3::D3DXVECTOR3, COMDAT
; _this$ = ecx

; 303  : {

  00000	55		 push	 ebp
  00001	8b ec		 mov	 ebp, esp

; 304  :     x = fx;

  00003	f3 0f 10 45 08	 movss	 xmm0, DWORD PTR _fx$[ebp]
  00008	8b c1		 mov	 eax, ecx
  0000a	f3 0f 11 00	 movss	 DWORD PTR [eax], xmm0

; 305  :     y = fy;

  0000e	f3 0f 10 45 0c	 movss	 xmm0, DWORD PTR _fy$[ebp]
  00013	f3 0f 11 40 04	 movss	 DWORD PTR [eax+4], xmm0

; 306  :     z = fz;

  00018	f3 0f 10 45 10	 movss	 xmm0, DWORD PTR _fz$[ebp]
  0001d	f3 0f 11 40 08	 movss	 DWORD PTR [eax+8], xmm0

; 307  : }

  00022	5d		 pop	 ebp
  00023	c2 0c 00	 ret	 12			; 0000000cH
??0D3DXVECTOR3@@QAE@MMM@Z ENDP				; D3DXVECTOR3::D3DXVECTOR3
_TEXT	ENDS
PUBLIC	??YD3DXVECTOR3@@QAEAAU0@ABU0@@Z			; D3DXVECTOR3::operator+=
; Function compile flags: /Ogsp
;	COMDAT ??YD3DXVECTOR3@@QAEAAU0@ABU0@@Z
_TEXT	SEGMENT
_v$ = 8							; size = 4
??YD3DXVECTOR3@@QAEAAU0@ABU0@@Z PROC			; D3DXVECTOR3::operator+=, COMDAT
; _this$ = ecx

; 327  : {

  00000	55		 push	 ebp
  00001	8b ec		 mov	 ebp, esp
  00003	8b c1		 mov	 eax, ecx

; 328  :     x += v.x;

  00005	8b 4d 08	 mov	 ecx, DWORD PTR _v$[ebp]
  00008	f3 0f 10 01	 movss	 xmm0, DWORD PTR [ecx]
  0000c	f3 0f 10 08	 movss	 xmm1, DWORD PTR [eax]
  00010	0f 5a c0	 cvtps2pd xmm0, xmm0
  00013	0f 5a c9	 cvtps2pd xmm1, xmm1
  00016	f2 0f 58 c1	 addsd	 xmm0, xmm1

; 329  :     y += v.y;

  0001a	f3 0f 10 48 04	 movss	 xmm1, DWORD PTR [eax+4]
  0001f	66 0f 5a c0	 cvtpd2ps xmm0, xmm0
  00023	f3 0f 11 00	 movss	 DWORD PTR [eax], xmm0
  00027	f3 0f 10 41 04	 movss	 xmm0, DWORD PTR [ecx+4]
  0002c	0f 5a c0	 cvtps2pd xmm0, xmm0
  0002f	0f 5a c9	 cvtps2pd xmm1, xmm1
  00032	f2 0f 58 c1	 addsd	 xmm0, xmm1

; 330  :     z += v.z;

  00036	f3 0f 10 48 08	 movss	 xmm1, DWORD PTR [eax+8]
  0003b	66 0f 5a c0	 cvtpd2ps xmm0, xmm0
  0003f	f3 0f 11 40 04	 movss	 DWORD PTR [eax+4], xmm0
  00044	f3 0f 10 41 08	 movss	 xmm0, DWORD PTR [ecx+8]
  00049	0f 5a c0	 cvtps2pd xmm0, xmm0
  0004c	0f 5a c9	 cvtps2pd xmm1, xmm1
  0004f	f2 0f 58 c1	 addsd	 xmm0, xmm1
  00053	66 0f 5a c0	 cvtpd2ps xmm0, xmm0
  00057	f3 0f 11 40 08	 movss	 DWORD PTR [eax+8], xmm0

; 331  :     return *this;
; 332  : }

  0005c	5d		 pop	 ebp
  0005d	c2 04 00	 ret	 4
??YD3DXVECTOR3@@QAEAAU0@ABU0@@Z ENDP			; D3DXVECTOR3::operator+=
_TEXT	ENDS
PUBLIC	??DD3DXVECTOR3@@QBE?AU0@M@Z			; D3DXVECTOR3::operator*
; Function compile flags: /Ogsp
;	COMDAT ??DD3DXVECTOR3@@QBE?AU0@M@Z
_TEXT	SEGMENT
___$ReturnUdt$ = 8					; size = 4
_f$ = 12						; size = 4
??DD3DXVECTOR3@@QBE?AU0@M@Z PROC			; D3DXVECTOR3::operator*, COMDAT
; _this$ = ecx

; 392  : {

  00000	55		 push	 ebp
  00001	8b ec		 mov	 ebp, esp

; 393  :     return D3DXVECTOR3(x * f, y * f, z * f);

  00003	f3 0f 10 4d 0c	 movss	 xmm1, DWORD PTR _f$[ebp]
  00008	f3 0f 10 01	 movss	 xmm0, DWORD PTR [ecx]
  0000c	8b 45 08	 mov	 eax, DWORD PTR ___$ReturnUdt$[ebp]
  0000f	0f 5a c0	 cvtps2pd xmm0, xmm0
  00012	0f 5a c9	 cvtps2pd xmm1, xmm1
  00015	f2 0f 59 c1	 mulsd	 xmm0, xmm1
  00019	f3 0f 10 4d 0c	 movss	 xmm1, DWORD PTR _f$[ebp]
  0001e	66 0f 5a c0	 cvtpd2ps xmm0, xmm0
  00022	f3 0f 11 00	 movss	 DWORD PTR [eax], xmm0
  00026	f3 0f 10 41 04	 movss	 xmm0, DWORD PTR [ecx+4]
  0002b	0f 5a c0	 cvtps2pd xmm0, xmm0
  0002e	0f 5a c9	 cvtps2pd xmm1, xmm1
  00031	f2 0f 59 c1	 mulsd	 xmm0, xmm1
  00035	f3 0f 10 4d 0c	 movss	 xmm1, DWORD PTR _f$[ebp]
  0003a	66 0f 5a c0	 cvtpd2ps xmm0, xmm0
  0003e	f3 0f 11 40 04	 movss	 DWORD PTR [eax+4], xmm0
  00043	f3 0f 10 41 08	 movss	 xmm0, DWORD PTR [ecx+8]
  00048	0f 5a c0	 cvtps2pd xmm0, xmm0
  0004b	0f 5a c9	 cvtps2pd xmm1, xmm1
  0004e	f2 0f 59 c1	 mulsd	 xmm0, xmm1
  00052	66 0f 5a c0	 cvtpd2ps xmm0, xmm0
  00056	f3 0f 11 40 08	 movss	 DWORD PTR [eax+8], xmm0

; 394  : }

  0005b	5d		 pop	 ebp
  0005c	c2 08 00	 ret	 8
??DD3DXVECTOR3@@QBE?AU0@M@Z ENDP			; D3DXVECTOR3::operator*
_TEXT	ENDS
PUBLIC	??$addressof@$$CBUWeaponFireInfo@@@std@@YAPBUWeaponFireInfo@@ABU1@@Z ; std::addressof<WeaponFireInfo const >
; Function compile flags: /Ogsp
; File c:\program files (x86)\microsoft visual studio 10.0\vc\include\xmemory
;	COMDAT ??$addressof@$$CBUWeaponFireInfo@@@std@@YAPBUWeaponFireInfo@@ABU1@@Z
_TEXT	SEGMENT
__Val$ = 8						; size = 4
??$addressof@$$CBUWeaponFireInfo@@@std@@YAPBUWeaponFireInfo@@ABU1@@Z PROC ; std::addressof<WeaponFireInfo const >, COMDAT

; 110  : 	{	// return address of _Val

  00000	55		 push	 ebp
  00001	8b ec		 mov	 ebp, esp

; 111  : 	return ((_Ty *) &(char&)_Val);

  00003	8b 45 08	 mov	 eax, DWORD PTR __Val$[ebp]

; 112  : 	}

  00006	5d		 pop	 ebp
  00007	c3		 ret	 0
??$addressof@$$CBUWeaponFireInfo@@@std@@YAPBUWeaponFireInfo@@ABU1@@Z ENDP ; std::addressof<WeaponFireInfo const >
_TEXT	ENDS
PUBLIC	__TI2?AVbad_alloc@std@@
PUBLIC	??$_Allocate@UWeaponFireInfo@@@std@@YAPAUWeaponFireInfo@@IPAU1@@Z ; std::_Allocate<WeaponFireInfo>
PUBLIC	__CTA2?AVbad_alloc@std@@
PUBLIC	__CT??_R0?AVbad_alloc@std@@@8??0bad_alloc@std@@QAE@ABV01@@Z12
PUBLIC	??0bad_alloc@std@@QAE@ABV01@@Z			; std::bad_alloc::bad_alloc
PUBLIC	__CT??_R0?AVexception@std@@@8??0exception@std@@QAE@ABV01@@Z12
EXTRN	??2@YAPAXI@Z:PROC				; operator new
EXTRN	__CxxThrowException@8:PROC
EXTRN	??0exception@std@@QAE@ABV01@@Z:PROC		; std::exception::exception
;	COMDAT __CT??_R0?AVexception@std@@@8??0exception@std@@QAE@ABV01@@Z12
; File c:\program files (x86)\microsoft visual studio 10.0\vc\include\exception
xdata$x	SEGMENT
__CT??_R0?AVexception@std@@@8??0exception@std@@QAE@ABV01@@Z12 DD 00H
	DD	FLAT:??_R0?AVexception@std@@@8
	DD	00H
	DD	0ffffffffH
	ORG $+4
	DD	0cH
	DD	FLAT:??0exception@std@@QAE@ABV01@@Z
xdata$x	ENDS
;	COMDAT __CT??_R0?AVbad_alloc@std@@@8??0bad_alloc@std@@QAE@ABV01@@Z12
xdata$x	SEGMENT
__CT??_R0?AVbad_alloc@std@@@8??0bad_alloc@std@@QAE@ABV01@@Z12 DD 00H
	DD	FLAT:??_R0?AVbad_alloc@std@@@8
	DD	00H
	DD	0ffffffffH
	ORG $+4
	DD	0cH
	DD	FLAT:??0bad_alloc@std@@QAE@ABV01@@Z
xdata$x	ENDS
;	COMDAT __CTA2?AVbad_alloc@std@@
xdata$x	SEGMENT
__CTA2?AVbad_alloc@std@@ DD 02H
	DD	FLAT:__CT??_R0?AVbad_alloc@std@@@8??0bad_alloc@std@@QAE@ABV01@@Z12
	DD	FLAT:__CT??_R0?AVexception@std@@@8??0exception@std@@QAE@ABV01@@Z12
xdata$x	ENDS
;	COMDAT __TI2?AVbad_alloc@std@@
xdata$x	SEGMENT
__TI2?AVbad_alloc@std@@ DD 00H
	DD	FLAT:??1bad_alloc@std@@UAE@XZ
	DD	00H
	DD	FLAT:__CTA2?AVbad_alloc@std@@
; Function compile flags: /Ogsp
; File c:\program files (x86)\microsoft visual studio 10.0\vc\include\xmemory
xdata$x	ENDS
;	COMDAT ??$_Allocate@UWeaponFireInfo@@@std@@YAPAUWeaponFireInfo@@IPAU1@@Z
_TEXT	SEGMENT
$T535621 = -12						; size = 12
$T535626 = 8						; size = 4
__Count$ = 8						; size = 4
___formal$ = 12						; size = 4
??$_Allocate@UWeaponFireInfo@@@std@@YAPAUWeaponFireInfo@@IPAU1@@Z PROC ; std::_Allocate<WeaponFireInfo>, COMDAT

; 30   : 	{	// allocate storage for _Count elements of type _Ty

  00000	55		 push	 ebp
  00001	8b ec		 mov	 ebp, esp

; 31   : 	void *_Ptr = 0;
; 32   : 
; 33   : 	if (_Count <= 0)

  00003	8b 4d 08	 mov	 ecx, DWORD PTR __Count$[ebp]
  00006	83 ec 0c	 sub	 esp, 12			; 0000000cH
  00009	33 c0		 xor	 eax, eax
  0000b	85 c9		 test	 ecx, ecx

; 34   : 		_Count = 0;
; 35   : 	else if (((_SIZT)(-1) / sizeof (_Ty) < _Count)

  0000d	74 3c		 je	 SHORT $LN5@Allocate

; 36   : 		|| (_Ptr = ::operator new(_Count * sizeof (_Ty))) == 0)

  0000f	81 f9 55 55 55
	05		 cmp	 ecx, 89478485		; 05555555H
  00015	77 0e		 ja	 SHORT $LN1@Allocate
  00017	6b c9 30	 imul	 ecx, 48			; 00000030H
  0001a	51		 push	 ecx
  0001b	e8 00 00 00 00	 call	 ??2@YAPAXI@Z		; operator new
  00020	59		 pop	 ecx
  00021	85 c0		 test	 eax, eax

; 38   : 
; 39   : 	return ((_Ty _FARQ *)_Ptr);

  00023	75 26		 jne	 SHORT $LN5@Allocate
$LN1@Allocate:

; 37   : 		_THROW_NCEE(bad_alloc, 0);

  00025	83 65 08 00	 and	 DWORD PTR $T535626[ebp], 0
  00029	8d 45 08	 lea	 eax, DWORD PTR $T535626[ebp]
  0002c	50		 push	 eax
  0002d	8d 4d f4	 lea	 ecx, DWORD PTR $T535621[ebp]
  00030	ff 15 00 00 00
	00		 call	 DWORD PTR __imp_??0exception@std@@QAE@ABQBD@Z
  00036	68 00 00 00 00	 push	 OFFSET __TI2?AVbad_alloc@std@@
  0003b	8d 45 f4	 lea	 eax, DWORD PTR $T535621[ebp]
  0003e	50		 push	 eax
  0003f	c7 45 f4 00 00
	00 00		 mov	 DWORD PTR $T535621[ebp], OFFSET ??_7bad_alloc@std@@6B@
  00046	e8 00 00 00 00	 call	 __CxxThrowException@8
$LN10@Allocate:
$LN5@Allocate:

; 40   : 	}

  0004b	c9		 leave
  0004c	c3		 ret	 0
$LN9@Allocate:
??$_Allocate@UWeaponFireInfo@@@std@@YAPAUWeaponFireInfo@@IPAU1@@Z ENDP ; std::_Allocate<WeaponFireInfo>
_TEXT	ENDS
PUBLIC	??$forward@AAUWeaponFireInfo@@@std@@YAAAUWeaponFireInfo@@AAU1@@Z ; std::forward<WeaponFireInfo &>
; Function compile flags: /Ogsp
; File c:\program files (x86)\microsoft visual studio 10.0\vc\include\utility
;	COMDAT ??$forward@AAUWeaponFireInfo@@@std@@YAAAUWeaponFireInfo@@AAU1@@Z
_TEXT	SEGMENT
__Arg$ = 8						; size = 4
??$forward@AAUWeaponFireInfo@@@std@@YAAAUWeaponFireInfo@@AAU1@@Z PROC ; std::forward<WeaponFireInfo &>, COMDAT

; 78   : 	{	// forward _Arg, given explicitly specified type parameter

  00000	55		 push	 ebp
  00001	8b ec		 mov	 ebp, esp

; 79   : 	return ((_Ty&&)_Arg);

  00003	8b 45 08	 mov	 eax, DWORD PTR __Arg$[ebp]

; 80   : 	}

  00006	5d		 pop	 ebp
  00007	c3		 ret	 0
??$forward@AAUWeaponFireInfo@@@std@@YAAAUWeaponFireInfo@@AAU1@@Z ENDP ; std::forward<WeaponFireInfo &>
_TEXT	ENDS
PUBLIC	??$forward@ABUWeaponFireInfo@@@std@@YAABUWeaponFireInfo@@ABU1@@Z ; std::forward<WeaponFireInfo const &>
; Function compile flags: /Ogsp
;	COMDAT ??$forward@ABUWeaponFireInfo@@@std@@YAABUWeaponFireInfo@@ABU1@@Z
_TEXT	SEGMENT
__Arg$ = 8						; size = 4
??$forward@ABUWeaponFireInfo@@@std@@YAABUWeaponFireInfo@@ABU1@@Z PROC ; std::forward<WeaponFireInfo const &>, COMDAT

; 78   : 	{	// forward _Arg, given explicitly specified type parameter

  00000	55		 push	 ebp
  00001	8b ec		 mov	 ebp, esp

; 79   : 	return ((_Ty&&)_Arg);

  00003	8b 45 08	 mov	 eax, DWORD PTR __Arg$[ebp]

; 80   : 	}

  00006	5d		 pop	 ebp
  00007	c3		 ret	 0
??$forward@ABUWeaponFireInfo@@@std@@YAABUWeaponFireInfo@@ABU1@@Z ENDP ; std::forward<WeaponFireInfo const &>
_TEXT	ENDS
PUBLIC	??$_Ptr_cat@UWeaponFireInfo@@U1@@std@@YA?AU_Nonscalar_ptr_iterator_tag@0@PAUWeaponFireInfo@@0@Z ; std::_Ptr_cat<WeaponFireInfo,WeaponFireInfo>
; Function compile flags: /Ogsp
; File c:\program files (x86)\microsoft visual studio 10.0\vc\include\xutility
;	COMDAT ??$_Ptr_cat@UWeaponFireInfo@@U1@@std@@YA?AU_Nonscalar_ptr_iterator_tag@0@PAUWeaponFireInfo@@0@Z
_TEXT	SEGMENT
__Cat$ = -1						; size = 1
___formal$ = 8						; size = 4
___formal$ = 12						; size = 4
??$_Ptr_cat@UWeaponFireInfo@@U1@@std@@YA?AU_Nonscalar_ptr_iterator_tag@0@PAUWeaponFireInfo@@0@Z PROC ; std::_Ptr_cat<WeaponFireInfo,WeaponFireInfo>, COMDAT

; 516  : 	{	// return pointer category from pointers

  00000	55		 push	 ebp
  00001	8b ec		 mov	 ebp, esp
  00003	51		 push	 ecx

; 517  : 	typename _Ptr_cat_helper<_Elem1, _Elem2>::_Type _Cat;
; 518  : 	return (_Cat);

  00004	8a 45 ff	 mov	 al, BYTE PTR __Cat$[ebp]

; 519  : 	}

  00007	c9		 leave
  00008	c3		 ret	 0
??$_Ptr_cat@UWeaponFireInfo@@U1@@std@@YA?AU_Nonscalar_ptr_iterator_tag@0@PAUWeaponFireInfo@@0@Z ENDP ; std::_Ptr_cat<WeaponFireInfo,WeaponFireInfo>
_TEXT	ENDS
PUBLIC	??$_Ptr_cat@V?$_Vector_const_iterator@V?$_Vector_val@UWeaponFireInfo@@V?$allocator@UWeaponFireInfo@@@std@@@std@@@std@@PAUWeaponFireInfo@@@std@@YA?AU_Nonscalar_ptr_iterator_tag@0@AAV?$_Vector_const_iterator@V?$_Vector_val@UWeaponFireInfo@@V?$allocator@UWeaponFireInfo@@@std@@@std@@@0@AAPAUWeaponFireInfo@@@Z ; std::_Ptr_cat<std::_Vector_const_iterator<std::_Vector_val<WeaponFireInfo,std::allocator<WeaponFireInfo> > >,WeaponFireInfo *>
; Function compile flags: /Ogsp
;	COMDAT ??$_Ptr_cat@V?$_Vector_const_iterator@V?$_Vector_val@UWeaponFireInfo@@V?$allocator@UWeaponFireInfo@@@std@@@std@@@std@@PAUWeaponFireInfo@@@std@@YA?AU_Nonscalar_ptr_iterator_tag@0@AAV?$_Vector_const_iterator@V?$_Vector_val@UWeaponFireInfo@@V?$allocator@UWeaponFireInfo@@@std@@@std@@@0@AAPAUWeaponFireInfo@@@Z
_TEXT	SEGMENT
__Cat$ = -1						; size = 1
___formal$ = 8						; size = 4
___formal$ = 12						; size = 4
??$_Ptr_cat@V?$_Vector_const_iterator@V?$_Vector_val@UWeaponFireInfo@@V?$allocator@UWeaponFireInfo@@@std@@@std@@@std@@PAUWeaponFireInfo@@@std@@YA?AU_Nonscalar_ptr_iterator_tag@0@AAV?$_Vector_const_iterator@V?$_Vector_val@UWeaponFireInfo@@V?$allocator@UWeaponFireInfo@@@std@@@std@@@0@AAPAUWeaponFireInfo@@@Z PROC ; std::_Ptr_cat<std::_Vector_const_iterator<std::_Vector_val<WeaponFireInfo,std::allocator<WeaponFireInfo> > >,WeaponFireInfo *>, COMDAT

; 485  : 	{	// return pointer category from arbitrary arguments

  00000	55		 push	 ebp
  00001	8b ec		 mov	 ebp, esp
  00003	51		 push	 ecx

; 486  : 	_Nonscalar_ptr_iterator_tag _Cat;
; 487  : 	return (_Cat);

  00004	8a 45 ff	 mov	 al, BYTE PTR __Cat$[ebp]

; 488  : 	}

  00007	c9		 leave
  00008	c3		 ret	 0
??$_Ptr_cat@V?$_Vector_const_iterator@V?$_Vector_val@UWeaponFireInfo@@V?$allocator@UWeaponFireInfo@@@std@@@std@@@std@@PAUWeaponFireInfo@@@std@@YA?AU_Nonscalar_ptr_iterator_tag@0@AAV?$_Vector_const_iterator@V?$_Vector_val@UWeaponFireInfo@@V?$allocator@UWeaponFireInfo@@@std@@@std@@@0@AAPAUWeaponFireInfo@@@Z ENDP ; std::_Ptr_cat<std::_Vector_const_iterator<std::_Vector_val<WeaponFireInfo,std::allocator<WeaponFireInfo> > >,WeaponFireInfo *>
_TEXT	ENDS
PUBLIC	??$_Val_type@PAUWeaponFireInfo@@@std@@YAPAUWeaponFireInfo@@PAU1@@Z ; std::_Val_type<WeaponFireInfo *>
; Function compile flags: /Ogsp
;	COMDAT ??$_Val_type@PAUWeaponFireInfo@@@std@@YAPAUWeaponFireInfo@@PAU1@@Z
_TEXT	SEGMENT
___formal$ = 8						; size = 4
??$_Val_type@PAUWeaponFireInfo@@@std@@YAPAUWeaponFireInfo@@PAU1@@Z PROC ; std::_Val_type<WeaponFireInfo *>, COMDAT

; 790  : 	return (0);

  00000	33 c0		 xor	 eax, eax

; 791  : 	}

  00002	c3		 ret	 0
??$_Val_type@PAUWeaponFireInfo@@@std@@YAPAUWeaponFireInfo@@PAU1@@Z ENDP ; std::_Val_type<WeaponFireInfo *>
_TEXT	ENDS
PUBLIC	??$move@AAUWeaponFireInfo@@@std@@YA$$QAUWeaponFireInfo@@AAU1@@Z ; std::move<WeaponFireInfo &>
; Function compile flags: /Ogsp
; File c:\program files (x86)\microsoft visual studio 10.0\vc\include\utility
;	COMDAT ??$move@AAUWeaponFireInfo@@@std@@YA$$QAUWeaponFireInfo@@AAU1@@Z
_TEXT	SEGMENT
__Arg$ = 8						; size = 4
??$move@AAUWeaponFireInfo@@@std@@YA$$QAUWeaponFireInfo@@AAU1@@Z PROC ; std::move<WeaponFireInfo &>, COMDAT

; 86   : 	{	// forward _Arg as movable

  00000	55		 push	 ebp
  00001	8b ec		 mov	 ebp, esp

; 87   : 	return ((typename tr1::_Remove_reference<_Ty>::_Type&&)_Arg);

  00003	8b 45 08	 mov	 eax, DWORD PTR __Arg$[ebp]

; 88   : 	}

  00006	5d		 pop	 ebp
  00007	c3		 ret	 0
??$move@AAUWeaponFireInfo@@@std@@YA$$QAUWeaponFireInfo@@AAU1@@Z ENDP ; std::move<WeaponFireInfo &>
_TEXT	ENDS
PUBLIC	??D?$_Vector_const_iterator@V?$_Vector_val@UWeaponFireInfo@@V?$allocator@UWeaponFireInfo@@@std@@@std@@@std@@QBEABUWeaponFireInfo@@XZ ; std::_Vector_const_iterator<std::_Vector_val<WeaponFireInfo,std::allocator<WeaponFireInfo> > >::operator*
; Function compile flags: /Ogsp
; File c:\program files (x86)\microsoft visual studio 10.0\vc\include\vector
;	COMDAT ??D?$_Vector_const_iterator@V?$_Vector_val@UWeaponFireInfo@@V?$allocator@UWeaponFireInfo@@@std@@@std@@@std@@QBEABUWeaponFireInfo@@XZ
_TEXT	SEGMENT
??D?$_Vector_const_iterator@V?$_Vector_val@UWeaponFireInfo@@V?$allocator@UWeaponFireInfo@@@std@@@std@@@std@@QBEABUWeaponFireInfo@@XZ PROC ; std::_Vector_const_iterator<std::_Vector_val<WeaponFireInfo,std::allocator<WeaponFireInfo> > >::operator*, COMDAT
; _this$ = ecx

; 64   :  #if _ITERATOR_DEBUG_LEVEL == 2
; 65   : 		if (this->_Getcont() == 0
; 66   : 			|| this->_Ptr == 0
; 67   : 			|| this->_Ptr < ((_Myvec *)this->_Getcont())->_Myfirst
; 68   : 			|| ((_Myvec *)this->_Getcont())->_Mylast <= this->_Ptr)
; 69   : 			{	// report error
; 70   : 			_DEBUG_ERROR("vector iterator not dereferencable");
; 71   : 			_SCL_SECURE_OUT_OF_RANGE;
; 72   : 			}
; 73   : 
; 74   :  #elif _ITERATOR_DEBUG_LEVEL == 1
; 75   : 		_SCL_SECURE_VALIDATE(this->_Getcont() != 0);
; 76   : 		_SCL_SECURE_VALIDATE_RANGE(
; 77   : 			this->_Ptr != 0
; 78   : 			&& ((_Myvec *)this->_Getcont())->_Myfirst <= this->_Ptr
; 79   : 			&& this->_Ptr < ((_Myvec *)this->_Getcont())->_Mylast);
; 80   :  #endif /* _ITERATOR_DEBUG_LEVEL */
; 81   : 
; 82   : 		__analysis_assume(this->_Ptr != 0);
; 83   : 
; 84   : 		return (*this->_Ptr);

  00000	8b 01		 mov	 eax, DWORD PTR [ecx]

; 85   : 		}

  00002	c3		 ret	 0
??D?$_Vector_const_iterator@V?$_Vector_val@UWeaponFireInfo@@V?$allocator@UWeaponFireInfo@@@std@@@std@@@std@@QBEABUWeaponFireInfo@@XZ ENDP ; std::_Vector_const_iterator<std::_Vector_val<WeaponFireInfo,std::allocator<WeaponFireInfo> > >::operator*
_TEXT	ENDS
PUBLIC	??E?$_Vector_const_iterator@V?$_Vector_val@UWeaponFireInfo@@V?$allocator@UWeaponFireInfo@@@std@@@std@@@std@@QAEAAV01@XZ ; std::_Vector_const_iterator<std::_Vector_val<WeaponFireInfo,std::allocator<WeaponFireInfo> > >::operator++
; Function compile flags: /Ogsp
;	COMDAT ??E?$_Vector_const_iterator@V?$_Vector_val@UWeaponFireInfo@@V?$allocator@UWeaponFireInfo@@@std@@@std@@@std@@QAEAAV01@XZ
_TEXT	SEGMENT
??E?$_Vector_const_iterator@V?$_Vector_val@UWeaponFireInfo@@V?$allocator@UWeaponFireInfo@@@std@@@std@@@std@@QAEAAV01@XZ PROC ; std::_Vector_const_iterator<std::_Vector_val<WeaponFireInfo,std::allocator<WeaponFireInfo> > >::operator++, COMDAT
; _this$ = ecx

; 93   : 		{	// preincrement

  00000	8b c1		 mov	 eax, ecx

; 94   :  #if _ITERATOR_DEBUG_LEVEL == 2
; 95   : 		if (this->_Getcont() == 0
; 96   : 			|| this->_Ptr == 0
; 97   : 			|| ((_Myvec *)this->_Getcont())->_Mylast <= this->_Ptr)
; 98   : 			{	// report error
; 99   : 			_DEBUG_ERROR("vector iterator not incrementable");
; 100  : 			_SCL_SECURE_OUT_OF_RANGE;
; 101  : 			}
; 102  : 
; 103  :  #elif _ITERATOR_DEBUG_LEVEL == 1
; 104  : 		_SCL_SECURE_VALIDATE(this->_Getcont() != 0);
; 105  : 		_SCL_SECURE_VALIDATE_RANGE(
; 106  : 			this->_Ptr != 0
; 107  : 			&& this->_Ptr < ((_Myvec *)this->_Getcont())->_Mylast);
; 108  :  #endif /* _ITERATOR_DEBUG_LEVEL */
; 109  : 
; 110  : 		++this->_Ptr;

  00002	83 00 30	 add	 DWORD PTR [eax], 48	; 00000030H

; 111  : 		return (*this);
; 112  : 		}

  00005	c3		 ret	 0
??E?$_Vector_const_iterator@V?$_Vector_val@UWeaponFireInfo@@V?$allocator@UWeaponFireInfo@@@std@@@std@@@std@@QAEAAV01@XZ ENDP ; std::_Vector_const_iterator<std::_Vector_val<WeaponFireInfo,std::allocator<WeaponFireInfo> > >::operator++
_TEXT	ENDS
PUBLIC	??$forward@UWeaponFireInfo@@@std@@YA$$QAUWeaponFireInfo@@AAU1@@Z ; std::forward<WeaponFireInfo>
; Function compile flags: /Ogsp
; File c:\program files (x86)\microsoft visual studio 10.0\vc\include\utility
;	COMDAT ??$forward@UWeaponFireInfo@@@std@@YA$$QAUWeaponFireInfo@@AAU1@@Z
_TEXT	SEGMENT
__Arg$ = 8						; size = 4
??$forward@UWeaponFireInfo@@@std@@YA$$QAUWeaponFireInfo@@AAU1@@Z PROC ; std::forward<WeaponFireInfo>, COMDAT

; 78   : 	{	// forward _Arg, given explicitly specified type parameter

  00000	55		 push	 ebp
  00001	8b ec		 mov	 ebp, esp

; 79   : 	return ((_Ty&&)_Arg);

  00003	8b 45 08	 mov	 eax, DWORD PTR __Arg$[ebp]

; 80   : 	}

  00006	5d		 pop	 ebp
  00007	c3		 ret	 0
??$forward@UWeaponFireInfo@@@std@@YA$$QAUWeaponFireInfo@@AAU1@@Z ENDP ; std::forward<WeaponFireInfo>
_TEXT	ENDS
PUBLIC	?_DECSTR@@YAXPADH@Z				; _DECSTR
; Function compile flags: /Ogsp
; File d:\lost saga for developer\youtube\tutorial\source\src\lsclient\stringprotect.h
;	COMDAT ?_DECSTR@@YAXPADH@Z
_TEXT	SEGMENT
_s$ = 8							; size = 4
_l$ = 12						; size = 4
?_DECSTR@@YAXPADH@Z PROC				; _DECSTR, COMDAT

; 40   : __forceinline void _DECSTR(char* s, int l){int i=0,l4=(l-1)/4,*p=(int*)s;s[l-1]=0;for(;i<l4;++i)*(p++)^=0xEAEBECED;for(i=l4*4;i<l-1;++i)s[i]^=0xED-i%4;}

  00000	55		 push	 ebp
  00001	8b ec		 mov	 ebp, esp
  00003	8b 4d 0c	 mov	 ecx, DWORD PTR _l$[ebp]
  00006	56		 push	 esi
  00007	8b 75 08	 mov	 esi, DWORD PTR _s$[ebp]
  0000a	57		 push	 edi
  0000b	8d 79 ff	 lea	 edi, DWORD PTR [ecx-1]
  0000e	8b c7		 mov	 eax, edi
  00010	99		 cdq
  00011	83 e2 03	 and	 edx, 3
  00014	03 c2		 add	 eax, edx
  00016	c1 f8 02	 sar	 eax, 2
  00019	8b d6		 mov	 edx, esi
  0001b	c6 44 0e ff 00	 mov	 BYTE PTR [esi+ecx-1], 0
  00020	85 c0		 test	 eax, eax
  00022	7e 0e		 jle	 SHORT $LN4@DECSTR
  00024	8b c8		 mov	 ecx, eax
$LL6@DECSTR:
  00026	81 32 ed ec eb
	ea		 xor	 DWORD PTR [edx], -353637139 ; eaebecedH
  0002c	83 c2 04	 add	 edx, 4
  0002f	49		 dec	 ecx
  00030	75 f4		 jne	 SHORT $LL6@DECSTR
$LN4@DECSTR:
  00032	c1 e0 02	 shl	 eax, 2
  00035	eb 17		 jmp	 SHORT $LN14@DECSTR
$LL3@DECSTR:
  00037	8b c8		 mov	 ecx, eax
  00039	81 e1 03 00 00
	80		 and	 ecx, -2147483645	; 80000003H
  0003f	79 05		 jns	 SHORT $LN13@DECSTR
  00041	49		 dec	 ecx
  00042	83 c9 fc	 or	 ecx, -4			; fffffffcH
  00045	41		 inc	 ecx
$LN13@DECSTR:
  00046	b2 ed		 mov	 dl, -19			; ffffffedH
  00048	2a d1		 sub	 dl, cl
  0004a	30 14 30	 xor	 BYTE PTR [eax+esi], dl
  0004d	40		 inc	 eax
$LN14@DECSTR:
  0004e	3b c7		 cmp	 eax, edi
  00050	7c e5		 jl	 SHORT $LL3@DECSTR
  00052	5f		 pop	 edi
  00053	5e		 pop	 esi
  00054	5d		 pop	 ebp
  00055	c3		 ret	 0
?_DECSTR@@YAXPADH@Z ENDP				; _DECSTR
_TEXT	ENDS
PUBLIC	?GetGroup@ioGameEntity@@QBEPAVioEntityGroup@@XZ	; ioGameEntity::GetGroup
; Function compile flags: /Ogsp
; File d:\lost saga for developer\youtube\tutorial\source\src\lsclient\iogameentity.h
;	COMDAT ?GetGroup@ioGameEntity@@QBEPAVioEntityGroup@@XZ
_TEXT	SEGMENT
?GetGroup@ioGameEntity@@QBEPAVioEntityGroup@@XZ PROC	; ioGameEntity::GetGroup, COMDAT
; _this$ = ecx

; 166  : 	inline ioEntityGroup* GetGroup() const { return m_pGroup; }

  00000	8b 41 04	 mov	 eax, DWORD PTR [ecx+4]
  00003	c3		 ret	 0
?GetGroup@ioGameEntity@@QBEPAVioEntityGroup@@XZ ENDP	; ioGameEntity::GetGroup
_TEXT	ENDS
PUBLIC	?Init@WeaponInfo@@QAEXXZ			; WeaponInfo::Init
; Function compile flags: /Ogsp
; File d:\lost saga for developer\youtube\tutorial\source\src\lsclient\ioattackattribute.h
;	COMDAT ?Init@WeaponInfo@@QAEXXZ
_TEXT	SEGMENT
?Init@WeaponInfo@@QAEXXZ PROC				; WeaponInfo::Init, COMDAT
; _this$ = ecx

; 71   : 		m_iWeaponIdx = 0;

  00000	33 c0		 xor	 eax, eax
  00002	89 01		 mov	 DWORD PTR [ecx], eax

; 72   : 		m_iResistanceIdx = 0;

  00004	89 41 04	 mov	 DWORD PTR [ecx+4], eax

; 73   : 
; 74   : 		m_dwWoundedDuration = 0;

  00007	89 41 18	 mov	 DWORD PTR [ecx+24], eax

; 75   : 		m_dwCallTime = 0;

  0000a	89 41 1c	 mov	 DWORD PTR [ecx+28], eax

; 76   : 
; 77   : 		m_bWoundedLoopAni = false;

  0000d	88 41 20	 mov	 BYTE PTR [ecx+32], al

; 78   : 
; 79   : 		m_dwDuration = 0;

  00010	89 41 24	 mov	 DWORD PTR [ecx+36], eax

; 80   : 	}

  00013	c3		 ret	 0
?Init@WeaponInfo@@QAEXXZ ENDP				; WeaponInfo::Init
_TEXT	ENDS
PUBLIC	??1WeaponInfo@@QAE@XZ				; WeaponInfo::~WeaponInfo
EXTRN	__imp_??1ioHashString@@QAE@XZ:PROC
; Function compile flags: /Ogsp
;	COMDAT ??1WeaponInfo@@QAE@XZ
_TEXT	SEGMENT
??1WeaponInfo@@QAE@XZ PROC				; WeaponInfo::~WeaponInfo, COMDAT
; _this$ = ecx
  00000	83 c1 08	 add	 ecx, 8
  00003	ff 25 00 00 00
	00		 jmp	 DWORD PTR __imp_??1ioHashString@@QAE@XZ
??1WeaponInfo@@QAE@XZ ENDP				; WeaponInfo::~WeaponInfo
_TEXT	ENDS
PUBLIC	?GetOwnerItem@ioSkill@@QBEPAVioItem@@XZ		; ioSkill::GetOwnerItem
; Function compile flags: /Ogsp
; File d:\lost saga for developer\youtube\tutorial\source\src\lsclient\ioskill.h
;	COMDAT ?GetOwnerItem@ioSkill@@QBEPAVioItem@@XZ
_TEXT	SEGMENT
?GetOwnerItem@ioSkill@@QBEPAVioItem@@XZ PROC		; ioSkill::GetOwnerItem, COMDAT
; _this$ = ecx

; 397  : 	inline ioItem *GetOwnerItem() const { return m_pOwnerItem; }

  00000	8b 81 a4 02 00
	00		 mov	 eax, DWORD PTR [ecx+676]
  00006	c3		 ret	 0
?GetOwnerItem@ioSkill@@QBEPAVioItem@@XZ ENDP		; ioSkill::GetOwnerItem
_TEXT	ENDS
PUBLIC	?GetName@ioSkill@@QBEABVioHashString@@XZ	; ioSkill::GetName
; Function compile flags: /Ogsp
;	COMDAT ?GetName@ioSkill@@QBEABVioHashString@@XZ
_TEXT	SEGMENT
?GetName@ioSkill@@QBEABVioHashString@@XZ PROC		; ioSkill::GetName, COMDAT
; _this$ = ecx

; 414  : 	inline const ioHashString& GetName() const { return m_Name; }

  00000	8d 41 24	 lea	 eax, DWORD PTR [ecx+36]
  00003	c3		 ret	 0
?GetName@ioSkill@@QBEABVioHashString@@XZ ENDP		; ioSkill::GetName
_TEXT	ENDS
PUBLIC	??_7?$CEncrypt@M@@6B@				; CEncrypt<float>::`vftable'
PUBLIC	??1?$CEncrypt@M@@UAE@XZ				; CEncrypt<float>::~CEncrypt<float>
PUBLIC	??_R4?$CEncrypt@M@@6B@				; CEncrypt<float>::`RTTI Complete Object Locator'
PUBLIC	??_R0?AV?$CEncrypt@M@@@8			; CEncrypt<float> `RTTI Type Descriptor'
PUBLIC	??_R3?$CEncrypt@M@@8				; CEncrypt<float>::`RTTI Class Hierarchy Descriptor'
PUBLIC	??_R2?$CEncrypt@M@@8				; CEncrypt<float>::`RTTI Base Class Array'
PUBLIC	??_R1A@?0A@EA@?$CEncrypt@M@@8			; CEncrypt<float>::`RTTI Base Class Descriptor at (0,-1,0,64)'
EXTRN	??1ccddaabb@@UAE@XZ:PROC			; ccddaabb::~ccddaabb
EXTRN	??_E?$CEncrypt@M@@UAEPAXI@Z:PROC		; CEncrypt<float>::`vector deleting destructor'
;	COMDAT ??_R1A@?0A@EA@?$CEncrypt@M@@8
; File d:\lost saga for developer\youtube\tutorial\source\src\lsclient\encryptvalue.h
rdata$r	SEGMENT
??_R1A@?0A@EA@?$CEncrypt@M@@8 DD FLAT:??_R0?AV?$CEncrypt@M@@@8 ; CEncrypt<float>::`RTTI Base Class Descriptor at (0,-1,0,64)'
	DD	00H
	DD	00H
	DD	0ffffffffH
	DD	00H
	DD	040H
	DD	FLAT:??_R3?$CEncrypt@M@@8
rdata$r	ENDS
;	COMDAT ??_R2?$CEncrypt@M@@8
rdata$r	SEGMENT
??_R2?$CEncrypt@M@@8 DD FLAT:??_R1A@?0A@EA@?$CEncrypt@M@@8 ; CEncrypt<float>::`RTTI Base Class Array'
rdata$r	ENDS
;	COMDAT ??_R3?$CEncrypt@M@@8
rdata$r	SEGMENT
??_R3?$CEncrypt@M@@8 DD 00H				; CEncrypt<float>::`RTTI Class Hierarchy Descriptor'
	DD	00H
	DD	01H
	DD	FLAT:??_R2?$CEncrypt@M@@8
rdata$r	ENDS
;	COMDAT ??_R0?AV?$CEncrypt@M@@@8
_DATA	SEGMENT
??_R0?AV?$CEncrypt@M@@@8 DD FLAT:??_7type_info@@6B@	; CEncrypt<float> `RTTI Type Descriptor'
	DD	00H
	DB	'.?AV?$CEncrypt@M@@', 00H
_DATA	ENDS
;	COMDAT ??_R4?$CEncrypt@M@@6B@
rdata$r	SEGMENT
??_R4?$CEncrypt@M@@6B@ DD 00H				; CEncrypt<float>::`RTTI Complete Object Locator'
	DD	00H
	DD	00H
	DD	FLAT:??_R0?AV?$CEncrypt@M@@@8
	DD	FLAT:??_R3?$CEncrypt@M@@8
rdata$r	ENDS
;	COMDAT ??_7?$CEncrypt@M@@6B@
CONST	SEGMENT
??_7?$CEncrypt@M@@6B@ DD FLAT:??_R4?$CEncrypt@M@@6B@	; CEncrypt<float>::`vftable'
	DD	FLAT:??_E?$CEncrypt@M@@UAEPAXI@Z
; Function compile flags: /Ogsp
CONST	ENDS
;	COMDAT ??1?$CEncrypt@M@@UAE@XZ
_TEXT	SEGMENT
??1?$CEncrypt@M@@UAE@XZ PROC				; CEncrypt<float>::~CEncrypt<float>, COMDAT
; _this$ = ecx

; 127  : 	{

  00000	c7 01 00 00 00
	00		 mov	 DWORD PTR [ecx], OFFSET ??_7?$CEncrypt@M@@6B@

; 128  : 	}

  00006	83 c1 0c	 add	 ecx, 12			; 0000000cH
  00009	e9 00 00 00 00	 jmp	 ??1ccddaabb@@UAE@XZ	; ccddaabb::~ccddaabb
??1?$CEncrypt@M@@UAE@XZ ENDP				; CEncrypt<float>::~CEncrypt<float>
_TEXT	ENDS
PUBLIC	??_7?$CEncrypt@K@@6B@				; CEncrypt<unsigned long>::`vftable'
PUBLIC	??1?$CEncrypt@K@@UAE@XZ				; CEncrypt<unsigned long>::~CEncrypt<unsigned long>
PUBLIC	??_R4?$CEncrypt@K@@6B@				; CEncrypt<unsigned long>::`RTTI Complete Object Locator'
PUBLIC	??_R0?AV?$CEncrypt@K@@@8			; CEncrypt<unsigned long> `RTTI Type Descriptor'
PUBLIC	??_R3?$CEncrypt@K@@8				; CEncrypt<unsigned long>::`RTTI Class Hierarchy Descriptor'
PUBLIC	??_R2?$CEncrypt@K@@8				; CEncrypt<unsigned long>::`RTTI Base Class Array'
PUBLIC	??_R1A@?0A@EA@?$CEncrypt@K@@8			; CEncrypt<unsigned long>::`RTTI Base Class Descriptor at (0,-1,0,64)'
EXTRN	??_E?$CEncrypt@K@@UAEPAXI@Z:PROC		; CEncrypt<unsigned long>::`vector deleting destructor'
;	COMDAT ??_R1A@?0A@EA@?$CEncrypt@K@@8
rdata$r	SEGMENT
??_R1A@?0A@EA@?$CEncrypt@K@@8 DD FLAT:??_R0?AV?$CEncrypt@K@@@8 ; CEncrypt<unsigned long>::`RTTI Base Class Descriptor at (0,-1,0,64)'
	DD	00H
	DD	00H
	DD	0ffffffffH
	DD	00H
	DD	040H
	DD	FLAT:??_R3?$CEncrypt@K@@8
rdata$r	ENDS
;	COMDAT ??_R2?$CEncrypt@K@@8
rdata$r	SEGMENT
??_R2?$CEncrypt@K@@8 DD FLAT:??_R1A@?0A@EA@?$CEncrypt@K@@8 ; CEncrypt<unsigned long>::`RTTI Base Class Array'
rdata$r	ENDS
;	COMDAT ??_R3?$CEncrypt@K@@8
rdata$r	SEGMENT
??_R3?$CEncrypt@K@@8 DD 00H				; CEncrypt<unsigned long>::`RTTI Class Hierarchy Descriptor'
	DD	00H
	DD	01H
	DD	FLAT:??_R2?$CEncrypt@K@@8
rdata$r	ENDS
;	COMDAT ??_R0?AV?$CEncrypt@K@@@8
_DATA	SEGMENT
??_R0?AV?$CEncrypt@K@@@8 DD FLAT:??_7type_info@@6B@	; CEncrypt<unsigned long> `RTTI Type Descriptor'
	DD	00H
	DB	'.?AV?$CEncrypt@K@@', 00H
_DATA	ENDS
;	COMDAT ??_R4?$CEncrypt@K@@6B@
rdata$r	SEGMENT
??_R4?$CEncrypt@K@@6B@ DD 00H				; CEncrypt<unsigned long>::`RTTI Complete Object Locator'
	DD	00H
	DD	00H
	DD	FLAT:??_R0?AV?$CEncrypt@K@@@8
	DD	FLAT:??_R3?$CEncrypt@K@@8
rdata$r	ENDS
;	COMDAT ??_7?$CEncrypt@K@@6B@
CONST	SEGMENT
??_7?$CEncrypt@K@@6B@ DD FLAT:??_R4?$CEncrypt@K@@6B@	; CEncrypt<unsigned long>::`vftable'
	DD	FLAT:??_E?$CEncrypt@K@@UAEPAXI@Z
; Function compile flags: /Ogsp
CONST	ENDS
;	COMDAT ??1?$CEncrypt@K@@UAE@XZ
_TEXT	SEGMENT
??1?$CEncrypt@K@@UAE@XZ PROC				; CEncrypt<unsigned long>::~CEncrypt<unsigned long>, COMDAT
; _this$ = ecx

; 127  : 	{

  00000	c7 01 00 00 00
	00		 mov	 DWORD PTR [ecx], OFFSET ??_7?$CEncrypt@K@@6B@

; 128  : 	}

  00006	83 c1 0c	 add	 ecx, 12			; 0000000cH
  00009	e9 00 00 00 00	 jmp	 ??1ccddaabb@@UAE@XZ	; ccddaabb::~ccddaabb
??1?$CEncrypt@K@@UAE@XZ ENDP				; CEncrypt<unsigned long>::~CEncrypt<unsigned long>
; Function compile flags: /Ogsp
_TEXT	ENDS
;	COMDAT ??_G?$CEncrypt@M@@UAEPAXI@Z
_TEXT	SEGMENT
___flags$ = 8						; size = 4
??_G?$CEncrypt@M@@UAEPAXI@Z PROC			; CEncrypt<float>::`scalar deleting destructor', COMDAT
; _this$ = ecx
  00000	55		 push	 ebp
  00001	8b ec		 mov	 ebp, esp
  00003	56		 push	 esi
  00004	8b f1		 mov	 esi, ecx
  00006	8d 4e 0c	 lea	 ecx, DWORD PTR [esi+12]
  00009	c7 06 00 00 00
	00		 mov	 DWORD PTR [esi], OFFSET ??_7?$CEncrypt@M@@6B@
  0000f	e8 00 00 00 00	 call	 ??1ccddaabb@@UAE@XZ	; ccddaabb::~ccddaabb
  00014	f6 45 08 01	 test	 BYTE PTR ___flags$[ebp], 1
  00018	74 07		 je	 SHORT $LN1@scalar@2
  0001a	56		 push	 esi
  0001b	e8 00 00 00 00	 call	 ??3@YAXPAX@Z		; operator delete
  00020	59		 pop	 ecx
$LN1@scalar@2:
  00021	8b c6		 mov	 eax, esi
  00023	5e		 pop	 esi
  00024	5d		 pop	 ebp
  00025	c2 04 00	 ret	 4
??_G?$CEncrypt@M@@UAEPAXI@Z ENDP			; CEncrypt<float>::`scalar deleting destructor'
; Function compile flags: /Ogsp
_TEXT	ENDS
;	COMDAT ??_G?$CEncrypt@K@@UAEPAXI@Z
_TEXT	SEGMENT
___flags$ = 8						; size = 4
??_G?$CEncrypt@K@@UAEPAXI@Z PROC			; CEncrypt<unsigned long>::`scalar deleting destructor', COMDAT
; _this$ = ecx
  00000	55		 push	 ebp
  00001	8b ec		 mov	 ebp, esp
  00003	56		 push	 esi
  00004	8b f1		 mov	 esi, ecx
  00006	8d 4e 0c	 lea	 ecx, DWORD PTR [esi+12]
  00009	c7 06 00 00 00
	00		 mov	 DWORD PTR [esi], OFFSET ??_7?$CEncrypt@K@@6B@
  0000f	e8 00 00 00 00	 call	 ??1ccddaabb@@UAE@XZ	; ccddaabb::~ccddaabb
  00014	f6 45 08 01	 test	 BYTE PTR ___flags$[ebp], 1
  00018	74 07		 je	 SHORT $LN1@scalar@3
  0001a	56		 push	 esi
  0001b	e8 00 00 00 00	 call	 ??3@YAXPAX@Z		; operator delete
  00020	59		 pop	 ecx
$LN1@scalar@3:
  00021	8b c6		 mov	 eax, esi
  00023	5e		 pop	 esi
  00024	5d		 pop	 ebp
  00025	c2 04 00	 ret	 4
??_G?$CEncrypt@K@@UAEPAXI@Z ENDP			; CEncrypt<unsigned long>::`scalar deleting destructor'
_TEXT	ENDS
PUBLIC	?EncryptValueToPool@?$CEncrypt@M@@AAEXPBD@Z	; CEncrypt<float>::EncryptValueToPool
EXTRN	?EncryptByte@ccddaabb@@QAEXPBDPADH@Z:PROC	; ccddaabb::EncryptByte
; Function compile flags: /Ogsp
;	COMDAT ?EncryptValueToPool@?$CEncrypt@M@@AAEXPBD@Z
_TEXT	SEGMENT
_value$ = 8						; size = 4
?EncryptValueToPool@?$CEncrypt@M@@AAEXPBD@Z PROC	; CEncrypt<float>::EncryptValueToPool, COMDAT
; _this$ = ecx

; 67   : 	{

  00000	55		 push	 ebp
  00001	8b ec		 mov	 ebp, esp

; 68   : 		m_RC5.EncryptByte( value, m_MemPool, max(m_ValueSize, DEFAULT_ENCRYPT) );

  00003	0f b7 41 06	 movzx	 eax, WORD PTR [ecx+6]
  00007	83 f8 04	 cmp	 eax, 4
  0000a	77 03		 ja	 SHORT $LN4@EncryptVal
  0000c	6a 04		 push	 4
  0000e	58		 pop	 eax
$LN4@EncryptVal:
  0000f	50		 push	 eax
  00010	8d 41 1c	 lea	 eax, DWORD PTR [ecx+28]
  00013	50		 push	 eax
  00014	ff 75 08	 push	 DWORD PTR _value$[ebp]
  00017	83 c1 0c	 add	 ecx, 12			; 0000000cH
  0001a	e8 00 00 00 00	 call	 ?EncryptByte@ccddaabb@@QAEXPBDPADH@Z ; ccddaabb::EncryptByte

; 69   : 		
; 70   : 	}

  0001f	5d		 pop	 ebp
  00020	c2 04 00	 ret	 4
?EncryptValueToPool@?$CEncrypt@M@@AAEXPBD@Z ENDP	; CEncrypt<float>::EncryptValueToPool
_TEXT	ENDS
PUBLIC	?Init@?$CEncrypt@M@@AAEXXZ			; CEncrypt<float>::Init
EXTRN	?Setup@ccddaabb@@QAEXPBDHH@Z:PROC		; ccddaabb::Setup
EXTRN	__imp__rand:PROC
EXTRN	__imp__timeGetTime@0:PROC
EXTRN	__imp__GetCurrentProcessId@0:PROC
; Function compile flags: /Ogsp
;	COMDAT ?Init@?$CEncrypt@M@@AAEXXZ
_TEXT	SEGMENT
_pid$ = -8						; size = 4
_tick$ = -4						; size = 4
?Init@?$CEncrypt@M@@AAEXXZ PROC				; CEncrypt<float>::Init, COMDAT
; _this$ = ecx

; 73   : 	{

  00000	55		 push	 ebp
  00001	8b ec		 mov	 ebp, esp
  00003	51		 push	 ecx
  00004	51		 push	 ecx
  00005	53		 push	 ebx
  00006	56		 push	 esi
  00007	57		 push	 edi
  00008	8b f1		 mov	 esi, ecx

; 74   : 		DWORD pid = GetCurrentProcessId();

  0000a	ff 15 00 00 00
	00		 call	 DWORD PTR __imp__GetCurrentProcessId@0
  00010	89 45 f8	 mov	 DWORD PTR _pid$[ebp], eax

; 75   : 		DWORD tick = timeGetTime();

  00013	ff 15 00 00 00
	00		 call	 DWORD PTR __imp__timeGetTime@0

; 76   : 		m_ValueSize    = sizeof(type);
; 77   : 		m_MemPoolPos   = (unsigned short)( rand()+pid+tick )%(MAX_MEM_POOL-m_ValueSize);

  00019	8b 3d 00 00 00
	00		 mov	 edi, DWORD PTR __imp__rand
  0001f	89 45 fc	 mov	 DWORD PTR _tick$[ebp], eax
  00022	6a 04		 push	 4
  00024	58		 pop	 eax
  00025	66 89 46 06	 mov	 WORD PTR [esi+6], ax
  00029	ff d7		 call	 edi
  0002b	03 45 f8	 add	 eax, DWORD PTR _pid$[ebp]
  0002e	0f b7 4e 06	 movzx	 ecx, WORD PTR [esi+6]
  00032	03 45 fc	 add	 eax, DWORD PTR _tick$[ebp]
  00035	6a 0c		 push	 12			; 0000000cH
  00037	0f b7 c0	 movzx	 eax, ax
  0003a	5b		 pop	 ebx
  0003b	99		 cdq
  0003c	2b d9		 sub	 ebx, ecx
  0003e	f7 fb		 idiv	 ebx
  00040	66 89 56 04	 mov	 WORD PTR [esi+4], dx

; 78   : 		m_EncryptSeed  = (char)( rand()+pid+tick )%256;

  00044	ff d7		 call	 edi
  00046	02 45 f8	 add	 al, BYTE PTR _pid$[ebp]
  00049	02 45 fc	 add	 al, BYTE PTR _tick$[ebp]
  0004c	0f be c0	 movsx	 eax, al
  0004f	25 ff 00 00 80	 and	 eax, -2147483393	; 800000ffH
  00054	79 07		 jns	 SHORT $LN8@Init
  00056	48		 dec	 eax
  00057	0d 00 ff ff ff	 or	 eax, -256		; ffffff00H
  0005c	40		 inc	 eax
$LN8@Init:
  0005d	88 46 08	 mov	 BYTE PTR [esi+8], al

; 79   : 
; 80   : 		for (int i = 0; i < MAX_MEM_POOL ; i++)

  00060	33 db		 xor	 ebx, ebx
$LL3@Init:

; 81   : 			m_MemPool[i] = (char)( rand()+pid+tick )%256; // 

  00062	ff d7		 call	 edi
  00064	02 45 f8	 add	 al, BYTE PTR _pid$[ebp]
  00067	02 45 fc	 add	 al, BYTE PTR _tick$[ebp]
  0006a	0f be c0	 movsx	 eax, al
  0006d	25 ff 00 00 80	 and	 eax, -2147483393	; 800000ffH
  00072	79 07		 jns	 SHORT $LN9@Init
  00074	48		 dec	 eax
  00075	0d 00 ff ff ff	 or	 eax, -256		; ffffff00H
  0007a	40		 inc	 eax
$LN9@Init:
  0007b	88 44 1e 1c	 mov	 BYTE PTR [esi+ebx+28], al
  0007f	43		 inc	 ebx
  00080	83 fb 0c	 cmp	 ebx, 12			; 0000000cH
  00083	7c dd		 jl	 SHORT $LL3@Init

; 82   : 
; 83   : 		//UJ 130913, : szKey  
; 84   : 		//char szKey[ccddaabb::KEY_SIZE];//="";
; 85   : 		//for (int i = 0; i < ccddaabb::KEY_SIZE  ; i++)
; 86   : 		//	szKey[i] = (char)( rand()+pid+tick )%256; // 
; 87   : 		m_RC5.Setup( NULL, pid, tick );

  00085	ff 75 fc	 push	 DWORD PTR _tick$[ebp]
  00088	8d 4e 0c	 lea	 ecx, DWORD PTR [esi+12]
  0008b	ff 75 f8	 push	 DWORD PTR _pid$[ebp]
  0008e	6a 00		 push	 0
  00090	e8 00 00 00 00	 call	 ?Setup@ccddaabb@@QAEXPBDHH@Z ; ccddaabb::Setup
  00095	5f		 pop	 edi
  00096	5e		 pop	 esi
  00097	5b		 pop	 ebx

; 88   : 
; 89   : #ifdef _NOTUSE
; 90   : 		m_value        = 0;
; 91   : 		EncryptValueToPool((char*)&m_value);
; 92   : 		Debug();
; 93   : #endif
; 94   : 	}

  00098	c9		 leave
  00099	c3		 ret	 0
?Init@?$CEncrypt@M@@AAEXXZ ENDP				; CEncrypt<float>::Init
_TEXT	ENDS
PUBLIC	?DecryptValueToPool@?$CEncrypt@M@@QAEXPAM@Z	; CEncrypt<float>::DecryptValueToPool
EXTRN	?DecryptByte@ccddaabb@@QBEXPBDPADH@Z:PROC	; ccddaabb::DecryptByte
; Function compile flags: /Ogsp
;	COMDAT ?DecryptValueToPool@?$CEncrypt@M@@QAEXPAM@Z
_TEXT	SEGMENT
_value$ = 8						; size = 4
?DecryptValueToPool@?$CEncrypt@M@@QAEXPAM@Z PROC	; CEncrypt<float>::DecryptValueToPool, COMDAT
; _this$ = ecx

; 1648 : 	{

  00000	55		 push	 ebp
  00001	8b ec		 mov	 ebp, esp
  00003	56		 push	 esi

; 1649 : 		m_RC5.DecryptByte( m_MemPool, m_TempMem, 4 );

  00004	8d 71 28	 lea	 esi, DWORD PTR [ecx+40]
  00007	6a 04		 push	 4
  00009	8d 41 1c	 lea	 eax, DWORD PTR [ecx+28]
  0000c	56		 push	 esi
  0000d	50		 push	 eax
  0000e	83 c1 0c	 add	 ecx, 12			; 0000000cH
  00011	e8 00 00 00 00	 call	 ?DecryptByte@ccddaabb@@QBEXPBDPADH@Z ; ccddaabb::DecryptByte

; 1650 : 		*value = *((float*)m_TempMem);

  00016	d9 06		 fld	 DWORD PTR [esi]
  00018	8b 45 08	 mov	 eax, DWORD PTR _value$[ebp]
  0001b	d9 18		 fstp	 DWORD PTR [eax]
  0001d	5e		 pop	 esi

; 1651 : 	}

  0001e	5d		 pop	 ebp
  0001f	c2 04 00	 ret	 4
?DecryptValueToPool@?$CEncrypt@M@@QAEXPAM@Z ENDP	; CEncrypt<float>::DecryptValueToPool
_TEXT	ENDS
PUBLIC	?EncryptValueToPool@?$CEncrypt@K@@AAEXPBD@Z	; CEncrypt<unsigned long>::EncryptValueToPool
; Function compile flags: /Ogsp
;	COMDAT ?EncryptValueToPool@?$CEncrypt@K@@AAEXPBD@Z
_TEXT	SEGMENT
_value$ = 8						; size = 4
?EncryptValueToPool@?$CEncrypt@K@@AAEXPBD@Z PROC	; CEncrypt<unsigned long>::EncryptValueToPool, COMDAT
; _this$ = ecx

; 67   : 	{

  00000	55		 push	 ebp
  00001	8b ec		 mov	 ebp, esp

; 68   : 		m_RC5.EncryptByte( value, m_MemPool, max(m_ValueSize, DEFAULT_ENCRYPT) );

  00003	0f b7 41 06	 movzx	 eax, WORD PTR [ecx+6]
  00007	83 f8 04	 cmp	 eax, 4
  0000a	77 03		 ja	 SHORT $LN4@EncryptVal@2
  0000c	6a 04		 push	 4
  0000e	58		 pop	 eax
$LN4@EncryptVal@2:
  0000f	50		 push	 eax
  00010	8d 41 1c	 lea	 eax, DWORD PTR [ecx+28]
  00013	50		 push	 eax
  00014	ff 75 08	 push	 DWORD PTR _value$[ebp]
  00017	83 c1 0c	 add	 ecx, 12			; 0000000cH
  0001a	e8 00 00 00 00	 call	 ?EncryptByte@ccddaabb@@QAEXPBDPADH@Z ; ccddaabb::EncryptByte

; 69   : 		
; 70   : 	}

  0001f	5d		 pop	 ebp
  00020	c2 04 00	 ret	 4
?EncryptValueToPool@?$CEncrypt@K@@AAEXPBD@Z ENDP	; CEncrypt<unsigned long>::EncryptValueToPool
_TEXT	ENDS
PUBLIC	?Init@?$CEncrypt@K@@AAEXXZ			; CEncrypt<unsigned long>::Init
; Function compile flags: /Ogsp
;	COMDAT ?Init@?$CEncrypt@K@@AAEXXZ
_TEXT	SEGMENT
_pid$ = -8						; size = 4
_tick$ = -4						; size = 4
?Init@?$CEncrypt@K@@AAEXXZ PROC				; CEncrypt<unsigned long>::Init, COMDAT
; _this$ = ecx

; 73   : 	{

  00000	55		 push	 ebp
  00001	8b ec		 mov	 ebp, esp
  00003	51		 push	 ecx
  00004	51		 push	 ecx
  00005	53		 push	 ebx
  00006	56		 push	 esi
  00007	57		 push	 edi
  00008	8b f1		 mov	 esi, ecx

; 74   : 		DWORD pid = GetCurrentProcessId();

  0000a	ff 15 00 00 00
	00		 call	 DWORD PTR __imp__GetCurrentProcessId@0
  00010	89 45 f8	 mov	 DWORD PTR _pid$[ebp], eax

; 75   : 		DWORD tick = timeGetTime();

  00013	ff 15 00 00 00
	00		 call	 DWORD PTR __imp__timeGetTime@0

; 76   : 		m_ValueSize    = sizeof(type);
; 77   : 		m_MemPoolPos   = (unsigned short)( rand()+pid+tick )%(MAX_MEM_POOL-m_ValueSize);

  00019	8b 3d 00 00 00
	00		 mov	 edi, DWORD PTR __imp__rand
  0001f	89 45 fc	 mov	 DWORD PTR _tick$[ebp], eax
  00022	6a 04		 push	 4
  00024	58		 pop	 eax
  00025	66 89 46 06	 mov	 WORD PTR [esi+6], ax
  00029	ff d7		 call	 edi
  0002b	03 45 f8	 add	 eax, DWORD PTR _pid$[ebp]
  0002e	0f b7 4e 06	 movzx	 ecx, WORD PTR [esi+6]
  00032	03 45 fc	 add	 eax, DWORD PTR _tick$[ebp]
  00035	6a 0c		 push	 12			; 0000000cH
  00037	0f b7 c0	 movzx	 eax, ax
  0003a	5b		 pop	 ebx
  0003b	99		 cdq
  0003c	2b d9		 sub	 ebx, ecx
  0003e	f7 fb		 idiv	 ebx
  00040	66 89 56 04	 mov	 WORD PTR [esi+4], dx

; 78   : 		m_EncryptSeed  = (char)( rand()+pid+tick )%256;

  00044	ff d7		 call	 edi
  00046	02 45 f8	 add	 al, BYTE PTR _pid$[ebp]
  00049	02 45 fc	 add	 al, BYTE PTR _tick$[ebp]
  0004c	0f be c0	 movsx	 eax, al
  0004f	25 ff 00 00 80	 and	 eax, -2147483393	; 800000ffH
  00054	79 07		 jns	 SHORT $LN8@Init@2
  00056	48		 dec	 eax
  00057	0d 00 ff ff ff	 or	 eax, -256		; ffffff00H
  0005c	40		 inc	 eax
$LN8@Init@2:
  0005d	88 46 08	 mov	 BYTE PTR [esi+8], al

; 79   : 
; 80   : 		for (int i = 0; i < MAX_MEM_POOL ; i++)

  00060	33 db		 xor	 ebx, ebx
$LL3@Init@2:

; 81   : 			m_MemPool[i] = (char)( rand()+pid+tick )%256; // 

  00062	ff d7		 call	 edi
  00064	02 45 f8	 add	 al, BYTE PTR _pid$[ebp]
  00067	02 45 fc	 add	 al, BYTE PTR _tick$[ebp]
  0006a	0f be c0	 movsx	 eax, al
  0006d	25 ff 00 00 80	 and	 eax, -2147483393	; 800000ffH
  00072	79 07		 jns	 SHORT $LN9@Init@2
  00074	48		 dec	 eax
  00075	0d 00 ff ff ff	 or	 eax, -256		; ffffff00H
  0007a	40		 inc	 eax
$LN9@Init@2:
  0007b	88 44 1e 1c	 mov	 BYTE PTR [esi+ebx+28], al
  0007f	43		 inc	 ebx
  00080	83 fb 0c	 cmp	 ebx, 12			; 0000000cH
  00083	7c dd		 jl	 SHORT $LL3@Init@2

; 82   : 
; 83   : 		//UJ 130913, : szKey  
; 84   : 		//char szKey[ccddaabb::KEY_SIZE];//="";
; 85   : 		//for (int i = 0; i < ccddaabb::KEY_SIZE  ; i++)
; 86   : 		//	szKey[i] = (char)( rand()+pid+tick )%256; // 
; 87   : 		m_RC5.Setup( NULL, pid, tick );

  00085	ff 75 fc	 push	 DWORD PTR _tick$[ebp]
  00088	8d 4e 0c	 lea	 ecx, DWORD PTR [esi+12]
  0008b	ff 75 f8	 push	 DWORD PTR _pid$[ebp]
  0008e	6a 00		 push	 0
  00090	e8 00 00 00 00	 call	 ?Setup@ccddaabb@@QAEXPBDHH@Z ; ccddaabb::Setup
  00095	5f		 pop	 edi
  00096	5e		 pop	 esi
  00097	5b		 pop	 ebx

; 88   : 
; 89   : #ifdef _NOTUSE
; 90   : 		m_value        = 0;
; 91   : 		EncryptValueToPool((char*)&m_value);
; 92   : 		Debug();
; 93   : #endif
; 94   : 	}

  00098	c9		 leave
  00099	c3		 ret	 0
?Init@?$CEncrypt@K@@AAEXXZ ENDP				; CEncrypt<unsigned long>::Init
_TEXT	ENDS
PUBLIC	?DecryptValueToPool@?$CEncrypt@K@@QAEXPAK@Z	; CEncrypt<unsigned long>::DecryptValueToPool
; Function compile flags: /Ogsp
;	COMDAT ?DecryptValueToPool@?$CEncrypt@K@@QAEXPAK@Z
_TEXT	SEGMENT
_value$ = 8						; size = 4
?DecryptValueToPool@?$CEncrypt@K@@QAEXPAK@Z PROC	; CEncrypt<unsigned long>::DecryptValueToPool, COMDAT
; _this$ = ecx

; 1256 : 	{

  00000	55		 push	 ebp
  00001	8b ec		 mov	 ebp, esp
  00003	56		 push	 esi

; 1257 : 		m_RC5.DecryptByte( m_MemPool, m_TempMem, 4 );

  00004	8d 71 28	 lea	 esi, DWORD PTR [ecx+40]
  00007	6a 04		 push	 4
  00009	8d 41 1c	 lea	 eax, DWORD PTR [ecx+28]
  0000c	56		 push	 esi
  0000d	50		 push	 eax
  0000e	83 c1 0c	 add	 ecx, 12			; 0000000cH
  00011	e8 00 00 00 00	 call	 ?DecryptByte@ccddaabb@@QBEXPBDPADH@Z ; ccddaabb::DecryptByte

; 1258 : 		*value = *((DWORD*)m_TempMem);

  00016	8b 06		 mov	 eax, DWORD PTR [esi]
  00018	8b 4d 08	 mov	 ecx, DWORD PTR _value$[ebp]
  0001b	89 01		 mov	 DWORD PTR [ecx], eax
  0001d	5e		 pop	 esi

; 1259 : 	}

  0001e	5d		 pop	 ebp
  0001f	c2 04 00	 ret	 4
?DecryptValueToPool@?$CEncrypt@K@@QAEXPAK@Z ENDP	; CEncrypt<unsigned long>::DecryptValueToPool
_TEXT	ENDS
PUBLIC	?DecryptValueToPool@?$CEncrypt@_N@@QAEXPA_N@Z	; CEncrypt<bool>::DecryptValueToPool
; Function compile flags: /Ogsp
;	COMDAT ?DecryptValueToPool@?$CEncrypt@_N@@QAEXPA_N@Z
_TEXT	SEGMENT
_value$ = 8						; size = 4
?DecryptValueToPool@?$CEncrypt@_N@@QAEXPA_N@Z PROC	; CEncrypt<bool>::DecryptValueToPool, COMDAT
; _this$ = ecx

; 219  : 	{

  00000	55		 push	 ebp
  00001	8b ec		 mov	 ebp, esp
  00003	56		 push	 esi

; 220  : 		m_RC5.DecryptByte( m_MemPool, m_TempMem, 4 );

  00004	8d 71 28	 lea	 esi, DWORD PTR [ecx+40]
  00007	6a 04		 push	 4
  00009	8d 41 1c	 lea	 eax, DWORD PTR [ecx+28]
  0000c	56		 push	 esi
  0000d	50		 push	 eax
  0000e	83 c1 0c	 add	 ecx, 12			; 0000000cH
  00011	e8 00 00 00 00	 call	 ?DecryptByte@ccddaabb@@QBEXPBDPADH@Z ; ccddaabb::DecryptByte

; 221  : 		*value = *((bool*)m_TempMem);

  00016	8a 06		 mov	 al, BYTE PTR [esi]
  00018	8b 4d 08	 mov	 ecx, DWORD PTR _value$[ebp]
  0001b	88 01		 mov	 BYTE PTR [ecx], al
  0001d	5e		 pop	 esi

; 222  : 	}

  0001e	5d		 pop	 ebp
  0001f	c2 04 00	 ret	 4
?DecryptValueToPool@?$CEncrypt@_N@@QAEXPA_N@Z ENDP	; CEncrypt<bool>::DecryptValueToPool
_TEXT	ENDS
PUBLIC	??1?$_Vector_val@KV?$allocator@K@std@@@std@@QAE@XZ ; std::_Vector_val<unsigned long,std::allocator<unsigned long> >::~_Vector_val<unsigned long,std::allocator<unsigned long> >
; Function compile flags: /Ogsp
; File c:\program files (x86)\microsoft visual studio 10.0\vc\include\vector
;	COMDAT ??1?$_Vector_val@KV?$allocator@K@std@@@std@@QAE@XZ
_TEXT	SEGMENT
??1?$_Vector_val@KV?$allocator@K@std@@@std@@QAE@XZ PROC	; std::_Vector_val<unsigned long,std::allocator<unsigned long> >::~_Vector_val<unsigned long,std::allocator<unsigned long> >, COMDAT
; _this$ = ecx

; 434  : 		}

  00000	c3		 ret	 0
??1?$_Vector_val@KV?$allocator@K@std@@@std@@QAE@XZ ENDP	; std::_Vector_val<unsigned long,std::allocator<unsigned long> >::~_Vector_val<unsigned long,std::allocator<unsigned long> >
_TEXT	ENDS
PUBLIC	??0?$allocator@K@std@@QAE@XZ			; std::allocator<unsigned long>::allocator<unsigned long>
; Function compile flags: /Ogsp
; File c:\program files (x86)\microsoft visual studio 10.0\vc\include\xmemory
;	COMDAT ??0?$allocator@K@std@@QAE@XZ
_TEXT	SEGMENT
??0?$allocator@K@std@@QAE@XZ PROC			; std::allocator<unsigned long>::allocator<unsigned long>, COMDAT
; _this$ = ecx

; 161  : 	_ALLOCATOR() _THROW0()

  00000	8b c1		 mov	 eax, ecx

; 162  : 		{	// construct default allocator (do nothing)
; 163  : 		}

  00002	c3		 ret	 0
??0?$allocator@K@std@@QAE@XZ ENDP			; std::allocator<unsigned long>::allocator<unsigned long>
_TEXT	ENDS
PUBLIC	??0?$allocator@K@std@@QAE@ABV01@@Z		; std::allocator<unsigned long>::allocator<unsigned long>
; Function compile flags: /Ogsp
;	COMDAT ??0?$allocator@K@std@@QAE@ABV01@@Z
_TEXT	SEGMENT
___formal$ = 8						; size = 4
??0?$allocator@K@std@@QAE@ABV01@@Z PROC			; std::allocator<unsigned long>::allocator<unsigned long>, COMDAT
; _this$ = ecx

; 165  : 	_ALLOCATOR(const _ALLOCATOR<_Ty>&) _THROW0()

  00000	8b c1		 mov	 eax, ecx

; 166  : 		{	// construct by copying (do nothing)
; 167  : 		}

  00002	c2 04 00	 ret	 4
??0?$allocator@K@std@@QAE@ABV01@@Z ENDP			; std::allocator<unsigned long>::allocator<unsigned long>
_TEXT	ENDS
PUBLIC	?deallocate@?$allocator@K@std@@QAEXPAKI@Z	; std::allocator<unsigned long>::deallocate
; Function compile flags: /Ogsp
;	COMDAT ?deallocate@?$allocator@K@std@@QAEXPAKI@Z
_TEXT	SEGMENT
__Ptr$ = 8						; size = 4
___formal$ = 12						; size = 4
?deallocate@?$allocator@K@std@@QAEXPAKI@Z PROC		; std::allocator<unsigned long>::deallocate, COMDAT
; _this$ = ecx

; 181  : 		{	// deallocate object at _Ptr, ignore size

  00000	55		 push	 ebp
  00001	8b ec		 mov	 ebp, esp

; 182  : 		::operator delete(_Ptr);

  00003	ff 75 08	 push	 DWORD PTR __Ptr$[ebp]
  00006	e8 00 00 00 00	 call	 ??3@YAXPAX@Z		; operator delete
  0000b	59		 pop	 ecx

; 183  : 		}

  0000c	5d		 pop	 ebp
  0000d	c2 08 00	 ret	 8
?deallocate@?$allocator@K@std@@QAEXPAKI@Z ENDP		; std::allocator<unsigned long>::deallocate
_TEXT	ENDS
EXTRN	__imp_??0exception@std@@QAE@ABV01@@Z:PROC
; Function compile flags: /Ogsp
;	COMDAT ??0bad_alloc@std@@QAE@ABV01@@Z
_TEXT	SEGMENT
___that$ = 8						; size = 4
??0bad_alloc@std@@QAE@ABV01@@Z PROC			; std::bad_alloc::bad_alloc, COMDAT
; _this$ = ecx
  00000	55		 push	 ebp
  00001	8b ec		 mov	 ebp, esp
  00003	56		 push	 esi
  00004	ff 75 08	 push	 DWORD PTR ___that$[ebp]
  00007	8b f1		 mov	 esi, ecx
  00009	ff 15 00 00 00
	00		 call	 DWORD PTR __imp_??0exception@std@@QAE@ABV01@@Z
  0000f	c7 06 00 00 00
	00		 mov	 DWORD PTR [esi], OFFSET ??_7bad_alloc@std@@6B@
  00015	8b c6		 mov	 eax, esi
  00017	5e		 pop	 esi
  00018	5d		 pop	 ebp
  00019	c2 04 00	 ret	 4
??0bad_alloc@std@@QAE@ABV01@@Z ENDP			; std::bad_alloc::bad_alloc
_TEXT	ENDS
PUBLIC	??$_Ptr_cat@KK@std@@YA?AU_Scalar_ptr_iterator_tag@0@PAK0@Z ; std::_Ptr_cat<unsigned long,unsigned long>
; Function compile flags: /Ogsp
; File c:\program files (x86)\microsoft visual studio 10.0\vc\include\xutility
;	COMDAT ??$_Ptr_cat@KK@std@@YA?AU_Scalar_ptr_iterator_tag@0@PAK0@Z
_TEXT	SEGMENT
__Cat$ = -1						; size = 1
___formal$ = 8						; size = 4
___formal$ = 12						; size = 4
??$_Ptr_cat@KK@std@@YA?AU_Scalar_ptr_iterator_tag@0@PAK0@Z PROC ; std::_Ptr_cat<unsigned long,unsigned long>, COMDAT

; 516  : 	{	// return pointer category from pointers

  00000	55		 push	 ebp
  00001	8b ec		 mov	 ebp, esp
  00003	51		 push	 ecx

; 517  : 	typename _Ptr_cat_helper<_Elem1, _Elem2>::_Type _Cat;
; 518  : 	return (_Cat);

  00004	8a 45 ff	 mov	 al, BYTE PTR __Cat$[ebp]

; 519  : 	}

  00007	c9		 leave
  00008	c3		 ret	 0
??$_Ptr_cat@KK@std@@YA?AU_Scalar_ptr_iterator_tag@0@PAK0@Z ENDP ; std::_Ptr_cat<unsigned long,unsigned long>
_TEXT	ENDS
PUBLIC	??$_Destroy_range@V?$allocator@K@std@@@std@@YAXPAK0AAV?$allocator@K@0@U_Scalar_ptr_iterator_tag@0@@Z ; std::_Destroy_range<std::allocator<unsigned long> >
; Function compile flags: /Ogsp
; File c:\program files (x86)\microsoft visual studio 10.0\vc\include\xmemory
;	COMDAT ??$_Destroy_range@V?$allocator@K@std@@@std@@YAXPAK0AAV?$allocator@K@0@U_Scalar_ptr_iterator_tag@0@@Z
_TEXT	SEGMENT
__First$ = 8						; size = 4
__Last$ = 12						; size = 4
__Al$ = 16						; size = 4
___formal$ = 20						; size = 1
??$_Destroy_range@V?$allocator@K@std@@@std@@YAXPAK0AAV?$allocator@K@0@U_Scalar_ptr_iterator_tag@0@@Z PROC ; std::_Destroy_range<std::allocator<unsigned long> >, COMDAT

; 105  : 	}

  00000	c3		 ret	 0
??$_Destroy_range@V?$allocator@K@std@@@std@@YAXPAK0AAV?$allocator@K@0@U_Scalar_ptr_iterator_tag@0@@Z ENDP ; std::_Destroy_range<std::allocator<unsigned long> >
_TEXT	ENDS
PUBLIC	??4WeaponInfo@@QAEAAU0@ABU0@@Z			; WeaponInfo::operator=
EXTRN	__imp_??4ioHashString@@QAEAAV0@ABV0@@Z:PROC
; Function compile flags: /Ogsp
;	COMDAT ??4WeaponInfo@@QAEAAU0@ABU0@@Z
_TEXT	SEGMENT
___that$ = 8						; size = 4
??4WeaponInfo@@QAEAAU0@ABU0@@Z PROC			; WeaponInfo::operator=, COMDAT
; _this$ = ecx
  00000	55		 push	 ebp
  00001	8b ec		 mov	 ebp, esp
  00003	56		 push	 esi
  00004	57		 push	 edi
  00005	8b 7d 08	 mov	 edi, DWORD PTR ___that$[ebp]
  00008	8b 07		 mov	 eax, DWORD PTR [edi]
  0000a	8b f1		 mov	 esi, ecx
  0000c	89 06		 mov	 DWORD PTR [esi], eax
  0000e	8b 47 04	 mov	 eax, DWORD PTR [edi+4]
  00011	89 46 04	 mov	 DWORD PTR [esi+4], eax
  00014	8d 47 08	 lea	 eax, DWORD PTR [edi+8]
  00017	50		 push	 eax
  00018	8d 4e 08	 lea	 ecx, DWORD PTR [esi+8]
  0001b	ff 15 00 00 00
	00		 call	 DWORD PTR __imp_??4ioHashString@@QAEAAV0@ABV0@@Z
  00021	8b 47 18	 mov	 eax, DWORD PTR [edi+24]
  00024	89 46 18	 mov	 DWORD PTR [esi+24], eax
  00027	8b 47 1c	 mov	 eax, DWORD PTR [edi+28]
  0002a	89 46 1c	 mov	 DWORD PTR [esi+28], eax
  0002d	8a 47 20	 mov	 al, BYTE PTR [edi+32]
  00030	88 46 20	 mov	 BYTE PTR [esi+32], al
  00033	8b 47 24	 mov	 eax, DWORD PTR [edi+36]
  00036	89 46 24	 mov	 DWORD PTR [esi+36], eax
  00039	5f		 pop	 edi
  0003a	8b c6		 mov	 eax, esi
  0003c	5e		 pop	 esi
  0003d	5d		 pop	 ebp
  0003e	c2 04 00	 ret	 4
??4WeaponInfo@@QAEAAU0@ABU0@@Z ENDP			; WeaponInfo::operator=
_TEXT	ENDS
PUBLIC	??0WeaponInfo@@QAE@ABU0@@Z			; WeaponInfo::WeaponInfo
EXTRN	__imp_??0ioHashString@@QAE@ABV0@@Z:PROC
; Function compile flags: /Ogsp
;	COMDAT ??0WeaponInfo@@QAE@ABU0@@Z
_TEXT	SEGMENT
___that$ = 8						; size = 4
??0WeaponInfo@@QAE@ABU0@@Z PROC				; WeaponInfo::WeaponInfo, COMDAT
; _this$ = ecx
  00000	55		 push	 ebp
  00001	8b ec		 mov	 ebp, esp
  00003	56		 push	 esi
  00004	57		 push	 edi
  00005	8b 7d 08	 mov	 edi, DWORD PTR ___that$[ebp]
  00008	8b 07		 mov	 eax, DWORD PTR [edi]
  0000a	8b f1		 mov	 esi, ecx
  0000c	89 06		 mov	 DWORD PTR [esi], eax
  0000e	8b 47 04	 mov	 eax, DWORD PTR [edi+4]
  00011	89 46 04	 mov	 DWORD PTR [esi+4], eax
  00014	8d 47 08	 lea	 eax, DWORD PTR [edi+8]
  00017	50		 push	 eax
  00018	8d 4e 08	 lea	 ecx, DWORD PTR [esi+8]
  0001b	ff 15 00 00 00
	00		 call	 DWORD PTR __imp_??0ioHashString@@QAE@ABV0@@Z
  00021	8b 47 18	 mov	 eax, DWORD PTR [edi+24]
  00024	89 46 18	 mov	 DWORD PTR [esi+24], eax
  00027	8b 47 1c	 mov	 eax, DWORD PTR [edi+28]
  0002a	89 46 1c	 mov	 DWORD PTR [esi+28], eax
  0002d	8a 47 20	 mov	 al, BYTE PTR [edi+32]
  00030	88 46 20	 mov	 BYTE PTR [esi+32], al
  00033	8b 47 24	 mov	 eax, DWORD PTR [edi+36]
  00036	89 46 24	 mov	 DWORD PTR [esi+36], eax
  00039	5f		 pop	 edi
  0003a	8b c6		 mov	 eax, esi
  0003c	5e		 pop	 esi
  0003d	5d		 pop	 ebp
  0003e	c2 04 00	 ret	 4
??0WeaponInfo@@QAE@ABU0@@Z ENDP				; WeaponInfo::WeaponInfo
_TEXT	ENDS
PUBLIC	??1WeaponFireInfo@@QAE@XZ			; WeaponFireInfo::~WeaponFireInfo
; Function compile flags: /Ogsp
;	COMDAT ??1WeaponFireInfo@@QAE@XZ
_TEXT	SEGMENT
??1WeaponFireInfo@@QAE@XZ PROC				; WeaponFireInfo::~WeaponFireInfo, COMDAT
; _this$ = ecx
  00000	83 c1 10	 add	 ecx, 16			; 00000010H
  00003	ff 25 00 00 00
	00		 jmp	 DWORD PTR __imp_??1ioHashString@@QAE@XZ
??1WeaponFireInfo@@QAE@XZ ENDP				; WeaponFireInfo::~WeaponFireInfo
_TEXT	ENDS
PUBLIC	__real@4f800000
PUBLIC	__$ArrayPad$
PUBLIC	?CreateWeapon@ioConsecution2Skill@@QAEXPAVioBaseChar@@@Z ; ioConsecution2Skill::CreateWeapon
EXTRN	?SkillFireExplicit@ioBaseChar@@QAEPAVioWeapon@@ABUWeaponInfo@@ABVioHashString@@KABUD3DXVECTOR3@@2@Z:PROC ; ioBaseChar::SkillFireExplicit
EXTRN	__imp_?VEC3_ZERO@ioMath@@2UD3DXVECTOR3@@A:BYTE
EXTRN	?GetMidPositionByRate@ioGameEntity@@QBE?AUD3DXVECTOR3@@M@Z:PROC ; ioGameEntity::GetMidPositionByRate
EXTRN	___security_cookie:DWORD
EXTRN	@__security_check_cookie@4:PROC
;	COMDAT __real@4f800000
; File c:\program files (x86)\microsoft visual studio 10.0\vc\include\vector
CONST	SEGMENT
__real@4f800000 DD 04f800000r			; 4.29497e+009
; Function compile flags: /Ogsp
; File d:\lost saga for developer\youtube\tutorial\source\src\lsclient\ioconsecution2skill.cpp
CONST	ENDS
;	COMDAT ?CreateWeapon@ioConsecution2Skill@@QAEXPAVioBaseChar@@@Z
_TEXT	SEGMENT
tv236 = -20						; size = 4
tv232 = -20						; size = 4
tv228 = -20						; size = 4
_vCurPos$ = -16						; size = 12
__$ArrayPad$ = -4					; size = 4
_pOwner$ = 8						; size = 4
?CreateWeapon@ioConsecution2Skill@@QAEXPAVioBaseChar@@@Z PROC ; ioConsecution2Skill::CreateWeapon, COMDAT
; _this$ = ecx

; 538  : {

  00000	55		 push	 ebp
  00001	8b ec		 mov	 ebp, esp
  00003	83 ec 14	 sub	 esp, 20			; 00000014H
  00006	a1 00 00 00 00	 mov	 eax, DWORD PTR ___security_cookie
  0000b	33 c5		 xor	 eax, ebp
  0000d	89 45 fc	 mov	 DWORD PTR __$ArrayPad$[ebp], eax
  00010	56		 push	 esi
  00011	57		 push	 edi
  00012	8b 7d 08	 mov	 edi, DWORD PTR _pOwner$[ebp]
  00015	8b f1		 mov	 esi, ecx

; 539  : 	if( !pOwner ) return;

  00017	85 ff		 test	 edi, edi
  00019	0f 84 a0 00 00
	00		 je	 $LN1@CreateWeap

; 540  : 
; 541  : 	int iFireTimeCnt = m_vWeaponFireInfoList.size();

  0001f	8b 86 30 12 00
	00		 mov	 eax, DWORD PTR [esi+4656]
  00025	2b 86 2c 12 00
	00		 sub	 eax, DWORD PTR [esi+4652]
  0002b	6a 30		 push	 48			; 00000030H
  0002d	99		 cdq
  0002e	59		 pop	 ecx
  0002f	f7 f9		 idiv	 ecx

; 542  : 	if( iFireTimeCnt <= 0 )

  00031	85 c0		 test	 eax, eax
  00033	0f 8e 86 00 00
	00		 jle	 $LN1@CreateWeap

; 543  : 		return;
; 544  : 
; 545  : 	if( !COMPARE( m_iWeaponFireCnt, 0, iFireTimeCnt) )

  00039	8b 8e 3c 12 00
	00		 mov	 ecx, DWORD PTR [esi+4668]
  0003f	85 c9		 test	 ecx, ecx
  00041	78 7c		 js	 SHORT $LN1@CreateWeap
  00043	3b c8		 cmp	 ecx, eax
  00045	7d 78		 jge	 SHORT $LN1@CreateWeap

; 546  : 		return;
; 547  : 
; 548  : 	D3DXVECTOR3 vCurPos = pOwner->GetMidPositionByRate();

  00047	b8 05 00 00 00	 mov	 eax, 5
  0004c	8b c8		 mov	 ecx, eax
  0004e	b8 0a 00 00 00	 mov	 eax, 10			; 0000000aH
  00053	89 4d ec	 mov	 DWORD PTR tv236[ebp], ecx
  00056	db 45 ec	 fild	 DWORD PTR tv236[ebp]
  00059	85 c9		 test	 ecx, ecx
  0005b	79 06		 jns	 SHORT $LN17@CreateWeap
  0005d	d8 05 00 00 00
	00		 fadd	 DWORD PTR __real@4f800000
$LN17@CreateWeap:
  00063	89 45 ec	 mov	 DWORD PTR tv232[ebp], eax
  00066	db 45 ec	 fild	 DWORD PTR tv232[ebp]
  00069	85 c0		 test	 eax, eax
  0006b	79 06		 jns	 SHORT $LN18@CreateWeap
  0006d	d8 05 00 00 00
	00		 fadd	 DWORD PTR __real@4f800000
$LN18@CreateWeap:
  00073	de f9		 fdivp	 ST(1), ST(0)
  00075	51		 push	 ecx
  00076	8d 45 f0	 lea	 eax, DWORD PTR _vCurPos$[ebp]
  00079	8b cf		 mov	 ecx, edi
  0007b	d9 5d ec	 fstp	 DWORD PTR tv228[ebp]
  0007e	d9 45 ec	 fld	 DWORD PTR tv228[ebp]
  00081	d9 1c 24	 fstp	 DWORD PTR [esp]
  00084	50		 push	 eax
  00085	e8 00 00 00 00	 call	 ?GetMidPositionByRate@ioGameEntity@@QBE?AUD3DXVECTOR3@@M@Z ; ioGameEntity::GetMidPositionByRate

; 549  : 	DWORD dwWeaponIndex = m_dwWeaponBaseIndex + m_iWeaponFireCnt;
; 550  : 
; 551  : 	pOwner->SkillFireExplicit( m_vWeaponFireInfoList[m_iWeaponFireCnt].m_WeaponInfo, GetName(), dwWeaponIndex, vCurPos );

  0008a	ff 35 00 00 00
	00		 push	 DWORD PTR __imp_?VEC3_ZERO@ioMath@@2UD3DXVECTOR3@@A
  00090	8b 86 3c 12 00
	00		 mov	 eax, DWORD PTR [esi+4668]
  00096	8d 4d f0	 lea	 ecx, DWORD PTR _vCurPos$[ebp]
  00099	51		 push	 ecx
  0009a	8b 4e 78	 mov	 ecx, DWORD PTR [esi+120]
  0009d	03 c8		 add	 ecx, eax
  0009f	6b c0 30	 imul	 eax, 48			; 00000030H
  000a2	51		 push	 ecx
  000a3	8d 4e 24	 lea	 ecx, DWORD PTR [esi+36]
  000a6	51		 push	 ecx
  000a7	8b 8e 2c 12 00
	00		 mov	 ecx, DWORD PTR [esi+4652]
  000ad	8d 44 08 08	 lea	 eax, DWORD PTR [eax+ecx+8]
  000b1	50		 push	 eax
  000b2	8b cf		 mov	 ecx, edi
  000b4	e8 00 00 00 00	 call	 ?SkillFireExplicit@ioBaseChar@@QAEPAVioWeapon@@ABUWeaponInfo@@ABVioHashString@@KABUD3DXVECTOR3@@2@Z ; ioBaseChar::SkillFireExplicit

; 552  : 
; 553  : 	m_iWeaponFireCnt++;

  000b9	ff 86 3c 12 00
	00		 inc	 DWORD PTR [esi+4668]
$LN1@CreateWeap:

; 554  : }

  000bf	8b 4d fc	 mov	 ecx, DWORD PTR __$ArrayPad$[ebp]
  000c2	5f		 pop	 edi
  000c3	33 cd		 xor	 ecx, ebp
  000c5	5e		 pop	 esi
  000c6	e8 00 00 00 00	 call	 @__security_check_cookie@4
  000cb	c9		 leave
  000cc	c2 04 00	 ret	 4
?CreateWeapon@ioConsecution2Skill@@QAEXPAVioBaseChar@@@Z ENDP ; ioConsecution2Skill::CreateWeapon
_TEXT	ENDS
PUBLIC	?CheckMoveAniState@ioConsecution2Skill@@IAEXPAVioBaseChar@@@Z ; ioConsecution2Skill::CheckMoveAniState
EXTRN	__imp_?SetLoopAni@ioEntityGroup@@QAE_NHMMMM@Z:PROC
EXTRN	__imp_?SetLoopAni@ioEntityGroup@@QAE_NABVioHashString@@MMMM@Z:PROC
EXTRN	?GetXformDir@ioBaseChar@@QAE?AW4DirKeyInput@ioUserKeyInput@@W423@@Z:PROC ; ioBaseChar::GetXformDir
EXTRN	__imp_?ClearLoopAni@ioEntityGroup@@QAE_NHM_N@Z:PROC
EXTRN	__imp_?GetAnimationIdx@ioEntityGroup@@QAEHABVioHashString@@@Z:PROC
EXTRN	?IsChangeDirection@ioBaseChar@@QAE_NXZ:PROC	; ioBaseChar::IsChangeDirection
EXTRN	?IsSettedDirection@ioBaseChar@@QBE_NXZ:PROC	; ioBaseChar::IsSettedDirection
; Function compile flags: /Ogsp
;	COMDAT ?CheckMoveAniState@ioConsecution2Skill@@IAEXPAVioBaseChar@@@Z
_TEXT	SEGMENT
tv483 = -24						; size = 4
tv474 = -24						; size = 4
tv454 = -24						; size = 4
tv429 = -24						; size = 4
tv173 = -24						; size = 4
tv507 = -20						; size = 4
tv428 = -20						; size = 4
$T535864 = -20						; size = 4
tv501 = -16						; size = 4
tv495 = -16						; size = 4
tv489 = -16						; size = 4
tv434 = -16						; size = 4
tv430 = -12						; size = 4
tv432 = -8						; size = 4
_pGrp$ = -4						; size = 4
tv471 = 8						; size = 4
tv469 = 8						; size = 4
tv467 = 8						; size = 4
tv451 = 8						; size = 4
tv449 = 8						; size = 4
tv447 = 8						; size = 4
tv425 = 8						; size = 4
tv423 = 8						; size = 4
tv421 = 8						; size = 4
tv399 = 8						; size = 4
tv396 = 8						; size = 4
tv394 = 8						; size = 4
tv392 = 8						; size = 4
tv348 = 8						; size = 4
tv338 = 8						; size = 4
tv305 = 8						; size = 4
tv277 = 8						; size = 4
tv152 = 8						; size = 4
tv141 = 8						; size = 4
tv130 = 8						; size = 4
_fRate$532178 = 8					; size = 4
_pOwner$ = 8						; size = 4
?CheckMoveAniState@ioConsecution2Skill@@IAEXPAVioBaseChar@@@Z PROC ; ioConsecution2Skill::CheckMoveAniState, COMDAT
; _this$ = ecx

; 557  : {

  00000	55		 push	 ebp
  00001	8b ec		 mov	 ebp, esp
  00003	83 ec 18	 sub	 esp, 24			; 00000018H
  00006	56		 push	 esi
  00007	57		 push	 edi

; 558  : 	if( !pOwner ) return;

  00008	8b 7d 08	 mov	 edi, DWORD PTR _pOwner$[ebp]
  0000b	8b f1		 mov	 esi, ecx
  0000d	85 ff		 test	 edi, edi
  0000f	0f 84 b2 04 00
	00		 je	 $LN1@CheckMoveA

; 559  : 
; 560  : 	DWORD dwCurTime = FRAMEGETTIME();

  00015	53		 push	 ebx
  00016	ff 15 00 00 00
	00		 call	 DWORD PTR __imp_?GetSingleton@ioFrameTimer@@SAAAV1@XZ
  0001c	8b c8		 mov	 ecx, eax
  0001e	ff 15 00 00 00
	00		 call	 DWORD PTR __imp_?GetLoopSec@ioFrameTimer@@QBEKXZ

; 561  : 	ioEntityGroup *pGrp = pOwner->GetGroup();

  00024	8b 5f 04	 mov	 ebx, DWORD PTR [edi+4]

; 562  : 	int iAniID = 0;
; 563  : 
; 564  : 	if( pOwner->IsSettedDirection() )

  00027	8b cf		 mov	 ecx, edi
  00029	89 5d fc	 mov	 DWORD PTR _pGrp$[ebp], ebx
  0002c	e8 00 00 00 00	 call	 ?IsSettedDirection@ioBaseChar@@QBE_NXZ ; ioBaseChar::IsSettedDirection
  00031	84 c0		 test	 al, al
  00033	0f 84 22 03 00
	00		 je	 $LN12@CheckMoveA

; 565  : 	{
; 566  : 		if( pOwner->IsChangeDirection() || m_bFirstMoveMotion )

  00039	8b cf		 mov	 ecx, edi
  0003b	e8 00 00 00 00	 call	 ?IsChangeDirection@ioBaseChar@@QAE_NXZ ; ioBaseChar::IsChangeDirection
  00040	84 c0		 test	 al, al
  00042	75 0c		 jne	 SHORT $LN10@CheckMoveA
  00044	38 86 42 12 00
	00		 cmp	 BYTE PTR [esi+4674], al
  0004a	0f 84 76 04 00
	00		 je	 $LN66@CheckMoveA
$LN10@CheckMoveA:

; 567  : 		{
; 568  : 			int iAniID = 0;
; 569  : 			iAniID = pGrp->GetAnimationIdx(m_szSkillLoopMotion);

  00050	8b 3d 00 00 00
	00		 mov	 edi, DWORD PTR __imp_?GetAnimationIdx@ioEntityGroup@@QAEHABVioHashString@@@Z
  00056	8d 86 50 11 00
	00		 lea	 eax, DWORD PTR [esi+4432]
  0005c	50		 push	 eax
  0005d	8b cb		 mov	 ecx, ebx
  0005f	ff d7		 call	 edi
  00061	8b c8		 mov	 ecx, eax

; 570  : 			pGrp->ClearLoopAni( iAniID, FLOAT100 );

  00063	b8 64 00 00 00	 mov	 eax, 100		; 00000064H
  00068	89 45 ec	 mov	 DWORD PTR tv507[ebp], eax
  0006b	db 45 ec	 fild	 DWORD PTR tv507[ebp]
  0006e	6a 00		 push	 0
  00070	85 c0		 test	 eax, eax
  00072	79 06		 jns	 SHORT $LN67@CheckMoveA
  00074	d8 05 00 00 00
	00		 fadd	 DWORD PTR __real@4f800000
$LN67@CheckMoveA:
  0007a	51		 push	 ecx
  0007b	d9 1c 24	 fstp	 DWORD PTR [esp]
  0007e	51		 push	 ecx
  0007f	8b cb		 mov	 ecx, ebx
  00081	8b 1d 00 00 00
	00		 mov	 ebx, DWORD PTR __imp_?ClearLoopAni@ioEntityGroup@@QAE_NHM_N@Z
  00087	ff d3		 call	 ebx

; 571  : 			iAniID = pGrp->GetAnimationIdx(m_SkillMotionFr);

  00089	8b 4d fc	 mov	 ecx, DWORD PTR _pGrp$[ebp]
  0008c	8d 86 c0 11 00
	00		 lea	 eax, DWORD PTR [esi+4544]
  00092	50		 push	 eax
  00093	89 45 ec	 mov	 DWORD PTR tv428[ebp], eax
  00096	ff d7		 call	 edi
  00098	8b c8		 mov	 ecx, eax

; 572  : 			pGrp->ClearLoopAni( iAniID, FLOAT100 );

  0009a	b8 64 00 00 00	 mov	 eax, 100		; 00000064H
  0009f	89 45 f0	 mov	 DWORD PTR tv501[ebp], eax
  000a2	db 45 f0	 fild	 DWORD PTR tv501[ebp]
  000a5	6a 00		 push	 0
  000a7	85 c0		 test	 eax, eax
  000a9	79 06		 jns	 SHORT $LN68@CheckMoveA
  000ab	d8 05 00 00 00
	00		 fadd	 DWORD PTR __real@4f800000
$LN68@CheckMoveA:
  000b1	51		 push	 ecx
  000b2	d9 1c 24	 fstp	 DWORD PTR [esp]
  000b5	51		 push	 ecx
  000b6	8b 4d fc	 mov	 ecx, DWORD PTR _pGrp$[ebp]
  000b9	ff d3		 call	 ebx

; 573  : 			iAniID = pGrp->GetAnimationIdx(m_SkillMotionBk);

  000bb	8b 4d fc	 mov	 ecx, DWORD PTR _pGrp$[ebp]
  000be	8d 86 d0 11 00
	00		 lea	 eax, DWORD PTR [esi+4560]
  000c4	50		 push	 eax
  000c5	89 45 f4	 mov	 DWORD PTR tv430[ebp], eax
  000c8	ff d7		 call	 edi
  000ca	8b c8		 mov	 ecx, eax

; 574  : 			pGrp->ClearLoopAni( iAniID, FLOAT100 );

  000cc	b8 64 00 00 00	 mov	 eax, 100		; 00000064H
  000d1	89 45 f0	 mov	 DWORD PTR tv495[ebp], eax
  000d4	db 45 f0	 fild	 DWORD PTR tv495[ebp]
  000d7	6a 00		 push	 0
  000d9	85 c0		 test	 eax, eax
  000db	79 06		 jns	 SHORT $LN69@CheckMoveA
  000dd	d8 05 00 00 00
	00		 fadd	 DWORD PTR __real@4f800000
$LN69@CheckMoveA:
  000e3	51		 push	 ecx
  000e4	d9 1c 24	 fstp	 DWORD PTR [esp]
  000e7	51		 push	 ecx
  000e8	8b 4d fc	 mov	 ecx, DWORD PTR _pGrp$[ebp]
  000eb	ff d3		 call	 ebx

; 575  : 			iAniID = pGrp->GetAnimationIdx(m_SkillMotionLt);

  000ed	8b 4d fc	 mov	 ecx, DWORD PTR _pGrp$[ebp]
  000f0	8d 86 e0 11 00
	00		 lea	 eax, DWORD PTR [esi+4576]
  000f6	50		 push	 eax
  000f7	89 45 f8	 mov	 DWORD PTR tv432[ebp], eax
  000fa	ff d7		 call	 edi
  000fc	8b c8		 mov	 ecx, eax

; 576  : 			pGrp->ClearLoopAni( iAniID, FLOAT100 );

  000fe	b8 64 00 00 00	 mov	 eax, 100		; 00000064H
  00103	89 45 f0	 mov	 DWORD PTR tv489[ebp], eax
  00106	db 45 f0	 fild	 DWORD PTR tv489[ebp]
  00109	6a 00		 push	 0
  0010b	85 c0		 test	 eax, eax
  0010d	79 06		 jns	 SHORT $LN70@CheckMoveA
  0010f	d8 05 00 00 00
	00		 fadd	 DWORD PTR __real@4f800000
$LN70@CheckMoveA:
  00115	51		 push	 ecx
  00116	d9 1c 24	 fstp	 DWORD PTR [esp]
  00119	51		 push	 ecx
  0011a	8b 4d fc	 mov	 ecx, DWORD PTR _pGrp$[ebp]
  0011d	ff d3		 call	 ebx

; 577  : 			iAniID = pGrp->GetAnimationIdx(m_SkillMotionRt);

  0011f	8b 4d fc	 mov	 ecx, DWORD PTR _pGrp$[ebp]
  00122	8d 86 f0 11 00
	00		 lea	 eax, DWORD PTR [esi+4592]
  00128	50		 push	 eax
  00129	89 45 f0	 mov	 DWORD PTR tv434[ebp], eax
  0012c	ff d7		 call	 edi
  0012e	8b c8		 mov	 ecx, eax

; 578  : 			pGrp->ClearLoopAni( iAniID, FLOAT100 );

  00130	b8 64 00 00 00	 mov	 eax, 100		; 00000064H
  00135	89 45 e8	 mov	 DWORD PTR tv483[ebp], eax
  00138	db 45 e8	 fild	 DWORD PTR tv483[ebp]
  0013b	6a 00		 push	 0
  0013d	85 c0		 test	 eax, eax
  0013f	79 06		 jns	 SHORT $LN71@CheckMoveA
  00141	d8 05 00 00 00
	00		 fadd	 DWORD PTR __real@4f800000
$LN71@CheckMoveA:
  00147	8b 7d fc	 mov	 edi, DWORD PTR _pGrp$[ebp]
  0014a	51		 push	 ecx
  0014b	d9 1c 24	 fstp	 DWORD PTR [esp]
  0014e	51		 push	 ecx
  0014f	8b cf		 mov	 ecx, edi
  00151	ff d3		 call	 ebx

; 579  : 
; 580  : 			m_bMotionSetted = false;
; 581  : 			m_bFirstMoveMotion = false;
; 582  : 			m_bLoopMotionSetted = false;
; 583  : 
; 584  : 			ioUserKeyInput::DirKeyInput eXformDir;
; 585  : 			eXformDir = pOwner->GetXformDir( m_StartDirKey );

  00153	ff b6 44 12 00
	00		 push	 DWORD PTR [esi+4676]
  00159	8b 4d 08	 mov	 ecx, DWORD PTR _pOwner$[ebp]
  0015c	c6 86 40 12 00
	00 00		 mov	 BYTE PTR [esi+4672], 0
  00163	66 c7 86 41 12
	00 00 00 00	 mov	 WORD PTR [esi+4673], 0
  0016c	e8 00 00 00 00	 call	 ?GetXformDir@ioBaseChar@@QAE?AW4DirKeyInput@ioUserKeyInput@@W423@@Z ; ioBaseChar::GetXformDir

; 586  : 
; 587  : 			float fRate = m_fSkillMotionRate;

  00171	f3 0f 10 86 00
	12 00 00	 movss	 xmm0, DWORD PTR [esi+4608]
  00179	f3 0f 11 45 08	 movss	 DWORD PTR _fRate$532178[ebp], xmm0

; 588  : 
; 589  : 			switch( eXformDir )

  0017e	83 f8 01	 cmp	 eax, 1
  00181	0f 84 61 01 00
	00		 je	 $LN7@CheckMoveA
  00187	0f 8e 39 03 00
	00		 jle	 $LN66@CheckMoveA
  0018d	83 f8 04	 cmp	 eax, 4
  00190	0f 8e ea 00 00
	00		 jle	 $LN6@CheckMoveA
  00196	83 f8 05	 cmp	 eax, 5
  00199	74 7a		 je	 SHORT $LN5@CheckMoveA
  0019b	0f 8e 25 03 00
	00		 jle	 $LN66@CheckMoveA
  001a1	83 f8 08	 cmp	 eax, 8
  001a4	0f 8f 1c 03 00
	00		 jg	 $LN66@CheckMoveA

; 602  : 			case ioUserKeyInput::DKI_LEFTDOWN:
; 603  : 			case ioUserKeyInput::DKI_LEFT:
; 604  : 			case ioUserKeyInput::DKI_LEFTUP:
; 605  : 				pGrp->SetLoopAni( m_SkillMotionLt, FLOAT100, FLOAT1, FLOAT1/fRate );

  001aa	b8 01 00 00 00	 mov	 eax, 1
  001af	8b c8		 mov	 ecx, eax
  001b1	b8 01 00 00 00	 mov	 eax, 1
  001b6	8b d0		 mov	 edx, eax
  001b8	b8 64 00 00 00	 mov	 eax, 100		; 00000064H
  001bd	0f 57 c0	 xorps	 xmm0, xmm0
  001c0	83 ec 10	 sub	 esp, 16			; 00000010H
  001c3	89 4d e8	 mov	 DWORD PTR tv474[ebp], ecx
  001c6	db 45 e8	 fild	 DWORD PTR tv474[ebp]
  001c9	f3 0f 11 44 24
	0c		 movss	 DWORD PTR [esp+12], xmm0
  001cf	85 c9		 test	 ecx, ecx
  001d1	79 06		 jns	 SHORT $LN72@CheckMoveA
  001d3	d8 05 00 00 00
	00		 fadd	 DWORD PTR __real@4f800000
$LN72@CheckMoveA:
  001d9	d8 75 08	 fdiv	 DWORD PTR _fRate$532178[ebp]
  001dc	d9 5d 08	 fstp	 DWORD PTR tv471[ebp]
  001df	d9 45 08	 fld	 DWORD PTR tv471[ebp]
  001e2	d9 5c 24 08	 fstp	 DWORD PTR [esp+8]
  001e6	89 55 08	 mov	 DWORD PTR tv469[ebp], edx
  001e9	db 45 08	 fild	 DWORD PTR tv469[ebp]
  001ec	85 d2		 test	 edx, edx
  001ee	79 06		 jns	 SHORT $LN73@CheckMoveA
  001f0	d8 05 00 00 00
	00		 fadd	 DWORD PTR __real@4f800000
$LN73@CheckMoveA:
  001f6	89 45 08	 mov	 DWORD PTR tv467[ebp], eax
  001f9	d9 5c 24 04	 fstp	 DWORD PTR [esp+4]
  001fd	db 45 08	 fild	 DWORD PTR tv467[ebp]
  00200	85 c0		 test	 eax, eax
  00202	79 06		 jns	 SHORT $LN74@CheckMoveA
  00204	d8 05 00 00 00
	00		 fadd	 DWORD PTR __real@4f800000
$LN74@CheckMoveA:
  0020a	d9 1c 24	 fstp	 DWORD PTR [esp]
  0020d	ff 75 f8	 push	 DWORD PTR tv432[ebp]

; 606  : 				break;

  00210	e9 39 01 00 00	 jmp	 $LN91@CheckMoveA
$LN5@CheckMoveA:

; 599  : 			case ioUserKeyInput::DKI_DOWN:
; 600  : 				pGrp->SetLoopAni( m_SkillMotionBk, FLOAT100, FLOAT1, FLOAT1/fRate );

  00215	b8 01 00 00 00	 mov	 eax, 1
  0021a	8b c8		 mov	 ecx, eax
  0021c	b8 01 00 00 00	 mov	 eax, 1
  00221	8b d0		 mov	 edx, eax
  00223	b8 64 00 00 00	 mov	 eax, 100		; 00000064H
  00228	0f 57 c0	 xorps	 xmm0, xmm0
  0022b	83 ec 10	 sub	 esp, 16			; 00000010H
  0022e	89 4d e8	 mov	 DWORD PTR tv454[ebp], ecx
  00231	db 45 e8	 fild	 DWORD PTR tv454[ebp]
  00234	f3 0f 11 44 24
	0c		 movss	 DWORD PTR [esp+12], xmm0
  0023a	85 c9		 test	 ecx, ecx
  0023c	79 06		 jns	 SHORT $LN75@CheckMoveA
  0023e	d8 05 00 00 00
	00		 fadd	 DWORD PTR __real@4f800000
$LN75@CheckMoveA:
  00244	d8 75 08	 fdiv	 DWORD PTR _fRate$532178[ebp]
  00247	d9 5d 08	 fstp	 DWORD PTR tv451[ebp]
  0024a	d9 45 08	 fld	 DWORD PTR tv451[ebp]
  0024d	d9 5c 24 08	 fstp	 DWORD PTR [esp+8]
  00251	89 55 08	 mov	 DWORD PTR tv449[ebp], edx
  00254	db 45 08	 fild	 DWORD PTR tv449[ebp]
  00257	85 d2		 test	 edx, edx
  00259	79 06		 jns	 SHORT $LN76@CheckMoveA
  0025b	d8 05 00 00 00
	00		 fadd	 DWORD PTR __real@4f800000
$LN76@CheckMoveA:
  00261	89 45 08	 mov	 DWORD PTR tv447[ebp], eax
  00264	d9 5c 24 04	 fstp	 DWORD PTR [esp+4]
  00268	db 45 08	 fild	 DWORD PTR tv447[ebp]
  0026b	85 c0		 test	 eax, eax
  0026d	79 06		 jns	 SHORT $LN77@CheckMoveA
  0026f	d8 05 00 00 00
	00		 fadd	 DWORD PTR __real@4f800000
$LN77@CheckMoveA:
  00275	d9 1c 24	 fstp	 DWORD PTR [esp]
  00278	ff 75 f4	 push	 DWORD PTR tv430[ebp]

; 601  : 				break;

  0027b	e9 ce 00 00 00	 jmp	 $LN91@CheckMoveA
$LN6@CheckMoveA:

; 593  : 				break;
; 594  : 			case ioUserKeyInput::DKI_RIGHTUP:
; 595  : 			case ioUserKeyInput::DKI_RIGHT:
; 596  : 			case ioUserKeyInput::DKI_RIGHTDOWN:
; 597  : 				pGrp->SetLoopAni( m_SkillMotionRt, FLOAT100, FLOAT1, FLOAT1/fRate );

  00280	b8 01 00 00 00	 mov	 eax, 1
  00285	8b c8		 mov	 ecx, eax
  00287	b8 01 00 00 00	 mov	 eax, 1
  0028c	8b d0		 mov	 edx, eax
  0028e	b8 64 00 00 00	 mov	 eax, 100		; 00000064H
  00293	0f 57 c0	 xorps	 xmm0, xmm0
  00296	83 ec 10	 sub	 esp, 16			; 00000010H
  00299	89 4d e8	 mov	 DWORD PTR tv429[ebp], ecx
  0029c	db 45 e8	 fild	 DWORD PTR tv429[ebp]
  0029f	f3 0f 11 44 24
	0c		 movss	 DWORD PTR [esp+12], xmm0
  002a5	85 c9		 test	 ecx, ecx
  002a7	79 06		 jns	 SHORT $LN78@CheckMoveA
  002a9	d8 05 00 00 00
	00		 fadd	 DWORD PTR __real@4f800000
$LN78@CheckMoveA:
  002af	d8 75 08	 fdiv	 DWORD PTR _fRate$532178[ebp]
  002b2	d9 5d 08	 fstp	 DWORD PTR tv425[ebp]
  002b5	d9 45 08	 fld	 DWORD PTR tv425[ebp]
  002b8	d9 5c 24 08	 fstp	 DWORD PTR [esp+8]
  002bc	89 55 08	 mov	 DWORD PTR tv423[ebp], edx
  002bf	db 45 08	 fild	 DWORD PTR tv423[ebp]
  002c2	85 d2		 test	 edx, edx
  002c4	79 06		 jns	 SHORT $LN79@CheckMoveA
  002c6	d8 05 00 00 00
	00		 fadd	 DWORD PTR __real@4f800000
$LN79@CheckMoveA:
  002cc	89 45 08	 mov	 DWORD PTR tv421[ebp], eax
  002cf	d9 5c 24 04	 fstp	 DWORD PTR [esp+4]
  002d3	db 45 08	 fild	 DWORD PTR tv421[ebp]
  002d6	85 c0		 test	 eax, eax
  002d8	79 06		 jns	 SHORT $LN80@CheckMoveA
  002da	d8 05 00 00 00
	00		 fadd	 DWORD PTR __real@4f800000
$LN80@CheckMoveA:
  002e0	d9 1c 24	 fstp	 DWORD PTR [esp]
  002e3	ff 75 f0	 push	 DWORD PTR tv434[ebp]

; 598  : 				break;

  002e6	eb 66		 jmp	 SHORT $LN91@CheckMoveA
$LN7@CheckMoveA:

; 590  : 			{
; 591  : 			case ioUserKeyInput::DKI_UP:
; 592  : 				pGrp->SetLoopAni( m_SkillMotionFr, FLOAT100, FLOAT1, FLOAT1/fRate );

  002e8	b8 01 00 00 00	 mov	 eax, 1
  002ed	8b c8		 mov	 ecx, eax
  002ef	b8 01 00 00 00	 mov	 eax, 1
  002f4	8b d0		 mov	 edx, eax
  002f6	b8 64 00 00 00	 mov	 eax, 100		; 00000064H
  002fb	0f 57 c0	 xorps	 xmm0, xmm0
  002fe	83 ec 10	 sub	 esp, 16			; 00000010H
  00301	89 4d e8	 mov	 DWORD PTR tv173[ebp], ecx
  00304	db 45 e8	 fild	 DWORD PTR tv173[ebp]
  00307	f3 0f 11 44 24
	0c		 movss	 DWORD PTR [esp+12], xmm0
  0030d	85 c9		 test	 ecx, ecx
  0030f	79 06		 jns	 SHORT $LN81@CheckMoveA
  00311	d8 05 00 00 00
	00		 fadd	 DWORD PTR __real@4f800000
$LN81@CheckMoveA:
  00317	d8 75 08	 fdiv	 DWORD PTR _fRate$532178[ebp]
  0031a	d9 5d 08	 fstp	 DWORD PTR tv152[ebp]
  0031d	d9 45 08	 fld	 DWORD PTR tv152[ebp]
  00320	d9 5c 24 08	 fstp	 DWORD PTR [esp+8]
  00324	89 55 08	 mov	 DWORD PTR tv141[ebp], edx
  00327	db 45 08	 fild	 DWORD PTR tv141[ebp]
  0032a	85 d2		 test	 edx, edx
  0032c	79 06		 jns	 SHORT $LN82@CheckMoveA
  0032e	d8 05 00 00 00
	00		 fadd	 DWORD PTR __real@4f800000
$LN82@CheckMoveA:
  00334	89 45 08	 mov	 DWORD PTR tv130[ebp], eax
  00337	d9 5c 24 04	 fstp	 DWORD PTR [esp+4]
  0033b	db 45 08	 fild	 DWORD PTR tv130[ebp]
  0033e	85 c0		 test	 eax, eax
  00340	79 06		 jns	 SHORT $LN83@CheckMoveA
  00342	d8 05 00 00 00
	00		 fadd	 DWORD PTR __real@4f800000
$LN83@CheckMoveA:
  00348	d9 1c 24	 fstp	 DWORD PTR [esp]
  0034b	ff 75 ec	 push	 DWORD PTR tv428[ebp]
$LN91@CheckMoveA:
  0034e	8b cf		 mov	 ecx, edi
  00350	ff 15 00 00 00
	00		 call	 DWORD PTR __imp_?SetLoopAni@ioEntityGroup@@QAE_NABVioHashString@@MMMM@Z

; 607  : 			}
; 608  : 		}
; 609  : 	}
; 610  : 	else

  00356	e9 6b 01 00 00	 jmp	 $LN66@CheckMoveA
$LN12@CheckMoveA:

; 611  : 	{
; 612  : 		if( !m_bLoopMotionSetted )

  0035b	80 be 41 12 00
	00 00		 cmp	 BYTE PTR [esi+4673], 0
  00362	8b 3d 00 00 00
	00		 mov	 edi, DWORD PTR __imp_?GetAnimationIdx@ioEntityGroup@@QAEHABVioHashString@@@Z
  00368	0f 85 84 00 00
	00		 jne	 $LN2@CheckMoveA

; 613  : 		{
; 614  : 			int iAniID = 0;
; 615  : 			iAniID = pGrp->GetAnimationIdx(m_szSkillLoopMotion);

  0036e	8d 86 50 11 00
	00		 lea	 eax, DWORD PTR [esi+4432]
  00374	50		 push	 eax
  00375	8b cb		 mov	 ecx, ebx
  00377	ff d7		 call	 edi
  00379	8b c8		 mov	 ecx, eax

; 616  : 			pGrp->SetLoopAni( iAniID, FLOAT100, FLOAT1, FLOAT1/m_fSkillMotionRate );

  0037b	b8 01 00 00 00	 mov	 eax, 1
  00380	8b d0		 mov	 edx, eax
  00382	b8 01 00 00 00	 mov	 eax, 1
  00387	89 45 ec	 mov	 DWORD PTR $T535864[ebp], eax
  0038a	b8 64 00 00 00	 mov	 eax, 100		; 00000064H
  0038f	0f 57 c0	 xorps	 xmm0, xmm0
  00392	83 ec 10	 sub	 esp, 16			; 00000010H
  00395	89 55 08	 mov	 DWORD PTR tv399[ebp], edx
  00398	db 45 08	 fild	 DWORD PTR tv399[ebp]
  0039b	f3 0f 11 44 24
	0c		 movss	 DWORD PTR [esp+12], xmm0
  003a1	85 d2		 test	 edx, edx
  003a3	79 06		 jns	 SHORT $LN84@CheckMoveA
  003a5	d8 05 00 00 00
	00		 fadd	 DWORD PTR __real@4f800000
$LN84@CheckMoveA:
  003ab	d8 b6 00 12 00
	00		 fdiv	 DWORD PTR [esi+4608]
  003b1	8b 55 ec	 mov	 edx, DWORD PTR $T535864[ebp]
  003b4	d9 5d 08	 fstp	 DWORD PTR tv396[ebp]
  003b7	d9 45 08	 fld	 DWORD PTR tv396[ebp]
  003ba	d9 5c 24 08	 fstp	 DWORD PTR [esp+8]
  003be	db 45 ec	 fild	 DWORD PTR $T535864[ebp]
  003c1	85 d2		 test	 edx, edx
  003c3	79 06		 jns	 SHORT $LN85@CheckMoveA
  003c5	d8 05 00 00 00
	00		 fadd	 DWORD PTR __real@4f800000
$LN85@CheckMoveA:
  003cb	89 45 08	 mov	 DWORD PTR tv392[ebp], eax
  003ce	d9 5c 24 04	 fstp	 DWORD PTR [esp+4]
  003d2	db 45 08	 fild	 DWORD PTR tv392[ebp]
  003d5	85 c0		 test	 eax, eax
  003d7	79 06		 jns	 SHORT $LN86@CheckMoveA
  003d9	d8 05 00 00 00
	00		 fadd	 DWORD PTR __real@4f800000
$LN86@CheckMoveA:
  003df	d9 1c 24	 fstp	 DWORD PTR [esp]
  003e2	51		 push	 ecx
  003e3	8b cb		 mov	 ecx, ebx
  003e5	ff 15 00 00 00
	00		 call	 DWORD PTR __imp_?SetLoopAni@ioEntityGroup@@QAE_NHMMMM@Z

; 617  : 
; 618  : 			m_bLoopMotionSetted = true;

  003eb	c6 86 41 12 00
	00 01		 mov	 BYTE PTR [esi+4673], 1
$LN2@CheckMoveA:

; 619  : 		}
; 620  : 		if( !m_bMotionSetted )

  003f2	80 be 40 12 00
	00 00		 cmp	 BYTE PTR [esi+4672], 0
  003f9	0f 85 c7 00 00
	00		 jne	 $LN66@CheckMoveA

; 621  : 		{
; 622  : 			int iAniID = 0;
; 623  : 			iAniID = pGrp->GetAnimationIdx(m_SkillMotionFr);

  003ff	8d 86 c0 11 00
	00		 lea	 eax, DWORD PTR [esi+4544]
  00405	50		 push	 eax
  00406	8b cb		 mov	 ecx, ebx
  00408	ff d7		 call	 edi
  0040a	8b c8		 mov	 ecx, eax

; 624  : 			pGrp->ClearLoopAni( iAniID, FLOAT100, true );

  0040c	b8 64 00 00 00	 mov	 eax, 100		; 00000064H
  00411	89 45 08	 mov	 DWORD PTR tv348[ebp], eax
  00414	db 45 08	 fild	 DWORD PTR tv348[ebp]
  00417	6a 01		 push	 1
  00419	85 c0		 test	 eax, eax
  0041b	79 06		 jns	 SHORT $LN87@CheckMoveA
  0041d	d8 05 00 00 00
	00		 fadd	 DWORD PTR __real@4f800000
$LN87@CheckMoveA:
  00423	51		 push	 ecx
  00424	d9 1c 24	 fstp	 DWORD PTR [esp]
  00427	51		 push	 ecx
  00428	8b cb		 mov	 ecx, ebx
  0042a	8b 1d 00 00 00
	00		 mov	 ebx, DWORD PTR __imp_?ClearLoopAni@ioEntityGroup@@QAE_NHM_N@Z
  00430	ff d3		 call	 ebx

; 625  : 			iAniID = pGrp->GetAnimationIdx(m_SkillMotionBk);

  00432	8b 4d fc	 mov	 ecx, DWORD PTR _pGrp$[ebp]
  00435	8d 86 d0 11 00
	00		 lea	 eax, DWORD PTR [esi+4560]
  0043b	50		 push	 eax
  0043c	ff d7		 call	 edi
  0043e	8b c8		 mov	 ecx, eax

; 626  : 			pGrp->ClearLoopAni( iAniID, FLOAT100, true );

  00440	b8 64 00 00 00	 mov	 eax, 100		; 00000064H
  00445	89 45 08	 mov	 DWORD PTR tv338[ebp], eax
  00448	db 45 08	 fild	 DWORD PTR tv338[ebp]
  0044b	6a 01		 push	 1
  0044d	85 c0		 test	 eax, eax
  0044f	79 06		 jns	 SHORT $LN88@CheckMoveA
  00451	d8 05 00 00 00
	00		 fadd	 DWORD PTR __real@4f800000
$LN88@CheckMoveA:
  00457	51		 push	 ecx
  00458	d9 1c 24	 fstp	 DWORD PTR [esp]
  0045b	51		 push	 ecx
  0045c	8b 4d fc	 mov	 ecx, DWORD PTR _pGrp$[ebp]
  0045f	ff d3		 call	 ebx

; 627  : 			iAniID = pGrp->GetAnimationIdx(m_SkillMotionLt);

  00461	8b 4d fc	 mov	 ecx, DWORD PTR _pGrp$[ebp]
  00464	8d 86 e0 11 00
	00		 lea	 eax, DWORD PTR [esi+4576]
  0046a	50		 push	 eax
  0046b	ff d7		 call	 edi
  0046d	8b c8		 mov	 ecx, eax

; 628  : 			pGrp->ClearLoopAni( iAniID, FLOAT100, true );

  0046f	b8 64 00 00 00	 mov	 eax, 100		; 00000064H
  00474	89 45 08	 mov	 DWORD PTR tv305[ebp], eax
  00477	db 45 08	 fild	 DWORD PTR tv305[ebp]
  0047a	6a 01		 push	 1
  0047c	85 c0		 test	 eax, eax
  0047e	79 06		 jns	 SHORT $LN89@CheckMoveA
  00480	d8 05 00 00 00
	00		 fadd	 DWORD PTR __real@4f800000
$LN89@CheckMoveA:
  00486	51		 push	 ecx
  00487	d9 1c 24	 fstp	 DWORD PTR [esp]
  0048a	51		 push	 ecx
  0048b	8b 4d fc	 mov	 ecx, DWORD PTR _pGrp$[ebp]
  0048e	ff d3		 call	 ebx

; 629  : 			iAniID = pGrp->GetAnimationIdx(m_SkillMotionRt);

  00490	8b 4d fc	 mov	 ecx, DWORD PTR _pGrp$[ebp]
  00493	8d 86 f0 11 00
	00		 lea	 eax, DWORD PTR [esi+4592]
  00499	50		 push	 eax
  0049a	ff d7		 call	 edi
  0049c	8b c8		 mov	 ecx, eax

; 630  : 			pGrp->ClearLoopAni( iAniID, FLOAT100, true );

  0049e	b8 64 00 00 00	 mov	 eax, 100		; 00000064H
  004a3	89 45 08	 mov	 DWORD PTR tv277[ebp], eax
  004a6	db 45 08	 fild	 DWORD PTR tv277[ebp]
  004a9	6a 01		 push	 1
  004ab	85 c0		 test	 eax, eax
  004ad	79 06		 jns	 SHORT $LN90@CheckMoveA
  004af	d8 05 00 00 00
	00		 fadd	 DWORD PTR __real@4f800000
$LN90@CheckMoveA:
  004b5	51		 push	 ecx
  004b6	d9 1c 24	 fstp	 DWORD PTR [esp]
  004b9	51		 push	 ecx
  004ba	8b 4d fc	 mov	 ecx, DWORD PTR _pGrp$[ebp]
  004bd	ff d3		 call	 ebx

; 631  : 
; 632  : 			m_bMotionSetted = true;

  004bf	c6 86 40 12 00
	00 01		 mov	 BYTE PTR [esi+4672], 1
$LN66@CheckMoveA:
  004c6	5b		 pop	 ebx
$LN1@CheckMoveA:
  004c7	5f		 pop	 edi
  004c8	5e		 pop	 esi

; 633  : 		}
; 634  : 	}
; 635  : }

  004c9	c9		 leave
  004ca	c2 04 00	 ret	 4
?CheckMoveAniState@ioConsecution2Skill@@IAEXPAVioBaseChar@@@Z ENDP ; ioConsecution2Skill::CheckMoveAniState
_TEXT	ENDS
PUBLIC	__$ArrayPad$
PUBLIC	?ApplyAttributeToWeapon@ioConsecution2Skill@@UAEXPAVioWeapon@@PAVioPlayStage@@@Z ; ioConsecution2Skill::ApplyAttributeToWeapon
EXTRN	__imp_??D@YA?AUD3DXVECTOR3@@ABUD3DXQUATERNION@@ABU0@@Z:PROC
EXTRN	?GetOwner@ioWeapon@@QBEPAVioBaseChar@@XZ:PROC	; ioWeapon::GetOwner
EXTRN	?ApplyAttributeToWeapon@ioSkill@@UAEXPAVioWeapon@@PAVioPlayStage@@@Z:PROC ; ioSkill::ApplyAttributeToWeapon
; Function compile flags: /Ogsp
;	COMDAT ?ApplyAttributeToWeapon@ioConsecution2Skill@@UAEXPAVioWeapon@@PAVioPlayStage@@@Z
_TEXT	SEGMENT
tv172 = -32						; size = 4
_vAttDir$532219 = -28					; size = 12
$T532221 = -16						; size = 12
__$ArrayPad$ = -4					; size = 4
_pWeapon$ = 8						; size = 4
_pStage$ = 12						; size = 4
?ApplyAttributeToWeapon@ioConsecution2Skill@@UAEXPAVioWeapon@@PAVioPlayStage@@@Z PROC ; ioConsecution2Skill::ApplyAttributeToWeapon, COMDAT
; _this$ = ecx

; 638  : {

  00000	55		 push	 ebp
  00001	8b ec		 mov	 ebp, esp
  00003	83 ec 20	 sub	 esp, 32			; 00000020H
  00006	a1 00 00 00 00	 mov	 eax, DWORD PTR ___security_cookie
  0000b	33 c5		 xor	 eax, ebp
  0000d	89 45 fc	 mov	 DWORD PTR __$ArrayPad$[ebp], eax
  00010	8b 45 0c	 mov	 eax, DWORD PTR _pStage$[ebp]
  00013	56		 push	 esi
  00014	8b 75 08	 mov	 esi, DWORD PTR _pWeapon$[ebp]

; 639  : 	if( !pWeapon ) return;

  00017	85 f6		 test	 esi, esi
  00019	74 61		 je	 SHORT $LN1@ApplyAttri

; 640  : 
; 641  : 	ioSkill::ApplyAttributeToWeapon( pWeapon, pStage );

  0001b	50		 push	 eax
  0001c	56		 push	 esi
  0001d	e8 00 00 00 00	 call	 ?ApplyAttributeToWeapon@ioSkill@@UAEXPAVioWeapon@@PAVioPlayStage@@@Z ; ioSkill::ApplyAttributeToWeapon

; 642  : 
; 643  : 	ioBaseChar *pOwner = pWeapon->GetOwner();

  00022	8b ce		 mov	 ecx, esi
  00024	e8 00 00 00 00	 call	 ?GetOwner@ioWeapon@@QBEPAVioBaseChar@@XZ ; ioWeapon::GetOwner
  00029	8b c8		 mov	 ecx, eax

; 644  : 	if( pOwner )

  0002b	85 c9		 test	 ecx, ecx
  0002d	74 4d		 je	 SHORT $LN1@ApplyAttri

; 645  : 	{
; 646  : 		D3DXVECTOR3 vAttDir =  pOwner->GetTargetRot() * D3DXVECTOR3(0.0f, 0.0f, -FLOAT1);

  0002f	b8 01 00 00 00	 mov	 eax, 1
  00034	0f 57 c0	 xorps	 xmm0, xmm0
  00037	89 45 e0	 mov	 DWORD PTR tv172[ebp], eax
  0003a	db 45 e0	 fild	 DWORD PTR tv172[ebp]
  0003d	f3 0f 11 45 f0	 movss	 DWORD PTR $T532221[ebp], xmm0
  00042	f3 0f 11 45 f4	 movss	 DWORD PTR $T532221[ebp+4], xmm0
  00047	85 c0		 test	 eax, eax
  00049	79 06		 jns	 SHORT $LN11@ApplyAttri
  0004b	d8 05 00 00 00
	00		 fadd	 DWORD PTR __real@4f800000
$LN11@ApplyAttri:
  00051	8d 45 f0	 lea	 eax, DWORD PTR $T532221[ebp]
  00054	d9 e0		 fchs
  00056	50		 push	 eax
  00057	d9 5d f8	 fstp	 DWORD PTR $T532221[ebp+8]
  0005a	81 c1 a4 06 00
	00		 add	 ecx, 1700		; 000006a4H
  00060	51		 push	 ecx
  00061	8d 45 e4	 lea	 eax, DWORD PTR _vAttDir$532219[ebp]
  00064	50		 push	 eax
  00065	ff 15 00 00 00
	00		 call	 DWORD PTR __imp_??D@YA?AUD3DXVECTOR3@@ABUD3DXQUATERNION@@ABU0@@Z

; 647  : 		pWeapon->SetMoveDir( vAttDir );

  0006b	8b 06		 mov	 eax, DWORD PTR [esi]
  0006d	83 c4 0c	 add	 esp, 12			; 0000000cH
  00070	8d 4d e4	 lea	 ecx, DWORD PTR _vAttDir$532219[ebp]
  00073	51		 push	 ecx
  00074	8b ce		 mov	 ecx, esi
  00076	ff 90 b0 00 00
	00		 call	 DWORD PTR [eax+176]
$LN1@ApplyAttri:

; 648  : 	}
; 649  : }

  0007c	8b 4d fc	 mov	 ecx, DWORD PTR __$ArrayPad$[ebp]
  0007f	33 cd		 xor	 ecx, ebp
  00081	5e		 pop	 esi
  00082	e8 00 00 00 00	 call	 @__security_check_cookie@4
  00087	c9		 leave
  00088	c2 08 00	 ret	 8
?ApplyAttributeToWeapon@ioConsecution2Skill@@UAEXPAVioWeapon@@PAVioPlayStage@@@Z ENDP ; ioConsecution2Skill::ApplyAttributeToWeapon
_TEXT	ENDS
PUBLIC	?begin@?$vector@UWeaponFireInfo@@V?$allocator@UWeaponFireInfo@@@std@@@std@@QAE?AV?$_Vector_iterator@V?$_Vector_val@UWeaponFireInfo@@V?$allocator@UWeaponFireInfo@@@std@@@std@@@2@XZ ; std::vector<WeaponFireInfo,std::allocator<WeaponFireInfo> >::begin
; Function compile flags: /Ogsp
; File c:\program files (x86)\microsoft visual studio 10.0\vc\include\vector
;	COMDAT ?begin@?$vector@UWeaponFireInfo@@V?$allocator@UWeaponFireInfo@@@std@@@std@@QAE?AV?$_Vector_iterator@V?$_Vector_val@UWeaponFireInfo@@V?$allocator@UWeaponFireInfo@@@std@@@std@@@2@XZ
_TEXT	SEGMENT
___$ReturnUdt$ = 8					; size = 4
?begin@?$vector@UWeaponFireInfo@@V?$allocator@UWeaponFireInfo@@@std@@@std@@QAE?AV?$_Vector_iterator@V?$_Vector_val@UWeaponFireInfo@@V?$allocator@UWeaponFireInfo@@@std@@@std@@@2@XZ PROC ; std::vector<WeaponFireInfo,std::allocator<WeaponFireInfo> >::begin, COMDAT
; _this$ = ecx

; 781  : 		{	// return iterator for beginning of mutable sequence

  00000	55		 push	 ebp
  00001	8b ec		 mov	 ebp, esp

; 782  : 		return (iterator(this->_Myfirst, this));

  00003	8b 09		 mov	 ecx, DWORD PTR [ecx]
  00005	8b 45 08	 mov	 eax, DWORD PTR ___$ReturnUdt$[ebp]
  00008	89 08		 mov	 DWORD PTR [eax], ecx

; 783  : 		}

  0000a	5d		 pop	 ebp
  0000b	c2 04 00	 ret	 4
?begin@?$vector@UWeaponFireInfo@@V?$allocator@UWeaponFireInfo@@@std@@@std@@QAE?AV?$_Vector_iterator@V?$_Vector_val@UWeaponFireInfo@@V?$allocator@UWeaponFireInfo@@@std@@@std@@@2@XZ ENDP ; std::vector<WeaponFireInfo,std::allocator<WeaponFireInfo> >::begin
_TEXT	ENDS
PUBLIC	?begin@?$vector@UWeaponFireInfo@@V?$allocator@UWeaponFireInfo@@@std@@@std@@QBE?AV?$_Vector_const_iterator@V?$_Vector_val@UWeaponFireInfo@@V?$allocator@UWeaponFireInfo@@@std@@@std@@@2@XZ ; std::vector<WeaponFireInfo,std::allocator<WeaponFireInfo> >::begin
; Function compile flags: /Ogsp
;	COMDAT ?begin@?$vector@UWeaponFireInfo@@V?$allocator@UWeaponFireInfo@@@std@@@std@@QBE?AV?$_Vector_const_iterator@V?$_Vector_val@UWeaponFireInfo@@V?$allocator@UWeaponFireInfo@@@std@@@std@@@2@XZ
_TEXT	SEGMENT
___$ReturnUdt$ = 8					; size = 4
?begin@?$vector@UWeaponFireInfo@@V?$allocator@UWeaponFireInfo@@@std@@@std@@QBE?AV?$_Vector_const_iterator@V?$_Vector_val@UWeaponFireInfo@@V?$allocator@UWeaponFireInfo@@@std@@@std@@@2@XZ PROC ; std::vector<WeaponFireInfo,std::allocator<WeaponFireInfo> >::begin, COMDAT
; _this$ = ecx

; 786  : 		{	// return iterator for beginning of nonmutable sequence

  00000	55		 push	 ebp
  00001	8b ec		 mov	 ebp, esp

; 787  : 		return (const_iterator(this->_Myfirst, this));

  00003	8b 09		 mov	 ecx, DWORD PTR [ecx]
  00005	8b 45 08	 mov	 eax, DWORD PTR ___$ReturnUdt$[ebp]
  00008	89 08		 mov	 DWORD PTR [eax], ecx

; 788  : 		}

  0000a	5d		 pop	 ebp
  0000b	c2 04 00	 ret	 4
?begin@?$vector@UWeaponFireInfo@@V?$allocator@UWeaponFireInfo@@@std@@@std@@QBE?AV?$_Vector_const_iterator@V?$_Vector_val@UWeaponFireInfo@@V?$allocator@UWeaponFireInfo@@@std@@@std@@@2@XZ ENDP ; std::vector<WeaponFireInfo,std::allocator<WeaponFireInfo> >::begin
_TEXT	ENDS
PUBLIC	?end@?$vector@UWeaponFireInfo@@V?$allocator@UWeaponFireInfo@@@std@@@std@@QAE?AV?$_Vector_iterator@V?$_Vector_val@UWeaponFireInfo@@V?$allocator@UWeaponFireInfo@@@std@@@std@@@2@XZ ; std::vector<WeaponFireInfo,std::allocator<WeaponFireInfo> >::end
; Function compile flags: /Ogsp
;	COMDAT ?end@?$vector@UWeaponFireInfo@@V?$allocator@UWeaponFireInfo@@@std@@@std@@QAE?AV?$_Vector_iterator@V?$_Vector_val@UWeaponFireInfo@@V?$allocator@UWeaponFireInfo@@@std@@@std@@@2@XZ
_TEXT	SEGMENT
___$ReturnUdt$ = 8					; size = 4
?end@?$vector@UWeaponFireInfo@@V?$allocator@UWeaponFireInfo@@@std@@@std@@QAE?AV?$_Vector_iterator@V?$_Vector_val@UWeaponFireInfo@@V?$allocator@UWeaponFireInfo@@@std@@@std@@@2@XZ PROC ; std::vector<WeaponFireInfo,std::allocator<WeaponFireInfo> >::end, COMDAT
; _this$ = ecx

; 791  : 		{	// return iterator for end of mutable sequence

  00000	55		 push	 ebp
  00001	8b ec		 mov	 ebp, esp

; 792  : 		return (iterator(this->_Mylast, this));

  00003	8b 49 04	 mov	 ecx, DWORD PTR [ecx+4]
  00006	8b 45 08	 mov	 eax, DWORD PTR ___$ReturnUdt$[ebp]
  00009	89 08		 mov	 DWORD PTR [eax], ecx

; 793  : 		}

  0000b	5d		 pop	 ebp
  0000c	c2 04 00	 ret	 4
?end@?$vector@UWeaponFireInfo@@V?$allocator@UWeaponFireInfo@@@std@@@std@@QAE?AV?$_Vector_iterator@V?$_Vector_val@UWeaponFireInfo@@V?$allocator@UWeaponFireInfo@@@std@@@std@@@2@XZ ENDP ; std::vector<WeaponFireInfo,std::allocator<WeaponFireInfo> >::end
_TEXT	ENDS
PUBLIC	?end@?$vector@UWeaponFireInfo@@V?$allocator@UWeaponFireInfo@@@std@@@std@@QBE?AV?$_Vector_const_iterator@V?$_Vector_val@UWeaponFireInfo@@V?$allocator@UWeaponFireInfo@@@std@@@std@@@2@XZ ; std::vector<WeaponFireInfo,std::allocator<WeaponFireInfo> >::end
; Function compile flags: /Ogsp
;	COMDAT ?end@?$vector@UWeaponFireInfo@@V?$allocator@UWeaponFireInfo@@@std@@@std@@QBE?AV?$_Vector_const_iterator@V?$_Vector_val@UWeaponFireInfo@@V?$allocator@UWeaponFireInfo@@@std@@@std@@@2@XZ
_TEXT	SEGMENT
___$ReturnUdt$ = 8					; size = 4
?end@?$vector@UWeaponFireInfo@@V?$allocator@UWeaponFireInfo@@@std@@@std@@QBE?AV?$_Vector_const_iterator@V?$_Vector_val@UWeaponFireInfo@@V?$allocator@UWeaponFireInfo@@@std@@@std@@@2@XZ PROC ; std::vector<WeaponFireInfo,std::allocator<WeaponFireInfo> >::end, COMDAT
; _this$ = ecx

; 796  : 		{	// return iterator for end of nonmutable sequence

  00000	55		 push	 ebp
  00001	8b ec		 mov	 ebp, esp

; 797  : 		return (const_iterator(this->_Mylast, this));

  00003	8b 49 04	 mov	 ecx, DWORD PTR [ecx+4]
  00006	8b 45 08	 mov	 eax, DWORD PTR ___$ReturnUdt$[ebp]
  00009	89 08		 mov	 DWORD PTR [eax], ecx

; 798  : 		}

  0000b	5d		 pop	 ebp
  0000c	c2 04 00	 ret	 4
?end@?$vector@UWeaponFireInfo@@V?$allocator@UWeaponFireInfo@@@std@@@std@@QBE?AV?$_Vector_const_iterator@V?$_Vector_val@UWeaponFireInfo@@V?$allocator@UWeaponFireInfo@@@std@@@std@@@2@XZ ENDP ; std::vector<WeaponFireInfo,std::allocator<WeaponFireInfo> >::end
_TEXT	ENDS
PUBLIC	?max_size@?$vector@UWeaponFireInfo@@V?$allocator@UWeaponFireInfo@@@std@@@std@@QBEIXZ ; std::vector<WeaponFireInfo,std::allocator<WeaponFireInfo> >::max_size
; Function compile flags: /Ogsp
;	COMDAT ?max_size@?$vector@UWeaponFireInfo@@V?$allocator@UWeaponFireInfo@@@std@@@std@@QBEIXZ
_TEXT	SEGMENT
?max_size@?$vector@UWeaponFireInfo@@V?$allocator@UWeaponFireInfo@@@std@@@std@@QBEIXZ PROC ; std::vector<WeaponFireInfo,std::allocator<WeaponFireInfo> >::max_size, COMDAT
; _this$ = ecx

; 884  : 		return (this->_Alval.max_size());

  00000	b8 55 55 55 05	 mov	 eax, 89478485		; 05555555H

; 885  : 		}

  00005	c3		 ret	 0
?max_size@?$vector@UWeaponFireInfo@@V?$allocator@UWeaponFireInfo@@@std@@@std@@QBEIXZ ENDP ; std::vector<WeaponFireInfo,std::allocator<WeaponFireInfo> >::max_size
_TEXT	ENDS
PUBLIC	??0?$_Vector_val@UWeaponFireInfo@@V?$allocator@UWeaponFireInfo@@@std@@@std@@QAE@V?$allocator@UWeaponFireInfo@@@1@@Z ; std::_Vector_val<WeaponFireInfo,std::allocator<WeaponFireInfo> >::_Vector_val<WeaponFireInfo,std::allocator<WeaponFireInfo> >
; Function compile flags: /Ogsp
;	COMDAT ??0?$_Vector_val@UWeaponFireInfo@@V?$allocator@UWeaponFireInfo@@@std@@@std@@QAE@V?$allocator@UWeaponFireInfo@@@1@@Z
_TEXT	SEGMENT
__Al$ = 8						; size = 1
??0?$_Vector_val@UWeaponFireInfo@@V?$allocator@UWeaponFireInfo@@@std@@@std@@QAE@V?$allocator@UWeaponFireInfo@@@1@@Z PROC ; std::_Vector_val<WeaponFireInfo,std::allocator<WeaponFireInfo> >::_Vector_val<WeaponFireInfo,std::allocator<WeaponFireInfo> >, COMDAT
; _this$ = ecx

; 426  : 		{	// construct allocator from _Al

  00000	8b c1		 mov	 eax, ecx

; 427  : 		_Myfirst = 0;

  00002	33 c9		 xor	 ecx, ecx
  00004	89 08		 mov	 DWORD PTR [eax], ecx

; 428  : 		_Mylast = 0;

  00006	89 48 04	 mov	 DWORD PTR [eax+4], ecx

; 429  : 		_Myend = 0;

  00009	89 48 08	 mov	 DWORD PTR [eax+8], ecx

; 430  : 		}

  0000c	c2 04 00	 ret	 4
??0?$_Vector_val@UWeaponFireInfo@@V?$allocator@UWeaponFireInfo@@@std@@@std@@QAE@V?$allocator@UWeaponFireInfo@@@1@@Z ENDP ; std::_Vector_val<WeaponFireInfo,std::allocator<WeaponFireInfo> >::_Vector_val<WeaponFireInfo,std::allocator<WeaponFireInfo> >
_TEXT	ENDS
PUBLIC	?allocate@?$allocator@UWeaponFireInfo@@@std@@QAEPAUWeaponFireInfo@@I@Z ; std::allocator<WeaponFireInfo>::allocate
; Function compile flags: /Ogsp
; File c:\program files (x86)\microsoft visual studio 10.0\vc\include\xmemory
;	COMDAT ?allocate@?$allocator@UWeaponFireInfo@@@std@@QAEPAUWeaponFireInfo@@I@Z
_TEXT	SEGMENT
__Count$ = 8						; size = 4
?allocate@?$allocator@UWeaponFireInfo@@@std@@QAEPAUWeaponFireInfo@@I@Z PROC ; std::allocator<WeaponFireInfo>::allocate, COMDAT
; _this$ = ecx

; 186  : 		{	// allocate array of _Count elements

  00000	55		 push	 ebp
  00001	8b ec		 mov	 ebp, esp

; 187  : 		return (_Allocate(_Count, (pointer)0));

  00003	6a 00		 push	 0
  00005	ff 75 08	 push	 DWORD PTR __Count$[ebp]
  00008	e8 00 00 00 00	 call	 ??$_Allocate@UWeaponFireInfo@@@std@@YAPAUWeaponFireInfo@@IPAU1@@Z ; std::_Allocate<WeaponFireInfo>
  0000d	59		 pop	 ecx
  0000e	59		 pop	 ecx

; 188  : 		}

  0000f	5d		 pop	 ebp
  00010	c2 04 00	 ret	 4
?allocate@?$allocator@UWeaponFireInfo@@@std@@QAEPAUWeaponFireInfo@@I@Z ENDP ; std::allocator<WeaponFireInfo>::allocate
_TEXT	ENDS
PUBLIC	?_Make_iter@?$vector@UWeaponFireInfo@@V?$allocator@UWeaponFireInfo@@@std@@@std@@QBE?AV?$_Vector_iterator@V?$_Vector_val@UWeaponFireInfo@@V?$allocator@UWeaponFireInfo@@@std@@@std@@@2@V?$_Vector_const_iterator@V?$_Vector_val@UWeaponFireInfo@@V?$allocator@UWeaponFireInfo@@@std@@@std@@@2@@Z ; std::vector<WeaponFireInfo,std::allocator<WeaponFireInfo> >::_Make_iter
; Function compile flags: /Ogsp
; File c:\program files (x86)\microsoft visual studio 10.0\vc\include\vector
;	COMDAT ?_Make_iter@?$vector@UWeaponFireInfo@@V?$allocator@UWeaponFireInfo@@@std@@@std@@QBE?AV?$_Vector_iterator@V?$_Vector_val@UWeaponFireInfo@@V?$allocator@UWeaponFireInfo@@@std@@@std@@@2@V?$_Vector_const_iterator@V?$_Vector_val@UWeaponFireInfo@@V?$allocator@UWeaponFireInfo@@@std@@@std@@@2@@Z
_TEXT	SEGMENT
___$ReturnUdt$ = 8					; size = 4
__Where$ = 12						; size = 4
?_Make_iter@?$vector@UWeaponFireInfo@@V?$allocator@UWeaponFireInfo@@@std@@@std@@QBE?AV?$_Vector_iterator@V?$_Vector_val@UWeaponFireInfo@@V?$allocator@UWeaponFireInfo@@@std@@@std@@@2@V?$_Vector_const_iterator@V?$_Vector_val@UWeaponFireInfo@@V?$allocator@UWeaponFireInfo@@@std@@@std@@@2@@Z PROC ; std::vector<WeaponFireInfo,std::allocator<WeaponFireInfo> >::_Make_iter, COMDAT
; _this$ = ecx

; 801  : 		{	// make iterator from const_iterator

  00000	55		 push	 ebp
  00001	8b ec		 mov	 ebp, esp

; 802  : 		return (iterator(_Where._Ptr, this));

  00003	8b 45 08	 mov	 eax, DWORD PTR ___$ReturnUdt$[ebp]
  00006	8b 4d 0c	 mov	 ecx, DWORD PTR __Where$[ebp]
  00009	89 08		 mov	 DWORD PTR [eax], ecx

; 803  : 		}

  0000b	5d		 pop	 ebp
  0000c	c2 08 00	 ret	 8
?_Make_iter@?$vector@UWeaponFireInfo@@V?$allocator@UWeaponFireInfo@@@std@@@std@@QBE?AV?$_Vector_iterator@V?$_Vector_val@UWeaponFireInfo@@V?$allocator@UWeaponFireInfo@@@std@@@std@@@2@V?$_Vector_const_iterator@V?$_Vector_val@UWeaponFireInfo@@V?$allocator@UWeaponFireInfo@@@std@@@std@@@2@@Z ENDP ; std::vector<WeaponFireInfo,std::allocator<WeaponFireInfo> >::_Make_iter
_TEXT	ENDS
PUBLIC	?_Grow_to@?$vector@UWeaponFireInfo@@V?$allocator@UWeaponFireInfo@@@std@@@std@@IBEII@Z ; std::vector<WeaponFireInfo,std::allocator<WeaponFireInfo> >::_Grow_to
; Function compile flags: /Ogsp
;	COMDAT ?_Grow_to@?$vector@UWeaponFireInfo@@V?$allocator@UWeaponFireInfo@@@std@@@std@@IBEII@Z
_TEXT	SEGMENT
__Count$ = 8						; size = 4
?_Grow_to@?$vector@UWeaponFireInfo@@V?$allocator@UWeaponFireInfo@@@std@@@std@@IBEII@Z PROC ; std::vector<WeaponFireInfo,std::allocator<WeaponFireInfo> >::_Grow_to, COMDAT
; _this$ = ecx

; 1274 : 		{	// grow by 50% or at least to _Count

  00000	55		 push	 ebp
  00001	8b ec		 mov	 ebp, esp

; 1275 : 		size_type _Capacity = capacity();

  00003	8b 41 08	 mov	 eax, DWORD PTR [ecx+8]
  00006	2b 01		 sub	 eax, DWORD PTR [ecx]
  00008	6a 30		 push	 48			; 00000030H
  0000a	99		 cdq
  0000b	59		 pop	 ecx
  0000c	f7 f9		 idiv	 ecx

; 1276 : 
; 1277 : 		_Capacity = max_size() - _Capacity / 2 < _Capacity
; 1278 : 			? 0 : _Capacity + _Capacity / 2;	// try to grow by 50%

  0000e	ba 55 55 55 05	 mov	 edx, 89478485		; 05555555H
  00013	8b c8		 mov	 ecx, eax
  00015	d1 e9		 shr	 ecx, 1
  00017	2b d1		 sub	 edx, ecx
  00019	3b d0		 cmp	 edx, eax
  0001b	73 04		 jae	 SHORT $LN4@Grow_to
  0001d	33 c0		 xor	 eax, eax
  0001f	eb 02		 jmp	 SHORT $LN5@Grow_to
$LN4@Grow_to:
  00021	03 c1		 add	 eax, ecx
$LN5@Grow_to:

; 1279 : 		if (_Capacity < _Count)

  00023	3b 45 08	 cmp	 eax, DWORD PTR __Count$[ebp]

; 1280 : 			_Capacity = _Count;

  00026	0f 42 45 08	 cmovb	 eax, DWORD PTR __Count$[ebp]

; 1281 : 		return (_Capacity);
; 1282 : 		}

  0002a	5d		 pop	 ebp
  0002b	c2 04 00	 ret	 4
?_Grow_to@?$vector@UWeaponFireInfo@@V?$allocator@UWeaponFireInfo@@@std@@@std@@IBEII@Z ENDP ; std::vector<WeaponFireInfo,std::allocator<WeaponFireInfo> >::_Grow_to
_TEXT	ENDS
PUBLIC	??8?$_Vector_const_iterator@V?$_Vector_val@UWeaponFireInfo@@V?$allocator@UWeaponFireInfo@@@std@@@std@@@std@@QBE_NABV01@@Z ; std::_Vector_const_iterator<std::_Vector_val<WeaponFireInfo,std::allocator<WeaponFireInfo> > >::operator==
; Function compile flags: /Ogsp
;	COMDAT ??8?$_Vector_const_iterator@V?$_Vector_val@UWeaponFireInfo@@V?$allocator@UWeaponFireInfo@@@std@@@std@@@std@@QBE_NABV01@@Z
_TEXT	SEGMENT
__Right$ = 8						; size = 4
??8?$_Vector_const_iterator@V?$_Vector_val@UWeaponFireInfo@@V?$allocator@UWeaponFireInfo@@@std@@@std@@@std@@QBE_NABV01@@Z PROC ; std::_Vector_const_iterator<std::_Vector_val<WeaponFireInfo,std::allocator<WeaponFireInfo> > >::operator==, COMDAT
; _this$ = ecx

; 201  : 		{	// test for iterator equality

  00000	55		 push	 ebp
  00001	8b ec		 mov	 ebp, esp

; 202  : 		_Compat(_Right);
; 203  : 		return (this->_Ptr == _Right._Ptr);

  00003	8b 01		 mov	 eax, DWORD PTR [ecx]
  00005	8b 4d 08	 mov	 ecx, DWORD PTR __Right$[ebp]
  00008	2b 01		 sub	 eax, DWORD PTR [ecx]
  0000a	f7 d8		 neg	 eax
  0000c	1b c0		 sbb	 eax, eax
  0000e	40		 inc	 eax

; 204  : 		}

  0000f	5d		 pop	 ebp
  00010	c2 04 00	 ret	 4
??8?$_Vector_const_iterator@V?$_Vector_val@UWeaponFireInfo@@V?$allocator@UWeaponFireInfo@@@std@@@std@@@std@@QBE_NABV01@@Z ENDP ; std::_Vector_const_iterator<std::_Vector_val<WeaponFireInfo,std::allocator<WeaponFireInfo> > >::operator==
_TEXT	ENDS
PUBLIC	_this$GSCopy$
PUBLIC	__$ArrayPad$
PUBLIC	??$LoadString_e@$0O@@ioINILoader@@QAEXAAY0O@$$CBDAAY00$$CBDPADH@Z ; ioINILoader::LoadString_e<14>
EXTRN	__imp_?LoadStringA@ioINILoader@@QAEXPBD0PADH@Z:PROC
; Function compile flags: /Ogsp
; File d:\lost saga for developer\youtube\tutorial\source\src\io3dengine\ioiniloader.h
;	COMDAT ??$LoadString_e@$0O@@ioINILoader@@QAEXAAY0O@$$CBDAAY00$$CBDPADH@Z
_TEXT	SEGMENT
_this$GSCopy$ = -28					; size = 4
__k$ = -24						; size = 14
__$ArrayPad$ = -4					; size = 4
_k$ = 8							; size = 4
_d$ = 12						; size = 4
_b$ = 16						; size = 4
_i$ = 20						; size = 4
??$LoadString_e@$0O@@ioINILoader@@QAEXAAY0O@$$CBDAAY00$$CBDPADH@Z PROC ; ioINILoader::LoadString_e<14>, COMDAT
; _this$ = ecx

; 161  : 	{

  00000	55		 push	 ebp
  00001	8b ec		 mov	 ebp, esp
  00003	83 ec 1c	 sub	 esp, 28			; 0000001cH
  00006	a1 00 00 00 00	 mov	 eax, DWORD PTR ___security_cookie
  0000b	33 c5		 xor	 eax, ebp
  0000d	89 45 fc	 mov	 DWORD PTR __$ArrayPad$[ebp], eax
  00010	8b 45 08	 mov	 eax, DWORD PTR _k$[ebp]

; 162  : 		_ENCSTR(k, _k);

  00013	8a 10		 mov	 dl, BYTE PTR [eax]
  00015	56		 push	 esi
  00016	8b 75 0c	 mov	 esi, DWORD PTR _d$[ebp]
  00019	57		 push	 edi
  0001a	8b 7d 10	 mov	 edi, DWORD PTR _b$[ebp]
  0001d	89 4d e4	 mov	 DWORD PTR _this$GSCopy$[ebp], ecx
  00020	84 d2		 test	 dl, dl
  00022	0f 84 64 01 00
	00		 je	 $LN96@LoadString
  00028	80 f2 ed	 xor	 dl, -19			; ffffffedH
  0002b	88 55 e8	 mov	 BYTE PTR __k$[ebp], dl
  0002e	8a 50 01	 mov	 dl, BYTE PTR [eax+1]
  00031	84 d2		 test	 dl, dl
  00033	0f 84 4d 01 00
	00		 je	 $LN95@LoadString
  00039	80 f2 ec	 xor	 dl, -20			; ffffffecH
  0003c	88 55 e9	 mov	 BYTE PTR __k$[ebp+1], dl
  0003f	8a 50 02	 mov	 dl, BYTE PTR [eax+2]
  00042	84 d2		 test	 dl, dl
  00044	0f 84 36 01 00
	00		 je	 $LN94@LoadString
  0004a	b1 eb		 mov	 cl, -21			; ffffffebH
  0004c	32 d1		 xor	 dl, cl
  0004e	88 55 ea	 mov	 BYTE PTR __k$[ebp+2], dl
  00051	8a 50 03	 mov	 dl, BYTE PTR [eax+3]
  00054	84 d2		 test	 dl, dl
  00056	0f 84 1e 01 00
	00		 je	 $LN93@LoadString
  0005c	80 f2 ea	 xor	 dl, -22			; ffffffeaH
  0005f	88 55 eb	 mov	 BYTE PTR __k$[ebp+3], dl
  00062	8a 50 04	 mov	 dl, BYTE PTR [eax+4]
  00065	84 d2		 test	 dl, dl
  00067	0f 84 07 01 00
	00		 je	 $LN92@LoadString
  0006d	80 f2 ed	 xor	 dl, -19			; ffffffedH
  00070	88 55 ec	 mov	 BYTE PTR __k$[ebp+4], dl
  00073	8a 50 05	 mov	 dl, BYTE PTR [eax+5]
  00076	84 d2		 test	 dl, dl
  00078	0f 84 f0 00 00
	00		 je	 $LN91@LoadString
  0007e	80 f2 ec	 xor	 dl, -20			; ffffffecH
  00081	88 55 ed	 mov	 BYTE PTR __k$[ebp+5], dl
  00084	8a 50 06	 mov	 dl, BYTE PTR [eax+6]
  00087	84 d2		 test	 dl, dl
  00089	0f 84 da 00 00
	00		 je	 $LN90@LoadString
  0008f	32 d1		 xor	 dl, cl
  00091	88 55 ee	 mov	 BYTE PTR __k$[ebp+6], dl
  00094	8a 50 07	 mov	 dl, BYTE PTR [eax+7]
  00097	84 d2		 test	 dl, dl
  00099	0f 84 c4 00 00
	00		 je	 $LN89@LoadString
  0009f	80 f2 ea	 xor	 dl, -22			; ffffffeaH
  000a2	88 55 ef	 mov	 BYTE PTR __k$[ebp+7], dl
  000a5	8a 50 08	 mov	 dl, BYTE PTR [eax+8]
  000a8	84 d2		 test	 dl, dl
  000aa	0f 84 ad 00 00
	00		 je	 $LN88@LoadString
  000b0	80 f2 ed	 xor	 dl, -19			; ffffffedH
  000b3	88 55 f0	 mov	 BYTE PTR __k$[ebp+8], dl
  000b6	8a 50 09	 mov	 dl, BYTE PTR [eax+9]
  000b9	84 d2		 test	 dl, dl
  000bb	0f 84 96 00 00
	00		 je	 $LN87@LoadString
  000c1	80 f2 ec	 xor	 dl, -20			; ffffffecH
  000c4	88 55 f1	 mov	 BYTE PTR __k$[ebp+9], dl
  000c7	8a 50 0a	 mov	 dl, BYTE PTR [eax+10]
  000ca	84 d2		 test	 dl, dl
  000cc	0f 84 80 00 00
	00		 je	 $LN86@LoadString
  000d2	32 d1		 xor	 dl, cl
  000d4	88 55 f2	 mov	 BYTE PTR __k$[ebp+10], dl
  000d7	8a 50 0b	 mov	 dl, BYTE PTR [eax+11]
  000da	84 d2		 test	 dl, dl
  000dc	74 6e		 je	 SHORT $LN85@LoadString
  000de	80 f2 ea	 xor	 dl, -22			; ffffffeaH
  000e1	88 55 f3	 mov	 BYTE PTR __k$[ebp+11], dl
  000e4	8a 50 0c	 mov	 dl, BYTE PTR [eax+12]
  000e7	84 d2		 test	 dl, dl
  000e9	74 5b		 je	 SHORT $LN84@LoadString
  000eb	80 f2 ed	 xor	 dl, -19			; ffffffedH
  000ee	80 78 0d 00	 cmp	 BYTE PTR [eax+13], 0
  000f2	88 55 f4	 mov	 BYTE PTR __k$[ebp+12], dl
  000f5	0f 84 95 00 00
	00		 je	 $LN111@LoadString
  000fb	8a 50 0e	 mov	 dl, BYTE PTR [eax+14]
  000fe	84 d2		 test	 dl, dl
  00100	74 3f		 je	 SHORT $LN82@LoadString
  00102	32 d1		 xor	 dl, cl
  00104	88 55 f6	 mov	 BYTE PTR __k$[ebp+14], dl
  00107	8a 50 0f	 mov	 dl, BYTE PTR [eax+15]
  0010a	84 d2		 test	 dl, dl
  0010c	74 2d		 je	 SHORT $LN81@LoadString
  0010e	80 f2 ea	 xor	 dl, -22			; ffffffeaH
  00111	88 55 f7	 mov	 BYTE PTR __k$[ebp+15], dl
  00114	8a 50 10	 mov	 dl, BYTE PTR [eax+16]
  00117	84 d2		 test	 dl, dl
  00119	74 1a		 je	 SHORT $LN80@LoadString
  0011b	8a 40 11	 mov	 al, BYTE PTR [eax+17]
  0011e	80 f2 ed	 xor	 dl, -19			; ffffffedH
  00121	88 55 f8	 mov	 BYTE PTR __k$[ebp+16], dl
  00124	84 c0		 test	 al, al
  00126	74 07		 je	 SHORT $LN79@LoadString
  00128	34 ec		 xor	 al, -20			; ffffffecH
  0012a	88 45 f9	 mov	 BYTE PTR __k$[ebp+17], al
  0012d	eb 61		 jmp	 SHORT $LN111@LoadString
$LN79@LoadString:
  0012f	c6 45 f9 ec	 mov	 BYTE PTR __k$[ebp+17], -20 ; ffffffecH
  00133	eb 5b		 jmp	 SHORT $LN111@LoadString
$LN80@LoadString:
  00135	c6 45 f8 ed	 mov	 BYTE PTR __k$[ebp+16], -19 ; ffffffedH
  00139	eb 55		 jmp	 SHORT $LN111@LoadString
$LN81@LoadString:
  0013b	c6 45 f7 ea	 mov	 BYTE PTR __k$[ebp+15], -22 ; ffffffeaH
  0013f	eb 4f		 jmp	 SHORT $LN111@LoadString
$LN82@LoadString:
  00141	88 4d f6	 mov	 BYTE PTR __k$[ebp+14], cl
  00144	eb 4a		 jmp	 SHORT $LN111@LoadString
$LN84@LoadString:
  00146	c6 45 f4 ed	 mov	 BYTE PTR __k$[ebp+12], -19 ; ffffffedH
  0014a	eb 44		 jmp	 SHORT $LN111@LoadString
$LN85@LoadString:
  0014c	c6 45 f3 ea	 mov	 BYTE PTR __k$[ebp+11], -22 ; ffffffeaH
  00150	eb 3e		 jmp	 SHORT $LN111@LoadString
$LN86@LoadString:
  00152	88 4d f2	 mov	 BYTE PTR __k$[ebp+10], cl
  00155	eb 39		 jmp	 SHORT $LN111@LoadString
$LN87@LoadString:
  00157	c6 45 f1 ec	 mov	 BYTE PTR __k$[ebp+9], -20 ; ffffffecH
  0015b	eb 33		 jmp	 SHORT $LN111@LoadString
$LN88@LoadString:
  0015d	c6 45 f0 ed	 mov	 BYTE PTR __k$[ebp+8], -19 ; ffffffedH
  00161	eb 2d		 jmp	 SHORT $LN111@LoadString
$LN89@LoadString:
  00163	c6 45 ef ea	 mov	 BYTE PTR __k$[ebp+7], -22 ; ffffffeaH
  00167	eb 27		 jmp	 SHORT $LN111@LoadString
$LN90@LoadString:
  00169	88 4d ee	 mov	 BYTE PTR __k$[ebp+6], cl
  0016c	eb 22		 jmp	 SHORT $LN111@LoadString
$LN91@LoadString:
  0016e	c6 45 ed ec	 mov	 BYTE PTR __k$[ebp+5], -20 ; ffffffecH
  00172	eb 1c		 jmp	 SHORT $LN111@LoadString
$LN92@LoadString:
  00174	c6 45 ec ed	 mov	 BYTE PTR __k$[ebp+4], -19 ; ffffffedH
  00178	eb 16		 jmp	 SHORT $LN111@LoadString
$LN93@LoadString:
  0017a	c6 45 eb ea	 mov	 BYTE PTR __k$[ebp+3], -22 ; ffffffeaH
  0017e	eb 10		 jmp	 SHORT $LN111@LoadString
$LN94@LoadString:
  00180	c6 45 ea eb	 mov	 BYTE PTR __k$[ebp+2], -21 ; ffffffebH
  00184	eb 0a		 jmp	 SHORT $LN111@LoadString
$LN95@LoadString:
  00186	c6 45 e9 ec	 mov	 BYTE PTR __k$[ebp+1], -20 ; ffffffecH
  0018a	eb 04		 jmp	 SHORT $LN111@LoadString
$LN96@LoadString:
  0018c	c6 45 e8 ed	 mov	 BYTE PTR __k$[ebp], -19	; ffffffedH
$LN111@LoadString:
  00190	6a 03		 push	 3
  00192	8d 45 e8	 lea	 eax, DWORD PTR __k$[ebp]
  00195	c6 45 f5 00	 mov	 BYTE PTR __k$[ebp+13], 0
  00199	5a		 pop	 edx
$LL104@LoadString:
  0019a	81 30 ed ec eb
	ea		 xor	 DWORD PTR [eax], -353637139 ; eaebecedH
  001a0	83 c0 04	 add	 eax, 4
  001a3	4a		 dec	 edx
  001a4	75 f4		 jne	 SHORT $LL104@LoadString

; 163  : 		LoadString(_k, d, b, i);

  001a6	ff 75 14	 push	 DWORD PTR _i$[ebp]
  001a9	8b 4d e4	 mov	 ecx, DWORD PTR _this$GSCopy$[ebp]
  001ac	80 75 f4 ed	 xor	 BYTE PTR __k$[ebp+12], -19 ; ffffffedH
  001b0	57		 push	 edi
  001b1	56		 push	 esi
  001b2	8d 45 e8	 lea	 eax, DWORD PTR __k$[ebp]
  001b5	50		 push	 eax
  001b6	ff 15 00 00 00
	00		 call	 DWORD PTR __imp_?LoadStringA@ioINILoader@@QAEXPBD0PADH@Z

; 164  : 	}

  001bc	8b 4d fc	 mov	 ecx, DWORD PTR __$ArrayPad$[ebp]
  001bf	5f		 pop	 edi
  001c0	33 cd		 xor	 ecx, ebp
  001c2	5e		 pop	 esi
  001c3	e8 00 00 00 00	 call	 @__security_check_cookie@4
  001c8	c9		 leave
  001c9	c2 10 00	 ret	 16			; 00000010H
??$LoadString_e@$0O@@ioINILoader@@QAEXAAY0O@$$CBDAAY00$$CBDPADH@Z ENDP ; ioINILoader::LoadString_e<14>
_TEXT	ENDS
PUBLIC	_this$GSCopy$
PUBLIC	__$ArrayPad$
PUBLIC	??$LoadString_e@$0BF@@ioINILoader@@QAEXAAY0BF@$$CBDAAY00$$CBDPADH@Z ; ioINILoader::LoadString_e<21>
; Function compile flags: /Ogsp
;	COMDAT ??$LoadString_e@$0BF@@ioINILoader@@QAEXAAY0BF@$$CBDAAY00$$CBDPADH@Z
_TEXT	SEGMENT
_this$GSCopy$ = -36					; size = 4
__k$ = -32						; size = 21
__$ArrayPad$ = -4					; size = 4
_k$ = 8							; size = 4
_d$ = 12						; size = 4
_b$ = 16						; size = 4
_i$ = 20						; size = 4
??$LoadString_e@$0BF@@ioINILoader@@QAEXAAY0BF@$$CBDAAY00$$CBDPADH@Z PROC ; ioINILoader::LoadString_e<21>, COMDAT
; _this$ = ecx

; 161  : 	{

  00000	55		 push	 ebp
  00001	8b ec		 mov	 ebp, esp
  00003	83 ec 24	 sub	 esp, 36			; 00000024H
  00006	a1 00 00 00 00	 mov	 eax, DWORD PTR ___security_cookie
  0000b	33 c5		 xor	 eax, ebp
  0000d	89 45 fc	 mov	 DWORD PTR __$ArrayPad$[ebp], eax
  00010	8b 45 08	 mov	 eax, DWORD PTR _k$[ebp]

; 162  : 		_ENCSTR(k, _k);

  00013	8a 10		 mov	 dl, BYTE PTR [eax]
  00015	53		 push	 ebx
  00016	56		 push	 esi
  00017	8b 75 0c	 mov	 esi, DWORD PTR _d$[ebp]
  0001a	57		 push	 edi
  0001b	8b 7d 10	 mov	 edi, DWORD PTR _b$[ebp]
  0001e	89 4d dc	 mov	 DWORD PTR _this$GSCopy$[ebp], ecx
  00021	84 d2		 test	 dl, dl
  00023	0f 84 f7 01 00
	00		 je	 $LN96@LoadString@2
  00029	80 f2 ed	 xor	 dl, -19			; ffffffedH
  0002c	88 55 e0	 mov	 BYTE PTR __k$[ebp], dl
  0002f	8a 50 01	 mov	 dl, BYTE PTR [eax+1]
  00032	84 d2		 test	 dl, dl
  00034	0f 84 e0 01 00
	00		 je	 $LN95@LoadString@2
  0003a	b1 ec		 mov	 cl, -20			; ffffffecH
  0003c	32 d1		 xor	 dl, cl
  0003e	88 55 e1	 mov	 BYTE PTR __k$[ebp+1], dl
  00041	8a 50 02	 mov	 dl, BYTE PTR [eax+2]
  00044	84 d2		 test	 dl, dl
  00046	0f 84 c8 01 00
	00		 je	 $LN94@LoadString@2
  0004c	b3 eb		 mov	 bl, -21			; ffffffebH
  0004e	32 d3		 xor	 dl, bl
  00050	88 55 e2	 mov	 BYTE PTR __k$[ebp+2], dl
  00053	8a 50 03	 mov	 dl, BYTE PTR [eax+3]
  00056	84 d2		 test	 dl, dl
  00058	0f 84 b0 01 00
	00		 je	 $LN93@LoadString@2
  0005e	80 f2 ea	 xor	 dl, -22			; ffffffeaH
  00061	88 55 e3	 mov	 BYTE PTR __k$[ebp+3], dl
  00064	8a 50 04	 mov	 dl, BYTE PTR [eax+4]
  00067	84 d2		 test	 dl, dl
  00069	0f 84 99 01 00
	00		 je	 $LN92@LoadString@2
  0006f	80 f2 ed	 xor	 dl, -19			; ffffffedH
  00072	88 55 e4	 mov	 BYTE PTR __k$[ebp+4], dl
  00075	8a 50 05	 mov	 dl, BYTE PTR [eax+5]
  00078	84 d2		 test	 dl, dl
  0007a	0f 84 83 01 00
	00		 je	 $LN91@LoadString@2
  00080	32 d1		 xor	 dl, cl
  00082	88 55 e5	 mov	 BYTE PTR __k$[ebp+5], dl
  00085	8a 50 06	 mov	 dl, BYTE PTR [eax+6]
  00088	84 d2		 test	 dl, dl
  0008a	0f 84 6e 01 00
	00		 je	 $LN90@LoadString@2
  00090	32 d3		 xor	 dl, bl
  00092	88 55 e6	 mov	 BYTE PTR __k$[ebp+6], dl
  00095	8a 50 07	 mov	 dl, BYTE PTR [eax+7]
  00098	84 d2		 test	 dl, dl
  0009a	0f 84 58 01 00
	00		 je	 $LN89@LoadString@2
  000a0	80 f2 ea	 xor	 dl, -22			; ffffffeaH
  000a3	88 55 e7	 mov	 BYTE PTR __k$[ebp+7], dl
  000a6	8a 50 08	 mov	 dl, BYTE PTR [eax+8]
  000a9	84 d2		 test	 dl, dl
  000ab	0f 84 41 01 00
	00		 je	 $LN88@LoadString@2
  000b1	80 f2 ed	 xor	 dl, -19			; ffffffedH
  000b4	88 55 e8	 mov	 BYTE PTR __k$[ebp+8], dl
  000b7	8a 50 09	 mov	 dl, BYTE PTR [eax+9]
  000ba	84 d2		 test	 dl, dl
  000bc	0f 84 2b 01 00
	00		 je	 $LN87@LoadString@2
  000c2	32 d1		 xor	 dl, cl
  000c4	88 55 e9	 mov	 BYTE PTR __k$[ebp+9], dl
  000c7	8a 50 0a	 mov	 dl, BYTE PTR [eax+10]
  000ca	84 d2		 test	 dl, dl
  000cc	0f 84 16 01 00
	00		 je	 $LN86@LoadString@2
  000d2	32 d3		 xor	 dl, bl
  000d4	88 55 ea	 mov	 BYTE PTR __k$[ebp+10], dl
  000d7	8a 50 0b	 mov	 dl, BYTE PTR [eax+11]
  000da	84 d2		 test	 dl, dl
  000dc	0f 84 00 01 00
	00		 je	 $LN85@LoadString@2
  000e2	80 f2 ea	 xor	 dl, -22			; ffffffeaH
  000e5	88 55 eb	 mov	 BYTE PTR __k$[ebp+11], dl
  000e8	8a 50 0c	 mov	 dl, BYTE PTR [eax+12]
  000eb	84 d2		 test	 dl, dl
  000ed	0f 84 e9 00 00
	00		 je	 $LN84@LoadString@2
  000f3	80 f2 ed	 xor	 dl, -19			; ffffffedH
  000f6	88 55 ec	 mov	 BYTE PTR __k$[ebp+12], dl
  000f9	8a 50 0d	 mov	 dl, BYTE PTR [eax+13]
  000fc	84 d2		 test	 dl, dl
  000fe	0f 84 d3 00 00
	00		 je	 $LN83@LoadString@2
  00104	32 d1		 xor	 dl, cl
  00106	88 55 ed	 mov	 BYTE PTR __k$[ebp+13], dl
  00109	8a 50 0e	 mov	 dl, BYTE PTR [eax+14]
  0010c	84 d2		 test	 dl, dl
  0010e	0f 84 be 00 00
	00		 je	 $LN82@LoadString@2
  00114	32 d3		 xor	 dl, bl
  00116	88 55 ee	 mov	 BYTE PTR __k$[ebp+14], dl
  00119	8a 50 0f	 mov	 dl, BYTE PTR [eax+15]
  0011c	84 d2		 test	 dl, dl
  0011e	0f 84 a8 00 00
	00		 je	 $LN81@LoadString@2
  00124	80 f2 ea	 xor	 dl, -22			; ffffffeaH
  00127	88 55 ef	 mov	 BYTE PTR __k$[ebp+15], dl
  0012a	8a 50 10	 mov	 dl, BYTE PTR [eax+16]
  0012d	84 d2		 test	 dl, dl
  0012f	0f 84 91 00 00
	00		 je	 $LN80@LoadString@2
  00135	80 f2 ed	 xor	 dl, -19			; ffffffedH
  00138	88 55 f0	 mov	 BYTE PTR __k$[ebp+16], dl
  0013b	8a 50 11	 mov	 dl, BYTE PTR [eax+17]
  0013e	84 d2		 test	 dl, dl
  00140	74 7f		 je	 SHORT $LN79@LoadString@2
  00142	32 d1		 xor	 dl, cl
  00144	88 55 f1	 mov	 BYTE PTR __k$[ebp+17], dl
  00147	8a 50 12	 mov	 dl, BYTE PTR [eax+18]
  0014a	84 d2		 test	 dl, dl
  0014c	74 6e		 je	 SHORT $LN78@LoadString@2
  0014e	32 d3		 xor	 dl, bl
  00150	88 55 f2	 mov	 BYTE PTR __k$[ebp+18], dl
  00153	8a 50 13	 mov	 dl, BYTE PTR [eax+19]
  00156	84 d2		 test	 dl, dl
  00158	74 5c		 je	 SHORT $LN77@LoadString@2
  0015a	80 f2 ea	 xor	 dl, -22			; ffffffeaH
  0015d	80 78 14 00	 cmp	 BYTE PTR [eax+20], 0
  00161	88 55 f3	 mov	 BYTE PTR __k$[ebp+19], dl
  00164	0f 84 ba 00 00
	00		 je	 $LN111@LoadString@2
  0016a	8a 50 15	 mov	 dl, BYTE PTR [eax+21]
  0016d	84 d2		 test	 dl, dl
  0016f	74 40		 je	 SHORT $LN75@LoadString@2
  00171	32 d1		 xor	 dl, cl
  00173	88 55 f5	 mov	 BYTE PTR __k$[ebp+21], dl
  00176	8a 50 16	 mov	 dl, BYTE PTR [eax+22]
  00179	84 d2		 test	 dl, dl
  0017b	74 2f		 je	 SHORT $LN74@LoadString@2
  0017d	32 d3		 xor	 dl, bl
  0017f	88 55 f6	 mov	 BYTE PTR __k$[ebp+22], dl
  00182	8a 50 17	 mov	 dl, BYTE PTR [eax+23]
  00185	84 d2		 test	 dl, dl
  00187	74 1d		 je	 SHORT $LN73@LoadString@2
  00189	8a 40 18	 mov	 al, BYTE PTR [eax+24]
  0018c	80 f2 ea	 xor	 dl, -22			; ffffffeaH
  0018f	88 55 f7	 mov	 BYTE PTR __k$[ebp+23], dl
  00192	84 c0		 test	 al, al
  00194	74 0a		 je	 SHORT $LN72@LoadString@2
  00196	34 ed		 xor	 al, -19			; ffffffedH
  00198	88 45 f8	 mov	 BYTE PTR __k$[ebp+24], al
  0019b	e9 84 00 00 00	 jmp	 $LN111@LoadString@2
$LN72@LoadString@2:
  001a0	c6 45 f8 ed	 mov	 BYTE PTR __k$[ebp+24], -19 ; ffffffedH
  001a4	eb 7e		 jmp	 SHORT $LN111@LoadString@2
$LN73@LoadString@2:
  001a6	c6 45 f7 ea	 mov	 BYTE PTR __k$[ebp+23], -22 ; ffffffeaH
  001aa	eb 78		 jmp	 SHORT $LN111@LoadString@2
$LN74@LoadString@2:
  001ac	88 5d f6	 mov	 BYTE PTR __k$[ebp+22], bl
  001af	eb 73		 jmp	 SHORT $LN111@LoadString@2
$LN75@LoadString@2:
  001b1	88 4d f5	 mov	 BYTE PTR __k$[ebp+21], cl
  001b4	eb 6e		 jmp	 SHORT $LN111@LoadString@2
$LN77@LoadString@2:
  001b6	c6 45 f3 ea	 mov	 BYTE PTR __k$[ebp+19], -22 ; ffffffeaH
  001ba	eb 68		 jmp	 SHORT $LN111@LoadString@2
$LN78@LoadString@2:
  001bc	88 5d f2	 mov	 BYTE PTR __k$[ebp+18], bl
  001bf	eb 63		 jmp	 SHORT $LN111@LoadString@2
$LN79@LoadString@2:
  001c1	88 4d f1	 mov	 BYTE PTR __k$[ebp+17], cl
  001c4	eb 5e		 jmp	 SHORT $LN111@LoadString@2
$LN80@LoadString@2:
  001c6	c6 45 f0 ed	 mov	 BYTE PTR __k$[ebp+16], -19 ; ffffffedH
  001ca	eb 58		 jmp	 SHORT $LN111@LoadString@2
$LN81@LoadString@2:
  001cc	c6 45 ef ea	 mov	 BYTE PTR __k$[ebp+15], -22 ; ffffffeaH
  001d0	eb 52		 jmp	 SHORT $LN111@LoadString@2
$LN82@LoadString@2:
  001d2	88 5d ee	 mov	 BYTE PTR __k$[ebp+14], bl
  001d5	eb 4d		 jmp	 SHORT $LN111@LoadString@2
$LN83@LoadString@2:
  001d7	88 4d ed	 mov	 BYTE PTR __k$[ebp+13], cl
  001da	eb 48		 jmp	 SHORT $LN111@LoadString@2
$LN84@LoadString@2:
  001dc	c6 45 ec ed	 mov	 BYTE PTR __k$[ebp+12], -19 ; ffffffedH
  001e0	eb 42		 jmp	 SHORT $LN111@LoadString@2
$LN85@LoadString@2:
  001e2	c6 45 eb ea	 mov	 BYTE PTR __k$[ebp+11], -22 ; ffffffeaH
  001e6	eb 3c		 jmp	 SHORT $LN111@LoadString@2
$LN86@LoadString@2:
  001e8	88 5d ea	 mov	 BYTE PTR __k$[ebp+10], bl
  001eb	eb 37		 jmp	 SHORT $LN111@LoadString@2
$LN87@LoadString@2:
  001ed	88 4d e9	 mov	 BYTE PTR __k$[ebp+9], cl
  001f0	eb 32		 jmp	 SHORT $LN111@LoadString@2
$LN88@LoadString@2:
  001f2	c6 45 e8 ed	 mov	 BYTE PTR __k$[ebp+8], -19 ; ffffffedH
  001f6	eb 2c		 jmp	 SHORT $LN111@LoadString@2
$LN89@LoadString@2:
  001f8	c6 45 e7 ea	 mov	 BYTE PTR __k$[ebp+7], -22 ; ffffffeaH
  001fc	eb 26		 jmp	 SHORT $LN111@LoadString@2
$LN90@LoadString@2:
  001fe	88 5d e6	 mov	 BYTE PTR __k$[ebp+6], bl
  00201	eb 21		 jmp	 SHORT $LN111@LoadString@2
$LN91@LoadString@2:
  00203	88 4d e5	 mov	 BYTE PTR __k$[ebp+5], cl
  00206	eb 1c		 jmp	 SHORT $LN111@LoadString@2
$LN92@LoadString@2:
  00208	c6 45 e4 ed	 mov	 BYTE PTR __k$[ebp+4], -19 ; ffffffedH
  0020c	eb 16		 jmp	 SHORT $LN111@LoadString@2
$LN93@LoadString@2:
  0020e	c6 45 e3 ea	 mov	 BYTE PTR __k$[ebp+3], -22 ; ffffffeaH
  00212	eb 10		 jmp	 SHORT $LN111@LoadString@2
$LN94@LoadString@2:
  00214	c6 45 e2 eb	 mov	 BYTE PTR __k$[ebp+2], -21 ; ffffffebH
  00218	eb 0a		 jmp	 SHORT $LN111@LoadString@2
$LN95@LoadString@2:
  0021a	c6 45 e1 ec	 mov	 BYTE PTR __k$[ebp+1], -20 ; ffffffecH
  0021e	eb 04		 jmp	 SHORT $LN111@LoadString@2
$LN96@LoadString@2:
  00220	c6 45 e0 ed	 mov	 BYTE PTR __k$[ebp], -19	; ffffffedH
$LN111@LoadString@2:
  00224	6a 05		 push	 5
  00226	8d 45 e0	 lea	 eax, DWORD PTR __k$[ebp]
  00229	c6 45 f4 00	 mov	 BYTE PTR __k$[ebp+20], 0
  0022d	5a		 pop	 edx
$LL104@LoadString@2:
  0022e	81 30 ed ec eb
	ea		 xor	 DWORD PTR [eax], -353637139 ; eaebecedH
  00234	83 c0 04	 add	 eax, 4
  00237	4a		 dec	 edx
  00238	75 f4		 jne	 SHORT $LL104@LoadString@2

; 163  : 		LoadString(_k, d, b, i);

  0023a	ff 75 14	 push	 DWORD PTR _i$[ebp]
  0023d	8b 4d dc	 mov	 ecx, DWORD PTR _this$GSCopy$[ebp]
  00240	57		 push	 edi
  00241	56		 push	 esi
  00242	8d 45 e0	 lea	 eax, DWORD PTR __k$[ebp]
  00245	50		 push	 eax
  00246	ff 15 00 00 00
	00		 call	 DWORD PTR __imp_?LoadStringA@ioINILoader@@QAEXPBD0PADH@Z

; 164  : 	}

  0024c	8b 4d fc	 mov	 ecx, DWORD PTR __$ArrayPad$[ebp]
  0024f	5f		 pop	 edi
  00250	5e		 pop	 esi
  00251	33 cd		 xor	 ecx, ebp
  00253	5b		 pop	 ebx
  00254	e8 00 00 00 00	 call	 @__security_check_cookie@4
  00259	c9		 leave
  0025a	c2 10 00	 ret	 16			; 00000010H
??$LoadString_e@$0BF@@ioINILoader@@QAEXAAY0BF@$$CBDAAY00$$CBDPADH@Z ENDP ; ioINILoader::LoadString_e<21>
_TEXT	ENDS
PUBLIC	__$ArrayPad$
PUBLIC	??$LoadFloat_e@$0BF@@ioINILoader@@QAEMAAY0BF@$$CBDM@Z ; ioINILoader::LoadFloat_e<21>
EXTRN	__imp_?LoadFloat@ioINILoader@@QAEMPBDM@Z:PROC
; Function compile flags: /Ogsp
;	COMDAT ??$LoadFloat_e@$0BF@@ioINILoader@@QAEMAAY0BF@$$CBDM@Z
_TEXT	SEGMENT
__k$ = -32						; size = 21
__$ArrayPad$ = -4					; size = 4
_k$ = 8							; size = 4
_f$ = 12						; size = 4
??$LoadFloat_e@$0BF@@ioINILoader@@QAEMAAY0BF@$$CBDM@Z PROC ; ioINILoader::LoadFloat_e<21>, COMDAT
; _this$ = ecx

; 135  : 	{

  00000	55		 push	 ebp
  00001	8b ec		 mov	 ebp, esp
  00003	83 ec 20	 sub	 esp, 32			; 00000020H
  00006	a1 00 00 00 00	 mov	 eax, DWORD PTR ___security_cookie
  0000b	33 c5		 xor	 eax, ebp
  0000d	89 45 fc	 mov	 DWORD PTR __$ArrayPad$[ebp], eax
  00010	8b 45 08	 mov	 eax, DWORD PTR _k$[ebp]

; 136  : 		_ENCSTR(k, _k);

  00013	8a 10		 mov	 dl, BYTE PTR [eax]
  00015	53		 push	 ebx
  00016	56		 push	 esi
  00017	8b f1		 mov	 esi, ecx
  00019	84 d2		 test	 dl, dl
  0001b	0f 84 f7 01 00
	00		 je	 $LN96@LoadFloat_
  00021	80 f2 ed	 xor	 dl, -19			; ffffffedH
  00024	88 55 e0	 mov	 BYTE PTR __k$[ebp], dl
  00027	8a 50 01	 mov	 dl, BYTE PTR [eax+1]
  0002a	84 d2		 test	 dl, dl
  0002c	0f 84 e0 01 00
	00		 je	 $LN95@LoadFloat_
  00032	b1 ec		 mov	 cl, -20			; ffffffecH
  00034	32 d1		 xor	 dl, cl
  00036	88 55 e1	 mov	 BYTE PTR __k$[ebp+1], dl
  00039	8a 50 02	 mov	 dl, BYTE PTR [eax+2]
  0003c	84 d2		 test	 dl, dl
  0003e	0f 84 c8 01 00
	00		 je	 $LN94@LoadFloat_
  00044	b3 eb		 mov	 bl, -21			; ffffffebH
  00046	32 d3		 xor	 dl, bl
  00048	88 55 e2	 mov	 BYTE PTR __k$[ebp+2], dl
  0004b	8a 50 03	 mov	 dl, BYTE PTR [eax+3]
  0004e	84 d2		 test	 dl, dl
  00050	0f 84 b0 01 00
	00		 je	 $LN93@LoadFloat_
  00056	80 f2 ea	 xor	 dl, -22			; ffffffeaH
  00059	88 55 e3	 mov	 BYTE PTR __k$[ebp+3], dl
  0005c	8a 50 04	 mov	 dl, BYTE PTR [eax+4]
  0005f	84 d2		 test	 dl, dl
  00061	0f 84 99 01 00
	00		 je	 $LN92@LoadFloat_
  00067	80 f2 ed	 xor	 dl, -19			; ffffffedH
  0006a	88 55 e4	 mov	 BYTE PTR __k$[ebp+4], dl
  0006d	8a 50 05	 mov	 dl, BYTE PTR [eax+5]
  00070	84 d2		 test	 dl, dl
  00072	0f 84 83 01 00
	00		 je	 $LN91@LoadFloat_
  00078	32 d1		 xor	 dl, cl
  0007a	88 55 e5	 mov	 BYTE PTR __k$[ebp+5], dl
  0007d	8a 50 06	 mov	 dl, BYTE PTR [eax+6]
  00080	84 d2		 test	 dl, dl
  00082	0f 84 6e 01 00
	00		 je	 $LN90@LoadFloat_
  00088	32 d3		 xor	 dl, bl
  0008a	88 55 e6	 mov	 BYTE PTR __k$[ebp+6], dl
  0008d	8a 50 07	 mov	 dl, BYTE PTR [eax+7]
  00090	84 d2		 test	 dl, dl
  00092	0f 84 58 01 00
	00		 je	 $LN89@LoadFloat_
  00098	80 f2 ea	 xor	 dl, -22			; ffffffeaH
  0009b	88 55 e7	 mov	 BYTE PTR __k$[ebp+7], dl
  0009e	8a 50 08	 mov	 dl, BYTE PTR [eax+8]
  000a1	84 d2		 test	 dl, dl
  000a3	0f 84 41 01 00
	00		 je	 $LN88@LoadFloat_
  000a9	80 f2 ed	 xor	 dl, -19			; ffffffedH
  000ac	88 55 e8	 mov	 BYTE PTR __k$[ebp+8], dl
  000af	8a 50 09	 mov	 dl, BYTE PTR [eax+9]
  000b2	84 d2		 test	 dl, dl
  000b4	0f 84 2b 01 00
	00		 je	 $LN87@LoadFloat_
  000ba	32 d1		 xor	 dl, cl
  000bc	88 55 e9	 mov	 BYTE PTR __k$[ebp+9], dl
  000bf	8a 50 0a	 mov	 dl, BYTE PTR [eax+10]
  000c2	84 d2		 test	 dl, dl
  000c4	0f 84 16 01 00
	00		 je	 $LN86@LoadFloat_
  000ca	32 d3		 xor	 dl, bl
  000cc	88 55 ea	 mov	 BYTE PTR __k$[ebp+10], dl
  000cf	8a 50 0b	 mov	 dl, BYTE PTR [eax+11]
  000d2	84 d2		 test	 dl, dl
  000d4	0f 84 00 01 00
	00		 je	 $LN85@LoadFloat_
  000da	80 f2 ea	 xor	 dl, -22			; ffffffeaH
  000dd	88 55 eb	 mov	 BYTE PTR __k$[ebp+11], dl
  000e0	8a 50 0c	 mov	 dl, BYTE PTR [eax+12]
  000e3	84 d2		 test	 dl, dl
  000e5	0f 84 e9 00 00
	00		 je	 $LN84@LoadFloat_
  000eb	80 f2 ed	 xor	 dl, -19			; ffffffedH
  000ee	88 55 ec	 mov	 BYTE PTR __k$[ebp+12], dl
  000f1	8a 50 0d	 mov	 dl, BYTE PTR [eax+13]
  000f4	84 d2		 test	 dl, dl
  000f6	0f 84 d3 00 00
	00		 je	 $LN83@LoadFloat_
  000fc	32 d1		 xor	 dl, cl
  000fe	88 55 ed	 mov	 BYTE PTR __k$[ebp+13], dl
  00101	8a 50 0e	 mov	 dl, BYTE PTR [eax+14]
  00104	84 d2		 test	 dl, dl
  00106	0f 84 be 00 00
	00		 je	 $LN82@LoadFloat_
  0010c	32 d3		 xor	 dl, bl
  0010e	88 55 ee	 mov	 BYTE PTR __k$[ebp+14], dl
  00111	8a 50 0f	 mov	 dl, BYTE PTR [eax+15]
  00114	84 d2		 test	 dl, dl
  00116	0f 84 a8 00 00
	00		 je	 $LN81@LoadFloat_
  0011c	80 f2 ea	 xor	 dl, -22			; ffffffeaH
  0011f	88 55 ef	 mov	 BYTE PTR __k$[ebp+15], dl
  00122	8a 50 10	 mov	 dl, BYTE PTR [eax+16]
  00125	84 d2		 test	 dl, dl
  00127	0f 84 91 00 00
	00		 je	 $LN80@LoadFloat_
  0012d	80 f2 ed	 xor	 dl, -19			; ffffffedH
  00130	88 55 f0	 mov	 BYTE PTR __k$[ebp+16], dl
  00133	8a 50 11	 mov	 dl, BYTE PTR [eax+17]
  00136	84 d2		 test	 dl, dl
  00138	74 7f		 je	 SHORT $LN79@LoadFloat_
  0013a	32 d1		 xor	 dl, cl
  0013c	88 55 f1	 mov	 BYTE PTR __k$[ebp+17], dl
  0013f	8a 50 12	 mov	 dl, BYTE PTR [eax+18]
  00142	84 d2		 test	 dl, dl
  00144	74 6e		 je	 SHORT $LN78@LoadFloat_
  00146	32 d3		 xor	 dl, bl
  00148	88 55 f2	 mov	 BYTE PTR __k$[ebp+18], dl
  0014b	8a 50 13	 mov	 dl, BYTE PTR [eax+19]
  0014e	84 d2		 test	 dl, dl
  00150	74 5c		 je	 SHORT $LN77@LoadFloat_
  00152	80 f2 ea	 xor	 dl, -22			; ffffffeaH
  00155	80 78 14 00	 cmp	 BYTE PTR [eax+20], 0
  00159	88 55 f3	 mov	 BYTE PTR __k$[ebp+19], dl
  0015c	0f 84 ba 00 00
	00		 je	 $LN1@LoadFloat_
  00162	8a 50 15	 mov	 dl, BYTE PTR [eax+21]
  00165	84 d2		 test	 dl, dl
  00167	74 40		 je	 SHORT $LN75@LoadFloat_
  00169	32 d1		 xor	 dl, cl
  0016b	88 55 f5	 mov	 BYTE PTR __k$[ebp+21], dl
  0016e	8a 50 16	 mov	 dl, BYTE PTR [eax+22]
  00171	84 d2		 test	 dl, dl
  00173	74 2f		 je	 SHORT $LN74@LoadFloat_
  00175	32 d3		 xor	 dl, bl
  00177	88 55 f6	 mov	 BYTE PTR __k$[ebp+22], dl
  0017a	8a 50 17	 mov	 dl, BYTE PTR [eax+23]
  0017d	84 d2		 test	 dl, dl
  0017f	74 1d		 je	 SHORT $LN73@LoadFloat_
  00181	8a 40 18	 mov	 al, BYTE PTR [eax+24]
  00184	80 f2 ea	 xor	 dl, -22			; ffffffeaH
  00187	88 55 f7	 mov	 BYTE PTR __k$[ebp+23], dl
  0018a	84 c0		 test	 al, al
  0018c	74 0a		 je	 SHORT $LN72@LoadFloat_
  0018e	34 ed		 xor	 al, -19			; ffffffedH
  00190	88 45 f8	 mov	 BYTE PTR __k$[ebp+24], al
  00193	e9 84 00 00 00	 jmp	 $LN1@LoadFloat_
$LN72@LoadFloat_:
  00198	c6 45 f8 ed	 mov	 BYTE PTR __k$[ebp+24], -19 ; ffffffedH
  0019c	eb 7e		 jmp	 SHORT $LN1@LoadFloat_
$LN73@LoadFloat_:
  0019e	c6 45 f7 ea	 mov	 BYTE PTR __k$[ebp+23], -22 ; ffffffeaH
  001a2	eb 78		 jmp	 SHORT $LN1@LoadFloat_
$LN74@LoadFloat_:
  001a4	88 5d f6	 mov	 BYTE PTR __k$[ebp+22], bl
  001a7	eb 73		 jmp	 SHORT $LN1@LoadFloat_
$LN75@LoadFloat_:
  001a9	88 4d f5	 mov	 BYTE PTR __k$[ebp+21], cl
  001ac	eb 6e		 jmp	 SHORT $LN1@LoadFloat_
$LN77@LoadFloat_:
  001ae	c6 45 f3 ea	 mov	 BYTE PTR __k$[ebp+19], -22 ; ffffffeaH
  001b2	eb 68		 jmp	 SHORT $LN1@LoadFloat_
$LN78@LoadFloat_:
  001b4	88 5d f2	 mov	 BYTE PTR __k$[ebp+18], bl
  001b7	eb 63		 jmp	 SHORT $LN1@LoadFloat_
$LN79@LoadFloat_:
  001b9	88 4d f1	 mov	 BYTE PTR __k$[ebp+17], cl
  001bc	eb 5e		 jmp	 SHORT $LN1@LoadFloat_
$LN80@LoadFloat_:
  001be	c6 45 f0 ed	 mov	 BYTE PTR __k$[ebp+16], -19 ; ffffffedH
  001c2	eb 58		 jmp	 SHORT $LN1@LoadFloat_
$LN81@LoadFloat_:
  001c4	c6 45 ef ea	 mov	 BYTE PTR __k$[ebp+15], -22 ; ffffffeaH
  001c8	eb 52		 jmp	 SHORT $LN1@LoadFloat_
$LN82@LoadFloat_:
  001ca	88 5d ee	 mov	 BYTE PTR __k$[ebp+14], bl
  001cd	eb 4d		 jmp	 SHORT $LN1@LoadFloat_
$LN83@LoadFloat_:
  001cf	88 4d ed	 mov	 BYTE PTR __k$[ebp+13], cl
  001d2	eb 48		 jmp	 SHORT $LN1@LoadFloat_
$LN84@LoadFloat_:
  001d4	c6 45 ec ed	 mov	 BYTE PTR __k$[ebp+12], -19 ; ffffffedH
  001d8	eb 42		 jmp	 SHORT $LN1@LoadFloat_
$LN85@LoadFloat_:
  001da	c6 45 eb ea	 mov	 BYTE PTR __k$[ebp+11], -22 ; ffffffeaH
  001de	eb 3c		 jmp	 SHORT $LN1@LoadFloat_
$LN86@LoadFloat_:
  001e0	88 5d ea	 mov	 BYTE PTR __k$[ebp+10], bl
  001e3	eb 37		 jmp	 SHORT $LN1@LoadFloat_
$LN87@LoadFloat_:
  001e5	88 4d e9	 mov	 BYTE PTR __k$[ebp+9], cl
  001e8	eb 32		 jmp	 SHORT $LN1@LoadFloat_
$LN88@LoadFloat_:
  001ea	c6 45 e8 ed	 mov	 BYTE PTR __k$[ebp+8], -19 ; ffffffedH
  001ee	eb 2c		 jmp	 SHORT $LN1@LoadFloat_
$LN89@LoadFloat_:
  001f0	c6 45 e7 ea	 mov	 BYTE PTR __k$[ebp+7], -22 ; ffffffeaH
  001f4	eb 26		 jmp	 SHORT $LN1@LoadFloat_
$LN90@LoadFloat_:
  001f6	88 5d e6	 mov	 BYTE PTR __k$[ebp+6], bl
  001f9	eb 21		 jmp	 SHORT $LN1@LoadFloat_
$LN91@LoadFloat_:
  001fb	88 4d e5	 mov	 BYTE PTR __k$[ebp+5], cl
  001fe	eb 1c		 jmp	 SHORT $LN1@LoadFloat_
$LN92@LoadFloat_:
  00200	c6 45 e4 ed	 mov	 BYTE PTR __k$[ebp+4], -19 ; ffffffedH
  00204	eb 16		 jmp	 SHORT $LN1@LoadFloat_
$LN93@LoadFloat_:
  00206	c6 45 e3 ea	 mov	 BYTE PTR __k$[ebp+3], -22 ; ffffffeaH
  0020a	eb 10		 jmp	 SHORT $LN1@LoadFloat_
$LN94@LoadFloat_:
  0020c	c6 45 e2 eb	 mov	 BYTE PTR __k$[ebp+2], -21 ; ffffffebH
  00210	eb 0a		 jmp	 SHORT $LN1@LoadFloat_
$LN95@LoadFloat_:
  00212	c6 45 e1 ec	 mov	 BYTE PTR __k$[ebp+1], -20 ; ffffffecH
  00216	eb 04		 jmp	 SHORT $LN1@LoadFloat_
$LN96@LoadFloat_:
  00218	c6 45 e0 ed	 mov	 BYTE PTR __k$[ebp], -19	; ffffffedH
$LN1@LoadFloat_:
  0021c	6a 05		 push	 5
  0021e	8d 45 e0	 lea	 eax, DWORD PTR __k$[ebp]
  00221	c6 45 f4 00	 mov	 BYTE PTR __k$[ebp+20], 0
  00225	5a		 pop	 edx
$LL104@LoadFloat_:
  00226	81 30 ed ec eb
	ea		 xor	 DWORD PTR [eax], -353637139 ; eaebecedH
  0022c	83 c0 04	 add	 eax, 4
  0022f	4a		 dec	 edx
  00230	75 f4		 jne	 SHORT $LL104@LoadFloat_

; 137  : 		return LoadFloat(_k, f);

  00232	f3 0f 10 45 0c	 movss	 xmm0, DWORD PTR _f$[ebp]
  00237	51		 push	 ecx
  00238	8d 45 e0	 lea	 eax, DWORD PTR __k$[ebp]
  0023b	f3 0f 11 04 24	 movss	 DWORD PTR [esp], xmm0
  00240	50		 push	 eax
  00241	8b ce		 mov	 ecx, esi
  00243	ff 15 00 00 00
	00		 call	 DWORD PTR __imp_?LoadFloat@ioINILoader@@QAEMPBDM@Z

; 138  : 	}

  00249	8b 4d fc	 mov	 ecx, DWORD PTR __$ArrayPad$[ebp]
  0024c	5e		 pop	 esi
  0024d	33 cd		 xor	 ecx, ebp
  0024f	5b		 pop	 ebx
  00250	e8 00 00 00 00	 call	 @__security_check_cookie@4
  00255	c9		 leave
  00256	c2 08 00	 ret	 8
??$LoadFloat_e@$0BF@@ioINILoader@@QAEMAAY0BF@$$CBDM@Z ENDP ; ioINILoader::LoadFloat_e<21>
_TEXT	ENDS
PUBLIC	_this$GSCopy$
PUBLIC	__$ArrayPad$
PUBLIC	??$LoadString_e@$0BC@@ioINILoader@@QAEXAAY0BC@$$CBDAAY00$$CBDPADH@Z ; ioINILoader::LoadString_e<18>
; Function compile flags: /Ogsp
;	COMDAT ??$LoadString_e@$0BC@@ioINILoader@@QAEXAAY0BC@$$CBDAAY00$$CBDPADH@Z
_TEXT	SEGMENT
_this$GSCopy$ = -32					; size = 4
__k$ = -28						; size = 18
__$ArrayPad$ = -4					; size = 4
_k$ = 8							; size = 4
_d$ = 12						; size = 4
_b$ = 16						; size = 4
_i$ = 20						; size = 4
??$LoadString_e@$0BC@@ioINILoader@@QAEXAAY0BC@$$CBDAAY00$$CBDPADH@Z PROC ; ioINILoader::LoadString_e<18>, COMDAT
; _this$ = ecx

; 161  : 	{

  00000	55		 push	 ebp
  00001	8b ec		 mov	 ebp, esp
  00003	83 ec 20	 sub	 esp, 32			; 00000020H
  00006	a1 00 00 00 00	 mov	 eax, DWORD PTR ___security_cookie
  0000b	33 c5		 xor	 eax, ebp
  0000d	89 45 fc	 mov	 DWORD PTR __$ArrayPad$[ebp], eax
  00010	8b 45 08	 mov	 eax, DWORD PTR _k$[ebp]

; 162  : 		_ENCSTR(k, _k);

  00013	8a 10		 mov	 dl, BYTE PTR [eax]
  00015	56		 push	 esi
  00016	8b 75 0c	 mov	 esi, DWORD PTR _d$[ebp]
  00019	57		 push	 edi
  0001a	8b 7d 10	 mov	 edi, DWORD PTR _b$[ebp]
  0001d	89 4d e0	 mov	 DWORD PTR _this$GSCopy$[ebp], ecx
  00020	84 d2		 test	 dl, dl
  00022	0f 84 be 01 00
	00		 je	 $LN96@LoadString@3
  00028	80 f2 ed	 xor	 dl, -19			; ffffffedH
  0002b	88 55 e4	 mov	 BYTE PTR __k$[ebp], dl
  0002e	8a 50 01	 mov	 dl, BYTE PTR [eax+1]
  00031	84 d2		 test	 dl, dl
  00033	0f 84 a7 01 00
	00		 je	 $LN95@LoadString@3
  00039	80 f2 ec	 xor	 dl, -20			; ffffffecH
  0003c	88 55 e5	 mov	 BYTE PTR __k$[ebp+1], dl
  0003f	8a 50 02	 mov	 dl, BYTE PTR [eax+2]
  00042	84 d2		 test	 dl, dl
  00044	0f 84 90 01 00
	00		 je	 $LN94@LoadString@3
  0004a	b1 eb		 mov	 cl, -21			; ffffffebH
  0004c	32 d1		 xor	 dl, cl
  0004e	88 55 e6	 mov	 BYTE PTR __k$[ebp+2], dl
  00051	8a 50 03	 mov	 dl, BYTE PTR [eax+3]
  00054	84 d2		 test	 dl, dl
  00056	0f 84 78 01 00
	00		 je	 $LN93@LoadString@3
  0005c	80 f2 ea	 xor	 dl, -22			; ffffffeaH
  0005f	88 55 e7	 mov	 BYTE PTR __k$[ebp+3], dl
  00062	8a 50 04	 mov	 dl, BYTE PTR [eax+4]
  00065	84 d2		 test	 dl, dl
  00067	0f 84 61 01 00
	00		 je	 $LN92@LoadString@3
  0006d	80 f2 ed	 xor	 dl, -19			; ffffffedH
  00070	88 55 e8	 mov	 BYTE PTR __k$[ebp+4], dl
  00073	8a 50 05	 mov	 dl, BYTE PTR [eax+5]
  00076	84 d2		 test	 dl, dl
  00078	0f 84 4a 01 00
	00		 je	 $LN91@LoadString@3
  0007e	80 f2 ec	 xor	 dl, -20			; ffffffecH
  00081	88 55 e9	 mov	 BYTE PTR __k$[ebp+5], dl
  00084	8a 50 06	 mov	 dl, BYTE PTR [eax+6]
  00087	84 d2		 test	 dl, dl
  00089	0f 84 34 01 00
	00		 je	 $LN90@LoadString@3
  0008f	32 d1		 xor	 dl, cl
  00091	88 55 ea	 mov	 BYTE PTR __k$[ebp+6], dl
  00094	8a 50 07	 mov	 dl, BYTE PTR [eax+7]
  00097	84 d2		 test	 dl, dl
  00099	0f 84 1e 01 00
	00		 je	 $LN89@LoadString@3
  0009f	80 f2 ea	 xor	 dl, -22			; ffffffeaH
  000a2	88 55 eb	 mov	 BYTE PTR __k$[ebp+7], dl
  000a5	8a 50 08	 mov	 dl, BYTE PTR [eax+8]
  000a8	84 d2		 test	 dl, dl
  000aa	0f 84 07 01 00
	00		 je	 $LN88@LoadString@3
  000b0	80 f2 ed	 xor	 dl, -19			; ffffffedH
  000b3	88 55 ec	 mov	 BYTE PTR __k$[ebp+8], dl
  000b6	8a 50 09	 mov	 dl, BYTE PTR [eax+9]
  000b9	84 d2		 test	 dl, dl
  000bb	0f 84 f0 00 00
	00		 je	 $LN87@LoadString@3
  000c1	80 f2 ec	 xor	 dl, -20			; ffffffecH
  000c4	88 55 ed	 mov	 BYTE PTR __k$[ebp+9], dl
  000c7	8a 50 0a	 mov	 dl, BYTE PTR [eax+10]
  000ca	84 d2		 test	 dl, dl
  000cc	0f 84 da 00 00
	00		 je	 $LN86@LoadString@3
  000d2	32 d1		 xor	 dl, cl
  000d4	88 55 ee	 mov	 BYTE PTR __k$[ebp+10], dl
  000d7	8a 50 0b	 mov	 dl, BYTE PTR [eax+11]
  000da	84 d2		 test	 dl, dl
  000dc	0f 84 c4 00 00
	00		 je	 $LN85@LoadString@3
  000e2	80 f2 ea	 xor	 dl, -22			; ffffffeaH
  000e5	88 55 ef	 mov	 BYTE PTR __k$[ebp+11], dl
  000e8	8a 50 0c	 mov	 dl, BYTE PTR [eax+12]
  000eb	84 d2		 test	 dl, dl
  000ed	0f 84 ad 00 00
	00		 je	 $LN84@LoadString@3
  000f3	80 f2 ed	 xor	 dl, -19			; ffffffedH
  000f6	88 55 f0	 mov	 BYTE PTR __k$[ebp+12], dl
  000f9	8a 50 0d	 mov	 dl, BYTE PTR [eax+13]
  000fc	84 d2		 test	 dl, dl
  000fe	0f 84 96 00 00
	00		 je	 $LN83@LoadString@3
  00104	80 f2 ec	 xor	 dl, -20			; ffffffecH
  00107	88 55 f1	 mov	 BYTE PTR __k$[ebp+13], dl
  0010a	8a 50 0e	 mov	 dl, BYTE PTR [eax+14]
  0010d	84 d2		 test	 dl, dl
  0010f	0f 84 80 00 00
	00		 je	 $LN82@LoadString@3
  00115	32 d1		 xor	 dl, cl
  00117	88 55 f2	 mov	 BYTE PTR __k$[ebp+14], dl
  0011a	8a 50 0f	 mov	 dl, BYTE PTR [eax+15]
  0011d	84 d2		 test	 dl, dl
  0011f	74 6e		 je	 SHORT $LN81@LoadString@3
  00121	80 f2 ea	 xor	 dl, -22			; ffffffeaH
  00124	88 55 f3	 mov	 BYTE PTR __k$[ebp+15], dl
  00127	8a 50 10	 mov	 dl, BYTE PTR [eax+16]
  0012a	84 d2		 test	 dl, dl
  0012c	74 5b		 je	 SHORT $LN80@LoadString@3
  0012e	80 f2 ed	 xor	 dl, -19			; ffffffedH
  00131	80 78 11 00	 cmp	 BYTE PTR [eax+17], 0
  00135	88 55 f4	 mov	 BYTE PTR __k$[ebp+16], dl
  00138	0f 84 ac 00 00
	00		 je	 $LN111@LoadString@3
  0013e	8a 50 12	 mov	 dl, BYTE PTR [eax+18]
  00141	84 d2		 test	 dl, dl
  00143	74 3f		 je	 SHORT $LN78@LoadString@3
  00145	32 d1		 xor	 dl, cl
  00147	88 55 f6	 mov	 BYTE PTR __k$[ebp+18], dl
  0014a	8a 50 13	 mov	 dl, BYTE PTR [eax+19]
  0014d	84 d2		 test	 dl, dl
  0014f	74 2d		 je	 SHORT $LN77@LoadString@3
  00151	80 f2 ea	 xor	 dl, -22			; ffffffeaH
  00154	88 55 f7	 mov	 BYTE PTR __k$[ebp+19], dl
  00157	8a 50 14	 mov	 dl, BYTE PTR [eax+20]
  0015a	84 d2		 test	 dl, dl
  0015c	74 1a		 je	 SHORT $LN76@LoadString@3
  0015e	8a 40 15	 mov	 al, BYTE PTR [eax+21]
  00161	80 f2 ed	 xor	 dl, -19			; ffffffedH
  00164	88 55 f8	 mov	 BYTE PTR __k$[ebp+20], dl
  00167	84 c0		 test	 al, al
  00169	74 07		 je	 SHORT $LN75@LoadString@3
  0016b	34 ec		 xor	 al, -20			; ffffffecH
  0016d	88 45 f9	 mov	 BYTE PTR __k$[ebp+21], al
  00170	eb 78		 jmp	 SHORT $LN111@LoadString@3
$LN75@LoadString@3:
  00172	c6 45 f9 ec	 mov	 BYTE PTR __k$[ebp+21], -20 ; ffffffecH
  00176	eb 72		 jmp	 SHORT $LN111@LoadString@3
$LN76@LoadString@3:
  00178	c6 45 f8 ed	 mov	 BYTE PTR __k$[ebp+20], -19 ; ffffffedH
  0017c	eb 6c		 jmp	 SHORT $LN111@LoadString@3
$LN77@LoadString@3:
  0017e	c6 45 f7 ea	 mov	 BYTE PTR __k$[ebp+19], -22 ; ffffffeaH
  00182	eb 66		 jmp	 SHORT $LN111@LoadString@3
$LN78@LoadString@3:
  00184	88 4d f6	 mov	 BYTE PTR __k$[ebp+18], cl
  00187	eb 61		 jmp	 SHORT $LN111@LoadString@3
$LN80@LoadString@3:
  00189	c6 45 f4 ed	 mov	 BYTE PTR __k$[ebp+16], -19 ; ffffffedH
  0018d	eb 5b		 jmp	 SHORT $LN111@LoadString@3
$LN81@LoadString@3:
  0018f	c6 45 f3 ea	 mov	 BYTE PTR __k$[ebp+15], -22 ; ffffffeaH
  00193	eb 55		 jmp	 SHORT $LN111@LoadString@3
$LN82@LoadString@3:
  00195	88 4d f2	 mov	 BYTE PTR __k$[ebp+14], cl
  00198	eb 50		 jmp	 SHORT $LN111@LoadString@3
$LN83@LoadString@3:
  0019a	c6 45 f1 ec	 mov	 BYTE PTR __k$[ebp+13], -20 ; ffffffecH
  0019e	eb 4a		 jmp	 SHORT $LN111@LoadString@3
$LN84@LoadString@3:
  001a0	c6 45 f0 ed	 mov	 BYTE PTR __k$[ebp+12], -19 ; ffffffedH
  001a4	eb 44		 jmp	 SHORT $LN111@LoadString@3
$LN85@LoadString@3:
  001a6	c6 45 ef ea	 mov	 BYTE PTR __k$[ebp+11], -22 ; ffffffeaH
  001aa	eb 3e		 jmp	 SHORT $LN111@LoadString@3
$LN86@LoadString@3:
  001ac	88 4d ee	 mov	 BYTE PTR __k$[ebp+10], cl
  001af	eb 39		 jmp	 SHORT $LN111@LoadString@3
$LN87@LoadString@3:
  001b1	c6 45 ed ec	 mov	 BYTE PTR __k$[ebp+9], -20 ; ffffffecH
  001b5	eb 33		 jmp	 SHORT $LN111@LoadString@3
$LN88@LoadString@3:
  001b7	c6 45 ec ed	 mov	 BYTE PTR __k$[ebp+8], -19 ; ffffffedH
  001bb	eb 2d		 jmp	 SHORT $LN111@LoadString@3
$LN89@LoadString@3:
  001bd	c6 45 eb ea	 mov	 BYTE PTR __k$[ebp+7], -22 ; ffffffeaH
  001c1	eb 27		 jmp	 SHORT $LN111@LoadString@3
$LN90@LoadString@3:
  001c3	88 4d ea	 mov	 BYTE PTR __k$[ebp+6], cl
  001c6	eb 22		 jmp	 SHORT $LN111@LoadString@3
$LN91@LoadString@3:
  001c8	c6 45 e9 ec	 mov	 BYTE PTR __k$[ebp+5], -20 ; ffffffecH
  001cc	eb 1c		 jmp	 SHORT $LN111@LoadString@3
$LN92@LoadString@3:
  001ce	c6 45 e8 ed	 mov	 BYTE PTR __k$[ebp+4], -19 ; ffffffedH
  001d2	eb 16		 jmp	 SHORT $LN111@LoadString@3
$LN93@LoadString@3:
  001d4	c6 45 e7 ea	 mov	 BYTE PTR __k$[ebp+3], -22 ; ffffffeaH
  001d8	eb 10		 jmp	 SHORT $LN111@LoadString@3
$LN94@LoadString@3:
  001da	c6 45 e6 eb	 mov	 BYTE PTR __k$[ebp+2], -21 ; ffffffebH
  001de	eb 0a		 jmp	 SHORT $LN111@LoadString@3
$LN95@LoadString@3:
  001e0	c6 45 e5 ec	 mov	 BYTE PTR __k$[ebp+1], -20 ; ffffffecH
  001e4	eb 04		 jmp	 SHORT $LN111@LoadString@3
$LN96@LoadString@3:
  001e6	c6 45 e4 ed	 mov	 BYTE PTR __k$[ebp], -19	; ffffffedH
$LN111@LoadString@3:
  001ea	6a 04		 push	 4
  001ec	8d 45 e4	 lea	 eax, DWORD PTR __k$[ebp]
  001ef	c6 45 f5 00	 mov	 BYTE PTR __k$[ebp+17], 0
  001f3	5a		 pop	 edx
$LL104@LoadString@3:
  001f4	81 30 ed ec eb
	ea		 xor	 DWORD PTR [eax], -353637139 ; eaebecedH
  001fa	83 c0 04	 add	 eax, 4
  001fd	4a		 dec	 edx
  001fe	75 f4		 jne	 SHORT $LL104@LoadString@3

; 163  : 		LoadString(_k, d, b, i);

  00200	ff 75 14	 push	 DWORD PTR _i$[ebp]
  00203	8b 4d e0	 mov	 ecx, DWORD PTR _this$GSCopy$[ebp]
  00206	80 75 f4 ed	 xor	 BYTE PTR __k$[ebp+16], -19 ; ffffffedH
  0020a	57		 push	 edi
  0020b	56		 push	 esi
  0020c	8d 45 e4	 lea	 eax, DWORD PTR __k$[ebp]
  0020f	50		 push	 eax
  00210	ff 15 00 00 00
	00		 call	 DWORD PTR __imp_?LoadStringA@ioINILoader@@QAEXPBD0PADH@Z

; 164  : 	}

  00216	8b 4d fc	 mov	 ecx, DWORD PTR __$ArrayPad$[ebp]
  00219	5f		 pop	 edi
  0021a	33 cd		 xor	 ecx, ebp
  0021c	5e		 pop	 esi
  0021d	e8 00 00 00 00	 call	 @__security_check_cookie@4
  00222	c9		 leave
  00223	c2 10 00	 ret	 16			; 00000010H
??$LoadString_e@$0BC@@ioINILoader@@QAEXAAY0BC@$$CBDAAY00$$CBDPADH@Z ENDP ; ioINILoader::LoadString_e<18>
_TEXT	ENDS
PUBLIC	__$ArrayPad$
PUBLIC	??$LoadFloat_e@$0BH@@ioINILoader@@QAEMAAY0BH@$$CBDM@Z ; ioINILoader::LoadFloat_e<23>
; Function compile flags: /Ogsp
;	COMDAT ??$LoadFloat_e@$0BH@@ioINILoader@@QAEMAAY0BH@$$CBDM@Z
_TEXT	SEGMENT
__k$ = -32						; size = 23
__$ArrayPad$ = -4					; size = 4
_k$ = 8							; size = 4
_f$ = 12						; size = 4
??$LoadFloat_e@$0BH@@ioINILoader@@QAEMAAY0BH@$$CBDM@Z PROC ; ioINILoader::LoadFloat_e<23>, COMDAT
; _this$ = ecx

; 135  : 	{

  00000	55		 push	 ebp
  00001	8b ec		 mov	 ebp, esp
  00003	83 ec 20	 sub	 esp, 32			; 00000020H
  00006	a1 00 00 00 00	 mov	 eax, DWORD PTR ___security_cookie
  0000b	33 c5		 xor	 eax, ebp
  0000d	89 45 fc	 mov	 DWORD PTR __$ArrayPad$[ebp], eax
  00010	8b 45 08	 mov	 eax, DWORD PTR _k$[ebp]

; 136  : 		_ENCSTR(k, _k);

  00013	8a 10		 mov	 dl, BYTE PTR [eax]
  00015	53		 push	 ebx
  00016	56		 push	 esi
  00017	8b f1		 mov	 esi, ecx
  00019	84 d2		 test	 dl, dl
  0001b	0f 84 2d 02 00
	00		 je	 $LN96@LoadFloat_@2
  00021	80 f2 ed	 xor	 dl, -19			; ffffffedH
  00024	88 55 e0	 mov	 BYTE PTR __k$[ebp], dl
  00027	8a 50 01	 mov	 dl, BYTE PTR [eax+1]
  0002a	84 d2		 test	 dl, dl
  0002c	0f 84 16 02 00
	00		 je	 $LN95@LoadFloat_@2
  00032	b1 ec		 mov	 cl, -20			; ffffffecH
  00034	32 d1		 xor	 dl, cl
  00036	88 55 e1	 mov	 BYTE PTR __k$[ebp+1], dl
  00039	8a 50 02	 mov	 dl, BYTE PTR [eax+2]
  0003c	84 d2		 test	 dl, dl
  0003e	0f 84 fe 01 00
	00		 je	 $LN94@LoadFloat_@2
  00044	80 f2 eb	 xor	 dl, -21			; ffffffebH
  00047	88 55 e2	 mov	 BYTE PTR __k$[ebp+2], dl
  0004a	8a 50 03	 mov	 dl, BYTE PTR [eax+3]
  0004d	84 d2		 test	 dl, dl
  0004f	0f 84 e7 01 00
	00		 je	 $LN93@LoadFloat_@2
  00055	b3 ea		 mov	 bl, -22			; ffffffeaH
  00057	32 d3		 xor	 dl, bl
  00059	88 55 e3	 mov	 BYTE PTR __k$[ebp+3], dl
  0005c	8a 50 04	 mov	 dl, BYTE PTR [eax+4]
  0005f	84 d2		 test	 dl, dl
  00061	0f 84 cf 01 00
	00		 je	 $LN92@LoadFloat_@2
  00067	80 f2 ed	 xor	 dl, -19			; ffffffedH
  0006a	88 55 e4	 mov	 BYTE PTR __k$[ebp+4], dl
  0006d	8a 50 05	 mov	 dl, BYTE PTR [eax+5]
  00070	84 d2		 test	 dl, dl
  00072	0f 84 b9 01 00
	00		 je	 $LN91@LoadFloat_@2
  00078	32 d1		 xor	 dl, cl
  0007a	88 55 e5	 mov	 BYTE PTR __k$[ebp+5], dl
  0007d	8a 50 06	 mov	 dl, BYTE PTR [eax+6]
  00080	84 d2		 test	 dl, dl
  00082	0f 84 a3 01 00
	00		 je	 $LN90@LoadFloat_@2
  00088	80 f2 eb	 xor	 dl, -21			; ffffffebH
  0008b	88 55 e6	 mov	 BYTE PTR __k$[ebp+6], dl
  0008e	8a 50 07	 mov	 dl, BYTE PTR [eax+7]
  00091	84 d2		 test	 dl, dl
  00093	0f 84 8d 01 00
	00		 je	 $LN89@LoadFloat_@2
  00099	32 d3		 xor	 dl, bl
  0009b	88 55 e7	 mov	 BYTE PTR __k$[ebp+7], dl
  0009e	8a 50 08	 mov	 dl, BYTE PTR [eax+8]
  000a1	84 d2		 test	 dl, dl
  000a3	0f 84 77 01 00
	00		 je	 $LN88@LoadFloat_@2
  000a9	80 f2 ed	 xor	 dl, -19			; ffffffedH
  000ac	88 55 e8	 mov	 BYTE PTR __k$[ebp+8], dl
  000af	8a 50 09	 mov	 dl, BYTE PTR [eax+9]
  000b2	84 d2		 test	 dl, dl
  000b4	0f 84 61 01 00
	00		 je	 $LN87@LoadFloat_@2
  000ba	32 d1		 xor	 dl, cl
  000bc	88 55 e9	 mov	 BYTE PTR __k$[ebp+9], dl
  000bf	8a 50 0a	 mov	 dl, BYTE PTR [eax+10]
  000c2	84 d2		 test	 dl, dl
  000c4	0f 84 4b 01 00
	00		 je	 $LN86@LoadFloat_@2
  000ca	80 f2 eb	 xor	 dl, -21			; ffffffebH
  000cd	88 55 ea	 mov	 BYTE PTR __k$[ebp+10], dl
  000d0	8a 50 0b	 mov	 dl, BYTE PTR [eax+11]
  000d3	84 d2		 test	 dl, dl
  000d5	0f 84 35 01 00
	00		 je	 $LN85@LoadFloat_@2
  000db	32 d3		 xor	 dl, bl
  000dd	88 55 eb	 mov	 BYTE PTR __k$[ebp+11], dl
  000e0	8a 50 0c	 mov	 dl, BYTE PTR [eax+12]
  000e3	84 d2		 test	 dl, dl
  000e5	0f 84 1f 01 00
	00		 je	 $LN84@LoadFloat_@2
  000eb	80 f2 ed	 xor	 dl, -19			; ffffffedH
  000ee	88 55 ec	 mov	 BYTE PTR __k$[ebp+12], dl
  000f1	8a 50 0d	 mov	 dl, BYTE PTR [eax+13]
  000f4	84 d2		 test	 dl, dl
  000f6	0f 84 09 01 00
	00		 je	 $LN83@LoadFloat_@2
  000fc	32 d1		 xor	 dl, cl
  000fe	88 55 ed	 mov	 BYTE PTR __k$[ebp+13], dl
  00101	8a 50 0e	 mov	 dl, BYTE PTR [eax+14]
  00104	84 d2		 test	 dl, dl
  00106	0f 84 f3 00 00
	00		 je	 $LN82@LoadFloat_@2
  0010c	80 f2 eb	 xor	 dl, -21			; ffffffebH
  0010f	88 55 ee	 mov	 BYTE PTR __k$[ebp+14], dl
  00112	8a 50 0f	 mov	 dl, BYTE PTR [eax+15]
  00115	84 d2		 test	 dl, dl
  00117	0f 84 dd 00 00
	00		 je	 $LN81@LoadFloat_@2
  0011d	32 d3		 xor	 dl, bl
  0011f	88 55 ef	 mov	 BYTE PTR __k$[ebp+15], dl
  00122	8a 50 10	 mov	 dl, BYTE PTR [eax+16]
  00125	84 d2		 test	 dl, dl
  00127	0f 84 c7 00 00
	00		 je	 $LN80@LoadFloat_@2
  0012d	80 f2 ed	 xor	 dl, -19			; ffffffedH
  00130	88 55 f0	 mov	 BYTE PTR __k$[ebp+16], dl
  00133	8a 50 11	 mov	 dl, BYTE PTR [eax+17]
  00136	84 d2		 test	 dl, dl
  00138	0f 84 b1 00 00
	00		 je	 $LN79@LoadFloat_@2
  0013e	32 d1		 xor	 dl, cl
  00140	88 55 f1	 mov	 BYTE PTR __k$[ebp+17], dl
  00143	8a 50 12	 mov	 dl, BYTE PTR [eax+18]
  00146	84 d2		 test	 dl, dl
  00148	0f 84 9b 00 00
	00		 je	 $LN78@LoadFloat_@2
  0014e	80 f2 eb	 xor	 dl, -21			; ffffffebH
  00151	88 55 f2	 mov	 BYTE PTR __k$[ebp+18], dl
  00154	8a 50 13	 mov	 dl, BYTE PTR [eax+19]
  00157	84 d2		 test	 dl, dl
  00159	0f 84 85 00 00
	00		 je	 $LN77@LoadFloat_@2
  0015f	32 d3		 xor	 dl, bl
  00161	88 55 f3	 mov	 BYTE PTR __k$[ebp+19], dl
  00164	8a 50 14	 mov	 dl, BYTE PTR [eax+20]
  00167	84 d2		 test	 dl, dl
  00169	74 73		 je	 SHORT $LN76@LoadFloat_@2
  0016b	80 f2 ed	 xor	 dl, -19			; ffffffedH
  0016e	88 55 f4	 mov	 BYTE PTR __k$[ebp+20], dl
  00171	8a 50 15	 mov	 dl, BYTE PTR [eax+21]
  00174	84 d2		 test	 dl, dl
  00176	74 61		 je	 SHORT $LN75@LoadFloat_@2
  00178	32 d1		 xor	 dl, cl
  0017a	80 78 16 00	 cmp	 BYTE PTR [eax+22], 0
  0017e	88 55 f5	 mov	 BYTE PTR __k$[ebp+21], dl
  00181	0f 84 cb 00 00
	00		 je	 $LN1@LoadFloat_@2
  00187	8a 50 17	 mov	 dl, BYTE PTR [eax+23]
  0018a	84 d2		 test	 dl, dl
  0018c	74 46		 je	 SHORT $LN73@LoadFloat_@2
  0018e	32 d3		 xor	 dl, bl
  00190	88 55 f7	 mov	 BYTE PTR __k$[ebp+23], dl
  00193	8a 50 18	 mov	 dl, BYTE PTR [eax+24]
  00196	84 d2		 test	 dl, dl
  00198	74 34		 je	 SHORT $LN72@LoadFloat_@2
  0019a	80 f2 ed	 xor	 dl, -19			; ffffffedH
  0019d	88 55 f8	 mov	 BYTE PTR __k$[ebp+24], dl
  001a0	8a 50 19	 mov	 dl, BYTE PTR [eax+25]
  001a3	84 d2		 test	 dl, dl
  001a5	74 1f		 je	 SHORT $LN71@LoadFloat_@2
  001a7	8a 40 1a	 mov	 al, BYTE PTR [eax+26]
  001aa	32 d1		 xor	 dl, cl
  001ac	88 55 f9	 mov	 BYTE PTR __k$[ebp+25], dl
  001af	84 c0		 test	 al, al
  001b1	74 0a		 je	 SHORT $LN70@LoadFloat_@2
  001b3	34 eb		 xor	 al, -21			; ffffffebH
  001b5	88 45 fa	 mov	 BYTE PTR __k$[ebp+26], al
  001b8	e9 95 00 00 00	 jmp	 $LN1@LoadFloat_@2
$LN70@LoadFloat_@2:
  001bd	c6 45 fa eb	 mov	 BYTE PTR __k$[ebp+26], -21 ; ffffffebH
  001c1	e9 8c 00 00 00	 jmp	 $LN1@LoadFloat_@2
$LN71@LoadFloat_@2:
  001c6	88 4d f9	 mov	 BYTE PTR __k$[ebp+25], cl
  001c9	e9 84 00 00 00	 jmp	 $LN1@LoadFloat_@2
$LN72@LoadFloat_@2:
  001ce	c6 45 f8 ed	 mov	 BYTE PTR __k$[ebp+24], -19 ; ffffffedH
  001d2	eb 7e		 jmp	 SHORT $LN1@LoadFloat_@2
$LN73@LoadFloat_@2:
  001d4	88 5d f7	 mov	 BYTE PTR __k$[ebp+23], bl
  001d7	eb 79		 jmp	 SHORT $LN1@LoadFloat_@2
$LN75@LoadFloat_@2:
  001d9	88 4d f5	 mov	 BYTE PTR __k$[ebp+21], cl
  001dc	eb 74		 jmp	 SHORT $LN1@LoadFloat_@2
$LN76@LoadFloat_@2:
  001de	c6 45 f4 ed	 mov	 BYTE PTR __k$[ebp+20], -19 ; ffffffedH
  001e2	eb 6e		 jmp	 SHORT $LN1@LoadFloat_@2
$LN77@LoadFloat_@2:
  001e4	88 5d f3	 mov	 BYTE PTR __k$[ebp+19], bl
  001e7	eb 69		 jmp	 SHORT $LN1@LoadFloat_@2
$LN78@LoadFloat_@2:
  001e9	c6 45 f2 eb	 mov	 BYTE PTR __k$[ebp+18], -21 ; ffffffebH
  001ed	eb 63		 jmp	 SHORT $LN1@LoadFloat_@2
$LN79@LoadFloat_@2:
  001ef	88 4d f1	 mov	 BYTE PTR __k$[ebp+17], cl
  001f2	eb 5e		 jmp	 SHORT $LN1@LoadFloat_@2
$LN80@LoadFloat_@2:
  001f4	c6 45 f0 ed	 mov	 BYTE PTR __k$[ebp+16], -19 ; ffffffedH
  001f8	eb 58		 jmp	 SHORT $LN1@LoadFloat_@2
$LN81@LoadFloat_@2:
  001fa	88 5d ef	 mov	 BYTE PTR __k$[ebp+15], bl
  001fd	eb 53		 jmp	 SHORT $LN1@LoadFloat_@2
$LN82@LoadFloat_@2:
  001ff	c6 45 ee eb	 mov	 BYTE PTR __k$[ebp+14], -21 ; ffffffebH
  00203	eb 4d		 jmp	 SHORT $LN1@LoadFloat_@2
$LN83@LoadFloat_@2:
  00205	88 4d ed	 mov	 BYTE PTR __k$[ebp+13], cl
  00208	eb 48		 jmp	 SHORT $LN1@LoadFloat_@2
$LN84@LoadFloat_@2:
  0020a	c6 45 ec ed	 mov	 BYTE PTR __k$[ebp+12], -19 ; ffffffedH
  0020e	eb 42		 jmp	 SHORT $LN1@LoadFloat_@2
$LN85@LoadFloat_@2:
  00210	88 5d eb	 mov	 BYTE PTR __k$[ebp+11], bl
  00213	eb 3d		 jmp	 SHORT $LN1@LoadFloat_@2
$LN86@LoadFloat_@2:
  00215	c6 45 ea eb	 mov	 BYTE PTR __k$[ebp+10], -21 ; ffffffebH
  00219	eb 37		 jmp	 SHORT $LN1@LoadFloat_@2
$LN87@LoadFloat_@2:
  0021b	88 4d e9	 mov	 BYTE PTR __k$[ebp+9], cl
  0021e	eb 32		 jmp	 SHORT $LN1@LoadFloat_@2
$LN88@LoadFloat_@2:
  00220	c6 45 e8 ed	 mov	 BYTE PTR __k$[ebp+8], -19 ; ffffffedH
  00224	eb 2c		 jmp	 SHORT $LN1@LoadFloat_@2
$LN89@LoadFloat_@2:
  00226	88 5d e7	 mov	 BYTE PTR __k$[ebp+7], bl
  00229	eb 27		 jmp	 SHORT $LN1@LoadFloat_@2
$LN90@LoadFloat_@2:
  0022b	c6 45 e6 eb	 mov	 BYTE PTR __k$[ebp+6], -21 ; ffffffebH
  0022f	eb 21		 jmp	 SHORT $LN1@LoadFloat_@2
$LN91@LoadFloat_@2:
  00231	88 4d e5	 mov	 BYTE PTR __k$[ebp+5], cl
  00234	eb 1c		 jmp	 SHORT $LN1@LoadFloat_@2
$LN92@LoadFloat_@2:
  00236	c6 45 e4 ed	 mov	 BYTE PTR __k$[ebp+4], -19 ; ffffffedH
  0023a	eb 16		 jmp	 SHORT $LN1@LoadFloat_@2
$LN93@LoadFloat_@2:
  0023c	c6 45 e3 ea	 mov	 BYTE PTR __k$[ebp+3], -22 ; ffffffeaH
  00240	eb 10		 jmp	 SHORT $LN1@LoadFloat_@2
$LN94@LoadFloat_@2:
  00242	c6 45 e2 eb	 mov	 BYTE PTR __k$[ebp+2], -21 ; ffffffebH
  00246	eb 0a		 jmp	 SHORT $LN1@LoadFloat_@2
$LN95@LoadFloat_@2:
  00248	c6 45 e1 ec	 mov	 BYTE PTR __k$[ebp+1], -20 ; ffffffecH
  0024c	eb 04		 jmp	 SHORT $LN1@LoadFloat_@2
$LN96@LoadFloat_@2:
  0024e	c6 45 e0 ed	 mov	 BYTE PTR __k$[ebp], -19	; ffffffedH
$LN1@LoadFloat_@2:
  00252	6a 05		 push	 5
  00254	8d 45 e0	 lea	 eax, DWORD PTR __k$[ebp]
  00257	c6 45 f6 00	 mov	 BYTE PTR __k$[ebp+22], 0
  0025b	5a		 pop	 edx
$LL104@LoadFloat_@2:
  0025c	81 30 ed ec eb
	ea		 xor	 DWORD PTR [eax], -353637139 ; eaebecedH
  00262	83 c0 04	 add	 eax, 4
  00265	4a		 dec	 edx
  00266	75 f4		 jne	 SHORT $LL104@LoadFloat_@2
  00268	6a 14		 push	 20			; 00000014H
  0026a	58		 pop	 eax
$LL101@LoadFloat_@2:
  0026b	8b c8		 mov	 ecx, eax
  0026d	81 e1 03 00 00
	80		 and	 ecx, -2147483645	; 80000003H
  00273	79 05		 jns	 SHORT $LN111@LoadFloat_@2
  00275	49		 dec	 ecx
  00276	83 c9 fc	 or	 ecx, -4			; fffffffcH
  00279	41		 inc	 ecx
$LN111@LoadFloat_@2:
  0027a	b2 ed		 mov	 dl, -19			; ffffffedH
  0027c	2a d1		 sub	 dl, cl
  0027e	30 54 05 e0	 xor	 BYTE PTR __k$[ebp+eax], dl
  00282	40		 inc	 eax
  00283	83 f8 16	 cmp	 eax, 22			; 00000016H
  00286	7c e3		 jl	 SHORT $LL101@LoadFloat_@2

; 137  : 		return LoadFloat(_k, f);

  00288	f3 0f 10 45 0c	 movss	 xmm0, DWORD PTR _f$[ebp]
  0028d	51		 push	 ecx
  0028e	8d 45 e0	 lea	 eax, DWORD PTR __k$[ebp]
  00291	f3 0f 11 04 24	 movss	 DWORD PTR [esp], xmm0
  00296	50		 push	 eax
  00297	8b ce		 mov	 ecx, esi
  00299	ff 15 00 00 00
	00		 call	 DWORD PTR __imp_?LoadFloat@ioINILoader@@QAEMPBDM@Z

; 138  : 	}

  0029f	8b 4d fc	 mov	 ecx, DWORD PTR __$ArrayPad$[ebp]
  002a2	5e		 pop	 esi
  002a3	33 cd		 xor	 ecx, ebp
  002a5	5b		 pop	 ebx
  002a6	e8 00 00 00 00	 call	 @__security_check_cookie@4
  002ab	c9		 leave
  002ac	c2 08 00	 ret	 8
??$LoadFloat_e@$0BH@@ioINILoader@@QAEMAAY0BH@$$CBDM@Z ENDP ; ioINILoader::LoadFloat_e<23>
_TEXT	ENDS
PUBLIC	__$ArrayPad$
PUBLIC	??$LoadInt_e@$0BI@@ioINILoader@@QAEHAAY0BI@$$CBDH@Z ; ioINILoader::LoadInt_e<24>
EXTRN	__imp_?LoadInt@ioINILoader@@QAEHPBDH@Z:PROC
; Function compile flags: /Ogsp
;	COMDAT ??$LoadInt_e@$0BI@@ioINILoader@@QAEHAAY0BI@$$CBDH@Z
_TEXT	SEGMENT
__k$ = -32						; size = 24
__$ArrayPad$ = -4					; size = 4
_k$ = 8							; size = 4
_i$ = 12						; size = 4
??$LoadInt_e@$0BI@@ioINILoader@@QAEHAAY0BI@$$CBDH@Z PROC ; ioINILoader::LoadInt_e<24>, COMDAT
; _this$ = ecx

; 118  : 	{

  00000	55		 push	 ebp
  00001	8b ec		 mov	 ebp, esp
  00003	83 ec 20	 sub	 esp, 32			; 00000020H
  00006	a1 00 00 00 00	 mov	 eax, DWORD PTR ___security_cookie
  0000b	33 c5		 xor	 eax, ebp
  0000d	89 45 fc	 mov	 DWORD PTR __$ArrayPad$[ebp], eax
  00010	8b 45 08	 mov	 eax, DWORD PTR _k$[ebp]

; 119  : 		_ENCSTR(k, _k);

  00013	8a 10		 mov	 dl, BYTE PTR [eax]
  00015	53		 push	 ebx
  00016	56		 push	 esi
  00017	8b f1		 mov	 esi, ecx
  00019	84 d2		 test	 dl, dl
  0001b	0f 84 45 02 00
	00		 je	 $LN96@LoadInt_e
  00021	80 f2 ed	 xor	 dl, -19			; ffffffedH
  00024	88 55 e0	 mov	 BYTE PTR __k$[ebp], dl
  00027	8a 50 01	 mov	 dl, BYTE PTR [eax+1]
  0002a	84 d2		 test	 dl, dl
  0002c	0f 84 2e 02 00
	00		 je	 $LN95@LoadInt_e
  00032	b3 ec		 mov	 bl, -20			; ffffffecH
  00034	32 d3		 xor	 dl, bl
  00036	88 55 e1	 mov	 BYTE PTR __k$[ebp+1], dl
  00039	8a 50 02	 mov	 dl, BYTE PTR [eax+2]
  0003c	84 d2		 test	 dl, dl
  0003e	0f 84 16 02 00
	00		 je	 $LN94@LoadInt_e
  00044	b1 eb		 mov	 cl, -21			; ffffffebH
  00046	32 d1		 xor	 dl, cl
  00048	88 55 e2	 mov	 BYTE PTR __k$[ebp+2], dl
  0004b	8a 50 03	 mov	 dl, BYTE PTR [eax+3]
  0004e	84 d2		 test	 dl, dl
  00050	0f 84 fe 01 00
	00		 je	 $LN93@LoadInt_e
  00056	80 f2 ea	 xor	 dl, -22			; ffffffeaH
  00059	88 55 e3	 mov	 BYTE PTR __k$[ebp+3], dl
  0005c	8a 50 04	 mov	 dl, BYTE PTR [eax+4]
  0005f	84 d2		 test	 dl, dl
  00061	0f 84 e7 01 00
	00		 je	 $LN92@LoadInt_e
  00067	80 f2 ed	 xor	 dl, -19			; ffffffedH
  0006a	88 55 e4	 mov	 BYTE PTR __k$[ebp+4], dl
  0006d	8a 50 05	 mov	 dl, BYTE PTR [eax+5]
  00070	84 d2		 test	 dl, dl
  00072	0f 84 d1 01 00
	00		 je	 $LN91@LoadInt_e
  00078	32 d3		 xor	 dl, bl
  0007a	88 55 e5	 mov	 BYTE PTR __k$[ebp+5], dl
  0007d	8a 50 06	 mov	 dl, BYTE PTR [eax+6]
  00080	84 d2		 test	 dl, dl
  00082	0f 84 bc 01 00
	00		 je	 $LN90@LoadInt_e
  00088	32 d1		 xor	 dl, cl
  0008a	88 55 e6	 mov	 BYTE PTR __k$[ebp+6], dl
  0008d	8a 50 07	 mov	 dl, BYTE PTR [eax+7]
  00090	84 d2		 test	 dl, dl
  00092	0f 84 a6 01 00
	00		 je	 $LN89@LoadInt_e
  00098	80 f2 ea	 xor	 dl, -22			; ffffffeaH
  0009b	88 55 e7	 mov	 BYTE PTR __k$[ebp+7], dl
  0009e	8a 50 08	 mov	 dl, BYTE PTR [eax+8]
  000a1	84 d2		 test	 dl, dl
  000a3	0f 84 8f 01 00
	00		 je	 $LN88@LoadInt_e
  000a9	80 f2 ed	 xor	 dl, -19			; ffffffedH
  000ac	88 55 e8	 mov	 BYTE PTR __k$[ebp+8], dl
  000af	8a 50 09	 mov	 dl, BYTE PTR [eax+9]
  000b2	84 d2		 test	 dl, dl
  000b4	0f 84 79 01 00
	00		 je	 $LN87@LoadInt_e
  000ba	32 d3		 xor	 dl, bl
  000bc	88 55 e9	 mov	 BYTE PTR __k$[ebp+9], dl
  000bf	8a 50 0a	 mov	 dl, BYTE PTR [eax+10]
  000c2	84 d2		 test	 dl, dl
  000c4	0f 84 64 01 00
	00		 je	 $LN86@LoadInt_e
  000ca	32 d1		 xor	 dl, cl
  000cc	88 55 ea	 mov	 BYTE PTR __k$[ebp+10], dl
  000cf	8a 50 0b	 mov	 dl, BYTE PTR [eax+11]
  000d2	84 d2		 test	 dl, dl
  000d4	0f 84 4e 01 00
	00		 je	 $LN85@LoadInt_e
  000da	80 f2 ea	 xor	 dl, -22			; ffffffeaH
  000dd	88 55 eb	 mov	 BYTE PTR __k$[ebp+11], dl
  000e0	8a 50 0c	 mov	 dl, BYTE PTR [eax+12]
  000e3	84 d2		 test	 dl, dl
  000e5	0f 84 37 01 00
	00		 je	 $LN84@LoadInt_e
  000eb	80 f2 ed	 xor	 dl, -19			; ffffffedH
  000ee	88 55 ec	 mov	 BYTE PTR __k$[ebp+12], dl
  000f1	8a 50 0d	 mov	 dl, BYTE PTR [eax+13]
  000f4	84 d2		 test	 dl, dl
  000f6	0f 84 21 01 00
	00		 je	 $LN83@LoadInt_e
  000fc	32 d3		 xor	 dl, bl
  000fe	88 55 ed	 mov	 BYTE PTR __k$[ebp+13], dl
  00101	8a 50 0e	 mov	 dl, BYTE PTR [eax+14]
  00104	84 d2		 test	 dl, dl
  00106	0f 84 0c 01 00
	00		 je	 $LN82@LoadInt_e
  0010c	32 d1		 xor	 dl, cl
  0010e	88 55 ee	 mov	 BYTE PTR __k$[ebp+14], dl
  00111	8a 50 0f	 mov	 dl, BYTE PTR [eax+15]
  00114	84 d2		 test	 dl, dl
  00116	0f 84 f6 00 00
	00		 je	 $LN81@LoadInt_e
  0011c	80 f2 ea	 xor	 dl, -22			; ffffffeaH
  0011f	88 55 ef	 mov	 BYTE PTR __k$[ebp+15], dl
  00122	8a 50 10	 mov	 dl, BYTE PTR [eax+16]
  00125	84 d2		 test	 dl, dl
  00127	0f 84 df 00 00
	00		 je	 $LN80@LoadInt_e
  0012d	80 f2 ed	 xor	 dl, -19			; ffffffedH
  00130	88 55 f0	 mov	 BYTE PTR __k$[ebp+16], dl
  00133	8a 50 11	 mov	 dl, BYTE PTR [eax+17]
  00136	84 d2		 test	 dl, dl
  00138	0f 84 c9 00 00
	00		 je	 $LN79@LoadInt_e
  0013e	32 d3		 xor	 dl, bl
  00140	88 55 f1	 mov	 BYTE PTR __k$[ebp+17], dl
  00143	8a 50 12	 mov	 dl, BYTE PTR [eax+18]
  00146	84 d2		 test	 dl, dl
  00148	0f 84 b4 00 00
	00		 je	 $LN78@LoadInt_e
  0014e	32 d1		 xor	 dl, cl
  00150	88 55 f2	 mov	 BYTE PTR __k$[ebp+18], dl
  00153	8a 50 13	 mov	 dl, BYTE PTR [eax+19]
  00156	84 d2		 test	 dl, dl
  00158	0f 84 9e 00 00
	00		 je	 $LN77@LoadInt_e
  0015e	80 f2 ea	 xor	 dl, -22			; ffffffeaH
  00161	88 55 f3	 mov	 BYTE PTR __k$[ebp+19], dl
  00164	8a 50 14	 mov	 dl, BYTE PTR [eax+20]
  00167	84 d2		 test	 dl, dl
  00169	0f 84 87 00 00
	00		 je	 $LN76@LoadInt_e
  0016f	80 f2 ed	 xor	 dl, -19			; ffffffedH
  00172	88 55 f4	 mov	 BYTE PTR __k$[ebp+20], dl
  00175	8a 50 15	 mov	 dl, BYTE PTR [eax+21]
  00178	84 d2		 test	 dl, dl
  0017a	74 75		 je	 SHORT $LN75@LoadInt_e
  0017c	32 d3		 xor	 dl, bl
  0017e	88 55 f5	 mov	 BYTE PTR __k$[ebp+21], dl
  00181	8a 50 16	 mov	 dl, BYTE PTR [eax+22]
  00184	84 d2		 test	 dl, dl
  00186	74 64		 je	 SHORT $LN74@LoadInt_e
  00188	32 d1		 xor	 dl, cl
  0018a	80 78 17 00	 cmp	 BYTE PTR [eax+23], 0
  0018e	88 55 f6	 mov	 BYTE PTR __k$[ebp+22], dl
  00191	0f 84 d3 00 00
	00		 je	 $LN1@LoadInt_e
  00197	8a 50 18	 mov	 dl, BYTE PTR [eax+24]
  0019a	84 d2		 test	 dl, dl
  0019c	74 48		 je	 SHORT $LN72@LoadInt_e
  0019e	80 f2 ed	 xor	 dl, -19			; ffffffedH
  001a1	88 55 f8	 mov	 BYTE PTR __k$[ebp+24], dl
  001a4	8a 50 19	 mov	 dl, BYTE PTR [eax+25]
  001a7	84 d2		 test	 dl, dl
  001a9	74 33		 je	 SHORT $LN71@LoadInt_e
  001ab	32 d3		 xor	 dl, bl
  001ad	88 55 f9	 mov	 BYTE PTR __k$[ebp+25], dl
  001b0	8a 50 1a	 mov	 dl, BYTE PTR [eax+26]
  001b3	84 d2		 test	 dl, dl
  001b5	74 1f		 je	 SHORT $LN70@LoadInt_e
  001b7	8a 40 1b	 mov	 al, BYTE PTR [eax+27]
  001ba	32 d1		 xor	 dl, cl
  001bc	88 55 fa	 mov	 BYTE PTR __k$[ebp+26], dl
  001bf	84 c0		 test	 al, al
  001c1	74 0a		 je	 SHORT $LN69@LoadInt_e
  001c3	34 ea		 xor	 al, -22			; ffffffeaH
  001c5	88 45 fb	 mov	 BYTE PTR __k$[ebp+27], al
  001c8	e9 9d 00 00 00	 jmp	 $LN1@LoadInt_e
$LN69@LoadInt_e:
  001cd	c6 45 fb ea	 mov	 BYTE PTR __k$[ebp+27], -22 ; ffffffeaH
  001d1	e9 94 00 00 00	 jmp	 $LN1@LoadInt_e
$LN70@LoadInt_e:
  001d6	88 4d fa	 mov	 BYTE PTR __k$[ebp+26], cl
  001d9	e9 8c 00 00 00	 jmp	 $LN1@LoadInt_e
$LN71@LoadInt_e:
  001de	88 5d f9	 mov	 BYTE PTR __k$[ebp+25], bl
  001e1	e9 84 00 00 00	 jmp	 $LN1@LoadInt_e
$LN72@LoadInt_e:
  001e6	c6 45 f8 ed	 mov	 BYTE PTR __k$[ebp+24], -19 ; ffffffedH
  001ea	eb 7e		 jmp	 SHORT $LN1@LoadInt_e
$LN74@LoadInt_e:
  001ec	88 4d f6	 mov	 BYTE PTR __k$[ebp+22], cl
  001ef	eb 79		 jmp	 SHORT $LN1@LoadInt_e
$LN75@LoadInt_e:
  001f1	88 5d f5	 mov	 BYTE PTR __k$[ebp+21], bl
  001f4	eb 74		 jmp	 SHORT $LN1@LoadInt_e
$LN76@LoadInt_e:
  001f6	c6 45 f4 ed	 mov	 BYTE PTR __k$[ebp+20], -19 ; ffffffedH
  001fa	eb 6e		 jmp	 SHORT $LN1@LoadInt_e
$LN77@LoadInt_e:
  001fc	c6 45 f3 ea	 mov	 BYTE PTR __k$[ebp+19], -22 ; ffffffeaH
  00200	eb 68		 jmp	 SHORT $LN1@LoadInt_e
$LN78@LoadInt_e:
  00202	88 4d f2	 mov	 BYTE PTR __k$[ebp+18], cl
  00205	eb 63		 jmp	 SHORT $LN1@LoadInt_e
$LN79@LoadInt_e:
  00207	88 5d f1	 mov	 BYTE PTR __k$[ebp+17], bl
  0020a	eb 5e		 jmp	 SHORT $LN1@LoadInt_e
$LN80@LoadInt_e:
  0020c	c6 45 f0 ed	 mov	 BYTE PTR __k$[ebp+16], -19 ; ffffffedH
  00210	eb 58		 jmp	 SHORT $LN1@LoadInt_e
$LN81@LoadInt_e:
  00212	c6 45 ef ea	 mov	 BYTE PTR __k$[ebp+15], -22 ; ffffffeaH
  00216	eb 52		 jmp	 SHORT $LN1@LoadInt_e
$LN82@LoadInt_e:
  00218	88 4d ee	 mov	 BYTE PTR __k$[ebp+14], cl
  0021b	eb 4d		 jmp	 SHORT $LN1@LoadInt_e
$LN83@LoadInt_e:
  0021d	88 5d ed	 mov	 BYTE PTR __k$[ebp+13], bl
  00220	eb 48		 jmp	 SHORT $LN1@LoadInt_e
$LN84@LoadInt_e:
  00222	c6 45 ec ed	 mov	 BYTE PTR __k$[ebp+12], -19 ; ffffffedH
  00226	eb 42		 jmp	 SHORT $LN1@LoadInt_e
$LN85@LoadInt_e:
  00228	c6 45 eb ea	 mov	 BYTE PTR __k$[ebp+11], -22 ; ffffffeaH
  0022c	eb 3c		 jmp	 SHORT $LN1@LoadInt_e
$LN86@LoadInt_e:
  0022e	88 4d ea	 mov	 BYTE PTR __k$[ebp+10], cl
  00231	eb 37		 jmp	 SHORT $LN1@LoadInt_e
$LN87@LoadInt_e:
  00233	88 5d e9	 mov	 BYTE PTR __k$[ebp+9], bl
  00236	eb 32		 jmp	 SHORT $LN1@LoadInt_e
$LN88@LoadInt_e:
  00238	c6 45 e8 ed	 mov	 BYTE PTR __k$[ebp+8], -19 ; ffffffedH
  0023c	eb 2c		 jmp	 SHORT $LN1@LoadInt_e
$LN89@LoadInt_e:
  0023e	c6 45 e7 ea	 mov	 BYTE PTR __k$[ebp+7], -22 ; ffffffeaH
  00242	eb 26		 jmp	 SHORT $LN1@LoadInt_e
$LN90@LoadInt_e:
  00244	88 4d e6	 mov	 BYTE PTR __k$[ebp+6], cl
  00247	eb 21		 jmp	 SHORT $LN1@LoadInt_e
$LN91@LoadInt_e:
  00249	88 5d e5	 mov	 BYTE PTR __k$[ebp+5], bl
  0024c	eb 1c		 jmp	 SHORT $LN1@LoadInt_e
$LN92@LoadInt_e:
  0024e	c6 45 e4 ed	 mov	 BYTE PTR __k$[ebp+4], -19 ; ffffffedH
  00252	eb 16		 jmp	 SHORT $LN1@LoadInt_e
$LN93@LoadInt_e:
  00254	c6 45 e3 ea	 mov	 BYTE PTR __k$[ebp+3], -22 ; ffffffeaH
  00258	eb 10		 jmp	 SHORT $LN1@LoadInt_e
$LN94@LoadInt_e:
  0025a	c6 45 e2 eb	 mov	 BYTE PTR __k$[ebp+2], -21 ; ffffffebH
  0025e	eb 0a		 jmp	 SHORT $LN1@LoadInt_e
$LN95@LoadInt_e:
  00260	c6 45 e1 ec	 mov	 BYTE PTR __k$[ebp+1], -20 ; ffffffecH
  00264	eb 04		 jmp	 SHORT $LN1@LoadInt_e
$LN96@LoadInt_e:
  00266	c6 45 e0 ed	 mov	 BYTE PTR __k$[ebp], -19	; ffffffedH
$LN1@LoadInt_e:
  0026a	6a 05		 push	 5
  0026c	8d 45 e0	 lea	 eax, DWORD PTR __k$[ebp]
  0026f	c6 45 f7 00	 mov	 BYTE PTR __k$[ebp+23], 0
  00273	5a		 pop	 edx
$LL104@LoadInt_e:
  00274	81 30 ed ec eb
	ea		 xor	 DWORD PTR [eax], -353637139 ; eaebecedH
  0027a	83 c0 04	 add	 eax, 4
  0027d	4a		 dec	 edx
  0027e	75 f4		 jne	 SHORT $LL104@LoadInt_e
  00280	6a 14		 push	 20			; 00000014H
  00282	58		 pop	 eax
$LL101@LoadInt_e:
  00283	8b c8		 mov	 ecx, eax
  00285	81 e1 03 00 00
	80		 and	 ecx, -2147483645	; 80000003H
  0028b	79 05		 jns	 SHORT $LN111@LoadInt_e
  0028d	49		 dec	 ecx
  0028e	83 c9 fc	 or	 ecx, -4			; fffffffcH
  00291	41		 inc	 ecx
$LN111@LoadInt_e:
  00292	b2 ed		 mov	 dl, -19			; ffffffedH
  00294	2a d1		 sub	 dl, cl
  00296	30 54 05 e0	 xor	 BYTE PTR __k$[ebp+eax], dl
  0029a	40		 inc	 eax
  0029b	83 f8 17	 cmp	 eax, 23			; 00000017H
  0029e	7c e3		 jl	 SHORT $LL101@LoadInt_e

; 120  : 		return LoadInt(_k, i);

  002a0	ff 75 0c	 push	 DWORD PTR _i$[ebp]
  002a3	8d 45 e0	 lea	 eax, DWORD PTR __k$[ebp]
  002a6	50		 push	 eax
  002a7	8b ce		 mov	 ecx, esi
  002a9	ff 15 00 00 00
	00		 call	 DWORD PTR __imp_?LoadInt@ioINILoader@@QAEHPBDH@Z

; 121  : 	}

  002af	8b 4d fc	 mov	 ecx, DWORD PTR __$ArrayPad$[ebp]
  002b2	5e		 pop	 esi
  002b3	33 cd		 xor	 ecx, ebp
  002b5	5b		 pop	 ebx
  002b6	e8 00 00 00 00	 call	 @__security_check_cookie@4
  002bb	c9		 leave
  002bc	c2 08 00	 ret	 8
??$LoadInt_e@$0BI@@ioINILoader@@QAEHAAY0BI@$$CBDH@Z ENDP ; ioINILoader::LoadInt_e<24>
_TEXT	ENDS
PUBLIC	_this$GSCopy$
PUBLIC	__$ArrayPad$
PUBLIC	??$LoadString_e@$0BA@@ioINILoader@@QAEXAAY0BA@$$CBDAAY00$$CBDPADH@Z ; ioINILoader::LoadString_e<16>
; Function compile flags: /Ogsp
;	COMDAT ??$LoadString_e@$0BA@@ioINILoader@@QAEXAAY0BA@$$CBDAAY00$$CBDPADH@Z
_TEXT	SEGMENT
_this$GSCopy$ = -28					; size = 4
__k$ = -24						; size = 16
__$ArrayPad$ = -4					; size = 4
_k$ = 8							; size = 4
_d$ = 12						; size = 4
_b$ = 16						; size = 4
_i$ = 20						; size = 4
??$LoadString_e@$0BA@@ioINILoader@@QAEXAAY0BA@$$CBDAAY00$$CBDPADH@Z PROC ; ioINILoader::LoadString_e<16>, COMDAT
; _this$ = ecx

; 161  : 	{

  00000	55		 push	 ebp
  00001	8b ec		 mov	 ebp, esp
  00003	83 ec 1c	 sub	 esp, 28			; 0000001cH
  00006	a1 00 00 00 00	 mov	 eax, DWORD PTR ___security_cookie
  0000b	33 c5		 xor	 eax, ebp
  0000d	89 45 fc	 mov	 DWORD PTR __$ArrayPad$[ebp], eax
  00010	8b 45 08	 mov	 eax, DWORD PTR _k$[ebp]

; 162  : 		_ENCSTR(k, _k);

  00013	8a 10		 mov	 dl, BYTE PTR [eax]
  00015	56		 push	 esi
  00016	8b 75 0c	 mov	 esi, DWORD PTR _d$[ebp]
  00019	57		 push	 edi
  0001a	8b 7d 10	 mov	 edi, DWORD PTR _b$[ebp]
  0001d	89 4d e4	 mov	 DWORD PTR _this$GSCopy$[ebp], ecx
  00020	84 d2		 test	 dl, dl
  00022	0f 84 8c 01 00
	00		 je	 $LN96@LoadString@4
  00028	80 f2 ed	 xor	 dl, -19			; ffffffedH
  0002b	88 55 e8	 mov	 BYTE PTR __k$[ebp], dl
  0002e	8a 50 01	 mov	 dl, BYTE PTR [eax+1]
  00031	84 d2		 test	 dl, dl
  00033	0f 84 75 01 00
	00		 je	 $LN95@LoadString@4
  00039	80 f2 ec	 xor	 dl, -20			; ffffffecH
  0003c	88 55 e9	 mov	 BYTE PTR __k$[ebp+1], dl
  0003f	8a 50 02	 mov	 dl, BYTE PTR [eax+2]
  00042	84 d2		 test	 dl, dl
  00044	0f 84 5e 01 00
	00		 je	 $LN94@LoadString@4
  0004a	b1 eb		 mov	 cl, -21			; ffffffebH
  0004c	32 d1		 xor	 dl, cl
  0004e	88 55 ea	 mov	 BYTE PTR __k$[ebp+2], dl
  00051	8a 50 03	 mov	 dl, BYTE PTR [eax+3]
  00054	84 d2		 test	 dl, dl
  00056	0f 84 46 01 00
	00		 je	 $LN93@LoadString@4
  0005c	80 f2 ea	 xor	 dl, -22			; ffffffeaH
  0005f	88 55 eb	 mov	 BYTE PTR __k$[ebp+3], dl
  00062	8a 50 04	 mov	 dl, BYTE PTR [eax+4]
  00065	84 d2		 test	 dl, dl
  00067	0f 84 2f 01 00
	00		 je	 $LN92@LoadString@4
  0006d	80 f2 ed	 xor	 dl, -19			; ffffffedH
  00070	88 55 ec	 mov	 BYTE PTR __k$[ebp+4], dl
  00073	8a 50 05	 mov	 dl, BYTE PTR [eax+5]
  00076	84 d2		 test	 dl, dl
  00078	0f 84 18 01 00
	00		 je	 $LN91@LoadString@4
  0007e	80 f2 ec	 xor	 dl, -20			; ffffffecH
  00081	88 55 ed	 mov	 BYTE PTR __k$[ebp+5], dl
  00084	8a 50 06	 mov	 dl, BYTE PTR [eax+6]
  00087	84 d2		 test	 dl, dl
  00089	0f 84 02 01 00
	00		 je	 $LN90@LoadString@4
  0008f	32 d1		 xor	 dl, cl
  00091	88 55 ee	 mov	 BYTE PTR __k$[ebp+6], dl
  00094	8a 50 07	 mov	 dl, BYTE PTR [eax+7]
  00097	84 d2		 test	 dl, dl
  00099	0f 84 ec 00 00
	00		 je	 $LN89@LoadString@4
  0009f	80 f2 ea	 xor	 dl, -22			; ffffffeaH
  000a2	88 55 ef	 mov	 BYTE PTR __k$[ebp+7], dl
  000a5	8a 50 08	 mov	 dl, BYTE PTR [eax+8]
  000a8	84 d2		 test	 dl, dl
  000aa	0f 84 d5 00 00
	00		 je	 $LN88@LoadString@4
  000b0	80 f2 ed	 xor	 dl, -19			; ffffffedH
  000b3	88 55 f0	 mov	 BYTE PTR __k$[ebp+8], dl
  000b6	8a 50 09	 mov	 dl, BYTE PTR [eax+9]
  000b9	84 d2		 test	 dl, dl
  000bb	0f 84 be 00 00
	00		 je	 $LN87@LoadString@4
  000c1	80 f2 ec	 xor	 dl, -20			; ffffffecH
  000c4	88 55 f1	 mov	 BYTE PTR __k$[ebp+9], dl
  000c7	8a 50 0a	 mov	 dl, BYTE PTR [eax+10]
  000ca	84 d2		 test	 dl, dl
  000cc	0f 84 a8 00 00
	00		 je	 $LN86@LoadString@4
  000d2	32 d1		 xor	 dl, cl
  000d4	88 55 f2	 mov	 BYTE PTR __k$[ebp+10], dl
  000d7	8a 50 0b	 mov	 dl, BYTE PTR [eax+11]
  000da	84 d2		 test	 dl, dl
  000dc	0f 84 92 00 00
	00		 je	 $LN85@LoadString@4
  000e2	80 f2 ea	 xor	 dl, -22			; ffffffeaH
  000e5	88 55 f3	 mov	 BYTE PTR __k$[ebp+11], dl
  000e8	8a 50 0c	 mov	 dl, BYTE PTR [eax+12]
  000eb	84 d2		 test	 dl, dl
  000ed	74 7f		 je	 SHORT $LN84@LoadString@4
  000ef	80 f2 ed	 xor	 dl, -19			; ffffffedH
  000f2	88 55 f4	 mov	 BYTE PTR __k$[ebp+12], dl
  000f5	8a 50 0d	 mov	 dl, BYTE PTR [eax+13]
  000f8	84 d2		 test	 dl, dl
  000fa	74 6c		 je	 SHORT $LN83@LoadString@4
  000fc	80 f2 ec	 xor	 dl, -20			; ffffffecH
  000ff	88 55 f5	 mov	 BYTE PTR __k$[ebp+13], dl
  00102	8a 50 0e	 mov	 dl, BYTE PTR [eax+14]
  00105	84 d2		 test	 dl, dl
  00107	74 5a		 je	 SHORT $LN82@LoadString@4
  00109	32 d1		 xor	 dl, cl
  0010b	80 78 0f 00	 cmp	 BYTE PTR [eax+15], 0
  0010f	88 55 f6	 mov	 BYTE PTR __k$[ebp+14], dl
  00112	0f 84 a0 00 00
	00		 je	 $LN111@LoadString@4
  00118	8a 50 10	 mov	 dl, BYTE PTR [eax+16]
  0011b	84 d2		 test	 dl, dl
  0011d	74 3e		 je	 SHORT $LN80@LoadString@4
  0011f	80 f2 ed	 xor	 dl, -19			; ffffffedH
  00122	88 55 f8	 mov	 BYTE PTR __k$[ebp+16], dl
  00125	8a 50 11	 mov	 dl, BYTE PTR [eax+17]
  00128	84 d2		 test	 dl, dl
  0012a	74 2b		 je	 SHORT $LN79@LoadString@4
  0012c	80 f2 ec	 xor	 dl, -20			; ffffffecH
  0012f	88 55 f9	 mov	 BYTE PTR __k$[ebp+17], dl
  00132	8a 50 12	 mov	 dl, BYTE PTR [eax+18]
  00135	84 d2		 test	 dl, dl
  00137	74 19		 je	 SHORT $LN78@LoadString@4
  00139	8a 40 13	 mov	 al, BYTE PTR [eax+19]
  0013c	32 d1		 xor	 dl, cl
  0013e	88 55 fa	 mov	 BYTE PTR __k$[ebp+18], dl
  00141	84 c0		 test	 al, al
  00143	74 07		 je	 SHORT $LN77@LoadString@4
  00145	34 ea		 xor	 al, -22			; ffffffeaH
  00147	88 45 fb	 mov	 BYTE PTR __k$[ebp+19], al
  0014a	eb 6c		 jmp	 SHORT $LN111@LoadString@4
$LN77@LoadString@4:
  0014c	c6 45 fb ea	 mov	 BYTE PTR __k$[ebp+19], -22 ; ffffffeaH
  00150	eb 66		 jmp	 SHORT $LN111@LoadString@4
$LN78@LoadString@4:
  00152	88 4d fa	 mov	 BYTE PTR __k$[ebp+18], cl
  00155	eb 61		 jmp	 SHORT $LN111@LoadString@4
$LN79@LoadString@4:
  00157	c6 45 f9 ec	 mov	 BYTE PTR __k$[ebp+17], -20 ; ffffffecH
  0015b	eb 5b		 jmp	 SHORT $LN111@LoadString@4
$LN80@LoadString@4:
  0015d	c6 45 f8 ed	 mov	 BYTE PTR __k$[ebp+16], -19 ; ffffffedH
  00161	eb 55		 jmp	 SHORT $LN111@LoadString@4
$LN82@LoadString@4:
  00163	88 4d f6	 mov	 BYTE PTR __k$[ebp+14], cl
  00166	eb 50		 jmp	 SHORT $LN111@LoadString@4
$LN83@LoadString@4:
  00168	c6 45 f5 ec	 mov	 BYTE PTR __k$[ebp+13], -20 ; ffffffecH
  0016c	eb 4a		 jmp	 SHORT $LN111@LoadString@4
$LN84@LoadString@4:
  0016e	c6 45 f4 ed	 mov	 BYTE PTR __k$[ebp+12], -19 ; ffffffedH
  00172	eb 44		 jmp	 SHORT $LN111@LoadString@4
$LN85@LoadString@4:
  00174	c6 45 f3 ea	 mov	 BYTE PTR __k$[ebp+11], -22 ; ffffffeaH
  00178	eb 3e		 jmp	 SHORT $LN111@LoadString@4
$LN86@LoadString@4:
  0017a	88 4d f2	 mov	 BYTE PTR __k$[ebp+10], cl
  0017d	eb 39		 jmp	 SHORT $LN111@LoadString@4
$LN87@LoadString@4:
  0017f	c6 45 f1 ec	 mov	 BYTE PTR __k$[ebp+9], -20 ; ffffffecH
  00183	eb 33		 jmp	 SHORT $LN111@LoadString@4
$LN88@LoadString@4:
  00185	c6 45 f0 ed	 mov	 BYTE PTR __k$[ebp+8], -19 ; ffffffedH
  00189	eb 2d		 jmp	 SHORT $LN111@LoadString@4
$LN89@LoadString@4:
  0018b	c6 45 ef ea	 mov	 BYTE PTR __k$[ebp+7], -22 ; ffffffeaH
  0018f	eb 27		 jmp	 SHORT $LN111@LoadString@4
$LN90@LoadString@4:
  00191	88 4d ee	 mov	 BYTE PTR __k$[ebp+6], cl
  00194	eb 22		 jmp	 SHORT $LN111@LoadString@4
$LN91@LoadString@4:
  00196	c6 45 ed ec	 mov	 BYTE PTR __k$[ebp+5], -20 ; ffffffecH
  0019a	eb 1c		 jmp	 SHORT $LN111@LoadString@4
$LN92@LoadString@4:
  0019c	c6 45 ec ed	 mov	 BYTE PTR __k$[ebp+4], -19 ; ffffffedH
  001a0	eb 16		 jmp	 SHORT $LN111@LoadString@4
$LN93@LoadString@4:
  001a2	c6 45 eb ea	 mov	 BYTE PTR __k$[ebp+3], -22 ; ffffffeaH
  001a6	eb 10		 jmp	 SHORT $LN111@LoadString@4
$LN94@LoadString@4:
  001a8	c6 45 ea eb	 mov	 BYTE PTR __k$[ebp+2], -21 ; ffffffebH
  001ac	eb 0a		 jmp	 SHORT $LN111@LoadString@4
$LN95@LoadString@4:
  001ae	c6 45 e9 ec	 mov	 BYTE PTR __k$[ebp+1], -20 ; ffffffecH
  001b2	eb 04		 jmp	 SHORT $LN111@LoadString@4
$LN96@LoadString@4:
  001b4	c6 45 e8 ed	 mov	 BYTE PTR __k$[ebp], -19	; ffffffedH
$LN111@LoadString@4:
  001b8	6a 03		 push	 3
  001ba	8d 45 e8	 lea	 eax, DWORD PTR __k$[ebp]
  001bd	c6 45 f7 00	 mov	 BYTE PTR __k$[ebp+15], 0
  001c1	5a		 pop	 edx
$LL104@LoadString@4:
  001c2	81 30 ed ec eb
	ea		 xor	 DWORD PTR [eax], -353637139 ; eaebecedH
  001c8	83 c0 04	 add	 eax, 4
  001cb	4a		 dec	 edx
  001cc	75 f4		 jne	 SHORT $LL104@LoadString@4
  001ce	6a 0c		 push	 12			; 0000000cH
  001d0	58		 pop	 eax
$LL101@LoadString@4:
  001d1	8b c8		 mov	 ecx, eax
  001d3	81 e1 03 00 00
	80		 and	 ecx, -2147483645	; 80000003H
  001d9	79 05		 jns	 SHORT $LN112@LoadString@4
  001db	49		 dec	 ecx
  001dc	83 c9 fc	 or	 ecx, -4			; fffffffcH
  001df	41		 inc	 ecx
$LN112@LoadString@4:
  001e0	b2 ed		 mov	 dl, -19			; ffffffedH
  001e2	2a d1		 sub	 dl, cl
  001e4	30 54 05 e8	 xor	 BYTE PTR __k$[ebp+eax], dl
  001e8	40		 inc	 eax
  001e9	83 f8 0f	 cmp	 eax, 15			; 0000000fH
  001ec	7c e3		 jl	 SHORT $LL101@LoadString@4

; 163  : 		LoadString(_k, d, b, i);

  001ee	ff 75 14	 push	 DWORD PTR _i$[ebp]
  001f1	8b 4d e4	 mov	 ecx, DWORD PTR _this$GSCopy$[ebp]
  001f4	57		 push	 edi
  001f5	56		 push	 esi
  001f6	8d 45 e8	 lea	 eax, DWORD PTR __k$[ebp]
  001f9	50		 push	 eax
  001fa	ff 15 00 00 00
	00		 call	 DWORD PTR __imp_?LoadStringA@ioINILoader@@QAEXPBD0PADH@Z

; 164  : 	}

  00200	8b 4d fc	 mov	 ecx, DWORD PTR __$ArrayPad$[ebp]
  00203	5f		 pop	 edi
  00204	33 cd		 xor	 ecx, ebp
  00206	5e		 pop	 esi
  00207	e8 00 00 00 00	 call	 @__security_check_cookie@4
  0020c	c9		 leave
  0020d	c2 10 00	 ret	 16			; 00000010H
??$LoadString_e@$0BA@@ioINILoader@@QAEXAAY0BA@$$CBDAAY00$$CBDPADH@Z ENDP ; ioINILoader::LoadString_e<16>
_TEXT	ENDS
PUBLIC	__$ArrayPad$
PUBLIC	??$LoadFloat_e@$0BC@@ioINILoader@@QAEMAAY0BC@$$CBDM@Z ; ioINILoader::LoadFloat_e<18>
; Function compile flags: /Ogsp
;	COMDAT ??$LoadFloat_e@$0BC@@ioINILoader@@QAEMAAY0BC@$$CBDM@Z
_TEXT	SEGMENT
__k$ = -28						; size = 18
__$ArrayPad$ = -4					; size = 4
_k$ = 8							; size = 4
_f$ = 12						; size = 4
??$LoadFloat_e@$0BC@@ioINILoader@@QAEMAAY0BC@$$CBDM@Z PROC ; ioINILoader::LoadFloat_e<18>, COMDAT
; _this$ = ecx

; 135  : 	{

  00000	55		 push	 ebp
  00001	8b ec		 mov	 ebp, esp
  00003	83 ec 1c	 sub	 esp, 28			; 0000001cH
  00006	a1 00 00 00 00	 mov	 eax, DWORD PTR ___security_cookie
  0000b	33 c5		 xor	 eax, ebp
  0000d	89 45 fc	 mov	 DWORD PTR __$ArrayPad$[ebp], eax
  00010	8b 45 08	 mov	 eax, DWORD PTR _k$[ebp]

; 136  : 		_ENCSTR(k, _k);

  00013	8a 10		 mov	 dl, BYTE PTR [eax]
  00015	56		 push	 esi
  00016	8b f1		 mov	 esi, ecx
  00018	84 d2		 test	 dl, dl
  0001a	0f 84 be 01 00
	00		 je	 $LN96@LoadFloat_@3
  00020	80 f2 ed	 xor	 dl, -19			; ffffffedH
  00023	88 55 e4	 mov	 BYTE PTR __k$[ebp], dl
  00026	8a 50 01	 mov	 dl, BYTE PTR [eax+1]
  00029	84 d2		 test	 dl, dl
  0002b	0f 84 a7 01 00
	00		 je	 $LN95@LoadFloat_@3
  00031	80 f2 ec	 xor	 dl, -20			; ffffffecH
  00034	88 55 e5	 mov	 BYTE PTR __k$[ebp+1], dl
  00037	8a 50 02	 mov	 dl, BYTE PTR [eax+2]
  0003a	84 d2		 test	 dl, dl
  0003c	0f 84 90 01 00
	00		 je	 $LN94@LoadFloat_@3
  00042	b1 eb		 mov	 cl, -21			; ffffffebH
  00044	32 d1		 xor	 dl, cl
  00046	88 55 e6	 mov	 BYTE PTR __k$[ebp+2], dl
  00049	8a 50 03	 mov	 dl, BYTE PTR [eax+3]
  0004c	84 d2		 test	 dl, dl
  0004e	0f 84 78 01 00
	00		 je	 $LN93@LoadFloat_@3
  00054	80 f2 ea	 xor	 dl, -22			; ffffffeaH
  00057	88 55 e7	 mov	 BYTE PTR __k$[ebp+3], dl
  0005a	8a 50 04	 mov	 dl, BYTE PTR [eax+4]
  0005d	84 d2		 test	 dl, dl
  0005f	0f 84 61 01 00
	00		 je	 $LN92@LoadFloat_@3
  00065	80 f2 ed	 xor	 dl, -19			; ffffffedH
  00068	88 55 e8	 mov	 BYTE PTR __k$[ebp+4], dl
  0006b	8a 50 05	 mov	 dl, BYTE PTR [eax+5]
  0006e	84 d2		 test	 dl, dl
  00070	0f 84 4a 01 00
	00		 je	 $LN91@LoadFloat_@3
  00076	80 f2 ec	 xor	 dl, -20			; ffffffecH
  00079	88 55 e9	 mov	 BYTE PTR __k$[ebp+5], dl
  0007c	8a 50 06	 mov	 dl, BYTE PTR [eax+6]
  0007f	84 d2		 test	 dl, dl
  00081	0f 84 34 01 00
	00		 je	 $LN90@LoadFloat_@3
  00087	32 d1		 xor	 dl, cl
  00089	88 55 ea	 mov	 BYTE PTR __k$[ebp+6], dl
  0008c	8a 50 07	 mov	 dl, BYTE PTR [eax+7]
  0008f	84 d2		 test	 dl, dl
  00091	0f 84 1e 01 00
	00		 je	 $LN89@LoadFloat_@3
  00097	80 f2 ea	 xor	 dl, -22			; ffffffeaH
  0009a	88 55 eb	 mov	 BYTE PTR __k$[ebp+7], dl
  0009d	8a 50 08	 mov	 dl, BYTE PTR [eax+8]
  000a0	84 d2		 test	 dl, dl
  000a2	0f 84 07 01 00
	00		 je	 $LN88@LoadFloat_@3
  000a8	80 f2 ed	 xor	 dl, -19			; ffffffedH
  000ab	88 55 ec	 mov	 BYTE PTR __k$[ebp+8], dl
  000ae	8a 50 09	 mov	 dl, BYTE PTR [eax+9]
  000b1	84 d2		 test	 dl, dl
  000b3	0f 84 f0 00 00
	00		 je	 $LN87@LoadFloat_@3
  000b9	80 f2 ec	 xor	 dl, -20			; ffffffecH
  000bc	88 55 ed	 mov	 BYTE PTR __k$[ebp+9], dl
  000bf	8a 50 0a	 mov	 dl, BYTE PTR [eax+10]
  000c2	84 d2		 test	 dl, dl
  000c4	0f 84 da 00 00
	00		 je	 $LN86@LoadFloat_@3
  000ca	32 d1		 xor	 dl, cl
  000cc	88 55 ee	 mov	 BYTE PTR __k$[ebp+10], dl
  000cf	8a 50 0b	 mov	 dl, BYTE PTR [eax+11]
  000d2	84 d2		 test	 dl, dl
  000d4	0f 84 c4 00 00
	00		 je	 $LN85@LoadFloat_@3
  000da	80 f2 ea	 xor	 dl, -22			; ffffffeaH
  000dd	88 55 ef	 mov	 BYTE PTR __k$[ebp+11], dl
  000e0	8a 50 0c	 mov	 dl, BYTE PTR [eax+12]
  000e3	84 d2		 test	 dl, dl
  000e5	0f 84 ad 00 00
	00		 je	 $LN84@LoadFloat_@3
  000eb	80 f2 ed	 xor	 dl, -19			; ffffffedH
  000ee	88 55 f0	 mov	 BYTE PTR __k$[ebp+12], dl
  000f1	8a 50 0d	 mov	 dl, BYTE PTR [eax+13]
  000f4	84 d2		 test	 dl, dl
  000f6	0f 84 96 00 00
	00		 je	 $LN83@LoadFloat_@3
  000fc	80 f2 ec	 xor	 dl, -20			; ffffffecH
  000ff	88 55 f1	 mov	 BYTE PTR __k$[ebp+13], dl
  00102	8a 50 0e	 mov	 dl, BYTE PTR [eax+14]
  00105	84 d2		 test	 dl, dl
  00107	0f 84 80 00 00
	00		 je	 $LN82@LoadFloat_@3
  0010d	32 d1		 xor	 dl, cl
  0010f	88 55 f2	 mov	 BYTE PTR __k$[ebp+14], dl
  00112	8a 50 0f	 mov	 dl, BYTE PTR [eax+15]
  00115	84 d2		 test	 dl, dl
  00117	74 6e		 je	 SHORT $LN81@LoadFloat_@3
  00119	80 f2 ea	 xor	 dl, -22			; ffffffeaH
  0011c	88 55 f3	 mov	 BYTE PTR __k$[ebp+15], dl
  0011f	8a 50 10	 mov	 dl, BYTE PTR [eax+16]
  00122	84 d2		 test	 dl, dl
  00124	74 5b		 je	 SHORT $LN80@LoadFloat_@3
  00126	80 f2 ed	 xor	 dl, -19			; ffffffedH
  00129	80 78 11 00	 cmp	 BYTE PTR [eax+17], 0
  0012d	88 55 f4	 mov	 BYTE PTR __k$[ebp+16], dl
  00130	0f 84 ac 00 00
	00		 je	 $LN1@LoadFloat_@3
  00136	8a 50 12	 mov	 dl, BYTE PTR [eax+18]
  00139	84 d2		 test	 dl, dl
  0013b	74 3f		 je	 SHORT $LN78@LoadFloat_@3
  0013d	32 d1		 xor	 dl, cl
  0013f	88 55 f6	 mov	 BYTE PTR __k$[ebp+18], dl
  00142	8a 50 13	 mov	 dl, BYTE PTR [eax+19]
  00145	84 d2		 test	 dl, dl
  00147	74 2d		 je	 SHORT $LN77@LoadFloat_@3
  00149	80 f2 ea	 xor	 dl, -22			; ffffffeaH
  0014c	88 55 f7	 mov	 BYTE PTR __k$[ebp+19], dl
  0014f	8a 50 14	 mov	 dl, BYTE PTR [eax+20]
  00152	84 d2		 test	 dl, dl
  00154	74 1a		 je	 SHORT $LN76@LoadFloat_@3
  00156	8a 40 15	 mov	 al, BYTE PTR [eax+21]
  00159	80 f2 ed	 xor	 dl, -19			; ffffffedH
  0015c	88 55 f8	 mov	 BYTE PTR __k$[ebp+20], dl
  0015f	84 c0		 test	 al, al
  00161	74 07		 je	 SHORT $LN75@LoadFloat_@3
  00163	34 ec		 xor	 al, -20			; ffffffecH
  00165	88 45 f9	 mov	 BYTE PTR __k$[ebp+21], al
  00168	eb 78		 jmp	 SHORT $LN1@LoadFloat_@3
$LN75@LoadFloat_@3:
  0016a	c6 45 f9 ec	 mov	 BYTE PTR __k$[ebp+21], -20 ; ffffffecH
  0016e	eb 72		 jmp	 SHORT $LN1@LoadFloat_@3
$LN76@LoadFloat_@3:
  00170	c6 45 f8 ed	 mov	 BYTE PTR __k$[ebp+20], -19 ; ffffffedH
  00174	eb 6c		 jmp	 SHORT $LN1@LoadFloat_@3
$LN77@LoadFloat_@3:
  00176	c6 45 f7 ea	 mov	 BYTE PTR __k$[ebp+19], -22 ; ffffffeaH
  0017a	eb 66		 jmp	 SHORT $LN1@LoadFloat_@3
$LN78@LoadFloat_@3:
  0017c	88 4d f6	 mov	 BYTE PTR __k$[ebp+18], cl
  0017f	eb 61		 jmp	 SHORT $LN1@LoadFloat_@3
$LN80@LoadFloat_@3:
  00181	c6 45 f4 ed	 mov	 BYTE PTR __k$[ebp+16], -19 ; ffffffedH
  00185	eb 5b		 jmp	 SHORT $LN1@LoadFloat_@3
$LN81@LoadFloat_@3:
  00187	c6 45 f3 ea	 mov	 BYTE PTR __k$[ebp+15], -22 ; ffffffeaH
  0018b	eb 55		 jmp	 SHORT $LN1@LoadFloat_@3
$LN82@LoadFloat_@3:
  0018d	88 4d f2	 mov	 BYTE PTR __k$[ebp+14], cl
  00190	eb 50		 jmp	 SHORT $LN1@LoadFloat_@3
$LN83@LoadFloat_@3:
  00192	c6 45 f1 ec	 mov	 BYTE PTR __k$[ebp+13], -20 ; ffffffecH
  00196	eb 4a		 jmp	 SHORT $LN1@LoadFloat_@3
$LN84@LoadFloat_@3:
  00198	c6 45 f0 ed	 mov	 BYTE PTR __k$[ebp+12], -19 ; ffffffedH
  0019c	eb 44		 jmp	 SHORT $LN1@LoadFloat_@3
$LN85@LoadFloat_@3:
  0019e	c6 45 ef ea	 mov	 BYTE PTR __k$[ebp+11], -22 ; ffffffeaH
  001a2	eb 3e		 jmp	 SHORT $LN1@LoadFloat_@3
$LN86@LoadFloat_@3:
  001a4	88 4d ee	 mov	 BYTE PTR __k$[ebp+10], cl
  001a7	eb 39		 jmp	 SHORT $LN1@LoadFloat_@3
$LN87@LoadFloat_@3:
  001a9	c6 45 ed ec	 mov	 BYTE PTR __k$[ebp+9], -20 ; ffffffecH
  001ad	eb 33		 jmp	 SHORT $LN1@LoadFloat_@3
$LN88@LoadFloat_@3:
  001af	c6 45 ec ed	 mov	 BYTE PTR __k$[ebp+8], -19 ; ffffffedH
  001b3	eb 2d		 jmp	 SHORT $LN1@LoadFloat_@3
$LN89@LoadFloat_@3:
  001b5	c6 45 eb ea	 mov	 BYTE PTR __k$[ebp+7], -22 ; ffffffeaH
  001b9	eb 27		 jmp	 SHORT $LN1@LoadFloat_@3
$LN90@LoadFloat_@3:
  001bb	88 4d ea	 mov	 BYTE PTR __k$[ebp+6], cl
  001be	eb 22		 jmp	 SHORT $LN1@LoadFloat_@3
$LN91@LoadFloat_@3:
  001c0	c6 45 e9 ec	 mov	 BYTE PTR __k$[ebp+5], -20 ; ffffffecH
  001c4	eb 1c		 jmp	 SHORT $LN1@LoadFloat_@3
$LN92@LoadFloat_@3:
  001c6	c6 45 e8 ed	 mov	 BYTE PTR __k$[ebp+4], -19 ; ffffffedH
  001ca	eb 16		 jmp	 SHORT $LN1@LoadFloat_@3
$LN93@LoadFloat_@3:
  001cc	c6 45 e7 ea	 mov	 BYTE PTR __k$[ebp+3], -22 ; ffffffeaH
  001d0	eb 10		 jmp	 SHORT $LN1@LoadFloat_@3
$LN94@LoadFloat_@3:
  001d2	c6 45 e6 eb	 mov	 BYTE PTR __k$[ebp+2], -21 ; ffffffebH
  001d6	eb 0a		 jmp	 SHORT $LN1@LoadFloat_@3
$LN95@LoadFloat_@3:
  001d8	c6 45 e5 ec	 mov	 BYTE PTR __k$[ebp+1], -20 ; ffffffecH
  001dc	eb 04		 jmp	 SHORT $LN1@LoadFloat_@3
$LN96@LoadFloat_@3:
  001de	c6 45 e4 ed	 mov	 BYTE PTR __k$[ebp], -19	; ffffffedH
$LN1@LoadFloat_@3:
  001e2	6a 04		 push	 4
  001e4	8d 45 e4	 lea	 eax, DWORD PTR __k$[ebp]
  001e7	c6 45 f5 00	 mov	 BYTE PTR __k$[ebp+17], 0
  001eb	5a		 pop	 edx
$LL104@LoadFloat_@3:
  001ec	81 30 ed ec eb
	ea		 xor	 DWORD PTR [eax], -353637139 ; eaebecedH
  001f2	83 c0 04	 add	 eax, 4
  001f5	4a		 dec	 edx
  001f6	75 f4		 jne	 SHORT $LL104@LoadFloat_@3

; 137  : 		return LoadFloat(_k, f);

  001f8	f3 0f 10 45 0c	 movss	 xmm0, DWORD PTR _f$[ebp]
  001fd	80 75 f4 ed	 xor	 BYTE PTR __k$[ebp+16], -19 ; ffffffedH
  00201	51		 push	 ecx
  00202	8d 45 e4	 lea	 eax, DWORD PTR __k$[ebp]
  00205	f3 0f 11 04 24	 movss	 DWORD PTR [esp], xmm0
  0020a	50		 push	 eax
  0020b	8b ce		 mov	 ecx, esi
  0020d	ff 15 00 00 00
	00		 call	 DWORD PTR __imp_?LoadFloat@ioINILoader@@QAEMPBDM@Z

; 138  : 	}

  00213	8b 4d fc	 mov	 ecx, DWORD PTR __$ArrayPad$[ebp]
  00216	33 cd		 xor	 ecx, ebp
  00218	5e		 pop	 esi
  00219	e8 00 00 00 00	 call	 @__security_check_cookie@4
  0021e	c9		 leave
  0021f	c2 08 00	 ret	 8
??$LoadFloat_e@$0BC@@ioINILoader@@QAEMAAY0BC@$$CBDM@Z ENDP ; ioINILoader::LoadFloat_e<18>
_TEXT	ENDS
PUBLIC	__$ArrayPad$
PUBLIC	??$LoadInt_e@$0BA@@ioINILoader@@QAEHAAY0BA@$$CBDH@Z ; ioINILoader::LoadInt_e<16>
; Function compile flags: /Ogsp
;	COMDAT ??$LoadInt_e@$0BA@@ioINILoader@@QAEHAAY0BA@$$CBDH@Z
_TEXT	SEGMENT
__k$ = -24						; size = 16
__$ArrayPad$ = -4					; size = 4
_k$ = 8							; size = 4
_i$ = 12						; size = 4
??$LoadInt_e@$0BA@@ioINILoader@@QAEHAAY0BA@$$CBDH@Z PROC ; ioINILoader::LoadInt_e<16>, COMDAT
; _this$ = ecx

; 118  : 	{

  00000	55		 push	 ebp
  00001	8b ec		 mov	 ebp, esp
  00003	83 ec 18	 sub	 esp, 24			; 00000018H
  00006	a1 00 00 00 00	 mov	 eax, DWORD PTR ___security_cookie
  0000b	33 c5		 xor	 eax, ebp
  0000d	89 45 fc	 mov	 DWORD PTR __$ArrayPad$[ebp], eax
  00010	8b 45 08	 mov	 eax, DWORD PTR _k$[ebp]

; 119  : 		_ENCSTR(k, _k);

  00013	8a 10		 mov	 dl, BYTE PTR [eax]
  00015	56		 push	 esi
  00016	8b f1		 mov	 esi, ecx
  00018	84 d2		 test	 dl, dl
  0001a	0f 84 8c 01 00
	00		 je	 $LN96@LoadInt_e@2
  00020	80 f2 ed	 xor	 dl, -19			; ffffffedH
  00023	88 55 e8	 mov	 BYTE PTR __k$[ebp], dl
  00026	8a 50 01	 mov	 dl, BYTE PTR [eax+1]
  00029	84 d2		 test	 dl, dl
  0002b	0f 84 75 01 00
	00		 je	 $LN95@LoadInt_e@2
  00031	80 f2 ec	 xor	 dl, -20			; ffffffecH
  00034	88 55 e9	 mov	 BYTE PTR __k$[ebp+1], dl
  00037	8a 50 02	 mov	 dl, BYTE PTR [eax+2]
  0003a	84 d2		 test	 dl, dl
  0003c	0f 84 5e 01 00
	00		 je	 $LN94@LoadInt_e@2
  00042	b1 eb		 mov	 cl, -21			; ffffffebH
  00044	32 d1		 xor	 dl, cl
  00046	88 55 ea	 mov	 BYTE PTR __k$[ebp+2], dl
  00049	8a 50 03	 mov	 dl, BYTE PTR [eax+3]
  0004c	84 d2		 test	 dl, dl
  0004e	0f 84 46 01 00
	00		 je	 $LN93@LoadInt_e@2
  00054	80 f2 ea	 xor	 dl, -22			; ffffffeaH
  00057	88 55 eb	 mov	 BYTE PTR __k$[ebp+3], dl
  0005a	8a 50 04	 mov	 dl, BYTE PTR [eax+4]
  0005d	84 d2		 test	 dl, dl
  0005f	0f 84 2f 01 00
	00		 je	 $LN92@LoadInt_e@2
  00065	80 f2 ed	 xor	 dl, -19			; ffffffedH
  00068	88 55 ec	 mov	 BYTE PTR __k$[ebp+4], dl
  0006b	8a 50 05	 mov	 dl, BYTE PTR [eax+5]
  0006e	84 d2		 test	 dl, dl
  00070	0f 84 18 01 00
	00		 je	 $LN91@LoadInt_e@2
  00076	80 f2 ec	 xor	 dl, -20			; ffffffecH
  00079	88 55 ed	 mov	 BYTE PTR __k$[ebp+5], dl
  0007c	8a 50 06	 mov	 dl, BYTE PTR [eax+6]
  0007f	84 d2		 test	 dl, dl
  00081	0f 84 02 01 00
	00		 je	 $LN90@LoadInt_e@2
  00087	32 d1		 xor	 dl, cl
  00089	88 55 ee	 mov	 BYTE PTR __k$[ebp+6], dl
  0008c	8a 50 07	 mov	 dl, BYTE PTR [eax+7]
  0008f	84 d2		 test	 dl, dl
  00091	0f 84 ec 00 00
	00		 je	 $LN89@LoadInt_e@2
  00097	80 f2 ea	 xor	 dl, -22			; ffffffeaH
  0009a	88 55 ef	 mov	 BYTE PTR __k$[ebp+7], dl
  0009d	8a 50 08	 mov	 dl, BYTE PTR [eax+8]
  000a0	84 d2		 test	 dl, dl
  000a2	0f 84 d5 00 00
	00		 je	 $LN88@LoadInt_e@2
  000a8	80 f2 ed	 xor	 dl, -19			; ffffffedH
  000ab	88 55 f0	 mov	 BYTE PTR __k$[ebp+8], dl
  000ae	8a 50 09	 mov	 dl, BYTE PTR [eax+9]
  000b1	84 d2		 test	 dl, dl
  000b3	0f 84 be 00 00
	00		 je	 $LN87@LoadInt_e@2
  000b9	80 f2 ec	 xor	 dl, -20			; ffffffecH
  000bc	88 55 f1	 mov	 BYTE PTR __k$[ebp+9], dl
  000bf	8a 50 0a	 mov	 dl, BYTE PTR [eax+10]
  000c2	84 d2		 test	 dl, dl
  000c4	0f 84 a8 00 00
	00		 je	 $LN86@LoadInt_e@2
  000ca	32 d1		 xor	 dl, cl
  000cc	88 55 f2	 mov	 BYTE PTR __k$[ebp+10], dl
  000cf	8a 50 0b	 mov	 dl, BYTE PTR [eax+11]
  000d2	84 d2		 test	 dl, dl
  000d4	0f 84 92 00 00
	00		 je	 $LN85@LoadInt_e@2
  000da	80 f2 ea	 xor	 dl, -22			; ffffffeaH
  000dd	88 55 f3	 mov	 BYTE PTR __k$[ebp+11], dl
  000e0	8a 50 0c	 mov	 dl, BYTE PTR [eax+12]
  000e3	84 d2		 test	 dl, dl
  000e5	74 7f		 je	 SHORT $LN84@LoadInt_e@2
  000e7	80 f2 ed	 xor	 dl, -19			; ffffffedH
  000ea	88 55 f4	 mov	 BYTE PTR __k$[ebp+12], dl
  000ed	8a 50 0d	 mov	 dl, BYTE PTR [eax+13]
  000f0	84 d2		 test	 dl, dl
  000f2	74 6c		 je	 SHORT $LN83@LoadInt_e@2
  000f4	80 f2 ec	 xor	 dl, -20			; ffffffecH
  000f7	88 55 f5	 mov	 BYTE PTR __k$[ebp+13], dl
  000fa	8a 50 0e	 mov	 dl, BYTE PTR [eax+14]
  000fd	84 d2		 test	 dl, dl
  000ff	74 5a		 je	 SHORT $LN82@LoadInt_e@2
  00101	32 d1		 xor	 dl, cl
  00103	80 78 0f 00	 cmp	 BYTE PTR [eax+15], 0
  00107	88 55 f6	 mov	 BYTE PTR __k$[ebp+14], dl
  0010a	0f 84 a0 00 00
	00		 je	 $LN1@LoadInt_e@2
  00110	8a 50 10	 mov	 dl, BYTE PTR [eax+16]
  00113	84 d2		 test	 dl, dl
  00115	74 3e		 je	 SHORT $LN80@LoadInt_e@2
  00117	80 f2 ed	 xor	 dl, -19			; ffffffedH
  0011a	88 55 f8	 mov	 BYTE PTR __k$[ebp+16], dl
  0011d	8a 50 11	 mov	 dl, BYTE PTR [eax+17]
  00120	84 d2		 test	 dl, dl
  00122	74 2b		 je	 SHORT $LN79@LoadInt_e@2
  00124	80 f2 ec	 xor	 dl, -20			; ffffffecH
  00127	88 55 f9	 mov	 BYTE PTR __k$[ebp+17], dl
  0012a	8a 50 12	 mov	 dl, BYTE PTR [eax+18]
  0012d	84 d2		 test	 dl, dl
  0012f	74 19		 je	 SHORT $LN78@LoadInt_e@2
  00131	8a 40 13	 mov	 al, BYTE PTR [eax+19]
  00134	32 d1		 xor	 dl, cl
  00136	88 55 fa	 mov	 BYTE PTR __k$[ebp+18], dl
  00139	84 c0		 test	 al, al
  0013b	74 07		 je	 SHORT $LN77@LoadInt_e@2
  0013d	34 ea		 xor	 al, -22			; ffffffeaH
  0013f	88 45 fb	 mov	 BYTE PTR __k$[ebp+19], al
  00142	eb 6c		 jmp	 SHORT $LN1@LoadInt_e@2
$LN77@LoadInt_e@2:
  00144	c6 45 fb ea	 mov	 BYTE PTR __k$[ebp+19], -22 ; ffffffeaH
  00148	eb 66		 jmp	 SHORT $LN1@LoadInt_e@2
$LN78@LoadInt_e@2:
  0014a	88 4d fa	 mov	 BYTE PTR __k$[ebp+18], cl
  0014d	eb 61		 jmp	 SHORT $LN1@LoadInt_e@2
$LN79@LoadInt_e@2:
  0014f	c6 45 f9 ec	 mov	 BYTE PTR __k$[ebp+17], -20 ; ffffffecH
  00153	eb 5b		 jmp	 SHORT $LN1@LoadInt_e@2
$LN80@LoadInt_e@2:
  00155	c6 45 f8 ed	 mov	 BYTE PTR __k$[ebp+16], -19 ; ffffffedH
  00159	eb 55		 jmp	 SHORT $LN1@LoadInt_e@2
$LN82@LoadInt_e@2:
  0015b	88 4d f6	 mov	 BYTE PTR __k$[ebp+14], cl
  0015e	eb 50		 jmp	 SHORT $LN1@LoadInt_e@2
$LN83@LoadInt_e@2:
  00160	c6 45 f5 ec	 mov	 BYTE PTR __k$[ebp+13], -20 ; ffffffecH
  00164	eb 4a		 jmp	 SHORT $LN1@LoadInt_e@2
$LN84@LoadInt_e@2:
  00166	c6 45 f4 ed	 mov	 BYTE PTR __k$[ebp+12], -19 ; ffffffedH
  0016a	eb 44		 jmp	 SHORT $LN1@LoadInt_e@2
$LN85@LoadInt_e@2:
  0016c	c6 45 f3 ea	 mov	 BYTE PTR __k$[ebp+11], -22 ; ffffffeaH
  00170	eb 3e		 jmp	 SHORT $LN1@LoadInt_e@2
$LN86@LoadInt_e@2:
  00172	88 4d f2	 mov	 BYTE PTR __k$[ebp+10], cl
  00175	eb 39		 jmp	 SHORT $LN1@LoadInt_e@2
$LN87@LoadInt_e@2:
  00177	c6 45 f1 ec	 mov	 BYTE PTR __k$[ebp+9], -20 ; ffffffecH
  0017b	eb 33		 jmp	 SHORT $LN1@LoadInt_e@2
$LN88@LoadInt_e@2:
  0017d	c6 45 f0 ed	 mov	 BYTE PTR __k$[ebp+8], -19 ; ffffffedH
  00181	eb 2d		 jmp	 SHORT $LN1@LoadInt_e@2
$LN89@LoadInt_e@2:
  00183	c6 45 ef ea	 mov	 BYTE PTR __k$[ebp+7], -22 ; ffffffeaH
  00187	eb 27		 jmp	 SHORT $LN1@LoadInt_e@2
$LN90@LoadInt_e@2:
  00189	88 4d ee	 mov	 BYTE PTR __k$[ebp+6], cl
  0018c	eb 22		 jmp	 SHORT $LN1@LoadInt_e@2
$LN91@LoadInt_e@2:
  0018e	c6 45 ed ec	 mov	 BYTE PTR __k$[ebp+5], -20 ; ffffffecH
  00192	eb 1c		 jmp	 SHORT $LN1@LoadInt_e@2
$LN92@LoadInt_e@2:
  00194	c6 45 ec ed	 mov	 BYTE PTR __k$[ebp+4], -19 ; ffffffedH
  00198	eb 16		 jmp	 SHORT $LN1@LoadInt_e@2
$LN93@LoadInt_e@2:
  0019a	c6 45 eb ea	 mov	 BYTE PTR __k$[ebp+3], -22 ; ffffffeaH
  0019e	eb 10		 jmp	 SHORT $LN1@LoadInt_e@2
$LN94@LoadInt_e@2:
  001a0	c6 45 ea eb	 mov	 BYTE PTR __k$[ebp+2], -21 ; ffffffebH
  001a4	eb 0a		 jmp	 SHORT $LN1@LoadInt_e@2
$LN95@LoadInt_e@2:
  001a6	c6 45 e9 ec	 mov	 BYTE PTR __k$[ebp+1], -20 ; ffffffecH
  001aa	eb 04		 jmp	 SHORT $LN1@LoadInt_e@2
$LN96@LoadInt_e@2:
  001ac	c6 45 e8 ed	 mov	 BYTE PTR __k$[ebp], -19	; ffffffedH
$LN1@LoadInt_e@2:
  001b0	6a 03		 push	 3
  001b2	8d 45 e8	 lea	 eax, DWORD PTR __k$[ebp]
  001b5	c6 45 f7 00	 mov	 BYTE PTR __k$[ebp+15], 0
  001b9	5a		 pop	 edx
$LL104@LoadInt_e@2:
  001ba	81 30 ed ec eb
	ea		 xor	 DWORD PTR [eax], -353637139 ; eaebecedH
  001c0	83 c0 04	 add	 eax, 4
  001c3	4a		 dec	 edx
  001c4	75 f4		 jne	 SHORT $LL104@LoadInt_e@2
  001c6	6a 0c		 push	 12			; 0000000cH
  001c8	58		 pop	 eax
$LL101@LoadInt_e@2:
  001c9	8b c8		 mov	 ecx, eax
  001cb	81 e1 03 00 00
	80		 and	 ecx, -2147483645	; 80000003H
  001d1	79 05		 jns	 SHORT $LN111@LoadInt_e@2
  001d3	49		 dec	 ecx
  001d4	83 c9 fc	 or	 ecx, -4			; fffffffcH
  001d7	41		 inc	 ecx
$LN111@LoadInt_e@2:
  001d8	b2 ed		 mov	 dl, -19			; ffffffedH
  001da	2a d1		 sub	 dl, cl
  001dc	30 54 05 e8	 xor	 BYTE PTR __k$[ebp+eax], dl
  001e0	40		 inc	 eax
  001e1	83 f8 0f	 cmp	 eax, 15			; 0000000fH
  001e4	7c e3		 jl	 SHORT $LL101@LoadInt_e@2

; 120  : 		return LoadInt(_k, i);

  001e6	ff 75 0c	 push	 DWORD PTR _i$[ebp]
  001e9	8d 45 e8	 lea	 eax, DWORD PTR __k$[ebp]
  001ec	50		 push	 eax
  001ed	8b ce		 mov	 ecx, esi
  001ef	ff 15 00 00 00
	00		 call	 DWORD PTR __imp_?LoadInt@ioINILoader@@QAEHPBDH@Z

; 121  : 	}

  001f5	8b 4d fc	 mov	 ecx, DWORD PTR __$ArrayPad$[ebp]
  001f8	33 cd		 xor	 ecx, ebp
  001fa	5e		 pop	 esi
  001fb	e8 00 00 00 00	 call	 @__security_check_cookie@4
  00200	c9		 leave
  00201	c2 08 00	 ret	 8
??$LoadInt_e@$0BA@@ioINILoader@@QAEHAAY0BA@$$CBDH@Z ENDP ; ioINILoader::LoadInt_e<16>
_TEXT	ENDS
PUBLIC	??$GetAnimationEventTime_e@$0N@@ioEntityGroup@@QAEMHAAY0N@$$CBD@Z ; ioEntityGroup::GetAnimationEventTime_e<13>
EXTRN	__imp_?GetAnimationEventTime@ioEntityGroup@@QAEMHABVioHashString@@@Z:PROC
EXTRN	__imp_??0ioHashString@@QAE@PBD@Z:PROC
EXTRN	___CxxFrameHandler3:PROC
EXTRN	__EH_epilog3_GS:PROC
EXTRN	__EH_prolog3_GS:PROC
;	COMDAT xdata$x
; File d:\lost saga for developer\youtube\tutorial\source\src\lsclient\stringprotect.h
xdata$x	SEGMENT
__unwindtable$??$GetAnimationEventTime_e@$0N@@ioEntityGroup@@QAEMHAAY0N@$$CBD@Z DD 0ffffffffH
	DD	FLAT:__unwindfunclet$??$GetAnimationEventTime_e@$0N@@ioEntityGroup@@QAEMHAAY0N@$$CBD@Z$0
__ehfuncinfo$??$GetAnimationEventTime_e@$0N@@ioEntityGroup@@QAEMHAAY0N@$$CBD@Z DD 019930522H
	DD	01H
	DD	FLAT:__unwindtable$??$GetAnimationEventTime_e@$0N@@ioEntityGroup@@QAEMHAAY0N@$$CBD@Z
	DD	2 DUP(00H)
	DD	2 DUP(00H)
	DD	00H
	DD	01H
; Function compile flags: /Ogsp
; File d:\lost saga for developer\youtube\tutorial\source\src\io3dengine\ioentitygroup.h
xdata$x	ENDS
;	COMDAT ??$GetAnimationEventTime_e@$0N@@ioEntityGroup@@QAEMHAAY0N@$$CBD@Z
_TEXT	SEGMENT
$T536261 = -56						; size = 16
$T536260 = -40						; size = 4
_szEncEventType$ = -36					; size = 13
__$EHRec$ = -12						; size = 12
_id$ = 8						; size = 4
_szEventType$ = 12					; size = 4
??$GetAnimationEventTime_e@$0N@@ioEntityGroup@@QAEMHAAY0N@$$CBD@Z PROC ; ioEntityGroup::GetAnimationEventTime_e<13>, COMDAT
; _this$ = ecx

; 414  : 	{

  00000	6a 2c		 push	 44			; 0000002cH
  00002	b8 00 00 00 00	 mov	 eax, __ehhandler$??$GetAnimationEventTime_e@$0N@@ioEntityGroup@@QAEMHAAY0N@$$CBD@Z
  00007	e8 00 00 00 00	 call	 __EH_prolog3_GS
  0000c	8b 45 0c	 mov	 eax, DWORD PTR _szEventType$[ebp]
  0000f	8b f1		 mov	 esi, ecx

; 415  : 		_ENCSTR(szEventType, szEncEventType);

  00011	8a 08		 mov	 cl, BYTE PTR [eax]
  00013	84 c9		 test	 cl, cl
  00015	0f 84 49 01 00
	00		 je	 $LN96@GetAnimati
  0001b	80 f1 ed	 xor	 cl, -19			; ffffffedH
  0001e	88 4d dc	 mov	 BYTE PTR _szEncEventType$[ebp], cl
  00021	8a 48 01	 mov	 cl, BYTE PTR [eax+1]
  00024	84 c9		 test	 cl, cl
  00026	0f 84 32 01 00
	00		 je	 $LN95@GetAnimati
  0002c	80 f1 ec	 xor	 cl, -20			; ffffffecH
  0002f	88 4d dd	 mov	 BYTE PTR _szEncEventType$[ebp+1], cl
  00032	8a 48 02	 mov	 cl, BYTE PTR [eax+2]
  00035	84 c9		 test	 cl, cl
  00037	0f 84 1b 01 00
	00		 je	 $LN94@GetAnimati
  0003d	b2 eb		 mov	 dl, -21			; ffffffebH
  0003f	32 ca		 xor	 cl, dl
  00041	88 4d de	 mov	 BYTE PTR _szEncEventType$[ebp+2], cl
  00044	8a 48 03	 mov	 cl, BYTE PTR [eax+3]
  00047	84 c9		 test	 cl, cl
  00049	0f 84 03 01 00
	00		 je	 $LN93@GetAnimati
  0004f	80 f1 ea	 xor	 cl, -22			; ffffffeaH
  00052	88 4d df	 mov	 BYTE PTR _szEncEventType$[ebp+3], cl
  00055	8a 48 04	 mov	 cl, BYTE PTR [eax+4]
  00058	84 c9		 test	 cl, cl
  0005a	0f 84 ec 00 00
	00		 je	 $LN92@GetAnimati
  00060	80 f1 ed	 xor	 cl, -19			; ffffffedH
  00063	88 4d e0	 mov	 BYTE PTR _szEncEventType$[ebp+4], cl
  00066	8a 48 05	 mov	 cl, BYTE PTR [eax+5]
  00069	84 c9		 test	 cl, cl
  0006b	0f 84 d5 00 00
	00		 je	 $LN91@GetAnimati
  00071	80 f1 ec	 xor	 cl, -20			; ffffffecH
  00074	88 4d e1	 mov	 BYTE PTR _szEncEventType$[ebp+5], cl
  00077	8a 48 06	 mov	 cl, BYTE PTR [eax+6]
  0007a	84 c9		 test	 cl, cl
  0007c	0f 84 bf 00 00
	00		 je	 $LN90@GetAnimati
  00082	32 ca		 xor	 cl, dl
  00084	88 4d e2	 mov	 BYTE PTR _szEncEventType$[ebp+6], cl
  00087	8a 48 07	 mov	 cl, BYTE PTR [eax+7]
  0008a	84 c9		 test	 cl, cl
  0008c	0f 84 a9 00 00
	00		 je	 $LN89@GetAnimati
  00092	80 f1 ea	 xor	 cl, -22			; ffffffeaH
  00095	88 4d e3	 mov	 BYTE PTR _szEncEventType$[ebp+7], cl
  00098	8a 48 08	 mov	 cl, BYTE PTR [eax+8]
  0009b	84 c9		 test	 cl, cl
  0009d	0f 84 92 00 00
	00		 je	 $LN88@GetAnimati
  000a3	80 f1 ed	 xor	 cl, -19			; ffffffedH
  000a6	88 4d e4	 mov	 BYTE PTR _szEncEventType$[ebp+8], cl
  000a9	8a 48 09	 mov	 cl, BYTE PTR [eax+9]
  000ac	84 c9		 test	 cl, cl
  000ae	74 7f		 je	 SHORT $LN87@GetAnimati
  000b0	80 f1 ec	 xor	 cl, -20			; ffffffecH
  000b3	88 4d e5	 mov	 BYTE PTR _szEncEventType$[ebp+9], cl
  000b6	8a 48 0a	 mov	 cl, BYTE PTR [eax+10]
  000b9	84 c9		 test	 cl, cl
  000bb	74 6d		 je	 SHORT $LN86@GetAnimati
  000bd	32 ca		 xor	 cl, dl
  000bf	88 4d e6	 mov	 BYTE PTR _szEncEventType$[ebp+10], cl
  000c2	8a 48 0b	 mov	 cl, BYTE PTR [eax+11]
  000c5	84 c9		 test	 cl, cl
  000c7	74 5b		 je	 SHORT $LN85@GetAnimati
  000c9	80 f1 ea	 xor	 cl, -22			; ffffffeaH
  000cc	80 78 0c 00	 cmp	 BYTE PTR [eax+12], 0
  000d0	88 4d e7	 mov	 BYTE PTR _szEncEventType$[ebp+11], cl
  000d3	0f 84 8f 00 00
	00		 je	 $LN1@GetAnimati
  000d9	8a 48 0d	 mov	 cl, BYTE PTR [eax+13]
  000dc	84 c9		 test	 cl, cl
  000de	74 3e		 je	 SHORT $LN83@GetAnimati
  000e0	80 f1 ec	 xor	 cl, -20			; ffffffecH
  000e3	88 4d e9	 mov	 BYTE PTR _szEncEventType$[ebp+13], cl
  000e6	8a 48 0e	 mov	 cl, BYTE PTR [eax+14]
  000e9	84 c9		 test	 cl, cl
  000eb	74 2c		 je	 SHORT $LN82@GetAnimati
  000ed	32 ca		 xor	 cl, dl
  000ef	88 4d ea	 mov	 BYTE PTR _szEncEventType$[ebp+14], cl
  000f2	8a 48 0f	 mov	 cl, BYTE PTR [eax+15]
  000f5	84 c9		 test	 cl, cl
  000f7	74 1a		 je	 SHORT $LN81@GetAnimati
  000f9	8a 40 10	 mov	 al, BYTE PTR [eax+16]
  000fc	80 f1 ea	 xor	 cl, -22			; ffffffeaH
  000ff	88 4d eb	 mov	 BYTE PTR _szEncEventType$[ebp+15], cl
  00102	84 c0		 test	 al, al
  00104	74 07		 je	 SHORT $LN80@GetAnimati
  00106	34 ed		 xor	 al, -19			; ffffffedH
  00108	88 45 ec	 mov	 BYTE PTR _szEncEventType$[ebp+16], al
  0010b	eb 5b		 jmp	 SHORT $LN1@GetAnimati
$LN80@GetAnimati:
  0010d	c6 45 ec ed	 mov	 BYTE PTR _szEncEventType$[ebp+16], -19 ; ffffffedH
  00111	eb 55		 jmp	 SHORT $LN1@GetAnimati
$LN81@GetAnimati:
  00113	c6 45 eb ea	 mov	 BYTE PTR _szEncEventType$[ebp+15], -22 ; ffffffeaH
  00117	eb 4f		 jmp	 SHORT $LN1@GetAnimati
$LN82@GetAnimati:
  00119	88 55 ea	 mov	 BYTE PTR _szEncEventType$[ebp+14], dl
  0011c	eb 4a		 jmp	 SHORT $LN1@GetAnimati
$LN83@GetAnimati:
  0011e	c6 45 e9 ec	 mov	 BYTE PTR _szEncEventType$[ebp+13], -20 ; ffffffecH
  00122	eb 44		 jmp	 SHORT $LN1@GetAnimati
$LN85@GetAnimati:
  00124	c6 45 e7 ea	 mov	 BYTE PTR _szEncEventType$[ebp+11], -22 ; ffffffeaH
  00128	eb 3e		 jmp	 SHORT $LN1@GetAnimati
$LN86@GetAnimati:
  0012a	88 55 e6	 mov	 BYTE PTR _szEncEventType$[ebp+10], dl
  0012d	eb 39		 jmp	 SHORT $LN1@GetAnimati
$LN87@GetAnimati:
  0012f	c6 45 e5 ec	 mov	 BYTE PTR _szEncEventType$[ebp+9], -20 ; ffffffecH
  00133	eb 33		 jmp	 SHORT $LN1@GetAnimati
$LN88@GetAnimati:
  00135	c6 45 e4 ed	 mov	 BYTE PTR _szEncEventType$[ebp+8], -19 ; ffffffedH
  00139	eb 2d		 jmp	 SHORT $LN1@GetAnimati
$LN89@GetAnimati:
  0013b	c6 45 e3 ea	 mov	 BYTE PTR _szEncEventType$[ebp+7], -22 ; ffffffeaH
  0013f	eb 27		 jmp	 SHORT $LN1@GetAnimati
$LN90@GetAnimati:
  00141	88 55 e2	 mov	 BYTE PTR _szEncEventType$[ebp+6], dl
  00144	eb 22		 jmp	 SHORT $LN1@GetAnimati
$LN91@GetAnimati:
  00146	c6 45 e1 ec	 mov	 BYTE PTR _szEncEventType$[ebp+5], -20 ; ffffffecH
  0014a	eb 1c		 jmp	 SHORT $LN1@GetAnimati
$LN92@GetAnimati:
  0014c	c6 45 e0 ed	 mov	 BYTE PTR _szEncEventType$[ebp+4], -19 ; ffffffedH
  00150	eb 16		 jmp	 SHORT $LN1@GetAnimati
$LN93@GetAnimati:
  00152	c6 45 df ea	 mov	 BYTE PTR _szEncEventType$[ebp+3], -22 ; ffffffeaH
  00156	eb 10		 jmp	 SHORT $LN1@GetAnimati
$LN94@GetAnimati:
  00158	c6 45 de eb	 mov	 BYTE PTR _szEncEventType$[ebp+2], -21 ; ffffffebH
  0015c	eb 0a		 jmp	 SHORT $LN1@GetAnimati
$LN95@GetAnimati:
  0015e	c6 45 dd ec	 mov	 BYTE PTR _szEncEventType$[ebp+1], -20 ; ffffffecH
  00162	eb 04		 jmp	 SHORT $LN1@GetAnimati
$LN96@GetAnimati:
  00164	c6 45 dc ed	 mov	 BYTE PTR _szEncEventType$[ebp], -19 ; ffffffedH
$LN1@GetAnimati:
  00168	6a 03		 push	 3
  0016a	8d 45 dc	 lea	 eax, DWORD PTR _szEncEventType$[ebp]
  0016d	c6 45 e8 00	 mov	 BYTE PTR _szEncEventType$[ebp+12], 0
  00171	59		 pop	 ecx
$LL105@GetAnimati:
  00172	81 30 ed ec eb
	ea		 xor	 DWORD PTR [eax], -353637139 ; eaebecedH
  00178	83 c0 04	 add	 eax, 4
  0017b	49		 dec	 ecx
  0017c	75 f4		 jne	 SHORT $LL105@GetAnimati

; 416  : 		return GetAnimationEventTime(id, szEncEventType);

  0017e	8d 45 dc	 lea	 eax, DWORD PTR _szEncEventType$[ebp]
  00181	50		 push	 eax
  00182	8d 4d c8	 lea	 ecx, DWORD PTR $T536261[ebp]
  00185	ff 15 00 00 00
	00		 call	 DWORD PTR __imp_??0ioHashString@@QAE@PBD@Z
  0018b	83 65 fc 00	 and	 DWORD PTR __$EHRec$[ebp+8], 0
  0018f	8d 45 c8	 lea	 eax, DWORD PTR $T536261[ebp]
  00192	50		 push	 eax
  00193	ff 75 08	 push	 DWORD PTR _id$[ebp]
  00196	8b ce		 mov	 ecx, esi
  00198	ff 15 00 00 00
	00		 call	 DWORD PTR __imp_?GetAnimationEventTime@ioEntityGroup@@QAEMHABVioHashString@@@Z
  0019e	d9 5d d8	 fstp	 DWORD PTR $T536260[ebp]
  001a1	83 4d fc ff	 or	 DWORD PTR __$EHRec$[ebp+8], -1
  001a5	8d 4d c8	 lea	 ecx, DWORD PTR $T536261[ebp]
  001a8	ff 15 00 00 00
	00		 call	 DWORD PTR __imp_??1ioHashString@@QAE@XZ
  001ae	d9 45 d8	 fld	 DWORD PTR $T536260[ebp]

; 417  : 	}

  001b1	e8 00 00 00 00	 call	 __EH_epilog3_GS
  001b6	c2 08 00	 ret	 8
_TEXT	ENDS
;	COMDAT text$x
text$x	SEGMENT
__unwindfunclet$??$GetAnimationEventTime_e@$0N@@ioEntityGroup@@QAEMHAAY0N@$$CBD@Z$0:
  00000	8d 4d c8	 lea	 ecx, DWORD PTR $T536261[ebp]
  00003	ff 25 00 00 00
	00		 jmp	 DWORD PTR __imp_??1ioHashString@@QAE@XZ
__ehhandler$??$GetAnimationEventTime_e@$0N@@ioEntityGroup@@QAEMHAAY0N@$$CBD@Z:
  00009	8b 54 24 08	 mov	 edx, DWORD PTR [esp+8]
  0000d	8d 42 0c	 lea	 eax, DWORD PTR [edx+12]
  00010	8b 4a c4	 mov	 ecx, DWORD PTR [edx-60]
  00013	33 c8		 xor	 ecx, eax
  00015	e8 00 00 00 00	 call	 @__security_check_cookie@4
  0001a	8b 4a fc	 mov	 ecx, DWORD PTR [edx-4]
  0001d	33 c8		 xor	 ecx, eax
  0001f	e8 00 00 00 00	 call	 @__security_check_cookie@4
  00024	b8 00 00 00 00	 mov	 eax, OFFSET __ehfuncinfo$??$GetAnimationEventTime_e@$0N@@ioEntityGroup@@QAEMHAAY0N@$$CBD@Z
  00029	e9 00 00 00 00	 jmp	 ___CxxFrameHandler3
text$x	ENDS
??$GetAnimationEventTime_e@$0N@@ioEntityGroup@@QAEMHAAY0N@$$CBD@Z ENDP ; ioEntityGroup::GetAnimationEventTime_e<13>
PUBLIC	??$GetAnimationEventTime_e@$0M@@ioEntityGroup@@QAEMHAAY0M@$$CBD@Z ; ioEntityGroup::GetAnimationEventTime_e<12>
;	COMDAT xdata$x
; File d:\lost saga for developer\youtube\tutorial\source\src\lsclient\stringprotect.h
xdata$x	SEGMENT
__unwindtable$??$GetAnimationEventTime_e@$0M@@ioEntityGroup@@QAEMHAAY0M@$$CBD@Z DD 0ffffffffH
	DD	FLAT:__unwindfunclet$??$GetAnimationEventTime_e@$0M@@ioEntityGroup@@QAEMHAAY0M@$$CBD@Z$0
__ehfuncinfo$??$GetAnimationEventTime_e@$0M@@ioEntityGroup@@QAEMHAAY0M@$$CBD@Z DD 019930522H
	DD	01H
	DD	FLAT:__unwindtable$??$GetAnimationEventTime_e@$0M@@ioEntityGroup@@QAEMHAAY0M@$$CBD@Z
	DD	2 DUP(00H)
	DD	2 DUP(00H)
	DD	00H
	DD	01H
; Function compile flags: /Ogsp
; File d:\lost saga for developer\youtube\tutorial\source\src\io3dengine\ioentitygroup.h
xdata$x	ENDS
;	COMDAT ??$GetAnimationEventTime_e@$0M@@ioEntityGroup@@QAEMHAAY0M@$$CBD@Z
_TEXT	SEGMENT
$T536296 = -52						; size = 16
$T536295 = -36						; size = 4
_szEncEventType$ = -32					; size = 12
__$EHRec$ = -12						; size = 12
_id$ = 8						; size = 4
_szEventType$ = 12					; size = 4
??$GetAnimationEventTime_e@$0M@@ioEntityGroup@@QAEMHAAY0M@$$CBD@Z PROC ; ioEntityGroup::GetAnimationEventTime_e<12>, COMDAT
; _this$ = ecx

; 414  : 	{

  00000	6a 28		 push	 40			; 00000028H
  00002	b8 00 00 00 00	 mov	 eax, __ehhandler$??$GetAnimationEventTime_e@$0M@@ioEntityGroup@@QAEMHAAY0M@$$CBD@Z
  00007	e8 00 00 00 00	 call	 __EH_prolog3_GS
  0000c	8b 45 0c	 mov	 eax, DWORD PTR _szEventType$[ebp]
  0000f	8b f1		 mov	 esi, ecx

; 415  : 		_ENCSTR(szEventType, szEncEventType);

  00011	8a 08		 mov	 cl, BYTE PTR [eax]
  00013	84 c9		 test	 cl, cl
  00015	0f 84 36 01 00
	00		 je	 $LN96@GetAnimati@2
  0001b	b2 ed		 mov	 dl, -19			; ffffffedH
  0001d	32 ca		 xor	 cl, dl
  0001f	88 4d e0	 mov	 BYTE PTR _szEncEventType$[ebp], cl
  00022	8a 48 01	 mov	 cl, BYTE PTR [eax+1]
  00025	84 c9		 test	 cl, cl
  00027	0f 84 1e 01 00
	00		 je	 $LN95@GetAnimati@2
  0002d	80 f1 ec	 xor	 cl, -20			; ffffffecH
  00030	88 4d e1	 mov	 BYTE PTR _szEncEventType$[ebp+1], cl
  00033	8a 48 02	 mov	 cl, BYTE PTR [eax+2]
  00036	84 c9		 test	 cl, cl
  00038	0f 84 07 01 00
	00		 je	 $LN94@GetAnimati@2
  0003e	80 f1 eb	 xor	 cl, -21			; ffffffebH
  00041	88 4d e2	 mov	 BYTE PTR _szEncEventType$[ebp+2], cl
  00044	8a 48 03	 mov	 cl, BYTE PTR [eax+3]
  00047	84 c9		 test	 cl, cl
  00049	0f 84 f0 00 00
	00		 je	 $LN93@GetAnimati@2
  0004f	80 f1 ea	 xor	 cl, -22			; ffffffeaH
  00052	88 4d e3	 mov	 BYTE PTR _szEncEventType$[ebp+3], cl
  00055	8a 48 04	 mov	 cl, BYTE PTR [eax+4]
  00058	84 c9		 test	 cl, cl
  0005a	0f 84 da 00 00
	00		 je	 $LN92@GetAnimati@2
  00060	32 ca		 xor	 cl, dl
  00062	88 4d e4	 mov	 BYTE PTR _szEncEventType$[ebp+4], cl
  00065	8a 48 05	 mov	 cl, BYTE PTR [eax+5]
  00068	84 c9		 test	 cl, cl
  0006a	0f 84 c4 00 00
	00		 je	 $LN91@GetAnimati@2
  00070	80 f1 ec	 xor	 cl, -20			; ffffffecH
  00073	88 4d e5	 mov	 BYTE PTR _szEncEventType$[ebp+5], cl
  00076	8a 48 06	 mov	 cl, BYTE PTR [eax+6]
  00079	84 c9		 test	 cl, cl
  0007b	0f 84 ad 00 00
	00		 je	 $LN90@GetAnimati@2
  00081	80 f1 eb	 xor	 cl, -21			; ffffffebH
  00084	88 4d e6	 mov	 BYTE PTR _szEncEventType$[ebp+6], cl
  00087	8a 48 07	 mov	 cl, BYTE PTR [eax+7]
  0008a	84 c9		 test	 cl, cl
  0008c	0f 84 96 00 00
	00		 je	 $LN89@GetAnimati@2
  00092	80 f1 ea	 xor	 cl, -22			; ffffffeaH
  00095	88 4d e7	 mov	 BYTE PTR _szEncEventType$[ebp+7], cl
  00098	8a 48 08	 mov	 cl, BYTE PTR [eax+8]
  0009b	84 c9		 test	 cl, cl
  0009d	0f 84 80 00 00
	00		 je	 $LN88@GetAnimati@2
  000a3	32 ca		 xor	 cl, dl
  000a5	88 4d e8	 mov	 BYTE PTR _szEncEventType$[ebp+8], cl
  000a8	8a 48 09	 mov	 cl, BYTE PTR [eax+9]
  000ab	84 c9		 test	 cl, cl
  000ad	74 6e		 je	 SHORT $LN87@GetAnimati@2
  000af	80 f1 ec	 xor	 cl, -20			; ffffffecH
  000b2	88 4d e9	 mov	 BYTE PTR _szEncEventType$[ebp+9], cl
  000b5	8a 48 0a	 mov	 cl, BYTE PTR [eax+10]
  000b8	84 c9		 test	 cl, cl
  000ba	74 5b		 je	 SHORT $LN86@GetAnimati@2
  000bc	80 f1 eb	 xor	 cl, -21			; ffffffebH
  000bf	80 78 0b 00	 cmp	 BYTE PTR [eax+11], 0
  000c3	88 4d ea	 mov	 BYTE PTR _szEncEventType$[ebp+10], cl
  000c6	0f 84 89 00 00
	00		 je	 $LN1@GetAnimati@2
  000cc	8a 48 0c	 mov	 cl, BYTE PTR [eax+12]
  000cf	84 c9		 test	 cl, cl
  000d1	74 3f		 je	 SHORT $LN84@GetAnimati@2
  000d3	32 ca		 xor	 cl, dl
  000d5	88 4d ec	 mov	 BYTE PTR _szEncEventType$[ebp+12], cl
  000d8	8a 48 0d	 mov	 cl, BYTE PTR [eax+13]
  000db	84 c9		 test	 cl, cl
  000dd	74 2d		 je	 SHORT $LN83@GetAnimati@2
  000df	80 f1 ec	 xor	 cl, -20			; ffffffecH
  000e2	88 4d ed	 mov	 BYTE PTR _szEncEventType$[ebp+13], cl
  000e5	8a 48 0e	 mov	 cl, BYTE PTR [eax+14]
  000e8	84 c9		 test	 cl, cl
  000ea	74 1a		 je	 SHORT $LN82@GetAnimati@2
  000ec	8a 40 0f	 mov	 al, BYTE PTR [eax+15]
  000ef	80 f1 eb	 xor	 cl, -21			; ffffffebH
  000f2	88 4d ee	 mov	 BYTE PTR _szEncEventType$[ebp+14], cl
  000f5	84 c0		 test	 al, al
  000f7	74 07		 je	 SHORT $LN81@GetAnimati@2
  000f9	34 ea		 xor	 al, -22			; ffffffeaH
  000fb	88 45 ef	 mov	 BYTE PTR _szEncEventType$[ebp+15], al
  000fe	eb 55		 jmp	 SHORT $LN1@GetAnimati@2
$LN81@GetAnimati@2:
  00100	c6 45 ef ea	 mov	 BYTE PTR _szEncEventType$[ebp+15], -22 ; ffffffeaH
  00104	eb 4f		 jmp	 SHORT $LN1@GetAnimati@2
$LN82@GetAnimati@2:
  00106	c6 45 ee eb	 mov	 BYTE PTR _szEncEventType$[ebp+14], -21 ; ffffffebH
  0010a	eb 49		 jmp	 SHORT $LN1@GetAnimati@2
$LN83@GetAnimati@2:
  0010c	c6 45 ed ec	 mov	 BYTE PTR _szEncEventType$[ebp+13], -20 ; ffffffecH
  00110	eb 43		 jmp	 SHORT $LN1@GetAnimati@2
$LN84@GetAnimati@2:
  00112	88 55 ec	 mov	 BYTE PTR _szEncEventType$[ebp+12], dl
  00115	eb 3e		 jmp	 SHORT $LN1@GetAnimati@2
$LN86@GetAnimati@2:
  00117	c6 45 ea eb	 mov	 BYTE PTR _szEncEventType$[ebp+10], -21 ; ffffffebH
  0011b	eb 38		 jmp	 SHORT $LN1@GetAnimati@2
$LN87@GetAnimati@2:
  0011d	c6 45 e9 ec	 mov	 BYTE PTR _szEncEventType$[ebp+9], -20 ; ffffffecH
  00121	eb 32		 jmp	 SHORT $LN1@GetAnimati@2
$LN88@GetAnimati@2:
  00123	88 55 e8	 mov	 BYTE PTR _szEncEventType$[ebp+8], dl
  00126	eb 2d		 jmp	 SHORT $LN1@GetAnimati@2
$LN89@GetAnimati@2:
  00128	c6 45 e7 ea	 mov	 BYTE PTR _szEncEventType$[ebp+7], -22 ; ffffffeaH
  0012c	eb 27		 jmp	 SHORT $LN1@GetAnimati@2
$LN90@GetAnimati@2:
  0012e	c6 45 e6 eb	 mov	 BYTE PTR _szEncEventType$[ebp+6], -21 ; ffffffebH
  00132	eb 21		 jmp	 SHORT $LN1@GetAnimati@2
$LN91@GetAnimati@2:
  00134	c6 45 e5 ec	 mov	 BYTE PTR _szEncEventType$[ebp+5], -20 ; ffffffecH
  00138	eb 1b		 jmp	 SHORT $LN1@GetAnimati@2
$LN92@GetAnimati@2:
  0013a	88 55 e4	 mov	 BYTE PTR _szEncEventType$[ebp+4], dl
  0013d	eb 16		 jmp	 SHORT $LN1@GetAnimati@2
$LN93@GetAnimati@2:
  0013f	c6 45 e3 ea	 mov	 BYTE PTR _szEncEventType$[ebp+3], -22 ; ffffffeaH
  00143	eb 10		 jmp	 SHORT $LN1@GetAnimati@2
$LN94@GetAnimati@2:
  00145	c6 45 e2 eb	 mov	 BYTE PTR _szEncEventType$[ebp+2], -21 ; ffffffebH
  00149	eb 0a		 jmp	 SHORT $LN1@GetAnimati@2
$LN95@GetAnimati@2:
  0014b	c6 45 e1 ec	 mov	 BYTE PTR _szEncEventType$[ebp+1], -20 ; ffffffecH
  0014f	eb 04		 jmp	 SHORT $LN1@GetAnimati@2
$LN96@GetAnimati@2:
  00151	c6 45 e0 ed	 mov	 BYTE PTR _szEncEventType$[ebp], -19 ; ffffffedH
$LN1@GetAnimati@2:
  00155	6a 02		 push	 2
  00157	8d 45 e0	 lea	 eax, DWORD PTR _szEncEventType$[ebp]
  0015a	c6 45 eb 00	 mov	 BYTE PTR _szEncEventType$[ebp+11], 0
  0015e	59		 pop	 ecx
$LL105@GetAnimati@2:
  0015f	81 30 ed ec eb
	ea		 xor	 DWORD PTR [eax], -353637139 ; eaebecedH
  00165	83 c0 04	 add	 eax, 4
  00168	49		 dec	 ecx
  00169	75 f4		 jne	 SHORT $LL105@GetAnimati@2
  0016b	6a 08		 push	 8
  0016d	58		 pop	 eax
$LL102@GetAnimati@2:
  0016e	8b c8		 mov	 ecx, eax
  00170	81 e1 03 00 00
	80		 and	 ecx, -2147483645	; 80000003H
  00176	79 05		 jns	 SHORT $LN113@GetAnimati@2
  00178	49		 dec	 ecx
  00179	83 c9 fc	 or	 ecx, -4			; fffffffcH
  0017c	41		 inc	 ecx
$LN113@GetAnimati@2:
  0017d	b2 ed		 mov	 dl, -19			; ffffffedH
  0017f	2a d1		 sub	 dl, cl
  00181	30 54 05 e0	 xor	 BYTE PTR _szEncEventType$[ebp+eax], dl
  00185	40		 inc	 eax
  00186	83 f8 0b	 cmp	 eax, 11			; 0000000bH
  00189	7c e3		 jl	 SHORT $LL102@GetAnimati@2

; 416  : 		return GetAnimationEventTime(id, szEncEventType);

  0018b	8d 45 e0	 lea	 eax, DWORD PTR _szEncEventType$[ebp]
  0018e	50		 push	 eax
  0018f	8d 4d cc	 lea	 ecx, DWORD PTR $T536296[ebp]
  00192	ff 15 00 00 00
	00		 call	 DWORD PTR __imp_??0ioHashString@@QAE@PBD@Z
  00198	83 65 fc 00	 and	 DWORD PTR __$EHRec$[ebp+8], 0
  0019c	8d 45 cc	 lea	 eax, DWORD PTR $T536296[ebp]
  0019f	50		 push	 eax
  001a0	ff 75 08	 push	 DWORD PTR _id$[ebp]
  001a3	8b ce		 mov	 ecx, esi
  001a5	ff 15 00 00 00
	00		 call	 DWORD PTR __imp_?GetAnimationEventTime@ioEntityGroup@@QAEMHABVioHashString@@@Z
  001ab	d9 5d dc	 fstp	 DWORD PTR $T536295[ebp]
  001ae	83 4d fc ff	 or	 DWORD PTR __$EHRec$[ebp+8], -1
  001b2	8d 4d cc	 lea	 ecx, DWORD PTR $T536296[ebp]
  001b5	ff 15 00 00 00
	00		 call	 DWORD PTR __imp_??1ioHashString@@QAE@XZ
  001bb	d9 45 dc	 fld	 DWORD PTR $T536295[ebp]

; 417  : 	}

  001be	e8 00 00 00 00	 call	 __EH_epilog3_GS
  001c3	c2 08 00	 ret	 8
_TEXT	ENDS
;	COMDAT text$x
text$x	SEGMENT
__unwindfunclet$??$GetAnimationEventTime_e@$0M@@ioEntityGroup@@QAEMHAAY0M@$$CBD@Z$0:
  00000	8d 4d cc	 lea	 ecx, DWORD PTR $T536296[ebp]
  00003	ff 25 00 00 00
	00		 jmp	 DWORD PTR __imp_??1ioHashString@@QAE@XZ
__ehhandler$??$GetAnimationEventTime_e@$0M@@ioEntityGroup@@QAEMHAAY0M@$$CBD@Z:
  00009	8b 54 24 08	 mov	 edx, DWORD PTR [esp+8]
  0000d	8d 42 0c	 lea	 eax, DWORD PTR [edx+12]
  00010	8b 4a c8	 mov	 ecx, DWORD PTR [edx-56]
  00013	33 c8		 xor	 ecx, eax
  00015	e8 00 00 00 00	 call	 @__security_check_cookie@4
  0001a	8b 4a fc	 mov	 ecx, DWORD PTR [edx-4]
  0001d	33 c8		 xor	 ecx, eax
  0001f	e8 00 00 00 00	 call	 @__security_check_cookie@4
  00024	b8 00 00 00 00	 mov	 eax, OFFSET __ehfuncinfo$??$GetAnimationEventTime_e@$0M@@ioEntityGroup@@QAEMHAAY0M@$$CBD@Z
  00029	e9 00 00 00 00	 jmp	 ___CxxFrameHandler3
text$x	ENDS
??$GetAnimationEventTime_e@$0M@@ioEntityGroup@@QAEMHAAY0M@$$CBD@Z ENDP ; ioEntityGroup::GetAnimationEventTime_e<12>
PUBLIC	??$GetAnimationEventTime_e@$0L@@ioEntityGroup@@QAEMHAAY0L@$$CBD@Z ; ioEntityGroup::GetAnimationEventTime_e<11>
;	COMDAT xdata$x
; File d:\lost saga for developer\youtube\tutorial\source\src\lsclient\stringprotect.h
xdata$x	SEGMENT
__unwindtable$??$GetAnimationEventTime_e@$0L@@ioEntityGroup@@QAEMHAAY0L@$$CBD@Z DD 0ffffffffH
	DD	FLAT:__unwindfunclet$??$GetAnimationEventTime_e@$0L@@ioEntityGroup@@QAEMHAAY0L@$$CBD@Z$0
__ehfuncinfo$??$GetAnimationEventTime_e@$0L@@ioEntityGroup@@QAEMHAAY0L@$$CBD@Z DD 019930522H
	DD	01H
	DD	FLAT:__unwindtable$??$GetAnimationEventTime_e@$0L@@ioEntityGroup@@QAEMHAAY0L@$$CBD@Z
	DD	2 DUP(00H)
	DD	2 DUP(00H)
	DD	00H
	DD	01H
; Function compile flags: /Ogsp
; File d:\lost saga for developer\youtube\tutorial\source\src\io3dengine\ioentitygroup.h
xdata$x	ENDS
;	COMDAT ??$GetAnimationEventTime_e@$0L@@ioEntityGroup@@QAEMHAAY0L@$$CBD@Z
_TEXT	SEGMENT
$T536327 = -52						; size = 16
$T536326 = -36						; size = 4
_szEncEventType$ = -32					; size = 11
__$EHRec$ = -12						; size = 12
_id$ = 8						; size = 4
_szEventType$ = 12					; size = 4
??$GetAnimationEventTime_e@$0L@@ioEntityGroup@@QAEMHAAY0L@$$CBD@Z PROC ; ioEntityGroup::GetAnimationEventTime_e<11>, COMDAT
; _this$ = ecx

; 414  : 	{

  00000	6a 28		 push	 40			; 00000028H
  00002	b8 00 00 00 00	 mov	 eax, __ehhandler$??$GetAnimationEventTime_e@$0L@@ioEntityGroup@@QAEMHAAY0L@$$CBD@Z
  00007	e8 00 00 00 00	 call	 __EH_prolog3_GS
  0000c	8b 45 0c	 mov	 eax, DWORD PTR _szEventType$[ebp]
  0000f	8b f1		 mov	 esi, ecx

; 415  : 		_ENCSTR(szEventType, szEncEventType);

  00011	8a 08		 mov	 cl, BYTE PTR [eax]
  00013	84 c9		 test	 cl, cl
  00015	0f 84 1b 01 00
	00		 je	 $LN96@GetAnimati@3
  0001b	b2 ed		 mov	 dl, -19			; ffffffedH
  0001d	32 ca		 xor	 cl, dl
  0001f	88 4d e0	 mov	 BYTE PTR _szEncEventType$[ebp], cl
  00022	8a 48 01	 mov	 cl, BYTE PTR [eax+1]
  00025	84 c9		 test	 cl, cl
  00027	0f 84 03 01 00
	00		 je	 $LN95@GetAnimati@3
  0002d	80 f1 ec	 xor	 cl, -20			; ffffffecH
  00030	88 4d e1	 mov	 BYTE PTR _szEncEventType$[ebp+1], cl
  00033	8a 48 02	 mov	 cl, BYTE PTR [eax+2]
  00036	84 c9		 test	 cl, cl
  00038	0f 84 ec 00 00
	00		 je	 $LN94@GetAnimati@3
  0003e	80 f1 eb	 xor	 cl, -21			; ffffffebH
  00041	88 4d e2	 mov	 BYTE PTR _szEncEventType$[ebp+2], cl
  00044	8a 48 03	 mov	 cl, BYTE PTR [eax+3]
  00047	84 c9		 test	 cl, cl
  00049	0f 84 d5 00 00
	00		 je	 $LN93@GetAnimati@3
  0004f	80 f1 ea	 xor	 cl, -22			; ffffffeaH
  00052	88 4d e3	 mov	 BYTE PTR _szEncEventType$[ebp+3], cl
  00055	8a 48 04	 mov	 cl, BYTE PTR [eax+4]
  00058	84 c9		 test	 cl, cl
  0005a	0f 84 bf 00 00
	00		 je	 $LN92@GetAnimati@3
  00060	32 ca		 xor	 cl, dl
  00062	88 4d e4	 mov	 BYTE PTR _szEncEventType$[ebp+4], cl
  00065	8a 48 05	 mov	 cl, BYTE PTR [eax+5]
  00068	84 c9		 test	 cl, cl
  0006a	0f 84 a9 00 00
	00		 je	 $LN91@GetAnimati@3
  00070	80 f1 ec	 xor	 cl, -20			; ffffffecH
  00073	88 4d e5	 mov	 BYTE PTR _szEncEventType$[ebp+5], cl
  00076	8a 48 06	 mov	 cl, BYTE PTR [eax+6]
  00079	84 c9		 test	 cl, cl
  0007b	0f 84 92 00 00
	00		 je	 $LN90@GetAnimati@3
  00081	80 f1 eb	 xor	 cl, -21			; ffffffebH
  00084	88 4d e6	 mov	 BYTE PTR _szEncEventType$[ebp+6], cl
  00087	8a 48 07	 mov	 cl, BYTE PTR [eax+7]
  0008a	84 c9		 test	 cl, cl
  0008c	74 7f		 je	 SHORT $LN89@GetAnimati@3
  0008e	80 f1 ea	 xor	 cl, -22			; ffffffeaH
  00091	88 4d e7	 mov	 BYTE PTR _szEncEventType$[ebp+7], cl
  00094	8a 48 08	 mov	 cl, BYTE PTR [eax+8]
  00097	84 c9		 test	 cl, cl
  00099	74 6d		 je	 SHORT $LN88@GetAnimati@3
  0009b	32 ca		 xor	 cl, dl
  0009d	88 4d e8	 mov	 BYTE PTR _szEncEventType$[ebp+8], cl
  000a0	8a 48 09	 mov	 cl, BYTE PTR [eax+9]
  000a3	84 c9		 test	 cl, cl
  000a5	74 5b		 je	 SHORT $LN87@GetAnimati@3
  000a7	80 f1 ec	 xor	 cl, -20			; ffffffecH
  000aa	80 78 0a 00	 cmp	 BYTE PTR [eax+10], 0
  000ae	88 4d e9	 mov	 BYTE PTR _szEncEventType$[ebp+9], cl
  000b1	0f 84 83 00 00
	00		 je	 $LN1@GetAnimati@3
  000b7	8a 48 0b	 mov	 cl, BYTE PTR [eax+11]
  000ba	84 c9		 test	 cl, cl
  000bc	74 3e		 je	 SHORT $LN85@GetAnimati@3
  000be	80 f1 ea	 xor	 cl, -22			; ffffffeaH
  000c1	88 4d eb	 mov	 BYTE PTR _szEncEventType$[ebp+11], cl
  000c4	8a 48 0c	 mov	 cl, BYTE PTR [eax+12]
  000c7	84 c9		 test	 cl, cl
  000c9	74 2c		 je	 SHORT $LN84@GetAnimati@3
  000cb	32 ca		 xor	 cl, dl
  000cd	88 4d ec	 mov	 BYTE PTR _szEncEventType$[ebp+12], cl
  000d0	8a 48 0d	 mov	 cl, BYTE PTR [eax+13]
  000d3	84 c9		 test	 cl, cl
  000d5	74 1a		 je	 SHORT $LN83@GetAnimati@3
  000d7	8a 40 0e	 mov	 al, BYTE PTR [eax+14]
  000da	80 f1 ec	 xor	 cl, -20			; ffffffecH
  000dd	88 4d ed	 mov	 BYTE PTR _szEncEventType$[ebp+13], cl
  000e0	84 c0		 test	 al, al
  000e2	74 07		 je	 SHORT $LN82@GetAnimati@3
  000e4	34 eb		 xor	 al, -21			; ffffffebH
  000e6	88 45 ee	 mov	 BYTE PTR _szEncEventType$[ebp+14], al
  000e9	eb 4f		 jmp	 SHORT $LN1@GetAnimati@3
$LN82@GetAnimati@3:
  000eb	c6 45 ee eb	 mov	 BYTE PTR _szEncEventType$[ebp+14], -21 ; ffffffebH
  000ef	eb 49		 jmp	 SHORT $LN1@GetAnimati@3
$LN83@GetAnimati@3:
  000f1	c6 45 ed ec	 mov	 BYTE PTR _szEncEventType$[ebp+13], -20 ; ffffffecH
  000f5	eb 43		 jmp	 SHORT $LN1@GetAnimati@3
$LN84@GetAnimati@3:
  000f7	88 55 ec	 mov	 BYTE PTR _szEncEventType$[ebp+12], dl
  000fa	eb 3e		 jmp	 SHORT $LN1@GetAnimati@3
$LN85@GetAnimati@3:
  000fc	c6 45 eb ea	 mov	 BYTE PTR _szEncEventType$[ebp+11], -22 ; ffffffeaH
  00100	eb 38		 jmp	 SHORT $LN1@GetAnimati@3
$LN87@GetAnimati@3:
  00102	c6 45 e9 ec	 mov	 BYTE PTR _szEncEventType$[ebp+9], -20 ; ffffffecH
  00106	eb 32		 jmp	 SHORT $LN1@GetAnimati@3
$LN88@GetAnimati@3:
  00108	88 55 e8	 mov	 BYTE PTR _szEncEventType$[ebp+8], dl
  0010b	eb 2d		 jmp	 SHORT $LN1@GetAnimati@3
$LN89@GetAnimati@3:
  0010d	c6 45 e7 ea	 mov	 BYTE PTR _szEncEventType$[ebp+7], -22 ; ffffffeaH
  00111	eb 27		 jmp	 SHORT $LN1@GetAnimati@3
$LN90@GetAnimati@3:
  00113	c6 45 e6 eb	 mov	 BYTE PTR _szEncEventType$[ebp+6], -21 ; ffffffebH
  00117	eb 21		 jmp	 SHORT $LN1@GetAnimati@3
$LN91@GetAnimati@3:
  00119	c6 45 e5 ec	 mov	 BYTE PTR _szEncEventType$[ebp+5], -20 ; ffffffecH
  0011d	eb 1b		 jmp	 SHORT $LN1@GetAnimati@3
$LN92@GetAnimati@3:
  0011f	88 55 e4	 mov	 BYTE PTR _szEncEventType$[ebp+4], dl
  00122	eb 16		 jmp	 SHORT $LN1@GetAnimati@3
$LN93@GetAnimati@3:
  00124	c6 45 e3 ea	 mov	 BYTE PTR _szEncEventType$[ebp+3], -22 ; ffffffeaH
  00128	eb 10		 jmp	 SHORT $LN1@GetAnimati@3
$LN94@GetAnimati@3:
  0012a	c6 45 e2 eb	 mov	 BYTE PTR _szEncEventType$[ebp+2], -21 ; ffffffebH
  0012e	eb 0a		 jmp	 SHORT $LN1@GetAnimati@3
$LN95@GetAnimati@3:
  00130	c6 45 e1 ec	 mov	 BYTE PTR _szEncEventType$[ebp+1], -20 ; ffffffecH
  00134	eb 04		 jmp	 SHORT $LN1@GetAnimati@3
$LN96@GetAnimati@3:
  00136	c6 45 e0 ed	 mov	 BYTE PTR _szEncEventType$[ebp], -19 ; ffffffedH
$LN1@GetAnimati@3:
  0013a	6a 02		 push	 2
  0013c	8d 45 e0	 lea	 eax, DWORD PTR _szEncEventType$[ebp]
  0013f	c6 45 ea 00	 mov	 BYTE PTR _szEncEventType$[ebp+10], 0
  00143	59		 pop	 ecx
$LL105@GetAnimati@3:
  00144	81 30 ed ec eb
	ea		 xor	 DWORD PTR [eax], -353637139 ; eaebecedH
  0014a	83 c0 04	 add	 eax, 4
  0014d	49		 dec	 ecx
  0014e	75 f4		 jne	 SHORT $LL105@GetAnimati@3
  00150	6a 08		 push	 8
  00152	58		 pop	 eax
$LL102@GetAnimati@3:
  00153	8b c8		 mov	 ecx, eax
  00155	81 e1 03 00 00
	80		 and	 ecx, -2147483645	; 80000003H
  0015b	79 05		 jns	 SHORT $LN113@GetAnimati@3
  0015d	49		 dec	 ecx
  0015e	83 c9 fc	 or	 ecx, -4			; fffffffcH
  00161	41		 inc	 ecx
$LN113@GetAnimati@3:
  00162	b2 ed		 mov	 dl, -19			; ffffffedH
  00164	2a d1		 sub	 dl, cl
  00166	30 54 05 e0	 xor	 BYTE PTR _szEncEventType$[ebp+eax], dl
  0016a	40		 inc	 eax
  0016b	83 f8 0a	 cmp	 eax, 10			; 0000000aH
  0016e	7c e3		 jl	 SHORT $LL102@GetAnimati@3

; 416  : 		return GetAnimationEventTime(id, szEncEventType);

  00170	8d 45 e0	 lea	 eax, DWORD PTR _szEncEventType$[ebp]
  00173	50		 push	 eax
  00174	8d 4d cc	 lea	 ecx, DWORD PTR $T536327[ebp]
  00177	ff 15 00 00 00
	00		 call	 DWORD PTR __imp_??0ioHashString@@QAE@PBD@Z
  0017d	83 65 fc 00	 and	 DWORD PTR __$EHRec$[ebp+8], 0
  00181	8d 45 cc	 lea	 eax, DWORD PTR $T536327[ebp]
  00184	50		 push	 eax
  00185	ff 75 08	 push	 DWORD PTR _id$[ebp]
  00188	8b ce		 mov	 ecx, esi
  0018a	ff 15 00 00 00
	00		 call	 DWORD PTR __imp_?GetAnimationEventTime@ioEntityGroup@@QAEMHABVioHashString@@@Z
  00190	d9 5d dc	 fstp	 DWORD PTR $T536326[ebp]
  00193	83 4d fc ff	 or	 DWORD PTR __$EHRec$[ebp+8], -1
  00197	8d 4d cc	 lea	 ecx, DWORD PTR $T536327[ebp]
  0019a	ff 15 00 00 00
	00		 call	 DWORD PTR __imp_??1ioHashString@@QAE@XZ
  001a0	d9 45 dc	 fld	 DWORD PTR $T536326[ebp]

; 417  : 	}

  001a3	e8 00 00 00 00	 call	 __EH_epilog3_GS
  001a8	c2 08 00	 ret	 8
_TEXT	ENDS
;	COMDAT text$x
text$x	SEGMENT
__unwindfunclet$??$GetAnimationEventTime_e@$0L@@ioEntityGroup@@QAEMHAAY0L@$$CBD@Z$0:
  00000	8d 4d cc	 lea	 ecx, DWORD PTR $T536327[ebp]
  00003	ff 25 00 00 00
	00		 jmp	 DWORD PTR __imp_??1ioHashString@@QAE@XZ
__ehhandler$??$GetAnimationEventTime_e@$0L@@ioEntityGroup@@QAEMHAAY0L@$$CBD@Z:
  00009	8b 54 24 08	 mov	 edx, DWORD PTR [esp+8]
  0000d	8d 42 0c	 lea	 eax, DWORD PTR [edx+12]
  00010	8b 4a c8	 mov	 ecx, DWORD PTR [edx-56]
  00013	33 c8		 xor	 ecx, eax
  00015	e8 00 00 00 00	 call	 @__security_check_cookie@4
  0001a	8b 4a fc	 mov	 ecx, DWORD PTR [edx-4]
  0001d	33 c8		 xor	 ecx, eax
  0001f	e8 00 00 00 00	 call	 @__security_check_cookie@4
  00024	b8 00 00 00 00	 mov	 eax, OFFSET __ehfuncinfo$??$GetAnimationEventTime_e@$0L@@ioEntityGroup@@QAEMHAAY0L@$$CBD@Z
  00029	e9 00 00 00 00	 jmp	 ___CxxFrameHandler3
text$x	ENDS
??$GetAnimationEventTime_e@$0L@@ioEntityGroup@@QAEMHAAY0L@$$CBD@Z ENDP ; ioEntityGroup::GetAnimationEventTime_e<11>
PUBLIC	??0WeaponFireInfo@@QAE@ABU0@@Z			; WeaponFireInfo::WeaponFireInfo
; Function compile flags: /Ogsp
;	COMDAT ??0WeaponFireInfo@@QAE@ABU0@@Z
_TEXT	SEGMENT
___that$ = 8						; size = 4
??0WeaponFireInfo@@QAE@ABU0@@Z PROC			; WeaponFireInfo::WeaponFireInfo, COMDAT
; _this$ = ecx
  00000	55		 push	 ebp
  00001	8b ec		 mov	 ebp, esp
  00003	8b 45 08	 mov	 eax, DWORD PTR ___that$[ebp]
  00006	56		 push	 esi
  00007	8b f1		 mov	 esi, ecx
  00009	8b 08		 mov	 ecx, DWORD PTR [eax]
  0000b	89 0e		 mov	 DWORD PTR [esi], ecx
  0000d	d9 40 04	 fld	 DWORD PTR [eax+4]
  00010	83 c0 08	 add	 eax, 8
  00013	d9 5e 04	 fstp	 DWORD PTR [esi+4]
  00016	50		 push	 eax
  00017	8d 4e 08	 lea	 ecx, DWORD PTR [esi+8]
  0001a	e8 00 00 00 00	 call	 ??0WeaponInfo@@QAE@ABU0@@Z
  0001f	8b c6		 mov	 eax, esi
  00021	5e		 pop	 esi
  00022	5d		 pop	 ebp
  00023	c2 04 00	 ret	 4
??0WeaponFireInfo@@QAE@ABU0@@Z ENDP			; WeaponFireInfo::WeaponFireInfo
_TEXT	ENDS
PUBLIC	??4WeaponFireInfo@@QAEAAU0@ABU0@@Z		; WeaponFireInfo::operator=
; Function compile flags: /Ogsp
;	COMDAT ??4WeaponFireInfo@@QAEAAU0@ABU0@@Z
_TEXT	SEGMENT
___that$ = 8						; size = 4
??4WeaponFireInfo@@QAEAAU0@ABU0@@Z PROC			; WeaponFireInfo::operator=, COMDAT
; _this$ = ecx
  00000	55		 push	 ebp
  00001	8b ec		 mov	 ebp, esp
  00003	8b 45 08	 mov	 eax, DWORD PTR ___that$[ebp]
  00006	56		 push	 esi
  00007	8b f1		 mov	 esi, ecx
  00009	8b 08		 mov	 ecx, DWORD PTR [eax]
  0000b	89 0e		 mov	 DWORD PTR [esi], ecx
  0000d	d9 40 04	 fld	 DWORD PTR [eax+4]
  00010	83 c0 08	 add	 eax, 8
  00013	d9 5e 04	 fstp	 DWORD PTR [esi+4]
  00016	50		 push	 eax
  00017	8d 4e 08	 lea	 ecx, DWORD PTR [esi+8]
  0001a	e8 00 00 00 00	 call	 ??4WeaponInfo@@QAEAAU0@ABU0@@Z
  0001f	8b c6		 mov	 eax, esi
  00021	5e		 pop	 esi
  00022	5d		 pop	 ebp
  00023	c2 04 00	 ret	 4
??4WeaponFireInfo@@QAEAAU0@ABU0@@Z ENDP			; WeaponFireInfo::operator=
_TEXT	ENDS
PUBLIC	??_GWeaponFireInfo@@QAEPAXI@Z			; WeaponFireInfo::`scalar deleting destructor'
; Function compile flags: /Ogsp
;	COMDAT ??_GWeaponFireInfo@@QAEPAXI@Z
_TEXT	SEGMENT
___flags$ = 8						; size = 4
??_GWeaponFireInfo@@QAEPAXI@Z PROC			; WeaponFireInfo::`scalar deleting destructor', COMDAT
; _this$ = ecx
  00000	55		 push	 ebp
  00001	8b ec		 mov	 ebp, esp
  00003	56		 push	 esi
  00004	8b f1		 mov	 esi, ecx
  00006	8d 4e 10	 lea	 ecx, DWORD PTR [esi+16]
  00009	ff 15 00 00 00
	00		 call	 DWORD PTR __imp_??1ioHashString@@QAE@XZ
  0000f	f6 45 08 01	 test	 BYTE PTR ___flags$[ebp], 1
  00013	74 07		 je	 SHORT $LN1@scalar@4
  00015	56		 push	 esi
  00016	e8 00 00 00 00	 call	 ??3@YAXPAX@Z		; operator delete
  0001b	59		 pop	 ecx
$LN1@scalar@4:
  0001c	8b c6		 mov	 eax, esi
  0001e	5e		 pop	 esi
  0001f	5d		 pop	 ebp
  00020	c2 04 00	 ret	 4
??_GWeaponFireInfo@@QAEPAXI@Z ENDP			; WeaponFireInfo::`scalar deleting destructor'
_TEXT	ENDS
PUBLIC	?construct@?$allocator@UWeaponFireInfo@@@std@@QAEXPAUWeaponFireInfo@@$$QAU3@@Z ; std::allocator<WeaponFireInfo>::construct
EXTRN	__EH_epilog3:PROC
EXTRN	__EH_prolog3:PROC
;	COMDAT xdata$x
; File c:\program files (x86)\microsoft visual studio 10.0\vc\include\utility
xdata$x	SEGMENT
__unwindtable$?construct@?$allocator@UWeaponFireInfo@@@std@@QAEXPAUWeaponFireInfo@@$$QAU3@@Z DD 0ffffffffH
	DD	FLAT:__unwindfunclet$?construct@?$allocator@UWeaponFireInfo@@@std@@QAEXPAUWeaponFireInfo@@$$QAU3@@Z$0
__ehfuncinfo$?construct@?$allocator@UWeaponFireInfo@@@std@@QAEXPAUWeaponFireInfo@@$$QAU3@@Z DD 019930522H
	DD	01H
	DD	FLAT:__unwindtable$?construct@?$allocator@UWeaponFireInfo@@@std@@QAEXPAUWeaponFireInfo@@$$QAU3@@Z
	DD	2 DUP(00H)
	DD	2 DUP(00H)
	DD	00H
	DD	01H
; Function compile flags: /Ogsp
; File c:\program files (x86)\microsoft visual studio 10.0\vc\include\xmemory
xdata$x	ENDS
;	COMDAT ?construct@?$allocator@UWeaponFireInfo@@@std@@QAEXPAUWeaponFireInfo@@$$QAU3@@Z
_TEXT	SEGMENT
$T536375 = -16						; size = 4
__$EHRec$ = -12						; size = 12
__Ptr$ = 8						; size = 4
__Val$ = 12						; size = 4
?construct@?$allocator@UWeaponFireInfo@@@std@@QAEXPAUWeaponFireInfo@@$$QAU3@@Z PROC ; std::allocator<WeaponFireInfo>::construct, COMDAT
; _this$ = ecx

; 201  : 		{	// construct object at _Ptr with value _Val

  00000	6a 04		 push	 4
  00002	b8 00 00 00 00	 mov	 eax, __ehhandler$?construct@?$allocator@UWeaponFireInfo@@@std@@QAEXPAUWeaponFireInfo@@$$QAU3@@Z
  00007	e8 00 00 00 00	 call	 __EH_prolog3

; 202  : 		::new ((void _FARQ *)_Ptr) _Ty(_STD forward<_Ty>(_Val));

  0000c	8b 4d 08	 mov	 ecx, DWORD PTR __Ptr$[ebp]
  0000f	89 4d f0	 mov	 DWORD PTR $T536375[ebp], ecx
  00012	83 65 fc 00	 and	 DWORD PTR __$EHRec$[ebp+8], 0
  00016	85 c9		 test	 ecx, ecx
  00018	74 08		 je	 SHORT $LN3@construct
  0001a	ff 75 0c	 push	 DWORD PTR __Val$[ebp]
  0001d	e8 00 00 00 00	 call	 ??0WeaponFireInfo@@QAE@ABU0@@Z
$LN3@construct:

; 203  : 		}

  00022	e8 00 00 00 00	 call	 __EH_epilog3
  00027	c2 08 00	 ret	 8
_TEXT	ENDS
;	COMDAT text$x
text$x	SEGMENT
__unwindfunclet$?construct@?$allocator@UWeaponFireInfo@@@std@@QAEXPAUWeaponFireInfo@@$$QAU3@@Z$0:
  00000	ff 75 08	 push	 DWORD PTR __Ptr$[ebp]
  00003	ff 75 f0	 push	 DWORD PTR $T536375[ebp]
  00006	e8 00 00 00 00	 call	 ??3@YAXPAX0@Z		; operator delete
  0000b	59		 pop	 ecx
  0000c	59		 pop	 ecx
  0000d	c3		 ret	 0
__ehhandler$?construct@?$allocator@UWeaponFireInfo@@@std@@QAEXPAUWeaponFireInfo@@$$QAU3@@Z:
  0000e	8b 54 24 08	 mov	 edx, DWORD PTR [esp+8]
  00012	8d 42 0c	 lea	 eax, DWORD PTR [edx+12]
  00015	8b 4a ec	 mov	 ecx, DWORD PTR [edx-20]
  00018	33 c8		 xor	 ecx, eax
  0001a	e8 00 00 00 00	 call	 @__security_check_cookie@4
  0001f	b8 00 00 00 00	 mov	 eax, OFFSET __ehfuncinfo$?construct@?$allocator@UWeaponFireInfo@@@std@@QAEXPAUWeaponFireInfo@@$$QAU3@@Z
  00024	e9 00 00 00 00	 jmp	 ___CxxFrameHandler3
text$x	ENDS
?construct@?$allocator@UWeaponFireInfo@@@std@@QAEXPAUWeaponFireInfo@@$$QAU3@@Z ENDP ; std::allocator<WeaponFireInfo>::construct
PUBLIC	??0WeaponInfo@@QAE@XZ				; WeaponInfo::WeaponInfo
EXTRN	__imp_??0ioHashString@@QAE@XZ:PROC
; Function compile flags: /Ogsp
; File d:\lost saga for developer\youtube\tutorial\source\src\lsclient\ioattackattribute.h
;	COMDAT ??0WeaponInfo@@QAE@XZ
_TEXT	SEGMENT
??0WeaponInfo@@QAE@XZ PROC				; WeaponInfo::WeaponInfo, COMDAT
; _this$ = ecx

; 64   : 	WeaponInfo()

  00000	56		 push	 esi
  00001	8b f1		 mov	 esi, ecx
  00003	8d 4e 08	 lea	 ecx, DWORD PTR [esi+8]
  00006	ff 15 00 00 00
	00		 call	 DWORD PTR __imp_??0ioHashString@@QAE@XZ

; 65   : 	{
; 66   : 		Init();

  0000c	33 c0		 xor	 eax, eax
  0000e	89 06		 mov	 DWORD PTR [esi], eax
  00010	89 46 04	 mov	 DWORD PTR [esi+4], eax
  00013	89 46 18	 mov	 DWORD PTR [esi+24], eax
  00016	89 46 1c	 mov	 DWORD PTR [esi+28], eax
  00019	88 46 20	 mov	 BYTE PTR [esi+32], al
  0001c	89 46 24	 mov	 DWORD PTR [esi+36], eax

; 67   : 	}

  0001f	8b c6		 mov	 eax, esi
  00021	5e		 pop	 esi
  00022	c3		 ret	 0
??0WeaponInfo@@QAE@XZ ENDP				; WeaponInfo::WeaponInfo
_TEXT	ENDS
PUBLIC	??0?$CEncrypt@M@@QAE@XZ				; CEncrypt<float>::CEncrypt<float>
EXTRN	??0ccddaabb@@QAE@XZ:PROC			; ccddaabb::ccddaabb
;	COMDAT xdata$x
; File d:\lost saga for developer\youtube\tutorial\source\src\lsclient\encryptvalue.h
xdata$x	SEGMENT
__unwindtable$??0?$CEncrypt@M@@QAE@XZ DD 0ffffffffH
	DD	FLAT:__unwindfunclet$??0?$CEncrypt@M@@QAE@XZ$0
__ehfuncinfo$??0?$CEncrypt@M@@QAE@XZ DD 019930522H
	DD	01H
	DD	FLAT:__unwindtable$??0?$CEncrypt@M@@QAE@XZ
	DD	2 DUP(00H)
	DD	2 DUP(00H)
	DD	00H
	DD	01H
; Function compile flags: /Ogsp
xdata$x	ENDS
;	COMDAT ??0?$CEncrypt@M@@QAE@XZ
_TEXT	SEGMENT
_this$ = -16						; size = 4
__$EHRec$ = -12						; size = 12
??0?$CEncrypt@M@@QAE@XZ PROC				; CEncrypt<float>::CEncrypt<float>, COMDAT
; _this$ = ecx

; 109  : 	CEncrypt()

  00000	6a 04		 push	 4
  00002	b8 00 00 00 00	 mov	 eax, __ehhandler$??0?$CEncrypt@M@@QAE@XZ
  00007	e8 00 00 00 00	 call	 __EH_prolog3
  0000c	8b f1		 mov	 esi, ecx
  0000e	89 75 f0	 mov	 DWORD PTR _this$[ebp], esi
  00011	8d 4e 0c	 lea	 ecx, DWORD PTR [esi+12]
  00014	c7 06 00 00 00
	00		 mov	 DWORD PTR [esi], OFFSET ??_7?$CEncrypt@M@@6B@
  0001a	e8 00 00 00 00	 call	 ??0ccddaabb@@QAE@XZ	; ccddaabb::ccddaabb
  0001f	83 65 fc 00	 and	 DWORD PTR __$EHRec$[ebp+8], 0

; 110  : 	{
; 111  : 		Init();

  00023	8b ce		 mov	 ecx, esi
  00025	e8 00 00 00 00	 call	 ?Init@?$CEncrypt@M@@AAEXXZ ; CEncrypt<float>::Init

; 112  : 	}

  0002a	8b c6		 mov	 eax, esi
  0002c	e8 00 00 00 00	 call	 __EH_epilog3
  00031	c3		 ret	 0
_TEXT	ENDS
;	COMDAT text$x
text$x	SEGMENT
__unwindfunclet$??0?$CEncrypt@M@@QAE@XZ$0:
  00000	8b 4d f0	 mov	 ecx, DWORD PTR _this$[ebp]
  00003	83 c1 0c	 add	 ecx, 12			; 0000000cH
  00006	e9 00 00 00 00	 jmp	 ??1ccddaabb@@UAE@XZ	; ccddaabb::~ccddaabb
__ehhandler$??0?$CEncrypt@M@@QAE@XZ:
  0000b	8b 54 24 08	 mov	 edx, DWORD PTR [esp+8]
  0000f	8d 42 0c	 lea	 eax, DWORD PTR [edx+12]
  00012	8b 4a ec	 mov	 ecx, DWORD PTR [edx-20]
  00015	33 c8		 xor	 ecx, eax
  00017	e8 00 00 00 00	 call	 @__security_check_cookie@4
  0001c	b8 00 00 00 00	 mov	 eax, OFFSET __ehfuncinfo$??0?$CEncrypt@M@@QAE@XZ
  00021	e9 00 00 00 00	 jmp	 ___CxxFrameHandler3
text$x	ENDS
??0?$CEncrypt@M@@QAE@XZ ENDP				; CEncrypt<float>::CEncrypt<float>
PUBLIC	??B?$CEncrypt@M@@QAEMXZ				; CEncrypt<float>::operator float
; Function compile flags: /Ogsp
;	COMDAT ??B?$CEncrypt@M@@QAEMXZ
_TEXT	SEGMENT
_value$ = -4						; size = 4
??B?$CEncrypt@M@@QAEMXZ PROC				; CEncrypt<float>::operator float, COMDAT
; _this$ = ecx

; 134  : 	{

  00000	55		 push	 ebp
  00001	8b ec		 mov	 ebp, esp
  00003	51		 push	 ecx

; 135  : 		type value;
; 136  : 		DecryptValueToPool(&value);

  00004	8d 45 fc	 lea	 eax, DWORD PTR _value$[ebp]
  00007	50		 push	 eax
  00008	e8 00 00 00 00	 call	 ?DecryptValueToPool@?$CEncrypt@M@@QAEXPAM@Z ; CEncrypt<float>::DecryptValueToPool

; 137  : 
; 138  : #ifdef _NOTUSE
; 139  : 		Debug();
; 140  : #endif
; 141  : 		return value;

  0000d	d9 45 fc	 fld	 DWORD PTR _value$[ebp]

; 142  : 	}

  00010	c9		 leave
  00011	c3		 ret	 0
??B?$CEncrypt@M@@QAEMXZ ENDP				; CEncrypt<float>::operator float
_TEXT	ENDS
PUBLIC	??B?$CEncrypt@M@@QBEMXZ				; CEncrypt<float>::operator float
; Function compile flags: /Ogsp
;	COMDAT ??B?$CEncrypt@M@@QBEMXZ
_TEXT	SEGMENT
_value$ = -4						; size = 4
??B?$CEncrypt@M@@QBEMXZ PROC				; CEncrypt<float>::operator float, COMDAT
; _this$ = ecx

; 145  : 	{

  00000	55		 push	 ebp
  00001	8b ec		 mov	 ebp, esp
  00003	51		 push	 ecx

; 146  : 		//UJ 130829, const    --start
; 147  : 		type value;
; 148  : 		CEncrypt<type>* pThis = const_cast<CEncrypt<type>*>(this);
; 149  : 		pThis->DecryptValueToPool(&value);

  00004	8d 45 fc	 lea	 eax, DWORD PTR _value$[ebp]
  00007	50		 push	 eax
  00008	e8 00 00 00 00	 call	 ?DecryptValueToPool@?$CEncrypt@M@@QAEXPAM@Z ; CEncrypt<float>::DecryptValueToPool

; 150  : 		//// const DecryptValueToPool     .
; 151  :  		//type value;
; 152  : 		//char szTempMem[MAX_ENCRYPT];
; 153  : 		//m_RC5.DecryptByte( m_MemPool, szTempMem, max(m_ValueSize, DEFAULT_ENCRYPT) );
; 154  : 		//memcpy( &value, szTempMem, m_ValueSize );
; 155  : 		//UJ --end
; 156  : 
; 157  : #ifdef _NOTUSE
; 158  : 		Debug();
; 159  : #endif
; 160  : 		return value;

  0000d	d9 45 fc	 fld	 DWORD PTR _value$[ebp]

; 161  : 	}

  00010	c9		 leave
  00011	c3		 ret	 0
??B?$CEncrypt@M@@QBEMXZ ENDP				; CEncrypt<float>::operator float
_TEXT	ENDS
PUBLIC	??4?$CEncrypt@M@@QAEMM@Z			; CEncrypt<float>::operator=
; Function compile flags: /Ogsp
;	COMDAT ??4?$CEncrypt@M@@QAEMM@Z
_TEXT	SEGMENT
_value$ = 8						; size = 4
_inValue$ = 8						; size = 4
??4?$CEncrypt@M@@QAEMM@Z PROC				; CEncrypt<float>::operator=, COMDAT
; _this$ = ecx

; 1654 : 	{	

  00000	55		 push	 ebp
  00001	8b ec		 mov	 ebp, esp

; 1655 : 		type value = inValue;

  00003	d9 45 08	 fld	 DWORD PTR _inValue$[ebp]

; 1656 : 		EncryptValueToPool((char*)&value);

  00006	8d 45 08	 lea	 eax, DWORD PTR _value$[ebp]
  00009	50		 push	 eax
  0000a	d9 5d 08	 fstp	 DWORD PTR _value$[ebp]
  0000d	e8 00 00 00 00	 call	 ?EncryptValueToPool@?$CEncrypt@M@@AAEXPBD@Z ; CEncrypt<float>::EncryptValueToPool

; 1657 : #ifdef _NOTUSE
; 1658 : 		m_value = inValue;
; 1659 : 		Debug();
; 1660 : #endif
; 1661 : 		return value;

  00012	d9 45 08	 fld	 DWORD PTR _value$[ebp]

; 1662 : 	}

  00015	5d		 pop	 ebp
  00016	c2 04 00	 ret	 4
??4?$CEncrypt@M@@QAEMM@Z ENDP				; CEncrypt<float>::operator=
_TEXT	ENDS
PUBLIC	??0?$CEncrypt@K@@QAE@XZ				; CEncrypt<unsigned long>::CEncrypt<unsigned long>
;	COMDAT xdata$x
xdata$x	SEGMENT
__unwindtable$??0?$CEncrypt@K@@QAE@XZ DD 0ffffffffH
	DD	FLAT:__unwindfunclet$??0?$CEncrypt@K@@QAE@XZ$0
__ehfuncinfo$??0?$CEncrypt@K@@QAE@XZ DD 019930522H
	DD	01H
	DD	FLAT:__unwindtable$??0?$CEncrypt@K@@QAE@XZ
	DD	2 DUP(00H)
	DD	2 DUP(00H)
	DD	00H
	DD	01H
; Function compile flags: /Ogsp
xdata$x	ENDS
;	COMDAT ??0?$CEncrypt@K@@QAE@XZ
_TEXT	SEGMENT
_this$ = -16						; size = 4
__$EHRec$ = -12						; size = 12
??0?$CEncrypt@K@@QAE@XZ PROC				; CEncrypt<unsigned long>::CEncrypt<unsigned long>, COMDAT
; _this$ = ecx

; 109  : 	CEncrypt()

  00000	6a 04		 push	 4
  00002	b8 00 00 00 00	 mov	 eax, __ehhandler$??0?$CEncrypt@K@@QAE@XZ
  00007	e8 00 00 00 00	 call	 __EH_prolog3
  0000c	8b f1		 mov	 esi, ecx
  0000e	89 75 f0	 mov	 DWORD PTR _this$[ebp], esi
  00011	8d 4e 0c	 lea	 ecx, DWORD PTR [esi+12]
  00014	c7 06 00 00 00
	00		 mov	 DWORD PTR [esi], OFFSET ??_7?$CEncrypt@K@@6B@
  0001a	e8 00 00 00 00	 call	 ??0ccddaabb@@QAE@XZ	; ccddaabb::ccddaabb
  0001f	83 65 fc 00	 and	 DWORD PTR __$EHRec$[ebp+8], 0

; 110  : 	{
; 111  : 		Init();

  00023	8b ce		 mov	 ecx, esi
  00025	e8 00 00 00 00	 call	 ?Init@?$CEncrypt@K@@AAEXXZ ; CEncrypt<unsigned long>::Init

; 112  : 	}

  0002a	8b c6		 mov	 eax, esi
  0002c	e8 00 00 00 00	 call	 __EH_epilog3
  00031	c3		 ret	 0
_TEXT	ENDS
;	COMDAT text$x
text$x	SEGMENT
__unwindfunclet$??0?$CEncrypt@K@@QAE@XZ$0:
  00000	8b 4d f0	 mov	 ecx, DWORD PTR _this$[ebp]
  00003	83 c1 0c	 add	 ecx, 12			; 0000000cH
  00006	e9 00 00 00 00	 jmp	 ??1ccddaabb@@UAE@XZ	; ccddaabb::~ccddaabb
__ehhandler$??0?$CEncrypt@K@@QAE@XZ:
  0000b	8b 54 24 08	 mov	 edx, DWORD PTR [esp+8]
  0000f	8d 42 0c	 lea	 eax, DWORD PTR [edx+12]
  00012	8b 4a ec	 mov	 ecx, DWORD PTR [edx-20]
  00015	33 c8		 xor	 ecx, eax
  00017	e8 00 00 00 00	 call	 @__security_check_cookie@4
  0001c	b8 00 00 00 00	 mov	 eax, OFFSET __ehfuncinfo$??0?$CEncrypt@K@@QAE@XZ
  00021	e9 00 00 00 00	 jmp	 ___CxxFrameHandler3
text$x	ENDS
??0?$CEncrypt@K@@QAE@XZ ENDP				; CEncrypt<unsigned long>::CEncrypt<unsigned long>
PUBLIC	??B?$CEncrypt@K@@QAEKXZ				; CEncrypt<unsigned long>::operator unsigned long
; Function compile flags: /Ogsp
;	COMDAT ??B?$CEncrypt@K@@QAEKXZ
_TEXT	SEGMENT
_value$ = -4						; size = 4
??B?$CEncrypt@K@@QAEKXZ PROC				; CEncrypt<unsigned long>::operator unsigned long, COMDAT
; _this$ = ecx

; 134  : 	{

  00000	55		 push	 ebp
  00001	8b ec		 mov	 ebp, esp
  00003	51		 push	 ecx

; 135  : 		type value;
; 136  : 		DecryptValueToPool(&value);

  00004	8d 45 fc	 lea	 eax, DWORD PTR _value$[ebp]
  00007	50		 push	 eax
  00008	e8 00 00 00 00	 call	 ?DecryptValueToPool@?$CEncrypt@K@@QAEXPAK@Z ; CEncrypt<unsigned long>::DecryptValueToPool

; 137  : 
; 138  : #ifdef _NOTUSE
; 139  : 		Debug();
; 140  : #endif
; 141  : 		return value;

  0000d	8b 45 fc	 mov	 eax, DWORD PTR _value$[ebp]

; 142  : 	}

  00010	c9		 leave
  00011	c3		 ret	 0
??B?$CEncrypt@K@@QAEKXZ ENDP				; CEncrypt<unsigned long>::operator unsigned long
_TEXT	ENDS
PUBLIC	??B?$CEncrypt@K@@QBEKXZ				; CEncrypt<unsigned long>::operator unsigned long
; Function compile flags: /Ogsp
;	COMDAT ??B?$CEncrypt@K@@QBEKXZ
_TEXT	SEGMENT
_value$ = -4						; size = 4
??B?$CEncrypt@K@@QBEKXZ PROC				; CEncrypt<unsigned long>::operator unsigned long, COMDAT
; _this$ = ecx

; 145  : 	{

  00000	55		 push	 ebp
  00001	8b ec		 mov	 ebp, esp
  00003	51		 push	 ecx

; 146  : 		//UJ 130829, const    --start
; 147  : 		type value;
; 148  : 		CEncrypt<type>* pThis = const_cast<CEncrypt<type>*>(this);
; 149  : 		pThis->DecryptValueToPool(&value);

  00004	8d 45 fc	 lea	 eax, DWORD PTR _value$[ebp]
  00007	50		 push	 eax
  00008	e8 00 00 00 00	 call	 ?DecryptValueToPool@?$CEncrypt@K@@QAEXPAK@Z ; CEncrypt<unsigned long>::DecryptValueToPool

; 150  : 		//// const DecryptValueToPool     .
; 151  :  		//type value;
; 152  : 		//char szTempMem[MAX_ENCRYPT];
; 153  : 		//m_RC5.DecryptByte( m_MemPool, szTempMem, max(m_ValueSize, DEFAULT_ENCRYPT) );
; 154  : 		//memcpy( &value, szTempMem, m_ValueSize );
; 155  : 		//UJ --end
; 156  : 
; 157  : #ifdef _NOTUSE
; 158  : 		Debug();
; 159  : #endif
; 160  : 		return value;

  0000d	8b 45 fc	 mov	 eax, DWORD PTR _value$[ebp]

; 161  : 	}

  00010	c9		 leave
  00011	c3		 ret	 0
??B?$CEncrypt@K@@QBEKXZ ENDP				; CEncrypt<unsigned long>::operator unsigned long
_TEXT	ENDS
PUBLIC	??4?$CEncrypt@K@@QAEKK@Z			; CEncrypt<unsigned long>::operator=
; Function compile flags: /Ogsp
;	COMDAT ??4?$CEncrypt@K@@QAEKK@Z
_TEXT	SEGMENT
_value$ = 8						; size = 4
_inValue$ = 8						; size = 4
??4?$CEncrypt@K@@QAEKK@Z PROC				; CEncrypt<unsigned long>::operator=, COMDAT
; _this$ = ecx

; 1262 : 	{

  00000	55		 push	 ebp
  00001	8b ec		 mov	 ebp, esp

; 1263 : 		
; 1264 : 		type value = inValue;

  00003	8b 45 08	 mov	 eax, DWORD PTR _inValue$[ebp]
  00006	89 45 08	 mov	 DWORD PTR _value$[ebp], eax

; 1265 : 		EncryptValueToPool((char*)&value);

  00009	8d 45 08	 lea	 eax, DWORD PTR _value$[ebp]
  0000c	50		 push	 eax
  0000d	e8 00 00 00 00	 call	 ?EncryptValueToPool@?$CEncrypt@K@@AAEXPBD@Z ; CEncrypt<unsigned long>::EncryptValueToPool

; 1266 : #ifdef _NOTUSE
; 1267 : 		m_value = inValue;
; 1268 : 		Debug();
; 1269 : #endif
; 1270 : 		return value;

  00012	8b 45 08	 mov	 eax, DWORD PTR _value$[ebp]

; 1271 : 	}

  00015	5d		 pop	 ebp
  00016	c2 04 00	 ret	 4
??4?$CEncrypt@K@@QAEKK@Z ENDP				; CEncrypt<unsigned long>::operator=
_TEXT	ENDS
PUBLIC	??B?$CEncrypt@_N@@QAE_NXZ			; CEncrypt<bool>::operator bool
; Function compile flags: /Ogsp
;	COMDAT ??B?$CEncrypt@_N@@QAE_NXZ
_TEXT	SEGMENT
_value$ = -1						; size = 1
??B?$CEncrypt@_N@@QAE_NXZ PROC				; CEncrypt<bool>::operator bool, COMDAT
; _this$ = ecx

; 134  : 	{

  00000	55		 push	 ebp
  00001	8b ec		 mov	 ebp, esp
  00003	51		 push	 ecx

; 135  : 		type value;
; 136  : 		DecryptValueToPool(&value);

  00004	8d 45 ff	 lea	 eax, DWORD PTR _value$[ebp]
  00007	50		 push	 eax
  00008	e8 00 00 00 00	 call	 ?DecryptValueToPool@?$CEncrypt@_N@@QAEXPA_N@Z ; CEncrypt<bool>::DecryptValueToPool

; 137  : 
; 138  : #ifdef _NOTUSE
; 139  : 		Debug();
; 140  : #endif
; 141  : 		return value;

  0000d	8a 45 ff	 mov	 al, BYTE PTR _value$[ebp]

; 142  : 	}

  00010	c9		 leave
  00011	c3		 ret	 0
??B?$CEncrypt@_N@@QAE_NXZ ENDP				; CEncrypt<bool>::operator bool
_TEXT	ENDS
PUBLIC	??B?$CEncrypt@_N@@QBE_NXZ			; CEncrypt<bool>::operator bool
; Function compile flags: /Ogsp
;	COMDAT ??B?$CEncrypt@_N@@QBE_NXZ
_TEXT	SEGMENT
_value$ = -1						; size = 1
??B?$CEncrypt@_N@@QBE_NXZ PROC				; CEncrypt<bool>::operator bool, COMDAT
; _this$ = ecx

; 145  : 	{

  00000	55		 push	 ebp
  00001	8b ec		 mov	 ebp, esp
  00003	51		 push	 ecx

; 146  : 		//UJ 130829, const    --start
; 147  : 		type value;
; 148  : 		CEncrypt<type>* pThis = const_cast<CEncrypt<type>*>(this);
; 149  : 		pThis->DecryptValueToPool(&value);

  00004	8d 45 ff	 lea	 eax, DWORD PTR _value$[ebp]
  00007	50		 push	 eax
  00008	e8 00 00 00 00	 call	 ?DecryptValueToPool@?$CEncrypt@_N@@QAEXPA_N@Z ; CEncrypt<bool>::DecryptValueToPool

; 150  : 		//// const DecryptValueToPool     .
; 151  :  		//type value;
; 152  : 		//char szTempMem[MAX_ENCRYPT];
; 153  : 		//m_RC5.DecryptByte( m_MemPool, szTempMem, max(m_ValueSize, DEFAULT_ENCRYPT) );
; 154  : 		//memcpy( &value, szTempMem, m_ValueSize );
; 155  : 		//UJ --end
; 156  : 
; 157  : #ifdef _NOTUSE
; 158  : 		Debug();
; 159  : #endif
; 160  : 		return value;

  0000d	8a 45 ff	 mov	 al, BYTE PTR _value$[ebp]

; 161  : 	}

  00010	c9		 leave
  00011	c3		 ret	 0
??B?$CEncrypt@_N@@QBE_NXZ ENDP				; CEncrypt<bool>::operator bool
_TEXT	ENDS
PUBLIC	??0?$_Vector_val@KV?$allocator@K@std@@@std@@QAE@V?$allocator@K@1@@Z ; std::_Vector_val<unsigned long,std::allocator<unsigned long> >::_Vector_val<unsigned long,std::allocator<unsigned long> >
; Function compile flags: /Ogsp
; File c:\program files (x86)\microsoft visual studio 10.0\vc\include\vector
;	COMDAT ??0?$_Vector_val@KV?$allocator@K@std@@@std@@QAE@V?$allocator@K@1@@Z
_TEXT	SEGMENT
__Al$ = 8						; size = 1
??0?$_Vector_val@KV?$allocator@K@std@@@std@@QAE@V?$allocator@K@1@@Z PROC ; std::_Vector_val<unsigned long,std::allocator<unsigned long> >::_Vector_val<unsigned long,std::allocator<unsigned long> >, COMDAT
; _this$ = ecx

; 426  : 		{	// construct allocator from _Al

  00000	8b c1		 mov	 eax, ecx

; 427  : 		_Myfirst = 0;

  00002	33 c9		 xor	 ecx, ecx
  00004	89 08		 mov	 DWORD PTR [eax], ecx

; 428  : 		_Mylast = 0;

  00006	89 48 04	 mov	 DWORD PTR [eax+4], ecx

; 429  : 		_Myend = 0;

  00009	89 48 08	 mov	 DWORD PTR [eax+8], ecx

; 430  : 		}

  0000c	c2 04 00	 ret	 4
??0?$_Vector_val@KV?$allocator@K@std@@@std@@QAE@V?$allocator@K@1@@Z ENDP ; std::_Vector_val<unsigned long,std::allocator<unsigned long> >::_Vector_val<unsigned long,std::allocator<unsigned long> >
_TEXT	ENDS
PUBLIC	??$_Destroy_range@V?$allocator@K@std@@@std@@YAXPAK0AAV?$allocator@K@0@@Z ; std::_Destroy_range<std::allocator<unsigned long> >
; Function compile flags: /Ogsp
; File c:\program files (x86)\microsoft visual studio 10.0\vc\include\xmemory
;	COMDAT ??$_Destroy_range@V?$allocator@K@std@@@std@@YAXPAK0AAV?$allocator@K@0@@Z
_TEXT	SEGMENT
__First$ = 8						; size = 4
__Last$ = 12						; size = 4
__Al$ = 16						; size = 4
??$_Destroy_range@V?$allocator@K@std@@@std@@YAXPAK0AAV?$allocator@K@0@@Z PROC ; std::_Destroy_range<std::allocator<unsigned long> >, COMDAT

; 88   : 	_Destroy_range(_First, _Last, _Al, _Ptr_cat(_First, _Last));
; 89   : 	}

  00000	c3		 ret	 0
??$_Destroy_range@V?$allocator@K@std@@@std@@YAXPAK0AAV?$allocator@K@0@@Z ENDP ; std::_Destroy_range<std::allocator<unsigned long> >
_TEXT	ENDS
PUBLIC	?SetGravityAmt@ioBaseChar@@QAEXM@Z		; ioBaseChar::SetGravityAmt
; Function compile flags: /Ogsp
; File d:\lost saga for developer\youtube\tutorial\source\src\lsclient\iobasechar.h
;	COMDAT ?SetGravityAmt@ioBaseChar@@QAEXM@Z
_TEXT	SEGMENT
_value$536455 = 8					; size = 4
_fAmt$ = 8						; size = 4
?SetGravityAmt@ioBaseChar@@QAEXM@Z PROC			; ioBaseChar::SetGravityAmt, COMDAT
; _this$ = ecx

; 2631 : 	inline void SetGravityAmt( float fAmt ) { m_fGravityAmt = fAmt; }

  00000	55		 push	 ebp
  00001	8b ec		 mov	 ebp, esp
  00003	f3 0f 10 45 08	 movss	 xmm0, DWORD PTR _fAmt$[ebp]
  00008	8d 45 08	 lea	 eax, DWORD PTR _value$536455[ebp]
  0000b	50		 push	 eax
  0000c	81 c1 e8 0b 00
	00		 add	 ecx, 3048		; 00000be8H
  00012	f3 0f 11 45 08	 movss	 DWORD PTR _value$536455[ebp], xmm0
  00017	e8 00 00 00 00	 call	 ?EncryptValueToPool@?$CEncrypt@M@@AAEXPBD@Z ; CEncrypt<float>::EncryptValueToPool
  0001c	5d		 pop	 ebp
  0001d	c2 04 00	 ret	 4
?SetGravityAmt@ioBaseChar@@QAEXM@Z ENDP			; ioBaseChar::SetGravityAmt
_TEXT	ENDS
PUBLIC	??0WeaponFireInfo@@QAE@XZ			; WeaponFireInfo::WeaponFireInfo
; Function compile flags: /Ogsp
;	COMDAT ??0WeaponFireInfo@@QAE@XZ
_TEXT	SEGMENT
??0WeaponFireInfo@@QAE@XZ PROC				; WeaponFireInfo::WeaponFireInfo, COMDAT
; _this$ = ecx
  00000	56		 push	 esi
  00001	8b f1		 mov	 esi, ecx
  00003	8d 4e 08	 lea	 ecx, DWORD PTR [esi+8]
  00006	e8 00 00 00 00	 call	 ??0WeaponInfo@@QAE@XZ	; WeaponInfo::WeaponInfo
  0000b	8b c6		 mov	 eax, esi
  0000d	5e		 pop	 esi
  0000e	c3		 ret	 0
??0WeaponFireInfo@@QAE@XZ ENDP				; WeaponFireInfo::WeaponFireInfo
_TEXT	ENDS
PUBLIC	__real@3f800000
PUBLIC	__real@41f0000000000000
PUBLIC	_pChar$GSCopy$
PUBLIC	?AttackSkillFire@ioConsecution2Skill@@MAEXPAVioBaseChar@@@Z ; ioConsecution2Skill::AttackSkillFire
EXTRN	?GetCurDirKey@ioBaseChar@@QAE?AW4DirKeyInput@ioUserKeyInput@@XZ:PROC ; ioBaseChar::GetCurDirKey
EXTRN	?ChangeDirectionExplicitIfDirChanged@ioBaseChar@@QAE_N_N@Z:PROC ; ioBaseChar::ChangeDirectionExplicitIfDirChanged
EXTRN	?ReduceCurSkillGaugeBySkill@ioBaseChar@@QAEMPAVioItem@@M@Z:PROC ; ioBaseChar::ReduceCurSkillGaugeBySkill
EXTRN	?GetCurItemSkillGauge@ioBaseChar@@QAEMPAVioItem@@@Z:PROC ; ioBaseChar::GetCurItemSkillGauge
EXTRN	?SetReservedSliding@ioBaseChar@@QAEXABV?$vector@UForceInfo@@V?$allocator@UForceInfo@@@std@@@std@@HMKM_N@Z:PROC ; ioBaseChar::SetReservedSliding
EXTRN	__imp_?GetAnimationFullTime@ioEntityGroup@@QAEMH@Z:PROC
EXTRN	?AttachEffect@ioBaseChar@@QAEPAVioEffect@@ABVioHashString@@PAVioEntityEvent@@_N@Z:PROC ; ioBaseChar::AttachEffect
EXTRN	__imp_?SetActionAni@ioEntityGroup@@QAE_NHMMMMMM_N0@Z:PROC
EXTRN	__imp_?ClearAllActionAni@ioEntityGroup@@QAEXM_N@Z:PROC
EXTRN	__imp_?ClearAllLoopAni@ioEntityGroup@@QAEXM_N@Z:PROC
EXTRN	__ftol2:PROC
;	COMDAT __real@3f800000
; File d:\lost saga for developer\youtube\tutorial\source\src\lsclient\ioskill.h
CONST	SEGMENT
__real@3f800000 DD 03f800000r			; 1
CONST	ENDS
;	COMDAT __real@41f0000000000000
CONST	SEGMENT
__real@41f0000000000000 DQ 041f0000000000000r	; 4.29497e+009
CONST	ENDS
;	COMDAT xdata$x
xdata$x	SEGMENT
__unwindtable$?AttackSkillFire@ioConsecution2Skill@@MAEXPAVioBaseChar@@@Z DD 0ffffffffH
	DD	FLAT:__unwindfunclet$?AttackSkillFire@ioConsecution2Skill@@MAEXPAVioBaseChar@@@Z$0
	DD	0ffffffffH
	DD	FLAT:__unwindfunclet$?AttackSkillFire@ioConsecution2Skill@@MAEXPAVioBaseChar@@@Z$1
__ehfuncinfo$?AttackSkillFire@ioConsecution2Skill@@MAEXPAVioBaseChar@@@Z DD 019930522H
	DD	02H
	DD	FLAT:__unwindtable$?AttackSkillFire@ioConsecution2Skill@@MAEXPAVioBaseChar@@@Z
	DD	2 DUP(00H)
	DD	2 DUP(00H)
	DD	00H
	DD	01H
; Function compile flags: /Ogsp
; File d:\lost saga for developer\youtube\tutorial\source\src\lsclient\ioconsecution2skill.cpp
xdata$x	ENDS
;	COMDAT ?AttackSkillFire@ioConsecution2Skill@@MAEXPAVioBaseChar@@@Z
_TEXT	SEGMENT
$T536644 = -112						; size = 16
$T536612 = -96						; size = 16
_pChar$GSCopy$ = -80					; size = 4
_pGrp$ = -76						; size = 4
tv2165 = -72						; size = 4
tv2162 = -72						; size = 4
tv2160 = -72						; size = 4
_fTimeRate$ = -68					; size = 4
_iAniID$ = -64						; size = 4
tv2124 = -60						; size = 4
tv2112 = -60						; size = 4
$T536643 = -60						; size = 4
$T536611 = -60						; size = 4
_dwPreDelay$ = -60					; size = 4
tv2178 = -56						; size = 4
tv2173 = -56						; size = 4
tv2158 = -56						; size = 4
tv2156 = -56						; size = 4
tv2135 = -56						; size = 4
_value$536492 = -56					; size = 4
$T536485 = -56						; size = 4
_szEncEventType$536512 = -52				; size = 13
_szEncEventType$536657 = -32				; size = 12
__$EHRec$ = -12						; size = 12
_pChar$ = 8						; size = 4
?AttackSkillFire@ioConsecution2Skill@@MAEXPAVioBaseChar@@@Z PROC ; ioConsecution2Skill::AttackSkillFire, COMDAT
; _this$ = ecx

; 131  : {

  00000	6a 64		 push	 100			; 00000064H
  00002	b8 00 00 00 00	 mov	 eax, __ehhandler$?AttackSkillFire@ioConsecution2Skill@@MAEXPAVioBaseChar@@@Z
  00007	e8 00 00 00 00	 call	 __EH_prolog3_GS
  0000c	8b 45 08	 mov	 eax, DWORD PTR _pChar$[ebp]
  0000f	8b f1		 mov	 esi, ecx

; 132  : 	m_SkillState = SS_ACTION;

  00011	c7 86 e4 10 00
	00 02 00 00 00	 mov	 DWORD PTR [esi+4324], 2

; 133  : 	ioEntityGroup *pGrp = pChar->GetGroup();

  0001b	8b 78 04	 mov	 edi, DWORD PTR [eax+4]
  0001e	89 45 b0	 mov	 DWORD PTR _pChar$GSCopy$[ebp], eax

; 134  : 	int iAniID = pGrp->GetAnimationIdx( GetAttribute().m_AttackAnimation );

  00021	8b 06		 mov	 eax, DWORD PTR [esi]
  00023	89 7d b4	 mov	 DWORD PTR _pGrp$[ebp], edi
  00026	ff 90 a4 01 00
	00		 call	 DWORD PTR [eax+420]
  0002c	50		 push	 eax
  0002d	8b cf		 mov	 ecx, edi
  0002f	ff 15 00 00 00
	00		 call	 DWORD PTR __imp_?GetAnimationIdx@ioEntityGroup@@QAEHABVioHashString@@@Z
  00035	89 45 c0	 mov	 DWORD PTR _iAniID$[ebp], eax

; 135  : 	if( iAniID == -1 )	return;

  00038	83 f8 ff	 cmp	 eax, -1
  0003b	0f 84 2a 03 00
	00		 je	 $LN1@AttackSkil

; 136  : 
; 137  : 	float fTimeRate  = GetAttackTimeRate();

  00041	8b 06		 mov	 eax, DWORD PTR [esi]
  00043	8b ce		 mov	 ecx, esi
  00045	ff 90 90 01 00
	00		 call	 DWORD PTR [eax+400]
  0004b	d9 5d bc	 fstp	 DWORD PTR _fTimeRate$[ebp]

; 138  : 	DWORD dwPreDelay = GetAttribute().m_dwPreDelay;

  0004e	8b 06		 mov	 eax, DWORD PTR [esi]
  00050	8b ce		 mov	 ecx, esi
  00052	ff 90 a4 01 00
	00		 call	 DWORD PTR [eax+420]
  00058	8b 40 48	 mov	 eax, DWORD PTR [eax+72]
  0005b	89 45 c4	 mov	 DWORD PTR _dwPreDelay$[ebp], eax

; 139  : 
; 140  : 	pGrp->ClearAllLoopAni( FLOAT100, true );

  0005e	b8 64 00 00 00	 mov	 eax, 100		; 00000064H
  00063	33 db		 xor	 ebx, ebx
  00065	43		 inc	 ebx
  00066	89 45 c8	 mov	 DWORD PTR tv2178[ebp], eax
  00069	db 45 c8	 fild	 DWORD PTR tv2178[ebp]
  0006c	53		 push	 ebx
  0006d	85 c0		 test	 eax, eax
  0006f	79 06		 jns	 SHORT $LN248@AttackSkil
  00071	d8 05 00 00 00
	00		 fadd	 DWORD PTR __real@4f800000
$LN248@AttackSkil:
  00077	51		 push	 ecx
  00078	8b cf		 mov	 ecx, edi
  0007a	d9 1c 24	 fstp	 DWORD PTR [esp]
  0007d	ff 15 00 00 00
	00		 call	 DWORD PTR __imp_?ClearAllLoopAni@ioEntityGroup@@QAEXM_N@Z

; 141  : 	pGrp->ClearAllActionAni( FLOAT100, true );

  00083	b8 64 00 00 00	 mov	 eax, 100		; 00000064H
  00088	89 45 c8	 mov	 DWORD PTR tv2173[ebp], eax
  0008b	db 45 c8	 fild	 DWORD PTR tv2173[ebp]
  0008e	53		 push	 ebx
  0008f	85 c0		 test	 eax, eax
  00091	79 06		 jns	 SHORT $LN249@AttackSkil
  00093	d8 05 00 00 00
	00		 fadd	 DWORD PTR __real@4f800000
$LN249@AttackSkil:
  00099	51		 push	 ecx
  0009a	8b cf		 mov	 ecx, edi
  0009c	d9 1c 24	 fstp	 DWORD PTR [esp]
  0009f	ff 15 00 00 00
	00		 call	 DWORD PTR __imp_?ClearAllActionAni@ioEntityGroup@@QAEXM_N@Z

; 142  : 	pGrp->SetActionAni( iAniID, FLOAT100, FLOAT100, FLOAT1, FLOAT1/fTimeRate );

  000a5	b8 01 00 00 00	 mov	 eax, 1
  000aa	8b c8		 mov	 ecx, eax
  000ac	b8 01 00 00 00	 mov	 eax, 1
  000b1	8b d0		 mov	 edx, eax
  000b3	b8 64 00 00 00	 mov	 eax, 100		; 00000064H
  000b8	89 45 c8	 mov	 DWORD PTR $T536485[ebp], eax
  000bb	b8 64 00 00 00	 mov	 eax, 100		; 00000064H
  000c0	0f 57 c0	 xorps	 xmm0, xmm0
  000c3	53		 push	 ebx
  000c4	6a 00		 push	 0
  000c6	83 ec 18	 sub	 esp, 24			; 00000018H
  000c9	89 4d b8	 mov	 DWORD PTR tv2165[ebp], ecx
  000cc	db 45 b8	 fild	 DWORD PTR tv2165[ebp]
  000cf	f3 0f 11 44 24
	14		 movss	 DWORD PTR [esp+20], xmm0
  000d5	f3 0f 11 44 24
	10		 movss	 DWORD PTR [esp+16], xmm0
  000db	85 c9		 test	 ecx, ecx
  000dd	79 06		 jns	 SHORT $LN250@AttackSkil
  000df	d8 05 00 00 00
	00		 fadd	 DWORD PTR __real@4f800000
$LN250@AttackSkil:
  000e5	d8 75 bc	 fdiv	 DWORD PTR _fTimeRate$[ebp]
  000e8	d9 5d b8	 fstp	 DWORD PTR tv2162[ebp]
  000eb	d9 45 b8	 fld	 DWORD PTR tv2162[ebp]
  000ee	d9 5c 24 0c	 fstp	 DWORD PTR [esp+12]
  000f2	89 55 b8	 mov	 DWORD PTR tv2160[ebp], edx
  000f5	db 45 b8	 fild	 DWORD PTR tv2160[ebp]
  000f8	85 d2		 test	 edx, edx
  000fa	79 06		 jns	 SHORT $LN251@AttackSkil
  000fc	d8 05 00 00 00
	00		 fadd	 DWORD PTR __real@4f800000
$LN251@AttackSkil:
  00102	8b 4d c8	 mov	 ecx, DWORD PTR $T536485[ebp]
  00105	d9 5c 24 08	 fstp	 DWORD PTR [esp+8]
  00109	db 45 c8	 fild	 DWORD PTR $T536485[ebp]
  0010c	85 c9		 test	 ecx, ecx
  0010e	79 06		 jns	 SHORT $LN252@AttackSkil
  00110	d8 05 00 00 00
	00		 fadd	 DWORD PTR __real@4f800000
$LN252@AttackSkil:
  00116	d9 5c 24 04	 fstp	 DWORD PTR [esp+4]
  0011a	89 45 c8	 mov	 DWORD PTR tv2156[ebp], eax
  0011d	db 45 c8	 fild	 DWORD PTR tv2156[ebp]
  00120	85 c0		 test	 eax, eax
  00122	79 06		 jns	 SHORT $LN253@AttackSkil
  00124	d8 05 00 00 00
	00		 fadd	 DWORD PTR __real@4f800000
$LN253@AttackSkil:
  0012a	d9 1c 24	 fstp	 DWORD PTR [esp]
  0012d	ff 75 c0	 push	 DWORD PTR _iAniID$[ebp]
  00130	8b cf		 mov	 ecx, edi
  00132	ff 15 00 00 00
	00		 call	 DWORD PTR __imp_?SetActionAni@ioEntityGroup@@QAE_NHMMMMMM_N0@Z

; 143  : 
; 144  : 	pChar->AttachEffect( m_SkillEffectName );

  00138	8b 4d b0	 mov	 ecx, DWORD PTR _pChar$GSCopy$[ebp]
  0013b	53		 push	 ebx
  0013c	6a 00		 push	 0
  0013e	8d 86 b8 01 00
	00		 lea	 eax, DWORD PTR [esi+440]
  00144	50		 push	 eax
  00145	e8 00 00 00 00	 call	 ?AttachEffect@ioBaseChar@@QAEPAVioEffect@@ABVioHashString@@PAVioEntityEvent@@_N@Z ; ioBaseChar::AttachEffect

; 145  : 
; 146  : 	DWORD dwCurTime = FRAMEGETTIME();

  0014a	ff 15 00 00 00
	00		 call	 DWORD PTR __imp_?GetSingleton@ioFrameTimer@@SAAAV1@XZ
  00150	8b c8		 mov	 ecx, eax
  00152	ff 15 00 00 00
	00		 call	 DWORD PTR __imp_?GetLoopSec@ioFrameTimer@@QBEKXZ
  00158	8b d8		 mov	 ebx, eax

; 147  : 	m_dwMotionStartTime = m_dwMotionEndTime = dwCurTime;

  0015a	8d 45 c8	 lea	 eax, DWORD PTR _value$536492[ebp]
  0015d	50		 push	 eax
  0015e	8d 8e a8 02 00
	00		 lea	 ecx, DWORD PTR [esi+680]
  00164	89 9e d8 02 00
	00		 mov	 DWORD PTR [esi+728], ebx
  0016a	89 5d c8	 mov	 DWORD PTR _value$536492[ebp], ebx
  0016d	e8 00 00 00 00	 call	 ?EncryptValueToPool@?$CEncrypt@K@@AAEXPBD@Z ; CEncrypt<unsigned long>::EncryptValueToPool

; 148  : 	m_dwMotionEndTime += pGrp->GetAnimationFullTime( iAniID ) * fTimeRate;

  00172	ff 75 c0	 push	 DWORD PTR _iAniID$[ebp]
  00175	8b cf		 mov	 ecx, edi
  00177	ff 15 00 00 00
	00		 call	 DWORD PTR __imp_?GetAnimationFullTime@ioEntityGroup@@QAEMH@Z
  0017d	d8 4d bc	 fmul	 DWORD PTR _fTimeRate$[ebp]
  00180	8b 86 d8 02 00
	00		 mov	 eax, DWORD PTR [esi+728]
  00186	db 86 d8 02 00
	00		 fild	 DWORD PTR [esi+728]
  0018c	85 c0		 test	 eax, eax
  0018e	79 06		 jns	 SHORT $LN254@AttackSkil
  00190	dc 05 00 00 00
	00		 fadd	 QWORD PTR __real@41f0000000000000
$LN254@AttackSkil:
  00196	de c1		 faddp	 ST(1), ST(0)
  00198	e8 00 00 00 00	 call	 __ftol2
  0019d	89 86 d8 02 00
	00		 mov	 DWORD PTR [esi+728], eax

; 149  : 	m_dwMotionEndTime += dwPreDelay + GetAttribute().m_dwEndDelay;

  001a3	8b 06		 mov	 eax, DWORD PTR [esi]
  001a5	8b ce		 mov	 ecx, esi
  001a7	ff 90 a4 01 00
	00		 call	 DWORD PTR [eax+420]
  001ad	8b 40 4c	 mov	 eax, DWORD PTR [eax+76]
  001b0	03 45 c4	 add	 eax, DWORD PTR _dwPreDelay$[ebp]
  001b3	6a 03		 push	 3
  001b5	01 86 d8 02 00
	00		 add	 DWORD PTR [esi+728], eax

; 150  : 
; 151  : 	m_dwFireMotionEndTime = dwCurTime;

  001bb	89 9e 24 02 00
	00		 mov	 DWORD PTR [esi+548], ebx

; 152  : 	m_dwFireMotionEndTime += pGrp->GetAnimationEventTime_e( iAniID, "firemotion_e" ) * fTimeRate;

  001c1	c7 45 cc 8b 85
	99 8f		 mov	 DWORD PTR _szEncEventType$536512[ebp], -1885764213 ; 8f99858bH
  001c8	c7 45 d0 80 83
	9f 83		 mov	 DWORD PTR _szEncEventType$536512[ebp+4], -2086698112 ; 839f8380H
  001cf	c7 45 d4 82 82
	b4 8f		 mov	 DWORD PTR _szEncEventType$536512[ebp+8], -1883995518 ; 8fb48282H
  001d6	8d 45 cc	 lea	 eax, DWORD PTR _szEncEventType$536512[ebp]
  001d9	c6 45 d8 00	 mov	 BYTE PTR _szEncEventType$536512[ebp+12], 0
  001dd	59		 pop	 ecx
$LL125@AttackSkil:
  001de	81 30 ed ec eb
	ea		 xor	 DWORD PTR [eax], -353637139 ; eaebecedH
  001e4	83 c0 04	 add	 eax, 4
  001e7	49		 dec	 ecx
  001e8	75 f4		 jne	 SHORT $LL125@AttackSkil
  001ea	8d 45 cc	 lea	 eax, DWORD PTR _szEncEventType$536512[ebp]
  001ed	50		 push	 eax
  001ee	8d 4d a0	 lea	 ecx, DWORD PTR $T536612[ebp]
  001f1	ff 15 00 00 00
	00		 call	 DWORD PTR __imp_??0ioHashString@@QAE@PBD@Z
  001f7	8b 4d b4	 mov	 ecx, DWORD PTR _pGrp$[ebp]
  001fa	83 65 fc 00	 and	 DWORD PTR __$EHRec$[ebp+8], 0
  001fe	8d 45 a0	 lea	 eax, DWORD PTR $T536612[ebp]
  00201	50		 push	 eax
  00202	ff 75 c0	 push	 DWORD PTR _iAniID$[ebp]
  00205	ff 15 00 00 00
	00		 call	 DWORD PTR __imp_?GetAnimationEventTime@ioEntityGroup@@QAEMHABVioHashString@@@Z
  0020b	d9 5d c4	 fstp	 DWORD PTR $T536611[ebp]
  0020e	83 4d fc ff	 or	 DWORD PTR __$EHRec$[ebp+8], -1
  00212	8d 4d a0	 lea	 ecx, DWORD PTR $T536612[ebp]
  00215	ff 15 00 00 00
	00		 call	 DWORD PTR __imp_??1ioHashString@@QAE@XZ
  0021b	d9 45 c4	 fld	 DWORD PTR $T536611[ebp]
  0021e	8b 86 24 02 00
	00		 mov	 eax, DWORD PTR [esi+548]
  00224	d8 4d bc	 fmul	 DWORD PTR _fTimeRate$[ebp]
  00227	db 86 24 02 00
	00		 fild	 DWORD PTR [esi+548]
  0022d	85 c0		 test	 eax, eax
  0022f	79 06		 jns	 SHORT $LN255@AttackSkil
  00231	dc 05 00 00 00
	00		 fadd	 QWORD PTR __real@41f0000000000000
$LN255@AttackSkil:
  00237	de c1		 faddp	 ST(1), ST(0)
  00239	e8 00 00 00 00	 call	 __ftol2
  0023e	6a 02		 push	 2
  00240	89 86 24 02 00
	00		 mov	 DWORD PTR [esi+548], eax

; 153  : 
; 154  : 	m_dwEnableReserveTime = dwCurTime;

  00246	89 9e dc 02 00
	00		 mov	 DWORD PTR [esi+732], ebx

; 155  : 	m_dwEnableReserveTime += pGrp->GetAnimationEventTime_e( iAniID, "key_reserve" ) * fTimeRate;

  0024c	c7 45 e0 86 89
	92 b5		 mov	 DWORD PTR _szEncEventType$536657[ebp], -1248687738 ; b5928986H
  00253	c7 45 e4 9f 89
	98 8f		 mov	 DWORD PTR _szEncEventType$536657[ebp+4], -1885828705 ; 8f98899fH
  0025a	8d 45 e0	 lea	 eax, DWORD PTR _szEncEventType$536657[ebp]
  0025d	c7 45 e8 9f 9a
	8e 00		 mov	 DWORD PTR _szEncEventType$536657[ebp+8], 9345695 ; 008e9a9fH
  00264	59		 pop	 ecx
$LL232@AttackSkil:
  00265	81 30 ed ec eb
	ea		 xor	 DWORD PTR [eax], -353637139 ; eaebecedH
  0026b	83 c0 04	 add	 eax, 4
  0026e	49		 dec	 ecx
  0026f	75 f4		 jne	 SHORT $LL232@AttackSkil
  00271	6a 08		 push	 8
  00273	58		 pop	 eax
$LL229@AttackSkil:
  00274	8b c8		 mov	 ecx, eax
  00276	81 e1 03 00 00
	80		 and	 ecx, -2147483645	; 80000003H
  0027c	79 05		 jns	 SHORT $LN256@AttackSkil
  0027e	49		 dec	 ecx
  0027f	83 c9 fc	 or	 ecx, -4			; fffffffcH
  00282	41		 inc	 ecx
$LN256@AttackSkil:
  00283	b2 ed		 mov	 dl, -19			; ffffffedH
  00285	2a d1		 sub	 dl, cl
  00287	30 54 05 e0	 xor	 BYTE PTR _szEncEventType$536657[ebp+eax], dl
  0028b	40		 inc	 eax
  0028c	83 f8 0b	 cmp	 eax, 11			; 0000000bH
  0028f	7c e3		 jl	 SHORT $LL229@AttackSkil
  00291	8d 45 e0	 lea	 eax, DWORD PTR _szEncEventType$536657[ebp]
  00294	50		 push	 eax
  00295	8d 4d 90	 lea	 ecx, DWORD PTR $T536644[ebp]
  00298	ff 15 00 00 00
	00		 call	 DWORD PTR __imp_??0ioHashString@@QAE@PBD@Z
  0029e	8b 4d b4	 mov	 ecx, DWORD PTR _pGrp$[ebp]
  002a1	8d 45 90	 lea	 eax, DWORD PTR $T536644[ebp]
  002a4	50		 push	 eax
  002a5	ff 75 c0	 push	 DWORD PTR _iAniID$[ebp]
  002a8	33 db		 xor	 ebx, ebx
  002aa	43		 inc	 ebx
  002ab	89 5d fc	 mov	 DWORD PTR __$EHRec$[ebp+8], ebx
  002ae	ff 15 00 00 00
	00		 call	 DWORD PTR __imp_?GetAnimationEventTime@ioEntityGroup@@QAEMHABVioHashString@@@Z
  002b4	d9 5d c4	 fstp	 DWORD PTR $T536643[ebp]
  002b7	83 4d fc ff	 or	 DWORD PTR __$EHRec$[ebp+8], -1
  002bb	8d 4d 90	 lea	 ecx, DWORD PTR $T536644[ebp]
  002be	ff 15 00 00 00
	00		 call	 DWORD PTR __imp_??1ioHashString@@QAE@XZ
  002c4	d9 45 c4	 fld	 DWORD PTR $T536643[ebp]
  002c7	8b 86 dc 02 00
	00		 mov	 eax, DWORD PTR [esi+732]
  002cd	d8 4d bc	 fmul	 DWORD PTR _fTimeRate$[ebp]
  002d0	db 86 dc 02 00
	00		 fild	 DWORD PTR [esi+732]
  002d6	85 c0		 test	 eax, eax
  002d8	79 06		 jns	 SHORT $LN257@AttackSkil
  002da	dc 05 00 00 00
	00		 fadd	 QWORD PTR __real@41f0000000000000
$LN257@AttackSkil:
  002e0	de c1		 faddp	 ST(1), ST(0)
  002e2	e8 00 00 00 00	 call	 __ftol2

; 156  : 
; 157  : 	pChar->SetReservedSliding( GetAttribute().m_vForceInfoList, iAniID, fTimeRate, 0 );

  002e7	f3 0f 10 05 00
	00 00 00	 movss	 xmm0, DWORD PTR __real@3f800000
  002ef	53		 push	 ebx
  002f0	51		 push	 ecx
  002f1	f3 0f 11 04 24	 movss	 DWORD PTR [esp], xmm0
  002f6	f3 0f 10 45 bc	 movss	 xmm0, DWORD PTR _fTimeRate$[ebp]
  002fb	6a 00		 push	 0
  002fd	51		 push	 ecx
  002fe	f3 0f 11 04 24	 movss	 DWORD PTR [esp], xmm0
  00303	ff 75 c0	 push	 DWORD PTR _iAniID$[ebp]
  00306	89 86 dc 02 00
	00		 mov	 DWORD PTR [esi+732], eax
  0030c	8b 06		 mov	 eax, DWORD PTR [esi]
  0030e	8b ce		 mov	 ecx, esi
  00310	ff 90 a4 01 00
	00		 call	 DWORD PTR [eax+420]
  00316	8b 5d b0	 mov	 ebx, DWORD PTR _pChar$GSCopy$[ebp]
  00319	83 c0 38	 add	 eax, 56			; 00000038H
  0031c	50		 push	 eax
  0031d	8b cb		 mov	 ecx, ebx
  0031f	e8 00 00 00 00	 call	 ?SetReservedSliding@ioBaseChar@@QAEXABV?$vector@UForceInfo@@V?$allocator@UForceInfo@@@std@@@std@@HMKM_N@Z ; ioBaseChar::SetReservedSliding

; 158  : 	pChar->ReduceCurSkillGaugeBySkill( GetOwnerItem(), pChar->GetCurItemSkillGauge( GetOwnerItem() ) );

  00324	8b be a4 02 00
	00		 mov	 edi, DWORD PTR [esi+676]
  0032a	57		 push	 edi
  0032b	8b cb		 mov	 ecx, ebx
  0032d	e8 00 00 00 00	 call	 ?GetCurItemSkillGauge@ioBaseChar@@QAEMPAVioItem@@@Z ; ioBaseChar::GetCurItemSkillGauge
  00332	51		 push	 ecx
  00333	d9 1c 24	 fstp	 DWORD PTR [esp]
  00336	57		 push	 edi
  00337	8b cb		 mov	 ecx, ebx
  00339	e8 00 00 00 00	 call	 ?ReduceCurSkillGaugeBySkill@ioBaseChar@@QAEMPAVioItem@@M@Z ; ioBaseChar::ReduceCurSkillGaugeBySkill
  0033e	dd d8		 fstp	 ST(0)

; 159  : 
; 160  : 	if( pChar )
; 161  : 	{
; 162  : 		m_iWeaponFireCnt = 0;

  00340	83 a6 3c 12 00
	00 00		 and	 DWORD PTR [esi+4668], 0

; 163  : 		m_bMotionSetted = true;
; 164  : 		m_bFirstMoveMotion = true;
; 165  : 
; 166  : 		pChar->ChangeDirectionExplicitIfDirChanged( true );

  00347	6a 01		 push	 1
  00349	8b cb		 mov	 ecx, ebx
  0034b	c6 86 40 12 00
	00 01		 mov	 BYTE PTR [esi+4672], 1
  00352	c6 86 42 12 00
	00 01		 mov	 BYTE PTR [esi+4674], 1
  00359	e8 00 00 00 00	 call	 ?ChangeDirectionExplicitIfDirChanged@ioBaseChar@@QAE_N_N@Z ; ioBaseChar::ChangeDirectionExplicitIfDirChanged

; 167  : 		m_StartDirKey = pChar->GetCurDirKey();

  0035e	8b cb		 mov	 ecx, ebx
  00360	e8 00 00 00 00	 call	 ?GetCurDirKey@ioBaseChar@@QAE?AW4DirKeyInput@ioUserKeyInput@@XZ ; ioBaseChar::GetCurDirKey
  00365	89 86 44 12 00
	00		 mov	 DWORD PTR [esi+4676], eax
$LN1@AttackSkil:

; 168  : 	}
; 169  : }

  0036b	e8 00 00 00 00	 call	 __EH_epilog3_GS
  00370	c2 04 00	 ret	 4
_TEXT	ENDS
;	COMDAT text$x
text$x	SEGMENT
__unwindfunclet$?AttackSkillFire@ioConsecution2Skill@@MAEXPAVioBaseChar@@@Z$0:
  00000	8d 4d a0	 lea	 ecx, DWORD PTR $T536612[ebp]
  00003	ff 25 00 00 00
	00		 jmp	 DWORD PTR __imp_??1ioHashString@@QAE@XZ
__unwindfunclet$?AttackSkillFire@ioConsecution2Skill@@MAEXPAVioBaseChar@@@Z$1:
  00009	8d 4d 90	 lea	 ecx, DWORD PTR $T536644[ebp]
  0000c	ff 25 00 00 00
	00		 jmp	 DWORD PTR __imp_??1ioHashString@@QAE@XZ
__ehhandler$?AttackSkillFire@ioConsecution2Skill@@MAEXPAVioBaseChar@@@Z:
  00012	8b 54 24 08	 mov	 edx, DWORD PTR [esp+8]
  00016	8d 42 0c	 lea	 eax, DWORD PTR [edx+12]
  00019	8b 4a 8c	 mov	 ecx, DWORD PTR [edx-116]
  0001c	33 c8		 xor	 ecx, eax
  0001e	e8 00 00 00 00	 call	 @__security_check_cookie@4
  00023	8b 4a fc	 mov	 ecx, DWORD PTR [edx-4]
  00026	33 c8		 xor	 ecx, eax
  00028	e8 00 00 00 00	 call	 @__security_check_cookie@4
  0002d	b8 00 00 00 00	 mov	 eax, OFFSET __ehfuncinfo$?AttackSkillFire@ioConsecution2Skill@@MAEXPAVioBaseChar@@@Z
  00032	e9 00 00 00 00	 jmp	 ___CxxFrameHandler3
text$x	ENDS
?AttackSkillFire@ioConsecution2Skill@@MAEXPAVioBaseChar@@@Z ENDP ; ioConsecution2Skill::AttackSkillFire
PUBLIC	?OnSkillStart@ioConsecution2Skill@@UAE_NPAVioBaseChar@@@Z ; ioConsecution2Skill::OnSkillStart
EXTRN	?SetSkillNameChatBubble@ioSkill@@IAEXPAVioBaseChar@@@Z:PROC ; ioSkill::SetSkillNameChatBubble
EXTRN	?ReduceNeedGaugeBySkill@ioBaseChar@@QAEMPAVioSkill@@M@Z:PROC ; ioBaseChar::ReduceNeedGaugeBySkill
EXTRN	?GetNeedGauge@ioSkill@@QAEMABVioHashString@@@Z:PROC ; ioSkill::GetNeedGauge
EXTRN	?ChangeSkillWeaponMesh@ioBaseChar@@QAE_NPAVioSkill@@ABVioHashString@@_N@Z:PROC ; ioBaseChar::ChangeSkillWeaponMesh
EXTRN	__imp_?IsEmpty@ioHashString@@QBE_NXZ:PROC
EXTRN	?CheckSkillDesc@ioSkill@@IAEXPAVioBaseChar@@@Z:PROC ; ioSkill::CheckSkillDesc
EXTRN	?SetAutoTargetTrackingEndTime@ioBaseChar@@QAEXK@Z:PROC ; ioBaseChar::SetAutoTargetTrackingEndTime
EXTRN	?SetAutoTarget@ioBaseChar@@QAEXW4AutoTargetType@@@Z:PROC ; ioBaseChar::SetAutoTarget
EXTRN	?IncreaseWeaponIndexBase@ioBaseChar@@QAEKXZ:PROC ; ioBaseChar::IncreaseWeaponIndexBase
EXTRN	?ShowWeaponItemMesh@ioBaseChar@@QAEX_N0@Z:PROC	; ioBaseChar::ShowWeaponItemMesh
EXTRN	?SetExtraAttackForce@ioAttackSkill@@IAEXXZ:PROC	; ioAttackSkill::SetExtraAttackForce
EXTRN	?GetFrictionValue@ioGrowthAttackForceUpInfo@@QAEMPAVioPlayStage@@@Z:PROC ; ioGrowthAttackForceUpInfo::GetFrictionValue
EXTRN	?GetForceValue@ioGrowthAttackForceUpInfo@@QAEMPAVioPlayStage@@@Z:PROC ; ioGrowthAttackForceUpInfo::GetForceValue
EXTRN	?GetGrowthUpInfoByType@ioSkill@@QAEPAVioGrowthUpInfo@@HABVioHashString@@@Z:PROC ; ioSkill::GetGrowthUpInfoByType
EXTRN	?GetPlayStage@ioSkillMaker@@QAEPAVioPlayStage@@XZ:PROC ; ioSkillMaker::GetPlayStage
EXTRN	?GetSingleton@ioSkillMaker@@SAAAV1@XZ:PROC	; ioSkillMaker::GetSingleton
EXTRN	?SetCameraBuff@ioSkill@@IAEXPAVioBaseChar@@@Z:PROC ; ioSkill::SetCameraBuff
EXTRN	?InitExtraAniJump@ioSkill@@IAEXXZ:PROC		; ioSkill::InitExtraAniJump
EXTRN	?SetSkillProtection@ioBaseChar@@QAEXXZ:PROC	; ioBaseChar::SetSkillProtection
;	COMDAT xdata$x
; File d:\lost saga for developer\youtube\tutorial\source\src\lsclient\iobasechar.h
xdata$x	SEGMENT
__unwindtable$?OnSkillStart@ioConsecution2Skill@@UAE_NPAVioBaseChar@@@Z DD 0ffffffffH
	DD	FLAT:__unwindfunclet$?OnSkillStart@ioConsecution2Skill@@UAE_NPAVioBaseChar@@@Z$0
	DD	00H
	DD	FLAT:__unwindfunclet$?OnSkillStart@ioConsecution2Skill@@UAE_NPAVioBaseChar@@@Z$1
__ehfuncinfo$?OnSkillStart@ioConsecution2Skill@@UAE_NPAVioBaseChar@@@Z DD 019930522H
	DD	02H
	DD	FLAT:__unwindtable$?OnSkillStart@ioConsecution2Skill@@UAE_NPAVioBaseChar@@@Z
	DD	2 DUP(00H)
	DD	2 DUP(00H)
	DD	00H
	DD	01H
; Function compile flags: /Ogsp
; File d:\lost saga for developer\youtube\tutorial\source\src\lsclient\ioconsecution2skill.cpp
xdata$x	ENDS
;	COMDAT ?OnSkillStart@ioConsecution2Skill@@UAE_NPAVioBaseChar@@@Z
_TEXT	SEGMENT
_szPreDelay$531990 = -76				; size = 16
$T536827 = -60						; size = 16
_value$536940 = -41					; size = 1
_value$536799 = -40					; size = 4
_pGrp$531988 = -40					; size = 4
_pStage$ = -40						; size = 4
_value$536953 = -36					; size = 4
$T536826 = -36						; size = 4
_dwPreDelay$531998 = -36				; size = 4
_iAniID$531991 = -36					; size = 4
_szEncEventType$536840 = -32				; size = 11
__$EHRec$ = -12						; size = 12
_pChar$ = 8						; size = 4
?OnSkillStart@ioConsecution2Skill@@UAE_NPAVioBaseChar@@@Z PROC ; ioConsecution2Skill::OnSkillStart, COMDAT
; _this$ = ecx

; 172  : {

  00000	6a 40		 push	 64			; 00000040H
  00002	b8 00 00 00 00	 mov	 eax, __ehhandler$?OnSkillStart@ioConsecution2Skill@@UAE_NPAVioBaseChar@@@Z
  00007	e8 00 00 00 00	 call	 __EH_prolog3_GS
  0000c	8b 5d 08	 mov	 ebx, DWORD PTR _pChar$[ebp]
  0000f	8b f1		 mov	 esi, ecx

; 173  : 	if( !HasSkillMotion() )

  00011	8b 06		 mov	 eax, DWORD PTR [esi]
  00013	ff 90 24 01 00
	00		 call	 DWORD PTR [eax+292]
  00019	84 c0		 test	 al, al
  0001b	0f 84 10 03 00
	00		 je	 $LN15@OnSkillSta
$LN14@OnSkillSta:

; 174  : 		return false;
; 175  : 
; 176  : 	pChar->SetSkillProtection();

  00021	8b cb		 mov	 ecx, ebx
  00023	e8 00 00 00 00	 call	 ?SetSkillProtection@ioBaseChar@@QAEXXZ ; ioBaseChar::SetSkillProtection

; 177  : 
; 178  : 	ClearData();

  00028	8b ce		 mov	 ecx, esi
  0002a	e8 00 00 00 00	 call	 ?ClearData@ioConsecution2Skill@@IAEXXZ ; ioConsecution2Skill::ClearData

; 179  : 
; 180  : 	m_dwAttackEndTime = 0;

  0002f	33 ff		 xor	 edi, edi
  00031	89 be 50 10 00
	00		 mov	 DWORD PTR [esi+4176], edi

; 181  : 	m_dwLoopStartTime = 0;

  00037	89 be e8 10 00
	00		 mov	 DWORD PTR [esi+4328], edi

; 182  : 
; 183  : 	InitExtraAniJump();

  0003d	e8 00 00 00 00	 call	 ?InitExtraAniJump@ioSkill@@IAEXXZ ; ioSkill::InitExtraAniJump

; 184  : 
; 185  : 	m_dwAniRotateTime = 0;
; 186  : 	m_fAniRotateAngle = 0.0f;

  00042	0f 57 c0	 xorps	 xmm0, xmm0
  00045	89 be 2c 07 00
	00		 mov	 DWORD PTR [esi+1836], edi
  0004b	f3 0f 11 86 30
	07 00 00	 movss	 DWORD PTR [esi+1840], xmm0

; 187  : 
; 188  : 	m_iCurAniRotate = 0;

  00053	89 be 28 07 00
	00		 mov	 DWORD PTR [esi+1832], edi

; 189  : 
; 190  : 	m_dwEnableSwitchTime = 0;

  00059	89 be 5c 03 00
	00		 mov	 DWORD PTR [esi+860], edi

; 191  : 	m_dwEnableSemiSwitchTime = 0;

  0005f	89 be 64 03 00
	00		 mov	 DWORD PTR [esi+868], edi

; 192  : 
; 193  : 	if( m_dwSwitchSkill > 0 )

  00065	39 be 58 03 00
	00		 cmp	 DWORD PTR [esi+856], edi
  0006b	76 1a		 jbe	 SHORT $LN13@OnSkillSta

; 194  : 		m_dwEnableSwitchTime = FRAMEGETTIME() + m_dwSwitchSkill;

  0006d	ff 15 00 00 00
	00		 call	 DWORD PTR __imp_?GetSingleton@ioFrameTimer@@SAAAV1@XZ
  00073	8b c8		 mov	 ecx, eax
  00075	ff 15 00 00 00
	00		 call	 DWORD PTR __imp_?GetLoopSec@ioFrameTimer@@QBEKXZ
  0007b	03 86 58 03 00
	00		 add	 eax, DWORD PTR [esi+856]
  00081	89 86 5c 03 00
	00		 mov	 DWORD PTR [esi+860], eax
$LN13@OnSkillSta:

; 195  : 	if( m_dwSemiSwitchSkill > 0 )

  00087	39 be 60 03 00
	00		 cmp	 DWORD PTR [esi+864], edi
  0008d	76 1a		 jbe	 SHORT $LN12@OnSkillSta

; 196  : 		m_dwEnableSemiSwitchTime = FRAMEGETTIME() + m_dwSemiSwitchSkill;

  0008f	ff 15 00 00 00
	00		 call	 DWORD PTR __imp_?GetSingleton@ioFrameTimer@@SAAAV1@XZ
  00095	8b c8		 mov	 ecx, eax
  00097	ff 15 00 00 00
	00		 call	 DWORD PTR __imp_?GetLoopSec@ioFrameTimer@@QBEKXZ
  0009d	03 86 60 03 00
	00		 add	 eax, DWORD PTR [esi+864]
  000a3	89 86 64 03 00
	00		 mov	 DWORD PTR [esi+868], eax
$LN12@OnSkillSta:

; 197  : 
; 198  : 	m_dwSkillStartTime = FRAMEGETTIME();

  000a9	ff 15 00 00 00
	00		 call	 DWORD PTR __imp_?GetSingleton@ioFrameTimer@@SAAAV1@XZ
  000af	8b c8		 mov	 ecx, eax
  000b1	ff 15 00 00 00
	00		 call	 DWORD PTR __imp_?GetLoopSec@ioFrameTimer@@QBEKXZ
  000b7	89 45 d8	 mov	 DWORD PTR _value$536799[ebp], eax
  000ba	8d 45 d8	 lea	 eax, DWORD PTR _value$536799[ebp]
  000bd	50		 push	 eax
  000be	8d 8e 94 0e 00
	00		 lea	 ecx, DWORD PTR [esi+3732]
  000c4	e8 00 00 00 00	 call	 ?EncryptValueToPool@?$CEncrypt@K@@AAEXPBD@Z ; CEncrypt<unsigned long>::EncryptValueToPool

; 199  : 
; 200  : 	SetCameraBuff( pChar );

  000c9	53		 push	 ebx
  000ca	8b ce		 mov	 ecx, esi
  000cc	e8 00 00 00 00	 call	 ?SetCameraBuff@ioSkill@@IAEXPAVioBaseChar@@@Z ; ioSkill::SetCameraBuff

; 201  : 
; 202  : 	ioPlayStage *pStage = g_SkillMaker.GetPlayStage();

  000d1	e8 00 00 00 00	 call	 ?GetSingleton@ioSkillMaker@@SAAAV1@XZ ; ioSkillMaker::GetSingleton
  000d6	8b c8		 mov	 ecx, eax
  000d8	e8 00 00 00 00	 call	 ?GetPlayStage@ioSkillMaker@@QAEPAVioPlayStage@@XZ ; ioSkillMaker::GetPlayStage
  000dd	89 45 d8	 mov	 DWORD PTR _pStage$[ebp], eax

; 203  : 
; 204  : 	// ExtraAttackForce
; 205  : 	ioGrowthAttackForceUpInfo *pForceInfo = NULL;
; 206  : 	pForceInfo = ToAttackForceUpInfo(GetGrowthUpInfoByType(GT_SKILL_ATTACK_FORCE, pChar->GetCharName()));

  000e0	8d 83 d4 02 00
	00		 lea	 eax, DWORD PTR [ebx+724]
  000e6	50		 push	 eax
  000e7	6a 1c		 push	 28			; 0000001cH
  000e9	8b ce		 mov	 ecx, esi
  000eb	e8 00 00 00 00	 call	 ?GetGrowthUpInfoByType@ioSkill@@QAEPAVioGrowthUpInfo@@HABVioHashString@@@Z ; ioSkill::GetGrowthUpInfoByType
  000f0	50		 push	 eax
  000f1	e8 00 00 00 00	 call	 ?ToAttackForceUpInfo@@YAPAVioGrowthAttackForceUpInfo@@PAVioGrowthUpInfo@@@Z ; ToAttackForceUpInfo

; 207  : 	m_fExtraAttackMoveForce = 0.0f;

  000f6	0f 57 c0	 xorps	 xmm0, xmm0
  000f9	8b f8		 mov	 edi, eax
  000fb	59		 pop	 ecx
  000fc	f3 0f 11 86 48
	10 00 00	 movss	 DWORD PTR [esi+4168], xmm0

; 208  : 	m_fExtraAttackMoveFriction = 0.0f;

  00104	f3 0f 11 86 4c
	10 00 00	 movss	 DWORD PTR [esi+4172], xmm0

; 209  : 
; 210  : 	if( pForceInfo )

  0010c	85 ff		 test	 edi, edi
  0010e	74 20		 je	 SHORT $LN11@OnSkillSta

; 211  : 	{
; 212  : 		m_fExtraAttackMoveForce = pForceInfo->GetForceValue(pStage);

  00110	ff 75 d8	 push	 DWORD PTR _pStage$[ebp]
  00113	8b cf		 mov	 ecx, edi
  00115	e8 00 00 00 00	 call	 ?GetForceValue@ioGrowthAttackForceUpInfo@@QAEMPAVioPlayStage@@@Z ; ioGrowthAttackForceUpInfo::GetForceValue
  0011a	d9 9e 48 10 00
	00		 fstp	 DWORD PTR [esi+4168]

; 213  : 		m_fExtraAttackMoveFriction = pForceInfo->GetFrictionValue(pStage);

  00120	ff 75 d8	 push	 DWORD PTR _pStage$[ebp]
  00123	8b cf		 mov	 ecx, edi
  00125	e8 00 00 00 00	 call	 ?GetFrictionValue@ioGrowthAttackForceUpInfo@@QAEMPAVioPlayStage@@@Z ; ioGrowthAttackForceUpInfo::GetFrictionValue
  0012a	d9 9e 4c 10 00
	00		 fstp	 DWORD PTR [esi+4172]
$LN11@OnSkillSta:

; 214  : 	}
; 215  : 
; 216  : 	SetExtraAttackForce();

  00130	8b ce		 mov	 ecx, esi
  00132	e8 00 00 00 00	 call	 ?SetExtraAttackForce@ioAttackSkill@@IAEXXZ ; ioAttackSkill::SetExtraAttackForce

; 217  : 
; 218  : 	//    
; 219  : 	if( m_bUseItemMesh )

  00137	80 be 08 0f 00
	00 00		 cmp	 BYTE PTR [esi+3848], 0
  0013e	74 0b		 je	 SHORT $LN10@OnSkillSta

; 220  : 	{
; 221  : 		pChar->ShowWeaponItemMesh( false );

  00140	6a 00		 push	 0
  00142	6a 00		 push	 0
  00144	8b cb		 mov	 ecx, ebx
  00146	e8 00 00 00 00	 call	 ?ShowWeaponItemMesh@ioBaseChar@@QAEX_N0@Z ; ioBaseChar::ShowWeaponItemMesh
$LN10@OnSkillSta:

; 222  : 	}
; 223  : 
; 224  : 	m_dwWeaponBaseIndex = pChar->IncreaseWeaponIndexBase();

  0014b	8b cb		 mov	 ecx, ebx
  0014d	e8 00 00 00 00	 call	 ?IncreaseWeaponIndexBase@ioBaseChar@@QAEKXZ ; ioBaseChar::IncreaseWeaponIndexBase
  00152	89 46 78	 mov	 DWORD PTR [esi+120], eax

; 225  : 	if( !StartPreDelayAnimation( pChar ) )	// Delay Animation 

  00155	8b 06		 mov	 eax, DWORD PTR [esi]
  00157	53		 push	 ebx
  00158	8b ce		 mov	 ecx, esi
  0015a	ff 90 88 01 00
	00		 call	 DWORD PTR [eax+392]
  00160	84 c0		 test	 al, al
  00162	75 10		 jne	 SHORT $LN9@OnSkillSta

; 226  : 	{
; 227  : 		AttackSkillFire( pChar );

  00164	8b 06		 mov	 eax, DWORD PTR [esi]
  00166	53		 push	 ebx
  00167	8b ce		 mov	 ecx, esi
  00169	ff 90 8c 01 00
	00		 call	 DWORD PTR [eax+396]

; 228  : 	}
; 229  : 	else

  0016f	e9 18 01 00 00	 jmp	 $LN3@OnSkillSta
$LN9@OnSkillSta:

; 230  : 	{
; 231  : 		DWORD dwTrackingTime = 0;
; 232  : 		ioEntityGroup *pGrp = pChar->GetGroup();

  00174	8b 43 04	 mov	 eax, DWORD PTR [ebx+4]
  00177	33 ff		 xor	 edi, edi
  00179	89 45 d8	 mov	 DWORD PTR _pGrp$531988[ebp], eax

; 233  : 		if( pGrp )

  0017c	85 c0		 test	 eax, eax
  0017e	0f 84 c1 00 00
	00		 je	 $LN7@OnSkillSta

; 234  : 		{
; 235  : 			ioHashString szPreDelay = GetPreDelayAniName();

  00184	8b 06		 mov	 eax, DWORD PTR [esi]
  00186	8b ce		 mov	 ecx, esi
  00188	ff 90 30 01 00
	00		 call	 DWORD PTR [eax+304]
  0018e	50		 push	 eax
  0018f	8d 4d b4	 lea	 ecx, DWORD PTR _szPreDelay$531990[ebp]
  00192	ff 15 00 00 00
	00		 call	 DWORD PTR __imp_??0ioHashString@@QAE@ABV0@@Z

; 236  : 
; 237  : 			int iAniID = pGrp->GetAnimationIdx( szPreDelay );

  00198	8b 4d d8	 mov	 ecx, DWORD PTR _pGrp$531988[ebp]
  0019b	21 7d fc	 and	 DWORD PTR __$EHRec$[ebp+8], edi
  0019e	8d 45 b4	 lea	 eax, DWORD PTR _szPreDelay$531990[ebp]
  001a1	50		 push	 eax
  001a2	ff 15 00 00 00
	00		 call	 DWORD PTR __imp_?GetAnimationIdx@ioEntityGroup@@QAEHABVioHashString@@@Z
  001a8	89 45 dc	 mov	 DWORD PTR _iAniID$531991[ebp], eax

; 238  : 			if( iAniID != -1 )

  001ab	83 f8 ff	 cmp	 eax, -1
  001ae	0f 84 84 00 00
	00		 je	 $LN6@OnSkillSta

; 239  : 				dwTrackingTime = pGrp->GetAnimationEventTime_e( iAniID, "tracking_e" );

  001b4	6a 02		 push	 2
  001b6	c7 45 e0 99 9e
	8a 89		 mov	 DWORD PTR _szEncEventType$536840[ebp], -1987404135 ; 898a9e99H
  001bd	c7 45 e4 86 85
	85 8d		 mov	 DWORD PTR _szEncEventType$536840[ebp+4], -1920629370 ; 8d858586H
  001c4	66 c7 45 e8 b2
	89		 mov	 WORD PTR _szEncEventType$536840[ebp+8], 35250 ; 000089b2H
  001ca	8d 45 e0	 lea	 eax, DWORD PTR _szEncEventType$536840[ebp]
  001cd	c6 45 ea 00	 mov	 BYTE PTR _szEncEventType$536840[ebp+10], 0
  001d1	59		 pop	 ecx
$LL128@OnSkillSta:
  001d2	81 30 ed ec eb
	ea		 xor	 DWORD PTR [eax], -353637139 ; eaebecedH
  001d8	83 c0 04	 add	 eax, 4
  001db	49		 dec	 ecx
  001dc	75 f4		 jne	 SHORT $LL128@OnSkillSta
  001de	6a 08		 push	 8
  001e0	5f		 pop	 edi
$LL125@OnSkillSta:
  001e1	8b c7		 mov	 eax, edi
  001e3	25 03 00 00 80	 and	 eax, -2147483645	; 80000003H
  001e8	79 05		 jns	 SHORT $LN148@OnSkillSta
  001ea	48		 dec	 eax
  001eb	83 c8 fc	 or	 eax, -4			; fffffffcH
  001ee	40		 inc	 eax
$LN148@OnSkillSta:
  001ef	b1 ed		 mov	 cl, -19			; ffffffedH
  001f1	2a c8		 sub	 cl, al
  001f3	30 4c 3d e0	 xor	 BYTE PTR _szEncEventType$536840[ebp+edi], cl
  001f7	47		 inc	 edi
  001f8	83 ff 0a	 cmp	 edi, 10			; 0000000aH
  001fb	7c e4		 jl	 SHORT $LL125@OnSkillSta
  001fd	8d 45 e0	 lea	 eax, DWORD PTR _szEncEventType$536840[ebp]
  00200	50		 push	 eax
  00201	8d 4d c4	 lea	 ecx, DWORD PTR $T536827[ebp]
  00204	ff 15 00 00 00
	00		 call	 DWORD PTR __imp_??0ioHashString@@QAE@PBD@Z
  0020a	8b 4d d8	 mov	 ecx, DWORD PTR _pGrp$531988[ebp]
  0020d	8d 45 c4	 lea	 eax, DWORD PTR $T536827[ebp]
  00210	50		 push	 eax
  00211	ff 75 dc	 push	 DWORD PTR _iAniID$531991[ebp]
  00214	c6 45 fc 01	 mov	 BYTE PTR __$EHRec$[ebp+8], 1
  00218	ff 15 00 00 00
	00		 call	 DWORD PTR __imp_?GetAnimationEventTime@ioEntityGroup@@QAEMHABVioHashString@@@Z
  0021e	d9 5d dc	 fstp	 DWORD PTR $T536826[ebp]
  00221	8d 4d c4	 lea	 ecx, DWORD PTR $T536827[ebp]
  00224	c6 45 fc 00	 mov	 BYTE PTR __$EHRec$[ebp+8], 0
  00228	ff 15 00 00 00
	00		 call	 DWORD PTR __imp_??1ioHashString@@QAE@XZ
  0022e	d9 45 dc	 fld	 DWORD PTR $T536826[ebp]
  00231	e8 00 00 00 00	 call	 __ftol2
  00236	8b f8		 mov	 edi, eax
$LN6@OnSkillSta:

; 240  : 		}

  00238	83 4d fc ff	 or	 DWORD PTR __$EHRec$[ebp+8], -1
  0023c	8d 4d b4	 lea	 ecx, DWORD PTR _szPreDelay$531990[ebp]
  0023f	ff 15 00 00 00
	00		 call	 DWORD PTR __imp_??1ioHashString@@QAE@XZ
$LN7@OnSkillSta:

; 241  : 
; 242  : 		DWORD dwPreDelay = GetPreDelayTime();

  00245	8b 06		 mov	 eax, DWORD PTR [esi]
  00247	8b ce		 mov	 ecx, esi
  00249	ff 90 34 01 00
	00		 call	 DWORD PTR [eax+308]
  0024f	89 45 dc	 mov	 DWORD PTR _dwPreDelay$531998[ebp], eax

; 243  : 
; 244  : 		if( dwTrackingTime > 0 )
; 245  : 			dwTrackingTime += FRAMEGETTIME();

  00252	ff 15 00 00 00
	00		 call	 DWORD PTR __imp_?GetSingleton@ioFrameTimer@@SAAAV1@XZ
  00258	8b c8		 mov	 ecx, eax
  0025a	ff 15 00 00 00
	00		 call	 DWORD PTR __imp_?GetLoopSec@ioFrameTimer@@QBEKXZ
  00260	85 ff		 test	 edi, edi
  00262	74 04		 je	 SHORT $LN5@OnSkillSta
  00264	03 f8		 add	 edi, eax

; 246  : 		else

  00266	eb 05		 jmp	 SHORT $LN4@OnSkillSta
$LN5@OnSkillSta:

; 247  : 			dwTrackingTime = FRAMEGETTIME() + dwPreDelay;

  00268	8b f8		 mov	 edi, eax
  0026a	03 7d dc	 add	 edi, DWORD PTR _dwPreDelay$531998[ebp]
$LN4@OnSkillSta:

; 248  : 
; 249  : 		if( IsUseAutoTargetValue() )

  0026d	8b 06		 mov	 eax, DWORD PTR [esi]
  0026f	8b ce		 mov	 ecx, esi
  00271	ff 90 e0 00 00
	00		 call	 DWORD PTR [eax+224]
  00277	84 c0		 test	 al, al
  00279	74 11		 je	 SHORT $LN3@OnSkillSta

; 250  : 		{
; 251  : 			pChar->SetAutoTarget( ATT_SKILL );

  0027b	6a 04		 push	 4
  0027d	8b cb		 mov	 ecx, ebx
  0027f	e8 00 00 00 00	 call	 ?SetAutoTarget@ioBaseChar@@QAEXW4AutoTargetType@@@Z ; ioBaseChar::SetAutoTarget

; 252  : 			pChar->SetAutoTargetTrackingEndTime( dwTrackingTime );

  00284	57		 push	 edi
  00285	8b cb		 mov	 ecx, ebx
  00287	e8 00 00 00 00	 call	 ?SetAutoTargetTrackingEndTime@ioBaseChar@@QAEXK@Z ; ioBaseChar::SetAutoTargetTrackingEndTime
$LN3@OnSkillSta:

; 253  : 		}
; 254  : 	}
; 255  : 
; 256  : 	CheckSkillDesc( pChar );

  0028c	53		 push	 ebx
  0028d	8b ce		 mov	 ecx, esi
  0028f	e8 00 00 00 00	 call	 ?CheckSkillDesc@ioSkill@@IAEXPAVioBaseChar@@@Z ; ioSkill::CheckSkillDesc

; 257  : 
; 258  : 	if( m_bInitJumpPower )

  00294	8d 45 d7	 lea	 eax, DWORD PTR _value$536940[ebp]
  00297	50		 push	 eax
  00298	8d 8e f4 05 00
	00		 lea	 ecx, DWORD PTR [esi+1524]
  0029e	e8 00 00 00 00	 call	 ?DecryptValueToPool@?$CEncrypt@_N@@QAEXPA_N@Z ; CEncrypt<bool>::DecryptValueToPool
  002a3	80 7d d7 00	 cmp	 BYTE PTR _value$536940[ebp], 0
  002a7	74 1f		 je	 SHORT $LN137@OnSkillSta

; 259  : 	{
; 260  : 		pChar->SetCurJumpPowerAmt( 0.0f );

  002a9	0f 57 c0	 xorps	 xmm0, xmm0

; 261  : 		pChar->SetGravityAmt( 0.0f );

  002ac	8d 45 dc	 lea	 eax, DWORD PTR _value$536953[ebp]
  002af	50		 push	 eax
  002b0	8d 8b e8 0b 00
	00		 lea	 ecx, DWORD PTR [ebx+3048]
  002b6	f3 0f 11 83 90
	0e 00 00	 movss	 DWORD PTR [ebx+3728], xmm0
  002be	f3 0f 11 45 dc	 movss	 DWORD PTR _value$536953[ebp], xmm0
  002c3	e8 00 00 00 00	 call	 ?EncryptValueToPool@?$CEncrypt@M@@AAEXPBD@Z ; CEncrypt<float>::EncryptValueToPool
$LN137@OnSkillSta:

; 262  : 	}
; 263  : 
; 264  : 	//   
; 265  : 	if( !m_bSetHandMesh && m_bUseItemMesh && !m_HandMesh.IsEmpty() )

  002c8	80 be 0a 0f 00
	00 00		 cmp	 BYTE PTR [esi+3850], 0
  002cf	75 33		 jne	 SHORT $LN1@OnSkillSta
  002d1	80 be 08 0f 00
	00 00		 cmp	 BYTE PTR [esi+3848], 0
  002d8	74 2a		 je	 SHORT $LN1@OnSkillSta
  002da	8d be f8 0e 00
	00		 lea	 edi, DWORD PTR [esi+3832]
  002e0	8b cf		 mov	 ecx, edi
  002e2	ff 15 00 00 00
	00		 call	 DWORD PTR __imp_?IsEmpty@ioHashString@@QBE_NXZ
  002e8	84 c0		 test	 al, al
  002ea	75 18		 jne	 SHORT $LN1@OnSkillSta

; 266  : 	{
; 267  : 		pChar->ChangeSkillWeaponMesh( this, m_HandMesh, m_bVisibleEquipMesh );

  002ec	0f b6 86 09 0f
	00 00		 movzx	 eax, BYTE PTR [esi+3849]
  002f3	50		 push	 eax
  002f4	57		 push	 edi
  002f5	56		 push	 esi
  002f6	8b cb		 mov	 ecx, ebx
  002f8	e8 00 00 00 00	 call	 ?ChangeSkillWeaponMesh@ioBaseChar@@QAE_NPAVioSkill@@ABVioHashString@@_N@Z ; ioBaseChar::ChangeSkillWeaponMesh

; 268  : 		m_bSetHandMesh = true;

  002fd	c6 86 0a 0f 00
	00 01		 mov	 BYTE PTR [esi+3850], 1
$LN1@OnSkillSta:

; 269  : 	}
; 270  : 
; 271  : 	pChar->ReduceNeedGaugeBySkill( this, GetNeedGauge(pChar->GetCharName()) );

  00304	8d 83 d4 02 00
	00		 lea	 eax, DWORD PTR [ebx+724]
  0030a	50		 push	 eax
  0030b	8b ce		 mov	 ecx, esi
  0030d	e8 00 00 00 00	 call	 ?GetNeedGauge@ioSkill@@QAEMABVioHashString@@@Z ; ioSkill::GetNeedGauge
  00312	51		 push	 ecx
  00313	d9 1c 24	 fstp	 DWORD PTR [esp]
  00316	56		 push	 esi
  00317	8b cb		 mov	 ecx, ebx
  00319	e8 00 00 00 00	 call	 ?ReduceNeedGaugeBySkill@ioBaseChar@@QAEMPAVioSkill@@M@Z ; ioBaseChar::ReduceNeedGaugeBySkill
  0031e	dd d8		 fstp	 ST(0)

; 272  : 	m_bReduceGauge = true;
; 273  : 
; 274  : 	SetSkillNameChatBubble( pChar );

  00320	53		 push	 ebx
  00321	8b ce		 mov	 ecx, esi
  00323	c6 86 50 03 00
	00 01		 mov	 BYTE PTR [esi+848], 1
  0032a	e8 00 00 00 00	 call	 ?SetSkillNameChatBubble@ioSkill@@IAEXPAVioBaseChar@@@Z ; ioSkill::SetSkillNameChatBubble

; 275  : 
; 276  : 	return true;

  0032f	b0 01		 mov	 al, 1
$LN15@OnSkillSta:

; 277  : }

  00331	e8 00 00 00 00	 call	 __EH_epilog3_GS
  00336	c2 04 00	 ret	 4
_TEXT	ENDS
;	COMDAT text$x
text$x	SEGMENT
__unwindfunclet$?OnSkillStart@ioConsecution2Skill@@UAE_NPAVioBaseChar@@@Z$0:
  00000	8d 4d b4	 lea	 ecx, DWORD PTR _szPreDelay$531990[ebp]
  00003	ff 25 00 00 00
	00		 jmp	 DWORD PTR __imp_??1ioHashString@@QAE@XZ
__unwindfunclet$?OnSkillStart@ioConsecution2Skill@@UAE_NPAVioBaseChar@@@Z$1:
  00009	8d 4d c4	 lea	 ecx, DWORD PTR $T536827[ebp]
  0000c	ff 25 00 00 00
	00		 jmp	 DWORD PTR __imp_??1ioHashString@@QAE@XZ
__ehhandler$?OnSkillStart@ioConsecution2Skill@@UAE_NPAVioBaseChar@@@Z:
  00012	8b 54 24 08	 mov	 edx, DWORD PTR [esp+8]
  00016	8d 42 0c	 lea	 eax, DWORD PTR [edx+12]
  00019	8b 4a b0	 mov	 ecx, DWORD PTR [edx-80]
  0001c	33 c8		 xor	 ecx, eax
  0001e	e8 00 00 00 00	 call	 @__security_check_cookie@4
  00023	8b 4a fc	 mov	 ecx, DWORD PTR [edx-4]
  00026	33 c8		 xor	 ecx, eax
  00028	e8 00 00 00 00	 call	 @__security_check_cookie@4
  0002d	b8 00 00 00 00	 mov	 eax, OFFSET __ehfuncinfo$?OnSkillStart@ioConsecution2Skill@@UAE_NPAVioBaseChar@@@Z
  00032	e9 00 00 00 00	 jmp	 ___CxxFrameHandler3
text$x	ENDS
?OnSkillStart@ioConsecution2Skill@@UAE_NPAVioBaseChar@@@Z ENDP ; ioConsecution2Skill::OnSkillStart
PUBLIC	__$ArrayPad$
PUBLIC	?OnSkillEnd@ioConsecution2Skill@@UAEXPAVioBaseChar@@@Z ; ioConsecution2Skill::OnSkillEnd
EXTRN	?EndEffectForce@ioMapEffect@@QAEXXZ:PROC	; ioMapEffect::EndEffectForce
EXTRN	?FindMapEffect@ioPlayStage@@QAEPAVioMapEffect@@K@Z:PROC ; ioPlayStage::FindMapEffect
EXTRN	?RestoreSkillProtection@ioBaseChar@@QAEXXZ:PROC	; ioBaseChar::RestoreSkillProtection
EXTRN	?SetMoveDirByRotate@ioBaseChar@@QAEXABUD3DXQUATERNION@@@Z:PROC ; ioBaseChar::SetMoveDirByRotate
EXTRN	?SetSkillMoveEnable@ioBaseChar@@QAEX_N0@Z:PROC	; ioBaseChar::SetSkillMoveEnable
EXTRN	?EndEffect@ioBaseChar@@QAEXABVioHashString@@_N1@Z:PROC ; ioBaseChar::EndEffect
EXTRN	?EndCameraBuff@ioSkill@@IAEXPAVioBaseChar@@@Z:PROC ; ioSkill::EndCameraBuff
EXTRN	?RestoreSkillWeaponMesh@ioBaseChar@@QAE_NPAVioSkill@@ABVioHashString@@_N2@Z:PROC ; ioBaseChar::RestoreSkillWeaponMesh
; Function compile flags: /Ogsp
;	COMDAT ?OnSkillEnd@ioConsecution2Skill@@UAEXPAVioBaseChar@@@Z
_TEXT	SEGMENT
tv431 = -32						; size = 4
_value$536988 = -32					; size = 4
_vDir$532039 = -28					; size = 12
$T532041 = -16						; size = 12
__$ArrayPad$ = -4					; size = 4
_pChar$ = 8						; size = 4
?OnSkillEnd@ioConsecution2Skill@@UAEXPAVioBaseChar@@@Z PROC ; ioConsecution2Skill::OnSkillEnd, COMDAT
; _this$ = ecx

; 337  : {

  00000	55		 push	 ebp
  00001	8b ec		 mov	 ebp, esp
  00003	83 ec 20	 sub	 esp, 32			; 00000020H
  00006	a1 00 00 00 00	 mov	 eax, DWORD PTR ___security_cookie
  0000b	33 c5		 xor	 eax, ebp
  0000d	89 45 fc	 mov	 DWORD PTR __$ArrayPad$[ebp], eax
  00010	53		 push	 ebx
  00011	56		 push	 esi
  00012	8b f1		 mov	 esi, ecx

; 338  : 	//  
; 339  : 	if( m_bUseItemMesh )

  00014	33 db		 xor	 ebx, ebx
  00016	57		 push	 edi
  00017	8b 7d 08	 mov	 edi, DWORD PTR _pChar$[ebp]
  0001a	38 9e 08 0f 00
	00		 cmp	 BYTE PTR [esi+3848], bl
  00020	74 0a		 je	 SHORT $LN5@OnSkillEnd

; 340  : 		pChar->ShowWeaponItemMesh( true );

  00022	53		 push	 ebx
  00023	6a 01		 push	 1
  00025	8b cf		 mov	 ecx, edi
  00027	e8 00 00 00 00	 call	 ?ShowWeaponItemMesh@ioBaseChar@@QAEX_N0@Z ; ioBaseChar::ShowWeaponItemMesh
$LN5@OnSkillEnd:

; 341  : 
; 342  : 	if( !m_HandMesh.IsEmpty() )

  0002c	8d 8e f8 0e 00
	00		 lea	 ecx, DWORD PTR [esi+3832]
  00032	ff 15 00 00 00
	00		 call	 DWORD PTR __imp_?IsEmpty@ioHashString@@QBE_NXZ
  00038	84 c0		 test	 al, al
  0003a	75 18		 jne	 SHORT $LN4@OnSkillEnd

; 343  : 		pChar->RestoreSkillWeaponMesh( this, m_HandMesh, m_bVisibleEquipMesh );

  0003c	0f b6 86 09 0f
	00 00		 movzx	 eax, BYTE PTR [esi+3849]
  00043	53		 push	 ebx
  00044	50		 push	 eax
  00045	8d 86 f8 0e 00
	00		 lea	 eax, DWORD PTR [esi+3832]
  0004b	50		 push	 eax
  0004c	56		 push	 esi
  0004d	8b cf		 mov	 ecx, edi
  0004f	e8 00 00 00 00	 call	 ?RestoreSkillWeaponMesh@ioBaseChar@@QAE_NPAVioSkill@@ABVioHashString@@_N2@Z ; ioBaseChar::RestoreSkillWeaponMesh
$LN4@OnSkillEnd:

; 344  : 
; 345  : 	EndCameraBuff( pChar );

  00054	57		 push	 edi
  00055	8b ce		 mov	 ecx, esi
  00057	e8 00 00 00 00	 call	 ?EndCameraBuff@ioSkill@@IAEXPAVioBaseChar@@@Z ; ioSkill::EndCameraBuff

; 346  : 
; 347  : 	m_bSetHandMesh = false;
; 348  : 
; 349  : 	EndPreDelayEffect( pChar );

  0005c	8b 06		 mov	 eax, DWORD PTR [esi]
  0005e	57		 push	 edi
  0005f	8b ce		 mov	 ecx, esi
  00061	88 9e 0a 0f 00
	00		 mov	 BYTE PTR [esi+3850], bl
  00067	ff 90 dc 00 00
	00		 call	 DWORD PTR [eax+220]

; 350  : 	pChar->EndEffect( m_SkillEffectName );

  0006d	6a 01		 push	 1
  0006f	6a 01		 push	 1
  00071	8d 86 b8 01 00
	00		 lea	 eax, DWORD PTR [esi+440]
  00077	50		 push	 eax
  00078	8b cf		 mov	 ecx, edi
  0007a	e8 00 00 00 00	 call	 ?EndEffect@ioBaseChar@@QAEXABVioHashString@@_N1@Z ; ioBaseChar::EndEffect

; 351  : 
; 352  : 	m_bReduceGauge = false;
; 353  : 	pChar->SetSkillMoveEnable( false, false );

  0007f	53		 push	 ebx
  00080	53		 push	 ebx
  00081	8b cf		 mov	 ecx, edi
  00083	88 9e 50 03 00
	00		 mov	 BYTE PTR [esi+848], bl
  00089	e8 00 00 00 00	 call	 ?SetSkillMoveEnable@ioBaseChar@@QAEX_N0@Z ; ioBaseChar::SetSkillMoveEnable

; 354  : 	pChar->SetMoveDirByRotate( pChar->GetTargetRot() );

  0008e	8d 87 a4 06 00
	00		 lea	 eax, DWORD PTR [edi+1700]
  00094	50		 push	 eax
  00095	8b cf		 mov	 ecx, edi
  00097	e8 00 00 00 00	 call	 ?SetMoveDirByRotate@ioBaseChar@@QAEXABUD3DXQUATERNION@@@Z ; ioBaseChar::SetMoveDirByRotate

; 355  : 	pChar->RestoreSkillProtection();

  0009c	8b cf		 mov	 ecx, edi
  0009e	e8 00 00 00 00	 call	 ?RestoreSkillProtection@ioBaseChar@@QAEXXZ ; ioBaseChar::RestoreSkillProtection

; 356  : 
; 357  : 	m_SkillUseType = SUT_NORMAL;
; 358  : 
; 359  : 	if( !m_SkillEndEffectName.IsEmpty() )

  000a3	8d 8e e8 01 00
	00		 lea	 ecx, DWORD PTR [esi+488]
  000a9	89 5e 74	 mov	 DWORD PTR [esi+116], ebx
  000ac	ff 15 00 00 00
	00		 call	 DWORD PTR __imp_?IsEmpty@ioHashString@@QBE_NXZ
  000b2	84 c0		 test	 al, al
  000b4	75 11		 jne	 SHORT $LN3@OnSkillEnd

; 360  : 		pChar->AttachEffect( m_SkillEndEffectName );

  000b6	6a 01		 push	 1
  000b8	53		 push	 ebx
  000b9	8d 86 e8 01 00
	00		 lea	 eax, DWORD PTR [esi+488]
  000bf	50		 push	 eax
  000c0	8b cf		 mov	 ecx, edi
  000c2	e8 00 00 00 00	 call	 ?AttachEffect@ioBaseChar@@QAEPAVioEffect@@ABVioHashString@@PAVioEntityEvent@@_N@Z ; ioBaseChar::AttachEffect
$LN3@OnSkillEnd:

; 361  : 
; 362  : 	if( m_dwTargetMarkerID != -1 )

  000c7	83 be 2c 11 00
	00 ff		 cmp	 DWORD PTR [esi+4396], -1
  000ce	74 79		 je	 SHORT $LN1@OnSkillEnd

; 363  : 	{
; 364  : 		D3DXVECTOR3 vPos = pChar->GetWorldPosition();

  000d0	8b 07		 mov	 eax, DWORD PTR [edi]
  000d2	8b cf		 mov	 ecx, edi
  000d4	ff 50 70	 call	 DWORD PTR [eax+112]

; 365  : 		D3DXVECTOR3 vDir = pChar->GetWorldOrientation() * D3DXVECTOR3( 0.0f, 0.0f, -FLOAT1 );

  000d7	b8 01 00 00 00	 mov	 eax, 1
  000dc	0f 57 c0	 xorps	 xmm0, xmm0
  000df	89 45 e0	 mov	 DWORD PTR tv431[ebp], eax
  000e2	db 45 e0	 fild	 DWORD PTR tv431[ebp]
  000e5	f3 0f 11 45 f0	 movss	 DWORD PTR $T532041[ebp], xmm0
  000ea	f3 0f 11 45 f4	 movss	 DWORD PTR $T532041[ebp+4], xmm0
  000ef	85 c0		 test	 eax, eax
  000f1	79 06		 jns	 SHORT $LN24@OnSkillEnd
  000f3	d8 05 00 00 00
	00		 fadd	 DWORD PTR __real@4f800000
$LN24@OnSkillEnd:
  000f9	8d 45 f0	 lea	 eax, DWORD PTR $T532041[ebp]
  000fc	d9 e0		 fchs
  000fe	50		 push	 eax
  000ff	d9 5d f8	 fstp	 DWORD PTR $T532041[ebp+8]
  00102	8b 07		 mov	 eax, DWORD PTR [edi]
  00104	8b cf		 mov	 ecx, edi
  00106	ff 50 74	 call	 DWORD PTR [eax+116]
  00109	50		 push	 eax
  0010a	8d 45 e4	 lea	 eax, DWORD PTR _vDir$532039[ebp]
  0010d	50		 push	 eax
  0010e	ff 15 00 00 00
	00		 call	 DWORD PTR __imp_??D@YA?AUD3DXVECTOR3@@ABUD3DXQUATERNION@@ABU0@@Z
  00114	83 c4 0c	 add	 esp, 12			; 0000000cH

; 366  : 		vPos += ( vDir * m_fMarkerOffset );

  00117	8d 45 e0	 lea	 eax, DWORD PTR _value$536988[ebp]
  0011a	50		 push	 eax
  0011b	8d 8e fc 10 00
	00		 lea	 ecx, DWORD PTR [esi+4348]
  00121	e8 00 00 00 00	 call	 ?DecryptValueToPool@?$CEncrypt@M@@QAEXPAM@Z ; CEncrypt<float>::DecryptValueToPool

; 367  : 		ioPlayStage *pStage = pChar->GetCreator();

  00126	8b 8f 44 03 00
	00		 mov	 ecx, DWORD PTR [edi+836]

; 368  : 		if( pStage )

  0012c	3b cb		 cmp	 ecx, ebx
  0012e	74 19		 je	 SHORT $LN1@OnSkillEnd

; 369  : 		{
; 370  : 			ioMapEffect *pMapEffect = pStage->FindMapEffect( m_dwTargetMarkerID );

  00130	ff b6 2c 11 00
	00		 push	 DWORD PTR [esi+4396]
  00136	e8 00 00 00 00	 call	 ?FindMapEffect@ioPlayStage@@QAEPAVioMapEffect@@K@Z ; ioPlayStage::FindMapEffect

; 371  : 			pMapEffect->EndEffectForce();

  0013b	8b c8		 mov	 ecx, eax
  0013d	e8 00 00 00 00	 call	 ?EndEffectForce@ioMapEffect@@QAEXXZ ; ioMapEffect::EndEffectForce

; 372  : 			m_dwTargetMarkerID = -1;

  00142	83 8e 2c 11 00
	00 ff		 or	 DWORD PTR [esi+4396], -1
$LN1@OnSkillEnd:

; 373  : 		}
; 374  : 	}
; 375  : 
; 376  : 	ClearData();

  00149	8b ce		 mov	 ecx, esi
  0014b	e8 00 00 00 00	 call	 ?ClearData@ioConsecution2Skill@@IAEXXZ ; ioConsecution2Skill::ClearData

; 377  : }

  00150	8b 4d fc	 mov	 ecx, DWORD PTR __$ArrayPad$[ebp]
  00153	5f		 pop	 edi
  00154	5e		 pop	 esi
  00155	33 cd		 xor	 ecx, ebp
  00157	5b		 pop	 ebx
  00158	e8 00 00 00 00	 call	 @__security_check_cookie@4
  0015d	c9		 leave
  0015e	c2 04 00	 ret	 4
?OnSkillEnd@ioConsecution2Skill@@UAEXPAVioBaseChar@@@Z ENDP ; ioConsecution2Skill::OnSkillEnd
_TEXT	ENDS
PUBLIC	?IsProtected@ioConsecution2Skill@@UBE_NH@Z	; ioConsecution2Skill::IsProtected
; Function compile flags: /Ogsp
;	COMDAT ?IsProtected@ioConsecution2Skill@@UBE_NH@Z
_TEXT	SEGMENT
_value$537015 = -1					; size = 1
_value$537025 = 8					; size = 4
_value$537020 = 8					; size = 4
_iDefenseBreakType$ = 8					; size = 4
?IsProtected@ioConsecution2Skill@@UBE_NH@Z PROC		; ioConsecution2Skill::IsProtected, COMDAT
; _this$ = ecx

; 380  : {

  00000	55		 push	 ebp
  00001	8b ec		 mov	 ebp, esp
  00003	51		 push	 ecx
  00004	56		 push	 esi
  00005	8b f1		 mov	 esi, ecx

; 381  : 	if( m_bDisableSkillProtect )

  00007	8d 45 ff	 lea	 eax, DWORD PTR _value$537015[ebp]
  0000a	50		 push	 eax
  0000b	8d 8e a8 00 00
	00		 lea	 ecx, DWORD PTR [esi+168]
  00011	e8 00 00 00 00	 call	 ?DecryptValueToPool@?$CEncrypt@_N@@QAEXPA_N@Z ; CEncrypt<bool>::DecryptValueToPool
  00016	80 7d ff 00	 cmp	 BYTE PTR _value$537015[ebp], 0
  0001a	74 07		 je	 SHORT $LN8@IsProtecte
$LN19@IsProtecte:

; 382  : 		return false;

  0001c	32 c0		 xor	 al, al
  0001e	e9 94 00 00 00	 jmp	 $LN9@IsProtecte
$LN8@IsProtecte:

; 383  : 
; 384  : 	if( DBT_NONE != (DefenseBreakType)m_ProtectCancelType )

  00023	8b 86 a4 00 00
	00		 mov	 eax, DWORD PTR [esi+164]
  00029	85 c0		 test	 eax, eax
  0002b	74 05		 je	 SHORT $LN6@IsProtecte

; 385  : 	{
; 386  : 		if( iDefenseBreakType == m_ProtectCancelType )   //   

  0002d	39 45 08	 cmp	 DWORD PTR _iDefenseBreakType$[ebp], eax

; 387  : 			return false;

  00030	74 ea		 je	 SHORT $LN19@IsProtecte
$LN6@IsProtecte:

; 388  : 	}
; 389  : 
; 390  : 	if( IsPreDelayProtect() )

  00032	8b 06		 mov	 eax, DWORD PTR [esi]
  00034	8b ce		 mov	 ecx, esi
  00036	ff 90 2c 01 00
	00		 call	 DWORD PTR [eax+300]
  0003c	84 c0		 test	 al, al
  0003e	74 0d		 je	 SHORT $LN4@IsProtecte

; 391  : 	{
; 392  : 		if( m_dwPreDelayStartTime != 0 )

  00040	83 be 20 02 00
	00 00		 cmp	 DWORD PTR [esi+544], 0
  00047	74 04		 je	 SHORT $LN4@IsProtecte

; 393  : 			return true;

  00049	b0 01		 mov	 al, 1
  0004b	eb 6a		 jmp	 SHORT $LN9@IsProtecte
$LN4@IsProtecte:

; 394  : 	}
; 395  : 
; 396  : 	if( m_dwPreDelayStartTime == 0 )

  0004d	83 be 20 02 00
	00 00		 cmp	 DWORD PTR [esi+544], 0
  00054	57		 push	 edi
  00055	8b 3d 00 00 00
	00		 mov	 edi, DWORD PTR __imp_?GetSingleton@ioFrameTimer@@SAAAV1@XZ
  0005b	75 16		 jne	 SHORT $LN2@IsProtecte

; 397  : 	{
; 398  : 		if( m_dwFireMotionEndTime > FRAMEGETTIME() )

  0005d	ff d7		 call	 edi
  0005f	8b c8		 mov	 ecx, eax
  00061	ff 15 00 00 00
	00		 call	 DWORD PTR __imp_?GetLoopSec@ioFrameTimer@@QBEKXZ
  00067	39 86 24 02 00
	00		 cmp	 DWORD PTR [esi+548], eax
  0006d	76 04		 jbe	 SHORT $LN2@IsProtecte

; 399  : 			return true;

  0006f	b0 01		 mov	 al, 1
  00071	eb 43		 jmp	 SHORT $LN17@IsProtecte
$LN2@IsProtecte:
  00073	53		 push	 ebx

; 400  : 	}
; 401  : 
; 402  : 	if( m_dwSkillLoopDuration > 0 && m_dwLoopStartTime + m_dwSkillLoopDuration > FRAMEGETTIME() )

  00074	8d 45 08	 lea	 eax, DWORD PTR _value$537020[ebp]
  00077	50		 push	 eax
  00078	8d 8e 90 11 00
	00		 lea	 ecx, DWORD PTR [esi+4496]
  0007e	e8 00 00 00 00	 call	 ?DecryptValueToPool@?$CEncrypt@K@@QAEXPAK@Z ; CEncrypt<unsigned long>::DecryptValueToPool
  00083	83 7d 08 00	 cmp	 DWORD PTR _value$537020[ebp], 0
  00087	76 2a		 jbe	 SHORT $LN1@IsProtecte
  00089	8d 45 08	 lea	 eax, DWORD PTR _value$537025[ebp]
  0008c	50		 push	 eax
  0008d	8d 8e 90 11 00
	00		 lea	 ecx, DWORD PTR [esi+4496]
  00093	e8 00 00 00 00	 call	 ?DecryptValueToPool@?$CEncrypt@K@@QAEXPAK@Z ; CEncrypt<unsigned long>::DecryptValueToPool
  00098	ff d7		 call	 edi
  0009a	8b c8		 mov	 ecx, eax
  0009c	ff 15 00 00 00
	00		 call	 DWORD PTR __imp_?GetLoopSec@ioFrameTimer@@QBEKXZ
  000a2	8b 8e e8 10 00
	00		 mov	 ecx, DWORD PTR [esi+4328]
  000a8	03 4d 08	 add	 ecx, DWORD PTR _value$537025[ebp]
  000ab	3b c8		 cmp	 ecx, eax
  000ad	76 04		 jbe	 SHORT $LN1@IsProtecte

; 403  : 	{
; 404  : 		return true;

  000af	b0 01		 mov	 al, 1
  000b1	eb 02		 jmp	 SHORT $LN18@IsProtecte
$LN1@IsProtecte:

; 405  : 	}
; 406  : 
; 407  : 	return false;

  000b3	32 c0		 xor	 al, al
$LN18@IsProtecte:
  000b5	5b		 pop	 ebx
$LN17@IsProtecte:
  000b6	5f		 pop	 edi
$LN9@IsProtecte:
  000b7	5e		 pop	 esi

; 408  : }

  000b8	c9		 leave
  000b9	c2 04 00	 ret	 4
?IsProtected@ioConsecution2Skill@@UBE_NH@Z ENDP		; ioConsecution2Skill::IsProtected
_TEXT	ENDS
PUBLIC	_pOwner$GSCopy$
PUBLIC	__$ArrayPad$
PUBLIC	?SetSkillLoopState@ioConsecution2Skill@@IAEXPAVioBaseChar@@@Z ; ioConsecution2Skill::SetSkillLoopState
EXTRN	?GetUniqueID@ioMapEffect@@QBEKXZ:PROC		; ioMapEffect::GetUniqueID
EXTRN	?CreateMapEffect@ioPlayStage@@QAEPAVioMapEffect@@ABVioHashString@@ABUD3DXVECTOR3@@1@Z:PROC ; ioPlayStage::CreateMapEffect
EXTRN	?GetMapHeight@ioPlayStage@@QAEMMMPBVioGameEntity@@_NM1@Z:PROC ; ioPlayStage::GetMapHeight
; Function compile flags: /Ogsp
;	COMDAT ?SetSkillLoopState@ioConsecution2Skill@@IAEXPAVioBaseChar@@@Z
_TEXT	SEGMENT
_iAniID$ = -68						; size = 4
_pOwner$GSCopy$ = -64					; size = 4
tv526 = -60						; size = 4
_value$537086 = -60					; size = 4
_value$537040 = -60					; size = 4
tv541 = -56						; size = 4
tv536 = -56						; size = 4
tv529 = -56						; size = 4
tv524 = -56						; size = 4
tv522 = -56						; size = 4
tv498 = -56						; size = 4
tv495 = -56						; size = 4
tv492 = -56						; size = 4
tv486 = -56						; size = 4
$T532096 = -52						; size = 12
_vScale$532089 = -40					; size = 12
_vDir$532094 = -28					; size = 12
_vPos$532088 = -16					; size = 12
__$ArrayPad$ = -4					; size = 4
_pOwner$ = 8						; size = 4
?SetSkillLoopState@ioConsecution2Skill@@IAEXPAVioBaseChar@@@Z PROC ; ioConsecution2Skill::SetSkillLoopState, COMDAT
; _this$ = ecx

; 430  : {

  00000	55		 push	 ebp
  00001	8b ec		 mov	 ebp, esp
  00003	83 ec 44	 sub	 esp, 68			; 00000044H
  00006	a1 00 00 00 00	 mov	 eax, DWORD PTR ___security_cookie
  0000b	33 c5		 xor	 eax, ebp
  0000d	89 45 fc	 mov	 DWORD PTR __$ArrayPad$[ebp], eax
  00010	53		 push	 ebx
  00011	56		 push	 esi
  00012	8b 75 08	 mov	 esi, DWORD PTR _pOwner$[ebp]
  00015	8b d9		 mov	 ebx, ecx

; 460  : 		}
; 461  : 	}
; 462  : 
; 463  : 	m_iWeaponFireCnt = 0;

  00017	89 75 c0	 mov	 DWORD PTR _pOwner$GSCopy$[ebp], esi
  0001a	85 f6		 test	 esi, esi
  0001c	0f 84 e1 02 00
	00		 je	 $LN5@SetSkillLo

; 431  : 	if( !pOwner )	return;
; 432  : 
; 433  : 	m_SkillState = SS_LOOP;

  00022	57		 push	 edi
  00023	c7 83 e4 10 00
	00 01 00 00 00	 mov	 DWORD PTR [ebx+4324], 1

; 434  : 
; 435  : 	DWORD dwCurTime = FRAMEGETTIME();

  0002d	ff 15 00 00 00
	00		 call	 DWORD PTR __imp_?GetSingleton@ioFrameTimer@@SAAAV1@XZ
  00033	8b c8		 mov	 ecx, eax
  00035	ff 15 00 00 00
	00		 call	 DWORD PTR __imp_?GetLoopSec@ioFrameTimer@@QBEKXZ

; 436  : 	ioEntityGroup *pGrp = pOwner->GetGroup();

  0003b	8b 7e 04	 mov	 edi, DWORD PTR [esi+4]

; 437  : 	int iAniID = iAniID = pGrp->GetAnimationIdx( m_szSkillLoopMotion );

  0003e	8d 83 50 11 00
	00		 lea	 eax, DWORD PTR [ebx+4432]
  00044	50		 push	 eax
  00045	8b cf		 mov	 ecx, edi
  00047	ff 15 00 00 00
	00		 call	 DWORD PTR __imp_?GetAnimationIdx@ioEntityGroup@@QAEHABVioHashString@@@Z
  0004d	89 45 bc	 mov	 DWORD PTR _iAniID$[ebp], eax

; 438  : 	
; 439  : 	float fRate = m_fSkillLoopMotionRate;

  00050	8d 45 c4	 lea	 eax, DWORD PTR _value$537040[ebp]
  00053	50		 push	 eax
  00054	8d 8b 60 11 00
	00		 lea	 ecx, DWORD PTR [ebx+4448]
  0005a	e8 00 00 00 00	 call	 ?DecryptValueToPool@?$CEncrypt@M@@QAEXPAM@Z ; CEncrypt<float>::DecryptValueToPool

; 440  : 
; 441  : 	pGrp->ClearAllActionAni( FLOAT100, true );

  0005f	b8 64 00 00 00	 mov	 eax, 100		; 00000064H
  00064	89 45 c8	 mov	 DWORD PTR tv541[ebp], eax
  00067	db 45 c8	 fild	 DWORD PTR tv541[ebp]
  0006a	6a 01		 push	 1
  0006c	85 c0		 test	 eax, eax
  0006e	79 06		 jns	 SHORT $LN44@SetSkillLo
  00070	d8 05 00 00 00
	00		 fadd	 DWORD PTR __real@4f800000
$LN44@SetSkillLo:
  00076	51		 push	 ecx
  00077	8b cf		 mov	 ecx, edi
  00079	d9 1c 24	 fstp	 DWORD PTR [esp]
  0007c	ff 15 00 00 00
	00		 call	 DWORD PTR __imp_?ClearAllActionAni@ioEntityGroup@@QAEXM_N@Z

; 442  : 	pGrp->ClearAllLoopAni( FLOAT100, true );

  00082	b8 64 00 00 00	 mov	 eax, 100		; 00000064H
  00087	89 45 c8	 mov	 DWORD PTR tv536[ebp], eax
  0008a	db 45 c8	 fild	 DWORD PTR tv536[ebp]
  0008d	6a 01		 push	 1
  0008f	85 c0		 test	 eax, eax
  00091	79 06		 jns	 SHORT $LN45@SetSkillLo
  00093	d8 05 00 00 00
	00		 fadd	 DWORD PTR __real@4f800000
$LN45@SetSkillLo:
  00099	51		 push	 ecx
  0009a	8b cf		 mov	 ecx, edi
  0009c	d9 1c 24	 fstp	 DWORD PTR [esp]
  0009f	ff 15 00 00 00
	00		 call	 DWORD PTR __imp_?ClearAllLoopAni@ioEntityGroup@@QAEXM_N@Z

; 443  : 	pGrp->SetLoopAni( iAniID, FLOAT100, FLOAT1, FLOAT1/fRate );

  000a5	b8 01 00 00 00	 mov	 eax, 1
  000aa	8b c8		 mov	 ecx, eax
  000ac	b8 01 00 00 00	 mov	 eax, 1
  000b1	8b d0		 mov	 edx, eax
  000b3	b8 64 00 00 00	 mov	 eax, 100		; 00000064H
  000b8	0f 57 c0	 xorps	 xmm0, xmm0
  000bb	83 ec 10	 sub	 esp, 16			; 00000010H
  000be	89 4d c8	 mov	 DWORD PTR tv529[ebp], ecx
  000c1	db 45 c8	 fild	 DWORD PTR tv529[ebp]
  000c4	f3 0f 11 44 24
	0c		 movss	 DWORD PTR [esp+12], xmm0
  000ca	85 c9		 test	 ecx, ecx
  000cc	79 06		 jns	 SHORT $LN46@SetSkillLo
  000ce	d8 05 00 00 00
	00		 fadd	 DWORD PTR __real@4f800000
$LN46@SetSkillLo:
  000d4	d8 75 c4	 fdiv	 DWORD PTR _value$537040[ebp]
  000d7	89 55 c8	 mov	 DWORD PTR tv524[ebp], edx
  000da	d9 5d c4	 fstp	 DWORD PTR tv526[ebp]
  000dd	d9 45 c4	 fld	 DWORD PTR tv526[ebp]
  000e0	d9 5c 24 08	 fstp	 DWORD PTR [esp+8]
  000e4	db 45 c8	 fild	 DWORD PTR tv524[ebp]
  000e7	85 d2		 test	 edx, edx
  000e9	79 06		 jns	 SHORT $LN47@SetSkillLo
  000eb	d8 05 00 00 00
	00		 fadd	 DWORD PTR __real@4f800000
$LN47@SetSkillLo:
  000f1	89 45 c8	 mov	 DWORD PTR tv522[ebp], eax
  000f4	d9 5c 24 04	 fstp	 DWORD PTR [esp+4]
  000f8	db 45 c8	 fild	 DWORD PTR tv522[ebp]
  000fb	85 c0		 test	 eax, eax
  000fd	79 06		 jns	 SHORT $LN48@SetSkillLo
  000ff	d8 05 00 00 00
	00		 fadd	 DWORD PTR __real@4f800000
$LN48@SetSkillLo:
  00105	d9 1c 24	 fstp	 DWORD PTR [esp]
  00108	ff 75 bc	 push	 DWORD PTR _iAniID$[ebp]
  0010b	8b cf		 mov	 ecx, edi
  0010d	ff 15 00 00 00
	00		 call	 DWORD PTR __imp_?SetLoopAni@ioEntityGroup@@QAE_NHMMMM@Z

; 444  : 
; 445  : 	if( !m_szTargetMarker.IsEmpty() && pOwner->IsNeedProcess() )

  00113	8d 8b ec 10 00
	00		 lea	 ecx, DWORD PTR [ebx+4332]
  00119	ff 15 00 00 00
	00		 call	 DWORD PTR __imp_?IsEmpty@ioHashString@@QBE_NXZ
  0011f	84 c0		 test	 al, al
  00121	0f 85 ae 01 00
	00		 jne	 $LN1@SetSkillLo
  00127	8b 06		 mov	 eax, DWORD PTR [esi]
  00129	8b ce		 mov	 ecx, esi
  0012b	ff 90 00 01 00
	00		 call	 DWORD PTR [eax+256]
  00131	84 c0		 test	 al, al
  00133	0f 84 9c 01 00
	00		 je	 $LN1@SetSkillLo

; 446  : 	{
; 447  : 		D3DXVECTOR3 vPos = pOwner->GetWorldPosition();

  00139	8b 06		 mov	 eax, DWORD PTR [esi]
  0013b	8b ce		 mov	 ecx, esi
  0013d	ff 50 70	 call	 DWORD PTR [eax+112]
  00140	8b f0		 mov	 esi, eax
  00142	8d 7d f0	 lea	 edi, DWORD PTR _vPos$532088[ebp]
  00145	a5		 movsd
  00146	a5		 movsd
  00147	a5		 movsd

; 448  : 		D3DXVECTOR3 vScale = D3DXVECTOR3( FLOAT1, FLOAT1, FLOAT1 );

  00148	b8 01 00 00 00	 mov	 eax, 1
  0014d	8b c8		 mov	 ecx, eax
  0014f	b8 01 00 00 00	 mov	 eax, 1
  00154	8b d0		 mov	 edx, eax
  00156	b8 01 00 00 00	 mov	 eax, 1
  0015b	89 45 c8	 mov	 DWORD PTR tv498[ebp], eax
  0015e	db 45 c8	 fild	 DWORD PTR tv498[ebp]
  00161	85 c0		 test	 eax, eax
  00163	79 06		 jns	 SHORT $LN49@SetSkillLo
  00165	d8 05 00 00 00
	00		 fadd	 DWORD PTR __real@4f800000
$LN49@SetSkillLo:
  0016b	89 55 c8	 mov	 DWORD PTR tv495[ebp], edx
  0016e	d9 5d d8	 fstp	 DWORD PTR _vScale$532089[ebp]
  00171	db 45 c8	 fild	 DWORD PTR tv495[ebp]
  00174	85 d2		 test	 edx, edx
  00176	79 06		 jns	 SHORT $LN50@SetSkillLo
  00178	d8 05 00 00 00
	00		 fadd	 DWORD PTR __real@4f800000
$LN50@SetSkillLo:
  0017e	89 4d c8	 mov	 DWORD PTR tv492[ebp], ecx
  00181	d9 5d dc	 fstp	 DWORD PTR _vScale$532089[ebp+4]
  00184	db 45 c8	 fild	 DWORD PTR tv492[ebp]
  00187	85 c9		 test	 ecx, ecx
  00189	79 06		 jns	 SHORT $LN51@SetSkillLo
  0018b	d8 05 00 00 00
	00		 fadd	 DWORD PTR __real@4f800000
$LN51@SetSkillLo:
  00191	d9 5d e0	 fstp	 DWORD PTR _vScale$532089[ebp+8]

; 449  : 
; 450  : 		D3DXVECTOR3 vDir = pOwner->GetWorldOrientation() * D3DXVECTOR3( 0.0f, 0.0f, -FLOAT1 );

  00194	b8 01 00 00 00	 mov	 eax, 1
  00199	0f 57 c0	 xorps	 xmm0, xmm0
  0019c	89 45 c8	 mov	 DWORD PTR tv486[ebp], eax
  0019f	db 45 c8	 fild	 DWORD PTR tv486[ebp]
  001a2	f3 0f 11 45 cc	 movss	 DWORD PTR $T532096[ebp], xmm0
  001a7	f3 0f 11 45 d0	 movss	 DWORD PTR $T532096[ebp+4], xmm0
  001ac	85 c0		 test	 eax, eax
  001ae	79 06		 jns	 SHORT $LN52@SetSkillLo
  001b0	d8 05 00 00 00
	00		 fadd	 DWORD PTR __real@4f800000
$LN52@SetSkillLo:
  001b6	8b 75 c0	 mov	 esi, DWORD PTR _pOwner$GSCopy$[ebp]
  001b9	d9 e0		 fchs
  001bb	8d 45 cc	 lea	 eax, DWORD PTR $T532096[ebp]
  001be	d9 5d d4	 fstp	 DWORD PTR $T532096[ebp+8]
  001c1	50		 push	 eax
  001c2	8b 06		 mov	 eax, DWORD PTR [esi]
  001c4	8b ce		 mov	 ecx, esi
  001c6	ff 50 74	 call	 DWORD PTR [eax+116]
  001c9	50		 push	 eax
  001ca	8d 45 e4	 lea	 eax, DWORD PTR _vDir$532094[ebp]
  001cd	50		 push	 eax
  001ce	ff 15 00 00 00
	00		 call	 DWORD PTR __imp_??D@YA?AUD3DXVECTOR3@@ABUD3DXQUATERNION@@ABU0@@Z
  001d4	83 c4 0c	 add	 esp, 12			; 0000000cH

; 451  : 		vPos += ( vDir * m_fMarkerOffset );

  001d7	8d 45 c4	 lea	 eax, DWORD PTR _value$537086[ebp]
  001da	50		 push	 eax
  001db	8d 8b fc 10 00
	00		 lea	 ecx, DWORD PTR [ebx+4348]
  001e1	e8 00 00 00 00	 call	 ?DecryptValueToPool@?$CEncrypt@M@@QAEXPAM@Z ; CEncrypt<float>::DecryptValueToPool
  001e6	f3 0f 10 4d c4	 movss	 xmm1, DWORD PTR _value$537086[ebp]
  001eb	f3 0f 10 45 e4	 movss	 xmm0, DWORD PTR _vDir$532094[ebp]
  001f0	f3 0f 10 55 c4	 movss	 xmm2, DWORD PTR _value$537086[ebp]
  001f5	f3 0f 10 5d c4	 movss	 xmm3, DWORD PTR _value$537086[ebp]
  001fa	0f 5a c9	 cvtps2pd xmm1, xmm1
  001fd	0f 5a c0	 cvtps2pd xmm0, xmm0
  00200	f2 0f 59 c1	 mulsd	 xmm0, xmm1
  00204	f3 0f 10 4d e8	 movss	 xmm1, DWORD PTR _vDir$532094[ebp+4]
  00209	0f 5a c9	 cvtps2pd xmm1, xmm1
  0020c	0f 5a d2	 cvtps2pd xmm2, xmm2
  0020f	f2 0f 59 ca	 mulsd	 xmm1, xmm2
  00213	f3 0f 10 55 ec	 movss	 xmm2, DWORD PTR _vDir$532094[ebp+8]

; 452  : 
; 453  : 		ioPlayStage *pStage = pOwner->GetCreator();

  00218	8b b6 44 03 00
	00		 mov	 esi, DWORD PTR [esi+836]
  0021e	0f 5a d2	 cvtps2pd xmm2, xmm2
  00221	0f 5a db	 cvtps2pd xmm3, xmm3
  00224	f2 0f 59 d3	 mulsd	 xmm2, xmm3
  00228	f3 0f 10 5d f0	 movss	 xmm3, DWORD PTR _vPos$532088[ebp]
  0022d	66 0f 5a c9	 cvtpd2ps xmm1, xmm1
  00231	66 0f 5a c0	 cvtpd2ps xmm0, xmm0
  00235	0f 5a db	 cvtps2pd xmm3, xmm3
  00238	f3 0f 5a c9	 cvtss2sd xmm1, xmm1
  0023c	f3 0f 5a c0	 cvtss2sd xmm0, xmm0
  00240	f2 0f 58 c3	 addsd	 xmm0, xmm3
  00244	f3 0f 10 5d f4	 movss	 xmm3, DWORD PTR _vPos$532088[ebp+4]
  00249	0f 5a db	 cvtps2pd xmm3, xmm3
  0024c	f2 0f 58 cb	 addsd	 xmm1, xmm3
  00250	66 0f 5a c9	 cvtpd2ps xmm1, xmm1
  00254	f3 0f 11 4d f4	 movss	 DWORD PTR _vPos$532088[ebp+4], xmm1
  00259	66 0f 5a d2	 cvtpd2ps xmm2, xmm2
  0025d	0f 57 c9	 xorps	 xmm1, xmm1
  00260	f3 0f 5a ca	 cvtss2sd xmm1, xmm2
  00264	f3 0f 10 55 f8	 movss	 xmm2, DWORD PTR _vPos$532088[ebp+8]

; 454  : 		vPos.y = pStage->GetMapHeight( vPos.x, vPos.z, NULL, false );

  00269	33 ff		 xor	 edi, edi
  0026b	57		 push	 edi
  0026c	51		 push	 ecx
  0026d	0f 5a d2	 cvtps2pd xmm2, xmm2
  00270	f2 0f 58 ca	 addsd	 xmm1, xmm2
  00274	0f 57 d2	 xorps	 xmm2, xmm2
  00277	f3 0f 11 14 24	 movss	 DWORD PTR [esp], xmm2
  0027c	57		 push	 edi
  0027d	57		 push	 edi
  0027e	51		 push	 ecx
  0027f	51		 push	 ecx
  00280	66 0f 5a c9	 cvtpd2ps xmm1, xmm1
  00284	66 0f 5a c0	 cvtpd2ps xmm0, xmm0
  00288	f3 0f 11 4c 24
	04		 movss	 DWORD PTR [esp+4], xmm1
  0028e	8b ce		 mov	 ecx, esi
  00290	f3 0f 11 45 f0	 movss	 DWORD PTR _vPos$532088[ebp], xmm0
  00295	f3 0f 11 4d f8	 movss	 DWORD PTR _vPos$532088[ebp+8], xmm1
  0029a	f3 0f 11 04 24	 movss	 DWORD PTR [esp], xmm0
  0029f	e8 00 00 00 00	 call	 ?GetMapHeight@ioPlayStage@@QAEMMMPBVioGameEntity@@_NM1@Z ; ioPlayStage::GetMapHeight
  002a4	d9 5d f4	 fstp	 DWORD PTR _vPos$532088[ebp+4]

; 455  : 		if( pStage )

  002a7	3b f7		 cmp	 esi, edi
  002a9	74 27		 je	 SHORT $LN43@SetSkillLo

; 456  : 		{
; 457  : 			ioMapEffect *pMapEffect = pStage->CreateMapEffect( m_szTargetMarker, vPos, vScale );

  002ab	8d 45 d8	 lea	 eax, DWORD PTR _vScale$532089[ebp]
  002ae	50		 push	 eax
  002af	8d 45 f0	 lea	 eax, DWORD PTR _vPos$532088[ebp]
  002b2	50		 push	 eax
  002b3	8d 83 ec 10 00
	00		 lea	 eax, DWORD PTR [ebx+4332]
  002b9	50		 push	 eax
  002ba	8b ce		 mov	 ecx, esi
  002bc	e8 00 00 00 00	 call	 ?CreateMapEffect@ioPlayStage@@QAEPAVioMapEffect@@ABVioHashString@@ABUD3DXVECTOR3@@1@Z ; ioPlayStage::CreateMapEffect

; 458  : 			if( pMapEffect )

  002c1	85 c0		 test	 eax, eax
  002c3	74 0d		 je	 SHORT $LN43@SetSkillLo

; 459  : 				m_dwTargetMarkerID = pMapEffect->GetUniqueID();

  002c5	8b c8		 mov	 ecx, eax
  002c7	e8 00 00 00 00	 call	 ?GetUniqueID@ioMapEffect@@QBEKXZ ; ioMapEffect::GetUniqueID
  002cc	89 83 2c 11 00
	00		 mov	 DWORD PTR [ebx+4396], eax
$LN43@SetSkillLo:
  002d2	8b 75 c0	 mov	 esi, DWORD PTR _pOwner$GSCopy$[ebp]
$LN1@SetSkillLo:

; 460  : 		}
; 461  : 	}
; 462  : 
; 463  : 	m_iWeaponFireCnt = 0;

  002d5	83 a3 3c 12 00
	00 00		 and	 DWORD PTR [ebx+4668], 0

; 464  : 	m_bMotionSetted = true;
; 465  : 	m_bLoopMotionSetted = true;
; 466  : 	m_bFirstMoveMotion = true;
; 467  : 
; 468  : 	pOwner->ChangeDirectionExplicitIfDirChanged( true );

  002dc	6a 01		 push	 1
  002de	8b ce		 mov	 ecx, esi
  002e0	66 c7 83 40 12
	00 00 01 01	 mov	 WORD PTR [ebx+4672], 257 ; 00000101H
  002e9	c6 83 42 12 00
	00 01		 mov	 BYTE PTR [ebx+4674], 1
  002f0	e8 00 00 00 00	 call	 ?ChangeDirectionExplicitIfDirChanged@ioBaseChar@@QAE_N_N@Z ; ioBaseChar::ChangeDirectionExplicitIfDirChanged

; 469  : 	m_StartDirKey = pOwner->GetCurDirKey();

  002f5	8b ce		 mov	 ecx, esi
  002f7	e8 00 00 00 00	 call	 ?GetCurDirKey@ioBaseChar@@QAE?AW4DirKeyInput@ioUserKeyInput@@XZ ; ioBaseChar::GetCurDirKey
  002fc	89 83 44 12 00
	00		 mov	 DWORD PTR [ebx+4676], eax
  00302	5f		 pop	 edi
$LN5@SetSkillLo:

; 470  : }

  00303	8b 4d fc	 mov	 ecx, DWORD PTR __$ArrayPad$[ebp]
  00306	5e		 pop	 esi
  00307	33 cd		 xor	 ecx, ebp
  00309	5b		 pop	 ebx
  0030a	e8 00 00 00 00	 call	 @__security_check_cookie@4
  0030f	c9		 leave
  00310	c2 04 00	 ret	 4
?SetSkillLoopState@ioConsecution2Skill@@IAEXPAVioBaseChar@@@Z ENDP ; ioConsecution2Skill::SetSkillLoopState
_TEXT	ENDS
PUBLIC	_this$GSCopy$
PUBLIC	__$ArrayPad$
PUBLIC	?ProcessAttack@ioConsecution2Skill@@IAEXPAVioBaseChar@@@Z ; ioConsecution2Skill::ProcessAttack
EXTRN	??1SP2Packet@@UAE@XZ:PROC			; SP2Packet::~SP2Packet
EXTRN	?SendToAllPlayingUser@P2PNetwork@@YAXAAVSP2Packet@@PAVioBaseChar@@@Z:PROC ; P2PNetwork::SendToAllPlayingUser
EXTRN	??6SP2Packet@@QAEAAV0@H@Z:PROC			; SP2Packet::operator<<
EXTRN	??6SP2Packet@@QAEAAV0@ABVioHashString@@@Z:PROC	; SP2Packet::operator<<
EXTRN	??0SP2Packet@@QAE@K@Z:PROC			; SP2Packet::SP2Packet
EXTRN	__chkstk:PROC
;	COMDAT xdata$x
; File d:\lost saga for developer\youtube\tutorial\source\src\lsclient\ioskill.h
xdata$x	SEGMENT
__unwindtable$?ProcessAttack@ioConsecution2Skill@@IAEXPAVioBaseChar@@@Z DD 0ffffffffH
	DD	FLAT:__unwindfunclet$?ProcessAttack@ioConsecution2Skill@@IAEXPAVioBaseChar@@@Z$0
__ehfuncinfo$?ProcessAttack@ioConsecution2Skill@@IAEXPAVioBaseChar@@@Z DD 019930522H
	DD	01H
	DD	FLAT:__unwindtable$?ProcessAttack@ioConsecution2Skill@@IAEXPAVioBaseChar@@@Z
	DD	2 DUP(00H)
	DD	2 DUP(00H)
	DD	00H
	DD	01H
; Function compile flags: /Ogsp
; File d:\lost saga for developer\youtube\tutorial\source\src\lsclient\ioconsecution2skill.cpp
xdata$x	ENDS
;	COMDAT ?ProcessAttack@ioConsecution2Skill@@IAEXPAVioBaseChar@@@Z
_TEXT	SEGMENT
_this$GSCopy$ = -32868					; size = 4
tv565 = -32864						; size = 4
tv562 = -32864						; size = 4
tv559 = -32864						; size = 4
tv553 = -32864						; size = 4
_dwCurTime$ = -32864					; size = 4
_value$537160 = -32860					; size = 4
_value$537131 = -32860					; size = 4
_kPacket$532134 = -32856				; size = 32792
$T532128 = -64						; size = 12
_vScale$532121 = -52					; size = 12
_vDir$532126 = -40					; size = 12
_vPos$532120 = -28					; size = 12
__$ArrayPad$ = -16					; size = 4
__$EHRec$ = -12						; size = 12
_pOwner$ = 8						; size = 4
?ProcessAttack@ioConsecution2Skill@@IAEXPAVioBaseChar@@@Z PROC ; ioConsecution2Skill::ProcessAttack, COMDAT
; _this$ = ecx

; 473  : {

  00000	55		 push	 ebp
  00001	8b ec		 mov	 ebp, esp
  00003	6a ff		 push	 -1
  00005	68 00 00 00 00	 push	 __ehhandler$?ProcessAttack@ioConsecution2Skill@@IAEXPAVioBaseChar@@@Z
  0000a	64 a1 00 00 00
	00		 mov	 eax, DWORD PTR fs:0
  00010	50		 push	 eax
  00011	b8 58 80 00 00	 mov	 eax, 32856		; 00008058H
  00016	e8 00 00 00 00	 call	 __chkstk
  0001b	a1 00 00 00 00	 mov	 eax, DWORD PTR ___security_cookie
  00020	33 c5		 xor	 eax, ebp
  00022	89 45 f0	 mov	 DWORD PTR __$ArrayPad$[ebp], eax
  00025	53		 push	 ebx
  00026	56		 push	 esi
  00027	57		 push	 edi
  00028	50		 push	 eax
  00029	8d 45 f4	 lea	 eax, DWORD PTR __$EHRec$[ebp]
  0002c	64 a3 00 00 00
	00		 mov	 DWORD PTR fs:0, eax
  00032	8b f1		 mov	 esi, ecx

; 474  : 	int iFireTimeCnt = m_vWeaponFireInfoList.size();

  00034	8b 86 30 12 00
	00		 mov	 eax, DWORD PTR [esi+4656]
  0003a	2b 86 2c 12 00
	00		 sub	 eax, DWORD PTR [esi+4652]
  00040	6a 30		 push	 48			; 00000030H
  00042	99		 cdq
  00043	59		 pop	 ecx
  00044	f7 f9		 idiv	 ecx
  00046	8b 5d 08	 mov	 ebx, DWORD PTR _pOwner$[ebp]

; 511  : 		{
; 512  : 			SP2Packet kPacket( CUPK_SKILL_EXTRA_INFO );

  00049	89 b5 9c 7f ff
	ff		 mov	 DWORD PTR _this$GSCopy$[ebp], esi
  0004f	8b f8		 mov	 edi, eax
  00051	85 ff		 test	 edi, edi
  00053	0f 8e d3 02 00
	00		 jle	 $LN7@ProcessAtt

; 475  : 	if( iFireTimeCnt <= 0 )
; 476  : 		return;
; 477  : 
; 478  : 	if( !pOwner || !pOwner->IsNeedProcess() ) return;

  00059	85 db		 test	 ebx, ebx
  0005b	0f 84 cb 02 00
	00		 je	 $LN7@ProcessAtt
  00061	8b 03		 mov	 eax, DWORD PTR [ebx]
  00063	8b cb		 mov	 ecx, ebx
  00065	ff 90 00 01 00
	00		 call	 DWORD PTR [eax+256]
  0006b	84 c0		 test	 al, al
  0006d	0f 84 b9 02 00
	00		 je	 $LN7@ProcessAtt

; 479  : 
; 480  : 	DWORD dwCurTime = FRAMEGETTIME();

  00073	ff 15 00 00 00
	00		 call	 DWORD PTR __imp_?GetSingleton@ioFrameTimer@@SAAAV1@XZ
  00079	8b c8		 mov	 ecx, eax
  0007b	ff 15 00 00 00
	00		 call	 DWORD PTR __imp_?GetLoopSec@ioFrameTimer@@QBEKXZ
  00081	89 85 a0 7f ff
	ff		 mov	 DWORD PTR _dwCurTime$[ebp], eax

; 481  : 	if( !COMPARE( m_iWeaponFireCnt, 0, iFireTimeCnt) )

  00087	8b 86 3c 12 00
	00		 mov	 eax, DWORD PTR [esi+4668]
  0008d	85 c0		 test	 eax, eax
  0008f	0f 88 97 02 00
	00		 js	 $LN7@ProcessAtt
  00095	3b c7		 cmp	 eax, edi
  00097	0f 8d 8f 02 00
	00		 jge	 $LN7@ProcessAtt

; 482  : 		return;
; 483  : 
; 484  : 	DWORD dwFireTime = m_vWeaponFireInfoList[m_iWeaponFireCnt].m_dwWeaponFireTime;

  0009d	8b 8e 2c 12 00
	00		 mov	 ecx, DWORD PTR [esi+4652]
  000a3	6b c0 30	 imul	 eax, 48			; 00000030H
  000a6	8b 3c 08	 mov	 edi, DWORD PTR [eax+ecx]

; 485  : 	if( dwFireTime == 0 )

  000a9	85 ff		 test	 edi, edi
  000ab	0f 84 7b 02 00
	00		 je	 $LN7@ProcessAtt

; 486  : 		return;
; 487  : 
; 488  : 	if( dwFireTime > 0 )
; 489  : 		dwFireTime += m_dwMotionStartTime;

  000b1	8d 85 a4 7f ff
	ff		 lea	 eax, DWORD PTR _value$537131[ebp]
  000b7	50		 push	 eax
  000b8	8d 8e a8 02 00
	00		 lea	 ecx, DWORD PTR [esi+680]
  000be	e8 00 00 00 00	 call	 ?DecryptValueToPool@?$CEncrypt@K@@QAEXPAK@Z ; CEncrypt<unsigned long>::DecryptValueToPool
  000c3	03 bd a4 7f ff
	ff		 add	 edi, DWORD PTR _value$537131[ebp]

; 490  : 
; 491  : 	if( dwCurTime > dwFireTime )

  000c9	39 bd a0 7f ff
	ff		 cmp	 DWORD PTR _dwCurTime$[ebp], edi
  000cf	0f 86 57 02 00
	00		 jbe	 $LN7@ProcessAtt

; 492  : 	{
; 493  : 		float fAngle = m_vWeaponFireInfoList[m_iWeaponFireCnt].m_fWeaponFireAngle;
; 494  : 		CreateWeapon( pOwner );

  000d5	53		 push	 ebx
  000d6	8b ce		 mov	 ecx, esi
  000d8	e8 00 00 00 00	 call	 ?CreateWeapon@ioConsecution2Skill@@QAEXPAVioBaseChar@@@Z ; ioConsecution2Skill::CreateWeapon

; 495  : 
; 496  : 		if( !m_szResultMarker.IsEmpty() && pOwner->IsNeedProcess() )

  000dd	8d 8e 30 11 00
	00		 lea	 ecx, DWORD PTR [esi+4400]
  000e3	ff 15 00 00 00
	00		 call	 DWORD PTR __imp_?IsEmpty@ioHashString@@QBE_NXZ
  000e9	84 c0		 test	 al, al
  000eb	0f 85 cc 01 00
	00		 jne	 $LN2@ProcessAtt
  000f1	8b 03		 mov	 eax, DWORD PTR [ebx]
  000f3	8b cb		 mov	 ecx, ebx
  000f5	ff 90 00 01 00
	00		 call	 DWORD PTR [eax+256]
  000fb	84 c0		 test	 al, al
  000fd	0f 84 ba 01 00
	00		 je	 $LN2@ProcessAtt

; 497  : 		{
; 498  : 			D3DXVECTOR3 vPos = pOwner->GetWorldPosition();

  00103	8b 03		 mov	 eax, DWORD PTR [ebx]
  00105	8b cb		 mov	 ecx, ebx
  00107	ff 50 70	 call	 DWORD PTR [eax+112]
  0010a	8b f0		 mov	 esi, eax
  0010c	8d 7d e4	 lea	 edi, DWORD PTR _vPos$532120[ebp]
  0010f	a5		 movsd
  00110	a5		 movsd
  00111	a5		 movsd

; 499  : 			D3DXVECTOR3 vScale = D3DXVECTOR3( FLOAT1, FLOAT1, FLOAT1 );

  00112	b8 01 00 00 00	 mov	 eax, 1
  00117	8b c8		 mov	 ecx, eax
  00119	b8 01 00 00 00	 mov	 eax, 1
  0011e	8b d0		 mov	 edx, eax
  00120	b8 01 00 00 00	 mov	 eax, 1
  00125	89 85 a0 7f ff
	ff		 mov	 DWORD PTR tv565[ebp], eax
  0012b	db 85 a0 7f ff
	ff		 fild	 DWORD PTR tv565[ebp]
  00131	85 c0		 test	 eax, eax
  00133	79 06		 jns	 SHORT $LN51@ProcessAtt
  00135	d8 05 00 00 00
	00		 fadd	 DWORD PTR __real@4f800000
$LN51@ProcessAtt:
  0013b	89 95 a0 7f ff
	ff		 mov	 DWORD PTR tv562[ebp], edx
  00141	d9 5d cc	 fstp	 DWORD PTR _vScale$532121[ebp]
  00144	db 85 a0 7f ff
	ff		 fild	 DWORD PTR tv562[ebp]
  0014a	85 d2		 test	 edx, edx
  0014c	79 06		 jns	 SHORT $LN52@ProcessAtt
  0014e	d8 05 00 00 00
	00		 fadd	 DWORD PTR __real@4f800000
$LN52@ProcessAtt:
  00154	89 8d a0 7f ff
	ff		 mov	 DWORD PTR tv559[ebp], ecx
  0015a	d9 5d d0	 fstp	 DWORD PTR _vScale$532121[ebp+4]
  0015d	db 85 a0 7f ff
	ff		 fild	 DWORD PTR tv559[ebp]
  00163	85 c9		 test	 ecx, ecx
  00165	79 06		 jns	 SHORT $LN53@ProcessAtt
  00167	d8 05 00 00 00
	00		 fadd	 DWORD PTR __real@4f800000
$LN53@ProcessAtt:
  0016d	d9 5d d4	 fstp	 DWORD PTR _vScale$532121[ebp+8]

; 500  : 
; 501  : 			D3DXVECTOR3 vDir = pOwner->GetWorldOrientation() * D3DXVECTOR3( 0.0f, 0.0f, -FLOAT1 );

  00170	b8 01 00 00 00	 mov	 eax, 1
  00175	0f 57 c0	 xorps	 xmm0, xmm0
  00178	89 85 a0 7f ff
	ff		 mov	 DWORD PTR tv553[ebp], eax
  0017e	db 85 a0 7f ff
	ff		 fild	 DWORD PTR tv553[ebp]
  00184	f3 0f 11 45 c0	 movss	 DWORD PTR $T532128[ebp], xmm0
  00189	f3 0f 11 45 c4	 movss	 DWORD PTR $T532128[ebp+4], xmm0
  0018e	85 c0		 test	 eax, eax
  00190	79 06		 jns	 SHORT $LN54@ProcessAtt
  00192	d8 05 00 00 00
	00		 fadd	 DWORD PTR __real@4f800000
$LN54@ProcessAtt:
  00198	8d 45 c0	 lea	 eax, DWORD PTR $T532128[ebp]
  0019b	d9 e0		 fchs
  0019d	50		 push	 eax
  0019e	d9 5d c8	 fstp	 DWORD PTR $T532128[ebp+8]
  001a1	8b 03		 mov	 eax, DWORD PTR [ebx]
  001a3	8b cb		 mov	 ecx, ebx
  001a5	ff 50 74	 call	 DWORD PTR [eax+116]
  001a8	50		 push	 eax
  001a9	8d 45 d8	 lea	 eax, DWORD PTR _vDir$532126[ebp]
  001ac	50		 push	 eax
  001ad	ff 15 00 00 00
	00		 call	 DWORD PTR __imp_??D@YA?AUD3DXVECTOR3@@ABUD3DXQUATERNION@@ABU0@@Z

; 502  : 			vPos += ( vDir * m_fMarkerOffset );

  001b3	8b 8d 9c 7f ff
	ff		 mov	 ecx, DWORD PTR _this$GSCopy$[ebp]
  001b9	83 c4 0c	 add	 esp, 12			; 0000000cH
  001bc	8d 85 a4 7f ff
	ff		 lea	 eax, DWORD PTR _value$537160[ebp]
  001c2	50		 push	 eax
  001c3	81 c1 fc 10 00
	00		 add	 ecx, 4348		; 000010fcH
  001c9	e8 00 00 00 00	 call	 ?DecryptValueToPool@?$CEncrypt@M@@QAEXPAM@Z ; CEncrypt<float>::DecryptValueToPool
  001ce	f3 0f 10 8d a4
	7f ff ff	 movss	 xmm1, DWORD PTR _value$537160[ebp]
  001d6	f3 0f 10 45 d8	 movss	 xmm0, DWORD PTR _vDir$532126[ebp]
  001db	f3 0f 10 95 a4
	7f ff ff	 movss	 xmm2, DWORD PTR _value$537160[ebp]
  001e3	f3 0f 10 9d a4
	7f ff ff	 movss	 xmm3, DWORD PTR _value$537160[ebp]
  001eb	0f 5a c9	 cvtps2pd xmm1, xmm1
  001ee	0f 5a c0	 cvtps2pd xmm0, xmm0
  001f1	f2 0f 59 c1	 mulsd	 xmm0, xmm1
  001f5	f3 0f 10 4d dc	 movss	 xmm1, DWORD PTR _vDir$532126[ebp+4]
  001fa	0f 5a c9	 cvtps2pd xmm1, xmm1
  001fd	0f 5a d2	 cvtps2pd xmm2, xmm2
  00200	f2 0f 59 ca	 mulsd	 xmm1, xmm2
  00204	f3 0f 10 55 e0	 movss	 xmm2, DWORD PTR _vDir$532126[ebp+8]

; 503  : 
; 504  : 			ioPlayStage *pStage = pOwner->GetCreator();

  00209	8b b3 44 03 00
	00		 mov	 esi, DWORD PTR [ebx+836]
  0020f	0f 5a d2	 cvtps2pd xmm2, xmm2
  00212	0f 5a db	 cvtps2pd xmm3, xmm3
  00215	f2 0f 59 d3	 mulsd	 xmm2, xmm3
  00219	f3 0f 10 5d e4	 movss	 xmm3, DWORD PTR _vPos$532120[ebp]
  0021e	66 0f 5a c9	 cvtpd2ps xmm1, xmm1
  00222	66 0f 5a c0	 cvtpd2ps xmm0, xmm0
  00226	0f 5a db	 cvtps2pd xmm3, xmm3
  00229	f3 0f 5a c9	 cvtss2sd xmm1, xmm1
  0022d	f3 0f 5a c0	 cvtss2sd xmm0, xmm0
  00231	f2 0f 58 c3	 addsd	 xmm0, xmm3
  00235	f3 0f 10 5d e8	 movss	 xmm3, DWORD PTR _vPos$532120[ebp+4]
  0023a	0f 5a db	 cvtps2pd xmm3, xmm3
  0023d	f2 0f 58 cb	 addsd	 xmm1, xmm3
  00241	66 0f 5a c9	 cvtpd2ps xmm1, xmm1
  00245	f3 0f 11 4d e8	 movss	 DWORD PTR _vPos$532120[ebp+4], xmm1
  0024a	66 0f 5a d2	 cvtpd2ps xmm2, xmm2
  0024e	0f 57 c9	 xorps	 xmm1, xmm1
  00251	f3 0f 5a ca	 cvtss2sd xmm1, xmm2
  00255	f3 0f 10 55 ec	 movss	 xmm2, DWORD PTR _vPos$532120[ebp+8]

; 505  : 			vPos.y = pStage->GetMapHeight( vPos.x, vPos.z, NULL, false );

  0025a	33 ff		 xor	 edi, edi
  0025c	57		 push	 edi
  0025d	51		 push	 ecx
  0025e	0f 5a d2	 cvtps2pd xmm2, xmm2
  00261	f2 0f 58 ca	 addsd	 xmm1, xmm2
  00265	0f 57 d2	 xorps	 xmm2, xmm2
  00268	f3 0f 11 14 24	 movss	 DWORD PTR [esp], xmm2
  0026d	57		 push	 edi
  0026e	57		 push	 edi
  0026f	51		 push	 ecx
  00270	51		 push	 ecx
  00271	66 0f 5a c9	 cvtpd2ps xmm1, xmm1
  00275	66 0f 5a c0	 cvtpd2ps xmm0, xmm0
  00279	f3 0f 11 4c 24
	04		 movss	 DWORD PTR [esp+4], xmm1
  0027f	8b ce		 mov	 ecx, esi
  00281	f3 0f 11 45 e4	 movss	 DWORD PTR _vPos$532120[ebp], xmm0
  00286	f3 0f 11 4d ec	 movss	 DWORD PTR _vPos$532120[ebp+8], xmm1
  0028b	f3 0f 11 04 24	 movss	 DWORD PTR [esp], xmm0
  00290	e8 00 00 00 00	 call	 ?GetMapHeight@ioPlayStage@@QAEMMMPBVioGameEntity@@_NM1@Z ; ioPlayStage::GetMapHeight
  00295	d9 5d e8	 fstp	 DWORD PTR _vPos$532120[ebp+4]

; 506  : 			if( pStage )

  00298	3b f7		 cmp	 esi, edi
  0029a	74 1b		 je	 SHORT $LN49@ProcessAtt

; 507  : 				pStage->CreateMapEffect( m_szResultMarker, vPos, vScale );

  0029c	8d 45 cc	 lea	 eax, DWORD PTR _vScale$532121[ebp]
  0029f	50		 push	 eax
  002a0	8d 45 e4	 lea	 eax, DWORD PTR _vPos$532120[ebp]
  002a3	50		 push	 eax
  002a4	8b 85 9c 7f ff
	ff		 mov	 eax, DWORD PTR _this$GSCopy$[ebp]
  002aa	05 30 11 00 00	 add	 eax, 4400		; 00001130H
  002af	50		 push	 eax
  002b0	8b ce		 mov	 ecx, esi
  002b2	e8 00 00 00 00	 call	 ?CreateMapEffect@ioPlayStage@@QAEPAVioMapEffect@@ABVioHashString@@ABUD3DXVECTOR3@@1@Z ; ioPlayStage::CreateMapEffect
$LN49@ProcessAtt:
  002b7	8b b5 9c 7f ff
	ff		 mov	 esi, DWORD PTR _this$GSCopy$[ebp]
$LN2@ProcessAtt:

; 508  : 		}
; 509  : 
; 510  : 		if( pOwner->IsNeedSendNetwork() )

  002bd	8b 03		 mov	 eax, DWORD PTR [ebx]
  002bf	8b cb		 mov	 ecx, ebx
  002c1	ff 90 04 01 00
	00		 call	 DWORD PTR [eax+260]
  002c7	84 c0		 test	 al, al
  002c9	74 61		 je	 SHORT $LN7@ProcessAtt

; 511  : 		{
; 512  : 			SP2Packet kPacket( CUPK_SKILL_EXTRA_INFO );

  002cb	68 39 41 00 00	 push	 16697			; 00004139H
  002d0	8d 8d a8 7f ff
	ff		 lea	 ecx, DWORD PTR _kPacket$532134[ebp]
  002d6	e8 00 00 00 00	 call	 ??0SP2Packet@@QAE@K@Z	; SP2Packet::SP2Packet
  002db	83 65 fc 00	 and	 DWORD PTR __$EHRec$[ebp+8], 0

; 513  : 			kPacket << pOwner->GetCharName();

  002df	81 c3 d4 02 00
	00		 add	 ebx, 724		; 000002d4H
  002e5	53		 push	 ebx
  002e6	8d 8d a8 7f ff
	ff		 lea	 ecx, DWORD PTR _kPacket$532134[ebp]
  002ec	e8 00 00 00 00	 call	 ??6SP2Packet@@QAEAAV0@ABVioHashString@@@Z ; SP2Packet::operator<<

; 514  : 			kPacket << GetName();

  002f1	83 c6 24	 add	 esi, 36			; 00000024H
  002f4	56		 push	 esi
  002f5	8d 8d a8 7f ff
	ff		 lea	 ecx, DWORD PTR _kPacket$532134[ebp]
  002fb	e8 00 00 00 00	 call	 ??6SP2Packet@@QAEAAV0@ABVioHashString@@@Z ; SP2Packet::operator<<

; 515  : 			kPacket << SSC_ON_FIRE;

  00300	6a 01		 push	 1
  00302	8d 8d a8 7f ff
	ff		 lea	 ecx, DWORD PTR _kPacket$532134[ebp]
  00308	e8 00 00 00 00	 call	 ??6SP2Packet@@QAEAAV0@H@Z ; SP2Packet::operator<<

; 516  : 			P2PNetwork::SendToAllPlayingUser( kPacket );

  0030d	8d 85 a8 7f ff
	ff		 lea	 eax, DWORD PTR _kPacket$532134[ebp]
  00313	6a 00		 push	 0
  00315	50		 push	 eax
  00316	e8 00 00 00 00	 call	 ?SendToAllPlayingUser@P2PNetwork@@YAXAAVSP2Packet@@PAVioBaseChar@@@Z ; P2PNetwork::SendToAllPlayingUser

; 517  : 		}

  0031b	83 4d fc ff	 or	 DWORD PTR __$EHRec$[ebp+8], -1
  0031f	59		 pop	 ecx
  00320	59		 pop	 ecx
  00321	8d 8d a8 7f ff
	ff		 lea	 ecx, DWORD PTR _kPacket$532134[ebp]
  00327	e8 00 00 00 00	 call	 ??1SP2Packet@@UAE@XZ	; SP2Packet::~SP2Packet
$LN7@ProcessAtt:

; 518  : 	}
; 519  : }

  0032c	8b 4d f4	 mov	 ecx, DWORD PTR __$EHRec$[ebp]
  0032f	64 89 0d 00 00
	00 00		 mov	 DWORD PTR fs:0, ecx
  00336	59		 pop	 ecx
  00337	5f		 pop	 edi
  00338	5e		 pop	 esi
  00339	5b		 pop	 ebx
  0033a	8b 4d f0	 mov	 ecx, DWORD PTR __$ArrayPad$[ebp]
  0033d	33 cd		 xor	 ecx, ebp
  0033f	e8 00 00 00 00	 call	 @__security_check_cookie@4
  00344	c9		 leave
  00345	c2 04 00	 ret	 4
_TEXT	ENDS
;	COMDAT text$x
text$x	SEGMENT
__unwindfunclet$?ProcessAttack@ioConsecution2Skill@@IAEXPAVioBaseChar@@@Z$0:
  00000	8d 8d a8 7f ff
	ff		 lea	 ecx, DWORD PTR _kPacket$532134[ebp]
  00006	e9 00 00 00 00	 jmp	 ??1SP2Packet@@UAE@XZ	; SP2Packet::~SP2Packet
__ehhandler$?ProcessAttack@ioConsecution2Skill@@IAEXPAVioBaseChar@@@Z:
  0000b	8b 54 24 08	 mov	 edx, DWORD PTR [esp+8]
  0000f	8d 42 0c	 lea	 eax, DWORD PTR [edx+12]
  00012	8b 8a 98 7f ff
	ff		 mov	 ecx, DWORD PTR [edx-32872]
  00018	33 c8		 xor	 ecx, eax
  0001a	e8 00 00 00 00	 call	 @__security_check_cookie@4
  0001f	8b 4a fc	 mov	 ecx, DWORD PTR [edx-4]
  00022	33 c8		 xor	 ecx, eax
  00024	e8 00 00 00 00	 call	 @__security_check_cookie@4
  00029	b8 00 00 00 00	 mov	 eax, OFFSET __ehfuncinfo$?ProcessAttack@ioConsecution2Skill@@IAEXPAVioBaseChar@@@Z
  0002e	e9 00 00 00 00	 jmp	 ___CxxFrameHandler3
text$x	ENDS
?ProcessAttack@ioConsecution2Skill@@IAEXPAVioBaseChar@@@Z ENDP ; ioConsecution2Skill::ProcessAttack
PUBLIC	?ApplyExtraSkillInfo@ioConsecution2Skill@@UAEXPAVioBaseChar@@PAVioPlayStage@@AAVSP2Packet@@@Z ; ioConsecution2Skill::ApplyExtraSkillInfo
EXTRN	??5SP2Packet@@QAEAAV0@AAH@Z:PROC		; SP2Packet::operator>>
; Function compile flags: /Ogsp
;	COMDAT ?ApplyExtraSkillInfo@ioConsecution2Skill@@UAEXPAVioBaseChar@@PAVioPlayStage@@AAVSP2Packet@@@Z
_TEXT	SEGMENT
_pChar$ = 8						; size = 4
_pStage$ = 12						; size = 4
_iState$ = 16						; size = 4
_rkPacket$ = 16						; size = 4
?ApplyExtraSkillInfo@ioConsecution2Skill@@UAEXPAVioBaseChar@@PAVioPlayStage@@AAVSP2Packet@@@Z PROC ; ioConsecution2Skill::ApplyExtraSkillInfo, COMDAT
; _this$ = ecx

; 522  : {

  00000	55		 push	 ebp
  00001	8b ec		 mov	 ebp, esp
  00003	56		 push	 esi

; 523  : 	int iState;
; 524  : 	rkPacket >> iState;

  00004	8d 45 10	 lea	 eax, DWORD PTR _iState$[ebp]
  00007	8b f1		 mov	 esi, ecx
  00009	8b 4d 10	 mov	 ecx, DWORD PTR _rkPacket$[ebp]
  0000c	50		 push	 eax
  0000d	e8 00 00 00 00	 call	 ??5SP2Packet@@QAEAAV0@AAH@Z ; SP2Packet::operator>>

; 525  : 
; 526  : 	switch( iState )

  00012	8b 45 10	 mov	 eax, DWORD PTR _iState$[ebp]
  00015	83 e8 00	 sub	 eax, 0
  00018	74 0f		 je	 SHORT $LN2@ApplyExtra
  0001a	48		 dec	 eax
  0001b	75 19		 jne	 SHORT $LN3@ApplyExtra

; 530  : 		break;
; 531  : 	case SSC_ON_FIRE:
; 532  : 		CreateWeapon( pChar );

  0001d	ff 75 08	 push	 DWORD PTR _pChar$[ebp]
  00020	8b ce		 mov	 ecx, esi
  00022	e8 00 00 00 00	 call	 ?CreateWeapon@ioConsecution2Skill@@QAEXPAVioBaseChar@@@Z ; ioConsecution2Skill::CreateWeapon

; 533  : 		break;

  00027	eb 0d		 jmp	 SHORT $LN3@ApplyExtra
$LN2@ApplyExtra:

; 527  : 	{
; 528  : 	case SSC_START_FIRE:
; 529  : 		AttackSkillFire( pChar );

  00029	ff 75 08	 push	 DWORD PTR _pChar$[ebp]
  0002c	8b 06		 mov	 eax, DWORD PTR [esi]
  0002e	8b ce		 mov	 ecx, esi
  00030	ff 90 8c 01 00
	00		 call	 DWORD PTR [eax+396]
$LN3@ApplyExtra:
  00036	5e		 pop	 esi

; 534  : 	}
; 535  : }

  00037	5d		 pop	 ebp
  00038	c2 0c 00	 ret	 12			; 0000000cH
?ApplyExtraSkillInfo@ioConsecution2Skill@@UAEXPAVioBaseChar@@PAVioPlayStage@@AAVSP2Packet@@@Z ENDP ; ioConsecution2Skill::ApplyExtraSkillInfo
_TEXT	ENDS
PUBLIC	??0?$CEncrypt@K@@QAE@ABV0@@Z			; CEncrypt<unsigned long>::CEncrypt<unsigned long>
;	COMDAT xdata$x
; File d:\lost saga for developer\youtube\tutorial\source\src\lsclient\encryptvalue.h
xdata$x	SEGMENT
__unwindtable$??0?$CEncrypt@K@@QAE@ABV0@@Z DD 0ffffffffH
	DD	FLAT:__unwindfunclet$??0?$CEncrypt@K@@QAE@ABV0@@Z$0
__ehfuncinfo$??0?$CEncrypt@K@@QAE@ABV0@@Z DD 019930522H
	DD	01H
	DD	FLAT:__unwindtable$??0?$CEncrypt@K@@QAE@ABV0@@Z
	DD	2 DUP(00H)
	DD	2 DUP(00H)
	DD	00H
	DD	01H
; Function compile flags: /Ogsp
xdata$x	ENDS
;	COMDAT ??0?$CEncrypt@K@@QAE@ABV0@@Z
_TEXT	SEGMENT
_this$ = -16						; size = 4
__$EHRec$ = -12						; size = 12
_value$537212 = 8					; size = 4
_value$537207 = 8					; size = 4
_inValue$ = 8						; size = 4
??0?$CEncrypt@K@@QAE@ABV0@@Z PROC			; CEncrypt<unsigned long>::CEncrypt<unsigned long>, COMDAT
; _this$ = ecx

; 120  : 	CEncrypt( const CEncrypt<type> &inValue )   //     

  00000	6a 04		 push	 4
  00002	b8 00 00 00 00	 mov	 eax, __ehhandler$??0?$CEncrypt@K@@QAE@ABV0@@Z
  00007	e8 00 00 00 00	 call	 __EH_prolog3
  0000c	8b f1		 mov	 esi, ecx
  0000e	89 75 f0	 mov	 DWORD PTR _this$[ebp], esi
  00011	8d 4e 0c	 lea	 ecx, DWORD PTR [esi+12]
  00014	c7 06 00 00 00
	00		 mov	 DWORD PTR [esi], OFFSET ??_7?$CEncrypt@K@@6B@
  0001a	e8 00 00 00 00	 call	 ??0ccddaabb@@QAE@XZ	; ccddaabb::ccddaabb
  0001f	83 65 fc 00	 and	 DWORD PTR __$EHRec$[ebp+8], 0

; 121  : 	{
; 122  : 		Init();

  00023	8b ce		 mov	 ecx, esi
  00025	e8 00 00 00 00	 call	 ?Init@?$CEncrypt@K@@AAEXXZ ; CEncrypt<unsigned long>::Init

; 123  : 		*this = inValue;

  0002a	8b 4d 08	 mov	 ecx, DWORD PTR _inValue$[ebp]
  0002d	8d 45 08	 lea	 eax, DWORD PTR _value$537207[ebp]
  00030	50		 push	 eax
  00031	e8 00 00 00 00	 call	 ?DecryptValueToPool@?$CEncrypt@K@@QAEXPAK@Z ; CEncrypt<unsigned long>::DecryptValueToPool
  00036	8b 45 08	 mov	 eax, DWORD PTR _value$537207[ebp]
  00039	89 45 08	 mov	 DWORD PTR _value$537212[ebp], eax
  0003c	8d 45 08	 lea	 eax, DWORD PTR _value$537212[ebp]
  0003f	50		 push	 eax
  00040	8b ce		 mov	 ecx, esi
  00042	e8 00 00 00 00	 call	 ?EncryptValueToPool@?$CEncrypt@K@@AAEXPBD@Z ; CEncrypt<unsigned long>::EncryptValueToPool

; 124  : 	}

  00047	8b c6		 mov	 eax, esi
  00049	e8 00 00 00 00	 call	 __EH_epilog3
  0004e	c2 04 00	 ret	 4
_TEXT	ENDS
;	COMDAT text$x
text$x	SEGMENT
__unwindfunclet$??0?$CEncrypt@K@@QAE@ABV0@@Z$0:
  00000	8b 4d f0	 mov	 ecx, DWORD PTR _this$[ebp]
  00003	83 c1 0c	 add	 ecx, 12			; 0000000cH
  00006	e9 00 00 00 00	 jmp	 ??1ccddaabb@@UAE@XZ	; ccddaabb::~ccddaabb
__ehhandler$??0?$CEncrypt@K@@QAE@ABV0@@Z:
  0000b	8b 54 24 08	 mov	 edx, DWORD PTR [esp+8]
  0000f	8d 42 0c	 lea	 eax, DWORD PTR [edx+12]
  00012	8b 4a ec	 mov	 ecx, DWORD PTR [edx-20]
  00015	33 c8		 xor	 ecx, eax
  00017	e8 00 00 00 00	 call	 @__security_check_cookie@4
  0001c	b8 00 00 00 00	 mov	 eax, OFFSET __ehfuncinfo$??0?$CEncrypt@K@@QAE@ABV0@@Z
  00021	e9 00 00 00 00	 jmp	 ___CxxFrameHandler3
text$x	ENDS
??0?$CEncrypt@K@@QAE@ABV0@@Z ENDP			; CEncrypt<unsigned long>::CEncrypt<unsigned long>
PUBLIC	??0?$vector@UWeaponFireInfo@@V?$allocator@UWeaponFireInfo@@@std@@@std@@QAE@XZ ; std::vector<WeaponFireInfo,std::allocator<WeaponFireInfo> >::vector<WeaponFireInfo,std::allocator<WeaponFireInfo> >
; Function compile flags: /Ogsp
; File c:\program files (x86)\microsoft visual studio 10.0\vc\include\vector
;	COMDAT ??0?$vector@UWeaponFireInfo@@V?$allocator@UWeaponFireInfo@@@std@@@std@@QAE@XZ
_TEXT	SEGMENT
??0?$vector@UWeaponFireInfo@@V?$allocator@UWeaponFireInfo@@@std@@@std@@QAE@XZ PROC ; std::vector<WeaponFireInfo,std::allocator<WeaponFireInfo> >::vector<WeaponFireInfo,std::allocator<WeaponFireInfo> >, COMDAT
; _this$ = ecx

; 507  : 		{	// construct empty vector

  00000	8b c1		 mov	 eax, ecx
  00002	33 c9		 xor	 ecx, ecx
  00004	89 08		 mov	 DWORD PTR [eax], ecx
  00006	89 48 04	 mov	 DWORD PTR [eax+4], ecx
  00009	89 48 08	 mov	 DWORD PTR [eax+8], ecx

; 508  : 		}

  0000c	c3		 ret	 0
??0?$vector@UWeaponFireInfo@@V?$allocator@UWeaponFireInfo@@@std@@@std@@QAE@XZ ENDP ; std::vector<WeaponFireInfo,std::allocator<WeaponFireInfo> >::vector<WeaponFireInfo,std::allocator<WeaponFireInfo> >
_TEXT	ENDS
PUBLIC	?_Buy@?$vector@UWeaponFireInfo@@V?$allocator@UWeaponFireInfo@@@std@@@std@@IAE_NI@Z ; std::vector<WeaponFireInfo,std::allocator<WeaponFireInfo> >::_Buy
; Function compile flags: /Ogsp
;	COMDAT ?_Buy@?$vector@UWeaponFireInfo@@V?$allocator@UWeaponFireInfo@@@std@@@std@@IAE_NI@Z
_TEXT	SEGMENT
__Capacity$ = 8						; size = 4
?_Buy@?$vector@UWeaponFireInfo@@V?$allocator@UWeaponFireInfo@@@std@@@std@@IAE_NI@Z PROC ; std::vector<WeaponFireInfo,std::allocator<WeaponFireInfo> >::_Buy, COMDAT
; _this$ = ecx

; 1250 : 		{	// allocate array with _Capacity elements

  00000	55		 push	 ebp
  00001	8b ec		 mov	 ebp, esp
  00003	56		 push	 esi

; 1251 : 		this->_Myfirst = 0;

  00004	33 c0		 xor	 eax, eax
  00006	57		 push	 edi

; 1252 : 		this->_Mylast = 0;
; 1253 : 		this->_Myend = 0;
; 1254 : 
; 1255 : 		if (_Capacity == 0)

  00007	8b 7d 08	 mov	 edi, DWORD PTR __Capacity$[ebp]
  0000a	8b f1		 mov	 esi, ecx
  0000c	89 06		 mov	 DWORD PTR [esi], eax
  0000e	89 46 04	 mov	 DWORD PTR [esi+4], eax
  00011	89 46 08	 mov	 DWORD PTR [esi+8], eax
  00014	3b f8		 cmp	 edi, eax
  00016	75 04		 jne	 SHORT $LN4@Buy

; 1256 : 			return (false);

  00018	32 c0		 xor	 al, al
  0001a	eb 2b		 jmp	 SHORT $LN5@Buy
$LN4@Buy:

; 1257 : 		else if (max_size() < _Capacity)

  0001c	81 ff 55 55 55
	05		 cmp	 edi, 89478485		; 05555555H
  00022	76 0b		 jbe	 SHORT $LN2@Buy

; 1258 : 			_Xlen();	// result too long

  00024	68 00 00 00 00	 push	 OFFSET ??_C@_0BD@OLBABOEK@vector?$DMT?$DO?5too?5long?$AA@
  00029	ff 15 00 00 00
	00		 call	 DWORD PTR __imp_?_Xlength_error@std@@YAXPBD@Z
$LN19@Buy:
$LN2@Buy:

; 1259 : 		else
; 1260 : 			{	// nonempty array, allocate storage
; 1261 : 			this->_Myfirst = this->_Alval.allocate(_Capacity);

  0002f	50		 push	 eax
  00030	57		 push	 edi
  00031	e8 00 00 00 00	 call	 ??$_Allocate@UWeaponFireInfo@@@std@@YAPAUWeaponFireInfo@@IPAU1@@Z ; std::_Allocate<WeaponFireInfo>

; 1262 : 			this->_Mylast = this->_Myfirst;
; 1263 : 			this->_Myend = this->_Myfirst + _Capacity;

  00036	6b ff 30	 imul	 edi, 48			; 00000030H
  00039	03 f8		 add	 edi, eax
  0003b	59		 pop	 ecx
  0003c	89 06		 mov	 DWORD PTR [esi], eax
  0003e	89 46 04	 mov	 DWORD PTR [esi+4], eax
  00041	59		 pop	 ecx
  00042	89 7e 08	 mov	 DWORD PTR [esi+8], edi

; 1264 : 			}
; 1265 : 		return (true);

  00045	b0 01		 mov	 al, 1
$LN5@Buy:
  00047	5f		 pop	 edi
  00048	5e		 pop	 esi

; 1266 : 		}

  00049	5d		 pop	 ebp
  0004a	c2 04 00	 ret	 4
$LN18@Buy:
?_Buy@?$vector@UWeaponFireInfo@@V?$allocator@UWeaponFireInfo@@@std@@@std@@IAE_NI@Z ENDP ; std::vector<WeaponFireInfo,std::allocator<WeaponFireInfo> >::_Buy
_TEXT	ENDS
PUBLIC	??9?$_Vector_const_iterator@V?$_Vector_val@UWeaponFireInfo@@V?$allocator@UWeaponFireInfo@@@std@@@std@@@std@@QBE_NABV01@@Z ; std::_Vector_const_iterator<std::_Vector_val<WeaponFireInfo,std::allocator<WeaponFireInfo> > >::operator!=
; Function compile flags: /Ogsp
;	COMDAT ??9?$_Vector_const_iterator@V?$_Vector_val@UWeaponFireInfo@@V?$allocator@UWeaponFireInfo@@@std@@@std@@@std@@QBE_NABV01@@Z
_TEXT	SEGMENT
__Right$ = 8						; size = 4
??9?$_Vector_const_iterator@V?$_Vector_val@UWeaponFireInfo@@V?$allocator@UWeaponFireInfo@@@std@@@std@@@std@@QBE_NABV01@@Z PROC ; std::_Vector_const_iterator<std::_Vector_val<WeaponFireInfo,std::allocator<WeaponFireInfo> > >::operator!=, COMDAT
; _this$ = ecx

; 207  : 		{	// test for iterator inequality

  00000	55		 push	 ebp
  00001	8b ec		 mov	 ebp, esp

; 208  : 		return (!(*this == _Right));

  00003	8b 01		 mov	 eax, DWORD PTR [ecx]
  00005	8b 55 08	 mov	 edx, DWORD PTR __Right$[ebp]
  00008	33 c9		 xor	 ecx, ecx
  0000a	3b 02		 cmp	 eax, DWORD PTR [edx]
  0000c	0f 95 c0	 setne	 al

; 209  : 		}

  0000f	5d		 pop	 ebp
  00010	c2 04 00	 ret	 4
??9?$_Vector_const_iterator@V?$_Vector_val@UWeaponFireInfo@@V?$allocator@UWeaponFireInfo@@@std@@@std@@@std@@QBE_NABV01@@Z ENDP ; std::_Vector_const_iterator<std::_Vector_val<WeaponFireInfo,std::allocator<WeaponFireInfo> > >::operator!=
_TEXT	ENDS
PUBLIC	??$construct@AAUWeaponFireInfo@@@?$allocator@UWeaponFireInfo@@@std@@QAEXPAUWeaponFireInfo@@AAU2@@Z ; std::allocator<WeaponFireInfo>::construct<WeaponFireInfo &>
;	COMDAT xdata$x
; File c:\program files (x86)\microsoft visual studio 10.0\vc\include\utility
xdata$x	SEGMENT
__unwindtable$??$construct@AAUWeaponFireInfo@@@?$allocator@UWeaponFireInfo@@@std@@QAEXPAUWeaponFireInfo@@AAU2@@Z DD 0ffffffffH
	DD	FLAT:__unwindfunclet$??$construct@AAUWeaponFireInfo@@@?$allocator@UWeaponFireInfo@@@std@@QAEXPAUWeaponFireInfo@@AAU2@@Z$0
__ehfuncinfo$??$construct@AAUWeaponFireInfo@@@?$allocator@UWeaponFireInfo@@@std@@QAEXPAUWeaponFireInfo@@AAU2@@Z DD 019930522H
	DD	01H
	DD	FLAT:__unwindtable$??$construct@AAUWeaponFireInfo@@@?$allocator@UWeaponFireInfo@@@std@@QAEXPAUWeaponFireInfo@@AAU2@@Z
	DD	2 DUP(00H)
	DD	2 DUP(00H)
	DD	00H
	DD	01H
; Function compile flags: /Ogsp
; File c:\program files (x86)\microsoft visual studio 10.0\vc\include\xmemory
xdata$x	ENDS
;	COMDAT ??$construct@AAUWeaponFireInfo@@@?$allocator@UWeaponFireInfo@@@std@@QAEXPAUWeaponFireInfo@@AAU2@@Z
_TEXT	SEGMENT
$T537277 = -16						; size = 4
__$EHRec$ = -12						; size = 12
__Ptr$ = 8						; size = 4
__Val$ = 12						; size = 4
??$construct@AAUWeaponFireInfo@@@?$allocator@UWeaponFireInfo@@@std@@QAEXPAUWeaponFireInfo@@AAU2@@Z PROC ; std::allocator<WeaponFireInfo>::construct<WeaponFireInfo &>, COMDAT
; _this$ = ecx

; 206  : 		void construct(pointer _Ptr, _Other&& _Val)

  00000	6a 04		 push	 4
  00002	b8 00 00 00 00	 mov	 eax, __ehhandler$??$construct@AAUWeaponFireInfo@@@?$allocator@UWeaponFireInfo@@@std@@QAEXPAUWeaponFireInfo@@AAU2@@Z
  00007	e8 00 00 00 00	 call	 __EH_prolog3

; 207  : 		{	// construct object at _Ptr with value _Val
; 208  : 		::new ((void _FARQ *)_Ptr) _Ty(_STD forward<_Other>(_Val));

  0000c	8b 4d 08	 mov	 ecx, DWORD PTR __Ptr$[ebp]
  0000f	89 4d f0	 mov	 DWORD PTR $T537277[ebp], ecx
  00012	83 65 fc 00	 and	 DWORD PTR __$EHRec$[ebp+8], 0
  00016	85 c9		 test	 ecx, ecx
  00018	74 08		 je	 SHORT $LN3@construct@2
  0001a	ff 75 0c	 push	 DWORD PTR __Val$[ebp]
  0001d	e8 00 00 00 00	 call	 ??0WeaponFireInfo@@QAE@ABU0@@Z
$LN3@construct@2:

; 209  : 		}

  00022	e8 00 00 00 00	 call	 __EH_epilog3
  00027	c2 08 00	 ret	 8
_TEXT	ENDS
;	COMDAT text$x
text$x	SEGMENT
__unwindfunclet$??$construct@AAUWeaponFireInfo@@@?$allocator@UWeaponFireInfo@@@std@@QAEXPAUWeaponFireInfo@@AAU2@@Z$0:
  00000	ff 75 08	 push	 DWORD PTR __Ptr$[ebp]
  00003	ff 75 f0	 push	 DWORD PTR $T537277[ebp]
  00006	e8 00 00 00 00	 call	 ??3@YAXPAX0@Z		; operator delete
  0000b	59		 pop	 ecx
  0000c	59		 pop	 ecx
  0000d	c3		 ret	 0
__ehhandler$??$construct@AAUWeaponFireInfo@@@?$allocator@UWeaponFireInfo@@@std@@QAEXPAUWeaponFireInfo@@AAU2@@Z:
  0000e	8b 54 24 08	 mov	 edx, DWORD PTR [esp+8]
  00012	8d 42 0c	 lea	 eax, DWORD PTR [edx+12]
  00015	8b 4a ec	 mov	 ecx, DWORD PTR [edx-20]
  00018	33 c8		 xor	 ecx, eax
  0001a	e8 00 00 00 00	 call	 @__security_check_cookie@4
  0001f	b8 00 00 00 00	 mov	 eax, OFFSET __ehfuncinfo$??$construct@AAUWeaponFireInfo@@@?$allocator@UWeaponFireInfo@@@std@@QAEXPAUWeaponFireInfo@@AAU2@@Z
  00024	e9 00 00 00 00	 jmp	 ___CxxFrameHandler3
text$x	ENDS
??$construct@AAUWeaponFireInfo@@@?$allocator@UWeaponFireInfo@@@std@@QAEXPAUWeaponFireInfo@@AAU2@@Z ENDP ; std::allocator<WeaponFireInfo>::construct<WeaponFireInfo &>
PUBLIC	??$_Move@PAUWeaponFireInfo@@PAU1@@std@@YAPAUWeaponFireInfo@@PAU1@00U_Nonscalar_ptr_iterator_tag@0@@Z ; std::_Move<WeaponFireInfo *,WeaponFireInfo *>
; Function compile flags: /Ogsp
; File c:\program files (x86)\microsoft visual studio 10.0\vc\include\xutility
;	COMDAT ??$_Move@PAUWeaponFireInfo@@PAU1@@std@@YAPAUWeaponFireInfo@@PAU1@00U_Nonscalar_ptr_iterator_tag@0@@Z
_TEXT	SEGMENT
__First$ = 8						; size = 4
__Last$ = 12						; size = 4
__Dest$ = 16						; size = 4
___formal$ = 20						; size = 1
??$_Move@PAUWeaponFireInfo@@PAU1@@std@@YAPAUWeaponFireInfo@@PAU1@00U_Nonscalar_ptr_iterator_tag@0@@Z PROC ; std::_Move<WeaponFireInfo *,WeaponFireInfo *>, COMDAT

; 2512 : 	{	// move [_First, _Last) to [_Dest, ...), arbitrary iterators

  00000	55		 push	 ebp
  00001	8b ec		 mov	 ebp, esp
  00003	56		 push	 esi

; 2513 : 	for (; _First != _Last; ++_Dest, ++_First)

  00004	8b 75 08	 mov	 esi, DWORD PTR __First$[ebp]
  00007	eb 10		 jmp	 SHORT $LN11@Move
$LL3@Move:

; 2514 : 		*_Dest = _STD move(*_First);

  00009	8b 4d 10	 mov	 ecx, DWORD PTR __Dest$[ebp]
  0000c	56		 push	 esi
  0000d	e8 00 00 00 00	 call	 ??4WeaponFireInfo@@QAEAAU0@ABU0@@Z
  00012	83 45 10 30	 add	 DWORD PTR __Dest$[ebp], 48 ; 00000030H
  00016	83 c6 30	 add	 esi, 48			; 00000030H
$LN11@Move:

; 2513 : 	for (; _First != _Last; ++_Dest, ++_First)

  00019	3b 75 0c	 cmp	 esi, DWORD PTR __Last$[ebp]
  0001c	75 eb		 jne	 SHORT $LL3@Move

; 2515 : 	return (_Dest);

  0001e	8b 45 10	 mov	 eax, DWORD PTR __Dest$[ebp]
  00021	5e		 pop	 esi

; 2516 : 	}

  00022	5d		 pop	 ebp
  00023	c3		 ret	 0
??$_Move@PAUWeaponFireInfo@@PAU1@@std@@YAPAUWeaponFireInfo@@PAU1@00U_Nonscalar_ptr_iterator_tag@0@@Z ENDP ; std::_Move<WeaponFireInfo *,WeaponFireInfo *>
_TEXT	ENDS
PUBLIC	??$_Construct@UWeaponFireInfo@@ABU1@@std@@YAXPAUWeaponFireInfo@@ABU1@@Z ; std::_Construct<WeaponFireInfo,WeaponFireInfo const &>
;	COMDAT xdata$x
; File c:\program files (x86)\microsoft visual studio 10.0\vc\include\utility
xdata$x	SEGMENT
__unwindtable$??$_Construct@UWeaponFireInfo@@ABU1@@std@@YAXPAUWeaponFireInfo@@ABU1@@Z DD 0ffffffffH
	DD	FLAT:__unwindfunclet$??$_Construct@UWeaponFireInfo@@ABU1@@std@@YAXPAUWeaponFireInfo@@ABU1@@Z$0
__ehfuncinfo$??$_Construct@UWeaponFireInfo@@ABU1@@std@@YAXPAUWeaponFireInfo@@ABU1@@Z DD 019930522H
	DD	01H
	DD	FLAT:__unwindtable$??$_Construct@UWeaponFireInfo@@ABU1@@std@@YAXPAUWeaponFireInfo@@ABU1@@Z
	DD	2 DUP(00H)
	DD	2 DUP(00H)
	DD	00H
	DD	01H
; Function compile flags: /Ogsp
; File c:\program files (x86)\microsoft visual studio 10.0\vc\include\xmemory
xdata$x	ENDS
;	COMDAT ??$_Construct@UWeaponFireInfo@@ABU1@@std@@YAXPAUWeaponFireInfo@@ABU1@@Z
_TEXT	SEGMENT
$T537305 = -16						; size = 4
__$EHRec$ = -12						; size = 12
__Vptr$ = 8						; size = 4
__Ptr$ = 8						; size = 4
__Val$ = 12						; size = 4
??$_Construct@UWeaponFireInfo@@ABU1@@std@@YAXPAUWeaponFireInfo@@ABU1@@Z PROC ; std::_Construct<WeaponFireInfo,WeaponFireInfo const &>, COMDAT

; 46   : 	{	// construct object at _Ptr with value _Val

  00000	6a 04		 push	 4
  00002	b8 00 00 00 00	 mov	 eax, __ehhandler$??$_Construct@UWeaponFireInfo@@ABU1@@std@@YAXPAUWeaponFireInfo@@ABU1@@Z
  00007	e8 00 00 00 00	 call	 __EH_prolog3

; 47   : 	void _FARQ *_Vptr = _Ptr;

  0000c	8b 4d 08	 mov	 ecx, DWORD PTR __Ptr$[ebp]
  0000f	89 4d 08	 mov	 DWORD PTR __Vptr$[ebp], ecx

; 48   : 	::new (_Vptr) _Ty1(_STD forward<_Ty2>(_Val));

  00012	89 4d f0	 mov	 DWORD PTR $T537305[ebp], ecx
  00015	83 65 fc 00	 and	 DWORD PTR __$EHRec$[ebp+8], 0
  00019	85 c9		 test	 ecx, ecx
  0001b	74 08		 je	 SHORT $LN3@Construct
  0001d	ff 75 0c	 push	 DWORD PTR __Val$[ebp]
  00020	e8 00 00 00 00	 call	 ??0WeaponFireInfo@@QAE@ABU0@@Z
$LN3@Construct:

; 49   : 	}

  00025	e8 00 00 00 00	 call	 __EH_epilog3
  0002a	c3		 ret	 0
_TEXT	ENDS
;	COMDAT text$x
text$x	SEGMENT
__unwindfunclet$??$_Construct@UWeaponFireInfo@@ABU1@@std@@YAXPAUWeaponFireInfo@@ABU1@@Z$0:
  00000	ff 75 08	 push	 DWORD PTR __Vptr$[ebp]
  00003	ff 75 f0	 push	 DWORD PTR $T537305[ebp]
  00006	e8 00 00 00 00	 call	 ??3@YAXPAX0@Z		; operator delete
  0000b	59		 pop	 ecx
  0000c	59		 pop	 ecx
  0000d	c3		 ret	 0
__ehhandler$??$_Construct@UWeaponFireInfo@@ABU1@@std@@YAXPAUWeaponFireInfo@@ABU1@@Z:
  0000e	8b 54 24 08	 mov	 edx, DWORD PTR [esp+8]
  00012	8d 42 0c	 lea	 eax, DWORD PTR [edx+12]
  00015	8b 4a ec	 mov	 ecx, DWORD PTR [edx-20]
  00018	33 c8		 xor	 ecx, eax
  0001a	e8 00 00 00 00	 call	 @__security_check_cookie@4
  0001f	b8 00 00 00 00	 mov	 eax, OFFSET __ehfuncinfo$??$_Construct@UWeaponFireInfo@@ABU1@@std@@YAXPAUWeaponFireInfo@@ABU1@@Z
  00024	e9 00 00 00 00	 jmp	 ___CxxFrameHandler3
text$x	ENDS
??$_Construct@UWeaponFireInfo@@ABU1@@std@@YAXPAUWeaponFireInfo@@ABU1@@Z ENDP ; std::_Construct<WeaponFireInfo,WeaponFireInfo const &>
PUBLIC	??$_Cons_val@V?$allocator@UWeaponFireInfo@@@std@@UWeaponFireInfo@@U3@@std@@YAXAAV?$allocator@UWeaponFireInfo@@@0@PAUWeaponFireInfo@@$$QAU2@@Z ; std::_Cons_val<std::allocator<WeaponFireInfo>,WeaponFireInfo,WeaponFireInfo>
;	COMDAT xdata$x
; File c:\program files (x86)\microsoft visual studio 10.0\vc\include\utility
xdata$x	SEGMENT
__unwindtable$??$_Cons_val@V?$allocator@UWeaponFireInfo@@@std@@UWeaponFireInfo@@U3@@std@@YAXAAV?$allocator@UWeaponFireInfo@@@0@PAUWeaponFireInfo@@$$QAU2@@Z DD 0ffffffffH
	DD	FLAT:__unwindfunclet$??$_Cons_val@V?$allocator@UWeaponFireInfo@@@std@@UWeaponFireInfo@@U3@@std@@YAXAAV?$allocator@UWeaponFireInfo@@@0@PAUWeaponFireInfo@@$$QAU2@@Z$0
__ehfuncinfo$??$_Cons_val@V?$allocator@UWeaponFireInfo@@@std@@UWeaponFireInfo@@U3@@std@@YAXAAV?$allocator@UWeaponFireInfo@@@0@PAUWeaponFireInfo@@$$QAU2@@Z DD 019930522H
	DD	01H
	DD	FLAT:__unwindtable$??$_Cons_val@V?$allocator@UWeaponFireInfo@@@std@@UWeaponFireInfo@@U3@@std@@YAXAAV?$allocator@UWeaponFireInfo@@@0@PAUWeaponFireInfo@@$$QAU2@@Z
	DD	2 DUP(00H)
	DD	2 DUP(00H)
	DD	00H
	DD	01H
; Function compile flags: /Ogsp
; File c:\program files (x86)\microsoft visual studio 10.0\vc\include\xmemory
xdata$x	ENDS
;	COMDAT ??$_Cons_val@V?$allocator@UWeaponFireInfo@@@std@@UWeaponFireInfo@@U3@@std@@YAXAAV?$allocator@UWeaponFireInfo@@@0@PAUWeaponFireInfo@@$$QAU2@@Z
_TEXT	SEGMENT
$T537341 = -16						; size = 4
__$EHRec$ = -12						; size = 12
__Alval$ = 8						; size = 4
__Pdest$ = 12						; size = 4
__Src$ = 16						; size = 4
??$_Cons_val@V?$allocator@UWeaponFireInfo@@@std@@UWeaponFireInfo@@U3@@std@@YAXAAV?$allocator@UWeaponFireInfo@@@0@PAUWeaponFireInfo@@$$QAU2@@Z PROC ; std::_Cons_val<std::allocator<WeaponFireInfo>,WeaponFireInfo,WeaponFireInfo>, COMDAT

; 279  : 	{	// construct using allocator

  00000	6a 04		 push	 4
  00002	b8 00 00 00 00	 mov	 eax, __ehhandler$??$_Cons_val@V?$allocator@UWeaponFireInfo@@@std@@UWeaponFireInfo@@U3@@std@@YAXAAV?$allocator@UWeaponFireInfo@@@0@PAUWeaponFireInfo@@$$QAU2@@Z
  00007	e8 00 00 00 00	 call	 __EH_prolog3

; 280  : 	_Alval.construct(_Pdest, _STD forward<_Ty2>(_Src));

  0000c	8b 4d 0c	 mov	 ecx, DWORD PTR __Pdest$[ebp]
  0000f	89 4d f0	 mov	 DWORD PTR $T537341[ebp], ecx
  00012	83 65 fc 00	 and	 DWORD PTR __$EHRec$[ebp+8], 0
  00016	85 c9		 test	 ecx, ecx
  00018	74 08		 je	 SHORT $LN7@Cons_val
  0001a	ff 75 10	 push	 DWORD PTR __Src$[ebp]
  0001d	e8 00 00 00 00	 call	 ??0WeaponFireInfo@@QAE@ABU0@@Z
$LN7@Cons_val:

; 281  : 	}

  00022	e8 00 00 00 00	 call	 __EH_epilog3
  00027	c3		 ret	 0
_TEXT	ENDS
;	COMDAT text$x
text$x	SEGMENT
__unwindfunclet$??$_Cons_val@V?$allocator@UWeaponFireInfo@@@std@@UWeaponFireInfo@@U3@@std@@YAXAAV?$allocator@UWeaponFireInfo@@@0@PAUWeaponFireInfo@@$$QAU2@@Z$0:
  00000	ff 75 0c	 push	 DWORD PTR __Pdest$[ebp]
  00003	ff 75 f0	 push	 DWORD PTR $T537341[ebp]
  00006	e8 00 00 00 00	 call	 ??3@YAXPAX0@Z		; operator delete
  0000b	59		 pop	 ecx
  0000c	59		 pop	 ecx
  0000d	c3		 ret	 0
__ehhandler$??$_Cons_val@V?$allocator@UWeaponFireInfo@@@std@@UWeaponFireInfo@@U3@@std@@YAXAAV?$allocator@UWeaponFireInfo@@@0@PAUWeaponFireInfo@@$$QAU2@@Z:
  0000e	8b 54 24 08	 mov	 edx, DWORD PTR [esp+8]
  00012	8d 42 0c	 lea	 eax, DWORD PTR [edx+12]
  00015	8b 4a ec	 mov	 ecx, DWORD PTR [edx-20]
  00018	33 c8		 xor	 ecx, eax
  0001a	e8 00 00 00 00	 call	 @__security_check_cookie@4
  0001f	b8 00 00 00 00	 mov	 eax, OFFSET __ehfuncinfo$??$_Cons_val@V?$allocator@UWeaponFireInfo@@@std@@UWeaponFireInfo@@U3@@std@@YAXAAV?$allocator@UWeaponFireInfo@@@0@PAUWeaponFireInfo@@$$QAU2@@Z
  00024	e9 00 00 00 00	 jmp	 ___CxxFrameHandler3
text$x	ENDS
??$_Cons_val@V?$allocator@UWeaponFireInfo@@@std@@UWeaponFireInfo@@U3@@std@@YAXAAV?$allocator@UWeaponFireInfo@@@0@PAUWeaponFireInfo@@$$QAU2@@Z ENDP ; std::_Cons_val<std::allocator<WeaponFireInfo>,WeaponFireInfo,WeaponFireInfo>
PUBLIC	??$_Destroy@UWeaponFireInfo@@@std@@YAXPAUWeaponFireInfo@@@Z ; std::_Destroy<WeaponFireInfo>
; Function compile flags: /Ogsp
;	COMDAT ??$_Destroy@UWeaponFireInfo@@@std@@YAXPAUWeaponFireInfo@@@Z
_TEXT	SEGMENT
__Ptr$ = 8						; size = 4
??$_Destroy@UWeaponFireInfo@@@std@@YAXPAUWeaponFireInfo@@@Z PROC ; std::_Destroy<WeaponFireInfo>, COMDAT

; 62   : 	{	// destroy object at _Ptr

  00000	55		 push	 ebp
  00001	8b ec		 mov	 ebp, esp

; 63   : 	_Ptr->~_Ty();

  00003	8b 4d 08	 mov	 ecx, DWORD PTR __Ptr$[ebp]
  00006	83 c1 10	 add	 ecx, 16			; 00000010H

; 64   : 	}

  00009	5d		 pop	 ebp

; 63   : 	_Ptr->~_Ty();

  0000a	ff 25 00 00 00
	00		 jmp	 DWORD PTR __imp_??1ioHashString@@QAE@XZ
??$_Destroy@UWeaponFireInfo@@@std@@YAXPAUWeaponFireInfo@@@Z ENDP ; std::_Destroy<WeaponFireInfo>
_TEXT	ENDS
PUBLIC	??0?$CEncrypt@M@@QAE@ABV0@@Z			; CEncrypt<float>::CEncrypt<float>
;	COMDAT xdata$x
; File d:\lost saga for developer\youtube\tutorial\source\src\lsclient\encryptvalue.h
xdata$x	SEGMENT
__unwindtable$??0?$CEncrypt@M@@QAE@ABV0@@Z DD 0ffffffffH
	DD	FLAT:__unwindfunclet$??0?$CEncrypt@M@@QAE@ABV0@@Z$0
__ehfuncinfo$??0?$CEncrypt@M@@QAE@ABV0@@Z DD 019930522H
	DD	01H
	DD	FLAT:__unwindtable$??0?$CEncrypt@M@@QAE@ABV0@@Z
	DD	2 DUP(00H)
	DD	2 DUP(00H)
	DD	00H
	DD	01H
; Function compile flags: /Ogsp
xdata$x	ENDS
;	COMDAT ??0?$CEncrypt@M@@QAE@ABV0@@Z
_TEXT	SEGMENT
_this$ = -16						; size = 4
__$EHRec$ = -12						; size = 12
_value$537386 = 8					; size = 4
_value$537381 = 8					; size = 4
_inValue$ = 8						; size = 4
??0?$CEncrypt@M@@QAE@ABV0@@Z PROC			; CEncrypt<float>::CEncrypt<float>, COMDAT
; _this$ = ecx

; 120  : 	CEncrypt( const CEncrypt<type> &inValue )   //     

  00000	6a 04		 push	 4
  00002	b8 00 00 00 00	 mov	 eax, __ehhandler$??0?$CEncrypt@M@@QAE@ABV0@@Z
  00007	e8 00 00 00 00	 call	 __EH_prolog3
  0000c	8b f1		 mov	 esi, ecx
  0000e	89 75 f0	 mov	 DWORD PTR _this$[ebp], esi
  00011	8d 4e 0c	 lea	 ecx, DWORD PTR [esi+12]
  00014	c7 06 00 00 00
	00		 mov	 DWORD PTR [esi], OFFSET ??_7?$CEncrypt@M@@6B@
  0001a	e8 00 00 00 00	 call	 ??0ccddaabb@@QAE@XZ	; ccddaabb::ccddaabb
  0001f	83 65 fc 00	 and	 DWORD PTR __$EHRec$[ebp+8], 0

; 121  : 	{
; 122  : 		Init();

  00023	8b ce		 mov	 ecx, esi
  00025	e8 00 00 00 00	 call	 ?Init@?$CEncrypt@M@@AAEXXZ ; CEncrypt<float>::Init

; 123  : 		*this = inValue;

  0002a	8b 4d 08	 mov	 ecx, DWORD PTR _inValue$[ebp]
  0002d	8d 45 08	 lea	 eax, DWORD PTR _value$537381[ebp]
  00030	50		 push	 eax
  00031	e8 00 00 00 00	 call	 ?DecryptValueToPool@?$CEncrypt@M@@QAEXPAM@Z ; CEncrypt<float>::DecryptValueToPool
  00036	f3 0f 10 45 08	 movss	 xmm0, DWORD PTR _value$537381[ebp]
  0003b	8d 45 08	 lea	 eax, DWORD PTR _value$537386[ebp]
  0003e	50		 push	 eax
  0003f	8b ce		 mov	 ecx, esi
  00041	f3 0f 11 45 08	 movss	 DWORD PTR _value$537386[ebp], xmm0
  00046	e8 00 00 00 00	 call	 ?EncryptValueToPool@?$CEncrypt@M@@AAEXPBD@Z ; CEncrypt<float>::EncryptValueToPool

; 124  : 	}

  0004b	8b c6		 mov	 eax, esi
  0004d	e8 00 00 00 00	 call	 __EH_epilog3
  00052	c2 04 00	 ret	 4
_TEXT	ENDS
;	COMDAT text$x
text$x	SEGMENT
__unwindfunclet$??0?$CEncrypt@M@@QAE@ABV0@@Z$0:
  00000	8b 4d f0	 mov	 ecx, DWORD PTR _this$[ebp]
  00003	83 c1 0c	 add	 ecx, 12			; 0000000cH
  00006	e9 00 00 00 00	 jmp	 ??1ccddaabb@@UAE@XZ	; ccddaabb::~ccddaabb
__ehhandler$??0?$CEncrypt@M@@QAE@ABV0@@Z:
  0000b	8b 54 24 08	 mov	 edx, DWORD PTR [esp+8]
  0000f	8d 42 0c	 lea	 eax, DWORD PTR [edx+12]
  00012	8b 4a ec	 mov	 ecx, DWORD PTR [edx-20]
  00015	33 c8		 xor	 ecx, eax
  00017	e8 00 00 00 00	 call	 @__security_check_cookie@4
  0001c	b8 00 00 00 00	 mov	 eax, OFFSET __ehfuncinfo$??0?$CEncrypt@M@@QAE@ABV0@@Z
  00021	e9 00 00 00 00	 jmp	 ___CxxFrameHandler3
text$x	ENDS
??0?$CEncrypt@M@@QAE@ABV0@@Z ENDP			; CEncrypt<float>::CEncrypt<float>
PUBLIC	??0?$vector@KV?$allocator@K@std@@@std@@QAE@XZ	; std::vector<unsigned long,std::allocator<unsigned long> >::vector<unsigned long,std::allocator<unsigned long> >
; Function compile flags: /Ogsp
; File c:\program files (x86)\microsoft visual studio 10.0\vc\include\vector
;	COMDAT ??0?$vector@KV?$allocator@K@std@@@std@@QAE@XZ
_TEXT	SEGMENT
??0?$vector@KV?$allocator@K@std@@@std@@QAE@XZ PROC	; std::vector<unsigned long,std::allocator<unsigned long> >::vector<unsigned long,std::allocator<unsigned long> >, COMDAT
; _this$ = ecx

; 507  : 		{	// construct empty vector

  00000	8b c1		 mov	 eax, ecx
  00002	33 c9		 xor	 ecx, ecx
  00004	89 08		 mov	 DWORD PTR [eax], ecx
  00006	89 48 04	 mov	 DWORD PTR [eax+4], ecx
  00009	89 48 08	 mov	 DWORD PTR [eax+8], ecx

; 508  : 		}

  0000c	c3		 ret	 0
??0?$vector@KV?$allocator@K@std@@@std@@QAE@XZ ENDP	; std::vector<unsigned long,std::allocator<unsigned long> >::vector<unsigned long,std::allocator<unsigned long> >
_TEXT	ENDS
PUBLIC	?_Destroy@?$vector@KV?$allocator@K@std@@@std@@IAEXPAK0@Z ; std::vector<unsigned long,std::allocator<unsigned long> >::_Destroy
; Function compile flags: /Ogsp
;	COMDAT ?_Destroy@?$vector@KV?$allocator@K@std@@@std@@IAEXPAK0@Z
_TEXT	SEGMENT
__First$ = 8						; size = 4
__Last$ = 12						; size = 4
?_Destroy@?$vector@KV?$allocator@K@std@@@std@@IAEXPAK0@Z PROC ; std::vector<unsigned long,std::allocator<unsigned long> >::_Destroy, COMDAT
; _this$ = ecx

; 1270 : 		_Destroy_range(_First, _Last, this->_Alval);
; 1271 : 		}

  00000	c2 08 00	 ret	 8
?_Destroy@?$vector@KV?$allocator@K@std@@@std@@IAEXPAK0@Z ENDP ; std::vector<unsigned long,std::allocator<unsigned long> >::_Destroy
_TEXT	ENDS
PUBLIC	_pChar$GSCopy$
PUBLIC	_pStage$GSCopy$
PUBLIC	__$ArrayPad$
PUBLIC	?OnProcessState@ioConsecution2Skill@@UAEXPAVioBaseChar@@PAVioPlayStage@@@Z ; ioConsecution2Skill::OnProcessState
EXTRN	?SetWorldPosition@ioMapEffect@@QAEXABUD3DXVECTOR3@@@Z:PROC ; ioMapEffect::SetWorldPosition
EXTRN	?IsAttackKey@ioBaseChar@@QBE_NXZ:PROC		; ioBaseChar::IsAttackKey
;	COMDAT xdata$x
; File c:\program files (x86)\microsoft directx sdk (june 2010)\include\d3dx9math.inl
xdata$x	SEGMENT
__unwindtable$?OnProcessState@ioConsecution2Skill@@UAEXPAVioBaseChar@@PAVioPlayStage@@@Z DD 0ffffffffH
	DD	FLAT:__unwindfunclet$?OnProcessState@ioConsecution2Skill@@UAEXPAVioBaseChar@@PAVioPlayStage@@@Z$0
__ehfuncinfo$?OnProcessState@ioConsecution2Skill@@UAEXPAVioBaseChar@@PAVioPlayStage@@@Z DD 019930522H
	DD	01H
	DD	FLAT:__unwindtable$?OnProcessState@ioConsecution2Skill@@UAEXPAVioBaseChar@@PAVioPlayStage@@@Z
	DD	2 DUP(00H)
	DD	2 DUP(00H)
	DD	00H
	DD	01H
; Function compile flags: /Ogsp
; File d:\lost saga for developer\youtube\tutorial\source\src\lsclient\ioconsecution2skill.cpp
xdata$x	ENDS
;	COMDAT ?OnProcessState@ioConsecution2Skill@@UAEXPAVioBaseChar@@PAVioPlayStage@@@Z
_TEXT	SEGMENT
_pChar$GSCopy$ = -32856					; size = 4
_pStage$GSCopy$ = -32852				; size = 4
tv474 = -32848						; size = 4
_value$537451 = -32848					; size = 4
_dwPreDelay$532014 = -32848				; size = 4
_kPacket$532019 = -32844				; size = 32792
_vDir$532023 = -52					; size = 12
$T532025 = -40						; size = 12
_vPos$532022 = -28					; size = 12
__$ArrayPad$ = -16					; size = 4
__$EHRec$ = -12						; size = 12
_pChar$ = 8						; size = 4
_pStage$ = 12						; size = 4
?OnProcessState@ioConsecution2Skill@@UAEXPAVioBaseChar@@PAVioPlayStage@@@Z PROC ; ioConsecution2Skill::OnProcessState, COMDAT
; _this$ = ecx

; 280  : {

  00000	55		 push	 ebp
  00001	8b ec		 mov	 ebp, esp
  00003	6a ff		 push	 -1
  00005	68 00 00 00 00	 push	 __ehhandler$?OnProcessState@ioConsecution2Skill@@UAEXPAVioBaseChar@@PAVioPlayStage@@@Z
  0000a	64 a1 00 00 00
	00		 mov	 eax, DWORD PTR fs:0
  00010	50		 push	 eax
  00011	b8 4c 80 00 00	 mov	 eax, 32844		; 0000804cH
  00016	e8 00 00 00 00	 call	 __chkstk
  0001b	a1 00 00 00 00	 mov	 eax, DWORD PTR ___security_cookie
  00020	33 c5		 xor	 eax, ebp
  00022	89 45 f0	 mov	 DWORD PTR __$ArrayPad$[ebp], eax
  00025	53		 push	 ebx
  00026	56		 push	 esi
  00027	57		 push	 edi
  00028	50		 push	 eax
  00029	8d 45 f4	 lea	 eax, DWORD PTR __$EHRec$[ebp]
  0002c	64 a3 00 00 00
	00		 mov	 DWORD PTR fs:0, eax
  00032	8b 45 0c	 mov	 eax, DWORD PTR _pStage$[ebp]
  00035	8b 75 08	 mov	 esi, DWORD PTR _pChar$[ebp]
  00038	8b d9		 mov	 ebx, ecx

; 324  : 	{
; 325  : 		D3DXVECTOR3 vPos = pChar->GetWorldPosition();

  0003a	89 85 ac 7f ff
	ff		 mov	 DWORD PTR _pStage$GSCopy$[ebp], eax
  00040	8b 83 e4 10 00
	00		 mov	 eax, DWORD PTR [ebx+4324]
  00046	33 ff		 xor	 edi, edi
  00048	2b c7		 sub	 eax, edi
  0004a	89 b5 a8 7f ff
	ff		 mov	 DWORD PTR _pChar$GSCopy$[ebp], esi
  00050	0f 84 bb 00 00
	00		 je	 $LN8@OnProcessS

; 281  : 	switch( m_SkillState )

  00056	48		 dec	 eax
  00057	74 1a		 je	 SHORT $LN6@OnProcessS
  00059	48		 dec	 eax
  0005a	0f 85 01 01 00
	00		 jne	 $LN7@OnProcessS

; 315  : 	case SS_ACTION:
; 316  : 		{
; 317  : 			CheckMoveAniState( pChar );

  00060	56		 push	 esi
  00061	e8 00 00 00 00	 call	 ?CheckMoveAniState@ioConsecution2Skill@@IAEXPAVioBaseChar@@@Z ; ioConsecution2Skill::CheckMoveAniState

; 318  : 			ProcessAttack( pChar );

  00066	56		 push	 esi
  00067	8b cb		 mov	 ecx, ebx
  00069	e8 00 00 00 00	 call	 ?ProcessAttack@ioConsecution2Skill@@IAEXPAVioBaseChar@@@Z ; ioConsecution2Skill::ProcessAttack

; 319  : 		}
; 320  : 		break;

  0006e	e9 ee 00 00 00	 jmp	 $LN7@OnProcessS
$LN6@OnProcessS:

; 294  : 			}
; 295  : 		}
; 296  : 		break;
; 297  : 	case SS_LOOP:
; 298  : 		{
; 299  : 			if( pChar->IsNeedProcess() && pChar->IsAttackKey() )

  00073	8b 06		 mov	 eax, DWORD PTR [esi]
  00075	8b ce		 mov	 ecx, esi
  00077	ff 90 00 01 00
	00		 call	 DWORD PTR [eax+256]
  0007d	84 c0		 test	 al, al
  0007f	0f 84 82 00 00
	00		 je	 $LN4@OnProcessS
  00085	8b ce		 mov	 ecx, esi
  00087	e8 00 00 00 00	 call	 ?IsAttackKey@ioBaseChar@@QBE_NXZ ; ioBaseChar::IsAttackKey
  0008c	84 c0		 test	 al, al
  0008e	74 77		 je	 SHORT $LN4@OnProcessS

; 300  : 			{
; 301  : 				AttackSkillFire( pChar );

  00090	8b 03		 mov	 eax, DWORD PTR [ebx]
  00092	56		 push	 esi
  00093	8b cb		 mov	 ecx, ebx
  00095	ff 90 8c 01 00
	00		 call	 DWORD PTR [eax+396]

; 302  : 
; 303  : 				if( pChar->IsNeedSendNetwork() )

  0009b	8b 06		 mov	 eax, DWORD PTR [esi]
  0009d	8b ce		 mov	 ecx, esi
  0009f	ff 90 04 01 00
	00		 call	 DWORD PTR [eax+260]
  000a5	84 c0		 test	 al, al
  000a7	74 5e		 je	 SHORT $LN4@OnProcessS

; 304  : 				{
; 305  : 					SP2Packet kPacket( CUPK_SKILL_EXTRA_INFO );

  000a9	68 39 41 00 00	 push	 16697			; 00004139H
  000ae	8d 8d b4 7f ff
	ff		 lea	 ecx, DWORD PTR _kPacket$532019[ebp]
  000b4	e8 00 00 00 00	 call	 ??0SP2Packet@@QAE@K@Z	; SP2Packet::SP2Packet

; 306  : 					kPacket << pChar->GetCharName();

  000b9	8d 86 d4 02 00
	00		 lea	 eax, DWORD PTR [esi+724]
  000bf	50		 push	 eax
  000c0	8d 8d b4 7f ff
	ff		 lea	 ecx, DWORD PTR _kPacket$532019[ebp]
  000c6	89 7d fc	 mov	 DWORD PTR __$EHRec$[ebp+8], edi
  000c9	e8 00 00 00 00	 call	 ??6SP2Packet@@QAEAAV0@ABVioHashString@@@Z ; SP2Packet::operator<<

; 307  : 					kPacket << GetName();

  000ce	8d 43 24	 lea	 eax, DWORD PTR [ebx+36]
  000d1	50		 push	 eax
  000d2	8d 8d b4 7f ff
	ff		 lea	 ecx, DWORD PTR _kPacket$532019[ebp]
  000d8	e8 00 00 00 00	 call	 ??6SP2Packet@@QAEAAV0@ABVioHashString@@@Z ; SP2Packet::operator<<

; 308  : 					kPacket << SSC_START_FIRE;

  000dd	57		 push	 edi
  000de	8d 8d b4 7f ff
	ff		 lea	 ecx, DWORD PTR _kPacket$532019[ebp]
  000e4	e8 00 00 00 00	 call	 ??6SP2Packet@@QAEAAV0@H@Z ; SP2Packet::operator<<

; 309  : 					P2PNetwork::SendToAllPlayingUser( kPacket );

  000e9	8d 85 b4 7f ff
	ff		 lea	 eax, DWORD PTR _kPacket$532019[ebp]
  000ef	57		 push	 edi
  000f0	50		 push	 eax
  000f1	e8 00 00 00 00	 call	 ?SendToAllPlayingUser@P2PNetwork@@YAXAAVSP2Packet@@PAVioBaseChar@@@Z ; P2PNetwork::SendToAllPlayingUser

; 310  : 				}

  000f6	83 4d fc ff	 or	 DWORD PTR __$EHRec$[ebp+8], -1
  000fa	59		 pop	 ecx
  000fb	59		 pop	 ecx
  000fc	8d 8d b4 7f ff
	ff		 lea	 ecx, DWORD PTR _kPacket$532019[ebp]
  00102	e8 00 00 00 00	 call	 ??1SP2Packet@@UAE@XZ	; SP2Packet::~SP2Packet
$LN4@OnProcessS:

; 311  : 			}
; 312  : 			CheckMoveAniState( pChar );

  00107	56		 push	 esi
  00108	8b cb		 mov	 ecx, ebx
  0010a	e8 00 00 00 00	 call	 ?CheckMoveAniState@ioConsecution2Skill@@IAEXPAVioBaseChar@@@Z ; ioConsecution2Skill::CheckMoveAniState

; 313  : 		}
; 314  : 		break;

  0010f	eb 50		 jmp	 SHORT $LN7@OnProcessS
$LN8@OnProcessS:

; 282  : 	{
; 283  : 	case SS_NONE:
; 284  : 		{
; 285  : 			DWORD dwPreDelay = GetPreDelayTime();

  00111	8b 03		 mov	 eax, DWORD PTR [ebx]
  00113	ff 90 34 01 00
	00		 call	 DWORD PTR [eax+308]
  00119	89 85 b0 7f ff
	ff		 mov	 DWORD PTR _dwPreDelay$532014[ebp], eax

; 286  : 
; 287  : 			if( m_dwPreDelayStartTime + dwPreDelay < FRAMEGETTIME() )

  0011f	ff 15 00 00 00
	00		 call	 DWORD PTR __imp_?GetSingleton@ioFrameTimer@@SAAAV1@XZ
  00125	8b c8		 mov	 ecx, eax
  00127	ff 15 00 00 00
	00		 call	 DWORD PTR __imp_?GetLoopSec@ioFrameTimer@@QBEKXZ
  0012d	8b 8b 20 02 00
	00		 mov	 ecx, DWORD PTR [ebx+544]
  00133	03 8d b0 7f ff
	ff		 add	 ecx, DWORD PTR _dwPreDelay$532014[ebp]
  00139	3b c8		 cmp	 ecx, eax
  0013b	73 24		 jae	 SHORT $LN7@OnProcessS

; 288  : 			{
; 289  : 				m_dwPreDelayStartTime = 0;

  0013d	21 bb 20 02 00
	00		 and	 DWORD PTR [ebx+544], edi

; 290  : 
; 291  : 				pChar->SetSkillMoveEnable( true, false );

  00143	6a 00		 push	 0
  00145	6a 01		 push	 1
  00147	8b ce		 mov	 ecx, esi
  00149	e8 00 00 00 00	 call	 ?SetSkillMoveEnable@ioBaseChar@@QAEX_N0@Z ; ioBaseChar::SetSkillMoveEnable

; 292  : 				EndPreDelayEffect( pChar );

  0014e	8b 03		 mov	 eax, DWORD PTR [ebx]
  00150	56		 push	 esi
  00151	8b cb		 mov	 ecx, ebx
  00153	ff 90 dc 00 00
	00		 call	 DWORD PTR [eax+220]

; 293  : 				SetSkillLoopState( pChar );

  00159	56		 push	 esi
  0015a	8b cb		 mov	 ecx, ebx
  0015c	e8 00 00 00 00	 call	 ?SetSkillLoopState@ioConsecution2Skill@@IAEXPAVioBaseChar@@@Z ; ioConsecution2Skill::SetSkillLoopState
$LN7@OnProcessS:

; 321  : 	}
; 322  : 
; 323  : 	if( m_dwTargetMarkerID != -1 && pChar->IsNeedProcess() )

  00161	83 bb 2c 11 00
	00 ff		 cmp	 DWORD PTR [ebx+4396], -1
  00168	0f 84 65 01 00
	00		 je	 $LN1@OnProcessS
  0016e	8b 06		 mov	 eax, DWORD PTR [esi]
  00170	8b ce		 mov	 ecx, esi
  00172	ff 90 00 01 00
	00		 call	 DWORD PTR [eax+256]
  00178	84 c0		 test	 al, al
  0017a	0f 84 53 01 00
	00		 je	 $LN1@OnProcessS

; 324  : 	{
; 325  : 		D3DXVECTOR3 vPos = pChar->GetWorldPosition();

  00180	8b 06		 mov	 eax, DWORD PTR [esi]
  00182	8b ce		 mov	 ecx, esi
  00184	ff 50 70	 call	 DWORD PTR [eax+112]
  00187	8b f0		 mov	 esi, eax
  00189	8d 7d e4	 lea	 edi, DWORD PTR _vPos$532022[ebp]
  0018c	a5		 movsd
  0018d	a5		 movsd
  0018e	a5		 movsd

; 326  : 		D3DXVECTOR3 vDir = pChar->GetWorldOrientation() * D3DXVECTOR3( 0.0f, 0.0f, -FLOAT1 );

  0018f	b8 01 00 00 00	 mov	 eax, 1
  00194	0f 57 c0	 xorps	 xmm0, xmm0
  00197	89 85 b0 7f ff
	ff		 mov	 DWORD PTR tv474[ebp], eax
  0019d	db 85 b0 7f ff
	ff		 fild	 DWORD PTR tv474[ebp]
  001a3	f3 0f 11 45 d8	 movss	 DWORD PTR $T532025[ebp], xmm0
  001a8	f3 0f 11 45 dc	 movss	 DWORD PTR $T532025[ebp+4], xmm0
  001ad	85 c0		 test	 eax, eax
  001af	79 06		 jns	 SHORT $LN33@OnProcessS
  001b1	d8 05 00 00 00
	00		 fadd	 DWORD PTR __real@4f800000
$LN33@OnProcessS:
  001b7	8b 8d a8 7f ff
	ff		 mov	 ecx, DWORD PTR _pChar$GSCopy$[ebp]
  001bd	d9 e0		 fchs
  001bf	8d 45 d8	 lea	 eax, DWORD PTR $T532025[ebp]
  001c2	d9 5d e0	 fstp	 DWORD PTR $T532025[ebp+8]
  001c5	50		 push	 eax
  001c6	8b 01		 mov	 eax, DWORD PTR [ecx]
  001c8	ff 50 74	 call	 DWORD PTR [eax+116]
  001cb	50		 push	 eax
  001cc	8d 45 cc	 lea	 eax, DWORD PTR _vDir$532023[ebp]
  001cf	50		 push	 eax
  001d0	ff 15 00 00 00
	00		 call	 DWORD PTR __imp_??D@YA?AUD3DXVECTOR3@@ABUD3DXQUATERNION@@ABU0@@Z
  001d6	83 c4 0c	 add	 esp, 12			; 0000000cH

; 327  : 		vPos += ( vDir * m_fMarkerOffset );

  001d9	8d 85 b0 7f ff
	ff		 lea	 eax, DWORD PTR _value$537451[ebp]
  001df	50		 push	 eax
  001e0	8d 8b fc 10 00
	00		 lea	 ecx, DWORD PTR [ebx+4348]
  001e6	e8 00 00 00 00	 call	 ?DecryptValueToPool@?$CEncrypt@M@@QAEXPAM@Z ; CEncrypt<float>::DecryptValueToPool
  001eb	f3 0f 10 8d b0
	7f ff ff	 movss	 xmm1, DWORD PTR _value$537451[ebp]
  001f3	f3 0f 10 45 cc	 movss	 xmm0, DWORD PTR _vDir$532023[ebp]
  001f8	f3 0f 10 95 b0
	7f ff ff	 movss	 xmm2, DWORD PTR _value$537451[ebp]
  00200	f3 0f 10 9d b0
	7f ff ff	 movss	 xmm3, DWORD PTR _value$537451[ebp]
  00208	0f 5a c9	 cvtps2pd xmm1, xmm1
  0020b	0f 5a c0	 cvtps2pd xmm0, xmm0
  0020e	f2 0f 59 c1	 mulsd	 xmm0, xmm1
  00212	f3 0f 10 4d d0	 movss	 xmm1, DWORD PTR _vDir$532023[ebp+4]
  00217	0f 5a c9	 cvtps2pd xmm1, xmm1
  0021a	0f 5a d2	 cvtps2pd xmm2, xmm2
  0021d	f2 0f 59 ca	 mulsd	 xmm1, xmm2
  00221	f3 0f 10 55 d4	 movss	 xmm2, DWORD PTR _vDir$532023[ebp+8]
  00226	0f 5a d2	 cvtps2pd xmm2, xmm2
  00229	0f 5a db	 cvtps2pd xmm3, xmm3
  0022c	f2 0f 59 d3	 mulsd	 xmm2, xmm3
  00230	f3 0f 10 5d e4	 movss	 xmm3, DWORD PTR _vPos$532022[ebp]
  00235	66 0f 5a c9	 cvtpd2ps xmm1, xmm1
  00239	66 0f 5a c0	 cvtpd2ps xmm0, xmm0
  0023d	0f 5a db	 cvtps2pd xmm3, xmm3
  00240	f3 0f 5a c9	 cvtss2sd xmm1, xmm1
  00244	f3 0f 5a c0	 cvtss2sd xmm0, xmm0
  00248	f2 0f 58 c3	 addsd	 xmm0, xmm3
  0024c	f3 0f 10 5d e8	 movss	 xmm3, DWORD PTR _vPos$532022[ebp+4]
  00251	0f 5a db	 cvtps2pd xmm3, xmm3
  00254	f2 0f 58 cb	 addsd	 xmm1, xmm3
  00258	66 0f 5a c9	 cvtpd2ps xmm1, xmm1
  0025c	f3 0f 11 4d e8	 movss	 DWORD PTR _vPos$532022[ebp+4], xmm1
  00261	66 0f 5a d2	 cvtpd2ps xmm2, xmm2
  00265	0f 57 c9	 xorps	 xmm1, xmm1
  00268	f3 0f 5a ca	 cvtss2sd xmm1, xmm2
  0026c	f3 0f 10 55 ec	 movss	 xmm2, DWORD PTR _vPos$532022[ebp+8]

; 328  : 		vPos.y = pStage->GetMapHeight( vPos.x, vPos.z, NULL, false );

  00271	33 f6		 xor	 esi, esi
  00273	56		 push	 esi
  00274	51		 push	 ecx
  00275	0f 5a d2	 cvtps2pd xmm2, xmm2
  00278	f2 0f 58 ca	 addsd	 xmm1, xmm2
  0027c	0f 57 d2	 xorps	 xmm2, xmm2
  0027f	f3 0f 11 14 24	 movss	 DWORD PTR [esp], xmm2
  00284	56		 push	 esi
  00285	56		 push	 esi
  00286	51		 push	 ecx
  00287	51		 push	 ecx
  00288	8b 8d ac 7f ff
	ff		 mov	 ecx, DWORD PTR _pStage$GSCopy$[ebp]
  0028e	66 0f 5a c9	 cvtpd2ps xmm1, xmm1
  00292	66 0f 5a c0	 cvtpd2ps xmm0, xmm0
  00296	f3 0f 11 4c 24
	04		 movss	 DWORD PTR [esp+4], xmm1
  0029c	f3 0f 11 45 e4	 movss	 DWORD PTR _vPos$532022[ebp], xmm0
  002a1	f3 0f 11 4d ec	 movss	 DWORD PTR _vPos$532022[ebp+8], xmm1
  002a6	f3 0f 11 04 24	 movss	 DWORD PTR [esp], xmm0
  002ab	e8 00 00 00 00	 call	 ?GetMapHeight@ioPlayStage@@QAEMMMPBVioGameEntity@@_NM1@Z ; ioPlayStage::GetMapHeight
  002b0	d9 5d e8	 fstp	 DWORD PTR _vPos$532022[ebp+4]

; 329  : 
; 330  : 		ioMapEffect *pMapEffect = pStage->FindMapEffect( m_dwTargetMarkerID );

  002b3	ff b3 2c 11 00
	00		 push	 DWORD PTR [ebx+4396]
  002b9	8b 8d ac 7f ff
	ff		 mov	 ecx, DWORD PTR _pStage$GSCopy$[ebp]
  002bf	e8 00 00 00 00	 call	 ?FindMapEffect@ioPlayStage@@QAEPAVioMapEffect@@K@Z ; ioPlayStage::FindMapEffect

; 331  : 		if( pMapEffect )

  002c4	3b c6		 cmp	 eax, esi
  002c6	74 0b		 je	 SHORT $LN1@OnProcessS

; 332  : 			pMapEffect->SetWorldPosition( vPos );

  002c8	8d 4d e4	 lea	 ecx, DWORD PTR _vPos$532022[ebp]
  002cb	51		 push	 ecx
  002cc	8b c8		 mov	 ecx, eax
  002ce	e8 00 00 00 00	 call	 ?SetWorldPosition@ioMapEffect@@QAEXABUD3DXVECTOR3@@@Z ; ioMapEffect::SetWorldPosition
$LN1@OnProcessS:

; 333  : 	}
; 334  : }

  002d3	8b 4d f4	 mov	 ecx, DWORD PTR __$EHRec$[ebp]
  002d6	64 89 0d 00 00
	00 00		 mov	 DWORD PTR fs:0, ecx
  002dd	59		 pop	 ecx
  002de	5f		 pop	 edi
  002df	5e		 pop	 esi
  002e0	5b		 pop	 ebx
  002e1	8b 4d f0	 mov	 ecx, DWORD PTR __$ArrayPad$[ebp]
  002e4	33 cd		 xor	 ecx, ebp
  002e6	e8 00 00 00 00	 call	 @__security_check_cookie@4
  002eb	c9		 leave
  002ec	c2 08 00	 ret	 8
_TEXT	ENDS
;	COMDAT text$x
text$x	SEGMENT
__unwindfunclet$?OnProcessState@ioConsecution2Skill@@UAEXPAVioBaseChar@@PAVioPlayStage@@@Z$0:
  00000	8d 8d b4 7f ff
	ff		 lea	 ecx, DWORD PTR _kPacket$532019[ebp]
  00006	e9 00 00 00 00	 jmp	 ??1SP2Packet@@UAE@XZ	; SP2Packet::~SP2Packet
__ehhandler$?OnProcessState@ioConsecution2Skill@@UAEXPAVioBaseChar@@PAVioPlayStage@@@Z:
  0000b	8b 54 24 08	 mov	 edx, DWORD PTR [esp+8]
  0000f	8d 42 0c	 lea	 eax, DWORD PTR [edx+12]
  00012	8b 8a a4 7f ff
	ff		 mov	 ecx, DWORD PTR [edx-32860]
  00018	33 c8		 xor	 ecx, eax
  0001a	e8 00 00 00 00	 call	 @__security_check_cookie@4
  0001f	8b 4a fc	 mov	 ecx, DWORD PTR [edx-4]
  00022	33 c8		 xor	 ecx, eax
  00024	e8 00 00 00 00	 call	 @__security_check_cookie@4
  00029	b8 00 00 00 00	 mov	 eax, OFFSET __ehfuncinfo$?OnProcessState@ioConsecution2Skill@@UAEXPAVioBaseChar@@PAVioPlayStage@@@Z
  0002e	e9 00 00 00 00	 jmp	 ___CxxFrameHandler3
text$x	ENDS
?OnProcessState@ioConsecution2Skill@@UAEXPAVioBaseChar@@PAVioPlayStage@@@Z ENDP ; ioConsecution2Skill::OnProcessState
PUBLIC	??$_Cons_val@V?$allocator@UWeaponFireInfo@@@std@@UWeaponFireInfo@@AAU3@@std@@YAXAAV?$allocator@UWeaponFireInfo@@@0@PAUWeaponFireInfo@@AAU2@@Z ; std::_Cons_val<std::allocator<WeaponFireInfo>,WeaponFireInfo,WeaponFireInfo &>
;	COMDAT xdata$x
; File c:\program files (x86)\microsoft visual studio 10.0\vc\include\utility
xdata$x	SEGMENT
__unwindtable$??$_Cons_val@V?$allocator@UWeaponFireInfo@@@std@@UWeaponFireInfo@@AAU3@@std@@YAXAAV?$allocator@UWeaponFireInfo@@@0@PAUWeaponFireInfo@@AAU2@@Z DD 0ffffffffH
	DD	FLAT:__unwindfunclet$??$_Cons_val@V?$allocator@UWeaponFireInfo@@@std@@UWeaponFireInfo@@AAU3@@std@@YAXAAV?$allocator@UWeaponFireInfo@@@0@PAUWeaponFireInfo@@AAU2@@Z$0
__ehfuncinfo$??$_Cons_val@V?$allocator@UWeaponFireInfo@@@std@@UWeaponFireInfo@@AAU3@@std@@YAXAAV?$allocator@UWeaponFireInfo@@@0@PAUWeaponFireInfo@@AAU2@@Z DD 019930522H
	DD	01H
	DD	FLAT:__unwindtable$??$_Cons_val@V?$allocator@UWeaponFireInfo@@@std@@UWeaponFireInfo@@AAU3@@std@@YAXAAV?$allocator@UWeaponFireInfo@@@0@PAUWeaponFireInfo@@AAU2@@Z
	DD	2 DUP(00H)
	DD	2 DUP(00H)
	DD	00H
	DD	01H
; Function compile flags: /Ogsp
; File c:\program files (x86)\microsoft visual studio 10.0\vc\include\xmemory
xdata$x	ENDS
;	COMDAT ??$_Cons_val@V?$allocator@UWeaponFireInfo@@@std@@UWeaponFireInfo@@AAU3@@std@@YAXAAV?$allocator@UWeaponFireInfo@@@0@PAUWeaponFireInfo@@AAU2@@Z
_TEXT	SEGMENT
$T537500 = -16						; size = 4
__$EHRec$ = -12						; size = 12
__Alval$ = 8						; size = 4
__Pdest$ = 12						; size = 4
__Src$ = 16						; size = 4
??$_Cons_val@V?$allocator@UWeaponFireInfo@@@std@@UWeaponFireInfo@@AAU3@@std@@YAXAAV?$allocator@UWeaponFireInfo@@@0@PAUWeaponFireInfo@@AAU2@@Z PROC ; std::_Cons_val<std::allocator<WeaponFireInfo>,WeaponFireInfo,WeaponFireInfo &>, COMDAT

; 279  : 	{	// construct using allocator

  00000	6a 04		 push	 4
  00002	b8 00 00 00 00	 mov	 eax, __ehhandler$??$_Cons_val@V?$allocator@UWeaponFireInfo@@@std@@UWeaponFireInfo@@AAU3@@std@@YAXAAV?$allocator@UWeaponFireInfo@@@0@PAUWeaponFireInfo@@AAU2@@Z
  00007	e8 00 00 00 00	 call	 __EH_prolog3

; 280  : 	_Alval.construct(_Pdest, _STD forward<_Ty2>(_Src));

  0000c	8b 4d 0c	 mov	 ecx, DWORD PTR __Pdest$[ebp]
  0000f	89 4d f0	 mov	 DWORD PTR $T537500[ebp], ecx
  00012	83 65 fc 00	 and	 DWORD PTR __$EHRec$[ebp+8], 0
  00016	85 c9		 test	 ecx, ecx
  00018	74 08		 je	 SHORT $LN7@Cons_val@2
  0001a	ff 75 10	 push	 DWORD PTR __Src$[ebp]
  0001d	e8 00 00 00 00	 call	 ??0WeaponFireInfo@@QAE@ABU0@@Z
$LN7@Cons_val@2:

; 281  : 	}

  00022	e8 00 00 00 00	 call	 __EH_epilog3
  00027	c3		 ret	 0
_TEXT	ENDS
;	COMDAT text$x
text$x	SEGMENT
__unwindfunclet$??$_Cons_val@V?$allocator@UWeaponFireInfo@@@std@@UWeaponFireInfo@@AAU3@@std@@YAXAAV?$allocator@UWeaponFireInfo@@@0@PAUWeaponFireInfo@@AAU2@@Z$0:
  00000	ff 75 0c	 push	 DWORD PTR __Pdest$[ebp]
  00003	ff 75 f0	 push	 DWORD PTR $T537500[ebp]
  00006	e8 00 00 00 00	 call	 ??3@YAXPAX0@Z		; operator delete
  0000b	59		 pop	 ecx
  0000c	59		 pop	 ecx
  0000d	c3		 ret	 0
__ehhandler$??$_Cons_val@V?$allocator@UWeaponFireInfo@@@std@@UWeaponFireInfo@@AAU3@@std@@YAXAAV?$allocator@UWeaponFireInfo@@@0@PAUWeaponFireInfo@@AAU2@@Z:
  0000e	8b 54 24 08	 mov	 edx, DWORD PTR [esp+8]
  00012	8d 42 0c	 lea	 eax, DWORD PTR [edx+12]
  00015	8b 4a ec	 mov	 ecx, DWORD PTR [edx-20]
  00018	33 c8		 xor	 ecx, eax
  0001a	e8 00 00 00 00	 call	 @__security_check_cookie@4
  0001f	b8 00 00 00 00	 mov	 eax, OFFSET __ehfuncinfo$??$_Cons_val@V?$allocator@UWeaponFireInfo@@@std@@UWeaponFireInfo@@AAU3@@std@@YAXAAV?$allocator@UWeaponFireInfo@@@0@PAUWeaponFireInfo@@AAU2@@Z
  00024	e9 00 00 00 00	 jmp	 ___CxxFrameHandler3
text$x	ENDS
??$_Cons_val@V?$allocator@UWeaponFireInfo@@@std@@UWeaponFireInfo@@AAU3@@std@@YAXAAV?$allocator@UWeaponFireInfo@@@0@PAUWeaponFireInfo@@AAU2@@Z ENDP ; std::_Cons_val<std::allocator<WeaponFireInfo>,WeaponFireInfo,WeaponFireInfo &>
PUBLIC	??$_Move@PAUWeaponFireInfo@@PAU1@@std@@YAPAUWeaponFireInfo@@PAU1@00@Z ; std::_Move<WeaponFireInfo *,WeaponFireInfo *>
; Function compile flags: /Ogsp
; File c:\program files (x86)\microsoft visual studio 10.0\vc\include\xutility
;	COMDAT ??$_Move@PAUWeaponFireInfo@@PAU1@@std@@YAPAUWeaponFireInfo@@PAU1@00@Z
_TEXT	SEGMENT
__Cat$537518 = -4					; size = 1
__First$ = 8						; size = 4
__Last$ = 12						; size = 4
__Dest$ = 16						; size = 4
??$_Move@PAUWeaponFireInfo@@PAU1@@std@@YAPAUWeaponFireInfo@@PAU1@00@Z PROC ; std::_Move<WeaponFireInfo *,WeaponFireInfo *>, COMDAT

; 2533 : 	{	// move [_First, _Last) to [_Dest, ...), unchecked

  00000	55		 push	 ebp
  00001	8b ec		 mov	 ebp, esp
  00003	51		 push	 ecx

; 2534 : 	return (_Move(_First, _Last,
; 2535 : 		_Dest, _Ptr_cat(_First, _Dest)));

  00004	ff 75 fc	 push	 DWORD PTR __Cat$537518[ebp]
  00007	ff 75 10	 push	 DWORD PTR __Dest$[ebp]
  0000a	ff 75 0c	 push	 DWORD PTR __Last$[ebp]
  0000d	ff 75 08	 push	 DWORD PTR __First$[ebp]
  00010	e8 00 00 00 00	 call	 ??$_Move@PAUWeaponFireInfo@@PAU1@@std@@YAPAUWeaponFireInfo@@PAU1@00U_Nonscalar_ptr_iterator_tag@0@@Z ; std::_Move<WeaponFireInfo *,WeaponFireInfo *>
  00015	83 c4 10	 add	 esp, 16			; 00000010H

; 2536 : 	}

  00018	c9		 leave
  00019	c3		 ret	 0
??$_Move@PAUWeaponFireInfo@@PAU1@@std@@YAPAUWeaponFireInfo@@PAU1@00@Z ENDP ; std::_Move<WeaponFireInfo *,WeaponFireInfo *>
_TEXT	ENDS
PUBLIC	?construct@?$allocator@UWeaponFireInfo@@@std@@QAEXPAUWeaponFireInfo@@ABU3@@Z ; std::allocator<WeaponFireInfo>::construct
; Function compile flags: /Ogsp
; File c:\program files (x86)\microsoft visual studio 10.0\vc\include\xmemory
;	COMDAT ?construct@?$allocator@UWeaponFireInfo@@@std@@QAEXPAUWeaponFireInfo@@ABU3@@Z
_TEXT	SEGMENT
__Ptr$ = 8						; size = 4
__Val$ = 12						; size = 4
?construct@?$allocator@UWeaponFireInfo@@@std@@QAEXPAUWeaponFireInfo@@ABU3@@Z PROC ; std::allocator<WeaponFireInfo>::construct, COMDAT
; _this$ = ecx

; 196  : 		{	// construct object at _Ptr with value _Val

  00000	55		 push	 ebp
  00001	8b ec		 mov	 ebp, esp

; 197  : 		_Construct(_Ptr, _Val);

  00003	ff 75 0c	 push	 DWORD PTR __Val$[ebp]
  00006	ff 75 08	 push	 DWORD PTR __Ptr$[ebp]
  00009	e8 00 00 00 00	 call	 ??$_Construct@UWeaponFireInfo@@ABU1@@std@@YAXPAUWeaponFireInfo@@ABU1@@Z ; std::_Construct<WeaponFireInfo,WeaponFireInfo const &>
  0000e	59		 pop	 ecx
  0000f	59		 pop	 ecx

; 198  : 		}

  00010	5d		 pop	 ebp
  00011	c2 08 00	 ret	 8
?construct@?$allocator@UWeaponFireInfo@@@std@@QAEXPAUWeaponFireInfo@@ABU3@@Z ENDP ; std::allocator<WeaponFireInfo>::construct
_TEXT	ENDS
PUBLIC	?destroy@?$allocator@UWeaponFireInfo@@@std@@QAEXPAUWeaponFireInfo@@@Z ; std::allocator<WeaponFireInfo>::destroy
; Function compile flags: /Ogsp
;	COMDAT ?destroy@?$allocator@UWeaponFireInfo@@@std@@QAEXPAUWeaponFireInfo@@@Z
_TEXT	SEGMENT
__Ptr$ = 8						; size = 4
?destroy@?$allocator@UWeaponFireInfo@@@std@@QAEXPAUWeaponFireInfo@@@Z PROC ; std::allocator<WeaponFireInfo>::destroy, COMDAT
; _this$ = ecx

; 212  : 		{	// destroy object at _Ptr

  00000	55		 push	 ebp
  00001	8b ec		 mov	 ebp, esp

; 213  : 		_Destroy(_Ptr);

  00003	8b 4d 08	 mov	 ecx, DWORD PTR __Ptr$[ebp]
  00006	83 c1 10	 add	 ecx, 16			; 00000010H
  00009	ff 15 00 00 00
	00		 call	 DWORD PTR __imp_??1ioHashString@@QAE@XZ

; 214  : 		}

  0000f	5d		 pop	 ebp
  00010	c2 04 00	 ret	 4
?destroy@?$allocator@UWeaponFireInfo@@@std@@QAEXPAUWeaponFireInfo@@@Z ENDP ; std::allocator<WeaponFireInfo>::destroy
_TEXT	ENDS
PUBLIC	?_Tidy@?$vector@KV?$allocator@K@std@@@std@@IAEXXZ ; std::vector<unsigned long,std::allocator<unsigned long> >::_Tidy
EXTRN	__imp_?_Orphan_all@_Container_base0@std@@QAEXXZ:PROC
; Function compile flags: /Ogsp
; File c:\program files (x86)\microsoft visual studio 10.0\vc\include\vector
;	COMDAT ?_Tidy@?$vector@KV?$allocator@K@std@@@std@@IAEXXZ
_TEXT	SEGMENT
?_Tidy@?$vector@KV?$allocator@K@std@@@std@@IAEXXZ PROC	; std::vector<unsigned long,std::allocator<unsigned long> >::_Tidy, COMDAT
; _this$ = ecx

; 1301 : 		{	// free all storage

  00000	56		 push	 esi
  00001	8b f1		 mov	 esi, ecx

; 1302 : 		if (this->_Myfirst != 0)

  00003	83 3e 00	 cmp	 DWORD PTR [esi], 0
  00006	74 0e		 je	 SHORT $LN12@Tidy

; 1303 : 			{	// something to free, destroy and deallocate it
; 1304 : 			this->_Orphan_all();

  00008	ff 15 00 00 00
	00		 call	 DWORD PTR __imp_?_Orphan_all@_Container_base0@std@@QAEXXZ

; 1305 : 			_Destroy(this->_Myfirst, this->_Mylast);
; 1306 : 			this->_Alval.deallocate(this->_Myfirst,
; 1307 : 				this->_Myend - this->_Myfirst);

  0000e	ff 36		 push	 DWORD PTR [esi]
  00010	e8 00 00 00 00	 call	 ??3@YAXPAX@Z		; operator delete
  00015	59		 pop	 ecx
$LN12@Tidy:

; 1308 : 			}
; 1309 : 		this->_Myfirst = 0;

  00016	83 26 00	 and	 DWORD PTR [esi], 0

; 1310 : 		this->_Mylast = 0;

  00019	83 66 04 00	 and	 DWORD PTR [esi+4], 0

; 1311 : 		this->_Myend = 0;

  0001d	83 66 08 00	 and	 DWORD PTR [esi+8], 0
  00021	5e		 pop	 esi

; 1312 : 		}

  00022	c3		 ret	 0
?_Tidy@?$vector@KV?$allocator@K@std@@@std@@IAEXXZ ENDP	; std::vector<unsigned long,std::allocator<unsigned long> >::_Tidy
_TEXT	ENDS
PUBLIC	??$_Cons_val@V?$allocator@UWeaponFireInfo@@@std@@UWeaponFireInfo@@ABU3@@std@@YAXAAV?$allocator@UWeaponFireInfo@@@0@PAUWeaponFireInfo@@ABU2@@Z ; std::_Cons_val<std::allocator<WeaponFireInfo>,WeaponFireInfo,WeaponFireInfo const &>
; Function compile flags: /Ogsp
; File c:\program files (x86)\microsoft visual studio 10.0\vc\include\xmemory
;	COMDAT ??$_Cons_val@V?$allocator@UWeaponFireInfo@@@std@@UWeaponFireInfo@@ABU3@@std@@YAXAAV?$allocator@UWeaponFireInfo@@@0@PAUWeaponFireInfo@@ABU2@@Z
_TEXT	SEGMENT
__Alval$ = 8						; size = 4
__Pdest$ = 12						; size = 4
__Src$ = 16						; size = 4
??$_Cons_val@V?$allocator@UWeaponFireInfo@@@std@@UWeaponFireInfo@@ABU3@@std@@YAXAAV?$allocator@UWeaponFireInfo@@@0@PAUWeaponFireInfo@@ABU2@@Z PROC ; std::_Cons_val<std::allocator<WeaponFireInfo>,WeaponFireInfo,WeaponFireInfo const &>, COMDAT

; 279  : 	{	// construct using allocator

  00000	55		 push	 ebp
  00001	8b ec		 mov	 ebp, esp

; 280  : 	_Alval.construct(_Pdest, _STD forward<_Ty2>(_Src));

  00003	ff 75 10	 push	 DWORD PTR __Src$[ebp]
  00006	ff 75 0c	 push	 DWORD PTR __Pdest$[ebp]
  00009	e8 00 00 00 00	 call	 ??$_Construct@UWeaponFireInfo@@ABU1@@std@@YAXPAUWeaponFireInfo@@ABU1@@Z ; std::_Construct<WeaponFireInfo,WeaponFireInfo const &>
  0000e	59		 pop	 ecx
  0000f	59		 pop	 ecx

; 281  : 	}

  00010	5d		 pop	 ebp
  00011	c3		 ret	 0
??$_Cons_val@V?$allocator@UWeaponFireInfo@@@std@@UWeaponFireInfo@@ABU3@@std@@YAXAAV?$allocator@UWeaponFireInfo@@@0@PAUWeaponFireInfo@@ABU2@@Z ENDP ; std::_Cons_val<std::allocator<WeaponFireInfo>,WeaponFireInfo,WeaponFireInfo const &>
_TEXT	ENDS
PUBLIC	??$_Dest_val@V?$allocator@UWeaponFireInfo@@@std@@UWeaponFireInfo@@@std@@YAXAAV?$allocator@UWeaponFireInfo@@@0@PAUWeaponFireInfo@@@Z ; std::_Dest_val<std::allocator<WeaponFireInfo>,WeaponFireInfo>
; Function compile flags: /Ogsp
;	COMDAT ??$_Dest_val@V?$allocator@UWeaponFireInfo@@@std@@UWeaponFireInfo@@@std@@YAXAAV?$allocator@UWeaponFireInfo@@@0@PAUWeaponFireInfo@@@Z
_TEXT	SEGMENT
__Alval$ = 8						; size = 4
__Pdest$ = 12						; size = 4
??$_Dest_val@V?$allocator@UWeaponFireInfo@@@std@@UWeaponFireInfo@@@std@@YAXAAV?$allocator@UWeaponFireInfo@@@0@PAUWeaponFireInfo@@@Z PROC ; std::_Dest_val<std::allocator<WeaponFireInfo>,WeaponFireInfo>, COMDAT

; 286  : 	{	// destroy using allocator

  00000	55		 push	 ebp
  00001	8b ec		 mov	 ebp, esp

; 287  : 	_Alval.destroy(_Pdest);

  00003	8b 4d 0c	 mov	 ecx, DWORD PTR __Pdest$[ebp]
  00006	83 c1 10	 add	 ecx, 16			; 00000010H

; 288  : 	}

  00009	5d		 pop	 ebp

; 287  : 	_Alval.destroy(_Pdest);

  0000a	ff 25 00 00 00
	00		 jmp	 DWORD PTR __imp_??1ioHashString@@QAE@XZ
??$_Dest_val@V?$allocator@UWeaponFireInfo@@@std@@UWeaponFireInfo@@@std@@YAXAAV?$allocator@UWeaponFireInfo@@@0@PAUWeaponFireInfo@@@Z ENDP ; std::_Dest_val<std::allocator<WeaponFireInfo>,WeaponFireInfo>
_TEXT	ENDS
PUBLIC	??1?$vector@KV?$allocator@K@std@@@std@@QAE@XZ	; std::vector<unsigned long,std::allocator<unsigned long> >::~vector<unsigned long,std::allocator<unsigned long> >
; Function compile flags: /Ogsp
; File c:\program files (x86)\microsoft visual studio 10.0\vc\include\vector
;	COMDAT ??1?$vector@KV?$allocator@K@std@@@std@@QAE@XZ
_TEXT	SEGMENT
??1?$vector@KV?$allocator@K@std@@@std@@QAE@XZ PROC	; std::vector<unsigned long,std::allocator<unsigned long> >::~vector<unsigned long,std::allocator<unsigned long> >, COMDAT
; _this$ = ecx

; 705  : 		_Tidy();

  00000	e9 00 00 00 00	 jmp	 ?_Tidy@?$vector@KV?$allocator@K@std@@@std@@IAEXXZ ; std::vector<unsigned long,std::allocator<unsigned long> >::_Tidy
??1?$vector@KV?$allocator@K@std@@@std@@QAE@XZ ENDP	; std::vector<unsigned long,std::allocator<unsigned long> >::~vector<unsigned long,std::allocator<unsigned long> >
_TEXT	ENDS
PUBLIC	??$_Destroy_range@V?$allocator@UWeaponFireInfo@@@std@@@std@@YAXPAUWeaponFireInfo@@0AAV?$allocator@UWeaponFireInfo@@@0@U_Nonscalar_ptr_iterator_tag@0@@Z ; std::_Destroy_range<std::allocator<WeaponFireInfo> >
; Function compile flags: /Ogsp
; File c:\program files (x86)\microsoft visual studio 10.0\vc\include\xmemory
;	COMDAT ??$_Destroy_range@V?$allocator@UWeaponFireInfo@@@std@@@std@@YAXPAUWeaponFireInfo@@0AAV?$allocator@UWeaponFireInfo@@@0@U_Nonscalar_ptr_iterator_tag@0@@Z
_TEXT	SEGMENT
__First$ = 8						; size = 4
__Last$ = 12						; size = 4
__Al$ = 16						; size = 4
___formal$ = 20						; size = 1
??$_Destroy_range@V?$allocator@UWeaponFireInfo@@@std@@@std@@YAXPAUWeaponFireInfo@@0AAV?$allocator@UWeaponFireInfo@@@0@U_Nonscalar_ptr_iterator_tag@0@@Z PROC ; std::_Destroy_range<std::allocator<WeaponFireInfo> >, COMDAT

; 95   : 	{	// destroy [_First, _Last), arbitrary type

  00000	55		 push	 ebp
  00001	8b ec		 mov	 ebp, esp
  00003	56		 push	 esi

; 96   : 	for (; _First != _Last; ++_First)

  00004	8b 75 08	 mov	 esi, DWORD PTR __First$[ebp]
  00007	eb 0c		 jmp	 SHORT $LN23@Destroy_ra
$LL3@Destroy_ra:

; 97   : 		_Dest_val(_Al, _First);

  00009	8d 4e 10	 lea	 ecx, DWORD PTR [esi+16]
  0000c	ff 15 00 00 00
	00		 call	 DWORD PTR __imp_??1ioHashString@@QAE@XZ
  00012	83 c6 30	 add	 esi, 48			; 00000030H
$LN23@Destroy_ra:

; 96   : 	for (; _First != _Last; ++_First)

  00015	3b 75 0c	 cmp	 esi, DWORD PTR __Last$[ebp]
  00018	75 ef		 jne	 SHORT $LL3@Destroy_ra
  0001a	5e		 pop	 esi

; 98   : 	}

  0001b	5d		 pop	 ebp
  0001c	c3		 ret	 0
??$_Destroy_range@V?$allocator@UWeaponFireInfo@@@std@@@std@@YAXPAUWeaponFireInfo@@0AAV?$allocator@UWeaponFireInfo@@@0@U_Nonscalar_ptr_iterator_tag@0@@Z ENDP ; std::_Destroy_range<std::allocator<WeaponFireInfo> >
_TEXT	ENDS
PUBLIC	??$_Uninit_copy@V?$_Vector_const_iterator@V?$_Vector_val@UWeaponFireInfo@@V?$allocator@UWeaponFireInfo@@@std@@@std@@@std@@PAUWeaponFireInfo@@V?$allocator@UWeaponFireInfo@@@2@@std@@YAPAUWeaponFireInfo@@V?$_Vector_const_iterator@V?$_Vector_val@UWeaponFireInfo@@V?$allocator@UWeaponFireInfo@@@std@@@std@@@0@0PAU1@AAV?$allocator@UWeaponFireInfo@@@0@U_Nonscalar_ptr_iterator_tag@0@@Z ; std::_Uninit_copy<std::_Vector_const_iterator<std::_Vector_val<WeaponFireInfo,std::allocator<WeaponFireInfo> > >,WeaponFireInfo *,std::allocator<WeaponFireInfo> >
EXTRN	__EH_prolog3_catch:PROC
;	COMDAT xdata$x
; File d:\lost saga for developer\youtube\tutorial\source\src\lsclient\playentityhelpstruct.h
xdata$x	SEGMENT
__catchsym$??$_Uninit_copy@V?$_Vector_const_iterator@V?$_Vector_val@UWeaponFireInfo@@V?$allocator@UWeaponFireInfo@@@std@@@std@@@std@@PAUWeaponFireInfo@@V?$allocator@UWeaponFireInfo@@@2@@std@@YAPAUWeaponFireInfo@@V?$_Vector_const_iterator@V?$_Vector_val@UWeaponFireInfo@@V?$allocator@UWeaponFireInfo@@@std@@@std@@@0@0PAU1@AAV?$allocator@UWeaponFireInfo@@@0@U_Nonscalar_ptr_iterator_tag@0@@Z$4 DD 040H
	DD	00H
	DD	00H
	DD	FLAT:__catch$??$_Uninit_copy@V?$_Vector_const_iterator@V?$_Vector_val@UWeaponFireInfo@@V?$allocator@UWeaponFireInfo@@@std@@@std@@@std@@PAUWeaponFireInfo@@V?$allocator@UWeaponFireInfo@@@2@@std@@YAPAUWeaponFireInfo@@V?$_Vector_const_iterator@V?$_Vector_val@UWeaponFireInfo@@V?$allocator@UWeaponFireInfo@@@std@@@std@@@0@0PAU1@AAV?$allocator@UWeaponFireInfo@@@0@U_Nonscalar_ptr_iterator_tag@0@@Z$0
__unwindtable$??$_Uninit_copy@V?$_Vector_const_iterator@V?$_Vector_val@UWeaponFireInfo@@V?$allocator@UWeaponFireInfo@@@std@@@std@@@std@@PAUWeaponFireInfo@@V?$allocator@UWeaponFireInfo@@@2@@std@@YAPAUWeaponFireInfo@@V?$_Vector_const_iterator@V?$_Vector_val@UWeaponFireInfo@@V?$allocator@UWeaponFireInfo@@@std@@@std@@@0@0PAU1@AAV?$allocator@UWeaponFireInfo@@@0@U_Nonscalar_ptr_iterator_tag@0@@Z DD 0ffffffffH
	DD	00H
	DD	0ffffffffH
	DD	00H
__tryblocktable$??$_Uninit_copy@V?$_Vector_const_iterator@V?$_Vector_val@UWeaponFireInfo@@V?$allocator@UWeaponFireInfo@@@std@@@std@@@std@@PAUWeaponFireInfo@@V?$allocator@UWeaponFireInfo@@@2@@std@@YAPAUWeaponFireInfo@@V?$_Vector_const_iterator@V?$_Vector_val@UWeaponFireInfo@@V?$allocator@UWeaponFireInfo@@@std@@@std@@@0@0PAU1@AAV?$allocator@UWeaponFireInfo@@@0@U_Nonscalar_ptr_iterator_tag@0@@Z DD 00H
	DD	00H
	DD	01H
	DD	01H
	DD	FLAT:__catchsym$??$_Uninit_copy@V?$_Vector_const_iterator@V?$_Vector_val@UWeaponFireInfo@@V?$allocator@UWeaponFireInfo@@@std@@@std@@@std@@PAUWeaponFireInfo@@V?$allocator@UWeaponFireInfo@@@2@@std@@YAPAUWeaponFireInfo@@V?$_Vector_const_iterator@V?$_Vector_val@UWeaponFireInfo@@V?$allocator@UWeaponFireInfo@@@std@@@std@@@0@0PAU1@AAV?$allocator@UWeaponFireInfo@@@0@U_Nonscalar_ptr_iterator_tag@0@@Z$4
__ehfuncinfo$??$_Uninit_copy@V?$_Vector_const_iterator@V?$_Vector_val@UWeaponFireInfo@@V?$allocator@UWeaponFireInfo@@@std@@@std@@@std@@PAUWeaponFireInfo@@V?$allocator@UWeaponFireInfo@@@2@@std@@YAPAUWeaponFireInfo@@V?$_Vector_const_iterator@V?$_Vector_val@UWeaponFireInfo@@V?$allocator@UWeaponFireInfo@@@std@@@std@@@0@0PAU1@AAV?$allocator@UWeaponFireInfo@@@0@U_Nonscalar_ptr_iterator_tag@0@@Z DD 019930522H
	DD	02H
	DD	FLAT:__unwindtable$??$_Uninit_copy@V?$_Vector_const_iterator@V?$_Vector_val@UWeaponFireInfo@@V?$allocator@UWeaponFireInfo@@@std@@@std@@@std@@PAUWeaponFireInfo@@V?$allocator@UWeaponFireInfo@@@2@@std@@YAPAUWeaponFireInfo@@V?$_Vector_const_iterator@V?$_Vector_val@UWeaponFireInfo@@V?$allocator@UWeaponFireInfo@@@std@@@std@@@0@0PAU1@AAV?$allocator@UWeaponFireInfo@@@0@U_Nonscalar_ptr_iterator_tag@0@@Z
	DD	01H
	DD	FLAT:__tryblocktable$??$_Uninit_copy@V?$_Vector_const_iterator@V?$_Vector_val@UWeaponFireInfo@@V?$allocator@UWeaponFireInfo@@@std@@@std@@@std@@PAUWeaponFireInfo@@V?$allocator@UWeaponFireInfo@@@2@@std@@YAPAUWeaponFireInfo@@V?$_Vector_const_iterator@V?$_Vector_val@UWeaponFireInfo@@V?$allocator@UWeaponFireInfo@@@std@@@std@@@0@0PAU1@AAV?$allocator@UWeaponFireInfo@@@0@U_Nonscalar_ptr_iterator_tag@0@@Z
	DD	2 DUP(00H)
	DD	00H
	DD	01H
; Function compile flags: /Ogsp
; File c:\program files (x86)\microsoft visual studio 10.0\vc\include\memory
xdata$x	ENDS
;	COMDAT ??$_Uninit_copy@V?$_Vector_const_iterator@V?$_Vector_val@UWeaponFireInfo@@V?$allocator@UWeaponFireInfo@@@std@@@std@@@std@@PAUWeaponFireInfo@@V?$allocator@UWeaponFireInfo@@@2@@std@@YAPAUWeaponFireInfo@@V?$_Vector_const_iterator@V?$_Vector_val@UWeaponFireInfo@@V?$allocator@UWeaponFireInfo@@@std@@@std@@@0@0PAU1@AAV?$allocator@UWeaponFireInfo@@@0@U_Nonscalar_ptr_iterator_tag@0@@Z
_TEXT	SEGMENT
__Next$ = -20						; size = 4
__$EHRec$ = -16						; size = 16
__First$ = 8						; size = 4
__Last$ = 12						; size = 4
__Dest$ = 16						; size = 4
__Al$ = 20						; size = 4
___formal$ = 24						; size = 1
??$_Uninit_copy@V?$_Vector_const_iterator@V?$_Vector_val@UWeaponFireInfo@@V?$allocator@UWeaponFireInfo@@@std@@@std@@@std@@PAUWeaponFireInfo@@V?$allocator@UWeaponFireInfo@@@2@@std@@YAPAUWeaponFireInfo@@V?$_Vector_const_iterator@V?$_Vector_val@UWeaponFireInfo@@V?$allocator@UWeaponFireInfo@@@std@@@std@@@0@0PAU1@AAV?$allocator@UWeaponFireInfo@@@0@U_Nonscalar_ptr_iterator_tag@0@@Z PROC ; std::_Uninit_copy<std::_Vector_const_iterator<std::_Vector_val<WeaponFireInfo,std::allocator<WeaponFireInfo> > >,WeaponFireInfo *,std::allocator<WeaponFireInfo> >, COMDAT

; 369  : 	{	// copy [_First, _Last) to raw _Dest, using _Al, arbitrary type

  00000	6a 08		 push	 8
  00002	b8 00 00 00 00	 mov	 eax, __ehhandler$??$_Uninit_copy@V?$_Vector_const_iterator@V?$_Vector_val@UWeaponFireInfo@@V?$allocator@UWeaponFireInfo@@@std@@@std@@@std@@PAUWeaponFireInfo@@V?$allocator@UWeaponFireInfo@@@2@@std@@YAPAUWeaponFireInfo@@V?$_Vector_const_iterator@V?$_Vector_val@UWeaponFireInfo@@V?$allocator@UWeaponFireInfo@@@std@@@std@@@0@0PAU1@AAV?$allocator@UWeaponFireInfo@@@0@U_Nonscalar_ptr_iterator_tag@0@@Z
  00007	e8 00 00 00 00	 call	 __EH_prolog3_catch

; 370  : 	_DEBUG_RANGE(_First, _Last);
; 371  : 	_DEBUG_POINTER(_Dest);
; 372  : 	_FwdIt _Next = _Dest;

  0000c	8b 45 10	 mov	 eax, DWORD PTR __Dest$[ebp]

; 373  : 
; 374  : 	_TRY_BEGIN

  0000f	83 65 fc 00	 and	 DWORD PTR __$EHRec$[ebp+12], 0
  00013	89 45 ec	 mov	 DWORD PTR __Next$[ebp], eax

; 375  : 	for (; _First != _Last; ++_Dest, ++_First)

$LL14@Uninit_cop:
  00016	8b 45 08	 mov	 eax, DWORD PTR __First$[ebp]
  00019	3b 45 0c	 cmp	 eax, DWORD PTR __Last$[ebp]
  0001c	74 34		 je	 SHORT $LN4@Uninit_cop

; 376  : 		_Cons_val(_Al, _Dest, *_First);

  0001e	50		 push	 eax
  0001f	ff 75 10	 push	 DWORD PTR __Dest$[ebp]
  00022	e8 00 00 00 00	 call	 ??$_Construct@UWeaponFireInfo@@ABU1@@std@@YAXPAUWeaponFireInfo@@ABU1@@Z ; std::_Construct<WeaponFireInfo,WeaponFireInfo const &>
  00027	83 45 10 30	 add	 DWORD PTR __Dest$[ebp], 48 ; 00000030H
  0002b	83 45 08 30	 add	 DWORD PTR __First$[ebp], 48 ; 00000030H
  0002f	59		 pop	 ecx
  00030	59		 pop	 ecx
  00031	eb e3		 jmp	 SHORT $LL14@Uninit_cop
__catch$??$_Uninit_copy@V?$_Vector_const_iterator@V?$_Vector_val@UWeaponFireInfo@@V?$allocator@UWeaponFireInfo@@@std@@@std@@@std@@PAUWeaponFireInfo@@V?$allocator@UWeaponFireInfo@@@2@@std@@YAPAUWeaponFireInfo@@V?$_Vector_const_iterator@V?$_Vector_val@UWeaponFireInfo@@V?$allocator@UWeaponFireInfo@@@std@@@std@@@0@0PAU1@AAV?$allocator@UWeaponFireInfo@@@0@U_Nonscalar_ptr_iterator_tag@0@@Z$0:

; 377  : 	_CATCH_ALL
; 378  : 	for (; _Next != _Dest; ++_Next)

  00033	8b 75 ec	 mov	 esi, DWORD PTR __Next$[ebp]
  00036	eb 0c		 jmp	 SHORT $LN51@Uninit_cop
$LL3@Uninit_cop:

; 379  : 		_Dest_val(_Al, _Next);

  00038	8d 4e 10	 lea	 ecx, DWORD PTR [esi+16]
  0003b	ff 15 00 00 00
	00		 call	 DWORD PTR __imp_??1ioHashString@@QAE@XZ
  00041	83 c6 30	 add	 esi, 48			; 00000030H
$LN51@Uninit_cop:

; 377  : 	_CATCH_ALL
; 378  : 	for (; _Next != _Dest; ++_Next)

  00044	3b 75 10	 cmp	 esi, DWORD PTR __Dest$[ebp]
  00047	75 ef		 jne	 SHORT $LL3@Uninit_cop

; 380  : 	_RERAISE;

  00049	6a 00		 push	 0
  0004b	6a 00		 push	 0
  0004d	e8 00 00 00 00	 call	 __CxxThrowException@8
$LN52@Uninit_cop:
$LN4@Uninit_cop:

; 381  : 	_CATCH_END
; 382  : 	return (_Dest);

  00052	8b 45 10	 mov	 eax, DWORD PTR __Dest$[ebp]

; 383  : 	}

  00055	e8 00 00 00 00	 call	 __EH_epilog3
  0005a	c3		 ret	 0
$LN50@Uninit_cop:
_TEXT	ENDS
;	COMDAT text$x
text$x	SEGMENT
__ehhandler$??$_Uninit_copy@V?$_Vector_const_iterator@V?$_Vector_val@UWeaponFireInfo@@V?$allocator@UWeaponFireInfo@@@std@@@std@@@std@@PAUWeaponFireInfo@@V?$allocator@UWeaponFireInfo@@@2@@std@@YAPAUWeaponFireInfo@@V?$_Vector_const_iterator@V?$_Vector_val@UWeaponFireInfo@@V?$allocator@UWeaponFireInfo@@@std@@@std@@@0@0PAU1@AAV?$allocator@UWeaponFireInfo@@@0@U_Nonscalar_ptr_iterator_tag@0@@Z:
  00000	8b 54 24 08	 mov	 edx, DWORD PTR [esp+8]
  00004	8d 42 0c	 lea	 eax, DWORD PTR [edx+12]
  00007	8b 4a e8	 mov	 ecx, DWORD PTR [edx-24]
  0000a	33 c8		 xor	 ecx, eax
  0000c	e8 00 00 00 00	 call	 @__security_check_cookie@4
  00011	b8 00 00 00 00	 mov	 eax, OFFSET __ehfuncinfo$??$_Uninit_copy@V?$_Vector_const_iterator@V?$_Vector_val@UWeaponFireInfo@@V?$allocator@UWeaponFireInfo@@@std@@@std@@@std@@PAUWeaponFireInfo@@V?$allocator@UWeaponFireInfo@@@2@@std@@YAPAUWeaponFireInfo@@V?$_Vector_const_iterator@V?$_Vector_val@UWeaponFireInfo@@V?$allocator@UWeaponFireInfo@@@std@@@std@@@0@0PAU1@AAV?$allocator@UWeaponFireInfo@@@0@U_Nonscalar_ptr_iterator_tag@0@@Z
  00016	e9 00 00 00 00	 jmp	 ___CxxFrameHandler3
text$x	ENDS
??$_Uninit_copy@V?$_Vector_const_iterator@V?$_Vector_val@UWeaponFireInfo@@V?$allocator@UWeaponFireInfo@@@std@@@std@@@std@@PAUWeaponFireInfo@@V?$allocator@UWeaponFireInfo@@@2@@std@@YAPAUWeaponFireInfo@@V?$_Vector_const_iterator@V?$_Vector_val@UWeaponFireInfo@@V?$allocator@UWeaponFireInfo@@@std@@@std@@@0@0PAU1@AAV?$allocator@UWeaponFireInfo@@@0@U_Nonscalar_ptr_iterator_tag@0@@Z ENDP ; std::_Uninit_copy<std::_Vector_const_iterator<std::_Vector_val<WeaponFireInfo,std::allocator<WeaponFireInfo> > >,WeaponFireInfo *,std::allocator<WeaponFireInfo> >
PUBLIC	??$_Uninit_move@PAUWeaponFireInfo@@PAU1@V?$allocator@UWeaponFireInfo@@@std@@U1@@std@@YAPAUWeaponFireInfo@@PAU1@00AAV?$allocator@UWeaponFireInfo@@@0@0U_Nonscalar_ptr_iterator_tag@0@@Z ; std::_Uninit_move<WeaponFireInfo *,WeaponFireInfo *,std::allocator<WeaponFireInfo>,WeaponFireInfo>
;	COMDAT xdata$x
; File d:\lost saga for developer\youtube\tutorial\source\src\lsclient\playentityhelpstruct.h
xdata$x	SEGMENT
__catchsym$??$_Uninit_move@PAUWeaponFireInfo@@PAU1@V?$allocator@UWeaponFireInfo@@@std@@U1@@std@@YAPAUWeaponFireInfo@@PAU1@00AAV?$allocator@UWeaponFireInfo@@@0@0U_Nonscalar_ptr_iterator_tag@0@@Z$4 DD 040H
	DD	00H
	DD	00H
	DD	FLAT:__catch$??$_Uninit_move@PAUWeaponFireInfo@@PAU1@V?$allocator@UWeaponFireInfo@@@std@@U1@@std@@YAPAUWeaponFireInfo@@PAU1@00AAV?$allocator@UWeaponFireInfo@@@0@0U_Nonscalar_ptr_iterator_tag@0@@Z$0
__unwindtable$??$_Uninit_move@PAUWeaponFireInfo@@PAU1@V?$allocator@UWeaponFireInfo@@@std@@U1@@std@@YAPAUWeaponFireInfo@@PAU1@00AAV?$allocator@UWeaponFireInfo@@@0@0U_Nonscalar_ptr_iterator_tag@0@@Z DD 0ffffffffH
	DD	00H
	DD	0ffffffffH
	DD	00H
__tryblocktable$??$_Uninit_move@PAUWeaponFireInfo@@PAU1@V?$allocator@UWeaponFireInfo@@@std@@U1@@std@@YAPAUWeaponFireInfo@@PAU1@00AAV?$allocator@UWeaponFireInfo@@@0@0U_Nonscalar_ptr_iterator_tag@0@@Z DD 00H
	DD	00H
	DD	01H
	DD	01H
	DD	FLAT:__catchsym$??$_Uninit_move@PAUWeaponFireInfo@@PAU1@V?$allocator@UWeaponFireInfo@@@std@@U1@@std@@YAPAUWeaponFireInfo@@PAU1@00AAV?$allocator@UWeaponFireInfo@@@0@0U_Nonscalar_ptr_iterator_tag@0@@Z$4
__ehfuncinfo$??$_Uninit_move@PAUWeaponFireInfo@@PAU1@V?$allocator@UWeaponFireInfo@@@std@@U1@@std@@YAPAUWeaponFireInfo@@PAU1@00AAV?$allocator@UWeaponFireInfo@@@0@0U_Nonscalar_ptr_iterator_tag@0@@Z DD 019930522H
	DD	02H
	DD	FLAT:__unwindtable$??$_Uninit_move@PAUWeaponFireInfo@@PAU1@V?$allocator@UWeaponFireInfo@@@std@@U1@@std@@YAPAUWeaponFireInfo@@PAU1@00AAV?$allocator@UWeaponFireInfo@@@0@0U_Nonscalar_ptr_iterator_tag@0@@Z
	DD	01H
	DD	FLAT:__tryblocktable$??$_Uninit_move@PAUWeaponFireInfo@@PAU1@V?$allocator@UWeaponFireInfo@@@std@@U1@@std@@YAPAUWeaponFireInfo@@PAU1@00AAV?$allocator@UWeaponFireInfo@@@0@0U_Nonscalar_ptr_iterator_tag@0@@Z
	DD	2 DUP(00H)
	DD	00H
	DD	01H
; Function compile flags: /Ogsp
; File c:\program files (x86)\microsoft visual studio 10.0\vc\include\memory
xdata$x	ENDS
;	COMDAT ??$_Uninit_move@PAUWeaponFireInfo@@PAU1@V?$allocator@UWeaponFireInfo@@@std@@U1@@std@@YAPAUWeaponFireInfo@@PAU1@00AAV?$allocator@UWeaponFireInfo@@@0@0U_Nonscalar_ptr_iterator_tag@0@@Z
_TEXT	SEGMENT
__Next$ = -20						; size = 4
__$EHRec$ = -16						; size = 16
__First$ = 8						; size = 4
__Last$ = 12						; size = 4
__Dest$ = 16						; size = 4
__Al$ = 20						; size = 4
___formal$ = 24						; size = 4
___formal$ = 28						; size = 1
??$_Uninit_move@PAUWeaponFireInfo@@PAU1@V?$allocator@UWeaponFireInfo@@@std@@U1@@std@@YAPAUWeaponFireInfo@@PAU1@00AAV?$allocator@UWeaponFireInfo@@@0@0U_Nonscalar_ptr_iterator_tag@0@@Z PROC ; std::_Uninit_move<WeaponFireInfo *,WeaponFireInfo *,std::allocator<WeaponFireInfo>,WeaponFireInfo>, COMDAT

; 424  : 	{	// move [_First, _Last) to raw _Dest, using _Al, arbitrary type

  00000	6a 08		 push	 8
  00002	b8 00 00 00 00	 mov	 eax, __ehhandler$??$_Uninit_move@PAUWeaponFireInfo@@PAU1@V?$allocator@UWeaponFireInfo@@@std@@U1@@std@@YAPAUWeaponFireInfo@@PAU1@00AAV?$allocator@UWeaponFireInfo@@@0@0U_Nonscalar_ptr_iterator_tag@0@@Z
  00007	e8 00 00 00 00	 call	 __EH_prolog3_catch

; 425  : 	_DEBUG_RANGE(_First, _Last);
; 426  : 	_DEBUG_POINTER(_Dest);
; 427  : 	_FwdIt _Next = _Dest;

  0000c	8b 45 10	 mov	 eax, DWORD PTR __Dest$[ebp]

; 428  : 
; 429  : 	_TRY_BEGIN

  0000f	83 65 fc 00	 and	 DWORD PTR __$EHRec$[ebp+12], 0
  00013	8b 75 08	 mov	 esi, DWORD PTR __First$[ebp]
  00016	89 45 ec	 mov	 DWORD PTR __Next$[ebp], eax
$LL6@Uninit_mov:

; 430  : 	for (; _First != _Last; ++_Dest, ++_First)

  00019	3b 75 0c	 cmp	 esi, DWORD PTR __Last$[ebp]
  0001c	74 37		 je	 SHORT $LN4@Uninit_mov

; 431  : 		_Cons_val(_Al, _Dest, (_Valty &&)*_First);

  0001e	56		 push	 esi
  0001f	ff 75 10	 push	 DWORD PTR __Dest$[ebp]
  00022	ff 75 14	 push	 DWORD PTR __Al$[ebp]
  00025	e8 00 00 00 00	 call	 ??$_Cons_val@V?$allocator@UWeaponFireInfo@@@std@@UWeaponFireInfo@@U3@@std@@YAXAAV?$allocator@UWeaponFireInfo@@@0@PAUWeaponFireInfo@@$$QAU2@@Z ; std::_Cons_val<std::allocator<WeaponFireInfo>,WeaponFireInfo,WeaponFireInfo>
  0002a	83 45 10 30	 add	 DWORD PTR __Dest$[ebp], 48 ; 00000030H
  0002e	83 c4 0c	 add	 esp, 12			; 0000000cH
  00031	83 c6 30	 add	 esi, 48			; 00000030H
  00034	eb e3		 jmp	 SHORT $LL6@Uninit_mov
__catch$??$_Uninit_move@PAUWeaponFireInfo@@PAU1@V?$allocator@UWeaponFireInfo@@@std@@U1@@std@@YAPAUWeaponFireInfo@@PAU1@00AAV?$allocator@UWeaponFireInfo@@@0@0U_Nonscalar_ptr_iterator_tag@0@@Z$0:

; 432  : 	_CATCH_ALL
; 433  : 	for (; _Next != _Dest; ++_Next)

  00036	8b 75 ec	 mov	 esi, DWORD PTR __Next$[ebp]
  00039	eb 0c		 jmp	 SHORT $LN35@Uninit_mov
$LL3@Uninit_mov:

; 434  : 		_Dest_val(_Al, _Next);

  0003b	8d 4e 10	 lea	 ecx, DWORD PTR [esi+16]
  0003e	ff 15 00 00 00
	00		 call	 DWORD PTR __imp_??1ioHashString@@QAE@XZ
  00044	83 c6 30	 add	 esi, 48			; 00000030H
$LN35@Uninit_mov:

; 432  : 	_CATCH_ALL
; 433  : 	for (; _Next != _Dest; ++_Next)

  00047	3b 75 10	 cmp	 esi, DWORD PTR __Dest$[ebp]
  0004a	75 ef		 jne	 SHORT $LL3@Uninit_mov

; 435  : 	_RERAISE;

  0004c	6a 00		 push	 0
  0004e	6a 00		 push	 0
  00050	e8 00 00 00 00	 call	 __CxxThrowException@8
$LN36@Uninit_mov:
$LN4@Uninit_mov:

; 436  : 	_CATCH_END
; 437  : 	return (_Dest);

  00055	8b 45 10	 mov	 eax, DWORD PTR __Dest$[ebp]

; 438  : 	}

  00058	e8 00 00 00 00	 call	 __EH_epilog3
  0005d	c3		 ret	 0
$LN34@Uninit_mov:
_TEXT	ENDS
;	COMDAT text$x
text$x	SEGMENT
__ehhandler$??$_Uninit_move@PAUWeaponFireInfo@@PAU1@V?$allocator@UWeaponFireInfo@@@std@@U1@@std@@YAPAUWeaponFireInfo@@PAU1@00AAV?$allocator@UWeaponFireInfo@@@0@0U_Nonscalar_ptr_iterator_tag@0@@Z:
  00000	8b 54 24 08	 mov	 edx, DWORD PTR [esp+8]
  00004	8d 42 0c	 lea	 eax, DWORD PTR [edx+12]
  00007	8b 4a e8	 mov	 ecx, DWORD PTR [edx-24]
  0000a	33 c8		 xor	 ecx, eax
  0000c	e8 00 00 00 00	 call	 @__security_check_cookie@4
  00011	b8 00 00 00 00	 mov	 eax, OFFSET __ehfuncinfo$??$_Uninit_move@PAUWeaponFireInfo@@PAU1@V?$allocator@UWeaponFireInfo@@@std@@U1@@std@@YAPAUWeaponFireInfo@@PAU1@00AAV?$allocator@UWeaponFireInfo@@@0@0U_Nonscalar_ptr_iterator_tag@0@@Z
  00016	e9 00 00 00 00	 jmp	 ___CxxFrameHandler3
text$x	ENDS
??$_Uninit_move@PAUWeaponFireInfo@@PAU1@V?$allocator@UWeaponFireInfo@@@std@@U1@@std@@YAPAUWeaponFireInfo@@PAU1@00AAV?$allocator@UWeaponFireInfo@@@0@0U_Nonscalar_ptr_iterator_tag@0@@Z ENDP ; std::_Uninit_move<WeaponFireInfo *,WeaponFireInfo *,std::allocator<WeaponFireInfo>,WeaponFireInfo>
PUBLIC	??$_Destroy_range@V?$allocator@UWeaponFireInfo@@@std@@@std@@YAXPAUWeaponFireInfo@@0AAV?$allocator@UWeaponFireInfo@@@0@@Z ; std::_Destroy_range<std::allocator<WeaponFireInfo> >
; Function compile flags: /Ogsp
; File c:\program files (x86)\microsoft visual studio 10.0\vc\include\xmemory
;	COMDAT ??$_Destroy_range@V?$allocator@UWeaponFireInfo@@@std@@@std@@YAXPAUWeaponFireInfo@@0AAV?$allocator@UWeaponFireInfo@@@0@@Z
_TEXT	SEGMENT
__First$ = 8						; size = 4
__Last$ = 12						; size = 4
__Al$ = 16						; size = 4
??$_Destroy_range@V?$allocator@UWeaponFireInfo@@@std@@@std@@YAXPAUWeaponFireInfo@@0AAV?$allocator@UWeaponFireInfo@@@0@@Z PROC ; std::_Destroy_range<std::allocator<WeaponFireInfo> >, COMDAT

; 87   : 	{	// destroy [_First, _Last)

  00000	55		 push	 ebp
  00001	8b ec		 mov	 ebp, esp
  00003	56		 push	 esi

; 88   : 	_Destroy_range(_First, _Last, _Al, _Ptr_cat(_First, _Last));

  00004	8b 75 08	 mov	 esi, DWORD PTR __First$[ebp]
  00007	eb 0c		 jmp	 SHORT $LN27@Destroy_ra@2
$LL7@Destroy_ra@2:
  00009	8d 4e 10	 lea	 ecx, DWORD PTR [esi+16]
  0000c	ff 15 00 00 00
	00		 call	 DWORD PTR __imp_??1ioHashString@@QAE@XZ
  00012	83 c6 30	 add	 esi, 48			; 00000030H
$LN27@Destroy_ra@2:
  00015	3b 75 0c	 cmp	 esi, DWORD PTR __Last$[ebp]
  00018	75 ef		 jne	 SHORT $LL7@Destroy_ra@2
  0001a	5e		 pop	 esi

; 89   : 	}

  0001b	5d		 pop	 ebp
  0001c	c3		 ret	 0
??$_Destroy_range@V?$allocator@UWeaponFireInfo@@@std@@@std@@YAXPAUWeaponFireInfo@@0AAV?$allocator@UWeaponFireInfo@@@0@@Z ENDP ; std::_Destroy_range<std::allocator<WeaponFireInfo> >
_TEXT	ENDS
PUBLIC	??$_Uninitialized_copy@V?$_Vector_const_iterator@V?$_Vector_val@UWeaponFireInfo@@V?$allocator@UWeaponFireInfo@@@std@@@std@@@std@@PAUWeaponFireInfo@@V?$allocator@UWeaponFireInfo@@@2@@std@@YAPAUWeaponFireInfo@@V?$_Vector_const_iterator@V?$_Vector_val@UWeaponFireInfo@@V?$allocator@UWeaponFireInfo@@@std@@@std@@@0@0PAU1@AAV?$allocator@UWeaponFireInfo@@@0@@Z ; std::_Uninitialized_copy<std::_Vector_const_iterator<std::_Vector_val<WeaponFireInfo,std::allocator<WeaponFireInfo> > >,WeaponFireInfo *,std::allocator<WeaponFireInfo> >
; Function compile flags: /Ogsp
; File c:\program files (x86)\microsoft visual studio 10.0\vc\include\memory
;	COMDAT ??$_Uninitialized_copy@V?$_Vector_const_iterator@V?$_Vector_val@UWeaponFireInfo@@V?$allocator@UWeaponFireInfo@@@std@@@std@@@std@@PAUWeaponFireInfo@@V?$allocator@UWeaponFireInfo@@@2@@std@@YAPAUWeaponFireInfo@@V?$_Vector_const_iterator@V?$_Vector_val@UWeaponFireInfo@@V?$allocator@UWeaponFireInfo@@@std@@@std@@@0@0PAU1@AAV?$allocator@UWeaponFireInfo@@@0@@Z
_TEXT	SEGMENT
__Cat$537987 = -4					; size = 1
__First$ = 8						; size = 4
__Last$ = 12						; size = 4
__Dest$ = 16						; size = 4
__Al$ = 20						; size = 4
??$_Uninitialized_copy@V?$_Vector_const_iterator@V?$_Vector_val@UWeaponFireInfo@@V?$allocator@UWeaponFireInfo@@@std@@@std@@@std@@PAUWeaponFireInfo@@V?$allocator@UWeaponFireInfo@@@2@@std@@YAPAUWeaponFireInfo@@V?$_Vector_const_iterator@V?$_Vector_val@UWeaponFireInfo@@V?$allocator@UWeaponFireInfo@@@std@@@std@@@0@0PAU1@AAV?$allocator@UWeaponFireInfo@@@0@@Z PROC ; std::_Uninitialized_copy<std::_Vector_const_iterator<std::_Vector_val<WeaponFireInfo,std::allocator<WeaponFireInfo> > >,WeaponFireInfo *,std::allocator<WeaponFireInfo> >, COMDAT

; 412  : 	{	// copy [_First, _Last) to raw _Dest, using _Al

  00000	55		 push	 ebp
  00001	8b ec		 mov	 ebp, esp
  00003	51		 push	 ecx

; 413  : 	return (_Uninit_copy(_First, _Last, _Dest, _Al,
; 414  : 		_Ptr_cat(_First, _Dest)));

  00004	ff 75 fc	 push	 DWORD PTR __Cat$537987[ebp]
  00007	ff 75 14	 push	 DWORD PTR __Al$[ebp]
  0000a	ff 75 10	 push	 DWORD PTR __Dest$[ebp]
  0000d	ff 75 0c	 push	 DWORD PTR __Last$[ebp]
  00010	ff 75 08	 push	 DWORD PTR __First$[ebp]
  00013	e8 00 00 00 00	 call	 ??$_Uninit_copy@V?$_Vector_const_iterator@V?$_Vector_val@UWeaponFireInfo@@V?$allocator@UWeaponFireInfo@@@std@@@std@@@std@@PAUWeaponFireInfo@@V?$allocator@UWeaponFireInfo@@@2@@std@@YAPAUWeaponFireInfo@@V?$_Vector_const_iterator@V?$_Vector_val@UWeaponFireInfo@@V?$allocator@UWeaponFireInfo@@@std@@@std@@@0@0PAU1@AAV?$allocator@UWeaponFireInfo@@@0@U_Nonscalar_ptr_iterator_tag@0@@Z ; std::_Uninit_copy<std::_Vector_const_iterator<std::_Vector_val<WeaponFireInfo,std::allocator<WeaponFireInfo> > >,WeaponFireInfo *,std::allocator<WeaponFireInfo> >
  00018	83 c4 14	 add	 esp, 20			; 00000014H

; 415  : 	}

  0001b	c9		 leave
  0001c	c3		 ret	 0
??$_Uninitialized_copy@V?$_Vector_const_iterator@V?$_Vector_val@UWeaponFireInfo@@V?$allocator@UWeaponFireInfo@@@std@@@std@@@std@@PAUWeaponFireInfo@@V?$allocator@UWeaponFireInfo@@@2@@std@@YAPAUWeaponFireInfo@@V?$_Vector_const_iterator@V?$_Vector_val@UWeaponFireInfo@@V?$allocator@UWeaponFireInfo@@@std@@@std@@@0@0PAU1@AAV?$allocator@UWeaponFireInfo@@@0@@Z ENDP ; std::_Uninitialized_copy<std::_Vector_const_iterator<std::_Vector_val<WeaponFireInfo,std::allocator<WeaponFireInfo> > >,WeaponFireInfo *,std::allocator<WeaponFireInfo> >
_TEXT	ENDS
PUBLIC	??$_Uninitialized_move@PAUWeaponFireInfo@@PAU1@V?$allocator@UWeaponFireInfo@@@std@@@std@@YAPAUWeaponFireInfo@@PAU1@00AAV?$allocator@UWeaponFireInfo@@@0@@Z ; std::_Uninitialized_move<WeaponFireInfo *,WeaponFireInfo *,std::allocator<WeaponFireInfo> >
; Function compile flags: /Ogsp
;	COMDAT ??$_Uninitialized_move@PAUWeaponFireInfo@@PAU1@V?$allocator@UWeaponFireInfo@@@std@@@std@@YAPAUWeaponFireInfo@@PAU1@00AAV?$allocator@UWeaponFireInfo@@@0@@Z
_TEXT	SEGMENT
__Cat$537993 = -4					; size = 1
__First$ = 8						; size = 4
__Last$ = 12						; size = 4
__Dest$ = 16						; size = 4
__Al$ = 20						; size = 4
??$_Uninitialized_move@PAUWeaponFireInfo@@PAU1@V?$allocator@UWeaponFireInfo@@@std@@@std@@YAPAUWeaponFireInfo@@PAU1@00AAV?$allocator@UWeaponFireInfo@@@0@@Z PROC ; std::_Uninitialized_move<WeaponFireInfo *,WeaponFireInfo *,std::allocator<WeaponFireInfo> >, COMDAT

; 469  : 	{	// move [_First, _Last) to raw _Dest, using _Al

  00000	55		 push	 ebp
  00001	8b ec		 mov	 ebp, esp
  00003	51		 push	 ecx

; 470  : 	return (_Uninit_move(_First, _Last, _Dest, _Al,
; 471  : 		_Val_type(_First), _Ptr_cat(_First, _Dest)));

  00004	ff 75 fc	 push	 DWORD PTR __Cat$537993[ebp]
  00007	6a 00		 push	 0
  00009	ff 75 14	 push	 DWORD PTR __Al$[ebp]
  0000c	ff 75 10	 push	 DWORD PTR __Dest$[ebp]
  0000f	ff 75 0c	 push	 DWORD PTR __Last$[ebp]
  00012	ff 75 08	 push	 DWORD PTR __First$[ebp]
  00015	e8 00 00 00 00	 call	 ??$_Uninit_move@PAUWeaponFireInfo@@PAU1@V?$allocator@UWeaponFireInfo@@@std@@U1@@std@@YAPAUWeaponFireInfo@@PAU1@00AAV?$allocator@UWeaponFireInfo@@@0@0U_Nonscalar_ptr_iterator_tag@0@@Z ; std::_Uninit_move<WeaponFireInfo *,WeaponFireInfo *,std::allocator<WeaponFireInfo>,WeaponFireInfo>
  0001a	83 c4 18	 add	 esp, 24			; 00000018H

; 472  : 	}

  0001d	c9		 leave
  0001e	c3		 ret	 0
??$_Uninitialized_move@PAUWeaponFireInfo@@PAU1@V?$allocator@UWeaponFireInfo@@@std@@@std@@YAPAUWeaponFireInfo@@PAU1@00AAV?$allocator@UWeaponFireInfo@@@0@@Z ENDP ; std::_Uninitialized_move<WeaponFireInfo *,WeaponFireInfo *,std::allocator<WeaponFireInfo> >
_TEXT	ENDS
PUBLIC	?_Destroy@?$vector@UWeaponFireInfo@@V?$allocator@UWeaponFireInfo@@@std@@@std@@IAEXPAUWeaponFireInfo@@0@Z ; std::vector<WeaponFireInfo,std::allocator<WeaponFireInfo> >::_Destroy
; Function compile flags: /Ogsp
; File c:\program files (x86)\microsoft visual studio 10.0\vc\include\vector
;	COMDAT ?_Destroy@?$vector@UWeaponFireInfo@@V?$allocator@UWeaponFireInfo@@@std@@@std@@IAEXPAUWeaponFireInfo@@0@Z
_TEXT	SEGMENT
__First$ = 8						; size = 4
__Last$ = 12						; size = 4
?_Destroy@?$vector@UWeaponFireInfo@@V?$allocator@UWeaponFireInfo@@@std@@@std@@IAEXPAUWeaponFireInfo@@0@Z PROC ; std::vector<WeaponFireInfo,std::allocator<WeaponFireInfo> >::_Destroy, COMDAT
; _this$ = ecx

; 1269 : 		{	// destroy [_First, _Last) using allocator

  00000	55		 push	 ebp
  00001	8b ec		 mov	 ebp, esp

; 1270 : 		_Destroy_range(_First, _Last, this->_Alval);

  00003	83 c1 0c	 add	 ecx, 12			; 0000000cH
  00006	51		 push	 ecx
  00007	ff 75 0c	 push	 DWORD PTR __Last$[ebp]
  0000a	ff 75 08	 push	 DWORD PTR __First$[ebp]
  0000d	e8 00 00 00 00	 call	 ??$_Destroy_range@V?$allocator@UWeaponFireInfo@@@std@@@std@@YAXPAUWeaponFireInfo@@0AAV?$allocator@UWeaponFireInfo@@@0@@Z ; std::_Destroy_range<std::allocator<WeaponFireInfo> >
  00012	83 c4 0c	 add	 esp, 12			; 0000000cH

; 1271 : 		}

  00015	5d		 pop	 ebp
  00016	c2 08 00	 ret	 8
?_Destroy@?$vector@UWeaponFireInfo@@V?$allocator@UWeaponFireInfo@@@std@@@std@@IAEXPAUWeaponFireInfo@@0@Z ENDP ; std::vector<WeaponFireInfo,std::allocator<WeaponFireInfo> >::_Destroy
_TEXT	ENDS
PUBLIC	?_Tidy@?$vector@UWeaponFireInfo@@V?$allocator@UWeaponFireInfo@@@std@@@std@@IAEXXZ ; std::vector<WeaponFireInfo,std::allocator<WeaponFireInfo> >::_Tidy
; Function compile flags: /Ogsp
;	COMDAT ?_Tidy@?$vector@UWeaponFireInfo@@V?$allocator@UWeaponFireInfo@@@std@@@std@@IAEXXZ
_TEXT	SEGMENT
?_Tidy@?$vector@UWeaponFireInfo@@V?$allocator@UWeaponFireInfo@@@std@@@std@@IAEXXZ PROC ; std::vector<WeaponFireInfo,std::allocator<WeaponFireInfo> >::_Tidy, COMDAT
; _this$ = ecx

; 1301 : 		{	// free all storage

  00000	56		 push	 esi
  00001	8b f1		 mov	 esi, ecx

; 1302 : 		if (this->_Myfirst != 0)

  00003	83 3e 00	 cmp	 DWORD PTR [esi], 0
  00006	74 1e		 je	 SHORT $LN6@Tidy@2

; 1303 : 			{	// something to free, destroy and deallocate it
; 1304 : 			this->_Orphan_all();

  00008	ff 15 00 00 00
	00		 call	 DWORD PTR __imp_?_Orphan_all@_Container_base0@std@@QAEXXZ

; 1305 : 			_Destroy(this->_Myfirst, this->_Mylast);

  0000e	8d 46 0c	 lea	 eax, DWORD PTR [esi+12]
  00011	50		 push	 eax
  00012	ff 76 04	 push	 DWORD PTR [esi+4]
  00015	ff 36		 push	 DWORD PTR [esi]
  00017	e8 00 00 00 00	 call	 ??$_Destroy_range@V?$allocator@UWeaponFireInfo@@@std@@@std@@YAXPAUWeaponFireInfo@@0AAV?$allocator@UWeaponFireInfo@@@0@@Z ; std::_Destroy_range<std::allocator<WeaponFireInfo> >

; 1306 : 			this->_Alval.deallocate(this->_Myfirst,
; 1307 : 				this->_Myend - this->_Myfirst);

  0001c	ff 36		 push	 DWORD PTR [esi]
  0001e	e8 00 00 00 00	 call	 ??3@YAXPAX@Z		; operator delete
  00023	83 c4 10	 add	 esp, 16			; 00000010H
$LN6@Tidy@2:

; 1308 : 			}
; 1309 : 		this->_Myfirst = 0;

  00026	83 26 00	 and	 DWORD PTR [esi], 0

; 1310 : 		this->_Mylast = 0;

  00029	83 66 04 00	 and	 DWORD PTR [esi+4], 0

; 1311 : 		this->_Myend = 0;

  0002d	83 66 08 00	 and	 DWORD PTR [esi+8], 0
  00031	5e		 pop	 esi

; 1312 : 		}

  00032	c3		 ret	 0
?_Tidy@?$vector@UWeaponFireInfo@@V?$allocator@UWeaponFireInfo@@@std@@@std@@IAEXXZ ENDP ; std::vector<WeaponFireInfo,std::allocator<WeaponFireInfo> >::_Tidy
_TEXT	ENDS
PUBLIC	??$_Ucopy@V?$_Vector_const_iterator@V?$_Vector_val@UWeaponFireInfo@@V?$allocator@UWeaponFireInfo@@@std@@@std@@@std@@@?$vector@UWeaponFireInfo@@V?$allocator@UWeaponFireInfo@@@std@@@std@@IAEPAUWeaponFireInfo@@V?$_Vector_const_iterator@V?$_Vector_val@UWeaponFireInfo@@V?$allocator@UWeaponFireInfo@@@std@@@std@@@1@0PAU2@@Z ; std::vector<WeaponFireInfo,std::allocator<WeaponFireInfo> >::_Ucopy<std::_Vector_const_iterator<std::_Vector_val<WeaponFireInfo,std::allocator<WeaponFireInfo> > > >
; Function compile flags: /Ogsp
;	COMDAT ??$_Ucopy@V?$_Vector_const_iterator@V?$_Vector_val@UWeaponFireInfo@@V?$allocator@UWeaponFireInfo@@@std@@@std@@@std@@@?$vector@UWeaponFireInfo@@V?$allocator@UWeaponFireInfo@@@std@@@std@@IAEPAUWeaponFireInfo@@V?$_Vector_const_iterator@V?$_Vector_val@UWeaponFireInfo@@V?$allocator@UWeaponFireInfo@@@std@@@std@@@1@0PAU2@@Z
_TEXT	SEGMENT
__First$ = 8						; size = 4
__Last$ = 12						; size = 4
__Cat$538026 = 16					; size = 1
__Ptr$ = 16						; size = 4
??$_Ucopy@V?$_Vector_const_iterator@V?$_Vector_val@UWeaponFireInfo@@V?$allocator@UWeaponFireInfo@@@std@@@std@@@std@@@?$vector@UWeaponFireInfo@@V?$allocator@UWeaponFireInfo@@@std@@@std@@IAEPAUWeaponFireInfo@@V?$_Vector_const_iterator@V?$_Vector_val@UWeaponFireInfo@@V?$allocator@UWeaponFireInfo@@@std@@@std@@@1@0PAU2@@Z PROC ; std::vector<WeaponFireInfo,std::allocator<WeaponFireInfo> >::_Ucopy<std::_Vector_const_iterator<std::_Vector_val<WeaponFireInfo,std::allocator<WeaponFireInfo> > > >, COMDAT
; _this$ = ecx

; 1315 : 		pointer _Ucopy(_Iter _First, _Iter _Last, pointer _Ptr)

  00000	55		 push	 ebp
  00001	8b ec		 mov	 ebp, esp

; 1316 : 		{	// copy initializing [_First, _Last), using allocator
; 1317 : 		return (_Uninitialized_copy(_First, _Last,
; 1318 : 			_Ptr, this->_Alval));

  00003	ff 75 10	 push	 DWORD PTR __Cat$538026[ebp]
  00006	83 c1 0c	 add	 ecx, 12			; 0000000cH
  00009	51		 push	 ecx
  0000a	ff 75 10	 push	 DWORD PTR __Ptr$[ebp]
  0000d	ff 75 0c	 push	 DWORD PTR __Last$[ebp]
  00010	ff 75 08	 push	 DWORD PTR __First$[ebp]
  00013	e8 00 00 00 00	 call	 ??$_Uninit_copy@V?$_Vector_const_iterator@V?$_Vector_val@UWeaponFireInfo@@V?$allocator@UWeaponFireInfo@@@std@@@std@@@std@@PAUWeaponFireInfo@@V?$allocator@UWeaponFireInfo@@@2@@std@@YAPAUWeaponFireInfo@@V?$_Vector_const_iterator@V?$_Vector_val@UWeaponFireInfo@@V?$allocator@UWeaponFireInfo@@@std@@@std@@@0@0PAU1@AAV?$allocator@UWeaponFireInfo@@@0@U_Nonscalar_ptr_iterator_tag@0@@Z ; std::_Uninit_copy<std::_Vector_const_iterator<std::_Vector_val<WeaponFireInfo,std::allocator<WeaponFireInfo> > >,WeaponFireInfo *,std::allocator<WeaponFireInfo> >
  00018	83 c4 14	 add	 esp, 20			; 00000014H

; 1319 : 		}

  0001b	5d		 pop	 ebp
  0001c	c2 0c 00	 ret	 12			; 0000000cH
??$_Ucopy@V?$_Vector_const_iterator@V?$_Vector_val@UWeaponFireInfo@@V?$allocator@UWeaponFireInfo@@@std@@@std@@@std@@@?$vector@UWeaponFireInfo@@V?$allocator@UWeaponFireInfo@@@std@@@std@@IAEPAUWeaponFireInfo@@V?$_Vector_const_iterator@V?$_Vector_val@UWeaponFireInfo@@V?$allocator@UWeaponFireInfo@@@std@@@std@@@1@0PAU2@@Z ENDP ; std::vector<WeaponFireInfo,std::allocator<WeaponFireInfo> >::_Ucopy<std::_Vector_const_iterator<std::_Vector_val<WeaponFireInfo,std::allocator<WeaponFireInfo> > > >
_TEXT	ENDS
PUBLIC	??$_Umove@PAUWeaponFireInfo@@@?$vector@UWeaponFireInfo@@V?$allocator@UWeaponFireInfo@@@std@@@std@@IAEPAUWeaponFireInfo@@PAU2@00@Z ; std::vector<WeaponFireInfo,std::allocator<WeaponFireInfo> >::_Umove<WeaponFireInfo *>
; Function compile flags: /Ogsp
;	COMDAT ??$_Umove@PAUWeaponFireInfo@@@?$vector@UWeaponFireInfo@@V?$allocator@UWeaponFireInfo@@@std@@@std@@IAEPAUWeaponFireInfo@@PAU2@00@Z
_TEXT	SEGMENT
__First$ = 8						; size = 4
__Last$ = 12						; size = 4
__Ptr$ = 16						; size = 4
??$_Umove@PAUWeaponFireInfo@@@?$vector@UWeaponFireInfo@@V?$allocator@UWeaponFireInfo@@@std@@@std@@IAEPAUWeaponFireInfo@@PAU2@00@Z PROC ; std::vector<WeaponFireInfo,std::allocator<WeaponFireInfo> >::_Umove<WeaponFireInfo *>, COMDAT
; _this$ = ecx

; 1322 : 		pointer _Umove(_Iter _First, _Iter _Last, pointer _Ptr)

  00000	55		 push	 ebp
  00001	8b ec		 mov	 ebp, esp

; 1323 : 		{	// move initializing [_First, _Last), using allocator
; 1324 : 		return (_Uninitialized_move(_First, _Last,
; 1325 : 			_Ptr, this->_Alval));

  00003	83 c1 0c	 add	 ecx, 12			; 0000000cH
  00006	51		 push	 ecx
  00007	ff 75 10	 push	 DWORD PTR __Ptr$[ebp]
  0000a	ff 75 0c	 push	 DWORD PTR __Last$[ebp]
  0000d	ff 75 08	 push	 DWORD PTR __First$[ebp]
  00010	e8 00 00 00 00	 call	 ??$_Uninitialized_move@PAUWeaponFireInfo@@PAU1@V?$allocator@UWeaponFireInfo@@@std@@@std@@YAPAUWeaponFireInfo@@PAU1@00AAV?$allocator@UWeaponFireInfo@@@0@@Z ; std::_Uninitialized_move<WeaponFireInfo *,WeaponFireInfo *,std::allocator<WeaponFireInfo> >
  00015	83 c4 10	 add	 esp, 16			; 00000010H

; 1326 : 		}

  00018	5d		 pop	 ebp
  00019	c2 0c 00	 ret	 12			; 0000000cH
??$_Umove@PAUWeaponFireInfo@@@?$vector@UWeaponFireInfo@@V?$allocator@UWeaponFireInfo@@@std@@@std@@IAEPAUWeaponFireInfo@@PAU2@00@Z ENDP ; std::vector<WeaponFireInfo,std::allocator<WeaponFireInfo> >::_Umove<WeaponFireInfo *>
_TEXT	ENDS
PUBLIC	??0?$vector@UWeaponFireInfo@@V?$allocator@UWeaponFireInfo@@@std@@@std@@QAE@ABV01@@Z ; std::vector<WeaponFireInfo,std::allocator<WeaponFireInfo> >::vector<WeaponFireInfo,std::allocator<WeaponFireInfo> >
;	COMDAT xdata$x
; File c:\program files (x86)\microsoft visual studio 10.0\vc\include\xutility
xdata$x	SEGMENT
__catchsym$??0?$vector@UWeaponFireInfo@@V?$allocator@UWeaponFireInfo@@@std@@@std@@QAE@ABV01@@Z$2 DD 040H
	DD	00H
	DD	00H
	DD	FLAT:__catch$??0?$vector@UWeaponFireInfo@@V?$allocator@UWeaponFireInfo@@@std@@@std@@QAE@ABV01@@Z$0
__unwindtable$??0?$vector@UWeaponFireInfo@@V?$allocator@UWeaponFireInfo@@@std@@@std@@QAE@ABV01@@Z DD 0ffffffffH
	DD	00H
	DD	0ffffffffH
	DD	00H
__tryblocktable$??0?$vector@UWeaponFireInfo@@V?$allocator@UWeaponFireInfo@@@std@@@std@@QAE@ABV01@@Z DD 00H
	DD	00H
	DD	01H
	DD	01H
	DD	FLAT:__catchsym$??0?$vector@UWeaponFireInfo@@V?$allocator@UWeaponFireInfo@@@std@@@std@@QAE@ABV01@@Z$2
__ehfuncinfo$??0?$vector@UWeaponFireInfo@@V?$allocator@UWeaponFireInfo@@@std@@@std@@QAE@ABV01@@Z DD 019930522H
	DD	02H
	DD	FLAT:__unwindtable$??0?$vector@UWeaponFireInfo@@V?$allocator@UWeaponFireInfo@@@std@@@std@@QAE@ABV01@@Z
	DD	01H
	DD	FLAT:__tryblocktable$??0?$vector@UWeaponFireInfo@@V?$allocator@UWeaponFireInfo@@@std@@@std@@QAE@ABV01@@Z
	DD	2 DUP(00H)
	DD	00H
	DD	01H
; Function compile flags: /Ogsp
; File c:\program files (x86)\microsoft visual studio 10.0\vc\include\vector
xdata$x	ENDS
;	COMDAT ??0?$vector@UWeaponFireInfo@@V?$allocator@UWeaponFireInfo@@@std@@@std@@QAE@ABV01@@Z
_TEXT	SEGMENT
_this$ = -20						; size = 4
__$EHRec$ = -16						; size = 16
__Cat$538109 = 8					; size = 1
__Right$ = 8						; size = 4
??0?$vector@UWeaponFireInfo@@V?$allocator@UWeaponFireInfo@@@std@@@std@@QAE@ABV01@@Z PROC ; std::vector<WeaponFireInfo,std::allocator<WeaponFireInfo> >::vector<WeaponFireInfo,std::allocator<WeaponFireInfo> >, COMDAT
; _this$ = ecx

; 535  : 		{	// construct by copying _Right

  00000	6a 08		 push	 8
  00002	b8 00 00 00 00	 mov	 eax, __ehhandler$??0?$vector@UWeaponFireInfo@@V?$allocator@UWeaponFireInfo@@@std@@@std@@QAE@ABV01@@Z
  00007	e8 00 00 00 00	 call	 __EH_prolog3_catch
  0000c	8b f1		 mov	 esi, ecx
  0000e	89 75 ec	 mov	 DWORD PTR _this$[ebp], esi

; 536  : 		if (_Buy(_Right.size()))

  00011	8b 7d 08	 mov	 edi, DWORD PTR __Right$[ebp]
  00014	33 db		 xor	 ebx, ebx
  00016	89 1e		 mov	 DWORD PTR [esi], ebx
  00018	89 5e 04	 mov	 DWORD PTR [esi+4], ebx
  0001b	89 5e 08	 mov	 DWORD PTR [esi+8], ebx
  0001e	8b 47 04	 mov	 eax, DWORD PTR [edi+4]
  00021	2b 07		 sub	 eax, DWORD PTR [edi]
  00023	6a 30		 push	 48			; 00000030H
  00025	59		 pop	 ecx
  00026	99		 cdq
  00027	f7 f9		 idiv	 ecx
  00029	8b ce		 mov	 ecx, esi
  0002b	50		 push	 eax
  0002c	e8 00 00 00 00	 call	 ?_Buy@?$vector@UWeaponFireInfo@@V?$allocator@UWeaponFireInfo@@@std@@@std@@IAE_NI@Z ; std::vector<WeaponFireInfo,std::allocator<WeaponFireInfo> >::_Buy
  00031	84 c0		 test	 al, al
  00033	74 1f		 je	 SHORT $LN7@vector

; 537  : 			_TRY_BEGIN
; 538  : 			this->_Mylast = _Ucopy(_Right.begin(), _Right.end(),
; 539  : 				this->_Myfirst);

  00035	ff 75 08	 push	 DWORD PTR __Cat$538109[ebp]
  00038	8b 0e		 mov	 ecx, DWORD PTR [esi]
  0003a	8b 47 04	 mov	 eax, DWORD PTR [edi+4]
  0003d	8b 3f		 mov	 edi, DWORD PTR [edi]
  0003f	8d 56 0c	 lea	 edx, DWORD PTR [esi+12]
  00042	52		 push	 edx
  00043	51		 push	 ecx
  00044	50		 push	 eax
  00045	57		 push	 edi
  00046	89 5d fc	 mov	 DWORD PTR __$EHRec$[ebp+12], ebx
  00049	e8 00 00 00 00	 call	 ??$_Uninit_copy@V?$_Vector_const_iterator@V?$_Vector_val@UWeaponFireInfo@@V?$allocator@UWeaponFireInfo@@@std@@@std@@@std@@PAUWeaponFireInfo@@V?$allocator@UWeaponFireInfo@@@2@@std@@YAPAUWeaponFireInfo@@V?$_Vector_const_iterator@V?$_Vector_val@UWeaponFireInfo@@V?$allocator@UWeaponFireInfo@@@std@@@std@@@0@0PAU1@AAV?$allocator@UWeaponFireInfo@@@0@U_Nonscalar_ptr_iterator_tag@0@@Z ; std::_Uninit_copy<std::_Vector_const_iterator<std::_Vector_val<WeaponFireInfo,std::allocator<WeaponFireInfo> > >,WeaponFireInfo *,std::allocator<WeaponFireInfo> >
  0004e	83 c4 14	 add	 esp, 20			; 00000014H
  00051	89 46 04	 mov	 DWORD PTR [esi+4], eax
$LN7@vector:

; 543  : 			_CATCH_END
; 544  : 		}

  00054	8b c6		 mov	 eax, esi
  00056	e8 00 00 00 00	 call	 __EH_epilog3
  0005b	c2 04 00	 ret	 4
__catch$??0?$vector@UWeaponFireInfo@@V?$allocator@UWeaponFireInfo@@@std@@@std@@QAE@ABV01@@Z$0:

; 540  : 			_CATCH_ALL
; 541  : 			_Tidy();

  0005e	8b 4d ec	 mov	 ecx, DWORD PTR _this$[ebp]
  00061	e8 00 00 00 00	 call	 ?_Tidy@?$vector@UWeaponFireInfo@@V?$allocator@UWeaponFireInfo@@@std@@@std@@IAEXXZ ; std::vector<WeaponFireInfo,std::allocator<WeaponFireInfo> >::_Tidy

; 542  : 			_RERAISE;

  00066	33 db		 xor	 ebx, ebx
  00068	53		 push	 ebx
  00069	53		 push	 ebx
  0006a	e8 00 00 00 00	 call	 __CxxThrowException@8
$LN38@vector:
$LN37@vector:
  0006f	cc		 int	 3
_TEXT	ENDS
;	COMDAT text$x
text$x	SEGMENT
__ehhandler$??0?$vector@UWeaponFireInfo@@V?$allocator@UWeaponFireInfo@@@std@@@std@@QAE@ABV01@@Z:
  00000	8b 54 24 08	 mov	 edx, DWORD PTR [esp+8]
  00004	8d 42 0c	 lea	 eax, DWORD PTR [edx+12]
  00007	8b 4a e8	 mov	 ecx, DWORD PTR [edx-24]
  0000a	33 c8		 xor	 ecx, eax
  0000c	e8 00 00 00 00	 call	 @__security_check_cookie@4
  00011	b8 00 00 00 00	 mov	 eax, OFFSET __ehfuncinfo$??0?$vector@UWeaponFireInfo@@V?$allocator@UWeaponFireInfo@@@std@@@std@@QAE@ABV01@@Z
  00016	e9 00 00 00 00	 jmp	 ___CxxFrameHandler3
text$x	ENDS
??0?$vector@UWeaponFireInfo@@V?$allocator@UWeaponFireInfo@@@std@@@std@@QAE@ABV01@@Z ENDP ; std::vector<WeaponFireInfo,std::allocator<WeaponFireInfo> >::vector<WeaponFireInfo,std::allocator<WeaponFireInfo> >
PUBLIC	??1?$vector@UWeaponFireInfo@@V?$allocator@UWeaponFireInfo@@@std@@@std@@QAE@XZ ; std::vector<WeaponFireInfo,std::allocator<WeaponFireInfo> >::~vector<WeaponFireInfo,std::allocator<WeaponFireInfo> >
; Function compile flags: /Ogsp
;	COMDAT ??1?$vector@UWeaponFireInfo@@V?$allocator@UWeaponFireInfo@@@std@@@std@@QAE@XZ
_TEXT	SEGMENT
??1?$vector@UWeaponFireInfo@@V?$allocator@UWeaponFireInfo@@@std@@@std@@QAE@XZ PROC ; std::vector<WeaponFireInfo,std::allocator<WeaponFireInfo> >::~vector<WeaponFireInfo,std::allocator<WeaponFireInfo> >, COMDAT
; _this$ = ecx

; 705  : 		_Tidy();

  00000	e9 00 00 00 00	 jmp	 ?_Tidy@?$vector@UWeaponFireInfo@@V?$allocator@UWeaponFireInfo@@@std@@@std@@IAEXXZ ; std::vector<WeaponFireInfo,std::allocator<WeaponFireInfo> >::_Tidy
??1?$vector@UWeaponFireInfo@@V?$allocator@UWeaponFireInfo@@@std@@@std@@QAE@XZ ENDP ; std::vector<WeaponFireInfo,std::allocator<WeaponFireInfo> >::~vector<WeaponFireInfo,std::allocator<WeaponFireInfo> >
_TEXT	ENDS
PUBLIC	?reserve@?$vector@UWeaponFireInfo@@V?$allocator@UWeaponFireInfo@@@std@@@std@@QAEXI@Z ; std::vector<WeaponFireInfo,std::allocator<WeaponFireInfo> >::reserve
;	COMDAT xdata$x
; File c:\program files (x86)\microsoft visual studio 10.0\vc\include\xmemory
xdata$x	SEGMENT
__catchsym$?reserve@?$vector@UWeaponFireInfo@@V?$allocator@UWeaponFireInfo@@@std@@@std@@QAEXI@Z$2 DD 040H
	DD	00H
	DD	00H
	DD	FLAT:__catch$?reserve@?$vector@UWeaponFireInfo@@V?$allocator@UWeaponFireInfo@@@std@@@std@@QAEXI@Z$0
__unwindtable$?reserve@?$vector@UWeaponFireInfo@@V?$allocator@UWeaponFireInfo@@@std@@@std@@QAEXI@Z DD 0ffffffffH
	DD	00H
	DD	0ffffffffH
	DD	00H
__tryblocktable$?reserve@?$vector@UWeaponFireInfo@@V?$allocator@UWeaponFireInfo@@@std@@@std@@QAEXI@Z DD 00H
	DD	00H
	DD	01H
	DD	01H
	DD	FLAT:__catchsym$?reserve@?$vector@UWeaponFireInfo@@V?$allocator@UWeaponFireInfo@@@std@@@std@@QAEXI@Z$2
__ehfuncinfo$?reserve@?$vector@UWeaponFireInfo@@V?$allocator@UWeaponFireInfo@@@std@@@std@@QAEXI@Z DD 019930522H
	DD	02H
	DD	FLAT:__unwindtable$?reserve@?$vector@UWeaponFireInfo@@V?$allocator@UWeaponFireInfo@@@std@@@std@@QAEXI@Z
	DD	01H
	DD	FLAT:__tryblocktable$?reserve@?$vector@UWeaponFireInfo@@V?$allocator@UWeaponFireInfo@@@std@@@std@@QAEXI@Z
	DD	2 DUP(00H)
	DD	00H
	DD	01H
; Function compile flags: /Ogsp
; File c:\program files (x86)\microsoft visual studio 10.0\vc\include\vector
xdata$x	ENDS
;	COMDAT ?reserve@?$vector@UWeaponFireInfo@@V?$allocator@UWeaponFireInfo@@@std@@@std@@QAEXI@Z
_TEXT	SEGMENT
__$EHRec$ = -16						; size = 16
__Ptr$532339 = 8					; size = 4
__Count$ = 8						; size = 4
?reserve@?$vector@UWeaponFireInfo@@V?$allocator@UWeaponFireInfo@@@std@@@std@@QAEXI@Z PROC ; std::vector<WeaponFireInfo,std::allocator<WeaponFireInfo> >::reserve, COMDAT
; _this$ = ecx

; 746  : 		{	// determine new minimum length of allocated storage

  00000	6a 04		 push	 4
  00002	b8 00 00 00 00	 mov	 eax, __ehhandler$?reserve@?$vector@UWeaponFireInfo@@V?$allocator@UWeaponFireInfo@@@std@@@std@@QAEXI@Z
  00007	e8 00 00 00 00	 call	 __EH_prolog3_catch
  0000c	8b f1		 mov	 esi, ecx

; 747  : 		if (max_size() < _Count)

  0000e	8b 5d 08	 mov	 ebx, DWORD PTR __Count$[ebp]
  00011	81 fb 55 55 55
	05		 cmp	 ebx, 89478485		; 05555555H
  00017	76 0b		 jbe	 SHORT $LN5@reserve

; 748  : 			_Xlen();	// result too long

  00019	68 00 00 00 00	 push	 OFFSET ??_C@_0BD@OLBABOEK@vector?$DMT?$DO?5too?5long?$AA@
  0001e	ff 15 00 00 00
	00		 call	 DWORD PTR __imp_?_Xlength_error@std@@YAXPBD@Z
$LN38@reserve:
$LN5@reserve:

; 749  : 		else if (capacity() < _Count)

  00024	8b 46 08	 mov	 eax, DWORD PTR [esi+8]
  00027	2b 06		 sub	 eax, DWORD PTR [esi]
  00029	6a 30		 push	 48			; 00000030H
  0002b	99		 cdq
  0002c	59		 pop	 ecx
  0002d	f7 f9		 idiv	 ecx
  0002f	3b c3		 cmp	 eax, ebx
  00031	73 70		 jae	 SHORT $LN3@reserve

; 750  : 			{	// not enough room, reallocate
; 751  : 			pointer _Ptr = this->_Alval.allocate(_Count);

  00033	6a 00		 push	 0
  00035	53		 push	 ebx
  00036	e8 00 00 00 00	 call	 ??$_Allocate@UWeaponFireInfo@@@std@@YAPAUWeaponFireInfo@@IPAU1@@Z ; std::_Allocate<WeaponFireInfo>

; 752  : 
; 753  : 			_TRY_BEGIN
; 754  : 			_Umove(this->_Myfirst, this->_Mylast, _Ptr);

  0003b	8b 0e		 mov	 ecx, DWORD PTR [esi]
  0003d	83 65 fc 00	 and	 DWORD PTR __$EHRec$[ebp+12], 0
  00041	8d 56 0c	 lea	 edx, DWORD PTR [esi+12]
  00044	52		 push	 edx
  00045	89 45 08	 mov	 DWORD PTR __Ptr$532339[ebp], eax
  00048	ff 75 08	 push	 DWORD PTR __Ptr$532339[ebp]
  0004b	8b 46 04	 mov	 eax, DWORD PTR [esi+4]
  0004e	50		 push	 eax
  0004f	51		 push	 ecx
  00050	e8 00 00 00 00	 call	 ??$_Uninitialized_move@PAUWeaponFireInfo@@PAU1@V?$allocator@UWeaponFireInfo@@@std@@@std@@YAPAUWeaponFireInfo@@PAU1@00AAV?$allocator@UWeaponFireInfo@@@0@@Z ; std::_Uninitialized_move<WeaponFireInfo *,WeaponFireInfo *,std::allocator<WeaponFireInfo> >

; 758  : 			_CATCH_END
; 759  : 
; 760  : 			size_type _Size = size();

  00055	8b 0e		 mov	 ecx, DWORD PTR [esi]
  00057	8b 46 04	 mov	 eax, DWORD PTR [esi+4]
  0005a	83 c4 18	 add	 esp, 24			; 00000018H
  0005d	2b c1		 sub	 eax, ecx
  0005f	6a 30		 push	 48			; 00000030H
  00061	99		 cdq
  00062	5f		 pop	 edi
  00063	f7 ff		 idiv	 edi
  00065	83 4d fc ff	 or	 DWORD PTR __$EHRec$[ebp+12], -1
  00069	8b f8		 mov	 edi, eax
  0006b	85 c9		 test	 ecx, ecx
  0006d	74 17		 je	 SHORT $LN33@reserve

; 761  : 			if (this->_Myfirst != 0)
; 762  : 				{	// destroy and deallocate old array
; 763  : 				_Destroy(this->_Myfirst, this->_Mylast);

  0006f	8d 46 0c	 lea	 eax, DWORD PTR [esi+12]
  00072	50		 push	 eax
  00073	ff 76 04	 push	 DWORD PTR [esi+4]
  00076	51		 push	 ecx
  00077	e8 00 00 00 00	 call	 ??$_Destroy_range@V?$allocator@UWeaponFireInfo@@@std@@@std@@YAXPAUWeaponFireInfo@@0AAV?$allocator@UWeaponFireInfo@@@0@@Z ; std::_Destroy_range<std::allocator<WeaponFireInfo> >

; 764  : 				this->_Alval.deallocate(this->_Myfirst,
; 765  : 					this->_Myend - this->_Myfirst);

  0007c	ff 36		 push	 DWORD PTR [esi]
  0007e	e8 00 00 00 00	 call	 ??3@YAXPAX@Z		; operator delete
  00083	83 c4 10	 add	 esp, 16			; 00000010H
$LN33@reserve:

; 766  : 				}
; 767  : 
; 768  : 			this->_Orphan_all();

  00086	8b ce		 mov	 ecx, esi
  00088	ff 15 00 00 00
	00		 call	 DWORD PTR __imp_?_Orphan_all@_Container_base0@std@@QAEXXZ

; 769  : 			this->_Myend = _Ptr + _Count;

  0008e	6b db 30	 imul	 ebx, 48			; 00000030H

; 770  : 			this->_Mylast = _Ptr + _Size;

  00091	6b ff 30	 imul	 edi, 48			; 00000030H
  00094	8b 45 08	 mov	 eax, DWORD PTR __Ptr$532339[ebp]
  00097	03 d8		 add	 ebx, eax
  00099	03 f8		 add	 edi, eax
  0009b	89 5e 08	 mov	 DWORD PTR [esi+8], ebx
  0009e	89 7e 04	 mov	 DWORD PTR [esi+4], edi

; 771  : 			this->_Myfirst = _Ptr;

  000a1	89 06		 mov	 DWORD PTR [esi], eax
$LN3@reserve:

; 772  : 			}
; 773  : 		}

  000a3	e8 00 00 00 00	 call	 __EH_epilog3
  000a8	c2 04 00	 ret	 4
__catch$?reserve@?$vector@UWeaponFireInfo@@V?$allocator@UWeaponFireInfo@@@std@@@std@@QAEXI@Z$0:

; 755  : 			_CATCH_ALL
; 756  : 			this->_Alval.deallocate(_Ptr, _Count);

  000ab	ff 75 08	 push	 DWORD PTR __Ptr$532339[ebp]
  000ae	e8 00 00 00 00	 call	 ??3@YAXPAX@Z		; operator delete
  000b3	59		 pop	 ecx

; 757  : 			_RERAISE;

  000b4	6a 00		 push	 0
  000b6	6a 00		 push	 0
  000b8	e8 00 00 00 00	 call	 __CxxThrowException@8
$LN39@reserve:
$LN37@reserve:
  000bd	cc		 int	 3
_TEXT	ENDS
;	COMDAT text$x
text$x	SEGMENT
__ehhandler$?reserve@?$vector@UWeaponFireInfo@@V?$allocator@UWeaponFireInfo@@@std@@@std@@QAEXI@Z:
  00000	8b 54 24 08	 mov	 edx, DWORD PTR [esp+8]
  00004	8d 42 0c	 lea	 eax, DWORD PTR [edx+12]
  00007	8b 4a ec	 mov	 ecx, DWORD PTR [edx-20]
  0000a	33 c8		 xor	 ecx, eax
  0000c	e8 00 00 00 00	 call	 @__security_check_cookie@4
  00011	b8 00 00 00 00	 mov	 eax, OFFSET __ehfuncinfo$?reserve@?$vector@UWeaponFireInfo@@V?$allocator@UWeaponFireInfo@@@std@@@std@@QAEXI@Z
  00016	e9 00 00 00 00	 jmp	 ___CxxFrameHandler3
text$x	ENDS
?reserve@?$vector@UWeaponFireInfo@@V?$allocator@UWeaponFireInfo@@@std@@@std@@QAEXI@Z ENDP ; std::vector<WeaponFireInfo,std::allocator<WeaponFireInfo> >::reserve
PUBLIC	?erase@?$vector@UWeaponFireInfo@@V?$allocator@UWeaponFireInfo@@@std@@@std@@QAE?AV?$_Vector_iterator@V?$_Vector_val@UWeaponFireInfo@@V?$allocator@UWeaponFireInfo@@@std@@@std@@@2@V?$_Vector_const_iterator@V?$_Vector_val@UWeaponFireInfo@@V?$allocator@UWeaponFireInfo@@@std@@@std@@@2@0@Z ; std::vector<WeaponFireInfo,std::allocator<WeaponFireInfo> >::erase
; Function compile flags: /Ogsp
;	COMDAT ?erase@?$vector@UWeaponFireInfo@@V?$allocator@UWeaponFireInfo@@@std@@@std@@QAE?AV?$_Vector_iterator@V?$_Vector_val@UWeaponFireInfo@@V?$allocator@UWeaponFireInfo@@@std@@@std@@@2@V?$_Vector_const_iterator@V?$_Vector_val@UWeaponFireInfo@@V?$allocator@UWeaponFireInfo@@@std@@@std@@@2@0@Z
_TEXT	SEGMENT
___$ReturnUdt$ = 8					; size = 4
__First_arg$ = 12					; size = 4
__Cat$538273 = 16					; size = 1
__Last_arg$ = 16					; size = 4
?erase@?$vector@UWeaponFireInfo@@V?$allocator@UWeaponFireInfo@@@std@@@std@@QAE?AV?$_Vector_iterator@V?$_Vector_val@UWeaponFireInfo@@V?$allocator@UWeaponFireInfo@@@std@@@std@@@2@V?$_Vector_const_iterator@V?$_Vector_val@UWeaponFireInfo@@V?$allocator@UWeaponFireInfo@@@std@@@std@@@2@0@Z PROC ; std::vector<WeaponFireInfo,std::allocator<WeaponFireInfo> >::erase, COMDAT
; _this$ = ecx

; 1190 : 		{	// erase [_First, _Last)

  00000	55		 push	 ebp
  00001	8b ec		 mov	 ebp, esp

; 1191 : 		iterator _First = _Make_iter(_First_arg);

  00003	8b 45 0c	 mov	 eax, DWORD PTR __First_arg$[ebp]
  00006	53		 push	 ebx
  00007	8b 5d 08	 mov	 ebx, DWORD PTR ___$ReturnUdt$[ebp]
  0000a	56		 push	 esi
  0000b	8b f1		 mov	 esi, ecx
  0000d	89 03		 mov	 DWORD PTR [ebx], eax

; 1192 : 		iterator _Last = _Make_iter(_Last_arg);
; 1193 : 
; 1194 : 		if (_First != _Last)

  0000f	3b 45 10	 cmp	 eax, DWORD PTR __Last_arg$[ebp]
  00012	74 27		 je	 SHORT $LN1@erase

; 1195 : 			{	// worth doing, copy down over hole
; 1196 :  #if _ITERATOR_DEBUG_LEVEL == 2
; 1197 : 			if (_Last < _First || _VICONT(_First) != this
; 1198 : 				|| _VIPTR(_First) < this->_Myfirst
; 1199 : 				|| this->_Mylast < _VIPTR(_Last))
; 1200 : 				_DEBUG_ERROR("vector erase iterator outside range");
; 1201 : 			pointer _Ptr = _Move(_VIPTR(_Last), this->_Mylast,
; 1202 : 				_VIPTR(_First));
; 1203 : 			_Orphan_range(_VIPTR(_First), this->_Mylast);
; 1204 : 
; 1205 :  #else /* _ITERATOR_DEBUG_LEVEL == 2 */
; 1206 : 			pointer _Ptr = _Move(_VIPTR(_Last), this->_Mylast,
; 1207 : 				_VIPTR(_First));

  00014	8b 4e 04	 mov	 ecx, DWORD PTR [esi+4]
  00017	57		 push	 edi
  00018	ff 75 10	 push	 DWORD PTR __Cat$538273[ebp]
  0001b	50		 push	 eax
  0001c	51		 push	 ecx
  0001d	ff 75 10	 push	 DWORD PTR __Last_arg$[ebp]
  00020	e8 00 00 00 00	 call	 ??$_Move@PAUWeaponFireInfo@@PAU1@@std@@YAPAUWeaponFireInfo@@PAU1@00U_Nonscalar_ptr_iterator_tag@0@@Z ; std::_Move<WeaponFireInfo *,WeaponFireInfo *>
  00025	8b f8		 mov	 edi, eax

; 1208 :  #endif /* _ITERATOR_DEBUG_LEVEL == 2 */
; 1209 : 
; 1210 : 			_Destroy(_Ptr, this->_Mylast);

  00027	8d 46 0c	 lea	 eax, DWORD PTR [esi+12]
  0002a	50		 push	 eax
  0002b	ff 76 04	 push	 DWORD PTR [esi+4]
  0002e	57		 push	 edi
  0002f	e8 00 00 00 00	 call	 ??$_Destroy_range@V?$allocator@UWeaponFireInfo@@@std@@@std@@YAXPAUWeaponFireInfo@@0AAV?$allocator@UWeaponFireInfo@@@0@@Z ; std::_Destroy_range<std::allocator<WeaponFireInfo> >
  00034	83 c4 1c	 add	 esp, 28			; 0000001cH

; 1211 : 			this->_Mylast = _Ptr;

  00037	89 7e 04	 mov	 DWORD PTR [esi+4], edi
  0003a	5f		 pop	 edi
$LN1@erase:

; 1212 : 			}
; 1213 : 		return (_First);

  0003b	5e		 pop	 esi
  0003c	8b c3		 mov	 eax, ebx
  0003e	5b		 pop	 ebx

; 1214 : 		}

  0003f	5d		 pop	 ebp
  00040	c2 0c 00	 ret	 12			; 0000000cH
?erase@?$vector@UWeaponFireInfo@@V?$allocator@UWeaponFireInfo@@@std@@@std@@QAE?AV?$_Vector_iterator@V?$_Vector_val@UWeaponFireInfo@@V?$allocator@UWeaponFireInfo@@@std@@@std@@@2@V?$_Vector_const_iterator@V?$_Vector_val@UWeaponFireInfo@@V?$allocator@UWeaponFireInfo@@@std@@@std@@@2@0@Z ENDP ; std::vector<WeaponFireInfo,std::allocator<WeaponFireInfo> >::erase
_TEXT	ENDS
PUBLIC	?_Reserve@?$vector@UWeaponFireInfo@@V?$allocator@UWeaponFireInfo@@@std@@@std@@IAEXI@Z ; std::vector<WeaponFireInfo,std::allocator<WeaponFireInfo> >::_Reserve
; Function compile flags: /Ogsp
;	COMDAT ?_Reserve@?$vector@UWeaponFireInfo@@V?$allocator@UWeaponFireInfo@@@std@@@std@@IAEXI@Z
_TEXT	SEGMENT
__Count$ = 8						; size = 4
?_Reserve@?$vector@UWeaponFireInfo@@V?$allocator@UWeaponFireInfo@@@std@@@std@@IAEXI@Z PROC ; std::vector<WeaponFireInfo,std::allocator<WeaponFireInfo> >::_Reserve, COMDAT
; _this$ = ecx

; 1290 : 		{	// ensure room for _Count new elements, grow exponentially

  00000	55		 push	 ebp
  00001	8b ec		 mov	 ebp, esp
  00003	56		 push	 esi
  00004	8b f1		 mov	 esi, ecx

; 1291 : 		size_type _Size = size();

  00006	8b 0e		 mov	 ecx, DWORD PTR [esi]
  00008	8b 46 04	 mov	 eax, DWORD PTR [esi+4]
  0000b	2b c1		 sub	 eax, ecx
  0000d	57		 push	 edi
  0000e	99		 cdq
  0000f	6a 30		 push	 48			; 00000030H
  00011	5f		 pop	 edi
  00012	f7 ff		 idiv	 edi
  00014	8b f8		 mov	 edi, eax

; 1292 : 		if (max_size() - _Count < _Size)

  00016	b8 55 55 55 05	 mov	 eax, 89478485		; 05555555H
  0001b	2b 45 08	 sub	 eax, DWORD PTR __Count$[ebp]
  0001e	3b c7		 cmp	 eax, edi
  00020	73 0b		 jae	 SHORT $LN4@Reserve

; 1293 : 			_Xlen();

  00022	68 00 00 00 00	 push	 OFFSET ??_C@_0BD@OLBABOEK@vector?$DMT?$DO?5too?5long?$AA@
  00027	ff 15 00 00 00
	00		 call	 DWORD PTR __imp_?_Xlength_error@std@@YAXPBD@Z
$LN21@Reserve:
$LN4@Reserve:

; 1294 : 		else if ((_Size += _Count) <= capacity())

  0002d	8b 46 08	 mov	 eax, DWORD PTR [esi+8]
  00030	2b c1		 sub	 eax, ecx
  00032	6a 30		 push	 48			; 00000030H
  00034	99		 cdq
  00035	59		 pop	 ecx
  00036	f7 f9		 idiv	 ecx
  00038	03 7d 08	 add	 edi, DWORD PTR __Count$[ebp]
  0003b	3b f8		 cmp	 edi, eax
  0003d	76 10		 jbe	 SHORT $LN1@Reserve

; 1295 : 			;
; 1296 : 		else
; 1297 : 			reserve(_Grow_to(_Size));

  0003f	57		 push	 edi
  00040	8b ce		 mov	 ecx, esi
  00042	e8 00 00 00 00	 call	 ?_Grow_to@?$vector@UWeaponFireInfo@@V?$allocator@UWeaponFireInfo@@@std@@@std@@IBEII@Z ; std::vector<WeaponFireInfo,std::allocator<WeaponFireInfo> >::_Grow_to
  00047	50		 push	 eax
  00048	8b ce		 mov	 ecx, esi
  0004a	e8 00 00 00 00	 call	 ?reserve@?$vector@UWeaponFireInfo@@V?$allocator@UWeaponFireInfo@@@std@@@std@@QAEXI@Z ; std::vector<WeaponFireInfo,std::allocator<WeaponFireInfo> >::reserve
$LN1@Reserve:
  0004f	5f		 pop	 edi
  00050	5e		 pop	 esi

; 1298 : 		}

  00051	5d		 pop	 ebp
  00052	c2 04 00	 ret	 4
$LN20@Reserve:
?_Reserve@?$vector@UWeaponFireInfo@@V?$allocator@UWeaponFireInfo@@@std@@@std@@IAEXI@Z ENDP ; std::vector<WeaponFireInfo,std::allocator<WeaponFireInfo> >::_Reserve
_TEXT	ENDS
PUBLIC	??_7ioConsecution2Skill@@6B@			; ioConsecution2Skill::`vftable'
PUBLIC	??0ioConsecution2Skill@@QAE@XZ			; ioConsecution2Skill::ioConsecution2Skill
PUBLIC	??_R4ioConsecution2Skill@@6B@			; ioConsecution2Skill::`RTTI Complete Object Locator'
PUBLIC	??_R0?AVioConsecution2Skill@@@8			; ioConsecution2Skill `RTTI Type Descriptor'
PUBLIC	??_R3ioConsecution2Skill@@8			; ioConsecution2Skill::`RTTI Class Hierarchy Descriptor'
PUBLIC	??_R2ioConsecution2Skill@@8			; ioConsecution2Skill::`RTTI Base Class Array'
PUBLIC	??_R1A@?0A@EA@ioConsecution2Skill@@8		; ioConsecution2Skill::`RTTI Base Class Descriptor at (0,-1,0,64)'
PUBLIC	??_R1A@?0A@EA@ioAttackSkill@@8			; ioAttackSkill::`RTTI Base Class Descriptor at (0,-1,0,64)'
PUBLIC	??_R0?AVioAttackSkill@@@8			; ioAttackSkill `RTTI Type Descriptor'
PUBLIC	??_R3ioAttackSkill@@8				; ioAttackSkill::`RTTI Class Hierarchy Descriptor'
PUBLIC	??_R2ioAttackSkill@@8				; ioAttackSkill::`RTTI Base Class Array'
PUBLIC	??_R1A@?0A@EA@ioSkill@@8			; ioSkill::`RTTI Base Class Descriptor at (0,-1,0,64)'
PUBLIC	??_R0?AVioSkill@@@8				; ioSkill `RTTI Type Descriptor'
PUBLIC	??_R3ioSkill@@8					; ioSkill::`RTTI Class Hierarchy Descriptor'
PUBLIC	??_R2ioSkill@@8					; ioSkill::`RTTI Base Class Array'
PUBLIC	?LoadProperty@ioConsecution2Skill@@UAEXAAVioINILoader@@@Z ; ioConsecution2Skill::LoadProperty
PUBLIC	?Clone@ioConsecution2Skill@@UAEPAVioSkill@@XZ	; ioConsecution2Skill::Clone
PUBLIC	?GetDefenseSkillBreakeType@ioSkill@@UBE?AW4DefenseBreakType@@XZ ; ioSkill::GetDefenseSkillBreakeType
PUBLIC	?GetSkillEndNextJumpAmt@ioSkill@@UBEMXZ		; ioSkill::GetSkillEndNextJumpAmt
PUBLIC	?GetSkillEndNextLandRate@ioSkill@@UBEMXZ	; ioSkill::GetSkillEndNextLandRate
PUBLIC	?GetSkillEndNextJumpMustEnable@ioSkill@@UAE?AW4SkillEndJumpType@@XZ ; ioSkill::GetSkillEndNextJumpMustEnable
PUBLIC	?EnableChangeGrapplingTargetPos@ioSkill@@UBE_NXZ ; ioSkill::EnableChangeGrapplingTargetPos
PUBLIC	?IsInvisibleBottomCircle@ioSkill@@UAE_NPAVioBaseChar@@@Z ; ioSkill::IsInvisibleBottomCircle
PUBLIC	?IsCanJumpingSkill@ioSkill@@UBE_NXZ		; ioSkill::IsCanJumpingSkill
PUBLIC	?IsCanJumpingSkillOnBlowWound@ioSkill@@UBE_NXZ	; ioSkill::IsCanJumpingSkillOnBlowWound
PUBLIC	?IsCanDownSkill@ioSkill@@UBE_NXZ		; ioSkill::IsCanDownSkill
PUBLIC	?IsCanBlowWoundSkill@ioSkill@@UBE_NXZ		; ioSkill::IsCanBlowWoundSkill
PUBLIC	?IsCanWoundSkill@ioSkill@@UBE_NXZ		; ioSkill::IsCanWoundSkill
PUBLIC	?IsUseActiveCnt@ioSkill@@UBE_NXZ		; ioSkill::IsUseActiveCnt
PUBLIC	?GetMaxActiveCnt@ioSkill@@UBEHPAVioBaseChar@@@Z	; ioSkill::GetMaxActiveCnt
PUBLIC	?GetCurActiveCnt@ioSkill@@UBEHPAVioBaseChar@@@Z	; ioSkill::GetCurActiveCnt
EXTRN	??1ioAttackSkill@@UAE@XZ:PROC			; ioAttackSkill::~ioAttackSkill
EXTRN	??0ioAttackSkill@@QAE@XZ:PROC			; ioAttackSkill::ioAttackSkill
EXTRN	?GetTypeID@ioAttackSkill@@UBEHXZ:PROC		; ioAttackSkill::GetTypeID
EXTRN	?IsCanSwitchSkill@ioSkill@@UBE_NXZ:PROC		; ioSkill::IsCanSwitchSkill
EXTRN	?IsCanSemiSwitchSkill@ioSkill@@UBE_NXZ:PROC	; ioSkill::IsCanSemiSwitchSkill
EXTRN	?IsCanCancelBySkill@ioSkill@@UBE_NPAVioBaseChar@@AAH@Z:PROC ; ioSkill::IsCanCancelBySkill
EXTRN	?IsCanUseZeroHP@ioSkill@@UBE_NPAVioBaseChar@@@Z:PROC ; ioSkill::IsCanUseZeroHP
EXTRN	?IsCanUseSkillWithCrown@ioSkill@@UAE_NPAVioBaseChar@@@Z:PROC ; ioSkill::IsCanUseSkillWithCrown
EXTRN	?IsCanUseBoss@ioSkill@@UBE_NPAVioBaseChar@@@Z:PROC ; ioSkill::IsCanUseBoss
EXTRN	?IsCanUseFootball@ioSkill@@UBE_NXZ:PROC		; ioSkill::IsCanUseFootball
EXTRN	?IsCanUseGangSiMode@ioSkill@@UBE_NXZ:PROC	; ioSkill::IsCanUseGangSiMode
EXTRN	?IsCanUseByWeaponType@ioSkill@@UBE_NPAVioBaseChar@@@Z:PROC ; ioSkill::IsCanUseByWeaponType
EXTRN	?IsCanUseThunderBirdHold@ioSkill@@UBE_NPAVioBaseChar@@@Z:PROC ; ioSkill::IsCanUseThunderBirdHold
EXTRN	?IsCanUseLimitHP@ioSkill@@UBE_NPAVioBaseChar@@@Z:PROC ; ioSkill::IsCanUseLimitHP
EXTRN	?IsCanUseSkill@ioAttackSkill@@UAE_NPAVioBaseChar@@_N@Z:PROC ; ioAttackSkill::IsCanUseSkill
EXTRN	?IsOnOffEnable@ioSkill@@UAE_NXZ:PROC		; ioSkill::IsOnOffEnable
EXTRN	?IsCanDefenseStateSkill@ioSkill@@UAE_NXZ:PROC	; ioSkill::IsCanDefenseStateSkill
EXTRN	?SetDefenseStateSkill@ioSkill@@UAEXPAVioBaseChar@@@Z:PROC ; ioSkill::SetDefenseStateSkill
EXTRN	?HasBuff@ioSkill@@UBE_NH@Z:PROC			; ioSkill::HasBuff
EXTRN	?GetBuffType@ioSkill@@UAEHH@Z:PROC		; ioSkill::GetBuffType
EXTRN	?IsEnableReserve@ioSkill@@UBE_NXZ:PROC		; ioSkill::IsEnableReserve
EXTRN	?IsCharSkipState@ioSkill@@UBE?AW4SkillCharColType@@XZ:PROC ; ioSkill::IsCharSkipState
EXTRN	?IsEntityCollisionSkipState@ioSkill@@UBE_NXZ:PROC ; ioSkill::IsEntityCollisionSkipState
EXTRN	?IsEndState@ioSkill@@UBE_NXZ:PROC		; ioSkill::IsEndState
EXTRN	?IsAttackEndState@ioAttackSkill@@UBE_NXZ:PROC	; ioAttackSkill::IsAttackEndState
EXTRN	?IsJumpState@ioSkill@@UBE_NXZ:PROC		; ioSkill::IsJumpState
EXTRN	?IsDownState@ioSkill@@UBE_NXZ:PROC		; ioSkill::IsDownState
EXTRN	?IsNoDropState@ioSkill@@UBE_NXZ:PROC		; ioSkill::IsNoDropState
EXTRN	?IsCanSendControl@ioSkill@@UBE_NXZ:PROC		; ioSkill::IsCanSendControl
EXTRN	?IsSkipState@ioSkill@@UBE_NXZ:PROC		; ioSkill::IsSkipState
EXTRN	?GetSkillMoveRate@ioSkill@@UBEMXZ:PROC		; ioSkill::GetSkillMoveRate
EXTRN	?SetSkillGrapplingState@ioSkill@@UAE_NPAVioBaseChar@@ABVioHashString@@@Z:PROC ; ioSkill::SetSkillGrapplingState
EXTRN	?GetGrapplingTargetPos@ioSkill@@UAE?AUD3DXVECTOR3@@PAVioBaseChar@@0@Z:PROC ; ioSkill::GetGrapplingTargetPos
EXTRN	?GetGrapplingTargetPos@ioSkill@@UAE?AUD3DXVECTOR3@@PAVioBaseChar@@@Z:PROC ; ioSkill::GetGrapplingTargetPos
EXTRN	?GetSkillWoundGrapplingInfo@ioSkill@@UAE?AUGrapplingSkillWoundedInfo@@XZ:PROC ; ioSkill::GetSkillWoundGrapplingInfo
EXTRN	?SetCreateWeaponDependency@ioSkill@@UAEXPAVioBaseChar@@PAVioPlayStage@@@Z:PROC ; ioSkill::SetCreateWeaponDependency
EXTRN	?SetNextSkillState@ioSkill@@UAEXPAVioBaseChar@@PAVioWeapon@@@Z:PROC ; ioSkill::SetNextSkillState
EXTRN	?OnSkillEndByWounded@ioSkill@@UAEXPAVioBaseChar@@@Z:PROC ; ioSkill::OnSkillEndByWounded
EXTRN	?OnProcessNotUseSkill@ioSkill@@UAEXPAVioBaseChar@@PAVioPlayStage@@@Z:PROC ; ioSkill::OnProcessNotUseSkill
EXTRN	?OnSkillItemRelease@ioSkill@@UAEXPAVioBaseChar@@@Z:PROC ; ioSkill::OnSkillItemRelease
EXTRN	?ApplyEquipSlotSkillExtraInfo@ioSkill@@UAEXPAVioBaseChar@@PAVioPlayStage@@AAVSP2Packet@@@Z:PROC ; ioSkill::ApplyEquipSlotSkillExtraInfo
EXTRN	?ApplyExtraPassiveSkillInfo@ioSkill@@UAEXPAVioBaseChar@@PAVioPlayStage@@AAVSP2Packet@@@Z:PROC ; ioSkill::ApplyExtraPassiveSkillInfo
EXTRN	?StartPreDelayEffect@ioAttackSkill@@UAEXPAVioBaseChar@@@Z:PROC ; ioAttackSkill::StartPreDelayEffect
EXTRN	?EndPreDelayEffect@ioAttackSkill@@UAEXPAVioBaseChar@@@Z:PROC ; ioAttackSkill::EndPreDelayEffect
EXTRN	?IsUseAutoTargetValue@ioAttackSkill@@UAE_NXZ:PROC ; ioAttackSkill::IsUseAutoTargetValue
EXTRN	?IsAutoTargetDownState@ioSkill@@UAE_NXZ:PROC	; ioSkill::IsAutoTargetDownState
EXTRN	?CheckUseBuff@ioSkill@@UAE_NPAVioBaseChar@@@Z:PROC ; ioSkill::CheckUseBuff
EXTRN	?CheckUseActiveCount@ioSkill@@UAE_NXZ:PROC	; ioSkill::CheckUseActiveCount
EXTRN	?CheckAniRotate@ioSkill@@UAEXPAVioBaseChar@@@Z:PROC ; ioSkill::CheckAniRotate
EXTRN	?IsEnableDashCheck@ioSkill@@UAE_NPAVioBaseChar@@@Z:PROC ; ioSkill::IsEnableDashCheck
EXTRN	?IsEnableMultiActive@ioSkill@@UAE_NPAVioBaseChar@@@Z:PROC ; ioSkill::IsEnableMultiActive
EXTRN	?GetAutoTargetValue@ioSkill@@UAEXAAM00@Z:PROC	; ioSkill::GetAutoTargetValue
EXTRN	?GetSkillGravityRate@ioSkill@@UAEMXZ:PROC	; ioSkill::GetSkillGravityRate
EXTRN	?GetSkillMotionName@ioSkill@@UBEABVioHashString@@XZ:PROC ; ioSkill::GetSkillMotionName
EXTRN	?HasSkillMotion@ioSkill@@UBE_NXZ:PROC		; ioSkill::HasSkillMotion
EXTRN	?GetSkillMotionRate@ioSkill@@UBEMXZ:PROC	; ioSkill::GetSkillMotionRate
EXTRN	?IsPreDelayProtect@ioSkill@@UBE_NXZ:PROC	; ioSkill::IsPreDelayProtect
EXTRN	?GetPreDelayAniName@ioSkill@@UBEABVioHashString@@XZ:PROC ; ioSkill::GetPreDelayAniName
EXTRN	?GetPreDelayTime@ioSkill@@UBEKXZ:PROC		; ioSkill::GetPreDelayTime
EXTRN	?GetPreDelayOwnerEffect@ioSkill@@UBEABVioHashString@@XZ:PROC ; ioSkill::GetPreDelayOwnerEffect
EXTRN	?GetPreDelayOtherEffect@ioSkill@@UBEABVioHashString@@XZ:PROC ; ioSkill::GetPreDelayOtherEffect
EXTRN	?SetCancelSkill@ioSkill@@UAEXPAVioBaseChar@@@Z:PROC ; ioSkill::SetCancelSkill
EXTRN	?ClearAirJump@ioSkill@@MAEXXZ:PROC		; ioSkill::ClearAirJump
EXTRN	?SetAirJump@ioSkill@@MAEXPAVioBaseChar@@HM@Z:PROC ; ioSkill::SetAirJump
EXTRN	?CheckAirJump@ioSkill@@MAEXPAVioBaseChar@@@Z:PROC ; ioSkill::CheckAirJump
EXTRN	?UseActiveCount@ioSkill@@UAE_NPAVioBaseChar@@@Z:PROC ; ioSkill::UseActiveCount
EXTRN	?GetMaxActiveCount@ioSkill@@UAEHPAVioBaseChar@@@Z:PROC ; ioSkill::GetMaxActiveCount
EXTRN	?GetCurActiveCount@ioSkill@@UAEHPAVioBaseChar@@@Z:PROC ; ioSkill::GetCurActiveCount
EXTRN	?HideHPGauge@ioSkill@@UAE_NXZ:PROC		; ioSkill::HideHPGauge
EXTRN	?SetInfoByApplyWeapon@ioSkill@@UAEXPAVioBaseChar@@0K_N@Z:PROC ; ioSkill::SetInfoByApplyWeapon
EXTRN	?SetCollisionByApplySkill@ioSkill@@UAEXXZ:PROC	; ioSkill::SetCollisionByApplySkill
EXTRN	?SetChargingRateForWeapon@ioSkill@@UAEXPAVioWeapon@@@Z:PROC ; ioSkill::SetChargingRateForWeapon
EXTRN	?CheckExceptionCamera@ioSkill@@UAE_NXZ:PROC	; ioSkill::CheckExceptionCamera
EXTRN	?GetExceptionCameraPos@ioSkill@@UAE?AUD3DXVECTOR3@@PAVioBaseChar@@@Z:PROC ; ioSkill::GetExceptionCameraPos
EXTRN	?IsFixedExceptionCamera@ioSkill@@UAE_NXZ:PROC	; ioSkill::IsFixedExceptionCamera
EXTRN	??_EioConsecution2Skill@@UAEPAXI@Z:PROC		; ioConsecution2Skill::`vector deleting destructor'
EXTRN	?StartPreDelayAnimation@ioAttackSkill@@MAE_NPAVioBaseChar@@@Z:PROC ; ioAttackSkill::StartPreDelayAnimation
EXTRN	?GetAttackTimeRate@ioAttackSkill@@MBEMXZ:PROC	; ioAttackSkill::GetAttackTimeRate
EXTRN	?GetAttackEndTimeRate@ioAttackSkill@@MBEMXZ:PROC ; ioAttackSkill::GetAttackEndTimeRate
EXTRN	?LoadNormalAttribute@ioAttackSkill@@MAEXAAVioINILoader@@@Z:PROC ; ioAttackSkill::LoadNormalAttribute
EXTRN	?LoadDownAttribute@ioAttackSkill@@MAEXAAVioINILoader@@@Z:PROC ; ioAttackSkill::LoadDownAttribute
EXTRN	?LoadJumpAttribute@ioAttackSkill@@MAEXAAVioINILoader@@@Z:PROC ; ioAttackSkill::LoadJumpAttribute
EXTRN	?GetAttribute@ioAttackSkill@@UAEAAUAttackAttribute@@XZ:PROC ; ioAttackSkill::GetAttribute
EXTRN	?GetAttributeConst@ioAttackSkill@@UBEABUAttackAttribute@@XZ:PROC ; ioAttackSkill::GetAttributeConst
EXTRN	?IsCanStateEscape@ioAttackSkill@@UBE_NXZ:PROC	; ioAttackSkill::IsCanStateEscape
EXTRN	?IsCanStateEscapeOnStand@ioAttackSkill@@UBE_NPAVioBaseChar@@@Z:PROC ; ioAttackSkill::IsCanStateEscapeOnStand
EXTRN	?IsCanStateEscapeOnAir@ioAttackSkill@@UBE_NPAVioBaseChar@@@Z:PROC ; ioAttackSkill::IsCanStateEscapeOnAir
EXTRN	?IsCanStateEscapeOnDown@ioAttackSkill@@UBE_NPAVioBaseChar@@@Z:PROC ; ioAttackSkill::IsCanStateEscapeOnDown
;	COMDAT ??_R2ioSkill@@8
; File c:\program files (x86)\microsoft visual studio 10.0\vc\include\xmemory
rdata$r	SEGMENT
??_R2ioSkill@@8 DD FLAT:??_R1A@?0A@EA@ioSkill@@8	; ioSkill::`RTTI Base Class Array'
rdata$r	ENDS
;	COMDAT ??_R3ioSkill@@8
rdata$r	SEGMENT
??_R3ioSkill@@8 DD 00H					; ioSkill::`RTTI Class Hierarchy Descriptor'
	DD	00H
	DD	01H
	DD	FLAT:??_R2ioSkill@@8
rdata$r	ENDS
;	COMDAT ??_R0?AVioSkill@@@8
_DATA	SEGMENT
??_R0?AVioSkill@@@8 DD FLAT:??_7type_info@@6B@		; ioSkill `RTTI Type Descriptor'
	DD	00H
	DB	'.?AVioSkill@@', 00H
_DATA	ENDS
;	COMDAT ??_R1A@?0A@EA@ioSkill@@8
rdata$r	SEGMENT
??_R1A@?0A@EA@ioSkill@@8 DD FLAT:??_R0?AVioSkill@@@8	; ioSkill::`RTTI Base Class Descriptor at (0,-1,0,64)'
	DD	00H
	DD	00H
	DD	0ffffffffH
	DD	00H
	DD	040H
	DD	FLAT:??_R3ioSkill@@8
rdata$r	ENDS
;	COMDAT ??_R2ioAttackSkill@@8
rdata$r	SEGMENT
??_R2ioAttackSkill@@8 DD FLAT:??_R1A@?0A@EA@ioAttackSkill@@8 ; ioAttackSkill::`RTTI Base Class Array'
	DD	FLAT:??_R1A@?0A@EA@ioSkill@@8
rdata$r	ENDS
;	COMDAT ??_R3ioAttackSkill@@8
rdata$r	SEGMENT
??_R3ioAttackSkill@@8 DD 00H				; ioAttackSkill::`RTTI Class Hierarchy Descriptor'
	DD	00H
	DD	02H
	DD	FLAT:??_R2ioAttackSkill@@8
rdata$r	ENDS
;	COMDAT ??_R0?AVioAttackSkill@@@8
_DATA	SEGMENT
??_R0?AVioAttackSkill@@@8 DD FLAT:??_7type_info@@6B@	; ioAttackSkill `RTTI Type Descriptor'
	DD	00H
	DB	'.?AVioAttackSkill@@', 00H
_DATA	ENDS
;	COMDAT ??_R1A@?0A@EA@ioAttackSkill@@8
rdata$r	SEGMENT
??_R1A@?0A@EA@ioAttackSkill@@8 DD FLAT:??_R0?AVioAttackSkill@@@8 ; ioAttackSkill::`RTTI Base Class Descriptor at (0,-1,0,64)'
	DD	01H
	DD	00H
	DD	0ffffffffH
	DD	00H
	DD	040H
	DD	FLAT:??_R3ioAttackSkill@@8
rdata$r	ENDS
;	COMDAT ??_R1A@?0A@EA@ioConsecution2Skill@@8
rdata$r	SEGMENT
??_R1A@?0A@EA@ioConsecution2Skill@@8 DD FLAT:??_R0?AVioConsecution2Skill@@@8 ; ioConsecution2Skill::`RTTI Base Class Descriptor at (0,-1,0,64)'
	DD	02H
	DD	00H
	DD	0ffffffffH
	DD	00H
	DD	040H
	DD	FLAT:??_R3ioConsecution2Skill@@8
rdata$r	ENDS
;	COMDAT ??_R2ioConsecution2Skill@@8
rdata$r	SEGMENT
??_R2ioConsecution2Skill@@8 DD FLAT:??_R1A@?0A@EA@ioConsecution2Skill@@8 ; ioConsecution2Skill::`RTTI Base Class Array'
	DD	FLAT:??_R1A@?0A@EA@ioAttackSkill@@8
	DD	FLAT:??_R1A@?0A@EA@ioSkill@@8
rdata$r	ENDS
;	COMDAT ??_R3ioConsecution2Skill@@8
rdata$r	SEGMENT
??_R3ioConsecution2Skill@@8 DD 00H			; ioConsecution2Skill::`RTTI Class Hierarchy Descriptor'
	DD	00H
	DD	03H
	DD	FLAT:??_R2ioConsecution2Skill@@8
rdata$r	ENDS
;	COMDAT ??_R0?AVioConsecution2Skill@@@8
_DATA	SEGMENT
??_R0?AVioConsecution2Skill@@@8 DD FLAT:??_7type_info@@6B@ ; ioConsecution2Skill `RTTI Type Descriptor'
	DD	00H
	DB	'.?AVioConsecution2Skill@@', 00H
_DATA	ENDS
;	COMDAT ??_R4ioConsecution2Skill@@6B@
rdata$r	SEGMENT
??_R4ioConsecution2Skill@@6B@ DD 00H			; ioConsecution2Skill::`RTTI Complete Object Locator'
	DD	00H
	DD	00H
	DD	FLAT:??_R0?AVioConsecution2Skill@@@8
	DD	FLAT:??_R3ioConsecution2Skill@@8
rdata$r	ENDS
;	COMDAT ??_7ioConsecution2Skill@@6B@
CONST	SEGMENT
??_7ioConsecution2Skill@@6B@ DD FLAT:??_R4ioConsecution2Skill@@6B@ ; ioConsecution2Skill::`vftable'
	DD	FLAT:?LoadProperty@ioConsecution2Skill@@UAEXAAVioINILoader@@@Z
	DD	FLAT:?Clone@ioConsecution2Skill@@UAEPAVioSkill@@XZ
	DD	FLAT:?GetTypeID@ioAttackSkill@@UBEHXZ
	DD	FLAT:?IsProtected@ioConsecution2Skill@@UBE_NH@Z
	DD	FLAT:?IsCanSwitchSkill@ioSkill@@UBE_NXZ
	DD	FLAT:?IsCanSemiSwitchSkill@ioSkill@@UBE_NXZ
	DD	FLAT:?IsCanCancelBySkill@ioSkill@@UBE_NPAVioBaseChar@@AAH@Z
	DD	FLAT:?IsCanUseZeroHP@ioSkill@@UBE_NPAVioBaseChar@@@Z
	DD	FLAT:?IsCanUseSkillWithCrown@ioSkill@@UAE_NPAVioBaseChar@@@Z
	DD	FLAT:?IsCanUseBoss@ioSkill@@UBE_NPAVioBaseChar@@@Z
	DD	FLAT:?IsCanUseFootball@ioSkill@@UBE_NXZ
	DD	FLAT:?IsCanUseGangSiMode@ioSkill@@UBE_NXZ
	DD	FLAT:?IsCanUseByWeaponType@ioSkill@@UBE_NPAVioBaseChar@@@Z
	DD	FLAT:?IsCanUseThunderBirdHold@ioSkill@@UBE_NPAVioBaseChar@@@Z
	DD	FLAT:?IsCanUseLimitHP@ioSkill@@UBE_NPAVioBaseChar@@@Z
	DD	FLAT:?IsCanUseSkill@ioAttackSkill@@UAE_NPAVioBaseChar@@_N@Z
	DD	FLAT:?IsOnOffEnable@ioSkill@@UAE_NXZ
	DD	FLAT:?IsCanDefenseStateSkill@ioSkill@@UAE_NXZ
	DD	FLAT:?SetDefenseStateSkill@ioSkill@@UAEXPAVioBaseChar@@@Z
	DD	FLAT:?GetDefenseSkillBreakeType@ioSkill@@UBE?AW4DefenseBreakType@@XZ
	DD	FLAT:?HasBuff@ioSkill@@UBE_NH@Z
	DD	FLAT:?GetBuffType@ioSkill@@UAEHH@Z
	DD	FLAT:?IsEnableReserve@ioSkill@@UBE_NXZ
	DD	FLAT:?IsSkillMotionEnd@ioConsecution2Skill@@UBE_NKPAVioBaseChar@@@Z
	DD	FLAT:?IsCharSkipState@ioSkill@@UBE?AW4SkillCharColType@@XZ
	DD	FLAT:?IsEntityCollisionSkipState@ioSkill@@UBE_NXZ
	DD	FLAT:?GetSkillEndNextJumpAmt@ioSkill@@UBEMXZ
	DD	FLAT:?GetSkillEndNextLandRate@ioSkill@@UBEMXZ
	DD	FLAT:?GetSkillEndNextJumpMustEnable@ioSkill@@UAE?AW4SkillEndJumpType@@XZ
	DD	FLAT:?IsEndState@ioSkill@@UBE_NXZ
	DD	FLAT:?IsAttackEndState@ioAttackSkill@@UBE_NXZ
	DD	FLAT:?IsJumpState@ioSkill@@UBE_NXZ
	DD	FLAT:?IsDownState@ioSkill@@UBE_NXZ
	DD	FLAT:?IsNoDropState@ioSkill@@UBE_NXZ
	DD	FLAT:?IsCanSendControl@ioSkill@@UBE_NXZ
	DD	FLAT:?IsSkipState@ioSkill@@UBE_NXZ
	DD	FLAT:?GetSkillMoveRate@ioSkill@@UBEMXZ
	DD	FLAT:?SetSkillGrapplingState@ioSkill@@UAE_NPAVioBaseChar@@ABVioHashString@@@Z
	DD	FLAT:?GetGrapplingTargetPos@ioSkill@@UAE?AUD3DXVECTOR3@@PAVioBaseChar@@0@Z
	DD	FLAT:?GetGrapplingTargetPos@ioSkill@@UAE?AUD3DXVECTOR3@@PAVioBaseChar@@@Z
	DD	FLAT:?EnableChangeGrapplingTargetPos@ioSkill@@UBE_NXZ
	DD	FLAT:?GetSkillWoundGrapplingInfo@ioSkill@@UAE?AUGrapplingSkillWoundedInfo@@XZ
	DD	FLAT:?SetCreateWeaponDependency@ioSkill@@UAEXPAVioBaseChar@@PAVioPlayStage@@@Z
	DD	FLAT:?SetNextSkillState@ioSkill@@UAEXPAVioBaseChar@@PAVioWeapon@@@Z
	DD	FLAT:?OnSkillStart@ioConsecution2Skill@@UAE_NPAVioBaseChar@@@Z
	DD	FLAT:?OnProcessState@ioConsecution2Skill@@UAEXPAVioBaseChar@@PAVioPlayStage@@@Z
	DD	FLAT:?OnSkillEndByWounded@ioSkill@@UAEXPAVioBaseChar@@@Z
	DD	FLAT:?OnSkillEnd@ioConsecution2Skill@@UAEXPAVioBaseChar@@@Z
	DD	FLAT:?OnProcessNotUseSkill@ioSkill@@UAEXPAVioBaseChar@@PAVioPlayStage@@@Z
	DD	FLAT:?OnSkillItemRelease@ioSkill@@UAEXPAVioBaseChar@@@Z
	DD	FLAT:?ApplyAttributeToWeapon@ioConsecution2Skill@@UAEXPAVioWeapon@@PAVioPlayStage@@@Z
	DD	FLAT:?ApplyExtraSkillInfo@ioConsecution2Skill@@UAEXPAVioBaseChar@@PAVioPlayStage@@AAVSP2Packet@@@Z
	DD	FLAT:?ApplyEquipSlotSkillExtraInfo@ioSkill@@UAEXPAVioBaseChar@@PAVioPlayStage@@AAVSP2Packet@@@Z
	DD	FLAT:?ApplyExtraPassiveSkillInfo@ioSkill@@UAEXPAVioBaseChar@@PAVioPlayStage@@AAVSP2Packet@@@Z
	DD	FLAT:?StartPreDelayEffect@ioAttackSkill@@UAEXPAVioBaseChar@@@Z
	DD	FLAT:?EndPreDelayEffect@ioAttackSkill@@UAEXPAVioBaseChar@@@Z
	DD	FLAT:?IsUseAutoTargetValue@ioAttackSkill@@UAE_NXZ
	DD	FLAT:?IsAutoTargetDownState@ioSkill@@UAE_NXZ
	DD	FLAT:?CheckUseBuff@ioSkill@@UAE_NPAVioBaseChar@@@Z
	DD	FLAT:?CheckUseItemMesh@ioConsecution2Skill@@UAE_NXZ
	DD	FLAT:?CheckUseActiveCount@ioSkill@@UAE_NXZ
	DD	FLAT:?CheckAniRotate@ioSkill@@UAEXPAVioBaseChar@@@Z
	DD	FLAT:?IsEnableDashCheck@ioSkill@@UAE_NPAVioBaseChar@@@Z
	DD	FLAT:?IsEnableMultiActive@ioSkill@@UAE_NPAVioBaseChar@@@Z
	DD	FLAT:?IsInvisibleBottomCircle@ioSkill@@UAE_NPAVioBaseChar@@@Z
	DD	FLAT:?GetAutoTargetValue@ioSkill@@UAEXAAM00@Z
	DD	FLAT:?IsCanJumpingSkill@ioSkill@@UBE_NXZ
	DD	FLAT:?IsCanJumpingSkillOnBlowWound@ioSkill@@UBE_NXZ
	DD	FLAT:?IsCanDownSkill@ioSkill@@UBE_NXZ
	DD	FLAT:?IsCanBlowWoundSkill@ioSkill@@UBE_NXZ
	DD	FLAT:?IsCanWoundSkill@ioSkill@@UBE_NXZ
	DD	FLAT:?GetSkillGravityRate@ioSkill@@UAEMXZ
	DD	FLAT:?GetSkillMotionName@ioSkill@@UBEABVioHashString@@XZ
	DD	FLAT:?HasSkillMotion@ioSkill@@UBE_NXZ
	DD	FLAT:?GetSkillMotionRate@ioSkill@@UBEMXZ
	DD	FLAT:?IsPreDelayProtect@ioSkill@@UBE_NXZ
	DD	FLAT:?GetPreDelayAniName@ioSkill@@UBEABVioHashString@@XZ
	DD	FLAT:?GetPreDelayTime@ioSkill@@UBEKXZ
	DD	FLAT:?GetPreDelayOwnerEffect@ioSkill@@UBEABVioHashString@@XZ
	DD	FLAT:?GetPreDelayOtherEffect@ioSkill@@UBEABVioHashString@@XZ
	DD	FLAT:?SetCancelSkill@ioSkill@@UAEXPAVioBaseChar@@@Z
	DD	FLAT:?ClearAirJump@ioSkill@@MAEXXZ
	DD	FLAT:?SetAirJump@ioSkill@@MAEXPAVioBaseChar@@HM@Z
	DD	FLAT:?CheckAirJump@ioSkill@@MAEXPAVioBaseChar@@@Z
	DD	FLAT:?UseActiveCount@ioSkill@@UAE_NPAVioBaseChar@@@Z
	DD	FLAT:?GetMaxActiveCount@ioSkill@@UAEHPAVioBaseChar@@@Z
	DD	FLAT:?GetCurActiveCount@ioSkill@@UAEHPAVioBaseChar@@@Z
	DD	FLAT:?HideHPGauge@ioSkill@@UAE_NXZ
	DD	FLAT:?SetInfoByApplyWeapon@ioSkill@@UAEXPAVioBaseChar@@0K_N@Z
	DD	FLAT:?SetCollisionByApplySkill@ioSkill@@UAEXXZ
	DD	FLAT:?SetChargingRateForWeapon@ioSkill@@UAEXPAVioWeapon@@@Z
	DD	FLAT:?CheckExceptionCamera@ioSkill@@UAE_NXZ
	DD	FLAT:?GetExceptionCameraPos@ioSkill@@UAE?AUD3DXVECTOR3@@PAVioBaseChar@@@Z
	DD	FLAT:?IsFixedExceptionCamera@ioSkill@@UAE_NXZ
	DD	FLAT:?IsUseActiveCnt@ioSkill@@UBE_NXZ
	DD	FLAT:?GetMaxActiveCnt@ioSkill@@UBEHPAVioBaseChar@@@Z
	DD	FLAT:?GetCurActiveCnt@ioSkill@@UBEHPAVioBaseChar@@@Z
	DD	FLAT:??_EioConsecution2Skill@@UAEPAXI@Z
	DD	FLAT:?StartPreDelayAnimation@ioAttackSkill@@MAE_NPAVioBaseChar@@@Z
	DD	FLAT:?AttackSkillFire@ioConsecution2Skill@@MAEXPAVioBaseChar@@@Z
	DD	FLAT:?GetAttackTimeRate@ioAttackSkill@@MBEMXZ
	DD	FLAT:?GetAttackEndTimeRate@ioAttackSkill@@MBEMXZ
	DD	FLAT:?LoadNormalAttribute@ioAttackSkill@@MAEXAAVioINILoader@@@Z
	DD	FLAT:?LoadDownAttribute@ioAttackSkill@@MAEXAAVioINILoader@@@Z
	DD	FLAT:?LoadJumpAttribute@ioAttackSkill@@MAEXAAVioINILoader@@@Z
	DD	FLAT:?GetAttribute@ioAttackSkill@@UAEAAUAttackAttribute@@XZ
	DD	FLAT:?GetAttributeConst@ioAttackSkill@@UBEABUAttackAttribute@@XZ
	DD	FLAT:?IsCanStateEscape@ioAttackSkill@@UBE_NXZ
	DD	FLAT:?IsCanStateEscapeOnStand@ioAttackSkill@@UBE_NPAVioBaseChar@@@Z
	DD	FLAT:?IsCanStateEscapeOnAir@ioAttackSkill@@UBE_NPAVioBaseChar@@@Z
	DD	FLAT:?IsCanStateEscapeOnDown@ioAttackSkill@@UBE_NPAVioBaseChar@@@Z
CONST	ENDS
;	COMDAT xdata$x
xdata$x	SEGMENT
__ehfuncinfo$??0ioConsecution2Skill@@QAE@XZ DD 019930522H
	DD	0cH
	DD	FLAT:__unwindtable$??0ioConsecution2Skill@@QAE@XZ
	DD	2 DUP(00H)
	DD	2 DUP(00H)
	DD	00H
	DD	01H
__unwindtable$??0ioConsecution2Skill@@QAE@XZ DD 0ffffffffH
	DD	FLAT:__unwindfunclet$??0ioConsecution2Skill@@QAE@XZ$0
	DD	00H
	DD	FLAT:__unwindfunclet$??0ioConsecution2Skill@@QAE@XZ$1
	DD	01H
	DD	FLAT:__unwindfunclet$??0ioConsecution2Skill@@QAE@XZ$2
	DD	02H
	DD	FLAT:__unwindfunclet$??0ioConsecution2Skill@@QAE@XZ$3
	DD	03H
	DD	FLAT:__unwindfunclet$??0ioConsecution2Skill@@QAE@XZ$4
	DD	04H
	DD	FLAT:__unwindfunclet$??0ioConsecution2Skill@@QAE@XZ$5
	DD	05H
	DD	FLAT:__unwindfunclet$??0ioConsecution2Skill@@QAE@XZ$6
	DD	06H
	DD	FLAT:__unwindfunclet$??0ioConsecution2Skill@@QAE@XZ$7
	DD	07H
	DD	FLAT:__unwindfunclet$??0ioConsecution2Skill@@QAE@XZ$8
	DD	08H
	DD	FLAT:__unwindfunclet$??0ioConsecution2Skill@@QAE@XZ$9
	DD	09H
	DD	FLAT:__unwindfunclet$??0ioConsecution2Skill@@QAE@XZ$10
	DD	0aH
	DD	FLAT:__unwindfunclet$??0ioConsecution2Skill@@QAE@XZ$11
; Function compile flags: /Ogsp
; File d:\lost saga for developer\youtube\tutorial\source\src\lsclient\ioconsecution2skill.cpp
xdata$x	ENDS
;	COMDAT ??0ioConsecution2Skill@@QAE@XZ
_TEXT	SEGMENT
_this$ = -16						; size = 4
__$EHRec$ = -12						; size = 12
??0ioConsecution2Skill@@QAE@XZ PROC			; ioConsecution2Skill::ioConsecution2Skill, COMDAT
; _this$ = ecx

; 12   : {

  00000	6a 04		 push	 4
  00002	b8 00 00 00 00	 mov	 eax, __ehhandler$??0ioConsecution2Skill@@QAE@XZ
  00007	e8 00 00 00 00	 call	 __EH_prolog3
  0000c	8b f1		 mov	 esi, ecx
  0000e	89 75 f0	 mov	 DWORD PTR _this$[ebp], esi
  00011	e8 00 00 00 00	 call	 ??0ioAttackSkill@@QAE@XZ ; ioAttackSkill::ioAttackSkill
  00016	8b 3d 00 00 00
	00		 mov	 edi, DWORD PTR __imp_??0ioHashString@@QAE@XZ
  0001c	33 db		 xor	 ebx, ebx
  0001e	8d 8e ec 10 00
	00		 lea	 ecx, DWORD PTR [esi+4332]
  00024	89 5d fc	 mov	 DWORD PTR __$EHRec$[ebp+8], ebx
  00027	c7 06 00 00 00
	00		 mov	 DWORD PTR [esi], OFFSET ??_7ioConsecution2Skill@@6B@
  0002d	ff d7		 call	 edi
  0002f	8d 8e fc 10 00
	00		 lea	 ecx, DWORD PTR [esi+4348]
  00035	c6 45 fc 01	 mov	 BYTE PTR __$EHRec$[ebp+8], 1
  00039	e8 00 00 00 00	 call	 ??0?$CEncrypt@M@@QAE@XZ	; CEncrypt<float>::CEncrypt<float>
  0003e	8d 8e 30 11 00
	00		 lea	 ecx, DWORD PTR [esi+4400]
  00044	c6 45 fc 02	 mov	 BYTE PTR __$EHRec$[ebp+8], 2
  00048	ff d7		 call	 edi
  0004a	89 9e 40 11 00
	00		 mov	 DWORD PTR [esi+4416], ebx
  00050	89 9e 44 11 00
	00		 mov	 DWORD PTR [esi+4420], ebx
  00056	89 9e 48 11 00
	00		 mov	 DWORD PTR [esi+4424], ebx
  0005c	8d 8e 50 11 00
	00		 lea	 ecx, DWORD PTR [esi+4432]
  00062	c6 45 fc 04	 mov	 BYTE PTR __$EHRec$[ebp+8], 4
  00066	ff d7		 call	 edi
  00068	8d 8e 60 11 00
	00		 lea	 ecx, DWORD PTR [esi+4448]
  0006e	c6 45 fc 05	 mov	 BYTE PTR __$EHRec$[ebp+8], 5
  00072	e8 00 00 00 00	 call	 ??0?$CEncrypt@M@@QAE@XZ	; CEncrypt<float>::CEncrypt<float>
  00077	8d 8e 90 11 00
	00		 lea	 ecx, DWORD PTR [esi+4496]
  0007d	c6 45 fc 06	 mov	 BYTE PTR __$EHRec$[ebp+8], 6
  00081	e8 00 00 00 00	 call	 ??0?$CEncrypt@K@@QAE@XZ	; CEncrypt<unsigned long>::CEncrypt<unsigned long>
  00086	8d 8e c0 11 00
	00		 lea	 ecx, DWORD PTR [esi+4544]
  0008c	c6 45 fc 07	 mov	 BYTE PTR __$EHRec$[ebp+8], 7
  00090	ff d7		 call	 edi
  00092	8d 8e d0 11 00
	00		 lea	 ecx, DWORD PTR [esi+4560]
  00098	c6 45 fc 08	 mov	 BYTE PTR __$EHRec$[ebp+8], 8
  0009c	ff d7		 call	 edi
  0009e	8d 8e e0 11 00
	00		 lea	 ecx, DWORD PTR [esi+4576]
  000a4	c6 45 fc 09	 mov	 BYTE PTR __$EHRec$[ebp+8], 9
  000a8	ff d7		 call	 edi
  000aa	8d 8e f0 11 00
	00		 lea	 ecx, DWORD PTR [esi+4592]
  000b0	c6 45 fc 0a	 mov	 BYTE PTR __$EHRec$[ebp+8], 10 ; 0000000aH
  000b4	ff d7		 call	 edi
  000b6	8d 8e 04 12 00
	00		 lea	 ecx, DWORD PTR [esi+4612]
  000bc	c6 45 fc 0b	 mov	 BYTE PTR __$EHRec$[ebp+8], 11 ; 0000000bH
  000c0	e8 00 00 00 00	 call	 ??0WeaponInfo@@QAE@XZ	; WeaponInfo::WeaponInfo

; 13   : 	ClearData();

  000c5	8b ce		 mov	 ecx, esi
  000c7	89 9e 2c 12 00
	00		 mov	 DWORD PTR [esi+4652], ebx
  000cd	89 9e 30 12 00
	00		 mov	 DWORD PTR [esi+4656], ebx
  000d3	89 9e 34 12 00
	00		 mov	 DWORD PTR [esi+4660], ebx
  000d9	e8 00 00 00 00	 call	 ?ClearData@ioConsecution2Skill@@IAEXXZ ; ioConsecution2Skill::ClearData

; 14   : }

  000de	8b c6		 mov	 eax, esi
  000e0	e8 00 00 00 00	 call	 __EH_epilog3
  000e5	c3		 ret	 0
_TEXT	ENDS
;	COMDAT text$x
text$x	SEGMENT
__unwindfunclet$??0ioConsecution2Skill@@QAE@XZ$0:
  00000	8b 4d f0	 mov	 ecx, DWORD PTR _this$[ebp]
  00003	e9 00 00 00 00	 jmp	 ??1ioAttackSkill@@UAE@XZ ; ioAttackSkill::~ioAttackSkill
__unwindfunclet$??0ioConsecution2Skill@@QAE@XZ$1:
  00008	8b 4d f0	 mov	 ecx, DWORD PTR _this$[ebp]
  0000b	81 c1 ec 10 00
	00		 add	 ecx, 4332		; 000010ecH
  00011	ff 25 00 00 00
	00		 jmp	 DWORD PTR __imp_??1ioHashString@@QAE@XZ
__unwindfunclet$??0ioConsecution2Skill@@QAE@XZ$2:
  00017	8b 4d f0	 mov	 ecx, DWORD PTR _this$[ebp]
  0001a	81 c1 fc 10 00
	00		 add	 ecx, 4348		; 000010fcH
  00020	e9 00 00 00 00	 jmp	 ??1?$CEncrypt@M@@UAE@XZ	; CEncrypt<float>::~CEncrypt<float>
__unwindfunclet$??0ioConsecution2Skill@@QAE@XZ$3:
  00025	8b 4d f0	 mov	 ecx, DWORD PTR _this$[ebp]
  00028	81 c1 30 11 00
	00		 add	 ecx, 4400		; 00001130H
  0002e	ff 25 00 00 00
	00		 jmp	 DWORD PTR __imp_??1ioHashString@@QAE@XZ
__unwindfunclet$??0ioConsecution2Skill@@QAE@XZ$4:
  00034	8b 4d f0	 mov	 ecx, DWORD PTR _this$[ebp]
  00037	81 c1 40 11 00
	00		 add	 ecx, 4416		; 00001140H
  0003d	e9 00 00 00 00	 jmp	 ??1?$vector@KV?$allocator@K@std@@@std@@QAE@XZ ; std::vector<unsigned long,std::allocator<unsigned long> >::~vector<unsigned long,std::allocator<unsigned long> >
__unwindfunclet$??0ioConsecution2Skill@@QAE@XZ$5:
  00042	8b 4d f0	 mov	 ecx, DWORD PTR _this$[ebp]
  00045	81 c1 50 11 00
	00		 add	 ecx, 4432		; 00001150H
  0004b	ff 25 00 00 00
	00		 jmp	 DWORD PTR __imp_??1ioHashString@@QAE@XZ
__unwindfunclet$??0ioConsecution2Skill@@QAE@XZ$6:
  00051	8b 4d f0	 mov	 ecx, DWORD PTR _this$[ebp]
  00054	81 c1 60 11 00
	00		 add	 ecx, 4448		; 00001160H
  0005a	e9 00 00 00 00	 jmp	 ??1?$CEncrypt@M@@UAE@XZ	; CEncrypt<float>::~CEncrypt<float>
__unwindfunclet$??0ioConsecution2Skill@@QAE@XZ$7:
  0005f	8b 4d f0	 mov	 ecx, DWORD PTR _this$[ebp]
  00062	81 c1 90 11 00
	00		 add	 ecx, 4496		; 00001190H
  00068	e9 00 00 00 00	 jmp	 ??1?$CEncrypt@K@@UAE@XZ	; CEncrypt<unsigned long>::~CEncrypt<unsigned long>
__unwindfunclet$??0ioConsecution2Skill@@QAE@XZ$8:
  0006d	8b 4d f0	 mov	 ecx, DWORD PTR _this$[ebp]
  00070	81 c1 c0 11 00
	00		 add	 ecx, 4544		; 000011c0H
  00076	ff 25 00 00 00
	00		 jmp	 DWORD PTR __imp_??1ioHashString@@QAE@XZ
__unwindfunclet$??0ioConsecution2Skill@@QAE@XZ$9:
  0007c	8b 4d f0	 mov	 ecx, DWORD PTR _this$[ebp]
  0007f	81 c1 d0 11 00
	00		 add	 ecx, 4560		; 000011d0H
  00085	ff 25 00 00 00
	00		 jmp	 DWORD PTR __imp_??1ioHashString@@QAE@XZ
__unwindfunclet$??0ioConsecution2Skill@@QAE@XZ$10:
  0008b	8b 4d f0	 mov	 ecx, DWORD PTR _this$[ebp]
  0008e	81 c1 e0 11 00
	00		 add	 ecx, 4576		; 000011e0H
  00094	ff 25 00 00 00
	00		 jmp	 DWORD PTR __imp_??1ioHashString@@QAE@XZ
__unwindfunclet$??0ioConsecution2Skill@@QAE@XZ$11:
  0009a	8b 4d f0	 mov	 ecx, DWORD PTR _this$[ebp]
  0009d	81 c1 f0 11 00
	00		 add	 ecx, 4592		; 000011f0H
  000a3	ff 25 00 00 00
	00		 jmp	 DWORD PTR __imp_??1ioHashString@@QAE@XZ
__ehhandler$??0ioConsecution2Skill@@QAE@XZ:
  000a9	8b 54 24 08	 mov	 edx, DWORD PTR [esp+8]
  000ad	8d 42 0c	 lea	 eax, DWORD PTR [edx+12]
  000b0	8b 4a ec	 mov	 ecx, DWORD PTR [edx-20]
  000b3	33 c8		 xor	 ecx, eax
  000b5	e8 00 00 00 00	 call	 @__security_check_cookie@4
  000ba	b8 00 00 00 00	 mov	 eax, OFFSET __ehfuncinfo$??0ioConsecution2Skill@@QAE@XZ
  000bf	e9 00 00 00 00	 jmp	 ___CxxFrameHandler3
text$x	ENDS
??0ioConsecution2Skill@@QAE@XZ ENDP			; ioConsecution2Skill::ioConsecution2Skill
; Function compile flags: /Ogsp
; File d:\lost saga for developer\youtube\tutorial\source\src\lsclient\ioskill.h
;	COMDAT ?GetDefenseSkillBreakeType@ioSkill@@UBE?AW4DefenseBreakType@@XZ
_TEXT	SEGMENT
?GetDefenseSkillBreakeType@ioSkill@@UBE?AW4DefenseBreakType@@XZ PROC ; ioSkill::GetDefenseSkillBreakeType, COMDAT
; _this$ = ecx

; 327  : 	virtual DefenseBreakType GetDefenseSkillBreakeType() const { return m_eDefenseSkillBreakType; }

  00000	8b 81 30 0e 00
	00		 mov	 eax, DWORD PTR [ecx+3632]
  00006	c3		 ret	 0
?GetDefenseSkillBreakeType@ioSkill@@UBE?AW4DefenseBreakType@@XZ ENDP ; ioSkill::GetDefenseSkillBreakeType
; Function compile flags: /Ogsp
_TEXT	ENDS
;	COMDAT ?GetSkillEndNextJumpAmt@ioSkill@@UBEMXZ
_TEXT	SEGMENT
?GetSkillEndNextJumpAmt@ioSkill@@UBEMXZ PROC		; ioSkill::GetSkillEndNextJumpAmt, COMDAT
; _this$ = ecx

; 335  : 	virtual float GetSkillEndNextJumpAmt() const { return m_fSkillEndNextJumpAmt; }

  00000	d9 81 4c 05 00
	00		 fld	 DWORD PTR [ecx+1356]
  00006	c3		 ret	 0
?GetSkillEndNextJumpAmt@ioSkill@@UBEMXZ ENDP		; ioSkill::GetSkillEndNextJumpAmt
; Function compile flags: /Ogsp
_TEXT	ENDS
;	COMDAT ?GetSkillEndNextLandRate@ioSkill@@UBEMXZ
_TEXT	SEGMENT
?GetSkillEndNextLandRate@ioSkill@@UBEMXZ PROC		; ioSkill::GetSkillEndNextLandRate, COMDAT
; _this$ = ecx

; 336  : 	virtual float GetSkillEndNextLandRate() const { return m_fSkillEndNextLandRate; }

  00000	d9 81 50 05 00
	00		 fld	 DWORD PTR [ecx+1360]
  00006	c3		 ret	 0
?GetSkillEndNextLandRate@ioSkill@@UBEMXZ ENDP		; ioSkill::GetSkillEndNextLandRate
; Function compile flags: /Ogsp
_TEXT	ENDS
;	COMDAT ?GetSkillEndNextJumpMustEnable@ioSkill@@UAE?AW4SkillEndJumpType@@XZ
_TEXT	SEGMENT
?GetSkillEndNextJumpMustEnable@ioSkill@@UAE?AW4SkillEndJumpType@@XZ PROC ; ioSkill::GetSkillEndNextJumpMustEnable, COMDAT
; _this$ = ecx

; 337  : 	virtual SkillEndJumpType GetSkillEndNextJumpMustEnable(){ return SEJT_DEFAULT; }

  00000	33 c0		 xor	 eax, eax
  00002	c3		 ret	 0
?GetSkillEndNextJumpMustEnable@ioSkill@@UAE?AW4SkillEndJumpType@@XZ ENDP ; ioSkill::GetSkillEndNextJumpMustEnable
; Function compile flags: /Ogsp
_TEXT	ENDS
;	COMDAT ?EnableChangeGrapplingTargetPos@ioSkill@@UBE_NXZ
_TEXT	SEGMENT
?EnableChangeGrapplingTargetPos@ioSkill@@UBE_NXZ PROC	; ioSkill::EnableChangeGrapplingTargetPos, COMDAT
; _this$ = ecx

; 355  : 	virtual bool EnableChangeGrapplingTargetPos() const { return m_bChangeGrapplingTargetPos; }

  00000	8a 81 40 09 00
	00		 mov	 al, BYTE PTR [ecx+2368]
  00006	c3		 ret	 0
?EnableChangeGrapplingTargetPos@ioSkill@@UBE_NXZ ENDP	; ioSkill::EnableChangeGrapplingTargetPos
; Function compile flags: /Ogsp
_TEXT	ENDS
;	COMDAT ?IsInvisibleBottomCircle@ioSkill@@UAE_NPAVioBaseChar@@@Z
_TEXT	SEGMENT
_pChar$ = 8						; size = 4
?IsInvisibleBottomCircle@ioSkill@@UAE_NPAVioBaseChar@@@Z PROC ; ioSkill::IsInvisibleBottomCircle, COMDAT
; _this$ = ecx

; 393  : 	virtual bool IsInvisibleBottomCircle( ioBaseChar *pChar ) { return false; }

  00000	32 c0		 xor	 al, al
  00002	c2 04 00	 ret	 4
?IsInvisibleBottomCircle@ioSkill@@UAE_NPAVioBaseChar@@@Z ENDP ; ioSkill::IsInvisibleBottomCircle
; Function compile flags: /Ogsp
_TEXT	ENDS
;	COMDAT ?IsUseActiveCnt@ioSkill@@UBE_NXZ
_TEXT	SEGMENT
?IsUseActiveCnt@ioSkill@@UBE_NXZ PROC			; ioSkill::IsUseActiveCnt, COMDAT
; _this$ = ecx

; 544  : 	virtual bool IsUseActiveCnt() const { return false; }

  00000	32 c0		 xor	 al, al
  00002	c3		 ret	 0
?IsUseActiveCnt@ioSkill@@UBE_NXZ ENDP			; ioSkill::IsUseActiveCnt
; Function compile flags: /Ogsp
_TEXT	ENDS
;	COMDAT ?GetMaxActiveCnt@ioSkill@@UBEHPAVioBaseChar@@@Z
_TEXT	SEGMENT
_pChar$ = 8						; size = 4
?GetMaxActiveCnt@ioSkill@@UBEHPAVioBaseChar@@@Z PROC	; ioSkill::GetMaxActiveCnt, COMDAT
; _this$ = ecx

; 545  : 	virtual int GetMaxActiveCnt( ioBaseChar *pChar ) const { return 0; }

  00000	33 c0		 xor	 eax, eax
  00002	c2 04 00	 ret	 4
?GetMaxActiveCnt@ioSkill@@UBEHPAVioBaseChar@@@Z ENDP	; ioSkill::GetMaxActiveCnt
; Function compile flags: /Ogsp
_TEXT	ENDS
;	COMDAT ?GetCurActiveCnt@ioSkill@@UBEHPAVioBaseChar@@@Z
_TEXT	SEGMENT
_pChar$ = 8						; size = 4
?GetCurActiveCnt@ioSkill@@UBEHPAVioBaseChar@@@Z PROC	; ioSkill::GetCurActiveCnt, COMDAT
; _this$ = ecx

; 546  : 	virtual int GetCurActiveCnt( ioBaseChar *pChar ) const { return 0; }

  00000	33 c0		 xor	 eax, eax
  00002	c2 04 00	 ret	 4
?GetCurActiveCnt@ioSkill@@UBEHPAVioBaseChar@@@Z ENDP	; ioSkill::GetCurActiveCnt
; Function compile flags: /Ogsp
_TEXT	ENDS
;	COMDAT ?IsCanJumpingSkill@ioSkill@@UBE_NXZ
_TEXT	SEGMENT
_value$538415 = -1					; size = 1
?IsCanJumpingSkill@ioSkill@@UBE_NXZ PROC		; ioSkill::IsCanJumpingSkill, COMDAT
; _this$ = ecx

; 431  : 	virtual bool IsCanJumpingSkill() const { return m_bEnableJumpingSkill; }

  00000	55		 push	 ebp
  00001	8b ec		 mov	 ebp, esp
  00003	51		 push	 ecx
  00004	8d 45 ff	 lea	 eax, DWORD PTR _value$538415[ebp]
  00007	50		 push	 eax
  00008	81 c1 9c 03 00
	00		 add	 ecx, 924		; 0000039cH
  0000e	e8 00 00 00 00	 call	 ?DecryptValueToPool@?$CEncrypt@_N@@QAEXPA_N@Z ; CEncrypt<bool>::DecryptValueToPool
  00013	8a 45 ff	 mov	 al, BYTE PTR _value$538415[ebp]
  00016	c9		 leave
  00017	c3		 ret	 0
?IsCanJumpingSkill@ioSkill@@UBE_NXZ ENDP		; ioSkill::IsCanJumpingSkill
; Function compile flags: /Ogsp
_TEXT	ENDS
;	COMDAT ?IsCanJumpingSkillOnBlowWound@ioSkill@@UBE_NXZ
_TEXT	SEGMENT
_value$538422 = -1					; size = 1
?IsCanJumpingSkillOnBlowWound@ioSkill@@UBE_NXZ PROC	; ioSkill::IsCanJumpingSkillOnBlowWound, COMDAT
; _this$ = ecx

; 432  : 	virtual bool IsCanJumpingSkillOnBlowWound() const { return m_bEnableJumpingSkillOnBlowWound; }

  00000	55		 push	 ebp
  00001	8b ec		 mov	 ebp, esp
  00003	51		 push	 ecx
  00004	8d 45 ff	 lea	 eax, DWORD PTR _value$538422[ebp]
  00007	50		 push	 eax
  00008	81 c1 cc 03 00
	00		 add	 ecx, 972		; 000003ccH
  0000e	e8 00 00 00 00	 call	 ?DecryptValueToPool@?$CEncrypt@_N@@QAEXPA_N@Z ; CEncrypt<bool>::DecryptValueToPool
  00013	8a 45 ff	 mov	 al, BYTE PTR _value$538422[ebp]
  00016	c9		 leave
  00017	c3		 ret	 0
?IsCanJumpingSkillOnBlowWound@ioSkill@@UBE_NXZ ENDP	; ioSkill::IsCanJumpingSkillOnBlowWound
; Function compile flags: /Ogsp
_TEXT	ENDS
;	COMDAT ?IsCanDownSkill@ioSkill@@UBE_NXZ
_TEXT	SEGMENT
_value$538429 = -1					; size = 1
?IsCanDownSkill@ioSkill@@UBE_NXZ PROC			; ioSkill::IsCanDownSkill, COMDAT
; _this$ = ecx

; 437  : 	virtual bool IsCanDownSkill() const { return m_bEnableDownSkill; }

  00000	55		 push	 ebp
  00001	8b ec		 mov	 ebp, esp
  00003	51		 push	 ecx
  00004	8d 45 ff	 lea	 eax, DWORD PTR _value$538429[ebp]
  00007	50		 push	 eax
  00008	81 c1 5c 04 00
	00		 add	 ecx, 1116		; 0000045cH
  0000e	e8 00 00 00 00	 call	 ?DecryptValueToPool@?$CEncrypt@_N@@QAEXPA_N@Z ; CEncrypt<bool>::DecryptValueToPool
  00013	8a 45 ff	 mov	 al, BYTE PTR _value$538429[ebp]
  00016	c9		 leave
  00017	c3		 ret	 0
?IsCanDownSkill@ioSkill@@UBE_NXZ ENDP			; ioSkill::IsCanDownSkill
; Function compile flags: /Ogsp
_TEXT	ENDS
;	COMDAT ?IsCanBlowWoundSkill@ioSkill@@UBE_NXZ
_TEXT	SEGMENT
_value$538436 = -1					; size = 1
?IsCanBlowWoundSkill@ioSkill@@UBE_NXZ PROC		; ioSkill::IsCanBlowWoundSkill, COMDAT
; _this$ = ecx

; 440  : 	virtual bool IsCanBlowWoundSkill() const { return m_bEnableBlowWoundSkill; }

  00000	55		 push	 ebp
  00001	8b ec		 mov	 ebp, esp
  00003	51		 push	 ecx
  00004	8d 45 ff	 lea	 eax, DWORD PTR _value$538436[ebp]
  00007	50		 push	 eax
  00008	81 c1 8c 04 00
	00		 add	 ecx, 1164		; 0000048cH
  0000e	e8 00 00 00 00	 call	 ?DecryptValueToPool@?$CEncrypt@_N@@QAEXPA_N@Z ; CEncrypt<bool>::DecryptValueToPool
  00013	8a 45 ff	 mov	 al, BYTE PTR _value$538436[ebp]
  00016	c9		 leave
  00017	c3		 ret	 0
?IsCanBlowWoundSkill@ioSkill@@UBE_NXZ ENDP		; ioSkill::IsCanBlowWoundSkill
; Function compile flags: /Ogsp
_TEXT	ENDS
;	COMDAT ?IsCanWoundSkill@ioSkill@@UBE_NXZ
_TEXT	SEGMENT
_value$538443 = -1					; size = 1
?IsCanWoundSkill@ioSkill@@UBE_NXZ PROC			; ioSkill::IsCanWoundSkill, COMDAT
; _this$ = ecx

; 446  : 	virtual bool IsCanWoundSkill() const { return m_bEnableWoundSkill; }

  00000	55		 push	 ebp
  00001	8b ec		 mov	 ebp, esp
  00003	51		 push	 ecx
  00004	8d 45 ff	 lea	 eax, DWORD PTR _value$538443[ebp]
  00007	50		 push	 eax
  00008	81 c1 54 05 00
	00		 add	 ecx, 1364		; 00000554H
  0000e	e8 00 00 00 00	 call	 ?DecryptValueToPool@?$CEncrypt@_N@@QAEXPA_N@Z ; CEncrypt<bool>::DecryptValueToPool
  00013	8a 45 ff	 mov	 al, BYTE PTR _value$538443[ebp]
  00016	c9		 leave
  00017	c3		 ret	 0
?IsCanWoundSkill@ioSkill@@UBE_NXZ ENDP			; ioSkill::IsCanWoundSkill
_TEXT	ENDS
PUBLIC	??0ioConsecution2Skill@@QAE@ABV0@@Z		; ioConsecution2Skill::ioConsecution2Skill
EXTRN	??0ioAttackSkill@@QAE@ABV0@@Z:PROC		; ioAttackSkill::ioAttackSkill
;	COMDAT xdata$x
; File c:\program files (x86)\microsoft visual studio 10.0\vc\include\xmemory
xdata$x	SEGMENT
__ehfuncinfo$??0ioConsecution2Skill@@QAE@ABV0@@Z DD 019930522H
	DD	0dH
	DD	FLAT:__unwindtable$??0ioConsecution2Skill@@QAE@ABV0@@Z
	DD	2 DUP(00H)
	DD	2 DUP(00H)
	DD	00H
	DD	01H
__unwindtable$??0ioConsecution2Skill@@QAE@ABV0@@Z DD 0ffffffffH
	DD	FLAT:__unwindfunclet$??0ioConsecution2Skill@@QAE@ABV0@@Z$0
	DD	00H
	DD	FLAT:__unwindfunclet$??0ioConsecution2Skill@@QAE@ABV0@@Z$1
	DD	01H
	DD	FLAT:__unwindfunclet$??0ioConsecution2Skill@@QAE@ABV0@@Z$2
	DD	02H
	DD	FLAT:__unwindfunclet$??0ioConsecution2Skill@@QAE@ABV0@@Z$3
	DD	03H
	DD	FLAT:__unwindfunclet$??0ioConsecution2Skill@@QAE@ABV0@@Z$4
	DD	04H
	DD	FLAT:__unwindfunclet$??0ioConsecution2Skill@@QAE@ABV0@@Z$5
	DD	05H
	DD	FLAT:__unwindfunclet$??0ioConsecution2Skill@@QAE@ABV0@@Z$6
	DD	06H
	DD	FLAT:__unwindfunclet$??0ioConsecution2Skill@@QAE@ABV0@@Z$7
	DD	07H
	DD	FLAT:__unwindfunclet$??0ioConsecution2Skill@@QAE@ABV0@@Z$8
	DD	08H
	DD	FLAT:__unwindfunclet$??0ioConsecution2Skill@@QAE@ABV0@@Z$9
	DD	09H
	DD	FLAT:__unwindfunclet$??0ioConsecution2Skill@@QAE@ABV0@@Z$10
	DD	0aH
	DD	FLAT:__unwindfunclet$??0ioConsecution2Skill@@QAE@ABV0@@Z$11
	DD	0bH
	DD	FLAT:__unwindfunclet$??0ioConsecution2Skill@@QAE@ABV0@@Z$12
; Function compile flags: /Ogsp
; File d:\lost saga for developer\youtube\tutorial\source\src\lsclient\ioconsecution2skill.cpp
xdata$x	ENDS
;	COMDAT ??0ioConsecution2Skill@@QAE@ABV0@@Z
_TEXT	SEGMENT
_this$ = -16						; size = 4
__$EHRec$ = -12						; size = 12
_rhs$ = 8						; size = 4
??0ioConsecution2Skill@@QAE@ABV0@@Z PROC		; ioConsecution2Skill::ioConsecution2Skill, COMDAT
; _this$ = ecx

; 30   : {

  00000	6a 04		 push	 4
  00002	b8 00 00 00 00	 mov	 eax, __ehhandler$??0ioConsecution2Skill@@QAE@ABV0@@Z
  00007	e8 00 00 00 00	 call	 __EH_prolog3
  0000c	8b f1		 mov	 esi, ecx
  0000e	89 75 f0	 mov	 DWORD PTR _this$[ebp], esi
  00011	8b 7d 08	 mov	 edi, DWORD PTR _rhs$[ebp]
  00014	57		 push	 edi
  00015	e8 00 00 00 00	 call	 ??0ioAttackSkill@@QAE@ABV0@@Z ; ioAttackSkill::ioAttackSkill
  0001a	8b 1d 00 00 00
	00		 mov	 ebx, DWORD PTR __imp_??0ioHashString@@QAE@ABV0@@Z
  00020	83 65 fc 00	 and	 DWORD PTR __$EHRec$[ebp+8], 0
  00024	8d 87 ec 10 00
	00		 lea	 eax, DWORD PTR [edi+4332]
  0002a	50		 push	 eax
  0002b	8d 8e ec 10 00
	00		 lea	 ecx, DWORD PTR [esi+4332]
  00031	c7 06 00 00 00
	00		 mov	 DWORD PTR [esi], OFFSET ??_7ioConsecution2Skill@@6B@
  00037	ff d3		 call	 ebx
  00039	8d 87 fc 10 00
	00		 lea	 eax, DWORD PTR [edi+4348]
  0003f	50		 push	 eax
  00040	8d 8e fc 10 00
	00		 lea	 ecx, DWORD PTR [esi+4348]
  00046	c6 45 fc 01	 mov	 BYTE PTR __$EHRec$[ebp+8], 1
  0004a	e8 00 00 00 00	 call	 ??0?$CEncrypt@M@@QAE@ABV0@@Z ; CEncrypt<float>::CEncrypt<float>
  0004f	8d 87 30 11 00
	00		 lea	 eax, DWORD PTR [edi+4400]
  00055	50		 push	 eax
  00056	8d 8e 30 11 00
	00		 lea	 ecx, DWORD PTR [esi+4400]
  0005c	c6 45 fc 02	 mov	 BYTE PTR __$EHRec$[ebp+8], 2
  00060	ff d3		 call	 ebx
  00062	33 c9		 xor	 ecx, ecx
  00064	89 8e 40 11 00
	00		 mov	 DWORD PTR [esi+4416], ecx
  0006a	89 8e 44 11 00
	00		 mov	 DWORD PTR [esi+4420], ecx
  00070	89 8e 48 11 00
	00		 mov	 DWORD PTR [esi+4424], ecx
  00076	8d 87 50 11 00
	00		 lea	 eax, DWORD PTR [edi+4432]
  0007c	50		 push	 eax
  0007d	8d 8e 50 11 00
	00		 lea	 ecx, DWORD PTR [esi+4432]
  00083	c6 45 fc 04	 mov	 BYTE PTR __$EHRec$[ebp+8], 4
  00087	ff d3		 call	 ebx
  00089	8d 87 60 11 00
	00		 lea	 eax, DWORD PTR [edi+4448]
  0008f	50		 push	 eax
  00090	8d 8e 60 11 00
	00		 lea	 ecx, DWORD PTR [esi+4448]
  00096	c6 45 fc 05	 mov	 BYTE PTR __$EHRec$[ebp+8], 5
  0009a	e8 00 00 00 00	 call	 ??0?$CEncrypt@M@@QAE@ABV0@@Z ; CEncrypt<float>::CEncrypt<float>
  0009f	8d 87 90 11 00
	00		 lea	 eax, DWORD PTR [edi+4496]
  000a5	50		 push	 eax
  000a6	8d 8e 90 11 00
	00		 lea	 ecx, DWORD PTR [esi+4496]
  000ac	c6 45 fc 06	 mov	 BYTE PTR __$EHRec$[ebp+8], 6
  000b0	e8 00 00 00 00	 call	 ??0?$CEncrypt@K@@QAE@ABV0@@Z ; CEncrypt<unsigned long>::CEncrypt<unsigned long>
  000b5	8d 87 c0 11 00
	00		 lea	 eax, DWORD PTR [edi+4544]
  000bb	50		 push	 eax
  000bc	8d 8e c0 11 00
	00		 lea	 ecx, DWORD PTR [esi+4544]
  000c2	c6 45 fc 07	 mov	 BYTE PTR __$EHRec$[ebp+8], 7
  000c6	ff d3		 call	 ebx
  000c8	8d 87 d0 11 00
	00		 lea	 eax, DWORD PTR [edi+4560]
  000ce	50		 push	 eax
  000cf	8d 8e d0 11 00
	00		 lea	 ecx, DWORD PTR [esi+4560]
  000d5	c6 45 fc 08	 mov	 BYTE PTR __$EHRec$[ebp+8], 8
  000d9	ff d3		 call	 ebx
  000db	8d 87 e0 11 00
	00		 lea	 eax, DWORD PTR [edi+4576]
  000e1	50		 push	 eax
  000e2	8d 8e e0 11 00
	00		 lea	 ecx, DWORD PTR [esi+4576]
  000e8	c6 45 fc 09	 mov	 BYTE PTR __$EHRec$[ebp+8], 9
  000ec	ff d3		 call	 ebx
  000ee	8d 87 f0 11 00
	00		 lea	 eax, DWORD PTR [edi+4592]
  000f4	50		 push	 eax
  000f5	8d 8e f0 11 00
	00		 lea	 ecx, DWORD PTR [esi+4592]
  000fb	c6 45 fc 0a	 mov	 BYTE PTR __$EHRec$[ebp+8], 10 ; 0000000aH
  000ff	ff d3		 call	 ebx
  00101	d9 87 00 12 00
	00		 fld	 DWORD PTR [edi+4608]
  00107	8d 8e 04 12 00
	00		 lea	 ecx, DWORD PTR [esi+4612]
  0010d	d9 9e 00 12 00
	00		 fstp	 DWORD PTR [esi+4608]
  00113	c6 45 fc 0b	 mov	 BYTE PTR __$EHRec$[ebp+8], 11 ; 0000000bH
  00117	e8 00 00 00 00	 call	 ??0WeaponInfo@@QAE@XZ	; WeaponInfo::WeaponInfo
  0011c	81 c7 2c 12 00
	00		 add	 edi, 4652		; 0000122cH
  00122	c6 45 fc 0c	 mov	 BYTE PTR __$EHRec$[ebp+8], 12 ; 0000000cH
  00126	57		 push	 edi
  00127	8d 8e 2c 12 00
	00		 lea	 ecx, DWORD PTR [esi+4652]
  0012d	e8 00 00 00 00	 call	 ??0?$vector@UWeaponFireInfo@@V?$allocator@UWeaponFireInfo@@@std@@@std@@QAE@ABV01@@Z ; std::vector<WeaponFireInfo,std::allocator<WeaponFireInfo> >::vector<WeaponFireInfo,std::allocator<WeaponFireInfo> >

; 31   : 	ClearData();

  00132	8b ce		 mov	 ecx, esi
  00134	e8 00 00 00 00	 call	 ?ClearData@ioConsecution2Skill@@IAEXXZ ; ioConsecution2Skill::ClearData

; 32   : }

  00139	8b c6		 mov	 eax, esi
  0013b	e8 00 00 00 00	 call	 __EH_epilog3
  00140	c2 04 00	 ret	 4
_TEXT	ENDS
;	COMDAT text$x
text$x	SEGMENT
__unwindfunclet$??0ioConsecution2Skill@@QAE@ABV0@@Z$0:
  00000	8b 4d f0	 mov	 ecx, DWORD PTR _this$[ebp]
  00003	e9 00 00 00 00	 jmp	 ??1ioAttackSkill@@UAE@XZ ; ioAttackSkill::~ioAttackSkill
__unwindfunclet$??0ioConsecution2Skill@@QAE@ABV0@@Z$1:
  00008	8b 4d f0	 mov	 ecx, DWORD PTR _this$[ebp]
  0000b	81 c1 ec 10 00
	00		 add	 ecx, 4332		; 000010ecH
  00011	ff 25 00 00 00
	00		 jmp	 DWORD PTR __imp_??1ioHashString@@QAE@XZ
__unwindfunclet$??0ioConsecution2Skill@@QAE@ABV0@@Z$2:
  00017	8b 4d f0	 mov	 ecx, DWORD PTR _this$[ebp]
  0001a	81 c1 fc 10 00
	00		 add	 ecx, 4348		; 000010fcH
  00020	e9 00 00 00 00	 jmp	 ??1?$CEncrypt@M@@UAE@XZ	; CEncrypt<float>::~CEncrypt<float>
__unwindfunclet$??0ioConsecution2Skill@@QAE@ABV0@@Z$3:
  00025	8b 4d f0	 mov	 ecx, DWORD PTR _this$[ebp]
  00028	81 c1 30 11 00
	00		 add	 ecx, 4400		; 00001130H
  0002e	ff 25 00 00 00
	00		 jmp	 DWORD PTR __imp_??1ioHashString@@QAE@XZ
__unwindfunclet$??0ioConsecution2Skill@@QAE@ABV0@@Z$4:
  00034	8b 4d f0	 mov	 ecx, DWORD PTR _this$[ebp]
  00037	81 c1 40 11 00
	00		 add	 ecx, 4416		; 00001140H
  0003d	e9 00 00 00 00	 jmp	 ??1?$vector@KV?$allocator@K@std@@@std@@QAE@XZ ; std::vector<unsigned long,std::allocator<unsigned long> >::~vector<unsigned long,std::allocator<unsigned long> >
__unwindfunclet$??0ioConsecution2Skill@@QAE@ABV0@@Z$5:
  00042	8b 4d f0	 mov	 ecx, DWORD PTR _this$[ebp]
  00045	81 c1 50 11 00
	00		 add	 ecx, 4432		; 00001150H
  0004b	ff 25 00 00 00
	00		 jmp	 DWORD PTR __imp_??1ioHashString@@QAE@XZ
__unwindfunclet$??0ioConsecution2Skill@@QAE@ABV0@@Z$6:
  00051	8b 4d f0	 mov	 ecx, DWORD PTR _this$[ebp]
  00054	81 c1 60 11 00
	00		 add	 ecx, 4448		; 00001160H
  0005a	e9 00 00 00 00	 jmp	 ??1?$CEncrypt@M@@UAE@XZ	; CEncrypt<float>::~CEncrypt<float>
__unwindfunclet$??0ioConsecution2Skill@@QAE@ABV0@@Z$7:
  0005f	8b 4d f0	 mov	 ecx, DWORD PTR _this$[ebp]
  00062	81 c1 90 11 00
	00		 add	 ecx, 4496		; 00001190H
  00068	e9 00 00 00 00	 jmp	 ??1?$CEncrypt@K@@UAE@XZ	; CEncrypt<unsigned long>::~CEncrypt<unsigned long>
__unwindfunclet$??0ioConsecution2Skill@@QAE@ABV0@@Z$8:
  0006d	8b 4d f0	 mov	 ecx, DWORD PTR _this$[ebp]
  00070	81 c1 c0 11 00
	00		 add	 ecx, 4544		; 000011c0H
  00076	ff 25 00 00 00
	00		 jmp	 DWORD PTR __imp_??1ioHashString@@QAE@XZ
__unwindfunclet$??0ioConsecution2Skill@@QAE@ABV0@@Z$9:
  0007c	8b 4d f0	 mov	 ecx, DWORD PTR _this$[ebp]
  0007f	81 c1 d0 11 00
	00		 add	 ecx, 4560		; 000011d0H
  00085	ff 25 00 00 00
	00		 jmp	 DWORD PTR __imp_??1ioHashString@@QAE@XZ
__unwindfunclet$??0ioConsecution2Skill@@QAE@ABV0@@Z$10:
  0008b	8b 4d f0	 mov	 ecx, DWORD PTR _this$[ebp]
  0008e	81 c1 e0 11 00
	00		 add	 ecx, 4576		; 000011e0H
  00094	ff 25 00 00 00
	00		 jmp	 DWORD PTR __imp_??1ioHashString@@QAE@XZ
__unwindfunclet$??0ioConsecution2Skill@@QAE@ABV0@@Z$11:
  0009a	8b 4d f0	 mov	 ecx, DWORD PTR _this$[ebp]
  0009d	81 c1 f0 11 00
	00		 add	 ecx, 4592		; 000011f0H
  000a3	ff 25 00 00 00
	00		 jmp	 DWORD PTR __imp_??1ioHashString@@QAE@XZ
__unwindfunclet$??0ioConsecution2Skill@@QAE@ABV0@@Z$12:
  000a9	8b 4d f0	 mov	 ecx, DWORD PTR _this$[ebp]
  000ac	81 c1 04 12 00
	00		 add	 ecx, 4612		; 00001204H
  000b2	e9 00 00 00 00	 jmp	 ??1WeaponInfo@@QAE@XZ
__ehhandler$??0ioConsecution2Skill@@QAE@ABV0@@Z:
  000b7	8b 54 24 08	 mov	 edx, DWORD PTR [esp+8]
  000bb	8d 42 0c	 lea	 eax, DWORD PTR [edx+12]
  000be	8b 4a ec	 mov	 ecx, DWORD PTR [edx-20]
  000c1	33 c8		 xor	 ecx, eax
  000c3	e8 00 00 00 00	 call	 @__security_check_cookie@4
  000c8	b8 00 00 00 00	 mov	 eax, OFFSET __ehfuncinfo$??0ioConsecution2Skill@@QAE@ABV0@@Z
  000cd	e9 00 00 00 00	 jmp	 ___CxxFrameHandler3
text$x	ENDS
??0ioConsecution2Skill@@QAE@ABV0@@Z ENDP		; ioConsecution2Skill::ioConsecution2Skill
PUBLIC	??1ioConsecution2Skill@@UAE@XZ			; ioConsecution2Skill::~ioConsecution2Skill
;	COMDAT xdata$x
; File d:\lost saga for developer\youtube\tutorial\source\src\lsclient\encryptvalue.h
xdata$x	SEGMENT
__ehfuncinfo$??1ioConsecution2Skill@@UAE@XZ DD 019930522H
	DD	0dH
	DD	FLAT:__unwindtable$??1ioConsecution2Skill@@UAE@XZ
	DD	2 DUP(00H)
	DD	2 DUP(00H)
	DD	00H
	DD	01H
__unwindtable$??1ioConsecution2Skill@@UAE@XZ DD 0ffffffffH
	DD	FLAT:__unwindfunclet$??1ioConsecution2Skill@@UAE@XZ$0
	DD	00H
	DD	FLAT:__unwindfunclet$??1ioConsecution2Skill@@UAE@XZ$1
	DD	01H
	DD	FLAT:__unwindfunclet$??1ioConsecution2Skill@@UAE@XZ$2
	DD	02H
	DD	FLAT:__unwindfunclet$??1ioConsecution2Skill@@UAE@XZ$3
	DD	03H
	DD	FLAT:__unwindfunclet$??1ioConsecution2Skill@@UAE@XZ$4
	DD	04H
	DD	FLAT:__unwindfunclet$??1ioConsecution2Skill@@UAE@XZ$5
	DD	05H
	DD	FLAT:__unwindfunclet$??1ioConsecution2Skill@@UAE@XZ$6
	DD	06H
	DD	FLAT:__unwindfunclet$??1ioConsecution2Skill@@UAE@XZ$7
	DD	07H
	DD	FLAT:__unwindfunclet$??1ioConsecution2Skill@@UAE@XZ$8
	DD	08H
	DD	FLAT:__unwindfunclet$??1ioConsecution2Skill@@UAE@XZ$9
	DD	09H
	DD	FLAT:__unwindfunclet$??1ioConsecution2Skill@@UAE@XZ$10
	DD	0aH
	DD	FLAT:__unwindfunclet$??1ioConsecution2Skill@@UAE@XZ$11
	DD	0bH
	DD	FLAT:__unwindfunclet$??1ioConsecution2Skill@@UAE@XZ$12
; Function compile flags: /Ogsp
; File d:\lost saga for developer\youtube\tutorial\source\src\lsclient\ioconsecution2skill.cpp
xdata$x	ENDS
;	COMDAT ??1ioConsecution2Skill@@UAE@XZ
_TEXT	SEGMENT
_this$ = -16						; size = 4
__$EHRec$ = -12						; size = 12
??1ioConsecution2Skill@@UAE@XZ PROC			; ioConsecution2Skill::~ioConsecution2Skill, COMDAT
; _this$ = ecx

; 35   : {

  00000	6a 04		 push	 4
  00002	b8 00 00 00 00	 mov	 eax, __ehhandler$??1ioConsecution2Skill@@UAE@XZ
  00007	e8 00 00 00 00	 call	 __EH_prolog3
  0000c	8b f1		 mov	 esi, ecx
  0000e	89 75 f0	 mov	 DWORD PTR _this$[ebp], esi
  00011	c7 06 00 00 00
	00		 mov	 DWORD PTR [esi], OFFSET ??_7ioConsecution2Skill@@6B@

; 36   : }

  00017	8d 8e 2c 12 00
	00		 lea	 ecx, DWORD PTR [esi+4652]
  0001d	c7 45 fc 0c 00
	00 00		 mov	 DWORD PTR __$EHRec$[ebp+8], 12 ; 0000000cH
  00024	e8 00 00 00 00	 call	 ?_Tidy@?$vector@UWeaponFireInfo@@V?$allocator@UWeaponFireInfo@@@std@@@std@@IAEXXZ ; std::vector<WeaponFireInfo,std::allocator<WeaponFireInfo> >::_Tidy
  00029	8b 3d 00 00 00
	00		 mov	 edi, DWORD PTR __imp_??1ioHashString@@QAE@XZ
  0002f	8d 8e 0c 12 00
	00		 lea	 ecx, DWORD PTR [esi+4620]
  00035	c6 45 fc 0b	 mov	 BYTE PTR __$EHRec$[ebp+8], 11 ; 0000000bH
  00039	ff d7		 call	 edi
  0003b	8d 8e f0 11 00
	00		 lea	 ecx, DWORD PTR [esi+4592]
  00041	c6 45 fc 0a	 mov	 BYTE PTR __$EHRec$[ebp+8], 10 ; 0000000aH
  00045	ff d7		 call	 edi
  00047	8d 8e e0 11 00
	00		 lea	 ecx, DWORD PTR [esi+4576]
  0004d	c6 45 fc 09	 mov	 BYTE PTR __$EHRec$[ebp+8], 9
  00051	ff d7		 call	 edi
  00053	8d 8e d0 11 00
	00		 lea	 ecx, DWORD PTR [esi+4560]
  00059	c6 45 fc 08	 mov	 BYTE PTR __$EHRec$[ebp+8], 8
  0005d	ff d7		 call	 edi
  0005f	8d 8e c0 11 00
	00		 lea	 ecx, DWORD PTR [esi+4544]
  00065	c6 45 fc 07	 mov	 BYTE PTR __$EHRec$[ebp+8], 7
  00069	ff d7		 call	 edi
  0006b	8d 8e 9c 11 00
	00		 lea	 ecx, DWORD PTR [esi+4508]
  00071	c6 45 fc 06	 mov	 BYTE PTR __$EHRec$[ebp+8], 6
  00075	c7 86 90 11 00
	00 00 00 00 00	 mov	 DWORD PTR [esi+4496], OFFSET ??_7?$CEncrypt@K@@6B@
  0007f	e8 00 00 00 00	 call	 ??1ccddaabb@@UAE@XZ	; ccddaabb::~ccddaabb
  00084	bb 00 00 00 00	 mov	 ebx, OFFSET ??_7?$CEncrypt@M@@6B@
  00089	8d 8e 6c 11 00
	00		 lea	 ecx, DWORD PTR [esi+4460]
  0008f	c6 45 fc 05	 mov	 BYTE PTR __$EHRec$[ebp+8], 5
  00093	89 9e 60 11 00
	00		 mov	 DWORD PTR [esi+4448], ebx
  00099	e8 00 00 00 00	 call	 ??1ccddaabb@@UAE@XZ	; ccddaabb::~ccddaabb
  0009e	8d 8e 50 11 00
	00		 lea	 ecx, DWORD PTR [esi+4432]
  000a4	c6 45 fc 04	 mov	 BYTE PTR __$EHRec$[ebp+8], 4
  000a8	ff d7		 call	 edi
  000aa	8d 8e 40 11 00
	00		 lea	 ecx, DWORD PTR [esi+4416]
  000b0	c6 45 fc 03	 mov	 BYTE PTR __$EHRec$[ebp+8], 3
  000b4	e8 00 00 00 00	 call	 ?_Tidy@?$vector@KV?$allocator@K@std@@@std@@IAEXXZ ; std::vector<unsigned long,std::allocator<unsigned long> >::_Tidy
  000b9	8d 8e 30 11 00
	00		 lea	 ecx, DWORD PTR [esi+4400]
  000bf	c6 45 fc 02	 mov	 BYTE PTR __$EHRec$[ebp+8], 2
  000c3	ff d7		 call	 edi
  000c5	8d 8e 08 11 00
	00		 lea	 ecx, DWORD PTR [esi+4360]
  000cb	c6 45 fc 01	 mov	 BYTE PTR __$EHRec$[ebp+8], 1
  000cf	89 9e fc 10 00
	00		 mov	 DWORD PTR [esi+4348], ebx
  000d5	e8 00 00 00 00	 call	 ??1ccddaabb@@UAE@XZ	; ccddaabb::~ccddaabb
  000da	8d 8e ec 10 00
	00		 lea	 ecx, DWORD PTR [esi+4332]
  000e0	c6 45 fc 00	 mov	 BYTE PTR __$EHRec$[ebp+8], 0
  000e4	ff d7		 call	 edi
  000e6	83 4d fc ff	 or	 DWORD PTR __$EHRec$[ebp+8], -1
  000ea	8b ce		 mov	 ecx, esi
  000ec	e8 00 00 00 00	 call	 ??1ioAttackSkill@@UAE@XZ ; ioAttackSkill::~ioAttackSkill
  000f1	e8 00 00 00 00	 call	 __EH_epilog3
  000f6	c3		 ret	 0
_TEXT	ENDS
;	COMDAT text$x
text$x	SEGMENT
__unwindfunclet$??1ioConsecution2Skill@@UAE@XZ$0:
  00000	8b 4d f0	 mov	 ecx, DWORD PTR _this$[ebp]
  00003	e9 00 00 00 00	 jmp	 ??1ioAttackSkill@@UAE@XZ ; ioAttackSkill::~ioAttackSkill
__unwindfunclet$??1ioConsecution2Skill@@UAE@XZ$1:
  00008	8b 4d f0	 mov	 ecx, DWORD PTR _this$[ebp]
  0000b	81 c1 ec 10 00
	00		 add	 ecx, 4332		; 000010ecH
  00011	ff 25 00 00 00
	00		 jmp	 DWORD PTR __imp_??1ioHashString@@QAE@XZ
__unwindfunclet$??1ioConsecution2Skill@@UAE@XZ$2:
  00017	8b 4d f0	 mov	 ecx, DWORD PTR _this$[ebp]
  0001a	81 c1 fc 10 00
	00		 add	 ecx, 4348		; 000010fcH
  00020	e9 00 00 00 00	 jmp	 ??1?$CEncrypt@M@@UAE@XZ	; CEncrypt<float>::~CEncrypt<float>
__unwindfunclet$??1ioConsecution2Skill@@UAE@XZ$3:
  00025	8b 4d f0	 mov	 ecx, DWORD PTR _this$[ebp]
  00028	81 c1 30 11 00
	00		 add	 ecx, 4400		; 00001130H
  0002e	ff 25 00 00 00
	00		 jmp	 DWORD PTR __imp_??1ioHashString@@QAE@XZ
__unwindfunclet$??1ioConsecution2Skill@@UAE@XZ$4:
  00034	8b 4d f0	 mov	 ecx, DWORD PTR _this$[ebp]
  00037	81 c1 40 11 00
	00		 add	 ecx, 4416		; 00001140H
  0003d	e9 00 00 00 00	 jmp	 ??1?$vector@KV?$allocator@K@std@@@std@@QAE@XZ ; std::vector<unsigned long,std::allocator<unsigned long> >::~vector<unsigned long,std::allocator<unsigned long> >
__unwindfunclet$??1ioConsecution2Skill@@UAE@XZ$5:
  00042	8b 4d f0	 mov	 ecx, DWORD PTR _this$[ebp]
  00045	81 c1 50 11 00
	00		 add	 ecx, 4432		; 00001150H
  0004b	ff 25 00 00 00
	00		 jmp	 DWORD PTR __imp_??1ioHashString@@QAE@XZ
__unwindfunclet$??1ioConsecution2Skill@@UAE@XZ$6:
  00051	8b 4d f0	 mov	 ecx, DWORD PTR _this$[ebp]
  00054	81 c1 60 11 00
	00		 add	 ecx, 4448		; 00001160H
  0005a	e9 00 00 00 00	 jmp	 ??1?$CEncrypt@M@@UAE@XZ	; CEncrypt<float>::~CEncrypt<float>
__unwindfunclet$??1ioConsecution2Skill@@UAE@XZ$7:
  0005f	8b 4d f0	 mov	 ecx, DWORD PTR _this$[ebp]
  00062	81 c1 90 11 00
	00		 add	 ecx, 4496		; 00001190H
  00068	e9 00 00 00 00	 jmp	 ??1?$CEncrypt@K@@UAE@XZ	; CEncrypt<unsigned long>::~CEncrypt<unsigned long>
__unwindfunclet$??1ioConsecution2Skill@@UAE@XZ$8:
  0006d	8b 4d f0	 mov	 ecx, DWORD PTR _this$[ebp]
  00070	81 c1 c0 11 00
	00		 add	 ecx, 4544		; 000011c0H
  00076	ff 25 00 00 00
	00		 jmp	 DWORD PTR __imp_??1ioHashString@@QAE@XZ
__unwindfunclet$??1ioConsecution2Skill@@UAE@XZ$9:
  0007c	8b 4d f0	 mov	 ecx, DWORD PTR _this$[ebp]
  0007f	81 c1 d0 11 00
	00		 add	 ecx, 4560		; 000011d0H
  00085	ff 25 00 00 00
	00		 jmp	 DWORD PTR __imp_??1ioHashString@@QAE@XZ
__unwindfunclet$??1ioConsecution2Skill@@UAE@XZ$10:
  0008b	8b 4d f0	 mov	 ecx, DWORD PTR _this$[ebp]
  0008e	81 c1 e0 11 00
	00		 add	 ecx, 4576		; 000011e0H
  00094	ff 25 00 00 00
	00		 jmp	 DWORD PTR __imp_??1ioHashString@@QAE@XZ
__unwindfunclet$??1ioConsecution2Skill@@UAE@XZ$11:
  0009a	8b 4d f0	 mov	 ecx, DWORD PTR _this$[ebp]
  0009d	81 c1 f0 11 00
	00		 add	 ecx, 4592		; 000011f0H
  000a3	ff 25 00 00 00
	00		 jmp	 DWORD PTR __imp_??1ioHashString@@QAE@XZ
__unwindfunclet$??1ioConsecution2Skill@@UAE@XZ$12:
  000a9	8b 4d f0	 mov	 ecx, DWORD PTR _this$[ebp]
  000ac	81 c1 04 12 00
	00		 add	 ecx, 4612		; 00001204H
  000b2	e9 00 00 00 00	 jmp	 ??1WeaponInfo@@QAE@XZ
__ehhandler$??1ioConsecution2Skill@@UAE@XZ:
  000b7	8b 54 24 08	 mov	 edx, DWORD PTR [esp+8]
  000bb	8d 42 0c	 lea	 eax, DWORD PTR [edx+12]
  000be	8b 4a ec	 mov	 ecx, DWORD PTR [edx-20]
  000c1	33 c8		 xor	 ecx, eax
  000c3	e8 00 00 00 00	 call	 @__security_check_cookie@4
  000c8	b8 00 00 00 00	 mov	 eax, OFFSET __ehfuncinfo$??1ioConsecution2Skill@@UAE@XZ
  000cd	e9 00 00 00 00	 jmp	 ___CxxFrameHandler3
text$x	ENDS
??1ioConsecution2Skill@@UAE@XZ ENDP			; ioConsecution2Skill::~ioConsecution2Skill
;	COMDAT xdata$x
xdata$x	SEGMENT
__unwindtable$?Clone@ioConsecution2Skill@@UAEPAVioSkill@@XZ DD 0ffffffffH
	DD	FLAT:__unwindfunclet$?Clone@ioConsecution2Skill@@UAEPAVioSkill@@XZ$0
__ehfuncinfo$?Clone@ioConsecution2Skill@@UAEPAVioSkill@@XZ DD 019930522H
	DD	01H
	DD	FLAT:__unwindtable$?Clone@ioConsecution2Skill@@UAEPAVioSkill@@XZ
	DD	2 DUP(00H)
	DD	2 DUP(00H)
	DD	00H
	DD	01H
; Function compile flags: /Ogsp
xdata$x	ENDS
;	COMDAT ?Clone@ioConsecution2Skill@@UAEPAVioSkill@@XZ
_TEXT	SEGMENT
$T538554 = -16						; size = 4
__$EHRec$ = -12						; size = 12
?Clone@ioConsecution2Skill@@UAEPAVioSkill@@XZ PROC	; ioConsecution2Skill::Clone, COMDAT
; _this$ = ecx

; 126  : {

  00000	6a 04		 push	 4
  00002	b8 00 00 00 00	 mov	 eax, __ehhandler$?Clone@ioConsecution2Skill@@UAEPAVioSkill@@XZ
  00007	e8 00 00 00 00	 call	 __EH_prolog3
  0000c	8b f1		 mov	 esi, ecx

; 127  : 	return new ioConsecution2Skill( *this );

  0000e	68 48 12 00 00	 push	 4680			; 00001248H
  00013	e8 00 00 00 00	 call	 ??2@YAPAXI@Z		; operator new
  00018	59		 pop	 ecx
  00019	8b c8		 mov	 ecx, eax
  0001b	89 4d f0	 mov	 DWORD PTR $T538554[ebp], ecx
  0001e	33 c0		 xor	 eax, eax
  00020	89 45 fc	 mov	 DWORD PTR __$EHRec$[ebp+8], eax
  00023	3b c8		 cmp	 ecx, eax
  00025	74 06		 je	 SHORT $LN3@Clone
  00027	56		 push	 esi
  00028	e8 00 00 00 00	 call	 ??0ioConsecution2Skill@@QAE@ABV0@@Z ; ioConsecution2Skill::ioConsecution2Skill
$LN3@Clone:

; 128  : }

  0002d	e8 00 00 00 00	 call	 __EH_epilog3
  00032	c3		 ret	 0
_TEXT	ENDS
;	COMDAT text$x
text$x	SEGMENT
__unwindfunclet$?Clone@ioConsecution2Skill@@UAEPAVioSkill@@XZ$0:
  00000	ff 75 f0	 push	 DWORD PTR $T538554[ebp]
  00003	e8 00 00 00 00	 call	 ??3@YAXPAX@Z		; operator delete
  00008	59		 pop	 ecx
  00009	c3		 ret	 0
__ehhandler$?Clone@ioConsecution2Skill@@UAEPAVioSkill@@XZ:
  0000a	8b 54 24 08	 mov	 edx, DWORD PTR [esp+8]
  0000e	8d 42 0c	 lea	 eax, DWORD PTR [edx+12]
  00011	8b 4a ec	 mov	 ecx, DWORD PTR [edx-20]
  00014	33 c8		 xor	 ecx, eax
  00016	e8 00 00 00 00	 call	 @__security_check_cookie@4
  0001b	b8 00 00 00 00	 mov	 eax, OFFSET __ehfuncinfo$?Clone@ioConsecution2Skill@@UAEPAVioSkill@@XZ
  00020	e9 00 00 00 00	 jmp	 ___CxxFrameHandler3
text$x	ENDS
?Clone@ioConsecution2Skill@@UAEPAVioSkill@@XZ ENDP	; ioConsecution2Skill::Clone
PUBLIC	?push_back@?$vector@UWeaponFireInfo@@V?$allocator@UWeaponFireInfo@@@std@@@std@@QAEXABUWeaponFireInfo@@@Z ; std::vector<WeaponFireInfo,std::allocator<WeaponFireInfo> >::push_back
; Function compile flags: /Ogsp
; File c:\program files (x86)\microsoft visual studio 10.0\vc\include\vector
;	COMDAT ?push_back@?$vector@UWeaponFireInfo@@V?$allocator@UWeaponFireInfo@@@std@@@std@@QAEXABUWeaponFireInfo@@@Z
_TEXT	SEGMENT
__Val$ = 8						; size = 4
?push_back@?$vector@UWeaponFireInfo@@V?$allocator@UWeaponFireInfo@@@std@@@std@@QAEXABUWeaponFireInfo@@@Z PROC ; std::vector<WeaponFireInfo,std::allocator<WeaponFireInfo> >::push_back, COMDAT
; _this$ = ecx

; 976  : 		{	// insert element at end

  00000	55		 push	 ebp
  00001	8b ec		 mov	 ebp, esp
  00003	56		 push	 esi
  00004	8b f1		 mov	 esi, ecx

; 977  : 		if (_Inside(_STD addressof(_Val)))

  00006	8b 4e 04	 mov	 ecx, DWORD PTR [esi+4]
  00009	57		 push	 edi
  0000a	8b 7d 08	 mov	 edi, DWORD PTR __Val$[ebp]
  0000d	3b f9		 cmp	 edi, ecx
  0000f	73 37		 jae	 SHORT $LN4@push_back
  00011	8b 16		 mov	 edx, DWORD PTR [esi]
  00013	3b d7		 cmp	 edx, edi
  00015	77 31		 ja	 SHORT $LN4@push_back

; 978  : 			{	// push back an element
; 979  : 			size_type _Idx = _STD addressof(_Val) - this->_Myfirst;

  00017	8b c7		 mov	 eax, edi
  00019	2b c2		 sub	 eax, edx
  0001b	6a 30		 push	 48			; 00000030H
  0001d	99		 cdq
  0001e	5f		 pop	 edi
  0001f	f7 ff		 idiv	 edi
  00021	8b f8		 mov	 edi, eax

; 980  : 			if (this->_Mylast == this->_Myend)

  00023	3b 4e 08	 cmp	 ecx, DWORD PTR [esi+8]
  00026	75 09		 jne	 SHORT $LN3@push_back

; 981  : 				_Reserve(1);

  00028	6a 01		 push	 1
  0002a	8b ce		 mov	 ecx, esi
  0002c	e8 00 00 00 00	 call	 ?_Reserve@?$vector@UWeaponFireInfo@@V?$allocator@UWeaponFireInfo@@@std@@@std@@IAEXI@Z ; std::vector<WeaponFireInfo,std::allocator<WeaponFireInfo> >::_Reserve
$LN3@push_back:

; 982  : 			_Orphan_range(this->_Mylast, this->_Mylast);
; 983  : 			_Cons_val(this->_Alval,
; 984  : 				this->_Mylast,
; 985  : 				this->_Myfirst[_Idx]);

  00031	6b ff 30	 imul	 edi, 48			; 00000030H
  00034	03 3e		 add	 edi, DWORD PTR [esi]
  00036	8d 46 0c	 lea	 eax, DWORD PTR [esi+12]
  00039	57		 push	 edi
  0003a	ff 76 04	 push	 DWORD PTR [esi+4]
  0003d	50		 push	 eax
  0003e	e8 00 00 00 00	 call	 ??$_Cons_val@V?$allocator@UWeaponFireInfo@@@std@@UWeaponFireInfo@@AAU3@@std@@YAXAAV?$allocator@UWeaponFireInfo@@@0@PAUWeaponFireInfo@@AAU2@@Z ; std::_Cons_val<std::allocator<WeaponFireInfo>,WeaponFireInfo,WeaponFireInfo &>
  00043	83 c4 0c	 add	 esp, 12			; 0000000cH

; 986  : 			++this->_Mylast;
; 987  : 			}
; 988  : 		else

  00046	eb 19		 jmp	 SHORT $LN26@push_back
$LN4@push_back:

; 989  : 			{	// push back a non-element
; 990  : 			if (this->_Mylast == this->_Myend)

  00048	3b 4e 08	 cmp	 ecx, DWORD PTR [esi+8]
  0004b	75 09		 jne	 SHORT $LN1@push_back

; 991  : 				_Reserve(1);

  0004d	6a 01		 push	 1
  0004f	8b ce		 mov	 ecx, esi
  00051	e8 00 00 00 00	 call	 ?_Reserve@?$vector@UWeaponFireInfo@@V?$allocator@UWeaponFireInfo@@@std@@@std@@IAEXI@Z ; std::vector<WeaponFireInfo,std::allocator<WeaponFireInfo> >::_Reserve
$LN1@push_back:

; 992  : 			_Orphan_range(this->_Mylast, this->_Mylast);
; 993  : 			_Cons_val(this->_Alval,
; 994  : 				this->_Mylast,
; 995  : 				_Val);

  00056	57		 push	 edi
  00057	ff 76 04	 push	 DWORD PTR [esi+4]
  0005a	e8 00 00 00 00	 call	 ??$_Construct@UWeaponFireInfo@@ABU1@@std@@YAXPAUWeaponFireInfo@@ABU1@@Z ; std::_Construct<WeaponFireInfo,WeaponFireInfo const &>
  0005f	59		 pop	 ecx
  00060	59		 pop	 ecx
$LN26@push_back:

; 996  : 			++this->_Mylast;

  00061	83 46 04 30	 add	 DWORD PTR [esi+4], 48	; 00000030H
  00065	5f		 pop	 edi
  00066	5e		 pop	 esi

; 997  : 			}
; 998  : 		}

  00067	5d		 pop	 ebp
  00068	c2 04 00	 ret	 4
?push_back@?$vector@UWeaponFireInfo@@V?$allocator@UWeaponFireInfo@@@std@@@std@@QAEXABUWeaponFireInfo@@@Z ENDP ; std::vector<WeaponFireInfo,std::allocator<WeaponFireInfo> >::push_back
_TEXT	ENDS
PUBLIC	?clear@?$vector@UWeaponFireInfo@@V?$allocator@UWeaponFireInfo@@@std@@@std@@QAEXXZ ; std::vector<WeaponFireInfo,std::allocator<WeaponFireInfo> >::clear
; Function compile flags: /Ogsp
;	COMDAT ?clear@?$vector@UWeaponFireInfo@@V?$allocator@UWeaponFireInfo@@@std@@@std@@QAEXXZ
_TEXT	SEGMENT
$T538607 = -4						; size = 4
?clear@?$vector@UWeaponFireInfo@@V?$allocator@UWeaponFireInfo@@@std@@@std@@QAEXXZ PROC ; std::vector<WeaponFireInfo,std::allocator<WeaponFireInfo> >::clear, COMDAT
; _this$ = ecx

; 1217 : 		{	// erase all

  00000	55		 push	 ebp
  00001	8b ec		 mov	 ebp, esp
  00003	51		 push	 ecx

; 1218 : 		erase(begin(), end());

  00004	8b 41 04	 mov	 eax, DWORD PTR [ecx+4]
  00007	8b 11		 mov	 edx, DWORD PTR [ecx]
  00009	50		 push	 eax
  0000a	52		 push	 edx
  0000b	8d 45 fc	 lea	 eax, DWORD PTR $T538607[ebp]
  0000e	50		 push	 eax
  0000f	e8 00 00 00 00	 call	 ?erase@?$vector@UWeaponFireInfo@@V?$allocator@UWeaponFireInfo@@@std@@@std@@QAE?AV?$_Vector_iterator@V?$_Vector_val@UWeaponFireInfo@@V?$allocator@UWeaponFireInfo@@@std@@@std@@@2@V?$_Vector_const_iterator@V?$_Vector_val@UWeaponFireInfo@@V?$allocator@UWeaponFireInfo@@@std@@@std@@@2@0@Z ; std::vector<WeaponFireInfo,std::allocator<WeaponFireInfo> >::erase

; 1219 : 		}

  00014	c9		 leave
  00015	c3		 ret	 0
?clear@?$vector@UWeaponFireInfo@@V?$allocator@UWeaponFireInfo@@@std@@@std@@QAEXXZ ENDP ; std::vector<WeaponFireInfo,std::allocator<WeaponFireInfo> >::clear
; Function compile flags: /Ogsp
_TEXT	ENDS
;	COMDAT ??_GioConsecution2Skill@@UAEPAXI@Z
_TEXT	SEGMENT
___flags$ = 8						; size = 4
??_GioConsecution2Skill@@UAEPAXI@Z PROC			; ioConsecution2Skill::`scalar deleting destructor', COMDAT
; _this$ = ecx
  00000	55		 push	 ebp
  00001	8b ec		 mov	 ebp, esp
  00003	56		 push	 esi
  00004	8b f1		 mov	 esi, ecx
  00006	e8 00 00 00 00	 call	 ??1ioConsecution2Skill@@UAE@XZ ; ioConsecution2Skill::~ioConsecution2Skill
  0000b	f6 45 08 01	 test	 BYTE PTR ___flags$[ebp], 1
  0000f	74 07		 je	 SHORT $LN1@scalar@5
  00011	56		 push	 esi
  00012	e8 00 00 00 00	 call	 ??3@YAXPAX@Z		; operator delete
  00017	59		 pop	 ecx
$LN1@scalar@5:
  00018	8b c6		 mov	 eax, esi
  0001a	5e		 pop	 esi
  0001b	5d		 pop	 ebp
  0001c	c2 04 00	 ret	 4
??_GioConsecution2Skill@@UAEPAXI@Z ENDP			; ioConsecution2Skill::`scalar deleting destructor'
_TEXT	ENDS
PUBLIC	??_C@_00CNPNBAHC@?$AA@				; `string'
PUBLIC	_rkLoader$GSCopy$
EXTRN	__imp_?LoadBool@ioINILoader@@QAE_NPBD_N@Z:PROC
EXTRN	__imp__wsprintfA:PROC
EXTRN	__imp_??4ioHashString@@QAEAAV0@PBD@Z:PROC
EXTRN	?LoadProperty@ioAttackSkill@@UAEXAAVioINILoader@@@Z:PROC ; ioAttackSkill::LoadProperty
;	COMDAT ??_C@_00CNPNBAHC@?$AA@
; File d:\lost saga for developer\youtube\tutorial\source\src\lsclient\playentityhelpstruct.h
CONST	SEGMENT
??_C@_00CNPNBAHC@?$AA@ DB 00H				; `string'
CONST	ENDS
;	COMDAT xdata$x
xdata$x	SEGMENT
__unwindtable$?LoadProperty@ioConsecution2Skill@@UAEXAAVioINILoader@@@Z DD 0ffffffffH
	DD	FLAT:__unwindfunclet$?LoadProperty@ioConsecution2Skill@@UAEXAAVioINILoader@@@Z$0
__ehfuncinfo$?LoadProperty@ioConsecution2Skill@@UAEXAAVioINILoader@@@Z DD 019930522H
	DD	01H
	DD	FLAT:__unwindtable$?LoadProperty@ioConsecution2Skill@@UAEXAAVioINILoader@@@Z
	DD	2 DUP(00H)
	DD	2 DUP(00H)
	DD	00H
	DD	01H
; Function compile flags: /Ogsp
; File d:\lost saga for developer\youtube\tutorial\source\src\lsclient\ioconsecution2skill.cpp
xdata$x	ENDS
;	COMDAT ?LoadProperty@ioConsecution2Skill@@UAEXAAVioINILoader@@@Z
_TEXT	SEGMENT
_kFireInfo$530868 = -676				; size = 48
_dwFireTime$530869 = -628				; size = 4
_fFireAngle$530870 = -624				; size = 4
tv16357 = -620						; size = 4
tv16323 = -620						; size = 4
tv13624 = -620						; size = 4
tv11641 = -616						; size = 4
_value$539430 = -616					; size = 4
_value$539301 = -616					; size = 4
_value$539042 = -616					; size = 4
_iFireCnt$ = -616					; size = 4
tv16409 = -612						; size = 4
_i$539190 = -612					; size = 4
_rkLoader$GSCopy$ = -608				; size = 4
_szKey$ = -604						; size = 260
_szBuf$ = -344						; size = 260
___encStr$531787 = -84					; size = 32
__k$539370 = -48					; size = 24
___encStr$531635 = -48					; size = 25
___encStr$531483 = -48					; size = 26
___encStr$531331 = -48					; size = 26
___encStr$531179 = -48					; size = 27
__k$539201 = -44					; size = 23
__k$538942 = -44					; size = 21
__k$538817 = -44					; size = 21
___encStr$531027 = -44					; size = 20
__k$540077 = -40					; size = 16
__k$539952 = -40					; size = 18
__k$539823 = -40					; size = 16
__k$539711 = -40					; size = 16
__k$539573 = -40					; size = 16
__k$539448 = -40					; size = 16
__k$539072 = -40					; size = 18
___encStr$530874 = -40					; size = 19
__k$538692 = -36					; size = 14
__$EHRec$ = -12						; size = 12
_rkLoader$ = 8						; size = 4
?LoadProperty@ioConsecution2Skill@@UAEXAAVioINILoader@@@Z PROC ; ioConsecution2Skill::LoadProperty, COMDAT
; _this$ = ecx

; 56   : {

  00000	68 98 02 00 00	 push	 664			; 00000298H
  00005	b8 00 00 00 00	 mov	 eax, __ehhandler$?LoadProperty@ioConsecution2Skill@@UAEXAAVioINILoader@@@Z
  0000a	e8 00 00 00 00	 call	 __EH_prolog3_GS
  0000f	8b 45 08	 mov	 eax, DWORD PTR _rkLoader$[ebp]

; 57   : 	ioAttackSkill::LoadProperty( rkLoader );

  00012	50		 push	 eax
  00013	8b f1		 mov	 esi, ecx

; 118  : 		wsprintf_e( szKey, "weapon_attribute_resist_index%d", i+1 );

  00015	89 85 a0 fd ff
	ff		 mov	 DWORD PTR _rkLoader$GSCopy$[ebp], eax
  0001b	e8 00 00 00 00	 call	 ?LoadProperty@ioAttackSkill@@UAEXAAVioINILoader@@@Z ; ioAttackSkill::LoadProperty
  00020	6a 03		 push	 3
  00022	c7 45 dc 99 8d
	99 8d		 mov	 DWORD PTR __k$538692[ebp], -1919316583 ; 8d998d99H
  00029	c7 45 e0 88 98
	b4 87		 mov	 DWORD PTR __k$538692[ebp+4], -2018207608 ; 87b49888H
  00030	c7 45 e4 8c 9e
	80 8f		 mov	 DWORD PTR __k$538692[ebp+8], -1887396212 ; 8f809e8cH
  00037	8d 45 dc	 lea	 eax, DWORD PTR __k$538692[ebp]
  0003a	33 db		 xor	 ebx, ebx
  0003c	66 c7 45 e8 9f
	00		 mov	 WORD PTR __k$538692[ebp+12], 159 ; 0000009fH
  00042	59		 pop	 ecx
$LL803@LoadProper:

; 58   : 
; 59   : 	char szBuf[MAX_PATH], szKey[MAX_PATH];
; 60   : 
; 61   : 	rkLoader.LoadString_e( "target_marker", "", szBuf, MAX_PATH );

  00043	81 30 ed ec eb
	ea		 xor	 DWORD PTR [eax], -353637139 ; eaebecedH
  00049	83 c0 04	 add	 eax, 4
  0004c	49		 dec	 ecx
  0004d	75 f4		 jne	 SHORT $LL803@LoadProper
  0004f	8b 8d a0 fd ff
	ff		 mov	 ecx, DWORD PTR _rkLoader$GSCopy$[ebp]
  00055	8b 3d 00 00 00
	00		 mov	 edi, DWORD PTR __imp_?LoadStringA@ioINILoader@@QAEXPBD0PADH@Z
  0005b	80 75 e8 ed	 xor	 BYTE PTR __k$538692[ebp+12], -19 ; ffffffedH
  0005f	68 04 01 00 00	 push	 260			; 00000104H
  00064	8d 85 a8 fe ff
	ff		 lea	 eax, DWORD PTR _szBuf$[ebp]
  0006a	50		 push	 eax
  0006b	68 00 00 00 00	 push	 OFFSET ??_C@_00CNPNBAHC@?$AA@
  00070	8d 45 dc	 lea	 eax, DWORD PTR __k$538692[ebp]
  00073	50		 push	 eax
  00074	ff d7		 call	 edi

; 62   : 	m_szTargetMarker = szBuf;

  00076	8d 85 a8 fe ff
	ff		 lea	 eax, DWORD PTR _szBuf$[ebp]
  0007c	50		 push	 eax
  0007d	8d 8e ec 10 00
	00		 lea	 ecx, DWORD PTR [esi+4332]
  00083	ff 15 00 00 00
	00		 call	 DWORD PTR __imp_??4ioHashString@@QAEAAV0@PBD@Z
  00089	6a 05		 push	 5

; 63   : 
; 64   : 	rkLoader.LoadString_e( "result_target_marker", "", szBuf, MAX_PATH );

  0008b	c7 45 d4 9f 89
	98 9f		 mov	 DWORD PTR __k$538817[ebp], -1617393249 ; 9f98899fH
  00092	c7 45 d8 81 98
	b4 9e		 mov	 DWORD PTR __k$538817[ebp+4], -1632331647 ; 9eb49881H
  00099	c7 45 dc 8c 9e
	8c 8f		 mov	 DWORD PTR __k$538817[ebp+8], -1886609780 ; 8f8c9e8cH
  000a0	c7 45 e0 99 b3
	86 8b		 mov	 DWORD PTR __k$538817[ebp+12], -1954106471 ; 8b86b399H
  000a7	c7 45 e4 9f 87
	8e 98		 mov	 DWORD PTR __k$538817[ebp+16], -1735489633 ; 988e879fH
  000ae	8d 45 d4	 lea	 eax, DWORD PTR __k$538817[ebp]
  000b1	88 5d e8	 mov	 BYTE PTR __k$538817[ebp+20], bl
  000b4	59		 pop	 ecx
$LL909@LoadProper:
  000b5	81 30 ed ec eb
	ea		 xor	 DWORD PTR [eax], -353637139 ; eaebecedH
  000bb	83 c0 04	 add	 eax, 4
  000be	49		 dec	 ecx
  000bf	75 f4		 jne	 SHORT $LL909@LoadProper
  000c1	8b 8d a0 fd ff
	ff		 mov	 ecx, DWORD PTR _rkLoader$GSCopy$[ebp]
  000c7	68 04 01 00 00	 push	 260			; 00000104H
  000cc	8d 85 a8 fe ff
	ff		 lea	 eax, DWORD PTR _szBuf$[ebp]
  000d2	50		 push	 eax
  000d3	68 00 00 00 00	 push	 OFFSET ??_C@_00CNPNBAHC@?$AA@
  000d8	8d 45 d4	 lea	 eax, DWORD PTR __k$538817[ebp]
  000db	50		 push	 eax
  000dc	ff d7		 call	 edi

; 65   : 	m_szResultMarker = szBuf;

  000de	8d 85 a8 fe ff
	ff		 lea	 eax, DWORD PTR _szBuf$[ebp]
  000e4	50		 push	 eax
  000e5	8d 8e 30 11 00
	00		 lea	 ecx, DWORD PTR [esi+4400]
  000eb	ff 15 00 00 00
	00		 call	 DWORD PTR __imp_??4ioHashString@@QAEAAV0@PBD@Z
  000f1	6a 05		 push	 5

; 66   : 	m_fMarkerOffset = rkLoader.LoadFloat_e( "target_marker_offset", 0.0f );

  000f3	c7 45 d4 99 8d
	99 8d		 mov	 DWORD PTR __k$538942[ebp], -1919316583 ; 8d998d99H
  000fa	c7 45 d8 88 98
	b4 87		 mov	 DWORD PTR __k$538942[ebp+4], -2018207608 ; 87b49888H
  00101	c7 45 dc 8c 9e
	80 8f		 mov	 DWORD PTR __k$538942[ebp+8], -1887396212 ; 8f809e8cH
  00108	c7 45 e0 9f b3
	84 8c		 mov	 DWORD PTR __k$538942[ebp+12], -1937460321 ; 8c84b39fH
  0010f	c7 45 e4 8b 9f
	8e 9e		 mov	 DWORD PTR __k$538942[ebp+16], -1634820213 ; 9e8e9f8bH
  00116	8d 45 d4	 lea	 eax, DWORD PTR __k$538942[ebp]
  00119	88 5d e8	 mov	 BYTE PTR __k$538942[ebp+20], bl
  0011c	59		 pop	 ecx
$LL1015@LoadProper:
  0011d	81 30 ed ec eb
	ea		 xor	 DWORD PTR [eax], -353637139 ; eaebecedH
  00123	83 c0 04	 add	 eax, 4
  00126	49		 dec	 ecx
  00127	75 f4		 jne	 SHORT $LL1015@LoadProper
  00129	0f 57 c0	 xorps	 xmm0, xmm0
  0012c	51		 push	 ecx
  0012d	8b 8d a0 fd ff
	ff		 mov	 ecx, DWORD PTR _rkLoader$GSCopy$[ebp]
  00133	8d 45 d4	 lea	 eax, DWORD PTR __k$538942[ebp]
  00136	f3 0f 11 04 24	 movss	 DWORD PTR [esp], xmm0
  0013b	50		 push	 eax
  0013c	ff 15 00 00 00
	00		 call	 DWORD PTR __imp_?LoadFloat@ioINILoader@@QAEMPBDM@Z
  00142	d9 9d 98 fd ff
	ff		 fstp	 DWORD PTR _value$539042[ebp]
  00148	8d 85 98 fd ff
	ff		 lea	 eax, DWORD PTR _value$539042[ebp]
  0014e	50		 push	 eax
  0014f	8d 8e fc 10 00
	00		 lea	 ecx, DWORD PTR [esi+4348]
  00155	e8 00 00 00 00	 call	 ?EncryptValueToPool@?$CEncrypt@M@@AAEXPBD@Z ; CEncrypt<float>::EncryptValueToPool
  0015a	6a 04		 push	 4

; 67   : 
; 68   : 	rkLoader.LoadString_e( "skill_loop_motion", "", szBuf, MAX_PATH );

  0015c	c7 45 d8 9e 87
	82 86		 mov	 DWORD PTR __k$539072[ebp], -2038265954 ; 8682879eH
  00163	c7 45 dc 81 b3
	87 85		 mov	 DWORD PTR __k$539072[ebp+4], -2054704255 ; 8587b381H
  0016a	c7 45 e0 82 9c
	b4 87		 mov	 DWORD PTR __k$539072[ebp+8], -2018206590 ; 87b49c82H
  00171	c7 45 e4 82 98
	82 85		 mov	 DWORD PTR __k$539072[ebp+12], -2055038846 ; 85829882H
  00178	8d 45 d8	 lea	 eax, DWORD PTR __k$539072[ebp]
  0017b	66 c7 45 e8 83
	00		 mov	 WORD PTR __k$539072[ebp+16], 131 ; 00000083H
  00181	59		 pop	 ecx
$LL1123@LoadProper:
  00182	81 30 ed ec eb
	ea		 xor	 DWORD PTR [eax], -353637139 ; eaebecedH
  00188	83 c0 04	 add	 eax, 4
  0018b	49		 dec	 ecx
  0018c	75 f4		 jne	 SHORT $LL1123@LoadProper
  0018e	8b 8d a0 fd ff
	ff		 mov	 ecx, DWORD PTR _rkLoader$GSCopy$[ebp]
  00194	80 75 e8 ed	 xor	 BYTE PTR __k$539072[ebp+16], -19 ; ffffffedH
  00198	68 04 01 00 00	 push	 260			; 00000104H
  0019d	8d 85 a8 fe ff
	ff		 lea	 eax, DWORD PTR _szBuf$[ebp]
  001a3	50		 push	 eax
  001a4	68 00 00 00 00	 push	 OFFSET ??_C@_00CNPNBAHC@?$AA@
  001a9	8d 45 d8	 lea	 eax, DWORD PTR __k$539072[ebp]
  001ac	50		 push	 eax
  001ad	ff d7		 call	 edi

; 69   : 	m_szSkillLoopMotion = szBuf;

  001af	8d 85 a8 fe ff
	ff		 lea	 eax, DWORD PTR _szBuf$[ebp]
  001b5	50		 push	 eax
  001b6	8d 8e 50 11 00
	00		 lea	 ecx, DWORD PTR [esi+4432]
  001bc	ff 15 00 00 00
	00		 call	 DWORD PTR __imp_??4ioHashString@@QAEAAV0@PBD@Z

; 70   : 
; 71   : 	m_fSkillLoopMotionRate	= rkLoader.LoadFloat_e( "skill_loop_motion_rate", FLOAT1 );

  001c2	b8 01 00 00 00	 mov	 eax, 1
  001c7	6a 05		 push	 5
  001c9	c7 45 d4 9e 87
	82 86		 mov	 DWORD PTR __k$539201[ebp], -2038265954 ; 8682879eH
  001d0	c7 45 d8 81 b3
	87 85		 mov	 DWORD PTR __k$539201[ebp+4], -2054704255 ; 8587b381H
  001d7	c7 45 dc 82 9c
	b4 87		 mov	 DWORD PTR __k$539201[ebp+8], -2018206590 ; 87b49c82H
  001de	c7 45 e0 82 98
	82 85		 mov	 DWORD PTR __k$539201[ebp+12], -2055038846 ; 85829882H
  001e5	c7 45 e4 83 b3
	99 8b		 mov	 DWORD PTR __k$539201[ebp+16], -1952861309 ; 8b99b383H
  001ec	66 c7 45 e8 99
	89		 mov	 WORD PTR __k$539201[ebp+20], 35225 ; 00008999H
  001f2	8d 4d d4	 lea	 ecx, DWORD PTR __k$539201[ebp]
  001f5	88 5d ea	 mov	 BYTE PTR __k$539201[ebp+22], bl
  001f8	5a		 pop	 edx
$LL1231@LoadProper:
  001f9	81 31 ed ec eb
	ea		 xor	 DWORD PTR [ecx], -353637139 ; eaebecedH
  001ff	83 c1 04	 add	 ecx, 4
  00202	4a		 dec	 edx
  00203	75 f4		 jne	 SHORT $LL1231@LoadProper
  00205	c7 85 9c fd ff
	ff 14 00 00 00	 mov	 DWORD PTR _i$539190[ebp], 20 ; 00000014H
$LL1228@LoadProper:
  0020f	8b 8d 9c fd ff
	ff		 mov	 ecx, DWORD PTR _i$539190[ebp]
  00215	81 e1 03 00 00
	80		 and	 ecx, -2147483645	; 80000003H
  0021b	79 05		 jns	 SHORT $LN2126@LoadProper
  0021d	49		 dec	 ecx
  0021e	83 c9 fc	 or	 ecx, -4			; fffffffcH
  00221	41		 inc	 ecx
$LN2126@LoadProper:
  00222	b2 ed		 mov	 dl, -19			; ffffffedH
  00224	2a d1		 sub	 dl, cl
  00226	8b 8d 9c fd ff
	ff		 mov	 ecx, DWORD PTR _i$539190[ebp]
  0022c	30 54 0d d4	 xor	 BYTE PTR __k$539201[ebp+ecx], dl
  00230	ff 85 9c fd ff
	ff		 inc	 DWORD PTR _i$539190[ebp]
  00236	83 bd 9c fd ff
	ff 16		 cmp	 DWORD PTR _i$539190[ebp], 22 ; 00000016H
  0023d	7c d0		 jl	 SHORT $LL1228@LoadProper
  0023f	89 85 94 fd ff
	ff		 mov	 DWORD PTR tv16357[ebp], eax
  00245	db 85 94 fd ff
	ff		 fild	 DWORD PTR tv16357[ebp]
  0024b	85 c0		 test	 eax, eax
  0024d	79 06		 jns	 SHORT $LN2127@LoadProper
  0024f	d8 05 00 00 00
	00		 fadd	 DWORD PTR __real@4f800000
$LN2127@LoadProper:
  00255	51		 push	 ecx
  00256	8b 8d a0 fd ff
	ff		 mov	 ecx, DWORD PTR _rkLoader$GSCopy$[ebp]
  0025c	d9 1c 24	 fstp	 DWORD PTR [esp]
  0025f	8d 45 d4	 lea	 eax, DWORD PTR __k$539201[ebp]
  00262	50		 push	 eax
  00263	ff 15 00 00 00
	00		 call	 DWORD PTR __imp_?LoadFloat@ioINILoader@@QAEMPBDM@Z
  00269	d9 9d 98 fd ff
	ff		 fstp	 DWORD PTR _value$539301[ebp]
  0026f	8d 85 98 fd ff
	ff		 lea	 eax, DWORD PTR _value$539301[ebp]
  00275	50		 push	 eax
  00276	8d 8e 60 11 00
	00		 lea	 ecx, DWORD PTR [esi+4448]
  0027c	e8 00 00 00 00	 call	 ?EncryptValueToPool@?$CEncrypt@M@@AAEXPBD@Z ; CEncrypt<float>::EncryptValueToPool
  00281	6a 05		 push	 5

; 72   : 	m_dwSkillLoopDuration		= (DWORD)rkLoader.LoadInt_e( "skill_loop_protect_time", 0 );

  00283	c7 45 d0 9e 87
	82 86		 mov	 DWORD PTR __k$539370[ebp], -2038265954 ; 8682879eH
  0028a	c7 45 d4 81 b3
	87 85		 mov	 DWORD PTR __k$539370[ebp+4], -2054704255 ; 8587b381H
  00291	c7 45 d8 82 9c
	b4 9a		 mov	 DWORD PTR __k$539370[ebp+8], -1699439486 ; 9ab49c82H
  00298	c7 45 dc 9f 83
	9f 8f		 mov	 DWORD PTR __k$539370[ebp+12], -1885371489 ; 8f9f839fH
  0029f	c7 45 e0 8e 98
	b4 9e		 mov	 DWORD PTR __k$539370[ebp+16], -1632331634 ; 9eb4988eH
  002a6	8d 45 d0	 lea	 eax, DWORD PTR __k$539370[ebp]
  002a9	c7 45 e4 84 81
	8e 00		 mov	 DWORD PTR __k$539370[ebp+20], 9339268 ; 008e8184H
  002b0	59		 pop	 ecx
$LL1339@LoadProper:
  002b1	81 30 ed ec eb
	ea		 xor	 DWORD PTR [eax], -353637139 ; eaebecedH
  002b7	83 c0 04	 add	 eax, 4
  002ba	49		 dec	 ecx
  002bb	75 f4		 jne	 SHORT $LL1339@LoadProper
  002bd	6a 14		 push	 20			; 00000014H
  002bf	58		 pop	 eax
$LL1336@LoadProper:
  002c0	8b c8		 mov	 ecx, eax
  002c2	81 e1 03 00 00
	80		 and	 ecx, -2147483645	; 80000003H
  002c8	79 05		 jns	 SHORT $LN2128@LoadProper
  002ca	49		 dec	 ecx
  002cb	83 c9 fc	 or	 ecx, -4			; fffffffcH
  002ce	41		 inc	 ecx
$LN2128@LoadProper:
  002cf	b2 ed		 mov	 dl, -19			; ffffffedH
  002d1	2a d1		 sub	 dl, cl
  002d3	30 54 05 d0	 xor	 BYTE PTR __k$539370[ebp+eax], dl
  002d7	40		 inc	 eax
  002d8	83 f8 17	 cmp	 eax, 23			; 00000017H
  002db	7c e3		 jl	 SHORT $LL1336@LoadProper
  002dd	8b 8d a0 fd ff
	ff		 mov	 ecx, DWORD PTR _rkLoader$GSCopy$[ebp]
  002e3	53		 push	 ebx
  002e4	8d 45 d0	 lea	 eax, DWORD PTR __k$539370[ebp]
  002e7	50		 push	 eax
  002e8	ff 15 00 00 00
	00		 call	 DWORD PTR __imp_?LoadInt@ioINILoader@@QAEHPBDH@Z
  002ee	89 85 98 fd ff
	ff		 mov	 DWORD PTR _value$539430[ebp], eax
  002f4	8d 85 98 fd ff
	ff		 lea	 eax, DWORD PTR _value$539430[ebp]
  002fa	50		 push	 eax
  002fb	8d 8e 90 11 00
	00		 lea	 ecx, DWORD PTR [esi+4496]
  00301	e8 00 00 00 00	 call	 ?EncryptValueToPool@?$CEncrypt@K@@AAEXPBD@Z ; CEncrypt<unsigned long>::EncryptValueToPool
  00306	6a 03		 push	 3

; 73   : 
; 74   : 	rkLoader.LoadString_e( "skill_motion_fr", "", szBuf, MAX_PATH );

  00308	c7 45 d8 9e 87
	82 86		 mov	 DWORD PTR __k$539448[ebp], -2038265954 ; 8682879eH
  0030f	c7 45 dc 81 b3
	86 85		 mov	 DWORD PTR __k$539448[ebp+4], -2054769791 ; 8586b381H
  00316	c7 45 e0 99 85
	84 84		 mov	 DWORD PTR __k$539448[ebp+8], -2071689831 ; 84848599H
  0031d	8d 45 d8	 lea	 eax, DWORD PTR __k$539448[ebp]
  00320	c7 45 e4 b2 8a
	99 00		 mov	 DWORD PTR __k$539448[ebp+12], 10062514 ; 00998ab2H
  00327	59		 pop	 ecx
$LL1447@LoadProper:
  00328	81 30 ed ec eb
	ea		 xor	 DWORD PTR [eax], -353637139 ; eaebecedH
  0032e	83 c0 04	 add	 eax, 4
  00331	49		 dec	 ecx
  00332	75 f4		 jne	 SHORT $LL1447@LoadProper
  00334	6a 0c		 push	 12			; 0000000cH
  00336	58		 pop	 eax
$LL1444@LoadProper:
  00337	8b c8		 mov	 ecx, eax
  00339	81 e1 03 00 00
	80		 and	 ecx, -2147483645	; 80000003H
  0033f	79 05		 jns	 SHORT $LN2129@LoadProper
  00341	49		 dec	 ecx
  00342	83 c9 fc	 or	 ecx, -4			; fffffffcH
  00345	41		 inc	 ecx
$LN2129@LoadProper:
  00346	b2 ed		 mov	 dl, -19			; ffffffedH
  00348	2a d1		 sub	 dl, cl
  0034a	30 54 05 d8	 xor	 BYTE PTR __k$539448[ebp+eax], dl
  0034e	40		 inc	 eax
  0034f	83 f8 0f	 cmp	 eax, 15			; 0000000fH
  00352	7c e3		 jl	 SHORT $LL1444@LoadProper
  00354	8b 8d a0 fd ff
	ff		 mov	 ecx, DWORD PTR _rkLoader$GSCopy$[ebp]
  0035a	68 04 01 00 00	 push	 260			; 00000104H
  0035f	8d 85 a8 fe ff
	ff		 lea	 eax, DWORD PTR _szBuf$[ebp]
  00365	50		 push	 eax
  00366	68 00 00 00 00	 push	 OFFSET ??_C@_00CNPNBAHC@?$AA@
  0036b	8d 45 d8	 lea	 eax, DWORD PTR __k$539448[ebp]
  0036e	50		 push	 eax
  0036f	ff d7		 call	 edi

; 75   : 	m_SkillMotionFr = szBuf;

  00371	8d 85 a8 fe ff
	ff		 lea	 eax, DWORD PTR _szBuf$[ebp]
  00377	50		 push	 eax
  00378	8d 8e c0 11 00
	00		 lea	 ecx, DWORD PTR [esi+4544]
  0037e	ff 15 00 00 00
	00		 call	 DWORD PTR __imp_??4ioHashString@@QAEAAV0@PBD@Z
  00384	6a 03		 push	 3

; 76   : 
; 77   : 	rkLoader.LoadString_e( "skill_motion_bk", "", szBuf, MAX_PATH );

  00386	c7 45 d8 9e 87
	82 86		 mov	 DWORD PTR __k$539573[ebp], -2038265954 ; 8682879eH
  0038d	c7 45 dc 81 b3
	86 85		 mov	 DWORD PTR __k$539573[ebp+4], -2054769791 ; 8586b381H
  00394	c7 45 e0 99 85
	84 84		 mov	 DWORD PTR __k$539573[ebp+8], -2071689831 ; 84848599H
  0039b	8d 45 d8	 lea	 eax, DWORD PTR __k$539573[ebp]
  0039e	c7 45 e4 b2 8e
	80 00		 mov	 DWORD PTR __k$539573[ebp+12], 8425138 ; 00808eb2H
  003a5	59		 pop	 ecx
$LL1553@LoadProper:
  003a6	81 30 ed ec eb
	ea		 xor	 DWORD PTR [eax], -353637139 ; eaebecedH
  003ac	83 c0 04	 add	 eax, 4
  003af	49		 dec	 ecx
  003b0	75 f4		 jne	 SHORT $LL1553@LoadProper
  003b2	6a 0c		 push	 12			; 0000000cH
  003b4	58		 pop	 eax
$LL1550@LoadProper:
  003b5	8b c8		 mov	 ecx, eax
  003b7	81 e1 03 00 00
	80		 and	 ecx, -2147483645	; 80000003H
  003bd	79 05		 jns	 SHORT $LN2130@LoadProper
  003bf	49		 dec	 ecx
  003c0	83 c9 fc	 or	 ecx, -4			; fffffffcH
  003c3	41		 inc	 ecx
$LN2130@LoadProper:
  003c4	b2 ed		 mov	 dl, -19			; ffffffedH
  003c6	2a d1		 sub	 dl, cl
  003c8	30 54 05 d8	 xor	 BYTE PTR __k$539573[ebp+eax], dl
  003cc	40		 inc	 eax
  003cd	83 f8 0f	 cmp	 eax, 15			; 0000000fH
  003d0	7c e3		 jl	 SHORT $LL1550@LoadProper
  003d2	8b 8d a0 fd ff
	ff		 mov	 ecx, DWORD PTR _rkLoader$GSCopy$[ebp]
  003d8	68 04 01 00 00	 push	 260			; 00000104H
  003dd	8d 85 a8 fe ff
	ff		 lea	 eax, DWORD PTR _szBuf$[ebp]
  003e3	50		 push	 eax
  003e4	68 00 00 00 00	 push	 OFFSET ??_C@_00CNPNBAHC@?$AA@
  003e9	8d 45 d8	 lea	 eax, DWORD PTR __k$539573[ebp]
  003ec	50		 push	 eax
  003ed	ff d7		 call	 edi

; 78   : 	m_SkillMotionBk = szBuf;

  003ef	8d 85 a8 fe ff
	ff		 lea	 eax, DWORD PTR _szBuf$[ebp]
  003f5	50		 push	 eax
  003f6	8d 8e d0 11 00
	00		 lea	 ecx, DWORD PTR [esi+4560]
  003fc	ff 15 00 00 00
	00		 call	 DWORD PTR __imp_??4ioHashString@@QAEAAV0@PBD@Z
  00402	6a 03		 push	 3

; 79   : 
; 80   : 	rkLoader.LoadString_e( "skill_motion_lt", "", szBuf, MAX_PATH );

  00404	c7 45 d8 9e 87
	82 86		 mov	 DWORD PTR __k$539711[ebp], -2038265954 ; 8682879eH
  0040b	c7 45 dc 81 b3
	86 85		 mov	 DWORD PTR __k$539711[ebp+4], -2054769791 ; 8586b381H
  00412	c7 45 e0 99 85
	84 84		 mov	 DWORD PTR __k$539711[ebp+8], -2071689831 ; 84848599H
  00419	8d 45 d8	 lea	 eax, DWORD PTR __k$539711[ebp]
  0041c	c7 45 e4 b2 80
	9f 00		 mov	 DWORD PTR __k$539711[ebp+12], 10453170 ; 009f80b2H
  00423	59		 pop	 ecx
$LL1659@LoadProper:
  00424	81 30 ed ec eb
	ea		 xor	 DWORD PTR [eax], -353637139 ; eaebecedH
  0042a	83 c0 04	 add	 eax, 4
  0042d	49		 dec	 ecx
  0042e	75 f4		 jne	 SHORT $LL1659@LoadProper
  00430	6a 0c		 push	 12			; 0000000cH
  00432	58		 pop	 eax
$LL1656@LoadProper:
  00433	8b c8		 mov	 ecx, eax
  00435	81 e1 03 00 00
	80		 and	 ecx, -2147483645	; 80000003H
  0043b	79 05		 jns	 SHORT $LN2131@LoadProper
  0043d	49		 dec	 ecx
  0043e	83 c9 fc	 or	 ecx, -4			; fffffffcH
  00441	41		 inc	 ecx
$LN2131@LoadProper:
  00442	b2 ed		 mov	 dl, -19			; ffffffedH
  00444	2a d1		 sub	 dl, cl
  00446	30 54 05 d8	 xor	 BYTE PTR __k$539711[ebp+eax], dl
  0044a	40		 inc	 eax
  0044b	83 f8 0f	 cmp	 eax, 15			; 0000000fH
  0044e	7c e3		 jl	 SHORT $LL1656@LoadProper
  00450	8b 8d a0 fd ff
	ff		 mov	 ecx, DWORD PTR _rkLoader$GSCopy$[ebp]
  00456	68 04 01 00 00	 push	 260			; 00000104H
  0045b	8d 85 a8 fe ff
	ff		 lea	 eax, DWORD PTR _szBuf$[ebp]
  00461	50		 push	 eax
  00462	68 00 00 00 00	 push	 OFFSET ??_C@_00CNPNBAHC@?$AA@
  00467	8d 45 d8	 lea	 eax, DWORD PTR __k$539711[ebp]
  0046a	50		 push	 eax
  0046b	ff d7		 call	 edi

; 81   : 	m_SkillMotionLt = szBuf;

  0046d	8d 85 a8 fe ff
	ff		 lea	 eax, DWORD PTR _szBuf$[ebp]
  00473	50		 push	 eax
  00474	8d 8e e0 11 00
	00		 lea	 ecx, DWORD PTR [esi+4576]
  0047a	ff 15 00 00 00
	00		 call	 DWORD PTR __imp_??4ioHashString@@QAEAAV0@PBD@Z
  00480	6a 03		 push	 3

; 82   : 
; 83   : 	rkLoader.LoadString_e( "skill_motion_rt", "", szBuf, MAX_PATH );

  00482	c7 45 d8 9e 87
	82 86		 mov	 DWORD PTR __k$539823[ebp], -2038265954 ; 8682879eH
  00489	c7 45 dc 81 b3
	86 85		 mov	 DWORD PTR __k$539823[ebp+4], -2054769791 ; 8586b381H
  00490	c7 45 e0 99 85
	84 84		 mov	 DWORD PTR __k$539823[ebp+8], -2071689831 ; 84848599H
  00497	8d 45 d8	 lea	 eax, DWORD PTR __k$539823[ebp]
  0049a	c7 45 e4 b2 9e
	9f 00		 mov	 DWORD PTR __k$539823[ebp+12], 10460850 ; 009f9eb2H
  004a1	59		 pop	 ecx
$LL1765@LoadProper:
  004a2	81 30 ed ec eb
	ea		 xor	 DWORD PTR [eax], -353637139 ; eaebecedH
  004a8	83 c0 04	 add	 eax, 4
  004ab	49		 dec	 ecx
  004ac	75 f4		 jne	 SHORT $LL1765@LoadProper
  004ae	6a 0c		 push	 12			; 0000000cH
  004b0	58		 pop	 eax
$LL1762@LoadProper:
  004b1	8b c8		 mov	 ecx, eax
  004b3	81 e1 03 00 00
	80		 and	 ecx, -2147483645	; 80000003H
  004b9	79 05		 jns	 SHORT $LN2132@LoadProper
  004bb	49		 dec	 ecx
  004bc	83 c9 fc	 or	 ecx, -4			; fffffffcH
  004bf	41		 inc	 ecx
$LN2132@LoadProper:
  004c0	b2 ed		 mov	 dl, -19			; ffffffedH
  004c2	2a d1		 sub	 dl, cl
  004c4	30 54 05 d8	 xor	 BYTE PTR __k$539823[ebp+eax], dl
  004c8	40		 inc	 eax
  004c9	83 f8 0f	 cmp	 eax, 15			; 0000000fH
  004cc	7c e3		 jl	 SHORT $LL1762@LoadProper
  004ce	8b 8d a0 fd ff
	ff		 mov	 ecx, DWORD PTR _rkLoader$GSCopy$[ebp]
  004d4	68 04 01 00 00	 push	 260			; 00000104H
  004d9	8d 85 a8 fe ff
	ff		 lea	 eax, DWORD PTR _szBuf$[ebp]
  004df	50		 push	 eax
  004e0	68 00 00 00 00	 push	 OFFSET ??_C@_00CNPNBAHC@?$AA@
  004e5	8d 45 d8	 lea	 eax, DWORD PTR __k$539823[ebp]
  004e8	50		 push	 eax
  004e9	ff d7		 call	 edi

; 84   : 	m_SkillMotionRt = szBuf;

  004eb	8d 85 a8 fe ff
	ff		 lea	 eax, DWORD PTR _szBuf$[ebp]
  004f1	50		 push	 eax
  004f2	8d 8e f0 11 00
	00		 lea	 ecx, DWORD PTR [esi+4592]
  004f8	ff 15 00 00 00
	00		 call	 DWORD PTR __imp_??4ioHashString@@QAEAAV0@PBD@Z

; 85   : 
; 86   : 	m_fSkillMotionRate = rkLoader.LoadFloat_e( "skill_motion_rate", FLOAT1 );

  004fe	b8 01 00 00 00	 mov	 eax, 1
  00503	6a 04		 push	 4
  00505	c7 45 d8 9e 87
	82 86		 mov	 DWORD PTR __k$539952[ebp], -2038265954 ; 8682879eH
  0050c	c7 45 dc 81 b3
	86 85		 mov	 DWORD PTR __k$539952[ebp+4], -2054769791 ; 8586b381H
  00513	c7 45 e0 99 85
	84 84		 mov	 DWORD PTR __k$539952[ebp+8], -2071689831 ; 84848599H
  0051a	c7 45 e4 b2 9e
	8a 9e		 mov	 DWORD PTR __k$539952[ebp+12], -1635082574 ; 9e8a9eb2H
  00521	8d 4d d8	 lea	 ecx, DWORD PTR __k$539952[ebp]
  00524	66 c7 45 e8 88
	00		 mov	 WORD PTR __k$539952[ebp+16], 136 ; 00000088H
  0052a	5a		 pop	 edx
$LL1873@LoadProper:
  0052b	81 31 ed ec eb
	ea		 xor	 DWORD PTR [ecx], -353637139 ; eaebecedH
  00531	83 c1 04	 add	 ecx, 4
  00534	4a		 dec	 edx
  00535	75 f4		 jne	 SHORT $LL1873@LoadProper
  00537	80 75 e8 ed	 xor	 BYTE PTR __k$539952[ebp+16], -19 ; ffffffedH
  0053b	89 85 94 fd ff
	ff		 mov	 DWORD PTR tv16323[ebp], eax
  00541	db 85 94 fd ff
	ff		 fild	 DWORD PTR tv16323[ebp]
  00547	85 c0		 test	 eax, eax
  00549	79 06		 jns	 SHORT $LN2133@LoadProper
  0054b	d8 05 00 00 00
	00		 fadd	 DWORD PTR __real@4f800000
$LN2133@LoadProper:
  00551	51		 push	 ecx
  00552	8b 8d a0 fd ff
	ff		 mov	 ecx, DWORD PTR _rkLoader$GSCopy$[ebp]
  00558	d9 1c 24	 fstp	 DWORD PTR [esp]
  0055b	8d 45 d8	 lea	 eax, DWORD PTR __k$539952[ebp]
  0055e	50		 push	 eax
  0055f	ff 15 00 00 00
	00		 call	 DWORD PTR __imp_?LoadFloat@ioINILoader@@QAEMPBDM@Z
  00565	d9 9e 00 12 00
	00		 fstp	 DWORD PTR [esi+4608]
  0056b	6a 03		 push	 3

; 87   : 
; 88   : 	int iFireCnt = rkLoader.LoadInt_e( "weapon_fire_cnt", 0 );

  0056d	c7 45 d8 9a 89
	8a 9a		 mov	 DWORD PTR __k$540077[ebp], -1702196838 ; 9a8a899aH
  00574	c7 45 dc 82 82
	b4 8c		 mov	 DWORD PTR __k$540077[ebp+4], -1934327166 ; 8cb48282H
  0057b	c7 45 e0 84 9e
	8e b5		 mov	 DWORD PTR __k$540077[ebp+8], -1248944508 ; b58e9e84H
  00582	8d 45 d8	 lea	 eax, DWORD PTR __k$540077[ebp]
  00585	c7 45 e4 8e 82
	9f 00		 mov	 DWORD PTR __k$540077[ebp+12], 10453646 ; 009f828eH
  0058c	59		 pop	 ecx
$LL1979@LoadProper:
  0058d	81 30 ed ec eb
	ea		 xor	 DWORD PTR [eax], -353637139 ; eaebecedH
  00593	83 c0 04	 add	 eax, 4
  00596	49		 dec	 ecx
  00597	75 f4		 jne	 SHORT $LL1979@LoadProper
  00599	6a 0c		 push	 12			; 0000000cH
  0059b	58		 pop	 eax
$LL1976@LoadProper:
  0059c	8b c8		 mov	 ecx, eax
  0059e	81 e1 03 00 00
	80		 and	 ecx, -2147483645	; 80000003H
  005a4	79 05		 jns	 SHORT $LN2134@LoadProper
  005a6	49		 dec	 ecx
  005a7	83 c9 fc	 or	 ecx, -4			; fffffffcH
  005aa	41		 inc	 ecx
$LN2134@LoadProper:
  005ab	b2 ed		 mov	 dl, -19			; ffffffedH
  005ad	2a d1		 sub	 dl, cl
  005af	30 54 05 d8	 xor	 BYTE PTR __k$540077[ebp+eax], dl
  005b3	40		 inc	 eax
  005b4	83 f8 0f	 cmp	 eax, 15			; 0000000fH
  005b7	7c e3		 jl	 SHORT $LL1976@LoadProper
  005b9	8b 8d a0 fd ff
	ff		 mov	 ecx, DWORD PTR _rkLoader$GSCopy$[ebp]
  005bf	53		 push	 ebx
  005c0	8d 45 d8	 lea	 eax, DWORD PTR __k$540077[ebp]
  005c3	50		 push	 eax
  005c4	ff 15 00 00 00
	00		 call	 DWORD PTR __imp_?LoadInt@ioINILoader@@QAEHPBDH@Z

; 89   : 	m_vWeaponFireInfoList.clear();

  005ca	81 c6 2c 12 00
	00		 add	 esi, 4652		; 0000122cH
  005d0	8b ce		 mov	 ecx, esi
  005d2	89 85 98 fd ff
	ff		 mov	 DWORD PTR _iFireCnt$[ebp], eax
  005d8	89 b5 94 fd ff
	ff		 mov	 DWORD PTR tv13624[ebp], esi
  005de	e8 00 00 00 00	 call	 ?clear@?$vector@UWeaponFireInfo@@V?$allocator@UWeaponFireInfo@@@std@@@std@@QAEXXZ ; std::vector<WeaponFireInfo,std::allocator<WeaponFireInfo> >::clear

; 90   : 	m_vWeaponFireInfoList.reserve( iFireCnt );

  005e3	ff b5 98 fd ff
	ff		 push	 DWORD PTR _iFireCnt$[ebp]
  005e9	8b ce		 mov	 ecx, esi
  005eb	e8 00 00 00 00	 call	 ?reserve@?$vector@UWeaponFireInfo@@V?$allocator@UWeaponFireInfo@@@std@@@std@@QAEXI@Z ; std::vector<WeaponFireInfo,std::allocator<WeaponFireInfo> >::reserve

; 91   : 
; 92   : 	for( int i=0; i < iFireCnt; ++i )

  005f0	39 9d 98 fd ff
	ff		 cmp	 DWORD PTR _iFireCnt$[ebp], ebx
  005f6	0f 8e 2b 04 00
	00		 jle	 $LN694@LoadProper

; 87   : 
; 88   : 	int iFireCnt = rkLoader.LoadInt_e( "weapon_fire_cnt", 0 );

  005fc	8b 85 98 fd ff
	ff		 mov	 eax, DWORD PTR _iFireCnt$[ebp]
  00602	8b 35 00 00 00
	00		 mov	 esi, DWORD PTR __imp__wsprintfA
  00608	c7 85 9c fd ff
	ff 01 00 00 00	 mov	 DWORD PTR tv16409[ebp], 1
  00612	89 85 98 fd ff
	ff		 mov	 DWORD PTR tv11641[ebp], eax
$LL696@LoadProper:

; 93   : 	{
; 94   : 		WeaponFireInfo kFireInfo;

  00618	8d 8d 64 fd ff
	ff		 lea	 ecx, DWORD PTR _kFireInfo$530868[ebp+8]
  0061e	e8 00 00 00 00	 call	 ??0WeaponInfo@@QAE@XZ	; WeaponInfo::WeaponInfo
  00623	6a 04		 push	 4
  00625	89 5d fc	 mov	 DWORD PTR __$EHRec$[ebp+8], ebx

; 95   : 		DWORD dwFireTime = 0;
; 96   : 		float fFireAngle = 0.0f;
; 97   : 
; 98   : 		wsprintf_e( szKey, "weapon_fire_time%d", i+1 );

  00628	c7 45 d8 9a 89
	8a 9a		 mov	 DWORD PTR ___encStr$530874[ebp], -1702196838 ; 9a8a899aH
  0062f	c7 45 dc 82 82
	b4 8c		 mov	 DWORD PTR ___encStr$530874[ebp+4], -1934327166 ; 8cb48282H
  00636	c7 45 e0 84 9e
	8e b5		 mov	 DWORD PTR ___encStr$530874[ebp+8], -1248944508 ; b58e9e84H
  0063d	c7 45 e4 99 85
	86 8f		 mov	 DWORD PTR ___encStr$530874[ebp+12], -1887009383 ; 8f868599H
  00644	66 c7 45 e8 c8
	88		 mov	 WORD PTR ___encStr$530874[ebp+16], 35016 ; 000088c8H
  0064a	8d 45 d8	 lea	 eax, DWORD PTR ___encStr$530874[ebp]
  0064d	88 5d ea	 mov	 BYTE PTR ___encStr$530874[ebp+18], bl
  00650	59		 pop	 ecx
$LL1990@LoadProper:
  00651	81 30 ed ec eb
	ea		 xor	 DWORD PTR [eax], -353637139 ; eaebecedH
  00657	83 c0 04	 add	 eax, 4
  0065a	49		 dec	 ecx
  0065b	75 f4		 jne	 SHORT $LL1990@LoadProper
  0065d	6a 10		 push	 16			; 00000010H
  0065f	58		 pop	 eax
$LL1987@LoadProper:
  00660	8b c8		 mov	 ecx, eax
  00662	81 e1 03 00 00
	80		 and	 ecx, -2147483645	; 80000003H
  00668	79 05		 jns	 SHORT $LN2135@LoadProper
  0066a	49		 dec	 ecx
  0066b	83 c9 fc	 or	 ecx, -4			; fffffffcH
  0066e	41		 inc	 ecx
$LN2135@LoadProper:
  0066f	b2 ed		 mov	 dl, -19			; ffffffedH
  00671	2a d1		 sub	 dl, cl
  00673	30 54 05 d8	 xor	 BYTE PTR ___encStr$530874[ebp+eax], dl
  00677	40		 inc	 eax
  00678	83 f8 12	 cmp	 eax, 18			; 00000012H
  0067b	7c e3		 jl	 SHORT $LL1987@LoadProper
  0067d	ff b5 9c fd ff
	ff		 push	 DWORD PTR tv16409[ebp]
  00683	8d 45 d8	 lea	 eax, DWORD PTR ___encStr$530874[ebp]
  00686	50		 push	 eax
  00687	8d 85 a4 fd ff
	ff		 lea	 eax, DWORD PTR _szKey$[ebp]
  0068d	50		 push	 eax
  0068e	ff d6		 call	 esi

; 99   : 		dwFireTime = rkLoader.LoadInt( szKey, 0 );

  00690	8b 8d a0 fd ff
	ff		 mov	 ecx, DWORD PTR _rkLoader$GSCopy$[ebp]
  00696	83 c4 0c	 add	 esp, 12			; 0000000cH
  00699	53		 push	 ebx
  0069a	8d 85 a4 fd ff
	ff		 lea	 eax, DWORD PTR _szKey$[ebp]
  006a0	50		 push	 eax
  006a1	ff 15 00 00 00
	00		 call	 DWORD PTR __imp_?LoadInt@ioINILoader@@QAEHPBDH@Z
  006a7	6a 04		 push	 4
  006a9	89 85 8c fd ff
	ff		 mov	 DWORD PTR _dwFireTime$530869[ebp], eax

; 100  : 
; 101  : 		wsprintf_e( szKey, "weapon_fire_angle%d", i+1 );

  006af	c7 45 d4 9a 89
	8a 9a		 mov	 DWORD PTR ___encStr$531027[ebp], -1702196838 ; 9a8a899aH
  006b6	c7 45 d8 82 82
	b4 8c		 mov	 DWORD PTR ___encStr$531027[ebp+4], -1934327166 ; 8cb48282H
  006bd	c7 45 dc 84 9e
	8e b5		 mov	 DWORD PTR ___encStr$531027[ebp+8], -1248944508 ; b58e9e84H
  006c4	c7 45 e0 8c 82
	8c 86		 mov	 DWORD PTR ___encStr$531027[ebp+12], -2037611892 ; 868c828cH
  006cb	8d 45 d4	 lea	 eax, DWORD PTR ___encStr$531027[ebp]
  006ce	c7 45 e4 88 c9
	8f 00		 mov	 DWORD PTR ___encStr$531027[ebp+16], 9423240 ; 008fc988H
  006d5	59		 pop	 ecx
$LL1998@LoadProper:
  006d6	81 30 ed ec eb
	ea		 xor	 DWORD PTR [eax], -353637139 ; eaebecedH
  006dc	83 c0 04	 add	 eax, 4
  006df	49		 dec	 ecx
  006e0	75 f4		 jne	 SHORT $LL1998@LoadProper
  006e2	6a 10		 push	 16			; 00000010H
  006e4	58		 pop	 eax
$LL1995@LoadProper:
  006e5	8b c8		 mov	 ecx, eax
  006e7	81 e1 03 00 00
	80		 and	 ecx, -2147483645	; 80000003H
  006ed	79 05		 jns	 SHORT $LN2136@LoadProper
  006ef	49		 dec	 ecx
  006f0	83 c9 fc	 or	 ecx, -4			; fffffffcH
  006f3	41		 inc	 ecx
$LN2136@LoadProper:
  006f4	b2 ed		 mov	 dl, -19			; ffffffedH
  006f6	2a d1		 sub	 dl, cl
  006f8	30 54 05 d4	 xor	 BYTE PTR ___encStr$531027[ebp+eax], dl
  006fc	40		 inc	 eax
  006fd	83 f8 13	 cmp	 eax, 19			; 00000013H
  00700	7c e3		 jl	 SHORT $LL1995@LoadProper
  00702	ff b5 9c fd ff
	ff		 push	 DWORD PTR tv16409[ebp]
  00708	8d 45 d4	 lea	 eax, DWORD PTR ___encStr$531027[ebp]
  0070b	50		 push	 eax
  0070c	8d 85 a4 fd ff
	ff		 lea	 eax, DWORD PTR _szKey$[ebp]
  00712	50		 push	 eax
  00713	ff d6		 call	 esi

; 102  : 		fFireAngle = rkLoader.LoadFloat( szKey, 0.0f );

  00715	0f 57 c0	 xorps	 xmm0, xmm0
  00718	59		 pop	 ecx
  00719	59		 pop	 ecx
  0071a	8b 8d a0 fd ff
	ff		 mov	 ecx, DWORD PTR _rkLoader$GSCopy$[ebp]
  00720	8d 85 a4 fd ff
	ff		 lea	 eax, DWORD PTR _szKey$[ebp]
  00726	f3 0f 11 04 24	 movss	 DWORD PTR [esp], xmm0
  0072b	50		 push	 eax
  0072c	ff 15 00 00 00
	00		 call	 DWORD PTR __imp_?LoadFloat@ioINILoader@@QAEMPBDM@Z
  00732	d9 9d 90 fd ff
	ff		 fstp	 DWORD PTR _fFireAngle$530870[ebp]

; 103  : 
; 104  : 		kFireInfo.m_dwWeaponFireTime = dwFireTime;

  00738	8b 85 8c fd ff
	ff		 mov	 eax, DWORD PTR _dwFireTime$530869[ebp]

; 105  : 		kFireInfo.m_fWeaponFireAngle = fFireAngle;

  0073e	d9 85 90 fd ff
	ff		 fld	 DWORD PTR _fFireAngle$530870[ebp]
  00744	6a 06		 push	 6
  00746	d9 9d 60 fd ff
	ff		 fstp	 DWORD PTR _kFireInfo$530868[ebp+4]
  0074c	89 85 5c fd ff
	ff		 mov	 DWORD PTR _kFireInfo$530868[ebp], eax

; 106  : 
; 107  : 		wsprintf_e( szKey, "weapon_wounded_animation%d", i+1 );

  00752	c7 45 d0 9a 89
	8a 9a		 mov	 DWORD PTR ___encStr$531179[ebp], -1702196838 ; 9a8a899aH
  00759	c7 45 d4 82 82
	b4 9d		 mov	 DWORD PTR ___encStr$531179[ebp+4], -1649114494 ; 9db48282H
  00760	c7 45 d8 82 99
	85 8e		 mov	 DWORD PTR ___encStr$531179[ebp+8], -1903847038 ; 8e859982H
  00767	c7 45 dc 88 88
	b4 8b		 mov	 DWORD PTR ___encStr$531179[ebp+12], -1951102840 ; 8bb48888H
  0076e	c7 45 e0 83 85
	86 8b		 mov	 DWORD PTR ___encStr$531179[ebp+16], -1954118269 ; 8b868583H
  00775	c7 45 e4 99 85
	84 84		 mov	 DWORD PTR ___encStr$531179[ebp+20], -2071689831 ; 84848599H
  0077c	66 c7 45 e8 c8
	88		 mov	 WORD PTR ___encStr$531179[ebp+24], 35016 ; 000088c8H
  00782	8d 45 d0	 lea	 eax, DWORD PTR ___encStr$531179[ebp]
  00785	88 5d ea	 mov	 BYTE PTR ___encStr$531179[ebp+26], bl
  00788	59		 pop	 ecx
$LL2006@LoadProper:
  00789	81 30 ed ec eb
	ea		 xor	 DWORD PTR [eax], -353637139 ; eaebecedH
  0078f	83 c0 04	 add	 eax, 4
  00792	49		 dec	 ecx
  00793	75 f4		 jne	 SHORT $LL2006@LoadProper
  00795	6a 18		 push	 24			; 00000018H
  00797	58		 pop	 eax
$LL2003@LoadProper:
  00798	8b c8		 mov	 ecx, eax
  0079a	81 e1 03 00 00
	80		 and	 ecx, -2147483645	; 80000003H
  007a0	79 05		 jns	 SHORT $LN2137@LoadProper
  007a2	49		 dec	 ecx
  007a3	83 c9 fc	 or	 ecx, -4			; fffffffcH
  007a6	41		 inc	 ecx
$LN2137@LoadProper:
  007a7	b2 ed		 mov	 dl, -19			; ffffffedH
  007a9	2a d1		 sub	 dl, cl
  007ab	30 54 05 d0	 xor	 BYTE PTR ___encStr$531179[ebp+eax], dl
  007af	40		 inc	 eax
  007b0	83 f8 1a	 cmp	 eax, 26			; 0000001aH
  007b3	7c e3		 jl	 SHORT $LL2003@LoadProper
  007b5	ff b5 9c fd ff
	ff		 push	 DWORD PTR tv16409[ebp]
  007bb	8d 45 d0	 lea	 eax, DWORD PTR ___encStr$531179[ebp]
  007be	50		 push	 eax
  007bf	8d 85 a4 fd ff
	ff		 lea	 eax, DWORD PTR _szKey$[ebp]
  007c5	50		 push	 eax
  007c6	ff d6		 call	 esi

; 108  : 		rkLoader.LoadString( szKey, "", szBuf, MAX_PATH );

  007c8	8b 8d a0 fd ff
	ff		 mov	 ecx, DWORD PTR _rkLoader$GSCopy$[ebp]
  007ce	83 c4 0c	 add	 esp, 12			; 0000000cH
  007d1	68 04 01 00 00	 push	 260			; 00000104H
  007d6	8d 85 a8 fe ff
	ff		 lea	 eax, DWORD PTR _szBuf$[ebp]
  007dc	50		 push	 eax
  007dd	68 00 00 00 00	 push	 OFFSET ??_C@_00CNPNBAHC@?$AA@
  007e2	8d 85 a4 fd ff
	ff		 lea	 eax, DWORD PTR _szKey$[ebp]
  007e8	50		 push	 eax
  007e9	ff d7		 call	 edi

; 109  : 		kFireInfo.m_WeaponInfo.m_WoundedAnimation = szBuf;

  007eb	8d 85 a8 fe ff
	ff		 lea	 eax, DWORD PTR _szBuf$[ebp]
  007f1	50		 push	 eax
  007f2	8d 8d 6c fd ff
	ff		 lea	 ecx, DWORD PTR _kFireInfo$530868[ebp+16]
  007f8	ff 15 00 00 00
	00		 call	 DWORD PTR __imp_??4ioHashString@@QAEAAV0@PBD@Z
  007fe	6a 06		 push	 6

; 110  : 
; 111  : 		wsprintf_e( szKey, "weapon_wounded_duration%d", i+1 );

  00800	c7 45 d0 9a 89
	8a 9a		 mov	 DWORD PTR ___encStr$531331[ebp], -1702196838 ; 9a8a899aH
  00807	c7 45 d4 82 82
	b4 9d		 mov	 DWORD PTR ___encStr$531331[ebp+4], -1649114494 ; 9db48282H
  0080e	c7 45 d8 82 99
	85 8e		 mov	 DWORD PTR ___encStr$531331[ebp+8], -1903847038 ; 8e859982H
  00815	c7 45 dc 88 88
	b4 8e		 mov	 DWORD PTR ___encStr$531331[ebp+12], -1900771192 ; 8eb48888H
  0081c	c7 45 e0 98 9e
	8a 9e		 mov	 DWORD PTR ___encStr$531331[ebp+16], -1635082600 ; 9e8a9e98H
  00823	c7 45 e4 84 83
	85 cf		 mov	 DWORD PTR ___encStr$531331[ebp+20], -813333628 ; cf858384H
  0082a	8d 45 d0	 lea	 eax, DWORD PTR ___encStr$531331[ebp]
  0082d	66 c7 45 e8 89
	00		 mov	 WORD PTR ___encStr$531331[ebp+24], 137 ; 00000089H
  00833	59		 pop	 ecx
$LL2014@LoadProper:
  00834	81 30 ed ec eb
	ea		 xor	 DWORD PTR [eax], -353637139 ; eaebecedH
  0083a	83 c0 04	 add	 eax, 4
  0083d	49		 dec	 ecx
  0083e	75 f4		 jne	 SHORT $LL2014@LoadProper
  00840	ff b5 9c fd ff
	ff		 push	 DWORD PTR tv16409[ebp]
  00846	80 75 e8 ed	 xor	 BYTE PTR ___encStr$531331[ebp+24], -19 ; ffffffedH
  0084a	8d 45 d0	 lea	 eax, DWORD PTR ___encStr$531331[ebp]
  0084d	50		 push	 eax
  0084e	8d 85 a4 fd ff
	ff		 lea	 eax, DWORD PTR _szKey$[ebp]
  00854	50		 push	 eax
  00855	ff d6		 call	 esi

; 112  : 		kFireInfo.m_WeaponInfo.m_dwWoundedDuration = rkLoader.LoadInt( szKey, 0 );

  00857	8b 8d a0 fd ff
	ff		 mov	 ecx, DWORD PTR _rkLoader$GSCopy$[ebp]
  0085d	83 c4 0c	 add	 esp, 12			; 0000000cH
  00860	53		 push	 ebx
  00861	8d 85 a4 fd ff
	ff		 lea	 eax, DWORD PTR _szKey$[ebp]
  00867	50		 push	 eax
  00868	ff 15 00 00 00
	00		 call	 DWORD PTR __imp_?LoadInt@ioINILoader@@QAEHPBDH@Z
  0086e	6a 06		 push	 6
  00870	89 85 7c fd ff
	ff		 mov	 DWORD PTR _kFireInfo$530868[ebp+32], eax

; 113  : 		wsprintf_e( szKey, "weapon_wounded_loop_ani%d", i+1 );

  00876	c7 45 d0 9a 89
	8a 9a		 mov	 DWORD PTR ___encStr$531483[ebp], -1702196838 ; 9a8a899aH
  0087d	c7 45 d4 82 82
	b4 9d		 mov	 DWORD PTR ___encStr$531483[ebp+4], -1649114494 ; 9db48282H
  00884	c7 45 d8 82 99
	85 8e		 mov	 DWORD PTR ___encStr$531483[ebp+8], -1903847038 ; 8e859982H
  0088b	c7 45 dc 88 88
	b4 86		 mov	 DWORD PTR ___encStr$531483[ebp+12], -2034988920 ; 86b48888H
  00892	c7 45 e0 82 83
	9b b5		 mov	 DWORD PTR ___encStr$531483[ebp+16], -1248099454 ; b59b8382H
  00899	c7 45 e4 8c 82
	82 cf		 mov	 DWORD PTR ___encStr$531483[ebp+20], -813530484 ; cf82828cH
  008a0	8d 45 d0	 lea	 eax, DWORD PTR ___encStr$531483[ebp]
  008a3	66 c7 45 e8 89
	00		 mov	 WORD PTR ___encStr$531483[ebp+24], 137 ; 00000089H
  008a9	59		 pop	 ecx
$LL2022@LoadProper:
  008aa	81 30 ed ec eb
	ea		 xor	 DWORD PTR [eax], -353637139 ; eaebecedH
  008b0	83 c0 04	 add	 eax, 4
  008b3	49		 dec	 ecx
  008b4	75 f4		 jne	 SHORT $LL2022@LoadProper
  008b6	ff b5 9c fd ff
	ff		 push	 DWORD PTR tv16409[ebp]
  008bc	80 75 e8 ed	 xor	 BYTE PTR ___encStr$531483[ebp+24], -19 ; ffffffedH
  008c0	8d 45 d0	 lea	 eax, DWORD PTR ___encStr$531483[ebp]
  008c3	50		 push	 eax
  008c4	8d 85 a4 fd ff
	ff		 lea	 eax, DWORD PTR _szKey$[ebp]
  008ca	50		 push	 eax
  008cb	ff d6		 call	 esi

; 114  : 		kFireInfo.m_WeaponInfo.m_bWoundedLoopAni = rkLoader.LoadBool( szKey, false );

  008cd	8b 8d a0 fd ff
	ff		 mov	 ecx, DWORD PTR _rkLoader$GSCopy$[ebp]
  008d3	83 c4 0c	 add	 esp, 12			; 0000000cH
  008d6	53		 push	 ebx
  008d7	8d 85 a4 fd ff
	ff		 lea	 eax, DWORD PTR _szKey$[ebp]
  008dd	50		 push	 eax
  008de	ff 15 00 00 00
	00		 call	 DWORD PTR __imp_?LoadBool@ioINILoader@@QAE_NPBD_N@Z
  008e4	6a 06		 push	 6
  008e6	88 85 84 fd ff
	ff		 mov	 BYTE PTR _kFireInfo$530868[ebp+40], al

; 115  : 
; 116  : 		wsprintf_e( szKey, "weapon_attribute_index%d", i+1 );

  008ec	c7 45 d0 9a 89
	8a 9a		 mov	 DWORD PTR ___encStr$531635[ebp], -1702196838 ; 9a8a899aH
  008f3	c7 45 d4 82 82
	b4 8b		 mov	 DWORD PTR ___encStr$531635[ebp+4], -1951104382 ; 8bb48282H
  008fa	c7 45 d8 99 98
	99 83		 mov	 DWORD PTR ___encStr$531635[ebp+8], -2087085927 ; 83999899H
  00901	c7 45 dc 8f 99
	9f 8f		 mov	 DWORD PTR ___encStr$531635[ebp+12], -1885365873 ; 8f9f998fH
  00908	c7 45 e0 b2 85
	85 8e		 mov	 DWORD PTR ___encStr$531635[ebp+16], -1903852110 ; 8e8585b2H
  0090f	c7 45 e4 88 94
	ce 8e		 mov	 DWORD PTR ___encStr$531635[ebp+20], -1899064184 ; 8ece9488H
  00916	8d 45 d0	 lea	 eax, DWORD PTR ___encStr$531635[ebp]
  00919	88 5d e8	 mov	 BYTE PTR ___encStr$531635[ebp+24], bl
  0091c	59		 pop	 ecx
$LL2030@LoadProper:
  0091d	81 30 ed ec eb
	ea		 xor	 DWORD PTR [eax], -353637139 ; eaebecedH
  00923	83 c0 04	 add	 eax, 4
  00926	49		 dec	 ecx
  00927	75 f4		 jne	 SHORT $LL2030@LoadProper
  00929	ff b5 9c fd ff
	ff		 push	 DWORD PTR tv16409[ebp]
  0092f	8d 45 d0	 lea	 eax, DWORD PTR ___encStr$531635[ebp]
  00932	50		 push	 eax
  00933	8d 85 a4 fd ff
	ff		 lea	 eax, DWORD PTR _szKey$[ebp]
  00939	50		 push	 eax
  0093a	ff d6		 call	 esi

; 117  : 		kFireInfo.m_WeaponInfo.m_iWeaponIdx = rkLoader.LoadInt( szKey, 0 );

  0093c	8b 8d a0 fd ff
	ff		 mov	 ecx, DWORD PTR _rkLoader$GSCopy$[ebp]
  00942	83 c4 0c	 add	 esp, 12			; 0000000cH
  00945	53		 push	 ebx
  00946	8d 85 a4 fd ff
	ff		 lea	 eax, DWORD PTR _szKey$[ebp]
  0094c	50		 push	 eax
  0094d	ff 15 00 00 00
	00		 call	 DWORD PTR __imp_?LoadInt@ioINILoader@@QAEHPBDH@Z
  00953	6a 07		 push	 7
  00955	89 85 64 fd ff
	ff		 mov	 DWORD PTR _kFireInfo$530868[ebp+8], eax

; 118  : 		wsprintf_e( szKey, "weapon_attribute_resist_index%d", i+1 );

  0095b	c7 45 ac 9a 89
	8a 9a		 mov	 DWORD PTR ___encStr$531787[ebp], -1702196838 ; 9a8a899aH
  00962	c7 45 b0 82 82
	b4 8b		 mov	 DWORD PTR ___encStr$531787[ebp+4], -1951104382 ; 8bb48282H
  00969	c7 45 b4 99 98
	99 83		 mov	 DWORD PTR ___encStr$531787[ebp+8], -2087085927 ; 83999899H
  00970	c7 45 b8 8f 99
	9f 8f		 mov	 DWORD PTR ___encStr$531787[ebp+12], -1885365873 ; 8f9f998fH
  00977	c7 45 bc b2 9e
	8e 99		 mov	 DWORD PTR ___encStr$531787[ebp+16], -1718706510 ; 998e9eb2H
  0097e	c7 45 c0 84 9f
	9f b5		 mov	 DWORD PTR ___encStr$531787[ebp+20], -1247830140 ; b59f9f84H
  00985	c7 45 c4 84 82
	8f 8f		 mov	 DWORD PTR ___encStr$531787[ebp+24], -1886420348 ; 8f8f8284H
  0098c	8d 45 ac	 lea	 eax, DWORD PTR ___encStr$531787[ebp]
  0098f	c7 45 c8 95 c9
	8f 00		 mov	 DWORD PTR ___encStr$531787[ebp+28], 9423253 ; 008fc995H
  00996	59		 pop	 ecx
$LL2038@LoadProper:
  00997	81 30 ed ec eb
	ea		 xor	 DWORD PTR [eax], -353637139 ; eaebecedH
  0099d	83 c0 04	 add	 eax, 4
  009a0	49		 dec	 ecx
  009a1	75 f4		 jne	 SHORT $LL2038@LoadProper
  009a3	6a 1c		 push	 28			; 0000001cH
  009a5	58		 pop	 eax
$LL2035@LoadProper:
  009a6	8b c8		 mov	 ecx, eax
  009a8	81 e1 03 00 00
	80		 and	 ecx, -2147483645	; 80000003H
  009ae	79 05		 jns	 SHORT $LN2138@LoadProper
  009b0	49		 dec	 ecx
  009b1	83 c9 fc	 or	 ecx, -4			; fffffffcH
  009b4	41		 inc	 ecx
$LN2138@LoadProper:
  009b5	b2 ed		 mov	 dl, -19			; ffffffedH
  009b7	2a d1		 sub	 dl, cl
  009b9	30 54 05 ac	 xor	 BYTE PTR ___encStr$531787[ebp+eax], dl
  009bd	40		 inc	 eax
  009be	83 f8 1f	 cmp	 eax, 31			; 0000001fH
  009c1	7c e3		 jl	 SHORT $LL2035@LoadProper
  009c3	ff b5 9c fd ff
	ff		 push	 DWORD PTR tv16409[ebp]
  009c9	8d 45 ac	 lea	 eax, DWORD PTR ___encStr$531787[ebp]
  009cc	50		 push	 eax
  009cd	8d 85 a4 fd ff
	ff		 lea	 eax, DWORD PTR _szKey$[ebp]
  009d3	50		 push	 eax
  009d4	ff d6		 call	 esi

; 119  : 		kFireInfo.m_WeaponInfo.m_iResistanceIdx = rkLoader.LoadInt( szKey, 0 );

  009d6	8b 8d a0 fd ff
	ff		 mov	 ecx, DWORD PTR _rkLoader$GSCopy$[ebp]
  009dc	83 c4 0c	 add	 esp, 12			; 0000000cH
  009df	53		 push	 ebx
  009e0	8d 85 a4 fd ff
	ff		 lea	 eax, DWORD PTR _szKey$[ebp]
  009e6	50		 push	 eax
  009e7	ff 15 00 00 00
	00		 call	 DWORD PTR __imp_?LoadInt@ioINILoader@@QAEHPBDH@Z

; 120  : 
; 121  : 		m_vWeaponFireInfoList.push_back( kFireInfo );

  009ed	8b 8d 94 fd ff
	ff		 mov	 ecx, DWORD PTR tv13624[ebp]
  009f3	89 85 68 fd ff
	ff		 mov	 DWORD PTR _kFireInfo$530868[ebp+12], eax
  009f9	8d 85 5c fd ff
	ff		 lea	 eax, DWORD PTR _kFireInfo$530868[ebp]
  009ff	50		 push	 eax
  00a00	e8 00 00 00 00	 call	 ?push_back@?$vector@UWeaponFireInfo@@V?$allocator@UWeaponFireInfo@@@std@@@std@@QAEXABUWeaponFireInfo@@@Z ; std::vector<WeaponFireInfo,std::allocator<WeaponFireInfo> >::push_back

; 122  : 	}

  00a05	83 4d fc ff	 or	 DWORD PTR __$EHRec$[ebp+8], -1
  00a09	8d 8d 6c fd ff
	ff		 lea	 ecx, DWORD PTR _kFireInfo$530868[ebp+16]
  00a0f	ff 15 00 00 00
	00		 call	 DWORD PTR __imp_??1ioHashString@@QAE@XZ
  00a15	ff 85 9c fd ff
	ff		 inc	 DWORD PTR tv16409[ebp]
  00a1b	ff 8d 98 fd ff
	ff		 dec	 DWORD PTR tv11641[ebp]
  00a21	0f 85 f1 fb ff
	ff		 jne	 $LL696@LoadProper
$LN694@LoadProper:

; 123  : }

  00a27	e8 00 00 00 00	 call	 __EH_epilog3_GS
  00a2c	c2 04 00	 ret	 4
_TEXT	ENDS
;	COMDAT text$x
text$x	SEGMENT
__unwindfunclet$?LoadProperty@ioConsecution2Skill@@UAEXAAVioINILoader@@@Z$0:
  00000	8d 8d 5c fd ff
	ff		 lea	 ecx, DWORD PTR _kFireInfo$530868[ebp]
  00006	e9 00 00 00 00	 jmp	 ??1WeaponFireInfo@@QAE@XZ
__ehhandler$?LoadProperty@ioConsecution2Skill@@UAEXAAVioINILoader@@@Z:
  0000b	8b 54 24 08	 mov	 edx, DWORD PTR [esp+8]
  0000f	8d 42 0c	 lea	 eax, DWORD PTR [edx+12]
  00012	8b 8a 58 fd ff
	ff		 mov	 ecx, DWORD PTR [edx-680]
  00018	33 c8		 xor	 ecx, eax
  0001a	e8 00 00 00 00	 call	 @__security_check_cookie@4
  0001f	8b 4a fc	 mov	 ecx, DWORD PTR [edx-4]
  00022	33 c8		 xor	 ecx, eax
  00024	e8 00 00 00 00	 call	 @__security_check_cookie@4
  00029	b8 00 00 00 00	 mov	 eax, OFFSET __ehfuncinfo$?LoadProperty@ioConsecution2Skill@@UAEXAAVioINILoader@@@Z
  0002e	e9 00 00 00 00	 jmp	 ___CxxFrameHandler3
text$x	ENDS
?LoadProperty@ioConsecution2Skill@@UAEXAAVioINILoader@@@Z ENDP ; ioConsecution2Skill::LoadProperty
END
