; Listing generated by Microsoft (R) Optimizing Compiler Version 16.00.30319.01 

	TITLE	D:\Lost Saga For Developer\Youtube\Tutorial\Source\src\LSClient\ioControlReturnWeapon.cpp
	.686P
	.XMM
	include listing.inc
	.model	flat

INCLUDELIB MSVCRT
INCLUDELIB OLDNAMES

PUBLIC	?_EEM_DS@?$deque@UD3DXVECTOR3@@V?$allocator@UD3DXVECTOR3@@@std@@@std@@2HB ; std::deque<D3DXVECTOR3,std::allocator<D3DXVECTOR3> >::_EEM_DS
PUBLIC	?m_ActionStopType@ioControlReturnWeapon@@2W4ActionStopType@@A ; ioControlReturnWeapon::m_ActionStopType
PUBLIC	?m_DieActionStopType@ioControlReturnWeapon@@2W4ActionStopType@@A ; ioControlReturnWeapon::m_DieActionStopType
_BSS	SEGMENT
?m_ActionStopType@ioControlReturnWeapon@@2W4ActionStopType@@A DD 01H DUP (?) ; ioControlReturnWeapon::m_ActionStopType
?m_DieActionStopType@ioControlReturnWeapon@@2W4ActionStopType@@A DD 01H DUP (?) ; ioControlReturnWeapon::m_DieActionStopType
_BSS	ENDS
;	COMDAT ?_EEM_DS@?$deque@UD3DXVECTOR3@@V?$allocator@UD3DXVECTOR3@@@std@@@std@@2HB
CONST	SEGMENT
?_EEM_DS@?$deque@UD3DXVECTOR3@@V?$allocator@UD3DXVECTOR3@@@std@@@std@@2HB DD 01H ; std::deque<D3DXVECTOR3,std::allocator<D3DXVECTOR3> >::_EEM_DS
CONST	ENDS
PUBLIC	?return1@@YAIXZ					; return1
; Function compile flags: /Ogsp
; File d:\lost saga for developer\youtube\tutorial\source\src\lsclient\stdafx.h
;	COMDAT ?return1@@YAIXZ
_TEXT	SEGMENT
?return1@@YAIXZ PROC					; return1, COMDAT

; 17   : 	__forceinline unsigned int return1() { __asm mov eax, 1 };

  00000	b8 01 00 00 00	 mov	 eax, 1
  00005	c3		 ret	 0
?return1@@YAIXZ ENDP					; return1
_TEXT	ENDS
PUBLIC	?return5@@YAIXZ					; return5
; Function compile flags: /Ogsp
;	COMDAT ?return5@@YAIXZ
_TEXT	SEGMENT
?return5@@YAIXZ PROC					; return5, COMDAT

; 18   : 	__forceinline unsigned int return5() { __asm mov eax, 5 };

  00000	b8 05 00 00 00	 mov	 eax, 5
  00005	c3		 ret	 0
?return5@@YAIXZ ENDP					; return5
_TEXT	ENDS
PUBLIC	?return10@@YAIXZ				; return10
; Function compile flags: /Ogsp
;	COMDAT ?return10@@YAIXZ
_TEXT	SEGMENT
?return10@@YAIXZ PROC					; return10, COMDAT

; 21   : 	__forceinline unsigned int return10() { __asm mov eax, 10 };

  00000	b8 0a 00 00 00	 mov	 eax, 10			; 0000000aH
  00005	c3		 ret	 0
?return10@@YAIXZ ENDP					; return10
_TEXT	ENDS
PUBLIC	?return1000@@YAIXZ				; return1000
; Function compile flags: /Ogsp
;	COMDAT ?return1000@@YAIXZ
_TEXT	SEGMENT
?return1000@@YAIXZ PROC					; return1000, COMDAT

; 29   : 	__forceinline unsigned int return1000() { __asm mov eax, 1000 };

  00000	b8 e8 03 00 00	 mov	 eax, 1000		; 000003e8H
  00005	c3		 ret	 0
?return1000@@YAIXZ ENDP					; return1000
_TEXT	ENDS
PUBLIC	_fabsf
EXTRN	__fltused:DWORD
; Function compile flags: /Ogsp
; File c:\program files (x86)\microsoft visual studio 10.0\vc\include\math.h
;	COMDAT _fabsf
_TEXT	SEGMENT
tv129 = 8						; size = 4
__X$ = 8						; size = 4
_fabsf	PROC						; COMDAT

; 395  :         {return ((float)fabs((double)_X)); }

  00000	55		 push	 ebp
  00001	8b ec		 mov	 ebp, esp
  00003	d9 45 08	 fld	 DWORD PTR __X$[ebp]
  00006	d9 e1		 fabs
  00008	d9 5d 08	 fstp	 DWORD PTR tv129[ebp]
  0000b	d9 45 08	 fld	 DWORD PTR tv129[ebp]
  0000e	5d		 pop	 ebp
  0000f	c3		 ret	 0
_fabsf	ENDP
_TEXT	ENDS
PUBLIC	_sqrtf
EXTRN	__CIsqrt:PROC
; Function compile flags: /Ogsp
;	COMDAT _sqrtf
_TEXT	SEGMENT
tv69 = 8						; size = 4
__X$ = 8						; size = 4
_sqrtf	PROC						; COMDAT

; 434  :         {return ((float)sqrt((double)_X)); }

  00000	55		 push	 ebp
  00001	8b ec		 mov	 ebp, esp
  00003	d9 45 08	 fld	 DWORD PTR __X$[ebp]
  00006	e8 00 00 00 00	 call	 __CIsqrt
  0000b	d9 5d 08	 fstp	 DWORD PTR tv69[ebp]
  0000e	d9 45 08	 fld	 DWORD PTR tv69[ebp]
  00011	5d		 pop	 ebp
  00012	c3		 ret	 0
_sqrtf	ENDP
_TEXT	ENDS
PUBLIC	?GetPrePosition@ioBaseChar@@QBEABUD3DXVECTOR3@@XZ ; ioBaseChar::GetPrePosition
; Function compile flags: /Ogsp
; File d:\lost saga for developer\youtube\tutorial\source\src\lsclient\iobasechar.h
;	COMDAT ?GetPrePosition@ioBaseChar@@QBEABUD3DXVECTOR3@@XZ
_TEXT	SEGMENT
?GetPrePosition@ioBaseChar@@QBEABUD3DXVECTOR3@@XZ PROC	; ioBaseChar::GetPrePosition, COMDAT
; _this$ = ecx

; 2600 : 	inline const D3DXVECTOR3& GetPrePosition() const { return m_vPrePosition; }

  00000	8d 81 f0 06 00
	00		 lea	 eax, DWORD PTR [ecx+1776]
  00006	c3		 ret	 0
?GetPrePosition@ioBaseChar@@QBEABUD3DXVECTOR3@@XZ ENDP	; ioBaseChar::GetPrePosition
_TEXT	ENDS
PUBLIC	?fabs@@YAMM@Z					; fabs
; Function compile flags: /Ogsp
; File c:\program files (x86)\microsoft visual studio 10.0\vc\include\math.h
;	COMDAT ?fabs@@YAMM@Z
_TEXT	SEGMENT
tv131 = 8						; size = 4
__X$ = 8						; size = 4
?fabs@@YAMM@Z PROC					; fabs, COMDAT

; 518  :         {return (fabsf(_X)); }

  00000	55		 push	 ebp
  00001	8b ec		 mov	 ebp, esp
  00003	d9 45 08	 fld	 DWORD PTR __X$[ebp]
  00006	d9 e1		 fabs
  00008	d9 5d 08	 fstp	 DWORD PTR tv131[ebp]
  0000b	d9 45 08	 fld	 DWORD PTR tv131[ebp]
  0000e	5d		 pop	 ebp
  0000f	c3		 ret	 0
?fabs@@YAMM@Z ENDP					; fabs
_TEXT	ENDS
PUBLIC	?copy@?$char_traits@D@std@@SAPADPADPBDI@Z	; std::char_traits<char>::copy
EXTRN	_memcpy:PROC
; Function compile flags: /Ogsp
; File c:\program files (x86)\microsoft visual studio 10.0\vc\include\iosfwd
;	COMDAT ?copy@?$char_traits@D@std@@SAPADPADPBDI@Z
_TEXT	SEGMENT
__First1$ = 8						; size = 4
__First2$ = 12						; size = 4
__Count$ = 16						; size = 4
?copy@?$char_traits@D@std@@SAPADPADPBDI@Z PROC		; std::char_traits<char>::copy, COMDAT

; 496  : 		{	// copy [_First1, _First1 + _Count) to [_First2, ...)

  00000	55		 push	 ebp
  00001	8b ec		 mov	 ebp, esp

; 498  : 		}

  00003	5d		 pop	 ebp

; 497  : 		return ((_Elem *)_CSTD memcpy(_First1, _First2, _Count));

  00004	e9 00 00 00 00	 jmp	 _memcpy
?copy@?$char_traits@D@std@@SAPADPADPBDI@Z ENDP		; std::char_traits<char>::copy
_TEXT	ENDS
PUBLIC	?assign@?$char_traits@D@std@@SAXAADABD@Z	; std::char_traits<char>::assign
; Function compile flags: /Ogsp
;	COMDAT ?assign@?$char_traits@D@std@@SAXAADABD@Z
_TEXT	SEGMENT
__Left$ = 8						; size = 4
__Right$ = 12						; size = 4
?assign@?$char_traits@D@std@@SAXAADABD@Z PROC		; std::char_traits<char>::assign, COMDAT

; 526  : 		{	// assign an element

  00000	55		 push	 ebp
  00001	8b ec		 mov	 ebp, esp

; 527  : 		_Left = _Right;

  00003	8b 45 0c	 mov	 eax, DWORD PTR __Right$[ebp]
  00006	8a 00		 mov	 al, BYTE PTR [eax]
  00008	8b 4d 08	 mov	 ecx, DWORD PTR __Left$[ebp]
  0000b	88 01		 mov	 BYTE PTR [ecx], al

; 528  : 		}

  0000d	5d		 pop	 ebp
  0000e	c3		 ret	 0
?assign@?$char_traits@D@std@@SAXAADABD@Z ENDP		; std::char_traits<char>::assign
_TEXT	ENDS
PUBLIC	??_C@_0ED@GKFPJFDE@ioControlReturnWeapon?3?3?$HOioContro@ ; `string'
PUBLIC	??_7ioControlReturnWeapon@@6B@			; ioControlReturnWeapon::`vftable'
PUBLIC	??1ioControlReturnWeapon@@UAE@XZ		; ioControlReturnWeapon::~ioControlReturnWeapon
PUBLIC	??_R4ioControlReturnWeapon@@6B@			; ioControlReturnWeapon::`RTTI Complete Object Locator'
PUBLIC	??_R0?AVioControlReturnWeapon@@@8		; ioControlReturnWeapon `RTTI Type Descriptor'
PUBLIC	??_R3ioControlReturnWeapon@@8			; ioControlReturnWeapon::`RTTI Class Hierarchy Descriptor'
PUBLIC	??_R2ioControlReturnWeapon@@8			; ioControlReturnWeapon::`RTTI Base Class Array'
PUBLIC	??_R1A@?0A@EA@ioControlReturnWeapon@@8		; ioControlReturnWeapon::`RTTI Base Class Descriptor at (0,-1,0,64)'
PUBLIC	??_R1A@?0A@EA@ioWeapon@@8			; ioWeapon::`RTTI Base Class Descriptor at (0,-1,0,64)'
PUBLIC	??_R0?AVioWeapon@@@8				; ioWeapon `RTTI Type Descriptor'
PUBLIC	??_R3ioWeapon@@8				; ioWeapon::`RTTI Class Hierarchy Descriptor'
PUBLIC	??_R2ioWeapon@@8				; ioWeapon::`RTTI Base Class Array'
PUBLIC	?PlayExplosionSound@ioControlReturnWeapon@@UAEXXZ ; ioControlReturnWeapon::PlayExplosionSound
PUBLIC	?PlayWoundedSound@ioControlReturnWeapon@@UAEXPAVioPlayEntity@@@Z ; ioControlReturnWeapon::PlayWoundedSound
PUBLIC	?PlayDefensedSound@ioControlReturnWeapon@@UAEXPAVioPlayEntity@@@Z ; ioControlReturnWeapon::PlayDefensedSound
PUBLIC	?InitResource@ioControlReturnWeapon@@UAE_NXZ	; ioControlReturnWeapon::InitResource
PUBLIC	?DestroyResource@ioControlReturnWeapon@@UAEXPAVioPlayStage@@@Z ; ioControlReturnWeapon::DestroyResource
PUBLIC	?LoadProperty@ioControlReturnWeapon@@UAEXAAVioINILoader@@@Z ; ioControlReturnWeapon::LoadProperty
PUBLIC	?SetMoveDir@ioControlReturnWeapon@@UAEXABUD3DXVECTOR3@@@Z ; ioControlReturnWeapon::SetMoveDir
PUBLIC	?SetStartPosition@ioControlReturnWeapon@@UAEXABUD3DXVECTOR3@@PAVioPlayStage@@@Z ; ioControlReturnWeapon::SetStartPosition
PUBLIC	?Process@ioControlReturnWeapon@@UAEXMPAVioPlayStage@@@Z ; ioControlReturnWeapon::Process
PUBLIC	?TestMapCollision@ioControlReturnWeapon@@UAE_NPAVioOpcodeShape@@PAVioPlayStage@@PBUD3DXMATRIX@@@Z ; ioControlReturnWeapon::TestMapCollision
PUBLIC	?CheckPreCollision@ioControlReturnWeapon@@UAEXPAVioPlayEntity@@PAVioPlayStage@@@Z ; ioControlReturnWeapon::CheckPreCollision
PUBLIC	?GetLocalAttackBox@ioControlReturnWeapon@@UBEABVioOrientBox@@XZ ; ioControlReturnWeapon::GetLocalAttackBox
PUBLIC	?GetType@ioControlReturnWeapon@@UBE?AW4WeaponType@ioWeapon@@XZ ; ioControlReturnWeapon::GetType
PUBLIC	?GetActionStopType@ioControlReturnWeapon@@UBE?AW4ActionStopType@@XZ ; ioControlReturnWeapon::GetActionStopType
PUBLIC	?GetDieActionStopType@ioControlReturnWeapon@@UBE?AW4ActionStopType@@XZ ; ioControlReturnWeapon::GetDieActionStopType
PUBLIC	?ApplyWeaponSync@ioControlReturnWeapon@@UAEXAAVSP2Packet@@PAVioPlayStage@@@Z ; ioControlReturnWeapon::ApplyWeaponSync
EXTRN	??1ioWeapon@@UAE@XZ:PROC			; ioWeapon::~ioWeapon
EXTRN	__imp_??1ioOrientBox@@QAE@XZ:PROC
EXTRN	__imp_?PrintTimeAndLog@CLog@@QAAXHPADZZ:PROC
EXTRN	__imp_?LOG@@3VCLog@@A:BYTE
EXTRN	___CxxFrameHandler3:PROC
EXTRN	@__security_check_cookie@4:PROC
EXTRN	__EH_epilog3:PROC
EXTRN	__EH_prolog3:PROC
EXTRN	??_7type_info@@6B@:QWORD			; type_info::`vftable'
EXTRN	?IsAlreadyCollisioned@ioWeapon@@UAE_NPAVioPlayEntity@@@Z:PROC ; ioWeapon::IsAlreadyCollisioned
EXTRN	?AddCollisionEntity@ioWeapon@@UAEXPAVioPlayEntity@@@Z:PROC ; ioWeapon::AddCollisionEntity
EXTRN	?SetOwnerDamageRate@ioWeapon@@UAEXM@Z:PROC	; ioWeapon::SetOwnerDamageRate
EXTRN	?SetOwnerChargeDamageRate@ioWeapon@@UAEXM@Z:PROC ; ioWeapon::SetOwnerChargeDamageRate
EXTRN	?SetOwnerChargeForceRate@ioWeapon@@UAEXM@Z:PROC	; ioWeapon::SetOwnerChargeForceRate
EXTRN	?SetOwnerChargeRangeRate@ioWeapon@@UAEXM@Z:PROC	; ioWeapon::SetOwnerChargeRangeRate
EXTRN	?SetOwnerChargeSpeedRate@ioWeapon@@UAEXM@Z:PROC	; ioWeapon::SetOwnerChargeSpeedRate
EXTRN	?SetOwnerChargeBlowRate@ioWeapon@@UAEXM@Z:PROC	; ioWeapon::SetOwnerChargeBlowRate
EXTRN	?SetOwnerChargeFloatRate@ioWeapon@@UAEXM@Z:PROC	; ioWeapon::SetOwnerChargeFloatRate
EXTRN	?SetOwnerChargeScaleRate@ioWeapon@@UAEXM@Z:PROC	; ioWeapon::SetOwnerChargeScaleRate
EXTRN	?SetOwnerChargeExplosionRate@ioWeapon@@UAEXM@Z:PROC ; ioWeapon::SetOwnerChargeExplosionRate
EXTRN	?SetOwnerChargeWoundedTimeRate@ioWeapon@@UAEXM@Z:PROC ; ioWeapon::SetOwnerChargeWoundedTimeRate
EXTRN	?SetOwnerChargeLiveTimeRate@ioWeapon@@UAEXM@Z:PROC ; ioWeapon::SetOwnerChargeLiveTimeRate
EXTRN	?SetOwnerChargeBuffLiveTimeRate@ioWeapon@@UAEXM@Z:PROC ; ioWeapon::SetOwnerChargeBuffLiveTimeRate
EXTRN	?SetWeaponIndex@ioWeapon@@UAEXK@Z:PROC		; ioWeapon::SetWeaponIndex
EXTRN	?SetGrapplingTargetName@ioWeapon@@UAEXABVioHashString@@@Z:PROC ; ioWeapon::SetGrapplingTargetName
EXTRN	?SetCreateItem@ioWeapon@@UAEXABVioHashString@@@Z:PROC ; ioWeapon::SetCreateItem
EXTRN	?SetTeam@ioWeapon@@UAEXPAVioPlayStage@@W4TeamType@@@Z:PROC ; ioWeapon::SetTeam
EXTRN	?CallReserveAreaWeapon@ioWeapon@@UAEXXZ:PROC	; ioWeapon::CallReserveAreaWeapon
EXTRN	?SetWeaponDead@ioWeapon@@UAEXXZ:PROC		; ioWeapon::SetWeaponDead
EXTRN	?PlayLoopSound@ioWeapon@@UAEXXZ:PROC		; ioWeapon::PlayLoopSound
EXTRN	?StopLoopSound@ioWeapon@@UAEXXZ:PROC		; ioWeapon::StopLoopSound
EXTRN	?GetTargetAirBuffList@ioWeapon@@UBEABV?$vector@UBuffInfoStruct@@V?$allocator@UBuffInfoStruct@@@std@@@std@@XZ:PROC ; ioWeapon::GetTargetAirBuffList
EXTRN	?GetTargetBuffList@ioWeapon@@UBEABV?$vector@UBuffInfoStruct@@V?$allocator@UBuffInfoStruct@@@std@@@std@@XZ:PROC ; ioWeapon::GetTargetBuffList
EXTRN	?GetTargetDownBuffList@ioWeapon@@UBEABV?$vector@UBuffInfoStruct@@V?$allocator@UBuffInfoStruct@@@std@@@std@@XZ:PROC ; ioWeapon::GetTargetDownBuffList
EXTRN	?GetPosition@ioWeapon@@UBEABUD3DXVECTOR3@@XZ:PROC ; ioWeapon::GetPosition
EXTRN	?GetBlowType@ioWeapon@@UBE?AW4BlowTargetType@@XZ:PROC ; ioWeapon::GetBlowType
EXTRN	?GetPushPower@ioWeapon@@UBEMM@Z:PROC		; ioWeapon::GetPushPower
EXTRN	?GetBlowPower@ioWeapon@@UBEMM@Z:PROC		; ioWeapon::GetBlowPower
EXTRN	?GetAirPushPower@ioWeapon@@UBEMM@Z:PROC		; ioWeapon::GetAirPushPower
EXTRN	?GetAirBlowPower@ioWeapon@@UBEMM@Z:PROC		; ioWeapon::GetAirBlowPower
EXTRN	?GetDefensePushPower@ioWeapon@@UBEMM@Z:PROC	; ioWeapon::GetDefensePushPower
EXTRN	?GetCollisionEnableTime@ioWeapon@@UBEKXZ:PROC	; ioWeapon::GetCollisionEnableTime
EXTRN	?SetSylphid@ioWeapon@@UAEHXZ:PROC		; ioWeapon::SetSylphid
EXTRN	?ApplyExtraReserveWeaponByWeaponInfo@ioWeapon@@UAEXPAV1@@Z:PROC ; ioWeapon::ApplyExtraReserveWeaponByWeaponInfo
EXTRN	?SetResistanceAttr@ioWeapon@@UAEXH@Z:PROC	; ioWeapon::SetResistanceAttr
EXTRN	?SetStartCollisionBox@ioWeapon@@UAEXXZ:PROC	; ioWeapon::SetStartCollisionBox
EXTRN	?SetLiveTime@ioWeapon@@UAEXK@Z:PROC		; ioWeapon::SetLiveTime
EXTRN	?SetMoveSpeed@ioWeapon@@UAEXM@Z:PROC		; ioWeapon::SetMoveSpeed
EXTRN	?SetFloatPower@ioWeapon@@UAEXM@Z:PROC		; ioWeapon::SetFloatPower
EXTRN	?IsCollision@ioWeapon@@UAE_NPAVioPlayEntity@@_N@Z:PROC ; ioWeapon::IsCollision
EXTRN	?CheckStructAndDummy@ioWeapon@@UAEXPAVioPlayEntity@@PAVioPlayStage@@@Z:PROC ; ioWeapon::CheckStructAndDummy
EXTRN	?GetDamage@ioWeapon@@UAEMPAVioPlayEntity@@@Z:PROC ; ioWeapon::GetDamage
EXTRN	?GetBaseDamage@ioWeapon@@UAEMPAVioPlayEntity@@@Z:PROC ; ioWeapon::GetBaseDamage
EXTRN	?GetPushAngle@ioWeapon@@UBEMXZ:PROC		; ioWeapon::GetPushAngle
EXTRN	?IsResistanceMagic@ioWeapon@@UAEHPAVioBaseChar@@@Z:PROC ; ioWeapon::IsResistanceMagic
EXTRN	?IsResistanceBomb@ioWeapon@@UAEHPAVioBaseChar@@@Z:PROC ; ioWeapon::IsResistanceBomb
EXTRN	?IsCanMineExplosion@ioWeapon@@UAE_NXZ:PROC	; ioWeapon::IsCanMineExplosion
EXTRN	?CheckGrapplingState@ioWeapon@@UAE?AW4GrapplingType@@XZ:PROC ; ioWeapon::CheckGrapplingState
EXTRN	?CheckCurAttribute@ioWeapon@@UAEXPBVioPlayEntity@@@Z:PROC ; ioWeapon::CheckCurAttribute
EXTRN	?CheckItemNotDrop@ioWeapon@@UAE_NPAVioBaseChar@@@Z:PROC ; ioWeapon::CheckItemNotDrop
EXTRN	?GetWorldAttackBoxList@ioWeapon@@UAEXAAV?$vector@VioOrientBox@@V?$allocator@VioOrientBox@@@std@@@std@@@Z:PROC ; ioWeapon::GetWorldAttackBoxList
EXTRN	?GetAttackDir@ioWeapon@@UBE?AUD3DXVECTOR3@@PBVioPlayEntity@@@Z:PROC ; ioWeapon::GetAttackDir
EXTRN	?GetLiveTime@ioWeapon@@UAEKXZ:PROC		; ioWeapon::GetLiveTime
EXTRN	?GetMoveDir@ioWeapon@@UAE?AUD3DXVECTOR3@@XZ:PROC ; ioWeapon::GetMoveDir
EXTRN	?CheckWeaponCollision@ioWeapon@@UAEXXZ:PROC	; ioWeapon::CheckWeaponCollision
EXTRN	?GetRefreshDuration@ioWeapon@@UAEKXZ:PROC	; ioWeapon::GetRefreshDuration
EXTRN	?GetIgnoreDuration@ioWeapon@@UAEKXZ:PROC	; ioWeapon::GetIgnoreDuration
EXTRN	?GetIgnoreTimeTypeDuration@ioWeapon@@UAEKXZ:PROC ; ioWeapon::GetIgnoreTimeTypeDuration
EXTRN	?GetIgnoreTimeType@ioWeapon@@UAEKXZ:PROC	; ioWeapon::GetIgnoreTimeType
EXTRN	?IsSkillDependency@ioWeapon@@UAE_NABVioHashString@@@Z:PROC ; ioWeapon::IsSkillDependency
EXTRN	?SetSkillDependencyAction@ioWeapon@@UAEXXZ:PROC	; ioWeapon::SetSkillDependencyAction
EXTRN	?UpdateWorldAttackBox@ioWeapon@@MAEXM_N@Z:PROC	; ioWeapon::UpdateWorldAttackBox
EXTRN	?GetAttribute@ioWeapon@@MBEPBUWeaponAttribute@@XZ:PROC ; ioWeapon::GetAttribute
EXTRN	?CalcFinalDamage@ioWeapon@@MAEMXZ:PROC		; ioWeapon::CalcFinalDamage
EXTRN	?CalcFinalBoundDamage@ioWeapon@@MAEMXZ:PROC	; ioWeapon::CalcFinalBoundDamage
EXTRN	?CheckPiercing@ioWeapon@@MAE_N_N@Z:PROC		; ioWeapon::CheckPiercing
EXTRN	?ClearCollisionList@ioWeapon@@MAEXXZ:PROC	; ioWeapon::ClearCollisionList
EXTRN	?CheckCreateWeaponList@ioWeapon@@MAEXXZ:PROC	; ioWeapon::CheckCreateWeaponList
EXTRN	?CreateCollisionAreaWeapon@ioWeapon@@MAEXXZ:PROC ; ioWeapon::CreateCollisionAreaWeapon
EXTRN	?SetMapCollision@ioWeapon@@UAEXXZ:PROC		; ioWeapon::SetMapCollision
EXTRN	?IsIgnoreMapCollision@ioWeapon@@UBE_NXZ:PROC	; ioWeapon::IsIgnoreMapCollision
EXTRN	?IsIgnoreTestMapCollision@ioWeapon@@UBE_NXZ:PROC ; ioWeapon::IsIgnoreTestMapCollision
EXTRN	?IsIgnoreMapCollisionEffect@ioWeapon@@UBE_NXZ:PROC ; ioWeapon::IsIgnoreMapCollisionEffect
EXTRN	?AddEffectEvent@ioWeapon@@MAEXPAVioEffect@@@Z:PROC ; ioWeapon::AddEffectEvent
EXTRN	??_EioControlReturnWeapon@@UAEPAXI@Z:PROC	; ioControlReturnWeapon::`vector deleting destructor'
;	COMDAT ??_R2ioWeapon@@8
; File d:\lost saga for developer\youtube\tutorial\source\src\lsclient\iocontrolreturnweapon.cpp
rdata$r	SEGMENT
??_R2ioWeapon@@8 DD FLAT:??_R1A@?0A@EA@ioWeapon@@8	; ioWeapon::`RTTI Base Class Array'
rdata$r	ENDS
;	COMDAT ??_R3ioWeapon@@8
rdata$r	SEGMENT
??_R3ioWeapon@@8 DD 00H					; ioWeapon::`RTTI Class Hierarchy Descriptor'
	DD	00H
	DD	01H
	DD	FLAT:??_R2ioWeapon@@8
rdata$r	ENDS
;	COMDAT ??_R0?AVioWeapon@@@8
_DATA	SEGMENT
??_R0?AVioWeapon@@@8 DD FLAT:??_7type_info@@6B@		; ioWeapon `RTTI Type Descriptor'
	DD	00H
	DB	'.?AVioWeapon@@', 00H
_DATA	ENDS
;	COMDAT ??_R1A@?0A@EA@ioWeapon@@8
rdata$r	SEGMENT
??_R1A@?0A@EA@ioWeapon@@8 DD FLAT:??_R0?AVioWeapon@@@8	; ioWeapon::`RTTI Base Class Descriptor at (0,-1,0,64)'
	DD	00H
	DD	00H
	DD	0ffffffffH
	DD	00H
	DD	040H
	DD	FLAT:??_R3ioWeapon@@8
rdata$r	ENDS
;	COMDAT ??_R1A@?0A@EA@ioControlReturnWeapon@@8
rdata$r	SEGMENT
??_R1A@?0A@EA@ioControlReturnWeapon@@8 DD FLAT:??_R0?AVioControlReturnWeapon@@@8 ; ioControlReturnWeapon::`RTTI Base Class Descriptor at (0,-1,0,64)'
	DD	01H
	DD	00H
	DD	0ffffffffH
	DD	00H
	DD	040H
	DD	FLAT:??_R3ioControlReturnWeapon@@8
rdata$r	ENDS
;	COMDAT ??_R2ioControlReturnWeapon@@8
rdata$r	SEGMENT
??_R2ioControlReturnWeapon@@8 DD FLAT:??_R1A@?0A@EA@ioControlReturnWeapon@@8 ; ioControlReturnWeapon::`RTTI Base Class Array'
	DD	FLAT:??_R1A@?0A@EA@ioWeapon@@8
rdata$r	ENDS
;	COMDAT ??_R3ioControlReturnWeapon@@8
rdata$r	SEGMENT
??_R3ioControlReturnWeapon@@8 DD 00H			; ioControlReturnWeapon::`RTTI Class Hierarchy Descriptor'
	DD	00H
	DD	02H
	DD	FLAT:??_R2ioControlReturnWeapon@@8
rdata$r	ENDS
;	COMDAT ??_R0?AVioControlReturnWeapon@@@8
_DATA	SEGMENT
??_R0?AVioControlReturnWeapon@@@8 DD FLAT:??_7type_info@@6B@ ; ioControlReturnWeapon `RTTI Type Descriptor'
	DD	00H
	DB	'.?AVioControlReturnWeapon@@', 00H
_DATA	ENDS
;	COMDAT ??_R4ioControlReturnWeapon@@6B@
rdata$r	SEGMENT
??_R4ioControlReturnWeapon@@6B@ DD 00H			; ioControlReturnWeapon::`RTTI Complete Object Locator'
	DD	00H
	DD	00H
	DD	FLAT:??_R0?AVioControlReturnWeapon@@@8
	DD	FLAT:??_R3ioControlReturnWeapon@@8
rdata$r	ENDS
;	COMDAT ??_C@_0ED@GKFPJFDE@ioControlReturnWeapon?3?3?$HOioContro@
CONST	SEGMENT
??_C@_0ED@GKFPJFDE@ioControlReturnWeapon?3?3?$HOioContro@ DB 'ioControlRe'
	DB	'turnWeapon::~ioControlReturnWeapon - UnReleased Resouce', 00H ; `string'
CONST	ENDS
;	COMDAT ??_7ioControlReturnWeapon@@6B@
CONST	SEGMENT
??_7ioControlReturnWeapon@@6B@ DD FLAT:??_R4ioControlReturnWeapon@@6B@ ; ioControlReturnWeapon::`vftable'
	DD	FLAT:?IsAlreadyCollisioned@ioWeapon@@UAE_NPAVioPlayEntity@@@Z
	DD	FLAT:?AddCollisionEntity@ioWeapon@@UAEXPAVioPlayEntity@@@Z
	DD	FLAT:?SetOwnerDamageRate@ioWeapon@@UAEXM@Z
	DD	FLAT:?SetOwnerChargeDamageRate@ioWeapon@@UAEXM@Z
	DD	FLAT:?SetOwnerChargeForceRate@ioWeapon@@UAEXM@Z
	DD	FLAT:?SetOwnerChargeRangeRate@ioWeapon@@UAEXM@Z
	DD	FLAT:?SetOwnerChargeSpeedRate@ioWeapon@@UAEXM@Z
	DD	FLAT:?SetOwnerChargeBlowRate@ioWeapon@@UAEXM@Z
	DD	FLAT:?SetOwnerChargeFloatRate@ioWeapon@@UAEXM@Z
	DD	FLAT:?SetOwnerChargeScaleRate@ioWeapon@@UAEXM@Z
	DD	FLAT:?SetOwnerChargeExplosionRate@ioWeapon@@UAEXM@Z
	DD	FLAT:?SetOwnerChargeWoundedTimeRate@ioWeapon@@UAEXM@Z
	DD	FLAT:?SetOwnerChargeLiveTimeRate@ioWeapon@@UAEXM@Z
	DD	FLAT:?SetOwnerChargeBuffLiveTimeRate@ioWeapon@@UAEXM@Z
	DD	FLAT:?SetWeaponIndex@ioWeapon@@UAEXK@Z
	DD	FLAT:?SetGrapplingTargetName@ioWeapon@@UAEXABVioHashString@@@Z
	DD	FLAT:?SetCreateItem@ioWeapon@@UAEXABVioHashString@@@Z
	DD	FLAT:?SetTeam@ioWeapon@@UAEXPAVioPlayStage@@W4TeamType@@@Z
	DD	FLAT:?CallReserveAreaWeapon@ioWeapon@@UAEXXZ
	DD	FLAT:?SetWeaponDead@ioWeapon@@UAEXXZ
	DD	FLAT:?PlayExplosionSound@ioControlReturnWeapon@@UAEXXZ
	DD	FLAT:?PlayWoundedSound@ioControlReturnWeapon@@UAEXPAVioPlayEntity@@@Z
	DD	FLAT:?PlayDefensedSound@ioControlReturnWeapon@@UAEXPAVioPlayEntity@@@Z
	DD	FLAT:?PlayLoopSound@ioWeapon@@UAEXXZ
	DD	FLAT:?StopLoopSound@ioWeapon@@UAEXXZ
	DD	FLAT:?GetTargetAirBuffList@ioWeapon@@UBEABV?$vector@UBuffInfoStruct@@V?$allocator@UBuffInfoStruct@@@std@@@std@@XZ
	DD	FLAT:?GetTargetBuffList@ioWeapon@@UBEABV?$vector@UBuffInfoStruct@@V?$allocator@UBuffInfoStruct@@@std@@@std@@XZ
	DD	FLAT:?GetTargetDownBuffList@ioWeapon@@UBEABV?$vector@UBuffInfoStruct@@V?$allocator@UBuffInfoStruct@@@std@@@std@@XZ
	DD	FLAT:?GetPosition@ioWeapon@@UBEABUD3DXVECTOR3@@XZ
	DD	FLAT:?GetBlowType@ioWeapon@@UBE?AW4BlowTargetType@@XZ
	DD	FLAT:?GetPushPower@ioWeapon@@UBEMM@Z
	DD	FLAT:?GetBlowPower@ioWeapon@@UBEMM@Z
	DD	FLAT:?GetAirPushPower@ioWeapon@@UBEMM@Z
	DD	FLAT:?GetAirBlowPower@ioWeapon@@UBEMM@Z
	DD	FLAT:?GetDefensePushPower@ioWeapon@@UBEMM@Z
	DD	FLAT:?GetCollisionEnableTime@ioWeapon@@UBEKXZ
	DD	FLAT:?SetSylphid@ioWeapon@@UAEHXZ
	DD	FLAT:?ApplyExtraReserveWeaponByWeaponInfo@ioWeapon@@UAEXPAV1@@Z
	DD	FLAT:?InitResource@ioControlReturnWeapon@@UAE_NXZ
	DD	FLAT:?DestroyResource@ioControlReturnWeapon@@UAEXPAVioPlayStage@@@Z
	DD	FLAT:?LoadProperty@ioControlReturnWeapon@@UAEXAAVioINILoader@@@Z
	DD	FLAT:?SetResistanceAttr@ioWeapon@@UAEXH@Z
	DD	FLAT:?SetStartCollisionBox@ioWeapon@@UAEXXZ
	DD	FLAT:?SetLiveTime@ioWeapon@@UAEXK@Z
	DD	FLAT:?SetMoveDir@ioControlReturnWeapon@@UAEXABUD3DXVECTOR3@@@Z
	DD	FLAT:?SetMoveSpeed@ioWeapon@@UAEXM@Z
	DD	FLAT:?SetFloatPower@ioWeapon@@UAEXM@Z
	DD	FLAT:?SetStartPosition@ioControlReturnWeapon@@UAEXABUD3DXVECTOR3@@PAVioPlayStage@@@Z
	DD	FLAT:?Process@ioControlReturnWeapon@@UAEXMPAVioPlayStage@@@Z
	DD	FLAT:?IsCollision@ioWeapon@@UAE_NPAVioPlayEntity@@_N@Z
	DD	FLAT:?TestMapCollision@ioControlReturnWeapon@@UAE_NPAVioOpcodeShape@@PAVioPlayStage@@PBUD3DXMATRIX@@@Z
	DD	FLAT:?CheckPreCollision@ioControlReturnWeapon@@UAEXPAVioPlayEntity@@PAVioPlayStage@@@Z
	DD	FLAT:?CheckStructAndDummy@ioWeapon@@UAEXPAVioPlayEntity@@PAVioPlayStage@@@Z
	DD	FLAT:?GetDamage@ioWeapon@@UAEMPAVioPlayEntity@@@Z
	DD	FLAT:?GetBaseDamage@ioWeapon@@UAEMPAVioPlayEntity@@@Z
	DD	FLAT:?GetPushAngle@ioWeapon@@UBEMXZ
	DD	FLAT:?IsResistanceMagic@ioWeapon@@UAEHPAVioBaseChar@@@Z
	DD	FLAT:?IsResistanceBomb@ioWeapon@@UAEHPAVioBaseChar@@@Z
	DD	FLAT:?IsCanMineExplosion@ioWeapon@@UAE_NXZ
	DD	FLAT:?CheckGrapplingState@ioWeapon@@UAE?AW4GrapplingType@@XZ
	DD	FLAT:?CheckCurAttribute@ioWeapon@@UAEXPBVioPlayEntity@@@Z
	DD	FLAT:?CheckItemNotDrop@ioWeapon@@UAE_NPAVioBaseChar@@@Z
	DD	FLAT:?GetWorldAttackBoxList@ioWeapon@@UAEXAAV?$vector@VioOrientBox@@V?$allocator@VioOrientBox@@@std@@@std@@@Z
	DD	FLAT:?GetAttackDir@ioWeapon@@UBE?AUD3DXVECTOR3@@PBVioPlayEntity@@@Z
	DD	FLAT:?GetLocalAttackBox@ioControlReturnWeapon@@UBEABVioOrientBox@@XZ
	DD	FLAT:?GetLiveTime@ioWeapon@@UAEKXZ
	DD	FLAT:?GetMoveDir@ioWeapon@@UAE?AUD3DXVECTOR3@@XZ
	DD	FLAT:?CheckWeaponCollision@ioWeapon@@UAEXXZ
	DD	FLAT:?GetType@ioControlReturnWeapon@@UBE?AW4WeaponType@ioWeapon@@XZ
	DD	FLAT:?GetActionStopType@ioControlReturnWeapon@@UBE?AW4ActionStopType@@XZ
	DD	FLAT:?GetDieActionStopType@ioControlReturnWeapon@@UBE?AW4ActionStopType@@XZ
	DD	FLAT:?GetRefreshDuration@ioWeapon@@UAEKXZ
	DD	FLAT:?GetIgnoreDuration@ioWeapon@@UAEKXZ
	DD	FLAT:?GetIgnoreTimeTypeDuration@ioWeapon@@UAEKXZ
	DD	FLAT:?GetIgnoreTimeType@ioWeapon@@UAEKXZ
	DD	FLAT:?ApplyWeaponSync@ioControlReturnWeapon@@UAEXAAVSP2Packet@@PAVioPlayStage@@@Z
	DD	FLAT:?IsSkillDependency@ioWeapon@@UAE_NABVioHashString@@@Z
	DD	FLAT:?SetSkillDependencyAction@ioWeapon@@UAEXXZ
	DD	FLAT:?UpdateWorldAttackBox@ioWeapon@@MAEXM_N@Z
	DD	FLAT:?GetAttribute@ioWeapon@@MBEPBUWeaponAttribute@@XZ
	DD	FLAT:?CalcFinalDamage@ioWeapon@@MAEMXZ
	DD	FLAT:?CalcFinalBoundDamage@ioWeapon@@MAEMXZ
	DD	FLAT:?CheckPiercing@ioWeapon@@MAE_N_N@Z
	DD	FLAT:?ClearCollisionList@ioWeapon@@MAEXXZ
	DD	FLAT:?CheckCreateWeaponList@ioWeapon@@MAEXXZ
	DD	FLAT:?CreateCollisionAreaWeapon@ioWeapon@@MAEXXZ
	DD	FLAT:?SetMapCollision@ioWeapon@@UAEXXZ
	DD	FLAT:?IsIgnoreMapCollision@ioWeapon@@UBE_NXZ
	DD	FLAT:?IsIgnoreTestMapCollision@ioWeapon@@UBE_NXZ
	DD	FLAT:?IsIgnoreMapCollisionEffect@ioWeapon@@UBE_NXZ
	DD	FLAT:?AddEffectEvent@ioWeapon@@MAEXPAVioEffect@@@Z
	DD	FLAT:??_EioControlReturnWeapon@@UAEPAXI@Z
CONST	ENDS
;	COMDAT xdata$x
xdata$x	SEGMENT
__unwindtable$??1ioControlReturnWeapon@@UAE@XZ DD 0ffffffffH
	DD	FLAT:__unwindfunclet$??1ioControlReturnWeapon@@UAE@XZ$0
	DD	00H
	DD	FLAT:__unwindfunclet$??1ioControlReturnWeapon@@UAE@XZ$1
__ehfuncinfo$??1ioControlReturnWeapon@@UAE@XZ DD 019930522H
	DD	02H
	DD	FLAT:__unwindtable$??1ioControlReturnWeapon@@UAE@XZ
	DD	2 DUP(00H)
	DD	2 DUP(00H)
	DD	00H
	DD	01H
; Function compile flags: /Ogsp
xdata$x	ENDS
;	COMDAT ??1ioControlReturnWeapon@@UAE@XZ
_TEXT	SEGMENT
_this$ = -16						; size = 4
__$EHRec$ = -12						; size = 12
??1ioControlReturnWeapon@@UAE@XZ PROC			; ioControlReturnWeapon::~ioControlReturnWeapon, COMDAT
; _this$ = ecx

; 33   : {

  00000	6a 04		 push	 4
  00002	b8 00 00 00 00	 mov	 eax, __ehhandler$??1ioControlReturnWeapon@@UAE@XZ
  00007	e8 00 00 00 00	 call	 __EH_prolog3
  0000c	8b f1		 mov	 esi, ecx
  0000e	89 75 f0	 mov	 DWORD PTR _this$[ebp], esi
  00011	c7 06 00 00 00
	00		 mov	 DWORD PTR [esi], OFFSET ??_7ioControlReturnWeapon@@6B@

; 34   : 	if( m_pThrowMesh )

  00017	83 be 9c 08 00
	00 00		 cmp	 DWORD PTR [esi+2204], 0
  0001e	c7 45 fc 01 00
	00 00		 mov	 DWORD PTR __$EHRec$[ebp+8], 1
  00025	74 16		 je	 SHORT $LN1@ioControlR

; 35   : 	{
; 36   : 		LOG.PrintTimeAndLog( 0, "ioControlReturnWeapon::~ioControlReturnWeapon - UnReleased Resouce" );

  00027	68 00 00 00 00	 push	 OFFSET ??_C@_0ED@GKFPJFDE@ioControlReturnWeapon?3?3?$HOioContro@
  0002c	6a 00		 push	 0
  0002e	ff 35 00 00 00
	00		 push	 DWORD PTR __imp_?LOG@@3VCLog@@A
  00034	ff 15 00 00 00
	00		 call	 DWORD PTR __imp_?PrintTimeAndLog@CLog@@QAAXHPADZZ
  0003a	83 c4 0c	 add	 esp, 12			; 0000000cH
$LN1@ioControlR:

; 37   : 	}
; 38   : }

  0003d	8d 8e e0 08 00
	00		 lea	 ecx, DWORD PTR [esi+2272]
  00043	c6 45 fc 00	 mov	 BYTE PTR __$EHRec$[ebp+8], 0
  00047	ff 15 00 00 00
	00		 call	 DWORD PTR __imp_??1ioOrientBox@@QAE@XZ
  0004d	83 4d fc ff	 or	 DWORD PTR __$EHRec$[ebp+8], -1
  00051	8b ce		 mov	 ecx, esi
  00053	e8 00 00 00 00	 call	 ??1ioWeapon@@UAE@XZ	; ioWeapon::~ioWeapon
  00058	e8 00 00 00 00	 call	 __EH_epilog3
  0005d	c3		 ret	 0
_TEXT	ENDS
;	COMDAT text$x
text$x	SEGMENT
__unwindfunclet$??1ioControlReturnWeapon@@UAE@XZ$0:
  00000	8b 4d f0	 mov	 ecx, DWORD PTR _this$[ebp]
  00003	e9 00 00 00 00	 jmp	 ??1ioWeapon@@UAE@XZ	; ioWeapon::~ioWeapon
__unwindfunclet$??1ioControlReturnWeapon@@UAE@XZ$1:
  00008	8b 4d f0	 mov	 ecx, DWORD PTR _this$[ebp]
  0000b	81 c1 e0 08 00
	00		 add	 ecx, 2272		; 000008e0H
  00011	ff 25 00 00 00
	00		 jmp	 DWORD PTR __imp_??1ioOrientBox@@QAE@XZ
__ehhandler$??1ioControlReturnWeapon@@UAE@XZ:
  00017	8b 54 24 08	 mov	 edx, DWORD PTR [esp+8]
  0001b	8d 42 0c	 lea	 eax, DWORD PTR [edx+12]
  0001e	8b 4a ec	 mov	 ecx, DWORD PTR [edx-20]
  00021	33 c8		 xor	 ecx, eax
  00023	e8 00 00 00 00	 call	 @__security_check_cookie@4
  00028	b8 00 00 00 00	 mov	 eax, OFFSET __ehfuncinfo$??1ioControlReturnWeapon@@UAE@XZ
  0002d	e9 00 00 00 00	 jmp	 ___CxxFrameHandler3
text$x	ENDS
??1ioControlReturnWeapon@@UAE@XZ ENDP			; ioControlReturnWeapon::~ioControlReturnWeapon
EXTRN	__imp_?DestroyEffect@ioEffectFactory@@QAEXPAVioEffect@@@Z:PROC
EXTRN	__imp_?GetSingleton@ioEffectFactory@@SAAAV1@XZ:PROC
; Function compile flags: /Ogsp
;	COMDAT ?DestroyResource@ioControlReturnWeapon@@UAEXPAVioPlayStage@@@Z
_TEXT	SEGMENT
_pStage$ = 8						; size = 4
?DestroyResource@ioControlReturnWeapon@@UAEXPAVioPlayStage@@@Z PROC ; ioControlReturnWeapon::DestroyResource, COMDAT
; _this$ = ecx

; 87   : {

  00000	56		 push	 esi

; 88   : 	if( m_pThrowMesh )

  00001	8d b1 9c 08 00
	00		 lea	 esi, DWORD PTR [ecx+2204]
  00007	8b 06		 mov	 eax, DWORD PTR [esi]
  00009	85 c0		 test	 eax, eax
  0000b	74 12		 je	 SHORT $LN1@DestroyRes

; 89   : 	{
; 90   : 		g_EffectFactory.DestroyEffect( m_pThrowMesh );

  0000d	50		 push	 eax
  0000e	ff 15 00 00 00
	00		 call	 DWORD PTR __imp_?GetSingleton@ioEffectFactory@@SAAAV1@XZ
  00014	8b c8		 mov	 ecx, eax
  00016	ff 15 00 00 00
	00		 call	 DWORD PTR __imp_?DestroyEffect@ioEffectFactory@@QAEXPAVioEffect@@@Z

; 91   : 		m_pThrowMesh = NULL;

  0001c	83 26 00	 and	 DWORD PTR [esi], 0
$LN1@DestroyRes:
  0001f	5e		 pop	 esi

; 92   : 	}
; 93   : }

  00020	c2 04 00	 ret	 4
?DestroyResource@ioControlReturnWeapon@@UAEXPAVioPlayStage@@@Z ENDP ; ioControlReturnWeapon::DestroyResource
_TEXT	ENDS
EXTRN	?GetOwner@ioWeapon@@QBEPAVioBaseChar@@XZ:PROC	; ioWeapon::GetOwner
EXTRN	?SetPosition@ioWeapon@@QAEXABUD3DXVECTOR3@@@Z:PROC ; ioWeapon::SetPosition
; Function compile flags: /Ogsp
;	COMDAT ?SetStartPosition@ioControlReturnWeapon@@UAEXABUD3DXVECTOR3@@PAVioPlayStage@@@Z
_TEXT	SEGMENT
tv142 = -8						; size = 8
_vPos$ = 8						; size = 4
_pStage$ = 12						; size = 4
?SetStartPosition@ioControlReturnWeapon@@UAEXABUD3DXVECTOR3@@PAVioPlayStage@@@Z PROC ; ioControlReturnWeapon::SetStartPosition, COMDAT
; _this$ = ecx

; 120  : {

  00000	55		 push	 ebp
  00001	8b ec		 mov	 ebp, esp
  00003	51		 push	 ecx
  00004	51		 push	 ecx
  00005	56		 push	 esi

; 121  : 	SetPosition( vPos );

  00006	8b 75 08	 mov	 esi, DWORD PTR _vPos$[ebp]
  00009	57		 push	 edi
  0000a	56		 push	 esi
  0000b	8b f9		 mov	 edi, ecx
  0000d	e8 00 00 00 00	 call	 ?SetPosition@ioWeapon@@QAEXABUD3DXVECTOR3@@@Z ; ioWeapon::SetPosition

; 122  : 
; 123  : 	if( GetOwner() )

  00012	8b cf		 mov	 ecx, edi
  00014	e8 00 00 00 00	 call	 ?GetOwner@ioWeapon@@QBEPAVioBaseChar@@XZ ; ioWeapon::GetOwner
  00019	85 c0		 test	 eax, eax
  0001b	74 38		 je	 SHORT $LN1@SetStartPo

; 124  : 	{
; 125  : 		m_fDefaultHeightGap = vPos.y - GetOwner()->GetWorldPosition().y;

  0001d	8b cf		 mov	 ecx, edi
  0001f	e8 00 00 00 00	 call	 ?GetOwner@ioWeapon@@QBEPAVioBaseChar@@XZ ; ioWeapon::GetOwner
  00024	f3 0f 10 46 04	 movss	 xmm0, DWORD PTR [esi+4]
  00029	8b 10		 mov	 edx, DWORD PTR [eax]
  0002b	0f 5a c0	 cvtps2pd xmm0, xmm0
  0002e	8b c8		 mov	 ecx, eax
  00030	f2 0f 11 45 f8	 movsd	 QWORD PTR tv142[ebp], xmm0
  00035	ff 52 70	 call	 DWORD PTR [edx+112]
  00038	f3 0f 10 40 04	 movss	 xmm0, DWORD PTR [eax+4]
  0003d	0f 5a c8	 cvtps2pd xmm1, xmm0
  00040	f2 0f 10 45 f8	 movsd	 xmm0, QWORD PTR tv142[ebp]
  00045	f2 0f 5c c1	 subsd	 xmm0, xmm1
  00049	66 0f 5a c0	 cvtpd2ps xmm0, xmm0
  0004d	f3 0f 11 87 24
	09 00 00	 movss	 DWORD PTR [edi+2340], xmm0
$LN1@SetStartPo:

; 126  : 	}
; 127  : 
; 128  : 	m_vPrePos = vPos;

  00055	81 c7 48 09 00
	00		 add	 edi, 2376		; 00000948H
  0005b	a5		 movsd
  0005c	a5		 movsd
  0005d	a5		 movsd
  0005e	5f		 pop	 edi
  0005f	5e		 pop	 esi

; 129  : }

  00060	c9		 leave
  00061	c2 08 00	 ret	 8
?SetStartPosition@ioControlReturnWeapon@@UAEXABUD3DXVECTOR3@@PAVioPlayStage@@@Z ENDP ; ioControlReturnWeapon::SetStartPosition
_TEXT	ENDS
PUBLIC	?SetReturnWay@ioControlReturnWeapon@@QAEXPAVioPlayStage@@@Z ; ioControlReturnWeapon::SetReturnWay
EXTRN	__imp_?GetLoopSec@ioFrameTimer@@QBEKXZ:PROC
EXTRN	__imp_?GetSingleton@ioFrameTimer@@SAAAV1@XZ:PROC
; Function compile flags: /Ogsp
;	COMDAT ?SetReturnWay@ioControlReturnWeapon@@QAEXPAVioPlayStage@@@Z
_TEXT	SEGMENT
_pStage$ = 8						; size = 4
?SetReturnWay@ioControlReturnWeapon@@QAEXPAVioPlayStage@@@Z PROC ; ioControlReturnWeapon::SetReturnWay, COMDAT
; _this$ = ecx

; 170  : {

  00000	56		 push	 esi
  00001	8b f1		 mov	 esi, ecx

; 171  : 	if( m_ReturnState == TRS_NONE )

  00003	83 be 94 08 00
	00 00		 cmp	 DWORD PTR [esi+2196], 0
  0000a	75 34		 jne	 SHORT $LN1@SetReturnW

; 172  : 	{
; 173  : 		m_ReturnState = TRS_RETRUN;

  0000c	c7 86 94 08 00
	00 01 00 00 00	 mov	 DWORD PTR [esi+2196], 1

; 174  : 		m_dwStartReturnTime = FRAMEGETTIME();

  00016	ff 15 00 00 00
	00		 call	 DWORD PTR __imp_?GetSingleton@ioFrameTimer@@SAAAV1@XZ
  0001c	8b c8		 mov	 ecx, eax
  0001e	ff 15 00 00 00
	00		 call	 DWORD PTR __imp_?GetLoopSec@ioFrameTimer@@QBEKXZ
  00024	89 86 d0 08 00
	00		 mov	 DWORD PTR [esi+2256], eax

; 175  : 
; 176  : 		float fMaxRange = GetAttribute()->m_fMoveRange;

  0002a	8b 06		 mov	 eax, DWORD PTR [esi]
  0002c	8b ce		 mov	 ecx, esi
  0002e	ff 90 3c 01 00
	00		 call	 DWORD PTR [eax+316]

; 177  : 		m_fCurMoveRange = fMaxRange;

  00034	d9 80 9c 01 00
	00		 fld	 DWORD PTR [eax+412]
  0003a	d9 9e d8 08 00
	00		 fstp	 DWORD PTR [esi+2264]
$LN1@SetReturnW:
  00040	5e		 pop	 esi

; 178  : 	}
; 179  : }

  00041	c2 04 00	 ret	 4
?SetReturnWay@ioControlReturnWeapon@@QAEXPAVioPlayStage@@@Z ENDP ; ioControlReturnWeapon::SetReturnWay
_TEXT	ENDS
EXTRN	?GetLocalAttackBox@ioWeapon@@UBEABVioOrientBox@@XZ:PROC ; ioWeapon::GetLocalAttackBox
EXTRN	__imp_?GetCollisionBox@ioEffect@@QBEABVioOrientBox@@XZ:PROC
; Function compile flags: /Ogsp
;	COMDAT ?GetLocalAttackBox@ioControlReturnWeapon@@UBEABVioOrientBox@@XZ
_TEXT	SEGMENT
?GetLocalAttackBox@ioControlReturnWeapon@@UBEABVioOrientBox@@XZ PROC ; ioControlReturnWeapon::GetLocalAttackBox, COMDAT
; _this$ = ecx

; 792  : 	if( m_pThrowMesh )

  00000	8b 81 9c 08 00
	00		 mov	 eax, DWORD PTR [ecx+2204]
  00006	85 c0		 test	 eax, eax
  00008	74 08		 je	 SHORT $LN1@GetLocalAt

; 793  : 		return m_pThrowMesh->GetCollisionBox();

  0000a	8b c8		 mov	 ecx, eax
  0000c	ff 25 00 00 00
	00		 jmp	 DWORD PTR __imp_?GetCollisionBox@ioEffect@@QBEABVioOrientBox@@XZ
$LN1@GetLocalAt:

; 794  : 
; 795  : 	return ioWeapon::GetLocalAttackBox();

  00012	e9 00 00 00 00	 jmp	 ?GetLocalAttackBox@ioWeapon@@UBEABVioOrientBox@@XZ ; ioWeapon::GetLocalAttackBox
?GetLocalAttackBox@ioControlReturnWeapon@@UBEABVioOrientBox@@XZ ENDP ; ioControlReturnWeapon::GetLocalAttackBox
; Function compile flags: /Ogsp
_TEXT	ENDS
;	COMDAT ?GetType@ioControlReturnWeapon@@UBE?AW4WeaponType@ioWeapon@@XZ
_TEXT	SEGMENT
?GetType@ioControlReturnWeapon@@UBE?AW4WeaponType@ioWeapon@@XZ PROC ; ioControlReturnWeapon::GetType, COMDAT
; _this$ = ecx

; 800  : 	return WT_CONTROL_RETURN;

  00000	6a 23		 push	 35			; 00000023H
  00002	58		 pop	 eax

; 801  : }

  00003	c3		 ret	 0
?GetType@ioControlReturnWeapon@@UBE?AW4WeaponType@ioWeapon@@XZ ENDP ; ioControlReturnWeapon::GetType
; Function compile flags: /Ogsp
_TEXT	ENDS
;	COMDAT ?GetActionStopType@ioControlReturnWeapon@@UBE?AW4ActionStopType@@XZ
_TEXT	SEGMENT
?GetActionStopType@ioControlReturnWeapon@@UBE?AW4ActionStopType@@XZ PROC ; ioControlReturnWeapon::GetActionStopType, COMDAT
; _this$ = ecx

; 805  : 	return m_ActionStopType;

  00000	a1 00 00 00 00	 mov	 eax, DWORD PTR ?m_ActionStopType@ioControlReturnWeapon@@2W4ActionStopType@@A ; ioControlReturnWeapon::m_ActionStopType

; 806  : }

  00005	c3		 ret	 0
?GetActionStopType@ioControlReturnWeapon@@UBE?AW4ActionStopType@@XZ ENDP ; ioControlReturnWeapon::GetActionStopType
; Function compile flags: /Ogsp
_TEXT	ENDS
;	COMDAT ?GetDieActionStopType@ioControlReturnWeapon@@UBE?AW4ActionStopType@@XZ
_TEXT	SEGMENT
?GetDieActionStopType@ioControlReturnWeapon@@UBE?AW4ActionStopType@@XZ PROC ; ioControlReturnWeapon::GetDieActionStopType, COMDAT
; _this$ = ecx

; 810  : 	return m_DieActionStopType;

  00000	a1 00 00 00 00	 mov	 eax, DWORD PTR ?m_DieActionStopType@ioControlReturnWeapon@@2W4ActionStopType@@A ; ioControlReturnWeapon::m_DieActionStopType

; 811  : }

  00005	c3		 ret	 0
?GetDieActionStopType@ioControlReturnWeapon@@UBE?AW4ActionStopType@@XZ ENDP ; ioControlReturnWeapon::GetDieActionStopType
_TEXT	ENDS
PUBLIC	?GetMoveSpeed@ioControlReturnWeapon@@QAEMXZ	; ioControlReturnWeapon::GetMoveSpeed
; Function compile flags: /Ogsp
;	COMDAT ?GetMoveSpeed@ioControlReturnWeapon@@QAEMXZ
_TEXT	SEGMENT
?GetMoveSpeed@ioControlReturnWeapon@@QAEMXZ PROC	; ioControlReturnWeapon::GetMoveSpeed, COMDAT
; _this$ = ecx

; 815  : 	return GetAttribute()->m_fMoveSpeed;

  00000	8b 01		 mov	 eax, DWORD PTR [ecx]
  00002	ff 90 3c 01 00
	00		 call	 DWORD PTR [eax+316]
  00008	d9 80 98 01 00
	00		 fld	 DWORD PTR [eax+408]

; 816  : }

  0000e	c3		 ret	 0
?GetMoveSpeed@ioControlReturnWeapon@@QAEMXZ ENDP	; ioControlReturnWeapon::GetMoveSpeed
_TEXT	ENDS
PUBLIC	__real@3f91df46a2526c7a
PUBLIC	??$DEGtoRAD@M@@YAMM@Z				; DEGtoRAD<float>
;	COMDAT __real@3f91df46a2526c7a
; File d:\lost saga for developer\youtube\tutorial\source\src\lsclient\veryoftenusedefine.h
CONST	SEGMENT
__real@3f91df46a2526c7a DQ 03f91df46a2526c7ar	; 0.0174533
; Function compile flags: /Ogsp
CONST	ENDS
;	COMDAT ??$DEGtoRAD@M@@YAMM@Z
_TEXT	SEGMENT
tv129 = 8						; size = 4
_val$ = 8						; size = 4
??$DEGtoRAD@M@@YAMM@Z PROC				; DEGtoRAD<float>, COMDAT

; 20   : type  DEGtoRAD (type val) {return (type) (val * 0.0174532925199);}

  00000	55		 push	 ebp
  00001	8b ec		 mov	 ebp, esp
  00003	d9 45 08	 fld	 DWORD PTR _val$[ebp]
  00006	dc 0d 00 00 00
	00		 fmul	 QWORD PTR __real@3f91df46a2526c7a
  0000c	d9 5d 08	 fstp	 DWORD PTR tv129[ebp]
  0000f	d9 45 08	 fld	 DWORD PTR tv129[ebp]
  00012	5d		 pop	 ebp
  00013	c3		 ret	 0
??$DEGtoRAD@M@@YAMM@Z ENDP				; DEGtoRAD<float>
_TEXT	ENDS
PUBLIC	??0D3DXVECTOR3@@QAE@XZ				; D3DXVECTOR3::D3DXVECTOR3
; Function compile flags: /Ogsp
; File c:\program files (x86)\microsoft directx sdk (june 2010)\include\d3dx9math.h
;	COMDAT ??0D3DXVECTOR3@@QAE@XZ
_TEXT	SEGMENT
??0D3DXVECTOR3@@QAE@XZ PROC				; D3DXVECTOR3::D3DXVECTOR3, COMDAT
; _this$ = ecx

; 165  :     D3DXVECTOR3() {};

  00000	8b c1		 mov	 eax, ecx
  00002	c3		 ret	 0
??0D3DXVECTOR3@@QAE@XZ ENDP				; D3DXVECTOR3::D3DXVECTOR3
_TEXT	ENDS
PUBLIC	??0D3DXQUATERNION@@QAE@XZ			; D3DXQUATERNION::D3DXQUATERNION
; Function compile flags: /Ogsp
;	COMDAT ??0D3DXQUATERNION@@QAE@XZ
_TEXT	SEGMENT
??0D3DXQUATERNION@@QAE@XZ PROC				; D3DXQUATERNION::D3DXQUATERNION, COMDAT
; _this$ = ecx

; 429  :     D3DXQUATERNION() {}

  00000	8b c1		 mov	 eax, ecx
  00002	c3		 ret	 0
??0D3DXQUATERNION@@QAE@XZ ENDP				; D3DXQUATERNION::D3DXQUATERNION
_TEXT	ENDS
PUBLIC	??0D3DXVECTOR3@@QAE@MMM@Z			; D3DXVECTOR3::D3DXVECTOR3
; Function compile flags: /Ogsp
; File c:\program files (x86)\microsoft directx sdk (june 2010)\include\d3dx9math.inl
;	COMDAT ??0D3DXVECTOR3@@QAE@MMM@Z
_TEXT	SEGMENT
_fx$ = 8						; size = 4
_fy$ = 12						; size = 4
_fz$ = 16						; size = 4
??0D3DXVECTOR3@@QAE@MMM@Z PROC				; D3DXVECTOR3::D3DXVECTOR3, COMDAT
; _this$ = ecx

; 303  : {

  00000	55		 push	 ebp
  00001	8b ec		 mov	 ebp, esp

; 304  :     x = fx;

  00003	f3 0f 10 45 08	 movss	 xmm0, DWORD PTR _fx$[ebp]
  00008	8b c1		 mov	 eax, ecx
  0000a	f3 0f 11 00	 movss	 DWORD PTR [eax], xmm0

; 305  :     y = fy;

  0000e	f3 0f 10 45 0c	 movss	 xmm0, DWORD PTR _fy$[ebp]
  00013	f3 0f 11 40 04	 movss	 DWORD PTR [eax+4], xmm0

; 306  :     z = fz;

  00018	f3 0f 10 45 10	 movss	 xmm0, DWORD PTR _fz$[ebp]
  0001d	f3 0f 11 40 08	 movss	 DWORD PTR [eax+8], xmm0

; 307  : }

  00022	5d		 pop	 ebp
  00023	c2 0c 00	 ret	 12			; 0000000cH
??0D3DXVECTOR3@@QAE@MMM@Z ENDP				; D3DXVECTOR3::D3DXVECTOR3
_TEXT	ENDS
PUBLIC	??YD3DXVECTOR3@@QAEAAU0@ABU0@@Z			; D3DXVECTOR3::operator+=
; Function compile flags: /Ogsp
;	COMDAT ??YD3DXVECTOR3@@QAEAAU0@ABU0@@Z
_TEXT	SEGMENT
_v$ = 8							; size = 4
??YD3DXVECTOR3@@QAEAAU0@ABU0@@Z PROC			; D3DXVECTOR3::operator+=, COMDAT
; _this$ = ecx

; 327  : {

  00000	55		 push	 ebp
  00001	8b ec		 mov	 ebp, esp
  00003	8b c1		 mov	 eax, ecx

; 328  :     x += v.x;

  00005	8b 4d 08	 mov	 ecx, DWORD PTR _v$[ebp]
  00008	f3 0f 10 01	 movss	 xmm0, DWORD PTR [ecx]
  0000c	f3 0f 10 08	 movss	 xmm1, DWORD PTR [eax]
  00010	0f 5a c0	 cvtps2pd xmm0, xmm0
  00013	0f 5a c9	 cvtps2pd xmm1, xmm1
  00016	f2 0f 58 c1	 addsd	 xmm0, xmm1

; 329  :     y += v.y;

  0001a	f3 0f 10 48 04	 movss	 xmm1, DWORD PTR [eax+4]
  0001f	66 0f 5a c0	 cvtpd2ps xmm0, xmm0
  00023	f3 0f 11 00	 movss	 DWORD PTR [eax], xmm0
  00027	f3 0f 10 41 04	 movss	 xmm0, DWORD PTR [ecx+4]
  0002c	0f 5a c0	 cvtps2pd xmm0, xmm0
  0002f	0f 5a c9	 cvtps2pd xmm1, xmm1
  00032	f2 0f 58 c1	 addsd	 xmm0, xmm1

; 330  :     z += v.z;

  00036	f3 0f 10 48 08	 movss	 xmm1, DWORD PTR [eax+8]
  0003b	66 0f 5a c0	 cvtpd2ps xmm0, xmm0
  0003f	f3 0f 11 40 04	 movss	 DWORD PTR [eax+4], xmm0
  00044	f3 0f 10 41 08	 movss	 xmm0, DWORD PTR [ecx+8]
  00049	0f 5a c0	 cvtps2pd xmm0, xmm0
  0004c	0f 5a c9	 cvtps2pd xmm1, xmm1
  0004f	f2 0f 58 c1	 addsd	 xmm0, xmm1
  00053	66 0f 5a c0	 cvtpd2ps xmm0, xmm0
  00057	f3 0f 11 40 08	 movss	 DWORD PTR [eax+8], xmm0

; 331  :     return *this;
; 332  : }

  0005c	5d		 pop	 ebp
  0005d	c2 04 00	 ret	 4
??YD3DXVECTOR3@@QAEAAU0@ABU0@@Z ENDP			; D3DXVECTOR3::operator+=
_TEXT	ENDS
PUBLIC	??XD3DXVECTOR3@@QAEAAU0@M@Z			; D3DXVECTOR3::operator*=
; Function compile flags: /Ogsp
;	COMDAT ??XD3DXVECTOR3@@QAEAAU0@M@Z
_TEXT	SEGMENT
_f$ = 8							; size = 4
??XD3DXVECTOR3@@QAEAAU0@M@Z PROC			; D3DXVECTOR3::operator*=, COMDAT
; _this$ = ecx

; 345  : {

  00000	55		 push	 ebp
  00001	8b ec		 mov	 ebp, esp

; 346  :     x *= f;

  00003	f3 0f 10 4d 08	 movss	 xmm1, DWORD PTR _f$[ebp]
  00008	8b c1		 mov	 eax, ecx
  0000a	f3 0f 10 00	 movss	 xmm0, DWORD PTR [eax]
  0000e	0f 5a c0	 cvtps2pd xmm0, xmm0
  00011	0f 5a c9	 cvtps2pd xmm1, xmm1
  00014	f2 0f 59 c1	 mulsd	 xmm0, xmm1

; 347  :     y *= f;

  00018	f3 0f 10 4d 08	 movss	 xmm1, DWORD PTR _f$[ebp]
  0001d	66 0f 5a c0	 cvtpd2ps xmm0, xmm0
  00021	f3 0f 11 00	 movss	 DWORD PTR [eax], xmm0
  00025	f3 0f 10 40 04	 movss	 xmm0, DWORD PTR [eax+4]
  0002a	0f 5a c0	 cvtps2pd xmm0, xmm0
  0002d	0f 5a c9	 cvtps2pd xmm1, xmm1
  00030	f2 0f 59 c1	 mulsd	 xmm0, xmm1

; 348  :     z *= f;

  00034	f3 0f 10 48 08	 movss	 xmm1, DWORD PTR [eax+8]
  00039	66 0f 5a c0	 cvtpd2ps xmm0, xmm0
  0003d	f3 0f 11 40 04	 movss	 DWORD PTR [eax+4], xmm0
  00042	f3 0f 10 45 08	 movss	 xmm0, DWORD PTR _f$[ebp]
  00047	0f 5a c0	 cvtps2pd xmm0, xmm0
  0004a	0f 5a c9	 cvtps2pd xmm1, xmm1
  0004d	f2 0f 59 c1	 mulsd	 xmm0, xmm1
  00051	f2 0f 5a c0	 cvtsd2ss xmm0, xmm0
  00055	f3 0f 11 40 08	 movss	 DWORD PTR [eax+8], xmm0

; 349  :     return *this;
; 350  : }

  0005a	5d		 pop	 ebp
  0005b	c2 04 00	 ret	 4
??XD3DXVECTOR3@@QAEAAU0@M@Z ENDP			; D3DXVECTOR3::operator*=
_TEXT	ENDS
PUBLIC	__mask@@NegFloat@
PUBLIC	??GD3DXVECTOR3@@QBE?AU0@XZ			; D3DXVECTOR3::operator-
;	COMDAT __mask@@NegFloat@
CONST	SEGMENT
__mask@@NegFloat@ DB 00H, 00H, 00H, 080H, 00H, 00H, 00H, 080H, 00H, 00H, 00H
	DB	080H, 00H, 00H, 00H, 080H
; Function compile flags: /Ogsp
CONST	ENDS
;	COMDAT ??GD3DXVECTOR3@@QBE?AU0@XZ
_TEXT	SEGMENT
___$ReturnUdt$ = 8					; size = 4
??GD3DXVECTOR3@@QBE?AU0@XZ PROC				; D3DXVECTOR3::operator-, COMDAT
; _this$ = ecx

; 372  : {

  00000	55		 push	 ebp
  00001	8b ec		 mov	 ebp, esp

; 373  :     return D3DXVECTOR3(-x, -y, -z);

  00003	f3 0f 10 05 00
	00 00 00	 movss	 xmm0, DWORD PTR __mask@@NegFloat@
  0000b	8b 45 08	 mov	 eax, DWORD PTR ___$ReturnUdt$[ebp]
  0000e	f3 0f 10 09	 movss	 xmm1, DWORD PTR [ecx]
  00012	0f 57 c8	 xorps	 xmm1, xmm0
  00015	f3 0f 11 08	 movss	 DWORD PTR [eax], xmm1
  00019	f3 0f 10 49 04	 movss	 xmm1, DWORD PTR [ecx+4]
  0001e	0f 57 c8	 xorps	 xmm1, xmm0
  00021	f3 0f 11 48 04	 movss	 DWORD PTR [eax+4], xmm1
  00026	f3 0f 10 49 08	 movss	 xmm1, DWORD PTR [ecx+8]
  0002b	0f 57 c8	 xorps	 xmm1, xmm0
  0002e	f3 0f 11 48 08	 movss	 DWORD PTR [eax+8], xmm1

; 374  : }

  00033	5d		 pop	 ebp
  00034	c2 04 00	 ret	 4
??GD3DXVECTOR3@@QBE?AU0@XZ ENDP				; D3DXVECTOR3::operator-
_TEXT	ENDS
PUBLIC	??HD3DXVECTOR3@@QBE?AU0@ABU0@@Z			; D3DXVECTOR3::operator+
; Function compile flags: /Ogsp
;	COMDAT ??HD3DXVECTOR3@@QBE?AU0@ABU0@@Z
_TEXT	SEGMENT
___$ReturnUdt$ = 8					; size = 4
_v$ = 12						; size = 4
??HD3DXVECTOR3@@QBE?AU0@ABU0@@Z PROC			; D3DXVECTOR3::operator+, COMDAT
; _this$ = ecx

; 380  : {

  00000	55		 push	 ebp
  00001	8b ec		 mov	 ebp, esp

; 381  :     return D3DXVECTOR3(x + v.x, y + v.y, z + v.z);

  00003	8b 55 0c	 mov	 edx, DWORD PTR _v$[ebp]
  00006	f3 0f 10 02	 movss	 xmm0, DWORD PTR [edx]
  0000a	f3 0f 10 09	 movss	 xmm1, DWORD PTR [ecx]
  0000e	8b 45 08	 mov	 eax, DWORD PTR ___$ReturnUdt$[ebp]
  00011	0f 5a c0	 cvtps2pd xmm0, xmm0
  00014	0f 5a c9	 cvtps2pd xmm1, xmm1
  00017	f2 0f 58 c1	 addsd	 xmm0, xmm1
  0001b	f3 0f 10 49 04	 movss	 xmm1, DWORD PTR [ecx+4]
  00020	66 0f 5a c0	 cvtpd2ps xmm0, xmm0
  00024	f3 0f 11 00	 movss	 DWORD PTR [eax], xmm0
  00028	f3 0f 10 42 04	 movss	 xmm0, DWORD PTR [edx+4]
  0002d	0f 5a c0	 cvtps2pd xmm0, xmm0
  00030	0f 5a c9	 cvtps2pd xmm1, xmm1
  00033	f2 0f 58 c1	 addsd	 xmm0, xmm1
  00037	f3 0f 10 49 08	 movss	 xmm1, DWORD PTR [ecx+8]
  0003c	66 0f 5a c0	 cvtpd2ps xmm0, xmm0
  00040	f3 0f 11 40 04	 movss	 DWORD PTR [eax+4], xmm0
  00045	f3 0f 10 42 08	 movss	 xmm0, DWORD PTR [edx+8]
  0004a	0f 5a c0	 cvtps2pd xmm0, xmm0
  0004d	0f 5a c9	 cvtps2pd xmm1, xmm1
  00050	f2 0f 58 c1	 addsd	 xmm0, xmm1
  00054	66 0f 5a c0	 cvtpd2ps xmm0, xmm0
  00058	f3 0f 11 40 08	 movss	 DWORD PTR [eax+8], xmm0

; 382  : }

  0005d	5d		 pop	 ebp
  0005e	c2 08 00	 ret	 8
??HD3DXVECTOR3@@QBE?AU0@ABU0@@Z ENDP			; D3DXVECTOR3::operator+
_TEXT	ENDS
PUBLIC	??GD3DXVECTOR3@@QBE?AU0@ABU0@@Z			; D3DXVECTOR3::operator-
; Function compile flags: /Ogsp
;	COMDAT ??GD3DXVECTOR3@@QBE?AU0@ABU0@@Z
_TEXT	SEGMENT
___$ReturnUdt$ = 8					; size = 4
_v$ = 12						; size = 4
??GD3DXVECTOR3@@QBE?AU0@ABU0@@Z PROC			; D3DXVECTOR3::operator-, COMDAT
; _this$ = ecx

; 386  : {

  00000	55		 push	 ebp
  00001	8b ec		 mov	 ebp, esp

; 387  :     return D3DXVECTOR3(x - v.x, y - v.y, z - v.z);

  00003	8b 55 0c	 mov	 edx, DWORD PTR _v$[ebp]
  00006	f3 0f 10 01	 movss	 xmm0, DWORD PTR [ecx]
  0000a	f3 0f 10 0a	 movss	 xmm1, DWORD PTR [edx]
  0000e	8b 45 08	 mov	 eax, DWORD PTR ___$ReturnUdt$[ebp]
  00011	0f 5a c0	 cvtps2pd xmm0, xmm0
  00014	0f 5a c9	 cvtps2pd xmm1, xmm1
  00017	f2 0f 5c c1	 subsd	 xmm0, xmm1
  0001b	f3 0f 10 4a 04	 movss	 xmm1, DWORD PTR [edx+4]
  00020	66 0f 5a c0	 cvtpd2ps xmm0, xmm0
  00024	f3 0f 11 00	 movss	 DWORD PTR [eax], xmm0
  00028	f3 0f 10 41 04	 movss	 xmm0, DWORD PTR [ecx+4]
  0002d	0f 5a c0	 cvtps2pd xmm0, xmm0
  00030	0f 5a c9	 cvtps2pd xmm1, xmm1
  00033	f2 0f 5c c1	 subsd	 xmm0, xmm1
  00037	f3 0f 10 4a 08	 movss	 xmm1, DWORD PTR [edx+8]
  0003c	66 0f 5a c0	 cvtpd2ps xmm0, xmm0
  00040	f3 0f 11 40 04	 movss	 DWORD PTR [eax+4], xmm0
  00045	f3 0f 10 41 08	 movss	 xmm0, DWORD PTR [ecx+8]
  0004a	0f 5a c0	 cvtps2pd xmm0, xmm0
  0004d	0f 5a c9	 cvtps2pd xmm1, xmm1
  00050	f2 0f 5c c1	 subsd	 xmm0, xmm1
  00054	66 0f 5a c0	 cvtpd2ps xmm0, xmm0
  00058	f3 0f 11 40 08	 movss	 DWORD PTR [eax+8], xmm0

; 388  : }

  0005d	5d		 pop	 ebp
  0005e	c2 08 00	 ret	 8
??GD3DXVECTOR3@@QBE?AU0@ABU0@@Z ENDP			; D3DXVECTOR3::operator-
_TEXT	ENDS
PUBLIC	??DD3DXVECTOR3@@QBE?AU0@M@Z			; D3DXVECTOR3::operator*
; Function compile flags: /Ogsp
;	COMDAT ??DD3DXVECTOR3@@QBE?AU0@M@Z
_TEXT	SEGMENT
___$ReturnUdt$ = 8					; size = 4
_f$ = 12						; size = 4
??DD3DXVECTOR3@@QBE?AU0@M@Z PROC			; D3DXVECTOR3::operator*, COMDAT
; _this$ = ecx

; 392  : {

  00000	55		 push	 ebp
  00001	8b ec		 mov	 ebp, esp

; 393  :     return D3DXVECTOR3(x * f, y * f, z * f);

  00003	f3 0f 10 4d 0c	 movss	 xmm1, DWORD PTR _f$[ebp]
  00008	f3 0f 10 01	 movss	 xmm0, DWORD PTR [ecx]
  0000c	8b 45 08	 mov	 eax, DWORD PTR ___$ReturnUdt$[ebp]
  0000f	0f 5a c0	 cvtps2pd xmm0, xmm0
  00012	0f 5a c9	 cvtps2pd xmm1, xmm1
  00015	f2 0f 59 c1	 mulsd	 xmm0, xmm1
  00019	f3 0f 10 4d 0c	 movss	 xmm1, DWORD PTR _f$[ebp]
  0001e	66 0f 5a c0	 cvtpd2ps xmm0, xmm0
  00022	f3 0f 11 00	 movss	 DWORD PTR [eax], xmm0
  00026	f3 0f 10 41 04	 movss	 xmm0, DWORD PTR [ecx+4]
  0002b	0f 5a c0	 cvtps2pd xmm0, xmm0
  0002e	0f 5a c9	 cvtps2pd xmm1, xmm1
  00031	f2 0f 59 c1	 mulsd	 xmm0, xmm1
  00035	f3 0f 10 4d 0c	 movss	 xmm1, DWORD PTR _f$[ebp]
  0003a	66 0f 5a c0	 cvtpd2ps xmm0, xmm0
  0003e	f3 0f 11 40 04	 movss	 DWORD PTR [eax+4], xmm0
  00043	f3 0f 10 41 08	 movss	 xmm0, DWORD PTR [ecx+8]
  00048	0f 5a c0	 cvtps2pd xmm0, xmm0
  0004b	0f 5a c9	 cvtps2pd xmm1, xmm1
  0004e	f2 0f 59 c1	 mulsd	 xmm0, xmm1
  00052	66 0f 5a c0	 cvtpd2ps xmm0, xmm0
  00056	f3 0f 11 40 08	 movss	 DWORD PTR [eax+8], xmm0

; 394  : }

  0005b	5d		 pop	 ebp
  0005c	c2 08 00	 ret	 8
??DD3DXVECTOR3@@QBE?AU0@M@Z ENDP			; D3DXVECTOR3::operator*
_TEXT	ENDS
PUBLIC	??D@YA?AUD3DXVECTOR3@@MABU0@@Z			; operator*
; Function compile flags: /Ogsp
;	COMDAT ??D@YA?AUD3DXVECTOR3@@MABU0@@Z
_TEXT	SEGMENT
___$ReturnUdt$ = 8					; size = 4
_f$ = 12						; size = 4
_v$ = 16						; size = 4
??D@YA?AUD3DXVECTOR3@@MABU0@@Z PROC			; operator*, COMDAT

; 406  : {

  00000	55		 push	 ebp
  00001	8b ec		 mov	 ebp, esp

; 407  :     return D3DXVECTOR3(f * v.x, f * v.y, f * v.z);

  00003	8b 4d 10	 mov	 ecx, DWORD PTR _v$[ebp]
  00006	f3 0f 10 4d 0c	 movss	 xmm1, DWORD PTR _f$[ebp]
  0000b	f3 0f 10 01	 movss	 xmm0, DWORD PTR [ecx]
  0000f	8b 45 08	 mov	 eax, DWORD PTR ___$ReturnUdt$[ebp]
  00012	0f 5a c0	 cvtps2pd xmm0, xmm0
  00015	0f 5a c9	 cvtps2pd xmm1, xmm1
  00018	f2 0f 59 c1	 mulsd	 xmm0, xmm1
  0001c	f3 0f 10 4d 0c	 movss	 xmm1, DWORD PTR _f$[ebp]
  00021	66 0f 5a c0	 cvtpd2ps xmm0, xmm0
  00025	f3 0f 11 00	 movss	 DWORD PTR [eax], xmm0
  00029	f3 0f 10 41 04	 movss	 xmm0, DWORD PTR [ecx+4]
  0002e	0f 5a c0	 cvtps2pd xmm0, xmm0
  00031	0f 5a c9	 cvtps2pd xmm1, xmm1
  00034	f2 0f 59 c1	 mulsd	 xmm0, xmm1
  00038	f3 0f 10 4d 0c	 movss	 xmm1, DWORD PTR _f$[ebp]
  0003d	66 0f 5a c0	 cvtpd2ps xmm0, xmm0
  00041	f3 0f 11 40 04	 movss	 DWORD PTR [eax+4], xmm0
  00046	f3 0f 10 41 08	 movss	 xmm0, DWORD PTR [ecx+8]
  0004b	0f 5a c0	 cvtps2pd xmm0, xmm0
  0004e	0f 5a c9	 cvtps2pd xmm1, xmm1
  00051	f2 0f 59 c1	 mulsd	 xmm0, xmm1
  00055	66 0f 5a c0	 cvtpd2ps xmm0, xmm0
  00059	f3 0f 11 40 08	 movss	 DWORD PTR [eax+8], xmm0

; 408  : }

  0005e	5d		 pop	 ebp
  0005f	c3		 ret	 0
??D@YA?AUD3DXVECTOR3@@MABU0@@Z ENDP			; operator*
_TEXT	ENDS
PUBLIC	??9D3DXVECTOR3@@QBEHABU0@@Z			; D3DXVECTOR3::operator!=
; Function compile flags: /Ogsp
;	COMDAT ??9D3DXVECTOR3@@QBEHABU0@@Z
_TEXT	SEGMENT
_v$ = 8							; size = 4
??9D3DXVECTOR3@@QBEHABU0@@Z PROC			; D3DXVECTOR3::operator!=, COMDAT
; _this$ = ecx

; 419  : {

  00000	55		 push	 ebp
  00001	8b ec		 mov	 ebp, esp

; 420  :     return x != v.x || y != v.y || z != v.z;

  00003	8b 55 08	 mov	 edx, DWORD PTR _v$[ebp]
  00006	f3 0f 10 01	 movss	 xmm0, DWORD PTR [ecx]
  0000a	f3 0f 10 0a	 movss	 xmm1, DWORD PTR [edx]
  0000e	0f 5a c0	 cvtps2pd xmm0, xmm0
  00011	0f 5a c9	 cvtps2pd xmm1, xmm1
  00014	66 0f 2e c1	 ucomisd xmm0, xmm1
  00018	9f		 lahf
  00019	f6 c4 44	 test	 ah, 68			; 00000044H
  0001c	7a 38		 jp	 SHORT $LN3@operator
  0001e	f3 0f 10 41 04	 movss	 xmm0, DWORD PTR [ecx+4]
  00023	f3 0f 10 4a 04	 movss	 xmm1, DWORD PTR [edx+4]
  00028	0f 5a c0	 cvtps2pd xmm0, xmm0
  0002b	0f 5a c9	 cvtps2pd xmm1, xmm1
  0002e	66 0f 2e c1	 ucomisd xmm0, xmm1
  00032	9f		 lahf
  00033	f6 c4 44	 test	 ah, 68			; 00000044H
  00036	7a 1e		 jp	 SHORT $LN3@operator
  00038	f3 0f 10 41 08	 movss	 xmm0, DWORD PTR [ecx+8]
  0003d	f3 0f 10 4a 08	 movss	 xmm1, DWORD PTR [edx+8]
  00042	0f 5a c0	 cvtps2pd xmm0, xmm0
  00045	0f 5a c9	 cvtps2pd xmm1, xmm1
  00048	66 0f 2e c1	 ucomisd xmm0, xmm1
  0004c	9f		 lahf
  0004d	f6 c4 44	 test	 ah, 68			; 00000044H
  00050	7a 04		 jp	 SHORT $LN3@operator
  00052	33 c0		 xor	 eax, eax
  00054	eb 03		 jmp	 SHORT $LN4@operator
$LN3@operator:
  00056	33 c0		 xor	 eax, eax
  00058	40		 inc	 eax
$LN4@operator:

; 421  : }

  00059	5d		 pop	 ebp
  0005a	c2 04 00	 ret	 4
??9D3DXVECTOR3@@QBEHABU0@@Z ENDP			; D3DXVECTOR3::operator!=
_TEXT	ENDS
PUBLIC	?D3DXVec3Length@@YAMPBUD3DXVECTOR3@@@Z		; D3DXVec3Length
; Function compile flags: /Ogsp
;	COMDAT ?D3DXVec3Length@@YAMPBUD3DXVECTOR3@@@Z
_TEXT	SEGMENT
tv169 = 8						; size = 4
tv160 = 8						; size = 4
_pV$ = 8						; size = 4
?D3DXVec3Length@@YAMPBUD3DXVECTOR3@@@Z PROC		; D3DXVec3Length, COMDAT

; 1710 : {

  00000	55		 push	 ebp
  00001	8b ec		 mov	 ebp, esp

; 1711 : #ifdef D3DX_DEBUG
; 1712 :     if(!pV)
; 1713 :         return 0.0f;
; 1714 : #endif
; 1715 : 
; 1716 : #ifdef __cplusplus
; 1717 :     return sqrtf(pV->x * pV->x + pV->y * pV->y + pV->z * pV->z);

  00003	8b 45 08	 mov	 eax, DWORD PTR _pV$[ebp]
  00006	d9 40 04	 fld	 DWORD PTR [eax+4]
  00009	d9 00		 fld	 DWORD PTR [eax]
  0000b	d9 40 08	 fld	 DWORD PTR [eax+8]
  0000e	d9 c1		 fld	 ST(1)
  00010	de ca		 fmulp	 ST(2), ST(0)
  00012	d9 c2		 fld	 ST(2)
  00014	de cb		 fmulp	 ST(3), ST(0)
  00016	d9 c9		 fxch	 ST(1)
  00018	de c2		 faddp	 ST(2), ST(0)
  0001a	d9 c0		 fld	 ST(0)
  0001c	de c9		 fmulp	 ST(1), ST(0)
  0001e	de c1		 faddp	 ST(1), ST(0)
  00020	d9 5d 08	 fstp	 DWORD PTR tv169[ebp]
  00023	d9 45 08	 fld	 DWORD PTR tv169[ebp]
  00026	e8 00 00 00 00	 call	 __CIsqrt
  0002b	d9 5d 08	 fstp	 DWORD PTR tv160[ebp]
  0002e	d9 45 08	 fld	 DWORD PTR tv160[ebp]

; 1718 : #else
; 1719 :     return (FLOAT) sqrt(pV->x * pV->x + pV->y * pV->y + pV->z * pV->z);
; 1720 : #endif
; 1721 : }

  00031	5d		 pop	 ebp
  00032	c3		 ret	 0
?D3DXVec3Length@@YAMPBUD3DXVECTOR3@@@Z ENDP		; D3DXVec3Length
_TEXT	ENDS
PUBLIC	?D3DXVec3Dot@@YAMPBUD3DXVECTOR3@@0@Z		; D3DXVec3Dot
; Function compile flags: /Ogsp
;	COMDAT ?D3DXVec3Dot@@YAMPBUD3DXVECTOR3@@0@Z
_TEXT	SEGMENT
tv188 = 8						; size = 4
_pV1$ = 8						; size = 4
_pV2$ = 12						; size = 4
?D3DXVec3Dot@@YAMPBUD3DXVECTOR3@@0@Z PROC		; D3DXVec3Dot, COMDAT

; 1736 : {

  00000	55		 push	 ebp
  00001	8b ec		 mov	 ebp, esp

; 1737 : #ifdef D3DX_DEBUG
; 1738 :     if(!pV1 || !pV2)
; 1739 :         return 0.0f;
; 1740 : #endif
; 1741 : 
; 1742 :     return pV1->x * pV2->x + pV1->y * pV2->y + pV1->z * pV2->z;

  00003	8b 45 08	 mov	 eax, DWORD PTR _pV1$[ebp]
  00006	8b 4d 0c	 mov	 ecx, DWORD PTR _pV2$[ebp]
  00009	d9 40 04	 fld	 DWORD PTR [eax+4]
  0000c	d8 49 04	 fmul	 DWORD PTR [ecx+4]
  0000f	d9 00		 fld	 DWORD PTR [eax]
  00011	d8 09		 fmul	 DWORD PTR [ecx]
  00013	de c1		 faddp	 ST(1), ST(0)
  00015	d9 40 08	 fld	 DWORD PTR [eax+8]
  00018	d8 49 08	 fmul	 DWORD PTR [ecx+8]
  0001b	de c1		 faddp	 ST(1), ST(0)
  0001d	d9 5d 08	 fstp	 DWORD PTR tv188[ebp]
  00020	d9 45 08	 fld	 DWORD PTR tv188[ebp]

; 1743 : }

  00023	5d		 pop	 ebp
  00024	c3		 ret	 0
?D3DXVec3Dot@@YAMPBUD3DXVECTOR3@@0@Z ENDP		; D3DXVec3Dot
_TEXT	ENDS
PUBLIC	?D3DXVec3Cross@@YAPAUD3DXVECTOR3@@PAU1@PBU1@1@Z	; D3DXVec3Cross
; Function compile flags: /Ogsp
;	COMDAT ?D3DXVec3Cross@@YAPAUD3DXVECTOR3@@PAU1@PBU1@1@Z
_TEXT	SEGMENT
_v$ = -12						; size = 12
_pOut$ = 8						; size = 4
_pV1$ = 12						; size = 4
_pV2$ = 16						; size = 4
?D3DXVec3Cross@@YAPAUD3DXVECTOR3@@PAU1@PBU1@1@Z PROC	; D3DXVec3Cross, COMDAT

; 1747 : {

  00000	55		 push	 ebp
  00001	8b ec		 mov	 ebp, esp
  00003	83 ec 0c	 sub	 esp, 12			; 0000000cH

; 1757 :     v.z = pV1->x * pV2->y - pV1->y * pV2->x;
; 1758 : 
; 1759 :     *pOut = v;

  00006	56		 push	 esi
  00007	57		 push	 edi

; 1748 :     D3DXVECTOR3 v;
; 1749 : 
; 1750 : #ifdef D3DX_DEBUG
; 1751 :     if(!pOut || !pV1 || !pV2)
; 1752 :         return NULL;
; 1753 : #endif
; 1754 : 
; 1755 :     v.x = pV1->y * pV2->z - pV1->z * pV2->y;

  00008	8b 45 0c	 mov	 eax, DWORD PTR _pV1$[ebp]
  0000b	f3 0f 10 40 04	 movss	 xmm0, DWORD PTR [eax+4]
  00010	f3 0f 10 50 08	 movss	 xmm2, DWORD PTR [eax+8]
  00015	8b 4d 10	 mov	 ecx, DWORD PTR _pV2$[ebp]
  00018	f3 0f 10 49 08	 movss	 xmm1, DWORD PTR [ecx+8]
  0001d	f3 0f 10 59 04	 movss	 xmm3, DWORD PTR [ecx+4]
  00022	0f 5a e8	 cvtps2pd xmm5, xmm0
  00025	0f 5a e1	 cvtps2pd xmm4, xmm1
  00028	0f 5a f2	 cvtps2pd xmm6, xmm2
  0002b	f2 0f 59 e5	 mulsd	 xmm4, xmm5

; 1756 :     v.y = pV1->z * pV2->x - pV1->x * pV2->z;

  0002f	0f 5a d2	 cvtps2pd xmm2, xmm2
  00032	0f 5a c9	 cvtps2pd xmm1, xmm1
  00035	0f 5a eb	 cvtps2pd xmm5, xmm3
  00038	f2 0f 59 ee	 mulsd	 xmm5, xmm6
  0003c	f2 0f 5c e5	 subsd	 xmm4, xmm5
  00040	f3 0f 10 28	 movss	 xmm5, DWORD PTR [eax]

; 1757 :     v.z = pV1->x * pV2->y - pV1->y * pV2->x;
; 1758 : 
; 1759 :     *pOut = v;

  00044	8b 45 08	 mov	 eax, DWORD PTR _pOut$[ebp]
  00047	66 0f 5a e4	 cvtpd2ps xmm4, xmm4
  0004b	f3 0f 11 65 f4	 movss	 DWORD PTR _v$[ebp], xmm4
  00050	f3 0f 10 21	 movss	 xmm4, DWORD PTR [ecx]
  00054	0f 5a f4	 cvtps2pd xmm6, xmm4
  00057	f2 0f 59 f2	 mulsd	 xmm6, xmm2
  0005b	0f 5a d5	 cvtps2pd xmm2, xmm5
  0005e	f2 0f 59 d1	 mulsd	 xmm2, xmm1
  00062	f2 0f 5c f2	 subsd	 xmm6, xmm2
  00066	66 0f 5a ce	 cvtpd2ps xmm1, xmm6
  0006a	f3 0f 11 4d f8	 movss	 DWORD PTR _v$[ebp+4], xmm1
  0006f	0f 5a c0	 cvtps2pd xmm0, xmm0
  00072	0f 5a d3	 cvtps2pd xmm2, xmm3
  00075	0f 5a cd	 cvtps2pd xmm1, xmm5
  00078	f2 0f 59 ca	 mulsd	 xmm1, xmm2
  0007c	8d 75 f4	 lea	 esi, DWORD PTR _v$[ebp]
  0007f	8b f8		 mov	 edi, eax
  00081	0f 5a d4	 cvtps2pd xmm2, xmm4
  00084	f2 0f 59 d0	 mulsd	 xmm2, xmm0
  00088	f2 0f 5c ca	 subsd	 xmm1, xmm2
  0008c	66 0f 5a c1	 cvtpd2ps xmm0, xmm1
  00090	f3 0f 11 45 fc	 movss	 DWORD PTR _v$[ebp+8], xmm0
  00095	a5		 movsd
  00096	a5		 movsd
  00097	a5		 movsd
  00098	5f		 pop	 edi
  00099	5e		 pop	 esi

; 1760 :     return pOut;
; 1761 : }

  0009a	c9		 leave
  0009b	c3		 ret	 0
?D3DXVec3Cross@@YAPAUD3DXVECTOR3@@PAU1@PBU1@1@Z ENDP	; D3DXVec3Cross
_TEXT	ENDS
PUBLIC	?_DECSTR@@YAXPADH@Z				; _DECSTR
; Function compile flags: /Ogsp
; File d:\lost saga for developer\youtube\tutorial\source\src\lsclient\stringprotect.h
;	COMDAT ?_DECSTR@@YAXPADH@Z
_TEXT	SEGMENT
_s$ = 8							; size = 4
_l$ = 12						; size = 4
?_DECSTR@@YAXPADH@Z PROC				; _DECSTR, COMDAT

; 40   : __forceinline void _DECSTR(char* s, int l){int i=0,l4=(l-1)/4,*p=(int*)s;s[l-1]=0;for(;i<l4;++i)*(p++)^=0xEAEBECED;for(i=l4*4;i<l-1;++i)s[i]^=0xED-i%4;}

  00000	55		 push	 ebp
  00001	8b ec		 mov	 ebp, esp
  00003	8b 4d 0c	 mov	 ecx, DWORD PTR _l$[ebp]
  00006	56		 push	 esi
  00007	8b 75 08	 mov	 esi, DWORD PTR _s$[ebp]
  0000a	57		 push	 edi
  0000b	8d 79 ff	 lea	 edi, DWORD PTR [ecx-1]
  0000e	8b c7		 mov	 eax, edi
  00010	99		 cdq
  00011	83 e2 03	 and	 edx, 3
  00014	03 c2		 add	 eax, edx
  00016	c1 f8 02	 sar	 eax, 2
  00019	8b d6		 mov	 edx, esi
  0001b	c6 44 0e ff 00	 mov	 BYTE PTR [esi+ecx-1], 0
  00020	85 c0		 test	 eax, eax
  00022	7e 0e		 jle	 SHORT $LN4@DECSTR
  00024	8b c8		 mov	 ecx, eax
$LL6@DECSTR:
  00026	81 32 ed ec eb
	ea		 xor	 DWORD PTR [edx], -353637139 ; eaebecedH
  0002c	83 c2 04	 add	 edx, 4
  0002f	49		 dec	 ecx
  00030	75 f4		 jne	 SHORT $LL6@DECSTR
$LN4@DECSTR:
  00032	c1 e0 02	 shl	 eax, 2
  00035	eb 17		 jmp	 SHORT $LN14@DECSTR
$LL3@DECSTR:
  00037	8b c8		 mov	 ecx, eax
  00039	81 e1 03 00 00
	80		 and	 ecx, -2147483645	; 80000003H
  0003f	79 05		 jns	 SHORT $LN13@DECSTR
  00041	49		 dec	 ecx
  00042	83 c9 fc	 or	 ecx, -4			; fffffffcH
  00045	41		 inc	 ecx
$LN13@DECSTR:
  00046	b2 ed		 mov	 dl, -19			; ffffffedH
  00048	2a d1		 sub	 dl, cl
  0004a	30 14 30	 xor	 BYTE PTR [eax+esi], dl
  0004d	40		 inc	 eax
$LN14@DECSTR:
  0004e	3b c7		 cmp	 eax, edi
  00050	7c e5		 jl	 SHORT $LL3@DECSTR
  00052	5f		 pop	 edi
  00053	5e		 pop	 esi
  00054	5d		 pop	 ebp
  00055	c3		 ret	 0
?_DECSTR@@YAXPADH@Z ENDP				; _DECSTR
_TEXT	ENDS
PUBLIC	?GetGroup@ioGameEntity@@QBEPAVioEntityGroup@@XZ	; ioGameEntity::GetGroup
; Function compile flags: /Ogsp
; File d:\lost saga for developer\youtube\tutorial\source\src\lsclient\iogameentity.h
;	COMDAT ?GetGroup@ioGameEntity@@QBEPAVioEntityGroup@@XZ
_TEXT	SEGMENT
?GetGroup@ioGameEntity@@QBEPAVioEntityGroup@@XZ PROC	; ioGameEntity::GetGroup, COMDAT
; _this$ = ecx

; 166  : 	inline ioEntityGroup* GetGroup() const { return m_pGroup; }

  00000	8b 41 04	 mov	 eax, DWORD PTR [ecx+4]
  00003	c3		 ret	 0
?GetGroup@ioGameEntity@@QBEPAVioEntityGroup@@XZ ENDP	; ioGameEntity::GetGroup
_TEXT	ENDS
PUBLIC	??_R0?AVioGameEntity@@@8			; ioGameEntity `RTTI Type Descriptor'
PUBLIC	??_R0?AVioPlayEntity@@@8			; ioPlayEntity `RTTI Type Descriptor'
PUBLIC	?ToPlayEntity@@YAPAVioPlayEntity@@PAVioGameEntity@@@Z ; ToPlayEntity
EXTRN	___RTDynamicCast:PROC
;	COMDAT ??_R0?AVioGameEntity@@@8
; File d:\lost saga for developer\youtube\tutorial\source\src\lsclient\ioplayentity.h
_DATA	SEGMENT
??_R0?AVioGameEntity@@@8 DD FLAT:??_7type_info@@6B@	; ioGameEntity `RTTI Type Descriptor'
	DD	00H
	DB	'.?AVioGameEntity@@', 00H
_DATA	ENDS
;	COMDAT ??_R0?AVioPlayEntity@@@8
_DATA	SEGMENT
??_R0?AVioPlayEntity@@@8 DD FLAT:??_7type_info@@6B@	; ioPlayEntity `RTTI Type Descriptor'
	DD	00H
	DB	'.?AVioPlayEntity@@', 00H
; Function compile flags: /Ogsp
_DATA	ENDS
;	COMDAT ?ToPlayEntity@@YAPAVioPlayEntity@@PAVioGameEntity@@@Z
_TEXT	SEGMENT
_pObj$ = 8						; size = 4
?ToPlayEntity@@YAPAVioPlayEntity@@PAVioGameEntity@@@Z PROC ; ToPlayEntity, COMDAT

; 121  : {

  00000	55		 push	 ebp
  00001	8b ec		 mov	 ebp, esp
  00003	56		 push	 esi

; 122  : 	if( !pObj || pObj->GetTypeID() != ioGameEntity::GET_PLAY_ENTITY )

  00004	8b 75 08	 mov	 esi, DWORD PTR _pObj$[ebp]
  00007	85 f6		 test	 esi, esi
  00009	74 25		 je	 SHORT $LN1@ToPlayEnti
  0000b	8b 06		 mov	 eax, DWORD PTR [esi]
  0000d	8b ce		 mov	 ecx, esi
  0000f	ff 50 10	 call	 DWORD PTR [eax+16]
  00012	83 f8 01	 cmp	 eax, 1
  00015	75 19		 jne	 SHORT $LN1@ToPlayEnti

; 124  : 
; 125  : 	return dynamic_cast< ioPlayEntity* >( pObj );

  00017	6a 00		 push	 0
  00019	68 00 00 00 00	 push	 OFFSET ??_R0?AVioPlayEntity@@@8
  0001e	68 00 00 00 00	 push	 OFFSET ??_R0?AVioGameEntity@@@8
  00023	6a 00		 push	 0
  00025	56		 push	 esi
  00026	e8 00 00 00 00	 call	 ___RTDynamicCast
  0002b	83 c4 14	 add	 esp, 20			; 00000014H
  0002e	eb 02		 jmp	 SHORT $LN3@ToPlayEnti
$LN1@ToPlayEnti:

; 123  : 		return NULL;

  00030	33 c0		 xor	 eax, eax
$LN3@ToPlayEnti:
  00032	5e		 pop	 esi

; 126  : }

  00033	5d		 pop	 ebp
  00034	c3		 ret	 0
?ToPlayEntity@@YAPAVioPlayEntity@@PAVioGameEntity@@@Z ENDP ; ToPlayEntity
_TEXT	ENDS
PUBLIC	??_R0?AVioDummyChar@@@8				; ioDummyChar `RTTI Type Descriptor'
PUBLIC	?ToDummyChar@@YAPAVioDummyChar@@PAVioGameEntity@@@Z ; ToDummyChar
;	COMDAT ??_R0?AVioDummyChar@@@8
; File d:\lost saga for developer\youtube\tutorial\source\src\lsclient\iodummychar.h
_DATA	SEGMENT
??_R0?AVioDummyChar@@@8 DD FLAT:??_7type_info@@6B@	; ioDummyChar `RTTI Type Descriptor'
	DD	00H
	DB	'.?AVioDummyChar@@', 00H
; Function compile flags: /Ogsp
_DATA	ENDS
;	COMDAT ?ToDummyChar@@YAPAVioDummyChar@@PAVioGameEntity@@@Z
_TEXT	SEGMENT
_pObj$ = 8						; size = 4
?ToDummyChar@@YAPAVioDummyChar@@PAVioGameEntity@@@Z PROC ; ToDummyChar, COMDAT

; 758  : {

  00000	55		 push	 ebp
  00001	8b ec		 mov	 ebp, esp
  00003	56		 push	 esi

; 759  : 	ioPlayEntity *pPlay = ToPlayEntity( pObj );

  00004	ff 75 08	 push	 DWORD PTR _pObj$[ebp]
  00007	e8 00 00 00 00	 call	 ?ToPlayEntity@@YAPAVioPlayEntity@@PAVioGameEntity@@@Z ; ToPlayEntity
  0000c	8b f0		 mov	 esi, eax
  0000e	59		 pop	 ecx

; 760  : 	if( !pPlay || pPlay->GetSubType() != ioPlayEntity::PST_DUMMY_CHAR )

  0000f	85 f6		 test	 esi, esi
  00011	74 28		 je	 SHORT $LN1@ToDummyCha
  00013	8b 06		 mov	 eax, DWORD PTR [esi]
  00015	8b ce		 mov	 ecx, esi
  00017	ff 90 a4 00 00
	00		 call	 DWORD PTR [eax+164]
  0001d	83 f8 0a	 cmp	 eax, 10			; 0000000aH
  00020	75 19		 jne	 SHORT $LN1@ToDummyCha

; 762  : 
; 763  : 	return dynamic_cast< ioDummyChar* >( pPlay );

  00022	6a 00		 push	 0
  00024	68 00 00 00 00	 push	 OFFSET ??_R0?AVioDummyChar@@@8
  00029	68 00 00 00 00	 push	 OFFSET ??_R0?AVioPlayEntity@@@8
  0002e	6a 00		 push	 0
  00030	56		 push	 esi
  00031	e8 00 00 00 00	 call	 ___RTDynamicCast
  00036	83 c4 14	 add	 esp, 20			; 00000014H
  00039	eb 02		 jmp	 SHORT $LN3@ToDummyCha
$LN1@ToDummyCha:

; 761  : 		return NULL;

  0003b	33 c0		 xor	 eax, eax
$LN3@ToDummyCha:
  0003d	5e		 pop	 esi

; 764  : }

  0003e	5d		 pop	 ebp
  0003f	c3		 ret	 0
?ToDummyChar@@YAPAVioDummyChar@@PAVioGameEntity@@@Z ENDP ; ToDummyChar
_TEXT	ENDS
PUBLIC	?GetOwnerName@ioWeapon@@QBEABVioHashString@@XZ	; ioWeapon::GetOwnerName
; Function compile flags: /Ogsp
; File d:\lost saga for developer\youtube\tutorial\source\src\lsclient\ioweapon.h
;	COMDAT ?GetOwnerName@ioWeapon@@QBEABVioHashString@@XZ
_TEXT	SEGMENT
?GetOwnerName@ioWeapon@@QBEABVioHashString@@XZ PROC	; ioWeapon::GetOwnerName, COMDAT
; _this$ = ecx

; 636  : 	inline const ioHashString& GetOwnerName() const { return m_OwnerName; }

  00000	8d 41 10	 lea	 eax, DWORD PTR [ecx+16]
  00003	c3		 ret	 0
?GetOwnerName@ioWeapon@@QBEABVioHashString@@XZ ENDP	; ioWeapon::GetOwnerName
_TEXT	ENDS
PUBLIC	?GetParentSceneNode@ioWeapon@@QBEPAVioSceneNode@@XZ ; ioWeapon::GetParentSceneNode
; Function compile flags: /Ogsp
;	COMDAT ?GetParentSceneNode@ioWeapon@@QBEPAVioSceneNode@@XZ
_TEXT	SEGMENT
?GetParentSceneNode@ioWeapon@@QBEPAVioSceneNode@@XZ PROC ; ioWeapon::GetParentSceneNode, COMDAT
; _this$ = ecx

; 797  : 	ioSceneNode* GetParentSceneNode() const { return m_pSceneNode; }

  00000	8b 41 04	 mov	 eax, DWORD PTR [ecx+4]
  00003	c3		 ret	 0
?GetParentSceneNode@ioWeapon@@QBEPAVioSceneNode@@XZ ENDP ; ioWeapon::GetParentSceneNode
_TEXT	ENDS
PUBLIC	??_R0?AVioWallZone@@@8				; ioWallZone `RTTI Type Descriptor'
PUBLIC	?ToWallZone@@YAPAVioWallZone@@PAVioGameEntity@@@Z ; ToWallZone
;	COMDAT ??_R0?AVioWallZone@@@8
; File d:\lost saga for developer\youtube\tutorial\source\src\lsclient\iowallzone.h
_DATA	SEGMENT
??_R0?AVioWallZone@@@8 DD FLAT:??_7type_info@@6B@	; ioWallZone `RTTI Type Descriptor'
	DD	00H
	DB	'.?AVioWallZone@@', 00H
; Function compile flags: /Ogsp
_DATA	ENDS
;	COMDAT ?ToWallZone@@YAPAVioWallZone@@PAVioGameEntity@@@Z
_TEXT	SEGMENT
_pObj$ = 8						; size = 4
?ToWallZone@@YAPAVioWallZone@@PAVioGameEntity@@@Z PROC	; ToWallZone, COMDAT

; 50   : {

  00000	55		 push	 ebp
  00001	8b ec		 mov	 ebp, esp
  00003	56		 push	 esi

; 51   : 	ioPlayEntity *pPlay = ToPlayEntity( pObj );

  00004	ff 75 08	 push	 DWORD PTR _pObj$[ebp]
  00007	e8 00 00 00 00	 call	 ?ToPlayEntity@@YAPAVioPlayEntity@@PAVioGameEntity@@@Z ; ToPlayEntity
  0000c	8b f0		 mov	 esi, eax
  0000e	59		 pop	 ecx

; 52   : 	if( !pPlay || pPlay->GetSubType() != ioPlayEntity::PST_WALL_ZONE )

  0000f	85 f6		 test	 esi, esi
  00011	74 28		 je	 SHORT $LN1@ToWallZone
  00013	8b 06		 mov	 eax, DWORD PTR [esi]
  00015	8b ce		 mov	 ecx, esi
  00017	ff 90 a4 00 00
	00		 call	 DWORD PTR [eax+164]
  0001d	83 f8 0b	 cmp	 eax, 11			; 0000000bH
  00020	75 19		 jne	 SHORT $LN1@ToWallZone

; 54   : 
; 55   : 	return dynamic_cast< ioWallZone* >( pPlay );

  00022	6a 00		 push	 0
  00024	68 00 00 00 00	 push	 OFFSET ??_R0?AVioWallZone@@@8
  00029	68 00 00 00 00	 push	 OFFSET ??_R0?AVioPlayEntity@@@8
  0002e	6a 00		 push	 0
  00030	56		 push	 esi
  00031	e8 00 00 00 00	 call	 ___RTDynamicCast
  00036	83 c4 14	 add	 esp, 20			; 00000014H
  00039	eb 02		 jmp	 SHORT $LN3@ToWallZone
$LN1@ToWallZone:

; 53   : 		return NULL;

  0003b	33 c0		 xor	 eax, eax
$LN3@ToWallZone:
  0003d	5e		 pop	 esi

; 56   : }

  0003e	5d		 pop	 ebp
  0003f	c3		 ret	 0
?ToWallZone@@YAPAVioWallZone@@PAVioGameEntity@@@Z ENDP	; ToWallZone
_TEXT	ENDS
PUBLIC	??_R0?AVioSymbolStruct@@@8			; ioSymbolStruct `RTTI Type Descriptor'
PUBLIC	?ToSymbolStruct@@YAPAVioSymbolStruct@@PAVioGameEntity@@@Z ; ToSymbolStruct
;	COMDAT ??_R0?AVioSymbolStruct@@@8
; File d:\lost saga for developer\youtube\tutorial\source\src\lsclient\iosymbolstruct.h
_DATA	SEGMENT
??_R0?AVioSymbolStruct@@@8 DD FLAT:??_7type_info@@6B@	; ioSymbolStruct `RTTI Type Descriptor'
	DD	00H
	DB	'.?AVioSymbolStruct@@', 00H
; Function compile flags: /Ogsp
_DATA	ENDS
;	COMDAT ?ToSymbolStruct@@YAPAVioSymbolStruct@@PAVioGameEntity@@@Z
_TEXT	SEGMENT
_pObj$ = 8						; size = 4
?ToSymbolStruct@@YAPAVioSymbolStruct@@PAVioGameEntity@@@Z PROC ; ToSymbolStruct, COMDAT

; 171  : {

  00000	55		 push	 ebp
  00001	8b ec		 mov	 ebp, esp
  00003	56		 push	 esi

; 172  : 	ioPlayEntity *pPlay = ToPlayEntity( pObj );

  00004	ff 75 08	 push	 DWORD PTR _pObj$[ebp]
  00007	e8 00 00 00 00	 call	 ?ToPlayEntity@@YAPAVioPlayEntity@@PAVioGameEntity@@@Z ; ToPlayEntity
  0000c	8b f0		 mov	 esi, eax
  0000e	59		 pop	 ecx

; 173  : 	if( !pPlay || pPlay->GetSubType() != ioPlayEntity::PST_SYMBOL )

  0000f	85 f6		 test	 esi, esi
  00011	74 28		 je	 SHORT $LN1@ToSymbolSt
  00013	8b 06		 mov	 eax, DWORD PTR [esi]
  00015	8b ce		 mov	 ecx, esi
  00017	ff 90 a4 00 00
	00		 call	 DWORD PTR [eax+164]
  0001d	83 f8 01	 cmp	 eax, 1
  00020	75 19		 jne	 SHORT $LN1@ToSymbolSt

; 175  : 
; 176  : 	return dynamic_cast< ioSymbolStruct* >( pPlay );

  00022	6a 00		 push	 0
  00024	68 00 00 00 00	 push	 OFFSET ??_R0?AVioSymbolStruct@@@8
  00029	68 00 00 00 00	 push	 OFFSET ??_R0?AVioPlayEntity@@@8
  0002e	6a 00		 push	 0
  00030	56		 push	 esi
  00031	e8 00 00 00 00	 call	 ___RTDynamicCast
  00036	83 c4 14	 add	 esp, 20			; 00000014H
  00039	eb 02		 jmp	 SHORT $LN3@ToSymbolSt
$LN1@ToSymbolSt:

; 174  : 		return NULL;

  0003b	33 c0		 xor	 eax, eax
$LN3@ToSymbolSt:
  0003d	5e		 pop	 esi

; 177  : }

  0003e	5d		 pop	 ebp
  0003f	c3		 ret	 0
?ToSymbolStruct@@YAPAVioSymbolStruct@@PAVioGameEntity@@@Z ENDP ; ToSymbolStruct
_TEXT	ENDS
PUBLIC	??_R0?AVioBall@@@8				; ioBall `RTTI Type Descriptor'
PUBLIC	?ToBallStruct@@YAPAVioBall@@PAVioGameEntity@@@Z	; ToBallStruct
;	COMDAT ??_R0?AVioBall@@@8
; File d:\lost saga for developer\youtube\tutorial\source\src\lsclient\ioball.h
_DATA	SEGMENT
??_R0?AVioBall@@@8 DD FLAT:??_7type_info@@6B@		; ioBall `RTTI Type Descriptor'
	DD	00H
	DB	'.?AVioBall@@', 00H
; Function compile flags: /Ogsp
_DATA	ENDS
;	COMDAT ?ToBallStruct@@YAPAVioBall@@PAVioGameEntity@@@Z
_TEXT	SEGMENT
_pObj$ = 8						; size = 4
?ToBallStruct@@YAPAVioBall@@PAVioGameEntity@@@Z PROC	; ToBallStruct, COMDAT

; 252  : {

  00000	55		 push	 ebp
  00001	8b ec		 mov	 ebp, esp
  00003	56		 push	 esi

; 253  : 	ioPlayEntity *pPlay = ToPlayEntity( pObj );

  00004	ff 75 08	 push	 DWORD PTR _pObj$[ebp]
  00007	e8 00 00 00 00	 call	 ?ToPlayEntity@@YAPAVioPlayEntity@@PAVioGameEntity@@@Z ; ToPlayEntity
  0000c	8b f0		 mov	 esi, eax
  0000e	59		 pop	 ecx

; 254  : 	if( !pPlay || pPlay->GetSubType() != ioPlayEntity::PST_BALL )

  0000f	85 f6		 test	 esi, esi
  00011	74 28		 je	 SHORT $LN1@ToBallStru
  00013	8b 06		 mov	 eax, DWORD PTR [esi]
  00015	8b ce		 mov	 ecx, esi
  00017	ff 90 a4 00 00
	00		 call	 DWORD PTR [eax+164]
  0001d	83 f8 08	 cmp	 eax, 8
  00020	75 19		 jne	 SHORT $LN1@ToBallStru

; 256  : 
; 257  : 	return dynamic_cast< ioBall* >( pPlay );

  00022	6a 00		 push	 0
  00024	68 00 00 00 00	 push	 OFFSET ??_R0?AVioBall@@@8
  00029	68 00 00 00 00	 push	 OFFSET ??_R0?AVioPlayEntity@@@8
  0002e	6a 00		 push	 0
  00030	56		 push	 esi
  00031	e8 00 00 00 00	 call	 ___RTDynamicCast
  00036	83 c4 14	 add	 esp, 20			; 00000014H
  00039	eb 02		 jmp	 SHORT $LN3@ToBallStru
$LN1@ToBallStru:

; 255  : 		return NULL;

  0003b	33 c0		 xor	 eax, eax
$LN3@ToBallStru:
  0003d	5e		 pop	 esi

; 258  : }

  0003e	5d		 pop	 ebp
  0003f	c3		 ret	 0
?ToBallStruct@@YAPAVioBall@@PAVioGameEntity@@@Z ENDP	; ToBallStruct
_TEXT	ENDS
PUBLIC	??_R0?AVioPushStruct@@@8			; ioPushStruct `RTTI Type Descriptor'
PUBLIC	?ToPushStruct@@YAPAVioPushStruct@@PAVioGameEntity@@@Z ; ToPushStruct
;	COMDAT ??_R0?AVioPushStruct@@@8
; File d:\lost saga for developer\youtube\tutorial\source\src\lsclient\iopushstruct.h
_DATA	SEGMENT
??_R0?AVioPushStruct@@@8 DD FLAT:??_7type_info@@6B@	; ioPushStruct `RTTI Type Descriptor'
	DD	00H
	DB	'.?AVioPushStruct@@', 00H
; Function compile flags: /Ogsp
_DATA	ENDS
;	COMDAT ?ToPushStruct@@YAPAVioPushStruct@@PAVioGameEntity@@@Z
_TEXT	SEGMENT
_pObj$ = 8						; size = 4
?ToPushStruct@@YAPAVioPushStruct@@PAVioGameEntity@@@Z PROC ; ToPushStruct, COMDAT

; 440  : {

  00000	55		 push	 ebp
  00001	8b ec		 mov	 ebp, esp
  00003	56		 push	 esi

; 441  : 	ioPlayEntity *pPlay = ToPlayEntity( pObj );

  00004	ff 75 08	 push	 DWORD PTR _pObj$[ebp]
  00007	e8 00 00 00 00	 call	 ?ToPlayEntity@@YAPAVioPlayEntity@@PAVioGameEntity@@@Z ; ToPlayEntity
  0000c	8b f0		 mov	 esi, eax
  0000e	59		 pop	 ecx

; 442  : 	if( !pPlay || pPlay->GetSubType() != ioPlayEntity::PST_PUSHSTRUCT )

  0000f	85 f6		 test	 esi, esi
  00011	74 28		 je	 SHORT $LN1@ToPushStru
  00013	8b 06		 mov	 eax, DWORD PTR [esi]
  00015	8b ce		 mov	 ecx, esi
  00017	ff 90 a4 00 00
	00		 call	 DWORD PTR [eax+164]
  0001d	83 f8 02	 cmp	 eax, 2
  00020	75 19		 jne	 SHORT $LN1@ToPushStru

; 444  : 
; 445  : 	return dynamic_cast< ioPushStruct* >( pPlay );

  00022	6a 00		 push	 0
  00024	68 00 00 00 00	 push	 OFFSET ??_R0?AVioPushStruct@@@8
  00029	68 00 00 00 00	 push	 OFFSET ??_R0?AVioPlayEntity@@@8
  0002e	6a 00		 push	 0
  00030	56		 push	 esi
  00031	e8 00 00 00 00	 call	 ___RTDynamicCast
  00036	83 c4 14	 add	 esp, 20			; 00000014H
  00039	eb 02		 jmp	 SHORT $LN3@ToPushStru
$LN1@ToPushStru:

; 443  : 		return NULL;

  0003b	33 c0		 xor	 eax, eax
$LN3@ToPushStru:
  0003d	5e		 pop	 esi

; 446  : }

  0003e	5d		 pop	 ebp
  0003f	c3		 ret	 0
?ToPushStruct@@YAPAVioPushStruct@@PAVioGameEntity@@@Z ENDP ; ToPushStruct
_TEXT	ENDS
PUBLIC	?_Myptr@?$basic_string@DU?$char_traits@D@std@@V?$allocator@D@2@@std@@QBEPBDXZ ; std::basic_string<char,std::char_traits<char>,std::allocator<char> >::_Myptr
; Function compile flags: /Ogsp
; File c:\program files (x86)\microsoft visual studio 10.0\vc\include\xstring
;	COMDAT ?_Myptr@?$basic_string@DU?$char_traits@D@std@@V?$allocator@D@2@@std@@QBEPBDXZ
_TEXT	SEGMENT
?_Myptr@?$basic_string@DU?$char_traits@D@std@@V?$allocator@D@2@@std@@QBEPBDXZ PROC ; std::basic_string<char,std::char_traits<char>,std::allocator<char> >::_Myptr, COMDAT
; _this$ = ecx

; 2010 : 		return (this->_BUF_SIZE <= this->_Myres ? this->_Bx._Ptr
; 2011 : 			: this->_Bx._Buf);

  00000	83 79 14 10	 cmp	 DWORD PTR [ecx+20], 16	; 00000010H
  00004	72 03		 jb	 SHORT $LN3@Myptr
  00006	8b 01		 mov	 eax, DWORD PTR [ecx]

; 2012 : 		}

  00008	c3		 ret	 0
$LN3@Myptr:

; 2010 : 		return (this->_BUF_SIZE <= this->_Myres ? this->_Bx._Ptr
; 2011 : 			: this->_Bx._Buf);

  00009	8b c1		 mov	 eax, ecx

; 2012 : 		}

  0000b	c3		 ret	 0
?_Myptr@?$basic_string@DU?$char_traits@D@std@@V?$allocator@D@2@@std@@QBEPBDXZ ENDP ; std::basic_string<char,std::char_traits<char>,std::allocator<char> >::_Myptr
_TEXT	ENDS
PUBLIC	??1?$_String_val@DV?$allocator@D@std@@@std@@QAE@XZ ; std::_String_val<char,std::allocator<char> >::~_String_val<char,std::allocator<char> >
; Function compile flags: /Ogsp
;	COMDAT ??1?$_String_val@DV?$allocator@D@std@@@std@@QAE@XZ
_TEXT	SEGMENT
??1?$_String_val@DV?$allocator@D@std@@@std@@QAE@XZ PROC	; std::_String_val<char,std::allocator<char> >::~_String_val<char,std::allocator<char> >, COMDAT
; _this$ = ecx

; 459  : 		}

  00000	c3		 ret	 0
??1?$_String_val@DV?$allocator@D@std@@@std@@QAE@XZ ENDP	; std::_String_val<char,std::allocator<char> >::~_String_val<char,std::allocator<char> >
_TEXT	ENDS
PUBLIC	?DecryptValueToPool@?$CEncrypt@W4TeamType@@@@QAEXPAW4TeamType@@@Z ; CEncrypt<enum TeamType>::DecryptValueToPool
EXTRN	?DecryptByte@ccddaabb@@QBEXPBDPADH@Z:PROC	; ccddaabb::DecryptByte
; Function compile flags: /Ogsp
; File d:\lost saga for developer\youtube\tutorial\source\src\lsclient\encryptvalue.h
;	COMDAT ?DecryptValueToPool@?$CEncrypt@W4TeamType@@@@QAEXPAW4TeamType@@@Z
_TEXT	SEGMENT
_value$ = 8						; size = 4
?DecryptValueToPool@?$CEncrypt@W4TeamType@@@@QAEXPAW4TeamType@@@Z PROC ; CEncrypt<enum TeamType>::DecryptValueToPool, COMDAT
; _this$ = ecx

; 2959 : 	{

  00000	55		 push	 ebp
  00001	8b ec		 mov	 ebp, esp
  00003	56		 push	 esi

; 2960 : 		m_RC5.DecryptByte( m_MemPool, m_TempMem, sizeof(TeamType) );

  00004	8d 71 28	 lea	 esi, DWORD PTR [ecx+40]
  00007	6a 04		 push	 4
  00009	8d 41 1c	 lea	 eax, DWORD PTR [ecx+28]
  0000c	56		 push	 esi
  0000d	50		 push	 eax
  0000e	83 c1 0c	 add	 ecx, 12			; 0000000cH
  00011	e8 00 00 00 00	 call	 ?DecryptByte@ccddaabb@@QBEXPBDPADH@Z ; ccddaabb::DecryptByte

; 2961 : 		*value = *((TeamType*)m_TempMem);

  00016	8b 06		 mov	 eax, DWORD PTR [esi]
  00018	8b 4d 08	 mov	 ecx, DWORD PTR _value$[ebp]
  0001b	89 01		 mov	 DWORD PTR [ecx], eax
  0001d	5e		 pop	 esi

; 2962 : 	}

  0001e	5d		 pop	 ebp
  0001f	c2 04 00	 ret	 4
?DecryptValueToPool@?$CEncrypt@W4TeamType@@@@QAEXPAW4TeamType@@@Z ENDP ; CEncrypt<enum TeamType>::DecryptValueToPool
_TEXT	ENDS
PUBLIC	?_Myptr@?$basic_string@DU?$char_traits@D@std@@V?$allocator@D@2@@std@@QAEPADXZ ; std::basic_string<char,std::char_traits<char>,std::allocator<char> >::_Myptr
; Function compile flags: /Ogsp
; File c:\program files (x86)\microsoft visual studio 10.0\vc\include\xstring
;	COMDAT ?_Myptr@?$basic_string@DU?$char_traits@D@std@@V?$allocator@D@2@@std@@QAEPADXZ
_TEXT	SEGMENT
?_Myptr@?$basic_string@DU?$char_traits@D@std@@V?$allocator@D@2@@std@@QAEPADXZ PROC ; std::basic_string<char,std::char_traits<char>,std::allocator<char> >::_Myptr, COMDAT
; _this$ = ecx

; 2004 : 		return (this->_BUF_SIZE <= this->_Myres ? this->_Bx._Ptr
; 2005 : 			: this->_Bx._Buf);

  00000	83 79 14 10	 cmp	 DWORD PTR [ecx+20], 16	; 00000010H
  00004	72 03		 jb	 SHORT $LN3@Myptr@2
  00006	8b 01		 mov	 eax, DWORD PTR [ecx]

; 2006 : 		}

  00008	c3		 ret	 0
$LN3@Myptr@2:

; 2004 : 		return (this->_BUF_SIZE <= this->_Myres ? this->_Bx._Ptr
; 2005 : 			: this->_Bx._Buf);

  00009	8b c1		 mov	 eax, ecx

; 2006 : 		}

  0000b	c3		 ret	 0
?_Myptr@?$basic_string@DU?$char_traits@D@std@@V?$allocator@D@2@@std@@QAEPADXZ ENDP ; std::basic_string<char,std::char_traits<char>,std::allocator<char> >::_Myptr
_TEXT	ENDS
PUBLIC	?deallocate@?$allocator@D@std@@QAEXPADI@Z	; std::allocator<char>::deallocate
EXTRN	??3@YAXPAX@Z:PROC				; operator delete
; Function compile flags: /Ogsp
; File c:\program files (x86)\microsoft visual studio 10.0\vc\include\xmemory
;	COMDAT ?deallocate@?$allocator@D@std@@QAEXPADI@Z
_TEXT	SEGMENT
__Ptr$ = 8						; size = 4
___formal$ = 12						; size = 4
?deallocate@?$allocator@D@std@@QAEXPADI@Z PROC		; std::allocator<char>::deallocate, COMDAT
; _this$ = ecx

; 181  : 		{	// deallocate object at _Ptr, ignore size

  00000	55		 push	 ebp
  00001	8b ec		 mov	 ebp, esp

; 182  : 		::operator delete(_Ptr);

  00003	ff 75 08	 push	 DWORD PTR __Ptr$[ebp]
  00006	e8 00 00 00 00	 call	 ??3@YAXPAX@Z		; operator delete
  0000b	59		 pop	 ecx

; 183  : 		}

  0000c	5d		 pop	 ebp
  0000d	c2 08 00	 ret	 8
?deallocate@?$allocator@D@std@@QAEXPADI@Z ENDP		; std::allocator<char>::deallocate
_TEXT	ENDS
PUBLIC	??_R0?AVioBaseChar@@@8				; ioBaseChar `RTTI Type Descriptor'
PUBLIC	?ToBaseChar@@YAPAVioBaseChar@@PAVioGameEntity@@@Z ; ToBaseChar
;	COMDAT ??_R0?AVioBaseChar@@@8
; File d:\lost saga for developer\youtube\tutorial\source\src\lsclient\iobasechar.h
_DATA	SEGMENT
??_R0?AVioBaseChar@@@8 DD FLAT:??_7type_info@@6B@	; ioBaseChar `RTTI Type Descriptor'
	DD	00H
	DB	'.?AVioBaseChar@@', 00H
; Function compile flags: /Ogsp
_DATA	ENDS
;	COMDAT ?ToBaseChar@@YAPAVioBaseChar@@PAVioGameEntity@@@Z
_TEXT	SEGMENT
_pObj$ = 8						; size = 4
?ToBaseChar@@YAPAVioBaseChar@@PAVioGameEntity@@@Z PROC	; ToBaseChar, COMDAT

; 4326 : {

  00000	55		 push	 ebp
  00001	8b ec		 mov	 ebp, esp
  00003	56		 push	 esi

; 4327 : 	ioPlayEntity *pPlay = ToPlayEntity( pObj );

  00004	ff 75 08	 push	 DWORD PTR _pObj$[ebp]
  00007	e8 00 00 00 00	 call	 ?ToPlayEntity@@YAPAVioPlayEntity@@PAVioGameEntity@@@Z ; ToPlayEntity
  0000c	8b f0		 mov	 esi, eax
  0000e	59		 pop	 ecx

; 4328 : 	if( !pPlay || pPlay->GetSubType() != ioPlayEntity::PST_CHAR )

  0000f	85 f6		 test	 esi, esi
  00011	74 25		 je	 SHORT $LN1@ToBaseChar
  00013	8b 06		 mov	 eax, DWORD PTR [esi]
  00015	8b ce		 mov	 ecx, esi
  00017	ff 90 a4 00 00
	00		 call	 DWORD PTR [eax+164]
  0001d	85 c0		 test	 eax, eax
  0001f	75 17		 jne	 SHORT $LN1@ToBaseChar

; 4330 : 
; 4331 : 	return dynamic_cast< ioBaseChar* >( pPlay );

  00021	50		 push	 eax
  00022	68 00 00 00 00	 push	 OFFSET ??_R0?AVioBaseChar@@@8
  00027	68 00 00 00 00	 push	 OFFSET ??_R0?AVioPlayEntity@@@8
  0002c	50		 push	 eax
  0002d	56		 push	 esi
  0002e	e8 00 00 00 00	 call	 ___RTDynamicCast
  00033	83 c4 14	 add	 esp, 20			; 00000014H
  00036	eb 02		 jmp	 SHORT $LN3@ToBaseChar
$LN1@ToBaseChar:

; 4329 : 		return NULL;

  00038	33 c0		 xor	 eax, eax
$LN3@ToBaseChar:
  0003a	5e		 pop	 esi

; 4332 : }

  0003b	5d		 pop	 ebp
  0003c	c3		 ret	 0
?ToBaseChar@@YAPAVioBaseChar@@PAVioGameEntity@@@Z ENDP	; ToBaseChar
_TEXT	ENDS
PUBLIC	??0ioControlReturnWeapon@@QAE@PAVioBaseChar@@PBUWeaponAttribute@@@Z ; ioControlReturnWeapon::ioControlReturnWeapon
EXTRN	?SetPeculiarity@ioWeapon@@QAEXK@Z:PROC		; ioWeapon::SetPeculiarity
EXTRN	__imp_??0ioOrientBox@@QAE@XZ:PROC
EXTRN	??0ioWeapon@@QAE@PAVioBaseChar@@PBUWeaponAttribute@@@Z:PROC ; ioWeapon::ioWeapon
;	COMDAT xdata$x
; File c:\program files (x86)\microsoft directx sdk (june 2010)\include\d3dx9math.inl
xdata$x	SEGMENT
__unwindtable$??0ioControlReturnWeapon@@QAE@PAVioBaseChar@@PBUWeaponAttribute@@@Z DD 0ffffffffH
	DD	FLAT:__unwindfunclet$??0ioControlReturnWeapon@@QAE@PAVioBaseChar@@PBUWeaponAttribute@@@Z$0
	DD	00H
	DD	FLAT:__unwindfunclet$??0ioControlReturnWeapon@@QAE@PAVioBaseChar@@PBUWeaponAttribute@@@Z$1
__ehfuncinfo$??0ioControlReturnWeapon@@QAE@PAVioBaseChar@@PBUWeaponAttribute@@@Z DD 019930522H
	DD	02H
	DD	FLAT:__unwindtable$??0ioControlReturnWeapon@@QAE@PAVioBaseChar@@PBUWeaponAttribute@@@Z
	DD	2 DUP(00H)
	DD	2 DUP(00H)
	DD	00H
	DD	01H
; Function compile flags: /Ogsp
; File d:\lost saga for developer\youtube\tutorial\source\src\lsclient\iocontrolreturnweapon.cpp
xdata$x	ENDS
;	COMDAT ??0ioControlReturnWeapon@@QAE@PAVioBaseChar@@PBUWeaponAttribute@@@Z
_TEXT	SEGMENT
$T530562 = -28						; size = 12
_this$ = -16						; size = 4
__$EHRec$ = -12						; size = 12
_pOwner$ = 8						; size = 4
_pAttr$ = 12						; size = 4
??0ioControlReturnWeapon@@QAE@PAVioBaseChar@@PBUWeaponAttribute@@@Z PROC ; ioControlReturnWeapon::ioControlReturnWeapon, COMDAT
; _this$ = ecx

; 15   : {

  00000	6a 10		 push	 16			; 00000010H
  00002	b8 00 00 00 00	 mov	 eax, __ehhandler$??0ioControlReturnWeapon@@QAE@PAVioBaseChar@@PBUWeaponAttribute@@@Z
  00007	e8 00 00 00 00	 call	 __EH_prolog3
  0000c	8b d9		 mov	 ebx, ecx
  0000e	89 5d f0	 mov	 DWORD PTR _this$[ebp], ebx
  00011	ff 75 0c	 push	 DWORD PTR _pAttr$[ebp]
  00014	ff 75 08	 push	 DWORD PTR _pOwner$[ebp]
  00017	e8 00 00 00 00	 call	 ??0ioWeapon@@QAE@PAVioBaseChar@@PBUWeaponAttribute@@@Z ; ioWeapon::ioWeapon
  0001c	33 f6		 xor	 esi, esi
  0001e	8d 8b e0 08 00
	00		 lea	 ecx, DWORD PTR [ebx+2272]
  00024	89 75 fc	 mov	 DWORD PTR __$EHRec$[ebp+8], esi
  00027	c7 03 00 00 00
	00		 mov	 DWORD PTR [ebx], OFFSET ??_7ioControlReturnWeapon@@6B@
  0002d	ff 15 00 00 00
	00		 call	 DWORD PTR __imp_??0ioOrientBox@@QAE@XZ

; 16   : 	SetPeculiarity( WP_DIVIDE_ACTION );

  00033	68 00 01 00 00	 push	 256			; 00000100H
  00038	8b cb		 mov	 ecx, ebx
  0003a	c6 45 fc 01	 mov	 BYTE PTR __$EHRec$[ebp+8], 1
  0003e	e8 00 00 00 00	 call	 ?SetPeculiarity@ioWeapon@@QAEXK@Z ; ioWeapon::SetPeculiarity

; 17   : 	m_pThrowMesh = NULL;
; 18   : 	m_fCurMoveRange = 0.0f;

  00043	0f 57 c0	 xorps	 xmm0, xmm0
  00046	89 b3 9c 08 00
	00		 mov	 DWORD PTR [ebx+2204], esi

; 19   : 	m_fCurMoveDistance = 0.0f;
; 20   : 	m_ReturnState = TRS_NONE;

  0004c	89 b3 94 08 00
	00		 mov	 DWORD PTR [ebx+2196], esi

; 21   : 	m_dwStartReturnTime = 0;

  00052	89 b3 d0 08 00
	00		 mov	 DWORD PTR [ebx+2256], esi

; 22   : 
; 23   : 	m_fDefaultHeightGap = 0.0f;
; 24   : 	m_fControlValue = m_fControlValue2 = 0.0f;
; 25   : 
; 26   : 	m_bTest1 = false;

  00058	66 89 b3 64 09
	00 00		 mov	 WORD PTR [ebx+2404], si

; 27   : 	m_bTest2 = false;
; 28   : 
; 29   : 	m_vPrePos = D3DXVECTOR3( 0.f, 0.f, 0.f);

  0005f	f3 0f 11 45 e4	 movss	 DWORD PTR $T530562[ebp], xmm0
  00064	f3 0f 11 45 e8	 movss	 DWORD PTR $T530562[ebp+4], xmm0
  00069	f3 0f 11 45 ec	 movss	 DWORD PTR $T530562[ebp+8], xmm0
  0006e	8d bb 48 09 00
	00		 lea	 edi, DWORD PTR [ebx+2376]
  00074	8d 75 e4	 lea	 esi, DWORD PTR $T530562[ebp]
  00077	a5		 movsd
  00078	a5		 movsd
  00079	f3 0f 11 83 d8
	08 00 00	 movss	 DWORD PTR [ebx+2264], xmm0
  00081	f3 0f 11 83 dc
	08 00 00	 movss	 DWORD PTR [ebx+2268], xmm0
  00089	f3 0f 11 83 24
	09 00 00	 movss	 DWORD PTR [ebx+2340], xmm0
  00091	f3 0f 11 83 40
	09 00 00	 movss	 DWORD PTR [ebx+2368], xmm0
  00099	f3 0f 11 83 3c
	09 00 00	 movss	 DWORD PTR [ebx+2364], xmm0
  000a1	a5		 movsd

; 30   : }

  000a2	8b c3		 mov	 eax, ebx
  000a4	e8 00 00 00 00	 call	 __EH_epilog3
  000a9	c2 08 00	 ret	 8
_TEXT	ENDS
;	COMDAT text$x
text$x	SEGMENT
__unwindfunclet$??0ioControlReturnWeapon@@QAE@PAVioBaseChar@@PBUWeaponAttribute@@@Z$0:
  00000	8b 4d f0	 mov	 ecx, DWORD PTR _this$[ebp]
  00003	e9 00 00 00 00	 jmp	 ??1ioWeapon@@UAE@XZ	; ioWeapon::~ioWeapon
__unwindfunclet$??0ioControlReturnWeapon@@QAE@PAVioBaseChar@@PBUWeaponAttribute@@@Z$1:
  00008	8b 4d f0	 mov	 ecx, DWORD PTR _this$[ebp]
  0000b	81 c1 e0 08 00
	00		 add	 ecx, 2272		; 000008e0H
  00011	ff 25 00 00 00
	00		 jmp	 DWORD PTR __imp_??1ioOrientBox@@QAE@XZ
__ehhandler$??0ioControlReturnWeapon@@QAE@PAVioBaseChar@@PBUWeaponAttribute@@@Z:
  00017	8b 54 24 08	 mov	 edx, DWORD PTR [esp+8]
  0001b	8d 42 0c	 lea	 eax, DWORD PTR [edx+12]
  0001e	8b 4a e0	 mov	 ecx, DWORD PTR [edx-32]
  00021	33 c8		 xor	 ecx, eax
  00023	e8 00 00 00 00	 call	 @__security_check_cookie@4
  00028	b8 00 00 00 00	 mov	 eax, OFFSET __ehfuncinfo$??0ioControlReturnWeapon@@QAE@PAVioBaseChar@@PBUWeaponAttribute@@@Z
  0002d	e9 00 00 00 00	 jmp	 ___CxxFrameHandler3
text$x	ENDS
??0ioControlReturnWeapon@@QAE@PAVioBaseChar@@PBUWeaponAttribute@@@Z ENDP ; ioControlReturnWeapon::ioControlReturnWeapon
; Function compile flags: /Ogsp
;	COMDAT ??_GioControlReturnWeapon@@UAEPAXI@Z
_TEXT	SEGMENT
___flags$ = 8						; size = 4
??_GioControlReturnWeapon@@UAEPAXI@Z PROC		; ioControlReturnWeapon::`scalar deleting destructor', COMDAT
; _this$ = ecx
  00000	55		 push	 ebp
  00001	8b ec		 mov	 ebp, esp
  00003	56		 push	 esi
  00004	8b f1		 mov	 esi, ecx
  00006	e8 00 00 00 00	 call	 ??1ioControlReturnWeapon@@UAE@XZ ; ioControlReturnWeapon::~ioControlReturnWeapon
  0000b	f6 45 08 01	 test	 BYTE PTR ___flags$[ebp], 1
  0000f	74 07		 je	 SHORT $LN1@scalar
  00011	56		 push	 esi
  00012	e8 00 00 00 00	 call	 ??3@YAXPAX@Z		; operator delete
  00017	59		 pop	 ecx
$LN1@scalar:
  00018	8b c6		 mov	 eax, esi
  0001a	5e		 pop	 esi
  0001b	5d		 pop	 ebp
  0001c	c2 04 00	 ret	 4
??_GioControlReturnWeapon@@UAEPAXI@Z ENDP		; ioControlReturnWeapon::`scalar deleting destructor'
_TEXT	ENDS
PUBLIC	?SetThrowMesh@ioControlReturnWeapon@@IAE_NABVioHashString@@@Z ; ioControlReturnWeapon::SetThrowMesh
EXTRN	__imp_??D@YA?AUD3DXVECTOR3@@ABU0@0@Z:PROC
EXTRN	__imp_??D@YA?AUD3DXVECTOR3@@ABUD3DXQUATERNION@@ABU0@@Z:PROC
EXTRN	__imp_?GetBiped@ioEntityGroup@@QAEPAVioBiped@@ABVioHashString@@@Z:PROC
EXTRN	__imp_??1ioHashString@@QAE@XZ:PROC
EXTRN	__imp_?GetFirstLinkOffset@ioEffect@@QAE_NAAVioHashString@@AAUD3DXVECTOR3@@AAUD3DXQUATERNION@@@Z:PROC
EXTRN	__imp_?IsEmpty@ioHashString@@QBE_NXZ:PROC
EXTRN	__imp_?GetSkeletonName@ioEffect@@QBE?AVioHashString@@XZ:PROC
EXTRN	__imp_??0ioHashString@@QAE@XZ:PROC
EXTRN	__imp_?CreateEffect@ioEffectFactory@@QAEPAVioEffect@@ABVioHashString@@@Z:PROC
EXTRN	__EH_epilog3_GS:PROC
EXTRN	__EH_prolog3_GS:PROC
;	COMDAT xdata$x
; File c:\program files (x86)\microsoft directx sdk (june 2010)\include\d3dx9math.inl
xdata$x	SEGMENT
__unwindtable$?SetThrowMesh@ioControlReturnWeapon@@IAE_NABVioHashString@@@Z DD 0ffffffffH
	DD	FLAT:__unwindfunclet$?SetThrowMesh@ioControlReturnWeapon@@IAE_NABVioHashString@@@Z$0
	DD	00H
	DD	FLAT:__unwindfunclet$?SetThrowMesh@ioControlReturnWeapon@@IAE_NABVioHashString@@@Z$1
__ehfuncinfo$?SetThrowMesh@ioControlReturnWeapon@@IAE_NABVioHashString@@@Z DD 019930522H
	DD	02H
	DD	FLAT:__unwindtable$?SetThrowMesh@ioControlReturnWeapon@@IAE_NABVioHashString@@@Z
	DD	2 DUP(00H)
	DD	2 DUP(00H)
	DD	00H
	DD	01H
; Function compile flags: /Ogsp
; File d:\lost saga for developer\youtube\tutorial\source\src\lsclient\iocontrolreturnweapon.cpp
xdata$x	ENDS
;	COMDAT ?SetThrowMesh@ioControlReturnWeapon@@IAE_NABVioHashString@@@Z
_TEXT	SEGMENT
_qtLinkRotOffset$ = -100				; size = 16
_szLinkBiped$ = -84					; size = 16
$T533179 = -68						; size = 4
_pOwner$ = -64						; size = 4
$T533173 = -57						; size = 1
$T533174 = -56						; size = 16
$T530594 = -52						; size = 12
_vLinkPosOffset$ = -40					; size = 12
$T530595 = -28						; size = 12
$T530593 = -28						; size = 12
$T530592 = -28						; size = 12
$T530591 = -28						; size = 12
__$EHRec$ = -12						; size = 12
_szFileName$ = 8					; size = 4
?SetThrowMesh@ioControlReturnWeapon@@IAE_NABVioHashString@@@Z PROC ; ioControlReturnWeapon::SetThrowMesh, COMDAT
; _this$ = ecx

; 53   : {

  00000	6a 58		 push	 88			; 00000058H
  00002	b8 00 00 00 00	 mov	 eax, __ehhandler$?SetThrowMesh@ioControlReturnWeapon@@IAE_NABVioHashString@@@Z
  00007	e8 00 00 00 00	 call	 __EH_prolog3_GS
  0000c	8b 7d 08	 mov	 edi, DWORD PTR _szFileName$[ebp]
  0000f	33 f6		 xor	 esi, esi
  00011	8b d9		 mov	 ebx, ecx
  00013	89 75 bc	 mov	 DWORD PTR $T533179[ebp], esi

; 54   : 	ioBaseChar *pOwner = GetOwner();

  00016	e8 00 00 00 00	 call	 ?GetOwner@ioWeapon@@QBEPAVioBaseChar@@XZ ; ioWeapon::GetOwner
  0001b	89 45 c0	 mov	 DWORD PTR _pOwner$[ebp], eax

; 55   : 	if( !pOwner )	return false;

  0001e	3b c6		 cmp	 eax, esi
  00020	75 07		 jne	 SHORT $LN4@SetThrowMe
$LN33@SetThrowMe:
  00022	32 c0		 xor	 al, al
  00024	e9 19 02 00 00	 jmp	 $LN5@SetThrowMe
$LN4@SetThrowMe:

; 56   : 
; 57   : 	DestroyResource();

  00029	8b 03		 mov	 eax, DWORD PTR [ebx]
  0002b	56		 push	 esi
  0002c	8b cb		 mov	 ecx, ebx
  0002e	ff 90 9c 00 00
	00		 call	 DWORD PTR [eax+156]

; 58   : 
; 59   : 	m_pThrowMesh = g_EffectFactory.CreateEffect( szFileName );

  00034	57		 push	 edi
  00035	ff 15 00 00 00
	00		 call	 DWORD PTR __imp_?GetSingleton@ioEffectFactory@@SAAAV1@XZ
  0003b	8b c8		 mov	 ecx, eax
  0003d	ff 15 00 00 00
	00		 call	 DWORD PTR __imp_?CreateEffect@ioEffectFactory@@QAEPAVioEffect@@ABVioHashString@@@Z
  00043	89 83 9c 08 00
	00		 mov	 DWORD PTR [ebx+2204], eax

; 60   : 	if( !m_pThrowMesh ) return false;

  00049	3b c6		 cmp	 eax, esi
  0004b	74 d5		 je	 SHORT $LN33@SetThrowMe

; 61   : 
; 62   : 	GetParentSceneNode()->AttachObject( m_pThrowMesh );

  0004d	8b 4b 04	 mov	 ecx, DWORD PTR [ebx+4]
  00050	8b 11		 mov	 edx, DWORD PTR [ecx]
  00052	83 c0 14	 add	 eax, 20			; 00000014H
  00055	50		 push	 eax
  00056	ff 92 ac 00 00
	00		 call	 DWORD PTR [edx+172]

; 63   : 
; 64   : 	ioHashString szLinkBiped;

  0005c	8d 4d ac	 lea	 ecx, DWORD PTR _szLinkBiped$[ebp]
  0005f	ff 15 00 00 00
	00		 call	 DWORD PTR __imp_??0ioHashString@@QAE@XZ

; 65   : 	D3DXVECTOR3 vLinkPosOffset;
; 66   : 	D3DXQUATERNION qtLinkRotOffset;
; 67   : 
; 68   : 	if( m_pThrowMesh->GetSkeletonName().IsEmpty() && m_pThrowMesh->GetFirstLinkOffset(szLinkBiped, vLinkPosOffset, qtLinkRotOffset ) )

  00065	8b 8b 9c 08 00
	00		 mov	 ecx, DWORD PTR [ebx+2204]
  0006b	8d 45 c8	 lea	 eax, DWORD PTR $T533174[ebp]
  0006e	50		 push	 eax
  0006f	89 75 fc	 mov	 DWORD PTR __$EHRec$[ebp+8], esi
  00072	ff 15 00 00 00
	00		 call	 DWORD PTR __imp_?GetSkeletonName@ioEffect@@QBE?AVioHashString@@XZ
  00078	8b c8		 mov	 ecx, eax
  0007a	c6 45 fc 01	 mov	 BYTE PTR __$EHRec$[ebp+8], 1
  0007e	c7 45 bc 01 00
	00 00		 mov	 DWORD PTR $T533179[ebp], 1
  00085	ff 15 00 00 00
	00		 call	 DWORD PTR __imp_?IsEmpty@ioHashString@@QBE_NXZ
  0008b	84 c0		 test	 al, al
  0008d	74 20		 je	 SHORT $LN9@SetThrowMe
  0008f	8b 8b 9c 08 00
	00		 mov	 ecx, DWORD PTR [ebx+2204]
  00095	8d 45 9c	 lea	 eax, DWORD PTR _qtLinkRotOffset$[ebp]
  00098	50		 push	 eax
  00099	8d 45 d8	 lea	 eax, DWORD PTR _vLinkPosOffset$[ebp]
  0009c	50		 push	 eax
  0009d	8d 45 ac	 lea	 eax, DWORD PTR _szLinkBiped$[ebp]
  000a0	50		 push	 eax
  000a1	ff 15 00 00 00
	00		 call	 DWORD PTR __imp_?GetFirstLinkOffset@ioEffect@@QAE_NAAVioHashString@@AAUD3DXVECTOR3@@AAUD3DXQUATERNION@@@Z
  000a7	c6 45 c7 01	 mov	 BYTE PTR $T533173[ebp], 1
  000ab	84 c0		 test	 al, al
  000ad	75 04		 jne	 SHORT $LN10@SetThrowMe
$LN9@SetThrowMe:
  000af	c6 45 c7 00	 mov	 BYTE PTR $T533173[ebp], 0
$LN10@SetThrowMe:
  000b3	8d 4d c8	 lea	 ecx, DWORD PTR $T533174[ebp]
  000b6	89 75 fc	 mov	 DWORD PTR __$EHRec$[ebp+8], esi
  000b9	ff 15 00 00 00
	00		 call	 DWORD PTR __imp_??1ioHashString@@QAE@XZ
  000bf	80 7d c7 00	 cmp	 BYTE PTR $T533173[ebp], 0
  000c3	0f 84 4a 01 00
	00		 je	 $LN1@SetThrowMe

; 69   : 	{
; 70   : 		ioBiped *pLinked = pOwner->GetGroup()->GetBiped( szLinkBiped );

  000c9	8b 45 c0	 mov	 eax, DWORD PTR _pOwner$[ebp]
  000cc	8b 48 04	 mov	 ecx, DWORD PTR [eax+4]
  000cf	8d 45 ac	 lea	 eax, DWORD PTR _szLinkBiped$[ebp]
  000d2	50		 push	 eax
  000d3	ff 15 00 00 00
	00		 call	 DWORD PTR __imp_?GetBiped@ioEntityGroup@@QAEPAVioBiped@@ABVioHashString@@@Z
  000d9	8b f8		 mov	 edi, eax

; 71   : 		if( pLinked )

  000db	3b fe		 cmp	 edi, esi
  000dd	0f 84 30 01 00
	00		 je	 $LN1@SetThrowMe

; 72   : 		{
; 73   : 			vLinkPosOffset = pLinked->GetDerivedOrientation() * vLinkPosOffset + pLinked->GetDerivedPosition();

  000e3	8b 07		 mov	 eax, DWORD PTR [edi]
  000e5	8b cf		 mov	 ecx, edi
  000e7	ff 50 7c	 call	 DWORD PTR [eax+124]
  000ea	8b f0		 mov	 esi, eax
  000ec	8d 45 d8	 lea	 eax, DWORD PTR _vLinkPosOffset$[ebp]
  000ef	50		 push	 eax
  000f0	8b 07		 mov	 eax, DWORD PTR [edi]
  000f2	8b cf		 mov	 ecx, edi
  000f4	ff 50 78	 call	 DWORD PTR [eax+120]
  000f7	50		 push	 eax
  000f8	8d 45 e4	 lea	 eax, DWORD PTR $T530591[ebp]
  000fb	50		 push	 eax
  000fc	ff 15 00 00 00
	00		 call	 DWORD PTR __imp_??D@YA?AUD3DXVECTOR3@@ABUD3DXQUATERNION@@ABU0@@Z
  00102	f3 0f 10 06	 movss	 xmm0, DWORD PTR [esi]
  00106	f3 0f 10 08	 movss	 xmm1, DWORD PTR [eax]
  0010a	f3 0f 10 50 04	 movss	 xmm2, DWORD PTR [eax+4]
  0010f	f3 0f 10 58 08	 movss	 xmm3, DWORD PTR [eax+8]

; 74   : 			vLinkPosOffset = vLinkPosOffset * pOwner->GetWorldScale();

  00114	8b 4d c0	 mov	 ecx, DWORD PTR _pOwner$[ebp]
  00117	0f 5a c9	 cvtps2pd xmm1, xmm1
  0011a	0f 5a c0	 cvtps2pd xmm0, xmm0
  0011d	f2 0f 58 c1	 addsd	 xmm0, xmm1
  00121	f3 0f 10 4e 04	 movss	 xmm1, DWORD PTR [esi+4]
  00126	0f 5a d2	 cvtps2pd xmm2, xmm2
  00129	0f 5a c9	 cvtps2pd xmm1, xmm1
  0012c	f2 0f 58 ca	 addsd	 xmm1, xmm2
  00130	f3 0f 10 56 08	 movss	 xmm2, DWORD PTR [esi+8]
  00135	0f 5a d2	 cvtps2pd xmm2, xmm2
  00138	0f 5a db	 cvtps2pd xmm3, xmm3
  0013b	f2 0f 58 d3	 addsd	 xmm2, xmm3
  0013f	66 0f 5a c0	 cvtpd2ps xmm0, xmm0
  00143	f3 0f 11 45 e4	 movss	 DWORD PTR $T530592[ebp], xmm0
  00148	66 0f 5a c9	 cvtpd2ps xmm1, xmm1
  0014c	f3 0f 11 4d e8	 movss	 DWORD PTR $T530592[ebp+4], xmm1
  00151	66 0f 5a d2	 cvtpd2ps xmm2, xmm2
  00155	f3 0f 11 55 ec	 movss	 DWORD PTR $T530592[ebp+8], xmm2
  0015a	8d 75 e4	 lea	 esi, DWORD PTR $T530592[ebp]
  0015d	8d 7d d8	 lea	 edi, DWORD PTR _vLinkPosOffset$[ebp]
  00160	a5		 movsd
  00161	a5		 movsd
  00162	a5		 movsd
  00163	8b 01		 mov	 eax, DWORD PTR [ecx]
  00165	83 c4 0c	 add	 esp, 12			; 0000000cH
  00168	ff 50 78	 call	 DWORD PTR [eax+120]
  0016b	50		 push	 eax
  0016c	8d 45 d8	 lea	 eax, DWORD PTR _vLinkPosOffset$[ebp]
  0016f	50		 push	 eax
  00170	8d 45 e4	 lea	 eax, DWORD PTR $T530593[ebp]
  00173	50		 push	 eax
  00174	ff 15 00 00 00
	00		 call	 DWORD PTR __imp_??D@YA?AUD3DXVECTOR3@@ABU0@0@Z
  0017a	8b f0		 mov	 esi, eax
  0017c	8d 7d d8	 lea	 edi, DWORD PTR _vLinkPosOffset$[ebp]
  0017f	a5		 movsd
  00180	a5		 movsd
  00181	a5		 movsd

; 75   : 			vLinkPosOffset = pOwner->GetWorldOrientation() * vLinkPosOffset + pOwner->GetWorldPosition();

  00182	8b 7d c0	 mov	 edi, DWORD PTR _pOwner$[ebp]
  00185	8b 07		 mov	 eax, DWORD PTR [edi]
  00187	83 c4 0c	 add	 esp, 12			; 0000000cH
  0018a	8b cf		 mov	 ecx, edi
  0018c	ff 50 70	 call	 DWORD PTR [eax+112]
  0018f	8b f0		 mov	 esi, eax
  00191	8d 45 d8	 lea	 eax, DWORD PTR _vLinkPosOffset$[ebp]
  00194	50		 push	 eax
  00195	8b 07		 mov	 eax, DWORD PTR [edi]
  00197	8b cf		 mov	 ecx, edi
  00199	ff 50 74	 call	 DWORD PTR [eax+116]
  0019c	50		 push	 eax
  0019d	8d 45 cc	 lea	 eax, DWORD PTR $T530594[ebp]
  001a0	50		 push	 eax
  001a1	ff 15 00 00 00
	00		 call	 DWORD PTR __imp_??D@YA?AUD3DXVECTOR3@@ABUD3DXQUATERNION@@ABU0@@Z
  001a7	f3 0f 10 06	 movss	 xmm0, DWORD PTR [esi]
  001ab	f3 0f 10 08	 movss	 xmm1, DWORD PTR [eax]
  001af	f3 0f 10 50 04	 movss	 xmm2, DWORD PTR [eax+4]
  001b4	0f 5a c9	 cvtps2pd xmm1, xmm1
  001b7	0f 5a c0	 cvtps2pd xmm0, xmm0
  001ba	f2 0f 58 c1	 addsd	 xmm0, xmm1
  001be	f3 0f 10 4e 04	 movss	 xmm1, DWORD PTR [esi+4]
  001c3	0f 5a c9	 cvtps2pd xmm1, xmm1
  001c6	0f 5a d2	 cvtps2pd xmm2, xmm2
  001c9	83 c4 0c	 add	 esp, 12			; 0000000cH
  001cc	66 0f 5a c0	 cvtpd2ps xmm0, xmm0
  001d0	f2 0f 58 ca	 addsd	 xmm1, xmm2
  001d4	f3 0f 10 56 08	 movss	 xmm2, DWORD PTR [esi+8]
  001d9	f3 0f 10 58 08	 movss	 xmm3, DWORD PTR [eax+8]
  001de	0f 5a d2	 cvtps2pd xmm2, xmm2
  001e1	0f 5a db	 cvtps2pd xmm3, xmm3
  001e4	f2 0f 58 d3	 addsd	 xmm2, xmm3
  001e8	f3 0f 11 45 e4	 movss	 DWORD PTR $T530595[ebp], xmm0
  001ed	66 0f 5a c9	 cvtpd2ps xmm1, xmm1
  001f1	f3 0f 11 4d e8	 movss	 DWORD PTR $T530595[ebp+4], xmm1
  001f6	66 0f 5a d2	 cvtpd2ps xmm2, xmm2
  001fa	f3 0f 11 55 ec	 movss	 DWORD PTR $T530595[ebp+8], xmm2
  001ff	8d 75 e4	 lea	 esi, DWORD PTR $T530595[ebp]
  00202	8d 7d d8	 lea	 edi, DWORD PTR _vLinkPosOffset$[ebp]
  00205	a5		 movsd
  00206	a5		 movsd

; 76   : 			SetPosition( vLinkPosOffset );

  00207	8d 45 d8	 lea	 eax, DWORD PTR _vLinkPosOffset$[ebp]
  0020a	50		 push	 eax
  0020b	8b cb		 mov	 ecx, ebx
  0020d	a5		 movsd
  0020e	e8 00 00 00 00	 call	 ?SetPosition@ioWeapon@@QAEXABUD3DXVECTOR3@@@Z ; ioWeapon::SetPosition
$LN1@SetThrowMe:

; 77   : 		}
; 78   : 	}
; 79   : 
; 80   : 	m_pThrowMesh->UpdateBounds( true );

  00213	8b 8b 9c 08 00
	00		 mov	 ecx, DWORD PTR [ebx+2204]
  00219	83 c1 14	 add	 ecx, 20			; 00000014H
  0021c	8b 01		 mov	 eax, DWORD PTR [ecx]
  0021e	6a 01		 push	 1
  00220	ff 50 44	 call	 DWORD PTR [eax+68]

; 81   : 
; 82   : 	AddEffectEvent( m_pThrowMesh );

  00223	ff b3 9c 08 00
	00		 push	 DWORD PTR [ebx+2204]
  00229	8b 03		 mov	 eax, DWORD PTR [ebx]
  0022b	8b cb		 mov	 ecx, ebx
  0022d	ff 90 68 01 00
	00		 call	 DWORD PTR [eax+360]

; 83   : 	return true;

  00233	83 4d fc ff	 or	 DWORD PTR __$EHRec$[ebp+8], -1
  00237	8d 4d ac	 lea	 ecx, DWORD PTR _szLinkBiped$[ebp]
  0023a	ff 15 00 00 00
	00		 call	 DWORD PTR __imp_??1ioHashString@@QAE@XZ
  00240	b0 01		 mov	 al, 1
$LN5@SetThrowMe:

; 84   : }

  00242	e8 00 00 00 00	 call	 __EH_epilog3_GS
  00247	c2 04 00	 ret	 4
_TEXT	ENDS
;	COMDAT text$x
text$x	SEGMENT
__unwindfunclet$?SetThrowMesh@ioControlReturnWeapon@@IAE_NABVioHashString@@@Z$0:
  00000	8d 4d ac	 lea	 ecx, DWORD PTR _szLinkBiped$[ebp]
  00003	ff 25 00 00 00
	00		 jmp	 DWORD PTR __imp_??1ioHashString@@QAE@XZ
__unwindfunclet$?SetThrowMesh@ioControlReturnWeapon@@IAE_NABVioHashString@@@Z$1:
  00009	8b 45 bc	 mov	 eax, DWORD PTR $T533179[ebp]
  0000c	83 e0 01	 and	 eax, 1
  0000f	0f 84 0d 00 00
	00		 je	 $LN13@SetThrowMe
  00015	83 65 bc fe	 and	 DWORD PTR $T533179[ebp], -2 ; fffffffeH
  00019	8d 4d c8	 lea	 ecx, DWORD PTR $T533174[ebp]
  0001c	ff 25 00 00 00
	00		 jmp	 DWORD PTR __imp_??1ioHashString@@QAE@XZ
$LN13@SetThrowMe:
  00022	c3		 ret	 0
__ehhandler$?SetThrowMesh@ioControlReturnWeapon@@IAE_NABVioHashString@@@Z:
  00023	8b 54 24 08	 mov	 edx, DWORD PTR [esp+8]
  00027	8d 42 0c	 lea	 eax, DWORD PTR [edx+12]
  0002a	8b 4a 98	 mov	 ecx, DWORD PTR [edx-104]
  0002d	33 c8		 xor	 ecx, eax
  0002f	e8 00 00 00 00	 call	 @__security_check_cookie@4
  00034	8b 4a fc	 mov	 ecx, DWORD PTR [edx-4]
  00037	33 c8		 xor	 ecx, eax
  00039	e8 00 00 00 00	 call	 @__security_check_cookie@4
  0003e	b8 00 00 00 00	 mov	 eax, OFFSET __ehfuncinfo$?SetThrowMesh@ioControlReturnWeapon@@IAE_NABVioHashString@@@Z
  00043	e9 00 00 00 00	 jmp	 ___CxxFrameHandler3
text$x	ENDS
?SetThrowMesh@ioControlReturnWeapon@@IAE_NABVioHashString@@@Z ENDP ; ioControlReturnWeapon::SetThrowMesh
PUBLIC	__real@00000000
PUBLIC	__real@4f800000
PUBLIC	__$ArrayPad$
EXTRN	_D3DXQuaternionRotationAxis@12:PROC
EXTRN	_D3DXVec3Normalize@8:PROC
EXTRN	?SetOrientation@ioWeapon@@QAEXABUD3DXQUATERNION@@@Z:PROC ; ioWeapon::SetOrientation
EXTRN	__imp_?CalcDirectionQuaternion@ioMath@@SAXAAUD3DXQUATERNION@@ABUD3DXVECTOR3@@@Z:PROC
EXTRN	___security_cookie:DWORD
;	COMDAT __real@00000000
; File d:\lost saga for developer\youtube\tutorial\source\src\lsclient\veryoftenusedefine.h
CONST	SEGMENT
__real@00000000 DD 000000000r			; 0
CONST	ENDS
;	COMDAT __real@4f800000
CONST	SEGMENT
__real@4f800000 DD 04f800000r			; 4.29497e+009
; Function compile flags: /Ogsp
; File d:\lost saga for developer\youtube\tutorial\source\src\lsclient\iocontrolreturnweapon.cpp
CONST	ENDS
;	COMDAT ?SetMoveDir@ioControlReturnWeapon@@UAEXABUD3DXVECTOR3@@@Z
_TEXT	SEGMENT
_qtRot2$530668 = -56					; size = 16
tv450 = -40						; size = 4
_qtRot$ = -36						; size = 16
tv325 = -20						; size = 4
_v$533269 = -16						; size = 12
$T530673 = -16						; size = 12
$T530666 = -16						; size = 12
$T530664 = -16						; size = 12
__$ArrayPad$ = -4					; size = 4
_vDir$ = 8						; size = 4
?SetMoveDir@ioControlReturnWeapon@@UAEXABUD3DXVECTOR3@@@Z PROC ; ioControlReturnWeapon::SetMoveDir, COMDAT
; _this$ = ecx

; 132  : {

  00000	55		 push	 ebp
  00001	8b ec		 mov	 ebp, esp
  00003	83 ec 38	 sub	 esp, 56			; 00000038H
  00006	a1 00 00 00 00	 mov	 eax, DWORD PTR ___security_cookie
  0000b	33 c5		 xor	 eax, ebp
  0000d	89 45 fc	 mov	 DWORD PTR __$ArrayPad$[ebp], eax
  00010	53		 push	 ebx
  00011	56		 push	 esi
  00012	57		 push	 edi
  00013	8b d9		 mov	 ebx, ecx
  00015	8b 4d 08	 mov	 ecx, DWORD PTR _vDir$[ebp]

; 133  : 	m_vMoveDir = vDir;

  00018	8d bb a0 08 00
	00		 lea	 edi, DWORD PTR [ebx+2208]
  0001e	8b f1		 mov	 esi, ecx
  00020	a5		 movsd
  00021	a5		 movsd
  00022	a5		 movsd

; 134  : 	m_vCurMoveDir = m_vMoveDir;

  00023	8d bb ac 08 00
	00		 lea	 edi, DWORD PTR [ebx+2220]
  00029	89 7d ec	 mov	 DWORD PTR tv325[ebp], edi
  0002c	8b f1		 mov	 esi, ecx
  0002e	a5		 movsd
  0002f	a5		 movsd
  00030	a5		 movsd

; 135  : 
; 136  : 	m_vRollAxis	= D3DXVECTOR3( 0.0f, FLOAT1, 0.0f );

  00031	b8 01 00 00 00	 mov	 eax, 1
  00036	0f 57 c0	 xorps	 xmm0, xmm0
  00039	89 45 d8	 mov	 DWORD PTR tv450[ebp], eax
  0003c	db 45 d8	 fild	 DWORD PTR tv450[ebp]
  0003f	f3 0f 11 45 f0	 movss	 DWORD PTR $T530664[ebp], xmm0
  00044	85 c0		 test	 eax, eax
  00046	79 06		 jns	 SHORT $LN22@SetMoveDir
  00048	d8 05 00 00 00
	00		 fadd	 DWORD PTR __real@4f800000
$LN22@SetMoveDir:
  0004e	f3 0f 11 45 f8	 movss	 DWORD PTR $T530664[ebp+8], xmm0
  00053	d9 5d f4	 fstp	 DWORD PTR $T530664[ebp+4]
  00056	8d bb c4 08 00
	00		 lea	 edi, DWORD PTR [ebx+2244]
  0005c	8d 75 f0	 lea	 esi, DWORD PTR $T530664[ebp]
  0005f	a5		 movsd
  00060	a5		 movsd
  00061	a5		 movsd

; 137  : 
; 138  : 	D3DXQUATERNION qtRot;
; 139  : 	ioMath::CalcDirectionQuaternion( qtRot, -vDir );

  00062	f3 0f 10 05 00
	00 00 00	 movss	 xmm0, DWORD PTR __mask@@NegFloat@
  0006a	f3 0f 10 09	 movss	 xmm1, DWORD PTR [ecx]
  0006e	0f 57 c8	 xorps	 xmm1, xmm0
  00071	f3 0f 11 4d f0	 movss	 DWORD PTR $T530666[ebp], xmm1
  00076	f3 0f 10 49 04	 movss	 xmm1, DWORD PTR [ecx+4]
  0007b	0f 57 c8	 xorps	 xmm1, xmm0
  0007e	8d 45 f0	 lea	 eax, DWORD PTR $T530666[ebp]
  00081	50		 push	 eax
  00082	f3 0f 11 4d f4	 movss	 DWORD PTR $T530666[ebp+4], xmm1
  00087	f3 0f 10 49 08	 movss	 xmm1, DWORD PTR [ecx+8]
  0008c	8d 45 dc	 lea	 eax, DWORD PTR _qtRot$[ebp]
  0008f	0f 57 c8	 xorps	 xmm1, xmm0
  00092	50		 push	 eax
  00093	f3 0f 11 4d f8	 movss	 DWORD PTR $T530666[ebp+8], xmm1
  00098	ff 15 00 00 00
	00		 call	 DWORD PTR __imp_?CalcDirectionQuaternion@ioMath@@SAXAAUD3DXQUATERNION@@ABUD3DXVECTOR3@@@Z
  0009e	59		 pop	 ecx
  0009f	59		 pop	 ecx

; 140  : 	SetOrientation( qtRot );

  000a0	8d 45 dc	 lea	 eax, DWORD PTR _qtRot$[ebp]
  000a3	50		 push	 eax
  000a4	8b cb		 mov	 ecx, ebx
  000a6	e8 00 00 00 00	 call	 ?SetOrientation@ioWeapon@@QAEXABUD3DXQUATERNION@@@Z ; ioWeapon::SetOrientation

; 141  : 
; 142  : 	D3DXVec3Cross( &m_vCrossVec, &m_vMoveDir, &m_vRollAxis );

  000ab	f3 0f 10 83 a4
	08 00 00	 movss	 xmm0, DWORD PTR [ebx+2212]
  000b3	f3 0f 10 93 a8
	08 00 00	 movss	 xmm2, DWORD PTR [ebx+2216]
  000bb	0f 5a e8	 cvtps2pd xmm5, xmm0
  000be	0f 5a f2	 cvtps2pd xmm6, xmm2
  000c1	8d 8b c4 08 00
	00		 lea	 ecx, DWORD PTR [ebx+2244]
  000c7	f3 0f 10 49 08	 movss	 xmm1, DWORD PTR [ecx+8]
  000cc	f3 0f 10 59 04	 movss	 xmm3, DWORD PTR [ecx+4]
  000d1	0f 5a e1	 cvtps2pd xmm4, xmm1
  000d4	f2 0f 59 e5	 mulsd	 xmm4, xmm5
  000d8	0f 5a d2	 cvtps2pd xmm2, xmm2
  000db	0f 5a eb	 cvtps2pd xmm5, xmm3
  000de	f2 0f 59 ee	 mulsd	 xmm5, xmm6
  000e2	f2 0f 5c e5	 subsd	 xmm4, xmm5
  000e6	f3 0f 10 ab a0
	08 00 00	 movss	 xmm5, DWORD PTR [ebx+2208]
  000ee	66 0f 5a e4	 cvtpd2ps xmm4, xmm4
  000f2	f3 0f 11 65 f0	 movss	 DWORD PTR _v$533269[ebp], xmm4
  000f7	f3 0f 10 21	 movss	 xmm4, DWORD PTR [ecx]
  000fb	0f 5a c9	 cvtps2pd xmm1, xmm1
  000fe	0f 5a f4	 cvtps2pd xmm6, xmm4
  00101	f2 0f 59 f2	 mulsd	 xmm6, xmm2
  00105	0f 5a d5	 cvtps2pd xmm2, xmm5
  00108	f2 0f 59 d1	 mulsd	 xmm2, xmm1
  0010c	f2 0f 5c f2	 subsd	 xmm6, xmm2
  00110	66 0f 5a ce	 cvtpd2ps xmm1, xmm6
  00114	f3 0f 11 4d f4	 movss	 DWORD PTR _v$533269[ebp+4], xmm1
  00119	0f 5a c0	 cvtps2pd xmm0, xmm0
  0011c	8d 83 30 09 00
	00		 lea	 eax, DWORD PTR [ebx+2352]
  00122	0f 5a d3	 cvtps2pd xmm2, xmm3
  00125	8b f8		 mov	 edi, eax
  00127	0f 5a cd	 cvtps2pd xmm1, xmm5
  0012a	f2 0f 59 ca	 mulsd	 xmm1, xmm2
  0012e	8d 75 f0	 lea	 esi, DWORD PTR _v$533269[ebp]

; 143  : 	D3DXVec3Normalize( &m_vCrossVec, &m_vCrossVec );

  00131	50		 push	 eax
  00132	0f 5a d4	 cvtps2pd xmm2, xmm4
  00135	f2 0f 59 d0	 mulsd	 xmm2, xmm0
  00139	f2 0f 5c ca	 subsd	 xmm1, xmm2
  0013d	0f 57 c0	 xorps	 xmm0, xmm0
  00140	66 0f 5a c1	 cvtpd2ps xmm0, xmm1
  00144	f3 0f 11 45 f8	 movss	 DWORD PTR _v$533269[ebp+8], xmm0
  00149	a5		 movsd
  0014a	a5		 movsd
  0014b	50		 push	 eax
  0014c	a5		 movsd
  0014d	e8 00 00 00 00	 call	 _D3DXVec3Normalize@8

; 144  : 
; 145  : 	if( m_fStartAngle != 0.0f )

  00152	f3 0f 10 83 58
	09 00 00	 movss	 xmm0, DWORD PTR [ebx+2392]
  0015a	0f 2e 05 00 00
	00 00		 ucomiss xmm0, DWORD PTR __real@00000000
  00161	9f		 lahf
  00162	f6 c4 44	 test	 ah, 68			; 00000044H
  00165	7b 3f		 jnp	 SHORT $LN1@SetMoveDir

; 146  : 	{
; 147  : 		D3DXQUATERNION qtRot2;
; 148  : 		D3DXQuaternionRotationAxis( &qtRot2, &m_vRollAxis, DEGtoRAD(m_fStartAngle) );

  00167	0f 5a c0	 cvtps2pd xmm0, xmm0
  0016a	f2 0f 59 05 00
	00 00 00	 mulsd	 xmm0, QWORD PTR __real@3f91df46a2526c7a
  00172	51		 push	 ecx
  00173	66 0f 5a c0	 cvtpd2ps xmm0, xmm0
  00177	f3 0f 11 04 24	 movss	 DWORD PTR [esp], xmm0
  0017c	8d 83 c4 08 00
	00		 lea	 eax, DWORD PTR [ebx+2244]
  00182	50		 push	 eax
  00183	8d 45 c8	 lea	 eax, DWORD PTR _qtRot2$530668[ebp]
  00186	50		 push	 eax
  00187	e8 00 00 00 00	 call	 _D3DXQuaternionRotationAxis@12

; 149  : 
; 150  : 		m_vCurMoveDir = qtRot2 * m_vCurMoveDir;

  0018c	8b 7d ec	 mov	 edi, DWORD PTR tv325[ebp]
  0018f	57		 push	 edi
  00190	8d 45 c8	 lea	 eax, DWORD PTR _qtRot2$530668[ebp]
  00193	50		 push	 eax
  00194	8d 45 f0	 lea	 eax, DWORD PTR $T530673[ebp]
  00197	50		 push	 eax
  00198	ff 15 00 00 00
	00		 call	 DWORD PTR __imp_??D@YA?AUD3DXVECTOR3@@ABUD3DXQUATERNION@@ABU0@@Z
  0019e	8b f0		 mov	 esi, eax
  001a0	a5		 movsd
  001a1	a5		 movsd
  001a2	83 c4 0c	 add	 esp, 12			; 0000000cH
  001a5	a5		 movsd
$LN1@SetMoveDir:

; 151  : 	}
; 152  : 
; 153  : 	m_vFirstMoveDir = m_vCurMoveDir;

  001a6	8b 75 ec	 mov	 esi, DWORD PTR tv325[ebp]

; 154  : }

  001a9	8b 4d fc	 mov	 ecx, DWORD PTR __$ArrayPad$[ebp]
  001ac	8d bb b8 08 00
	00		 lea	 edi, DWORD PTR [ebx+2232]
  001b2	a5		 movsd
  001b3	a5		 movsd
  001b4	a5		 movsd
  001b5	5f		 pop	 edi
  001b6	5e		 pop	 esi
  001b7	33 cd		 xor	 ecx, ebp
  001b9	5b		 pop	 ebx
  001ba	e8 00 00 00 00	 call	 @__security_check_cookie@4
  001bf	c9		 leave
  001c0	c2 04 00	 ret	 4
?SetMoveDir@ioControlReturnWeapon@@UAEXABUD3DXVECTOR3@@@Z ENDP ; ioControlReturnWeapon::SetMoveDir
_TEXT	ENDS
PUBLIC	_this$GSCopy$
PUBLIC	__$ArrayPad$
PUBLIC	?RotateMoveDir@ioControlReturnWeapon@@QAEXM@Z	; ioControlReturnWeapon::RotateMoveDir
; Function compile flags: /Ogsp
;	COMDAT ?RotateMoveDir@ioControlReturnWeapon@@QAEXM@Z
_TEXT	SEGMENT
tv436 = -64						; size = 4
_qtRot$ = -60						; size = 16
_this$GSCopy$ = -44					; size = 4
$T530682 = -40						; size = 12
$T530680 = -40						; size = 12
_vAxis$ = -28						; size = 12
_v$533308 = -16						; size = 12
$T530683 = -16						; size = 12
__$ArrayPad$ = -4					; size = 4
_fAngle$ = 8						; size = 4
?RotateMoveDir@ioControlReturnWeapon@@QAEXM@Z PROC	; ioControlReturnWeapon::RotateMoveDir, COMDAT
; _this$ = ecx

; 157  : {

  00000	55		 push	 ebp
  00001	8b ec		 mov	 ebp, esp
  00003	83 ec 40	 sub	 esp, 64			; 00000040H
  00006	a1 00 00 00 00	 mov	 eax, DWORD PTR ___security_cookie
  0000b	33 c5		 xor	 eax, ebp
  0000d	89 45 fc	 mov	 DWORD PTR __$ArrayPad$[ebp], eax
  00010	53		 push	 ebx
  00011	56		 push	 esi
  00012	8b d9		 mov	 ebx, ecx
  00014	57		 push	 edi
  00015	89 5d d4	 mov	 DWORD PTR _this$GSCopy$[ebp], ebx

; 158  : 	D3DXVECTOR3 vAxis;
; 159  : 	D3DXVec3Cross( &vAxis, &m_vMoveDir, &D3DXVECTOR3( 0.0f, -FLOAT1, 0.0f ) );

  00018	b8 01 00 00 00	 mov	 eax, 1
  0001d	89 45 c0	 mov	 DWORD PTR tv436[ebp], eax
  00020	db 45 c0	 fild	 DWORD PTR tv436[ebp]
  00023	85 c0		 test	 eax, eax
  00025	79 06		 jns	 SHORT $LN21@RotateMove
  00027	d8 05 00 00 00
	00		 fadd	 DWORD PTR __real@4f800000
$LN21@RotateMove:
  0002d	f3 0f 10 83 a4
	08 00 00	 movss	 xmm0, DWORD PTR [ebx+2212]
  00035	d9 e0		 fchs
  00037	f3 0f 10 93 a8
	08 00 00	 movss	 xmm2, DWORD PTR [ebx+2216]
  0003f	d9 5d dc	 fstp	 DWORD PTR $T530680[ebp+4]
  00042	f3 0f 10 65 dc	 movss	 xmm4, DWORD PTR $T530680[ebp+4]
  00047	0f 5a c8	 cvtps2pd xmm1, xmm0
  0004a	0f 57 c0	 xorps	 xmm0, xmm0
  0004d	f2 0f 59 c8	 mulsd	 xmm1, xmm0
  00051	0f 5a da	 cvtps2pd xmm3, xmm2
  00054	81 c3 a0 08 00
	00		 add	 ebx, 2208		; 000008a0H
  0005a	0f 5a e4	 cvtps2pd xmm4, xmm4
  0005d	f2 0f 59 dc	 mulsd	 xmm3, xmm4
  00061	66 0f 28 e1	 movapd	 xmm4, xmm1
  00065	f2 0f 5c e3	 subsd	 xmm4, xmm3
  00069	0f 57 db	 xorps	 xmm3, xmm3
  0006c	f2 0f 5a dc	 cvtsd2ss xmm3, xmm4
  00070	f3 0f 11 5d f0	 movss	 DWORD PTR _v$533308[ebp], xmm3
  00075	f3 0f 10 1b	 movss	 xmm3, DWORD PTR [ebx]
  00079	0f 5a d2	 cvtps2pd xmm2, xmm2
  0007c	f2 0f 59 d0	 mulsd	 xmm2, xmm0
  00080	0f 5a e3	 cvtps2pd xmm4, xmm3
  00083	f2 0f 59 e0	 mulsd	 xmm4, xmm0
  00087	f2 0f 5c d4	 subsd	 xmm2, xmm4
  0008b	66 0f 5a c2	 cvtpd2ps xmm0, xmm2
  0008f	f3 0f 10 55 dc	 movss	 xmm2, DWORD PTR $T530680[ebp+4]
  00094	f3 0f 11 45 f4	 movss	 DWORD PTR _v$533308[ebp+4], xmm0
  00099	0f 5a d2	 cvtps2pd xmm2, xmm2
  0009c	8d 75 f0	 lea	 esi, DWORD PTR _v$533308[ebp]
  0009f	8d 7d e4	 lea	 edi, DWORD PTR _vAxis$[ebp]
  000a2	0f 5a c3	 cvtps2pd xmm0, xmm3
  000a5	f2 0f 59 c2	 mulsd	 xmm0, xmm2
  000a9	f2 0f 5c c1	 subsd	 xmm0, xmm1
  000ad	66 0f 5a c0	 cvtpd2ps xmm0, xmm0
  000b1	f3 0f 11 45 f8	 movss	 DWORD PTR _v$533308[ebp+8], xmm0

; 160  : 
; 161  : 	D3DXQUATERNION qtRot;
; 162  : 	D3DXQuaternionRotationAxis( &qtRot, &vAxis, DEGtoRAD(fAngle) );

  000b6	f3 0f 10 45 08	 movss	 xmm0, DWORD PTR _fAngle$[ebp]
  000bb	a5		 movsd
  000bc	0f 5a c0	 cvtps2pd xmm0, xmm0
  000bf	f2 0f 59 05 00
	00 00 00	 mulsd	 xmm0, QWORD PTR __real@3f91df46a2526c7a
  000c7	51		 push	 ecx
  000c8	66 0f 5a c0	 cvtpd2ps xmm0, xmm0
  000cc	f3 0f 11 04 24	 movss	 DWORD PTR [esp], xmm0
  000d1	8d 45 e4	 lea	 eax, DWORD PTR _vAxis$[ebp]
  000d4	a5		 movsd
  000d5	50		 push	 eax
  000d6	8d 45 c4	 lea	 eax, DWORD PTR _qtRot$[ebp]
  000d9	50		 push	 eax
  000da	a5		 movsd
  000db	e8 00 00 00 00	 call	 _D3DXQuaternionRotationAxis@12

; 163  : 	m_vMoveDir = qtRot * m_vMoveDir;

  000e0	53		 push	 ebx
  000e1	8d 45 c4	 lea	 eax, DWORD PTR _qtRot$[ebp]
  000e4	50		 push	 eax
  000e5	8d 45 d8	 lea	 eax, DWORD PTR $T530682[ebp]
  000e8	50		 push	 eax
  000e9	ff 15 00 00 00
	00		 call	 DWORD PTR __imp_??D@YA?AUD3DXVECTOR3@@ABUD3DXQUATERNION@@ABU0@@Z
  000ef	8b f0		 mov	 esi, eax
  000f1	8b fb		 mov	 edi, ebx
  000f3	a5		 movsd
  000f4	a5		 movsd
  000f5	a5		 movsd

; 164  : 
; 165  : 	ioMath::CalcDirectionQuaternion( qtRot, -m_vMoveDir );

  000f6	f3 0f 10 05 00
	00 00 00	 movss	 xmm0, DWORD PTR __mask@@NegFloat@
  000fe	f3 0f 10 0b	 movss	 xmm1, DWORD PTR [ebx]
  00102	0f 57 c8	 xorps	 xmm1, xmm0
  00105	f3 0f 11 4d f0	 movss	 DWORD PTR $T530683[ebp], xmm1
  0010a	f3 0f 10 4b 04	 movss	 xmm1, DWORD PTR [ebx+4]
  0010f	0f 57 c8	 xorps	 xmm1, xmm0
  00112	8d 45 f0	 lea	 eax, DWORD PTR $T530683[ebp]
  00115	50		 push	 eax
  00116	f3 0f 11 4d f4	 movss	 DWORD PTR $T530683[ebp+4], xmm1
  0011b	f3 0f 10 4b 08	 movss	 xmm1, DWORD PTR [ebx+8]
  00120	8d 45 c4	 lea	 eax, DWORD PTR _qtRot$[ebp]
  00123	0f 57 c8	 xorps	 xmm1, xmm0
  00126	50		 push	 eax
  00127	f3 0f 11 4d f8	 movss	 DWORD PTR $T530683[ebp+8], xmm1
  0012c	ff 15 00 00 00
	00		 call	 DWORD PTR __imp_?CalcDirectionQuaternion@ioMath@@SAXAAUD3DXQUATERNION@@ABUD3DXVECTOR3@@@Z

; 166  : 	SetOrientation( qtRot );

  00132	8b 4d d4	 mov	 ecx, DWORD PTR _this$GSCopy$[ebp]
  00135	83 c4 14	 add	 esp, 20			; 00000014H
  00138	8d 45 c4	 lea	 eax, DWORD PTR _qtRot$[ebp]
  0013b	50		 push	 eax
  0013c	e8 00 00 00 00	 call	 ?SetOrientation@ioWeapon@@QAEXABUD3DXQUATERNION@@@Z ; ioWeapon::SetOrientation
  00141	5f		 pop	 edi
  00142	5e		 pop	 esi

; 167  : }

  00143	8b 4d fc	 mov	 ecx, DWORD PTR __$ArrayPad$[ebp]
  00146	33 cd		 xor	 ecx, ebp
  00148	5b		 pop	 ebx
  00149	e8 00 00 00 00	 call	 @__security_check_cookie@4
  0014e	c9		 leave
  0014f	c2 04 00	 ret	 4
?RotateMoveDir@ioControlReturnWeapon@@QAEXM@Z ENDP	; ioControlReturnWeapon::RotateMoveDir
_TEXT	ENDS
PUBLIC	__real@bfefff2e40000000
PUBLIC	__real@bf800347
PUBLIC	__mask@@AbsDouble@
PUBLIC	_fTimePerSec$GSCopy$
PUBLIC	__$ArrayPad$
PUBLIC	?CheckOwnerControl1@ioControlReturnWeapon@@IAE_NM@Z ; ioControlReturnWeapon::CheckOwnerControl1
EXTRN	?GetMidPositionByRate@ioGameEntity@@QBE?AUD3DXVECTOR3@@M@Z:PROC ; ioGameEntity::GetMidPositionByRate
;	COMDAT __real@bfefff2e40000000
; File d:\lost saga for developer\youtube\tutorial\source\src\lsclient\ioweapon.h
CONST	SEGMENT
__real@bfefff2e40000000 DQ 0bfefff2e40000000r	; -0.9999
CONST	ENDS
;	COMDAT __real@bf800347
CONST	SEGMENT
__real@bf800347 DD 0bf800347r			; -1.0001
CONST	ENDS
;	COMDAT __mask@@AbsDouble@
CONST	SEGMENT
__mask@@AbsDouble@ DB 0ffH, 0ffH, 0ffH, 0ffH, 0ffH, 0ffH, 0ffH, 07fH, 0ffH
	DB	0ffH, 0ffH, 0ffH, 0ffH, 0ffH, 0ffH, 07fH
; Function compile flags: /Ogsp
; File d:\lost saga for developer\youtube\tutorial\source\src\lsclient\iocontrolreturnweapon.cpp
CONST	ENDS
;	COMDAT ?CheckOwnerControl1@ioControlReturnWeapon@@IAE_NM@Z
_TEXT	SEGMENT
$T530824 = -188						; size = 12
$T530835 = -176						; size = 12
_v$533758 = -164					; size = 12
_vPreCharPos$ = -152					; size = 12
$T530869 = -140						; size = 12
$T530842 = -140						; size = 12
_vCharPos$ = -128					; size = 12
_vDiff$530742 = -116					; size = 12
tv4444 = -112						; size = 8
tv5259 = -108						; size = 4
tv5255 = -108						; size = 4
tv5221 = -108						; size = 4
tv5217 = -108						; size = 4
tv5109 = -108						; size = 4
tv5105 = -108						; size = 4
tv5046 = -108						; size = 4
tv5042 = -108						; size = 4
tv4963 = -108						; size = 4
tv4959 = -108						; size = 4
tv4902 = -108						; size = 4
tv4898 = -108						; size = 4
_fLength$530805 = -108					; size = 4
_fTimePerSec$GSCopy$ = -104				; size = 4
tv4783 = -100						; size = 4
tv4174 = -100						; size = 4
_fTimeGap$530808 = -100					; size = 4
tv5251 = -96						; size = 4
tv5213 = -96						; size = 4
_fMoveSpeed$530810 = -96				; size = 4
_fLength$530748 = -96					; size = 4
tv5115 = -92						; size = 4
tv5101 = -92						; size = 4
tv5052 = -92						; size = 4
tv5038 = -92						; size = 4
tv4969 = -92						; size = 4
tv4955 = -92						; size = 4
tv4908 = -92						; size = 4
tv4894 = -92						; size = 4
tv4816 = -92						; size = 4
tv4803 = -92						; size = 4
tv4793 = -92						; size = 4
tv4789 = -92						; size = 4
tv4777 = -92						; size = 4
tv4600 = -92						; size = 4
tv4594 = -92						; size = 4
tv4590 = -92						; size = 4
tv4586 = -92						; size = 4
tv4539 = -92						; size = 4
tv4533 = -92						; size = 4
tv4529 = -92						; size = 4
tv4525 = -92						; size = 4
$T533960 = -92						; size = 4
$T533893 = -92						; size = 4
$T533632 = -92						; size = 4
$T533565 = -92						; size = 4
$T533487 = -92						; size = 4
$T533418 = -92						; size = 4
_fCurLoopTimePerSec$530812 = -92			; size = 4
_fLength2$530752 = -92					; size = 4
_pOwner$ = -92						; size = 4
_vCrossVec$530829 = -88					; size = 12
_vSideMove$530746 = -88					; size = 12
_vPos$ = -88						; size = 12
_vDiffXZDir$530826 = -76				; size = 12
_vPreCharXZ$530750 = -76				; size = 12
_vCurXZDir$530825 = -64					; size = 12
_vCharXZ$530749 = -64					; size = 12
_vTargetPos$ = -52					; size = 12
_vDiff$530803 = -40					; size = 12
_vXZDir$530751 = -40					; size = 12
_vCurDir$530807 = -28					; size = 12
_vFrontMove$530744 = -28				; size = 12
_vMove$530843 = -16					; size = 12
_vMove$530778 = -16					; size = 12
__$ArrayPad$ = -4					; size = 4
_fTimePerSec$ = 8					; size = 4
?CheckOwnerControl1@ioControlReturnWeapon@@IAE_NM@Z PROC ; ioControlReturnWeapon::CheckOwnerControl1, COMDAT
; _this$ = ecx

; 255  : {

  00000	55		 push	 ebp
  00001	8b ec		 mov	 ebp, esp
  00003	81 ec bc 00 00
	00		 sub	 esp, 188		; 000000bcH
  00009	a1 00 00 00 00	 mov	 eax, DWORD PTR ___security_cookie
  0000e	33 c5		 xor	 eax, ebp
  00010	89 45 fc	 mov	 DWORD PTR __$ArrayPad$[ebp], eax

; 258  : 
; 259  : 	if( fTimePerSec == 0.0f )

  00013	f3 0f 10 45 08	 movss	 xmm0, DWORD PTR _fTimePerSec$[ebp]
  00018	53		 push	 ebx
  00019	8b d9		 mov	 ebx, ecx
  0001b	f3 0f 11 45 98	 movss	 DWORD PTR _fTimePerSec$GSCopy$[ebp], xmm0
  00020	e8 00 00 00 00	 call	 ?GetOwner@ioWeapon@@QBEPAVioBaseChar@@XZ ; ioWeapon::GetOwner
  00025	8b c8		 mov	 ecx, eax
  00027	89 4d a4	 mov	 DWORD PTR _pOwner$[ebp], ecx
  0002a	85 c9		 test	 ecx, ecx
  0002c	75 07		 jne	 SHORT $LN44@CheckOwner

; 256  : 	ioBaseChar *pOwner = GetOwner();
; 257  : 	if( !pOwner ) return false;

  0002e	32 c0		 xor	 al, al
  00030	e9 cd 15 00 00	 jmp	 $LN45@CheckOwner
$LN44@CheckOwner:

; 258  : 
; 259  : 	if( fTimePerSec == 0.0f )

  00035	f3 0f 10 45 98	 movss	 xmm0, DWORD PTR _fTimePerSec$GSCopy$[ebp]
  0003a	0f 2e 05 00 00
	00 00		 ucomiss xmm0, DWORD PTR __real@00000000
  00041	9f		 lahf
  00042	f6 c4 44	 test	 ah, 68			; 00000044H
  00045	7a 37		 jp	 SHORT $LN43@CheckOwner

; 260  : 	{
; 261  : 		fTimePerSec = FLOAT0001;

  00047	b8 01 00 00 00	 mov	 eax, 1
  0004c	8b d0		 mov	 edx, eax
  0004e	b8 e8 03 00 00	 mov	 eax, 1000		; 000003e8H
  00053	89 55 94	 mov	 DWORD PTR tv5259[ebp], edx
  00056	db 45 94	 fild	 DWORD PTR tv5259[ebp]
  00059	85 d2		 test	 edx, edx
  0005b	79 06		 jns	 SHORT $LN331@CheckOwner
  0005d	d8 05 00 00 00
	00		 fadd	 DWORD PTR __real@4f800000
$LN331@CheckOwner:
  00063	89 45 94	 mov	 DWORD PTR tv5255[ebp], eax
  00066	db 45 94	 fild	 DWORD PTR tv5255[ebp]
  00069	85 c0		 test	 eax, eax
  0006b	79 06		 jns	 SHORT $LN332@CheckOwner
  0006d	d8 05 00 00 00
	00		 fadd	 DWORD PTR __real@4f800000
$LN332@CheckOwner:
  00073	de f9		 fdivp	 ST(1), ST(0)
  00075	d9 5d a0	 fstp	 DWORD PTR tv5251[ebp]
  00078	d9 45 a0	 fld	 DWORD PTR tv5251[ebp]
  0007b	d9 5d 98	 fstp	 DWORD PTR _fTimePerSec$GSCopy$[ebp]
$LN43@CheckOwner:

; 262  : 	}
; 263  : 
; 264  : 	D3DXVECTOR3 vCharPos = pOwner->GetWorldPosition();

  0007e	8b 01		 mov	 eax, DWORD PTR [ecx]
  00080	56		 push	 esi
  00081	57		 push	 edi
  00082	ff 50 70	 call	 DWORD PTR [eax+112]
  00085	8b f0		 mov	 esi, eax

; 265  : 	D3DXVECTOR3 vPreCharPos = pOwner->GetPrePosition();
; 266  : 
; 267  : 	D3DXVECTOR3 vPos = GetPosition();

  00087	8b 03		 mov	 eax, DWORD PTR [ebx]
  00089	8d 7d 80	 lea	 edi, DWORD PTR _vCharPos$[ebp]
  0008c	a5		 movsd
  0008d	a5		 movsd
  0008e	a5		 movsd
  0008f	8b 75 a4	 mov	 esi, DWORD PTR _pOwner$[ebp]
  00092	81 c6 f0 06 00
	00		 add	 esi, 1776		; 000006f0H
  00098	8d bd 68 ff ff
	ff		 lea	 edi, DWORD PTR _vPreCharPos$[ebp]
  0009e	a5		 movsd
  0009f	a5		 movsd
  000a0	8b cb		 mov	 ecx, ebx
  000a2	a5		 movsd
  000a3	ff 50 70	 call	 DWORD PTR [eax+112]
  000a6	8b f0		 mov	 esi, eax
  000a8	8d 7d a8	 lea	 edi, DWORD PTR _vPos$[ebp]
  000ab	a5		 movsd
  000ac	a5		 movsd
  000ad	a5		 movsd

; 268  : 	D3DXVECTOR3 vTargetPos = pOwner->GetMidPositionByRate();

  000ae	b8 05 00 00 00	 mov	 eax, 5
  000b3	8b c8		 mov	 ecx, eax
  000b5	b8 0a 00 00 00	 mov	 eax, 10			; 0000000aH
  000ba	89 4d 94	 mov	 DWORD PTR tv5221[ebp], ecx
  000bd	db 45 94	 fild	 DWORD PTR tv5221[ebp]
  000c0	85 c9		 test	 ecx, ecx
  000c2	79 06		 jns	 SHORT $LN333@CheckOwner
  000c4	d8 05 00 00 00
	00		 fadd	 DWORD PTR __real@4f800000
$LN333@CheckOwner:
  000ca	89 45 94	 mov	 DWORD PTR tv5217[ebp], eax
  000cd	db 45 94	 fild	 DWORD PTR tv5217[ebp]
  000d0	85 c0		 test	 eax, eax
  000d2	79 06		 jns	 SHORT $LN334@CheckOwner
  000d4	d8 05 00 00 00
	00		 fadd	 DWORD PTR __real@4f800000
$LN334@CheckOwner:
  000da	de f9		 fdivp	 ST(1), ST(0)
  000dc	51		 push	 ecx
  000dd	8b 4d a4	 mov	 ecx, DWORD PTR _pOwner$[ebp]
  000e0	8d 45 cc	 lea	 eax, DWORD PTR _vTargetPos$[ebp]
  000e3	d9 5d a0	 fstp	 DWORD PTR tv5213[ebp]
  000e6	d9 45 a0	 fld	 DWORD PTR tv5213[ebp]
  000e9	d9 1c 24	 fstp	 DWORD PTR [esp]
  000ec	50		 push	 eax
  000ed	e8 00 00 00 00	 call	 ?GetMidPositionByRate@ioGameEntity@@QBE?AUD3DXVECTOR3@@M@Z ; ioGameEntity::GetMidPositionByRate

; 269  : 
; 270  : 	if( m_ReturnState == TRS_NONE )

  000f2	83 bb 94 08 00
	00 00		 cmp	 DWORD PTR [ebx+2196], 0
  000f9	0f 85 70 0a 00
	00		 jne	 $LN42@CheckOwner

; 271  : 	{
; 272  : 		D3DXVECTOR3 vDiff = vCharPos - vPreCharPos;

  000ff	f3 0f 10 45 80	 movss	 xmm0, DWORD PTR _vCharPos$[ebp]
  00104	f3 0f 10 8d 68
	ff ff ff	 movss	 xmm1, DWORD PTR _vPreCharPos$[ebp]
  0010c	0f 5a c9	 cvtps2pd xmm1, xmm1
  0010f	0f 5a c0	 cvtps2pd xmm0, xmm0
  00112	f2 0f 5c c1	 subsd	 xmm0, xmm1
  00116	f3 0f 10 8d 6c
	ff ff ff	 movss	 xmm1, DWORD PTR _vPreCharPos$[ebp+4]
  0011e	0f 5a c9	 cvtps2pd xmm1, xmm1
  00121	66 0f 5a c0	 cvtpd2ps xmm0, xmm0
  00125	f3 0f 11 45 8c	 movss	 DWORD PTR _vDiff$530742[ebp], xmm0
  0012a	f3 0f 10 45 84	 movss	 xmm0, DWORD PTR _vCharPos$[ebp+4]
  0012f	0f 5a c0	 cvtps2pd xmm0, xmm0
  00132	f2 0f 5c c1	 subsd	 xmm0, xmm1
  00136	f3 0f 10 8d 70
	ff ff ff	 movss	 xmm1, DWORD PTR _vPreCharPos$[ebp+8]
  0013e	0f 5a c9	 cvtps2pd xmm1, xmm1
  00141	f2 0f 5a c0	 cvtsd2ss xmm0, xmm0
  00145	f3 0f 11 45 9c	 movss	 DWORD PTR tv4174[ebp], xmm0
  0014a	f3 0f 11 45 90	 movss	 DWORD PTR _vDiff$530742[ebp+4], xmm0
  0014f	f3 0f 10 45 88	 movss	 xmm0, DWORD PTR _vCharPos$[ebp+8]
  00154	0f 5a c0	 cvtps2pd xmm0, xmm0
  00157	f2 0f 5c c1	 subsd	 xmm0, xmm1

; 273  : 		D3DXVECTOR3 vFrontMove = m_fCurMoveDistance * m_vCurMoveDir;

  0015b	f3 0f 10 8b ac
	08 00 00	 movss	 xmm1, DWORD PTR [ebx+2220]
  00163	0f 5a c9	 cvtps2pd xmm1, xmm1
  00166	66 0f 5a c0	 cvtpd2ps xmm0, xmm0
  0016a	f3 0f 11 45 94	 movss	 DWORD PTR _vDiff$530742[ebp+8], xmm0
  0016f	f3 0f 10 83 dc
	08 00 00	 movss	 xmm0, DWORD PTR [ebx+2268]
  00177	0f 5a d0	 cvtps2pd xmm2, xmm0
  0017a	f2 0f 59 ca	 mulsd	 xmm1, xmm2
  0017e	66 0f 5a c9	 cvtpd2ps xmm1, xmm1
  00182	f3 0f 11 4d e4	 movss	 DWORD PTR _vFrontMove$530744[ebp], xmm1
  00187	f3 0f 10 8b b0
	08 00 00	 movss	 xmm1, DWORD PTR [ebx+2224]
  0018f	0f 5a c9	 cvtps2pd xmm1, xmm1
  00192	0f 5a d0	 cvtps2pd xmm2, xmm0
  00195	f2 0f 59 ca	 mulsd	 xmm1, xmm2

; 274  : 		D3DXVECTOR3 vSideMove = D3DXVECTOR3( 0.0f, 0.0f, 0.0f );
; 275  : 
; 276  : 		float fLength = m_fControlSpeed * fTimePerSec;

  00199	f3 0f 10 55 98	 movss	 xmm2, DWORD PTR _fTimePerSec$GSCopy$[ebp]
  0019e	66 0f 5a c9	 cvtpd2ps xmm1, xmm1
  001a2	f3 0f 11 4d e8	 movss	 DWORD PTR _vFrontMove$530744[ebp+4], xmm1
  001a7	f3 0f 10 8b b4
	08 00 00	 movss	 xmm1, DWORD PTR [ebx+2228]
  001af	0f 5a c9	 cvtps2pd xmm1, xmm1

; 277  : 
; 278  : 		// 
; 279  : 		D3DXVECTOR3 vCharXZ = vCharPos;

  001b2	8d 75 80	 lea	 esi, DWORD PTR _vCharPos$[ebp]
  001b5	8d 7d c0	 lea	 edi, DWORD PTR _vCharXZ$530749[ebp]
  001b8	a5		 movsd
  001b9	0f 5a c0	 cvtps2pd xmm0, xmm0
  001bc	f2 0f 59 c8	 mulsd	 xmm1, xmm0
  001c0	0f 57 c0	 xorps	 xmm0, xmm0
  001c3	66 0f 5a c1	 cvtpd2ps xmm0, xmm1
  001c7	f3 0f 10 8b 28
	09 00 00	 movss	 xmm1, DWORD PTR [ebx+2344]
  001cf	a5		 movsd

; 280  : 		vCharXZ.y = 0.0f;
; 281  : 		D3DXVec3Normalize( &vCharXZ, &vCharXZ );

  001d0	8d 45 c0	 lea	 eax, DWORD PTR _vCharXZ$530749[ebp]
  001d3	0f 5a c9	 cvtps2pd xmm1, xmm1
  001d6	0f 5a d2	 cvtps2pd xmm2, xmm2
  001d9	50		 push	 eax
  001da	f3 0f 11 45 ec	 movss	 DWORD PTR _vFrontMove$530744[ebp+8], xmm0
  001df	0f 57 c0	 xorps	 xmm0, xmm0
  001e2	f2 0f 59 ca	 mulsd	 xmm1, xmm2
  001e6	66 0f 5a c9	 cvtpd2ps xmm1, xmm1
  001ea	a5		 movsd
  001eb	50		 push	 eax
  001ec	f3 0f 11 45 a8	 movss	 DWORD PTR _vSideMove$530746[ebp], xmm0
  001f1	f3 0f 11 45 ac	 movss	 DWORD PTR _vSideMove$530746[ebp+4], xmm0
  001f6	f3 0f 11 45 b0	 movss	 DWORD PTR _vSideMove$530746[ebp+8], xmm0
  001fb	f3 0f 11 4d a0	 movss	 DWORD PTR _fLength$530748[ebp], xmm1
  00200	f3 0f 11 45 c4	 movss	 DWORD PTR _vCharXZ$530749[ebp+4], xmm0
  00205	e8 00 00 00 00	 call	 _D3DXVec3Normalize@8

; 282  : 		D3DXVECTOR3 vPreCharXZ = vPreCharPos;
; 283  : 		vPreCharXZ.y = 0.0f;

  0020a	0f 57 c0	 xorps	 xmm0, xmm0
  0020d	8d b5 68 ff ff
	ff		 lea	 esi, DWORD PTR _vPreCharPos$[ebp]
  00213	8d 7d b4	 lea	 edi, DWORD PTR _vPreCharXZ$530750[ebp]
  00216	a5		 movsd
  00217	a5		 movsd

; 284  : 		D3DXVec3Normalize( &vPreCharXZ, &vPreCharXZ );

  00218	8d 45 b4	 lea	 eax, DWORD PTR _vPreCharXZ$530750[ebp]
  0021b	50		 push	 eax
  0021c	a5		 movsd
  0021d	50		 push	 eax
  0021e	f3 0f 11 45 b8	 movss	 DWORD PTR _vPreCharXZ$530750[ebp+4], xmm0
  00223	e8 00 00 00 00	 call	 _D3DXVec3Normalize@8

; 285  : 
; 286  : 		D3DXVECTOR3 vXZDir = vDiff;
; 287  : 		vXZDir.y = 0.0f;

  00228	0f 57 c0	 xorps	 xmm0, xmm0
  0022b	8d 75 8c	 lea	 esi, DWORD PTR _vDiff$530742[ebp]
  0022e	8d 7d d8	 lea	 edi, DWORD PTR _vXZDir$530751[ebp]
  00231	a5		 movsd
  00232	a5		 movsd
  00233	a5		 movsd
  00234	f3 0f 11 45 dc	 movss	 DWORD PTR _vXZDir$530751[ebp+4], xmm0
  00239	f3 0f 10 45 d8	 movss	 xmm0, DWORD PTR _vXZDir$530751[ebp]

; 288  : 
; 289  : 		float fLength2 = D3DXVec3Length( &vXZDir );

  0023e	f3 0f 10 4d e0	 movss	 xmm1, DWORD PTR _vXZDir$530751[ebp+8]
  00243	0f 5a c0	 cvtps2pd xmm0, xmm0
  00246	f2 0f 59 c0	 mulsd	 xmm0, xmm0
  0024a	f2 0f 11 45 90	 movsd	 QWORD PTR tv4444[ebp], xmm0
  0024f	0f 57 c0	 xorps	 xmm0, xmm0
  00252	f2 0f 10 55 90	 movsd	 xmm2, QWORD PTR tv4444[ebp]
  00257	f2 0f 59 c0	 mulsd	 xmm0, xmm0
  0025b	f2 0f 58 d0	 addsd	 xmm2, xmm0
  0025f	0f 57 c0	 xorps	 xmm0, xmm0
  00262	0f 5a c9	 cvtps2pd xmm1, xmm1
  00265	f2 0f 59 c9	 mulsd	 xmm1, xmm1

; 290  : 		D3DXVec3Normalize( &vXZDir, &vXZDir );

  00269	8d 45 d8	 lea	 eax, DWORD PTR _vXZDir$530751[ebp]
  0026c	f2 0f 58 d1	 addsd	 xmm2, xmm1
  00270	66 0f 5a c2	 cvtpd2ps xmm0, xmm2
  00274	0f 5a c0	 cvtps2pd xmm0, xmm0
  00277	50		 push	 eax
  00278	f2 0f 51 c0	 sqrtsd	 xmm0, xmm0
  0027c	66 0f 5a c0	 cvtpd2ps xmm0, xmm0
  00280	50		 push	 eax
  00281	f3 0f 11 45 a4	 movss	 DWORD PTR _fLength2$530752[ebp], xmm0
  00286	e8 00 00 00 00	 call	 _D3DXVec3Normalize@8

; 291  : 
; 292  : 		if( vCharXZ != vPreCharXZ && m_vMoveDir != vXZDir )

  0028b	f3 0f 10 45 c0	 movss	 xmm0, DWORD PTR _vCharXZ$530749[ebp]
  00290	f3 0f 10 4d b4	 movss	 xmm1, DWORD PTR _vPreCharXZ$530750[ebp]
  00295	0f 5a c0	 cvtps2pd xmm0, xmm0
  00298	0f 5a c9	 cvtps2pd xmm1, xmm1
  0029b	66 0f 2e c1	 ucomisd xmm0, xmm1
  0029f	9f		 lahf
  002a0	f6 c4 44	 test	 ah, 68			; 00000044H
  002a3	7a 38		 jp	 SHORT $LN73@CheckOwner
  002a5	f3 0f 10 45 c4	 movss	 xmm0, DWORD PTR _vCharXZ$530749[ebp+4]
  002aa	f3 0f 10 4d b8	 movss	 xmm1, DWORD PTR _vPreCharXZ$530750[ebp+4]
  002af	0f 5a c0	 cvtps2pd xmm0, xmm0
  002b2	0f 5a c9	 cvtps2pd xmm1, xmm1
  002b5	66 0f 2e c1	 ucomisd xmm0, xmm1
  002b9	9f		 lahf
  002ba	f6 c4 44	 test	 ah, 68			; 00000044H
  002bd	7a 1e		 jp	 SHORT $LN73@CheckOwner
  002bf	f3 0f 10 45 c8	 movss	 xmm0, DWORD PTR _vCharXZ$530749[ebp+8]
  002c4	f3 0f 10 4d bc	 movss	 xmm1, DWORD PTR _vPreCharXZ$530750[ebp+8]
  002c9	0f 5a c0	 cvtps2pd xmm0, xmm0
  002cc	0f 5a c9	 cvtps2pd xmm1, xmm1
  002cf	66 0f 2e c1	 ucomisd xmm0, xmm1
  002d3	9f		 lahf
  002d4	f6 c4 44	 test	 ah, 68			; 00000044H
  002d7	0f 8b df 00 00
	00		 jnp	 $LN41@CheckOwner
$LN73@CheckOwner:
  002dd	f3 0f 10 83 a0
	08 00 00	 movss	 xmm0, DWORD PTR [ebx+2208]
  002e5	f3 0f 10 4d d8	 movss	 xmm1, DWORD PTR _vXZDir$530751[ebp]
  002ea	0f 5a c0	 cvtps2pd xmm0, xmm0
  002ed	0f 5a c9	 cvtps2pd xmm1, xmm1
  002f0	66 0f 2e c1	 ucomisd xmm0, xmm1
  002f4	9f		 lahf
  002f5	f6 c4 44	 test	 ah, 68			; 00000044H
  002f8	7a 3e		 jp	 SHORT $LN77@CheckOwner
  002fa	f3 0f 10 83 a4
	08 00 00	 movss	 xmm0, DWORD PTR [ebx+2212]
  00302	f3 0f 10 4d dc	 movss	 xmm1, DWORD PTR _vXZDir$530751[ebp+4]
  00307	0f 5a c0	 cvtps2pd xmm0, xmm0
  0030a	0f 5a c9	 cvtps2pd xmm1, xmm1
  0030d	66 0f 2e c1	 ucomisd xmm0, xmm1
  00311	9f		 lahf
  00312	f6 c4 44	 test	 ah, 68			; 00000044H
  00315	7a 21		 jp	 SHORT $LN77@CheckOwner
  00317	f3 0f 10 83 a8
	08 00 00	 movss	 xmm0, DWORD PTR [ebx+2216]
  0031f	f3 0f 10 4d e0	 movss	 xmm1, DWORD PTR _vXZDir$530751[ebp+8]
  00324	0f 5a c0	 cvtps2pd xmm0, xmm0
  00327	0f 5a c9	 cvtps2pd xmm1, xmm1
  0032a	66 0f 2e c1	 ucomisd xmm0, xmm1
  0032e	9f		 lahf
  0032f	f6 c4 44	 test	 ah, 68			; 00000044H
  00332	0f 8b 84 00 00
	00		 jnp	 $LN41@CheckOwner
$LN77@CheckOwner:

; 293  : 		{
; 294  : 			float fDotValue = D3DXVec3Dot( &m_vCrossVec, &vXZDir );
; 295  : 			float fNewLength = fDotValue * fLength2;
; 296  : 
; 297  : 			m_fControlValue += fNewLength;

  00338	f3 0f 10 83 34
	09 00 00	 movss	 xmm0, DWORD PTR [ebx+2356]
  00340	f3 0f 10 4d dc	 movss	 xmm1, DWORD PTR _vXZDir$530751[ebp+4]
  00345	f3 0f 10 93 30
	09 00 00	 movss	 xmm2, DWORD PTR [ebx+2352]
  0034d	0f 5a c9	 cvtps2pd xmm1, xmm1
  00350	0f 5a c0	 cvtps2pd xmm0, xmm0
  00353	f2 0f 59 c1	 mulsd	 xmm0, xmm1
  00357	f3 0f 10 4d d8	 movss	 xmm1, DWORD PTR _vXZDir$530751[ebp]
  0035c	0f 5a c9	 cvtps2pd xmm1, xmm1
  0035f	0f 5a d2	 cvtps2pd xmm2, xmm2
  00362	f2 0f 59 ca	 mulsd	 xmm1, xmm2
  00366	f3 0f 10 55 e0	 movss	 xmm2, DWORD PTR _vXZDir$530751[ebp+8]
  0036b	f2 0f 58 c1	 addsd	 xmm0, xmm1
  0036f	f3 0f 10 8b 38
	09 00 00	 movss	 xmm1, DWORD PTR [ebx+2360]
  00377	0f 5a c9	 cvtps2pd xmm1, xmm1
  0037a	0f 5a d2	 cvtps2pd xmm2, xmm2
  0037d	f2 0f 59 ca	 mulsd	 xmm1, xmm2
  00381	f2 0f 58 c1	 addsd	 xmm0, xmm1
  00385	f3 0f 10 4d a4	 movss	 xmm1, DWORD PTR _fLength2$530752[ebp]
  0038a	66 0f 5a c0	 cvtpd2ps xmm0, xmm0
  0038e	f3 0f 5a c0	 cvtss2sd xmm0, xmm0
  00392	0f 5a c9	 cvtps2pd xmm1, xmm1
  00395	f2 0f 59 c1	 mulsd	 xmm0, xmm1
  00399	f3 0f 10 8b 3c
	09 00 00	 movss	 xmm1, DWORD PTR [ebx+2364]
  003a1	66 0f 5a c0	 cvtpd2ps xmm0, xmm0
  003a5	f3 0f 5a c0	 cvtss2sd xmm0, xmm0
  003a9	0f 5a c9	 cvtps2pd xmm1, xmm1
  003ac	f2 0f 58 c1	 addsd	 xmm0, xmm1
  003b0	66 0f 5a c0	 cvtpd2ps xmm0, xmm0
  003b4	f3 0f 11 83 3c
	09 00 00	 movss	 DWORD PTR [ebx+2364], xmm0
$LN41@CheckOwner:

; 298  : 		}
; 299  : 
; 300  : 		if( fabs(m_fControlValue) > FLOAT0001 && fLength <= fabs(m_fControlValue) )

  003bc	d9 83 3c 09 00
	00		 fld	 DWORD PTR [ebx+2364]
  003c2	d9 e1		 fabs
  003c4	d9 5d a4	 fstp	 DWORD PTR tv5115[ebp]
  003c7	d9 45 a4	 fld	 DWORD PTR tv5115[ebp]
  003ca	d9 5d a4	 fstp	 DWORD PTR $T533418[ebp]
  003cd	b8 01 00 00 00	 mov	 eax, 1
  003d2	8b c8		 mov	 ecx, eax
  003d4	b8 e8 03 00 00	 mov	 eax, 1000		; 000003e8H
  003d9	d9 45 a4	 fld	 DWORD PTR $T533418[ebp]
  003dc	89 4d 94	 mov	 DWORD PTR tv5109[ebp], ecx
  003df	db 45 94	 fild	 DWORD PTR tv5109[ebp]
  003e2	85 c9		 test	 ecx, ecx
  003e4	79 06		 jns	 SHORT $LN335@CheckOwner
  003e6	d8 05 00 00 00
	00		 fadd	 DWORD PTR __real@4f800000
$LN335@CheckOwner:
  003ec	89 45 94	 mov	 DWORD PTR tv5105[ebp], eax
  003ef	db 45 94	 fild	 DWORD PTR tv5105[ebp]
  003f2	85 c0		 test	 eax, eax
  003f4	79 06		 jns	 SHORT $LN336@CheckOwner
  003f6	d8 05 00 00 00
	00		 fadd	 DWORD PTR __real@4f800000
$LN336@CheckOwner:
  003fc	de f9		 fdivp	 ST(1), ST(0)
  003fe	f3 0f 10 05 00
	00 00 00	 movss	 xmm0, DWORD PTR __mask@@NegFloat@
  00406	f3 0f 10 6d a0	 movss	 xmm5, DWORD PTR _fLength$530748[ebp]
  0040b	d9 5d a4	 fstp	 DWORD PTR tv5101[ebp]
  0040e	d9 45 a4	 fld	 DWORD PTR tv5101[ebp]
  00411	d9 c9		 fxch	 ST(1)
  00413	df f1		 fcomip	 ST(1)
  00415	dd d8		 fstp	 ST(0)
  00417	0f 86 8d 01 00
	00		 jbe	 $LN40@CheckOwner
  0041d	f3 0f 10 bb 3c
	09 00 00	 movss	 xmm7, DWORD PTR [ebx+2364]
  00425	f2 0f 10 1d 00
	00 00 00	 movsd	 xmm3, QWORD PTR __mask@@AbsDouble@
  0042d	0f 5a d7	 cvtps2pd xmm2, xmm7
  00430	66 0f 54 d3	 andpd	 xmm2, xmm3
  00434	0f 57 c9	 xorps	 xmm1, xmm1
  00437	f2 0f 5a d2	 cvtsd2ss xmm2, xmm2
  0043b	0f 5a cd	 cvtps2pd xmm1, xmm5
  0043e	f3 0f 5a d2	 cvtss2sd xmm2, xmm2
  00442	66 0f 2f d1	 comisd	 xmm2, xmm1
  00446	0f 82 5e 01 00
	00		 jb	 $LN40@CheckOwner

; 301  : 		{
; 302  : 			if( m_fControlValue < 0.0f )

  0044c	0f 57 c9	 xorps	 xmm1, xmm1
  0044f	0f 2f cf	 comiss	 xmm1, xmm7
  00452	0f 86 a7 00 00
	00		 jbe	 $LN39@CheckOwner

; 303  : 			{
; 304  : 				vSideMove += (fLength*fTimePerSec) * (-m_vCrossVec);

  00458	f3 0f 10 8b 30
	09 00 00	 movss	 xmm1, DWORD PTR [ebx+2352]
  00460	f3 0f 10 93 34
	09 00 00	 movss	 xmm2, DWORD PTR [ebx+2356]
  00468	f3 0f 10 9b 38
	09 00 00	 movss	 xmm3, DWORD PTR [ebx+2360]
  00470	0f 57 c8	 xorps	 xmm1, xmm0
  00473	0f 57 d0	 xorps	 xmm2, xmm0
  00476	0f 57 d8	 xorps	 xmm3, xmm0
  00479	f3 0f 10 45 98	 movss	 xmm0, DWORD PTR _fTimePerSec$GSCopy$[ebp]
  0047e	0f 5a e5	 cvtps2pd xmm4, xmm5
  00481	0f 5a c9	 cvtps2pd xmm1, xmm1
  00484	0f 5a c0	 cvtps2pd xmm0, xmm0
  00487	f2 0f 59 c4	 mulsd	 xmm0, xmm4
  0048b	f2 0f 5a c0	 cvtsd2ss xmm0, xmm0
  0048f	0f 57 e4	 xorps	 xmm4, xmm4
  00492	f3 0f 5a e0	 cvtss2sd xmm4, xmm0
  00496	f2 0f 59 cc	 mulsd	 xmm1, xmm4
  0049a	0f 5a d2	 cvtps2pd xmm2, xmm2
  0049d	0f 57 e4	 xorps	 xmm4, xmm4
  004a0	f3 0f 5a e0	 cvtss2sd xmm4, xmm0
  004a4	f2 0f 59 d4	 mulsd	 xmm2, xmm4
  004a8	66 0f 5a c9	 cvtpd2ps xmm1, xmm1
  004ac	f3 0f 5a c9	 cvtss2sd xmm1, xmm1
  004b0	f3 0f 5a c0	 cvtss2sd xmm0, xmm0
  004b4	66 0f 5a e2	 cvtpd2ps xmm4, xmm2
  004b8	0f 5a d3	 cvtps2pd xmm2, xmm3
  004bb	f2 0f 59 d0	 mulsd	 xmm2, xmm0
  004bf	0f 57 c0	 xorps	 xmm0, xmm0
  004c2	f2 0f 58 c8	 addsd	 xmm1, xmm0
  004c6	66 0f 5a f2	 cvtpd2ps xmm6, xmm2
  004ca	0f 57 d2	 xorps	 xmm2, xmm2
  004cd	66 0f 5a d1	 cvtpd2ps xmm2, xmm1
  004d1	0f 57 db	 xorps	 xmm3, xmm3
  004d4	0f 5a cc	 cvtps2pd xmm1, xmm4
  004d7	f2 0f 58 c8	 addsd	 xmm1, xmm0
  004db	66 0f 5a d9	 cvtpd2ps xmm3, xmm1

; 305  : 				m_fControlValue += fLength;

  004df	0f 57 e4	 xorps	 xmm4, xmm4
  004e2	0f 5a e5	 cvtps2pd xmm4, xmm5
  004e5	0f 5a ce	 cvtps2pd xmm1, xmm6
  004e8	f2 0f 58 c8	 addsd	 xmm1, xmm0
  004ec	0f 57 c0	 xorps	 xmm0, xmm0
  004ef	66 0f 5a c1	 cvtpd2ps xmm0, xmm1
  004f3	0f 5a cf	 cvtps2pd xmm1, xmm7
  004f6	f2 0f 58 cc	 addsd	 xmm1, xmm4
  004fa	e9 a2 00 00 00	 jmp	 $LN365@CheckOwner
$LN39@CheckOwner:

; 306  : 			}
; 307  : 			else if( m_fControlValue > 0.0f )

  004ff	0f 2f f9	 comiss	 xmm7, xmm1
  00502	0f 86 f6 01 00
	00		 jbe	 $LN328@CheckOwner

; 308  : 			{
; 309  : 				vSideMove += (fLength*fTimePerSec) * m_vCrossVec;

  00508	f3 0f 10 45 98	 movss	 xmm0, DWORD PTR _fTimePerSec$GSCopy$[ebp]
  0050d	f3 0f 10 93 30
	09 00 00	 movss	 xmm2, DWORD PTR [ebx+2352]
  00515	0f 5a cd	 cvtps2pd xmm1, xmm5
  00518	0f 5a c0	 cvtps2pd xmm0, xmm0
  0051b	f2 0f 59 c1	 mulsd	 xmm0, xmm1
  0051f	0f 57 c9	 xorps	 xmm1, xmm1
  00522	f2 0f 5a c0	 cvtsd2ss xmm0, xmm0
  00526	f3 0f 5a c8	 cvtss2sd xmm1, xmm0
  0052a	0f 5a d2	 cvtps2pd xmm2, xmm2
  0052d	f2 0f 59 ca	 mulsd	 xmm1, xmm2
  00531	f3 0f 10 93 34
	09 00 00	 movss	 xmm2, DWORD PTR [ebx+2356]
  00539	0f 57 db	 xorps	 xmm3, xmm3
  0053c	f3 0f 5a d8	 cvtss2sd xmm3, xmm0
  00540	0f 5a d2	 cvtps2pd xmm2, xmm2
  00543	f2 0f 59 d3	 mulsd	 xmm2, xmm3
  00547	66 0f 5a c9	 cvtpd2ps xmm1, xmm1
  0054b	f3 0f 5a c9	 cvtss2sd xmm1, xmm1
  0054f	f3 0f 5a c0	 cvtss2sd xmm0, xmm0
  00553	66 0f 5a da	 cvtpd2ps xmm3, xmm2
  00557	f3 0f 10 93 38
	09 00 00	 movss	 xmm2, DWORD PTR [ebx+2360]
  0055f	0f 5a d2	 cvtps2pd xmm2, xmm2
  00562	f2 0f 59 d0	 mulsd	 xmm2, xmm0
  00566	0f 57 c0	 xorps	 xmm0, xmm0
  00569	f2 0f 58 c8	 addsd	 xmm1, xmm0
  0056d	66 0f 5a e2	 cvtpd2ps xmm4, xmm2
  00571	0f 57 d2	 xorps	 xmm2, xmm2
  00574	66 0f 5a d1	 cvtpd2ps xmm2, xmm1
  00578	0f 5a cb	 cvtps2pd xmm1, xmm3
  0057b	f2 0f 58 c8	 addsd	 xmm1, xmm0
  0057f	0f 57 db	 xorps	 xmm3, xmm3
  00582	66 0f 5a d9	 cvtpd2ps xmm3, xmm1
  00586	0f 5a cc	 cvtps2pd xmm1, xmm4
  00589	f2 0f 58 c8	 addsd	 xmm1, xmm0
  0058d	0f 57 c0	 xorps	 xmm0, xmm0
  00590	66 0f 5a c1	 cvtpd2ps xmm0, xmm1

; 310  : 				m_fControlValue -= fLength;

  00594	0f 57 e4	 xorps	 xmm4, xmm4
  00597	0f 5a e5	 cvtps2pd xmm4, xmm5
  0059a	0f 5a cf	 cvtps2pd xmm1, xmm7
  0059d	f2 0f 5c cc	 subsd	 xmm1, xmm4
$LN365@CheckOwner:
  005a1	66 0f 5a c9	 cvtpd2ps xmm1, xmm1

; 311  : 			}
; 312  : 		}

  005a5	e9 f9 00 00 00	 jmp	 $LN353@CheckOwner
$LN40@CheckOwner:

; 313  : 		else if( fabs(m_fControlValue) > FLOAT0001 )

  005aa	d9 83 3c 09 00
	00		 fld	 DWORD PTR [ebx+2364]
  005b0	d9 5d a4	 fstp	 DWORD PTR $T533487[ebp]
  005b3	b8 01 00 00 00	 mov	 eax, 1
  005b8	8b c8		 mov	 ecx, eax
  005ba	b8 e8 03 00 00	 mov	 eax, 1000		; 000003e8H
  005bf	d9 45 a4	 fld	 DWORD PTR $T533487[ebp]
  005c2	d9 e1		 fabs
  005c4	89 4d 94	 mov	 DWORD PTR tv5046[ebp], ecx
  005c7	d9 5d a4	 fstp	 DWORD PTR tv5052[ebp]
  005ca	d9 45 a4	 fld	 DWORD PTR tv5052[ebp]
  005cd	db 45 94	 fild	 DWORD PTR tv5046[ebp]
  005d0	85 c9		 test	 ecx, ecx
  005d2	79 06		 jns	 SHORT $LN337@CheckOwner
  005d4	d8 05 00 00 00
	00		 fadd	 DWORD PTR __real@4f800000
$LN337@CheckOwner:
  005da	89 45 94	 mov	 DWORD PTR tv5042[ebp], eax
  005dd	db 45 94	 fild	 DWORD PTR tv5042[ebp]
  005e0	85 c0		 test	 eax, eax
  005e2	79 06		 jns	 SHORT $LN338@CheckOwner
  005e4	d8 05 00 00 00
	00		 fadd	 DWORD PTR __real@4f800000
$LN338@CheckOwner:
  005ea	de f9		 fdivp	 ST(1), ST(0)
  005ec	d9 5d a4	 fstp	 DWORD PTR tv5038[ebp]
  005ef	d9 45 a4	 fld	 DWORD PTR tv5038[ebp]
  005f2	d9 c9		 fxch	 ST(1)
  005f4	df f1		 fcomip	 ST(1)
  005f6	dd d8		 fstp	 ST(0)
  005f8	0f 86 00 01 00
	00		 jbe	 $LN328@CheckOwner

; 314  : 		{
; 315  : 			if( m_fControlValue < 0.0f )

  005fe	f3 0f 10 93 3c
	09 00 00	 movss	 xmm2, DWORD PTR [ebx+2364]
  00606	0f 57 c9	 xorps	 xmm1, xmm1
  00609	0f 2f ca	 comiss	 xmm1, xmm2
  0060c	0f 86 9b 00 00
	00		 jbe	 $LN34@CheckOwner

; 316  : 			{
; 317  : 				vSideMove += (fLength*fTimePerSec) * (-m_vCrossVec);

  00612	f3 0f 10 93 30
	09 00 00	 movss	 xmm2, DWORD PTR [ebx+2352]
  0061a	f3 0f 10 9b 34
	09 00 00	 movss	 xmm3, DWORD PTR [ebx+2356]
  00622	f3 0f 10 a3 38
	09 00 00	 movss	 xmm4, DWORD PTR [ebx+2360]
  0062a	0f 57 d0	 xorps	 xmm2, xmm0
  0062d	0f 57 d8	 xorps	 xmm3, xmm0
  00630	0f 57 e0	 xorps	 xmm4, xmm0
  00633	f3 0f 10 45 98	 movss	 xmm0, DWORD PTR _fTimePerSec$GSCopy$[ebp]
  00638	0f 5a ed	 cvtps2pd xmm5, xmm5
  0063b	0f 5a c0	 cvtps2pd xmm0, xmm0
  0063e	f2 0f 59 c5	 mulsd	 xmm0, xmm5
  00642	0f 57 ed	 xorps	 xmm5, xmm5
  00645	f2 0f 5a c0	 cvtsd2ss xmm0, xmm0
  00649	f3 0f 5a e8	 cvtss2sd xmm5, xmm0
  0064d	0f 5a d2	 cvtps2pd xmm2, xmm2
  00650	f2 0f 59 d5	 mulsd	 xmm2, xmm5
  00654	0f 57 ed	 xorps	 xmm5, xmm5
  00657	0f 5a db	 cvtps2pd xmm3, xmm3
  0065a	f3 0f 5a e8	 cvtss2sd xmm5, xmm0
  0065e	f2 0f 59 dd	 mulsd	 xmm3, xmm5
$LN366@CheckOwner:
  00662	0f 5a e4	 cvtps2pd xmm4, xmm4
  00665	f3 0f 5a c0	 cvtss2sd xmm0, xmm0
  00669	f2 0f 59 e0	 mulsd	 xmm4, xmm0
  0066d	0f 57 c0	 xorps	 xmm0, xmm0
  00670	66 0f 5a db	 cvtpd2ps xmm3, xmm3
  00674	66 0f 5a d2	 cvtpd2ps xmm2, xmm2
  00678	66 0f 5a e4	 cvtpd2ps xmm4, xmm4
  0067c	f3 0f 5a d2	 cvtss2sd xmm2, xmm2
  00680	f2 0f 58 d0	 addsd	 xmm2, xmm0
  00684	f3 0f 5a db	 cvtss2sd xmm3, xmm3
  00688	f2 0f 58 d8	 addsd	 xmm3, xmm0
  0068c	f3 0f 5a e4	 cvtss2sd xmm4, xmm4
  00690	f2 0f 58 e0	 addsd	 xmm4, xmm0
  00694	0f 57 c0	 xorps	 xmm0, xmm0
  00697	66 0f 5a d2	 cvtpd2ps xmm2, xmm2
  0069b	66 0f 5a db	 cvtpd2ps xmm3, xmm3
  0069f	66 0f 5a c4	 cvtpd2ps xmm0, xmm4
$LN353@CheckOwner:

; 318  : 				m_fControlValue = 0.0f;

  006a3	f3 0f 11 8b 3c
	09 00 00	 movss	 DWORD PTR [ebx+2364], xmm1
  006ab	eb 60		 jmp	 SHORT $LN32@CheckOwner
$LN34@CheckOwner:

; 319  : 			}
; 320  : 			else if( m_fControlValue > 0.0f )

  006ad	0f 2f d1	 comiss	 xmm2, xmm1
  006b0	76 4c		 jbe	 SHORT $LN328@CheckOwner

; 321  : 			{
; 322  : 				vSideMove += (fLength*fTimePerSec) * m_vCrossVec;

  006b2	f3 0f 10 45 98	 movss	 xmm0, DWORD PTR _fTimePerSec$GSCopy$[ebp]
  006b7	f3 0f 10 9b 30
	09 00 00	 movss	 xmm3, DWORD PTR [ebx+2352]
  006bf	0f 5a d5	 cvtps2pd xmm2, xmm5
  006c2	0f 5a c0	 cvtps2pd xmm0, xmm0
  006c5	f2 0f 59 c2	 mulsd	 xmm0, xmm2
  006c9	0f 5a db	 cvtps2pd xmm3, xmm3
  006cc	f2 0f 5a c0	 cvtsd2ss xmm0, xmm0
  006d0	0f 57 d2	 xorps	 xmm2, xmm2
  006d3	f3 0f 5a d0	 cvtss2sd xmm2, xmm0
  006d7	f2 0f 59 d3	 mulsd	 xmm2, xmm3
  006db	f3 0f 10 9b 34
	09 00 00	 movss	 xmm3, DWORD PTR [ebx+2356]
  006e3	0f 57 e4	 xorps	 xmm4, xmm4
  006e6	f3 0f 5a e0	 cvtss2sd xmm4, xmm0
  006ea	0f 5a db	 cvtps2pd xmm3, xmm3
  006ed	f2 0f 59 dc	 mulsd	 xmm3, xmm4
  006f1	f3 0f 10 a3 38
	09 00 00	 movss	 xmm4, DWORD PTR [ebx+2360]

; 323  : 				m_fControlValue = 0.0f;

  006f9	e9 64 ff ff ff	 jmp	 $LN366@CheckOwner
$LN328@CheckOwner:
  006fe	f3 0f 10 45 b0	 movss	 xmm0, DWORD PTR _vSideMove$530746[ebp+8]
  00703	f3 0f 10 5d ac	 movss	 xmm3, DWORD PTR _vSideMove$530746[ebp+4]
  00708	f3 0f 10 55 a8	 movss	 xmm2, DWORD PTR _vSideMove$530746[ebp]
$LN32@CheckOwner:

; 324  : 			}
; 325  : 		}
; 326  : 
; 327  : 		if( !m_bIgnoreCharMove )

  0070d	80 bb 55 09 00
	00 00		 cmp	 BYTE PTR [ebx+2389], 0
  00714	75 50		 jne	 SHORT $LN133@CheckOwner

; 328  : 			vFrontMove += vSideMove;

  00716	0f 57 c9	 xorps	 xmm1, xmm1
  00719	f3 0f 5a ca	 cvtss2sd xmm1, xmm2
  0071d	f3 0f 10 55 e4	 movss	 xmm2, DWORD PTR _vFrontMove$530744[ebp]
  00722	0f 5a d2	 cvtps2pd xmm2, xmm2
  00725	f2 0f 58 ca	 addsd	 xmm1, xmm2
  00729	f3 0f 10 55 e8	 movss	 xmm2, DWORD PTR _vFrontMove$530744[ebp+4]
  0072e	66 0f 5a c9	 cvtpd2ps xmm1, xmm1
  00732	f3 0f 11 4d e4	 movss	 DWORD PTR _vFrontMove$530744[ebp], xmm1
  00737	0f 57 c9	 xorps	 xmm1, xmm1
  0073a	f3 0f 5a cb	 cvtss2sd xmm1, xmm3
  0073e	0f 5a d2	 cvtps2pd xmm2, xmm2
  00741	f2 0f 58 ca	 addsd	 xmm1, xmm2
  00745	66 0f 5a c9	 cvtpd2ps xmm1, xmm1
  00749	f3 0f 11 4d e8	 movss	 DWORD PTR _vFrontMove$530744[ebp+4], xmm1
  0074e	f3 0f 10 4d ec	 movss	 xmm1, DWORD PTR _vFrontMove$530744[ebp+8]
  00753	0f 5a c0	 cvtps2pd xmm0, xmm0
  00756	0f 5a c9	 cvtps2pd xmm1, xmm1
  00759	f2 0f 58 c1	 addsd	 xmm0, xmm1
  0075d	66 0f 5a c0	 cvtpd2ps xmm0, xmm0
  00761	f3 0f 11 45 ec	 movss	 DWORD PTR _vFrontMove$530744[ebp+8], xmm0
$LN133@CheckOwner:

; 329  : 
; 330  : 		D3DXVec3Normalize( &vFrontMove, &vFrontMove );

  00766	8d 45 e4	 lea	 eax, DWORD PTR _vFrontMove$530744[ebp]
  00769	50		 push	 eax
  0076a	50		 push	 eax
  0076b	e8 00 00 00 00	 call	 _D3DXVec3Normalize@8

; 331  : 		m_vCurMoveDir = vFrontMove;
; 332  : 
; 333  : 		D3DXVECTOR3 vMove = m_fCurMoveDistance * m_vCurMoveDir;

  00770	f3 0f 10 83 dc
	08 00 00	 movss	 xmm0, DWORD PTR [ebx+2268]
  00778	8d 75 e4	 lea	 esi, DWORD PTR _vFrontMove$530744[ebp]
  0077b	8d bb ac 08 00
	00		 lea	 edi, DWORD PTR [ebx+2220]
  00781	a5		 movsd
  00782	a5		 movsd
  00783	0f 5a d0	 cvtps2pd xmm2, xmm0
  00786	a5		 movsd
  00787	f3 0f 10 8b ac
	08 00 00	 movss	 xmm1, DWORD PTR [ebx+2220]
  0078f	0f 5a c9	 cvtps2pd xmm1, xmm1
  00792	f2 0f 59 ca	 mulsd	 xmm1, xmm2
  00796	66 0f 5a c9	 cvtpd2ps xmm1, xmm1
  0079a	f3 0f 11 4d f0	 movss	 DWORD PTR _vMove$530778[ebp], xmm1
  0079f	f3 0f 10 8b b0
	08 00 00	 movss	 xmm1, DWORD PTR [ebx+2224]
  007a7	0f 5a c9	 cvtps2pd xmm1, xmm1
  007aa	0f 57 d2	 xorps	 xmm2, xmm2
  007ad	0f 5a d0	 cvtps2pd xmm2, xmm0
  007b0	f2 0f 59 ca	 mulsd	 xmm1, xmm2
  007b4	66 0f 5a c9	 cvtpd2ps xmm1, xmm1
  007b8	0f 5a c0	 cvtps2pd xmm0, xmm0
  007bb	f3 0f 11 4d f4	 movss	 DWORD PTR _vMove$530778[ebp+4], xmm1
  007c0	f3 0f 10 8b b4
	08 00 00	 movss	 xmm1, DWORD PTR [ebx+2228]
  007c8	0f 5a c9	 cvtps2pd xmm1, xmm1
  007cb	f2 0f 59 c8	 mulsd	 xmm1, xmm0
  007cf	66 0f 5a c1	 cvtpd2ps xmm0, xmm1

; 334  : 
; 335  : 		// 
; 336  : 		if( vCharPos.y != vPreCharPos.y )

  007d3	f3 0f 10 8d 6c
	ff ff ff	 movss	 xmm1, DWORD PTR _vPreCharPos$[ebp+4]
  007db	f3 0f 11 45 f8	 movss	 DWORD PTR _vMove$530778[ebp+8], xmm0
  007e0	f3 0f 10 45 84	 movss	 xmm0, DWORD PTR _vCharPos$[ebp+4]
  007e5	0f 5a c0	 cvtps2pd xmm0, xmm0
  007e8	0f 5a c9	 cvtps2pd xmm1, xmm1
  007eb	66 0f 2e c1	 ucomisd xmm0, xmm1
  007ef	9f		 lahf
  007f0	f6 c4 44	 test	 ah, 68			; 00000044H
  007f3	7b 23		 jnp	 SHORT $LN30@CheckOwner

; 337  : 		{
; 338  : 			float fGap = vCharPos.y - vPreCharPos.y;
; 339  : 			m_fControlValue2 += fGap;

  007f5	f3 0f 10 83 40
	09 00 00	 movss	 xmm0, DWORD PTR [ebx+2368]
  007fd	f3 0f 10 4d 9c	 movss	 xmm1, DWORD PTR tv4174[ebp]
  00802	0f 5a c0	 cvtps2pd xmm0, xmm0
  00805	0f 5a c9	 cvtps2pd xmm1, xmm1
  00808	f2 0f 58 c1	 addsd	 xmm0, xmm1
  0080c	66 0f 5a c0	 cvtpd2ps xmm0, xmm0
  00810	f3 0f 11 83 40
	09 00 00	 movss	 DWORD PTR [ebx+2368], xmm0
$LN30@CheckOwner:

; 340  : 		}
; 341  : 
; 342  : 		if( fabs(m_fControlValue2) > FLOAT0001 && fLength <= fabs(m_fControlValue2) )

  00818	d9 83 40 09 00
	00		 fld	 DWORD PTR [ebx+2368]
  0081e	d9 e1		 fabs
  00820	d9 5d a4	 fstp	 DWORD PTR tv4969[ebp]
  00823	d9 45 a4	 fld	 DWORD PTR tv4969[ebp]
  00826	d9 5d a4	 fstp	 DWORD PTR $T533565[ebp]
  00829	b8 01 00 00 00	 mov	 eax, 1
  0082e	8b c8		 mov	 ecx, eax
  00830	b8 e8 03 00 00	 mov	 eax, 1000		; 000003e8H
  00835	d9 45 a4	 fld	 DWORD PTR $T533565[ebp]
  00838	89 4d 94	 mov	 DWORD PTR tv4963[ebp], ecx
  0083b	db 45 94	 fild	 DWORD PTR tv4963[ebp]
  0083e	85 c9		 test	 ecx, ecx
  00840	79 06		 jns	 SHORT $LN339@CheckOwner
  00842	d8 05 00 00 00
	00		 fadd	 DWORD PTR __real@4f800000
$LN339@CheckOwner:
  00848	89 45 94	 mov	 DWORD PTR tv4959[ebp], eax
  0084b	db 45 94	 fild	 DWORD PTR tv4959[ebp]
  0084e	85 c0		 test	 eax, eax
  00850	79 06		 jns	 SHORT $LN340@CheckOwner
  00852	d8 05 00 00 00
	00		 fadd	 DWORD PTR __real@4f800000
$LN340@CheckOwner:
  00858	de f9		 fdivp	 ST(1), ST(0)
  0085a	d9 5d a4	 fstp	 DWORD PTR tv4955[ebp]
  0085d	d9 45 a4	 fld	 DWORD PTR tv4955[ebp]
  00860	d9 c9		 fxch	 ST(1)
  00862	df f1		 fcomip	 ST(1)
  00864	dd d8		 fstp	 ST(0)
  00866	0f 86 a2 01 00
	00		 jbe	 $LN29@CheckOwner
  0086c	f3 0f 10 ab 40
	09 00 00	 movss	 xmm5, DWORD PTR [ebx+2368]
  00874	f2 0f 10 15 00
	00 00 00	 movsd	 xmm2, QWORD PTR __mask@@AbsDouble@
  0087c	f3 0f 10 65 a0	 movss	 xmm4, DWORD PTR _fLength$530748[ebp]
  00881	0f 5a cd	 cvtps2pd xmm1, xmm5
  00884	66 0f 54 ca	 andpd	 xmm1, xmm2
  00888	0f 57 c0	 xorps	 xmm0, xmm0
  0088b	f2 0f 5a c9	 cvtsd2ss xmm1, xmm1
  0088f	0f 5a c4	 cvtps2pd xmm0, xmm4
  00892	f3 0f 5a c9	 cvtss2sd xmm1, xmm1
  00896	66 0f 2f c8	 comisd	 xmm1, xmm0
  0089a	0f 82 6e 01 00
	00		 jb	 $LN29@CheckOwner

; 343  : 		{
; 344  : 			if( m_fControlValue2 < 0.0f )

  008a0	0f 57 c0	 xorps	 xmm0, xmm0
  008a3	0f 2f c5	 comiss	 xmm0, xmm5
  008a6	0f 86 b7 00 00
	00		 jbe	 $LN28@CheckOwner

; 345  : 			{
; 346  : 				vMove += fLength * (-m_vRollAxis);

  008ac	f3 0f 10 05 00
	00 00 00	 movss	 xmm0, DWORD PTR __mask@@NegFloat@
  008b4	f3 0f 10 8b c4
	08 00 00	 movss	 xmm1, DWORD PTR [ebx+2244]
  008bc	f3 0f 10 93 c8
	08 00 00	 movss	 xmm2, DWORD PTR [ebx+2248]
  008c4	f3 0f 10 9b cc
	08 00 00	 movss	 xmm3, DWORD PTR [ebx+2252]
  008cc	0f 57 c8	 xorps	 xmm1, xmm0
  008cf	0f 57 d0	 xorps	 xmm2, xmm0
  008d2	0f 57 d8	 xorps	 xmm3, xmm0
  008d5	0f 5a c1	 cvtps2pd xmm0, xmm1
  008d8	0f 5a cc	 cvtps2pd xmm1, xmm4
  008db	f2 0f 59 c1	 mulsd	 xmm0, xmm1
  008df	66 0f 5a c0	 cvtpd2ps xmm0, xmm0
  008e3	f3 0f 5a c0	 cvtss2sd xmm0, xmm0
  008e7	0f 5a ca	 cvtps2pd xmm1, xmm2
  008ea	0f 5a d4	 cvtps2pd xmm2, xmm4
  008ed	f2 0f 59 ca	 mulsd	 xmm1, xmm2
  008f1	66 0f 5a c9	 cvtpd2ps xmm1, xmm1
  008f5	0f 5a d3	 cvtps2pd xmm2, xmm3
  008f8	0f 5a dc	 cvtps2pd xmm3, xmm4
  008fb	f2 0f 59 d3	 mulsd	 xmm2, xmm3
  008ff	f3 0f 10 5d f0	 movss	 xmm3, DWORD PTR _vMove$530778[ebp]
  00904	0f 5a db	 cvtps2pd xmm3, xmm3
  00907	f2 0f 58 c3	 addsd	 xmm0, xmm3
  0090b	66 0f 5a c0	 cvtpd2ps xmm0, xmm0
  0090f	f3 0f 11 45 f0	 movss	 DWORD PTR _vMove$530778[ebp], xmm0
  00914	0f 57 c0	 xorps	 xmm0, xmm0
  00917	f3 0f 5a c1	 cvtss2sd xmm0, xmm1
  0091b	f3 0f 10 4d f4	 movss	 xmm1, DWORD PTR _vMove$530778[ebp+4]
  00920	0f 5a c9	 cvtps2pd xmm1, xmm1
  00923	f2 0f 58 c1	 addsd	 xmm0, xmm1
  00927	f3 0f 10 4d f8	 movss	 xmm1, DWORD PTR _vMove$530778[ebp+8]
  0092c	66 0f 5a c0	 cvtpd2ps xmm0, xmm0
  00930	f3 0f 11 45 f4	 movss	 DWORD PTR _vMove$530778[ebp+4], xmm0
  00935	0f 57 c0	 xorps	 xmm0, xmm0
  00938	66 0f 5a d2	 cvtpd2ps xmm2, xmm2
  0093c	f3 0f 5a c2	 cvtss2sd xmm0, xmm2
  00940	0f 5a c9	 cvtps2pd xmm1, xmm1
  00943	f2 0f 58 c1	 addsd	 xmm0, xmm1
  00947	66 0f 5a c0	 cvtpd2ps xmm0, xmm0
  0094b	f3 0f 11 45 f8	 movss	 DWORD PTR _vMove$530778[ebp+8], xmm0

; 347  : 				m_fControlValue2 += fLength;

  00950	0f 5a cc	 cvtps2pd xmm1, xmm4
  00953	0f 5a c5	 cvtps2pd xmm0, xmm5
  00956	f2 0f 58 c1	 addsd	 xmm0, xmm1
$LN358@CheckOwner:
  0095a	66 0f 5a c0	 cvtpd2ps xmm0, xmm0
  0095e	e9 aa 01 00 00	 jmp	 $LN355@CheckOwner
$LN28@CheckOwner:

; 348  : 			}
; 349  : 			else if( m_fControlValue2 > 0.0f )

  00963	0f 2f e8	 comiss	 xmm5, xmm0
  00966	0f 86 a9 01 00
	00		 jbe	 $LN21@CheckOwner

; 350  : 			{
; 351  : 				vMove += fLength * m_vRollAxis;

  0096c	f3 0f 10 83 c4
	08 00 00	 movss	 xmm0, DWORD PTR [ebx+2244]
  00974	0f 5a c0	 cvtps2pd xmm0, xmm0
  00977	0f 5a cc	 cvtps2pd xmm1, xmm4
  0097a	f2 0f 59 c1	 mulsd	 xmm0, xmm1
  0097e	f3 0f 10 8b c8
	08 00 00	 movss	 xmm1, DWORD PTR [ebx+2248]
  00986	66 0f 5a c0	 cvtpd2ps xmm0, xmm0
  0098a	0f 5a c9	 cvtps2pd xmm1, xmm1
  0098d	f3 0f 5a c0	 cvtss2sd xmm0, xmm0
  00991	0f 5a d4	 cvtps2pd xmm2, xmm4
  00994	f2 0f 59 ca	 mulsd	 xmm1, xmm2
  00998	f3 0f 10 93 cc
	08 00 00	 movss	 xmm2, DWORD PTR [ebx+2252]
  009a0	0f 5a dc	 cvtps2pd xmm3, xmm4
  009a3	0f 5a d2	 cvtps2pd xmm2, xmm2
  009a6	f2 0f 59 d3	 mulsd	 xmm2, xmm3
  009aa	f3 0f 10 5d f0	 movss	 xmm3, DWORD PTR _vMove$530778[ebp]
  009af	66 0f 5a c9	 cvtpd2ps xmm1, xmm1
  009b3	0f 5a db	 cvtps2pd xmm3, xmm3
  009b6	f2 0f 58 c3	 addsd	 xmm0, xmm3
  009ba	66 0f 5a c0	 cvtpd2ps xmm0, xmm0
  009be	f3 0f 11 45 f0	 movss	 DWORD PTR _vMove$530778[ebp], xmm0
  009c3	0f 57 c0	 xorps	 xmm0, xmm0
  009c6	f3 0f 5a c1	 cvtss2sd xmm0, xmm1
  009ca	f3 0f 10 4d f4	 movss	 xmm1, DWORD PTR _vMove$530778[ebp+4]
  009cf	0f 5a c9	 cvtps2pd xmm1, xmm1
  009d2	f2 0f 58 c1	 addsd	 xmm0, xmm1
  009d6	f3 0f 10 4d f8	 movss	 xmm1, DWORD PTR _vMove$530778[ebp+8]
  009db	66 0f 5a c0	 cvtpd2ps xmm0, xmm0
  009df	f3 0f 11 45 f4	 movss	 DWORD PTR _vMove$530778[ebp+4], xmm0
  009e4	0f 57 c0	 xorps	 xmm0, xmm0
  009e7	66 0f 5a d2	 cvtpd2ps xmm2, xmm2
  009eb	f3 0f 5a c2	 cvtss2sd xmm0, xmm2
  009ef	0f 5a c9	 cvtps2pd xmm1, xmm1
  009f2	f2 0f 58 c1	 addsd	 xmm0, xmm1
  009f6	66 0f 5a c0	 cvtpd2ps xmm0, xmm0
  009fa	f3 0f 11 45 f8	 movss	 DWORD PTR _vMove$530778[ebp+8], xmm0

; 352  : 				m_fControlValue2 -= fLength;

  009ff	0f 5a cc	 cvtps2pd xmm1, xmm4
  00a02	0f 5a c5	 cvtps2pd xmm0, xmm5
  00a05	f2 0f 5c c1	 subsd	 xmm0, xmm1

; 353  : 			}
; 354  : 		}

  00a09	e9 4c ff ff ff	 jmp	 $LN358@CheckOwner
$LN29@CheckOwner:

; 355  : 		else if( fabs(m_fControlValue2) > FLOAT0001 )

  00a0e	d9 83 40 09 00
	00		 fld	 DWORD PTR [ebx+2368]
  00a14	d9 5d a4	 fstp	 DWORD PTR $T533632[ebp]
  00a17	b8 01 00 00 00	 mov	 eax, 1
  00a1c	8b c8		 mov	 ecx, eax
  00a1e	b8 e8 03 00 00	 mov	 eax, 1000		; 000003e8H
  00a23	d9 45 a4	 fld	 DWORD PTR $T533632[ebp]
  00a26	d9 e1		 fabs
  00a28	89 4d 94	 mov	 DWORD PTR tv4902[ebp], ecx
  00a2b	d9 5d a4	 fstp	 DWORD PTR tv4908[ebp]
  00a2e	d9 45 a4	 fld	 DWORD PTR tv4908[ebp]
  00a31	db 45 94	 fild	 DWORD PTR tv4902[ebp]
  00a34	85 c9		 test	 ecx, ecx
  00a36	79 06		 jns	 SHORT $LN341@CheckOwner
  00a38	d8 05 00 00 00
	00		 fadd	 DWORD PTR __real@4f800000
$LN341@CheckOwner:
  00a3e	89 45 94	 mov	 DWORD PTR tv4898[ebp], eax
  00a41	db 45 94	 fild	 DWORD PTR tv4898[ebp]
  00a44	85 c0		 test	 eax, eax
  00a46	79 06		 jns	 SHORT $LN342@CheckOwner
  00a48	d8 05 00 00 00
	00		 fadd	 DWORD PTR __real@4f800000
$LN342@CheckOwner:
  00a4e	de f9		 fdivp	 ST(1), ST(0)
  00a50	d9 5d a4	 fstp	 DWORD PTR tv4894[ebp]
  00a53	d9 45 a4	 fld	 DWORD PTR tv4894[ebp]
  00a56	d9 c9		 fxch	 ST(1)
  00a58	df f1		 fcomip	 ST(1)
  00a5a	dd d8		 fstp	 ST(0)
  00a5c	0f 86 b3 00 00
	00		 jbe	 $LN21@CheckOwner

; 356  : 		{
; 357  : 			if( m_fControlValue2 < 0.0f )

  00a62	f3 0f 10 8b 40
	09 00 00	 movss	 xmm1, DWORD PTR [ebx+2368]
  00a6a	0f 57 c0	 xorps	 xmm0, xmm0
  00a6d	0f 2f c1	 comiss	 xmm0, xmm1

; 358  : 			{
; 359  : 				vMove += m_fControlValue2 * m_vRollAxis;
; 360  : 				m_fControlValue2 = 0.0f;

  00a70	77 09		 ja	 SHORT $LN357@CheckOwner

; 361  : 			}
; 362  : 			else if( m_fControlValue2 > 0.0f )

  00a72	0f 2f c8	 comiss	 xmm1, xmm0
  00a75	0f 86 9a 00 00
	00		 jbe	 $LN21@CheckOwner
$LN357@CheckOwner:

; 363  : 			{
; 364  : 				vMove += m_fControlValue2 * m_vRollAxis;

  00a7b	f3 0f 10 9b c4
	08 00 00	 movss	 xmm3, DWORD PTR [ebx+2244]
  00a83	0f 5a d1	 cvtps2pd xmm2, xmm1
  00a86	0f 5a e1	 cvtps2pd xmm4, xmm1
  00a89	0f 5a db	 cvtps2pd xmm3, xmm3
  00a8c	f2 0f 59 d3	 mulsd	 xmm2, xmm3
  00a90	f3 0f 10 9b c8
	08 00 00	 movss	 xmm3, DWORD PTR [ebx+2248]
  00a98	0f 5a db	 cvtps2pd xmm3, xmm3
  00a9b	f2 0f 59 dc	 mulsd	 xmm3, xmm4
  00a9f	f3 0f 10 a3 cc
	08 00 00	 movss	 xmm4, DWORD PTR [ebx+2252]
  00aa7	0f 5a c9	 cvtps2pd xmm1, xmm1
  00aaa	66 0f 5a d2	 cvtpd2ps xmm2, xmm2
  00aae	0f 5a e4	 cvtps2pd xmm4, xmm4
  00ab1	f2 0f 59 e1	 mulsd	 xmm4, xmm1
  00ab5	f3 0f 5a d2	 cvtss2sd xmm2, xmm2
  00ab9	0f 57 c9	 xorps	 xmm1, xmm1
  00abc	66 0f 5a cc	 cvtpd2ps xmm1, xmm4
  00ac0	f3 0f 10 65 f0	 movss	 xmm4, DWORD PTR _vMove$530778[ebp]
  00ac5	0f 5a e4	 cvtps2pd xmm4, xmm4
  00ac8	f2 0f 58 d4	 addsd	 xmm2, xmm4
  00acc	66 0f 5a d2	 cvtpd2ps xmm2, xmm2
  00ad0	f3 0f 11 55 f0	 movss	 DWORD PTR _vMove$530778[ebp], xmm2
  00ad5	0f 57 d2	 xorps	 xmm2, xmm2
  00ad8	66 0f 5a db	 cvtpd2ps xmm3, xmm3
  00adc	f3 0f 5a d3	 cvtss2sd xmm2, xmm3
  00ae0	f3 0f 10 5d f4	 movss	 xmm3, DWORD PTR _vMove$530778[ebp+4]
  00ae5	0f 5a db	 cvtps2pd xmm3, xmm3
  00ae8	f2 0f 58 d3	 addsd	 xmm2, xmm3
  00aec	66 0f 5a d2	 cvtpd2ps xmm2, xmm2
  00af0	f3 0f 11 55 f4	 movss	 DWORD PTR _vMove$530778[ebp+4], xmm2
  00af5	f3 0f 10 55 f8	 movss	 xmm2, DWORD PTR _vMove$530778[ebp+8]
  00afa	0f 5a c9	 cvtps2pd xmm1, xmm1
  00afd	0f 5a d2	 cvtps2pd xmm2, xmm2
  00b00	f2 0f 58 ca	 addsd	 xmm1, xmm2
  00b04	66 0f 5a c9	 cvtpd2ps xmm1, xmm1
  00b08	f3 0f 11 4d f8	 movss	 DWORD PTR _vMove$530778[ebp+8], xmm1
$LN355@CheckOwner:

; 365  : 				m_fControlValue2 = 0.0f;

  00b0d	f3 0f 11 83 40
	09 00 00	 movss	 DWORD PTR [ebx+2368], xmm0
$LN21@CheckOwner:

; 366  : 			}
; 367  : 		}
; 368  : 
; 369  : 		D3DXVec3Normalize( &vMove, &vMove );

  00b15	8d 45 f0	 lea	 eax, DWORD PTR _vMove$530778[ebp]
  00b18	50		 push	 eax
  00b19	50		 push	 eax
  00b1a	e8 00 00 00 00	 call	 _D3DXVec3Normalize@8

; 370  : 		vMove *= m_fCurMoveDistance;

  00b1f	f3 0f 10 83 dc
	08 00 00	 movss	 xmm0, DWORD PTR [ebx+2268]
  00b27	f3 0f 10 55 f0	 movss	 xmm2, DWORD PTR _vMove$530778[ebp]
  00b2c	0f 5a c8	 cvtps2pd xmm1, xmm0
  00b2f	0f 5a d2	 cvtps2pd xmm2, xmm2
  00b32	f2 0f 59 ca	 mulsd	 xmm1, xmm2
  00b36	f3 0f 10 55 f4	 movss	 xmm2, DWORD PTR _vMove$530778[ebp+4]
  00b3b	66 0f 5a c9	 cvtpd2ps xmm1, xmm1
  00b3f	f3 0f 11 4d f0	 movss	 DWORD PTR _vMove$530778[ebp], xmm1
  00b44	0f 5a d2	 cvtps2pd xmm2, xmm2
  00b47	0f 5a c8	 cvtps2pd xmm1, xmm0
  00b4a	f2 0f 59 ca	 mulsd	 xmm1, xmm2
  00b4e	66 0f 5a c9	 cvtpd2ps xmm1, xmm1
  00b52	f3 0f 11 4d f4	 movss	 DWORD PTR _vMove$530778[ebp+4], xmm1
  00b57	f3 0f 10 4d f8	 movss	 xmm1, DWORD PTR _vMove$530778[ebp+8]
  00b5c	0f 5a c0	 cvtps2pd xmm0, xmm0
  00b5f	0f 5a c9	 cvtps2pd xmm1, xmm1
  00b62	f2 0f 59 c1	 mulsd	 xmm0, xmm1
  00b66	66 0f 5a c0	 cvtpd2ps xmm0, xmm0

; 371  : 
; 372  : 		GetParentSceneNode()->Translate( vMove );
; 373  : 	}
; 374  : 	else

  00b6a	e9 7c 0a 00 00	 jmp	 $LN359@CheckOwner
$LN42@CheckOwner:

; 375  : 	{
; 376  : 		D3DXVECTOR3 vDiff = vTargetPos - vPos;

  00b6f	f3 0f 10 45 cc	 movss	 xmm0, DWORD PTR _vTargetPos$[ebp]
  00b74	f3 0f 10 4d a8	 movss	 xmm1, DWORD PTR _vPos$[ebp]
  00b79	f3 0f 10 55 ac	 movss	 xmm2, DWORD PTR _vPos$[ebp+4]
  00b7e	f3 0f 10 5d b0	 movss	 xmm3, DWORD PTR _vPos$[ebp+8]
  00b83	0f 5a c9	 cvtps2pd xmm1, xmm1
  00b86	0f 5a c0	 cvtps2pd xmm0, xmm0
  00b89	f2 0f 5c c1	 subsd	 xmm0, xmm1
  00b8d	f3 0f 10 4d d0	 movss	 xmm1, DWORD PTR _vTargetPos$[ebp+4]
  00b92	0f 5a c9	 cvtps2pd xmm1, xmm1
  00b95	0f 5a d2	 cvtps2pd xmm2, xmm2
  00b98	f2 0f 5c ca	 subsd	 xmm1, xmm2
  00b9c	f3 0f 10 55 d4	 movss	 xmm2, DWORD PTR _vTargetPos$[ebp+8]
  00ba1	66 0f 5a c0	 cvtpd2ps xmm0, xmm0
  00ba5	f3 0f 11 45 d8	 movss	 DWORD PTR _vDiff$530803[ebp], xmm0
  00baa	66 0f 5a c9	 cvtpd2ps xmm1, xmm1
  00bae	f3 0f 11 4d dc	 movss	 DWORD PTR _vDiff$530803[ebp+4], xmm1
  00bb3	0f 5a d2	 cvtps2pd xmm2, xmm2
  00bb6	f3 0f 5a c0	 cvtss2sd xmm0, xmm0

; 377  : 		float fLength = D3DXVec3Length( &vDiff );

  00bba	f2 0f 59 c0	 mulsd	 xmm0, xmm0
  00bbe	f3 0f 5a c9	 cvtss2sd xmm1, xmm1
  00bc2	0f 5a db	 cvtps2pd xmm3, xmm3
  00bc5	f2 0f 5c d3	 subsd	 xmm2, xmm3
  00bc9	66 0f 5a d2	 cvtpd2ps xmm2, xmm2
  00bcd	f2 0f 59 c9	 mulsd	 xmm1, xmm1
  00bd1	f2 0f 58 c8	 addsd	 xmm1, xmm0
  00bd5	f3 0f 11 55 e0	 movss	 DWORD PTR _vDiff$530803[ebp+8], xmm2
  00bda	0f 57 c0	 xorps	 xmm0, xmm0
  00bdd	f3 0f 5a d2	 cvtss2sd xmm2, xmm2
  00be1	f2 0f 59 d2	 mulsd	 xmm2, xmm2
  00be5	f2 0f 58 ca	 addsd	 xmm1, xmm2
  00be9	66 0f 5a c1	 cvtpd2ps xmm0, xmm1

; 378  : 		if( fLength <= m_fEndRange )

  00bed	f3 0f 10 8b 44
	09 00 00	 movss	 xmm1, DWORD PTR [ebx+2372]
  00bf5	0f 5a c0	 cvtps2pd xmm0, xmm0
  00bf8	f2 0f 51 c0	 sqrtsd	 xmm0, xmm0
  00bfc	66 0f 5a c0	 cvtpd2ps xmm0, xmm0
  00c00	f3 0f 11 45 94	 movss	 DWORD PTR _fLength$530805[ebp], xmm0
  00c05	f3 0f 5a c0	 cvtss2sd xmm0, xmm0
  00c09	0f 5a c9	 cvtps2pd xmm1, xmm1
  00c0c	66 0f 2f c8	 comisd	 xmm1, xmm0
  00c10	72 07		 jb	 SHORT $LN19@CheckOwner

; 379  : 			return true;

  00c12	b0 01		 mov	 al, 1
  00c14	e9 e7 09 00 00	 jmp	 $LN329@CheckOwner
$LN19@CheckOwner:

; 380  : 
; 381  : 		D3DXVECTOR3 vCurDir = m_vCurMoveDir;

  00c19	8d b3 ac 08 00
	00		 lea	 esi, DWORD PTR [ebx+2220]
  00c1f	8d 7d e4	 lea	 edi, DWORD PTR _vCurDir$530807[ebp]
  00c22	a5		 movsd
  00c23	a5		 movsd
  00c24	a5		 movsd

; 382  : 		float fTimeGap = fTimePerSec * FLOAT1000;

  00c25	b8 e8 03 00 00	 mov	 eax, 1000		; 000003e8H
  00c2a	89 45 a4	 mov	 DWORD PTR tv4816[ebp], eax
  00c2d	db 45 a4	 fild	 DWORD PTR tv4816[ebp]
  00c30	85 c0		 test	 eax, eax
  00c32	79 06		 jns	 SHORT $LN343@CheckOwner
  00c34	d8 05 00 00 00
	00		 fadd	 DWORD PTR __real@4f800000
$LN343@CheckOwner:
  00c3a	d8 4d 98	 fmul	 DWORD PTR _fTimePerSec$GSCopy$[ebp]

; 383  : 		float fMoveSpeed = GetMoveSpeed();

  00c3d	8b cb		 mov	 ecx, ebx
  00c3f	d9 5d 9c	 fstp	 DWORD PTR _fTimeGap$530808[ebp]
  00c42	e8 00 00 00 00	 call	 ?GetMoveSpeed@ioControlReturnWeapon@@QAEMXZ ; ioControlReturnWeapon::GetMoveSpeed
  00c47	d9 5d a0	 fstp	 DWORD PTR _fMoveSpeed$530810[ebp]

; 384  : 
; 385  : 		float fCurLoopTimeGap;
; 386  : 		float fCurLoopTimePerSec;
; 387  : 		while( fTimeGap > 0.0f )

  00c4a	d9 ee		 fldz
  00c4c	d9 45 9c	 fld	 DWORD PTR _fTimeGap$530808[ebp]
  00c4f	df f1		 fcomip	 ST(1)
  00c51	dd d8		 fstp	 ST(0)
  00c53	0f 86 f8 04 00
	00		 jbe	 $LN17@CheckOwner
$LL18@CheckOwner:

; 388  : 		{
; 389  : 			if( fTimeGap > FLOAT10 )

  00c59	b8 0a 00 00 00	 mov	 eax, 10			; 0000000aH
  00c5e	d9 45 9c	 fld	 DWORD PTR _fTimeGap$530808[ebp]
  00c61	89 45 a4	 mov	 DWORD PTR tv4803[ebp], eax
  00c64	db 45 a4	 fild	 DWORD PTR tv4803[ebp]
  00c67	85 c0		 test	 eax, eax
  00c69	79 06		 jns	 SHORT $LN344@CheckOwner
  00c6b	d8 05 00 00 00
	00		 fadd	 DWORD PTR __real@4f800000
$LN344@CheckOwner:
  00c71	d9 c9		 fxch	 ST(1)
  00c73	df f1		 fcomip	 ST(1)
  00c75	dd d8		 fstp	 ST(0)
  00c77	76 55		 jbe	 SHORT $LN16@CheckOwner

; 390  : 			{
; 391  : 				fCurLoopTimeGap = FLOAT10;

  00c79	b8 0a 00 00 00	 mov	 eax, 10			; 0000000aH

; 392  : 				fCurLoopTimePerSec = FLOAT10 / FLOAT1000;

  00c7e	b8 0a 00 00 00	 mov	 eax, 10			; 0000000aH
  00c83	8b c8		 mov	 ecx, eax
  00c85	b8 e8 03 00 00	 mov	 eax, 1000		; 000003e8H
  00c8a	89 4d a4	 mov	 DWORD PTR tv4793[ebp], ecx
  00c8d	db 45 a4	 fild	 DWORD PTR tv4793[ebp]
  00c90	85 c9		 test	 ecx, ecx
  00c92	79 06		 jns	 SHORT $LN345@CheckOwner
  00c94	d8 05 00 00 00
	00		 fadd	 DWORD PTR __real@4f800000
$LN345@CheckOwner:
  00c9a	89 45 a4	 mov	 DWORD PTR tv4789[ebp], eax
  00c9d	db 45 a4	 fild	 DWORD PTR tv4789[ebp]
  00ca0	85 c0		 test	 eax, eax
  00ca2	79 06		 jns	 SHORT $LN346@CheckOwner
  00ca4	d8 05 00 00 00
	00		 fadd	 DWORD PTR __real@4f800000
$LN346@CheckOwner:
  00caa	de f9		 fdivp	 ST(1), ST(0)
  00cac	d9 5d a4	 fstp	 DWORD PTR _fCurLoopTimePerSec$530812[ebp]

; 393  : 
; 394  : 				fTimeGap -= FLOAT10;

  00caf	b8 0a 00 00 00	 mov	 eax, 10			; 0000000aH
  00cb4	d9 45 9c	 fld	 DWORD PTR _fTimeGap$530808[ebp]
  00cb7	89 45 9c	 mov	 DWORD PTR tv4783[ebp], eax
  00cba	db 45 9c	 fild	 DWORD PTR tv4783[ebp]
  00cbd	85 c0		 test	 eax, eax
  00cbf	79 06		 jns	 SHORT $LN347@CheckOwner
  00cc1	d8 05 00 00 00
	00		 fadd	 DWORD PTR __real@4f800000
$LN347@CheckOwner:
  00cc7	de e9		 fsubp	 ST(1), ST(0)
  00cc9	d9 5d 9c	 fstp	 DWORD PTR _fTimeGap$530808[ebp]

; 395  : 			}
; 396  : 			else

  00ccc	eb 25		 jmp	 SHORT $LN15@CheckOwner
$LN16@CheckOwner:

; 397  : 			{
; 398  : 				fCurLoopTimeGap = fTimeGap;
; 399  : 				fCurLoopTimePerSec = fTimeGap / FLOAT1000;

  00cce	b8 e8 03 00 00	 mov	 eax, 1000		; 000003e8H
  00cd3	d9 45 9c	 fld	 DWORD PTR _fTimeGap$530808[ebp]
  00cd6	89 45 a4	 mov	 DWORD PTR tv4777[ebp], eax
  00cd9	db 45 a4	 fild	 DWORD PTR tv4777[ebp]
  00cdc	85 c0		 test	 eax, eax
  00cde	79 06		 jns	 SHORT $LN348@CheckOwner
  00ce0	d8 05 00 00 00
	00		 fadd	 DWORD PTR __real@4f800000
$LN348@CheckOwner:
  00ce6	de f9		 fdivp	 ST(1), ST(0)

; 400  : 
; 401  : 				fTimeGap = 0.0f;

  00ce8	0f 57 c0	 xorps	 xmm0, xmm0
  00ceb	f3 0f 11 45 9c	 movss	 DWORD PTR _fTimeGap$530808[ebp], xmm0
  00cf0	d9 5d a4	 fstp	 DWORD PTR _fCurLoopTimePerSec$530812[ebp]
$LN15@CheckOwner:

; 402  : 			}
; 403  : 
; 404  : 			vDiff = vTargetPos - GetPosition();

  00cf3	8b 03		 mov	 eax, DWORD PTR [ebx]
  00cf5	8b cb		 mov	 ecx, ebx
  00cf7	ff 50 70	 call	 DWORD PTR [eax+112]
  00cfa	f3 0f 10 08	 movss	 xmm1, DWORD PTR [eax]
  00cfe	f3 0f 10 45 cc	 movss	 xmm0, DWORD PTR _vTargetPos$[ebp]
  00d03	0f 5a c0	 cvtps2pd xmm0, xmm0
  00d06	0f 5a c9	 cvtps2pd xmm1, xmm1
  00d09	f2 0f 5c c1	 subsd	 xmm0, xmm1
  00d0d	f3 0f 10 48 04	 movss	 xmm1, DWORD PTR [eax+4]
  00d12	66 0f 5a c0	 cvtpd2ps xmm0, xmm0
  00d16	f3 0f 11 85 44
	ff ff ff	 movss	 DWORD PTR $T530824[ebp], xmm0
  00d1e	f3 0f 10 45 d0	 movss	 xmm0, DWORD PTR _vTargetPos$[ebp+4]
  00d23	0f 5a c0	 cvtps2pd xmm0, xmm0
  00d26	0f 5a c9	 cvtps2pd xmm1, xmm1
  00d29	f2 0f 5c c1	 subsd	 xmm0, xmm1
  00d2d	f3 0f 10 48 08	 movss	 xmm1, DWORD PTR [eax+8]
  00d32	66 0f 5a c0	 cvtpd2ps xmm0, xmm0
  00d36	f3 0f 11 85 48
	ff ff ff	 movss	 DWORD PTR $T530824[ebp+4], xmm0
  00d3e	f3 0f 10 45 d4	 movss	 xmm0, DWORD PTR _vTargetPos$[ebp+8]
  00d43	0f 5a c0	 cvtps2pd xmm0, xmm0
  00d46	0f 5a c9	 cvtps2pd xmm1, xmm1
  00d49	f2 0f 5c c1	 subsd	 xmm0, xmm1
  00d4d	66 0f 5a c0	 cvtpd2ps xmm0, xmm0
  00d51	f3 0f 11 85 4c
	ff ff ff	 movss	 DWORD PTR $T530824[ebp+8], xmm0
  00d59	8d b5 44 ff ff
	ff		 lea	 esi, DWORD PTR $T530824[ebp]
  00d5f	8d 7d d8	 lea	 edi, DWORD PTR _vDiff$530803[ebp]
  00d62	a5		 movsd

; 405  : 			D3DXVec3Normalize( &vDiff, &vDiff );

  00d63	8d 45 d8	 lea	 eax, DWORD PTR _vDiff$530803[ebp]
  00d66	a5		 movsd
  00d67	50		 push	 eax
  00d68	50		 push	 eax
  00d69	a5		 movsd
  00d6a	e8 00 00 00 00	 call	 _D3DXVec3Normalize@8

; 406  : 
; 407  : 			D3DXVECTOR3 vCurXZDir = vCurDir;
; 408  : 			D3DXVECTOR3 vDiffXZDir = vDiff;
; 409  : 			vCurXZDir.y = 0.0f;

  00d6f	0f 57 c0	 xorps	 xmm0, xmm0
  00d72	8d 75 e4	 lea	 esi, DWORD PTR _vCurDir$530807[ebp]
  00d75	8d 7d c0	 lea	 edi, DWORD PTR _vCurXZDir$530825[ebp]
  00d78	a5		 movsd
  00d79	a5		 movsd
  00d7a	a5		 movsd
  00d7b	8d 75 d8	 lea	 esi, DWORD PTR _vDiff$530803[ebp]
  00d7e	8d 7d b4	 lea	 edi, DWORD PTR _vDiffXZDir$530826[ebp]
  00d81	a5		 movsd
  00d82	a5		 movsd

; 410  : 			vDiffXZDir.y = 0.0f;
; 411  : 			D3DXVec3Normalize( &vCurXZDir, &vCurXZDir );

  00d83	8d 45 c0	 lea	 eax, DWORD PTR _vCurXZDir$530825[ebp]
  00d86	50		 push	 eax
  00d87	a5		 movsd
  00d88	50		 push	 eax
  00d89	f3 0f 11 45 c4	 movss	 DWORD PTR _vCurXZDir$530825[ebp+4], xmm0
  00d8e	f3 0f 11 45 b8	 movss	 DWORD PTR _vDiffXZDir$530826[ebp+4], xmm0
  00d93	e8 00 00 00 00	 call	 _D3DXVec3Normalize@8

; 412  : 			D3DXVec3Normalize( &vDiffXZDir, &vDiffXZDir );

  00d98	8d 45 b4	 lea	 eax, DWORD PTR _vDiffXZDir$530826[ebp]
  00d9b	50		 push	 eax
  00d9c	50		 push	 eax
  00d9d	e8 00 00 00 00	 call	 _D3DXVec3Normalize@8

; 413  : 
; 414  : 			float fDotValue = D3DXVec3Dot( &vCurXZDir, &vDiffXZDir );

  00da2	f3 0f 10 45 b8	 movss	 xmm0, DWORD PTR _vDiffXZDir$530826[ebp+4]
  00da7	f3 0f 10 5d c4	 movss	 xmm3, DWORD PTR _vCurXZDir$530825[ebp+4]
  00dac	f3 0f 10 65 c0	 movss	 xmm4, DWORD PTR _vCurXZDir$530825[ebp]
  00db1	f3 0f 10 6d c8	 movss	 xmm5, DWORD PTR _vCurXZDir$530825[ebp+8]
  00db6	0f 5a cb	 cvtps2pd xmm1, xmm3
  00db9	0f 5a c0	 cvtps2pd xmm0, xmm0
  00dbc	f2 0f 59 c1	 mulsd	 xmm0, xmm1
  00dc0	f3 0f 10 4d b4	 movss	 xmm1, DWORD PTR _vDiffXZDir$530826[ebp]
  00dc5	0f 5a c9	 cvtps2pd xmm1, xmm1
  00dc8	0f 5a d4	 cvtps2pd xmm2, xmm4
  00dcb	f2 0f 59 ca	 mulsd	 xmm1, xmm2
  00dcf	f3 0f 10 55 bc	 movss	 xmm2, DWORD PTR _vDiffXZDir$530826[ebp+8]
  00dd4	f2 0f 58 c1	 addsd	 xmm0, xmm1
  00dd8	0f 5a d2	 cvtps2pd xmm2, xmm2
  00ddb	0f 5a cd	 cvtps2pd xmm1, xmm5
  00dde	f2 0f 59 ca	 mulsd	 xmm1, xmm2
  00de2	f2 0f 58 c1	 addsd	 xmm0, xmm1
  00de6	f2 0f 5a c0	 cvtsd2ss xmm0, xmm0

; 415  : 			if( COMPARE( fDotValue, -1.0001f, -0.9999f ) )

  00dea	0f 2f 05 00 00
	00 00		 comiss	 xmm0, DWORD PTR __real@bf800347
  00df1	0f 82 fb 01 00
	00		 jb	 $LN14@CheckOwner
  00df7	f2 0f 10 0d 00
	00 00 00	 movsd	 xmm1, QWORD PTR __real@bfefff2e40000000
  00dff	f3 0f 5a c0	 cvtss2sd xmm0, xmm0
  00e03	66 0f 2f c8	 comisd	 xmm1, xmm0
  00e07	0f 86 e5 01 00
	00		 jbe	 $LN14@CheckOwner

; 416  : 			{
; 417  : 				D3DXVECTOR3 vCrossVec;
; 418  : 				D3DXVec3Cross( &vCrossVec, &vCurXZDir, &m_vRollAxis );

  00e0d	f3 0f 10 83 cc
	08 00 00	 movss	 xmm0, DWORD PTR [ebx+2252]
  00e15	f3 0f 10 8b c8
	08 00 00	 movss	 xmm1, DWORD PTR [ebx+2248]
  00e1d	0f 5a d0	 cvtps2pd xmm2, xmm0
  00e20	0f 5a f3	 cvtps2pd xmm6, xmm3
  00e23	f2 0f 59 d6	 mulsd	 xmm2, xmm6
  00e27	0f 5a f9	 cvtps2pd xmm7, xmm1
  00e2a	0f 5a c0	 cvtps2pd xmm0, xmm0
  00e2d	8d b5 5c ff ff
	ff		 lea	 esi, DWORD PTR _v$533758[ebp]
  00e33	8d 7d a8	 lea	 edi, DWORD PTR _vCrossVec$530829[ebp]
  00e36	0f 5a f5	 cvtps2pd xmm6, xmm5
  00e39	f2 0f 59 f7	 mulsd	 xmm6, xmm7
  00e3d	f2 0f 5c d6	 subsd	 xmm2, xmm6
  00e41	66 0f 5a d2	 cvtpd2ps xmm2, xmm2
  00e45	f3 0f 11 95 5c
	ff ff ff	 movss	 DWORD PTR _v$533758[ebp], xmm2
  00e4d	f3 0f 10 93 c4
	08 00 00	 movss	 xmm2, DWORD PTR [ebx+2244]
  00e55	0f 5a ed	 cvtps2pd xmm5, xmm5
  00e58	0f 5a f2	 cvtps2pd xmm6, xmm2
  00e5b	f2 0f 59 ee	 mulsd	 xmm5, xmm6

; 419  : 				D3DXVec3Normalize( &vCrossVec, &vCrossVec );

  00e5f	8d 45 a8	 lea	 eax, DWORD PTR _vCrossVec$530829[ebp]
  00e62	50		 push	 eax
  00e63	50		 push	 eax
  00e64	0f 5a f4	 cvtps2pd xmm6, xmm4
  00e67	f2 0f 59 c6	 mulsd	 xmm0, xmm6
  00e6b	f2 0f 5c e8	 subsd	 xmm5, xmm0
  00e6f	66 0f 5a c5	 cvtpd2ps xmm0, xmm5
  00e73	f3 0f 11 85 60
	ff ff ff	 movss	 DWORD PTR _v$533758[ebp+4], xmm0
  00e7b	0f 5a c1	 cvtps2pd xmm0, xmm1
  00e7e	0f 5a cc	 cvtps2pd xmm1, xmm4
  00e81	f2 0f 59 c1	 mulsd	 xmm0, xmm1
  00e85	0f 5a ca	 cvtps2pd xmm1, xmm2
  00e88	0f 5a d3	 cvtps2pd xmm2, xmm3
  00e8b	f2 0f 59 ca	 mulsd	 xmm1, xmm2
  00e8f	f2 0f 5c c1	 subsd	 xmm0, xmm1
  00e93	66 0f 5a c0	 cvtpd2ps xmm0, xmm0
  00e97	f3 0f 11 85 64
	ff ff ff	 movss	 DWORD PTR _v$533758[ebp+8], xmm0
  00e9f	a5		 movsd
  00ea0	a5		 movsd
  00ea1	a5		 movsd
  00ea2	e8 00 00 00 00	 call	 _D3DXVec3Normalize@8

; 420  : 
; 421  : 				D3DXVECTOR3 vCurForce = vCurXZDir * fMoveSpeed * fCurLoopTimePerSec;

  00ea7	f3 0f 10 55 a0	 movss	 xmm2, DWORD PTR _fMoveSpeed$530810[ebp]
  00eac	f3 0f 10 4d c0	 movss	 xmm1, DWORD PTR _vCurXZDir$530825[ebp]
  00eb1	f3 0f 10 45 a0	 movss	 xmm0, DWORD PTR _fMoveSpeed$530810[ebp]
  00eb6	f3 0f 10 5d a0	 movss	 xmm3, DWORD PTR _fMoveSpeed$530810[ebp]
  00ebb	0f 5a c9	 cvtps2pd xmm1, xmm1
  00ebe	0f 5a c0	 cvtps2pd xmm0, xmm0
  00ec1	f2 0f 59 c1	 mulsd	 xmm0, xmm1
  00ec5	0f 57 c9	 xorps	 xmm1, xmm1
  00ec8	f2 0f 5a c8	 cvtsd2ss xmm1, xmm0
  00ecc	f3 0f 10 45 c4	 movss	 xmm0, DWORD PTR _vCurXZDir$530825[ebp+4]
  00ed1	0f 5a d2	 cvtps2pd xmm2, xmm2

; 422  : 				vCurDir = vCurForce + (vCrossVec * m_fReturnControlSpeed * fCurLoopTimePerSec);

  00ed4	f3 0f 10 6d a8	 movss	 xmm5, DWORD PTR _vCrossVec$530829[ebp]
  00ed9	0f 5a db	 cvtps2pd xmm3, xmm3
  00edc	0f 5a c0	 cvtps2pd xmm0, xmm0
  00edf	f2 0f 59 c2	 mulsd	 xmm0, xmm2
  00ee3	0f 5a c9	 cvtps2pd xmm1, xmm1
  00ee6	66 0f 5a d0	 cvtpd2ps xmm2, xmm0
  00eea	f3 0f 10 45 c8	 movss	 xmm0, DWORD PTR _vCurXZDir$530825[ebp+8]
  00eef	0f 5a c0	 cvtps2pd xmm0, xmm0
  00ef2	f2 0f 59 c3	 mulsd	 xmm0, xmm3
  00ef6	66 0f 5a d8	 cvtpd2ps xmm3, xmm0
  00efa	f3 0f 10 45 a4	 movss	 xmm0, DWORD PTR _fCurLoopTimePerSec$530812[ebp]
  00eff	0f 5a e0	 cvtps2pd xmm4, xmm0
  00f02	f2 0f 59 e1	 mulsd	 xmm4, xmm1
  00f06	0f 5a ca	 cvtps2pd xmm1, xmm2
  00f09	0f 5a d0	 cvtps2pd xmm2, xmm0
  00f0c	f2 0f 59 ca	 mulsd	 xmm1, xmm2
  00f10	0f 57 d2	 xorps	 xmm2, xmm2
  00f13	66 0f 5a d1	 cvtpd2ps xmm2, xmm1
  00f17	0f 5a ed	 cvtps2pd xmm5, xmm5
  00f1a	66 0f 5a e4	 cvtpd2ps xmm4, xmm4
  00f1e	0f 5a cb	 cvtps2pd xmm1, xmm3
  00f21	0f 5a d8	 cvtps2pd xmm3, xmm0
  00f24	f2 0f 59 cb	 mulsd	 xmm1, xmm3
  00f28	0f 57 db	 xorps	 xmm3, xmm3
  00f2b	66 0f 5a d9	 cvtpd2ps xmm3, xmm1
  00f2f	f3 0f 10 8b 2c
	09 00 00	 movss	 xmm1, DWORD PTR [ebx+2348]
  00f37	0f 5a f1	 cvtps2pd xmm6, xmm1
  00f3a	f2 0f 59 ee	 mulsd	 xmm5, xmm6
  00f3e	f3 0f 10 75 ac	 movss	 xmm6, DWORD PTR _vCrossVec$530829[ebp+4]
  00f43	66 0f 5a ed	 cvtpd2ps xmm5, xmm5
  00f47	0f 5a f6	 cvtps2pd xmm6, xmm6
  00f4a	0f 5a f9	 cvtps2pd xmm7, xmm1
  00f4d	0f 5a c9	 cvtps2pd xmm1, xmm1
  00f50	f2 0f 59 f7	 mulsd	 xmm6, xmm7
  00f54	f3 0f 10 7d b0	 movss	 xmm7, DWORD PTR _vCrossVec$530829[ebp+8]
  00f59	0f 5a ff	 cvtps2pd xmm7, xmm7
  00f5c	f2 0f 59 f9	 mulsd	 xmm7, xmm1
  00f60	0f 57 c9	 xorps	 xmm1, xmm1
  00f63	66 0f 5a cf	 cvtpd2ps xmm1, xmm7
  00f67	f3 0f 5a ed	 cvtss2sd xmm5, xmm5
  00f6b	0f 5a c9	 cvtps2pd xmm1, xmm1
  00f6e	66 0f 5a f6	 cvtpd2ps xmm6, xmm6
  00f72	0f 5a f8	 cvtps2pd xmm7, xmm0
  00f75	f2 0f 59 fd	 mulsd	 xmm7, xmm5
  00f79	0f 57 ed	 xorps	 xmm5, xmm5
  00f7c	66 0f 5a ef	 cvtpd2ps xmm5, xmm7
  00f80	f3 0f 5a e4	 cvtss2sd xmm4, xmm4
  00f84	f3 0f 5a f6	 cvtss2sd xmm6, xmm6
  00f88	0f 5a d2	 cvtps2pd xmm2, xmm2
  00f8b	0f 5a f8	 cvtps2pd xmm7, xmm0
  00f8e	0f 5a c0	 cvtps2pd xmm0, xmm0
  00f91	f2 0f 59 c8	 mulsd	 xmm1, xmm0
  00f95	0f 57 c0	 xorps	 xmm0, xmm0
  00f98	66 0f 5a c1	 cvtpd2ps xmm0, xmm1
  00f9c	f2 0f 59 f7	 mulsd	 xmm6, xmm7
  00fa0	66 0f 5a f6	 cvtpd2ps xmm6, xmm6
  00fa4	0f 5a c0	 cvtps2pd xmm0, xmm0
  00fa7	0f 5a cd	 cvtps2pd xmm1, xmm5
  00faa	f2 0f 58 cc	 addsd	 xmm1, xmm4
  00fae	66 0f 5a c9	 cvtpd2ps xmm1, xmm1
  00fb2	f3 0f 11 8d 50
	ff ff ff	 movss	 DWORD PTR $T530835[ebp], xmm1
  00fba	0f 57 c9	 xorps	 xmm1, xmm1
  00fbd	f3 0f 5a ce	 cvtss2sd xmm1, xmm6
  00fc1	f2 0f 58 ca	 addsd	 xmm1, xmm2
  00fc5	66 0f 5a c9	 cvtpd2ps xmm1, xmm1
  00fc9	f3 0f 11 8d 54
	ff ff ff	 movss	 DWORD PTR $T530835[ebp+4], xmm1
  00fd1	0f 57 c9	 xorps	 xmm1, xmm1
  00fd4	0f 5a cb	 cvtps2pd xmm1, xmm3
  00fd7	f2 0f 58 c1	 addsd	 xmm0, xmm1
  00fdb	66 0f 5a c0	 cvtpd2ps xmm0, xmm0
  00fdf	f3 0f 11 85 58
	ff ff ff	 movss	 DWORD PTR $T530835[ebp+8], xmm0
  00fe7	8d b5 50 ff ff
	ff		 lea	 esi, DWORD PTR $T530835[ebp]

; 423  : 
; 424  : 				D3DXVec3Normalize( &vCurDir, &vCurDir );
; 425  : 			}
; 426  : 			else

  00fed	e9 3e 01 00 00	 jmp	 $LN360@CheckOwner
$LN14@CheckOwner:

; 427  : 			{
; 428  : 				D3DXVECTOR3 vCurForce = vCurXZDir * fMoveSpeed * fCurLoopTimePerSec;

  00ff2	f3 0f 10 55 a0	 movss	 xmm2, DWORD PTR _fMoveSpeed$530810[ebp]
  00ff7	f3 0f 10 45 a0	 movss	 xmm0, DWORD PTR _fMoveSpeed$530810[ebp]
  00ffc	0f 5a cc	 cvtps2pd xmm1, xmm4
  00fff	0f 5a c0	 cvtps2pd xmm0, xmm0
  01002	f2 0f 59 c1	 mulsd	 xmm0, xmm1
  01006	0f 5a d2	 cvtps2pd xmm2, xmm2

; 429  : 				vCurDir = vCurForce + (vDiffXZDir * m_fReturnControlSpeed * fCurLoopTimePerSec);

  01009	f3 0f 10 75 b4	 movss	 xmm6, DWORD PTR _vDiffXZDir$530826[ebp]
  0100e	f2 0f 5a c0	 cvtsd2ss xmm0, xmm0
  01012	0f 5a cb	 cvtps2pd xmm1, xmm3
  01015	f3 0f 10 5d a0	 movss	 xmm3, DWORD PTR _fMoveSpeed$530810[ebp]
  0101a	f2 0f 59 ca	 mulsd	 xmm1, xmm2
  0101e	66 0f 5a c9	 cvtpd2ps xmm1, xmm1
  01022	0f 5a d5	 cvtps2pd xmm2, xmm5
  01025	0f 5a db	 cvtps2pd xmm3, xmm3
  01028	f2 0f 59 d3	 mulsd	 xmm2, xmm3
  0102c	f3 0f 5a c9	 cvtss2sd xmm1, xmm1
  01030	0f 57 db	 xorps	 xmm3, xmm3
  01033	f3 0f 5a d8	 cvtss2sd xmm3, xmm0
  01037	f3 0f 10 45 a4	 movss	 xmm0, DWORD PTR _fCurLoopTimePerSec$530812[ebp]
  0103c	0f 5a e0	 cvtps2pd xmm4, xmm0
  0103f	f2 0f 59 dc	 mulsd	 xmm3, xmm4
  01043	66 0f 5a d2	 cvtpd2ps xmm2, xmm2
  01047	0f 5a f6	 cvtps2pd xmm6, xmm6
  0104a	66 0f 5a db	 cvtpd2ps xmm3, xmm3
  0104e	f3 0f 5a db	 cvtss2sd xmm3, xmm3
  01052	0f 5a e0	 cvtps2pd xmm4, xmm0
  01055	f2 0f 59 cc	 mulsd	 xmm1, xmm4
  01059	0f 57 e4	 xorps	 xmm4, xmm4
  0105c	66 0f 5a e1	 cvtpd2ps xmm4, xmm1
  01060	0f 57 c9	 xorps	 xmm1, xmm1
  01063	f3 0f 5a ca	 cvtss2sd xmm1, xmm2
  01067	0f 5a d0	 cvtps2pd xmm2, xmm0
  0106a	f2 0f 59 ca	 mulsd	 xmm1, xmm2
  0106e	8d b5 74 ff ff
	ff		 lea	 esi, DWORD PTR $T530842[ebp]
  01074	66 0f 5a d1	 cvtpd2ps xmm2, xmm1
  01078	f3 0f 10 8b 2c
	09 00 00	 movss	 xmm1, DWORD PTR [ebx+2348]
  01080	0f 5a e9	 cvtps2pd xmm5, xmm1
  01083	0f 5a f9	 cvtps2pd xmm7, xmm1
  01086	f2 0f 59 ee	 mulsd	 xmm5, xmm6
  0108a	f3 0f 10 75 b8	 movss	 xmm6, DWORD PTR _vDiffXZDir$530826[ebp+4]
  0108f	0f 5a c9	 cvtps2pd xmm1, xmm1
  01092	0f 5a f6	 cvtps2pd xmm6, xmm6
  01095	f2 0f 59 f7	 mulsd	 xmm6, xmm7
  01099	f3 0f 10 7d bc	 movss	 xmm7, DWORD PTR _vDiffXZDir$530826[ebp+8]
  0109e	0f 5a ff	 cvtps2pd xmm7, xmm7
  010a1	f2 0f 59 f9	 mulsd	 xmm7, xmm1
  010a5	0f 57 c9	 xorps	 xmm1, xmm1
  010a8	f2 0f 5a cf	 cvtsd2ss xmm1, xmm7
  010ac	0f 5a c9	 cvtps2pd xmm1, xmm1
  010af	66 0f 5a ed	 cvtpd2ps xmm5, xmm5
  010b3	f3 0f 5a ed	 cvtss2sd xmm5, xmm5
  010b7	0f 5a f8	 cvtps2pd xmm7, xmm0
  010ba	f2 0f 59 ef	 mulsd	 xmm5, xmm7
  010be	f2 0f 5a f6	 cvtsd2ss xmm6, xmm6
  010c2	66 0f 5a ed	 cvtpd2ps xmm5, xmm5
  010c6	f3 0f 5a f6	 cvtss2sd xmm6, xmm6
  010ca	0f 5a f8	 cvtps2pd xmm7, xmm0
  010cd	0f 5a c0	 cvtps2pd xmm0, xmm0
  010d0	f2 0f 59 c8	 mulsd	 xmm1, xmm0
  010d4	0f 57 c0	 xorps	 xmm0, xmm0
  010d7	66 0f 5a c1	 cvtpd2ps xmm0, xmm1
  010db	0f 57 c9	 xorps	 xmm1, xmm1
  010de	f3 0f 5a cd	 cvtss2sd xmm1, xmm5
  010e2	f2 0f 58 cb	 addsd	 xmm1, xmm3
  010e6	66 0f 5a c9	 cvtpd2ps xmm1, xmm1
  010ea	f3 0f 11 8d 74
	ff ff ff	 movss	 DWORD PTR $T530842[ebp], xmm1
  010f2	0f 57 c9	 xorps	 xmm1, xmm1
  010f5	f2 0f 59 f7	 mulsd	 xmm6, xmm7
  010f9	f2 0f 5a f6	 cvtsd2ss xmm6, xmm6
  010fd	f3 0f 5a ce	 cvtss2sd xmm1, xmm6
  01101	0f 57 db	 xorps	 xmm3, xmm3
  01104	0f 5a dc	 cvtps2pd xmm3, xmm4
  01107	f2 0f 58 cb	 addsd	 xmm1, xmm3
  0110b	66 0f 5a c9	 cvtpd2ps xmm1, xmm1
  0110f	f3 0f 11 8d 78
	ff ff ff	 movss	 DWORD PTR $T530842[ebp+4], xmm1
  01117	0f 5a c0	 cvtps2pd xmm0, xmm0
  0111a	0f 57 c9	 xorps	 xmm1, xmm1
  0111d	0f 5a ca	 cvtps2pd xmm1, xmm2
  01120	f2 0f 58 c1	 addsd	 xmm0, xmm1
  01124	66 0f 5a c0	 cvtpd2ps xmm0, xmm0
  01128	f3 0f 11 85 7c
	ff ff ff	 movss	 DWORD PTR $T530842[ebp+8], xmm0
$LN360@CheckOwner:

; 430  : 
; 431  : 				D3DXVec3Normalize( &vCurDir, &vCurDir );

  01130	8d 45 e4	 lea	 eax, DWORD PTR _vCurDir$530807[ebp]
  01133	8b f8		 mov	 edi, eax
  01135	a5		 movsd
  01136	a5		 movsd
  01137	50		 push	 eax
  01138	50		 push	 eax
  01139	a5		 movsd
  0113a	e8 00 00 00 00	 call	 _D3DXVec3Normalize@8
  0113f	f3 0f 10 45 9c	 movss	 xmm0, DWORD PTR _fTimeGap$530808[ebp]
  01144	0f 2f 05 00 00
	00 00		 comiss	 xmm0, DWORD PTR __real@00000000
  0114b	0f 87 08 fb ff
	ff		 ja	 $LL18@CheckOwner
$LN17@CheckOwner:

; 432  : 			}
; 433  : 		}
; 434  : 
; 435  : 		D3DXVec3Normalize( &m_vCurMoveDir, &vCurDir );

  01151	8d 45 e4	 lea	 eax, DWORD PTR _vCurDir$530807[ebp]
  01154	50		 push	 eax
  01155	8d 83 ac 08 00
	00		 lea	 eax, DWORD PTR [ebx+2220]
  0115b	50		 push	 eax
  0115c	e8 00 00 00 00	 call	 _D3DXVec3Normalize@8

; 436  : 		D3DXVECTOR3 vMove = vCurDir * m_fCurMoveDistance;

  01161	f3 0f 10 83 dc
	08 00 00	 movss	 xmm0, DWORD PTR [ebx+2268]
  01169	f3 0f 10 4d e4	 movss	 xmm1, DWORD PTR _vCurDir$530807[ebp]
  0116e	0f 5a c9	 cvtps2pd xmm1, xmm1
  01171	0f 5a d0	 cvtps2pd xmm2, xmm0
  01174	f2 0f 59 ca	 mulsd	 xmm1, xmm2
  01178	66 0f 5a c9	 cvtpd2ps xmm1, xmm1
  0117c	f3 0f 11 4d f0	 movss	 DWORD PTR _vMove$530843[ebp], xmm1
  01181	f3 0f 10 4d e8	 movss	 xmm1, DWORD PTR _vCurDir$530807[ebp+4]
  01186	0f 5a c9	 cvtps2pd xmm1, xmm1
  01189	0f 5a d0	 cvtps2pd xmm2, xmm0
  0118c	f2 0f 59 ca	 mulsd	 xmm1, xmm2
  01190	66 0f 5a c9	 cvtpd2ps xmm1, xmm1
  01194	f3 0f 11 4d f4	 movss	 DWORD PTR _vMove$530843[ebp+4], xmm1
  01199	f3 0f 10 4d ec	 movss	 xmm1, DWORD PTR _vCurDir$530807[ebp+8]
  0119e	0f 5a c0	 cvtps2pd xmm0, xmm0
  011a1	0f 5a c9	 cvtps2pd xmm1, xmm1
  011a4	f2 0f 59 c8	 mulsd	 xmm1, xmm0
  011a8	0f 57 c0	 xorps	 xmm0, xmm0
  011ab	66 0f 5a c1	 cvtpd2ps xmm0, xmm1

; 437  : 
; 438  : 		// 
; 439  : 		float fHeightSpeed = m_fControlSpeed * fTimePerSec;

  011af	f3 0f 10 4d 98	 movss	 xmm1, DWORD PTR _fTimePerSec$GSCopy$[ebp]
  011b4	f3 0f 11 45 f8	 movss	 DWORD PTR _vMove$530843[ebp+8], xmm0
  011b9	f3 0f 10 83 28
	09 00 00	 movss	 xmm0, DWORD PTR [ebx+2344]
  011c1	0f 5a c0	 cvtps2pd xmm0, xmm0
  011c4	0f 5a c9	 cvtps2pd xmm1, xmm1
  011c7	f2 0f 59 c1	 mulsd	 xmm0, xmm1

; 440  : 		if( vCharPos.y != vPreCharPos.y )

  011cb	f3 0f 10 8d 6c
	ff ff ff	 movss	 xmm1, DWORD PTR _vPreCharPos$[ebp+4]
  011d3	0f 57 e4	 xorps	 xmm4, xmm4
  011d6	66 0f 5a e0	 cvtpd2ps xmm4, xmm0
  011da	f3 0f 10 45 84	 movss	 xmm0, DWORD PTR _vCharPos$[ebp+4]
  011df	0f 5a c0	 cvtps2pd xmm0, xmm0
  011e2	0f 5a c9	 cvtps2pd xmm1, xmm1
  011e5	66 0f 2e c1	 ucomisd xmm0, xmm1
  011e9	9f		 lahf
  011ea	f6 c4 44	 test	 ah, 68			; 00000044H
  011ed	7b 3a		 jnp	 SHORT $LN12@CheckOwner

; 441  : 		{
; 442  : 			float fGap = vCharPos.y - vPreCharPos.y;
; 443  : 			m_fControlValue2 += fGap;

  011ef	f3 0f 10 45 84	 movss	 xmm0, DWORD PTR _vCharPos$[ebp+4]
  011f4	f3 0f 10 8d 6c
	ff ff ff	 movss	 xmm1, DWORD PTR _vPreCharPos$[ebp+4]
  011fc	0f 5a c0	 cvtps2pd xmm0, xmm0
  011ff	0f 5a c9	 cvtps2pd xmm1, xmm1
  01202	f2 0f 5c c1	 subsd	 xmm0, xmm1
  01206	f3 0f 10 8b 40
	09 00 00	 movss	 xmm1, DWORD PTR [ebx+2368]
  0120e	f2 0f 5a c0	 cvtsd2ss xmm0, xmm0
  01212	f3 0f 5a c0	 cvtss2sd xmm0, xmm0
  01216	0f 5a c9	 cvtps2pd xmm1, xmm1
  01219	f2 0f 58 c1	 addsd	 xmm0, xmm1
  0121d	f2 0f 5a c0	 cvtsd2ss xmm0, xmm0
  01221	f3 0f 11 83 40
	09 00 00	 movss	 DWORD PTR [ebx+2368], xmm0
$LN12@CheckOwner:

; 444  : 		}
; 445  : 
; 446  : 		if( fabs(m_fControlValue2) > FLOAT0001 && fHeightSpeed <= fabs(m_fControlValue2) )

  01229	d9 83 40 09 00
	00		 fld	 DWORD PTR [ebx+2368]
  0122f	d9 e1		 fabs
  01231	d9 5d a4	 fstp	 DWORD PTR tv4600[ebp]
  01234	d9 45 a4	 fld	 DWORD PTR tv4600[ebp]
  01237	d9 5d a4	 fstp	 DWORD PTR $T533893[ebp]
  0123a	b8 01 00 00 00	 mov	 eax, 1
  0123f	8b c8		 mov	 ecx, eax
  01241	b8 e8 03 00 00	 mov	 eax, 1000		; 000003e8H
  01246	d9 45 a4	 fld	 DWORD PTR $T533893[ebp]
  01249	89 4d a4	 mov	 DWORD PTR tv4594[ebp], ecx
  0124c	db 45 a4	 fild	 DWORD PTR tv4594[ebp]
  0124f	85 c9		 test	 ecx, ecx
  01251	79 06		 jns	 SHORT $LN349@CheckOwner
  01253	d8 05 00 00 00
	00		 fadd	 DWORD PTR __real@4f800000
$LN349@CheckOwner:
  01259	89 45 a4	 mov	 DWORD PTR tv4590[ebp], eax
  0125c	db 45 a4	 fild	 DWORD PTR tv4590[ebp]
  0125f	85 c0		 test	 eax, eax
  01261	79 06		 jns	 SHORT $LN350@CheckOwner
  01263	d8 05 00 00 00
	00		 fadd	 DWORD PTR __real@4f800000
$LN350@CheckOwner:
  01269	de f9		 fdivp	 ST(1), ST(0)
  0126b	d9 5d a4	 fstp	 DWORD PTR tv4586[ebp]
  0126e	d9 45 a4	 fld	 DWORD PTR tv4586[ebp]
  01271	d9 c9		 fxch	 ST(1)
  01273	df f1		 fcomip	 ST(1)
  01275	dd d8		 fstp	 ST(0)
  01277	0f 86 9f 01 00
	00		 jbe	 $LN11@CheckOwner
  0127d	f3 0f 10 ab 40
	09 00 00	 movss	 xmm5, DWORD PTR [ebx+2368]
  01285	0f 5a cd	 cvtps2pd xmm1, xmm5
  01288	66 0f 54 0d 00
	00 00 00	 andpd	 xmm1, QWORD PTR __mask@@AbsDouble@
  01290	0f 57 c0	 xorps	 xmm0, xmm0
  01293	f2 0f 5a c9	 cvtsd2ss xmm1, xmm1
  01297	0f 5a c4	 cvtps2pd xmm0, xmm4
  0129a	f3 0f 5a c9	 cvtss2sd xmm1, xmm1
  0129e	66 0f 2f c8	 comisd	 xmm1, xmm0
  012a2	0f 82 74 01 00
	00		 jb	 $LN11@CheckOwner

; 447  : 		{
; 448  : 			if( m_fControlValue2 < 0.0f )

  012a8	0f 57 c0	 xorps	 xmm0, xmm0
  012ab	0f 2f c5	 comiss	 xmm0, xmm5
  012ae	0f 86 ba 00 00
	00		 jbe	 $LN10@CheckOwner

; 449  : 			{
; 450  : 				vMove += fHeightSpeed * (-m_vRollAxis);

  012b4	f3 0f 10 05 00
	00 00 00	 movss	 xmm0, DWORD PTR __mask@@NegFloat@
  012bc	f3 0f 10 8b c4
	08 00 00	 movss	 xmm1, DWORD PTR [ebx+2244]
  012c4	f3 0f 10 93 c8
	08 00 00	 movss	 xmm2, DWORD PTR [ebx+2248]
  012cc	f3 0f 10 9b cc
	08 00 00	 movss	 xmm3, DWORD PTR [ebx+2252]
  012d4	0f 57 c8	 xorps	 xmm1, xmm0
  012d7	0f 57 d0	 xorps	 xmm2, xmm0
  012da	0f 57 d8	 xorps	 xmm3, xmm0
  012dd	0f 5a c1	 cvtps2pd xmm0, xmm1
  012e0	0f 5a cc	 cvtps2pd xmm1, xmm4
  012e3	f2 0f 59 c1	 mulsd	 xmm0, xmm1
  012e7	66 0f 5a c0	 cvtpd2ps xmm0, xmm0
  012eb	f3 0f 5a c0	 cvtss2sd xmm0, xmm0
  012ef	0f 5a ca	 cvtps2pd xmm1, xmm2
  012f2	0f 5a d4	 cvtps2pd xmm2, xmm4
  012f5	f2 0f 59 ca	 mulsd	 xmm1, xmm2
  012f9	66 0f 5a c9	 cvtpd2ps xmm1, xmm1
  012fd	0f 5a d3	 cvtps2pd xmm2, xmm3
  01300	0f 5a dc	 cvtps2pd xmm3, xmm4
  01303	f2 0f 59 d3	 mulsd	 xmm2, xmm3
  01307	f3 0f 10 5d f0	 movss	 xmm3, DWORD PTR _vMove$530843[ebp]
  0130c	0f 5a db	 cvtps2pd xmm3, xmm3
  0130f	f2 0f 58 c3	 addsd	 xmm0, xmm3
  01313	66 0f 5a c0	 cvtpd2ps xmm0, xmm0
  01317	f3 0f 11 45 f0	 movss	 DWORD PTR _vMove$530843[ebp], xmm0
  0131c	0f 57 c0	 xorps	 xmm0, xmm0
  0131f	f3 0f 5a c1	 cvtss2sd xmm0, xmm1
  01323	f3 0f 10 4d f4	 movss	 xmm1, DWORD PTR _vMove$530843[ebp+4]
  01328	0f 5a c9	 cvtps2pd xmm1, xmm1
  0132b	f2 0f 58 c1	 addsd	 xmm0, xmm1
  0132f	f3 0f 10 4d f8	 movss	 xmm1, DWORD PTR _vMove$530843[ebp+8]
  01334	66 0f 5a c0	 cvtpd2ps xmm0, xmm0
  01338	f3 0f 11 45 f4	 movss	 DWORD PTR _vMove$530843[ebp+4], xmm0
  0133d	0f 57 c0	 xorps	 xmm0, xmm0
  01340	0f 5a c9	 cvtps2pd xmm1, xmm1
  01343	66 0f 5a d2	 cvtpd2ps xmm2, xmm2
  01347	f3 0f 5a c2	 cvtss2sd xmm0, xmm2
  0134b	f2 0f 58 c1	 addsd	 xmm0, xmm1
  0134f	66 0f 5a c0	 cvtpd2ps xmm0, xmm0
  01353	f3 0f 11 45 f8	 movss	 DWORD PTR _vMove$530843[ebp+8], xmm0

; 451  : 				m_fControlValue2 += fHeightSpeed;

  01358	0f 57 c9	 xorps	 xmm1, xmm1
  0135b	0f 5a cc	 cvtps2pd xmm1, xmm4
  0135e	0f 5a c5	 cvtps2pd xmm0, xmm5
  01361	f2 0f 58 c1	 addsd	 xmm0, xmm1
$LN364@CheckOwner:
  01365	66 0f 5a c0	 cvtpd2ps xmm0, xmm0
  01369	e9 ad 01 00 00	 jmp	 $LN361@CheckOwner
$LN10@CheckOwner:

; 452  : 			}
; 453  : 			else if( m_fControlValue2 > 0.0f )

  0136e	0f 2f e8	 comiss	 xmm5, xmm0
  01371	0f 86 ac 01 00
	00		 jbe	 $LN3@CheckOwner

; 454  : 			{
; 455  : 				vMove += fHeightSpeed * m_vRollAxis;

  01377	f3 0f 10 83 c4
	08 00 00	 movss	 xmm0, DWORD PTR [ebx+2244]
  0137f	0f 5a c0	 cvtps2pd xmm0, xmm0
  01382	0f 5a cc	 cvtps2pd xmm1, xmm4
  01385	f2 0f 59 c1	 mulsd	 xmm0, xmm1
  01389	f3 0f 10 8b c8
	08 00 00	 movss	 xmm1, DWORD PTR [ebx+2248]
  01391	66 0f 5a c0	 cvtpd2ps xmm0, xmm0
  01395	0f 5a c9	 cvtps2pd xmm1, xmm1
  01398	f3 0f 5a c0	 cvtss2sd xmm0, xmm0
  0139c	0f 5a d4	 cvtps2pd xmm2, xmm4
  0139f	f2 0f 59 ca	 mulsd	 xmm1, xmm2
  013a3	f3 0f 10 93 cc
	08 00 00	 movss	 xmm2, DWORD PTR [ebx+2252]
  013ab	0f 5a dc	 cvtps2pd xmm3, xmm4
  013ae	0f 5a d2	 cvtps2pd xmm2, xmm2
  013b1	f2 0f 59 d3	 mulsd	 xmm2, xmm3
  013b5	f3 0f 10 5d f0	 movss	 xmm3, DWORD PTR _vMove$530843[ebp]
  013ba	66 0f 5a c9	 cvtpd2ps xmm1, xmm1
  013be	0f 5a db	 cvtps2pd xmm3, xmm3
  013c1	f2 0f 58 c3	 addsd	 xmm0, xmm3
  013c5	66 0f 5a c0	 cvtpd2ps xmm0, xmm0
  013c9	f3 0f 11 45 f0	 movss	 DWORD PTR _vMove$530843[ebp], xmm0
  013ce	0f 57 c0	 xorps	 xmm0, xmm0
  013d1	f3 0f 5a c1	 cvtss2sd xmm0, xmm1
  013d5	f3 0f 10 4d f4	 movss	 xmm1, DWORD PTR _vMove$530843[ebp+4]
  013da	0f 5a c9	 cvtps2pd xmm1, xmm1
  013dd	f2 0f 58 c1	 addsd	 xmm0, xmm1
  013e1	f3 0f 10 4d f8	 movss	 xmm1, DWORD PTR _vMove$530843[ebp+8]
  013e6	66 0f 5a c0	 cvtpd2ps xmm0, xmm0
  013ea	f3 0f 11 45 f4	 movss	 DWORD PTR _vMove$530843[ebp+4], xmm0
  013ef	0f 57 c0	 xorps	 xmm0, xmm0
  013f2	0f 5a c9	 cvtps2pd xmm1, xmm1
  013f5	66 0f 5a d2	 cvtpd2ps xmm2, xmm2
  013f9	f3 0f 5a c2	 cvtss2sd xmm0, xmm2
  013fd	f2 0f 58 c1	 addsd	 xmm0, xmm1
  01401	66 0f 5a c0	 cvtpd2ps xmm0, xmm0
  01405	f3 0f 11 45 f8	 movss	 DWORD PTR _vMove$530843[ebp+8], xmm0

; 456  : 				m_fControlValue2 -= fHeightSpeed;

  0140a	0f 57 c9	 xorps	 xmm1, xmm1
  0140d	0f 5a cc	 cvtps2pd xmm1, xmm4
  01410	0f 5a c5	 cvtps2pd xmm0, xmm5
  01413	f2 0f 5c c1	 subsd	 xmm0, xmm1

; 457  : 			}
; 458  : 		}

  01417	e9 49 ff ff ff	 jmp	 $LN364@CheckOwner
$LN11@CheckOwner:

; 459  : 		else if( fabs(m_fControlValue2) > FLOAT0001 )

  0141c	d9 83 40 09 00
	00		 fld	 DWORD PTR [ebx+2368]
  01422	d9 5d a4	 fstp	 DWORD PTR $T533960[ebp]
  01425	b8 01 00 00 00	 mov	 eax, 1
  0142a	8b c8		 mov	 ecx, eax
  0142c	b8 e8 03 00 00	 mov	 eax, 1000		; 000003e8H
  01431	d9 45 a4	 fld	 DWORD PTR $T533960[ebp]
  01434	d9 e1		 fabs
  01436	d9 5d a4	 fstp	 DWORD PTR tv4539[ebp]
  01439	d9 45 a4	 fld	 DWORD PTR tv4539[ebp]
  0143c	89 4d a4	 mov	 DWORD PTR tv4533[ebp], ecx
  0143f	db 45 a4	 fild	 DWORD PTR tv4533[ebp]
  01442	85 c9		 test	 ecx, ecx
  01444	79 06		 jns	 SHORT $LN351@CheckOwner
  01446	d8 05 00 00 00
	00		 fadd	 DWORD PTR __real@4f800000
$LN351@CheckOwner:
  0144c	89 45 a4	 mov	 DWORD PTR tv4529[ebp], eax
  0144f	db 45 a4	 fild	 DWORD PTR tv4529[ebp]
  01452	85 c0		 test	 eax, eax
  01454	79 06		 jns	 SHORT $LN352@CheckOwner
  01456	d8 05 00 00 00
	00		 fadd	 DWORD PTR __real@4f800000
$LN352@CheckOwner:
  0145c	de f9		 fdivp	 ST(1), ST(0)
  0145e	d9 5d a4	 fstp	 DWORD PTR tv4525[ebp]
  01461	d9 45 a4	 fld	 DWORD PTR tv4525[ebp]
  01464	d9 c9		 fxch	 ST(1)
  01466	df f1		 fcomip	 ST(1)
  01468	dd d8		 fstp	 ST(0)
  0146a	0f 86 b3 00 00
	00		 jbe	 $LN3@CheckOwner

; 460  : 		{
; 461  : 			if( m_fControlValue2 < 0.0f )

  01470	f3 0f 10 8b 40
	09 00 00	 movss	 xmm1, DWORD PTR [ebx+2368]
  01478	0f 57 c0	 xorps	 xmm0, xmm0
  0147b	0f 2f c1	 comiss	 xmm0, xmm1

; 462  : 			{
; 463  : 				vMove += m_fControlValue2 * m_vRollAxis;
; 464  : 				m_fControlValue2 = 0.0f;

  0147e	77 09		 ja	 SHORT $LN363@CheckOwner

; 465  : 			}
; 466  : 			else if( m_fControlValue2 > 0.0f )

  01480	0f 2f c8	 comiss	 xmm1, xmm0
  01483	0f 86 9a 00 00
	00		 jbe	 $LN3@CheckOwner
$LN363@CheckOwner:

; 467  : 			{
; 468  : 				vMove += m_fControlValue2 * m_vRollAxis;

  01489	f3 0f 10 9b c4
	08 00 00	 movss	 xmm3, DWORD PTR [ebx+2244]
  01491	0f 5a d1	 cvtps2pd xmm2, xmm1
  01494	0f 5a e1	 cvtps2pd xmm4, xmm1
  01497	0f 5a db	 cvtps2pd xmm3, xmm3
  0149a	f2 0f 59 d3	 mulsd	 xmm2, xmm3
  0149e	f3 0f 10 9b c8
	08 00 00	 movss	 xmm3, DWORD PTR [ebx+2248]
  014a6	0f 5a db	 cvtps2pd xmm3, xmm3
  014a9	f2 0f 59 dc	 mulsd	 xmm3, xmm4
  014ad	f3 0f 10 a3 cc
	08 00 00	 movss	 xmm4, DWORD PTR [ebx+2252]
  014b5	0f 5a c9	 cvtps2pd xmm1, xmm1
  014b8	66 0f 5a d2	 cvtpd2ps xmm2, xmm2
  014bc	0f 5a e4	 cvtps2pd xmm4, xmm4
  014bf	f2 0f 59 e1	 mulsd	 xmm4, xmm1
  014c3	f3 0f 5a d2	 cvtss2sd xmm2, xmm2
  014c7	0f 57 c9	 xorps	 xmm1, xmm1
  014ca	66 0f 5a cc	 cvtpd2ps xmm1, xmm4
  014ce	f3 0f 10 65 f0	 movss	 xmm4, DWORD PTR _vMove$530843[ebp]
  014d3	0f 5a e4	 cvtps2pd xmm4, xmm4
  014d6	f2 0f 58 d4	 addsd	 xmm2, xmm4
  014da	66 0f 5a d2	 cvtpd2ps xmm2, xmm2
  014de	f3 0f 11 55 f0	 movss	 DWORD PTR _vMove$530843[ebp], xmm2
  014e3	0f 57 d2	 xorps	 xmm2, xmm2
  014e6	66 0f 5a db	 cvtpd2ps xmm3, xmm3
  014ea	f3 0f 5a d3	 cvtss2sd xmm2, xmm3
  014ee	f3 0f 10 5d f4	 movss	 xmm3, DWORD PTR _vMove$530843[ebp+4]
  014f3	0f 5a db	 cvtps2pd xmm3, xmm3
  014f6	f2 0f 58 d3	 addsd	 xmm2, xmm3
  014fa	66 0f 5a d2	 cvtpd2ps xmm2, xmm2
  014fe	f3 0f 11 55 f4	 movss	 DWORD PTR _vMove$530843[ebp+4], xmm2
  01503	f3 0f 10 55 f8	 movss	 xmm2, DWORD PTR _vMove$530843[ebp+8]
  01508	0f 5a c9	 cvtps2pd xmm1, xmm1
  0150b	0f 5a d2	 cvtps2pd xmm2, xmm2
  0150e	f2 0f 58 ca	 addsd	 xmm1, xmm2
  01512	66 0f 5a c9	 cvtpd2ps xmm1, xmm1
  01516	f3 0f 11 4d f8	 movss	 DWORD PTR _vMove$530843[ebp+8], xmm1
$LN361@CheckOwner:

; 469  : 				m_fControlValue2 = 0.0f;

  0151b	f3 0f 11 83 40
	09 00 00	 movss	 DWORD PTR [ebx+2368], xmm0
$LN3@CheckOwner:

; 470  : 			}
; 471  : 		}
; 472  : 
; 473  : 		D3DXVec3Normalize( &vMove, &vMove );

  01523	8d 45 f0	 lea	 eax, DWORD PTR _vMove$530843[ebp]
  01526	50		 push	 eax
  01527	50		 push	 eax
  01528	e8 00 00 00 00	 call	 _D3DXVec3Normalize@8

; 474  : 		if( fLength <= m_fCurMoveDistance )

  0152d	f3 0f 10 83 dc
	08 00 00	 movss	 xmm0, DWORD PTR [ebx+2268]
  01535	f3 0f 10 4d 94	 movss	 xmm1, DWORD PTR _fLength$530805[ebp]
  0153a	0f 57 d2	 xorps	 xmm2, xmm2
  0153d	0f 5a d1	 cvtps2pd xmm2, xmm1
  01540	0f 5a d8	 cvtps2pd xmm3, xmm0
  01543	66 0f 2f da	 comisd	 xmm3, xmm2
  01547	72 5f		 jb	 SHORT $LN2@CheckOwner

; 475  : 			vMove = vCurDir * fLength;

  01549	f3 0f 10 45 e4	 movss	 xmm0, DWORD PTR _vCurDir$530807[ebp]
  0154e	0f 5a c0	 cvtps2pd xmm0, xmm0
  01551	0f 5a d1	 cvtps2pd xmm2, xmm1
  01554	f2 0f 59 c2	 mulsd	 xmm0, xmm2
  01558	66 0f 5a c0	 cvtpd2ps xmm0, xmm0
  0155c	f3 0f 11 85 74
	ff ff ff	 movss	 DWORD PTR $T530869[ebp], xmm0
  01564	f3 0f 10 45 e8	 movss	 xmm0, DWORD PTR _vCurDir$530807[ebp+4]
  01569	0f 5a c0	 cvtps2pd xmm0, xmm0
  0156c	0f 5a d1	 cvtps2pd xmm2, xmm1
  0156f	f2 0f 59 c2	 mulsd	 xmm0, xmm2
  01573	66 0f 5a c0	 cvtpd2ps xmm0, xmm0
  01577	f3 0f 11 85 78
	ff ff ff	 movss	 DWORD PTR $T530869[ebp+4], xmm0
  0157f	f3 0f 10 45 ec	 movss	 xmm0, DWORD PTR _vCurDir$530807[ebp+8]
  01584	0f 5a c0	 cvtps2pd xmm0, xmm0
  01587	0f 5a c9	 cvtps2pd xmm1, xmm1
  0158a	f2 0f 59 c1	 mulsd	 xmm0, xmm1
  0158e	66 0f 5a c0	 cvtpd2ps xmm0, xmm0
  01592	f3 0f 11 85 7c
	ff ff ff	 movss	 DWORD PTR $T530869[ebp+8], xmm0
  0159a	8d b5 74 ff ff
	ff		 lea	 esi, DWORD PTR $T530869[ebp]
  015a0	8d 7d f0	 lea	 edi, DWORD PTR _vMove$530843[ebp]
  015a3	a5		 movsd
  015a4	a5		 movsd
  015a5	a5		 movsd

; 476  : 		else

  015a6	eb 48		 jmp	 SHORT $LN321@CheckOwner
$LN2@CheckOwner:

; 477  : 			vMove *= m_fCurMoveDistance;

  015a8	f3 0f 10 55 f0	 movss	 xmm2, DWORD PTR _vMove$530843[ebp]
  015ad	0f 5a c8	 cvtps2pd xmm1, xmm0
  015b0	0f 5a d2	 cvtps2pd xmm2, xmm2
  015b3	f2 0f 59 ca	 mulsd	 xmm1, xmm2
  015b7	66 0f 5a c9	 cvtpd2ps xmm1, xmm1
  015bb	f3 0f 11 4d f0	 movss	 DWORD PTR _vMove$530843[ebp], xmm1
  015c0	f3 0f 10 4d f4	 movss	 xmm1, DWORD PTR _vMove$530843[ebp+4]
  015c5	0f 5a c9	 cvtps2pd xmm1, xmm1
  015c8	0f 5a d0	 cvtps2pd xmm2, xmm0
  015cb	f2 0f 59 ca	 mulsd	 xmm1, xmm2
  015cf	66 0f 5a c9	 cvtpd2ps xmm1, xmm1
  015d3	0f 5a c0	 cvtps2pd xmm0, xmm0
  015d6	f3 0f 11 4d f4	 movss	 DWORD PTR _vMove$530843[ebp+4], xmm1
  015db	f3 0f 10 4d f8	 movss	 xmm1, DWORD PTR _vMove$530843[ebp+8]
  015e0	0f 5a c9	 cvtps2pd xmm1, xmm1
  015e3	f2 0f 59 c8	 mulsd	 xmm1, xmm0
  015e7	66 0f 5a c1	 cvtpd2ps xmm0, xmm1
$LN359@CheckOwner:
  015eb	f3 0f 11 45 f8	 movss	 DWORD PTR _vMove$530843[ebp+8], xmm0
$LN321@CheckOwner:

; 478  : 
; 479  : 		GetParentSceneNode()->Translate( vMove );

  015f0	8b 4b 04	 mov	 ecx, DWORD PTR [ebx+4]
  015f3	8b 01		 mov	 eax, DWORD PTR [ecx]
  015f5	6a 01		 push	 1
  015f7	8d 55 f0	 lea	 edx, DWORD PTR _vMove$530843[ebp]
  015fa	52		 push	 edx
  015fb	ff 50 3c	 call	 DWORD PTR [eax+60]

; 480  : 	}
; 481  : 
; 482  : 	return false;

  015fe	32 c0		 xor	 al, al
$LN329@CheckOwner:
  01600	5f		 pop	 edi
  01601	5e		 pop	 esi
$LN45@CheckOwner:

; 483  : }

  01602	8b 4d fc	 mov	 ecx, DWORD PTR __$ArrayPad$[ebp]
  01605	33 cd		 xor	 ecx, ebp
  01607	5b		 pop	 ebx
  01608	e8 00 00 00 00	 call	 @__security_check_cookie@4
  0160d	c9		 leave
  0160e	c2 04 00	 ret	 4
?CheckOwnerControl1@ioControlReturnWeapon@@IAE_NM@Z ENDP ; ioControlReturnWeapon::CheckOwnerControl1
_TEXT	ENDS
PUBLIC	_fTimePerSec$GSCopy$
PUBLIC	__$ArrayPad$
PUBLIC	?CheckOwnerControl2@ioControlReturnWeapon@@IAE_NM@Z ; ioControlReturnWeapon::CheckOwnerControl2
; Function compile flags: /Ogsp
;	COMDAT ?CheckOwnerControl2@ioControlReturnWeapon@@IAE_NM@Z
_TEXT	SEGMENT
$T530978 = -200						; size = 12
$T530989 = -188						; size = 12
_v$534574 = -176					; size = 12
_vPreCharPos$ = -164					; size = 12
$T531023 = -152						; size = 12
$T530996 = -152						; size = 12
_vCharPos$ = -140					; size = 12
_vDiff$530892 = -128					; size = 12
tv5092 = -124						; size = 8
tv6016 = -120						; size = 4
tv6012 = -120						; size = 4
tv5950 = -120						; size = 4
tv5946 = -120						; size = 4
tv5804 = -120						; size = 4
tv5800 = -120						; size = 4
tv5741 = -120						; size = 4
tv5737 = -120						; size = 4
tv5658 = -120						; size = 4
tv5654 = -120						; size = 4
tv5597 = -120						; size = 4
tv5593 = -120						; size = 4
tv5539 = -120						; size = 4
tv5535 = -120						; size = 4
_fLength$530960 = -120					; size = 4
_fTimePerSec$GSCopy$ = -116				; size = 4
tv5442 = -112						; size = 4
tv4843 = -112						; size = 4
_fTimeGap$530962 = -112					; size = 4
_fMoveSpeed$530964 = -108				; size = 4
_fLength$530898 = -108					; size = 4
_pOwner$ = -108						; size = 4
tv6008 = -104						; size = 4
tv5942 = -104						; size = 4
tv5810 = -104						; size = 4
tv5796 = -104						; size = 4
tv5747 = -104						; size = 4
tv5733 = -104						; size = 4
tv5664 = -104						; size = 4
tv5650 = -104						; size = 4
tv5603 = -104						; size = 4
tv5589 = -104						; size = 4
tv5531 = -104						; size = 4
tv5474 = -104						; size = 4
tv5461 = -104						; size = 4
tv5452 = -104						; size = 4
tv5448 = -104						; size = 4
tv5436 = -104						; size = 4
tv5255 = -104						; size = 4
tv5249 = -104						; size = 4
tv5245 = -104						; size = 4
tv5241 = -104						; size = 4
tv5194 = -104						; size = 4
tv5188 = -104						; size = 4
tv5184 = -104						; size = 4
tv5180 = -104						; size = 4
$T534776 = -104						; size = 4
$T534709 = -104						; size = 4
$T534419 = -104						; size = 4
$T534352 = -104						; size = 4
$T534274 = -104						; size = 4
$T534205 = -104						; size = 4
_fCurLoopTimePerSec$530966 = -104			; size = 4
_fLength2$530902 = -104					; size = 4
_v$534099 = -100					; size = 12
_vCrossVec$530983 = -100				; size = 12
$T530954 = -100						; size = 12
_vSideMove$530896 = -100				; size = 12
_vDiffXZDir$530980 = -88				; size = 12
_vPreCharXZ$530900 = -88				; size = 12
_vCurXZDir$530979 = -76					; size = 12
_vCharXZ$530899 = -76					; size = 12
_vPos$ = -76						; size = 12
_vOffSetVec$ = -64					; size = 12
_vDiff$530958 = -52					; size = 12
_vXZDir$530901 = -52					; size = 12
_vCurDir$530961 = -40					; size = 12
_vFrontMove$530894 = -40				; size = 12
_vTargetPos$ = -28					; size = 12
_vMove$530997 = -16					; size = 12
_vMove$530928 = -16					; size = 12
__$ArrayPad$ = -4					; size = 4
_fTimePerSec$ = 8					; size = 4
?CheckOwnerControl2@ioControlReturnWeapon@@IAE_NM@Z PROC ; ioControlReturnWeapon::CheckOwnerControl2, COMDAT
; _this$ = ecx

; 486  : {

  00000	55		 push	 ebp
  00001	8b ec		 mov	 ebp, esp
  00003	81 ec c8 00 00
	00		 sub	 esp, 200		; 000000c8H
  00009	a1 00 00 00 00	 mov	 eax, DWORD PTR ___security_cookie
  0000e	33 c5		 xor	 eax, ebp
  00010	89 45 fc	 mov	 DWORD PTR __$ArrayPad$[ebp], eax

; 489  : 
; 490  : 	if( fTimePerSec == 0.0f )

  00013	f3 0f 10 45 08	 movss	 xmm0, DWORD PTR _fTimePerSec$[ebp]
  00018	53		 push	 ebx
  00019	8b d9		 mov	 ebx, ecx
  0001b	f3 0f 11 45 8c	 movss	 DWORD PTR _fTimePerSec$GSCopy$[ebp], xmm0
  00020	e8 00 00 00 00	 call	 ?GetOwner@ioWeapon@@QBEPAVioBaseChar@@XZ ; ioWeapon::GetOwner
  00025	8b c8		 mov	 ecx, eax
  00027	89 4d 94	 mov	 DWORD PTR _pOwner$[ebp], ecx
  0002a	85 c9		 test	 ecx, ecx
  0002c	75 07		 jne	 SHORT $LN46@CheckOwner@2

; 487  : 	ioBaseChar *pOwner = GetOwner();
; 488  : 	if( !pOwner ) return false;

  0002e	32 c0		 xor	 al, al
  00030	e9 92 18 00 00	 jmp	 $LN47@CheckOwner@2
$LN46@CheckOwner@2:

; 489  : 
; 490  : 	if( fTimePerSec == 0.0f )

  00035	f3 0f 10 45 8c	 movss	 xmm0, DWORD PTR _fTimePerSec$GSCopy$[ebp]
  0003a	0f 2e 05 00 00
	00 00		 ucomiss xmm0, DWORD PTR __real@00000000
  00041	9f		 lahf
  00042	f6 c4 44	 test	 ah, 68			; 00000044H
  00045	7a 37		 jp	 SHORT $LN45@CheckOwner@2

; 491  : 	{
; 492  : 		fTimePerSec = FLOAT0001;

  00047	b8 01 00 00 00	 mov	 eax, 1
  0004c	8b d0		 mov	 edx, eax
  0004e	b8 e8 03 00 00	 mov	 eax, 1000		; 000003e8H
  00053	89 55 88	 mov	 DWORD PTR tv6016[ebp], edx
  00056	db 45 88	 fild	 DWORD PTR tv6016[ebp]
  00059	85 d2		 test	 edx, edx
  0005b	79 06		 jns	 SHORT $LN364@CheckOwner@2
  0005d	d8 05 00 00 00
	00		 fadd	 DWORD PTR __real@4f800000
$LN364@CheckOwner@2:
  00063	89 45 88	 mov	 DWORD PTR tv6012[ebp], eax
  00066	db 45 88	 fild	 DWORD PTR tv6012[ebp]
  00069	85 c0		 test	 eax, eax
  0006b	79 06		 jns	 SHORT $LN365@CheckOwner@2
  0006d	d8 05 00 00 00
	00		 fadd	 DWORD PTR __real@4f800000
$LN365@CheckOwner@2:
  00073	de f9		 fdivp	 ST(1), ST(0)
  00075	d9 5d 98	 fstp	 DWORD PTR tv6008[ebp]
  00078	d9 45 98	 fld	 DWORD PTR tv6008[ebp]
  0007b	d9 5d 8c	 fstp	 DWORD PTR _fTimePerSec$GSCopy$[ebp]
$LN45@CheckOwner@2:

; 493  : 	}
; 494  : 
; 495  : 	D3DXVECTOR3 vCharPos = pOwner->GetWorldPosition();

  0007e	8b 01		 mov	 eax, DWORD PTR [ecx]
  00080	56		 push	 esi
  00081	57		 push	 edi
  00082	ff 50 70	 call	 DWORD PTR [eax+112]
  00085	8b f0		 mov	 esi, eax

; 496  : 	D3DXVECTOR3 vPreCharPos = pOwner->GetPrePosition();
; 497  : 
; 498  : 	D3DXVECTOR3 vPos = GetPosition();

  00087	8b 03		 mov	 eax, DWORD PTR [ebx]
  00089	8d bd 74 ff ff
	ff		 lea	 edi, DWORD PTR _vCharPos$[ebp]
  0008f	a5		 movsd
  00090	a5		 movsd
  00091	a5		 movsd
  00092	8b 75 94	 mov	 esi, DWORD PTR _pOwner$[ebp]
  00095	81 c6 f0 06 00
	00		 add	 esi, 1776		; 000006f0H
  0009b	8d bd 5c ff ff
	ff		 lea	 edi, DWORD PTR _vPreCharPos$[ebp]
  000a1	a5		 movsd
  000a2	a5		 movsd
  000a3	8b cb		 mov	 ecx, ebx
  000a5	a5		 movsd
  000a6	ff 50 70	 call	 DWORD PTR [eax+112]

; 499  : 
; 500  : 	D3DXVECTOR3 vOffSetVec;
; 501  : 	D3DXVec3Cross( &vOffSetVec, &m_vMoveDir, &m_vRollAxis );

  000a9	f3 0f 10 83 a4
	08 00 00	 movss	 xmm0, DWORD PTR [ebx+2212]
  000b1	f3 0f 10 8b cc
	08 00 00	 movss	 xmm1, DWORD PTR [ebx+2252]
  000b9	f3 0f 10 93 a8
	08 00 00	 movss	 xmm2, DWORD PTR [ebx+2216]
  000c1	f3 0f 10 9b c8
	08 00 00	 movss	 xmm3, DWORD PTR [ebx+2248]
  000c9	0f 5a e8	 cvtps2pd xmm5, xmm0
  000cc	0f 5a e1	 cvtps2pd xmm4, xmm1
  000cf	0f 5a f2	 cvtps2pd xmm6, xmm2
  000d2	f2 0f 59 e5	 mulsd	 xmm4, xmm5
  000d6	0f 5a d2	 cvtps2pd xmm2, xmm2
  000d9	0f 5a c9	 cvtps2pd xmm1, xmm1
  000dc	0f 5a eb	 cvtps2pd xmm5, xmm3
  000df	f2 0f 59 ee	 mulsd	 xmm5, xmm6
  000e3	f2 0f 5c e5	 subsd	 xmm4, xmm5
  000e7	f3 0f 10 ab a0
	08 00 00	 movss	 xmm5, DWORD PTR [ebx+2208]
  000ef	66 0f 5a e4	 cvtpd2ps xmm4, xmm4
  000f3	f3 0f 11 65 9c	 movss	 DWORD PTR _v$534099[ebp], xmm4
  000f8	f3 0f 10 a3 c4
	08 00 00	 movss	 xmm4, DWORD PTR [ebx+2244]
  00100	0f 5a f4	 cvtps2pd xmm6, xmm4
  00103	f2 0f 59 f2	 mulsd	 xmm6, xmm2
  00107	0f 5a d5	 cvtps2pd xmm2, xmm5
  0010a	f2 0f 59 d1	 mulsd	 xmm2, xmm1
  0010e	8b f0		 mov	 esi, eax
  00110	f2 0f 5c f2	 subsd	 xmm6, xmm2
  00114	66 0f 5a ce	 cvtpd2ps xmm1, xmm6
  00118	f3 0f 11 4d a0	 movss	 DWORD PTR _v$534099[ebp+4], xmm1
  0011d	8d 7d b4	 lea	 edi, DWORD PTR _vPos$[ebp]
  00120	a5		 movsd
  00121	a5		 movsd
  00122	0f 57 c9	 xorps	 xmm1, xmm1
  00125	0f 5a d3	 cvtps2pd xmm2, xmm3
  00128	0f 5a cd	 cvtps2pd xmm1, xmm5
  0012b	f2 0f 59 ca	 mulsd	 xmm1, xmm2
  0012f	a5		 movsd
  00130	0f 5a c0	 cvtps2pd xmm0, xmm0
  00133	0f 57 d2	 xorps	 xmm2, xmm2
  00136	0f 5a d4	 cvtps2pd xmm2, xmm4
  00139	f2 0f 59 d0	 mulsd	 xmm2, xmm0
  0013d	0f 57 c0	 xorps	 xmm0, xmm0
  00140	f2 0f 5c ca	 subsd	 xmm1, xmm2
  00144	66 0f 5a c1	 cvtpd2ps xmm0, xmm1
  00148	f3 0f 11 45 a4	 movss	 DWORD PTR _v$534099[ebp+8], xmm0

; 502  : 	vOffSetVec.y = 0.0f;

  0014d	0f 57 c0	 xorps	 xmm0, xmm0
  00150	8d 75 9c	 lea	 esi, DWORD PTR _v$534099[ebp]
  00153	8d 7d c0	 lea	 edi, DWORD PTR _vOffSetVec$[ebp]
  00156	a5		 movsd
  00157	a5		 movsd

; 503  : 	D3DXVec3Normalize( &vOffSetVec, &vOffSetVec );

  00158	8d 45 c0	 lea	 eax, DWORD PTR _vOffSetVec$[ebp]
  0015b	50		 push	 eax
  0015c	a5		 movsd
  0015d	50		 push	 eax
  0015e	f3 0f 11 45 c4	 movss	 DWORD PTR _vOffSetVec$[ebp+4], xmm0
  00163	e8 00 00 00 00	 call	 _D3DXVec3Normalize@8

; 504  : 
; 505  : 	D3DXVECTOR3 vTargetPos = pOwner->GetMidPositionByRate();

  00168	b8 05 00 00 00	 mov	 eax, 5
  0016d	8b c8		 mov	 ecx, eax
  0016f	b8 0a 00 00 00	 mov	 eax, 10			; 0000000aH
  00174	89 4d 88	 mov	 DWORD PTR tv5950[ebp], ecx
  00177	db 45 88	 fild	 DWORD PTR tv5950[ebp]
  0017a	85 c9		 test	 ecx, ecx
  0017c	79 06		 jns	 SHORT $LN366@CheckOwner@2
  0017e	d8 05 00 00 00
	00		 fadd	 DWORD PTR __real@4f800000
$LN366@CheckOwner@2:
  00184	89 45 88	 mov	 DWORD PTR tv5946[ebp], eax
  00187	db 45 88	 fild	 DWORD PTR tv5946[ebp]
  0018a	85 c0		 test	 eax, eax
  0018c	79 06		 jns	 SHORT $LN367@CheckOwner@2
  0018e	d8 05 00 00 00
	00		 fadd	 DWORD PTR __real@4f800000
$LN367@CheckOwner@2:
  00194	de f9		 fdivp	 ST(1), ST(0)
  00196	51		 push	 ecx
  00197	8b 4d 94	 mov	 ecx, DWORD PTR _pOwner$[ebp]
  0019a	8d 45 e4	 lea	 eax, DWORD PTR _vTargetPos$[ebp]
  0019d	d9 5d 98	 fstp	 DWORD PTR tv5942[ebp]
  001a0	d9 45 98	 fld	 DWORD PTR tv5942[ebp]
  001a3	d9 1c 24	 fstp	 DWORD PTR [esp]
  001a6	50		 push	 eax
  001a7	e8 00 00 00 00	 call	 ?GetMidPositionByRate@ioGameEntity@@QBE?AUD3DXVECTOR3@@M@Z ; ioGameEntity::GetMidPositionByRate

; 506  : 	if( m_fTargetOffset != 0.0f )

  001ac	f3 0f 10 8b 5c
	09 00 00	 movss	 xmm1, DWORD PTR [ebx+2396]
  001b4	0f 57 c0	 xorps	 xmm0, xmm0
  001b7	0f 2e c8	 ucomiss xmm1, xmm0
  001ba	9f		 lahf
  001bb	f6 c4 44	 test	 ah, 68			; 00000044H
  001be	0f 8b 89 00 00
	00		 jnp	 $LN358@CheckOwner@2

; 507  : 		vTargetPos += m_fTargetOffset * vOffSetVec;

  001c4	f3 0f 10 55 c0	 movss	 xmm2, DWORD PTR _vOffSetVec$[ebp]
  001c9	f3 0f 10 65 c4	 movss	 xmm4, DWORD PTR _vOffSetVec$[ebp+4]
  001ce	0f 5a d9	 cvtps2pd xmm3, xmm1
  001d1	0f 5a d2	 cvtps2pd xmm2, xmm2
  001d4	f2 0f 59 d3	 mulsd	 xmm2, xmm3
  001d8	0f 5a e4	 cvtps2pd xmm4, xmm4
  001db	66 0f 5a d2	 cvtpd2ps xmm2, xmm2
  001df	f3 0f 5a d2	 cvtss2sd xmm2, xmm2
  001e3	0f 5a d9	 cvtps2pd xmm3, xmm1
  001e6	f2 0f 59 dc	 mulsd	 xmm3, xmm4
  001ea	f3 0f 10 65 c8	 movss	 xmm4, DWORD PTR _vOffSetVec$[ebp+8]
  001ef	0f 5a c9	 cvtps2pd xmm1, xmm1
  001f2	0f 5a e4	 cvtps2pd xmm4, xmm4
  001f5	f2 0f 59 e1	 mulsd	 xmm4, xmm1
  001f9	0f 57 c9	 xorps	 xmm1, xmm1
  001fc	66 0f 5a cc	 cvtpd2ps xmm1, xmm4
  00200	f3 0f 10 65 e4	 movss	 xmm4, DWORD PTR _vTargetPos$[ebp]
  00205	0f 5a e4	 cvtps2pd xmm4, xmm4
  00208	f2 0f 58 d4	 addsd	 xmm2, xmm4
  0020c	66 0f 5a d2	 cvtpd2ps xmm2, xmm2
  00210	f3 0f 11 55 e4	 movss	 DWORD PTR _vTargetPos$[ebp], xmm2
  00215	f3 0f 10 55 e8	 movss	 xmm2, DWORD PTR _vTargetPos$[ebp+4]
  0021a	0f 5a d2	 cvtps2pd xmm2, xmm2
  0021d	66 0f 5a db	 cvtpd2ps xmm3, xmm3
  00221	f3 0f 5a db	 cvtss2sd xmm3, xmm3
  00225	f2 0f 58 d3	 addsd	 xmm2, xmm3
  00229	66 0f 5a d2	 cvtpd2ps xmm2, xmm2
  0022d	f3 0f 11 55 e8	 movss	 DWORD PTR _vTargetPos$[ebp+4], xmm2
  00232	f3 0f 10 55 ec	 movss	 xmm2, DWORD PTR _vTargetPos$[ebp+8]
  00237	0f 5a c9	 cvtps2pd xmm1, xmm1
  0023a	0f 5a d2	 cvtps2pd xmm2, xmm2
  0023d	f2 0f 58 d1	 addsd	 xmm2, xmm1
  00241	0f 57 c9	 xorps	 xmm1, xmm1
  00244	66 0f 5a ca	 cvtpd2ps xmm1, xmm2
  00248	f3 0f 11 4d ec	 movss	 DWORD PTR _vTargetPos$[ebp+8], xmm1
$LN358@CheckOwner@2:

; 508  : 
; 509  : 	if( m_fTargetOffset2 != 0.0f )

  0024d	f3 0f 10 8b 60
	09 00 00	 movss	 xmm1, DWORD PTR [ebx+2400]
  00255	0f 2e c8	 ucomiss xmm1, xmm0
  00258	9f		 lahf
  00259	f6 c4 44	 test	 ah, 68			; 00000044H
  0025c	0f 8b 92 00 00
	00		 jnp	 $LN75@CheckOwner@2

; 510  : 		vTargetPos += m_fTargetOffset2 * m_vMoveDir;

  00262	f3 0f 10 93 a0
	08 00 00	 movss	 xmm2, DWORD PTR [ebx+2208]
  0026a	0f 5a d9	 cvtps2pd xmm3, xmm1
  0026d	0f 5a d2	 cvtps2pd xmm2, xmm2
  00270	f2 0f 59 d3	 mulsd	 xmm2, xmm3
  00274	f3 0f 10 9b a4
	08 00 00	 movss	 xmm3, DWORD PTR [ebx+2212]
  0027c	0f 5a e1	 cvtps2pd xmm4, xmm1
  0027f	0f 5a db	 cvtps2pd xmm3, xmm3
  00282	f2 0f 59 dc	 mulsd	 xmm3, xmm4
  00286	f3 0f 10 a3 a8
	08 00 00	 movss	 xmm4, DWORD PTR [ebx+2216]
  0028e	0f 5a c9	 cvtps2pd xmm1, xmm1
  00291	66 0f 5a d2	 cvtpd2ps xmm2, xmm2
  00295	0f 5a e4	 cvtps2pd xmm4, xmm4
  00298	f2 0f 59 e1	 mulsd	 xmm4, xmm1
  0029c	f3 0f 5a d2	 cvtss2sd xmm2, xmm2
  002a0	0f 57 c9	 xorps	 xmm1, xmm1
  002a3	66 0f 5a cc	 cvtpd2ps xmm1, xmm4
  002a7	f3 0f 10 65 e4	 movss	 xmm4, DWORD PTR _vTargetPos$[ebp]
  002ac	0f 5a e4	 cvtps2pd xmm4, xmm4
  002af	f2 0f 58 d4	 addsd	 xmm2, xmm4
  002b3	66 0f 5a d2	 cvtpd2ps xmm2, xmm2
  002b7	f3 0f 11 55 e4	 movss	 DWORD PTR _vTargetPos$[ebp], xmm2
  002bc	0f 57 d2	 xorps	 xmm2, xmm2
  002bf	66 0f 5a db	 cvtpd2ps xmm3, xmm3
  002c3	f3 0f 5a d3	 cvtss2sd xmm2, xmm3
  002c7	f3 0f 10 5d e8	 movss	 xmm3, DWORD PTR _vTargetPos$[ebp+4]
  002cc	0f 5a db	 cvtps2pd xmm3, xmm3
  002cf	f2 0f 58 d3	 addsd	 xmm2, xmm3
  002d3	66 0f 5a d2	 cvtpd2ps xmm2, xmm2
  002d7	f3 0f 11 55 e8	 movss	 DWORD PTR _vTargetPos$[ebp+4], xmm2
  002dc	f3 0f 10 55 ec	 movss	 xmm2, DWORD PTR _vTargetPos$[ebp+8]
  002e1	0f 5a c9	 cvtps2pd xmm1, xmm1
  002e4	0f 5a d2	 cvtps2pd xmm2, xmm2
  002e7	f2 0f 58 ca	 addsd	 xmm1, xmm2
  002eb	66 0f 5a c9	 cvtpd2ps xmm1, xmm1
  002ef	f3 0f 11 4d ec	 movss	 DWORD PTR _vTargetPos$[ebp+8], xmm1
$LN75@CheckOwner@2:

; 511  : 
; 512  : 	if( m_ReturnState == TRS_NONE )

  002f4	83 bb 94 08 00
	00 00		 cmp	 DWORD PTR [ebx+2196], 0
  002fb	0f 85 51 0a 00
	00		 jne	 $LN42@CheckOwner@2

; 513  : 	{
; 514  : 		D3DXVECTOR3 vDiff = vCharPos - vPreCharPos;

  00301	f3 0f 10 8d 74
	ff ff ff	 movss	 xmm1, DWORD PTR _vCharPos$[ebp]
  00309	f3 0f 10 95 5c
	ff ff ff	 movss	 xmm2, DWORD PTR _vPreCharPos$[ebp]

; 515  : 		D3DXVECTOR3 vFrontMove = m_fCurMoveDistance * m_vCurMoveDir;

  00311	f3 0f 10 9b ac
	08 00 00	 movss	 xmm3, DWORD PTR [ebx+2220]
  00319	0f 5a c9	 cvtps2pd xmm1, xmm1
  0031c	0f 5a d2	 cvtps2pd xmm2, xmm2
  0031f	f2 0f 5c ca	 subsd	 xmm1, xmm2
  00323	f3 0f 10 95 60
	ff ff ff	 movss	 xmm2, DWORD PTR _vPreCharPos$[ebp+4]
  0032b	66 0f 5a c9	 cvtpd2ps xmm1, xmm1
  0032f	f3 0f 11 4d 80	 movss	 DWORD PTR _vDiff$530892[ebp], xmm1
  00334	f3 0f 10 8d 78
	ff ff ff	 movss	 xmm1, DWORD PTR _vCharPos$[ebp+4]
  0033c	0f 5a c9	 cvtps2pd xmm1, xmm1
  0033f	0f 5a d2	 cvtps2pd xmm2, xmm2
  00342	f2 0f 5c ca	 subsd	 xmm1, xmm2
  00346	f3 0f 10 95 64
	ff ff ff	 movss	 xmm2, DWORD PTR _vPreCharPos$[ebp+8]
  0034e	f2 0f 5a c9	 cvtsd2ss xmm1, xmm1
  00352	f3 0f 11 4d 90	 movss	 DWORD PTR tv4843[ebp], xmm1
  00357	f3 0f 11 4d 84	 movss	 DWORD PTR _vDiff$530892[ebp+4], xmm1
  0035c	f3 0f 10 8d 7c
	ff ff ff	 movss	 xmm1, DWORD PTR _vCharPos$[ebp+8]
  00364	0f 5a d2	 cvtps2pd xmm2, xmm2
  00367	0f 5a c9	 cvtps2pd xmm1, xmm1
  0036a	f2 0f 5c ca	 subsd	 xmm1, xmm2
  0036e	66 0f 5a c9	 cvtpd2ps xmm1, xmm1
  00372	f3 0f 11 4d 88	 movss	 DWORD PTR _vDiff$530892[ebp+8], xmm1
  00377	f3 0f 10 8b dc
	08 00 00	 movss	 xmm1, DWORD PTR [ebx+2268]
  0037f	0f 5a d1	 cvtps2pd xmm2, xmm1
  00382	0f 5a db	 cvtps2pd xmm3, xmm3
  00385	f2 0f 59 d3	 mulsd	 xmm2, xmm3
  00389	f3 0f 10 9b b0
	08 00 00	 movss	 xmm3, DWORD PTR [ebx+2224]
  00391	66 0f 5a d2	 cvtpd2ps xmm2, xmm2
  00395	f3 0f 11 55 d8	 movss	 DWORD PTR _vFrontMove$530894[ebp], xmm2
  0039a	0f 5a db	 cvtps2pd xmm3, xmm3

; 516  : 		D3DXVECTOR3 vSideMove = D3DXVECTOR3( 0.0f, 0.0f, 0.0f );
; 517  : 
; 518  : 		float fLength = m_fControlSpeed * fTimePerSec;
; 519  : 
; 520  : 		// 
; 521  : 		D3DXVECTOR3 vCharXZ = vCharPos;

  0039d	8d b5 74 ff ff
	ff		 lea	 esi, DWORD PTR _vCharPos$[ebp]
  003a3	8d 7d b4	 lea	 edi, DWORD PTR _vCharXZ$530899[ebp]
  003a6	a5		 movsd
  003a7	0f 5a d1	 cvtps2pd xmm2, xmm1
  003aa	f2 0f 59 d3	 mulsd	 xmm2, xmm3
  003ae	66 0f 5a d2	 cvtpd2ps xmm2, xmm2
  003b2	f3 0f 11 55 dc	 movss	 DWORD PTR _vFrontMove$530894[ebp+4], xmm2
  003b7	f3 0f 10 93 b4
	08 00 00	 movss	 xmm2, DWORD PTR [ebx+2228]
  003bf	0f 5a c9	 cvtps2pd xmm1, xmm1
  003c2	0f 5a d2	 cvtps2pd xmm2, xmm2
  003c5	f2 0f 59 ca	 mulsd	 xmm1, xmm2
  003c9	f3 0f 10 55 8c	 movss	 xmm2, DWORD PTR _fTimePerSec$GSCopy$[ebp]
  003ce	66 0f 5a c9	 cvtpd2ps xmm1, xmm1
  003d2	f3 0f 11 4d e0	 movss	 DWORD PTR _vFrontMove$530894[ebp+8], xmm1
  003d7	f3 0f 10 8b 28
	09 00 00	 movss	 xmm1, DWORD PTR [ebx+2344]
  003df	a5		 movsd

; 522  : 		vCharXZ.y = 0.0f;
; 523  : 		D3DXVec3Normalize( &vCharXZ, &vCharXZ );

  003e0	8d 45 b4	 lea	 eax, DWORD PTR _vCharXZ$530899[ebp]
  003e3	0f 5a c9	 cvtps2pd xmm1, xmm1
  003e6	0f 5a d2	 cvtps2pd xmm2, xmm2
  003e9	50		 push	 eax
  003ea	f2 0f 59 ca	 mulsd	 xmm1, xmm2
  003ee	66 0f 5a c9	 cvtpd2ps xmm1, xmm1
  003f2	a5		 movsd
  003f3	50		 push	 eax
  003f4	f3 0f 11 45 9c	 movss	 DWORD PTR _vSideMove$530896[ebp], xmm0
  003f9	f3 0f 11 45 a0	 movss	 DWORD PTR _vSideMove$530896[ebp+4], xmm0
  003fe	f3 0f 11 45 a4	 movss	 DWORD PTR _vSideMove$530896[ebp+8], xmm0
  00403	f3 0f 11 4d 94	 movss	 DWORD PTR _fLength$530898[ebp], xmm1
  00408	f3 0f 11 45 b8	 movss	 DWORD PTR _vCharXZ$530899[ebp+4], xmm0
  0040d	e8 00 00 00 00	 call	 _D3DXVec3Normalize@8

; 524  : 		D3DXVECTOR3 vPreCharXZ = vPreCharPos;
; 525  : 		vPreCharXZ.y = 0.0f;

  00412	0f 57 c0	 xorps	 xmm0, xmm0
  00415	8d b5 5c ff ff
	ff		 lea	 esi, DWORD PTR _vPreCharPos$[ebp]
  0041b	8d 7d a8	 lea	 edi, DWORD PTR _vPreCharXZ$530900[ebp]
  0041e	a5		 movsd
  0041f	a5		 movsd

; 526  : 		D3DXVec3Normalize( &vPreCharXZ, &vPreCharXZ );

  00420	8d 45 a8	 lea	 eax, DWORD PTR _vPreCharXZ$530900[ebp]
  00423	50		 push	 eax
  00424	a5		 movsd
  00425	50		 push	 eax
  00426	f3 0f 11 45 ac	 movss	 DWORD PTR _vPreCharXZ$530900[ebp+4], xmm0
  0042b	e8 00 00 00 00	 call	 _D3DXVec3Normalize@8

; 527  : 
; 528  : 		D3DXVECTOR3 vXZDir = vDiff;
; 529  : 		vXZDir.y = 0.0f;

  00430	0f 57 c0	 xorps	 xmm0, xmm0
  00433	8d 75 80	 lea	 esi, DWORD PTR _vDiff$530892[ebp]
  00436	8d 7d cc	 lea	 edi, DWORD PTR _vXZDir$530901[ebp]
  00439	a5		 movsd
  0043a	a5		 movsd
  0043b	a5		 movsd
  0043c	f3 0f 11 45 d0	 movss	 DWORD PTR _vXZDir$530901[ebp+4], xmm0
  00441	f3 0f 10 45 cc	 movss	 xmm0, DWORD PTR _vXZDir$530901[ebp]
  00446	0f 5a c0	 cvtps2pd xmm0, xmm0

; 530  : 
; 531  : 		float fLength2 = D3DXVec3Length( &vXZDir );

  00449	f3 0f 10 4d d4	 movss	 xmm1, DWORD PTR _vXZDir$530901[ebp+8]
  0044e	f2 0f 59 c0	 mulsd	 xmm0, xmm0
  00452	f2 0f 11 45 84	 movsd	 QWORD PTR tv5092[ebp], xmm0
  00457	0f 57 c0	 xorps	 xmm0, xmm0
  0045a	f2 0f 10 55 84	 movsd	 xmm2, QWORD PTR tv5092[ebp]
  0045f	f2 0f 59 c0	 mulsd	 xmm0, xmm0
  00463	f2 0f 58 d0	 addsd	 xmm2, xmm0
  00467	0f 57 c0	 xorps	 xmm0, xmm0
  0046a	0f 5a c9	 cvtps2pd xmm1, xmm1
  0046d	f2 0f 59 c9	 mulsd	 xmm1, xmm1

; 532  : 		D3DXVec3Normalize( &vXZDir, &vXZDir );

  00471	8d 45 cc	 lea	 eax, DWORD PTR _vXZDir$530901[ebp]
  00474	f2 0f 58 d1	 addsd	 xmm2, xmm1
  00478	66 0f 5a c2	 cvtpd2ps xmm0, xmm2
  0047c	0f 5a c0	 cvtps2pd xmm0, xmm0
  0047f	50		 push	 eax
  00480	f2 0f 51 c0	 sqrtsd	 xmm0, xmm0
  00484	66 0f 5a c0	 cvtpd2ps xmm0, xmm0
  00488	50		 push	 eax
  00489	f3 0f 11 45 98	 movss	 DWORD PTR _fLength2$530902[ebp], xmm0
  0048e	e8 00 00 00 00	 call	 _D3DXVec3Normalize@8

; 533  : 
; 534  : 		if( vCharXZ != vPreCharXZ && m_vMoveDir != vXZDir )

  00493	f3 0f 10 45 b4	 movss	 xmm0, DWORD PTR _vCharXZ$530899[ebp]
  00498	f3 0f 10 4d a8	 movss	 xmm1, DWORD PTR _vPreCharXZ$530900[ebp]
  0049d	0f 5a c0	 cvtps2pd xmm0, xmm0
  004a0	0f 5a c9	 cvtps2pd xmm1, xmm1
  004a3	66 0f 2e c1	 ucomisd xmm0, xmm1
  004a7	9f		 lahf
  004a8	f6 c4 44	 test	 ah, 68			; 00000044H
  004ab	7a 38		 jp	 SHORT $LN93@CheckOwner@2
  004ad	f3 0f 10 45 b8	 movss	 xmm0, DWORD PTR _vCharXZ$530899[ebp+4]
  004b2	f3 0f 10 4d ac	 movss	 xmm1, DWORD PTR _vPreCharXZ$530900[ebp+4]
  004b7	0f 5a c0	 cvtps2pd xmm0, xmm0
  004ba	0f 5a c9	 cvtps2pd xmm1, xmm1
  004bd	66 0f 2e c1	 ucomisd xmm0, xmm1
  004c1	9f		 lahf
  004c2	f6 c4 44	 test	 ah, 68			; 00000044H
  004c5	7a 1e		 jp	 SHORT $LN93@CheckOwner@2
  004c7	f3 0f 10 45 bc	 movss	 xmm0, DWORD PTR _vCharXZ$530899[ebp+8]
  004cc	f3 0f 10 4d b0	 movss	 xmm1, DWORD PTR _vPreCharXZ$530900[ebp+8]
  004d1	0f 5a c0	 cvtps2pd xmm0, xmm0
  004d4	0f 5a c9	 cvtps2pd xmm1, xmm1
  004d7	66 0f 2e c1	 ucomisd xmm0, xmm1
  004db	9f		 lahf
  004dc	f6 c4 44	 test	 ah, 68			; 00000044H
  004df	0f 8b df 00 00
	00		 jnp	 $LN41@CheckOwner@2
$LN93@CheckOwner@2:
  004e5	f3 0f 10 83 a0
	08 00 00	 movss	 xmm0, DWORD PTR [ebx+2208]
  004ed	f3 0f 10 4d cc	 movss	 xmm1, DWORD PTR _vXZDir$530901[ebp]
  004f2	0f 5a c0	 cvtps2pd xmm0, xmm0
  004f5	0f 5a c9	 cvtps2pd xmm1, xmm1
  004f8	66 0f 2e c1	 ucomisd xmm0, xmm1
  004fc	9f		 lahf
  004fd	f6 c4 44	 test	 ah, 68			; 00000044H
  00500	7a 3e		 jp	 SHORT $LN97@CheckOwner@2
  00502	f3 0f 10 83 a4
	08 00 00	 movss	 xmm0, DWORD PTR [ebx+2212]
  0050a	f3 0f 10 4d d0	 movss	 xmm1, DWORD PTR _vXZDir$530901[ebp+4]
  0050f	0f 5a c0	 cvtps2pd xmm0, xmm0
  00512	0f 5a c9	 cvtps2pd xmm1, xmm1
  00515	66 0f 2e c1	 ucomisd xmm0, xmm1
  00519	9f		 lahf
  0051a	f6 c4 44	 test	 ah, 68			; 00000044H
  0051d	7a 21		 jp	 SHORT $LN97@CheckOwner@2
  0051f	f3 0f 10 83 a8
	08 00 00	 movss	 xmm0, DWORD PTR [ebx+2216]
  00527	f3 0f 10 4d d4	 movss	 xmm1, DWORD PTR _vXZDir$530901[ebp+8]
  0052c	0f 5a c0	 cvtps2pd xmm0, xmm0
  0052f	0f 5a c9	 cvtps2pd xmm1, xmm1
  00532	66 0f 2e c1	 ucomisd xmm0, xmm1
  00536	9f		 lahf
  00537	f6 c4 44	 test	 ah, 68			; 00000044H
  0053a	0f 8b 84 00 00
	00		 jnp	 $LN41@CheckOwner@2
$LN97@CheckOwner@2:

; 535  : 		{
; 536  : 			float fDotValue = D3DXVec3Dot( &m_vCrossVec, &vXZDir );
; 537  : 			float fNewLength = fDotValue * fLength2;
; 538  : 
; 539  : 			m_fControlValue += fNewLength;

  00540	f3 0f 10 83 34
	09 00 00	 movss	 xmm0, DWORD PTR [ebx+2356]
  00548	f3 0f 10 4d d0	 movss	 xmm1, DWORD PTR _vXZDir$530901[ebp+4]
  0054d	f3 0f 10 93 30
	09 00 00	 movss	 xmm2, DWORD PTR [ebx+2352]
  00555	0f 5a c9	 cvtps2pd xmm1, xmm1
  00558	0f 5a c0	 cvtps2pd xmm0, xmm0
  0055b	f2 0f 59 c1	 mulsd	 xmm0, xmm1
  0055f	f3 0f 10 4d cc	 movss	 xmm1, DWORD PTR _vXZDir$530901[ebp]
  00564	0f 5a c9	 cvtps2pd xmm1, xmm1
  00567	0f 5a d2	 cvtps2pd xmm2, xmm2
  0056a	f2 0f 59 ca	 mulsd	 xmm1, xmm2
  0056e	f3 0f 10 55 d4	 movss	 xmm2, DWORD PTR _vXZDir$530901[ebp+8]
  00573	f2 0f 58 c1	 addsd	 xmm0, xmm1
  00577	f3 0f 10 8b 38
	09 00 00	 movss	 xmm1, DWORD PTR [ebx+2360]
  0057f	0f 5a c9	 cvtps2pd xmm1, xmm1
  00582	0f 5a d2	 cvtps2pd xmm2, xmm2
  00585	f2 0f 59 ca	 mulsd	 xmm1, xmm2
  00589	f2 0f 58 c1	 addsd	 xmm0, xmm1
  0058d	f3 0f 10 4d 98	 movss	 xmm1, DWORD PTR _fLength2$530902[ebp]
  00592	66 0f 5a c0	 cvtpd2ps xmm0, xmm0
  00596	f3 0f 5a c0	 cvtss2sd xmm0, xmm0
  0059a	0f 5a c9	 cvtps2pd xmm1, xmm1
  0059d	f2 0f 59 c1	 mulsd	 xmm0, xmm1
  005a1	f3 0f 10 8b 3c
	09 00 00	 movss	 xmm1, DWORD PTR [ebx+2364]
  005a9	66 0f 5a c0	 cvtpd2ps xmm0, xmm0
  005ad	f3 0f 5a c0	 cvtss2sd xmm0, xmm0
  005b1	0f 5a c9	 cvtps2pd xmm1, xmm1
  005b4	f2 0f 58 c1	 addsd	 xmm0, xmm1
  005b8	66 0f 5a c0	 cvtpd2ps xmm0, xmm0
  005bc	f3 0f 11 83 3c
	09 00 00	 movss	 DWORD PTR [ebx+2364], xmm0
$LN41@CheckOwner@2:

; 540  : 		}
; 541  : 
; 542  : 		if( fabs(m_fControlValue) > FLOAT0001 && fLength <= fabs(m_fControlValue) )

  005c4	d9 83 3c 09 00
	00		 fld	 DWORD PTR [ebx+2364]
  005ca	d9 e1		 fabs
  005cc	d9 5d 98	 fstp	 DWORD PTR tv5810[ebp]
  005cf	d9 45 98	 fld	 DWORD PTR tv5810[ebp]
  005d2	d9 5d 98	 fstp	 DWORD PTR $T534205[ebp]
  005d5	b8 01 00 00 00	 mov	 eax, 1
  005da	8b c8		 mov	 ecx, eax
  005dc	b8 e8 03 00 00	 mov	 eax, 1000		; 000003e8H
  005e1	d9 45 98	 fld	 DWORD PTR $T534205[ebp]
  005e4	89 4d 88	 mov	 DWORD PTR tv5804[ebp], ecx
  005e7	db 45 88	 fild	 DWORD PTR tv5804[ebp]
  005ea	85 c9		 test	 ecx, ecx
  005ec	79 06		 jns	 SHORT $LN368@CheckOwner@2
  005ee	d8 05 00 00 00
	00		 fadd	 DWORD PTR __real@4f800000
$LN368@CheckOwner@2:
  005f4	89 45 88	 mov	 DWORD PTR tv5800[ebp], eax
  005f7	db 45 88	 fild	 DWORD PTR tv5800[ebp]
  005fa	85 c0		 test	 eax, eax
  005fc	79 06		 jns	 SHORT $LN369@CheckOwner@2
  005fe	d8 05 00 00 00
	00		 fadd	 DWORD PTR __real@4f800000
$LN369@CheckOwner@2:
  00604	de f9		 fdivp	 ST(1), ST(0)
  00606	f3 0f 10 05 00
	00 00 00	 movss	 xmm0, DWORD PTR __mask@@NegFloat@
  0060e	f3 0f 10 6d 94	 movss	 xmm5, DWORD PTR _fLength$530898[ebp]
  00613	d9 5d 98	 fstp	 DWORD PTR tv5796[ebp]
  00616	d9 45 98	 fld	 DWORD PTR tv5796[ebp]
  00619	d9 c9		 fxch	 ST(1)
  0061b	df f1		 fcomip	 ST(1)
  0061d	dd d8		 fstp	 ST(0)
  0061f	0f 86 96 01 00
	00		 jbe	 $LN40@CheckOwner@2
  00625	f3 0f 10 bb 3c
	09 00 00	 movss	 xmm7, DWORD PTR [ebx+2364]
  0062d	f2 0f 10 1d 00
	00 00 00	 movsd	 xmm3, QWORD PTR __mask@@AbsDouble@
  00635	0f 5a d7	 cvtps2pd xmm2, xmm7
  00638	66 0f 54 d3	 andpd	 xmm2, xmm3
  0063c	0f 57 c9	 xorps	 xmm1, xmm1
  0063f	f2 0f 5a d2	 cvtsd2ss xmm2, xmm2
  00643	0f 5a cd	 cvtps2pd xmm1, xmm5
  00646	f3 0f 5a d2	 cvtss2sd xmm2, xmm2
  0064a	66 0f 2f d1	 comisd	 xmm2, xmm1
  0064e	0f 82 67 01 00
	00		 jb	 $LN40@CheckOwner@2

; 543  : 		{
; 544  : 			if( m_fControlValue < 0.0f )

  00654	0f 57 c9	 xorps	 xmm1, xmm1
  00657	0f 2f cf	 comiss	 xmm1, xmm7
  0065a	0f 86 b0 00 00
	00		 jbe	 $LN39@CheckOwner@2

; 545  : 			{
; 546  : 				vSideMove += (fLength*fTimePerSec) * (-m_vCrossVec);

  00660	f3 0f 10 93 34
	09 00 00	 movss	 xmm2, DWORD PTR [ebx+2356]
  00668	f3 0f 10 8b 30
	09 00 00	 movss	 xmm1, DWORD PTR [ebx+2352]
  00670	f3 0f 10 9b 38
	09 00 00	 movss	 xmm3, DWORD PTR [ebx+2360]
  00678	0f 57 c8	 xorps	 xmm1, xmm0
  0067b	0f 57 d0	 xorps	 xmm2, xmm0
  0067e	0f 57 d8	 xorps	 xmm3, xmm0
  00681	f3 0f 10 45 8c	 movss	 xmm0, DWORD PTR _fTimePerSec$GSCopy$[ebp]
  00686	0f 5a e5	 cvtps2pd xmm4, xmm5
  00689	0f 5a c9	 cvtps2pd xmm1, xmm1
  0068c	0f 5a c0	 cvtps2pd xmm0, xmm0
  0068f	f2 0f 59 c4	 mulsd	 xmm0, xmm4
  00693	0f 57 e4	 xorps	 xmm4, xmm4
  00696	f2 0f 5a c0	 cvtsd2ss xmm0, xmm0
  0069a	f3 0f 5a e0	 cvtss2sd xmm4, xmm0
  0069e	f2 0f 59 e1	 mulsd	 xmm4, xmm1
  006a2	0f 57 c9	 xorps	 xmm1, xmm1
  006a5	66 0f 5a cc	 cvtpd2ps xmm1, xmm4
  006a9	0f 5a d2	 cvtps2pd xmm2, xmm2
  006ac	0f 57 e4	 xorps	 xmm4, xmm4
  006af	f3 0f 5a e0	 cvtss2sd xmm4, xmm0
  006b3	f2 0f 59 e2	 mulsd	 xmm4, xmm2
  006b7	0f 5a c9	 cvtps2pd xmm1, xmm1
  006ba	f3 0f 5a c0	 cvtss2sd xmm0, xmm0
  006be	0f 5a d3	 cvtps2pd xmm2, xmm3
  006c1	f2 0f 59 c2	 mulsd	 xmm0, xmm2
  006c5	0f 57 f6	 xorps	 xmm6, xmm6
  006c8	f2 0f 5a f0	 cvtsd2ss xmm6, xmm0
  006cc	0f 57 c0	 xorps	 xmm0, xmm0
  006cf	f2 0f 58 c8	 addsd	 xmm1, xmm0
  006d3	66 0f 5a e4	 cvtpd2ps xmm4, xmm4
  006d7	0f 57 d2	 xorps	 xmm2, xmm2
  006da	66 0f 5a d1	 cvtpd2ps xmm2, xmm1
  006de	0f 57 c9	 xorps	 xmm1, xmm1
  006e1	f3 0f 5a cc	 cvtss2sd xmm1, xmm4
  006e5	f2 0f 58 c8	 addsd	 xmm1, xmm0
  006e9	0f 57 db	 xorps	 xmm3, xmm3
  006ec	66 0f 5a d9	 cvtpd2ps xmm3, xmm1

; 547  : 				m_fControlValue += fLength;

  006f0	0f 57 e4	 xorps	 xmm4, xmm4
  006f3	0f 5a e5	 cvtps2pd xmm4, xmm5
  006f6	0f 5a ce	 cvtps2pd xmm1, xmm6
  006f9	f2 0f 58 c8	 addsd	 xmm1, xmm0
  006fd	0f 57 c0	 xorps	 xmm0, xmm0
  00700	66 0f 5a c1	 cvtpd2ps xmm0, xmm1
  00704	0f 5a cf	 cvtps2pd xmm1, xmm7
  00707	f2 0f 58 cc	 addsd	 xmm1, xmm4
  0070b	e9 a2 00 00 00	 jmp	 $LN400@CheckOwner@2
$LN39@CheckOwner@2:

; 548  : 			}
; 549  : 			else if( m_fControlValue > 0.0f )

  00710	0f 2f f9	 comiss	 xmm7, xmm1
  00713	0f 86 00 02 00
	00		 jbe	 $LN361@CheckOwner@2

; 550  : 			{
; 551  : 				vSideMove += (fLength*fTimePerSec) * m_vCrossVec;

  00719	f3 0f 10 45 8c	 movss	 xmm0, DWORD PTR _fTimePerSec$GSCopy$[ebp]
  0071e	f3 0f 10 93 30
	09 00 00	 movss	 xmm2, DWORD PTR [ebx+2352]
  00726	0f 5a cd	 cvtps2pd xmm1, xmm5
  00729	0f 5a c0	 cvtps2pd xmm0, xmm0
  0072c	f2 0f 59 c1	 mulsd	 xmm0, xmm1
  00730	0f 57 c9	 xorps	 xmm1, xmm1
  00733	f2 0f 5a c0	 cvtsd2ss xmm0, xmm0
  00737	f3 0f 5a c8	 cvtss2sd xmm1, xmm0
  0073b	0f 5a d2	 cvtps2pd xmm2, xmm2
  0073e	f2 0f 59 ca	 mulsd	 xmm1, xmm2
  00742	f3 0f 10 93 34
	09 00 00	 movss	 xmm2, DWORD PTR [ebx+2356]
  0074a	0f 57 db	 xorps	 xmm3, xmm3
  0074d	f3 0f 5a d8	 cvtss2sd xmm3, xmm0
  00751	0f 5a d2	 cvtps2pd xmm2, xmm2
  00754	f2 0f 59 d3	 mulsd	 xmm2, xmm3
  00758	66 0f 5a c9	 cvtpd2ps xmm1, xmm1
  0075c	f3 0f 5a c9	 cvtss2sd xmm1, xmm1
  00760	f3 0f 5a c0	 cvtss2sd xmm0, xmm0
  00764	66 0f 5a da	 cvtpd2ps xmm3, xmm2
  00768	f3 0f 10 93 38
	09 00 00	 movss	 xmm2, DWORD PTR [ebx+2360]
  00770	0f 5a d2	 cvtps2pd xmm2, xmm2
  00773	f2 0f 59 d0	 mulsd	 xmm2, xmm0
  00777	0f 57 c0	 xorps	 xmm0, xmm0
  0077a	f2 0f 58 c8	 addsd	 xmm1, xmm0
  0077e	66 0f 5a e2	 cvtpd2ps xmm4, xmm2
  00782	0f 57 d2	 xorps	 xmm2, xmm2
  00785	66 0f 5a d1	 cvtpd2ps xmm2, xmm1
  00789	0f 5a cb	 cvtps2pd xmm1, xmm3
  0078c	f2 0f 58 c8	 addsd	 xmm1, xmm0
  00790	0f 57 db	 xorps	 xmm3, xmm3
  00793	66 0f 5a d9	 cvtpd2ps xmm3, xmm1
  00797	0f 5a cc	 cvtps2pd xmm1, xmm4
  0079a	f2 0f 58 c8	 addsd	 xmm1, xmm0
  0079e	0f 57 c0	 xorps	 xmm0, xmm0
  007a1	66 0f 5a c1	 cvtpd2ps xmm0, xmm1

; 552  : 				m_fControlValue -= fLength;

  007a5	0f 57 e4	 xorps	 xmm4, xmm4
  007a8	0f 5a e5	 cvtps2pd xmm4, xmm5
  007ab	0f 5a cf	 cvtps2pd xmm1, xmm7
  007ae	f2 0f 5c cc	 subsd	 xmm1, xmm4
$LN400@CheckOwner@2:
  007b2	66 0f 5a c9	 cvtpd2ps xmm1, xmm1

; 553  : 			}
; 554  : 		}

  007b6	e9 fb 00 00 00	 jmp	 $LN388@CheckOwner@2
$LN40@CheckOwner@2:

; 555  : 		else if( fabs(m_fControlValue) > FLOAT0001 )

  007bb	d9 83 3c 09 00
	00		 fld	 DWORD PTR [ebx+2364]
  007c1	d9 5d 98	 fstp	 DWORD PTR $T534274[ebp]
  007c4	b8 01 00 00 00	 mov	 eax, 1
  007c9	8b c8		 mov	 ecx, eax
  007cb	b8 e8 03 00 00	 mov	 eax, 1000		; 000003e8H
  007d0	d9 45 98	 fld	 DWORD PTR $T534274[ebp]
  007d3	d9 e1		 fabs
  007d5	89 4d 88	 mov	 DWORD PTR tv5741[ebp], ecx
  007d8	d9 5d 98	 fstp	 DWORD PTR tv5747[ebp]
  007db	d9 45 98	 fld	 DWORD PTR tv5747[ebp]
  007de	db 45 88	 fild	 DWORD PTR tv5741[ebp]
  007e1	85 c9		 test	 ecx, ecx
  007e3	79 06		 jns	 SHORT $LN370@CheckOwner@2
  007e5	d8 05 00 00 00
	00		 fadd	 DWORD PTR __real@4f800000
$LN370@CheckOwner@2:
  007eb	89 45 88	 mov	 DWORD PTR tv5737[ebp], eax
  007ee	db 45 88	 fild	 DWORD PTR tv5737[ebp]
  007f1	85 c0		 test	 eax, eax
  007f3	79 06		 jns	 SHORT $LN371@CheckOwner@2
  007f5	d8 05 00 00 00
	00		 fadd	 DWORD PTR __real@4f800000
$LN371@CheckOwner@2:
  007fb	de f9		 fdivp	 ST(1), ST(0)
  007fd	d9 5d 98	 fstp	 DWORD PTR tv5733[ebp]
  00800	d9 45 98	 fld	 DWORD PTR tv5733[ebp]
  00803	d9 c9		 fxch	 ST(1)
  00805	df f1		 fcomip	 ST(1)
  00807	dd d8		 fstp	 ST(0)
  00809	0f 86 0a 01 00
	00		 jbe	 $LN361@CheckOwner@2

; 556  : 		{
; 557  : 			if( m_fControlValue < 0.0f )

  0080f	f3 0f 10 93 3c
	09 00 00	 movss	 xmm2, DWORD PTR [ebx+2364]
  00817	0f 57 c9	 xorps	 xmm1, xmm1
  0081a	0f 2f ca	 comiss	 xmm1, xmm2
  0081d	0f 86 9d 00 00
	00		 jbe	 $LN34@CheckOwner@2

; 558  : 			{
; 559  : 				vSideMove += (fLength*fTimePerSec) * (-m_vCrossVec);

  00823	f3 0f 10 93 30
	09 00 00	 movss	 xmm2, DWORD PTR [ebx+2352]
  0082b	f3 0f 10 9b 34
	09 00 00	 movss	 xmm3, DWORD PTR [ebx+2356]
  00833	f3 0f 10 a3 38
	09 00 00	 movss	 xmm4, DWORD PTR [ebx+2360]
  0083b	0f 57 d0	 xorps	 xmm2, xmm0
  0083e	0f 57 d8	 xorps	 xmm3, xmm0
  00841	0f 57 e0	 xorps	 xmm4, xmm0
  00844	f3 0f 10 45 8c	 movss	 xmm0, DWORD PTR _fTimePerSec$GSCopy$[ebp]
  00849	0f 5a ed	 cvtps2pd xmm5, xmm5
  0084c	0f 5a c0	 cvtps2pd xmm0, xmm0
  0084f	f2 0f 59 c5	 mulsd	 xmm0, xmm5
  00853	0f 57 ed	 xorps	 xmm5, xmm5
  00856	0f 5a d2	 cvtps2pd xmm2, xmm2
  00859	f2 0f 5a c0	 cvtsd2ss xmm0, xmm0
  0085d	f3 0f 5a e8	 cvtss2sd xmm5, xmm0
  00861	f2 0f 59 ea	 mulsd	 xmm5, xmm2
  00865	0f 57 d2	 xorps	 xmm2, xmm2
  00868	66 0f 5a d5	 cvtpd2ps xmm2, xmm5
  0086c	0f 57 ed	 xorps	 xmm5, xmm5
  0086f	0f 5a db	 cvtps2pd xmm3, xmm3
  00872	f3 0f 5a e8	 cvtss2sd xmm5, xmm0
  00876	f2 0f 59 dd	 mulsd	 xmm3, xmm5
  0087a	0f 5a d2	 cvtps2pd xmm2, xmm2
$LN401@CheckOwner@2:
  0087d	f3 0f 5a c0	 cvtss2sd xmm0, xmm0
  00881	0f 5a e4	 cvtps2pd xmm4, xmm4
  00884	f2 0f 59 e0	 mulsd	 xmm4, xmm0
  00888	0f 57 c0	 xorps	 xmm0, xmm0
  0088b	66 0f 5a db	 cvtpd2ps xmm3, xmm3
  0088f	66 0f 5a e4	 cvtpd2ps xmm4, xmm4
  00893	f2 0f 58 d0	 addsd	 xmm2, xmm0
  00897	f3 0f 5a db	 cvtss2sd xmm3, xmm3
  0089b	f2 0f 58 d8	 addsd	 xmm3, xmm0
  0089f	f3 0f 5a e4	 cvtss2sd xmm4, xmm4
  008a3	f2 0f 58 e0	 addsd	 xmm4, xmm0
  008a7	0f 57 c0	 xorps	 xmm0, xmm0
  008aa	66 0f 5a d2	 cvtpd2ps xmm2, xmm2
  008ae	66 0f 5a db	 cvtpd2ps xmm3, xmm3
  008b2	66 0f 5a c4	 cvtpd2ps xmm0, xmm4
$LN388@CheckOwner@2:

; 560  : 				m_fControlValue = 0.0f;

  008b6	f3 0f 11 8b 3c
	09 00 00	 movss	 DWORD PTR [ebx+2364], xmm1
  008be	eb 68		 jmp	 SHORT $LN32@CheckOwner@2
$LN34@CheckOwner@2:

; 561  : 			}
; 562  : 			else if( m_fControlValue > 0.0f )

  008c0	0f 2f d1	 comiss	 xmm2, xmm1
  008c3	76 54		 jbe	 SHORT $LN361@CheckOwner@2

; 563  : 			{
; 564  : 				vSideMove += (fLength*fTimePerSec) * m_vCrossVec;

  008c5	f3 0f 10 45 8c	 movss	 xmm0, DWORD PTR _fTimePerSec$GSCopy$[ebp]
  008ca	f3 0f 10 9b 30
	09 00 00	 movss	 xmm3, DWORD PTR [ebx+2352]
  008d2	0f 5a d5	 cvtps2pd xmm2, xmm5
  008d5	0f 5a c0	 cvtps2pd xmm0, xmm0
  008d8	f2 0f 59 c2	 mulsd	 xmm0, xmm2
  008dc	0f 57 d2	 xorps	 xmm2, xmm2
  008df	0f 5a db	 cvtps2pd xmm3, xmm3
  008e2	f2 0f 5a c0	 cvtsd2ss xmm0, xmm0
  008e6	f3 0f 5a d0	 cvtss2sd xmm2, xmm0
  008ea	f2 0f 59 d3	 mulsd	 xmm2, xmm3
  008ee	f3 0f 10 9b 34
	09 00 00	 movss	 xmm3, DWORD PTR [ebx+2356]
  008f6	0f 57 e4	 xorps	 xmm4, xmm4
  008f9	f3 0f 5a e0	 cvtss2sd xmm4, xmm0
  008fd	0f 5a db	 cvtps2pd xmm3, xmm3
  00900	66 0f 5a d2	 cvtpd2ps xmm2, xmm2
  00904	f2 0f 59 dc	 mulsd	 xmm3, xmm4
  00908	f3 0f 10 a3 38
	09 00 00	 movss	 xmm4, DWORD PTR [ebx+2360]
  00910	f3 0f 5a d2	 cvtss2sd xmm2, xmm2

; 565  : 				m_fControlValue = 0.0f;

  00914	e9 64 ff ff ff	 jmp	 $LN401@CheckOwner@2
$LN361@CheckOwner@2:
  00919	f3 0f 10 45 a4	 movss	 xmm0, DWORD PTR _vSideMove$530896[ebp+8]
  0091e	f3 0f 10 5d a0	 movss	 xmm3, DWORD PTR _vSideMove$530896[ebp+4]
  00923	f3 0f 10 55 9c	 movss	 xmm2, DWORD PTR _vSideMove$530896[ebp]
$LN32@CheckOwner@2:

; 566  : 			}
; 567  : 		}
; 568  : 
; 569  : 		if( !m_bIgnoreCharMove )

  00928	80 bb 55 09 00
	00 00		 cmp	 BYTE PTR [ebx+2389], 0
  0092f	75 50		 jne	 SHORT $LN153@CheckOwner@2

; 570  : 			vFrontMove += vSideMove;

  00931	0f 57 c9	 xorps	 xmm1, xmm1
  00934	f3 0f 5a ca	 cvtss2sd xmm1, xmm2
  00938	f3 0f 10 55 d8	 movss	 xmm2, DWORD PTR _vFrontMove$530894[ebp]
  0093d	0f 5a d2	 cvtps2pd xmm2, xmm2
  00940	f2 0f 58 ca	 addsd	 xmm1, xmm2
  00944	f3 0f 10 55 dc	 movss	 xmm2, DWORD PTR _vFrontMove$530894[ebp+4]
  00949	66 0f 5a c9	 cvtpd2ps xmm1, xmm1
  0094d	f3 0f 11 4d d8	 movss	 DWORD PTR _vFrontMove$530894[ebp], xmm1
  00952	0f 57 c9	 xorps	 xmm1, xmm1
  00955	f3 0f 5a cb	 cvtss2sd xmm1, xmm3
  00959	0f 5a d2	 cvtps2pd xmm2, xmm2
  0095c	f2 0f 58 ca	 addsd	 xmm1, xmm2
  00960	66 0f 5a c9	 cvtpd2ps xmm1, xmm1
  00964	f3 0f 11 4d dc	 movss	 DWORD PTR _vFrontMove$530894[ebp+4], xmm1
  00969	f3 0f 10 4d e0	 movss	 xmm1, DWORD PTR _vFrontMove$530894[ebp+8]
  0096e	0f 5a c0	 cvtps2pd xmm0, xmm0
  00971	0f 5a c9	 cvtps2pd xmm1, xmm1
  00974	f2 0f 58 c1	 addsd	 xmm0, xmm1
  00978	66 0f 5a c0	 cvtpd2ps xmm0, xmm0
  0097c	f3 0f 11 45 e0	 movss	 DWORD PTR _vFrontMove$530894[ebp+8], xmm0
$LN153@CheckOwner@2:

; 571  : 
; 572  : 		D3DXVec3Normalize( &vFrontMove, &vFrontMove );

  00981	8d 45 d8	 lea	 eax, DWORD PTR _vFrontMove$530894[ebp]
  00984	50		 push	 eax
  00985	50		 push	 eax
  00986	e8 00 00 00 00	 call	 _D3DXVec3Normalize@8

; 573  : 		m_vCurMoveDir = vFrontMove;
; 574  : 
; 575  : 		D3DXVECTOR3 vMove = m_fCurMoveDistance * m_vCurMoveDir;

  0098b	f3 0f 10 83 dc
	08 00 00	 movss	 xmm0, DWORD PTR [ebx+2268]
  00993	8d 75 d8	 lea	 esi, DWORD PTR _vFrontMove$530894[ebp]
  00996	8d bb ac 08 00
	00		 lea	 edi, DWORD PTR [ebx+2220]
  0099c	a5		 movsd
  0099d	0f 5a c8	 cvtps2pd xmm1, xmm0
  009a0	a5		 movsd
  009a1	a5		 movsd
  009a2	f3 0f 10 93 ac
	08 00 00	 movss	 xmm2, DWORD PTR [ebx+2220]
  009aa	0f 5a d2	 cvtps2pd xmm2, xmm2
  009ad	f2 0f 59 ca	 mulsd	 xmm1, xmm2
  009b1	f3 0f 10 93 b0
	08 00 00	 movss	 xmm2, DWORD PTR [ebx+2224]
  009b9	66 0f 5a c9	 cvtpd2ps xmm1, xmm1
  009bd	f3 0f 11 4d f0	 movss	 DWORD PTR _vMove$530928[ebp], xmm1
  009c2	0f 5a d2	 cvtps2pd xmm2, xmm2
  009c5	0f 5a c8	 cvtps2pd xmm1, xmm0
  009c8	f2 0f 59 ca	 mulsd	 xmm1, xmm2
  009cc	66 0f 5a c9	 cvtpd2ps xmm1, xmm1
  009d0	f3 0f 11 4d f4	 movss	 DWORD PTR _vMove$530928[ebp+4], xmm1
  009d5	f3 0f 10 8b b4
	08 00 00	 movss	 xmm1, DWORD PTR [ebx+2228]
  009dd	0f 5a c0	 cvtps2pd xmm0, xmm0
  009e0	0f 5a c9	 cvtps2pd xmm1, xmm1
  009e3	f2 0f 59 c1	 mulsd	 xmm0, xmm1

; 576  : 
; 577  : 		// 
; 578  : 		if( vCharPos.y != vPreCharPos.y )

  009e7	f3 0f 10 8d 60
	ff ff ff	 movss	 xmm1, DWORD PTR _vPreCharPos$[ebp+4]
  009ef	66 0f 5a c0	 cvtpd2ps xmm0, xmm0
  009f3	f3 0f 11 45 f8	 movss	 DWORD PTR _vMove$530928[ebp+8], xmm0
  009f8	f3 0f 10 85 78
	ff ff ff	 movss	 xmm0, DWORD PTR _vCharPos$[ebp+4]
  00a00	0f 5a c0	 cvtps2pd xmm0, xmm0
  00a03	0f 5a c9	 cvtps2pd xmm1, xmm1
  00a06	66 0f 2e c1	 ucomisd xmm0, xmm1
  00a0a	9f		 lahf
  00a0b	f6 c4 44	 test	 ah, 68			; 00000044H
  00a0e	7b 23		 jnp	 SHORT $LN30@CheckOwner@2

; 579  : 		{
; 580  : 			float fGap = vCharPos.y - vPreCharPos.y;
; 581  : 			m_fControlValue2 += fGap;

  00a10	f3 0f 10 8b 40
	09 00 00	 movss	 xmm1, DWORD PTR [ebx+2368]
  00a18	f3 0f 10 45 90	 movss	 xmm0, DWORD PTR tv4843[ebp]
  00a1d	0f 5a c0	 cvtps2pd xmm0, xmm0
  00a20	0f 5a c9	 cvtps2pd xmm1, xmm1
  00a23	f2 0f 58 c1	 addsd	 xmm0, xmm1
  00a27	f2 0f 5a c0	 cvtsd2ss xmm0, xmm0
  00a2b	f3 0f 11 83 40
	09 00 00	 movss	 DWORD PTR [ebx+2368], xmm0
$LN30@CheckOwner@2:

; 582  : 		}
; 583  : 
; 584  : 		if( fabs(m_fControlValue2) > FLOAT0001 && fLength <= fabs(m_fControlValue2) )

  00a33	d9 83 40 09 00
	00		 fld	 DWORD PTR [ebx+2368]
  00a39	d9 e1		 fabs
  00a3b	d9 5d 98	 fstp	 DWORD PTR tv5664[ebp]
  00a3e	d9 45 98	 fld	 DWORD PTR tv5664[ebp]
  00a41	d9 5d 98	 fstp	 DWORD PTR $T534352[ebp]
  00a44	b8 01 00 00 00	 mov	 eax, 1
  00a49	8b c8		 mov	 ecx, eax
  00a4b	b8 e8 03 00 00	 mov	 eax, 1000		; 000003e8H
  00a50	d9 45 98	 fld	 DWORD PTR $T534352[ebp]
  00a53	89 4d 88	 mov	 DWORD PTR tv5658[ebp], ecx
  00a56	db 45 88	 fild	 DWORD PTR tv5658[ebp]
  00a59	85 c9		 test	 ecx, ecx
  00a5b	79 06		 jns	 SHORT $LN372@CheckOwner@2
  00a5d	d8 05 00 00 00
	00		 fadd	 DWORD PTR __real@4f800000
$LN372@CheckOwner@2:
  00a63	89 45 88	 mov	 DWORD PTR tv5654[ebp], eax
  00a66	db 45 88	 fild	 DWORD PTR tv5654[ebp]
  00a69	85 c0		 test	 eax, eax
  00a6b	79 06		 jns	 SHORT $LN373@CheckOwner@2
  00a6d	d8 05 00 00 00
	00		 fadd	 DWORD PTR __real@4f800000
$LN373@CheckOwner@2:
  00a73	de f9		 fdivp	 ST(1), ST(0)
  00a75	d9 5d 98	 fstp	 DWORD PTR tv5650[ebp]
  00a78	d9 45 98	 fld	 DWORD PTR tv5650[ebp]
  00a7b	d9 c9		 fxch	 ST(1)
  00a7d	df f1		 fcomip	 ST(1)
  00a7f	dd d8		 fstp	 ST(0)
  00a81	0f 86 a4 01 00
	00		 jbe	 $LN29@CheckOwner@2
  00a87	f3 0f 10 ab 40
	09 00 00	 movss	 xmm5, DWORD PTR [ebx+2368]
  00a8f	f3 0f 10 65 94	 movss	 xmm4, DWORD PTR _fLength$530898[ebp]
  00a94	0f 5a cd	 cvtps2pd xmm1, xmm5
  00a97	66 0f 54 0d 00
	00 00 00	 andpd	 xmm1, QWORD PTR __mask@@AbsDouble@
  00a9f	0f 57 c0	 xorps	 xmm0, xmm0
  00aa2	f2 0f 5a c9	 cvtsd2ss xmm1, xmm1
  00aa6	0f 5a c4	 cvtps2pd xmm0, xmm4
  00aa9	f3 0f 5a c9	 cvtss2sd xmm1, xmm1
  00aad	66 0f 2f c8	 comisd	 xmm1, xmm0
  00ab1	0f 82 74 01 00
	00		 jb	 $LN29@CheckOwner@2

; 585  : 		{
; 586  : 			if( m_fControlValue2 < 0.0f )

  00ab7	0f 57 c0	 xorps	 xmm0, xmm0
  00aba	0f 2f c5	 comiss	 xmm0, xmm5
  00abd	0f 86 ba 00 00
	00		 jbe	 $LN28@CheckOwner@2

; 587  : 			{
; 588  : 				vMove += fLength * (-m_vRollAxis);

  00ac3	f3 0f 10 05 00
	00 00 00	 movss	 xmm0, DWORD PTR __mask@@NegFloat@
  00acb	f3 0f 10 8b c4
	08 00 00	 movss	 xmm1, DWORD PTR [ebx+2244]
  00ad3	f3 0f 10 93 c8
	08 00 00	 movss	 xmm2, DWORD PTR [ebx+2248]
  00adb	f3 0f 10 9b cc
	08 00 00	 movss	 xmm3, DWORD PTR [ebx+2252]
  00ae3	0f 57 c8	 xorps	 xmm1, xmm0
  00ae6	0f 57 d0	 xorps	 xmm2, xmm0
  00ae9	0f 57 d8	 xorps	 xmm3, xmm0
  00aec	0f 5a c1	 cvtps2pd xmm0, xmm1
  00aef	0f 5a cc	 cvtps2pd xmm1, xmm4
  00af2	f2 0f 59 c1	 mulsd	 xmm0, xmm1
  00af6	66 0f 5a c0	 cvtpd2ps xmm0, xmm0
  00afa	f3 0f 5a c0	 cvtss2sd xmm0, xmm0
  00afe	0f 5a ca	 cvtps2pd xmm1, xmm2
  00b01	0f 5a d4	 cvtps2pd xmm2, xmm4
  00b04	f2 0f 59 ca	 mulsd	 xmm1, xmm2
  00b08	66 0f 5a c9	 cvtpd2ps xmm1, xmm1
  00b0c	0f 5a d3	 cvtps2pd xmm2, xmm3
  00b0f	0f 5a dc	 cvtps2pd xmm3, xmm4
  00b12	f2 0f 59 d3	 mulsd	 xmm2, xmm3
  00b16	f3 0f 10 5d f0	 movss	 xmm3, DWORD PTR _vMove$530928[ebp]
  00b1b	0f 5a db	 cvtps2pd xmm3, xmm3
  00b1e	f2 0f 58 c3	 addsd	 xmm0, xmm3
  00b22	66 0f 5a c0	 cvtpd2ps xmm0, xmm0
  00b26	f3 0f 11 45 f0	 movss	 DWORD PTR _vMove$530928[ebp], xmm0
  00b2b	0f 57 c0	 xorps	 xmm0, xmm0
  00b2e	f3 0f 5a c1	 cvtss2sd xmm0, xmm1
  00b32	f3 0f 10 4d f4	 movss	 xmm1, DWORD PTR _vMove$530928[ebp+4]
  00b37	0f 5a c9	 cvtps2pd xmm1, xmm1
  00b3a	f2 0f 58 c1	 addsd	 xmm0, xmm1
  00b3e	f3 0f 10 4d f8	 movss	 xmm1, DWORD PTR _vMove$530928[ebp+8]
  00b43	66 0f 5a c0	 cvtpd2ps xmm0, xmm0
  00b47	f3 0f 11 45 f4	 movss	 DWORD PTR _vMove$530928[ebp+4], xmm0
  00b4c	0f 57 c0	 xorps	 xmm0, xmm0
  00b4f	0f 5a c9	 cvtps2pd xmm1, xmm1
  00b52	66 0f 5a d2	 cvtpd2ps xmm2, xmm2
  00b56	f3 0f 5a c2	 cvtss2sd xmm0, xmm2
  00b5a	f2 0f 58 c1	 addsd	 xmm0, xmm1
  00b5e	66 0f 5a c0	 cvtpd2ps xmm0, xmm0
  00b62	f3 0f 11 45 f8	 movss	 DWORD PTR _vMove$530928[ebp+8], xmm0

; 589  : 				m_fControlValue2 += fLength;

  00b67	0f 57 c9	 xorps	 xmm1, xmm1
  00b6a	0f 5a cc	 cvtps2pd xmm1, xmm4
  00b6d	0f 5a c5	 cvtps2pd xmm0, xmm5
  00b70	f2 0f 58 c1	 addsd	 xmm0, xmm1
$LN393@CheckOwner@2:
  00b74	66 0f 5a c0	 cvtpd2ps xmm0, xmm0
  00b78	e9 ab 01 00 00	 jmp	 $LN390@CheckOwner@2
$LN28@CheckOwner@2:

; 590  : 			}
; 591  : 			else if( m_fControlValue2 > 0.0f )

  00b7d	0f 2f e8	 comiss	 xmm5, xmm0
  00b80	0f 86 aa 01 00
	00		 jbe	 $LN21@CheckOwner@2

; 592  : 			{
; 593  : 				vMove += fLength * m_vRollAxis;

  00b86	f3 0f 10 83 c4
	08 00 00	 movss	 xmm0, DWORD PTR [ebx+2244]
  00b8e	0f 5a c0	 cvtps2pd xmm0, xmm0
  00b91	0f 5a cc	 cvtps2pd xmm1, xmm4
  00b94	f2 0f 59 c1	 mulsd	 xmm0, xmm1
  00b98	f3 0f 10 8b c8
	08 00 00	 movss	 xmm1, DWORD PTR [ebx+2248]
  00ba0	66 0f 5a c0	 cvtpd2ps xmm0, xmm0
  00ba4	0f 5a c9	 cvtps2pd xmm1, xmm1
  00ba7	f3 0f 5a c0	 cvtss2sd xmm0, xmm0
  00bab	0f 5a d4	 cvtps2pd xmm2, xmm4
  00bae	f2 0f 59 ca	 mulsd	 xmm1, xmm2
  00bb2	f3 0f 10 93 cc
	08 00 00	 movss	 xmm2, DWORD PTR [ebx+2252]
  00bba	0f 5a dc	 cvtps2pd xmm3, xmm4
  00bbd	0f 5a d2	 cvtps2pd xmm2, xmm2
  00bc0	f2 0f 59 d3	 mulsd	 xmm2, xmm3
  00bc4	f3 0f 10 5d f0	 movss	 xmm3, DWORD PTR _vMove$530928[ebp]
  00bc9	66 0f 5a c9	 cvtpd2ps xmm1, xmm1
  00bcd	0f 5a db	 cvtps2pd xmm3, xmm3
  00bd0	f2 0f 58 c3	 addsd	 xmm0, xmm3
  00bd4	66 0f 5a c0	 cvtpd2ps xmm0, xmm0
  00bd8	f3 0f 11 45 f0	 movss	 DWORD PTR _vMove$530928[ebp], xmm0
  00bdd	0f 57 c0	 xorps	 xmm0, xmm0
  00be0	f3 0f 5a c1	 cvtss2sd xmm0, xmm1
  00be4	f3 0f 10 4d f4	 movss	 xmm1, DWORD PTR _vMove$530928[ebp+4]
  00be9	0f 5a c9	 cvtps2pd xmm1, xmm1
  00bec	f2 0f 58 c1	 addsd	 xmm0, xmm1
  00bf0	f3 0f 10 4d f8	 movss	 xmm1, DWORD PTR _vMove$530928[ebp+8]
  00bf5	66 0f 5a c0	 cvtpd2ps xmm0, xmm0
  00bf9	f3 0f 11 45 f4	 movss	 DWORD PTR _vMove$530928[ebp+4], xmm0
  00bfe	0f 57 c0	 xorps	 xmm0, xmm0
  00c01	0f 5a c9	 cvtps2pd xmm1, xmm1
  00c04	66 0f 5a d2	 cvtpd2ps xmm2, xmm2
  00c08	f3 0f 5a c2	 cvtss2sd xmm0, xmm2
  00c0c	f2 0f 58 c1	 addsd	 xmm0, xmm1
  00c10	66 0f 5a c0	 cvtpd2ps xmm0, xmm0
  00c14	f3 0f 11 45 f8	 movss	 DWORD PTR _vMove$530928[ebp+8], xmm0

; 594  : 				m_fControlValue2 -= fLength;

  00c19	0f 57 c9	 xorps	 xmm1, xmm1
  00c1c	0f 5a cc	 cvtps2pd xmm1, xmm4
  00c1f	0f 5a c5	 cvtps2pd xmm0, xmm5
  00c22	f2 0f 5c c1	 subsd	 xmm0, xmm1

; 595  : 			}
; 596  : 		}

  00c26	e9 49 ff ff ff	 jmp	 $LN393@CheckOwner@2
$LN29@CheckOwner@2:

; 597  : 		else if( fabs(m_fControlValue2) > FLOAT0001 )

  00c2b	d9 83 40 09 00
	00		 fld	 DWORD PTR [ebx+2368]
  00c31	d9 5d 98	 fstp	 DWORD PTR $T534419[ebp]
  00c34	b8 01 00 00 00	 mov	 eax, 1
  00c39	8b c8		 mov	 ecx, eax
  00c3b	b8 e8 03 00 00	 mov	 eax, 1000		; 000003e8H
  00c40	d9 45 98	 fld	 DWORD PTR $T534419[ebp]
  00c43	d9 e1		 fabs
  00c45	89 4d 88	 mov	 DWORD PTR tv5597[ebp], ecx
  00c48	d9 5d 98	 fstp	 DWORD PTR tv5603[ebp]
  00c4b	d9 45 98	 fld	 DWORD PTR tv5603[ebp]
  00c4e	db 45 88	 fild	 DWORD PTR tv5597[ebp]
  00c51	85 c9		 test	 ecx, ecx
  00c53	79 06		 jns	 SHORT $LN374@CheckOwner@2
  00c55	d8 05 00 00 00
	00		 fadd	 DWORD PTR __real@4f800000
$LN374@CheckOwner@2:
  00c5b	89 45 88	 mov	 DWORD PTR tv5593[ebp], eax
  00c5e	db 45 88	 fild	 DWORD PTR tv5593[ebp]
  00c61	85 c0		 test	 eax, eax
  00c63	79 06		 jns	 SHORT $LN375@CheckOwner@2
  00c65	d8 05 00 00 00
	00		 fadd	 DWORD PTR __real@4f800000
$LN375@CheckOwner@2:
  00c6b	de f9		 fdivp	 ST(1), ST(0)
  00c6d	d9 5d 98	 fstp	 DWORD PTR tv5589[ebp]
  00c70	d9 45 98	 fld	 DWORD PTR tv5589[ebp]
  00c73	d9 c9		 fxch	 ST(1)
  00c75	df f1		 fcomip	 ST(1)
  00c77	dd d8		 fstp	 ST(0)
  00c79	0f 86 b1 00 00
	00		 jbe	 $LN21@CheckOwner@2

; 598  : 		{
; 599  : 			if( m_fControlValue2 < 0.0f )

  00c7f	f3 0f 10 8b 40
	09 00 00	 movss	 xmm1, DWORD PTR [ebx+2368]
  00c87	0f 57 c0	 xorps	 xmm0, xmm0
  00c8a	0f 2f c1	 comiss	 xmm0, xmm1

; 600  : 			{
; 601  : 				vMove += m_fControlValue2 * m_vRollAxis;
; 602  : 				m_fControlValue2 = 0.0f;

  00c8d	77 09		 ja	 SHORT $LN392@CheckOwner@2

; 603  : 			}
; 604  : 			else if( m_fControlValue2 > 0.0f )

  00c8f	0f 2f c8	 comiss	 xmm1, xmm0
  00c92	0f 86 98 00 00
	00		 jbe	 $LN21@CheckOwner@2
$LN392@CheckOwner@2:

; 605  : 			{
; 606  : 				vMove += m_fControlValue2 * m_vRollAxis;

  00c98	f3 0f 10 9b c4
	08 00 00	 movss	 xmm3, DWORD PTR [ebx+2244]
  00ca0	f3 0f 10 a3 c8
	08 00 00	 movss	 xmm4, DWORD PTR [ebx+2248]
  00ca8	0f 5a d1	 cvtps2pd xmm2, xmm1
  00cab	0f 5a db	 cvtps2pd xmm3, xmm3
  00cae	f2 0f 59 d3	 mulsd	 xmm2, xmm3
  00cb2	66 0f 5a d2	 cvtpd2ps xmm2, xmm2
  00cb6	f3 0f 5a d2	 cvtss2sd xmm2, xmm2
  00cba	0f 5a e4	 cvtps2pd xmm4, xmm4
  00cbd	0f 5a d9	 cvtps2pd xmm3, xmm1
  00cc0	f2 0f 59 dc	 mulsd	 xmm3, xmm4
  00cc4	f3 0f 10 a3 cc
	08 00 00	 movss	 xmm4, DWORD PTR [ebx+2252]
  00ccc	0f 5a c9	 cvtps2pd xmm1, xmm1
  00ccf	0f 5a e4	 cvtps2pd xmm4, xmm4
  00cd2	f2 0f 59 cc	 mulsd	 xmm1, xmm4
  00cd6	f3 0f 10 65 f0	 movss	 xmm4, DWORD PTR _vMove$530928[ebp]
  00cdb	0f 5a e4	 cvtps2pd xmm4, xmm4
  00cde	f2 0f 58 e2	 addsd	 xmm4, xmm2
  00ce2	66 0f 5a d4	 cvtpd2ps xmm2, xmm4
  00ce6	f3 0f 11 55 f0	 movss	 DWORD PTR _vMove$530928[ebp], xmm2
  00ceb	0f 57 d2	 xorps	 xmm2, xmm2
  00cee	66 0f 5a db	 cvtpd2ps xmm3, xmm3
  00cf2	f3 0f 5a d3	 cvtss2sd xmm2, xmm3
  00cf6	f3 0f 10 5d f4	 movss	 xmm3, DWORD PTR _vMove$530928[ebp+4]
  00cfb	0f 5a db	 cvtps2pd xmm3, xmm3
  00cfe	f2 0f 58 d3	 addsd	 xmm2, xmm3
  00d02	66 0f 5a d2	 cvtpd2ps xmm2, xmm2
  00d06	f3 0f 11 55 f4	 movss	 DWORD PTR _vMove$530928[ebp+4], xmm2
  00d0b	f3 0f 10 55 f8	 movss	 xmm2, DWORD PTR _vMove$530928[ebp+8]
  00d10	66 0f 5a c9	 cvtpd2ps xmm1, xmm1
  00d14	f3 0f 5a c9	 cvtss2sd xmm1, xmm1
  00d18	0f 5a d2	 cvtps2pd xmm2, xmm2
  00d1b	f2 0f 58 ca	 addsd	 xmm1, xmm2
  00d1f	66 0f 5a c9	 cvtpd2ps xmm1, xmm1
  00d23	f3 0f 11 4d f8	 movss	 DWORD PTR _vMove$530928[ebp+8], xmm1
$LN390@CheckOwner@2:

; 607  : 				m_fControlValue2 = 0.0f;

  00d28	f3 0f 11 83 40
	09 00 00	 movss	 DWORD PTR [ebx+2368], xmm0
$LN21@CheckOwner@2:

; 608  : 			}
; 609  : 		}
; 610  : 
; 611  : 		D3DXVec3Normalize( &vMove, &vMove );

  00d30	8d 45 f0	 lea	 eax, DWORD PTR _vMove$530928[ebp]
  00d33	50		 push	 eax
  00d34	50		 push	 eax
  00d35	e8 00 00 00 00	 call	 _D3DXVec3Normalize@8

; 612  : 		vMove *= m_fCurMoveDistance;

  00d3a	f3 0f 10 83 dc
	08 00 00	 movss	 xmm0, DWORD PTR [ebx+2268]
  00d42	f3 0f 10 4d f0	 movss	 xmm1, DWORD PTR _vMove$530928[ebp]
  00d47	0f 5a c9	 cvtps2pd xmm1, xmm1
  00d4a	0f 5a d0	 cvtps2pd xmm2, xmm0

; 613  : 
; 614  : 		GetParentSceneNode()->Translate( vMove );
; 615  : 	}
; 616  : 	else

  00d4d	e9 26 0b 00 00	 jmp	 $LN394@CheckOwner@2
$LN42@CheckOwner@2:

; 617  : 	{
; 618  : 		D3DXVECTOR3 vEnd = pOwner->GetMidPositionByRate() - vPos;

  00d52	b8 05 00 00 00	 mov	 eax, 5
  00d57	8b c8		 mov	 ecx, eax
  00d59	b8 0a 00 00 00	 mov	 eax, 10			; 0000000aH
  00d5e	89 4d 88	 mov	 DWORD PTR tv5539[ebp], ecx
  00d61	db 45 88	 fild	 DWORD PTR tv5539[ebp]
  00d64	85 c9		 test	 ecx, ecx
  00d66	79 06		 jns	 SHORT $LN376@CheckOwner@2
  00d68	d8 05 00 00 00
	00		 fadd	 DWORD PTR __real@4f800000
$LN376@CheckOwner@2:
  00d6e	89 45 88	 mov	 DWORD PTR tv5535[ebp], eax
  00d71	db 45 88	 fild	 DWORD PTR tv5535[ebp]
  00d74	85 c0		 test	 eax, eax
  00d76	79 06		 jns	 SHORT $LN377@CheckOwner@2
  00d78	d8 05 00 00 00
	00		 fadd	 DWORD PTR __real@4f800000
$LN377@CheckOwner@2:
  00d7e	de f9		 fdivp	 ST(1), ST(0)
  00d80	51		 push	 ecx
  00d81	8b 4d 94	 mov	 ecx, DWORD PTR _pOwner$[ebp]
  00d84	8d 45 9c	 lea	 eax, DWORD PTR $T530954[ebp]
  00d87	d9 5d 98	 fstp	 DWORD PTR tv5531[ebp]
  00d8a	d9 45 98	 fld	 DWORD PTR tv5531[ebp]
  00d8d	d9 1c 24	 fstp	 DWORD PTR [esp]
  00d90	50		 push	 eax
  00d91	e8 00 00 00 00	 call	 ?GetMidPositionByRate@ioGameEntity@@QBE?AUD3DXVECTOR3@@M@Z ; ioGameEntity::GetMidPositionByRate
  00d96	f3 0f 10 4d b4	 movss	 xmm1, DWORD PTR _vPos$[ebp]
  00d9b	f3 0f 10 00	 movss	 xmm0, DWORD PTR [eax]
  00d9f	f3 0f 10 5d bc	 movss	 xmm3, DWORD PTR _vPos$[ebp+8]
  00da4	0f 5a c0	 cvtps2pd xmm0, xmm0
  00da7	0f 5a c9	 cvtps2pd xmm1, xmm1
  00daa	f2 0f 5c c1	 subsd	 xmm0, xmm1
  00dae	f3 0f 10 4d b8	 movss	 xmm1, DWORD PTR _vPos$[ebp+4]
  00db3	0f 57 d2	 xorps	 xmm2, xmm2
  00db6	66 0f 5a d0	 cvtpd2ps xmm2, xmm0
  00dba	f3 0f 10 40 04	 movss	 xmm0, DWORD PTR [eax+4]
  00dbf	0f 5a c0	 cvtps2pd xmm0, xmm0
  00dc2	0f 5a c9	 cvtps2pd xmm1, xmm1
  00dc5	f2 0f 5c c1	 subsd	 xmm0, xmm1
  00dc9	0f 57 c9	 xorps	 xmm1, xmm1
  00dcc	66 0f 5a c8	 cvtpd2ps xmm1, xmm0
  00dd0	f3 0f 10 40 08	 movss	 xmm0, DWORD PTR [eax+8]
  00dd5	0f 5a db	 cvtps2pd xmm3, xmm3
  00dd8	0f 5a c0	 cvtps2pd xmm0, xmm0
  00ddb	f2 0f 5c c3	 subsd	 xmm0, xmm3
  00ddf	0f 57 db	 xorps	 xmm3, xmm3
  00de2	66 0f 5a d8	 cvtpd2ps xmm3, xmm0

; 619  : 		float fEndLength = D3DXVec3Length( &vEnd );
; 620  : 		if( m_fEndRange > 0.0f && fEndLength <= m_fEndRange )

  00de6	f3 0f 10 83 44
	09 00 00	 movss	 xmm0, DWORD PTR [ebx+2372]
  00dee	0f 2f 05 00 00
	00 00		 comiss	 xmm0, DWORD PTR __real@00000000
  00df5	76 43		 jbe	 SHORT $LN19@CheckOwner@2
  00df7	0f 5a c9	 cvtps2pd xmm1, xmm1
  00dfa	f2 0f 59 c9	 mulsd	 xmm1, xmm1
  00dfe	0f 5a d2	 cvtps2pd xmm2, xmm2
  00e01	f2 0f 59 d2	 mulsd	 xmm2, xmm2
  00e05	f2 0f 58 d1	 addsd	 xmm2, xmm1
  00e09	0f 57 c9	 xorps	 xmm1, xmm1
  00e0c	0f 5a db	 cvtps2pd xmm3, xmm3
  00e0f	f2 0f 59 db	 mulsd	 xmm3, xmm3
  00e13	f2 0f 58 d3	 addsd	 xmm2, xmm3
  00e17	66 0f 5a ca	 cvtpd2ps xmm1, xmm2
  00e1b	0f 5a c9	 cvtps2pd xmm1, xmm1
  00e1e	f2 0f 51 c9	 sqrtsd	 xmm1, xmm1
  00e22	66 0f 5a c9	 cvtpd2ps xmm1, xmm1
  00e26	f3 0f 5a c9	 cvtss2sd xmm1, xmm1
  00e2a	0f 5a c0	 cvtps2pd xmm0, xmm0
  00e2d	66 0f 2f c1	 comisd	 xmm0, xmm1
  00e31	72 07		 jb	 SHORT $LN19@CheckOwner@2

; 621  : 			return true;

  00e33	b0 01		 mov	 al, 1
  00e35	e9 8b 0a 00 00	 jmp	 $LN362@CheckOwner@2
$LN19@CheckOwner@2:

; 622  : 
; 623  : 		D3DXVECTOR3 vDiff = vTargetPos - vPos;

  00e3a	f3 0f 10 45 e4	 movss	 xmm0, DWORD PTR _vTargetPos$[ebp]
  00e3f	f3 0f 10 4d b4	 movss	 xmm1, DWORD PTR _vPos$[ebp]
  00e44	f3 0f 10 55 b8	 movss	 xmm2, DWORD PTR _vPos$[ebp+4]
  00e49	f3 0f 10 5d bc	 movss	 xmm3, DWORD PTR _vPos$[ebp+8]
  00e4e	0f 5a c0	 cvtps2pd xmm0, xmm0
  00e51	0f 5a c9	 cvtps2pd xmm1, xmm1
  00e54	f2 0f 5c c1	 subsd	 xmm0, xmm1
  00e58	0f 57 c9	 xorps	 xmm1, xmm1
  00e5b	66 0f 5a c8	 cvtpd2ps xmm1, xmm0
  00e5f	f3 0f 10 45 e8	 movss	 xmm0, DWORD PTR _vTargetPos$[ebp+4]
  00e64	0f 5a c0	 cvtps2pd xmm0, xmm0
  00e67	0f 5a d2	 cvtps2pd xmm2, xmm2
  00e6a	f2 0f 5c c2	 subsd	 xmm0, xmm2
  00e6e	f3 0f 10 55 ec	 movss	 xmm2, DWORD PTR _vTargetPos$[ebp+8]
  00e73	66 0f 5a c0	 cvtpd2ps xmm0, xmm0
  00e77	f3 0f 11 45 d0	 movss	 DWORD PTR _vDiff$530958[ebp+4], xmm0
  00e7c	0f 5a d2	 cvtps2pd xmm2, xmm2
  00e7f	f3 0f 5a c0	 cvtss2sd xmm0, xmm0
  00e83	f3 0f 11 4d cc	 movss	 DWORD PTR _vDiff$530958[ebp], xmm1

; 624  : 		float fLength = D3DXVec3Length( &vDiff );

  00e88	f2 0f 59 c0	 mulsd	 xmm0, xmm0

; 625  : 
; 626  : 		D3DXVECTOR3 vCurDir = m_vCurMoveDir;

  00e8c	8d b3 ac 08 00
	00		 lea	 esi, DWORD PTR [ebx+2220]
  00e92	8d 7d d8	 lea	 edi, DWORD PTR _vCurDir$530961[ebp]
  00e95	0f 5a db	 cvtps2pd xmm3, xmm3
  00e98	f2 0f 5c d3	 subsd	 xmm2, xmm3
  00e9c	66 0f 5a d2	 cvtpd2ps xmm2, xmm2
  00ea0	a5		 movsd
  00ea1	0f 5a c9	 cvtps2pd xmm1, xmm1
  00ea4	f3 0f 11 55 d4	 movss	 DWORD PTR _vDiff$530958[ebp+8], xmm2
  00ea9	f2 0f 59 c9	 mulsd	 xmm1, xmm1
  00ead	f2 0f 58 c8	 addsd	 xmm1, xmm0
  00eb1	0f 57 c0	 xorps	 xmm0, xmm0
  00eb4	f3 0f 5a d2	 cvtss2sd xmm2, xmm2
  00eb8	f2 0f 59 d2	 mulsd	 xmm2, xmm2
  00ebc	f2 0f 58 ca	 addsd	 xmm1, xmm2
  00ec0	66 0f 5a c1	 cvtpd2ps xmm0, xmm1
  00ec4	a5		 movsd
  00ec5	0f 5a c0	 cvtps2pd xmm0, xmm0
  00ec8	f2 0f 51 c0	 sqrtsd	 xmm0, xmm0
  00ecc	66 0f 5a c0	 cvtpd2ps xmm0, xmm0
  00ed0	f3 0f 11 45 88	 movss	 DWORD PTR _fLength$530960[ebp], xmm0
  00ed5	a5		 movsd

; 627  : 		float fTimeGap = fTimePerSec * FLOAT1000;

  00ed6	b8 e8 03 00 00	 mov	 eax, 1000		; 000003e8H
  00edb	89 45 98	 mov	 DWORD PTR tv5474[ebp], eax
  00ede	db 45 98	 fild	 DWORD PTR tv5474[ebp]
  00ee1	85 c0		 test	 eax, eax
  00ee3	79 06		 jns	 SHORT $LN378@CheckOwner@2
  00ee5	d8 05 00 00 00
	00		 fadd	 DWORD PTR __real@4f800000
$LN378@CheckOwner@2:
  00eeb	d8 4d 8c	 fmul	 DWORD PTR _fTimePerSec$GSCopy$[ebp]

; 628  : 		float fMoveSpeed = GetMoveSpeed();

  00eee	8b cb		 mov	 ecx, ebx
  00ef0	d9 5d 90	 fstp	 DWORD PTR _fTimeGap$530962[ebp]
  00ef3	e8 00 00 00 00	 call	 ?GetMoveSpeed@ioControlReturnWeapon@@QAEMXZ ; ioControlReturnWeapon::GetMoveSpeed
  00ef8	d9 5d 94	 fstp	 DWORD PTR _fMoveSpeed$530964[ebp]

; 629  : 
; 630  : 		float fCurLoopTimeGap;
; 631  : 		float fCurLoopTimePerSec;
; 632  : 		while( fTimeGap > 0.0f )

  00efb	d9 ee		 fldz
  00efd	d9 45 90	 fld	 DWORD PTR _fTimeGap$530962[ebp]
  00f00	df f1		 fcomip	 ST(1)
  00f02	dd d8		 fstp	 ST(0)
  00f04	0f 86 ff 04 00
	00		 jbe	 $LN17@CheckOwner@2
$LL18@CheckOwner@2:

; 633  : 		{
; 634  : 			if( fTimeGap > FLOAT10 )

  00f0a	b8 0a 00 00 00	 mov	 eax, 10			; 0000000aH
  00f0f	d9 45 90	 fld	 DWORD PTR _fTimeGap$530962[ebp]
  00f12	89 45 98	 mov	 DWORD PTR tv5461[ebp], eax
  00f15	db 45 98	 fild	 DWORD PTR tv5461[ebp]
  00f18	85 c0		 test	 eax, eax
  00f1a	79 06		 jns	 SHORT $LN379@CheckOwner@2
  00f1c	d8 05 00 00 00
	00		 fadd	 DWORD PTR __real@4f800000
$LN379@CheckOwner@2:
  00f22	d9 c9		 fxch	 ST(1)
  00f24	df f1		 fcomip	 ST(1)
  00f26	dd d8		 fstp	 ST(0)
  00f28	76 55		 jbe	 SHORT $LN16@CheckOwner@2

; 635  : 			{
; 636  : 				fCurLoopTimeGap = FLOAT10;

  00f2a	b8 0a 00 00 00	 mov	 eax, 10			; 0000000aH

; 637  : 				fCurLoopTimePerSec = FLOAT10 / FLOAT1000;

  00f2f	b8 0a 00 00 00	 mov	 eax, 10			; 0000000aH
  00f34	8b c8		 mov	 ecx, eax
  00f36	b8 e8 03 00 00	 mov	 eax, 1000		; 000003e8H
  00f3b	89 4d 98	 mov	 DWORD PTR tv5452[ebp], ecx
  00f3e	db 45 98	 fild	 DWORD PTR tv5452[ebp]
  00f41	85 c9		 test	 ecx, ecx
  00f43	79 06		 jns	 SHORT $LN380@CheckOwner@2
  00f45	d8 05 00 00 00
	00		 fadd	 DWORD PTR __real@4f800000
$LN380@CheckOwner@2:
  00f4b	89 45 98	 mov	 DWORD PTR tv5448[ebp], eax
  00f4e	db 45 98	 fild	 DWORD PTR tv5448[ebp]
  00f51	85 c0		 test	 eax, eax
  00f53	79 06		 jns	 SHORT $LN381@CheckOwner@2
  00f55	d8 05 00 00 00
	00		 fadd	 DWORD PTR __real@4f800000
$LN381@CheckOwner@2:
  00f5b	de f9		 fdivp	 ST(1), ST(0)
  00f5d	d9 5d 98	 fstp	 DWORD PTR _fCurLoopTimePerSec$530966[ebp]

; 638  : 
; 639  : 				fTimeGap -= FLOAT10;

  00f60	b8 0a 00 00 00	 mov	 eax, 10			; 0000000aH
  00f65	d9 45 90	 fld	 DWORD PTR _fTimeGap$530962[ebp]
  00f68	89 45 90	 mov	 DWORD PTR tv5442[ebp], eax
  00f6b	db 45 90	 fild	 DWORD PTR tv5442[ebp]
  00f6e	85 c0		 test	 eax, eax
  00f70	79 06		 jns	 SHORT $LN382@CheckOwner@2
  00f72	d8 05 00 00 00
	00		 fadd	 DWORD PTR __real@4f800000
$LN382@CheckOwner@2:
  00f78	de e9		 fsubp	 ST(1), ST(0)
  00f7a	d9 5d 90	 fstp	 DWORD PTR _fTimeGap$530962[ebp]

; 640  : 			}
; 641  : 			else

  00f7d	eb 25		 jmp	 SHORT $LN15@CheckOwner@2
$LN16@CheckOwner@2:

; 642  : 			{
; 643  : 				fCurLoopTimeGap = fTimeGap;
; 644  : 				fCurLoopTimePerSec = fTimeGap / FLOAT1000;

  00f7f	b8 e8 03 00 00	 mov	 eax, 1000		; 000003e8H
  00f84	d9 45 90	 fld	 DWORD PTR _fTimeGap$530962[ebp]
  00f87	89 45 98	 mov	 DWORD PTR tv5436[ebp], eax
  00f8a	db 45 98	 fild	 DWORD PTR tv5436[ebp]
  00f8d	85 c0		 test	 eax, eax
  00f8f	79 06		 jns	 SHORT $LN383@CheckOwner@2
  00f91	d8 05 00 00 00
	00		 fadd	 DWORD PTR __real@4f800000
$LN383@CheckOwner@2:
  00f97	de f9		 fdivp	 ST(1), ST(0)

; 645  : 
; 646  : 				fTimeGap = 0.0f;

  00f99	0f 57 c0	 xorps	 xmm0, xmm0
  00f9c	f3 0f 11 45 90	 movss	 DWORD PTR _fTimeGap$530962[ebp], xmm0
  00fa1	d9 5d 98	 fstp	 DWORD PTR _fCurLoopTimePerSec$530966[ebp]
$LN15@CheckOwner@2:

; 647  : 			}
; 648  : 
; 649  : 			vDiff = vTargetPos - GetPosition();

  00fa4	8b 03		 mov	 eax, DWORD PTR [ebx]
  00fa6	8b cb		 mov	 ecx, ebx
  00fa8	ff 50 70	 call	 DWORD PTR [eax+112]
  00fab	f3 0f 10 08	 movss	 xmm1, DWORD PTR [eax]
  00faf	f3 0f 10 45 e4	 movss	 xmm0, DWORD PTR _vTargetPos$[ebp]
  00fb4	0f 5a c0	 cvtps2pd xmm0, xmm0
  00fb7	0f 5a c9	 cvtps2pd xmm1, xmm1
  00fba	f2 0f 5c c1	 subsd	 xmm0, xmm1
  00fbe	f3 0f 10 48 04	 movss	 xmm1, DWORD PTR [eax+4]
  00fc3	66 0f 5a c0	 cvtpd2ps xmm0, xmm0
  00fc7	f3 0f 11 85 38
	ff ff ff	 movss	 DWORD PTR $T530978[ebp], xmm0
  00fcf	f3 0f 10 45 e8	 movss	 xmm0, DWORD PTR _vTargetPos$[ebp+4]
  00fd4	0f 5a c0	 cvtps2pd xmm0, xmm0
  00fd7	0f 5a c9	 cvtps2pd xmm1, xmm1
  00fda	f2 0f 5c c1	 subsd	 xmm0, xmm1
  00fde	f3 0f 10 48 08	 movss	 xmm1, DWORD PTR [eax+8]
  00fe3	66 0f 5a c0	 cvtpd2ps xmm0, xmm0
  00fe7	f3 0f 11 85 3c
	ff ff ff	 movss	 DWORD PTR $T530978[ebp+4], xmm0
  00fef	f3 0f 10 45 ec	 movss	 xmm0, DWORD PTR _vTargetPos$[ebp+8]
  00ff4	0f 5a c0	 cvtps2pd xmm0, xmm0
  00ff7	0f 5a c9	 cvtps2pd xmm1, xmm1
  00ffa	f2 0f 5c c1	 subsd	 xmm0, xmm1
  00ffe	66 0f 5a c0	 cvtpd2ps xmm0, xmm0
  01002	f3 0f 11 85 40
	ff ff ff	 movss	 DWORD PTR $T530978[ebp+8], xmm0
  0100a	8d b5 38 ff ff
	ff		 lea	 esi, DWORD PTR $T530978[ebp]
  01010	8d 7d cc	 lea	 edi, DWORD PTR _vDiff$530958[ebp]
  01013	a5		 movsd

; 650  : 			D3DXVec3Normalize( &vDiff, &vDiff );

  01014	8d 45 cc	 lea	 eax, DWORD PTR _vDiff$530958[ebp]
  01017	a5		 movsd
  01018	50		 push	 eax
  01019	50		 push	 eax
  0101a	a5		 movsd
  0101b	e8 00 00 00 00	 call	 _D3DXVec3Normalize@8

; 651  : 
; 652  : 			D3DXVECTOR3 vCurXZDir = vCurDir;
; 653  : 			D3DXVECTOR3 vDiffXZDir = vDiff;
; 654  : 			vCurXZDir.y = 0.0f;

  01020	0f 57 c0	 xorps	 xmm0, xmm0
  01023	8d 75 d8	 lea	 esi, DWORD PTR _vCurDir$530961[ebp]
  01026	8d 7d b4	 lea	 edi, DWORD PTR _vCurXZDir$530979[ebp]
  01029	a5		 movsd
  0102a	a5		 movsd
  0102b	a5		 movsd
  0102c	8d 75 cc	 lea	 esi, DWORD PTR _vDiff$530958[ebp]
  0102f	8d 7d a8	 lea	 edi, DWORD PTR _vDiffXZDir$530980[ebp]
  01032	a5		 movsd
  01033	a5		 movsd

; 655  : 			vDiffXZDir.y = 0.0f;
; 656  : 			D3DXVec3Normalize( &vCurXZDir, &vCurXZDir );

  01034	8d 45 b4	 lea	 eax, DWORD PTR _vCurXZDir$530979[ebp]
  01037	50		 push	 eax
  01038	a5		 movsd
  01039	50		 push	 eax
  0103a	f3 0f 11 45 b8	 movss	 DWORD PTR _vCurXZDir$530979[ebp+4], xmm0
  0103f	f3 0f 11 45 ac	 movss	 DWORD PTR _vDiffXZDir$530980[ebp+4], xmm0
  01044	e8 00 00 00 00	 call	 _D3DXVec3Normalize@8

; 657  : 			D3DXVec3Normalize( &vDiffXZDir, &vDiffXZDir );

  01049	8d 45 a8	 lea	 eax, DWORD PTR _vDiffXZDir$530980[ebp]
  0104c	50		 push	 eax
  0104d	50		 push	 eax
  0104e	e8 00 00 00 00	 call	 _D3DXVec3Normalize@8

; 658  : 
; 659  : 			float fDotValue = D3DXVec3Dot( &vCurXZDir, &vDiffXZDir );

  01053	f3 0f 10 45 a8	 movss	 xmm0, DWORD PTR _vDiffXZDir$530980[ebp]
  01058	f3 0f 10 5d b4	 movss	 xmm3, DWORD PTR _vCurXZDir$530979[ebp]
  0105d	f3 0f 10 65 b8	 movss	 xmm4, DWORD PTR _vCurXZDir$530979[ebp+4]
  01062	f3 0f 10 6d bc	 movss	 xmm5, DWORD PTR _vCurXZDir$530979[ebp+8]
  01067	0f 5a cb	 cvtps2pd xmm1, xmm3
  0106a	0f 5a c0	 cvtps2pd xmm0, xmm0
  0106d	f2 0f 59 c1	 mulsd	 xmm0, xmm1
  01071	f3 0f 10 4d ac	 movss	 xmm1, DWORD PTR _vDiffXZDir$530980[ebp+4]
  01076	0f 5a c9	 cvtps2pd xmm1, xmm1
  01079	0f 5a d4	 cvtps2pd xmm2, xmm4
  0107c	f2 0f 59 ca	 mulsd	 xmm1, xmm2
  01080	f3 0f 10 55 b0	 movss	 xmm2, DWORD PTR _vDiffXZDir$530980[ebp+8]
  01085	f2 0f 58 c1	 addsd	 xmm0, xmm1
  01089	0f 5a d2	 cvtps2pd xmm2, xmm2
  0108c	0f 5a cd	 cvtps2pd xmm1, xmm5
  0108f	f2 0f 59 ca	 mulsd	 xmm1, xmm2
  01093	f2 0f 58 c1	 addsd	 xmm0, xmm1
  01097	f2 0f 5a c0	 cvtsd2ss xmm0, xmm0

; 660  : 			if( COMPARE( fDotValue, -1.0001f, -0.9999f ) )

  0109b	0f 2f 05 00 00
	00 00		 comiss	 xmm0, DWORD PTR __real@bf800347
  010a2	0f 82 02 02 00
	00		 jb	 $LN14@CheckOwner@2
  010a8	f2 0f 10 0d 00
	00 00 00	 movsd	 xmm1, QWORD PTR __real@bfefff2e40000000
  010b0	f3 0f 5a c0	 cvtss2sd xmm0, xmm0
  010b4	66 0f 2f c8	 comisd	 xmm1, xmm0
  010b8	0f 86 ec 01 00
	00		 jbe	 $LN14@CheckOwner@2

; 661  : 			{
; 662  : 				D3DXVECTOR3 vCrossVec;
; 663  : 				D3DXVec3Cross( &vCrossVec, &vCurXZDir, &m_vRollAxis );

  010be	f3 0f 10 83 cc
	08 00 00	 movss	 xmm0, DWORD PTR [ebx+2252]
  010c6	f3 0f 10 8b c8
	08 00 00	 movss	 xmm1, DWORD PTR [ebx+2248]
  010ce	0f 5a d0	 cvtps2pd xmm2, xmm0
  010d1	0f 5a f4	 cvtps2pd xmm6, xmm4
  010d4	f2 0f 59 d6	 mulsd	 xmm2, xmm6
  010d8	0f 5a f9	 cvtps2pd xmm7, xmm1
  010db	0f 5a c0	 cvtps2pd xmm0, xmm0
  010de	8d b5 50 ff ff
	ff		 lea	 esi, DWORD PTR _v$534574[ebp]
  010e4	8d 7d 9c	 lea	 edi, DWORD PTR _vCrossVec$530983[ebp]
  010e7	0f 5a f5	 cvtps2pd xmm6, xmm5
  010ea	f2 0f 59 f7	 mulsd	 xmm6, xmm7
  010ee	f2 0f 5c d6	 subsd	 xmm2, xmm6
  010f2	0f 5a ed	 cvtps2pd xmm5, xmm5
  010f5	66 0f 5a d2	 cvtpd2ps xmm2, xmm2
  010f9	f3 0f 11 95 50
	ff ff ff	 movss	 DWORD PTR _v$534574[ebp], xmm2
  01101	f3 0f 10 93 c4
	08 00 00	 movss	 xmm2, DWORD PTR [ebx+2244]
  01109	0f 5a f2	 cvtps2pd xmm6, xmm2
  0110c	f2 0f 59 f5	 mulsd	 xmm6, xmm5
  01110	0f 5a eb	 cvtps2pd xmm5, xmm3
  01113	f2 0f 59 c5	 mulsd	 xmm0, xmm5
  01117	f2 0f 5c f0	 subsd	 xmm6, xmm0

; 664  : 				D3DXVec3Normalize( &vCrossVec, &vCrossVec );

  0111b	8d 45 9c	 lea	 eax, DWORD PTR _vCrossVec$530983[ebp]
  0111e	50		 push	 eax
  0111f	50		 push	 eax
  01120	66 0f 5a c6	 cvtpd2ps xmm0, xmm6
  01124	f3 0f 11 85 54
	ff ff ff	 movss	 DWORD PTR _v$534574[ebp+4], xmm0
  0112c	0f 5a c1	 cvtps2pd xmm0, xmm1
  0112f	0f 5a cb	 cvtps2pd xmm1, xmm3
  01132	f2 0f 59 c1	 mulsd	 xmm0, xmm1
  01136	0f 5a ca	 cvtps2pd xmm1, xmm2
  01139	0f 5a d4	 cvtps2pd xmm2, xmm4
  0113c	f2 0f 59 ca	 mulsd	 xmm1, xmm2
  01140	f2 0f 5c c1	 subsd	 xmm0, xmm1
  01144	66 0f 5a c0	 cvtpd2ps xmm0, xmm0
  01148	f3 0f 11 85 58
	ff ff ff	 movss	 DWORD PTR _v$534574[ebp+8], xmm0
  01150	a5		 movsd
  01151	a5		 movsd
  01152	a5		 movsd
  01153	e8 00 00 00 00	 call	 _D3DXVec3Normalize@8

; 665  : 
; 666  : 				D3DXVECTOR3 vCurForce = vCurXZDir * fMoveSpeed * fCurLoopTimePerSec;

  01158	f3 0f 10 4d 94	 movss	 xmm1, DWORD PTR _fMoveSpeed$530964[ebp]
  0115d	f3 0f 10 45 b4	 movss	 xmm0, DWORD PTR _vCurXZDir$530979[ebp]
  01162	f3 0f 10 55 94	 movss	 xmm2, DWORD PTR _fMoveSpeed$530964[ebp]
  01167	f3 0f 10 5d 94	 movss	 xmm3, DWORD PTR _fMoveSpeed$530964[ebp]
  0116c	0f 5a c9	 cvtps2pd xmm1, xmm1
  0116f	0f 5a d2	 cvtps2pd xmm2, xmm2
  01172	0f 5a c0	 cvtps2pd xmm0, xmm0
  01175	f2 0f 59 c1	 mulsd	 xmm0, xmm1
  01179	f3 0f 10 4d b8	 movss	 xmm1, DWORD PTR _vCurXZDir$530979[ebp+4]
  0117e	0f 5a c9	 cvtps2pd xmm1, xmm1
  01181	f2 0f 59 ca	 mulsd	 xmm1, xmm2
  01185	f3 0f 10 55 bc	 movss	 xmm2, DWORD PTR _vCurXZDir$530979[ebp+8]

; 667  : 				vCurDir = vCurForce + (vCrossVec * m_fReturnControlSpeed * fCurLoopTimePerSec);

  0118a	f3 0f 10 6d 9c	 movss	 xmm5, DWORD PTR _vCrossVec$530983[ebp]
  0118f	0f 5a db	 cvtps2pd xmm3, xmm3
  01192	0f 5a d2	 cvtps2pd xmm2, xmm2
  01195	f2 0f 59 d3	 mulsd	 xmm2, xmm3
  01199	0f 57 db	 xorps	 xmm3, xmm3
  0119c	66 0f 5a c0	 cvtpd2ps xmm0, xmm0
  011a0	f3 0f 5a d8	 cvtss2sd xmm3, xmm0
  011a4	f3 0f 10 45 98	 movss	 xmm0, DWORD PTR _fCurLoopTimePerSec$530966[ebp]
  011a9	0f 5a e0	 cvtps2pd xmm4, xmm0
  011ac	66 0f 5a c9	 cvtpd2ps xmm1, xmm1
  011b0	f2 0f 59 dc	 mulsd	 xmm3, xmm4
  011b4	f3 0f 5a c9	 cvtss2sd xmm1, xmm1
  011b8	66 0f 5a d2	 cvtpd2ps xmm2, xmm2
  011bc	0f 5a ed	 cvtps2pd xmm5, xmm5
  011bf	0f 5a e0	 cvtps2pd xmm4, xmm0
  011c2	f2 0f 59 cc	 mulsd	 xmm1, xmm4
  011c6	0f 57 e4	 xorps	 xmm4, xmm4
  011c9	66 0f 5a e1	 cvtpd2ps xmm4, xmm1
  011cd	0f 57 c9	 xorps	 xmm1, xmm1
  011d0	f3 0f 5a ca	 cvtss2sd xmm1, xmm2
  011d4	0f 5a d0	 cvtps2pd xmm2, xmm0
  011d7	f2 0f 59 ca	 mulsd	 xmm1, xmm2
  011db	66 0f 5a db	 cvtpd2ps xmm3, xmm3
  011df	66 0f 5a d1	 cvtpd2ps xmm2, xmm1
  011e3	f3 0f 10 8b 2c
	09 00 00	 movss	 xmm1, DWORD PTR [ebx+2348]
  011eb	0f 5a f1	 cvtps2pd xmm6, xmm1
  011ee	f2 0f 59 ee	 mulsd	 xmm5, xmm6
  011f2	f3 0f 10 75 a0	 movss	 xmm6, DWORD PTR _vCrossVec$530983[ebp+4]
  011f7	66 0f 5a ed	 cvtpd2ps xmm5, xmm5
  011fb	0f 5a f6	 cvtps2pd xmm6, xmm6
  011fe	0f 5a f9	 cvtps2pd xmm7, xmm1
  01201	0f 5a c9	 cvtps2pd xmm1, xmm1
  01204	f2 0f 59 f7	 mulsd	 xmm6, xmm7
  01208	f3 0f 10 7d a4	 movss	 xmm7, DWORD PTR _vCrossVec$530983[ebp+8]
  0120d	0f 5a ff	 cvtps2pd xmm7, xmm7
  01210	f2 0f 59 f9	 mulsd	 xmm7, xmm1
  01214	0f 57 c9	 xorps	 xmm1, xmm1
  01217	66 0f 5a cf	 cvtpd2ps xmm1, xmm7
  0121b	0f 5a c9	 cvtps2pd xmm1, xmm1
  0121e	f3 0f 5a ed	 cvtss2sd xmm5, xmm5
  01222	f3 0f 5a db	 cvtss2sd xmm3, xmm3
  01226	0f 5a f8	 cvtps2pd xmm7, xmm0
  01229	f2 0f 59 ef	 mulsd	 xmm5, xmm7
  0122d	66 0f 5a f6	 cvtpd2ps xmm6, xmm6
  01231	66 0f 5a ed	 cvtpd2ps xmm5, xmm5
  01235	f3 0f 5a f6	 cvtss2sd xmm6, xmm6
  01239	8d b5 44 ff ff
	ff		 lea	 esi, DWORD PTR $T530989[ebp]
  0123f	0f 5a f8	 cvtps2pd xmm7, xmm0
  01242	0f 5a c0	 cvtps2pd xmm0, xmm0
  01245	f2 0f 59 c8	 mulsd	 xmm1, xmm0
  01249	0f 57 c0	 xorps	 xmm0, xmm0
  0124c	66 0f 5a c1	 cvtpd2ps xmm0, xmm1
  01250	0f 57 c9	 xorps	 xmm1, xmm1
  01253	f3 0f 5a cd	 cvtss2sd xmm1, xmm5
  01257	f2 0f 58 cb	 addsd	 xmm1, xmm3
  0125b	66 0f 5a c9	 cvtpd2ps xmm1, xmm1
  0125f	f3 0f 11 8d 44
	ff ff ff	 movss	 DWORD PTR $T530989[ebp], xmm1
  01267	0f 57 c9	 xorps	 xmm1, xmm1
  0126a	f2 0f 59 f7	 mulsd	 xmm6, xmm7
  0126e	66 0f 5a f6	 cvtpd2ps xmm6, xmm6
  01272	f3 0f 5a ce	 cvtss2sd xmm1, xmm6
  01276	0f 57 db	 xorps	 xmm3, xmm3
  01279	0f 5a dc	 cvtps2pd xmm3, xmm4
  0127c	f2 0f 58 cb	 addsd	 xmm1, xmm3
  01280	66 0f 5a c9	 cvtpd2ps xmm1, xmm1
  01284	f3 0f 11 8d 48
	ff ff ff	 movss	 DWORD PTR $T530989[ebp+4], xmm1
  0128c	0f 5a c0	 cvtps2pd xmm0, xmm0
  0128f	0f 57 c9	 xorps	 xmm1, xmm1
  01292	0f 5a ca	 cvtps2pd xmm1, xmm2
  01295	f2 0f 58 c1	 addsd	 xmm0, xmm1
  01299	66 0f 5a c0	 cvtpd2ps xmm0, xmm0
  0129d	f3 0f 11 85 4c
	ff ff ff	 movss	 DWORD PTR $T530989[ebp+8], xmm0

; 668  : 
; 669  : 				D3DXVec3Normalize( &vCurDir, &vCurDir );
; 670  : 			}
; 671  : 			else

  012a5	e9 3e 01 00 00	 jmp	 $LN395@CheckOwner@2
$LN14@CheckOwner@2:

; 672  : 			{
; 673  : 				D3DXVECTOR3 vCurForce = vCurXZDir * fMoveSpeed * fCurLoopTimePerSec;

  012aa	f3 0f 10 4d 94	 movss	 xmm1, DWORD PTR _fMoveSpeed$530964[ebp]
  012af	f3 0f 10 55 94	 movss	 xmm2, DWORD PTR _fMoveSpeed$530964[ebp]
  012b4	0f 5a c9	 cvtps2pd xmm1, xmm1
  012b7	0f 5a c3	 cvtps2pd xmm0, xmm3
  012ba	f2 0f 59 c1	 mulsd	 xmm0, xmm1
  012be	f3 0f 10 5d 94	 movss	 xmm3, DWORD PTR _fMoveSpeed$530964[ebp]
  012c3	0f 5a d2	 cvtps2pd xmm2, xmm2

; 674  : 				vCurDir = vCurForce + (vDiffXZDir * m_fReturnControlSpeed * fCurLoopTimePerSec);

  012c6	f3 0f 10 75 a8	 movss	 xmm6, DWORD PTR _vDiffXZDir$530980[ebp]
  012cb	0f 5a cc	 cvtps2pd xmm1, xmm4
  012ce	f2 0f 59 ca	 mulsd	 xmm1, xmm2
  012d2	66 0f 5a c9	 cvtpd2ps xmm1, xmm1
  012d6	0f 5a db	 cvtps2pd xmm3, xmm3
  012d9	0f 5a d5	 cvtps2pd xmm2, xmm5
  012dc	f2 0f 59 d3	 mulsd	 xmm2, xmm3
  012e0	f3 0f 5a c9	 cvtss2sd xmm1, xmm1
  012e4	66 0f 5a c0	 cvtpd2ps xmm0, xmm0
  012e8	f3 0f 10 7d ac	 movss	 xmm7, DWORD PTR _vDiffXZDir$530980[ebp+4]
  012ed	0f 57 db	 xorps	 xmm3, xmm3
  012f0	f3 0f 5a d8	 cvtss2sd xmm3, xmm0
  012f4	f3 0f 10 45 98	 movss	 xmm0, DWORD PTR _fCurLoopTimePerSec$530966[ebp]
  012f9	0f 5a e0	 cvtps2pd xmm4, xmm0
  012fc	f2 0f 59 dc	 mulsd	 xmm3, xmm4
  01300	66 0f 5a d2	 cvtpd2ps xmm2, xmm2
  01304	0f 5a f6	 cvtps2pd xmm6, xmm6
  01307	0f 5a ff	 cvtps2pd xmm7, xmm7
  0130a	66 0f 5a db	 cvtpd2ps xmm3, xmm3
  0130e	0f 5a e0	 cvtps2pd xmm4, xmm0
  01311	f2 0f 59 cc	 mulsd	 xmm1, xmm4
  01315	0f 57 e4	 xorps	 xmm4, xmm4
  01318	66 0f 5a e1	 cvtpd2ps xmm4, xmm1
  0131c	0f 57 c9	 xorps	 xmm1, xmm1
  0131f	f3 0f 5a ca	 cvtss2sd xmm1, xmm2
  01323	0f 5a d0	 cvtps2pd xmm2, xmm0
  01326	f2 0f 59 ca	 mulsd	 xmm1, xmm2
  0132a	f3 0f 5a db	 cvtss2sd xmm3, xmm3
  0132e	8d b5 68 ff ff
	ff		 lea	 esi, DWORD PTR $T530996[ebp]
  01334	66 0f 5a d1	 cvtpd2ps xmm2, xmm1
  01338	f3 0f 10 8b 2c
	09 00 00	 movss	 xmm1, DWORD PTR [ebx+2348]
  01340	0f 5a e9	 cvtps2pd xmm5, xmm1
  01343	f2 0f 59 ee	 mulsd	 xmm5, xmm6
  01347	0f 5a f1	 cvtps2pd xmm6, xmm1
  0134a	0f 5a c9	 cvtps2pd xmm1, xmm1
  0134d	f2 0f 59 f7	 mulsd	 xmm6, xmm7
  01351	f3 0f 10 7d b0	 movss	 xmm7, DWORD PTR _vDiffXZDir$530980[ebp+8]
  01356	0f 5a ff	 cvtps2pd xmm7, xmm7
  01359	f2 0f 59 f9	 mulsd	 xmm7, xmm1
  0135d	0f 57 c9	 xorps	 xmm1, xmm1
  01360	f2 0f 5a cf	 cvtsd2ss xmm1, xmm7
  01364	0f 5a c9	 cvtps2pd xmm1, xmm1
  01367	66 0f 5a ed	 cvtpd2ps xmm5, xmm5
  0136b	f3 0f 5a ed	 cvtss2sd xmm5, xmm5
  0136f	0f 5a f8	 cvtps2pd xmm7, xmm0
  01372	f2 0f 59 ef	 mulsd	 xmm5, xmm7
  01376	66 0f 5a f6	 cvtpd2ps xmm6, xmm6
  0137a	66 0f 5a ed	 cvtpd2ps xmm5, xmm5
  0137e	f3 0f 5a f6	 cvtss2sd xmm6, xmm6
  01382	0f 5a f8	 cvtps2pd xmm7, xmm0
  01385	0f 5a c0	 cvtps2pd xmm0, xmm0
  01388	f2 0f 59 c8	 mulsd	 xmm1, xmm0
  0138c	0f 57 c0	 xorps	 xmm0, xmm0
  0138f	66 0f 5a c1	 cvtpd2ps xmm0, xmm1
  01393	0f 57 c9	 xorps	 xmm1, xmm1
  01396	f3 0f 5a cd	 cvtss2sd xmm1, xmm5
  0139a	f2 0f 58 cb	 addsd	 xmm1, xmm3
  0139e	66 0f 5a c9	 cvtpd2ps xmm1, xmm1
  013a2	f3 0f 11 8d 68
	ff ff ff	 movss	 DWORD PTR $T530996[ebp], xmm1
  013aa	0f 57 c9	 xorps	 xmm1, xmm1
  013ad	f2 0f 59 f7	 mulsd	 xmm6, xmm7
  013b1	66 0f 5a f6	 cvtpd2ps xmm6, xmm6
  013b5	f3 0f 5a ce	 cvtss2sd xmm1, xmm6
  013b9	0f 57 db	 xorps	 xmm3, xmm3
  013bc	0f 5a dc	 cvtps2pd xmm3, xmm4
  013bf	f2 0f 58 cb	 addsd	 xmm1, xmm3
  013c3	66 0f 5a c9	 cvtpd2ps xmm1, xmm1
  013c7	f3 0f 11 8d 6c
	ff ff ff	 movss	 DWORD PTR $T530996[ebp+4], xmm1
  013cf	0f 5a c0	 cvtps2pd xmm0, xmm0
  013d2	0f 57 c9	 xorps	 xmm1, xmm1
  013d5	0f 5a ca	 cvtps2pd xmm1, xmm2
  013d8	f2 0f 58 c1	 addsd	 xmm0, xmm1
  013dc	66 0f 5a c0	 cvtpd2ps xmm0, xmm0
  013e0	f3 0f 11 85 70
	ff ff ff	 movss	 DWORD PTR $T530996[ebp+8], xmm0
$LN395@CheckOwner@2:

; 675  : 
; 676  : 				D3DXVec3Normalize( &vCurDir, &vCurDir );

  013e8	8d 45 d8	 lea	 eax, DWORD PTR _vCurDir$530961[ebp]
  013eb	8b f8		 mov	 edi, eax
  013ed	a5		 movsd
  013ee	a5		 movsd
  013ef	50		 push	 eax
  013f0	50		 push	 eax
  013f1	a5		 movsd
  013f2	e8 00 00 00 00	 call	 _D3DXVec3Normalize@8
  013f7	f3 0f 10 45 90	 movss	 xmm0, DWORD PTR _fTimeGap$530962[ebp]
  013fc	0f 2f 05 00 00
	00 00		 comiss	 xmm0, DWORD PTR __real@00000000
  01403	0f 87 01 fb ff
	ff		 ja	 $LL18@CheckOwner@2
$LN17@CheckOwner@2:

; 677  : 			}
; 678  : 		}
; 679  : 
; 680  : 		D3DXVec3Normalize( &m_vCurMoveDir, &vCurDir );

  01409	8d 45 d8	 lea	 eax, DWORD PTR _vCurDir$530961[ebp]
  0140c	50		 push	 eax
  0140d	8d 83 ac 08 00
	00		 lea	 eax, DWORD PTR [ebx+2220]
  01413	50		 push	 eax
  01414	e8 00 00 00 00	 call	 _D3DXVec3Normalize@8

; 681  : 		D3DXVECTOR3 vMove = vCurDir * m_fCurMoveDistance;

  01419	f3 0f 10 83 dc
	08 00 00	 movss	 xmm0, DWORD PTR [ebx+2268]
  01421	f3 0f 10 4d d8	 movss	 xmm1, DWORD PTR _vCurDir$530961[ebp]
  01426	0f 5a c9	 cvtps2pd xmm1, xmm1
  01429	0f 5a d0	 cvtps2pd xmm2, xmm0
  0142c	f2 0f 59 ca	 mulsd	 xmm1, xmm2
  01430	66 0f 5a c9	 cvtpd2ps xmm1, xmm1
  01434	f3 0f 11 4d f0	 movss	 DWORD PTR _vMove$530997[ebp], xmm1
  01439	f3 0f 10 4d dc	 movss	 xmm1, DWORD PTR _vCurDir$530961[ebp+4]
  0143e	0f 5a c9	 cvtps2pd xmm1, xmm1
  01441	0f 57 d2	 xorps	 xmm2, xmm2
  01444	0f 5a d0	 cvtps2pd xmm2, xmm0
  01447	f2 0f 59 ca	 mulsd	 xmm1, xmm2
  0144b	66 0f 5a c9	 cvtpd2ps xmm1, xmm1
  0144f	f3 0f 11 4d f4	 movss	 DWORD PTR _vMove$530997[ebp+4], xmm1
  01454	f3 0f 10 4d e0	 movss	 xmm1, DWORD PTR _vCurDir$530961[ebp+8]
  01459	0f 5a c0	 cvtps2pd xmm0, xmm0
  0145c	0f 5a c9	 cvtps2pd xmm1, xmm1
  0145f	f2 0f 59 c8	 mulsd	 xmm1, xmm0
  01463	0f 57 c0	 xorps	 xmm0, xmm0
  01466	66 0f 5a c1	 cvtpd2ps xmm0, xmm1

; 682  : 
; 683  : 		// 
; 684  : 		float fHeightSpeed = m_fControlSpeed * fTimePerSec;

  0146a	f3 0f 10 4d 8c	 movss	 xmm1, DWORD PTR _fTimePerSec$GSCopy$[ebp]
  0146f	f3 0f 11 45 f8	 movss	 DWORD PTR _vMove$530997[ebp+8], xmm0
  01474	f3 0f 10 83 28
	09 00 00	 movss	 xmm0, DWORD PTR [ebx+2344]
  0147c	0f 5a c0	 cvtps2pd xmm0, xmm0
  0147f	0f 5a c9	 cvtps2pd xmm1, xmm1
  01482	f2 0f 59 c1	 mulsd	 xmm0, xmm1

; 685  : 		if( vCharPos.y != vPreCharPos.y )

  01486	f3 0f 10 8d 60
	ff ff ff	 movss	 xmm1, DWORD PTR _vPreCharPos$[ebp+4]
  0148e	0f 57 e4	 xorps	 xmm4, xmm4
  01491	66 0f 5a e0	 cvtpd2ps xmm4, xmm0
  01495	f3 0f 10 85 78
	ff ff ff	 movss	 xmm0, DWORD PTR _vCharPos$[ebp+4]
  0149d	0f 5a c0	 cvtps2pd xmm0, xmm0
  014a0	0f 5a c9	 cvtps2pd xmm1, xmm1
  014a3	66 0f 2e c1	 ucomisd xmm0, xmm1
  014a7	9f		 lahf
  014a8	f6 c4 44	 test	 ah, 68			; 00000044H
  014ab	7b 3d		 jnp	 SHORT $LN12@CheckOwner@2

; 686  : 		{
; 687  : 			float fGap = vCharPos.y - vPreCharPos.y;
; 688  : 			m_fControlValue2 += fGap;

  014ad	f3 0f 10 85 78
	ff ff ff	 movss	 xmm0, DWORD PTR _vCharPos$[ebp+4]
  014b5	f3 0f 10 8d 60
	ff ff ff	 movss	 xmm1, DWORD PTR _vPreCharPos$[ebp+4]
  014bd	0f 5a c0	 cvtps2pd xmm0, xmm0
  014c0	0f 5a c9	 cvtps2pd xmm1, xmm1
  014c3	f2 0f 5c c1	 subsd	 xmm0, xmm1
  014c7	f3 0f 10 8b 40
	09 00 00	 movss	 xmm1, DWORD PTR [ebx+2368]
  014cf	f2 0f 5a c0	 cvtsd2ss xmm0, xmm0
  014d3	f3 0f 5a c0	 cvtss2sd xmm0, xmm0
  014d7	0f 5a c9	 cvtps2pd xmm1, xmm1
  014da	f2 0f 58 c1	 addsd	 xmm0, xmm1
  014de	f2 0f 5a c0	 cvtsd2ss xmm0, xmm0
  014e2	f3 0f 11 83 40
	09 00 00	 movss	 DWORD PTR [ebx+2368], xmm0
$LN12@CheckOwner@2:

; 689  : 		}
; 690  : 
; 691  : 		if( fabs(m_fControlValue2) > FLOAT0001 && fHeightSpeed <= fabs(m_fControlValue2) )

  014ea	d9 83 40 09 00
	00		 fld	 DWORD PTR [ebx+2368]
  014f0	d9 e1		 fabs
  014f2	d9 5d 98	 fstp	 DWORD PTR tv5255[ebp]
  014f5	d9 45 98	 fld	 DWORD PTR tv5255[ebp]
  014f8	d9 5d 98	 fstp	 DWORD PTR $T534709[ebp]
  014fb	b8 01 00 00 00	 mov	 eax, 1
  01500	8b c8		 mov	 ecx, eax
  01502	b8 e8 03 00 00	 mov	 eax, 1000		; 000003e8H
  01507	d9 45 98	 fld	 DWORD PTR $T534709[ebp]
  0150a	89 4d 98	 mov	 DWORD PTR tv5249[ebp], ecx
  0150d	db 45 98	 fild	 DWORD PTR tv5249[ebp]
  01510	85 c9		 test	 ecx, ecx
  01512	79 06		 jns	 SHORT $LN384@CheckOwner@2
  01514	d8 05 00 00 00
	00		 fadd	 DWORD PTR __real@4f800000
$LN384@CheckOwner@2:
  0151a	89 45 98	 mov	 DWORD PTR tv5245[ebp], eax
  0151d	db 45 98	 fild	 DWORD PTR tv5245[ebp]
  01520	85 c0		 test	 eax, eax
  01522	79 06		 jns	 SHORT $LN385@CheckOwner@2
  01524	d8 05 00 00 00
	00		 fadd	 DWORD PTR __real@4f800000
$LN385@CheckOwner@2:
  0152a	de f9		 fdivp	 ST(1), ST(0)
  0152c	d9 5d 98	 fstp	 DWORD PTR tv5241[ebp]
  0152f	d9 45 98	 fld	 DWORD PTR tv5241[ebp]
  01532	d9 c9		 fxch	 ST(1)
  01534	df f1		 fcomip	 ST(1)
  01536	dd d8		 fstp	 ST(0)
  01538	0f 86 a3 01 00
	00		 jbe	 $LN11@CheckOwner@2
  0153e	f3 0f 10 ab 40
	09 00 00	 movss	 xmm5, DWORD PTR [ebx+2368]
  01546	f2 0f 10 15 00
	00 00 00	 movsd	 xmm2, QWORD PTR __mask@@AbsDouble@
  0154e	0f 5a cd	 cvtps2pd xmm1, xmm5
  01551	66 0f 54 ca	 andpd	 xmm1, xmm2
  01555	0f 57 c0	 xorps	 xmm0, xmm0
  01558	f2 0f 5a c9	 cvtsd2ss xmm1, xmm1
  0155c	0f 5a c4	 cvtps2pd xmm0, xmm4
  0155f	f3 0f 5a c9	 cvtss2sd xmm1, xmm1
  01563	66 0f 2f c8	 comisd	 xmm1, xmm0
  01567	0f 82 74 01 00
	00		 jb	 $LN11@CheckOwner@2

; 692  : 		{
; 693  : 			if( m_fControlValue2 < 0.0f )

  0156d	0f 57 c0	 xorps	 xmm0, xmm0
  01570	0f 2f c5	 comiss	 xmm0, xmm5
  01573	0f 86 ba 00 00
	00		 jbe	 $LN10@CheckOwner@2

; 694  : 			{
; 695  : 				vMove += fHeightSpeed * (-m_vRollAxis);

  01579	f3 0f 10 05 00
	00 00 00	 movss	 xmm0, DWORD PTR __mask@@NegFloat@
  01581	f3 0f 10 8b c4
	08 00 00	 movss	 xmm1, DWORD PTR [ebx+2244]
  01589	f3 0f 10 93 c8
	08 00 00	 movss	 xmm2, DWORD PTR [ebx+2248]
  01591	f3 0f 10 9b cc
	08 00 00	 movss	 xmm3, DWORD PTR [ebx+2252]
  01599	0f 57 c8	 xorps	 xmm1, xmm0
  0159c	0f 57 d0	 xorps	 xmm2, xmm0
  0159f	0f 57 d8	 xorps	 xmm3, xmm0
  015a2	0f 5a c1	 cvtps2pd xmm0, xmm1
  015a5	0f 5a cc	 cvtps2pd xmm1, xmm4
  015a8	f2 0f 59 c1	 mulsd	 xmm0, xmm1
  015ac	66 0f 5a c0	 cvtpd2ps xmm0, xmm0
  015b0	f3 0f 5a c0	 cvtss2sd xmm0, xmm0
  015b4	0f 5a ca	 cvtps2pd xmm1, xmm2
  015b7	0f 5a d4	 cvtps2pd xmm2, xmm4
  015ba	f2 0f 59 ca	 mulsd	 xmm1, xmm2
  015be	66 0f 5a c9	 cvtpd2ps xmm1, xmm1
  015c2	0f 5a d3	 cvtps2pd xmm2, xmm3
  015c5	0f 5a dc	 cvtps2pd xmm3, xmm4
  015c8	f2 0f 59 d3	 mulsd	 xmm2, xmm3
  015cc	f3 0f 10 5d f0	 movss	 xmm3, DWORD PTR _vMove$530997[ebp]
  015d1	0f 5a db	 cvtps2pd xmm3, xmm3
  015d4	f2 0f 58 c3	 addsd	 xmm0, xmm3
  015d8	66 0f 5a c0	 cvtpd2ps xmm0, xmm0
  015dc	f3 0f 11 45 f0	 movss	 DWORD PTR _vMove$530997[ebp], xmm0
  015e1	0f 57 c0	 xorps	 xmm0, xmm0
  015e4	f3 0f 5a c1	 cvtss2sd xmm0, xmm1
  015e8	f3 0f 10 4d f4	 movss	 xmm1, DWORD PTR _vMove$530997[ebp+4]
  015ed	0f 5a c9	 cvtps2pd xmm1, xmm1
  015f0	f2 0f 58 c1	 addsd	 xmm0, xmm1
  015f4	f3 0f 10 4d f8	 movss	 xmm1, DWORD PTR _vMove$530997[ebp+8]
  015f9	66 0f 5a c0	 cvtpd2ps xmm0, xmm0
  015fd	f3 0f 11 45 f4	 movss	 DWORD PTR _vMove$530997[ebp+4], xmm0
  01602	0f 57 c0	 xorps	 xmm0, xmm0
  01605	0f 5a c9	 cvtps2pd xmm1, xmm1
  01608	66 0f 5a d2	 cvtpd2ps xmm2, xmm2
  0160c	f3 0f 5a c2	 cvtss2sd xmm0, xmm2
  01610	f2 0f 58 c1	 addsd	 xmm0, xmm1
  01614	66 0f 5a c0	 cvtpd2ps xmm0, xmm0
  01618	f3 0f 11 45 f8	 movss	 DWORD PTR _vMove$530997[ebp+8], xmm0

; 696  : 				m_fControlValue2 += fHeightSpeed;

  0161d	0f 57 c9	 xorps	 xmm1, xmm1
  01620	0f 5a cd	 cvtps2pd xmm1, xmm5
  01623	0f 5a c4	 cvtps2pd xmm0, xmm4
  01626	f2 0f 58 c1	 addsd	 xmm0, xmm1
$LN399@CheckOwner@2:
  0162a	66 0f 5a c0	 cvtpd2ps xmm0, xmm0
  0162e	e9 ad 01 00 00	 jmp	 $LN396@CheckOwner@2
$LN10@CheckOwner@2:

; 697  : 			}
; 698  : 			else if( m_fControlValue2 > 0.0f )

  01633	0f 2f e8	 comiss	 xmm5, xmm0
  01636	0f 86 ac 01 00
	00		 jbe	 $LN3@CheckOwner@2

; 699  : 			{
; 700  : 				vMove += fHeightSpeed * m_vRollAxis;

  0163c	f3 0f 10 83 c4
	08 00 00	 movss	 xmm0, DWORD PTR [ebx+2244]
  01644	f3 0f 10 93 c8
	08 00 00	 movss	 xmm2, DWORD PTR [ebx+2248]
  0164c	0f 5a c0	 cvtps2pd xmm0, xmm0
  0164f	0f 5a cc	 cvtps2pd xmm1, xmm4
  01652	f2 0f 59 c1	 mulsd	 xmm0, xmm1
  01656	66 0f 5a c0	 cvtpd2ps xmm0, xmm0
  0165a	f3 0f 5a c0	 cvtss2sd xmm0, xmm0
  0165e	0f 5a d2	 cvtps2pd xmm2, xmm2
  01661	0f 5a dc	 cvtps2pd xmm3, xmm4
  01664	0f 5a cc	 cvtps2pd xmm1, xmm4
  01667	f2 0f 59 ca	 mulsd	 xmm1, xmm2
  0166b	f3 0f 10 93 cc
	08 00 00	 movss	 xmm2, DWORD PTR [ebx+2252]
  01673	0f 5a d2	 cvtps2pd xmm2, xmm2
  01676	f2 0f 59 d3	 mulsd	 xmm2, xmm3
  0167a	f3 0f 10 5d f0	 movss	 xmm3, DWORD PTR _vMove$530997[ebp]
  0167f	66 0f 5a c9	 cvtpd2ps xmm1, xmm1
  01683	0f 5a db	 cvtps2pd xmm3, xmm3
  01686	f2 0f 58 c3	 addsd	 xmm0, xmm3
  0168a	66 0f 5a c0	 cvtpd2ps xmm0, xmm0
  0168e	f3 0f 11 45 f0	 movss	 DWORD PTR _vMove$530997[ebp], xmm0
  01693	0f 57 c0	 xorps	 xmm0, xmm0
  01696	f3 0f 5a c1	 cvtss2sd xmm0, xmm1
  0169a	f3 0f 10 4d f4	 movss	 xmm1, DWORD PTR _vMove$530997[ebp+4]
  0169f	0f 5a c9	 cvtps2pd xmm1, xmm1
  016a2	f2 0f 58 c1	 addsd	 xmm0, xmm1
  016a6	f3 0f 10 4d f8	 movss	 xmm1, DWORD PTR _vMove$530997[ebp+8]
  016ab	66 0f 5a c0	 cvtpd2ps xmm0, xmm0
  016af	f3 0f 11 45 f4	 movss	 DWORD PTR _vMove$530997[ebp+4], xmm0
  016b4	0f 57 c0	 xorps	 xmm0, xmm0
  016b7	0f 5a c9	 cvtps2pd xmm1, xmm1
  016ba	66 0f 5a d2	 cvtpd2ps xmm2, xmm2
  016be	f3 0f 5a c2	 cvtss2sd xmm0, xmm2
  016c2	f2 0f 58 c1	 addsd	 xmm0, xmm1
  016c6	66 0f 5a c0	 cvtpd2ps xmm0, xmm0
  016ca	f3 0f 11 45 f8	 movss	 DWORD PTR _vMove$530997[ebp+8], xmm0

; 701  : 				m_fControlValue2 -= fHeightSpeed;

  016cf	0f 57 c9	 xorps	 xmm1, xmm1
  016d2	0f 5a cc	 cvtps2pd xmm1, xmm4
  016d5	0f 5a c5	 cvtps2pd xmm0, xmm5
  016d8	f2 0f 5c c1	 subsd	 xmm0, xmm1

; 702  : 			}
; 703  : 		}

  016dc	e9 49 ff ff ff	 jmp	 $LN399@CheckOwner@2
$LN11@CheckOwner@2:

; 704  : 		else if( fabs(m_fControlValue2) > FLOAT0001 )

  016e1	d9 83 40 09 00
	00		 fld	 DWORD PTR [ebx+2368]
  016e7	d9 5d 98	 fstp	 DWORD PTR $T534776[ebp]
  016ea	b8 01 00 00 00	 mov	 eax, 1
  016ef	8b c8		 mov	 ecx, eax
  016f1	b8 e8 03 00 00	 mov	 eax, 1000		; 000003e8H
  016f6	d9 45 98	 fld	 DWORD PTR $T534776[ebp]
  016f9	d9 e1		 fabs
  016fb	d9 5d 98	 fstp	 DWORD PTR tv5194[ebp]
  016fe	d9 45 98	 fld	 DWORD PTR tv5194[ebp]
  01701	89 4d 98	 mov	 DWORD PTR tv5188[ebp], ecx
  01704	db 45 98	 fild	 DWORD PTR tv5188[ebp]
  01707	85 c9		 test	 ecx, ecx
  01709	79 06		 jns	 SHORT $LN386@CheckOwner@2
  0170b	d8 05 00 00 00
	00		 fadd	 DWORD PTR __real@4f800000
$LN386@CheckOwner@2:
  01711	89 45 98	 mov	 DWORD PTR tv5184[ebp], eax
  01714	db 45 98	 fild	 DWORD PTR tv5184[ebp]
  01717	85 c0		 test	 eax, eax
  01719	79 06		 jns	 SHORT $LN387@CheckOwner@2
  0171b	d8 05 00 00 00
	00		 fadd	 DWORD PTR __real@4f800000
$LN387@CheckOwner@2:
  01721	de f9		 fdivp	 ST(1), ST(0)
  01723	d9 5d 98	 fstp	 DWORD PTR tv5180[ebp]
  01726	d9 45 98	 fld	 DWORD PTR tv5180[ebp]
  01729	d9 c9		 fxch	 ST(1)
  0172b	df f1		 fcomip	 ST(1)
  0172d	dd d8		 fstp	 ST(0)
  0172f	0f 86 b3 00 00
	00		 jbe	 $LN3@CheckOwner@2

; 705  : 		{
; 706  : 			if( m_fControlValue2 < 0.0f )

  01735	f3 0f 10 8b 40
	09 00 00	 movss	 xmm1, DWORD PTR [ebx+2368]
  0173d	0f 57 c0	 xorps	 xmm0, xmm0
  01740	0f 2f c1	 comiss	 xmm0, xmm1

; 707  : 			{
; 708  : 				vMove += m_fControlValue2 * m_vRollAxis;
; 709  : 				m_fControlValue2 = 0.0f;

  01743	77 09		 ja	 SHORT $LN398@CheckOwner@2

; 710  : 			}
; 711  : 			else if( m_fControlValue2 > 0.0f )

  01745	0f 2f c8	 comiss	 xmm1, xmm0
  01748	0f 86 9a 00 00
	00		 jbe	 $LN3@CheckOwner@2
$LN398@CheckOwner@2:

; 712  : 			{
; 713  : 				vMove += m_fControlValue2 * m_vRollAxis;

  0174e	f3 0f 10 9b c4
	08 00 00	 movss	 xmm3, DWORD PTR [ebx+2244]
  01756	f3 0f 10 a3 c8
	08 00 00	 movss	 xmm4, DWORD PTR [ebx+2248]
  0175e	0f 5a d1	 cvtps2pd xmm2, xmm1
  01761	0f 5a db	 cvtps2pd xmm3, xmm3
  01764	f2 0f 59 d3	 mulsd	 xmm2, xmm3
  01768	0f 5a e4	 cvtps2pd xmm4, xmm4
  0176b	66 0f 5a d2	 cvtpd2ps xmm2, xmm2
  0176f	f3 0f 5a d2	 cvtss2sd xmm2, xmm2
  01773	0f 5a d9	 cvtps2pd xmm3, xmm1
  01776	f2 0f 59 dc	 mulsd	 xmm3, xmm4
  0177a	f3 0f 10 a3 cc
	08 00 00	 movss	 xmm4, DWORD PTR [ebx+2252]
  01782	0f 5a c9	 cvtps2pd xmm1, xmm1
  01785	0f 5a e4	 cvtps2pd xmm4, xmm4
  01788	f2 0f 59 e1	 mulsd	 xmm4, xmm1
  0178c	0f 57 c9	 xorps	 xmm1, xmm1
  0178f	66 0f 5a cc	 cvtpd2ps xmm1, xmm4
  01793	f3 0f 10 65 f0	 movss	 xmm4, DWORD PTR _vMove$530997[ebp]
  01798	0f 5a e4	 cvtps2pd xmm4, xmm4
  0179b	f2 0f 58 d4	 addsd	 xmm2, xmm4
  0179f	66 0f 5a d2	 cvtpd2ps xmm2, xmm2
  017a3	f3 0f 11 55 f0	 movss	 DWORD PTR _vMove$530997[ebp], xmm2
  017a8	0f 57 d2	 xorps	 xmm2, xmm2
  017ab	66 0f 5a db	 cvtpd2ps xmm3, xmm3
  017af	f3 0f 5a d3	 cvtss2sd xmm2, xmm3
  017b3	f3 0f 10 5d f4	 movss	 xmm3, DWORD PTR _vMove$530997[ebp+4]
  017b8	0f 5a db	 cvtps2pd xmm3, xmm3
  017bb	f2 0f 58 d3	 addsd	 xmm2, xmm3
  017bf	66 0f 5a d2	 cvtpd2ps xmm2, xmm2
  017c3	f3 0f 11 55 f4	 movss	 DWORD PTR _vMove$530997[ebp+4], xmm2
  017c8	f3 0f 10 55 f8	 movss	 xmm2, DWORD PTR _vMove$530997[ebp+8]
  017cd	0f 5a c9	 cvtps2pd xmm1, xmm1
  017d0	0f 5a d2	 cvtps2pd xmm2, xmm2
  017d3	f2 0f 58 ca	 addsd	 xmm1, xmm2
  017d7	66 0f 5a c9	 cvtpd2ps xmm1, xmm1
  017db	f3 0f 11 4d f8	 movss	 DWORD PTR _vMove$530997[ebp+8], xmm1
$LN396@CheckOwner@2:

; 714  : 				m_fControlValue2 = 0.0f;

  017e0	f3 0f 11 83 40
	09 00 00	 movss	 DWORD PTR [ebx+2368], xmm0
$LN3@CheckOwner@2:

; 715  : 			}
; 716  : 		}
; 717  : 
; 718  : 		D3DXVec3Normalize( &vMove, &vMove );

  017e8	8d 45 f0	 lea	 eax, DWORD PTR _vMove$530997[ebp]
  017eb	50		 push	 eax
  017ec	50		 push	 eax
  017ed	e8 00 00 00 00	 call	 _D3DXVec3Normalize@8

; 719  : 		if( fLength <= m_fCurMoveDistance )

  017f2	f3 0f 10 83 dc
	08 00 00	 movss	 xmm0, DWORD PTR [ebx+2268]
  017fa	f3 0f 10 4d 88	 movss	 xmm1, DWORD PTR _fLength$530960[ebp]
  017ff	0f 57 d2	 xorps	 xmm2, xmm2
  01802	0f 5a d1	 cvtps2pd xmm2, xmm1
  01805	0f 5a d8	 cvtps2pd xmm3, xmm0
  01808	66 0f 2f da	 comisd	 xmm3, xmm2
  0180c	72 5f		 jb	 SHORT $LN2@CheckOwner@2

; 720  : 			vMove = vCurDir * fLength;

  0180e	f3 0f 10 45 d8	 movss	 xmm0, DWORD PTR _vCurDir$530961[ebp]
  01813	0f 5a c0	 cvtps2pd xmm0, xmm0
  01816	0f 5a d1	 cvtps2pd xmm2, xmm1
  01819	f2 0f 59 c2	 mulsd	 xmm0, xmm2
  0181d	66 0f 5a c0	 cvtpd2ps xmm0, xmm0
  01821	f3 0f 11 85 68
	ff ff ff	 movss	 DWORD PTR $T531023[ebp], xmm0
  01829	f3 0f 10 45 dc	 movss	 xmm0, DWORD PTR _vCurDir$530961[ebp+4]
  0182e	0f 5a c0	 cvtps2pd xmm0, xmm0
  01831	0f 5a d1	 cvtps2pd xmm2, xmm1
  01834	f2 0f 59 c2	 mulsd	 xmm0, xmm2
  01838	66 0f 5a c0	 cvtpd2ps xmm0, xmm0
  0183c	f3 0f 11 85 6c
	ff ff ff	 movss	 DWORD PTR $T531023[ebp+4], xmm0
  01844	f3 0f 10 45 e0	 movss	 xmm0, DWORD PTR _vCurDir$530961[ebp+8]
  01849	0f 5a c0	 cvtps2pd xmm0, xmm0
  0184c	0f 5a c9	 cvtps2pd xmm1, xmm1
  0184f	f2 0f 59 c1	 mulsd	 xmm0, xmm1
  01853	66 0f 5a c0	 cvtpd2ps xmm0, xmm0
  01857	f3 0f 11 85 70
	ff ff ff	 movss	 DWORD PTR $T531023[ebp+8], xmm0
  0185f	8d b5 68 ff ff
	ff		 lea	 esi, DWORD PTR $T531023[ebp]
  01865	8d 7d f0	 lea	 edi, DWORD PTR _vMove$530997[ebp]
  01868	a5		 movsd
  01869	a5		 movsd
  0186a	a5		 movsd

; 721  : 		else

  0186b	eb 48		 jmp	 SHORT $LN353@CheckOwner@2
$LN2@CheckOwner@2:

; 722  : 			vMove *= m_fCurMoveDistance;

  0186d	f3 0f 10 55 f0	 movss	 xmm2, DWORD PTR _vMove$530997[ebp]
  01872	0f 5a c8	 cvtps2pd xmm1, xmm0
  01875	0f 5a d2	 cvtps2pd xmm2, xmm2
$LN394@CheckOwner@2:
  01878	f2 0f 59 ca	 mulsd	 xmm1, xmm2
  0187c	66 0f 5a c9	 cvtpd2ps xmm1, xmm1
  01880	f3 0f 11 4d f0	 movss	 DWORD PTR _vMove$530997[ebp], xmm1
  01885	f3 0f 10 4d f4	 movss	 xmm1, DWORD PTR _vMove$530997[ebp+4]
  0188a	0f 5a c9	 cvtps2pd xmm1, xmm1
  0188d	0f 5a d0	 cvtps2pd xmm2, xmm0
  01890	f2 0f 59 ca	 mulsd	 xmm1, xmm2
  01894	66 0f 5a c9	 cvtpd2ps xmm1, xmm1
  01898	0f 5a c0	 cvtps2pd xmm0, xmm0
  0189b	f3 0f 11 4d f4	 movss	 DWORD PTR _vMove$530997[ebp+4], xmm1
  018a0	f3 0f 10 4d f8	 movss	 xmm1, DWORD PTR _vMove$530997[ebp+8]
  018a5	0f 5a c9	 cvtps2pd xmm1, xmm1
  018a8	f2 0f 59 c8	 mulsd	 xmm1, xmm0
  018ac	66 0f 5a c1	 cvtpd2ps xmm0, xmm1
  018b0	f3 0f 11 45 f8	 movss	 DWORD PTR _vMove$530997[ebp+8], xmm0
$LN353@CheckOwner@2:

; 723  : 
; 724  : 		GetParentSceneNode()->Translate( vMove );

  018b5	8b 4b 04	 mov	 ecx, DWORD PTR [ebx+4]
  018b8	8b 01		 mov	 eax, DWORD PTR [ecx]
  018ba	6a 01		 push	 1
  018bc	8d 55 f0	 lea	 edx, DWORD PTR _vMove$530997[ebp]
  018bf	52		 push	 edx
  018c0	ff 50 3c	 call	 DWORD PTR [eax+60]

; 725  : 	}
; 726  : 
; 727  : 	return false;

  018c3	32 c0		 xor	 al, al
$LN362@CheckOwner@2:
  018c5	5f		 pop	 edi
  018c6	5e		 pop	 esi
$LN47@CheckOwner@2:

; 728  : }

  018c7	8b 4d fc	 mov	 ecx, DWORD PTR __$ArrayPad$[ebp]
  018ca	33 cd		 xor	 ecx, ebp
  018cc	5b		 pop	 ebx
  018cd	e8 00 00 00 00	 call	 @__security_check_cookie@4
  018d2	c9		 leave
  018d3	c2 04 00	 ret	 4
?CheckOwnerControl2@ioControlReturnWeapon@@IAE_NM@Z ENDP ; ioControlReturnWeapon::CheckOwnerControl2
_TEXT	ENDS
PUBLIC	?CheckMaxRange@ioControlReturnWeapon@@IAE_NM@Z	; ioControlReturnWeapon::CheckMaxRange
; Function compile flags: /Ogsp
;	COMDAT ?CheckMaxRange@ioControlReturnWeapon@@IAE_NM@Z
_TEXT	SEGMENT
_fCurMoveDistance$531045 = -8				; size = 4
tv352 = -4						; size = 4
tv348 = -4						; size = 4
tv344 = -4						; size = 4
tv335 = -4						; size = 4
tv331 = -4						; size = 4
tv327 = -4						; size = 4
tv372 = 8						; size = 4
tv368 = 8						; size = 4
tv364 = 8						; size = 4
tv319 = 8						; size = 4
_fDotValue$531047 = 8					; size = 4
_fTimePerSec$ = 8					; size = 4
?CheckMaxRange@ioControlReturnWeapon@@IAE_NM@Z PROC	; ioControlReturnWeapon::CheckMaxRange, COMDAT
; _this$ = ecx

; 753  : {

  00000	55		 push	 ebp
  00001	8b ec		 mov	 ebp, esp
  00003	51		 push	 ecx
  00004	51		 push	 ecx
  00005	56		 push	 esi
  00006	8b f1		 mov	 esi, ecx

; 754  : 	DWORD dwCurTime = FRAMEGETTIME();

  00008	ff 15 00 00 00
	00		 call	 DWORD PTR __imp_?GetSingleton@ioFrameTimer@@SAAAV1@XZ
  0000e	8b c8		 mov	 ecx, eax
  00010	ff 15 00 00 00
	00		 call	 DWORD PTR __imp_?GetLoopSec@ioFrameTimer@@QBEKXZ

; 755  : 
; 756  : 	if( fTimePerSec == 0.0f )

  00016	f3 0f 10 45 08	 movss	 xmm0, DWORD PTR _fTimePerSec$[ebp]
  0001b	0f 2e 05 00 00
	00 00		 ucomiss xmm0, DWORD PTR __real@00000000
  00022	8b d0		 mov	 edx, eax
  00024	9f		 lahf
  00025	f6 c4 44	 test	 ah, 68			; 00000044H
  00028	7a 37		 jp	 SHORT $LN8@CheckMaxRa

; 757  : 	{
; 758  : 		fTimePerSec = FLOAT0001;

  0002a	b8 01 00 00 00	 mov	 eax, 1
  0002f	8b c8		 mov	 ecx, eax
  00031	b8 e8 03 00 00	 mov	 eax, 1000		; 000003e8H
  00036	89 4d 08	 mov	 DWORD PTR tv372[ebp], ecx
  00039	db 45 08	 fild	 DWORD PTR tv372[ebp]
  0003c	85 c9		 test	 ecx, ecx
  0003e	79 06		 jns	 SHORT $LN31@CheckMaxRa
  00040	d8 05 00 00 00
	00		 fadd	 DWORD PTR __real@4f800000
$LN31@CheckMaxRa:
  00046	89 45 08	 mov	 DWORD PTR tv368[ebp], eax
  00049	db 45 08	 fild	 DWORD PTR tv368[ebp]
  0004c	85 c0		 test	 eax, eax
  0004e	79 06		 jns	 SHORT $LN32@CheckMaxRa
  00050	d8 05 00 00 00
	00		 fadd	 DWORD PTR __real@4f800000
$LN32@CheckMaxRa:
  00056	de f9		 fdivp	 ST(1), ST(0)
  00058	d9 5d 08	 fstp	 DWORD PTR tv364[ebp]
  0005b	d9 45 08	 fld	 DWORD PTR tv364[ebp]
  0005e	d9 5d 08	 fstp	 DWORD PTR _fTimePerSec$[ebp]
$LN8@CheckMaxRa:

; 759  : 	}
; 760  : 
; 761  : 	if( m_ReturnState == TRS_NONE )

  00061	8b 86 94 08 00
	00		 mov	 eax, DWORD PTR [esi+2196]
  00067	85 c0		 test	 eax, eax
  00069	0f 85 4a 01 00
	00		 jne	 $LN7@CheckMaxRa

; 762  : 	{
; 763  : 		float fCurMoveDistance = GetMoveSpeed() * fTimePerSec;

  0006f	8b ce		 mov	 ecx, esi
  00071	e8 00 00 00 00	 call	 ?GetMoveSpeed@ioControlReturnWeapon@@QAEMXZ ; ioControlReturnWeapon::GetMoveSpeed
  00076	d8 4d 08	 fmul	 DWORD PTR _fTimePerSec$[ebp]

; 764  : 		float fMaxRange = GetAttribute()->m_fMoveRange;

  00079	8b 06		 mov	 eax, DWORD PTR [esi]
  0007b	8b ce		 mov	 ecx, esi
  0007d	d9 5d f8	 fstp	 DWORD PTR _fCurMoveDistance$531045[ebp]
  00080	ff 90 3c 01 00
	00		 call	 DWORD PTR [eax+316]

; 765  : 
; 766  : 		float fDotValue = D3DXVec3Dot( &m_vCurMoveDir, &m_vFirstMoveDir );

  00086	d9 86 b0 08 00
	00		 fld	 DWORD PTR [esi+2224]
  0008c	f3 0f 10 88 9c
	01 00 00	 movss	 xmm1, DWORD PTR [eax+412]
  00094	d8 8e bc 08 00
	00		 fmul	 DWORD PTR [esi+2236]
  0009a	d9 86 ac 08 00
	00		 fld	 DWORD PTR [esi+2220]
  000a0	d8 8e b8 08 00
	00		 fmul	 DWORD PTR [esi+2232]
  000a6	de c1		 faddp	 ST(1), ST(0)
  000a8	d9 86 b4 08 00
	00		 fld	 DWORD PTR [esi+2228]
  000ae	d8 8e c0 08 00
	00		 fmul	 DWORD PTR [esi+2240]
  000b4	de c1		 faddp	 ST(1), ST(0)
  000b6	d9 5d 08	 fstp	 DWORD PTR _fDotValue$531047[ebp]

; 767  : 		if( fDotValue < FLOAT0001 && fDotValue > -FLOAT0001 )

  000b9	b8 01 00 00 00	 mov	 eax, 1
  000be	8b c8		 mov	 ecx, eax
  000c0	b8 e8 03 00 00	 mov	 eax, 1000		; 000003e8H
  000c5	d9 45 08	 fld	 DWORD PTR _fDotValue$531047[ebp]
  000c8	89 4d fc	 mov	 DWORD PTR tv352[ebp], ecx
  000cb	db 45 fc	 fild	 DWORD PTR tv352[ebp]
  000ce	85 c9		 test	 ecx, ecx
  000d0	79 06		 jns	 SHORT $LN33@CheckMaxRa
  000d2	d8 05 00 00 00
	00		 fadd	 DWORD PTR __real@4f800000
$LN33@CheckMaxRa:
  000d8	89 45 fc	 mov	 DWORD PTR tv348[ebp], eax
  000db	db 45 fc	 fild	 DWORD PTR tv348[ebp]
  000de	85 c0		 test	 eax, eax
  000e0	79 06		 jns	 SHORT $LN34@CheckMaxRa
  000e2	d8 05 00 00 00
	00		 fadd	 DWORD PTR __real@4f800000
$LN34@CheckMaxRa:
  000e8	de f9		 fdivp	 ST(1), ST(0)
  000ea	d9 5d fc	 fstp	 DWORD PTR tv344[ebp]
  000ed	d9 45 fc	 fld	 DWORD PTR tv344[ebp]
  000f0	df f1		 fcomip	 ST(1)
  000f2	dd d8		 fstp	 ST(0)
  000f4	76 59		 jbe	 SHORT $LN6@CheckMaxRa
  000f6	b8 01 00 00 00	 mov	 eax, 1
  000fb	8b c8		 mov	 ecx, eax
  000fd	b8 e8 03 00 00	 mov	 eax, 1000		; 000003e8H
  00102	d9 45 08	 fld	 DWORD PTR _fDotValue$531047[ebp]
  00105	89 4d fc	 mov	 DWORD PTR tv335[ebp], ecx
  00108	db 45 fc	 fild	 DWORD PTR tv335[ebp]
  0010b	85 c9		 test	 ecx, ecx
  0010d	79 06		 jns	 SHORT $LN35@CheckMaxRa
  0010f	d8 05 00 00 00
	00		 fadd	 DWORD PTR __real@4f800000
$LN35@CheckMaxRa:
  00115	89 45 fc	 mov	 DWORD PTR tv331[ebp], eax
  00118	db 45 fc	 fild	 DWORD PTR tv331[ebp]
  0011b	85 c0		 test	 eax, eax
  0011d	79 06		 jns	 SHORT $LN36@CheckMaxRa
  0011f	d8 05 00 00 00
	00		 fadd	 DWORD PTR __real@4f800000
$LN36@CheckMaxRa:
  00125	de f9		 fdivp	 ST(1), ST(0)
  00127	d9 5d fc	 fstp	 DWORD PTR tv327[ebp]
  0012a	d9 45 fc	 fld	 DWORD PTR tv327[ebp]
  0012d	d9 e0		 fchs
  0012f	d9 c9		 fxch	 ST(1)
  00131	df f1		 fcomip	 ST(1)
  00133	dd d8		 fstp	 ST(0)
  00135	76 18		 jbe	 SHORT $LN6@CheckMaxRa

; 768  : 			fDotValue = FLOAT1;

  00137	b8 01 00 00 00	 mov	 eax, 1
  0013c	89 45 08	 mov	 DWORD PTR tv319[ebp], eax
  0013f	db 45 08	 fild	 DWORD PTR tv319[ebp]
  00142	85 c0		 test	 eax, eax
  00144	79 06		 jns	 SHORT $LN37@CheckMaxRa
  00146	d8 05 00 00 00
	00		 fadd	 DWORD PTR __real@4f800000
$LN37@CheckMaxRa:
  0014c	d9 5d 08	 fstp	 DWORD PTR _fDotValue$531047[ebp]
$LN6@CheckMaxRa:

; 769  : 
; 770  : 		float fCurRange = fCurMoveDistance * fDotValue;
; 771  : 		if( m_fCurMoveRange <= fMaxRange )

  0014f	f3 0f 10 86 d8
	08 00 00	 movss	 xmm0, DWORD PTR [esi+2264]
  00157	0f 57 d2	 xorps	 xmm2, xmm2
  0015a	0f 5a d0	 cvtps2pd xmm2, xmm0
  0015d	0f 5a c9	 cvtps2pd xmm1, xmm1
  00160	66 0f 2f ca	 comisd	 xmm1, xmm2
  00164	72 44		 jb	 SHORT $LN5@CheckMaxRa

; 772  : 		{
; 773  : 			m_fCurMoveRange += fabs(fCurRange);

  00166	f3 0f 10 4d 08	 movss	 xmm1, DWORD PTR _fDotValue$531047[ebp]
  0016b	f3 0f 10 55 f8	 movss	 xmm2, DWORD PTR _fCurMoveDistance$531045[ebp]
  00170	0f 5a c9	 cvtps2pd xmm1, xmm1
  00173	0f 5a d2	 cvtps2pd xmm2, xmm2
  00176	f2 0f 59 ca	 mulsd	 xmm1, xmm2
  0017a	66 0f 5a c9	 cvtpd2ps xmm1, xmm1
  0017e	f3 0f 5a c9	 cvtss2sd xmm1, xmm1
  00182	66 0f 54 0d 00
	00 00 00	 andpd	 xmm1, QWORD PTR __mask@@AbsDouble@
  0018a	f2 0f 5a c9	 cvtsd2ss xmm1, xmm1
  0018e	0f 5a c0	 cvtps2pd xmm0, xmm0
  00191	f3 0f 5a c9	 cvtss2sd xmm1, xmm1
  00195	f2 0f 58 c8	 addsd	 xmm1, xmm0
  00199	0f 57 c0	 xorps	 xmm0, xmm0
  0019c	f2 0f 5a c1	 cvtsd2ss xmm0, xmm1
  001a0	f3 0f 11 86 d8
	08 00 00	 movss	 DWORD PTR [esi+2264], xmm0

; 779  : 		}

  001a8	eb 24		 jmp	 SHORT $LN1@CheckMaxRa
$LN5@CheckMaxRa:

; 774  : 		}
; 775  : 		else
; 776  : 		{
; 777  : 			m_fCurMoveDistance = 0.0f;

  001aa	0f 57 c0	 xorps	 xmm0, xmm0
  001ad	f3 0f 11 86 dc
	08 00 00	 movss	 DWORD PTR [esi+2268], xmm0
$LN38@CheckMaxRa:

; 778  : 			return true;

  001b5	b0 01		 mov	 al, 1
  001b7	eb 17		 jmp	 SHORT $LN9@CheckMaxRa
$LN7@CheckMaxRa:

; 780  : 	}
; 781  : 	else if( m_ReturnState == TRS_RETRUN )

  001b9	83 f8 01	 cmp	 eax, 1
  001bc	75 10		 jne	 SHORT $LN1@CheckMaxRa

; 782  : 	{
; 783  : 		if( m_dwStartReturnTime+m_dwReturnDuration < dwCurTime )

  001be	8b 86 d4 08 00
	00		 mov	 eax, DWORD PTR [esi+2260]
  001c4	03 86 d0 08 00
	00		 add	 eax, DWORD PTR [esi+2256]
  001ca	3b c2		 cmp	 eax, edx

; 784  : 			return true;

  001cc	72 e7		 jb	 SHORT $LN38@CheckMaxRa
$LN1@CheckMaxRa:

; 785  : 	}
; 786  : 
; 787  : 	return false;

  001ce	32 c0		 xor	 al, al
$LN9@CheckMaxRa:
  001d0	5e		 pop	 esi

; 788  : }

  001d1	c9		 leave
  001d2	c2 04 00	 ret	 4
?CheckMaxRange@ioControlReturnWeapon@@IAE_NM@Z ENDP	; ioControlReturnWeapon::CheckMaxRange
_TEXT	ENDS
PUBLIC	__$ArrayPad$
PUBLIC	?SetDieState@ioControlReturnWeapon@@QAEXPAVioPlayStage@@_N@Z ; ioControlReturnWeapon::SetDieState
EXTRN	?CreateMapEffect@ioPlayStage@@QAEPAVioMapEffect@@ABVioHashString@@ABUD3DXVECTOR3@@1@Z:PROC ; ioPlayStage::CreateMapEffect
EXTRN	?GetScale@ioWeapon@@QBEABUD3DXVECTOR3@@XZ:PROC	; ioWeapon::GetScale
EXTRN	?GetWeaponEndEffect@ioWeapon@@QBEABVioHashString@@XZ:PROC ; ioWeapon::GetWeaponEndEffect
EXTRN	??1SP2Packet@@UAE@XZ:PROC			; SP2Packet::~SP2Packet
EXTRN	?SendToAllPlayingUser@P2PNetwork@@YAXAAVSP2Packet@@PAVioBaseChar@@@Z:PROC ; P2PNetwork::SendToAllPlayingUser
EXTRN	??6SP2Packet@@QAEAAV0@H@Z:PROC			; SP2Packet::operator<<
EXTRN	??6SP2Packet@@QAEAAV0@K@Z:PROC			; SP2Packet::operator<<
EXTRN	??6SP2Packet@@QAEAAV0@ABVioHashString@@@Z:PROC	; SP2Packet::operator<<
EXTRN	??0SP2Packet@@QAE@K@Z:PROC			; SP2Packet::SP2Packet
EXTRN	?IsNetworkMode@ioPlayStage@@QAE_NXZ:PROC	; ioPlayStage::IsNetworkMode
EXTRN	?IsNetworkPlaying@P2PNetwork@@YA_NXZ:PROC	; P2PNetwork::IsNetworkPlaying
EXTRN	__chkstk:PROC
;	COMDAT xdata$x
; File d:\lost saga for developer\youtube\tutorial\source\src\lsclient\ioweapon.h
xdata$x	SEGMENT
__unwindtable$?SetDieState@ioControlReturnWeapon@@QAEXPAVioPlayStage@@_N@Z DD 0ffffffffH
	DD	FLAT:__unwindfunclet$?SetDieState@ioControlReturnWeapon@@QAEXPAVioPlayStage@@_N@Z$0
__ehfuncinfo$?SetDieState@ioControlReturnWeapon@@QAEXPAVioPlayStage@@_N@Z DD 019930522H
	DD	01H
	DD	FLAT:__unwindtable$?SetDieState@ioControlReturnWeapon@@QAEXPAVioPlayStage@@_N@Z
	DD	2 DUP(00H)
	DD	2 DUP(00H)
	DD	00H
	DD	01H
; Function compile flags: /Ogsp
; File d:\lost saga for developer\youtube\tutorial\source\src\lsclient\iocontrolreturnweapon.cpp
xdata$x	ENDS
;	COMDAT ?SetDieState@ioControlReturnWeapon@@QAEXPAVioPlayStage@@_N@Z
_TEXT	SEGMENT
_kPacket$531103 = -32808				; size = 32792
__$ArrayPad$ = -16					; size = 4
__$EHRec$ = -12						; size = 12
_pStage$ = 8						; size = 4
_bSendNet$ = 12						; size = 1
?SetDieState@ioControlReturnWeapon@@QAEXPAVioPlayStage@@_N@Z PROC ; ioControlReturnWeapon::SetDieState, COMDAT
; _this$ = ecx

; 857  : {

  00000	55		 push	 ebp
  00001	8b ec		 mov	 ebp, esp
  00003	6a ff		 push	 -1
  00005	68 00 00 00 00	 push	 __ehhandler$?SetDieState@ioControlReturnWeapon@@QAEXPAVioPlayStage@@_N@Z
  0000a	64 a1 00 00 00
	00		 mov	 eax, DWORD PTR fs:0
  00010	50		 push	 eax
  00011	b8 1c 80 00 00	 mov	 eax, 32796		; 0000801cH
  00016	e8 00 00 00 00	 call	 __chkstk
  0001b	a1 00 00 00 00	 mov	 eax, DWORD PTR ___security_cookie
  00020	33 c5		 xor	 eax, ebp
  00022	89 45 f0	 mov	 DWORD PTR __$ArrayPad$[ebp], eax
  00025	56		 push	 esi
  00026	57		 push	 edi
  00027	50		 push	 eax
  00028	8d 45 f4	 lea	 eax, DWORD PTR __$EHRec$[ebp]
  0002b	64 a3 00 00 00
	00		 mov	 DWORD PTR fs:0, eax
  00031	8b 7d 08	 mov	 edi, DWORD PTR _pStage$[ebp]
  00034	8b f1		 mov	 esi, ecx

; 858  : 	if( !pStage ) return;

  00036	85 ff		 test	 edi, edi
  00038	0f 84 b3 00 00
	00		 je	 $LN5@SetDieStat

; 859  : 
; 860  : 	if( bSendNet )

  0003e	80 7d 0c 00	 cmp	 BYTE PTR _bSendNet$[ebp], 0
  00042	74 74		 je	 SHORT $LN2@SetDieStat

; 861  : 	{
; 862  : 		if( P2PNetwork::IsNetworkPlaying() && pStage->IsNetworkMode() )

  00044	e8 00 00 00 00	 call	 ?IsNetworkPlaying@P2PNetwork@@YA_NXZ ; P2PNetwork::IsNetworkPlaying
  00049	84 c0		 test	 al, al
  0004b	74 6b		 je	 SHORT $LN2@SetDieStat
  0004d	8b cf		 mov	 ecx, edi
  0004f	e8 00 00 00 00	 call	 ?IsNetworkMode@ioPlayStage@@QAE_NXZ ; ioPlayStage::IsNetworkMode
  00054	84 c0		 test	 al, al
  00056	74 60		 je	 SHORT $LN2@SetDieStat

; 863  : 		{
; 864  : 			SP2Packet kPacket( CUPK_WEAPON_SYNC );

  00058	68 16 42 00 00	 push	 16918			; 00004216H
  0005d	8d 8d d8 7f ff
	ff		 lea	 ecx, DWORD PTR _kPacket$531103[ebp]
  00063	e8 00 00 00 00	 call	 ??0SP2Packet@@QAE@K@Z	; SP2Packet::SP2Packet
  00068	83 65 fc 00	 and	 DWORD PTR __$EHRec$[ebp+8], 0

; 865  : 			kPacket << GetOwnerName();

  0006c	8d 46 10	 lea	 eax, DWORD PTR [esi+16]
  0006f	50		 push	 eax
  00070	8d 8d d8 7f ff
	ff		 lea	 ecx, DWORD PTR _kPacket$531103[ebp]
  00076	e8 00 00 00 00	 call	 ??6SP2Packet@@QAEAAV0@ABVioHashString@@@Z ; SP2Packet::operator<<

; 866  : 			kPacket << m_dwWeaponIdx;

  0007b	ff b6 b8 04 00
	00		 push	 DWORD PTR [esi+1208]
  00081	8d 8d d8 7f ff
	ff		 lea	 ecx, DWORD PTR _kPacket$531103[ebp]
  00087	e8 00 00 00 00	 call	 ??6SP2Packet@@QAEAAV0@K@Z ; SP2Packet::operator<<

; 867  : 			kPacket << CSS_DIE;

  0008c	6a 02		 push	 2
  0008e	8d 8d d8 7f ff
	ff		 lea	 ecx, DWORD PTR _kPacket$531103[ebp]
  00094	e8 00 00 00 00	 call	 ??6SP2Packet@@QAEAAV0@H@Z ; SP2Packet::operator<<

; 868  : 			P2PNetwork::SendToAllPlayingUser( kPacket );

  00099	8d 85 d8 7f ff
	ff		 lea	 eax, DWORD PTR _kPacket$531103[ebp]
  0009f	6a 00		 push	 0
  000a1	50		 push	 eax
  000a2	e8 00 00 00 00	 call	 ?SendToAllPlayingUser@P2PNetwork@@YAXAAVSP2Packet@@PAVioBaseChar@@@Z ; P2PNetwork::SendToAllPlayingUser

; 869  : 		}

  000a7	83 4d fc ff	 or	 DWORD PTR __$EHRec$[ebp+8], -1
  000ab	59		 pop	 ecx
  000ac	59		 pop	 ecx
  000ad	8d 8d d8 7f ff
	ff		 lea	 ecx, DWORD PTR _kPacket$531103[ebp]
  000b3	e8 00 00 00 00	 call	 ??1SP2Packet@@UAE@XZ	; SP2Packet::~SP2Packet
$LN2@SetDieStat:

; 870  : 	}
; 871  : 
; 872  : 	if( !GetWeaponEndEffect().IsEmpty() )

  000b8	8b ce		 mov	 ecx, esi
  000ba	e8 00 00 00 00	 call	 ?GetWeaponEndEffect@ioWeapon@@QBEABVioHashString@@XZ ; ioWeapon::GetWeaponEndEffect
  000bf	8b c8		 mov	 ecx, eax
  000c1	ff 15 00 00 00
	00		 call	 DWORD PTR __imp_?IsEmpty@ioHashString@@QBE_NXZ
  000c7	84 c0		 test	 al, al
  000c9	75 1f		 jne	 SHORT $LN1@SetDieStat

; 873  : 		pStage->CreateMapEffect( GetWeaponEndEffect(), GetPosition(), GetScale() );

  000cb	8b ce		 mov	 ecx, esi
  000cd	e8 00 00 00 00	 call	 ?GetScale@ioWeapon@@QBEABUD3DXVECTOR3@@XZ ; ioWeapon::GetScale
  000d2	50		 push	 eax
  000d3	8b 06		 mov	 eax, DWORD PTR [esi]
  000d5	8b ce		 mov	 ecx, esi
  000d7	ff 50 70	 call	 DWORD PTR [eax+112]
  000da	50		 push	 eax
  000db	8b ce		 mov	 ecx, esi
  000dd	e8 00 00 00 00	 call	 ?GetWeaponEndEffect@ioWeapon@@QBEABVioHashString@@XZ ; ioWeapon::GetWeaponEndEffect
  000e2	50		 push	 eax
  000e3	8b cf		 mov	 ecx, edi
  000e5	e8 00 00 00 00	 call	 ?CreateMapEffect@ioPlayStage@@QAEPAVioMapEffect@@ABVioHashString@@ABUD3DXVECTOR3@@1@Z ; ioPlayStage::CreateMapEffect
$LN1@SetDieStat:

; 874  : 
; 875  : 	SetWeaponDead();

  000ea	8b 06		 mov	 eax, DWORD PTR [esi]
  000ec	8b ce		 mov	 ecx, esi
  000ee	ff 50 4c	 call	 DWORD PTR [eax+76]
$LN5@SetDieStat:

; 876  : }

  000f1	8b 4d f4	 mov	 ecx, DWORD PTR __$EHRec$[ebp]
  000f4	64 89 0d 00 00
	00 00		 mov	 DWORD PTR fs:0, ecx
  000fb	59		 pop	 ecx
  000fc	5f		 pop	 edi
  000fd	5e		 pop	 esi
  000fe	8b 4d f0	 mov	 ecx, DWORD PTR __$ArrayPad$[ebp]
  00101	33 cd		 xor	 ecx, ebp
  00103	e8 00 00 00 00	 call	 @__security_check_cookie@4
  00108	c9		 leave
  00109	c2 08 00	 ret	 8
_TEXT	ENDS
;	COMDAT text$x
text$x	SEGMENT
__unwindfunclet$?SetDieState@ioControlReturnWeapon@@QAEXPAVioPlayStage@@_N@Z$0:
  00000	8d 8d d8 7f ff
	ff		 lea	 ecx, DWORD PTR _kPacket$531103[ebp]
  00006	e9 00 00 00 00	 jmp	 ??1SP2Packet@@UAE@XZ	; SP2Packet::~SP2Packet
__ehhandler$?SetDieState@ioControlReturnWeapon@@QAEXPAVioPlayStage@@_N@Z:
  0000b	8b 54 24 08	 mov	 edx, DWORD PTR [esp+8]
  0000f	8d 42 0c	 lea	 eax, DWORD PTR [edx+12]
  00012	8b 8a d8 7f ff
	ff		 mov	 ecx, DWORD PTR [edx-32808]
  00018	33 c8		 xor	 ecx, eax
  0001a	e8 00 00 00 00	 call	 @__security_check_cookie@4
  0001f	8b 4a fc	 mov	 ecx, DWORD PTR [edx-4]
  00022	33 c8		 xor	 ecx, eax
  00024	e8 00 00 00 00	 call	 @__security_check_cookie@4
  00029	b8 00 00 00 00	 mov	 eax, OFFSET __ehfuncinfo$?SetDieState@ioControlReturnWeapon@@QAEXPAVioPlayStage@@_N@Z
  0002e	e9 00 00 00 00	 jmp	 ___CxxFrameHandler3
text$x	ENDS
?SetDieState@ioControlReturnWeapon@@QAEXPAVioPlayStage@@_N@Z ENDP ; ioControlReturnWeapon::SetDieState
EXTRN	??5SP2Packet@@QAEAAV0@AAH@Z:PROC		; SP2Packet::operator>>
; Function compile flags: /Ogsp
;	COMDAT ?ApplyWeaponSync@ioControlReturnWeapon@@UAEXAAVSP2Packet@@PAVioPlayStage@@@Z
_TEXT	SEGMENT
_iSycType$ = 8						; size = 4
_rkPacket$ = 8						; size = 4
_pStage$ = 12						; size = 4
?ApplyWeaponSync@ioControlReturnWeapon@@UAEXAAVSP2Packet@@PAVioPlayStage@@@Z PROC ; ioControlReturnWeapon::ApplyWeaponSync, COMDAT
; _this$ = ecx

; 879  : {

  00000	55		 push	 ebp
  00001	8b ec		 mov	 ebp, esp
  00003	56		 push	 esi

; 880  : 	int iSycType;
; 881  : 	rkPacket >> iSycType;

  00004	8d 45 08	 lea	 eax, DWORD PTR _iSycType$[ebp]
  00007	8b f1		 mov	 esi, ecx
  00009	8b 4d 08	 mov	 ecx, DWORD PTR _rkPacket$[ebp]
  0000c	50		 push	 eax
  0000d	e8 00 00 00 00	 call	 ??5SP2Packet@@QAEAAV0@AAH@Z ; SP2Packet::operator>>

; 882  : 
; 883  : 	switch( iSycType )

  00012	8b 45 08	 mov	 eax, DWORD PTR _iSycType$[ebp]
  00015	48		 dec	 eax
  00016	74 10		 je	 SHORT $LN2@ApplyWeapo
  00018	48		 dec	 eax
  00019	75 17		 jne	 SHORT $LN3@ApplyWeapo

; 887  : 		break;
; 888  : 	case CSS_DIE:
; 889  : 		SetDieState( pStage, false );

  0001b	50		 push	 eax
  0001c	ff 75 0c	 push	 DWORD PTR _pStage$[ebp]
  0001f	8b ce		 mov	 ecx, esi
  00021	e8 00 00 00 00	 call	 ?SetDieState@ioControlReturnWeapon@@QAEXPAVioPlayStage@@_N@Z ; ioControlReturnWeapon::SetDieState

; 890  : 		break;

  00026	eb 0a		 jmp	 SHORT $LN3@ApplyWeapo
$LN2@ApplyWeapo:

; 884  : 	{
; 885  : 	case CSS_RETURN:
; 886  : 		SetReturnWay( pStage );

  00028	ff 75 0c	 push	 DWORD PTR _pStage$[ebp]
  0002b	8b ce		 mov	 ecx, esi
  0002d	e8 00 00 00 00	 call	 ?SetReturnWay@ioControlReturnWeapon@@QAEXPAVioPlayStage@@@Z ; ioControlReturnWeapon::SetReturnWay
$LN3@ApplyWeapo:
  00032	5e		 pop	 esi

; 891  : 	}
; 892  : }

  00033	5d		 pop	 ebp
  00034	c2 08 00	 ret	 8
?ApplyWeaponSync@ioControlReturnWeapon@@UAEXAAVSP2Packet@@PAVioPlayStage@@@Z ENDP ; ioControlReturnWeapon::ApplyWeaponSync
_TEXT	ENDS
EXTRN	__imp_?PlaySoundA@ioSoundManager@@QAEKABVioHashString@@PAVioSceneNode@@K@Z:PROC
EXTRN	__imp_?GetSingleton@ioSoundManager@@SAAAV1@XZ:PROC
; Function compile flags: /Ogsp
;	COMDAT ?PlayExplosionSound@ioControlReturnWeapon@@UAEXXZ
_TEXT	SEGMENT
?PlayExplosionSound@ioControlReturnWeapon@@UAEXXZ PROC	; ioControlReturnWeapon::PlayExplosionSound, COMDAT
; _this$ = ecx

; 896  : 	g_SoundMgr.PlaySound( GetAttribute()->m_ExplosionSound, GetParentSceneNode() );

  00000	8b 41 04	 mov	 eax, DWORD PTR [ecx+4]
  00003	6a 04		 push	 4
  00005	50		 push	 eax
  00006	8b 01		 mov	 eax, DWORD PTR [ecx]
  00008	ff 90 3c 01 00
	00		 call	 DWORD PTR [eax+316]
  0000e	05 58 01 00 00	 add	 eax, 344		; 00000158H
  00013	50		 push	 eax
  00014	ff 15 00 00 00
	00		 call	 DWORD PTR __imp_?GetSingleton@ioSoundManager@@SAAAV1@XZ
  0001a	8b c8		 mov	 ecx, eax
  0001c	ff 15 00 00 00
	00		 call	 DWORD PTR __imp_?PlaySoundA@ioSoundManager@@QAEKABVioHashString@@PAVioSceneNode@@K@Z

; 897  : }

  00022	c3		 ret	 0
?PlayExplosionSound@ioControlReturnWeapon@@UAEXXZ ENDP	; ioControlReturnWeapon::PlayExplosionSound
_TEXT	ENDS
PUBLIC	__$ArrayPad$
PUBLIC	??$LoadFloat_e@$0O@@ioINILoader@@QAEMAAY0O@$$CBDM@Z ; ioINILoader::LoadFloat_e<14>
EXTRN	__imp_?LoadFloat@ioINILoader@@QAEMPBDM@Z:PROC
; Function compile flags: /Ogsp
; File d:\lost saga for developer\youtube\tutorial\source\src\io3dengine\ioiniloader.h
;	COMDAT ??$LoadFloat_e@$0O@@ioINILoader@@QAEMAAY0O@$$CBDM@Z
_TEXT	SEGMENT
__k$ = -24						; size = 14
__$ArrayPad$ = -4					; size = 4
_k$ = 8							; size = 4
_f$ = 12						; size = 4
??$LoadFloat_e@$0O@@ioINILoader@@QAEMAAY0O@$$CBDM@Z PROC ; ioINILoader::LoadFloat_e<14>, COMDAT
; _this$ = ecx

; 135  : 	{

  00000	55		 push	 ebp
  00001	8b ec		 mov	 ebp, esp
  00003	83 ec 18	 sub	 esp, 24			; 00000018H
  00006	a1 00 00 00 00	 mov	 eax, DWORD PTR ___security_cookie
  0000b	33 c5		 xor	 eax, ebp
  0000d	89 45 fc	 mov	 DWORD PTR __$ArrayPad$[ebp], eax
  00010	8b 45 08	 mov	 eax, DWORD PTR _k$[ebp]

; 136  : 		_ENCSTR(k, _k);

  00013	8a 10		 mov	 dl, BYTE PTR [eax]
  00015	56		 push	 esi
  00016	8b f1		 mov	 esi, ecx
  00018	84 d2		 test	 dl, dl
  0001a	0f 84 64 01 00
	00		 je	 $LN96@LoadFloat_
  00020	80 f2 ed	 xor	 dl, -19			; ffffffedH
  00023	88 55 e8	 mov	 BYTE PTR __k$[ebp], dl
  00026	8a 50 01	 mov	 dl, BYTE PTR [eax+1]
  00029	84 d2		 test	 dl, dl
  0002b	0f 84 4d 01 00
	00		 je	 $LN95@LoadFloat_
  00031	80 f2 ec	 xor	 dl, -20			; ffffffecH
  00034	88 55 e9	 mov	 BYTE PTR __k$[ebp+1], dl
  00037	8a 50 02	 mov	 dl, BYTE PTR [eax+2]
  0003a	84 d2		 test	 dl, dl
  0003c	0f 84 36 01 00
	00		 je	 $LN94@LoadFloat_
  00042	b1 eb		 mov	 cl, -21			; ffffffebH
  00044	32 d1		 xor	 dl, cl
  00046	88 55 ea	 mov	 BYTE PTR __k$[ebp+2], dl
  00049	8a 50 03	 mov	 dl, BYTE PTR [eax+3]
  0004c	84 d2		 test	 dl, dl
  0004e	0f 84 1e 01 00
	00		 je	 $LN93@LoadFloat_
  00054	80 f2 ea	 xor	 dl, -22			; ffffffeaH
  00057	88 55 eb	 mov	 BYTE PTR __k$[ebp+3], dl
  0005a	8a 50 04	 mov	 dl, BYTE PTR [eax+4]
  0005d	84 d2		 test	 dl, dl
  0005f	0f 84 07 01 00
	00		 je	 $LN92@LoadFloat_
  00065	80 f2 ed	 xor	 dl, -19			; ffffffedH
  00068	88 55 ec	 mov	 BYTE PTR __k$[ebp+4], dl
  0006b	8a 50 05	 mov	 dl, BYTE PTR [eax+5]
  0006e	84 d2		 test	 dl, dl
  00070	0f 84 f0 00 00
	00		 je	 $LN91@LoadFloat_
  00076	80 f2 ec	 xor	 dl, -20			; ffffffecH
  00079	88 55 ed	 mov	 BYTE PTR __k$[ebp+5], dl
  0007c	8a 50 06	 mov	 dl, BYTE PTR [eax+6]
  0007f	84 d2		 test	 dl, dl
  00081	0f 84 da 00 00
	00		 je	 $LN90@LoadFloat_
  00087	32 d1		 xor	 dl, cl
  00089	88 55 ee	 mov	 BYTE PTR __k$[ebp+6], dl
  0008c	8a 50 07	 mov	 dl, BYTE PTR [eax+7]
  0008f	84 d2		 test	 dl, dl
  00091	0f 84 c4 00 00
	00		 je	 $LN89@LoadFloat_
  00097	80 f2 ea	 xor	 dl, -22			; ffffffeaH
  0009a	88 55 ef	 mov	 BYTE PTR __k$[ebp+7], dl
  0009d	8a 50 08	 mov	 dl, BYTE PTR [eax+8]
  000a0	84 d2		 test	 dl, dl
  000a2	0f 84 ad 00 00
	00		 je	 $LN88@LoadFloat_
  000a8	80 f2 ed	 xor	 dl, -19			; ffffffedH
  000ab	88 55 f0	 mov	 BYTE PTR __k$[ebp+8], dl
  000ae	8a 50 09	 mov	 dl, BYTE PTR [eax+9]
  000b1	84 d2		 test	 dl, dl
  000b3	0f 84 96 00 00
	00		 je	 $LN87@LoadFloat_
  000b9	80 f2 ec	 xor	 dl, -20			; ffffffecH
  000bc	88 55 f1	 mov	 BYTE PTR __k$[ebp+9], dl
  000bf	8a 50 0a	 mov	 dl, BYTE PTR [eax+10]
  000c2	84 d2		 test	 dl, dl
  000c4	0f 84 80 00 00
	00		 je	 $LN86@LoadFloat_
  000ca	32 d1		 xor	 dl, cl
  000cc	88 55 f2	 mov	 BYTE PTR __k$[ebp+10], dl
  000cf	8a 50 0b	 mov	 dl, BYTE PTR [eax+11]
  000d2	84 d2		 test	 dl, dl
  000d4	74 6e		 je	 SHORT $LN85@LoadFloat_
  000d6	80 f2 ea	 xor	 dl, -22			; ffffffeaH
  000d9	88 55 f3	 mov	 BYTE PTR __k$[ebp+11], dl
  000dc	8a 50 0c	 mov	 dl, BYTE PTR [eax+12]
  000df	84 d2		 test	 dl, dl
  000e1	74 5b		 je	 SHORT $LN84@LoadFloat_
  000e3	80 f2 ed	 xor	 dl, -19			; ffffffedH
  000e6	80 78 0d 00	 cmp	 BYTE PTR [eax+13], 0
  000ea	88 55 f4	 mov	 BYTE PTR __k$[ebp+12], dl
  000ed	0f 84 95 00 00
	00		 je	 $LN1@LoadFloat_
  000f3	8a 50 0e	 mov	 dl, BYTE PTR [eax+14]
  000f6	84 d2		 test	 dl, dl
  000f8	74 3f		 je	 SHORT $LN82@LoadFloat_
  000fa	32 d1		 xor	 dl, cl
  000fc	88 55 f6	 mov	 BYTE PTR __k$[ebp+14], dl
  000ff	8a 50 0f	 mov	 dl, BYTE PTR [eax+15]
  00102	84 d2		 test	 dl, dl
  00104	74 2d		 je	 SHORT $LN81@LoadFloat_
  00106	80 f2 ea	 xor	 dl, -22			; ffffffeaH
  00109	88 55 f7	 mov	 BYTE PTR __k$[ebp+15], dl
  0010c	8a 50 10	 mov	 dl, BYTE PTR [eax+16]
  0010f	84 d2		 test	 dl, dl
  00111	74 1a		 je	 SHORT $LN80@LoadFloat_
  00113	8a 40 11	 mov	 al, BYTE PTR [eax+17]
  00116	80 f2 ed	 xor	 dl, -19			; ffffffedH
  00119	88 55 f8	 mov	 BYTE PTR __k$[ebp+16], dl
  0011c	84 c0		 test	 al, al
  0011e	74 07		 je	 SHORT $LN79@LoadFloat_
  00120	34 ec		 xor	 al, -20			; ffffffecH
  00122	88 45 f9	 mov	 BYTE PTR __k$[ebp+17], al
  00125	eb 61		 jmp	 SHORT $LN1@LoadFloat_
$LN79@LoadFloat_:
  00127	c6 45 f9 ec	 mov	 BYTE PTR __k$[ebp+17], -20 ; ffffffecH
  0012b	eb 5b		 jmp	 SHORT $LN1@LoadFloat_
$LN80@LoadFloat_:
  0012d	c6 45 f8 ed	 mov	 BYTE PTR __k$[ebp+16], -19 ; ffffffedH
  00131	eb 55		 jmp	 SHORT $LN1@LoadFloat_
$LN81@LoadFloat_:
  00133	c6 45 f7 ea	 mov	 BYTE PTR __k$[ebp+15], -22 ; ffffffeaH
  00137	eb 4f		 jmp	 SHORT $LN1@LoadFloat_
$LN82@LoadFloat_:
  00139	88 4d f6	 mov	 BYTE PTR __k$[ebp+14], cl
  0013c	eb 4a		 jmp	 SHORT $LN1@LoadFloat_
$LN84@LoadFloat_:
  0013e	c6 45 f4 ed	 mov	 BYTE PTR __k$[ebp+12], -19 ; ffffffedH
  00142	eb 44		 jmp	 SHORT $LN1@LoadFloat_
$LN85@LoadFloat_:
  00144	c6 45 f3 ea	 mov	 BYTE PTR __k$[ebp+11], -22 ; ffffffeaH
  00148	eb 3e		 jmp	 SHORT $LN1@LoadFloat_
$LN86@LoadFloat_:
  0014a	88 4d f2	 mov	 BYTE PTR __k$[ebp+10], cl
  0014d	eb 39		 jmp	 SHORT $LN1@LoadFloat_
$LN87@LoadFloat_:
  0014f	c6 45 f1 ec	 mov	 BYTE PTR __k$[ebp+9], -20 ; ffffffecH
  00153	eb 33		 jmp	 SHORT $LN1@LoadFloat_
$LN88@LoadFloat_:
  00155	c6 45 f0 ed	 mov	 BYTE PTR __k$[ebp+8], -19 ; ffffffedH
  00159	eb 2d		 jmp	 SHORT $LN1@LoadFloat_
$LN89@LoadFloat_:
  0015b	c6 45 ef ea	 mov	 BYTE PTR __k$[ebp+7], -22 ; ffffffeaH
  0015f	eb 27		 jmp	 SHORT $LN1@LoadFloat_
$LN90@LoadFloat_:
  00161	88 4d ee	 mov	 BYTE PTR __k$[ebp+6], cl
  00164	eb 22		 jmp	 SHORT $LN1@LoadFloat_
$LN91@LoadFloat_:
  00166	c6 45 ed ec	 mov	 BYTE PTR __k$[ebp+5], -20 ; ffffffecH
  0016a	eb 1c		 jmp	 SHORT $LN1@LoadFloat_
$LN92@LoadFloat_:
  0016c	c6 45 ec ed	 mov	 BYTE PTR __k$[ebp+4], -19 ; ffffffedH
  00170	eb 16		 jmp	 SHORT $LN1@LoadFloat_
$LN93@LoadFloat_:
  00172	c6 45 eb ea	 mov	 BYTE PTR __k$[ebp+3], -22 ; ffffffeaH
  00176	eb 10		 jmp	 SHORT $LN1@LoadFloat_
$LN94@LoadFloat_:
  00178	c6 45 ea eb	 mov	 BYTE PTR __k$[ebp+2], -21 ; ffffffebH
  0017c	eb 0a		 jmp	 SHORT $LN1@LoadFloat_
$LN95@LoadFloat_:
  0017e	c6 45 e9 ec	 mov	 BYTE PTR __k$[ebp+1], -20 ; ffffffecH
  00182	eb 04		 jmp	 SHORT $LN1@LoadFloat_
$LN96@LoadFloat_:
  00184	c6 45 e8 ed	 mov	 BYTE PTR __k$[ebp], -19	; ffffffedH
$LN1@LoadFloat_:
  00188	6a 03		 push	 3
  0018a	8d 45 e8	 lea	 eax, DWORD PTR __k$[ebp]
  0018d	c6 45 f5 00	 mov	 BYTE PTR __k$[ebp+13], 0
  00191	5a		 pop	 edx
$LL104@LoadFloat_:
  00192	81 30 ed ec eb
	ea		 xor	 DWORD PTR [eax], -353637139 ; eaebecedH
  00198	83 c0 04	 add	 eax, 4
  0019b	4a		 dec	 edx
  0019c	75 f4		 jne	 SHORT $LL104@LoadFloat_

; 137  : 		return LoadFloat(_k, f);

  0019e	f3 0f 10 45 0c	 movss	 xmm0, DWORD PTR _f$[ebp]
  001a3	80 75 f4 ed	 xor	 BYTE PTR __k$[ebp+12], -19 ; ffffffedH
  001a7	51		 push	 ecx
  001a8	8d 45 e8	 lea	 eax, DWORD PTR __k$[ebp]
  001ab	f3 0f 11 04 24	 movss	 DWORD PTR [esp], xmm0
  001b0	50		 push	 eax
  001b1	8b ce		 mov	 ecx, esi
  001b3	ff 15 00 00 00
	00		 call	 DWORD PTR __imp_?LoadFloat@ioINILoader@@QAEMPBDM@Z

; 138  : 	}

  001b9	8b 4d fc	 mov	 ecx, DWORD PTR __$ArrayPad$[ebp]
  001bc	33 cd		 xor	 ecx, ebp
  001be	5e		 pop	 esi
  001bf	e8 00 00 00 00	 call	 @__security_check_cookie@4
  001c4	c9		 leave
  001c5	c2 08 00	 ret	 8
??$LoadFloat_e@$0O@@ioINILoader@@QAEMAAY0O@$$CBDM@Z ENDP ; ioINILoader::LoadFloat_e<14>
_TEXT	ENDS
PUBLIC	__$ArrayPad$
PUBLIC	??$LoadFloat_e@$0BF@@ioINILoader@@QAEMAAY0BF@$$CBDM@Z ; ioINILoader::LoadFloat_e<21>
; Function compile flags: /Ogsp
;	COMDAT ??$LoadFloat_e@$0BF@@ioINILoader@@QAEMAAY0BF@$$CBDM@Z
_TEXT	SEGMENT
__k$ = -32						; size = 21
__$ArrayPad$ = -4					; size = 4
_k$ = 8							; size = 4
_f$ = 12						; size = 4
??$LoadFloat_e@$0BF@@ioINILoader@@QAEMAAY0BF@$$CBDM@Z PROC ; ioINILoader::LoadFloat_e<21>, COMDAT
; _this$ = ecx

; 135  : 	{

  00000	55		 push	 ebp
  00001	8b ec		 mov	 ebp, esp
  00003	83 ec 20	 sub	 esp, 32			; 00000020H
  00006	a1 00 00 00 00	 mov	 eax, DWORD PTR ___security_cookie
  0000b	33 c5		 xor	 eax, ebp
  0000d	89 45 fc	 mov	 DWORD PTR __$ArrayPad$[ebp], eax
  00010	8b 45 08	 mov	 eax, DWORD PTR _k$[ebp]

; 136  : 		_ENCSTR(k, _k);

  00013	8a 10		 mov	 dl, BYTE PTR [eax]
  00015	53		 push	 ebx
  00016	56		 push	 esi
  00017	8b f1		 mov	 esi, ecx
  00019	84 d2		 test	 dl, dl
  0001b	0f 84 f7 01 00
	00		 je	 $LN96@LoadFloat_@2
  00021	80 f2 ed	 xor	 dl, -19			; ffffffedH
  00024	88 55 e0	 mov	 BYTE PTR __k$[ebp], dl
  00027	8a 50 01	 mov	 dl, BYTE PTR [eax+1]
  0002a	84 d2		 test	 dl, dl
  0002c	0f 84 e0 01 00
	00		 je	 $LN95@LoadFloat_@2
  00032	b1 ec		 mov	 cl, -20			; ffffffecH
  00034	32 d1		 xor	 dl, cl
  00036	88 55 e1	 mov	 BYTE PTR __k$[ebp+1], dl
  00039	8a 50 02	 mov	 dl, BYTE PTR [eax+2]
  0003c	84 d2		 test	 dl, dl
  0003e	0f 84 c8 01 00
	00		 je	 $LN94@LoadFloat_@2
  00044	b3 eb		 mov	 bl, -21			; ffffffebH
  00046	32 d3		 xor	 dl, bl
  00048	88 55 e2	 mov	 BYTE PTR __k$[ebp+2], dl
  0004b	8a 50 03	 mov	 dl, BYTE PTR [eax+3]
  0004e	84 d2		 test	 dl, dl
  00050	0f 84 b0 01 00
	00		 je	 $LN93@LoadFloat_@2
  00056	80 f2 ea	 xor	 dl, -22			; ffffffeaH
  00059	88 55 e3	 mov	 BYTE PTR __k$[ebp+3], dl
  0005c	8a 50 04	 mov	 dl, BYTE PTR [eax+4]
  0005f	84 d2		 test	 dl, dl
  00061	0f 84 99 01 00
	00		 je	 $LN92@LoadFloat_@2
  00067	80 f2 ed	 xor	 dl, -19			; ffffffedH
  0006a	88 55 e4	 mov	 BYTE PTR __k$[ebp+4], dl
  0006d	8a 50 05	 mov	 dl, BYTE PTR [eax+5]
  00070	84 d2		 test	 dl, dl
  00072	0f 84 83 01 00
	00		 je	 $LN91@LoadFloat_@2
  00078	32 d1		 xor	 dl, cl
  0007a	88 55 e5	 mov	 BYTE PTR __k$[ebp+5], dl
  0007d	8a 50 06	 mov	 dl, BYTE PTR [eax+6]
  00080	84 d2		 test	 dl, dl
  00082	0f 84 6e 01 00
	00		 je	 $LN90@LoadFloat_@2
  00088	32 d3		 xor	 dl, bl
  0008a	88 55 e6	 mov	 BYTE PTR __k$[ebp+6], dl
  0008d	8a 50 07	 mov	 dl, BYTE PTR [eax+7]
  00090	84 d2		 test	 dl, dl
  00092	0f 84 58 01 00
	00		 je	 $LN89@LoadFloat_@2
  00098	80 f2 ea	 xor	 dl, -22			; ffffffeaH
  0009b	88 55 e7	 mov	 BYTE PTR __k$[ebp+7], dl
  0009e	8a 50 08	 mov	 dl, BYTE PTR [eax+8]
  000a1	84 d2		 test	 dl, dl
  000a3	0f 84 41 01 00
	00		 je	 $LN88@LoadFloat_@2
  000a9	80 f2 ed	 xor	 dl, -19			; ffffffedH
  000ac	88 55 e8	 mov	 BYTE PTR __k$[ebp+8], dl
  000af	8a 50 09	 mov	 dl, BYTE PTR [eax+9]
  000b2	84 d2		 test	 dl, dl
  000b4	0f 84 2b 01 00
	00		 je	 $LN87@LoadFloat_@2
  000ba	32 d1		 xor	 dl, cl
  000bc	88 55 e9	 mov	 BYTE PTR __k$[ebp+9], dl
  000bf	8a 50 0a	 mov	 dl, BYTE PTR [eax+10]
  000c2	84 d2		 test	 dl, dl
  000c4	0f 84 16 01 00
	00		 je	 $LN86@LoadFloat_@2
  000ca	32 d3		 xor	 dl, bl
  000cc	88 55 ea	 mov	 BYTE PTR __k$[ebp+10], dl
  000cf	8a 50 0b	 mov	 dl, BYTE PTR [eax+11]
  000d2	84 d2		 test	 dl, dl
  000d4	0f 84 00 01 00
	00		 je	 $LN85@LoadFloat_@2
  000da	80 f2 ea	 xor	 dl, -22			; ffffffeaH
  000dd	88 55 eb	 mov	 BYTE PTR __k$[ebp+11], dl
  000e0	8a 50 0c	 mov	 dl, BYTE PTR [eax+12]
  000e3	84 d2		 test	 dl, dl
  000e5	0f 84 e9 00 00
	00		 je	 $LN84@LoadFloat_@2
  000eb	80 f2 ed	 xor	 dl, -19			; ffffffedH
  000ee	88 55 ec	 mov	 BYTE PTR __k$[ebp+12], dl
  000f1	8a 50 0d	 mov	 dl, BYTE PTR [eax+13]
  000f4	84 d2		 test	 dl, dl
  000f6	0f 84 d3 00 00
	00		 je	 $LN83@LoadFloat_@2
  000fc	32 d1		 xor	 dl, cl
  000fe	88 55 ed	 mov	 BYTE PTR __k$[ebp+13], dl
  00101	8a 50 0e	 mov	 dl, BYTE PTR [eax+14]
  00104	84 d2		 test	 dl, dl
  00106	0f 84 be 00 00
	00		 je	 $LN82@LoadFloat_@2
  0010c	32 d3		 xor	 dl, bl
  0010e	88 55 ee	 mov	 BYTE PTR __k$[ebp+14], dl
  00111	8a 50 0f	 mov	 dl, BYTE PTR [eax+15]
  00114	84 d2		 test	 dl, dl
  00116	0f 84 a8 00 00
	00		 je	 $LN81@LoadFloat_@2
  0011c	80 f2 ea	 xor	 dl, -22			; ffffffeaH
  0011f	88 55 ef	 mov	 BYTE PTR __k$[ebp+15], dl
  00122	8a 50 10	 mov	 dl, BYTE PTR [eax+16]
  00125	84 d2		 test	 dl, dl
  00127	0f 84 91 00 00
	00		 je	 $LN80@LoadFloat_@2
  0012d	80 f2 ed	 xor	 dl, -19			; ffffffedH
  00130	88 55 f0	 mov	 BYTE PTR __k$[ebp+16], dl
  00133	8a 50 11	 mov	 dl, BYTE PTR [eax+17]
  00136	84 d2		 test	 dl, dl
  00138	74 7f		 je	 SHORT $LN79@LoadFloat_@2
  0013a	32 d1		 xor	 dl, cl
  0013c	88 55 f1	 mov	 BYTE PTR __k$[ebp+17], dl
  0013f	8a 50 12	 mov	 dl, BYTE PTR [eax+18]
  00142	84 d2		 test	 dl, dl
  00144	74 6e		 je	 SHORT $LN78@LoadFloat_@2
  00146	32 d3		 xor	 dl, bl
  00148	88 55 f2	 mov	 BYTE PTR __k$[ebp+18], dl
  0014b	8a 50 13	 mov	 dl, BYTE PTR [eax+19]
  0014e	84 d2		 test	 dl, dl
  00150	74 5c		 je	 SHORT $LN77@LoadFloat_@2
  00152	80 f2 ea	 xor	 dl, -22			; ffffffeaH
  00155	80 78 14 00	 cmp	 BYTE PTR [eax+20], 0
  00159	88 55 f3	 mov	 BYTE PTR __k$[ebp+19], dl
  0015c	0f 84 ba 00 00
	00		 je	 $LN1@LoadFloat_@2
  00162	8a 50 15	 mov	 dl, BYTE PTR [eax+21]
  00165	84 d2		 test	 dl, dl
  00167	74 40		 je	 SHORT $LN75@LoadFloat_@2
  00169	32 d1		 xor	 dl, cl
  0016b	88 55 f5	 mov	 BYTE PTR __k$[ebp+21], dl
  0016e	8a 50 16	 mov	 dl, BYTE PTR [eax+22]
  00171	84 d2		 test	 dl, dl
  00173	74 2f		 je	 SHORT $LN74@LoadFloat_@2
  00175	32 d3		 xor	 dl, bl
  00177	88 55 f6	 mov	 BYTE PTR __k$[ebp+22], dl
  0017a	8a 50 17	 mov	 dl, BYTE PTR [eax+23]
  0017d	84 d2		 test	 dl, dl
  0017f	74 1d		 je	 SHORT $LN73@LoadFloat_@2
  00181	8a 40 18	 mov	 al, BYTE PTR [eax+24]
  00184	80 f2 ea	 xor	 dl, -22			; ffffffeaH
  00187	88 55 f7	 mov	 BYTE PTR __k$[ebp+23], dl
  0018a	84 c0		 test	 al, al
  0018c	74 0a		 je	 SHORT $LN72@LoadFloat_@2
  0018e	34 ed		 xor	 al, -19			; ffffffedH
  00190	88 45 f8	 mov	 BYTE PTR __k$[ebp+24], al
  00193	e9 84 00 00 00	 jmp	 $LN1@LoadFloat_@2
$LN72@LoadFloat_@2:
  00198	c6 45 f8 ed	 mov	 BYTE PTR __k$[ebp+24], -19 ; ffffffedH
  0019c	eb 7e		 jmp	 SHORT $LN1@LoadFloat_@2
$LN73@LoadFloat_@2:
  0019e	c6 45 f7 ea	 mov	 BYTE PTR __k$[ebp+23], -22 ; ffffffeaH
  001a2	eb 78		 jmp	 SHORT $LN1@LoadFloat_@2
$LN74@LoadFloat_@2:
  001a4	88 5d f6	 mov	 BYTE PTR __k$[ebp+22], bl
  001a7	eb 73		 jmp	 SHORT $LN1@LoadFloat_@2
$LN75@LoadFloat_@2:
  001a9	88 4d f5	 mov	 BYTE PTR __k$[ebp+21], cl
  001ac	eb 6e		 jmp	 SHORT $LN1@LoadFloat_@2
$LN77@LoadFloat_@2:
  001ae	c6 45 f3 ea	 mov	 BYTE PTR __k$[ebp+19], -22 ; ffffffeaH
  001b2	eb 68		 jmp	 SHORT $LN1@LoadFloat_@2
$LN78@LoadFloat_@2:
  001b4	88 5d f2	 mov	 BYTE PTR __k$[ebp+18], bl
  001b7	eb 63		 jmp	 SHORT $LN1@LoadFloat_@2
$LN79@LoadFloat_@2:
  001b9	88 4d f1	 mov	 BYTE PTR __k$[ebp+17], cl
  001bc	eb 5e		 jmp	 SHORT $LN1@LoadFloat_@2
$LN80@LoadFloat_@2:
  001be	c6 45 f0 ed	 mov	 BYTE PTR __k$[ebp+16], -19 ; ffffffedH
  001c2	eb 58		 jmp	 SHORT $LN1@LoadFloat_@2
$LN81@LoadFloat_@2:
  001c4	c6 45 ef ea	 mov	 BYTE PTR __k$[ebp+15], -22 ; ffffffeaH
  001c8	eb 52		 jmp	 SHORT $LN1@LoadFloat_@2
$LN82@LoadFloat_@2:
  001ca	88 5d ee	 mov	 BYTE PTR __k$[ebp+14], bl
  001cd	eb 4d		 jmp	 SHORT $LN1@LoadFloat_@2
$LN83@LoadFloat_@2:
  001cf	88 4d ed	 mov	 BYTE PTR __k$[ebp+13], cl
  001d2	eb 48		 jmp	 SHORT $LN1@LoadFloat_@2
$LN84@LoadFloat_@2:
  001d4	c6 45 ec ed	 mov	 BYTE PTR __k$[ebp+12], -19 ; ffffffedH
  001d8	eb 42		 jmp	 SHORT $LN1@LoadFloat_@2
$LN85@LoadFloat_@2:
  001da	c6 45 eb ea	 mov	 BYTE PTR __k$[ebp+11], -22 ; ffffffeaH
  001de	eb 3c		 jmp	 SHORT $LN1@LoadFloat_@2
$LN86@LoadFloat_@2:
  001e0	88 5d ea	 mov	 BYTE PTR __k$[ebp+10], bl
  001e3	eb 37		 jmp	 SHORT $LN1@LoadFloat_@2
$LN87@LoadFloat_@2:
  001e5	88 4d e9	 mov	 BYTE PTR __k$[ebp+9], cl
  001e8	eb 32		 jmp	 SHORT $LN1@LoadFloat_@2
$LN88@LoadFloat_@2:
  001ea	c6 45 e8 ed	 mov	 BYTE PTR __k$[ebp+8], -19 ; ffffffedH
  001ee	eb 2c		 jmp	 SHORT $LN1@LoadFloat_@2
$LN89@LoadFloat_@2:
  001f0	c6 45 e7 ea	 mov	 BYTE PTR __k$[ebp+7], -22 ; ffffffeaH
  001f4	eb 26		 jmp	 SHORT $LN1@LoadFloat_@2
$LN90@LoadFloat_@2:
  001f6	88 5d e6	 mov	 BYTE PTR __k$[ebp+6], bl
  001f9	eb 21		 jmp	 SHORT $LN1@LoadFloat_@2
$LN91@LoadFloat_@2:
  001fb	88 4d e5	 mov	 BYTE PTR __k$[ebp+5], cl
  001fe	eb 1c		 jmp	 SHORT $LN1@LoadFloat_@2
$LN92@LoadFloat_@2:
  00200	c6 45 e4 ed	 mov	 BYTE PTR __k$[ebp+4], -19 ; ffffffedH
  00204	eb 16		 jmp	 SHORT $LN1@LoadFloat_@2
$LN93@LoadFloat_@2:
  00206	c6 45 e3 ea	 mov	 BYTE PTR __k$[ebp+3], -22 ; ffffffeaH
  0020a	eb 10		 jmp	 SHORT $LN1@LoadFloat_@2
$LN94@LoadFloat_@2:
  0020c	c6 45 e2 eb	 mov	 BYTE PTR __k$[ebp+2], -21 ; ffffffebH
  00210	eb 0a		 jmp	 SHORT $LN1@LoadFloat_@2
$LN95@LoadFloat_@2:
  00212	c6 45 e1 ec	 mov	 BYTE PTR __k$[ebp+1], -20 ; ffffffecH
  00216	eb 04		 jmp	 SHORT $LN1@LoadFloat_@2
$LN96@LoadFloat_@2:
  00218	c6 45 e0 ed	 mov	 BYTE PTR __k$[ebp], -19	; ffffffedH
$LN1@LoadFloat_@2:
  0021c	6a 05		 push	 5
  0021e	8d 45 e0	 lea	 eax, DWORD PTR __k$[ebp]
  00221	c6 45 f4 00	 mov	 BYTE PTR __k$[ebp+20], 0
  00225	5a		 pop	 edx
$LL104@LoadFloat_@2:
  00226	81 30 ed ec eb
	ea		 xor	 DWORD PTR [eax], -353637139 ; eaebecedH
  0022c	83 c0 04	 add	 eax, 4
  0022f	4a		 dec	 edx
  00230	75 f4		 jne	 SHORT $LL104@LoadFloat_@2

; 137  : 		return LoadFloat(_k, f);

  00232	f3 0f 10 45 0c	 movss	 xmm0, DWORD PTR _f$[ebp]
  00237	51		 push	 ecx
  00238	8d 45 e0	 lea	 eax, DWORD PTR __k$[ebp]
  0023b	f3 0f 11 04 24	 movss	 DWORD PTR [esp], xmm0
  00240	50		 push	 eax
  00241	8b ce		 mov	 ecx, esi
  00243	ff 15 00 00 00
	00		 call	 DWORD PTR __imp_?LoadFloat@ioINILoader@@QAEMPBDM@Z

; 138  : 	}

  00249	8b 4d fc	 mov	 ecx, DWORD PTR __$ArrayPad$[ebp]
  0024c	5e		 pop	 esi
  0024d	33 cd		 xor	 ecx, ebp
  0024f	5b		 pop	 ebx
  00250	e8 00 00 00 00	 call	 @__security_check_cookie@4
  00255	c9		 leave
  00256	c2 08 00	 ret	 8
??$LoadFloat_e@$0BF@@ioINILoader@@QAEMAAY0BF@$$CBDM@Z ENDP ; ioINILoader::LoadFloat_e<21>
_TEXT	ENDS
PUBLIC	__$ArrayPad$
PUBLIC	??$LoadFloat_e@$0M@@ioINILoader@@QAEMAAY0M@$$CBDM@Z ; ioINILoader::LoadFloat_e<12>
; Function compile flags: /Ogsp
;	COMDAT ??$LoadFloat_e@$0M@@ioINILoader@@QAEMAAY0M@$$CBDM@Z
_TEXT	SEGMENT
__k$ = -20						; size = 12
__$ArrayPad$ = -4					; size = 4
_k$ = 8							; size = 4
_f$ = 12						; size = 4
??$LoadFloat_e@$0M@@ioINILoader@@QAEMAAY0M@$$CBDM@Z PROC ; ioINILoader::LoadFloat_e<12>, COMDAT
; _this$ = ecx

; 135  : 	{

  00000	55		 push	 ebp
  00001	8b ec		 mov	 ebp, esp
  00003	83 ec 14	 sub	 esp, 20			; 00000014H
  00006	a1 00 00 00 00	 mov	 eax, DWORD PTR ___security_cookie
  0000b	33 c5		 xor	 eax, ebp
  0000d	89 45 fc	 mov	 DWORD PTR __$ArrayPad$[ebp], eax
  00010	8b 45 08	 mov	 eax, DWORD PTR _k$[ebp]

; 136  : 		_ENCSTR(k, _k);

  00013	8a 10		 mov	 dl, BYTE PTR [eax]
  00015	56		 push	 esi
  00016	8b f1		 mov	 esi, ecx
  00018	84 d2		 test	 dl, dl
  0001a	0f 84 32 01 00
	00		 je	 $LN96@LoadFloat_@3
  00020	80 f2 ed	 xor	 dl, -19			; ffffffedH
  00023	88 55 ec	 mov	 BYTE PTR __k$[ebp], dl
  00026	8a 50 01	 mov	 dl, BYTE PTR [eax+1]
  00029	84 d2		 test	 dl, dl
  0002b	0f 84 1b 01 00
	00		 je	 $LN95@LoadFloat_@3
  00031	80 f2 ec	 xor	 dl, -20			; ffffffecH
  00034	88 55 ed	 mov	 BYTE PTR __k$[ebp+1], dl
  00037	8a 50 02	 mov	 dl, BYTE PTR [eax+2]
  0003a	84 d2		 test	 dl, dl
  0003c	0f 84 04 01 00
	00		 je	 $LN94@LoadFloat_@3
  00042	b1 eb		 mov	 cl, -21			; ffffffebH
  00044	32 d1		 xor	 dl, cl
  00046	88 55 ee	 mov	 BYTE PTR __k$[ebp+2], dl
  00049	8a 50 03	 mov	 dl, BYTE PTR [eax+3]
  0004c	84 d2		 test	 dl, dl
  0004e	0f 84 ec 00 00
	00		 je	 $LN93@LoadFloat_@3
  00054	80 f2 ea	 xor	 dl, -22			; ffffffeaH
  00057	88 55 ef	 mov	 BYTE PTR __k$[ebp+3], dl
  0005a	8a 50 04	 mov	 dl, BYTE PTR [eax+4]
  0005d	84 d2		 test	 dl, dl
  0005f	0f 84 d5 00 00
	00		 je	 $LN92@LoadFloat_@3
  00065	80 f2 ed	 xor	 dl, -19			; ffffffedH
  00068	88 55 f0	 mov	 BYTE PTR __k$[ebp+4], dl
  0006b	8a 50 05	 mov	 dl, BYTE PTR [eax+5]
  0006e	84 d2		 test	 dl, dl
  00070	0f 84 be 00 00
	00		 je	 $LN91@LoadFloat_@3
  00076	80 f2 ec	 xor	 dl, -20			; ffffffecH
  00079	88 55 f1	 mov	 BYTE PTR __k$[ebp+5], dl
  0007c	8a 50 06	 mov	 dl, BYTE PTR [eax+6]
  0007f	84 d2		 test	 dl, dl
  00081	0f 84 a8 00 00
	00		 je	 $LN90@LoadFloat_@3
  00087	32 d1		 xor	 dl, cl
  00089	88 55 f2	 mov	 BYTE PTR __k$[ebp+6], dl
  0008c	8a 50 07	 mov	 dl, BYTE PTR [eax+7]
  0008f	84 d2		 test	 dl, dl
  00091	0f 84 92 00 00
	00		 je	 $LN89@LoadFloat_@3
  00097	80 f2 ea	 xor	 dl, -22			; ffffffeaH
  0009a	88 55 f3	 mov	 BYTE PTR __k$[ebp+7], dl
  0009d	8a 50 08	 mov	 dl, BYTE PTR [eax+8]
  000a0	84 d2		 test	 dl, dl
  000a2	74 7f		 je	 SHORT $LN88@LoadFloat_@3
  000a4	80 f2 ed	 xor	 dl, -19			; ffffffedH
  000a7	88 55 f4	 mov	 BYTE PTR __k$[ebp+8], dl
  000aa	8a 50 09	 mov	 dl, BYTE PTR [eax+9]
  000ad	84 d2		 test	 dl, dl
  000af	74 6c		 je	 SHORT $LN87@LoadFloat_@3
  000b1	80 f2 ec	 xor	 dl, -20			; ffffffecH
  000b4	88 55 f5	 mov	 BYTE PTR __k$[ebp+9], dl
  000b7	8a 50 0a	 mov	 dl, BYTE PTR [eax+10]
  000ba	84 d2		 test	 dl, dl
  000bc	74 5a		 je	 SHORT $LN86@LoadFloat_@3
  000be	32 d1		 xor	 dl, cl
  000c0	80 78 0b 00	 cmp	 BYTE PTR [eax+11], 0
  000c4	88 55 f6	 mov	 BYTE PTR __k$[ebp+10], dl
  000c7	0f 84 89 00 00
	00		 je	 $LN1@LoadFloat_@3
  000cd	8a 50 0c	 mov	 dl, BYTE PTR [eax+12]
  000d0	84 d2		 test	 dl, dl
  000d2	74 3e		 je	 SHORT $LN84@LoadFloat_@3
  000d4	80 f2 ed	 xor	 dl, -19			; ffffffedH
  000d7	88 55 f8	 mov	 BYTE PTR __k$[ebp+12], dl
  000da	8a 50 0d	 mov	 dl, BYTE PTR [eax+13]
  000dd	84 d2		 test	 dl, dl
  000df	74 2b		 je	 SHORT $LN83@LoadFloat_@3
  000e1	80 f2 ec	 xor	 dl, -20			; ffffffecH
  000e4	88 55 f9	 mov	 BYTE PTR __k$[ebp+13], dl
  000e7	8a 50 0e	 mov	 dl, BYTE PTR [eax+14]
  000ea	84 d2		 test	 dl, dl
  000ec	74 19		 je	 SHORT $LN82@LoadFloat_@3
  000ee	8a 40 0f	 mov	 al, BYTE PTR [eax+15]
  000f1	32 d1		 xor	 dl, cl
  000f3	88 55 fa	 mov	 BYTE PTR __k$[ebp+14], dl
  000f6	84 c0		 test	 al, al
  000f8	74 07		 je	 SHORT $LN81@LoadFloat_@3
  000fa	34 ea		 xor	 al, -22			; ffffffeaH
  000fc	88 45 fb	 mov	 BYTE PTR __k$[ebp+15], al
  000ff	eb 55		 jmp	 SHORT $LN1@LoadFloat_@3
$LN81@LoadFloat_@3:
  00101	c6 45 fb ea	 mov	 BYTE PTR __k$[ebp+15], -22 ; ffffffeaH
  00105	eb 4f		 jmp	 SHORT $LN1@LoadFloat_@3
$LN82@LoadFloat_@3:
  00107	88 4d fa	 mov	 BYTE PTR __k$[ebp+14], cl
  0010a	eb 4a		 jmp	 SHORT $LN1@LoadFloat_@3
$LN83@LoadFloat_@3:
  0010c	c6 45 f9 ec	 mov	 BYTE PTR __k$[ebp+13], -20 ; ffffffecH
  00110	eb 44		 jmp	 SHORT $LN1@LoadFloat_@3
$LN84@LoadFloat_@3:
  00112	c6 45 f8 ed	 mov	 BYTE PTR __k$[ebp+12], -19 ; ffffffedH
  00116	eb 3e		 jmp	 SHORT $LN1@LoadFloat_@3
$LN86@LoadFloat_@3:
  00118	88 4d f6	 mov	 BYTE PTR __k$[ebp+10], cl
  0011b	eb 39		 jmp	 SHORT $LN1@LoadFloat_@3
$LN87@LoadFloat_@3:
  0011d	c6 45 f5 ec	 mov	 BYTE PTR __k$[ebp+9], -20 ; ffffffecH
  00121	eb 33		 jmp	 SHORT $LN1@LoadFloat_@3
$LN88@LoadFloat_@3:
  00123	c6 45 f4 ed	 mov	 BYTE PTR __k$[ebp+8], -19 ; ffffffedH
  00127	eb 2d		 jmp	 SHORT $LN1@LoadFloat_@3
$LN89@LoadFloat_@3:
  00129	c6 45 f3 ea	 mov	 BYTE PTR __k$[ebp+7], -22 ; ffffffeaH
  0012d	eb 27		 jmp	 SHORT $LN1@LoadFloat_@3
$LN90@LoadFloat_@3:
  0012f	88 4d f2	 mov	 BYTE PTR __k$[ebp+6], cl
  00132	eb 22		 jmp	 SHORT $LN1@LoadFloat_@3
$LN91@LoadFloat_@3:
  00134	c6 45 f1 ec	 mov	 BYTE PTR __k$[ebp+5], -20 ; ffffffecH
  00138	eb 1c		 jmp	 SHORT $LN1@LoadFloat_@3
$LN92@LoadFloat_@3:
  0013a	c6 45 f0 ed	 mov	 BYTE PTR __k$[ebp+4], -19 ; ffffffedH
  0013e	eb 16		 jmp	 SHORT $LN1@LoadFloat_@3
$LN93@LoadFloat_@3:
  00140	c6 45 ef ea	 mov	 BYTE PTR __k$[ebp+3], -22 ; ffffffeaH
  00144	eb 10		 jmp	 SHORT $LN1@LoadFloat_@3
$LN94@LoadFloat_@3:
  00146	c6 45 ee eb	 mov	 BYTE PTR __k$[ebp+2], -21 ; ffffffebH
  0014a	eb 0a		 jmp	 SHORT $LN1@LoadFloat_@3
$LN95@LoadFloat_@3:
  0014c	c6 45 ed ec	 mov	 BYTE PTR __k$[ebp+1], -20 ; ffffffecH
  00150	eb 04		 jmp	 SHORT $LN1@LoadFloat_@3
$LN96@LoadFloat_@3:
  00152	c6 45 ec ed	 mov	 BYTE PTR __k$[ebp], -19	; ffffffedH
$LN1@LoadFloat_@3:
  00156	6a 02		 push	 2
  00158	8d 45 ec	 lea	 eax, DWORD PTR __k$[ebp]
  0015b	c6 45 f7 00	 mov	 BYTE PTR __k$[ebp+11], 0
  0015f	5a		 pop	 edx
$LL104@LoadFloat_@3:
  00160	81 30 ed ec eb
	ea		 xor	 DWORD PTR [eax], -353637139 ; eaebecedH
  00166	83 c0 04	 add	 eax, 4
  00169	4a		 dec	 edx
  0016a	75 f4		 jne	 SHORT $LL104@LoadFloat_@3
  0016c	6a 08		 push	 8
  0016e	58		 pop	 eax
$LL101@LoadFloat_@3:
  0016f	8b c8		 mov	 ecx, eax
  00171	81 e1 03 00 00
	80		 and	 ecx, -2147483645	; 80000003H
  00177	79 05		 jns	 SHORT $LN111@LoadFloat_@3
  00179	49		 dec	 ecx
  0017a	83 c9 fc	 or	 ecx, -4			; fffffffcH
  0017d	41		 inc	 ecx
$LN111@LoadFloat_@3:
  0017e	b2 ed		 mov	 dl, -19			; ffffffedH
  00180	2a d1		 sub	 dl, cl
  00182	30 54 05 ec	 xor	 BYTE PTR __k$[ebp+eax], dl
  00186	40		 inc	 eax
  00187	83 f8 0b	 cmp	 eax, 11			; 0000000bH
  0018a	7c e3		 jl	 SHORT $LL101@LoadFloat_@3

; 137  : 		return LoadFloat(_k, f);

  0018c	f3 0f 10 45 0c	 movss	 xmm0, DWORD PTR _f$[ebp]
  00191	51		 push	 ecx
  00192	8d 45 ec	 lea	 eax, DWORD PTR __k$[ebp]
  00195	f3 0f 11 04 24	 movss	 DWORD PTR [esp], xmm0
  0019a	50		 push	 eax
  0019b	8b ce		 mov	 ecx, esi
  0019d	ff 15 00 00 00
	00		 call	 DWORD PTR __imp_?LoadFloat@ioINILoader@@QAEMPBDM@Z

; 138  : 	}

  001a3	8b 4d fc	 mov	 ecx, DWORD PTR __$ArrayPad$[ebp]
  001a6	33 cd		 xor	 ecx, ebp
  001a8	5e		 pop	 esi
  001a9	e8 00 00 00 00	 call	 @__security_check_cookie@4
  001ae	c9		 leave
  001af	c2 08 00	 ret	 8
??$LoadFloat_e@$0M@@ioINILoader@@QAEMAAY0M@$$CBDM@Z ENDP ; ioINILoader::LoadFloat_e<12>
_TEXT	ENDS
PUBLIC	__$ArrayPad$
PUBLIC	??$LoadInt_e@$0BA@@ioINILoader@@QAEHAAY0BA@$$CBDH@Z ; ioINILoader::LoadInt_e<16>
EXTRN	__imp_?LoadInt@ioINILoader@@QAEHPBDH@Z:PROC
; Function compile flags: /Ogsp
;	COMDAT ??$LoadInt_e@$0BA@@ioINILoader@@QAEHAAY0BA@$$CBDH@Z
_TEXT	SEGMENT
__k$ = -24						; size = 16
__$ArrayPad$ = -4					; size = 4
_k$ = 8							; size = 4
_i$ = 12						; size = 4
??$LoadInt_e@$0BA@@ioINILoader@@QAEHAAY0BA@$$CBDH@Z PROC ; ioINILoader::LoadInt_e<16>, COMDAT
; _this$ = ecx

; 118  : 	{

  00000	55		 push	 ebp
  00001	8b ec		 mov	 ebp, esp
  00003	83 ec 18	 sub	 esp, 24			; 00000018H
  00006	a1 00 00 00 00	 mov	 eax, DWORD PTR ___security_cookie
  0000b	33 c5		 xor	 eax, ebp
  0000d	89 45 fc	 mov	 DWORD PTR __$ArrayPad$[ebp], eax
  00010	8b 45 08	 mov	 eax, DWORD PTR _k$[ebp]

; 119  : 		_ENCSTR(k, _k);

  00013	8a 10		 mov	 dl, BYTE PTR [eax]
  00015	56		 push	 esi
  00016	8b f1		 mov	 esi, ecx
  00018	84 d2		 test	 dl, dl
  0001a	0f 84 8c 01 00
	00		 je	 $LN96@LoadInt_e
  00020	80 f2 ed	 xor	 dl, -19			; ffffffedH
  00023	88 55 e8	 mov	 BYTE PTR __k$[ebp], dl
  00026	8a 50 01	 mov	 dl, BYTE PTR [eax+1]
  00029	84 d2		 test	 dl, dl
  0002b	0f 84 75 01 00
	00		 je	 $LN95@LoadInt_e
  00031	80 f2 ec	 xor	 dl, -20			; ffffffecH
  00034	88 55 e9	 mov	 BYTE PTR __k$[ebp+1], dl
  00037	8a 50 02	 mov	 dl, BYTE PTR [eax+2]
  0003a	84 d2		 test	 dl, dl
  0003c	0f 84 5e 01 00
	00		 je	 $LN94@LoadInt_e
  00042	b1 eb		 mov	 cl, -21			; ffffffebH
  00044	32 d1		 xor	 dl, cl
  00046	88 55 ea	 mov	 BYTE PTR __k$[ebp+2], dl
  00049	8a 50 03	 mov	 dl, BYTE PTR [eax+3]
  0004c	84 d2		 test	 dl, dl
  0004e	0f 84 46 01 00
	00		 je	 $LN93@LoadInt_e
  00054	80 f2 ea	 xor	 dl, -22			; ffffffeaH
  00057	88 55 eb	 mov	 BYTE PTR __k$[ebp+3], dl
  0005a	8a 50 04	 mov	 dl, BYTE PTR [eax+4]
  0005d	84 d2		 test	 dl, dl
  0005f	0f 84 2f 01 00
	00		 je	 $LN92@LoadInt_e
  00065	80 f2 ed	 xor	 dl, -19			; ffffffedH
  00068	88 55 ec	 mov	 BYTE PTR __k$[ebp+4], dl
  0006b	8a 50 05	 mov	 dl, BYTE PTR [eax+5]
  0006e	84 d2		 test	 dl, dl
  00070	0f 84 18 01 00
	00		 je	 $LN91@LoadInt_e
  00076	80 f2 ec	 xor	 dl, -20			; ffffffecH
  00079	88 55 ed	 mov	 BYTE PTR __k$[ebp+5], dl
  0007c	8a 50 06	 mov	 dl, BYTE PTR [eax+6]
  0007f	84 d2		 test	 dl, dl
  00081	0f 84 02 01 00
	00		 je	 $LN90@LoadInt_e
  00087	32 d1		 xor	 dl, cl
  00089	88 55 ee	 mov	 BYTE PTR __k$[ebp+6], dl
  0008c	8a 50 07	 mov	 dl, BYTE PTR [eax+7]
  0008f	84 d2		 test	 dl, dl
  00091	0f 84 ec 00 00
	00		 je	 $LN89@LoadInt_e
  00097	80 f2 ea	 xor	 dl, -22			; ffffffeaH
  0009a	88 55 ef	 mov	 BYTE PTR __k$[ebp+7], dl
  0009d	8a 50 08	 mov	 dl, BYTE PTR [eax+8]
  000a0	84 d2		 test	 dl, dl
  000a2	0f 84 d5 00 00
	00		 je	 $LN88@LoadInt_e
  000a8	80 f2 ed	 xor	 dl, -19			; ffffffedH
  000ab	88 55 f0	 mov	 BYTE PTR __k$[ebp+8], dl
  000ae	8a 50 09	 mov	 dl, BYTE PTR [eax+9]
  000b1	84 d2		 test	 dl, dl
  000b3	0f 84 be 00 00
	00		 je	 $LN87@LoadInt_e
  000b9	80 f2 ec	 xor	 dl, -20			; ffffffecH
  000bc	88 55 f1	 mov	 BYTE PTR __k$[ebp+9], dl
  000bf	8a 50 0a	 mov	 dl, BYTE PTR [eax+10]
  000c2	84 d2		 test	 dl, dl
  000c4	0f 84 a8 00 00
	00		 je	 $LN86@LoadInt_e
  000ca	32 d1		 xor	 dl, cl
  000cc	88 55 f2	 mov	 BYTE PTR __k$[ebp+10], dl
  000cf	8a 50 0b	 mov	 dl, BYTE PTR [eax+11]
  000d2	84 d2		 test	 dl, dl
  000d4	0f 84 92 00 00
	00		 je	 $LN85@LoadInt_e
  000da	80 f2 ea	 xor	 dl, -22			; ffffffeaH
  000dd	88 55 f3	 mov	 BYTE PTR __k$[ebp+11], dl
  000e0	8a 50 0c	 mov	 dl, BYTE PTR [eax+12]
  000e3	84 d2		 test	 dl, dl
  000e5	74 7f		 je	 SHORT $LN84@LoadInt_e
  000e7	80 f2 ed	 xor	 dl, -19			; ffffffedH
  000ea	88 55 f4	 mov	 BYTE PTR __k$[ebp+12], dl
  000ed	8a 50 0d	 mov	 dl, BYTE PTR [eax+13]
  000f0	84 d2		 test	 dl, dl
  000f2	74 6c		 je	 SHORT $LN83@LoadInt_e
  000f4	80 f2 ec	 xor	 dl, -20			; ffffffecH
  000f7	88 55 f5	 mov	 BYTE PTR __k$[ebp+13], dl
  000fa	8a 50 0e	 mov	 dl, BYTE PTR [eax+14]
  000fd	84 d2		 test	 dl, dl
  000ff	74 5a		 je	 SHORT $LN82@LoadInt_e
  00101	32 d1		 xor	 dl, cl
  00103	80 78 0f 00	 cmp	 BYTE PTR [eax+15], 0
  00107	88 55 f6	 mov	 BYTE PTR __k$[ebp+14], dl
  0010a	0f 84 a0 00 00
	00		 je	 $LN1@LoadInt_e
  00110	8a 50 10	 mov	 dl, BYTE PTR [eax+16]
  00113	84 d2		 test	 dl, dl
  00115	74 3e		 je	 SHORT $LN80@LoadInt_e
  00117	80 f2 ed	 xor	 dl, -19			; ffffffedH
  0011a	88 55 f8	 mov	 BYTE PTR __k$[ebp+16], dl
  0011d	8a 50 11	 mov	 dl, BYTE PTR [eax+17]
  00120	84 d2		 test	 dl, dl
  00122	74 2b		 je	 SHORT $LN79@LoadInt_e
  00124	80 f2 ec	 xor	 dl, -20			; ffffffecH
  00127	88 55 f9	 mov	 BYTE PTR __k$[ebp+17], dl
  0012a	8a 50 12	 mov	 dl, BYTE PTR [eax+18]
  0012d	84 d2		 test	 dl, dl
  0012f	74 19		 je	 SHORT $LN78@LoadInt_e
  00131	8a 40 13	 mov	 al, BYTE PTR [eax+19]
  00134	32 d1		 xor	 dl, cl
  00136	88 55 fa	 mov	 BYTE PTR __k$[ebp+18], dl
  00139	84 c0		 test	 al, al
  0013b	74 07		 je	 SHORT $LN77@LoadInt_e
  0013d	34 ea		 xor	 al, -22			; ffffffeaH
  0013f	88 45 fb	 mov	 BYTE PTR __k$[ebp+19], al
  00142	eb 6c		 jmp	 SHORT $LN1@LoadInt_e
$LN77@LoadInt_e:
  00144	c6 45 fb ea	 mov	 BYTE PTR __k$[ebp+19], -22 ; ffffffeaH
  00148	eb 66		 jmp	 SHORT $LN1@LoadInt_e
$LN78@LoadInt_e:
  0014a	88 4d fa	 mov	 BYTE PTR __k$[ebp+18], cl
  0014d	eb 61		 jmp	 SHORT $LN1@LoadInt_e
$LN79@LoadInt_e:
  0014f	c6 45 f9 ec	 mov	 BYTE PTR __k$[ebp+17], -20 ; ffffffecH
  00153	eb 5b		 jmp	 SHORT $LN1@LoadInt_e
$LN80@LoadInt_e:
  00155	c6 45 f8 ed	 mov	 BYTE PTR __k$[ebp+16], -19 ; ffffffedH
  00159	eb 55		 jmp	 SHORT $LN1@LoadInt_e
$LN82@LoadInt_e:
  0015b	88 4d f6	 mov	 BYTE PTR __k$[ebp+14], cl
  0015e	eb 50		 jmp	 SHORT $LN1@LoadInt_e
$LN83@LoadInt_e:
  00160	c6 45 f5 ec	 mov	 BYTE PTR __k$[ebp+13], -20 ; ffffffecH
  00164	eb 4a		 jmp	 SHORT $LN1@LoadInt_e
$LN84@LoadInt_e:
  00166	c6 45 f4 ed	 mov	 BYTE PTR __k$[ebp+12], -19 ; ffffffedH
  0016a	eb 44		 jmp	 SHORT $LN1@LoadInt_e
$LN85@LoadInt_e:
  0016c	c6 45 f3 ea	 mov	 BYTE PTR __k$[ebp+11], -22 ; ffffffeaH
  00170	eb 3e		 jmp	 SHORT $LN1@LoadInt_e
$LN86@LoadInt_e:
  00172	88 4d f2	 mov	 BYTE PTR __k$[ebp+10], cl
  00175	eb 39		 jmp	 SHORT $LN1@LoadInt_e
$LN87@LoadInt_e:
  00177	c6 45 f1 ec	 mov	 BYTE PTR __k$[ebp+9], -20 ; ffffffecH
  0017b	eb 33		 jmp	 SHORT $LN1@LoadInt_e
$LN88@LoadInt_e:
  0017d	c6 45 f0 ed	 mov	 BYTE PTR __k$[ebp+8], -19 ; ffffffedH
  00181	eb 2d		 jmp	 SHORT $LN1@LoadInt_e
$LN89@LoadInt_e:
  00183	c6 45 ef ea	 mov	 BYTE PTR __k$[ebp+7], -22 ; ffffffeaH
  00187	eb 27		 jmp	 SHORT $LN1@LoadInt_e
$LN90@LoadInt_e:
  00189	88 4d ee	 mov	 BYTE PTR __k$[ebp+6], cl
  0018c	eb 22		 jmp	 SHORT $LN1@LoadInt_e
$LN91@LoadInt_e:
  0018e	c6 45 ed ec	 mov	 BYTE PTR __k$[ebp+5], -20 ; ffffffecH
  00192	eb 1c		 jmp	 SHORT $LN1@LoadInt_e
$LN92@LoadInt_e:
  00194	c6 45 ec ed	 mov	 BYTE PTR __k$[ebp+4], -19 ; ffffffedH
  00198	eb 16		 jmp	 SHORT $LN1@LoadInt_e
$LN93@LoadInt_e:
  0019a	c6 45 eb ea	 mov	 BYTE PTR __k$[ebp+3], -22 ; ffffffeaH
  0019e	eb 10		 jmp	 SHORT $LN1@LoadInt_e
$LN94@LoadInt_e:
  001a0	c6 45 ea eb	 mov	 BYTE PTR __k$[ebp+2], -21 ; ffffffebH
  001a4	eb 0a		 jmp	 SHORT $LN1@LoadInt_e
$LN95@LoadInt_e:
  001a6	c6 45 e9 ec	 mov	 BYTE PTR __k$[ebp+1], -20 ; ffffffecH
  001aa	eb 04		 jmp	 SHORT $LN1@LoadInt_e
$LN96@LoadInt_e:
  001ac	c6 45 e8 ed	 mov	 BYTE PTR __k$[ebp], -19	; ffffffedH
$LN1@LoadInt_e:
  001b0	6a 03		 push	 3
  001b2	8d 45 e8	 lea	 eax, DWORD PTR __k$[ebp]
  001b5	c6 45 f7 00	 mov	 BYTE PTR __k$[ebp+15], 0
  001b9	5a		 pop	 edx
$LL104@LoadInt_e:
  001ba	81 30 ed ec eb
	ea		 xor	 DWORD PTR [eax], -353637139 ; eaebecedH
  001c0	83 c0 04	 add	 eax, 4
  001c3	4a		 dec	 edx
  001c4	75 f4		 jne	 SHORT $LL104@LoadInt_e
  001c6	6a 0c		 push	 12			; 0000000cH
  001c8	58		 pop	 eax
$LL101@LoadInt_e:
  001c9	8b c8		 mov	 ecx, eax
  001cb	81 e1 03 00 00
	80		 and	 ecx, -2147483645	; 80000003H
  001d1	79 05		 jns	 SHORT $LN111@LoadInt_e
  001d3	49		 dec	 ecx
  001d4	83 c9 fc	 or	 ecx, -4			; fffffffcH
  001d7	41		 inc	 ecx
$LN111@LoadInt_e:
  001d8	b2 ed		 mov	 dl, -19			; ffffffedH
  001da	2a d1		 sub	 dl, cl
  001dc	30 54 05 e8	 xor	 BYTE PTR __k$[ebp+eax], dl
  001e0	40		 inc	 eax
  001e1	83 f8 0f	 cmp	 eax, 15			; 0000000fH
  001e4	7c e3		 jl	 SHORT $LL101@LoadInt_e

; 120  : 		return LoadInt(_k, i);

  001e6	ff 75 0c	 push	 DWORD PTR _i$[ebp]
  001e9	8d 45 e8	 lea	 eax, DWORD PTR __k$[ebp]
  001ec	50		 push	 eax
  001ed	8b ce		 mov	 ecx, esi
  001ef	ff 15 00 00 00
	00		 call	 DWORD PTR __imp_?LoadInt@ioINILoader@@QAEHPBDH@Z

; 121  : 	}

  001f5	8b 4d fc	 mov	 ecx, DWORD PTR __$ArrayPad$[ebp]
  001f8	33 cd		 xor	 ecx, ebp
  001fa	5e		 pop	 esi
  001fb	e8 00 00 00 00	 call	 @__security_check_cookie@4
  00200	c9		 leave
  00201	c2 08 00	 ret	 8
??$LoadInt_e@$0BA@@ioINILoader@@QAEHAAY0BA@$$CBDH@Z ENDP ; ioINILoader::LoadInt_e<16>
_TEXT	ENDS
PUBLIC	__$ArrayPad$
PUBLIC	??$LoadFloat_e@$0BB@@ioINILoader@@QAEMAAY0BB@$$CBDM@Z ; ioINILoader::LoadFloat_e<17>
; Function compile flags: /Ogsp
;	COMDAT ??$LoadFloat_e@$0BB@@ioINILoader@@QAEMAAY0BB@$$CBDM@Z
_TEXT	SEGMENT
__k$ = -28						; size = 17
__$ArrayPad$ = -4					; size = 4
_k$ = 8							; size = 4
_f$ = 12						; size = 4
??$LoadFloat_e@$0BB@@ioINILoader@@QAEMAAY0BB@$$CBDM@Z PROC ; ioINILoader::LoadFloat_e<17>, COMDAT
; _this$ = ecx

; 135  : 	{

  00000	55		 push	 ebp
  00001	8b ec		 mov	 ebp, esp
  00003	83 ec 1c	 sub	 esp, 28			; 0000001cH
  00006	a1 00 00 00 00	 mov	 eax, DWORD PTR ___security_cookie
  0000b	33 c5		 xor	 eax, ebp
  0000d	89 45 fc	 mov	 DWORD PTR __$ArrayPad$[ebp], eax
  00010	8b 45 08	 mov	 eax, DWORD PTR _k$[ebp]

; 136  : 		_ENCSTR(k, _k);

  00013	8a 10		 mov	 dl, BYTE PTR [eax]
  00015	56		 push	 esi
  00016	8b f1		 mov	 esi, ecx
  00018	84 d2		 test	 dl, dl
  0001a	0f 84 a7 01 00
	00		 je	 $LN96@LoadFloat_@4
  00020	80 f2 ed	 xor	 dl, -19			; ffffffedH
  00023	88 55 e4	 mov	 BYTE PTR __k$[ebp], dl
  00026	8a 50 01	 mov	 dl, BYTE PTR [eax+1]
  00029	84 d2		 test	 dl, dl
  0002b	0f 84 90 01 00
	00		 je	 $LN95@LoadFloat_@4
  00031	b1 ec		 mov	 cl, -20			; ffffffecH
  00033	32 d1		 xor	 dl, cl
  00035	88 55 e5	 mov	 BYTE PTR __k$[ebp+1], dl
  00038	8a 50 02	 mov	 dl, BYTE PTR [eax+2]
  0003b	84 d2		 test	 dl, dl
  0003d	0f 84 78 01 00
	00		 je	 $LN94@LoadFloat_@4
  00043	80 f2 eb	 xor	 dl, -21			; ffffffebH
  00046	88 55 e6	 mov	 BYTE PTR __k$[ebp+2], dl
  00049	8a 50 03	 mov	 dl, BYTE PTR [eax+3]
  0004c	84 d2		 test	 dl, dl
  0004e	0f 84 61 01 00
	00		 je	 $LN93@LoadFloat_@4
  00054	80 f2 ea	 xor	 dl, -22			; ffffffeaH
  00057	88 55 e7	 mov	 BYTE PTR __k$[ebp+3], dl
  0005a	8a 50 04	 mov	 dl, BYTE PTR [eax+4]
  0005d	84 d2		 test	 dl, dl
  0005f	0f 84 4a 01 00
	00		 je	 $LN92@LoadFloat_@4
  00065	80 f2 ed	 xor	 dl, -19			; ffffffedH
  00068	88 55 e8	 mov	 BYTE PTR __k$[ebp+4], dl
  0006b	8a 50 05	 mov	 dl, BYTE PTR [eax+5]
  0006e	84 d2		 test	 dl, dl
  00070	0f 84 34 01 00
	00		 je	 $LN91@LoadFloat_@4
  00076	32 d1		 xor	 dl, cl
  00078	88 55 e9	 mov	 BYTE PTR __k$[ebp+5], dl
  0007b	8a 50 06	 mov	 dl, BYTE PTR [eax+6]
  0007e	84 d2		 test	 dl, dl
  00080	0f 84 1e 01 00
	00		 je	 $LN90@LoadFloat_@4
  00086	80 f2 eb	 xor	 dl, -21			; ffffffebH
  00089	88 55 ea	 mov	 BYTE PTR __k$[ebp+6], dl
  0008c	8a 50 07	 mov	 dl, BYTE PTR [eax+7]
  0008f	84 d2		 test	 dl, dl
  00091	0f 84 07 01 00
	00		 je	 $LN89@LoadFloat_@4
  00097	80 f2 ea	 xor	 dl, -22			; ffffffeaH
  0009a	88 55 eb	 mov	 BYTE PTR __k$[ebp+7], dl
  0009d	8a 50 08	 mov	 dl, BYTE PTR [eax+8]
  000a0	84 d2		 test	 dl, dl
  000a2	0f 84 f0 00 00
	00		 je	 $LN88@LoadFloat_@4
  000a8	80 f2 ed	 xor	 dl, -19			; ffffffedH
  000ab	88 55 ec	 mov	 BYTE PTR __k$[ebp+8], dl
  000ae	8a 50 09	 mov	 dl, BYTE PTR [eax+9]
  000b1	84 d2		 test	 dl, dl
  000b3	0f 84 da 00 00
	00		 je	 $LN87@LoadFloat_@4
  000b9	32 d1		 xor	 dl, cl
  000bb	88 55 ed	 mov	 BYTE PTR __k$[ebp+9], dl
  000be	8a 50 0a	 mov	 dl, BYTE PTR [eax+10]
  000c1	84 d2		 test	 dl, dl
  000c3	0f 84 c4 00 00
	00		 je	 $LN86@LoadFloat_@4
  000c9	80 f2 eb	 xor	 dl, -21			; ffffffebH
  000cc	88 55 ee	 mov	 BYTE PTR __k$[ebp+10], dl
  000cf	8a 50 0b	 mov	 dl, BYTE PTR [eax+11]
  000d2	84 d2		 test	 dl, dl
  000d4	0f 84 ad 00 00
	00		 je	 $LN85@LoadFloat_@4
  000da	80 f2 ea	 xor	 dl, -22			; ffffffeaH
  000dd	88 55 ef	 mov	 BYTE PTR __k$[ebp+11], dl
  000e0	8a 50 0c	 mov	 dl, BYTE PTR [eax+12]
  000e3	84 d2		 test	 dl, dl
  000e5	0f 84 96 00 00
	00		 je	 $LN84@LoadFloat_@4
  000eb	80 f2 ed	 xor	 dl, -19			; ffffffedH
  000ee	88 55 f0	 mov	 BYTE PTR __k$[ebp+12], dl
  000f1	8a 50 0d	 mov	 dl, BYTE PTR [eax+13]
  000f4	84 d2		 test	 dl, dl
  000f6	0f 84 80 00 00
	00		 je	 $LN83@LoadFloat_@4
  000fc	32 d1		 xor	 dl, cl
  000fe	88 55 f1	 mov	 BYTE PTR __k$[ebp+13], dl
  00101	8a 50 0e	 mov	 dl, BYTE PTR [eax+14]
  00104	84 d2		 test	 dl, dl
  00106	74 6e		 je	 SHORT $LN82@LoadFloat_@4
  00108	80 f2 eb	 xor	 dl, -21			; ffffffebH
  0010b	88 55 f2	 mov	 BYTE PTR __k$[ebp+14], dl
  0010e	8a 50 0f	 mov	 dl, BYTE PTR [eax+15]
  00111	84 d2		 test	 dl, dl
  00113	74 5b		 je	 SHORT $LN81@LoadFloat_@4
  00115	80 f2 ea	 xor	 dl, -22			; ffffffeaH
  00118	80 78 10 00	 cmp	 BYTE PTR [eax+16], 0
  0011c	88 55 f3	 mov	 BYTE PTR __k$[ebp+15], dl
  0011f	0f 84 a6 00 00
	00		 je	 $LN1@LoadFloat_@4
  00125	8a 50 11	 mov	 dl, BYTE PTR [eax+17]
  00128	84 d2		 test	 dl, dl
  0012a	74 3f		 je	 SHORT $LN79@LoadFloat_@4
  0012c	32 d1		 xor	 dl, cl
  0012e	88 55 f5	 mov	 BYTE PTR __k$[ebp+17], dl
  00131	8a 50 12	 mov	 dl, BYTE PTR [eax+18]
  00134	84 d2		 test	 dl, dl
  00136	74 2d		 je	 SHORT $LN78@LoadFloat_@4
  00138	80 f2 eb	 xor	 dl, -21			; ffffffebH
  0013b	88 55 f6	 mov	 BYTE PTR __k$[ebp+18], dl
  0013e	8a 50 13	 mov	 dl, BYTE PTR [eax+19]
  00141	84 d2		 test	 dl, dl
  00143	74 1a		 je	 SHORT $LN77@LoadFloat_@4
  00145	8a 40 14	 mov	 al, BYTE PTR [eax+20]
  00148	80 f2 ea	 xor	 dl, -22			; ffffffeaH
  0014b	88 55 f7	 mov	 BYTE PTR __k$[ebp+19], dl
  0014e	84 c0		 test	 al, al
  00150	74 07		 je	 SHORT $LN76@LoadFloat_@4
  00152	34 ed		 xor	 al, -19			; ffffffedH
  00154	88 45 f8	 mov	 BYTE PTR __k$[ebp+20], al
  00157	eb 72		 jmp	 SHORT $LN1@LoadFloat_@4
$LN76@LoadFloat_@4:
  00159	c6 45 f8 ed	 mov	 BYTE PTR __k$[ebp+20], -19 ; ffffffedH
  0015d	eb 6c		 jmp	 SHORT $LN1@LoadFloat_@4
$LN77@LoadFloat_@4:
  0015f	c6 45 f7 ea	 mov	 BYTE PTR __k$[ebp+19], -22 ; ffffffeaH
  00163	eb 66		 jmp	 SHORT $LN1@LoadFloat_@4
$LN78@LoadFloat_@4:
  00165	c6 45 f6 eb	 mov	 BYTE PTR __k$[ebp+18], -21 ; ffffffebH
  00169	eb 60		 jmp	 SHORT $LN1@LoadFloat_@4
$LN79@LoadFloat_@4:
  0016b	88 4d f5	 mov	 BYTE PTR __k$[ebp+17], cl
  0016e	eb 5b		 jmp	 SHORT $LN1@LoadFloat_@4
$LN81@LoadFloat_@4:
  00170	c6 45 f3 ea	 mov	 BYTE PTR __k$[ebp+15], -22 ; ffffffeaH
  00174	eb 55		 jmp	 SHORT $LN1@LoadFloat_@4
$LN82@LoadFloat_@4:
  00176	c6 45 f2 eb	 mov	 BYTE PTR __k$[ebp+14], -21 ; ffffffebH
  0017a	eb 4f		 jmp	 SHORT $LN1@LoadFloat_@4
$LN83@LoadFloat_@4:
  0017c	88 4d f1	 mov	 BYTE PTR __k$[ebp+13], cl
  0017f	eb 4a		 jmp	 SHORT $LN1@LoadFloat_@4
$LN84@LoadFloat_@4:
  00181	c6 45 f0 ed	 mov	 BYTE PTR __k$[ebp+12], -19 ; ffffffedH
  00185	eb 44		 jmp	 SHORT $LN1@LoadFloat_@4
$LN85@LoadFloat_@4:
  00187	c6 45 ef ea	 mov	 BYTE PTR __k$[ebp+11], -22 ; ffffffeaH
  0018b	eb 3e		 jmp	 SHORT $LN1@LoadFloat_@4
$LN86@LoadFloat_@4:
  0018d	c6 45 ee eb	 mov	 BYTE PTR __k$[ebp+10], -21 ; ffffffebH
  00191	eb 38		 jmp	 SHORT $LN1@LoadFloat_@4
$LN87@LoadFloat_@4:
  00193	88 4d ed	 mov	 BYTE PTR __k$[ebp+9], cl
  00196	eb 33		 jmp	 SHORT $LN1@LoadFloat_@4
$LN88@LoadFloat_@4:
  00198	c6 45 ec ed	 mov	 BYTE PTR __k$[ebp+8], -19 ; ffffffedH
  0019c	eb 2d		 jmp	 SHORT $LN1@LoadFloat_@4
$LN89@LoadFloat_@4:
  0019e	c6 45 eb ea	 mov	 BYTE PTR __k$[ebp+7], -22 ; ffffffeaH
  001a2	eb 27		 jmp	 SHORT $LN1@LoadFloat_@4
$LN90@LoadFloat_@4:
  001a4	c6 45 ea eb	 mov	 BYTE PTR __k$[ebp+6], -21 ; ffffffebH
  001a8	eb 21		 jmp	 SHORT $LN1@LoadFloat_@4
$LN91@LoadFloat_@4:
  001aa	88 4d e9	 mov	 BYTE PTR __k$[ebp+5], cl
  001ad	eb 1c		 jmp	 SHORT $LN1@LoadFloat_@4
$LN92@LoadFloat_@4:
  001af	c6 45 e8 ed	 mov	 BYTE PTR __k$[ebp+4], -19 ; ffffffedH
  001b3	eb 16		 jmp	 SHORT $LN1@LoadFloat_@4
$LN93@LoadFloat_@4:
  001b5	c6 45 e7 ea	 mov	 BYTE PTR __k$[ebp+3], -22 ; ffffffeaH
  001b9	eb 10		 jmp	 SHORT $LN1@LoadFloat_@4
$LN94@LoadFloat_@4:
  001bb	c6 45 e6 eb	 mov	 BYTE PTR __k$[ebp+2], -21 ; ffffffebH
  001bf	eb 0a		 jmp	 SHORT $LN1@LoadFloat_@4
$LN95@LoadFloat_@4:
  001c1	c6 45 e5 ec	 mov	 BYTE PTR __k$[ebp+1], -20 ; ffffffecH
  001c5	eb 04		 jmp	 SHORT $LN1@LoadFloat_@4
$LN96@LoadFloat_@4:
  001c7	c6 45 e4 ed	 mov	 BYTE PTR __k$[ebp], -19	; ffffffedH
$LN1@LoadFloat_@4:
  001cb	6a 04		 push	 4
  001cd	8d 45 e4	 lea	 eax, DWORD PTR __k$[ebp]
  001d0	c6 45 f4 00	 mov	 BYTE PTR __k$[ebp+16], 0
  001d4	5a		 pop	 edx
$LL104@LoadFloat_@4:
  001d5	81 30 ed ec eb
	ea		 xor	 DWORD PTR [eax], -353637139 ; eaebecedH
  001db	83 c0 04	 add	 eax, 4
  001de	4a		 dec	 edx
  001df	75 f4		 jne	 SHORT $LL104@LoadFloat_@4

; 137  : 		return LoadFloat(_k, f);

  001e1	f3 0f 10 45 0c	 movss	 xmm0, DWORD PTR _f$[ebp]
  001e6	51		 push	 ecx
  001e7	8d 45 e4	 lea	 eax, DWORD PTR __k$[ebp]
  001ea	f3 0f 11 04 24	 movss	 DWORD PTR [esp], xmm0
  001ef	50		 push	 eax
  001f0	8b ce		 mov	 ecx, esi
  001f2	ff 15 00 00 00
	00		 call	 DWORD PTR __imp_?LoadFloat@ioINILoader@@QAEMPBDM@Z

; 138  : 	}

  001f8	8b 4d fc	 mov	 ecx, DWORD PTR __$ArrayPad$[ebp]
  001fb	33 cd		 xor	 ecx, ebp
  001fd	5e		 pop	 esi
  001fe	e8 00 00 00 00	 call	 @__security_check_cookie@4
  00203	c9		 leave
  00204	c2 08 00	 ret	 8
??$LoadFloat_e@$0BB@@ioINILoader@@QAEMAAY0BB@$$CBDM@Z ENDP ; ioINILoader::LoadFloat_e<17>
_TEXT	ENDS
PUBLIC	__$ArrayPad$
PUBLIC	??$LoadInt_e@$0BC@@ioINILoader@@QAEHAAY0BC@$$CBDH@Z ; ioINILoader::LoadInt_e<18>
; Function compile flags: /Ogsp
;	COMDAT ??$LoadInt_e@$0BC@@ioINILoader@@QAEHAAY0BC@$$CBDH@Z
_TEXT	SEGMENT
__k$ = -28						; size = 18
__$ArrayPad$ = -4					; size = 4
_k$ = 8							; size = 4
_i$ = 12						; size = 4
??$LoadInt_e@$0BC@@ioINILoader@@QAEHAAY0BC@$$CBDH@Z PROC ; ioINILoader::LoadInt_e<18>, COMDAT
; _this$ = ecx

; 118  : 	{

  00000	55		 push	 ebp
  00001	8b ec		 mov	 ebp, esp
  00003	83 ec 1c	 sub	 esp, 28			; 0000001cH
  00006	a1 00 00 00 00	 mov	 eax, DWORD PTR ___security_cookie
  0000b	33 c5		 xor	 eax, ebp
  0000d	89 45 fc	 mov	 DWORD PTR __$ArrayPad$[ebp], eax
  00010	8b 45 08	 mov	 eax, DWORD PTR _k$[ebp]

; 119  : 		_ENCSTR(k, _k);

  00013	8a 10		 mov	 dl, BYTE PTR [eax]
  00015	56		 push	 esi
  00016	8b f1		 mov	 esi, ecx
  00018	84 d2		 test	 dl, dl
  0001a	0f 84 be 01 00
	00		 je	 $LN96@LoadInt_e@2
  00020	80 f2 ed	 xor	 dl, -19			; ffffffedH
  00023	88 55 e4	 mov	 BYTE PTR __k$[ebp], dl
  00026	8a 50 01	 mov	 dl, BYTE PTR [eax+1]
  00029	84 d2		 test	 dl, dl
  0002b	0f 84 a7 01 00
	00		 je	 $LN95@LoadInt_e@2
  00031	80 f2 ec	 xor	 dl, -20			; ffffffecH
  00034	88 55 e5	 mov	 BYTE PTR __k$[ebp+1], dl
  00037	8a 50 02	 mov	 dl, BYTE PTR [eax+2]
  0003a	84 d2		 test	 dl, dl
  0003c	0f 84 90 01 00
	00		 je	 $LN94@LoadInt_e@2
  00042	b1 eb		 mov	 cl, -21			; ffffffebH
  00044	32 d1		 xor	 dl, cl
  00046	88 55 e6	 mov	 BYTE PTR __k$[ebp+2], dl
  00049	8a 50 03	 mov	 dl, BYTE PTR [eax+3]
  0004c	84 d2		 test	 dl, dl
  0004e	0f 84 78 01 00
	00		 je	 $LN93@LoadInt_e@2
  00054	80 f2 ea	 xor	 dl, -22			; ffffffeaH
  00057	88 55 e7	 mov	 BYTE PTR __k$[ebp+3], dl
  0005a	8a 50 04	 mov	 dl, BYTE PTR [eax+4]
  0005d	84 d2		 test	 dl, dl
  0005f	0f 84 61 01 00
	00		 je	 $LN92@LoadInt_e@2
  00065	80 f2 ed	 xor	 dl, -19			; ffffffedH
  00068	88 55 e8	 mov	 BYTE PTR __k$[ebp+4], dl
  0006b	8a 50 05	 mov	 dl, BYTE PTR [eax+5]
  0006e	84 d2		 test	 dl, dl
  00070	0f 84 4a 01 00
	00		 je	 $LN91@LoadInt_e@2
  00076	80 f2 ec	 xor	 dl, -20			; ffffffecH
  00079	88 55 e9	 mov	 BYTE PTR __k$[ebp+5], dl
  0007c	8a 50 06	 mov	 dl, BYTE PTR [eax+6]
  0007f	84 d2		 test	 dl, dl
  00081	0f 84 34 01 00
	00		 je	 $LN90@LoadInt_e@2
  00087	32 d1		 xor	 dl, cl
  00089	88 55 ea	 mov	 BYTE PTR __k$[ebp+6], dl
  0008c	8a 50 07	 mov	 dl, BYTE PTR [eax+7]
  0008f	84 d2		 test	 dl, dl
  00091	0f 84 1e 01 00
	00		 je	 $LN89@LoadInt_e@2
  00097	80 f2 ea	 xor	 dl, -22			; ffffffeaH
  0009a	88 55 eb	 mov	 BYTE PTR __k$[ebp+7], dl
  0009d	8a 50 08	 mov	 dl, BYTE PTR [eax+8]
  000a0	84 d2		 test	 dl, dl
  000a2	0f 84 07 01 00
	00		 je	 $LN88@LoadInt_e@2
  000a8	80 f2 ed	 xor	 dl, -19			; ffffffedH
  000ab	88 55 ec	 mov	 BYTE PTR __k$[ebp+8], dl
  000ae	8a 50 09	 mov	 dl, BYTE PTR [eax+9]
  000b1	84 d2		 test	 dl, dl
  000b3	0f 84 f0 00 00
	00		 je	 $LN87@LoadInt_e@2
  000b9	80 f2 ec	 xor	 dl, -20			; ffffffecH
  000bc	88 55 ed	 mov	 BYTE PTR __k$[ebp+9], dl
  000bf	8a 50 0a	 mov	 dl, BYTE PTR [eax+10]
  000c2	84 d2		 test	 dl, dl
  000c4	0f 84 da 00 00
	00		 je	 $LN86@LoadInt_e@2
  000ca	32 d1		 xor	 dl, cl
  000cc	88 55 ee	 mov	 BYTE PTR __k$[ebp+10], dl
  000cf	8a 50 0b	 mov	 dl, BYTE PTR [eax+11]
  000d2	84 d2		 test	 dl, dl
  000d4	0f 84 c4 00 00
	00		 je	 $LN85@LoadInt_e@2
  000da	80 f2 ea	 xor	 dl, -22			; ffffffeaH
  000dd	88 55 ef	 mov	 BYTE PTR __k$[ebp+11], dl
  000e0	8a 50 0c	 mov	 dl, BYTE PTR [eax+12]
  000e3	84 d2		 test	 dl, dl
  000e5	0f 84 ad 00 00
	00		 je	 $LN84@LoadInt_e@2
  000eb	80 f2 ed	 xor	 dl, -19			; ffffffedH
  000ee	88 55 f0	 mov	 BYTE PTR __k$[ebp+12], dl
  000f1	8a 50 0d	 mov	 dl, BYTE PTR [eax+13]
  000f4	84 d2		 test	 dl, dl
  000f6	0f 84 96 00 00
	00		 je	 $LN83@LoadInt_e@2
  000fc	80 f2 ec	 xor	 dl, -20			; ffffffecH
  000ff	88 55 f1	 mov	 BYTE PTR __k$[ebp+13], dl
  00102	8a 50 0e	 mov	 dl, BYTE PTR [eax+14]
  00105	84 d2		 test	 dl, dl
  00107	0f 84 80 00 00
	00		 je	 $LN82@LoadInt_e@2
  0010d	32 d1		 xor	 dl, cl
  0010f	88 55 f2	 mov	 BYTE PTR __k$[ebp+14], dl
  00112	8a 50 0f	 mov	 dl, BYTE PTR [eax+15]
  00115	84 d2		 test	 dl, dl
  00117	74 6e		 je	 SHORT $LN81@LoadInt_e@2
  00119	80 f2 ea	 xor	 dl, -22			; ffffffeaH
  0011c	88 55 f3	 mov	 BYTE PTR __k$[ebp+15], dl
  0011f	8a 50 10	 mov	 dl, BYTE PTR [eax+16]
  00122	84 d2		 test	 dl, dl
  00124	74 5b		 je	 SHORT $LN80@LoadInt_e@2
  00126	80 f2 ed	 xor	 dl, -19			; ffffffedH
  00129	80 78 11 00	 cmp	 BYTE PTR [eax+17], 0
  0012d	88 55 f4	 mov	 BYTE PTR __k$[ebp+16], dl
  00130	0f 84 ac 00 00
	00		 je	 $LN1@LoadInt_e@2
  00136	8a 50 12	 mov	 dl, BYTE PTR [eax+18]
  00139	84 d2		 test	 dl, dl
  0013b	74 3f		 je	 SHORT $LN78@LoadInt_e@2
  0013d	32 d1		 xor	 dl, cl
  0013f	88 55 f6	 mov	 BYTE PTR __k$[ebp+18], dl
  00142	8a 50 13	 mov	 dl, BYTE PTR [eax+19]
  00145	84 d2		 test	 dl, dl
  00147	74 2d		 je	 SHORT $LN77@LoadInt_e@2
  00149	80 f2 ea	 xor	 dl, -22			; ffffffeaH
  0014c	88 55 f7	 mov	 BYTE PTR __k$[ebp+19], dl
  0014f	8a 50 14	 mov	 dl, BYTE PTR [eax+20]
  00152	84 d2		 test	 dl, dl
  00154	74 1a		 je	 SHORT $LN76@LoadInt_e@2
  00156	8a 40 15	 mov	 al, BYTE PTR [eax+21]
  00159	80 f2 ed	 xor	 dl, -19			; ffffffedH
  0015c	88 55 f8	 mov	 BYTE PTR __k$[ebp+20], dl
  0015f	84 c0		 test	 al, al
  00161	74 07		 je	 SHORT $LN75@LoadInt_e@2
  00163	34 ec		 xor	 al, -20			; ffffffecH
  00165	88 45 f9	 mov	 BYTE PTR __k$[ebp+21], al
  00168	eb 78		 jmp	 SHORT $LN1@LoadInt_e@2
$LN75@LoadInt_e@2:
  0016a	c6 45 f9 ec	 mov	 BYTE PTR __k$[ebp+21], -20 ; ffffffecH
  0016e	eb 72		 jmp	 SHORT $LN1@LoadInt_e@2
$LN76@LoadInt_e@2:
  00170	c6 45 f8 ed	 mov	 BYTE PTR __k$[ebp+20], -19 ; ffffffedH
  00174	eb 6c		 jmp	 SHORT $LN1@LoadInt_e@2
$LN77@LoadInt_e@2:
  00176	c6 45 f7 ea	 mov	 BYTE PTR __k$[ebp+19], -22 ; ffffffeaH
  0017a	eb 66		 jmp	 SHORT $LN1@LoadInt_e@2
$LN78@LoadInt_e@2:
  0017c	88 4d f6	 mov	 BYTE PTR __k$[ebp+18], cl
  0017f	eb 61		 jmp	 SHORT $LN1@LoadInt_e@2
$LN80@LoadInt_e@2:
  00181	c6 45 f4 ed	 mov	 BYTE PTR __k$[ebp+16], -19 ; ffffffedH
  00185	eb 5b		 jmp	 SHORT $LN1@LoadInt_e@2
$LN81@LoadInt_e@2:
  00187	c6 45 f3 ea	 mov	 BYTE PTR __k$[ebp+15], -22 ; ffffffeaH
  0018b	eb 55		 jmp	 SHORT $LN1@LoadInt_e@2
$LN82@LoadInt_e@2:
  0018d	88 4d f2	 mov	 BYTE PTR __k$[ebp+14], cl
  00190	eb 50		 jmp	 SHORT $LN1@LoadInt_e@2
$LN83@LoadInt_e@2:
  00192	c6 45 f1 ec	 mov	 BYTE PTR __k$[ebp+13], -20 ; ffffffecH
  00196	eb 4a		 jmp	 SHORT $LN1@LoadInt_e@2
$LN84@LoadInt_e@2:
  00198	c6 45 f0 ed	 mov	 BYTE PTR __k$[ebp+12], -19 ; ffffffedH
  0019c	eb 44		 jmp	 SHORT $LN1@LoadInt_e@2
$LN85@LoadInt_e@2:
  0019e	c6 45 ef ea	 mov	 BYTE PTR __k$[ebp+11], -22 ; ffffffeaH
  001a2	eb 3e		 jmp	 SHORT $LN1@LoadInt_e@2
$LN86@LoadInt_e@2:
  001a4	88 4d ee	 mov	 BYTE PTR __k$[ebp+10], cl
  001a7	eb 39		 jmp	 SHORT $LN1@LoadInt_e@2
$LN87@LoadInt_e@2:
  001a9	c6 45 ed ec	 mov	 BYTE PTR __k$[ebp+9], -20 ; ffffffecH
  001ad	eb 33		 jmp	 SHORT $LN1@LoadInt_e@2
$LN88@LoadInt_e@2:
  001af	c6 45 ec ed	 mov	 BYTE PTR __k$[ebp+8], -19 ; ffffffedH
  001b3	eb 2d		 jmp	 SHORT $LN1@LoadInt_e@2
$LN89@LoadInt_e@2:
  001b5	c6 45 eb ea	 mov	 BYTE PTR __k$[ebp+7], -22 ; ffffffeaH
  001b9	eb 27		 jmp	 SHORT $LN1@LoadInt_e@2
$LN90@LoadInt_e@2:
  001bb	88 4d ea	 mov	 BYTE PTR __k$[ebp+6], cl
  001be	eb 22		 jmp	 SHORT $LN1@LoadInt_e@2
$LN91@LoadInt_e@2:
  001c0	c6 45 e9 ec	 mov	 BYTE PTR __k$[ebp+5], -20 ; ffffffecH
  001c4	eb 1c		 jmp	 SHORT $LN1@LoadInt_e@2
$LN92@LoadInt_e@2:
  001c6	c6 45 e8 ed	 mov	 BYTE PTR __k$[ebp+4], -19 ; ffffffedH
  001ca	eb 16		 jmp	 SHORT $LN1@LoadInt_e@2
$LN93@LoadInt_e@2:
  001cc	c6 45 e7 ea	 mov	 BYTE PTR __k$[ebp+3], -22 ; ffffffeaH
  001d0	eb 10		 jmp	 SHORT $LN1@LoadInt_e@2
$LN94@LoadInt_e@2:
  001d2	c6 45 e6 eb	 mov	 BYTE PTR __k$[ebp+2], -21 ; ffffffebH
  001d6	eb 0a		 jmp	 SHORT $LN1@LoadInt_e@2
$LN95@LoadInt_e@2:
  001d8	c6 45 e5 ec	 mov	 BYTE PTR __k$[ebp+1], -20 ; ffffffecH
  001dc	eb 04		 jmp	 SHORT $LN1@LoadInt_e@2
$LN96@LoadInt_e@2:
  001de	c6 45 e4 ed	 mov	 BYTE PTR __k$[ebp], -19	; ffffffedH
$LN1@LoadInt_e@2:
  001e2	6a 04		 push	 4
  001e4	8d 45 e4	 lea	 eax, DWORD PTR __k$[ebp]
  001e7	c6 45 f5 00	 mov	 BYTE PTR __k$[ebp+17], 0
  001eb	5a		 pop	 edx
$LL104@LoadInt_e@2:
  001ec	81 30 ed ec eb
	ea		 xor	 DWORD PTR [eax], -353637139 ; eaebecedH
  001f2	83 c0 04	 add	 eax, 4
  001f5	4a		 dec	 edx
  001f6	75 f4		 jne	 SHORT $LL104@LoadInt_e@2

; 120  : 		return LoadInt(_k, i);

  001f8	ff 75 0c	 push	 DWORD PTR _i$[ebp]
  001fb	80 75 f4 ed	 xor	 BYTE PTR __k$[ebp+16], -19 ; ffffffedH
  001ff	8d 45 e4	 lea	 eax, DWORD PTR __k$[ebp]
  00202	50		 push	 eax
  00203	8b ce		 mov	 ecx, esi
  00205	ff 15 00 00 00
	00		 call	 DWORD PTR __imp_?LoadInt@ioINILoader@@QAEHPBDH@Z

; 121  : 	}

  0020b	8b 4d fc	 mov	 ecx, DWORD PTR __$ArrayPad$[ebp]
  0020e	33 cd		 xor	 ecx, ebp
  00210	5e		 pop	 esi
  00211	e8 00 00 00 00	 call	 @__security_check_cookie@4
  00216	c9		 leave
  00217	c2 08 00	 ret	 8
??$LoadInt_e@$0BC@@ioINILoader@@QAEHAAY0BC@$$CBDH@Z ENDP ; ioINILoader::LoadInt_e<18>
_TEXT	ENDS
PUBLIC	__$ArrayPad$
PUBLIC	??$LoadBool_e@$0BB@@ioINILoader@@QAE_NAAY0BB@$$CBD_N@Z ; ioINILoader::LoadBool_e<17>
EXTRN	__imp_?LoadBool@ioINILoader@@QAE_NPBD_N@Z:PROC
; Function compile flags: /Ogsp
;	COMDAT ??$LoadBool_e@$0BB@@ioINILoader@@QAE_NAAY0BB@$$CBD_N@Z
_TEXT	SEGMENT
__k$ = -28						; size = 17
__$ArrayPad$ = -4					; size = 4
_k$ = 8							; size = 4
_b$ = 12						; size = 1
??$LoadBool_e@$0BB@@ioINILoader@@QAE_NAAY0BB@$$CBD_N@Z PROC ; ioINILoader::LoadBool_e<17>, COMDAT
; _this$ = ecx

; 101  : 	{

  00000	55		 push	 ebp
  00001	8b ec		 mov	 ebp, esp
  00003	83 ec 1c	 sub	 esp, 28			; 0000001cH
  00006	a1 00 00 00 00	 mov	 eax, DWORD PTR ___security_cookie
  0000b	33 c5		 xor	 eax, ebp
  0000d	89 45 fc	 mov	 DWORD PTR __$ArrayPad$[ebp], eax
  00010	8b 45 08	 mov	 eax, DWORD PTR _k$[ebp]

; 102  : 		_ENCSTR(k, _k);

  00013	8a 10		 mov	 dl, BYTE PTR [eax]
  00015	56		 push	 esi
  00016	8b f1		 mov	 esi, ecx
  00018	84 d2		 test	 dl, dl
  0001a	0f 84 a7 01 00
	00		 je	 $LN96@LoadBool_e
  00020	80 f2 ed	 xor	 dl, -19			; ffffffedH
  00023	88 55 e4	 mov	 BYTE PTR __k$[ebp], dl
  00026	8a 50 01	 mov	 dl, BYTE PTR [eax+1]
  00029	84 d2		 test	 dl, dl
  0002b	0f 84 90 01 00
	00		 je	 $LN95@LoadBool_e
  00031	b1 ec		 mov	 cl, -20			; ffffffecH
  00033	32 d1		 xor	 dl, cl
  00035	88 55 e5	 mov	 BYTE PTR __k$[ebp+1], dl
  00038	8a 50 02	 mov	 dl, BYTE PTR [eax+2]
  0003b	84 d2		 test	 dl, dl
  0003d	0f 84 78 01 00
	00		 je	 $LN94@LoadBool_e
  00043	80 f2 eb	 xor	 dl, -21			; ffffffebH
  00046	88 55 e6	 mov	 BYTE PTR __k$[ebp+2], dl
  00049	8a 50 03	 mov	 dl, BYTE PTR [eax+3]
  0004c	84 d2		 test	 dl, dl
  0004e	0f 84 61 01 00
	00		 je	 $LN93@LoadBool_e
  00054	80 f2 ea	 xor	 dl, -22			; ffffffeaH
  00057	88 55 e7	 mov	 BYTE PTR __k$[ebp+3], dl
  0005a	8a 50 04	 mov	 dl, BYTE PTR [eax+4]
  0005d	84 d2		 test	 dl, dl
  0005f	0f 84 4a 01 00
	00		 je	 $LN92@LoadBool_e
  00065	80 f2 ed	 xor	 dl, -19			; ffffffedH
  00068	88 55 e8	 mov	 BYTE PTR __k$[ebp+4], dl
  0006b	8a 50 05	 mov	 dl, BYTE PTR [eax+5]
  0006e	84 d2		 test	 dl, dl
  00070	0f 84 34 01 00
	00		 je	 $LN91@LoadBool_e
  00076	32 d1		 xor	 dl, cl
  00078	88 55 e9	 mov	 BYTE PTR __k$[ebp+5], dl
  0007b	8a 50 06	 mov	 dl, BYTE PTR [eax+6]
  0007e	84 d2		 test	 dl, dl
  00080	0f 84 1e 01 00
	00		 je	 $LN90@LoadBool_e
  00086	80 f2 eb	 xor	 dl, -21			; ffffffebH
  00089	88 55 ea	 mov	 BYTE PTR __k$[ebp+6], dl
  0008c	8a 50 07	 mov	 dl, BYTE PTR [eax+7]
  0008f	84 d2		 test	 dl, dl
  00091	0f 84 07 01 00
	00		 je	 $LN89@LoadBool_e
  00097	80 f2 ea	 xor	 dl, -22			; ffffffeaH
  0009a	88 55 eb	 mov	 BYTE PTR __k$[ebp+7], dl
  0009d	8a 50 08	 mov	 dl, BYTE PTR [eax+8]
  000a0	84 d2		 test	 dl, dl
  000a2	0f 84 f0 00 00
	00		 je	 $LN88@LoadBool_e
  000a8	80 f2 ed	 xor	 dl, -19			; ffffffedH
  000ab	88 55 ec	 mov	 BYTE PTR __k$[ebp+8], dl
  000ae	8a 50 09	 mov	 dl, BYTE PTR [eax+9]
  000b1	84 d2		 test	 dl, dl
  000b3	0f 84 da 00 00
	00		 je	 $LN87@LoadBool_e
  000b9	32 d1		 xor	 dl, cl
  000bb	88 55 ed	 mov	 BYTE PTR __k$[ebp+9], dl
  000be	8a 50 0a	 mov	 dl, BYTE PTR [eax+10]
  000c1	84 d2		 test	 dl, dl
  000c3	0f 84 c4 00 00
	00		 je	 $LN86@LoadBool_e
  000c9	80 f2 eb	 xor	 dl, -21			; ffffffebH
  000cc	88 55 ee	 mov	 BYTE PTR __k$[ebp+10], dl
  000cf	8a 50 0b	 mov	 dl, BYTE PTR [eax+11]
  000d2	84 d2		 test	 dl, dl
  000d4	0f 84 ad 00 00
	00		 je	 $LN85@LoadBool_e
  000da	80 f2 ea	 xor	 dl, -22			; ffffffeaH
  000dd	88 55 ef	 mov	 BYTE PTR __k$[ebp+11], dl
  000e0	8a 50 0c	 mov	 dl, BYTE PTR [eax+12]
  000e3	84 d2		 test	 dl, dl
  000e5	0f 84 96 00 00
	00		 je	 $LN84@LoadBool_e
  000eb	80 f2 ed	 xor	 dl, -19			; ffffffedH
  000ee	88 55 f0	 mov	 BYTE PTR __k$[ebp+12], dl
  000f1	8a 50 0d	 mov	 dl, BYTE PTR [eax+13]
  000f4	84 d2		 test	 dl, dl
  000f6	0f 84 80 00 00
	00		 je	 $LN83@LoadBool_e
  000fc	32 d1		 xor	 dl, cl
  000fe	88 55 f1	 mov	 BYTE PTR __k$[ebp+13], dl
  00101	8a 50 0e	 mov	 dl, BYTE PTR [eax+14]
  00104	84 d2		 test	 dl, dl
  00106	74 6e		 je	 SHORT $LN82@LoadBool_e
  00108	80 f2 eb	 xor	 dl, -21			; ffffffebH
  0010b	88 55 f2	 mov	 BYTE PTR __k$[ebp+14], dl
  0010e	8a 50 0f	 mov	 dl, BYTE PTR [eax+15]
  00111	84 d2		 test	 dl, dl
  00113	74 5b		 je	 SHORT $LN81@LoadBool_e
  00115	80 f2 ea	 xor	 dl, -22			; ffffffeaH
  00118	80 78 10 00	 cmp	 BYTE PTR [eax+16], 0
  0011c	88 55 f3	 mov	 BYTE PTR __k$[ebp+15], dl
  0011f	0f 84 a6 00 00
	00		 je	 $LN1@LoadBool_e
  00125	8a 50 11	 mov	 dl, BYTE PTR [eax+17]
  00128	84 d2		 test	 dl, dl
  0012a	74 3f		 je	 SHORT $LN79@LoadBool_e
  0012c	32 d1		 xor	 dl, cl
  0012e	88 55 f5	 mov	 BYTE PTR __k$[ebp+17], dl
  00131	8a 50 12	 mov	 dl, BYTE PTR [eax+18]
  00134	84 d2		 test	 dl, dl
  00136	74 2d		 je	 SHORT $LN78@LoadBool_e
  00138	80 f2 eb	 xor	 dl, -21			; ffffffebH
  0013b	88 55 f6	 mov	 BYTE PTR __k$[ebp+18], dl
  0013e	8a 50 13	 mov	 dl, BYTE PTR [eax+19]
  00141	84 d2		 test	 dl, dl
  00143	74 1a		 je	 SHORT $LN77@LoadBool_e
  00145	8a 40 14	 mov	 al, BYTE PTR [eax+20]
  00148	80 f2 ea	 xor	 dl, -22			; ffffffeaH
  0014b	88 55 f7	 mov	 BYTE PTR __k$[ebp+19], dl
  0014e	84 c0		 test	 al, al
  00150	74 07		 je	 SHORT $LN76@LoadBool_e
  00152	34 ed		 xor	 al, -19			; ffffffedH
  00154	88 45 f8	 mov	 BYTE PTR __k$[ebp+20], al
  00157	eb 72		 jmp	 SHORT $LN1@LoadBool_e
$LN76@LoadBool_e:
  00159	c6 45 f8 ed	 mov	 BYTE PTR __k$[ebp+20], -19 ; ffffffedH
  0015d	eb 6c		 jmp	 SHORT $LN1@LoadBool_e
$LN77@LoadBool_e:
  0015f	c6 45 f7 ea	 mov	 BYTE PTR __k$[ebp+19], -22 ; ffffffeaH
  00163	eb 66		 jmp	 SHORT $LN1@LoadBool_e
$LN78@LoadBool_e:
  00165	c6 45 f6 eb	 mov	 BYTE PTR __k$[ebp+18], -21 ; ffffffebH
  00169	eb 60		 jmp	 SHORT $LN1@LoadBool_e
$LN79@LoadBool_e:
  0016b	88 4d f5	 mov	 BYTE PTR __k$[ebp+17], cl
  0016e	eb 5b		 jmp	 SHORT $LN1@LoadBool_e
$LN81@LoadBool_e:
  00170	c6 45 f3 ea	 mov	 BYTE PTR __k$[ebp+15], -22 ; ffffffeaH
  00174	eb 55		 jmp	 SHORT $LN1@LoadBool_e
$LN82@LoadBool_e:
  00176	c6 45 f2 eb	 mov	 BYTE PTR __k$[ebp+14], -21 ; ffffffebH
  0017a	eb 4f		 jmp	 SHORT $LN1@LoadBool_e
$LN83@LoadBool_e:
  0017c	88 4d f1	 mov	 BYTE PTR __k$[ebp+13], cl
  0017f	eb 4a		 jmp	 SHORT $LN1@LoadBool_e
$LN84@LoadBool_e:
  00181	c6 45 f0 ed	 mov	 BYTE PTR __k$[ebp+12], -19 ; ffffffedH
  00185	eb 44		 jmp	 SHORT $LN1@LoadBool_e
$LN85@LoadBool_e:
  00187	c6 45 ef ea	 mov	 BYTE PTR __k$[ebp+11], -22 ; ffffffeaH
  0018b	eb 3e		 jmp	 SHORT $LN1@LoadBool_e
$LN86@LoadBool_e:
  0018d	c6 45 ee eb	 mov	 BYTE PTR __k$[ebp+10], -21 ; ffffffebH
  00191	eb 38		 jmp	 SHORT $LN1@LoadBool_e
$LN87@LoadBool_e:
  00193	88 4d ed	 mov	 BYTE PTR __k$[ebp+9], cl
  00196	eb 33		 jmp	 SHORT $LN1@LoadBool_e
$LN88@LoadBool_e:
  00198	c6 45 ec ed	 mov	 BYTE PTR __k$[ebp+8], -19 ; ffffffedH
  0019c	eb 2d		 jmp	 SHORT $LN1@LoadBool_e
$LN89@LoadBool_e:
  0019e	c6 45 eb ea	 mov	 BYTE PTR __k$[ebp+7], -22 ; ffffffeaH
  001a2	eb 27		 jmp	 SHORT $LN1@LoadBool_e
$LN90@LoadBool_e:
  001a4	c6 45 ea eb	 mov	 BYTE PTR __k$[ebp+6], -21 ; ffffffebH
  001a8	eb 21		 jmp	 SHORT $LN1@LoadBool_e
$LN91@LoadBool_e:
  001aa	88 4d e9	 mov	 BYTE PTR __k$[ebp+5], cl
  001ad	eb 1c		 jmp	 SHORT $LN1@LoadBool_e
$LN92@LoadBool_e:
  001af	c6 45 e8 ed	 mov	 BYTE PTR __k$[ebp+4], -19 ; ffffffedH
  001b3	eb 16		 jmp	 SHORT $LN1@LoadBool_e
$LN93@LoadBool_e:
  001b5	c6 45 e7 ea	 mov	 BYTE PTR __k$[ebp+3], -22 ; ffffffeaH
  001b9	eb 10		 jmp	 SHORT $LN1@LoadBool_e
$LN94@LoadBool_e:
  001bb	c6 45 e6 eb	 mov	 BYTE PTR __k$[ebp+2], -21 ; ffffffebH
  001bf	eb 0a		 jmp	 SHORT $LN1@LoadBool_e
$LN95@LoadBool_e:
  001c1	c6 45 e5 ec	 mov	 BYTE PTR __k$[ebp+1], -20 ; ffffffecH
  001c5	eb 04		 jmp	 SHORT $LN1@LoadBool_e
$LN96@LoadBool_e:
  001c7	c6 45 e4 ed	 mov	 BYTE PTR __k$[ebp], -19	; ffffffedH
$LN1@LoadBool_e:
  001cb	6a 04		 push	 4
  001cd	8d 45 e4	 lea	 eax, DWORD PTR __k$[ebp]
  001d0	c6 45 f4 00	 mov	 BYTE PTR __k$[ebp+16], 0
  001d4	5a		 pop	 edx
$LL104@LoadBool_e:
  001d5	81 30 ed ec eb
	ea		 xor	 DWORD PTR [eax], -353637139 ; eaebecedH
  001db	83 c0 04	 add	 eax, 4
  001de	4a		 dec	 edx
  001df	75 f4		 jne	 SHORT $LL104@LoadBool_e

; 103  : 		return LoadBool(_k, b);

  001e1	ff 75 0c	 push	 DWORD PTR _b$[ebp]
  001e4	8d 45 e4	 lea	 eax, DWORD PTR __k$[ebp]
  001e7	50		 push	 eax
  001e8	8b ce		 mov	 ecx, esi
  001ea	ff 15 00 00 00
	00		 call	 DWORD PTR __imp_?LoadBool@ioINILoader@@QAE_NPBD_N@Z

; 104  : 	}

  001f0	8b 4d fc	 mov	 ecx, DWORD PTR __$ArrayPad$[ebp]
  001f3	33 cd		 xor	 ecx, ebp
  001f5	5e		 pop	 esi
  001f6	e8 00 00 00 00	 call	 @__security_check_cookie@4
  001fb	c9		 leave
  001fc	c2 08 00	 ret	 8
??$LoadBool_e@$0BB@@ioINILoader@@QAE_NAAY0BB@$$CBD_N@Z ENDP ; ioINILoader::LoadBool_e<17>
_TEXT	ENDS
PUBLIC	__$ArrayPad$
PUBLIC	??$LoadFloat_e@$0P@@ioINILoader@@QAEMAAY0P@$$CBDM@Z ; ioINILoader::LoadFloat_e<15>
; Function compile flags: /Ogsp
;	COMDAT ??$LoadFloat_e@$0P@@ioINILoader@@QAEMAAY0P@$$CBDM@Z
_TEXT	SEGMENT
__k$ = -24						; size = 15
__$ArrayPad$ = -4					; size = 4
_k$ = 8							; size = 4
_f$ = 12						; size = 4
??$LoadFloat_e@$0P@@ioINILoader@@QAEMAAY0P@$$CBDM@Z PROC ; ioINILoader::LoadFloat_e<15>, COMDAT
; _this$ = ecx

; 135  : 	{

  00000	55		 push	 ebp
  00001	8b ec		 mov	 ebp, esp
  00003	83 ec 18	 sub	 esp, 24			; 00000018H
  00006	a1 00 00 00 00	 mov	 eax, DWORD PTR ___security_cookie
  0000b	33 c5		 xor	 eax, ebp
  0000d	89 45 fc	 mov	 DWORD PTR __$ArrayPad$[ebp], eax
  00010	8b 45 08	 mov	 eax, DWORD PTR _k$[ebp]

; 136  : 		_ENCSTR(k, _k);

  00013	8a 10		 mov	 dl, BYTE PTR [eax]
  00015	56		 push	 esi
  00016	8b f1		 mov	 esi, ecx
  00018	84 d2		 test	 dl, dl
  0001a	0f 84 75 01 00
	00		 je	 $LN96@LoadFloat_@5
  00020	80 f2 ed	 xor	 dl, -19			; ffffffedH
  00023	88 55 e8	 mov	 BYTE PTR __k$[ebp], dl
  00026	8a 50 01	 mov	 dl, BYTE PTR [eax+1]
  00029	84 d2		 test	 dl, dl
  0002b	0f 84 5e 01 00
	00		 je	 $LN95@LoadFloat_@5
  00031	b1 ec		 mov	 cl, -20			; ffffffecH
  00033	32 d1		 xor	 dl, cl
  00035	88 55 e9	 mov	 BYTE PTR __k$[ebp+1], dl
  00038	8a 50 02	 mov	 dl, BYTE PTR [eax+2]
  0003b	84 d2		 test	 dl, dl
  0003d	0f 84 46 01 00
	00		 je	 $LN94@LoadFloat_@5
  00043	80 f2 eb	 xor	 dl, -21			; ffffffebH
  00046	88 55 ea	 mov	 BYTE PTR __k$[ebp+2], dl
  00049	8a 50 03	 mov	 dl, BYTE PTR [eax+3]
  0004c	84 d2		 test	 dl, dl
  0004e	0f 84 2f 01 00
	00		 je	 $LN93@LoadFloat_@5
  00054	80 f2 ea	 xor	 dl, -22			; ffffffeaH
  00057	88 55 eb	 mov	 BYTE PTR __k$[ebp+3], dl
  0005a	8a 50 04	 mov	 dl, BYTE PTR [eax+4]
  0005d	84 d2		 test	 dl, dl
  0005f	0f 84 18 01 00
	00		 je	 $LN92@LoadFloat_@5
  00065	80 f2 ed	 xor	 dl, -19			; ffffffedH
  00068	88 55 ec	 mov	 BYTE PTR __k$[ebp+4], dl
  0006b	8a 50 05	 mov	 dl, BYTE PTR [eax+5]
  0006e	84 d2		 test	 dl, dl
  00070	0f 84 02 01 00
	00		 je	 $LN91@LoadFloat_@5
  00076	32 d1		 xor	 dl, cl
  00078	88 55 ed	 mov	 BYTE PTR __k$[ebp+5], dl
  0007b	8a 50 06	 mov	 dl, BYTE PTR [eax+6]
  0007e	84 d2		 test	 dl, dl
  00080	0f 84 ec 00 00
	00		 je	 $LN90@LoadFloat_@5
  00086	80 f2 eb	 xor	 dl, -21			; ffffffebH
  00089	88 55 ee	 mov	 BYTE PTR __k$[ebp+6], dl
  0008c	8a 50 07	 mov	 dl, BYTE PTR [eax+7]
  0008f	84 d2		 test	 dl, dl
  00091	0f 84 d5 00 00
	00		 je	 $LN89@LoadFloat_@5
  00097	80 f2 ea	 xor	 dl, -22			; ffffffeaH
  0009a	88 55 ef	 mov	 BYTE PTR __k$[ebp+7], dl
  0009d	8a 50 08	 mov	 dl, BYTE PTR [eax+8]
  000a0	84 d2		 test	 dl, dl
  000a2	0f 84 be 00 00
	00		 je	 $LN88@LoadFloat_@5
  000a8	80 f2 ed	 xor	 dl, -19			; ffffffedH
  000ab	88 55 f0	 mov	 BYTE PTR __k$[ebp+8], dl
  000ae	8a 50 09	 mov	 dl, BYTE PTR [eax+9]
  000b1	84 d2		 test	 dl, dl
  000b3	0f 84 a8 00 00
	00		 je	 $LN87@LoadFloat_@5
  000b9	32 d1		 xor	 dl, cl
  000bb	88 55 f1	 mov	 BYTE PTR __k$[ebp+9], dl
  000be	8a 50 0a	 mov	 dl, BYTE PTR [eax+10]
  000c1	84 d2		 test	 dl, dl
  000c3	0f 84 92 00 00
	00		 je	 $LN86@LoadFloat_@5
  000c9	80 f2 eb	 xor	 dl, -21			; ffffffebH
  000cc	88 55 f2	 mov	 BYTE PTR __k$[ebp+10], dl
  000cf	8a 50 0b	 mov	 dl, BYTE PTR [eax+11]
  000d2	84 d2		 test	 dl, dl
  000d4	74 7f		 je	 SHORT $LN85@LoadFloat_@5
  000d6	80 f2 ea	 xor	 dl, -22			; ffffffeaH
  000d9	88 55 f3	 mov	 BYTE PTR __k$[ebp+11], dl
  000dc	8a 50 0c	 mov	 dl, BYTE PTR [eax+12]
  000df	84 d2		 test	 dl, dl
  000e1	74 6c		 je	 SHORT $LN84@LoadFloat_@5
  000e3	80 f2 ed	 xor	 dl, -19			; ffffffedH
  000e6	88 55 f4	 mov	 BYTE PTR __k$[ebp+12], dl
  000e9	8a 50 0d	 mov	 dl, BYTE PTR [eax+13]
  000ec	84 d2		 test	 dl, dl
  000ee	74 5a		 je	 SHORT $LN83@LoadFloat_@5
  000f0	32 d1		 xor	 dl, cl
  000f2	80 78 0e 00	 cmp	 BYTE PTR [eax+14], 0
  000f6	88 55 f5	 mov	 BYTE PTR __k$[ebp+13], dl
  000f9	0f 84 9a 00 00
	00		 je	 $LN1@LoadFloat_@5
  000ff	8a 50 0f	 mov	 dl, BYTE PTR [eax+15]
  00102	84 d2		 test	 dl, dl
  00104	74 3e		 je	 SHORT $LN81@LoadFloat_@5
  00106	80 f2 ea	 xor	 dl, -22			; ffffffeaH
  00109	88 55 f7	 mov	 BYTE PTR __k$[ebp+15], dl
  0010c	8a 50 10	 mov	 dl, BYTE PTR [eax+16]
  0010f	84 d2		 test	 dl, dl
  00111	74 2b		 je	 SHORT $LN80@LoadFloat_@5
  00113	80 f2 ed	 xor	 dl, -19			; ffffffedH
  00116	88 55 f8	 mov	 BYTE PTR __k$[ebp+16], dl
  00119	8a 50 11	 mov	 dl, BYTE PTR [eax+17]
  0011c	84 d2		 test	 dl, dl
  0011e	74 19		 je	 SHORT $LN79@LoadFloat_@5
  00120	8a 40 12	 mov	 al, BYTE PTR [eax+18]
  00123	32 d1		 xor	 dl, cl
  00125	88 55 f9	 mov	 BYTE PTR __k$[ebp+17], dl
  00128	84 c0		 test	 al, al
  0012a	74 07		 je	 SHORT $LN78@LoadFloat_@5
  0012c	34 eb		 xor	 al, -21			; ffffffebH
  0012e	88 45 fa	 mov	 BYTE PTR __k$[ebp+18], al
  00131	eb 66		 jmp	 SHORT $LN1@LoadFloat_@5
$LN78@LoadFloat_@5:
  00133	c6 45 fa eb	 mov	 BYTE PTR __k$[ebp+18], -21 ; ffffffebH
  00137	eb 60		 jmp	 SHORT $LN1@LoadFloat_@5
$LN79@LoadFloat_@5:
  00139	88 4d f9	 mov	 BYTE PTR __k$[ebp+17], cl
  0013c	eb 5b		 jmp	 SHORT $LN1@LoadFloat_@5
$LN80@LoadFloat_@5:
  0013e	c6 45 f8 ed	 mov	 BYTE PTR __k$[ebp+16], -19 ; ffffffedH
  00142	eb 55		 jmp	 SHORT $LN1@LoadFloat_@5
$LN81@LoadFloat_@5:
  00144	c6 45 f7 ea	 mov	 BYTE PTR __k$[ebp+15], -22 ; ffffffeaH
  00148	eb 4f		 jmp	 SHORT $LN1@LoadFloat_@5
$LN83@LoadFloat_@5:
  0014a	88 4d f5	 mov	 BYTE PTR __k$[ebp+13], cl
  0014d	eb 4a		 jmp	 SHORT $LN1@LoadFloat_@5
$LN84@LoadFloat_@5:
  0014f	c6 45 f4 ed	 mov	 BYTE PTR __k$[ebp+12], -19 ; ffffffedH
  00153	eb 44		 jmp	 SHORT $LN1@LoadFloat_@5
$LN85@LoadFloat_@5:
  00155	c6 45 f3 ea	 mov	 BYTE PTR __k$[ebp+11], -22 ; ffffffeaH
  00159	eb 3e		 jmp	 SHORT $LN1@LoadFloat_@5
$LN86@LoadFloat_@5:
  0015b	c6 45 f2 eb	 mov	 BYTE PTR __k$[ebp+10], -21 ; ffffffebH
  0015f	eb 38		 jmp	 SHORT $LN1@LoadFloat_@5
$LN87@LoadFloat_@5:
  00161	88 4d f1	 mov	 BYTE PTR __k$[ebp+9], cl
  00164	eb 33		 jmp	 SHORT $LN1@LoadFloat_@5
$LN88@LoadFloat_@5:
  00166	c6 45 f0 ed	 mov	 BYTE PTR __k$[ebp+8], -19 ; ffffffedH
  0016a	eb 2d		 jmp	 SHORT $LN1@LoadFloat_@5
$LN89@LoadFloat_@5:
  0016c	c6 45 ef ea	 mov	 BYTE PTR __k$[ebp+7], -22 ; ffffffeaH
  00170	eb 27		 jmp	 SHORT $LN1@LoadFloat_@5
$LN90@LoadFloat_@5:
  00172	c6 45 ee eb	 mov	 BYTE PTR __k$[ebp+6], -21 ; ffffffebH
  00176	eb 21		 jmp	 SHORT $LN1@LoadFloat_@5
$LN91@LoadFloat_@5:
  00178	88 4d ed	 mov	 BYTE PTR __k$[ebp+5], cl
  0017b	eb 1c		 jmp	 SHORT $LN1@LoadFloat_@5
$LN92@LoadFloat_@5:
  0017d	c6 45 ec ed	 mov	 BYTE PTR __k$[ebp+4], -19 ; ffffffedH
  00181	eb 16		 jmp	 SHORT $LN1@LoadFloat_@5
$LN93@LoadFloat_@5:
  00183	c6 45 eb ea	 mov	 BYTE PTR __k$[ebp+3], -22 ; ffffffeaH
  00187	eb 10		 jmp	 SHORT $LN1@LoadFloat_@5
$LN94@LoadFloat_@5:
  00189	c6 45 ea eb	 mov	 BYTE PTR __k$[ebp+2], -21 ; ffffffebH
  0018d	eb 0a		 jmp	 SHORT $LN1@LoadFloat_@5
$LN95@LoadFloat_@5:
  0018f	c6 45 e9 ec	 mov	 BYTE PTR __k$[ebp+1], -20 ; ffffffecH
  00193	eb 04		 jmp	 SHORT $LN1@LoadFloat_@5
$LN96@LoadFloat_@5:
  00195	c6 45 e8 ed	 mov	 BYTE PTR __k$[ebp], -19	; ffffffedH
$LN1@LoadFloat_@5:
  00199	6a 03		 push	 3
  0019b	8d 45 e8	 lea	 eax, DWORD PTR __k$[ebp]
  0019e	c6 45 f6 00	 mov	 BYTE PTR __k$[ebp+14], 0
  001a2	5a		 pop	 edx
$LL104@LoadFloat_@5:
  001a3	81 30 ed ec eb
	ea		 xor	 DWORD PTR [eax], -353637139 ; eaebecedH
  001a9	83 c0 04	 add	 eax, 4
  001ac	4a		 dec	 edx
  001ad	75 f4		 jne	 SHORT $LL104@LoadFloat_@5
  001af	6a 0c		 push	 12			; 0000000cH
  001b1	58		 pop	 eax
$LL101@LoadFloat_@5:
  001b2	8b c8		 mov	 ecx, eax
  001b4	81 e1 03 00 00
	80		 and	 ecx, -2147483645	; 80000003H
  001ba	79 05		 jns	 SHORT $LN111@LoadFloat_@5
  001bc	49		 dec	 ecx
  001bd	83 c9 fc	 or	 ecx, -4			; fffffffcH
  001c0	41		 inc	 ecx
$LN111@LoadFloat_@5:
  001c1	b2 ed		 mov	 dl, -19			; ffffffedH
  001c3	2a d1		 sub	 dl, cl
  001c5	30 54 05 e8	 xor	 BYTE PTR __k$[ebp+eax], dl
  001c9	40		 inc	 eax
  001ca	83 f8 0e	 cmp	 eax, 14			; 0000000eH
  001cd	7c e3		 jl	 SHORT $LL101@LoadFloat_@5

; 137  : 		return LoadFloat(_k, f);

  001cf	f3 0f 10 45 0c	 movss	 xmm0, DWORD PTR _f$[ebp]
  001d4	51		 push	 ecx
  001d5	8d 45 e8	 lea	 eax, DWORD PTR __k$[ebp]
  001d8	f3 0f 11 04 24	 movss	 DWORD PTR [esp], xmm0
  001dd	50		 push	 eax
  001de	8b ce		 mov	 ecx, esi
  001e0	ff 15 00 00 00
	00		 call	 DWORD PTR __imp_?LoadFloat@ioINILoader@@QAEMPBDM@Z

; 138  : 	}

  001e6	8b 4d fc	 mov	 ecx, DWORD PTR __$ArrayPad$[ebp]
  001e9	33 cd		 xor	 ecx, ebp
  001eb	5e		 pop	 esi
  001ec	e8 00 00 00 00	 call	 @__security_check_cookie@4
  001f1	c9		 leave
  001f2	c2 08 00	 ret	 8
??$LoadFloat_e@$0P@@ioINILoader@@QAEMAAY0P@$$CBDM@Z ENDP ; ioINILoader::LoadFloat_e<15>
_TEXT	ENDS
PUBLIC	__$ArrayPad$
PUBLIC	??$LoadBool_e@$0BA@@ioINILoader@@QAE_NAAY0BA@$$CBD_N@Z ; ioINILoader::LoadBool_e<16>
; Function compile flags: /Ogsp
;	COMDAT ??$LoadBool_e@$0BA@@ioINILoader@@QAE_NAAY0BA@$$CBD_N@Z
_TEXT	SEGMENT
__k$ = -24						; size = 16
__$ArrayPad$ = -4					; size = 4
_k$ = 8							; size = 4
_b$ = 12						; size = 1
??$LoadBool_e@$0BA@@ioINILoader@@QAE_NAAY0BA@$$CBD_N@Z PROC ; ioINILoader::LoadBool_e<16>, COMDAT
; _this$ = ecx

; 101  : 	{

  00000	55		 push	 ebp
  00001	8b ec		 mov	 ebp, esp
  00003	83 ec 18	 sub	 esp, 24			; 00000018H
  00006	a1 00 00 00 00	 mov	 eax, DWORD PTR ___security_cookie
  0000b	33 c5		 xor	 eax, ebp
  0000d	89 45 fc	 mov	 DWORD PTR __$ArrayPad$[ebp], eax
  00010	8b 45 08	 mov	 eax, DWORD PTR _k$[ebp]

; 102  : 		_ENCSTR(k, _k);

  00013	8a 10		 mov	 dl, BYTE PTR [eax]
  00015	56		 push	 esi
  00016	8b f1		 mov	 esi, ecx
  00018	84 d2		 test	 dl, dl
  0001a	0f 84 8c 01 00
	00		 je	 $LN96@LoadBool_e@2
  00020	80 f2 ed	 xor	 dl, -19			; ffffffedH
  00023	88 55 e8	 mov	 BYTE PTR __k$[ebp], dl
  00026	8a 50 01	 mov	 dl, BYTE PTR [eax+1]
  00029	84 d2		 test	 dl, dl
  0002b	0f 84 75 01 00
	00		 je	 $LN95@LoadBool_e@2
  00031	80 f2 ec	 xor	 dl, -20			; ffffffecH
  00034	88 55 e9	 mov	 BYTE PTR __k$[ebp+1], dl
  00037	8a 50 02	 mov	 dl, BYTE PTR [eax+2]
  0003a	84 d2		 test	 dl, dl
  0003c	0f 84 5e 01 00
	00		 je	 $LN94@LoadBool_e@2
  00042	b1 eb		 mov	 cl, -21			; ffffffebH
  00044	32 d1		 xor	 dl, cl
  00046	88 55 ea	 mov	 BYTE PTR __k$[ebp+2], dl
  00049	8a 50 03	 mov	 dl, BYTE PTR [eax+3]
  0004c	84 d2		 test	 dl, dl
  0004e	0f 84 46 01 00
	00		 je	 $LN93@LoadBool_e@2
  00054	80 f2 ea	 xor	 dl, -22			; ffffffeaH
  00057	88 55 eb	 mov	 BYTE PTR __k$[ebp+3], dl
  0005a	8a 50 04	 mov	 dl, BYTE PTR [eax+4]
  0005d	84 d2		 test	 dl, dl
  0005f	0f 84 2f 01 00
	00		 je	 $LN92@LoadBool_e@2
  00065	80 f2 ed	 xor	 dl, -19			; ffffffedH
  00068	88 55 ec	 mov	 BYTE PTR __k$[ebp+4], dl
  0006b	8a 50 05	 mov	 dl, BYTE PTR [eax+5]
  0006e	84 d2		 test	 dl, dl
  00070	0f 84 18 01 00
	00		 je	 $LN91@LoadBool_e@2
  00076	80 f2 ec	 xor	 dl, -20			; ffffffecH
  00079	88 55 ed	 mov	 BYTE PTR __k$[ebp+5], dl
  0007c	8a 50 06	 mov	 dl, BYTE PTR [eax+6]
  0007f	84 d2		 test	 dl, dl
  00081	0f 84 02 01 00
	00		 je	 $LN90@LoadBool_e@2
  00087	32 d1		 xor	 dl, cl
  00089	88 55 ee	 mov	 BYTE PTR __k$[ebp+6], dl
  0008c	8a 50 07	 mov	 dl, BYTE PTR [eax+7]
  0008f	84 d2		 test	 dl, dl
  00091	0f 84 ec 00 00
	00		 je	 $LN89@LoadBool_e@2
  00097	80 f2 ea	 xor	 dl, -22			; ffffffeaH
  0009a	88 55 ef	 mov	 BYTE PTR __k$[ebp+7], dl
  0009d	8a 50 08	 mov	 dl, BYTE PTR [eax+8]
  000a0	84 d2		 test	 dl, dl
  000a2	0f 84 d5 00 00
	00		 je	 $LN88@LoadBool_e@2
  000a8	80 f2 ed	 xor	 dl, -19			; ffffffedH
  000ab	88 55 f0	 mov	 BYTE PTR __k$[ebp+8], dl
  000ae	8a 50 09	 mov	 dl, BYTE PTR [eax+9]
  000b1	84 d2		 test	 dl, dl
  000b3	0f 84 be 00 00
	00		 je	 $LN87@LoadBool_e@2
  000b9	80 f2 ec	 xor	 dl, -20			; ffffffecH
  000bc	88 55 f1	 mov	 BYTE PTR __k$[ebp+9], dl
  000bf	8a 50 0a	 mov	 dl, BYTE PTR [eax+10]
  000c2	84 d2		 test	 dl, dl
  000c4	0f 84 a8 00 00
	00		 je	 $LN86@LoadBool_e@2
  000ca	32 d1		 xor	 dl, cl
  000cc	88 55 f2	 mov	 BYTE PTR __k$[ebp+10], dl
  000cf	8a 50 0b	 mov	 dl, BYTE PTR [eax+11]
  000d2	84 d2		 test	 dl, dl
  000d4	0f 84 92 00 00
	00		 je	 $LN85@LoadBool_e@2
  000da	80 f2 ea	 xor	 dl, -22			; ffffffeaH
  000dd	88 55 f3	 mov	 BYTE PTR __k$[ebp+11], dl
  000e0	8a 50 0c	 mov	 dl, BYTE PTR [eax+12]
  000e3	84 d2		 test	 dl, dl
  000e5	74 7f		 je	 SHORT $LN84@LoadBool_e@2
  000e7	80 f2 ed	 xor	 dl, -19			; ffffffedH
  000ea	88 55 f4	 mov	 BYTE PTR __k$[ebp+12], dl
  000ed	8a 50 0d	 mov	 dl, BYTE PTR [eax+13]
  000f0	84 d2		 test	 dl, dl
  000f2	74 6c		 je	 SHORT $LN83@LoadBool_e@2
  000f4	80 f2 ec	 xor	 dl, -20			; ffffffecH
  000f7	88 55 f5	 mov	 BYTE PTR __k$[ebp+13], dl
  000fa	8a 50 0e	 mov	 dl, BYTE PTR [eax+14]
  000fd	84 d2		 test	 dl, dl
  000ff	74 5a		 je	 SHORT $LN82@LoadBool_e@2
  00101	32 d1		 xor	 dl, cl
  00103	80 78 0f 00	 cmp	 BYTE PTR [eax+15], 0
  00107	88 55 f6	 mov	 BYTE PTR __k$[ebp+14], dl
  0010a	0f 84 a0 00 00
	00		 je	 $LN1@LoadBool_e@2
  00110	8a 50 10	 mov	 dl, BYTE PTR [eax+16]
  00113	84 d2		 test	 dl, dl
  00115	74 3e		 je	 SHORT $LN80@LoadBool_e@2
  00117	80 f2 ed	 xor	 dl, -19			; ffffffedH
  0011a	88 55 f8	 mov	 BYTE PTR __k$[ebp+16], dl
  0011d	8a 50 11	 mov	 dl, BYTE PTR [eax+17]
  00120	84 d2		 test	 dl, dl
  00122	74 2b		 je	 SHORT $LN79@LoadBool_e@2
  00124	80 f2 ec	 xor	 dl, -20			; ffffffecH
  00127	88 55 f9	 mov	 BYTE PTR __k$[ebp+17], dl
  0012a	8a 50 12	 mov	 dl, BYTE PTR [eax+18]
  0012d	84 d2		 test	 dl, dl
  0012f	74 19		 je	 SHORT $LN78@LoadBool_e@2
  00131	8a 40 13	 mov	 al, BYTE PTR [eax+19]
  00134	32 d1		 xor	 dl, cl
  00136	88 55 fa	 mov	 BYTE PTR __k$[ebp+18], dl
  00139	84 c0		 test	 al, al
  0013b	74 07		 je	 SHORT $LN77@LoadBool_e@2
  0013d	34 ea		 xor	 al, -22			; ffffffeaH
  0013f	88 45 fb	 mov	 BYTE PTR __k$[ebp+19], al
  00142	eb 6c		 jmp	 SHORT $LN1@LoadBool_e@2
$LN77@LoadBool_e@2:
  00144	c6 45 fb ea	 mov	 BYTE PTR __k$[ebp+19], -22 ; ffffffeaH
  00148	eb 66		 jmp	 SHORT $LN1@LoadBool_e@2
$LN78@LoadBool_e@2:
  0014a	88 4d fa	 mov	 BYTE PTR __k$[ebp+18], cl
  0014d	eb 61		 jmp	 SHORT $LN1@LoadBool_e@2
$LN79@LoadBool_e@2:
  0014f	c6 45 f9 ec	 mov	 BYTE PTR __k$[ebp+17], -20 ; ffffffecH
  00153	eb 5b		 jmp	 SHORT $LN1@LoadBool_e@2
$LN80@LoadBool_e@2:
  00155	c6 45 f8 ed	 mov	 BYTE PTR __k$[ebp+16], -19 ; ffffffedH
  00159	eb 55		 jmp	 SHORT $LN1@LoadBool_e@2
$LN82@LoadBool_e@2:
  0015b	88 4d f6	 mov	 BYTE PTR __k$[ebp+14], cl
  0015e	eb 50		 jmp	 SHORT $LN1@LoadBool_e@2
$LN83@LoadBool_e@2:
  00160	c6 45 f5 ec	 mov	 BYTE PTR __k$[ebp+13], -20 ; ffffffecH
  00164	eb 4a		 jmp	 SHORT $LN1@LoadBool_e@2
$LN84@LoadBool_e@2:
  00166	c6 45 f4 ed	 mov	 BYTE PTR __k$[ebp+12], -19 ; ffffffedH
  0016a	eb 44		 jmp	 SHORT $LN1@LoadBool_e@2
$LN85@LoadBool_e@2:
  0016c	c6 45 f3 ea	 mov	 BYTE PTR __k$[ebp+11], -22 ; ffffffeaH
  00170	eb 3e		 jmp	 SHORT $LN1@LoadBool_e@2
$LN86@LoadBool_e@2:
  00172	88 4d f2	 mov	 BYTE PTR __k$[ebp+10], cl
  00175	eb 39		 jmp	 SHORT $LN1@LoadBool_e@2
$LN87@LoadBool_e@2:
  00177	c6 45 f1 ec	 mov	 BYTE PTR __k$[ebp+9], -20 ; ffffffecH
  0017b	eb 33		 jmp	 SHORT $LN1@LoadBool_e@2
$LN88@LoadBool_e@2:
  0017d	c6 45 f0 ed	 mov	 BYTE PTR __k$[ebp+8], -19 ; ffffffedH
  00181	eb 2d		 jmp	 SHORT $LN1@LoadBool_e@2
$LN89@LoadBool_e@2:
  00183	c6 45 ef ea	 mov	 BYTE PTR __k$[ebp+7], -22 ; ffffffeaH
  00187	eb 27		 jmp	 SHORT $LN1@LoadBool_e@2
$LN90@LoadBool_e@2:
  00189	88 4d ee	 mov	 BYTE PTR __k$[ebp+6], cl
  0018c	eb 22		 jmp	 SHORT $LN1@LoadBool_e@2
$LN91@LoadBool_e@2:
  0018e	c6 45 ed ec	 mov	 BYTE PTR __k$[ebp+5], -20 ; ffffffecH
  00192	eb 1c		 jmp	 SHORT $LN1@LoadBool_e@2
$LN92@LoadBool_e@2:
  00194	c6 45 ec ed	 mov	 BYTE PTR __k$[ebp+4], -19 ; ffffffedH
  00198	eb 16		 jmp	 SHORT $LN1@LoadBool_e@2
$LN93@LoadBool_e@2:
  0019a	c6 45 eb ea	 mov	 BYTE PTR __k$[ebp+3], -22 ; ffffffeaH
  0019e	eb 10		 jmp	 SHORT $LN1@LoadBool_e@2
$LN94@LoadBool_e@2:
  001a0	c6 45 ea eb	 mov	 BYTE PTR __k$[ebp+2], -21 ; ffffffebH
  001a4	eb 0a		 jmp	 SHORT $LN1@LoadBool_e@2
$LN95@LoadBool_e@2:
  001a6	c6 45 e9 ec	 mov	 BYTE PTR __k$[ebp+1], -20 ; ffffffecH
  001aa	eb 04		 jmp	 SHORT $LN1@LoadBool_e@2
$LN96@LoadBool_e@2:
  001ac	c6 45 e8 ed	 mov	 BYTE PTR __k$[ebp], -19	; ffffffedH
$LN1@LoadBool_e@2:
  001b0	6a 03		 push	 3
  001b2	8d 45 e8	 lea	 eax, DWORD PTR __k$[ebp]
  001b5	c6 45 f7 00	 mov	 BYTE PTR __k$[ebp+15], 0
  001b9	5a		 pop	 edx
$LL104@LoadBool_e@2:
  001ba	81 30 ed ec eb
	ea		 xor	 DWORD PTR [eax], -353637139 ; eaebecedH
  001c0	83 c0 04	 add	 eax, 4
  001c3	4a		 dec	 edx
  001c4	75 f4		 jne	 SHORT $LL104@LoadBool_e@2
  001c6	6a 0c		 push	 12			; 0000000cH
  001c8	58		 pop	 eax
$LL101@LoadBool_e@2:
  001c9	8b c8		 mov	 ecx, eax
  001cb	81 e1 03 00 00
	80		 and	 ecx, -2147483645	; 80000003H
  001d1	79 05		 jns	 SHORT $LN111@LoadBool_e@2
  001d3	49		 dec	 ecx
  001d4	83 c9 fc	 or	 ecx, -4			; fffffffcH
  001d7	41		 inc	 ecx
$LN111@LoadBool_e@2:
  001d8	b2 ed		 mov	 dl, -19			; ffffffedH
  001da	2a d1		 sub	 dl, cl
  001dc	30 54 05 e8	 xor	 BYTE PTR __k$[ebp+eax], dl
  001e0	40		 inc	 eax
  001e1	83 f8 0f	 cmp	 eax, 15			; 0000000fH
  001e4	7c e3		 jl	 SHORT $LL101@LoadBool_e@2

; 103  : 		return LoadBool(_k, b);

  001e6	ff 75 0c	 push	 DWORD PTR _b$[ebp]
  001e9	8d 45 e8	 lea	 eax, DWORD PTR __k$[ebp]
  001ec	50		 push	 eax
  001ed	8b ce		 mov	 ecx, esi
  001ef	ff 15 00 00 00
	00		 call	 DWORD PTR __imp_?LoadBool@ioINILoader@@QAE_NPBD_N@Z

; 104  : 	}

  001f5	8b 4d fc	 mov	 ecx, DWORD PTR __$ArrayPad$[ebp]
  001f8	33 cd		 xor	 ecx, ebp
  001fa	5e		 pop	 esi
  001fb	e8 00 00 00 00	 call	 @__security_check_cookie@4
  00200	c9		 leave
  00201	c2 08 00	 ret	 8
??$LoadBool_e@$0BA@@ioINILoader@@QAE_NAAY0BA@$$CBD_N@Z ENDP ; ioINILoader::LoadBool_e<16>
_TEXT	ENDS
PUBLIC	?c_str@?$basic_string@DU?$char_traits@D@std@@V?$allocator@D@2@@std@@QBEPBDXZ ; std::basic_string<char,std::char_traits<char>,std::allocator<char> >::c_str
; Function compile flags: /Ogsp
; File c:\program files (x86)\microsoft visual studio 10.0\vc\include\xstring
;	COMDAT ?c_str@?$basic_string@DU?$char_traits@D@std@@V?$allocator@D@2@@std@@QBEPBDXZ
_TEXT	SEGMENT
?c_str@?$basic_string@DU?$char_traits@D@std@@V?$allocator@D@2@@std@@QBEPBDXZ PROC ; std::basic_string<char,std::char_traits<char>,std::allocator<char> >::c_str, COMDAT
; _this$ = ecx

; 1497 : 		return (_Myptr());

  00000	83 79 14 10	 cmp	 DWORD PTR [ecx+20], 16	; 00000010H
  00004	72 03		 jb	 SHORT $LN5@c_str
  00006	8b 01		 mov	 eax, DWORD PTR [ecx]

; 1498 : 		}

  00008	c3		 ret	 0

; 1497 : 		return (_Myptr());

$LN5@c_str:
  00009	8b c1		 mov	 eax, ecx

; 1498 : 		}

  0000b	c3		 ret	 0
?c_str@?$basic_string@DU?$char_traits@D@std@@V?$allocator@D@2@@std@@QBEPBDXZ ENDP ; std::basic_string<char,std::char_traits<char>,std::allocator<char> >::c_str
_TEXT	ENDS
PUBLIC	??B?$CEncrypt@W4TeamType@@@@QBE?AW4TeamType@@XZ	; CEncrypt<enum TeamType>::operator enum TeamType
; Function compile flags: /Ogsp
; File d:\lost saga for developer\youtube\tutorial\source\src\lsclient\encryptvalue.h
;	COMDAT ??B?$CEncrypt@W4TeamType@@@@QBE?AW4TeamType@@XZ
_TEXT	SEGMENT
_value$ = -4						; size = 4
??B?$CEncrypt@W4TeamType@@@@QBE?AW4TeamType@@XZ PROC	; CEncrypt<enum TeamType>::operator enum TeamType, COMDAT
; _this$ = ecx

; 145  : 	{

  00000	55		 push	 ebp
  00001	8b ec		 mov	 ebp, esp
  00003	51		 push	 ecx

; 146  : 		//UJ 130829, const    --start
; 147  : 		type value;
; 148  : 		CEncrypt<type>* pThis = const_cast<CEncrypt<type>*>(this);
; 149  : 		pThis->DecryptValueToPool(&value);

  00004	8d 45 fc	 lea	 eax, DWORD PTR _value$[ebp]
  00007	50		 push	 eax
  00008	e8 00 00 00 00	 call	 ?DecryptValueToPool@?$CEncrypt@W4TeamType@@@@QAEXPAW4TeamType@@@Z ; CEncrypt<enum TeamType>::DecryptValueToPool

; 150  : 		//// const DecryptValueToPool     .
; 151  :  		//type value;
; 152  : 		//char szTempMem[MAX_ENCRYPT];
; 153  : 		//m_RC5.DecryptByte( m_MemPool, szTempMem, max(m_ValueSize, DEFAULT_ENCRYPT) );
; 154  : 		//memcpy( &value, szTempMem, m_ValueSize );
; 155  : 		//UJ --end
; 156  : 
; 157  : #ifdef _NOTUSE
; 158  : 		Debug();
; 159  : #endif
; 160  : 		return value;

  0000d	8b 45 fc	 mov	 eax, DWORD PTR _value$[ebp]

; 161  : 	}

  00010	c9		 leave
  00011	c3		 ret	 0
??B?$CEncrypt@W4TeamType@@@@QBE?AW4TeamType@@XZ ENDP	; CEncrypt<enum TeamType>::operator enum TeamType
_TEXT	ENDS
PUBLIC	?_Eos@?$basic_string@DU?$char_traits@D@std@@V?$allocator@D@2@@std@@QAEXI@Z ; std::basic_string<char,std::char_traits<char>,std::allocator<char> >::_Eos
; Function compile flags: /Ogsp
; File c:\program files (x86)\microsoft visual studio 10.0\vc\include\xstring
;	COMDAT ?_Eos@?$basic_string@DU?$char_traits@D@std@@V?$allocator@D@2@@std@@QAEXI@Z
_TEXT	SEGMENT
__Newsize$ = 8						; size = 4
?_Eos@?$basic_string@DU?$char_traits@D@std@@V?$allocator@D@2@@std@@QAEXI@Z PROC ; std::basic_string<char,std::char_traits<char>,std::allocator<char> >::_Eos, COMDAT
; _this$ = ecx

; 1953 : 		{	// set new length and null terminator

  00000	55		 push	 ebp
  00001	8b ec		 mov	 ebp, esp

; 1954 : 		_Traits::assign(_Myptr()[this->_Mysize = _Newsize], _Elem());

  00003	83 79 14 10	 cmp	 DWORD PTR [ecx+20], 16	; 00000010H
  00007	8b 45 08	 mov	 eax, DWORD PTR __Newsize$[ebp]
  0000a	89 41 10	 mov	 DWORD PTR [ecx+16], eax
  0000d	72 02		 jb	 SHORT $LN5@Eos
  0000f	8b 09		 mov	 ecx, DWORD PTR [ecx]
$LN5@Eos:
  00011	c6 04 01 00	 mov	 BYTE PTR [ecx+eax], 0

; 1955 : 		}

  00015	5d		 pop	 ebp
  00016	c2 04 00	 ret	 4
?_Eos@?$basic_string@DU?$char_traits@D@std@@V?$allocator@D@2@@std@@QAEXI@Z ENDP ; std::basic_string<char,std::char_traits<char>,std::allocator<char> >::_Eos
_TEXT	ENDS
EXTRN	?InitResource@ioWeapon@@UAE_NXZ:PROC		; ioWeapon::InitResource
; Function compile flags: /Ogsp
; File d:\lost saga for developer\youtube\tutorial\source\src\lsclient\iocontrolreturnweapon.cpp
;	COMDAT ?InitResource@ioControlReturnWeapon@@UAE_NXZ
_TEXT	SEGMENT
?InitResource@ioControlReturnWeapon@@UAE_NXZ PROC	; ioControlReturnWeapon::InitResource, COMDAT
; _this$ = ecx

; 41   : {

  00000	56		 push	 esi
  00001	8b f1		 mov	 esi, ecx

; 42   : 	if( ioWeapon::InitResource() )

  00003	e8 00 00 00 00	 call	 ?InitResource@ioWeapon@@UAE_NXZ ; ioWeapon::InitResource
  00008	84 c0		 test	 al, al
  0000a	74 25		 je	 SHORT $LN1@InitResour

; 43   : 	{
; 44   : 		DestroyResource();

  0000c	8b 06		 mov	 eax, DWORD PTR [esi]
  0000e	6a 00		 push	 0
  00010	8b ce		 mov	 ecx, esi
  00012	ff 90 9c 00 00
	00		 call	 DWORD PTR [eax+156]

; 45   : 
; 46   : 		return SetThrowMesh( GetAttribute()->m_WeaponEffect );

  00018	8b 06		 mov	 eax, DWORD PTR [esi]
  0001a	8b ce		 mov	 ecx, esi
  0001c	ff 90 3c 01 00
	00		 call	 DWORD PTR [eax+316]
  00022	05 34 01 00 00	 add	 eax, 308		; 00000134H
  00027	50		 push	 eax
  00028	8b ce		 mov	 ecx, esi
  0002a	e8 00 00 00 00	 call	 ?SetThrowMesh@ioControlReturnWeapon@@IAE_NABVioHashString@@@Z ; ioControlReturnWeapon::SetThrowMesh
  0002f	5e		 pop	 esi

; 50   : }

  00030	c3		 ret	 0
$LN1@InitResour:

; 47   : 	}
; 48   : 
; 49   : 	return false;

  00031	32 c0		 xor	 al, al
  00033	5e		 pop	 esi

; 50   : }

  00034	c3		 ret	 0
?InitResource@ioControlReturnWeapon@@UAE_NXZ ENDP	; ioControlReturnWeapon::InitResource
_TEXT	ENDS
PUBLIC	__$ArrayPad$
EXTRN	?LoadProperty@ioWeapon@@UAEXAAVioINILoader@@@Z:PROC ; ioWeapon::LoadProperty
; Function compile flags: /Ogsp
;	COMDAT ?LoadProperty@ioControlReturnWeapon@@UAEXAAVioINILoader@@@Z
_TEXT	SEGMENT
__k$535837 = -32					; size = 18
__k$535390 = -32					; size = 21
__k$536416 = -28					; size = 16
__k$536212 = -28					; size = 15
__k$536087 = -28					; size = 14
__k$535962 = -28					; size = 17
__k$535712 = -28					; size = 17
__k$535587 = -28					; size = 16
__k$535212 = -28					; size = 14
__k$535449 = -24					; size = 12
__$ArrayPad$ = -4					; size = 4
_rkLoader$ = 8						; size = 4
?LoadProperty@ioControlReturnWeapon@@UAEXAAVioINILoader@@@Z PROC ; ioControlReturnWeapon::LoadProperty, COMDAT
; _this$ = ecx

; 96   : {

  00000	55		 push	 ebp
  00001	8b ec		 mov	 ebp, esp
  00003	83 ec 20	 sub	 esp, 32			; 00000020H
  00006	a1 00 00 00 00	 mov	 eax, DWORD PTR ___security_cookie
  0000b	33 c5		 xor	 eax, ebp
  0000d	89 45 fc	 mov	 DWORD PTR __$ArrayPad$[ebp], eax
  00010	53		 push	 ebx
  00011	56		 push	 esi
  00012	57		 push	 edi
  00013	8b 7d 08	 mov	 edi, DWORD PTR _rkLoader$[ebp]

; 97   : 	ioWeapon::LoadProperty( rkLoader );

  00016	57		 push	 edi
  00017	8b f1		 mov	 esi, ecx
  00019	e8 00 00 00 00	 call	 ?LoadProperty@ioWeapon@@UAEXAAVioINILoader@@@Z ; ioWeapon::LoadProperty

; 98   : 
; 99   : 	// 
; 100  : 	m_fControlSpeed = rkLoader.LoadFloat_e( "control_speed", 0.0f );

  0001e	6a 03		 push	 3
  00020	c7 45 e4 8e 83
	85 9e		 mov	 DWORD PTR __k$535212[ebp], -1635417202 ; 9e85838eH
  00027	c7 45 e8 9f 83
	87 b5		 mov	 DWORD PTR __k$535212[ebp+4], -1249410145 ; b587839fH
  0002e	c7 45 ec 9e 9c
	8e 8f		 mov	 DWORD PTR __k$535212[ebp+8], -1886479202 ; 8f8e9c9eH
  00035	8d 45 e4	 lea	 eax, DWORD PTR __k$535212[ebp]
  00038	33 db		 xor	 ebx, ebx
  0003a	66 c7 45 f0 89
	00		 mov	 WORD PTR __k$535212[ebp+12], 137 ; 00000089H
  00040	59		 pop	 ecx
$LL106@LoadProper:
  00041	81 30 ed ec eb
	ea		 xor	 DWORD PTR [eax], -353637139 ; eaebecedH
  00047	83 c0 04	 add	 eax, 4
  0004a	49		 dec	 ecx
  0004b	75 f4		 jne	 SHORT $LL106@LoadProper
  0004d	0f 57 c0	 xorps	 xmm0, xmm0
  00050	80 75 f0 ed	 xor	 BYTE PTR __k$535212[ebp+12], -19 ; ffffffedH
  00054	51		 push	 ecx
  00055	8d 45 e4	 lea	 eax, DWORD PTR __k$535212[ebp]
  00058	f3 0f 11 04 24	 movss	 DWORD PTR [esp], xmm0
  0005d	50		 push	 eax
  0005e	8b cf		 mov	 ecx, edi
  00060	ff 15 00 00 00
	00		 call	 DWORD PTR __imp_?LoadFloat@ioINILoader@@QAEMPBDM@Z
  00066	d9 9e 28 09 00
	00		 fstp	 DWORD PTR [esi+2344]
  0006c	6a 05		 push	 5

; 101  : 	m_fReturnControlSpeed = rkLoader.LoadFloat_e( "return_control_speed", 0.0f );

  0006e	c7 45 e0 9f 89
	9f 9f		 mov	 DWORD PTR __k$535390[ebp], -1616934497 ; 9f9f899fH
  00075	c7 45 e4 9f 82
	b4 89		 mov	 DWORD PTR __k$535390[ebp+4], -1984658785 ; 89b4829fH
  0007c	c7 45 e8 82 82
	9f 98		 mov	 DWORD PTR __k$535390[ebp+8], -1734376830 ; 989f8282H
  00083	c7 45 ec 82 80
	b4 99		 mov	 DWORD PTR __k$535390[ebp+12], -1716223870 ; 99b48082H
  0008a	c7 45 f0 9d 89
	8e 8e		 mov	 DWORD PTR __k$535390[ebp+16], -1903261283 ; 8e8e899dH
  00091	8d 45 e0	 lea	 eax, DWORD PTR __k$535390[ebp]
  00094	88 5d f4	 mov	 BYTE PTR __k$535390[ebp+20], bl
  00097	59		 pop	 ecx
$LL212@LoadProper:
  00098	81 30 ed ec eb
	ea		 xor	 DWORD PTR [eax], -353637139 ; eaebecedH
  0009e	83 c0 04	 add	 eax, 4
  000a1	49		 dec	 ecx
  000a2	75 f4		 jne	 SHORT $LL212@LoadProper
  000a4	0f 57 c0	 xorps	 xmm0, xmm0
  000a7	51		 push	 ecx
  000a8	8d 45 e0	 lea	 eax, DWORD PTR __k$535390[ebp]
  000ab	f3 0f 11 04 24	 movss	 DWORD PTR [esp], xmm0
  000b0	50		 push	 eax
  000b1	8b cf		 mov	 ecx, edi
  000b3	ff 15 00 00 00
	00		 call	 DWORD PTR __imp_?LoadFloat@ioINILoader@@QAEMPBDM@Z
  000b9	d9 9e 2c 09 00
	00		 fstp	 DWORD PTR [esi+2348]
  000bf	6a 02		 push	 2

; 102  : 
; 103  : 	m_fStartAngle = rkLoader.LoadFloat_e( "start_angle", 0.0f );

  000c1	c7 45 e8 9e 98
	8a 98		 mov	 DWORD PTR __k$535449[ebp], -1735747426 ; 988a989eH
  000c8	c7 45 ec 99 b3
	8a 84		 mov	 DWORD PTR __k$535449[ebp+4], -2071284839 ; 848ab399H
  000cf	8d 45 e8	 lea	 eax, DWORD PTR __k$535449[ebp]
  000d2	c7 45 f0 8a 80
	8e 00		 mov	 DWORD PTR __k$535449[ebp+8], 9339018 ; 008e808aH
  000d9	59		 pop	 ecx
$LL318@LoadProper:
  000da	81 30 ed ec eb
	ea		 xor	 DWORD PTR [eax], -353637139 ; eaebecedH
  000e0	83 c0 04	 add	 eax, 4
  000e3	49		 dec	 ecx
  000e4	75 f4		 jne	 SHORT $LL318@LoadProper
  000e6	6a 08		 push	 8
  000e8	58		 pop	 eax
$LL315@LoadProper:
  000e9	8b c8		 mov	 ecx, eax
  000eb	81 e1 03 00 00
	80		 and	 ecx, -2147483645	; 80000003H
  000f1	79 05		 jns	 SHORT $LN1103@LoadProper
  000f3	49		 dec	 ecx
  000f4	83 c9 fc	 or	 ecx, -4			; fffffffcH
  000f7	41		 inc	 ecx
$LN1103@LoadProper:
  000f8	b2 ed		 mov	 dl, -19			; ffffffedH
  000fa	2a d1		 sub	 dl, cl
  000fc	30 54 05 e8	 xor	 BYTE PTR __k$535449[ebp+eax], dl
  00100	40		 inc	 eax
  00101	83 f8 0b	 cmp	 eax, 11			; 0000000bH
  00104	7c e3		 jl	 SHORT $LL315@LoadProper
  00106	0f 57 c0	 xorps	 xmm0, xmm0
  00109	51		 push	 ecx
  0010a	8d 45 e8	 lea	 eax, DWORD PTR __k$535449[ebp]
  0010d	f3 0f 11 04 24	 movss	 DWORD PTR [esp], xmm0
  00112	50		 push	 eax
  00113	8b cf		 mov	 ecx, edi
  00115	ff 15 00 00 00
	00		 call	 DWORD PTR __imp_?LoadFloat@ioINILoader@@QAEMPBDM@Z
  0011b	d9 9e 58 09 00
	00		 fstp	 DWORD PTR [esi+2392]
  00121	6a 03		 push	 3

; 104  : 	m_dwReturnDuration = rkLoader.LoadInt_e( "return_duration", 0 );

  00123	c7 45 e4 9f 89
	9f 9f		 mov	 DWORD PTR __k$535587[ebp], -1616934497 ; 9f9f899fH
  0012a	c7 45 e8 9f 82
	b4 8e		 mov	 DWORD PTR __k$535587[ebp+4], -1900772705 ; 8eb4829fH
  00131	c7 45 ec 98 9e
	8a 9e		 mov	 DWORD PTR __k$535587[ebp+8], -1635082600 ; 9e8a9e98H
  00138	8d 45 e4	 lea	 eax, DWORD PTR __k$535587[ebp]
  0013b	c7 45 f0 84 83
	85 00		 mov	 DWORD PTR __k$535587[ebp+12], 8749956 ; 00858384H
  00142	59		 pop	 ecx
$LL424@LoadProper:
  00143	81 30 ed ec eb
	ea		 xor	 DWORD PTR [eax], -353637139 ; eaebecedH
  00149	83 c0 04	 add	 eax, 4
  0014c	49		 dec	 ecx
  0014d	75 f4		 jne	 SHORT $LL424@LoadProper
  0014f	6a 0c		 push	 12			; 0000000cH
  00151	58		 pop	 eax
$LL421@LoadProper:
  00152	8b c8		 mov	 ecx, eax
  00154	81 e1 03 00 00
	80		 and	 ecx, -2147483645	; 80000003H
  0015a	79 05		 jns	 SHORT $LN1104@LoadProper
  0015c	49		 dec	 ecx
  0015d	83 c9 fc	 or	 ecx, -4			; fffffffcH
  00160	41		 inc	 ecx
$LN1104@LoadProper:
  00161	b2 ed		 mov	 dl, -19			; ffffffedH
  00163	2a d1		 sub	 dl, cl
  00165	30 54 05 e4	 xor	 BYTE PTR __k$535587[ebp+eax], dl
  00169	40		 inc	 eax
  0016a	83 f8 0f	 cmp	 eax, 15			; 0000000fH
  0016d	7c e3		 jl	 SHORT $LL421@LoadProper
  0016f	53		 push	 ebx
  00170	8d 45 e4	 lea	 eax, DWORD PTR __k$535587[ebp]
  00173	50		 push	 eax
  00174	8b cf		 mov	 ecx, edi
  00176	ff 15 00 00 00
	00		 call	 DWORD PTR __imp_?LoadInt@ioINILoader@@QAEHPBDH@Z
  0017c	6a 04		 push	 4
  0017e	89 86 d4 08 00
	00		 mov	 DWORD PTR [esi+2260], eax

; 105  : 	m_fEndRange = rkLoader.LoadFloat_e( "return_end_range", 0.0f );

  00184	c7 45 e4 9f 89
	9f 9f		 mov	 DWORD PTR __k$535712[ebp], -1616934497 ; 9f9f899fH
  0018b	c7 45 e8 9f 82
	b4 8f		 mov	 DWORD PTR __k$535712[ebp+4], -1883995489 ; 8fb4829fH
  00192	c7 45 ec 83 88
	b4 98		 mov	 DWORD PTR __k$535712[ebp+8], -1732999037 ; 98b48883H
  00199	c7 45 f0 8c 82
	8c 8f		 mov	 DWORD PTR __k$535712[ebp+12], -1886616948 ; 8f8c828cH
  001a0	8d 45 e4	 lea	 eax, DWORD PTR __k$535712[ebp]
  001a3	88 5d f4	 mov	 BYTE PTR __k$535712[ebp+16], bl
  001a6	59		 pop	 ecx
$LL530@LoadProper:
  001a7	81 30 ed ec eb
	ea		 xor	 DWORD PTR [eax], -353637139 ; eaebecedH
  001ad	83 c0 04	 add	 eax, 4
  001b0	49		 dec	 ecx
  001b1	75 f4		 jne	 SHORT $LL530@LoadProper
  001b3	0f 57 c0	 xorps	 xmm0, xmm0
  001b6	51		 push	 ecx
  001b7	8d 45 e4	 lea	 eax, DWORD PTR __k$535712[ebp]
  001ba	f3 0f 11 04 24	 movss	 DWORD PTR [esp], xmm0
  001bf	50		 push	 eax
  001c0	8b cf		 mov	 ecx, edi
  001c2	ff 15 00 00 00
	00		 call	 DWORD PTR __imp_?LoadFloat@ioINILoader@@QAEMPBDM@Z
  001c8	d9 9e 44 09 00
	00		 fstp	 DWORD PTR [esi+2372]
  001ce	6a 04		 push	 4

; 106  : 
; 107  : 	m_MoveType = (ControlMoveType)rkLoader.LoadInt_e( "control_move_type", CMT_NO1 );

  001d0	c7 45 e0 8e 83
	85 9e		 mov	 DWORD PTR __k$535837[ebp], -1635417202 ; 9e85838eH
  001d7	c7 45 e4 9f 83
	87 b5		 mov	 DWORD PTR __k$535837[ebp+4], -1249410145 ; b587839fH
  001de	c7 45 e8 80 83
	9d 8f		 mov	 DWORD PTR __k$535837[ebp+8], -1885502592 ; 8f9d8380H
  001e5	c7 45 ec b2 98
	92 9a		 mov	 DWORD PTR __k$535837[ebp+12], -1701668686 ; 9a9298b2H
  001ec	8d 45 e0	 lea	 eax, DWORD PTR __k$535837[ebp]
  001ef	66 c7 45 f0 88
	00		 mov	 WORD PTR __k$535837[ebp+16], 136 ; 00000088H
  001f5	59		 pop	 ecx
$LL636@LoadProper:
  001f6	81 30 ed ec eb
	ea		 xor	 DWORD PTR [eax], -353637139 ; eaebecedH
  001fc	83 c0 04	 add	 eax, 4
  001ff	49		 dec	 ecx
  00200	75 f4		 jne	 SHORT $LL636@LoadProper
  00202	80 75 f0 ed	 xor	 BYTE PTR __k$535837[ebp+16], -19 ; ffffffedH
  00206	6a 01		 push	 1
  00208	8d 45 e0	 lea	 eax, DWORD PTR __k$535837[ebp]
  0020b	50		 push	 eax
  0020c	8b cf		 mov	 ecx, edi
  0020e	ff 15 00 00 00
	00		 call	 DWORD PTR __imp_?LoadInt@ioINILoader@@QAEHPBDH@Z
  00214	6a 04		 push	 4
  00216	89 86 98 08 00
	00		 mov	 DWORD PTR [esi+2200], eax

; 108  : 
; 109  : 	m_bIgnoreCharMove = rkLoader.LoadBool_e( "ignore_char_move", false );

  0021c	c7 45 e4 84 8b
	85 85		 mov	 DWORD PTR __k$535962[ebp], -2054845564 ; 85858b84H
  00223	c7 45 e8 9f 89
	b4 89		 mov	 DWORD PTR __k$535962[ebp+4], -1984656993 ; 89b4899fH
  0022a	c7 45 ec 85 8d
	99 b5		 mov	 DWORD PTR __k$535962[ebp+8], -1248227963 ; b5998d85H
  00231	c7 45 f0 80 83
	9d 8f		 mov	 DWORD PTR __k$535962[ebp+12], -1885502592 ; 8f9d8380H
  00238	8d 45 e4	 lea	 eax, DWORD PTR __k$535962[ebp]
  0023b	88 5d f4	 mov	 BYTE PTR __k$535962[ebp+16], bl
  0023e	59		 pop	 ecx
$LL742@LoadProper:
  0023f	81 30 ed ec eb
	ea		 xor	 DWORD PTR [eax], -353637139 ; eaebecedH
  00245	83 c0 04	 add	 eax, 4
  00248	49		 dec	 ecx
  00249	75 f4		 jne	 SHORT $LL742@LoadProper
  0024b	53		 push	 ebx
  0024c	8d 45 e4	 lea	 eax, DWORD PTR __k$535962[ebp]
  0024f	50		 push	 eax
  00250	8b cf		 mov	 ecx, edi
  00252	ff 15 00 00 00
	00		 call	 DWORD PTR __imp_?LoadBool@ioINILoader@@QAE_NPBD_N@Z
  00258	6a 03		 push	 3
  0025a	88 86 55 09 00
	00		 mov	 BYTE PTR [esi+2389], al

; 110  : 
; 111  : 	// NO2
; 112  : 	m_fTargetOffset = rkLoader.LoadFloat_e( "target_offset", 0.0f );

  00260	c7 45 e4 99 8d
	99 8d		 mov	 DWORD PTR __k$536087[ebp], -1919316583 ; 8d998d99H
  00267	c7 45 e8 88 98
	b4 85		 mov	 DWORD PTR __k$536087[ebp+4], -2051762040 ; 85b49888H
  0026e	c7 45 ec 8b 8a
	98 8f		 mov	 DWORD PTR __k$536087[ebp+8], -1885828469 ; 8f988a8bH
  00275	8d 45 e4	 lea	 eax, DWORD PTR __k$536087[ebp]
  00278	66 c7 45 f0 99
	00		 mov	 WORD PTR __k$536087[ebp+12], 153 ; 00000099H
  0027e	59		 pop	 ecx
$LL848@LoadProper:
  0027f	81 30 ed ec eb
	ea		 xor	 DWORD PTR [eax], -353637139 ; eaebecedH
  00285	83 c0 04	 add	 eax, 4
  00288	49		 dec	 ecx
  00289	75 f4		 jne	 SHORT $LL848@LoadProper
  0028b	0f 57 c0	 xorps	 xmm0, xmm0
  0028e	80 75 f0 ed	 xor	 BYTE PTR __k$536087[ebp+12], -19 ; ffffffedH
  00292	51		 push	 ecx
  00293	8d 45 e4	 lea	 eax, DWORD PTR __k$536087[ebp]
  00296	f3 0f 11 04 24	 movss	 DWORD PTR [esp], xmm0
  0029b	50		 push	 eax
  0029c	8b cf		 mov	 ecx, edi
  0029e	ff 15 00 00 00
	00		 call	 DWORD PTR __imp_?LoadFloat@ioINILoader@@QAEMPBDM@Z
  002a4	d9 9e 5c 09 00
	00		 fstp	 DWORD PTR [esi+2396]
  002aa	6a 03		 push	 3

; 113  : 	m_fTargetOffset2 = rkLoader.LoadFloat_e( "target_offset2", 0.0f );

  002ac	c7 45 e4 99 8d
	99 8d		 mov	 DWORD PTR __k$536212[ebp], -1919316583 ; 8d998d99H
  002b3	c7 45 e8 88 98
	b4 85		 mov	 DWORD PTR __k$536212[ebp+4], -2051762040 ; 85b49888H
  002ba	c7 45 ec 8b 8a
	98 8f		 mov	 DWORD PTR __k$536212[ebp+8], -1885828469 ; 8f988a8bH
  002c1	66 c7 45 f0 99
	de		 mov	 WORD PTR __k$536212[ebp+12], 56985 ; 0000de99H
  002c7	8d 45 e4	 lea	 eax, DWORD PTR __k$536212[ebp]
  002ca	88 5d f2	 mov	 BYTE PTR __k$536212[ebp+14], bl
  002cd	59		 pop	 ecx
$LL954@LoadProper:
  002ce	81 30 ed ec eb
	ea		 xor	 DWORD PTR [eax], -353637139 ; eaebecedH
  002d4	83 c0 04	 add	 eax, 4
  002d7	49		 dec	 ecx
  002d8	75 f4		 jne	 SHORT $LL954@LoadProper
  002da	6a 0c		 push	 12			; 0000000cH
  002dc	58		 pop	 eax
$LL951@LoadProper:
  002dd	8b c8		 mov	 ecx, eax
  002df	81 e1 03 00 00
	80		 and	 ecx, -2147483645	; 80000003H
  002e5	79 05		 jns	 SHORT $LN1105@LoadProper
  002e7	49		 dec	 ecx
  002e8	83 c9 fc	 or	 ecx, -4			; fffffffcH
  002eb	41		 inc	 ecx
$LN1105@LoadProper:
  002ec	b2 ed		 mov	 dl, -19			; ffffffedH
  002ee	2a d1		 sub	 dl, cl
  002f0	30 54 05 e4	 xor	 BYTE PTR __k$536212[ebp+eax], dl
  002f4	40		 inc	 eax
  002f5	83 f8 0e	 cmp	 eax, 14			; 0000000eH
  002f8	7c e3		 jl	 SHORT $LL951@LoadProper
  002fa	0f 57 c0	 xorps	 xmm0, xmm0
  002fd	51		 push	 ecx
  002fe	8d 45 e4	 lea	 eax, DWORD PTR __k$536212[ebp]
  00301	f3 0f 11 04 24	 movss	 DWORD PTR [esp], xmm0
  00306	50		 push	 eax
  00307	8b cf		 mov	 ecx, edi
  00309	ff 15 00 00 00
	00		 call	 DWORD PTR __imp_?LoadFloat@ioINILoader@@QAEMPBDM@Z
  0030f	d9 9e 60 09 00
	00		 fstp	 DWORD PTR [esi+2400]
  00315	6a 03		 push	 3

; 114  : 
; 115  : 	//
; 116  : 	m_bRotateMoveDir = rkLoader.LoadBool_e( "rotate_move_dir", false );

  00317	c7 45 e4 9f 83
	9f 8b		 mov	 DWORD PTR __k$536416[ebp], -1952480353 ; 8b9f839fH
  0031e	c7 45 e8 99 89
	b4 87		 mov	 DWORD PTR __k$536416[ebp+4], -2018211431 ; 87b48999H
  00325	c7 45 ec 82 9a
	8e b5		 mov	 DWORD PTR __k$536416[ebp+8], -1248945534 ; b58e9a82H
  0032c	8d 45 e4	 lea	 eax, DWORD PTR __k$536416[ebp]
  0032f	c7 45 f0 89 85
	99 00		 mov	 DWORD PTR __k$536416[ebp+12], 10061193 ; 00998589H
  00336	59		 pop	 ecx
$LL1060@LoadProper:
  00337	81 30 ed ec eb
	ea		 xor	 DWORD PTR [eax], -353637139 ; eaebecedH
  0033d	83 c0 04	 add	 eax, 4
  00340	49		 dec	 ecx
  00341	75 f4		 jne	 SHORT $LL1060@LoadProper
  00343	6a 0c		 push	 12			; 0000000cH
  00345	58		 pop	 eax
$LL1057@LoadProper:
  00346	8b c8		 mov	 ecx, eax
  00348	81 e1 03 00 00
	80		 and	 ecx, -2147483645	; 80000003H
  0034e	79 05		 jns	 SHORT $LN1106@LoadProper
  00350	49		 dec	 ecx
  00351	83 c9 fc	 or	 ecx, -4			; fffffffcH
  00354	41		 inc	 ecx
$LN1106@LoadProper:
  00355	b2 ed		 mov	 dl, -19			; ffffffedH
  00357	2a d1		 sub	 dl, cl
  00359	30 54 05 e4	 xor	 BYTE PTR __k$536416[ebp+eax], dl
  0035d	40		 inc	 eax
  0035e	83 f8 0f	 cmp	 eax, 15			; 0000000fH
  00361	7c e3		 jl	 SHORT $LL1057@LoadProper
  00363	53		 push	 ebx
  00364	8d 45 e4	 lea	 eax, DWORD PTR __k$536416[ebp]
  00367	50		 push	 eax
  00368	8b cf		 mov	 ecx, edi
  0036a	ff 15 00 00 00
	00		 call	 DWORD PTR __imp_?LoadBool@ioINILoader@@QAE_NPBD_N@Z

; 117  : }

  00370	8b 4d fc	 mov	 ecx, DWORD PTR __$ArrayPad$[ebp]
  00373	5f		 pop	 edi
  00374	88 86 54 09 00
	00		 mov	 BYTE PTR [esi+2388], al
  0037a	5e		 pop	 esi
  0037b	33 cd		 xor	 ecx, ebp
  0037d	5b		 pop	 ebx
  0037e	e8 00 00 00 00	 call	 @__security_check_cookie@4
  00383	c9		 leave
  00384	c2 04 00	 ret	 4
?LoadProperty@ioControlReturnWeapon@@UAEXAAVioINILoader@@@Z ENDP ; ioControlReturnWeapon::LoadProperty
_TEXT	ENDS
PUBLIC	__$ArrayPad$
; Function compile flags: /Ogsp
;	COMDAT ?Process@ioControlReturnWeapon@@UAEXMPAVioPlayStage@@@Z
_TEXT	SEGMENT
_qtRot$ = -48						; size = 16
tv555 = -32						; size = 4
tv551 = -32						; size = 4
tv547 = -32						; size = 4
tv492 = -32						; size = 4
tv489 = -32						; size = 4
$T530723 = -28						; size = 12
_vNowPos$530721 = -16					; size = 12
$T530719 = -16						; size = 12
__$ArrayPad$ = -4					; size = 4
_fTimePerSec$ = 8					; size = 4
_pStage$ = 12						; size = 4
?Process@ioControlReturnWeapon@@UAEXMPAVioPlayStage@@@Z PROC ; ioControlReturnWeapon::Process, COMDAT
; _this$ = ecx

; 182  : {

  00000	55		 push	 ebp
  00001	8b ec		 mov	 ebp, esp
  00003	83 ec 30	 sub	 esp, 48			; 00000030H
  00006	a1 00 00 00 00	 mov	 eax, DWORD PTR ___security_cookie
  0000b	33 c5		 xor	 eax, ebp
  0000d	89 45 fc	 mov	 DWORD PTR __$ArrayPad$[ebp], eax

; 183  : 	if( fTimePerSec == 0.0f )

  00010	f3 0f 10 45 08	 movss	 xmm0, DWORD PTR _fTimePerSec$[ebp]
  00015	0f 2e 05 00 00
	00 00		 ucomiss xmm0, DWORD PTR __real@00000000
  0001c	56		 push	 esi
  0001d	8b 75 0c	 mov	 esi, DWORD PTR _pStage$[ebp]
  00020	9f		 lahf
  00021	57		 push	 edi
  00022	8b f9		 mov	 edi, ecx
  00024	f6 c4 44	 test	 ah, 68			; 00000044H
  00027	7a 37		 jp	 SHORT $LN16@Process

; 184  : 	{
; 185  : 		fTimePerSec = FLOAT0001;

  00029	b8 01 00 00 00	 mov	 eax, 1
  0002e	8b c8		 mov	 ecx, eax
  00030	b8 e8 03 00 00	 mov	 eax, 1000		; 000003e8H
  00035	89 4d e0	 mov	 DWORD PTR tv555[ebp], ecx
  00038	db 45 e0	 fild	 DWORD PTR tv555[ebp]
  0003b	85 c9		 test	 ecx, ecx
  0003d	79 06		 jns	 SHORT $LN42@Process
  0003f	d8 05 00 00 00
	00		 fadd	 DWORD PTR __real@4f800000
$LN42@Process:
  00045	89 45 e0	 mov	 DWORD PTR tv551[ebp], eax
  00048	db 45 e0	 fild	 DWORD PTR tv551[ebp]
  0004b	85 c0		 test	 eax, eax
  0004d	79 06		 jns	 SHORT $LN43@Process
  0004f	d8 05 00 00 00
	00		 fadd	 DWORD PTR __real@4f800000
$LN43@Process:
  00055	de f9		 fdivp	 ST(1), ST(0)
  00057	d9 5d e0	 fstp	 DWORD PTR tv547[ebp]
  0005a	d9 45 e0	 fld	 DWORD PTR tv547[ebp]
  0005d	d9 5d 08	 fstp	 DWORD PTR _fTimePerSec$[ebp]
$LN16@Process:

; 186  : 	}
; 187  : 
; 188  : 	D3DXVECTOR3 vMove;
; 189  : 	m_fCurMoveDistance = GetMoveSpeed() * fTimePerSec;

  00060	8b cf		 mov	 ecx, edi
  00062	e8 00 00 00 00	 call	 ?GetMoveSpeed@ioControlReturnWeapon@@QAEMXZ ; ioControlReturnWeapon::GetMoveSpeed
  00067	d8 4d 08	 fmul	 DWORD PTR _fTimePerSec$[ebp]

; 190  : 
; 191  : 	ioBaseChar *pOwner = GetOwner();

  0006a	8b cf		 mov	 ecx, edi
  0006c	d9 9f dc 08 00
	00		 fstp	 DWORD PTR [edi+2268]
  00072	e8 00 00 00 00	 call	 ?GetOwner@ioWeapon@@QBEPAVioBaseChar@@XZ ; ioWeapon::GetOwner

; 192  : 	if( !pOwner )

  00077	85 c0		 test	 eax, eax
  00079	75 0e		 jne	 SHORT $LN15@Process

; 193  : 	{
; 194  : 		SetDieState( pStage, false );

  0007b	50		 push	 eax
  0007c	56		 push	 esi
  0007d	8b cf		 mov	 ecx, edi
  0007f	e8 00 00 00 00	 call	 ?SetDieState@ioControlReturnWeapon@@QAEXPAVioPlayStage@@_N@Z ; ioControlReturnWeapon::SetDieState

; 195  : 		return;

  00084	e9 f7 01 00 00	 jmp	 $LN17@Process
$LN15@Process:

; 196  : 	}
; 197  : 
; 198  : 	switch( m_ReturnState )

  00089	8b 87 94 08 00
	00		 mov	 eax, DWORD PTR [edi+2196]
  0008f	53		 push	 ebx
  00090	33 db		 xor	 ebx, ebx
  00092	2b c3		 sub	 eax, ebx
  00094	74 1b		 je	 SHORT $LN12@Process
  00096	48		 dec	 eax
  00097	75 36		 jne	 SHORT $LN11@Process

; 204  : 		}
; 205  : 		break;
; 206  : 	case TRS_RETRUN:
; 207  : 		if( CheckMaxRange( fTimePerSec ) )

  00099	f3 0f 10 45 08	 movss	 xmm0, DWORD PTR _fTimePerSec$[ebp]
  0009e	51		 push	 ecx
  0009f	8b cf		 mov	 ecx, edi
  000a1	f3 0f 11 04 24	 movss	 DWORD PTR [esp], xmm0
  000a6	e8 00 00 00 00	 call	 ?CheckMaxRange@ioControlReturnWeapon@@IAE_NM@Z ; ioControlReturnWeapon::CheckMaxRange
  000ab	84 c0		 test	 al, al
  000ad	74 20		 je	 SHORT $LN11@Process

; 208  : 		{
; 209  : 			SetDieState( pStage, false );
; 210  : 			return;

  000af	eb 54		 jmp	 SHORT $LN46@Process
$LN12@Process:

; 199  : 	{
; 200  : 	case TRS_NONE:
; 201  : 		if( CheckMaxRange( fTimePerSec ) )

  000b1	f3 0f 10 45 08	 movss	 xmm0, DWORD PTR _fTimePerSec$[ebp]
  000b6	51		 push	 ecx
  000b7	8b cf		 mov	 ecx, edi
  000b9	f3 0f 11 04 24	 movss	 DWORD PTR [esp], xmm0
  000be	e8 00 00 00 00	 call	 ?CheckMaxRange@ioControlReturnWeapon@@IAE_NM@Z ; ioControlReturnWeapon::CheckMaxRange
  000c3	84 c0		 test	 al, al
  000c5	74 08		 je	 SHORT $LN11@Process

; 202  : 		{
; 203  : 			SetReturnWay( pStage );

  000c7	56		 push	 esi
  000c8	8b cf		 mov	 ecx, edi
  000ca	e8 00 00 00 00	 call	 ?SetReturnWay@ioControlReturnWeapon@@QAEXPAVioPlayStage@@@Z ; ioControlReturnWeapon::SetReturnWay
$LN11@Process:

; 211  : 		}
; 212  : 		break;
; 213  : 	}
; 214  : 
; 215  : 	// check movetype
; 216  : 	switch( m_MoveType )

  000cf	8b 87 98 08 00
	00		 mov	 eax, DWORD PTR [edi+2200]
  000d5	48		 dec	 eax
  000d6	74 17		 je	 SHORT $LN6@Process
  000d8	48		 dec	 eax
  000d9	75 38		 jne	 SHORT $LN5@Process

; 223  : 		}
; 224  : 		break;
; 225  : 	case CMT_NO2:
; 226  : 		if( CheckOwnerControl2( fTimePerSec ) )

  000db	f3 0f 10 45 08	 movss	 xmm0, DWORD PTR _fTimePerSec$[ebp]
  000e0	51		 push	 ecx
  000e1	8b cf		 mov	 ecx, edi
  000e3	f3 0f 11 04 24	 movss	 DWORD PTR [esp], xmm0
  000e8	e8 00 00 00 00	 call	 ?CheckOwnerControl2@ioControlReturnWeapon@@IAE_NM@Z ; ioControlReturnWeapon::CheckOwnerControl2

; 227  : 		{
; 228  : 			SetDieState( pStage, false );
; 229  : 			return;

  000ed	eb 12		 jmp	 SHORT $LN45@Process
$LN6@Process:

; 217  : 	{
; 218  : 	case CMT_NO1:
; 219  : 		if( CheckOwnerControl1( fTimePerSec ) )

  000ef	f3 0f 10 45 08	 movss	 xmm0, DWORD PTR _fTimePerSec$[ebp]
  000f4	51		 push	 ecx
  000f5	8b cf		 mov	 ecx, edi
  000f7	f3 0f 11 04 24	 movss	 DWORD PTR [esp], xmm0
  000fc	e8 00 00 00 00	 call	 ?CheckOwnerControl1@ioControlReturnWeapon@@IAE_NM@Z ; ioControlReturnWeapon::CheckOwnerControl1
$LN45@Process:
  00101	84 c0		 test	 al, al
  00103	74 0e		 je	 SHORT $LN5@Process
$LN46@Process:

; 220  : 		{
; 221  : 			SetDieState( pStage, false );

  00105	53		 push	 ebx
  00106	56		 push	 esi
  00107	8b cf		 mov	 ecx, edi
  00109	e8 00 00 00 00	 call	 ?SetDieState@ioControlReturnWeapon@@QAEXPAVioPlayStage@@_N@Z ; ioControlReturnWeapon::SetDieState

; 222  : 			return;

  0010e	e9 6c 01 00 00	 jmp	 $LN41@Process
$LN5@Process:

; 230  : 		}
; 231  : 		break;
; 232  : 	}
; 233  : 
; 234  : 	D3DXQUATERNION qtRot;
; 235  : 	ioMath::CalcDirectionQuaternion( qtRot, -m_vCurMoveDir );

  00113	f3 0f 10 05 00
	00 00 00	 movss	 xmm0, DWORD PTR __mask@@NegFloat@
  0011b	f3 0f 10 8f ac
	08 00 00	 movss	 xmm1, DWORD PTR [edi+2220]
  00123	8b 35 00 00 00
	00		 mov	 esi, DWORD PTR __imp_?CalcDirectionQuaternion@ioMath@@SAXAAUD3DXQUATERNION@@ABUD3DXVECTOR3@@@Z
  00129	0f 57 c8	 xorps	 xmm1, xmm0
  0012c	f3 0f 11 4d f0	 movss	 DWORD PTR $T530719[ebp], xmm1
  00131	f3 0f 10 8f b0
	08 00 00	 movss	 xmm1, DWORD PTR [edi+2224]
  00139	0f 57 c8	 xorps	 xmm1, xmm0
  0013c	8d 45 f0	 lea	 eax, DWORD PTR $T530719[ebp]
  0013f	50		 push	 eax
  00140	f3 0f 11 4d f4	 movss	 DWORD PTR $T530719[ebp+4], xmm1
  00145	f3 0f 10 8f b4
	08 00 00	 movss	 xmm1, DWORD PTR [edi+2228]
  0014d	8d 45 d0	 lea	 eax, DWORD PTR _qtRot$[ebp]
  00150	0f 57 c8	 xorps	 xmm1, xmm0
  00153	50		 push	 eax
  00154	f3 0f 11 4d f8	 movss	 DWORD PTR $T530719[ebp+8], xmm1
  00159	ff d6		 call	 esi
  0015b	59		 pop	 ecx
  0015c	59		 pop	 ecx

; 236  : 
; 237  : 	if( m_bRotateMoveDir )

  0015d	38 9f 54 09 00
	00		 cmp	 BYTE PTR [edi+2388], bl
  00163	0f 84 ab 00 00
	00		 je	 $LN2@Process

; 238  : 	{
; 239  : 		D3DXVECTOR3 vNowPos = GetPosition() - m_vPrePos;

  00169	8b 07		 mov	 eax, DWORD PTR [edi]
  0016b	8b cf		 mov	 ecx, edi
  0016d	ff 50 70	 call	 DWORD PTR [eax+112]
  00170	f3 0f 10 40 04	 movss	 xmm0, DWORD PTR [eax+4]
  00175	f3 0f 10 8f 4c
	09 00 00	 movss	 xmm1, DWORD PTR [edi+2380]
  0017d	f3 0f 10 97 50
	09 00 00	 movss	 xmm2, DWORD PTR [edi+2384]
  00185	f3 0f 10 9f 48
	09 00 00	 movss	 xmm3, DWORD PTR [edi+2376]
  0018d	0f 5a c9	 cvtps2pd xmm1, xmm1
  00190	0f 5a c0	 cvtps2pd xmm0, xmm0
  00193	f2 0f 5c c1	 subsd	 xmm0, xmm1
  00197	f3 0f 10 48 08	 movss	 xmm1, DWORD PTR [eax+8]
  0019c	0f 5a d2	 cvtps2pd xmm2, xmm2
  0019f	0f 5a c9	 cvtps2pd xmm1, xmm1
  001a2	f2 0f 5c ca	 subsd	 xmm1, xmm2
  001a6	f3 0f 10 10	 movss	 xmm2, DWORD PTR [eax]

; 240  : 		D3DXVec3Normalize( &vNowPos, &vNowPos );

  001aa	8d 45 f0	 lea	 eax, DWORD PTR _vNowPos$530721[ebp]
  001ad	0f 5a d2	 cvtps2pd xmm2, xmm2
  001b0	0f 5a db	 cvtps2pd xmm3, xmm3
  001b3	50		 push	 eax
  001b4	f2 0f 5c d3	 subsd	 xmm2, xmm3
  001b8	66 0f 5a c0	 cvtpd2ps xmm0, xmm0
  001bc	66 0f 5a c9	 cvtpd2ps xmm1, xmm1
  001c0	66 0f 5a d2	 cvtpd2ps xmm2, xmm2
  001c4	50		 push	 eax
  001c5	f3 0f 11 55 f0	 movss	 DWORD PTR _vNowPos$530721[ebp], xmm2
  001ca	f3 0f 11 45 f4	 movss	 DWORD PTR _vNowPos$530721[ebp+4], xmm0
  001cf	f3 0f 11 4d f8	 movss	 DWORD PTR _vNowPos$530721[ebp+8], xmm1
  001d4	e8 00 00 00 00	 call	 _D3DXVec3Normalize@8

; 241  : 		ioMath::CalcDirectionQuaternion( qtRot, -vNowPos );

  001d9	f3 0f 10 05 00
	00 00 00	 movss	 xmm0, DWORD PTR __mask@@NegFloat@
  001e1	f3 0f 10 4d f0	 movss	 xmm1, DWORD PTR _vNowPos$530721[ebp]
  001e6	0f 57 c8	 xorps	 xmm1, xmm0
  001e9	f3 0f 11 4d e4	 movss	 DWORD PTR $T530723[ebp], xmm1
  001ee	f3 0f 10 4d f4	 movss	 xmm1, DWORD PTR _vNowPos$530721[ebp+4]
  001f3	0f 57 c8	 xorps	 xmm1, xmm0
  001f6	8d 45 e4	 lea	 eax, DWORD PTR $T530723[ebp]
  001f9	50		 push	 eax
  001fa	f3 0f 11 4d e8	 movss	 DWORD PTR $T530723[ebp+4], xmm1
  001ff	f3 0f 10 4d f8	 movss	 xmm1, DWORD PTR _vNowPos$530721[ebp+8]
  00204	8d 45 d0	 lea	 eax, DWORD PTR _qtRot$[ebp]
  00207	0f 57 c8	 xorps	 xmm1, xmm0
  0020a	50		 push	 eax
  0020b	f3 0f 11 4d ec	 movss	 DWORD PTR $T530723[ebp+8], xmm1
  00210	ff d6		 call	 esi
  00212	59		 pop	 ecx
  00213	59		 pop	 ecx
$LN2@Process:

; 242  : 	}
; 243  : 
; 244  : 	SetOrientation( qtRot );

  00214	8d 45 d0	 lea	 eax, DWORD PTR _qtRot$[ebp]
  00217	50		 push	 eax
  00218	8b cf		 mov	 ecx, edi
  0021a	e8 00 00 00 00	 call	 ?SetOrientation@ioWeapon@@QAEXABUD3DXQUATERNION@@@Z ; ioWeapon::SetOrientation

; 245  : 
; 246  : 	UpdateWorldAttackBox( fTimePerSec, false );

  0021f	f3 0f 10 45 08	 movss	 xmm0, DWORD PTR _fTimePerSec$[ebp]
  00224	8b 07		 mov	 eax, DWORD PTR [edi]
  00226	53		 push	 ebx
  00227	51		 push	 ecx
  00228	8b cf		 mov	 ecx, edi
  0022a	f3 0f 11 04 24	 movss	 DWORD PTR [esp], xmm0
  0022f	ff 90 38 01 00
	00		 call	 DWORD PTR [eax+312]

; 247  : 
; 248  : 	if( m_pThrowMesh )

  00235	39 9f 9c 08 00
	00		 cmp	 DWORD PTR [edi+2204], ebx
  0023b	74 30		 je	 SHORT $LN1@Process

; 249  : 		m_pThrowMesh->Update( fTimePerSec * FLOAT1000 );

  0023d	b8 e8 03 00 00	 mov	 eax, 1000		; 000003e8H
  00242	8b 8f 9c 08 00
	00		 mov	 ecx, DWORD PTR [edi+2204]
  00248	83 c1 14	 add	 ecx, 20			; 00000014H
  0024b	8b 11		 mov	 edx, DWORD PTR [ecx]
  0024d	89 45 e0	 mov	 DWORD PTR tv492[ebp], eax
  00250	db 45 e0	 fild	 DWORD PTR tv492[ebp]
  00253	85 c0		 test	 eax, eax
  00255	79 06		 jns	 SHORT $LN44@Process
  00257	d8 05 00 00 00
	00		 fadd	 DWORD PTR __real@4f800000
$LN44@Process:
  0025d	d8 4d 08	 fmul	 DWORD PTR _fTimePerSec$[ebp]
  00260	51		 push	 ecx
  00261	d9 5d e0	 fstp	 DWORD PTR tv489[ebp]
  00264	d9 45 e0	 fld	 DWORD PTR tv489[ebp]
  00267	d9 1c 24	 fstp	 DWORD PTR [esp]
  0026a	ff 52 40	 call	 DWORD PTR [edx+64]
$LN1@Process:

; 250  : 
; 251  : 	m_vPrePos = GetPosition();

  0026d	8b 07		 mov	 eax, DWORD PTR [edi]
  0026f	8b cf		 mov	 ecx, edi
  00271	ff 50 70	 call	 DWORD PTR [eax+112]
  00274	81 c7 48 09 00
	00		 add	 edi, 2376		; 00000948H
  0027a	8b f0		 mov	 esi, eax
  0027c	a5		 movsd
  0027d	a5		 movsd
  0027e	a5		 movsd
$LN41@Process:
  0027f	5b		 pop	 ebx
$LN17@Process:

; 252  : }

  00280	8b 4d fc	 mov	 ecx, DWORD PTR __$ArrayPad$[ebp]
  00283	5f		 pop	 edi
  00284	33 cd		 xor	 ecx, ebp
  00286	5e		 pop	 esi
  00287	e8 00 00 00 00	 call	 @__security_check_cookie@4
  0028c	c9		 leave
  0028d	c2 08 00	 ret	 8
?Process@ioControlReturnWeapon@@UAEXMPAVioPlayStage@@@Z ENDP ; ioControlReturnWeapon::Process
_TEXT	ENDS
EXTRN	?GetExplosionEffectName@ioWeapon@@QBEABVioHashString@@XZ:PROC ; ioWeapon::GetExplosionEffectName
EXTRN	__imp_?GetCenter@ioOrientBox@@QBEABUD3DXVECTOR3@@XZ:PROC
EXTRN	?GetWorldAttackBox@ioWeapon@@QBEABVioOrientBox@@_N@Z:PROC ; ioWeapon::GetWorldAttackBox
; Function compile flags: /Ogsp
;	COMDAT ?TestMapCollision@ioControlReturnWeapon@@UAE_NPAVioOpcodeShape@@PAVioPlayStage@@PBUD3DXMATRIX@@@Z
_TEXT	SEGMENT
_pShape$ = 8						; size = 4
_pStage$ = 12						; size = 4
_pShapeWorldMat$ = 16					; size = 4
?TestMapCollision@ioControlReturnWeapon@@UAE_NPAVioOpcodeShape@@PAVioPlayStage@@PBUD3DXMATRIX@@@Z PROC ; ioControlReturnWeapon::TestMapCollision, COMDAT
; _this$ = ecx

; 731  : {

  00000	55		 push	 ebp
  00001	8b ec		 mov	 ebp, esp
  00003	56		 push	 esi
  00004	57		 push	 edi

; 732  : 	//pShape        TRUE
; 733  : 	//     1   N   TestMapCollision()   
; 734  : 
; 735  : 	const ioOrientBox &rkAttackBox = GetWorldAttackBox( true );

  00005	6a 01		 push	 1
  00007	8b f1		 mov	 esi, ecx
  00009	e8 00 00 00 00	 call	 ?GetWorldAttackBox@ioWeapon@@QBEABVioOrientBox@@_N@Z ; ioWeapon::GetWorldAttackBox

; 736  : 	if( pShape->TestIntersection( pShapeWorldMat, rkAttackBox ) )

  0000e	8b 4d 08	 mov	 ecx, DWORD PTR _pShape$[ebp]
  00011	8b f8		 mov	 edi, eax
  00013	8b 01		 mov	 eax, DWORD PTR [ecx]
  00015	57		 push	 edi
  00016	ff 75 10	 push	 DWORD PTR _pShapeWorldMat$[ebp]
  00019	ff 50 24	 call	 DWORD PTR [eax+36]
  0001c	84 c0		 test	 al, al
  0001e	74 53		 je	 SHORT $LN2@TestMapCol

; 737  : 	{
; 738  : 		pStage->CreateMapEffect( GetExplosionEffectName(), rkAttackBox.GetCenter(), GetScale() );

  00020	8b ce		 mov	 ecx, esi
  00022	e8 00 00 00 00	 call	 ?GetScale@ioWeapon@@QBEABUD3DXVECTOR3@@XZ ; ioWeapon::GetScale
  00027	50		 push	 eax
  00028	8b cf		 mov	 ecx, edi
  0002a	ff 15 00 00 00
	00		 call	 DWORD PTR __imp_?GetCenter@ioOrientBox@@QBEABUD3DXVECTOR3@@XZ
  00030	50		 push	 eax
  00031	8b ce		 mov	 ecx, esi
  00033	e8 00 00 00 00	 call	 ?GetExplosionEffectName@ioWeapon@@QBEABVioHashString@@XZ ; ioWeapon::GetExplosionEffectName
  00038	8b 4d 0c	 mov	 ecx, DWORD PTR _pStage$[ebp]
  0003b	50		 push	 eax
  0003c	e8 00 00 00 00	 call	 ?CreateMapEffect@ioPlayStage@@QAEPAVioMapEffect@@ABVioHashString@@ABUD3DXVECTOR3@@1@Z ; ioPlayStage::CreateMapEffect

; 739  : 
; 740  : 		PlayWoundedSound( NULL );

  00041	8b 06		 mov	 eax, DWORD PTR [esi]
  00043	6a 00		 push	 0
  00045	8b ce		 mov	 ecx, esi
  00047	ff 50 54	 call	 DWORD PTR [eax+84]

; 741  : 
; 742  : 		ioBaseChar *pOwner = GetOwner();

  0004a	8b ce		 mov	 ecx, esi
  0004c	e8 00 00 00 00	 call	 ?GetOwner@ioWeapon@@QBEPAVioBaseChar@@XZ ; ioWeapon::GetOwner

; 743  : 		if( pOwner && pOwner->IsNeedProcess() )

  00051	85 c0		 test	 eax, eax
  00053	74 1a		 je	 SHORT $LN1@TestMapCol
  00055	8b 10		 mov	 edx, DWORD PTR [eax]
  00057	8b c8		 mov	 ecx, eax
  00059	ff 92 00 01 00
	00		 call	 DWORD PTR [edx+256]
  0005f	84 c0		 test	 al, al
  00061	74 0c		 je	 SHORT $LN1@TestMapCol

; 744  : 			SetDieState( pStage, true );

  00063	6a 01		 push	 1
  00065	ff 75 0c	 push	 DWORD PTR _pStage$[ebp]
  00068	8b ce		 mov	 ecx, esi
  0006a	e8 00 00 00 00	 call	 ?SetDieState@ioControlReturnWeapon@@QAEXPAVioPlayStage@@_N@Z ; ioControlReturnWeapon::SetDieState
$LN1@TestMapCol:

; 745  : 
; 746  : 		return true;

  0006f	b0 01		 mov	 al, 1
  00071	eb 02		 jmp	 SHORT $LN3@TestMapCol
$LN2@TestMapCol:

; 747  : 	}
; 748  : 
; 749  : 	return false;

  00073	32 c0		 xor	 al, al
$LN3@TestMapCol:
  00075	5f		 pop	 edi
  00076	5e		 pop	 esi

; 750  : }

  00077	5d		 pop	 ebp
  00078	c2 0c 00	 ret	 12			; 0000000cH
?TestMapCollision@ioControlReturnWeapon@@UAE_NPAVioOpcodeShape@@PAVioPlayStage@@PBUD3DXMATRIX@@@Z ENDP ; ioControlReturnWeapon::TestMapCollision
_TEXT	ENDS
PUBLIC	?GetTeam@ioPlayEntity@@QBE?AW4TeamType@@XZ	; ioPlayEntity::GetTeam
; Function compile flags: /Ogsp
; File d:\lost saga for developer\youtube\tutorial\source\src\lsclient\ioplayentity.h
;	COMDAT ?GetTeam@ioPlayEntity@@QBE?AW4TeamType@@XZ
_TEXT	SEGMENT
_value$536551 = -4					; size = 4
?GetTeam@ioPlayEntity@@QBE?AW4TeamType@@XZ PROC		; ioPlayEntity::GetTeam, COMDAT
; _this$ = ecx

; 107  : 	inline TeamType GetTeam() const { return m_TeamType; }

  00000	55		 push	 ebp
  00001	8b ec		 mov	 ebp, esp
  00003	51		 push	 ecx
  00004	8d 45 fc	 lea	 eax, DWORD PTR _value$536551[ebp]
  00007	50		 push	 eax
  00008	81 c1 90 00 00
	00		 add	 ecx, 144		; 00000090H
  0000e	e8 00 00 00 00	 call	 ?DecryptValueToPool@?$CEncrypt@W4TeamType@@@@QAEXPAW4TeamType@@@Z ; CEncrypt<enum TeamType>::DecryptValueToPool
  00013	8b 45 fc	 mov	 eax, DWORD PTR _value$536551[ebp]
  00016	c9		 leave
  00017	c3		 ret	 0
?GetTeam@ioPlayEntity@@QBE?AW4TeamType@@XZ ENDP		; ioPlayEntity::GetTeam
_TEXT	ENDS
PUBLIC	?GetTeam@ioWeapon@@QBE?AW4TeamType@@XZ		; ioWeapon::GetTeam
; Function compile flags: /Ogsp
; File d:\lost saga for developer\youtube\tutorial\source\src\lsclient\ioweapon.h
;	COMDAT ?GetTeam@ioWeapon@@QBE?AW4TeamType@@XZ
_TEXT	SEGMENT
_value$536558 = -4					; size = 4
?GetTeam@ioWeapon@@QBE?AW4TeamType@@XZ PROC		; ioWeapon::GetTeam, COMDAT
; _this$ = ecx

; 534  : 	inline TeamType GetTeam() const { return m_TeamType; }

  00000	55		 push	 ebp
  00001	8b ec		 mov	 ebp, esp
  00003	51		 push	 ecx
  00004	8d 45 fc	 lea	 eax, DWORD PTR _value$536558[ebp]
  00007	50		 push	 eax
  00008	83 c1 30	 add	 ecx, 48			; 00000030H
  0000b	e8 00 00 00 00	 call	 ?DecryptValueToPool@?$CEncrypt@W4TeamType@@@@QAEXPAW4TeamType@@@Z ; CEncrypt<enum TeamType>::DecryptValueToPool
  00010	8b 45 fc	 mov	 eax, DWORD PTR _value$536558[ebp]
  00013	c9		 leave
  00014	c3		 ret	 0
?GetTeam@ioWeapon@@QBE?AW4TeamType@@XZ ENDP		; ioWeapon::GetTeam
_TEXT	ENDS
PUBLIC	?_Tidy@?$basic_string@DU?$char_traits@D@std@@V?$allocator@D@2@@std@@QAEX_NI@Z ; std::basic_string<char,std::char_traits<char>,std::allocator<char> >::_Tidy
; Function compile flags: /Ogsp
; File c:\program files (x86)\microsoft visual studio 10.0\vc\include\xstring
;	COMDAT ?_Tidy@?$basic_string@DU?$char_traits@D@std@@V?$allocator@D@2@@std@@QAEX_NI@Z
_TEXT	SEGMENT
__Built$ = 8						; size = 1
__Newsize$ = 12						; size = 4
?_Tidy@?$basic_string@DU?$char_traits@D@std@@V?$allocator@D@2@@std@@QAEX_NI@Z PROC ; std::basic_string<char,std::char_traits<char>,std::allocator<char> >::_Tidy, COMDAT
; _this$ = ecx

; 1988 : 		{	// initialize buffer, deallocating any storage

  00000	55		 push	 ebp
  00001	8b ec		 mov	 ebp, esp

; 1989 : 		if (!_Built)

  00003	80 7d 08 00	 cmp	 BYTE PTR __Built$[ebp], 0
  00007	56		 push	 esi
  00008	57		 push	 edi
  00009	8b 7d 0c	 mov	 edi, DWORD PTR __Newsize$[ebp]
  0000c	8b f1		 mov	 esi, ecx
  0000e	74 20		 je	 SHORT $LN9@Tidy

; 1990 : 			;
; 1991 : 		else if (this->_BUF_SIZE <= this->_Myres)

  00010	83 7e 14 10	 cmp	 DWORD PTR [esi+20], 16	; 00000010H
  00014	72 1a		 jb	 SHORT $LN9@Tidy

; 1992 : 			{	// copy any leftovers to small buffer and deallocate
; 1993 : 			_Elem *_Ptr = this->_Bx._Ptr;

  00016	53		 push	 ebx
  00017	8b 1e		 mov	 ebx, DWORD PTR [esi]

; 1994 : 			if (0 < _Newsize)

  00019	85 ff		 test	 edi, edi
  0001b	74 0b		 je	 SHORT $LN7@Tidy

; 1995 : 				_Traits::copy(this->_Bx._Buf, _Ptr, _Newsize);

  0001d	57		 push	 edi
  0001e	53		 push	 ebx
  0001f	56		 push	 esi
  00020	e8 00 00 00 00	 call	 _memcpy
  00025	83 c4 0c	 add	 esp, 12			; 0000000cH
$LN7@Tidy:

; 1996 : 			this->_Alval.deallocate(_Ptr, this->_Myres + 1);

  00028	53		 push	 ebx
  00029	e8 00 00 00 00	 call	 ??3@YAXPAX@Z		; operator delete
  0002e	59		 pop	 ecx
  0002f	5b		 pop	 ebx
$LN9@Tidy:

; 1997 : 			}
; 1998 : 		this->_Myres = this->_BUF_SIZE - 1;
; 1999 : 		_Eos(_Newsize);

  00030	89 7e 10	 mov	 DWORD PTR [esi+16], edi
  00033	c7 46 14 0f 00
	00 00		 mov	 DWORD PTR [esi+20], 15	; 0000000fH
  0003a	c6 04 37 00	 mov	 BYTE PTR [edi+esi], 0
  0003e	5f		 pop	 edi
  0003f	5e		 pop	 esi

; 2000 : 		}

  00040	5d		 pop	 ebp
  00041	c2 08 00	 ret	 8
?_Tidy@?$basic_string@DU?$char_traits@D@std@@V?$allocator@D@2@@std@@QAEX_NI@Z ENDP ; std::basic_string<char,std::char_traits<char>,std::allocator<char> >::_Tidy
_TEXT	ENDS
EXTRN	?AddWeaponExplosionEffect@ioPlayStage@@QAEXPAVioPlayEntity@@PAVioWeapon@@W4ApplyWeaponExp@@@Z:PROC ; ioPlayStage::AddWeaponExplosionEffect
EXTRN	?GetPiercingType@ioWeapon@@QBE?AW4CharPiercingType@@XZ:PROC ; ioWeapon::GetPiercingType
; Function compile flags: /Ogsp
; File d:\lost saga for developer\youtube\tutorial\source\src\lsclient\iocontrolreturnweapon.cpp
;	COMDAT ?CheckPreCollision@ioControlReturnWeapon@@UAEXPAVioPlayEntity@@PAVioPlayStage@@@Z
_TEXT	SEGMENT
_value$536615 = -4					; size = 4
_value$536602 = 8					; size = 4
_pTarget$ = 8						; size = 4
_pStage$ = 12						; size = 4
?CheckPreCollision@ioControlReturnWeapon@@UAEXPAVioPlayEntity@@PAVioPlayStage@@@Z PROC ; ioControlReturnWeapon::CheckPreCollision, COMDAT
; _this$ = ecx

; 819  : {

  00000	55		 push	 ebp
  00001	8b ec		 mov	 ebp, esp
  00003	51		 push	 ecx
  00004	53		 push	 ebx
  00005	56		 push	 esi

; 820  : 	bool bCollision = false;
; 821  : 	if( pTarget->IsWoundedCollision( GetWorldAttackBox() ) )

  00006	8b 75 08	 mov	 esi, DWORD PTR _pTarget$[ebp]
  00009	8b 1e		 mov	 ebx, DWORD PTR [esi]
  0000b	57		 push	 edi
  0000c	6a 00		 push	 0
  0000e	6a 00		 push	 0
  00010	8b f9		 mov	 edi, ecx
  00012	e8 00 00 00 00	 call	 ?GetWorldAttackBox@ioWeapon@@QBEABVioOrientBox@@_N@Z ; ioWeapon::GetWorldAttackBox
  00017	50		 push	 eax
  00018	8b ce		 mov	 ecx, esi
  0001a	ff 93 90 00 00
	00		 call	 DWORD PTR [ebx+144]
  00020	84 c0		 test	 al, al
  00022	0f 84 eb 00 00
	00		 je	 $LN1@CheckPreCo

; 822  : 	{
; 823  : 		if( ToSymbolStruct(pTarget) || ToPushStruct(pTarget) || ToBallStruct(pTarget) ||
; 824  : 			ToDummyChar(pTarget) || ToWallZone(pTarget) )

  00028	56		 push	 esi
  00029	e8 00 00 00 00	 call	 ?ToSymbolStruct@@YAPAVioSymbolStruct@@PAVioGameEntity@@@Z ; ToSymbolStruct
  0002e	59		 pop	 ecx
  0002f	85 c0		 test	 eax, eax
  00031	75 53		 jne	 SHORT $LN7@CheckPreCo
  00033	56		 push	 esi
  00034	e8 00 00 00 00	 call	 ?ToPushStruct@@YAPAVioPushStruct@@PAVioGameEntity@@@Z ; ToPushStruct
  00039	59		 pop	 ecx
  0003a	85 c0		 test	 eax, eax
  0003c	75 48		 jne	 SHORT $LN7@CheckPreCo
  0003e	56		 push	 esi
  0003f	e8 00 00 00 00	 call	 ?ToBallStruct@@YAPAVioBall@@PAVioGameEntity@@@Z ; ToBallStruct
  00044	59		 pop	 ecx
  00045	85 c0		 test	 eax, eax
  00047	75 3d		 jne	 SHORT $LN7@CheckPreCo
  00049	56		 push	 esi
  0004a	e8 00 00 00 00	 call	 ?ToDummyChar@@YAPAVioDummyChar@@PAVioGameEntity@@@Z ; ToDummyChar
  0004f	59		 pop	 ecx
  00050	85 c0		 test	 eax, eax
  00052	75 32		 jne	 SHORT $LN7@CheckPreCo
  00054	56		 push	 esi
  00055	e8 00 00 00 00	 call	 ?ToWallZone@@YAPAVioWallZone@@PAVioGameEntity@@@Z ; ToWallZone
  0005a	59		 pop	 ecx
  0005b	85 c0		 test	 eax, eax
  0005d	75 27		 jne	 SHORT $LN7@CheckPreCo

; 825  : 		{
; 826  : 			bCollision = true;
; 827  : 		}
; 828  : 		else if( GetTeam() != pTarget->GetTeam() )

  0005f	8d 45 08	 lea	 eax, DWORD PTR _value$536602[ebp]
  00062	50		 push	 eax
  00063	8d 4f 30	 lea	 ecx, DWORD PTR [edi+48]
  00066	e8 00 00 00 00	 call	 ?DecryptValueToPool@?$CEncrypt@W4TeamType@@@@QAEXPAW4TeamType@@@Z ; CEncrypt<enum TeamType>::DecryptValueToPool
  0006b	8d 45 fc	 lea	 eax, DWORD PTR _value$536615[ebp]
  0006e	50		 push	 eax
  0006f	8d 8e 90 00 00
	00		 lea	 ecx, DWORD PTR [esi+144]
  00075	e8 00 00 00 00	 call	 ?DecryptValueToPool@?$CEncrypt@W4TeamType@@@@QAEXPAW4TeamType@@@Z ; CEncrypt<enum TeamType>::DecryptValueToPool
  0007a	8b 45 08	 mov	 eax, DWORD PTR _value$536602[ebp]
  0007d	3b 45 fc	 cmp	 eax, DWORD PTR _value$536615[ebp]
  00080	0f 84 8d 00 00
	00		 je	 $LN1@CheckPreCo
$LN7@CheckPreCo:

; 829  : 		{
; 830  : 			bCollision = true;
; 831  : 		}
; 832  : 	}
; 833  : 		
; 834  : 	if( !bCollision )
; 835  : 		return;
; 836  : 
; 837  : 	if( ToSymbolStruct(pTarget) || ToPushStruct(pTarget) || ToBallStruct(pTarget) ||
; 838  : 		ToDummyChar(pTarget) || ToWallZone(pTarget) ||
; 839  : 		GetPiercingType() == CPT_NONE )

  00086	56		 push	 esi
  00087	e8 00 00 00 00	 call	 ?ToSymbolStruct@@YAPAVioSymbolStruct@@PAVioGameEntity@@@Z ; ToSymbolStruct
  0008c	59		 pop	 ecx
  0008d	85 c0		 test	 eax, eax
  0008f	75 37		 jne	 SHORT $LN2@CheckPreCo
  00091	56		 push	 esi
  00092	e8 00 00 00 00	 call	 ?ToPushStruct@@YAPAVioPushStruct@@PAVioGameEntity@@@Z ; ToPushStruct
  00097	59		 pop	 ecx
  00098	85 c0		 test	 eax, eax
  0009a	75 2c		 jne	 SHORT $LN2@CheckPreCo
  0009c	56		 push	 esi
  0009d	e8 00 00 00 00	 call	 ?ToBallStruct@@YAPAVioBall@@PAVioGameEntity@@@Z ; ToBallStruct
  000a2	59		 pop	 ecx
  000a3	85 c0		 test	 eax, eax
  000a5	75 21		 jne	 SHORT $LN2@CheckPreCo
  000a7	56		 push	 esi
  000a8	e8 00 00 00 00	 call	 ?ToDummyChar@@YAPAVioDummyChar@@PAVioGameEntity@@@Z ; ToDummyChar
  000ad	59		 pop	 ecx
  000ae	85 c0		 test	 eax, eax
  000b0	75 16		 jne	 SHORT $LN2@CheckPreCo
  000b2	56		 push	 esi
  000b3	e8 00 00 00 00	 call	 ?ToWallZone@@YAPAVioWallZone@@PAVioGameEntity@@@Z ; ToWallZone
  000b8	59		 pop	 ecx
  000b9	85 c0		 test	 eax, eax
  000bb	75 0b		 jne	 SHORT $LN2@CheckPreCo
  000bd	8b cf		 mov	 ecx, edi
  000bf	e8 00 00 00 00	 call	 ?GetPiercingType@ioWeapon@@QBE?AW4CharPiercingType@@XZ ; ioWeapon::GetPiercingType
  000c4	85 c0		 test	 eax, eax
  000c6	75 4b		 jne	 SHORT $LN1@CheckPreCo
$LN2@CheckPreCo:

; 840  : 	{
; 841  : 		CheckCurAttribute( pTarget );

  000c8	8b 07		 mov	 eax, DWORD PTR [edi]
  000ca	56		 push	 esi
  000cb	8b cf		 mov	 ecx, edi
  000cd	ff 90 f0 00 00
	00		 call	 DWORD PTR [eax+240]

; 842  : 
; 843  : 		ApplyWeaponExp eExplosionType = pTarget->ApplyWeapon( this );

  000d3	8b 06		 mov	 eax, DWORD PTR [esi]
  000d5	57		 push	 edi
  000d6	8b ce		 mov	 ecx, esi
  000d8	ff 50 7c	 call	 DWORD PTR [eax+124]

; 844  : 		pStage->AddWeaponExplosionEffect( pTarget, this, eExplosionType );

  000db	8b 4d 0c	 mov	 ecx, DWORD PTR _pStage$[ebp]
  000de	50		 push	 eax
  000df	57		 push	 edi
  000e0	56		 push	 esi
  000e1	e8 00 00 00 00	 call	 ?AddWeaponExplosionEffect@ioPlayStage@@QAEXPAVioPlayEntity@@PAVioWeapon@@W4ApplyWeaponExp@@@Z ; ioPlayStage::AddWeaponExplosionEffect

; 845  : 
; 846  : 		AddCollisionEntity( pTarget );

  000e6	8b 07		 mov	 eax, DWORD PTR [edi]
  000e8	56		 push	 esi
  000e9	8b cf		 mov	 ecx, edi
  000eb	ff 50 04	 call	 DWORD PTR [eax+4]

; 847  : 
; 848  : 		ioBaseChar *pOwner = GetOwner();

  000ee	8b cf		 mov	 ecx, edi
  000f0	e8 00 00 00 00	 call	 ?GetOwner@ioWeapon@@QBEPAVioBaseChar@@XZ ; ioWeapon::GetOwner

; 849  : 		if( pOwner && pOwner->IsNeedProcess() )

  000f5	85 c0		 test	 eax, eax
  000f7	74 1a		 je	 SHORT $LN1@CheckPreCo
  000f9	8b 10		 mov	 edx, DWORD PTR [eax]
  000fb	8b c8		 mov	 ecx, eax
  000fd	ff 92 00 01 00
	00		 call	 DWORD PTR [edx+256]
  00103	84 c0		 test	 al, al
  00105	74 0c		 je	 SHORT $LN1@CheckPreCo

; 850  : 			SetDieState( pStage, true );

  00107	6a 01		 push	 1
  00109	ff 75 0c	 push	 DWORD PTR _pStage$[ebp]
  0010c	8b cf		 mov	 ecx, edi
  0010e	e8 00 00 00 00	 call	 ?SetDieState@ioControlReturnWeapon@@QAEXPAVioPlayStage@@_N@Z ; ioControlReturnWeapon::SetDieState
$LN1@CheckPreCo:
  00113	5f		 pop	 edi
  00114	5e		 pop	 esi
  00115	5b		 pop	 ebx

; 851  : 
; 852  : 		return;
; 853  : 	}
; 854  : }

  00116	c9		 leave
  00117	c2 08 00	 ret	 8
?CheckPreCollision@ioControlReturnWeapon@@UAEXPAVioPlayEntity@@PAVioPlayStage@@@Z ENDP ; ioControlReturnWeapon::CheckPreCollision
_TEXT	ENDS
PUBLIC	??1?$basic_string@DU?$char_traits@D@std@@V?$allocator@D@2@@std@@QAE@XZ ; std::basic_string<char,std::char_traits<char>,std::allocator<char> >::~basic_string<char,std::char_traits<char>,std::allocator<char> >
; Function compile flags: /Ogsp
; File c:\program files (x86)\microsoft visual studio 10.0\vc\include\xstring
;	COMDAT ??1?$basic_string@DU?$char_traits@D@std@@V?$allocator@D@2@@std@@QAE@XZ
_TEXT	SEGMENT
??1?$basic_string@DU?$char_traits@D@std@@V?$allocator@D@2@@std@@QAE@XZ PROC ; std::basic_string<char,std::char_traits<char>,std::allocator<char> >::~basic_string<char,std::char_traits<char>,std::allocator<char> >, COMDAT
; _this$ = ecx

; 754  : 		_Tidy(true);

  00000	6a 00		 push	 0
  00002	6a 01		 push	 1
  00004	e8 00 00 00 00	 call	 ?_Tidy@?$basic_string@DU?$char_traits@D@std@@V?$allocator@D@2@@std@@QAEX_NI@Z ; std::basic_string<char,std::char_traits<char>,std::allocator<char> >::_Tidy

; 755  : 		}

  00009	c3		 ret	 0
??1?$basic_string@DU?$char_traits@D@std@@V?$allocator@D@2@@std@@QAE@XZ ENDP ; std::basic_string<char,std::char_traits<char>,std::allocator<char> >::~basic_string<char,std::char_traits<char>,std::allocator<char> >
_TEXT	ENDS
EXTRN	__imp_??0ioHashString@@QAE@PBD@Z:PROC
EXTRN	?GetWoundedSoundName@ioBaseChar@@QAE?AV?$basic_string@DU?$char_traits@D@std@@V?$allocator@D@2@@std@@ABVioHashString@@@Z:PROC ; ioBaseChar::GetWoundedSoundName
EXTRN	?HasPeculiarity@ioWeapon@@QBE_NK@Z:PROC		; ioWeapon::HasPeculiarity
;	COMDAT xdata$x
; File d:\lost saga for developer\youtube\tutorial\source\src\lsclient\ioweapon.h
xdata$x	SEGMENT
__unwindtable$?PlayWoundedSound@ioControlReturnWeapon@@UAEXPAVioPlayEntity@@@Z DD 0ffffffffH
	DD	FLAT:__unwindfunclet$?PlayWoundedSound@ioControlReturnWeapon@@UAEXPAVioPlayEntity@@@Z$0
	DD	00H
	DD	FLAT:__unwindfunclet$?PlayWoundedSound@ioControlReturnWeapon@@UAEXPAVioPlayEntity@@@Z$1
__ehfuncinfo$?PlayWoundedSound@ioControlReturnWeapon@@UAEXPAVioPlayEntity@@@Z DD 019930522H
	DD	02H
	DD	FLAT:__unwindtable$?PlayWoundedSound@ioControlReturnWeapon@@UAEXPAVioPlayEntity@@@Z
	DD	2 DUP(00H)
	DD	2 DUP(00H)
	DD	00H
	DD	01H
; Function compile flags: /Ogsp
; File d:\lost saga for developer\youtube\tutorial\source\src\lsclient\iocontrolreturnweapon.cpp
xdata$x	ENDS
;	COMDAT ?PlayWoundedSound@ioControlReturnWeapon@@UAEXPAVioPlayEntity@@@Z
_TEXT	SEGMENT
$T536628 = -60						; size = 16
_szNewSound$531127 = -44				; size = 28
__$EHRec$ = -12						; size = 12
_pEntity$ = 8						; size = 4
?PlayWoundedSound@ioControlReturnWeapon@@UAEXPAVioPlayEntity@@@Z PROC ; ioControlReturnWeapon::PlayWoundedSound, COMDAT
; _this$ = ecx

; 900  : {

  00000	6a 30		 push	 48			; 00000030H
  00002	b8 00 00 00 00	 mov	 eax, __ehhandler$?PlayWoundedSound@ioControlReturnWeapon@@UAEXPAVioPlayEntity@@@Z
  00007	e8 00 00 00 00	 call	 __EH_prolog3_GS
  0000c	8b 5d 08	 mov	 ebx, DWORD PTR _pEntity$[ebp]

; 901  : 	if( HasPeculiarity( WP_WOUND_NO_SOUND ) )

  0000f	6a 40		 push	 64			; 00000040H
  00011	8b f1		 mov	 esi, ecx
  00013	e8 00 00 00 00	 call	 ?HasPeculiarity@ioWeapon@@QBE_NK@Z ; ioWeapon::HasPeculiarity
  00018	84 c0		 test	 al, al
  0001a	0f 85 90 00 00
	00		 jne	 $LN1@PlayWounde

; 902  : 		return;
; 903  : 
; 904  : 	const ioHashString &szSound = GetAttribute()->m_WoundedSound;

  00020	8b 06		 mov	 eax, DWORD PTR [esi]
  00022	8b ce		 mov	 ecx, esi
  00024	ff 90 3c 01 00
	00		 call	 DWORD PTR [eax+316]

; 905  : 
; 906  : 	if( ToBaseChar( pEntity ) )

  0002a	53		 push	 ebx
  0002b	8d b8 68 01 00
	00		 lea	 edi, DWORD PTR [eax+360]
  00031	e8 00 00 00 00	 call	 ?ToBaseChar@@YAPAVioBaseChar@@PAVioGameEntity@@@Z ; ToBaseChar
  00036	59		 pop	 ecx
  00037	85 c0		 test	 eax, eax
  00039	74 60		 je	 SHORT $LN2@PlayWounde

; 907  : 	{
; 908  : 		std::string szNewSound = ToBaseChar(pEntity)->GetWoundedSoundName( szSound );

  0003b	57		 push	 edi
  0003c	8d 45 d4	 lea	 eax, DWORD PTR _szNewSound$531127[ebp]
  0003f	50		 push	 eax
  00040	53		 push	 ebx
  00041	e8 00 00 00 00	 call	 ?ToBaseChar@@YAPAVioBaseChar@@PAVioGameEntity@@@Z ; ToBaseChar
  00046	59		 pop	 ecx
  00047	8b c8		 mov	 ecx, eax
  00049	e8 00 00 00 00	 call	 ?GetWoundedSoundName@ioBaseChar@@QAE?AV?$basic_string@DU?$char_traits@D@std@@V?$allocator@D@2@@std@@ABVioHashString@@@Z ; ioBaseChar::GetWoundedSoundName

; 909  : 		g_SoundMgr.PlaySound( ioHashString(szNewSound.c_str()), GetParentSceneNode() );

  0004e	8b 45 d4	 mov	 eax, DWORD PTR _szNewSound$531127[ebp]
  00051	33 db		 xor	 ebx, ebx
  00053	83 7d e8 10	 cmp	 DWORD PTR _szNewSound$531127[ebp+20], 16 ; 00000010H
  00057	89 5d fc	 mov	 DWORD PTR __$EHRec$[ebp+8], ebx
  0005a	73 03		 jae	 SHORT $LN15@PlayWounde
  0005c	8d 45 d4	 lea	 eax, DWORD PTR _szNewSound$531127[ebp]
$LN15@PlayWounde:
  0005f	50		 push	 eax
  00060	8d 4d c4	 lea	 ecx, DWORD PTR $T536628[ebp]
  00063	ff 15 00 00 00
	00		 call	 DWORD PTR __imp_??0ioHashString@@QAE@PBD@Z
  00069	8b 76 04	 mov	 esi, DWORD PTR [esi+4]
  0006c	6a 04		 push	 4
  0006e	56		 push	 esi
  0006f	50		 push	 eax
  00070	c6 45 fc 01	 mov	 BYTE PTR __$EHRec$[ebp+8], 1
  00074	ff 15 00 00 00
	00		 call	 DWORD PTR __imp_?GetSingleton@ioSoundManager@@SAAAV1@XZ
  0007a	8b c8		 mov	 ecx, eax
  0007c	ff 15 00 00 00
	00		 call	 DWORD PTR __imp_?PlaySoundA@ioSoundManager@@QAEKABVioHashString@@PAVioSceneNode@@K@Z
  00082	8d 4d c4	 lea	 ecx, DWORD PTR $T536628[ebp]
  00085	88 5d fc	 mov	 BYTE PTR __$EHRec$[ebp+8], bl
  00088	ff 15 00 00 00
	00		 call	 DWORD PTR __imp_??1ioHashString@@QAE@XZ

; 910  : 	}

  0008e	53		 push	 ebx
  0008f	6a 01		 push	 1
  00091	8d 4d d4	 lea	 ecx, DWORD PTR _szNewSound$531127[ebp]
  00094	e8 00 00 00 00	 call	 ?_Tidy@?$basic_string@DU?$char_traits@D@std@@V?$allocator@D@2@@std@@QAEX_NI@Z ; std::basic_string<char,std::char_traits<char>,std::allocator<char> >::_Tidy

; 911  : 	else

  00099	eb 15		 jmp	 SHORT $LN1@PlayWounde
$LN2@PlayWounde:

; 912  : 	{
; 913  : 		g_SoundMgr.PlaySound( szSound, GetParentSceneNode() );

  0009b	8b 76 04	 mov	 esi, DWORD PTR [esi+4]
  0009e	6a 04		 push	 4
  000a0	56		 push	 esi
  000a1	57		 push	 edi
  000a2	ff 15 00 00 00
	00		 call	 DWORD PTR __imp_?GetSingleton@ioSoundManager@@SAAAV1@XZ
  000a8	8b c8		 mov	 ecx, eax
  000aa	ff 15 00 00 00
	00		 call	 DWORD PTR __imp_?PlaySoundA@ioSoundManager@@QAEKABVioHashString@@PAVioSceneNode@@K@Z
$LN1@PlayWounde:

; 914  : 	}
; 915  : }

  000b0	e8 00 00 00 00	 call	 __EH_epilog3_GS
  000b5	c2 04 00	 ret	 4
_TEXT	ENDS
;	COMDAT text$x
text$x	SEGMENT
__unwindfunclet$?PlayWoundedSound@ioControlReturnWeapon@@UAEXPAVioPlayEntity@@@Z$0:
  00000	8d 4d d4	 lea	 ecx, DWORD PTR _szNewSound$531127[ebp]
  00003	e9 00 00 00 00	 jmp	 ??1?$basic_string@DU?$char_traits@D@std@@V?$allocator@D@2@@std@@QAE@XZ ; std::basic_string<char,std::char_traits<char>,std::allocator<char> >::~basic_string<char,std::char_traits<char>,std::allocator<char> >
__unwindfunclet$?PlayWoundedSound@ioControlReturnWeapon@@UAEXPAVioPlayEntity@@@Z$1:
  00008	8d 4d c4	 lea	 ecx, DWORD PTR $T536628[ebp]
  0000b	ff 25 00 00 00
	00		 jmp	 DWORD PTR __imp_??1ioHashString@@QAE@XZ
__ehhandler$?PlayWoundedSound@ioControlReturnWeapon@@UAEXPAVioPlayEntity@@@Z:
  00011	8b 54 24 08	 mov	 edx, DWORD PTR [esp+8]
  00015	8d 42 0c	 lea	 eax, DWORD PTR [edx+12]
  00018	8b 4a c0	 mov	 ecx, DWORD PTR [edx-64]
  0001b	33 c8		 xor	 ecx, eax
  0001d	e8 00 00 00 00	 call	 @__security_check_cookie@4
  00022	8b 4a fc	 mov	 ecx, DWORD PTR [edx-4]
  00025	33 c8		 xor	 ecx, eax
  00027	e8 00 00 00 00	 call	 @__security_check_cookie@4
  0002c	b8 00 00 00 00	 mov	 eax, OFFSET __ehfuncinfo$?PlayWoundedSound@ioControlReturnWeapon@@UAEXPAVioPlayEntity@@@Z
  00031	e9 00 00 00 00	 jmp	 ___CxxFrameHandler3
text$x	ENDS
?PlayWoundedSound@ioControlReturnWeapon@@UAEXPAVioPlayEntity@@@Z ENDP ; ioControlReturnWeapon::PlayWoundedSound
EXTRN	?GetDefensedSoundName@ioBaseChar@@QAE?AV?$basic_string@DU?$char_traits@D@std@@V?$allocator@D@2@@std@@ABVioHashString@@@Z:PROC ; ioBaseChar::GetDefensedSoundName
;	COMDAT xdata$x
; File d:\lost saga for developer\youtube\tutorial\source\src\lsclient\ioweapon.h
xdata$x	SEGMENT
__unwindtable$?PlayDefensedSound@ioControlReturnWeapon@@UAEXPAVioPlayEntity@@@Z DD 0ffffffffH
	DD	FLAT:__unwindfunclet$?PlayDefensedSound@ioControlReturnWeapon@@UAEXPAVioPlayEntity@@@Z$0
	DD	00H
	DD	FLAT:__unwindfunclet$?PlayDefensedSound@ioControlReturnWeapon@@UAEXPAVioPlayEntity@@@Z$1
__ehfuncinfo$?PlayDefensedSound@ioControlReturnWeapon@@UAEXPAVioPlayEntity@@@Z DD 019930522H
	DD	02H
	DD	FLAT:__unwindtable$?PlayDefensedSound@ioControlReturnWeapon@@UAEXPAVioPlayEntity@@@Z
	DD	2 DUP(00H)
	DD	2 DUP(00H)
	DD	00H
	DD	01H
; Function compile flags: /Ogsp
; File d:\lost saga for developer\youtube\tutorial\source\src\lsclient\iocontrolreturnweapon.cpp
xdata$x	ENDS
;	COMDAT ?PlayDefensedSound@ioControlReturnWeapon@@UAEXPAVioPlayEntity@@@Z
_TEXT	SEGMENT
$T536672 = -60						; size = 16
_szNewSound$531138 = -44				; size = 28
__$EHRec$ = -12						; size = 12
_pEntity$ = 8						; size = 4
?PlayDefensedSound@ioControlReturnWeapon@@UAEXPAVioPlayEntity@@@Z PROC ; ioControlReturnWeapon::PlayDefensedSound, COMDAT
; _this$ = ecx

; 918  : {

  00000	6a 30		 push	 48			; 00000030H
  00002	b8 00 00 00 00	 mov	 eax, __ehhandler$?PlayDefensedSound@ioControlReturnWeapon@@UAEXPAVioPlayEntity@@@Z
  00007	e8 00 00 00 00	 call	 __EH_prolog3_GS
  0000c	8b 5d 08	 mov	 ebx, DWORD PTR _pEntity$[ebp]

; 919  : 	if( HasPeculiarity( WP_DEF_NO_SOUND ) )

  0000f	68 80 00 00 00	 push	 128			; 00000080H
  00014	8b f1		 mov	 esi, ecx
  00016	e8 00 00 00 00	 call	 ?HasPeculiarity@ioWeapon@@QBE_NK@Z ; ioWeapon::HasPeculiarity
  0001b	84 c0		 test	 al, al
  0001d	0f 85 90 00 00
	00		 jne	 $LN1@PlayDefens

; 920  : 		return;
; 921  : 
; 922  : 	const ioHashString &szSound = GetAttribute()->m_DefensedSound;

  00023	8b 06		 mov	 eax, DWORD PTR [esi]
  00025	8b ce		 mov	 ecx, esi
  00027	ff 90 3c 01 00
	00		 call	 DWORD PTR [eax+316]

; 923  : 
; 924  : 	if( ToBaseChar( pEntity ) )

  0002d	53		 push	 ebx
  0002e	8d b8 78 01 00
	00		 lea	 edi, DWORD PTR [eax+376]
  00034	e8 00 00 00 00	 call	 ?ToBaseChar@@YAPAVioBaseChar@@PAVioGameEntity@@@Z ; ToBaseChar
  00039	59		 pop	 ecx
  0003a	85 c0		 test	 eax, eax
  0003c	74 60		 je	 SHORT $LN2@PlayDefens

; 925  : 	{
; 926  : 		std::string szNewSound = ToBaseChar(pEntity)->GetDefensedSoundName( szSound );

  0003e	57		 push	 edi
  0003f	8d 45 d4	 lea	 eax, DWORD PTR _szNewSound$531138[ebp]
  00042	50		 push	 eax
  00043	53		 push	 ebx
  00044	e8 00 00 00 00	 call	 ?ToBaseChar@@YAPAVioBaseChar@@PAVioGameEntity@@@Z ; ToBaseChar
  00049	59		 pop	 ecx
  0004a	8b c8		 mov	 ecx, eax
  0004c	e8 00 00 00 00	 call	 ?GetDefensedSoundName@ioBaseChar@@QAE?AV?$basic_string@DU?$char_traits@D@std@@V?$allocator@D@2@@std@@ABVioHashString@@@Z ; ioBaseChar::GetDefensedSoundName

; 927  : 		g_SoundMgr.PlaySound( ioHashString(szNewSound.c_str()), GetParentSceneNode() );

  00051	8b 45 d4	 mov	 eax, DWORD PTR _szNewSound$531138[ebp]
  00054	33 db		 xor	 ebx, ebx
  00056	83 7d e8 10	 cmp	 DWORD PTR _szNewSound$531138[ebp+20], 16 ; 00000010H
  0005a	89 5d fc	 mov	 DWORD PTR __$EHRec$[ebp+8], ebx
  0005d	73 03		 jae	 SHORT $LN15@PlayDefens
  0005f	8d 45 d4	 lea	 eax, DWORD PTR _szNewSound$531138[ebp]
$LN15@PlayDefens:
  00062	50		 push	 eax
  00063	8d 4d c4	 lea	 ecx, DWORD PTR $T536672[ebp]
  00066	ff 15 00 00 00
	00		 call	 DWORD PTR __imp_??0ioHashString@@QAE@PBD@Z
  0006c	8b 76 04	 mov	 esi, DWORD PTR [esi+4]
  0006f	6a 04		 push	 4
  00071	56		 push	 esi
  00072	50		 push	 eax
  00073	c6 45 fc 01	 mov	 BYTE PTR __$EHRec$[ebp+8], 1
  00077	ff 15 00 00 00
	00		 call	 DWORD PTR __imp_?GetSingleton@ioSoundManager@@SAAAV1@XZ
  0007d	8b c8		 mov	 ecx, eax
  0007f	ff 15 00 00 00
	00		 call	 DWORD PTR __imp_?PlaySoundA@ioSoundManager@@QAEKABVioHashString@@PAVioSceneNode@@K@Z
  00085	8d 4d c4	 lea	 ecx, DWORD PTR $T536672[ebp]
  00088	88 5d fc	 mov	 BYTE PTR __$EHRec$[ebp+8], bl
  0008b	ff 15 00 00 00
	00		 call	 DWORD PTR __imp_??1ioHashString@@QAE@XZ

; 928  : 	}

  00091	53		 push	 ebx
  00092	6a 01		 push	 1
  00094	8d 4d d4	 lea	 ecx, DWORD PTR _szNewSound$531138[ebp]
  00097	e8 00 00 00 00	 call	 ?_Tidy@?$basic_string@DU?$char_traits@D@std@@V?$allocator@D@2@@std@@QAEX_NI@Z ; std::basic_string<char,std::char_traits<char>,std::allocator<char> >::_Tidy

; 929  : 	else

  0009c	eb 15		 jmp	 SHORT $LN1@PlayDefens
$LN2@PlayDefens:

; 930  : 	{
; 931  : 		g_SoundMgr.PlaySound( szSound, GetParentSceneNode() );

  0009e	8b 76 04	 mov	 esi, DWORD PTR [esi+4]
  000a1	6a 04		 push	 4
  000a3	56		 push	 esi
  000a4	57		 push	 edi
  000a5	ff 15 00 00 00
	00		 call	 DWORD PTR __imp_?GetSingleton@ioSoundManager@@SAAAV1@XZ
  000ab	8b c8		 mov	 ecx, eax
  000ad	ff 15 00 00 00
	00		 call	 DWORD PTR __imp_?PlaySoundA@ioSoundManager@@QAEKABVioHashString@@PAVioSceneNode@@K@Z
$LN1@PlayDefens:

; 932  : 	}
; 933  : }

  000b3	e8 00 00 00 00	 call	 __EH_epilog3_GS
  000b8	c2 04 00	 ret	 4
_TEXT	ENDS
;	COMDAT text$x
text$x	SEGMENT
__unwindfunclet$?PlayDefensedSound@ioControlReturnWeapon@@UAEXPAVioPlayEntity@@@Z$0:
  00000	8d 4d d4	 lea	 ecx, DWORD PTR _szNewSound$531138[ebp]
  00003	e9 00 00 00 00	 jmp	 ??1?$basic_string@DU?$char_traits@D@std@@V?$allocator@D@2@@std@@QAE@XZ ; std::basic_string<char,std::char_traits<char>,std::allocator<char> >::~basic_string<char,std::char_traits<char>,std::allocator<char> >
__unwindfunclet$?PlayDefensedSound@ioControlReturnWeapon@@UAEXPAVioPlayEntity@@@Z$1:
  00008	8d 4d c4	 lea	 ecx, DWORD PTR $T536672[ebp]
  0000b	ff 25 00 00 00
	00		 jmp	 DWORD PTR __imp_??1ioHashString@@QAE@XZ
__ehhandler$?PlayDefensedSound@ioControlReturnWeapon@@UAEXPAVioPlayEntity@@@Z:
  00011	8b 54 24 08	 mov	 edx, DWORD PTR [esp+8]
  00015	8d 42 0c	 lea	 eax, DWORD PTR [edx+12]
  00018	8b 4a c0	 mov	 ecx, DWORD PTR [edx-64]
  0001b	33 c8		 xor	 ecx, eax
  0001d	e8 00 00 00 00	 call	 @__security_check_cookie@4
  00022	8b 4a fc	 mov	 ecx, DWORD PTR [edx-4]
  00025	33 c8		 xor	 ecx, eax
  00027	e8 00 00 00 00	 call	 @__security_check_cookie@4
  0002c	b8 00 00 00 00	 mov	 eax, OFFSET __ehfuncinfo$?PlayDefensedSound@ioControlReturnWeapon@@UAEXPAVioPlayEntity@@@Z
  00031	e9 00 00 00 00	 jmp	 ___CxxFrameHandler3
text$x	ENDS
?PlayDefensedSound@ioControlReturnWeapon@@UAEXPAVioPlayEntity@@@Z ENDP ; ioControlReturnWeapon::PlayDefensedSound
END
