; Listing generated by Microsoft (R) Optimizing Compiler Version 16.00.30319.01 

	TITLE	D:\Lost Saga For Developer\Youtube\Tutorial\Source\src\LSClient\ioControlMissileWeapon.cpp
	.686P
	.XMM
	include listing.inc
	.model	flat

INCLUDELIB MSVCRT
INCLUDELIB OLDNAMES

PUBLIC	?_EEM_DS@?$deque@UD3DXVECTOR3@@V?$allocator@UD3DXVECTOR3@@@std@@@std@@2HB ; std::deque<D3DXVECTOR3,std::allocator<D3DXVECTOR3> >::_EEM_DS
PUBLIC	?m_ActionStopType@ioControlMissileWeapon@@2W4ActionStopType@@A ; ioControlMissileWeapon::m_ActionStopType
PUBLIC	?m_DieActionStopType@ioControlMissileWeapon@@2W4ActionStopType@@A ; ioControlMissileWeapon::m_DieActionStopType
_BSS	SEGMENT
?m_ActionStopType@ioControlMissileWeapon@@2W4ActionStopType@@A DD 01H DUP (?) ; ioControlMissileWeapon::m_ActionStopType
?m_DieActionStopType@ioControlMissileWeapon@@2W4ActionStopType@@A DD 01H DUP (?) ; ioControlMissileWeapon::m_DieActionStopType
_BSS	ENDS
;	COMDAT ?_EEM_DS@?$deque@UD3DXVECTOR3@@V?$allocator@UD3DXVECTOR3@@@std@@@std@@2HB
CONST	SEGMENT
?_EEM_DS@?$deque@UD3DXVECTOR3@@V?$allocator@UD3DXVECTOR3@@@std@@@std@@2HB DD 01H ; std::deque<D3DXVECTOR3,std::allocator<D3DXVECTOR3> >::_EEM_DS
CONST	ENDS
PUBLIC	?return1@@YAIXZ					; return1
; Function compile flags: /Ogsp
; File d:\lost saga for developer\youtube\tutorial\source\src\lsclient\stdafx.h
;	COMDAT ?return1@@YAIXZ
_TEXT	SEGMENT
?return1@@YAIXZ PROC					; return1, COMDAT

; 17   : 	__forceinline unsigned int return1() { __asm mov eax, 1 };

  00000	b8 01 00 00 00	 mov	 eax, 1
  00005	c3		 ret	 0
?return1@@YAIXZ ENDP					; return1
_TEXT	ENDS
PUBLIC	?return5@@YAIXZ					; return5
; Function compile flags: /Ogsp
;	COMDAT ?return5@@YAIXZ
_TEXT	SEGMENT
?return5@@YAIXZ PROC					; return5, COMDAT

; 18   : 	__forceinline unsigned int return5() { __asm mov eax, 5 };

  00000	b8 05 00 00 00	 mov	 eax, 5
  00005	c3		 ret	 0
?return5@@YAIXZ ENDP					; return5
_TEXT	ENDS
PUBLIC	?return10@@YAIXZ				; return10
; Function compile flags: /Ogsp
;	COMDAT ?return10@@YAIXZ
_TEXT	SEGMENT
?return10@@YAIXZ PROC					; return10, COMDAT

; 21   : 	__forceinline unsigned int return10() { __asm mov eax, 10 };

  00000	b8 0a 00 00 00	 mov	 eax, 10			; 0000000aH
  00005	c3		 ret	 0
?return10@@YAIXZ ENDP					; return10
_TEXT	ENDS
PUBLIC	?return360@@YAIXZ				; return360
; Function compile flags: /Ogsp
;	COMDAT ?return360@@YAIXZ
_TEXT	SEGMENT
?return360@@YAIXZ PROC					; return360, COMDAT

; 27   : 	__forceinline unsigned int return360() { __asm mov eax, 360 };

  00000	b8 68 01 00 00	 mov	 eax, 360		; 00000168H
  00005	c3		 ret	 0
?return360@@YAIXZ ENDP					; return360
_TEXT	ENDS
PUBLIC	?return1000@@YAIXZ				; return1000
; Function compile flags: /Ogsp
;	COMDAT ?return1000@@YAIXZ
_TEXT	SEGMENT
?return1000@@YAIXZ PROC					; return1000, COMDAT

; 29   : 	__forceinline unsigned int return1000() { __asm mov eax, 1000 };

  00000	b8 e8 03 00 00	 mov	 eax, 1000		; 000003e8H
  00005	c3		 ret	 0
?return1000@@YAIXZ ENDP					; return1000
_TEXT	ENDS
PUBLIC	?GetState@ioBaseChar@@QBE?AW4CharState@@XZ	; ioBaseChar::GetState
; Function compile flags: /Ogsp
; File d:\lost saga for developer\youtube\tutorial\source\src\lsclient\iobasechar.h
;	COMDAT ?GetState@ioBaseChar@@QBE?AW4CharState@@XZ
_TEXT	SEGMENT
?GetState@ioBaseChar@@QBE?AW4CharState@@XZ PROC		; ioBaseChar::GetState, COMDAT
; _this$ = ecx

; 2156 : 	inline CharState GetState() const { return m_CharState; }	

  00000	8a 81 10 03 00
	00		 mov	 al, BYTE PTR [ecx+784]
  00006	c3		 ret	 0
?GetState@ioBaseChar@@QBE?AW4CharState@@XZ ENDP		; ioBaseChar::GetState
_TEXT	ENDS
PUBLIC	?GetTargetRot@ioBaseChar@@QBEABUD3DXQUATERNION@@XZ ; ioBaseChar::GetTargetRot
; Function compile flags: /Ogsp
;	COMDAT ?GetTargetRot@ioBaseChar@@QBEABUD3DXQUATERNION@@XZ
_TEXT	SEGMENT
?GetTargetRot@ioBaseChar@@QBEABUD3DXQUATERNION@@XZ PROC	; ioBaseChar::GetTargetRot, COMDAT
; _this$ = ecx

; 2599 : 	inline const D3DXQUATERNION& GetTargetRot() const { return m_qtTargetRot; }

  00000	8d 81 a4 06 00
	00		 lea	 eax, DWORD PTR [ecx+1700]
  00006	c3		 ret	 0
?GetTargetRot@ioBaseChar@@QBEABUD3DXQUATERNION@@XZ ENDP	; ioBaseChar::GetTargetRot
_TEXT	ENDS
PUBLIC	_fabsf
EXTRN	__fltused:DWORD
; Function compile flags: /Ogsp
; File c:\program files (x86)\microsoft visual studio 10.0\vc\include\math.h
;	COMDAT _fabsf
_TEXT	SEGMENT
tv129 = 8						; size = 4
__X$ = 8						; size = 4
_fabsf	PROC						; COMDAT

; 395  :         {return ((float)fabs((double)_X)); }

  00000	55		 push	 ebp
  00001	8b ec		 mov	 ebp, esp
  00003	d9 45 08	 fld	 DWORD PTR __X$[ebp]
  00006	d9 e1		 fabs
  00008	d9 5d 08	 fstp	 DWORD PTR tv129[ebp]
  0000b	d9 45 08	 fld	 DWORD PTR tv129[ebp]
  0000e	5d		 pop	 ebp
  0000f	c3		 ret	 0
_fabsf	ENDP
_TEXT	ENDS
PUBLIC	_acosf
EXTRN	__CIacos:PROC
; Function compile flags: /Ogsp
;	COMDAT _acosf
_TEXT	SEGMENT
tv69 = 8						; size = 4
__X$ = 8						; size = 4
_acosf	PROC						; COMDAT

; 400  :         {return ((float)acos((double)_X)); }

  00000	55		 push	 ebp
  00001	8b ec		 mov	 ebp, esp
  00003	d9 45 08	 fld	 DWORD PTR __X$[ebp]
  00006	e8 00 00 00 00	 call	 __CIacos
  0000b	d9 5d 08	 fstp	 DWORD PTR tv69[ebp]
  0000e	d9 45 08	 fld	 DWORD PTR tv69[ebp]
  00011	5d		 pop	 ebp
  00012	c3		 ret	 0
_acosf	ENDP
_TEXT	ENDS
PUBLIC	?fabs@@YAMM@Z					; fabs
; Function compile flags: /Ogsp
;	COMDAT ?fabs@@YAMM@Z
_TEXT	SEGMENT
tv131 = 8						; size = 4
__X$ = 8						; size = 4
?fabs@@YAMM@Z PROC					; fabs, COMDAT

; 518  :         {return (fabsf(_X)); }

  00000	55		 push	 ebp
  00001	8b ec		 mov	 ebp, esp
  00003	d9 45 08	 fld	 DWORD PTR __X$[ebp]
  00006	d9 e1		 fabs
  00008	d9 5d 08	 fstp	 DWORD PTR tv131[ebp]
  0000b	d9 45 08	 fld	 DWORD PTR tv131[ebp]
  0000e	5d		 pop	 ebp
  0000f	c3		 ret	 0
?fabs@@YAMM@Z ENDP					; fabs
_TEXT	ENDS
PUBLIC	??_C@_0EF@HIDNDMLC@ioControlMissileWeapon?3?3?$HOioContr@ ; `string'
PUBLIC	??_7ioControlMissileWeapon@@6B@			; ioControlMissileWeapon::`vftable'
PUBLIC	??1ioControlMissileWeapon@@UAE@XZ		; ioControlMissileWeapon::~ioControlMissileWeapon
PUBLIC	??_R4ioControlMissileWeapon@@6B@		; ioControlMissileWeapon::`RTTI Complete Object Locator'
PUBLIC	??_R0?AVioControlMissileWeapon@@@8		; ioControlMissileWeapon `RTTI Type Descriptor'
PUBLIC	??_R3ioControlMissileWeapon@@8			; ioControlMissileWeapon::`RTTI Class Hierarchy Descriptor'
PUBLIC	??_R2ioControlMissileWeapon@@8			; ioControlMissileWeapon::`RTTI Base Class Array'
PUBLIC	??_R1A@?0A@EA@ioControlMissileWeapon@@8		; ioControlMissileWeapon::`RTTI Base Class Descriptor at (0,-1,0,64)'
PUBLIC	??_R1A@?0A@EA@ioWeapon@@8			; ioWeapon::`RTTI Base Class Descriptor at (0,-1,0,64)'
PUBLIC	??_R0?AVioWeapon@@@8				; ioWeapon `RTTI Type Descriptor'
PUBLIC	??_R3ioWeapon@@8				; ioWeapon::`RTTI Class Hierarchy Descriptor'
PUBLIC	??_R2ioWeapon@@8				; ioWeapon::`RTTI Base Class Array'
PUBLIC	?SetWeaponIndex@ioControlMissileWeapon@@UAEXK@Z	; ioControlMissileWeapon::SetWeaponIndex
PUBLIC	?SetTeam@ioControlMissileWeapon@@UAEXPAVioPlayStage@@W4TeamType@@@Z ; ioControlMissileWeapon::SetTeam
PUBLIC	?InitResource@ioControlMissileWeapon@@UAE_NXZ	; ioControlMissileWeapon::InitResource
PUBLIC	?DestroyResource@ioControlMissileWeapon@@UAEXPAVioPlayStage@@@Z ; ioControlMissileWeapon::DestroyResource
PUBLIC	?LoadProperty@ioControlMissileWeapon@@UAEXAAVioINILoader@@@Z ; ioControlMissileWeapon::LoadProperty
PUBLIC	?SetLiveTime@ioControlMissileWeapon@@UAEXK@Z	; ioControlMissileWeapon::SetLiveTime
PUBLIC	?SetMoveDir@ioControlMissileWeapon@@UAEXABUD3DXVECTOR3@@@Z ; ioControlMissileWeapon::SetMoveDir
PUBLIC	?SetStartPosition@ioControlMissileWeapon@@UAEXABUD3DXVECTOR3@@PAVioPlayStage@@@Z ; ioControlMissileWeapon::SetStartPosition
PUBLIC	?Process@ioControlMissileWeapon@@UAEXMPAVioPlayStage@@@Z ; ioControlMissileWeapon::Process
PUBLIC	?IsCollision@ioControlMissileWeapon@@UAE_NPAVioPlayEntity@@_N@Z ; ioControlMissileWeapon::IsCollision
PUBLIC	?TestMapCollision@ioControlMissileWeapon@@UAE_NPAVioOpcodeShape@@PAVioPlayStage@@PBUD3DXMATRIX@@@Z ; ioControlMissileWeapon::TestMapCollision
PUBLIC	?CheckPreCollision@ioControlMissileWeapon@@UAEXPAVioPlayEntity@@PAVioPlayStage@@@Z ; ioControlMissileWeapon::CheckPreCollision
PUBLIC	?GetLocalAttackBox@ioControlMissileWeapon@@UBEABVioOrientBox@@XZ ; ioControlMissileWeapon::GetLocalAttackBox
PUBLIC	?GetMoveDir@ioControlMissileWeapon@@UAE?AUD3DXVECTOR3@@XZ ; ioControlMissileWeapon::GetMoveDir
PUBLIC	?GetType@ioControlMissileWeapon@@UBE?AW4WeaponType@ioWeapon@@XZ ; ioControlMissileWeapon::GetType
PUBLIC	?GetActionStopType@ioControlMissileWeapon@@UBE?AW4ActionStopType@@XZ ; ioControlMissileWeapon::GetActionStopType
PUBLIC	?GetDieActionStopType@ioControlMissileWeapon@@UBE?AW4ActionStopType@@XZ ; ioControlMissileWeapon::GetDieActionStopType
PUBLIC	?ApplyWeaponSync@ioControlMissileWeapon@@UAEXAAVSP2Packet@@PAVioPlayStage@@@Z ; ioControlMissileWeapon::ApplyWeaponSync
PUBLIC	?UpdateWorldAttackBox@ioControlMissileWeapon@@MAEXM_N@Z ; ioControlMissileWeapon::UpdateWorldAttackBox
EXTRN	??1ioWeapon@@UAE@XZ:PROC			; ioWeapon::~ioWeapon
EXTRN	__imp_??1ioOrientBox@@QAE@XZ:PROC
EXTRN	__imp_??1ioHashString@@QAE@XZ:PROC
EXTRN	__imp_?PrintTimeAndLog@CLog@@QAAXHPADZZ:PROC
EXTRN	__imp_?LOG@@3VCLog@@A:BYTE
EXTRN	___CxxFrameHandler3:PROC
EXTRN	@__security_check_cookie@4:PROC
EXTRN	__EH_epilog3:PROC
EXTRN	__EH_prolog3:PROC
EXTRN	??_7type_info@@6B@:QWORD			; type_info::`vftable'
EXTRN	?IsAlreadyCollisioned@ioWeapon@@UAE_NPAVioPlayEntity@@@Z:PROC ; ioWeapon::IsAlreadyCollisioned
EXTRN	?AddCollisionEntity@ioWeapon@@UAEXPAVioPlayEntity@@@Z:PROC ; ioWeapon::AddCollisionEntity
EXTRN	?SetOwnerDamageRate@ioWeapon@@UAEXM@Z:PROC	; ioWeapon::SetOwnerDamageRate
EXTRN	?SetOwnerChargeDamageRate@ioWeapon@@UAEXM@Z:PROC ; ioWeapon::SetOwnerChargeDamageRate
EXTRN	?SetOwnerChargeForceRate@ioWeapon@@UAEXM@Z:PROC	; ioWeapon::SetOwnerChargeForceRate
EXTRN	?SetOwnerChargeRangeRate@ioWeapon@@UAEXM@Z:PROC	; ioWeapon::SetOwnerChargeRangeRate
EXTRN	?SetOwnerChargeSpeedRate@ioWeapon@@UAEXM@Z:PROC	; ioWeapon::SetOwnerChargeSpeedRate
EXTRN	?SetOwnerChargeBlowRate@ioWeapon@@UAEXM@Z:PROC	; ioWeapon::SetOwnerChargeBlowRate
EXTRN	?SetOwnerChargeFloatRate@ioWeapon@@UAEXM@Z:PROC	; ioWeapon::SetOwnerChargeFloatRate
EXTRN	?SetOwnerChargeScaleRate@ioWeapon@@UAEXM@Z:PROC	; ioWeapon::SetOwnerChargeScaleRate
EXTRN	?SetOwnerChargeExplosionRate@ioWeapon@@UAEXM@Z:PROC ; ioWeapon::SetOwnerChargeExplosionRate
EXTRN	?SetOwnerChargeWoundedTimeRate@ioWeapon@@UAEXM@Z:PROC ; ioWeapon::SetOwnerChargeWoundedTimeRate
EXTRN	?SetOwnerChargeLiveTimeRate@ioWeapon@@UAEXM@Z:PROC ; ioWeapon::SetOwnerChargeLiveTimeRate
EXTRN	?SetOwnerChargeBuffLiveTimeRate@ioWeapon@@UAEXM@Z:PROC ; ioWeapon::SetOwnerChargeBuffLiveTimeRate
EXTRN	?SetGrapplingTargetName@ioWeapon@@UAEXABVioHashString@@@Z:PROC ; ioWeapon::SetGrapplingTargetName
EXTRN	?SetCreateItem@ioWeapon@@UAEXABVioHashString@@@Z:PROC ; ioWeapon::SetCreateItem
EXTRN	?CallReserveAreaWeapon@ioWeapon@@UAEXXZ:PROC	; ioWeapon::CallReserveAreaWeapon
EXTRN	?SetWeaponDead@ioWeapon@@UAEXXZ:PROC		; ioWeapon::SetWeaponDead
EXTRN	?PlayExplosionSound@ioWeapon@@UAEXXZ:PROC	; ioWeapon::PlayExplosionSound
EXTRN	?PlayWoundedSound@ioWeapon@@UAEXPAVioPlayEntity@@@Z:PROC ; ioWeapon::PlayWoundedSound
EXTRN	?PlayDefensedSound@ioWeapon@@UAEXPAVioPlayEntity@@@Z:PROC ; ioWeapon::PlayDefensedSound
EXTRN	?PlayLoopSound@ioWeapon@@UAEXXZ:PROC		; ioWeapon::PlayLoopSound
EXTRN	?StopLoopSound@ioWeapon@@UAEXXZ:PROC		; ioWeapon::StopLoopSound
EXTRN	?GetTargetAirBuffList@ioWeapon@@UBEABV?$vector@UBuffInfoStruct@@V?$allocator@UBuffInfoStruct@@@std@@@std@@XZ:PROC ; ioWeapon::GetTargetAirBuffList
EXTRN	?GetTargetBuffList@ioWeapon@@UBEABV?$vector@UBuffInfoStruct@@V?$allocator@UBuffInfoStruct@@@std@@@std@@XZ:PROC ; ioWeapon::GetTargetBuffList
EXTRN	?GetTargetDownBuffList@ioWeapon@@UBEABV?$vector@UBuffInfoStruct@@V?$allocator@UBuffInfoStruct@@@std@@@std@@XZ:PROC ; ioWeapon::GetTargetDownBuffList
EXTRN	?GetPosition@ioWeapon@@UBEABUD3DXVECTOR3@@XZ:PROC ; ioWeapon::GetPosition
EXTRN	?GetBlowType@ioWeapon@@UBE?AW4BlowTargetType@@XZ:PROC ; ioWeapon::GetBlowType
EXTRN	?GetPushPower@ioWeapon@@UBEMM@Z:PROC		; ioWeapon::GetPushPower
EXTRN	?GetBlowPower@ioWeapon@@UBEMM@Z:PROC		; ioWeapon::GetBlowPower
EXTRN	?GetAirPushPower@ioWeapon@@UBEMM@Z:PROC		; ioWeapon::GetAirPushPower
EXTRN	?GetAirBlowPower@ioWeapon@@UBEMM@Z:PROC		; ioWeapon::GetAirBlowPower
EXTRN	?GetDefensePushPower@ioWeapon@@UBEMM@Z:PROC	; ioWeapon::GetDefensePushPower
EXTRN	?GetCollisionEnableTime@ioWeapon@@UBEKXZ:PROC	; ioWeapon::GetCollisionEnableTime
EXTRN	?SetSylphid@ioWeapon@@UAEHXZ:PROC		; ioWeapon::SetSylphid
EXTRN	?ApplyExtraReserveWeaponByWeaponInfo@ioWeapon@@UAEXPAV1@@Z:PROC ; ioWeapon::ApplyExtraReserveWeaponByWeaponInfo
EXTRN	?SetResistanceAttr@ioWeapon@@UAEXH@Z:PROC	; ioWeapon::SetResistanceAttr
EXTRN	?SetStartCollisionBox@ioWeapon@@UAEXXZ:PROC	; ioWeapon::SetStartCollisionBox
EXTRN	?SetMoveSpeed@ioWeapon@@UAEXM@Z:PROC		; ioWeapon::SetMoveSpeed
EXTRN	?SetFloatPower@ioWeapon@@UAEXM@Z:PROC		; ioWeapon::SetFloatPower
EXTRN	?CheckStructAndDummy@ioWeapon@@UAEXPAVioPlayEntity@@PAVioPlayStage@@@Z:PROC ; ioWeapon::CheckStructAndDummy
EXTRN	?GetDamage@ioWeapon@@UAEMPAVioPlayEntity@@@Z:PROC ; ioWeapon::GetDamage
EXTRN	?GetBaseDamage@ioWeapon@@UAEMPAVioPlayEntity@@@Z:PROC ; ioWeapon::GetBaseDamage
EXTRN	?GetPushAngle@ioWeapon@@UBEMXZ:PROC		; ioWeapon::GetPushAngle
EXTRN	?IsResistanceMagic@ioWeapon@@UAEHPAVioBaseChar@@@Z:PROC ; ioWeapon::IsResistanceMagic
EXTRN	?IsResistanceBomb@ioWeapon@@UAEHPAVioBaseChar@@@Z:PROC ; ioWeapon::IsResistanceBomb
EXTRN	?IsCanMineExplosion@ioWeapon@@UAE_NXZ:PROC	; ioWeapon::IsCanMineExplosion
EXTRN	?CheckGrapplingState@ioWeapon@@UAE?AW4GrapplingType@@XZ:PROC ; ioWeapon::CheckGrapplingState
EXTRN	?CheckCurAttribute@ioWeapon@@UAEXPBVioPlayEntity@@@Z:PROC ; ioWeapon::CheckCurAttribute
EXTRN	?CheckItemNotDrop@ioWeapon@@UAE_NPAVioBaseChar@@@Z:PROC ; ioWeapon::CheckItemNotDrop
EXTRN	?GetWorldAttackBoxList@ioWeapon@@UAEXAAV?$vector@VioOrientBox@@V?$allocator@VioOrientBox@@@std@@@std@@@Z:PROC ; ioWeapon::GetWorldAttackBoxList
EXTRN	?GetAttackDir@ioWeapon@@UBE?AUD3DXVECTOR3@@PBVioPlayEntity@@@Z:PROC ; ioWeapon::GetAttackDir
EXTRN	?GetLiveTime@ioWeapon@@UAEKXZ:PROC		; ioWeapon::GetLiveTime
EXTRN	?CheckWeaponCollision@ioWeapon@@UAEXXZ:PROC	; ioWeapon::CheckWeaponCollision
EXTRN	?GetRefreshDuration@ioWeapon@@UAEKXZ:PROC	; ioWeapon::GetRefreshDuration
EXTRN	?GetIgnoreDuration@ioWeapon@@UAEKXZ:PROC	; ioWeapon::GetIgnoreDuration
EXTRN	?GetIgnoreTimeTypeDuration@ioWeapon@@UAEKXZ:PROC ; ioWeapon::GetIgnoreTimeTypeDuration
EXTRN	?GetIgnoreTimeType@ioWeapon@@UAEKXZ:PROC	; ioWeapon::GetIgnoreTimeType
EXTRN	?IsSkillDependency@ioWeapon@@UAE_NABVioHashString@@@Z:PROC ; ioWeapon::IsSkillDependency
EXTRN	?SetSkillDependencyAction@ioWeapon@@UAEXXZ:PROC	; ioWeapon::SetSkillDependencyAction
EXTRN	?GetAttribute@ioWeapon@@MBEPBUWeaponAttribute@@XZ:PROC ; ioWeapon::GetAttribute
EXTRN	?CalcFinalDamage@ioWeapon@@MAEMXZ:PROC		; ioWeapon::CalcFinalDamage
EXTRN	?CalcFinalBoundDamage@ioWeapon@@MAEMXZ:PROC	; ioWeapon::CalcFinalBoundDamage
EXTRN	?CheckPiercing@ioWeapon@@MAE_N_N@Z:PROC		; ioWeapon::CheckPiercing
EXTRN	?ClearCollisionList@ioWeapon@@MAEXXZ:PROC	; ioWeapon::ClearCollisionList
EXTRN	?CheckCreateWeaponList@ioWeapon@@MAEXXZ:PROC	; ioWeapon::CheckCreateWeaponList
EXTRN	?CreateCollisionAreaWeapon@ioWeapon@@MAEXXZ:PROC ; ioWeapon::CreateCollisionAreaWeapon
EXTRN	?SetMapCollision@ioWeapon@@UAEXXZ:PROC		; ioWeapon::SetMapCollision
EXTRN	?IsIgnoreMapCollision@ioWeapon@@UBE_NXZ:PROC	; ioWeapon::IsIgnoreMapCollision
EXTRN	?IsIgnoreTestMapCollision@ioWeapon@@UBE_NXZ:PROC ; ioWeapon::IsIgnoreTestMapCollision
EXTRN	?IsIgnoreMapCollisionEffect@ioWeapon@@UBE_NXZ:PROC ; ioWeapon::IsIgnoreMapCollisionEffect
EXTRN	?AddEffectEvent@ioWeapon@@MAEXPAVioEffect@@@Z:PROC ; ioWeapon::AddEffectEvent
EXTRN	??_EioControlMissileWeapon@@UAEPAXI@Z:PROC	; ioControlMissileWeapon::`vector deleting destructor'
;	COMDAT ??_R2ioWeapon@@8
; File d:\lost saga for developer\youtube\tutorial\source\src\lsclient\iocontrolmissileweapon.cpp
rdata$r	SEGMENT
??_R2ioWeapon@@8 DD FLAT:??_R1A@?0A@EA@ioWeapon@@8	; ioWeapon::`RTTI Base Class Array'
rdata$r	ENDS
;	COMDAT ??_R3ioWeapon@@8
rdata$r	SEGMENT
??_R3ioWeapon@@8 DD 00H					; ioWeapon::`RTTI Class Hierarchy Descriptor'
	DD	00H
	DD	01H
	DD	FLAT:??_R2ioWeapon@@8
rdata$r	ENDS
;	COMDAT ??_R0?AVioWeapon@@@8
_DATA	SEGMENT
??_R0?AVioWeapon@@@8 DD FLAT:??_7type_info@@6B@		; ioWeapon `RTTI Type Descriptor'
	DD	00H
	DB	'.?AVioWeapon@@', 00H
_DATA	ENDS
;	COMDAT ??_R1A@?0A@EA@ioWeapon@@8
rdata$r	SEGMENT
??_R1A@?0A@EA@ioWeapon@@8 DD FLAT:??_R0?AVioWeapon@@@8	; ioWeapon::`RTTI Base Class Descriptor at (0,-1,0,64)'
	DD	00H
	DD	00H
	DD	0ffffffffH
	DD	00H
	DD	040H
	DD	FLAT:??_R3ioWeapon@@8
rdata$r	ENDS
;	COMDAT ??_R1A@?0A@EA@ioControlMissileWeapon@@8
rdata$r	SEGMENT
??_R1A@?0A@EA@ioControlMissileWeapon@@8 DD FLAT:??_R0?AVioControlMissileWeapon@@@8 ; ioControlMissileWeapon::`RTTI Base Class Descriptor at (0,-1,0,64)'
	DD	01H
	DD	00H
	DD	0ffffffffH
	DD	00H
	DD	040H
	DD	FLAT:??_R3ioControlMissileWeapon@@8
rdata$r	ENDS
;	COMDAT ??_R2ioControlMissileWeapon@@8
rdata$r	SEGMENT
??_R2ioControlMissileWeapon@@8 DD FLAT:??_R1A@?0A@EA@ioControlMissileWeapon@@8 ; ioControlMissileWeapon::`RTTI Base Class Array'
	DD	FLAT:??_R1A@?0A@EA@ioWeapon@@8
rdata$r	ENDS
;	COMDAT ??_R3ioControlMissileWeapon@@8
rdata$r	SEGMENT
??_R3ioControlMissileWeapon@@8 DD 00H			; ioControlMissileWeapon::`RTTI Class Hierarchy Descriptor'
	DD	00H
	DD	02H
	DD	FLAT:??_R2ioControlMissileWeapon@@8
rdata$r	ENDS
;	COMDAT ??_R0?AVioControlMissileWeapon@@@8
_DATA	SEGMENT
??_R0?AVioControlMissileWeapon@@@8 DD FLAT:??_7type_info@@6B@ ; ioControlMissileWeapon `RTTI Type Descriptor'
	DD	00H
	DB	'.?AVioControlMissileWeapon@@', 00H
_DATA	ENDS
;	COMDAT ??_R4ioControlMissileWeapon@@6B@
rdata$r	SEGMENT
??_R4ioControlMissileWeapon@@6B@ DD 00H			; ioControlMissileWeapon::`RTTI Complete Object Locator'
	DD	00H
	DD	00H
	DD	FLAT:??_R0?AVioControlMissileWeapon@@@8
	DD	FLAT:??_R3ioControlMissileWeapon@@8
rdata$r	ENDS
;	COMDAT ??_C@_0EF@HIDNDMLC@ioControlMissileWeapon?3?3?$HOioContr@
CONST	SEGMENT
??_C@_0EF@HIDNDMLC@ioControlMissileWeapon?3?3?$HOioContr@ DB 'ioControlMi'
	DB	'ssileWeapon::~ioControlMissileWeapon - UnReleased Resouce', 00H ; `string'
CONST	ENDS
;	COMDAT ??_7ioControlMissileWeapon@@6B@
CONST	SEGMENT
??_7ioControlMissileWeapon@@6B@ DD FLAT:??_R4ioControlMissileWeapon@@6B@ ; ioControlMissileWeapon::`vftable'
	DD	FLAT:?IsAlreadyCollisioned@ioWeapon@@UAE_NPAVioPlayEntity@@@Z
	DD	FLAT:?AddCollisionEntity@ioWeapon@@UAEXPAVioPlayEntity@@@Z
	DD	FLAT:?SetOwnerDamageRate@ioWeapon@@UAEXM@Z
	DD	FLAT:?SetOwnerChargeDamageRate@ioWeapon@@UAEXM@Z
	DD	FLAT:?SetOwnerChargeForceRate@ioWeapon@@UAEXM@Z
	DD	FLAT:?SetOwnerChargeRangeRate@ioWeapon@@UAEXM@Z
	DD	FLAT:?SetOwnerChargeSpeedRate@ioWeapon@@UAEXM@Z
	DD	FLAT:?SetOwnerChargeBlowRate@ioWeapon@@UAEXM@Z
	DD	FLAT:?SetOwnerChargeFloatRate@ioWeapon@@UAEXM@Z
	DD	FLAT:?SetOwnerChargeScaleRate@ioWeapon@@UAEXM@Z
	DD	FLAT:?SetOwnerChargeExplosionRate@ioWeapon@@UAEXM@Z
	DD	FLAT:?SetOwnerChargeWoundedTimeRate@ioWeapon@@UAEXM@Z
	DD	FLAT:?SetOwnerChargeLiveTimeRate@ioWeapon@@UAEXM@Z
	DD	FLAT:?SetOwnerChargeBuffLiveTimeRate@ioWeapon@@UAEXM@Z
	DD	FLAT:?SetWeaponIndex@ioControlMissileWeapon@@UAEXK@Z
	DD	FLAT:?SetGrapplingTargetName@ioWeapon@@UAEXABVioHashString@@@Z
	DD	FLAT:?SetCreateItem@ioWeapon@@UAEXABVioHashString@@@Z
	DD	FLAT:?SetTeam@ioControlMissileWeapon@@UAEXPAVioPlayStage@@W4TeamType@@@Z
	DD	FLAT:?CallReserveAreaWeapon@ioWeapon@@UAEXXZ
	DD	FLAT:?SetWeaponDead@ioWeapon@@UAEXXZ
	DD	FLAT:?PlayExplosionSound@ioWeapon@@UAEXXZ
	DD	FLAT:?PlayWoundedSound@ioWeapon@@UAEXPAVioPlayEntity@@@Z
	DD	FLAT:?PlayDefensedSound@ioWeapon@@UAEXPAVioPlayEntity@@@Z
	DD	FLAT:?PlayLoopSound@ioWeapon@@UAEXXZ
	DD	FLAT:?StopLoopSound@ioWeapon@@UAEXXZ
	DD	FLAT:?GetTargetAirBuffList@ioWeapon@@UBEABV?$vector@UBuffInfoStruct@@V?$allocator@UBuffInfoStruct@@@std@@@std@@XZ
	DD	FLAT:?GetTargetBuffList@ioWeapon@@UBEABV?$vector@UBuffInfoStruct@@V?$allocator@UBuffInfoStruct@@@std@@@std@@XZ
	DD	FLAT:?GetTargetDownBuffList@ioWeapon@@UBEABV?$vector@UBuffInfoStruct@@V?$allocator@UBuffInfoStruct@@@std@@@std@@XZ
	DD	FLAT:?GetPosition@ioWeapon@@UBEABUD3DXVECTOR3@@XZ
	DD	FLAT:?GetBlowType@ioWeapon@@UBE?AW4BlowTargetType@@XZ
	DD	FLAT:?GetPushPower@ioWeapon@@UBEMM@Z
	DD	FLAT:?GetBlowPower@ioWeapon@@UBEMM@Z
	DD	FLAT:?GetAirPushPower@ioWeapon@@UBEMM@Z
	DD	FLAT:?GetAirBlowPower@ioWeapon@@UBEMM@Z
	DD	FLAT:?GetDefensePushPower@ioWeapon@@UBEMM@Z
	DD	FLAT:?GetCollisionEnableTime@ioWeapon@@UBEKXZ
	DD	FLAT:?SetSylphid@ioWeapon@@UAEHXZ
	DD	FLAT:?ApplyExtraReserveWeaponByWeaponInfo@ioWeapon@@UAEXPAV1@@Z
	DD	FLAT:?InitResource@ioControlMissileWeapon@@UAE_NXZ
	DD	FLAT:?DestroyResource@ioControlMissileWeapon@@UAEXPAVioPlayStage@@@Z
	DD	FLAT:?LoadProperty@ioControlMissileWeapon@@UAEXAAVioINILoader@@@Z
	DD	FLAT:?SetResistanceAttr@ioWeapon@@UAEXH@Z
	DD	FLAT:?SetStartCollisionBox@ioWeapon@@UAEXXZ
	DD	FLAT:?SetLiveTime@ioControlMissileWeapon@@UAEXK@Z
	DD	FLAT:?SetMoveDir@ioControlMissileWeapon@@UAEXABUD3DXVECTOR3@@@Z
	DD	FLAT:?SetMoveSpeed@ioWeapon@@UAEXM@Z
	DD	FLAT:?SetFloatPower@ioWeapon@@UAEXM@Z
	DD	FLAT:?SetStartPosition@ioControlMissileWeapon@@UAEXABUD3DXVECTOR3@@PAVioPlayStage@@@Z
	DD	FLAT:?Process@ioControlMissileWeapon@@UAEXMPAVioPlayStage@@@Z
	DD	FLAT:?IsCollision@ioControlMissileWeapon@@UAE_NPAVioPlayEntity@@_N@Z
	DD	FLAT:?TestMapCollision@ioControlMissileWeapon@@UAE_NPAVioOpcodeShape@@PAVioPlayStage@@PBUD3DXMATRIX@@@Z
	DD	FLAT:?CheckPreCollision@ioControlMissileWeapon@@UAEXPAVioPlayEntity@@PAVioPlayStage@@@Z
	DD	FLAT:?CheckStructAndDummy@ioWeapon@@UAEXPAVioPlayEntity@@PAVioPlayStage@@@Z
	DD	FLAT:?GetDamage@ioWeapon@@UAEMPAVioPlayEntity@@@Z
	DD	FLAT:?GetBaseDamage@ioWeapon@@UAEMPAVioPlayEntity@@@Z
	DD	FLAT:?GetPushAngle@ioWeapon@@UBEMXZ
	DD	FLAT:?IsResistanceMagic@ioWeapon@@UAEHPAVioBaseChar@@@Z
	DD	FLAT:?IsResistanceBomb@ioWeapon@@UAEHPAVioBaseChar@@@Z
	DD	FLAT:?IsCanMineExplosion@ioWeapon@@UAE_NXZ
	DD	FLAT:?CheckGrapplingState@ioWeapon@@UAE?AW4GrapplingType@@XZ
	DD	FLAT:?CheckCurAttribute@ioWeapon@@UAEXPBVioPlayEntity@@@Z
	DD	FLAT:?CheckItemNotDrop@ioWeapon@@UAE_NPAVioBaseChar@@@Z
	DD	FLAT:?GetWorldAttackBoxList@ioWeapon@@UAEXAAV?$vector@VioOrientBox@@V?$allocator@VioOrientBox@@@std@@@std@@@Z
	DD	FLAT:?GetAttackDir@ioWeapon@@UBE?AUD3DXVECTOR3@@PBVioPlayEntity@@@Z
	DD	FLAT:?GetLocalAttackBox@ioControlMissileWeapon@@UBEABVioOrientBox@@XZ
	DD	FLAT:?GetLiveTime@ioWeapon@@UAEKXZ
	DD	FLAT:?GetMoveDir@ioControlMissileWeapon@@UAE?AUD3DXVECTOR3@@XZ
	DD	FLAT:?CheckWeaponCollision@ioWeapon@@UAEXXZ
	DD	FLAT:?GetType@ioControlMissileWeapon@@UBE?AW4WeaponType@ioWeapon@@XZ
	DD	FLAT:?GetActionStopType@ioControlMissileWeapon@@UBE?AW4ActionStopType@@XZ
	DD	FLAT:?GetDieActionStopType@ioControlMissileWeapon@@UBE?AW4ActionStopType@@XZ
	DD	FLAT:?GetRefreshDuration@ioWeapon@@UAEKXZ
	DD	FLAT:?GetIgnoreDuration@ioWeapon@@UAEKXZ
	DD	FLAT:?GetIgnoreTimeTypeDuration@ioWeapon@@UAEKXZ
	DD	FLAT:?GetIgnoreTimeType@ioWeapon@@UAEKXZ
	DD	FLAT:?ApplyWeaponSync@ioControlMissileWeapon@@UAEXAAVSP2Packet@@PAVioPlayStage@@@Z
	DD	FLAT:?IsSkillDependency@ioWeapon@@UAE_NABVioHashString@@@Z
	DD	FLAT:?SetSkillDependencyAction@ioWeapon@@UAEXXZ
	DD	FLAT:?UpdateWorldAttackBox@ioControlMissileWeapon@@MAEXM_N@Z
	DD	FLAT:?GetAttribute@ioWeapon@@MBEPBUWeaponAttribute@@XZ
	DD	FLAT:?CalcFinalDamage@ioWeapon@@MAEMXZ
	DD	FLAT:?CalcFinalBoundDamage@ioWeapon@@MAEMXZ
	DD	FLAT:?CheckPiercing@ioWeapon@@MAE_N_N@Z
	DD	FLAT:?ClearCollisionList@ioWeapon@@MAEXXZ
	DD	FLAT:?CheckCreateWeaponList@ioWeapon@@MAEXXZ
	DD	FLAT:?CreateCollisionAreaWeapon@ioWeapon@@MAEXXZ
	DD	FLAT:?SetMapCollision@ioWeapon@@UAEXXZ
	DD	FLAT:?IsIgnoreMapCollision@ioWeapon@@UBE_NXZ
	DD	FLAT:?IsIgnoreTestMapCollision@ioWeapon@@UBE_NXZ
	DD	FLAT:?IsIgnoreMapCollisionEffect@ioWeapon@@UBE_NXZ
	DD	FLAT:?AddEffectEvent@ioWeapon@@MAEXPAVioEffect@@@Z
	DD	FLAT:??_EioControlMissileWeapon@@UAEPAXI@Z
CONST	ENDS
;	COMDAT xdata$x
xdata$x	SEGMENT
__unwindtable$??1ioControlMissileWeapon@@UAE@XZ DD 0ffffffffH
	DD	FLAT:__unwindfunclet$??1ioControlMissileWeapon@@UAE@XZ$0
	DD	00H
	DD	FLAT:__unwindfunclet$??1ioControlMissileWeapon@@UAE@XZ$1
	DD	01H
	DD	FLAT:__unwindfunclet$??1ioControlMissileWeapon@@UAE@XZ$2
	DD	02H
	DD	FLAT:__unwindfunclet$??1ioControlMissileWeapon@@UAE@XZ$3
__ehfuncinfo$??1ioControlMissileWeapon@@UAE@XZ DD 019930522H
	DD	04H
	DD	FLAT:__unwindtable$??1ioControlMissileWeapon@@UAE@XZ
	DD	2 DUP(00H)
	DD	2 DUP(00H)
	DD	00H
	DD	01H
; Function compile flags: /Ogsp
xdata$x	ENDS
;	COMDAT ??1ioControlMissileWeapon@@UAE@XZ
_TEXT	SEGMENT
_this$ = -16						; size = 4
__$EHRec$ = -12						; size = 12
??1ioControlMissileWeapon@@UAE@XZ PROC			; ioControlMissileWeapon::~ioControlMissileWeapon, COMDAT
; _this$ = ecx

; 30   : {

  00000	6a 04		 push	 4
  00002	b8 00 00 00 00	 mov	 eax, __ehhandler$??1ioControlMissileWeapon@@UAE@XZ
  00007	e8 00 00 00 00	 call	 __EH_prolog3
  0000c	8b f1		 mov	 esi, ecx
  0000e	89 75 f0	 mov	 DWORD PTR _this$[ebp], esi
  00011	c7 06 00 00 00
	00		 mov	 DWORD PTR [esi], OFFSET ??_7ioControlMissileWeapon@@6B@

; 31   : 	if( m_pMissileMesh )

  00017	83 be e8 08 00
	00 00		 cmp	 DWORD PTR [esi+2280], 0
  0001e	c7 45 fc 03 00
	00 00		 mov	 DWORD PTR __$EHRec$[ebp+8], 3
  00025	74 16		 je	 SHORT $LN1@ioControlM

; 32   : 	{
; 33   : 		LOG.PrintTimeAndLog( 0, "ioControlMissileWeapon::~ioControlMissileWeapon - UnReleased Resouce" );

  00027	68 00 00 00 00	 push	 OFFSET ??_C@_0EF@HIDNDMLC@ioControlMissileWeapon?3?3?$HOioContr@
  0002c	6a 00		 push	 0
  0002e	ff 35 00 00 00
	00		 push	 DWORD PTR __imp_?LOG@@3VCLog@@A
  00034	ff 15 00 00 00
	00		 call	 DWORD PTR __imp_?PrintTimeAndLog@CLog@@QAAXHPADZZ
  0003a	83 c4 0c	 add	 esp, 12			; 0000000cH
$LN1@ioControlM:

; 34   : 	}
; 35   : }

  0003d	8b 3d 00 00 00
	00		 mov	 edi, DWORD PTR __imp_??1ioHashString@@QAE@XZ
  00043	8d 8e fc 08 00
	00		 lea	 ecx, DWORD PTR [esi+2300]
  00049	c6 45 fc 02	 mov	 BYTE PTR __$EHRec$[ebp+8], 2
  0004d	ff d7		 call	 edi
  0004f	8d 8e ec 08 00
	00		 lea	 ecx, DWORD PTR [esi+2284]
  00055	c6 45 fc 01	 mov	 BYTE PTR __$EHRec$[ebp+8], 1
  00059	ff d7		 call	 edi
  0005b	8d 8e 98 08 00
	00		 lea	 ecx, DWORD PTR [esi+2200]
  00061	c6 45 fc 00	 mov	 BYTE PTR __$EHRec$[ebp+8], 0
  00065	ff 15 00 00 00
	00		 call	 DWORD PTR __imp_??1ioOrientBox@@QAE@XZ
  0006b	83 4d fc ff	 or	 DWORD PTR __$EHRec$[ebp+8], -1
  0006f	8b ce		 mov	 ecx, esi
  00071	e8 00 00 00 00	 call	 ??1ioWeapon@@UAE@XZ	; ioWeapon::~ioWeapon
  00076	e8 00 00 00 00	 call	 __EH_epilog3
  0007b	c3		 ret	 0
_TEXT	ENDS
;	COMDAT text$x
text$x	SEGMENT
__unwindfunclet$??1ioControlMissileWeapon@@UAE@XZ$0:
  00000	8b 4d f0	 mov	 ecx, DWORD PTR _this$[ebp]
  00003	e9 00 00 00 00	 jmp	 ??1ioWeapon@@UAE@XZ	; ioWeapon::~ioWeapon
__unwindfunclet$??1ioControlMissileWeapon@@UAE@XZ$1:
  00008	8b 4d f0	 mov	 ecx, DWORD PTR _this$[ebp]
  0000b	81 c1 98 08 00
	00		 add	 ecx, 2200		; 00000898H
  00011	ff 25 00 00 00
	00		 jmp	 DWORD PTR __imp_??1ioOrientBox@@QAE@XZ
__unwindfunclet$??1ioControlMissileWeapon@@UAE@XZ$2:
  00017	8b 4d f0	 mov	 ecx, DWORD PTR _this$[ebp]
  0001a	81 c1 ec 08 00
	00		 add	 ecx, 2284		; 000008ecH
  00020	ff 25 00 00 00
	00		 jmp	 DWORD PTR __imp_??1ioHashString@@QAE@XZ
__unwindfunclet$??1ioControlMissileWeapon@@UAE@XZ$3:
  00026	8b 4d f0	 mov	 ecx, DWORD PTR _this$[ebp]
  00029	81 c1 fc 08 00
	00		 add	 ecx, 2300		; 000008fcH
  0002f	ff 25 00 00 00
	00		 jmp	 DWORD PTR __imp_??1ioHashString@@QAE@XZ
__ehhandler$??1ioControlMissileWeapon@@UAE@XZ:
  00035	8b 54 24 08	 mov	 edx, DWORD PTR [esp+8]
  00039	8d 42 0c	 lea	 eax, DWORD PTR [edx+12]
  0003c	8b 4a ec	 mov	 ecx, DWORD PTR [edx-20]
  0003f	33 c8		 xor	 ecx, eax
  00041	e8 00 00 00 00	 call	 @__security_check_cookie@4
  00046	b8 00 00 00 00	 mov	 eax, OFFSET __ehfuncinfo$??1ioControlMissileWeapon@@UAE@XZ
  0004b	e9 00 00 00 00	 jmp	 ___CxxFrameHandler3
text$x	ENDS
??1ioControlMissileWeapon@@UAE@XZ ENDP			; ioControlMissileWeapon::~ioControlMissileWeapon
; Function compile flags: /Ogsp
;	COMDAT ?InitResource@ioControlMissileWeapon@@UAE_NXZ
_TEXT	SEGMENT
?InitResource@ioControlMissileWeapon@@UAE_NXZ PROC	; ioControlMissileWeapon::InitResource, COMDAT
; _this$ = ecx

; 39   : 	return true;

  00000	b0 01		 mov	 al, 1

; 40   : }

  00002	c3		 ret	 0
?InitResource@ioControlMissileWeapon@@UAE_NXZ ENDP	; ioControlMissileWeapon::InitResource
; Function compile flags: /Ogsp
_TEXT	ENDS
;	COMDAT ?SetWeaponIndex@ioControlMissileWeapon@@UAEXK@Z
_TEXT	SEGMENT
_dwIndex$ = 8						; size = 4
?SetWeaponIndex@ioControlMissileWeapon@@UAEXK@Z PROC	; ioControlMissileWeapon::SetWeaponIndex, COMDAT
; _this$ = ecx

; 69   : {

  00000	55		 push	 ebp
  00001	8b ec		 mov	 ebp, esp

; 70   : 	m_dwWeaponIdx = dwIndex;

  00003	8b 45 08	 mov	 eax, DWORD PTR _dwIndex$[ebp]
  00006	89 81 b8 04 00
	00		 mov	 DWORD PTR [ecx+1208], eax

; 71   : }

  0000c	5d		 pop	 ebp
  0000d	c2 04 00	 ret	 4
?SetWeaponIndex@ioControlMissileWeapon@@UAEXK@Z ENDP	; ioControlMissileWeapon::SetWeaponIndex
; Function compile flags: /Ogsp
_TEXT	ENDS
;	COMDAT ?SetLiveTime@ioControlMissileWeapon@@UAEXK@Z
_TEXT	SEGMENT
_dwTime$ = 8						; size = 4
?SetLiveTime@ioControlMissileWeapon@@UAEXK@Z PROC	; ioControlMissileWeapon::SetLiveTime, COMDAT
; _this$ = ecx

; 148  : }

  00000	c2 04 00	 ret	 4
?SetLiveTime@ioControlMissileWeapon@@UAEXK@Z ENDP	; ioControlMissileWeapon::SetLiveTime
; Function compile flags: /Ogsp
_TEXT	ENDS
;	COMDAT ?GetMoveDir@ioControlMissileWeapon@@UAE?AUD3DXVECTOR3@@XZ
_TEXT	SEGMENT
___$ReturnUdt$ = 8					; size = 4
?GetMoveDir@ioControlMissileWeapon@@UAE?AUD3DXVECTOR3@@XZ PROC ; ioControlMissileWeapon::GetMoveDir, COMDAT
; _this$ = ecx

; 160  : {

  00000	55		 push	 ebp
  00001	8b ec		 mov	 ebp, esp

; 161  : 	return m_vMoveDir;

  00003	8b 45 08	 mov	 eax, DWORD PTR ___$ReturnUdt$[ebp]
  00006	56		 push	 esi
  00007	57		 push	 edi
  00008	8d b1 dc 08 00
	00		 lea	 esi, DWORD PTR [ecx+2268]
  0000e	8b f8		 mov	 edi, eax
  00010	a5		 movsd
  00011	a5		 movsd
  00012	a5		 movsd
  00013	5f		 pop	 edi
  00014	5e		 pop	 esi

; 162  : }

  00015	5d		 pop	 ebp
  00016	c2 04 00	 ret	 4
?GetMoveDir@ioControlMissileWeapon@@UAE?AUD3DXVECTOR3@@XZ ENDP ; ioControlMissileWeapon::GetMoveDir
_TEXT	ENDS
PUBLIC	__mask@@AbsDouble@
EXTRN	?GetOwner@ioWeapon@@QBEPAVioBaseChar@@XZ:PROC	; ioWeapon::GetOwner
EXTRN	?SetPosition@ioWeapon@@QAEXABUD3DXVECTOR3@@@Z:PROC ; ioWeapon::SetPosition
EXTRN	__imp_?HasLinkedSystem@ioEffect@@QBE_NXZ:PROC
EXTRN	__imp_?IsEmpty@ioHashString@@QBE_NXZ:PROC
EXTRN	__imp_?GetSkeletonName@ioEffect@@QBE?AVioHashString@@XZ:PROC
;	COMDAT __mask@@AbsDouble@
; File c:\program files (x86)\microsoft visual studio 10.0\vc\include\math.h
CONST	SEGMENT
__mask@@AbsDouble@ DB 0ffH, 0ffH, 0ffH, 0ffH, 0ffH, 0ffH, 0ffH, 07fH, 0ffH
	DB	0ffH, 0ffH, 0ffH, 0ffH, 0ffH, 0ffH, 07fH
CONST	ENDS
;	COMDAT xdata$x
xdata$x	SEGMENT
__unwindtable$?SetStartPosition@ioControlMissileWeapon@@UAEXABUD3DXVECTOR3@@PAVioPlayStage@@@Z DD 0ffffffffH
	DD	FLAT:__unwindfunclet$?SetStartPosition@ioControlMissileWeapon@@UAEXABUD3DXVECTOR3@@PAVioPlayStage@@@Z$0
__ehfuncinfo$?SetStartPosition@ioControlMissileWeapon@@UAEXABUD3DXVECTOR3@@PAVioPlayStage@@@Z DD 019930522H
	DD	01H
	DD	FLAT:__unwindtable$?SetStartPosition@ioControlMissileWeapon@@UAEXABUD3DXVECTOR3@@PAVioPlayStage@@@Z
	DD	2 DUP(00H)
	DD	2 DUP(00H)
	DD	00H
	DD	01H
; Function compile flags: /Ogsp
; File d:\lost saga for developer\youtube\tutorial\source\src\lsclient\iocontrolmissileweapon.cpp
xdata$x	ENDS
;	COMDAT ?SetStartPosition@ioControlMissileWeapon@@UAEXABUD3DXVECTOR3@@PAVioPlayStage@@@Z
_TEXT	SEGMENT
$T533127 = -36						; size = 16
tv163 = -20						; size = 8
$T533130 = -16						; size = 4
__$EHRec$ = -12						; size = 12
_vPos$ = 8						; size = 4
_pStage$ = 12						; size = 4
?SetStartPosition@ioControlMissileWeapon@@UAEXABUD3DXVECTOR3@@PAVioPlayStage@@@Z PROC ; ioControlMissileWeapon::SetStartPosition, COMDAT
; _this$ = ecx

; 165  : {

  00000	6a 18		 push	 24			; 00000018H
  00002	b8 00 00 00 00	 mov	 eax, __ehhandler$?SetStartPosition@ioControlMissileWeapon@@UAEXABUD3DXVECTOR3@@PAVioPlayStage@@@Z
  00007	e8 00 00 00 00	 call	 __EH_prolog3
  0000c	8b f1		 mov	 esi, ecx
  0000e	83 65 f0 00	 and	 DWORD PTR $T533130[ebp], 0

; 166  : 	if( m_pMissileMesh && m_pMissileMesh->GetSkeletonName().IsEmpty() && m_pMissileMesh->HasLinkedSystem() )

  00012	8b 8e e8 08 00
	00		 mov	 ecx, DWORD PTR [esi+2280]
  00018	85 c9		 test	 ecx, ecx
  0001a	74 35		 je	 SHORT $LN5@SetStartPo
  0001c	8d 45 dc	 lea	 eax, DWORD PTR $T533127[ebp]
  0001f	50		 push	 eax
  00020	ff 15 00 00 00
	00		 call	 DWORD PTR __imp_?GetSkeletonName@ioEffect@@QBE?AVioHashString@@XZ
  00026	83 65 fc 00	 and	 DWORD PTR __$EHRec$[ebp+8], 0
  0002a	8b c8		 mov	 ecx, eax
  0002c	c7 45 f0 01 00
	00 00		 mov	 DWORD PTR $T533130[ebp], 1
  00033	ff 15 00 00 00
	00		 call	 DWORD PTR __imp_?IsEmpty@ioHashString@@QBE_NXZ
  00039	84 c0		 test	 al, al
  0003b	74 14		 je	 SHORT $LN5@SetStartPo
  0003d	8b 8e e8 08 00
	00		 mov	 ecx, DWORD PTR [esi+2280]
  00043	ff 15 00 00 00
	00		 call	 DWORD PTR __imp_?HasLinkedSystem@ioEffect@@QBE_NXZ
  00049	84 c0		 test	 al, al
  0004b	74 04		 je	 SHORT $LN5@SetStartPo
  0004d	b3 01		 mov	 bl, 1
  0004f	eb 02		 jmp	 SHORT $LN6@SetStartPo
$LN5@SetStartPo:
  00051	32 db		 xor	 bl, bl
$LN6@SetStartPo:
  00053	83 4d fc ff	 or	 DWORD PTR __$EHRec$[ebp+8], -1
  00057	f6 45 f0 01	 test	 BYTE PTR $T533130[ebp], 1
  0005b	74 09		 je	 SHORT $LN9@SetStartPo
  0005d	8d 4d dc	 lea	 ecx, DWORD PTR $T533127[ebp]
  00060	ff 15 00 00 00
	00		 call	 DWORD PTR __imp_??1ioHashString@@QAE@XZ
$LN9@SetStartPo:
  00066	84 db		 test	 bl, bl
  00068	75 62		 jne	 SHORT $LN1@SetStartPo

; 167  : 		return;
; 168  : 
; 169  : 	SetPosition( vPos );

  0006a	8b 7d 08	 mov	 edi, DWORD PTR _vPos$[ebp]
  0006d	57		 push	 edi
  0006e	8b ce		 mov	 ecx, esi
  00070	e8 00 00 00 00	 call	 ?SetPosition@ioWeapon@@QAEXABUD3DXVECTOR3@@@Z ; ioWeapon::SetPosition

; 170  : 
; 171  : 	m_fDefaultGapHeight = 0.0f;

  00075	0f 57 c0	 xorps	 xmm0, xmm0

; 172  : 	ioBaseChar *pOwner = GetOwner();

  00078	8b ce		 mov	 ecx, esi
  0007a	f3 0f 11 86 18
	09 00 00	 movss	 DWORD PTR [esi+2328], xmm0
  00082	e8 00 00 00 00	 call	 ?GetOwner@ioWeapon@@QBEPAVioBaseChar@@XZ ; ioWeapon::GetOwner

; 173  : 	if( pOwner )

  00087	85 c0		 test	 eax, eax
  00089	74 41		 je	 SHORT $LN1@SetStartPo

; 174  : 	{
; 175  : 		m_fDefaultGapHeight = fabs( vPos.y - pOwner->GetWorldPosition().y );

  0008b	f3 0f 10 47 04	 movss	 xmm0, DWORD PTR [edi+4]
  00090	8b 10		 mov	 edx, DWORD PTR [eax]
  00092	0f 5a c0	 cvtps2pd xmm0, xmm0
  00095	8b c8		 mov	 ecx, eax
  00097	f2 0f 11 45 ec	 movsd	 QWORD PTR tv163[ebp], xmm0
  0009c	ff 52 70	 call	 DWORD PTR [edx+112]
  0009f	f3 0f 10 40 04	 movss	 xmm0, DWORD PTR [eax+4]
  000a4	0f 5a c8	 cvtps2pd xmm1, xmm0
  000a7	f2 0f 10 45 ec	 movsd	 xmm0, QWORD PTR tv163[ebp]
  000ac	f2 0f 5c c1	 subsd	 xmm0, xmm1
  000b0	66 0f 5a c0	 cvtpd2ps xmm0, xmm0
  000b4	f3 0f 5a c0	 cvtss2sd xmm0, xmm0
  000b8	66 0f 54 05 00
	00 00 00	 andpd	 xmm0, QWORD PTR __mask@@AbsDouble@
  000c0	f2 0f 5a c0	 cvtsd2ss xmm0, xmm0
  000c4	f3 0f 11 86 18
	09 00 00	 movss	 DWORD PTR [esi+2328], xmm0
$LN1@SetStartPo:

; 176  : 	}
; 177  : }

  000cc	e8 00 00 00 00	 call	 __EH_epilog3
  000d1	c2 08 00	 ret	 8
_TEXT	ENDS
;	COMDAT text$x
text$x	SEGMENT
__unwindfunclet$?SetStartPosition@ioControlMissileWeapon@@UAEXABUD3DXVECTOR3@@PAVioPlayStage@@@Z$0:
  00000	8b 45 f0	 mov	 eax, DWORD PTR $T533130[ebp]
  00003	83 e0 01	 and	 eax, 1
  00006	0f 84 0d 00 00
	00		 je	 $LN8@SetStartPo
  0000c	83 65 f0 fe	 and	 DWORD PTR $T533130[ebp], -2 ; fffffffeH
  00010	8d 4d dc	 lea	 ecx, DWORD PTR $T533127[ebp]
  00013	ff 25 00 00 00
	00		 jmp	 DWORD PTR __imp_??1ioHashString@@QAE@XZ
$LN8@SetStartPo:
  00019	c3		 ret	 0
__ehhandler$?SetStartPosition@ioControlMissileWeapon@@UAEXABUD3DXVECTOR3@@PAVioPlayStage@@@Z:
  0001a	8b 54 24 08	 mov	 edx, DWORD PTR [esp+8]
  0001e	8d 42 0c	 lea	 eax, DWORD PTR [edx+12]
  00021	8b 4a d8	 mov	 ecx, DWORD PTR [edx-40]
  00024	33 c8		 xor	 ecx, eax
  00026	e8 00 00 00 00	 call	 @__security_check_cookie@4
  0002b	b8 00 00 00 00	 mov	 eax, OFFSET __ehfuncinfo$?SetStartPosition@ioControlMissileWeapon@@UAEXABUD3DXVECTOR3@@PAVioPlayStage@@@Z
  00030	e9 00 00 00 00	 jmp	 ___CxxFrameHandler3
text$x	ENDS
?SetStartPosition@ioControlMissileWeapon@@UAEXABUD3DXVECTOR3@@PAVioPlayStage@@@Z ENDP ; ioControlMissileWeapon::SetStartPosition
PUBLIC	?ChangeToInRange@ioControlMissileWeapon@@IAEXXZ	; ioControlMissileWeapon::ChangeToInRange
; Function compile flags: /Ogsp
;	COMDAT ?ChangeToInRange@ioControlMissileWeapon@@IAEXXZ
_TEXT	SEGMENT
?ChangeToInRange@ioControlMissileWeapon@@IAEXXZ PROC	; ioControlMissileWeapon::ChangeToInRange, COMDAT
; _this$ = ecx

; 318  : 	m_ControlState = CTS_IN_RANGE;

  00000	83 a1 94 08 00
	00 00		 and	 DWORD PTR [ecx+2196], 0

; 319  : }

  00007	c3		 ret	 0
?ChangeToInRange@ioControlMissileWeapon@@IAEXXZ ENDP	; ioControlMissileWeapon::ChangeToInRange
_TEXT	ENDS
PUBLIC	?ChangeToOutRange@ioControlMissileWeapon@@IAEXXZ ; ioControlMissileWeapon::ChangeToOutRange
; Function compile flags: /Ogsp
;	COMDAT ?ChangeToOutRange@ioControlMissileWeapon@@IAEXXZ
_TEXT	SEGMENT
?ChangeToOutRange@ioControlMissileWeapon@@IAEXXZ PROC	; ioControlMissileWeapon::ChangeToOutRange, COMDAT
; _this$ = ecx

; 323  : 	m_ControlState = CTS_OUT_RANGE;

  00000	c7 81 94 08 00
	00 01 00 00 00	 mov	 DWORD PTR [ecx+2196], 1

; 324  : }

  0000a	c3		 ret	 0
?ChangeToOutRange@ioControlMissileWeapon@@IAEXXZ ENDP	; ioControlMissileWeapon::ChangeToOutRange
_TEXT	ENDS
PUBLIC	?ChangeToReturnState@ioControlMissileWeapon@@IAEXXZ ; ioControlMissileWeapon::ChangeToReturnState
EXTRN	__imp_?GetLoopSec@ioFrameTimer@@QBEKXZ:PROC
EXTRN	__imp_?GetSingleton@ioFrameTimer@@SAAAV1@XZ:PROC
; Function compile flags: /Ogsp
;	COMDAT ?ChangeToReturnState@ioControlMissileWeapon@@IAEXXZ
_TEXT	SEGMENT
?ChangeToReturnState@ioControlMissileWeapon@@IAEXXZ PROC ; ioControlMissileWeapon::ChangeToReturnState, COMDAT
; _this$ = ecx

; 327  : {

  00000	56		 push	 esi
  00001	8b f1		 mov	 esi, ecx

; 328  : 	m_dwReturnStartTime = FRAMEGETTIME();

  00003	ff 15 00 00 00
	00		 call	 DWORD PTR __imp_?GetSingleton@ioFrameTimer@@SAAAV1@XZ
  00009	8b c8		 mov	 ecx, eax
  0000b	ff 15 00 00 00
	00		 call	 DWORD PTR __imp_?GetLoopSec@ioFrameTimer@@QBEKXZ
  00011	89 86 38 09 00
	00		 mov	 DWORD PTR [esi+2360], eax

; 329  : 	m_ControlState = CTS_RETURN;

  00017	c7 86 94 08 00
	00 02 00 00 00	 mov	 DWORD PTR [esi+2196], 2
  00021	5e		 pop	 esi

; 330  : }

  00022	c3		 ret	 0
?ChangeToReturnState@ioControlMissileWeapon@@IAEXXZ ENDP ; ioControlMissileWeapon::ChangeToReturnState
_TEXT	ENDS
EXTRN	__imp_?DestroyEffect@ioEffectFactory@@QAEXPAVioEffect@@@Z:PROC
EXTRN	__imp_?GetSingleton@ioEffectFactory@@SAAAV1@XZ:PROC
; Function compile flags: /Ogsp
;	COMDAT ?DestroyResource@ioControlMissileWeapon@@UAEXPAVioPlayStage@@@Z
_TEXT	SEGMENT
_pStage$ = 8						; size = 4
?DestroyResource@ioControlMissileWeapon@@UAEXPAVioPlayStage@@@Z PROC ; ioControlMissileWeapon::DestroyResource, COMDAT
; _this$ = ecx

; 527  : {

  00000	56		 push	 esi

; 528  : 	if( m_pMissileMesh )

  00001	8d b1 e8 08 00
	00		 lea	 esi, DWORD PTR [ecx+2280]
  00007	8b 06		 mov	 eax, DWORD PTR [esi]
  00009	85 c0		 test	 eax, eax
  0000b	74 12		 je	 SHORT $LN1@DestroyRes

; 529  : 	{
; 530  : 		g_EffectFactory.DestroyEffect( m_pMissileMesh );

  0000d	50		 push	 eax
  0000e	ff 15 00 00 00
	00		 call	 DWORD PTR __imp_?GetSingleton@ioEffectFactory@@SAAAV1@XZ
  00014	8b c8		 mov	 ecx, eax
  00016	ff 15 00 00 00
	00		 call	 DWORD PTR __imp_?DestroyEffect@ioEffectFactory@@QAEXPAVioEffect@@@Z

; 531  : 		m_pMissileMesh = NULL;

  0001c	83 26 00	 and	 DWORD PTR [esi], 0
$LN1@DestroyRes:
  0001f	5e		 pop	 esi

; 532  : 	}
; 533  : }

  00020	c2 04 00	 ret	 4
?DestroyResource@ioControlMissileWeapon@@UAEXPAVioPlayStage@@@Z ENDP ; ioControlMissileWeapon::DestroyResource
; Function compile flags: /Ogsp
_TEXT	ENDS
;	COMDAT ?GetLocalAttackBox@ioControlMissileWeapon@@UBEABVioOrientBox@@XZ
_TEXT	SEGMENT
?GetLocalAttackBox@ioControlMissileWeapon@@UBEABVioOrientBox@@XZ PROC ; ioControlMissileWeapon::GetLocalAttackBox, COMDAT
; _this$ = ecx

; 537  : 	return m_LocalAttackBox;

  00000	8d 81 98 08 00
	00		 lea	 eax, DWORD PTR [ecx+2200]

; 538  : }

  00006	c3		 ret	 0
?GetLocalAttackBox@ioControlMissileWeapon@@UBEABVioOrientBox@@XZ ENDP ; ioControlMissileWeapon::GetLocalAttackBox
; Function compile flags: /Ogsp
_TEXT	ENDS
;	COMDAT ?GetType@ioControlMissileWeapon@@UBE?AW4WeaponType@ioWeapon@@XZ
_TEXT	SEGMENT
?GetType@ioControlMissileWeapon@@UBE?AW4WeaponType@ioWeapon@@XZ PROC ; ioControlMissileWeapon::GetType, COMDAT
; _this$ = ecx

; 542  : 	return WT_CONTROL_MISSILE;

  00000	6a 24		 push	 36			; 00000024H
  00002	58		 pop	 eax

; 543  : }

  00003	c3		 ret	 0
?GetType@ioControlMissileWeapon@@UBE?AW4WeaponType@ioWeapon@@XZ ENDP ; ioControlMissileWeapon::GetType
; Function compile flags: /Ogsp
_TEXT	ENDS
;	COMDAT ?GetActionStopType@ioControlMissileWeapon@@UBE?AW4ActionStopType@@XZ
_TEXT	SEGMENT
?GetActionStopType@ioControlMissileWeapon@@UBE?AW4ActionStopType@@XZ PROC ; ioControlMissileWeapon::GetActionStopType, COMDAT
; _this$ = ecx

; 547  : 	return m_ActionStopType;

  00000	a1 00 00 00 00	 mov	 eax, DWORD PTR ?m_ActionStopType@ioControlMissileWeapon@@2W4ActionStopType@@A ; ioControlMissileWeapon::m_ActionStopType

; 548  : }

  00005	c3		 ret	 0
?GetActionStopType@ioControlMissileWeapon@@UBE?AW4ActionStopType@@XZ ENDP ; ioControlMissileWeapon::GetActionStopType
; Function compile flags: /Ogsp
_TEXT	ENDS
;	COMDAT ?GetDieActionStopType@ioControlMissileWeapon@@UBE?AW4ActionStopType@@XZ
_TEXT	SEGMENT
?GetDieActionStopType@ioControlMissileWeapon@@UBE?AW4ActionStopType@@XZ PROC ; ioControlMissileWeapon::GetDieActionStopType, COMDAT
; _this$ = ecx

; 552  : 	return m_DieActionStopType;

  00000	a1 00 00 00 00	 mov	 eax, DWORD PTR ?m_DieActionStopType@ioControlMissileWeapon@@2W4ActionStopType@@A ; ioControlMissileWeapon::m_DieActionStopType

; 553  : }

  00005	c3		 ret	 0
?GetDieActionStopType@ioControlMissileWeapon@@UBE?AW4ActionStopType@@XZ ENDP ; ioControlMissileWeapon::GetDieActionStopType
_TEXT	ENDS
PUBLIC	?CheckReturnEndTime@ioControlMissileWeapon@@IAE_NXZ ; ioControlMissileWeapon::CheckReturnEndTime
; Function compile flags: /Ogsp
;	COMDAT ?CheckReturnEndTime@ioControlMissileWeapon@@IAE_NXZ
_TEXT	SEGMENT
?CheckReturnEndTime@ioControlMissileWeapon@@IAE_NXZ PROC ; ioControlMissileWeapon::CheckReturnEndTime, COMDAT
; _this$ = ecx

; 909  : {

  00000	56		 push	 esi
  00001	8b f1		 mov	 esi, ecx

; 910  : 	ioBaseChar *pOwner = GetOwner();

  00003	e8 00 00 00 00	 call	 ?GetOwner@ioWeapon@@QBEPAVioBaseChar@@XZ ; ioWeapon::GetOwner

; 911  : 	if( !pOwner ) return true;

  00008	85 c0		 test	 eax, eax
  0000a	75 04		 jne	 SHORT $LN2@CheckRetur
  0000c	b0 01		 mov	 al, 1
  0000e	5e		 pop	 esi

; 915  : 		return true;
; 916  : 
; 917  : 	return false;
; 918  : }

  0000f	c3		 ret	 0
$LN2@CheckRetur:

; 912  : 
; 913  : 	DWORD dwCurTime = FRAMEGETTIME();

  00010	ff 15 00 00 00
	00		 call	 DWORD PTR __imp_?GetSingleton@ioFrameTimer@@SAAAV1@XZ
  00016	8b c8		 mov	 ecx, eax
  00018	ff 15 00 00 00
	00		 call	 DWORD PTR __imp_?GetLoopSec@ioFrameTimer@@QBEKXZ

; 914  : 	if( m_dwReturnStartTime+m_dwReturnDuration < dwCurTime )

  0001e	8b 8e 3c 09 00
	00		 mov	 ecx, DWORD PTR [esi+2364]
  00024	03 8e 38 09 00
	00		 add	 ecx, DWORD PTR [esi+2360]
  0002a	5e		 pop	 esi
  0002b	3b c8		 cmp	 ecx, eax
  0002d	0f 92 c0	 setb	 al

; 915  : 		return true;
; 916  : 
; 917  : 	return false;
; 918  : }

  00030	c3		 ret	 0
?CheckReturnEndTime@ioControlMissileWeapon@@IAE_NXZ ENDP ; ioControlMissileWeapon::CheckReturnEndTime
_TEXT	ENDS
PUBLIC	__real@3f91df46a2526c7a
PUBLIC	??$DEGtoRAD@M@@YAMM@Z				; DEGtoRAD<float>
;	COMDAT __real@3f91df46a2526c7a
; File d:\lost saga for developer\youtube\tutorial\source\src\lsclient\veryoftenusedefine.h
CONST	SEGMENT
__real@3f91df46a2526c7a DQ 03f91df46a2526c7ar	; 0.0174533
; Function compile flags: /Ogsp
CONST	ENDS
;	COMDAT ??$DEGtoRAD@M@@YAMM@Z
_TEXT	SEGMENT
tv129 = 8						; size = 4
_val$ = 8						; size = 4
??$DEGtoRAD@M@@YAMM@Z PROC				; DEGtoRAD<float>, COMDAT

; 20   : type  DEGtoRAD (type val) {return (type) (val * 0.0174532925199);}

  00000	55		 push	 ebp
  00001	8b ec		 mov	 ebp, esp
  00003	d9 45 08	 fld	 DWORD PTR _val$[ebp]
  00006	dc 0d 00 00 00
	00		 fmul	 QWORD PTR __real@3f91df46a2526c7a
  0000c	d9 5d 08	 fstp	 DWORD PTR tv129[ebp]
  0000f	d9 45 08	 fld	 DWORD PTR tv129[ebp]
  00012	5d		 pop	 ebp
  00013	c3		 ret	 0
??$DEGtoRAD@M@@YAMM@Z ENDP				; DEGtoRAD<float>
_TEXT	ENDS
PUBLIC	??0D3DXVECTOR3@@QAE@XZ				; D3DXVECTOR3::D3DXVECTOR3
; Function compile flags: /Ogsp
; File c:\program files (x86)\microsoft directx sdk (june 2010)\include\d3dx9math.h
;	COMDAT ??0D3DXVECTOR3@@QAE@XZ
_TEXT	SEGMENT
??0D3DXVECTOR3@@QAE@XZ PROC				; D3DXVECTOR3::D3DXVECTOR3, COMDAT
; _this$ = ecx

; 165  :     D3DXVECTOR3() {};

  00000	8b c1		 mov	 eax, ecx
  00002	c3		 ret	 0
??0D3DXVECTOR3@@QAE@XZ ENDP				; D3DXVECTOR3::D3DXVECTOR3
_TEXT	ENDS
PUBLIC	??0D3DXQUATERNION@@QAE@XZ			; D3DXQUATERNION::D3DXQUATERNION
; Function compile flags: /Ogsp
;	COMDAT ??0D3DXQUATERNION@@QAE@XZ
_TEXT	SEGMENT
??0D3DXQUATERNION@@QAE@XZ PROC				; D3DXQUATERNION::D3DXQUATERNION, COMDAT
; _this$ = ecx

; 429  :     D3DXQUATERNION() {}

  00000	8b c1		 mov	 eax, ecx
  00002	c3		 ret	 0
??0D3DXQUATERNION@@QAE@XZ ENDP				; D3DXQUATERNION::D3DXQUATERNION
_TEXT	ENDS
PUBLIC	??0D3DXVECTOR3@@QAE@MMM@Z			; D3DXVECTOR3::D3DXVECTOR3
; Function compile flags: /Ogsp
; File c:\program files (x86)\microsoft directx sdk (june 2010)\include\d3dx9math.inl
;	COMDAT ??0D3DXVECTOR3@@QAE@MMM@Z
_TEXT	SEGMENT
_fx$ = 8						; size = 4
_fy$ = 12						; size = 4
_fz$ = 16						; size = 4
??0D3DXVECTOR3@@QAE@MMM@Z PROC				; D3DXVECTOR3::D3DXVECTOR3, COMDAT
; _this$ = ecx

; 303  : {

  00000	55		 push	 ebp
  00001	8b ec		 mov	 ebp, esp

; 304  :     x = fx;

  00003	f3 0f 10 45 08	 movss	 xmm0, DWORD PTR _fx$[ebp]
  00008	8b c1		 mov	 eax, ecx
  0000a	f3 0f 11 00	 movss	 DWORD PTR [eax], xmm0

; 305  :     y = fy;

  0000e	f3 0f 10 45 0c	 movss	 xmm0, DWORD PTR _fy$[ebp]
  00013	f3 0f 11 40 04	 movss	 DWORD PTR [eax+4], xmm0

; 306  :     z = fz;

  00018	f3 0f 10 45 10	 movss	 xmm0, DWORD PTR _fz$[ebp]
  0001d	f3 0f 11 40 08	 movss	 DWORD PTR [eax+8], xmm0

; 307  : }

  00022	5d		 pop	 ebp
  00023	c2 0c 00	 ret	 12			; 0000000cH
??0D3DXVECTOR3@@QAE@MMM@Z ENDP				; D3DXVECTOR3::D3DXVECTOR3
_TEXT	ENDS
PUBLIC	__mask@@NegFloat@
PUBLIC	??GD3DXVECTOR3@@QBE?AU0@XZ			; D3DXVECTOR3::operator-
;	COMDAT __mask@@NegFloat@
CONST	SEGMENT
__mask@@NegFloat@ DB 00H, 00H, 00H, 080H, 00H, 00H, 00H, 080H, 00H, 00H, 00H
	DB	080H, 00H, 00H, 00H, 080H
; Function compile flags: /Ogsp
CONST	ENDS
;	COMDAT ??GD3DXVECTOR3@@QBE?AU0@XZ
_TEXT	SEGMENT
___$ReturnUdt$ = 8					; size = 4
??GD3DXVECTOR3@@QBE?AU0@XZ PROC				; D3DXVECTOR3::operator-, COMDAT
; _this$ = ecx

; 372  : {

  00000	55		 push	 ebp
  00001	8b ec		 mov	 ebp, esp

; 373  :     return D3DXVECTOR3(-x, -y, -z);

  00003	f3 0f 10 05 00
	00 00 00	 movss	 xmm0, DWORD PTR __mask@@NegFloat@
  0000b	8b 45 08	 mov	 eax, DWORD PTR ___$ReturnUdt$[ebp]
  0000e	f3 0f 10 09	 movss	 xmm1, DWORD PTR [ecx]
  00012	0f 57 c8	 xorps	 xmm1, xmm0
  00015	f3 0f 11 08	 movss	 DWORD PTR [eax], xmm1
  00019	f3 0f 10 49 04	 movss	 xmm1, DWORD PTR [ecx+4]
  0001e	0f 57 c8	 xorps	 xmm1, xmm0
  00021	f3 0f 11 48 04	 movss	 DWORD PTR [eax+4], xmm1
  00026	f3 0f 10 49 08	 movss	 xmm1, DWORD PTR [ecx+8]
  0002b	0f 57 c8	 xorps	 xmm1, xmm0
  0002e	f3 0f 11 48 08	 movss	 DWORD PTR [eax+8], xmm1

; 374  : }

  00033	5d		 pop	 ebp
  00034	c2 04 00	 ret	 4
??GD3DXVECTOR3@@QBE?AU0@XZ ENDP				; D3DXVECTOR3::operator-
_TEXT	ENDS
PUBLIC	??HD3DXVECTOR3@@QBE?AU0@ABU0@@Z			; D3DXVECTOR3::operator+
; Function compile flags: /Ogsp
;	COMDAT ??HD3DXVECTOR3@@QBE?AU0@ABU0@@Z
_TEXT	SEGMENT
___$ReturnUdt$ = 8					; size = 4
_v$ = 12						; size = 4
??HD3DXVECTOR3@@QBE?AU0@ABU0@@Z PROC			; D3DXVECTOR3::operator+, COMDAT
; _this$ = ecx

; 380  : {

  00000	55		 push	 ebp
  00001	8b ec		 mov	 ebp, esp

; 381  :     return D3DXVECTOR3(x + v.x, y + v.y, z + v.z);

  00003	8b 55 0c	 mov	 edx, DWORD PTR _v$[ebp]
  00006	f3 0f 10 02	 movss	 xmm0, DWORD PTR [edx]
  0000a	f3 0f 10 09	 movss	 xmm1, DWORD PTR [ecx]
  0000e	8b 45 08	 mov	 eax, DWORD PTR ___$ReturnUdt$[ebp]
  00011	0f 5a c0	 cvtps2pd xmm0, xmm0
  00014	0f 5a c9	 cvtps2pd xmm1, xmm1
  00017	f2 0f 58 c1	 addsd	 xmm0, xmm1
  0001b	f3 0f 10 49 04	 movss	 xmm1, DWORD PTR [ecx+4]
  00020	66 0f 5a c0	 cvtpd2ps xmm0, xmm0
  00024	f3 0f 11 00	 movss	 DWORD PTR [eax], xmm0
  00028	f3 0f 10 42 04	 movss	 xmm0, DWORD PTR [edx+4]
  0002d	0f 5a c0	 cvtps2pd xmm0, xmm0
  00030	0f 5a c9	 cvtps2pd xmm1, xmm1
  00033	f2 0f 58 c1	 addsd	 xmm0, xmm1
  00037	f3 0f 10 49 08	 movss	 xmm1, DWORD PTR [ecx+8]
  0003c	66 0f 5a c0	 cvtpd2ps xmm0, xmm0
  00040	f3 0f 11 40 04	 movss	 DWORD PTR [eax+4], xmm0
  00045	f3 0f 10 42 08	 movss	 xmm0, DWORD PTR [edx+8]
  0004a	0f 5a c0	 cvtps2pd xmm0, xmm0
  0004d	0f 5a c9	 cvtps2pd xmm1, xmm1
  00050	f2 0f 58 c1	 addsd	 xmm0, xmm1
  00054	66 0f 5a c0	 cvtpd2ps xmm0, xmm0
  00058	f3 0f 11 40 08	 movss	 DWORD PTR [eax+8], xmm0

; 382  : }

  0005d	5d		 pop	 ebp
  0005e	c2 08 00	 ret	 8
??HD3DXVECTOR3@@QBE?AU0@ABU0@@Z ENDP			; D3DXVECTOR3::operator+
_TEXT	ENDS
PUBLIC	??GD3DXVECTOR3@@QBE?AU0@ABU0@@Z			; D3DXVECTOR3::operator-
; Function compile flags: /Ogsp
;	COMDAT ??GD3DXVECTOR3@@QBE?AU0@ABU0@@Z
_TEXT	SEGMENT
___$ReturnUdt$ = 8					; size = 4
_v$ = 12						; size = 4
??GD3DXVECTOR3@@QBE?AU0@ABU0@@Z PROC			; D3DXVECTOR3::operator-, COMDAT
; _this$ = ecx

; 386  : {

  00000	55		 push	 ebp
  00001	8b ec		 mov	 ebp, esp

; 387  :     return D3DXVECTOR3(x - v.x, y - v.y, z - v.z);

  00003	8b 55 0c	 mov	 edx, DWORD PTR _v$[ebp]
  00006	f3 0f 10 01	 movss	 xmm0, DWORD PTR [ecx]
  0000a	f3 0f 10 0a	 movss	 xmm1, DWORD PTR [edx]
  0000e	8b 45 08	 mov	 eax, DWORD PTR ___$ReturnUdt$[ebp]
  00011	0f 5a c0	 cvtps2pd xmm0, xmm0
  00014	0f 5a c9	 cvtps2pd xmm1, xmm1
  00017	f2 0f 5c c1	 subsd	 xmm0, xmm1
  0001b	f3 0f 10 4a 04	 movss	 xmm1, DWORD PTR [edx+4]
  00020	66 0f 5a c0	 cvtpd2ps xmm0, xmm0
  00024	f3 0f 11 00	 movss	 DWORD PTR [eax], xmm0
  00028	f3 0f 10 41 04	 movss	 xmm0, DWORD PTR [ecx+4]
  0002d	0f 5a c0	 cvtps2pd xmm0, xmm0
  00030	0f 5a c9	 cvtps2pd xmm1, xmm1
  00033	f2 0f 5c c1	 subsd	 xmm0, xmm1
  00037	f3 0f 10 4a 08	 movss	 xmm1, DWORD PTR [edx+8]
  0003c	66 0f 5a c0	 cvtpd2ps xmm0, xmm0
  00040	f3 0f 11 40 04	 movss	 DWORD PTR [eax+4], xmm0
  00045	f3 0f 10 41 08	 movss	 xmm0, DWORD PTR [ecx+8]
  0004a	0f 5a c0	 cvtps2pd xmm0, xmm0
  0004d	0f 5a c9	 cvtps2pd xmm1, xmm1
  00050	f2 0f 5c c1	 subsd	 xmm0, xmm1
  00054	66 0f 5a c0	 cvtpd2ps xmm0, xmm0
  00058	f3 0f 11 40 08	 movss	 DWORD PTR [eax+8], xmm0

; 388  : }

  0005d	5d		 pop	 ebp
  0005e	c2 08 00	 ret	 8
??GD3DXVECTOR3@@QBE?AU0@ABU0@@Z ENDP			; D3DXVECTOR3::operator-
_TEXT	ENDS
PUBLIC	??DD3DXVECTOR3@@QBE?AU0@M@Z			; D3DXVECTOR3::operator*
; Function compile flags: /Ogsp
;	COMDAT ??DD3DXVECTOR3@@QBE?AU0@M@Z
_TEXT	SEGMENT
___$ReturnUdt$ = 8					; size = 4
_f$ = 12						; size = 4
??DD3DXVECTOR3@@QBE?AU0@M@Z PROC			; D3DXVECTOR3::operator*, COMDAT
; _this$ = ecx

; 392  : {

  00000	55		 push	 ebp
  00001	8b ec		 mov	 ebp, esp

; 393  :     return D3DXVECTOR3(x * f, y * f, z * f);

  00003	f3 0f 10 4d 0c	 movss	 xmm1, DWORD PTR _f$[ebp]
  00008	f3 0f 10 01	 movss	 xmm0, DWORD PTR [ecx]
  0000c	8b 45 08	 mov	 eax, DWORD PTR ___$ReturnUdt$[ebp]
  0000f	0f 5a c0	 cvtps2pd xmm0, xmm0
  00012	0f 5a c9	 cvtps2pd xmm1, xmm1
  00015	f2 0f 59 c1	 mulsd	 xmm0, xmm1
  00019	f3 0f 10 4d 0c	 movss	 xmm1, DWORD PTR _f$[ebp]
  0001e	66 0f 5a c0	 cvtpd2ps xmm0, xmm0
  00022	f3 0f 11 00	 movss	 DWORD PTR [eax], xmm0
  00026	f3 0f 10 41 04	 movss	 xmm0, DWORD PTR [ecx+4]
  0002b	0f 5a c0	 cvtps2pd xmm0, xmm0
  0002e	0f 5a c9	 cvtps2pd xmm1, xmm1
  00031	f2 0f 59 c1	 mulsd	 xmm0, xmm1
  00035	f3 0f 10 4d 0c	 movss	 xmm1, DWORD PTR _f$[ebp]
  0003a	66 0f 5a c0	 cvtpd2ps xmm0, xmm0
  0003e	f3 0f 11 40 04	 movss	 DWORD PTR [eax+4], xmm0
  00043	f3 0f 10 41 08	 movss	 xmm0, DWORD PTR [ecx+8]
  00048	0f 5a c0	 cvtps2pd xmm0, xmm0
  0004b	0f 5a c9	 cvtps2pd xmm1, xmm1
  0004e	f2 0f 59 c1	 mulsd	 xmm0, xmm1
  00052	66 0f 5a c0	 cvtpd2ps xmm0, xmm0
  00056	f3 0f 11 40 08	 movss	 DWORD PTR [eax+8], xmm0

; 394  : }

  0005b	5d		 pop	 ebp
  0005c	c2 08 00	 ret	 8
??DD3DXVECTOR3@@QBE?AU0@M@Z ENDP			; D3DXVECTOR3::operator*
_TEXT	ENDS
PUBLIC	??D@YA?AUD3DXVECTOR3@@MABU0@@Z			; operator*
; Function compile flags: /Ogsp
;	COMDAT ??D@YA?AUD3DXVECTOR3@@MABU0@@Z
_TEXT	SEGMENT
___$ReturnUdt$ = 8					; size = 4
_f$ = 12						; size = 4
_v$ = 16						; size = 4
??D@YA?AUD3DXVECTOR3@@MABU0@@Z PROC			; operator*, COMDAT

; 406  : {

  00000	55		 push	 ebp
  00001	8b ec		 mov	 ebp, esp

; 407  :     return D3DXVECTOR3(f * v.x, f * v.y, f * v.z);

  00003	8b 4d 10	 mov	 ecx, DWORD PTR _v$[ebp]
  00006	f3 0f 10 4d 0c	 movss	 xmm1, DWORD PTR _f$[ebp]
  0000b	f3 0f 10 01	 movss	 xmm0, DWORD PTR [ecx]
  0000f	8b 45 08	 mov	 eax, DWORD PTR ___$ReturnUdt$[ebp]
  00012	0f 5a c0	 cvtps2pd xmm0, xmm0
  00015	0f 5a c9	 cvtps2pd xmm1, xmm1
  00018	f2 0f 59 c1	 mulsd	 xmm0, xmm1
  0001c	f3 0f 10 4d 0c	 movss	 xmm1, DWORD PTR _f$[ebp]
  00021	66 0f 5a c0	 cvtpd2ps xmm0, xmm0
  00025	f3 0f 11 00	 movss	 DWORD PTR [eax], xmm0
  00029	f3 0f 10 41 04	 movss	 xmm0, DWORD PTR [ecx+4]
  0002e	0f 5a c0	 cvtps2pd xmm0, xmm0
  00031	0f 5a c9	 cvtps2pd xmm1, xmm1
  00034	f2 0f 59 c1	 mulsd	 xmm0, xmm1
  00038	f3 0f 10 4d 0c	 movss	 xmm1, DWORD PTR _f$[ebp]
  0003d	66 0f 5a c0	 cvtpd2ps xmm0, xmm0
  00041	f3 0f 11 40 04	 movss	 DWORD PTR [eax+4], xmm0
  00046	f3 0f 10 41 08	 movss	 xmm0, DWORD PTR [ecx+8]
  0004b	0f 5a c0	 cvtps2pd xmm0, xmm0
  0004e	0f 5a c9	 cvtps2pd xmm1, xmm1
  00051	f2 0f 59 c1	 mulsd	 xmm0, xmm1
  00055	66 0f 5a c0	 cvtpd2ps xmm0, xmm0
  00059	f3 0f 11 40 08	 movss	 DWORD PTR [eax+8], xmm0

; 408  : }

  0005e	5d		 pop	 ebp
  0005f	c3		 ret	 0
??D@YA?AUD3DXVECTOR3@@MABU0@@Z ENDP			; operator*
_TEXT	ENDS
PUBLIC	?D3DXVec3LengthSq@@YAMPBUD3DXVECTOR3@@@Z	; D3DXVec3LengthSq
; Function compile flags: /Ogsp
;	COMDAT ?D3DXVec3LengthSq@@YAMPBUD3DXVECTOR3@@@Z
_TEXT	SEGMENT
tv165 = 8						; size = 4
_pV$ = 8						; size = 4
?D3DXVec3LengthSq@@YAMPBUD3DXVECTOR3@@@Z PROC		; D3DXVec3LengthSq, COMDAT

; 1725 : {

  00000	55		 push	 ebp
  00001	8b ec		 mov	 ebp, esp

; 1726 : #ifdef D3DX_DEBUG
; 1727 :     if(!pV)
; 1728 :         return 0.0f;
; 1729 : #endif
; 1730 : 
; 1731 :     return pV->x * pV->x + pV->y * pV->y + pV->z * pV->z;

  00003	8b 45 08	 mov	 eax, DWORD PTR _pV$[ebp]
  00006	d9 40 04	 fld	 DWORD PTR [eax+4]
  00009	d9 00		 fld	 DWORD PTR [eax]
  0000b	d9 40 08	 fld	 DWORD PTR [eax+8]
  0000e	d9 c1		 fld	 ST(1)
  00010	de ca		 fmulp	 ST(2), ST(0)
  00012	d9 c2		 fld	 ST(2)
  00014	de cb		 fmulp	 ST(3), ST(0)
  00016	d9 c9		 fxch	 ST(1)
  00018	de c2		 faddp	 ST(2), ST(0)
  0001a	d9 c0		 fld	 ST(0)
  0001c	de c9		 fmulp	 ST(1), ST(0)
  0001e	de c1		 faddp	 ST(1), ST(0)
  00020	d9 5d 08	 fstp	 DWORD PTR tv165[ebp]
  00023	d9 45 08	 fld	 DWORD PTR tv165[ebp]

; 1732 : }

  00026	5d		 pop	 ebp
  00027	c3		 ret	 0
?D3DXVec3LengthSq@@YAMPBUD3DXVECTOR3@@@Z ENDP		; D3DXVec3LengthSq
_TEXT	ENDS
PUBLIC	?D3DXVec3Dot@@YAMPBUD3DXVECTOR3@@0@Z		; D3DXVec3Dot
; Function compile flags: /Ogsp
;	COMDAT ?D3DXVec3Dot@@YAMPBUD3DXVECTOR3@@0@Z
_TEXT	SEGMENT
tv188 = 8						; size = 4
_pV1$ = 8						; size = 4
_pV2$ = 12						; size = 4
?D3DXVec3Dot@@YAMPBUD3DXVECTOR3@@0@Z PROC		; D3DXVec3Dot, COMDAT

; 1736 : {

  00000	55		 push	 ebp
  00001	8b ec		 mov	 ebp, esp

; 1737 : #ifdef D3DX_DEBUG
; 1738 :     if(!pV1 || !pV2)
; 1739 :         return 0.0f;
; 1740 : #endif
; 1741 : 
; 1742 :     return pV1->x * pV2->x + pV1->y * pV2->y + pV1->z * pV2->z;

  00003	8b 45 08	 mov	 eax, DWORD PTR _pV1$[ebp]
  00006	8b 4d 0c	 mov	 ecx, DWORD PTR _pV2$[ebp]
  00009	d9 40 04	 fld	 DWORD PTR [eax+4]
  0000c	d8 49 04	 fmul	 DWORD PTR [ecx+4]
  0000f	d9 00		 fld	 DWORD PTR [eax]
  00011	d8 09		 fmul	 DWORD PTR [ecx]
  00013	de c1		 faddp	 ST(1), ST(0)
  00015	d9 40 08	 fld	 DWORD PTR [eax+8]
  00018	d8 49 08	 fmul	 DWORD PTR [ecx+8]
  0001b	de c1		 faddp	 ST(1), ST(0)
  0001d	d9 5d 08	 fstp	 DWORD PTR tv188[ebp]
  00020	d9 45 08	 fld	 DWORD PTR tv188[ebp]

; 1743 : }

  00023	5d		 pop	 ebp
  00024	c3		 ret	 0
?D3DXVec3Dot@@YAMPBUD3DXVECTOR3@@0@Z ENDP		; D3DXVec3Dot
_TEXT	ENDS
PUBLIC	?D3DXVec3Cross@@YAPAUD3DXVECTOR3@@PAU1@PBU1@1@Z	; D3DXVec3Cross
; Function compile flags: /Ogsp
;	COMDAT ?D3DXVec3Cross@@YAPAUD3DXVECTOR3@@PAU1@PBU1@1@Z
_TEXT	SEGMENT
_v$ = -12						; size = 12
_pOut$ = 8						; size = 4
_pV1$ = 12						; size = 4
_pV2$ = 16						; size = 4
?D3DXVec3Cross@@YAPAUD3DXVECTOR3@@PAU1@PBU1@1@Z PROC	; D3DXVec3Cross, COMDAT

; 1747 : {

  00000	55		 push	 ebp
  00001	8b ec		 mov	 ebp, esp
  00003	83 ec 0c	 sub	 esp, 12			; 0000000cH

; 1757 :     v.z = pV1->x * pV2->y - pV1->y * pV2->x;
; 1758 : 
; 1759 :     *pOut = v;

  00006	56		 push	 esi
  00007	57		 push	 edi

; 1748 :     D3DXVECTOR3 v;
; 1749 : 
; 1750 : #ifdef D3DX_DEBUG
; 1751 :     if(!pOut || !pV1 || !pV2)
; 1752 :         return NULL;
; 1753 : #endif
; 1754 : 
; 1755 :     v.x = pV1->y * pV2->z - pV1->z * pV2->y;

  00008	8b 45 0c	 mov	 eax, DWORD PTR _pV1$[ebp]
  0000b	f3 0f 10 40 04	 movss	 xmm0, DWORD PTR [eax+4]
  00010	f3 0f 10 50 08	 movss	 xmm2, DWORD PTR [eax+8]
  00015	8b 4d 10	 mov	 ecx, DWORD PTR _pV2$[ebp]
  00018	f3 0f 10 49 08	 movss	 xmm1, DWORD PTR [ecx+8]
  0001d	f3 0f 10 59 04	 movss	 xmm3, DWORD PTR [ecx+4]
  00022	0f 5a e8	 cvtps2pd xmm5, xmm0
  00025	0f 5a e1	 cvtps2pd xmm4, xmm1
  00028	0f 5a f2	 cvtps2pd xmm6, xmm2
  0002b	f2 0f 59 e5	 mulsd	 xmm4, xmm5

; 1756 :     v.y = pV1->z * pV2->x - pV1->x * pV2->z;

  0002f	0f 5a d2	 cvtps2pd xmm2, xmm2
  00032	0f 5a c9	 cvtps2pd xmm1, xmm1
  00035	0f 5a eb	 cvtps2pd xmm5, xmm3
  00038	f2 0f 59 ee	 mulsd	 xmm5, xmm6
  0003c	f2 0f 5c e5	 subsd	 xmm4, xmm5
  00040	f3 0f 10 28	 movss	 xmm5, DWORD PTR [eax]

; 1757 :     v.z = pV1->x * pV2->y - pV1->y * pV2->x;
; 1758 : 
; 1759 :     *pOut = v;

  00044	8b 45 08	 mov	 eax, DWORD PTR _pOut$[ebp]
  00047	66 0f 5a e4	 cvtpd2ps xmm4, xmm4
  0004b	f3 0f 11 65 f4	 movss	 DWORD PTR _v$[ebp], xmm4
  00050	f3 0f 10 21	 movss	 xmm4, DWORD PTR [ecx]
  00054	0f 5a f4	 cvtps2pd xmm6, xmm4
  00057	f2 0f 59 f2	 mulsd	 xmm6, xmm2
  0005b	0f 5a d5	 cvtps2pd xmm2, xmm5
  0005e	f2 0f 59 d1	 mulsd	 xmm2, xmm1
  00062	f2 0f 5c f2	 subsd	 xmm6, xmm2
  00066	66 0f 5a ce	 cvtpd2ps xmm1, xmm6
  0006a	f3 0f 11 4d f8	 movss	 DWORD PTR _v$[ebp+4], xmm1
  0006f	0f 5a c0	 cvtps2pd xmm0, xmm0
  00072	0f 5a d3	 cvtps2pd xmm2, xmm3
  00075	0f 5a cd	 cvtps2pd xmm1, xmm5
  00078	f2 0f 59 ca	 mulsd	 xmm1, xmm2
  0007c	8d 75 f4	 lea	 esi, DWORD PTR _v$[ebp]
  0007f	8b f8		 mov	 edi, eax
  00081	0f 5a d4	 cvtps2pd xmm2, xmm4
  00084	f2 0f 59 d0	 mulsd	 xmm2, xmm0
  00088	f2 0f 5c ca	 subsd	 xmm1, xmm2
  0008c	66 0f 5a c1	 cvtpd2ps xmm0, xmm1
  00090	f3 0f 11 45 fc	 movss	 DWORD PTR _v$[ebp+8], xmm0
  00095	a5		 movsd
  00096	a5		 movsd
  00097	a5		 movsd
  00098	5f		 pop	 edi
  00099	5e		 pop	 esi

; 1760 :     return pOut;
; 1761 : }

  0009a	c9		 leave
  0009b	c3		 ret	 0
?D3DXVec3Cross@@YAPAUD3DXVECTOR3@@PAU1@PBU1@1@Z ENDP	; D3DXVec3Cross
_TEXT	ENDS
PUBLIC	?_DECSTR@@YAXPADH@Z				; _DECSTR
; Function compile flags: /Ogsp
; File d:\lost saga for developer\youtube\tutorial\source\src\lsclient\stringprotect.h
;	COMDAT ?_DECSTR@@YAXPADH@Z
_TEXT	SEGMENT
_s$ = 8							; size = 4
_l$ = 12						; size = 4
?_DECSTR@@YAXPADH@Z PROC				; _DECSTR, COMDAT

; 40   : __forceinline void _DECSTR(char* s, int l){int i=0,l4=(l-1)/4,*p=(int*)s;s[l-1]=0;for(;i<l4;++i)*(p++)^=0xEAEBECED;for(i=l4*4;i<l-1;++i)s[i]^=0xED-i%4;}

  00000	55		 push	 ebp
  00001	8b ec		 mov	 ebp, esp
  00003	8b 4d 0c	 mov	 ecx, DWORD PTR _l$[ebp]
  00006	56		 push	 esi
  00007	8b 75 08	 mov	 esi, DWORD PTR _s$[ebp]
  0000a	57		 push	 edi
  0000b	8d 79 ff	 lea	 edi, DWORD PTR [ecx-1]
  0000e	8b c7		 mov	 eax, edi
  00010	99		 cdq
  00011	83 e2 03	 and	 edx, 3
  00014	03 c2		 add	 eax, edx
  00016	c1 f8 02	 sar	 eax, 2
  00019	8b d6		 mov	 edx, esi
  0001b	c6 44 0e ff 00	 mov	 BYTE PTR [esi+ecx-1], 0
  00020	85 c0		 test	 eax, eax
  00022	7e 0e		 jle	 SHORT $LN4@DECSTR
  00024	8b c8		 mov	 ecx, eax
$LL6@DECSTR:
  00026	81 32 ed ec eb
	ea		 xor	 DWORD PTR [edx], -353637139 ; eaebecedH
  0002c	83 c2 04	 add	 edx, 4
  0002f	49		 dec	 ecx
  00030	75 f4		 jne	 SHORT $LL6@DECSTR
$LN4@DECSTR:
  00032	c1 e0 02	 shl	 eax, 2
  00035	eb 17		 jmp	 SHORT $LN14@DECSTR
$LL3@DECSTR:
  00037	8b c8		 mov	 ecx, eax
  00039	81 e1 03 00 00
	80		 and	 ecx, -2147483645	; 80000003H
  0003f	79 05		 jns	 SHORT $LN13@DECSTR
  00041	49		 dec	 ecx
  00042	83 c9 fc	 or	 ecx, -4			; fffffffcH
  00045	41		 inc	 ecx
$LN13@DECSTR:
  00046	b2 ed		 mov	 dl, -19			; ffffffedH
  00048	2a d1		 sub	 dl, cl
  0004a	30 14 30	 xor	 BYTE PTR [eax+esi], dl
  0004d	40		 inc	 eax
$LN14@DECSTR:
  0004e	3b c7		 cmp	 eax, edi
  00050	7c e5		 jl	 SHORT $LL3@DECSTR
  00052	5f		 pop	 edi
  00053	5e		 pop	 esi
  00054	5d		 pop	 ebp
  00055	c3		 ret	 0
?_DECSTR@@YAXPADH@Z ENDP				; _DECSTR
_TEXT	ENDS
PUBLIC	?return57@@YAIXZ				; return57
; Function compile flags: /Ogsp
; File d:\lost saga for developer\youtube\tutorial\source\src\lsclient\veryoftenusedefine.h
;	COMDAT ?return57@@YAIXZ
_TEXT	SEGMENT
?return57@@YAIXZ PROC					; return57, COMDAT

; 15   : __forceinline unsigned int return57() { __asm mov eax, 57 };

  00000	b8 39 00 00 00	 mov	 eax, 57			; 00000039H
  00005	c3		 ret	 0
?return57@@YAIXZ ENDP					; return57
_TEXT	ENDS
PUBLIC	?GetGroup@ioGameEntity@@QBEPAVioEntityGroup@@XZ	; ioGameEntity::GetGroup
; Function compile flags: /Ogsp
; File d:\lost saga for developer\youtube\tutorial\source\src\lsclient\iogameentity.h
;	COMDAT ?GetGroup@ioGameEntity@@QBEPAVioEntityGroup@@XZ
_TEXT	SEGMENT
?GetGroup@ioGameEntity@@QBEPAVioEntityGroup@@XZ PROC	; ioGameEntity::GetGroup, COMDAT
; _this$ = ecx

; 166  : 	inline ioEntityGroup* GetGroup() const { return m_pGroup; }

  00000	8b 41 04	 mov	 eax, DWORD PTR [ecx+4]
  00003	c3		 ret	 0
?GetGroup@ioGameEntity@@QBEPAVioEntityGroup@@XZ ENDP	; ioGameEntity::GetGroup
_TEXT	ENDS
PUBLIC	??_R0?AVioGameEntity@@@8			; ioGameEntity `RTTI Type Descriptor'
PUBLIC	??_R0?AVioPlayEntity@@@8			; ioPlayEntity `RTTI Type Descriptor'
PUBLIC	?ToPlayEntity@@YAPAVioPlayEntity@@PAVioGameEntity@@@Z ; ToPlayEntity
EXTRN	___RTDynamicCast:PROC
;	COMDAT ??_R0?AVioGameEntity@@@8
; File d:\lost saga for developer\youtube\tutorial\source\src\lsclient\ioplayentity.h
_DATA	SEGMENT
??_R0?AVioGameEntity@@@8 DD FLAT:??_7type_info@@6B@	; ioGameEntity `RTTI Type Descriptor'
	DD	00H
	DB	'.?AVioGameEntity@@', 00H
_DATA	ENDS
;	COMDAT ??_R0?AVioPlayEntity@@@8
_DATA	SEGMENT
??_R0?AVioPlayEntity@@@8 DD FLAT:??_7type_info@@6B@	; ioPlayEntity `RTTI Type Descriptor'
	DD	00H
	DB	'.?AVioPlayEntity@@', 00H
; Function compile flags: /Ogsp
_DATA	ENDS
;	COMDAT ?ToPlayEntity@@YAPAVioPlayEntity@@PAVioGameEntity@@@Z
_TEXT	SEGMENT
_pObj$ = 8						; size = 4
?ToPlayEntity@@YAPAVioPlayEntity@@PAVioGameEntity@@@Z PROC ; ToPlayEntity, COMDAT

; 121  : {

  00000	55		 push	 ebp
  00001	8b ec		 mov	 ebp, esp
  00003	56		 push	 esi

; 122  : 	if( !pObj || pObj->GetTypeID() != ioGameEntity::GET_PLAY_ENTITY )

  00004	8b 75 08	 mov	 esi, DWORD PTR _pObj$[ebp]
  00007	85 f6		 test	 esi, esi
  00009	74 25		 je	 SHORT $LN1@ToPlayEnti
  0000b	8b 06		 mov	 eax, DWORD PTR [esi]
  0000d	8b ce		 mov	 ecx, esi
  0000f	ff 50 10	 call	 DWORD PTR [eax+16]
  00012	83 f8 01	 cmp	 eax, 1
  00015	75 19		 jne	 SHORT $LN1@ToPlayEnti

; 124  : 
; 125  : 	return dynamic_cast< ioPlayEntity* >( pObj );

  00017	6a 00		 push	 0
  00019	68 00 00 00 00	 push	 OFFSET ??_R0?AVioPlayEntity@@@8
  0001e	68 00 00 00 00	 push	 OFFSET ??_R0?AVioGameEntity@@@8
  00023	6a 00		 push	 0
  00025	56		 push	 esi
  00026	e8 00 00 00 00	 call	 ___RTDynamicCast
  0002b	83 c4 14	 add	 esp, 20			; 00000014H
  0002e	eb 02		 jmp	 SHORT $LN3@ToPlayEnti
$LN1@ToPlayEnti:

; 123  : 		return NULL;

  00030	33 c0		 xor	 eax, eax
$LN3@ToPlayEnti:
  00032	5e		 pop	 esi

; 126  : }

  00033	5d		 pop	 ebp
  00034	c3		 ret	 0
?ToPlayEntity@@YAPAVioPlayEntity@@PAVioGameEntity@@@Z ENDP ; ToPlayEntity
_TEXT	ENDS
PUBLIC	??_R0?AVioDummyChar@@@8				; ioDummyChar `RTTI Type Descriptor'
PUBLIC	?ToDummyChar@@YAPAVioDummyChar@@PAVioGameEntity@@@Z ; ToDummyChar
;	COMDAT ??_R0?AVioDummyChar@@@8
; File d:\lost saga for developer\youtube\tutorial\source\src\lsclient\iodummychar.h
_DATA	SEGMENT
??_R0?AVioDummyChar@@@8 DD FLAT:??_7type_info@@6B@	; ioDummyChar `RTTI Type Descriptor'
	DD	00H
	DB	'.?AVioDummyChar@@', 00H
; Function compile flags: /Ogsp
_DATA	ENDS
;	COMDAT ?ToDummyChar@@YAPAVioDummyChar@@PAVioGameEntity@@@Z
_TEXT	SEGMENT
_pObj$ = 8						; size = 4
?ToDummyChar@@YAPAVioDummyChar@@PAVioGameEntity@@@Z PROC ; ToDummyChar, COMDAT

; 758  : {

  00000	55		 push	 ebp
  00001	8b ec		 mov	 ebp, esp
  00003	56		 push	 esi

; 759  : 	ioPlayEntity *pPlay = ToPlayEntity( pObj );

  00004	ff 75 08	 push	 DWORD PTR _pObj$[ebp]
  00007	e8 00 00 00 00	 call	 ?ToPlayEntity@@YAPAVioPlayEntity@@PAVioGameEntity@@@Z ; ToPlayEntity
  0000c	8b f0		 mov	 esi, eax
  0000e	59		 pop	 ecx

; 760  : 	if( !pPlay || pPlay->GetSubType() != ioPlayEntity::PST_DUMMY_CHAR )

  0000f	85 f6		 test	 esi, esi
  00011	74 28		 je	 SHORT $LN1@ToDummyCha
  00013	8b 06		 mov	 eax, DWORD PTR [esi]
  00015	8b ce		 mov	 ecx, esi
  00017	ff 90 a4 00 00
	00		 call	 DWORD PTR [eax+164]
  0001d	83 f8 0a	 cmp	 eax, 10			; 0000000aH
  00020	75 19		 jne	 SHORT $LN1@ToDummyCha

; 762  : 
; 763  : 	return dynamic_cast< ioDummyChar* >( pPlay );

  00022	6a 00		 push	 0
  00024	68 00 00 00 00	 push	 OFFSET ??_R0?AVioDummyChar@@@8
  00029	68 00 00 00 00	 push	 OFFSET ??_R0?AVioPlayEntity@@@8
  0002e	6a 00		 push	 0
  00030	56		 push	 esi
  00031	e8 00 00 00 00	 call	 ___RTDynamicCast
  00036	83 c4 14	 add	 esp, 20			; 00000014H
  00039	eb 02		 jmp	 SHORT $LN3@ToDummyCha
$LN1@ToDummyCha:

; 761  : 		return NULL;

  0003b	33 c0		 xor	 eax, eax
$LN3@ToDummyCha:
  0003d	5e		 pop	 esi

; 764  : }

  0003e	5d		 pop	 ebp
  0003f	c3		 ret	 0
?ToDummyChar@@YAPAVioDummyChar@@PAVioGameEntity@@@Z ENDP ; ToDummyChar
_TEXT	ENDS
PUBLIC	?IsLive@ioWeapon@@QBE_NXZ			; ioWeapon::IsLive
; Function compile flags: /Ogsp
; File d:\lost saga for developer\youtube\tutorial\source\src\lsclient\ioweapon.h
;	COMDAT ?IsLive@ioWeapon@@QBE_NXZ
_TEXT	SEGMENT
?IsLive@ioWeapon@@QBE_NXZ PROC				; ioWeapon::IsLive, COMDAT
; _this$ = ecx

; 533  : 	inline bool IsLive() const { return m_bLive; }

  00000	8a 81 82 05 00
	00		 mov	 al, BYTE PTR [ecx+1410]
  00006	c3		 ret	 0
?IsLive@ioWeapon@@QBE_NXZ ENDP				; ioWeapon::IsLive
_TEXT	ENDS
PUBLIC	?GetOwnerName@ioWeapon@@QBEABVioHashString@@XZ	; ioWeapon::GetOwnerName
; Function compile flags: /Ogsp
;	COMDAT ?GetOwnerName@ioWeapon@@QBEABVioHashString@@XZ
_TEXT	SEGMENT
?GetOwnerName@ioWeapon@@QBEABVioHashString@@XZ PROC	; ioWeapon::GetOwnerName, COMDAT
; _this$ = ecx

; 636  : 	inline const ioHashString& GetOwnerName() const { return m_OwnerName; }

  00000	8d 41 10	 lea	 eax, DWORD PTR [ecx+16]
  00003	c3		 ret	 0
?GetOwnerName@ioWeapon@@QBEABVioHashString@@XZ ENDP	; ioWeapon::GetOwnerName
_TEXT	ENDS
PUBLIC	?GetParentSceneNode@ioWeapon@@QBEPAVioSceneNode@@XZ ; ioWeapon::GetParentSceneNode
; Function compile flags: /Ogsp
;	COMDAT ?GetParentSceneNode@ioWeapon@@QBEPAVioSceneNode@@XZ
_TEXT	SEGMENT
?GetParentSceneNode@ioWeapon@@QBEPAVioSceneNode@@XZ PROC ; ioWeapon::GetParentSceneNode, COMDAT
; _this$ = ecx

; 797  : 	ioSceneNode* GetParentSceneNode() const { return m_pSceneNode; }

  00000	8b 41 04	 mov	 eax, DWORD PTR [ecx+4]
  00003	c3		 ret	 0
?GetParentSceneNode@ioWeapon@@QBEPAVioSceneNode@@XZ ENDP ; ioWeapon::GetParentSceneNode
_TEXT	ENDS
PUBLIC	??_R0?AVioWallZone@@@8				; ioWallZone `RTTI Type Descriptor'
PUBLIC	?ToWallZone@@YAPAVioWallZone@@PAVioGameEntity@@@Z ; ToWallZone
;	COMDAT ??_R0?AVioWallZone@@@8
; File d:\lost saga for developer\youtube\tutorial\source\src\lsclient\iowallzone.h
_DATA	SEGMENT
??_R0?AVioWallZone@@@8 DD FLAT:??_7type_info@@6B@	; ioWallZone `RTTI Type Descriptor'
	DD	00H
	DB	'.?AVioWallZone@@', 00H
; Function compile flags: /Ogsp
_DATA	ENDS
;	COMDAT ?ToWallZone@@YAPAVioWallZone@@PAVioGameEntity@@@Z
_TEXT	SEGMENT
_pObj$ = 8						; size = 4
?ToWallZone@@YAPAVioWallZone@@PAVioGameEntity@@@Z PROC	; ToWallZone, COMDAT

; 50   : {

  00000	55		 push	 ebp
  00001	8b ec		 mov	 ebp, esp
  00003	56		 push	 esi

; 51   : 	ioPlayEntity *pPlay = ToPlayEntity( pObj );

  00004	ff 75 08	 push	 DWORD PTR _pObj$[ebp]
  00007	e8 00 00 00 00	 call	 ?ToPlayEntity@@YAPAVioPlayEntity@@PAVioGameEntity@@@Z ; ToPlayEntity
  0000c	8b f0		 mov	 esi, eax
  0000e	59		 pop	 ecx

; 52   : 	if( !pPlay || pPlay->GetSubType() != ioPlayEntity::PST_WALL_ZONE )

  0000f	85 f6		 test	 esi, esi
  00011	74 28		 je	 SHORT $LN1@ToWallZone
  00013	8b 06		 mov	 eax, DWORD PTR [esi]
  00015	8b ce		 mov	 ecx, esi
  00017	ff 90 a4 00 00
	00		 call	 DWORD PTR [eax+164]
  0001d	83 f8 0b	 cmp	 eax, 11			; 0000000bH
  00020	75 19		 jne	 SHORT $LN1@ToWallZone

; 54   : 
; 55   : 	return dynamic_cast< ioWallZone* >( pPlay );

  00022	6a 00		 push	 0
  00024	68 00 00 00 00	 push	 OFFSET ??_R0?AVioWallZone@@@8
  00029	68 00 00 00 00	 push	 OFFSET ??_R0?AVioPlayEntity@@@8
  0002e	6a 00		 push	 0
  00030	56		 push	 esi
  00031	e8 00 00 00 00	 call	 ___RTDynamicCast
  00036	83 c4 14	 add	 esp, 20			; 00000014H
  00039	eb 02		 jmp	 SHORT $LN3@ToWallZone
$LN1@ToWallZone:

; 53   : 		return NULL;

  0003b	33 c0		 xor	 eax, eax
$LN3@ToWallZone:
  0003d	5e		 pop	 esi

; 56   : }

  0003e	5d		 pop	 ebp
  0003f	c3		 ret	 0
?ToWallZone@@YAPAVioWallZone@@PAVioGameEntity@@@Z ENDP	; ToWallZone
_TEXT	ENDS
PUBLIC	??_R0?AVioSymbolStruct@@@8			; ioSymbolStruct `RTTI Type Descriptor'
PUBLIC	?ToSymbolStruct@@YAPAVioSymbolStruct@@PAVioGameEntity@@@Z ; ToSymbolStruct
;	COMDAT ??_R0?AVioSymbolStruct@@@8
; File d:\lost saga for developer\youtube\tutorial\source\src\lsclient\iosymbolstruct.h
_DATA	SEGMENT
??_R0?AVioSymbolStruct@@@8 DD FLAT:??_7type_info@@6B@	; ioSymbolStruct `RTTI Type Descriptor'
	DD	00H
	DB	'.?AVioSymbolStruct@@', 00H
; Function compile flags: /Ogsp
_DATA	ENDS
;	COMDAT ?ToSymbolStruct@@YAPAVioSymbolStruct@@PAVioGameEntity@@@Z
_TEXT	SEGMENT
_pObj$ = 8						; size = 4
?ToSymbolStruct@@YAPAVioSymbolStruct@@PAVioGameEntity@@@Z PROC ; ToSymbolStruct, COMDAT

; 171  : {

  00000	55		 push	 ebp
  00001	8b ec		 mov	 ebp, esp
  00003	56		 push	 esi

; 172  : 	ioPlayEntity *pPlay = ToPlayEntity( pObj );

  00004	ff 75 08	 push	 DWORD PTR _pObj$[ebp]
  00007	e8 00 00 00 00	 call	 ?ToPlayEntity@@YAPAVioPlayEntity@@PAVioGameEntity@@@Z ; ToPlayEntity
  0000c	8b f0		 mov	 esi, eax
  0000e	59		 pop	 ecx

; 173  : 	if( !pPlay || pPlay->GetSubType() != ioPlayEntity::PST_SYMBOL )

  0000f	85 f6		 test	 esi, esi
  00011	74 28		 je	 SHORT $LN1@ToSymbolSt
  00013	8b 06		 mov	 eax, DWORD PTR [esi]
  00015	8b ce		 mov	 ecx, esi
  00017	ff 90 a4 00 00
	00		 call	 DWORD PTR [eax+164]
  0001d	83 f8 01	 cmp	 eax, 1
  00020	75 19		 jne	 SHORT $LN1@ToSymbolSt

; 175  : 
; 176  : 	return dynamic_cast< ioSymbolStruct* >( pPlay );

  00022	6a 00		 push	 0
  00024	68 00 00 00 00	 push	 OFFSET ??_R0?AVioSymbolStruct@@@8
  00029	68 00 00 00 00	 push	 OFFSET ??_R0?AVioPlayEntity@@@8
  0002e	6a 00		 push	 0
  00030	56		 push	 esi
  00031	e8 00 00 00 00	 call	 ___RTDynamicCast
  00036	83 c4 14	 add	 esp, 20			; 00000014H
  00039	eb 02		 jmp	 SHORT $LN3@ToSymbolSt
$LN1@ToSymbolSt:

; 174  : 		return NULL;

  0003b	33 c0		 xor	 eax, eax
$LN3@ToSymbolSt:
  0003d	5e		 pop	 esi

; 177  : }

  0003e	5d		 pop	 ebp
  0003f	c3		 ret	 0
?ToSymbolStruct@@YAPAVioSymbolStruct@@PAVioGameEntity@@@Z ENDP ; ToSymbolStruct
_TEXT	ENDS
PUBLIC	??_R0?AVioBall@@@8				; ioBall `RTTI Type Descriptor'
PUBLIC	?ToBallStruct@@YAPAVioBall@@PAVioGameEntity@@@Z	; ToBallStruct
;	COMDAT ??_R0?AVioBall@@@8
; File d:\lost saga for developer\youtube\tutorial\source\src\lsclient\ioball.h
_DATA	SEGMENT
??_R0?AVioBall@@@8 DD FLAT:??_7type_info@@6B@		; ioBall `RTTI Type Descriptor'
	DD	00H
	DB	'.?AVioBall@@', 00H
; Function compile flags: /Ogsp
_DATA	ENDS
;	COMDAT ?ToBallStruct@@YAPAVioBall@@PAVioGameEntity@@@Z
_TEXT	SEGMENT
_pObj$ = 8						; size = 4
?ToBallStruct@@YAPAVioBall@@PAVioGameEntity@@@Z PROC	; ToBallStruct, COMDAT

; 252  : {

  00000	55		 push	 ebp
  00001	8b ec		 mov	 ebp, esp
  00003	56		 push	 esi

; 253  : 	ioPlayEntity *pPlay = ToPlayEntity( pObj );

  00004	ff 75 08	 push	 DWORD PTR _pObj$[ebp]
  00007	e8 00 00 00 00	 call	 ?ToPlayEntity@@YAPAVioPlayEntity@@PAVioGameEntity@@@Z ; ToPlayEntity
  0000c	8b f0		 mov	 esi, eax
  0000e	59		 pop	 ecx

; 254  : 	if( !pPlay || pPlay->GetSubType() != ioPlayEntity::PST_BALL )

  0000f	85 f6		 test	 esi, esi
  00011	74 28		 je	 SHORT $LN1@ToBallStru
  00013	8b 06		 mov	 eax, DWORD PTR [esi]
  00015	8b ce		 mov	 ecx, esi
  00017	ff 90 a4 00 00
	00		 call	 DWORD PTR [eax+164]
  0001d	83 f8 08	 cmp	 eax, 8
  00020	75 19		 jne	 SHORT $LN1@ToBallStru

; 256  : 
; 257  : 	return dynamic_cast< ioBall* >( pPlay );

  00022	6a 00		 push	 0
  00024	68 00 00 00 00	 push	 OFFSET ??_R0?AVioBall@@@8
  00029	68 00 00 00 00	 push	 OFFSET ??_R0?AVioPlayEntity@@@8
  0002e	6a 00		 push	 0
  00030	56		 push	 esi
  00031	e8 00 00 00 00	 call	 ___RTDynamicCast
  00036	83 c4 14	 add	 esp, 20			; 00000014H
  00039	eb 02		 jmp	 SHORT $LN3@ToBallStru
$LN1@ToBallStru:

; 255  : 		return NULL;

  0003b	33 c0		 xor	 eax, eax
$LN3@ToBallStru:
  0003d	5e		 pop	 esi

; 258  : }

  0003e	5d		 pop	 ebp
  0003f	c3		 ret	 0
?ToBallStruct@@YAPAVioBall@@PAVioGameEntity@@@Z ENDP	; ToBallStruct
_TEXT	ENDS
PUBLIC	??_R0?AVioPushStruct@@@8			; ioPushStruct `RTTI Type Descriptor'
PUBLIC	?ToPushStruct@@YAPAVioPushStruct@@PAVioGameEntity@@@Z ; ToPushStruct
;	COMDAT ??_R0?AVioPushStruct@@@8
; File d:\lost saga for developer\youtube\tutorial\source\src\lsclient\iopushstruct.h
_DATA	SEGMENT
??_R0?AVioPushStruct@@@8 DD FLAT:??_7type_info@@6B@	; ioPushStruct `RTTI Type Descriptor'
	DD	00H
	DB	'.?AVioPushStruct@@', 00H
; Function compile flags: /Ogsp
_DATA	ENDS
;	COMDAT ?ToPushStruct@@YAPAVioPushStruct@@PAVioGameEntity@@@Z
_TEXT	SEGMENT
_pObj$ = 8						; size = 4
?ToPushStruct@@YAPAVioPushStruct@@PAVioGameEntity@@@Z PROC ; ToPushStruct, COMDAT

; 440  : {

  00000	55		 push	 ebp
  00001	8b ec		 mov	 ebp, esp
  00003	56		 push	 esi

; 441  : 	ioPlayEntity *pPlay = ToPlayEntity( pObj );

  00004	ff 75 08	 push	 DWORD PTR _pObj$[ebp]
  00007	e8 00 00 00 00	 call	 ?ToPlayEntity@@YAPAVioPlayEntity@@PAVioGameEntity@@@Z ; ToPlayEntity
  0000c	8b f0		 mov	 esi, eax
  0000e	59		 pop	 ecx

; 442  : 	if( !pPlay || pPlay->GetSubType() != ioPlayEntity::PST_PUSHSTRUCT )

  0000f	85 f6		 test	 esi, esi
  00011	74 28		 je	 SHORT $LN1@ToPushStru
  00013	8b 06		 mov	 eax, DWORD PTR [esi]
  00015	8b ce		 mov	 ecx, esi
  00017	ff 90 a4 00 00
	00		 call	 DWORD PTR [eax+164]
  0001d	83 f8 02	 cmp	 eax, 2
  00020	75 19		 jne	 SHORT $LN1@ToPushStru

; 444  : 
; 445  : 	return dynamic_cast< ioPushStruct* >( pPlay );

  00022	6a 00		 push	 0
  00024	68 00 00 00 00	 push	 OFFSET ??_R0?AVioPushStruct@@@8
  00029	68 00 00 00 00	 push	 OFFSET ??_R0?AVioPlayEntity@@@8
  0002e	6a 00		 push	 0
  00030	56		 push	 esi
  00031	e8 00 00 00 00	 call	 ___RTDynamicCast
  00036	83 c4 14	 add	 esp, 20			; 00000014H
  00039	eb 02		 jmp	 SHORT $LN3@ToPushStru
$LN1@ToPushStru:

; 443  : 		return NULL;

  0003b	33 c0		 xor	 eax, eax
$LN3@ToPushStru:
  0003d	5e		 pop	 esi

; 446  : }

  0003e	5d		 pop	 ebp
  0003f	c3		 ret	 0
?ToPushStruct@@YAPAVioPushStruct@@PAVioGameEntity@@@Z ENDP ; ToPushStruct
_TEXT	ENDS
PUBLIC	?DecryptValueToPool@?$CEncrypt@M@@QAEXPAM@Z	; CEncrypt<float>::DecryptValueToPool
EXTRN	?DecryptByte@ccddaabb@@QBEXPBDPADH@Z:PROC	; ccddaabb::DecryptByte
; Function compile flags: /Ogsp
; File d:\lost saga for developer\youtube\tutorial\source\src\lsclient\encryptvalue.h
;	COMDAT ?DecryptValueToPool@?$CEncrypt@M@@QAEXPAM@Z
_TEXT	SEGMENT
_value$ = 8						; size = 4
?DecryptValueToPool@?$CEncrypt@M@@QAEXPAM@Z PROC	; CEncrypt<float>::DecryptValueToPool, COMDAT
; _this$ = ecx

; 1648 : 	{

  00000	55		 push	 ebp
  00001	8b ec		 mov	 ebp, esp
  00003	56		 push	 esi

; 1649 : 		m_RC5.DecryptByte( m_MemPool, m_TempMem, 4 );

  00004	8d 71 28	 lea	 esi, DWORD PTR [ecx+40]
  00007	6a 04		 push	 4
  00009	8d 41 1c	 lea	 eax, DWORD PTR [ecx+28]
  0000c	56		 push	 esi
  0000d	50		 push	 eax
  0000e	83 c1 0c	 add	 ecx, 12			; 0000000cH
  00011	e8 00 00 00 00	 call	 ?DecryptByte@ccddaabb@@QBEXPBDPADH@Z ; ccddaabb::DecryptByte

; 1650 : 		*value = *((float*)m_TempMem);

  00016	d9 06		 fld	 DWORD PTR [esi]
  00018	8b 45 08	 mov	 eax, DWORD PTR _value$[ebp]
  0001b	d9 18		 fstp	 DWORD PTR [eax]
  0001d	5e		 pop	 esi

; 1651 : 	}

  0001e	5d		 pop	 ebp
  0001f	c2 04 00	 ret	 4
?DecryptValueToPool@?$CEncrypt@M@@QAEXPAM@Z ENDP	; CEncrypt<float>::DecryptValueToPool
_TEXT	ENDS
PUBLIC	?DecryptValueToPool@?$CEncrypt@_N@@QAEXPA_N@Z	; CEncrypt<bool>::DecryptValueToPool
; Function compile flags: /Ogsp
;	COMDAT ?DecryptValueToPool@?$CEncrypt@_N@@QAEXPA_N@Z
_TEXT	SEGMENT
_value$ = 8						; size = 4
?DecryptValueToPool@?$CEncrypt@_N@@QAEXPA_N@Z PROC	; CEncrypt<bool>::DecryptValueToPool, COMDAT
; _this$ = ecx

; 219  : 	{

  00000	55		 push	 ebp
  00001	8b ec		 mov	 ebp, esp
  00003	56		 push	 esi

; 220  : 		m_RC5.DecryptByte( m_MemPool, m_TempMem, 4 );

  00004	8d 71 28	 lea	 esi, DWORD PTR [ecx+40]
  00007	6a 04		 push	 4
  00009	8d 41 1c	 lea	 eax, DWORD PTR [ecx+28]
  0000c	56		 push	 esi
  0000d	50		 push	 eax
  0000e	83 c1 0c	 add	 ecx, 12			; 0000000cH
  00011	e8 00 00 00 00	 call	 ?DecryptByte@ccddaabb@@QBEXPBDPADH@Z ; ccddaabb::DecryptByte

; 221  : 		*value = *((bool*)m_TempMem);

  00016	8a 06		 mov	 al, BYTE PTR [esi]
  00018	8b 4d 08	 mov	 ecx, DWORD PTR _value$[ebp]
  0001b	88 01		 mov	 BYTE PTR [ecx], al
  0001d	5e		 pop	 esi

; 222  : 	}

  0001e	5d		 pop	 ebp
  0001f	c2 04 00	 ret	 4
?DecryptValueToPool@?$CEncrypt@_N@@QAEXPA_N@Z ENDP	; CEncrypt<bool>::DecryptValueToPool
_TEXT	ENDS
PUBLIC	?DecryptValueToPool@?$CEncrypt@W4TeamType@@@@QAEXPAW4TeamType@@@Z ; CEncrypt<enum TeamType>::DecryptValueToPool
; Function compile flags: /Ogsp
;	COMDAT ?DecryptValueToPool@?$CEncrypt@W4TeamType@@@@QAEXPAW4TeamType@@@Z
_TEXT	SEGMENT
_value$ = 8						; size = 4
?DecryptValueToPool@?$CEncrypt@W4TeamType@@@@QAEXPAW4TeamType@@@Z PROC ; CEncrypt<enum TeamType>::DecryptValueToPool, COMDAT
; _this$ = ecx

; 2959 : 	{

  00000	55		 push	 ebp
  00001	8b ec		 mov	 ebp, esp
  00003	56		 push	 esi

; 2960 : 		m_RC5.DecryptByte( m_MemPool, m_TempMem, sizeof(TeamType) );

  00004	8d 71 28	 lea	 esi, DWORD PTR [ecx+40]
  00007	6a 04		 push	 4
  00009	8d 41 1c	 lea	 eax, DWORD PTR [ecx+28]
  0000c	56		 push	 esi
  0000d	50		 push	 eax
  0000e	83 c1 0c	 add	 ecx, 12			; 0000000cH
  00011	e8 00 00 00 00	 call	 ?DecryptByte@ccddaabb@@QBEXPBDPADH@Z ; ccddaabb::DecryptByte

; 2961 : 		*value = *((TeamType*)m_TempMem);

  00016	8b 06		 mov	 eax, DWORD PTR [esi]
  00018	8b 4d 08	 mov	 ecx, DWORD PTR _value$[ebp]
  0001b	89 01		 mov	 DWORD PTR [ecx], eax
  0001d	5e		 pop	 esi

; 2962 : 	}

  0001e	5d		 pop	 ebp
  0001f	c2 04 00	 ret	 4
?DecryptValueToPool@?$CEncrypt@W4TeamType@@@@QAEXPAW4TeamType@@@Z ENDP ; CEncrypt<enum TeamType>::DecryptValueToPool
_TEXT	ENDS
PUBLIC	??_R0?AVioBaseChar@@@8				; ioBaseChar `RTTI Type Descriptor'
PUBLIC	?ToBaseChar@@YAPAVioBaseChar@@PAVioGameEntity@@@Z ; ToBaseChar
;	COMDAT ??_R0?AVioBaseChar@@@8
; File d:\lost saga for developer\youtube\tutorial\source\src\lsclient\iobasechar.h
_DATA	SEGMENT
??_R0?AVioBaseChar@@@8 DD FLAT:??_7type_info@@6B@	; ioBaseChar `RTTI Type Descriptor'
	DD	00H
	DB	'.?AVioBaseChar@@', 00H
; Function compile flags: /Ogsp
_DATA	ENDS
;	COMDAT ?ToBaseChar@@YAPAVioBaseChar@@PAVioGameEntity@@@Z
_TEXT	SEGMENT
_pObj$ = 8						; size = 4
?ToBaseChar@@YAPAVioBaseChar@@PAVioGameEntity@@@Z PROC	; ToBaseChar, COMDAT

; 4326 : {

  00000	55		 push	 ebp
  00001	8b ec		 mov	 ebp, esp
  00003	56		 push	 esi

; 4327 : 	ioPlayEntity *pPlay = ToPlayEntity( pObj );

  00004	ff 75 08	 push	 DWORD PTR _pObj$[ebp]
  00007	e8 00 00 00 00	 call	 ?ToPlayEntity@@YAPAVioPlayEntity@@PAVioGameEntity@@@Z ; ToPlayEntity
  0000c	8b f0		 mov	 esi, eax
  0000e	59		 pop	 ecx

; 4328 : 	if( !pPlay || pPlay->GetSubType() != ioPlayEntity::PST_CHAR )

  0000f	85 f6		 test	 esi, esi
  00011	74 25		 je	 SHORT $LN1@ToBaseChar
  00013	8b 06		 mov	 eax, DWORD PTR [esi]
  00015	8b ce		 mov	 ecx, esi
  00017	ff 90 a4 00 00
	00		 call	 DWORD PTR [eax+164]
  0001d	85 c0		 test	 eax, eax
  0001f	75 17		 jne	 SHORT $LN1@ToBaseChar

; 4330 : 
; 4331 : 	return dynamic_cast< ioBaseChar* >( pPlay );

  00021	50		 push	 eax
  00022	68 00 00 00 00	 push	 OFFSET ??_R0?AVioBaseChar@@@8
  00027	68 00 00 00 00	 push	 OFFSET ??_R0?AVioPlayEntity@@@8
  0002c	50		 push	 eax
  0002d	56		 push	 esi
  0002e	e8 00 00 00 00	 call	 ___RTDynamicCast
  00033	83 c4 14	 add	 esp, 20			; 00000014H
  00036	eb 02		 jmp	 SHORT $LN3@ToBaseChar
$LN1@ToBaseChar:

; 4329 : 		return NULL;

  00038	33 c0		 xor	 eax, eax
$LN3@ToBaseChar:
  0003a	5e		 pop	 esi

; 4332 : }

  0003b	5d		 pop	 ebp
  0003c	c3		 ret	 0
?ToBaseChar@@YAPAVioBaseChar@@PAVioGameEntity@@@Z ENDP	; ToBaseChar
_TEXT	ENDS
PUBLIC	??0ioControlMissileWeapon@@QAE@PAVioBaseChar@@PBUWeaponAttribute@@@Z ; ioControlMissileWeapon::ioControlMissileWeapon
EXTRN	?SetPeculiarity@ioWeapon@@QAEXK@Z:PROC		; ioWeapon::SetPeculiarity
EXTRN	__imp_??0ioHashString@@QAE@XZ:PROC
EXTRN	__imp_??0ioOrientBox@@QAE@XZ:PROC
EXTRN	??0ioWeapon@@QAE@PAVioBaseChar@@PBUWeaponAttribute@@@Z:PROC ; ioWeapon::ioWeapon
;	COMDAT xdata$x
; File c:\program files (x86)\microsoft directx sdk (june 2010)\include\d3dx9math.h
xdata$x	SEGMENT
__unwindtable$??0ioControlMissileWeapon@@QAE@PAVioBaseChar@@PBUWeaponAttribute@@@Z DD 0ffffffffH
	DD	FLAT:__unwindfunclet$??0ioControlMissileWeapon@@QAE@PAVioBaseChar@@PBUWeaponAttribute@@@Z$0
	DD	00H
	DD	FLAT:__unwindfunclet$??0ioControlMissileWeapon@@QAE@PAVioBaseChar@@PBUWeaponAttribute@@@Z$1
	DD	01H
	DD	FLAT:__unwindfunclet$??0ioControlMissileWeapon@@QAE@PAVioBaseChar@@PBUWeaponAttribute@@@Z$2
	DD	02H
	DD	FLAT:__unwindfunclet$??0ioControlMissileWeapon@@QAE@PAVioBaseChar@@PBUWeaponAttribute@@@Z$3
__ehfuncinfo$??0ioControlMissileWeapon@@QAE@PAVioBaseChar@@PBUWeaponAttribute@@@Z DD 019930522H
	DD	04H
	DD	FLAT:__unwindtable$??0ioControlMissileWeapon@@QAE@PAVioBaseChar@@PBUWeaponAttribute@@@Z
	DD	2 DUP(00H)
	DD	2 DUP(00H)
	DD	00H
	DD	01H
; Function compile flags: /Ogsp
; File d:\lost saga for developer\youtube\tutorial\source\src\lsclient\iocontrolmissileweapon.cpp
xdata$x	ENDS
;	COMDAT ??0ioControlMissileWeapon@@QAE@PAVioBaseChar@@PBUWeaponAttribute@@@Z
_TEXT	SEGMENT
_this$ = -16						; size = 4
__$EHRec$ = -12						; size = 12
_pOwner$ = 8						; size = 4
_pAttr$ = 12						; size = 4
??0ioControlMissileWeapon@@QAE@PAVioBaseChar@@PBUWeaponAttribute@@@Z PROC ; ioControlMissileWeapon::ioControlMissileWeapon, COMDAT
; _this$ = ecx

; 15   : {

  00000	6a 04		 push	 4
  00002	b8 00 00 00 00	 mov	 eax, __ehhandler$??0ioControlMissileWeapon@@QAE@PAVioBaseChar@@PBUWeaponAttribute@@@Z
  00007	e8 00 00 00 00	 call	 __EH_prolog3
  0000c	8b f1		 mov	 esi, ecx
  0000e	89 75 f0	 mov	 DWORD PTR _this$[ebp], esi
  00011	ff 75 0c	 push	 DWORD PTR _pAttr$[ebp]
  00014	ff 75 08	 push	 DWORD PTR _pOwner$[ebp]
  00017	e8 00 00 00 00	 call	 ??0ioWeapon@@QAE@PAVioBaseChar@@PBUWeaponAttribute@@@Z ; ioWeapon::ioWeapon
  0001c	33 db		 xor	 ebx, ebx
  0001e	8d 8e 98 08 00
	00		 lea	 ecx, DWORD PTR [esi+2200]
  00024	89 5d fc	 mov	 DWORD PTR __$EHRec$[ebp+8], ebx
  00027	c7 06 00 00 00
	00		 mov	 DWORD PTR [esi], OFFSET ??_7ioControlMissileWeapon@@6B@
  0002d	ff 15 00 00 00
	00		 call	 DWORD PTR __imp_??0ioOrientBox@@QAE@XZ
  00033	8b 3d 00 00 00
	00		 mov	 edi, DWORD PTR __imp_??0ioHashString@@QAE@XZ
  00039	8d 8e ec 08 00
	00		 lea	 ecx, DWORD PTR [esi+2284]
  0003f	c6 45 fc 01	 mov	 BYTE PTR __$EHRec$[ebp+8], 1
  00043	ff d7		 call	 edi
  00045	8d 8e fc 08 00
	00		 lea	 ecx, DWORD PTR [esi+2300]
  0004b	c6 45 fc 02	 mov	 BYTE PTR __$EHRec$[ebp+8], 2
  0004f	ff d7		 call	 edi

; 16   : 	SetPeculiarity( WP_ONE_TIME_USE | WP_MISSILE_WEAPON | WP_DIVIDE_ACTION );

  00051	68 03 01 00 00	 push	 259			; 00000103H
  00056	8b ce		 mov	 ecx, esi
  00058	c6 45 fc 03	 mov	 BYTE PTR __$EHRec$[ebp+8], 3
  0005c	e8 00 00 00 00	 call	 ?SetPeculiarity@ioWeapon@@QAEXK@Z ; ioWeapon::SetPeculiarity

; 17   : 
; 18   : 	m_pMissileMesh = NULL;
; 19   : 	m_ControlState = CTS_IN_RANGE;
; 20   : 
; 21   : 	m_bResistance = false;
; 22   : 	m_bSetGraceClose = false;
; 23   : 	m_fCurMoveSpeed = 0.0f;

  00061	0f 57 c0	 xorps	 xmm0, xmm0
  00064	89 9e e8 08 00
	00		 mov	 DWORD PTR [esi+2280], ebx
  0006a	89 9e 94 08 00
	00		 mov	 DWORD PTR [esi+2196], ebx
  00070	88 9e 3c 06 00
	00		 mov	 BYTE PTR [esi+1596], bl
  00076	88 9e 34 09 00
	00		 mov	 BYTE PTR [esi+2356], bl
  0007c	f3 0f 11 86 20
	09 00 00	 movss	 DWORD PTR [esi+2336], xmm0

; 24   : 	m_dwSyncTime = 0;

  00084	89 9e 30 09 00
	00		 mov	 DWORD PTR [esi+2352], ebx

; 25   : 
; 26   : 	m_dwReturnStartTime = 0;

  0008a	89 9e 38 09 00
	00		 mov	 DWORD PTR [esi+2360], ebx

; 27   : }

  00090	8b c6		 mov	 eax, esi
  00092	e8 00 00 00 00	 call	 __EH_epilog3
  00097	c2 08 00	 ret	 8
_TEXT	ENDS
;	COMDAT text$x
text$x	SEGMENT
__unwindfunclet$??0ioControlMissileWeapon@@QAE@PAVioBaseChar@@PBUWeaponAttribute@@@Z$0:
  00000	8b 4d f0	 mov	 ecx, DWORD PTR _this$[ebp]
  00003	e9 00 00 00 00	 jmp	 ??1ioWeapon@@UAE@XZ	; ioWeapon::~ioWeapon
__unwindfunclet$??0ioControlMissileWeapon@@QAE@PAVioBaseChar@@PBUWeaponAttribute@@@Z$1:
  00008	8b 4d f0	 mov	 ecx, DWORD PTR _this$[ebp]
  0000b	81 c1 98 08 00
	00		 add	 ecx, 2200		; 00000898H
  00011	ff 25 00 00 00
	00		 jmp	 DWORD PTR __imp_??1ioOrientBox@@QAE@XZ
__unwindfunclet$??0ioControlMissileWeapon@@QAE@PAVioBaseChar@@PBUWeaponAttribute@@@Z$2:
  00017	8b 4d f0	 mov	 ecx, DWORD PTR _this$[ebp]
  0001a	81 c1 ec 08 00
	00		 add	 ecx, 2284		; 000008ecH
  00020	ff 25 00 00 00
	00		 jmp	 DWORD PTR __imp_??1ioHashString@@QAE@XZ
__unwindfunclet$??0ioControlMissileWeapon@@QAE@PAVioBaseChar@@PBUWeaponAttribute@@@Z$3:
  00026	8b 4d f0	 mov	 ecx, DWORD PTR _this$[ebp]
  00029	81 c1 fc 08 00
	00		 add	 ecx, 2300		; 000008fcH
  0002f	ff 25 00 00 00
	00		 jmp	 DWORD PTR __imp_??1ioHashString@@QAE@XZ
__ehhandler$??0ioControlMissileWeapon@@QAE@PAVioBaseChar@@PBUWeaponAttribute@@@Z:
  00035	8b 54 24 08	 mov	 edx, DWORD PTR [esp+8]
  00039	8d 42 0c	 lea	 eax, DWORD PTR [edx+12]
  0003c	8b 4a ec	 mov	 ecx, DWORD PTR [edx-20]
  0003f	33 c8		 xor	 ecx, eax
  00041	e8 00 00 00 00	 call	 @__security_check_cookie@4
  00046	b8 00 00 00 00	 mov	 eax, OFFSET __ehfuncinfo$??0ioControlMissileWeapon@@QAE@PAVioBaseChar@@PBUWeaponAttribute@@@Z
  0004b	e9 00 00 00 00	 jmp	 ___CxxFrameHandler3
text$x	ENDS
??0ioControlMissileWeapon@@QAE@PAVioBaseChar@@PBUWeaponAttribute@@@Z ENDP ; ioControlMissileWeapon::ioControlMissileWeapon
EXTRN	??3@YAXPAX@Z:PROC				; operator delete
; Function compile flags: /Ogsp
;	COMDAT ??_GioControlMissileWeapon@@UAEPAXI@Z
_TEXT	SEGMENT
___flags$ = 8						; size = 4
??_GioControlMissileWeapon@@UAEPAXI@Z PROC		; ioControlMissileWeapon::`scalar deleting destructor', COMDAT
; _this$ = ecx
  00000	55		 push	 ebp
  00001	8b ec		 mov	 ebp, esp
  00003	56		 push	 esi
  00004	8b f1		 mov	 esi, ecx
  00006	e8 00 00 00 00	 call	 ??1ioControlMissileWeapon@@UAE@XZ ; ioControlMissileWeapon::~ioControlMissileWeapon
  0000b	f6 45 08 01	 test	 BYTE PTR ___flags$[ebp], 1
  0000f	74 07		 je	 SHORT $LN1@scalar
  00011	56		 push	 esi
  00012	e8 00 00 00 00	 call	 ??3@YAXPAX@Z		; operator delete
  00017	59		 pop	 ecx
$LN1@scalar:
  00018	8b c6		 mov	 eax, esi
  0001a	5e		 pop	 esi
  0001b	5d		 pop	 ebp
  0001c	c2 04 00	 ret	 4
??_GioControlMissileWeapon@@UAEPAXI@Z ENDP		; ioControlMissileWeapon::`scalar deleting destructor'
_TEXT	ENDS
PUBLIC	?SetMesh@ioControlMissileWeapon@@IAE_NABVioHashString@@@Z ; ioControlMissileWeapon::SetMesh
EXTRN	__imp_?GetCollisionBox@ioEffect@@QBEABVioOrientBox@@XZ:PROC
EXTRN	__imp_??D@YA?AUD3DXVECTOR3@@ABU0@0@Z:PROC
EXTRN	__imp_??D@YA?AUD3DXVECTOR3@@ABUD3DXQUATERNION@@ABU0@@Z:PROC
EXTRN	__imp_?GetBiped@ioEntityGroup@@QAEPAVioBiped@@ABVioHashString@@@Z:PROC
EXTRN	__imp_?GetFirstLinkOffset@ioEffect@@QAE_NAAVioHashString@@AAUD3DXVECTOR3@@AAUD3DXQUATERNION@@@Z:PROC
EXTRN	__imp_?UNIT_ALL@ioMath@@2UD3DXVECTOR3@@A:BYTE
EXTRN	__imp_?CreateEffect@ioEffectFactory@@QAEPAVioEffect@@ABVioHashString@@@Z:PROC
EXTRN	__EH_epilog3_GS:PROC
EXTRN	__EH_prolog3_GS:PROC
;	COMDAT xdata$x
; File c:\program files (x86)\microsoft visual studio 10.0\vc\include\math.h
xdata$x	SEGMENT
__unwindtable$?SetMesh@ioControlMissileWeapon@@IAE_NABVioHashString@@@Z DD 0ffffffffH
	DD	FLAT:__unwindfunclet$?SetMesh@ioControlMissileWeapon@@IAE_NABVioHashString@@@Z$0
	DD	00H
	DD	FLAT:__unwindfunclet$?SetMesh@ioControlMissileWeapon@@IAE_NABVioHashString@@@Z$1
__ehfuncinfo$?SetMesh@ioControlMissileWeapon@@IAE_NABVioHashString@@@Z DD 019930522H
	DD	02H
	DD	FLAT:__unwindtable$?SetMesh@ioControlMissileWeapon@@IAE_NABVioHashString@@@Z
	DD	2 DUP(00H)
	DD	2 DUP(00H)
	DD	00H
	DD	01H
; Function compile flags: /Ogsp
; File d:\lost saga for developer\youtube\tutorial\source\src\lsclient\iocontrolmissileweapon.cpp
xdata$x	ENDS
;	COMDAT ?SetMesh@ioControlMissileWeapon@@IAE_NABVioHashString@@@Z
_TEXT	SEGMENT
_qtLinkRotOffset$ = -96					; size = 16
_szLinkBiped$ = -80					; size = 16
_pOwner$ = -64						; size = 4
$T533316 = -57						; size = 1
$T533317 = -56						; size = 16
$T530699 = -52						; size = 12
_vLinkPosOffset$ = -40					; size = 12
$T530700 = -28						; size = 12
$T530698 = -28						; size = 12
$T530697 = -28						; size = 12
$T530696 = -28						; size = 12
tv391 = -24						; size = 8
$T533322 = -20						; size = 4
__$EHRec$ = -12						; size = 12
_szFileName$ = 8					; size = 4
?SetMesh@ioControlMissileWeapon@@IAE_NABVioHashString@@@Z PROC ; ioControlMissileWeapon::SetMesh, COMDAT
; _this$ = ecx

; 109  : {

  00000	6a 54		 push	 84			; 00000054H
  00002	b8 00 00 00 00	 mov	 eax, __ehhandler$?SetMesh@ioControlMissileWeapon@@IAE_NABVioHashString@@@Z
  00007	e8 00 00 00 00	 call	 __EH_prolog3_GS
  0000c	8b 7d 08	 mov	 edi, DWORD PTR _szFileName$[ebp]
  0000f	33 f6		 xor	 esi, esi
  00011	8b d9		 mov	 ebx, ecx
  00013	89 75 ec	 mov	 DWORD PTR $T533322[ebp], esi

; 110  : 	ioBaseChar *pOwner = GetOwner();

  00016	e8 00 00 00 00	 call	 ?GetOwner@ioWeapon@@QBEPAVioBaseChar@@XZ ; ioWeapon::GetOwner
  0001b	89 45 c0	 mov	 DWORD PTR _pOwner$[ebp], eax

; 111  : 	if( !pOwner )	return false;

  0001e	3b c6		 cmp	 eax, esi
  00020	75 07		 jne	 SHORT $LN4@SetMesh
$LN39@SetMesh:
  00022	32 c0		 xor	 al, al
  00024	e9 8c 02 00 00	 jmp	 $LN5@SetMesh
$LN4@SetMesh:

; 112  : 
; 113  : 	m_pMissileMesh = g_EffectFactory.CreateEffect( szFileName );

  00029	57		 push	 edi
  0002a	ff 15 00 00 00
	00		 call	 DWORD PTR __imp_?GetSingleton@ioEffectFactory@@SAAAV1@XZ
  00030	8b c8		 mov	 ecx, eax
  00032	ff 15 00 00 00
	00		 call	 DWORD PTR __imp_?CreateEffect@ioEffectFactory@@QAEPAVioEffect@@ABVioHashString@@@Z
  00038	89 83 e8 08 00
	00		 mov	 DWORD PTR [ebx+2280], eax

; 114  : 	if( !m_pMissileMesh )	return false;

  0003e	3b c6		 cmp	 eax, esi
  00040	74 e0		 je	 SHORT $LN39@SetMesh

; 115  : 
; 116  : 	GetParentSceneNode()->AttachObject( m_pMissileMesh );

  00042	8b 4b 04	 mov	 ecx, DWORD PTR [ebx+4]
  00045	8b 11		 mov	 edx, DWORD PTR [ecx]
  00047	83 c0 14	 add	 eax, 20			; 00000014H
  0004a	50		 push	 eax
  0004b	ff 92 ac 00 00
	00		 call	 DWORD PTR [edx+172]

; 117  : 	GetParentSceneNode()->SetScale( ioMath::UNIT_ALL );

  00051	8b 4b 04	 mov	 ecx, DWORD PTR [ebx+4]
  00054	ff 35 00 00 00
	00		 push	 DWORD PTR __imp_?UNIT_ALL@ioMath@@2UD3DXVECTOR3@@A
  0005a	8b 01		 mov	 eax, DWORD PTR [ecx]
  0005c	ff 50 20	 call	 DWORD PTR [eax+32]

; 118  : 
; 119  : 	ioHashString szLinkBiped;

  0005f	8d 4d b0	 lea	 ecx, DWORD PTR _szLinkBiped$[ebp]
  00062	ff 15 00 00 00
	00		 call	 DWORD PTR __imp_??0ioHashString@@QAE@XZ

; 120  : 	D3DXVECTOR3 vLinkPosOffset;
; 121  : 	D3DXQUATERNION qtLinkRotOffset;
; 122  : 
; 123  : 	if( m_pMissileMesh->GetSkeletonName().IsEmpty() && m_pMissileMesh->GetFirstLinkOffset(szLinkBiped, vLinkPosOffset, qtLinkRotOffset ) )

  00068	8b 8b e8 08 00
	00		 mov	 ecx, DWORD PTR [ebx+2280]
  0006e	8d 45 c8	 lea	 eax, DWORD PTR $T533317[ebp]
  00071	50		 push	 eax
  00072	89 75 fc	 mov	 DWORD PTR __$EHRec$[ebp+8], esi
  00075	ff 15 00 00 00
	00		 call	 DWORD PTR __imp_?GetSkeletonName@ioEffect@@QBE?AVioHashString@@XZ
  0007b	8b c8		 mov	 ecx, eax
  0007d	c6 45 fc 01	 mov	 BYTE PTR __$EHRec$[ebp+8], 1
  00081	c7 45 ec 01 00
	00 00		 mov	 DWORD PTR $T533322[ebp], 1
  00088	ff 15 00 00 00
	00		 call	 DWORD PTR __imp_?IsEmpty@ioHashString@@QBE_NXZ
  0008e	84 c0		 test	 al, al
  00090	74 20		 je	 SHORT $LN9@SetMesh
  00092	8b 8b e8 08 00
	00		 mov	 ecx, DWORD PTR [ebx+2280]
  00098	8d 45 a0	 lea	 eax, DWORD PTR _qtLinkRotOffset$[ebp]
  0009b	50		 push	 eax
  0009c	8d 45 d8	 lea	 eax, DWORD PTR _vLinkPosOffset$[ebp]
  0009f	50		 push	 eax
  000a0	8d 45 b0	 lea	 eax, DWORD PTR _szLinkBiped$[ebp]
  000a3	50		 push	 eax
  000a4	ff 15 00 00 00
	00		 call	 DWORD PTR __imp_?GetFirstLinkOffset@ioEffect@@QAE_NAAVioHashString@@AAUD3DXVECTOR3@@AAUD3DXQUATERNION@@@Z
  000aa	c6 45 c7 01	 mov	 BYTE PTR $T533316[ebp], 1
  000ae	84 c0		 test	 al, al
  000b0	75 04		 jne	 SHORT $LN10@SetMesh
$LN9@SetMesh:
  000b2	c6 45 c7 00	 mov	 BYTE PTR $T533316[ebp], 0
$LN10@SetMesh:
  000b6	8d 4d c8	 lea	 ecx, DWORD PTR $T533317[ebp]
  000b9	89 75 fc	 mov	 DWORD PTR __$EHRec$[ebp+8], esi
  000bc	ff 15 00 00 00
	00		 call	 DWORD PTR __imp_??1ioHashString@@QAE@XZ
  000c2	80 7d c7 00	 cmp	 BYTE PTR $T533316[ebp], 0
  000c6	0f 84 4a 01 00
	00		 je	 $LN1@SetMesh

; 124  : 	{
; 125  : 		ioBiped *pLinked = pOwner->GetGroup()->GetBiped( szLinkBiped );

  000cc	8b 45 c0	 mov	 eax, DWORD PTR _pOwner$[ebp]
  000cf	8b 48 04	 mov	 ecx, DWORD PTR [eax+4]
  000d2	8d 45 b0	 lea	 eax, DWORD PTR _szLinkBiped$[ebp]
  000d5	50		 push	 eax
  000d6	ff 15 00 00 00
	00		 call	 DWORD PTR __imp_?GetBiped@ioEntityGroup@@QAEPAVioBiped@@ABVioHashString@@@Z
  000dc	8b f8		 mov	 edi, eax

; 126  : 		if( pLinked )

  000de	3b fe		 cmp	 edi, esi
  000e0	0f 84 30 01 00
	00		 je	 $LN1@SetMesh

; 127  : 		{
; 128  : 			vLinkPosOffset = pLinked->GetDerivedOrientation() * vLinkPosOffset + pLinked->GetDerivedPosition();

  000e6	8b 07		 mov	 eax, DWORD PTR [edi]
  000e8	8b cf		 mov	 ecx, edi
  000ea	ff 50 7c	 call	 DWORD PTR [eax+124]
  000ed	8b f0		 mov	 esi, eax
  000ef	8d 45 d8	 lea	 eax, DWORD PTR _vLinkPosOffset$[ebp]
  000f2	50		 push	 eax
  000f3	8b 07		 mov	 eax, DWORD PTR [edi]
  000f5	8b cf		 mov	 ecx, edi
  000f7	ff 50 78	 call	 DWORD PTR [eax+120]
  000fa	50		 push	 eax
  000fb	8d 45 e4	 lea	 eax, DWORD PTR $T530696[ebp]
  000fe	50		 push	 eax
  000ff	ff 15 00 00 00
	00		 call	 DWORD PTR __imp_??D@YA?AUD3DXVECTOR3@@ABUD3DXQUATERNION@@ABU0@@Z
  00105	f3 0f 10 06	 movss	 xmm0, DWORD PTR [esi]
  00109	f3 0f 10 08	 movss	 xmm1, DWORD PTR [eax]
  0010d	f3 0f 10 50 04	 movss	 xmm2, DWORD PTR [eax+4]
  00112	f3 0f 10 58 08	 movss	 xmm3, DWORD PTR [eax+8]

; 129  : 			vLinkPosOffset = vLinkPosOffset * pOwner->GetWorldScale();

  00117	8b 4d c0	 mov	 ecx, DWORD PTR _pOwner$[ebp]
  0011a	0f 5a c9	 cvtps2pd xmm1, xmm1
  0011d	0f 5a c0	 cvtps2pd xmm0, xmm0
  00120	f2 0f 58 c1	 addsd	 xmm0, xmm1
  00124	f3 0f 10 4e 04	 movss	 xmm1, DWORD PTR [esi+4]
  00129	0f 5a d2	 cvtps2pd xmm2, xmm2
  0012c	0f 5a c9	 cvtps2pd xmm1, xmm1
  0012f	f2 0f 58 ca	 addsd	 xmm1, xmm2
  00133	f3 0f 10 56 08	 movss	 xmm2, DWORD PTR [esi+8]
  00138	0f 5a d2	 cvtps2pd xmm2, xmm2
  0013b	0f 5a db	 cvtps2pd xmm3, xmm3
  0013e	f2 0f 58 d3	 addsd	 xmm2, xmm3
  00142	66 0f 5a c0	 cvtpd2ps xmm0, xmm0
  00146	f3 0f 11 45 e4	 movss	 DWORD PTR $T530697[ebp], xmm0
  0014b	66 0f 5a c9	 cvtpd2ps xmm1, xmm1
  0014f	f3 0f 11 4d e8	 movss	 DWORD PTR $T530697[ebp+4], xmm1
  00154	66 0f 5a d2	 cvtpd2ps xmm2, xmm2
  00158	f3 0f 11 55 ec	 movss	 DWORD PTR $T530697[ebp+8], xmm2
  0015d	8d 75 e4	 lea	 esi, DWORD PTR $T530697[ebp]
  00160	8d 7d d8	 lea	 edi, DWORD PTR _vLinkPosOffset$[ebp]
  00163	a5		 movsd
  00164	a5		 movsd
  00165	a5		 movsd
  00166	8b 01		 mov	 eax, DWORD PTR [ecx]
  00168	83 c4 0c	 add	 esp, 12			; 0000000cH
  0016b	ff 50 78	 call	 DWORD PTR [eax+120]
  0016e	50		 push	 eax
  0016f	8d 45 d8	 lea	 eax, DWORD PTR _vLinkPosOffset$[ebp]
  00172	50		 push	 eax
  00173	8d 45 e4	 lea	 eax, DWORD PTR $T530698[ebp]
  00176	50		 push	 eax
  00177	ff 15 00 00 00
	00		 call	 DWORD PTR __imp_??D@YA?AUD3DXVECTOR3@@ABU0@0@Z
  0017d	8b f0		 mov	 esi, eax
  0017f	8d 7d d8	 lea	 edi, DWORD PTR _vLinkPosOffset$[ebp]
  00182	a5		 movsd
  00183	a5		 movsd
  00184	a5		 movsd

; 130  : 			vLinkPosOffset = pOwner->GetWorldOrientation() * vLinkPosOffset + pOwner->GetWorldPosition();

  00185	8b 7d c0	 mov	 edi, DWORD PTR _pOwner$[ebp]
  00188	8b 07		 mov	 eax, DWORD PTR [edi]
  0018a	83 c4 0c	 add	 esp, 12			; 0000000cH
  0018d	8b cf		 mov	 ecx, edi
  0018f	ff 50 70	 call	 DWORD PTR [eax+112]
  00192	8b f0		 mov	 esi, eax
  00194	8d 45 d8	 lea	 eax, DWORD PTR _vLinkPosOffset$[ebp]
  00197	50		 push	 eax
  00198	8b 07		 mov	 eax, DWORD PTR [edi]
  0019a	8b cf		 mov	 ecx, edi
  0019c	ff 50 74	 call	 DWORD PTR [eax+116]
  0019f	50		 push	 eax
  001a0	8d 45 cc	 lea	 eax, DWORD PTR $T530699[ebp]
  001a3	50		 push	 eax
  001a4	ff 15 00 00 00
	00		 call	 DWORD PTR __imp_??D@YA?AUD3DXVECTOR3@@ABUD3DXQUATERNION@@ABU0@@Z
  001aa	f3 0f 10 00	 movss	 xmm0, DWORD PTR [eax]
  001ae	f3 0f 10 0e	 movss	 xmm1, DWORD PTR [esi]
  001b2	f3 0f 10 50 04	 movss	 xmm2, DWORD PTR [eax+4]
  001b7	0f 5a c9	 cvtps2pd xmm1, xmm1
  001ba	0f 5a c0	 cvtps2pd xmm0, xmm0
  001bd	f2 0f 58 c1	 addsd	 xmm0, xmm1
  001c1	f3 0f 10 4e 04	 movss	 xmm1, DWORD PTR [esi+4]
  001c6	0f 5a c9	 cvtps2pd xmm1, xmm1
  001c9	0f 5a d2	 cvtps2pd xmm2, xmm2
  001cc	83 c4 0c	 add	 esp, 12			; 0000000cH
  001cf	66 0f 5a c0	 cvtpd2ps xmm0, xmm0
  001d3	f2 0f 58 ca	 addsd	 xmm1, xmm2
  001d7	f3 0f 10 56 08	 movss	 xmm2, DWORD PTR [esi+8]
  001dc	f3 0f 10 58 08	 movss	 xmm3, DWORD PTR [eax+8]
  001e1	0f 5a d2	 cvtps2pd xmm2, xmm2
  001e4	0f 5a db	 cvtps2pd xmm3, xmm3
  001e7	f2 0f 58 d3	 addsd	 xmm2, xmm3
  001eb	f3 0f 11 45 e4	 movss	 DWORD PTR $T530700[ebp], xmm0
  001f0	66 0f 5a c9	 cvtpd2ps xmm1, xmm1
  001f4	f3 0f 11 4d e8	 movss	 DWORD PTR $T530700[ebp+4], xmm1
  001f9	66 0f 5a d2	 cvtpd2ps xmm2, xmm2
  001fd	f3 0f 11 55 ec	 movss	 DWORD PTR $T530700[ebp+8], xmm2
  00202	8d 75 e4	 lea	 esi, DWORD PTR $T530700[ebp]
  00205	8d 7d d8	 lea	 edi, DWORD PTR _vLinkPosOffset$[ebp]
  00208	a5		 movsd
  00209	a5		 movsd

; 131  : 			SetPosition( vLinkPosOffset );

  0020a	8d 45 d8	 lea	 eax, DWORD PTR _vLinkPosOffset$[ebp]
  0020d	50		 push	 eax
  0020e	8b cb		 mov	 ecx, ebx
  00210	a5		 movsd
  00211	e8 00 00 00 00	 call	 ?SetPosition@ioWeapon@@QAEXABUD3DXVECTOR3@@@Z ; ioWeapon::SetPosition
$LN1@SetMesh:

; 132  : 		}
; 133  : 	}
; 134  : 
; 135  : 	m_pMissileMesh->UpdateBounds( true );

  00216	8b 8b e8 08 00
	00		 mov	 ecx, DWORD PTR [ebx+2280]
  0021c	83 c1 14	 add	 ecx, 20			; 00000014H
  0021f	8b 01		 mov	 eax, DWORD PTR [ecx]
  00221	6a 01		 push	 1
  00223	ff 50 44	 call	 DWORD PTR [eax+68]

; 136  : 	m_LocalAttackBox = m_pMissileMesh->GetCollisionBox();

  00226	8b 8b e8 08 00
	00		 mov	 ecx, DWORD PTR [ebx+2280]
  0022c	ff 15 00 00 00
	00		 call	 DWORD PTR __imp_?GetCollisionBox@ioEffect@@QBEABVioOrientBox@@XZ
  00232	6a 11		 push	 17			; 00000011H
  00234	8b f0		 mov	 esi, eax

; 137  : 
; 138  : 	m_vPrePos = GetPosition();

  00236	8b 03		 mov	 eax, DWORD PTR [ebx]
  00238	59		 pop	 ecx
  00239	8d bb 98 08 00
	00		 lea	 edi, DWORD PTR [ebx+2200]
  0023f	f3 a5		 rep movsd
  00241	8b cb		 mov	 ecx, ebx
  00243	ff 50 70	 call	 DWORD PTR [eax+112]

; 139  : 
; 140  : 	m_fDefaultGapHeight = fabs( m_vPrePos.y - pOwner->GetWorldPosition().y );

  00246	8b 4d c0	 mov	 ecx, DWORD PTR _pOwner$[ebp]
  00249	8b f0		 mov	 esi, eax
  0024b	8d bb 0c 09 00
	00		 lea	 edi, DWORD PTR [ebx+2316]
  00251	a5		 movsd
  00252	a5		 movsd
  00253	a5		 movsd
  00254	f3 0f 10 83 10
	09 00 00	 movss	 xmm0, DWORD PTR [ebx+2320]
  0025c	8b 01		 mov	 eax, DWORD PTR [ecx]
  0025e	0f 5a c0	 cvtps2pd xmm0, xmm0
  00261	f2 0f 11 45 e8	 movsd	 QWORD PTR tv391[ebp], xmm0
  00266	ff 50 70	 call	 DWORD PTR [eax+112]
  00269	f3 0f 10 40 04	 movss	 xmm0, DWORD PTR [eax+4]

; 141  : 
; 142  : 	AddEffectEvent( m_pMissileMesh );

  0026e	ff b3 e8 08 00
	00		 push	 DWORD PTR [ebx+2280]
  00274	8b 03		 mov	 eax, DWORD PTR [ebx]
  00276	0f 5a c8	 cvtps2pd xmm1, xmm0
  00279	f2 0f 10 45 e8	 movsd	 xmm0, QWORD PTR tv391[ebp]
  0027e	f2 0f 5c c1	 subsd	 xmm0, xmm1
  00282	66 0f 5a c0	 cvtpd2ps xmm0, xmm0
  00286	f3 0f 5a c0	 cvtss2sd xmm0, xmm0
  0028a	66 0f 54 05 00
	00 00 00	 andpd	 xmm0, QWORD PTR __mask@@AbsDouble@
  00292	f2 0f 5a c0	 cvtsd2ss xmm0, xmm0
  00296	8b cb		 mov	 ecx, ebx
  00298	f3 0f 11 83 18
	09 00 00	 movss	 DWORD PTR [ebx+2328], xmm0
  002a0	ff 90 68 01 00
	00		 call	 DWORD PTR [eax+360]

; 143  : 	return true;

  002a6	83 4d fc ff	 or	 DWORD PTR __$EHRec$[ebp+8], -1
  002aa	8d 4d b0	 lea	 ecx, DWORD PTR _szLinkBiped$[ebp]
  002ad	ff 15 00 00 00
	00		 call	 DWORD PTR __imp_??1ioHashString@@QAE@XZ
  002b3	b0 01		 mov	 al, 1
$LN5@SetMesh:

; 144  : }

  002b5	e8 00 00 00 00	 call	 __EH_epilog3_GS
  002ba	c2 04 00	 ret	 4
_TEXT	ENDS
;	COMDAT text$x
text$x	SEGMENT
__unwindfunclet$?SetMesh@ioControlMissileWeapon@@IAE_NABVioHashString@@@Z$0:
  00000	8d 4d b0	 lea	 ecx, DWORD PTR _szLinkBiped$[ebp]
  00003	ff 25 00 00 00
	00		 jmp	 DWORD PTR __imp_??1ioHashString@@QAE@XZ
__unwindfunclet$?SetMesh@ioControlMissileWeapon@@IAE_NABVioHashString@@@Z$1:
  00009	8b 45 ec	 mov	 eax, DWORD PTR $T533322[ebp]
  0000c	83 e0 01	 and	 eax, 1
  0000f	0f 84 0d 00 00
	00		 je	 $LN13@SetMesh
  00015	83 65 ec fe	 and	 DWORD PTR $T533322[ebp], -2 ; fffffffeH
  00019	8d 4d c8	 lea	 ecx, DWORD PTR $T533317[ebp]
  0001c	ff 25 00 00 00
	00		 jmp	 DWORD PTR __imp_??1ioHashString@@QAE@XZ
$LN13@SetMesh:
  00022	c3		 ret	 0
__ehhandler$?SetMesh@ioControlMissileWeapon@@IAE_NABVioHashString@@@Z:
  00023	8b 54 24 08	 mov	 edx, DWORD PTR [esp+8]
  00027	8d 42 0c	 lea	 eax, DWORD PTR [edx+12]
  0002a	8b 4a 9c	 mov	 ecx, DWORD PTR [edx-100]
  0002d	33 c8		 xor	 ecx, eax
  0002f	e8 00 00 00 00	 call	 @__security_check_cookie@4
  00034	8b 4a fc	 mov	 ecx, DWORD PTR [edx-4]
  00037	33 c8		 xor	 ecx, eax
  00039	e8 00 00 00 00	 call	 @__security_check_cookie@4
  0003e	b8 00 00 00 00	 mov	 eax, OFFSET __ehfuncinfo$?SetMesh@ioControlMissileWeapon@@IAE_NABVioHashString@@@Z
  00043	e9 00 00 00 00	 jmp	 ___CxxFrameHandler3
text$x	ENDS
?SetMesh@ioControlMissileWeapon@@IAE_NABVioHashString@@@Z ENDP ; ioControlMissileWeapon::SetMesh
PUBLIC	__$ArrayPad$
EXTRN	?SetOrientation@ioWeapon@@QAEXABUD3DXQUATERNION@@@Z:PROC ; ioWeapon::SetOrientation
EXTRN	__imp_?CalcDirectionQuaternion@ioMath@@SAXAAUD3DXQUATERNION@@ABUD3DXVECTOR3@@@Z:PROC
EXTRN	___security_cookie:DWORD
; Function compile flags: /Ogsp
;	COMDAT ?SetMoveDir@ioControlMissileWeapon@@UAEXABUD3DXVECTOR3@@@Z
_TEXT	SEGMENT
_qtRot$ = -32						; size = 16
$T530711 = -16						; size = 12
__$ArrayPad$ = -4					; size = 4
_vDir$ = 8						; size = 4
?SetMoveDir@ioControlMissileWeapon@@UAEXABUD3DXVECTOR3@@@Z PROC ; ioControlMissileWeapon::SetMoveDir, COMDAT
; _this$ = ecx

; 151  : {

  00000	55		 push	 ebp
  00001	8b ec		 mov	 ebp, esp
  00003	83 ec 20	 sub	 esp, 32			; 00000020H
  00006	a1 00 00 00 00	 mov	 eax, DWORD PTR ___security_cookie
  0000b	33 c5		 xor	 eax, ebp
  0000d	89 45 fc	 mov	 DWORD PTR __$ArrayPad$[ebp], eax
  00010	8b 45 08	 mov	 eax, DWORD PTR _vDir$[ebp]
  00013	53		 push	 ebx
  00014	56		 push	 esi
  00015	57		 push	 edi
  00016	8b d9		 mov	 ebx, ecx

; 152  : 	m_vMoveDir = vDir;

  00018	8b f0		 mov	 esi, eax
  0001a	8d bb dc 08 00
	00		 lea	 edi, DWORD PTR [ebx+2268]
  00020	a5		 movsd
  00021	a5		 movsd
  00022	a5		 movsd

; 153  : 
; 154  : 	D3DXQUATERNION qtRot;
; 155  : 	ioMath::CalcDirectionQuaternion( qtRot, -vDir );

  00023	f3 0f 10 08	 movss	 xmm1, DWORD PTR [eax]
  00027	f3 0f 10 05 00
	00 00 00	 movss	 xmm0, DWORD PTR __mask@@NegFloat@
  0002f	0f 57 c8	 xorps	 xmm1, xmm0
  00032	f3 0f 11 4d f0	 movss	 DWORD PTR $T530711[ebp], xmm1
  00037	f3 0f 10 48 04	 movss	 xmm1, DWORD PTR [eax+4]
  0003c	0f 57 c8	 xorps	 xmm1, xmm0
  0003f	f3 0f 11 4d f4	 movss	 DWORD PTR $T530711[ebp+4], xmm1
  00044	f3 0f 10 48 08	 movss	 xmm1, DWORD PTR [eax+8]
  00049	8d 45 f0	 lea	 eax, DWORD PTR $T530711[ebp]
  0004c	50		 push	 eax
  0004d	8d 45 e0	 lea	 eax, DWORD PTR _qtRot$[ebp]
  00050	0f 57 c8	 xorps	 xmm1, xmm0
  00053	50		 push	 eax
  00054	f3 0f 11 4d f8	 movss	 DWORD PTR $T530711[ebp+8], xmm1
  00059	ff 15 00 00 00
	00		 call	 DWORD PTR __imp_?CalcDirectionQuaternion@ioMath@@SAXAAUD3DXQUATERNION@@ABUD3DXVECTOR3@@@Z
  0005f	59		 pop	 ecx
  00060	59		 pop	 ecx

; 156  : 	SetOrientation( qtRot );

  00061	8d 45 e0	 lea	 eax, DWORD PTR _qtRot$[ebp]
  00064	50		 push	 eax
  00065	8b cb		 mov	 ecx, ebx
  00067	e8 00 00 00 00	 call	 ?SetOrientation@ioWeapon@@QAEXABUD3DXQUATERNION@@@Z ; ioWeapon::SetOrientation

; 157  : }

  0006c	8b 4d fc	 mov	 ecx, DWORD PTR __$ArrayPad$[ebp]
  0006f	5f		 pop	 edi
  00070	5e		 pop	 esi
  00071	33 cd		 xor	 ecx, ebp
  00073	5b		 pop	 ebx
  00074	e8 00 00 00 00	 call	 @__security_check_cookie@4
  00079	c9		 leave
  0007a	c2 04 00	 ret	 4
?SetMoveDir@ioControlMissileWeapon@@UAEXABUD3DXVECTOR3@@@Z ENDP ; ioControlMissileWeapon::SetMoveDir
_TEXT	ENDS
PUBLIC	_pShapeWorldMat$GSCopy$
PUBLIC	_pStage$GSCopy$
PUBLIC	__$ArrayPad$
EXTRN	??1SP2Packet@@UAE@XZ:PROC			; SP2Packet::~SP2Packet
EXTRN	?SendToAllPlayingUser@P2PNetwork@@YAXAAVSP2Packet@@PAVioBaseChar@@@Z:PROC ; P2PNetwork::SendToAllPlayingUser
EXTRN	??6SP2Packet@@QAEAAV0@H@Z:PROC			; SP2Packet::operator<<
EXTRN	??6SP2Packet@@QAEAAV0@K@Z:PROC			; SP2Packet::operator<<
EXTRN	??6SP2Packet@@QAEAAV0@ABVioHashString@@@Z:PROC	; SP2Packet::operator<<
EXTRN	??0SP2Packet@@QAE@K@Z:PROC			; SP2Packet::SP2Packet
EXTRN	?IsNetworkMode@ioPlayStage@@QAE_NXZ:PROC	; ioPlayStage::IsNetworkMode
EXTRN	?IsNetworkPlaying@P2PNetwork@@YA_NXZ:PROC	; P2PNetwork::IsNetworkPlaying
EXTRN	?GetWorldAttackBox@ioWeapon@@QBEABVioOrientBox@@_N@Z:PROC ; ioWeapon::GetWorldAttackBox
EXTRN	__chkstk:PROC
;	COMDAT xdata$x
; File d:\lost saga for developer\youtube\tutorial\source\src\lsclient\ioweapon.h
xdata$x	SEGMENT
__unwindtable$?TestMapCollision@ioControlMissileWeapon@@UAE_NPAVioOpcodeShape@@PAVioPlayStage@@PBUD3DXMATRIX@@@Z DD 0ffffffffH
	DD	FLAT:__unwindfunclet$?TestMapCollision@ioControlMissileWeapon@@UAE_NPAVioOpcodeShape@@PAVioPlayStage@@PBUD3DXMATRIX@@@Z$0
__ehfuncinfo$?TestMapCollision@ioControlMissileWeapon@@UAE_NPAVioOpcodeShape@@PAVioPlayStage@@PBUD3DXMATRIX@@@Z DD 019930522H
	DD	01H
	DD	FLAT:__unwindtable$?TestMapCollision@ioControlMissileWeapon@@UAE_NPAVioOpcodeShape@@PAVioPlayStage@@PBUD3DXMATRIX@@@Z
	DD	2 DUP(00H)
	DD	2 DUP(00H)
	DD	00H
	DD	01H
; Function compile flags: /Ogsp
; File d:\lost saga for developer\youtube\tutorial\source\src\lsclient\iocontrolmissileweapon.cpp
xdata$x	ENDS
;	COMDAT ?TestMapCollision@ioControlMissileWeapon@@UAE_NPAVioOpcodeShape@@PAVioPlayStage@@PBUD3DXMATRIX@@@Z
_TEXT	SEGMENT
_pShapeWorldMat$GSCopy$ = -32816			; size = 4
_pStage$GSCopy$ = -32812				; size = 4
_kPacket$530736 = -32808				; size = 32792
__$ArrayPad$ = -16					; size = 4
__$EHRec$ = -12						; size = 12
_pShape$ = 8						; size = 4
_pStage$ = 12						; size = 4
_pShapeWorldMat$ = 16					; size = 4
?TestMapCollision@ioControlMissileWeapon@@UAE_NPAVioOpcodeShape@@PAVioPlayStage@@PBUD3DXMATRIX@@@Z PROC ; ioControlMissileWeapon::TestMapCollision, COMDAT
; _this$ = ecx

; 180  : {

  00000	55		 push	 ebp
  00001	8b ec		 mov	 ebp, esp
  00003	6a ff		 push	 -1
  00005	68 00 00 00 00	 push	 __ehhandler$?TestMapCollision@ioControlMissileWeapon@@UAE_NPAVioOpcodeShape@@PAVioPlayStage@@PBUD3DXMATRIX@@@Z
  0000a	64 a1 00 00 00
	00		 mov	 eax, DWORD PTR fs:0
  00010	50		 push	 eax
  00011	b8 24 80 00 00	 mov	 eax, 32804		; 00008024H
  00016	e8 00 00 00 00	 call	 __chkstk
  0001b	a1 00 00 00 00	 mov	 eax, DWORD PTR ___security_cookie
  00020	33 c5		 xor	 eax, ebp
  00022	89 45 f0	 mov	 DWORD PTR __$ArrayPad$[ebp], eax
  00025	53		 push	 ebx
  00026	56		 push	 esi
  00027	57		 push	 edi
  00028	50		 push	 eax
  00029	8d 45 f4	 lea	 eax, DWORD PTR __$EHRec$[ebp]
  0002c	64 a3 00 00 00
	00		 mov	 DWORD PTR fs:0, eax
  00032	8b 45 0c	 mov	 eax, DWORD PTR _pStage$[ebp]
  00035	8b 75 08	 mov	 esi, DWORD PTR _pShape$[ebp]

; 181  : 	//pShape        TRUE
; 182  : 	//     1   N   TestMapCollision()   
; 183  : 	// 
; 184  : 	if( pShape->TestIntersection( pShapeWorldMat, GetWorldAttackBox(true) ) )

  00038	8b 3e		 mov	 edi, DWORD PTR [esi]

; 198  : 			SetWeaponDead();

  0003a	89 85 d4 7f ff
	ff		 mov	 DWORD PTR _pStage$GSCopy$[ebp], eax
  00040	8b 45 10	 mov	 eax, DWORD PTR _pShapeWorldMat$[ebp]
  00043	6a 01		 push	 1
  00045	8b d9		 mov	 ebx, ecx
  00047	89 85 d0 7f ff
	ff		 mov	 DWORD PTR _pShapeWorldMat$GSCopy$[ebp], eax
  0004d	e8 00 00 00 00	 call	 ?GetWorldAttackBox@ioWeapon@@QBEABVioOrientBox@@_N@Z ; ioWeapon::GetWorldAttackBox
  00052	50		 push	 eax
  00053	ff b5 d0 7f ff
	ff		 push	 DWORD PTR _pShapeWorldMat$GSCopy$[ebp]
  00059	8b ce		 mov	 ecx, esi
  0005b	ff 57 24	 call	 DWORD PTR [edi+36]
  0005e	84 c0		 test	 al, al
  00060	0f 84 a0 00 00
	00		 je	 $LN3@TestMapCol

; 185  : 	{
; 186  : 		ioBaseChar *pOwner = GetOwner();

  00066	8b cb		 mov	 ecx, ebx
  00068	e8 00 00 00 00	 call	 ?GetOwner@ioWeapon@@QBEPAVioBaseChar@@XZ ; ioWeapon::GetOwner

; 187  : 		if( pOwner && pOwner->IsNeedProcess() )

  0006d	85 c0		 test	 eax, eax
  0006f	0f 84 8d 00 00
	00		 je	 $LN2@TestMapCol
  00075	8b 10		 mov	 edx, DWORD PTR [eax]
  00077	8b c8		 mov	 ecx, eax
  00079	ff 92 00 01 00
	00		 call	 DWORD PTR [edx+256]
  0007f	84 c0		 test	 al, al
  00081	74 7f		 je	 SHORT $LN2@TestMapCol

; 188  : 		{
; 189  : 			// weapon dead
; 190  : 			if( P2PNetwork::IsNetworkPlaying() && pStage->IsNetworkMode() )

  00083	e8 00 00 00 00	 call	 ?IsNetworkPlaying@P2PNetwork@@YA_NXZ ; P2PNetwork::IsNetworkPlaying
  00088	84 c0		 test	 al, al
  0008a	74 6f		 je	 SHORT $LN1@TestMapCol
  0008c	8b 8d d4 7f ff
	ff		 mov	 ecx, DWORD PTR _pStage$GSCopy$[ebp]
  00092	e8 00 00 00 00	 call	 ?IsNetworkMode@ioPlayStage@@QAE_NXZ ; ioPlayStage::IsNetworkMode
  00097	84 c0		 test	 al, al
  00099	74 60		 je	 SHORT $LN1@TestMapCol

; 191  : 			{
; 192  : 				SP2Packet kPacket( CUPK_WEAPON_SYNC );

  0009b	68 16 42 00 00	 push	 16918			; 00004216H
  000a0	8d 8d d8 7f ff
	ff		 lea	 ecx, DWORD PTR _kPacket$530736[ebp]
  000a6	e8 00 00 00 00	 call	 ??0SP2Packet@@QAE@K@Z	; SP2Packet::SP2Packet
  000ab	83 65 fc 00	 and	 DWORD PTR __$EHRec$[ebp+8], 0

; 193  : 				kPacket << GetOwnerName();

  000af	8d 43 10	 lea	 eax, DWORD PTR [ebx+16]
  000b2	50		 push	 eax
  000b3	8d 8d d8 7f ff
	ff		 lea	 ecx, DWORD PTR _kPacket$530736[ebp]
  000b9	e8 00 00 00 00	 call	 ??6SP2Packet@@QAEAAV0@ABVioHashString@@@Z ; SP2Packet::operator<<

; 194  : 				kPacket << m_dwWeaponIdx;

  000be	ff b3 b8 04 00
	00		 push	 DWORD PTR [ebx+1208]
  000c4	8d 8d d8 7f ff
	ff		 lea	 ecx, DWORD PTR _kPacket$530736[ebp]
  000ca	e8 00 00 00 00	 call	 ??6SP2Packet@@QAEAAV0@K@Z ; SP2Packet::operator<<

; 195  : 				kPacket << STC_DIE;

  000cf	6a 04		 push	 4
  000d1	8d 8d d8 7f ff
	ff		 lea	 ecx, DWORD PTR _kPacket$530736[ebp]
  000d7	e8 00 00 00 00	 call	 ??6SP2Packet@@QAEAAV0@H@Z ; SP2Packet::operator<<

; 196  : 				P2PNetwork::SendToAllPlayingUser( kPacket );

  000dc	8d 85 d8 7f ff
	ff		 lea	 eax, DWORD PTR _kPacket$530736[ebp]
  000e2	6a 00		 push	 0
  000e4	50		 push	 eax
  000e5	e8 00 00 00 00	 call	 ?SendToAllPlayingUser@P2PNetwork@@YAXAAVSP2Packet@@PAVioBaseChar@@@Z ; P2PNetwork::SendToAllPlayingUser

; 197  : 			}

  000ea	83 4d fc ff	 or	 DWORD PTR __$EHRec$[ebp+8], -1
  000ee	59		 pop	 ecx
  000ef	59		 pop	 ecx
  000f0	8d 8d d8 7f ff
	ff		 lea	 ecx, DWORD PTR _kPacket$530736[ebp]
  000f6	e8 00 00 00 00	 call	 ??1SP2Packet@@UAE@XZ	; SP2Packet::~SP2Packet
$LN1@TestMapCol:

; 198  : 			SetWeaponDead();

  000fb	8b 03		 mov	 eax, DWORD PTR [ebx]
  000fd	8b cb		 mov	 ecx, ebx
  000ff	ff 50 4c	 call	 DWORD PTR [eax+76]
$LN2@TestMapCol:

; 199  : 		}
; 200  : 		return true;

  00102	b0 01		 mov	 al, 1
  00104	eb 02		 jmp	 SHORT $LN4@TestMapCol
$LN3@TestMapCol:

; 201  : 	}
; 202  : 
; 203  : 	return false;

  00106	32 c0		 xor	 al, al
$LN4@TestMapCol:

; 204  : }

  00108	8b 4d f4	 mov	 ecx, DWORD PTR __$EHRec$[ebp]
  0010b	64 89 0d 00 00
	00 00		 mov	 DWORD PTR fs:0, ecx
  00112	59		 pop	 ecx
  00113	5f		 pop	 edi
  00114	5e		 pop	 esi
  00115	5b		 pop	 ebx
  00116	8b 4d f0	 mov	 ecx, DWORD PTR __$ArrayPad$[ebp]
  00119	33 cd		 xor	 ecx, ebp
  0011b	e8 00 00 00 00	 call	 @__security_check_cookie@4
  00120	c9		 leave
  00121	c2 0c 00	 ret	 12			; 0000000cH
_TEXT	ENDS
;	COMDAT text$x
text$x	SEGMENT
__unwindfunclet$?TestMapCollision@ioControlMissileWeapon@@UAE_NPAVioOpcodeShape@@PAVioPlayStage@@PBUD3DXMATRIX@@@Z$0:
  00000	8d 8d d8 7f ff
	ff		 lea	 ecx, DWORD PTR _kPacket$530736[ebp]
  00006	e9 00 00 00 00	 jmp	 ??1SP2Packet@@UAE@XZ	; SP2Packet::~SP2Packet
__ehhandler$?TestMapCollision@ioControlMissileWeapon@@UAE_NPAVioOpcodeShape@@PAVioPlayStage@@PBUD3DXMATRIX@@@Z:
  0000b	8b 54 24 08	 mov	 edx, DWORD PTR [esp+8]
  0000f	8d 42 0c	 lea	 eax, DWORD PTR [edx+12]
  00012	8b 8a cc 7f ff
	ff		 mov	 ecx, DWORD PTR [edx-32820]
  00018	33 c8		 xor	 ecx, eax
  0001a	e8 00 00 00 00	 call	 @__security_check_cookie@4
  0001f	8b 4a fc	 mov	 ecx, DWORD PTR [edx-4]
  00022	33 c8		 xor	 ecx, eax
  00024	e8 00 00 00 00	 call	 @__security_check_cookie@4
  00029	b8 00 00 00 00	 mov	 eax, OFFSET __ehfuncinfo$?TestMapCollision@ioControlMissileWeapon@@UAE_NPAVioOpcodeShape@@PAVioPlayStage@@PBUD3DXMATRIX@@@Z
  0002e	e9 00 00 00 00	 jmp	 ___CxxFrameHandler3
text$x	ENDS
?TestMapCollision@ioControlMissileWeapon@@UAE_NPAVioOpcodeShape@@PAVioPlayStage@@PBUD3DXMATRIX@@@Z ENDP ; ioControlMissileWeapon::TestMapCollision
PUBLIC	_bMapCollision$GSCopy$
PUBLIC	__$ArrayPad$
EXTRN	??6SP2Packet@@QAEAAV0@ABUD3DXQUATERNION@@@Z:PROC ; SP2Packet::operator<<
EXTRN	?GetOrientation@ioWeapon@@QBEABUD3DXQUATERNION@@XZ:PROC ; ioWeapon::GetOrientation
EXTRN	??6SP2Packet@@QAEAAV0@ABUD3DXVECTOR3@@@Z:PROC	; SP2Packet::operator<<
;	COMDAT xdata$x
; File d:\lost saga for developer\youtube\tutorial\source\src\lsclient\ioweapon.h
xdata$x	SEGMENT
__unwindtable$?IsCollision@ioControlMissileWeapon@@UAE_NPAVioPlayEntity@@_N@Z DD 0ffffffffH
	DD	FLAT:__unwindfunclet$?IsCollision@ioControlMissileWeapon@@UAE_NPAVioPlayEntity@@_N@Z$0
__ehfuncinfo$?IsCollision@ioControlMissileWeapon@@UAE_NPAVioPlayEntity@@_N@Z DD 019930522H
	DD	01H
	DD	FLAT:__unwindtable$?IsCollision@ioControlMissileWeapon@@UAE_NPAVioPlayEntity@@_N@Z
	DD	2 DUP(00H)
	DD	2 DUP(00H)
	DD	00H
	DD	01H
; Function compile flags: /Ogsp
; File d:\lost saga for developer\youtube\tutorial\source\src\lsclient\iocontrolmissileweapon.cpp
xdata$x	ENDS
;	COMDAT ?IsCollision@ioControlMissileWeapon@@UAE_NPAVioPlayEntity@@_N@Z
_TEXT	SEGMENT
_bMapCollision$GSCopy$ = -32840				; size = 1
_bCollision$ = -32836					; size = 1
_kPacket$530945 = -32832				; size = 32792
$T530946 = -40						; size = 12
_vColPoint$ = -28					; size = 12
__$ArrayPad$ = -16					; size = 4
__$EHRec$ = -12						; size = 12
_pEntity$ = 8						; size = 4
_bMapCollision$ = 12					; size = 1
?IsCollision@ioControlMissileWeapon@@UAE_NPAVioPlayEntity@@_N@Z PROC ; ioControlMissileWeapon::IsCollision, COMDAT
; _this$ = ecx

; 599  : {

  00000	55		 push	 ebp
  00001	8b ec		 mov	 ebp, esp
  00003	6a ff		 push	 -1
  00005	68 00 00 00 00	 push	 __ehhandler$?IsCollision@ioControlMissileWeapon@@UAE_NPAVioPlayEntity@@_N@Z
  0000a	64 a1 00 00 00
	00		 mov	 eax, DWORD PTR fs:0
  00010	50		 push	 eax
  00011	b8 3c 80 00 00	 mov	 eax, 32828		; 0000803cH
  00016	e8 00 00 00 00	 call	 __chkstk
  0001b	a1 00 00 00 00	 mov	 eax, DWORD PTR ___security_cookie
  00020	33 c5		 xor	 eax, ebp
  00022	89 45 f0	 mov	 DWORD PTR __$ArrayPad$[ebp], eax
  00025	53		 push	 ebx
  00026	56		 push	 esi
  00027	57		 push	 edi
  00028	50		 push	 eax
  00029	8d 45 f4	 lea	 eax, DWORD PTR __$EHRec$[ebp]
  0002c	64 a3 00 00 00
	00		 mov	 DWORD PTR fs:0, eax
  00032	8b 7d 08	 mov	 edi, DWORD PTR _pEntity$[ebp]

; 600  : 	bool bCollision = false;
; 601  : 
; 602  : 	if( ToBaseChar(pEntity) && !ToBaseChar(pEntity)->IsNeedProcess() )

  00035	8a 45 0c	 mov	 al, BYTE PTR _bMapCollision$[ebp]
  00038	57		 push	 edi
  00039	8b f1		 mov	 esi, ecx
  0003b	88 85 b8 7f ff
	ff		 mov	 BYTE PTR _bMapCollision$GSCopy$[ebp], al
  00041	c6 85 bc 7f ff
	ff 00		 mov	 BYTE PTR _bCollision$[ebp], 0
  00048	e8 00 00 00 00	 call	 ?ToBaseChar@@YAPAVioBaseChar@@PAVioGameEntity@@@Z ; ToBaseChar
  0004d	59		 pop	 ecx
  0004e	85 c0		 test	 eax, eax
  00050	74 19		 je	 SHORT $LN5@IsCollisio
  00052	57		 push	 edi
  00053	e8 00 00 00 00	 call	 ?ToBaseChar@@YAPAVioBaseChar@@PAVioGameEntity@@@Z ; ToBaseChar
  00058	8b 10		 mov	 edx, DWORD PTR [eax]
  0005a	59		 pop	 ecx
  0005b	8b c8		 mov	 ecx, eax
  0005d	ff 92 00 01 00
	00		 call	 DWORD PTR [edx+256]
  00063	84 c0		 test	 al, al
  00065	0f 84 6a 01 00
	00		 je	 $LN6@IsCollisio
$LN5@IsCollisio:

; 603  : 		return false;
; 604  : 
; 605  : 	D3DXVECTOR3 vColPoint( 0.0f, 0.0f, 0.0f );

  0006b	0f 57 c0	 xorps	 xmm0, xmm0

; 606  : 	if( pEntity->IsWoundedCollision( GetWorldAttackBox(bMapCollision), &vColPoint ) )

  0006e	8b 1f		 mov	 ebx, DWORD PTR [edi]
  00070	8d 45 e4	 lea	 eax, DWORD PTR _vColPoint$[ebp]
  00073	50		 push	 eax
  00074	ff b5 b8 7f ff
	ff		 push	 DWORD PTR _bMapCollision$GSCopy$[ebp]
  0007a	8b ce		 mov	 ecx, esi
  0007c	f3 0f 11 45 e4	 movss	 DWORD PTR _vColPoint$[ebp], xmm0
  00081	f3 0f 11 45 e8	 movss	 DWORD PTR _vColPoint$[ebp+4], xmm0
  00086	f3 0f 11 45 ec	 movss	 DWORD PTR _vColPoint$[ebp+8], xmm0
  0008b	e8 00 00 00 00	 call	 ?GetWorldAttackBox@ioWeapon@@QBEABVioOrientBox@@_N@Z ; ioWeapon::GetWorldAttackBox
  00090	50		 push	 eax
  00091	8b cf		 mov	 ecx, edi
  00093	ff 93 90 00 00
	00		 call	 DWORD PTR [ebx+144]
  00099	84 c0		 test	 al, al
  0009b	74 07		 je	 SHORT $LN4@IsCollisio

; 607  : 		bCollision = true;

  0009d	c6 85 bc 7f ff
	ff 01		 mov	 BYTE PTR _bCollision$[ebp], 1
$LN4@IsCollisio:

; 608  : 
; 609  : 	CheckPiercing( bCollision );

  000a4	ff b5 bc 7f ff
	ff		 push	 DWORD PTR _bCollision$[ebp]
  000aa	8b 06		 mov	 eax, DWORD PTR [esi]
  000ac	8b ce		 mov	 ecx, esi
  000ae	ff 90 48 01 00
	00		 call	 DWORD PTR [eax+328]

; 610  : 
; 611  : 	if( bCollision && m_bEnableCollisionReturn )

  000b4	80 bd bc 7f ff
	ff 00		 cmp	 BYTE PTR _bCollision$[ebp], 0
  000bb	0f 84 0e 01 00
	00		 je	 $LN1@IsCollisio
  000c1	80 be 44 09 00
	00 00		 cmp	 BYTE PTR [esi+2372], 0
  000c8	0f 84 01 01 00
	00		 je	 $LN1@IsCollisio

; 612  : 	{
; 613  : 		if( ToBaseChar(pEntity) && ToBaseChar(pEntity)->IsNeedProcess() )

  000ce	57		 push	 edi
  000cf	e8 00 00 00 00	 call	 ?ToBaseChar@@YAPAVioBaseChar@@PAVioGameEntity@@@Z ; ToBaseChar
  000d4	59		 pop	 ecx
  000d5	85 c0		 test	 eax, eax
  000d7	0f 84 f2 00 00
	00		 je	 $LN1@IsCollisio
  000dd	57		 push	 edi
  000de	e8 00 00 00 00	 call	 ?ToBaseChar@@YAPAVioBaseChar@@PAVioGameEntity@@@Z ; ToBaseChar
  000e3	8b 10		 mov	 edx, DWORD PTR [eax]
  000e5	59		 pop	 ecx
  000e6	8b c8		 mov	 ecx, eax
  000e8	ff 92 00 01 00
	00		 call	 DWORD PTR [edx+256]
  000ee	84 c0		 test	 al, al
  000f0	0f 84 d9 00 00
	00		 je	 $LN1@IsCollisio

; 614  : 		{
; 615  : 			ChangeToReturnState();

  000f6	8b ce		 mov	 ecx, esi
  000f8	e8 00 00 00 00	 call	 ?ChangeToReturnState@ioControlMissileWeapon@@IAEXXZ ; ioControlMissileWeapon::ChangeToReturnState

; 616  : 
; 617  : 			if( ToBaseChar(pEntity)->IsNeedSendNetwork() )

  000fd	57		 push	 edi
  000fe	e8 00 00 00 00	 call	 ?ToBaseChar@@YAPAVioBaseChar@@PAVioGameEntity@@@Z ; ToBaseChar
  00103	8b 10		 mov	 edx, DWORD PTR [eax]
  00105	59		 pop	 ecx
  00106	8b c8		 mov	 ecx, eax
  00108	ff 92 04 01 00
	00		 call	 DWORD PTR [edx+260]
  0010e	84 c0		 test	 al, al
  00110	0f 84 b9 00 00
	00		 je	 $LN1@IsCollisio

; 618  : 			{
; 619  : 				SP2Packet kPacket( CUPK_WEAPON_SYNC );

  00116	68 16 42 00 00	 push	 16918			; 00004216H
  0011b	8d 8d c0 7f ff
	ff		 lea	 ecx, DWORD PTR _kPacket$530945[ebp]
  00121	e8 00 00 00 00	 call	 ??0SP2Packet@@QAE@K@Z	; SP2Packet::SP2Packet
  00126	83 65 fc 00	 and	 DWORD PTR __$EHRec$[ebp+8], 0

; 620  : 				kPacket << GetOwnerName();

  0012a	8d 46 10	 lea	 eax, DWORD PTR [esi+16]
  0012d	50		 push	 eax
  0012e	8d 8d c0 7f ff
	ff		 lea	 ecx, DWORD PTR _kPacket$530945[ebp]
  00134	e8 00 00 00 00	 call	 ??6SP2Packet@@QAEAAV0@ABVioHashString@@@Z ; SP2Packet::operator<<

; 621  : 				kPacket << m_dwWeaponIdx;

  00139	ff b6 b8 04 00
	00		 push	 DWORD PTR [esi+1208]
  0013f	8d 8d c0 7f ff
	ff		 lea	 ecx, DWORD PTR _kPacket$530945[ebp]
  00145	e8 00 00 00 00	 call	 ??6SP2Packet@@QAEAAV0@K@Z ; SP2Packet::operator<<

; 622  : 				kPacket << STC_RETURN;

  0014a	6a 05		 push	 5
  0014c	8d 8d c0 7f ff
	ff		 lea	 ecx, DWORD PTR _kPacket$530945[ebp]
  00152	e8 00 00 00 00	 call	 ??6SP2Packet@@QAEAAV0@H@Z ; SP2Packet::operator<<

; 623  : 				kPacket << GetPosition();

  00157	8b 06		 mov	 eax, DWORD PTR [esi]
  00159	8b ce		 mov	 ecx, esi
  0015b	ff 50 70	 call	 DWORD PTR [eax+112]
  0015e	50		 push	 eax
  0015f	8d 8d c0 7f ff
	ff		 lea	 ecx, DWORD PTR _kPacket$530945[ebp]
  00165	e8 00 00 00 00	 call	 ??6SP2Packet@@QAEAAV0@ABUD3DXVECTOR3@@@Z ; SP2Packet::operator<<

; 624  : 				kPacket << GetOrientation();

  0016a	8b ce		 mov	 ecx, esi
  0016c	e8 00 00 00 00	 call	 ?GetOrientation@ioWeapon@@QBEABUD3DXQUATERNION@@XZ ; ioWeapon::GetOrientation
  00171	50		 push	 eax
  00172	8d 8d c0 7f ff
	ff		 lea	 ecx, DWORD PTR _kPacket$530945[ebp]
  00178	e8 00 00 00 00	 call	 ??6SP2Packet@@QAEAAV0@ABUD3DXQUATERNION@@@Z ; SP2Packet::operator<<

; 625  : 				kPacket << GetMoveDir();

  0017d	8b 06		 mov	 eax, DWORD PTR [esi]
  0017f	8d 4d d8	 lea	 ecx, DWORD PTR $T530946[ebp]
  00182	51		 push	 ecx
  00183	8b ce		 mov	 ecx, esi
  00185	ff 90 08 01 00
	00		 call	 DWORD PTR [eax+264]
  0018b	50		 push	 eax
  0018c	8d 8d c0 7f ff
	ff		 lea	 ecx, DWORD PTR _kPacket$530945[ebp]
  00192	e8 00 00 00 00	 call	 ??6SP2Packet@@QAEAAV0@ABUD3DXVECTOR3@@@Z ; SP2Packet::operator<<

; 626  : 				P2PNetwork::SendToAllPlayingUser( kPacket );

  00197	8d 85 c0 7f ff
	ff		 lea	 eax, DWORD PTR _kPacket$530945[ebp]
  0019d	6a 00		 push	 0
  0019f	50		 push	 eax
  001a0	e8 00 00 00 00	 call	 ?SendToAllPlayingUser@P2PNetwork@@YAXAAVSP2Packet@@PAVioBaseChar@@@Z ; P2PNetwork::SendToAllPlayingUser
  001a5	59		 pop	 ecx
  001a6	59		 pop	 ecx

; 627  : 
; 628  : 				m_dwSyncTime = FRAMEGETTIME() + 200;

  001a7	ff 15 00 00 00
	00		 call	 DWORD PTR __imp_?GetSingleton@ioFrameTimer@@SAAAV1@XZ
  001ad	8b c8		 mov	 ecx, eax
  001af	ff 15 00 00 00
	00		 call	 DWORD PTR __imp_?GetLoopSec@ioFrameTimer@@QBEKXZ

; 629  : 			}

  001b5	83 4d fc ff	 or	 DWORD PTR __$EHRec$[ebp+8], -1
  001b9	05 c8 00 00 00	 add	 eax, 200		; 000000c8H
  001be	8d 8d c0 7f ff
	ff		 lea	 ecx, DWORD PTR _kPacket$530945[ebp]
  001c4	89 86 30 09 00
	00		 mov	 DWORD PTR [esi+2352], eax
  001ca	e8 00 00 00 00	 call	 ??1SP2Packet@@UAE@XZ	; SP2Packet::~SP2Packet
$LN1@IsCollisio:

; 630  : 		}
; 631  : 	}
; 632  : 
; 633  : 	return bCollision;

  001cf	8a 85 bc 7f ff
	ff		 mov	 al, BYTE PTR _bCollision$[ebp]
$LN6@IsCollisio:

; 634  : }

  001d5	8b 4d f4	 mov	 ecx, DWORD PTR __$EHRec$[ebp]
  001d8	64 89 0d 00 00
	00 00		 mov	 DWORD PTR fs:0, ecx
  001df	59		 pop	 ecx
  001e0	5f		 pop	 edi
  001e1	5e		 pop	 esi
  001e2	5b		 pop	 ebx
  001e3	8b 4d f0	 mov	 ecx, DWORD PTR __$ArrayPad$[ebp]
  001e6	33 cd		 xor	 ecx, ebp
  001e8	e8 00 00 00 00	 call	 @__security_check_cookie@4
  001ed	c9		 leave
  001ee	c2 08 00	 ret	 8
_TEXT	ENDS
;	COMDAT text$x
text$x	SEGMENT
__unwindfunclet$?IsCollision@ioControlMissileWeapon@@UAE_NPAVioPlayEntity@@_N@Z$0:
  00000	8d 8d c0 7f ff
	ff		 lea	 ecx, DWORD PTR _kPacket$530945[ebp]
  00006	e9 00 00 00 00	 jmp	 ??1SP2Packet@@UAE@XZ	; SP2Packet::~SP2Packet
__ehhandler$?IsCollision@ioControlMissileWeapon@@UAE_NPAVioPlayEntity@@_N@Z:
  0000b	8b 54 24 08	 mov	 edx, DWORD PTR [esp+8]
  0000f	8d 42 0c	 lea	 eax, DWORD PTR [edx+12]
  00012	8b 8a b4 7f ff
	ff		 mov	 ecx, DWORD PTR [edx-32844]
  00018	33 c8		 xor	 ecx, eax
  0001a	e8 00 00 00 00	 call	 @__security_check_cookie@4
  0001f	8b 4a fc	 mov	 ecx, DWORD PTR [edx-4]
  00022	33 c8		 xor	 ecx, eax
  00024	e8 00 00 00 00	 call	 @__security_check_cookie@4
  00029	b8 00 00 00 00	 mov	 eax, OFFSET __ehfuncinfo$?IsCollision@ioControlMissileWeapon@@UAE_NPAVioPlayEntity@@_N@Z
  0002e	e9 00 00 00 00	 jmp	 ___CxxFrameHandler3
text$x	ENDS
?IsCollision@ioControlMissileWeapon@@UAE_NPAVioPlayEntity@@_N@Z ENDP ; ioControlMissileWeapon::IsCollision
PUBLIC	__$ArrayPad$
EXTRN	??5SP2Packet@@QAEAAV0@AAUD3DXQUATERNION@@@Z:PROC ; SP2Packet::operator>>
EXTRN	??5SP2Packet@@QAEAAV0@AAUD3DXVECTOR3@@@Z:PROC	; SP2Packet::operator>>
EXTRN	??5SP2Packet@@QAEAAV0@AAH@Z:PROC		; SP2Packet::operator>>
; Function compile flags: /Ogsp
;	COMDAT ?ApplyWeaponSync@ioControlMissileWeapon@@UAEXAAVSP2Packet@@PAVioPlayStage@@@Z
_TEXT	SEGMENT
_qtRot$531065 = -52					; size = 16
_qtRot$531057 = -52					; size = 16
_qtRot$531051 = -52					; size = 16
_iState$531052 = -36					; size = 4
_iSyncType$ = -32					; size = 4
_vPos$531063 = -28					; size = 12
_vDir$531056 = -28					; size = 12
_vPos$531049 = -28					; size = 12
_vDir$531064 = -16					; size = 12
_vPos$531055 = -16					; size = 12
_vDir$531050 = -16					; size = 12
__$ArrayPad$ = -4					; size = 4
_rkPacket$ = 8						; size = 4
_pStage$ = 12						; size = 4
?ApplyWeaponSync@ioControlMissileWeapon@@UAEXAAVSP2Packet@@PAVioPlayStage@@@Z PROC ; ioControlMissileWeapon::ApplyWeaponSync, COMDAT
; _this$ = ecx

; 799  : {

  00000	55		 push	 ebp
  00001	8b ec		 mov	 ebp, esp
  00003	83 ec 34	 sub	 esp, 52			; 00000034H
  00006	a1 00 00 00 00	 mov	 eax, DWORD PTR ___security_cookie
  0000b	33 c5		 xor	 eax, ebp
  0000d	89 45 fc	 mov	 DWORD PTR __$ArrayPad$[ebp], eax
  00010	53		 push	 ebx
  00011	56		 push	 esi
  00012	8b 75 08	 mov	 esi, DWORD PTR _rkPacket$[ebp]
  00015	57		 push	 edi

; 800  : 	int iSyncType;
; 801  : 	rkPacket >> iSyncType;

  00016	8d 45 e0	 lea	 eax, DWORD PTR _iSyncType$[ebp]
  00019	8b d9		 mov	 ebx, ecx
  0001b	50		 push	 eax
  0001c	8b ce		 mov	 ecx, esi
  0001e	e8 00 00 00 00	 call	 ??5SP2Packet@@QAEAAV0@AAH@Z ; SP2Packet::operator>>

; 802  : 
; 803  : 	switch( iSyncType )

  00023	8b 45 e0	 mov	 eax, DWORD PTR _iSyncType$[ebp]
  00026	48		 dec	 eax
  00027	0f 84 bb 00 00
	00		 je	 $LN5@ApplyWeapo
  0002d	48		 dec	 eax
  0002e	0f 84 ab 00 00
	00		 je	 $LN3@ApplyWeapo
  00034	48		 dec	 eax
  00035	74 65		 je	 SHORT $LN2@ApplyWeapo
  00037	48		 dec	 eax
  00038	74 56		 je	 SHORT $LN1@ApplyWeapo
  0003a	48		 dec	 eax
  0003b	0f 85 fe 00 00
	00		 jne	 $LN6@ApplyWeapo

; 820  : 		}
; 821  : 		break;
; 822  : 	case STC_RETURN:
; 823  : 		{
; 824  : 			D3DXVECTOR3 vPos, vDir;
; 825  : 			D3DXQUATERNION qtRot;
; 826  : 
; 827  : 			rkPacket >> vPos >> qtRot >> vDir;

  00041	8d 45 e4	 lea	 eax, DWORD PTR _vDir$531056[ebp]
  00044	50		 push	 eax
  00045	8d 45 cc	 lea	 eax, DWORD PTR _qtRot$531057[ebp]
  00048	50		 push	 eax
  00049	8d 45 f0	 lea	 eax, DWORD PTR _vPos$531055[ebp]
  0004c	50		 push	 eax
  0004d	8b ce		 mov	 ecx, esi
  0004f	e8 00 00 00 00	 call	 ??5SP2Packet@@QAEAAV0@AAUD3DXVECTOR3@@@Z ; SP2Packet::operator>>
  00054	8b c8		 mov	 ecx, eax
  00056	e8 00 00 00 00	 call	 ??5SP2Packet@@QAEAAV0@AAUD3DXQUATERNION@@@Z ; SP2Packet::operator>>
  0005b	8b c8		 mov	 ecx, eax
  0005d	e8 00 00 00 00	 call	 ??5SP2Packet@@QAEAAV0@AAUD3DXVECTOR3@@@Z ; SP2Packet::operator>>

; 828  : 
; 829  : 			SetPosition( vPos );

  00062	8d 45 f0	 lea	 eax, DWORD PTR _vPos$531055[ebp]
  00065	50		 push	 eax
  00066	8b cb		 mov	 ecx, ebx
  00068	e8 00 00 00 00	 call	 ?SetPosition@ioWeapon@@QAEXABUD3DXVECTOR3@@@Z ; ioWeapon::SetPosition

; 830  : 			SetOrientation( qtRot );

  0006d	8d 45 cc	 lea	 eax, DWORD PTR _qtRot$531057[ebp]
  00070	50		 push	 eax
  00071	8b cb		 mov	 ecx, ebx
  00073	e8 00 00 00 00	 call	 ?SetOrientation@ioWeapon@@QAEXABUD3DXQUATERNION@@@Z ; ioWeapon::SetOrientation

; 831  : 			m_vMoveDir = vDir;

  00078	8d bb dc 08 00
	00		 lea	 edi, DWORD PTR [ebx+2268]
  0007e	8d 75 e4	 lea	 esi, DWORD PTR _vDir$531056[ebp]
  00081	a5		 movsd
  00082	a5		 movsd

; 832  : 
; 833  : 			ChangeToReturnState();

  00083	8b cb		 mov	 ecx, ebx
  00085	a5		 movsd
  00086	e8 00 00 00 00	 call	 ?ChangeToReturnState@ioControlMissileWeapon@@IAEXXZ ; ioControlMissileWeapon::ChangeToReturnState

; 834  : 		}
; 835  : 		break;

  0008b	e9 af 00 00 00	 jmp	 $LN6@ApplyWeapo
$LN1@ApplyWeapo:

; 864  : 	case STC_DIE:
; 865  : 		SetWeaponDead();

  00090	8b 03		 mov	 eax, DWORD PTR [ebx]
  00092	8b cb		 mov	 ecx, ebx
  00094	ff 50 4c	 call	 DWORD PTR [eax+76]

; 866  : 		break;

  00097	e9 a3 00 00 00	 jmp	 $LN6@ApplyWeapo
$LN2@ApplyWeapo:

; 850  : 	case STC_OUT:
; 851  : 		{
; 852  : 			m_ControlState = CTS_OUT_RANGE;

  0009c	c7 83 94 08 00
	00 01 00 00 00	 mov	 DWORD PTR [ebx+2196], 1
$LN35@ApplyWeapo:

; 853  : 
; 854  : 			D3DXVECTOR3 vPos, vDir;
; 855  : 			D3DXQUATERNION qtRot;
; 856  : 
; 857  : 			rkPacket >> vPos >> qtRot >> vDir;

  000a6	8d 45 f0	 lea	 eax, DWORD PTR _vDir$531064[ebp]
  000a9	50		 push	 eax
  000aa	8d 45 cc	 lea	 eax, DWORD PTR _qtRot$531065[ebp]
  000ad	50		 push	 eax
  000ae	8d 45 e4	 lea	 eax, DWORD PTR _vPos$531063[ebp]
  000b1	50		 push	 eax
  000b2	8b ce		 mov	 ecx, esi
  000b4	e8 00 00 00 00	 call	 ??5SP2Packet@@QAEAAV0@AAUD3DXVECTOR3@@@Z ; SP2Packet::operator>>
  000b9	8b c8		 mov	 ecx, eax
  000bb	e8 00 00 00 00	 call	 ??5SP2Packet@@QAEAAV0@AAUD3DXQUATERNION@@@Z ; SP2Packet::operator>>
  000c0	8b c8		 mov	 ecx, eax
  000c2	e8 00 00 00 00	 call	 ??5SP2Packet@@QAEAAV0@AAUD3DXVECTOR3@@@Z ; SP2Packet::operator>>

; 858  : 
; 859  : 			SetPosition( vPos );

  000c7	8d 45 e4	 lea	 eax, DWORD PTR _vPos$531063[ebp]
  000ca	50		 push	 eax
  000cb	8b cb		 mov	 ecx, ebx
  000cd	e8 00 00 00 00	 call	 ?SetPosition@ioWeapon@@QAEXABUD3DXVECTOR3@@@Z ; ioWeapon::SetPosition

; 860  : 			SetOrientation( qtRot );

  000d2	8d 45 cc	 lea	 eax, DWORD PTR _qtRot$531065[ebp]
  000d5	50		 push	 eax
  000d6	8b cb		 mov	 ecx, ebx
  000d8	e8 00 00 00 00	 call	 ?SetOrientation@ioWeapon@@QAEXABUD3DXQUATERNION@@@Z ; ioWeapon::SetOrientation

; 861  : 			m_vMoveDir = vDir;
; 862  : 		}
; 863  : 		break;

  000dd	eb 54		 jmp	 SHORT $LN34@ApplyWeapo
$LN3@ApplyWeapo:

; 836  : 	case STC_IN:
; 837  : 		{
; 838  : 			m_ControlState = CTS_IN_RANGE;

  000df	83 a3 94 08 00
	00 00		 and	 DWORD PTR [ebx+2196], 0

; 839  : 
; 840  : 			D3DXVECTOR3 vPos, vDir;
; 841  : 			D3DXQUATERNION qtRot;
; 842  : 
; 843  : 			rkPacket >> vPos >> qtRot >> vDir;
; 844  : 
; 845  : 			SetPosition( vPos );
; 846  : 			SetOrientation( qtRot );
; 847  : 			m_vMoveDir = vDir;
; 848  : 		}
; 849  : 		break;

  000e6	eb be		 jmp	 SHORT $LN35@ApplyWeapo
$LN5@ApplyWeapo:

; 804  : 	{
; 805  : 	case STC_SYNC:
; 806  : 		{
; 807  : 			D3DXVECTOR3 vPos, vDir;
; 808  : 			D3DXQUATERNION qtRot;
; 809  : 
; 810  : 			rkPacket >> vPos >> qtRot >> vDir;

  000e8	8d 45 f0	 lea	 eax, DWORD PTR _vDir$531050[ebp]
  000eb	50		 push	 eax
  000ec	8d 45 cc	 lea	 eax, DWORD PTR _qtRot$531051[ebp]
  000ef	50		 push	 eax
  000f0	8d 45 e4	 lea	 eax, DWORD PTR _vPos$531049[ebp]
  000f3	50		 push	 eax
  000f4	8b ce		 mov	 ecx, esi
  000f6	e8 00 00 00 00	 call	 ??5SP2Packet@@QAEAAV0@AAUD3DXVECTOR3@@@Z ; SP2Packet::operator>>
  000fb	8b c8		 mov	 ecx, eax
  000fd	e8 00 00 00 00	 call	 ??5SP2Packet@@QAEAAV0@AAUD3DXQUATERNION@@@Z ; SP2Packet::operator>>
  00102	8b c8		 mov	 ecx, eax
  00104	e8 00 00 00 00	 call	 ??5SP2Packet@@QAEAAV0@AAUD3DXVECTOR3@@@Z ; SP2Packet::operator>>

; 811  : 
; 812  : 			int iState;
; 813  : 			rkPacket >> iState;

  00109	8d 45 dc	 lea	 eax, DWORD PTR _iState$531052[ebp]
  0010c	50		 push	 eax
  0010d	8b ce		 mov	 ecx, esi
  0010f	e8 00 00 00 00	 call	 ??5SP2Packet@@QAEAAV0@AAH@Z ; SP2Packet::operator>>

; 814  : 
; 815  : 			SetPosition( vPos );

  00114	8d 45 e4	 lea	 eax, DWORD PTR _vPos$531049[ebp]
  00117	50		 push	 eax
  00118	8b cb		 mov	 ecx, ebx
  0011a	e8 00 00 00 00	 call	 ?SetPosition@ioWeapon@@QAEXABUD3DXVECTOR3@@@Z ; ioWeapon::SetPosition

; 816  : 			SetOrientation( qtRot );

  0011f	8d 45 cc	 lea	 eax, DWORD PTR _qtRot$531051[ebp]
  00122	50		 push	 eax
  00123	8b cb		 mov	 ecx, ebx
  00125	e8 00 00 00 00	 call	 ?SetOrientation@ioWeapon@@QAEXABUD3DXQUATERNION@@@Z ; ioWeapon::SetOrientation

; 818  : 
; 819  : 			m_ControlState = (ControlState)iState;

  0012a	8b 45 dc	 mov	 eax, DWORD PTR _iState$531052[ebp]
  0012d	89 83 94 08 00
	00		 mov	 DWORD PTR [ebx+2196], eax
$LN34@ApplyWeapo:

; 817  : 			m_vMoveDir = vDir;

  00133	8d bb dc 08 00
	00		 lea	 edi, DWORD PTR [ebx+2268]
  00139	8d 75 f0	 lea	 esi, DWORD PTR _vDir$531050[ebp]
  0013c	a5		 movsd
  0013d	a5		 movsd
  0013e	a5		 movsd
$LN6@ApplyWeapo:

; 867  : 	}
; 868  : }

  0013f	8b 4d fc	 mov	 ecx, DWORD PTR __$ArrayPad$[ebp]
  00142	5f		 pop	 edi
  00143	5e		 pop	 esi
  00144	33 cd		 xor	 ecx, ebp
  00146	5b		 pop	 ebx
  00147	e8 00 00 00 00	 call	 @__security_check_cookie@4
  0014c	c9		 leave
  0014d	c2 08 00	 ret	 8
?ApplyWeaponSync@ioControlMissileWeapon@@UAEXAAVSP2Packet@@PAVioPlayStage@@@Z ENDP ; ioControlMissileWeapon::ApplyWeaponSync
_TEXT	ENDS
PUBLIC	__real@4f800000
PUBLIC	__$ArrayPad$
PUBLIC	?CheckReturnEndRange@ioControlMissileWeapon@@IAE_NXZ ; ioControlMissileWeapon::CheckReturnEndRange
EXTRN	?GetMidPositionByRate@ioGameEntity@@QBE?AUD3DXVECTOR3@@M@Z:PROC ; ioGameEntity::GetMidPositionByRate
;	COMDAT __real@4f800000
; File c:\program files (x86)\microsoft directx sdk (june 2010)\include\d3dx9math.inl
CONST	SEGMENT
__real@4f800000 DD 04f800000r			; 4.29497e+009
; Function compile flags: /Ogsp
; File d:\lost saga for developer\youtube\tutorial\source\src\lsclient\iocontrolmissileweapon.cpp
CONST	ENDS
;	COMDAT ?CheckReturnEndRange@ioControlMissileWeapon@@IAE_NXZ
_TEXT	SEGMENT
tv325 = -28						; size = 4
tv321 = -28						; size = 4
_pOwner$ = -24						; size = 4
tv317 = -20						; size = 4
$T533502 = -20						; size = 4
$T531097 = -16						; size = 12
__$ArrayPad$ = -4					; size = 4
?CheckReturnEndRange@ioControlMissileWeapon@@IAE_NXZ PROC ; ioControlMissileWeapon::CheckReturnEndRange, COMDAT
; _this$ = ecx

; 921  : {

  00000	55		 push	 ebp
  00001	8b ec		 mov	 ebp, esp
  00003	83 ec 1c	 sub	 esp, 28			; 0000001cH
  00006	a1 00 00 00 00	 mov	 eax, DWORD PTR ___security_cookie
  0000b	33 c5		 xor	 eax, ebp
  0000d	89 45 fc	 mov	 DWORD PTR __$ArrayPad$[ebp], eax
  00010	57		 push	 edi
  00011	8b f9		 mov	 edi, ecx

; 922  : 	ioBaseChar *pOwner = GetOwner();

  00013	e8 00 00 00 00	 call	 ?GetOwner@ioWeapon@@QBEPAVioBaseChar@@XZ ; ioWeapon::GetOwner
  00018	89 45 e8	 mov	 DWORD PTR _pOwner$[ebp], eax

; 923  : 	if( !pOwner ) return true;

  0001b	85 c0		 test	 eax, eax
  0001d	75 07		 jne	 SHORT $LN2@CheckRetur@2
$LN17@CheckRetur@2:
  0001f	b0 01		 mov	 al, 1
  00021	e9 df 00 00 00	 jmp	 $LN3@CheckRetur@2
$LN2@CheckRetur@2:
  00026	53		 push	 ebx
  00027	56		 push	 esi

; 924  : 
; 925  : 	D3DXVECTOR3 vDiff = pOwner->GetMidPositionByRate() - GetPosition();

  00028	b8 05 00 00 00	 mov	 eax, 5
  0002d	8b d8		 mov	 ebx, eax
  0002f	b8 0a 00 00 00	 mov	 eax, 10			; 0000000aH
  00034	89 45 ec	 mov	 DWORD PTR $T533502[ebp], eax
  00037	8b 07		 mov	 eax, DWORD PTR [edi]
  00039	8b cf		 mov	 ecx, edi
  0003b	ff 50 70	 call	 DWORD PTR [eax+112]
  0003e	89 5d e4	 mov	 DWORD PTR tv325[ebp], ebx
  00041	db 45 e4	 fild	 DWORD PTR tv325[ebp]
  00044	8b f0		 mov	 esi, eax
  00046	85 db		 test	 ebx, ebx
  00048	79 06		 jns	 SHORT $LN15@CheckRetur@2
  0004a	d8 05 00 00 00
	00		 fadd	 DWORD PTR __real@4f800000
$LN15@CheckRetur@2:
  00050	8b 45 ec	 mov	 eax, DWORD PTR $T533502[ebp]
  00053	db 45 ec	 fild	 DWORD PTR $T533502[ebp]
  00056	85 c0		 test	 eax, eax
  00058	79 06		 jns	 SHORT $LN16@CheckRetur@2
  0005a	d8 05 00 00 00
	00		 fadd	 DWORD PTR __real@4f800000
$LN16@CheckRetur@2:
  00060	de f9		 fdivp	 ST(1), ST(0)
  00062	51		 push	 ecx
  00063	8b 4d e8	 mov	 ecx, DWORD PTR _pOwner$[ebp]
  00066	8d 45 f0	 lea	 eax, DWORD PTR $T531097[ebp]
  00069	d9 5d ec	 fstp	 DWORD PTR tv317[ebp]
  0006c	d9 45 ec	 fld	 DWORD PTR tv317[ebp]
  0006f	d9 1c 24	 fstp	 DWORD PTR [esp]
  00072	50		 push	 eax
  00073	e8 00 00 00 00	 call	 ?GetMidPositionByRate@ioGameEntity@@QBE?AUD3DXVECTOR3@@M@Z ; ioGameEntity::GetMidPositionByRate
  00078	f3 0f 10 00	 movss	 xmm0, DWORD PTR [eax]
  0007c	f3 0f 10 0e	 movss	 xmm1, DWORD PTR [esi]
  00080	f3 0f 10 56 04	 movss	 xmm2, DWORD PTR [esi+4]
  00085	f3 0f 10 5e 08	 movss	 xmm3, DWORD PTR [esi+8]
  0008a	0f 5a c9	 cvtps2pd xmm1, xmm1
  0008d	0f 5a c0	 cvtps2pd xmm0, xmm0
  00090	f2 0f 5c c1	 subsd	 xmm0, xmm1
  00094	f3 0f 10 48 04	 movss	 xmm1, DWORD PTR [eax+4]
  00099	0f 5a d2	 cvtps2pd xmm2, xmm2
  0009c	0f 5a c9	 cvtps2pd xmm1, xmm1
  0009f	f2 0f 5c ca	 subsd	 xmm1, xmm2
  000a3	f3 0f 10 50 08	 movss	 xmm2, DWORD PTR [eax+8]
  000a8	66 0f 5a c0	 cvtpd2ps xmm0, xmm0
  000ac	0f 5a d2	 cvtps2pd xmm2, xmm2
  000af	0f 5a db	 cvtps2pd xmm3, xmm3
  000b2	f2 0f 5c d3	 subsd	 xmm2, xmm3

; 926  : 	
; 927  : 	float fLengthSq = D3DXVec3LengthSq( &vDiff );
; 928  : 	if( fLengthSq < m_fReturnEndRange*m_fReturnEndRange )

  000b6	f3 0f 10 9f 40
	09 00 00	 movss	 xmm3, DWORD PTR [edi+2368]
  000be	66 0f 5a c9	 cvtpd2ps xmm1, xmm1
  000c2	f3 0f 5a c0	 cvtss2sd xmm0, xmm0
  000c6	f3 0f 5a c9	 cvtss2sd xmm1, xmm1
  000ca	f2 0f 59 c0	 mulsd	 xmm0, xmm0
  000ce	66 0f 5a d2	 cvtpd2ps xmm2, xmm2
  000d2	f2 0f 59 c9	 mulsd	 xmm1, xmm1
  000d6	f2 0f 58 c8	 addsd	 xmm1, xmm0
  000da	f3 0f 5a d2	 cvtss2sd xmm2, xmm2
  000de	f2 0f 59 d2	 mulsd	 xmm2, xmm2
  000e2	0f 57 c0	 xorps	 xmm0, xmm0
  000e5	f2 0f 58 ca	 addsd	 xmm1, xmm2
  000e9	0f 5a db	 cvtps2pd xmm3, xmm3
  000ec	66 0f 5a c1	 cvtpd2ps xmm0, xmm1
  000f0	0f 5a c0	 cvtps2pd xmm0, xmm0
  000f3	f2 0f 59 db	 mulsd	 xmm3, xmm3
  000f7	66 0f 2f d8	 comisd	 xmm3, xmm0
  000fb	5e		 pop	 esi
  000fc	5b		 pop	 ebx

; 929  : 		return true;

  000fd	0f 87 1c ff ff
	ff		 ja	 $LN17@CheckRetur@2

; 930  : 
; 931  : 	return false;

  00103	32 c0		 xor	 al, al
$LN3@CheckRetur@2:

; 932  : }

  00105	8b 4d fc	 mov	 ecx, DWORD PTR __$ArrayPad$[ebp]
  00108	33 cd		 xor	 ecx, ebp
  0010a	5f		 pop	 edi
  0010b	e8 00 00 00 00	 call	 @__security_check_cookie@4
  00110	c9		 leave
  00111	c3		 ret	 0
?CheckReturnEndRange@ioControlMissileWeapon@@IAE_NXZ ENDP ; ioControlMissileWeapon::CheckReturnEndRange
_TEXT	ENDS
PUBLIC	__$ArrayPad$
PUBLIC	??$LoadInt_e@$09@ioINILoader@@QAEHAAY09$$CBDH@Z	; ioINILoader::LoadInt_e<10>
EXTRN	__imp_?LoadInt@ioINILoader@@QAEHPBDH@Z:PROC
; Function compile flags: /Ogsp
; File d:\lost saga for developer\youtube\tutorial\source\src\io3dengine\ioiniloader.h
;	COMDAT ??$LoadInt_e@$09@ioINILoader@@QAEHAAY09$$CBDH@Z
_TEXT	SEGMENT
__k$ = -20						; size = 10
__$ArrayPad$ = -4					; size = 4
_k$ = 8							; size = 4
_i$ = 12						; size = 4
??$LoadInt_e@$09@ioINILoader@@QAEHAAY09$$CBDH@Z PROC	; ioINILoader::LoadInt_e<10>, COMDAT
; _this$ = ecx

; 118  : 	{

  00000	55		 push	 ebp
  00001	8b ec		 mov	 ebp, esp
  00003	83 ec 14	 sub	 esp, 20			; 00000014H
  00006	a1 00 00 00 00	 mov	 eax, DWORD PTR ___security_cookie
  0000b	33 c5		 xor	 eax, ebp
  0000d	89 45 fc	 mov	 DWORD PTR __$ArrayPad$[ebp], eax
  00010	8b 45 08	 mov	 eax, DWORD PTR _k$[ebp]

; 119  : 		_ENCSTR(k, _k);

  00013	8a 10		 mov	 dl, BYTE PTR [eax]
  00015	84 d2		 test	 dl, dl
  00017	0f 84 0d 01 00
	00		 je	 $LN96@LoadInt_e
  0001d	80 f2 ed	 xor	 dl, -19			; ffffffedH
  00020	88 55 ec	 mov	 BYTE PTR __k$[ebp], dl
  00023	8a 50 01	 mov	 dl, BYTE PTR [eax+1]
  00026	84 d2		 test	 dl, dl
  00028	0f 84 f6 00 00
	00		 je	 $LN95@LoadInt_e
  0002e	80 f2 ec	 xor	 dl, -20			; ffffffecH
  00031	88 55 ed	 mov	 BYTE PTR __k$[ebp+1], dl
  00034	8a 50 02	 mov	 dl, BYTE PTR [eax+2]
  00037	84 d2		 test	 dl, dl
  00039	0f 84 df 00 00
	00		 je	 $LN94@LoadInt_e
  0003f	80 f2 eb	 xor	 dl, -21			; ffffffebH
  00042	88 55 ee	 mov	 BYTE PTR __k$[ebp+2], dl
  00045	8a 50 03	 mov	 dl, BYTE PTR [eax+3]
  00048	84 d2		 test	 dl, dl
  0004a	0f 84 c8 00 00
	00		 je	 $LN93@LoadInt_e
  00050	80 f2 ea	 xor	 dl, -22			; ffffffeaH
  00053	88 55 ef	 mov	 BYTE PTR __k$[ebp+3], dl
  00056	8a 50 04	 mov	 dl, BYTE PTR [eax+4]
  00059	84 d2		 test	 dl, dl
  0005b	0f 84 b1 00 00
	00		 je	 $LN92@LoadInt_e
  00061	80 f2 ed	 xor	 dl, -19			; ffffffedH
  00064	88 55 f0	 mov	 BYTE PTR __k$[ebp+4], dl
  00067	8a 50 05	 mov	 dl, BYTE PTR [eax+5]
  0006a	84 d2		 test	 dl, dl
  0006c	0f 84 9a 00 00
	00		 je	 $LN91@LoadInt_e
  00072	80 f2 ec	 xor	 dl, -20			; ffffffecH
  00075	88 55 f1	 mov	 BYTE PTR __k$[ebp+5], dl
  00078	8a 50 06	 mov	 dl, BYTE PTR [eax+6]
  0007b	84 d2		 test	 dl, dl
  0007d	0f 84 83 00 00
	00		 je	 $LN90@LoadInt_e
  00083	80 f2 eb	 xor	 dl, -21			; ffffffebH
  00086	88 55 f2	 mov	 BYTE PTR __k$[ebp+6], dl
  00089	8a 50 07	 mov	 dl, BYTE PTR [eax+7]
  0008c	84 d2		 test	 dl, dl
  0008e	74 70		 je	 SHORT $LN89@LoadInt_e
  00090	80 f2 ea	 xor	 dl, -22			; ffffffeaH
  00093	88 55 f3	 mov	 BYTE PTR __k$[ebp+7], dl
  00096	8a 50 08	 mov	 dl, BYTE PTR [eax+8]
  00099	84 d2		 test	 dl, dl
  0009b	74 5d		 je	 SHORT $LN88@LoadInt_e
  0009d	80 f2 ed	 xor	 dl, -19			; ffffffedH
  000a0	80 78 09 00	 cmp	 BYTE PTR [eax+9], 0
  000a4	88 55 f4	 mov	 BYTE PTR __k$[ebp+8], dl
  000a7	0f 84 81 00 00
	00		 je	 $LN1@LoadInt_e
  000ad	8a 50 0a	 mov	 dl, BYTE PTR [eax+10]
  000b0	84 d2		 test	 dl, dl
  000b2	74 40		 je	 SHORT $LN86@LoadInt_e
  000b4	80 f2 eb	 xor	 dl, -21			; ffffffebH
  000b7	88 55 f6	 mov	 BYTE PTR __k$[ebp+10], dl
  000ba	8a 50 0b	 mov	 dl, BYTE PTR [eax+11]
  000bd	84 d2		 test	 dl, dl
  000bf	74 2d		 je	 SHORT $LN85@LoadInt_e
  000c1	80 f2 ea	 xor	 dl, -22			; ffffffeaH
  000c4	88 55 f7	 mov	 BYTE PTR __k$[ebp+11], dl
  000c7	8a 50 0c	 mov	 dl, BYTE PTR [eax+12]
  000ca	84 d2		 test	 dl, dl
  000cc	74 1a		 je	 SHORT $LN84@LoadInt_e
  000ce	8a 40 0d	 mov	 al, BYTE PTR [eax+13]
  000d1	80 f2 ed	 xor	 dl, -19			; ffffffedH
  000d4	88 55 f8	 mov	 BYTE PTR __k$[ebp+12], dl
  000d7	84 c0		 test	 al, al
  000d9	74 07		 je	 SHORT $LN83@LoadInt_e
  000db	34 ec		 xor	 al, -20			; ffffffecH
  000dd	88 45 f9	 mov	 BYTE PTR __k$[ebp+13], al
  000e0	eb 4c		 jmp	 SHORT $LN1@LoadInt_e
$LN83@LoadInt_e:
  000e2	c6 45 f9 ec	 mov	 BYTE PTR __k$[ebp+13], -20 ; ffffffecH
  000e6	eb 46		 jmp	 SHORT $LN1@LoadInt_e
$LN84@LoadInt_e:
  000e8	c6 45 f8 ed	 mov	 BYTE PTR __k$[ebp+12], -19 ; ffffffedH
  000ec	eb 40		 jmp	 SHORT $LN1@LoadInt_e
$LN85@LoadInt_e:
  000ee	c6 45 f7 ea	 mov	 BYTE PTR __k$[ebp+11], -22 ; ffffffeaH
  000f2	eb 3a		 jmp	 SHORT $LN1@LoadInt_e
$LN86@LoadInt_e:
  000f4	c6 45 f6 eb	 mov	 BYTE PTR __k$[ebp+10], -21 ; ffffffebH
  000f8	eb 34		 jmp	 SHORT $LN1@LoadInt_e
$LN88@LoadInt_e:
  000fa	c6 45 f4 ed	 mov	 BYTE PTR __k$[ebp+8], -19 ; ffffffedH
  000fe	eb 2e		 jmp	 SHORT $LN1@LoadInt_e
$LN89@LoadInt_e:
  00100	c6 45 f3 ea	 mov	 BYTE PTR __k$[ebp+7], -22 ; ffffffeaH
  00104	eb 28		 jmp	 SHORT $LN1@LoadInt_e
$LN90@LoadInt_e:
  00106	c6 45 f2 eb	 mov	 BYTE PTR __k$[ebp+6], -21 ; ffffffebH
  0010a	eb 22		 jmp	 SHORT $LN1@LoadInt_e
$LN91@LoadInt_e:
  0010c	c6 45 f1 ec	 mov	 BYTE PTR __k$[ebp+5], -20 ; ffffffecH
  00110	eb 1c		 jmp	 SHORT $LN1@LoadInt_e
$LN92@LoadInt_e:
  00112	c6 45 f0 ed	 mov	 BYTE PTR __k$[ebp+4], -19 ; ffffffedH
  00116	eb 16		 jmp	 SHORT $LN1@LoadInt_e
$LN93@LoadInt_e:
  00118	c6 45 ef ea	 mov	 BYTE PTR __k$[ebp+3], -22 ; ffffffeaH
  0011c	eb 10		 jmp	 SHORT $LN1@LoadInt_e
$LN94@LoadInt_e:
  0011e	c6 45 ee eb	 mov	 BYTE PTR __k$[ebp+2], -21 ; ffffffebH
  00122	eb 0a		 jmp	 SHORT $LN1@LoadInt_e
$LN95@LoadInt_e:
  00124	c6 45 ed ec	 mov	 BYTE PTR __k$[ebp+1], -20 ; ffffffecH
  00128	eb 04		 jmp	 SHORT $LN1@LoadInt_e
$LN96@LoadInt_e:
  0012a	c6 45 ec ed	 mov	 BYTE PTR __k$[ebp], -19	; ffffffedH
$LN1@LoadInt_e:
  0012e	6a 02		 push	 2
  00130	8d 45 ec	 lea	 eax, DWORD PTR __k$[ebp]
  00133	c6 45 f5 00	 mov	 BYTE PTR __k$[ebp+9], 0
  00137	5a		 pop	 edx
$LL104@LoadInt_e:
  00138	81 30 ed ec eb
	ea		 xor	 DWORD PTR [eax], -353637139 ; eaebecedH
  0013e	83 c0 04	 add	 eax, 4
  00141	4a		 dec	 edx
  00142	75 f4		 jne	 SHORT $LL104@LoadInt_e

; 120  : 		return LoadInt(_k, i);

  00144	ff 75 0c	 push	 DWORD PTR _i$[ebp]
  00147	80 75 f4 ed	 xor	 BYTE PTR __k$[ebp+8], -19 ; ffffffedH
  0014b	8d 45 ec	 lea	 eax, DWORD PTR __k$[ebp]
  0014e	50		 push	 eax
  0014f	ff 15 00 00 00
	00		 call	 DWORD PTR __imp_?LoadInt@ioINILoader@@QAEHPBDH@Z

; 121  : 	}

  00155	8b 4d fc	 mov	 ecx, DWORD PTR __$ArrayPad$[ebp]
  00158	33 cd		 xor	 ecx, ebp
  0015a	e8 00 00 00 00	 call	 @__security_check_cookie@4
  0015f	c9		 leave
  00160	c2 08 00	 ret	 8
??$LoadInt_e@$09@ioINILoader@@QAEHAAY09$$CBDH@Z ENDP	; ioINILoader::LoadInt_e<10>
_TEXT	ENDS
PUBLIC	_this$GSCopy$
PUBLIC	__$ArrayPad$
PUBLIC	??$LoadString_e@$0BA@@ioINILoader@@QAEXAAY0BA@$$CBDAAY00$$CBDPADH@Z ; ioINILoader::LoadString_e<16>
EXTRN	__imp_?LoadStringA@ioINILoader@@QAEXPBD0PADH@Z:PROC
; Function compile flags: /Ogsp
;	COMDAT ??$LoadString_e@$0BA@@ioINILoader@@QAEXAAY0BA@$$CBDAAY00$$CBDPADH@Z
_TEXT	SEGMENT
_this$GSCopy$ = -28					; size = 4
__k$ = -24						; size = 16
__$ArrayPad$ = -4					; size = 4
_k$ = 8							; size = 4
_d$ = 12						; size = 4
_b$ = 16						; size = 4
_i$ = 20						; size = 4
??$LoadString_e@$0BA@@ioINILoader@@QAEXAAY0BA@$$CBDAAY00$$CBDPADH@Z PROC ; ioINILoader::LoadString_e<16>, COMDAT
; _this$ = ecx

; 161  : 	{

  00000	55		 push	 ebp
  00001	8b ec		 mov	 ebp, esp
  00003	83 ec 1c	 sub	 esp, 28			; 0000001cH
  00006	a1 00 00 00 00	 mov	 eax, DWORD PTR ___security_cookie
  0000b	33 c5		 xor	 eax, ebp
  0000d	89 45 fc	 mov	 DWORD PTR __$ArrayPad$[ebp], eax
  00010	8b 45 08	 mov	 eax, DWORD PTR _k$[ebp]

; 162  : 		_ENCSTR(k, _k);

  00013	8a 10		 mov	 dl, BYTE PTR [eax]
  00015	56		 push	 esi
  00016	8b 75 0c	 mov	 esi, DWORD PTR _d$[ebp]
  00019	57		 push	 edi
  0001a	8b 7d 10	 mov	 edi, DWORD PTR _b$[ebp]
  0001d	89 4d e4	 mov	 DWORD PTR _this$GSCopy$[ebp], ecx
  00020	84 d2		 test	 dl, dl
  00022	0f 84 8c 01 00
	00		 je	 $LN96@LoadString
  00028	80 f2 ed	 xor	 dl, -19			; ffffffedH
  0002b	88 55 e8	 mov	 BYTE PTR __k$[ebp], dl
  0002e	8a 50 01	 mov	 dl, BYTE PTR [eax+1]
  00031	84 d2		 test	 dl, dl
  00033	0f 84 75 01 00
	00		 je	 $LN95@LoadString
  00039	80 f2 ec	 xor	 dl, -20			; ffffffecH
  0003c	88 55 e9	 mov	 BYTE PTR __k$[ebp+1], dl
  0003f	8a 50 02	 mov	 dl, BYTE PTR [eax+2]
  00042	84 d2		 test	 dl, dl
  00044	0f 84 5e 01 00
	00		 je	 $LN94@LoadString
  0004a	b1 eb		 mov	 cl, -21			; ffffffebH
  0004c	32 d1		 xor	 dl, cl
  0004e	88 55 ea	 mov	 BYTE PTR __k$[ebp+2], dl
  00051	8a 50 03	 mov	 dl, BYTE PTR [eax+3]
  00054	84 d2		 test	 dl, dl
  00056	0f 84 46 01 00
	00		 je	 $LN93@LoadString
  0005c	80 f2 ea	 xor	 dl, -22			; ffffffeaH
  0005f	88 55 eb	 mov	 BYTE PTR __k$[ebp+3], dl
  00062	8a 50 04	 mov	 dl, BYTE PTR [eax+4]
  00065	84 d2		 test	 dl, dl
  00067	0f 84 2f 01 00
	00		 je	 $LN92@LoadString
  0006d	80 f2 ed	 xor	 dl, -19			; ffffffedH
  00070	88 55 ec	 mov	 BYTE PTR __k$[ebp+4], dl
  00073	8a 50 05	 mov	 dl, BYTE PTR [eax+5]
  00076	84 d2		 test	 dl, dl
  00078	0f 84 18 01 00
	00		 je	 $LN91@LoadString
  0007e	80 f2 ec	 xor	 dl, -20			; ffffffecH
  00081	88 55 ed	 mov	 BYTE PTR __k$[ebp+5], dl
  00084	8a 50 06	 mov	 dl, BYTE PTR [eax+6]
  00087	84 d2		 test	 dl, dl
  00089	0f 84 02 01 00
	00		 je	 $LN90@LoadString
  0008f	32 d1		 xor	 dl, cl
  00091	88 55 ee	 mov	 BYTE PTR __k$[ebp+6], dl
  00094	8a 50 07	 mov	 dl, BYTE PTR [eax+7]
  00097	84 d2		 test	 dl, dl
  00099	0f 84 ec 00 00
	00		 je	 $LN89@LoadString
  0009f	80 f2 ea	 xor	 dl, -22			; ffffffeaH
  000a2	88 55 ef	 mov	 BYTE PTR __k$[ebp+7], dl
  000a5	8a 50 08	 mov	 dl, BYTE PTR [eax+8]
  000a8	84 d2		 test	 dl, dl
  000aa	0f 84 d5 00 00
	00		 je	 $LN88@LoadString
  000b0	80 f2 ed	 xor	 dl, -19			; ffffffedH
  000b3	88 55 f0	 mov	 BYTE PTR __k$[ebp+8], dl
  000b6	8a 50 09	 mov	 dl, BYTE PTR [eax+9]
  000b9	84 d2		 test	 dl, dl
  000bb	0f 84 be 00 00
	00		 je	 $LN87@LoadString
  000c1	80 f2 ec	 xor	 dl, -20			; ffffffecH
  000c4	88 55 f1	 mov	 BYTE PTR __k$[ebp+9], dl
  000c7	8a 50 0a	 mov	 dl, BYTE PTR [eax+10]
  000ca	84 d2		 test	 dl, dl
  000cc	0f 84 a8 00 00
	00		 je	 $LN86@LoadString
  000d2	32 d1		 xor	 dl, cl
  000d4	88 55 f2	 mov	 BYTE PTR __k$[ebp+10], dl
  000d7	8a 50 0b	 mov	 dl, BYTE PTR [eax+11]
  000da	84 d2		 test	 dl, dl
  000dc	0f 84 92 00 00
	00		 je	 $LN85@LoadString
  000e2	80 f2 ea	 xor	 dl, -22			; ffffffeaH
  000e5	88 55 f3	 mov	 BYTE PTR __k$[ebp+11], dl
  000e8	8a 50 0c	 mov	 dl, BYTE PTR [eax+12]
  000eb	84 d2		 test	 dl, dl
  000ed	74 7f		 je	 SHORT $LN84@LoadString
  000ef	80 f2 ed	 xor	 dl, -19			; ffffffedH
  000f2	88 55 f4	 mov	 BYTE PTR __k$[ebp+12], dl
  000f5	8a 50 0d	 mov	 dl, BYTE PTR [eax+13]
  000f8	84 d2		 test	 dl, dl
  000fa	74 6c		 je	 SHORT $LN83@LoadString
  000fc	80 f2 ec	 xor	 dl, -20			; ffffffecH
  000ff	88 55 f5	 mov	 BYTE PTR __k$[ebp+13], dl
  00102	8a 50 0e	 mov	 dl, BYTE PTR [eax+14]
  00105	84 d2		 test	 dl, dl
  00107	74 5a		 je	 SHORT $LN82@LoadString
  00109	32 d1		 xor	 dl, cl
  0010b	80 78 0f 00	 cmp	 BYTE PTR [eax+15], 0
  0010f	88 55 f6	 mov	 BYTE PTR __k$[ebp+14], dl
  00112	0f 84 a0 00 00
	00		 je	 $LN111@LoadString
  00118	8a 50 10	 mov	 dl, BYTE PTR [eax+16]
  0011b	84 d2		 test	 dl, dl
  0011d	74 3e		 je	 SHORT $LN80@LoadString
  0011f	80 f2 ed	 xor	 dl, -19			; ffffffedH
  00122	88 55 f8	 mov	 BYTE PTR __k$[ebp+16], dl
  00125	8a 50 11	 mov	 dl, BYTE PTR [eax+17]
  00128	84 d2		 test	 dl, dl
  0012a	74 2b		 je	 SHORT $LN79@LoadString
  0012c	80 f2 ec	 xor	 dl, -20			; ffffffecH
  0012f	88 55 f9	 mov	 BYTE PTR __k$[ebp+17], dl
  00132	8a 50 12	 mov	 dl, BYTE PTR [eax+18]
  00135	84 d2		 test	 dl, dl
  00137	74 19		 je	 SHORT $LN78@LoadString
  00139	8a 40 13	 mov	 al, BYTE PTR [eax+19]
  0013c	32 d1		 xor	 dl, cl
  0013e	88 55 fa	 mov	 BYTE PTR __k$[ebp+18], dl
  00141	84 c0		 test	 al, al
  00143	74 07		 je	 SHORT $LN77@LoadString
  00145	34 ea		 xor	 al, -22			; ffffffeaH
  00147	88 45 fb	 mov	 BYTE PTR __k$[ebp+19], al
  0014a	eb 6c		 jmp	 SHORT $LN111@LoadString
$LN77@LoadString:
  0014c	c6 45 fb ea	 mov	 BYTE PTR __k$[ebp+19], -22 ; ffffffeaH
  00150	eb 66		 jmp	 SHORT $LN111@LoadString
$LN78@LoadString:
  00152	88 4d fa	 mov	 BYTE PTR __k$[ebp+18], cl
  00155	eb 61		 jmp	 SHORT $LN111@LoadString
$LN79@LoadString:
  00157	c6 45 f9 ec	 mov	 BYTE PTR __k$[ebp+17], -20 ; ffffffecH
  0015b	eb 5b		 jmp	 SHORT $LN111@LoadString
$LN80@LoadString:
  0015d	c6 45 f8 ed	 mov	 BYTE PTR __k$[ebp+16], -19 ; ffffffedH
  00161	eb 55		 jmp	 SHORT $LN111@LoadString
$LN82@LoadString:
  00163	88 4d f6	 mov	 BYTE PTR __k$[ebp+14], cl
  00166	eb 50		 jmp	 SHORT $LN111@LoadString
$LN83@LoadString:
  00168	c6 45 f5 ec	 mov	 BYTE PTR __k$[ebp+13], -20 ; ffffffecH
  0016c	eb 4a		 jmp	 SHORT $LN111@LoadString
$LN84@LoadString:
  0016e	c6 45 f4 ed	 mov	 BYTE PTR __k$[ebp+12], -19 ; ffffffedH
  00172	eb 44		 jmp	 SHORT $LN111@LoadString
$LN85@LoadString:
  00174	c6 45 f3 ea	 mov	 BYTE PTR __k$[ebp+11], -22 ; ffffffeaH
  00178	eb 3e		 jmp	 SHORT $LN111@LoadString
$LN86@LoadString:
  0017a	88 4d f2	 mov	 BYTE PTR __k$[ebp+10], cl
  0017d	eb 39		 jmp	 SHORT $LN111@LoadString
$LN87@LoadString:
  0017f	c6 45 f1 ec	 mov	 BYTE PTR __k$[ebp+9], -20 ; ffffffecH
  00183	eb 33		 jmp	 SHORT $LN111@LoadString
$LN88@LoadString:
  00185	c6 45 f0 ed	 mov	 BYTE PTR __k$[ebp+8], -19 ; ffffffedH
  00189	eb 2d		 jmp	 SHORT $LN111@LoadString
$LN89@LoadString:
  0018b	c6 45 ef ea	 mov	 BYTE PTR __k$[ebp+7], -22 ; ffffffeaH
  0018f	eb 27		 jmp	 SHORT $LN111@LoadString
$LN90@LoadString:
  00191	88 4d ee	 mov	 BYTE PTR __k$[ebp+6], cl
  00194	eb 22		 jmp	 SHORT $LN111@LoadString
$LN91@LoadString:
  00196	c6 45 ed ec	 mov	 BYTE PTR __k$[ebp+5], -20 ; ffffffecH
  0019a	eb 1c		 jmp	 SHORT $LN111@LoadString
$LN92@LoadString:
  0019c	c6 45 ec ed	 mov	 BYTE PTR __k$[ebp+4], -19 ; ffffffedH
  001a0	eb 16		 jmp	 SHORT $LN111@LoadString
$LN93@LoadString:
  001a2	c6 45 eb ea	 mov	 BYTE PTR __k$[ebp+3], -22 ; ffffffeaH
  001a6	eb 10		 jmp	 SHORT $LN111@LoadString
$LN94@LoadString:
  001a8	c6 45 ea eb	 mov	 BYTE PTR __k$[ebp+2], -21 ; ffffffebH
  001ac	eb 0a		 jmp	 SHORT $LN111@LoadString
$LN95@LoadString:
  001ae	c6 45 e9 ec	 mov	 BYTE PTR __k$[ebp+1], -20 ; ffffffecH
  001b2	eb 04		 jmp	 SHORT $LN111@LoadString
$LN96@LoadString:
  001b4	c6 45 e8 ed	 mov	 BYTE PTR __k$[ebp], -19	; ffffffedH
$LN111@LoadString:
  001b8	6a 03		 push	 3
  001ba	8d 45 e8	 lea	 eax, DWORD PTR __k$[ebp]
  001bd	c6 45 f7 00	 mov	 BYTE PTR __k$[ebp+15], 0
  001c1	5a		 pop	 edx
$LL104@LoadString:
  001c2	81 30 ed ec eb
	ea		 xor	 DWORD PTR [eax], -353637139 ; eaebecedH
  001c8	83 c0 04	 add	 eax, 4
  001cb	4a		 dec	 edx
  001cc	75 f4		 jne	 SHORT $LL104@LoadString
  001ce	6a 0c		 push	 12			; 0000000cH
  001d0	58		 pop	 eax
$LL101@LoadString:
  001d1	8b c8		 mov	 ecx, eax
  001d3	81 e1 03 00 00
	80		 and	 ecx, -2147483645	; 80000003H
  001d9	79 05		 jns	 SHORT $LN112@LoadString
  001db	49		 dec	 ecx
  001dc	83 c9 fc	 or	 ecx, -4			; fffffffcH
  001df	41		 inc	 ecx
$LN112@LoadString:
  001e0	b2 ed		 mov	 dl, -19			; ffffffedH
  001e2	2a d1		 sub	 dl, cl
  001e4	30 54 05 e8	 xor	 BYTE PTR __k$[ebp+eax], dl
  001e8	40		 inc	 eax
  001e9	83 f8 0f	 cmp	 eax, 15			; 0000000fH
  001ec	7c e3		 jl	 SHORT $LL101@LoadString

; 163  : 		LoadString(_k, d, b, i);

  001ee	ff 75 14	 push	 DWORD PTR _i$[ebp]
  001f1	8b 4d e4	 mov	 ecx, DWORD PTR _this$GSCopy$[ebp]
  001f4	57		 push	 edi
  001f5	56		 push	 esi
  001f6	8d 45 e8	 lea	 eax, DWORD PTR __k$[ebp]
  001f9	50		 push	 eax
  001fa	ff 15 00 00 00
	00		 call	 DWORD PTR __imp_?LoadStringA@ioINILoader@@QAEXPBD0PADH@Z

; 164  : 	}

  00200	8b 4d fc	 mov	 ecx, DWORD PTR __$ArrayPad$[ebp]
  00203	5f		 pop	 edi
  00204	33 cd		 xor	 ecx, ebp
  00206	5e		 pop	 esi
  00207	e8 00 00 00 00	 call	 @__security_check_cookie@4
  0020c	c9		 leave
  0020d	c2 10 00	 ret	 16			; 00000010H
??$LoadString_e@$0BA@@ioINILoader@@QAEXAAY0BA@$$CBDAAY00$$CBDPADH@Z ENDP ; ioINILoader::LoadString_e<16>
_TEXT	ENDS
PUBLIC	_this$GSCopy$
PUBLIC	__$ArrayPad$
PUBLIC	??$LoadString_e@$0BB@@ioINILoader@@QAEXAAY0BB@$$CBDAAY00$$CBDPADH@Z ; ioINILoader::LoadString_e<17>
; Function compile flags: /Ogsp
;	COMDAT ??$LoadString_e@$0BB@@ioINILoader@@QAEXAAY0BB@$$CBDAAY00$$CBDPADH@Z
_TEXT	SEGMENT
_this$GSCopy$ = -32					; size = 4
__k$ = -28						; size = 17
__$ArrayPad$ = -4					; size = 4
_k$ = 8							; size = 4
_d$ = 12						; size = 4
_b$ = 16						; size = 4
_i$ = 20						; size = 4
??$LoadString_e@$0BB@@ioINILoader@@QAEXAAY0BB@$$CBDAAY00$$CBDPADH@Z PROC ; ioINILoader::LoadString_e<17>, COMDAT
; _this$ = ecx

; 161  : 	{

  00000	55		 push	 ebp
  00001	8b ec		 mov	 ebp, esp
  00003	83 ec 20	 sub	 esp, 32			; 00000020H
  00006	a1 00 00 00 00	 mov	 eax, DWORD PTR ___security_cookie
  0000b	33 c5		 xor	 eax, ebp
  0000d	89 45 fc	 mov	 DWORD PTR __$ArrayPad$[ebp], eax
  00010	8b 45 08	 mov	 eax, DWORD PTR _k$[ebp]

; 162  : 		_ENCSTR(k, _k);

  00013	8a 10		 mov	 dl, BYTE PTR [eax]
  00015	56		 push	 esi
  00016	8b 75 0c	 mov	 esi, DWORD PTR _d$[ebp]
  00019	57		 push	 edi
  0001a	8b 7d 10	 mov	 edi, DWORD PTR _b$[ebp]
  0001d	89 4d e0	 mov	 DWORD PTR _this$GSCopy$[ebp], ecx
  00020	84 d2		 test	 dl, dl
  00022	0f 84 a7 01 00
	00		 je	 $LN96@LoadString@2
  00028	80 f2 ed	 xor	 dl, -19			; ffffffedH
  0002b	88 55 e4	 mov	 BYTE PTR __k$[ebp], dl
  0002e	8a 50 01	 mov	 dl, BYTE PTR [eax+1]
  00031	84 d2		 test	 dl, dl
  00033	0f 84 90 01 00
	00		 je	 $LN95@LoadString@2
  00039	b1 ec		 mov	 cl, -20			; ffffffecH
  0003b	32 d1		 xor	 dl, cl
  0003d	88 55 e5	 mov	 BYTE PTR __k$[ebp+1], dl
  00040	8a 50 02	 mov	 dl, BYTE PTR [eax+2]
  00043	84 d2		 test	 dl, dl
  00045	0f 84 78 01 00
	00		 je	 $LN94@LoadString@2
  0004b	80 f2 eb	 xor	 dl, -21			; ffffffebH
  0004e	88 55 e6	 mov	 BYTE PTR __k$[ebp+2], dl
  00051	8a 50 03	 mov	 dl, BYTE PTR [eax+3]
  00054	84 d2		 test	 dl, dl
  00056	0f 84 61 01 00
	00		 je	 $LN93@LoadString@2
  0005c	80 f2 ea	 xor	 dl, -22			; ffffffeaH
  0005f	88 55 e7	 mov	 BYTE PTR __k$[ebp+3], dl
  00062	8a 50 04	 mov	 dl, BYTE PTR [eax+4]
  00065	84 d2		 test	 dl, dl
  00067	0f 84 4a 01 00
	00		 je	 $LN92@LoadString@2
  0006d	80 f2 ed	 xor	 dl, -19			; ffffffedH
  00070	88 55 e8	 mov	 BYTE PTR __k$[ebp+4], dl
  00073	8a 50 05	 mov	 dl, BYTE PTR [eax+5]
  00076	84 d2		 test	 dl, dl
  00078	0f 84 34 01 00
	00		 je	 $LN91@LoadString@2
  0007e	32 d1		 xor	 dl, cl
  00080	88 55 e9	 mov	 BYTE PTR __k$[ebp+5], dl
  00083	8a 50 06	 mov	 dl, BYTE PTR [eax+6]
  00086	84 d2		 test	 dl, dl
  00088	0f 84 1e 01 00
	00		 je	 $LN90@LoadString@2
  0008e	80 f2 eb	 xor	 dl, -21			; ffffffebH
  00091	88 55 ea	 mov	 BYTE PTR __k$[ebp+6], dl
  00094	8a 50 07	 mov	 dl, BYTE PTR [eax+7]
  00097	84 d2		 test	 dl, dl
  00099	0f 84 07 01 00
	00		 je	 $LN89@LoadString@2
  0009f	80 f2 ea	 xor	 dl, -22			; ffffffeaH
  000a2	88 55 eb	 mov	 BYTE PTR __k$[ebp+7], dl
  000a5	8a 50 08	 mov	 dl, BYTE PTR [eax+8]
  000a8	84 d2		 test	 dl, dl
  000aa	0f 84 f0 00 00
	00		 je	 $LN88@LoadString@2
  000b0	80 f2 ed	 xor	 dl, -19			; ffffffedH
  000b3	88 55 ec	 mov	 BYTE PTR __k$[ebp+8], dl
  000b6	8a 50 09	 mov	 dl, BYTE PTR [eax+9]
  000b9	84 d2		 test	 dl, dl
  000bb	0f 84 da 00 00
	00		 je	 $LN87@LoadString@2
  000c1	32 d1		 xor	 dl, cl
  000c3	88 55 ed	 mov	 BYTE PTR __k$[ebp+9], dl
  000c6	8a 50 0a	 mov	 dl, BYTE PTR [eax+10]
  000c9	84 d2		 test	 dl, dl
  000cb	0f 84 c4 00 00
	00		 je	 $LN86@LoadString@2
  000d1	80 f2 eb	 xor	 dl, -21			; ffffffebH
  000d4	88 55 ee	 mov	 BYTE PTR __k$[ebp+10], dl
  000d7	8a 50 0b	 mov	 dl, BYTE PTR [eax+11]
  000da	84 d2		 test	 dl, dl
  000dc	0f 84 ad 00 00
	00		 je	 $LN85@LoadString@2
  000e2	80 f2 ea	 xor	 dl, -22			; ffffffeaH
  000e5	88 55 ef	 mov	 BYTE PTR __k$[ebp+11], dl
  000e8	8a 50 0c	 mov	 dl, BYTE PTR [eax+12]
  000eb	84 d2		 test	 dl, dl
  000ed	0f 84 96 00 00
	00		 je	 $LN84@LoadString@2
  000f3	80 f2 ed	 xor	 dl, -19			; ffffffedH
  000f6	88 55 f0	 mov	 BYTE PTR __k$[ebp+12], dl
  000f9	8a 50 0d	 mov	 dl, BYTE PTR [eax+13]
  000fc	84 d2		 test	 dl, dl
  000fe	0f 84 80 00 00
	00		 je	 $LN83@LoadString@2
  00104	32 d1		 xor	 dl, cl
  00106	88 55 f1	 mov	 BYTE PTR __k$[ebp+13], dl
  00109	8a 50 0e	 mov	 dl, BYTE PTR [eax+14]
  0010c	84 d2		 test	 dl, dl
  0010e	74 6e		 je	 SHORT $LN82@LoadString@2
  00110	80 f2 eb	 xor	 dl, -21			; ffffffebH
  00113	88 55 f2	 mov	 BYTE PTR __k$[ebp+14], dl
  00116	8a 50 0f	 mov	 dl, BYTE PTR [eax+15]
  00119	84 d2		 test	 dl, dl
  0011b	74 5b		 je	 SHORT $LN81@LoadString@2
  0011d	80 f2 ea	 xor	 dl, -22			; ffffffeaH
  00120	80 78 10 00	 cmp	 BYTE PTR [eax+16], 0
  00124	88 55 f3	 mov	 BYTE PTR __k$[ebp+15], dl
  00127	0f 84 a6 00 00
	00		 je	 $LN111@LoadString@2
  0012d	8a 50 11	 mov	 dl, BYTE PTR [eax+17]
  00130	84 d2		 test	 dl, dl
  00132	74 3f		 je	 SHORT $LN79@LoadString@2
  00134	32 d1		 xor	 dl, cl
  00136	88 55 f5	 mov	 BYTE PTR __k$[ebp+17], dl
  00139	8a 50 12	 mov	 dl, BYTE PTR [eax+18]
  0013c	84 d2		 test	 dl, dl
  0013e	74 2d		 je	 SHORT $LN78@LoadString@2
  00140	80 f2 eb	 xor	 dl, -21			; ffffffebH
  00143	88 55 f6	 mov	 BYTE PTR __k$[ebp+18], dl
  00146	8a 50 13	 mov	 dl, BYTE PTR [eax+19]
  00149	84 d2		 test	 dl, dl
  0014b	74 1a		 je	 SHORT $LN77@LoadString@2
  0014d	8a 40 14	 mov	 al, BYTE PTR [eax+20]
  00150	80 f2 ea	 xor	 dl, -22			; ffffffeaH
  00153	88 55 f7	 mov	 BYTE PTR __k$[ebp+19], dl
  00156	84 c0		 test	 al, al
  00158	74 07		 je	 SHORT $LN76@LoadString@2
  0015a	34 ed		 xor	 al, -19			; ffffffedH
  0015c	88 45 f8	 mov	 BYTE PTR __k$[ebp+20], al
  0015f	eb 72		 jmp	 SHORT $LN111@LoadString@2
$LN76@LoadString@2:
  00161	c6 45 f8 ed	 mov	 BYTE PTR __k$[ebp+20], -19 ; ffffffedH
  00165	eb 6c		 jmp	 SHORT $LN111@LoadString@2
$LN77@LoadString@2:
  00167	c6 45 f7 ea	 mov	 BYTE PTR __k$[ebp+19], -22 ; ffffffeaH
  0016b	eb 66		 jmp	 SHORT $LN111@LoadString@2
$LN78@LoadString@2:
  0016d	c6 45 f6 eb	 mov	 BYTE PTR __k$[ebp+18], -21 ; ffffffebH
  00171	eb 60		 jmp	 SHORT $LN111@LoadString@2
$LN79@LoadString@2:
  00173	88 4d f5	 mov	 BYTE PTR __k$[ebp+17], cl
  00176	eb 5b		 jmp	 SHORT $LN111@LoadString@2
$LN81@LoadString@2:
  00178	c6 45 f3 ea	 mov	 BYTE PTR __k$[ebp+15], -22 ; ffffffeaH
  0017c	eb 55		 jmp	 SHORT $LN111@LoadString@2
$LN82@LoadString@2:
  0017e	c6 45 f2 eb	 mov	 BYTE PTR __k$[ebp+14], -21 ; ffffffebH
  00182	eb 4f		 jmp	 SHORT $LN111@LoadString@2
$LN83@LoadString@2:
  00184	88 4d f1	 mov	 BYTE PTR __k$[ebp+13], cl
  00187	eb 4a		 jmp	 SHORT $LN111@LoadString@2
$LN84@LoadString@2:
  00189	c6 45 f0 ed	 mov	 BYTE PTR __k$[ebp+12], -19 ; ffffffedH
  0018d	eb 44		 jmp	 SHORT $LN111@LoadString@2
$LN85@LoadString@2:
  0018f	c6 45 ef ea	 mov	 BYTE PTR __k$[ebp+11], -22 ; ffffffeaH
  00193	eb 3e		 jmp	 SHORT $LN111@LoadString@2
$LN86@LoadString@2:
  00195	c6 45 ee eb	 mov	 BYTE PTR __k$[ebp+10], -21 ; ffffffebH
  00199	eb 38		 jmp	 SHORT $LN111@LoadString@2
$LN87@LoadString@2:
  0019b	88 4d ed	 mov	 BYTE PTR __k$[ebp+9], cl
  0019e	eb 33		 jmp	 SHORT $LN111@LoadString@2
$LN88@LoadString@2:
  001a0	c6 45 ec ed	 mov	 BYTE PTR __k$[ebp+8], -19 ; ffffffedH
  001a4	eb 2d		 jmp	 SHORT $LN111@LoadString@2
$LN89@LoadString@2:
  001a6	c6 45 eb ea	 mov	 BYTE PTR __k$[ebp+7], -22 ; ffffffeaH
  001aa	eb 27		 jmp	 SHORT $LN111@LoadString@2
$LN90@LoadString@2:
  001ac	c6 45 ea eb	 mov	 BYTE PTR __k$[ebp+6], -21 ; ffffffebH
  001b0	eb 21		 jmp	 SHORT $LN111@LoadString@2
$LN91@LoadString@2:
  001b2	88 4d e9	 mov	 BYTE PTR __k$[ebp+5], cl
  001b5	eb 1c		 jmp	 SHORT $LN111@LoadString@2
$LN92@LoadString@2:
  001b7	c6 45 e8 ed	 mov	 BYTE PTR __k$[ebp+4], -19 ; ffffffedH
  001bb	eb 16		 jmp	 SHORT $LN111@LoadString@2
$LN93@LoadString@2:
  001bd	c6 45 e7 ea	 mov	 BYTE PTR __k$[ebp+3], -22 ; ffffffeaH
  001c1	eb 10		 jmp	 SHORT $LN111@LoadString@2
$LN94@LoadString@2:
  001c3	c6 45 e6 eb	 mov	 BYTE PTR __k$[ebp+2], -21 ; ffffffebH
  001c7	eb 0a		 jmp	 SHORT $LN111@LoadString@2
$LN95@LoadString@2:
  001c9	c6 45 e5 ec	 mov	 BYTE PTR __k$[ebp+1], -20 ; ffffffecH
  001cd	eb 04		 jmp	 SHORT $LN111@LoadString@2
$LN96@LoadString@2:
  001cf	c6 45 e4 ed	 mov	 BYTE PTR __k$[ebp], -19	; ffffffedH
$LN111@LoadString@2:
  001d3	6a 04		 push	 4
  001d5	8d 45 e4	 lea	 eax, DWORD PTR __k$[ebp]
  001d8	c6 45 f4 00	 mov	 BYTE PTR __k$[ebp+16], 0
  001dc	5a		 pop	 edx
$LL104@LoadString@2:
  001dd	81 30 ed ec eb
	ea		 xor	 DWORD PTR [eax], -353637139 ; eaebecedH
  001e3	83 c0 04	 add	 eax, 4
  001e6	4a		 dec	 edx
  001e7	75 f4		 jne	 SHORT $LL104@LoadString@2

; 163  : 		LoadString(_k, d, b, i);

  001e9	ff 75 14	 push	 DWORD PTR _i$[ebp]
  001ec	8b 4d e0	 mov	 ecx, DWORD PTR _this$GSCopy$[ebp]
  001ef	57		 push	 edi
  001f0	56		 push	 esi
  001f1	8d 45 e4	 lea	 eax, DWORD PTR __k$[ebp]
  001f4	50		 push	 eax
  001f5	ff 15 00 00 00
	00		 call	 DWORD PTR __imp_?LoadStringA@ioINILoader@@QAEXPBD0PADH@Z

; 164  : 	}

  001fb	8b 4d fc	 mov	 ecx, DWORD PTR __$ArrayPad$[ebp]
  001fe	5f		 pop	 edi
  001ff	33 cd		 xor	 ecx, ebp
  00201	5e		 pop	 esi
  00202	e8 00 00 00 00	 call	 @__security_check_cookie@4
  00207	c9		 leave
  00208	c2 10 00	 ret	 16			; 00000010H
??$LoadString_e@$0BB@@ioINILoader@@QAEXAAY0BB@$$CBDAAY00$$CBDPADH@Z ENDP ; ioINILoader::LoadString_e<17>
_TEXT	ENDS
PUBLIC	__$ArrayPad$
PUBLIC	??$LoadInt_e@$0N@@ioINILoader@@QAEHAAY0N@$$CBDH@Z ; ioINILoader::LoadInt_e<13>
; Function compile flags: /Ogsp
;	COMDAT ??$LoadInt_e@$0N@@ioINILoader@@QAEHAAY0N@$$CBDH@Z
_TEXT	SEGMENT
__k$ = -24						; size = 13
__$ArrayPad$ = -4					; size = 4
_k$ = 8							; size = 4
_i$ = 12						; size = 4
??$LoadInt_e@$0N@@ioINILoader@@QAEHAAY0N@$$CBDH@Z PROC	; ioINILoader::LoadInt_e<13>, COMDAT
; _this$ = ecx

; 118  : 	{

  00000	55		 push	 ebp
  00001	8b ec		 mov	 ebp, esp
  00003	83 ec 18	 sub	 esp, 24			; 00000018H
  00006	a1 00 00 00 00	 mov	 eax, DWORD PTR ___security_cookie
  0000b	33 c5		 xor	 eax, ebp
  0000d	89 45 fc	 mov	 DWORD PTR __$ArrayPad$[ebp], eax
  00010	8b 45 08	 mov	 eax, DWORD PTR _k$[ebp]

; 119  : 		_ENCSTR(k, _k);

  00013	8a 10		 mov	 dl, BYTE PTR [eax]
  00015	56		 push	 esi
  00016	8b f1		 mov	 esi, ecx
  00018	84 d2		 test	 dl, dl
  0001a	0f 84 4d 01 00
	00		 je	 $LN96@LoadInt_e@2
  00020	80 f2 ed	 xor	 dl, -19			; ffffffedH
  00023	88 55 e8	 mov	 BYTE PTR __k$[ebp], dl
  00026	8a 50 01	 mov	 dl, BYTE PTR [eax+1]
  00029	84 d2		 test	 dl, dl
  0002b	0f 84 36 01 00
	00		 je	 $LN95@LoadInt_e@2
  00031	b1 ec		 mov	 cl, -20			; ffffffecH
  00033	32 d1		 xor	 dl, cl
  00035	88 55 e9	 mov	 BYTE PTR __k$[ebp+1], dl
  00038	8a 50 02	 mov	 dl, BYTE PTR [eax+2]
  0003b	84 d2		 test	 dl, dl
  0003d	0f 84 1e 01 00
	00		 je	 $LN94@LoadInt_e@2
  00043	80 f2 eb	 xor	 dl, -21			; ffffffebH
  00046	88 55 ea	 mov	 BYTE PTR __k$[ebp+2], dl
  00049	8a 50 03	 mov	 dl, BYTE PTR [eax+3]
  0004c	84 d2		 test	 dl, dl
  0004e	0f 84 07 01 00
	00		 je	 $LN93@LoadInt_e@2
  00054	80 f2 ea	 xor	 dl, -22			; ffffffeaH
  00057	88 55 eb	 mov	 BYTE PTR __k$[ebp+3], dl
  0005a	8a 50 04	 mov	 dl, BYTE PTR [eax+4]
  0005d	84 d2		 test	 dl, dl
  0005f	0f 84 f0 00 00
	00		 je	 $LN92@LoadInt_e@2
  00065	80 f2 ed	 xor	 dl, -19			; ffffffedH
  00068	88 55 ec	 mov	 BYTE PTR __k$[ebp+4], dl
  0006b	8a 50 05	 mov	 dl, BYTE PTR [eax+5]
  0006e	84 d2		 test	 dl, dl
  00070	0f 84 da 00 00
	00		 je	 $LN91@LoadInt_e@2
  00076	32 d1		 xor	 dl, cl
  00078	88 55 ed	 mov	 BYTE PTR __k$[ebp+5], dl
  0007b	8a 50 06	 mov	 dl, BYTE PTR [eax+6]
  0007e	84 d2		 test	 dl, dl
  00080	0f 84 c4 00 00
	00		 je	 $LN90@LoadInt_e@2
  00086	80 f2 eb	 xor	 dl, -21			; ffffffebH
  00089	88 55 ee	 mov	 BYTE PTR __k$[ebp+6], dl
  0008c	8a 50 07	 mov	 dl, BYTE PTR [eax+7]
  0008f	84 d2		 test	 dl, dl
  00091	0f 84 ad 00 00
	00		 je	 $LN89@LoadInt_e@2
  00097	80 f2 ea	 xor	 dl, -22			; ffffffeaH
  0009a	88 55 ef	 mov	 BYTE PTR __k$[ebp+7], dl
  0009d	8a 50 08	 mov	 dl, BYTE PTR [eax+8]
  000a0	84 d2		 test	 dl, dl
  000a2	0f 84 96 00 00
	00		 je	 $LN88@LoadInt_e@2
  000a8	80 f2 ed	 xor	 dl, -19			; ffffffedH
  000ab	88 55 f0	 mov	 BYTE PTR __k$[ebp+8], dl
  000ae	8a 50 09	 mov	 dl, BYTE PTR [eax+9]
  000b1	84 d2		 test	 dl, dl
  000b3	0f 84 80 00 00
	00		 je	 $LN87@LoadInt_e@2
  000b9	32 d1		 xor	 dl, cl
  000bb	88 55 f1	 mov	 BYTE PTR __k$[ebp+9], dl
  000be	8a 50 0a	 mov	 dl, BYTE PTR [eax+10]
  000c1	84 d2		 test	 dl, dl
  000c3	74 6e		 je	 SHORT $LN86@LoadInt_e@2
  000c5	80 f2 eb	 xor	 dl, -21			; ffffffebH
  000c8	88 55 f2	 mov	 BYTE PTR __k$[ebp+10], dl
  000cb	8a 50 0b	 mov	 dl, BYTE PTR [eax+11]
  000ce	84 d2		 test	 dl, dl
  000d0	74 5b		 je	 SHORT $LN85@LoadInt_e@2
  000d2	80 f2 ea	 xor	 dl, -22			; ffffffeaH
  000d5	80 78 0c 00	 cmp	 BYTE PTR [eax+12], 0
  000d9	88 55 f3	 mov	 BYTE PTR __k$[ebp+11], dl
  000dc	0f 84 8f 00 00
	00		 je	 $LN1@LoadInt_e@2
  000e2	8a 50 0d	 mov	 dl, BYTE PTR [eax+13]
  000e5	84 d2		 test	 dl, dl
  000e7	74 3f		 je	 SHORT $LN83@LoadInt_e@2
  000e9	32 d1		 xor	 dl, cl
  000eb	88 55 f5	 mov	 BYTE PTR __k$[ebp+13], dl
  000ee	8a 50 0e	 mov	 dl, BYTE PTR [eax+14]
  000f1	84 d2		 test	 dl, dl
  000f3	74 2d		 je	 SHORT $LN82@LoadInt_e@2
  000f5	80 f2 eb	 xor	 dl, -21			; ffffffebH
  000f8	88 55 f6	 mov	 BYTE PTR __k$[ebp+14], dl
  000fb	8a 50 0f	 mov	 dl, BYTE PTR [eax+15]
  000fe	84 d2		 test	 dl, dl
  00100	74 1a		 je	 SHORT $LN81@LoadInt_e@2
  00102	8a 40 10	 mov	 al, BYTE PTR [eax+16]
  00105	80 f2 ea	 xor	 dl, -22			; ffffffeaH
  00108	88 55 f7	 mov	 BYTE PTR __k$[ebp+15], dl
  0010b	84 c0		 test	 al, al
  0010d	74 07		 je	 SHORT $LN80@LoadInt_e@2
  0010f	34 ed		 xor	 al, -19			; ffffffedH
  00111	88 45 f8	 mov	 BYTE PTR __k$[ebp+16], al
  00114	eb 5b		 jmp	 SHORT $LN1@LoadInt_e@2
$LN80@LoadInt_e@2:
  00116	c6 45 f8 ed	 mov	 BYTE PTR __k$[ebp+16], -19 ; ffffffedH
  0011a	eb 55		 jmp	 SHORT $LN1@LoadInt_e@2
$LN81@LoadInt_e@2:
  0011c	c6 45 f7 ea	 mov	 BYTE PTR __k$[ebp+15], -22 ; ffffffeaH
  00120	eb 4f		 jmp	 SHORT $LN1@LoadInt_e@2
$LN82@LoadInt_e@2:
  00122	c6 45 f6 eb	 mov	 BYTE PTR __k$[ebp+14], -21 ; ffffffebH
  00126	eb 49		 jmp	 SHORT $LN1@LoadInt_e@2
$LN83@LoadInt_e@2:
  00128	88 4d f5	 mov	 BYTE PTR __k$[ebp+13], cl
  0012b	eb 44		 jmp	 SHORT $LN1@LoadInt_e@2
$LN85@LoadInt_e@2:
  0012d	c6 45 f3 ea	 mov	 BYTE PTR __k$[ebp+11], -22 ; ffffffeaH
  00131	eb 3e		 jmp	 SHORT $LN1@LoadInt_e@2
$LN86@LoadInt_e@2:
  00133	c6 45 f2 eb	 mov	 BYTE PTR __k$[ebp+10], -21 ; ffffffebH
  00137	eb 38		 jmp	 SHORT $LN1@LoadInt_e@2
$LN87@LoadInt_e@2:
  00139	88 4d f1	 mov	 BYTE PTR __k$[ebp+9], cl
  0013c	eb 33		 jmp	 SHORT $LN1@LoadInt_e@2
$LN88@LoadInt_e@2:
  0013e	c6 45 f0 ed	 mov	 BYTE PTR __k$[ebp+8], -19 ; ffffffedH
  00142	eb 2d		 jmp	 SHORT $LN1@LoadInt_e@2
$LN89@LoadInt_e@2:
  00144	c6 45 ef ea	 mov	 BYTE PTR __k$[ebp+7], -22 ; ffffffeaH
  00148	eb 27		 jmp	 SHORT $LN1@LoadInt_e@2
$LN90@LoadInt_e@2:
  0014a	c6 45 ee eb	 mov	 BYTE PTR __k$[ebp+6], -21 ; ffffffebH
  0014e	eb 21		 jmp	 SHORT $LN1@LoadInt_e@2
$LN91@LoadInt_e@2:
  00150	88 4d ed	 mov	 BYTE PTR __k$[ebp+5], cl
  00153	eb 1c		 jmp	 SHORT $LN1@LoadInt_e@2
$LN92@LoadInt_e@2:
  00155	c6 45 ec ed	 mov	 BYTE PTR __k$[ebp+4], -19 ; ffffffedH
  00159	eb 16		 jmp	 SHORT $LN1@LoadInt_e@2
$LN93@LoadInt_e@2:
  0015b	c6 45 eb ea	 mov	 BYTE PTR __k$[ebp+3], -22 ; ffffffeaH
  0015f	eb 10		 jmp	 SHORT $LN1@LoadInt_e@2
$LN94@LoadInt_e@2:
  00161	c6 45 ea eb	 mov	 BYTE PTR __k$[ebp+2], -21 ; ffffffebH
  00165	eb 0a		 jmp	 SHORT $LN1@LoadInt_e@2
$LN95@LoadInt_e@2:
  00167	c6 45 e9 ec	 mov	 BYTE PTR __k$[ebp+1], -20 ; ffffffecH
  0016b	eb 04		 jmp	 SHORT $LN1@LoadInt_e@2
$LN96@LoadInt_e@2:
  0016d	c6 45 e8 ed	 mov	 BYTE PTR __k$[ebp], -19	; ffffffedH
$LN1@LoadInt_e@2:
  00171	6a 03		 push	 3
  00173	8d 45 e8	 lea	 eax, DWORD PTR __k$[ebp]
  00176	c6 45 f4 00	 mov	 BYTE PTR __k$[ebp+12], 0
  0017a	5a		 pop	 edx
$LL104@LoadInt_e@2:
  0017b	81 30 ed ec eb
	ea		 xor	 DWORD PTR [eax], -353637139 ; eaebecedH
  00181	83 c0 04	 add	 eax, 4
  00184	4a		 dec	 edx
  00185	75 f4		 jne	 SHORT $LL104@LoadInt_e@2

; 120  : 		return LoadInt(_k, i);

  00187	ff 75 0c	 push	 DWORD PTR _i$[ebp]
  0018a	8d 45 e8	 lea	 eax, DWORD PTR __k$[ebp]
  0018d	50		 push	 eax
  0018e	8b ce		 mov	 ecx, esi
  00190	ff 15 00 00 00
	00		 call	 DWORD PTR __imp_?LoadInt@ioINILoader@@QAEHPBDH@Z

; 121  : 	}

  00196	8b 4d fc	 mov	 ecx, DWORD PTR __$ArrayPad$[ebp]
  00199	33 cd		 xor	 ecx, ebp
  0019b	5e		 pop	 esi
  0019c	e8 00 00 00 00	 call	 @__security_check_cookie@4
  001a1	c9		 leave
  001a2	c2 08 00	 ret	 8
??$LoadInt_e@$0N@@ioINILoader@@QAEHAAY0N@$$CBDH@Z ENDP	; ioINILoader::LoadInt_e<13>
_TEXT	ENDS
PUBLIC	__$ArrayPad$
PUBLIC	??$LoadInt_e@$0BC@@ioINILoader@@QAEHAAY0BC@$$CBDH@Z ; ioINILoader::LoadInt_e<18>
; Function compile flags: /Ogsp
;	COMDAT ??$LoadInt_e@$0BC@@ioINILoader@@QAEHAAY0BC@$$CBDH@Z
_TEXT	SEGMENT
__k$ = -28						; size = 18
__$ArrayPad$ = -4					; size = 4
_k$ = 8							; size = 4
_i$ = 12						; size = 4
??$LoadInt_e@$0BC@@ioINILoader@@QAEHAAY0BC@$$CBDH@Z PROC ; ioINILoader::LoadInt_e<18>, COMDAT
; _this$ = ecx

; 118  : 	{

  00000	55		 push	 ebp
  00001	8b ec		 mov	 ebp, esp
  00003	83 ec 1c	 sub	 esp, 28			; 0000001cH
  00006	a1 00 00 00 00	 mov	 eax, DWORD PTR ___security_cookie
  0000b	33 c5		 xor	 eax, ebp
  0000d	89 45 fc	 mov	 DWORD PTR __$ArrayPad$[ebp], eax
  00010	8b 45 08	 mov	 eax, DWORD PTR _k$[ebp]

; 119  : 		_ENCSTR(k, _k);

  00013	8a 10		 mov	 dl, BYTE PTR [eax]
  00015	56		 push	 esi
  00016	8b f1		 mov	 esi, ecx
  00018	84 d2		 test	 dl, dl
  0001a	0f 84 be 01 00
	00		 je	 $LN96@LoadInt_e@3
  00020	80 f2 ed	 xor	 dl, -19			; ffffffedH
  00023	88 55 e4	 mov	 BYTE PTR __k$[ebp], dl
  00026	8a 50 01	 mov	 dl, BYTE PTR [eax+1]
  00029	84 d2		 test	 dl, dl
  0002b	0f 84 a7 01 00
	00		 je	 $LN95@LoadInt_e@3
  00031	80 f2 ec	 xor	 dl, -20			; ffffffecH
  00034	88 55 e5	 mov	 BYTE PTR __k$[ebp+1], dl
  00037	8a 50 02	 mov	 dl, BYTE PTR [eax+2]
  0003a	84 d2		 test	 dl, dl
  0003c	0f 84 90 01 00
	00		 je	 $LN94@LoadInt_e@3
  00042	b1 eb		 mov	 cl, -21			; ffffffebH
  00044	32 d1		 xor	 dl, cl
  00046	88 55 e6	 mov	 BYTE PTR __k$[ebp+2], dl
  00049	8a 50 03	 mov	 dl, BYTE PTR [eax+3]
  0004c	84 d2		 test	 dl, dl
  0004e	0f 84 78 01 00
	00		 je	 $LN93@LoadInt_e@3
  00054	80 f2 ea	 xor	 dl, -22			; ffffffeaH
  00057	88 55 e7	 mov	 BYTE PTR __k$[ebp+3], dl
  0005a	8a 50 04	 mov	 dl, BYTE PTR [eax+4]
  0005d	84 d2		 test	 dl, dl
  0005f	0f 84 61 01 00
	00		 je	 $LN92@LoadInt_e@3
  00065	80 f2 ed	 xor	 dl, -19			; ffffffedH
  00068	88 55 e8	 mov	 BYTE PTR __k$[ebp+4], dl
  0006b	8a 50 05	 mov	 dl, BYTE PTR [eax+5]
  0006e	84 d2		 test	 dl, dl
  00070	0f 84 4a 01 00
	00		 je	 $LN91@LoadInt_e@3
  00076	80 f2 ec	 xor	 dl, -20			; ffffffecH
  00079	88 55 e9	 mov	 BYTE PTR __k$[ebp+5], dl
  0007c	8a 50 06	 mov	 dl, BYTE PTR [eax+6]
  0007f	84 d2		 test	 dl, dl
  00081	0f 84 34 01 00
	00		 je	 $LN90@LoadInt_e@3
  00087	32 d1		 xor	 dl, cl
  00089	88 55 ea	 mov	 BYTE PTR __k$[ebp+6], dl
  0008c	8a 50 07	 mov	 dl, BYTE PTR [eax+7]
  0008f	84 d2		 test	 dl, dl
  00091	0f 84 1e 01 00
	00		 je	 $LN89@LoadInt_e@3
  00097	80 f2 ea	 xor	 dl, -22			; ffffffeaH
  0009a	88 55 eb	 mov	 BYTE PTR __k$[ebp+7], dl
  0009d	8a 50 08	 mov	 dl, BYTE PTR [eax+8]
  000a0	84 d2		 test	 dl, dl
  000a2	0f 84 07 01 00
	00		 je	 $LN88@LoadInt_e@3
  000a8	80 f2 ed	 xor	 dl, -19			; ffffffedH
  000ab	88 55 ec	 mov	 BYTE PTR __k$[ebp+8], dl
  000ae	8a 50 09	 mov	 dl, BYTE PTR [eax+9]
  000b1	84 d2		 test	 dl, dl
  000b3	0f 84 f0 00 00
	00		 je	 $LN87@LoadInt_e@3
  000b9	80 f2 ec	 xor	 dl, -20			; ffffffecH
  000bc	88 55 ed	 mov	 BYTE PTR __k$[ebp+9], dl
  000bf	8a 50 0a	 mov	 dl, BYTE PTR [eax+10]
  000c2	84 d2		 test	 dl, dl
  000c4	0f 84 da 00 00
	00		 je	 $LN86@LoadInt_e@3
  000ca	32 d1		 xor	 dl, cl
  000cc	88 55 ee	 mov	 BYTE PTR __k$[ebp+10], dl
  000cf	8a 50 0b	 mov	 dl, BYTE PTR [eax+11]
  000d2	84 d2		 test	 dl, dl
  000d4	0f 84 c4 00 00
	00		 je	 $LN85@LoadInt_e@3
  000da	80 f2 ea	 xor	 dl, -22			; ffffffeaH
  000dd	88 55 ef	 mov	 BYTE PTR __k$[ebp+11], dl
  000e0	8a 50 0c	 mov	 dl, BYTE PTR [eax+12]
  000e3	84 d2		 test	 dl, dl
  000e5	0f 84 ad 00 00
	00		 je	 $LN84@LoadInt_e@3
  000eb	80 f2 ed	 xor	 dl, -19			; ffffffedH
  000ee	88 55 f0	 mov	 BYTE PTR __k$[ebp+12], dl
  000f1	8a 50 0d	 mov	 dl, BYTE PTR [eax+13]
  000f4	84 d2		 test	 dl, dl
  000f6	0f 84 96 00 00
	00		 je	 $LN83@LoadInt_e@3
  000fc	80 f2 ec	 xor	 dl, -20			; ffffffecH
  000ff	88 55 f1	 mov	 BYTE PTR __k$[ebp+13], dl
  00102	8a 50 0e	 mov	 dl, BYTE PTR [eax+14]
  00105	84 d2		 test	 dl, dl
  00107	0f 84 80 00 00
	00		 je	 $LN82@LoadInt_e@3
  0010d	32 d1		 xor	 dl, cl
  0010f	88 55 f2	 mov	 BYTE PTR __k$[ebp+14], dl
  00112	8a 50 0f	 mov	 dl, BYTE PTR [eax+15]
  00115	84 d2		 test	 dl, dl
  00117	74 6e		 je	 SHORT $LN81@LoadInt_e@3
  00119	80 f2 ea	 xor	 dl, -22			; ffffffeaH
  0011c	88 55 f3	 mov	 BYTE PTR __k$[ebp+15], dl
  0011f	8a 50 10	 mov	 dl, BYTE PTR [eax+16]
  00122	84 d2		 test	 dl, dl
  00124	74 5b		 je	 SHORT $LN80@LoadInt_e@3
  00126	80 f2 ed	 xor	 dl, -19			; ffffffedH
  00129	80 78 11 00	 cmp	 BYTE PTR [eax+17], 0
  0012d	88 55 f4	 mov	 BYTE PTR __k$[ebp+16], dl
  00130	0f 84 ac 00 00
	00		 je	 $LN1@LoadInt_e@3
  00136	8a 50 12	 mov	 dl, BYTE PTR [eax+18]
  00139	84 d2		 test	 dl, dl
  0013b	74 3f		 je	 SHORT $LN78@LoadInt_e@3
  0013d	32 d1		 xor	 dl, cl
  0013f	88 55 f6	 mov	 BYTE PTR __k$[ebp+18], dl
  00142	8a 50 13	 mov	 dl, BYTE PTR [eax+19]
  00145	84 d2		 test	 dl, dl
  00147	74 2d		 je	 SHORT $LN77@LoadInt_e@3
  00149	80 f2 ea	 xor	 dl, -22			; ffffffeaH
  0014c	88 55 f7	 mov	 BYTE PTR __k$[ebp+19], dl
  0014f	8a 50 14	 mov	 dl, BYTE PTR [eax+20]
  00152	84 d2		 test	 dl, dl
  00154	74 1a		 je	 SHORT $LN76@LoadInt_e@3
  00156	8a 40 15	 mov	 al, BYTE PTR [eax+21]
  00159	80 f2 ed	 xor	 dl, -19			; ffffffedH
  0015c	88 55 f8	 mov	 BYTE PTR __k$[ebp+20], dl
  0015f	84 c0		 test	 al, al
  00161	74 07		 je	 SHORT $LN75@LoadInt_e@3
  00163	34 ec		 xor	 al, -20			; ffffffecH
  00165	88 45 f9	 mov	 BYTE PTR __k$[ebp+21], al
  00168	eb 78		 jmp	 SHORT $LN1@LoadInt_e@3
$LN75@LoadInt_e@3:
  0016a	c6 45 f9 ec	 mov	 BYTE PTR __k$[ebp+21], -20 ; ffffffecH
  0016e	eb 72		 jmp	 SHORT $LN1@LoadInt_e@3
$LN76@LoadInt_e@3:
  00170	c6 45 f8 ed	 mov	 BYTE PTR __k$[ebp+20], -19 ; ffffffedH
  00174	eb 6c		 jmp	 SHORT $LN1@LoadInt_e@3
$LN77@LoadInt_e@3:
  00176	c6 45 f7 ea	 mov	 BYTE PTR __k$[ebp+19], -22 ; ffffffeaH
  0017a	eb 66		 jmp	 SHORT $LN1@LoadInt_e@3
$LN78@LoadInt_e@3:
  0017c	88 4d f6	 mov	 BYTE PTR __k$[ebp+18], cl
  0017f	eb 61		 jmp	 SHORT $LN1@LoadInt_e@3
$LN80@LoadInt_e@3:
  00181	c6 45 f4 ed	 mov	 BYTE PTR __k$[ebp+16], -19 ; ffffffedH
  00185	eb 5b		 jmp	 SHORT $LN1@LoadInt_e@3
$LN81@LoadInt_e@3:
  00187	c6 45 f3 ea	 mov	 BYTE PTR __k$[ebp+15], -22 ; ffffffeaH
  0018b	eb 55		 jmp	 SHORT $LN1@LoadInt_e@3
$LN82@LoadInt_e@3:
  0018d	88 4d f2	 mov	 BYTE PTR __k$[ebp+14], cl
  00190	eb 50		 jmp	 SHORT $LN1@LoadInt_e@3
$LN83@LoadInt_e@3:
  00192	c6 45 f1 ec	 mov	 BYTE PTR __k$[ebp+13], -20 ; ffffffecH
  00196	eb 4a		 jmp	 SHORT $LN1@LoadInt_e@3
$LN84@LoadInt_e@3:
  00198	c6 45 f0 ed	 mov	 BYTE PTR __k$[ebp+12], -19 ; ffffffedH
  0019c	eb 44		 jmp	 SHORT $LN1@LoadInt_e@3
$LN85@LoadInt_e@3:
  0019e	c6 45 ef ea	 mov	 BYTE PTR __k$[ebp+11], -22 ; ffffffeaH
  001a2	eb 3e		 jmp	 SHORT $LN1@LoadInt_e@3
$LN86@LoadInt_e@3:
  001a4	88 4d ee	 mov	 BYTE PTR __k$[ebp+10], cl
  001a7	eb 39		 jmp	 SHORT $LN1@LoadInt_e@3
$LN87@LoadInt_e@3:
  001a9	c6 45 ed ec	 mov	 BYTE PTR __k$[ebp+9], -20 ; ffffffecH
  001ad	eb 33		 jmp	 SHORT $LN1@LoadInt_e@3
$LN88@LoadInt_e@3:
  001af	c6 45 ec ed	 mov	 BYTE PTR __k$[ebp+8], -19 ; ffffffedH
  001b3	eb 2d		 jmp	 SHORT $LN1@LoadInt_e@3
$LN89@LoadInt_e@3:
  001b5	c6 45 eb ea	 mov	 BYTE PTR __k$[ebp+7], -22 ; ffffffeaH
  001b9	eb 27		 jmp	 SHORT $LN1@LoadInt_e@3
$LN90@LoadInt_e@3:
  001bb	88 4d ea	 mov	 BYTE PTR __k$[ebp+6], cl
  001be	eb 22		 jmp	 SHORT $LN1@LoadInt_e@3
$LN91@LoadInt_e@3:
  001c0	c6 45 e9 ec	 mov	 BYTE PTR __k$[ebp+5], -20 ; ffffffecH
  001c4	eb 1c		 jmp	 SHORT $LN1@LoadInt_e@3
$LN92@LoadInt_e@3:
  001c6	c6 45 e8 ed	 mov	 BYTE PTR __k$[ebp+4], -19 ; ffffffedH
  001ca	eb 16		 jmp	 SHORT $LN1@LoadInt_e@3
$LN93@LoadInt_e@3:
  001cc	c6 45 e7 ea	 mov	 BYTE PTR __k$[ebp+3], -22 ; ffffffeaH
  001d0	eb 10		 jmp	 SHORT $LN1@LoadInt_e@3
$LN94@LoadInt_e@3:
  001d2	c6 45 e6 eb	 mov	 BYTE PTR __k$[ebp+2], -21 ; ffffffebH
  001d6	eb 0a		 jmp	 SHORT $LN1@LoadInt_e@3
$LN95@LoadInt_e@3:
  001d8	c6 45 e5 ec	 mov	 BYTE PTR __k$[ebp+1], -20 ; ffffffecH
  001dc	eb 04		 jmp	 SHORT $LN1@LoadInt_e@3
$LN96@LoadInt_e@3:
  001de	c6 45 e4 ed	 mov	 BYTE PTR __k$[ebp], -19	; ffffffedH
$LN1@LoadInt_e@3:
  001e2	6a 04		 push	 4
  001e4	8d 45 e4	 lea	 eax, DWORD PTR __k$[ebp]
  001e7	c6 45 f5 00	 mov	 BYTE PTR __k$[ebp+17], 0
  001eb	5a		 pop	 edx
$LL104@LoadInt_e@3:
  001ec	81 30 ed ec eb
	ea		 xor	 DWORD PTR [eax], -353637139 ; eaebecedH
  001f2	83 c0 04	 add	 eax, 4
  001f5	4a		 dec	 edx
  001f6	75 f4		 jne	 SHORT $LL104@LoadInt_e@3

; 120  : 		return LoadInt(_k, i);

  001f8	ff 75 0c	 push	 DWORD PTR _i$[ebp]
  001fb	80 75 f4 ed	 xor	 BYTE PTR __k$[ebp+16], -19 ; ffffffedH
  001ff	8d 45 e4	 lea	 eax, DWORD PTR __k$[ebp]
  00202	50		 push	 eax
  00203	8b ce		 mov	 ecx, esi
  00205	ff 15 00 00 00
	00		 call	 DWORD PTR __imp_?LoadInt@ioINILoader@@QAEHPBDH@Z

; 121  : 	}

  0020b	8b 4d fc	 mov	 ecx, DWORD PTR __$ArrayPad$[ebp]
  0020e	33 cd		 xor	 ecx, ebp
  00210	5e		 pop	 esi
  00211	e8 00 00 00 00	 call	 @__security_check_cookie@4
  00216	c9		 leave
  00217	c2 08 00	 ret	 8
??$LoadInt_e@$0BC@@ioINILoader@@QAEHAAY0BC@$$CBDH@Z ENDP ; ioINILoader::LoadInt_e<18>
_TEXT	ENDS
PUBLIC	__$ArrayPad$
PUBLIC	??$LoadInt_e@$0BA@@ioINILoader@@QAEHAAY0BA@$$CBDH@Z ; ioINILoader::LoadInt_e<16>
; Function compile flags: /Ogsp
;	COMDAT ??$LoadInt_e@$0BA@@ioINILoader@@QAEHAAY0BA@$$CBDH@Z
_TEXT	SEGMENT
__k$ = -24						; size = 16
__$ArrayPad$ = -4					; size = 4
_k$ = 8							; size = 4
_i$ = 12						; size = 4
??$LoadInt_e@$0BA@@ioINILoader@@QAEHAAY0BA@$$CBDH@Z PROC ; ioINILoader::LoadInt_e<16>, COMDAT
; _this$ = ecx

; 118  : 	{

  00000	55		 push	 ebp
  00001	8b ec		 mov	 ebp, esp
  00003	83 ec 18	 sub	 esp, 24			; 00000018H
  00006	a1 00 00 00 00	 mov	 eax, DWORD PTR ___security_cookie
  0000b	33 c5		 xor	 eax, ebp
  0000d	89 45 fc	 mov	 DWORD PTR __$ArrayPad$[ebp], eax
  00010	8b 45 08	 mov	 eax, DWORD PTR _k$[ebp]

; 119  : 		_ENCSTR(k, _k);

  00013	8a 10		 mov	 dl, BYTE PTR [eax]
  00015	56		 push	 esi
  00016	8b f1		 mov	 esi, ecx
  00018	84 d2		 test	 dl, dl
  0001a	0f 84 8c 01 00
	00		 je	 $LN96@LoadInt_e@4
  00020	80 f2 ed	 xor	 dl, -19			; ffffffedH
  00023	88 55 e8	 mov	 BYTE PTR __k$[ebp], dl
  00026	8a 50 01	 mov	 dl, BYTE PTR [eax+1]
  00029	84 d2		 test	 dl, dl
  0002b	0f 84 75 01 00
	00		 je	 $LN95@LoadInt_e@4
  00031	80 f2 ec	 xor	 dl, -20			; ffffffecH
  00034	88 55 e9	 mov	 BYTE PTR __k$[ebp+1], dl
  00037	8a 50 02	 mov	 dl, BYTE PTR [eax+2]
  0003a	84 d2		 test	 dl, dl
  0003c	0f 84 5e 01 00
	00		 je	 $LN94@LoadInt_e@4
  00042	b1 eb		 mov	 cl, -21			; ffffffebH
  00044	32 d1		 xor	 dl, cl
  00046	88 55 ea	 mov	 BYTE PTR __k$[ebp+2], dl
  00049	8a 50 03	 mov	 dl, BYTE PTR [eax+3]
  0004c	84 d2		 test	 dl, dl
  0004e	0f 84 46 01 00
	00		 je	 $LN93@LoadInt_e@4
  00054	80 f2 ea	 xor	 dl, -22			; ffffffeaH
  00057	88 55 eb	 mov	 BYTE PTR __k$[ebp+3], dl
  0005a	8a 50 04	 mov	 dl, BYTE PTR [eax+4]
  0005d	84 d2		 test	 dl, dl
  0005f	0f 84 2f 01 00
	00		 je	 $LN92@LoadInt_e@4
  00065	80 f2 ed	 xor	 dl, -19			; ffffffedH
  00068	88 55 ec	 mov	 BYTE PTR __k$[ebp+4], dl
  0006b	8a 50 05	 mov	 dl, BYTE PTR [eax+5]
  0006e	84 d2		 test	 dl, dl
  00070	0f 84 18 01 00
	00		 je	 $LN91@LoadInt_e@4
  00076	80 f2 ec	 xor	 dl, -20			; ffffffecH
  00079	88 55 ed	 mov	 BYTE PTR __k$[ebp+5], dl
  0007c	8a 50 06	 mov	 dl, BYTE PTR [eax+6]
  0007f	84 d2		 test	 dl, dl
  00081	0f 84 02 01 00
	00		 je	 $LN90@LoadInt_e@4
  00087	32 d1		 xor	 dl, cl
  00089	88 55 ee	 mov	 BYTE PTR __k$[ebp+6], dl
  0008c	8a 50 07	 mov	 dl, BYTE PTR [eax+7]
  0008f	84 d2		 test	 dl, dl
  00091	0f 84 ec 00 00
	00		 je	 $LN89@LoadInt_e@4
  00097	80 f2 ea	 xor	 dl, -22			; ffffffeaH
  0009a	88 55 ef	 mov	 BYTE PTR __k$[ebp+7], dl
  0009d	8a 50 08	 mov	 dl, BYTE PTR [eax+8]
  000a0	84 d2		 test	 dl, dl
  000a2	0f 84 d5 00 00
	00		 je	 $LN88@LoadInt_e@4
  000a8	80 f2 ed	 xor	 dl, -19			; ffffffedH
  000ab	88 55 f0	 mov	 BYTE PTR __k$[ebp+8], dl
  000ae	8a 50 09	 mov	 dl, BYTE PTR [eax+9]
  000b1	84 d2		 test	 dl, dl
  000b3	0f 84 be 00 00
	00		 je	 $LN87@LoadInt_e@4
  000b9	80 f2 ec	 xor	 dl, -20			; ffffffecH
  000bc	88 55 f1	 mov	 BYTE PTR __k$[ebp+9], dl
  000bf	8a 50 0a	 mov	 dl, BYTE PTR [eax+10]
  000c2	84 d2		 test	 dl, dl
  000c4	0f 84 a8 00 00
	00		 je	 $LN86@LoadInt_e@4
  000ca	32 d1		 xor	 dl, cl
  000cc	88 55 f2	 mov	 BYTE PTR __k$[ebp+10], dl
  000cf	8a 50 0b	 mov	 dl, BYTE PTR [eax+11]
  000d2	84 d2		 test	 dl, dl
  000d4	0f 84 92 00 00
	00		 je	 $LN85@LoadInt_e@4
  000da	80 f2 ea	 xor	 dl, -22			; ffffffeaH
  000dd	88 55 f3	 mov	 BYTE PTR __k$[ebp+11], dl
  000e0	8a 50 0c	 mov	 dl, BYTE PTR [eax+12]
  000e3	84 d2		 test	 dl, dl
  000e5	74 7f		 je	 SHORT $LN84@LoadInt_e@4
  000e7	80 f2 ed	 xor	 dl, -19			; ffffffedH
  000ea	88 55 f4	 mov	 BYTE PTR __k$[ebp+12], dl
  000ed	8a 50 0d	 mov	 dl, BYTE PTR [eax+13]
  000f0	84 d2		 test	 dl, dl
  000f2	74 6c		 je	 SHORT $LN83@LoadInt_e@4
  000f4	80 f2 ec	 xor	 dl, -20			; ffffffecH
  000f7	88 55 f5	 mov	 BYTE PTR __k$[ebp+13], dl
  000fa	8a 50 0e	 mov	 dl, BYTE PTR [eax+14]
  000fd	84 d2		 test	 dl, dl
  000ff	74 5a		 je	 SHORT $LN82@LoadInt_e@4
  00101	32 d1		 xor	 dl, cl
  00103	80 78 0f 00	 cmp	 BYTE PTR [eax+15], 0
  00107	88 55 f6	 mov	 BYTE PTR __k$[ebp+14], dl
  0010a	0f 84 a0 00 00
	00		 je	 $LN1@LoadInt_e@4
  00110	8a 50 10	 mov	 dl, BYTE PTR [eax+16]
  00113	84 d2		 test	 dl, dl
  00115	74 3e		 je	 SHORT $LN80@LoadInt_e@4
  00117	80 f2 ed	 xor	 dl, -19			; ffffffedH
  0011a	88 55 f8	 mov	 BYTE PTR __k$[ebp+16], dl
  0011d	8a 50 11	 mov	 dl, BYTE PTR [eax+17]
  00120	84 d2		 test	 dl, dl
  00122	74 2b		 je	 SHORT $LN79@LoadInt_e@4
  00124	80 f2 ec	 xor	 dl, -20			; ffffffecH
  00127	88 55 f9	 mov	 BYTE PTR __k$[ebp+17], dl
  0012a	8a 50 12	 mov	 dl, BYTE PTR [eax+18]
  0012d	84 d2		 test	 dl, dl
  0012f	74 19		 je	 SHORT $LN78@LoadInt_e@4
  00131	8a 40 13	 mov	 al, BYTE PTR [eax+19]
  00134	32 d1		 xor	 dl, cl
  00136	88 55 fa	 mov	 BYTE PTR __k$[ebp+18], dl
  00139	84 c0		 test	 al, al
  0013b	74 07		 je	 SHORT $LN77@LoadInt_e@4
  0013d	34 ea		 xor	 al, -22			; ffffffeaH
  0013f	88 45 fb	 mov	 BYTE PTR __k$[ebp+19], al
  00142	eb 6c		 jmp	 SHORT $LN1@LoadInt_e@4
$LN77@LoadInt_e@4:
  00144	c6 45 fb ea	 mov	 BYTE PTR __k$[ebp+19], -22 ; ffffffeaH
  00148	eb 66		 jmp	 SHORT $LN1@LoadInt_e@4
$LN78@LoadInt_e@4:
  0014a	88 4d fa	 mov	 BYTE PTR __k$[ebp+18], cl
  0014d	eb 61		 jmp	 SHORT $LN1@LoadInt_e@4
$LN79@LoadInt_e@4:
  0014f	c6 45 f9 ec	 mov	 BYTE PTR __k$[ebp+17], -20 ; ffffffecH
  00153	eb 5b		 jmp	 SHORT $LN1@LoadInt_e@4
$LN80@LoadInt_e@4:
  00155	c6 45 f8 ed	 mov	 BYTE PTR __k$[ebp+16], -19 ; ffffffedH
  00159	eb 55		 jmp	 SHORT $LN1@LoadInt_e@4
$LN82@LoadInt_e@4:
  0015b	88 4d f6	 mov	 BYTE PTR __k$[ebp+14], cl
  0015e	eb 50		 jmp	 SHORT $LN1@LoadInt_e@4
$LN83@LoadInt_e@4:
  00160	c6 45 f5 ec	 mov	 BYTE PTR __k$[ebp+13], -20 ; ffffffecH
  00164	eb 4a		 jmp	 SHORT $LN1@LoadInt_e@4
$LN84@LoadInt_e@4:
  00166	c6 45 f4 ed	 mov	 BYTE PTR __k$[ebp+12], -19 ; ffffffedH
  0016a	eb 44		 jmp	 SHORT $LN1@LoadInt_e@4
$LN85@LoadInt_e@4:
  0016c	c6 45 f3 ea	 mov	 BYTE PTR __k$[ebp+11], -22 ; ffffffeaH
  00170	eb 3e		 jmp	 SHORT $LN1@LoadInt_e@4
$LN86@LoadInt_e@4:
  00172	88 4d f2	 mov	 BYTE PTR __k$[ebp+10], cl
  00175	eb 39		 jmp	 SHORT $LN1@LoadInt_e@4
$LN87@LoadInt_e@4:
  00177	c6 45 f1 ec	 mov	 BYTE PTR __k$[ebp+9], -20 ; ffffffecH
  0017b	eb 33		 jmp	 SHORT $LN1@LoadInt_e@4
$LN88@LoadInt_e@4:
  0017d	c6 45 f0 ed	 mov	 BYTE PTR __k$[ebp+8], -19 ; ffffffedH
  00181	eb 2d		 jmp	 SHORT $LN1@LoadInt_e@4
$LN89@LoadInt_e@4:
  00183	c6 45 ef ea	 mov	 BYTE PTR __k$[ebp+7], -22 ; ffffffeaH
  00187	eb 27		 jmp	 SHORT $LN1@LoadInt_e@4
$LN90@LoadInt_e@4:
  00189	88 4d ee	 mov	 BYTE PTR __k$[ebp+6], cl
  0018c	eb 22		 jmp	 SHORT $LN1@LoadInt_e@4
$LN91@LoadInt_e@4:
  0018e	c6 45 ed ec	 mov	 BYTE PTR __k$[ebp+5], -20 ; ffffffecH
  00192	eb 1c		 jmp	 SHORT $LN1@LoadInt_e@4
$LN92@LoadInt_e@4:
  00194	c6 45 ec ed	 mov	 BYTE PTR __k$[ebp+4], -19 ; ffffffedH
  00198	eb 16		 jmp	 SHORT $LN1@LoadInt_e@4
$LN93@LoadInt_e@4:
  0019a	c6 45 eb ea	 mov	 BYTE PTR __k$[ebp+3], -22 ; ffffffeaH
  0019e	eb 10		 jmp	 SHORT $LN1@LoadInt_e@4
$LN94@LoadInt_e@4:
  001a0	c6 45 ea eb	 mov	 BYTE PTR __k$[ebp+2], -21 ; ffffffebH
  001a4	eb 0a		 jmp	 SHORT $LN1@LoadInt_e@4
$LN95@LoadInt_e@4:
  001a6	c6 45 e9 ec	 mov	 BYTE PTR __k$[ebp+1], -20 ; ffffffecH
  001aa	eb 04		 jmp	 SHORT $LN1@LoadInt_e@4
$LN96@LoadInt_e@4:
  001ac	c6 45 e8 ed	 mov	 BYTE PTR __k$[ebp], -19	; ffffffedH
$LN1@LoadInt_e@4:
  001b0	6a 03		 push	 3
  001b2	8d 45 e8	 lea	 eax, DWORD PTR __k$[ebp]
  001b5	c6 45 f7 00	 mov	 BYTE PTR __k$[ebp+15], 0
  001b9	5a		 pop	 edx
$LL104@LoadInt_e@4:
  001ba	81 30 ed ec eb
	ea		 xor	 DWORD PTR [eax], -353637139 ; eaebecedH
  001c0	83 c0 04	 add	 eax, 4
  001c3	4a		 dec	 edx
  001c4	75 f4		 jne	 SHORT $LL104@LoadInt_e@4
  001c6	6a 0c		 push	 12			; 0000000cH
  001c8	58		 pop	 eax
$LL101@LoadInt_e@4:
  001c9	8b c8		 mov	 ecx, eax
  001cb	81 e1 03 00 00
	80		 and	 ecx, -2147483645	; 80000003H
  001d1	79 05		 jns	 SHORT $LN111@LoadInt_e@4
  001d3	49		 dec	 ecx
  001d4	83 c9 fc	 or	 ecx, -4			; fffffffcH
  001d7	41		 inc	 ecx
$LN111@LoadInt_e@4:
  001d8	b2 ed		 mov	 dl, -19			; ffffffedH
  001da	2a d1		 sub	 dl, cl
  001dc	30 54 05 e8	 xor	 BYTE PTR __k$[ebp+eax], dl
  001e0	40		 inc	 eax
  001e1	83 f8 0f	 cmp	 eax, 15			; 0000000fH
  001e4	7c e3		 jl	 SHORT $LL101@LoadInt_e@4

; 120  : 		return LoadInt(_k, i);

  001e6	ff 75 0c	 push	 DWORD PTR _i$[ebp]
  001e9	8d 45 e8	 lea	 eax, DWORD PTR __k$[ebp]
  001ec	50		 push	 eax
  001ed	8b ce		 mov	 ecx, esi
  001ef	ff 15 00 00 00
	00		 call	 DWORD PTR __imp_?LoadInt@ioINILoader@@QAEHPBDH@Z

; 121  : 	}

  001f5	8b 4d fc	 mov	 ecx, DWORD PTR __$ArrayPad$[ebp]
  001f8	33 cd		 xor	 ecx, ebp
  001fa	5e		 pop	 esi
  001fb	e8 00 00 00 00	 call	 @__security_check_cookie@4
  00200	c9		 leave
  00201	c2 08 00	 ret	 8
??$LoadInt_e@$0BA@@ioINILoader@@QAEHAAY0BA@$$CBDH@Z ENDP ; ioINILoader::LoadInt_e<16>
_TEXT	ENDS
PUBLIC	__$ArrayPad$
PUBLIC	??$LoadBool_e@$0BI@@ioINILoader@@QAE_NAAY0BI@$$CBD_N@Z ; ioINILoader::LoadBool_e<24>
EXTRN	__imp_?LoadBool@ioINILoader@@QAE_NPBD_N@Z:PROC
; Function compile flags: /Ogsp
;	COMDAT ??$LoadBool_e@$0BI@@ioINILoader@@QAE_NAAY0BI@$$CBD_N@Z
_TEXT	SEGMENT
__k$ = -32						; size = 24
__$ArrayPad$ = -4					; size = 4
_k$ = 8							; size = 4
_b$ = 12						; size = 1
??$LoadBool_e@$0BI@@ioINILoader@@QAE_NAAY0BI@$$CBD_N@Z PROC ; ioINILoader::LoadBool_e<24>, COMDAT
; _this$ = ecx

; 101  : 	{

  00000	55		 push	 ebp
  00001	8b ec		 mov	 ebp, esp
  00003	83 ec 20	 sub	 esp, 32			; 00000020H
  00006	a1 00 00 00 00	 mov	 eax, DWORD PTR ___security_cookie
  0000b	33 c5		 xor	 eax, ebp
  0000d	89 45 fc	 mov	 DWORD PTR __$ArrayPad$[ebp], eax
  00010	8b 45 08	 mov	 eax, DWORD PTR _k$[ebp]

; 102  : 		_ENCSTR(k, _k);

  00013	8a 10		 mov	 dl, BYTE PTR [eax]
  00015	53		 push	 ebx
  00016	56		 push	 esi
  00017	8b f1		 mov	 esi, ecx
  00019	84 d2		 test	 dl, dl
  0001b	0f 84 45 02 00
	00		 je	 $LN96@LoadBool_e
  00021	80 f2 ed	 xor	 dl, -19			; ffffffedH
  00024	88 55 e0	 mov	 BYTE PTR __k$[ebp], dl
  00027	8a 50 01	 mov	 dl, BYTE PTR [eax+1]
  0002a	84 d2		 test	 dl, dl
  0002c	0f 84 2e 02 00
	00		 je	 $LN95@LoadBool_e
  00032	b3 ec		 mov	 bl, -20			; ffffffecH
  00034	32 d3		 xor	 dl, bl
  00036	88 55 e1	 mov	 BYTE PTR __k$[ebp+1], dl
  00039	8a 50 02	 mov	 dl, BYTE PTR [eax+2]
  0003c	84 d2		 test	 dl, dl
  0003e	0f 84 16 02 00
	00		 je	 $LN94@LoadBool_e
  00044	b1 eb		 mov	 cl, -21			; ffffffebH
  00046	32 d1		 xor	 dl, cl
  00048	88 55 e2	 mov	 BYTE PTR __k$[ebp+2], dl
  0004b	8a 50 03	 mov	 dl, BYTE PTR [eax+3]
  0004e	84 d2		 test	 dl, dl
  00050	0f 84 fe 01 00
	00		 je	 $LN93@LoadBool_e
  00056	80 f2 ea	 xor	 dl, -22			; ffffffeaH
  00059	88 55 e3	 mov	 BYTE PTR __k$[ebp+3], dl
  0005c	8a 50 04	 mov	 dl, BYTE PTR [eax+4]
  0005f	84 d2		 test	 dl, dl
  00061	0f 84 e7 01 00
	00		 je	 $LN92@LoadBool_e
  00067	80 f2 ed	 xor	 dl, -19			; ffffffedH
  0006a	88 55 e4	 mov	 BYTE PTR __k$[ebp+4], dl
  0006d	8a 50 05	 mov	 dl, BYTE PTR [eax+5]
  00070	84 d2		 test	 dl, dl
  00072	0f 84 d1 01 00
	00		 je	 $LN91@LoadBool_e
  00078	32 d3		 xor	 dl, bl
  0007a	88 55 e5	 mov	 BYTE PTR __k$[ebp+5], dl
  0007d	8a 50 06	 mov	 dl, BYTE PTR [eax+6]
  00080	84 d2		 test	 dl, dl
  00082	0f 84 bc 01 00
	00		 je	 $LN90@LoadBool_e
  00088	32 d1		 xor	 dl, cl
  0008a	88 55 e6	 mov	 BYTE PTR __k$[ebp+6], dl
  0008d	8a 50 07	 mov	 dl, BYTE PTR [eax+7]
  00090	84 d2		 test	 dl, dl
  00092	0f 84 a6 01 00
	00		 je	 $LN89@LoadBool_e
  00098	80 f2 ea	 xor	 dl, -22			; ffffffeaH
  0009b	88 55 e7	 mov	 BYTE PTR __k$[ebp+7], dl
  0009e	8a 50 08	 mov	 dl, BYTE PTR [eax+8]
  000a1	84 d2		 test	 dl, dl
  000a3	0f 84 8f 01 00
	00		 je	 $LN88@LoadBool_e
  000a9	80 f2 ed	 xor	 dl, -19			; ffffffedH
  000ac	88 55 e8	 mov	 BYTE PTR __k$[ebp+8], dl
  000af	8a 50 09	 mov	 dl, BYTE PTR [eax+9]
  000b2	84 d2		 test	 dl, dl
  000b4	0f 84 79 01 00
	00		 je	 $LN87@LoadBool_e
  000ba	32 d3		 xor	 dl, bl
  000bc	88 55 e9	 mov	 BYTE PTR __k$[ebp+9], dl
  000bf	8a 50 0a	 mov	 dl, BYTE PTR [eax+10]
  000c2	84 d2		 test	 dl, dl
  000c4	0f 84 64 01 00
	00		 je	 $LN86@LoadBool_e
  000ca	32 d1		 xor	 dl, cl
  000cc	88 55 ea	 mov	 BYTE PTR __k$[ebp+10], dl
  000cf	8a 50 0b	 mov	 dl, BYTE PTR [eax+11]
  000d2	84 d2		 test	 dl, dl
  000d4	0f 84 4e 01 00
	00		 je	 $LN85@LoadBool_e
  000da	80 f2 ea	 xor	 dl, -22			; ffffffeaH
  000dd	88 55 eb	 mov	 BYTE PTR __k$[ebp+11], dl
  000e0	8a 50 0c	 mov	 dl, BYTE PTR [eax+12]
  000e3	84 d2		 test	 dl, dl
  000e5	0f 84 37 01 00
	00		 je	 $LN84@LoadBool_e
  000eb	80 f2 ed	 xor	 dl, -19			; ffffffedH
  000ee	88 55 ec	 mov	 BYTE PTR __k$[ebp+12], dl
  000f1	8a 50 0d	 mov	 dl, BYTE PTR [eax+13]
  000f4	84 d2		 test	 dl, dl
  000f6	0f 84 21 01 00
	00		 je	 $LN83@LoadBool_e
  000fc	32 d3		 xor	 dl, bl
  000fe	88 55 ed	 mov	 BYTE PTR __k$[ebp+13], dl
  00101	8a 50 0e	 mov	 dl, BYTE PTR [eax+14]
  00104	84 d2		 test	 dl, dl
  00106	0f 84 0c 01 00
	00		 je	 $LN82@LoadBool_e
  0010c	32 d1		 xor	 dl, cl
  0010e	88 55 ee	 mov	 BYTE PTR __k$[ebp+14], dl
  00111	8a 50 0f	 mov	 dl, BYTE PTR [eax+15]
  00114	84 d2		 test	 dl, dl
  00116	0f 84 f6 00 00
	00		 je	 $LN81@LoadBool_e
  0011c	80 f2 ea	 xor	 dl, -22			; ffffffeaH
  0011f	88 55 ef	 mov	 BYTE PTR __k$[ebp+15], dl
  00122	8a 50 10	 mov	 dl, BYTE PTR [eax+16]
  00125	84 d2		 test	 dl, dl
  00127	0f 84 df 00 00
	00		 je	 $LN80@LoadBool_e
  0012d	80 f2 ed	 xor	 dl, -19			; ffffffedH
  00130	88 55 f0	 mov	 BYTE PTR __k$[ebp+16], dl
  00133	8a 50 11	 mov	 dl, BYTE PTR [eax+17]
  00136	84 d2		 test	 dl, dl
  00138	0f 84 c9 00 00
	00		 je	 $LN79@LoadBool_e
  0013e	32 d3		 xor	 dl, bl
  00140	88 55 f1	 mov	 BYTE PTR __k$[ebp+17], dl
  00143	8a 50 12	 mov	 dl, BYTE PTR [eax+18]
  00146	84 d2		 test	 dl, dl
  00148	0f 84 b4 00 00
	00		 je	 $LN78@LoadBool_e
  0014e	32 d1		 xor	 dl, cl
  00150	88 55 f2	 mov	 BYTE PTR __k$[ebp+18], dl
  00153	8a 50 13	 mov	 dl, BYTE PTR [eax+19]
  00156	84 d2		 test	 dl, dl
  00158	0f 84 9e 00 00
	00		 je	 $LN77@LoadBool_e
  0015e	80 f2 ea	 xor	 dl, -22			; ffffffeaH
  00161	88 55 f3	 mov	 BYTE PTR __k$[ebp+19], dl
  00164	8a 50 14	 mov	 dl, BYTE PTR [eax+20]
  00167	84 d2		 test	 dl, dl
  00169	0f 84 87 00 00
	00		 je	 $LN76@LoadBool_e
  0016f	80 f2 ed	 xor	 dl, -19			; ffffffedH
  00172	88 55 f4	 mov	 BYTE PTR __k$[ebp+20], dl
  00175	8a 50 15	 mov	 dl, BYTE PTR [eax+21]
  00178	84 d2		 test	 dl, dl
  0017a	74 75		 je	 SHORT $LN75@LoadBool_e
  0017c	32 d3		 xor	 dl, bl
  0017e	88 55 f5	 mov	 BYTE PTR __k$[ebp+21], dl
  00181	8a 50 16	 mov	 dl, BYTE PTR [eax+22]
  00184	84 d2		 test	 dl, dl
  00186	74 64		 je	 SHORT $LN74@LoadBool_e
  00188	32 d1		 xor	 dl, cl
  0018a	80 78 17 00	 cmp	 BYTE PTR [eax+23], 0
  0018e	88 55 f6	 mov	 BYTE PTR __k$[ebp+22], dl
  00191	0f 84 d3 00 00
	00		 je	 $LN1@LoadBool_e
  00197	8a 50 18	 mov	 dl, BYTE PTR [eax+24]
  0019a	84 d2		 test	 dl, dl
  0019c	74 48		 je	 SHORT $LN72@LoadBool_e
  0019e	80 f2 ed	 xor	 dl, -19			; ffffffedH
  001a1	88 55 f8	 mov	 BYTE PTR __k$[ebp+24], dl
  001a4	8a 50 19	 mov	 dl, BYTE PTR [eax+25]
  001a7	84 d2		 test	 dl, dl
  001a9	74 33		 je	 SHORT $LN71@LoadBool_e
  001ab	32 d3		 xor	 dl, bl
  001ad	88 55 f9	 mov	 BYTE PTR __k$[ebp+25], dl
  001b0	8a 50 1a	 mov	 dl, BYTE PTR [eax+26]
  001b3	84 d2		 test	 dl, dl
  001b5	74 1f		 je	 SHORT $LN70@LoadBool_e
  001b7	8a 40 1b	 mov	 al, BYTE PTR [eax+27]
  001ba	32 d1		 xor	 dl, cl
  001bc	88 55 fa	 mov	 BYTE PTR __k$[ebp+26], dl
  001bf	84 c0		 test	 al, al
  001c1	74 0a		 je	 SHORT $LN69@LoadBool_e
  001c3	34 ea		 xor	 al, -22			; ffffffeaH
  001c5	88 45 fb	 mov	 BYTE PTR __k$[ebp+27], al
  001c8	e9 9d 00 00 00	 jmp	 $LN1@LoadBool_e
$LN69@LoadBool_e:
  001cd	c6 45 fb ea	 mov	 BYTE PTR __k$[ebp+27], -22 ; ffffffeaH
  001d1	e9 94 00 00 00	 jmp	 $LN1@LoadBool_e
$LN70@LoadBool_e:
  001d6	88 4d fa	 mov	 BYTE PTR __k$[ebp+26], cl
  001d9	e9 8c 00 00 00	 jmp	 $LN1@LoadBool_e
$LN71@LoadBool_e:
  001de	88 5d f9	 mov	 BYTE PTR __k$[ebp+25], bl
  001e1	e9 84 00 00 00	 jmp	 $LN1@LoadBool_e
$LN72@LoadBool_e:
  001e6	c6 45 f8 ed	 mov	 BYTE PTR __k$[ebp+24], -19 ; ffffffedH
  001ea	eb 7e		 jmp	 SHORT $LN1@LoadBool_e
$LN74@LoadBool_e:
  001ec	88 4d f6	 mov	 BYTE PTR __k$[ebp+22], cl
  001ef	eb 79		 jmp	 SHORT $LN1@LoadBool_e
$LN75@LoadBool_e:
  001f1	88 5d f5	 mov	 BYTE PTR __k$[ebp+21], bl
  001f4	eb 74		 jmp	 SHORT $LN1@LoadBool_e
$LN76@LoadBool_e:
  001f6	c6 45 f4 ed	 mov	 BYTE PTR __k$[ebp+20], -19 ; ffffffedH
  001fa	eb 6e		 jmp	 SHORT $LN1@LoadBool_e
$LN77@LoadBool_e:
  001fc	c6 45 f3 ea	 mov	 BYTE PTR __k$[ebp+19], -22 ; ffffffeaH
  00200	eb 68		 jmp	 SHORT $LN1@LoadBool_e
$LN78@LoadBool_e:
  00202	88 4d f2	 mov	 BYTE PTR __k$[ebp+18], cl
  00205	eb 63		 jmp	 SHORT $LN1@LoadBool_e
$LN79@LoadBool_e:
  00207	88 5d f1	 mov	 BYTE PTR __k$[ebp+17], bl
  0020a	eb 5e		 jmp	 SHORT $LN1@LoadBool_e
$LN80@LoadBool_e:
  0020c	c6 45 f0 ed	 mov	 BYTE PTR __k$[ebp+16], -19 ; ffffffedH
  00210	eb 58		 jmp	 SHORT $LN1@LoadBool_e
$LN81@LoadBool_e:
  00212	c6 45 ef ea	 mov	 BYTE PTR __k$[ebp+15], -22 ; ffffffeaH
  00216	eb 52		 jmp	 SHORT $LN1@LoadBool_e
$LN82@LoadBool_e:
  00218	88 4d ee	 mov	 BYTE PTR __k$[ebp+14], cl
  0021b	eb 4d		 jmp	 SHORT $LN1@LoadBool_e
$LN83@LoadBool_e:
  0021d	88 5d ed	 mov	 BYTE PTR __k$[ebp+13], bl
  00220	eb 48		 jmp	 SHORT $LN1@LoadBool_e
$LN84@LoadBool_e:
  00222	c6 45 ec ed	 mov	 BYTE PTR __k$[ebp+12], -19 ; ffffffedH
  00226	eb 42		 jmp	 SHORT $LN1@LoadBool_e
$LN85@LoadBool_e:
  00228	c6 45 eb ea	 mov	 BYTE PTR __k$[ebp+11], -22 ; ffffffeaH
  0022c	eb 3c		 jmp	 SHORT $LN1@LoadBool_e
$LN86@LoadBool_e:
  0022e	88 4d ea	 mov	 BYTE PTR __k$[ebp+10], cl
  00231	eb 37		 jmp	 SHORT $LN1@LoadBool_e
$LN87@LoadBool_e:
  00233	88 5d e9	 mov	 BYTE PTR __k$[ebp+9], bl
  00236	eb 32		 jmp	 SHORT $LN1@LoadBool_e
$LN88@LoadBool_e:
  00238	c6 45 e8 ed	 mov	 BYTE PTR __k$[ebp+8], -19 ; ffffffedH
  0023c	eb 2c		 jmp	 SHORT $LN1@LoadBool_e
$LN89@LoadBool_e:
  0023e	c6 45 e7 ea	 mov	 BYTE PTR __k$[ebp+7], -22 ; ffffffeaH
  00242	eb 26		 jmp	 SHORT $LN1@LoadBool_e
$LN90@LoadBool_e:
  00244	88 4d e6	 mov	 BYTE PTR __k$[ebp+6], cl
  00247	eb 21		 jmp	 SHORT $LN1@LoadBool_e
$LN91@LoadBool_e:
  00249	88 5d e5	 mov	 BYTE PTR __k$[ebp+5], bl
  0024c	eb 1c		 jmp	 SHORT $LN1@LoadBool_e
$LN92@LoadBool_e:
  0024e	c6 45 e4 ed	 mov	 BYTE PTR __k$[ebp+4], -19 ; ffffffedH
  00252	eb 16		 jmp	 SHORT $LN1@LoadBool_e
$LN93@LoadBool_e:
  00254	c6 45 e3 ea	 mov	 BYTE PTR __k$[ebp+3], -22 ; ffffffeaH
  00258	eb 10		 jmp	 SHORT $LN1@LoadBool_e
$LN94@LoadBool_e:
  0025a	c6 45 e2 eb	 mov	 BYTE PTR __k$[ebp+2], -21 ; ffffffebH
  0025e	eb 0a		 jmp	 SHORT $LN1@LoadBool_e
$LN95@LoadBool_e:
  00260	c6 45 e1 ec	 mov	 BYTE PTR __k$[ebp+1], -20 ; ffffffecH
  00264	eb 04		 jmp	 SHORT $LN1@LoadBool_e
$LN96@LoadBool_e:
  00266	c6 45 e0 ed	 mov	 BYTE PTR __k$[ebp], -19	; ffffffedH
$LN1@LoadBool_e:
  0026a	6a 05		 push	 5
  0026c	8d 45 e0	 lea	 eax, DWORD PTR __k$[ebp]
  0026f	c6 45 f7 00	 mov	 BYTE PTR __k$[ebp+23], 0
  00273	5a		 pop	 edx
$LL104@LoadBool_e:
  00274	81 30 ed ec eb
	ea		 xor	 DWORD PTR [eax], -353637139 ; eaebecedH
  0027a	83 c0 04	 add	 eax, 4
  0027d	4a		 dec	 edx
  0027e	75 f4		 jne	 SHORT $LL104@LoadBool_e
  00280	6a 14		 push	 20			; 00000014H
  00282	58		 pop	 eax
$LL101@LoadBool_e:
  00283	8b c8		 mov	 ecx, eax
  00285	81 e1 03 00 00
	80		 and	 ecx, -2147483645	; 80000003H
  0028b	79 05		 jns	 SHORT $LN111@LoadBool_e
  0028d	49		 dec	 ecx
  0028e	83 c9 fc	 or	 ecx, -4			; fffffffcH
  00291	41		 inc	 ecx
$LN111@LoadBool_e:
  00292	b2 ed		 mov	 dl, -19			; ffffffedH
  00294	2a d1		 sub	 dl, cl
  00296	30 54 05 e0	 xor	 BYTE PTR __k$[ebp+eax], dl
  0029a	40		 inc	 eax
  0029b	83 f8 17	 cmp	 eax, 23			; 00000017H
  0029e	7c e3		 jl	 SHORT $LL101@LoadBool_e

; 103  : 		return LoadBool(_k, b);

  002a0	ff 75 0c	 push	 DWORD PTR _b$[ebp]
  002a3	8d 45 e0	 lea	 eax, DWORD PTR __k$[ebp]
  002a6	50		 push	 eax
  002a7	8b ce		 mov	 ecx, esi
  002a9	ff 15 00 00 00
	00		 call	 DWORD PTR __imp_?LoadBool@ioINILoader@@QAE_NPBD_N@Z

; 104  : 	}

  002af	8b 4d fc	 mov	 ecx, DWORD PTR __$ArrayPad$[ebp]
  002b2	5e		 pop	 esi
  002b3	33 cd		 xor	 ecx, ebp
  002b5	5b		 pop	 ebx
  002b6	e8 00 00 00 00	 call	 @__security_check_cookie@4
  002bb	c9		 leave
  002bc	c2 08 00	 ret	 8
??$LoadBool_e@$0BI@@ioINILoader@@QAE_NAAY0BI@$$CBD_N@Z ENDP ; ioINILoader::LoadBool_e<24>
_TEXT	ENDS
PUBLIC	__$ArrayPad$
PUBLIC	??$LoadFloat_e@$0BA@@ioINILoader@@QAEMAAY0BA@$$CBDM@Z ; ioINILoader::LoadFloat_e<16>
EXTRN	__imp_?LoadFloat@ioINILoader@@QAEMPBDM@Z:PROC
; Function compile flags: /Ogsp
;	COMDAT ??$LoadFloat_e@$0BA@@ioINILoader@@QAEMAAY0BA@$$CBDM@Z
_TEXT	SEGMENT
__k$ = -24						; size = 16
__$ArrayPad$ = -4					; size = 4
_k$ = 8							; size = 4
_f$ = 12						; size = 4
??$LoadFloat_e@$0BA@@ioINILoader@@QAEMAAY0BA@$$CBDM@Z PROC ; ioINILoader::LoadFloat_e<16>, COMDAT
; _this$ = ecx

; 135  : 	{

  00000	55		 push	 ebp
  00001	8b ec		 mov	 ebp, esp
  00003	83 ec 18	 sub	 esp, 24			; 00000018H
  00006	a1 00 00 00 00	 mov	 eax, DWORD PTR ___security_cookie
  0000b	33 c5		 xor	 eax, ebp
  0000d	89 45 fc	 mov	 DWORD PTR __$ArrayPad$[ebp], eax
  00010	8b 45 08	 mov	 eax, DWORD PTR _k$[ebp]

; 136  : 		_ENCSTR(k, _k);

  00013	8a 10		 mov	 dl, BYTE PTR [eax]
  00015	56		 push	 esi
  00016	8b f1		 mov	 esi, ecx
  00018	84 d2		 test	 dl, dl
  0001a	0f 84 8c 01 00
	00		 je	 $LN96@LoadFloat_
  00020	80 f2 ed	 xor	 dl, -19			; ffffffedH
  00023	88 55 e8	 mov	 BYTE PTR __k$[ebp], dl
  00026	8a 50 01	 mov	 dl, BYTE PTR [eax+1]
  00029	84 d2		 test	 dl, dl
  0002b	0f 84 75 01 00
	00		 je	 $LN95@LoadFloat_
  00031	80 f2 ec	 xor	 dl, -20			; ffffffecH
  00034	88 55 e9	 mov	 BYTE PTR __k$[ebp+1], dl
  00037	8a 50 02	 mov	 dl, BYTE PTR [eax+2]
  0003a	84 d2		 test	 dl, dl
  0003c	0f 84 5e 01 00
	00		 je	 $LN94@LoadFloat_
  00042	b1 eb		 mov	 cl, -21			; ffffffebH
  00044	32 d1		 xor	 dl, cl
  00046	88 55 ea	 mov	 BYTE PTR __k$[ebp+2], dl
  00049	8a 50 03	 mov	 dl, BYTE PTR [eax+3]
  0004c	84 d2		 test	 dl, dl
  0004e	0f 84 46 01 00
	00		 je	 $LN93@LoadFloat_
  00054	80 f2 ea	 xor	 dl, -22			; ffffffeaH
  00057	88 55 eb	 mov	 BYTE PTR __k$[ebp+3], dl
  0005a	8a 50 04	 mov	 dl, BYTE PTR [eax+4]
  0005d	84 d2		 test	 dl, dl
  0005f	0f 84 2f 01 00
	00		 je	 $LN92@LoadFloat_
  00065	80 f2 ed	 xor	 dl, -19			; ffffffedH
  00068	88 55 ec	 mov	 BYTE PTR __k$[ebp+4], dl
  0006b	8a 50 05	 mov	 dl, BYTE PTR [eax+5]
  0006e	84 d2		 test	 dl, dl
  00070	0f 84 18 01 00
	00		 je	 $LN91@LoadFloat_
  00076	80 f2 ec	 xor	 dl, -20			; ffffffecH
  00079	88 55 ed	 mov	 BYTE PTR __k$[ebp+5], dl
  0007c	8a 50 06	 mov	 dl, BYTE PTR [eax+6]
  0007f	84 d2		 test	 dl, dl
  00081	0f 84 02 01 00
	00		 je	 $LN90@LoadFloat_
  00087	32 d1		 xor	 dl, cl
  00089	88 55 ee	 mov	 BYTE PTR __k$[ebp+6], dl
  0008c	8a 50 07	 mov	 dl, BYTE PTR [eax+7]
  0008f	84 d2		 test	 dl, dl
  00091	0f 84 ec 00 00
	00		 je	 $LN89@LoadFloat_
  00097	80 f2 ea	 xor	 dl, -22			; ffffffeaH
  0009a	88 55 ef	 mov	 BYTE PTR __k$[ebp+7], dl
  0009d	8a 50 08	 mov	 dl, BYTE PTR [eax+8]
  000a0	84 d2		 test	 dl, dl
  000a2	0f 84 d5 00 00
	00		 je	 $LN88@LoadFloat_
  000a8	80 f2 ed	 xor	 dl, -19			; ffffffedH
  000ab	88 55 f0	 mov	 BYTE PTR __k$[ebp+8], dl
  000ae	8a 50 09	 mov	 dl, BYTE PTR [eax+9]
  000b1	84 d2		 test	 dl, dl
  000b3	0f 84 be 00 00
	00		 je	 $LN87@LoadFloat_
  000b9	80 f2 ec	 xor	 dl, -20			; ffffffecH
  000bc	88 55 f1	 mov	 BYTE PTR __k$[ebp+9], dl
  000bf	8a 50 0a	 mov	 dl, BYTE PTR [eax+10]
  000c2	84 d2		 test	 dl, dl
  000c4	0f 84 a8 00 00
	00		 je	 $LN86@LoadFloat_
  000ca	32 d1		 xor	 dl, cl
  000cc	88 55 f2	 mov	 BYTE PTR __k$[ebp+10], dl
  000cf	8a 50 0b	 mov	 dl, BYTE PTR [eax+11]
  000d2	84 d2		 test	 dl, dl
  000d4	0f 84 92 00 00
	00		 je	 $LN85@LoadFloat_
  000da	80 f2 ea	 xor	 dl, -22			; ffffffeaH
  000dd	88 55 f3	 mov	 BYTE PTR __k$[ebp+11], dl
  000e0	8a 50 0c	 mov	 dl, BYTE PTR [eax+12]
  000e3	84 d2		 test	 dl, dl
  000e5	74 7f		 je	 SHORT $LN84@LoadFloat_
  000e7	80 f2 ed	 xor	 dl, -19			; ffffffedH
  000ea	88 55 f4	 mov	 BYTE PTR __k$[ebp+12], dl
  000ed	8a 50 0d	 mov	 dl, BYTE PTR [eax+13]
  000f0	84 d2		 test	 dl, dl
  000f2	74 6c		 je	 SHORT $LN83@LoadFloat_
  000f4	80 f2 ec	 xor	 dl, -20			; ffffffecH
  000f7	88 55 f5	 mov	 BYTE PTR __k$[ebp+13], dl
  000fa	8a 50 0e	 mov	 dl, BYTE PTR [eax+14]
  000fd	84 d2		 test	 dl, dl
  000ff	74 5a		 je	 SHORT $LN82@LoadFloat_
  00101	32 d1		 xor	 dl, cl
  00103	80 78 0f 00	 cmp	 BYTE PTR [eax+15], 0
  00107	88 55 f6	 mov	 BYTE PTR __k$[ebp+14], dl
  0010a	0f 84 a0 00 00
	00		 je	 $LN1@LoadFloat_
  00110	8a 50 10	 mov	 dl, BYTE PTR [eax+16]
  00113	84 d2		 test	 dl, dl
  00115	74 3e		 je	 SHORT $LN80@LoadFloat_
  00117	80 f2 ed	 xor	 dl, -19			; ffffffedH
  0011a	88 55 f8	 mov	 BYTE PTR __k$[ebp+16], dl
  0011d	8a 50 11	 mov	 dl, BYTE PTR [eax+17]
  00120	84 d2		 test	 dl, dl
  00122	74 2b		 je	 SHORT $LN79@LoadFloat_
  00124	80 f2 ec	 xor	 dl, -20			; ffffffecH
  00127	88 55 f9	 mov	 BYTE PTR __k$[ebp+17], dl
  0012a	8a 50 12	 mov	 dl, BYTE PTR [eax+18]
  0012d	84 d2		 test	 dl, dl
  0012f	74 19		 je	 SHORT $LN78@LoadFloat_
  00131	8a 40 13	 mov	 al, BYTE PTR [eax+19]
  00134	32 d1		 xor	 dl, cl
  00136	88 55 fa	 mov	 BYTE PTR __k$[ebp+18], dl
  00139	84 c0		 test	 al, al
  0013b	74 07		 je	 SHORT $LN77@LoadFloat_
  0013d	34 ea		 xor	 al, -22			; ffffffeaH
  0013f	88 45 fb	 mov	 BYTE PTR __k$[ebp+19], al
  00142	eb 6c		 jmp	 SHORT $LN1@LoadFloat_
$LN77@LoadFloat_:
  00144	c6 45 fb ea	 mov	 BYTE PTR __k$[ebp+19], -22 ; ffffffeaH
  00148	eb 66		 jmp	 SHORT $LN1@LoadFloat_
$LN78@LoadFloat_:
  0014a	88 4d fa	 mov	 BYTE PTR __k$[ebp+18], cl
  0014d	eb 61		 jmp	 SHORT $LN1@LoadFloat_
$LN79@LoadFloat_:
  0014f	c6 45 f9 ec	 mov	 BYTE PTR __k$[ebp+17], -20 ; ffffffecH
  00153	eb 5b		 jmp	 SHORT $LN1@LoadFloat_
$LN80@LoadFloat_:
  00155	c6 45 f8 ed	 mov	 BYTE PTR __k$[ebp+16], -19 ; ffffffedH
  00159	eb 55		 jmp	 SHORT $LN1@LoadFloat_
$LN82@LoadFloat_:
  0015b	88 4d f6	 mov	 BYTE PTR __k$[ebp+14], cl
  0015e	eb 50		 jmp	 SHORT $LN1@LoadFloat_
$LN83@LoadFloat_:
  00160	c6 45 f5 ec	 mov	 BYTE PTR __k$[ebp+13], -20 ; ffffffecH
  00164	eb 4a		 jmp	 SHORT $LN1@LoadFloat_
$LN84@LoadFloat_:
  00166	c6 45 f4 ed	 mov	 BYTE PTR __k$[ebp+12], -19 ; ffffffedH
  0016a	eb 44		 jmp	 SHORT $LN1@LoadFloat_
$LN85@LoadFloat_:
  0016c	c6 45 f3 ea	 mov	 BYTE PTR __k$[ebp+11], -22 ; ffffffeaH
  00170	eb 3e		 jmp	 SHORT $LN1@LoadFloat_
$LN86@LoadFloat_:
  00172	88 4d f2	 mov	 BYTE PTR __k$[ebp+10], cl
  00175	eb 39		 jmp	 SHORT $LN1@LoadFloat_
$LN87@LoadFloat_:
  00177	c6 45 f1 ec	 mov	 BYTE PTR __k$[ebp+9], -20 ; ffffffecH
  0017b	eb 33		 jmp	 SHORT $LN1@LoadFloat_
$LN88@LoadFloat_:
  0017d	c6 45 f0 ed	 mov	 BYTE PTR __k$[ebp+8], -19 ; ffffffedH
  00181	eb 2d		 jmp	 SHORT $LN1@LoadFloat_
$LN89@LoadFloat_:
  00183	c6 45 ef ea	 mov	 BYTE PTR __k$[ebp+7], -22 ; ffffffeaH
  00187	eb 27		 jmp	 SHORT $LN1@LoadFloat_
$LN90@LoadFloat_:
  00189	88 4d ee	 mov	 BYTE PTR __k$[ebp+6], cl
  0018c	eb 22		 jmp	 SHORT $LN1@LoadFloat_
$LN91@LoadFloat_:
  0018e	c6 45 ed ec	 mov	 BYTE PTR __k$[ebp+5], -20 ; ffffffecH
  00192	eb 1c		 jmp	 SHORT $LN1@LoadFloat_
$LN92@LoadFloat_:
  00194	c6 45 ec ed	 mov	 BYTE PTR __k$[ebp+4], -19 ; ffffffedH
  00198	eb 16		 jmp	 SHORT $LN1@LoadFloat_
$LN93@LoadFloat_:
  0019a	c6 45 eb ea	 mov	 BYTE PTR __k$[ebp+3], -22 ; ffffffeaH
  0019e	eb 10		 jmp	 SHORT $LN1@LoadFloat_
$LN94@LoadFloat_:
  001a0	c6 45 ea eb	 mov	 BYTE PTR __k$[ebp+2], -21 ; ffffffebH
  001a4	eb 0a		 jmp	 SHORT $LN1@LoadFloat_
$LN95@LoadFloat_:
  001a6	c6 45 e9 ec	 mov	 BYTE PTR __k$[ebp+1], -20 ; ffffffecH
  001aa	eb 04		 jmp	 SHORT $LN1@LoadFloat_
$LN96@LoadFloat_:
  001ac	c6 45 e8 ed	 mov	 BYTE PTR __k$[ebp], -19	; ffffffedH
$LN1@LoadFloat_:
  001b0	6a 03		 push	 3
  001b2	8d 45 e8	 lea	 eax, DWORD PTR __k$[ebp]
  001b5	c6 45 f7 00	 mov	 BYTE PTR __k$[ebp+15], 0
  001b9	5a		 pop	 edx
$LL104@LoadFloat_:
  001ba	81 30 ed ec eb
	ea		 xor	 DWORD PTR [eax], -353637139 ; eaebecedH
  001c0	83 c0 04	 add	 eax, 4
  001c3	4a		 dec	 edx
  001c4	75 f4		 jne	 SHORT $LL104@LoadFloat_
  001c6	6a 0c		 push	 12			; 0000000cH
  001c8	58		 pop	 eax
$LL101@LoadFloat_:
  001c9	8b c8		 mov	 ecx, eax
  001cb	81 e1 03 00 00
	80		 and	 ecx, -2147483645	; 80000003H
  001d1	79 05		 jns	 SHORT $LN111@LoadFloat_
  001d3	49		 dec	 ecx
  001d4	83 c9 fc	 or	 ecx, -4			; fffffffcH
  001d7	41		 inc	 ecx
$LN111@LoadFloat_:
  001d8	b2 ed		 mov	 dl, -19			; ffffffedH
  001da	2a d1		 sub	 dl, cl
  001dc	30 54 05 e8	 xor	 BYTE PTR __k$[ebp+eax], dl
  001e0	40		 inc	 eax
  001e1	83 f8 0f	 cmp	 eax, 15			; 0000000fH
  001e4	7c e3		 jl	 SHORT $LL101@LoadFloat_

; 137  : 		return LoadFloat(_k, f);

  001e6	f3 0f 10 45 0c	 movss	 xmm0, DWORD PTR _f$[ebp]
  001eb	51		 push	 ecx
  001ec	8d 45 e8	 lea	 eax, DWORD PTR __k$[ebp]
  001ef	f3 0f 11 04 24	 movss	 DWORD PTR [esp], xmm0
  001f4	50		 push	 eax
  001f5	8b ce		 mov	 ecx, esi
  001f7	ff 15 00 00 00
	00		 call	 DWORD PTR __imp_?LoadFloat@ioINILoader@@QAEMPBDM@Z

; 138  : 	}

  001fd	8b 4d fc	 mov	 ecx, DWORD PTR __$ArrayPad$[ebp]
  00200	33 cd		 xor	 ecx, ebp
  00202	5e		 pop	 esi
  00203	e8 00 00 00 00	 call	 @__security_check_cookie@4
  00208	c9		 leave
  00209	c2 08 00	 ret	 8
??$LoadFloat_e@$0BA@@ioINILoader@@QAEMAAY0BA@$$CBDM@Z ENDP ; ioINILoader::LoadFloat_e<16>
_TEXT	ENDS
PUBLIC	__$ArrayPad$
PUBLIC	??$LoadFloat_e@$0BB@@ioINILoader@@QAEMAAY0BB@$$CBDM@Z ; ioINILoader::LoadFloat_e<17>
; Function compile flags: /Ogsp
;	COMDAT ??$LoadFloat_e@$0BB@@ioINILoader@@QAEMAAY0BB@$$CBDM@Z
_TEXT	SEGMENT
__k$ = -28						; size = 17
__$ArrayPad$ = -4					; size = 4
_k$ = 8							; size = 4
_f$ = 12						; size = 4
??$LoadFloat_e@$0BB@@ioINILoader@@QAEMAAY0BB@$$CBDM@Z PROC ; ioINILoader::LoadFloat_e<17>, COMDAT
; _this$ = ecx

; 135  : 	{

  00000	55		 push	 ebp
  00001	8b ec		 mov	 ebp, esp
  00003	83 ec 1c	 sub	 esp, 28			; 0000001cH
  00006	a1 00 00 00 00	 mov	 eax, DWORD PTR ___security_cookie
  0000b	33 c5		 xor	 eax, ebp
  0000d	89 45 fc	 mov	 DWORD PTR __$ArrayPad$[ebp], eax
  00010	8b 45 08	 mov	 eax, DWORD PTR _k$[ebp]

; 136  : 		_ENCSTR(k, _k);

  00013	8a 10		 mov	 dl, BYTE PTR [eax]
  00015	56		 push	 esi
  00016	8b f1		 mov	 esi, ecx
  00018	84 d2		 test	 dl, dl
  0001a	0f 84 a7 01 00
	00		 je	 $LN96@LoadFloat_@2
  00020	80 f2 ed	 xor	 dl, -19			; ffffffedH
  00023	88 55 e4	 mov	 BYTE PTR __k$[ebp], dl
  00026	8a 50 01	 mov	 dl, BYTE PTR [eax+1]
  00029	84 d2		 test	 dl, dl
  0002b	0f 84 90 01 00
	00		 je	 $LN95@LoadFloat_@2
  00031	b1 ec		 mov	 cl, -20			; ffffffecH
  00033	32 d1		 xor	 dl, cl
  00035	88 55 e5	 mov	 BYTE PTR __k$[ebp+1], dl
  00038	8a 50 02	 mov	 dl, BYTE PTR [eax+2]
  0003b	84 d2		 test	 dl, dl
  0003d	0f 84 78 01 00
	00		 je	 $LN94@LoadFloat_@2
  00043	80 f2 eb	 xor	 dl, -21			; ffffffebH
  00046	88 55 e6	 mov	 BYTE PTR __k$[ebp+2], dl
  00049	8a 50 03	 mov	 dl, BYTE PTR [eax+3]
  0004c	84 d2		 test	 dl, dl
  0004e	0f 84 61 01 00
	00		 je	 $LN93@LoadFloat_@2
  00054	80 f2 ea	 xor	 dl, -22			; ffffffeaH
  00057	88 55 e7	 mov	 BYTE PTR __k$[ebp+3], dl
  0005a	8a 50 04	 mov	 dl, BYTE PTR [eax+4]
  0005d	84 d2		 test	 dl, dl
  0005f	0f 84 4a 01 00
	00		 je	 $LN92@LoadFloat_@2
  00065	80 f2 ed	 xor	 dl, -19			; ffffffedH
  00068	88 55 e8	 mov	 BYTE PTR __k$[ebp+4], dl
  0006b	8a 50 05	 mov	 dl, BYTE PTR [eax+5]
  0006e	84 d2		 test	 dl, dl
  00070	0f 84 34 01 00
	00		 je	 $LN91@LoadFloat_@2
  00076	32 d1		 xor	 dl, cl
  00078	88 55 e9	 mov	 BYTE PTR __k$[ebp+5], dl
  0007b	8a 50 06	 mov	 dl, BYTE PTR [eax+6]
  0007e	84 d2		 test	 dl, dl
  00080	0f 84 1e 01 00
	00		 je	 $LN90@LoadFloat_@2
  00086	80 f2 eb	 xor	 dl, -21			; ffffffebH
  00089	88 55 ea	 mov	 BYTE PTR __k$[ebp+6], dl
  0008c	8a 50 07	 mov	 dl, BYTE PTR [eax+7]
  0008f	84 d2		 test	 dl, dl
  00091	0f 84 07 01 00
	00		 je	 $LN89@LoadFloat_@2
  00097	80 f2 ea	 xor	 dl, -22			; ffffffeaH
  0009a	88 55 eb	 mov	 BYTE PTR __k$[ebp+7], dl
  0009d	8a 50 08	 mov	 dl, BYTE PTR [eax+8]
  000a0	84 d2		 test	 dl, dl
  000a2	0f 84 f0 00 00
	00		 je	 $LN88@LoadFloat_@2
  000a8	80 f2 ed	 xor	 dl, -19			; ffffffedH
  000ab	88 55 ec	 mov	 BYTE PTR __k$[ebp+8], dl
  000ae	8a 50 09	 mov	 dl, BYTE PTR [eax+9]
  000b1	84 d2		 test	 dl, dl
  000b3	0f 84 da 00 00
	00		 je	 $LN87@LoadFloat_@2
  000b9	32 d1		 xor	 dl, cl
  000bb	88 55 ed	 mov	 BYTE PTR __k$[ebp+9], dl
  000be	8a 50 0a	 mov	 dl, BYTE PTR [eax+10]
  000c1	84 d2		 test	 dl, dl
  000c3	0f 84 c4 00 00
	00		 je	 $LN86@LoadFloat_@2
  000c9	80 f2 eb	 xor	 dl, -21			; ffffffebH
  000cc	88 55 ee	 mov	 BYTE PTR __k$[ebp+10], dl
  000cf	8a 50 0b	 mov	 dl, BYTE PTR [eax+11]
  000d2	84 d2		 test	 dl, dl
  000d4	0f 84 ad 00 00
	00		 je	 $LN85@LoadFloat_@2
  000da	80 f2 ea	 xor	 dl, -22			; ffffffeaH
  000dd	88 55 ef	 mov	 BYTE PTR __k$[ebp+11], dl
  000e0	8a 50 0c	 mov	 dl, BYTE PTR [eax+12]
  000e3	84 d2		 test	 dl, dl
  000e5	0f 84 96 00 00
	00		 je	 $LN84@LoadFloat_@2
  000eb	80 f2 ed	 xor	 dl, -19			; ffffffedH
  000ee	88 55 f0	 mov	 BYTE PTR __k$[ebp+12], dl
  000f1	8a 50 0d	 mov	 dl, BYTE PTR [eax+13]
  000f4	84 d2		 test	 dl, dl
  000f6	0f 84 80 00 00
	00		 je	 $LN83@LoadFloat_@2
  000fc	32 d1		 xor	 dl, cl
  000fe	88 55 f1	 mov	 BYTE PTR __k$[ebp+13], dl
  00101	8a 50 0e	 mov	 dl, BYTE PTR [eax+14]
  00104	84 d2		 test	 dl, dl
  00106	74 6e		 je	 SHORT $LN82@LoadFloat_@2
  00108	80 f2 eb	 xor	 dl, -21			; ffffffebH
  0010b	88 55 f2	 mov	 BYTE PTR __k$[ebp+14], dl
  0010e	8a 50 0f	 mov	 dl, BYTE PTR [eax+15]
  00111	84 d2		 test	 dl, dl
  00113	74 5b		 je	 SHORT $LN81@LoadFloat_@2
  00115	80 f2 ea	 xor	 dl, -22			; ffffffeaH
  00118	80 78 10 00	 cmp	 BYTE PTR [eax+16], 0
  0011c	88 55 f3	 mov	 BYTE PTR __k$[ebp+15], dl
  0011f	0f 84 a6 00 00
	00		 je	 $LN1@LoadFloat_@2
  00125	8a 50 11	 mov	 dl, BYTE PTR [eax+17]
  00128	84 d2		 test	 dl, dl
  0012a	74 3f		 je	 SHORT $LN79@LoadFloat_@2
  0012c	32 d1		 xor	 dl, cl
  0012e	88 55 f5	 mov	 BYTE PTR __k$[ebp+17], dl
  00131	8a 50 12	 mov	 dl, BYTE PTR [eax+18]
  00134	84 d2		 test	 dl, dl
  00136	74 2d		 je	 SHORT $LN78@LoadFloat_@2
  00138	80 f2 eb	 xor	 dl, -21			; ffffffebH
  0013b	88 55 f6	 mov	 BYTE PTR __k$[ebp+18], dl
  0013e	8a 50 13	 mov	 dl, BYTE PTR [eax+19]
  00141	84 d2		 test	 dl, dl
  00143	74 1a		 je	 SHORT $LN77@LoadFloat_@2
  00145	8a 40 14	 mov	 al, BYTE PTR [eax+20]
  00148	80 f2 ea	 xor	 dl, -22			; ffffffeaH
  0014b	88 55 f7	 mov	 BYTE PTR __k$[ebp+19], dl
  0014e	84 c0		 test	 al, al
  00150	74 07		 je	 SHORT $LN76@LoadFloat_@2
  00152	34 ed		 xor	 al, -19			; ffffffedH
  00154	88 45 f8	 mov	 BYTE PTR __k$[ebp+20], al
  00157	eb 72		 jmp	 SHORT $LN1@LoadFloat_@2
$LN76@LoadFloat_@2:
  00159	c6 45 f8 ed	 mov	 BYTE PTR __k$[ebp+20], -19 ; ffffffedH
  0015d	eb 6c		 jmp	 SHORT $LN1@LoadFloat_@2
$LN77@LoadFloat_@2:
  0015f	c6 45 f7 ea	 mov	 BYTE PTR __k$[ebp+19], -22 ; ffffffeaH
  00163	eb 66		 jmp	 SHORT $LN1@LoadFloat_@2
$LN78@LoadFloat_@2:
  00165	c6 45 f6 eb	 mov	 BYTE PTR __k$[ebp+18], -21 ; ffffffebH
  00169	eb 60		 jmp	 SHORT $LN1@LoadFloat_@2
$LN79@LoadFloat_@2:
  0016b	88 4d f5	 mov	 BYTE PTR __k$[ebp+17], cl
  0016e	eb 5b		 jmp	 SHORT $LN1@LoadFloat_@2
$LN81@LoadFloat_@2:
  00170	c6 45 f3 ea	 mov	 BYTE PTR __k$[ebp+15], -22 ; ffffffeaH
  00174	eb 55		 jmp	 SHORT $LN1@LoadFloat_@2
$LN82@LoadFloat_@2:
  00176	c6 45 f2 eb	 mov	 BYTE PTR __k$[ebp+14], -21 ; ffffffebH
  0017a	eb 4f		 jmp	 SHORT $LN1@LoadFloat_@2
$LN83@LoadFloat_@2:
  0017c	88 4d f1	 mov	 BYTE PTR __k$[ebp+13], cl
  0017f	eb 4a		 jmp	 SHORT $LN1@LoadFloat_@2
$LN84@LoadFloat_@2:
  00181	c6 45 f0 ed	 mov	 BYTE PTR __k$[ebp+12], -19 ; ffffffedH
  00185	eb 44		 jmp	 SHORT $LN1@LoadFloat_@2
$LN85@LoadFloat_@2:
  00187	c6 45 ef ea	 mov	 BYTE PTR __k$[ebp+11], -22 ; ffffffeaH
  0018b	eb 3e		 jmp	 SHORT $LN1@LoadFloat_@2
$LN86@LoadFloat_@2:
  0018d	c6 45 ee eb	 mov	 BYTE PTR __k$[ebp+10], -21 ; ffffffebH
  00191	eb 38		 jmp	 SHORT $LN1@LoadFloat_@2
$LN87@LoadFloat_@2:
  00193	88 4d ed	 mov	 BYTE PTR __k$[ebp+9], cl
  00196	eb 33		 jmp	 SHORT $LN1@LoadFloat_@2
$LN88@LoadFloat_@2:
  00198	c6 45 ec ed	 mov	 BYTE PTR __k$[ebp+8], -19 ; ffffffedH
  0019c	eb 2d		 jmp	 SHORT $LN1@LoadFloat_@2
$LN89@LoadFloat_@2:
  0019e	c6 45 eb ea	 mov	 BYTE PTR __k$[ebp+7], -22 ; ffffffeaH
  001a2	eb 27		 jmp	 SHORT $LN1@LoadFloat_@2
$LN90@LoadFloat_@2:
  001a4	c6 45 ea eb	 mov	 BYTE PTR __k$[ebp+6], -21 ; ffffffebH
  001a8	eb 21		 jmp	 SHORT $LN1@LoadFloat_@2
$LN91@LoadFloat_@2:
  001aa	88 4d e9	 mov	 BYTE PTR __k$[ebp+5], cl
  001ad	eb 1c		 jmp	 SHORT $LN1@LoadFloat_@2
$LN92@LoadFloat_@2:
  001af	c6 45 e8 ed	 mov	 BYTE PTR __k$[ebp+4], -19 ; ffffffedH
  001b3	eb 16		 jmp	 SHORT $LN1@LoadFloat_@2
$LN93@LoadFloat_@2:
  001b5	c6 45 e7 ea	 mov	 BYTE PTR __k$[ebp+3], -22 ; ffffffeaH
  001b9	eb 10		 jmp	 SHORT $LN1@LoadFloat_@2
$LN94@LoadFloat_@2:
  001bb	c6 45 e6 eb	 mov	 BYTE PTR __k$[ebp+2], -21 ; ffffffebH
  001bf	eb 0a		 jmp	 SHORT $LN1@LoadFloat_@2
$LN95@LoadFloat_@2:
  001c1	c6 45 e5 ec	 mov	 BYTE PTR __k$[ebp+1], -20 ; ffffffecH
  001c5	eb 04		 jmp	 SHORT $LN1@LoadFloat_@2
$LN96@LoadFloat_@2:
  001c7	c6 45 e4 ed	 mov	 BYTE PTR __k$[ebp], -19	; ffffffedH
$LN1@LoadFloat_@2:
  001cb	6a 04		 push	 4
  001cd	8d 45 e4	 lea	 eax, DWORD PTR __k$[ebp]
  001d0	c6 45 f4 00	 mov	 BYTE PTR __k$[ebp+16], 0
  001d4	5a		 pop	 edx
$LL104@LoadFloat_@2:
  001d5	81 30 ed ec eb
	ea		 xor	 DWORD PTR [eax], -353637139 ; eaebecedH
  001db	83 c0 04	 add	 eax, 4
  001de	4a		 dec	 edx
  001df	75 f4		 jne	 SHORT $LL104@LoadFloat_@2

; 137  : 		return LoadFloat(_k, f);

  001e1	f3 0f 10 45 0c	 movss	 xmm0, DWORD PTR _f$[ebp]
  001e6	51		 push	 ecx
  001e7	8d 45 e4	 lea	 eax, DWORD PTR __k$[ebp]
  001ea	f3 0f 11 04 24	 movss	 DWORD PTR [esp], xmm0
  001ef	50		 push	 eax
  001f0	8b ce		 mov	 ecx, esi
  001f2	ff 15 00 00 00
	00		 call	 DWORD PTR __imp_?LoadFloat@ioINILoader@@QAEMPBDM@Z

; 138  : 	}

  001f8	8b 4d fc	 mov	 ecx, DWORD PTR __$ArrayPad$[ebp]
  001fb	33 cd		 xor	 ecx, ebp
  001fd	5e		 pop	 esi
  001fe	e8 00 00 00 00	 call	 @__security_check_cookie@4
  00203	c9		 leave
  00204	c2 08 00	 ret	 8
??$LoadFloat_e@$0BB@@ioINILoader@@QAEMAAY0BB@$$CBDM@Z ENDP ; ioINILoader::LoadFloat_e<17>
_TEXT	ENDS
PUBLIC	__$ArrayPad$
PUBLIC	??$LoadFloat_e@$0BH@@ioINILoader@@QAEMAAY0BH@$$CBDM@Z ; ioINILoader::LoadFloat_e<23>
; Function compile flags: /Ogsp
;	COMDAT ??$LoadFloat_e@$0BH@@ioINILoader@@QAEMAAY0BH@$$CBDM@Z
_TEXT	SEGMENT
__k$ = -32						; size = 23
__$ArrayPad$ = -4					; size = 4
_k$ = 8							; size = 4
_f$ = 12						; size = 4
??$LoadFloat_e@$0BH@@ioINILoader@@QAEMAAY0BH@$$CBDM@Z PROC ; ioINILoader::LoadFloat_e<23>, COMDAT
; _this$ = ecx

; 135  : 	{

  00000	55		 push	 ebp
  00001	8b ec		 mov	 ebp, esp
  00003	83 ec 20	 sub	 esp, 32			; 00000020H
  00006	a1 00 00 00 00	 mov	 eax, DWORD PTR ___security_cookie
  0000b	33 c5		 xor	 eax, ebp
  0000d	89 45 fc	 mov	 DWORD PTR __$ArrayPad$[ebp], eax
  00010	8b 45 08	 mov	 eax, DWORD PTR _k$[ebp]

; 136  : 		_ENCSTR(k, _k);

  00013	8a 10		 mov	 dl, BYTE PTR [eax]
  00015	53		 push	 ebx
  00016	56		 push	 esi
  00017	8b f1		 mov	 esi, ecx
  00019	84 d2		 test	 dl, dl
  0001b	0f 84 2d 02 00
	00		 je	 $LN96@LoadFloat_@3
  00021	80 f2 ed	 xor	 dl, -19			; ffffffedH
  00024	88 55 e0	 mov	 BYTE PTR __k$[ebp], dl
  00027	8a 50 01	 mov	 dl, BYTE PTR [eax+1]
  0002a	84 d2		 test	 dl, dl
  0002c	0f 84 16 02 00
	00		 je	 $LN95@LoadFloat_@3
  00032	b1 ec		 mov	 cl, -20			; ffffffecH
  00034	32 d1		 xor	 dl, cl
  00036	88 55 e1	 mov	 BYTE PTR __k$[ebp+1], dl
  00039	8a 50 02	 mov	 dl, BYTE PTR [eax+2]
  0003c	84 d2		 test	 dl, dl
  0003e	0f 84 fe 01 00
	00		 je	 $LN94@LoadFloat_@3
  00044	80 f2 eb	 xor	 dl, -21			; ffffffebH
  00047	88 55 e2	 mov	 BYTE PTR __k$[ebp+2], dl
  0004a	8a 50 03	 mov	 dl, BYTE PTR [eax+3]
  0004d	84 d2		 test	 dl, dl
  0004f	0f 84 e7 01 00
	00		 je	 $LN93@LoadFloat_@3
  00055	b3 ea		 mov	 bl, -22			; ffffffeaH
  00057	32 d3		 xor	 dl, bl
  00059	88 55 e3	 mov	 BYTE PTR __k$[ebp+3], dl
  0005c	8a 50 04	 mov	 dl, BYTE PTR [eax+4]
  0005f	84 d2		 test	 dl, dl
  00061	0f 84 cf 01 00
	00		 je	 $LN92@LoadFloat_@3
  00067	80 f2 ed	 xor	 dl, -19			; ffffffedH
  0006a	88 55 e4	 mov	 BYTE PTR __k$[ebp+4], dl
  0006d	8a 50 05	 mov	 dl, BYTE PTR [eax+5]
  00070	84 d2		 test	 dl, dl
  00072	0f 84 b9 01 00
	00		 je	 $LN91@LoadFloat_@3
  00078	32 d1		 xor	 dl, cl
  0007a	88 55 e5	 mov	 BYTE PTR __k$[ebp+5], dl
  0007d	8a 50 06	 mov	 dl, BYTE PTR [eax+6]
  00080	84 d2		 test	 dl, dl
  00082	0f 84 a3 01 00
	00		 je	 $LN90@LoadFloat_@3
  00088	80 f2 eb	 xor	 dl, -21			; ffffffebH
  0008b	88 55 e6	 mov	 BYTE PTR __k$[ebp+6], dl
  0008e	8a 50 07	 mov	 dl, BYTE PTR [eax+7]
  00091	84 d2		 test	 dl, dl
  00093	0f 84 8d 01 00
	00		 je	 $LN89@LoadFloat_@3
  00099	32 d3		 xor	 dl, bl
  0009b	88 55 e7	 mov	 BYTE PTR __k$[ebp+7], dl
  0009e	8a 50 08	 mov	 dl, BYTE PTR [eax+8]
  000a1	84 d2		 test	 dl, dl
  000a3	0f 84 77 01 00
	00		 je	 $LN88@LoadFloat_@3
  000a9	80 f2 ed	 xor	 dl, -19			; ffffffedH
  000ac	88 55 e8	 mov	 BYTE PTR __k$[ebp+8], dl
  000af	8a 50 09	 mov	 dl, BYTE PTR [eax+9]
  000b2	84 d2		 test	 dl, dl
  000b4	0f 84 61 01 00
	00		 je	 $LN87@LoadFloat_@3
  000ba	32 d1		 xor	 dl, cl
  000bc	88 55 e9	 mov	 BYTE PTR __k$[ebp+9], dl
  000bf	8a 50 0a	 mov	 dl, BYTE PTR [eax+10]
  000c2	84 d2		 test	 dl, dl
  000c4	0f 84 4b 01 00
	00		 je	 $LN86@LoadFloat_@3
  000ca	80 f2 eb	 xor	 dl, -21			; ffffffebH
  000cd	88 55 ea	 mov	 BYTE PTR __k$[ebp+10], dl
  000d0	8a 50 0b	 mov	 dl, BYTE PTR [eax+11]
  000d3	84 d2		 test	 dl, dl
  000d5	0f 84 35 01 00
	00		 je	 $LN85@LoadFloat_@3
  000db	32 d3		 xor	 dl, bl
  000dd	88 55 eb	 mov	 BYTE PTR __k$[ebp+11], dl
  000e0	8a 50 0c	 mov	 dl, BYTE PTR [eax+12]
  000e3	84 d2		 test	 dl, dl
  000e5	0f 84 1f 01 00
	00		 je	 $LN84@LoadFloat_@3
  000eb	80 f2 ed	 xor	 dl, -19			; ffffffedH
  000ee	88 55 ec	 mov	 BYTE PTR __k$[ebp+12], dl
  000f1	8a 50 0d	 mov	 dl, BYTE PTR [eax+13]
  000f4	84 d2		 test	 dl, dl
  000f6	0f 84 09 01 00
	00		 je	 $LN83@LoadFloat_@3
  000fc	32 d1		 xor	 dl, cl
  000fe	88 55 ed	 mov	 BYTE PTR __k$[ebp+13], dl
  00101	8a 50 0e	 mov	 dl, BYTE PTR [eax+14]
  00104	84 d2		 test	 dl, dl
  00106	0f 84 f3 00 00
	00		 je	 $LN82@LoadFloat_@3
  0010c	80 f2 eb	 xor	 dl, -21			; ffffffebH
  0010f	88 55 ee	 mov	 BYTE PTR __k$[ebp+14], dl
  00112	8a 50 0f	 mov	 dl, BYTE PTR [eax+15]
  00115	84 d2		 test	 dl, dl
  00117	0f 84 dd 00 00
	00		 je	 $LN81@LoadFloat_@3
  0011d	32 d3		 xor	 dl, bl
  0011f	88 55 ef	 mov	 BYTE PTR __k$[ebp+15], dl
  00122	8a 50 10	 mov	 dl, BYTE PTR [eax+16]
  00125	84 d2		 test	 dl, dl
  00127	0f 84 c7 00 00
	00		 je	 $LN80@LoadFloat_@3
  0012d	80 f2 ed	 xor	 dl, -19			; ffffffedH
  00130	88 55 f0	 mov	 BYTE PTR __k$[ebp+16], dl
  00133	8a 50 11	 mov	 dl, BYTE PTR [eax+17]
  00136	84 d2		 test	 dl, dl
  00138	0f 84 b1 00 00
	00		 je	 $LN79@LoadFloat_@3
  0013e	32 d1		 xor	 dl, cl
  00140	88 55 f1	 mov	 BYTE PTR __k$[ebp+17], dl
  00143	8a 50 12	 mov	 dl, BYTE PTR [eax+18]
  00146	84 d2		 test	 dl, dl
  00148	0f 84 9b 00 00
	00		 je	 $LN78@LoadFloat_@3
  0014e	80 f2 eb	 xor	 dl, -21			; ffffffebH
  00151	88 55 f2	 mov	 BYTE PTR __k$[ebp+18], dl
  00154	8a 50 13	 mov	 dl, BYTE PTR [eax+19]
  00157	84 d2		 test	 dl, dl
  00159	0f 84 85 00 00
	00		 je	 $LN77@LoadFloat_@3
  0015f	32 d3		 xor	 dl, bl
  00161	88 55 f3	 mov	 BYTE PTR __k$[ebp+19], dl
  00164	8a 50 14	 mov	 dl, BYTE PTR [eax+20]
  00167	84 d2		 test	 dl, dl
  00169	74 73		 je	 SHORT $LN76@LoadFloat_@3
  0016b	80 f2 ed	 xor	 dl, -19			; ffffffedH
  0016e	88 55 f4	 mov	 BYTE PTR __k$[ebp+20], dl
  00171	8a 50 15	 mov	 dl, BYTE PTR [eax+21]
  00174	84 d2		 test	 dl, dl
  00176	74 61		 je	 SHORT $LN75@LoadFloat_@3
  00178	32 d1		 xor	 dl, cl
  0017a	80 78 16 00	 cmp	 BYTE PTR [eax+22], 0
  0017e	88 55 f5	 mov	 BYTE PTR __k$[ebp+21], dl
  00181	0f 84 cb 00 00
	00		 je	 $LN1@LoadFloat_@3
  00187	8a 50 17	 mov	 dl, BYTE PTR [eax+23]
  0018a	84 d2		 test	 dl, dl
  0018c	74 46		 je	 SHORT $LN73@LoadFloat_@3
  0018e	32 d3		 xor	 dl, bl
  00190	88 55 f7	 mov	 BYTE PTR __k$[ebp+23], dl
  00193	8a 50 18	 mov	 dl, BYTE PTR [eax+24]
  00196	84 d2		 test	 dl, dl
  00198	74 34		 je	 SHORT $LN72@LoadFloat_@3
  0019a	80 f2 ed	 xor	 dl, -19			; ffffffedH
  0019d	88 55 f8	 mov	 BYTE PTR __k$[ebp+24], dl
  001a0	8a 50 19	 mov	 dl, BYTE PTR [eax+25]
  001a3	84 d2		 test	 dl, dl
  001a5	74 1f		 je	 SHORT $LN71@LoadFloat_@3
  001a7	8a 40 1a	 mov	 al, BYTE PTR [eax+26]
  001aa	32 d1		 xor	 dl, cl
  001ac	88 55 f9	 mov	 BYTE PTR __k$[ebp+25], dl
  001af	84 c0		 test	 al, al
  001b1	74 0a		 je	 SHORT $LN70@LoadFloat_@3
  001b3	34 eb		 xor	 al, -21			; ffffffebH
  001b5	88 45 fa	 mov	 BYTE PTR __k$[ebp+26], al
  001b8	e9 95 00 00 00	 jmp	 $LN1@LoadFloat_@3
$LN70@LoadFloat_@3:
  001bd	c6 45 fa eb	 mov	 BYTE PTR __k$[ebp+26], -21 ; ffffffebH
  001c1	e9 8c 00 00 00	 jmp	 $LN1@LoadFloat_@3
$LN71@LoadFloat_@3:
  001c6	88 4d f9	 mov	 BYTE PTR __k$[ebp+25], cl
  001c9	e9 84 00 00 00	 jmp	 $LN1@LoadFloat_@3
$LN72@LoadFloat_@3:
  001ce	c6 45 f8 ed	 mov	 BYTE PTR __k$[ebp+24], -19 ; ffffffedH
  001d2	eb 7e		 jmp	 SHORT $LN1@LoadFloat_@3
$LN73@LoadFloat_@3:
  001d4	88 5d f7	 mov	 BYTE PTR __k$[ebp+23], bl
  001d7	eb 79		 jmp	 SHORT $LN1@LoadFloat_@3
$LN75@LoadFloat_@3:
  001d9	88 4d f5	 mov	 BYTE PTR __k$[ebp+21], cl
  001dc	eb 74		 jmp	 SHORT $LN1@LoadFloat_@3
$LN76@LoadFloat_@3:
  001de	c6 45 f4 ed	 mov	 BYTE PTR __k$[ebp+20], -19 ; ffffffedH
  001e2	eb 6e		 jmp	 SHORT $LN1@LoadFloat_@3
$LN77@LoadFloat_@3:
  001e4	88 5d f3	 mov	 BYTE PTR __k$[ebp+19], bl
  001e7	eb 69		 jmp	 SHORT $LN1@LoadFloat_@3
$LN78@LoadFloat_@3:
  001e9	c6 45 f2 eb	 mov	 BYTE PTR __k$[ebp+18], -21 ; ffffffebH
  001ed	eb 63		 jmp	 SHORT $LN1@LoadFloat_@3
$LN79@LoadFloat_@3:
  001ef	88 4d f1	 mov	 BYTE PTR __k$[ebp+17], cl
  001f2	eb 5e		 jmp	 SHORT $LN1@LoadFloat_@3
$LN80@LoadFloat_@3:
  001f4	c6 45 f0 ed	 mov	 BYTE PTR __k$[ebp+16], -19 ; ffffffedH
  001f8	eb 58		 jmp	 SHORT $LN1@LoadFloat_@3
$LN81@LoadFloat_@3:
  001fa	88 5d ef	 mov	 BYTE PTR __k$[ebp+15], bl
  001fd	eb 53		 jmp	 SHORT $LN1@LoadFloat_@3
$LN82@LoadFloat_@3:
  001ff	c6 45 ee eb	 mov	 BYTE PTR __k$[ebp+14], -21 ; ffffffebH
  00203	eb 4d		 jmp	 SHORT $LN1@LoadFloat_@3
$LN83@LoadFloat_@3:
  00205	88 4d ed	 mov	 BYTE PTR __k$[ebp+13], cl
  00208	eb 48		 jmp	 SHORT $LN1@LoadFloat_@3
$LN84@LoadFloat_@3:
  0020a	c6 45 ec ed	 mov	 BYTE PTR __k$[ebp+12], -19 ; ffffffedH
  0020e	eb 42		 jmp	 SHORT $LN1@LoadFloat_@3
$LN85@LoadFloat_@3:
  00210	88 5d eb	 mov	 BYTE PTR __k$[ebp+11], bl
  00213	eb 3d		 jmp	 SHORT $LN1@LoadFloat_@3
$LN86@LoadFloat_@3:
  00215	c6 45 ea eb	 mov	 BYTE PTR __k$[ebp+10], -21 ; ffffffebH
  00219	eb 37		 jmp	 SHORT $LN1@LoadFloat_@3
$LN87@LoadFloat_@3:
  0021b	88 4d e9	 mov	 BYTE PTR __k$[ebp+9], cl
  0021e	eb 32		 jmp	 SHORT $LN1@LoadFloat_@3
$LN88@LoadFloat_@3:
  00220	c6 45 e8 ed	 mov	 BYTE PTR __k$[ebp+8], -19 ; ffffffedH
  00224	eb 2c		 jmp	 SHORT $LN1@LoadFloat_@3
$LN89@LoadFloat_@3:
  00226	88 5d e7	 mov	 BYTE PTR __k$[ebp+7], bl
  00229	eb 27		 jmp	 SHORT $LN1@LoadFloat_@3
$LN90@LoadFloat_@3:
  0022b	c6 45 e6 eb	 mov	 BYTE PTR __k$[ebp+6], -21 ; ffffffebH
  0022f	eb 21		 jmp	 SHORT $LN1@LoadFloat_@3
$LN91@LoadFloat_@3:
  00231	88 4d e5	 mov	 BYTE PTR __k$[ebp+5], cl
  00234	eb 1c		 jmp	 SHORT $LN1@LoadFloat_@3
$LN92@LoadFloat_@3:
  00236	c6 45 e4 ed	 mov	 BYTE PTR __k$[ebp+4], -19 ; ffffffedH
  0023a	eb 16		 jmp	 SHORT $LN1@LoadFloat_@3
$LN93@LoadFloat_@3:
  0023c	c6 45 e3 ea	 mov	 BYTE PTR __k$[ebp+3], -22 ; ffffffeaH
  00240	eb 10		 jmp	 SHORT $LN1@LoadFloat_@3
$LN94@LoadFloat_@3:
  00242	c6 45 e2 eb	 mov	 BYTE PTR __k$[ebp+2], -21 ; ffffffebH
  00246	eb 0a		 jmp	 SHORT $LN1@LoadFloat_@3
$LN95@LoadFloat_@3:
  00248	c6 45 e1 ec	 mov	 BYTE PTR __k$[ebp+1], -20 ; ffffffecH
  0024c	eb 04		 jmp	 SHORT $LN1@LoadFloat_@3
$LN96@LoadFloat_@3:
  0024e	c6 45 e0 ed	 mov	 BYTE PTR __k$[ebp], -19	; ffffffedH
$LN1@LoadFloat_@3:
  00252	6a 05		 push	 5
  00254	8d 45 e0	 lea	 eax, DWORD PTR __k$[ebp]
  00257	c6 45 f6 00	 mov	 BYTE PTR __k$[ebp+22], 0
  0025b	5a		 pop	 edx
$LL104@LoadFloat_@3:
  0025c	81 30 ed ec eb
	ea		 xor	 DWORD PTR [eax], -353637139 ; eaebecedH
  00262	83 c0 04	 add	 eax, 4
  00265	4a		 dec	 edx
  00266	75 f4		 jne	 SHORT $LL104@LoadFloat_@3
  00268	6a 14		 push	 20			; 00000014H
  0026a	58		 pop	 eax
$LL101@LoadFloat_@3:
  0026b	8b c8		 mov	 ecx, eax
  0026d	81 e1 03 00 00
	80		 and	 ecx, -2147483645	; 80000003H
  00273	79 05		 jns	 SHORT $LN111@LoadFloat_@3
  00275	49		 dec	 ecx
  00276	83 c9 fc	 or	 ecx, -4			; fffffffcH
  00279	41		 inc	 ecx
$LN111@LoadFloat_@3:
  0027a	b2 ed		 mov	 dl, -19			; ffffffedH
  0027c	2a d1		 sub	 dl, cl
  0027e	30 54 05 e0	 xor	 BYTE PTR __k$[ebp+eax], dl
  00282	40		 inc	 eax
  00283	83 f8 16	 cmp	 eax, 22			; 00000016H
  00286	7c e3		 jl	 SHORT $LL101@LoadFloat_@3

; 137  : 		return LoadFloat(_k, f);

  00288	f3 0f 10 45 0c	 movss	 xmm0, DWORD PTR _f$[ebp]
  0028d	51		 push	 ecx
  0028e	8d 45 e0	 lea	 eax, DWORD PTR __k$[ebp]
  00291	f3 0f 11 04 24	 movss	 DWORD PTR [esp], xmm0
  00296	50		 push	 eax
  00297	8b ce		 mov	 ecx, esi
  00299	ff 15 00 00 00
	00		 call	 DWORD PTR __imp_?LoadFloat@ioINILoader@@QAEMPBDM@Z

; 138  : 	}

  0029f	8b 4d fc	 mov	 ecx, DWORD PTR __$ArrayPad$[ebp]
  002a2	5e		 pop	 esi
  002a3	33 cd		 xor	 ecx, ebp
  002a5	5b		 pop	 ebx
  002a6	e8 00 00 00 00	 call	 @__security_check_cookie@4
  002ab	c9		 leave
  002ac	c2 08 00	 ret	 8
??$LoadFloat_e@$0BH@@ioINILoader@@QAEMAAY0BH@$$CBDM@Z ENDP ; ioINILoader::LoadFloat_e<23>
_TEXT	ENDS
PUBLIC	__real@3fd2ee0d320154cb
PUBLIC	__real@41f0000000000000
PUBLIC	??$RADtoDEG@M@@YAMM@Z				; RADtoDEG<float>
;	COMDAT __real@3fd2ee0d320154cb
; File d:\lost saga for developer\youtube\tutorial\source\src\lsclient\veryoftenusedefine.h
CONST	SEGMENT
__real@3fd2ee0d320154cb DQ 03fd2ee0d320154cbr	; 0.29578
CONST	ENDS
;	COMDAT __real@41f0000000000000
CONST	SEGMENT
__real@41f0000000000000 DQ 041f0000000000000r	; 4.29497e+009
; Function compile flags: /Ogsp
CONST	ENDS
;	COMDAT ??$RADtoDEG@M@@YAMM@Z
_TEXT	SEGMENT
tv130 = -4						; size = 4
tv75 = 8						; size = 4
_val$ = 8						; size = 4
??$RADtoDEG@M@@YAMM@Z PROC				; RADtoDEG<float>, COMDAT

; 18   : type  RADtoDEG (type val) {return (type) (val * (return57() + 0.2957795132)); }

  00000	55		 push	 ebp
  00001	8b ec		 mov	 ebp, esp
  00003	51		 push	 ecx
  00004	b8 39 00 00 00	 mov	 eax, 57			; 00000039H
  00009	89 45 fc	 mov	 DWORD PTR tv130[ebp], eax
  0000c	db 45 fc	 fild	 DWORD PTR tv130[ebp]
  0000f	85 c0		 test	 eax, eax
  00011	79 06		 jns	 SHORT $LN5@RADtoDEG
  00013	dc 05 00 00 00
	00		 fadd	 QWORD PTR __real@41f0000000000000
$LN5@RADtoDEG:
  00019	dc 05 00 00 00
	00		 fadd	 QWORD PTR __real@3fd2ee0d320154cb
  0001f	d8 4d 08	 fmul	 DWORD PTR _val$[ebp]
  00022	d9 5d 08	 fstp	 DWORD PTR tv75[ebp]
  00025	d9 45 08	 fld	 DWORD PTR tv75[ebp]
  00028	c9		 leave
  00029	c3		 ret	 0
??$RADtoDEG@M@@YAMM@Z ENDP				; RADtoDEG<float>
_TEXT	ENDS
PUBLIC	??B?$CEncrypt@M@@QAEMXZ				; CEncrypt<float>::operator float
; Function compile flags: /Ogsp
; File d:\lost saga for developer\youtube\tutorial\source\src\lsclient\encryptvalue.h
;	COMDAT ??B?$CEncrypt@M@@QAEMXZ
_TEXT	SEGMENT
_value$ = -4						; size = 4
??B?$CEncrypt@M@@QAEMXZ PROC				; CEncrypt<float>::operator float, COMDAT
; _this$ = ecx

; 134  : 	{

  00000	55		 push	 ebp
  00001	8b ec		 mov	 ebp, esp
  00003	51		 push	 ecx

; 135  : 		type value;
; 136  : 		DecryptValueToPool(&value);

  00004	8d 45 fc	 lea	 eax, DWORD PTR _value$[ebp]
  00007	50		 push	 eax
  00008	e8 00 00 00 00	 call	 ?DecryptValueToPool@?$CEncrypt@M@@QAEXPAM@Z ; CEncrypt<float>::DecryptValueToPool

; 137  : 
; 138  : #ifdef _NOTUSE
; 139  : 		Debug();
; 140  : #endif
; 141  : 		return value;

  0000d	d9 45 fc	 fld	 DWORD PTR _value$[ebp]

; 142  : 	}

  00010	c9		 leave
  00011	c3		 ret	 0
??B?$CEncrypt@M@@QAEMXZ ENDP				; CEncrypt<float>::operator float
_TEXT	ENDS
PUBLIC	??O?$CEncrypt@M@@QAE_NABM@Z			; CEncrypt<float>::operator>
; Function compile flags: /Ogsp
;	COMDAT ??O?$CEncrypt@M@@QAE_NABM@Z
_TEXT	SEGMENT
_value$ = -4						; size = 4
_inValue$ = 8						; size = 4
??O?$CEncrypt@M@@QAE_NABM@Z PROC			; CEncrypt<float>::operator>, COMDAT
; _this$ = ecx

; 1811 : 	{

  00000	55		 push	 ebp
  00001	8b ec		 mov	 ebp, esp
  00003	51		 push	 ecx

; 1812 : 		type value;
; 1813 : 		DecryptValueToPool(&value);

  00004	8d 45 fc	 lea	 eax, DWORD PTR _value$[ebp]
  00007	50		 push	 eax
  00008	e8 00 00 00 00	 call	 ?DecryptValueToPool@?$CEncrypt@M@@QAEXPAM@Z ; CEncrypt<float>::DecryptValueToPool

; 1814 : #ifdef _NOTUSE
; 1815 : 		Debug();
; 1816 : #endif
; 1817 : 		return (value > inValue);

  0000d	8b 45 08	 mov	 eax, DWORD PTR _inValue$[ebp]
  00010	f3 0f 10 08	 movss	 xmm1, DWORD PTR [eax]
  00014	f3 0f 10 45 fc	 movss	 xmm0, DWORD PTR _value$[ebp]
  00019	0f 5a c0	 cvtps2pd xmm0, xmm0
  0001c	0f 5a c9	 cvtps2pd xmm1, xmm1
  0001f	33 c0		 xor	 eax, eax
  00021	66 0f 2f c1	 comisd	 xmm0, xmm1
  00025	76 01		 jbe	 SHORT $LN4@operator
  00027	40		 inc	 eax
$LN4@operator:

; 1818 : 	}		

  00028	c9		 leave
  00029	c2 04 00	 ret	 4
??O?$CEncrypt@M@@QAE_NABM@Z ENDP			; CEncrypt<float>::operator>
_TEXT	ENDS
PUBLIC	??B?$CEncrypt@_N@@QAE_NXZ			; CEncrypt<bool>::operator bool
; Function compile flags: /Ogsp
;	COMDAT ??B?$CEncrypt@_N@@QAE_NXZ
_TEXT	SEGMENT
_value$ = -1						; size = 1
??B?$CEncrypt@_N@@QAE_NXZ PROC				; CEncrypt<bool>::operator bool, COMDAT
; _this$ = ecx

; 134  : 	{

  00000	55		 push	 ebp
  00001	8b ec		 mov	 ebp, esp
  00003	51		 push	 ecx

; 135  : 		type value;
; 136  : 		DecryptValueToPool(&value);

  00004	8d 45 ff	 lea	 eax, DWORD PTR _value$[ebp]
  00007	50		 push	 eax
  00008	e8 00 00 00 00	 call	 ?DecryptValueToPool@?$CEncrypt@_N@@QAEXPA_N@Z ; CEncrypt<bool>::DecryptValueToPool

; 137  : 
; 138  : #ifdef _NOTUSE
; 139  : 		Debug();
; 140  : #endif
; 141  : 		return value;

  0000d	8a 45 ff	 mov	 al, BYTE PTR _value$[ebp]

; 142  : 	}

  00010	c9		 leave
  00011	c3		 ret	 0
??B?$CEncrypt@_N@@QAE_NXZ ENDP				; CEncrypt<bool>::operator bool
_TEXT	ENDS
PUBLIC	??B?$CEncrypt@W4TeamType@@@@QBE?AW4TeamType@@XZ	; CEncrypt<enum TeamType>::operator enum TeamType
; Function compile flags: /Ogsp
;	COMDAT ??B?$CEncrypt@W4TeamType@@@@QBE?AW4TeamType@@XZ
_TEXT	SEGMENT
_value$ = -4						; size = 4
??B?$CEncrypt@W4TeamType@@@@QBE?AW4TeamType@@XZ PROC	; CEncrypt<enum TeamType>::operator enum TeamType, COMDAT
; _this$ = ecx

; 145  : 	{

  00000	55		 push	 ebp
  00001	8b ec		 mov	 ebp, esp
  00003	51		 push	 ecx

; 146  : 		//UJ 130829, const    --start
; 147  : 		type value;
; 148  : 		CEncrypt<type>* pThis = const_cast<CEncrypt<type>*>(this);
; 149  : 		pThis->DecryptValueToPool(&value);

  00004	8d 45 fc	 lea	 eax, DWORD PTR _value$[ebp]
  00007	50		 push	 eax
  00008	e8 00 00 00 00	 call	 ?DecryptValueToPool@?$CEncrypt@W4TeamType@@@@QAEXPAW4TeamType@@@Z ; CEncrypt<enum TeamType>::DecryptValueToPool

; 150  : 		//// const DecryptValueToPool     .
; 151  :  		//type value;
; 152  : 		//char szTempMem[MAX_ENCRYPT];
; 153  : 		//m_RC5.DecryptByte( m_MemPool, szTempMem, max(m_ValueSize, DEFAULT_ENCRYPT) );
; 154  : 		//memcpy( &value, szTempMem, m_ValueSize );
; 155  : 		//UJ --end
; 156  : 
; 157  : #ifdef _NOTUSE
; 158  : 		Debug();
; 159  : #endif
; 160  : 		return value;

  0000d	8b 45 fc	 mov	 eax, DWORD PTR _value$[ebp]

; 161  : 	}

  00010	c9		 leave
  00011	c3		 ret	 0
??B?$CEncrypt@W4TeamType@@@@QBE?AW4TeamType@@XZ ENDP	; CEncrypt<enum TeamType>::operator enum TeamType
_TEXT	ENDS
PUBLIC	??_C@_00CNPNBAHC@?$AA@				; `string'
PUBLIC	_rkLoader$GSCopy$
PUBLIC	__$ArrayPad$
EXTRN	__imp_??4ioHashString@@QAEAAV0@PBD@Z:PROC
EXTRN	?LoadProperty@ioWeapon@@UAEXAAVioINILoader@@@Z:PROC ; ioWeapon::LoadProperty
EXTRN	__ftol2:PROC
EXTRN	_memset:PROC
;	COMDAT ??_C@_00CNPNBAHC@?$AA@
; File d:\lost saga for developer\youtube\tutorial\source\src\lsclient\stringprotect.h
CONST	SEGMENT
??_C@_00CNPNBAHC@?$AA@ DB 00H				; `string'
; Function compile flags: /Ogsp
; File d:\lost saga for developer\youtube\tutorial\source\src\lsclient\iocontrolmissileweapon.cpp
CONST	ENDS
;	COMDAT ?LoadProperty@ioControlMissileWeapon@@UAEXAAVioINILoader@@@Z
_TEXT	SEGMENT
_rkLoader$GSCopy$ = -296				; size = 4
_szBuf$ = -292						; size = 260
__k$534910 = -32					; size = 23
__k$534541 = -32					; size = 24
__k$534841 = -28					; size = 17
__k$534285 = -28					; size = 18
__k$534035 = -28					; size = 17
__k$534673 = -24					; size = 16
__k$534410 = -24					; size = 16
__k$534160 = -24					; size = 13
__k$533953 = -24					; size = 16
__k$533798 = -20					; size = 10
__$ArrayPad$ = -4					; size = 4
_rkLoader$ = 8						; size = 4
?LoadProperty@ioControlMissileWeapon@@UAEXAAVioINILoader@@@Z PROC ; ioControlMissileWeapon::LoadProperty, COMDAT
; _this$ = ecx

; 43   : {

  00000	55		 push	 ebp
  00001	8b ec		 mov	 ebp, esp
  00003	81 ec 28 01 00
	00		 sub	 esp, 296		; 00000128H
  00009	a1 00 00 00 00	 mov	 eax, DWORD PTR ___security_cookie
  0000e	33 c5		 xor	 eax, ebp
  00010	89 45 fc	 mov	 DWORD PTR __$ArrayPad$[ebp], eax
  00013	53		 push	 ebx
  00014	56		 push	 esi
  00015	57		 push	 edi
  00016	8b 7d 08	 mov	 edi, DWORD PTR _rkLoader$[ebp]

; 44   : 	ioWeapon::LoadProperty( rkLoader );

  00019	57		 push	 edi
  0001a	8b f1		 mov	 esi, ecx

; 63   : 	m_fReturnEndRange = rkLoader.LoadFloat_e( "return_end_range", 0.0f );

  0001c	89 bd d8 fe ff
	ff		 mov	 DWORD PTR _rkLoader$GSCopy$[ebp], edi
  00022	e8 00 00 00 00	 call	 ?LoadProperty@ioWeapon@@UAEXAAVioINILoader@@@Z ; ioWeapon::LoadProperty
  00027	33 db		 xor	 ebx, ebx
  00029	68 03 01 00 00	 push	 259			; 00000103H
  0002e	8d 85 dd fe ff
	ff		 lea	 eax, DWORD PTR _szBuf$[ebp+1]
  00034	53		 push	 ebx
  00035	50		 push	 eax
  00036	88 9d dc fe ff
	ff		 mov	 BYTE PTR _szBuf$[ebp], bl
  0003c	e8 00 00 00 00	 call	 _memset
  00041	83 c4 0c	 add	 esp, 12			; 0000000cH
  00044	6a 02		 push	 2
  00046	c7 45 ec 81 85
	9d 8f		 mov	 DWORD PTR __k$533798[ebp], -1885502079 ; 8f9d8581H
  0004d	c7 45 f0 b2 98
	82 87		 mov	 DWORD PTR __k$533798[ebp+4], -2021484366 ; 878298b2H
  00054	8d 45 ec	 lea	 eax, DWORD PTR __k$533798[ebp]
  00057	66 c7 45 f4 88
	00		 mov	 WORD PTR __k$533798[ebp+8], 136 ; 00000088H
  0005d	59		 pop	 ecx
$LL106@LoadProper:

; 45   : 
; 46   : 	char szBuf[MAX_PATH] = "";
; 47   : 
; 48   : 	m_dwLiveTime = rkLoader.LoadInt_e( "live_time", 0 );

  0005e	81 30 ed ec eb
	ea		 xor	 DWORD PTR [eax], -353637139 ; eaebecedH
  00064	83 c0 04	 add	 eax, 4
  00067	49		 dec	 ecx
  00068	75 f4		 jne	 SHORT $LL106@LoadProper
  0006a	80 75 f4 ed	 xor	 BYTE PTR __k$533798[ebp+8], -19 ; ffffffedH
  0006e	53		 push	 ebx
  0006f	8d 45 ec	 lea	 eax, DWORD PTR __k$533798[ebp]
  00072	8b cf		 mov	 ecx, edi
  00074	8b 3d 00 00 00
	00		 mov	 edi, DWORD PTR __imp_?LoadInt@ioINILoader@@QAEHPBDH@Z
  0007a	50		 push	 eax
  0007b	ff d7		 call	 edi
  0007d	6a 03		 push	 3
  0007f	89 86 d8 04 00
	00		 mov	 DWORD PTR [esi+1240], eax

; 49   : 
; 50   : 	rkLoader.LoadString_e( "red_team_effect", "", szBuf, MAX_PATH );

  00085	c7 45 e8 9f 89
	8f b5		 mov	 DWORD PTR __k$533953[ebp], -1248884321 ; b58f899fH
  0008c	c7 45 ec 99 89
	8a 87		 mov	 DWORD PTR __k$533953[ebp+4], -2020963943 ; 878a8999H
  00093	c7 45 f0 b2 89
	8d 8c		 mov	 DWORD PTR __k$533953[ebp+8], -1936881230 ; 8c8d89b2H
  0009a	8d 45 e8	 lea	 eax, DWORD PTR __k$533953[ebp]
  0009d	c7 45 f4 88 8f
	9f 00		 mov	 DWORD PTR __k$533953[ebp+12], 10456968 ; 009f8f88H
  000a4	59		 pop	 ecx
$LL212@LoadProper:
  000a5	81 30 ed ec eb
	ea		 xor	 DWORD PTR [eax], -353637139 ; eaebecedH
  000ab	83 c0 04	 add	 eax, 4
  000ae	49		 dec	 ecx
  000af	75 f4		 jne	 SHORT $LL212@LoadProper
  000b1	6a 0c		 push	 12			; 0000000cH
  000b3	58		 pop	 eax
$LL209@LoadProper:
  000b4	8b c8		 mov	 ecx, eax
  000b6	81 e1 03 00 00
	80		 and	 ecx, -2147483645	; 80000003H
  000bc	79 05		 jns	 SHORT $LN1103@LoadProper
  000be	49		 dec	 ecx
  000bf	83 c9 fc	 or	 ecx, -4			; fffffffcH
  000c2	41		 inc	 ecx
$LN1103@LoadProper:
  000c3	b2 ed		 mov	 dl, -19			; ffffffedH
  000c5	2a d1		 sub	 dl, cl
  000c7	30 54 05 e8	 xor	 BYTE PTR __k$533953[ebp+eax], dl
  000cb	40		 inc	 eax
  000cc	83 f8 0f	 cmp	 eax, 15			; 0000000fH
  000cf	7c e3		 jl	 SHORT $LL209@LoadProper
  000d1	8b 8d d8 fe ff
	ff		 mov	 ecx, DWORD PTR _rkLoader$GSCopy$[ebp]
  000d7	68 04 01 00 00	 push	 260			; 00000104H
  000dc	8d 85 dc fe ff
	ff		 lea	 eax, DWORD PTR _szBuf$[ebp]
  000e2	50		 push	 eax
  000e3	68 00 00 00 00	 push	 OFFSET ??_C@_00CNPNBAHC@?$AA@
  000e8	8d 45 e8	 lea	 eax, DWORD PTR __k$533953[ebp]
  000eb	50		 push	 eax
  000ec	ff 15 00 00 00
	00		 call	 DWORD PTR __imp_?LoadStringA@ioINILoader@@QAEXPBD0PADH@Z

; 51   : 	m_RedTeamEffect = szBuf;

  000f2	8d 85 dc fe ff
	ff		 lea	 eax, DWORD PTR _szBuf$[ebp]
  000f8	50		 push	 eax
  000f9	8d 8e ec 08 00
	00		 lea	 ecx, DWORD PTR [esi+2284]
  000ff	ff 15 00 00 00
	00		 call	 DWORD PTR __imp_??4ioHashString@@QAEAAV0@PBD@Z
  00105	6a 04		 push	 4

; 52   : 	rkLoader.LoadString_e( "blue_team_effect", "", szBuf, MAX_PATH );

  00107	c7 45 e4 8f 80
	9e 8f		 mov	 DWORD PTR __k$534035[ebp], -1885437809 ; 8f9e808fH
  0010e	c7 45 e8 b2 98
	8e 8b		 mov	 DWORD PTR __k$534035[ebp+4], -1953589070 ; 8b8e98b2H
  00115	c7 45 ec 80 b3
	8e 8c		 mov	 DWORD PTR __k$534035[ebp+8], -1936804992 ; 8c8eb380H
  0011c	c7 45 f0 8b 89
	88 9e		 mov	 DWORD PTR __k$534035[ebp+12], -1635219061 ; 9e88898bH
  00123	8d 45 e4	 lea	 eax, DWORD PTR __k$534035[ebp]
  00126	88 5d f4	 mov	 BYTE PTR __k$534035[ebp+16], bl
  00129	59		 pop	 ecx
$LL318@LoadProper:
  0012a	81 30 ed ec eb
	ea		 xor	 DWORD PTR [eax], -353637139 ; eaebecedH
  00130	83 c0 04	 add	 eax, 4
  00133	49		 dec	 ecx
  00134	75 f4		 jne	 SHORT $LL318@LoadProper
  00136	8b 8d d8 fe ff
	ff		 mov	 ecx, DWORD PTR _rkLoader$GSCopy$[ebp]
  0013c	68 04 01 00 00	 push	 260			; 00000104H
  00141	8d 85 dc fe ff
	ff		 lea	 eax, DWORD PTR _szBuf$[ebp]
  00147	50		 push	 eax
  00148	68 00 00 00 00	 push	 OFFSET ??_C@_00CNPNBAHC@?$AA@
  0014d	8d 45 e4	 lea	 eax, DWORD PTR __k$534035[ebp]
  00150	50		 push	 eax
  00151	ff 15 00 00 00
	00		 call	 DWORD PTR __imp_?LoadStringA@ioINILoader@@QAEXPBD0PADH@Z

; 53   : 	m_BlueTeamEffect = szBuf;

  00157	8d 85 dc fe ff
	ff		 lea	 eax, DWORD PTR _szBuf$[ebp]
  0015d	50		 push	 eax
  0015e	8d 8e fc 08 00
	00		 lea	 ecx, DWORD PTR [esi+2300]
  00164	ff 15 00 00 00
	00		 call	 DWORD PTR __imp_??4ioHashString@@QAEAAV0@PBD@Z
  0016a	6a 03		 push	 3

; 54   : 
; 55   : 	m_dwRotateTime = (DWORD)rkLoader.LoadInt_e( "rotate_speed", 0 );

  0016c	c7 45 e8 9f 83
	9f 8b		 mov	 DWORD PTR __k$534160[ebp], -1952480353 ; 8b9f839fH
  00173	c7 45 ec 99 89
	b4 99		 mov	 DWORD PTR __k$534160[ebp+4], -1716221543 ; 99b48999H
  0017a	c7 45 f0 9d 89
	8e 8e		 mov	 DWORD PTR __k$534160[ebp+8], -1903261283 ; 8e8e899dH
  00181	8d 45 e8	 lea	 eax, DWORD PTR __k$534160[ebp]
  00184	88 5d f4	 mov	 BYTE PTR __k$534160[ebp+12], bl
  00187	59		 pop	 ecx
$LL424@LoadProper:
  00188	81 30 ed ec eb
	ea		 xor	 DWORD PTR [eax], -353637139 ; eaebecedH
  0018e	83 c0 04	 add	 eax, 4
  00191	49		 dec	 ecx
  00192	75 f4		 jne	 SHORT $LL424@LoadProper
  00194	8b 8d d8 fe ff
	ff		 mov	 ecx, DWORD PTR _rkLoader$GSCopy$[ebp]
  0019a	53		 push	 ebx
  0019b	8d 45 e8	 lea	 eax, DWORD PTR __k$534160[ebp]
  0019e	50		 push	 eax
  0019f	ff d7		 call	 edi
  001a1	6a 04		 push	 4
  001a3	89 86 24 09 00
	00		 mov	 DWORD PTR [esi+2340], eax

; 56   : 	m_dwRotateStartTime = (DWORD)rkLoader.LoadInt_e( "rotate_start_time", 0 );

  001a9	c7 45 e4 9f 83
	9f 8b		 mov	 DWORD PTR __k$534285[ebp], -1952480353 ; 8b9f839fH
  001b0	c7 45 e8 99 89
	b4 99		 mov	 DWORD PTR __k$534285[ebp+4], -1716221543 ; 99b48999H
  001b7	c7 45 ec 99 8d
	99 9e		 mov	 DWORD PTR __k$534285[ebp+8], -1634103911 ; 9e998d99H
  001be	c7 45 f0 b2 98
	82 87		 mov	 DWORD PTR __k$534285[ebp+12], -2021484366 ; 878298b2H
  001c5	8d 45 e4	 lea	 eax, DWORD PTR __k$534285[ebp]
  001c8	66 c7 45 f4 88
	00		 mov	 WORD PTR __k$534285[ebp+16], 136 ; 00000088H
  001ce	59		 pop	 ecx
$LL530@LoadProper:
  001cf	81 30 ed ec eb
	ea		 xor	 DWORD PTR [eax], -353637139 ; eaebecedH
  001d5	83 c0 04	 add	 eax, 4
  001d8	49		 dec	 ecx
  001d9	75 f4		 jne	 SHORT $LL530@LoadProper
  001db	8b 8d d8 fe ff
	ff		 mov	 ecx, DWORD PTR _rkLoader$GSCopy$[ebp]
  001e1	80 75 f4 ed	 xor	 BYTE PTR __k$534285[ebp+16], -19 ; ffffffedH
  001e5	53		 push	 ebx
  001e6	8d 45 e4	 lea	 eax, DWORD PTR __k$534285[ebp]
  001e9	50		 push	 eax
  001ea	ff d7		 call	 edi
  001ec	6a 03		 push	 3
  001ee	89 86 28 09 00
	00		 mov	 DWORD PTR [esi+2344], eax

; 57   : 	m_dwRotateEndTime = (DWORD)rkLoader.LoadInt_e( "rotate_end_time", 0 );

  001f4	c7 45 e8 9f 83
	9f 8b		 mov	 DWORD PTR __k$534410[ebp], -1952480353 ; 8b9f839fH
  001fb	c7 45 ec 99 89
	b4 8f		 mov	 DWORD PTR __k$534410[ebp+4], -1883993703 ; 8fb48999H
  00202	c7 45 f0 83 88
	b4 9e		 mov	 DWORD PTR __k$534410[ebp+8], -1632335741 ; 9eb48883H
  00209	8d 45 e8	 lea	 eax, DWORD PTR __k$534410[ebp]
  0020c	c7 45 f4 84 81
	8e 00		 mov	 DWORD PTR __k$534410[ebp+12], 9339268 ; 008e8184H
  00213	59		 pop	 ecx
$LL636@LoadProper:
  00214	81 30 ed ec eb
	ea		 xor	 DWORD PTR [eax], -353637139 ; eaebecedH
  0021a	83 c0 04	 add	 eax, 4
  0021d	49		 dec	 ecx
  0021e	75 f4		 jne	 SHORT $LL636@LoadProper
  00220	6a 0c		 push	 12			; 0000000cH
  00222	58		 pop	 eax
$LL633@LoadProper:
  00223	8b c8		 mov	 ecx, eax
  00225	81 e1 03 00 00
	80		 and	 ecx, -2147483645	; 80000003H
  0022b	79 05		 jns	 SHORT $LN1104@LoadProper
  0022d	49		 dec	 ecx
  0022e	83 c9 fc	 or	 ecx, -4			; fffffffcH
  00231	41		 inc	 ecx
$LN1104@LoadProper:
  00232	b2 ed		 mov	 dl, -19			; ffffffedH
  00234	2a d1		 sub	 dl, cl
  00236	30 54 05 e8	 xor	 BYTE PTR __k$534410[ebp+eax], dl
  0023a	40		 inc	 eax
  0023b	83 f8 0f	 cmp	 eax, 15			; 0000000fH
  0023e	7c e3		 jl	 SHORT $LL633@LoadProper
  00240	8b 8d d8 fe ff
	ff		 mov	 ecx, DWORD PTR _rkLoader$GSCopy$[ebp]
  00246	53		 push	 ebx
  00247	8d 45 e8	 lea	 eax, DWORD PTR __k$534410[ebp]
  0024a	50		 push	 eax
  0024b	ff d7		 call	 edi
  0024d	6a 05		 push	 5
  0024f	89 86 2c 09 00
	00		 mov	 DWORD PTR [esi+2348], eax

; 58   : 
; 59   : 	// Return
; 60   : 	m_bEnableCollisionReturn = rkLoader.LoadBool_e( "enable_collision_return", false );

  00255	c7 45 e0 88 82
	8a 88		 mov	 DWORD PTR __k$534541[ebp], -2004188536 ; 888a8288H
  0025c	c7 45 e4 81 89
	b4 89		 mov	 DWORD PTR __k$534541[ebp+4], -1984657023 ; 89b48981H
  00263	c7 45 e8 82 80
	87 83		 mov	 DWORD PTR __k$534541[ebp+8], -2088271742 ; 83878082H
  0026a	c7 45 ec 9e 85
	84 84		 mov	 DWORD PTR __k$534541[ebp+12], -2071689826 ; 8484859eH
  00271	c7 45 f0 b2 9e
	8e 9e		 mov	 DWORD PTR __k$534541[ebp+16], -1634820430 ; 9e8e9eb2H
  00278	8d 45 e0	 lea	 eax, DWORD PTR __k$534541[ebp]
  0027b	c7 45 f4 98 9e
	85 00		 mov	 DWORD PTR __k$534541[ebp+20], 8756888 ; 00859e98H
  00282	59		 pop	 ecx
$LL742@LoadProper:
  00283	81 30 ed ec eb
	ea		 xor	 DWORD PTR [eax], -353637139 ; eaebecedH
  00289	83 c0 04	 add	 eax, 4
  0028c	49		 dec	 ecx
  0028d	75 f4		 jne	 SHORT $LL742@LoadProper
  0028f	6a 14		 push	 20			; 00000014H
  00291	5f		 pop	 edi
$LL739@LoadProper:
  00292	8b c7		 mov	 eax, edi
  00294	25 03 00 00 80	 and	 eax, -2147483645	; 80000003H
  00299	79 05		 jns	 SHORT $LN1105@LoadProper
  0029b	48		 dec	 eax
  0029c	83 c8 fc	 or	 eax, -4			; fffffffcH
  0029f	40		 inc	 eax
$LN1105@LoadProper:
  002a0	b1 ed		 mov	 cl, -19			; ffffffedH
  002a2	2a c8		 sub	 cl, al
  002a4	30 4c 3d e0	 xor	 BYTE PTR __k$534541[ebp+edi], cl
  002a8	47		 inc	 edi
  002a9	83 ff 17	 cmp	 edi, 23			; 00000017H
  002ac	7c e4		 jl	 SHORT $LL739@LoadProper
  002ae	8b 8d d8 fe ff
	ff		 mov	 ecx, DWORD PTR _rkLoader$GSCopy$[ebp]
  002b4	53		 push	 ebx
  002b5	8d 45 e0	 lea	 eax, DWORD PTR __k$534541[ebp]
  002b8	50		 push	 eax
  002b9	ff 15 00 00 00
	00		 call	 DWORD PTR __imp_?LoadBool@ioINILoader@@QAE_NPBD_N@Z
  002bf	6a 03		 push	 3
  002c1	88 86 44 09 00
	00		 mov	 BYTE PTR [esi+2372], al

; 61   : 
; 62   : 	m_dwReturnDuration = (DWORD)rkLoader.LoadFloat_e( "return_duration", 0 );

  002c7	c7 45 e8 9f 89
	9f 9f		 mov	 DWORD PTR __k$534673[ebp], -1616934497 ; 9f9f899fH
  002ce	c7 45 ec 9f 82
	b4 8e		 mov	 DWORD PTR __k$534673[ebp+4], -1900772705 ; 8eb4829fH
  002d5	c7 45 f0 98 9e
	8a 9e		 mov	 DWORD PTR __k$534673[ebp+8], -1635082600 ; 9e8a9e98H
  002dc	8d 45 e8	 lea	 eax, DWORD PTR __k$534673[ebp]
  002df	c7 45 f4 84 83
	85 00		 mov	 DWORD PTR __k$534673[ebp+12], 8749956 ; 00858384H
  002e6	59		 pop	 ecx
$LL848@LoadProper:
  002e7	81 30 ed ec eb
	ea		 xor	 DWORD PTR [eax], -353637139 ; eaebecedH
  002ed	83 c0 04	 add	 eax, 4
  002f0	49		 dec	 ecx
  002f1	75 f4		 jne	 SHORT $LL848@LoadProper
  002f3	6a 0c		 push	 12			; 0000000cH
  002f5	5f		 pop	 edi
$LL845@LoadProper:
  002f6	8b c7		 mov	 eax, edi
  002f8	25 03 00 00 80	 and	 eax, -2147483645	; 80000003H
  002fd	79 05		 jns	 SHORT $LN1106@LoadProper
  002ff	48		 dec	 eax
  00300	83 c8 fc	 or	 eax, -4			; fffffffcH
  00303	40		 inc	 eax
$LN1106@LoadProper:
  00304	b1 ed		 mov	 cl, -19			; ffffffedH
  00306	2a c8		 sub	 cl, al
  00308	30 4c 3d e8	 xor	 BYTE PTR __k$534673[ebp+edi], cl
  0030c	47		 inc	 edi
  0030d	83 ff 0f	 cmp	 edi, 15			; 0000000fH
  00310	7c e4		 jl	 SHORT $LL845@LoadProper
  00312	0f 57 c0	 xorps	 xmm0, xmm0
  00315	51		 push	 ecx
  00316	8b 8d d8 fe ff
	ff		 mov	 ecx, DWORD PTR _rkLoader$GSCopy$[ebp]
  0031c	8d 45 e8	 lea	 eax, DWORD PTR __k$534673[ebp]
  0031f	f3 0f 11 04 24	 movss	 DWORD PTR [esp], xmm0
  00324	50		 push	 eax
  00325	ff 15 00 00 00
	00		 call	 DWORD PTR __imp_?LoadFloat@ioINILoader@@QAEMPBDM@Z
  0032b	e8 00 00 00 00	 call	 __ftol2
  00330	6a 04		 push	 4
  00332	89 86 3c 09 00
	00		 mov	 DWORD PTR [esi+2364], eax

; 63   : 	m_fReturnEndRange = rkLoader.LoadFloat_e( "return_end_range", 0.0f );

  00338	c7 45 e4 9f 89
	9f 9f		 mov	 DWORD PTR __k$534841[ebp], -1616934497 ; 9f9f899fH
  0033f	c7 45 e8 9f 82
	b4 8f		 mov	 DWORD PTR __k$534841[ebp+4], -1883995489 ; 8fb4829fH
  00346	c7 45 ec 83 88
	b4 98		 mov	 DWORD PTR __k$534841[ebp+8], -1732999037 ; 98b48883H
  0034d	c7 45 f0 8c 82
	8c 8f		 mov	 DWORD PTR __k$534841[ebp+12], -1886616948 ; 8f8c828cH
  00354	8d 45 e4	 lea	 eax, DWORD PTR __k$534841[ebp]
  00357	88 5d f4	 mov	 BYTE PTR __k$534841[ebp+16], bl
  0035a	59		 pop	 ecx
$LL954@LoadProper:
  0035b	81 30 ed ec eb
	ea		 xor	 DWORD PTR [eax], -353637139 ; eaebecedH
  00361	83 c0 04	 add	 eax, 4
  00364	49		 dec	 ecx
  00365	75 f4		 jne	 SHORT $LL954@LoadProper
  00367	0f 57 c0	 xorps	 xmm0, xmm0
  0036a	51		 push	 ecx
  0036b	8b 8d d8 fe ff
	ff		 mov	 ecx, DWORD PTR _rkLoader$GSCopy$[ebp]
  00371	8d 45 e4	 lea	 eax, DWORD PTR __k$534841[ebp]
  00374	f3 0f 11 04 24	 movss	 DWORD PTR [esp], xmm0
  00379	50		 push	 eax
  0037a	ff 15 00 00 00
	00		 call	 DWORD PTR __imp_?LoadFloat@ioINILoader@@QAEMPBDM@Z
  00380	d9 9e 40 09 00
	00		 fstp	 DWORD PTR [esi+2368]
  00386	6a 05		 push	 5

; 64   : 
; 65   : 	m_fEnableMoveGap = rkLoader.LoadFloat_e( "enable_move_gap_height", 0.0f );

  00388	c7 45 e0 88 82
	8a 88		 mov	 DWORD PTR __k$534910[ebp], -2004188536 ; 888a8288H
  0038f	c7 45 e4 81 89
	b4 87		 mov	 DWORD PTR __k$534910[ebp+4], -2018211455 ; 87b48981H
  00396	c7 45 e8 82 9a
	8e b5		 mov	 DWORD PTR __k$534910[ebp+8], -1248945534 ; b58e9a82H
  0039d	c7 45 ec 8a 8d
	9b b5		 mov	 DWORD PTR __k$534910[ebp+12], -1248096886 ; b59b8d8aH
  003a4	c7 45 f0 85 89
	82 8d		 mov	 DWORD PTR __k$534910[ebp+16], -1920824955 ; 8d828985H
  003ab	66 c7 45 f4 85
	98		 mov	 WORD PTR __k$534910[ebp+20], 39045 ; 00009885H
  003b1	8d 45 e0	 lea	 eax, DWORD PTR __k$534910[ebp]
  003b4	88 5d f6	 mov	 BYTE PTR __k$534910[ebp+22], bl
  003b7	59		 pop	 ecx
$LL1060@LoadProper:
  003b8	81 30 ed ec eb
	ea		 xor	 DWORD PTR [eax], -353637139 ; eaebecedH
  003be	83 c0 04	 add	 eax, 4
  003c1	49		 dec	 ecx
  003c2	75 f4		 jne	 SHORT $LL1060@LoadProper
  003c4	6a 14		 push	 20			; 00000014H
  003c6	58		 pop	 eax
$LL1057@LoadProper:
  003c7	8b c8		 mov	 ecx, eax
  003c9	81 e1 03 00 00
	80		 and	 ecx, -2147483645	; 80000003H
  003cf	79 05		 jns	 SHORT $LN1107@LoadProper
  003d1	49		 dec	 ecx
  003d2	83 c9 fc	 or	 ecx, -4			; fffffffcH
  003d5	41		 inc	 ecx
$LN1107@LoadProper:
  003d6	b2 ed		 mov	 dl, -19			; ffffffedH
  003d8	2a d1		 sub	 dl, cl
  003da	30 54 05 e0	 xor	 BYTE PTR __k$534910[ebp+eax], dl
  003de	40		 inc	 eax
  003df	83 f8 16	 cmp	 eax, 22			; 00000016H
  003e2	7c e3		 jl	 SHORT $LL1057@LoadProper
  003e4	0f 57 c0	 xorps	 xmm0, xmm0
  003e7	51		 push	 ecx
  003e8	8b 8d d8 fe ff
	ff		 mov	 ecx, DWORD PTR _rkLoader$GSCopy$[ebp]
  003ee	8d 45 e0	 lea	 eax, DWORD PTR __k$534910[ebp]
  003f1	f3 0f 11 04 24	 movss	 DWORD PTR [esp], xmm0
  003f6	50		 push	 eax
  003f7	ff 15 00 00 00
	00		 call	 DWORD PTR __imp_?LoadFloat@ioINILoader@@QAEMPBDM@Z
  003fd	d9 9e 1c 09 00
	00		 fstp	 DWORD PTR [esi+2332]

; 66   : }

  00403	8b 4d fc	 mov	 ecx, DWORD PTR __$ArrayPad$[ebp]
  00406	5f		 pop	 edi
  00407	5e		 pop	 esi
  00408	33 cd		 xor	 ecx, ebp
  0040a	5b		 pop	 ebx
  0040b	e8 00 00 00 00	 call	 @__security_check_cookie@4
  00410	c9		 leave
  00411	c2 04 00	 ret	 4
?LoadProperty@ioControlMissileWeapon@@UAEXAAVioINILoader@@@Z ENDP ; ioControlMissileWeapon::LoadProperty
_TEXT	ENDS
EXTRN	__imp_??4ioHashString@@QAEAAV0@ABV0@@Z:PROC
EXTRN	?GetSingleConvertTeam@ioBaseChar@@QAE?AW4TeamType@@XZ:PROC ; ioBaseChar::GetSingleConvertTeam
EXTRN	?SetTeam@ioWeapon@@UAEXPAVioPlayStage@@W4TeamType@@@Z:PROC ; ioWeapon::SetTeam
;	COMDAT xdata$x
xdata$x	SEGMENT
__unwindtable$?SetTeam@ioControlMissileWeapon@@UAEXPAVioPlayStage@@W4TeamType@@@Z DD 0ffffffffH
	DD	FLAT:__unwindfunclet$?SetTeam@ioControlMissileWeapon@@UAEXPAVioPlayStage@@W4TeamType@@@Z$0
__ehfuncinfo$?SetTeam@ioControlMissileWeapon@@UAEXPAVioPlayStage@@W4TeamType@@@Z DD 019930522H
	DD	01H
	DD	FLAT:__unwindtable$?SetTeam@ioControlMissileWeapon@@UAEXPAVioPlayStage@@W4TeamType@@@Z
	DD	2 DUP(00H)
	DD	2 DUP(00H)
	DD	00H
	DD	01H
; Function compile flags: /Ogsp
xdata$x	ENDS
;	COMDAT ?SetTeam@ioControlMissileWeapon@@UAEXPAVioPlayStage@@W4TeamType@@@Z
_TEXT	SEGMENT
_szCurWeaponEffect$ = -28				; size = 16
__$EHRec$ = -12						; size = 12
_pStage$ = 8						; size = 4
_eType$ = 12						; size = 4
?SetTeam@ioControlMissileWeapon@@UAEXPAVioPlayStage@@W4TeamType@@@Z PROC ; ioControlMissileWeapon::SetTeam, COMDAT
; _this$ = ecx

; 74   : {

  00000	6a 10		 push	 16			; 00000010H
  00002	b8 00 00 00 00	 mov	 eax, __ehhandler$?SetTeam@ioControlMissileWeapon@@UAEXPAVioPlayStage@@W4TeamType@@@Z
  00007	e8 00 00 00 00	 call	 __EH_prolog3
  0000c	8b f1		 mov	 esi, ecx

; 75   : 	if( !pStage ) return;

  0000e	83 7d 08 00	 cmp	 DWORD PTR _pStage$[ebp], 0
  00012	0f 84 8d 00 00
	00		 je	 $LN9@SetTeam

; 76   : 
; 77   : 	ioWeapon::SetTeam( pStage, eType );

  00018	ff 75 0c	 push	 DWORD PTR _eType$[ebp]
  0001b	ff 75 08	 push	 DWORD PTR _pStage$[ebp]
  0001e	e8 00 00 00 00	 call	 ?SetTeam@ioWeapon@@UAEXPAVioPlayStage@@W4TeamType@@@Z ; ioWeapon::SetTeam

; 78   : 
; 79   : 	DestroyResource();

  00023	8b 06		 mov	 eax, DWORD PTR [esi]
  00025	6a 00		 push	 0
  00027	8b ce		 mov	 ecx, esi
  00029	ff 90 9c 00 00
	00		 call	 DWORD PTR [eax+156]

; 80   : 
; 81   : 	ioHashString szCurWeaponEffect;

  0002f	8d 4d e4	 lea	 ecx, DWORD PTR _szCurWeaponEffect$[ebp]
  00032	ff 15 00 00 00
	00		 call	 DWORD PTR __imp_??0ioHashString@@QAE@XZ
  00038	83 65 fc 00	 and	 DWORD PTR __$EHRec$[ebp+8], 0

; 82   : 
; 83   : 	if( eType == TEAM_BLUE )

  0003c	83 7d 0c 02	 cmp	 DWORD PTR _eType$[ebp], 2
  00040	75 08		 jne	 SHORT $LN7@SetTeam

; 84   : 	{
; 85   : 		szCurWeaponEffect = m_BlueTeamEffect;

  00042	8d 86 fc 08 00
	00		 lea	 eax, DWORD PTR [esi+2300]
  00048	eb 29		 jmp	 SHORT $LN13@SetTeam
$LN7@SetTeam:

; 86   : 	}
; 87   : 	else if( eType == TEAM_RED )

  0004a	83 7d 0c 01	 cmp	 DWORD PTR _eType$[ebp], 1

; 88   : 	{
; 89   : 		szCurWeaponEffect = m_RedTeamEffect;
; 90   : 	}
; 91   : 	else //

  0004e	74 1d		 je	 SHORT $LN3@SetTeam

; 92   : 	{
; 93   : 		ioBaseChar *pOwner = GetOwner();

  00050	8b ce		 mov	 ecx, esi
  00052	e8 00 00 00 00	 call	 ?GetOwner@ioWeapon@@QBEPAVioBaseChar@@XZ ; ioWeapon::GetOwner

; 94   : 		if( pOwner && pOwner->GetSingleConvertTeam() == TEAM_BLUE )

  00057	85 c0		 test	 eax, eax
  00059	74 12		 je	 SHORT $LN3@SetTeam
  0005b	8b c8		 mov	 ecx, eax
  0005d	e8 00 00 00 00	 call	 ?GetSingleConvertTeam@ioBaseChar@@QAE?AW4TeamType@@XZ ; ioBaseChar::GetSingleConvertTeam
  00062	83 f8 02	 cmp	 eax, 2

; 95   : 		{
; 96   : 			szCurWeaponEffect = m_BlueTeamEffect;

  00065	8d 86 fc 08 00
	00		 lea	 eax, DWORD PTR [esi+2300]
  0006b	74 06		 je	 SHORT $LN13@SetTeam
$LN3@SetTeam:

; 97   : 		}
; 98   : 		else
; 99   : 		{
; 100  : 			szCurWeaponEffect = m_RedTeamEffect;

  0006d	8d 86 ec 08 00
	00		 lea	 eax, DWORD PTR [esi+2284]
$LN13@SetTeam:
  00073	50		 push	 eax
  00074	8d 4d e4	 lea	 ecx, DWORD PTR _szCurWeaponEffect$[ebp]
  00077	ff 15 00 00 00
	00		 call	 DWORD PTR __imp_??4ioHashString@@QAEAAV0@ABV0@@Z

; 101  : 		}
; 102  : 	}
; 103  : 
; 104  : 	if( !SetMesh( szCurWeaponEffect ) )

  0007d	8d 45 e4	 lea	 eax, DWORD PTR _szCurWeaponEffect$[ebp]
  00080	50		 push	 eax
  00081	8b ce		 mov	 ecx, esi
  00083	e8 00 00 00 00	 call	 ?SetMesh@ioControlMissileWeapon@@IAE_NABVioHashString@@@Z ; ioControlMissileWeapon::SetMesh
  00088	84 c0		 test	 al, al
  0008a	75 0c		 jne	 SHORT $LN1@SetTeam

; 105  : 		DestroyResource();

  0008c	8b 06		 mov	 eax, DWORD PTR [esi]
  0008e	6a 00		 push	 0
  00090	8b ce		 mov	 ecx, esi
  00092	ff 90 9c 00 00
	00		 call	 DWORD PTR [eax+156]
$LN1@SetTeam:

; 106  : }

  00098	83 4d fc ff	 or	 DWORD PTR __$EHRec$[ebp+8], -1
  0009c	8d 4d e4	 lea	 ecx, DWORD PTR _szCurWeaponEffect$[ebp]
  0009f	ff 15 00 00 00
	00		 call	 DWORD PTR __imp_??1ioHashString@@QAE@XZ
$LN9@SetTeam:
  000a5	e8 00 00 00 00	 call	 __EH_epilog3
  000aa	c2 08 00	 ret	 8
_TEXT	ENDS
;	COMDAT text$x
text$x	SEGMENT
__unwindfunclet$?SetTeam@ioControlMissileWeapon@@UAEXPAVioPlayStage@@W4TeamType@@@Z$0:
  00000	8d 4d e4	 lea	 ecx, DWORD PTR _szCurWeaponEffect$[ebp]
  00003	ff 25 00 00 00
	00		 jmp	 DWORD PTR __imp_??1ioHashString@@QAE@XZ
__ehhandler$?SetTeam@ioControlMissileWeapon@@UAEXPAVioPlayStage@@W4TeamType@@@Z:
  00009	8b 54 24 08	 mov	 edx, DWORD PTR [esp+8]
  0000d	8d 42 0c	 lea	 eax, DWORD PTR [edx+12]
  00010	8b 4a e0	 mov	 ecx, DWORD PTR [edx-32]
  00013	33 c8		 xor	 ecx, eax
  00015	e8 00 00 00 00	 call	 @__security_check_cookie@4
  0001a	b8 00 00 00 00	 mov	 eax, OFFSET __ehfuncinfo$?SetTeam@ioControlMissileWeapon@@UAEXPAVioPlayStage@@W4TeamType@@@Z
  0001f	e9 00 00 00 00	 jmp	 ___CxxFrameHandler3
text$x	ENDS
?SetTeam@ioControlMissileWeapon@@UAEXPAVioPlayStage@@W4TeamType@@@Z ENDP ; ioControlMissileWeapon::SetTeam
PUBLIC	?SetGraceClose@ioControlMissileWeapon@@IAEXXZ	; ioControlMissileWeapon::SetGraceClose
EXTRN	__imp_?EndEffectForce@ioEffect@@QAEXXZ:PROC
EXTRN	__imp_?EndEffectGrace@ioEffect@@QAEXXZ:PROC
; Function compile flags: /Ogsp
;	COMDAT ?SetGraceClose@ioControlMissileWeapon@@IAEXXZ
_TEXT	SEGMENT
_value$535084 = -1					; size = 1
?SetGraceClose@ioControlMissileWeapon@@IAEXXZ PROC	; ioControlMissileWeapon::SetGraceClose, COMDAT
; _this$ = ecx

; 283  : {

  00000	55		 push	 ebp
  00001	8b ec		 mov	 ebp, esp
  00003	51		 push	 ecx
  00004	56		 push	 esi
  00005	8b f1		 mov	 esi, ecx

; 284  : 	if( m_bSetGraceClose ) return;

  00007	80 be 34 09 00
	00 00		 cmp	 BYTE PTR [esi+2356], 0
  0000e	75 39		 jne	 SHORT $LN5@SetGraceCl

; 285  : 
; 286  : 	if( m_pMissileMesh )

  00010	83 be e8 08 00
	00 00		 cmp	 DWORD PTR [esi+2280], 0
  00017	74 29		 je	 SHORT $LN1@SetGraceCl

; 287  : 	{
; 288  : 		if( m_bEndEffectGrace )

  00019	8d 45 ff	 lea	 eax, DWORD PTR _value$535084[ebp]
  0001c	50		 push	 eax
  0001d	8d 8e 08 08 00
	00		 lea	 ecx, DWORD PTR [esi+2056]
  00023	e8 00 00 00 00	 call	 ?DecryptValueToPool@?$CEncrypt@_N@@QAEXPA_N@Z ; CEncrypt<bool>::DecryptValueToPool
  00028	80 7d ff 00	 cmp	 BYTE PTR _value$535084[ebp], 0

; 289  : 			m_pMissileMesh->EndEffectGrace();

  0002c	8b 8e e8 08 00
	00		 mov	 ecx, DWORD PTR [esi+2280]
  00032	74 08		 je	 SHORT $LN2@SetGraceCl
  00034	ff 15 00 00 00
	00		 call	 DWORD PTR __imp_?EndEffectGrace@ioEffect@@QAEXXZ

; 290  : 		else

  0003a	eb 06		 jmp	 SHORT $LN1@SetGraceCl
$LN2@SetGraceCl:

; 291  : 			m_pMissileMesh->EndEffectForce();

  0003c	ff 15 00 00 00
	00		 call	 DWORD PTR __imp_?EndEffectForce@ioEffect@@QAEXXZ
$LN1@SetGraceCl:

; 292  : 	}
; 293  : 
; 294  : 	m_bSetGraceClose = true;

  00042	c6 86 34 09 00
	00 01		 mov	 BYTE PTR [esi+2356], 1
$LN5@SetGraceCl:
  00049	5e		 pop	 esi

; 295  : }

  0004a	c9		 leave
  0004b	c3		 ret	 0
?SetGraceClose@ioControlMissileWeapon@@IAEXXZ ENDP	; ioControlMissileWeapon::SetGraceClose
_TEXT	ENDS
PUBLIC	?GetMoveSpeed@ioControlMissileWeapon@@IAEMXZ	; ioControlMissileWeapon::GetMoveSpeed
; Function compile flags: /Ogsp
;	COMDAT ?GetMoveSpeed@ioControlMissileWeapon@@IAEMXZ
_TEXT	SEGMENT
tv136 = -4						; size = 4
_value$535090 = -4					; size = 4
?GetMoveSpeed@ioControlMissileWeapon@@IAEMXZ PROC	; ioControlMissileWeapon::GetMoveSpeed, COMDAT
; _this$ = ecx

; 556  : {

  00000	55		 push	 ebp
  00001	8b ec		 mov	 ebp, esp
  00003	51		 push	 ecx
  00004	56		 push	 esi
  00005	8b f1		 mov	 esi, ecx

; 557  : 	return GetAttribute()->m_fMoveSpeed * m_fOwnerChargeSpeedRate;

  00007	8d 45 fc	 lea	 eax, DWORD PTR _value$535090[ebp]
  0000a	50		 push	 eax
  0000b	8d 8e 20 01 00
	00		 lea	 ecx, DWORD PTR [esi+288]
  00011	e8 00 00 00 00	 call	 ?DecryptValueToPool@?$CEncrypt@M@@QAEXPAM@Z ; CEncrypt<float>::DecryptValueToPool
  00016	8b 06		 mov	 eax, DWORD PTR [esi]
  00018	8b ce		 mov	 ecx, esi
  0001a	ff 90 3c 01 00
	00		 call	 DWORD PTR [eax+316]
  00020	d9 80 98 01 00
	00		 fld	 DWORD PTR [eax+408]
  00026	d8 4d fc	 fmul	 DWORD PTR _value$535090[ebp]
  00029	5e		 pop	 esi
  0002a	d9 5d fc	 fstp	 DWORD PTR tv136[ebp]
  0002d	d9 45 fc	 fld	 DWORD PTR tv136[ebp]

; 558  : }

  00030	c9		 leave
  00031	c3		 ret	 0
?GetMoveSpeed@ioControlMissileWeapon@@IAEMXZ ENDP	; ioControlMissileWeapon::GetMoveSpeed
_TEXT	ENDS
PUBLIC	?GetMaxRange@ioControlMissileWeapon@@IAEMXZ	; ioControlMissileWeapon::GetMaxRange
; Function compile flags: /Ogsp
;	COMDAT ?GetMaxRange@ioControlMissileWeapon@@IAEMXZ
_TEXT	SEGMENT
tv136 = -4						; size = 4
_value$535097 = -4					; size = 4
?GetMaxRange@ioControlMissileWeapon@@IAEMXZ PROC	; ioControlMissileWeapon::GetMaxRange, COMDAT
; _this$ = ecx

; 561  : {

  00000	55		 push	 ebp
  00001	8b ec		 mov	 ebp, esp
  00003	51		 push	 ecx
  00004	56		 push	 esi
  00005	8b f1		 mov	 esi, ecx

; 562  : 	return GetAttribute()->m_fMoveRange * m_fOwnerChargeRangeRate;

  00007	8d 45 fc	 lea	 eax, DWORD PTR _value$535097[ebp]
  0000a	50		 push	 eax
  0000b	8d 8e f0 00 00
	00		 lea	 ecx, DWORD PTR [esi+240]
  00011	e8 00 00 00 00	 call	 ?DecryptValueToPool@?$CEncrypt@M@@QAEXPAM@Z ; CEncrypt<float>::DecryptValueToPool
  00016	8b 06		 mov	 eax, DWORD PTR [esi]
  00018	8b ce		 mov	 ecx, esi
  0001a	ff 90 3c 01 00
	00		 call	 DWORD PTR [eax+316]
  00020	d9 80 9c 01 00
	00		 fld	 DWORD PTR [eax+412]
  00026	d8 4d fc	 fmul	 DWORD PTR _value$535097[ebp]
  00029	5e		 pop	 esi
  0002a	d9 5d fc	 fstp	 DWORD PTR tv136[ebp]
  0002d	d9 45 fc	 fld	 DWORD PTR tv136[ebp]

; 563  : }

  00030	c9		 leave
  00031	c3		 ret	 0
?GetMaxRange@ioControlMissileWeapon@@IAEMXZ ENDP	; ioControlMissileWeapon::GetMaxRange
_TEXT	ENDS
PUBLIC	__$ArrayPad$
EXTRN	__imp_?SetNull@ioOrientBox@@QAEXXZ:PROC
EXTRN	__imp_?Transform@ioOrientBox@@QAEXABUD3DXVECTOR3@@0ABUD3DXQUATERNION@@@Z:PROC
EXTRN	__imp_?IsNull@ioOrientBox@@QBE_NXZ:PROC
EXTRN	__imp_?SetExtents@ioOrientBox@@QAEXHM@Z:PROC
EXTRN	__imp_?GetExtents@ioOrientBox@@QBEMH@Z:PROC
; Function compile flags: /Ogsp
;	COMDAT ?UpdateWorldAttackBox@ioControlMissileWeapon@@MAEXM_N@Z
_TEXT	SEGMENT
tv397 = -32						; size = 4
_value$535122 = -32					; size = 4
tv417 = -28						; size = 4
tv399 = -28						; size = 4
_value$535127 = -24					; size = 4
$T535110 = -24						; size = 4
_fMapCollisionRate$ = -24				; size = 4
tv411 = -20						; size = 4
tv405 = -20						; size = 4
_value$535132 = -20					; size = 4
_value$535118 = -20					; size = 4
_vScale$530931 = -16					; size = 12
__$ArrayPad$ = -4					; size = 4
_fTimePerSec$ = 8					; size = 4
_bSetNull$ = 12						; size = 1
?UpdateWorldAttackBox@ioControlMissileWeapon@@MAEXM_N@Z PROC ; ioControlMissileWeapon::UpdateWorldAttackBox, COMDAT
; _this$ = ecx

; 566  : {

  00000	55		 push	 ebp
  00001	8b ec		 mov	 ebp, esp
  00003	83 ec 20	 sub	 esp, 32			; 00000020H
  00006	a1 00 00 00 00	 mov	 eax, DWORD PTR ___security_cookie
  0000b	33 c5		 xor	 eax, ebp
  0000d	89 45 fc	 mov	 DWORD PTR __$ArrayPad$[ebp], eax
  00010	53		 push	 ebx
  00011	8b d9		 mov	 ebx, ecx

; 567  : 	if( !IsLive() || bSetNull )

  00013	80 bb 82 05 00
	00 00		 cmp	 BYTE PTR [ebx+1410], 0
  0001a	56		 push	 esi
  0001b	57		 push	 edi
  0001c	0f 84 b7 01 00
	00		 je	 $LN4@UpdateWorl
  00022	80 7d 0c 00	 cmp	 BYTE PTR _bSetNull$[ebp], 0
  00026	0f 85 ad 01 00
	00		 jne	 $LN4@UpdateWorl

; 571  : 		return;
; 572  : 	}
; 573  : 
; 574  : 	m_WorldAttackBox = GetLocalAttackBox();

  0002c	8b 03		 mov	 eax, DWORD PTR [ebx]
  0002e	ff 90 00 01 00
	00		 call	 DWORD PTR [eax+256]
  00034	6a 11		 push	 17			; 00000011H
  00036	59		 pop	 ecx
  00037	8b f0		 mov	 esi, eax
  00039	8d bb e8 04 00
	00		 lea	 edi, DWORD PTR [ebx+1256]
  0003f	f3 a5		 rep movsd

; 575  : 	m_WorldAttackBoxForMap = m_WorldAttackBox;

  00041	6a 11		 push	 17			; 00000011H
  00043	8b f0		 mov	 esi, eax

; 576  : 
; 577  : 	float fMapCollisionRate = GetAttribute()->m_fMapCollisionBoxRate;

  00045	8b 03		 mov	 eax, DWORD PTR [ebx]
  00047	59		 pop	 ecx
  00048	8d bb 2c 05 00
	00		 lea	 edi, DWORD PTR [ebx+1324]
  0004e	f3 a5		 rep movsd
  00050	8b cb		 mov	 ecx, ebx
  00052	ff 90 3c 01 00
	00		 call	 DWORD PTR [eax+316]

; 578  : 	m_WorldAttackBoxForMap.SetExtents( 0, m_WorldAttackBox.GetExtents(0)*fMapCollisionRate );

  00058	6a 00		 push	 0
  0005a	d9 80 a8 01 00
	00		 fld	 DWORD PTR [eax+424]
  00060	8d 8b e8 04 00
	00		 lea	 ecx, DWORD PTR [ebx+1256]
  00066	d9 5d e8	 fstp	 DWORD PTR _fMapCollisionRate$[ebp]
  00069	ff 15 00 00 00
	00		 call	 DWORD PTR __imp_?GetExtents@ioOrientBox@@QBEMH@Z
  0006f	d8 4d e8	 fmul	 DWORD PTR _fMapCollisionRate$[ebp]
  00072	8b 35 00 00 00
	00		 mov	 esi, DWORD PTR __imp_?SetExtents@ioOrientBox@@QAEXHM@Z
  00078	51		 push	 ecx
  00079	8d 8b 2c 05 00
	00		 lea	 ecx, DWORD PTR [ebx+1324]
  0007f	d9 5d e4	 fstp	 DWORD PTR tv417[ebp]
  00082	d9 45 e4	 fld	 DWORD PTR tv417[ebp]
  00085	89 4d e4	 mov	 DWORD PTR tv399[ebp], ecx
  00088	d9 1c 24	 fstp	 DWORD PTR [esp]
  0008b	6a 00		 push	 0
  0008d	ff d6		 call	 esi

; 579  : 	m_WorldAttackBoxForMap.SetExtents( 1, m_WorldAttackBox.GetExtents(1)*fMapCollisionRate );

  0008f	6a 01		 push	 1
  00091	8d 8b e8 04 00
	00		 lea	 ecx, DWORD PTR [ebx+1256]
  00097	ff 15 00 00 00
	00		 call	 DWORD PTR __imp_?GetExtents@ioOrientBox@@QBEMH@Z
  0009d	d8 4d e8	 fmul	 DWORD PTR _fMapCollisionRate$[ebp]
  000a0	51		 push	 ecx
  000a1	8b 4d e4	 mov	 ecx, DWORD PTR tv399[ebp]
  000a4	d9 5d ec	 fstp	 DWORD PTR tv411[ebp]
  000a7	d9 45 ec	 fld	 DWORD PTR tv411[ebp]
  000aa	d9 1c 24	 fstp	 DWORD PTR [esp]
  000ad	6a 01		 push	 1
  000af	ff d6		 call	 esi

; 580  : 	m_WorldAttackBoxForMap.SetExtents( 2, m_WorldAttackBox.GetExtents(2)*fMapCollisionRate );

  000b1	6a 02		 push	 2
  000b3	8d 8b e8 04 00
	00		 lea	 ecx, DWORD PTR [ebx+1256]
  000b9	ff 15 00 00 00
	00		 call	 DWORD PTR __imp_?GetExtents@ioOrientBox@@QBEMH@Z
  000bf	d8 4d e8	 fmul	 DWORD PTR _fMapCollisionRate$[ebp]
  000c2	51		 push	 ecx
  000c3	8b 4d e4	 mov	 ecx, DWORD PTR tv399[ebp]
  000c6	d9 5d ec	 fstp	 DWORD PTR tv405[ebp]
  000c9	d9 45 ec	 fld	 DWORD PTR tv405[ebp]
  000cc	d9 1c 24	 fstp	 DWORD PTR [esp]
  000cf	6a 02		 push	 2
  000d1	ff d6		 call	 esi

; 581  : 
; 582  : 	if( !m_WorldAttackBox.IsNull() )

  000d3	8d 8b e8 04 00
	00		 lea	 ecx, DWORD PTR [ebx+1256]
  000d9	ff 15 00 00 00
	00		 call	 DWORD PTR __imp_?IsNull@ioOrientBox@@QBE_NXZ
  000df	84 c0		 test	 al, al
  000e1	0f 85 08 01 00
	00		 jne	 $LN1@UpdateWorl

; 583  : 	{
; 584  : 		if( m_fOwnerChargeScaleRate > FLOAT1 )

  000e7	b8 01 00 00 00	 mov	 eax, 1
  000ec	89 45 e8	 mov	 DWORD PTR $T535110[ebp], eax
  000ef	8d 45 ec	 lea	 eax, DWORD PTR _value$535118[ebp]
  000f2	50		 push	 eax
  000f3	8d 8b b0 01 00
	00		 lea	 ecx, DWORD PTR [ebx+432]
  000f9	e8 00 00 00 00	 call	 ?DecryptValueToPool@?$CEncrypt@M@@QAEXPAM@Z ; CEncrypt<float>::DecryptValueToPool
  000fe	d9 45 ec	 fld	 DWORD PTR _value$535118[ebp]
  00101	8b 45 e8	 mov	 eax, DWORD PTR $T535110[ebp]
  00104	db 45 e8	 fild	 DWORD PTR $T535110[ebp]
  00107	85 c0		 test	 eax, eax
  00109	79 06		 jns	 SHORT $LN25@UpdateWorl
  0010b	d8 05 00 00 00
	00		 fadd	 DWORD PTR __real@4f800000
$LN25@UpdateWorl:
  00111	d9 c9		 fxch	 ST(1)
  00113	df f1		 fcomip	 ST(1)
  00115	dd d8		 fstp	 ST(0)
  00117	0f 86 88 00 00
	00		 jbe	 $LN2@UpdateWorl

; 585  : 		{
; 586  : 			D3DXVECTOR3 vScale( m_fOwnerChargeScaleRate, m_fOwnerChargeScaleRate, m_fOwnerChargeScaleRate );

  0011d	8d 45 e0	 lea	 eax, DWORD PTR _value$535122[ebp]
  00120	50		 push	 eax
  00121	8d 8b b0 01 00
	00		 lea	 ecx, DWORD PTR [ebx+432]
  00127	e8 00 00 00 00	 call	 ?DecryptValueToPool@?$CEncrypt@M@@QAEXPAM@Z ; CEncrypt<float>::DecryptValueToPool
  0012c	8d 45 e8	 lea	 eax, DWORD PTR _value$535127[ebp]
  0012f	50		 push	 eax
  00130	8d 8b b0 01 00
	00		 lea	 ecx, DWORD PTR [ebx+432]
  00136	e8 00 00 00 00	 call	 ?DecryptValueToPool@?$CEncrypt@M@@QAEXPAM@Z ; CEncrypt<float>::DecryptValueToPool
  0013b	8d 45 ec	 lea	 eax, DWORD PTR _value$535132[ebp]
  0013e	50		 push	 eax
  0013f	8d 8b b0 01 00
	00		 lea	 ecx, DWORD PTR [ebx+432]
  00145	e8 00 00 00 00	 call	 ?DecryptValueToPool@?$CEncrypt@M@@QAEXPAM@Z ; CEncrypt<float>::DecryptValueToPool
  0014a	f3 0f 10 45 ec	 movss	 xmm0, DWORD PTR _value$535132[ebp]
  0014f	f3 0f 11 45 f0	 movss	 DWORD PTR _vScale$530931[ebp], xmm0
  00154	f3 0f 10 45 e8	 movss	 xmm0, DWORD PTR _value$535127[ebp]
  00159	f3 0f 11 45 f4	 movss	 DWORD PTR _vScale$530931[ebp+4], xmm0
  0015e	f3 0f 10 45 e0	 movss	 xmm0, DWORD PTR _value$535122[ebp]

; 587  : 			m_WorldAttackBox.Transform( GetPosition(), vScale, GetOrientation() );

  00163	8b cb		 mov	 ecx, ebx
  00165	f3 0f 11 45 f8	 movss	 DWORD PTR _vScale$530931[ebp+8], xmm0
  0016a	e8 00 00 00 00	 call	 ?GetOrientation@ioWeapon@@QBEABUD3DXQUATERNION@@XZ ; ioWeapon::GetOrientation
  0016f	50		 push	 eax
  00170	8d 45 f0	 lea	 eax, DWORD PTR _vScale$530931[ebp]
  00173	50		 push	 eax
  00174	8b 03		 mov	 eax, DWORD PTR [ebx]
  00176	8b cb		 mov	 ecx, ebx
  00178	ff 50 70	 call	 DWORD PTR [eax+112]
  0017b	8b 35 00 00 00
	00		 mov	 esi, DWORD PTR __imp_?Transform@ioOrientBox@@QAEXABUD3DXVECTOR3@@0ABUD3DXQUATERNION@@@Z
  00181	50		 push	 eax
  00182	8d 8b e8 04 00
	00		 lea	 ecx, DWORD PTR [ebx+1256]
  00188	ff d6		 call	 esi

; 588  : 			m_WorldAttackBoxForMap.Transform( GetPosition(), vScale, GetOrientation() );

  0018a	8b cb		 mov	 ecx, ebx
  0018c	e8 00 00 00 00	 call	 ?GetOrientation@ioWeapon@@QBEABUD3DXQUATERNION@@XZ ; ioWeapon::GetOrientation
  00191	50		 push	 eax
  00192	8d 45 f0	 lea	 eax, DWORD PTR _vScale$530931[ebp]
  00195	50		 push	 eax
$LN26@UpdateWorl:
  00196	8b 03		 mov	 eax, DWORD PTR [ebx]
  00198	8b cb		 mov	 ecx, ebx
  0019a	ff 50 70	 call	 DWORD PTR [eax+112]
  0019d	8b 4d e4	 mov	 ecx, DWORD PTR tv399[ebp]
  001a0	50		 push	 eax
  001a1	ff d6		 call	 esi

; 589  : 		}
; 590  : 		else

  001a3	eb 4a		 jmp	 SHORT $LN1@UpdateWorl
$LN2@UpdateWorl:

; 591  : 		{
; 592  : 			m_WorldAttackBox.Transform( GetPosition(), ioMath::UNIT_ALL, GetOrientation() );

  001a5	8b cb		 mov	 ecx, ebx
  001a7	e8 00 00 00 00	 call	 ?GetOrientation@ioWeapon@@QBEABUD3DXQUATERNION@@XZ ; ioWeapon::GetOrientation
  001ac	50		 push	 eax
  001ad	ff 35 00 00 00
	00		 push	 DWORD PTR __imp_?UNIT_ALL@ioMath@@2UD3DXVECTOR3@@A
  001b3	8b 03		 mov	 eax, DWORD PTR [ebx]
  001b5	8b cb		 mov	 ecx, ebx
  001b7	ff 50 70	 call	 DWORD PTR [eax+112]
  001ba	8b 35 00 00 00
	00		 mov	 esi, DWORD PTR __imp_?Transform@ioOrientBox@@QAEXABUD3DXVECTOR3@@0ABUD3DXQUATERNION@@@Z
  001c0	50		 push	 eax
  001c1	8d 8b e8 04 00
	00		 lea	 ecx, DWORD PTR [ebx+1256]
  001c7	ff d6		 call	 esi

; 593  : 			m_WorldAttackBoxForMap.Transform( GetPosition(), ioMath::UNIT_ALL, GetOrientation() );

  001c9	8b cb		 mov	 ecx, ebx
  001cb	e8 00 00 00 00	 call	 ?GetOrientation@ioWeapon@@QBEABUD3DXQUATERNION@@XZ ; ioWeapon::GetOrientation
  001d0	50		 push	 eax
  001d1	ff 35 00 00 00
	00		 push	 DWORD PTR __imp_?UNIT_ALL@ioMath@@2UD3DXVECTOR3@@A
  001d7	eb bd		 jmp	 SHORT $LN26@UpdateWorl
$LN4@UpdateWorl:

; 568  : 	{
; 569  : 		m_WorldAttackBox.SetNull();

  001d9	8b 35 00 00 00
	00		 mov	 esi, DWORD PTR __imp_?SetNull@ioOrientBox@@QAEXXZ
  001df	8d 8b e8 04 00
	00		 lea	 ecx, DWORD PTR [ebx+1256]
  001e5	ff d6		 call	 esi

; 570  : 		m_WorldAttackBoxForMap.SetNull();

  001e7	8d 8b 2c 05 00
	00		 lea	 ecx, DWORD PTR [ebx+1324]
  001ed	ff d6		 call	 esi
$LN1@UpdateWorl:

; 594  : 		}
; 595  : 	}
; 596  : }

  001ef	8b 4d fc	 mov	 ecx, DWORD PTR __$ArrayPad$[ebp]
  001f2	5f		 pop	 edi
  001f3	5e		 pop	 esi
  001f4	33 cd		 xor	 ecx, ebp
  001f6	5b		 pop	 ebx
  001f7	e8 00 00 00 00	 call	 @__security_check_cookie@4
  001fc	c9		 leave
  001fd	c2 08 00	 ret	 8
?UpdateWorldAttackBox@ioControlMissileWeapon@@MAEXM_N@Z ENDP ; ioControlMissileWeapon::UpdateWorldAttackBox
_TEXT	ENDS
PUBLIC	__real@bff0000000000000
PUBLIC	__real@00000000
PUBLIC	__real@408f400000000000
PUBLIC	__real@3fef5c2900000000
PUBLIC	_this$GSCopy$
PUBLIC	__$ArrayPad$
PUBLIC	?CheckOwnerRotateDir@ioControlMissileWeapon@@IAEXM@Z ; ioControlMissileWeapon::CheckOwnerRotateDir
EXTRN	_D3DXQuaternionRotationYawPitchRoll@16:PROC
EXTRN	__imp_?AngleGap@ioMath@@SAMMM@Z:PROC
EXTRN	__imp_?ArrangeHead@ioMath@@SAMM@Z:PROC
EXTRN	__imp_?QuaterToYaw@ioMath@@SAMABUD3DXQUATERNION@@@Z:PROC
;	COMDAT __real@bff0000000000000
; File c:\program files (x86)\microsoft directx sdk (june 2010)\include\d3dx9math.inl
CONST	SEGMENT
__real@bff0000000000000 DQ 0bff0000000000000r	; -1
CONST	ENDS
;	COMDAT __real@00000000
CONST	SEGMENT
__real@00000000 DD 000000000r			; 0
CONST	ENDS
;	COMDAT __real@408f400000000000
CONST	SEGMENT
__real@408f400000000000 DQ 0408f400000000000r	; 1000
CONST	ENDS
;	COMDAT __real@3fef5c2900000000
CONST	SEGMENT
__real@3fef5c2900000000 DQ 03fef5c2900000000r	; 0.98
; Function compile flags: /Ogsp
; File d:\lost saga for developer\youtube\tutorial\source\src\lsclient\iocontrolmissileweapon.cpp
CONST	ENDS
;	COMDAT ?CheckOwnerRotateDir@ioControlMissileWeapon@@IAEXM@Z
_TEXT	SEGMENT
_qtRotate$530977 = -104					; size = 16
_qtNewRot$530987 = -88					; size = 16
_qtRot$ = -72						; size = 16
tv731 = -56						; size = 4
tv687 = -56						; size = 4
_this$GSCopy$ = -56					; size = 4
_fTargetYaw$530983 = -52				; size = 4
_fAngleGap$530968 = -52					; size = 4
tv699 = -48						; size = 4
_fRotateAngle$530970 = -48				; size = 4
tv749 = -44						; size = 4
tv712 = -44						; size = 4
tv704 = -44						; size = 4
tv665 = -44						; size = 4
tv620 = -44						; size = 4
$T535199 = -44						; size = 4
_fCurYaw$530982 = -44					; size = 4
_fRate$530969 = -44					; size = 4
_fAngle$ = -44						; size = 4
$T530988 = -40						; size = 12
$T530975 = -40						; size = 12
_vTargetDir$ = -28					; size = 12
$T530989 = -16						; size = 12
$T530978 = -16						; size = 12
$T530974 = -16						; size = 12
$T530960 = -16						; size = 12
__$ArrayPad$ = -4					; size = 4
_fTimePerSec$ = 8					; size = 4
?CheckOwnerRotateDir@ioControlMissileWeapon@@IAEXM@Z PROC ; ioControlMissileWeapon::CheckOwnerRotateDir, COMDAT
; _this$ = ecx

; 637  : {

  00000	55		 push	 ebp
  00001	8b ec		 mov	 ebp, esp
  00003	83 ec 68	 sub	 esp, 104		; 00000068H
  00006	a1 00 00 00 00	 mov	 eax, DWORD PTR ___security_cookie
  0000b	33 c5		 xor	 eax, ebp
  0000d	89 45 fc	 mov	 DWORD PTR __$ArrayPad$[ebp], eax
  00010	53		 push	 ebx
  00011	8b d9		 mov	 ebx, ecx
  00013	56		 push	 esi

; 691  : 
; 692  : 			fRotateAngle = ioMath::ArrangeHead( fRotateAngle );

  00014	89 5d c8	 mov	 DWORD PTR _this$GSCopy$[ebp], ebx
  00017	e8 00 00 00 00	 call	 ?GetOwner@ioWeapon@@QBEPAVioBaseChar@@XZ ; ioWeapon::GetOwner
  0001c	8b f0		 mov	 esi, eax
  0001e	85 f6		 test	 esi, esi
  00020	0f 84 50 03 00
	00		 je	 $LN4@CheckOwner

; 638  : 	ioBaseChar *pOwner = GetOwner();
; 639  : 	if( !pOwner ) return;
; 640  : 
; 641  : 	DWORD dwCurTime = FRAMEGETTIME();

  00026	ff 15 00 00 00
	00		 call	 DWORD PTR __imp_?GetSingleton@ioFrameTimer@@SAAAV1@XZ
  0002c	8b c8		 mov	 ecx, eax
  0002e	ff 15 00 00 00
	00		 call	 DWORD PTR __imp_?GetLoopSec@ioFrameTimer@@QBEKXZ

; 642  : 	if( m_dwRotateTime == 0 ) return;

  00034	83 bb 24 09 00
	00 00		 cmp	 DWORD PTR [ebx+2340], 0
  0003b	0f 84 35 03 00
	00		 je	 $LN4@CheckOwner

; 643  : 
; 644  : 	DWORD dwGapTime = dwCurTime - m_dwCreatedTime;

  00041	2b 83 d4 04 00
	00		 sub	 eax, DWORD PTR [ebx+1236]

; 645  : 
; 646  : 	if( dwGapTime < m_dwRotateStartTime )

  00047	3b 83 28 09 00
	00		 cmp	 eax, DWORD PTR [ebx+2344]
  0004d	0f 82 23 03 00
	00		 jb	 $LN4@CheckOwner

; 647  : 		return;
; 648  : 
; 649  : 	D3DXQUATERNION	qtRot = pOwner->GetTargetRot();

  00053	57		 push	 edi
  00054	81 c6 a4 06 00
	00		 add	 esi, 1700		; 000006a4H
  0005a	8d 7d b8	 lea	 edi, DWORD PTR _qtRot$[ebp]
  0005d	a5		 movsd
  0005e	a5		 movsd
  0005f	a5		 movsd
  00060	a5		 movsd

; 650  : 	D3DXVECTOR3 vTargetDir = qtRot * D3DXVECTOR3( 0.0f, 0.0f, -FLOAT1 );

  00061	b8 01 00 00 00	 mov	 eax, 1
  00066	0f 57 c0	 xorps	 xmm0, xmm0
  00069	89 45 d4	 mov	 DWORD PTR tv749[ebp], eax
  0006c	db 45 d4	 fild	 DWORD PTR tv749[ebp]
  0006f	f3 0f 11 45 f0	 movss	 DWORD PTR $T530960[ebp], xmm0
  00074	f3 0f 11 45 f4	 movss	 DWORD PTR $T530960[ebp+4], xmm0
  00079	85 c0		 test	 eax, eax
  0007b	79 06		 jns	 SHORT $LN53@CheckOwner
  0007d	d8 05 00 00 00
	00		 fadd	 DWORD PTR __real@4f800000
$LN53@CheckOwner:
  00083	8b 35 00 00 00
	00		 mov	 esi, DWORD PTR __imp_??D@YA?AUD3DXVECTOR3@@ABUD3DXQUATERNION@@ABU0@@Z
  00089	d9 e0		 fchs
  0008b	8d 45 f0	 lea	 eax, DWORD PTR $T530960[ebp]
  0008e	d9 5d f8	 fstp	 DWORD PTR $T530960[ebp+8]
  00091	50		 push	 eax
  00092	8d 45 b8	 lea	 eax, DWORD PTR _qtRot$[ebp]
  00095	50		 push	 eax
  00096	8d 45 e4	 lea	 eax, DWORD PTR _vTargetDir$[ebp]
  00099	50		 push	 eax
  0009a	ff d6		 call	 esi

; 651  : 
; 652  : 	float fAngle = D3DXVec3Dot( &vTargetDir, &m_vMoveDir );

  0009c	f3 0f 10 83 e0
	08 00 00	 movss	 xmm0, DWORD PTR [ebx+2272]
  000a4	f3 0f 10 4d e8	 movss	 xmm1, DWORD PTR _vTargetDir$[ebp+4]
  000a9	f3 0f 10 55 e4	 movss	 xmm2, DWORD PTR _vTargetDir$[ebp]
  000ae	81 c3 dc 08 00
	00		 add	 ebx, 2268		; 000008dcH
  000b4	0f 5a c9	 cvtps2pd xmm1, xmm1
  000b7	0f 5a c0	 cvtps2pd xmm0, xmm0
  000ba	f2 0f 59 c1	 mulsd	 xmm0, xmm1
  000be	f3 0f 10 0b	 movss	 xmm1, DWORD PTR [ebx]
  000c2	0f 5a c9	 cvtps2pd xmm1, xmm1
  000c5	0f 5a d2	 cvtps2pd xmm2, xmm2
  000c8	f2 0f 59 ca	 mulsd	 xmm1, xmm2
  000cc	f3 0f 10 55 ec	 movss	 xmm2, DWORD PTR _vTargetDir$[ebp+8]
  000d1	f2 0f 58 c1	 addsd	 xmm0, xmm1
  000d5	f3 0f 10 4b 08	 movss	 xmm1, DWORD PTR [ebx+8]
  000da	0f 5a c9	 cvtps2pd xmm1, xmm1
  000dd	0f 5a d2	 cvtps2pd xmm2, xmm2
  000e0	f2 0f 59 ca	 mulsd	 xmm1, xmm2
  000e4	f2 0f 58 c1	 addsd	 xmm0, xmm1
  000e8	66 0f 5a c0	 cvtpd2ps xmm0, xmm0
  000ec	f3 0f 11 45 d4	 movss	 DWORD PTR _fAngle$[ebp], xmm0
  000f1	83 c4 0c	 add	 esp, 12			; 0000000cH

; 653  : 	if( fAngle > 0.98f )

  000f4	f3 0f 5a c0	 cvtss2sd xmm0, xmm0
  000f8	66 0f 2f 05 00
	00 00 00	 comisd	 xmm0, QWORD PTR __real@3fef5c2900000000
  00100	76 19		 jbe	 SHORT $LN7@CheckOwner

; 654  : 	{
; 655  : 		SetOrientation( qtRot );

  00102	8b 4d c8	 mov	 ecx, DWORD PTR _this$GSCopy$[ebp]
  00105	8d 45 b8	 lea	 eax, DWORD PTR _qtRot$[ebp]
  00108	50		 push	 eax
  00109	e8 00 00 00 00	 call	 ?SetOrientation@ioWeapon@@QAEXABUD3DXQUATERNION@@@Z ; ioWeapon::SetOrientation

; 656  : 		m_vMoveDir = qtRot * D3DXVECTOR3( 0.0f, 0.0f, -FLOAT1 );

  0010e	b8 01 00 00 00	 mov	 eax, 1
  00113	89 45 c8	 mov	 DWORD PTR tv731[ebp], eax
  00116	db 45 c8	 fild	 DWORD PTR tv731[ebp]

; 657  : 	}
; 658  : 	else

  00119	eb 7d		 jmp	 SHORT $LN60@CheckOwner
$LN7@CheckOwner:

; 659  : 	{
; 660  : 		float fAngleGap = RADtoDEG( acosf(fAngle) );

  0011b	d9 45 d4	 fld	 DWORD PTR _fAngle$[ebp]
  0011e	e8 00 00 00 00	 call	 __CIacos
  00123	d9 5d d4	 fstp	 DWORD PTR tv712[ebp]
  00126	d9 45 d4	 fld	 DWORD PTR tv712[ebp]
  00129	51		 push	 ecx
  0012a	d9 1c 24	 fstp	 DWORD PTR [esp]
  0012d	e8 00 00 00 00	 call	 ??$RADtoDEG@M@@YAMM@Z	; RADtoDEG<float>
  00132	d9 5d cc	 fstp	 DWORD PTR _fAngleGap$530968[ebp]
  00135	59		 pop	 ecx

; 661  : 		float fRate = (fTimePerSec*1000) / m_dwRotateTime;

  00136	8b 4d c8	 mov	 ecx, DWORD PTR _this$GSCopy$[ebp]
  00139	d9 45 08	 fld	 DWORD PTR _fTimePerSec$[ebp]
  0013c	8b 81 24 09 00
	00		 mov	 eax, DWORD PTR [ecx+2340]
  00142	dc 0d 00 00 00
	00		 fmul	 QWORD PTR __real@408f400000000000
  00148	db 81 24 09 00
	00		 fild	 DWORD PTR [ecx+2340]
  0014e	85 c0		 test	 eax, eax
  00150	79 06		 jns	 SHORT $LN55@CheckOwner
  00152	d8 05 00 00 00
	00		 fadd	 DWORD PTR __real@4f800000
$LN55@CheckOwner:
  00158	de f9		 fdivp	 ST(1), ST(0)
  0015a	d9 5d d4	 fstp	 DWORD PTR _fRate$530969[ebp]

; 662  : 		float fRotateAngle = FLOAT360 * fRate;

  0015d	b8 68 01 00 00	 mov	 eax, 360		; 00000168H
  00162	89 45 d0	 mov	 DWORD PTR tv699[ebp], eax
  00165	db 45 d0	 fild	 DWORD PTR tv699[ebp]
  00168	85 c0		 test	 eax, eax
  0016a	79 06		 jns	 SHORT $LN56@CheckOwner
  0016c	d8 05 00 00 00
	00		 fadd	 DWORD PTR __real@4f800000
$LN56@CheckOwner:
  00172	d8 4d d4	 fmul	 DWORD PTR _fRate$530969[ebp]
  00175	d9 5d d0	 fstp	 DWORD PTR _fRotateAngle$530970[ebp]

; 663  : 
; 664  : 		if( fAngleGap < fRotateAngle )

  00178	d9 45 cc	 fld	 DWORD PTR _fAngleGap$530968[ebp]
  0017b	d9 45 d0	 fld	 DWORD PTR _fRotateAngle$530970[ebp]
  0017e	df f1		 fcomip	 ST(1)
  00180	dd d8		 fstp	 ST(0)
  00182	76 4d		 jbe	 SHORT $LN5@CheckOwner

; 665  : 		{
; 666  : 			SetOrientation( qtRot );

  00184	8d 45 b8	 lea	 eax, DWORD PTR _qtRot$[ebp]
  00187	50		 push	 eax
  00188	e8 00 00 00 00	 call	 ?SetOrientation@ioWeapon@@QAEXABUD3DXQUATERNION@@@Z ; ioWeapon::SetOrientation

; 667  : 			m_vMoveDir = qtRot * D3DXVECTOR3( 0.0f, 0.0f, -FLOAT1 );

  0018d	b8 01 00 00 00	 mov	 eax, 1
  00192	89 45 c8	 mov	 DWORD PTR tv687[ebp], eax
  00195	db 45 c8	 fild	 DWORD PTR tv687[ebp]
$LN60@CheckOwner:
  00198	0f 57 c0	 xorps	 xmm0, xmm0
  0019b	f3 0f 11 45 f4	 movss	 DWORD PTR $T530974[ebp+4], xmm0
  001a0	f3 0f 11 45 f0	 movss	 DWORD PTR $T530974[ebp], xmm0
  001a5	85 c0		 test	 eax, eax
  001a7	79 06		 jns	 SHORT $LN57@CheckOwner
  001a9	d8 05 00 00 00
	00		 fadd	 DWORD PTR __real@4f800000
$LN57@CheckOwner:
  001af	8d 45 f0	 lea	 eax, DWORD PTR $T530974[ebp]
  001b2	d9 e0		 fchs
  001b4	50		 push	 eax
  001b5	d9 5d f8	 fstp	 DWORD PTR $T530974[ebp+8]
  001b8	8d 45 b8	 lea	 eax, DWORD PTR _qtRot$[ebp]
  001bb	50		 push	 eax
  001bc	8d 45 d8	 lea	 eax, DWORD PTR $T530975[ebp]
  001bf	50		 push	 eax
  001c0	ff d6		 call	 esi
  001c2	8b f0		 mov	 esi, eax
  001c4	8b fb		 mov	 edi, ebx
  001c6	a5		 movsd
  001c7	a5		 movsd
  001c8	83 c4 0c	 add	 esp, 12			; 0000000cH
  001cb	a5		 movsd

; 668  : 		}
; 669  : 		else

  001cc	e9 a4 01 00 00	 jmp	 $LN52@CheckOwner
$LN5@CheckOwner:

; 670  : 		{
; 671  : 			D3DXQUATERNION qtRotate;
; 672  : 			ioMath::CalcDirectionQuaternion( qtRotate, -m_vMoveDir );

  001d1	f3 0f 10 05 00
	00 00 00	 movss	 xmm0, DWORD PTR __mask@@NegFloat@
  001d9	f3 0f 10 0b	 movss	 xmm1, DWORD PTR [ebx]
  001dd	0f 57 c8	 xorps	 xmm1, xmm0
  001e0	f3 0f 11 4d f0	 movss	 DWORD PTR $T530978[ebp], xmm1
  001e5	f3 0f 10 4b 04	 movss	 xmm1, DWORD PTR [ebx+4]
  001ea	0f 57 c8	 xorps	 xmm1, xmm0
  001ed	8d 45 f0	 lea	 eax, DWORD PTR $T530978[ebp]
  001f0	50		 push	 eax
  001f1	f3 0f 11 4d f4	 movss	 DWORD PTR $T530978[ebp+4], xmm1
  001f6	f3 0f 10 4b 08	 movss	 xmm1, DWORD PTR [ebx+8]
  001fb	8d 45 98	 lea	 eax, DWORD PTR _qtRotate$530977[ebp]
  001fe	0f 57 c8	 xorps	 xmm1, xmm0
  00201	50		 push	 eax
  00202	f3 0f 11 4d f8	 movss	 DWORD PTR $T530978[ebp+8], xmm1
  00207	ff 15 00 00 00
	00		 call	 DWORD PTR __imp_?CalcDirectionQuaternion@ioMath@@SAXAAUD3DXQUATERNION@@ABUD3DXVECTOR3@@@Z

; 673  : 
; 674  : 			bool bLeftRot = false;
; 675  : 			if( D3DXVec3Dot( &vTargetDir, &m_vMoveDir ) > -FLOAT1 )

  0020d	d9 43 04	 fld	 DWORD PTR [ebx+4]
  00210	d8 4d e8	 fmul	 DWORD PTR _vTargetDir$[ebp+4]
  00213	59		 pop	 ecx
  00214	d9 03		 fld	 DWORD PTR [ebx]
  00216	59		 pop	 ecx
  00217	d8 4d e4	 fmul	 DWORD PTR _vTargetDir$[ebp]
  0021a	de c1		 faddp	 ST(1), ST(0)
  0021c	d9 43 08	 fld	 DWORD PTR [ebx+8]
  0021f	d8 4d ec	 fmul	 DWORD PTR _vTargetDir$[ebp+8]
  00222	de c1		 faddp	 ST(1), ST(0)
  00224	d9 5d d4	 fstp	 DWORD PTR $T535199[ebp]
  00227	b8 01 00 00 00	 mov	 eax, 1
  0022c	d9 45 d4	 fld	 DWORD PTR $T535199[ebp]
  0022f	89 45 d4	 mov	 DWORD PTR tv665[ebp], eax
  00232	db 45 d4	 fild	 DWORD PTR tv665[ebp]
  00235	85 c0		 test	 eax, eax
  00237	79 06		 jns	 SHORT $LN58@CheckOwner
  00239	d8 05 00 00 00
	00		 fadd	 DWORD PTR __real@4f800000
$LN58@CheckOwner:
  0023f	d9 e0		 fchs
  00241	d9 c9		 fxch	 ST(1)
  00243	df f1		 fcomip	 ST(1)
  00245	dd d8		 fstp	 ST(0)
  00247	0f 86 8c 00 00
	00		 jbe	 $LN51@CheckOwner

; 676  : 			{
; 677  : 				float fCurYaw, fTargetYaw;
; 678  : 				fCurYaw = RADtoDEG( ioMath::QuaterToYaw( qtRotate ) );

  0024d	8d 45 98	 lea	 eax, DWORD PTR _qtRotate$530977[ebp]
  00250	50		 push	 eax
  00251	ff 15 00 00 00
	00		 call	 DWORD PTR __imp_?QuaterToYaw@ioMath@@SAMABUD3DXQUATERNION@@@Z
  00257	d9 1c 24	 fstp	 DWORD PTR [esp]
  0025a	e8 00 00 00 00	 call	 ??$RADtoDEG@M@@YAMM@Z	; RADtoDEG<float>
  0025f	d9 5d d4	 fstp	 DWORD PTR _fCurYaw$530982[ebp]

; 679  : 				fTargetYaw = RADtoDEG( ioMath::QuaterToYaw( qtRot ) );

  00262	8d 45 b8	 lea	 eax, DWORD PTR _qtRot$[ebp]
  00265	50		 push	 eax
  00266	ff 15 00 00 00
	00		 call	 DWORD PTR __imp_?QuaterToYaw@ioMath@@SAMABUD3DXQUATERNION@@@Z
  0026c	59		 pop	 ecx
  0026d	d9 1c 24	 fstp	 DWORD PTR [esp]
  00270	e8 00 00 00 00	 call	 ??$RADtoDEG@M@@YAMM@Z	; RADtoDEG<float>

; 680  : 
; 681  : 				fCurYaw = ioMath::ArrangeHead( fCurYaw );

  00275	f3 0f 10 45 d4	 movss	 xmm0, DWORD PTR _fCurYaw$530982[ebp]
  0027a	d9 5d cc	 fstp	 DWORD PTR _fTargetYaw$530983[ebp]
  0027d	f3 0f 11 04 24	 movss	 DWORD PTR [esp], xmm0
  00282	ff 15 00 00 00
	00		 call	 DWORD PTR __imp_?ArrangeHead@ioMath@@SAMM@Z
  00288	d9 5d d4	 fstp	 DWORD PTR _fCurYaw$530982[ebp]

; 682  : 				fTargetYaw = ioMath::ArrangeHead( fTargetYaw );

  0028b	f3 0f 10 45 cc	 movss	 xmm0, DWORD PTR _fTargetYaw$530983[ebp]
  00290	f3 0f 11 04 24	 movss	 DWORD PTR [esp], xmm0
  00295	ff 15 00 00 00
	00		 call	 DWORD PTR __imp_?ArrangeHead@ioMath@@SAMM@Z
  0029b	d9 5d cc	 fstp	 DWORD PTR _fTargetYaw$530983[ebp]

; 683  : 
; 684  : 				float fRotAngle = ioMath::AngleGap( fCurYaw, fTargetYaw );

  0029e	f3 0f 10 45 cc	 movss	 xmm0, DWORD PTR _fTargetYaw$530983[ebp]
  002a3	f3 0f 11 04 24	 movss	 DWORD PTR [esp], xmm0
  002a8	f3 0f 10 45 d4	 movss	 xmm0, DWORD PTR _fCurYaw$530982[ebp]
  002ad	51		 push	 ecx
  002ae	f3 0f 11 04 24	 movss	 DWORD PTR [esp], xmm0
  002b3	ff 15 00 00 00
	00		 call	 DWORD PTR __imp_?AngleGap@ioMath@@SAMMM@Z

; 685  : 				if( fRotAngle < 0.0f )

  002b9	d9 ee		 fldz
  002bb	59		 pop	 ecx
  002bc	df f1		 fcomip	 ST(1)
  002be	dd d8		 fstp	 ST(0)
  002c0	59		 pop	 ecx
  002c1	76 16		 jbe	 SHORT $LN51@CheckOwner

; 686  : 					bLeftRot = true;
; 687  : 			}
; 688  : 
; 689  : 			if( bLeftRot )
; 690  : 				fRotateAngle *= -1;

  002c3	f3 0f 10 45 d0	 movss	 xmm0, DWORD PTR _fRotateAngle$530970[ebp]
  002c8	0f 5a c0	 cvtps2pd xmm0, xmm0
  002cb	f2 0f 59 05 00
	00 00 00	 mulsd	 xmm0, QWORD PTR __real@bff0000000000000
  002d3	66 0f 5a c0	 cvtpd2ps xmm0, xmm0
  002d7	eb 05		 jmp	 SHORT $LN1@CheckOwner
$LN51@CheckOwner:
  002d9	f3 0f 10 45 d0	 movss	 xmm0, DWORD PTR _fRotateAngle$530970[ebp]
$LN1@CheckOwner:

; 691  : 
; 692  : 			fRotateAngle = ioMath::ArrangeHead( fRotateAngle );

  002de	51		 push	 ecx
  002df	f3 0f 11 04 24	 movss	 DWORD PTR [esp], xmm0
  002e4	ff 15 00 00 00
	00		 call	 DWORD PTR __imp_?ArrangeHead@ioMath@@SAMM@Z
  002ea	d9 5d d0	 fstp	 DWORD PTR _fRotateAngle$530970[ebp]

; 693  : 
; 694  : 			D3DXQUATERNION	qtNewRot;
; 695  : 			D3DXQuaternionRotationYawPitchRoll( &qtNewRot, DEGtoRAD(fRotateAngle), 0.0f, 0.0f );

  002ed	d9 45 d0	 fld	 DWORD PTR _fRotateAngle$530970[ebp]
  002f0	0f 57 c0	 xorps	 xmm0, xmm0
  002f3	dc 0d 00 00 00
	00		 fmul	 QWORD PTR __real@3f91df46a2526c7a
  002f9	f3 0f 11 04 24	 movss	 DWORD PTR [esp], xmm0
  002fe	51		 push	 ecx
  002ff	51		 push	 ecx
  00300	d9 5d d4	 fstp	 DWORD PTR tv620[ebp]
  00303	f3 0f 11 44 24
	04		 movss	 DWORD PTR [esp+4], xmm0
  00309	d9 45 d4	 fld	 DWORD PTR tv620[ebp]
  0030c	8d 45 a8	 lea	 eax, DWORD PTR _qtNewRot$530987[ebp]
  0030f	d9 1c 24	 fstp	 DWORD PTR [esp]
  00312	50		 push	 eax
  00313	e8 00 00 00 00	 call	 _D3DXQuaternionRotationYawPitchRoll@16

; 696  : 			m_vMoveDir = qtNewRot * m_vMoveDir;

  00318	53		 push	 ebx
  00319	8d 45 a8	 lea	 eax, DWORD PTR _qtNewRot$530987[ebp]
  0031c	50		 push	 eax
  0031d	8d 45 d8	 lea	 eax, DWORD PTR $T530988[ebp]
  00320	50		 push	 eax
  00321	ff d6		 call	 esi
  00323	8b f0		 mov	 esi, eax
  00325	8b fb		 mov	 edi, ebx
  00327	a5		 movsd
  00328	a5		 movsd
  00329	a5		 movsd

; 697  : 
; 698  : 			ioMath::CalcDirectionQuaternion( qtNewRot, -m_vMoveDir );

  0032a	f3 0f 10 05 00
	00 00 00	 movss	 xmm0, DWORD PTR __mask@@NegFloat@
  00332	f3 0f 10 0b	 movss	 xmm1, DWORD PTR [ebx]
  00336	0f 57 c8	 xorps	 xmm1, xmm0
  00339	f3 0f 11 4d f0	 movss	 DWORD PTR $T530989[ebp], xmm1
  0033e	f3 0f 10 4b 04	 movss	 xmm1, DWORD PTR [ebx+4]
  00343	0f 57 c8	 xorps	 xmm1, xmm0
  00346	8d 45 f0	 lea	 eax, DWORD PTR $T530989[ebp]
  00349	50		 push	 eax
  0034a	f3 0f 11 4d f4	 movss	 DWORD PTR $T530989[ebp+4], xmm1
  0034f	f3 0f 10 4b 08	 movss	 xmm1, DWORD PTR [ebx+8]
  00354	8d 45 a8	 lea	 eax, DWORD PTR _qtNewRot$530987[ebp]
  00357	0f 57 c8	 xorps	 xmm1, xmm0
  0035a	50		 push	 eax
  0035b	f3 0f 11 4d f8	 movss	 DWORD PTR $T530989[ebp+8], xmm1
  00360	ff 15 00 00 00
	00		 call	 DWORD PTR __imp_?CalcDirectionQuaternion@ioMath@@SAXAAUD3DXQUATERNION@@ABUD3DXVECTOR3@@@Z

; 699  : 			SetOrientation( qtNewRot );

  00366	8b 4d c8	 mov	 ecx, DWORD PTR _this$GSCopy$[ebp]
  00369	83 c4 14	 add	 esp, 20			; 00000014H
  0036c	8d 45 a8	 lea	 eax, DWORD PTR _qtNewRot$530987[ebp]
  0036f	50		 push	 eax
  00370	e8 00 00 00 00	 call	 ?SetOrientation@ioWeapon@@QAEXABUD3DXQUATERNION@@@Z ; ioWeapon::SetOrientation
$LN52@CheckOwner:
  00375	5f		 pop	 edi
$LN4@CheckOwner:

; 700  : 		}
; 701  : 	}
; 702  : }

  00376	8b 4d fc	 mov	 ecx, DWORD PTR __$ArrayPad$[ebp]
  00379	5e		 pop	 esi
  0037a	33 cd		 xor	 ecx, ebp
  0037c	5b		 pop	 ebx
  0037d	e8 00 00 00 00	 call	 @__security_check_cookie@4
  00382	c9		 leave
  00383	c2 04 00	 ret	 4
?CheckOwnerRotateDir@ioControlMissileWeapon@@IAEXM@Z ENDP ; ioControlMissileWeapon::CheckOwnerRotateDir
_TEXT	ENDS
PUBLIC	__$ArrayPad$
PUBLIC	?CheckOwnerReturnDir@ioControlMissileWeapon@@IAEXM@Z ; ioControlMissileWeapon::CheckOwnerReturnDir
EXTRN	_D3DXVec3Normalize@8:PROC
; Function compile flags: /Ogsp
;	COMDAT ?CheckOwnerReturnDir@ioControlMissileWeapon@@IAEXM@Z
_TEXT	SEGMENT
_qtRotate$531022 = -124					; size = 16
_qtNewRot$531032 = -108					; size = 16
_qtRot$ = -92						; size = 16
tv897 = -76						; size = 4
tv805 = -76						; size = 4
_fRotateAngle$531015 = -76				; size = 4
_fTargetYaw$531028 = -72				; size = 4
_fAngleGap$531013 = -72					; size = 4
_pOwner$ = -72						; size = 4
tv893 = -68						; size = 4
tv889 = -68						; size = 4
tv837 = -68						; size = 4
tv818 = -68						; size = 4
tv810 = -68						; size = 4
tv793 = -68						; size = 4
tv769 = -68						; size = 4
$T535325 = -68						; size = 4
$T535249 = -68						; size = 4
tv159 = -68						; size = 4
_fCurYaw$531027 = -68					; size = 4
_fRate$531014 = -68					; size = 4
_fAngle$ = -68						; size = 4
$T531033 = -64						; size = 12
$T531020 = -64						; size = 12
_vTargetDir$ = -52					; size = 12
_vTargetXZDir$ = -40					; size = 12
_vMoveXZDir$ = -28					; size = 12
$T531034 = -16						; size = 12
$T531023 = -16						; size = 12
$T531019 = -16						; size = 12
$T531006 = -16						; size = 12
$T531001 = -16						; size = 12
__$ArrayPad$ = -4					; size = 4
_fTimePerSec$ = 8					; size = 4
?CheckOwnerReturnDir@ioControlMissileWeapon@@IAEXM@Z PROC ; ioControlMissileWeapon::CheckOwnerReturnDir, COMDAT
; _this$ = ecx

; 705  : {

  00000	55		 push	 ebp
  00001	8b ec		 mov	 ebp, esp
  00003	83 ec 7c	 sub	 esp, 124		; 0000007cH
  00006	a1 00 00 00 00	 mov	 eax, DWORD PTR ___security_cookie
  0000b	33 c5		 xor	 eax, ebp
  0000d	89 45 fc	 mov	 DWORD PTR __$ArrayPad$[ebp], eax
  00010	53		 push	 ebx
  00011	8b d9		 mov	 ebx, ecx

; 706  : 	ioBaseChar *pOwner = GetOwner();

  00013	e8 00 00 00 00	 call	 ?GetOwner@ioWeapon@@QBEPAVioBaseChar@@XZ ; ioWeapon::GetOwner
  00018	89 45 b8	 mov	 DWORD PTR _pOwner$[ebp], eax

; 707  : 	if( !pOwner ) return;

  0001b	85 c0		 test	 eax, eax
  0001d	0f 84 77 04 00
	00		 je	 $LN4@CheckOwner@2

; 708  : 
; 709  : 	DWORD dwCurTime = FRAMEGETTIME();

  00023	ff 15 00 00 00
	00		 call	 DWORD PTR __imp_?GetSingleton@ioFrameTimer@@SAAAV1@XZ
  00029	8b c8		 mov	 ecx, eax
  0002b	ff 15 00 00 00
	00		 call	 DWORD PTR __imp_?GetLoopSec@ioFrameTimer@@QBEKXZ

; 710  : 	if( m_dwRotateTime == 0 ) return;

  00031	83 bb 24 09 00
	00 00		 cmp	 DWORD PTR [ebx+2340], 0
  00038	0f 84 5c 04 00
	00		 je	 $LN4@CheckOwner@2

; 711  : 
; 712  : 	DWORD dwGapTime = dwCurTime - m_dwCreatedTime;

  0003e	2b 83 d4 04 00
	00		 sub	 eax, DWORD PTR [ebx+1236]

; 713  : 	if( dwGapTime < m_dwRotateStartTime )

  00044	3b 83 28 09 00
	00		 cmp	 eax, DWORD PTR [ebx+2344]
  0004a	0f 82 4a 04 00
	00		 jb	 $LN4@CheckOwner@2

; 714  : 		return;
; 715  : 
; 716  : 	D3DXVECTOR3 vTargetDir = pOwner->GetMidPositionByRate() - GetPosition();

  00050	56		 push	 esi
  00051	57		 push	 edi
  00052	b8 05 00 00 00	 mov	 eax, 5
  00057	8b f8		 mov	 edi, eax
  00059	b8 0a 00 00 00	 mov	 eax, 10			; 0000000aH
  0005e	89 45 bc	 mov	 DWORD PTR $T535249[ebp], eax
  00061	8b 03		 mov	 eax, DWORD PTR [ebx]
  00063	8b cb		 mov	 ecx, ebx
  00065	ff 50 70	 call	 DWORD PTR [eax+112]
  00068	89 7d b4	 mov	 DWORD PTR tv897[ebp], edi
  0006b	db 45 b4	 fild	 DWORD PTR tv897[ebp]
  0006e	8b f0		 mov	 esi, eax
  00070	85 ff		 test	 edi, edi
  00072	79 06		 jns	 SHORT $LN66@CheckOwner@2
  00074	d8 05 00 00 00
	00		 fadd	 DWORD PTR __real@4f800000
$LN66@CheckOwner@2:
  0007a	8b 45 bc	 mov	 eax, DWORD PTR $T535249[ebp]
  0007d	db 45 bc	 fild	 DWORD PTR $T535249[ebp]
  00080	85 c0		 test	 eax, eax
  00082	79 06		 jns	 SHORT $LN67@CheckOwner@2
  00084	d8 05 00 00 00
	00		 fadd	 DWORD PTR __real@4f800000
$LN67@CheckOwner@2:
  0008a	de f9		 fdivp	 ST(1), ST(0)
  0008c	51		 push	 ecx
  0008d	8b 4d b8	 mov	 ecx, DWORD PTR _pOwner$[ebp]
  00090	8d 45 f0	 lea	 eax, DWORD PTR $T531001[ebp]
  00093	d9 5d bc	 fstp	 DWORD PTR tv889[ebp]
  00096	d9 45 bc	 fld	 DWORD PTR tv889[ebp]
  00099	d9 1c 24	 fstp	 DWORD PTR [esp]
  0009c	50		 push	 eax
  0009d	e8 00 00 00 00	 call	 ?GetMidPositionByRate@ioGameEntity@@QBE?AUD3DXVECTOR3@@M@Z ; ioGameEntity::GetMidPositionByRate
  000a2	f3 0f 10 40 04	 movss	 xmm0, DWORD PTR [eax+4]
  000a7	f3 0f 10 4e 04	 movss	 xmm1, DWORD PTR [esi+4]
  000ac	f3 0f 10 56 08	 movss	 xmm2, DWORD PTR [esi+8]
  000b1	f3 0f 10 1e	 movss	 xmm3, DWORD PTR [esi]
  000b5	0f 5a c9	 cvtps2pd xmm1, xmm1
  000b8	0f 5a c0	 cvtps2pd xmm0, xmm0
  000bb	f2 0f 5c c1	 subsd	 xmm0, xmm1
  000bf	f3 0f 10 48 08	 movss	 xmm1, DWORD PTR [eax+8]
  000c4	0f 5a d2	 cvtps2pd xmm2, xmm2
  000c7	0f 5a c9	 cvtps2pd xmm1, xmm1
  000ca	f2 0f 5c ca	 subsd	 xmm1, xmm2
  000ce	f3 0f 10 10	 movss	 xmm2, DWORD PTR [eax]

; 717  : 	D3DXVec3Normalize( &vTargetDir, &vTargetDir );

  000d2	8d 45 cc	 lea	 eax, DWORD PTR _vTargetDir$[ebp]
  000d5	0f 5a d2	 cvtps2pd xmm2, xmm2
  000d8	0f 5a db	 cvtps2pd xmm3, xmm3
  000db	50		 push	 eax
  000dc	f2 0f 5c d3	 subsd	 xmm2, xmm3
  000e0	66 0f 5a c0	 cvtpd2ps xmm0, xmm0
  000e4	66 0f 5a c9	 cvtpd2ps xmm1, xmm1
  000e8	66 0f 5a d2	 cvtpd2ps xmm2, xmm2
  000ec	50		 push	 eax
  000ed	f3 0f 11 55 cc	 movss	 DWORD PTR _vTargetDir$[ebp], xmm2
  000f2	f3 0f 11 45 d0	 movss	 DWORD PTR _vTargetDir$[ebp+4], xmm0
  000f7	f3 0f 11 4d d4	 movss	 DWORD PTR _vTargetDir$[ebp+8], xmm1
  000fc	e8 00 00 00 00	 call	 _D3DXVec3Normalize@8

; 718  : 
; 719  : 	D3DXVECTOR3 vTargetXZDir, vMoveXZDir;
; 720  : 	vTargetXZDir = vTargetDir;
; 721  : 	vTargetDir.y = 0.0f;

  00101	0f 57 c0	 xorps	 xmm0, xmm0
  00104	8d 75 cc	 lea	 esi, DWORD PTR _vTargetDir$[ebp]
  00107	8d 7d d8	 lea	 edi, DWORD PTR _vTargetXZDir$[ebp]
  0010a	a5		 movsd
  0010b	a5		 movsd

; 722  : 	D3DXVec3Normalize( &vTargetXZDir, &vTargetXZDir );

  0010c	8d 45 d8	 lea	 eax, DWORD PTR _vTargetXZDir$[ebp]
  0010f	50		 push	 eax
  00110	a5		 movsd
  00111	50		 push	 eax
  00112	f3 0f 11 45 d0	 movss	 DWORD PTR _vTargetDir$[ebp+4], xmm0
  00117	e8 00 00 00 00	 call	 _D3DXVec3Normalize@8

; 723  : 
; 724  : 	vMoveXZDir = m_vMoveDir;
; 725  : 	vMoveXZDir.y = 0.0f;

  0011c	0f 57 c0	 xorps	 xmm0, xmm0
  0011f	8d b3 dc 08 00
	00		 lea	 esi, DWORD PTR [ebx+2268]
  00125	8d 7d e4	 lea	 edi, DWORD PTR _vMoveXZDir$[ebp]
  00128	a5		 movsd
  00129	a5		 movsd

; 726  : 	D3DXVec3Normalize( &vMoveXZDir, &vMoveXZDir );

  0012a	8d 45 e4	 lea	 eax, DWORD PTR _vMoveXZDir$[ebp]
  0012d	50		 push	 eax
  0012e	a5		 movsd
  0012f	50		 push	 eax
  00130	f3 0f 11 45 e8	 movss	 DWORD PTR _vMoveXZDir$[ebp+4], xmm0
  00135	e8 00 00 00 00	 call	 _D3DXVec3Normalize@8

; 727  : 
; 728  : 	D3DXQUATERNION qtRot;
; 729  : 	ioMath::CalcDirectionQuaternion( qtRot, -vTargetXZDir );

  0013a	f3 0f 10 05 00
	00 00 00	 movss	 xmm0, DWORD PTR __mask@@NegFloat@
  00142	f3 0f 10 4d d8	 movss	 xmm1, DWORD PTR _vTargetXZDir$[ebp]
  00147	8b 35 00 00 00
	00		 mov	 esi, DWORD PTR __imp_?CalcDirectionQuaternion@ioMath@@SAXAAUD3DXQUATERNION@@ABUD3DXVECTOR3@@@Z
  0014d	0f 57 c8	 xorps	 xmm1, xmm0
  00150	f3 0f 11 4d f0	 movss	 DWORD PTR $T531006[ebp], xmm1
  00155	f3 0f 10 4d dc	 movss	 xmm1, DWORD PTR _vTargetXZDir$[ebp+4]
  0015a	0f 57 c8	 xorps	 xmm1, xmm0
  0015d	8d 45 f0	 lea	 eax, DWORD PTR $T531006[ebp]
  00160	50		 push	 eax
  00161	f3 0f 11 4d f4	 movss	 DWORD PTR $T531006[ebp+4], xmm1
  00166	f3 0f 10 4d e0	 movss	 xmm1, DWORD PTR _vTargetXZDir$[ebp+8]
  0016b	8d 45 a4	 lea	 eax, DWORD PTR _qtRot$[ebp]
  0016e	0f 57 c8	 xorps	 xmm1, xmm0
  00171	50		 push	 eax
  00172	f3 0f 11 4d f8	 movss	 DWORD PTR $T531006[ebp+8], xmm1
  00177	ff d6		 call	 esi

; 730  : 
; 731  : 	float fAngle = D3DXVec3Dot( &vTargetXZDir, &vMoveXZDir );

  00179	f3 0f 10 45 e4	 movss	 xmm0, DWORD PTR _vMoveXZDir$[ebp]
  0017e	f3 0f 10 4d d8	 movss	 xmm1, DWORD PTR _vTargetXZDir$[ebp]
  00183	0f 5a c9	 cvtps2pd xmm1, xmm1
  00186	0f 5a c0	 cvtps2pd xmm0, xmm0
  00189	f2 0f 59 c1	 mulsd	 xmm0, xmm1
  0018d	f3 0f 10 4d dc	 movss	 xmm1, DWORD PTR _vTargetXZDir$[ebp+4]
  00192	59		 pop	 ecx
  00193	59		 pop	 ecx
  00194	0f 5a c9	 cvtps2pd xmm1, xmm1
  00197	f3 0f 10 55 e8	 movss	 xmm2, DWORD PTR _vMoveXZDir$[ebp+4]
  0019c	0f 5a d2	 cvtps2pd xmm2, xmm2
  0019f	f2 0f 59 ca	 mulsd	 xmm1, xmm2
  001a3	f3 0f 10 55 e0	 movss	 xmm2, DWORD PTR _vTargetXZDir$[ebp+8]
  001a8	f2 0f 58 c1	 addsd	 xmm0, xmm1
  001ac	f3 0f 10 4d ec	 movss	 xmm1, DWORD PTR _vMoveXZDir$[ebp+8]
  001b1	0f 5a c9	 cvtps2pd xmm1, xmm1
  001b4	0f 5a d2	 cvtps2pd xmm2, xmm2
  001b7	f2 0f 59 ca	 mulsd	 xmm1, xmm2
  001bb	f2 0f 58 c1	 addsd	 xmm0, xmm1
  001bf	66 0f 5a c0	 cvtpd2ps xmm0, xmm0
  001c3	f3 0f 11 45 bc	 movss	 DWORD PTR _fAngle$[ebp], xmm0

; 732  : 	if( fAngle > 0.98f )

  001c8	f3 0f 5a c0	 cvtss2sd xmm0, xmm0
  001cc	66 0f 2f 05 00
	00 00 00	 comisd	 xmm0, QWORD PTR __real@3fef5c2900000000
  001d4	76 18		 jbe	 SHORT $LN7@CheckOwner@2

; 733  : 	{
; 734  : 		SetOrientation( qtRot );

  001d6	8d 45 a4	 lea	 eax, DWORD PTR _qtRot$[ebp]
  001d9	50		 push	 eax
  001da	8b cb		 mov	 ecx, ebx
  001dc	e8 00 00 00 00	 call	 ?SetOrientation@ioWeapon@@QAEXABUD3DXQUATERNION@@@Z ; ioWeapon::SetOrientation

; 735  : 		m_vMoveDir = qtRot * D3DXVECTOR3( 0.0f, 0.0f, -FLOAT1 );

  001e1	b8 01 00 00 00	 mov	 eax, 1
  001e6	89 45 bc	 mov	 DWORD PTR tv837[ebp], eax
  001e9	db 45 bc	 fild	 DWORD PTR tv837[ebp]

; 736  : 
; 737  : 		m_vMoveDir.y = vTargetDir.y;
; 738  : 		D3DXVec3Normalize( &m_vMoveDir, &m_vMoveDir );
; 739  : 	}
; 740  : 	else

  001ec	eb 7c		 jmp	 SHORT $LN74@CheckOwner@2
$LN7@CheckOwner@2:

; 741  : 	{
; 742  : 		float fAngleGap = RADtoDEG( acosf(fAngle) );

  001ee	d9 45 bc	 fld	 DWORD PTR _fAngle$[ebp]
  001f1	e8 00 00 00 00	 call	 __CIacos
  001f6	d9 5d bc	 fstp	 DWORD PTR tv818[ebp]
  001f9	d9 45 bc	 fld	 DWORD PTR tv818[ebp]
  001fc	51		 push	 ecx
  001fd	d9 1c 24	 fstp	 DWORD PTR [esp]
  00200	e8 00 00 00 00	 call	 ??$RADtoDEG@M@@YAMM@Z	; RADtoDEG<float>

; 743  : 		float fRate = (fTimePerSec*1000) / m_dwRotateTime;

  00205	8b 83 24 09 00
	00		 mov	 eax, DWORD PTR [ebx+2340]
  0020b	d9 5d b8	 fstp	 DWORD PTR _fAngleGap$531013[ebp]
  0020e	d9 45 08	 fld	 DWORD PTR _fTimePerSec$[ebp]
  00211	59		 pop	 ecx
  00212	dc 0d 00 00 00
	00		 fmul	 QWORD PTR __real@408f400000000000
  00218	db 83 24 09 00
	00		 fild	 DWORD PTR [ebx+2340]
  0021e	85 c0		 test	 eax, eax
  00220	79 06		 jns	 SHORT $LN69@CheckOwner@2
  00222	d8 05 00 00 00
	00		 fadd	 DWORD PTR __real@4f800000
$LN69@CheckOwner@2:
  00228	de f9		 fdivp	 ST(1), ST(0)
  0022a	d9 5d bc	 fstp	 DWORD PTR _fRate$531014[ebp]

; 744  : 		float fRotateAngle = FLOAT360 * fRate;

  0022d	b8 68 01 00 00	 mov	 eax, 360		; 00000168H
  00232	89 45 b4	 mov	 DWORD PTR tv805[ebp], eax
  00235	db 45 b4	 fild	 DWORD PTR tv805[ebp]
  00238	85 c0		 test	 eax, eax
  0023a	79 06		 jns	 SHORT $LN70@CheckOwner@2
  0023c	d8 05 00 00 00
	00		 fadd	 DWORD PTR __real@4f800000
$LN70@CheckOwner@2:
  00242	d8 4d bc	 fmul	 DWORD PTR _fRate$531014[ebp]
  00245	d9 5d b4	 fstp	 DWORD PTR _fRotateAngle$531015[ebp]

; 745  : 
; 746  : 		if( fAngleGap < fRotateAngle )

  00248	d9 45 b8	 fld	 DWORD PTR _fAngleGap$531013[ebp]
  0024b	d9 45 b4	 fld	 DWORD PTR _fRotateAngle$531015[ebp]
  0024e	df f1		 fcomip	 ST(1)
  00250	dd d8		 fstp	 ST(0)
  00252	76 6d		 jbe	 SHORT $LN5@CheckOwner@2

; 747  : 		{
; 748  : 			SetOrientation( qtRot );

  00254	8d 45 a4	 lea	 eax, DWORD PTR _qtRot$[ebp]
  00257	50		 push	 eax
  00258	8b cb		 mov	 ecx, ebx
  0025a	e8 00 00 00 00	 call	 ?SetOrientation@ioWeapon@@QAEXABUD3DXQUATERNION@@@Z ; ioWeapon::SetOrientation

; 749  : 			m_vMoveDir = qtRot * D3DXVECTOR3( 0.0f, 0.0f, -FLOAT1 );

  0025f	b8 01 00 00 00	 mov	 eax, 1
  00264	89 45 bc	 mov	 DWORD PTR tv793[ebp], eax
  00267	db 45 bc	 fild	 DWORD PTR tv793[ebp]
$LN74@CheckOwner@2:
  0026a	0f 57 c0	 xorps	 xmm0, xmm0
  0026d	f3 0f 11 45 f4	 movss	 DWORD PTR $T531019[ebp+4], xmm0
  00272	f3 0f 11 45 f0	 movss	 DWORD PTR $T531019[ebp], xmm0
  00277	85 c0		 test	 eax, eax
  00279	79 06		 jns	 SHORT $LN71@CheckOwner@2
  0027b	d8 05 00 00 00
	00		 fadd	 DWORD PTR __real@4f800000
$LN71@CheckOwner@2:
  00281	8d 45 f0	 lea	 eax, DWORD PTR $T531019[ebp]
  00284	d9 e0		 fchs
  00286	50		 push	 eax
  00287	d9 5d f8	 fstp	 DWORD PTR $T531019[ebp+8]
  0028a	8d 45 a4	 lea	 eax, DWORD PTR _qtRot$[ebp]
  0028d	50		 push	 eax
  0028e	8d 45 c0	 lea	 eax, DWORD PTR $T531020[ebp]
  00291	50		 push	 eax
  00292	ff 15 00 00 00
	00		 call	 DWORD PTR __imp_??D@YA?AUD3DXVECTOR3@@ABUD3DXQUATERNION@@ABU0@@Z

; 750  : 
; 751  : 			m_vMoveDir.y = vTargetDir.y;

  00298	f3 0f 10 45 d0	 movss	 xmm0, DWORD PTR _vTargetDir$[ebp+4]
  0029d	8b f0		 mov	 esi, eax
  0029f	8d 83 dc 08 00
	00		 lea	 eax, DWORD PTR [ebx+2268]
  002a5	8b f8		 mov	 edi, eax
  002a7	a5		 movsd
  002a8	a5		 movsd
  002a9	83 c4 0c	 add	 esp, 12			; 0000000cH

; 752  : 			D3DXVec3Normalize( &m_vMoveDir, &m_vMoveDir );

  002ac	50		 push	 eax
  002ad	a5		 movsd
  002ae	50		 push	 eax
  002af	f3 0f 11 83 e0
	08 00 00	 movss	 DWORD PTR [ebx+2272], xmm0
  002b7	e8 00 00 00 00	 call	 _D3DXVec3Normalize@8

; 753  : 		}
; 754  : 		else

  002bc	e9 d7 01 00 00	 jmp	 $LN64@CheckOwner@2
$LN5@CheckOwner@2:

; 755  : 		{
; 756  : 			D3DXQUATERNION qtRotate;
; 757  : 			ioMath::CalcDirectionQuaternion( qtRotate, -vMoveXZDir );

  002c1	f3 0f 10 05 00
	00 00 00	 movss	 xmm0, DWORD PTR __mask@@NegFloat@
  002c9	f3 0f 10 4d e4	 movss	 xmm1, DWORD PTR _vMoveXZDir$[ebp]
  002ce	0f 57 c8	 xorps	 xmm1, xmm0
  002d1	f3 0f 11 4d f0	 movss	 DWORD PTR $T531023[ebp], xmm1
  002d6	f3 0f 10 4d e8	 movss	 xmm1, DWORD PTR _vMoveXZDir$[ebp+4]
  002db	0f 57 c8	 xorps	 xmm1, xmm0
  002de	8d 45 f0	 lea	 eax, DWORD PTR $T531023[ebp]
  002e1	50		 push	 eax
  002e2	f3 0f 11 4d f4	 movss	 DWORD PTR $T531023[ebp+4], xmm1
  002e7	f3 0f 10 4d ec	 movss	 xmm1, DWORD PTR _vMoveXZDir$[ebp+8]
  002ec	8d 45 84	 lea	 eax, DWORD PTR _qtRotate$531022[ebp]
  002ef	0f 57 c8	 xorps	 xmm1, xmm0
  002f2	50		 push	 eax
  002f3	f3 0f 11 4d f8	 movss	 DWORD PTR $T531023[ebp+8], xmm1
  002f8	ff d6		 call	 esi

; 758  : 
; 759  : 			bool bLeftRot = false;
; 760  : 			if( D3DXVec3Dot( &vTargetXZDir, &vMoveXZDir ) > -FLOAT1 )

  002fa	d9 45 e4	 fld	 DWORD PTR _vMoveXZDir$[ebp]
  002fd	d8 4d d8	 fmul	 DWORD PTR _vTargetXZDir$[ebp]
  00300	59		 pop	 ecx
  00301	d9 45 dc	 fld	 DWORD PTR _vTargetXZDir$[ebp+4]
  00304	59		 pop	 ecx
  00305	d8 4d e8	 fmul	 DWORD PTR _vMoveXZDir$[ebp+4]
  00308	de c1		 faddp	 ST(1), ST(0)
  0030a	d9 45 ec	 fld	 DWORD PTR _vMoveXZDir$[ebp+8]
  0030d	d8 4d e0	 fmul	 DWORD PTR _vTargetXZDir$[ebp+8]
  00310	de c1		 faddp	 ST(1), ST(0)
  00312	d9 5d bc	 fstp	 DWORD PTR $T535325[ebp]
  00315	b8 01 00 00 00	 mov	 eax, 1
  0031a	d9 45 bc	 fld	 DWORD PTR $T535325[ebp]
  0031d	89 45 bc	 mov	 DWORD PTR tv769[ebp], eax
  00320	db 45 bc	 fild	 DWORD PTR tv769[ebp]
  00323	85 c0		 test	 eax, eax
  00325	79 06		 jns	 SHORT $LN72@CheckOwner@2
  00327	d8 05 00 00 00
	00		 fadd	 DWORD PTR __real@4f800000
$LN72@CheckOwner@2:
  0032d	d9 e0		 fchs
  0032f	d9 c9		 fxch	 ST(1)
  00331	df f1		 fcomip	 ST(1)
  00333	dd d8		 fstp	 ST(0)
  00335	0f 86 8c 00 00
	00		 jbe	 $LN63@CheckOwner@2

; 761  : 			{
; 762  : 				float fCurYaw, fTargetYaw;
; 763  : 				fCurYaw = RADtoDEG( ioMath::QuaterToYaw( qtRotate ) );

  0033b	8d 45 84	 lea	 eax, DWORD PTR _qtRotate$531022[ebp]
  0033e	50		 push	 eax
  0033f	ff 15 00 00 00
	00		 call	 DWORD PTR __imp_?QuaterToYaw@ioMath@@SAMABUD3DXQUATERNION@@@Z
  00345	d9 1c 24	 fstp	 DWORD PTR [esp]
  00348	e8 00 00 00 00	 call	 ??$RADtoDEG@M@@YAMM@Z	; RADtoDEG<float>
  0034d	d9 5d bc	 fstp	 DWORD PTR _fCurYaw$531027[ebp]

; 764  : 				fTargetYaw = RADtoDEG( ioMath::QuaterToYaw( qtRot ) );

  00350	8d 45 a4	 lea	 eax, DWORD PTR _qtRot$[ebp]
  00353	50		 push	 eax
  00354	ff 15 00 00 00
	00		 call	 DWORD PTR __imp_?QuaterToYaw@ioMath@@SAMABUD3DXQUATERNION@@@Z
  0035a	59		 pop	 ecx
  0035b	d9 1c 24	 fstp	 DWORD PTR [esp]
  0035e	e8 00 00 00 00	 call	 ??$RADtoDEG@M@@YAMM@Z	; RADtoDEG<float>

; 765  : 
; 766  : 				fCurYaw = ioMath::ArrangeHead( fCurYaw );

  00363	f3 0f 10 45 bc	 movss	 xmm0, DWORD PTR _fCurYaw$531027[ebp]
  00368	d9 5d b8	 fstp	 DWORD PTR _fTargetYaw$531028[ebp]
  0036b	f3 0f 11 04 24	 movss	 DWORD PTR [esp], xmm0
  00370	ff 15 00 00 00
	00		 call	 DWORD PTR __imp_?ArrangeHead@ioMath@@SAMM@Z
  00376	d9 5d bc	 fstp	 DWORD PTR _fCurYaw$531027[ebp]

; 767  : 				fTargetYaw = ioMath::ArrangeHead( fTargetYaw );

  00379	f3 0f 10 45 b8	 movss	 xmm0, DWORD PTR _fTargetYaw$531028[ebp]
  0037e	f3 0f 11 04 24	 movss	 DWORD PTR [esp], xmm0
  00383	ff 15 00 00 00
	00		 call	 DWORD PTR __imp_?ArrangeHead@ioMath@@SAMM@Z
  00389	d9 5d b8	 fstp	 DWORD PTR _fTargetYaw$531028[ebp]

; 768  : 
; 769  : 				float fRotAngle = ioMath::AngleGap( fCurYaw, fTargetYaw );

  0038c	f3 0f 10 45 b8	 movss	 xmm0, DWORD PTR _fTargetYaw$531028[ebp]
  00391	f3 0f 11 04 24	 movss	 DWORD PTR [esp], xmm0
  00396	f3 0f 10 45 bc	 movss	 xmm0, DWORD PTR _fCurYaw$531027[ebp]
  0039b	51		 push	 ecx
  0039c	f3 0f 11 04 24	 movss	 DWORD PTR [esp], xmm0
  003a1	ff 15 00 00 00
	00		 call	 DWORD PTR __imp_?AngleGap@ioMath@@SAMMM@Z

; 770  : 				if( fRotAngle < 0.0f )

  003a7	d9 ee		 fldz
  003a9	59		 pop	 ecx
  003aa	df f1		 fcomip	 ST(1)
  003ac	dd d8		 fstp	 ST(0)
  003ae	59		 pop	 ecx
  003af	76 16		 jbe	 SHORT $LN63@CheckOwner@2

; 771  : 					bLeftRot = true;
; 772  : 			}
; 773  : 
; 774  : 			if( bLeftRot )
; 775  : 				fRotateAngle *= -1;

  003b1	f3 0f 10 45 b4	 movss	 xmm0, DWORD PTR _fRotateAngle$531015[ebp]
  003b6	0f 5a c0	 cvtps2pd xmm0, xmm0
  003b9	f2 0f 59 05 00
	00 00 00	 mulsd	 xmm0, QWORD PTR __real@bff0000000000000
  003c1	66 0f 5a c0	 cvtpd2ps xmm0, xmm0
  003c5	eb 05		 jmp	 SHORT $LN1@CheckOwner@2
$LN63@CheckOwner@2:
  003c7	f3 0f 10 45 b4	 movss	 xmm0, DWORD PTR _fRotateAngle$531015[ebp]
$LN1@CheckOwner@2:

; 776  : 
; 777  : 			fRotateAngle = ioMath::ArrangeHead( fRotateAngle );

  003cc	51		 push	 ecx
  003cd	f3 0f 11 04 24	 movss	 DWORD PTR [esp], xmm0
  003d2	ff 15 00 00 00
	00		 call	 DWORD PTR __imp_?ArrangeHead@ioMath@@SAMM@Z
  003d8	d9 5d b4	 fstp	 DWORD PTR _fRotateAngle$531015[ebp]

; 778  : 
; 779  : 			D3DXQUATERNION	qtNewRot;
; 780  : 			D3DXQuaternionRotationYawPitchRoll( &qtNewRot, DEGtoRAD(fRotateAngle), 0.0f, 0.0f );

  003db	d9 45 b4	 fld	 DWORD PTR _fRotateAngle$531015[ebp]
  003de	0f 57 c0	 xorps	 xmm0, xmm0
  003e1	dc 0d 00 00 00
	00		 fmul	 QWORD PTR __real@3f91df46a2526c7a
  003e7	f3 0f 11 04 24	 movss	 DWORD PTR [esp], xmm0
  003ec	51		 push	 ecx
  003ed	51		 push	 ecx
  003ee	d9 5d bc	 fstp	 DWORD PTR tv159[ebp]
  003f1	f3 0f 11 44 24
	04		 movss	 DWORD PTR [esp+4], xmm0
  003f7	d9 45 bc	 fld	 DWORD PTR tv159[ebp]
  003fa	8d 45 94	 lea	 eax, DWORD PTR _qtNewRot$531032[ebp]
  003fd	d9 1c 24	 fstp	 DWORD PTR [esp]
  00400	50		 push	 eax
  00401	e8 00 00 00 00	 call	 _D3DXQuaternionRotationYawPitchRoll@16

; 781  : 			vMoveXZDir = qtNewRot * vMoveXZDir;

  00406	8d 45 e4	 lea	 eax, DWORD PTR _vMoveXZDir$[ebp]
  00409	50		 push	 eax
  0040a	8d 45 94	 lea	 eax, DWORD PTR _qtNewRot$531032[ebp]
  0040d	50		 push	 eax
  0040e	8d 45 c0	 lea	 eax, DWORD PTR $T531033[ebp]
  00411	50		 push	 eax
  00412	ff 15 00 00 00
	00		 call	 DWORD PTR __imp_??D@YA?AUD3DXVECTOR3@@ABUD3DXQUATERNION@@ABU0@@Z

; 782  : 
; 783  : 			m_vMoveDir = vMoveXZDir;
; 784  : 			m_vMoveDir.y = vTargetDir.y;

  00418	f3 0f 10 45 d0	 movss	 xmm0, DWORD PTR _vTargetDir$[ebp+4]
  0041d	8b f0		 mov	 esi, eax
  0041f	8d 7d e4	 lea	 edi, DWORD PTR _vMoveXZDir$[ebp]
  00422	a5		 movsd
  00423	a5		 movsd
  00424	a5		 movsd
  00425	8d 83 dc 08 00
	00		 lea	 eax, DWORD PTR [ebx+2268]
  0042b	8b f8		 mov	 edi, eax
  0042d	8d 75 e4	 lea	 esi, DWORD PTR _vMoveXZDir$[ebp]
  00430	a5		 movsd
  00431	a5		 movsd
  00432	83 c4 0c	 add	 esp, 12			; 0000000cH

; 785  : 			D3DXVec3Normalize( &m_vMoveDir, &m_vMoveDir );

  00435	50		 push	 eax
  00436	a5		 movsd
  00437	50		 push	 eax
  00438	f3 0f 11 83 e0
	08 00 00	 movss	 DWORD PTR [ebx+2272], xmm0
  00440	e8 00 00 00 00	 call	 _D3DXVec3Normalize@8

; 786  : 
; 787  : 			ioMath::CalcDirectionQuaternion( qtNewRot, -m_vMoveDir );

  00445	f3 0f 10 05 00
	00 00 00	 movss	 xmm0, DWORD PTR __mask@@NegFloat@
  0044d	f3 0f 10 8b dc
	08 00 00	 movss	 xmm1, DWORD PTR [ebx+2268]
  00455	0f 57 c8	 xorps	 xmm1, xmm0
  00458	f3 0f 11 4d f0	 movss	 DWORD PTR $T531034[ebp], xmm1
  0045d	f3 0f 10 8b e0
	08 00 00	 movss	 xmm1, DWORD PTR [ebx+2272]
  00465	0f 57 c8	 xorps	 xmm1, xmm0
  00468	8d 45 f0	 lea	 eax, DWORD PTR $T531034[ebp]
  0046b	50		 push	 eax
  0046c	f3 0f 11 4d f4	 movss	 DWORD PTR $T531034[ebp+4], xmm1
  00471	f3 0f 10 8b e4
	08 00 00	 movss	 xmm1, DWORD PTR [ebx+2276]
  00479	8d 45 94	 lea	 eax, DWORD PTR _qtNewRot$531032[ebp]
  0047c	0f 57 c8	 xorps	 xmm1, xmm0
  0047f	50		 push	 eax
  00480	f3 0f 11 4d f8	 movss	 DWORD PTR $T531034[ebp+8], xmm1
  00485	ff 15 00 00 00
	00		 call	 DWORD PTR __imp_?CalcDirectionQuaternion@ioMath@@SAXAAUD3DXQUATERNION@@ABUD3DXVECTOR3@@@Z
  0048b	59		 pop	 ecx
  0048c	59		 pop	 ecx

; 788  : 			SetOrientation( qtNewRot );

  0048d	8d 45 94	 lea	 eax, DWORD PTR _qtNewRot$531032[ebp]
  00490	50		 push	 eax
  00491	8b cb		 mov	 ecx, ebx
  00493	e8 00 00 00 00	 call	 ?SetOrientation@ioWeapon@@QAEXABUD3DXQUATERNION@@@Z ; ioWeapon::SetOrientation
$LN64@CheckOwner@2:
  00498	5f		 pop	 edi
  00499	5e		 pop	 esi
$LN4@CheckOwner@2:

; 789  : 		}
; 790  : 	}
; 791  : }

  0049a	8b 4d fc	 mov	 ecx, DWORD PTR __$ArrayPad$[ebp]
  0049d	33 cd		 xor	 ecx, ebp
  0049f	5b		 pop	 ebx
  004a0	e8 00 00 00 00	 call	 @__security_check_cookie@4
  004a5	c9		 leave
  004a6	c2 04 00	 ret	 4
?CheckOwnerReturnDir@ioControlMissileWeapon@@IAEXM@Z ENDP ; ioControlMissileWeapon::CheckOwnerReturnDir
_TEXT	ENDS
PUBLIC	?GetCurRotateEndTime@ioControlMissileWeapon@@IAEKXZ ; ioControlMissileWeapon::GetCurRotateEndTime
; Function compile flags: /Ogsp
;	COMDAT ?GetCurRotateEndTime@ioControlMissileWeapon@@IAEKXZ
_TEXT	SEGMENT
tv131 = -8						; size = 4
_value$535365 = -4					; size = 4
?GetCurRotateEndTime@ioControlMissileWeapon@@IAEKXZ PROC ; ioControlMissileWeapon::GetCurRotateEndTime, COMDAT
; _this$ = ecx

; 794  : {

  00000	55		 push	 ebp
  00001	8b ec		 mov	 ebp, esp
  00003	51		 push	 ecx
  00004	51		 push	 ecx
  00005	56		 push	 esi
  00006	8b f1		 mov	 esi, ecx

; 795  : 	return m_dwRotateEndTime * m_fOwnerChargeLiveTimeRate;

  00008	8d 45 fc	 lea	 eax, DWORD PTR _value$535365[ebp]
  0000b	50		 push	 eax
  0000c	8d 8e 40 02 00
	00		 lea	 ecx, DWORD PTR [esi+576]
  00012	e8 00 00 00 00	 call	 ?DecryptValueToPool@?$CEncrypt@M@@QAEXPAM@Z ; CEncrypt<float>::DecryptValueToPool
  00017	db 86 2c 09 00
	00		 fild	 DWORD PTR [esi+2348]
  0001d	8b 86 2c 09 00
	00		 mov	 eax, DWORD PTR [esi+2348]
  00023	85 c0		 test	 eax, eax
  00025	79 06		 jns	 SHORT $LN5@GetCurRota
  00027	d8 05 00 00 00
	00		 fadd	 DWORD PTR __real@4f800000
$LN5@GetCurRota:
  0002d	d8 4d fc	 fmul	 DWORD PTR _value$535365[ebp]
  00030	e8 00 00 00 00	 call	 __ftol2
  00035	5e		 pop	 esi

; 796  : }

  00036	c9		 leave
  00037	c3		 ret	 0
?GetCurRotateEndTime@ioControlMissileWeapon@@IAEKXZ ENDP ; ioControlMissileWeapon::GetCurRotateEndTime
_TEXT	ENDS
PUBLIC	?GetTeam@ioPlayEntity@@QBE?AW4TeamType@@XZ	; ioPlayEntity::GetTeam
; Function compile flags: /Ogsp
; File d:\lost saga for developer\youtube\tutorial\source\src\lsclient\ioplayentity.h
;	COMDAT ?GetTeam@ioPlayEntity@@QBE?AW4TeamType@@XZ
_TEXT	SEGMENT
_value$535373 = -4					; size = 4
?GetTeam@ioPlayEntity@@QBE?AW4TeamType@@XZ PROC		; ioPlayEntity::GetTeam, COMDAT
; _this$ = ecx

; 107  : 	inline TeamType GetTeam() const { return m_TeamType; }

  00000	55		 push	 ebp
  00001	8b ec		 mov	 ebp, esp
  00003	51		 push	 ecx
  00004	8d 45 fc	 lea	 eax, DWORD PTR _value$535373[ebp]
  00007	50		 push	 eax
  00008	81 c1 90 00 00
	00		 add	 ecx, 144		; 00000090H
  0000e	e8 00 00 00 00	 call	 ?DecryptValueToPool@?$CEncrypt@W4TeamType@@@@QAEXPAW4TeamType@@@Z ; CEncrypt<enum TeamType>::DecryptValueToPool
  00013	8b 45 fc	 mov	 eax, DWORD PTR _value$535373[ebp]
  00016	c9		 leave
  00017	c3		 ret	 0
?GetTeam@ioPlayEntity@@QBE?AW4TeamType@@XZ ENDP		; ioPlayEntity::GetTeam
_TEXT	ENDS
PUBLIC	?GetTeam@ioWeapon@@QBE?AW4TeamType@@XZ		; ioWeapon::GetTeam
; Function compile flags: /Ogsp
; File d:\lost saga for developer\youtube\tutorial\source\src\lsclient\ioweapon.h
;	COMDAT ?GetTeam@ioWeapon@@QBE?AW4TeamType@@XZ
_TEXT	SEGMENT
_value$535380 = -4					; size = 4
?GetTeam@ioWeapon@@QBE?AW4TeamType@@XZ PROC		; ioWeapon::GetTeam, COMDAT
; _this$ = ecx

; 534  : 	inline TeamType GetTeam() const { return m_TeamType; }

  00000	55		 push	 ebp
  00001	8b ec		 mov	 ebp, esp
  00003	51		 push	 ecx
  00004	8d 45 fc	 lea	 eax, DWORD PTR _value$535380[ebp]
  00007	50		 push	 eax
  00008	83 c1 30	 add	 ecx, 48			; 00000030H
  0000b	e8 00 00 00 00	 call	 ?DecryptValueToPool@?$CEncrypt@W4TeamType@@@@QAEXPAW4TeamType@@@Z ; CEncrypt<enum TeamType>::DecryptValueToPool
  00010	8b 45 fc	 mov	 eax, DWORD PTR _value$535380[ebp]
  00013	c9		 leave
  00014	c3		 ret	 0
?GetTeam@ioWeapon@@QBE?AW4TeamType@@XZ ENDP		; ioWeapon::GetTeam
_TEXT	ENDS
PUBLIC	__$ArrayPad$
PUBLIC	?CheckInRange@ioControlMissileWeapon@@IAE_NXZ	; ioControlMissileWeapon::CheckInRange
; Function compile flags: /Ogsp
; File d:\lost saga for developer\youtube\tutorial\source\src\lsclient\iocontrolmissileweapon.cpp
;	COMDAT ?CheckInRange@ioControlMissileWeapon@@IAE_NXZ
_TEXT	SEGMENT
tv339 = -40						; size = 8
tv336 = -32						; size = 8
tv328 = -28						; size = 4
tv324 = -28						; size = 4
tv254 = -28						; size = 4
tv334 = -24						; size = 8
tv320 = -20						; size = 4
tv294 = -20						; size = 4
tv288 = -20						; size = 4
$T530783 = -16						; size = 12
tv147 = -12						; size = 8
__$ArrayPad$ = -4					; size = 4
?CheckInRange@ioControlMissileWeapon@@IAE_NXZ PROC	; ioControlMissileWeapon::CheckInRange, COMDAT
; _this$ = ecx

; 298  : {

  00000	55		 push	 ebp
  00001	8b ec		 mov	 ebp, esp
  00003	83 ec 28	 sub	 esp, 40			; 00000028H
  00006	a1 00 00 00 00	 mov	 eax, DWORD PTR ___security_cookie
  0000b	33 c5		 xor	 eax, ebp
  0000d	89 45 fc	 mov	 DWORD PTR __$ArrayPad$[ebp], eax
  00010	57		 push	 edi
  00011	8b f9		 mov	 edi, ecx

; 299  : 	ioBaseChar *pOwner = GetOwner();

  00013	e8 00 00 00 00	 call	 ?GetOwner@ioWeapon@@QBEPAVioBaseChar@@XZ ; ioWeapon::GetOwner
  00018	8b c8		 mov	 ecx, eax

; 300  : 	if( !pOwner )

  0001a	85 c9		 test	 ecx, ecx
  0001c	75 0e		 jne	 SHORT $LN2@CheckInRan

; 301  : 	{
; 302  : 		SetWeaponDead();

  0001e	8b 07		 mov	 eax, DWORD PTR [edi]
  00020	8b cf		 mov	 ecx, edi
  00022	ff 50 4c	 call	 DWORD PTR [eax+76]
$LN17@CheckInRan:

; 303  : 		return true;

  00025	b0 01		 mov	 al, 1
  00027	e9 fb 00 00 00	 jmp	 $LN3@CheckInRan
$LN2@CheckInRan:
  0002c	56		 push	 esi

; 304  : 	}
; 305  : 
; 306  : 	D3DXVECTOR3 vDiff = GetPosition() - pOwner->GetMidPositionByRate();

  0002d	b8 05 00 00 00	 mov	 eax, 5
  00032	8b d0		 mov	 edx, eax
  00034	b8 0a 00 00 00	 mov	 eax, 10			; 0000000aH
  00039	89 55 e4	 mov	 DWORD PTR tv328[ebp], edx
  0003c	db 45 e4	 fild	 DWORD PTR tv328[ebp]
  0003f	85 d2		 test	 edx, edx
  00041	79 06		 jns	 SHORT $LN15@CheckInRan
  00043	d8 05 00 00 00
	00		 fadd	 DWORD PTR __real@4f800000
$LN15@CheckInRan:
  00049	89 45 e4	 mov	 DWORD PTR tv324[ebp], eax
  0004c	db 45 e4	 fild	 DWORD PTR tv324[ebp]
  0004f	85 c0		 test	 eax, eax
  00051	79 06		 jns	 SHORT $LN16@CheckInRan
  00053	d8 05 00 00 00
	00		 fadd	 DWORD PTR __real@4f800000
$LN16@CheckInRan:
  00059	de f9		 fdivp	 ST(1), ST(0)
  0005b	51		 push	 ecx
  0005c	8d 45 f0	 lea	 eax, DWORD PTR $T530783[ebp]
  0005f	d9 5d ec	 fstp	 DWORD PTR tv320[ebp]
  00062	d9 45 ec	 fld	 DWORD PTR tv320[ebp]
  00065	d9 1c 24	 fstp	 DWORD PTR [esp]
  00068	50		 push	 eax
  00069	e8 00 00 00 00	 call	 ?GetMidPositionByRate@ioGameEntity@@QBE?AUD3DXVECTOR3@@M@Z ; ioGameEntity::GetMidPositionByRate
  0006e	8b f0		 mov	 esi, eax
  00070	8b 07		 mov	 eax, DWORD PTR [edi]
  00072	8b cf		 mov	 ecx, edi
  00074	ff 50 70	 call	 DWORD PTR [eax+112]
  00077	f3 0f 10 00	 movss	 xmm0, DWORD PTR [eax]
  0007b	f3 0f 10 0e	 movss	 xmm1, DWORD PTR [esi]
  0007f	f3 0f 10 56 04	 movss	 xmm2, DWORD PTR [esi+4]
  00084	f3 0f 10 5e 08	 movss	 xmm3, DWORD PTR [esi+8]
  00089	0f 5a c0	 cvtps2pd xmm0, xmm0
  0008c	0f 5a c9	 cvtps2pd xmm1, xmm1
  0008f	f2 0f 5c c1	 subsd	 xmm0, xmm1
  00093	f3 0f 10 48 04	 movss	 xmm1, DWORD PTR [eax+4]
  00098	66 0f 5a c0	 cvtpd2ps xmm0, xmm0
  0009c	0f 5a d2	 cvtps2pd xmm2, xmm2
  0009f	f3 0f 5a c0	 cvtss2sd xmm0, xmm0
  000a3	f2 0f 11 45 e8	 movsd	 QWORD PTR tv334[ebp], xmm0
  000a8	0f 5a c9	 cvtps2pd xmm1, xmm1
  000ab	f2 0f 5c ca	 subsd	 xmm1, xmm2
  000af	f3 0f 10 50 08	 movss	 xmm2, DWORD PTR [eax+8]

; 307  : 	float fLengthSq = D3DXVec3LengthSq( &vDiff );

  000b4	0f 57 c0	 xorps	 xmm0, xmm0
  000b7	66 0f 5a c9	 cvtpd2ps xmm1, xmm1
  000bb	f3 0f 5a c1	 cvtss2sd xmm0, xmm1
  000bf	0f 5a d2	 cvtps2pd xmm2, xmm2
  000c2	0f 5a db	 cvtps2pd xmm3, xmm3
  000c5	f2 0f 11 45 e0	 movsd	 QWORD PTR tv336[ebp], xmm0
  000ca	f2 0f 5c d3	 subsd	 xmm2, xmm3
  000ce	66 0f 5a d2	 cvtpd2ps xmm2, xmm2
  000d2	0f 57 c0	 xorps	 xmm0, xmm0
  000d5	f3 0f 5a c2	 cvtss2sd xmm0, xmm2

; 308  : 	float fMaxRangeSq = GetMaxRange() * GetMaxRange();

  000d9	8b cf		 mov	 ecx, edi
  000db	f2 0f 11 45 d8	 movsd	 QWORD PTR tv339[ebp], xmm0
  000e0	e8 00 00 00 00	 call	 ?GetMaxRange@ioControlMissileWeapon@@IAEMXZ ; ioControlMissileWeapon::GetMaxRange
  000e5	dd 5d f4	 fstp	 QWORD PTR tv147[ebp]
  000e8	dd 45 e0	 fld	 QWORD PTR tv336[ebp]
  000eb	8b cf		 mov	 ecx, edi
  000ed	dc 4d e0	 fmul	 QWORD PTR tv336[ebp]
  000f0	dd 45 e8	 fld	 QWORD PTR tv334[ebp]
  000f3	dc 4d e8	 fmul	 QWORD PTR tv334[ebp]
  000f6	de c1		 faddp	 ST(1), ST(0)
  000f8	dd 45 d8	 fld	 QWORD PTR tv339[ebp]
  000fb	dc 4d d8	 fmul	 QWORD PTR tv339[ebp]
  000fe	de c1		 faddp	 ST(1), ST(0)

; 309  : 
; 310  : 	if( fLengthSq < fMaxRangeSq )

  00100	d9 5d ec	 fstp	 DWORD PTR tv294[ebp]
  00103	d9 45 ec	 fld	 DWORD PTR tv294[ebp]
  00106	d9 5d e4	 fstp	 DWORD PTR tv254[ebp]
  00109	e8 00 00 00 00	 call	 ?GetMaxRange@ioControlMissileWeapon@@IAEMXZ ; ioControlMissileWeapon::GetMaxRange
  0010e	dc 4d f4	 fmul	 QWORD PTR tv147[ebp]
  00111	5e		 pop	 esi
  00112	d9 5d ec	 fstp	 DWORD PTR tv288[ebp]
  00115	d9 45 e4	 fld	 DWORD PTR tv254[ebp]
  00118	d9 45 ec	 fld	 DWORD PTR tv288[ebp]
  0011b	df f1		 fcomip	 ST(1)
  0011d	dd d8		 fstp	 ST(0)

; 311  : 		return true;

  0011f	0f 87 00 ff ff
	ff		 ja	 $LN17@CheckInRan

; 312  : 
; 313  : 	return false;

  00125	32 c0		 xor	 al, al
$LN3@CheckInRan:

; 314  : }

  00127	8b 4d fc	 mov	 ecx, DWORD PTR __$ArrayPad$[ebp]
  0012a	33 cd		 xor	 ecx, ebp
  0012c	5f		 pop	 edi
  0012d	e8 00 00 00 00	 call	 @__security_check_cookie@4
  00132	c9		 leave
  00133	c3		 ret	 0
?CheckInRange@ioControlMissileWeapon@@IAE_NXZ ENDP	; ioControlMissileWeapon::CheckInRange
_TEXT	ENDS
PUBLIC	_pStage$GSCopy$
PUBLIC	__$ArrayPad$
PUBLIC	?OnInRangeState@ioControlMissileWeapon@@IAEXMPAVioPlayStage@@@Z ; ioControlMissileWeapon::OnInRangeState
EXTRN	?GetMapHeightNoneEntity@ioPlayStage@@QAEMMMM_N@Z:PROC ; ioPlayStage::GetMapHeightNoneEntity
EXTRN	__imp_?GetExtents@ioAxisAlignBox@@QBEMH@Z:PROC
; Function compile flags: /Ogsp
;	COMDAT ?OnInRangeState@ioControlMissileWeapon@@IAEXMPAVioPlayStage@@@Z
_TEXT	SEGMENT
tv467 = -24						; size = 4
_fHeight$ = -24						; size = 4
_fMoveDist$ = -24					; size = 4
tv458 = -20						; size = 4
tv454 = -20						; size = 4
tv439 = -20						; size = 4
tv436 = -20						; size = 4
_pStage$GSCopy$ = -20					; size = 4
_vNewPos$ = -16						; size = 12
__$ArrayPad$ = -4					; size = 4
_fTimePerSec$ = 8					; size = 4
_pStage$ = 12						; size = 4
?OnInRangeState@ioControlMissileWeapon@@IAEXMPAVioPlayStage@@@Z PROC ; ioControlMissileWeapon::OnInRangeState, COMDAT
; _this$ = ecx

; 333  : {

  00000	55		 push	 ebp
  00001	8b ec		 mov	 ebp, esp
  00003	83 ec 18	 sub	 esp, 24			; 00000018H
  00006	a1 00 00 00 00	 mov	 eax, DWORD PTR ___security_cookie
  0000b	33 c5		 xor	 eax, ebp
  0000d	89 45 fc	 mov	 DWORD PTR __$ArrayPad$[ebp], eax
  00010	8b 45 0c	 mov	 eax, DWORD PTR _pStage$[ebp]
  00013	53		 push	 ebx
  00014	8b d9		 mov	 ebx, ecx

; 360  : 	{
; 361  : 		m_pMissileMesh->Update( fTimePerSec * FLOAT1000 );

  00016	89 45 ec	 mov	 DWORD PTR _pStage$GSCopy$[ebp], eax
  00019	e8 00 00 00 00	 call	 ?GetOwner@ioWeapon@@QBEPAVioBaseChar@@XZ ; ioWeapon::GetOwner
  0001e	85 c0		 test	 eax, eax
  00020	75 0c		 jne	 SHORT $LN3@OnInRangeS

; 334  : 	ioBaseChar *pOwner = GetOwner();
; 335  : 	if( !pOwner )
; 336  : 	{
; 337  : 		SetWeaponDead();

  00022	8b 03		 mov	 eax, DWORD PTR [ebx]
  00024	8b cb		 mov	 ecx, ebx
  00026	ff 50 4c	 call	 DWORD PTR [eax+76]

; 338  : 		return;

  00029	e9 bc 01 00 00	 jmp	 $LN1@OnInRangeS
$LN3@OnInRangeS:
  0002e	56		 push	 esi
  0002f	57		 push	 edi

; 339  : 	}
; 340  : 
; 341  : 	DWORD dwCurTime = FRAMEGETTIME();

  00030	ff 15 00 00 00
	00		 call	 DWORD PTR __imp_?GetSingleton@ioFrameTimer@@SAAAV1@XZ
  00036	8b c8		 mov	 ecx, eax
  00038	ff 15 00 00 00
	00		 call	 DWORD PTR __imp_?GetLoopSec@ioFrameTimer@@QBEKXZ

; 342  : 
; 343  : 	CheckOwnerRotateDir( fTimePerSec );

  0003e	f3 0f 10 45 08	 movss	 xmm0, DWORD PTR _fTimePerSec$[ebp]
  00043	51		 push	 ecx
  00044	8b cb		 mov	 ecx, ebx
  00046	f3 0f 11 04 24	 movss	 DWORD PTR [esp], xmm0
  0004b	e8 00 00 00 00	 call	 ?CheckOwnerRotateDir@ioControlMissileWeapon@@IAEXM@Z ; ioControlMissileWeapon::CheckOwnerRotateDir

; 344  : 
; 345  : 	float fCurSpeed = GetMoveSpeed();

  00050	8b cb		 mov	 ecx, ebx
  00052	e8 00 00 00 00	 call	 ?GetMoveSpeed@ioControlMissileWeapon@@IAEMXZ ; ioControlMissileWeapon::GetMoveSpeed

; 346  : 	float fMoveDist = fCurSpeed * fTimePerSec;

  00057	d8 4d 08	 fmul	 DWORD PTR _fTimePerSec$[ebp]

; 347  : 
; 348  : 	m_vPrePos = GetPosition();

  0005a	8b 03		 mov	 eax, DWORD PTR [ebx]
  0005c	8b cb		 mov	 ecx, ebx
  0005e	d9 5d e8	 fstp	 DWORD PTR _fMoveDist$[ebp]
  00061	ff 50 70	 call	 DWORD PTR [eax+112]

; 349  : 	D3DXVECTOR3 vNewPos = m_vPrePos + (m_vMoveDir * fMoveDist);

  00064	f3 0f 10 4d e8	 movss	 xmm1, DWORD PTR _fMoveDist$[ebp]
  00069	f3 0f 10 55 e8	 movss	 xmm2, DWORD PTR _fMoveDist$[ebp]
  0006e	f3 0f 10 5d e8	 movss	 xmm3, DWORD PTR _fMoveDist$[ebp]
  00073	8b f0		 mov	 esi, eax
  00075	8d bb 0c 09 00
	00		 lea	 edi, DWORD PTR [ebx+2316]
  0007b	a5		 movsd
  0007c	a5		 movsd

; 350  : 
; 351  : 	float fHeight = pStage->GetMapHeightNoneEntity( vNewPos.x, vNewPos.z, vNewPos.y+m_pMissileMesh->GetBoundBox().GetExtents(1) );

  0007d	8b 8b e8 08 00
	00		 mov	 ecx, DWORD PTR [ebx+2280]
  00083	a5		 movsd
  00084	f3 0f 10 83 dc
	08 00 00	 movss	 xmm0, DWORD PTR [ebx+2268]
  0008c	0f 5a c0	 cvtps2pd xmm0, xmm0
  0008f	0f 5a c9	 cvtps2pd xmm1, xmm1
  00092	f2 0f 59 c1	 mulsd	 xmm0, xmm1
  00096	f3 0f 10 8b e0
	08 00 00	 movss	 xmm1, DWORD PTR [ebx+2272]
  0009e	66 0f 5a c0	 cvtpd2ps xmm0, xmm0
  000a2	0f 5a c9	 cvtps2pd xmm1, xmm1
  000a5	0f 5a d2	 cvtps2pd xmm2, xmm2
  000a8	f2 0f 59 ca	 mulsd	 xmm1, xmm2
  000ac	f3 0f 10 93 e4
	08 00 00	 movss	 xmm2, DWORD PTR [ebx+2276]
  000b4	f3 0f 5a c0	 cvtss2sd xmm0, xmm0
  000b8	0f 5a db	 cvtps2pd xmm3, xmm3
  000bb	0f 5a d2	 cvtps2pd xmm2, xmm2
  000be	f2 0f 59 d3	 mulsd	 xmm2, xmm3
  000c2	f3 0f 10 9b 0c
	09 00 00	 movss	 xmm3, DWORD PTR [ebx+2316]
  000ca	0f 5a db	 cvtps2pd xmm3, xmm3
  000cd	f2 0f 58 c3	 addsd	 xmm0, xmm3
  000d1	66 0f 5a c0	 cvtpd2ps xmm0, xmm0
  000d5	f3 0f 11 45 f0	 movss	 DWORD PTR _vNewPos$[ebp], xmm0
  000da	f3 0f 10 83 10
	09 00 00	 movss	 xmm0, DWORD PTR [ebx+2320]
  000e2	0f 5a c0	 cvtps2pd xmm0, xmm0
  000e5	66 0f 5a c9	 cvtpd2ps xmm1, xmm1
  000e9	f3 0f 5a c9	 cvtss2sd xmm1, xmm1
  000ed	f2 0f 58 c1	 addsd	 xmm0, xmm1
  000f1	66 0f 5a c0	 cvtpd2ps xmm0, xmm0
  000f5	f3 0f 11 45 f4	 movss	 DWORD PTR _vNewPos$[ebp+4], xmm0
  000fa	f3 0f 10 83 14
	09 00 00	 movss	 xmm0, DWORD PTR [ebx+2324]
  00102	66 0f 5a d2	 cvtpd2ps xmm2, xmm2
  00106	0f 5a c0	 cvtps2pd xmm0, xmm0
  00109	0f 57 c9	 xorps	 xmm1, xmm1
  0010c	f3 0f 5a ca	 cvtss2sd xmm1, xmm2
  00110	f2 0f 58 c1	 addsd	 xmm0, xmm1
  00114	66 0f 5a c0	 cvtpd2ps xmm0, xmm0
  00118	83 c1 14	 add	 ecx, 20			; 00000014H
  0011b	6a 00		 push	 0
  0011d	f3 0f 11 45 f8	 movss	 DWORD PTR _vNewPos$[ebp+8], xmm0
  00122	8b 01		 mov	 eax, DWORD PTR [ecx]
  00124	6a 01		 push	 1
  00126	ff 50 54	 call	 DWORD PTR [eax+84]
  00129	8b c8		 mov	 ecx, eax
  0012b	ff 15 00 00 00
	00		 call	 DWORD PTR __imp_?GetExtents@ioAxisAlignBox@@QBEMH@Z
  00131	d8 45 f4	 fadd	 DWORD PTR _vNewPos$[ebp+4]
  00134	f3 0f 10 45 f8	 movss	 xmm0, DWORD PTR _vNewPos$[ebp+8]
  00139	8b 4d ec	 mov	 ecx, DWORD PTR _pStage$GSCopy$[ebp]
  0013c	d9 5d e8	 fstp	 DWORD PTR tv467[ebp]
  0013f	83 ec 0c	 sub	 esp, 12			; 0000000cH
  00142	d9 45 e8	 fld	 DWORD PTR tv467[ebp]
  00145	d9 5c 24 08	 fstp	 DWORD PTR [esp+8]
  00149	f3 0f 11 44 24
	04		 movss	 DWORD PTR [esp+4], xmm0
  0014f	f3 0f 10 45 f0	 movss	 xmm0, DWORD PTR _vNewPos$[ebp]
  00154	f3 0f 11 04 24	 movss	 DWORD PTR [esp], xmm0
  00159	e8 00 00 00 00	 call	 ?GetMapHeightNoneEntity@ioPlayStage@@QAEMMMM_N@Z ; ioPlayStage::GetMapHeightNoneEntity
  0015e	d9 5d e8	 fstp	 DWORD PTR _fHeight$[ebp]

; 352  : 	if( fabs( m_vPrePos.y - fHeight ) < m_fEnableMoveGap )

  00161	d9 83 10 09 00
	00		 fld	 DWORD PTR [ebx+2320]
  00167	d8 65 e8	 fsub	 DWORD PTR _fHeight$[ebp]
  0016a	d9 5d ec	 fstp	 DWORD PTR tv458[ebp]
  0016d	5f		 pop	 edi
  0016e	d9 45 ec	 fld	 DWORD PTR tv458[ebp]
  00171	5e		 pop	 esi
  00172	d9 e1		 fabs
  00174	d9 5d ec	 fstp	 DWORD PTR tv454[ebp]
  00177	d9 45 ec	 fld	 DWORD PTR tv454[ebp]
  0017a	d9 83 1c 09 00
	00		 fld	 DWORD PTR [ebx+2332]
  00180	df f1		 fcomip	 ST(1)
  00182	dd d8		 fstp	 ST(0)
  00184	76 20		 jbe	 SHORT $LN2@OnInRangeS

; 353  : 	{
; 354  : 		vNewPos.y = fHeight + m_fDefaultGapHeight;

  00186	f3 0f 10 83 18
	09 00 00	 movss	 xmm0, DWORD PTR [ebx+2328]
  0018e	f3 0f 10 4d e8	 movss	 xmm1, DWORD PTR _fHeight$[ebp]
  00193	0f 5a c0	 cvtps2pd xmm0, xmm0
  00196	0f 5a c9	 cvtps2pd xmm1, xmm1
  00199	f2 0f 58 c1	 addsd	 xmm0, xmm1
  0019d	66 0f 5a c0	 cvtpd2ps xmm0, xmm0
  001a1	f3 0f 11 45 f4	 movss	 DWORD PTR _vNewPos$[ebp+4], xmm0
$LN2@OnInRangeS:

; 355  : 	}
; 356  : 
; 357  : 	SetPosition( vNewPos );

  001a6	8d 45 f0	 lea	 eax, DWORD PTR _vNewPos$[ebp]
  001a9	50		 push	 eax
  001aa	8b cb		 mov	 ecx, ebx
  001ac	e8 00 00 00 00	 call	 ?SetPosition@ioWeapon@@QAEXABUD3DXVECTOR3@@@Z ; ioWeapon::SetPosition

; 358  : 
; 359  : 	if( m_pMissileMesh )

  001b1	83 bb e8 08 00
	00 00		 cmp	 DWORD PTR [ebx+2280], 0
  001b8	74 30		 je	 SHORT $LN1@OnInRangeS

; 360  : 	{
; 361  : 		m_pMissileMesh->Update( fTimePerSec * FLOAT1000 );

  001ba	b8 e8 03 00 00	 mov	 eax, 1000		; 000003e8H
  001bf	8b 8b e8 08 00
	00		 mov	 ecx, DWORD PTR [ebx+2280]
  001c5	83 c1 14	 add	 ecx, 20			; 00000014H
  001c8	8b 11		 mov	 edx, DWORD PTR [ecx]
  001ca	89 45 ec	 mov	 DWORD PTR tv439[ebp], eax
  001cd	db 45 ec	 fild	 DWORD PTR tv439[ebp]
  001d0	85 c0		 test	 eax, eax
  001d2	79 06		 jns	 SHORT $LN20@OnInRangeS
  001d4	d8 05 00 00 00
	00		 fadd	 DWORD PTR __real@4f800000
$LN20@OnInRangeS:
  001da	d8 4d 08	 fmul	 DWORD PTR _fTimePerSec$[ebp]
  001dd	51		 push	 ecx
  001de	d9 5d ec	 fstp	 DWORD PTR tv436[ebp]
  001e1	d9 45 ec	 fld	 DWORD PTR tv436[ebp]
  001e4	d9 1c 24	 fstp	 DWORD PTR [esp]
  001e7	ff 52 40	 call	 DWORD PTR [edx+64]
$LN1@OnInRangeS:

; 362  : 	}
; 363  : }

  001ea	8b 4d fc	 mov	 ecx, DWORD PTR __$ArrayPad$[ebp]
  001ed	33 cd		 xor	 ecx, ebp
  001ef	5b		 pop	 ebx
  001f0	e8 00 00 00 00	 call	 @__security_check_cookie@4
  001f5	c9		 leave
  001f6	c2 08 00	 ret	 8
?OnInRangeState@ioControlMissileWeapon@@IAEXMPAVioPlayStage@@@Z ENDP ; ioControlMissileWeapon::OnInRangeState
_TEXT	ENDS
PUBLIC	_pStage$GSCopy$
PUBLIC	__$ArrayPad$
PUBLIC	?OnOutRangeState@ioControlMissileWeapon@@IAEXMPAVioPlayStage@@@Z ; ioControlMissileWeapon::OnOutRangeState
; Function compile flags: /Ogsp
;	COMDAT ?OnOutRangeState@ioControlMissileWeapon@@IAEXMPAVioPlayStage@@@Z
_TEXT	SEGMENT
tv467 = -24						; size = 4
_fHeight$ = -24						; size = 4
_fMoveDist$ = -24					; size = 4
tv458 = -20						; size = 4
tv454 = -20						; size = 4
tv439 = -20						; size = 4
tv436 = -20						; size = 4
_pStage$GSCopy$ = -20					; size = 4
_vNewPos$ = -16						; size = 12
__$ArrayPad$ = -4					; size = 4
_fTimePerSec$ = 8					; size = 4
_pStage$ = 12						; size = 4
?OnOutRangeState@ioControlMissileWeapon@@IAEXMPAVioPlayStage@@@Z PROC ; ioControlMissileWeapon::OnOutRangeState, COMDAT
; _this$ = ecx

; 366  : {

  00000	55		 push	 ebp
  00001	8b ec		 mov	 ebp, esp
  00003	83 ec 18	 sub	 esp, 24			; 00000018H
  00006	a1 00 00 00 00	 mov	 eax, DWORD PTR ___security_cookie
  0000b	33 c5		 xor	 eax, ebp
  0000d	89 45 fc	 mov	 DWORD PTR __$ArrayPad$[ebp], eax
  00010	8b 45 0c	 mov	 eax, DWORD PTR _pStage$[ebp]
  00013	53		 push	 ebx
  00014	8b d9		 mov	 ebx, ecx

; 393  : 	{
; 394  : 		m_pMissileMesh->Update( fTimePerSec * FLOAT1000 );

  00016	89 45 ec	 mov	 DWORD PTR _pStage$GSCopy$[ebp], eax
  00019	e8 00 00 00 00	 call	 ?GetOwner@ioWeapon@@QBEPAVioBaseChar@@XZ ; ioWeapon::GetOwner
  0001e	85 c0		 test	 eax, eax
  00020	75 0c		 jne	 SHORT $LN3@OnOutRange

; 367  : 	ioBaseChar *pOwner = GetOwner();
; 368  : 	if( !pOwner )
; 369  : 	{
; 370  : 		SetWeaponDead();

  00022	8b 03		 mov	 eax, DWORD PTR [ebx]
  00024	8b cb		 mov	 ecx, ebx
  00026	ff 50 4c	 call	 DWORD PTR [eax+76]

; 371  : 		return;

  00029	e9 bc 01 00 00	 jmp	 $LN1@OnOutRange
$LN3@OnOutRange:
  0002e	56		 push	 esi
  0002f	57		 push	 edi

; 372  : 	}
; 373  : 
; 374  : 	DWORD dwCurTime = FRAMEGETTIME();

  00030	ff 15 00 00 00
	00		 call	 DWORD PTR __imp_?GetSingleton@ioFrameTimer@@SAAAV1@XZ
  00036	8b c8		 mov	 ecx, eax
  00038	ff 15 00 00 00
	00		 call	 DWORD PTR __imp_?GetLoopSec@ioFrameTimer@@QBEKXZ

; 375  : 
; 376  : 	CheckOwnerReturnDir( fTimePerSec );

  0003e	f3 0f 10 45 08	 movss	 xmm0, DWORD PTR _fTimePerSec$[ebp]
  00043	51		 push	 ecx
  00044	8b cb		 mov	 ecx, ebx
  00046	f3 0f 11 04 24	 movss	 DWORD PTR [esp], xmm0
  0004b	e8 00 00 00 00	 call	 ?CheckOwnerReturnDir@ioControlMissileWeapon@@IAEXM@Z ; ioControlMissileWeapon::CheckOwnerReturnDir

; 377  : 
; 378  : 	float fCurSpeed = GetMoveSpeed();

  00050	8b cb		 mov	 ecx, ebx
  00052	e8 00 00 00 00	 call	 ?GetMoveSpeed@ioControlMissileWeapon@@IAEMXZ ; ioControlMissileWeapon::GetMoveSpeed

; 379  : 	float fMoveDist = fCurSpeed * fTimePerSec;

  00057	d8 4d 08	 fmul	 DWORD PTR _fTimePerSec$[ebp]

; 380  : 
; 381  : 	m_vPrePos = GetPosition();

  0005a	8b 03		 mov	 eax, DWORD PTR [ebx]
  0005c	8b cb		 mov	 ecx, ebx
  0005e	d9 5d e8	 fstp	 DWORD PTR _fMoveDist$[ebp]
  00061	ff 50 70	 call	 DWORD PTR [eax+112]

; 382  : 	D3DXVECTOR3 vNewPos = m_vPrePos + (m_vMoveDir * fMoveDist);

  00064	f3 0f 10 4d e8	 movss	 xmm1, DWORD PTR _fMoveDist$[ebp]
  00069	f3 0f 10 55 e8	 movss	 xmm2, DWORD PTR _fMoveDist$[ebp]
  0006e	f3 0f 10 5d e8	 movss	 xmm3, DWORD PTR _fMoveDist$[ebp]
  00073	8b f0		 mov	 esi, eax
  00075	8d bb 0c 09 00
	00		 lea	 edi, DWORD PTR [ebx+2316]
  0007b	a5		 movsd
  0007c	a5		 movsd

; 383  : 
; 384  : 	float fHeight = pStage->GetMapHeightNoneEntity( vNewPos.x, vNewPos.z, vNewPos.y+m_pMissileMesh->GetBoundBox().GetExtents(1) );

  0007d	8b 8b e8 08 00
	00		 mov	 ecx, DWORD PTR [ebx+2280]
  00083	a5		 movsd
  00084	f3 0f 10 83 dc
	08 00 00	 movss	 xmm0, DWORD PTR [ebx+2268]
  0008c	0f 5a c0	 cvtps2pd xmm0, xmm0
  0008f	0f 5a c9	 cvtps2pd xmm1, xmm1
  00092	f2 0f 59 c1	 mulsd	 xmm0, xmm1
  00096	f3 0f 10 8b e0
	08 00 00	 movss	 xmm1, DWORD PTR [ebx+2272]
  0009e	66 0f 5a c0	 cvtpd2ps xmm0, xmm0
  000a2	0f 5a c9	 cvtps2pd xmm1, xmm1
  000a5	0f 5a d2	 cvtps2pd xmm2, xmm2
  000a8	f2 0f 59 ca	 mulsd	 xmm1, xmm2
  000ac	f3 0f 10 93 e4
	08 00 00	 movss	 xmm2, DWORD PTR [ebx+2276]
  000b4	f3 0f 5a c0	 cvtss2sd xmm0, xmm0
  000b8	0f 5a db	 cvtps2pd xmm3, xmm3
  000bb	0f 5a d2	 cvtps2pd xmm2, xmm2
  000be	f2 0f 59 d3	 mulsd	 xmm2, xmm3
  000c2	f3 0f 10 9b 0c
	09 00 00	 movss	 xmm3, DWORD PTR [ebx+2316]
  000ca	0f 5a db	 cvtps2pd xmm3, xmm3
  000cd	f2 0f 58 c3	 addsd	 xmm0, xmm3
  000d1	66 0f 5a c0	 cvtpd2ps xmm0, xmm0
  000d5	f3 0f 11 45 f0	 movss	 DWORD PTR _vNewPos$[ebp], xmm0
  000da	f3 0f 10 83 10
	09 00 00	 movss	 xmm0, DWORD PTR [ebx+2320]
  000e2	0f 5a c0	 cvtps2pd xmm0, xmm0
  000e5	66 0f 5a c9	 cvtpd2ps xmm1, xmm1
  000e9	f3 0f 5a c9	 cvtss2sd xmm1, xmm1
  000ed	f2 0f 58 c1	 addsd	 xmm0, xmm1
  000f1	66 0f 5a c0	 cvtpd2ps xmm0, xmm0
  000f5	f3 0f 11 45 f4	 movss	 DWORD PTR _vNewPos$[ebp+4], xmm0
  000fa	f3 0f 10 83 14
	09 00 00	 movss	 xmm0, DWORD PTR [ebx+2324]
  00102	66 0f 5a d2	 cvtpd2ps xmm2, xmm2
  00106	0f 5a c0	 cvtps2pd xmm0, xmm0
  00109	0f 57 c9	 xorps	 xmm1, xmm1
  0010c	f3 0f 5a ca	 cvtss2sd xmm1, xmm2
  00110	f2 0f 58 c1	 addsd	 xmm0, xmm1
  00114	66 0f 5a c0	 cvtpd2ps xmm0, xmm0
  00118	83 c1 14	 add	 ecx, 20			; 00000014H
  0011b	6a 00		 push	 0
  0011d	f3 0f 11 45 f8	 movss	 DWORD PTR _vNewPos$[ebp+8], xmm0
  00122	8b 01		 mov	 eax, DWORD PTR [ecx]
  00124	6a 01		 push	 1
  00126	ff 50 54	 call	 DWORD PTR [eax+84]
  00129	8b c8		 mov	 ecx, eax
  0012b	ff 15 00 00 00
	00		 call	 DWORD PTR __imp_?GetExtents@ioAxisAlignBox@@QBEMH@Z
  00131	d8 45 f4	 fadd	 DWORD PTR _vNewPos$[ebp+4]
  00134	f3 0f 10 45 f8	 movss	 xmm0, DWORD PTR _vNewPos$[ebp+8]
  00139	8b 4d ec	 mov	 ecx, DWORD PTR _pStage$GSCopy$[ebp]
  0013c	d9 5d e8	 fstp	 DWORD PTR tv467[ebp]
  0013f	83 ec 0c	 sub	 esp, 12			; 0000000cH
  00142	d9 45 e8	 fld	 DWORD PTR tv467[ebp]
  00145	d9 5c 24 08	 fstp	 DWORD PTR [esp+8]
  00149	f3 0f 11 44 24
	04		 movss	 DWORD PTR [esp+4], xmm0
  0014f	f3 0f 10 45 f0	 movss	 xmm0, DWORD PTR _vNewPos$[ebp]
  00154	f3 0f 11 04 24	 movss	 DWORD PTR [esp], xmm0
  00159	e8 00 00 00 00	 call	 ?GetMapHeightNoneEntity@ioPlayStage@@QAEMMMM_N@Z ; ioPlayStage::GetMapHeightNoneEntity
  0015e	d9 5d e8	 fstp	 DWORD PTR _fHeight$[ebp]

; 385  : 	if( fabs( m_vPrePos.y - fHeight ) < m_fEnableMoveGap )

  00161	d9 83 10 09 00
	00		 fld	 DWORD PTR [ebx+2320]
  00167	d8 65 e8	 fsub	 DWORD PTR _fHeight$[ebp]
  0016a	d9 5d ec	 fstp	 DWORD PTR tv458[ebp]
  0016d	5f		 pop	 edi
  0016e	d9 45 ec	 fld	 DWORD PTR tv458[ebp]
  00171	5e		 pop	 esi
  00172	d9 e1		 fabs
  00174	d9 5d ec	 fstp	 DWORD PTR tv454[ebp]
  00177	d9 45 ec	 fld	 DWORD PTR tv454[ebp]
  0017a	d9 83 1c 09 00
	00		 fld	 DWORD PTR [ebx+2332]
  00180	df f1		 fcomip	 ST(1)
  00182	dd d8		 fstp	 ST(0)
  00184	76 20		 jbe	 SHORT $LN2@OnOutRange

; 386  : 	{
; 387  : 		vNewPos.y = fHeight + m_fDefaultGapHeight;

  00186	f3 0f 10 83 18
	09 00 00	 movss	 xmm0, DWORD PTR [ebx+2328]
  0018e	f3 0f 10 4d e8	 movss	 xmm1, DWORD PTR _fHeight$[ebp]
  00193	0f 5a c0	 cvtps2pd xmm0, xmm0
  00196	0f 5a c9	 cvtps2pd xmm1, xmm1
  00199	f2 0f 58 c1	 addsd	 xmm0, xmm1
  0019d	66 0f 5a c0	 cvtpd2ps xmm0, xmm0
  001a1	f3 0f 11 45 f4	 movss	 DWORD PTR _vNewPos$[ebp+4], xmm0
$LN2@OnOutRange:

; 388  : 	}
; 389  : 
; 390  : 	SetPosition( vNewPos );

  001a6	8d 45 f0	 lea	 eax, DWORD PTR _vNewPos$[ebp]
  001a9	50		 push	 eax
  001aa	8b cb		 mov	 ecx, ebx
  001ac	e8 00 00 00 00	 call	 ?SetPosition@ioWeapon@@QAEXABUD3DXVECTOR3@@@Z ; ioWeapon::SetPosition

; 391  : 
; 392  : 	if( m_pMissileMesh )

  001b1	83 bb e8 08 00
	00 00		 cmp	 DWORD PTR [ebx+2280], 0
  001b8	74 30		 je	 SHORT $LN1@OnOutRange

; 393  : 	{
; 394  : 		m_pMissileMesh->Update( fTimePerSec * FLOAT1000 );

  001ba	b8 e8 03 00 00	 mov	 eax, 1000		; 000003e8H
  001bf	8b 8b e8 08 00
	00		 mov	 ecx, DWORD PTR [ebx+2280]
  001c5	83 c1 14	 add	 ecx, 20			; 00000014H
  001c8	8b 11		 mov	 edx, DWORD PTR [ecx]
  001ca	89 45 ec	 mov	 DWORD PTR tv439[ebp], eax
  001cd	db 45 ec	 fild	 DWORD PTR tv439[ebp]
  001d0	85 c0		 test	 eax, eax
  001d2	79 06		 jns	 SHORT $LN20@OnOutRange
  001d4	d8 05 00 00 00
	00		 fadd	 DWORD PTR __real@4f800000
$LN20@OnOutRange:
  001da	d8 4d 08	 fmul	 DWORD PTR _fTimePerSec$[ebp]
  001dd	51		 push	 ecx
  001de	d9 5d ec	 fstp	 DWORD PTR tv436[ebp]
  001e1	d9 45 ec	 fld	 DWORD PTR tv436[ebp]
  001e4	d9 1c 24	 fstp	 DWORD PTR [esp]
  001e7	ff 52 40	 call	 DWORD PTR [edx+64]
$LN1@OnOutRange:

; 395  : 	}
; 396  : }

  001ea	8b 4d fc	 mov	 ecx, DWORD PTR __$ArrayPad$[ebp]
  001ed	33 cd		 xor	 ecx, ebp
  001ef	5b		 pop	 ebx
  001f0	e8 00 00 00 00	 call	 @__security_check_cookie@4
  001f5	c9		 leave
  001f6	c2 08 00	 ret	 8
?OnOutRangeState@ioControlMissileWeapon@@IAEXMPAVioPlayStage@@@Z ENDP ; ioControlMissileWeapon::OnOutRangeState
_TEXT	ENDS
PUBLIC	_this$GSCopy$
PUBLIC	__$ArrayPad$
PUBLIC	?OnReturnState@ioControlMissileWeapon@@IAEXMPAVioPlayStage@@@Z ; ioControlMissileWeapon::OnReturnState
; Function compile flags: /Ogsp
;	COMDAT ?OnReturnState@ioControlMissileWeapon@@IAEXMPAVioPlayStage@@@Z
_TEXT	SEGMENT
_qtRotate$530870 = -156					; size = 16
_qtAxisRot$530882 = -140				; size = 16
_qtNewRot$530888 = -124					; size = 16
_qtRot$ = -108						; size = 16
_this$GSCopy$ = -92					; size = 4
_fTargetYaw$530876 = -88				; size = 4
_fAngleGap$530858 = -88					; size = 4
_pTarget$ = -88						; size = 4
tv1386 = -84						; size = 4
tv1289 = -84						; size = 4
_fRotateAngle$530864 = -84				; size = 4
tv1382 = -80						; size = 4
tv1378 = -80						; size = 4
tv1302 = -80						; size = 4
tv1294 = -80						; size = 4
tv1251 = -80						; size = 4
tv1181 = -80						; size = 4
tv1052 = -80						; size = 4
tv1049 = -80						; size = 4
$T535601 = -80						; size = 4
$T535515 = -80						; size = 4
_fMoveDist$ = -80					; size = 4
_fCurYaw$530875 = -80					; size = 4
_fRate$530863 = -80					; size = 4
_fDotValue$ = -80					; size = 4
$T530893 = -76						; size = 12
_vAxis$530880 = -76					; size = 12
_vPos$ = -64						; size = 12
_vTargetDir$ = -52					; size = 12
_vTargetXZ$ = -40					; size = 12
_v$535619 = -28						; size = 12
$T530889 = -28						; size = 12
$T530887 = -28						; size = 12
$T530881 = -28						; size = 12
$T530871 = -28						; size = 12
$T530850 = -28						; size = 12
$T530846 = -28						; size = 12
_vMoveXZ$ = -16						; size = 12
__$ArrayPad$ = -4					; size = 4
_fTimePerSec$ = 8					; size = 4
_pStage$ = 12						; size = 4
?OnReturnState@ioControlMissileWeapon@@IAEXMPAVioPlayStage@@@Z PROC ; ioControlMissileWeapon::OnReturnState, COMDAT
; _this$ = ecx

; 399  : {

  00000	55		 push	 ebp
  00001	8b ec		 mov	 ebp, esp
  00003	81 ec 9c 00 00
	00		 sub	 esp, 156		; 0000009cH
  00009	a1 00 00 00 00	 mov	 eax, DWORD PTR ___security_cookie
  0000e	33 c5		 xor	 eax, ebp
  00010	89 45 fc	 mov	 DWORD PTR __$ArrayPad$[ebp], eax
  00013	53		 push	 ebx
  00014	8b d9		 mov	 ebx, ecx

; 511  : 		}
; 512  : 	}
; 513  : 
; 514  : 	float fMoveDist = GetMoveSpeed() * fTimePerSec;

  00016	89 5d a4	 mov	 DWORD PTR _this$GSCopy$[ebp], ebx
  00019	ff 15 00 00 00
	00		 call	 DWORD PTR __imp_?GetSingleton@ioFrameTimer@@SAAAV1@XZ
  0001f	8b c8		 mov	 ecx, eax
  00021	ff 15 00 00 00
	00		 call	 DWORD PTR __imp_?GetLoopSec@ioFrameTimer@@QBEKXZ
  00027	8b cb		 mov	 ecx, ebx
  00029	e8 00 00 00 00	 call	 ?GetOwner@ioWeapon@@QBEPAVioBaseChar@@XZ ; ioWeapon::GetOwner
  0002e	89 45 a8	 mov	 DWORD PTR _pTarget$[ebp], eax
  00031	85 c0		 test	 eax, eax
  00033	0f 84 34 06 00
	00		 je	 $LN10@OnReturnSt

; 400  : 	DWORD dwCurTime = FRAMEGETTIME();
; 401  : 
; 402  : 	ioBaseChar *pTarget = GetOwner();
; 403  : 	if( !pTarget )
; 404  : 	{
; 405  : 		SetWeaponDead();
; 406  : 		return;
; 407  : 	}
; 408  : 
; 409  : 	CharState eState = pTarget->GetState();
; 410  : 	switch( eState )

  00039	0f b6 80 10 03
	00 00		 movzx	 eax, BYTE PTR [eax+784]
  00040	83 f8 1a	 cmp	 eax, 26			; 0000001aH
  00043	7f 25		 jg	 SHORT $LN16@OnReturnSt
  00045	0f 84 22 06 00
	00		 je	 $LN10@OnReturnSt
  0004b	83 e8 0e	 sub	 eax, 14			; 0000000eH
  0004e	0f 84 19 06 00
	00		 je	 $LN10@OnReturnSt
  00054	48		 dec	 eax
  00055	48		 dec	 eax
  00056	0f 84 11 06 00
	00		 je	 $LN10@OnReturnSt
  0005c	83 e8 03	 sub	 eax, 3
  0005f	0f 84 08 06 00
	00		 je	 $LN10@OnReturnSt
  00065	83 e8 05	 sub	 eax, 5
  00068	eb 14		 jmp	 SHORT $LN99@OnReturnSt
$LN16@OnReturnSt:
  0006a	83 e8 22	 sub	 eax, 34			; 00000022H
  0006d	0f 84 fa 05 00
	00		 je	 $LN10@OnReturnSt
  00073	48		 dec	 eax
  00074	48		 dec	 eax
  00075	0f 84 f2 05 00
	00		 je	 $LN10@OnReturnSt
  0007b	83 e8 06	 sub	 eax, 6
$LN99@OnReturnSt:
  0007e	0f 84 e9 05 00
	00		 je	 $LN10@OnReturnSt

; 421  : 		return;
; 422  : 	}
; 423  : 
; 424  : 	D3DXVECTOR3 vTargetDir = pTarget->GetMidPositionByRate() - GetPosition();

  00084	56		 push	 esi
  00085	57		 push	 edi
  00086	b8 05 00 00 00	 mov	 eax, 5
  0008b	8b f8		 mov	 edi, eax
  0008d	b8 0a 00 00 00	 mov	 eax, 10			; 0000000aH
  00092	89 45 b0	 mov	 DWORD PTR $T535515[ebp], eax
  00095	8b 03		 mov	 eax, DWORD PTR [ebx]
  00097	8b cb		 mov	 ecx, ebx
  00099	ff 50 70	 call	 DWORD PTR [eax+112]
  0009c	89 7d ac	 mov	 DWORD PTR tv1386[ebp], edi
  0009f	db 45 ac	 fild	 DWORD PTR tv1386[ebp]
  000a2	8b f0		 mov	 esi, eax
  000a4	85 ff		 test	 edi, edi
  000a6	79 06		 jns	 SHORT $LN93@OnReturnSt
  000a8	d8 05 00 00 00
	00		 fadd	 DWORD PTR __real@4f800000
$LN93@OnReturnSt:
  000ae	8b 45 b0	 mov	 eax, DWORD PTR $T535515[ebp]
  000b1	db 45 b0	 fild	 DWORD PTR $T535515[ebp]
  000b4	85 c0		 test	 eax, eax
  000b6	79 06		 jns	 SHORT $LN94@OnReturnSt
  000b8	d8 05 00 00 00
	00		 fadd	 DWORD PTR __real@4f800000
$LN94@OnReturnSt:
  000be	de f9		 fdivp	 ST(1), ST(0)
  000c0	51		 push	 ecx
  000c1	8b 4d a8	 mov	 ecx, DWORD PTR _pTarget$[ebp]
  000c4	8d 45 e4	 lea	 eax, DWORD PTR $T530846[ebp]
  000c7	d9 5d b0	 fstp	 DWORD PTR tv1378[ebp]
  000ca	d9 45 b0	 fld	 DWORD PTR tv1378[ebp]
  000cd	d9 1c 24	 fstp	 DWORD PTR [esp]
  000d0	50		 push	 eax
  000d1	e8 00 00 00 00	 call	 ?GetMidPositionByRate@ioGameEntity@@QBE?AUD3DXVECTOR3@@M@Z ; ioGameEntity::GetMidPositionByRate
  000d6	f3 0f 10 40 04	 movss	 xmm0, DWORD PTR [eax+4]
  000db	f3 0f 10 4e 04	 movss	 xmm1, DWORD PTR [esi+4]
  000e0	f3 0f 10 56 08	 movss	 xmm2, DWORD PTR [esi+8]
  000e5	f3 0f 10 1e	 movss	 xmm3, DWORD PTR [esi]
  000e9	0f 5a c9	 cvtps2pd xmm1, xmm1
  000ec	0f 5a c0	 cvtps2pd xmm0, xmm0
  000ef	f2 0f 5c c1	 subsd	 xmm0, xmm1
  000f3	f3 0f 10 48 08	 movss	 xmm1, DWORD PTR [eax+8]
  000f8	0f 5a d2	 cvtps2pd xmm2, xmm2
  000fb	0f 5a c9	 cvtps2pd xmm1, xmm1
  000fe	f2 0f 5c ca	 subsd	 xmm1, xmm2
  00102	f3 0f 10 10	 movss	 xmm2, DWORD PTR [eax]

; 425  : 	D3DXVec3Normalize( &vTargetDir, &vTargetDir );

  00106	8d 45 cc	 lea	 eax, DWORD PTR _vTargetDir$[ebp]
  00109	0f 5a d2	 cvtps2pd xmm2, xmm2
  0010c	0f 5a db	 cvtps2pd xmm3, xmm3
  0010f	50		 push	 eax
  00110	f2 0f 5c d3	 subsd	 xmm2, xmm3
  00114	66 0f 5a c0	 cvtpd2ps xmm0, xmm0
  00118	66 0f 5a c9	 cvtpd2ps xmm1, xmm1
  0011c	66 0f 5a d2	 cvtpd2ps xmm2, xmm2
  00120	50		 push	 eax
  00121	f3 0f 11 55 cc	 movss	 DWORD PTR _vTargetDir$[ebp], xmm2
  00126	f3 0f 11 45 d0	 movss	 DWORD PTR _vTargetDir$[ebp+4], xmm0
  0012b	f3 0f 11 4d d4	 movss	 DWORD PTR _vTargetDir$[ebp+8], xmm1
  00130	e8 00 00 00 00	 call	 _D3DXVec3Normalize@8

; 426  : 
; 427  : 	//
; 428  : 	D3DXVECTOR3 vTargetXZ = vTargetDir;
; 429  : 	vTargetXZ.y = 0.0f;

  00135	0f 57 c0	 xorps	 xmm0, xmm0
  00138	8d 75 cc	 lea	 esi, DWORD PTR _vTargetDir$[ebp]
  0013b	8d 7d d8	 lea	 edi, DWORD PTR _vTargetXZ$[ebp]
  0013e	a5		 movsd
  0013f	a5		 movsd

; 430  : 	D3DXVec3Normalize( &vTargetXZ, &vTargetXZ );

  00140	8d 45 d8	 lea	 eax, DWORD PTR _vTargetXZ$[ebp]
  00143	50		 push	 eax
  00144	a5		 movsd
  00145	50		 push	 eax
  00146	f3 0f 11 45 dc	 movss	 DWORD PTR _vTargetXZ$[ebp+4], xmm0
  0014b	e8 00 00 00 00	 call	 _D3DXVec3Normalize@8

; 431  : 
; 432  : 	D3DXQUATERNION	qtRot;
; 433  : 	ioMath::CalcDirectionQuaternion( qtRot, -vTargetXZ );

  00150	f3 0f 10 05 00
	00 00 00	 movss	 xmm0, DWORD PTR __mask@@NegFloat@
  00158	f3 0f 10 4d d8	 movss	 xmm1, DWORD PTR _vTargetXZ$[ebp]
  0015d	0f 57 c8	 xorps	 xmm1, xmm0
  00160	f3 0f 11 4d e4	 movss	 DWORD PTR $T530850[ebp], xmm1
  00165	f3 0f 10 4d dc	 movss	 xmm1, DWORD PTR _vTargetXZ$[ebp+4]
  0016a	0f 57 c8	 xorps	 xmm1, xmm0
  0016d	8d 45 e4	 lea	 eax, DWORD PTR $T530850[ebp]
  00170	50		 push	 eax
  00171	f3 0f 11 4d e8	 movss	 DWORD PTR $T530850[ebp+4], xmm1
  00176	f3 0f 10 4d e0	 movss	 xmm1, DWORD PTR _vTargetXZ$[ebp+8]
  0017b	8d 45 94	 lea	 eax, DWORD PTR _qtRot$[ebp]
  0017e	0f 57 c8	 xorps	 xmm1, xmm0
  00181	50		 push	 eax
  00182	f3 0f 11 4d ec	 movss	 DWORD PTR $T530850[ebp+8], xmm1
  00187	ff 15 00 00 00
	00		 call	 DWORD PTR __imp_?CalcDirectionQuaternion@ioMath@@SAXAAUD3DXQUATERNION@@ABUD3DXVECTOR3@@@Z

; 434  : 
; 435  : 	D3DXVECTOR3 vMoveXZ = m_vMoveDir;
; 436  : 	vMoveXZ.y = 0.0f;

  0018d	0f 57 c0	 xorps	 xmm0, xmm0
  00190	81 c3 dc 08 00
	00		 add	 ebx, 2268		; 000008dcH
  00196	8b f3		 mov	 esi, ebx
  00198	8d 7d f0	 lea	 edi, DWORD PTR _vMoveXZ$[ebp]
  0019b	a5		 movsd
  0019c	59		 pop	 ecx
  0019d	a5		 movsd
  0019e	59		 pop	 ecx

; 437  : 	D3DXVec3Normalize( &vMoveXZ, &vMoveXZ );

  0019f	8d 45 f0	 lea	 eax, DWORD PTR _vMoveXZ$[ebp]
  001a2	50		 push	 eax
  001a3	a5		 movsd
  001a4	50		 push	 eax
  001a5	f3 0f 11 45 f4	 movss	 DWORD PTR _vMoveXZ$[ebp+4], xmm0
  001aa	e8 00 00 00 00	 call	 _D3DXVec3Normalize@8

; 438  : 
; 439  : 	//
; 440  : 
; 441  : 	float fDotValue = D3DXVec3Dot( &vTargetXZ, &vMoveXZ );

  001af	f3 0f 10 45 f0	 movss	 xmm0, DWORD PTR _vMoveXZ$[ebp]
  001b4	f3 0f 10 4d d8	 movss	 xmm1, DWORD PTR _vTargetXZ$[ebp]
  001b9	0f 5a c9	 cvtps2pd xmm1, xmm1
  001bc	0f 5a c0	 cvtps2pd xmm0, xmm0
  001bf	f2 0f 59 c1	 mulsd	 xmm0, xmm1
  001c3	f3 0f 10 4d f4	 movss	 xmm1, DWORD PTR _vMoveXZ$[ebp+4]
  001c8	0f 5a c9	 cvtps2pd xmm1, xmm1
  001cb	f3 0f 10 55 dc	 movss	 xmm2, DWORD PTR _vTargetXZ$[ebp+4]
  001d0	0f 5a d2	 cvtps2pd xmm2, xmm2
  001d3	f2 0f 59 ca	 mulsd	 xmm1, xmm2
  001d7	f3 0f 10 55 e0	 movss	 xmm2, DWORD PTR _vTargetXZ$[ebp+8]
  001dc	f2 0f 58 c1	 addsd	 xmm0, xmm1
  001e0	f3 0f 10 4d f8	 movss	 xmm1, DWORD PTR _vMoveXZ$[ebp+8]
  001e5	0f 5a c9	 cvtps2pd xmm1, xmm1
  001e8	0f 5a d2	 cvtps2pd xmm2, xmm2
  001eb	f2 0f 59 ca	 mulsd	 xmm1, xmm2
  001ef	f2 0f 58 c1	 addsd	 xmm0, xmm1
  001f3	66 0f 5a c0	 cvtpd2ps xmm0, xmm0
  001f7	f3 0f 11 45 b0	 movss	 DWORD PTR _fDotValue$[ebp], xmm0

; 442  : 	if( fDotValue > 0.98f )

  001fc	f3 0f 5a c0	 cvtss2sd xmm0, xmm0
  00200	66 0f 2f 05 00
	00 00 00	 comisd	 xmm0, QWORD PTR __real@3fef5c2900000000
  00208	76 2a		 jbe	 SHORT $LN9@OnReturnSt
$LN101@OnReturnSt:

; 443  : 	{
; 444  : 		vMoveXZ = vTargetXZ;
; 445  : 		vMoveXZ.y = vTargetDir.y;

  0020a	f3 0f 10 45 d0	 movss	 xmm0, DWORD PTR _vTargetDir$[ebp+4]
  0020f	8d 75 d8	 lea	 esi, DWORD PTR _vTargetXZ$[ebp]
  00212	8d 7d f0	 lea	 edi, DWORD PTR _vMoveXZ$[ebp]
  00215	a5		 movsd
  00216	a5		 movsd

; 446  : 		D3DXVec3Normalize( &vMoveXZ, &vMoveXZ );

  00217	8d 45 f0	 lea	 eax, DWORD PTR _vMoveXZ$[ebp]
  0021a	50		 push	 eax
  0021b	a5		 movsd
  0021c	50		 push	 eax
  0021d	f3 0f 11 45 f4	 movss	 DWORD PTR _vMoveXZ$[ebp+4], xmm0
  00222	e8 00 00 00 00	 call	 _D3DXVec3Normalize@8

; 447  : 		m_vMoveDir = vMoveXZ;

  00227	8d 75 f0	 lea	 esi, DWORD PTR _vMoveXZ$[ebp]
  0022a	8b fb		 mov	 edi, ebx
  0022c	a5		 movsd
  0022d	a5		 movsd
  0022e	a5		 movsd

; 448  : 
; 449  : 		D3DXQUATERNION	qtNewRot;
; 450  : 		ioMath::CalcDirectionQuaternion( qtNewRot, -m_vMoveDir );
; 451  : 		SetOrientation( qtNewRot );

  0022f	e9 e6 02 00 00	 jmp	 $LN100@OnReturnSt
$LN9@OnReturnSt:

; 452  : 	}
; 453  : 	else if( m_dwRotateTime > 0 )

  00234	8b 75 a4	 mov	 esi, DWORD PTR _this$GSCopy$[ebp]
  00237	83 be 24 09 00
	00 00		 cmp	 DWORD PTR [esi+2340], 0
  0023e	0f 86 20 03 00
	00		 jbe	 $LN92@OnReturnSt

; 454  : 	{
; 455  : 		float fAngleGap = RADtoDEG( acosf(fDotValue) );

  00244	d9 45 b0	 fld	 DWORD PTR _fDotValue$[ebp]
  00247	e8 00 00 00 00	 call	 __CIacos
  0024c	d9 5d b0	 fstp	 DWORD PTR tv1302[ebp]
  0024f	d9 45 b0	 fld	 DWORD PTR tv1302[ebp]
  00252	51		 push	 ecx
  00253	d9 1c 24	 fstp	 DWORD PTR [esp]
  00256	e8 00 00 00 00	 call	 ??$RADtoDEG@M@@YAMM@Z	; RADtoDEG<float>

; 456  : 		float fRate = (fTimePerSec*1000) / m_dwRotateTime;

  0025b	8b 86 24 09 00
	00		 mov	 eax, DWORD PTR [esi+2340]
  00261	d9 5d a8	 fstp	 DWORD PTR _fAngleGap$530858[ebp]
  00264	d9 45 08	 fld	 DWORD PTR _fTimePerSec$[ebp]
  00267	59		 pop	 ecx
  00268	dc 0d 00 00 00
	00		 fmul	 QWORD PTR __real@408f400000000000
  0026e	db 86 24 09 00
	00		 fild	 DWORD PTR [esi+2340]
  00274	85 c0		 test	 eax, eax
  00276	79 06		 jns	 SHORT $LN95@OnReturnSt
  00278	d8 05 00 00 00
	00		 fadd	 DWORD PTR __real@4f800000
$LN95@OnReturnSt:
  0027e	de f9		 fdivp	 ST(1), ST(0)
  00280	d9 5d b0	 fstp	 DWORD PTR _fRate$530863[ebp]

; 457  : 		float fRotateAngle = FLOAT360 * fRate;

  00283	b8 68 01 00 00	 mov	 eax, 360		; 00000168H
  00288	89 45 ac	 mov	 DWORD PTR tv1289[ebp], eax
  0028b	db 45 ac	 fild	 DWORD PTR tv1289[ebp]
  0028e	85 c0		 test	 eax, eax
  00290	79 06		 jns	 SHORT $LN96@OnReturnSt
  00292	d8 05 00 00 00
	00		 fadd	 DWORD PTR __real@4f800000
$LN96@OnReturnSt:
  00298	d8 4d b0	 fmul	 DWORD PTR _fRate$530863[ebp]
  0029b	d9 5d ac	 fstp	 DWORD PTR _fRotateAngle$530864[ebp]

; 458  : 
; 459  : 		if( fAngleGap < fRotateAngle )

  0029e	d9 45 a8	 fld	 DWORD PTR _fAngleGap$530858[ebp]
  002a1	d9 45 ac	 fld	 DWORD PTR _fRotateAngle$530864[ebp]
  002a4	df f1		 fcomip	 ST(1)
  002a6	dd d8		 fstp	 ST(0)

; 460  : 		{
; 461  : 			vMoveXZ = vTargetXZ;
; 462  : 			vMoveXZ.y = vTargetDir.y;
; 463  : 			D3DXVec3Normalize( &vMoveXZ, &vMoveXZ );
; 464  : 			m_vMoveDir = vMoveXZ;
; 465  : 
; 466  : 			D3DXQUATERNION	qtNewRot;
; 467  : 			ioMath::CalcDirectionQuaternion( qtNewRot, -m_vMoveDir );
; 468  : 			SetOrientation( qtNewRot );
; 469  : 		}
; 470  : 		else

  002a8	0f 87 5c ff ff
	ff		 ja	 $LN101@OnReturnSt

; 471  : 		{
; 472  : 			D3DXQUATERNION qtRotate;
; 473  : 			ioMath::CalcDirectionQuaternion( qtRotate, -vMoveXZ );

  002ae	f3 0f 10 05 00
	00 00 00	 movss	 xmm0, DWORD PTR __mask@@NegFloat@
  002b6	f3 0f 10 4d f0	 movss	 xmm1, DWORD PTR _vMoveXZ$[ebp]
  002bb	0f 57 c8	 xorps	 xmm1, xmm0
  002be	f3 0f 11 4d e4	 movss	 DWORD PTR $T530871[ebp], xmm1
  002c3	f3 0f 10 4d f4	 movss	 xmm1, DWORD PTR _vMoveXZ$[ebp+4]
  002c8	0f 57 c8	 xorps	 xmm1, xmm0
  002cb	8d 45 e4	 lea	 eax, DWORD PTR $T530871[ebp]
  002ce	50		 push	 eax
  002cf	f3 0f 11 4d e8	 movss	 DWORD PTR $T530871[ebp+4], xmm1
  002d4	f3 0f 10 4d f8	 movss	 xmm1, DWORD PTR _vMoveXZ$[ebp+8]
  002d9	8d 85 64 ff ff
	ff		 lea	 eax, DWORD PTR _qtRotate$530870[ebp]
  002df	0f 57 c8	 xorps	 xmm1, xmm0
  002e2	50		 push	 eax
  002e3	f3 0f 11 4d ec	 movss	 DWORD PTR $T530871[ebp+8], xmm1
  002e8	ff 15 00 00 00
	00		 call	 DWORD PTR __imp_?CalcDirectionQuaternion@ioMath@@SAXAAUD3DXQUATERNION@@ABUD3DXVECTOR3@@@Z

; 474  : 
; 475  : 			bool bLeftRot = false;
; 476  : 			if( D3DXVec3Dot( &vTargetXZ, &vMoveXZ ) > -FLOAT1 )

  002ee	d9 45 f0	 fld	 DWORD PTR _vMoveXZ$[ebp]
  002f1	d8 4d d8	 fmul	 DWORD PTR _vTargetXZ$[ebp]
  002f4	59		 pop	 ecx
  002f5	d9 45 f4	 fld	 DWORD PTR _vMoveXZ$[ebp+4]
  002f8	59		 pop	 ecx
  002f9	d8 4d dc	 fmul	 DWORD PTR _vTargetXZ$[ebp+4]
  002fc	de c1		 faddp	 ST(1), ST(0)
  002fe	d9 45 f8	 fld	 DWORD PTR _vMoveXZ$[ebp+8]
  00301	d8 4d e0	 fmul	 DWORD PTR _vTargetXZ$[ebp+8]
  00304	de c1		 faddp	 ST(1), ST(0)
  00306	d9 5d b0	 fstp	 DWORD PTR $T535601[ebp]
  00309	b8 01 00 00 00	 mov	 eax, 1
  0030e	d9 45 b0	 fld	 DWORD PTR $T535601[ebp]
  00311	89 45 b0	 mov	 DWORD PTR tv1251[ebp], eax
  00314	db 45 b0	 fild	 DWORD PTR tv1251[ebp]
  00317	85 c0		 test	 eax, eax
  00319	79 06		 jns	 SHORT $LN97@OnReturnSt
  0031b	d8 05 00 00 00
	00		 fadd	 DWORD PTR __real@4f800000
$LN97@OnReturnSt:
  00321	d9 e0		 fchs
  00323	d9 c9		 fxch	 ST(1)
  00325	df f1		 fcomip	 ST(1)
  00327	dd d8		 fstp	 ST(0)
  00329	0f 86 8f 00 00
	00		 jbe	 $LN91@OnReturnSt

; 477  : 			{
; 478  : 				float fCurYaw, fTargetYaw;
; 479  : 				fCurYaw = RADtoDEG( ioMath::QuaterToYaw( qtRotate ) );

  0032f	8d 85 64 ff ff
	ff		 lea	 eax, DWORD PTR _qtRotate$530870[ebp]
  00335	50		 push	 eax
  00336	ff 15 00 00 00
	00		 call	 DWORD PTR __imp_?QuaterToYaw@ioMath@@SAMABUD3DXQUATERNION@@@Z
  0033c	d9 1c 24	 fstp	 DWORD PTR [esp]
  0033f	e8 00 00 00 00	 call	 ??$RADtoDEG@M@@YAMM@Z	; RADtoDEG<float>
  00344	d9 5d b0	 fstp	 DWORD PTR _fCurYaw$530875[ebp]

; 480  : 				fTargetYaw = RADtoDEG( ioMath::QuaterToYaw( qtRot ) );

  00347	8d 45 94	 lea	 eax, DWORD PTR _qtRot$[ebp]
  0034a	50		 push	 eax
  0034b	ff 15 00 00 00
	00		 call	 DWORD PTR __imp_?QuaterToYaw@ioMath@@SAMABUD3DXQUATERNION@@@Z
  00351	59		 pop	 ecx
  00352	d9 1c 24	 fstp	 DWORD PTR [esp]
  00355	e8 00 00 00 00	 call	 ??$RADtoDEG@M@@YAMM@Z	; RADtoDEG<float>

; 481  : 
; 482  : 				fCurYaw = ioMath::ArrangeHead( fCurYaw );

  0035a	f3 0f 10 45 b0	 movss	 xmm0, DWORD PTR _fCurYaw$530875[ebp]
  0035f	d9 5d a8	 fstp	 DWORD PTR _fTargetYaw$530876[ebp]
  00362	f3 0f 11 04 24	 movss	 DWORD PTR [esp], xmm0
  00367	ff 15 00 00 00
	00		 call	 DWORD PTR __imp_?ArrangeHead@ioMath@@SAMM@Z
  0036d	d9 5d b0	 fstp	 DWORD PTR _fCurYaw$530875[ebp]

; 483  : 				fTargetYaw = ioMath::ArrangeHead( fTargetYaw );

  00370	f3 0f 10 45 a8	 movss	 xmm0, DWORD PTR _fTargetYaw$530876[ebp]
  00375	f3 0f 11 04 24	 movss	 DWORD PTR [esp], xmm0
  0037a	ff 15 00 00 00
	00		 call	 DWORD PTR __imp_?ArrangeHead@ioMath@@SAMM@Z
  00380	d9 5d a8	 fstp	 DWORD PTR _fTargetYaw$530876[ebp]

; 484  : 
; 485  : 				float fRotAngle = ioMath::AngleGap( fCurYaw, fTargetYaw );

  00383	f3 0f 10 45 a8	 movss	 xmm0, DWORD PTR _fTargetYaw$530876[ebp]
  00388	f3 0f 11 04 24	 movss	 DWORD PTR [esp], xmm0
  0038d	f3 0f 10 45 b0	 movss	 xmm0, DWORD PTR _fCurYaw$530875[ebp]
  00392	51		 push	 ecx
  00393	f3 0f 11 04 24	 movss	 DWORD PTR [esp], xmm0
  00398	ff 15 00 00 00
	00		 call	 DWORD PTR __imp_?AngleGap@ioMath@@SAMMM@Z

; 486  : 				if( fRotAngle < 0.0f )

  0039e	d9 ee		 fldz
  003a0	59		 pop	 ecx
  003a1	df f1		 fcomip	 ST(1)
  003a3	dd d8		 fstp	 ST(0)
  003a5	59		 pop	 ecx
  003a6	76 16		 jbe	 SHORT $LN91@OnReturnSt

; 487  : 					bLeftRot = true;
; 488  : 			}
; 489  : 
; 490  : 			if( bLeftRot )
; 491  : 			{
; 492  : 				fRotateAngle *= -1;

  003a8	f3 0f 10 45 ac	 movss	 xmm0, DWORD PTR _fRotateAngle$530864[ebp]
  003ad	0f 5a c0	 cvtps2pd xmm0, xmm0
  003b0	f2 0f 59 05 00
	00 00 00	 mulsd	 xmm0, QWORD PTR __real@bff0000000000000
  003b8	66 0f 5a c0	 cvtpd2ps xmm0, xmm0
  003bc	eb 05		 jmp	 SHORT $LN2@OnReturnSt
$LN91@OnReturnSt:
  003be	f3 0f 10 45 ac	 movss	 xmm0, DWORD PTR _fRotateAngle$530864[ebp]
$LN2@OnReturnSt:

; 493  : 			}
; 494  : 
; 495  : 			fRotateAngle = ioMath::ArrangeHead( fRotateAngle );

  003c3	51		 push	 ecx
  003c4	f3 0f 11 04 24	 movss	 DWORD PTR [esp], xmm0
  003c9	ff 15 00 00 00
	00		 call	 DWORD PTR __imp_?ArrangeHead@ioMath@@SAMM@Z
  003cf	d9 5d ac	 fstp	 DWORD PTR _fRotateAngle$530864[ebp]

; 496  : 
; 497  : 			D3DXVECTOR3 vAxis;
; 498  : 			D3DXVec3Cross( &vAxis, &vTargetXZ, &vMoveXZ );

  003d2	f3 0f 10 45 f8	 movss	 xmm0, DWORD PTR _vMoveXZ$[ebp+8]
  003d7	f3 0f 10 4d dc	 movss	 xmm1, DWORD PTR _vTargetXZ$[ebp+4]
  003dc	f3 0f 10 55 f4	 movss	 xmm2, DWORD PTR _vMoveXZ$[ebp+4]
  003e1	f3 0f 10 5d d8	 movss	 xmm3, DWORD PTR _vTargetXZ$[ebp]
  003e6	f3 0f 10 65 dc	 movss	 xmm4, DWORD PTR _vTargetXZ$[ebp+4]
  003eb	0f 5a c0	 cvtps2pd xmm0, xmm0
  003ee	0f 5a c9	 cvtps2pd xmm1, xmm1
  003f1	f2 0f 59 c1	 mulsd	 xmm0, xmm1
  003f5	f3 0f 10 4d e0	 movss	 xmm1, DWORD PTR _vTargetXZ$[ebp+8]
  003fa	0f 5a d2	 cvtps2pd xmm2, xmm2
  003fd	0f 5a c9	 cvtps2pd xmm1, xmm1
  00400	f2 0f 59 ca	 mulsd	 xmm1, xmm2
  00404	f3 0f 10 55 f0	 movss	 xmm2, DWORD PTR _vMoveXZ$[ebp]
  00409	f2 0f 5c c1	 subsd	 xmm0, xmm1
  0040d	0f 5a d2	 cvtps2pd xmm2, xmm2
  00410	0f 5a db	 cvtps2pd xmm3, xmm3
  00413	0f 57 c9	 xorps	 xmm1, xmm1
  00416	f2 0f 5a c8	 cvtsd2ss xmm1, xmm0
  0041a	f3 0f 10 45 e0	 movss	 xmm0, DWORD PTR _vTargetXZ$[ebp+8]
  0041f	0f 5a c0	 cvtps2pd xmm0, xmm0
  00422	f2 0f 59 c2	 mulsd	 xmm0, xmm2
  00426	f3 0f 10 55 f8	 movss	 xmm2, DWORD PTR _vMoveXZ$[ebp+8]
  0042b	0f 5a d2	 cvtps2pd xmm2, xmm2
  0042e	f2 0f 59 d3	 mulsd	 xmm2, xmm3
  00432	f3 0f 10 5d f4	 movss	 xmm3, DWORD PTR _vMoveXZ$[ebp+4]
  00437	f2 0f 5c c2	 subsd	 xmm0, xmm2
  0043b	0f 5a db	 cvtps2pd xmm3, xmm3
  0043e	0f 57 d2	 xorps	 xmm2, xmm2
  00441	f2 0f 5a d0	 cvtsd2ss xmm2, xmm0
  00445	f3 0f 10 45 d8	 movss	 xmm0, DWORD PTR _vTargetXZ$[ebp]
  0044a	0f 5a c0	 cvtps2pd xmm0, xmm0
  0044d	f2 0f 59 c3	 mulsd	 xmm0, xmm3
  00451	f3 0f 10 5d f0	 movss	 xmm3, DWORD PTR _vMoveXZ$[ebp]
  00456	0f 5a db	 cvtps2pd xmm3, xmm3
  00459	0f 5a e4	 cvtps2pd xmm4, xmm4
  0045c	f2 0f 59 dc	 mulsd	 xmm3, xmm4
  00460	f2 0f 5c c3	 subsd	 xmm0, xmm3
  00464	f3 0f 11 4d e4	 movss	 DWORD PTR _v$535619[ebp], xmm1
  00469	f3 0f 11 55 e8	 movss	 DWORD PTR _v$535619[ebp+4], xmm2
  0046e	0f 57 db	 xorps	 xmm3, xmm3
  00471	f2 0f 5a d8	 cvtsd2ss xmm3, xmm0

; 499  : 			D3DXVec3Normalize( &vAxis, &-vAxis );

  00475	f3 0f 10 05 00
	00 00 00	 movss	 xmm0, DWORD PTR __mask@@NegFloat@
  0047d	f3 0f 11 5d ec	 movss	 DWORD PTR _v$535619[ebp+8], xmm3
  00482	8d 75 e4	 lea	 esi, DWORD PTR _v$535619[ebp]
  00485	8d 7d b4	 lea	 edi, DWORD PTR _vAxis$530880[ebp]
  00488	a5		 movsd
  00489	a5		 movsd
  0048a	59		 pop	 ecx
  0048b	8d 45 e4	 lea	 eax, DWORD PTR $T530881[ebp]
  0048e	50		 push	 eax
  0048f	a5		 movsd
  00490	8d 45 b4	 lea	 eax, DWORD PTR _vAxis$530880[ebp]
  00493	0f 57 c8	 xorps	 xmm1, xmm0
  00496	0f 57 d0	 xorps	 xmm2, xmm0
  00499	0f 57 d8	 xorps	 xmm3, xmm0
  0049c	50		 push	 eax
  0049d	f3 0f 11 4d e4	 movss	 DWORD PTR $T530881[ebp], xmm1
  004a2	f3 0f 11 55 e8	 movss	 DWORD PTR $T530881[ebp+4], xmm2
  004a7	f3 0f 11 5d ec	 movss	 DWORD PTR $T530881[ebp+8], xmm3
  004ac	e8 00 00 00 00	 call	 _D3DXVec3Normalize@8

; 500  : 
; 501  : 			D3DXQUATERNION	qtAxisRot;
; 502  : 			D3DXQuaternionRotationYawPitchRoll( &qtAxisRot, DEGtoRAD(fRotateAngle), 0.0f, 0.0f );

  004b1	d9 45 ac	 fld	 DWORD PTR _fRotateAngle$530864[ebp]
  004b4	dc 0d 00 00 00
	00		 fmul	 QWORD PTR __real@3f91df46a2526c7a
  004ba	0f 57 c0	 xorps	 xmm0, xmm0
  004bd	83 ec 0c	 sub	 esp, 12			; 0000000cH
  004c0	f3 0f 11 44 24
	08		 movss	 DWORD PTR [esp+8], xmm0
  004c6	d9 5d b0	 fstp	 DWORD PTR tv1181[ebp]
  004c9	f3 0f 11 44 24
	04		 movss	 DWORD PTR [esp+4], xmm0
  004cf	d9 45 b0	 fld	 DWORD PTR tv1181[ebp]
  004d2	8d 85 74 ff ff
	ff		 lea	 eax, DWORD PTR _qtAxisRot$530882[ebp]
  004d8	d9 1c 24	 fstp	 DWORD PTR [esp]
  004db	50		 push	 eax
  004dc	e8 00 00 00 00	 call	 _D3DXQuaternionRotationYawPitchRoll@16

; 503  : 			vMoveXZ = qtAxisRot * vMoveXZ;

  004e1	8d 45 f0	 lea	 eax, DWORD PTR _vMoveXZ$[ebp]
  004e4	50		 push	 eax
  004e5	8d 85 74 ff ff
	ff		 lea	 eax, DWORD PTR _qtAxisRot$530882[ebp]
  004eb	50		 push	 eax
  004ec	8d 45 e4	 lea	 eax, DWORD PTR $T530887[ebp]
  004ef	50		 push	 eax
  004f0	ff 15 00 00 00
	00		 call	 DWORD PTR __imp_??D@YA?AUD3DXVECTOR3@@ABUD3DXQUATERNION@@ABU0@@Z

; 504  : 			vMoveXZ.y = vTargetDir.y;

  004f6	f3 0f 10 45 d0	 movss	 xmm0, DWORD PTR _vTargetDir$[ebp+4]
  004fb	8b f0		 mov	 esi, eax
  004fd	8d 7d f0	 lea	 edi, DWORD PTR _vMoveXZ$[ebp]
  00500	a5		 movsd
  00501	a5		 movsd
  00502	a5		 movsd
  00503	f3 0f 11 45 f4	 movss	 DWORD PTR _vMoveXZ$[ebp+4], xmm0

; 505  : 			m_vMoveDir = vMoveXZ;

  00508	8d 75 f0	 lea	 esi, DWORD PTR _vMoveXZ$[ebp]
  0050b	8b fb		 mov	 edi, ebx
  0050d	a5		 movsd
  0050e	83 c4 0c	 add	 esp, 12			; 0000000cH
  00511	a5		 movsd

; 506  : 			D3DXVec3Normalize( &m_vMoveDir, &m_vMoveDir );

  00512	53		 push	 ebx
  00513	53		 push	 ebx
  00514	a5		 movsd
  00515	e8 00 00 00 00	 call	 _D3DXVec3Normalize@8
$LN100@OnReturnSt:

; 507  : 
; 508  : 			D3DXQUATERNION	qtNewRot;
; 509  : 			ioMath::CalcDirectionQuaternion( qtNewRot, -m_vMoveDir );

  0051a	f3 0f 10 05 00
	00 00 00	 movss	 xmm0, DWORD PTR __mask@@NegFloat@
  00522	f3 0f 10 0b	 movss	 xmm1, DWORD PTR [ebx]
  00526	0f 57 c8	 xorps	 xmm1, xmm0
  00529	f3 0f 11 4d e4	 movss	 DWORD PTR $T530889[ebp], xmm1
  0052e	f3 0f 10 4b 04	 movss	 xmm1, DWORD PTR [ebx+4]
  00533	0f 57 c8	 xorps	 xmm1, xmm0
  00536	8d 45 e4	 lea	 eax, DWORD PTR $T530889[ebp]
  00539	50		 push	 eax
  0053a	f3 0f 11 4d e8	 movss	 DWORD PTR $T530889[ebp+4], xmm1
  0053f	f3 0f 10 4b 08	 movss	 xmm1, DWORD PTR [ebx+8]
  00544	8d 45 84	 lea	 eax, DWORD PTR _qtNewRot$530888[ebp]
  00547	0f 57 c8	 xorps	 xmm1, xmm0
  0054a	50		 push	 eax
  0054b	f3 0f 11 4d ec	 movss	 DWORD PTR $T530889[ebp+8], xmm1
  00550	ff 15 00 00 00
	00		 call	 DWORD PTR __imp_?CalcDirectionQuaternion@ioMath@@SAXAAUD3DXQUATERNION@@ABUD3DXVECTOR3@@@Z
  00556	59		 pop	 ecx
  00557	59		 pop	 ecx

; 510  : 			SetOrientation( qtNewRot );

  00558	8b 4d a4	 mov	 ecx, DWORD PTR _this$GSCopy$[ebp]
  0055b	8d 45 84	 lea	 eax, DWORD PTR _qtNewRot$530888[ebp]
  0055e	50		 push	 eax
  0055f	e8 00 00 00 00	 call	 ?SetOrientation@ioWeapon@@QAEXABUD3DXQUATERNION@@@Z ; ioWeapon::SetOrientation
$LN92@OnReturnSt:

; 511  : 		}
; 512  : 	}
; 513  : 
; 514  : 	float fMoveDist = GetMoveSpeed() * fTimePerSec;

  00564	8b 75 a4	 mov	 esi, DWORD PTR _this$GSCopy$[ebp]
  00567	8b ce		 mov	 ecx, esi
  00569	e8 00 00 00 00	 call	 ?GetMoveSpeed@ioControlMissileWeapon@@IAEMXZ ; ioControlMissileWeapon::GetMoveSpeed
  0056e	d8 4d 08	 fmul	 DWORD PTR _fTimePerSec$[ebp]

; 515  : 	D3DXVECTOR3 vPos = GetPosition();

  00571	8b 06		 mov	 eax, DWORD PTR [esi]
  00573	8b ce		 mov	 ecx, esi
  00575	d9 5d b0	 fstp	 DWORD PTR _fMoveDist$[ebp]
  00578	ff 50 70	 call	 DWORD PTR [eax+112]

; 516  : 	vPos = vPos + (fMoveDist * m_vMoveDir);

  0057b	f3 0f 10 03	 movss	 xmm0, DWORD PTR [ebx]
  0057f	f3 0f 10 4d b0	 movss	 xmm1, DWORD PTR _fMoveDist$[ebp]
  00584	f3 0f 10 55 b0	 movss	 xmm2, DWORD PTR _fMoveDist$[ebp]
  00589	f3 0f 10 5d b0	 movss	 xmm3, DWORD PTR _fMoveDist$[ebp]
  0058e	0f 5a c0	 cvtps2pd xmm0, xmm0
  00591	0f 5a c9	 cvtps2pd xmm1, xmm1
  00594	f2 0f 59 c1	 mulsd	 xmm0, xmm1
  00598	f3 0f 10 4b 04	 movss	 xmm1, DWORD PTR [ebx+4]
  0059d	8b f0		 mov	 esi, eax
  0059f	8d 7d c0	 lea	 edi, DWORD PTR _vPos$[ebp]
  005a2	a5		 movsd
  005a3	a5		 movsd
  005a4	66 0f 5a c0	 cvtpd2ps xmm0, xmm0
  005a8	a5		 movsd
  005a9	0f 5a c9	 cvtps2pd xmm1, xmm1
  005ac	0f 5a d2	 cvtps2pd xmm2, xmm2
  005af	f2 0f 59 ca	 mulsd	 xmm1, xmm2
  005b3	f3 0f 10 53 08	 movss	 xmm2, DWORD PTR [ebx+8]
  005b8	f3 0f 5a c0	 cvtss2sd xmm0, xmm0
  005bc	0f 5a db	 cvtps2pd xmm3, xmm3
  005bf	0f 5a d2	 cvtps2pd xmm2, xmm2
  005c2	f2 0f 59 d3	 mulsd	 xmm2, xmm3
  005c6	f3 0f 10 5d c0	 movss	 xmm3, DWORD PTR _vPos$[ebp]
  005cb	0f 5a db	 cvtps2pd xmm3, xmm3
  005ce	f2 0f 58 d8	 addsd	 xmm3, xmm0
  005d2	0f 57 c0	 xorps	 xmm0, xmm0
  005d5	66 0f 5a c3	 cvtpd2ps xmm0, xmm3
  005d9	f3 0f 11 45 b4	 movss	 DWORD PTR $T530893[ebp], xmm0
  005de	f3 0f 10 45 c4	 movss	 xmm0, DWORD PTR _vPos$[ebp+4]
  005e3	0f 5a c0	 cvtps2pd xmm0, xmm0
  005e6	66 0f 5a c9	 cvtpd2ps xmm1, xmm1
  005ea	f3 0f 5a c9	 cvtss2sd xmm1, xmm1
  005ee	f2 0f 58 c1	 addsd	 xmm0, xmm1
  005f2	66 0f 5a c0	 cvtpd2ps xmm0, xmm0
  005f6	f3 0f 11 45 b8	 movss	 DWORD PTR $T530893[ebp+4], xmm0
  005fb	f3 0f 10 45 c8	 movss	 xmm0, DWORD PTR _vPos$[ebp+8]
  00600	66 0f 5a d2	 cvtpd2ps xmm2, xmm2
  00604	0f 5a c0	 cvtps2pd xmm0, xmm0
  00607	0f 57 c9	 xorps	 xmm1, xmm1
  0060a	f3 0f 5a ca	 cvtss2sd xmm1, xmm2
  0060e	f2 0f 58 c1	 addsd	 xmm0, xmm1
  00612	66 0f 5a c0	 cvtpd2ps xmm0, xmm0
  00616	f3 0f 11 45 bc	 movss	 DWORD PTR $T530893[ebp+8], xmm0
  0061b	8d 75 b4	 lea	 esi, DWORD PTR $T530893[ebp]
  0061e	8d 7d c0	 lea	 edi, DWORD PTR _vPos$[ebp]
  00621	a5		 movsd
  00622	a5		 movsd
  00623	a5		 movsd

; 517  : 
; 518  : 	SetPosition( vPos );

  00624	8b 75 a4	 mov	 esi, DWORD PTR _this$GSCopy$[ebp]
  00627	8d 45 c0	 lea	 eax, DWORD PTR _vPos$[ebp]
  0062a	50		 push	 eax
  0062b	8b ce		 mov	 ecx, esi
  0062d	e8 00 00 00 00	 call	 ?SetPosition@ioWeapon@@QAEXABUD3DXVECTOR3@@@Z ; ioWeapon::SetPosition

; 519  : 
; 520  : 	if( m_pMissileMesh )

  00632	8d 8e e8 08 00
	00		 lea	 ecx, DWORD PTR [esi+2280]
  00638	83 39 00	 cmp	 DWORD PTR [ecx], 0
  0063b	5f		 pop	 edi
  0063c	5e		 pop	 esi
  0063d	74 35		 je	 SHORT $LN1@OnReturnSt

; 521  : 	{
; 522  : 		m_pMissileMesh->Update( fTimePerSec * FLOAT1000 );

  0063f	b8 e8 03 00 00	 mov	 eax, 1000		; 000003e8H
  00644	8b 09		 mov	 ecx, DWORD PTR [ecx]
  00646	83 c1 14	 add	 ecx, 20			; 00000014H
  00649	8b 11		 mov	 edx, DWORD PTR [ecx]
  0064b	89 45 b0	 mov	 DWORD PTR tv1052[ebp], eax
  0064e	db 45 b0	 fild	 DWORD PTR tv1052[ebp]
  00651	85 c0		 test	 eax, eax
  00653	79 06		 jns	 SHORT $LN98@OnReturnSt
  00655	d8 05 00 00 00
	00		 fadd	 DWORD PTR __real@4f800000
$LN98@OnReturnSt:
  0065b	d8 4d 08	 fmul	 DWORD PTR _fTimePerSec$[ebp]
  0065e	51		 push	 ecx
  0065f	d9 5d b0	 fstp	 DWORD PTR tv1049[ebp]
  00662	d9 45 b0	 fld	 DWORD PTR tv1049[ebp]
  00665	d9 1c 24	 fstp	 DWORD PTR [esp]
  00668	ff 52 40	 call	 DWORD PTR [edx+64]
  0066b	eb 07		 jmp	 SHORT $LN1@OnReturnSt
$LN10@OnReturnSt:

; 411  : 	{
; 412  : 	case CS_DIE:
; 413  : 	case CS_DROP_ZONE_DOWN:
; 414  : 	case CS_READY:
; 415  : 	case CS_VIEW:
; 416  : 	case CS_OBSERVER:
; 417  : 	case CS_LOADING:
; 418  : 	case CS_STARTMOTION:
; 419  : 	case CS_ENDMOTION:
; 420  : 		SetWeaponDead();

  0066d	8b 03		 mov	 eax, DWORD PTR [ebx]
  0066f	8b cb		 mov	 ecx, ebx
  00671	ff 50 4c	 call	 DWORD PTR [eax+76]
$LN1@OnReturnSt:

; 523  : 	}
; 524  : }

  00674	8b 4d fc	 mov	 ecx, DWORD PTR __$ArrayPad$[ebp]
  00677	33 cd		 xor	 ecx, ebp
  00679	5b		 pop	 ebx
  0067a	e8 00 00 00 00	 call	 @__security_check_cookie@4
  0067f	c9		 leave
  00680	c2 08 00	 ret	 8
?OnReturnState@ioControlMissileWeapon@@IAEXMPAVioPlayStage@@@Z ENDP ; ioControlMissileWeapon::OnReturnState
_TEXT	ENDS
EXTRN	?AddWeaponExplosionEffect@ioPlayStage@@QAEXPAVioPlayEntity@@PAVioWeapon@@W4ApplyWeaponExp@@@Z:PROC ; ioPlayStage::AddWeaponExplosionEffect
EXTRN	?GetPiercingType@ioWeapon@@QBE?AW4CharPiercingType@@XZ:PROC ; ioWeapon::GetPiercingType
; Function compile flags: /Ogsp
;	COMDAT ?CheckPreCollision@ioControlMissileWeapon@@UAEXPAVioPlayEntity@@PAVioPlayStage@@@Z
_TEXT	SEGMENT
_value$535715 = -4					; size = 4
_value$535702 = 8					; size = 4
_pTarget$ = 8						; size = 4
_pStage$ = 12						; size = 4
?CheckPreCollision@ioControlMissileWeapon@@UAEXPAVioPlayEntity@@PAVioPlayStage@@@Z PROC ; ioControlMissileWeapon::CheckPreCollision, COMDAT
; _this$ = ecx

; 871  : {

  00000	55		 push	 ebp
  00001	8b ec		 mov	 ebp, esp
  00003	51		 push	 ecx
  00004	53		 push	 ebx
  00005	56		 push	 esi

; 872  : 	bool bCollision = false;
; 873  : 	if( pTarget->IsWoundedCollision( GetWorldAttackBox() ) )

  00006	8b 75 08	 mov	 esi, DWORD PTR _pTarget$[ebp]
  00009	8b 1e		 mov	 ebx, DWORD PTR [esi]
  0000b	57		 push	 edi
  0000c	6a 00		 push	 0
  0000e	6a 00		 push	 0
  00010	8b f9		 mov	 edi, ecx
  00012	e8 00 00 00 00	 call	 ?GetWorldAttackBox@ioWeapon@@QBEABVioOrientBox@@_N@Z ; ioWeapon::GetWorldAttackBox
  00017	50		 push	 eax
  00018	8b ce		 mov	 ecx, esi
  0001a	ff 93 90 00 00
	00		 call	 DWORD PTR [ebx+144]
  00020	84 c0		 test	 al, al
  00022	0f 84 e6 00 00
	00		 je	 $LN1@CheckPreCo

; 874  : 	{
; 875  : 		if( ToSymbolStruct(pTarget) || ToPushStruct(pTarget) || ToBallStruct(pTarget) ||
; 876  : 			ToDummyChar(pTarget) || ToWallZone(pTarget) )

  00028	56		 push	 esi
  00029	e8 00 00 00 00	 call	 ?ToSymbolStruct@@YAPAVioSymbolStruct@@PAVioGameEntity@@@Z ; ToSymbolStruct
  0002e	59		 pop	 ecx
  0002f	85 c0		 test	 eax, eax
  00031	75 53		 jne	 SHORT $LN7@CheckPreCo
  00033	56		 push	 esi
  00034	e8 00 00 00 00	 call	 ?ToPushStruct@@YAPAVioPushStruct@@PAVioGameEntity@@@Z ; ToPushStruct
  00039	59		 pop	 ecx
  0003a	85 c0		 test	 eax, eax
  0003c	75 48		 jne	 SHORT $LN7@CheckPreCo
  0003e	56		 push	 esi
  0003f	e8 00 00 00 00	 call	 ?ToBallStruct@@YAPAVioBall@@PAVioGameEntity@@@Z ; ToBallStruct
  00044	59		 pop	 ecx
  00045	85 c0		 test	 eax, eax
  00047	75 3d		 jne	 SHORT $LN7@CheckPreCo
  00049	56		 push	 esi
  0004a	e8 00 00 00 00	 call	 ?ToDummyChar@@YAPAVioDummyChar@@PAVioGameEntity@@@Z ; ToDummyChar
  0004f	59		 pop	 ecx
  00050	85 c0		 test	 eax, eax
  00052	75 32		 jne	 SHORT $LN7@CheckPreCo
  00054	56		 push	 esi
  00055	e8 00 00 00 00	 call	 ?ToWallZone@@YAPAVioWallZone@@PAVioGameEntity@@@Z ; ToWallZone
  0005a	59		 pop	 ecx
  0005b	85 c0		 test	 eax, eax
  0005d	75 27		 jne	 SHORT $LN7@CheckPreCo

; 877  : 		{
; 878  : 			bCollision = true;
; 879  : 		}
; 880  : 		else if( GetTeam() != pTarget->GetTeam() )

  0005f	8d 45 08	 lea	 eax, DWORD PTR _value$535702[ebp]
  00062	50		 push	 eax
  00063	8d 4f 30	 lea	 ecx, DWORD PTR [edi+48]
  00066	e8 00 00 00 00	 call	 ?DecryptValueToPool@?$CEncrypt@W4TeamType@@@@QAEXPAW4TeamType@@@Z ; CEncrypt<enum TeamType>::DecryptValueToPool
  0006b	8d 45 fc	 lea	 eax, DWORD PTR _value$535715[ebp]
  0006e	50		 push	 eax
  0006f	8d 8e 90 00 00
	00		 lea	 ecx, DWORD PTR [esi+144]
  00075	e8 00 00 00 00	 call	 ?DecryptValueToPool@?$CEncrypt@W4TeamType@@@@QAEXPAW4TeamType@@@Z ; CEncrypt<enum TeamType>::DecryptValueToPool
  0007a	8b 45 08	 mov	 eax, DWORD PTR _value$535702[ebp]
  0007d	3b 45 fc	 cmp	 eax, DWORD PTR _value$535715[ebp]
  00080	0f 84 88 00 00
	00		 je	 $LN1@CheckPreCo
$LN7@CheckPreCo:

; 881  : 		{
; 882  : 			bCollision = true;
; 883  : 		}
; 884  : 	}
; 885  : 
; 886  : 	if( !bCollision )
; 887  : 		return;
; 888  : 
; 889  : 	if( ToSymbolStruct(pTarget) || ToPushStruct(pTarget) || ToBallStruct(pTarget) ||
; 890  : 		ToDummyChar(pTarget) || ToWallZone(pTarget) ||
; 891  : 		GetPiercingType() == CPT_NONE )

  00086	56		 push	 esi
  00087	e8 00 00 00 00	 call	 ?ToSymbolStruct@@YAPAVioSymbolStruct@@PAVioGameEntity@@@Z ; ToSymbolStruct
  0008c	59		 pop	 ecx
  0008d	85 c0		 test	 eax, eax
  0008f	75 37		 jne	 SHORT $LN2@CheckPreCo
  00091	56		 push	 esi
  00092	e8 00 00 00 00	 call	 ?ToPushStruct@@YAPAVioPushStruct@@PAVioGameEntity@@@Z ; ToPushStruct
  00097	59		 pop	 ecx
  00098	85 c0		 test	 eax, eax
  0009a	75 2c		 jne	 SHORT $LN2@CheckPreCo
  0009c	56		 push	 esi
  0009d	e8 00 00 00 00	 call	 ?ToBallStruct@@YAPAVioBall@@PAVioGameEntity@@@Z ; ToBallStruct
  000a2	59		 pop	 ecx
  000a3	85 c0		 test	 eax, eax
  000a5	75 21		 jne	 SHORT $LN2@CheckPreCo
  000a7	56		 push	 esi
  000a8	e8 00 00 00 00	 call	 ?ToDummyChar@@YAPAVioDummyChar@@PAVioGameEntity@@@Z ; ToDummyChar
  000ad	59		 pop	 ecx
  000ae	85 c0		 test	 eax, eax
  000b0	75 16		 jne	 SHORT $LN2@CheckPreCo
  000b2	56		 push	 esi
  000b3	e8 00 00 00 00	 call	 ?ToWallZone@@YAPAVioWallZone@@PAVioGameEntity@@@Z ; ToWallZone
  000b8	59		 pop	 ecx
  000b9	85 c0		 test	 eax, eax
  000bb	75 0b		 jne	 SHORT $LN2@CheckPreCo
  000bd	8b cf		 mov	 ecx, edi
  000bf	e8 00 00 00 00	 call	 ?GetPiercingType@ioWeapon@@QBE?AW4CharPiercingType@@XZ ; ioWeapon::GetPiercingType
  000c4	85 c0		 test	 eax, eax
  000c6	75 46		 jne	 SHORT $LN1@CheckPreCo
$LN2@CheckPreCo:

; 892  : 	{
; 893  : 		CheckCurAttribute( pTarget );

  000c8	8b 07		 mov	 eax, DWORD PTR [edi]
  000ca	56		 push	 esi
  000cb	8b cf		 mov	 ecx, edi
  000cd	ff 90 f0 00 00
	00		 call	 DWORD PTR [eax+240]

; 894  : 
; 895  : 		ApplyWeaponExp eExplosionType = pTarget->ApplyWeapon( this );

  000d3	8b 06		 mov	 eax, DWORD PTR [esi]
  000d5	57		 push	 edi
  000d6	8b ce		 mov	 ecx, esi
  000d8	ff 50 7c	 call	 DWORD PTR [eax+124]

; 896  : 		pStage->AddWeaponExplosionEffect( pTarget, this, eExplosionType );

  000db	8b 4d 0c	 mov	 ecx, DWORD PTR _pStage$[ebp]
  000de	50		 push	 eax
  000df	57		 push	 edi
  000e0	56		 push	 esi
  000e1	e8 00 00 00 00	 call	 ?AddWeaponExplosionEffect@ioPlayStage@@QAEXPAVioPlayEntity@@PAVioWeapon@@W4ApplyWeaponExp@@@Z ; ioPlayStage::AddWeaponExplosionEffect

; 897  : 
; 898  : 		AddCollisionEntity( pTarget );

  000e6	8b 07		 mov	 eax, DWORD PTR [edi]
  000e8	56		 push	 esi
  000e9	8b cf		 mov	 ecx, edi
  000eb	ff 50 04	 call	 DWORD PTR [eax+4]

; 899  : 
; 900  : 		ioBaseChar *pOwner = GetOwner();

  000ee	8b cf		 mov	 ecx, edi
  000f0	e8 00 00 00 00	 call	 ?GetOwner@ioWeapon@@QBEPAVioBaseChar@@XZ ; ioWeapon::GetOwner

; 901  : 		if( pOwner && pOwner->IsNeedProcess() )

  000f5	85 c0		 test	 eax, eax
  000f7	74 15		 je	 SHORT $LN1@CheckPreCo
  000f9	8b 10		 mov	 edx, DWORD PTR [eax]
  000fb	8b c8		 mov	 ecx, eax
  000fd	ff 92 00 01 00
	00		 call	 DWORD PTR [edx+256]
  00103	84 c0		 test	 al, al
  00105	74 07		 je	 SHORT $LN1@CheckPreCo

; 902  : 			SetWeaponDead();

  00107	8b 07		 mov	 eax, DWORD PTR [edi]
  00109	8b cf		 mov	 ecx, edi
  0010b	ff 50 4c	 call	 DWORD PTR [eax+76]
$LN1@CheckPreCo:
  0010e	5f		 pop	 edi
  0010f	5e		 pop	 esi
  00110	5b		 pop	 ebx

; 903  : 
; 904  : 		return;
; 905  : 	}
; 906  : }

  00111	c9		 leave
  00112	c2 08 00	 ret	 8
?CheckPreCollision@ioControlMissileWeapon@@UAEXPAVioPlayEntity@@PAVioPlayStage@@@Z ENDP ; ioControlMissileWeapon::CheckPreCollision
_TEXT	ENDS
PUBLIC	__$ArrayPad$
;	COMDAT xdata$x
; File d:\lost saga for developer\youtube\tutorial\source\src\lsclient\ioweapon.h
xdata$x	SEGMENT
__unwindtable$?Process@ioControlMissileWeapon@@UAEXMPAVioPlayStage@@@Z DD 0ffffffffH
	DD	FLAT:__unwindfunclet$?Process@ioControlMissileWeapon@@UAEXMPAVioPlayStage@@@Z$0
__ehfuncinfo$?Process@ioControlMissileWeapon@@UAEXMPAVioPlayStage@@@Z DD 019930522H
	DD	01H
	DD	FLAT:__unwindtable$?Process@ioControlMissileWeapon@@UAEXMPAVioPlayStage@@@Z
	DD	2 DUP(00H)
	DD	2 DUP(00H)
	DD	00H
	DD	01H
; Function compile flags: /Ogsp
; File d:\lost saga for developer\youtube\tutorial\source\src\lsclient\iocontrolmissileweapon.cpp
xdata$x	ENDS
;	COMDAT ?Process@ioControlMissileWeapon@@UAEXMPAVioPlayStage@@@Z
_TEXT	SEGMENT
_pOwner$ = -32828					; size = 4
_dwCurTime$ = -32824					; size = 4
_kPacket$530767 = -32820				; size = 32792
$T530768 = -28						; size = 12
__$ArrayPad$ = -16					; size = 4
__$EHRec$ = -12						; size = 12
_fTimePerSec$ = 8					; size = 4
_pStage$ = 12						; size = 4
?Process@ioControlMissileWeapon@@UAEXMPAVioPlayStage@@@Z PROC ; ioControlMissileWeapon::Process, COMDAT
; _this$ = ecx

; 207  : {

  00000	55		 push	 ebp
  00001	8b ec		 mov	 ebp, esp
  00003	6a ff		 push	 -1
  00005	68 00 00 00 00	 push	 __ehhandler$?Process@ioControlMissileWeapon@@UAEXMPAVioPlayStage@@@Z
  0000a	64 a1 00 00 00
	00		 mov	 eax, DWORD PTR fs:0
  00010	50		 push	 eax
  00011	b8 30 80 00 00	 mov	 eax, 32816		; 00008030H
  00016	e8 00 00 00 00	 call	 __chkstk
  0001b	a1 00 00 00 00	 mov	 eax, DWORD PTR ___security_cookie
  00020	33 c5		 xor	 eax, ebp
  00022	89 45 f0	 mov	 DWORD PTR __$ArrayPad$[ebp], eax
  00025	53		 push	 ebx
  00026	56		 push	 esi
  00027	57		 push	 edi
  00028	50		 push	 eax
  00029	8d 45 f4	 lea	 eax, DWORD PTR __$EHRec$[ebp]
  0002c	64 a3 00 00 00
	00		 mov	 DWORD PTR fs:0, eax
  00032	8b 7d 0c	 mov	 edi, DWORD PTR _pStage$[ebp]
  00035	8b f1		 mov	 esi, ecx

; 208  : 	ioBaseChar *pOwner = GetOwner();

  00037	e8 00 00 00 00	 call	 ?GetOwner@ioWeapon@@QBEPAVioBaseChar@@XZ ; ioWeapon::GetOwner

; 209  : 	if( !pOwner )

  0003c	33 db		 xor	 ebx, ebx
  0003e	89 85 c4 7f ff
	ff		 mov	 DWORD PTR _pOwner$[ebp], eax
  00044	3b c3		 cmp	 eax, ebx
  00046	75 0c		 jne	 SHORT $LN21@Process
$LN34@Process:

; 210  : 	{
; 211  : 		SetWeaponDead();

  00048	8b ce		 mov	 ecx, esi
$LN35@Process:
  0004a	8b 06		 mov	 eax, DWORD PTR [esi]
  0004c	ff 50 4c	 call	 DWORD PTR [eax+76]

; 212  : 		return;

  0004f	e9 ec 01 00 00	 jmp	 $LN1@Process
$LN21@Process:

; 213  : 	}
; 214  : 
; 215  : 	DWORD dwCurTime = FRAMEGETTIME();

  00054	ff 15 00 00 00
	00		 call	 DWORD PTR __imp_?GetSingleton@ioFrameTimer@@SAAAV1@XZ
  0005a	8b c8		 mov	 ecx, eax
  0005c	ff 15 00 00 00
	00		 call	 DWORD PTR __imp_?GetLoopSec@ioFrameTimer@@QBEKXZ
  00062	89 85 c8 7f ff
	ff		 mov	 DWORD PTR _dwCurTime$[ebp], eax

; 216  : 
; 217  : 	if( !CheckPiercing() )

  00068	8b 06		 mov	 eax, DWORD PTR [esi]
  0006a	53		 push	 ebx
  0006b	8b ce		 mov	 ecx, esi
  0006d	ff 90 48 01 00
	00		 call	 DWORD PTR [eax+328]
  00073	84 c0		 test	 al, al
  00075	0f 84 c5 01 00
	00		 je	 $LN1@Process

; 218  : 		return;
; 219  : 
; 220  : 	if( m_ControlState == CTS_IN_RANGE || m_ControlState == CTS_OUT_RANGE )

  0007b	8b 86 94 08 00
	00		 mov	 eax, DWORD PTR [esi+2196]
  00081	3b c3		 cmp	 eax, ebx
  00083	74 05		 je	 SHORT $LN18@Process
  00085	83 f8 01	 cmp	 eax, 1
  00088	75 1f		 jne	 SHORT $LN17@Process
$LN18@Process:

; 221  : 	{
; 222  : 		if( m_dwCreatedTime+GetLiveTime() < dwCurTime )

  0008a	8b 06		 mov	 eax, DWORD PTR [esi]
  0008c	8b ce		 mov	 ecx, esi
  0008e	ff 90 04 01 00
	00		 call	 DWORD PTR [eax+260]
  00094	03 86 d4 04 00
	00		 add	 eax, DWORD PTR [esi+1236]
  0009a	3b 85 c8 7f ff
	ff		 cmp	 eax, DWORD PTR _dwCurTime$[ebp]
  000a0	73 07		 jae	 SHORT $LN17@Process

; 223  : 		{
; 224  : 			ChangeToReturnState();

  000a2	8b ce		 mov	 ecx, esi
  000a4	e8 00 00 00 00	 call	 ?ChangeToReturnState@ioControlMissileWeapon@@IAEXXZ ; ioControlMissileWeapon::ChangeToReturnState
$LN17@Process:

; 225  : 		}
; 226  : 	}
; 227  : 
; 228  : 	switch( m_ControlState )

  000a9	8b 86 94 08 00
	00		 mov	 eax, DWORD PTR [esi+2196]
  000af	2b c3		 sub	 eax, ebx
  000b1	74 61		 je	 SHORT $LN14@Process
  000b3	48		 dec	 eax
  000b4	74 36		 je	 SHORT $LN11@Process
  000b6	48		 dec	 eax
  000b7	0f 85 81 00 00
	00		 jne	 $LN25@Process

; 242  : 	case CTS_RETURN:
; 243  : 		if( CheckReturnEndTime() )

  000bd	8b ce		 mov	 ecx, esi
  000bf	e8 00 00 00 00	 call	 ?CheckReturnEndTime@ioControlMissileWeapon@@IAE_NXZ ; ioControlMissileWeapon::CheckReturnEndTime

; 244  : 		{
; 245  : 			SetWeaponDead();

  000c4	8b ce		 mov	 ecx, esi
  000c6	84 c0		 test	 al, al

; 246  : 			return;

  000c8	75 80		 jne	 SHORT $LN35@Process

; 247  : 		}
; 248  : 		else if( CheckReturnEndRange() )

  000ca	e8 00 00 00 00	 call	 ?CheckReturnEndRange@ioControlMissileWeapon@@IAE_NXZ ; ioControlMissileWeapon::CheckReturnEndRange
  000cf	84 c0		 test	 al, al

; 249  : 		{
; 250  : 			SetWeaponDead();
; 251  : 			return;

  000d1	0f 85 71 ff ff
	ff		 jne	 $LN34@Process

; 252  : 		}
; 253  : 		else
; 254  : 		{
; 255  : 			OnReturnState( fTimePerSec, pStage );

  000d7	f3 0f 10 45 08	 movss	 xmm0, DWORD PTR _fTimePerSec$[ebp]
  000dc	57		 push	 edi
  000dd	51		 push	 ecx
  000de	8b ce		 mov	 ecx, esi
  000e0	f3 0f 11 04 24	 movss	 DWORD PTR [esp], xmm0
  000e5	e8 00 00 00 00	 call	 ?OnReturnState@ioControlMissileWeapon@@IAEXMPAVioPlayStage@@@Z ; ioControlMissileWeapon::OnReturnState

; 256  : 		}
; 257  : 		break;

  000ea	eb 52		 jmp	 SHORT $LN25@Process
$LN11@Process:

; 235  : 		break;
; 236  : 	case CTS_OUT_RANGE:
; 237  : 		if( CheckInRange() )

  000ec	8b ce		 mov	 ecx, esi
  000ee	e8 00 00 00 00	 call	 ?CheckInRange@ioControlMissileWeapon@@IAE_NXZ ; ioControlMissileWeapon::CheckInRange
  000f3	84 c0		 test	 al, al
  000f5	74 08		 je	 SHORT $LN10@Process

; 238  : 			ChangeToInRange();

  000f7	89 9e 94 08 00
	00		 mov	 DWORD PTR [esi+2196], ebx

; 239  : 		else

  000fd	eb 3f		 jmp	 SHORT $LN25@Process
$LN10@Process:

; 240  : 			OnOutRangeState( fTimePerSec, pStage );

  000ff	f3 0f 10 45 08	 movss	 xmm0, DWORD PTR _fTimePerSec$[ebp]
  00104	57		 push	 edi
  00105	51		 push	 ecx
  00106	8b ce		 mov	 ecx, esi
  00108	f3 0f 11 04 24	 movss	 DWORD PTR [esp], xmm0
  0010d	e8 00 00 00 00	 call	 ?OnOutRangeState@ioControlMissileWeapon@@IAEXMPAVioPlayStage@@@Z ; ioControlMissileWeapon::OnOutRangeState

; 241  : 		break;

  00112	eb 2a		 jmp	 SHORT $LN25@Process
$LN14@Process:

; 229  : 	{
; 230  : 	case CTS_IN_RANGE:
; 231  : 		if( CheckInRange() )

  00114	8b ce		 mov	 ecx, esi
  00116	e8 00 00 00 00	 call	 ?CheckInRange@ioControlMissileWeapon@@IAE_NXZ ; ioControlMissileWeapon::CheckInRange
  0011b	84 c0		 test	 al, al
  0011d	74 15		 je	 SHORT $LN13@Process

; 232  : 			OnInRangeState( fTimePerSec, pStage );

  0011f	f3 0f 10 45 08	 movss	 xmm0, DWORD PTR _fTimePerSec$[ebp]
  00124	57		 push	 edi
  00125	51		 push	 ecx
  00126	8b ce		 mov	 ecx, esi
  00128	f3 0f 11 04 24	 movss	 DWORD PTR [esp], xmm0
  0012d	e8 00 00 00 00	 call	 ?OnInRangeState@ioControlMissileWeapon@@IAEXMPAVioPlayStage@@@Z ; ioControlMissileWeapon::OnInRangeState

; 233  : 		else

  00132	eb 0a		 jmp	 SHORT $LN25@Process
$LN13@Process:

; 234  : 			ChangeToOutRange();	

  00134	c7 86 94 08 00
	00 01 00 00 00	 mov	 DWORD PTR [esi+2196], 1
$LN25@Process:

; 258  : 	}
; 259  : 
; 260  : 	UpdateWorldAttackBox( fTimePerSec, false );

  0013e	f3 0f 10 45 08	 movss	 xmm0, DWORD PTR _fTimePerSec$[ebp]
  00143	8b 06		 mov	 eax, DWORD PTR [esi]
  00145	53		 push	 ebx
  00146	51		 push	 ecx
  00147	8b ce		 mov	 ecx, esi
  00149	f3 0f 11 04 24	 movss	 DWORD PTR [esp], xmm0
  0014e	ff 90 38 01 00
	00		 call	 DWORD PTR [eax+312]

; 261  : 
; 262  : 	// Sync
; 263  : 	if( m_dwSyncTime == 0 || m_dwSyncTime < dwCurTime )

  00154	8b 86 30 09 00
	00		 mov	 eax, DWORD PTR [esi+2352]
  0015a	3b c3		 cmp	 eax, ebx
  0015c	74 0c		 je	 SHORT $LN2@Process
  0015e	3b 85 c8 7f ff
	ff		 cmp	 eax, DWORD PTR _dwCurTime$[ebp]
  00164	0f 83 d6 00 00
	00		 jae	 $LN1@Process
$LN2@Process:

; 264  : 	{
; 265  : 		if( pOwner->IsNeedSendNetwork() )

  0016a	8b 8d c4 7f ff
	ff		 mov	 ecx, DWORD PTR _pOwner$[ebp]
  00170	8b 01		 mov	 eax, DWORD PTR [ecx]
  00172	ff 90 04 01 00
	00		 call	 DWORD PTR [eax+260]
  00178	84 c0		 test	 al, al
  0017a	0f 84 c0 00 00
	00		 je	 $LN1@Process

; 266  : 		{
; 267  : 			SP2Packet kPacket( CUPK_WEAPON_SYNC );

  00180	68 16 42 00 00	 push	 16918			; 00004216H
  00185	8d 8d cc 7f ff
	ff		 lea	 ecx, DWORD PTR _kPacket$530767[ebp]
  0018b	e8 00 00 00 00	 call	 ??0SP2Packet@@QAE@K@Z	; SP2Packet::SP2Packet

; 268  : 			kPacket << GetOwnerName();

  00190	8d 46 10	 lea	 eax, DWORD PTR [esi+16]
  00193	50		 push	 eax
  00194	8d 8d cc 7f ff
	ff		 lea	 ecx, DWORD PTR _kPacket$530767[ebp]
  0019a	89 5d fc	 mov	 DWORD PTR __$EHRec$[ebp+8], ebx
  0019d	e8 00 00 00 00	 call	 ??6SP2Packet@@QAEAAV0@ABVioHashString@@@Z ; SP2Packet::operator<<

; 269  : 			kPacket << m_dwWeaponIdx;

  001a2	ff b6 b8 04 00
	00		 push	 DWORD PTR [esi+1208]
  001a8	8d 8d cc 7f ff
	ff		 lea	 ecx, DWORD PTR _kPacket$530767[ebp]
  001ae	e8 00 00 00 00	 call	 ??6SP2Packet@@QAEAAV0@K@Z ; SP2Packet::operator<<

; 270  : 			kPacket << STC_SYNC;

  001b3	6a 01		 push	 1
  001b5	8d 8d cc 7f ff
	ff		 lea	 ecx, DWORD PTR _kPacket$530767[ebp]
  001bb	e8 00 00 00 00	 call	 ??6SP2Packet@@QAEAAV0@H@Z ; SP2Packet::operator<<

; 271  : 			kPacket << GetPosition();

  001c0	8b 06		 mov	 eax, DWORD PTR [esi]
  001c2	8b ce		 mov	 ecx, esi
  001c4	ff 50 70	 call	 DWORD PTR [eax+112]
  001c7	50		 push	 eax
  001c8	8d 8d cc 7f ff
	ff		 lea	 ecx, DWORD PTR _kPacket$530767[ebp]
  001ce	e8 00 00 00 00	 call	 ??6SP2Packet@@QAEAAV0@ABUD3DXVECTOR3@@@Z ; SP2Packet::operator<<

; 272  : 			kPacket << GetOrientation();

  001d3	8b ce		 mov	 ecx, esi
  001d5	e8 00 00 00 00	 call	 ?GetOrientation@ioWeapon@@QBEABUD3DXQUATERNION@@XZ ; ioWeapon::GetOrientation
  001da	50		 push	 eax
  001db	8d 8d cc 7f ff
	ff		 lea	 ecx, DWORD PTR _kPacket$530767[ebp]
  001e1	e8 00 00 00 00	 call	 ??6SP2Packet@@QAEAAV0@ABUD3DXQUATERNION@@@Z ; SP2Packet::operator<<

; 273  : 			kPacket << GetMoveDir();

  001e6	8b 06		 mov	 eax, DWORD PTR [esi]
  001e8	8d 4d e4	 lea	 ecx, DWORD PTR $T530768[ebp]
  001eb	51		 push	 ecx
  001ec	8b ce		 mov	 ecx, esi
  001ee	ff 90 08 01 00
	00		 call	 DWORD PTR [eax+264]
  001f4	50		 push	 eax
  001f5	8d 8d cc 7f ff
	ff		 lea	 ecx, DWORD PTR _kPacket$530767[ebp]
  001fb	e8 00 00 00 00	 call	 ??6SP2Packet@@QAEAAV0@ABUD3DXVECTOR3@@@Z ; SP2Packet::operator<<

; 274  : 			kPacket << (int)m_ControlState;

  00200	ff b6 94 08 00
	00		 push	 DWORD PTR [esi+2196]
  00206	8d 8d cc 7f ff
	ff		 lea	 ecx, DWORD PTR _kPacket$530767[ebp]
  0020c	e8 00 00 00 00	 call	 ??6SP2Packet@@QAEAAV0@H@Z ; SP2Packet::operator<<

; 275  : 			P2PNetwork::SendToAllPlayingUser( kPacket );

  00211	8d 85 cc 7f ff
	ff		 lea	 eax, DWORD PTR _kPacket$530767[ebp]
  00217	53		 push	 ebx
  00218	50		 push	 eax
  00219	e8 00 00 00 00	 call	 ?SendToAllPlayingUser@P2PNetwork@@YAXAAVSP2Packet@@PAVioBaseChar@@@Z ; P2PNetwork::SendToAllPlayingUser

; 276  : 
; 277  : 			m_dwSyncTime = dwCurTime + 250;

  0021e	8b 85 c8 7f ff
	ff		 mov	 eax, DWORD PTR _dwCurTime$[ebp]

; 278  : 		}

  00224	83 4d fc ff	 or	 DWORD PTR __$EHRec$[ebp+8], -1
  00228	59		 pop	 ecx
  00229	59		 pop	 ecx
  0022a	05 fa 00 00 00	 add	 eax, 250		; 000000faH
  0022f	8d 8d cc 7f ff
	ff		 lea	 ecx, DWORD PTR _kPacket$530767[ebp]
  00235	89 86 30 09 00
	00		 mov	 DWORD PTR [esi+2352], eax
  0023b	e8 00 00 00 00	 call	 ??1SP2Packet@@UAE@XZ	; SP2Packet::~SP2Packet
$LN1@Process:

; 279  : 	}
; 280  : }

  00240	8b 4d f4	 mov	 ecx, DWORD PTR __$EHRec$[ebp]
  00243	64 89 0d 00 00
	00 00		 mov	 DWORD PTR fs:0, ecx
  0024a	59		 pop	 ecx
  0024b	5f		 pop	 edi
  0024c	5e		 pop	 esi
  0024d	5b		 pop	 ebx
  0024e	8b 4d f0	 mov	 ecx, DWORD PTR __$ArrayPad$[ebp]
  00251	33 cd		 xor	 ecx, ebp
  00253	e8 00 00 00 00	 call	 @__security_check_cookie@4
  00258	c9		 leave
  00259	c2 08 00	 ret	 8
_TEXT	ENDS
;	COMDAT text$x
text$x	SEGMENT
__unwindfunclet$?Process@ioControlMissileWeapon@@UAEXMPAVioPlayStage@@@Z$0:
  00000	8d 8d cc 7f ff
	ff		 lea	 ecx, DWORD PTR _kPacket$530767[ebp]
  00006	e9 00 00 00 00	 jmp	 ??1SP2Packet@@UAE@XZ	; SP2Packet::~SP2Packet
__ehhandler$?Process@ioControlMissileWeapon@@UAEXMPAVioPlayStage@@@Z:
  0000b	8b 54 24 08	 mov	 edx, DWORD PTR [esp+8]
  0000f	8d 42 0c	 lea	 eax, DWORD PTR [edx+12]
  00012	8b 8a c0 7f ff
	ff		 mov	 ecx, DWORD PTR [edx-32832]
  00018	33 c8		 xor	 ecx, eax
  0001a	e8 00 00 00 00	 call	 @__security_check_cookie@4
  0001f	8b 4a fc	 mov	 ecx, DWORD PTR [edx-4]
  00022	33 c8		 xor	 ecx, eax
  00024	e8 00 00 00 00	 call	 @__security_check_cookie@4
  00029	b8 00 00 00 00	 mov	 eax, OFFSET __ehfuncinfo$?Process@ioControlMissileWeapon@@UAEXMPAVioPlayStage@@@Z
  0002e	e9 00 00 00 00	 jmp	 ___CxxFrameHandler3
text$x	ENDS
?Process@ioControlMissileWeapon@@UAEXMPAVioPlayStage@@@Z ENDP ; ioControlMissileWeapon::Process
END
