; Listing generated by Microsoft (R) Optimizing Compiler Version 16.00.30319.01 

	TITLE	D:\Lost Saga For Developer\Youtube\Tutorial\Source\src\LSClient\GUI\ioCostumeRandomBox.cpp
	.686P
	.XMM
	include listing.inc
	.model	flat

INCLUDELIB MSVCRT
INCLUDELIB OLDNAMES

PUBLIC	??1tagCostumeInfo@@QAE@XZ			; tagCostumeInfo::~tagCostumeInfo
EXTRN	__imp_??1ioHashString@@QAE@XZ:PROC
EXTRN	___CxxFrameHandler3:PROC
EXTRN	@__security_check_cookie@4:PROC
EXTRN	__EH_epilog3:PROC
EXTRN	__EH_prolog3:PROC
;	COMDAT xdata$x
xdata$x	SEGMENT
__ehfuncinfo$??1tagCostumeInfo@@QAE@XZ DD 019930522H
	DD	08H
	DD	FLAT:__unwindtable$??1tagCostumeInfo@@QAE@XZ
	DD	2 DUP(00H)
	DD	2 DUP(00H)
	DD	00H
	DD	01H
__unwindtable$??1tagCostumeInfo@@QAE@XZ DD 0ffffffffH
	DD	FLAT:__unwindfunclet$??1tagCostumeInfo@@QAE@XZ$0
	DD	00H
	DD	FLAT:__unwindfunclet$??1tagCostumeInfo@@QAE@XZ$1
	DD	01H
	DD	FLAT:__unwindfunclet$??1tagCostumeInfo@@QAE@XZ$2
	DD	02H
	DD	FLAT:__unwindfunclet$??1tagCostumeInfo@@QAE@XZ$3
	DD	03H
	DD	FLAT:__unwindfunclet$??1tagCostumeInfo@@QAE@XZ$4
	DD	04H
	DD	FLAT:__unwindfunclet$??1tagCostumeInfo@@QAE@XZ$5
	DD	05H
	DD	FLAT:__unwindfunclet$??1tagCostumeInfo@@QAE@XZ$6
	DD	06H
	DD	FLAT:__unwindfunclet$??1tagCostumeInfo@@QAE@XZ$7
; Function compile flags: /Ogsp
xdata$x	ENDS
;	COMDAT ??1tagCostumeInfo@@QAE@XZ
_TEXT	SEGMENT
_this$ = -16						; size = 4
__$EHRec$ = -12						; size = 12
??1tagCostumeInfo@@QAE@XZ PROC				; tagCostumeInfo::~tagCostumeInfo, COMDAT
; _this$ = ecx
  00000	6a 04		 push	 4
  00002	b8 00 00 00 00	 mov	 eax, __ehhandler$??1tagCostumeInfo@@QAE@XZ
  00007	e8 00 00 00 00	 call	 __EH_prolog3
  0000c	8b f9		 mov	 edi, ecx
  0000e	89 7d f0	 mov	 DWORD PTR _this$[ebp], edi
  00011	8b 35 00 00 00
	00		 mov	 esi, DWORD PTR __imp_??1ioHashString@@QAE@XZ
  00017	8d 8f b8 00 00
	00		 lea	 ecx, DWORD PTR [edi+184]
  0001d	c7 45 fc 07 00
	00 00		 mov	 DWORD PTR __$EHRec$[ebp+8], 7
  00024	ff d6		 call	 esi
  00026	8d 8f a8 00 00
	00		 lea	 ecx, DWORD PTR [edi+168]
  0002c	c6 45 fc 06	 mov	 BYTE PTR __$EHRec$[ebp+8], 6
  00030	ff d6		 call	 esi
  00032	8d 8f 94 00 00
	00		 lea	 ecx, DWORD PTR [edi+148]
  00038	c6 45 fc 05	 mov	 BYTE PTR __$EHRec$[ebp+8], 5
  0003c	ff d6		 call	 esi
  0003e	8d 8f 84 00 00
	00		 lea	 ecx, DWORD PTR [edi+132]
  00044	c6 45 fc 04	 mov	 BYTE PTR __$EHRec$[ebp+8], 4
  00048	ff d6		 call	 esi
  0004a	8d 4f 60	 lea	 ecx, DWORD PTR [edi+96]
  0004d	c6 45 fc 03	 mov	 BYTE PTR __$EHRec$[ebp+8], 3
  00051	ff d6		 call	 esi
  00053	8d 4f 50	 lea	 ecx, DWORD PTR [edi+80]
  00056	c6 45 fc 02	 mov	 BYTE PTR __$EHRec$[ebp+8], 2
  0005a	ff d6		 call	 esi
  0005c	8d 4f 38	 lea	 ecx, DWORD PTR [edi+56]
  0005f	c6 45 fc 01	 mov	 BYTE PTR __$EHRec$[ebp+8], 1
  00063	ff d6		 call	 esi
  00065	8d 4f 28	 lea	 ecx, DWORD PTR [edi+40]
  00068	c6 45 fc 00	 mov	 BYTE PTR __$EHRec$[ebp+8], 0
  0006c	ff d6		 call	 esi
  0006e	83 4d fc ff	 or	 DWORD PTR __$EHRec$[ebp+8], -1
  00072	8d 4f 18	 lea	 ecx, DWORD PTR [edi+24]
  00075	ff d6		 call	 esi
  00077	e8 00 00 00 00	 call	 __EH_epilog3
  0007c	c3		 ret	 0
_TEXT	ENDS
;	COMDAT text$x
text$x	SEGMENT
__unwindfunclet$??1tagCostumeInfo@@QAE@XZ$0:
  00000	8b 4d f0	 mov	 ecx, DWORD PTR _this$[ebp]
  00003	83 c1 18	 add	 ecx, 24			; 00000018H
  00006	ff 25 00 00 00
	00		 jmp	 DWORD PTR __imp_??1ioHashString@@QAE@XZ
__unwindfunclet$??1tagCostumeInfo@@QAE@XZ$1:
  0000c	8b 4d f0	 mov	 ecx, DWORD PTR _this$[ebp]
  0000f	83 c1 28	 add	 ecx, 40			; 00000028H
  00012	ff 25 00 00 00
	00		 jmp	 DWORD PTR __imp_??1ioHashString@@QAE@XZ
__unwindfunclet$??1tagCostumeInfo@@QAE@XZ$2:
  00018	8b 4d f0	 mov	 ecx, DWORD PTR _this$[ebp]
  0001b	83 c1 38	 add	 ecx, 56			; 00000038H
  0001e	ff 25 00 00 00
	00		 jmp	 DWORD PTR __imp_??1ioHashString@@QAE@XZ
__unwindfunclet$??1tagCostumeInfo@@QAE@XZ$3:
  00024	8b 4d f0	 mov	 ecx, DWORD PTR _this$[ebp]
  00027	83 c1 50	 add	 ecx, 80			; 00000050H
  0002a	ff 25 00 00 00
	00		 jmp	 DWORD PTR __imp_??1ioHashString@@QAE@XZ
__unwindfunclet$??1tagCostumeInfo@@QAE@XZ$4:
  00030	8b 4d f0	 mov	 ecx, DWORD PTR _this$[ebp]
  00033	83 c1 60	 add	 ecx, 96			; 00000060H
  00036	ff 25 00 00 00
	00		 jmp	 DWORD PTR __imp_??1ioHashString@@QAE@XZ
__unwindfunclet$??1tagCostumeInfo@@QAE@XZ$5:
  0003c	8b 4d f0	 mov	 ecx, DWORD PTR _this$[ebp]
  0003f	81 c1 84 00 00
	00		 add	 ecx, 132		; 00000084H
  00045	ff 25 00 00 00
	00		 jmp	 DWORD PTR __imp_??1ioHashString@@QAE@XZ
__unwindfunclet$??1tagCostumeInfo@@QAE@XZ$6:
  0004b	8b 4d f0	 mov	 ecx, DWORD PTR _this$[ebp]
  0004e	81 c1 94 00 00
	00		 add	 ecx, 148		; 00000094H
  00054	ff 25 00 00 00
	00		 jmp	 DWORD PTR __imp_??1ioHashString@@QAE@XZ
__unwindfunclet$??1tagCostumeInfo@@QAE@XZ$7:
  0005a	8b 4d f0	 mov	 ecx, DWORD PTR _this$[ebp]
  0005d	81 c1 a8 00 00
	00		 add	 ecx, 168		; 000000a8H
  00063	ff 25 00 00 00
	00		 jmp	 DWORD PTR __imp_??1ioHashString@@QAE@XZ
__ehhandler$??1tagCostumeInfo@@QAE@XZ:
  00069	8b 54 24 08	 mov	 edx, DWORD PTR [esp+8]
  0006d	8d 42 0c	 lea	 eax, DWORD PTR [edx+12]
  00070	8b 4a ec	 mov	 ecx, DWORD PTR [edx-20]
  00073	33 c8		 xor	 ecx, eax
  00075	e8 00 00 00 00	 call	 @__security_check_cookie@4
  0007a	b8 00 00 00 00	 mov	 eax, OFFSET __ehfuncinfo$??1tagCostumeInfo@@QAE@XZ
  0007f	e9 00 00 00 00	 jmp	 ___CxxFrameHandler3
text$x	ENDS
??1tagCostumeInfo@@QAE@XZ ENDP				; tagCostumeInfo::~tagCostumeInfo
PUBLIC	??_7bad_alloc@std@@6B@				; std::bad_alloc::`vftable'
PUBLIC	??0bad_alloc@std@@QAE@PBD@Z			; std::bad_alloc::bad_alloc
PUBLIC	??_R4bad_alloc@std@@6B@				; std::bad_alloc::`RTTI Complete Object Locator'
PUBLIC	??_R0?AVbad_alloc@std@@@8			; std::bad_alloc `RTTI Type Descriptor'
PUBLIC	??_R3bad_alloc@std@@8				; std::bad_alloc::`RTTI Class Hierarchy Descriptor'
PUBLIC	??_R2bad_alloc@std@@8				; std::bad_alloc::`RTTI Base Class Array'
PUBLIC	??_R1A@?0A@EA@bad_alloc@std@@8			; std::bad_alloc::`RTTI Base Class Descriptor at (0,-1,0,64)'
PUBLIC	??_R1A@?0A@EA@exception@std@@8			; std::exception::`RTTI Base Class Descriptor at (0,-1,0,64)'
PUBLIC	??_R0?AVexception@std@@@8			; std::exception `RTTI Type Descriptor'
PUBLIC	??_R3exception@std@@8				; std::exception::`RTTI Class Hierarchy Descriptor'
PUBLIC	??_R2exception@std@@8				; std::exception::`RTTI Base Class Array'
EXTRN	__imp_??0exception@std@@QAE@ABQBD@Z:PROC
EXTRN	??_7type_info@@6B@:QWORD			; type_info::`vftable'
EXTRN	??_Ebad_alloc@std@@UAEPAXI@Z:PROC		; std::bad_alloc::`vector deleting destructor'
EXTRN	?what@exception@std@@UBEPBDXZ:PROC		; std::exception::what
;	COMDAT ??_R2exception@std@@8
; File c:\program files (x86)\microsoft visual studio 10.0\vc\include\exception
rdata$r	SEGMENT
??_R2exception@std@@8 DD FLAT:??_R1A@?0A@EA@exception@std@@8 ; std::exception::`RTTI Base Class Array'
rdata$r	ENDS
;	COMDAT ??_R3exception@std@@8
rdata$r	SEGMENT
??_R3exception@std@@8 DD 00H				; std::exception::`RTTI Class Hierarchy Descriptor'
	DD	00H
	DD	01H
	DD	FLAT:??_R2exception@std@@8
rdata$r	ENDS
;	COMDAT ??_R0?AVexception@std@@@8
_DATA	SEGMENT
??_R0?AVexception@std@@@8 DD FLAT:??_7type_info@@6B@	; std::exception `RTTI Type Descriptor'
	DD	00H
	DB	'.?AVexception@std@@', 00H
_DATA	ENDS
;	COMDAT ??_R1A@?0A@EA@exception@std@@8
rdata$r	SEGMENT
??_R1A@?0A@EA@exception@std@@8 DD FLAT:??_R0?AVexception@std@@@8 ; std::exception::`RTTI Base Class Descriptor at (0,-1,0,64)'
	DD	00H
	DD	00H
	DD	0ffffffffH
	DD	00H
	DD	040H
	DD	FLAT:??_R3exception@std@@8
rdata$r	ENDS
;	COMDAT ??_R1A@?0A@EA@bad_alloc@std@@8
rdata$r	SEGMENT
??_R1A@?0A@EA@bad_alloc@std@@8 DD FLAT:??_R0?AVbad_alloc@std@@@8 ; std::bad_alloc::`RTTI Base Class Descriptor at (0,-1,0,64)'
	DD	01H
	DD	00H
	DD	0ffffffffH
	DD	00H
	DD	040H
	DD	FLAT:??_R3bad_alloc@std@@8
rdata$r	ENDS
;	COMDAT ??_R2bad_alloc@std@@8
rdata$r	SEGMENT
??_R2bad_alloc@std@@8 DD FLAT:??_R1A@?0A@EA@bad_alloc@std@@8 ; std::bad_alloc::`RTTI Base Class Array'
	DD	FLAT:??_R1A@?0A@EA@exception@std@@8
rdata$r	ENDS
;	COMDAT ??_R3bad_alloc@std@@8
rdata$r	SEGMENT
??_R3bad_alloc@std@@8 DD 00H				; std::bad_alloc::`RTTI Class Hierarchy Descriptor'
	DD	00H
	DD	02H
	DD	FLAT:??_R2bad_alloc@std@@8
rdata$r	ENDS
;	COMDAT ??_R0?AVbad_alloc@std@@@8
_DATA	SEGMENT
??_R0?AVbad_alloc@std@@@8 DD FLAT:??_7type_info@@6B@	; std::bad_alloc `RTTI Type Descriptor'
	DD	00H
	DB	'.?AVbad_alloc@std@@', 00H
_DATA	ENDS
;	COMDAT ??_R4bad_alloc@std@@6B@
rdata$r	SEGMENT
??_R4bad_alloc@std@@6B@ DD 00H				; std::bad_alloc::`RTTI Complete Object Locator'
	DD	00H
	DD	00H
	DD	FLAT:??_R0?AVbad_alloc@std@@@8
	DD	FLAT:??_R3bad_alloc@std@@8
rdata$r	ENDS
;	COMDAT ??_7bad_alloc@std@@6B@
CONST	SEGMENT
??_7bad_alloc@std@@6B@ DD FLAT:??_R4bad_alloc@std@@6B@	; std::bad_alloc::`vftable'
	DD	FLAT:??_Ebad_alloc@std@@UAEPAXI@Z
	DD	FLAT:?what@exception@std@@UBEPBDXZ
; Function compile flags: /Ogsp
CONST	ENDS
;	COMDAT ??0bad_alloc@std@@QAE@PBD@Z
_TEXT	SEGMENT
__Message$ = 8						; size = 4
??0bad_alloc@std@@QAE@PBD@Z PROC			; std::bad_alloc::bad_alloc, COMDAT
; _this$ = ecx

; 345  : 		{	// construct from message string

  00000	55		 push	 ebp
  00001	8b ec		 mov	 ebp, esp
  00003	56		 push	 esi
  00004	8d 45 08	 lea	 eax, DWORD PTR __Message$[ebp]
  00007	50		 push	 eax
  00008	8b f1		 mov	 esi, ecx
  0000a	ff 15 00 00 00
	00		 call	 DWORD PTR __imp_??0exception@std@@QAE@ABQBD@Z
  00010	c7 06 00 00 00
	00		 mov	 DWORD PTR [esi], OFFSET ??_7bad_alloc@std@@6B@

; 346  : 		}

  00016	8b c6		 mov	 eax, esi
  00018	5e		 pop	 esi
  00019	5d		 pop	 ebp
  0001a	c2 04 00	 ret	 4
??0bad_alloc@std@@QAE@PBD@Z ENDP			; std::bad_alloc::bad_alloc
_TEXT	ENDS
PUBLIC	??1bad_alloc@std@@UAE@XZ			; std::bad_alloc::~bad_alloc
EXTRN	__imp_??1exception@std@@UAE@XZ:PROC
; Function compile flags: /Ogsp
;	COMDAT ??1bad_alloc@std@@UAE@XZ
_TEXT	SEGMENT
??1bad_alloc@std@@UAE@XZ PROC				; std::bad_alloc::~bad_alloc, COMDAT
; _this$ = ecx

; 354  : 		{	// destroy the object

  00000	c7 01 00 00 00
	00		 mov	 DWORD PTR [ecx], OFFSET ??_7bad_alloc@std@@6B@

; 355  : 		}

  00006	ff 25 00 00 00
	00		 jmp	 DWORD PTR __imp_??1exception@std@@UAE@XZ
??1bad_alloc@std@@UAE@XZ ENDP				; std::bad_alloc::~bad_alloc
_TEXT	ENDS
EXTRN	??3@YAXPAX@Z:PROC				; operator delete
; Function compile flags: /Ogsp
;	COMDAT ??_Gbad_alloc@std@@UAEPAXI@Z
_TEXT	SEGMENT
___flags$ = 8						; size = 4
??_Gbad_alloc@std@@UAEPAXI@Z PROC			; std::bad_alloc::`scalar deleting destructor', COMDAT
; _this$ = ecx
  00000	55		 push	 ebp
  00001	8b ec		 mov	 ebp, esp
  00003	56		 push	 esi
  00004	8b f1		 mov	 esi, ecx
  00006	c7 06 00 00 00
	00		 mov	 DWORD PTR [esi], OFFSET ??_7bad_alloc@std@@6B@
  0000c	ff 15 00 00 00
	00		 call	 DWORD PTR __imp_??1exception@std@@UAE@XZ
  00012	f6 45 08 01	 test	 BYTE PTR ___flags$[ebp], 1
  00016	74 07		 je	 SHORT $LN1@scalar
  00018	56		 push	 esi
  00019	e8 00 00 00 00	 call	 ??3@YAXPAX@Z		; operator delete
  0001e	59		 pop	 ecx
$LN1@scalar:
  0001f	8b c6		 mov	 eax, esi
  00021	5e		 pop	 esi
  00022	5d		 pop	 ebp
  00023	c2 04 00	 ret	 4
??_Gbad_alloc@std@@UAEPAXI@Z ENDP			; std::bad_alloc::`scalar deleting destructor'
_TEXT	ENDS
PUBLIC	??_C@_05EHMBKEBF@?$DP?$DP?$DP?$DP?$DP?$AA@	; `string'
PUBLIC	__real@3f19999a
PUBLIC	__real@3f59999a
PUBLIC	??_C@_0BN@NEAKHDLC@ioCostumeRandomBox?3?3OnRender?$AA@ ; `string'
PUBLIC	??_C@_00CNPNBAHC@?$AA@				; `string'
PUBLIC	__real@40000000
PUBLIC	_this$GSCopy$
PUBLIC	?OnRender@ioCostumeRandomBox@@MAEXXZ		; ioCostumeRandomBox::OnRender
EXTRN	??_M@YGXPAXIHP6EX0@Z@Z:PROC			; `eh vector destructor iterator'
EXTRN	?PrintFullText@ioComplexStringPrinter@@QAEXMMW4TextAlignType@@E@Z:PROC ; ioComplexStringPrinter::PrintFullText
EXTRN	?AddTextPiece@ioComplexStringPrinter@@QAAXMPBDZZ:PROC ; ioComplexStringPrinter::AddTextPiece
EXTRN	__imp_?c_str@ioHashString@@QBEPBDXZ:PROC
EXTRN	?SetTextColor@ioComplexStringPrinter@@QAEXK@Z:PROC ; ioComplexStringPrinter::SetTextColor
EXTRN	?SetBkColor@ioComplexStringPrinter@@QAEXHHH@Z:PROC ; ioComplexStringPrinter::SetBkColor
EXTRN	?SetTextStyle@ioComplexStringPrinter@@QAEXW4TextStyle@@@Z:PROC ; ioComplexStringPrinter::SetTextStyle
EXTRN	?ClearList@ioComplexStringPrinter@@QAEXXZ:PROC	; ioComplexStringPrinter::ClearList
EXTRN	__imp_??4ioHashString@@QAEAAV0@PBD@Z:PROC
EXTRN	__imp_?SafeSprintf@@YAXPADHPBDH@Z:PROC
EXTRN	__imp_?SafeSprintf@@YAXPADHPBDZZ:PROC
EXTRN	__imp_??4ioHashString@@QAEAAV0@ABV0@@Z:PROC
EXTRN	__imp_?IsEmpty@ioHashString@@QBE_NXZ:PROC
EXTRN	__imp_??0ioHashString@@QAE@PBD@Z:PROC
EXTRN	??_L@YGXPAXIHP6EX0@Z1@Z:PROC			; `eh vector constructor iterator'
EXTRN	??0ioComplexStringPrinter@@QAE@XZ:PROC		; ioComplexStringPrinter::ioComplexStringPrinter
EXTRN	??1ioComplexStringPrinter@@QAE@XZ:PROC		; ioComplexStringPrinter::~ioComplexStringPrinter
EXTRN	__imp_?PrintText@ioFontManager@@QAAXMMMPBDZZ:PROC
EXTRN	__imp_?GetString@ioStringManager@@QAEPADPBD0HW4FileNamePrefix@1@@Z:PROC
EXTRN	__imp_?GetSingleton@ioStringManager@@SAAAV1@XZ:PROC
EXTRN	__imp_?SetTextColor@ioFontManager@@QAEXK@Z:PROC
EXTRN	__imp_?SetBkColor@ioFontManager@@QAEXHHH@Z:PROC
EXTRN	__imp_?SetAlignType@ioFontManager@@QAEXW4TextAlignType@@@Z:PROC
EXTRN	__imp_?SetTextStyle@ioFontManager@@QAEXW4TextStyle@@@Z:PROC
EXTRN	__imp_?GetSingleton@ioFontManager@@SAAAV1@XZ:PROC
EXTRN	__imp_?GetDerivedPosY@ioWnd@@QBEHXZ:PROC
EXTRN	__imp_?GetDerivedPosX@ioWnd@@QBEHXZ:PROC
EXTRN	__imp_?OnRender@ioWnd@@MAEXXZ:PROC
EXTRN	__fltused:DWORD
EXTRN	__EH_epilog3_GS:PROC
EXTRN	__EH_prolog3_GS:PROC
EXTRN	_memset:PROC
;	COMDAT ??_C@_05EHMBKEBF@?$DP?$DP?$DP?$DP?$DP?$AA@
; File d:\lost saga for developer\youtube\tutorial\source\src\lsclient\gui\iocostumerandombox.cpp
CONST	SEGMENT
??_C@_05EHMBKEBF@?$DP?$DP?$DP?$DP?$DP?$AA@ DB '?????', 00H ; `string'
CONST	ENDS
;	COMDAT __real@3f19999a
CONST	SEGMENT
__real@3f19999a DD 03f19999ar			; 0.6
CONST	ENDS
;	COMDAT __real@3f59999a
CONST	SEGMENT
__real@3f59999a DD 03f59999ar			; 0.85
CONST	ENDS
;	COMDAT ??_C@_0BN@NEAKHDLC@ioCostumeRandomBox?3?3OnRender?$AA@
CONST	SEGMENT
??_C@_0BN@NEAKHDLC@ioCostumeRandomBox?3?3OnRender?$AA@ DB 'ioCostumeRando'
	DB	'mBox::OnRender', 00H			; `string'
CONST	ENDS
;	COMDAT ??_C@_00CNPNBAHC@?$AA@
CONST	SEGMENT
??_C@_00CNPNBAHC@?$AA@ DB 00H				; `string'
CONST	ENDS
;	COMDAT __real@40000000
CONST	SEGMENT
__real@40000000 DD 040000000r			; 2
CONST	ENDS
;	COMDAT xdata$x
xdata$x	SEGMENT
__unwindtable$?OnRender@ioCostumeRandomBox@@MAEXXZ DD 0ffffffffH
	DD	FLAT:__unwindfunclet$?OnRender@ioCostumeRandomBox@@MAEXXZ$0
	DD	00H
	DD	FLAT:__unwindfunclet$?OnRender@ioCostumeRandomBox@@MAEXXZ$1
	DD	01H
	DD	FLAT:__unwindfunclet$?OnRender@ioCostumeRandomBox@@MAEXXZ$2
__ehfuncinfo$?OnRender@ioCostumeRandomBox@@MAEXXZ DD 019930522H
	DD	03H
	DD	FLAT:__unwindtable$?OnRender@ioCostumeRandomBox@@MAEXXZ
	DD	2 DUP(00H)
	DD	2 DUP(00H)
	DD	00H
	DD	01H
; Function compile flags: /Ogsp
xdata$x	ENDS
;	COMDAT ?OnRender@ioCostumeRandomBox@@MAEXXZ
_TEXT	SEGMENT
_kPrinter$ = -384					; size = 64
_szName$ = -320						; size = 16
_szDesc$ = -304						; size = 16
tv584 = -288						; size = 4
tv527 = -284						; size = 4
_this$GSCopy$ = -284					; size = 4
_iXPos$ = -280						; size = 4
_szBuf$506122 = -276					; size = 260
__$EHRec$ = -12						; size = 12
?OnRender@ioCostumeRandomBox@@MAEXXZ PROC		; ioCostumeRandomBox::OnRender, COMDAT
; _this$ = ecx

; 285  : {

  00000	68 74 01 00 00	 push	 372			; 00000174H
  00005	b8 00 00 00 00	 mov	 eax, __ehhandler$?OnRender@ioCostumeRandomBox@@MAEXXZ
  0000a	e8 00 00 00 00	 call	 __EH_prolog3_GS
  0000f	8b f1		 mov	 esi, ecx

; 286  : 	ioWnd::OnRender();
; 287  : 
; 288  : 	int iXPos = GetDerivedPosX();

  00011	89 b5 e4 fe ff
	ff		 mov	 DWORD PTR _this$GSCopy$[ebp], esi
  00017	ff 15 00 00 00
	00		 call	 DWORD PTR __imp_?OnRender@ioWnd@@MAEXXZ
  0001d	8b ce		 mov	 ecx, esi
  0001f	ff 15 00 00 00
	00		 call	 DWORD PTR __imp_?GetDerivedPosX@ioWnd@@QBEHXZ

; 289  : 	int iYPos = GetDerivedPosY();

  00025	8b ce		 mov	 ecx, esi
  00027	89 85 e8 fe ff
	ff		 mov	 DWORD PTR _iXPos$[ebp], eax
  0002d	ff 15 00 00 00
	00		 call	 DWORD PTR __imp_?GetDerivedPosY@ioWnd@@QBEHXZ

; 290  : 
; 291  : 	enum
; 292  : 	{
; 293  : 		ICON_X		= 129,
; 294  : 		ICON_Y		= 105,
; 295  : 
; 296  : 		DESC_BIG_X	= 129,
; 297  : 		DESC_BIG_Y	= 152,
; 298  : 
; 299  : 		DESC_X		= 27,
; 300  : 		DESC_Y		= 206,
; 301  : 
; 302  : 		FINAL_DESC_X	= 128,
; 303  : 		FINAL_DESC_Y	= 421,
; 304  : 	};
; 305  : 
; 306  : 	// Back
; 307  : 	if( m_bFinalResult )

  00033	33 db		 xor	 ebx, ebx
  00035	8b f8		 mov	 edi, eax
  00037	38 9e bd 01 00
	00		 cmp	 BYTE PTR [esi+445], bl
  0003d	74 10		 je	 SHORT $LN15@OnRender

; 308  : 	{
; 309  : 		if( m_pFinalBackEffect )

  0003f	39 9e 6c 01 00
	00		 cmp	 DWORD PTR [esi+364], ebx
  00045	74 49		 je	 SHORT $LN12@OnRender

; 310  : 			m_pFinalBackEffect->Render( iXPos+ICON_X, iYPos+ICON_Y, UI_RENDER_MULTIPLY );

  00047	8b 8e 6c 01 00
	00		 mov	 ecx, DWORD PTR [esi+364]

; 311  : 	}
; 312  : 	else

  0004d	eb 0e		 jmp	 SHORT $LN23@OnRender
$LN15@OnRender:

; 313  : 	{
; 314  : 		if( m_pBackEffect )

  0004f	39 9e 68 01 00
	00		 cmp	 DWORD PTR [esi+360], ebx
  00055	74 39		 je	 SHORT $LN12@OnRender

; 315  : 			m_pBackEffect->Render( iXPos+ICON_X, iYPos+ICON_Y, UI_RENDER_MULTIPLY );

  00057	8b 8e 68 01 00
	00		 mov	 ecx, DWORD PTR [esi+360]
$LN23@OnRender:
  0005d	8b 01		 mov	 eax, DWORD PTR [ecx]
  0005f	53		 push	 ebx
  00060	53		 push	 ebx
  00061	53		 push	 ebx
  00062	6a 08		 push	 8
  00064	0f 57 c0	 xorps	 xmm0, xmm0
  00067	8d 57 69	 lea	 edx, DWORD PTR [edi+105]
  0006a	f3 0f 2a c2	 cvtsi2ss xmm0, edx
  0006e	8b 95 e8 fe ff
	ff		 mov	 edx, DWORD PTR _iXPos$[ebp]
  00074	51		 push	 ecx
  00075	51		 push	 ecx
  00076	f3 0f 11 44 24
	04		 movss	 DWORD PTR [esp+4], xmm0
  0007c	81 c2 81 00 00
	00		 add	 edx, 129		; 00000081H
  00082	0f 57 c0	 xorps	 xmm0, xmm0
  00085	f3 0f 2a c2	 cvtsi2ss xmm0, edx
  00089	f3 0f 11 04 24	 movss	 DWORD PTR [esp], xmm0
  0008e	ff 10		 call	 DWORD PTR [eax]
$LN12@OnRender:

; 316  : 	}
; 317  : 
; 318  : 	// Icon
; 319  : 	if( m_pIcon )

  00090	39 9e 60 01 00
	00		 cmp	 DWORD PTR [esi+352], ebx
  00096	74 39		 je	 SHORT $LN11@OnRender

; 320  : 	{
; 321  : 		m_pIcon->Render( iXPos+ICON_X, iYPos+ICON_Y, UI_RENDER_NORMAL, TFO_BILINEAR );

  00098	8b 8e 60 01 00
	00		 mov	 ecx, DWORD PTR [esi+352]
  0009e	8b 01		 mov	 eax, DWORD PTR [ecx]
  000a0	53		 push	 ebx
  000a1	53		 push	 ebx
  000a2	6a 01		 push	 1
  000a4	53		 push	 ebx
  000a5	0f 57 c0	 xorps	 xmm0, xmm0
  000a8	8d 57 69	 lea	 edx, DWORD PTR [edi+105]
  000ab	f3 0f 2a c2	 cvtsi2ss xmm0, edx
  000af	8b 95 e8 fe ff
	ff		 mov	 edx, DWORD PTR _iXPos$[ebp]
  000b5	51		 push	 ecx
  000b6	51		 push	 ecx
  000b7	f3 0f 11 44 24
	04		 movss	 DWORD PTR [esp+4], xmm0
  000bd	81 c2 81 00 00
	00		 add	 edx, 129		; 00000081H
  000c3	0f 57 c0	 xorps	 xmm0, xmm0
  000c6	f3 0f 2a c2	 cvtsi2ss xmm0, edx
  000ca	f3 0f 11 04 24	 movss	 DWORD PTR [esp], xmm0
  000cf	ff 10		 call	 DWORD PTR [eax]
$LN11@OnRender:

; 322  : 	}
; 323  : 
; 324  : 	// UI内胶片 包访 (内胶片 付农)
; 325  : 	if( m_pCostumeMark )

  000d1	39 9e 70 01 00
	00		 cmp	 DWORD PTR [esi+368], ebx
  000d7	74 39		 je	 SHORT $LN10@OnRender

; 326  : 		m_pCostumeMark->Render( iXPos+ICON_X, iYPos+ICON_Y, UI_RENDER_NORMAL, TFO_BILINEAR );

  000d9	8b 8e 70 01 00
	00		 mov	 ecx, DWORD PTR [esi+368]
  000df	8b 01		 mov	 eax, DWORD PTR [ecx]
  000e1	53		 push	 ebx
  000e2	53		 push	 ebx
  000e3	6a 01		 push	 1
  000e5	53		 push	 ebx
  000e6	0f 57 c0	 xorps	 xmm0, xmm0
  000e9	8d 57 69	 lea	 edx, DWORD PTR [edi+105]
  000ec	f3 0f 2a c2	 cvtsi2ss xmm0, edx
  000f0	8b 95 e8 fe ff
	ff		 mov	 edx, DWORD PTR _iXPos$[ebp]
  000f6	51		 push	 ecx
  000f7	51		 push	 ecx
  000f8	f3 0f 11 44 24
	04		 movss	 DWORD PTR [esp+4], xmm0
  000fe	81 c2 81 00 00
	00		 add	 edx, 129		; 00000081H
  00104	0f 57 c0	 xorps	 xmm0, xmm0
  00107	f3 0f 2a c2	 cvtsi2ss xmm0, edx
  0010b	f3 0f 11 04 24	 movss	 DWORD PTR [esp], xmm0
  00110	ff 10		 call	 DWORD PTR [eax]
$LN10@OnRender:

; 327  : 
; 328  : 	// Effect
; 329  : 	if( m_pEffect )

  00112	39 9e 64 01 00
	00		 cmp	 DWORD PTR [esi+356], ebx
  00118	74 52		 je	 SHORT $LN9@OnRender

; 330  : 	{
; 331  : 		m_pEffect->SetScale( 2.0f );

  0011a	8b 8e 64 01 00
	00		 mov	 ecx, DWORD PTR [esi+356]
  00120	f3 0f 10 05 00
	00 00 00	 movss	 xmm0, DWORD PTR __real@40000000
  00128	8b 01		 mov	 eax, DWORD PTR [ecx]
  0012a	51		 push	 ecx
  0012b	f3 0f 11 04 24	 movss	 DWORD PTR [esp], xmm0
  00130	ff 50 1c	 call	 DWORD PTR [eax+28]

; 332  : 		m_pEffect->Render( iXPos+ICON_X, iYPos+ICON_Y, UI_RENDER_ADD );

  00133	8b 8e 64 01 00
	00		 mov	 ecx, DWORD PTR [esi+356]
  00139	8b 01		 mov	 eax, DWORD PTR [ecx]
  0013b	53		 push	 ebx
  0013c	53		 push	 ebx
  0013d	53		 push	 ebx
  0013e	6a 03		 push	 3
  00140	0f 57 c0	 xorps	 xmm0, xmm0
  00143	8d 57 69	 lea	 edx, DWORD PTR [edi+105]
  00146	f3 0f 2a c2	 cvtsi2ss xmm0, edx
  0014a	8b 95 e8 fe ff
	ff		 mov	 edx, DWORD PTR _iXPos$[ebp]
  00150	51		 push	 ecx
  00151	51		 push	 ecx
  00152	f3 0f 11 44 24
	04		 movss	 DWORD PTR [esp+4], xmm0
  00158	81 c2 81 00 00
	00		 add	 edx, 129		; 00000081H
  0015e	0f 57 c0	 xorps	 xmm0, xmm0
  00161	f3 0f 2a c2	 cvtsi2ss xmm0, edx
  00165	f3 0f 11 04 24	 movss	 DWORD PTR [esp], xmm0
  0016a	ff 10		 call	 DWORD PTR [eax]
$LN9@OnRender:

; 333  : 	}
; 334  : 	
; 335  : 	if( m_bFinalResult )

  0016c	38 9e bd 01 00
	00		 cmp	 BYTE PTR [esi+445], bl

; 336  : 	{
; 337  : 		g_FontMgr.SetTextStyle( TS_NORMAL );

  00172	8b 35 00 00 00
	00		 mov	 esi, DWORD PTR __imp_?GetSingleton@ioFontManager@@SAAAV1@XZ
  00178	53		 push	 ebx
  00179	0f 84 87 00 00
	00		 je	 $LN8@OnRender
  0017f	ff d6		 call	 esi
  00181	8b c8		 mov	 ecx, eax
  00183	ff 15 00 00 00
	00		 call	 DWORD PTR __imp_?SetTextStyle@ioFontManager@@QAEXW4TextStyle@@@Z

; 338  : 		g_FontMgr.SetAlignType( TAT_CENTER );

  00189	6a 01		 push	 1
  0018b	ff d6		 call	 esi
  0018d	8b c8		 mov	 ecx, eax
  0018f	ff 15 00 00 00
	00		 call	 DWORD PTR __imp_?SetAlignType@ioFontManager@@QAEXW4TextAlignType@@@Z

; 339  : 		g_FontMgr.SetBkColor( 0, 0, 0 );

  00195	53		 push	 ebx
  00196	53		 push	 ebx
  00197	53		 push	 ebx
  00198	ff d6		 call	 esi
  0019a	8b c8		 mov	 ecx, eax
  0019c	ff 15 00 00 00
	00		 call	 DWORD PTR __imp_?SetBkColor@ioFontManager@@QAEXHHH@Z

; 340  : 		g_FontMgr.SetTextColor( TCT_DEFAULT_GREEN );

  001a2	68 22 72 11 ff	 push	 -15633886		; ff117222H
  001a7	ff d6		 call	 esi
  001a9	8b c8		 mov	 ecx, eax
  001ab	ff 15 00 00 00
	00		 call	 DWORD PTR __imp_?SetTextColor@ioFontManager@@QAEXK@Z

; 341  : 		g_FontMgr.PrintText( iXPos+FINAL_DESC_X, iYPos+FINAL_DESC_Y, FONT_SIZE_17, STR(1) );

  001b1	53		 push	 ebx
  001b2	6a 01		 push	 1
  001b4	68 00 00 00 00	 push	 OFFSET ??_C@_00CNPNBAHC@?$AA@
  001b9	68 00 00 00 00	 push	 OFFSET ??_C@_0BN@NEAKHDLC@ioCostumeRandomBox?3?3OnRender?$AA@
  001be	ff 15 00 00 00
	00		 call	 DWORD PTR __imp_?GetSingleton@ioStringManager@@SAAAV1@XZ
  001c4	8b c8		 mov	 ecx, eax
  001c6	ff 15 00 00 00
	00		 call	 DWORD PTR __imp_?GetString@ioStringManager@@QAEPADPBD0HW4FileNamePrefix@1@@Z
  001cc	f3 0f 10 05 00
	00 00 00	 movss	 xmm0, DWORD PTR __real@3f59999a
  001d4	50		 push	 eax
  001d5	83 ec 0c	 sub	 esp, 12			; 0000000cH
  001d8	f3 0f 11 44 24
	08		 movss	 DWORD PTR [esp+8], xmm0
  001de	8d 87 a5 01 00
	00		 lea	 eax, DWORD PTR [edi+421]
  001e4	0f 57 c0	 xorps	 xmm0, xmm0
  001e7	f3 0f 2a c0	 cvtsi2ss xmm0, eax
  001eb	8b 85 e8 fe ff
	ff		 mov	 eax, DWORD PTR _iXPos$[ebp]
  001f1	f3 0f 11 44 24
	04		 movss	 DWORD PTR [esp+4], xmm0
  001f7	83 e8 80	 sub	 eax, -128		; ffffff80H
  001fa	0f 57 c0	 xorps	 xmm0, xmm0
  001fd	f3 0f 2a c0	 cvtsi2ss xmm0, eax

; 342  : 	}
; 343  : 	else

  00201	e9 1c 01 00 00	 jmp	 $LN24@OnRender
$LN8@OnRender:

; 344  : 	{
; 345  : 		g_FontMgr.SetTextStyle( TS_NORMAL );

  00206	ff d6		 call	 esi
  00208	8b c8		 mov	 ecx, eax
  0020a	ff 15 00 00 00
	00		 call	 DWORD PTR __imp_?SetTextStyle@ioFontManager@@QAEXW4TextStyle@@@Z

; 346  : 		g_FontMgr.SetAlignType( TAT_LEFT );

  00210	53		 push	 ebx
  00211	ff d6		 call	 esi
  00213	8b c8		 mov	 ecx, eax
  00215	ff 15 00 00 00
	00		 call	 DWORD PTR __imp_?SetAlignType@ioFontManager@@QAEXW4TextAlignType@@@Z

; 347  : 		g_FontMgr.SetBkColor( 0, 0, 0 );

  0021b	53		 push	 ebx
  0021c	53		 push	 ebx
  0021d	53		 push	 ebx
  0021e	ff d6		 call	 esi
  00220	8b c8		 mov	 ecx, eax
  00222	ff 15 00 00 00
	00		 call	 DWORD PTR __imp_?SetBkColor@ioFontManager@@QAEXHHH@Z

; 348  : 		g_FontMgr.SetTextColor( TCT_DEFAULT_LIGHTGRAY );

  00228	68 a7 a7 a7 ff	 push	 -5789785		; ffa7a7a7H
  0022d	ff d6		 call	 esi
  0022f	8b c8		 mov	 ecx, eax
  00231	ff 15 00 00 00
	00		 call	 DWORD PTR __imp_?SetTextColor@ioFontManager@@QAEXK@Z

; 349  : 		g_FontMgr.PrintText( iXPos+DESC_X, iYPos+DESC_Y, FONT_SIZE_12, STR(2) );

  00237	8b 85 e8 fe ff
	ff		 mov	 eax, DWORD PTR _iXPos$[ebp]
  0023d	53		 push	 ebx
  0023e	6a 02		 push	 2
  00240	83 c0 1b	 add	 eax, 27			; 0000001bH
  00243	0f 57 c0	 xorps	 xmm0, xmm0
  00246	68 00 00 00 00	 push	 OFFSET ??_C@_00CNPNBAHC@?$AA@
  0024b	f3 0f 2a c0	 cvtsi2ss xmm0, eax
  0024f	68 00 00 00 00	 push	 OFFSET ??_C@_0BN@NEAKHDLC@ioCostumeRandomBox?3?3OnRender?$AA@
  00254	f3 0f 11 85 e0
	fe ff ff	 movss	 DWORD PTR tv584[ebp], xmm0
  0025c	ff 15 00 00 00
	00		 call	 DWORD PTR __imp_?GetSingleton@ioStringManager@@SAAAV1@XZ
  00262	8b c8		 mov	 ecx, eax
  00264	ff 15 00 00 00
	00		 call	 DWORD PTR __imp_?GetString@ioStringManager@@QAEPADPBD0HW4FileNamePrefix@1@@Z
  0026a	f3 0f 10 05 00
	00 00 00	 movss	 xmm0, DWORD PTR __real@3f19999a
  00272	50		 push	 eax
  00273	83 ec 0c	 sub	 esp, 12			; 0000000cH
  00276	f3 0f 11 44 24
	08		 movss	 DWORD PTR [esp+8], xmm0
  0027c	8d 87 ce 00 00
	00		 lea	 eax, DWORD PTR [edi+206]
  00282	0f 57 c0	 xorps	 xmm0, xmm0
  00285	f3 0f 2a c0	 cvtsi2ss xmm0, eax
  00289	f3 0f 11 44 24
	04		 movss	 DWORD PTR [esp+4], xmm0
  0028f	f3 0f 10 85 e0
	fe ff ff	 movss	 xmm0, DWORD PTR tv584[ebp]
  00297	f3 0f 11 04 24	 movss	 DWORD PTR [esp], xmm0
  0029c	ff d6		 call	 esi
  0029e	50		 push	 eax
  0029f	ff 15 00 00 00
	00		 call	 DWORD PTR __imp_?PrintText@ioFontManager@@QAAXMMMPBDZZ
  002a5	83 c4 14	 add	 esp, 20			; 00000014H

; 350  : 
; 351  : 		g_FontMgr.SetTextStyle( TS_NORMAL );

  002a8	53		 push	 ebx
  002a9	ff d6		 call	 esi
  002ab	8b c8		 mov	 ecx, eax
  002ad	ff 15 00 00 00
	00		 call	 DWORD PTR __imp_?SetTextStyle@ioFontManager@@QAEXW4TextStyle@@@Z

; 352  : 		g_FontMgr.SetAlignType( TAT_LEFT );

  002b3	53		 push	 ebx
  002b4	ff d6		 call	 esi
  002b6	8b c8		 mov	 ecx, eax
  002b8	ff 15 00 00 00
	00		 call	 DWORD PTR __imp_?SetAlignType@ioFontManager@@QAEXW4TextAlignType@@@Z

; 353  : 		g_FontMgr.SetBkColor( 0, 0, 0 );

  002be	53		 push	 ebx
  002bf	53		 push	 ebx
  002c0	53		 push	 ebx
  002c1	ff d6		 call	 esi
  002c3	8b c8		 mov	 ecx, eax
  002c5	ff 15 00 00 00
	00		 call	 DWORD PTR __imp_?SetBkColor@ioFontManager@@QAEXHHH@Z

; 354  : 		g_FontMgr.SetTextColor( TCT_DEFAULT_LIGHTGRAY );

  002cb	68 a7 a7 a7 ff	 push	 -5789785		; ffa7a7a7H
  002d0	ff d6		 call	 esi
  002d2	8b c8		 mov	 ecx, eax
  002d4	ff 15 00 00 00
	00		 call	 DWORD PTR __imp_?SetTextColor@ioFontManager@@QAEXK@Z

; 355  : 		g_FontMgr.PrintText( iXPos+DESC_X, iYPos+DESC_Y+18, FONT_SIZE_12, STR(3) );

  002da	53		 push	 ebx
  002db	6a 03		 push	 3
  002dd	68 00 00 00 00	 push	 OFFSET ??_C@_00CNPNBAHC@?$AA@
  002e2	68 00 00 00 00	 push	 OFFSET ??_C@_0BN@NEAKHDLC@ioCostumeRandomBox?3?3OnRender?$AA@
  002e7	ff 15 00 00 00
	00		 call	 DWORD PTR __imp_?GetSingleton@ioStringManager@@SAAAV1@XZ
  002ed	8b c8		 mov	 ecx, eax
  002ef	ff 15 00 00 00
	00		 call	 DWORD PTR __imp_?GetString@ioStringManager@@QAEPADPBD0HW4FileNamePrefix@1@@Z
  002f5	f3 0f 10 05 00
	00 00 00	 movss	 xmm0, DWORD PTR __real@3f19999a
  002fd	50		 push	 eax
  002fe	83 ec 0c	 sub	 esp, 12			; 0000000cH
  00301	f3 0f 11 44 24
	08		 movss	 DWORD PTR [esp+8], xmm0
  00307	8d 87 e0 00 00
	00		 lea	 eax, DWORD PTR [edi+224]
  0030d	0f 57 c0	 xorps	 xmm0, xmm0
  00310	f3 0f 2a c0	 cvtsi2ss xmm0, eax
  00314	f3 0f 11 44 24
	04		 movss	 DWORD PTR [esp+4], xmm0
  0031a	f3 0f 10 85 e0
	fe ff ff	 movss	 xmm0, DWORD PTR tv584[ebp]
$LN24@OnRender:
  00322	f3 0f 11 04 24	 movss	 DWORD PTR [esp], xmm0
  00327	ff d6		 call	 esi
  00329	50		 push	 eax
  0032a	ff 15 00 00 00
	00		 call	 DWORD PTR __imp_?PrintText@ioFontManager@@QAAXMMMPBDZZ
  00330	83 c4 14	 add	 esp, 20			; 00000014H

; 356  : 	}
; 357  : 	
; 358  : 	// Text
; 359  : 	ioComplexStringPrinter kPrinter[2];

  00333	68 00 00 00 00	 push	 OFFSET ??1ioComplexStringPrinter@@QAE@XZ ; ioComplexStringPrinter::~ioComplexStringPrinter
  00338	68 00 00 00 00	 push	 OFFSET ??0ioComplexStringPrinter@@QAE@XZ ; ioComplexStringPrinter::ioComplexStringPrinter
  0033d	6a 02		 push	 2
  0033f	6a 20		 push	 32			; 00000020H
  00341	8d 85 80 fe ff
	ff		 lea	 eax, DWORD PTR _kPrinter$[ebp]
  00347	50		 push	 eax
  00348	e8 00 00 00 00	 call	 ??_L@YGXPAXIHP6EX0@Z1@Z

; 360  : 
; 361  : 	ioHashString szName = "?????";

  0034d	8b 35 00 00 00
	00		 mov	 esi, DWORD PTR __imp_??0ioHashString@@QAE@PBD@Z
  00353	68 00 00 00 00	 push	 OFFSET ??_C@_05EHMBKEBF@?$DP?$DP?$DP?$DP?$DP?$AA@
  00358	8d 8d c0 fe ff
	ff		 lea	 ecx, DWORD PTR _szName$[ebp]
  0035e	89 5d fc	 mov	 DWORD PTR __$EHRec$[ebp+8], ebx
  00361	ff d6		 call	 esi

; 362  : 	ioHashString szDesc = "?????";

  00363	68 00 00 00 00	 push	 OFFSET ??_C@_05EHMBKEBF@?$DP?$DP?$DP?$DP?$DP?$AA@
  00368	8d 8d d0 fe ff
	ff		 lea	 ecx, DWORD PTR _szDesc$[ebp]
  0036e	c6 45 fc 01	 mov	 BYTE PTR __$EHRec$[ebp+8], 1
  00372	ff d6		 call	 esi

; 363  : 
; 364  : 	if( m_bFinalResult )

  00374	8b b5 e4 fe ff
	ff		 mov	 esi, DWORD PTR _this$GSCopy$[ebp]
  0037a	c6 45 fc 02	 mov	 BYTE PTR __$EHRec$[ebp+8], 2
  0037e	38 9e bd 01 00
	00		 cmp	 BYTE PTR [esi+445], bl
  00384	0f 84 d2 00 00
	00		 je	 $LN1@OnRender

; 365  : 	{
; 366  : 		char szBuf[MAX_PATH] = "";

  0038a	68 03 01 00 00	 push	 259			; 00000103H
  0038f	8d 85 ed fe ff
	ff		 lea	 eax, DWORD PTR _szBuf$506122[ebp+1]
  00395	53		 push	 ebx
  00396	50		 push	 eax
  00397	88 9d ec fe ff
	ff		 mov	 BYTE PTR _szBuf$506122[ebp], bl
  0039d	e8 00 00 00 00	 call	 _memset
  003a2	83 c4 0c	 add	 esp, 12			; 0000000cH

; 367  : 
; 368  : 		if( !m_szCostumeName.IsEmpty() )

  003a5	8d 8e a4 01 00
	00		 lea	 ecx, DWORD PTR [esi+420]
  003ab	ff 15 00 00 00
	00		 call	 DWORD PTR __imp_?IsEmpty@ioHashString@@QBE_NXZ
  003b1	84 c0		 test	 al, al
  003b3	75 13		 jne	 SHORT $LN5@OnRender

; 369  : 			szName = m_szCostumeName;

  003b5	8d 86 a4 01 00
	00		 lea	 eax, DWORD PTR [esi+420]
  003bb	50		 push	 eax
  003bc	8d 8d c0 fe ff
	ff		 lea	 ecx, DWORD PTR _szName$[ebp]
  003c2	ff 15 00 00 00
	00		 call	 DWORD PTR __imp_??4ioHashString@@QAEAAV0@ABV0@@Z
$LN5@OnRender:

; 370  : 
; 371  : 		if( m_nPeriodTime == 0 )

  003c8	8b b6 b8 01 00
	00		 mov	 esi, DWORD PTR [esi+440]
  003ce	3b f3		 cmp	 esi, ebx
  003d0	75 33		 jne	 SHORT $LN4@OnRender

; 372  : 		{
; 373  : 			SafeSprintf( szBuf, sizeof( szBuf ), STR(4) );

  003d2	53		 push	 ebx
  003d3	6a 04		 push	 4
  003d5	68 00 00 00 00	 push	 OFFSET ??_C@_00CNPNBAHC@?$AA@
  003da	68 00 00 00 00	 push	 OFFSET ??_C@_0BN@NEAKHDLC@ioCostumeRandomBox?3?3OnRender?$AA@
  003df	ff 15 00 00 00
	00		 call	 DWORD PTR __imp_?GetSingleton@ioStringManager@@SAAAV1@XZ
  003e5	8b c8		 mov	 ecx, eax
  003e7	ff 15 00 00 00
	00		 call	 DWORD PTR __imp_?GetString@ioStringManager@@QAEPADPBD0HW4FileNamePrefix@1@@Z
  003ed	50		 push	 eax
  003ee	8d 85 ec fe ff
	ff		 lea	 eax, DWORD PTR _szBuf$506122[ebp]
  003f4	68 04 01 00 00	 push	 260			; 00000104H
  003f9	50		 push	 eax
  003fa	ff 15 00 00 00
	00		 call	 DWORD PTR __imp_?SafeSprintf@@YAXPADHPBDZZ
  00400	83 c4 0c	 add	 esp, 12			; 0000000cH

; 374  : 			szDesc = szBuf;

  00403	eb 44		 jmp	 SHORT $LN25@OnRender
$LN4@OnRender:

; 375  : 		}
; 376  : 		else if( ( m_nPeriodTime / 24 ) > 0 )

  00405	8b c6		 mov	 eax, esi
  00407	6a 18		 push	 24			; 00000018H
  00409	99		 cdq
  0040a	59		 pop	 ecx
  0040b	f7 f9		 idiv	 ecx
  0040d	3b c3		 cmp	 eax, ebx
  0040f	7e 06		 jle	 SHORT $LN2@OnRender

; 377  : 		{
; 378  : 			SafeSprintf( szBuf, sizeof( szBuf), STR(5), m_nPeriodTime/24 );

  00411	50		 push	 eax
  00412	53		 push	 ebx
  00413	6a 05		 push	 5

; 379  : 			szDesc = szBuf;
; 380  : 		}
; 381  : 		else

  00415	eb 04		 jmp	 SHORT $LN26@OnRender
$LN2@OnRender:

; 382  : 		{
; 383  : 			SafeSprintf( szBuf, sizeof( szBuf), STR(6), m_nPeriodTime );

  00417	56		 push	 esi
  00418	53		 push	 ebx
  00419	6a 06		 push	 6
$LN26@OnRender:
  0041b	68 00 00 00 00	 push	 OFFSET ??_C@_00CNPNBAHC@?$AA@
  00420	68 00 00 00 00	 push	 OFFSET ??_C@_0BN@NEAKHDLC@ioCostumeRandomBox?3?3OnRender?$AA@
  00425	ff 15 00 00 00
	00		 call	 DWORD PTR __imp_?GetSingleton@ioStringManager@@SAAAV1@XZ
  0042b	8b c8		 mov	 ecx, eax
  0042d	ff 15 00 00 00
	00		 call	 DWORD PTR __imp_?GetString@ioStringManager@@QAEPADPBD0HW4FileNamePrefix@1@@Z
  00433	50		 push	 eax
  00434	8d 85 ec fe ff
	ff		 lea	 eax, DWORD PTR _szBuf$506122[ebp]
  0043a	68 04 01 00 00	 push	 260			; 00000104H
  0043f	50		 push	 eax
  00440	ff 15 00 00 00
	00		 call	 DWORD PTR __imp_?SafeSprintf@@YAXPADHPBDH@Z
  00446	83 c4 10	 add	 esp, 16			; 00000010H
$LN25@OnRender:

; 384  : 			szDesc = szBuf;

  00449	8d 85 ec fe ff
	ff		 lea	 eax, DWORD PTR _szBuf$506122[ebp]
  0044f	50		 push	 eax
  00450	8d 8d d0 fe ff
	ff		 lea	 ecx, DWORD PTR _szDesc$[ebp]
  00456	ff 15 00 00 00
	00		 call	 DWORD PTR __imp_??4ioHashString@@QAEAAV0@PBD@Z
$LN1@OnRender:

; 385  : 		}
; 386  : 	}
; 387  : 
; 388  : 	// Name
; 389  : 	kPrinter[0].ClearList();

  0045c	8d 8d 80 fe ff
	ff		 lea	 ecx, DWORD PTR _kPrinter$[ebp]
  00462	e8 00 00 00 00	 call	 ?ClearList@ioComplexStringPrinter@@QAEXXZ ; ioComplexStringPrinter::ClearList

; 390  : 	kPrinter[0].SetTextStyle( TS_NORMAL );

  00467	53		 push	 ebx
  00468	8d 8d 80 fe ff
	ff		 lea	 ecx, DWORD PTR _kPrinter$[ebp]
  0046e	e8 00 00 00 00	 call	 ?SetTextStyle@ioComplexStringPrinter@@QAEXW4TextStyle@@@Z ; ioComplexStringPrinter::SetTextStyle

; 391  : 	kPrinter[0].SetBkColor( 0, 0, 0 );	

  00473	53		 push	 ebx
  00474	53		 push	 ebx
  00475	53		 push	 ebx
  00476	8d 8d 80 fe ff
	ff		 lea	 ecx, DWORD PTR _kPrinter$[ebp]
  0047c	e8 00 00 00 00	 call	 ?SetBkColor@ioComplexStringPrinter@@QAEXHHH@Z ; ioComplexStringPrinter::SetBkColor

; 392  : 	kPrinter[0].SetTextColor( TCT_DEFAULT_DARKGRAY );

  00481	68 3a 3a 3a ff	 push	 -12961222		; ff3a3a3aH
  00486	8d 8d 80 fe ff
	ff		 lea	 ecx, DWORD PTR _kPrinter$[ebp]
  0048c	e8 00 00 00 00	 call	 ?SetTextColor@ioComplexStringPrinter@@QAEXK@Z ; ioComplexStringPrinter::SetTextColor

; 393  : 	kPrinter[0].AddTextPiece( FONT_SIZE_17, szName.c_str() );

  00491	8d 8d c0 fe ff
	ff		 lea	 ecx, DWORD PTR _szName$[ebp]
  00497	ff 15 00 00 00
	00		 call	 DWORD PTR __imp_?c_str@ioHashString@@QBEPBDXZ
  0049d	f3 0f 10 05 00
	00 00 00	 movss	 xmm0, DWORD PTR __real@3f59999a
  004a5	50		 push	 eax
  004a6	51		 push	 ecx
  004a7	8d 85 80 fe ff
	ff		 lea	 eax, DWORD PTR _kPrinter$[ebp]
  004ad	f3 0f 11 04 24	 movss	 DWORD PTR [esp], xmm0
  004b2	50		 push	 eax
  004b3	e8 00 00 00 00	 call	 ?AddTextPiece@ioComplexStringPrinter@@QAAXMPBDZZ ; ioComplexStringPrinter::AddTextPiece

; 394  : 	kPrinter[0].PrintFullText( iXPos+DESC_BIG_X, iYPos+DESC_BIG_Y, TAT_CENTER );

  004b8	8b 85 e8 fe ff
	ff		 mov	 eax, DWORD PTR _iXPos$[ebp]
  004be	83 c4 0c	 add	 esp, 12			; 0000000cH
  004c1	be ff 00 00 00	 mov	 esi, 255		; 000000ffH
  004c6	56		 push	 esi
  004c7	05 81 00 00 00	 add	 eax, 129		; 00000081H
  004cc	6a 01		 push	 1
  004ce	0f 57 c0	 xorps	 xmm0, xmm0
  004d1	f3 0f 2a c0	 cvtsi2ss xmm0, eax
  004d5	51		 push	 ecx
  004d6	51		 push	 ecx
  004d7	8d 87 98 00 00
	00		 lea	 eax, DWORD PTR [edi+152]
  004dd	0f 57 c9	 xorps	 xmm1, xmm1
  004e0	f3 0f 2a c8	 cvtsi2ss xmm1, eax
  004e4	f3 0f 11 4c 24
	04		 movss	 DWORD PTR [esp+4], xmm1
  004ea	8d 8d 80 fe ff
	ff		 lea	 ecx, DWORD PTR _kPrinter$[ebp]
  004f0	f3 0f 11 85 e4
	fe ff ff	 movss	 DWORD PTR tv527[ebp], xmm0
  004f8	f3 0f 11 04 24	 movss	 DWORD PTR [esp], xmm0
  004fd	e8 00 00 00 00	 call	 ?PrintFullText@ioComplexStringPrinter@@QAEXMMW4TextAlignType@@E@Z ; ioComplexStringPrinter::PrintFullText

; 395  : 
; 396  : 	kPrinter[1].ClearList();

  00502	8d 8d a0 fe ff
	ff		 lea	 ecx, DWORD PTR _kPrinter$[ebp+32]
  00508	e8 00 00 00 00	 call	 ?ClearList@ioComplexStringPrinter@@QAEXXZ ; ioComplexStringPrinter::ClearList

; 397  : 	kPrinter[1].SetTextStyle( TS_NORMAL );

  0050d	53		 push	 ebx
  0050e	8d 8d a0 fe ff
	ff		 lea	 ecx, DWORD PTR _kPrinter$[ebp+32]
  00514	e8 00 00 00 00	 call	 ?SetTextStyle@ioComplexStringPrinter@@QAEXW4TextStyle@@@Z ; ioComplexStringPrinter::SetTextStyle

; 398  : 	kPrinter[1].SetBkColor( 0, 0, 0 );

  00519	53		 push	 ebx
  0051a	53		 push	 ebx
  0051b	53		 push	 ebx
  0051c	8d 8d a0 fe ff
	ff		 lea	 ecx, DWORD PTR _kPrinter$[ebp+32]
  00522	e8 00 00 00 00	 call	 ?SetBkColor@ioComplexStringPrinter@@QAEXHHH@Z ; ioComplexStringPrinter::SetBkColor

; 399  : 	kPrinter[1].SetTextColor( TCT_DEFAULT_BLUE );

  00527	68 b2 46 16 ff	 push	 -15317326		; ff1646b2H
  0052c	8d 8d a0 fe ff
	ff		 lea	 ecx, DWORD PTR _kPrinter$[ebp+32]
  00532	e8 00 00 00 00	 call	 ?SetTextColor@ioComplexStringPrinter@@QAEXK@Z ; ioComplexStringPrinter::SetTextColor

; 400  : 	kPrinter[1].AddTextPiece( FONT_SIZE_17, szDesc.c_str() );

  00537	8d 8d d0 fe ff
	ff		 lea	 ecx, DWORD PTR _szDesc$[ebp]
  0053d	ff 15 00 00 00
	00		 call	 DWORD PTR __imp_?c_str@ioHashString@@QBEPBDXZ
  00543	f3 0f 10 05 00
	00 00 00	 movss	 xmm0, DWORD PTR __real@3f59999a
  0054b	50		 push	 eax
  0054c	51		 push	 ecx
  0054d	8d 85 a0 fe ff
	ff		 lea	 eax, DWORD PTR _kPrinter$[ebp+32]
  00553	f3 0f 11 04 24	 movss	 DWORD PTR [esp], xmm0
  00558	50		 push	 eax
  00559	e8 00 00 00 00	 call	 ?AddTextPiece@ioComplexStringPrinter@@QAAXMPBDZZ ; ioComplexStringPrinter::AddTextPiece
  0055e	83 c4 0c	 add	 esp, 12			; 0000000cH

; 401  : 	kPrinter[1].PrintFullText( iXPos+DESC_BIG_X, iYPos+DESC_BIG_Y+23, TAT_CENTER );

  00561	56		 push	 esi
  00562	6a 01		 push	 1
  00564	51		 push	 ecx
  00565	51		 push	 ecx
  00566	0f 57 c0	 xorps	 xmm0, xmm0
  00569	81 c7 af 00 00
	00		 add	 edi, 175		; 000000afH
  0056f	f3 0f 2a c7	 cvtsi2ss xmm0, edi
  00573	f3 0f 11 44 24
	04		 movss	 DWORD PTR [esp+4], xmm0
  00579	f3 0f 10 85 e4
	fe ff ff	 movss	 xmm0, DWORD PTR tv527[ebp]
  00581	8d 8d a0 fe ff
	ff		 lea	 ecx, DWORD PTR _kPrinter$[ebp+32]
  00587	f3 0f 11 04 24	 movss	 DWORD PTR [esp], xmm0
  0058c	e8 00 00 00 00	 call	 ?PrintFullText@ioComplexStringPrinter@@QAEXMMW4TextAlignType@@E@Z ; ioComplexStringPrinter::PrintFullText

; 402  : }

  00591	8b 3d 00 00 00
	00		 mov	 edi, DWORD PTR __imp_??1ioHashString@@QAE@XZ
  00597	8d 8d d0 fe ff
	ff		 lea	 ecx, DWORD PTR _szDesc$[ebp]
  0059d	c6 45 fc 01	 mov	 BYTE PTR __$EHRec$[ebp+8], 1
  005a1	ff d7		 call	 edi
  005a3	88 5d fc	 mov	 BYTE PTR __$EHRec$[ebp+8], bl
  005a6	8d 8d c0 fe ff
	ff		 lea	 ecx, DWORD PTR _szName$[ebp]
  005ac	ff d7		 call	 edi
  005ae	83 4d fc ff	 or	 DWORD PTR __$EHRec$[ebp+8], -1
  005b2	68 00 00 00 00	 push	 OFFSET ??1ioComplexStringPrinter@@QAE@XZ ; ioComplexStringPrinter::~ioComplexStringPrinter
  005b7	6a 02		 push	 2
  005b9	6a 20		 push	 32			; 00000020H
  005bb	8d 85 80 fe ff
	ff		 lea	 eax, DWORD PTR _kPrinter$[ebp]
  005c1	50		 push	 eax
  005c2	e8 00 00 00 00	 call	 ??_M@YGXPAXIHP6EX0@Z@Z
  005c7	e8 00 00 00 00	 call	 __EH_epilog3_GS
  005cc	c3		 ret	 0
_TEXT	ENDS
;	COMDAT text$x
text$x	SEGMENT
__unwindfunclet$?OnRender@ioCostumeRandomBox@@MAEXXZ$0:
  00000	68 00 00 00 00	 push	 OFFSET ??1ioComplexStringPrinter@@QAE@XZ ; ioComplexStringPrinter::~ioComplexStringPrinter
  00005	6a 02		 push	 2
  00007	6a 20		 push	 32			; 00000020H
  00009	8d 85 80 fe ff
	ff		 lea	 eax, DWORD PTR _kPrinter$[ebp]
  0000f	50		 push	 eax
  00010	e8 00 00 00 00	 call	 ??_M@YGXPAXIHP6EX0@Z@Z
  00015	c3		 ret	 0
__unwindfunclet$?OnRender@ioCostumeRandomBox@@MAEXXZ$1:
  00016	8d 8d c0 fe ff
	ff		 lea	 ecx, DWORD PTR _szName$[ebp]
  0001c	ff 25 00 00 00
	00		 jmp	 DWORD PTR __imp_??1ioHashString@@QAE@XZ
__unwindfunclet$?OnRender@ioCostumeRandomBox@@MAEXXZ$2:
  00022	8d 8d d0 fe ff
	ff		 lea	 ecx, DWORD PTR _szDesc$[ebp]
  00028	ff 25 00 00 00
	00		 jmp	 DWORD PTR __imp_??1ioHashString@@QAE@XZ
__ehhandler$?OnRender@ioCostumeRandomBox@@MAEXXZ:
  0002e	8b 54 24 08	 mov	 edx, DWORD PTR [esp+8]
  00032	8d 42 0c	 lea	 eax, DWORD PTR [edx+12]
  00035	8b 8a 7c fe ff
	ff		 mov	 ecx, DWORD PTR [edx-388]
  0003b	33 c8		 xor	 ecx, eax
  0003d	e8 00 00 00 00	 call	 @__security_check_cookie@4
  00042	8b 4a fc	 mov	 ecx, DWORD PTR [edx-4]
  00045	33 c8		 xor	 ecx, eax
  00047	e8 00 00 00 00	 call	 @__security_check_cookie@4
  0004c	b8 00 00 00 00	 mov	 eax, OFFSET __ehfuncinfo$?OnRender@ioCostumeRandomBox@@MAEXXZ
  00051	e9 00 00 00 00	 jmp	 ___CxxFrameHandler3
text$x	ENDS
?OnRender@ioCostumeRandomBox@@MAEXXZ ENDP		; ioCostumeRandomBox::OnRender
PUBLIC	??2@YAPAXIPAX@Z					; operator new
; Function compile flags: /Ogsp
; File c:\program files (x86)\microsoft visual studio 10.0\vc\include\new
;	COMDAT ??2@YAPAXIPAX@Z
_TEXT	SEGMENT
___formal$ = 8						; size = 4
__Where$ = 12						; size = 4
??2@YAPAXIPAX@Z PROC					; operator new, COMDAT

; 56   : 	{	// construct array with placement at _Where

  00000	55		 push	 ebp
  00001	8b ec		 mov	 ebp, esp

; 57   : 	return (_Where);

  00003	8b 45 0c	 mov	 eax, DWORD PTR __Where$[ebp]

; 58   : 	}

  00006	5d		 pop	 ebp
  00007	c3		 ret	 0
??2@YAPAXIPAX@Z ENDP					; operator new
_TEXT	ENDS
PUBLIC	??3@YAXPAX0@Z					; operator delete
; Function compile flags: /Ogsp
;	COMDAT ??3@YAXPAX0@Z
_TEXT	SEGMENT
___formal$ = 8						; size = 4
___formal$ = 12						; size = 4
??3@YAXPAX0@Z PROC					; operator delete, COMDAT

; 62   : 	}

  00000	c3		 ret	 0
??3@YAXPAX0@Z ENDP					; operator delete
_TEXT	ENDS
PUBLIC	?iwm_hide@ioCostumeRandomBox@@UAEXXZ		; ioCostumeRandomBox::iwm_hide
EXTRN	__imp_?StopSound@ioSoundManager@@QAEXABVioHashString@@K@Z:PROC
EXTRN	__imp_?GetSingleton@ioSoundManager@@SAAAV1@XZ:PROC
; Function compile flags: /Ogsp
; File d:\lost saga for developer\youtube\tutorial\source\src\lsclient\gui\iocostumerandombox.cpp
;	COMDAT ?iwm_hide@ioCostumeRandomBox@@UAEXXZ
_TEXT	SEGMENT
?iwm_hide@ioCostumeRandomBox@@UAEXXZ PROC		; ioCostumeRandomBox::iwm_hide, COMDAT
; _this$ = ecx

; 405  : {

  00000	56		 push	 esi

; 406  : 	if( !m_szRollingSound.IsEmpty() )

  00001	8d b1 ec 01 00
	00		 lea	 esi, DWORD PTR [ecx+492]
  00007	8b ce		 mov	 ecx, esi
  00009	ff 15 00 00 00
	00		 call	 DWORD PTR __imp_?IsEmpty@ioHashString@@QBE_NXZ
  0000f	84 c0		 test	 al, al
  00011	75 11		 jne	 SHORT $LN1@iwm_hide

; 407  : 	{
; 408  : 		g_SoundMgr.StopSound( m_szRollingSound, 0 );

  00013	6a 00		 push	 0
  00015	56		 push	 esi
  00016	ff 15 00 00 00
	00		 call	 DWORD PTR __imp_?GetSingleton@ioSoundManager@@SAAAV1@XZ
  0001c	8b c8		 mov	 ecx, eax
  0001e	ff 15 00 00 00
	00		 call	 DWORD PTR __imp_?StopSound@ioSoundManager@@QAEXABVioHashString@@K@Z
$LN1@iwm_hide:
  00024	5e		 pop	 esi

; 409  : 	}
; 410  : }

  00025	c3		 ret	 0
?iwm_hide@ioCostumeRandomBox@@UAEXXZ ENDP		; ioCostumeRandomBox::iwm_hide
_TEXT	ENDS
PUBLIC	??_R0?AVioWnd@@@8				; ioWnd `RTTI Type Descriptor'
PUBLIC	??_R0?AVMyInventoryWnd@@@8			; MyInventoryWnd `RTTI Type Descriptor'
PUBLIC	?iwm_command@ioCostumeRandomBox@@UAEXPAVioWnd@@HK@Z ; ioCostumeRandomBox::iwm_command
EXTRN	?ShowCostumeTabDirect@MyInventoryWnd@@QAEXHH@Z:PROC ; MyInventoryWnd::ShowCostumeTabDirect
EXTRN	?GetClassType@ioMyInfo@@QAEHXZ:PROC		; ioMyInfo::GetClassType
EXTRN	?GetSingleton@ioMyInfo@@SAAAV1@XZ:PROC		; ioMyInfo::GetSingleton
EXTRN	__imp_?FindWnd@ioGUIManager@@QAEPAVioWnd@@K@Z:PROC
EXTRN	?GetSingleton@ioSP2GUIManager@@SAAAV1@XZ:PROC	; ioSP2GUIManager::GetSingleton
EXTRN	__imp_?HideWnd@ioWnd@@QAEXXZ:PROC
EXTRN	__imp_?GetID@ioWnd@@QBEKXZ:PROC
EXTRN	___RTDynamicCast:PROC
;	COMDAT ??_R0?AVioWnd@@@8
_DATA	SEGMENT
??_R0?AVioWnd@@@8 DD FLAT:??_7type_info@@6B@		; ioWnd `RTTI Type Descriptor'
	DD	00H
	DB	'.?AVioWnd@@', 00H
_DATA	ENDS
;	COMDAT ??_R0?AVMyInventoryWnd@@@8
_DATA	SEGMENT
??_R0?AVMyInventoryWnd@@@8 DD FLAT:??_7type_info@@6B@	; MyInventoryWnd `RTTI Type Descriptor'
	DD	00H
	DB	'.?AVMyInventoryWnd@@', 00H
; Function compile flags: /Ogsp
_DATA	ENDS
;	COMDAT ?iwm_command@ioCostumeRandomBox@@UAEXPAVioWnd@@HK@Z
_TEXT	SEGMENT
_pWnd$ = 8						; size = 4
_cmd$ = 12						; size = 4
_param$ = 16						; size = 4
?iwm_command@ioCostumeRandomBox@@UAEXPAVioWnd@@HK@Z PROC ; ioCostumeRandomBox::iwm_command, COMDAT
; _this$ = ecx

; 413  : {

  00000	55		 push	 ebp
  00001	8b ec		 mov	 ebp, esp
  00003	56		 push	 esi
  00004	8b f1		 mov	 esi, ecx

; 414  : 	DWORD dwID = pWnd->GetID();

  00006	8b 4d 08	 mov	 ecx, DWORD PTR _pWnd$[ebp]
  00009	ff 15 00 00 00
	00		 call	 DWORD PTR __imp_?GetID@ioWnd@@QBEKXZ

; 415  : 
; 416  : 	switch( dwID )

  0000f	48		 dec	 eax
  00010	48		 dec	 eax
  00011	75 53		 jne	 SHORT $LN1@iwm_comman

; 417  : 	{
; 418  : 	case ID_GO:
; 419  : 		if( cmd == IOBN_BTNUP )

  00013	83 7d 0c 11	 cmp	 DWORD PTR _cmd$[ebp], 17 ; 00000011H
  00017	75 4d		 jne	 SHORT $LN1@iwm_comman

; 420  : 		{
; 421  : 			HideWnd();

  00019	8b ce		 mov	 ecx, esi
  0001b	ff 15 00 00 00
	00		 call	 DWORD PTR __imp_?HideWnd@ioWnd@@QAEXXZ

; 422  : 
; 423  : 			MyInventoryWnd *pInvenWnd = dynamic_cast<MyInventoryWnd*>(g_GUIMgr.FindWnd(MY_INVENTORY_WND));

  00021	6a 00		 push	 0
  00023	68 00 00 00 00	 push	 OFFSET ??_R0?AVMyInventoryWnd@@@8
  00028	68 00 00 00 00	 push	 OFFSET ??_R0?AVioWnd@@@8
  0002d	6a 00		 push	 0
  0002f	68 96 17 00 00	 push	 6038			; 00001796H
  00034	e8 00 00 00 00	 call	 ?GetSingleton@ioSP2GUIManager@@SAAAV1@XZ ; ioSP2GUIManager::GetSingleton
  00039	8b c8		 mov	 ecx, eax
  0003b	ff 15 00 00 00
	00		 call	 DWORD PTR __imp_?FindWnd@ioGUIManager@@QAEPAVioWnd@@K@Z
  00041	50		 push	 eax
  00042	e8 00 00 00 00	 call	 ___RTDynamicCast
  00047	8b f0		 mov	 esi, eax
  00049	83 c4 14	 add	 esp, 20			; 00000014H

; 424  : 			if( pInvenWnd )

  0004c	85 f6		 test	 esi, esi
  0004e	74 16		 je	 SHORT $LN1@iwm_comman

; 425  : 				pInvenWnd->ShowCostumeTabDirect( g_MyInfo.GetClassType() );

  00050	6a ff		 push	 -1
  00052	e8 00 00 00 00	 call	 ?GetSingleton@ioMyInfo@@SAAAV1@XZ ; ioMyInfo::GetSingleton
  00057	8b c8		 mov	 ecx, eax
  00059	e8 00 00 00 00	 call	 ?GetClassType@ioMyInfo@@QAEHXZ ; ioMyInfo::GetClassType
  0005e	50		 push	 eax
  0005f	8b ce		 mov	 ecx, esi
  00061	e8 00 00 00 00	 call	 ?ShowCostumeTabDirect@MyInventoryWnd@@QAEXHH@Z ; MyInventoryWnd::ShowCostumeTabDirect
$LN1@iwm_comman:
  00066	5e		 pop	 esi

; 426  : 		}
; 427  : 		break;
; 428  : 	}
; 429  : }

  00067	5d		 pop	 ebp
  00068	c2 0c 00	 ret	 12			; 0000000cH
?iwm_command@ioCostumeRandomBox@@UAEXPAVioWnd@@HK@Z ENDP ; ioCostumeRandomBox::iwm_command
_TEXT	ENDS
PUBLIC	?ReBatchButton@ioCostumeRandomBox@@IAEXH@Z	; ioCostumeRandomBox::ReBatchButton
EXTRN	__imp_?SetChildInActive@ioWnd@@QAEXK@Z:PROC
EXTRN	__imp_?ShowChildWnd@ioWnd@@QAEXK_N@Z:PROC
EXTRN	__imp_?HideChildWnd@ioWnd@@QAEXK_N@Z:PROC
; Function compile flags: /Ogsp
;	COMDAT ?ReBatchButton@ioCostumeRandomBox@@IAEXH@Z
_TEXT	SEGMENT
_iType$ = 8						; size = 4
?ReBatchButton@ioCostumeRandomBox@@IAEXH@Z PROC		; ioCostumeRandomBox::ReBatchButton, COMDAT
; _this$ = ecx

; 432  : {

  00000	55		 push	 ebp
  00001	8b ec		 mov	 ebp, esp

; 433  : 	switch( iType )

  00003	8b 45 08	 mov	 eax, DWORD PTR _iType$[ebp]
  00006	48		 dec	 eax
  00007	56		 push	 esi
  00008	8b f1		 mov	 esi, ecx
  0000a	74 1a		 je	 SHORT $LN2@ReBatchBut
  0000c	48		 dec	 eax
  0000d	75 37		 jne	 SHORT $LN3@ReBatchBut

; 439  : 		break;
; 440  : 	case RESULT_BTN:
; 441  : 		HideChildWnd(ID_ROLLING);

  0000f	50		 push	 eax
  00010	6a 01		 push	 1
  00012	ff 15 00 00 00
	00		 call	 DWORD PTR __imp_?HideChildWnd@ioWnd@@QAEXK_N@Z

; 442  : 		ShowChildWnd(ID_GO);

  00018	6a 00		 push	 0
  0001a	6a 02		 push	 2
  0001c	8b ce		 mov	 ecx, esi
  0001e	ff 15 00 00 00
	00		 call	 DWORD PTR __imp_?ShowChildWnd@ioWnd@@QAEXK_N@Z

; 443  : 		break;

  00024	eb 20		 jmp	 SHORT $LN3@ReBatchBut
$LN2@ReBatchBut:

; 434  : 	{
; 435  : 	case ROLLING_BTN:
; 436  : 		ShowChildWnd(ID_ROLLING);

  00026	6a 00		 push	 0
  00028	6a 01		 push	 1
  0002a	ff 15 00 00 00
	00		 call	 DWORD PTR __imp_?ShowChildWnd@ioWnd@@QAEXK_N@Z

; 437  : 		SetChildInActive(ID_ROLLING);

  00030	6a 01		 push	 1
  00032	8b ce		 mov	 ecx, esi
  00034	ff 15 00 00 00
	00		 call	 DWORD PTR __imp_?SetChildInActive@ioWnd@@QAEXK@Z

; 438  : 		HideChildWnd(ID_GO);

  0003a	6a 00		 push	 0
  0003c	6a 02		 push	 2
  0003e	8b ce		 mov	 ecx, esi
  00040	ff 15 00 00 00
	00		 call	 DWORD PTR __imp_?HideChildWnd@ioWnd@@QAEXK_N@Z
$LN3@ReBatchBut:
  00046	5e		 pop	 esi

; 444  : 	}
; 445  : }

  00047	5d		 pop	 ebp
  00048	c2 04 00	 ret	 4
?ReBatchButton@ioCostumeRandomBox@@IAEXH@Z ENDP		; ioCostumeRandomBox::ReBatchButton
_TEXT	ENDS
PUBLIC	?OnResultInfo@ioCostumeRandomBox@@QAEXHH@Z	; ioCostumeRandomBox::OnResultInfo
; Function compile flags: /Ogsp
;	COMDAT ?OnResultInfo@ioCostumeRandomBox@@QAEXHH@Z
_TEXT	SEGMENT
_nCostumeCode$ = 8					; size = 4
_nPeriodTime$ = 12					; size = 4
?OnResultInfo@ioCostumeRandomBox@@QAEXHH@Z PROC		; ioCostumeRandomBox::OnResultInfo, COMDAT
; _this$ = ecx

; 448  : {

  00000	55		 push	 ebp
  00001	8b ec		 mov	 ebp, esp

; 449  : 	m_bResult = true;
; 450  : 	m_nCostumeCode = nCostumeCode;

  00003	8b 45 08	 mov	 eax, DWORD PTR _nCostumeCode$[ebp]
  00006	89 81 b4 01 00
	00		 mov	 DWORD PTR [ecx+436], eax

; 451  : 	m_nPeriodTime = nPeriodTime;

  0000c	8b 45 0c	 mov	 eax, DWORD PTR _nPeriodTime$[ebp]
  0000f	c6 81 bc 01 00
	00 01		 mov	 BYTE PTR [ecx+444], 1
  00016	89 81 b8 01 00
	00		 mov	 DWORD PTR [ecx+440], eax

; 452  : }

  0001c	5d		 pop	 ebp
  0001d	c2 08 00	 ret	 8
?OnResultInfo@ioCostumeRandomBox@@QAEXHH@Z ENDP		; ioCostumeRandomBox::OnResultInfo
_TEXT	ENDS
PUBLIC	??A?$vector@VioHashString@@V?$allocator@VioHashString@@@std@@@std@@QAEAAVioHashString@@I@Z ; std::vector<ioHashString,std::allocator<ioHashString> >::operator[]
; Function compile flags: /Ogsp
; File c:\program files (x86)\microsoft visual studio 10.0\vc\include\vector
;	COMDAT ??A?$vector@VioHashString@@V?$allocator@VioHashString@@@std@@@std@@QAEAAVioHashString@@I@Z
_TEXT	SEGMENT
__Pos$ = 8						; size = 4
??A?$vector@VioHashString@@V?$allocator@VioHashString@@@std@@@std@@QAEAAVioHashString@@I@Z PROC ; std::vector<ioHashString,std::allocator<ioHashString> >::operator[], COMDAT
; _this$ = ecx

; 928  : 		{	// subscript mutable sequence

  00000	55		 push	 ebp
  00001	8b ec		 mov	 ebp, esp

; 929  :  #if _ITERATOR_DEBUG_LEVEL == 2
; 930  : 		if (size() <= _Pos)
; 931  : 			{	// report error
; 932  : 			_DEBUG_ERROR("vector subscript out of range");
; 933  : 			_SCL_SECURE_OUT_OF_RANGE;
; 934  : 			}
; 935  : 
; 936  :  #elif _ITERATOR_DEBUG_LEVEL == 1
; 937  : 		_SCL_SECURE_VALIDATE_RANGE(_Pos < size());
; 938  :  #endif /* _ITERATOR_DEBUG_LEVEL */
; 939  : 
; 940  : 		return (*(this->_Myfirst + _Pos));

  00003	8b 45 08	 mov	 eax, DWORD PTR __Pos$[ebp]
  00006	c1 e0 04	 shl	 eax, 4
  00009	03 01		 add	 eax, DWORD PTR [ecx]

; 941  : 		}

  0000b	5d		 pop	 ebp
  0000c	c2 04 00	 ret	 4
??A?$vector@VioHashString@@V?$allocator@VioHashString@@@std@@@std@@QAEAAVioHashString@@I@Z ENDP ; std::vector<ioHashString,std::allocator<ioHashString> >::operator[]
_TEXT	ENDS
PUBLIC	?capacity@?$vector@VioHashString@@V?$allocator@VioHashString@@@std@@@std@@QBEIXZ ; std::vector<ioHashString,std::allocator<ioHashString> >::capacity
; Function compile flags: /Ogsp
;	COMDAT ?capacity@?$vector@VioHashString@@V?$allocator@VioHashString@@@std@@@std@@QBEIXZ
_TEXT	SEGMENT
?capacity@?$vector@VioHashString@@V?$allocator@VioHashString@@@std@@@std@@QBEIXZ PROC ; std::vector<ioHashString,std::allocator<ioHashString> >::capacity, COMDAT
; _this$ = ecx

; 777  : 		return (this->_Myend - this->_Myfirst);

  00000	8b 41 08	 mov	 eax, DWORD PTR [ecx+8]
  00003	2b 01		 sub	 eax, DWORD PTR [ecx]
  00005	c1 f8 04	 sar	 eax, 4

; 778  : 		}

  00008	c3		 ret	 0
?capacity@?$vector@VioHashString@@V?$allocator@VioHashString@@@std@@@std@@QBEIXZ ENDP ; std::vector<ioHashString,std::allocator<ioHashString> >::capacity
_TEXT	ENDS
PUBLIC	?_Inside@?$vector@VioHashString@@V?$allocator@VioHashString@@@std@@@std@@IBE_NPBVioHashString@@@Z ; std::vector<ioHashString,std::allocator<ioHashString> >::_Inside
; Function compile flags: /Ogsp
;	COMDAT ?_Inside@?$vector@VioHashString@@V?$allocator@VioHashString@@@std@@@std@@IBE_NPBVioHashString@@@Z
_TEXT	SEGMENT
__Ptr$ = 8						; size = 4
?_Inside@?$vector@VioHashString@@V?$allocator@VioHashString@@@std@@@std@@IBE_NPBVioHashString@@@Z PROC ; std::vector<ioHashString,std::allocator<ioHashString> >::_Inside, COMDAT
; _this$ = ecx

; 1285 : 		{	// test if _Ptr points inside vector

  00000	55		 push	 ebp
  00001	8b ec		 mov	 ebp, esp

; 1286 : 		return (_Ptr < this->_Mylast && this->_Myfirst <= _Ptr);

  00003	8b 45 08	 mov	 eax, DWORD PTR __Ptr$[ebp]
  00006	3b 41 04	 cmp	 eax, DWORD PTR [ecx+4]
  00009	73 09		 jae	 SHORT $LN3@Inside
  0000b	39 01		 cmp	 DWORD PTR [ecx], eax
  0000d	77 05		 ja	 SHORT $LN3@Inside
  0000f	33 c0		 xor	 eax, eax
  00011	40		 inc	 eax
  00012	eb 02		 jmp	 SHORT $LN4@Inside
$LN3@Inside:
  00014	33 c0		 xor	 eax, eax
$LN4@Inside:

; 1287 : 		}

  00016	5d		 pop	 ebp
  00017	c2 04 00	 ret	 4
?_Inside@?$vector@VioHashString@@V?$allocator@VioHashString@@@std@@@std@@IBE_NPBVioHashString@@@Z ENDP ; std::vector<ioHashString,std::allocator<ioHashString> >::_Inside
_TEXT	ENDS
PUBLIC	?_Orphan_range@?$vector@VioHashString@@V?$allocator@VioHashString@@@std@@@std@@IBEXPAVioHashString@@0@Z ; std::vector<ioHashString,std::allocator<ioHashString> >::_Orphan_range
; Function compile flags: /Ogsp
;	COMDAT ?_Orphan_range@?$vector@VioHashString@@V?$allocator@VioHashString@@@std@@@std@@IBEXPAVioHashString@@0@Z
_TEXT	SEGMENT
___formal$ = 8						; size = 4
___formal$ = 12						; size = 4
?_Orphan_range@?$vector@VioHashString@@V?$allocator@VioHashString@@@std@@@std@@IBEXPAVioHashString@@0@Z PROC ; std::vector<ioHashString,std::allocator<ioHashString> >::_Orphan_range, COMDAT
; _this$ = ecx

; 1454 : 		}

  00000	c2 08 00	 ret	 8
?_Orphan_range@?$vector@VioHashString@@V?$allocator@VioHashString@@@std@@@std@@IBEXPAVioHashString@@0@Z ENDP ; std::vector<ioHashString,std::allocator<ioHashString> >::_Orphan_range
_TEXT	ENDS
PUBLIC	??1?$_Vector_val@UtagCostumeShopSubInfo@@V?$allocator@UtagCostumeShopSubInfo@@@std@@@std@@QAE@XZ ; std::_Vector_val<tagCostumeShopSubInfo,std::allocator<tagCostumeShopSubInfo> >::~_Vector_val<tagCostumeShopSubInfo,std::allocator<tagCostumeShopSubInfo> >
; Function compile flags: /Ogsp
;	COMDAT ??1?$_Vector_val@UtagCostumeShopSubInfo@@V?$allocator@UtagCostumeShopSubInfo@@@std@@@std@@QAE@XZ
_TEXT	SEGMENT
??1?$_Vector_val@UtagCostumeShopSubInfo@@V?$allocator@UtagCostumeShopSubInfo@@@std@@@std@@QAE@XZ PROC ; std::_Vector_val<tagCostumeShopSubInfo,std::allocator<tagCostumeShopSubInfo> >::~_Vector_val<tagCostumeShopSubInfo,std::allocator<tagCostumeShopSubInfo> >, COMDAT
; _this$ = ecx

; 434  : 		}

  00000	c3		 ret	 0
??1?$_Vector_val@UtagCostumeShopSubInfo@@V?$allocator@UtagCostumeShopSubInfo@@@std@@@std@@QAE@XZ ENDP ; std::_Vector_val<tagCostumeShopSubInfo,std::allocator<tagCostumeShopSubInfo> >::~_Vector_val<tagCostumeShopSubInfo,std::allocator<tagCostumeShopSubInfo> >
_TEXT	ENDS
PUBLIC	??0?$allocator@UtagCostumeShopSubInfo@@@std@@QAE@XZ ; std::allocator<tagCostumeShopSubInfo>::allocator<tagCostumeShopSubInfo>
; Function compile flags: /Ogsp
; File c:\program files (x86)\microsoft visual studio 10.0\vc\include\xmemory
;	COMDAT ??0?$allocator@UtagCostumeShopSubInfo@@@std@@QAE@XZ
_TEXT	SEGMENT
??0?$allocator@UtagCostumeShopSubInfo@@@std@@QAE@XZ PROC ; std::allocator<tagCostumeShopSubInfo>::allocator<tagCostumeShopSubInfo>, COMDAT
; _this$ = ecx

; 161  : 	_ALLOCATOR() _THROW0()

  00000	8b c1		 mov	 eax, ecx

; 162  : 		{	// construct default allocator (do nothing)
; 163  : 		}

  00002	c3		 ret	 0
??0?$allocator@UtagCostumeShopSubInfo@@@std@@QAE@XZ ENDP ; std::allocator<tagCostumeShopSubInfo>::allocator<tagCostumeShopSubInfo>
_TEXT	ENDS
PUBLIC	??D?$_Vector_const_iterator@V?$_Vector_val@UtagCostumeShopSubInfo@@V?$allocator@UtagCostumeShopSubInfo@@@std@@@std@@@std@@QBEABUtagCostumeShopSubInfo@@XZ ; std::_Vector_const_iterator<std::_Vector_val<tagCostumeShopSubInfo,std::allocator<tagCostumeShopSubInfo> > >::operator*
; Function compile flags: /Ogsp
; File c:\program files (x86)\microsoft visual studio 10.0\vc\include\vector
;	COMDAT ??D?$_Vector_const_iterator@V?$_Vector_val@UtagCostumeShopSubInfo@@V?$allocator@UtagCostumeShopSubInfo@@@std@@@std@@@std@@QBEABUtagCostumeShopSubInfo@@XZ
_TEXT	SEGMENT
??D?$_Vector_const_iterator@V?$_Vector_val@UtagCostumeShopSubInfo@@V?$allocator@UtagCostumeShopSubInfo@@@std@@@std@@@std@@QBEABUtagCostumeShopSubInfo@@XZ PROC ; std::_Vector_const_iterator<std::_Vector_val<tagCostumeShopSubInfo,std::allocator<tagCostumeShopSubInfo> > >::operator*, COMDAT
; _this$ = ecx

; 64   :  #if _ITERATOR_DEBUG_LEVEL == 2
; 65   : 		if (this->_Getcont() == 0
; 66   : 			|| this->_Ptr == 0
; 67   : 			|| this->_Ptr < ((_Myvec *)this->_Getcont())->_Myfirst
; 68   : 			|| ((_Myvec *)this->_Getcont())->_Mylast <= this->_Ptr)
; 69   : 			{	// report error
; 70   : 			_DEBUG_ERROR("vector iterator not dereferencable");
; 71   : 			_SCL_SECURE_OUT_OF_RANGE;
; 72   : 			}
; 73   : 
; 74   :  #elif _ITERATOR_DEBUG_LEVEL == 1
; 75   : 		_SCL_SECURE_VALIDATE(this->_Getcont() != 0);
; 76   : 		_SCL_SECURE_VALIDATE_RANGE(
; 77   : 			this->_Ptr != 0
; 78   : 			&& ((_Myvec *)this->_Getcont())->_Myfirst <= this->_Ptr
; 79   : 			&& this->_Ptr < ((_Myvec *)this->_Getcont())->_Mylast);
; 80   :  #endif /* _ITERATOR_DEBUG_LEVEL */
; 81   : 
; 82   : 		__analysis_assume(this->_Ptr != 0);
; 83   : 
; 84   : 		return (*this->_Ptr);

  00000	8b 01		 mov	 eax, DWORD PTR [ecx]

; 85   : 		}

  00002	c3		 ret	 0
??D?$_Vector_const_iterator@V?$_Vector_val@UtagCostumeShopSubInfo@@V?$allocator@UtagCostumeShopSubInfo@@@std@@@std@@@std@@QBEABUtagCostumeShopSubInfo@@XZ ENDP ; std::_Vector_const_iterator<std::_Vector_val<tagCostumeShopSubInfo,std::allocator<tagCostumeShopSubInfo> > >::operator*
_TEXT	ENDS
PUBLIC	??E?$_Vector_const_iterator@V?$_Vector_val@UtagCostumeShopSubInfo@@V?$allocator@UtagCostumeShopSubInfo@@@std@@@std@@@std@@QAEAAV01@XZ ; std::_Vector_const_iterator<std::_Vector_val<tagCostumeShopSubInfo,std::allocator<tagCostumeShopSubInfo> > >::operator++
; Function compile flags: /Ogsp
;	COMDAT ??E?$_Vector_const_iterator@V?$_Vector_val@UtagCostumeShopSubInfo@@V?$allocator@UtagCostumeShopSubInfo@@@std@@@std@@@std@@QAEAAV01@XZ
_TEXT	SEGMENT
??E?$_Vector_const_iterator@V?$_Vector_val@UtagCostumeShopSubInfo@@V?$allocator@UtagCostumeShopSubInfo@@@std@@@std@@@std@@QAEAAV01@XZ PROC ; std::_Vector_const_iterator<std::_Vector_val<tagCostumeShopSubInfo,std::allocator<tagCostumeShopSubInfo> > >::operator++, COMDAT
; _this$ = ecx

; 93   : 		{	// preincrement

  00000	8b c1		 mov	 eax, ecx

; 94   :  #if _ITERATOR_DEBUG_LEVEL == 2
; 95   : 		if (this->_Getcont() == 0
; 96   : 			|| this->_Ptr == 0
; 97   : 			|| ((_Myvec *)this->_Getcont())->_Mylast <= this->_Ptr)
; 98   : 			{	// report error
; 99   : 			_DEBUG_ERROR("vector iterator not incrementable");
; 100  : 			_SCL_SECURE_OUT_OF_RANGE;
; 101  : 			}
; 102  : 
; 103  :  #elif _ITERATOR_DEBUG_LEVEL == 1
; 104  : 		_SCL_SECURE_VALIDATE(this->_Getcont() != 0);
; 105  : 		_SCL_SECURE_VALIDATE_RANGE(
; 106  : 			this->_Ptr != 0
; 107  : 			&& this->_Ptr < ((_Myvec *)this->_Getcont())->_Mylast);
; 108  :  #endif /* _ITERATOR_DEBUG_LEVEL */
; 109  : 
; 110  : 		++this->_Ptr;

  00002	83 00 10	 add	 DWORD PTR [eax], 16	; 00000010H

; 111  : 		return (*this);
; 112  : 		}

  00005	c3		 ret	 0
??E?$_Vector_const_iterator@V?$_Vector_val@UtagCostumeShopSubInfo@@V?$allocator@UtagCostumeShopSubInfo@@@std@@@std@@@std@@QAEAAV01@XZ ENDP ; std::_Vector_const_iterator<std::_Vector_val<tagCostumeShopSubInfo,std::allocator<tagCostumeShopSubInfo> > >::operator++
_TEXT	ENDS
PUBLIC	??0?$allocator@UtagCostumeShopSubInfo@@@std@@QAE@ABV01@@Z ; std::allocator<tagCostumeShopSubInfo>::allocator<tagCostumeShopSubInfo>
; Function compile flags: /Ogsp
; File c:\program files (x86)\microsoft visual studio 10.0\vc\include\xmemory
;	COMDAT ??0?$allocator@UtagCostumeShopSubInfo@@@std@@QAE@ABV01@@Z
_TEXT	SEGMENT
___formal$ = 8						; size = 4
??0?$allocator@UtagCostumeShopSubInfo@@@std@@QAE@ABV01@@Z PROC ; std::allocator<tagCostumeShopSubInfo>::allocator<tagCostumeShopSubInfo>, COMDAT
; _this$ = ecx

; 165  : 	_ALLOCATOR(const _ALLOCATOR<_Ty>&) _THROW0()

  00000	8b c1		 mov	 eax, ecx

; 166  : 		{	// construct by copying (do nothing)
; 167  : 		}

  00002	c2 04 00	 ret	 4
??0?$allocator@UtagCostumeShopSubInfo@@@std@@QAE@ABV01@@Z ENDP ; std::allocator<tagCostumeShopSubInfo>::allocator<tagCostumeShopSubInfo>
_TEXT	ENDS
PUBLIC	?deallocate@?$allocator@UtagCostumeShopSubInfo@@@std@@QAEXPAUtagCostumeShopSubInfo@@I@Z ; std::allocator<tagCostumeShopSubInfo>::deallocate
; Function compile flags: /Ogsp
;	COMDAT ?deallocate@?$allocator@UtagCostumeShopSubInfo@@@std@@QAEXPAUtagCostumeShopSubInfo@@I@Z
_TEXT	SEGMENT
__Ptr$ = 8						; size = 4
___formal$ = 12						; size = 4
?deallocate@?$allocator@UtagCostumeShopSubInfo@@@std@@QAEXPAUtagCostumeShopSubInfo@@I@Z PROC ; std::allocator<tagCostumeShopSubInfo>::deallocate, COMDAT
; _this$ = ecx

; 181  : 		{	// deallocate object at _Ptr, ignore size

  00000	55		 push	 ebp
  00001	8b ec		 mov	 ebp, esp

; 182  : 		::operator delete(_Ptr);

  00003	ff 75 08	 push	 DWORD PTR __Ptr$[ebp]
  00006	e8 00 00 00 00	 call	 ??3@YAXPAX@Z		; operator delete
  0000b	59		 pop	 ecx

; 183  : 		}

  0000c	5d		 pop	 ebp
  0000d	c2 08 00	 ret	 8
?deallocate@?$allocator@UtagCostumeShopSubInfo@@@std@@QAEXPAUtagCostumeShopSubInfo@@I@Z ENDP ; std::allocator<tagCostumeShopSubInfo>::deallocate
_TEXT	ENDS
PUBLIC	?_Compat@?$_Vector_const_iterator@V?$_Vector_val@UtagCostumeShopSubInfo@@V?$allocator@UtagCostumeShopSubInfo@@@std@@@std@@@std@@QBEXABV12@@Z ; std::_Vector_const_iterator<std::_Vector_val<tagCostumeShopSubInfo,std::allocator<tagCostumeShopSubInfo> > >::_Compat
; Function compile flags: /Ogsp
; File c:\program files (x86)\microsoft visual studio 10.0\vc\include\vector
;	COMDAT ?_Compat@?$_Vector_const_iterator@V?$_Vector_val@UtagCostumeShopSubInfo@@V?$allocator@UtagCostumeShopSubInfo@@@std@@@std@@@std@@QBEXABV12@@Z
_TEXT	SEGMENT
___formal$ = 8						; size = 4
?_Compat@?$_Vector_const_iterator@V?$_Vector_val@UtagCostumeShopSubInfo@@V?$allocator@UtagCostumeShopSubInfo@@@std@@@std@@@std@@QBEXABV12@@Z PROC ; std::_Vector_const_iterator<std::_Vector_val<tagCostumeShopSubInfo,std::allocator<tagCostumeShopSubInfo> > >::_Compat, COMDAT
; _this$ = ecx

; 253  : 		}

  00000	c2 04 00	 ret	 4
?_Compat@?$_Vector_const_iterator@V?$_Vector_val@UtagCostumeShopSubInfo@@V?$allocator@UtagCostumeShopSubInfo@@@std@@@std@@@std@@QBEXABV12@@Z ENDP ; std::_Vector_const_iterator<std::_Vector_val<tagCostumeShopSubInfo,std::allocator<tagCostumeShopSubInfo> > >::_Compat
_TEXT	ENDS
PUBLIC	?_Adopt@_Iterator_base0@std@@QAEXPBX@Z		; std::_Iterator_base0::_Adopt
; Function compile flags: /Ogsp
; File c:\program files (x86)\microsoft visual studio 10.0\vc\include\xutility
;	COMDAT ?_Adopt@_Iterator_base0@std@@QAEXPBX@Z
_TEXT	SEGMENT
___formal$ = 8						; size = 4
?_Adopt@_Iterator_base0@std@@QAEXPBX@Z PROC		; std::_Iterator_base0::_Adopt, COMDAT
; _this$ = ecx

; 49   : 		}

  00000	c2 04 00	 ret	 4
?_Adopt@_Iterator_base0@std@@QAEXPBX@Z ENDP		; std::_Iterator_base0::_Adopt
_TEXT	ENDS
PUBLIC	??$addressof@$$CBVioHashString@@@std@@YAPBVioHashString@@ABV1@@Z ; std::addressof<ioHashString const >
; Function compile flags: /Ogsp
; File c:\program files (x86)\microsoft visual studio 10.0\vc\include\xmemory
;	COMDAT ??$addressof@$$CBVioHashString@@@std@@YAPBVioHashString@@ABV1@@Z
_TEXT	SEGMENT
__Val$ = 8						; size = 4
??$addressof@$$CBVioHashString@@@std@@YAPBVioHashString@@ABV1@@Z PROC ; std::addressof<ioHashString const >, COMDAT

; 110  : 	{	// return address of _Val

  00000	55		 push	 ebp
  00001	8b ec		 mov	 ebp, esp

; 111  : 	return ((_Ty *) &(char&)_Val);

  00003	8b 45 08	 mov	 eax, DWORD PTR __Val$[ebp]

; 112  : 	}

  00006	5d		 pop	 ebp
  00007	c3		 ret	 0
??$addressof@$$CBVioHashString@@@std@@YAPBVioHashString@@ABV1@@Z ENDP ; std::addressof<ioHashString const >
_TEXT	ENDS
PUBLIC	??$_Ptr_cat@UtagCostumeShopSubInfo@@U1@@std@@YA?AU_Nonscalar_ptr_iterator_tag@0@PAUtagCostumeShopSubInfo@@0@Z ; std::_Ptr_cat<tagCostumeShopSubInfo,tagCostumeShopSubInfo>
; Function compile flags: /Ogsp
; File c:\program files (x86)\microsoft visual studio 10.0\vc\include\xutility
;	COMDAT ??$_Ptr_cat@UtagCostumeShopSubInfo@@U1@@std@@YA?AU_Nonscalar_ptr_iterator_tag@0@PAUtagCostumeShopSubInfo@@0@Z
_TEXT	SEGMENT
__Cat$ = -1						; size = 1
___formal$ = 8						; size = 4
___formal$ = 12						; size = 4
??$_Ptr_cat@UtagCostumeShopSubInfo@@U1@@std@@YA?AU_Nonscalar_ptr_iterator_tag@0@PAUtagCostumeShopSubInfo@@0@Z PROC ; std::_Ptr_cat<tagCostumeShopSubInfo,tagCostumeShopSubInfo>, COMDAT

; 516  : 	{	// return pointer category from pointers

  00000	55		 push	 ebp
  00001	8b ec		 mov	 ebp, esp
  00003	51		 push	 ecx

; 517  : 	typename _Ptr_cat_helper<_Elem1, _Elem2>::_Type _Cat;
; 518  : 	return (_Cat);

  00004	8a 45 ff	 mov	 al, BYTE PTR __Cat$[ebp]

; 519  : 	}

  00007	c9		 leave
  00008	c3		 ret	 0
??$_Ptr_cat@UtagCostumeShopSubInfo@@U1@@std@@YA?AU_Nonscalar_ptr_iterator_tag@0@PAUtagCostumeShopSubInfo@@0@Z ENDP ; std::_Ptr_cat<tagCostumeShopSubInfo,tagCostumeShopSubInfo>
_TEXT	ENDS
PUBLIC	??$_Val_type@PAVioHashString@@@std@@YAPAVioHashString@@PAV1@@Z ; std::_Val_type<ioHashString *>
; Function compile flags: /Ogsp
;	COMDAT ??$_Val_type@PAVioHashString@@@std@@YAPAVioHashString@@PAV1@@Z
_TEXT	SEGMENT
___formal$ = 8						; size = 4
??$_Val_type@PAVioHashString@@@std@@YAPAVioHashString@@PAV1@@Z PROC ; std::_Val_type<ioHashString *>, COMDAT

; 790  : 	return (0);

  00000	33 c0		 xor	 eax, eax

; 791  : 	}

  00002	c3		 ret	 0
??$_Val_type@PAVioHashString@@@std@@YAPAVioHashString@@PAV1@@Z ENDP ; std::_Val_type<ioHashString *>
_TEXT	ENDS
PUBLIC	??$_Destroy@UtagCostumeShopSubInfo@@@std@@YAXPAUtagCostumeShopSubInfo@@@Z ; std::_Destroy<tagCostumeShopSubInfo>
; Function compile flags: /Ogsp
; File c:\program files (x86)\microsoft visual studio 10.0\vc\include\xmemory
;	COMDAT ??$_Destroy@UtagCostumeShopSubInfo@@@std@@YAXPAUtagCostumeShopSubInfo@@@Z
_TEXT	SEGMENT
__Ptr$ = 8						; size = 4
??$_Destroy@UtagCostumeShopSubInfo@@@std@@YAXPAUtagCostumeShopSubInfo@@@Z PROC ; std::_Destroy<tagCostumeShopSubInfo>, COMDAT

; 63   : 	_Ptr->~_Ty();
; 64   : 	}

  00000	c3		 ret	 0
??$_Destroy@UtagCostumeShopSubInfo@@@std@@YAXPAUtagCostumeShopSubInfo@@@Z ENDP ; std::_Destroy<tagCostumeShopSubInfo>
_TEXT	ENDS
PUBLIC	??$forward@VioHashString@@@std@@YA$$QAVioHashString@@AAV1@@Z ; std::forward<ioHashString>
; Function compile flags: /Ogsp
; File c:\program files (x86)\microsoft visual studio 10.0\vc\include\utility
;	COMDAT ??$forward@VioHashString@@@std@@YA$$QAVioHashString@@AAV1@@Z
_TEXT	SEGMENT
__Arg$ = 8						; size = 4
??$forward@VioHashString@@@std@@YA$$QAVioHashString@@AAV1@@Z PROC ; std::forward<ioHashString>, COMDAT

; 78   : 	{	// forward _Arg, given explicitly specified type parameter

  00000	55		 push	 ebp
  00001	8b ec		 mov	 ebp, esp

; 79   : 	return ((_Ty&&)_Arg);

  00003	8b 45 08	 mov	 eax, DWORD PTR __Arg$[ebp]

; 80   : 	}

  00006	5d		 pop	 ebp
  00007	c3		 ret	 0
??$forward@VioHashString@@@std@@YA$$QAVioHashString@@AAV1@@Z ENDP ; std::forward<ioHashString>
; Function compile flags: /Ogsp
; File c:\program files (x86)\microsoft sdks\windows\v7.0a\include\strsafe.h
_TEXT	ENDS
;	COMDAT ?StringValidateDestA@@YGJPBDII@Z
_TEXT	SEGMENT
_cchMax$ = 8						; size = 4
?StringValidateDestA@@YGJPBDII@Z PROC			; StringValidateDestA, COMDAT
; _cchDest$ = ecx

; 8721 : {

  00000	55		 push	 ebp
  00001	8b ec		 mov	 ebp, esp

; 8722 :     HRESULT hr = S_OK;

  00003	33 c0		 xor	 eax, eax

; 8723 : 
; 8724 :     if ((cchDest == 0) || (cchDest > cchMax))

  00005	85 c9		 test	 ecx, ecx
  00007	74 05		 je	 SHORT $LN1@StringVali
  00009	3b 4d 08	 cmp	 ecx, DWORD PTR _cchMax$[ebp]
  0000c	76 05		 jbe	 SHORT $LN2@StringVali
$LN1@StringVali:

; 8725 :     {
; 8726 :         hr = STRSAFE_E_INVALID_PARAMETER;

  0000e	b8 57 00 07 80	 mov	 eax, -2147024809	; 80070057H
$LN2@StringVali:

; 8727 :     }
; 8728 : 
; 8729 :     return hr;
; 8730 : }

  00013	5d		 pop	 ebp
  00014	c2 04 00	 ret	 4
?StringValidateDestA@@YGJPBDII@Z ENDP			; StringValidateDestA
_TEXT	ENDS
EXTRN	__imp___vsnprintf:PROC
; Function compile flags: /Ogsp
;	COMDAT ?StringVPrintfWorkerA@@YGJPADIPAIPBD0@Z
_TEXT	SEGMENT
_pcchNewDestLength$ = 8					; size = 4
_pszFormat$ = 12					; size = 4
_argList$ = 16						; size = 4
?StringVPrintfWorkerA@@YGJPADIPAIPBD0@Z PROC		; StringVPrintfWorkerA, COMDAT
; _pszDest$ = edi
; _cchDest$ = eax

; 9029 : {

  00000	55		 push	 ebp
  00001	8b ec		 mov	 ebp, esp
  00003	53		 push	 ebx
  00004	56		 push	 esi

; 9030 :     HRESULT hr = S_OK;
; 9031 :     int iRet;
; 9032 :     size_t cchMax;
; 9033 :     size_t cchNewDestLength = 0;
; 9034 : 
; 9035 :     // leave the last space for the null terminator
; 9036 :     cchMax = cchDest - 1;
; 9037 : 
; 9038 : #if (STRSAFE_USE_SECURE_CRT == 1) && !defined(STRSAFE_LIB_IMPL)
; 9039 :     iRet = _vsnprintf_s(pszDest, cchDest, cchMax, pszFormat, argList);
; 9040 : #else
; 9041 :     #pragma warning(push)
; 9042 :     #pragma warning(disable: __WARNING_BANNED_API_USAGE)// "STRSAFE not included"
; 9043 :     iRet = _vsnprintf(pszDest, cchMax, pszFormat, argList);

  00005	ff 75 10	 push	 DWORD PTR _argList$[ebp]
  00008	8d 70 ff	 lea	 esi, DWORD PTR [eax-1]
  0000b	ff 75 0c	 push	 DWORD PTR _pszFormat$[ebp]
  0000e	33 db		 xor	 ebx, ebx
  00010	56		 push	 esi
  00011	57		 push	 edi
  00012	ff 15 00 00 00
	00		 call	 DWORD PTR __imp___vsnprintf
  00018	83 c4 10	 add	 esp, 16			; 00000010H

; 9044 :     #pragma warning(pop)
; 9045 : #endif
; 9046 :     // ASSERT((iRet < 0) || (((size_t)iRet) <= cchMax));
; 9047 : 
; 9048 :     if ((iRet < 0) || (((size_t)iRet) > cchMax))

  0001b	85 c0		 test	 eax, eax
  0001d	78 0b		 js	 SHORT $LN5@StringVPri
  0001f	3b c6		 cmp	 eax, esi
  00021	77 07		 ja	 SHORT $LN5@StringVPri

; 9058 :     }
; 9059 :     else if (((size_t)iRet) == cchMax)

  00023	75 0f		 jne	 SHORT $LN2@StringVPri

; 9060 :     {
; 9061 :         // need to null terminate the string
; 9062 :         pszDest += cchMax;
; 9063 :         *pszDest = '\0';

  00025	88 1c 3e	 mov	 BYTE PTR [esi+edi], bl

; 9064 : 
; 9065 :         cchNewDestLength = cchMax;
; 9066 :     }
; 9067 :     else

  00028	eb 08		 jmp	 SHORT $LN9@StringVPri
$LN5@StringVPri:

; 9049 :     {
; 9050 :         // need to null terminate the string
; 9051 :         pszDest += cchMax;
; 9052 :         *pszDest = '\0';

  0002a	88 1c 3e	 mov	 BYTE PTR [esi+edi], bl

; 9055 : 
; 9056 :         // we have truncated pszDest
; 9057 :         hr = STRSAFE_E_INSUFFICIENT_BUFFER;

  0002d	bb 7a 00 07 80	 mov	 ebx, -2147024774	; 8007007aH
$LN9@StringVPri:

; 9053 : 
; 9054 :         cchNewDestLength = cchMax;

  00032	8b c6		 mov	 eax, esi
$LN2@StringVPri:

; 9068 :     {
; 9069 :         cchNewDestLength = (size_t)iRet;
; 9070 :     }
; 9071 : 
; 9072 :     if (pcchNewDestLength)

  00034	8b 4d 08	 mov	 ecx, DWORD PTR _pcchNewDestLength$[ebp]
  00037	85 c9		 test	 ecx, ecx
  00039	74 02		 je	 SHORT $LN1@StringVPri

; 9073 :     {
; 9074 :         *pcchNewDestLength = cchNewDestLength;

  0003b	89 01		 mov	 DWORD PTR [ecx], eax
$LN1@StringVPri:
  0003d	5e		 pop	 esi

; 9075 :     }
; 9076 : 
; 9077 :     return hr;

  0003e	8b c3		 mov	 eax, ebx
  00040	5b		 pop	 ebx

; 9078 : }

  00041	5d		 pop	 ebp
  00042	c2 0c 00	 ret	 12			; 0000000cH
?StringVPrintfWorkerA@@YGJPADIPAIPBD0@Z ENDP		; StringVPrintfWorkerA
_TEXT	ENDS
PUBLIC	?_DECSTR@@YAXPADH@Z				; _DECSTR
; Function compile flags: /Ogsp
; File d:\lost saga for developer\youtube\tutorial\source\src\lsclient\stringprotect.h
;	COMDAT ?_DECSTR@@YAXPADH@Z
_TEXT	SEGMENT
_s$ = 8							; size = 4
_l$ = 12						; size = 4
?_DECSTR@@YAXPADH@Z PROC				; _DECSTR, COMDAT

; 40   : __forceinline void _DECSTR(char* s, int l){int i=0,l4=(l-1)/4,*p=(int*)s;s[l-1]=0;for(;i<l4;++i)*(p++)^=0xEAEBECED;for(i=l4*4;i<l-1;++i)s[i]^=0xED-i%4;}

  00000	55		 push	 ebp
  00001	8b ec		 mov	 ebp, esp
  00003	8b 4d 0c	 mov	 ecx, DWORD PTR _l$[ebp]
  00006	56		 push	 esi
  00007	8b 75 08	 mov	 esi, DWORD PTR _s$[ebp]
  0000a	57		 push	 edi
  0000b	8d 79 ff	 lea	 edi, DWORD PTR [ecx-1]
  0000e	8b c7		 mov	 eax, edi
  00010	99		 cdq
  00011	83 e2 03	 and	 edx, 3
  00014	03 c2		 add	 eax, edx
  00016	c1 f8 02	 sar	 eax, 2
  00019	8b d6		 mov	 edx, esi
  0001b	c6 44 0e ff 00	 mov	 BYTE PTR [esi+ecx-1], 0
  00020	85 c0		 test	 eax, eax
  00022	7e 0e		 jle	 SHORT $LN4@DECSTR
  00024	8b c8		 mov	 ecx, eax
$LL6@DECSTR:
  00026	81 32 ed ec eb
	ea		 xor	 DWORD PTR [edx], -353637139 ; eaebecedH
  0002c	83 c2 04	 add	 edx, 4
  0002f	49		 dec	 ecx
  00030	75 f4		 jne	 SHORT $LL6@DECSTR
$LN4@DECSTR:
  00032	c1 e0 02	 shl	 eax, 2
  00035	eb 17		 jmp	 SHORT $LN14@DECSTR
$LL3@DECSTR:
  00037	8b c8		 mov	 ecx, eax
  00039	81 e1 03 00 00
	80		 and	 ecx, -2147483645	; 80000003H
  0003f	79 05		 jns	 SHORT $LN13@DECSTR
  00041	49		 dec	 ecx
  00042	83 c9 fc	 or	 ecx, -4			; fffffffcH
  00045	41		 inc	 ecx
$LN13@DECSTR:
  00046	b2 ed		 mov	 dl, -19			; ffffffedH
  00048	2a d1		 sub	 dl, cl
  0004a	30 14 30	 xor	 BYTE PTR [eax+esi], dl
  0004d	40		 inc	 eax
$LN14@DECSTR:
  0004e	3b c7		 cmp	 eax, edi
  00050	7c e5		 jl	 SHORT $LL3@DECSTR
  00052	5f		 pop	 edi
  00053	5e		 pop	 esi
  00054	5d		 pop	 ebp
  00055	c3		 ret	 0
?_DECSTR@@YAXPADH@Z ENDP				; _DECSTR
_TEXT	ENDS
PUBLIC	__real@3f800000
PUBLIC	?Init@tagCostumeInfo@@QAEXXZ			; tagCostumeInfo::Init
EXTRN	__imp_?Clear@ioHashString@@QAEXXZ:PROC
;	COMDAT __real@3f800000
; File d:\lost saga for developer\youtube\tutorial\source\src\lsclient\costumeenumtype.h
CONST	SEGMENT
__real@3f800000 DD 03f800000r			; 1
; Function compile flags: /Ogsp
CONST	ENDS
;	COMDAT ?Init@tagCostumeInfo@@QAEXXZ
_TEXT	SEGMENT
?Init@tagCostumeInfo@@QAEXXZ PROC			; tagCostumeInfo::Init, COMDAT
; _this$ = ecx

; 111  : 		m_nCostumeCode = 0;
; 112  : 		m_nGradeType = 0;
; 113  : 		m_GlowColor.r = 0.0f;

  00000	0f 57 c0	 xorps	 xmm0, xmm0
  00003	53		 push	 ebx
  00004	56		 push	 esi
  00005	8b f1		 mov	 esi, ecx
  00007	57		 push	 edi

; 114  : 		m_GlowColor.g = 0.0f;
; 115  : 		m_GlowColor.b = 0.0f;
; 116  : 		m_GlowColor.a = 1.0f;
; 117  : 
; 118  : 		m_szEffect.Clear();

  00008	8b 3d 00 00 00
	00		 mov	 edi, DWORD PTR __imp_?Clear@ioHashString@@QAEXXZ
  0000e	33 db		 xor	 ebx, ebx
  00010	f3 0f 11 46 08	 movss	 DWORD PTR [esi+8], xmm0
  00015	f3 0f 11 46 0c	 movss	 DWORD PTR [esi+12], xmm0
  0001a	f3 0f 11 46 10	 movss	 DWORD PTR [esi+16], xmm0
  0001f	f3 0f 10 05 00
	00 00 00	 movss	 xmm0, DWORD PTR __real@3f800000
  00027	8d 4e 18	 lea	 ecx, DWORD PTR [esi+24]
  0002a	89 1e		 mov	 DWORD PTR [esi], ebx
  0002c	89 5e 04	 mov	 DWORD PTR [esi+4], ebx
  0002f	f3 0f 11 46 14	 movss	 DWORD PTR [esi+20], xmm0
  00034	ff d7		 call	 edi

; 119  : 		m_szEffectHW.Clear();

  00036	8d 4e 28	 lea	 ecx, DWORD PTR [esi+40]
  00039	ff d7		 call	 edi

; 120  : 		m_szSpring_Biped.Clear();

  0003b	8d 4e 38	 lea	 ecx, DWORD PTR [esi+56]
  0003e	ff d7		 call	 edi

; 121  : 		
; 122  : 		m_nArmorType = 0;
; 123  : 		m_nArmorSoundType = 0;
; 124  : 		m_szBodyMesh.Clear();

  00040	8d 4e 50	 lea	 ecx, DWORD PTR [esi+80]
  00043	89 5e 48	 mov	 DWORD PTR [esi+72], ebx
  00046	89 5e 4c	 mov	 DWORD PTR [esi+76], ebx
  00049	ff d7		 call	 edi

; 125  : 		m_szHandMesh.Clear();

  0004b	8d 4e 60	 lea	 ecx, DWORD PTR [esi+96]
  0004e	ff d7		 call	 edi

; 126  : 
; 127  : 		m_nInvisibleFaceType = 0;
; 128  : 		m_nFaceHM = 0;
; 129  : 		m_nFaceHW = 0;
; 130  : 
; 131  : 		m_nHairHM = 0;
; 132  : 		m_nHairHW = 0;
; 133  : 		m_szHelmetMesh.Clear();

  00050	8d 8e 84 00 00
	00		 lea	 ecx, DWORD PTR [esi+132]
  00056	89 5e 70	 mov	 DWORD PTR [esi+112], ebx
  00059	89 5e 74	 mov	 DWORD PTR [esi+116], ebx
  0005c	89 5e 78	 mov	 DWORD PTR [esi+120], ebx
  0005f	89 5e 7c	 mov	 DWORD PTR [esi+124], ebx
  00062	89 9e 80 00 00
	00		 mov	 DWORD PTR [esi+128], ebx
  00068	ff d7		 call	 edi

; 134  : 
; 135  : 		m_szCloakMesh.Clear();

  0006a	8d 8e 94 00 00
	00		 lea	 ecx, DWORD PTR [esi+148]
  00070	ff d7		 call	 edi

; 136  : 
; 137  : 		m_pCostumeSpringParam = NULL;
; 138  : 
; 139  : 		m_szName.Clear();

  00072	8d 8e a8 00 00
	00		 lea	 ecx, DWORD PTR [esi+168]
  00078	89 9e a4 00 00
	00		 mov	 DWORD PTR [esi+164], ebx
  0007e	ff d7		 call	 edi

; 140  : 		m_szIconName.Clear();

  00080	8d 8e b8 00 00
	00		 lea	 ecx, DWORD PTR [esi+184]
  00086	ff d7		 call	 edi
  00088	5f		 pop	 edi

; 141  : 
; 142  : 		m_nEnableClass = 0;

  00089	89 9e c8 00 00
	00		 mov	 DWORD PTR [esi+200], ebx

; 143  : 		m_nManual = 0;

  0008f	89 9e cc 00 00
	00		 mov	 DWORD PTR [esi+204], ebx

; 144  : 		m_nDisassembleCode = 0;

  00095	89 9e d0 00 00
	00		 mov	 DWORD PTR [esi+208], ebx

; 145  : 		m_nDisassembleMinCnt = 0;

  0009b	89 9e d4 00 00
	00		 mov	 DWORD PTR [esi+212], ebx

; 146  : 		m_nDisassembleMaxCnt = 0;

  000a1	89 9e d8 00 00
	00		 mov	 DWORD PTR [esi+216], ebx
  000a7	5e		 pop	 esi
  000a8	5b		 pop	 ebx

; 147  : 	}

  000a9	c3		 ret	 0
?Init@tagCostumeInfo@@QAEXXZ ENDP			; tagCostumeInfo::Init
_TEXT	ENDS
PUBLIC	??0tagCostumeInfo@@QAE@XZ			; tagCostumeInfo::tagCostumeInfo
EXTRN	__imp_??0ioHashString@@QAE@XZ:PROC
;	COMDAT xdata$x
xdata$x	SEGMENT
__ehfuncinfo$??0tagCostumeInfo@@QAE@XZ DD 019930522H
	DD	09H
	DD	FLAT:__unwindtable$??0tagCostumeInfo@@QAE@XZ
	DD	2 DUP(00H)
	DD	2 DUP(00H)
	DD	00H
	DD	01H
__unwindtable$??0tagCostumeInfo@@QAE@XZ DD 0ffffffffH
	DD	FLAT:__unwindfunclet$??0tagCostumeInfo@@QAE@XZ$0
	DD	00H
	DD	FLAT:__unwindfunclet$??0tagCostumeInfo@@QAE@XZ$1
	DD	01H
	DD	FLAT:__unwindfunclet$??0tagCostumeInfo@@QAE@XZ$2
	DD	02H
	DD	FLAT:__unwindfunclet$??0tagCostumeInfo@@QAE@XZ$3
	DD	03H
	DD	FLAT:__unwindfunclet$??0tagCostumeInfo@@QAE@XZ$4
	DD	04H
	DD	FLAT:__unwindfunclet$??0tagCostumeInfo@@QAE@XZ$5
	DD	05H
	DD	FLAT:__unwindfunclet$??0tagCostumeInfo@@QAE@XZ$6
	DD	06H
	DD	FLAT:__unwindfunclet$??0tagCostumeInfo@@QAE@XZ$7
	DD	07H
	DD	FLAT:__unwindfunclet$??0tagCostumeInfo@@QAE@XZ$8
; Function compile flags: /Ogsp
xdata$x	ENDS
;	COMDAT ??0tagCostumeInfo@@QAE@XZ
_TEXT	SEGMENT
_this$ = -16						; size = 4
__$EHRec$ = -12						; size = 12
??0tagCostumeInfo@@QAE@XZ PROC				; tagCostumeInfo::tagCostumeInfo, COMDAT
; _this$ = ecx

; 149  : 	tagCostumeInfo()

  00000	6a 04		 push	 4
  00002	b8 00 00 00 00	 mov	 eax, __ehhandler$??0tagCostumeInfo@@QAE@XZ
  00007	e8 00 00 00 00	 call	 __EH_prolog3
  0000c	8b f9		 mov	 edi, ecx
  0000e	89 7d f0	 mov	 DWORD PTR _this$[ebp], edi
  00011	8b 35 00 00 00
	00		 mov	 esi, DWORD PTR __imp_??0ioHashString@@QAE@XZ
  00017	8d 4f 18	 lea	 ecx, DWORD PTR [edi+24]
  0001a	ff d6		 call	 esi
  0001c	83 65 fc 00	 and	 DWORD PTR __$EHRec$[ebp+8], 0
  00020	8d 4f 28	 lea	 ecx, DWORD PTR [edi+40]
  00023	ff d6		 call	 esi
  00025	8d 4f 38	 lea	 ecx, DWORD PTR [edi+56]
  00028	c6 45 fc 01	 mov	 BYTE PTR __$EHRec$[ebp+8], 1
  0002c	ff d6		 call	 esi
  0002e	8d 4f 50	 lea	 ecx, DWORD PTR [edi+80]
  00031	c6 45 fc 02	 mov	 BYTE PTR __$EHRec$[ebp+8], 2
  00035	ff d6		 call	 esi
  00037	8d 4f 60	 lea	 ecx, DWORD PTR [edi+96]
  0003a	c6 45 fc 03	 mov	 BYTE PTR __$EHRec$[ebp+8], 3
  0003e	ff d6		 call	 esi
  00040	8d 8f 84 00 00
	00		 lea	 ecx, DWORD PTR [edi+132]
  00046	c6 45 fc 04	 mov	 BYTE PTR __$EHRec$[ebp+8], 4
  0004a	ff d6		 call	 esi
  0004c	8d 8f 94 00 00
	00		 lea	 ecx, DWORD PTR [edi+148]
  00052	c6 45 fc 05	 mov	 BYTE PTR __$EHRec$[ebp+8], 5
  00056	ff d6		 call	 esi
  00058	8d 8f a8 00 00
	00		 lea	 ecx, DWORD PTR [edi+168]
  0005e	c6 45 fc 06	 mov	 BYTE PTR __$EHRec$[ebp+8], 6
  00062	ff d6		 call	 esi
  00064	8d 8f b8 00 00
	00		 lea	 ecx, DWORD PTR [edi+184]
  0006a	c6 45 fc 07	 mov	 BYTE PTR __$EHRec$[ebp+8], 7
  0006e	ff d6		 call	 esi

; 150  : 	{
; 151  : 		Init();

  00070	8b cf		 mov	 ecx, edi
  00072	c6 45 fc 08	 mov	 BYTE PTR __$EHRec$[ebp+8], 8
  00076	e8 00 00 00 00	 call	 ?Init@tagCostumeInfo@@QAEXXZ ; tagCostumeInfo::Init

; 152  : 	}

  0007b	8b c7		 mov	 eax, edi
  0007d	e8 00 00 00 00	 call	 __EH_epilog3
  00082	c3		 ret	 0
_TEXT	ENDS
;	COMDAT text$x
text$x	SEGMENT
__unwindfunclet$??0tagCostumeInfo@@QAE@XZ$0:
  00000	8b 4d f0	 mov	 ecx, DWORD PTR _this$[ebp]
  00003	83 c1 18	 add	 ecx, 24			; 00000018H
  00006	ff 25 00 00 00
	00		 jmp	 DWORD PTR __imp_??1ioHashString@@QAE@XZ
__unwindfunclet$??0tagCostumeInfo@@QAE@XZ$1:
  0000c	8b 4d f0	 mov	 ecx, DWORD PTR _this$[ebp]
  0000f	83 c1 28	 add	 ecx, 40			; 00000028H
  00012	ff 25 00 00 00
	00		 jmp	 DWORD PTR __imp_??1ioHashString@@QAE@XZ
__unwindfunclet$??0tagCostumeInfo@@QAE@XZ$2:
  00018	8b 4d f0	 mov	 ecx, DWORD PTR _this$[ebp]
  0001b	83 c1 38	 add	 ecx, 56			; 00000038H
  0001e	ff 25 00 00 00
	00		 jmp	 DWORD PTR __imp_??1ioHashString@@QAE@XZ
__unwindfunclet$??0tagCostumeInfo@@QAE@XZ$3:
  00024	8b 4d f0	 mov	 ecx, DWORD PTR _this$[ebp]
  00027	83 c1 50	 add	 ecx, 80			; 00000050H
  0002a	ff 25 00 00 00
	00		 jmp	 DWORD PTR __imp_??1ioHashString@@QAE@XZ
__unwindfunclet$??0tagCostumeInfo@@QAE@XZ$4:
  00030	8b 4d f0	 mov	 ecx, DWORD PTR _this$[ebp]
  00033	83 c1 60	 add	 ecx, 96			; 00000060H
  00036	ff 25 00 00 00
	00		 jmp	 DWORD PTR __imp_??1ioHashString@@QAE@XZ
__unwindfunclet$??0tagCostumeInfo@@QAE@XZ$5:
  0003c	8b 4d f0	 mov	 ecx, DWORD PTR _this$[ebp]
  0003f	81 c1 84 00 00
	00		 add	 ecx, 132		; 00000084H
  00045	ff 25 00 00 00
	00		 jmp	 DWORD PTR __imp_??1ioHashString@@QAE@XZ
__unwindfunclet$??0tagCostumeInfo@@QAE@XZ$6:
  0004b	8b 4d f0	 mov	 ecx, DWORD PTR _this$[ebp]
  0004e	81 c1 94 00 00
	00		 add	 ecx, 148		; 00000094H
  00054	ff 25 00 00 00
	00		 jmp	 DWORD PTR __imp_??1ioHashString@@QAE@XZ
__unwindfunclet$??0tagCostumeInfo@@QAE@XZ$7:
  0005a	8b 4d f0	 mov	 ecx, DWORD PTR _this$[ebp]
  0005d	81 c1 a8 00 00
	00		 add	 ecx, 168		; 000000a8H
  00063	ff 25 00 00 00
	00		 jmp	 DWORD PTR __imp_??1ioHashString@@QAE@XZ
__unwindfunclet$??0tagCostumeInfo@@QAE@XZ$8:
  00069	8b 4d f0	 mov	 ecx, DWORD PTR _this$[ebp]
  0006c	81 c1 b8 00 00
	00		 add	 ecx, 184		; 000000b8H
  00072	ff 25 00 00 00
	00		 jmp	 DWORD PTR __imp_??1ioHashString@@QAE@XZ
__ehhandler$??0tagCostumeInfo@@QAE@XZ:
  00078	8b 54 24 08	 mov	 edx, DWORD PTR [esp+8]
  0007c	8d 42 0c	 lea	 eax, DWORD PTR [edx+12]
  0007f	8b 4a ec	 mov	 ecx, DWORD PTR [edx-20]
  00082	33 c8		 xor	 ecx, eax
  00084	e8 00 00 00 00	 call	 @__security_check_cookie@4
  00089	b8 00 00 00 00	 mov	 eax, OFFSET __ehfuncinfo$??0tagCostumeInfo@@QAE@XZ
  0008e	e9 00 00 00 00	 jmp	 ___CxxFrameHandler3
text$x	ENDS
??0tagCostumeInfo@@QAE@XZ ENDP				; tagCostumeInfo::tagCostumeInfo
PUBLIC	?size@?$vector@VioHashString@@V?$allocator@VioHashString@@@std@@@std@@QBEIXZ ; std::vector<ioHashString,std::allocator<ioHashString> >::size
; Function compile flags: /Ogsp
; File c:\program files (x86)\microsoft visual studio 10.0\vc\include\vector
;	COMDAT ?size@?$vector@VioHashString@@V?$allocator@VioHashString@@@std@@@std@@QBEIXZ
_TEXT	SEGMENT
?size@?$vector@VioHashString@@V?$allocator@VioHashString@@@std@@@std@@QBEIXZ PROC ; std::vector<ioHashString,std::allocator<ioHashString> >::size, COMDAT
; _this$ = ecx

; 879  : 		return (this->_Mylast - this->_Myfirst);

  00000	8b 41 04	 mov	 eax, DWORD PTR [ecx+4]
  00003	2b 01		 sub	 eax, DWORD PTR [ecx]
  00005	c1 f8 04	 sar	 eax, 4

; 880  : 		}

  00008	c3		 ret	 0
?size@?$vector@VioHashString@@V?$allocator@VioHashString@@@std@@@std@@QBEIXZ ENDP ; std::vector<ioHashString,std::allocator<ioHashString> >::size
_TEXT	ENDS
PUBLIC	??1?$_Vector_val@VioHashString@@V?$allocator@VioHashString@@@std@@@std@@QAE@XZ ; std::_Vector_val<ioHashString,std::allocator<ioHashString> >::~_Vector_val<ioHashString,std::allocator<ioHashString> >
; Function compile flags: /Ogsp
;	COMDAT ??1?$_Vector_val@VioHashString@@V?$allocator@VioHashString@@@std@@@std@@QAE@XZ
_TEXT	SEGMENT
??1?$_Vector_val@VioHashString@@V?$allocator@VioHashString@@@std@@@std@@QAE@XZ PROC ; std::_Vector_val<ioHashString,std::allocator<ioHashString> >::~_Vector_val<ioHashString,std::allocator<ioHashString> >, COMDAT
; _this$ = ecx

; 434  : 		}

  00000	c3		 ret	 0
??1?$_Vector_val@VioHashString@@V?$allocator@VioHashString@@@std@@@std@@QAE@XZ ENDP ; std::_Vector_val<ioHashString,std::allocator<ioHashString> >::~_Vector_val<ioHashString,std::allocator<ioHashString> >
_TEXT	ENDS
PUBLIC	??0?$allocator@VioHashString@@@std@@QAE@XZ	; std::allocator<ioHashString>::allocator<ioHashString>
; Function compile flags: /Ogsp
; File c:\program files (x86)\microsoft visual studio 10.0\vc\include\xmemory
;	COMDAT ??0?$allocator@VioHashString@@@std@@QAE@XZ
_TEXT	SEGMENT
??0?$allocator@VioHashString@@@std@@QAE@XZ PROC		; std::allocator<ioHashString>::allocator<ioHashString>, COMDAT
; _this$ = ecx

; 161  : 	_ALLOCATOR() _THROW0()

  00000	8b c1		 mov	 eax, ecx

; 162  : 		{	// construct default allocator (do nothing)
; 163  : 		}

  00002	c3		 ret	 0
??0?$allocator@VioHashString@@@std@@QAE@XZ ENDP		; std::allocator<ioHashString>::allocator<ioHashString>
_TEXT	ENDS
PUBLIC	??0?$allocator@VioHashString@@@std@@QAE@ABV01@@Z ; std::allocator<ioHashString>::allocator<ioHashString>
; Function compile flags: /Ogsp
;	COMDAT ??0?$allocator@VioHashString@@@std@@QAE@ABV01@@Z
_TEXT	SEGMENT
___formal$ = 8						; size = 4
??0?$allocator@VioHashString@@@std@@QAE@ABV01@@Z PROC	; std::allocator<ioHashString>::allocator<ioHashString>, COMDAT
; _this$ = ecx

; 165  : 	_ALLOCATOR(const _ALLOCATOR<_Ty>&) _THROW0()

  00000	8b c1		 mov	 eax, ecx

; 166  : 		{	// construct by copying (do nothing)
; 167  : 		}

  00002	c2 04 00	 ret	 4
??0?$allocator@VioHashString@@@std@@QAE@ABV01@@Z ENDP	; std::allocator<ioHashString>::allocator<ioHashString>
_TEXT	ENDS
PUBLIC	??_C@_0BD@OLBABOEK@vector?$DMT?$DO?5too?5long?$AA@ ; `string'
PUBLIC	?_Xlen@?$vector@VioHashString@@V?$allocator@VioHashString@@@std@@@std@@IBEXXZ ; std::vector<ioHashString,std::allocator<ioHashString> >::_Xlen
EXTRN	__imp_?_Xlength_error@std@@YAXPBD@Z:PROC
;	COMDAT ??_C@_0BD@OLBABOEK@vector?$DMT?$DO?5too?5long?$AA@
; File c:\program files (x86)\microsoft visual studio 10.0\vc\include\vector
CONST	SEGMENT
??_C@_0BD@OLBABOEK@vector?$DMT?$DO?5too?5long?$AA@ DB 'vector<T> too long'
	DB	00H						; `string'
; Function compile flags: /Ogsp
CONST	ENDS
;	COMDAT ?_Xlen@?$vector@VioHashString@@V?$allocator@VioHashString@@@std@@@std@@IBEXXZ
_TEXT	SEGMENT
?_Xlen@?$vector@VioHashString@@V?$allocator@VioHashString@@@std@@@std@@IBEXXZ PROC ; std::vector<ioHashString,std::allocator<ioHashString> >::_Xlen, COMDAT
; _this$ = ecx

; 1427 : 		_Xlength_error("vector<T> too long");

  00000	68 00 00 00 00	 push	 OFFSET ??_C@_0BD@OLBABOEK@vector?$DMT?$DO?5too?5long?$AA@
  00005	ff 15 00 00 00
	00		 call	 DWORD PTR __imp_?_Xlength_error@std@@YAXPBD@Z
$LN4@Xlen:
$LN3@Xlen:
  0000b	cc		 int	 3
?_Xlen@?$vector@VioHashString@@V?$allocator@VioHashString@@@std@@@std@@IBEXXZ ENDP ; std::vector<ioHashString,std::allocator<ioHashString> >::_Xlen
_TEXT	ENDS
PUBLIC	?deallocate@?$allocator@VioHashString@@@std@@QAEXPAVioHashString@@I@Z ; std::allocator<ioHashString>::deallocate
; Function compile flags: /Ogsp
; File c:\program files (x86)\microsoft visual studio 10.0\vc\include\xmemory
;	COMDAT ?deallocate@?$allocator@VioHashString@@@std@@QAEXPAVioHashString@@I@Z
_TEXT	SEGMENT
__Ptr$ = 8						; size = 4
___formal$ = 12						; size = 4
?deallocate@?$allocator@VioHashString@@@std@@QAEXPAVioHashString@@I@Z PROC ; std::allocator<ioHashString>::deallocate, COMDAT
; _this$ = ecx

; 181  : 		{	// deallocate object at _Ptr, ignore size

  00000	55		 push	 ebp
  00001	8b ec		 mov	 ebp, esp

; 182  : 		::operator delete(_Ptr);

  00003	ff 75 08	 push	 DWORD PTR __Ptr$[ebp]
  00006	e8 00 00 00 00	 call	 ??3@YAXPAX@Z		; operator delete
  0000b	59		 pop	 ecx

; 183  : 		}

  0000c	5d		 pop	 ebp
  0000d	c2 08 00	 ret	 8
?deallocate@?$allocator@VioHashString@@@std@@QAEXPAVioHashString@@I@Z ENDP ; std::allocator<ioHashString>::deallocate
_TEXT	ENDS
PUBLIC	??0?$_Vector_const_iterator@V?$_Vector_val@VioHashString@@V?$allocator@VioHashString@@@std@@@std@@@std@@QAE@PAVioHashString@@PBU_Container_base0@1@@Z ; std::_Vector_const_iterator<std::_Vector_val<ioHashString,std::allocator<ioHashString> > >::_Vector_const_iterator<std::_Vector_val<ioHashString,std::allocator<ioHashString> > >
; Function compile flags: /Ogsp
; File c:\program files (x86)\microsoft visual studio 10.0\vc\include\vector
;	COMDAT ??0?$_Vector_const_iterator@V?$_Vector_val@VioHashString@@V?$allocator@VioHashString@@@std@@@std@@@std@@QAE@PAVioHashString@@PBU_Container_base0@1@@Z
_TEXT	SEGMENT
__Parg$ = 8						; size = 4
__Pvector$ = 12						; size = 4
??0?$_Vector_const_iterator@V?$_Vector_val@VioHashString@@V?$allocator@VioHashString@@@std@@@std@@@std@@QAE@PAVioHashString@@PBU_Container_base0@1@@Z PROC ; std::_Vector_const_iterator<std::_Vector_val<ioHashString,std::allocator<ioHashString> > >::_Vector_const_iterator<std::_Vector_val<ioHashString,std::allocator<ioHashString> > >, COMDAT
; _this$ = ecx

; 45   : 		{	// construct with pointer _Parg

  00000	55		 push	 ebp
  00001	8b ec		 mov	 ebp, esp
  00003	8b c1		 mov	 eax, ecx
  00005	8b 4d 08	 mov	 ecx, DWORD PTR __Parg$[ebp]
  00008	89 08		 mov	 DWORD PTR [eax], ecx

; 46   : 		this->_Adopt(_Pvector);
; 47   : 		}

  0000a	5d		 pop	 ebp
  0000b	c2 08 00	 ret	 8
??0?$_Vector_const_iterator@V?$_Vector_val@VioHashString@@V?$allocator@VioHashString@@@std@@@std@@@std@@QAE@PAVioHashString@@PBU_Container_base0@1@@Z ENDP ; std::_Vector_const_iterator<std::_Vector_val<ioHashString,std::allocator<ioHashString> > >::_Vector_const_iterator<std::_Vector_val<ioHashString,std::allocator<ioHashString> > >
_TEXT	ENDS
PUBLIC	??0?$_Vector_iterator@V?$_Vector_val@VioHashString@@V?$allocator@VioHashString@@@std@@@std@@@std@@QAE@PAVioHashString@@PBU_Container_base0@1@@Z ; std::_Vector_iterator<std::_Vector_val<ioHashString,std::allocator<ioHashString> > >::_Vector_iterator<std::_Vector_val<ioHashString,std::allocator<ioHashString> > >
; Function compile flags: /Ogsp
;	COMDAT ??0?$_Vector_iterator@V?$_Vector_val@VioHashString@@V?$allocator@VioHashString@@@std@@@std@@@std@@QAE@PAVioHashString@@PBU_Container_base0@1@@Z
_TEXT	SEGMENT
__Parg$ = 8						; size = 4
__Pvector$ = 12						; size = 4
??0?$_Vector_iterator@V?$_Vector_val@VioHashString@@V?$allocator@VioHashString@@@std@@@std@@@std@@QAE@PAVioHashString@@PBU_Container_base0@1@@Z PROC ; std::_Vector_iterator<std::_Vector_val<ioHashString,std::allocator<ioHashString> > >::_Vector_iterator<std::_Vector_val<ioHashString,std::allocator<ioHashString> > >, COMDAT
; _this$ = ecx

; 304  : 		{	// construct with pointer _Parg

  00000	55		 push	 ebp
  00001	8b ec		 mov	 ebp, esp
  00003	8b c1		 mov	 eax, ecx
  00005	8b 4d 08	 mov	 ecx, DWORD PTR __Parg$[ebp]
  00008	89 08		 mov	 DWORD PTR [eax], ecx

; 305  : 		}

  0000a	5d		 pop	 ebp
  0000b	c2 08 00	 ret	 8
??0?$_Vector_iterator@V?$_Vector_val@VioHashString@@V?$allocator@VioHashString@@@std@@@std@@@std@@QAE@PAVioHashString@@PBU_Container_base0@1@@Z ENDP ; std::_Vector_iterator<std::_Vector_val<ioHashString,std::allocator<ioHashString> > >::_Vector_iterator<std::_Vector_val<ioHashString,std::allocator<ioHashString> > >
_TEXT	ENDS
PUBLIC	?max_size@?$allocator@VioHashString@@@std@@QBEIXZ ; std::allocator<ioHashString>::max_size
; Function compile flags: /Ogsp
; File c:\program files (x86)\microsoft visual studio 10.0\vc\include\xmemory
;	COMDAT ?max_size@?$allocator@VioHashString@@@std@@QBEIXZ
_TEXT	SEGMENT
?max_size@?$allocator@VioHashString@@@std@@QBEIXZ PROC	; std::allocator<ioHashString>::max_size, COMDAT
; _this$ = ecx

; 218  : 		_SIZT _Count = (_SIZT)(-1) / sizeof (_Ty);
; 219  : 		return (0 < _Count ? _Count : 1);

  00000	b8 ff ff ff 0f	 mov	 eax, 268435455		; 0fffffffH

; 220  : 		}

  00005	c3		 ret	 0
?max_size@?$allocator@VioHashString@@@std@@QBEIXZ ENDP	; std::allocator<ioHashString>::max_size
_TEXT	ENDS
PUBLIC	?_Compat@?$_Vector_const_iterator@V?$_Vector_val@VioHashString@@V?$allocator@VioHashString@@@std@@@std@@@std@@QBEXABV12@@Z ; std::_Vector_const_iterator<std::_Vector_val<ioHashString,std::allocator<ioHashString> > >::_Compat
; Function compile flags: /Ogsp
; File c:\program files (x86)\microsoft visual studio 10.0\vc\include\vector
;	COMDAT ?_Compat@?$_Vector_const_iterator@V?$_Vector_val@VioHashString@@V?$allocator@VioHashString@@@std@@@std@@@std@@QBEXABV12@@Z
_TEXT	SEGMENT
___formal$ = 8						; size = 4
?_Compat@?$_Vector_const_iterator@V?$_Vector_val@VioHashString@@V?$allocator@VioHashString@@@std@@@std@@@std@@QBEXABV12@@Z PROC ; std::_Vector_const_iterator<std::_Vector_val<ioHashString,std::allocator<ioHashString> > >::_Compat, COMDAT
; _this$ = ecx

; 253  : 		}

  00000	c2 04 00	 ret	 4
?_Compat@?$_Vector_const_iterator@V?$_Vector_val@VioHashString@@V?$allocator@VioHashString@@@std@@@std@@@std@@QBEXABV12@@Z ENDP ; std::_Vector_const_iterator<std::_Vector_val<ioHashString,std::allocator<ioHashString> > >::_Compat
_TEXT	ENDS
PUBLIC	__TI2?AVbad_alloc@std@@
PUBLIC	??$_Allocate@VioHashString@@@std@@YAPAVioHashString@@IPAV1@@Z ; std::_Allocate<ioHashString>
PUBLIC	__CTA2?AVbad_alloc@std@@
PUBLIC	__CT??_R0?AVbad_alloc@std@@@8??0bad_alloc@std@@QAE@ABV01@@Z12
PUBLIC	??0bad_alloc@std@@QAE@ABV01@@Z			; std::bad_alloc::bad_alloc
PUBLIC	__CT??_R0?AVexception@std@@@8??0exception@std@@QAE@ABV01@@Z12
EXTRN	??2@YAPAXI@Z:PROC				; operator new
EXTRN	__CxxThrowException@8:PROC
EXTRN	??0exception@std@@QAE@ABV01@@Z:PROC		; std::exception::exception
;	COMDAT __CT??_R0?AVexception@std@@@8??0exception@std@@QAE@ABV01@@Z12
; File c:\program files (x86)\microsoft visual studio 10.0\vc\include\exception
xdata$x	SEGMENT
__CT??_R0?AVexception@std@@@8??0exception@std@@QAE@ABV01@@Z12 DD 00H
	DD	FLAT:??_R0?AVexception@std@@@8
	DD	00H
	DD	0ffffffffH
	ORG $+4
	DD	0cH
	DD	FLAT:??0exception@std@@QAE@ABV01@@Z
xdata$x	ENDS
;	COMDAT __CT??_R0?AVbad_alloc@std@@@8??0bad_alloc@std@@QAE@ABV01@@Z12
xdata$x	SEGMENT
__CT??_R0?AVbad_alloc@std@@@8??0bad_alloc@std@@QAE@ABV01@@Z12 DD 00H
	DD	FLAT:??_R0?AVbad_alloc@std@@@8
	DD	00H
	DD	0ffffffffH
	ORG $+4
	DD	0cH
	DD	FLAT:??0bad_alloc@std@@QAE@ABV01@@Z
xdata$x	ENDS
;	COMDAT __CTA2?AVbad_alloc@std@@
xdata$x	SEGMENT
__CTA2?AVbad_alloc@std@@ DD 02H
	DD	FLAT:__CT??_R0?AVbad_alloc@std@@@8??0bad_alloc@std@@QAE@ABV01@@Z12
	DD	FLAT:__CT??_R0?AVexception@std@@@8??0exception@std@@QAE@ABV01@@Z12
xdata$x	ENDS
;	COMDAT __TI2?AVbad_alloc@std@@
xdata$x	SEGMENT
__TI2?AVbad_alloc@std@@ DD 00H
	DD	FLAT:??1bad_alloc@std@@UAE@XZ
	DD	00H
	DD	FLAT:__CTA2?AVbad_alloc@std@@
; Function compile flags: /Ogsp
; File c:\program files (x86)\microsoft visual studio 10.0\vc\include\xmemory
xdata$x	ENDS
;	COMDAT ??$_Allocate@VioHashString@@@std@@YAPAVioHashString@@IPAV1@@Z
_TEXT	SEGMENT
$T508866 = -12						; size = 12
$T508871 = 8						; size = 4
__Count$ = 8						; size = 4
___formal$ = 12						; size = 4
??$_Allocate@VioHashString@@@std@@YAPAVioHashString@@IPAV1@@Z PROC ; std::_Allocate<ioHashString>, COMDAT

; 30   : 	{	// allocate storage for _Count elements of type _Ty

  00000	55		 push	 ebp
  00001	8b ec		 mov	 ebp, esp

; 31   : 	void *_Ptr = 0;
; 32   : 
; 33   : 	if (_Count <= 0)

  00003	8b 4d 08	 mov	 ecx, DWORD PTR __Count$[ebp]
  00006	83 ec 0c	 sub	 esp, 12			; 0000000cH
  00009	33 c0		 xor	 eax, eax
  0000b	85 c9		 test	 ecx, ecx

; 34   : 		_Count = 0;
; 35   : 	else if (((_SIZT)(-1) / sizeof (_Ty) < _Count)

  0000d	74 3c		 je	 SHORT $LN5@Allocate

; 36   : 		|| (_Ptr = ::operator new(_Count * sizeof (_Ty))) == 0)

  0000f	81 f9 ff ff ff
	0f		 cmp	 ecx, 268435455		; 0fffffffH
  00015	77 0e		 ja	 SHORT $LN1@Allocate
  00017	c1 e1 04	 shl	 ecx, 4
  0001a	51		 push	 ecx
  0001b	e8 00 00 00 00	 call	 ??2@YAPAXI@Z		; operator new
  00020	59		 pop	 ecx
  00021	85 c0		 test	 eax, eax

; 38   : 
; 39   : 	return ((_Ty _FARQ *)_Ptr);

  00023	75 26		 jne	 SHORT $LN5@Allocate
$LN1@Allocate:

; 37   : 		_THROW_NCEE(bad_alloc, 0);

  00025	83 65 08 00	 and	 DWORD PTR $T508871[ebp], 0
  00029	8d 45 08	 lea	 eax, DWORD PTR $T508871[ebp]
  0002c	50		 push	 eax
  0002d	8d 4d f4	 lea	 ecx, DWORD PTR $T508866[ebp]
  00030	ff 15 00 00 00
	00		 call	 DWORD PTR __imp_??0exception@std@@QAE@ABQBD@Z
  00036	68 00 00 00 00	 push	 OFFSET __TI2?AVbad_alloc@std@@
  0003b	8d 45 f4	 lea	 eax, DWORD PTR $T508866[ebp]
  0003e	50		 push	 eax
  0003f	c7 45 f4 00 00
	00 00		 mov	 DWORD PTR $T508866[ebp], OFFSET ??_7bad_alloc@std@@6B@
  00046	e8 00 00 00 00	 call	 __CxxThrowException@8
$LN10@Allocate:
$LN5@Allocate:

; 40   : 	}

  0004b	c9		 leave
  0004c	c3		 ret	 0
$LN9@Allocate:
??$_Allocate@VioHashString@@@std@@YAPAVioHashString@@IPAV1@@Z ENDP ; std::_Allocate<ioHashString>
_TEXT	ENDS
EXTRN	__imp_??0exception@std@@QAE@ABV01@@Z:PROC
; Function compile flags: /Ogsp
;	COMDAT ??0bad_alloc@std@@QAE@ABV01@@Z
_TEXT	SEGMENT
___that$ = 8						; size = 4
??0bad_alloc@std@@QAE@ABV01@@Z PROC			; std::bad_alloc::bad_alloc, COMDAT
; _this$ = ecx
  00000	55		 push	 ebp
  00001	8b ec		 mov	 ebp, esp
  00003	56		 push	 esi
  00004	ff 75 08	 push	 DWORD PTR ___that$[ebp]
  00007	8b f1		 mov	 esi, ecx
  00009	ff 15 00 00 00
	00		 call	 DWORD PTR __imp_??0exception@std@@QAE@ABV01@@Z
  0000f	c7 06 00 00 00
	00		 mov	 DWORD PTR [esi], OFFSET ??_7bad_alloc@std@@6B@
  00015	8b c6		 mov	 eax, esi
  00017	5e		 pop	 esi
  00018	5d		 pop	 ebp
  00019	c2 04 00	 ret	 4
??0bad_alloc@std@@QAE@ABV01@@Z ENDP			; std::bad_alloc::bad_alloc
_TEXT	ENDS
PUBLIC	??$forward@ABVioHashString@@@std@@YAABVioHashString@@ABV1@@Z ; std::forward<ioHashString const &>
; Function compile flags: /Ogsp
; File c:\program files (x86)\microsoft visual studio 10.0\vc\include\utility
;	COMDAT ??$forward@ABVioHashString@@@std@@YAABVioHashString@@ABV1@@Z
_TEXT	SEGMENT
__Arg$ = 8						; size = 4
??$forward@ABVioHashString@@@std@@YAABVioHashString@@ABV1@@Z PROC ; std::forward<ioHashString const &>, COMDAT

; 78   : 	{	// forward _Arg, given explicitly specified type parameter

  00000	55		 push	 ebp
  00001	8b ec		 mov	 ebp, esp

; 79   : 	return ((_Ty&&)_Arg);

  00003	8b 45 08	 mov	 eax, DWORD PTR __Arg$[ebp]

; 80   : 	}

  00006	5d		 pop	 ebp
  00007	c3		 ret	 0
??$forward@ABVioHashString@@@std@@YAABVioHashString@@ABV1@@Z ENDP ; std::forward<ioHashString const &>
_TEXT	ENDS
PUBLIC	??$forward@AAVioHashString@@@std@@YAAAVioHashString@@AAV1@@Z ; std::forward<ioHashString &>
; Function compile flags: /Ogsp
;	COMDAT ??$forward@AAVioHashString@@@std@@YAAAVioHashString@@AAV1@@Z
_TEXT	SEGMENT
__Arg$ = 8						; size = 4
??$forward@AAVioHashString@@@std@@YAAAVioHashString@@AAV1@@Z PROC ; std::forward<ioHashString &>, COMDAT

; 78   : 	{	// forward _Arg, given explicitly specified type parameter

  00000	55		 push	 ebp
  00001	8b ec		 mov	 ebp, esp

; 79   : 	return ((_Ty&&)_Arg);

  00003	8b 45 08	 mov	 eax, DWORD PTR __Arg$[ebp]

; 80   : 	}

  00006	5d		 pop	 ebp
  00007	c3		 ret	 0
??$forward@AAVioHashString@@@std@@YAAAVioHashString@@AAV1@@Z ENDP ; std::forward<ioHashString &>
_TEXT	ENDS
PUBLIC	??$_Ptr_cat@VioHashString@@V1@@std@@YA?AU_Nonscalar_ptr_iterator_tag@0@PAVioHashString@@0@Z ; std::_Ptr_cat<ioHashString,ioHashString>
; Function compile flags: /Ogsp
; File c:\program files (x86)\microsoft visual studio 10.0\vc\include\xutility
;	COMDAT ??$_Ptr_cat@VioHashString@@V1@@std@@YA?AU_Nonscalar_ptr_iterator_tag@0@PAVioHashString@@0@Z
_TEXT	SEGMENT
__Cat$ = -1						; size = 1
___formal$ = 8						; size = 4
___formal$ = 12						; size = 4
??$_Ptr_cat@VioHashString@@V1@@std@@YA?AU_Nonscalar_ptr_iterator_tag@0@PAVioHashString@@0@Z PROC ; std::_Ptr_cat<ioHashString,ioHashString>, COMDAT

; 516  : 	{	// return pointer category from pointers

  00000	55		 push	 ebp
  00001	8b ec		 mov	 ebp, esp
  00003	51		 push	 ecx

; 517  : 	typename _Ptr_cat_helper<_Elem1, _Elem2>::_Type _Cat;
; 518  : 	return (_Cat);

  00004	8a 45 ff	 mov	 al, BYTE PTR __Cat$[ebp]

; 519  : 	}

  00007	c9		 leave
  00008	c3		 ret	 0
??$_Ptr_cat@VioHashString@@V1@@std@@YA?AU_Nonscalar_ptr_iterator_tag@0@PAVioHashString@@0@Z ENDP ; std::_Ptr_cat<ioHashString,ioHashString>
_TEXT	ENDS
PUBLIC	??$move@AAVioHashString@@@std@@YA$$QAVioHashString@@AAV1@@Z ; std::move<ioHashString &>
; Function compile flags: /Ogsp
; File c:\program files (x86)\microsoft visual studio 10.0\vc\include\utility
;	COMDAT ??$move@AAVioHashString@@@std@@YA$$QAVioHashString@@AAV1@@Z
_TEXT	SEGMENT
__Arg$ = 8						; size = 4
??$move@AAVioHashString@@@std@@YA$$QAVioHashString@@AAV1@@Z PROC ; std::move<ioHashString &>, COMDAT

; 86   : 	{	// forward _Arg as movable

  00000	55		 push	 ebp
  00001	8b ec		 mov	 ebp, esp

; 87   : 	return ((typename tr1::_Remove_reference<_Ty>::_Type&&)_Arg);

  00003	8b 45 08	 mov	 eax, DWORD PTR __Arg$[ebp]

; 88   : 	}

  00006	5d		 pop	 ebp
  00007	c3		 ret	 0
??$move@AAVioHashString@@@std@@YA$$QAVioHashString@@AAV1@@Z ENDP ; std::move<ioHashString &>
_TEXT	ENDS
PUBLIC	??_GioHashString@@QAEPAXI@Z			; ioHashString::`scalar deleting destructor'
; Function compile flags: /Ogsp
;	COMDAT ??_GioHashString@@QAEPAXI@Z
_TEXT	SEGMENT
___flags$ = 8						; size = 4
??_GioHashString@@QAEPAXI@Z PROC			; ioHashString::`scalar deleting destructor', COMDAT
; _this$ = ecx
  00000	55		 push	 ebp
  00001	8b ec		 mov	 ebp, esp
  00003	56		 push	 esi
  00004	8b f1		 mov	 esi, ecx
  00006	ff 15 00 00 00
	00		 call	 DWORD PTR __imp_??1ioHashString@@QAE@XZ
  0000c	f6 45 08 01	 test	 BYTE PTR ___flags$[ebp], 1
  00010	74 07		 je	 SHORT $LN1@scalar@2
  00012	56		 push	 esi
  00013	e8 00 00 00 00	 call	 ??3@YAXPAX@Z		; operator delete
  00018	59		 pop	 ecx
$LN1@scalar@2:
  00019	8b c6		 mov	 eax, esi
  0001b	5e		 pop	 esi
  0001c	5d		 pop	 ebp
  0001d	c2 04 00	 ret	 4
??_GioHashString@@QAEPAXI@Z ENDP			; ioHashString::`scalar deleting destructor'
_TEXT	ENDS
PUBLIC	??$_Construct@VioHashString@@ABV1@@std@@YAXPAVioHashString@@ABV1@@Z ; std::_Construct<ioHashString,ioHashString const &>
EXTRN	__imp_??0ioHashString@@QAE@ABV0@@Z:PROC
;	COMDAT xdata$x
xdata$x	SEGMENT
__unwindtable$??$_Construct@VioHashString@@ABV1@@std@@YAXPAVioHashString@@ABV1@@Z DD 0ffffffffH
	DD	FLAT:__unwindfunclet$??$_Construct@VioHashString@@ABV1@@std@@YAXPAVioHashString@@ABV1@@Z$0
__ehfuncinfo$??$_Construct@VioHashString@@ABV1@@std@@YAXPAVioHashString@@ABV1@@Z DD 019930522H
	DD	01H
	DD	FLAT:__unwindtable$??$_Construct@VioHashString@@ABV1@@std@@YAXPAVioHashString@@ABV1@@Z
	DD	2 DUP(00H)
	DD	2 DUP(00H)
	DD	00H
	DD	01H
; Function compile flags: /Ogsp
; File c:\program files (x86)\microsoft visual studio 10.0\vc\include\xmemory
xdata$x	ENDS
;	COMDAT ??$_Construct@VioHashString@@ABV1@@std@@YAXPAVioHashString@@ABV1@@Z
_TEXT	SEGMENT
$T508890 = -16						; size = 4
__$EHRec$ = -12						; size = 12
__Vptr$ = 8						; size = 4
__Ptr$ = 8						; size = 4
__Val$ = 12						; size = 4
??$_Construct@VioHashString@@ABV1@@std@@YAXPAVioHashString@@ABV1@@Z PROC ; std::_Construct<ioHashString,ioHashString const &>, COMDAT

; 46   : 	{	// construct object at _Ptr with value _Val

  00000	6a 04		 push	 4
  00002	b8 00 00 00 00	 mov	 eax, __ehhandler$??$_Construct@VioHashString@@ABV1@@std@@YAXPAVioHashString@@ABV1@@Z
  00007	e8 00 00 00 00	 call	 __EH_prolog3

; 47   : 	void _FARQ *_Vptr = _Ptr;

  0000c	8b 4d 08	 mov	 ecx, DWORD PTR __Ptr$[ebp]
  0000f	89 4d 08	 mov	 DWORD PTR __Vptr$[ebp], ecx

; 48   : 	::new (_Vptr) _Ty1(_STD forward<_Ty2>(_Val));

  00012	89 4d f0	 mov	 DWORD PTR $T508890[ebp], ecx
  00015	83 65 fc 00	 and	 DWORD PTR __$EHRec$[ebp+8], 0
  00019	85 c9		 test	 ecx, ecx
  0001b	74 09		 je	 SHORT $LN3@Construct
  0001d	ff 75 0c	 push	 DWORD PTR __Val$[ebp]
  00020	ff 15 00 00 00
	00		 call	 DWORD PTR __imp_??0ioHashString@@QAE@ABV0@@Z
$LN3@Construct:

; 49   : 	}

  00026	e8 00 00 00 00	 call	 __EH_epilog3
  0002b	c3		 ret	 0
_TEXT	ENDS
;	COMDAT text$x
text$x	SEGMENT
__unwindfunclet$??$_Construct@VioHashString@@ABV1@@std@@YAXPAVioHashString@@ABV1@@Z$0:
  00000	ff 75 08	 push	 DWORD PTR __Vptr$[ebp]
  00003	ff 75 f0	 push	 DWORD PTR $T508890[ebp]
  00006	e8 00 00 00 00	 call	 ??3@YAXPAX0@Z		; operator delete
  0000b	59		 pop	 ecx
  0000c	59		 pop	 ecx
  0000d	c3		 ret	 0
__ehhandler$??$_Construct@VioHashString@@ABV1@@std@@YAXPAVioHashString@@ABV1@@Z:
  0000e	8b 54 24 08	 mov	 edx, DWORD PTR [esp+8]
  00012	8d 42 0c	 lea	 eax, DWORD PTR [edx+12]
  00015	8b 4a ec	 mov	 ecx, DWORD PTR [edx-20]
  00018	33 c8		 xor	 ecx, eax
  0001a	e8 00 00 00 00	 call	 @__security_check_cookie@4
  0001f	b8 00 00 00 00	 mov	 eax, OFFSET __ehfuncinfo$??$_Construct@VioHashString@@ABV1@@std@@YAXPAVioHashString@@ABV1@@Z
  00024	e9 00 00 00 00	 jmp	 ___CxxFrameHandler3
text$x	ENDS
??$_Construct@VioHashString@@ABV1@@std@@YAXPAVioHashString@@ABV1@@Z ENDP ; std::_Construct<ioHashString,ioHashString const &>
PUBLIC	__real@3ff0000000000000
PUBLIC	__real@4f800000
PUBLIC	?RollingIcon@ioCostumeRandomBox@@IAEXM@Z	; ioCostumeRandomBox::RollingIcon
EXTRN	__imp_?PlaySoundA@ioSoundManager@@QAEKABVioHashString@@HK@Z:PROC
EXTRN	?PlaySoundA@ioExtendSoundManager@@QAEXW4ExSoundType@ExSound@@@Z:PROC ; ioExtendSoundManager::PlaySoundA
EXTRN	?IsSound@ioExtendSoundManager@@QAE_NW4ExSoundType@ExSound@@@Z:PROC ; ioExtendSoundManager::IsSound
EXTRN	?GetSingleton@ioExtendSoundManager@@SAAAV1@XZ:PROC ; ioExtendSoundManager::GetSingleton
EXTRN	__imp_?CreateImageByFullName@ioUIImageSetManager@@QAEPAVioUIRenderImage@@ABVioHashString@@_N@Z:PROC
EXTRN	__imp_?GetSingleton@ioUIImageSetManager@@SAAAV1@XZ:PROC
EXTRN	?GetCostumeInfo@ioCostumeInfoManager@@QAE_NHAAUtagCostumeInfo@@@Z:PROC ; ioCostumeInfoManager::GetCostumeInfo
EXTRN	?GetSingleton@ioCostumeInfoManager@@SAAAV1@XZ:PROC ; ioCostumeInfoManager::GetSingleton
EXTRN	__imp_?GetLoopSec@ioFrameTimer@@QBEKXZ:PROC
EXTRN	__imp_?GetSingleton@ioFrameTimer@@SAAAV1@XZ:PROC
;	COMDAT __real@3ff0000000000000
; File c:\program files (x86)\microsoft visual studio 10.0\vc\include\vector
CONST	SEGMENT
__real@3ff0000000000000 DQ 03ff0000000000000r	; 1
CONST	ENDS
;	COMDAT __real@4f800000
CONST	SEGMENT
__real@4f800000 DD 04f800000r			; 4.29497e+009
CONST	ENDS
;	COMDAT xdata$x
xdata$x	SEGMENT
__unwindtable$?RollingIcon@ioCostumeRandomBox@@IAEXM@Z DD 0ffffffffH
	DD	FLAT:__unwindfunclet$?RollingIcon@ioCostumeRandomBox@@IAEXM@Z$0
	DD	00H
	DD	FLAT:__unwindfunclet$?RollingIcon@ioCostumeRandomBox@@IAEXM@Z$1
	DD	0ffffffffH
	DD	FLAT:__unwindfunclet$?RollingIcon@ioCostumeRandomBox@@IAEXM@Z$2
__ehfuncinfo$?RollingIcon@ioCostumeRandomBox@@IAEXM@Z DD 019930522H
	DD	03H
	DD	FLAT:__unwindtable$?RollingIcon@ioCostumeRandomBox@@IAEXM@Z
	DD	2 DUP(00H)
	DD	2 DUP(00H)
	DD	00H
	DD	01H
; Function compile flags: /Ogsp
; File d:\lost saga for developer\youtube\tutorial\source\src\lsclient\gui\iocostumerandombox.cpp
xdata$x	ENDS
;	COMDAT ?RollingIcon@ioCostumeRandomBox@@IAEXM@Z
_TEXT	SEGMENT
_szCurIcon$506050 = -256				; size = 16
_szIcon$506022 = -256					; size = 16
tv494 = -240						; size = 4
tv491 = -240						; size = 4
_fScaleRate$506030 = -240				; size = 4
_fScale$506027 = -240					; size = 4
_sCostumeInfo$506020 = -236				; size = 220
__$EHRec$ = -12						; size = 12
_fTimePerSec$ = 8					; size = 4
?RollingIcon@ioCostumeRandomBox@@IAEXM@Z PROC		; ioCostumeRandomBox::RollingIcon, COMDAT
; _this$ = ecx

; 150  : {

  00000	68 f4 00 00 00	 push	 244			; 000000f4H
  00005	b8 00 00 00 00	 mov	 eax, __ehhandler$?RollingIcon@ioCostumeRandomBox@@IAEXM@Z
  0000a	e8 00 00 00 00	 call	 __EH_prolog3_GS
  0000f	8b f1		 mov	 esi, ecx

; 151  : 	DWORD dwCurTime = FRAMEGETTIME();

  00011	ff 15 00 00 00
	00		 call	 DWORD PTR __imp_?GetSingleton@ioFrameTimer@@SAAAV1@XZ
  00017	8b c8		 mov	 ecx, eax
  00019	ff 15 00 00 00
	00		 call	 DWORD PTR __imp_?GetLoopSec@ioFrameTimer@@QBEKXZ

; 152  : 
; 153  : 	if( m_bResult && m_dwRollingEndTime < dwCurTime )			// RollingEnd

  0001f	80 be bc 01 00
	00 00		 cmp	 BYTE PTR [esi+444], 0
  00026	8b f8		 mov	 edi, eax
  00028	0f 84 ee 01 00
	00		 je	 $LN19@RollingIco
  0002e	39 be d8 01 00
	00		 cmp	 DWORD PTR [esi+472], edi
  00034	0f 83 e2 01 00
	00		 jae	 $LN19@RollingIco

; 154  : 	{
; 155  : 		// Icon 汲沥
; 156  : 		CostumeInfo sCostumeInfo;

  0003a	8d 8d 14 ff ff
	ff		 lea	 ecx, DWORD PTR _sCostumeInfo$506020[ebp]
  00040	e8 00 00 00 00	 call	 ??0tagCostumeInfo@@QAE@XZ ; tagCostumeInfo::tagCostumeInfo
  00045	33 db		 xor	 ebx, ebx
  00047	89 5d fc	 mov	 DWORD PTR __$EHRec$[ebp+8], ebx

; 157  : 		if ( !m_bFinalResult && g_CostumeInfoMgr.GetCostumeInfo( m_nCostumeCode, sCostumeInfo ) )

  0004a	38 9e bd 01 00
	00		 cmp	 BYTE PTR [esi+445], bl
  00050	0f 85 9a 00 00
	00		 jne	 $LN18@RollingIco
  00056	8d 85 14 ff ff
	ff		 lea	 eax, DWORD PTR _sCostumeInfo$506020[ebp]
  0005c	50		 push	 eax
  0005d	ff b6 b4 01 00
	00		 push	 DWORD PTR [esi+436]
  00063	e8 00 00 00 00	 call	 ?GetSingleton@ioCostumeInfoManager@@SAAAV1@XZ ; ioCostumeInfoManager::GetSingleton
  00068	8b c8		 mov	 ecx, eax
  0006a	e8 00 00 00 00	 call	 ?GetCostumeInfo@ioCostumeInfoManager@@QAE_NHAAUtagCostumeInfo@@@Z ; ioCostumeInfoManager::GetCostumeInfo
  0006f	84 c0		 test	 al, al
  00071	74 7d		 je	 SHORT $LN18@RollingIco

; 158  : 		{
; 159  : 			ioHashString szIcon = sCostumeInfo.m_szIconName;

  00073	8d 45 cc	 lea	 eax, DWORD PTR _sCostumeInfo$506020[ebp+184]
  00076	50		 push	 eax
  00077	8d 8d 00 ff ff
	ff		 lea	 ecx, DWORD PTR _szIcon$506022[ebp]
  0007d	ff 15 00 00 00
	00		 call	 DWORD PTR __imp_??0ioHashString@@QAE@ABV0@@Z

; 160  : 			if( !szIcon.IsEmpty() )

  00083	8d 8d 00 ff ff
	ff		 lea	 ecx, DWORD PTR _szIcon$506022[ebp]
  00089	c6 45 fc 01	 mov	 BYTE PTR __$EHRec$[ebp+8], 1
  0008d	ff 15 00 00 00
	00		 call	 DWORD PTR __imp_?IsEmpty@ioHashString@@QBE_NXZ
  00093	84 c0		 test	 al, al
  00095	75 33		 jne	 SHORT $LN17@RollingIco

; 161  : 			{
; 162  : 				SAFEDELETE( m_pIcon );

  00097	8b 8e 60 01 00
	00		 mov	 ecx, DWORD PTR [esi+352]
  0009d	3b cb		 cmp	 ecx, ebx
  0009f	74 0d		 je	 SHORT $LN16@RollingIco
  000a1	8b 01		 mov	 eax, DWORD PTR [ecx]
  000a3	6a 01		 push	 1
  000a5	ff 50 40	 call	 DWORD PTR [eax+64]
  000a8	89 9e 60 01 00
	00		 mov	 DWORD PTR [esi+352], ebx
$LN16@RollingIco:

; 163  : 				m_pIcon = g_UIImageSetMgr.CreateImageByFullName( szIcon );

  000ae	8d 85 00 ff ff
	ff		 lea	 eax, DWORD PTR _szIcon$506022[ebp]
  000b4	53		 push	 ebx
  000b5	50		 push	 eax
  000b6	ff 15 00 00 00
	00		 call	 DWORD PTR __imp_?GetSingleton@ioUIImageSetManager@@SAAAV1@XZ
  000bc	8b c8		 mov	 ecx, eax
  000be	ff 15 00 00 00
	00		 call	 DWORD PTR __imp_?CreateImageByFullName@ioUIImageSetManager@@QAEPAVioUIRenderImage@@ABVioHashString@@_N@Z
  000c4	89 86 60 01 00
	00		 mov	 DWORD PTR [esi+352], eax
$LN17@RollingIco:

; 164  : 			}
; 165  : 
; 166  : 			m_szCostumeName = sCostumeInfo.m_szName;

  000ca	8d 45 bc	 lea	 eax, DWORD PTR _sCostumeInfo$506020[ebp+168]
  000cd	50		 push	 eax
  000ce	8d 8e a4 01 00
	00		 lea	 ecx, DWORD PTR [esi+420]
  000d4	ff 15 00 00 00
	00		 call	 DWORD PTR __imp_??4ioHashString@@QAEAAV0@ABV0@@Z

; 167  : 			m_dwScaleStartTime = dwCurTime;
; 168  : 		}

  000da	8d 8d 00 ff ff
	ff		 lea	 ecx, DWORD PTR _szIcon$506022[ebp]
  000e0	89 be dc 01 00
	00		 mov	 DWORD PTR [esi+476], edi
  000e6	c6 45 fc 00	 mov	 BYTE PTR __$EHRec$[ebp+8], 0
  000ea	ff 15 00 00 00
	00		 call	 DWORD PTR __imp_??1ioHashString@@QAE@XZ
$LN18@RollingIco:

; 169  : 
; 170  : 		// IconScale 汲沥
; 171  : 		float fScale = 1.0f;
; 172  : 		DWORD dwGapTime = dwCurTime - m_dwScaleStartTime;

  000f0	2b be dc 01 00
	00		 sub	 edi, DWORD PTR [esi+476]

; 173  : 		if( dwGapTime < m_dwIconScaleTime )

  000f6	8b 86 c4 01 00
	00		 mov	 eax, DWORD PTR [esi+452]
  000fc	f3 0f 10 05 00
	00 00 00	 movss	 xmm0, DWORD PTR __real@3f800000
  00104	3b f8		 cmp	 edi, eax
  00106	73 58		 jae	 SHORT $LN15@RollingIco

; 174  : 		{
; 175  : 			float fScaleRate = (float)dwGapTime / (float)m_dwIconScaleTime;

  00108	89 bd 10 ff ff
	ff		 mov	 DWORD PTR tv494[ebp], edi
  0010e	db 85 10 ff ff
	ff		 fild	 DWORD PTR tv494[ebp]
  00114	85 ff		 test	 edi, edi
  00116	79 06		 jns	 SHORT $LN38@RollingIco
  00118	d8 05 00 00 00
	00		 fadd	 DWORD PTR __real@4f800000
$LN38@RollingIco:
  0011e	89 85 10 ff ff
	ff		 mov	 DWORD PTR tv491[ebp], eax
  00124	db 85 10 ff ff
	ff		 fild	 DWORD PTR tv491[ebp]
  0012a	85 c0		 test	 eax, eax
  0012c	79 06		 jns	 SHORT $LN39@RollingIco
  0012e	d8 05 00 00 00
	00		 fadd	 DWORD PTR __real@4f800000
$LN39@RollingIco:
  00134	de f9		 fdivp	 ST(1), ST(0)
  00136	d9 9d 10 ff ff
	ff		 fstp	 DWORD PTR _fScaleRate$506030[ebp]

; 176  : 			fScale = m_fIconScale * ( 1.0f - fScaleRate ) + 1.0f * fScaleRate;

  0013c	d9 85 10 ff ff
	ff		 fld	 DWORD PTR _fScaleRate$506030[ebp]
  00142	d9 e8		 fld1
  00144	de e1		 fsubrp	 ST(1), ST(0)
  00146	d8 8e c0 01 00
	00		 fmul	 DWORD PTR [esi+448]
  0014c	d8 85 10 ff ff
	ff		 fadd	 DWORD PTR _fScaleRate$506030[ebp]
  00152	d9 9d 10 ff ff
	ff		 fstp	 DWORD PTR _fScale$506027[ebp]
  00158	f3 0f 10 85 10
	ff ff ff	 movss	 xmm0, DWORD PTR _fScale$506027[ebp]
$LN15@RollingIco:

; 177  : 		}
; 178  : 
; 179  : 		if( m_pIcon )

  00160	8b 8e 60 01 00
	00		 mov	 ecx, DWORD PTR [esi+352]
  00166	3b cb		 cmp	 ecx, ebx
  00168	74 0b		 je	 SHORT $LN14@RollingIco

; 180  : 			m_pIcon->SetScale( fScale );

  0016a	8b 01		 mov	 eax, DWORD PTR [ecx]
  0016c	51		 push	 ecx
  0016d	f3 0f 11 04 24	 movss	 DWORD PTR [esp], xmm0
  00172	ff 50 1c	 call	 DWORD PTR [eax+28]
$LN14@RollingIco:

; 181  : 
; 182  : 		if( !m_bFinalResult )

  00175	80 be bd 01 00
	00 00		 cmp	 BYTE PTR [esi+445], 0
  0017c	0f 85 86 00 00
	00		 jne	 $LN13@RollingIco

; 183  : 		{
; 184  : 			m_bFinalResult = true;
; 185  : 			ReBatchButton( RESULT_BTN );

  00182	6a 02		 push	 2
  00184	8b ce		 mov	 ecx, esi
  00186	c6 86 bd 01 00
	00 01		 mov	 BYTE PTR [esi+445], 1
  0018d	e8 00 00 00 00	 call	 ?ReBatchButton@ioCostumeRandomBox@@IAEXH@Z ; ioCostumeRandomBox::ReBatchButton

; 186  : 
; 187  : 			if( !m_szRollingSound.IsEmpty() )

  00192	8d 9e ec 01 00
	00		 lea	 ebx, DWORD PTR [esi+492]
  00198	8b cb		 mov	 ecx, ebx
  0019a	ff 15 00 00 00
	00		 call	 DWORD PTR __imp_?IsEmpty@ioHashString@@QBE_NXZ
  001a0	8b 3d 00 00 00
	00		 mov	 edi, DWORD PTR __imp_?GetSingleton@ioSoundManager@@SAAAV1@XZ
  001a6	84 c0		 test	 al, al
  001a8	75 0d		 jne	 SHORT $LN12@RollingIco

; 188  : 				g_SoundMgr.StopSound( m_szRollingSound, 0 );

  001aa	6a 00		 push	 0
  001ac	53		 push	 ebx
  001ad	ff d7		 call	 edi
  001af	8b c8		 mov	 ecx, eax
  001b1	ff 15 00 00 00
	00		 call	 DWORD PTR __imp_?StopSound@ioSoundManager@@QAEXABVioHashString@@K@Z
$LN12@RollingIco:

; 189  : 
; 190  : 			if( g_ExSoundMgr.IsSound( ExSound::EST_GASHAPON_GET ) )

  001b7	6a 0a		 push	 10			; 0000000aH
  001b9	e8 00 00 00 00	 call	 ?GetSingleton@ioExtendSoundManager@@SAAAV1@XZ ; ioExtendSoundManager::GetSingleton
  001be	8b c8		 mov	 ecx, eax
  001c0	e8 00 00 00 00	 call	 ?IsSound@ioExtendSoundManager@@QAE_NW4ExSoundType@ExSound@@@Z ; ioExtendSoundManager::IsSound
  001c5	84 c0		 test	 al, al
  001c7	74 10		 je	 SHORT $LN11@RollingIco

; 191  : 			{
; 192  : 				g_ExSoundMgr.PlaySound( ExSound::EST_GASHAPON_GET );

  001c9	6a 0a		 push	 10			; 0000000aH
  001cb	e8 00 00 00 00	 call	 ?GetSingleton@ioExtendSoundManager@@SAAAV1@XZ ; ioExtendSoundManager::GetSingleton
  001d0	8b c8		 mov	 ecx, eax
  001d2	e8 00 00 00 00	 call	 ?PlaySoundA@ioExtendSoundManager@@QAEXW4ExSoundType@ExSound@@@Z ; ioExtendSoundManager::PlaySoundA

; 193  : 			}
; 194  : 			else

  001d7	eb 21		 jmp	 SHORT $LN9@RollingIco
$LN11@RollingIco:

; 195  : 			{
; 196  : 				if( !m_szResultSound.IsEmpty() )

  001d9	8d 9e fc 01 00
	00		 lea	 ebx, DWORD PTR [esi+508]
  001df	8b cb		 mov	 ecx, ebx
  001e1	ff 15 00 00 00
	00		 call	 DWORD PTR __imp_?IsEmpty@ioHashString@@QBE_NXZ
  001e7	84 c0		 test	 al, al
  001e9	75 0f		 jne	 SHORT $LN9@RollingIco

; 197  : 					g_SoundMgr.PlaySound( m_szResultSound );

  001eb	6a 04		 push	 4
  001ed	6a 00		 push	 0
  001ef	53		 push	 ebx
  001f0	ff d7		 call	 edi
  001f2	8b c8		 mov	 ecx, eax
  001f4	ff 15 00 00 00
	00		 call	 DWORD PTR __imp_?PlaySoundA@ioSoundManager@@QAEKABVioHashString@@HK@Z
$LN9@RollingIco:

; 198  : 			}
; 199  : 			
; 200  : 			m_iCurEffectArray = -1;

  001fa	83 8e e0 01 00
	00 ff		 or	 DWORD PTR [esi+480], -1

; 201  : 			m_dwRollingEffectCheckTime = 0;

  00201	83 a6 e8 01 00
	00 00		 and	 DWORD PTR [esi+488], 0
$LN13@RollingIco:

; 202  : 		}
; 203  : 	}

  00208	83 4d fc ff	 or	 DWORD PTR __$EHRec$[ebp+8], -1
  0020c	8d 8d 14 ff ff
	ff		 lea	 ecx, DWORD PTR _sCostumeInfo$506020[ebp]
  00212	e8 00 00 00 00	 call	 ??1tagCostumeInfo@@QAE@XZ
  00217	e9 d6 00 00 00	 jmp	 $LN6@RollingIco
$LN19@RollingIco:

; 204  : 	else if( (int)m_vIconList.size() > 0 )				// Rolling

  0021c	8b 86 78 01 00
	00		 mov	 eax, DWORD PTR [esi+376]
  00222	2b 86 74 01 00
	00		 sub	 eax, DWORD PTR [esi+372]
  00228	a9 f0 ff ff ff	 test	 eax, -16		; fffffff0H
  0022d	0f 8e bf 00 00
	00		 jle	 $LN6@RollingIco

; 205  : 	{
; 206  : 		if( m_dwRollingCheckTime == 0 || dwCurTime - m_dwRollingCheckTime > m_dwRollingTime )		// 背眉

  00233	8b 86 d4 01 00
	00		 mov	 eax, DWORD PTR [esi+468]
  00239	33 db		 xor	 ebx, ebx
  0023b	3b c3		 cmp	 eax, ebx
  0023d	74 10		 je	 SHORT $LN5@RollingIco
  0023f	8b cf		 mov	 ecx, edi
  00241	2b c8		 sub	 ecx, eax
  00243	3b 8e c8 01 00
	00		 cmp	 ecx, DWORD PTR [esi+456]
  00249	0f 86 a3 00 00
	00		 jbe	 $LN6@RollingIco
$LN5@RollingIco:

; 207  : 		{
; 208  : 			SAFEDELETE( m_pIcon );

  0024f	8b 8e 60 01 00
	00		 mov	 ecx, DWORD PTR [esi+352]
  00255	3b cb		 cmp	 ecx, ebx
  00257	74 0d		 je	 SHORT $LN4@RollingIco
  00259	8b 01		 mov	 eax, DWORD PTR [ecx]
  0025b	6a 01		 push	 1
  0025d	ff 50 40	 call	 DWORD PTR [eax+64]
  00260	89 9e 60 01 00
	00		 mov	 DWORD PTR [esi+352], ebx
$LN4@RollingIco:

; 209  : 
; 210  : 			m_iCurIconArray++;

  00266	ff 86 d0 01 00
	00		 inc	 DWORD PTR [esi+464]
  0026c	8b 8e d0 01 00
	00		 mov	 ecx, DWORD PTR [esi+464]

; 211  : 
; 212  : 			if( !COMPARE( m_iCurIconArray, 0, (int)m_vIconList.size() ) )

  00272	78 13		 js	 SHORT $LN2@RollingIco
  00274	8b 96 78 01 00
	00		 mov	 edx, DWORD PTR [esi+376]
  0027a	2b 96 74 01 00
	00		 sub	 edx, DWORD PTR [esi+372]
  00280	c1 fa 04	 sar	 edx, 4
  00283	3b ca		 cmp	 ecx, edx
  00285	7c 06		 jl	 SHORT $LN3@RollingIco
$LN2@RollingIco:

; 213  : 				m_iCurIconArray = 0;

  00287	89 9e d0 01 00
	00		 mov	 DWORD PTR [esi+464], ebx
$LN3@RollingIco:

; 214  : 
; 215  : 			ioHashString szCurIcon = m_vIconList[m_iCurIconArray];

  0028d	8b 86 d0 01 00
	00		 mov	 eax, DWORD PTR [esi+464]
  00293	c1 e0 04	 shl	 eax, 4
  00296	03 86 74 01 00
	00		 add	 eax, DWORD PTR [esi+372]
  0029c	8d 8d 00 ff ff
	ff		 lea	 ecx, DWORD PTR _szCurIcon$506050[ebp]
  002a2	50		 push	 eax
  002a3	ff 15 00 00 00
	00		 call	 DWORD PTR __imp_??0ioHashString@@QAE@ABV0@@Z

; 216  : 			if( !szCurIcon.IsEmpty() )

  002a9	8d 8d 00 ff ff
	ff		 lea	 ecx, DWORD PTR _szCurIcon$506050[ebp]
  002af	c7 45 fc 02 00
	00 00		 mov	 DWORD PTR __$EHRec$[ebp+8], 2
  002b6	ff 15 00 00 00
	00		 call	 DWORD PTR __imp_?IsEmpty@ioHashString@@QBE_NXZ
  002bc	84 c0		 test	 al, al
  002be	75 1c		 jne	 SHORT $LN1@RollingIco

; 217  : 				m_pIcon = g_UIImageSetMgr.CreateImageByFullName( szCurIcon );

  002c0	8d 85 00 ff ff
	ff		 lea	 eax, DWORD PTR _szCurIcon$506050[ebp]
  002c6	53		 push	 ebx
  002c7	50		 push	 eax
  002c8	ff 15 00 00 00
	00		 call	 DWORD PTR __imp_?GetSingleton@ioUIImageSetManager@@SAAAV1@XZ
  002ce	8b c8		 mov	 ecx, eax
  002d0	ff 15 00 00 00
	00		 call	 DWORD PTR __imp_?CreateImageByFullName@ioUIImageSetManager@@QAEPAVioUIRenderImage@@ABVioHashString@@_N@Z
  002d6	89 86 60 01 00
	00		 mov	 DWORD PTR [esi+352], eax
$LN1@RollingIco:

; 218  : 
; 219  : 			m_dwRollingCheckTime = dwCurTime;
; 220  : 		}

  002dc	83 4d fc ff	 or	 DWORD PTR __$EHRec$[ebp+8], -1
  002e0	8d 8d 00 ff ff
	ff		 lea	 ecx, DWORD PTR _szCurIcon$506050[ebp]
  002e6	89 be d4 01 00
	00		 mov	 DWORD PTR [esi+468], edi
  002ec	ff 15 00 00 00
	00		 call	 DWORD PTR __imp_??1ioHashString@@QAE@XZ
$LN6@RollingIco:

; 221  : 	}
; 222  : }

  002f2	e8 00 00 00 00	 call	 __EH_epilog3_GS
  002f7	c2 04 00	 ret	 4
_TEXT	ENDS
;	COMDAT text$x
text$x	SEGMENT
__unwindfunclet$?RollingIcon@ioCostumeRandomBox@@IAEXM@Z$0:
  00000	8d 8d 14 ff ff
	ff		 lea	 ecx, DWORD PTR _sCostumeInfo$506020[ebp]
  00006	e9 00 00 00 00	 jmp	 ??1tagCostumeInfo@@QAE@XZ
__unwindfunclet$?RollingIcon@ioCostumeRandomBox@@IAEXM@Z$1:
  0000b	8d 8d 00 ff ff
	ff		 lea	 ecx, DWORD PTR _szIcon$506022[ebp]
  00011	ff 25 00 00 00
	00		 jmp	 DWORD PTR __imp_??1ioHashString@@QAE@XZ
__unwindfunclet$?RollingIcon@ioCostumeRandomBox@@IAEXM@Z$2:
  00017	8d 8d 00 ff ff
	ff		 lea	 ecx, DWORD PTR _szCurIcon$506050[ebp]
  0001d	ff 25 00 00 00
	00		 jmp	 DWORD PTR __imp_??1ioHashString@@QAE@XZ
__ehhandler$?RollingIcon@ioCostumeRandomBox@@IAEXM@Z:
  00023	8b 54 24 08	 mov	 edx, DWORD PTR [esp+8]
  00027	8d 42 0c	 lea	 eax, DWORD PTR [edx+12]
  0002a	8b 8a fc fe ff
	ff		 mov	 ecx, DWORD PTR [edx-260]
  00030	33 c8		 xor	 ecx, eax
  00032	e8 00 00 00 00	 call	 @__security_check_cookie@4
  00037	8b 4a fc	 mov	 ecx, DWORD PTR [edx-4]
  0003a	33 c8		 xor	 ecx, eax
  0003c	e8 00 00 00 00	 call	 @__security_check_cookie@4
  00041	b8 00 00 00 00	 mov	 eax, OFFSET __ehfuncinfo$?RollingIcon@ioCostumeRandomBox@@IAEXM@Z
  00046	e9 00 00 00 00	 jmp	 ___CxxFrameHandler3
text$x	ENDS
?RollingIcon@ioCostumeRandomBox@@IAEXM@Z ENDP		; ioCostumeRandomBox::RollingIcon
PUBLIC	?RollingEffect@ioCostumeRandomBox@@IAEXM@Z	; ioCostumeRandomBox::RollingEffect
;	COMDAT xdata$x
; File c:\program files (x86)\microsoft visual studio 10.0\vc\include\vector
xdata$x	SEGMENT
__unwindtable$?RollingEffect@ioCostumeRandomBox@@IAEXM@Z DD 0ffffffffH
	DD	FLAT:__unwindfunclet$?RollingEffect@ioCostumeRandomBox@@IAEXM@Z$0
	DD	0ffffffffH
	DD	FLAT:__unwindfunclet$?RollingEffect@ioCostumeRandomBox@@IAEXM@Z$1
__ehfuncinfo$?RollingEffect@ioCostumeRandomBox@@IAEXM@Z DD 019930522H
	DD	02H
	DD	FLAT:__unwindtable$?RollingEffect@ioCostumeRandomBox@@IAEXM@Z
	DD	2 DUP(00H)
	DD	2 DUP(00H)
	DD	00H
	DD	01H
; Function compile flags: /Ogsp
; File d:\lost saga for developer\youtube\tutorial\source\src\lsclient\gui\iocostumerandombox.cpp
xdata$x	ENDS
;	COMDAT ?RollingEffect@ioCostumeRandomBox@@IAEXM@Z
_TEXT	SEGMENT
_szEffect$506085 = -48					; size = 16
_szEffect$506075 = -32					; size = 16
_dwCurTime$ = -16					; size = 4
__$EHRec$ = -12						; size = 12
_fTimePerSec$ = 8					; size = 4
?RollingEffect@ioCostumeRandomBox@@IAEXM@Z PROC		; ioCostumeRandomBox::RollingEffect, COMDAT
; _this$ = ecx

; 225  : {

  00000	6a 24		 push	 36			; 00000024H
  00002	b8 00 00 00 00	 mov	 eax, __ehhandler$?RollingEffect@ioCostumeRandomBox@@IAEXM@Z
  00007	e8 00 00 00 00	 call	 __EH_prolog3
  0000c	8b f1		 mov	 esi, ecx

; 226  : 	DWORD dwCurTime = FRAMEGETTIME();

  0000e	ff 15 00 00 00
	00		 call	 DWORD PTR __imp_?GetSingleton@ioFrameTimer@@SAAAV1@XZ
  00014	8b c8		 mov	 ecx, eax
  00016	ff 15 00 00 00
	00		 call	 DWORD PTR __imp_?GetLoopSec@ioFrameTimer@@QBEKXZ

; 227  : 
; 228  : 	int iEffectListCnt = m_vRollingEffect.size();

  0001c	8b be 88 01 00
	00		 mov	 edi, DWORD PTR [esi+392]
  00022	2b be 84 01 00
	00		 sub	 edi, DWORD PTR [esi+388]

; 229  : 	if( m_bFinalResult )

  00028	8a 8e bd 01 00
	00		 mov	 cl, BYTE PTR [esi+445]
  0002e	c1 ff 04	 sar	 edi, 4
  00031	89 45 f0	 mov	 DWORD PTR _dwCurTime$[ebp], eax
  00034	84 c9		 test	 cl, cl
  00036	74 0f		 je	 SHORT $LN19@RollingEff

; 230  : 		iEffectListCnt = m_vEndEfffect.size();

  00038	8b be 98 01 00
	00		 mov	 edi, DWORD PTR [esi+408]
  0003e	2b be 94 01 00
	00		 sub	 edi, DWORD PTR [esi+404]
  00044	c1 ff 04	 sar	 edi, 4
$LN19@RollingEff:

; 231  : 
; 232  : 	if( iEffectListCnt == 0 )

  00047	33 db		 xor	 ebx, ebx
  00049	3b fb		 cmp	 edi, ebx
  0004b	75 20		 jne	 SHORT $LN18@RollingEff
$LN42@RollingEff:

; 233  : 	{
; 234  : 		SAFEDELETE( m_pEffect );

  0004d	8b 8e 64 01 00
	00		 mov	 ecx, DWORD PTR [esi+356]
  00053	3b cb		 cmp	 ecx, ebx
  00055	0f 84 60 01 00
	00		 je	 $LN6@RollingEff
  0005b	8b 01		 mov	 eax, DWORD PTR [ecx]
  0005d	6a 01		 push	 1
  0005f	ff 50 40	 call	 DWORD PTR [eax+64]
  00062	89 9e 64 01 00
	00		 mov	 DWORD PTR [esi+356], ebx

; 235  : 		return;

  00068	e9 4e 01 00 00	 jmp	 $LN6@RollingEff
$LN18@RollingEff:

; 236  : 	}
; 237  : 
; 238  : 	if( m_bFinalResult )

  0006d	84 c9		 test	 cl, cl
  0006f	0f 84 9f 00 00
	00		 je	 $LN16@RollingEff

; 239  : 	{
; 240  : 		if( m_iCurEffectArray == iEffectListCnt-1 )

  00075	8d 47 ff	 lea	 eax, DWORD PTR [edi-1]
  00078	39 86 e0 01 00
	00		 cmp	 DWORD PTR [esi+480], eax

; 241  : 		{
; 242  : 			SAFEDELETE( m_pEffect );
; 243  : 			return;

  0007e	74 cd		 je	 SHORT $LN42@RollingEff

; 244  : 		}
; 245  : 
; 246  : 		if( m_dwRollingEffectCheckTime == 0 || dwCurTime - m_dwRollingEffectCheckTime > m_dwRollingEffectTime )		// 背眉

  00080	8b 86 e8 01 00
	00		 mov	 eax, DWORD PTR [esi+488]
  00086	3b c3		 cmp	 eax, ebx
  00088	74 11		 je	 SHORT $LN12@RollingEff
  0008a	8b 4d f0	 mov	 ecx, DWORD PTR _dwCurTime$[ebp]
  0008d	2b c8		 sub	 ecx, eax
  0008f	3b 8e e4 01 00
	00		 cmp	 ecx, DWORD PTR [esi+484]
  00095	0f 86 20 01 00
	00		 jbe	 $LN6@RollingEff
$LN12@RollingEff:

; 247  : 		{
; 248  : 			SAFEDELETE( m_pEffect );

  0009b	8b 8e 64 01 00
	00		 mov	 ecx, DWORD PTR [esi+356]
  000a1	3b cb		 cmp	 ecx, ebx
  000a3	74 0d		 je	 SHORT $LN11@RollingEff
  000a5	8b 01		 mov	 eax, DWORD PTR [ecx]
  000a7	6a 01		 push	 1
  000a9	ff 50 40	 call	 DWORD PTR [eax+64]
  000ac	89 9e 64 01 00
	00		 mov	 DWORD PTR [esi+356], ebx
$LN11@RollingEff:

; 249  : 
; 250  : 			m_iCurEffectArray++;

  000b2	ff 86 e0 01 00
	00		 inc	 DWORD PTR [esi+480]
  000b8	8b 86 e0 01 00
	00		 mov	 eax, DWORD PTR [esi+480]

; 251  : 
; 252  : 			if( !COMPARE( m_iCurEffectArray, 0, iEffectListCnt ) )

  000be	78 04		 js	 SHORT $LN9@RollingEff
  000c0	3b c7		 cmp	 eax, edi
  000c2	7c 06		 jl	 SHORT $LN10@RollingEff
$LN9@RollingEff:

; 253  : 				m_iCurEffectArray = 0;

  000c4	89 9e e0 01 00
	00		 mov	 DWORD PTR [esi+480], ebx
$LN10@RollingEff:

; 254  : 
; 255  : 			ioHashString szEffect = m_vEndEfffect[m_iCurEffectArray];

  000ca	8b 86 e0 01 00
	00		 mov	 eax, DWORD PTR [esi+480]
  000d0	c1 e0 04	 shl	 eax, 4
  000d3	03 86 94 01 00
	00		 add	 eax, DWORD PTR [esi+404]
  000d9	8d 4d e0	 lea	 ecx, DWORD PTR _szEffect$506075[ebp]
  000dc	50		 push	 eax
  000dd	ff 15 00 00 00
	00		 call	 DWORD PTR __imp_??0ioHashString@@QAE@ABV0@@Z

; 256  : 
; 257  : 			if( !szEffect.IsEmpty() )

  000e3	8d 4d e0	 lea	 ecx, DWORD PTR _szEffect$506075[ebp]
  000e6	89 5d fc	 mov	 DWORD PTR __$EHRec$[ebp+8], ebx
  000e9	ff 15 00 00 00
	00		 call	 DWORD PTR __imp_?IsEmpty@ioHashString@@QBE_NXZ
  000ef	84 c0		 test	 al, al
  000f1	75 19		 jne	 SHORT $LN8@RollingEff

; 258  : 				m_pEffect = g_UIImageSetMgr.CreateImageByFullName( szEffect );

  000f3	8d 45 e0	 lea	 eax, DWORD PTR _szEffect$506075[ebp]
  000f6	53		 push	 ebx
  000f7	50		 push	 eax
  000f8	ff 15 00 00 00
	00		 call	 DWORD PTR __imp_?GetSingleton@ioUIImageSetManager@@SAAAV1@XZ
  000fe	8b c8		 mov	 ecx, eax
  00100	ff 15 00 00 00
	00		 call	 DWORD PTR __imp_?CreateImageByFullName@ioUIImageSetManager@@QAEPAVioUIRenderImage@@ABVioHashString@@_N@Z
  00106	89 86 64 01 00
	00		 mov	 DWORD PTR [esi+356], eax
$LN8@RollingEff:

; 259  : 
; 260  : 			m_dwRollingEffectCheckTime = dwCurTime;
; 261  : 		}

  0010c	8d 4d e0	 lea	 ecx, DWORD PTR _szEffect$506075[ebp]

; 262  : 	}
; 263  : 	else

  0010f	e9 94 00 00 00	 jmp	 $LN41@RollingEff
$LN16@RollingEff:

; 264  : 	{
; 265  : 		if( m_dwRollingEffectCheckTime == 0 || dwCurTime - m_dwRollingEffectCheckTime > m_dwRollingEffectTime )		// 背眉

  00114	8b 86 e8 01 00
	00		 mov	 eax, DWORD PTR [esi+488]
  0011a	3b c3		 cmp	 eax, ebx
  0011c	74 11		 je	 SHORT $LN5@RollingEff
  0011e	8b 4d f0	 mov	 ecx, DWORD PTR _dwCurTime$[ebp]
  00121	2b c8		 sub	 ecx, eax
  00123	3b 8e e4 01 00
	00		 cmp	 ecx, DWORD PTR [esi+484]
  00129	0f 86 8c 00 00
	00		 jbe	 $LN6@RollingEff
$LN5@RollingEff:

; 266  : 		{
; 267  : 			SAFEDELETE( m_pEffect );

  0012f	8b 8e 64 01 00
	00		 mov	 ecx, DWORD PTR [esi+356]
  00135	33 db		 xor	 ebx, ebx
  00137	43		 inc	 ebx
  00138	85 c9		 test	 ecx, ecx
  0013a	74 0d		 je	 SHORT $LN4@RollingEff
  0013c	8b 01		 mov	 eax, DWORD PTR [ecx]
  0013e	53		 push	 ebx
  0013f	ff 50 40	 call	 DWORD PTR [eax+64]
  00142	83 a6 64 01 00
	00 00		 and	 DWORD PTR [esi+356], 0
$LN4@RollingEff:

; 268  : 
; 269  : 			m_iCurEffectArray++;

  00149	ff 86 e0 01 00
	00		 inc	 DWORD PTR [esi+480]
  0014f	8b 8e e0 01 00
	00		 mov	 ecx, DWORD PTR [esi+480]

; 270  : 
; 271  : 			if( !COMPARE( m_iCurEffectArray, 0, iEffectListCnt ) )

  00155	78 04		 js	 SHORT $LN2@RollingEff
  00157	3b cf		 cmp	 ecx, edi
  00159	7c 07		 jl	 SHORT $LN3@RollingEff
$LN2@RollingEff:

; 272  : 				m_iCurEffectArray = 0;

  0015b	83 a6 e0 01 00
	00 00		 and	 DWORD PTR [esi+480], 0
$LN3@RollingEff:

; 273  : 
; 274  : 			ioHashString szEffect = m_vRollingEffect[m_iCurEffectArray];

  00162	8b 86 e0 01 00
	00		 mov	 eax, DWORD PTR [esi+480]
  00168	c1 e0 04	 shl	 eax, 4
  0016b	03 86 84 01 00
	00		 add	 eax, DWORD PTR [esi+388]
  00171	8d 4d d0	 lea	 ecx, DWORD PTR _szEffect$506085[ebp]
  00174	50		 push	 eax
  00175	ff 15 00 00 00
	00		 call	 DWORD PTR __imp_??0ioHashString@@QAE@ABV0@@Z

; 275  : 
; 276  : 			if( !szEffect.IsEmpty() )

  0017b	8d 4d d0	 lea	 ecx, DWORD PTR _szEffect$506085[ebp]
  0017e	89 5d fc	 mov	 DWORD PTR __$EHRec$[ebp+8], ebx
  00181	ff 15 00 00 00
	00		 call	 DWORD PTR __imp_?IsEmpty@ioHashString@@QBE_NXZ
  00187	84 c0		 test	 al, al
  00189	75 1a		 jne	 SHORT $LN1@RollingEff

; 277  : 				m_pEffect = g_UIImageSetMgr.CreateImageByFullName( szEffect );

  0018b	8d 45 d0	 lea	 eax, DWORD PTR _szEffect$506085[ebp]
  0018e	6a 00		 push	 0
  00190	50		 push	 eax
  00191	ff 15 00 00 00
	00		 call	 DWORD PTR __imp_?GetSingleton@ioUIImageSetManager@@SAAAV1@XZ
  00197	8b c8		 mov	 ecx, eax
  00199	ff 15 00 00 00
	00		 call	 DWORD PTR __imp_?CreateImageByFullName@ioUIImageSetManager@@QAEPAVioUIRenderImage@@ABVioHashString@@_N@Z
  0019f	89 86 64 01 00
	00		 mov	 DWORD PTR [esi+356], eax
$LN1@RollingEff:

; 280  : 		}

  001a5	8d 4d d0	 lea	 ecx, DWORD PTR _szEffect$506085[ebp]
$LN41@RollingEff:

; 278  : 
; 279  : 			m_dwRollingEffectCheckTime = dwCurTime;

  001a8	8b 45 f0	 mov	 eax, DWORD PTR _dwCurTime$[ebp]

; 280  : 		}

  001ab	83 4d fc ff	 or	 DWORD PTR __$EHRec$[ebp+8], -1
  001af	89 86 e8 01 00
	00		 mov	 DWORD PTR [esi+488], eax
  001b5	ff 15 00 00 00
	00		 call	 DWORD PTR __imp_??1ioHashString@@QAE@XZ
$LN6@RollingEff:

; 281  : 	}
; 282  : }

  001bb	e8 00 00 00 00	 call	 __EH_epilog3
  001c0	c2 04 00	 ret	 4
_TEXT	ENDS
;	COMDAT text$x
text$x	SEGMENT
__unwindfunclet$?RollingEffect@ioCostumeRandomBox@@IAEXM@Z$0:
  00000	8d 4d e0	 lea	 ecx, DWORD PTR _szEffect$506075[ebp]
  00003	ff 25 00 00 00
	00		 jmp	 DWORD PTR __imp_??1ioHashString@@QAE@XZ
__unwindfunclet$?RollingEffect@ioCostumeRandomBox@@IAEXM@Z$1:
  00009	8d 4d d0	 lea	 ecx, DWORD PTR _szEffect$506085[ebp]
  0000c	ff 25 00 00 00
	00		 jmp	 DWORD PTR __imp_??1ioHashString@@QAE@XZ
__ehhandler$?RollingEffect@ioCostumeRandomBox@@IAEXM@Z:
  00012	8b 54 24 08	 mov	 edx, DWORD PTR [esp+8]
  00016	8d 42 0c	 lea	 eax, DWORD PTR [edx+12]
  00019	8b 4a cc	 mov	 ecx, DWORD PTR [edx-52]
  0001c	33 c8		 xor	 ecx, eax
  0001e	e8 00 00 00 00	 call	 @__security_check_cookie@4
  00023	b8 00 00 00 00	 mov	 eax, OFFSET __ehfuncinfo$?RollingEffect@ioCostumeRandomBox@@IAEXM@Z
  00028	e9 00 00 00 00	 jmp	 ___CxxFrameHandler3
text$x	ENDS
?RollingEffect@ioCostumeRandomBox@@IAEXM@Z ENDP		; ioCostumeRandomBox::RollingEffect
PUBLIC	??D?$_Vector_iterator@V?$_Vector_val@UtagCostumeShopSubInfo@@V?$allocator@UtagCostumeShopSubInfo@@@std@@@std@@@std@@QBEAAUtagCostumeShopSubInfo@@XZ ; std::_Vector_iterator<std::_Vector_val<tagCostumeShopSubInfo,std::allocator<tagCostumeShopSubInfo> > >::operator*
; Function compile flags: /Ogsp
; File c:\program files (x86)\microsoft visual studio 10.0\vc\include\vector
;	COMDAT ??D?$_Vector_iterator@V?$_Vector_val@UtagCostumeShopSubInfo@@V?$allocator@UtagCostumeShopSubInfo@@@std@@@std@@@std@@QBEAAUtagCostumeShopSubInfo@@XZ
_TEXT	SEGMENT
??D?$_Vector_iterator@V?$_Vector_val@UtagCostumeShopSubInfo@@V?$allocator@UtagCostumeShopSubInfo@@@std@@@std@@@std@@QBEAAUtagCostumeShopSubInfo@@XZ PROC ; std::_Vector_iterator<std::_Vector_val<tagCostumeShopSubInfo,std::allocator<tagCostumeShopSubInfo> > >::operator*, COMDAT
; _this$ = ecx

; 322  : 		return ((reference)**(_Mybase *)this);

  00000	8b 01		 mov	 eax, DWORD PTR [ecx]

; 323  : 		}

  00002	c3		 ret	 0
??D?$_Vector_iterator@V?$_Vector_val@UtagCostumeShopSubInfo@@V?$allocator@UtagCostumeShopSubInfo@@@std@@@std@@@std@@QBEAAUtagCostumeShopSubInfo@@XZ ENDP ; std::_Vector_iterator<std::_Vector_val<tagCostumeShopSubInfo,std::allocator<tagCostumeShopSubInfo> > >::operator*
_TEXT	ENDS
PUBLIC	??E?$_Vector_iterator@V?$_Vector_val@UtagCostumeShopSubInfo@@V?$allocator@UtagCostumeShopSubInfo@@@std@@@std@@@std@@QAEAAV01@XZ ; std::_Vector_iterator<std::_Vector_val<tagCostumeShopSubInfo,std::allocator<tagCostumeShopSubInfo> > >::operator++
; Function compile flags: /Ogsp
;	COMDAT ??E?$_Vector_iterator@V?$_Vector_val@UtagCostumeShopSubInfo@@V?$allocator@UtagCostumeShopSubInfo@@@std@@@std@@@std@@QAEAAV01@XZ
_TEXT	SEGMENT
??E?$_Vector_iterator@V?$_Vector_val@UtagCostumeShopSubInfo@@V?$allocator@UtagCostumeShopSubInfo@@@std@@@std@@@std@@QAEAAV01@XZ PROC ; std::_Vector_iterator<std::_Vector_val<tagCostumeShopSubInfo,std::allocator<tagCostumeShopSubInfo> > >::operator++, COMDAT
; _this$ = ecx

; 331  : 		{	// preincrement

  00000	8b c1		 mov	 eax, ecx

; 332  : 		++*(_Mybase *)this;

  00002	83 00 10	 add	 DWORD PTR [eax], 16	; 00000010H

; 333  : 		return (*this);
; 334  : 		}

  00005	c3		 ret	 0
??E?$_Vector_iterator@V?$_Vector_val@UtagCostumeShopSubInfo@@V?$allocator@UtagCostumeShopSubInfo@@@std@@@std@@@std@@QAEAAV01@XZ ENDP ; std::_Vector_iterator<std::_Vector_val<tagCostumeShopSubInfo,std::allocator<tagCostumeShopSubInfo> > >::operator++
_TEXT	ENDS
PUBLIC	??0?$_Vector_val@UtagCostumeShopSubInfo@@V?$allocator@UtagCostumeShopSubInfo@@@std@@@std@@QAE@V?$allocator@UtagCostumeShopSubInfo@@@1@@Z ; std::_Vector_val<tagCostumeShopSubInfo,std::allocator<tagCostumeShopSubInfo> >::_Vector_val<tagCostumeShopSubInfo,std::allocator<tagCostumeShopSubInfo> >
; Function compile flags: /Ogsp
;	COMDAT ??0?$_Vector_val@UtagCostumeShopSubInfo@@V?$allocator@UtagCostumeShopSubInfo@@@std@@@std@@QAE@V?$allocator@UtagCostumeShopSubInfo@@@1@@Z
_TEXT	SEGMENT
__Al$ = 8						; size = 1
??0?$_Vector_val@UtagCostumeShopSubInfo@@V?$allocator@UtagCostumeShopSubInfo@@@std@@@std@@QAE@V?$allocator@UtagCostumeShopSubInfo@@@1@@Z PROC ; std::_Vector_val<tagCostumeShopSubInfo,std::allocator<tagCostumeShopSubInfo> >::_Vector_val<tagCostumeShopSubInfo,std::allocator<tagCostumeShopSubInfo> >, COMDAT
; _this$ = ecx

; 426  : 		{	// construct allocator from _Al

  00000	8b c1		 mov	 eax, ecx

; 427  : 		_Myfirst = 0;

  00002	33 c9		 xor	 ecx, ecx
  00004	89 08		 mov	 DWORD PTR [eax], ecx

; 428  : 		_Mylast = 0;

  00006	89 48 04	 mov	 DWORD PTR [eax+4], ecx

; 429  : 		_Myend = 0;

  00009	89 48 08	 mov	 DWORD PTR [eax+8], ecx

; 430  : 		}

  0000c	c2 04 00	 ret	 4
??0?$_Vector_val@UtagCostumeShopSubInfo@@V?$allocator@UtagCostumeShopSubInfo@@@std@@@std@@QAE@V?$allocator@UtagCostumeShopSubInfo@@@1@@Z ENDP ; std::_Vector_val<tagCostumeShopSubInfo,std::allocator<tagCostumeShopSubInfo> >::_Vector_val<tagCostumeShopSubInfo,std::allocator<tagCostumeShopSubInfo> >
_TEXT	ENDS
PUBLIC	??8?$_Vector_const_iterator@V?$_Vector_val@UtagCostumeShopSubInfo@@V?$allocator@UtagCostumeShopSubInfo@@@std@@@std@@@std@@QBE_NABV01@@Z ; std::_Vector_const_iterator<std::_Vector_val<tagCostumeShopSubInfo,std::allocator<tagCostumeShopSubInfo> > >::operator==
; Function compile flags: /Ogsp
;	COMDAT ??8?$_Vector_const_iterator@V?$_Vector_val@UtagCostumeShopSubInfo@@V?$allocator@UtagCostumeShopSubInfo@@@std@@@std@@@std@@QBE_NABV01@@Z
_TEXT	SEGMENT
__Right$ = 8						; size = 4
??8?$_Vector_const_iterator@V?$_Vector_val@UtagCostumeShopSubInfo@@V?$allocator@UtagCostumeShopSubInfo@@@std@@@std@@@std@@QBE_NABV01@@Z PROC ; std::_Vector_const_iterator<std::_Vector_val<tagCostumeShopSubInfo,std::allocator<tagCostumeShopSubInfo> > >::operator==, COMDAT
; _this$ = ecx

; 201  : 		{	// test for iterator equality

  00000	55		 push	 ebp
  00001	8b ec		 mov	 ebp, esp

; 202  : 		_Compat(_Right);
; 203  : 		return (this->_Ptr == _Right._Ptr);

  00003	8b 01		 mov	 eax, DWORD PTR [ecx]
  00005	8b 4d 08	 mov	 ecx, DWORD PTR __Right$[ebp]
  00008	2b 01		 sub	 eax, DWORD PTR [ecx]
  0000a	f7 d8		 neg	 eax
  0000c	1b c0		 sbb	 eax, eax
  0000e	40		 inc	 eax

; 204  : 		}

  0000f	5d		 pop	 ebp
  00010	c2 04 00	 ret	 4
??8?$_Vector_const_iterator@V?$_Vector_val@UtagCostumeShopSubInfo@@V?$allocator@UtagCostumeShopSubInfo@@@std@@@std@@@std@@QBE_NABV01@@Z ENDP ; std::_Vector_const_iterator<std::_Vector_val<tagCostumeShopSubInfo,std::allocator<tagCostumeShopSubInfo> > >::operator==
_TEXT	ENDS
PUBLIC	??0?$_Vector_const_iterator@V?$_Vector_val@UtagCostumeShopSubInfo@@V?$allocator@UtagCostumeShopSubInfo@@@std@@@std@@@std@@QAE@PAUtagCostumeShopSubInfo@@PBU_Container_base0@1@@Z ; std::_Vector_const_iterator<std::_Vector_val<tagCostumeShopSubInfo,std::allocator<tagCostumeShopSubInfo> > >::_Vector_const_iterator<std::_Vector_val<tagCostumeShopSubInfo,std::allocator<tagCostumeShopSubInfo> > >
; Function compile flags: /Ogsp
;	COMDAT ??0?$_Vector_const_iterator@V?$_Vector_val@UtagCostumeShopSubInfo@@V?$allocator@UtagCostumeShopSubInfo@@@std@@@std@@@std@@QAE@PAUtagCostumeShopSubInfo@@PBU_Container_base0@1@@Z
_TEXT	SEGMENT
__Parg$ = 8						; size = 4
__Pvector$ = 12						; size = 4
??0?$_Vector_const_iterator@V?$_Vector_val@UtagCostumeShopSubInfo@@V?$allocator@UtagCostumeShopSubInfo@@@std@@@std@@@std@@QAE@PAUtagCostumeShopSubInfo@@PBU_Container_base0@1@@Z PROC ; std::_Vector_const_iterator<std::_Vector_val<tagCostumeShopSubInfo,std::allocator<tagCostumeShopSubInfo> > >::_Vector_const_iterator<std::_Vector_val<tagCostumeShopSubInfo,std::allocator<tagCostumeShopSubInfo> > >, COMDAT
; _this$ = ecx

; 45   : 		{	// construct with pointer _Parg

  00000	55		 push	 ebp
  00001	8b ec		 mov	 ebp, esp
  00003	8b c1		 mov	 eax, ecx
  00005	8b 4d 08	 mov	 ecx, DWORD PTR __Parg$[ebp]
  00008	89 08		 mov	 DWORD PTR [eax], ecx

; 46   : 		this->_Adopt(_Pvector);
; 47   : 		}

  0000a	5d		 pop	 ebp
  0000b	c2 08 00	 ret	 8
??0?$_Vector_const_iterator@V?$_Vector_val@UtagCostumeShopSubInfo@@V?$allocator@UtagCostumeShopSubInfo@@@std@@@std@@@std@@QAE@PAUtagCostumeShopSubInfo@@PBU_Container_base0@1@@Z ENDP ; std::_Vector_const_iterator<std::_Vector_val<tagCostumeShopSubInfo,std::allocator<tagCostumeShopSubInfo> > >::_Vector_const_iterator<std::_Vector_val<tagCostumeShopSubInfo,std::allocator<tagCostumeShopSubInfo> > >
_TEXT	ENDS
PUBLIC	__$ArrayPad$
PUBLIC	??$?8$0M@@@YA_NABVioHashString@@AAY0M@$$CBD@Z	; operator==<12>
EXTRN	___security_cookie:DWORD
; Function compile flags: /Ogsp
; File d:\lost saga for developer\youtube\tutorial\source\src\io3dengine\iohashstring.h
;	COMDAT ??$?8$0M@@@YA_NABVioHashString@@AAY0M@$$CBD@Z
_TEXT	SEGMENT
__t$ = -20						; size = 12
__$ArrayPad$ = -4					; size = 4
_lhs$ = 8						; size = 4
_t$ = 12						; size = 4
??$?8$0M@@@YA_NABVioHashString@@AAY0M@$$CBD@Z PROC	; operator==<12>, COMDAT

; 146  : {

  00000	55		 push	 ebp
  00001	8b ec		 mov	 ebp, esp
  00003	83 ec 14	 sub	 esp, 20			; 00000014H
  00006	a1 00 00 00 00	 mov	 eax, DWORD PTR ___security_cookie
  0000b	33 c5		 xor	 eax, ebp
  0000d	89 45 fc	 mov	 DWORD PTR __$ArrayPad$[ebp], eax
  00010	8b 45 0c	 mov	 eax, DWORD PTR _t$[ebp]

; 147  : 	_ENCSTR(t, _t); return ( strcmp( lhs.c_str(), _t ) == 0 );

  00013	8a 10		 mov	 dl, BYTE PTR [eax]
  00015	56		 push	 esi
  00016	57		 push	 edi
  00017	8b 7d 08	 mov	 edi, DWORD PTR _lhs$[ebp]
  0001a	84 d2		 test	 dl, dl
  0001c	0f 84 32 01 00
	00		 je	 $LN96@operator
  00022	80 f2 ed	 xor	 dl, -19			; ffffffedH
  00025	88 55 ec	 mov	 BYTE PTR __t$[ebp], dl
  00028	8a 50 01	 mov	 dl, BYTE PTR [eax+1]
  0002b	84 d2		 test	 dl, dl
  0002d	0f 84 1b 01 00
	00		 je	 $LN95@operator
  00033	80 f2 ec	 xor	 dl, -20			; ffffffecH
  00036	88 55 ed	 mov	 BYTE PTR __t$[ebp+1], dl
  00039	8a 50 02	 mov	 dl, BYTE PTR [eax+2]
  0003c	84 d2		 test	 dl, dl
  0003e	0f 84 04 01 00
	00		 je	 $LN94@operator
  00044	b1 eb		 mov	 cl, -21			; ffffffebH
  00046	32 d1		 xor	 dl, cl
  00048	88 55 ee	 mov	 BYTE PTR __t$[ebp+2], dl
  0004b	8a 50 03	 mov	 dl, BYTE PTR [eax+3]
  0004e	84 d2		 test	 dl, dl
  00050	0f 84 ec 00 00
	00		 je	 $LN93@operator
  00056	80 f2 ea	 xor	 dl, -22			; ffffffeaH
  00059	88 55 ef	 mov	 BYTE PTR __t$[ebp+3], dl
  0005c	8a 50 04	 mov	 dl, BYTE PTR [eax+4]
  0005f	84 d2		 test	 dl, dl
  00061	0f 84 d5 00 00
	00		 je	 $LN92@operator
  00067	80 f2 ed	 xor	 dl, -19			; ffffffedH
  0006a	88 55 f0	 mov	 BYTE PTR __t$[ebp+4], dl
  0006d	8a 50 05	 mov	 dl, BYTE PTR [eax+5]
  00070	84 d2		 test	 dl, dl
  00072	0f 84 be 00 00
	00		 je	 $LN91@operator
  00078	80 f2 ec	 xor	 dl, -20			; ffffffecH
  0007b	88 55 f1	 mov	 BYTE PTR __t$[ebp+5], dl
  0007e	8a 50 06	 mov	 dl, BYTE PTR [eax+6]
  00081	84 d2		 test	 dl, dl
  00083	0f 84 a8 00 00
	00		 je	 $LN90@operator
  00089	32 d1		 xor	 dl, cl
  0008b	88 55 f2	 mov	 BYTE PTR __t$[ebp+6], dl
  0008e	8a 50 07	 mov	 dl, BYTE PTR [eax+7]
  00091	84 d2		 test	 dl, dl
  00093	0f 84 92 00 00
	00		 je	 $LN89@operator
  00099	80 f2 ea	 xor	 dl, -22			; ffffffeaH
  0009c	88 55 f3	 mov	 BYTE PTR __t$[ebp+7], dl
  0009f	8a 50 08	 mov	 dl, BYTE PTR [eax+8]
  000a2	84 d2		 test	 dl, dl
  000a4	74 7f		 je	 SHORT $LN88@operator
  000a6	80 f2 ed	 xor	 dl, -19			; ffffffedH
  000a9	88 55 f4	 mov	 BYTE PTR __t$[ebp+8], dl
  000ac	8a 50 09	 mov	 dl, BYTE PTR [eax+9]
  000af	84 d2		 test	 dl, dl
  000b1	74 6c		 je	 SHORT $LN87@operator
  000b3	80 f2 ec	 xor	 dl, -20			; ffffffecH
  000b6	88 55 f5	 mov	 BYTE PTR __t$[ebp+9], dl
  000b9	8a 50 0a	 mov	 dl, BYTE PTR [eax+10]
  000bc	84 d2		 test	 dl, dl
  000be	74 5a		 je	 SHORT $LN86@operator
  000c0	32 d1		 xor	 dl, cl
  000c2	80 78 0b 00	 cmp	 BYTE PTR [eax+11], 0
  000c6	88 55 f6	 mov	 BYTE PTR __t$[ebp+10], dl
  000c9	0f 84 89 00 00
	00		 je	 $LN1@operator
  000cf	8a 50 0c	 mov	 dl, BYTE PTR [eax+12]
  000d2	84 d2		 test	 dl, dl
  000d4	74 3e		 je	 SHORT $LN84@operator
  000d6	80 f2 ed	 xor	 dl, -19			; ffffffedH
  000d9	88 55 f8	 mov	 BYTE PTR __t$[ebp+12], dl
  000dc	8a 50 0d	 mov	 dl, BYTE PTR [eax+13]
  000df	84 d2		 test	 dl, dl
  000e1	74 2b		 je	 SHORT $LN83@operator
  000e3	80 f2 ec	 xor	 dl, -20			; ffffffecH
  000e6	88 55 f9	 mov	 BYTE PTR __t$[ebp+13], dl
  000e9	8a 50 0e	 mov	 dl, BYTE PTR [eax+14]
  000ec	84 d2		 test	 dl, dl
  000ee	74 19		 je	 SHORT $LN82@operator
  000f0	8a 40 0f	 mov	 al, BYTE PTR [eax+15]
  000f3	32 d1		 xor	 dl, cl
  000f5	88 55 fa	 mov	 BYTE PTR __t$[ebp+14], dl
  000f8	84 c0		 test	 al, al
  000fa	74 07		 je	 SHORT $LN81@operator
  000fc	34 ea		 xor	 al, -22			; ffffffeaH
  000fe	88 45 fb	 mov	 BYTE PTR __t$[ebp+15], al
  00101	eb 55		 jmp	 SHORT $LN1@operator
$LN81@operator:
  00103	c6 45 fb ea	 mov	 BYTE PTR __t$[ebp+15], -22 ; ffffffeaH
  00107	eb 4f		 jmp	 SHORT $LN1@operator
$LN82@operator:
  00109	88 4d fa	 mov	 BYTE PTR __t$[ebp+14], cl
  0010c	eb 4a		 jmp	 SHORT $LN1@operator
$LN83@operator:
  0010e	c6 45 f9 ec	 mov	 BYTE PTR __t$[ebp+13], -20 ; ffffffecH
  00112	eb 44		 jmp	 SHORT $LN1@operator
$LN84@operator:
  00114	c6 45 f8 ed	 mov	 BYTE PTR __t$[ebp+12], -19 ; ffffffedH
  00118	eb 3e		 jmp	 SHORT $LN1@operator
$LN86@operator:
  0011a	88 4d f6	 mov	 BYTE PTR __t$[ebp+10], cl
  0011d	eb 39		 jmp	 SHORT $LN1@operator
$LN87@operator:
  0011f	c6 45 f5 ec	 mov	 BYTE PTR __t$[ebp+9], -20 ; ffffffecH
  00123	eb 33		 jmp	 SHORT $LN1@operator
$LN88@operator:
  00125	c6 45 f4 ed	 mov	 BYTE PTR __t$[ebp+8], -19 ; ffffffedH
  00129	eb 2d		 jmp	 SHORT $LN1@operator
$LN89@operator:
  0012b	c6 45 f3 ea	 mov	 BYTE PTR __t$[ebp+7], -22 ; ffffffeaH
  0012f	eb 27		 jmp	 SHORT $LN1@operator
$LN90@operator:
  00131	88 4d f2	 mov	 BYTE PTR __t$[ebp+6], cl
  00134	eb 22		 jmp	 SHORT $LN1@operator
$LN91@operator:
  00136	c6 45 f1 ec	 mov	 BYTE PTR __t$[ebp+5], -20 ; ffffffecH
  0013a	eb 1c		 jmp	 SHORT $LN1@operator
$LN92@operator:
  0013c	c6 45 f0 ed	 mov	 BYTE PTR __t$[ebp+4], -19 ; ffffffedH
  00140	eb 16		 jmp	 SHORT $LN1@operator
$LN93@operator:
  00142	c6 45 ef ea	 mov	 BYTE PTR __t$[ebp+3], -22 ; ffffffeaH
  00146	eb 10		 jmp	 SHORT $LN1@operator
$LN94@operator:
  00148	c6 45 ee eb	 mov	 BYTE PTR __t$[ebp+2], -21 ; ffffffebH
  0014c	eb 0a		 jmp	 SHORT $LN1@operator
$LN95@operator:
  0014e	c6 45 ed ec	 mov	 BYTE PTR __t$[ebp+1], -20 ; ffffffecH
  00152	eb 04		 jmp	 SHORT $LN1@operator
$LN96@operator:
  00154	c6 45 ec ed	 mov	 BYTE PTR __t$[ebp], -19	; ffffffedH
$LN1@operator:
  00158	6a 02		 push	 2
  0015a	8d 45 ec	 lea	 eax, DWORD PTR __t$[ebp]
  0015d	c6 45 f7 00	 mov	 BYTE PTR __t$[ebp+11], 0
  00161	5a		 pop	 edx
$LL104@operator:
  00162	81 30 ed ec eb
	ea		 xor	 DWORD PTR [eax], -353637139 ; eaebecedH
  00168	83 c0 04	 add	 eax, 4
  0016b	4a		 dec	 edx
  0016c	75 f4		 jne	 SHORT $LL104@operator
  0016e	6a 08		 push	 8
  00170	58		 pop	 eax
$LL101@operator:
  00171	8b c8		 mov	 ecx, eax
  00173	81 e1 03 00 00
	80		 and	 ecx, -2147483645	; 80000003H
  00179	79 05		 jns	 SHORT $LN115@operator
  0017b	49		 dec	 ecx
  0017c	83 c9 fc	 or	 ecx, -4			; fffffffcH
  0017f	41		 inc	 ecx
$LN115@operator:
  00180	b2 ed		 mov	 dl, -19			; ffffffedH
  00182	2a d1		 sub	 dl, cl
  00184	30 54 05 ec	 xor	 BYTE PTR __t$[ebp+eax], dl
  00188	40		 inc	 eax
  00189	83 f8 0b	 cmp	 eax, 11			; 0000000bH
  0018c	7c e3		 jl	 SHORT $LL101@operator
  0018e	8b cf		 mov	 ecx, edi
  00190	8d 75 ec	 lea	 esi, DWORD PTR __t$[ebp]
  00193	ff 15 00 00 00
	00		 call	 DWORD PTR __imp_?c_str@ioHashString@@QBEPBDXZ
$LL111@operator:
  00199	8a 08		 mov	 cl, BYTE PTR [eax]
  0019b	3a 0e		 cmp	 cl, BYTE PTR [esi]
  0019d	75 1a		 jne	 SHORT $LN112@operator
  0019f	84 c9		 test	 cl, cl
  001a1	74 12		 je	 SHORT $LN113@operator
  001a3	8a 48 01	 mov	 cl, BYTE PTR [eax+1]
  001a6	3a 4e 01	 cmp	 cl, BYTE PTR [esi+1]
  001a9	75 0e		 jne	 SHORT $LN112@operator
  001ab	83 c0 02	 add	 eax, 2
  001ae	83 c6 02	 add	 esi, 2
  001b1	84 c9		 test	 cl, cl
  001b3	75 e4		 jne	 SHORT $LL111@operator
$LN113@operator:
  001b5	33 c0		 xor	 eax, eax
  001b7	eb 05		 jmp	 SHORT $LN114@operator
$LN112@operator:
  001b9	1b c0		 sbb	 eax, eax
  001bb	83 d8 ff	 sbb	 eax, -1
$LN114@operator:
  001be	33 c9		 xor	 ecx, ecx
  001c0	85 c0		 test	 eax, eax
  001c2	0f 94 c0	 sete	 al

; 148  : }

  001c5	8b 4d fc	 mov	 ecx, DWORD PTR __$ArrayPad$[ebp]
  001c8	5f		 pop	 edi
  001c9	33 cd		 xor	 ecx, ebp
  001cb	5e		 pop	 esi
  001cc	e8 00 00 00 00	 call	 @__security_check_cookie@4
  001d1	c9		 leave
  001d2	c3		 ret	 0
??$?8$0M@@@YA_NABVioHashString@@AAY0M@$$CBD@Z ENDP	; operator==<12>
_TEXT	ENDS
PUBLIC	__$ArrayPad$
PUBLIC	??$?8$0BC@@@YA_NABVioHashString@@AAY0BC@$$CBD@Z	; operator==<18>
; Function compile flags: /Ogsp
;	COMDAT ??$?8$0BC@@@YA_NABVioHashString@@AAY0BC@$$CBD@Z
_TEXT	SEGMENT
__t$ = -28						; size = 18
__$ArrayPad$ = -4					; size = 4
_lhs$ = 8						; size = 4
_t$ = 12						; size = 4
??$?8$0BC@@@YA_NABVioHashString@@AAY0BC@$$CBD@Z PROC	; operator==<18>, COMDAT

; 146  : {

  00000	55		 push	 ebp
  00001	8b ec		 mov	 ebp, esp
  00003	83 ec 1c	 sub	 esp, 28			; 0000001cH
  00006	a1 00 00 00 00	 mov	 eax, DWORD PTR ___security_cookie
  0000b	33 c5		 xor	 eax, ebp
  0000d	89 45 fc	 mov	 DWORD PTR __$ArrayPad$[ebp], eax
  00010	8b 45 0c	 mov	 eax, DWORD PTR _t$[ebp]

; 147  : 	_ENCSTR(t, _t); return ( strcmp( lhs.c_str(), _t ) == 0 );

  00013	8a 10		 mov	 dl, BYTE PTR [eax]
  00015	56		 push	 esi
  00016	57		 push	 edi
  00017	8b 7d 08	 mov	 edi, DWORD PTR _lhs$[ebp]
  0001a	84 d2		 test	 dl, dl
  0001c	0f 84 be 01 00
	00		 je	 $LN96@operator@2
  00022	80 f2 ed	 xor	 dl, -19			; ffffffedH
  00025	88 55 e4	 mov	 BYTE PTR __t$[ebp], dl
  00028	8a 50 01	 mov	 dl, BYTE PTR [eax+1]
  0002b	84 d2		 test	 dl, dl
  0002d	0f 84 a7 01 00
	00		 je	 $LN95@operator@2
  00033	80 f2 ec	 xor	 dl, -20			; ffffffecH
  00036	88 55 e5	 mov	 BYTE PTR __t$[ebp+1], dl
  00039	8a 50 02	 mov	 dl, BYTE PTR [eax+2]
  0003c	84 d2		 test	 dl, dl
  0003e	0f 84 90 01 00
	00		 je	 $LN94@operator@2
  00044	b1 eb		 mov	 cl, -21			; ffffffebH
  00046	32 d1		 xor	 dl, cl
  00048	88 55 e6	 mov	 BYTE PTR __t$[ebp+2], dl
  0004b	8a 50 03	 mov	 dl, BYTE PTR [eax+3]
  0004e	84 d2		 test	 dl, dl
  00050	0f 84 78 01 00
	00		 je	 $LN93@operator@2
  00056	80 f2 ea	 xor	 dl, -22			; ffffffeaH
  00059	88 55 e7	 mov	 BYTE PTR __t$[ebp+3], dl
  0005c	8a 50 04	 mov	 dl, BYTE PTR [eax+4]
  0005f	84 d2		 test	 dl, dl
  00061	0f 84 61 01 00
	00		 je	 $LN92@operator@2
  00067	80 f2 ed	 xor	 dl, -19			; ffffffedH
  0006a	88 55 e8	 mov	 BYTE PTR __t$[ebp+4], dl
  0006d	8a 50 05	 mov	 dl, BYTE PTR [eax+5]
  00070	84 d2		 test	 dl, dl
  00072	0f 84 4a 01 00
	00		 je	 $LN91@operator@2
  00078	80 f2 ec	 xor	 dl, -20			; ffffffecH
  0007b	88 55 e9	 mov	 BYTE PTR __t$[ebp+5], dl
  0007e	8a 50 06	 mov	 dl, BYTE PTR [eax+6]
  00081	84 d2		 test	 dl, dl
  00083	0f 84 34 01 00
	00		 je	 $LN90@operator@2
  00089	32 d1		 xor	 dl, cl
  0008b	88 55 ea	 mov	 BYTE PTR __t$[ebp+6], dl
  0008e	8a 50 07	 mov	 dl, BYTE PTR [eax+7]
  00091	84 d2		 test	 dl, dl
  00093	0f 84 1e 01 00
	00		 je	 $LN89@operator@2
  00099	80 f2 ea	 xor	 dl, -22			; ffffffeaH
  0009c	88 55 eb	 mov	 BYTE PTR __t$[ebp+7], dl
  0009f	8a 50 08	 mov	 dl, BYTE PTR [eax+8]
  000a2	84 d2		 test	 dl, dl
  000a4	0f 84 07 01 00
	00		 je	 $LN88@operator@2
  000aa	80 f2 ed	 xor	 dl, -19			; ffffffedH
  000ad	88 55 ec	 mov	 BYTE PTR __t$[ebp+8], dl
  000b0	8a 50 09	 mov	 dl, BYTE PTR [eax+9]
  000b3	84 d2		 test	 dl, dl
  000b5	0f 84 f0 00 00
	00		 je	 $LN87@operator@2
  000bb	80 f2 ec	 xor	 dl, -20			; ffffffecH
  000be	88 55 ed	 mov	 BYTE PTR __t$[ebp+9], dl
  000c1	8a 50 0a	 mov	 dl, BYTE PTR [eax+10]
  000c4	84 d2		 test	 dl, dl
  000c6	0f 84 da 00 00
	00		 je	 $LN86@operator@2
  000cc	32 d1		 xor	 dl, cl
  000ce	88 55 ee	 mov	 BYTE PTR __t$[ebp+10], dl
  000d1	8a 50 0b	 mov	 dl, BYTE PTR [eax+11]
  000d4	84 d2		 test	 dl, dl
  000d6	0f 84 c4 00 00
	00		 je	 $LN85@operator@2
  000dc	80 f2 ea	 xor	 dl, -22			; ffffffeaH
  000df	88 55 ef	 mov	 BYTE PTR __t$[ebp+11], dl
  000e2	8a 50 0c	 mov	 dl, BYTE PTR [eax+12]
  000e5	84 d2		 test	 dl, dl
  000e7	0f 84 ad 00 00
	00		 je	 $LN84@operator@2
  000ed	80 f2 ed	 xor	 dl, -19			; ffffffedH
  000f0	88 55 f0	 mov	 BYTE PTR __t$[ebp+12], dl
  000f3	8a 50 0d	 mov	 dl, BYTE PTR [eax+13]
  000f6	84 d2		 test	 dl, dl
  000f8	0f 84 96 00 00
	00		 je	 $LN83@operator@2
  000fe	80 f2 ec	 xor	 dl, -20			; ffffffecH
  00101	88 55 f1	 mov	 BYTE PTR __t$[ebp+13], dl
  00104	8a 50 0e	 mov	 dl, BYTE PTR [eax+14]
  00107	84 d2		 test	 dl, dl
  00109	0f 84 80 00 00
	00		 je	 $LN82@operator@2
  0010f	32 d1		 xor	 dl, cl
  00111	88 55 f2	 mov	 BYTE PTR __t$[ebp+14], dl
  00114	8a 50 0f	 mov	 dl, BYTE PTR [eax+15]
  00117	84 d2		 test	 dl, dl
  00119	74 6e		 je	 SHORT $LN81@operator@2
  0011b	80 f2 ea	 xor	 dl, -22			; ffffffeaH
  0011e	88 55 f3	 mov	 BYTE PTR __t$[ebp+15], dl
  00121	8a 50 10	 mov	 dl, BYTE PTR [eax+16]
  00124	84 d2		 test	 dl, dl
  00126	74 5b		 je	 SHORT $LN80@operator@2
  00128	80 f2 ed	 xor	 dl, -19			; ffffffedH
  0012b	80 78 11 00	 cmp	 BYTE PTR [eax+17], 0
  0012f	88 55 f4	 mov	 BYTE PTR __t$[ebp+16], dl
  00132	0f 84 ac 00 00
	00		 je	 $LN1@operator@2
  00138	8a 50 12	 mov	 dl, BYTE PTR [eax+18]
  0013b	84 d2		 test	 dl, dl
  0013d	74 3f		 je	 SHORT $LN78@operator@2
  0013f	32 d1		 xor	 dl, cl
  00141	88 55 f6	 mov	 BYTE PTR __t$[ebp+18], dl
  00144	8a 50 13	 mov	 dl, BYTE PTR [eax+19]
  00147	84 d2		 test	 dl, dl
  00149	74 2d		 je	 SHORT $LN77@operator@2
  0014b	80 f2 ea	 xor	 dl, -22			; ffffffeaH
  0014e	88 55 f7	 mov	 BYTE PTR __t$[ebp+19], dl
  00151	8a 50 14	 mov	 dl, BYTE PTR [eax+20]
  00154	84 d2		 test	 dl, dl
  00156	74 1a		 je	 SHORT $LN76@operator@2
  00158	8a 40 15	 mov	 al, BYTE PTR [eax+21]
  0015b	80 f2 ed	 xor	 dl, -19			; ffffffedH
  0015e	88 55 f8	 mov	 BYTE PTR __t$[ebp+20], dl
  00161	84 c0		 test	 al, al
  00163	74 07		 je	 SHORT $LN75@operator@2
  00165	34 ec		 xor	 al, -20			; ffffffecH
  00167	88 45 f9	 mov	 BYTE PTR __t$[ebp+21], al
  0016a	eb 78		 jmp	 SHORT $LN1@operator@2
$LN75@operator@2:
  0016c	c6 45 f9 ec	 mov	 BYTE PTR __t$[ebp+21], -20 ; ffffffecH
  00170	eb 72		 jmp	 SHORT $LN1@operator@2
$LN76@operator@2:
  00172	c6 45 f8 ed	 mov	 BYTE PTR __t$[ebp+20], -19 ; ffffffedH
  00176	eb 6c		 jmp	 SHORT $LN1@operator@2
$LN77@operator@2:
  00178	c6 45 f7 ea	 mov	 BYTE PTR __t$[ebp+19], -22 ; ffffffeaH
  0017c	eb 66		 jmp	 SHORT $LN1@operator@2
$LN78@operator@2:
  0017e	88 4d f6	 mov	 BYTE PTR __t$[ebp+18], cl
  00181	eb 61		 jmp	 SHORT $LN1@operator@2
$LN80@operator@2:
  00183	c6 45 f4 ed	 mov	 BYTE PTR __t$[ebp+16], -19 ; ffffffedH
  00187	eb 5b		 jmp	 SHORT $LN1@operator@2
$LN81@operator@2:
  00189	c6 45 f3 ea	 mov	 BYTE PTR __t$[ebp+15], -22 ; ffffffeaH
  0018d	eb 55		 jmp	 SHORT $LN1@operator@2
$LN82@operator@2:
  0018f	88 4d f2	 mov	 BYTE PTR __t$[ebp+14], cl
  00192	eb 50		 jmp	 SHORT $LN1@operator@2
$LN83@operator@2:
  00194	c6 45 f1 ec	 mov	 BYTE PTR __t$[ebp+13], -20 ; ffffffecH
  00198	eb 4a		 jmp	 SHORT $LN1@operator@2
$LN84@operator@2:
  0019a	c6 45 f0 ed	 mov	 BYTE PTR __t$[ebp+12], -19 ; ffffffedH
  0019e	eb 44		 jmp	 SHORT $LN1@operator@2
$LN85@operator@2:
  001a0	c6 45 ef ea	 mov	 BYTE PTR __t$[ebp+11], -22 ; ffffffeaH
  001a4	eb 3e		 jmp	 SHORT $LN1@operator@2
$LN86@operator@2:
  001a6	88 4d ee	 mov	 BYTE PTR __t$[ebp+10], cl
  001a9	eb 39		 jmp	 SHORT $LN1@operator@2
$LN87@operator@2:
  001ab	c6 45 ed ec	 mov	 BYTE PTR __t$[ebp+9], -20 ; ffffffecH
  001af	eb 33		 jmp	 SHORT $LN1@operator@2
$LN88@operator@2:
  001b1	c6 45 ec ed	 mov	 BYTE PTR __t$[ebp+8], -19 ; ffffffedH
  001b5	eb 2d		 jmp	 SHORT $LN1@operator@2
$LN89@operator@2:
  001b7	c6 45 eb ea	 mov	 BYTE PTR __t$[ebp+7], -22 ; ffffffeaH
  001bb	eb 27		 jmp	 SHORT $LN1@operator@2
$LN90@operator@2:
  001bd	88 4d ea	 mov	 BYTE PTR __t$[ebp+6], cl
  001c0	eb 22		 jmp	 SHORT $LN1@operator@2
$LN91@operator@2:
  001c2	c6 45 e9 ec	 mov	 BYTE PTR __t$[ebp+5], -20 ; ffffffecH
  001c6	eb 1c		 jmp	 SHORT $LN1@operator@2
$LN92@operator@2:
  001c8	c6 45 e8 ed	 mov	 BYTE PTR __t$[ebp+4], -19 ; ffffffedH
  001cc	eb 16		 jmp	 SHORT $LN1@operator@2
$LN93@operator@2:
  001ce	c6 45 e7 ea	 mov	 BYTE PTR __t$[ebp+3], -22 ; ffffffeaH
  001d2	eb 10		 jmp	 SHORT $LN1@operator@2
$LN94@operator@2:
  001d4	c6 45 e6 eb	 mov	 BYTE PTR __t$[ebp+2], -21 ; ffffffebH
  001d8	eb 0a		 jmp	 SHORT $LN1@operator@2
$LN95@operator@2:
  001da	c6 45 e5 ec	 mov	 BYTE PTR __t$[ebp+1], -20 ; ffffffecH
  001de	eb 04		 jmp	 SHORT $LN1@operator@2
$LN96@operator@2:
  001e0	c6 45 e4 ed	 mov	 BYTE PTR __t$[ebp], -19	; ffffffedH
$LN1@operator@2:
  001e4	6a 04		 push	 4
  001e6	8d 45 e4	 lea	 eax, DWORD PTR __t$[ebp]
  001e9	c6 45 f5 00	 mov	 BYTE PTR __t$[ebp+17], 0
  001ed	5a		 pop	 edx
$LL104@operator@2:
  001ee	81 30 ed ec eb
	ea		 xor	 DWORD PTR [eax], -353637139 ; eaebecedH
  001f4	83 c0 04	 add	 eax, 4
  001f7	4a		 dec	 edx
  001f8	75 f4		 jne	 SHORT $LL104@operator@2
  001fa	80 75 f4 ed	 xor	 BYTE PTR __t$[ebp+16], -19 ; ffffffedH
  001fe	8b cf		 mov	 ecx, edi
  00200	8d 75 e4	 lea	 esi, DWORD PTR __t$[ebp]
  00203	ff 15 00 00 00
	00		 call	 DWORD PTR __imp_?c_str@ioHashString@@QBEPBDXZ
$LL111@operator@2:
  00209	8a 08		 mov	 cl, BYTE PTR [eax]
  0020b	3a 0e		 cmp	 cl, BYTE PTR [esi]
  0020d	75 1a		 jne	 SHORT $LN112@operator@2
  0020f	84 c9		 test	 cl, cl
  00211	74 12		 je	 SHORT $LN113@operator@2
  00213	8a 48 01	 mov	 cl, BYTE PTR [eax+1]
  00216	3a 4e 01	 cmp	 cl, BYTE PTR [esi+1]
  00219	75 0e		 jne	 SHORT $LN112@operator@2
  0021b	83 c0 02	 add	 eax, 2
  0021e	83 c6 02	 add	 esi, 2
  00221	84 c9		 test	 cl, cl
  00223	75 e4		 jne	 SHORT $LL111@operator@2
$LN113@operator@2:
  00225	33 c0		 xor	 eax, eax
  00227	eb 05		 jmp	 SHORT $LN114@operator@2
$LN112@operator@2:
  00229	1b c0		 sbb	 eax, eax
  0022b	83 d8 ff	 sbb	 eax, -1
$LN114@operator@2:
  0022e	33 c9		 xor	 ecx, ecx
  00230	85 c0		 test	 eax, eax
  00232	0f 94 c0	 sete	 al

; 148  : }

  00235	8b 4d fc	 mov	 ecx, DWORD PTR __$ArrayPad$[ebp]
  00238	5f		 pop	 edi
  00239	33 cd		 xor	 ecx, ebp
  0023b	5e		 pop	 esi
  0023c	e8 00 00 00 00	 call	 @__security_check_cookie@4
  00241	c9		 leave
  00242	c3		 ret	 0
??$?8$0BC@@@YA_NABVioHashString@@AAY0BC@$$CBD@Z ENDP	; operator==<18>
_TEXT	ENDS
PUBLIC	__$ArrayPad$
PUBLIC	??$?8$0O@@@YA_NABVioHashString@@AAY0O@$$CBD@Z	; operator==<14>
; Function compile flags: /Ogsp
;	COMDAT ??$?8$0O@@@YA_NABVioHashString@@AAY0O@$$CBD@Z
_TEXT	SEGMENT
__t$ = -24						; size = 14
__$ArrayPad$ = -4					; size = 4
_lhs$ = 8						; size = 4
_t$ = 12						; size = 4
??$?8$0O@@@YA_NABVioHashString@@AAY0O@$$CBD@Z PROC	; operator==<14>, COMDAT

; 146  : {

  00000	55		 push	 ebp
  00001	8b ec		 mov	 ebp, esp
  00003	83 ec 18	 sub	 esp, 24			; 00000018H
  00006	a1 00 00 00 00	 mov	 eax, DWORD PTR ___security_cookie
  0000b	33 c5		 xor	 eax, ebp
  0000d	89 45 fc	 mov	 DWORD PTR __$ArrayPad$[ebp], eax
  00010	8b 45 0c	 mov	 eax, DWORD PTR _t$[ebp]

; 147  : 	_ENCSTR(t, _t); return ( strcmp( lhs.c_str(), _t ) == 0 );

  00013	8a 10		 mov	 dl, BYTE PTR [eax]
  00015	56		 push	 esi
  00016	57		 push	 edi
  00017	8b 7d 08	 mov	 edi, DWORD PTR _lhs$[ebp]
  0001a	84 d2		 test	 dl, dl
  0001c	0f 84 64 01 00
	00		 je	 $LN96@operator@3
  00022	80 f2 ed	 xor	 dl, -19			; ffffffedH
  00025	88 55 e8	 mov	 BYTE PTR __t$[ebp], dl
  00028	8a 50 01	 mov	 dl, BYTE PTR [eax+1]
  0002b	84 d2		 test	 dl, dl
  0002d	0f 84 4d 01 00
	00		 je	 $LN95@operator@3
  00033	80 f2 ec	 xor	 dl, -20			; ffffffecH
  00036	88 55 e9	 mov	 BYTE PTR __t$[ebp+1], dl
  00039	8a 50 02	 mov	 dl, BYTE PTR [eax+2]
  0003c	84 d2		 test	 dl, dl
  0003e	0f 84 36 01 00
	00		 je	 $LN94@operator@3
  00044	b1 eb		 mov	 cl, -21			; ffffffebH
  00046	32 d1		 xor	 dl, cl
  00048	88 55 ea	 mov	 BYTE PTR __t$[ebp+2], dl
  0004b	8a 50 03	 mov	 dl, BYTE PTR [eax+3]
  0004e	84 d2		 test	 dl, dl
  00050	0f 84 1e 01 00
	00		 je	 $LN93@operator@3
  00056	80 f2 ea	 xor	 dl, -22			; ffffffeaH
  00059	88 55 eb	 mov	 BYTE PTR __t$[ebp+3], dl
  0005c	8a 50 04	 mov	 dl, BYTE PTR [eax+4]
  0005f	84 d2		 test	 dl, dl
  00061	0f 84 07 01 00
	00		 je	 $LN92@operator@3
  00067	80 f2 ed	 xor	 dl, -19			; ffffffedH
  0006a	88 55 ec	 mov	 BYTE PTR __t$[ebp+4], dl
  0006d	8a 50 05	 mov	 dl, BYTE PTR [eax+5]
  00070	84 d2		 test	 dl, dl
  00072	0f 84 f0 00 00
	00		 je	 $LN91@operator@3
  00078	80 f2 ec	 xor	 dl, -20			; ffffffecH
  0007b	88 55 ed	 mov	 BYTE PTR __t$[ebp+5], dl
  0007e	8a 50 06	 mov	 dl, BYTE PTR [eax+6]
  00081	84 d2		 test	 dl, dl
  00083	0f 84 da 00 00
	00		 je	 $LN90@operator@3
  00089	32 d1		 xor	 dl, cl
  0008b	88 55 ee	 mov	 BYTE PTR __t$[ebp+6], dl
  0008e	8a 50 07	 mov	 dl, BYTE PTR [eax+7]
  00091	84 d2		 test	 dl, dl
  00093	0f 84 c4 00 00
	00		 je	 $LN89@operator@3
  00099	80 f2 ea	 xor	 dl, -22			; ffffffeaH
  0009c	88 55 ef	 mov	 BYTE PTR __t$[ebp+7], dl
  0009f	8a 50 08	 mov	 dl, BYTE PTR [eax+8]
  000a2	84 d2		 test	 dl, dl
  000a4	0f 84 ad 00 00
	00		 je	 $LN88@operator@3
  000aa	80 f2 ed	 xor	 dl, -19			; ffffffedH
  000ad	88 55 f0	 mov	 BYTE PTR __t$[ebp+8], dl
  000b0	8a 50 09	 mov	 dl, BYTE PTR [eax+9]
  000b3	84 d2		 test	 dl, dl
  000b5	0f 84 96 00 00
	00		 je	 $LN87@operator@3
  000bb	80 f2 ec	 xor	 dl, -20			; ffffffecH
  000be	88 55 f1	 mov	 BYTE PTR __t$[ebp+9], dl
  000c1	8a 50 0a	 mov	 dl, BYTE PTR [eax+10]
  000c4	84 d2		 test	 dl, dl
  000c6	0f 84 80 00 00
	00		 je	 $LN86@operator@3
  000cc	32 d1		 xor	 dl, cl
  000ce	88 55 f2	 mov	 BYTE PTR __t$[ebp+10], dl
  000d1	8a 50 0b	 mov	 dl, BYTE PTR [eax+11]
  000d4	84 d2		 test	 dl, dl
  000d6	74 6e		 je	 SHORT $LN85@operator@3
  000d8	80 f2 ea	 xor	 dl, -22			; ffffffeaH
  000db	88 55 f3	 mov	 BYTE PTR __t$[ebp+11], dl
  000de	8a 50 0c	 mov	 dl, BYTE PTR [eax+12]
  000e1	84 d2		 test	 dl, dl
  000e3	74 5b		 je	 SHORT $LN84@operator@3
  000e5	80 f2 ed	 xor	 dl, -19			; ffffffedH
  000e8	80 78 0d 00	 cmp	 BYTE PTR [eax+13], 0
  000ec	88 55 f4	 mov	 BYTE PTR __t$[ebp+12], dl
  000ef	0f 84 95 00 00
	00		 je	 $LN1@operator@3
  000f5	8a 50 0e	 mov	 dl, BYTE PTR [eax+14]
  000f8	84 d2		 test	 dl, dl
  000fa	74 3f		 je	 SHORT $LN82@operator@3
  000fc	32 d1		 xor	 dl, cl
  000fe	88 55 f6	 mov	 BYTE PTR __t$[ebp+14], dl
  00101	8a 50 0f	 mov	 dl, BYTE PTR [eax+15]
  00104	84 d2		 test	 dl, dl
  00106	74 2d		 je	 SHORT $LN81@operator@3
  00108	80 f2 ea	 xor	 dl, -22			; ffffffeaH
  0010b	88 55 f7	 mov	 BYTE PTR __t$[ebp+15], dl
  0010e	8a 50 10	 mov	 dl, BYTE PTR [eax+16]
  00111	84 d2		 test	 dl, dl
  00113	74 1a		 je	 SHORT $LN80@operator@3
  00115	8a 40 11	 mov	 al, BYTE PTR [eax+17]
  00118	80 f2 ed	 xor	 dl, -19			; ffffffedH
  0011b	88 55 f8	 mov	 BYTE PTR __t$[ebp+16], dl
  0011e	84 c0		 test	 al, al
  00120	74 07		 je	 SHORT $LN79@operator@3
  00122	34 ec		 xor	 al, -20			; ffffffecH
  00124	88 45 f9	 mov	 BYTE PTR __t$[ebp+17], al
  00127	eb 61		 jmp	 SHORT $LN1@operator@3
$LN79@operator@3:
  00129	c6 45 f9 ec	 mov	 BYTE PTR __t$[ebp+17], -20 ; ffffffecH
  0012d	eb 5b		 jmp	 SHORT $LN1@operator@3
$LN80@operator@3:
  0012f	c6 45 f8 ed	 mov	 BYTE PTR __t$[ebp+16], -19 ; ffffffedH
  00133	eb 55		 jmp	 SHORT $LN1@operator@3
$LN81@operator@3:
  00135	c6 45 f7 ea	 mov	 BYTE PTR __t$[ebp+15], -22 ; ffffffeaH
  00139	eb 4f		 jmp	 SHORT $LN1@operator@3
$LN82@operator@3:
  0013b	88 4d f6	 mov	 BYTE PTR __t$[ebp+14], cl
  0013e	eb 4a		 jmp	 SHORT $LN1@operator@3
$LN84@operator@3:
  00140	c6 45 f4 ed	 mov	 BYTE PTR __t$[ebp+12], -19 ; ffffffedH
  00144	eb 44		 jmp	 SHORT $LN1@operator@3
$LN85@operator@3:
  00146	c6 45 f3 ea	 mov	 BYTE PTR __t$[ebp+11], -22 ; ffffffeaH
  0014a	eb 3e		 jmp	 SHORT $LN1@operator@3
$LN86@operator@3:
  0014c	88 4d f2	 mov	 BYTE PTR __t$[ebp+10], cl
  0014f	eb 39		 jmp	 SHORT $LN1@operator@3
$LN87@operator@3:
  00151	c6 45 f1 ec	 mov	 BYTE PTR __t$[ebp+9], -20 ; ffffffecH
  00155	eb 33		 jmp	 SHORT $LN1@operator@3
$LN88@operator@3:
  00157	c6 45 f0 ed	 mov	 BYTE PTR __t$[ebp+8], -19 ; ffffffedH
  0015b	eb 2d		 jmp	 SHORT $LN1@operator@3
$LN89@operator@3:
  0015d	c6 45 ef ea	 mov	 BYTE PTR __t$[ebp+7], -22 ; ffffffeaH
  00161	eb 27		 jmp	 SHORT $LN1@operator@3
$LN90@operator@3:
  00163	88 4d ee	 mov	 BYTE PTR __t$[ebp+6], cl
  00166	eb 22		 jmp	 SHORT $LN1@operator@3
$LN91@operator@3:
  00168	c6 45 ed ec	 mov	 BYTE PTR __t$[ebp+5], -20 ; ffffffecH
  0016c	eb 1c		 jmp	 SHORT $LN1@operator@3
$LN92@operator@3:
  0016e	c6 45 ec ed	 mov	 BYTE PTR __t$[ebp+4], -19 ; ffffffedH
  00172	eb 16		 jmp	 SHORT $LN1@operator@3
$LN93@operator@3:
  00174	c6 45 eb ea	 mov	 BYTE PTR __t$[ebp+3], -22 ; ffffffeaH
  00178	eb 10		 jmp	 SHORT $LN1@operator@3
$LN94@operator@3:
  0017a	c6 45 ea eb	 mov	 BYTE PTR __t$[ebp+2], -21 ; ffffffebH
  0017e	eb 0a		 jmp	 SHORT $LN1@operator@3
$LN95@operator@3:
  00180	c6 45 e9 ec	 mov	 BYTE PTR __t$[ebp+1], -20 ; ffffffecH
  00184	eb 04		 jmp	 SHORT $LN1@operator@3
$LN96@operator@3:
  00186	c6 45 e8 ed	 mov	 BYTE PTR __t$[ebp], -19	; ffffffedH
$LN1@operator@3:
  0018a	6a 03		 push	 3
  0018c	8d 45 e8	 lea	 eax, DWORD PTR __t$[ebp]
  0018f	c6 45 f5 00	 mov	 BYTE PTR __t$[ebp+13], 0
  00193	5a		 pop	 edx
$LL104@operator@3:
  00194	81 30 ed ec eb
	ea		 xor	 DWORD PTR [eax], -353637139 ; eaebecedH
  0019a	83 c0 04	 add	 eax, 4
  0019d	4a		 dec	 edx
  0019e	75 f4		 jne	 SHORT $LL104@operator@3
  001a0	80 75 f4 ed	 xor	 BYTE PTR __t$[ebp+12], -19 ; ffffffedH
  001a4	8b cf		 mov	 ecx, edi
  001a6	8d 75 e8	 lea	 esi, DWORD PTR __t$[ebp]
  001a9	ff 15 00 00 00
	00		 call	 DWORD PTR __imp_?c_str@ioHashString@@QBEPBDXZ
$LL111@operator@3:
  001af	8a 08		 mov	 cl, BYTE PTR [eax]
  001b1	3a 0e		 cmp	 cl, BYTE PTR [esi]
  001b3	75 1a		 jne	 SHORT $LN112@operator@3
  001b5	84 c9		 test	 cl, cl
  001b7	74 12		 je	 SHORT $LN113@operator@3
  001b9	8a 48 01	 mov	 cl, BYTE PTR [eax+1]
  001bc	3a 4e 01	 cmp	 cl, BYTE PTR [esi+1]
  001bf	75 0e		 jne	 SHORT $LN112@operator@3
  001c1	83 c0 02	 add	 eax, 2
  001c4	83 c6 02	 add	 esi, 2
  001c7	84 c9		 test	 cl, cl
  001c9	75 e4		 jne	 SHORT $LL111@operator@3
$LN113@operator@3:
  001cb	33 c0		 xor	 eax, eax
  001cd	eb 05		 jmp	 SHORT $LN114@operator@3
$LN112@operator@3:
  001cf	1b c0		 sbb	 eax, eax
  001d1	83 d8 ff	 sbb	 eax, -1
$LN114@operator@3:
  001d4	33 c9		 xor	 ecx, ecx
  001d6	85 c0		 test	 eax, eax
  001d8	0f 94 c0	 sete	 al

; 148  : }

  001db	8b 4d fc	 mov	 ecx, DWORD PTR __$ArrayPad$[ebp]
  001de	5f		 pop	 edi
  001df	33 cd		 xor	 ecx, ebp
  001e1	5e		 pop	 esi
  001e2	e8 00 00 00 00	 call	 @__security_check_cookie@4
  001e7	c9		 leave
  001e8	c3		 ret	 0
??$?8$0O@@@YA_NABVioHashString@@AAY0O@$$CBD@Z ENDP	; operator==<14>
_TEXT	ENDS
PUBLIC	__$ArrayPad$
PUBLIC	??$GetIntAttribute_e@$0N@@ioXMLElement@@QBEHAAY0N@$$CBD@Z ; ioXMLElement::GetIntAttribute_e<13>
EXTRN	__imp_?GetIntAttribute@ioXMLElement@@QBEHPBD@Z:PROC
; Function compile flags: /Ogsp
; File d:\lost saga for developer\youtube\tutorial\source\src\io3dengine\ioxmlelement.h
;	COMDAT ??$GetIntAttribute_e@$0N@@ioXMLElement@@QBEHAAY0N@$$CBD@Z
_TEXT	SEGMENT
__k$ = -24						; size = 13
__$ArrayPad$ = -4					; size = 4
_k$ = 8							; size = 4
??$GetIntAttribute_e@$0N@@ioXMLElement@@QBEHAAY0N@$$CBD@Z PROC ; ioXMLElement::GetIntAttribute_e<13>, COMDAT
; _this$ = ecx

; 86   : 	{

  00000	55		 push	 ebp
  00001	8b ec		 mov	 ebp, esp
  00003	83 ec 18	 sub	 esp, 24			; 00000018H
  00006	a1 00 00 00 00	 mov	 eax, DWORD PTR ___security_cookie
  0000b	33 c5		 xor	 eax, ebp
  0000d	89 45 fc	 mov	 DWORD PTR __$ArrayPad$[ebp], eax
  00010	8b 45 08	 mov	 eax, DWORD PTR _k$[ebp]

; 87   : 		_ENCSTR(k, _k);

  00013	8a 10		 mov	 dl, BYTE PTR [eax]
  00015	56		 push	 esi
  00016	8b f1		 mov	 esi, ecx
  00018	84 d2		 test	 dl, dl
  0001a	0f 84 4d 01 00
	00		 je	 $LN96@GetIntAttr
  00020	80 f2 ed	 xor	 dl, -19			; ffffffedH
  00023	88 55 e8	 mov	 BYTE PTR __k$[ebp], dl
  00026	8a 50 01	 mov	 dl, BYTE PTR [eax+1]
  00029	84 d2		 test	 dl, dl
  0002b	0f 84 36 01 00
	00		 je	 $LN95@GetIntAttr
  00031	b1 ec		 mov	 cl, -20			; ffffffecH
  00033	32 d1		 xor	 dl, cl
  00035	88 55 e9	 mov	 BYTE PTR __k$[ebp+1], dl
  00038	8a 50 02	 mov	 dl, BYTE PTR [eax+2]
  0003b	84 d2		 test	 dl, dl
  0003d	0f 84 1e 01 00
	00		 je	 $LN94@GetIntAttr
  00043	80 f2 eb	 xor	 dl, -21			; ffffffebH
  00046	88 55 ea	 mov	 BYTE PTR __k$[ebp+2], dl
  00049	8a 50 03	 mov	 dl, BYTE PTR [eax+3]
  0004c	84 d2		 test	 dl, dl
  0004e	0f 84 07 01 00
	00		 je	 $LN93@GetIntAttr
  00054	80 f2 ea	 xor	 dl, -22			; ffffffeaH
  00057	88 55 eb	 mov	 BYTE PTR __k$[ebp+3], dl
  0005a	8a 50 04	 mov	 dl, BYTE PTR [eax+4]
  0005d	84 d2		 test	 dl, dl
  0005f	0f 84 f0 00 00
	00		 je	 $LN92@GetIntAttr
  00065	80 f2 ed	 xor	 dl, -19			; ffffffedH
  00068	88 55 ec	 mov	 BYTE PTR __k$[ebp+4], dl
  0006b	8a 50 05	 mov	 dl, BYTE PTR [eax+5]
  0006e	84 d2		 test	 dl, dl
  00070	0f 84 da 00 00
	00		 je	 $LN91@GetIntAttr
  00076	32 d1		 xor	 dl, cl
  00078	88 55 ed	 mov	 BYTE PTR __k$[ebp+5], dl
  0007b	8a 50 06	 mov	 dl, BYTE PTR [eax+6]
  0007e	84 d2		 test	 dl, dl
  00080	0f 84 c4 00 00
	00		 je	 $LN90@GetIntAttr
  00086	80 f2 eb	 xor	 dl, -21			; ffffffebH
  00089	88 55 ee	 mov	 BYTE PTR __k$[ebp+6], dl
  0008c	8a 50 07	 mov	 dl, BYTE PTR [eax+7]
  0008f	84 d2		 test	 dl, dl
  00091	0f 84 ad 00 00
	00		 je	 $LN89@GetIntAttr
  00097	80 f2 ea	 xor	 dl, -22			; ffffffeaH
  0009a	88 55 ef	 mov	 BYTE PTR __k$[ebp+7], dl
  0009d	8a 50 08	 mov	 dl, BYTE PTR [eax+8]
  000a0	84 d2		 test	 dl, dl
  000a2	0f 84 96 00 00
	00		 je	 $LN88@GetIntAttr
  000a8	80 f2 ed	 xor	 dl, -19			; ffffffedH
  000ab	88 55 f0	 mov	 BYTE PTR __k$[ebp+8], dl
  000ae	8a 50 09	 mov	 dl, BYTE PTR [eax+9]
  000b1	84 d2		 test	 dl, dl
  000b3	0f 84 80 00 00
	00		 je	 $LN87@GetIntAttr
  000b9	32 d1		 xor	 dl, cl
  000bb	88 55 f1	 mov	 BYTE PTR __k$[ebp+9], dl
  000be	8a 50 0a	 mov	 dl, BYTE PTR [eax+10]
  000c1	84 d2		 test	 dl, dl
  000c3	74 6e		 je	 SHORT $LN86@GetIntAttr
  000c5	80 f2 eb	 xor	 dl, -21			; ffffffebH
  000c8	88 55 f2	 mov	 BYTE PTR __k$[ebp+10], dl
  000cb	8a 50 0b	 mov	 dl, BYTE PTR [eax+11]
  000ce	84 d2		 test	 dl, dl
  000d0	74 5b		 je	 SHORT $LN85@GetIntAttr
  000d2	80 f2 ea	 xor	 dl, -22			; ffffffeaH
  000d5	80 78 0c 00	 cmp	 BYTE PTR [eax+12], 0
  000d9	88 55 f3	 mov	 BYTE PTR __k$[ebp+11], dl
  000dc	0f 84 8f 00 00
	00		 je	 $LN1@GetIntAttr
  000e2	8a 50 0d	 mov	 dl, BYTE PTR [eax+13]
  000e5	84 d2		 test	 dl, dl
  000e7	74 3f		 je	 SHORT $LN83@GetIntAttr
  000e9	32 d1		 xor	 dl, cl
  000eb	88 55 f5	 mov	 BYTE PTR __k$[ebp+13], dl
  000ee	8a 50 0e	 mov	 dl, BYTE PTR [eax+14]
  000f1	84 d2		 test	 dl, dl
  000f3	74 2d		 je	 SHORT $LN82@GetIntAttr
  000f5	80 f2 eb	 xor	 dl, -21			; ffffffebH
  000f8	88 55 f6	 mov	 BYTE PTR __k$[ebp+14], dl
  000fb	8a 50 0f	 mov	 dl, BYTE PTR [eax+15]
  000fe	84 d2		 test	 dl, dl
  00100	74 1a		 je	 SHORT $LN81@GetIntAttr
  00102	8a 40 10	 mov	 al, BYTE PTR [eax+16]
  00105	80 f2 ea	 xor	 dl, -22			; ffffffeaH
  00108	88 55 f7	 mov	 BYTE PTR __k$[ebp+15], dl
  0010b	84 c0		 test	 al, al
  0010d	74 07		 je	 SHORT $LN80@GetIntAttr
  0010f	34 ed		 xor	 al, -19			; ffffffedH
  00111	88 45 f8	 mov	 BYTE PTR __k$[ebp+16], al
  00114	eb 5b		 jmp	 SHORT $LN1@GetIntAttr
$LN80@GetIntAttr:
  00116	c6 45 f8 ed	 mov	 BYTE PTR __k$[ebp+16], -19 ; ffffffedH
  0011a	eb 55		 jmp	 SHORT $LN1@GetIntAttr
$LN81@GetIntAttr:
  0011c	c6 45 f7 ea	 mov	 BYTE PTR __k$[ebp+15], -22 ; ffffffeaH
  00120	eb 4f		 jmp	 SHORT $LN1@GetIntAttr
$LN82@GetIntAttr:
  00122	c6 45 f6 eb	 mov	 BYTE PTR __k$[ebp+14], -21 ; ffffffebH
  00126	eb 49		 jmp	 SHORT $LN1@GetIntAttr
$LN83@GetIntAttr:
  00128	88 4d f5	 mov	 BYTE PTR __k$[ebp+13], cl
  0012b	eb 44		 jmp	 SHORT $LN1@GetIntAttr
$LN85@GetIntAttr:
  0012d	c6 45 f3 ea	 mov	 BYTE PTR __k$[ebp+11], -22 ; ffffffeaH
  00131	eb 3e		 jmp	 SHORT $LN1@GetIntAttr
$LN86@GetIntAttr:
  00133	c6 45 f2 eb	 mov	 BYTE PTR __k$[ebp+10], -21 ; ffffffebH
  00137	eb 38		 jmp	 SHORT $LN1@GetIntAttr
$LN87@GetIntAttr:
  00139	88 4d f1	 mov	 BYTE PTR __k$[ebp+9], cl
  0013c	eb 33		 jmp	 SHORT $LN1@GetIntAttr
$LN88@GetIntAttr:
  0013e	c6 45 f0 ed	 mov	 BYTE PTR __k$[ebp+8], -19 ; ffffffedH
  00142	eb 2d		 jmp	 SHORT $LN1@GetIntAttr
$LN89@GetIntAttr:
  00144	c6 45 ef ea	 mov	 BYTE PTR __k$[ebp+7], -22 ; ffffffeaH
  00148	eb 27		 jmp	 SHORT $LN1@GetIntAttr
$LN90@GetIntAttr:
  0014a	c6 45 ee eb	 mov	 BYTE PTR __k$[ebp+6], -21 ; ffffffebH
  0014e	eb 21		 jmp	 SHORT $LN1@GetIntAttr
$LN91@GetIntAttr:
  00150	88 4d ed	 mov	 BYTE PTR __k$[ebp+5], cl
  00153	eb 1c		 jmp	 SHORT $LN1@GetIntAttr
$LN92@GetIntAttr:
  00155	c6 45 ec ed	 mov	 BYTE PTR __k$[ebp+4], -19 ; ffffffedH
  00159	eb 16		 jmp	 SHORT $LN1@GetIntAttr
$LN93@GetIntAttr:
  0015b	c6 45 eb ea	 mov	 BYTE PTR __k$[ebp+3], -22 ; ffffffeaH
  0015f	eb 10		 jmp	 SHORT $LN1@GetIntAttr
$LN94@GetIntAttr:
  00161	c6 45 ea eb	 mov	 BYTE PTR __k$[ebp+2], -21 ; ffffffebH
  00165	eb 0a		 jmp	 SHORT $LN1@GetIntAttr
$LN95@GetIntAttr:
  00167	c6 45 e9 ec	 mov	 BYTE PTR __k$[ebp+1], -20 ; ffffffecH
  0016b	eb 04		 jmp	 SHORT $LN1@GetIntAttr
$LN96@GetIntAttr:
  0016d	c6 45 e8 ed	 mov	 BYTE PTR __k$[ebp], -19	; ffffffedH
$LN1@GetIntAttr:
  00171	6a 03		 push	 3
  00173	8d 45 e8	 lea	 eax, DWORD PTR __k$[ebp]
  00176	c6 45 f4 00	 mov	 BYTE PTR __k$[ebp+12], 0
  0017a	5a		 pop	 edx
$LL104@GetIntAttr:
  0017b	81 30 ed ec eb
	ea		 xor	 DWORD PTR [eax], -353637139 ; eaebecedH
  00181	83 c0 04	 add	 eax, 4
  00184	4a		 dec	 edx
  00185	75 f4		 jne	 SHORT $LL104@GetIntAttr

; 88   : 		return GetIntAttribute(_k);

  00187	8d 45 e8	 lea	 eax, DWORD PTR __k$[ebp]
  0018a	50		 push	 eax
  0018b	8b ce		 mov	 ecx, esi
  0018d	ff 15 00 00 00
	00		 call	 DWORD PTR __imp_?GetIntAttribute@ioXMLElement@@QBEHPBD@Z

; 89   : 	}

  00193	8b 4d fc	 mov	 ecx, DWORD PTR __$ArrayPad$[ebp]
  00196	33 cd		 xor	 ecx, ebp
  00198	5e		 pop	 esi
  00199	e8 00 00 00 00	 call	 @__security_check_cookie@4
  0019e	c9		 leave
  0019f	c2 04 00	 ret	 4
??$GetIntAttribute_e@$0N@@ioXMLElement@@QBEHAAY0N@$$CBD@Z ENDP ; ioXMLElement::GetIntAttribute_e<13>
_TEXT	ENDS
PUBLIC	__$ArrayPad$
PUBLIC	??$GetIntAttribute_e@$0BD@@ioXMLElement@@QBEHAAY0BD@$$CBD@Z ; ioXMLElement::GetIntAttribute_e<19>
; Function compile flags: /Ogsp
;	COMDAT ??$GetIntAttribute_e@$0BD@@ioXMLElement@@QBEHAAY0BD@$$CBD@Z
_TEXT	SEGMENT
__k$ = -28						; size = 19
__$ArrayPad$ = -4					; size = 4
_k$ = 8							; size = 4
??$GetIntAttribute_e@$0BD@@ioXMLElement@@QBEHAAY0BD@$$CBD@Z PROC ; ioXMLElement::GetIntAttribute_e<19>, COMDAT
; _this$ = ecx

; 86   : 	{

  00000	55		 push	 ebp
  00001	8b ec		 mov	 ebp, esp
  00003	83 ec 1c	 sub	 esp, 28			; 0000001cH
  00006	a1 00 00 00 00	 mov	 eax, DWORD PTR ___security_cookie
  0000b	33 c5		 xor	 eax, ebp
  0000d	89 45 fc	 mov	 DWORD PTR __$ArrayPad$[ebp], eax
  00010	8b 45 08	 mov	 eax, DWORD PTR _k$[ebp]

; 87   : 		_ENCSTR(k, _k);

  00013	8a 10		 mov	 dl, BYTE PTR [eax]
  00015	56		 push	 esi
  00016	8b f1		 mov	 esi, ecx
  00018	84 d2		 test	 dl, dl
  0001a	0f 84 cf 01 00
	00		 je	 $LN96@GetIntAttr@2
  00020	80 f2 ed	 xor	 dl, -19			; ffffffedH
  00023	88 55 e4	 mov	 BYTE PTR __k$[ebp], dl
  00026	8a 50 01	 mov	 dl, BYTE PTR [eax+1]
  00029	84 d2		 test	 dl, dl
  0002b	0f 84 b8 01 00
	00		 je	 $LN95@GetIntAttr@2
  00031	b1 ec		 mov	 cl, -20			; ffffffecH
  00033	32 d1		 xor	 dl, cl
  00035	88 55 e5	 mov	 BYTE PTR __k$[ebp+1], dl
  00038	8a 50 02	 mov	 dl, BYTE PTR [eax+2]
  0003b	84 d2		 test	 dl, dl
  0003d	0f 84 a0 01 00
	00		 je	 $LN94@GetIntAttr@2
  00043	80 f2 eb	 xor	 dl, -21			; ffffffebH
  00046	88 55 e6	 mov	 BYTE PTR __k$[ebp+2], dl
  00049	8a 50 03	 mov	 dl, BYTE PTR [eax+3]
  0004c	84 d2		 test	 dl, dl
  0004e	0f 84 89 01 00
	00		 je	 $LN93@GetIntAttr@2
  00054	80 f2 ea	 xor	 dl, -22			; ffffffeaH
  00057	88 55 e7	 mov	 BYTE PTR __k$[ebp+3], dl
  0005a	8a 50 04	 mov	 dl, BYTE PTR [eax+4]
  0005d	84 d2		 test	 dl, dl
  0005f	0f 84 72 01 00
	00		 je	 $LN92@GetIntAttr@2
  00065	80 f2 ed	 xor	 dl, -19			; ffffffedH
  00068	88 55 e8	 mov	 BYTE PTR __k$[ebp+4], dl
  0006b	8a 50 05	 mov	 dl, BYTE PTR [eax+5]
  0006e	84 d2		 test	 dl, dl
  00070	0f 84 5c 01 00
	00		 je	 $LN91@GetIntAttr@2
  00076	32 d1		 xor	 dl, cl
  00078	88 55 e9	 mov	 BYTE PTR __k$[ebp+5], dl
  0007b	8a 50 06	 mov	 dl, BYTE PTR [eax+6]
  0007e	84 d2		 test	 dl, dl
  00080	0f 84 46 01 00
	00		 je	 $LN90@GetIntAttr@2
  00086	80 f2 eb	 xor	 dl, -21			; ffffffebH
  00089	88 55 ea	 mov	 BYTE PTR __k$[ebp+6], dl
  0008c	8a 50 07	 mov	 dl, BYTE PTR [eax+7]
  0008f	84 d2		 test	 dl, dl
  00091	0f 84 2f 01 00
	00		 je	 $LN89@GetIntAttr@2
  00097	80 f2 ea	 xor	 dl, -22			; ffffffeaH
  0009a	88 55 eb	 mov	 BYTE PTR __k$[ebp+7], dl
  0009d	8a 50 08	 mov	 dl, BYTE PTR [eax+8]
  000a0	84 d2		 test	 dl, dl
  000a2	0f 84 18 01 00
	00		 je	 $LN88@GetIntAttr@2
  000a8	80 f2 ed	 xor	 dl, -19			; ffffffedH
  000ab	88 55 ec	 mov	 BYTE PTR __k$[ebp+8], dl
  000ae	8a 50 09	 mov	 dl, BYTE PTR [eax+9]
  000b1	84 d2		 test	 dl, dl
  000b3	0f 84 02 01 00
	00		 je	 $LN87@GetIntAttr@2
  000b9	32 d1		 xor	 dl, cl
  000bb	88 55 ed	 mov	 BYTE PTR __k$[ebp+9], dl
  000be	8a 50 0a	 mov	 dl, BYTE PTR [eax+10]
  000c1	84 d2		 test	 dl, dl
  000c3	0f 84 ec 00 00
	00		 je	 $LN86@GetIntAttr@2
  000c9	80 f2 eb	 xor	 dl, -21			; ffffffebH
  000cc	88 55 ee	 mov	 BYTE PTR __k$[ebp+10], dl
  000cf	8a 50 0b	 mov	 dl, BYTE PTR [eax+11]
  000d2	84 d2		 test	 dl, dl
  000d4	0f 84 d5 00 00
	00		 je	 $LN85@GetIntAttr@2
  000da	80 f2 ea	 xor	 dl, -22			; ffffffeaH
  000dd	88 55 ef	 mov	 BYTE PTR __k$[ebp+11], dl
  000e0	8a 50 0c	 mov	 dl, BYTE PTR [eax+12]
  000e3	84 d2		 test	 dl, dl
  000e5	0f 84 be 00 00
	00		 je	 $LN84@GetIntAttr@2
  000eb	80 f2 ed	 xor	 dl, -19			; ffffffedH
  000ee	88 55 f0	 mov	 BYTE PTR __k$[ebp+12], dl
  000f1	8a 50 0d	 mov	 dl, BYTE PTR [eax+13]
  000f4	84 d2		 test	 dl, dl
  000f6	0f 84 a8 00 00
	00		 je	 $LN83@GetIntAttr@2
  000fc	32 d1		 xor	 dl, cl
  000fe	88 55 f1	 mov	 BYTE PTR __k$[ebp+13], dl
  00101	8a 50 0e	 mov	 dl, BYTE PTR [eax+14]
  00104	84 d2		 test	 dl, dl
  00106	0f 84 92 00 00
	00		 je	 $LN82@GetIntAttr@2
  0010c	80 f2 eb	 xor	 dl, -21			; ffffffebH
  0010f	88 55 f2	 mov	 BYTE PTR __k$[ebp+14], dl
  00112	8a 50 0f	 mov	 dl, BYTE PTR [eax+15]
  00115	84 d2		 test	 dl, dl
  00117	74 7f		 je	 SHORT $LN81@GetIntAttr@2
  00119	80 f2 ea	 xor	 dl, -22			; ffffffeaH
  0011c	88 55 f3	 mov	 BYTE PTR __k$[ebp+15], dl
  0011f	8a 50 10	 mov	 dl, BYTE PTR [eax+16]
  00122	84 d2		 test	 dl, dl
  00124	74 6c		 je	 SHORT $LN80@GetIntAttr@2
  00126	80 f2 ed	 xor	 dl, -19			; ffffffedH
  00129	88 55 f4	 mov	 BYTE PTR __k$[ebp+16], dl
  0012c	8a 50 11	 mov	 dl, BYTE PTR [eax+17]
  0012f	84 d2		 test	 dl, dl
  00131	74 5a		 je	 SHORT $LN79@GetIntAttr@2
  00133	32 d1		 xor	 dl, cl
  00135	80 78 12 00	 cmp	 BYTE PTR [eax+18], 0
  00139	88 55 f5	 mov	 BYTE PTR __k$[ebp+17], dl
  0013c	0f 84 b1 00 00
	00		 je	 $LN1@GetIntAttr@2
  00142	8a 50 13	 mov	 dl, BYTE PTR [eax+19]
  00145	84 d2		 test	 dl, dl
  00147	74 3e		 je	 SHORT $LN77@GetIntAttr@2
  00149	80 f2 ea	 xor	 dl, -22			; ffffffeaH
  0014c	88 55 f7	 mov	 BYTE PTR __k$[ebp+19], dl
  0014f	8a 50 14	 mov	 dl, BYTE PTR [eax+20]
  00152	84 d2		 test	 dl, dl
  00154	74 2b		 je	 SHORT $LN76@GetIntAttr@2
  00156	80 f2 ed	 xor	 dl, -19			; ffffffedH
  00159	88 55 f8	 mov	 BYTE PTR __k$[ebp+20], dl
  0015c	8a 50 15	 mov	 dl, BYTE PTR [eax+21]
  0015f	84 d2		 test	 dl, dl
  00161	74 19		 je	 SHORT $LN75@GetIntAttr@2
  00163	8a 40 16	 mov	 al, BYTE PTR [eax+22]
  00166	32 d1		 xor	 dl, cl
  00168	88 55 f9	 mov	 BYTE PTR __k$[ebp+21], dl
  0016b	84 c0		 test	 al, al
  0016d	74 07		 je	 SHORT $LN74@GetIntAttr@2
  0016f	34 eb		 xor	 al, -21			; ffffffebH
  00171	88 45 fa	 mov	 BYTE PTR __k$[ebp+22], al
  00174	eb 7d		 jmp	 SHORT $LN1@GetIntAttr@2
$LN74@GetIntAttr@2:
  00176	c6 45 fa eb	 mov	 BYTE PTR __k$[ebp+22], -21 ; ffffffebH
  0017a	eb 77		 jmp	 SHORT $LN1@GetIntAttr@2
$LN75@GetIntAttr@2:
  0017c	88 4d f9	 mov	 BYTE PTR __k$[ebp+21], cl
  0017f	eb 72		 jmp	 SHORT $LN1@GetIntAttr@2
$LN76@GetIntAttr@2:
  00181	c6 45 f8 ed	 mov	 BYTE PTR __k$[ebp+20], -19 ; ffffffedH
  00185	eb 6c		 jmp	 SHORT $LN1@GetIntAttr@2
$LN77@GetIntAttr@2:
  00187	c6 45 f7 ea	 mov	 BYTE PTR __k$[ebp+19], -22 ; ffffffeaH
  0018b	eb 66		 jmp	 SHORT $LN1@GetIntAttr@2
$LN79@GetIntAttr@2:
  0018d	88 4d f5	 mov	 BYTE PTR __k$[ebp+17], cl
  00190	eb 61		 jmp	 SHORT $LN1@GetIntAttr@2
$LN80@GetIntAttr@2:
  00192	c6 45 f4 ed	 mov	 BYTE PTR __k$[ebp+16], -19 ; ffffffedH
  00196	eb 5b		 jmp	 SHORT $LN1@GetIntAttr@2
$LN81@GetIntAttr@2:
  00198	c6 45 f3 ea	 mov	 BYTE PTR __k$[ebp+15], -22 ; ffffffeaH
  0019c	eb 55		 jmp	 SHORT $LN1@GetIntAttr@2
$LN82@GetIntAttr@2:
  0019e	c6 45 f2 eb	 mov	 BYTE PTR __k$[ebp+14], -21 ; ffffffebH
  001a2	eb 4f		 jmp	 SHORT $LN1@GetIntAttr@2
$LN83@GetIntAttr@2:
  001a4	88 4d f1	 mov	 BYTE PTR __k$[ebp+13], cl
  001a7	eb 4a		 jmp	 SHORT $LN1@GetIntAttr@2
$LN84@GetIntAttr@2:
  001a9	c6 45 f0 ed	 mov	 BYTE PTR __k$[ebp+12], -19 ; ffffffedH
  001ad	eb 44		 jmp	 SHORT $LN1@GetIntAttr@2
$LN85@GetIntAttr@2:
  001af	c6 45 ef ea	 mov	 BYTE PTR __k$[ebp+11], -22 ; ffffffeaH
  001b3	eb 3e		 jmp	 SHORT $LN1@GetIntAttr@2
$LN86@GetIntAttr@2:
  001b5	c6 45 ee eb	 mov	 BYTE PTR __k$[ebp+10], -21 ; ffffffebH
  001b9	eb 38		 jmp	 SHORT $LN1@GetIntAttr@2
$LN87@GetIntAttr@2:
  001bb	88 4d ed	 mov	 BYTE PTR __k$[ebp+9], cl
  001be	eb 33		 jmp	 SHORT $LN1@GetIntAttr@2
$LN88@GetIntAttr@2:
  001c0	c6 45 ec ed	 mov	 BYTE PTR __k$[ebp+8], -19 ; ffffffedH
  001c4	eb 2d		 jmp	 SHORT $LN1@GetIntAttr@2
$LN89@GetIntAttr@2:
  001c6	c6 45 eb ea	 mov	 BYTE PTR __k$[ebp+7], -22 ; ffffffeaH
  001ca	eb 27		 jmp	 SHORT $LN1@GetIntAttr@2
$LN90@GetIntAttr@2:
  001cc	c6 45 ea eb	 mov	 BYTE PTR __k$[ebp+6], -21 ; ffffffebH
  001d0	eb 21		 jmp	 SHORT $LN1@GetIntAttr@2
$LN91@GetIntAttr@2:
  001d2	88 4d e9	 mov	 BYTE PTR __k$[ebp+5], cl
  001d5	eb 1c		 jmp	 SHORT $LN1@GetIntAttr@2
$LN92@GetIntAttr@2:
  001d7	c6 45 e8 ed	 mov	 BYTE PTR __k$[ebp+4], -19 ; ffffffedH
  001db	eb 16		 jmp	 SHORT $LN1@GetIntAttr@2
$LN93@GetIntAttr@2:
  001dd	c6 45 e7 ea	 mov	 BYTE PTR __k$[ebp+3], -22 ; ffffffeaH
  001e1	eb 10		 jmp	 SHORT $LN1@GetIntAttr@2
$LN94@GetIntAttr@2:
  001e3	c6 45 e6 eb	 mov	 BYTE PTR __k$[ebp+2], -21 ; ffffffebH
  001e7	eb 0a		 jmp	 SHORT $LN1@GetIntAttr@2
$LN95@GetIntAttr@2:
  001e9	c6 45 e5 ec	 mov	 BYTE PTR __k$[ebp+1], -20 ; ffffffecH
  001ed	eb 04		 jmp	 SHORT $LN1@GetIntAttr@2
$LN96@GetIntAttr@2:
  001ef	c6 45 e4 ed	 mov	 BYTE PTR __k$[ebp], -19	; ffffffedH
$LN1@GetIntAttr@2:
  001f3	6a 04		 push	 4
  001f5	8d 45 e4	 lea	 eax, DWORD PTR __k$[ebp]
  001f8	c6 45 f6 00	 mov	 BYTE PTR __k$[ebp+18], 0
  001fc	5a		 pop	 edx
$LL104@GetIntAttr@2:
  001fd	81 30 ed ec eb
	ea		 xor	 DWORD PTR [eax], -353637139 ; eaebecedH
  00203	83 c0 04	 add	 eax, 4
  00206	4a		 dec	 edx
  00207	75 f4		 jne	 SHORT $LL104@GetIntAttr@2
  00209	6a 10		 push	 16			; 00000010H
  0020b	58		 pop	 eax
$LL101@GetIntAttr@2:
  0020c	8b c8		 mov	 ecx, eax
  0020e	81 e1 03 00 00
	80		 and	 ecx, -2147483645	; 80000003H
  00214	79 05		 jns	 SHORT $LN111@GetIntAttr@2
  00216	49		 dec	 ecx
  00217	83 c9 fc	 or	 ecx, -4			; fffffffcH
  0021a	41		 inc	 ecx
$LN111@GetIntAttr@2:
  0021b	b2 ed		 mov	 dl, -19			; ffffffedH
  0021d	2a d1		 sub	 dl, cl
  0021f	30 54 05 e4	 xor	 BYTE PTR __k$[ebp+eax], dl
  00223	40		 inc	 eax
  00224	83 f8 12	 cmp	 eax, 18			; 00000012H
  00227	7c e3		 jl	 SHORT $LL101@GetIntAttr@2

; 88   : 		return GetIntAttribute(_k);

  00229	8d 45 e4	 lea	 eax, DWORD PTR __k$[ebp]
  0022c	50		 push	 eax
  0022d	8b ce		 mov	 ecx, esi
  0022f	ff 15 00 00 00
	00		 call	 DWORD PTR __imp_?GetIntAttribute@ioXMLElement@@QBEHPBD@Z

; 89   : 	}

  00235	8b 4d fc	 mov	 ecx, DWORD PTR __$ArrayPad$[ebp]
  00238	33 cd		 xor	 ecx, ebp
  0023a	5e		 pop	 esi
  0023b	e8 00 00 00 00	 call	 @__security_check_cookie@4
  00240	c9		 leave
  00241	c2 04 00	 ret	 4
??$GetIntAttribute_e@$0BD@@ioXMLElement@@QBEHAAY0BD@$$CBD@Z ENDP ; ioXMLElement::GetIntAttribute_e<19>
_TEXT	ENDS
PUBLIC	__$ArrayPad$
PUBLIC	??$GetFloatAttribute_e@$0L@@ioXMLElement@@QBEMAAY0L@$$CBD@Z ; ioXMLElement::GetFloatAttribute_e<11>
EXTRN	__imp_?GetFloatAttribute@ioXMLElement@@QBEMPBD@Z:PROC
; Function compile flags: /Ogsp
;	COMDAT ??$GetFloatAttribute_e@$0L@@ioXMLElement@@QBEMAAY0L@$$CBD@Z
_TEXT	SEGMENT
__k$ = -20						; size = 11
__$ArrayPad$ = -4					; size = 4
_k$ = 8							; size = 4
??$GetFloatAttribute_e@$0L@@ioXMLElement@@QBEMAAY0L@$$CBD@Z PROC ; ioXMLElement::GetFloatAttribute_e<11>, COMDAT
; _this$ = ecx

; 100  : 	{

  00000	55		 push	 ebp
  00001	8b ec		 mov	 ebp, esp
  00003	83 ec 14	 sub	 esp, 20			; 00000014H
  00006	a1 00 00 00 00	 mov	 eax, DWORD PTR ___security_cookie
  0000b	33 c5		 xor	 eax, ebp
  0000d	89 45 fc	 mov	 DWORD PTR __$ArrayPad$[ebp], eax
  00010	8b 45 08	 mov	 eax, DWORD PTR _k$[ebp]

; 101  : 		_ENCSTR(k, _k);

  00013	8a 10		 mov	 dl, BYTE PTR [eax]
  00015	56		 push	 esi
  00016	8b f1		 mov	 esi, ecx
  00018	84 d2		 test	 dl, dl
  0001a	0f 84 24 01 00
	00		 je	 $LN96@GetFloatAt
  00020	80 f2 ed	 xor	 dl, -19			; ffffffedH
  00023	88 55 ec	 mov	 BYTE PTR __k$[ebp], dl
  00026	8a 50 01	 mov	 dl, BYTE PTR [eax+1]
  00029	84 d2		 test	 dl, dl
  0002b	0f 84 0d 01 00
	00		 je	 $LN95@GetFloatAt
  00031	80 f2 ec	 xor	 dl, -20			; ffffffecH
  00034	88 55 ed	 mov	 BYTE PTR __k$[ebp+1], dl
  00037	8a 50 02	 mov	 dl, BYTE PTR [eax+2]
  0003a	84 d2		 test	 dl, dl
  0003c	0f 84 f6 00 00
	00		 je	 $LN94@GetFloatAt
  00042	80 f2 eb	 xor	 dl, -21			; ffffffebH
  00045	88 55 ee	 mov	 BYTE PTR __k$[ebp+2], dl
  00048	8a 50 03	 mov	 dl, BYTE PTR [eax+3]
  0004b	84 d2		 test	 dl, dl
  0004d	0f 84 df 00 00
	00		 je	 $LN93@GetFloatAt
  00053	80 f2 ea	 xor	 dl, -22			; ffffffeaH
  00056	88 55 ef	 mov	 BYTE PTR __k$[ebp+3], dl
  00059	8a 50 04	 mov	 dl, BYTE PTR [eax+4]
  0005c	84 d2		 test	 dl, dl
  0005e	0f 84 c8 00 00
	00		 je	 $LN92@GetFloatAt
  00064	80 f2 ed	 xor	 dl, -19			; ffffffedH
  00067	88 55 f0	 mov	 BYTE PTR __k$[ebp+4], dl
  0006a	8a 50 05	 mov	 dl, BYTE PTR [eax+5]
  0006d	84 d2		 test	 dl, dl
  0006f	0f 84 b1 00 00
	00		 je	 $LN91@GetFloatAt
  00075	80 f2 ec	 xor	 dl, -20			; ffffffecH
  00078	88 55 f1	 mov	 BYTE PTR __k$[ebp+5], dl
  0007b	8a 50 06	 mov	 dl, BYTE PTR [eax+6]
  0007e	84 d2		 test	 dl, dl
  00080	0f 84 9a 00 00
	00		 je	 $LN90@GetFloatAt
  00086	80 f2 eb	 xor	 dl, -21			; ffffffebH
  00089	88 55 f2	 mov	 BYTE PTR __k$[ebp+6], dl
  0008c	8a 50 07	 mov	 dl, BYTE PTR [eax+7]
  0008f	84 d2		 test	 dl, dl
  00091	0f 84 83 00 00
	00		 je	 $LN89@GetFloatAt
  00097	80 f2 ea	 xor	 dl, -22			; ffffffeaH
  0009a	88 55 f3	 mov	 BYTE PTR __k$[ebp+7], dl
  0009d	8a 50 08	 mov	 dl, BYTE PTR [eax+8]
  000a0	84 d2		 test	 dl, dl
  000a2	74 70		 je	 SHORT $LN88@GetFloatAt
  000a4	80 f2 ed	 xor	 dl, -19			; ffffffedH
  000a7	88 55 f4	 mov	 BYTE PTR __k$[ebp+8], dl
  000aa	8a 50 09	 mov	 dl, BYTE PTR [eax+9]
  000ad	84 d2		 test	 dl, dl
  000af	74 5d		 je	 SHORT $LN87@GetFloatAt
  000b1	80 f2 ec	 xor	 dl, -20			; ffffffecH
  000b4	80 78 0a 00	 cmp	 BYTE PTR [eax+10], 0
  000b8	88 55 f5	 mov	 BYTE PTR __k$[ebp+9], dl
  000bb	0f 84 87 00 00
	00		 je	 $LN1@GetFloatAt
  000c1	8a 50 0b	 mov	 dl, BYTE PTR [eax+11]
  000c4	84 d2		 test	 dl, dl
  000c6	74 40		 je	 SHORT $LN85@GetFloatAt
  000c8	80 f2 ea	 xor	 dl, -22			; ffffffeaH
  000cb	88 55 f7	 mov	 BYTE PTR __k$[ebp+11], dl
  000ce	8a 50 0c	 mov	 dl, BYTE PTR [eax+12]
  000d1	84 d2		 test	 dl, dl
  000d3	74 2d		 je	 SHORT $LN84@GetFloatAt
  000d5	80 f2 ed	 xor	 dl, -19			; ffffffedH
  000d8	88 55 f8	 mov	 BYTE PTR __k$[ebp+12], dl
  000db	8a 50 0d	 mov	 dl, BYTE PTR [eax+13]
  000de	84 d2		 test	 dl, dl
  000e0	74 1a		 je	 SHORT $LN83@GetFloatAt
  000e2	8a 40 0e	 mov	 al, BYTE PTR [eax+14]
  000e5	80 f2 ec	 xor	 dl, -20			; ffffffecH
  000e8	88 55 f9	 mov	 BYTE PTR __k$[ebp+13], dl
  000eb	84 c0		 test	 al, al
  000ed	74 07		 je	 SHORT $LN82@GetFloatAt
  000ef	34 eb		 xor	 al, -21			; ffffffebH
  000f1	88 45 fa	 mov	 BYTE PTR __k$[ebp+14], al
  000f4	eb 52		 jmp	 SHORT $LN1@GetFloatAt
$LN82@GetFloatAt:
  000f6	c6 45 fa eb	 mov	 BYTE PTR __k$[ebp+14], -21 ; ffffffebH
  000fa	eb 4c		 jmp	 SHORT $LN1@GetFloatAt
$LN83@GetFloatAt:
  000fc	c6 45 f9 ec	 mov	 BYTE PTR __k$[ebp+13], -20 ; ffffffecH
  00100	eb 46		 jmp	 SHORT $LN1@GetFloatAt
$LN84@GetFloatAt:
  00102	c6 45 f8 ed	 mov	 BYTE PTR __k$[ebp+12], -19 ; ffffffedH
  00106	eb 40		 jmp	 SHORT $LN1@GetFloatAt
$LN85@GetFloatAt:
  00108	c6 45 f7 ea	 mov	 BYTE PTR __k$[ebp+11], -22 ; ffffffeaH
  0010c	eb 3a		 jmp	 SHORT $LN1@GetFloatAt
$LN87@GetFloatAt:
  0010e	c6 45 f5 ec	 mov	 BYTE PTR __k$[ebp+9], -20 ; ffffffecH
  00112	eb 34		 jmp	 SHORT $LN1@GetFloatAt
$LN88@GetFloatAt:
  00114	c6 45 f4 ed	 mov	 BYTE PTR __k$[ebp+8], -19 ; ffffffedH
  00118	eb 2e		 jmp	 SHORT $LN1@GetFloatAt
$LN89@GetFloatAt:
  0011a	c6 45 f3 ea	 mov	 BYTE PTR __k$[ebp+7], -22 ; ffffffeaH
  0011e	eb 28		 jmp	 SHORT $LN1@GetFloatAt
$LN90@GetFloatAt:
  00120	c6 45 f2 eb	 mov	 BYTE PTR __k$[ebp+6], -21 ; ffffffebH
  00124	eb 22		 jmp	 SHORT $LN1@GetFloatAt
$LN91@GetFloatAt:
  00126	c6 45 f1 ec	 mov	 BYTE PTR __k$[ebp+5], -20 ; ffffffecH
  0012a	eb 1c		 jmp	 SHORT $LN1@GetFloatAt
$LN92@GetFloatAt:
  0012c	c6 45 f0 ed	 mov	 BYTE PTR __k$[ebp+4], -19 ; ffffffedH
  00130	eb 16		 jmp	 SHORT $LN1@GetFloatAt
$LN93@GetFloatAt:
  00132	c6 45 ef ea	 mov	 BYTE PTR __k$[ebp+3], -22 ; ffffffeaH
  00136	eb 10		 jmp	 SHORT $LN1@GetFloatAt
$LN94@GetFloatAt:
  00138	c6 45 ee eb	 mov	 BYTE PTR __k$[ebp+2], -21 ; ffffffebH
  0013c	eb 0a		 jmp	 SHORT $LN1@GetFloatAt
$LN95@GetFloatAt:
  0013e	c6 45 ed ec	 mov	 BYTE PTR __k$[ebp+1], -20 ; ffffffecH
  00142	eb 04		 jmp	 SHORT $LN1@GetFloatAt
$LN96@GetFloatAt:
  00144	c6 45 ec ed	 mov	 BYTE PTR __k$[ebp], -19	; ffffffedH
$LN1@GetFloatAt:
  00148	6a 02		 push	 2
  0014a	8d 45 ec	 lea	 eax, DWORD PTR __k$[ebp]
  0014d	c6 45 f6 00	 mov	 BYTE PTR __k$[ebp+10], 0
  00151	5a		 pop	 edx
$LL104@GetFloatAt:
  00152	81 30 ed ec eb
	ea		 xor	 DWORD PTR [eax], -353637139 ; eaebecedH
  00158	83 c0 04	 add	 eax, 4
  0015b	4a		 dec	 edx
  0015c	75 f4		 jne	 SHORT $LL104@GetFloatAt
  0015e	6a 08		 push	 8
  00160	58		 pop	 eax
$LL101@GetFloatAt:
  00161	8b c8		 mov	 ecx, eax
  00163	81 e1 03 00 00
	80		 and	 ecx, -2147483645	; 80000003H
  00169	79 05		 jns	 SHORT $LN111@GetFloatAt
  0016b	49		 dec	 ecx
  0016c	83 c9 fc	 or	 ecx, -4			; fffffffcH
  0016f	41		 inc	 ecx
$LN111@GetFloatAt:
  00170	b2 ed		 mov	 dl, -19			; ffffffedH
  00172	2a d1		 sub	 dl, cl
  00174	30 54 05 ec	 xor	 BYTE PTR __k$[ebp+eax], dl
  00178	40		 inc	 eax
  00179	83 f8 0a	 cmp	 eax, 10			; 0000000aH
  0017c	7c e3		 jl	 SHORT $LL101@GetFloatAt

; 102  : 		return GetFloatAttribute(_k);

  0017e	8d 45 ec	 lea	 eax, DWORD PTR __k$[ebp]
  00181	50		 push	 eax
  00182	8b ce		 mov	 ecx, esi
  00184	ff 15 00 00 00
	00		 call	 DWORD PTR __imp_?GetFloatAttribute@ioXMLElement@@QBEMPBD@Z

; 103  : 	}

  0018a	8b 4d fc	 mov	 ecx, DWORD PTR __$ArrayPad$[ebp]
  0018d	33 cd		 xor	 ecx, ebp
  0018f	5e		 pop	 esi
  00190	e8 00 00 00 00	 call	 @__security_check_cookie@4
  00195	c9		 leave
  00196	c2 04 00	 ret	 4
??$GetFloatAttribute_e@$0L@@ioXMLElement@@QBEMAAY0L@$$CBD@Z ENDP ; ioXMLElement::GetFloatAttribute_e<11>
_TEXT	ENDS
PUBLIC	__$ArrayPad$
PUBLIC	??$GetIntAttribute_e@$0BA@@ioXMLElement@@QBEHAAY0BA@$$CBD@Z ; ioXMLElement::GetIntAttribute_e<16>
; Function compile flags: /Ogsp
;	COMDAT ??$GetIntAttribute_e@$0BA@@ioXMLElement@@QBEHAAY0BA@$$CBD@Z
_TEXT	SEGMENT
__k$ = -24						; size = 16
__$ArrayPad$ = -4					; size = 4
_k$ = 8							; size = 4
??$GetIntAttribute_e@$0BA@@ioXMLElement@@QBEHAAY0BA@$$CBD@Z PROC ; ioXMLElement::GetIntAttribute_e<16>, COMDAT
; _this$ = ecx

; 86   : 	{

  00000	55		 push	 ebp
  00001	8b ec		 mov	 ebp, esp
  00003	83 ec 18	 sub	 esp, 24			; 00000018H
  00006	a1 00 00 00 00	 mov	 eax, DWORD PTR ___security_cookie
  0000b	33 c5		 xor	 eax, ebp
  0000d	89 45 fc	 mov	 DWORD PTR __$ArrayPad$[ebp], eax
  00010	8b 45 08	 mov	 eax, DWORD PTR _k$[ebp]

; 87   : 		_ENCSTR(k, _k);

  00013	8a 10		 mov	 dl, BYTE PTR [eax]
  00015	56		 push	 esi
  00016	8b f1		 mov	 esi, ecx
  00018	84 d2		 test	 dl, dl
  0001a	0f 84 8c 01 00
	00		 je	 $LN96@GetIntAttr@3
  00020	80 f2 ed	 xor	 dl, -19			; ffffffedH
  00023	88 55 e8	 mov	 BYTE PTR __k$[ebp], dl
  00026	8a 50 01	 mov	 dl, BYTE PTR [eax+1]
  00029	84 d2		 test	 dl, dl
  0002b	0f 84 75 01 00
	00		 je	 $LN95@GetIntAttr@3
  00031	80 f2 ec	 xor	 dl, -20			; ffffffecH
  00034	88 55 e9	 mov	 BYTE PTR __k$[ebp+1], dl
  00037	8a 50 02	 mov	 dl, BYTE PTR [eax+2]
  0003a	84 d2		 test	 dl, dl
  0003c	0f 84 5e 01 00
	00		 je	 $LN94@GetIntAttr@3
  00042	b1 eb		 mov	 cl, -21			; ffffffebH
  00044	32 d1		 xor	 dl, cl
  00046	88 55 ea	 mov	 BYTE PTR __k$[ebp+2], dl
  00049	8a 50 03	 mov	 dl, BYTE PTR [eax+3]
  0004c	84 d2		 test	 dl, dl
  0004e	0f 84 46 01 00
	00		 je	 $LN93@GetIntAttr@3
  00054	80 f2 ea	 xor	 dl, -22			; ffffffeaH
  00057	88 55 eb	 mov	 BYTE PTR __k$[ebp+3], dl
  0005a	8a 50 04	 mov	 dl, BYTE PTR [eax+4]
  0005d	84 d2		 test	 dl, dl
  0005f	0f 84 2f 01 00
	00		 je	 $LN92@GetIntAttr@3
  00065	80 f2 ed	 xor	 dl, -19			; ffffffedH
  00068	88 55 ec	 mov	 BYTE PTR __k$[ebp+4], dl
  0006b	8a 50 05	 mov	 dl, BYTE PTR [eax+5]
  0006e	84 d2		 test	 dl, dl
  00070	0f 84 18 01 00
	00		 je	 $LN91@GetIntAttr@3
  00076	80 f2 ec	 xor	 dl, -20			; ffffffecH
  00079	88 55 ed	 mov	 BYTE PTR __k$[ebp+5], dl
  0007c	8a 50 06	 mov	 dl, BYTE PTR [eax+6]
  0007f	84 d2		 test	 dl, dl
  00081	0f 84 02 01 00
	00		 je	 $LN90@GetIntAttr@3
  00087	32 d1		 xor	 dl, cl
  00089	88 55 ee	 mov	 BYTE PTR __k$[ebp+6], dl
  0008c	8a 50 07	 mov	 dl, BYTE PTR [eax+7]
  0008f	84 d2		 test	 dl, dl
  00091	0f 84 ec 00 00
	00		 je	 $LN89@GetIntAttr@3
  00097	80 f2 ea	 xor	 dl, -22			; ffffffeaH
  0009a	88 55 ef	 mov	 BYTE PTR __k$[ebp+7], dl
  0009d	8a 50 08	 mov	 dl, BYTE PTR [eax+8]
  000a0	84 d2		 test	 dl, dl
  000a2	0f 84 d5 00 00
	00		 je	 $LN88@GetIntAttr@3
  000a8	80 f2 ed	 xor	 dl, -19			; ffffffedH
  000ab	88 55 f0	 mov	 BYTE PTR __k$[ebp+8], dl
  000ae	8a 50 09	 mov	 dl, BYTE PTR [eax+9]
  000b1	84 d2		 test	 dl, dl
  000b3	0f 84 be 00 00
	00		 je	 $LN87@GetIntAttr@3
  000b9	80 f2 ec	 xor	 dl, -20			; ffffffecH
  000bc	88 55 f1	 mov	 BYTE PTR __k$[ebp+9], dl
  000bf	8a 50 0a	 mov	 dl, BYTE PTR [eax+10]
  000c2	84 d2		 test	 dl, dl
  000c4	0f 84 a8 00 00
	00		 je	 $LN86@GetIntAttr@3
  000ca	32 d1		 xor	 dl, cl
  000cc	88 55 f2	 mov	 BYTE PTR __k$[ebp+10], dl
  000cf	8a 50 0b	 mov	 dl, BYTE PTR [eax+11]
  000d2	84 d2		 test	 dl, dl
  000d4	0f 84 92 00 00
	00		 je	 $LN85@GetIntAttr@3
  000da	80 f2 ea	 xor	 dl, -22			; ffffffeaH
  000dd	88 55 f3	 mov	 BYTE PTR __k$[ebp+11], dl
  000e0	8a 50 0c	 mov	 dl, BYTE PTR [eax+12]
  000e3	84 d2		 test	 dl, dl
  000e5	74 7f		 je	 SHORT $LN84@GetIntAttr@3
  000e7	80 f2 ed	 xor	 dl, -19			; ffffffedH
  000ea	88 55 f4	 mov	 BYTE PTR __k$[ebp+12], dl
  000ed	8a 50 0d	 mov	 dl, BYTE PTR [eax+13]
  000f0	84 d2		 test	 dl, dl
  000f2	74 6c		 je	 SHORT $LN83@GetIntAttr@3
  000f4	80 f2 ec	 xor	 dl, -20			; ffffffecH
  000f7	88 55 f5	 mov	 BYTE PTR __k$[ebp+13], dl
  000fa	8a 50 0e	 mov	 dl, BYTE PTR [eax+14]
  000fd	84 d2		 test	 dl, dl
  000ff	74 5a		 je	 SHORT $LN82@GetIntAttr@3
  00101	32 d1		 xor	 dl, cl
  00103	80 78 0f 00	 cmp	 BYTE PTR [eax+15], 0
  00107	88 55 f6	 mov	 BYTE PTR __k$[ebp+14], dl
  0010a	0f 84 a0 00 00
	00		 je	 $LN1@GetIntAttr@3
  00110	8a 50 10	 mov	 dl, BYTE PTR [eax+16]
  00113	84 d2		 test	 dl, dl
  00115	74 3e		 je	 SHORT $LN80@GetIntAttr@3
  00117	80 f2 ed	 xor	 dl, -19			; ffffffedH
  0011a	88 55 f8	 mov	 BYTE PTR __k$[ebp+16], dl
  0011d	8a 50 11	 mov	 dl, BYTE PTR [eax+17]
  00120	84 d2		 test	 dl, dl
  00122	74 2b		 je	 SHORT $LN79@GetIntAttr@3
  00124	80 f2 ec	 xor	 dl, -20			; ffffffecH
  00127	88 55 f9	 mov	 BYTE PTR __k$[ebp+17], dl
  0012a	8a 50 12	 mov	 dl, BYTE PTR [eax+18]
  0012d	84 d2		 test	 dl, dl
  0012f	74 19		 je	 SHORT $LN78@GetIntAttr@3
  00131	8a 40 13	 mov	 al, BYTE PTR [eax+19]
  00134	32 d1		 xor	 dl, cl
  00136	88 55 fa	 mov	 BYTE PTR __k$[ebp+18], dl
  00139	84 c0		 test	 al, al
  0013b	74 07		 je	 SHORT $LN77@GetIntAttr@3
  0013d	34 ea		 xor	 al, -22			; ffffffeaH
  0013f	88 45 fb	 mov	 BYTE PTR __k$[ebp+19], al
  00142	eb 6c		 jmp	 SHORT $LN1@GetIntAttr@3
$LN77@GetIntAttr@3:
  00144	c6 45 fb ea	 mov	 BYTE PTR __k$[ebp+19], -22 ; ffffffeaH
  00148	eb 66		 jmp	 SHORT $LN1@GetIntAttr@3
$LN78@GetIntAttr@3:
  0014a	88 4d fa	 mov	 BYTE PTR __k$[ebp+18], cl
  0014d	eb 61		 jmp	 SHORT $LN1@GetIntAttr@3
$LN79@GetIntAttr@3:
  0014f	c6 45 f9 ec	 mov	 BYTE PTR __k$[ebp+17], -20 ; ffffffecH
  00153	eb 5b		 jmp	 SHORT $LN1@GetIntAttr@3
$LN80@GetIntAttr@3:
  00155	c6 45 f8 ed	 mov	 BYTE PTR __k$[ebp+16], -19 ; ffffffedH
  00159	eb 55		 jmp	 SHORT $LN1@GetIntAttr@3
$LN82@GetIntAttr@3:
  0015b	88 4d f6	 mov	 BYTE PTR __k$[ebp+14], cl
  0015e	eb 50		 jmp	 SHORT $LN1@GetIntAttr@3
$LN83@GetIntAttr@3:
  00160	c6 45 f5 ec	 mov	 BYTE PTR __k$[ebp+13], -20 ; ffffffecH
  00164	eb 4a		 jmp	 SHORT $LN1@GetIntAttr@3
$LN84@GetIntAttr@3:
  00166	c6 45 f4 ed	 mov	 BYTE PTR __k$[ebp+12], -19 ; ffffffedH
  0016a	eb 44		 jmp	 SHORT $LN1@GetIntAttr@3
$LN85@GetIntAttr@3:
  0016c	c6 45 f3 ea	 mov	 BYTE PTR __k$[ebp+11], -22 ; ffffffeaH
  00170	eb 3e		 jmp	 SHORT $LN1@GetIntAttr@3
$LN86@GetIntAttr@3:
  00172	88 4d f2	 mov	 BYTE PTR __k$[ebp+10], cl
  00175	eb 39		 jmp	 SHORT $LN1@GetIntAttr@3
$LN87@GetIntAttr@3:
  00177	c6 45 f1 ec	 mov	 BYTE PTR __k$[ebp+9], -20 ; ffffffecH
  0017b	eb 33		 jmp	 SHORT $LN1@GetIntAttr@3
$LN88@GetIntAttr@3:
  0017d	c6 45 f0 ed	 mov	 BYTE PTR __k$[ebp+8], -19 ; ffffffedH
  00181	eb 2d		 jmp	 SHORT $LN1@GetIntAttr@3
$LN89@GetIntAttr@3:
  00183	c6 45 ef ea	 mov	 BYTE PTR __k$[ebp+7], -22 ; ffffffeaH
  00187	eb 27		 jmp	 SHORT $LN1@GetIntAttr@3
$LN90@GetIntAttr@3:
  00189	88 4d ee	 mov	 BYTE PTR __k$[ebp+6], cl
  0018c	eb 22		 jmp	 SHORT $LN1@GetIntAttr@3
$LN91@GetIntAttr@3:
  0018e	c6 45 ed ec	 mov	 BYTE PTR __k$[ebp+5], -20 ; ffffffecH
  00192	eb 1c		 jmp	 SHORT $LN1@GetIntAttr@3
$LN92@GetIntAttr@3:
  00194	c6 45 ec ed	 mov	 BYTE PTR __k$[ebp+4], -19 ; ffffffedH
  00198	eb 16		 jmp	 SHORT $LN1@GetIntAttr@3
$LN93@GetIntAttr@3:
  0019a	c6 45 eb ea	 mov	 BYTE PTR __k$[ebp+3], -22 ; ffffffeaH
  0019e	eb 10		 jmp	 SHORT $LN1@GetIntAttr@3
$LN94@GetIntAttr@3:
  001a0	c6 45 ea eb	 mov	 BYTE PTR __k$[ebp+2], -21 ; ffffffebH
  001a4	eb 0a		 jmp	 SHORT $LN1@GetIntAttr@3
$LN95@GetIntAttr@3:
  001a6	c6 45 e9 ec	 mov	 BYTE PTR __k$[ebp+1], -20 ; ffffffecH
  001aa	eb 04		 jmp	 SHORT $LN1@GetIntAttr@3
$LN96@GetIntAttr@3:
  001ac	c6 45 e8 ed	 mov	 BYTE PTR __k$[ebp], -19	; ffffffedH
$LN1@GetIntAttr@3:
  001b0	6a 03		 push	 3
  001b2	8d 45 e8	 lea	 eax, DWORD PTR __k$[ebp]
  001b5	c6 45 f7 00	 mov	 BYTE PTR __k$[ebp+15], 0
  001b9	5a		 pop	 edx
$LL104@GetIntAttr@3:
  001ba	81 30 ed ec eb
	ea		 xor	 DWORD PTR [eax], -353637139 ; eaebecedH
  001c0	83 c0 04	 add	 eax, 4
  001c3	4a		 dec	 edx
  001c4	75 f4		 jne	 SHORT $LL104@GetIntAttr@3
  001c6	6a 0c		 push	 12			; 0000000cH
  001c8	58		 pop	 eax
$LL101@GetIntAttr@3:
  001c9	8b c8		 mov	 ecx, eax
  001cb	81 e1 03 00 00
	80		 and	 ecx, -2147483645	; 80000003H
  001d1	79 05		 jns	 SHORT $LN111@GetIntAttr@3
  001d3	49		 dec	 ecx
  001d4	83 c9 fc	 or	 ecx, -4			; fffffffcH
  001d7	41		 inc	 ecx
$LN111@GetIntAttr@3:
  001d8	b2 ed		 mov	 dl, -19			; ffffffedH
  001da	2a d1		 sub	 dl, cl
  001dc	30 54 05 e8	 xor	 BYTE PTR __k$[ebp+eax], dl
  001e0	40		 inc	 eax
  001e1	83 f8 0f	 cmp	 eax, 15			; 0000000fH
  001e4	7c e3		 jl	 SHORT $LL101@GetIntAttr@3

; 88   : 		return GetIntAttribute(_k);

  001e6	8d 45 e8	 lea	 eax, DWORD PTR __k$[ebp]
  001e9	50		 push	 eax
  001ea	8b ce		 mov	 ecx, esi
  001ec	ff 15 00 00 00
	00		 call	 DWORD PTR __imp_?GetIntAttribute@ioXMLElement@@QBEHPBD@Z

; 89   : 	}

  001f2	8b 4d fc	 mov	 ecx, DWORD PTR __$ArrayPad$[ebp]
  001f5	33 cd		 xor	 ecx, ebp
  001f7	5e		 pop	 esi
  001f8	e8 00 00 00 00	 call	 @__security_check_cookie@4
  001fd	c9		 leave
  001fe	c2 04 00	 ret	 4
??$GetIntAttribute_e@$0BA@@ioXMLElement@@QBEHAAY0BA@$$CBD@Z ENDP ; ioXMLElement::GetIntAttribute_e<16>
_TEXT	ENDS
PUBLIC	__$ArrayPad$
PUBLIC	??$GetStringAttribute_e@$0O@@ioXMLElement@@QBEPBDAAY0O@$$CBD@Z ; ioXMLElement::GetStringAttribute_e<14>
EXTRN	__imp_?GetStringAttribute@ioXMLElement@@QBEPBDPBD@Z:PROC
; Function compile flags: /Ogsp
;	COMDAT ??$GetStringAttribute_e@$0O@@ioXMLElement@@QBEPBDAAY0O@$$CBD@Z
_TEXT	SEGMENT
__k$ = -24						; size = 14
__$ArrayPad$ = -4					; size = 4
_k$ = 8							; size = 4
??$GetStringAttribute_e@$0O@@ioXMLElement@@QBEPBDAAY0O@$$CBD@Z PROC ; ioXMLElement::GetStringAttribute_e<14>, COMDAT
; _this$ = ecx

; 107  : 	{

  00000	55		 push	 ebp
  00001	8b ec		 mov	 ebp, esp
  00003	83 ec 18	 sub	 esp, 24			; 00000018H
  00006	a1 00 00 00 00	 mov	 eax, DWORD PTR ___security_cookie
  0000b	33 c5		 xor	 eax, ebp
  0000d	89 45 fc	 mov	 DWORD PTR __$ArrayPad$[ebp], eax
  00010	8b 45 08	 mov	 eax, DWORD PTR _k$[ebp]

; 108  : 		_ENCSTR(k, _k);

  00013	8a 10		 mov	 dl, BYTE PTR [eax]
  00015	56		 push	 esi
  00016	8b f1		 mov	 esi, ecx
  00018	84 d2		 test	 dl, dl
  0001a	0f 84 64 01 00
	00		 je	 $LN96@GetStringA
  00020	80 f2 ed	 xor	 dl, -19			; ffffffedH
  00023	88 55 e8	 mov	 BYTE PTR __k$[ebp], dl
  00026	8a 50 01	 mov	 dl, BYTE PTR [eax+1]
  00029	84 d2		 test	 dl, dl
  0002b	0f 84 4d 01 00
	00		 je	 $LN95@GetStringA
  00031	80 f2 ec	 xor	 dl, -20			; ffffffecH
  00034	88 55 e9	 mov	 BYTE PTR __k$[ebp+1], dl
  00037	8a 50 02	 mov	 dl, BYTE PTR [eax+2]
  0003a	84 d2		 test	 dl, dl
  0003c	0f 84 36 01 00
	00		 je	 $LN94@GetStringA
  00042	b1 eb		 mov	 cl, -21			; ffffffebH
  00044	32 d1		 xor	 dl, cl
  00046	88 55 ea	 mov	 BYTE PTR __k$[ebp+2], dl
  00049	8a 50 03	 mov	 dl, BYTE PTR [eax+3]
  0004c	84 d2		 test	 dl, dl
  0004e	0f 84 1e 01 00
	00		 je	 $LN93@GetStringA
  00054	80 f2 ea	 xor	 dl, -22			; ffffffeaH
  00057	88 55 eb	 mov	 BYTE PTR __k$[ebp+3], dl
  0005a	8a 50 04	 mov	 dl, BYTE PTR [eax+4]
  0005d	84 d2		 test	 dl, dl
  0005f	0f 84 07 01 00
	00		 je	 $LN92@GetStringA
  00065	80 f2 ed	 xor	 dl, -19			; ffffffedH
  00068	88 55 ec	 mov	 BYTE PTR __k$[ebp+4], dl
  0006b	8a 50 05	 mov	 dl, BYTE PTR [eax+5]
  0006e	84 d2		 test	 dl, dl
  00070	0f 84 f0 00 00
	00		 je	 $LN91@GetStringA
  00076	80 f2 ec	 xor	 dl, -20			; ffffffecH
  00079	88 55 ed	 mov	 BYTE PTR __k$[ebp+5], dl
  0007c	8a 50 06	 mov	 dl, BYTE PTR [eax+6]
  0007f	84 d2		 test	 dl, dl
  00081	0f 84 da 00 00
	00		 je	 $LN90@GetStringA
  00087	32 d1		 xor	 dl, cl
  00089	88 55 ee	 mov	 BYTE PTR __k$[ebp+6], dl
  0008c	8a 50 07	 mov	 dl, BYTE PTR [eax+7]
  0008f	84 d2		 test	 dl, dl
  00091	0f 84 c4 00 00
	00		 je	 $LN89@GetStringA
  00097	80 f2 ea	 xor	 dl, -22			; ffffffeaH
  0009a	88 55 ef	 mov	 BYTE PTR __k$[ebp+7], dl
  0009d	8a 50 08	 mov	 dl, BYTE PTR [eax+8]
  000a0	84 d2		 test	 dl, dl
  000a2	0f 84 ad 00 00
	00		 je	 $LN88@GetStringA
  000a8	80 f2 ed	 xor	 dl, -19			; ffffffedH
  000ab	88 55 f0	 mov	 BYTE PTR __k$[ebp+8], dl
  000ae	8a 50 09	 mov	 dl, BYTE PTR [eax+9]
  000b1	84 d2		 test	 dl, dl
  000b3	0f 84 96 00 00
	00		 je	 $LN87@GetStringA
  000b9	80 f2 ec	 xor	 dl, -20			; ffffffecH
  000bc	88 55 f1	 mov	 BYTE PTR __k$[ebp+9], dl
  000bf	8a 50 0a	 mov	 dl, BYTE PTR [eax+10]
  000c2	84 d2		 test	 dl, dl
  000c4	0f 84 80 00 00
	00		 je	 $LN86@GetStringA
  000ca	32 d1		 xor	 dl, cl
  000cc	88 55 f2	 mov	 BYTE PTR __k$[ebp+10], dl
  000cf	8a 50 0b	 mov	 dl, BYTE PTR [eax+11]
  000d2	84 d2		 test	 dl, dl
  000d4	74 6e		 je	 SHORT $LN85@GetStringA
  000d6	80 f2 ea	 xor	 dl, -22			; ffffffeaH
  000d9	88 55 f3	 mov	 BYTE PTR __k$[ebp+11], dl
  000dc	8a 50 0c	 mov	 dl, BYTE PTR [eax+12]
  000df	84 d2		 test	 dl, dl
  000e1	74 5b		 je	 SHORT $LN84@GetStringA
  000e3	80 f2 ed	 xor	 dl, -19			; ffffffedH
  000e6	80 78 0d 00	 cmp	 BYTE PTR [eax+13], 0
  000ea	88 55 f4	 mov	 BYTE PTR __k$[ebp+12], dl
  000ed	0f 84 95 00 00
	00		 je	 $LN1@GetStringA
  000f3	8a 50 0e	 mov	 dl, BYTE PTR [eax+14]
  000f6	84 d2		 test	 dl, dl
  000f8	74 3f		 je	 SHORT $LN82@GetStringA
  000fa	32 d1		 xor	 dl, cl
  000fc	88 55 f6	 mov	 BYTE PTR __k$[ebp+14], dl
  000ff	8a 50 0f	 mov	 dl, BYTE PTR [eax+15]
  00102	84 d2		 test	 dl, dl
  00104	74 2d		 je	 SHORT $LN81@GetStringA
  00106	80 f2 ea	 xor	 dl, -22			; ffffffeaH
  00109	88 55 f7	 mov	 BYTE PTR __k$[ebp+15], dl
  0010c	8a 50 10	 mov	 dl, BYTE PTR [eax+16]
  0010f	84 d2		 test	 dl, dl
  00111	74 1a		 je	 SHORT $LN80@GetStringA
  00113	8a 40 11	 mov	 al, BYTE PTR [eax+17]
  00116	80 f2 ed	 xor	 dl, -19			; ffffffedH
  00119	88 55 f8	 mov	 BYTE PTR __k$[ebp+16], dl
  0011c	84 c0		 test	 al, al
  0011e	74 07		 je	 SHORT $LN79@GetStringA
  00120	34 ec		 xor	 al, -20			; ffffffecH
  00122	88 45 f9	 mov	 BYTE PTR __k$[ebp+17], al
  00125	eb 61		 jmp	 SHORT $LN1@GetStringA
$LN79@GetStringA:
  00127	c6 45 f9 ec	 mov	 BYTE PTR __k$[ebp+17], -20 ; ffffffecH
  0012b	eb 5b		 jmp	 SHORT $LN1@GetStringA
$LN80@GetStringA:
  0012d	c6 45 f8 ed	 mov	 BYTE PTR __k$[ebp+16], -19 ; ffffffedH
  00131	eb 55		 jmp	 SHORT $LN1@GetStringA
$LN81@GetStringA:
  00133	c6 45 f7 ea	 mov	 BYTE PTR __k$[ebp+15], -22 ; ffffffeaH
  00137	eb 4f		 jmp	 SHORT $LN1@GetStringA
$LN82@GetStringA:
  00139	88 4d f6	 mov	 BYTE PTR __k$[ebp+14], cl
  0013c	eb 4a		 jmp	 SHORT $LN1@GetStringA
$LN84@GetStringA:
  0013e	c6 45 f4 ed	 mov	 BYTE PTR __k$[ebp+12], -19 ; ffffffedH
  00142	eb 44		 jmp	 SHORT $LN1@GetStringA
$LN85@GetStringA:
  00144	c6 45 f3 ea	 mov	 BYTE PTR __k$[ebp+11], -22 ; ffffffeaH
  00148	eb 3e		 jmp	 SHORT $LN1@GetStringA
$LN86@GetStringA:
  0014a	88 4d f2	 mov	 BYTE PTR __k$[ebp+10], cl
  0014d	eb 39		 jmp	 SHORT $LN1@GetStringA
$LN87@GetStringA:
  0014f	c6 45 f1 ec	 mov	 BYTE PTR __k$[ebp+9], -20 ; ffffffecH
  00153	eb 33		 jmp	 SHORT $LN1@GetStringA
$LN88@GetStringA:
  00155	c6 45 f0 ed	 mov	 BYTE PTR __k$[ebp+8], -19 ; ffffffedH
  00159	eb 2d		 jmp	 SHORT $LN1@GetStringA
$LN89@GetStringA:
  0015b	c6 45 ef ea	 mov	 BYTE PTR __k$[ebp+7], -22 ; ffffffeaH
  0015f	eb 27		 jmp	 SHORT $LN1@GetStringA
$LN90@GetStringA:
  00161	88 4d ee	 mov	 BYTE PTR __k$[ebp+6], cl
  00164	eb 22		 jmp	 SHORT $LN1@GetStringA
$LN91@GetStringA:
  00166	c6 45 ed ec	 mov	 BYTE PTR __k$[ebp+5], -20 ; ffffffecH
  0016a	eb 1c		 jmp	 SHORT $LN1@GetStringA
$LN92@GetStringA:
  0016c	c6 45 ec ed	 mov	 BYTE PTR __k$[ebp+4], -19 ; ffffffedH
  00170	eb 16		 jmp	 SHORT $LN1@GetStringA
$LN93@GetStringA:
  00172	c6 45 eb ea	 mov	 BYTE PTR __k$[ebp+3], -22 ; ffffffeaH
  00176	eb 10		 jmp	 SHORT $LN1@GetStringA
$LN94@GetStringA:
  00178	c6 45 ea eb	 mov	 BYTE PTR __k$[ebp+2], -21 ; ffffffebH
  0017c	eb 0a		 jmp	 SHORT $LN1@GetStringA
$LN95@GetStringA:
  0017e	c6 45 e9 ec	 mov	 BYTE PTR __k$[ebp+1], -20 ; ffffffecH
  00182	eb 04		 jmp	 SHORT $LN1@GetStringA
$LN96@GetStringA:
  00184	c6 45 e8 ed	 mov	 BYTE PTR __k$[ebp], -19	; ffffffedH
$LN1@GetStringA:
  00188	6a 03		 push	 3
  0018a	8d 45 e8	 lea	 eax, DWORD PTR __k$[ebp]
  0018d	c6 45 f5 00	 mov	 BYTE PTR __k$[ebp+13], 0
  00191	5a		 pop	 edx
$LL104@GetStringA:
  00192	81 30 ed ec eb
	ea		 xor	 DWORD PTR [eax], -353637139 ; eaebecedH
  00198	83 c0 04	 add	 eax, 4
  0019b	4a		 dec	 edx
  0019c	75 f4		 jne	 SHORT $LL104@GetStringA
  0019e	80 75 f4 ed	 xor	 BYTE PTR __k$[ebp+12], -19 ; ffffffedH

; 109  : 		return GetStringAttribute(_k);

  001a2	8d 45 e8	 lea	 eax, DWORD PTR __k$[ebp]
  001a5	50		 push	 eax
  001a6	8b ce		 mov	 ecx, esi
  001a8	ff 15 00 00 00
	00		 call	 DWORD PTR __imp_?GetStringAttribute@ioXMLElement@@QBEPBDPBD@Z

; 110  : 	}

  001ae	8b 4d fc	 mov	 ecx, DWORD PTR __$ArrayPad$[ebp]
  001b1	33 cd		 xor	 ecx, ebp
  001b3	5e		 pop	 esi
  001b4	e8 00 00 00 00	 call	 @__security_check_cookie@4
  001b9	c9		 leave
  001ba	c2 04 00	 ret	 4
??$GetStringAttribute_e@$0O@@ioXMLElement@@QBEPBDAAY0O@$$CBD@Z ENDP ; ioXMLElement::GetStringAttribute_e<14>
_TEXT	ENDS
PUBLIC	__$ArrayPad$
PUBLIC	??$GetStringAttribute_e@$0N@@ioXMLElement@@QBEPBDAAY0N@$$CBD@Z ; ioXMLElement::GetStringAttribute_e<13>
; Function compile flags: /Ogsp
;	COMDAT ??$GetStringAttribute_e@$0N@@ioXMLElement@@QBEPBDAAY0N@$$CBD@Z
_TEXT	SEGMENT
__k$ = -24						; size = 13
__$ArrayPad$ = -4					; size = 4
_k$ = 8							; size = 4
??$GetStringAttribute_e@$0N@@ioXMLElement@@QBEPBDAAY0N@$$CBD@Z PROC ; ioXMLElement::GetStringAttribute_e<13>, COMDAT
; _this$ = ecx

; 107  : 	{

  00000	55		 push	 ebp
  00001	8b ec		 mov	 ebp, esp
  00003	83 ec 18	 sub	 esp, 24			; 00000018H
  00006	a1 00 00 00 00	 mov	 eax, DWORD PTR ___security_cookie
  0000b	33 c5		 xor	 eax, ebp
  0000d	89 45 fc	 mov	 DWORD PTR __$ArrayPad$[ebp], eax
  00010	8b 45 08	 mov	 eax, DWORD PTR _k$[ebp]

; 108  : 		_ENCSTR(k, _k);

  00013	8a 10		 mov	 dl, BYTE PTR [eax]
  00015	56		 push	 esi
  00016	8b f1		 mov	 esi, ecx
  00018	84 d2		 test	 dl, dl
  0001a	0f 84 4d 01 00
	00		 je	 $LN96@GetStringA@2
  00020	80 f2 ed	 xor	 dl, -19			; ffffffedH
  00023	88 55 e8	 mov	 BYTE PTR __k$[ebp], dl
  00026	8a 50 01	 mov	 dl, BYTE PTR [eax+1]
  00029	84 d2		 test	 dl, dl
  0002b	0f 84 36 01 00
	00		 je	 $LN95@GetStringA@2
  00031	b1 ec		 mov	 cl, -20			; ffffffecH
  00033	32 d1		 xor	 dl, cl
  00035	88 55 e9	 mov	 BYTE PTR __k$[ebp+1], dl
  00038	8a 50 02	 mov	 dl, BYTE PTR [eax+2]
  0003b	84 d2		 test	 dl, dl
  0003d	0f 84 1e 01 00
	00		 je	 $LN94@GetStringA@2
  00043	80 f2 eb	 xor	 dl, -21			; ffffffebH
  00046	88 55 ea	 mov	 BYTE PTR __k$[ebp+2], dl
  00049	8a 50 03	 mov	 dl, BYTE PTR [eax+3]
  0004c	84 d2		 test	 dl, dl
  0004e	0f 84 07 01 00
	00		 je	 $LN93@GetStringA@2
  00054	80 f2 ea	 xor	 dl, -22			; ffffffeaH
  00057	88 55 eb	 mov	 BYTE PTR __k$[ebp+3], dl
  0005a	8a 50 04	 mov	 dl, BYTE PTR [eax+4]
  0005d	84 d2		 test	 dl, dl
  0005f	0f 84 f0 00 00
	00		 je	 $LN92@GetStringA@2
  00065	80 f2 ed	 xor	 dl, -19			; ffffffedH
  00068	88 55 ec	 mov	 BYTE PTR __k$[ebp+4], dl
  0006b	8a 50 05	 mov	 dl, BYTE PTR [eax+5]
  0006e	84 d2		 test	 dl, dl
  00070	0f 84 da 00 00
	00		 je	 $LN91@GetStringA@2
  00076	32 d1		 xor	 dl, cl
  00078	88 55 ed	 mov	 BYTE PTR __k$[ebp+5], dl
  0007b	8a 50 06	 mov	 dl, BYTE PTR [eax+6]
  0007e	84 d2		 test	 dl, dl
  00080	0f 84 c4 00 00
	00		 je	 $LN90@GetStringA@2
  00086	80 f2 eb	 xor	 dl, -21			; ffffffebH
  00089	88 55 ee	 mov	 BYTE PTR __k$[ebp+6], dl
  0008c	8a 50 07	 mov	 dl, BYTE PTR [eax+7]
  0008f	84 d2		 test	 dl, dl
  00091	0f 84 ad 00 00
	00		 je	 $LN89@GetStringA@2
  00097	80 f2 ea	 xor	 dl, -22			; ffffffeaH
  0009a	88 55 ef	 mov	 BYTE PTR __k$[ebp+7], dl
  0009d	8a 50 08	 mov	 dl, BYTE PTR [eax+8]
  000a0	84 d2		 test	 dl, dl
  000a2	0f 84 96 00 00
	00		 je	 $LN88@GetStringA@2
  000a8	80 f2 ed	 xor	 dl, -19			; ffffffedH
  000ab	88 55 f0	 mov	 BYTE PTR __k$[ebp+8], dl
  000ae	8a 50 09	 mov	 dl, BYTE PTR [eax+9]
  000b1	84 d2		 test	 dl, dl
  000b3	0f 84 80 00 00
	00		 je	 $LN87@GetStringA@2
  000b9	32 d1		 xor	 dl, cl
  000bb	88 55 f1	 mov	 BYTE PTR __k$[ebp+9], dl
  000be	8a 50 0a	 mov	 dl, BYTE PTR [eax+10]
  000c1	84 d2		 test	 dl, dl
  000c3	74 6e		 je	 SHORT $LN86@GetStringA@2
  000c5	80 f2 eb	 xor	 dl, -21			; ffffffebH
  000c8	88 55 f2	 mov	 BYTE PTR __k$[ebp+10], dl
  000cb	8a 50 0b	 mov	 dl, BYTE PTR [eax+11]
  000ce	84 d2		 test	 dl, dl
  000d0	74 5b		 je	 SHORT $LN85@GetStringA@2
  000d2	80 f2 ea	 xor	 dl, -22			; ffffffeaH
  000d5	80 78 0c 00	 cmp	 BYTE PTR [eax+12], 0
  000d9	88 55 f3	 mov	 BYTE PTR __k$[ebp+11], dl
  000dc	0f 84 8f 00 00
	00		 je	 $LN1@GetStringA@2
  000e2	8a 50 0d	 mov	 dl, BYTE PTR [eax+13]
  000e5	84 d2		 test	 dl, dl
  000e7	74 3f		 je	 SHORT $LN83@GetStringA@2
  000e9	32 d1		 xor	 dl, cl
  000eb	88 55 f5	 mov	 BYTE PTR __k$[ebp+13], dl
  000ee	8a 50 0e	 mov	 dl, BYTE PTR [eax+14]
  000f1	84 d2		 test	 dl, dl
  000f3	74 2d		 je	 SHORT $LN82@GetStringA@2
  000f5	80 f2 eb	 xor	 dl, -21			; ffffffebH
  000f8	88 55 f6	 mov	 BYTE PTR __k$[ebp+14], dl
  000fb	8a 50 0f	 mov	 dl, BYTE PTR [eax+15]
  000fe	84 d2		 test	 dl, dl
  00100	74 1a		 je	 SHORT $LN81@GetStringA@2
  00102	8a 40 10	 mov	 al, BYTE PTR [eax+16]
  00105	80 f2 ea	 xor	 dl, -22			; ffffffeaH
  00108	88 55 f7	 mov	 BYTE PTR __k$[ebp+15], dl
  0010b	84 c0		 test	 al, al
  0010d	74 07		 je	 SHORT $LN80@GetStringA@2
  0010f	34 ed		 xor	 al, -19			; ffffffedH
  00111	88 45 f8	 mov	 BYTE PTR __k$[ebp+16], al
  00114	eb 5b		 jmp	 SHORT $LN1@GetStringA@2
$LN80@GetStringA@2:
  00116	c6 45 f8 ed	 mov	 BYTE PTR __k$[ebp+16], -19 ; ffffffedH
  0011a	eb 55		 jmp	 SHORT $LN1@GetStringA@2
$LN81@GetStringA@2:
  0011c	c6 45 f7 ea	 mov	 BYTE PTR __k$[ebp+15], -22 ; ffffffeaH
  00120	eb 4f		 jmp	 SHORT $LN1@GetStringA@2
$LN82@GetStringA@2:
  00122	c6 45 f6 eb	 mov	 BYTE PTR __k$[ebp+14], -21 ; ffffffebH
  00126	eb 49		 jmp	 SHORT $LN1@GetStringA@2
$LN83@GetStringA@2:
  00128	88 4d f5	 mov	 BYTE PTR __k$[ebp+13], cl
  0012b	eb 44		 jmp	 SHORT $LN1@GetStringA@2
$LN85@GetStringA@2:
  0012d	c6 45 f3 ea	 mov	 BYTE PTR __k$[ebp+11], -22 ; ffffffeaH
  00131	eb 3e		 jmp	 SHORT $LN1@GetStringA@2
$LN86@GetStringA@2:
  00133	c6 45 f2 eb	 mov	 BYTE PTR __k$[ebp+10], -21 ; ffffffebH
  00137	eb 38		 jmp	 SHORT $LN1@GetStringA@2
$LN87@GetStringA@2:
  00139	88 4d f1	 mov	 BYTE PTR __k$[ebp+9], cl
  0013c	eb 33		 jmp	 SHORT $LN1@GetStringA@2
$LN88@GetStringA@2:
  0013e	c6 45 f0 ed	 mov	 BYTE PTR __k$[ebp+8], -19 ; ffffffedH
  00142	eb 2d		 jmp	 SHORT $LN1@GetStringA@2
$LN89@GetStringA@2:
  00144	c6 45 ef ea	 mov	 BYTE PTR __k$[ebp+7], -22 ; ffffffeaH
  00148	eb 27		 jmp	 SHORT $LN1@GetStringA@2
$LN90@GetStringA@2:
  0014a	c6 45 ee eb	 mov	 BYTE PTR __k$[ebp+6], -21 ; ffffffebH
  0014e	eb 21		 jmp	 SHORT $LN1@GetStringA@2
$LN91@GetStringA@2:
  00150	88 4d ed	 mov	 BYTE PTR __k$[ebp+5], cl
  00153	eb 1c		 jmp	 SHORT $LN1@GetStringA@2
$LN92@GetStringA@2:
  00155	c6 45 ec ed	 mov	 BYTE PTR __k$[ebp+4], -19 ; ffffffedH
  00159	eb 16		 jmp	 SHORT $LN1@GetStringA@2
$LN93@GetStringA@2:
  0015b	c6 45 eb ea	 mov	 BYTE PTR __k$[ebp+3], -22 ; ffffffeaH
  0015f	eb 10		 jmp	 SHORT $LN1@GetStringA@2
$LN94@GetStringA@2:
  00161	c6 45 ea eb	 mov	 BYTE PTR __k$[ebp+2], -21 ; ffffffebH
  00165	eb 0a		 jmp	 SHORT $LN1@GetStringA@2
$LN95@GetStringA@2:
  00167	c6 45 e9 ec	 mov	 BYTE PTR __k$[ebp+1], -20 ; ffffffecH
  0016b	eb 04		 jmp	 SHORT $LN1@GetStringA@2
$LN96@GetStringA@2:
  0016d	c6 45 e8 ed	 mov	 BYTE PTR __k$[ebp], -19	; ffffffedH
$LN1@GetStringA@2:
  00171	6a 03		 push	 3
  00173	8d 45 e8	 lea	 eax, DWORD PTR __k$[ebp]
  00176	c6 45 f4 00	 mov	 BYTE PTR __k$[ebp+12], 0
  0017a	5a		 pop	 edx
$LL104@GetStringA@2:
  0017b	81 30 ed ec eb
	ea		 xor	 DWORD PTR [eax], -353637139 ; eaebecedH
  00181	83 c0 04	 add	 eax, 4
  00184	4a		 dec	 edx
  00185	75 f4		 jne	 SHORT $LL104@GetStringA@2

; 109  : 		return GetStringAttribute(_k);

  00187	8d 45 e8	 lea	 eax, DWORD PTR __k$[ebp]
  0018a	50		 push	 eax
  0018b	8b ce		 mov	 ecx, esi
  0018d	ff 15 00 00 00
	00		 call	 DWORD PTR __imp_?GetStringAttribute@ioXMLElement@@QBEPBDPBD@Z

; 110  : 	}

  00193	8b 4d fc	 mov	 ecx, DWORD PTR __$ArrayPad$[ebp]
  00196	33 cd		 xor	 ecx, ebp
  00198	5e		 pop	 esi
  00199	e8 00 00 00 00	 call	 @__security_check_cookie@4
  0019e	c9		 leave
  0019f	c2 04 00	 ret	 4
??$GetStringAttribute_e@$0N@@ioXMLElement@@QBEPBDAAY0N@$$CBD@Z ENDP ; ioXMLElement::GetStringAttribute_e<13>
_TEXT	ENDS
PUBLIC	??$?8$00@ioHashString@@QAE_NAAY00$$CBD@Z	; ioHashString::operator==<1>
; Function compile flags: /Ogsp
; File d:\lost saga for developer\youtube\tutorial\source\src\io3dengine\iohashstring.h
;	COMDAT ??$?8$00@ioHashString@@QAE_NAAY00$$CBD@Z
_TEXT	SEGMENT
__t$ = -5						; size = 1
_t$ = 8							; size = 4
??$?8$00@ioHashString@@QAE_NAAY00$$CBD@Z PROC		; ioHashString::operator==<1>, COMDAT
; _this$ = ecx

; 127  : 	{

  00000	55		 push	 ebp
  00001	8b ec		 mov	 ebp, esp
  00003	51		 push	 ecx
  00004	51		 push	 ecx

; 128  : 		_ENCSTR(t, _t); return ( strcmp( m_pString, _t ) == 0 );

  00005	8b 45 08	 mov	 eax, DWORD PTR _t$[ebp]
  00008	80 38 00	 cmp	 BYTE PTR [eax], 0
  0000b	74 4b		 je	 SHORT $LN2@operator@4
  0000d	8a 50 01	 mov	 dl, BYTE PTR [eax+1]
  00010	84 d2		 test	 dl, dl
  00012	74 40		 je	 SHORT $LN95@operator@4
  00014	80 f2 ec	 xor	 dl, -20			; ffffffecH
  00017	88 55 fc	 mov	 BYTE PTR __t$[ebp+1], dl
  0001a	8a 50 02	 mov	 dl, BYTE PTR [eax+2]
  0001d	84 d2		 test	 dl, dl
  0001f	74 2d		 je	 SHORT $LN94@operator@4
  00021	80 f2 eb	 xor	 dl, -21			; ffffffebH
  00024	88 55 fd	 mov	 BYTE PTR __t$[ebp+2], dl
  00027	8a 50 03	 mov	 dl, BYTE PTR [eax+3]
  0002a	84 d2		 test	 dl, dl
  0002c	74 1a		 je	 SHORT $LN93@operator@4
  0002e	8a 40 04	 mov	 al, BYTE PTR [eax+4]
  00031	80 f2 ea	 xor	 dl, -22			; ffffffeaH
  00034	88 55 fe	 mov	 BYTE PTR __t$[ebp+3], dl
  00037	84 c0		 test	 al, al
  00039	74 07		 je	 SHORT $LN92@operator@4
  0003b	34 ed		 xor	 al, -19			; ffffffedH
  0003d	88 45 ff	 mov	 BYTE PTR __t$[ebp+4], al
  00040	eb 16		 jmp	 SHORT $LN2@operator@4
$LN92@operator@4:
  00042	c6 45 ff ed	 mov	 BYTE PTR __t$[ebp+4], -19 ; ffffffedH
  00046	eb 10		 jmp	 SHORT $LN2@operator@4
$LN93@operator@4:
  00048	c6 45 fe ea	 mov	 BYTE PTR __t$[ebp+3], -22 ; ffffffeaH
  0004c	eb 0a		 jmp	 SHORT $LN2@operator@4
$LN94@operator@4:
  0004e	c6 45 fd eb	 mov	 BYTE PTR __t$[ebp+2], -21 ; ffffffebH
  00052	eb 04		 jmp	 SHORT $LN2@operator@4
$LN95@operator@4:
  00054	c6 45 fc ec	 mov	 BYTE PTR __t$[ebp+1], -20 ; ffffffecH
$LN2@operator@4:
  00058	8b 01		 mov	 eax, DWORD PTR [ecx]
  0005a	c6 45 fb 00	 mov	 BYTE PTR __t$[ebp], 0
  0005e	8d 55 fb	 lea	 edx, DWORD PTR __t$[ebp]
$LL111@operator@4:
  00061	8a 08		 mov	 cl, BYTE PTR [eax]
  00063	3a 0a		 cmp	 cl, BYTE PTR [edx]
  00065	75 1a		 jne	 SHORT $LN112@operator@4
  00067	84 c9		 test	 cl, cl
  00069	74 12		 je	 SHORT $LN113@operator@4
  0006b	8a 48 01	 mov	 cl, BYTE PTR [eax+1]
  0006e	3a 4a 01	 cmp	 cl, BYTE PTR [edx+1]
  00071	75 0e		 jne	 SHORT $LN112@operator@4
  00073	83 c0 02	 add	 eax, 2
  00076	83 c2 02	 add	 edx, 2
  00079	84 c9		 test	 cl, cl
  0007b	75 e4		 jne	 SHORT $LL111@operator@4
$LN113@operator@4:
  0007d	33 c0		 xor	 eax, eax
  0007f	eb 05		 jmp	 SHORT $LN114@operator@4
$LN112@operator@4:
  00081	1b c0		 sbb	 eax, eax
  00083	83 d8 ff	 sbb	 eax, -1
$LN114@operator@4:
  00086	33 c9		 xor	 ecx, ecx
  00088	85 c0		 test	 eax, eax
  0008a	0f 94 c0	 sete	 al

; 129  : 	}

  0008d	c9		 leave
  0008e	c2 04 00	 ret	 4
??$?8$00@ioHashString@@QAE_NAAY00$$CBD@Z ENDP		; ioHashString::operator==<1>
_TEXT	ENDS
PUBLIC	__$ArrayPad$
PUBLIC	??$GetIntAttribute_e@$0P@@ioXMLElement@@QBEHAAY0P@$$CBD@Z ; ioXMLElement::GetIntAttribute_e<15>
; Function compile flags: /Ogsp
; File d:\lost saga for developer\youtube\tutorial\source\src\io3dengine\ioxmlelement.h
;	COMDAT ??$GetIntAttribute_e@$0P@@ioXMLElement@@QBEHAAY0P@$$CBD@Z
_TEXT	SEGMENT
__k$ = -24						; size = 15
__$ArrayPad$ = -4					; size = 4
_k$ = 8							; size = 4
??$GetIntAttribute_e@$0P@@ioXMLElement@@QBEHAAY0P@$$CBD@Z PROC ; ioXMLElement::GetIntAttribute_e<15>, COMDAT
; _this$ = ecx

; 86   : 	{

  00000	55		 push	 ebp
  00001	8b ec		 mov	 ebp, esp
  00003	83 ec 18	 sub	 esp, 24			; 00000018H
  00006	a1 00 00 00 00	 mov	 eax, DWORD PTR ___security_cookie
  0000b	33 c5		 xor	 eax, ebp
  0000d	89 45 fc	 mov	 DWORD PTR __$ArrayPad$[ebp], eax
  00010	8b 45 08	 mov	 eax, DWORD PTR _k$[ebp]

; 87   : 		_ENCSTR(k, _k);

  00013	8a 10		 mov	 dl, BYTE PTR [eax]
  00015	56		 push	 esi
  00016	8b f1		 mov	 esi, ecx
  00018	84 d2		 test	 dl, dl
  0001a	0f 84 75 01 00
	00		 je	 $LN96@GetIntAttr@4
  00020	80 f2 ed	 xor	 dl, -19			; ffffffedH
  00023	88 55 e8	 mov	 BYTE PTR __k$[ebp], dl
  00026	8a 50 01	 mov	 dl, BYTE PTR [eax+1]
  00029	84 d2		 test	 dl, dl
  0002b	0f 84 5e 01 00
	00		 je	 $LN95@GetIntAttr@4
  00031	b1 ec		 mov	 cl, -20			; ffffffecH
  00033	32 d1		 xor	 dl, cl
  00035	88 55 e9	 mov	 BYTE PTR __k$[ebp+1], dl
  00038	8a 50 02	 mov	 dl, BYTE PTR [eax+2]
  0003b	84 d2		 test	 dl, dl
  0003d	0f 84 46 01 00
	00		 je	 $LN94@GetIntAttr@4
  00043	80 f2 eb	 xor	 dl, -21			; ffffffebH
  00046	88 55 ea	 mov	 BYTE PTR __k$[ebp+2], dl
  00049	8a 50 03	 mov	 dl, BYTE PTR [eax+3]
  0004c	84 d2		 test	 dl, dl
  0004e	0f 84 2f 01 00
	00		 je	 $LN93@GetIntAttr@4
  00054	80 f2 ea	 xor	 dl, -22			; ffffffeaH
  00057	88 55 eb	 mov	 BYTE PTR __k$[ebp+3], dl
  0005a	8a 50 04	 mov	 dl, BYTE PTR [eax+4]
  0005d	84 d2		 test	 dl, dl
  0005f	0f 84 18 01 00
	00		 je	 $LN92@GetIntAttr@4
  00065	80 f2 ed	 xor	 dl, -19			; ffffffedH
  00068	88 55 ec	 mov	 BYTE PTR __k$[ebp+4], dl
  0006b	8a 50 05	 mov	 dl, BYTE PTR [eax+5]
  0006e	84 d2		 test	 dl, dl
  00070	0f 84 02 01 00
	00		 je	 $LN91@GetIntAttr@4
  00076	32 d1		 xor	 dl, cl
  00078	88 55 ed	 mov	 BYTE PTR __k$[ebp+5], dl
  0007b	8a 50 06	 mov	 dl, BYTE PTR [eax+6]
  0007e	84 d2		 test	 dl, dl
  00080	0f 84 ec 00 00
	00		 je	 $LN90@GetIntAttr@4
  00086	80 f2 eb	 xor	 dl, -21			; ffffffebH
  00089	88 55 ee	 mov	 BYTE PTR __k$[ebp+6], dl
  0008c	8a 50 07	 mov	 dl, BYTE PTR [eax+7]
  0008f	84 d2		 test	 dl, dl
  00091	0f 84 d5 00 00
	00		 je	 $LN89@GetIntAttr@4
  00097	80 f2 ea	 xor	 dl, -22			; ffffffeaH
  0009a	88 55 ef	 mov	 BYTE PTR __k$[ebp+7], dl
  0009d	8a 50 08	 mov	 dl, BYTE PTR [eax+8]
  000a0	84 d2		 test	 dl, dl
  000a2	0f 84 be 00 00
	00		 je	 $LN88@GetIntAttr@4
  000a8	80 f2 ed	 xor	 dl, -19			; ffffffedH
  000ab	88 55 f0	 mov	 BYTE PTR __k$[ebp+8], dl
  000ae	8a 50 09	 mov	 dl, BYTE PTR [eax+9]
  000b1	84 d2		 test	 dl, dl
  000b3	0f 84 a8 00 00
	00		 je	 $LN87@GetIntAttr@4
  000b9	32 d1		 xor	 dl, cl
  000bb	88 55 f1	 mov	 BYTE PTR __k$[ebp+9], dl
  000be	8a 50 0a	 mov	 dl, BYTE PTR [eax+10]
  000c1	84 d2		 test	 dl, dl
  000c3	0f 84 92 00 00
	00		 je	 $LN86@GetIntAttr@4
  000c9	80 f2 eb	 xor	 dl, -21			; ffffffebH
  000cc	88 55 f2	 mov	 BYTE PTR __k$[ebp+10], dl
  000cf	8a 50 0b	 mov	 dl, BYTE PTR [eax+11]
  000d2	84 d2		 test	 dl, dl
  000d4	74 7f		 je	 SHORT $LN85@GetIntAttr@4
  000d6	80 f2 ea	 xor	 dl, -22			; ffffffeaH
  000d9	88 55 f3	 mov	 BYTE PTR __k$[ebp+11], dl
  000dc	8a 50 0c	 mov	 dl, BYTE PTR [eax+12]
  000df	84 d2		 test	 dl, dl
  000e1	74 6c		 je	 SHORT $LN84@GetIntAttr@4
  000e3	80 f2 ed	 xor	 dl, -19			; ffffffedH
  000e6	88 55 f4	 mov	 BYTE PTR __k$[ebp+12], dl
  000e9	8a 50 0d	 mov	 dl, BYTE PTR [eax+13]
  000ec	84 d2		 test	 dl, dl
  000ee	74 5a		 je	 SHORT $LN83@GetIntAttr@4
  000f0	32 d1		 xor	 dl, cl
  000f2	80 78 0e 00	 cmp	 BYTE PTR [eax+14], 0
  000f6	88 55 f5	 mov	 BYTE PTR __k$[ebp+13], dl
  000f9	0f 84 9a 00 00
	00		 je	 $LN1@GetIntAttr@4
  000ff	8a 50 0f	 mov	 dl, BYTE PTR [eax+15]
  00102	84 d2		 test	 dl, dl
  00104	74 3e		 je	 SHORT $LN81@GetIntAttr@4
  00106	80 f2 ea	 xor	 dl, -22			; ffffffeaH
  00109	88 55 f7	 mov	 BYTE PTR __k$[ebp+15], dl
  0010c	8a 50 10	 mov	 dl, BYTE PTR [eax+16]
  0010f	84 d2		 test	 dl, dl
  00111	74 2b		 je	 SHORT $LN80@GetIntAttr@4
  00113	80 f2 ed	 xor	 dl, -19			; ffffffedH
  00116	88 55 f8	 mov	 BYTE PTR __k$[ebp+16], dl
  00119	8a 50 11	 mov	 dl, BYTE PTR [eax+17]
  0011c	84 d2		 test	 dl, dl
  0011e	74 19		 je	 SHORT $LN79@GetIntAttr@4
  00120	8a 40 12	 mov	 al, BYTE PTR [eax+18]
  00123	32 d1		 xor	 dl, cl
  00125	88 55 f9	 mov	 BYTE PTR __k$[ebp+17], dl
  00128	84 c0		 test	 al, al
  0012a	74 07		 je	 SHORT $LN78@GetIntAttr@4
  0012c	34 eb		 xor	 al, -21			; ffffffebH
  0012e	88 45 fa	 mov	 BYTE PTR __k$[ebp+18], al
  00131	eb 66		 jmp	 SHORT $LN1@GetIntAttr@4
$LN78@GetIntAttr@4:
  00133	c6 45 fa eb	 mov	 BYTE PTR __k$[ebp+18], -21 ; ffffffebH
  00137	eb 60		 jmp	 SHORT $LN1@GetIntAttr@4
$LN79@GetIntAttr@4:
  00139	88 4d f9	 mov	 BYTE PTR __k$[ebp+17], cl
  0013c	eb 5b		 jmp	 SHORT $LN1@GetIntAttr@4
$LN80@GetIntAttr@4:
  0013e	c6 45 f8 ed	 mov	 BYTE PTR __k$[ebp+16], -19 ; ffffffedH
  00142	eb 55		 jmp	 SHORT $LN1@GetIntAttr@4
$LN81@GetIntAttr@4:
  00144	c6 45 f7 ea	 mov	 BYTE PTR __k$[ebp+15], -22 ; ffffffeaH
  00148	eb 4f		 jmp	 SHORT $LN1@GetIntAttr@4
$LN83@GetIntAttr@4:
  0014a	88 4d f5	 mov	 BYTE PTR __k$[ebp+13], cl
  0014d	eb 4a		 jmp	 SHORT $LN1@GetIntAttr@4
$LN84@GetIntAttr@4:
  0014f	c6 45 f4 ed	 mov	 BYTE PTR __k$[ebp+12], -19 ; ffffffedH
  00153	eb 44		 jmp	 SHORT $LN1@GetIntAttr@4
$LN85@GetIntAttr@4:
  00155	c6 45 f3 ea	 mov	 BYTE PTR __k$[ebp+11], -22 ; ffffffeaH
  00159	eb 3e		 jmp	 SHORT $LN1@GetIntAttr@4
$LN86@GetIntAttr@4:
  0015b	c6 45 f2 eb	 mov	 BYTE PTR __k$[ebp+10], -21 ; ffffffebH
  0015f	eb 38		 jmp	 SHORT $LN1@GetIntAttr@4
$LN87@GetIntAttr@4:
  00161	88 4d f1	 mov	 BYTE PTR __k$[ebp+9], cl
  00164	eb 33		 jmp	 SHORT $LN1@GetIntAttr@4
$LN88@GetIntAttr@4:
  00166	c6 45 f0 ed	 mov	 BYTE PTR __k$[ebp+8], -19 ; ffffffedH
  0016a	eb 2d		 jmp	 SHORT $LN1@GetIntAttr@4
$LN89@GetIntAttr@4:
  0016c	c6 45 ef ea	 mov	 BYTE PTR __k$[ebp+7], -22 ; ffffffeaH
  00170	eb 27		 jmp	 SHORT $LN1@GetIntAttr@4
$LN90@GetIntAttr@4:
  00172	c6 45 ee eb	 mov	 BYTE PTR __k$[ebp+6], -21 ; ffffffebH
  00176	eb 21		 jmp	 SHORT $LN1@GetIntAttr@4
$LN91@GetIntAttr@4:
  00178	88 4d ed	 mov	 BYTE PTR __k$[ebp+5], cl
  0017b	eb 1c		 jmp	 SHORT $LN1@GetIntAttr@4
$LN92@GetIntAttr@4:
  0017d	c6 45 ec ed	 mov	 BYTE PTR __k$[ebp+4], -19 ; ffffffedH
  00181	eb 16		 jmp	 SHORT $LN1@GetIntAttr@4
$LN93@GetIntAttr@4:
  00183	c6 45 eb ea	 mov	 BYTE PTR __k$[ebp+3], -22 ; ffffffeaH
  00187	eb 10		 jmp	 SHORT $LN1@GetIntAttr@4
$LN94@GetIntAttr@4:
  00189	c6 45 ea eb	 mov	 BYTE PTR __k$[ebp+2], -21 ; ffffffebH
  0018d	eb 0a		 jmp	 SHORT $LN1@GetIntAttr@4
$LN95@GetIntAttr@4:
  0018f	c6 45 e9 ec	 mov	 BYTE PTR __k$[ebp+1], -20 ; ffffffecH
  00193	eb 04		 jmp	 SHORT $LN1@GetIntAttr@4
$LN96@GetIntAttr@4:
  00195	c6 45 e8 ed	 mov	 BYTE PTR __k$[ebp], -19	; ffffffedH
$LN1@GetIntAttr@4:
  00199	6a 03		 push	 3
  0019b	8d 45 e8	 lea	 eax, DWORD PTR __k$[ebp]
  0019e	c6 45 f6 00	 mov	 BYTE PTR __k$[ebp+14], 0
  001a2	5a		 pop	 edx
$LL104@GetIntAttr@4:
  001a3	81 30 ed ec eb
	ea		 xor	 DWORD PTR [eax], -353637139 ; eaebecedH
  001a9	83 c0 04	 add	 eax, 4
  001ac	4a		 dec	 edx
  001ad	75 f4		 jne	 SHORT $LL104@GetIntAttr@4
  001af	6a 0c		 push	 12			; 0000000cH
  001b1	58		 pop	 eax
$LL101@GetIntAttr@4:
  001b2	8b c8		 mov	 ecx, eax
  001b4	81 e1 03 00 00
	80		 and	 ecx, -2147483645	; 80000003H
  001ba	79 05		 jns	 SHORT $LN111@GetIntAttr@4
  001bc	49		 dec	 ecx
  001bd	83 c9 fc	 or	 ecx, -4			; fffffffcH
  001c0	41		 inc	 ecx
$LN111@GetIntAttr@4:
  001c1	b2 ed		 mov	 dl, -19			; ffffffedH
  001c3	2a d1		 sub	 dl, cl
  001c5	30 54 05 e8	 xor	 BYTE PTR __k$[ebp+eax], dl
  001c9	40		 inc	 eax
  001ca	83 f8 0e	 cmp	 eax, 14			; 0000000eH
  001cd	7c e3		 jl	 SHORT $LL101@GetIntAttr@4

; 88   : 		return GetIntAttribute(_k);

  001cf	8d 45 e8	 lea	 eax, DWORD PTR __k$[ebp]
  001d2	50		 push	 eax
  001d3	8b ce		 mov	 ecx, esi
  001d5	ff 15 00 00 00
	00		 call	 DWORD PTR __imp_?GetIntAttribute@ioXMLElement@@QBEHPBD@Z

; 89   : 	}

  001db	8b 4d fc	 mov	 ecx, DWORD PTR __$ArrayPad$[ebp]
  001de	33 cd		 xor	 ecx, ebp
  001e0	5e		 pop	 esi
  001e1	e8 00 00 00 00	 call	 @__security_check_cookie@4
  001e6	c9		 leave
  001e7	c2 04 00	 ret	 4
??$GetIntAttribute_e@$0P@@ioXMLElement@@QBEHAAY0P@$$CBD@Z ENDP ; ioXMLElement::GetIntAttribute_e<15>
_TEXT	ENDS
PUBLIC	??$construct@AAVioHashString@@@?$allocator@VioHashString@@@std@@QAEXPAVioHashString@@AAV2@@Z ; std::allocator<ioHashString>::construct<ioHashString &>
;	COMDAT xdata$x
; File c:\program files (x86)\microsoft visual studio 10.0\vc\include\utility
xdata$x	SEGMENT
__unwindtable$??$construct@AAVioHashString@@@?$allocator@VioHashString@@@std@@QAEXPAVioHashString@@AAV2@@Z DD 0ffffffffH
	DD	FLAT:__unwindfunclet$??$construct@AAVioHashString@@@?$allocator@VioHashString@@@std@@QAEXPAVioHashString@@AAV2@@Z$0
__ehfuncinfo$??$construct@AAVioHashString@@@?$allocator@VioHashString@@@std@@QAEXPAVioHashString@@AAV2@@Z DD 019930522H
	DD	01H
	DD	FLAT:__unwindtable$??$construct@AAVioHashString@@@?$allocator@VioHashString@@@std@@QAEXPAVioHashString@@AAV2@@Z
	DD	2 DUP(00H)
	DD	2 DUP(00H)
	DD	00H
	DD	01H
; Function compile flags: /Ogsp
; File c:\program files (x86)\microsoft visual studio 10.0\vc\include\xmemory
xdata$x	ENDS
;	COMDAT ??$construct@AAVioHashString@@@?$allocator@VioHashString@@@std@@QAEXPAVioHashString@@AAV2@@Z
_TEXT	SEGMENT
$T509273 = -16						; size = 4
__$EHRec$ = -12						; size = 12
__Ptr$ = 8						; size = 4
__Val$ = 12						; size = 4
??$construct@AAVioHashString@@@?$allocator@VioHashString@@@std@@QAEXPAVioHashString@@AAV2@@Z PROC ; std::allocator<ioHashString>::construct<ioHashString &>, COMDAT
; _this$ = ecx

; 206  : 		void construct(pointer _Ptr, _Other&& _Val)

  00000	6a 04		 push	 4
  00002	b8 00 00 00 00	 mov	 eax, __ehhandler$??$construct@AAVioHashString@@@?$allocator@VioHashString@@@std@@QAEXPAVioHashString@@AAV2@@Z
  00007	e8 00 00 00 00	 call	 __EH_prolog3

; 207  : 		{	// construct object at _Ptr with value _Val
; 208  : 		::new ((void _FARQ *)_Ptr) _Ty(_STD forward<_Other>(_Val));

  0000c	8b 4d 08	 mov	 ecx, DWORD PTR __Ptr$[ebp]
  0000f	89 4d f0	 mov	 DWORD PTR $T509273[ebp], ecx
  00012	83 65 fc 00	 and	 DWORD PTR __$EHRec$[ebp+8], 0
  00016	85 c9		 test	 ecx, ecx
  00018	74 09		 je	 SHORT $LN3@construct
  0001a	ff 75 0c	 push	 DWORD PTR __Val$[ebp]
  0001d	ff 15 00 00 00
	00		 call	 DWORD PTR __imp_??0ioHashString@@QAE@ABV0@@Z
$LN3@construct:

; 209  : 		}

  00023	e8 00 00 00 00	 call	 __EH_epilog3
  00028	c2 08 00	 ret	 8
_TEXT	ENDS
;	COMDAT text$x
text$x	SEGMENT
__unwindfunclet$??$construct@AAVioHashString@@@?$allocator@VioHashString@@@std@@QAEXPAVioHashString@@AAV2@@Z$0:
  00000	ff 75 08	 push	 DWORD PTR __Ptr$[ebp]
  00003	ff 75 f0	 push	 DWORD PTR $T509273[ebp]
  00006	e8 00 00 00 00	 call	 ??3@YAXPAX0@Z		; operator delete
  0000b	59		 pop	 ecx
  0000c	59		 pop	 ecx
  0000d	c3		 ret	 0
__ehhandler$??$construct@AAVioHashString@@@?$allocator@VioHashString@@@std@@QAEXPAVioHashString@@AAV2@@Z:
  0000e	8b 54 24 08	 mov	 edx, DWORD PTR [esp+8]
  00012	8d 42 0c	 lea	 eax, DWORD PTR [edx+12]
  00015	8b 4a ec	 mov	 ecx, DWORD PTR [edx-20]
  00018	33 c8		 xor	 ecx, eax
  0001a	e8 00 00 00 00	 call	 @__security_check_cookie@4
  0001f	b8 00 00 00 00	 mov	 eax, OFFSET __ehfuncinfo$??$construct@AAVioHashString@@@?$allocator@VioHashString@@@std@@QAEXPAVioHashString@@AAV2@@Z
  00024	e9 00 00 00 00	 jmp	 ___CxxFrameHandler3
text$x	ENDS
??$construct@AAVioHashString@@@?$allocator@VioHashString@@@std@@QAEXPAVioHashString@@AAV2@@Z ENDP ; std::allocator<ioHashString>::construct<ioHashString &>
PUBLIC	?destroy@?$allocator@UtagCostumeShopSubInfo@@@std@@QAEXPAUtagCostumeShopSubInfo@@@Z ; std::allocator<tagCostumeShopSubInfo>::destroy
; Function compile flags: /Ogsp
;	COMDAT ?destroy@?$allocator@UtagCostumeShopSubInfo@@@std@@QAEXPAUtagCostumeShopSubInfo@@@Z
_TEXT	SEGMENT
__Ptr$ = 8						; size = 4
?destroy@?$allocator@UtagCostumeShopSubInfo@@@std@@QAEXPAUtagCostumeShopSubInfo@@@Z PROC ; std::allocator<tagCostumeShopSubInfo>::destroy, COMDAT
; _this$ = ecx

; 213  : 		_Destroy(_Ptr);
; 214  : 		}

  00000	c2 04 00	 ret	 4
?destroy@?$allocator@UtagCostumeShopSubInfo@@@std@@QAEXPAUtagCostumeShopSubInfo@@@Z ENDP ; std::allocator<tagCostumeShopSubInfo>::destroy
_TEXT	ENDS
PUBLIC	?construct@?$allocator@VioHashString@@@std@@QAEXPAVioHashString@@$$QAV3@@Z ; std::allocator<ioHashString>::construct
;	COMDAT xdata$x
; File c:\program files (x86)\microsoft visual studio 10.0\vc\include\utility
xdata$x	SEGMENT
__unwindtable$?construct@?$allocator@VioHashString@@@std@@QAEXPAVioHashString@@$$QAV3@@Z DD 0ffffffffH
	DD	FLAT:__unwindfunclet$?construct@?$allocator@VioHashString@@@std@@QAEXPAVioHashString@@$$QAV3@@Z$0
__ehfuncinfo$?construct@?$allocator@VioHashString@@@std@@QAEXPAVioHashString@@$$QAV3@@Z DD 019930522H
	DD	01H
	DD	FLAT:__unwindtable$?construct@?$allocator@VioHashString@@@std@@QAEXPAVioHashString@@$$QAV3@@Z
	DD	2 DUP(00H)
	DD	2 DUP(00H)
	DD	00H
	DD	01H
; Function compile flags: /Ogsp
; File c:\program files (x86)\microsoft visual studio 10.0\vc\include\xmemory
xdata$x	ENDS
;	COMDAT ?construct@?$allocator@VioHashString@@@std@@QAEXPAVioHashString@@$$QAV3@@Z
_TEXT	SEGMENT
$T509298 = -16						; size = 4
__$EHRec$ = -12						; size = 12
__Ptr$ = 8						; size = 4
__Val$ = 12						; size = 4
?construct@?$allocator@VioHashString@@@std@@QAEXPAVioHashString@@$$QAV3@@Z PROC ; std::allocator<ioHashString>::construct, COMDAT
; _this$ = ecx

; 201  : 		{	// construct object at _Ptr with value _Val

  00000	6a 04		 push	 4
  00002	b8 00 00 00 00	 mov	 eax, __ehhandler$?construct@?$allocator@VioHashString@@@std@@QAEXPAVioHashString@@$$QAV3@@Z
  00007	e8 00 00 00 00	 call	 __EH_prolog3

; 202  : 		::new ((void _FARQ *)_Ptr) _Ty(_STD forward<_Ty>(_Val));

  0000c	8b 4d 08	 mov	 ecx, DWORD PTR __Ptr$[ebp]
  0000f	89 4d f0	 mov	 DWORD PTR $T509298[ebp], ecx
  00012	83 65 fc 00	 and	 DWORD PTR __$EHRec$[ebp+8], 0
  00016	85 c9		 test	 ecx, ecx
  00018	74 09		 je	 SHORT $LN3@construct@2
  0001a	ff 75 0c	 push	 DWORD PTR __Val$[ebp]
  0001d	ff 15 00 00 00
	00		 call	 DWORD PTR __imp_??0ioHashString@@QAE@ABV0@@Z
$LN3@construct@2:

; 203  : 		}

  00023	e8 00 00 00 00	 call	 __EH_epilog3
  00028	c2 08 00	 ret	 8
_TEXT	ENDS
;	COMDAT text$x
text$x	SEGMENT
__unwindfunclet$?construct@?$allocator@VioHashString@@@std@@QAEXPAVioHashString@@$$QAV3@@Z$0:
  00000	ff 75 08	 push	 DWORD PTR __Ptr$[ebp]
  00003	ff 75 f0	 push	 DWORD PTR $T509298[ebp]
  00006	e8 00 00 00 00	 call	 ??3@YAXPAX0@Z		; operator delete
  0000b	59		 pop	 ecx
  0000c	59		 pop	 ecx
  0000d	c3		 ret	 0
__ehhandler$?construct@?$allocator@VioHashString@@@std@@QAEXPAVioHashString@@$$QAV3@@Z:
  0000e	8b 54 24 08	 mov	 edx, DWORD PTR [esp+8]
  00012	8d 42 0c	 lea	 eax, DWORD PTR [edx+12]
  00015	8b 4a ec	 mov	 ecx, DWORD PTR [edx-20]
  00018	33 c8		 xor	 ecx, eax
  0001a	e8 00 00 00 00	 call	 @__security_check_cookie@4
  0001f	b8 00 00 00 00	 mov	 eax, OFFSET __ehfuncinfo$?construct@?$allocator@VioHashString@@@std@@QAEXPAVioHashString@@$$QAV3@@Z
  00024	e9 00 00 00 00	 jmp	 ___CxxFrameHandler3
text$x	ENDS
?construct@?$allocator@VioHashString@@@std@@QAEXPAVioHashString@@$$QAV3@@Z ENDP ; std::allocator<ioHashString>::construct
PUBLIC	?StringCbPrintfA@@YAJPADIPBDZZ			; StringCbPrintfA
; Function compile flags: /Ogsp
; File c:\program files (x86)\microsoft sdks\windows\v7.0a\include\strsafe.h
;	COMDAT ?StringCbPrintfA@@YAJPADIPBDZZ
_TEXT	SEGMENT
_pszDest$ = 8						; size = 4
_cbDest$ = 12						; size = 4
_pszFormat$ = 16					; size = 4
?StringCbPrintfA@@YAJPADIPBDZZ PROC			; StringCbPrintfA, COMDAT

; 4767 : {

  00000	55		 push	 ebp
  00001	8b ec		 mov	 ebp, esp

; 4768 :     HRESULT hr;
; 4769 :     size_t cchDest = cbDest / sizeof(char);
; 4770 : 
; 4771 :     hr = StringValidateDestA(pszDest, cchDest, STRSAFE_MAX_CCH);

  00003	8b 4d 0c	 mov	 ecx, DWORD PTR _cbDest$[ebp]
  00006	33 c0		 xor	 eax, eax
  00008	85 c9		 test	 ecx, ecx
  0000a	74 08		 je	 SHORT $LN4@StringCbPr
  0000c	81 f9 ff ff ff
	7f		 cmp	 ecx, 2147483647		; 7fffffffH
  00012	76 05		 jbe	 SHORT $LN5@StringCbPr
$LN4@StringCbPr:
  00014	b8 57 00 07 80	 mov	 eax, -2147024809	; 80070057H
$LN5@StringCbPr:

; 4772 :     
; 4773 :     if (SUCCEEDED(hr))

  00019	85 c0		 test	 eax, eax
  0001b	78 39		 js	 SHORT $LN1@StringCbPr

; 4774 :     {
; 4775 :         va_list argList;
; 4776 : 
; 4777 :         va_start(argList, pszFormat);
; 4778 : 
; 4779 :         hr = StringVPrintfWorkerA(pszDest,
; 4780 :                                   cchDest,
; 4781 :                                   NULL,
; 4782 :                                   pszFormat,
; 4783 :                                   argList);

  0001d	53		 push	 ebx
  0001e	56		 push	 esi
  0001f	57		 push	 edi
  00020	8b 7d 08	 mov	 edi, DWORD PTR _pszDest$[ebp]
  00023	8d 45 14	 lea	 eax, DWORD PTR _pszFormat$[ebp+4]
  00026	50		 push	 eax
  00027	ff 75 10	 push	 DWORD PTR _pszFormat$[ebp]
  0002a	8d 71 ff	 lea	 esi, DWORD PTR [ecx-1]
  0002d	56		 push	 esi
  0002e	57		 push	 edi
  0002f	33 db		 xor	 ebx, ebx
  00031	ff 15 00 00 00
	00		 call	 DWORD PTR __imp___vsnprintf
  00037	83 c4 10	 add	 esp, 16			; 00000010H
  0003a	85 c0		 test	 eax, eax
  0003c	78 0b		 js	 SHORT $LN12@StringCbPr
  0003e	3b c6		 cmp	 eax, esi
  00040	77 07		 ja	 SHORT $LN12@StringCbPr
  00042	75 0d		 jne	 SHORT $LN9@StringCbPr
  00044	88 1c 3e	 mov	 BYTE PTR [esi+edi], bl
  00047	eb 08		 jmp	 SHORT $LN9@StringCbPr
$LN12@StringCbPr:
  00049	88 1c 3e	 mov	 BYTE PTR [esi+edi], bl
  0004c	bb 7a 00 07 80	 mov	 ebx, -2147024774	; 8007007aH
$LN9@StringCbPr:
  00051	5f		 pop	 edi
  00052	5e		 pop	 esi
  00053	8b c3		 mov	 eax, ebx
  00055	5b		 pop	 ebx
$LN1@StringCbPr:

; 4784 : 
; 4785 :         va_end(argList);
; 4786 :     }
; 4787 : 
; 4788 :     return hr;
; 4789 : }

  00056	5d		 pop	 ebp
  00057	c3		 ret	 0
?StringCbPrintfA@@YAJPADIPBDZZ ENDP			; StringCbPrintfA
_TEXT	ENDS
PUBLIC	?begin@?$vector@VioHashString@@V?$allocator@VioHashString@@@std@@@std@@QAE?AV?$_Vector_iterator@V?$_Vector_val@VioHashString@@V?$allocator@VioHashString@@@std@@@std@@@2@XZ ; std::vector<ioHashString,std::allocator<ioHashString> >::begin
; Function compile flags: /Ogsp
; File c:\program files (x86)\microsoft visual studio 10.0\vc\include\vector
;	COMDAT ?begin@?$vector@VioHashString@@V?$allocator@VioHashString@@@std@@@std@@QAE?AV?$_Vector_iterator@V?$_Vector_val@VioHashString@@V?$allocator@VioHashString@@@std@@@std@@@2@XZ
_TEXT	SEGMENT
___$ReturnUdt$ = 8					; size = 4
?begin@?$vector@VioHashString@@V?$allocator@VioHashString@@@std@@@std@@QAE?AV?$_Vector_iterator@V?$_Vector_val@VioHashString@@V?$allocator@VioHashString@@@std@@@std@@@2@XZ PROC ; std::vector<ioHashString,std::allocator<ioHashString> >::begin, COMDAT
; _this$ = ecx

; 781  : 		{	// return iterator for beginning of mutable sequence

  00000	55		 push	 ebp
  00001	8b ec		 mov	 ebp, esp

; 782  : 		return (iterator(this->_Myfirst, this));

  00003	8b 09		 mov	 ecx, DWORD PTR [ecx]
  00005	8b 45 08	 mov	 eax, DWORD PTR ___$ReturnUdt$[ebp]
  00008	89 08		 mov	 DWORD PTR [eax], ecx

; 783  : 		}

  0000a	5d		 pop	 ebp
  0000b	c2 04 00	 ret	 4
?begin@?$vector@VioHashString@@V?$allocator@VioHashString@@@std@@@std@@QAE?AV?$_Vector_iterator@V?$_Vector_val@VioHashString@@V?$allocator@VioHashString@@@std@@@std@@@2@XZ ENDP ; std::vector<ioHashString,std::allocator<ioHashString> >::begin
_TEXT	ENDS
PUBLIC	?end@?$vector@VioHashString@@V?$allocator@VioHashString@@@std@@@std@@QAE?AV?$_Vector_iterator@V?$_Vector_val@VioHashString@@V?$allocator@VioHashString@@@std@@@std@@@2@XZ ; std::vector<ioHashString,std::allocator<ioHashString> >::end
; Function compile flags: /Ogsp
;	COMDAT ?end@?$vector@VioHashString@@V?$allocator@VioHashString@@@std@@@std@@QAE?AV?$_Vector_iterator@V?$_Vector_val@VioHashString@@V?$allocator@VioHashString@@@std@@@std@@@2@XZ
_TEXT	SEGMENT
___$ReturnUdt$ = 8					; size = 4
?end@?$vector@VioHashString@@V?$allocator@VioHashString@@@std@@@std@@QAE?AV?$_Vector_iterator@V?$_Vector_val@VioHashString@@V?$allocator@VioHashString@@@std@@@std@@@2@XZ PROC ; std::vector<ioHashString,std::allocator<ioHashString> >::end, COMDAT
; _this$ = ecx

; 791  : 		{	// return iterator for end of mutable sequence

  00000	55		 push	 ebp
  00001	8b ec		 mov	 ebp, esp

; 792  : 		return (iterator(this->_Mylast, this));

  00003	8b 49 04	 mov	 ecx, DWORD PTR [ecx+4]
  00006	8b 45 08	 mov	 eax, DWORD PTR ___$ReturnUdt$[ebp]
  00009	89 08		 mov	 DWORD PTR [eax], ecx

; 793  : 		}

  0000b	5d		 pop	 ebp
  0000c	c2 04 00	 ret	 4
?end@?$vector@VioHashString@@V?$allocator@VioHashString@@@std@@@std@@QAE?AV?$_Vector_iterator@V?$_Vector_val@VioHashString@@V?$allocator@VioHashString@@@std@@@std@@@2@XZ ENDP ; std::vector<ioHashString,std::allocator<ioHashString> >::end
_TEXT	ENDS
PUBLIC	??0?$_Vector_val@VioHashString@@V?$allocator@VioHashString@@@std@@@std@@QAE@V?$allocator@VioHashString@@@1@@Z ; std::_Vector_val<ioHashString,std::allocator<ioHashString> >::_Vector_val<ioHashString,std::allocator<ioHashString> >
; Function compile flags: /Ogsp
;	COMDAT ??0?$_Vector_val@VioHashString@@V?$allocator@VioHashString@@@std@@@std@@QAE@V?$allocator@VioHashString@@@1@@Z
_TEXT	SEGMENT
__Al$ = 8						; size = 1
??0?$_Vector_val@VioHashString@@V?$allocator@VioHashString@@@std@@@std@@QAE@V?$allocator@VioHashString@@@1@@Z PROC ; std::_Vector_val<ioHashString,std::allocator<ioHashString> >::_Vector_val<ioHashString,std::allocator<ioHashString> >, COMDAT
; _this$ = ecx

; 426  : 		{	// construct allocator from _Al

  00000	8b c1		 mov	 eax, ecx

; 427  : 		_Myfirst = 0;

  00002	33 c9		 xor	 ecx, ecx
  00004	89 08		 mov	 DWORD PTR [eax], ecx

; 428  : 		_Mylast = 0;

  00006	89 48 04	 mov	 DWORD PTR [eax+4], ecx

; 429  : 		_Myend = 0;

  00009	89 48 08	 mov	 DWORD PTR [eax+8], ecx

; 430  : 		}

  0000c	c2 04 00	 ret	 4
??0?$_Vector_val@VioHashString@@V?$allocator@VioHashString@@@std@@@std@@QAE@V?$allocator@VioHashString@@@1@@Z ENDP ; std::_Vector_val<ioHashString,std::allocator<ioHashString> >::_Vector_val<ioHashString,std::allocator<ioHashString> >
_TEXT	ENDS
PUBLIC	?_Make_iter@?$vector@VioHashString@@V?$allocator@VioHashString@@@std@@@std@@QBE?AV?$_Vector_iterator@V?$_Vector_val@VioHashString@@V?$allocator@VioHashString@@@std@@@std@@@2@V?$_Vector_const_iterator@V?$_Vector_val@VioHashString@@V?$allocator@VioHashString@@@std@@@std@@@2@@Z ; std::vector<ioHashString,std::allocator<ioHashString> >::_Make_iter
; Function compile flags: /Ogsp
;	COMDAT ?_Make_iter@?$vector@VioHashString@@V?$allocator@VioHashString@@@std@@@std@@QBE?AV?$_Vector_iterator@V?$_Vector_val@VioHashString@@V?$allocator@VioHashString@@@std@@@std@@@2@V?$_Vector_const_iterator@V?$_Vector_val@VioHashString@@V?$allocator@VioHashString@@@std@@@std@@@2@@Z
_TEXT	SEGMENT
___$ReturnUdt$ = 8					; size = 4
__Where$ = 12						; size = 4
?_Make_iter@?$vector@VioHashString@@V?$allocator@VioHashString@@@std@@@std@@QBE?AV?$_Vector_iterator@V?$_Vector_val@VioHashString@@V?$allocator@VioHashString@@@std@@@std@@@2@V?$_Vector_const_iterator@V?$_Vector_val@VioHashString@@V?$allocator@VioHashString@@@std@@@std@@@2@@Z PROC ; std::vector<ioHashString,std::allocator<ioHashString> >::_Make_iter, COMDAT
; _this$ = ecx

; 801  : 		{	// make iterator from const_iterator

  00000	55		 push	 ebp
  00001	8b ec		 mov	 ebp, esp

; 802  : 		return (iterator(_Where._Ptr, this));

  00003	8b 45 08	 mov	 eax, DWORD PTR ___$ReturnUdt$[ebp]
  00006	8b 4d 0c	 mov	 ecx, DWORD PTR __Where$[ebp]
  00009	89 08		 mov	 DWORD PTR [eax], ecx

; 803  : 		}

  0000b	5d		 pop	 ebp
  0000c	c2 08 00	 ret	 8
?_Make_iter@?$vector@VioHashString@@V?$allocator@VioHashString@@@std@@@std@@QBE?AV?$_Vector_iterator@V?$_Vector_val@VioHashString@@V?$allocator@VioHashString@@@std@@@std@@@2@V?$_Vector_const_iterator@V?$_Vector_val@VioHashString@@V?$allocator@VioHashString@@@std@@@std@@@2@@Z ENDP ; std::vector<ioHashString,std::allocator<ioHashString> >::_Make_iter
_TEXT	ENDS
PUBLIC	?max_size@?$vector@VioHashString@@V?$allocator@VioHashString@@@std@@@std@@QBEIXZ ; std::vector<ioHashString,std::allocator<ioHashString> >::max_size
; Function compile flags: /Ogsp
;	COMDAT ?max_size@?$vector@VioHashString@@V?$allocator@VioHashString@@@std@@@std@@QBEIXZ
_TEXT	SEGMENT
?max_size@?$vector@VioHashString@@V?$allocator@VioHashString@@@std@@@std@@QBEIXZ PROC ; std::vector<ioHashString,std::allocator<ioHashString> >::max_size, COMDAT
; _this$ = ecx

; 884  : 		return (this->_Alval.max_size());

  00000	b8 ff ff ff 0f	 mov	 eax, 268435455		; 0fffffffH

; 885  : 		}

  00005	c3		 ret	 0
?max_size@?$vector@VioHashString@@V?$allocator@VioHashString@@@std@@@std@@QBEIXZ ENDP ; std::vector<ioHashString,std::allocator<ioHashString> >::max_size
_TEXT	ENDS
PUBLIC	?allocate@?$allocator@VioHashString@@@std@@QAEPAVioHashString@@I@Z ; std::allocator<ioHashString>::allocate
; Function compile flags: /Ogsp
; File c:\program files (x86)\microsoft visual studio 10.0\vc\include\xmemory
;	COMDAT ?allocate@?$allocator@VioHashString@@@std@@QAEPAVioHashString@@I@Z
_TEXT	SEGMENT
__Count$ = 8						; size = 4
?allocate@?$allocator@VioHashString@@@std@@QAEPAVioHashString@@I@Z PROC ; std::allocator<ioHashString>::allocate, COMDAT
; _this$ = ecx

; 186  : 		{	// allocate array of _Count elements

  00000	55		 push	 ebp
  00001	8b ec		 mov	 ebp, esp

; 187  : 		return (_Allocate(_Count, (pointer)0));

  00003	6a 00		 push	 0
  00005	ff 75 08	 push	 DWORD PTR __Count$[ebp]
  00008	e8 00 00 00 00	 call	 ??$_Allocate@VioHashString@@@std@@YAPAVioHashString@@IPAV1@@Z ; std::_Allocate<ioHashString>
  0000d	59		 pop	 ecx
  0000e	59		 pop	 ecx

; 188  : 		}

  0000f	5d		 pop	 ebp
  00010	c2 04 00	 ret	 4
?allocate@?$allocator@VioHashString@@@std@@QAEPAVioHashString@@I@Z ENDP ; std::allocator<ioHashString>::allocate
_TEXT	ENDS
PUBLIC	??8?$_Vector_const_iterator@V?$_Vector_val@VioHashString@@V?$allocator@VioHashString@@@std@@@std@@@std@@QBE_NABV01@@Z ; std::_Vector_const_iterator<std::_Vector_val<ioHashString,std::allocator<ioHashString> > >::operator==
; Function compile flags: /Ogsp
; File c:\program files (x86)\microsoft visual studio 10.0\vc\include\vector
;	COMDAT ??8?$_Vector_const_iterator@V?$_Vector_val@VioHashString@@V?$allocator@VioHashString@@@std@@@std@@@std@@QBE_NABV01@@Z
_TEXT	SEGMENT
__Right$ = 8						; size = 4
??8?$_Vector_const_iterator@V?$_Vector_val@VioHashString@@V?$allocator@VioHashString@@@std@@@std@@@std@@QBE_NABV01@@Z PROC ; std::_Vector_const_iterator<std::_Vector_val<ioHashString,std::allocator<ioHashString> > >::operator==, COMDAT
; _this$ = ecx

; 201  : 		{	// test for iterator equality

  00000	55		 push	 ebp
  00001	8b ec		 mov	 ebp, esp

; 202  : 		_Compat(_Right);
; 203  : 		return (this->_Ptr == _Right._Ptr);

  00003	8b 01		 mov	 eax, DWORD PTR [ecx]
  00005	8b 4d 08	 mov	 ecx, DWORD PTR __Right$[ebp]
  00008	2b 01		 sub	 eax, DWORD PTR [ecx]
  0000a	f7 d8		 neg	 eax
  0000c	1b c0		 sbb	 eax, eax
  0000e	40		 inc	 eax

; 204  : 		}

  0000f	5d		 pop	 ebp
  00010	c2 04 00	 ret	 4
??8?$_Vector_const_iterator@V?$_Vector_val@VioHashString@@V?$allocator@VioHashString@@@std@@@std@@@std@@QBE_NABV01@@Z ENDP ; std::_Vector_const_iterator<std::_Vector_val<ioHashString,std::allocator<ioHashString> > >::operator==
_TEXT	ENDS
PUBLIC	??$_Move@PAVioHashString@@PAV1@@std@@YAPAVioHashString@@PAV1@00U_Nonscalar_ptr_iterator_tag@0@@Z ; std::_Move<ioHashString *,ioHashString *>
; Function compile flags: /Ogsp
; File c:\program files (x86)\microsoft visual studio 10.0\vc\include\xutility
;	COMDAT ??$_Move@PAVioHashString@@PAV1@@std@@YAPAVioHashString@@PAV1@00U_Nonscalar_ptr_iterator_tag@0@@Z
_TEXT	SEGMENT
__First$ = 8						; size = 4
__Last$ = 12						; size = 4
__Dest$ = 16						; size = 4
___formal$ = 20						; size = 1
??$_Move@PAVioHashString@@PAV1@@std@@YAPAVioHashString@@PAV1@00U_Nonscalar_ptr_iterator_tag@0@@Z PROC ; std::_Move<ioHashString *,ioHashString *>, COMDAT

; 2512 : 	{	// move [_First, _Last) to [_Dest, ...), arbitrary iterators

  00000	55		 push	 ebp
  00001	8b ec		 mov	 ebp, esp
  00003	56		 push	 esi

; 2513 : 	for (; _First != _Last; ++_Dest, ++_First)

  00004	8b 75 08	 mov	 esi, DWORD PTR __First$[ebp]
  00007	eb 11		 jmp	 SHORT $LN11@Move
$LL3@Move:

; 2514 : 		*_Dest = _STD move(*_First);

  00009	8b 4d 10	 mov	 ecx, DWORD PTR __Dest$[ebp]
  0000c	56		 push	 esi
  0000d	ff 15 00 00 00
	00		 call	 DWORD PTR __imp_??4ioHashString@@QAEAAV0@ABV0@@Z
  00013	83 45 10 10	 add	 DWORD PTR __Dest$[ebp], 16 ; 00000010H
  00017	83 c6 10	 add	 esi, 16			; 00000010H
$LN11@Move:

; 2513 : 	for (; _First != _Last; ++_Dest, ++_First)

  0001a	3b 75 0c	 cmp	 esi, DWORD PTR __Last$[ebp]
  0001d	75 ea		 jne	 SHORT $LL3@Move

; 2515 : 	return (_Dest);

  0001f	8b 45 10	 mov	 eax, DWORD PTR __Dest$[ebp]
  00022	5e		 pop	 esi

; 2516 : 	}

  00023	5d		 pop	 ebp
  00024	c3		 ret	 0
??$_Move@PAVioHashString@@PAV1@@std@@YAPAVioHashString@@PAV1@00U_Nonscalar_ptr_iterator_tag@0@@Z ENDP ; std::_Move<ioHashString *,ioHashString *>
_TEXT	ENDS
PUBLIC	??$_Destroy@VioHashString@@@std@@YAXPAVioHashString@@@Z ; std::_Destroy<ioHashString>
; Function compile flags: /Ogsp
; File c:\program files (x86)\microsoft visual studio 10.0\vc\include\xmemory
;	COMDAT ??$_Destroy@VioHashString@@@std@@YAXPAVioHashString@@@Z
_TEXT	SEGMENT
__Ptr$ = 8						; size = 4
??$_Destroy@VioHashString@@@std@@YAXPAVioHashString@@@Z PROC ; std::_Destroy<ioHashString>, COMDAT

; 62   : 	{	// destroy object at _Ptr

  00000	55		 push	 ebp
  00001	8b ec		 mov	 ebp, esp

; 63   : 	_Ptr->~_Ty();

  00003	8b 4d 08	 mov	 ecx, DWORD PTR __Ptr$[ebp]

; 64   : 	}

  00006	5d		 pop	 ebp

; 63   : 	_Ptr->~_Ty();

  00007	ff 25 00 00 00
	00		 jmp	 DWORD PTR __imp_??1ioHashString@@QAE@XZ
??$_Destroy@VioHashString@@@std@@YAXPAVioHashString@@@Z ENDP ; std::_Destroy<ioHashString>
_TEXT	ENDS
PUBLIC	?construct@?$allocator@VioHashString@@@std@@QAEXPAVioHashString@@ABV3@@Z ; std::allocator<ioHashString>::construct
; Function compile flags: /Ogsp
;	COMDAT ?construct@?$allocator@VioHashString@@@std@@QAEXPAVioHashString@@ABV3@@Z
_TEXT	SEGMENT
__Ptr$ = 8						; size = 4
__Val$ = 12						; size = 4
?construct@?$allocator@VioHashString@@@std@@QAEXPAVioHashString@@ABV3@@Z PROC ; std::allocator<ioHashString>::construct, COMDAT
; _this$ = ecx

; 196  : 		{	// construct object at _Ptr with value _Val

  00000	55		 push	 ebp
  00001	8b ec		 mov	 ebp, esp

; 197  : 		_Construct(_Ptr, _Val);

  00003	ff 75 0c	 push	 DWORD PTR __Val$[ebp]
  00006	ff 75 08	 push	 DWORD PTR __Ptr$[ebp]
  00009	e8 00 00 00 00	 call	 ??$_Construct@VioHashString@@ABV1@@std@@YAXPAVioHashString@@ABV1@@Z ; std::_Construct<ioHashString,ioHashString const &>
  0000e	59		 pop	 ecx
  0000f	59		 pop	 ecx

; 198  : 		}

  00010	5d		 pop	 ebp
  00011	c2 08 00	 ret	 8
?construct@?$allocator@VioHashString@@@std@@QAEXPAVioHashString@@ABV3@@Z ENDP ; std::allocator<ioHashString>::construct
_TEXT	ENDS
PUBLIC	_pImage$GSCopy$
PUBLIC	_this$GSCopy$
PUBLIC	_szType$GSCopy$
PUBLIC	__$ArrayPad$
PUBLIC	?AddRenderImage@ioCostumeRandomBox@@UAEXABVioHashString@@PAVioUIRenderImage@@@Z ; ioCostumeRandomBox::AddRenderImage
EXTRN	__imp_?AddRenderImage@ioWnd@@UAEXABVioHashString@@PAVioUIRenderImage@@@Z:PROC
; Function compile flags: /Ogsp
; File d:\lost saga for developer\youtube\tutorial\source\src\lsclient\gui\iocostumerandombox.cpp
;	COMDAT ?AddRenderImage@ioCostumeRandomBox@@UAEXABVioHashString@@PAVioUIRenderImage@@@Z
_TEXT	SEGMENT
_pImage$GSCopy$ = -40					; size = 4
_this$GSCopy$ = -36					; size = 4
_szType$GSCopy$ = -32					; size = 4
__t$509586 = -28					; size = 18
__t$509711 = -24					; size = 14
__t$509461 = -24					; size = 12
__$ArrayPad$ = -4					; size = 4
_szType$ = 8						; size = 4
_pImage$ = 12						; size = 4
?AddRenderImage@ioCostumeRandomBox@@UAEXABVioHashString@@PAVioUIRenderImage@@@Z PROC ; ioCostumeRandomBox::AddRenderImage, COMDAT
; _this$ = ecx

; 34   : {

  00000	55		 push	 ebp
  00001	8b ec		 mov	 ebp, esp
  00003	83 ec 28	 sub	 esp, 40			; 00000028H
  00006	a1 00 00 00 00	 mov	 eax, DWORD PTR ___security_cookie
  0000b	33 c5		 xor	 eax, ebp
  0000d	89 45 fc	 mov	 DWORD PTR __$ArrayPad$[ebp], eax
  00010	8b 45 08	 mov	 eax, DWORD PTR _szType$[ebp]
  00013	53		 push	 ebx
  00014	56		 push	 esi
  00015	57		 push	 edi

; 44   : 	}
; 45   : 	else if( szType == "costume_image" )

  00016	89 45 e0	 mov	 DWORD PTR _szType$GSCopy$[ebp], eax
  00019	8b 45 0c	 mov	 eax, DWORD PTR _pImage$[ebp]
  0001c	6a 02		 push	 2
  0001e	89 4d dc	 mov	 DWORD PTR _this$GSCopy$[ebp], ecx
  00021	89 45 d8	 mov	 DWORD PTR _pImage$GSCopy$[ebp], eax
  00024	c7 45 e8 8f 8d
	88 81		 mov	 DWORD PTR __t$509461[ebp], -2121757297 ; 81888d8fH
  0002b	c7 45 ec b2 89
	8d 8c		 mov	 DWORD PTR __t$509461[ebp+4], -1936881230 ; 8c8d89b2H
  00032	8d 45 e8	 lea	 eax, DWORD PTR __t$509461[ebp]
  00035	33 db		 xor	 ebx, ebx
  00037	c7 45 f0 88 8f
	9f 00		 mov	 DWORD PTR __t$509461[ebp+8], 10456968 ; 009f8f88H
  0003e	59		 pop	 ecx
  0003f	bf ed ec eb ea	 mov	 edi, -353637139		; eaebecedH
$LL121@AddRenderI:

; 35   : 	if( szType == "back_effect" )

  00044	31 38		 xor	 DWORD PTR [eax], edi
  00046	83 c0 04	 add	 eax, 4
  00049	49		 dec	 ecx
  0004a	75 f8		 jne	 SHORT $LL121@AddRenderI
  0004c	6a 08		 push	 8
  0004e	58		 pop	 eax
$LL118@AddRenderI:
  0004f	8b c8		 mov	 ecx, eax
  00051	81 e1 03 00 00
	80		 and	 ecx, -2147483645	; 80000003H
  00057	79 05		 jns	 SHORT $LN362@AddRenderI
  00059	49		 dec	 ecx
  0005a	83 c9 fc	 or	 ecx, -4			; fffffffcH
  0005d	41		 inc	 ecx
$LN362@AddRenderI:
  0005e	b2 ed		 mov	 dl, -19			; ffffffedH
  00060	2a d1		 sub	 dl, cl
  00062	30 54 05 e8	 xor	 BYTE PTR __t$509461[ebp+eax], dl
