; Listing generated by Microsoft (R) Optimizing Compiler Version 16.00.30319.01 

	TITLE	D:\Lost Saga For Developer\Youtube\Tutorial\Source\src\LSClient\ioControlMeshWeapon.cpp
	.686P
	.XMM
	include listing.inc
	.model	flat

INCLUDELIB MSVCRT
INCLUDELIB OLDNAMES

PUBLIC	?_EEM_DS@?$deque@UD3DXVECTOR3@@V?$allocator@UD3DXVECTOR3@@@std@@@std@@2HB ; std::deque<D3DXVECTOR3,std::allocator<D3DXVECTOR3> >::_EEM_DS
PUBLIC	?m_ActionStopType@ioControlMeshWeapon@@2W4ActionStopType@@A ; ioControlMeshWeapon::m_ActionStopType
PUBLIC	?m_DieActionStopType@ioControlMeshWeapon@@2W4ActionStopType@@A ; ioControlMeshWeapon::m_DieActionStopType
_BSS	SEGMENT
?m_ActionStopType@ioControlMeshWeapon@@2W4ActionStopType@@A DD 01H DUP (?) ; ioControlMeshWeapon::m_ActionStopType
?m_DieActionStopType@ioControlMeshWeapon@@2W4ActionStopType@@A DD 01H DUP (?) ; ioControlMeshWeapon::m_DieActionStopType
_BSS	ENDS
;	COMDAT ?_EEM_DS@?$deque@UD3DXVECTOR3@@V?$allocator@UD3DXVECTOR3@@@std@@@std@@2HB
CONST	SEGMENT
?_EEM_DS@?$deque@UD3DXVECTOR3@@V?$allocator@UD3DXVECTOR3@@@std@@@std@@2HB DD 01H ; std::deque<D3DXVECTOR3,std::allocator<D3DXVECTOR3> >::_EEM_DS
CONST	ENDS
PUBLIC	?return1@@YAIXZ					; return1
; Function compile flags: /Ogsp
; File d:\lost saga for developer\youtube\tutorial\source\src\lsclient\stdafx.h
;	COMDAT ?return1@@YAIXZ
_TEXT	SEGMENT
?return1@@YAIXZ PROC					; return1, COMDAT

; 17   : 	__forceinline unsigned int return1() { __asm mov eax, 1 };

  00000	b8 01 00 00 00	 mov	 eax, 1
  00005	c3		 ret	 0
?return1@@YAIXZ ENDP					; return1
_TEXT	ENDS
PUBLIC	?return100@@YAIXZ				; return100
; Function compile flags: /Ogsp
;	COMDAT ?return100@@YAIXZ
_TEXT	SEGMENT
?return100@@YAIXZ PROC					; return100, COMDAT

; 25   : 	__forceinline unsigned int return100() { __asm mov eax, 100 };

  00000	b8 64 00 00 00	 mov	 eax, 100		; 00000064H
  00005	c3		 ret	 0
?return100@@YAIXZ ENDP					; return100
_TEXT	ENDS
PUBLIC	?return360@@YAIXZ				; return360
; Function compile flags: /Ogsp
;	COMDAT ?return360@@YAIXZ
_TEXT	SEGMENT
?return360@@YAIXZ PROC					; return360, COMDAT

; 27   : 	__forceinline unsigned int return360() { __asm mov eax, 360 };

  00000	b8 68 01 00 00	 mov	 eax, 360		; 00000168H
  00005	c3		 ret	 0
?return360@@YAIXZ ENDP					; return360
_TEXT	ENDS
PUBLIC	?return1000@@YAIXZ				; return1000
; Function compile flags: /Ogsp
;	COMDAT ?return1000@@YAIXZ
_TEXT	SEGMENT
?return1000@@YAIXZ PROC					; return1000, COMDAT

; 29   : 	__forceinline unsigned int return1000() { __asm mov eax, 1000 };

  00000	b8 e8 03 00 00	 mov	 eax, 1000		; 000003e8H
  00005	c3		 ret	 0
?return1000@@YAIXZ ENDP					; return1000
_TEXT	ENDS
PUBLIC	_acosf
EXTRN	__fltused:DWORD
EXTRN	__CIacos:PROC
; Function compile flags: /Ogsp
; File c:\program files (x86)\microsoft visual studio 10.0\vc\include\math.h
;	COMDAT _acosf
_TEXT	SEGMENT
tv69 = 8						; size = 4
__X$ = 8						; size = 4
_acosf	PROC						; COMDAT

; 400  :         {return ((float)acos((double)_X)); }

  00000	55		 push	 ebp
  00001	8b ec		 mov	 ebp, esp
  00003	d9 45 08	 fld	 DWORD PTR __X$[ebp]
  00006	e8 00 00 00 00	 call	 __CIacos
  0000b	d9 5d 08	 fstp	 DWORD PTR tv69[ebp]
  0000e	d9 45 08	 fld	 DWORD PTR tv69[ebp]
  00011	5d		 pop	 ebp
  00012	c3		 ret	 0
_acosf	ENDP
_TEXT	ENDS
PUBLIC	?GetCreator@ioBaseChar@@QAEPAVioPlayStage@@XZ	; ioBaseChar::GetCreator
; Function compile flags: /Ogsp
; File d:\lost saga for developer\youtube\tutorial\source\src\lsclient\iobasechar.h
;	COMDAT ?GetCreator@ioBaseChar@@QAEPAVioPlayStage@@XZ
_TEXT	SEGMENT
?GetCreator@ioBaseChar@@QAEPAVioPlayStage@@XZ PROC	; ioBaseChar::GetCreator, COMDAT
; _this$ = ecx

; 4013 : 	inline ioPlayStage* GetCreator() { return m_pCreator; }

  00000	8b 81 44 03 00
	00		 mov	 eax, DWORD PTR [ecx+836]
  00006	c3		 ret	 0
?GetCreator@ioBaseChar@@QAEPAVioPlayStage@@XZ ENDP	; ioBaseChar::GetCreator
_TEXT	ENDS
PUBLIC	?copy@?$char_traits@D@std@@SAPADPADPBDI@Z	; std::char_traits<char>::copy
EXTRN	_memcpy:PROC
; Function compile flags: /Ogsp
; File c:\program files (x86)\microsoft visual studio 10.0\vc\include\iosfwd
;	COMDAT ?copy@?$char_traits@D@std@@SAPADPADPBDI@Z
_TEXT	SEGMENT
__First1$ = 8						; size = 4
__First2$ = 12						; size = 4
__Count$ = 16						; size = 4
?copy@?$char_traits@D@std@@SAPADPADPBDI@Z PROC		; std::char_traits<char>::copy, COMDAT

; 496  : 		{	// copy [_First1, _First1 + _Count) to [_First2, ...)

  00000	55		 push	 ebp
  00001	8b ec		 mov	 ebp, esp

; 498  : 		}

  00003	5d		 pop	 ebp

; 497  : 		return ((_Elem *)_CSTD memcpy(_First1, _First2, _Count));

  00004	e9 00 00 00 00	 jmp	 _memcpy
?copy@?$char_traits@D@std@@SAPADPADPBDI@Z ENDP		; std::char_traits<char>::copy
_TEXT	ENDS
PUBLIC	?assign@?$char_traits@D@std@@SAXAADABD@Z	; std::char_traits<char>::assign
; Function compile flags: /Ogsp
;	COMDAT ?assign@?$char_traits@D@std@@SAXAADABD@Z
_TEXT	SEGMENT
__Left$ = 8						; size = 4
__Right$ = 12						; size = 4
?assign@?$char_traits@D@std@@SAXAADABD@Z PROC		; std::char_traits<char>::assign, COMDAT

; 526  : 		{	// assign an element

  00000	55		 push	 ebp
  00001	8b ec		 mov	 ebp, esp

; 527  : 		_Left = _Right;

  00003	8b 45 0c	 mov	 eax, DWORD PTR __Right$[ebp]
  00006	8a 00		 mov	 al, BYTE PTR [eax]
  00008	8b 4d 08	 mov	 ecx, DWORD PTR __Left$[ebp]
  0000b	88 01		 mov	 BYTE PTR [ecx], al

; 528  : 		}

  0000d	5d		 pop	 ebp
  0000e	c3		 ret	 0
?assign@?$char_traits@D@std@@SAXAADABD@Z ENDP		; std::char_traits<char>::assign
_TEXT	ENDS
PUBLIC	?DestroyResource@ioControlMeshWeapon@@UAEXPAVioPlayStage@@@Z ; ioControlMeshWeapon::DestroyResource
EXTRN	__imp_?DestroyEffect@ioEffectFactory@@QAEXPAVioEffect@@@Z:PROC
EXTRN	__imp_?GetSingleton@ioEffectFactory@@SAAAV1@XZ:PROC
; Function compile flags: /Ogsp
; File d:\lost saga for developer\youtube\tutorial\source\src\lsclient\iocontrolmeshweapon.cpp
;	COMDAT ?DestroyResource@ioControlMeshWeapon@@UAEXPAVioPlayStage@@@Z
_TEXT	SEGMENT
_pStage$ = 8						; size = 4
?DestroyResource@ioControlMeshWeapon@@UAEXPAVioPlayStage@@@Z PROC ; ioControlMeshWeapon::DestroyResource, COMDAT
; _this$ = ecx

; 144  : {

  00000	56		 push	 esi

; 145  : 	if( m_pMesh )

  00001	8d b1 e8 08 00
	00		 lea	 esi, DWORD PTR [ecx+2280]
  00007	8b 06		 mov	 eax, DWORD PTR [esi]
  00009	85 c0		 test	 eax, eax
  0000b	74 12		 je	 SHORT $LN1@DestroyRes

; 146  : 	{
; 147  : 		g_EffectFactory.DestroyEffect( m_pMesh );

  0000d	50		 push	 eax
  0000e	ff 15 00 00 00
	00		 call	 DWORD PTR __imp_?GetSingleton@ioEffectFactory@@SAAAV1@XZ
  00014	8b c8		 mov	 ecx, eax
  00016	ff 15 00 00 00
	00		 call	 DWORD PTR __imp_?DestroyEffect@ioEffectFactory@@QAEXPAVioEffect@@@Z

; 148  : 		m_pMesh = NULL;

  0001c	83 26 00	 and	 DWORD PTR [esi], 0
$LN1@DestroyRes:
  0001f	5e		 pop	 esi

; 149  : 	}
; 150  : }

  00020	c2 04 00	 ret	 4
?DestroyResource@ioControlMeshWeapon@@UAEXPAVioPlayStage@@@Z ENDP ; ioControlMeshWeapon::DestroyResource
_TEXT	ENDS
PUBLIC	?GetLocalAttackBox@ioControlMeshWeapon@@UBEABVioOrientBox@@XZ ; ioControlMeshWeapon::GetLocalAttackBox
; Function compile flags: /Ogsp
;	COMDAT ?GetLocalAttackBox@ioControlMeshWeapon@@UBEABVioOrientBox@@XZ
_TEXT	SEGMENT
?GetLocalAttackBox@ioControlMeshWeapon@@UBEABVioOrientBox@@XZ PROC ; ioControlMeshWeapon::GetLocalAttackBox, COMDAT
; _this$ = ecx

; 154  : 	return m_LocalAttackBox;

  00000	8d 81 98 08 00
	00		 lea	 eax, DWORD PTR [ecx+2200]

; 155  : }

  00006	c3		 ret	 0
?GetLocalAttackBox@ioControlMeshWeapon@@UBEABVioOrientBox@@XZ ENDP ; ioControlMeshWeapon::GetLocalAttackBox
_TEXT	ENDS
PUBLIC	?GetType@ioControlMeshWeapon@@UBE?AW4WeaponType@ioWeapon@@XZ ; ioControlMeshWeapon::GetType
; Function compile flags: /Ogsp
;	COMDAT ?GetType@ioControlMeshWeapon@@UBE?AW4WeaponType@ioWeapon@@XZ
_TEXT	SEGMENT
?GetType@ioControlMeshWeapon@@UBE?AW4WeaponType@ioWeapon@@XZ PROC ; ioControlMeshWeapon::GetType, COMDAT
; _this$ = ecx

; 159  : 	return WT_CONTROL_MESH;

  00000	6a 60		 push	 96			; 00000060H
  00002	58		 pop	 eax

; 160  : }

  00003	c3		 ret	 0
?GetType@ioControlMeshWeapon@@UBE?AW4WeaponType@ioWeapon@@XZ ENDP ; ioControlMeshWeapon::GetType
_TEXT	ENDS
PUBLIC	?GetActionStopType@ioControlMeshWeapon@@UBE?AW4ActionStopType@@XZ ; ioControlMeshWeapon::GetActionStopType
; Function compile flags: /Ogsp
;	COMDAT ?GetActionStopType@ioControlMeshWeapon@@UBE?AW4ActionStopType@@XZ
_TEXT	SEGMENT
?GetActionStopType@ioControlMeshWeapon@@UBE?AW4ActionStopType@@XZ PROC ; ioControlMeshWeapon::GetActionStopType, COMDAT
; _this$ = ecx

; 164  : 	return m_ActionStopType;

  00000	a1 00 00 00 00	 mov	 eax, DWORD PTR ?m_ActionStopType@ioControlMeshWeapon@@2W4ActionStopType@@A ; ioControlMeshWeapon::m_ActionStopType

; 165  : }

  00005	c3		 ret	 0
?GetActionStopType@ioControlMeshWeapon@@UBE?AW4ActionStopType@@XZ ENDP ; ioControlMeshWeapon::GetActionStopType
_TEXT	ENDS
PUBLIC	?GetDieActionStopType@ioControlMeshWeapon@@UBE?AW4ActionStopType@@XZ ; ioControlMeshWeapon::GetDieActionStopType
; Function compile flags: /Ogsp
;	COMDAT ?GetDieActionStopType@ioControlMeshWeapon@@UBE?AW4ActionStopType@@XZ
_TEXT	SEGMENT
?GetDieActionStopType@ioControlMeshWeapon@@UBE?AW4ActionStopType@@XZ PROC ; ioControlMeshWeapon::GetDieActionStopType, COMDAT
; _this$ = ecx

; 169  : 	return m_DieActionStopType;

  00000	a1 00 00 00 00	 mov	 eax, DWORD PTR ?m_DieActionStopType@ioControlMeshWeapon@@2W4ActionStopType@@A ; ioControlMeshWeapon::m_DieActionStopType

; 170  : }

  00005	c3		 ret	 0
?GetDieActionStopType@ioControlMeshWeapon@@UBE?AW4ActionStopType@@XZ ENDP ; ioControlMeshWeapon::GetDieActionStopType
_TEXT	ENDS
PUBLIC	?SetStartPosition@ioControlMeshWeapon@@UAEXABUD3DXVECTOR3@@PAVioPlayStage@@@Z ; ioControlMeshWeapon::SetStartPosition
EXTRN	?SetPosition@ioWeapon@@QAEXABUD3DXVECTOR3@@@Z:PROC ; ioWeapon::SetPosition
EXTRN	__imp_??1ioHashString@@QAE@XZ:PROC
EXTRN	__imp_?HasLinkedSystem@ioEffect@@QBE_NXZ:PROC
EXTRN	__imp_?IsEmpty@ioHashString@@QBE_NXZ:PROC
EXTRN	__imp_?GetSkeletonName@ioEffect@@QBE?AVioHashString@@XZ:PROC
EXTRN	___CxxFrameHandler3:PROC
EXTRN	@__security_check_cookie@4:PROC
EXTRN	__EH_epilog3:PROC
EXTRN	__EH_prolog3:PROC
;	COMDAT xdata$x
xdata$x	SEGMENT
__unwindtable$?SetStartPosition@ioControlMeshWeapon@@UAEXABUD3DXVECTOR3@@PAVioPlayStage@@@Z DD 0ffffffffH
	DD	FLAT:__unwindfunclet$?SetStartPosition@ioControlMeshWeapon@@UAEXABUD3DXVECTOR3@@PAVioPlayStage@@@Z$0
__ehfuncinfo$?SetStartPosition@ioControlMeshWeapon@@UAEXABUD3DXVECTOR3@@PAVioPlayStage@@@Z DD 019930522H
	DD	01H
	DD	FLAT:__unwindtable$?SetStartPosition@ioControlMeshWeapon@@UAEXABUD3DXVECTOR3@@PAVioPlayStage@@@Z
	DD	2 DUP(00H)
	DD	2 DUP(00H)
	DD	00H
	DD	01H
; Function compile flags: /Ogsp
xdata$x	ENDS
;	COMDAT ?SetStartPosition@ioControlMeshWeapon@@UAEXABUD3DXVECTOR3@@PAVioPlayStage@@@Z
_TEXT	SEGMENT
$T533553 = -32						; size = 16
$T533556 = -16						; size = 4
__$EHRec$ = -12						; size = 12
_vPos$ = 8						; size = 4
_pStage$ = 12						; size = 4
?SetStartPosition@ioControlMeshWeapon@@UAEXABUD3DXVECTOR3@@PAVioPlayStage@@@Z PROC ; ioControlMeshWeapon::SetStartPosition, COMDAT
; _this$ = ecx

; 182  : {

  00000	6a 14		 push	 20			; 00000014H
  00002	b8 00 00 00 00	 mov	 eax, __ehhandler$?SetStartPosition@ioControlMeshWeapon@@UAEXABUD3DXVECTOR3@@PAVioPlayStage@@@Z
  00007	e8 00 00 00 00	 call	 __EH_prolog3
  0000c	8b f9		 mov	 edi, ecx
  0000e	83 65 f0 00	 and	 DWORD PTR $T533556[ebp], 0

; 183  : 	if( m_pMesh && m_pMesh->GetSkeletonName().IsEmpty() && m_pMesh->HasLinkedSystem() )

  00012	8b 8f e8 08 00
	00		 mov	 ecx, DWORD PTR [edi+2280]
  00018	85 c9		 test	 ecx, ecx
  0001a	74 35		 je	 SHORT $LN4@SetStartPo
  0001c	8d 45 e0	 lea	 eax, DWORD PTR $T533553[ebp]
  0001f	50		 push	 eax
  00020	ff 15 00 00 00
	00		 call	 DWORD PTR __imp_?GetSkeletonName@ioEffect@@QBE?AVioHashString@@XZ
  00026	83 65 fc 00	 and	 DWORD PTR __$EHRec$[ebp+8], 0
  0002a	8b c8		 mov	 ecx, eax
  0002c	c7 45 f0 01 00
	00 00		 mov	 DWORD PTR $T533556[ebp], 1
  00033	ff 15 00 00 00
	00		 call	 DWORD PTR __imp_?IsEmpty@ioHashString@@QBE_NXZ
  00039	84 c0		 test	 al, al
  0003b	74 14		 je	 SHORT $LN4@SetStartPo
  0003d	8b 8f e8 08 00
	00		 mov	 ecx, DWORD PTR [edi+2280]
  00043	ff 15 00 00 00
	00		 call	 DWORD PTR __imp_?HasLinkedSystem@ioEffect@@QBE_NXZ
  00049	84 c0		 test	 al, al
  0004b	74 04		 je	 SHORT $LN4@SetStartPo
  0004d	b3 01		 mov	 bl, 1
  0004f	eb 02		 jmp	 SHORT $LN5@SetStartPo
$LN4@SetStartPo:
  00051	32 db		 xor	 bl, bl
$LN5@SetStartPo:
  00053	83 4d fc ff	 or	 DWORD PTR __$EHRec$[ebp+8], -1
  00057	f6 45 f0 01	 test	 BYTE PTR $T533556[ebp], 1
  0005b	74 09		 je	 SHORT $LN8@SetStartPo
  0005d	8d 4d e0	 lea	 ecx, DWORD PTR $T533553[ebp]
  00060	ff 15 00 00 00
	00		 call	 DWORD PTR __imp_??1ioHashString@@QAE@XZ
$LN8@SetStartPo:
  00066	84 db		 test	 bl, bl
  00068	75 1c		 jne	 SHORT $LN2@SetStartPo

; 184  : 		return;
; 185  : 
; 186  : 	SetPosition( vPos );

  0006a	ff 75 08	 push	 DWORD PTR _vPos$[ebp]
  0006d	8b cf		 mov	 ecx, edi
  0006f	e8 00 00 00 00	 call	 ?SetPosition@ioWeapon@@QAEXABUD3DXVECTOR3@@@Z ; ioWeapon::SetPosition

; 187  : 	m_vStartPos = GetPosition();

  00074	8b 07		 mov	 eax, DWORD PTR [edi]
  00076	8b cf		 mov	 ecx, edi
  00078	ff 50 70	 call	 DWORD PTR [eax+112]
  0007b	81 c7 0c 09 00
	00		 add	 edi, 2316		; 0000090cH
  00081	8b f0		 mov	 esi, eax
  00083	a5		 movsd
  00084	a5		 movsd
  00085	a5		 movsd
$LN2@SetStartPo:

; 188  : }

  00086	e8 00 00 00 00	 call	 __EH_epilog3
  0008b	c2 08 00	 ret	 8
_TEXT	ENDS
;	COMDAT text$x
text$x	SEGMENT
__unwindfunclet$?SetStartPosition@ioControlMeshWeapon@@UAEXABUD3DXVECTOR3@@PAVioPlayStage@@@Z$0:
  00000	8b 45 f0	 mov	 eax, DWORD PTR $T533556[ebp]
  00003	83 e0 01	 and	 eax, 1
  00006	0f 84 0d 00 00
	00		 je	 $LN7@SetStartPo
  0000c	83 65 f0 fe	 and	 DWORD PTR $T533556[ebp], -2 ; fffffffeH
  00010	8d 4d e0	 lea	 ecx, DWORD PTR $T533553[ebp]
  00013	ff 25 00 00 00
	00		 jmp	 DWORD PTR __imp_??1ioHashString@@QAE@XZ
$LN7@SetStartPo:
  00019	c3		 ret	 0
__ehhandler$?SetStartPosition@ioControlMeshWeapon@@UAEXABUD3DXVECTOR3@@PAVioPlayStage@@@Z:
  0001a	8b 54 24 08	 mov	 edx, DWORD PTR [esp+8]
  0001e	8d 42 0c	 lea	 eax, DWORD PTR [edx+12]
  00021	8b 4a dc	 mov	 ecx, DWORD PTR [edx-36]
  00024	33 c8		 xor	 ecx, eax
  00026	e8 00 00 00 00	 call	 @__security_check_cookie@4
  0002b	b8 00 00 00 00	 mov	 eax, OFFSET __ehfuncinfo$?SetStartPosition@ioControlMeshWeapon@@UAEXABUD3DXVECTOR3@@PAVioPlayStage@@@Z
  00030	e9 00 00 00 00	 jmp	 ___CxxFrameHandler3
text$x	ENDS
?SetStartPosition@ioControlMeshWeapon@@UAEXABUD3DXVECTOR3@@PAVioPlayStage@@@Z ENDP ; ioControlMeshWeapon::SetStartPosition
PUBLIC	?IsFloating@ioControlMeshWeapon@@QBE_NXZ	; ioControlMeshWeapon::IsFloating
; Function compile flags: /Ogsp
;	COMDAT ?IsFloating@ioControlMeshWeapon@@QBE_NXZ
_TEXT	SEGMENT
?IsFloating@ioControlMeshWeapon@@QBE_NXZ PROC		; ioControlMeshWeapon::IsFloating, COMDAT
; _this$ = ecx

; 350  : 	if( m_State == CS_FLOATING )

  00000	83 b9 94 08 00
	00 01		 cmp	 DWORD PTR [ecx+2196], 1
  00007	0f 94 c0	 sete	 al

; 351  : 		return true;
; 352  : 
; 353  : 	return false;
; 354  : }

  0000a	c3		 ret	 0
?IsFloating@ioControlMeshWeapon@@QBE_NXZ ENDP		; ioControlMeshWeapon::IsFloating
_TEXT	ENDS
PUBLIC	?SetWeaponDead@ioControlMeshWeapon@@UAEXXZ	; ioControlMeshWeapon::SetWeaponDead
EXTRN	?CreateMapEffect@ioPlayStage@@QAEPAVioMapEffect@@ABVioHashString@@ABUD3DXVECTOR3@@1@Z:PROC ; ioPlayStage::CreateMapEffect
EXTRN	?GetExplosionEffectName@ioWeapon@@QBEABVioHashString@@XZ:PROC ; ioWeapon::GetExplosionEffectName
EXTRN	__imp_?GetCenter@ioOrientBox@@QBEABUD3DXVECTOR3@@XZ:PROC
EXTRN	?GetWorldAttackBox@ioWeapon@@QBEABVioOrientBox@@_N@Z:PROC ; ioWeapon::GetWorldAttackBox
EXTRN	?GetScale@ioWeapon@@QBEABUD3DXVECTOR3@@XZ:PROC	; ioWeapon::GetScale
EXTRN	?GetOwner@ioWeapon@@QBEPAVioBaseChar@@XZ:PROC	; ioWeapon::GetOwner
; Function compile flags: /Ogsp
;	COMDAT ?SetWeaponDead@ioControlMeshWeapon@@UAEXXZ
_TEXT	SEGMENT
?SetWeaponDead@ioControlMeshWeapon@@UAEXXZ PROC		; ioControlMeshWeapon::SetWeaponDead, COMDAT
; _this$ = ecx

; 562  : {

  00000	56		 push	 esi
  00001	8b f1		 mov	 esi, ecx

; 563  : 	if( GetOwner() && GetOwner()->GetCreator() )

  00003	e8 00 00 00 00	 call	 ?GetOwner@ioWeapon@@QBEPAVioBaseChar@@XZ ; ioWeapon::GetOwner
  00008	85 c0		 test	 eax, eax
  0000a	74 4f		 je	 SHORT $LN1@SetWeaponD
  0000c	8b ce		 mov	 ecx, esi
  0000e	e8 00 00 00 00	 call	 ?GetOwner@ioWeapon@@QBEPAVioBaseChar@@XZ ; ioWeapon::GetOwner
  00013	83 b8 44 03 00
	00 00		 cmp	 DWORD PTR [eax+836], 0
  0001a	74 3f		 je	 SHORT $LN1@SetWeaponD

; 564  : 	{
; 565  : 		GetOwner()->GetCreator()->CreateMapEffect( GetExplosionEffectName(), GetWorldAttackBox().GetCenter(), GetScale() );

  0001c	57		 push	 edi
  0001d	8b ce		 mov	 ecx, esi
  0001f	e8 00 00 00 00	 call	 ?GetOwner@ioWeapon@@QBEPAVioBaseChar@@XZ ; ioWeapon::GetOwner
  00024	8b b8 44 03 00
	00		 mov	 edi, DWORD PTR [eax+836]
  0002a	8b ce		 mov	 ecx, esi
  0002c	e8 00 00 00 00	 call	 ?GetScale@ioWeapon@@QBEABUD3DXVECTOR3@@XZ ; ioWeapon::GetScale
  00031	50		 push	 eax
  00032	6a 00		 push	 0
  00034	8b ce		 mov	 ecx, esi
  00036	e8 00 00 00 00	 call	 ?GetWorldAttackBox@ioWeapon@@QBEABVioOrientBox@@_N@Z ; ioWeapon::GetWorldAttackBox
  0003b	8b c8		 mov	 ecx, eax
  0003d	ff 15 00 00 00
	00		 call	 DWORD PTR __imp_?GetCenter@ioOrientBox@@QBEABUD3DXVECTOR3@@XZ
  00043	50		 push	 eax
  00044	8b ce		 mov	 ecx, esi
  00046	e8 00 00 00 00	 call	 ?GetExplosionEffectName@ioWeapon@@QBEABVioHashString@@XZ ; ioWeapon::GetExplosionEffectName
  0004b	50		 push	 eax
  0004c	8b cf		 mov	 ecx, edi
  0004e	e8 00 00 00 00	 call	 ?CreateMapEffect@ioPlayStage@@QAEPAVioMapEffect@@ABVioHashString@@ABUD3DXVECTOR3@@1@Z ; ioPlayStage::CreateMapEffect

; 566  : 		PlayExplosionSound();

  00053	8b 06		 mov	 eax, DWORD PTR [esi]
  00055	8b ce		 mov	 ecx, esi
  00057	ff 50 50	 call	 DWORD PTR [eax+80]
  0005a	5f		 pop	 edi
$LN1@SetWeaponD:

; 567  : 	}
; 568  : 
; 569  : 	StopLoopSound();

  0005b	8b 06		 mov	 eax, DWORD PTR [esi]
  0005d	8b ce		 mov	 ecx, esi
  0005f	ff 50 60	 call	 DWORD PTR [eax+96]

; 570  : 	m_bLive = false;

  00062	c6 86 82 05 00
	00 00		 mov	 BYTE PTR [esi+1410], 0
  00069	5e		 pop	 esi

; 571  : }

  0006a	c3		 ret	 0
?SetWeaponDead@ioControlMeshWeapon@@UAEXXZ ENDP		; ioControlMeshWeapon::SetWeaponDead
_TEXT	ENDS
PUBLIC	?GetMoveDir@ioControlMeshWeapon@@UAE?AUD3DXVECTOR3@@XZ ; ioControlMeshWeapon::GetMoveDir
; Function compile flags: /Ogsp
;	COMDAT ?GetMoveDir@ioControlMeshWeapon@@UAE?AUD3DXVECTOR3@@XZ
_TEXT	SEGMENT
___$ReturnUdt$ = 8					; size = 4
?GetMoveDir@ioControlMeshWeapon@@UAE?AUD3DXVECTOR3@@XZ PROC ; ioControlMeshWeapon::GetMoveDir, COMDAT
; _this$ = ecx

; 574  : {

  00000	55		 push	 ebp
  00001	8b ec		 mov	 ebp, esp

; 575  : 	return m_vMoveDir;

  00003	8b 45 08	 mov	 eax, DWORD PTR ___$ReturnUdt$[ebp]
  00006	56		 push	 esi
  00007	57		 push	 edi
  00008	8d b1 dc 08 00
	00		 lea	 esi, DWORD PTR [ecx+2268]
  0000e	8b f8		 mov	 edi, eax
  00010	a5		 movsd
  00011	a5		 movsd
  00012	a5		 movsd
  00013	5f		 pop	 edi
  00014	5e		 pop	 esi

; 576  : }

  00015	5d		 pop	 ebp
  00016	c2 04 00	 ret	 4
?GetMoveDir@ioControlMeshWeapon@@UAE?AUD3DXVECTOR3@@XZ ENDP ; ioControlMeshWeapon::GetMoveDir
_TEXT	ENDS
PUBLIC	__real@3f91df46a2526c7a
PUBLIC	??$DEGtoRAD@M@@YAMM@Z				; DEGtoRAD<float>
;	COMDAT __real@3f91df46a2526c7a
; File d:\lost saga for developer\youtube\tutorial\source\src\lsclient\veryoftenusedefine.h
CONST	SEGMENT
__real@3f91df46a2526c7a DQ 03f91df46a2526c7ar	; 0.0174533
; Function compile flags: /Ogsp
CONST	ENDS
;	COMDAT ??$DEGtoRAD@M@@YAMM@Z
_TEXT	SEGMENT
tv129 = 8						; size = 4
_val$ = 8						; size = 4
??$DEGtoRAD@M@@YAMM@Z PROC				; DEGtoRAD<float>, COMDAT

; 20   : type  DEGtoRAD (type val) {return (type) (val * 0.0174532925199);}

  00000	55		 push	 ebp
  00001	8b ec		 mov	 ebp, esp
  00003	d9 45 08	 fld	 DWORD PTR _val$[ebp]
  00006	dc 0d 00 00 00
	00		 fmul	 QWORD PTR __real@3f91df46a2526c7a
  0000c	d9 5d 08	 fstp	 DWORD PTR tv129[ebp]
  0000f	d9 45 08	 fld	 DWORD PTR tv129[ebp]
  00012	5d		 pop	 ebp
  00013	c3		 ret	 0
??$DEGtoRAD@M@@YAMM@Z ENDP				; DEGtoRAD<float>
_TEXT	ENDS
PUBLIC	??0D3DXVECTOR3@@QAE@XZ				; D3DXVECTOR3::D3DXVECTOR3
; Function compile flags: /Ogsp
; File c:\program files (x86)\microsoft directx sdk (june 2010)\include\d3dx9math.h
;	COMDAT ??0D3DXVECTOR3@@QAE@XZ
_TEXT	SEGMENT
??0D3DXVECTOR3@@QAE@XZ PROC				; D3DXVECTOR3::D3DXVECTOR3, COMDAT
; _this$ = ecx

; 165  :     D3DXVECTOR3() {};

  00000	8b c1		 mov	 eax, ecx
  00002	c3		 ret	 0
??0D3DXVECTOR3@@QAE@XZ ENDP				; D3DXVECTOR3::D3DXVECTOR3
_TEXT	ENDS
PUBLIC	??0D3DXQUATERNION@@QAE@XZ			; D3DXQUATERNION::D3DXQUATERNION
; Function compile flags: /Ogsp
;	COMDAT ??0D3DXQUATERNION@@QAE@XZ
_TEXT	SEGMENT
??0D3DXQUATERNION@@QAE@XZ PROC				; D3DXQUATERNION::D3DXQUATERNION, COMDAT
; _this$ = ecx

; 429  :     D3DXQUATERNION() {}

  00000	8b c1		 mov	 eax, ecx
  00002	c3		 ret	 0
??0D3DXQUATERNION@@QAE@XZ ENDP				; D3DXQUATERNION::D3DXQUATERNION
_TEXT	ENDS
PUBLIC	??0D3DXVECTOR3@@QAE@MMM@Z			; D3DXVECTOR3::D3DXVECTOR3
; Function compile flags: /Ogsp
; File c:\program files (x86)\microsoft directx sdk (june 2010)\include\d3dx9math.inl
;	COMDAT ??0D3DXVECTOR3@@QAE@MMM@Z
_TEXT	SEGMENT
_fx$ = 8						; size = 4
_fy$ = 12						; size = 4
_fz$ = 16						; size = 4
??0D3DXVECTOR3@@QAE@MMM@Z PROC				; D3DXVECTOR3::D3DXVECTOR3, COMDAT
; _this$ = ecx

; 303  : {

  00000	55		 push	 ebp
  00001	8b ec		 mov	 ebp, esp

; 304  :     x = fx;

  00003	f3 0f 10 45 08	 movss	 xmm0, DWORD PTR _fx$[ebp]
  00008	8b c1		 mov	 eax, ecx
  0000a	f3 0f 11 00	 movss	 DWORD PTR [eax], xmm0

; 305  :     y = fy;

  0000e	f3 0f 10 45 0c	 movss	 xmm0, DWORD PTR _fy$[ebp]
  00013	f3 0f 11 40 04	 movss	 DWORD PTR [eax+4], xmm0

; 306  :     z = fz;

  00018	f3 0f 10 45 10	 movss	 xmm0, DWORD PTR _fz$[ebp]
  0001d	f3 0f 11 40 08	 movss	 DWORD PTR [eax+8], xmm0

; 307  : }

  00022	5d		 pop	 ebp
  00023	c2 0c 00	 ret	 12			; 0000000cH
??0D3DXVECTOR3@@QAE@MMM@Z ENDP				; D3DXVECTOR3::D3DXVECTOR3
_TEXT	ENDS
PUBLIC	__mask@@NegFloat@
PUBLIC	??GD3DXVECTOR3@@QBE?AU0@XZ			; D3DXVECTOR3::operator-
;	COMDAT __mask@@NegFloat@
CONST	SEGMENT
__mask@@NegFloat@ DB 00H, 00H, 00H, 080H, 00H, 00H, 00H, 080H, 00H, 00H, 00H
	DB	080H, 00H, 00H, 00H, 080H
; Function compile flags: /Ogsp
CONST	ENDS
;	COMDAT ??GD3DXVECTOR3@@QBE?AU0@XZ
_TEXT	SEGMENT
___$ReturnUdt$ = 8					; size = 4
??GD3DXVECTOR3@@QBE?AU0@XZ PROC				; D3DXVECTOR3::operator-, COMDAT
; _this$ = ecx

; 372  : {

  00000	55		 push	 ebp
  00001	8b ec		 mov	 ebp, esp

; 373  :     return D3DXVECTOR3(-x, -y, -z);

  00003	f3 0f 10 05 00
	00 00 00	 movss	 xmm0, DWORD PTR __mask@@NegFloat@
  0000b	8b 45 08	 mov	 eax, DWORD PTR ___$ReturnUdt$[ebp]
  0000e	f3 0f 10 09	 movss	 xmm1, DWORD PTR [ecx]
  00012	0f 57 c8	 xorps	 xmm1, xmm0
  00015	f3 0f 11 08	 movss	 DWORD PTR [eax], xmm1
  00019	f3 0f 10 49 04	 movss	 xmm1, DWORD PTR [ecx+4]
  0001e	0f 57 c8	 xorps	 xmm1, xmm0
  00021	f3 0f 11 48 04	 movss	 DWORD PTR [eax+4], xmm1
  00026	f3 0f 10 49 08	 movss	 xmm1, DWORD PTR [ecx+8]
  0002b	0f 57 c8	 xorps	 xmm1, xmm0
  0002e	f3 0f 11 48 08	 movss	 DWORD PTR [eax+8], xmm1

; 374  : }

  00033	5d		 pop	 ebp
  00034	c2 04 00	 ret	 4
??GD3DXVECTOR3@@QBE?AU0@XZ ENDP				; D3DXVECTOR3::operator-
_TEXT	ENDS
PUBLIC	??HD3DXVECTOR3@@QBE?AU0@ABU0@@Z			; D3DXVECTOR3::operator+
; Function compile flags: /Ogsp
;	COMDAT ??HD3DXVECTOR3@@QBE?AU0@ABU0@@Z
_TEXT	SEGMENT
___$ReturnUdt$ = 8					; size = 4
_v$ = 12						; size = 4
??HD3DXVECTOR3@@QBE?AU0@ABU0@@Z PROC			; D3DXVECTOR3::operator+, COMDAT
; _this$ = ecx

; 380  : {

  00000	55		 push	 ebp
  00001	8b ec		 mov	 ebp, esp

; 381  :     return D3DXVECTOR3(x + v.x, y + v.y, z + v.z);

  00003	8b 55 0c	 mov	 edx, DWORD PTR _v$[ebp]
  00006	f3 0f 10 02	 movss	 xmm0, DWORD PTR [edx]
  0000a	f3 0f 10 09	 movss	 xmm1, DWORD PTR [ecx]
  0000e	8b 45 08	 mov	 eax, DWORD PTR ___$ReturnUdt$[ebp]
  00011	0f 5a c0	 cvtps2pd xmm0, xmm0
  00014	0f 5a c9	 cvtps2pd xmm1, xmm1
  00017	f2 0f 58 c1	 addsd	 xmm0, xmm1
  0001b	f3 0f 10 49 04	 movss	 xmm1, DWORD PTR [ecx+4]
  00020	66 0f 5a c0	 cvtpd2ps xmm0, xmm0
  00024	f3 0f 11 00	 movss	 DWORD PTR [eax], xmm0
  00028	f3 0f 10 42 04	 movss	 xmm0, DWORD PTR [edx+4]
  0002d	0f 5a c0	 cvtps2pd xmm0, xmm0
  00030	0f 5a c9	 cvtps2pd xmm1, xmm1
  00033	f2 0f 58 c1	 addsd	 xmm0, xmm1
  00037	f3 0f 10 49 08	 movss	 xmm1, DWORD PTR [ecx+8]
  0003c	66 0f 5a c0	 cvtpd2ps xmm0, xmm0
  00040	f3 0f 11 40 04	 movss	 DWORD PTR [eax+4], xmm0
  00045	f3 0f 10 42 08	 movss	 xmm0, DWORD PTR [edx+8]
  0004a	0f 5a c0	 cvtps2pd xmm0, xmm0
  0004d	0f 5a c9	 cvtps2pd xmm1, xmm1
  00050	f2 0f 58 c1	 addsd	 xmm0, xmm1
  00054	66 0f 5a c0	 cvtpd2ps xmm0, xmm0
  00058	f3 0f 11 40 08	 movss	 DWORD PTR [eax+8], xmm0

; 382  : }

  0005d	5d		 pop	 ebp
  0005e	c2 08 00	 ret	 8
??HD3DXVECTOR3@@QBE?AU0@ABU0@@Z ENDP			; D3DXVECTOR3::operator+
_TEXT	ENDS
PUBLIC	??GD3DXVECTOR3@@QBE?AU0@ABU0@@Z			; D3DXVECTOR3::operator-
; Function compile flags: /Ogsp
;	COMDAT ??GD3DXVECTOR3@@QBE?AU0@ABU0@@Z
_TEXT	SEGMENT
___$ReturnUdt$ = 8					; size = 4
_v$ = 12						; size = 4
??GD3DXVECTOR3@@QBE?AU0@ABU0@@Z PROC			; D3DXVECTOR3::operator-, COMDAT
; _this$ = ecx

; 386  : {

  00000	55		 push	 ebp
  00001	8b ec		 mov	 ebp, esp

; 387  :     return D3DXVECTOR3(x - v.x, y - v.y, z - v.z);

  00003	8b 55 0c	 mov	 edx, DWORD PTR _v$[ebp]
  00006	f3 0f 10 01	 movss	 xmm0, DWORD PTR [ecx]
  0000a	f3 0f 10 0a	 movss	 xmm1, DWORD PTR [edx]
  0000e	8b 45 08	 mov	 eax, DWORD PTR ___$ReturnUdt$[ebp]
  00011	0f 5a c0	 cvtps2pd xmm0, xmm0
  00014	0f 5a c9	 cvtps2pd xmm1, xmm1
  00017	f2 0f 5c c1	 subsd	 xmm0, xmm1
  0001b	f3 0f 10 4a 04	 movss	 xmm1, DWORD PTR [edx+4]
  00020	66 0f 5a c0	 cvtpd2ps xmm0, xmm0
  00024	f3 0f 11 00	 movss	 DWORD PTR [eax], xmm0
  00028	f3 0f 10 41 04	 movss	 xmm0, DWORD PTR [ecx+4]
  0002d	0f 5a c0	 cvtps2pd xmm0, xmm0
  00030	0f 5a c9	 cvtps2pd xmm1, xmm1
  00033	f2 0f 5c c1	 subsd	 xmm0, xmm1
  00037	f3 0f 10 4a 08	 movss	 xmm1, DWORD PTR [edx+8]
  0003c	66 0f 5a c0	 cvtpd2ps xmm0, xmm0
  00040	f3 0f 11 40 04	 movss	 DWORD PTR [eax+4], xmm0
  00045	f3 0f 10 41 08	 movss	 xmm0, DWORD PTR [ecx+8]
  0004a	0f 5a c0	 cvtps2pd xmm0, xmm0
  0004d	0f 5a c9	 cvtps2pd xmm1, xmm1
  00050	f2 0f 5c c1	 subsd	 xmm0, xmm1
  00054	66 0f 5a c0	 cvtpd2ps xmm0, xmm0
  00058	f3 0f 11 40 08	 movss	 DWORD PTR [eax+8], xmm0

; 388  : }

  0005d	5d		 pop	 ebp
  0005e	c2 08 00	 ret	 8
??GD3DXVECTOR3@@QBE?AU0@ABU0@@Z ENDP			; D3DXVECTOR3::operator-
_TEXT	ENDS
PUBLIC	??DD3DXVECTOR3@@QBE?AU0@M@Z			; D3DXVECTOR3::operator*
; Function compile flags: /Ogsp
;	COMDAT ??DD3DXVECTOR3@@QBE?AU0@M@Z
_TEXT	SEGMENT
___$ReturnUdt$ = 8					; size = 4
_f$ = 12						; size = 4
??DD3DXVECTOR3@@QBE?AU0@M@Z PROC			; D3DXVECTOR3::operator*, COMDAT
; _this$ = ecx

; 392  : {

  00000	55		 push	 ebp
  00001	8b ec		 mov	 ebp, esp

; 393  :     return D3DXVECTOR3(x * f, y * f, z * f);

  00003	f3 0f 10 4d 0c	 movss	 xmm1, DWORD PTR _f$[ebp]
  00008	f3 0f 10 01	 movss	 xmm0, DWORD PTR [ecx]
  0000c	8b 45 08	 mov	 eax, DWORD PTR ___$ReturnUdt$[ebp]
  0000f	0f 5a c0	 cvtps2pd xmm0, xmm0
  00012	0f 5a c9	 cvtps2pd xmm1, xmm1
  00015	f2 0f 59 c1	 mulsd	 xmm0, xmm1
  00019	f3 0f 10 4d 0c	 movss	 xmm1, DWORD PTR _f$[ebp]
  0001e	66 0f 5a c0	 cvtpd2ps xmm0, xmm0
  00022	f3 0f 11 00	 movss	 DWORD PTR [eax], xmm0
  00026	f3 0f 10 41 04	 movss	 xmm0, DWORD PTR [ecx+4]
  0002b	0f 5a c0	 cvtps2pd xmm0, xmm0
  0002e	0f 5a c9	 cvtps2pd xmm1, xmm1
  00031	f2 0f 59 c1	 mulsd	 xmm0, xmm1
  00035	f3 0f 10 4d 0c	 movss	 xmm1, DWORD PTR _f$[ebp]
  0003a	66 0f 5a c0	 cvtpd2ps xmm0, xmm0
  0003e	f3 0f 11 40 04	 movss	 DWORD PTR [eax+4], xmm0
  00043	f3 0f 10 41 08	 movss	 xmm0, DWORD PTR [ecx+8]
  00048	0f 5a c0	 cvtps2pd xmm0, xmm0
  0004b	0f 5a c9	 cvtps2pd xmm1, xmm1
  0004e	f2 0f 59 c1	 mulsd	 xmm0, xmm1
  00052	66 0f 5a c0	 cvtpd2ps xmm0, xmm0
  00056	f3 0f 11 40 08	 movss	 DWORD PTR [eax+8], xmm0

; 394  : }

  0005b	5d		 pop	 ebp
  0005c	c2 08 00	 ret	 8
??DD3DXVECTOR3@@QBE?AU0@M@Z ENDP			; D3DXVECTOR3::operator*
_TEXT	ENDS
PUBLIC	??9D3DXVECTOR3@@QBEHABU0@@Z			; D3DXVECTOR3::operator!=
; Function compile flags: /Ogsp
;	COMDAT ??9D3DXVECTOR3@@QBEHABU0@@Z
_TEXT	SEGMENT
_v$ = 8							; size = 4
??9D3DXVECTOR3@@QBEHABU0@@Z PROC			; D3DXVECTOR3::operator!=, COMDAT
; _this$ = ecx

; 419  : {

  00000	55		 push	 ebp
  00001	8b ec		 mov	 ebp, esp

; 420  :     return x != v.x || y != v.y || z != v.z;

  00003	8b 55 08	 mov	 edx, DWORD PTR _v$[ebp]
  00006	f3 0f 10 01	 movss	 xmm0, DWORD PTR [ecx]
  0000a	f3 0f 10 0a	 movss	 xmm1, DWORD PTR [edx]
  0000e	0f 5a c0	 cvtps2pd xmm0, xmm0
  00011	0f 5a c9	 cvtps2pd xmm1, xmm1
  00014	66 0f 2e c1	 ucomisd xmm0, xmm1
  00018	9f		 lahf
  00019	f6 c4 44	 test	 ah, 68			; 00000044H
  0001c	7a 38		 jp	 SHORT $LN3@operator
  0001e	f3 0f 10 41 04	 movss	 xmm0, DWORD PTR [ecx+4]
  00023	f3 0f 10 4a 04	 movss	 xmm1, DWORD PTR [edx+4]
  00028	0f 5a c0	 cvtps2pd xmm0, xmm0
  0002b	0f 5a c9	 cvtps2pd xmm1, xmm1
  0002e	66 0f 2e c1	 ucomisd xmm0, xmm1
  00032	9f		 lahf
  00033	f6 c4 44	 test	 ah, 68			; 00000044H
  00036	7a 1e		 jp	 SHORT $LN3@operator
  00038	f3 0f 10 41 08	 movss	 xmm0, DWORD PTR [ecx+8]
  0003d	f3 0f 10 4a 08	 movss	 xmm1, DWORD PTR [edx+8]
  00042	0f 5a c0	 cvtps2pd xmm0, xmm0
  00045	0f 5a c9	 cvtps2pd xmm1, xmm1
  00048	66 0f 2e c1	 ucomisd xmm0, xmm1
  0004c	9f		 lahf
  0004d	f6 c4 44	 test	 ah, 68			; 00000044H
  00050	7a 04		 jp	 SHORT $LN3@operator
  00052	33 c0		 xor	 eax, eax
  00054	eb 03		 jmp	 SHORT $LN4@operator
$LN3@operator:
  00056	33 c0		 xor	 eax, eax
  00058	40		 inc	 eax
$LN4@operator:

; 421  : }

  00059	5d		 pop	 ebp
  0005a	c2 04 00	 ret	 4
??9D3DXVECTOR3@@QBEHABU0@@Z ENDP			; D3DXVECTOR3::operator!=
_TEXT	ENDS
PUBLIC	?D3DXVec3LengthSq@@YAMPBUD3DXVECTOR3@@@Z	; D3DXVec3LengthSq
; Function compile flags: /Ogsp
;	COMDAT ?D3DXVec3LengthSq@@YAMPBUD3DXVECTOR3@@@Z
_TEXT	SEGMENT
tv165 = 8						; size = 4
_pV$ = 8						; size = 4
?D3DXVec3LengthSq@@YAMPBUD3DXVECTOR3@@@Z PROC		; D3DXVec3LengthSq, COMDAT

; 1725 : {

  00000	55		 push	 ebp
  00001	8b ec		 mov	 ebp, esp

; 1726 : #ifdef D3DX_DEBUG
; 1727 :     if(!pV)
; 1728 :         return 0.0f;
; 1729 : #endif
; 1730 : 
; 1731 :     return pV->x * pV->x + pV->y * pV->y + pV->z * pV->z;

  00003	8b 45 08	 mov	 eax, DWORD PTR _pV$[ebp]
  00006	d9 40 04	 fld	 DWORD PTR [eax+4]
  00009	d9 00		 fld	 DWORD PTR [eax]
  0000b	d9 40 08	 fld	 DWORD PTR [eax+8]
  0000e	d9 c1		 fld	 ST(1)
  00010	de ca		 fmulp	 ST(2), ST(0)
  00012	d9 c2		 fld	 ST(2)
  00014	de cb		 fmulp	 ST(3), ST(0)
  00016	d9 c9		 fxch	 ST(1)
  00018	de c2		 faddp	 ST(2), ST(0)
  0001a	d9 c0		 fld	 ST(0)
  0001c	de c9		 fmulp	 ST(1), ST(0)
  0001e	de c1		 faddp	 ST(1), ST(0)
  00020	d9 5d 08	 fstp	 DWORD PTR tv165[ebp]
  00023	d9 45 08	 fld	 DWORD PTR tv165[ebp]

; 1732 : }

  00026	5d		 pop	 ebp
  00027	c3		 ret	 0
?D3DXVec3LengthSq@@YAMPBUD3DXVECTOR3@@@Z ENDP		; D3DXVec3LengthSq
_TEXT	ENDS
PUBLIC	?D3DXVec3Dot@@YAMPBUD3DXVECTOR3@@0@Z		; D3DXVec3Dot
; Function compile flags: /Ogsp
;	COMDAT ?D3DXVec3Dot@@YAMPBUD3DXVECTOR3@@0@Z
_TEXT	SEGMENT
tv188 = 8						; size = 4
_pV1$ = 8						; size = 4
_pV2$ = 12						; size = 4
?D3DXVec3Dot@@YAMPBUD3DXVECTOR3@@0@Z PROC		; D3DXVec3Dot, COMDAT

; 1736 : {

  00000	55		 push	 ebp
  00001	8b ec		 mov	 ebp, esp

; 1737 : #ifdef D3DX_DEBUG
; 1738 :     if(!pV1 || !pV2)
; 1739 :         return 0.0f;
; 1740 : #endif
; 1741 : 
; 1742 :     return pV1->x * pV2->x + pV1->y * pV2->y + pV1->z * pV2->z;

  00003	8b 45 08	 mov	 eax, DWORD PTR _pV1$[ebp]
  00006	8b 4d 0c	 mov	 ecx, DWORD PTR _pV2$[ebp]
  00009	d9 40 04	 fld	 DWORD PTR [eax+4]
  0000c	d8 49 04	 fmul	 DWORD PTR [ecx+4]
  0000f	d9 00		 fld	 DWORD PTR [eax]
  00011	d8 09		 fmul	 DWORD PTR [ecx]
  00013	de c1		 faddp	 ST(1), ST(0)
  00015	d9 40 08	 fld	 DWORD PTR [eax+8]
  00018	d8 49 08	 fmul	 DWORD PTR [ecx+8]
  0001b	de c1		 faddp	 ST(1), ST(0)
  0001d	d9 5d 08	 fstp	 DWORD PTR tv188[ebp]
  00020	d9 45 08	 fld	 DWORD PTR tv188[ebp]

; 1743 : }

  00023	5d		 pop	 ebp
  00024	c3		 ret	 0
?D3DXVec3Dot@@YAMPBUD3DXVECTOR3@@0@Z ENDP		; D3DXVec3Dot
_TEXT	ENDS
PUBLIC	?D3DXVec3Cross@@YAPAUD3DXVECTOR3@@PAU1@PBU1@1@Z	; D3DXVec3Cross
; Function compile flags: /Ogsp
;	COMDAT ?D3DXVec3Cross@@YAPAUD3DXVECTOR3@@PAU1@PBU1@1@Z
_TEXT	SEGMENT
_v$ = -12						; size = 12
_pOut$ = 8						; size = 4
_pV1$ = 12						; size = 4
_pV2$ = 16						; size = 4
?D3DXVec3Cross@@YAPAUD3DXVECTOR3@@PAU1@PBU1@1@Z PROC	; D3DXVec3Cross, COMDAT

; 1747 : {

  00000	55		 push	 ebp
  00001	8b ec		 mov	 ebp, esp
  00003	83 ec 0c	 sub	 esp, 12			; 0000000cH

; 1757 :     v.z = pV1->x * pV2->y - pV1->y * pV2->x;
; 1758 : 
; 1759 :     *pOut = v;

  00006	56		 push	 esi
  00007	57		 push	 edi

; 1748 :     D3DXVECTOR3 v;
; 1749 : 
; 1750 : #ifdef D3DX_DEBUG
; 1751 :     if(!pOut || !pV1 || !pV2)
; 1752 :         return NULL;
; 1753 : #endif
; 1754 : 
; 1755 :     v.x = pV1->y * pV2->z - pV1->z * pV2->y;

  00008	8b 45 0c	 mov	 eax, DWORD PTR _pV1$[ebp]
  0000b	f3 0f 10 40 04	 movss	 xmm0, DWORD PTR [eax+4]
  00010	f3 0f 10 50 08	 movss	 xmm2, DWORD PTR [eax+8]
  00015	8b 4d 10	 mov	 ecx, DWORD PTR _pV2$[ebp]
  00018	f3 0f 10 49 08	 movss	 xmm1, DWORD PTR [ecx+8]
  0001d	f3 0f 10 59 04	 movss	 xmm3, DWORD PTR [ecx+4]
  00022	0f 5a e8	 cvtps2pd xmm5, xmm0
  00025	0f 5a e1	 cvtps2pd xmm4, xmm1
  00028	0f 5a f2	 cvtps2pd xmm6, xmm2
  0002b	f2 0f 59 e5	 mulsd	 xmm4, xmm5

; 1756 :     v.y = pV1->z * pV2->x - pV1->x * pV2->z;

  0002f	0f 5a d2	 cvtps2pd xmm2, xmm2
  00032	0f 5a c9	 cvtps2pd xmm1, xmm1
  00035	0f 5a eb	 cvtps2pd xmm5, xmm3
  00038	f2 0f 59 ee	 mulsd	 xmm5, xmm6
  0003c	f2 0f 5c e5	 subsd	 xmm4, xmm5
  00040	f3 0f 10 28	 movss	 xmm5, DWORD PTR [eax]

; 1757 :     v.z = pV1->x * pV2->y - pV1->y * pV2->x;
; 1758 : 
; 1759 :     *pOut = v;

  00044	8b 45 08	 mov	 eax, DWORD PTR _pOut$[ebp]
  00047	66 0f 5a e4	 cvtpd2ps xmm4, xmm4
  0004b	f3 0f 11 65 f4	 movss	 DWORD PTR _v$[ebp], xmm4
  00050	f3 0f 10 21	 movss	 xmm4, DWORD PTR [ecx]
  00054	0f 5a f4	 cvtps2pd xmm6, xmm4
  00057	f2 0f 59 f2	 mulsd	 xmm6, xmm2
  0005b	0f 5a d5	 cvtps2pd xmm2, xmm5
  0005e	f2 0f 59 d1	 mulsd	 xmm2, xmm1
  00062	f2 0f 5c f2	 subsd	 xmm6, xmm2
  00066	66 0f 5a ce	 cvtpd2ps xmm1, xmm6
  0006a	f3 0f 11 4d f8	 movss	 DWORD PTR _v$[ebp+4], xmm1
  0006f	0f 5a c0	 cvtps2pd xmm0, xmm0
  00072	0f 5a d3	 cvtps2pd xmm2, xmm3
  00075	0f 5a cd	 cvtps2pd xmm1, xmm5
  00078	f2 0f 59 ca	 mulsd	 xmm1, xmm2
  0007c	8d 75 f4	 lea	 esi, DWORD PTR _v$[ebp]
  0007f	8b f8		 mov	 edi, eax
  00081	0f 5a d4	 cvtps2pd xmm2, xmm4
  00084	f2 0f 59 d0	 mulsd	 xmm2, xmm0
  00088	f2 0f 5c ca	 subsd	 xmm1, xmm2
  0008c	66 0f 5a c1	 cvtpd2ps xmm0, xmm1
  00090	f3 0f 11 45 fc	 movss	 DWORD PTR _v$[ebp+8], xmm0
  00095	a5		 movsd
  00096	a5		 movsd
  00097	a5		 movsd
  00098	5f		 pop	 edi
  00099	5e		 pop	 esi

; 1760 :     return pOut;
; 1761 : }

  0009a	c9		 leave
  0009b	c3		 ret	 0
?D3DXVec3Cross@@YAPAUD3DXVECTOR3@@PAU1@PBU1@1@Z ENDP	; D3DXVec3Cross
_TEXT	ENDS
PUBLIC	?_DECSTR@@YAXPADH@Z				; _DECSTR
; Function compile flags: /Ogsp
; File d:\lost saga for developer\youtube\tutorial\source\src\lsclient\stringprotect.h
;	COMDAT ?_DECSTR@@YAXPADH@Z
_TEXT	SEGMENT
_s$ = 8							; size = 4
_l$ = 12						; size = 4
?_DECSTR@@YAXPADH@Z PROC				; _DECSTR, COMDAT

; 40   : __forceinline void _DECSTR(char* s, int l){int i=0,l4=(l-1)/4,*p=(int*)s;s[l-1]=0;for(;i<l4;++i)*(p++)^=0xEAEBECED;for(i=l4*4;i<l-1;++i)s[i]^=0xED-i%4;}

  00000	55		 push	 ebp
  00001	8b ec		 mov	 ebp, esp
  00003	8b 4d 0c	 mov	 ecx, DWORD PTR _l$[ebp]
  00006	56		 push	 esi
  00007	8b 75 08	 mov	 esi, DWORD PTR _s$[ebp]
  0000a	57		 push	 edi
  0000b	8d 79 ff	 lea	 edi, DWORD PTR [ecx-1]
  0000e	8b c7		 mov	 eax, edi
  00010	99		 cdq
  00011	83 e2 03	 and	 edx, 3
  00014	03 c2		 add	 eax, edx
  00016	c1 f8 02	 sar	 eax, 2
  00019	8b d6		 mov	 edx, esi
  0001b	c6 44 0e ff 00	 mov	 BYTE PTR [esi+ecx-1], 0
  00020	85 c0		 test	 eax, eax
  00022	7e 0e		 jle	 SHORT $LN4@DECSTR
  00024	8b c8		 mov	 ecx, eax
$LL6@DECSTR:
  00026	81 32 ed ec eb
	ea		 xor	 DWORD PTR [edx], -353637139 ; eaebecedH
  0002c	83 c2 04	 add	 edx, 4
  0002f	49		 dec	 ecx
  00030	75 f4		 jne	 SHORT $LL6@DECSTR
$LN4@DECSTR:
  00032	c1 e0 02	 shl	 eax, 2
  00035	eb 17		 jmp	 SHORT $LN14@DECSTR
$LL3@DECSTR:
  00037	8b c8		 mov	 ecx, eax
  00039	81 e1 03 00 00
	80		 and	 ecx, -2147483645	; 80000003H
  0003f	79 05		 jns	 SHORT $LN13@DECSTR
  00041	49		 dec	 ecx
  00042	83 c9 fc	 or	 ecx, -4			; fffffffcH
  00045	41		 inc	 ecx
$LN13@DECSTR:
  00046	b2 ed		 mov	 dl, -19			; ffffffedH
  00048	2a d1		 sub	 dl, cl
  0004a	30 14 30	 xor	 BYTE PTR [eax+esi], dl
  0004d	40		 inc	 eax
$LN14@DECSTR:
  0004e	3b c7		 cmp	 eax, edi
  00050	7c e5		 jl	 SHORT $LL3@DECSTR
  00052	5f		 pop	 edi
  00053	5e		 pop	 esi
  00054	5d		 pop	 ebp
  00055	c3		 ret	 0
?_DECSTR@@YAXPADH@Z ENDP				; _DECSTR
_TEXT	ENDS
PUBLIC	?return57@@YAIXZ				; return57
; Function compile flags: /Ogsp
; File d:\lost saga for developer\youtube\tutorial\source\src\lsclient\veryoftenusedefine.h
;	COMDAT ?return57@@YAIXZ
_TEXT	SEGMENT
?return57@@YAIXZ PROC					; return57, COMDAT

; 15   : __forceinline unsigned int return57() { __asm mov eax, 57 };

  00000	b8 39 00 00 00	 mov	 eax, 57			; 00000039H
  00005	c3		 ret	 0
?return57@@YAIXZ ENDP					; return57
_TEXT	ENDS
PUBLIC	?GetGroup@ioGameEntity@@QBEPAVioEntityGroup@@XZ	; ioGameEntity::GetGroup
; Function compile flags: /Ogsp
; File d:\lost saga for developer\youtube\tutorial\source\src\lsclient\iogameentity.h
;	COMDAT ?GetGroup@ioGameEntity@@QBEPAVioEntityGroup@@XZ
_TEXT	SEGMENT
?GetGroup@ioGameEntity@@QBEPAVioEntityGroup@@XZ PROC	; ioGameEntity::GetGroup, COMDAT
; _this$ = ecx

; 166  : 	inline ioEntityGroup* GetGroup() const { return m_pGroup; }

  00000	8b 41 04	 mov	 eax, DWORD PTR [ecx+4]
  00003	c3		 ret	 0
?GetGroup@ioGameEntity@@QBEPAVioEntityGroup@@XZ ENDP	; ioGameEntity::GetGroup
_TEXT	ENDS
PUBLIC	??_R0?AVioGameEntity@@@8			; ioGameEntity `RTTI Type Descriptor'
PUBLIC	??_R0?AVioPlayEntity@@@8			; ioPlayEntity `RTTI Type Descriptor'
PUBLIC	?ToPlayEntity@@YAPAVioPlayEntity@@PAVioGameEntity@@@Z ; ToPlayEntity
EXTRN	___RTDynamicCast:PROC
EXTRN	??_7type_info@@6B@:QWORD			; type_info::`vftable'
;	COMDAT ??_R0?AVioGameEntity@@@8
; File d:\lost saga for developer\youtube\tutorial\source\src\lsclient\ioplayentity.h
_DATA	SEGMENT
??_R0?AVioGameEntity@@@8 DD FLAT:??_7type_info@@6B@	; ioGameEntity `RTTI Type Descriptor'
	DD	00H
	DB	'.?AVioGameEntity@@', 00H
_DATA	ENDS
;	COMDAT ??_R0?AVioPlayEntity@@@8
_DATA	SEGMENT
??_R0?AVioPlayEntity@@@8 DD FLAT:??_7type_info@@6B@	; ioPlayEntity `RTTI Type Descriptor'
	DD	00H
	DB	'.?AVioPlayEntity@@', 00H
; Function compile flags: /Ogsp
_DATA	ENDS
;	COMDAT ?ToPlayEntity@@YAPAVioPlayEntity@@PAVioGameEntity@@@Z
_TEXT	SEGMENT
_pObj$ = 8						; size = 4
?ToPlayEntity@@YAPAVioPlayEntity@@PAVioGameEntity@@@Z PROC ; ToPlayEntity, COMDAT

; 121  : {

  00000	55		 push	 ebp
  00001	8b ec		 mov	 ebp, esp
  00003	56		 push	 esi

; 122  : 	if( !pObj || pObj->GetTypeID() != ioGameEntity::GET_PLAY_ENTITY )

  00004	8b 75 08	 mov	 esi, DWORD PTR _pObj$[ebp]
  00007	85 f6		 test	 esi, esi
  00009	74 25		 je	 SHORT $LN1@ToPlayEnti
  0000b	8b 06		 mov	 eax, DWORD PTR [esi]
  0000d	8b ce		 mov	 ecx, esi
  0000f	ff 50 10	 call	 DWORD PTR [eax+16]
  00012	83 f8 01	 cmp	 eax, 1
  00015	75 19		 jne	 SHORT $LN1@ToPlayEnti

; 124  : 
; 125  : 	return dynamic_cast< ioPlayEntity* >( pObj );

  00017	6a 00		 push	 0
  00019	68 00 00 00 00	 push	 OFFSET ??_R0?AVioPlayEntity@@@8
  0001e	68 00 00 00 00	 push	 OFFSET ??_R0?AVioGameEntity@@@8
  00023	6a 00		 push	 0
  00025	56		 push	 esi
  00026	e8 00 00 00 00	 call	 ___RTDynamicCast
  0002b	83 c4 14	 add	 esp, 20			; 00000014H
  0002e	eb 02		 jmp	 SHORT $LN3@ToPlayEnti
$LN1@ToPlayEnti:

; 123  : 		return NULL;

  00030	33 c0		 xor	 eax, eax
$LN3@ToPlayEnti:
  00032	5e		 pop	 esi

; 126  : }

  00033	5d		 pop	 ebp
  00034	c3		 ret	 0
?ToPlayEntity@@YAPAVioPlayEntity@@PAVioGameEntity@@@Z ENDP ; ToPlayEntity
_TEXT	ENDS
PUBLIC	?IsLive@ioWeapon@@QBE_NXZ			; ioWeapon::IsLive
; Function compile flags: /Ogsp
; File d:\lost saga for developer\youtube\tutorial\source\src\lsclient\ioweapon.h
;	COMDAT ?IsLive@ioWeapon@@QBE_NXZ
_TEXT	SEGMENT
?IsLive@ioWeapon@@QBE_NXZ PROC				; ioWeapon::IsLive, COMDAT
; _this$ = ecx

; 533  : 	inline bool IsLive() const { return m_bLive; }

  00000	8a 81 82 05 00
	00		 mov	 al, BYTE PTR [ecx+1410]
  00006	c3		 ret	 0
?IsLive@ioWeapon@@QBE_NXZ ENDP				; ioWeapon::IsLive
_TEXT	ENDS
PUBLIC	?GetOwnerName@ioWeapon@@QBEABVioHashString@@XZ	; ioWeapon::GetOwnerName
; Function compile flags: /Ogsp
;	COMDAT ?GetOwnerName@ioWeapon@@QBEABVioHashString@@XZ
_TEXT	SEGMENT
?GetOwnerName@ioWeapon@@QBEABVioHashString@@XZ PROC	; ioWeapon::GetOwnerName, COMDAT
; _this$ = ecx

; 636  : 	inline const ioHashString& GetOwnerName() const { return m_OwnerName; }

  00000	8d 41 10	 lea	 eax, DWORD PTR [ecx+16]
  00003	c3		 ret	 0
?GetOwnerName@ioWeapon@@QBEABVioHashString@@XZ ENDP	; ioWeapon::GetOwnerName
_TEXT	ENDS
PUBLIC	?GetParentSceneNode@ioWeapon@@QBEPAVioSceneNode@@XZ ; ioWeapon::GetParentSceneNode
; Function compile flags: /Ogsp
;	COMDAT ?GetParentSceneNode@ioWeapon@@QBEPAVioSceneNode@@XZ
_TEXT	SEGMENT
?GetParentSceneNode@ioWeapon@@QBEPAVioSceneNode@@XZ PROC ; ioWeapon::GetParentSceneNode, COMDAT
; _this$ = ecx

; 797  : 	ioSceneNode* GetParentSceneNode() const { return m_pSceneNode; }

  00000	8b 41 04	 mov	 eax, DWORD PTR [ecx+4]
  00003	c3		 ret	 0
?GetParentSceneNode@ioWeapon@@QBEPAVioSceneNode@@XZ ENDP ; ioWeapon::GetParentSceneNode
_TEXT	ENDS
PUBLIC	??_7?$CEncrypt@M@@6B@				; CEncrypt<float>::`vftable'
PUBLIC	??1?$CEncrypt@M@@UAE@XZ				; CEncrypt<float>::~CEncrypt<float>
PUBLIC	??_R4?$CEncrypt@M@@6B@				; CEncrypt<float>::`RTTI Complete Object Locator'
PUBLIC	??_R0?AV?$CEncrypt@M@@@8			; CEncrypt<float> `RTTI Type Descriptor'
PUBLIC	??_R3?$CEncrypt@M@@8				; CEncrypt<float>::`RTTI Class Hierarchy Descriptor'
PUBLIC	??_R2?$CEncrypt@M@@8				; CEncrypt<float>::`RTTI Base Class Array'
PUBLIC	??_R1A@?0A@EA@?$CEncrypt@M@@8			; CEncrypt<float>::`RTTI Base Class Descriptor at (0,-1,0,64)'
EXTRN	??1ccddaabb@@UAE@XZ:PROC			; ccddaabb::~ccddaabb
EXTRN	??_E?$CEncrypt@M@@UAEPAXI@Z:PROC		; CEncrypt<float>::`vector deleting destructor'
;	COMDAT ??_R1A@?0A@EA@?$CEncrypt@M@@8
; File d:\lost saga for developer\youtube\tutorial\source\src\lsclient\encryptvalue.h
rdata$r	SEGMENT
??_R1A@?0A@EA@?$CEncrypt@M@@8 DD FLAT:??_R0?AV?$CEncrypt@M@@@8 ; CEncrypt<float>::`RTTI Base Class Descriptor at (0,-1,0,64)'
	DD	00H
	DD	00H
	DD	0ffffffffH
	DD	00H
	DD	040H
	DD	FLAT:??_R3?$CEncrypt@M@@8
rdata$r	ENDS
;	COMDAT ??_R2?$CEncrypt@M@@8
rdata$r	SEGMENT
??_R2?$CEncrypt@M@@8 DD FLAT:??_R1A@?0A@EA@?$CEncrypt@M@@8 ; CEncrypt<float>::`RTTI Base Class Array'
rdata$r	ENDS
;	COMDAT ??_R3?$CEncrypt@M@@8
rdata$r	SEGMENT
??_R3?$CEncrypt@M@@8 DD 00H				; CEncrypt<float>::`RTTI Class Hierarchy Descriptor'
	DD	00H
	DD	01H
	DD	FLAT:??_R2?$CEncrypt@M@@8
rdata$r	ENDS
;	COMDAT ??_R0?AV?$CEncrypt@M@@@8
_DATA	SEGMENT
??_R0?AV?$CEncrypt@M@@@8 DD FLAT:??_7type_info@@6B@	; CEncrypt<float> `RTTI Type Descriptor'
	DD	00H
	DB	'.?AV?$CEncrypt@M@@', 00H
_DATA	ENDS
;	COMDAT ??_R4?$CEncrypt@M@@6B@
rdata$r	SEGMENT
??_R4?$CEncrypt@M@@6B@ DD 00H				; CEncrypt<float>::`RTTI Complete Object Locator'
	DD	00H
	DD	00H
	DD	FLAT:??_R0?AV?$CEncrypt@M@@@8
	DD	FLAT:??_R3?$CEncrypt@M@@8
rdata$r	ENDS
;	COMDAT ??_7?$CEncrypt@M@@6B@
CONST	SEGMENT
??_7?$CEncrypt@M@@6B@ DD FLAT:??_R4?$CEncrypt@M@@6B@	; CEncrypt<float>::`vftable'
	DD	FLAT:??_E?$CEncrypt@M@@UAEPAXI@Z
; Function compile flags: /Ogsp
CONST	ENDS
;	COMDAT ??1?$CEncrypt@M@@UAE@XZ
_TEXT	SEGMENT
??1?$CEncrypt@M@@UAE@XZ PROC				; CEncrypt<float>::~CEncrypt<float>, COMDAT
; _this$ = ecx

; 127  : 	{

  00000	c7 01 00 00 00
	00		 mov	 DWORD PTR [ecx], OFFSET ??_7?$CEncrypt@M@@6B@

; 128  : 	}

  00006	83 c1 0c	 add	 ecx, 12			; 0000000cH
  00009	e9 00 00 00 00	 jmp	 ??1ccddaabb@@UAE@XZ	; ccddaabb::~ccddaabb
??1?$CEncrypt@M@@UAE@XZ ENDP				; CEncrypt<float>::~CEncrypt<float>
_TEXT	ENDS
PUBLIC	??_7?$CEncrypt@K@@6B@				; CEncrypt<unsigned long>::`vftable'
PUBLIC	??1?$CEncrypt@K@@UAE@XZ				; CEncrypt<unsigned long>::~CEncrypt<unsigned long>
PUBLIC	??_R4?$CEncrypt@K@@6B@				; CEncrypt<unsigned long>::`RTTI Complete Object Locator'
PUBLIC	??_R0?AV?$CEncrypt@K@@@8			; CEncrypt<unsigned long> `RTTI Type Descriptor'
PUBLIC	??_R3?$CEncrypt@K@@8				; CEncrypt<unsigned long>::`RTTI Class Hierarchy Descriptor'
PUBLIC	??_R2?$CEncrypt@K@@8				; CEncrypt<unsigned long>::`RTTI Base Class Array'
PUBLIC	??_R1A@?0A@EA@?$CEncrypt@K@@8			; CEncrypt<unsigned long>::`RTTI Base Class Descriptor at (0,-1,0,64)'
EXTRN	??_E?$CEncrypt@K@@UAEPAXI@Z:PROC		; CEncrypt<unsigned long>::`vector deleting destructor'
;	COMDAT ??_R1A@?0A@EA@?$CEncrypt@K@@8
rdata$r	SEGMENT
??_R1A@?0A@EA@?$CEncrypt@K@@8 DD FLAT:??_R0?AV?$CEncrypt@K@@@8 ; CEncrypt<unsigned long>::`RTTI Base Class Descriptor at (0,-1,0,64)'
	DD	00H
	DD	00H
	DD	0ffffffffH
	DD	00H
	DD	040H
	DD	FLAT:??_R3?$CEncrypt@K@@8
rdata$r	ENDS
;	COMDAT ??_R2?$CEncrypt@K@@8
rdata$r	SEGMENT
??_R2?$CEncrypt@K@@8 DD FLAT:??_R1A@?0A@EA@?$CEncrypt@K@@8 ; CEncrypt<unsigned long>::`RTTI Base Class Array'
rdata$r	ENDS
;	COMDAT ??_R3?$CEncrypt@K@@8
rdata$r	SEGMENT
??_R3?$CEncrypt@K@@8 DD 00H				; CEncrypt<unsigned long>::`RTTI Class Hierarchy Descriptor'
	DD	00H
	DD	01H
	DD	FLAT:??_R2?$CEncrypt@K@@8
rdata$r	ENDS
;	COMDAT ??_R0?AV?$CEncrypt@K@@@8
_DATA	SEGMENT
??_R0?AV?$CEncrypt@K@@@8 DD FLAT:??_7type_info@@6B@	; CEncrypt<unsigned long> `RTTI Type Descriptor'
	DD	00H
	DB	'.?AV?$CEncrypt@K@@', 00H
_DATA	ENDS
;	COMDAT ??_R4?$CEncrypt@K@@6B@
rdata$r	SEGMENT
??_R4?$CEncrypt@K@@6B@ DD 00H				; CEncrypt<unsigned long>::`RTTI Complete Object Locator'
	DD	00H
	DD	00H
	DD	FLAT:??_R0?AV?$CEncrypt@K@@@8
	DD	FLAT:??_R3?$CEncrypt@K@@8
rdata$r	ENDS
;	COMDAT ??_7?$CEncrypt@K@@6B@
CONST	SEGMENT
??_7?$CEncrypt@K@@6B@ DD FLAT:??_R4?$CEncrypt@K@@6B@	; CEncrypt<unsigned long>::`vftable'
	DD	FLAT:??_E?$CEncrypt@K@@UAEPAXI@Z
; Function compile flags: /Ogsp
CONST	ENDS
;	COMDAT ??1?$CEncrypt@K@@UAE@XZ
_TEXT	SEGMENT
??1?$CEncrypt@K@@UAE@XZ PROC				; CEncrypt<unsigned long>::~CEncrypt<unsigned long>, COMDAT
; _this$ = ecx

; 127  : 	{

  00000	c7 01 00 00 00
	00		 mov	 DWORD PTR [ecx], OFFSET ??_7?$CEncrypt@K@@6B@

; 128  : 	}

  00006	83 c1 0c	 add	 ecx, 12			; 0000000cH
  00009	e9 00 00 00 00	 jmp	 ??1ccddaabb@@UAE@XZ	; ccddaabb::~ccddaabb
??1?$CEncrypt@K@@UAE@XZ ENDP				; CEncrypt<unsigned long>::~CEncrypt<unsigned long>
_TEXT	ENDS
PUBLIC	??_7?$CEncrypt@_N@@6B@				; CEncrypt<bool>::`vftable'
PUBLIC	??1?$CEncrypt@_N@@UAE@XZ			; CEncrypt<bool>::~CEncrypt<bool>
PUBLIC	??_R4?$CEncrypt@_N@@6B@				; CEncrypt<bool>::`RTTI Complete Object Locator'
PUBLIC	??_R0?AV?$CEncrypt@_N@@@8			; CEncrypt<bool> `RTTI Type Descriptor'
PUBLIC	??_R3?$CEncrypt@_N@@8				; CEncrypt<bool>::`RTTI Class Hierarchy Descriptor'
PUBLIC	??_R2?$CEncrypt@_N@@8				; CEncrypt<bool>::`RTTI Base Class Array'
PUBLIC	??_R1A@?0A@EA@?$CEncrypt@_N@@8			; CEncrypt<bool>::`RTTI Base Class Descriptor at (0,-1,0,64)'
EXTRN	??_E?$CEncrypt@_N@@UAEPAXI@Z:PROC		; CEncrypt<bool>::`vector deleting destructor'
;	COMDAT ??_R1A@?0A@EA@?$CEncrypt@_N@@8
rdata$r	SEGMENT
??_R1A@?0A@EA@?$CEncrypt@_N@@8 DD FLAT:??_R0?AV?$CEncrypt@_N@@@8 ; CEncrypt<bool>::`RTTI Base Class Descriptor at (0,-1,0,64)'
	DD	00H
	DD	00H
	DD	0ffffffffH
	DD	00H
	DD	040H
	DD	FLAT:??_R3?$CEncrypt@_N@@8
rdata$r	ENDS
;	COMDAT ??_R2?$CEncrypt@_N@@8
rdata$r	SEGMENT
??_R2?$CEncrypt@_N@@8 DD FLAT:??_R1A@?0A@EA@?$CEncrypt@_N@@8 ; CEncrypt<bool>::`RTTI Base Class Array'
rdata$r	ENDS
;	COMDAT ??_R3?$CEncrypt@_N@@8
rdata$r	SEGMENT
??_R3?$CEncrypt@_N@@8 DD 00H				; CEncrypt<bool>::`RTTI Class Hierarchy Descriptor'
	DD	00H
	DD	01H
	DD	FLAT:??_R2?$CEncrypt@_N@@8
rdata$r	ENDS
;	COMDAT ??_R0?AV?$CEncrypt@_N@@@8
_DATA	SEGMENT
??_R0?AV?$CEncrypt@_N@@@8 DD FLAT:??_7type_info@@6B@	; CEncrypt<bool> `RTTI Type Descriptor'
	DD	00H
	DB	'.?AV?$CEncrypt@_N@@', 00H
_DATA	ENDS
;	COMDAT ??_R4?$CEncrypt@_N@@6B@
rdata$r	SEGMENT
??_R4?$CEncrypt@_N@@6B@ DD 00H				; CEncrypt<bool>::`RTTI Complete Object Locator'
	DD	00H
	DD	00H
	DD	FLAT:??_R0?AV?$CEncrypt@_N@@@8
	DD	FLAT:??_R3?$CEncrypt@_N@@8
rdata$r	ENDS
;	COMDAT ??_7?$CEncrypt@_N@@6B@
CONST	SEGMENT
??_7?$CEncrypt@_N@@6B@ DD FLAT:??_R4?$CEncrypt@_N@@6B@	; CEncrypt<bool>::`vftable'
	DD	FLAT:??_E?$CEncrypt@_N@@UAEPAXI@Z
; Function compile flags: /Ogsp
CONST	ENDS
;	COMDAT ??1?$CEncrypt@_N@@UAE@XZ
_TEXT	SEGMENT
??1?$CEncrypt@_N@@UAE@XZ PROC				; CEncrypt<bool>::~CEncrypt<bool>, COMDAT
; _this$ = ecx

; 127  : 	{

  00000	c7 01 00 00 00
	00		 mov	 DWORD PTR [ecx], OFFSET ??_7?$CEncrypt@_N@@6B@

; 128  : 	}

  00006	83 c1 0c	 add	 ecx, 12			; 0000000cH
  00009	e9 00 00 00 00	 jmp	 ??1ccddaabb@@UAE@XZ	; ccddaabb::~ccddaabb
??1?$CEncrypt@_N@@UAE@XZ ENDP				; CEncrypt<bool>::~CEncrypt<bool>
_TEXT	ENDS
EXTRN	??3@YAXPAX@Z:PROC				; operator delete
; Function compile flags: /Ogsp
;	COMDAT ??_G?$CEncrypt@M@@UAEPAXI@Z
_TEXT	SEGMENT
___flags$ = 8						; size = 4
??_G?$CEncrypt@M@@UAEPAXI@Z PROC			; CEncrypt<float>::`scalar deleting destructor', COMDAT
; _this$ = ecx
  00000	55		 push	 ebp
  00001	8b ec		 mov	 ebp, esp
  00003	56		 push	 esi
  00004	8b f1		 mov	 esi, ecx
  00006	8d 4e 0c	 lea	 ecx, DWORD PTR [esi+12]
  00009	c7 06 00 00 00
	00		 mov	 DWORD PTR [esi], OFFSET ??_7?$CEncrypt@M@@6B@
  0000f	e8 00 00 00 00	 call	 ??1ccddaabb@@UAE@XZ	; ccddaabb::~ccddaabb
  00014	f6 45 08 01	 test	 BYTE PTR ___flags$[ebp], 1
  00018	74 07		 je	 SHORT $LN1@scalar
  0001a	56		 push	 esi
  0001b	e8 00 00 00 00	 call	 ??3@YAXPAX@Z		; operator delete
  00020	59		 pop	 ecx
$LN1@scalar:
  00021	8b c6		 mov	 eax, esi
  00023	5e		 pop	 esi
  00024	5d		 pop	 ebp
  00025	c2 04 00	 ret	 4
??_G?$CEncrypt@M@@UAEPAXI@Z ENDP			; CEncrypt<float>::`scalar deleting destructor'
; Function compile flags: /Ogsp
_TEXT	ENDS
;	COMDAT ??_G?$CEncrypt@K@@UAEPAXI@Z
_TEXT	SEGMENT
___flags$ = 8						; size = 4
??_G?$CEncrypt@K@@UAEPAXI@Z PROC			; CEncrypt<unsigned long>::`scalar deleting destructor', COMDAT
; _this$ = ecx
  00000	55		 push	 ebp
  00001	8b ec		 mov	 ebp, esp
  00003	56		 push	 esi
  00004	8b f1		 mov	 esi, ecx
  00006	8d 4e 0c	 lea	 ecx, DWORD PTR [esi+12]
  00009	c7 06 00 00 00
	00		 mov	 DWORD PTR [esi], OFFSET ??_7?$CEncrypt@K@@6B@
  0000f	e8 00 00 00 00	 call	 ??1ccddaabb@@UAE@XZ	; ccddaabb::~ccddaabb
  00014	f6 45 08 01	 test	 BYTE PTR ___flags$[ebp], 1
  00018	74 07		 je	 SHORT $LN1@scalar@2
  0001a	56		 push	 esi
  0001b	e8 00 00 00 00	 call	 ??3@YAXPAX@Z		; operator delete
  00020	59		 pop	 ecx
$LN1@scalar@2:
  00021	8b c6		 mov	 eax, esi
  00023	5e		 pop	 esi
  00024	5d		 pop	 ebp
  00025	c2 04 00	 ret	 4
??_G?$CEncrypt@K@@UAEPAXI@Z ENDP			; CEncrypt<unsigned long>::`scalar deleting destructor'
; Function compile flags: /Ogsp
_TEXT	ENDS
;	COMDAT ??_G?$CEncrypt@_N@@UAEPAXI@Z
_TEXT	SEGMENT
___flags$ = 8						; size = 4
??_G?$CEncrypt@_N@@UAEPAXI@Z PROC			; CEncrypt<bool>::`scalar deleting destructor', COMDAT
; _this$ = ecx
  00000	55		 push	 ebp
  00001	8b ec		 mov	 ebp, esp
  00003	56		 push	 esi
  00004	8b f1		 mov	 esi, ecx
  00006	8d 4e 0c	 lea	 ecx, DWORD PTR [esi+12]
  00009	c7 06 00 00 00
	00		 mov	 DWORD PTR [esi], OFFSET ??_7?$CEncrypt@_N@@6B@
  0000f	e8 00 00 00 00	 call	 ??1ccddaabb@@UAE@XZ	; ccddaabb::~ccddaabb
  00014	f6 45 08 01	 test	 BYTE PTR ___flags$[ebp], 1
  00018	74 07		 je	 SHORT $LN1@scalar@3
  0001a	56		 push	 esi
  0001b	e8 00 00 00 00	 call	 ??3@YAXPAX@Z		; operator delete
  00020	59		 pop	 ecx
$LN1@scalar@3:
  00021	8b c6		 mov	 eax, esi
  00023	5e		 pop	 esi
  00024	5d		 pop	 ebp
  00025	c2 04 00	 ret	 4
??_G?$CEncrypt@_N@@UAEPAXI@Z ENDP			; CEncrypt<bool>::`scalar deleting destructor'
_TEXT	ENDS
PUBLIC	?_Myptr@?$basic_string@DU?$char_traits@D@std@@V?$allocator@D@2@@std@@QBEPBDXZ ; std::basic_string<char,std::char_traits<char>,std::allocator<char> >::_Myptr
; Function compile flags: /Ogsp
; File c:\program files (x86)\microsoft visual studio 10.0\vc\include\xstring
;	COMDAT ?_Myptr@?$basic_string@DU?$char_traits@D@std@@V?$allocator@D@2@@std@@QBEPBDXZ
_TEXT	SEGMENT
?_Myptr@?$basic_string@DU?$char_traits@D@std@@V?$allocator@D@2@@std@@QBEPBDXZ PROC ; std::basic_string<char,std::char_traits<char>,std::allocator<char> >::_Myptr, COMDAT
; _this$ = ecx

; 2010 : 		return (this->_BUF_SIZE <= this->_Myres ? this->_Bx._Ptr
; 2011 : 			: this->_Bx._Buf);

  00000	83 79 14 10	 cmp	 DWORD PTR [ecx+20], 16	; 00000010H
  00004	72 03		 jb	 SHORT $LN3@Myptr
  00006	8b 01		 mov	 eax, DWORD PTR [ecx]

; 2012 : 		}

  00008	c3		 ret	 0
$LN3@Myptr:

; 2010 : 		return (this->_BUF_SIZE <= this->_Myres ? this->_Bx._Ptr
; 2011 : 			: this->_Bx._Buf);

  00009	8b c1		 mov	 eax, ecx

; 2012 : 		}

  0000b	c3		 ret	 0
?_Myptr@?$basic_string@DU?$char_traits@D@std@@V?$allocator@D@2@@std@@QBEPBDXZ ENDP ; std::basic_string<char,std::char_traits<char>,std::allocator<char> >::_Myptr
_TEXT	ENDS
PUBLIC	??1?$_String_val@DV?$allocator@D@std@@@std@@QAE@XZ ; std::_String_val<char,std::allocator<char> >::~_String_val<char,std::allocator<char> >
; Function compile flags: /Ogsp
;	COMDAT ??1?$_String_val@DV?$allocator@D@std@@@std@@QAE@XZ
_TEXT	SEGMENT
??1?$_String_val@DV?$allocator@D@std@@@std@@QAE@XZ PROC	; std::_String_val<char,std::allocator<char> >::~_String_val<char,std::allocator<char> >, COMDAT
; _this$ = ecx

; 459  : 		}

  00000	c3		 ret	 0
??1?$_String_val@DV?$allocator@D@std@@@std@@QAE@XZ ENDP	; std::_String_val<char,std::allocator<char> >::~_String_val<char,std::allocator<char> >
_TEXT	ENDS
PUBLIC	?EncryptValueToPool@?$CEncrypt@M@@AAEXPBD@Z	; CEncrypt<float>::EncryptValueToPool
EXTRN	?EncryptByte@ccddaabb@@QAEXPBDPADH@Z:PROC	; ccddaabb::EncryptByte
; Function compile flags: /Ogsp
; File d:\lost saga for developer\youtube\tutorial\source\src\lsclient\encryptvalue.h
;	COMDAT ?EncryptValueToPool@?$CEncrypt@M@@AAEXPBD@Z
_TEXT	SEGMENT
_value$ = 8						; size = 4
?EncryptValueToPool@?$CEncrypt@M@@AAEXPBD@Z PROC	; CEncrypt<float>::EncryptValueToPool, COMDAT
; _this$ = ecx

; 67   : 	{

  00000	55		 push	 ebp
  00001	8b ec		 mov	 ebp, esp

; 68   : 		m_RC5.EncryptByte( value, m_MemPool, max(m_ValueSize, DEFAULT_ENCRYPT) );

  00003	0f b7 41 06	 movzx	 eax, WORD PTR [ecx+6]
  00007	83 f8 04	 cmp	 eax, 4
  0000a	77 03		 ja	 SHORT $LN4@EncryptVal
  0000c	6a 04		 push	 4
  0000e	58		 pop	 eax
$LN4@EncryptVal:
  0000f	50		 push	 eax
  00010	8d 41 1c	 lea	 eax, DWORD PTR [ecx+28]
  00013	50		 push	 eax
  00014	ff 75 08	 push	 DWORD PTR _value$[ebp]
  00017	83 c1 0c	 add	 ecx, 12			; 0000000cH
  0001a	e8 00 00 00 00	 call	 ?EncryptByte@ccddaabb@@QAEXPBDPADH@Z ; ccddaabb::EncryptByte

; 69   : 		
; 70   : 	}

  0001f	5d		 pop	 ebp
  00020	c2 04 00	 ret	 4
?EncryptValueToPool@?$CEncrypt@M@@AAEXPBD@Z ENDP	; CEncrypt<float>::EncryptValueToPool
_TEXT	ENDS
PUBLIC	?Init@?$CEncrypt@M@@AAEXXZ			; CEncrypt<float>::Init
EXTRN	?Setup@ccddaabb@@QAEXPBDHH@Z:PROC		; ccddaabb::Setup
EXTRN	__imp__rand:PROC
EXTRN	__imp__timeGetTime@0:PROC
EXTRN	__imp__GetCurrentProcessId@0:PROC
; Function compile flags: /Ogsp
;	COMDAT ?Init@?$CEncrypt@M@@AAEXXZ
_TEXT	SEGMENT
_pid$ = -8						; size = 4
_tick$ = -4						; size = 4
?Init@?$CEncrypt@M@@AAEXXZ PROC				; CEncrypt<float>::Init, COMDAT
; _this$ = ecx

; 73   : 	{

  00000	55		 push	 ebp
  00001	8b ec		 mov	 ebp, esp
  00003	51		 push	 ecx
  00004	51		 push	 ecx
  00005	53		 push	 ebx
  00006	56		 push	 esi
  00007	57		 push	 edi
  00008	8b f1		 mov	 esi, ecx

; 74   : 		DWORD pid = GetCurrentProcessId();

  0000a	ff 15 00 00 00
	00		 call	 DWORD PTR __imp__GetCurrentProcessId@0
  00010	89 45 f8	 mov	 DWORD PTR _pid$[ebp], eax

; 75   : 		DWORD tick = timeGetTime();

  00013	ff 15 00 00 00
	00		 call	 DWORD PTR __imp__timeGetTime@0

; 76   : 		m_ValueSize    = sizeof(type);
; 77   : 		m_MemPoolPos   = (unsigned short)( rand()+pid+tick )%(MAX_MEM_POOL-m_ValueSize);

  00019	8b 3d 00 00 00
	00		 mov	 edi, DWORD PTR __imp__rand
  0001f	89 45 fc	 mov	 DWORD PTR _tick$[ebp], eax
  00022	6a 04		 push	 4
  00024	58		 pop	 eax
  00025	66 89 46 06	 mov	 WORD PTR [esi+6], ax
  00029	ff d7		 call	 edi
  0002b	03 45 f8	 add	 eax, DWORD PTR _pid$[ebp]
  0002e	0f b7 4e 06	 movzx	 ecx, WORD PTR [esi+6]
  00032	03 45 fc	 add	 eax, DWORD PTR _tick$[ebp]
  00035	6a 0c		 push	 12			; 0000000cH
  00037	0f b7 c0	 movzx	 eax, ax
  0003a	5b		 pop	 ebx
  0003b	99		 cdq
  0003c	2b d9		 sub	 ebx, ecx
  0003e	f7 fb		 idiv	 ebx
  00040	66 89 56 04	 mov	 WORD PTR [esi+4], dx

; 78   : 		m_EncryptSeed  = (char)( rand()+pid+tick )%256;

  00044	ff d7		 call	 edi
  00046	02 45 f8	 add	 al, BYTE PTR _pid$[ebp]
  00049	02 45 fc	 add	 al, BYTE PTR _tick$[ebp]
  0004c	0f be c0	 movsx	 eax, al
  0004f	25 ff 00 00 80	 and	 eax, -2147483393	; 800000ffH
  00054	79 07		 jns	 SHORT $LN8@Init
  00056	48		 dec	 eax
  00057	0d 00 ff ff ff	 or	 eax, -256		; ffffff00H
  0005c	40		 inc	 eax
$LN8@Init:
  0005d	88 46 08	 mov	 BYTE PTR [esi+8], al

; 79   : 
; 80   : 		for (int i = 0; i < MAX_MEM_POOL ; i++)

  00060	33 db		 xor	 ebx, ebx
$LL3@Init:

; 81   : 			m_MemPool[i] = (char)( rand()+pid+tick )%256; // 

  00062	ff d7		 call	 edi
  00064	02 45 f8	 add	 al, BYTE PTR _pid$[ebp]
  00067	02 45 fc	 add	 al, BYTE PTR _tick$[ebp]
  0006a	0f be c0	 movsx	 eax, al
  0006d	25 ff 00 00 80	 and	 eax, -2147483393	; 800000ffH
  00072	79 07		 jns	 SHORT $LN9@Init
  00074	48		 dec	 eax
  00075	0d 00 ff ff ff	 or	 eax, -256		; ffffff00H
  0007a	40		 inc	 eax
$LN9@Init:
  0007b	88 44 1e 1c	 mov	 BYTE PTR [esi+ebx+28], al
  0007f	43		 inc	 ebx
  00080	83 fb 0c	 cmp	 ebx, 12			; 0000000cH
  00083	7c dd		 jl	 SHORT $LL3@Init

; 82   : 
; 83   : 		//UJ 130913, : szKey  
; 84   : 		//char szKey[ccddaabb::KEY_SIZE];//="";
; 85   : 		//for (int i = 0; i < ccddaabb::KEY_SIZE  ; i++)
; 86   : 		//	szKey[i] = (char)( rand()+pid+tick )%256; // 
; 87   : 		m_RC5.Setup( NULL, pid, tick );

  00085	ff 75 fc	 push	 DWORD PTR _tick$[ebp]
  00088	8d 4e 0c	 lea	 ecx, DWORD PTR [esi+12]
  0008b	ff 75 f8	 push	 DWORD PTR _pid$[ebp]
  0008e	6a 00		 push	 0
  00090	e8 00 00 00 00	 call	 ?Setup@ccddaabb@@QAEXPBDHH@Z ; ccddaabb::Setup
  00095	5f		 pop	 edi
  00096	5e		 pop	 esi
  00097	5b		 pop	 ebx

; 88   : 
; 89   : #ifdef _NOTUSE
; 90   : 		m_value        = 0;
; 91   : 		EncryptValueToPool((char*)&m_value);
; 92   : 		Debug();
; 93   : #endif
; 94   : 	}

  00098	c9		 leave
  00099	c3		 ret	 0
?Init@?$CEncrypt@M@@AAEXXZ ENDP				; CEncrypt<float>::Init
_TEXT	ENDS
PUBLIC	?DecryptValueToPool@?$CEncrypt@M@@QAEXPAM@Z	; CEncrypt<float>::DecryptValueToPool
EXTRN	?DecryptByte@ccddaabb@@QBEXPBDPADH@Z:PROC	; ccddaabb::DecryptByte
; Function compile flags: /Ogsp
;	COMDAT ?DecryptValueToPool@?$CEncrypt@M@@QAEXPAM@Z
_TEXT	SEGMENT
_value$ = 8						; size = 4
?DecryptValueToPool@?$CEncrypt@M@@QAEXPAM@Z PROC	; CEncrypt<float>::DecryptValueToPool, COMDAT
; _this$ = ecx

; 1648 : 	{

  00000	55		 push	 ebp
  00001	8b ec		 mov	 ebp, esp
  00003	56		 push	 esi

; 1649 : 		m_RC5.DecryptByte( m_MemPool, m_TempMem, 4 );

  00004	8d 71 28	 lea	 esi, DWORD PTR [ecx+40]
  00007	6a 04		 push	 4
  00009	8d 41 1c	 lea	 eax, DWORD PTR [ecx+28]
  0000c	56		 push	 esi
  0000d	50		 push	 eax
  0000e	83 c1 0c	 add	 ecx, 12			; 0000000cH
  00011	e8 00 00 00 00	 call	 ?DecryptByte@ccddaabb@@QBEXPBDPADH@Z ; ccddaabb::DecryptByte

; 1650 : 		*value = *((float*)m_TempMem);

  00016	d9 06		 fld	 DWORD PTR [esi]
  00018	8b 45 08	 mov	 eax, DWORD PTR _value$[ebp]
  0001b	d9 18		 fstp	 DWORD PTR [eax]
  0001d	5e		 pop	 esi

; 1651 : 	}

  0001e	5d		 pop	 ebp
  0001f	c2 04 00	 ret	 4
?DecryptValueToPool@?$CEncrypt@M@@QAEXPAM@Z ENDP	; CEncrypt<float>::DecryptValueToPool
_TEXT	ENDS
PUBLIC	?EncryptValueToPool@?$CEncrypt@K@@AAEXPBD@Z	; CEncrypt<unsigned long>::EncryptValueToPool
; Function compile flags: /Ogsp
;	COMDAT ?EncryptValueToPool@?$CEncrypt@K@@AAEXPBD@Z
_TEXT	SEGMENT
_value$ = 8						; size = 4
?EncryptValueToPool@?$CEncrypt@K@@AAEXPBD@Z PROC	; CEncrypt<unsigned long>::EncryptValueToPool, COMDAT
; _this$ = ecx

; 67   : 	{

  00000	55		 push	 ebp
  00001	8b ec		 mov	 ebp, esp

; 68   : 		m_RC5.EncryptByte( value, m_MemPool, max(m_ValueSize, DEFAULT_ENCRYPT) );

  00003	0f b7 41 06	 movzx	 eax, WORD PTR [ecx+6]
  00007	83 f8 04	 cmp	 eax, 4
  0000a	77 03		 ja	 SHORT $LN4@EncryptVal@2
  0000c	6a 04		 push	 4
  0000e	58		 pop	 eax
$LN4@EncryptVal@2:
  0000f	50		 push	 eax
  00010	8d 41 1c	 lea	 eax, DWORD PTR [ecx+28]
  00013	50		 push	 eax
  00014	ff 75 08	 push	 DWORD PTR _value$[ebp]
  00017	83 c1 0c	 add	 ecx, 12			; 0000000cH
  0001a	e8 00 00 00 00	 call	 ?EncryptByte@ccddaabb@@QAEXPBDPADH@Z ; ccddaabb::EncryptByte

; 69   : 		
; 70   : 	}

  0001f	5d		 pop	 ebp
  00020	c2 04 00	 ret	 4
?EncryptValueToPool@?$CEncrypt@K@@AAEXPBD@Z ENDP	; CEncrypt<unsigned long>::EncryptValueToPool
_TEXT	ENDS
PUBLIC	?Init@?$CEncrypt@K@@AAEXXZ			; CEncrypt<unsigned long>::Init
; Function compile flags: /Ogsp
;	COMDAT ?Init@?$CEncrypt@K@@AAEXXZ
_TEXT	SEGMENT
_pid$ = -8						; size = 4
_tick$ = -4						; size = 4
?Init@?$CEncrypt@K@@AAEXXZ PROC				; CEncrypt<unsigned long>::Init, COMDAT
; _this$ = ecx

; 73   : 	{

  00000	55		 push	 ebp
  00001	8b ec		 mov	 ebp, esp
  00003	51		 push	 ecx
  00004	51		 push	 ecx
  00005	53		 push	 ebx
  00006	56		 push	 esi
  00007	57		 push	 edi
  00008	8b f1		 mov	 esi, ecx

; 74   : 		DWORD pid = GetCurrentProcessId();

  0000a	ff 15 00 00 00
	00		 call	 DWORD PTR __imp__GetCurrentProcessId@0
  00010	89 45 f8	 mov	 DWORD PTR _pid$[ebp], eax

; 75   : 		DWORD tick = timeGetTime();

  00013	ff 15 00 00 00
	00		 call	 DWORD PTR __imp__timeGetTime@0

; 76   : 		m_ValueSize    = sizeof(type);
; 77   : 		m_MemPoolPos   = (unsigned short)( rand()+pid+tick )%(MAX_MEM_POOL-m_ValueSize);

  00019	8b 3d 00 00 00
	00		 mov	 edi, DWORD PTR __imp__rand
  0001f	89 45 fc	 mov	 DWORD PTR _tick$[ebp], eax
  00022	6a 04		 push	 4
  00024	58		 pop	 eax
  00025	66 89 46 06	 mov	 WORD PTR [esi+6], ax
  00029	ff d7		 call	 edi
  0002b	03 45 f8	 add	 eax, DWORD PTR _pid$[ebp]
  0002e	0f b7 4e 06	 movzx	 ecx, WORD PTR [esi+6]
  00032	03 45 fc	 add	 eax, DWORD PTR _tick$[ebp]
  00035	6a 0c		 push	 12			; 0000000cH
  00037	0f b7 c0	 movzx	 eax, ax
  0003a	5b		 pop	 ebx
  0003b	99		 cdq
  0003c	2b d9		 sub	 ebx, ecx
  0003e	f7 fb		 idiv	 ebx
  00040	66 89 56 04	 mov	 WORD PTR [esi+4], dx

; 78   : 		m_EncryptSeed  = (char)( rand()+pid+tick )%256;

  00044	ff d7		 call	 edi
  00046	02 45 f8	 add	 al, BYTE PTR _pid$[ebp]
  00049	02 45 fc	 add	 al, BYTE PTR _tick$[ebp]
  0004c	0f be c0	 movsx	 eax, al
  0004f	25 ff 00 00 80	 and	 eax, -2147483393	; 800000ffH
  00054	79 07		 jns	 SHORT $LN8@Init@2
  00056	48		 dec	 eax
  00057	0d 00 ff ff ff	 or	 eax, -256		; ffffff00H
  0005c	40		 inc	 eax
$LN8@Init@2:
  0005d	88 46 08	 mov	 BYTE PTR [esi+8], al

; 79   : 
; 80   : 		for (int i = 0; i < MAX_MEM_POOL ; i++)

  00060	33 db		 xor	 ebx, ebx
$LL3@Init@2:

; 81   : 			m_MemPool[i] = (char)( rand()+pid+tick )%256; // 

  00062	ff d7		 call	 edi
  00064	02 45 f8	 add	 al, BYTE PTR _pid$[ebp]
  00067	02 45 fc	 add	 al, BYTE PTR _tick$[ebp]
  0006a	0f be c0	 movsx	 eax, al
  0006d	25 ff 00 00 80	 and	 eax, -2147483393	; 800000ffH
  00072	79 07		 jns	 SHORT $LN9@Init@2
  00074	48		 dec	 eax
  00075	0d 00 ff ff ff	 or	 eax, -256		; ffffff00H
  0007a	40		 inc	 eax
$LN9@Init@2:
  0007b	88 44 1e 1c	 mov	 BYTE PTR [esi+ebx+28], al
  0007f	43		 inc	 ebx
  00080	83 fb 0c	 cmp	 ebx, 12			; 0000000cH
  00083	7c dd		 jl	 SHORT $LL3@Init@2

; 82   : 
; 83   : 		//UJ 130913, : szKey  
; 84   : 		//char szKey[ccddaabb::KEY_SIZE];//="";
; 85   : 		//for (int i = 0; i < ccddaabb::KEY_SIZE  ; i++)
; 86   : 		//	szKey[i] = (char)( rand()+pid+tick )%256; // 
; 87   : 		m_RC5.Setup( NULL, pid, tick );

  00085	ff 75 fc	 push	 DWORD PTR _tick$[ebp]
  00088	8d 4e 0c	 lea	 ecx, DWORD PTR [esi+12]
  0008b	ff 75 f8	 push	 DWORD PTR _pid$[ebp]
  0008e	6a 00		 push	 0
  00090	e8 00 00 00 00	 call	 ?Setup@ccddaabb@@QAEXPBDHH@Z ; ccddaabb::Setup
  00095	5f		 pop	 edi
  00096	5e		 pop	 esi
  00097	5b		 pop	 ebx

; 88   : 
; 89   : #ifdef _NOTUSE
; 90   : 		m_value        = 0;
; 91   : 		EncryptValueToPool((char*)&m_value);
; 92   : 		Debug();
; 93   : #endif
; 94   : 	}

  00098	c9		 leave
  00099	c3		 ret	 0
?Init@?$CEncrypt@K@@AAEXXZ ENDP				; CEncrypt<unsigned long>::Init
_TEXT	ENDS
PUBLIC	?DecryptValueToPool@?$CEncrypt@K@@QAEXPAK@Z	; CEncrypt<unsigned long>::DecryptValueToPool
; Function compile flags: /Ogsp
;	COMDAT ?DecryptValueToPool@?$CEncrypt@K@@QAEXPAK@Z
_TEXT	SEGMENT
_value$ = 8						; size = 4
?DecryptValueToPool@?$CEncrypt@K@@QAEXPAK@Z PROC	; CEncrypt<unsigned long>::DecryptValueToPool, COMDAT
; _this$ = ecx

; 1256 : 	{

  00000	55		 push	 ebp
  00001	8b ec		 mov	 ebp, esp
  00003	56		 push	 esi

; 1257 : 		m_RC5.DecryptByte( m_MemPool, m_TempMem, 4 );

  00004	8d 71 28	 lea	 esi, DWORD PTR [ecx+40]
  00007	6a 04		 push	 4
  00009	8d 41 1c	 lea	 eax, DWORD PTR [ecx+28]
  0000c	56		 push	 esi
  0000d	50		 push	 eax
  0000e	83 c1 0c	 add	 ecx, 12			; 0000000cH
  00011	e8 00 00 00 00	 call	 ?DecryptByte@ccddaabb@@QBEXPBDPADH@Z ; ccddaabb::DecryptByte

; 1258 : 		*value = *((DWORD*)m_TempMem);

  00016	8b 06		 mov	 eax, DWORD PTR [esi]
  00018	8b 4d 08	 mov	 ecx, DWORD PTR _value$[ebp]
  0001b	89 01		 mov	 DWORD PTR [ecx], eax
  0001d	5e		 pop	 esi

; 1259 : 	}

  0001e	5d		 pop	 ebp
  0001f	c2 04 00	 ret	 4
?DecryptValueToPool@?$CEncrypt@K@@QAEXPAK@Z ENDP	; CEncrypt<unsigned long>::DecryptValueToPool
_TEXT	ENDS
PUBLIC	?EncryptValueToPool@?$CEncrypt@_N@@AAEXPBD@Z	; CEncrypt<bool>::EncryptValueToPool
; Function compile flags: /Ogsp
;	COMDAT ?EncryptValueToPool@?$CEncrypt@_N@@AAEXPBD@Z
_TEXT	SEGMENT
_value$ = 8						; size = 4
?EncryptValueToPool@?$CEncrypt@_N@@AAEXPBD@Z PROC	; CEncrypt<bool>::EncryptValueToPool, COMDAT
; _this$ = ecx

; 67   : 	{

  00000	55		 push	 ebp
  00001	8b ec		 mov	 ebp, esp

; 68   : 		m_RC5.EncryptByte( value, m_MemPool, max(m_ValueSize, DEFAULT_ENCRYPT) );

  00003	0f b7 41 06	 movzx	 eax, WORD PTR [ecx+6]
  00007	83 f8 04	 cmp	 eax, 4
  0000a	77 03		 ja	 SHORT $LN4@EncryptVal@3
  0000c	6a 04		 push	 4
  0000e	58		 pop	 eax
$LN4@EncryptVal@3:
  0000f	50		 push	 eax
  00010	8d 41 1c	 lea	 eax, DWORD PTR [ecx+28]
  00013	50		 push	 eax
  00014	ff 75 08	 push	 DWORD PTR _value$[ebp]
  00017	83 c1 0c	 add	 ecx, 12			; 0000000cH
  0001a	e8 00 00 00 00	 call	 ?EncryptByte@ccddaabb@@QAEXPBDPADH@Z ; ccddaabb::EncryptByte

; 69   : 		
; 70   : 	}

  0001f	5d		 pop	 ebp
  00020	c2 04 00	 ret	 4
?EncryptValueToPool@?$CEncrypt@_N@@AAEXPBD@Z ENDP	; CEncrypt<bool>::EncryptValueToPool
_TEXT	ENDS
PUBLIC	?Init@?$CEncrypt@_N@@AAEXXZ			; CEncrypt<bool>::Init
; Function compile flags: /Ogsp
;	COMDAT ?Init@?$CEncrypt@_N@@AAEXXZ
_TEXT	SEGMENT
_pid$ = -8						; size = 4
_tick$ = -4						; size = 4
?Init@?$CEncrypt@_N@@AAEXXZ PROC			; CEncrypt<bool>::Init, COMDAT
; _this$ = ecx

; 73   : 	{

  00000	55		 push	 ebp
  00001	8b ec		 mov	 ebp, esp
  00003	51		 push	 ecx
  00004	51		 push	 ecx
  00005	53		 push	 ebx
  00006	56		 push	 esi
  00007	57		 push	 edi
  00008	8b f1		 mov	 esi, ecx

; 74   : 		DWORD pid = GetCurrentProcessId();

  0000a	ff 15 00 00 00
	00		 call	 DWORD PTR __imp__GetCurrentProcessId@0
  00010	89 45 f8	 mov	 DWORD PTR _pid$[ebp], eax

; 75   : 		DWORD tick = timeGetTime();

  00013	ff 15 00 00 00
	00		 call	 DWORD PTR __imp__timeGetTime@0

; 76   : 		m_ValueSize    = sizeof(type);
; 77   : 		m_MemPoolPos   = (unsigned short)( rand()+pid+tick )%(MAX_MEM_POOL-m_ValueSize);

  00019	8b 3d 00 00 00
	00		 mov	 edi, DWORD PTR __imp__rand
  0001f	89 45 fc	 mov	 DWORD PTR _tick$[ebp], eax
  00022	33 c0		 xor	 eax, eax
  00024	40		 inc	 eax
  00025	66 89 46 06	 mov	 WORD PTR [esi+6], ax
  00029	ff d7		 call	 edi
  0002b	03 45 f8	 add	 eax, DWORD PTR _pid$[ebp]
  0002e	0f b7 4e 06	 movzx	 ecx, WORD PTR [esi+6]
  00032	03 45 fc	 add	 eax, DWORD PTR _tick$[ebp]
  00035	6a 0c		 push	 12			; 0000000cH
  00037	0f b7 c0	 movzx	 eax, ax
  0003a	5b		 pop	 ebx
  0003b	99		 cdq
  0003c	2b d9		 sub	 ebx, ecx
  0003e	f7 fb		 idiv	 ebx
  00040	66 89 56 04	 mov	 WORD PTR [esi+4], dx

; 78   : 		m_EncryptSeed  = (char)( rand()+pid+tick )%256;

  00044	ff d7		 call	 edi
  00046	02 45 f8	 add	 al, BYTE PTR _pid$[ebp]
  00049	02 45 fc	 add	 al, BYTE PTR _tick$[ebp]
  0004c	0f be c0	 movsx	 eax, al
  0004f	25 ff 00 00 80	 and	 eax, -2147483393	; 800000ffH
  00054	79 07		 jns	 SHORT $LN8@Init@3
  00056	48		 dec	 eax
  00057	0d 00 ff ff ff	 or	 eax, -256		; ffffff00H
  0005c	40		 inc	 eax
$LN8@Init@3:
  0005d	88 46 08	 mov	 BYTE PTR [esi+8], al

; 79   : 
; 80   : 		for (int i = 0; i < MAX_MEM_POOL ; i++)

  00060	33 db		 xor	 ebx, ebx
$LL3@Init@3:

; 81   : 			m_MemPool[i] = (char)( rand()+pid+tick )%256; // 

  00062	ff d7		 call	 edi
  00064	02 45 f8	 add	 al, BYTE PTR _pid$[ebp]
  00067	02 45 fc	 add	 al, BYTE PTR _tick$[ebp]
  0006a	0f be c0	 movsx	 eax, al
  0006d	25 ff 00 00 80	 and	 eax, -2147483393	; 800000ffH
  00072	79 07		 jns	 SHORT $LN9@Init@3
  00074	48		 dec	 eax
  00075	0d 00 ff ff ff	 or	 eax, -256		; ffffff00H
  0007a	40		 inc	 eax
$LN9@Init@3:
  0007b	88 44 1e 1c	 mov	 BYTE PTR [esi+ebx+28], al
  0007f	43		 inc	 ebx
  00080	83 fb 0c	 cmp	 ebx, 12			; 0000000cH
  00083	7c dd		 jl	 SHORT $LL3@Init@3

; 82   : 
; 83   : 		//UJ 130913, : szKey  
; 84   : 		//char szKey[ccddaabb::KEY_SIZE];//="";
; 85   : 		//for (int i = 0; i < ccddaabb::KEY_SIZE  ; i++)
; 86   : 		//	szKey[i] = (char)( rand()+pid+tick )%256; // 
; 87   : 		m_RC5.Setup( NULL, pid, tick );

  00085	ff 75 fc	 push	 DWORD PTR _tick$[ebp]
  00088	8d 4e 0c	 lea	 ecx, DWORD PTR [esi+12]
  0008b	ff 75 f8	 push	 DWORD PTR _pid$[ebp]
  0008e	6a 00		 push	 0
  00090	e8 00 00 00 00	 call	 ?Setup@ccddaabb@@QAEXPBDHH@Z ; ccddaabb::Setup
  00095	5f		 pop	 edi
  00096	5e		 pop	 esi
  00097	5b		 pop	 ebx

; 88   : 
; 89   : #ifdef _NOTUSE
; 90   : 		m_value        = 0;
; 91   : 		EncryptValueToPool((char*)&m_value);
; 92   : 		Debug();
; 93   : #endif
; 94   : 	}

  00098	c9		 leave
  00099	c3		 ret	 0
?Init@?$CEncrypt@_N@@AAEXXZ ENDP			; CEncrypt<bool>::Init
_TEXT	ENDS
PUBLIC	?DecryptValueToPool@?$CEncrypt@_N@@QAEXPA_N@Z	; CEncrypt<bool>::DecryptValueToPool
; Function compile flags: /Ogsp
;	COMDAT ?DecryptValueToPool@?$CEncrypt@_N@@QAEXPA_N@Z
_TEXT	SEGMENT
_value$ = 8						; size = 4
?DecryptValueToPool@?$CEncrypt@_N@@QAEXPA_N@Z PROC	; CEncrypt<bool>::DecryptValueToPool, COMDAT
; _this$ = ecx

; 219  : 	{

  00000	55		 push	 ebp
  00001	8b ec		 mov	 ebp, esp
  00003	56		 push	 esi

; 220  : 		m_RC5.DecryptByte( m_MemPool, m_TempMem, 4 );

  00004	8d 71 28	 lea	 esi, DWORD PTR [ecx+40]
  00007	6a 04		 push	 4
  00009	8d 41 1c	 lea	 eax, DWORD PTR [ecx+28]
  0000c	56		 push	 esi
  0000d	50		 push	 eax
  0000e	83 c1 0c	 add	 ecx, 12			; 0000000cH
  00011	e8 00 00 00 00	 call	 ?DecryptByte@ccddaabb@@QBEXPBDPADH@Z ; ccddaabb::DecryptByte

; 221  : 		*value = *((bool*)m_TempMem);

  00016	8a 06		 mov	 al, BYTE PTR [esi]
  00018	8b 4d 08	 mov	 ecx, DWORD PTR _value$[ebp]
  0001b	88 01		 mov	 BYTE PTR [ecx], al
  0001d	5e		 pop	 esi

; 222  : 	}

  0001e	5d		 pop	 ebp
  0001f	c2 04 00	 ret	 4
?DecryptValueToPool@?$CEncrypt@_N@@QAEXPA_N@Z ENDP	; CEncrypt<bool>::DecryptValueToPool
_TEXT	ENDS
PUBLIC	?DecryptValueToPool@?$CEncrypt@W4TeamType@@@@QAEXPAW4TeamType@@@Z ; CEncrypt<enum TeamType>::DecryptValueToPool
; Function compile flags: /Ogsp
;	COMDAT ?DecryptValueToPool@?$CEncrypt@W4TeamType@@@@QAEXPAW4TeamType@@@Z
_TEXT	SEGMENT
_value$ = 8						; size = 4
?DecryptValueToPool@?$CEncrypt@W4TeamType@@@@QAEXPAW4TeamType@@@Z PROC ; CEncrypt<enum TeamType>::DecryptValueToPool, COMDAT
; _this$ = ecx

; 2959 : 	{

  00000	55		 push	 ebp
  00001	8b ec		 mov	 ebp, esp
  00003	56		 push	 esi

; 2960 : 		m_RC5.DecryptByte( m_MemPool, m_TempMem, sizeof(TeamType) );

  00004	8d 71 28	 lea	 esi, DWORD PTR [ecx+40]
  00007	6a 04		 push	 4
  00009	8d 41 1c	 lea	 eax, DWORD PTR [ecx+28]
  0000c	56		 push	 esi
  0000d	50		 push	 eax
  0000e	83 c1 0c	 add	 ecx, 12			; 0000000cH
  00011	e8 00 00 00 00	 call	 ?DecryptByte@ccddaabb@@QBEXPBDPADH@Z ; ccddaabb::DecryptByte

; 2961 : 		*value = *((TeamType*)m_TempMem);

  00016	8b 06		 mov	 eax, DWORD PTR [esi]
  00018	8b 4d 08	 mov	 ecx, DWORD PTR _value$[ebp]
  0001b	89 01		 mov	 DWORD PTR [ecx], eax
  0001d	5e		 pop	 esi

; 2962 : 	}

  0001e	5d		 pop	 ebp
  0001f	c2 04 00	 ret	 4
?DecryptValueToPool@?$CEncrypt@W4TeamType@@@@QAEXPAW4TeamType@@@Z ENDP ; CEncrypt<enum TeamType>::DecryptValueToPool
_TEXT	ENDS
PUBLIC	?_Myptr@?$basic_string@DU?$char_traits@D@std@@V?$allocator@D@2@@std@@QAEPADXZ ; std::basic_string<char,std::char_traits<char>,std::allocator<char> >::_Myptr
; Function compile flags: /Ogsp
; File c:\program files (x86)\microsoft visual studio 10.0\vc\include\xstring
;	COMDAT ?_Myptr@?$basic_string@DU?$char_traits@D@std@@V?$allocator@D@2@@std@@QAEPADXZ
_TEXT	SEGMENT
?_Myptr@?$basic_string@DU?$char_traits@D@std@@V?$allocator@D@2@@std@@QAEPADXZ PROC ; std::basic_string<char,std::char_traits<char>,std::allocator<char> >::_Myptr, COMDAT
; _this$ = ecx

; 2004 : 		return (this->_BUF_SIZE <= this->_Myres ? this->_Bx._Ptr
; 2005 : 			: this->_Bx._Buf);

  00000	83 79 14 10	 cmp	 DWORD PTR [ecx+20], 16	; 00000010H
  00004	72 03		 jb	 SHORT $LN3@Myptr@2
  00006	8b 01		 mov	 eax, DWORD PTR [ecx]

; 2006 : 		}

  00008	c3		 ret	 0
$LN3@Myptr@2:

; 2004 : 		return (this->_BUF_SIZE <= this->_Myres ? this->_Bx._Ptr
; 2005 : 			: this->_Bx._Buf);

  00009	8b c1		 mov	 eax, ecx

; 2006 : 		}

  0000b	c3		 ret	 0
?_Myptr@?$basic_string@DU?$char_traits@D@std@@V?$allocator@D@2@@std@@QAEPADXZ ENDP ; std::basic_string<char,std::char_traits<char>,std::allocator<char> >::_Myptr
_TEXT	ENDS
PUBLIC	?deallocate@?$allocator@D@std@@QAEXPADI@Z	; std::allocator<char>::deallocate
; Function compile flags: /Ogsp
; File c:\program files (x86)\microsoft visual studio 10.0\vc\include\xmemory
;	COMDAT ?deallocate@?$allocator@D@std@@QAEXPADI@Z
_TEXT	SEGMENT
__Ptr$ = 8						; size = 4
___formal$ = 12						; size = 4
?deallocate@?$allocator@D@std@@QAEXPADI@Z PROC		; std::allocator<char>::deallocate, COMDAT
; _this$ = ecx

; 181  : 		{	// deallocate object at _Ptr, ignore size

  00000	55		 push	 ebp
  00001	8b ec		 mov	 ebp, esp

; 182  : 		::operator delete(_Ptr);

  00003	ff 75 08	 push	 DWORD PTR __Ptr$[ebp]
  00006	e8 00 00 00 00	 call	 ??3@YAXPAX@Z		; operator delete
  0000b	59		 pop	 ecx

; 183  : 		}

  0000c	5d		 pop	 ebp
  0000d	c2 08 00	 ret	 8
?deallocate@?$allocator@D@std@@QAEXPADI@Z ENDP		; std::allocator<char>::deallocate
_TEXT	ENDS
PUBLIC	??_R0?AVioBaseChar@@@8				; ioBaseChar `RTTI Type Descriptor'
PUBLIC	?ToBaseChar@@YAPAVioBaseChar@@PAVioGameEntity@@@Z ; ToBaseChar
;	COMDAT ??_R0?AVioBaseChar@@@8
; File d:\lost saga for developer\youtube\tutorial\source\src\lsclient\iobasechar.h
_DATA	SEGMENT
??_R0?AVioBaseChar@@@8 DD FLAT:??_7type_info@@6B@	; ioBaseChar `RTTI Type Descriptor'
	DD	00H
	DB	'.?AVioBaseChar@@', 00H
; Function compile flags: /Ogsp
_DATA	ENDS
;	COMDAT ?ToBaseChar@@YAPAVioBaseChar@@PAVioGameEntity@@@Z
_TEXT	SEGMENT
_pObj$ = 8						; size = 4
?ToBaseChar@@YAPAVioBaseChar@@PAVioGameEntity@@@Z PROC	; ToBaseChar, COMDAT

; 4326 : {

  00000	55		 push	 ebp
  00001	8b ec		 mov	 ebp, esp
  00003	56		 push	 esi

; 4327 : 	ioPlayEntity *pPlay = ToPlayEntity( pObj );

  00004	ff 75 08	 push	 DWORD PTR _pObj$[ebp]
  00007	e8 00 00 00 00	 call	 ?ToPlayEntity@@YAPAVioPlayEntity@@PAVioGameEntity@@@Z ; ToPlayEntity
  0000c	8b f0		 mov	 esi, eax
  0000e	59		 pop	 ecx

; 4328 : 	if( !pPlay || pPlay->GetSubType() != ioPlayEntity::PST_CHAR )

  0000f	85 f6		 test	 esi, esi
  00011	74 25		 je	 SHORT $LN1@ToBaseChar
  00013	8b 06		 mov	 eax, DWORD PTR [esi]
  00015	8b ce		 mov	 ecx, esi
  00017	ff 90 a4 00 00
	00		 call	 DWORD PTR [eax+164]
  0001d	85 c0		 test	 eax, eax
  0001f	75 17		 jne	 SHORT $LN1@ToBaseChar

; 4330 : 
; 4331 : 	return dynamic_cast< ioBaseChar* >( pPlay );

  00021	50		 push	 eax
  00022	68 00 00 00 00	 push	 OFFSET ??_R0?AVioBaseChar@@@8
  00027	68 00 00 00 00	 push	 OFFSET ??_R0?AVioPlayEntity@@@8
  0002c	50		 push	 eax
  0002d	56		 push	 esi
  0002e	e8 00 00 00 00	 call	 ___RTDynamicCast
  00033	83 c4 14	 add	 esp, 20			; 00000014H
  00036	eb 02		 jmp	 SHORT $LN3@ToBaseChar
$LN1@ToBaseChar:

; 4329 : 		return NULL;

  00038	33 c0		 xor	 eax, eax
$LN3@ToBaseChar:
  0003a	5e		 pop	 esi

; 4332 : }

  0003b	5d		 pop	 ebp
  0003c	c3		 ret	 0
?ToBaseChar@@YAPAVioBaseChar@@PAVioGameEntity@@@Z ENDP	; ToBaseChar
_TEXT	ENDS
PUBLIC	??_C@_0DP@OHKMOOJ@ioControlMeshWeapon?3?3?$HOioControlM@ ; `string'
PUBLIC	??_7ioControlMeshWeapon@@6B@			; ioControlMeshWeapon::`vftable'
PUBLIC	??1ioControlMeshWeapon@@UAE@XZ			; ioControlMeshWeapon::~ioControlMeshWeapon
PUBLIC	??_R4ioControlMeshWeapon@@6B@			; ioControlMeshWeapon::`RTTI Complete Object Locator'
PUBLIC	??_R0?AVioControlMeshWeapon@@@8			; ioControlMeshWeapon `RTTI Type Descriptor'
PUBLIC	??_R3ioControlMeshWeapon@@8			; ioControlMeshWeapon::`RTTI Class Hierarchy Descriptor'
PUBLIC	??_R2ioControlMeshWeapon@@8			; ioControlMeshWeapon::`RTTI Base Class Array'
PUBLIC	??_R1A@?0A@EA@ioControlMeshWeapon@@8		; ioControlMeshWeapon::`RTTI Base Class Descriptor at (0,-1,0,64)'
PUBLIC	??_R1A@?0A@EA@ioWeapon@@8			; ioWeapon::`RTTI Base Class Descriptor at (0,-1,0,64)'
PUBLIC	??_R0?AVioWeapon@@@8				; ioWeapon `RTTI Type Descriptor'
PUBLIC	??_R3ioWeapon@@8				; ioWeapon::`RTTI Class Hierarchy Descriptor'
PUBLIC	??_R2ioWeapon@@8				; ioWeapon::`RTTI Base Class Array'
PUBLIC	?PlayWoundedSound@ioControlMeshWeapon@@UAEXPAVioPlayEntity@@@Z ; ioControlMeshWeapon::PlayWoundedSound
PUBLIC	?InitResource@ioControlMeshWeapon@@UAE_NXZ	; ioControlMeshWeapon::InitResource
PUBLIC	?LoadProperty@ioControlMeshWeapon@@UAEXAAVioINILoader@@@Z ; ioControlMeshWeapon::LoadProperty
PUBLIC	?SetMoveDir@ioControlMeshWeapon@@UAEXABUD3DXVECTOR3@@@Z ; ioControlMeshWeapon::SetMoveDir
PUBLIC	?Process@ioControlMeshWeapon@@UAEXMPAVioPlayStage@@@Z ; ioControlMeshWeapon::Process
PUBLIC	?IsCollision@ioControlMeshWeapon@@UAE_NPAVioPlayEntity@@_N@Z ; ioControlMeshWeapon::IsCollision
PUBLIC	?TestMapCollision@ioControlMeshWeapon@@UAE_NPAVioOpcodeShape@@PAVioPlayStage@@PBUD3DXMATRIX@@@Z ; ioControlMeshWeapon::TestMapCollision
PUBLIC	?ApplyWeaponSync@ioControlMeshWeapon@@UAEXAAVSP2Packet@@PAVioPlayStage@@@Z ; ioControlMeshWeapon::ApplyWeaponSync
PUBLIC	?UpdateWorldAttackBox@ioControlMeshWeapon@@MAEXM_N@Z ; ioControlMeshWeapon::UpdateWorldAttackBox
EXTRN	??1ioWeapon@@UAE@XZ:PROC			; ioWeapon::~ioWeapon
EXTRN	__imp_??1ioOrientBox@@QAE@XZ:PROC
EXTRN	__imp_?PrintTimeAndLog@CLog@@QAAXHPADZZ:PROC
EXTRN	__imp_?LOG@@3VCLog@@A:BYTE
EXTRN	?IsAlreadyCollisioned@ioWeapon@@UAE_NPAVioPlayEntity@@@Z:PROC ; ioWeapon::IsAlreadyCollisioned
EXTRN	?AddCollisionEntity@ioWeapon@@UAEXPAVioPlayEntity@@@Z:PROC ; ioWeapon::AddCollisionEntity
EXTRN	?SetOwnerDamageRate@ioWeapon@@UAEXM@Z:PROC	; ioWeapon::SetOwnerDamageRate
EXTRN	?SetOwnerChargeDamageRate@ioWeapon@@UAEXM@Z:PROC ; ioWeapon::SetOwnerChargeDamageRate
EXTRN	?SetOwnerChargeForceRate@ioWeapon@@UAEXM@Z:PROC	; ioWeapon::SetOwnerChargeForceRate
EXTRN	?SetOwnerChargeRangeRate@ioWeapon@@UAEXM@Z:PROC	; ioWeapon::SetOwnerChargeRangeRate
EXTRN	?SetOwnerChargeSpeedRate@ioWeapon@@UAEXM@Z:PROC	; ioWeapon::SetOwnerChargeSpeedRate
EXTRN	?SetOwnerChargeBlowRate@ioWeapon@@UAEXM@Z:PROC	; ioWeapon::SetOwnerChargeBlowRate
EXTRN	?SetOwnerChargeFloatRate@ioWeapon@@UAEXM@Z:PROC	; ioWeapon::SetOwnerChargeFloatRate
EXTRN	?SetOwnerChargeScaleRate@ioWeapon@@UAEXM@Z:PROC	; ioWeapon::SetOwnerChargeScaleRate
EXTRN	?SetOwnerChargeExplosionRate@ioWeapon@@UAEXM@Z:PROC ; ioWeapon::SetOwnerChargeExplosionRate
EXTRN	?SetOwnerChargeWoundedTimeRate@ioWeapon@@UAEXM@Z:PROC ; ioWeapon::SetOwnerChargeWoundedTimeRate
EXTRN	?SetOwnerChargeLiveTimeRate@ioWeapon@@UAEXM@Z:PROC ; ioWeapon::SetOwnerChargeLiveTimeRate
EXTRN	?SetOwnerChargeBuffLiveTimeRate@ioWeapon@@UAEXM@Z:PROC ; ioWeapon::SetOwnerChargeBuffLiveTimeRate
EXTRN	?SetWeaponIndex@ioWeapon@@UAEXK@Z:PROC		; ioWeapon::SetWeaponIndex
EXTRN	?SetGrapplingTargetName@ioWeapon@@UAEXABVioHashString@@@Z:PROC ; ioWeapon::SetGrapplingTargetName
EXTRN	?SetCreateItem@ioWeapon@@UAEXABVioHashString@@@Z:PROC ; ioWeapon::SetCreateItem
EXTRN	?SetTeam@ioWeapon@@UAEXPAVioPlayStage@@W4TeamType@@@Z:PROC ; ioWeapon::SetTeam
EXTRN	?CallReserveAreaWeapon@ioWeapon@@UAEXXZ:PROC	; ioWeapon::CallReserveAreaWeapon
EXTRN	?PlayExplosionSound@ioWeapon@@UAEXXZ:PROC	; ioWeapon::PlayExplosionSound
EXTRN	?PlayDefensedSound@ioWeapon@@UAEXPAVioPlayEntity@@@Z:PROC ; ioWeapon::PlayDefensedSound
EXTRN	?PlayLoopSound@ioWeapon@@UAEXXZ:PROC		; ioWeapon::PlayLoopSound
EXTRN	?StopLoopSound@ioWeapon@@UAEXXZ:PROC		; ioWeapon::StopLoopSound
EXTRN	?GetTargetAirBuffList@ioWeapon@@UBEABV?$vector@UBuffInfoStruct@@V?$allocator@UBuffInfoStruct@@@std@@@std@@XZ:PROC ; ioWeapon::GetTargetAirBuffList
EXTRN	?GetTargetBuffList@ioWeapon@@UBEABV?$vector@UBuffInfoStruct@@V?$allocator@UBuffInfoStruct@@@std@@@std@@XZ:PROC ; ioWeapon::GetTargetBuffList
EXTRN	?GetTargetDownBuffList@ioWeapon@@UBEABV?$vector@UBuffInfoStruct@@V?$allocator@UBuffInfoStruct@@@std@@@std@@XZ:PROC ; ioWeapon::GetTargetDownBuffList
EXTRN	?GetPosition@ioWeapon@@UBEABUD3DXVECTOR3@@XZ:PROC ; ioWeapon::GetPosition
EXTRN	?GetBlowType@ioWeapon@@UBE?AW4BlowTargetType@@XZ:PROC ; ioWeapon::GetBlowType
EXTRN	?GetPushPower@ioWeapon@@UBEMM@Z:PROC		; ioWeapon::GetPushPower
EXTRN	?GetBlowPower@ioWeapon@@UBEMM@Z:PROC		; ioWeapon::GetBlowPower
EXTRN	?GetAirPushPower@ioWeapon@@UBEMM@Z:PROC		; ioWeapon::GetAirPushPower
EXTRN	?GetAirBlowPower@ioWeapon@@UBEMM@Z:PROC		; ioWeapon::GetAirBlowPower
EXTRN	?GetDefensePushPower@ioWeapon@@UBEMM@Z:PROC	; ioWeapon::GetDefensePushPower
EXTRN	?GetCollisionEnableTime@ioWeapon@@UBEKXZ:PROC	; ioWeapon::GetCollisionEnableTime
EXTRN	?SetSylphid@ioWeapon@@UAEHXZ:PROC		; ioWeapon::SetSylphid
EXTRN	?ApplyExtraReserveWeaponByWeaponInfo@ioWeapon@@UAEXPAV1@@Z:PROC ; ioWeapon::ApplyExtraReserveWeaponByWeaponInfo
EXTRN	?SetResistanceAttr@ioWeapon@@UAEXH@Z:PROC	; ioWeapon::SetResistanceAttr
EXTRN	?SetStartCollisionBox@ioWeapon@@UAEXXZ:PROC	; ioWeapon::SetStartCollisionBox
EXTRN	?SetLiveTime@ioWeapon@@UAEXK@Z:PROC		; ioWeapon::SetLiveTime
EXTRN	?SetMoveSpeed@ioWeapon@@UAEXM@Z:PROC		; ioWeapon::SetMoveSpeed
EXTRN	?SetFloatPower@ioWeapon@@UAEXM@Z:PROC		; ioWeapon::SetFloatPower
EXTRN	?CheckPreCollision@ioWeapon@@UAEXPAVioPlayEntity@@PAVioPlayStage@@@Z:PROC ; ioWeapon::CheckPreCollision
EXTRN	?CheckStructAndDummy@ioWeapon@@UAEXPAVioPlayEntity@@PAVioPlayStage@@@Z:PROC ; ioWeapon::CheckStructAndDummy
EXTRN	?GetDamage@ioWeapon@@UAEMPAVioPlayEntity@@@Z:PROC ; ioWeapon::GetDamage
EXTRN	?GetBaseDamage@ioWeapon@@UAEMPAVioPlayEntity@@@Z:PROC ; ioWeapon::GetBaseDamage
EXTRN	?GetPushAngle@ioWeapon@@UBEMXZ:PROC		; ioWeapon::GetPushAngle
EXTRN	?IsResistanceMagic@ioWeapon@@UAEHPAVioBaseChar@@@Z:PROC ; ioWeapon::IsResistanceMagic
EXTRN	?IsResistanceBomb@ioWeapon@@UAEHPAVioBaseChar@@@Z:PROC ; ioWeapon::IsResistanceBomb
EXTRN	?IsCanMineExplosion@ioWeapon@@UAE_NXZ:PROC	; ioWeapon::IsCanMineExplosion
EXTRN	?CheckGrapplingState@ioWeapon@@UAE?AW4GrapplingType@@XZ:PROC ; ioWeapon::CheckGrapplingState
EXTRN	?CheckCurAttribute@ioWeapon@@UAEXPBVioPlayEntity@@@Z:PROC ; ioWeapon::CheckCurAttribute
EXTRN	?CheckItemNotDrop@ioWeapon@@UAE_NPAVioBaseChar@@@Z:PROC ; ioWeapon::CheckItemNotDrop
EXTRN	?GetWorldAttackBoxList@ioWeapon@@UAEXAAV?$vector@VioOrientBox@@V?$allocator@VioOrientBox@@@std@@@std@@@Z:PROC ; ioWeapon::GetWorldAttackBoxList
EXTRN	?GetAttackDir@ioWeapon@@UBE?AUD3DXVECTOR3@@PBVioPlayEntity@@@Z:PROC ; ioWeapon::GetAttackDir
EXTRN	?GetLiveTime@ioWeapon@@UAEKXZ:PROC		; ioWeapon::GetLiveTime
EXTRN	?CheckWeaponCollision@ioWeapon@@UAEXXZ:PROC	; ioWeapon::CheckWeaponCollision
EXTRN	?GetRefreshDuration@ioWeapon@@UAEKXZ:PROC	; ioWeapon::GetRefreshDuration
EXTRN	?GetIgnoreDuration@ioWeapon@@UAEKXZ:PROC	; ioWeapon::GetIgnoreDuration
EXTRN	?GetIgnoreTimeTypeDuration@ioWeapon@@UAEKXZ:PROC ; ioWeapon::GetIgnoreTimeTypeDuration
EXTRN	?GetIgnoreTimeType@ioWeapon@@UAEKXZ:PROC	; ioWeapon::GetIgnoreTimeType
EXTRN	?IsSkillDependency@ioWeapon@@UAE_NABVioHashString@@@Z:PROC ; ioWeapon::IsSkillDependency
EXTRN	?SetSkillDependencyAction@ioWeapon@@UAEXXZ:PROC	; ioWeapon::SetSkillDependencyAction
EXTRN	?GetAttribute@ioWeapon@@MBEPBUWeaponAttribute@@XZ:PROC ; ioWeapon::GetAttribute
EXTRN	?CalcFinalDamage@ioWeapon@@MAEMXZ:PROC		; ioWeapon::CalcFinalDamage
EXTRN	?CalcFinalBoundDamage@ioWeapon@@MAEMXZ:PROC	; ioWeapon::CalcFinalBoundDamage
EXTRN	?CheckPiercing@ioWeapon@@MAE_N_N@Z:PROC		; ioWeapon::CheckPiercing
EXTRN	?ClearCollisionList@ioWeapon@@MAEXXZ:PROC	; ioWeapon::ClearCollisionList
EXTRN	?CheckCreateWeaponList@ioWeapon@@MAEXXZ:PROC	; ioWeapon::CheckCreateWeaponList
EXTRN	?CreateCollisionAreaWeapon@ioWeapon@@MAEXXZ:PROC ; ioWeapon::CreateCollisionAreaWeapon
EXTRN	?SetMapCollision@ioWeapon@@UAEXXZ:PROC		; ioWeapon::SetMapCollision
EXTRN	?IsIgnoreMapCollision@ioWeapon@@UBE_NXZ:PROC	; ioWeapon::IsIgnoreMapCollision
EXTRN	?IsIgnoreTestMapCollision@ioWeapon@@UBE_NXZ:PROC ; ioWeapon::IsIgnoreTestMapCollision
EXTRN	?IsIgnoreMapCollisionEffect@ioWeapon@@UBE_NXZ:PROC ; ioWeapon::IsIgnoreMapCollisionEffect
EXTRN	?AddEffectEvent@ioWeapon@@MAEXPAVioEffect@@@Z:PROC ; ioWeapon::AddEffectEvent
EXTRN	??_EioControlMeshWeapon@@UAEPAXI@Z:PROC		; ioControlMeshWeapon::`vector deleting destructor'
;	COMDAT ??_R2ioWeapon@@8
; File d:\lost saga for developer\youtube\tutorial\source\src\lsclient\encryptvalue.h
rdata$r	SEGMENT
??_R2ioWeapon@@8 DD FLAT:??_R1A@?0A@EA@ioWeapon@@8	; ioWeapon::`RTTI Base Class Array'
rdata$r	ENDS
;	COMDAT ??_R3ioWeapon@@8
rdata$r	SEGMENT
??_R3ioWeapon@@8 DD 00H					; ioWeapon::`RTTI Class Hierarchy Descriptor'
	DD	00H
	DD	01H
	DD	FLAT:??_R2ioWeapon@@8
rdata$r	ENDS
;	COMDAT ??_R0?AVioWeapon@@@8
_DATA	SEGMENT
??_R0?AVioWeapon@@@8 DD FLAT:??_7type_info@@6B@		; ioWeapon `RTTI Type Descriptor'
	DD	00H
	DB	'.?AVioWeapon@@', 00H
_DATA	ENDS
;	COMDAT ??_R1A@?0A@EA@ioWeapon@@8
rdata$r	SEGMENT
??_R1A@?0A@EA@ioWeapon@@8 DD FLAT:??_R0?AVioWeapon@@@8	; ioWeapon::`RTTI Base Class Descriptor at (0,-1,0,64)'
	DD	00H
	DD	00H
	DD	0ffffffffH
	DD	00H
	DD	040H
	DD	FLAT:??_R3ioWeapon@@8
rdata$r	ENDS
;	COMDAT ??_R1A@?0A@EA@ioControlMeshWeapon@@8
rdata$r	SEGMENT
??_R1A@?0A@EA@ioControlMeshWeapon@@8 DD FLAT:??_R0?AVioControlMeshWeapon@@@8 ; ioControlMeshWeapon::`RTTI Base Class Descriptor at (0,-1,0,64)'
	DD	01H
	DD	00H
	DD	0ffffffffH
	DD	00H
	DD	040H
	DD	FLAT:??_R3ioControlMeshWeapon@@8
rdata$r	ENDS
;	COMDAT ??_R2ioControlMeshWeapon@@8
rdata$r	SEGMENT
??_R2ioControlMeshWeapon@@8 DD FLAT:??_R1A@?0A@EA@ioControlMeshWeapon@@8 ; ioControlMeshWeapon::`RTTI Base Class Array'
	DD	FLAT:??_R1A@?0A@EA@ioWeapon@@8
rdata$r	ENDS
;	COMDAT ??_R3ioControlMeshWeapon@@8
rdata$r	SEGMENT
??_R3ioControlMeshWeapon@@8 DD 00H			; ioControlMeshWeapon::`RTTI Class Hierarchy Descriptor'
	DD	00H
	DD	02H
	DD	FLAT:??_R2ioControlMeshWeapon@@8
rdata$r	ENDS
;	COMDAT ??_R0?AVioControlMeshWeapon@@@8
_DATA	SEGMENT
??_R0?AVioControlMeshWeapon@@@8 DD FLAT:??_7type_info@@6B@ ; ioControlMeshWeapon `RTTI Type Descriptor'
	DD	00H
	DB	'.?AVioControlMeshWeapon@@', 00H
_DATA	ENDS
;	COMDAT ??_R4ioControlMeshWeapon@@6B@
rdata$r	SEGMENT
??_R4ioControlMeshWeapon@@6B@ DD 00H			; ioControlMeshWeapon::`RTTI Complete Object Locator'
	DD	00H
	DD	00H
	DD	FLAT:??_R0?AVioControlMeshWeapon@@@8
	DD	FLAT:??_R3ioControlMeshWeapon@@8
rdata$r	ENDS
;	COMDAT ??_C@_0DP@OHKMOOJ@ioControlMeshWeapon?3?3?$HOioControlM@
CONST	SEGMENT
??_C@_0DP@OHKMOOJ@ioControlMeshWeapon?3?3?$HOioControlM@ DB 'ioControlMes'
	DB	'hWeapon::~ioControlMeshWeapon - UnReleased Resouce', 00H ; `string'
CONST	ENDS
;	COMDAT ??_7ioControlMeshWeapon@@6B@
CONST	SEGMENT
??_7ioControlMeshWeapon@@6B@ DD FLAT:??_R4ioControlMeshWeapon@@6B@ ; ioControlMeshWeapon::`vftable'
	DD	FLAT:?IsAlreadyCollisioned@ioWeapon@@UAE_NPAVioPlayEntity@@@Z
	DD	FLAT:?AddCollisionEntity@ioWeapon@@UAEXPAVioPlayEntity@@@Z
	DD	FLAT:?SetOwnerDamageRate@ioWeapon@@UAEXM@Z
	DD	FLAT:?SetOwnerChargeDamageRate@ioWeapon@@UAEXM@Z
	DD	FLAT:?SetOwnerChargeForceRate@ioWeapon@@UAEXM@Z
	DD	FLAT:?SetOwnerChargeRangeRate@ioWeapon@@UAEXM@Z
	DD	FLAT:?SetOwnerChargeSpeedRate@ioWeapon@@UAEXM@Z
	DD	FLAT:?SetOwnerChargeBlowRate@ioWeapon@@UAEXM@Z
	DD	FLAT:?SetOwnerChargeFloatRate@ioWeapon@@UAEXM@Z
	DD	FLAT:?SetOwnerChargeScaleRate@ioWeapon@@UAEXM@Z
	DD	FLAT:?SetOwnerChargeExplosionRate@ioWeapon@@UAEXM@Z
	DD	FLAT:?SetOwnerChargeWoundedTimeRate@ioWeapon@@UAEXM@Z
	DD	FLAT:?SetOwnerChargeLiveTimeRate@ioWeapon@@UAEXM@Z
	DD	FLAT:?SetOwnerChargeBuffLiveTimeRate@ioWeapon@@UAEXM@Z
	DD	FLAT:?SetWeaponIndex@ioWeapon@@UAEXK@Z
	DD	FLAT:?SetGrapplingTargetName@ioWeapon@@UAEXABVioHashString@@@Z
	DD	FLAT:?SetCreateItem@ioWeapon@@UAEXABVioHashString@@@Z
	DD	FLAT:?SetTeam@ioWeapon@@UAEXPAVioPlayStage@@W4TeamType@@@Z
	DD	FLAT:?CallReserveAreaWeapon@ioWeapon@@UAEXXZ
	DD	FLAT:?SetWeaponDead@ioControlMeshWeapon@@UAEXXZ
	DD	FLAT:?PlayExplosionSound@ioWeapon@@UAEXXZ
	DD	FLAT:?PlayWoundedSound@ioControlMeshWeapon@@UAEXPAVioPlayEntity@@@Z
	DD	FLAT:?PlayDefensedSound@ioWeapon@@UAEXPAVioPlayEntity@@@Z
	DD	FLAT:?PlayLoopSound@ioWeapon@@UAEXXZ
	DD	FLAT:?StopLoopSound@ioWeapon@@UAEXXZ
	DD	FLAT:?GetTargetAirBuffList@ioWeapon@@UBEABV?$vector@UBuffInfoStruct@@V?$allocator@UBuffInfoStruct@@@std@@@std@@XZ
	DD	FLAT:?GetTargetBuffList@ioWeapon@@UBEABV?$vector@UBuffInfoStruct@@V?$allocator@UBuffInfoStruct@@@std@@@std@@XZ
	DD	FLAT:?GetTargetDownBuffList@ioWeapon@@UBEABV?$vector@UBuffInfoStruct@@V?$allocator@UBuffInfoStruct@@@std@@@std@@XZ
	DD	FLAT:?GetPosition@ioWeapon@@UBEABUD3DXVECTOR3@@XZ
	DD	FLAT:?GetBlowType@ioWeapon@@UBE?AW4BlowTargetType@@XZ
	DD	FLAT:?GetPushPower@ioWeapon@@UBEMM@Z
	DD	FLAT:?GetBlowPower@ioWeapon@@UBEMM@Z
	DD	FLAT:?GetAirPushPower@ioWeapon@@UBEMM@Z
	DD	FLAT:?GetAirBlowPower@ioWeapon@@UBEMM@Z
	DD	FLAT:?GetDefensePushPower@ioWeapon@@UBEMM@Z
	DD	FLAT:?GetCollisionEnableTime@ioWeapon@@UBEKXZ
	DD	FLAT:?SetSylphid@ioWeapon@@UAEHXZ
	DD	FLAT:?ApplyExtraReserveWeaponByWeaponInfo@ioWeapon@@UAEXPAV1@@Z
	DD	FLAT:?InitResource@ioControlMeshWeapon@@UAE_NXZ
	DD	FLAT:?DestroyResource@ioControlMeshWeapon@@UAEXPAVioPlayStage@@@Z
	DD	FLAT:?LoadProperty@ioControlMeshWeapon@@UAEXAAVioINILoader@@@Z
	DD	FLAT:?SetResistanceAttr@ioWeapon@@UAEXH@Z
	DD	FLAT:?SetStartCollisionBox@ioWeapon@@UAEXXZ
	DD	FLAT:?SetLiveTime@ioWeapon@@UAEXK@Z
	DD	FLAT:?SetMoveDir@ioControlMeshWeapon@@UAEXABUD3DXVECTOR3@@@Z
	DD	FLAT:?SetMoveSpeed@ioWeapon@@UAEXM@Z
	DD	FLAT:?SetFloatPower@ioWeapon@@UAEXM@Z
	DD	FLAT:?SetStartPosition@ioControlMeshWeapon@@UAEXABUD3DXVECTOR3@@PAVioPlayStage@@@Z
	DD	FLAT:?Process@ioControlMeshWeapon@@UAEXMPAVioPlayStage@@@Z
	DD	FLAT:?IsCollision@ioControlMeshWeapon@@UAE_NPAVioPlayEntity@@_N@Z
	DD	FLAT:?TestMapCollision@ioControlMeshWeapon@@UAE_NPAVioOpcodeShape@@PAVioPlayStage@@PBUD3DXMATRIX@@@Z
	DD	FLAT:?CheckPreCollision@ioWeapon@@UAEXPAVioPlayEntity@@PAVioPlayStage@@@Z
	DD	FLAT:?CheckStructAndDummy@ioWeapon@@UAEXPAVioPlayEntity@@PAVioPlayStage@@@Z
	DD	FLAT:?GetDamage@ioWeapon@@UAEMPAVioPlayEntity@@@Z
	DD	FLAT:?GetBaseDamage@ioWeapon@@UAEMPAVioPlayEntity@@@Z
	DD	FLAT:?GetPushAngle@ioWeapon@@UBEMXZ
	DD	FLAT:?IsResistanceMagic@ioWeapon@@UAEHPAVioBaseChar@@@Z
	DD	FLAT:?IsResistanceBomb@ioWeapon@@UAEHPAVioBaseChar@@@Z
	DD	FLAT:?IsCanMineExplosion@ioWeapon@@UAE_NXZ
	DD	FLAT:?CheckGrapplingState@ioWeapon@@UAE?AW4GrapplingType@@XZ
	DD	FLAT:?CheckCurAttribute@ioWeapon@@UAEXPBVioPlayEntity@@@Z
	DD	FLAT:?CheckItemNotDrop@ioWeapon@@UAE_NPAVioBaseChar@@@Z
	DD	FLAT:?GetWorldAttackBoxList@ioWeapon@@UAEXAAV?$vector@VioOrientBox@@V?$allocator@VioOrientBox@@@std@@@std@@@Z
	DD	FLAT:?GetAttackDir@ioWeapon@@UBE?AUD3DXVECTOR3@@PBVioPlayEntity@@@Z
	DD	FLAT:?GetLocalAttackBox@ioControlMeshWeapon@@UBEABVioOrientBox@@XZ
	DD	FLAT:?GetLiveTime@ioWeapon@@UAEKXZ
	DD	FLAT:?GetMoveDir@ioControlMeshWeapon@@UAE?AUD3DXVECTOR3@@XZ
	DD	FLAT:?CheckWeaponCollision@ioWeapon@@UAEXXZ
	DD	FLAT:?GetType@ioControlMeshWeapon@@UBE?AW4WeaponType@ioWeapon@@XZ
	DD	FLAT:?GetActionStopType@ioControlMeshWeapon@@UBE?AW4ActionStopType@@XZ
	DD	FLAT:?GetDieActionStopType@ioControlMeshWeapon@@UBE?AW4ActionStopType@@XZ
	DD	FLAT:?GetRefreshDuration@ioWeapon@@UAEKXZ
	DD	FLAT:?GetIgnoreDuration@ioWeapon@@UAEKXZ
	DD	FLAT:?GetIgnoreTimeTypeDuration@ioWeapon@@UAEKXZ
	DD	FLAT:?GetIgnoreTimeType@ioWeapon@@UAEKXZ
	DD	FLAT:?ApplyWeaponSync@ioControlMeshWeapon@@UAEXAAVSP2Packet@@PAVioPlayStage@@@Z
	DD	FLAT:?IsSkillDependency@ioWeapon@@UAE_NABVioHashString@@@Z
	DD	FLAT:?SetSkillDependencyAction@ioWeapon@@UAEXXZ
	DD	FLAT:?UpdateWorldAttackBox@ioControlMeshWeapon@@MAEXM_N@Z
	DD	FLAT:?GetAttribute@ioWeapon@@MBEPBUWeaponAttribute@@XZ
	DD	FLAT:?CalcFinalDamage@ioWeapon@@MAEMXZ
	DD	FLAT:?CalcFinalBoundDamage@ioWeapon@@MAEMXZ
	DD	FLAT:?CheckPiercing@ioWeapon@@MAE_N_N@Z
	DD	FLAT:?ClearCollisionList@ioWeapon@@MAEXXZ
	DD	FLAT:?CheckCreateWeaponList@ioWeapon@@MAEXXZ
	DD	FLAT:?CreateCollisionAreaWeapon@ioWeapon@@MAEXXZ
	DD	FLAT:?SetMapCollision@ioWeapon@@UAEXXZ
	DD	FLAT:?IsIgnoreMapCollision@ioWeapon@@UBE_NXZ
	DD	FLAT:?IsIgnoreTestMapCollision@ioWeapon@@UBE_NXZ
	DD	FLAT:?IsIgnoreMapCollisionEffect@ioWeapon@@UBE_NXZ
	DD	FLAT:?AddEffectEvent@ioWeapon@@MAEXPAVioEffect@@@Z
	DD	FLAT:??_EioControlMeshWeapon@@UAEPAXI@Z
CONST	ENDS
;	COMDAT xdata$x
xdata$x	SEGMENT
__ehfuncinfo$??1ioControlMeshWeapon@@UAE@XZ DD 019930522H
	DD	018H
	DD	FLAT:__unwindtable$??1ioControlMeshWeapon@@UAE@XZ
	DD	2 DUP(00H)
	DD	2 DUP(00H)
	DD	00H
	DD	01H
__unwindtable$??1ioControlMeshWeapon@@UAE@XZ DD 0ffffffffH
	DD	FLAT:__unwindfunclet$??1ioControlMeshWeapon@@UAE@XZ$0
	DD	00H
	DD	FLAT:__unwindfunclet$??1ioControlMeshWeapon@@UAE@XZ$1
	DD	01H
	DD	FLAT:__unwindfunclet$??1ioControlMeshWeapon@@UAE@XZ$2
	DD	02H
	DD	FLAT:__unwindfunclet$??1ioControlMeshWeapon@@UAE@XZ$3
	DD	03H
	DD	FLAT:__unwindfunclet$??1ioControlMeshWeapon@@UAE@XZ$4
	DD	04H
	DD	FLAT:__unwindfunclet$??1ioControlMeshWeapon@@UAE@XZ$5
	DD	05H
	DD	FLAT:__unwindfunclet$??1ioControlMeshWeapon@@UAE@XZ$6
	DD	06H
	DD	FLAT:__unwindfunclet$??1ioControlMeshWeapon@@UAE@XZ$7
	DD	07H
	DD	FLAT:__unwindfunclet$??1ioControlMeshWeapon@@UAE@XZ$8
	DD	08H
	DD	FLAT:__unwindfunclet$??1ioControlMeshWeapon@@UAE@XZ$9
	DD	09H
	DD	FLAT:__unwindfunclet$??1ioControlMeshWeapon@@UAE@XZ$10
	DD	0aH
	DD	FLAT:__unwindfunclet$??1ioControlMeshWeapon@@UAE@XZ$11
	DD	0bH
	DD	FLAT:__unwindfunclet$??1ioControlMeshWeapon@@UAE@XZ$12
	DD	0cH
	DD	FLAT:__unwindfunclet$??1ioControlMeshWeapon@@UAE@XZ$13
	DD	0dH
	DD	FLAT:__unwindfunclet$??1ioControlMeshWeapon@@UAE@XZ$14
	DD	0eH
	DD	FLAT:__unwindfunclet$??1ioControlMeshWeapon@@UAE@XZ$15
	DD	0fH
	DD	FLAT:__unwindfunclet$??1ioControlMeshWeapon@@UAE@XZ$16
	DD	010H
	DD	FLAT:__unwindfunclet$??1ioControlMeshWeapon@@UAE@XZ$17
	DD	011H
	DD	FLAT:__unwindfunclet$??1ioControlMeshWeapon@@UAE@XZ$18
	DD	012H
	DD	FLAT:__unwindfunclet$??1ioControlMeshWeapon@@UAE@XZ$19
	DD	013H
	DD	FLAT:__unwindfunclet$??1ioControlMeshWeapon@@UAE@XZ$20
	DD	014H
	DD	FLAT:__unwindfunclet$??1ioControlMeshWeapon@@UAE@XZ$21
	DD	015H
	DD	FLAT:__unwindfunclet$??1ioControlMeshWeapon@@UAE@XZ$22
	DD	016H
	DD	FLAT:__unwindfunclet$??1ioControlMeshWeapon@@UAE@XZ$23
; Function compile flags: /Ogsp
; File d:\lost saga for developer\youtube\tutorial\source\src\lsclient\iocontrolmeshweapon.cpp
xdata$x	ENDS
;	COMDAT ??1ioControlMeshWeapon@@UAE@XZ
_TEXT	SEGMENT
_this$ = -16						; size = 4
__$EHRec$ = -12						; size = 12
??1ioControlMeshWeapon@@UAE@XZ PROC			; ioControlMeshWeapon::~ioControlMeshWeapon, COMDAT
; _this$ = ecx

; 35   : {

  00000	6a 04		 push	 4
  00002	b8 00 00 00 00	 mov	 eax, __ehhandler$??1ioControlMeshWeapon@@UAE@XZ
  00007	e8 00 00 00 00	 call	 __EH_prolog3
  0000c	8b f1		 mov	 esi, ecx
  0000e	89 75 f0	 mov	 DWORD PTR _this$[ebp], esi
  00011	c7 06 00 00 00
	00		 mov	 DWORD PTR [esi], OFFSET ??_7ioControlMeshWeapon@@6B@

; 36   : 	if( m_pMesh )

  00017	83 be e8 08 00
	00 00		 cmp	 DWORD PTR [esi+2280], 0
  0001e	c7 45 fc 17 00
	00 00		 mov	 DWORD PTR __$EHRec$[ebp+8], 23 ; 00000017H
  00025	74 16		 je	 SHORT $LN1@ioControlM

; 37   : 	{
; 38   : 		LOG.PrintTimeAndLog( 0, "ioControlMeshWeapon::~ioControlMeshWeapon - UnReleased Resouce" );

  00027	68 00 00 00 00	 push	 OFFSET ??_C@_0DP@OHKMOOJ@ioControlMeshWeapon?3?3?$HOioControlM@
  0002c	6a 00		 push	 0
  0002e	ff 35 00 00 00
	00		 push	 DWORD PTR __imp_?LOG@@3VCLog@@A
  00034	ff 15 00 00 00
	00		 call	 DWORD PTR __imp_?PrintTimeAndLog@CLog@@QAAXHPADZZ
  0003a	83 c4 0c	 add	 esp, 12			; 0000000cH
$LN1@ioControlM:

; 39   : 	}
; 40   : }

  0003d	8b 1d 00 00 00
	00		 mov	 ebx, DWORD PTR __imp_??1ioHashString@@QAE@XZ
  00043	8d 8e 98 0c 00
	00		 lea	 ecx, DWORD PTR [esi+3224]
  00049	c6 45 fc 16	 mov	 BYTE PTR __$EHRec$[ebp+8], 22 ; 00000016H
  0004d	ff d3		 call	 ebx
  0004f	8d 8e 88 0c 00
	00		 lea	 ecx, DWORD PTR [esi+3208]
  00055	c6 45 fc 15	 mov	 BYTE PTR __$EHRec$[ebp+8], 21 ; 00000015H
  00059	ff d3		 call	 ebx
  0005b	bf 00 00 00 00	 mov	 edi, OFFSET ??_7?$CEncrypt@_N@@6B@
  00060	8d 8e 64 0c 00
	00		 lea	 ecx, DWORD PTR [esi+3172]
  00066	c6 45 fc 14	 mov	 BYTE PTR __$EHRec$[ebp+8], 20 ; 00000014H
  0006a	89 be 58 0c 00
	00		 mov	 DWORD PTR [esi+3160], edi
  00070	e8 00 00 00 00	 call	 ??1ccddaabb@@UAE@XZ	; ccddaabb::~ccddaabb
  00075	8d 8e 34 0c 00
	00		 lea	 ecx, DWORD PTR [esi+3124]
  0007b	c6 45 fc 13	 mov	 BYTE PTR __$EHRec$[ebp+8], 19 ; 00000013H
  0007f	89 be 28 0c 00
	00		 mov	 DWORD PTR [esi+3112], edi
  00085	e8 00 00 00 00	 call	 ??1ccddaabb@@UAE@XZ	; ccddaabb::~ccddaabb
  0008a	bf 00 00 00 00	 mov	 edi, OFFSET ??_7?$CEncrypt@K@@6B@
  0008f	8d 8e 00 0c 00
	00		 lea	 ecx, DWORD PTR [esi+3072]
  00095	c6 45 fc 12	 mov	 BYTE PTR __$EHRec$[ebp+8], 18 ; 00000012H
  00099	89 be f4 0b 00
	00		 mov	 DWORD PTR [esi+3060], edi
  0009f	e8 00 00 00 00	 call	 ??1ccddaabb@@UAE@XZ	; ccddaabb::~ccddaabb
  000a4	8d 8e c8 0b 00
	00		 lea	 ecx, DWORD PTR [esi+3016]
  000aa	c6 45 fc 11	 mov	 BYTE PTR __$EHRec$[ebp+8], 17 ; 00000011H
  000ae	89 be bc 0b 00
	00		 mov	 DWORD PTR [esi+3004], edi
  000b4	e8 00 00 00 00	 call	 ??1ccddaabb@@UAE@XZ	; ccddaabb::~ccddaabb
  000b9	8d 8e 98 0b 00
	00		 lea	 ecx, DWORD PTR [esi+2968]
  000bf	c6 45 fc 10	 mov	 BYTE PTR __$EHRec$[ebp+8], 16 ; 00000010H
  000c3	89 be 8c 0b 00
	00		 mov	 DWORD PTR [esi+2956], edi
  000c9	e8 00 00 00 00	 call	 ??1ccddaabb@@UAE@XZ	; ccddaabb::~ccddaabb
  000ce	8d 8e 68 0b 00
	00		 lea	 ecx, DWORD PTR [esi+2920]
  000d4	c6 45 fc 0f	 mov	 BYTE PTR __$EHRec$[ebp+8], 15 ; 0000000fH
  000d8	89 be 5c 0b 00
	00		 mov	 DWORD PTR [esi+2908], edi
  000de	e8 00 00 00 00	 call	 ??1ccddaabb@@UAE@XZ	; ccddaabb::~ccddaabb
  000e3	8d 8e 38 0b 00
	00		 lea	 ecx, DWORD PTR [esi+2872]
  000e9	c6 45 fc 0e	 mov	 BYTE PTR __$EHRec$[ebp+8], 14 ; 0000000eH
  000ed	89 be 2c 0b 00
	00		 mov	 DWORD PTR [esi+2860], edi
  000f3	e8 00 00 00 00	 call	 ??1ccddaabb@@UAE@XZ	; ccddaabb::~ccddaabb
  000f8	8d 8e 08 0b 00
	00		 lea	 ecx, DWORD PTR [esi+2824]
  000fe	c6 45 fc 0d	 mov	 BYTE PTR __$EHRec$[ebp+8], 13 ; 0000000dH
  00102	89 be fc 0a 00
	00		 mov	 DWORD PTR [esi+2812], edi
  00108	e8 00 00 00 00	 call	 ??1ccddaabb@@UAE@XZ	; ccddaabb::~ccddaabb
  0010d	8d 8e d8 0a 00
	00		 lea	 ecx, DWORD PTR [esi+2776]
  00113	c6 45 fc 0c	 mov	 BYTE PTR __$EHRec$[ebp+8], 12 ; 0000000cH
  00117	89 be cc 0a 00
	00		 mov	 DWORD PTR [esi+2764], edi
  0011d	e8 00 00 00 00	 call	 ??1ccddaabb@@UAE@XZ	; ccddaabb::~ccddaabb
  00122	8d 8e a8 0a 00
	00		 lea	 ecx, DWORD PTR [esi+2728]
  00128	c6 45 fc 0b	 mov	 BYTE PTR __$EHRec$[ebp+8], 11 ; 0000000bH
  0012c	89 be 9c 0a 00
	00		 mov	 DWORD PTR [esi+2716], edi
  00132	e8 00 00 00 00	 call	 ??1ccddaabb@@UAE@XZ	; ccddaabb::~ccddaabb
  00137	8d 8e 78 0a 00
	00		 lea	 ecx, DWORD PTR [esi+2680]
  0013d	c6 45 fc 0a	 mov	 BYTE PTR __$EHRec$[ebp+8], 10 ; 0000000aH
  00141	89 be 6c 0a 00
	00		 mov	 DWORD PTR [esi+2668], edi
  00147	e8 00 00 00 00	 call	 ??1ccddaabb@@UAE@XZ	; ccddaabb::~ccddaabb
  0014c	8d 8e 48 0a 00
	00		 lea	 ecx, DWORD PTR [esi+2632]
  00152	c6 45 fc 09	 mov	 BYTE PTR __$EHRec$[ebp+8], 9
  00156	89 be 3c 0a 00
	00		 mov	 DWORD PTR [esi+2620], edi
  0015c	e8 00 00 00 00	 call	 ??1ccddaabb@@UAE@XZ	; ccddaabb::~ccddaabb
  00161	8d 8e 18 0a 00
	00		 lea	 ecx, DWORD PTR [esi+2584]
  00167	c6 45 fc 08	 mov	 BYTE PTR __$EHRec$[ebp+8], 8
  0016b	89 be 0c 0a 00
	00		 mov	 DWORD PTR [esi+2572], edi
  00171	e8 00 00 00 00	 call	 ??1ccddaabb@@UAE@XZ	; ccddaabb::~ccddaabb
  00176	bf 00 00 00 00	 mov	 edi, OFFSET ??_7?$CEncrypt@M@@6B@
  0017b	8d 8e e8 09 00
	00		 lea	 ecx, DWORD PTR [esi+2536]
  00181	c6 45 fc 07	 mov	 BYTE PTR __$EHRec$[ebp+8], 7
  00185	89 be dc 09 00
	00		 mov	 DWORD PTR [esi+2524], edi
  0018b	e8 00 00 00 00	 call	 ??1ccddaabb@@UAE@XZ	; ccddaabb::~ccddaabb
  00190	8d 8e b8 09 00
	00		 lea	 ecx, DWORD PTR [esi+2488]
  00196	c6 45 fc 06	 mov	 BYTE PTR __$EHRec$[ebp+8], 6
  0019a	89 be ac 09 00
	00		 mov	 DWORD PTR [esi+2476], edi
  001a0	e8 00 00 00 00	 call	 ??1ccddaabb@@UAE@XZ	; ccddaabb::~ccddaabb
  001a5	8d 8e 88 09 00
	00		 lea	 ecx, DWORD PTR [esi+2440]
  001ab	c6 45 fc 05	 mov	 BYTE PTR __$EHRec$[ebp+8], 5
  001af	89 be 7c 09 00
	00		 mov	 DWORD PTR [esi+2428], edi
  001b5	e8 00 00 00 00	 call	 ??1ccddaabb@@UAE@XZ	; ccddaabb::~ccddaabb
  001ba	8d 8e 58 09 00
	00		 lea	 ecx, DWORD PTR [esi+2392]
  001c0	c6 45 fc 04	 mov	 BYTE PTR __$EHRec$[ebp+8], 4
  001c4	89 be 4c 09 00
	00		 mov	 DWORD PTR [esi+2380], edi
  001ca	e8 00 00 00 00	 call	 ??1ccddaabb@@UAE@XZ	; ccddaabb::~ccddaabb
  001cf	c6 45 fc 03	 mov	 BYTE PTR __$EHRec$[ebp+8], 3
  001d3	89 be 1c 09 00
	00		 mov	 DWORD PTR [esi+2332], edi
  001d9	8d 8e 28 09 00
	00		 lea	 ecx, DWORD PTR [esi+2344]
  001df	e8 00 00 00 00	 call	 ??1ccddaabb@@UAE@XZ	; ccddaabb::~ccddaabb
  001e4	8d 8e fc 08 00
	00		 lea	 ecx, DWORD PTR [esi+2300]
  001ea	c6 45 fc 02	 mov	 BYTE PTR __$EHRec$[ebp+8], 2
  001ee	ff d3		 call	 ebx
  001f0	8d 8e ec 08 00
	00		 lea	 ecx, DWORD PTR [esi+2284]
  001f6	c6 45 fc 01	 mov	 BYTE PTR __$EHRec$[ebp+8], 1
  001fa	ff d3		 call	 ebx
  001fc	8d 8e 98 08 00
	00		 lea	 ecx, DWORD PTR [esi+2200]
  00202	c6 45 fc 00	 mov	 BYTE PTR __$EHRec$[ebp+8], 0
  00206	ff 15 00 00 00
	00		 call	 DWORD PTR __imp_??1ioOrientBox@@QAE@XZ
  0020c	83 4d fc ff	 or	 DWORD PTR __$EHRec$[ebp+8], -1
  00210	8b ce		 mov	 ecx, esi
  00212	e8 00 00 00 00	 call	 ??1ioWeapon@@UAE@XZ	; ioWeapon::~ioWeapon
  00217	e8 00 00 00 00	 call	 __EH_epilog3
  0021c	c3		 ret	 0
_TEXT	ENDS
;	COMDAT text$x
text$x	SEGMENT
__unwindfunclet$??1ioControlMeshWeapon@@UAE@XZ$0:
  00000	8b 4d f0	 mov	 ecx, DWORD PTR _this$[ebp]
  00003	e9 00 00 00 00	 jmp	 ??1ioWeapon@@UAE@XZ	; ioWeapon::~ioWeapon
__unwindfunclet$??1ioControlMeshWeapon@@UAE@XZ$1:
  00008	8b 4d f0	 mov	 ecx, DWORD PTR _this$[ebp]
  0000b	81 c1 98 08 00
	00		 add	 ecx, 2200		; 00000898H
  00011	ff 25 00 00 00
	00		 jmp	 DWORD PTR __imp_??1ioOrientBox@@QAE@XZ
__unwindfunclet$??1ioControlMeshWeapon@@UAE@XZ$2:
  00017	8b 4d f0	 mov	 ecx, DWORD PTR _this$[ebp]
  0001a	81 c1 ec 08 00
	00		 add	 ecx, 2284		; 000008ecH
  00020	ff 25 00 00 00
	00		 jmp	 DWORD PTR __imp_??1ioHashString@@QAE@XZ
__unwindfunclet$??1ioControlMeshWeapon@@UAE@XZ$3:
  00026	8b 4d f0	 mov	 ecx, DWORD PTR _this$[ebp]
  00029	81 c1 fc 08 00
	00		 add	 ecx, 2300		; 000008fcH
  0002f	ff 25 00 00 00
	00		 jmp	 DWORD PTR __imp_??1ioHashString@@QAE@XZ
__unwindfunclet$??1ioControlMeshWeapon@@UAE@XZ$4:
  00035	8b 4d f0	 mov	 ecx, DWORD PTR _this$[ebp]
  00038	81 c1 1c 09 00
	00		 add	 ecx, 2332		; 0000091cH
  0003e	e9 00 00 00 00	 jmp	 ??1?$CEncrypt@M@@UAE@XZ	; CEncrypt<float>::~CEncrypt<float>
__unwindfunclet$??1ioControlMeshWeapon@@UAE@XZ$5:
  00043	8b 4d f0	 mov	 ecx, DWORD PTR _this$[ebp]
  00046	81 c1 4c 09 00
	00		 add	 ecx, 2380		; 0000094cH
  0004c	e9 00 00 00 00	 jmp	 ??1?$CEncrypt@M@@UAE@XZ	; CEncrypt<float>::~CEncrypt<float>
__unwindfunclet$??1ioControlMeshWeapon@@UAE@XZ$6:
  00051	8b 4d f0	 mov	 ecx, DWORD PTR _this$[ebp]
  00054	81 c1 7c 09 00
	00		 add	 ecx, 2428		; 0000097cH
  0005a	e9 00 00 00 00	 jmp	 ??1?$CEncrypt@M@@UAE@XZ	; CEncrypt<float>::~CEncrypt<float>
__unwindfunclet$??1ioControlMeshWeapon@@UAE@XZ$7:
  0005f	8b 4d f0	 mov	 ecx, DWORD PTR _this$[ebp]
  00062	81 c1 ac 09 00
	00		 add	 ecx, 2476		; 000009acH
  00068	e9 00 00 00 00	 jmp	 ??1?$CEncrypt@M@@UAE@XZ	; CEncrypt<float>::~CEncrypt<float>
__unwindfunclet$??1ioControlMeshWeapon@@UAE@XZ$8:
  0006d	8b 4d f0	 mov	 ecx, DWORD PTR _this$[ebp]
  00070	81 c1 dc 09 00
	00		 add	 ecx, 2524		; 000009dcH
  00076	e9 00 00 00 00	 jmp	 ??1?$CEncrypt@M@@UAE@XZ	; CEncrypt<float>::~CEncrypt<float>
__unwindfunclet$??1ioControlMeshWeapon@@UAE@XZ$9:
  0007b	8b 4d f0	 mov	 ecx, DWORD PTR _this$[ebp]
  0007e	81 c1 0c 0a 00
	00		 add	 ecx, 2572		; 00000a0cH
  00084	e9 00 00 00 00	 jmp	 ??1?$CEncrypt@K@@UAE@XZ	; CEncrypt<unsigned long>::~CEncrypt<unsigned long>
__unwindfunclet$??1ioControlMeshWeapon@@UAE@XZ$10:
  00089	8b 4d f0	 mov	 ecx, DWORD PTR _this$[ebp]
  0008c	81 c1 3c 0a 00
	00		 add	 ecx, 2620		; 00000a3cH
  00092	e9 00 00 00 00	 jmp	 ??1?$CEncrypt@K@@UAE@XZ	; CEncrypt<unsigned long>::~CEncrypt<unsigned long>
__unwindfunclet$??1ioControlMeshWeapon@@UAE@XZ$11:
  00097	8b 4d f0	 mov	 ecx, DWORD PTR _this$[ebp]
  0009a	81 c1 6c 0a 00
	00		 add	 ecx, 2668		; 00000a6cH
  000a0	e9 00 00 00 00	 jmp	 ??1?$CEncrypt@K@@UAE@XZ	; CEncrypt<unsigned long>::~CEncrypt<unsigned long>
__unwindfunclet$??1ioControlMeshWeapon@@UAE@XZ$12:
  000a5	8b 4d f0	 mov	 ecx, DWORD PTR _this$[ebp]
  000a8	81 c1 9c 0a 00
	00		 add	 ecx, 2716		; 00000a9cH
  000ae	e9 00 00 00 00	 jmp	 ??1?$CEncrypt@K@@UAE@XZ	; CEncrypt<unsigned long>::~CEncrypt<unsigned long>
__unwindfunclet$??1ioControlMeshWeapon@@UAE@XZ$13:
  000b3	8b 4d f0	 mov	 ecx, DWORD PTR _this$[ebp]
  000b6	81 c1 cc 0a 00
	00		 add	 ecx, 2764		; 00000accH
  000bc	e9 00 00 00 00	 jmp	 ??1?$CEncrypt@K@@UAE@XZ	; CEncrypt<unsigned long>::~CEncrypt<unsigned long>
__unwindfunclet$??1ioControlMeshWeapon@@UAE@XZ$14:
  000c1	8b 4d f0	 mov	 ecx, DWORD PTR _this$[ebp]
  000c4	81 c1 fc 0a 00
	00		 add	 ecx, 2812		; 00000afcH
  000ca	e9 00 00 00 00	 jmp	 ??1?$CEncrypt@K@@UAE@XZ	; CEncrypt<unsigned long>::~CEncrypt<unsigned long>
__unwindfunclet$??1ioControlMeshWeapon@@UAE@XZ$15:
  000cf	8b 4d f0	 mov	 ecx, DWORD PTR _this$[ebp]
  000d2	81 c1 2c 0b 00
	00		 add	 ecx, 2860		; 00000b2cH
  000d8	e9 00 00 00 00	 jmp	 ??1?$CEncrypt@K@@UAE@XZ	; CEncrypt<unsigned long>::~CEncrypt<unsigned long>
__unwindfunclet$??1ioControlMeshWeapon@@UAE@XZ$16:
  000dd	8b 4d f0	 mov	 ecx, DWORD PTR _this$[ebp]
  000e0	81 c1 5c 0b 00
	00		 add	 ecx, 2908		; 00000b5cH
  000e6	e9 00 00 00 00	 jmp	 ??1?$CEncrypt@K@@UAE@XZ	; CEncrypt<unsigned long>::~CEncrypt<unsigned long>
__unwindfunclet$??1ioControlMeshWeapon@@UAE@XZ$17:
  000eb	8b 4d f0	 mov	 ecx, DWORD PTR _this$[ebp]
  000ee	81 c1 8c 0b 00
	00		 add	 ecx, 2956		; 00000b8cH
  000f4	e9 00 00 00 00	 jmp	 ??1?$CEncrypt@K@@UAE@XZ	; CEncrypt<unsigned long>::~CEncrypt<unsigned long>
__unwindfunclet$??1ioControlMeshWeapon@@UAE@XZ$18:
  000f9	8b 4d f0	 mov	 ecx, DWORD PTR _this$[ebp]
  000fc	81 c1 bc 0b 00
	00		 add	 ecx, 3004		; 00000bbcH
  00102	e9 00 00 00 00	 jmp	 ??1?$CEncrypt@K@@UAE@XZ	; CEncrypt<unsigned long>::~CEncrypt<unsigned long>
__unwindfunclet$??1ioControlMeshWeapon@@UAE@XZ$19:
  00107	8b 4d f0	 mov	 ecx, DWORD PTR _this$[ebp]
  0010a	81 c1 f4 0b 00
	00		 add	 ecx, 3060		; 00000bf4H
  00110	e9 00 00 00 00	 jmp	 ??1?$CEncrypt@K@@UAE@XZ	; CEncrypt<unsigned long>::~CEncrypt<unsigned long>
__unwindfunclet$??1ioControlMeshWeapon@@UAE@XZ$20:
  00115	8b 4d f0	 mov	 ecx, DWORD PTR _this$[ebp]
  00118	81 c1 28 0c 00
	00		 add	 ecx, 3112		; 00000c28H
  0011e	e9 00 00 00 00	 jmp	 ??1?$CEncrypt@_N@@UAE@XZ ; CEncrypt<bool>::~CEncrypt<bool>
__unwindfunclet$??1ioControlMeshWeapon@@UAE@XZ$21:
  00123	8b 4d f0	 mov	 ecx, DWORD PTR _this$[ebp]
  00126	81 c1 58 0c 00
	00		 add	 ecx, 3160		; 00000c58H
  0012c	e9 00 00 00 00	 jmp	 ??1?$CEncrypt@_N@@UAE@XZ ; CEncrypt<bool>::~CEncrypt<bool>
__unwindfunclet$??1ioControlMeshWeapon@@UAE@XZ$22:
  00131	8b 4d f0	 mov	 ecx, DWORD PTR _this$[ebp]
  00134	81 c1 88 0c 00
	00		 add	 ecx, 3208		; 00000c88H
  0013a	ff 25 00 00 00
	00		 jmp	 DWORD PTR __imp_??1ioHashString@@QAE@XZ
__unwindfunclet$??1ioControlMeshWeapon@@UAE@XZ$23:
  00140	8b 4d f0	 mov	 ecx, DWORD PTR _this$[ebp]
  00143	81 c1 98 0c 00
	00		 add	 ecx, 3224		; 00000c98H
  00149	ff 25 00 00 00
	00		 jmp	 DWORD PTR __imp_??1ioHashString@@QAE@XZ
__ehhandler$??1ioControlMeshWeapon@@UAE@XZ:
  0014f	8b 54 24 08	 mov	 edx, DWORD PTR [esp+8]
  00153	8d 42 0c	 lea	 eax, DWORD PTR [edx+12]
  00156	8b 4a ec	 mov	 ecx, DWORD PTR [edx-20]
  00159	33 c8		 xor	 ecx, eax
  0015b	e8 00 00 00 00	 call	 @__security_check_cookie@4
  00160	b8 00 00 00 00	 mov	 eax, OFFSET __ehfuncinfo$??1ioControlMeshWeapon@@UAE@XZ
  00165	e9 00 00 00 00	 jmp	 ___CxxFrameHandler3
text$x	ENDS
??1ioControlMeshWeapon@@UAE@XZ ENDP			; ioControlMeshWeapon::~ioControlMeshWeapon
PUBLIC	?SetMesh@ioControlMeshWeapon@@IAE_NABVioHashString@@@Z ; ioControlMeshWeapon::SetMesh
EXTRN	__imp_?GetCollisionBox@ioEffect@@QBEABVioOrientBox@@XZ:PROC
EXTRN	__imp_??D@YA?AUD3DXVECTOR3@@ABU0@0@Z:PROC
EXTRN	__imp_??D@YA?AUD3DXVECTOR3@@ABUD3DXQUATERNION@@ABU0@@Z:PROC
EXTRN	__imp_?GetBiped@ioEntityGroup@@QAEPAVioBiped@@ABVioHashString@@@Z:PROC
EXTRN	__imp_?GetFirstLinkOffset@ioEffect@@QAE_NAAVioHashString@@AAUD3DXVECTOR3@@AAUD3DXQUATERNION@@@Z:PROC
EXTRN	__imp_??0ioHashString@@QAE@XZ:PROC
EXTRN	__imp_?UNIT_ALL@ioMath@@2UD3DXVECTOR3@@A:BYTE
EXTRN	__imp_?CreateEffect@ioEffectFactory@@QAEPAVioEffect@@ABVioHashString@@@Z:PROC
EXTRN	__EH_epilog3_GS:PROC
EXTRN	__EH_prolog3_GS:PROC
;	COMDAT xdata$x
; File c:\program files (x86)\microsoft directx sdk (june 2010)\include\d3dx9math.inl
xdata$x	SEGMENT
__unwindtable$?SetMesh@ioControlMeshWeapon@@IAE_NABVioHashString@@@Z DD 0ffffffffH
	DD	FLAT:__unwindfunclet$?SetMesh@ioControlMeshWeapon@@IAE_NABVioHashString@@@Z$0
	DD	00H
	DD	FLAT:__unwindfunclet$?SetMesh@ioControlMeshWeapon@@IAE_NABVioHashString@@@Z$1
__ehfuncinfo$?SetMesh@ioControlMeshWeapon@@IAE_NABVioHashString@@@Z DD 019930522H
	DD	02H
	DD	FLAT:__unwindtable$?SetMesh@ioControlMeshWeapon@@IAE_NABVioHashString@@@Z
	DD	2 DUP(00H)
	DD	2 DUP(00H)
	DD	00H
	DD	01H
; Function compile flags: /Ogsp
; File d:\lost saga for developer\youtube\tutorial\source\src\lsclient\iocontrolmeshweapon.cpp
xdata$x	ENDS
;	COMDAT ?SetMesh@ioControlMeshWeapon@@IAE_NABVioHashString@@@Z
_TEXT	SEGMENT
_qtLinkRotOffset$ = -100				; size = 16
_szLinkBiped$ = -84					; size = 16
$T533899 = -68						; size = 4
_pOwner$ = -64						; size = 4
$T533893 = -57						; size = 1
$T533894 = -56						; size = 16
$T530733 = -52						; size = 12
_vLinkPosOffset$ = -40					; size = 12
$T530734 = -28						; size = 12
$T530732 = -28						; size = 12
$T530731 = -28						; size = 12
$T530730 = -28						; size = 12
__$EHRec$ = -12						; size = 12
_szFileName$ = 8					; size = 4
?SetMesh@ioControlMeshWeapon@@IAE_NABVioHashString@@@Z PROC ; ioControlMeshWeapon::SetMesh, COMDAT
; _this$ = ecx

; 108  : {

  00000	6a 58		 push	 88			; 00000058H
  00002	b8 00 00 00 00	 mov	 eax, __ehhandler$?SetMesh@ioControlMeshWeapon@@IAE_NABVioHashString@@@Z
  00007	e8 00 00 00 00	 call	 __EH_prolog3_GS
  0000c	8b 7d 08	 mov	 edi, DWORD PTR _szFileName$[ebp]
  0000f	33 f6		 xor	 esi, esi
  00011	8b d9		 mov	 ebx, ecx
  00013	89 75 bc	 mov	 DWORD PTR $T533899[ebp], esi

; 109  : 	ioBaseChar *pOwner = GetOwner();

  00016	e8 00 00 00 00	 call	 ?GetOwner@ioWeapon@@QBEPAVioBaseChar@@XZ ; ioWeapon::GetOwner
  0001b	89 45 c0	 mov	 DWORD PTR _pOwner$[ebp], eax

; 110  : 	if( !pOwner )	

  0001e	3b c6		 cmp	 eax, esi
  00020	75 07		 jne	 SHORT $LN4@SetMesh
$LN35@SetMesh:

; 111  : 		return false;

  00022	32 c0		 xor	 al, al
  00024	e9 35 02 00 00	 jmp	 $LN5@SetMesh
$LN4@SetMesh:

; 112  : 
; 113  : 	m_pMesh = g_EffectFactory.CreateEffect( szFileName );

  00029	57		 push	 edi
  0002a	ff 15 00 00 00
	00		 call	 DWORD PTR __imp_?GetSingleton@ioEffectFactory@@SAAAV1@XZ
  00030	8b c8		 mov	 ecx, eax
  00032	ff 15 00 00 00
	00		 call	 DWORD PTR __imp_?CreateEffect@ioEffectFactory@@QAEPAVioEffect@@ABVioHashString@@@Z
  00038	89 83 e8 08 00
	00		 mov	 DWORD PTR [ebx+2280], eax

; 114  : 	if( !m_pMesh )	

  0003e	3b c6		 cmp	 eax, esi

; 115  : 		return false;

  00040	74 e0		 je	 SHORT $LN35@SetMesh

; 116  : 	
; 117  : 	GetParentSceneNode()->AttachObject( m_pMesh );

  00042	8b 4b 04	 mov	 ecx, DWORD PTR [ebx+4]
  00045	8b 11		 mov	 edx, DWORD PTR [ecx]
  00047	83 c0 14	 add	 eax, 20			; 00000014H
  0004a	50		 push	 eax
  0004b	ff 92 ac 00 00
	00		 call	 DWORD PTR [edx+172]

; 118  : 	GetParentSceneNode()->SetScale( ioMath::UNIT_ALL );

  00051	8b 4b 04	 mov	 ecx, DWORD PTR [ebx+4]
  00054	ff 35 00 00 00
	00		 push	 DWORD PTR __imp_?UNIT_ALL@ioMath@@2UD3DXVECTOR3@@A
  0005a	8b 01		 mov	 eax, DWORD PTR [ecx]
  0005c	ff 50 20	 call	 DWORD PTR [eax+32]

; 119  : 
; 120  : 	ioHashString szLinkBiped;

  0005f	8d 4d ac	 lea	 ecx, DWORD PTR _szLinkBiped$[ebp]
  00062	ff 15 00 00 00
	00		 call	 DWORD PTR __imp_??0ioHashString@@QAE@XZ

; 121  : 	D3DXVECTOR3 vLinkPosOffset;
; 122  : 	D3DXQUATERNION qtLinkRotOffset;
; 123  : 
; 124  : 	if( m_pMesh->GetSkeletonName().IsEmpty() && m_pMesh->GetFirstLinkOffset(szLinkBiped, vLinkPosOffset, qtLinkRotOffset ) )

  00068	8b 8b e8 08 00
	00		 mov	 ecx, DWORD PTR [ebx+2280]
  0006e	8d 45 c8	 lea	 eax, DWORD PTR $T533894[ebp]
  00071	50		 push	 eax
  00072	89 75 fc	 mov	 DWORD PTR __$EHRec$[ebp+8], esi
  00075	ff 15 00 00 00
	00		 call	 DWORD PTR __imp_?GetSkeletonName@ioEffect@@QBE?AVioHashString@@XZ
  0007b	8b c8		 mov	 ecx, eax
  0007d	c6 45 fc 01	 mov	 BYTE PTR __$EHRec$[ebp+8], 1
  00081	c7 45 bc 01 00
	00 00		 mov	 DWORD PTR $T533899[ebp], 1
  00088	ff 15 00 00 00
	00		 call	 DWORD PTR __imp_?IsEmpty@ioHashString@@QBE_NXZ
  0008e	84 c0		 test	 al, al
  00090	74 20		 je	 SHORT $LN9@SetMesh
  00092	8b 8b e8 08 00
	00		 mov	 ecx, DWORD PTR [ebx+2280]
  00098	8d 45 9c	 lea	 eax, DWORD PTR _qtLinkRotOffset$[ebp]
  0009b	50		 push	 eax
  0009c	8d 45 d8	 lea	 eax, DWORD PTR _vLinkPosOffset$[ebp]
  0009f	50		 push	 eax
  000a0	8d 45 ac	 lea	 eax, DWORD PTR _szLinkBiped$[ebp]
  000a3	50		 push	 eax
  000a4	ff 15 00 00 00
	00		 call	 DWORD PTR __imp_?GetFirstLinkOffset@ioEffect@@QAE_NAAVioHashString@@AAUD3DXVECTOR3@@AAUD3DXQUATERNION@@@Z
  000aa	c6 45 c7 01	 mov	 BYTE PTR $T533893[ebp], 1
  000ae	84 c0		 test	 al, al
  000b0	75 04		 jne	 SHORT $LN10@SetMesh
$LN9@SetMesh:
  000b2	c6 45 c7 00	 mov	 BYTE PTR $T533893[ebp], 0
$LN10@SetMesh:
  000b6	8d 4d c8	 lea	 ecx, DWORD PTR $T533894[ebp]
  000b9	89 75 fc	 mov	 DWORD PTR __$EHRec$[ebp+8], esi
  000bc	ff 15 00 00 00
	00		 call	 DWORD PTR __imp_??1ioHashString@@QAE@XZ
  000c2	80 7d c7 00	 cmp	 BYTE PTR $T533893[ebp], 0
  000c6	0f 84 4a 01 00
	00		 je	 $LN1@SetMesh

; 125  : 	{
; 126  : 		ioBiped *pLinked = pOwner->GetGroup()->GetBiped( szLinkBiped );

  000cc	8b 45 c0	 mov	 eax, DWORD PTR _pOwner$[ebp]
  000cf	8b 48 04	 mov	 ecx, DWORD PTR [eax+4]
  000d2	8d 45 ac	 lea	 eax, DWORD PTR _szLinkBiped$[ebp]
  000d5	50		 push	 eax
  000d6	ff 15 00 00 00
	00		 call	 DWORD PTR __imp_?GetBiped@ioEntityGroup@@QAEPAVioBiped@@ABVioHashString@@@Z
  000dc	8b f8		 mov	 edi, eax

; 127  : 		if( pLinked )

  000de	3b fe		 cmp	 edi, esi
  000e0	0f 84 30 01 00
	00		 je	 $LN1@SetMesh

; 128  : 		{
; 129  : 			vLinkPosOffset = pLinked->GetDerivedOrientation() * vLinkPosOffset + pLinked->GetDerivedPosition();

  000e6	8b 07		 mov	 eax, DWORD PTR [edi]
  000e8	8b cf		 mov	 ecx, edi
  000ea	ff 50 7c	 call	 DWORD PTR [eax+124]
  000ed	8b f0		 mov	 esi, eax
  000ef	8d 45 d8	 lea	 eax, DWORD PTR _vLinkPosOffset$[ebp]
  000f2	50		 push	 eax
  000f3	8b 07		 mov	 eax, DWORD PTR [edi]
  000f5	8b cf		 mov	 ecx, edi
  000f7	ff 50 78	 call	 DWORD PTR [eax+120]
  000fa	50		 push	 eax
  000fb	8d 45 e4	 lea	 eax, DWORD PTR $T530730[ebp]
  000fe	50		 push	 eax
  000ff	ff 15 00 00 00
	00		 call	 DWORD PTR __imp_??D@YA?AUD3DXVECTOR3@@ABUD3DXQUATERNION@@ABU0@@Z
  00105	f3 0f 10 06	 movss	 xmm0, DWORD PTR [esi]
  00109	f3 0f 10 08	 movss	 xmm1, DWORD PTR [eax]
  0010d	f3 0f 10 50 04	 movss	 xmm2, DWORD PTR [eax+4]
  00112	f3 0f 10 58 08	 movss	 xmm3, DWORD PTR [eax+8]

; 130  : 			vLinkPosOffset = vLinkPosOffset * pOwner->GetWorldScale();

  00117	8b 4d c0	 mov	 ecx, DWORD PTR _pOwner$[ebp]
  0011a	0f 5a c9	 cvtps2pd xmm1, xmm1
  0011d	0f 5a c0	 cvtps2pd xmm0, xmm0
  00120	f2 0f 58 c1	 addsd	 xmm0, xmm1
  00124	f3 0f 10 4e 04	 movss	 xmm1, DWORD PTR [esi+4]
  00129	0f 5a d2	 cvtps2pd xmm2, xmm2
  0012c	0f 5a c9	 cvtps2pd xmm1, xmm1
  0012f	f2 0f 58 ca	 addsd	 xmm1, xmm2
  00133	f3 0f 10 56 08	 movss	 xmm2, DWORD PTR [esi+8]
  00138	0f 5a d2	 cvtps2pd xmm2, xmm2
  0013b	0f 5a db	 cvtps2pd xmm3, xmm3
  0013e	f2 0f 58 d3	 addsd	 xmm2, xmm3
  00142	66 0f 5a c0	 cvtpd2ps xmm0, xmm0
  00146	f3 0f 11 45 e4	 movss	 DWORD PTR $T530731[ebp], xmm0
  0014b	66 0f 5a c9	 cvtpd2ps xmm1, xmm1
  0014f	f3 0f 11 4d e8	 movss	 DWORD PTR $T530731[ebp+4], xmm1
  00154	66 0f 5a d2	 cvtpd2ps xmm2, xmm2
  00158	f3 0f 11 55 ec	 movss	 DWORD PTR $T530731[ebp+8], xmm2
  0015d	8d 75 e4	 lea	 esi, DWORD PTR $T530731[ebp]
  00160	8d 7d d8	 lea	 edi, DWORD PTR _vLinkPosOffset$[ebp]
  00163	a5		 movsd
  00164	a5		 movsd
  00165	a5		 movsd
  00166	8b 01		 mov	 eax, DWORD PTR [ecx]
  00168	83 c4 0c	 add	 esp, 12			; 0000000cH
  0016b	ff 50 78	 call	 DWORD PTR [eax+120]
  0016e	50		 push	 eax
  0016f	8d 45 d8	 lea	 eax, DWORD PTR _vLinkPosOffset$[ebp]
  00172	50		 push	 eax
  00173	8d 45 e4	 lea	 eax, DWORD PTR $T530732[ebp]
  00176	50		 push	 eax
  00177	ff 15 00 00 00
	00		 call	 DWORD PTR __imp_??D@YA?AUD3DXVECTOR3@@ABU0@0@Z
  0017d	8b f0		 mov	 esi, eax
  0017f	8d 7d d8	 lea	 edi, DWORD PTR _vLinkPosOffset$[ebp]
  00182	a5		 movsd
  00183	a5		 movsd
  00184	a5		 movsd

; 131  : 			vLinkPosOffset = pOwner->GetWorldOrientation() * vLinkPosOffset + pOwner->GetWorldPosition();

  00185	8b 7d c0	 mov	 edi, DWORD PTR _pOwner$[ebp]
  00188	8b 07		 mov	 eax, DWORD PTR [edi]
  0018a	83 c4 0c	 add	 esp, 12			; 0000000cH
  0018d	8b cf		 mov	 ecx, edi
  0018f	ff 50 70	 call	 DWORD PTR [eax+112]
  00192	8b f0		 mov	 esi, eax
  00194	8d 45 d8	 lea	 eax, DWORD PTR _vLinkPosOffset$[ebp]
  00197	50		 push	 eax
  00198	8b 07		 mov	 eax, DWORD PTR [edi]
  0019a	8b cf		 mov	 ecx, edi
  0019c	ff 50 74	 call	 DWORD PTR [eax+116]
  0019f	50		 push	 eax
  001a0	8d 45 cc	 lea	 eax, DWORD PTR $T530733[ebp]
  001a3	50		 push	 eax
  001a4	ff 15 00 00 00
	00		 call	 DWORD PTR __imp_??D@YA?AUD3DXVECTOR3@@ABUD3DXQUATERNION@@ABU0@@Z
  001aa	f3 0f 10 00	 movss	 xmm0, DWORD PTR [eax]
  001ae	f3 0f 10 0e	 movss	 xmm1, DWORD PTR [esi]
  001b2	f3 0f 10 50 04	 movss	 xmm2, DWORD PTR [eax+4]
  001b7	0f 5a c9	 cvtps2pd xmm1, xmm1
  001ba	0f 5a c0	 cvtps2pd xmm0, xmm0
  001bd	f2 0f 58 c1	 addsd	 xmm0, xmm1
  001c1	f3 0f 10 4e 04	 movss	 xmm1, DWORD PTR [esi+4]
  001c6	0f 5a c9	 cvtps2pd xmm1, xmm1
  001c9	0f 5a d2	 cvtps2pd xmm2, xmm2
  001cc	83 c4 0c	 add	 esp, 12			; 0000000cH
  001cf	66 0f 5a c0	 cvtpd2ps xmm0, xmm0
  001d3	f2 0f 58 ca	 addsd	 xmm1, xmm2
  001d7	f3 0f 10 56 08	 movss	 xmm2, DWORD PTR [esi+8]
  001dc	f3 0f 10 58 08	 movss	 xmm3, DWORD PTR [eax+8]
  001e1	0f 5a d2	 cvtps2pd xmm2, xmm2
  001e4	0f 5a db	 cvtps2pd xmm3, xmm3
  001e7	f2 0f 58 d3	 addsd	 xmm2, xmm3
  001eb	f3 0f 11 45 e4	 movss	 DWORD PTR $T530734[ebp], xmm0
  001f0	66 0f 5a c9	 cvtpd2ps xmm1, xmm1
  001f4	f3 0f 11 4d e8	 movss	 DWORD PTR $T530734[ebp+4], xmm1
  001f9	66 0f 5a d2	 cvtpd2ps xmm2, xmm2
  001fd	f3 0f 11 55 ec	 movss	 DWORD PTR $T530734[ebp+8], xmm2
  00202	8d 75 e4	 lea	 esi, DWORD PTR $T530734[ebp]
  00205	8d 7d d8	 lea	 edi, DWORD PTR _vLinkPosOffset$[ebp]
  00208	a5		 movsd
  00209	a5		 movsd

; 132  : 			SetPosition( vLinkPosOffset );

  0020a	8d 45 d8	 lea	 eax, DWORD PTR _vLinkPosOffset$[ebp]
  0020d	50		 push	 eax
  0020e	8b cb		 mov	 ecx, ebx
  00210	a5		 movsd
  00211	e8 00 00 00 00	 call	 ?SetPosition@ioWeapon@@QAEXABUD3DXVECTOR3@@@Z ; ioWeapon::SetPosition
$LN1@SetMesh:

; 133  : 		}
; 134  : 	}
; 135  : 
; 136  : 	m_pMesh->UpdateBounds( true );

  00216	8b 8b e8 08 00
	00		 mov	 ecx, DWORD PTR [ebx+2280]
  0021c	83 c1 14	 add	 ecx, 20			; 00000014H
  0021f	8b 01		 mov	 eax, DWORD PTR [ecx]
  00221	6a 01		 push	 1
  00223	ff 50 44	 call	 DWORD PTR [eax+68]

; 137  : 	m_LocalAttackBox = m_pMesh->GetCollisionBox();

  00226	8b 8b e8 08 00
	00		 mov	 ecx, DWORD PTR [ebx+2280]
  0022c	ff 15 00 00 00
	00		 call	 DWORD PTR __imp_?GetCollisionBox@ioEffect@@QBEABVioOrientBox@@XZ
  00232	6a 11		 push	 17			; 00000011H
  00234	59		 pop	 ecx

; 138  : 
; 139  : 	AddEffectEvent( m_pMesh );

  00235	ff b3 e8 08 00
	00		 push	 DWORD PTR [ebx+2280]
  0023b	8b f0		 mov	 esi, eax
  0023d	8b 03		 mov	 eax, DWORD PTR [ebx]
  0023f	8d bb 98 08 00
	00		 lea	 edi, DWORD PTR [ebx+2200]
  00245	f3 a5		 rep movsd
  00247	8b cb		 mov	 ecx, ebx
  00249	ff 90 68 01 00
	00		 call	 DWORD PTR [eax+360]

; 140  : 	return true;

  0024f	83 4d fc ff	 or	 DWORD PTR __$EHRec$[ebp+8], -1
  00253	8d 4d ac	 lea	 ecx, DWORD PTR _szLinkBiped$[ebp]
  00256	ff 15 00 00 00
	00		 call	 DWORD PTR __imp_??1ioHashString@@QAE@XZ
  0025c	b0 01		 mov	 al, 1
$LN5@SetMesh:

; 141  : }

  0025e	e8 00 00 00 00	 call	 __EH_epilog3_GS
  00263	c2 04 00	 ret	 4
_TEXT	ENDS
;	COMDAT text$x
text$x	SEGMENT
__unwindfunclet$?SetMesh@ioControlMeshWeapon@@IAE_NABVioHashString@@@Z$0:
  00000	8d 4d ac	 lea	 ecx, DWORD PTR _szLinkBiped$[ebp]
  00003	ff 25 00 00 00
	00		 jmp	 DWORD PTR __imp_??1ioHashString@@QAE@XZ
__unwindfunclet$?SetMesh@ioControlMeshWeapon@@IAE_NABVioHashString@@@Z$1:
  00009	8b 45 bc	 mov	 eax, DWORD PTR $T533899[ebp]
  0000c	83 e0 01	 and	 eax, 1
  0000f	0f 84 0d 00 00
	00		 je	 $LN13@SetMesh
  00015	83 65 bc fe	 and	 DWORD PTR $T533899[ebp], -2 ; fffffffeH
  00019	8d 4d c8	 lea	 ecx, DWORD PTR $T533894[ebp]
  0001c	ff 25 00 00 00
	00		 jmp	 DWORD PTR __imp_??1ioHashString@@QAE@XZ
$LN13@SetMesh:
  00022	c3		 ret	 0
__ehhandler$?SetMesh@ioControlMeshWeapon@@IAE_NABVioHashString@@@Z:
  00023	8b 54 24 08	 mov	 edx, DWORD PTR [esp+8]
  00027	8d 42 0c	 lea	 eax, DWORD PTR [edx+12]
  0002a	8b 4a 98	 mov	 ecx, DWORD PTR [edx-104]
  0002d	33 c8		 xor	 ecx, eax
  0002f	e8 00 00 00 00	 call	 @__security_check_cookie@4
  00034	8b 4a fc	 mov	 ecx, DWORD PTR [edx-4]
  00037	33 c8		 xor	 ecx, eax
  00039	e8 00 00 00 00	 call	 @__security_check_cookie@4
  0003e	b8 00 00 00 00	 mov	 eax, OFFSET __ehfuncinfo$?SetMesh@ioControlMeshWeapon@@IAE_NABVioHashString@@@Z
  00043	e9 00 00 00 00	 jmp	 ___CxxFrameHandler3
text$x	ENDS
?SetMesh@ioControlMeshWeapon@@IAE_NABVioHashString@@@Z ENDP ; ioControlMeshWeapon::SetMesh
PUBLIC	__$ArrayPad$
EXTRN	?SetOrientation@ioWeapon@@QAEXABUD3DXQUATERNION@@@Z:PROC ; ioWeapon::SetOrientation
EXTRN	__imp_?CalcDirectionQuaternion@ioMath@@SAXAAUD3DXQUATERNION@@ABUD3DXVECTOR3@@@Z:PROC
EXTRN	___security_cookie:DWORD
; Function compile flags: /Ogsp
;	COMDAT ?SetMoveDir@ioControlMeshWeapon@@UAEXABUD3DXVECTOR3@@@Z
_TEXT	SEGMENT
_qtRot$ = -32						; size = 16
$T530758 = -16						; size = 12
__$ArrayPad$ = -4					; size = 4
_vDir$ = 8						; size = 4
?SetMoveDir@ioControlMeshWeapon@@UAEXABUD3DXVECTOR3@@@Z PROC ; ioControlMeshWeapon::SetMoveDir, COMDAT
; _this$ = ecx

; 173  : {

  00000	55		 push	 ebp
  00001	8b ec		 mov	 ebp, esp
  00003	83 ec 20	 sub	 esp, 32			; 00000020H
  00006	a1 00 00 00 00	 mov	 eax, DWORD PTR ___security_cookie
  0000b	33 c5		 xor	 eax, ebp
  0000d	89 45 fc	 mov	 DWORD PTR __$ArrayPad$[ebp], eax
  00010	8b 45 08	 mov	 eax, DWORD PTR _vDir$[ebp]
  00013	53		 push	 ebx
  00014	56		 push	 esi
  00015	57		 push	 edi
  00016	8b d9		 mov	 ebx, ecx

; 174  : 	m_vMoveDir = vDir;

  00018	8b f0		 mov	 esi, eax
  0001a	8d bb dc 08 00
	00		 lea	 edi, DWORD PTR [ebx+2268]
  00020	a5		 movsd
  00021	a5		 movsd
  00022	a5		 movsd

; 175  : 
; 176  : 	D3DXQUATERNION qtRot;
; 177  : 	ioMath::CalcDirectionQuaternion( qtRot, -vDir );

  00023	f3 0f 10 08	 movss	 xmm1, DWORD PTR [eax]
  00027	f3 0f 10 05 00
	00 00 00	 movss	 xmm0, DWORD PTR __mask@@NegFloat@
  0002f	0f 57 c8	 xorps	 xmm1, xmm0
  00032	f3 0f 11 4d f0	 movss	 DWORD PTR $T530758[ebp], xmm1
  00037	f3 0f 10 48 04	 movss	 xmm1, DWORD PTR [eax+4]
  0003c	0f 57 c8	 xorps	 xmm1, xmm0
  0003f	f3 0f 11 4d f4	 movss	 DWORD PTR $T530758[ebp+4], xmm1
  00044	f3 0f 10 48 08	 movss	 xmm1, DWORD PTR [eax+8]
  00049	8d 45 f0	 lea	 eax, DWORD PTR $T530758[ebp]
  0004c	50		 push	 eax
  0004d	8d 45 e0	 lea	 eax, DWORD PTR _qtRot$[ebp]
  00050	0f 57 c8	 xorps	 xmm1, xmm0
  00053	50		 push	 eax
  00054	f3 0f 11 4d f8	 movss	 DWORD PTR $T530758[ebp+8], xmm1
  00059	ff 15 00 00 00
	00		 call	 DWORD PTR __imp_?CalcDirectionQuaternion@ioMath@@SAXAAUD3DXQUATERNION@@ABUD3DXVECTOR3@@@Z
  0005f	59		 pop	 ecx
  00060	59		 pop	 ecx

; 178  : 	SetOrientation( qtRot );

  00061	8d 45 e0	 lea	 eax, DWORD PTR _qtRot$[ebp]
  00064	50		 push	 eax
  00065	8b cb		 mov	 ecx, ebx
  00067	e8 00 00 00 00	 call	 ?SetOrientation@ioWeapon@@QAEXABUD3DXQUATERNION@@@Z ; ioWeapon::SetOrientation

; 179  : }

  0006c	8b 4d fc	 mov	 ecx, DWORD PTR __$ArrayPad$[ebp]
  0006f	5f		 pop	 edi
  00070	5e		 pop	 esi
  00071	33 cd		 xor	 ecx, ebp
  00073	5b		 pop	 ebx
  00074	e8 00 00 00 00	 call	 @__security_check_cookie@4
  00079	c9		 leave
  0007a	c2 04 00	 ret	 4
?SetMoveDir@ioControlMeshWeapon@@UAEXABUD3DXVECTOR3@@@Z ENDP ; ioControlMeshWeapon::SetMoveDir
_TEXT	ENDS
PUBLIC	_bMapCollision$GSCopy$
PUBLIC	__$ArrayPad$
; Function compile flags: /Ogsp
;	COMDAT ?IsCollision@ioControlMeshWeapon@@UAE_NPAVioPlayEntity@@_N@Z
_TEXT	SEGMENT
_bMapCollision$GSCopy$ = -20				; size = 1
_vColPoint$ = -16					; size = 12
__$ArrayPad$ = -4					; size = 4
_pEntity$ = 8						; size = 4
_bMapCollision$ = 12					; size = 1
?IsCollision@ioControlMeshWeapon@@UAE_NPAVioPlayEntity@@_N@Z PROC ; ioControlMeshWeapon::IsCollision, COMDAT
; _this$ = ecx

; 357  : {

  00000	55		 push	 ebp
  00001	8b ec		 mov	 ebp, esp
  00003	83 ec 14	 sub	 esp, 20			; 00000014H
  00006	a1 00 00 00 00	 mov	 eax, DWORD PTR ___security_cookie
  0000b	33 c5		 xor	 eax, ebp
  0000d	89 45 fc	 mov	 DWORD PTR __$ArrayPad$[ebp], eax

; 358  : 	bool bCollision = false;
; 359  : 	D3DXVECTOR3 vColPoint( 0.0f, 0.0f, 0.0f );
; 360  : 	if( pEntity->IsWoundedCollision( GetWorldAttackBox(bMapCollision), &vColPoint ) )

  00010	8a 45 0c	 mov	 al, BYTE PTR _bMapCollision$[ebp]
  00013	0f 57 c0	 xorps	 xmm0, xmm0
  00016	53		 push	 ebx
  00017	56		 push	 esi
  00018	8b 75 08	 mov	 esi, DWORD PTR _pEntity$[ebp]
  0001b	57		 push	 edi
  0001c	8b 3e		 mov	 edi, DWORD PTR [esi]
  0001e	88 45 ec	 mov	 BYTE PTR _bMapCollision$GSCopy$[ebp], al
  00021	8d 45 f0	 lea	 eax, DWORD PTR _vColPoint$[ebp]
  00024	50		 push	 eax
  00025	ff 75 ec	 push	 DWORD PTR _bMapCollision$GSCopy$[ebp]
  00028	32 db		 xor	 bl, bl
  0002a	f3 0f 11 45 f0	 movss	 DWORD PTR _vColPoint$[ebp], xmm0
  0002f	f3 0f 11 45 f4	 movss	 DWORD PTR _vColPoint$[ebp+4], xmm0
  00034	f3 0f 11 45 f8	 movss	 DWORD PTR _vColPoint$[ebp+8], xmm0
  00039	e8 00 00 00 00	 call	 ?GetWorldAttackBox@ioWeapon@@QBEABVioOrientBox@@_N@Z ; ioWeapon::GetWorldAttackBox
  0003e	50		 push	 eax
  0003f	8b ce		 mov	 ecx, esi
  00041	ff 97 90 00 00
	00		 call	 DWORD PTR [edi+144]
  00047	84 c0		 test	 al, al
  00049	74 02		 je	 SHORT $LN1@IsCollisio

; 361  : 		bCollision = true;

  0004b	fe c3		 inc	 bl
$LN1@IsCollisio:

; 362  : 
; 363  : 	return bCollision;
; 364  : }

  0004d	8b 4d fc	 mov	 ecx, DWORD PTR __$ArrayPad$[ebp]
  00050	5f		 pop	 edi
  00051	5e		 pop	 esi
  00052	8a c3		 mov	 al, bl
  00054	33 cd		 xor	 ecx, ebp
  00056	5b		 pop	 ebx
  00057	e8 00 00 00 00	 call	 @__security_check_cookie@4
  0005c	c9		 leave
  0005d	c2 08 00	 ret	 8
?IsCollision@ioControlMeshWeapon@@UAE_NPAVioPlayEntity@@_N@Z ENDP ; ioControlMeshWeapon::IsCollision
_TEXT	ENDS
PUBLIC	__real@4f800000
PUBLIC	__$ArrayPad$
PUBLIC	?CreateMapCollisionEffect@ioControlMeshWeapon@@IAEXPAVioPlayStage@@@Z ; ioControlMeshWeapon::CreateMapCollisionEffect
;	COMDAT __real@4f800000
; File c:\program files (x86)\microsoft directx sdk (june 2010)\include\d3dx9math.inl
CONST	SEGMENT
__real@4f800000 DD 04f800000r			; 4.29497e+009
; Function compile flags: /Ogsp
; File d:\lost saga for developer\youtube\tutorial\source\src\lsclient\iocontrolmeshweapon.cpp
CONST	ENDS
;	COMDAT ?CreateMapCollisionEffect@ioControlMeshWeapon@@IAEXPAVioPlayStage@@@Z
_TEXT	SEGMENT
tv167 = -20						; size = 4
tv164 = -20						; size = 4
tv161 = -20						; size = 4
$T531006 = -16						; size = 12
__$ArrayPad$ = -4					; size = 4
_pStage$ = 8						; size = 4
?CreateMapCollisionEffect@ioControlMeshWeapon@@IAEXPAVioPlayStage@@@Z PROC ; ioControlMeshWeapon::CreateMapCollisionEffect, COMDAT
; _this$ = ecx

; 557  : {

  00000	55		 push	 ebp
  00001	8b ec		 mov	 ebp, esp
  00003	83 ec 14	 sub	 esp, 20			; 00000014H
  00006	a1 00 00 00 00	 mov	 eax, DWORD PTR ___security_cookie
  0000b	33 c5		 xor	 eax, ebp
  0000d	89 45 fc	 mov	 DWORD PTR __$ArrayPad$[ebp], eax
  00010	56		 push	 esi
  00011	8b f1		 mov	 esi, ecx

; 558  : 	pStage->CreateMapEffect( m_szMapCollisionEffect, GetPosition(), D3DXVECTOR3( FLOAT1, FLOAT1, FLOAT1 ) );

  00013	b8 01 00 00 00	 mov	 eax, 1
  00018	8b c8		 mov	 ecx, eax
  0001a	b8 01 00 00 00	 mov	 eax, 1
  0001f	8b d0		 mov	 edx, eax
  00021	b8 01 00 00 00	 mov	 eax, 1
  00026	89 45 ec	 mov	 DWORD PTR tv167[ebp], eax
  00029	db 45 ec	 fild	 DWORD PTR tv167[ebp]
  0002c	85 c0		 test	 eax, eax
  0002e	79 06		 jns	 SHORT $LN11@CreateMapC
  00030	d8 05 00 00 00
	00		 fadd	 DWORD PTR __real@4f800000
$LN11@CreateMapC:
  00036	89 55 ec	 mov	 DWORD PTR tv164[ebp], edx
  00039	d9 5d f0	 fstp	 DWORD PTR $T531006[ebp]
  0003c	db 45 ec	 fild	 DWORD PTR tv164[ebp]
  0003f	85 d2		 test	 edx, edx
  00041	79 06		 jns	 SHORT $LN12@CreateMapC
  00043	d8 05 00 00 00
	00		 fadd	 DWORD PTR __real@4f800000
$LN12@CreateMapC:
  00049	89 4d ec	 mov	 DWORD PTR tv161[ebp], ecx
  0004c	d9 5d f4	 fstp	 DWORD PTR $T531006[ebp+4]
  0004f	db 45 ec	 fild	 DWORD PTR tv161[ebp]
  00052	85 c9		 test	 ecx, ecx
  00054	79 06		 jns	 SHORT $LN13@CreateMapC
  00056	d8 05 00 00 00
	00		 fadd	 DWORD PTR __real@4f800000
$LN13@CreateMapC:
  0005c	8d 45 f0	 lea	 eax, DWORD PTR $T531006[ebp]
  0005f	d9 5d f8	 fstp	 DWORD PTR $T531006[ebp+8]
  00062	50		 push	 eax
  00063	8b 06		 mov	 eax, DWORD PTR [esi]
  00065	8b ce		 mov	 ecx, esi
  00067	ff 50 70	 call	 DWORD PTR [eax+112]
  0006a	8b 4d 08	 mov	 ecx, DWORD PTR _pStage$[ebp]
  0006d	50		 push	 eax
  0006e	81 c6 fc 08 00
	00		 add	 esi, 2300		; 000008fcH
  00074	56		 push	 esi
  00075	e8 00 00 00 00	 call	 ?CreateMapEffect@ioPlayStage@@QAEPAVioMapEffect@@ABVioHashString@@ABUD3DXVECTOR3@@1@Z ; ioPlayStage::CreateMapEffect

; 559  : }

  0007a	8b 4d fc	 mov	 ecx, DWORD PTR __$ArrayPad$[ebp]
  0007d	33 cd		 xor	 ecx, ebp
  0007f	5e		 pop	 esi
  00080	e8 00 00 00 00	 call	 @__security_check_cookie@4
  00085	c9		 leave
  00086	c2 04 00	 ret	 4
?CreateMapCollisionEffect@ioControlMeshWeapon@@IAEXPAVioPlayStage@@@Z ENDP ; ioControlMeshWeapon::CreateMapCollisionEffect
_TEXT	ENDS
PUBLIC	??K?$CEncrypt@M@@QAEMABK@Z			; CEncrypt<float>::operator/
; Function compile flags: /Ogsp
; File d:\lost saga for developer\youtube\tutorial\source\src\lsclient\encryptvalue.h
;	COMDAT ??K?$CEncrypt@M@@QAEMABK@Z
_TEXT	SEGMENT
_value$ = -4						; size = 4
tv128 = 8						; size = 4
tv74 = 8						; size = 4
_inValue$ = 8						; size = 4
??K?$CEncrypt@M@@QAEMABK@Z PROC				; CEncrypt<float>::operator/, COMDAT
; _this$ = ecx

; 1305 : 	{

  00000	55		 push	 ebp
  00001	8b ec		 mov	 ebp, esp
  00003	51		 push	 ecx

; 1306 : 		type value;
; 1307 : 		DecryptValueToPool(&value);

  00004	8d 45 fc	 lea	 eax, DWORD PTR _value$[ebp]
  00007	50		 push	 eax
  00008	e8 00 00 00 00	 call	 ?DecryptValueToPool@?$CEncrypt@M@@QAEXPAM@Z ; CEncrypt<float>::DecryptValueToPool

; 1308 : #ifdef _NOTUSE
; 1309 : 		Debug();
; 1310 : #endif
; 1311 : 		return value / inValue;

  0000d	d9 45 fc	 fld	 DWORD PTR _value$[ebp]
  00010	8b 45 08	 mov	 eax, DWORD PTR _inValue$[ebp]
  00013	8b 00		 mov	 eax, DWORD PTR [eax]
  00015	89 45 08	 mov	 DWORD PTR tv128[ebp], eax
  00018	db 45 08	 fild	 DWORD PTR tv128[ebp]
  0001b	85 c0		 test	 eax, eax
  0001d	79 06		 jns	 SHORT $LN3@operator@2
  0001f	d8 05 00 00 00
	00		 fadd	 DWORD PTR __real@4f800000
$LN3@operator@2:
  00025	de f9		 fdivp	 ST(1), ST(0)
  00027	d9 5d 08	 fstp	 DWORD PTR tv74[ebp]
  0002a	d9 45 08	 fld	 DWORD PTR tv74[ebp]

; 1312 : 	}

  0002d	c9		 leave
  0002e	c2 04 00	 ret	 4
??K?$CEncrypt@M@@QAEMABK@Z ENDP				; CEncrypt<float>::operator/
_TEXT	ENDS
PUBLIC	??D?$CEncrypt@M@@QAEMABM@Z			; CEncrypt<float>::operator*
; Function compile flags: /Ogsp
;	COMDAT ??D?$CEncrypt@M@@QAEMABM@Z
_TEXT	SEGMENT
_value$ = -4						; size = 4
tv130 = 8						; size = 4
_inValue$ = 8						; size = 4
??D?$CEncrypt@M@@QAEMABM@Z PROC				; CEncrypt<float>::operator*, COMDAT
; _this$ = ecx

; 1685 : 	{	

  00000	55		 push	 ebp
  00001	8b ec		 mov	 ebp, esp
  00003	51		 push	 ecx

; 1686 : 		type value;
; 1687 : 		DecryptValueToPool(&value);

  00004	8d 45 fc	 lea	 eax, DWORD PTR _value$[ebp]
  00007	50		 push	 eax
  00008	e8 00 00 00 00	 call	 ?DecryptValueToPool@?$CEncrypt@M@@QAEXPAM@Z ; CEncrypt<float>::DecryptValueToPool

; 1688 : #ifdef _NOTUSE
; 1689 : 		Debug();
; 1690 : #endif
; 1691 : 		return value * inValue;

  0000d	8b 45 08	 mov	 eax, DWORD PTR _inValue$[ebp]
  00010	d9 00		 fld	 DWORD PTR [eax]
  00012	d8 4d fc	 fmul	 DWORD PTR _value$[ebp]
  00015	d9 5d 08	 fstp	 DWORD PTR tv130[ebp]
  00018	d9 45 08	 fld	 DWORD PTR tv130[ebp]

; 1692 : 	}

  0001b	c9		 leave
  0001c	c2 04 00	 ret	 4
??D?$CEncrypt@M@@QAEMABM@Z ENDP				; CEncrypt<float>::operator*
_TEXT	ENDS
PUBLIC	??8?$CEncrypt@M@@QAE_NABM@Z			; CEncrypt<float>::operator==
; Function compile flags: /Ogsp
;	COMDAT ??8?$CEncrypt@M@@QAE_NABM@Z
_TEXT	SEGMENT
_value$ = -4						; size = 4
_inValue$ = 8						; size = 4
??8?$CEncrypt@M@@QAE_NABM@Z PROC			; CEncrypt<float>::operator==, COMDAT
; _this$ = ecx

; 1781 : 	{

  00000	55		 push	 ebp
  00001	8b ec		 mov	 ebp, esp
  00003	51		 push	 ecx

; 1782 : 		type value;
; 1783 : 		DecryptValueToPool(&value);

  00004	8d 45 fc	 lea	 eax, DWORD PTR _value$[ebp]
  00007	50		 push	 eax
  00008	e8 00 00 00 00	 call	 ?DecryptValueToPool@?$CEncrypt@M@@QAEXPAM@Z ; CEncrypt<float>::DecryptValueToPool

; 1784 : #ifdef _NOTUSE
; 1785 : 		Debug();
; 1786 : #endif
; 1787 : 		return (value == inValue);

  0000d	8b 45 08	 mov	 eax, DWORD PTR _inValue$[ebp]
  00010	f3 0f 10 08	 movss	 xmm1, DWORD PTR [eax]
  00014	f3 0f 10 45 fc	 movss	 xmm0, DWORD PTR _value$[ebp]
  00019	0f 5a c0	 cvtps2pd xmm0, xmm0
  0001c	0f 5a c9	 cvtps2pd xmm1, xmm1
  0001f	66 0f 2e c1	 ucomisd xmm0, xmm1
  00023	9f		 lahf
  00024	f6 c4 44	 test	 ah, 68			; 00000044H
  00027	7a 05		 jp	 SHORT $LN3@operator@3
  00029	33 c0		 xor	 eax, eax
  0002b	40		 inc	 eax
  0002c	eb 02		 jmp	 SHORT $LN4@operator@3
$LN3@operator@3:
  0002e	33 c0		 xor	 eax, eax
$LN4@operator@3:

; 1788 : 	} 

  00030	c9		 leave
  00031	c2 04 00	 ret	 4
??8?$CEncrypt@M@@QAE_NABM@Z ENDP			; CEncrypt<float>::operator==
_TEXT	ENDS
PUBLIC	??M?$CEncrypt@M@@QAE_NABM@Z			; CEncrypt<float>::operator<
; Function compile flags: /Ogsp
;	COMDAT ??M?$CEncrypt@M@@QAE_NABM@Z
_TEXT	SEGMENT
_value$ = -4						; size = 4
_inValue$ = 8						; size = 4
??M?$CEncrypt@M@@QAE_NABM@Z PROC			; CEncrypt<float>::operator<, COMDAT
; _this$ = ecx

; 1791 : 	{

  00000	55		 push	 ebp
  00001	8b ec		 mov	 ebp, esp
  00003	51		 push	 ecx

; 1792 : 		type value;
; 1793 : 		DecryptValueToPool(&value);

  00004	8d 45 fc	 lea	 eax, DWORD PTR _value$[ebp]
  00007	50		 push	 eax
  00008	e8 00 00 00 00	 call	 ?DecryptValueToPool@?$CEncrypt@M@@QAEXPAM@Z ; CEncrypt<float>::DecryptValueToPool

; 1794 : #ifdef _NOTUSE
; 1795 : 		Debug();
; 1796 : #endif
; 1797 : 		return (value < inValue);

  0000d	8b 45 08	 mov	 eax, DWORD PTR _inValue$[ebp]
  00010	f3 0f 10 08	 movss	 xmm1, DWORD PTR [eax]
  00014	f3 0f 10 45 fc	 movss	 xmm0, DWORD PTR _value$[ebp]
  00019	0f 5a c0	 cvtps2pd xmm0, xmm0
  0001c	0f 5a c9	 cvtps2pd xmm1, xmm1
  0001f	33 c0		 xor	 eax, eax
  00021	66 0f 2f c8	 comisd	 xmm1, xmm0
  00025	76 01		 jbe	 SHORT $LN4@operator@4
  00027	40		 inc	 eax
$LN4@operator@4:

; 1798 : 	} 

  00028	c9		 leave
  00029	c2 04 00	 ret	 4
??M?$CEncrypt@M@@QAE_NABM@Z ENDP			; CEncrypt<float>::operator<
_TEXT	ENDS
PUBLIC	??8?$CEncrypt@K@@QAE_NABH@Z			; CEncrypt<unsigned long>::operator==
; Function compile flags: /Ogsp
;	COMDAT ??8?$CEncrypt@K@@QAE_NABH@Z
_TEXT	SEGMENT
_value$ = -4						; size = 4
_inValue$ = 8						; size = 4
??8?$CEncrypt@K@@QAE_NABH@Z PROC			; CEncrypt<unsigned long>::operator==, COMDAT
; _this$ = ecx

; 976  : 	{

  00000	55		 push	 ebp
  00001	8b ec		 mov	 ebp, esp
  00003	51		 push	 ecx

; 977  : 		
; 978  : 		type value;
; 979  : 		DecryptValueToPool(&value);

  00004	8d 45 fc	 lea	 eax, DWORD PTR _value$[ebp]
  00007	50		 push	 eax
  00008	e8 00 00 00 00	 call	 ?DecryptValueToPool@?$CEncrypt@K@@QAEXPAK@Z ; CEncrypt<unsigned long>::DecryptValueToPool

; 980  : #ifdef _NOTUSE
; 981  : 		Debug();
; 982  : #endif
; 983  : 		return (value == inValue);

  0000d	8b 4d 08	 mov	 ecx, DWORD PTR _inValue$[ebp]
  00010	8b 55 fc	 mov	 edx, DWORD PTR _value$[ebp]
  00013	33 c0		 xor	 eax, eax
  00015	3b 11		 cmp	 edx, DWORD PTR [ecx]
  00017	0f 94 c0	 sete	 al

; 984  : 	} 

  0001a	c9		 leave
  0001b	c2 04 00	 ret	 4
??8?$CEncrypt@K@@QAE_NABH@Z ENDP			; CEncrypt<unsigned long>::operator==
_TEXT	ENDS
PUBLIC	??K?$CEncrypt@K@@QAEKABK@Z			; CEncrypt<unsigned long>::operator/
; Function compile flags: /Ogsp
;	COMDAT ??K?$CEncrypt@K@@QAEKABK@Z
_TEXT	SEGMENT
_value$ = -4						; size = 4
_inValue$ = 8						; size = 4
??K?$CEncrypt@K@@QAEKABK@Z PROC				; CEncrypt<unsigned long>::operator/, COMDAT
; _this$ = ecx

; 1305 : 	{

  00000	55		 push	 ebp
  00001	8b ec		 mov	 ebp, esp
  00003	51		 push	 ecx

; 1306 : 		type value;
; 1307 : 		DecryptValueToPool(&value);

  00004	8d 45 fc	 lea	 eax, DWORD PTR _value$[ebp]
  00007	50		 push	 eax
  00008	e8 00 00 00 00	 call	 ?DecryptValueToPool@?$CEncrypt@K@@QAEXPAK@Z ; CEncrypt<unsigned long>::DecryptValueToPool

; 1308 : #ifdef _NOTUSE
; 1309 : 		Debug();
; 1310 : #endif
; 1311 : 		return value / inValue;

  0000d	8b 45 fc	 mov	 eax, DWORD PTR _value$[ebp]
  00010	8b 4d 08	 mov	 ecx, DWORD PTR _inValue$[ebp]
  00013	33 d2		 xor	 edx, edx
  00015	f7 31		 div	 DWORD PTR [ecx]

; 1312 : 	}

  00017	c9		 leave
  00018	c2 04 00	 ret	 4
??K?$CEncrypt@K@@QAEKABK@Z ENDP				; CEncrypt<unsigned long>::operator/
_TEXT	ENDS
PUBLIC	??Y?$CEncrypt@K@@QAEAAKABK@Z			; CEncrypt<unsigned long>::operator+=
; Function compile flags: /Ogsp
;	COMDAT ??Y?$CEncrypt@K@@QAEAAKABK@Z
_TEXT	SEGMENT
_value$ = -4						; size = 4
_inValue$ = 8						; size = 4
??Y?$CEncrypt@K@@QAEAAKABK@Z PROC			; CEncrypt<unsigned long>::operator+=, COMDAT
; _this$ = ecx

; 1325 : 	{

  00000	55		 push	 ebp
  00001	8b ec		 mov	 ebp, esp
  00003	51		 push	 ecx
  00004	56		 push	 esi

; 1326 : 		type value;
; 1327 : 		DecryptValueToPool(&value);

  00005	8d 45 fc	 lea	 eax, DWORD PTR _value$[ebp]
  00008	50		 push	 eax
  00009	8b f1		 mov	 esi, ecx
  0000b	e8 00 00 00 00	 call	 ?DecryptValueToPool@?$CEncrypt@K@@QAEXPAK@Z ; CEncrypt<unsigned long>::DecryptValueToPool

; 1328 : 		value += inValue;

  00010	8b 45 08	 mov	 eax, DWORD PTR _inValue$[ebp]
  00013	8b 00		 mov	 eax, DWORD PTR [eax]
  00015	01 45 fc	 add	 DWORD PTR _value$[ebp], eax

; 1329 : 		EncryptValueToPool((char*)&value);

  00018	8d 45 fc	 lea	 eax, DWORD PTR _value$[ebp]
  0001b	50		 push	 eax
  0001c	8b ce		 mov	 ecx, esi
  0001e	e8 00 00 00 00	 call	 ?EncryptValueToPool@?$CEncrypt@K@@AAEXPBD@Z ; CEncrypt<unsigned long>::EncryptValueToPool

; 1330 : #ifdef _NOTUSE
; 1331 : 		m_value += inValue;
; 1332 : 		Debug();
; 1333 : #endif
; 1334 : 		return value;

  00023	8d 45 fc	 lea	 eax, DWORD PTR _value$[ebp]
  00026	5e		 pop	 esi

; 1335 : 	} 

  00027	c9		 leave
  00028	c2 04 00	 ret	 4
??Y?$CEncrypt@K@@QAEAAKABK@Z ENDP			; CEncrypt<unsigned long>::operator+=
_TEXT	ENDS
PUBLIC	??M?$CEncrypt@K@@QAE_NABK@Z			; CEncrypt<unsigned long>::operator<
; Function compile flags: /Ogsp
;	COMDAT ??M?$CEncrypt@K@@QAE_NABK@Z
_TEXT	SEGMENT
_value$ = -4						; size = 4
_inValue$ = 8						; size = 4
??M?$CEncrypt@K@@QAE_NABK@Z PROC			; CEncrypt<unsigned long>::operator<, COMDAT
; _this$ = ecx

; 1401 : 	{

  00000	55		 push	 ebp
  00001	8b ec		 mov	 ebp, esp
  00003	51		 push	 ecx

; 1402 : 		type value;
; 1403 : 		DecryptValueToPool(&value);

  00004	8d 45 fc	 lea	 eax, DWORD PTR _value$[ebp]
  00007	50		 push	 eax
  00008	e8 00 00 00 00	 call	 ?DecryptValueToPool@?$CEncrypt@K@@QAEXPAK@Z ; CEncrypt<unsigned long>::DecryptValueToPool

; 1404 : #ifdef _NOTUSE
; 1405 : 		Debug();
; 1406 : #endif
; 1407 : 		return (value < inValue);

  0000d	8b 45 08	 mov	 eax, DWORD PTR _inValue$[ebp]
  00010	8b 4d fc	 mov	 ecx, DWORD PTR _value$[ebp]
  00013	3b 08		 cmp	 ecx, DWORD PTR [eax]
  00015	1b c0		 sbb	 eax, eax
  00017	f7 d8		 neg	 eax

; 1408 : 	} 

  00019	c9		 leave
  0001a	c2 04 00	 ret	 4
??M?$CEncrypt@K@@QAE_NABK@Z ENDP			; CEncrypt<unsigned long>::operator<
_TEXT	ENDS
PUBLIC	??4?$CEncrypt@K@@QAEKM@Z			; CEncrypt<unsigned long>::operator=
EXTRN	__ftol2:PROC
; Function compile flags: /Ogsp
;	COMDAT ??4?$CEncrypt@K@@QAEKM@Z
_TEXT	SEGMENT
_value$ = 8						; size = 4
_inValue$ = 8						; size = 4
??4?$CEncrypt@K@@QAEKM@Z PROC				; CEncrypt<unsigned long>::operator=, COMDAT
; _this$ = ecx

; 1654 : 	{	

  00000	55		 push	 ebp
  00001	8b ec		 mov	 ebp, esp

; 1655 : 		type value = inValue;

  00003	d9 45 08	 fld	 DWORD PTR _inValue$[ebp]
  00006	56		 push	 esi
  00007	8b f1		 mov	 esi, ecx
  00009	e8 00 00 00 00	 call	 __ftol2
  0000e	89 45 08	 mov	 DWORD PTR _value$[ebp], eax

; 1656 : 		EncryptValueToPool((char*)&value);

  00011	8d 45 08	 lea	 eax, DWORD PTR _value$[ebp]
  00014	50		 push	 eax
  00015	8b ce		 mov	 ecx, esi
  00017	e8 00 00 00 00	 call	 ?EncryptValueToPool@?$CEncrypt@K@@AAEXPBD@Z ; CEncrypt<unsigned long>::EncryptValueToPool

; 1657 : #ifdef _NOTUSE
; 1658 : 		m_value = inValue;
; 1659 : 		Debug();
; 1660 : #endif
; 1661 : 		return value;

  0001c	8b 45 08	 mov	 eax, DWORD PTR _value$[ebp]
  0001f	5e		 pop	 esi

; 1662 : 	}

  00020	5d		 pop	 ebp
  00021	c2 04 00	 ret	 4
??4?$CEncrypt@K@@QAEKM@Z ENDP				; CEncrypt<unsigned long>::operator=
_TEXT	ENDS
PUBLIC	_this$GSCopy$
PUBLIC	__$ArrayPad$
PUBLIC	??$LoadString_e@$0M@@ioINILoader@@QAEXAAY0M@$$CBDAAY00$$CBDPADH@Z ; ioINILoader::LoadString_e<12>
EXTRN	__imp_?LoadStringA@ioINILoader@@QAEXPBD0PADH@Z:PROC
; Function compile flags: /Ogsp
; File d:\lost saga for developer\youtube\tutorial\source\src\io3dengine\ioiniloader.h
;	COMDAT ??$LoadString_e@$0M@@ioINILoader@@QAEXAAY0M@$$CBDAAY00$$CBDPADH@Z
_TEXT	SEGMENT
_this$GSCopy$ = -24					; size = 4
__k$ = -20						; size = 12
__$ArrayPad$ = -4					; size = 4
_k$ = 8							; size = 4
_d$ = 12						; size = 4
_b$ = 16						; size = 4
_i$ = 20						; size = 4
??$LoadString_e@$0M@@ioINILoader@@QAEXAAY0M@$$CBDAAY00$$CBDPADH@Z PROC ; ioINILoader::LoadString_e<12>, COMDAT
; _this$ = ecx

; 161  : 	{

  00000	55		 push	 ebp
  00001	8b ec		 mov	 ebp, esp
  00003	83 ec 18	 sub	 esp, 24			; 00000018H
  00006	a1 00 00 00 00	 mov	 eax, DWORD PTR ___security_cookie
  0000b	33 c5		 xor	 eax, ebp
  0000d	89 45 fc	 mov	 DWORD PTR __$ArrayPad$[ebp], eax
  00010	8b 45 08	 mov	 eax, DWORD PTR _k$[ebp]

; 162  : 		_ENCSTR(k, _k);

  00013	8a 10		 mov	 dl, BYTE PTR [eax]
  00015	56		 push	 esi
  00016	8b 75 0c	 mov	 esi, DWORD PTR _d$[ebp]
  00019	57		 push	 edi
  0001a	8b 7d 10	 mov	 edi, DWORD PTR _b$[ebp]
  0001d	89 4d e8	 mov	 DWORD PTR _this$GSCopy$[ebp], ecx
  00020	84 d2		 test	 dl, dl
  00022	0f 84 32 01 00
	00		 je	 $LN96@LoadString
  00028	80 f2 ed	 xor	 dl, -19			; ffffffedH
  0002b	88 55 ec	 mov	 BYTE PTR __k$[ebp], dl
  0002e	8a 50 01	 mov	 dl, BYTE PTR [eax+1]
  00031	84 d2		 test	 dl, dl
  00033	0f 84 1b 01 00
	00		 je	 $LN95@LoadString
  00039	80 f2 ec	 xor	 dl, -20			; ffffffecH
  0003c	88 55 ed	 mov	 BYTE PTR __k$[ebp+1], dl
  0003f	8a 50 02	 mov	 dl, BYTE PTR [eax+2]
  00042	84 d2		 test	 dl, dl
  00044	0f 84 04 01 00
	00		 je	 $LN94@LoadString
  0004a	b1 eb		 mov	 cl, -21			; ffffffebH
  0004c	32 d1		 xor	 dl, cl
  0004e	88 55 ee	 mov	 BYTE PTR __k$[ebp+2], dl
  00051	8a 50 03	 mov	 dl, BYTE PTR [eax+3]
  00054	84 d2		 test	 dl, dl
  00056	0f 84 ec 00 00
	00		 je	 $LN93@LoadString
  0005c	80 f2 ea	 xor	 dl, -22			; ffffffeaH
  0005f	88 55 ef	 mov	 BYTE PTR __k$[ebp+3], dl
  00062	8a 50 04	 mov	 dl, BYTE PTR [eax+4]
  00065	84 d2		 test	 dl, dl
  00067	0f 84 d5 00 00
	00		 je	 $LN92@LoadString
  0006d	80 f2 ed	 xor	 dl, -19			; ffffffedH
  00070	88 55 f0	 mov	 BYTE PTR __k$[ebp+4], dl
  00073	8a 50 05	 mov	 dl, BYTE PTR [eax+5]
  00076	84 d2		 test	 dl, dl
  00078	0f 84 be 00 00
	00		 je	 $LN91@LoadString
  0007e	80 f2 ec	 xor	 dl, -20			; ffffffecH
  00081	88 55 f1	 mov	 BYTE PTR __k$[ebp+5], dl
  00084	8a 50 06	 mov	 dl, BYTE PTR [eax+6]
  00087	84 d2		 test	 dl, dl
  00089	0f 84 a8 00 00
	00		 je	 $LN90@LoadString
  0008f	32 d1		 xor	 dl, cl
  00091	88 55 f2	 mov	 BYTE PTR __k$[ebp+6], dl
  00094	8a 50 07	 mov	 dl, BYTE PTR [eax+7]
  00097	84 d2		 test	 dl, dl
  00099	0f 84 92 00 00
	00		 je	 $LN89@LoadString
  0009f	80 f2 ea	 xor	 dl, -22			; ffffffeaH
  000a2	88 55 f3	 mov	 BYTE PTR __k$[ebp+7], dl
  000a5	8a 50 08	 mov	 dl, BYTE PTR [eax+8]
  000a8	84 d2		 test	 dl, dl
  000aa	74 7f		 je	 SHORT $LN88@LoadString
  000ac	80 f2 ed	 xor	 dl, -19			; ffffffedH
  000af	88 55 f4	 mov	 BYTE PTR __k$[ebp+8], dl
  000b2	8a 50 09	 mov	 dl, BYTE PTR [eax+9]
  000b5	84 d2		 test	 dl, dl
  000b7	74 6c		 je	 SHORT $LN87@LoadString
  000b9	80 f2 ec	 xor	 dl, -20			; ffffffecH
  000bc	88 55 f5	 mov	 BYTE PTR __k$[ebp+9], dl
  000bf	8a 50 0a	 mov	 dl, BYTE PTR [eax+10]
  000c2	84 d2		 test	 dl, dl
  000c4	74 5a		 je	 SHORT $LN86@LoadString
  000c6	32 d1		 xor	 dl, cl
  000c8	80 78 0b 00	 cmp	 BYTE PTR [eax+11], 0
  000cc	88 55 f6	 mov	 BYTE PTR __k$[ebp+10], dl
  000cf	0f 84 89 00 00
	00		 je	 $LN111@LoadString
  000d5	8a 50 0c	 mov	 dl, BYTE PTR [eax+12]
  000d8	84 d2		 test	 dl, dl
  000da	74 3e		 je	 SHORT $LN84@LoadString
  000dc	80 f2 ed	 xor	 dl, -19			; ffffffedH
  000df	88 55 f8	 mov	 BYTE PTR __k$[ebp+12], dl
  000e2	8a 50 0d	 mov	 dl, BYTE PTR [eax+13]
  000e5	84 d2		 test	 dl, dl
  000e7	74 2b		 je	 SHORT $LN83@LoadString
  000e9	80 f2 ec	 xor	 dl, -20			; ffffffecH
  000ec	88 55 f9	 mov	 BYTE PTR __k$[ebp+13], dl
  000ef	8a 50 0e	 mov	 dl, BYTE PTR [eax+14]
  000f2	84 d2		 test	 dl, dl
  000f4	74 19		 je	 SHORT $LN82@LoadString
  000f6	8a 40 0f	 mov	 al, BYTE PTR [eax+15]
  000f9	32 d1		 xor	 dl, cl
  000fb	88 55 fa	 mov	 BYTE PTR __k$[ebp+14], dl
  000fe	84 c0		 test	 al, al
  00100	74 07		 je	 SHORT $LN81@LoadString
  00102	34 ea		 xor	 al, -22			; ffffffeaH
  00104	88 45 fb	 mov	 BYTE PTR __k$[ebp+15], al
  00107	eb 55		 jmp	 SHORT $LN111@LoadString
$LN81@LoadString:
  00109	c6 45 fb ea	 mov	 BYTE PTR __k$[ebp+15], -22 ; ffffffeaH
  0010d	eb 4f		 jmp	 SHORT $LN111@LoadString
$LN82@LoadString:
  0010f	88 4d fa	 mov	 BYTE PTR __k$[ebp+14], cl
  00112	eb 4a		 jmp	 SHORT $LN111@LoadString
$LN83@LoadString:
  00114	c6 45 f9 ec	 mov	 BYTE PTR __k$[ebp+13], -20 ; ffffffecH
  00118	eb 44		 jmp	 SHORT $LN111@LoadString
$LN84@LoadString:
  0011a	c6 45 f8 ed	 mov	 BYTE PTR __k$[ebp+12], -19 ; ffffffedH
  0011e	eb 3e		 jmp	 SHORT $LN111@LoadString
$LN86@LoadString:
  00120	88 4d f6	 mov	 BYTE PTR __k$[ebp+10], cl
  00123	eb 39		 jmp	 SHORT $LN111@LoadString
$LN87@LoadString:
  00125	c6 45 f5 ec	 mov	 BYTE PTR __k$[ebp+9], -20 ; ffffffecH
  00129	eb 33		 jmp	 SHORT $LN111@LoadString
$LN88@LoadString:
  0012b	c6 45 f4 ed	 mov	 BYTE PTR __k$[ebp+8], -19 ; ffffffedH
  0012f	eb 2d		 jmp	 SHORT $LN111@LoadString
$LN89@LoadString:
  00131	c6 45 f3 ea	 mov	 BYTE PTR __k$[ebp+7], -22 ; ffffffeaH
  00135	eb 27		 jmp	 SHORT $LN111@LoadString
$LN90@LoadString:
  00137	88 4d f2	 mov	 BYTE PTR __k$[ebp+6], cl
  0013a	eb 22		 jmp	 SHORT $LN111@LoadString
$LN91@LoadString:
  0013c	c6 45 f1 ec	 mov	 BYTE PTR __k$[ebp+5], -20 ; ffffffecH
  00140	eb 1c		 jmp	 SHORT $LN111@LoadString
$LN92@LoadString:
  00142	c6 45 f0 ed	 mov	 BYTE PTR __k$[ebp+4], -19 ; ffffffedH
  00146	eb 16		 jmp	 SHORT $LN111@LoadString
$LN93@LoadString:
  00148	c6 45 ef ea	 mov	 BYTE PTR __k$[ebp+3], -22 ; ffffffeaH
  0014c	eb 10		 jmp	 SHORT $LN111@LoadString
$LN94@LoadString:
  0014e	c6 45 ee eb	 mov	 BYTE PTR __k$[ebp+2], -21 ; ffffffebH
  00152	eb 0a		 jmp	 SHORT $LN111@LoadString
$LN95@LoadString:
  00154	c6 45 ed ec	 mov	 BYTE PTR __k$[ebp+1], -20 ; ffffffecH
  00158	eb 04		 jmp	 SHORT $LN111@LoadString
$LN96@LoadString:
  0015a	c6 45 ec ed	 mov	 BYTE PTR __k$[ebp], -19	; ffffffedH
$LN111@LoadString:
  0015e	6a 02		 push	 2
  00160	8d 45 ec	 lea	 eax, DWORD PTR __k$[ebp]
  00163	c6 45 f7 00	 mov	 BYTE PTR __k$[ebp+11], 0
  00167	5a		 pop	 edx
$LL104@LoadString:
  00168	81 30 ed ec eb
	ea		 xor	 DWORD PTR [eax], -353637139 ; eaebecedH
  0016e	83 c0 04	 add	 eax, 4
  00171	4a		 dec	 edx
  00172	75 f4		 jne	 SHORT $LL104@LoadString
  00174	6a 08		 push	 8
  00176	58		 pop	 eax
$LL101@LoadString:
  00177	8b c8		 mov	 ecx, eax
  00179	81 e1 03 00 00
	80		 and	 ecx, -2147483645	; 80000003H
  0017f	79 05		 jns	 SHORT $LN112@LoadString
  00181	49		 dec	 ecx
  00182	83 c9 fc	 or	 ecx, -4			; fffffffcH
  00185	41		 inc	 ecx
$LN112@LoadString:
  00186	b2 ed		 mov	 dl, -19			; ffffffedH
  00188	2a d1		 sub	 dl, cl
  0018a	30 54 05 ec	 xor	 BYTE PTR __k$[ebp+eax], dl
  0018e	40		 inc	 eax
  0018f	83 f8 0b	 cmp	 eax, 11			; 0000000bH
  00192	7c e3		 jl	 SHORT $LL101@LoadString

; 163  : 		LoadString(_k, d, b, i);

  00194	ff 75 14	 push	 DWORD PTR _i$[ebp]
  00197	8b 4d e8	 mov	 ecx, DWORD PTR _this$GSCopy$[ebp]
  0019a	57		 push	 edi
  0019b	56		 push	 esi
  0019c	8d 45 ec	 lea	 eax, DWORD PTR __k$[ebp]
  0019f	50		 push	 eax
  001a0	ff 15 00 00 00
	00		 call	 DWORD PTR __imp_?LoadStringA@ioINILoader@@QAEXPBD0PADH@Z

; 164  : 	}

  001a6	8b 4d fc	 mov	 ecx, DWORD PTR __$ArrayPad$[ebp]
  001a9	5f		 pop	 edi
  001aa	33 cd		 xor	 ecx, ebp
  001ac	5e		 pop	 esi
  001ad	e8 00 00 00 00	 call	 @__security_check_cookie@4
  001b2	c9		 leave
  001b3	c2 10 00	 ret	 16			; 00000010H
??$LoadString_e@$0M@@ioINILoader@@QAEXAAY0M@$$CBDAAY00$$CBDPADH@Z ENDP ; ioINILoader::LoadString_e<12>
_TEXT	ENDS
PUBLIC	_this$GSCopy$
PUBLIC	__$ArrayPad$
PUBLIC	??$LoadString_e@$0BF@@ioINILoader@@QAEXAAY0BF@$$CBDAAY00$$CBDPADH@Z ; ioINILoader::LoadString_e<21>
; Function compile flags: /Ogsp
;	COMDAT ??$LoadString_e@$0BF@@ioINILoader@@QAEXAAY0BF@$$CBDAAY00$$CBDPADH@Z
_TEXT	SEGMENT
_this$GSCopy$ = -36					; size = 4
__k$ = -32						; size = 21
__$ArrayPad$ = -4					; size = 4
_k$ = 8							; size = 4
_d$ = 12						; size = 4
_b$ = 16						; size = 4
_i$ = 20						; size = 4
??$LoadString_e@$0BF@@ioINILoader@@QAEXAAY0BF@$$CBDAAY00$$CBDPADH@Z PROC ; ioINILoader::LoadString_e<21>, COMDAT
; _this$ = ecx

; 161  : 	{

  00000	55		 push	 ebp
  00001	8b ec		 mov	 ebp, esp
  00003	83 ec 24	 sub	 esp, 36			; 00000024H
  00006	a1 00 00 00 00	 mov	 eax, DWORD PTR ___security_cookie
  0000b	33 c5		 xor	 eax, ebp
  0000d	89 45 fc	 mov	 DWORD PTR __$ArrayPad$[ebp], eax
  00010	8b 45 08	 mov	 eax, DWORD PTR _k$[ebp]

; 162  : 		_ENCSTR(k, _k);

  00013	8a 10		 mov	 dl, BYTE PTR [eax]
  00015	53		 push	 ebx
  00016	56		 push	 esi
  00017	8b 75 0c	 mov	 esi, DWORD PTR _d$[ebp]
  0001a	57		 push	 edi
  0001b	8b 7d 10	 mov	 edi, DWORD PTR _b$[ebp]
  0001e	89 4d dc	 mov	 DWORD PTR _this$GSCopy$[ebp], ecx
  00021	84 d2		 test	 dl, dl
  00023	0f 84 f7 01 00
	00		 je	 $LN96@LoadString@2
  00029	80 f2 ed	 xor	 dl, -19			; ffffffedH
  0002c	88 55 e0	 mov	 BYTE PTR __k$[ebp], dl
  0002f	8a 50 01	 mov	 dl, BYTE PTR [eax+1]
  00032	84 d2		 test	 dl, dl
  00034	0f 84 e0 01 00
	00		 je	 $LN95@LoadString@2
  0003a	b1 ec		 mov	 cl, -20			; ffffffecH
  0003c	32 d1		 xor	 dl, cl
  0003e	88 55 e1	 mov	 BYTE PTR __k$[ebp+1], dl
  00041	8a 50 02	 mov	 dl, BYTE PTR [eax+2]
  00044	84 d2		 test	 dl, dl
  00046	0f 84 c8 01 00
	00		 je	 $LN94@LoadString@2
  0004c	b3 eb		 mov	 bl, -21			; ffffffebH
  0004e	32 d3		 xor	 dl, bl
  00050	88 55 e2	 mov	 BYTE PTR __k$[ebp+2], dl
  00053	8a 50 03	 mov	 dl, BYTE PTR [eax+3]
  00056	84 d2		 test	 dl, dl
  00058	0f 84 b0 01 00
	00		 je	 $LN93@LoadString@2
  0005e	80 f2 ea	 xor	 dl, -22			; ffffffeaH
  00061	88 55 e3	 mov	 BYTE PTR __k$[ebp+3], dl
  00064	8a 50 04	 mov	 dl, BYTE PTR [eax+4]
  00067	84 d2		 test	 dl, dl
  00069	0f 84 99 01 00
	00		 je	 $LN92@LoadString@2
  0006f	80 f2 ed	 xor	 dl, -19			; ffffffedH
  00072	88 55 e4	 mov	 BYTE PTR __k$[ebp+4], dl
  00075	8a 50 05	 mov	 dl, BYTE PTR [eax+5]
  00078	84 d2		 test	 dl, dl
  0007a	0f 84 83 01 00
	00		 je	 $LN91@LoadString@2
  00080	32 d1		 xor	 dl, cl
  00082	88 55 e5	 mov	 BYTE PTR __k$[ebp+5], dl
  00085	8a 50 06	 mov	 dl, BYTE PTR [eax+6]
  00088	84 d2		 test	 dl, dl
  0008a	0f 84 6e 01 00
	00		 je	 $LN90@LoadString@2
  00090	32 d3		 xor	 dl, bl
  00092	88 55 e6	 mov	 BYTE PTR __k$[ebp+6], dl
  00095	8a 50 07	 mov	 dl, BYTE PTR [eax+7]
  00098	84 d2		 test	 dl, dl
  0009a	0f 84 58 01 00
	00		 je	 $LN89@LoadString@2
  000a0	80 f2 ea	 xor	 dl, -22			; ffffffeaH
  000a3	88 55 e7	 mov	 BYTE PTR __k$[ebp+7], dl
  000a6	8a 50 08	 mov	 dl, BYTE PTR [eax+8]
  000a9	84 d2		 test	 dl, dl
  000ab	0f 84 41 01 00
	00		 je	 $LN88@LoadString@2
  000b1	80 f2 ed	 xor	 dl, -19			; ffffffedH
  000b4	88 55 e8	 mov	 BYTE PTR __k$[ebp+8], dl
  000b7	8a 50 09	 mov	 dl, BYTE PTR [eax+9]
  000ba	84 d2		 test	 dl, dl
  000bc	0f 84 2b 01 00
	00		 je	 $LN87@LoadString@2
  000c2	32 d1		 xor	 dl, cl
  000c4	88 55 e9	 mov	 BYTE PTR __k$[ebp+9], dl
  000c7	8a 50 0a	 mov	 dl, BYTE PTR [eax+10]
  000ca	84 d2		 test	 dl, dl
  000cc	0f 84 16 01 00
	00		 je	 $LN86@LoadString@2
  000d2	32 d3		 xor	 dl, bl
  000d4	88 55 ea	 mov	 BYTE PTR __k$[ebp+10], dl
  000d7	8a 50 0b	 mov	 dl, BYTE PTR [eax+11]
  000da	84 d2		 test	 dl, dl
  000dc	0f 84 00 01 00
	00		 je	 $LN85@LoadString@2
  000e2	80 f2 ea	 xor	 dl, -22			; ffffffeaH
  000e5	88 55 eb	 mov	 BYTE PTR __k$[ebp+11], dl
  000e8	8a 50 0c	 mov	 dl, BYTE PTR [eax+12]
  000eb	84 d2		 test	 dl, dl
  000ed	0f 84 e9 00 00
	00		 je	 $LN84@LoadString@2
  000f3	80 f2 ed	 xor	 dl, -19			; ffffffedH
  000f6	88 55 ec	 mov	 BYTE PTR __k$[ebp+12], dl
  000f9	8a 50 0d	 mov	 dl, BYTE PTR [eax+13]
  000fc	84 d2		 test	 dl, dl
  000fe	0f 84 d3 00 00
	00		 je	 $LN83@LoadString@2
  00104	32 d1		 xor	 dl, cl
  00106	88 55 ed	 mov	 BYTE PTR __k$[ebp+13], dl
  00109	8a 50 0e	 mov	 dl, BYTE PTR [eax+14]
  0010c	84 d2		 test	 dl, dl
  0010e	0f 84 be 00 00
	00		 je	 $LN82@LoadString@2
  00114	32 d3		 xor	 dl, bl
  00116	88 55 ee	 mov	 BYTE PTR __k$[ebp+14], dl
  00119	8a 50 0f	 mov	 dl, BYTE PTR [eax+15]
  0011c	84 d2		 test	 dl, dl
  0011e	0f 84 a8 00 00
	00		 je	 $LN81@LoadString@2
  00124	80 f2 ea	 xor	 dl, -22			; ffffffeaH
  00127	88 55 ef	 mov	 BYTE PTR __k$[ebp+15], dl
  0012a	8a 50 10	 mov	 dl, BYTE PTR [eax+16]
  0012d	84 d2		 test	 dl, dl
  0012f	0f 84 91 00 00
	00		 je	 $LN80@LoadString@2
  00135	80 f2 ed	 xor	 dl, -19			; ffffffedH
  00138	88 55 f0	 mov	 BYTE PTR __k$[ebp+16], dl
  0013b	8a 50 11	 mov	 dl, BYTE PTR [eax+17]
  0013e	84 d2		 test	 dl, dl
  00140	74 7f		 je	 SHORT $LN79@LoadString@2
  00142	32 d1		 xor	 dl, cl
  00144	88 55 f1	 mov	 BYTE PTR __k$[ebp+17], dl
  00147	8a 50 12	 mov	 dl, BYTE PTR [eax+18]
  0014a	84 d2		 test	 dl, dl
  0014c	74 6e		 je	 SHORT $LN78@LoadString@2
  0014e	32 d3		 xor	 dl, bl
  00150	88 55 f2	 mov	 BYTE PTR __k$[ebp+18], dl
  00153	8a 50 13	 mov	 dl, BYTE PTR [eax+19]
  00156	84 d2		 test	 dl, dl
  00158	74 5c		 je	 SHORT $LN77@LoadString@2
  0015a	80 f2 ea	 xor	 dl, -22			; ffffffeaH
  0015d	80 78 14 00	 cmp	 BYTE PTR [eax+20], 0
  00161	88 55 f3	 mov	 BYTE PTR __k$[ebp+19], dl
  00164	0f 84 ba 00 00
	00		 je	 $LN111@LoadString@2
  0016a	8a 50 15	 mov	 dl, BYTE PTR [eax+21]
  0016d	84 d2		 test	 dl, dl
  0016f	74 40		 je	 SHORT $LN75@LoadString@2
  00171	32 d1		 xor	 dl, cl
  00173	88 55 f5	 mov	 BYTE PTR __k$[ebp+21], dl
  00176	8a 50 16	 mov	 dl, BYTE PTR [eax+22]
  00179	84 d2		 test	 dl, dl
  0017b	74 2f		 je	 SHORT $LN74@LoadString@2
  0017d	32 d3		 xor	 dl, bl
  0017f	88 55 f6	 mov	 BYTE PTR __k$[ebp+22], dl
  00182	8a 50 17	 mov	 dl, BYTE PTR [eax+23]
  00185	84 d2		 test	 dl, dl
  00187	74 1d		 je	 SHORT $LN73@LoadString@2
  00189	8a 40 18	 mov	 al, BYTE PTR [eax+24]
  0018c	80 f2 ea	 xor	 dl, -22			; ffffffeaH
  0018f	88 55 f7	 mov	 BYTE PTR __k$[ebp+23], dl
  00192	84 c0		 test	 al, al
  00194	74 0a		 je	 SHORT $LN72@LoadString@2
  00196	34 ed		 xor	 al, -19			; ffffffedH
  00198	88 45 f8	 mov	 BYTE PTR __k$[ebp+24], al
  0019b	e9 84 00 00 00	 jmp	 $LN111@LoadString@2
$LN72@LoadString@2:
  001a0	c6 45 f8 ed	 mov	 BYTE PTR __k$[ebp+24], -19 ; ffffffedH
  001a4	eb 7e		 jmp	 SHORT $LN111@LoadString@2
$LN73@LoadString@2:
  001a6	c6 45 f7 ea	 mov	 BYTE PTR __k$[ebp+23], -22 ; ffffffeaH
  001aa	eb 78		 jmp	 SHORT $LN111@LoadString@2
$LN74@LoadString@2:
  001ac	88 5d f6	 mov	 BYTE PTR __k$[ebp+22], bl
  001af	eb 73		 jmp	 SHORT $LN111@LoadString@2
$LN75@LoadString@2:
  001b1	88 4d f5	 mov	 BYTE PTR __k$[ebp+21], cl
  001b4	eb 6e		 jmp	 SHORT $LN111@LoadString@2
$LN77@LoadString@2:
  001b6	c6 45 f3 ea	 mov	 BYTE PTR __k$[ebp+19], -22 ; ffffffeaH
  001ba	eb 68		 jmp	 SHORT $LN111@LoadString@2
$LN78@LoadString@2:
  001bc	88 5d f2	 mov	 BYTE PTR __k$[ebp+18], bl
  001bf	eb 63		 jmp	 SHORT $LN111@LoadString@2
$LN79@LoadString@2:
  001c1	88 4d f1	 mov	 BYTE PTR __k$[ebp+17], cl
  001c4	eb 5e		 jmp	 SHORT $LN111@LoadString@2
$LN80@LoadString@2:
  001c6	c6 45 f0 ed	 mov	 BYTE PTR __k$[ebp+16], -19 ; ffffffedH
  001ca	eb 58		 jmp	 SHORT $LN111@LoadString@2
$LN81@LoadString@2:
  001cc	c6 45 ef ea	 mov	 BYTE PTR __k$[ebp+15], -22 ; ffffffeaH
  001d0	eb 52		 jmp	 SHORT $LN111@LoadString@2
$LN82@LoadString@2:
  001d2	88 5d ee	 mov	 BYTE PTR __k$[ebp+14], bl
  001d5	eb 4d		 jmp	 SHORT $LN111@LoadString@2
$LN83@LoadString@2:
  001d7	88 4d ed	 mov	 BYTE PTR __k$[ebp+13], cl
  001da	eb 48		 jmp	 SHORT $LN111@LoadString@2
$LN84@LoadString@2:
  001dc	c6 45 ec ed	 mov	 BYTE PTR __k$[ebp+12], -19 ; ffffffedH
  001e0	eb 42		 jmp	 SHORT $LN111@LoadString@2
$LN85@LoadString@2:
  001e2	c6 45 eb ea	 mov	 BYTE PTR __k$[ebp+11], -22 ; ffffffeaH
  001e6	eb 3c		 jmp	 SHORT $LN111@LoadString@2
$LN86@LoadString@2:
  001e8	88 5d ea	 mov	 BYTE PTR __k$[ebp+10], bl
  001eb	eb 37		 jmp	 SHORT $LN111@LoadString@2
$LN87@LoadString@2:
  001ed	88 4d e9	 mov	 BYTE PTR __k$[ebp+9], cl
  001f0	eb 32		 jmp	 SHORT $LN111@LoadString@2
$LN88@LoadString@2:
  001f2	c6 45 e8 ed	 mov	 BYTE PTR __k$[ebp+8], -19 ; ffffffedH
  001f6	eb 2c		 jmp	 SHORT $LN111@LoadString@2
$LN89@LoadString@2:
  001f8	c6 45 e7 ea	 mov	 BYTE PTR __k$[ebp+7], -22 ; ffffffeaH
  001fc	eb 26		 jmp	 SHORT $LN111@LoadString@2
$LN90@LoadString@2:
  001fe	88 5d e6	 mov	 BYTE PTR __k$[ebp+6], bl
  00201	eb 21		 jmp	 SHORT $LN111@LoadString@2
$LN91@LoadString@2:
  00203	88 4d e5	 mov	 BYTE PTR __k$[ebp+5], cl
  00206	eb 1c		 jmp	 SHORT $LN111@LoadString@2
$LN92@LoadString@2:
  00208	c6 45 e4 ed	 mov	 BYTE PTR __k$[ebp+4], -19 ; ffffffedH
  0020c	eb 16		 jmp	 SHORT $LN111@LoadString@2
$LN93@LoadString@2:
  0020e	c6 45 e3 ea	 mov	 BYTE PTR __k$[ebp+3], -22 ; ffffffeaH
  00212	eb 10		 jmp	 SHORT $LN111@LoadString@2
$LN94@LoadString@2:
  00214	c6 45 e2 eb	 mov	 BYTE PTR __k$[ebp+2], -21 ; ffffffebH
  00218	eb 0a		 jmp	 SHORT $LN111@LoadString@2
$LN95@LoadString@2:
  0021a	c6 45 e1 ec	 mov	 BYTE PTR __k$[ebp+1], -20 ; ffffffecH
  0021e	eb 04		 jmp	 SHORT $LN111@LoadString@2
$LN96@LoadString@2:
  00220	c6 45 e0 ed	 mov	 BYTE PTR __k$[ebp], -19	; ffffffedH
$LN111@LoadString@2:
  00224	6a 05		 push	 5
  00226	8d 45 e0	 lea	 eax, DWORD PTR __k$[ebp]
  00229	c6 45 f4 00	 mov	 BYTE PTR __k$[ebp+20], 0
  0022d	5a		 pop	 edx
$LL104@LoadString@2:
  0022e	81 30 ed ec eb
	ea		 xor	 DWORD PTR [eax], -353637139 ; eaebecedH
  00234	83 c0 04	 add	 eax, 4
  00237	4a		 dec	 edx
  00238	75 f4		 jne	 SHORT $LL104@LoadString@2

; 163  : 		LoadString(_k, d, b, i);

  0023a	ff 75 14	 push	 DWORD PTR _i$[ebp]
  0023d	8b 4d dc	 mov	 ecx, DWORD PTR _this$GSCopy$[ebp]
  00240	57		 push	 edi
  00241	56		 push	 esi
  00242	8d 45 e0	 lea	 eax, DWORD PTR __k$[ebp]
  00245	50		 push	 eax
  00246	ff 15 00 00 00
	00		 call	 DWORD PTR __imp_?LoadStringA@ioINILoader@@QAEXPBD0PADH@Z

; 164  : 	}

  0024c	8b 4d fc	 mov	 ecx, DWORD PTR __$ArrayPad$[ebp]
  0024f	5f		 pop	 edi
  00250	5e		 pop	 esi
  00251	33 cd		 xor	 ecx, ebp
  00253	5b		 pop	 ebx
  00254	e8 00 00 00 00	 call	 @__security_check_cookie@4
  00259	c9		 leave
  0025a	c2 10 00	 ret	 16			; 00000010H
??$LoadString_e@$0BF@@ioINILoader@@QAEXAAY0BF@$$CBDAAY00$$CBDPADH@Z ENDP ; ioINILoader::LoadString_e<21>
_TEXT	ENDS
PUBLIC	__$ArrayPad$
PUBLIC	??$LoadFloat_e@$0BL@@ioINILoader@@QAEMAAY0BL@$$CBDM@Z ; ioINILoader::LoadFloat_e<27>
EXTRN	__imp_?LoadFloat@ioINILoader@@QAEMPBDM@Z:PROC
; Function compile flags: /Ogsp
;	COMDAT ??$LoadFloat_e@$0BL@@ioINILoader@@QAEMAAY0BL@$$CBDM@Z
_TEXT	SEGMENT
__k$ = -36						; size = 27
__$ArrayPad$ = -4					; size = 4
_k$ = 8							; size = 4
_f$ = 12						; size = 4
??$LoadFloat_e@$0BL@@ioINILoader@@QAEMAAY0BL@$$CBDM@Z PROC ; ioINILoader::LoadFloat_e<27>, COMDAT
; _this$ = ecx

; 135  : 	{

  00000	55		 push	 ebp
  00001	8b ec		 mov	 ebp, esp
  00003	83 ec 24	 sub	 esp, 36			; 00000024H
  00006	a1 00 00 00 00	 mov	 eax, DWORD PTR ___security_cookie
  0000b	33 c5		 xor	 eax, ebp
  0000d	89 45 fc	 mov	 DWORD PTR __$ArrayPad$[ebp], eax
  00010	8b 45 08	 mov	 eax, DWORD PTR _k$[ebp]

; 136  : 		_ENCSTR(k, _k);

  00013	8a 10		 mov	 dl, BYTE PTR [eax]
  00015	53		 push	 ebx
  00016	56		 push	 esi
  00017	8b f1		 mov	 esi, ecx
  00019	84 d2		 test	 dl, dl
  0001b	0f 84 91 02 00
	00		 je	 $LN96@LoadFloat_
  00021	80 f2 ed	 xor	 dl, -19			; ffffffedH
  00024	88 55 dc	 mov	 BYTE PTR __k$[ebp], dl
  00027	8a 50 01	 mov	 dl, BYTE PTR [eax+1]
  0002a	84 d2		 test	 dl, dl
  0002c	0f 84 7a 02 00
	00		 je	 $LN95@LoadFloat_
  00032	b1 ec		 mov	 cl, -20			; ffffffecH
  00034	32 d1		 xor	 dl, cl
  00036	88 55 dd	 mov	 BYTE PTR __k$[ebp+1], dl
  00039	8a 50 02	 mov	 dl, BYTE PTR [eax+2]
  0003c	84 d2		 test	 dl, dl
  0003e	0f 84 62 02 00
	00		 je	 $LN94@LoadFloat_
  00044	80 f2 eb	 xor	 dl, -21			; ffffffebH
  00047	88 55 de	 mov	 BYTE PTR __k$[ebp+2], dl
  0004a	8a 50 03	 mov	 dl, BYTE PTR [eax+3]
  0004d	84 d2		 test	 dl, dl
  0004f	0f 84 4b 02 00
	00		 je	 $LN93@LoadFloat_
  00055	b3 ea		 mov	 bl, -22			; ffffffeaH
  00057	32 d3		 xor	 dl, bl
  00059	88 55 df	 mov	 BYTE PTR __k$[ebp+3], dl
  0005c	8a 50 04	 mov	 dl, BYTE PTR [eax+4]
  0005f	84 d2		 test	 dl, dl
  00061	0f 84 33 02 00
	00		 je	 $LN92@LoadFloat_
  00067	80 f2 ed	 xor	 dl, -19			; ffffffedH
  0006a	88 55 e0	 mov	 BYTE PTR __k$[ebp+4], dl
  0006d	8a 50 05	 mov	 dl, BYTE PTR [eax+5]
  00070	84 d2		 test	 dl, dl
  00072	0f 84 1d 02 00
	00		 je	 $LN91@LoadFloat_
  00078	32 d1		 xor	 dl, cl
  0007a	88 55 e1	 mov	 BYTE PTR __k$[ebp+5], dl
  0007d	8a 50 06	 mov	 dl, BYTE PTR [eax+6]
  00080	84 d2		 test	 dl, dl
  00082	0f 84 07 02 00
	00		 je	 $LN90@LoadFloat_
  00088	80 f2 eb	 xor	 dl, -21			; ffffffebH
  0008b	88 55 e2	 mov	 BYTE PTR __k$[ebp+6], dl
  0008e	8a 50 07	 mov	 dl, BYTE PTR [eax+7]
  00091	84 d2		 test	 dl, dl
  00093	0f 84 f1 01 00
	00		 je	 $LN89@LoadFloat_
  00099	32 d3		 xor	 dl, bl
  0009b	88 55 e3	 mov	 BYTE PTR __k$[ebp+7], dl
  0009e	8a 50 08	 mov	 dl, BYTE PTR [eax+8]
  000a1	84 d2		 test	 dl, dl
  000a3	0f 84 db 01 00
	00		 je	 $LN88@LoadFloat_
  000a9	80 f2 ed	 xor	 dl, -19			; ffffffedH
  000ac	88 55 e4	 mov	 BYTE PTR __k$[ebp+8], dl
  000af	8a 50 09	 mov	 dl, BYTE PTR [eax+9]
  000b2	84 d2		 test	 dl, dl
  000b4	0f 84 c5 01 00
	00		 je	 $LN87@LoadFloat_
  000ba	32 d1		 xor	 dl, cl
  000bc	88 55 e5	 mov	 BYTE PTR __k$[ebp+9], dl
  000bf	8a 50 0a	 mov	 dl, BYTE PTR [eax+10]
  000c2	84 d2		 test	 dl, dl
  000c4	0f 84 af 01 00
	00		 je	 $LN86@LoadFloat_
  000ca	80 f2 eb	 xor	 dl, -21			; ffffffebH
  000cd	88 55 e6	 mov	 BYTE PTR __k$[ebp+10], dl
  000d0	8a 50 0b	 mov	 dl, BYTE PTR [eax+11]
  000d3	84 d2		 test	 dl, dl
  000d5	0f 84 99 01 00
	00		 je	 $LN85@LoadFloat_
  000db	32 d3		 xor	 dl, bl
  000dd	88 55 e7	 mov	 BYTE PTR __k$[ebp+11], dl
  000e0	8a 50 0c	 mov	 dl, BYTE PTR [eax+12]
  000e3	84 d2		 test	 dl, dl
  000e5	0f 84 83 01 00
	00		 je	 $LN84@LoadFloat_
  000eb	80 f2 ed	 xor	 dl, -19			; ffffffedH
  000ee	88 55 e8	 mov	 BYTE PTR __k$[ebp+12], dl
  000f1	8a 50 0d	 mov	 dl, BYTE PTR [eax+13]
  000f4	84 d2		 test	 dl, dl
  000f6	0f 84 6d 01 00
	00		 je	 $LN83@LoadFloat_
  000fc	32 d1		 xor	 dl, cl
  000fe	88 55 e9	 mov	 BYTE PTR __k$[ebp+13], dl
  00101	8a 50 0e	 mov	 dl, BYTE PTR [eax+14]
  00104	84 d2		 test	 dl, dl
  00106	0f 84 57 01 00
	00		 je	 $LN82@LoadFloat_
  0010c	80 f2 eb	 xor	 dl, -21			; ffffffebH
  0010f	88 55 ea	 mov	 BYTE PTR __k$[ebp+14], dl
  00112	8a 50 0f	 mov	 dl, BYTE PTR [eax+15]
  00115	84 d2		 test	 dl, dl
  00117	0f 84 41 01 00
	00		 je	 $LN81@LoadFloat_
  0011d	32 d3		 xor	 dl, bl
  0011f	88 55 eb	 mov	 BYTE PTR __k$[ebp+15], dl
  00122	8a 50 10	 mov	 dl, BYTE PTR [eax+16]
  00125	84 d2		 test	 dl, dl
  00127	0f 84 2b 01 00
	00		 je	 $LN80@LoadFloat_
  0012d	80 f2 ed	 xor	 dl, -19			; ffffffedH
  00130	88 55 ec	 mov	 BYTE PTR __k$[ebp+16], dl
  00133	8a 50 11	 mov	 dl, BYTE PTR [eax+17]
  00136	84 d2		 test	 dl, dl
  00138	0f 84 15 01 00
	00		 je	 $LN79@LoadFloat_
  0013e	32 d1		 xor	 dl, cl
  00140	88 55 ed	 mov	 BYTE PTR __k$[ebp+17], dl
  00143	8a 50 12	 mov	 dl, BYTE PTR [eax+18]
  00146	84 d2		 test	 dl, dl
  00148	0f 84 ff 00 00
	00		 je	 $LN78@LoadFloat_
  0014e	80 f2 eb	 xor	 dl, -21			; ffffffebH
  00151	88 55 ee	 mov	 BYTE PTR __k$[ebp+18], dl
  00154	8a 50 13	 mov	 dl, BYTE PTR [eax+19]
  00157	84 d2		 test	 dl, dl
  00159	0f 84 e9 00 00
	00		 je	 $LN77@LoadFloat_
  0015f	32 d3		 xor	 dl, bl
  00161	88 55 ef	 mov	 BYTE PTR __k$[ebp+19], dl
  00164	8a 50 14	 mov	 dl, BYTE PTR [eax+20]
  00167	84 d2		 test	 dl, dl
  00169	0f 84 d3 00 00
	00		 je	 $LN76@LoadFloat_
  0016f	80 f2 ed	 xor	 dl, -19			; ffffffedH
  00172	88 55 f0	 mov	 BYTE PTR __k$[ebp+20], dl
  00175	8a 50 15	 mov	 dl, BYTE PTR [eax+21]
  00178	84 d2		 test	 dl, dl
  0017a	0f 84 bd 00 00
	00		 je	 $LN75@LoadFloat_
  00180	32 d1		 xor	 dl, cl
  00182	88 55 f1	 mov	 BYTE PTR __k$[ebp+21], dl
  00185	8a 50 16	 mov	 dl, BYTE PTR [eax+22]
  00188	84 d2		 test	 dl, dl
  0018a	0f 84 a7 00 00
	00		 je	 $LN74@LoadFloat_
  00190	80 f2 eb	 xor	 dl, -21			; ffffffebH
  00193	88 55 f2	 mov	 BYTE PTR __k$[ebp+22], dl
  00196	8a 50 17	 mov	 dl, BYTE PTR [eax+23]
  00199	84 d2		 test	 dl, dl
  0019b	0f 84 91 00 00
	00		 je	 $LN73@LoadFloat_
  001a1	32 d3		 xor	 dl, bl
  001a3	88 55 f3	 mov	 BYTE PTR __k$[ebp+23], dl
  001a6	8a 50 18	 mov	 dl, BYTE PTR [eax+24]
  001a9	84 d2		 test	 dl, dl
  001ab	74 7c		 je	 SHORT $LN72@LoadFloat_
  001ad	80 f2 ed	 xor	 dl, -19			; ffffffedH
  001b0	88 55 f4	 mov	 BYTE PTR __k$[ebp+24], dl
  001b3	8a 50 19	 mov	 dl, BYTE PTR [eax+25]
  001b6	84 d2		 test	 dl, dl
  001b8	74 67		 je	 SHORT $LN71@LoadFloat_
  001ba	32 d1		 xor	 dl, cl
  001bc	80 78 1a 00	 cmp	 BYTE PTR [eax+26], 0
  001c0	88 55 f5	 mov	 BYTE PTR __k$[ebp+25], dl
  001c3	0f 84 ed 00 00
	00		 je	 $LN1@LoadFloat_
  001c9	8a 50 1b	 mov	 dl, BYTE PTR [eax+27]
  001cc	84 d2		 test	 dl, dl
  001ce	74 49		 je	 SHORT $LN69@LoadFloat_
  001d0	32 d3		 xor	 dl, bl
  001d2	88 55 f7	 mov	 BYTE PTR __k$[ebp+27], dl
  001d5	8a 50 1c	 mov	 dl, BYTE PTR [eax+28]
  001d8	84 d2		 test	 dl, dl
  001da	74 34		 je	 SHORT $LN68@LoadFloat_
  001dc	80 f2 ed	 xor	 dl, -19			; ffffffedH
  001df	88 55 f8	 mov	 BYTE PTR __k$[ebp+28], dl
  001e2	8a 50 1d	 mov	 dl, BYTE PTR [eax+29]
  001e5	84 d2		 test	 dl, dl
  001e7	74 1f		 je	 SHORT $LN67@LoadFloat_
  001e9	8a 40 1e	 mov	 al, BYTE PTR [eax+30]
  001ec	32 d1		 xor	 dl, cl
  001ee	88 55 f9	 mov	 BYTE PTR __k$[ebp+29], dl
  001f1	84 c0		 test	 al, al
  001f3	74 0a		 je	 SHORT $LN66@LoadFloat_
  001f5	34 eb		 xor	 al, -21			; ffffffebH
  001f7	88 45 fa	 mov	 BYTE PTR __k$[ebp+30], al
  001fa	e9 b7 00 00 00	 jmp	 $LN1@LoadFloat_
$LN66@LoadFloat_:
  001ff	c6 45 fa eb	 mov	 BYTE PTR __k$[ebp+30], -21 ; ffffffebH
  00203	e9 ae 00 00 00	 jmp	 $LN1@LoadFloat_
$LN67@LoadFloat_:
  00208	88 4d f9	 mov	 BYTE PTR __k$[ebp+29], cl
  0020b	e9 a6 00 00 00	 jmp	 $LN1@LoadFloat_
$LN68@LoadFloat_:
  00210	c6 45 f8 ed	 mov	 BYTE PTR __k$[ebp+28], -19 ; ffffffedH
  00214	e9 9d 00 00 00	 jmp	 $LN1@LoadFloat_
$LN69@LoadFloat_:
  00219	88 5d f7	 mov	 BYTE PTR __k$[ebp+27], bl
  0021c	e9 95 00 00 00	 jmp	 $LN1@LoadFloat_
$LN71@LoadFloat_:
  00221	88 4d f5	 mov	 BYTE PTR __k$[ebp+25], cl
  00224	e9 8d 00 00 00	 jmp	 $LN1@LoadFloat_
$LN72@LoadFloat_:
  00229	c6 45 f4 ed	 mov	 BYTE PTR __k$[ebp+24], -19 ; ffffffedH
  0022d	e9 84 00 00 00	 jmp	 $LN1@LoadFloat_
$LN73@LoadFloat_:
  00232	88 5d f3	 mov	 BYTE PTR __k$[ebp+23], bl
  00235	eb 7f		 jmp	 SHORT $LN1@LoadFloat_
$LN74@LoadFloat_:
  00237	c6 45 f2 eb	 mov	 BYTE PTR __k$[ebp+22], -21 ; ffffffebH
  0023b	eb 79		 jmp	 SHORT $LN1@LoadFloat_
$LN75@LoadFloat_:
  0023d	88 4d f1	 mov	 BYTE PTR __k$[ebp+21], cl
  00240	eb 74		 jmp	 SHORT $LN1@LoadFloat_
$LN76@LoadFloat_:
  00242	c6 45 f0 ed	 mov	 BYTE PTR __k$[ebp+20], -19 ; ffffffedH
  00246	eb 6e		 jmp	 SHORT $LN1@LoadFloat_
$LN77@LoadFloat_:
  00248	88 5d ef	 mov	 BYTE PTR __k$[ebp+19], bl
  0024b	eb 69		 jmp	 SHORT $LN1@LoadFloat_
$LN78@LoadFloat_:
  0024d	c6 45 ee eb	 mov	 BYTE PTR __k$[ebp+18], -21 ; ffffffebH
  00251	eb 63		 jmp	 SHORT $LN1@LoadFloat_
$LN79@LoadFloat_:
  00253	88 4d ed	 mov	 BYTE PTR __k$[ebp+17], cl
  00256	eb 5e		 jmp	 SHORT $LN1@LoadFloat_
$LN80@LoadFloat_:
  00258	c6 45 ec ed	 mov	 BYTE PTR __k$[ebp+16], -19 ; ffffffedH
  0025c	eb 58		 jmp	 SHORT $LN1@LoadFloat_
$LN81@LoadFloat_:
  0025e	88 5d eb	 mov	 BYTE PTR __k$[ebp+15], bl
  00261	eb 53		 jmp	 SHORT $LN1@LoadFloat_
$LN82@LoadFloat_:
  00263	c6 45 ea eb	 mov	 BYTE PTR __k$[ebp+14], -21 ; ffffffebH
  00267	eb 4d		 jmp	 SHORT $LN1@LoadFloat_
$LN83@LoadFloat_:
  00269	88 4d e9	 mov	 BYTE PTR __k$[ebp+13], cl
  0026c	eb 48		 jmp	 SHORT $LN1@LoadFloat_
$LN84@LoadFloat_:
  0026e	c6 45 e8 ed	 mov	 BYTE PTR __k$[ebp+12], -19 ; ffffffedH
  00272	eb 42		 jmp	 SHORT $LN1@LoadFloat_
$LN85@LoadFloat_:
  00274	88 5d e7	 mov	 BYTE PTR __k$[ebp+11], bl
  00277	eb 3d		 jmp	 SHORT $LN1@LoadFloat_
$LN86@LoadFloat_:
  00279	c6 45 e6 eb	 mov	 BYTE PTR __k$[ebp+10], -21 ; ffffffebH
  0027d	eb 37		 jmp	 SHORT $LN1@LoadFloat_
$LN87@LoadFloat_:
  0027f	88 4d e5	 mov	 BYTE PTR __k$[ebp+9], cl
  00282	eb 32		 jmp	 SHORT $LN1@LoadFloat_
$LN88@LoadFloat_:
  00284	c6 45 e4 ed	 mov	 BYTE PTR __k$[ebp+8], -19 ; ffffffedH
  00288	eb 2c		 jmp	 SHORT $LN1@LoadFloat_
$LN89@LoadFloat_:
  0028a	88 5d e3	 mov	 BYTE PTR __k$[ebp+7], bl
  0028d	eb 27		 jmp	 SHORT $LN1@LoadFloat_
$LN90@LoadFloat_:
  0028f	c6 45 e2 eb	 mov	 BYTE PTR __k$[ebp+6], -21 ; ffffffebH
  00293	eb 21		 jmp	 SHORT $LN1@LoadFloat_
$LN91@LoadFloat_:
  00295	88 4d e1	 mov	 BYTE PTR __k$[ebp+5], cl
  00298	eb 1c		 jmp	 SHORT $LN1@LoadFloat_
$LN92@LoadFloat_:
  0029a	c6 45 e0 ed	 mov	 BYTE PTR __k$[ebp+4], -19 ; ffffffedH
  0029e	eb 16		 jmp	 SHORT $LN1@LoadFloat_
$LN93@LoadFloat_:
  002a0	c6 45 df ea	 mov	 BYTE PTR __k$[ebp+3], -22 ; ffffffeaH
  002a4	eb 10		 jmp	 SHORT $LN1@LoadFloat_
$LN94@LoadFloat_:
  002a6	c6 45 de eb	 mov	 BYTE PTR __k$[ebp+2], -21 ; ffffffebH
  002aa	eb 0a		 jmp	 SHORT $LN1@LoadFloat_
$LN95@LoadFloat_:
  002ac	c6 45 dd ec	 mov	 BYTE PTR __k$[ebp+1], -20 ; ffffffecH
  002b0	eb 04		 jmp	 SHORT $LN1@LoadFloat_
$LN96@LoadFloat_:
  002b2	c6 45 dc ed	 mov	 BYTE PTR __k$[ebp], -19	; ffffffedH
$LN1@LoadFloat_:
  002b6	6a 06		 push	 6
  002b8	8d 45 dc	 lea	 eax, DWORD PTR __k$[ebp]
  002bb	c6 45 f6 00	 mov	 BYTE PTR __k$[ebp+26], 0
  002bf	5a		 pop	 edx
$LL104@LoadFloat_:
  002c0	81 30 ed ec eb
	ea		 xor	 DWORD PTR [eax], -353637139 ; eaebecedH
  002c6	83 c0 04	 add	 eax, 4
  002c9	4a		 dec	 edx
  002ca	75 f4		 jne	 SHORT $LL104@LoadFloat_
  002cc	6a 18		 push	 24			; 00000018H
  002ce	58		 pop	 eax
$LL101@LoadFloat_:
  002cf	8b c8		 mov	 ecx, eax
  002d1	81 e1 03 00 00
	80		 and	 ecx, -2147483645	; 80000003H
  002d7	79 05		 jns	 SHORT $LN111@LoadFloat_
  002d9	49		 dec	 ecx
  002da	83 c9 fc	 or	 ecx, -4			; fffffffcH
  002dd	41		 inc	 ecx
$LN111@LoadFloat_:
  002de	b2 ed		 mov	 dl, -19			; ffffffedH
  002e0	2a d1		 sub	 dl, cl
  002e2	30 54 05 dc	 xor	 BYTE PTR __k$[ebp+eax], dl
  002e6	40		 inc	 eax
  002e7	83 f8 1a	 cmp	 eax, 26			; 0000001aH
  002ea	7c e3		 jl	 SHORT $LL101@LoadFloat_

; 137  : 		return LoadFloat(_k, f);

  002ec	f3 0f 10 45 0c	 movss	 xmm0, DWORD PTR _f$[ebp]
  002f1	51		 push	 ecx
  002f2	8d 45 dc	 lea	 eax, DWORD PTR __k$[ebp]
  002f5	f3 0f 11 04 24	 movss	 DWORD PTR [esp], xmm0
  002fa	50		 push	 eax
  002fb	8b ce		 mov	 ecx, esi
  002fd	ff 15 00 00 00
	00		 call	 DWORD PTR __imp_?LoadFloat@ioINILoader@@QAEMPBDM@Z

; 138  : 	}

  00303	8b 4d fc	 mov	 ecx, DWORD PTR __$ArrayPad$[ebp]
  00306	5e		 pop	 esi
  00307	33 cd		 xor	 ecx, ebp
  00309	5b		 pop	 ebx
  0030a	e8 00 00 00 00	 call	 @__security_check_cookie@4
  0030f	c9		 leave
  00310	c2 08 00	 ret	 8
??$LoadFloat_e@$0BL@@ioINILoader@@QAEMAAY0BL@$$CBDM@Z ENDP ; ioINILoader::LoadFloat_e<27>
_TEXT	ENDS
PUBLIC	__$ArrayPad$
PUBLIC	??$LoadInt_e@$0N@@ioINILoader@@QAEHAAY0N@$$CBDH@Z ; ioINILoader::LoadInt_e<13>
EXTRN	__imp_?LoadInt@ioINILoader@@QAEHPBDH@Z:PROC
; Function compile flags: /Ogsp
;	COMDAT ??$LoadInt_e@$0N@@ioINILoader@@QAEHAAY0N@$$CBDH@Z
_TEXT	SEGMENT
__k$ = -24						; size = 13
__$ArrayPad$ = -4					; size = 4
_k$ = 8							; size = 4
_i$ = 12						; size = 4
??$LoadInt_e@$0N@@ioINILoader@@QAEHAAY0N@$$CBDH@Z PROC	; ioINILoader::LoadInt_e<13>, COMDAT
; _this$ = ecx

; 118  : 	{

  00000	55		 push	 ebp
  00001	8b ec		 mov	 ebp, esp
  00003	83 ec 18	 sub	 esp, 24			; 00000018H
  00006	a1 00 00 00 00	 mov	 eax, DWORD PTR ___security_cookie
  0000b	33 c5		 xor	 eax, ebp
  0000d	89 45 fc	 mov	 DWORD PTR __$ArrayPad$[ebp], eax
  00010	8b 45 08	 mov	 eax, DWORD PTR _k$[ebp]

; 119  : 		_ENCSTR(k, _k);

  00013	8a 10		 mov	 dl, BYTE PTR [eax]
  00015	56		 push	 esi
  00016	8b f1		 mov	 esi, ecx
  00018	84 d2		 test	 dl, dl
  0001a	0f 84 4d 01 00
	00		 je	 $LN96@LoadInt_e
  00020	80 f2 ed	 xor	 dl, -19			; ffffffedH
  00023	88 55 e8	 mov	 BYTE PTR __k$[ebp], dl
  00026	8a 50 01	 mov	 dl, BYTE PTR [eax+1]
  00029	84 d2		 test	 dl, dl
  0002b	0f 84 36 01 00
	00		 je	 $LN95@LoadInt_e
  00031	b1 ec		 mov	 cl, -20			; ffffffecH
  00033	32 d1		 xor	 dl, cl
  00035	88 55 e9	 mov	 BYTE PTR __k$[ebp+1], dl
  00038	8a 50 02	 mov	 dl, BYTE PTR [eax+2]
  0003b	84 d2		 test	 dl, dl
  0003d	0f 84 1e 01 00
	00		 je	 $LN94@LoadInt_e
  00043	80 f2 eb	 xor	 dl, -21			; ffffffebH
  00046	88 55 ea	 mov	 BYTE PTR __k$[ebp+2], dl
  00049	8a 50 03	 mov	 dl, BYTE PTR [eax+3]
  0004c	84 d2		 test	 dl, dl
  0004e	0f 84 07 01 00
	00		 je	 $LN93@LoadInt_e
  00054	80 f2 ea	 xor	 dl, -22			; ffffffeaH
  00057	88 55 eb	 mov	 BYTE PTR __k$[ebp+3], dl
  0005a	8a 50 04	 mov	 dl, BYTE PTR [eax+4]
  0005d	84 d2		 test	 dl, dl
  0005f	0f 84 f0 00 00
	00		 je	 $LN92@LoadInt_e
  00065	80 f2 ed	 xor	 dl, -19			; ffffffedH
  00068	88 55 ec	 mov	 BYTE PTR __k$[ebp+4], dl
  0006b	8a 50 05	 mov	 dl, BYTE PTR [eax+5]
  0006e	84 d2		 test	 dl, dl
  00070	0f 84 da 00 00
	00		 je	 $LN91@LoadInt_e
  00076	32 d1		 xor	 dl, cl
  00078	88 55 ed	 mov	 BYTE PTR __k$[ebp+5], dl
  0007b	8a 50 06	 mov	 dl, BYTE PTR [eax+6]
  0007e	84 d2		 test	 dl, dl
  00080	0f 84 c4 00 00
	00		 je	 $LN90@LoadInt_e
  00086	80 f2 eb	 xor	 dl, -21			; ffffffebH
  00089	88 55 ee	 mov	 BYTE PTR __k$[ebp+6], dl
  0008c	8a 50 07	 mov	 dl, BYTE PTR [eax+7]
  0008f	84 d2		 test	 dl, dl
  00091	0f 84 ad 00 00
	00		 je	 $LN89@LoadInt_e
  00097	80 f2 ea	 xor	 dl, -22			; ffffffeaH
  0009a	88 55 ef	 mov	 BYTE PTR __k$[ebp+7], dl
  0009d	8a 50 08	 mov	 dl, BYTE PTR [eax+8]
  000a0	84 d2		 test	 dl, dl
  000a2	0f 84 96 00 00
	00		 je	 $LN88@LoadInt_e
  000a8	80 f2 ed	 xor	 dl, -19			; ffffffedH
  000ab	88 55 f0	 mov	 BYTE PTR __k$[ebp+8], dl
  000ae	8a 50 09	 mov	 dl, BYTE PTR [eax+9]
  000b1	84 d2		 test	 dl, dl
  000b3	0f 84 80 00 00
	00		 je	 $LN87@LoadInt_e
  000b9	32 d1		 xor	 dl, cl
  000bb	88 55 f1	 mov	 BYTE PTR __k$[ebp+9], dl
  000be	8a 50 0a	 mov	 dl, BYTE PTR [eax+10]
  000c1	84 d2		 test	 dl, dl
  000c3	74 6e		 je	 SHORT $LN86@LoadInt_e
  000c5	80 f2 eb	 xor	 dl, -21			; ffffffebH
  000c8	88 55 f2	 mov	 BYTE PTR __k$[ebp+10], dl
  000cb	8a 50 0b	 mov	 dl, BYTE PTR [eax+11]
  000ce	84 d2		 test	 dl, dl
  000d0	74 5b		 je	 SHORT $LN85@LoadInt_e
  000d2	80 f2 ea	 xor	 dl, -22			; ffffffeaH
  000d5	80 78 0c 00	 cmp	 BYTE PTR [eax+12], 0
  000d9	88 55 f3	 mov	 BYTE PTR __k$[ebp+11], dl
  000dc	0f 84 8f 00 00
	00		 je	 $LN1@LoadInt_e
  000e2	8a 50 0d	 mov	 dl, BYTE PTR [eax+13]
  000e5	84 d2		 test	 dl, dl
  000e7	74 3f		 je	 SHORT $LN83@LoadInt_e
  000e9	32 d1		 xor	 dl, cl
  000eb	88 55 f5	 mov	 BYTE PTR __k$[ebp+13], dl
  000ee	8a 50 0e	 mov	 dl, BYTE PTR [eax+14]
  000f1	84 d2		 test	 dl, dl
  000f3	74 2d		 je	 SHORT $LN82@LoadInt_e
  000f5	80 f2 eb	 xor	 dl, -21			; ffffffebH
  000f8	88 55 f6	 mov	 BYTE PTR __k$[ebp+14], dl
  000fb	8a 50 0f	 mov	 dl, BYTE PTR [eax+15]
  000fe	84 d2		 test	 dl, dl
  00100	74 1a		 je	 SHORT $LN81@LoadInt_e
  00102	8a 40 10	 mov	 al, BYTE PTR [eax+16]
  00105	80 f2 ea	 xor	 dl, -22			; ffffffeaH
  00108	88 55 f7	 mov	 BYTE PTR __k$[ebp+15], dl
  0010b	84 c0		 test	 al, al
  0010d	74 07		 je	 SHORT $LN80@LoadInt_e
  0010f	34 ed		 xor	 al, -19			; ffffffedH
  00111	88 45 f8	 mov	 BYTE PTR __k$[ebp+16], al
  00114	eb 5b		 jmp	 SHORT $LN1@LoadInt_e
$LN80@LoadInt_e:
  00116	c6 45 f8 ed	 mov	 BYTE PTR __k$[ebp+16], -19 ; ffffffedH
  0011a	eb 55		 jmp	 SHORT $LN1@LoadInt_e
$LN81@LoadInt_e:
  0011c	c6 45 f7 ea	 mov	 BYTE PTR __k$[ebp+15], -22 ; ffffffeaH
  00120	eb 4f		 jmp	 SHORT $LN1@LoadInt_e
$LN82@LoadInt_e:
  00122	c6 45 f6 eb	 mov	 BYTE PTR __k$[ebp+14], -21 ; ffffffebH
  00126	eb 49		 jmp	 SHORT $LN1@LoadInt_e
$LN83@LoadInt_e:
  00128	88 4d f5	 mov	 BYTE PTR __k$[ebp+13], cl
  0012b	eb 44		 jmp	 SHORT $LN1@LoadInt_e
$LN85@LoadInt_e:
  0012d	c6 45 f3 ea	 mov	 BYTE PTR __k$[ebp+11], -22 ; ffffffeaH
  00131	eb 3e		 jmp	 SHORT $LN1@LoadInt_e
$LN86@LoadInt_e:
  00133	c6 45 f2 eb	 mov	 BYTE PTR __k$[ebp+10], -21 ; ffffffebH
  00137	eb 38		 jmp	 SHORT $LN1@LoadInt_e
$LN87@LoadInt_e:
  00139	88 4d f1	 mov	 BYTE PTR __k$[ebp+9], cl
  0013c	eb 33		 jmp	 SHORT $LN1@LoadInt_e
$LN88@LoadInt_e:
  0013e	c6 45 f0 ed	 mov	 BYTE PTR __k$[ebp+8], -19 ; ffffffedH
  00142	eb 2d		 jmp	 SHORT $LN1@LoadInt_e
$LN89@LoadInt_e:
  00144	c6 45 ef ea	 mov	 BYTE PTR __k$[ebp+7], -22 ; ffffffeaH
  00148	eb 27		 jmp	 SHORT $LN1@LoadInt_e
$LN90@LoadInt_e:
  0014a	c6 45 ee eb	 mov	 BYTE PTR __k$[ebp+6], -21 ; ffffffebH
  0014e	eb 21		 jmp	 SHORT $LN1@LoadInt_e
$LN91@LoadInt_e:
  00150	88 4d ed	 mov	 BYTE PTR __k$[ebp+5], cl
  00153	eb 1c		 jmp	 SHORT $LN1@LoadInt_e
$LN92@LoadInt_e:
  00155	c6 45 ec ed	 mov	 BYTE PTR __k$[ebp+4], -19 ; ffffffedH
  00159	eb 16		 jmp	 SHORT $LN1@LoadInt_e
$LN93@LoadInt_e:
  0015b	c6 45 eb ea	 mov	 BYTE PTR __k$[ebp+3], -22 ; ffffffeaH
  0015f	eb 10		 jmp	 SHORT $LN1@LoadInt_e
$LN94@LoadInt_e:
  00161	c6 45 ea eb	 mov	 BYTE PTR __k$[ebp+2], -21 ; ffffffebH
  00165	eb 0a		 jmp	 SHORT $LN1@LoadInt_e
$LN95@LoadInt_e:
  00167	c6 45 e9 ec	 mov	 BYTE PTR __k$[ebp+1], -20 ; ffffffecH
  0016b	eb 04		 jmp	 SHORT $LN1@LoadInt_e
$LN96@LoadInt_e:
  0016d	c6 45 e8 ed	 mov	 BYTE PTR __k$[ebp], -19	; ffffffedH
$LN1@LoadInt_e:
  00171	6a 03		 push	 3
  00173	8d 45 e8	 lea	 eax, DWORD PTR __k$[ebp]
  00176	c6 45 f4 00	 mov	 BYTE PTR __k$[ebp+12], 0
  0017a	5a		 pop	 edx
$LL104@LoadInt_e:
  0017b	81 30 ed ec eb
	ea		 xor	 DWORD PTR [eax], -353637139 ; eaebecedH
  00181	83 c0 04	 add	 eax, 4
  00184	4a		 dec	 edx
  00185	75 f4		 jne	 SHORT $LL104@LoadInt_e

; 120  : 		return LoadInt(_k, i);

  00187	ff 75 0c	 push	 DWORD PTR _i$[ebp]
  0018a	8d 45 e8	 lea	 eax, DWORD PTR __k$[ebp]
  0018d	50		 push	 eax
  0018e	8b ce		 mov	 ecx, esi
  00190	ff 15 00 00 00
	00		 call	 DWORD PTR __imp_?LoadInt@ioINILoader@@QAEHPBDH@Z

; 121  : 	}

  00196	8b 4d fc	 mov	 ecx, DWORD PTR __$ArrayPad$[ebp]
  00199	33 cd		 xor	 ecx, ebp
  0019b	5e		 pop	 esi
  0019c	e8 00 00 00 00	 call	 @__security_check_cookie@4
  001a1	c9		 leave
  001a2	c2 08 00	 ret	 8
??$LoadInt_e@$0N@@ioINILoader@@QAEHAAY0N@$$CBDH@Z ENDP	; ioINILoader::LoadInt_e<13>
_TEXT	ENDS
PUBLIC	__$ArrayPad$
PUBLIC	??$LoadBool_e@$0BB@@ioINILoader@@QAE_NAAY0BB@$$CBD_N@Z ; ioINILoader::LoadBool_e<17>
EXTRN	__imp_?LoadBool@ioINILoader@@QAE_NPBD_N@Z:PROC
; Function compile flags: /Ogsp
;	COMDAT ??$LoadBool_e@$0BB@@ioINILoader@@QAE_NAAY0BB@$$CBD_N@Z
_TEXT	SEGMENT
__k$ = -28						; size = 17
__$ArrayPad$ = -4					; size = 4
_k$ = 8							; size = 4
_b$ = 12						; size = 1
??$LoadBool_e@$0BB@@ioINILoader@@QAE_NAAY0BB@$$CBD_N@Z PROC ; ioINILoader::LoadBool_e<17>, COMDAT
; _this$ = ecx

; 101  : 	{

  00000	55		 push	 ebp
  00001	8b ec		 mov	 ebp, esp
  00003	83 ec 1c	 sub	 esp, 28			; 0000001cH
  00006	a1 00 00 00 00	 mov	 eax, DWORD PTR ___security_cookie
  0000b	33 c5		 xor	 eax, ebp
  0000d	89 45 fc	 mov	 DWORD PTR __$ArrayPad$[ebp], eax
  00010	8b 45 08	 mov	 eax, DWORD PTR _k$[ebp]

; 102  : 		_ENCSTR(k, _k);

  00013	8a 10		 mov	 dl, BYTE PTR [eax]
  00015	56		 push	 esi
  00016	8b f1		 mov	 esi, ecx
  00018	84 d2		 test	 dl, dl
  0001a	0f 84 a7 01 00
	00		 je	 $LN96@LoadBool_e
  00020	80 f2 ed	 xor	 dl, -19			; ffffffedH
  00023	88 55 e4	 mov	 BYTE PTR __k$[ebp], dl
  00026	8a 50 01	 mov	 dl, BYTE PTR [eax+1]
  00029	84 d2		 test	 dl, dl
  0002b	0f 84 90 01 00
	00		 je	 $LN95@LoadBool_e
  00031	b1 ec		 mov	 cl, -20			; ffffffecH
  00033	32 d1		 xor	 dl, cl
  00035	88 55 e5	 mov	 BYTE PTR __k$[ebp+1], dl
  00038	8a 50 02	 mov	 dl, BYTE PTR [eax+2]
  0003b	84 d2		 test	 dl, dl
  0003d	0f 84 78 01 00
	00		 je	 $LN94@LoadBool_e
  00043	80 f2 eb	 xor	 dl, -21			; ffffffebH
  00046	88 55 e6	 mov	 BYTE PTR __k$[ebp+2], dl
  00049	8a 50 03	 mov	 dl, BYTE PTR [eax+3]
  0004c	84 d2		 test	 dl, dl
  0004e	0f 84 61 01 00
	00		 je	 $LN93@LoadBool_e
  00054	80 f2 ea	 xor	 dl, -22			; ffffffeaH
  00057	88 55 e7	 mov	 BYTE PTR __k$[ebp+3], dl
  0005a	8a 50 04	 mov	 dl, BYTE PTR [eax+4]
  0005d	84 d2		 test	 dl, dl
  0005f	0f 84 4a 01 00
	00		 je	 $LN92@LoadBool_e
  00065	80 f2 ed	 xor	 dl, -19			; ffffffedH
  00068	88 55 e8	 mov	 BYTE PTR __k$[ebp+4], dl
  0006b	8a 50 05	 mov	 dl, BYTE PTR [eax+5]
  0006e	84 d2		 test	 dl, dl
  00070	0f 84 34 01 00
	00		 je	 $LN91@LoadBool_e
  00076	32 d1		 xor	 dl, cl
  00078	88 55 e9	 mov	 BYTE PTR __k$[ebp+5], dl
  0007b	8a 50 06	 mov	 dl, BYTE PTR [eax+6]
  0007e	84 d2		 test	 dl, dl
  00080	0f 84 1e 01 00
	00		 je	 $LN90@LoadBool_e
  00086	80 f2 eb	 xor	 dl, -21			; ffffffebH
  00089	88 55 ea	 mov	 BYTE PTR __k$[ebp+6], dl
  0008c	8a 50 07	 mov	 dl, BYTE PTR [eax+7]
  0008f	84 d2		 test	 dl, dl
  00091	0f 84 07 01 00
	00		 je	 $LN89@LoadBool_e
  00097	80 f2 ea	 xor	 dl, -22			; ffffffeaH
  0009a	88 55 eb	 mov	 BYTE PTR __k$[ebp+7], dl
  0009d	8a 50 08	 mov	 dl, BYTE PTR [eax+8]
  000a0	84 d2		 test	 dl, dl
  000a2	0f 84 f0 00 00
	00		 je	 $LN88@LoadBool_e
  000a8	80 f2 ed	 xor	 dl, -19			; ffffffedH
  000ab	88 55 ec	 mov	 BYTE PTR __k$[ebp+8], dl
  000ae	8a 50 09	 mov	 dl, BYTE PTR [eax+9]
  000b1	84 d2		 test	 dl, dl
  000b3	0f 84 da 00 00
	00		 je	 $LN87@LoadBool_e
  000b9	32 d1		 xor	 dl, cl
  000bb	88 55 ed	 mov	 BYTE PTR __k$[ebp+9], dl
  000be	8a 50 0a	 mov	 dl, BYTE PTR [eax+10]
  000c1	84 d2		 test	 dl, dl
  000c3	0f 84 c4 00 00
	00		 je	 $LN86@LoadBool_e
  000c9	80 f2 eb	 xor	 dl, -21			; ffffffebH
  000cc	88 55 ee	 mov	 BYTE PTR __k$[ebp+10], dl
  000cf	8a 50 0b	 mov	 dl, BYTE PTR [eax+11]
  000d2	84 d2		 test	 dl, dl
  000d4	0f 84 ad 00 00
	00		 je	 $LN85@LoadBool_e
  000da	80 f2 ea	 xor	 dl, -22			; ffffffeaH
  000dd	88 55 ef	 mov	 BYTE PTR __k$[ebp+11], dl
  000e0	8a 50 0c	 mov	 dl, BYTE PTR [eax+12]
  000e3	84 d2		 test	 dl, dl
  000e5	0f 84 96 00 00
	00		 je	 $LN84@LoadBool_e
  000eb	80 f2 ed	 xor	 dl, -19			; ffffffedH
  000ee	88 55 f0	 mov	 BYTE PTR __k$[ebp+12], dl
  000f1	8a 50 0d	 mov	 dl, BYTE PTR [eax+13]
  000f4	84 d2		 test	 dl, dl
  000f6	0f 84 80 00 00
	00		 je	 $LN83@LoadBool_e
  000fc	32 d1		 xor	 dl, cl
  000fe	88 55 f1	 mov	 BYTE PTR __k$[ebp+13], dl
  00101	8a 50 0e	 mov	 dl, BYTE PTR [eax+14]
  00104	84 d2		 test	 dl, dl
  00106	74 6e		 je	 SHORT $LN82@LoadBool_e
  00108	80 f2 eb	 xor	 dl, -21			; ffffffebH
  0010b	88 55 f2	 mov	 BYTE PTR __k$[ebp+14], dl
  0010e	8a 50 0f	 mov	 dl, BYTE PTR [eax+15]
  00111	84 d2		 test	 dl, dl
  00113	74 5b		 je	 SHORT $LN81@LoadBool_e
  00115	80 f2 ea	 xor	 dl, -22			; ffffffeaH
  00118	80 78 10 00	 cmp	 BYTE PTR [eax+16], 0
  0011c	88 55 f3	 mov	 BYTE PTR __k$[ebp+15], dl
  0011f	0f 84 a6 00 00
	00		 je	 $LN1@LoadBool_e
  00125	8a 50 11	 mov	 dl, BYTE PTR [eax+17]
  00128	84 d2		 test	 dl, dl
  0012a	74 3f		 je	 SHORT $LN79@LoadBool_e
  0012c	32 d1		 xor	 dl, cl
  0012e	88 55 f5	 mov	 BYTE PTR __k$[ebp+17], dl
  00131	8a 50 12	 mov	 dl, BYTE PTR [eax+18]
  00134	84 d2		 test	 dl, dl
  00136	74 2d		 je	 SHORT $LN78@LoadBool_e
  00138	80 f2 eb	 xor	 dl, -21			; ffffffebH
  0013b	88 55 f6	 mov	 BYTE PTR __k$[ebp+18], dl
  0013e	8a 50 13	 mov	 dl, BYTE PTR [eax+19]
  00141	84 d2		 test	 dl, dl
  00143	74 1a		 je	 SHORT $LN77@LoadBool_e
  00145	8a 40 14	 mov	 al, BYTE PTR [eax+20]
  00148	80 f2 ea	 xor	 dl, -22			; ffffffeaH
  0014b	88 55 f7	 mov	 BYTE PTR __k$[ebp+19], dl
  0014e	84 c0		 test	 al, al
  00150	74 07		 je	 SHORT $LN76@LoadBool_e
  00152	34 ed		 xor	 al, -19			; ffffffedH
  00154	88 45 f8	 mov	 BYTE PTR __k$[ebp+20], al
  00157	eb 72		 jmp	 SHORT $LN1@LoadBool_e
$LN76@LoadBool_e:
  00159	c6 45 f8 ed	 mov	 BYTE PTR __k$[ebp+20], -19 ; ffffffedH
  0015d	eb 6c		 jmp	 SHORT $LN1@LoadBool_e
$LN77@LoadBool_e:
  0015f	c6 45 f7 ea	 mov	 BYTE PTR __k$[ebp+19], -22 ; ffffffeaH
  00163	eb 66		 jmp	 SHORT $LN1@LoadBool_e
$LN78@LoadBool_e:
  00165	c6 45 f6 eb	 mov	 BYTE PTR __k$[ebp+18], -21 ; ffffffebH
  00169	eb 60		 jmp	 SHORT $LN1@LoadBool_e
$LN79@LoadBool_e:
  0016b	88 4d f5	 mov	 BYTE PTR __k$[ebp+17], cl
  0016e	eb 5b		 jmp	 SHORT $LN1@LoadBool_e
$LN81@LoadBool_e:
  00170	c6 45 f3 ea	 mov	 BYTE PTR __k$[ebp+15], -22 ; ffffffeaH
  00174	eb 55		 jmp	 SHORT $LN1@LoadBool_e
$LN82@LoadBool_e:
  00176	c6 45 f2 eb	 mov	 BYTE PTR __k$[ebp+14], -21 ; ffffffebH
  0017a	eb 4f		 jmp	 SHORT $LN1@LoadBool_e
$LN83@LoadBool_e:
  0017c	88 4d f1	 mov	 BYTE PTR __k$[ebp+13], cl
  0017f	eb 4a		 jmp	 SHORT $LN1@LoadBool_e
$LN84@LoadBool_e:
  00181	c6 45 f0 ed	 mov	 BYTE PTR __k$[ebp+12], -19 ; ffffffedH
  00185	eb 44		 jmp	 SHORT $LN1@LoadBool_e
$LN85@LoadBool_e:
  00187	c6 45 ef ea	 mov	 BYTE PTR __k$[ebp+11], -22 ; ffffffeaH
  0018b	eb 3e		 jmp	 SHORT $LN1@LoadBool_e
$LN86@LoadBool_e:
  0018d	c6 45 ee eb	 mov	 BYTE PTR __k$[ebp+10], -21 ; ffffffebH
  00191	eb 38		 jmp	 SHORT $LN1@LoadBool_e
$LN87@LoadBool_e:
  00193	88 4d ed	 mov	 BYTE PTR __k$[ebp+9], cl
  00196	eb 33		 jmp	 SHORT $LN1@LoadBool_e
$LN88@LoadBool_e:
  00198	c6 45 ec ed	 mov	 BYTE PTR __k$[ebp+8], -19 ; ffffffedH
  0019c	eb 2d		 jmp	 SHORT $LN1@LoadBool_e
$LN89@LoadBool_e:
  0019e	c6 45 eb ea	 mov	 BYTE PTR __k$[ebp+7], -22 ; ffffffeaH
  001a2	eb 27		 jmp	 SHORT $LN1@LoadBool_e
$LN90@LoadBool_e:
  001a4	c6 45 ea eb	 mov	 BYTE PTR __k$[ebp+6], -21 ; ffffffebH
  001a8	eb 21		 jmp	 SHORT $LN1@LoadBool_e
$LN91@LoadBool_e:
  001aa	88 4d e9	 mov	 BYTE PTR __k$[ebp+5], cl
  001ad	eb 1c		 jmp	 SHORT $LN1@LoadBool_e
$LN92@LoadBool_e:
  001af	c6 45 e8 ed	 mov	 BYTE PTR __k$[ebp+4], -19 ; ffffffedH
  001b3	eb 16		 jmp	 SHORT $LN1@LoadBool_e
$LN93@LoadBool_e:
  001b5	c6 45 e7 ea	 mov	 BYTE PTR __k$[ebp+3], -22 ; ffffffeaH
  001b9	eb 10		 jmp	 SHORT $LN1@LoadBool_e
$LN94@LoadBool_e:
  001bb	c6 45 e6 eb	 mov	 BYTE PTR __k$[ebp+2], -21 ; ffffffebH
  001bf	eb 0a		 jmp	 SHORT $LN1@LoadBool_e
$LN95@LoadBool_e:
  001c1	c6 45 e5 ec	 mov	 BYTE PTR __k$[ebp+1], -20 ; ffffffecH
  001c5	eb 04		 jmp	 SHORT $LN1@LoadBool_e
$LN96@LoadBool_e:
  001c7	c6 45 e4 ed	 mov	 BYTE PTR __k$[ebp], -19	; ffffffedH
$LN1@LoadBool_e:
  001cb	6a 04		 push	 4
  001cd	8d 45 e4	 lea	 eax, DWORD PTR __k$[ebp]
  001d0	c6 45 f4 00	 mov	 BYTE PTR __k$[ebp+16], 0
  001d4	5a		 pop	 edx
$LL104@LoadBool_e:
  001d5	81 30 ed ec eb
	ea		 xor	 DWORD PTR [eax], -353637139 ; eaebecedH
  001db	83 c0 04	 add	 eax, 4
  001de	4a		 dec	 edx
  001df	75 f4		 jne	 SHORT $LL104@LoadBool_e

; 103  : 		return LoadBool(_k, b);

  001e1	ff 75 0c	 push	 DWORD PTR _b$[ebp]
  001e4	8d 45 e4	 lea	 eax, DWORD PTR __k$[ebp]
  001e7	50		 push	 eax
  001e8	8b ce		 mov	 ecx, esi
  001ea	ff 15 00 00 00
	00		 call	 DWORD PTR __imp_?LoadBool@ioINILoader@@QAE_NPBD_N@Z

; 104  : 	}

  001f0	8b 4d fc	 mov	 ecx, DWORD PTR __$ArrayPad$[ebp]
  001f3	33 cd		 xor	 ecx, ebp
  001f5	5e		 pop	 esi
  001f6	e8 00 00 00 00	 call	 @__security_check_cookie@4
  001fb	c9		 leave
  001fc	c2 08 00	 ret	 8
??$LoadBool_e@$0BB@@ioINILoader@@QAE_NAAY0BB@$$CBD_N@Z ENDP ; ioINILoader::LoadBool_e<17>
_TEXT	ENDS
PUBLIC	__$ArrayPad$
PUBLIC	??$LoadBool_e@$0BG@@ioINILoader@@QAE_NAAY0BG@$$CBD_N@Z ; ioINILoader::LoadBool_e<22>
; Function compile flags: /Ogsp
;	COMDAT ??$LoadBool_e@$0BG@@ioINILoader@@QAE_NAAY0BG@$$CBD_N@Z
_TEXT	SEGMENT
__k$ = -32						; size = 22
__$ArrayPad$ = -4					; size = 4
_k$ = 8							; size = 4
_b$ = 12						; size = 1
??$LoadBool_e@$0BG@@ioINILoader@@QAE_NAAY0BG@$$CBD_N@Z PROC ; ioINILoader::LoadBool_e<22>, COMDAT
; _this$ = ecx

; 101  : 	{

  00000	55		 push	 ebp
  00001	8b ec		 mov	 ebp, esp
  00003	83 ec 20	 sub	 esp, 32			; 00000020H
  00006	a1 00 00 00 00	 mov	 eax, DWORD PTR ___security_cookie
  0000b	33 c5		 xor	 eax, ebp
  0000d	89 45 fc	 mov	 DWORD PTR __$ArrayPad$[ebp], eax
  00010	8b 45 08	 mov	 eax, DWORD PTR _k$[ebp]

; 102  : 		_ENCSTR(k, _k);

  00013	8a 10		 mov	 dl, BYTE PTR [eax]
  00015	53		 push	 ebx
  00016	56		 push	 esi
  00017	8b f1		 mov	 esi, ecx
  00019	84 d2		 test	 dl, dl
  0001b	0f 84 15 02 00
	00		 je	 $LN96@LoadBool_e@2
  00021	80 f2 ed	 xor	 dl, -19			; ffffffedH
  00024	88 55 e0	 mov	 BYTE PTR __k$[ebp], dl
  00027	8a 50 01	 mov	 dl, BYTE PTR [eax+1]
  0002a	84 d2		 test	 dl, dl
  0002c	0f 84 fe 01 00
	00		 je	 $LN95@LoadBool_e@2
  00032	80 f2 ec	 xor	 dl, -20			; ffffffecH
  00035	88 55 e1	 mov	 BYTE PTR __k$[ebp+1], dl
  00038	8a 50 02	 mov	 dl, BYTE PTR [eax+2]
  0003b	84 d2		 test	 dl, dl
  0003d	0f 84 e7 01 00
	00		 je	 $LN94@LoadBool_e@2
  00043	b1 eb		 mov	 cl, -21			; ffffffebH
  00045	32 d1		 xor	 dl, cl
  00047	88 55 e2	 mov	 BYTE PTR __k$[ebp+2], dl
  0004a	8a 50 03	 mov	 dl, BYTE PTR [eax+3]
  0004d	84 d2		 test	 dl, dl
  0004f	0f 84 cf 01 00
	00		 je	 $LN93@LoadBool_e@2
  00055	b3 ea		 mov	 bl, -22			; ffffffeaH
  00057	32 d3		 xor	 dl, bl
  00059	88 55 e3	 mov	 BYTE PTR __k$[ebp+3], dl
  0005c	8a 50 04	 mov	 dl, BYTE PTR [eax+4]
  0005f	84 d2		 test	 dl, dl
  00061	0f 84 b7 01 00
	00		 je	 $LN92@LoadBool_e@2
  00067	80 f2 ed	 xor	 dl, -19			; ffffffedH
  0006a	88 55 e4	 mov	 BYTE PTR __k$[ebp+4], dl
  0006d	8a 50 05	 mov	 dl, BYTE PTR [eax+5]
  00070	84 d2		 test	 dl, dl
  00072	0f 84 a0 01 00
	00		 je	 $LN91@LoadBool_e@2
  00078	80 f2 ec	 xor	 dl, -20			; ffffffecH
  0007b	88 55 e5	 mov	 BYTE PTR __k$[ebp+5], dl
  0007e	8a 50 06	 mov	 dl, BYTE PTR [eax+6]
  00081	84 d2		 test	 dl, dl
  00083	0f 84 8a 01 00
	00		 je	 $LN90@LoadBool_e@2
  00089	32 d1		 xor	 dl, cl
  0008b	88 55 e6	 mov	 BYTE PTR __k$[ebp+6], dl
  0008e	8a 50 07	 mov	 dl, BYTE PTR [eax+7]
  00091	84 d2		 test	 dl, dl
  00093	0f 84 75 01 00
	00		 je	 $LN89@LoadBool_e@2
  00099	32 d3		 xor	 dl, bl
  0009b	88 55 e7	 mov	 BYTE PTR __k$[ebp+7], dl
  0009e	8a 50 08	 mov	 dl, BYTE PTR [eax+8]
  000a1	84 d2		 test	 dl, dl
  000a3	0f 84 5f 01 00
	00		 je	 $LN88@LoadBool_e@2
  000a9	80 f2 ed	 xor	 dl, -19			; ffffffedH
  000ac	88 55 e8	 mov	 BYTE PTR __k$[ebp+8], dl
  000af	8a 50 09	 mov	 dl, BYTE PTR [eax+9]
  000b2	84 d2		 test	 dl, dl
  000b4	0f 84 48 01 00
	00		 je	 $LN87@LoadBool_e@2
  000ba	80 f2 ec	 xor	 dl, -20			; ffffffecH
  000bd	88 55 e9	 mov	 BYTE PTR __k$[ebp+9], dl
  000c0	8a 50 0a	 mov	 dl, BYTE PTR [eax+10]
  000c3	84 d2		 test	 dl, dl
  000c5	0f 84 32 01 00
	00		 je	 $LN86@LoadBool_e@2
  000cb	32 d1		 xor	 dl, cl
  000cd	88 55 ea	 mov	 BYTE PTR __k$[ebp+10], dl
  000d0	8a 50 0b	 mov	 dl, BYTE PTR [eax+11]
  000d3	84 d2		 test	 dl, dl
  000d5	0f 84 1d 01 00
	00		 je	 $LN85@LoadBool_e@2
  000db	32 d3		 xor	 dl, bl
  000dd	88 55 eb	 mov	 BYTE PTR __k$[ebp+11], dl
  000e0	8a 50 0c	 mov	 dl, BYTE PTR [eax+12]
  000e3	84 d2		 test	 dl, dl
  000e5	0f 84 07 01 00
	00		 je	 $LN84@LoadBool_e@2
  000eb	80 f2 ed	 xor	 dl, -19			; ffffffedH
  000ee	88 55 ec	 mov	 BYTE PTR __k$[ebp+12], dl
  000f1	8a 50 0d	 mov	 dl, BYTE PTR [eax+13]
  000f4	84 d2		 test	 dl, dl
  000f6	0f 84 f0 00 00
	00		 je	 $LN83@LoadBool_e@2
  000fc	80 f2 ec	 xor	 dl, -20			; ffffffecH
  000ff	88 55 ed	 mov	 BYTE PTR __k$[ebp+13], dl
  00102	8a 50 0e	 mov	 dl, BYTE PTR [eax+14]
  00105	84 d2		 test	 dl, dl
  00107	0f 84 da 00 00
	00		 je	 $LN82@LoadBool_e@2
  0010d	32 d1		 xor	 dl, cl
  0010f	88 55 ee	 mov	 BYTE PTR __k$[ebp+14], dl
  00112	8a 50 0f	 mov	 dl, BYTE PTR [eax+15]
  00115	84 d2		 test	 dl, dl
  00117	0f 84 c5 00 00
	00		 je	 $LN81@LoadBool_e@2
  0011d	32 d3		 xor	 dl, bl
  0011f	88 55 ef	 mov	 BYTE PTR __k$[ebp+15], dl
  00122	8a 50 10	 mov	 dl, BYTE PTR [eax+16]
  00125	84 d2		 test	 dl, dl
  00127	0f 84 af 00 00
	00		 je	 $LN80@LoadBool_e@2
  0012d	80 f2 ed	 xor	 dl, -19			; ffffffedH
  00130	88 55 f0	 mov	 BYTE PTR __k$[ebp+16], dl
  00133	8a 50 11	 mov	 dl, BYTE PTR [eax+17]
  00136	84 d2		 test	 dl, dl
  00138	0f 84 98 00 00
	00		 je	 $LN79@LoadBool_e@2
  0013e	80 f2 ec	 xor	 dl, -20			; ffffffecH
  00141	88 55 f1	 mov	 BYTE PTR __k$[ebp+17], dl
  00144	8a 50 12	 mov	 dl, BYTE PTR [eax+18]
  00147	84 d2		 test	 dl, dl
  00149	0f 84 82 00 00
	00		 je	 $LN78@LoadBool_e@2
  0014f	32 d1		 xor	 dl, cl
  00151	88 55 f2	 mov	 BYTE PTR __k$[ebp+18], dl
  00154	8a 50 13	 mov	 dl, BYTE PTR [eax+19]
  00157	84 d2		 test	 dl, dl
  00159	74 71		 je	 SHORT $LN77@LoadBool_e@2
  0015b	32 d3		 xor	 dl, bl
  0015d	88 55 f3	 mov	 BYTE PTR __k$[ebp+19], dl
  00160	8a 50 14	 mov	 dl, BYTE PTR [eax+20]
  00163	84 d2		 test	 dl, dl
  00165	74 5f		 je	 SHORT $LN76@LoadBool_e@2
  00167	80 f2 ed	 xor	 dl, -19			; ffffffedH
  0016a	80 78 15 00	 cmp	 BYTE PTR [eax+21], 0
  0016e	88 55 f4	 mov	 BYTE PTR __k$[ebp+20], dl
  00171	0f 84 c3 00 00
	00		 je	 $LN1@LoadBool_e@2
  00177	8a 50 16	 mov	 dl, BYTE PTR [eax+22]
  0017a	84 d2		 test	 dl, dl
  0017c	74 43		 je	 SHORT $LN74@LoadBool_e@2
  0017e	32 d1		 xor	 dl, cl
  00180	88 55 f6	 mov	 BYTE PTR __k$[ebp+22], dl
  00183	8a 50 17	 mov	 dl, BYTE PTR [eax+23]
  00186	84 d2		 test	 dl, dl
  00188	74 32		 je	 SHORT $LN73@LoadBool_e@2
  0018a	32 d3		 xor	 dl, bl
  0018c	88 55 f7	 mov	 BYTE PTR __k$[ebp+23], dl
  0018f	8a 50 18	 mov	 dl, BYTE PTR [eax+24]
  00192	84 d2		 test	 dl, dl
  00194	74 20		 je	 SHORT $LN72@LoadBool_e@2
  00196	8a 40 19	 mov	 al, BYTE PTR [eax+25]
  00199	80 f2 ed	 xor	 dl, -19			; ffffffedH
  0019c	88 55 f8	 mov	 BYTE PTR __k$[ebp+24], dl
  0019f	84 c0		 test	 al, al
  001a1	74 0a		 je	 SHORT $LN71@LoadBool_e@2
  001a3	34 ec		 xor	 al, -20			; ffffffecH
  001a5	88 45 f9	 mov	 BYTE PTR __k$[ebp+25], al
  001a8	e9 8d 00 00 00	 jmp	 $LN1@LoadBool_e@2
$LN71@LoadBool_e@2:
  001ad	c6 45 f9 ec	 mov	 BYTE PTR __k$[ebp+25], -20 ; ffffffecH
  001b1	e9 84 00 00 00	 jmp	 $LN1@LoadBool_e@2
$LN72@LoadBool_e@2:
  001b6	c6 45 f8 ed	 mov	 BYTE PTR __k$[ebp+24], -19 ; ffffffedH
  001ba	eb 7e		 jmp	 SHORT $LN1@LoadBool_e@2
$LN73@LoadBool_e@2:
  001bc	88 5d f7	 mov	 BYTE PTR __k$[ebp+23], bl
  001bf	eb 79		 jmp	 SHORT $LN1@LoadBool_e@2
$LN74@LoadBool_e@2:
  001c1	88 4d f6	 mov	 BYTE PTR __k$[ebp+22], cl
  001c4	eb 74		 jmp	 SHORT $LN1@LoadBool_e@2
$LN76@LoadBool_e@2:
  001c6	c6 45 f4 ed	 mov	 BYTE PTR __k$[ebp+20], -19 ; ffffffedH
  001ca	eb 6e		 jmp	 SHORT $LN1@LoadBool_e@2
$LN77@LoadBool_e@2:
  001cc	88 5d f3	 mov	 BYTE PTR __k$[ebp+19], bl
  001cf	eb 69		 jmp	 SHORT $LN1@LoadBool_e@2
$LN78@LoadBool_e@2:
  001d1	88 4d f2	 mov	 BYTE PTR __k$[ebp+18], cl
  001d4	eb 64		 jmp	 SHORT $LN1@LoadBool_e@2
$LN79@LoadBool_e@2:
  001d6	c6 45 f1 ec	 mov	 BYTE PTR __k$[ebp+17], -20 ; ffffffecH
  001da	eb 5e		 jmp	 SHORT $LN1@LoadBool_e@2
$LN80@LoadBool_e@2:
  001dc	c6 45 f0 ed	 mov	 BYTE PTR __k$[ebp+16], -19 ; ffffffedH
  001e0	eb 58		 jmp	 SHORT $LN1@LoadBool_e@2
$LN81@LoadBool_e@2:
  001e2	88 5d ef	 mov	 BYTE PTR __k$[ebp+15], bl
  001e5	eb 53		 jmp	 SHORT $LN1@LoadBool_e@2
$LN82@LoadBool_e@2:
  001e7	88 4d ee	 mov	 BYTE PTR __k$[ebp+14], cl
  001ea	eb 4e		 jmp	 SHORT $LN1@LoadBool_e@2
$LN83@LoadBool_e@2:
  001ec	c6 45 ed ec	 mov	 BYTE PTR __k$[ebp+13], -20 ; ffffffecH
  001f0	eb 48		 jmp	 SHORT $LN1@LoadBool_e@2
$LN84@LoadBool_e@2:
  001f2	c6 45 ec ed	 mov	 BYTE PTR __k$[ebp+12], -19 ; ffffffedH
  001f6	eb 42		 jmp	 SHORT $LN1@LoadBool_e@2
$LN85@LoadBool_e@2:
  001f8	88 5d eb	 mov	 BYTE PTR __k$[ebp+11], bl
  001fb	eb 3d		 jmp	 SHORT $LN1@LoadBool_e@2
$LN86@LoadBool_e@2:
  001fd	88 4d ea	 mov	 BYTE PTR __k$[ebp+10], cl
  00200	eb 38		 jmp	 SHORT $LN1@LoadBool_e@2
$LN87@LoadBool_e@2:
  00202	c6 45 e9 ec	 mov	 BYTE PTR __k$[ebp+9], -20 ; ffffffecH
  00206	eb 32		 jmp	 SHORT $LN1@LoadBool_e@2
$LN88@LoadBool_e@2:
  00208	c6 45 e8 ed	 mov	 BYTE PTR __k$[ebp+8], -19 ; ffffffedH
  0020c	eb 2c		 jmp	 SHORT $LN1@LoadBool_e@2
$LN89@LoadBool_e@2:
  0020e	88 5d e7	 mov	 BYTE PTR __k$[ebp+7], bl
  00211	eb 27		 jmp	 SHORT $LN1@LoadBool_e@2
$LN90@LoadBool_e@2:
  00213	88 4d e6	 mov	 BYTE PTR __k$[ebp+6], cl
  00216	eb 22		 jmp	 SHORT $LN1@LoadBool_e@2
$LN91@LoadBool_e@2:
  00218	c6 45 e5 ec	 mov	 BYTE PTR __k$[ebp+5], -20 ; ffffffecH
  0021c	eb 1c		 jmp	 SHORT $LN1@LoadBool_e@2
$LN92@LoadBool_e@2:
  0021e	c6 45 e4 ed	 mov	 BYTE PTR __k$[ebp+4], -19 ; ffffffedH
  00222	eb 16		 jmp	 SHORT $LN1@LoadBool_e@2
$LN93@LoadBool_e@2:
  00224	c6 45 e3 ea	 mov	 BYTE PTR __k$[ebp+3], -22 ; ffffffeaH
  00228	eb 10		 jmp	 SHORT $LN1@LoadBool_e@2
$LN94@LoadBool_e@2:
  0022a	c6 45 e2 eb	 mov	 BYTE PTR __k$[ebp+2], -21 ; ffffffebH
  0022e	eb 0a		 jmp	 SHORT $LN1@LoadBool_e@2
$LN95@LoadBool_e@2:
  00230	c6 45 e1 ec	 mov	 BYTE PTR __k$[ebp+1], -20 ; ffffffecH
  00234	eb 04		 jmp	 SHORT $LN1@LoadBool_e@2
$LN96@LoadBool_e@2:
  00236	c6 45 e0 ed	 mov	 BYTE PTR __k$[ebp], -19	; ffffffedH
$LN1@LoadBool_e@2:
  0023a	6a 05		 push	 5
  0023c	8d 45 e0	 lea	 eax, DWORD PTR __k$[ebp]
  0023f	c6 45 f5 00	 mov	 BYTE PTR __k$[ebp+21], 0
  00243	5a		 pop	 edx
$LL104@LoadBool_e@2:
  00244	81 30 ed ec eb
	ea		 xor	 DWORD PTR [eax], -353637139 ; eaebecedH
  0024a	83 c0 04	 add	 eax, 4
  0024d	4a		 dec	 edx
  0024e	75 f4		 jne	 SHORT $LL104@LoadBool_e@2

; 103  : 		return LoadBool(_k, b);

  00250	ff 75 0c	 push	 DWORD PTR _b$[ebp]
  00253	80 75 f4 ed	 xor	 BYTE PTR __k$[ebp+20], -19 ; ffffffedH
  00257	8d 45 e0	 lea	 eax, DWORD PTR __k$[ebp]
  0025a	50		 push	 eax
  0025b	8b ce		 mov	 ecx, esi
  0025d	ff 15 00 00 00
	00		 call	 DWORD PTR __imp_?LoadBool@ioINILoader@@QAE_NPBD_N@Z

; 104  : 	}

  00263	8b 4d fc	 mov	 ecx, DWORD PTR __$ArrayPad$[ebp]
  00266	5e		 pop	 esi
  00267	33 cd		 xor	 ecx, ebp
  00269	5b		 pop	 ebx
  0026a	e8 00 00 00 00	 call	 @__security_check_cookie@4
  0026f	c9		 leave
  00270	c2 08 00	 ret	 8
??$LoadBool_e@$0BG@@ioINILoader@@QAE_NAAY0BG@$$CBD_N@Z ENDP ; ioINILoader::LoadBool_e<22>
_TEXT	ENDS
PUBLIC	__$ArrayPad$
PUBLIC	??$LoadFloat_e@$0M@@ioINILoader@@QAEMAAY0M@$$CBDM@Z ; ioINILoader::LoadFloat_e<12>
; Function compile flags: /Ogsp
;	COMDAT ??$LoadFloat_e@$0M@@ioINILoader@@QAEMAAY0M@$$CBDM@Z
_TEXT	SEGMENT
__k$ = -20						; size = 12
__$ArrayPad$ = -4					; size = 4
_k$ = 8							; size = 4
_f$ = 12						; size = 4
??$LoadFloat_e@$0M@@ioINILoader@@QAEMAAY0M@$$CBDM@Z PROC ; ioINILoader::LoadFloat_e<12>, COMDAT
; _this$ = ecx

; 135  : 	{

  00000	55		 push	 ebp
  00001	8b ec		 mov	 ebp, esp
  00003	83 ec 14	 sub	 esp, 20			; 00000014H
  00006	a1 00 00 00 00	 mov	 eax, DWORD PTR ___security_cookie
  0000b	33 c5		 xor	 eax, ebp
  0000d	89 45 fc	 mov	 DWORD PTR __$ArrayPad$[ebp], eax
  00010	8b 45 08	 mov	 eax, DWORD PTR _k$[ebp]

; 136  : 		_ENCSTR(k, _k);

  00013	8a 10		 mov	 dl, BYTE PTR [eax]
  00015	56		 push	 esi
  00016	8b f1		 mov	 esi, ecx
  00018	84 d2		 test	 dl, dl
  0001a	0f 84 32 01 00
	00		 je	 $LN96@LoadFloat_@2
  00020	80 f2 ed	 xor	 dl, -19			; ffffffedH
  00023	88 55 ec	 mov	 BYTE PTR __k$[ebp], dl
  00026	8a 50 01	 mov	 dl, BYTE PTR [eax+1]
  00029	84 d2		 test	 dl, dl
  0002b	0f 84 1b 01 00
	00		 je	 $LN95@LoadFloat_@2
  00031	80 f2 ec	 xor	 dl, -20			; ffffffecH
  00034	88 55 ed	 mov	 BYTE PTR __k$[ebp+1], dl
  00037	8a 50 02	 mov	 dl, BYTE PTR [eax+2]
  0003a	84 d2		 test	 dl, dl
  0003c	0f 84 04 01 00
	00		 je	 $LN94@LoadFloat_@2
  00042	b1 eb		 mov	 cl, -21			; ffffffebH
  00044	32 d1		 xor	 dl, cl
  00046	88 55 ee	 mov	 BYTE PTR __k$[ebp+2], dl
  00049	8a 50 03	 mov	 dl, BYTE PTR [eax+3]
  0004c	84 d2		 test	 dl, dl
  0004e	0f 84 ec 00 00
	00		 je	 $LN93@LoadFloat_@2
  00054	80 f2 ea	 xor	 dl, -22			; ffffffeaH
  00057	88 55 ef	 mov	 BYTE PTR __k$[ebp+3], dl
  0005a	8a 50 04	 mov	 dl, BYTE PTR [eax+4]
  0005d	84 d2		 test	 dl, dl
  0005f	0f 84 d5 00 00
	00		 je	 $LN92@LoadFloat_@2
  00065	80 f2 ed	 xor	 dl, -19			; ffffffedH
  00068	88 55 f0	 mov	 BYTE PTR __k$[ebp+4], dl
  0006b	8a 50 05	 mov	 dl, BYTE PTR [eax+5]
  0006e	84 d2		 test	 dl, dl
  00070	0f 84 be 00 00
	00		 je	 $LN91@LoadFloat_@2
  00076	80 f2 ec	 xor	 dl, -20			; ffffffecH
  00079	88 55 f1	 mov	 BYTE PTR __k$[ebp+5], dl
  0007c	8a 50 06	 mov	 dl, BYTE PTR [eax+6]
  0007f	84 d2		 test	 dl, dl
  00081	0f 84 a8 00 00
	00		 je	 $LN90@LoadFloat_@2
  00087	32 d1		 xor	 dl, cl
  00089	88 55 f2	 mov	 BYTE PTR __k$[ebp+6], dl
  0008c	8a 50 07	 mov	 dl, BYTE PTR [eax+7]
  0008f	84 d2		 test	 dl, dl
  00091	0f 84 92 00 00
	00		 je	 $LN89@LoadFloat_@2
  00097	80 f2 ea	 xor	 dl, -22			; ffffffeaH
  0009a	88 55 f3	 mov	 BYTE PTR __k$[ebp+7], dl
  0009d	8a 50 08	 mov	 dl, BYTE PTR [eax+8]
  000a0	84 d2		 test	 dl, dl
  000a2	74 7f		 je	 SHORT $LN88@LoadFloat_@2
  000a4	80 f2 ed	 xor	 dl, -19			; ffffffedH
  000a7	88 55 f4	 mov	 BYTE PTR __k$[ebp+8], dl
  000aa	8a 50 09	 mov	 dl, BYTE PTR [eax+9]
  000ad	84 d2		 test	 dl, dl
  000af	74 6c		 je	 SHORT $LN87@LoadFloat_@2
  000b1	80 f2 ec	 xor	 dl, -20			; ffffffecH
  000b4	88 55 f5	 mov	 BYTE PTR __k$[ebp+9], dl
  000b7	8a 50 0a	 mov	 dl, BYTE PTR [eax+10]
  000ba	84 d2		 test	 dl, dl
  000bc	74 5a		 je	 SHORT $LN86@LoadFloat_@2
  000be	32 d1		 xor	 dl, cl
  000c0	80 78 0b 00	 cmp	 BYTE PTR [eax+11], 0
  000c4	88 55 f6	 mov	 BYTE PTR __k$[ebp+10], dl
  000c7	0f 84 89 00 00
	00		 je	 $LN1@LoadFloat_@2
  000cd	8a 50 0c	 mov	 dl, BYTE PTR [eax+12]
  000d0	84 d2		 test	 dl, dl
  000d2	74 3e		 je	 SHORT $LN84@LoadFloat_@2
  000d4	80 f2 ed	 xor	 dl, -19			; ffffffedH
  000d7	88 55 f8	 mov	 BYTE PTR __k$[ebp+12], dl
  000da	8a 50 0d	 mov	 dl, BYTE PTR [eax+13]
  000dd	84 d2		 test	 dl, dl
  000df	74 2b		 je	 SHORT $LN83@LoadFloat_@2
  000e1	80 f2 ec	 xor	 dl, -20			; ffffffecH
  000e4	88 55 f9	 mov	 BYTE PTR __k$[ebp+13], dl
  000e7	8a 50 0e	 mov	 dl, BYTE PTR [eax+14]
  000ea	84 d2		 test	 dl, dl
  000ec	74 19		 je	 SHORT $LN82@LoadFloat_@2
  000ee	8a 40 0f	 mov	 al, BYTE PTR [eax+15]
  000f1	32 d1		 xor	 dl, cl
  000f3	88 55 fa	 mov	 BYTE PTR __k$[ebp+14], dl
  000f6	84 c0		 test	 al, al
  000f8	74 07		 je	 SHORT $LN81@LoadFloat_@2
  000fa	34 ea		 xor	 al, -22			; ffffffeaH
  000fc	88 45 fb	 mov	 BYTE PTR __k$[ebp+15], al
  000ff	eb 55		 jmp	 SHORT $LN1@LoadFloat_@2
$LN81@LoadFloat_@2:
  00101	c6 45 fb ea	 mov	 BYTE PTR __k$[ebp+15], -22 ; ffffffeaH
  00105	eb 4f		 jmp	 SHORT $LN1@LoadFloat_@2
$LN82@LoadFloat_@2:
  00107	88 4d fa	 mov	 BYTE PTR __k$[ebp+14], cl
  0010a	eb 4a		 jmp	 SHORT $LN1@LoadFloat_@2
$LN83@LoadFloat_@2:
  0010c	c6 45 f9 ec	 mov	 BYTE PTR __k$[ebp+13], -20 ; ffffffecH
  00110	eb 44		 jmp	 SHORT $LN1@LoadFloat_@2
$LN84@LoadFloat_@2:
  00112	c6 45 f8 ed	 mov	 BYTE PTR __k$[ebp+12], -19 ; ffffffedH
  00116	eb 3e		 jmp	 SHORT $LN1@LoadFloat_@2
$LN86@LoadFloat_@2:
  00118	88 4d f6	 mov	 BYTE PTR __k$[ebp+10], cl
  0011b	eb 39		 jmp	 SHORT $LN1@LoadFloat_@2
$LN87@LoadFloat_@2:
  0011d	c6 45 f5 ec	 mov	 BYTE PTR __k$[ebp+9], -20 ; ffffffecH
  00121	eb 33		 jmp	 SHORT $LN1@LoadFloat_@2
$LN88@LoadFloat_@2:
  00123	c6 45 f4 ed	 mov	 BYTE PTR __k$[ebp+8], -19 ; ffffffedH
  00127	eb 2d		 jmp	 SHORT $LN1@LoadFloat_@2
$LN89@LoadFloat_@2:
  00129	c6 45 f3 ea	 mov	 BYTE PTR __k$[ebp+7], -22 ; ffffffeaH
  0012d	eb 27		 jmp	 SHORT $LN1@LoadFloat_@2
$LN90@LoadFloat_@2:
  0012f	88 4d f2	 mov	 BYTE PTR __k$[ebp+6], cl
  00132	eb 22		 jmp	 SHORT $LN1@LoadFloat_@2
$LN91@LoadFloat_@2:
  00134	c6 45 f1 ec	 mov	 BYTE PTR __k$[ebp+5], -20 ; ffffffecH
  00138	eb 1c		 jmp	 SHORT $LN1@LoadFloat_@2
$LN92@LoadFloat_@2:
  0013a	c6 45 f0 ed	 mov	 BYTE PTR __k$[ebp+4], -19 ; ffffffedH
  0013e	eb 16		 jmp	 SHORT $LN1@LoadFloat_@2
$LN93@LoadFloat_@2:
  00140	c6 45 ef ea	 mov	 BYTE PTR __k$[ebp+3], -22 ; ffffffeaH
  00144	eb 10		 jmp	 SHORT $LN1@LoadFloat_@2
$LN94@LoadFloat_@2:
  00146	c6 45 ee eb	 mov	 BYTE PTR __k$[ebp+2], -21 ; ffffffebH
  0014a	eb 0a		 jmp	 SHORT $LN1@LoadFloat_@2
$LN95@LoadFloat_@2:
  0014c	c6 45 ed ec	 mov	 BYTE PTR __k$[ebp+1], -20 ; ffffffecH
  00150	eb 04		 jmp	 SHORT $LN1@LoadFloat_@2
$LN96@LoadFloat_@2:
  00152	c6 45 ec ed	 mov	 BYTE PTR __k$[ebp], -19	; ffffffedH
$LN1@LoadFloat_@2:
  00156	6a 02		 push	 2
  00158	8d 45 ec	 lea	 eax, DWORD PTR __k$[ebp]
  0015b	c6 45 f7 00	 mov	 BYTE PTR __k$[ebp+11], 0
  0015f	5a		 pop	 edx
$LL104@LoadFloat_@2:
  00160	81 30 ed ec eb
	ea		 xor	 DWORD PTR [eax], -353637139 ; eaebecedH
  00166	83 c0 04	 add	 eax, 4
  00169	4a		 dec	 edx
  0016a	75 f4		 jne	 SHORT $LL104@LoadFloat_@2
  0016c	6a 08		 push	 8
  0016e	58		 pop	 eax
$LL101@LoadFloat_@2:
  0016f	8b c8		 mov	 ecx, eax
  00171	81 e1 03 00 00
	80		 and	 ecx, -2147483645	; 80000003H
  00177	79 05		 jns	 SHORT $LN111@LoadFloat_@2
  00179	49		 dec	 ecx
  0017a	83 c9 fc	 or	 ecx, -4			; fffffffcH
  0017d	41		 inc	 ecx
$LN111@LoadFloat_@2:
  0017e	b2 ed		 mov	 dl, -19			; ffffffedH
  00180	2a d1		 sub	 dl, cl
  00182	30 54 05 ec	 xor	 BYTE PTR __k$[ebp+eax], dl
  00186	40		 inc	 eax
  00187	83 f8 0b	 cmp	 eax, 11			; 0000000bH
  0018a	7c e3		 jl	 SHORT $LL101@LoadFloat_@2

; 137  : 		return LoadFloat(_k, f);

  0018c	f3 0f 10 45 0c	 movss	 xmm0, DWORD PTR _f$[ebp]
  00191	51		 push	 ecx
  00192	8d 45 ec	 lea	 eax, DWORD PTR __k$[ebp]
  00195	f3 0f 11 04 24	 movss	 DWORD PTR [esp], xmm0
  0019a	50		 push	 eax
  0019b	8b ce		 mov	 ecx, esi
  0019d	ff 15 00 00 00
	00		 call	 DWORD PTR __imp_?LoadFloat@ioINILoader@@QAEMPBDM@Z

; 138  : 	}

  001a3	8b 4d fc	 mov	 ecx, DWORD PTR __$ArrayPad$[ebp]
  001a6	33 cd		 xor	 ecx, ebp
  001a8	5e		 pop	 esi
  001a9	e8 00 00 00 00	 call	 @__security_check_cookie@4
  001ae	c9		 leave
  001af	c2 08 00	 ret	 8
??$LoadFloat_e@$0M@@ioINILoader@@QAEMAAY0M@$$CBDM@Z ENDP ; ioINILoader::LoadFloat_e<12>
_TEXT	ENDS
PUBLIC	__$ArrayPad$
PUBLIC	??$LoadFloat_e@$09@ioINILoader@@QAEMAAY09$$CBDM@Z ; ioINILoader::LoadFloat_e<10>
; Function compile flags: /Ogsp
;	COMDAT ??$LoadFloat_e@$09@ioINILoader@@QAEMAAY09$$CBDM@Z
_TEXT	SEGMENT
__k$ = -20						; size = 10
__$ArrayPad$ = -4					; size = 4
_k$ = 8							; size = 4
_f$ = 12						; size = 4
??$LoadFloat_e@$09@ioINILoader@@QAEMAAY09$$CBDM@Z PROC	; ioINILoader::LoadFloat_e<10>, COMDAT
; _this$ = ecx

; 135  : 	{

  00000	55		 push	 ebp
  00001	8b ec		 mov	 ebp, esp
  00003	83 ec 14	 sub	 esp, 20			; 00000014H
  00006	a1 00 00 00 00	 mov	 eax, DWORD PTR ___security_cookie
  0000b	33 c5		 xor	 eax, ebp
  0000d	89 45 fc	 mov	 DWORD PTR __$ArrayPad$[ebp], eax
  00010	8b 45 08	 mov	 eax, DWORD PTR _k$[ebp]

; 136  : 		_ENCSTR(k, _k);

  00013	8a 10		 mov	 dl, BYTE PTR [eax]
  00015	84 d2		 test	 dl, dl
  00017	0f 84 0d 01 00
	00		 je	 $LN96@LoadFloat_@3
  0001d	80 f2 ed	 xor	 dl, -19			; ffffffedH
  00020	88 55 ec	 mov	 BYTE PTR __k$[ebp], dl
  00023	8a 50 01	 mov	 dl, BYTE PTR [eax+1]
  00026	84 d2		 test	 dl, dl
  00028	0f 84 f6 00 00
	00		 je	 $LN95@LoadFloat_@3
  0002e	80 f2 ec	 xor	 dl, -20			; ffffffecH
  00031	88 55 ed	 mov	 BYTE PTR __k$[ebp+1], dl
  00034	8a 50 02	 mov	 dl, BYTE PTR [eax+2]
  00037	84 d2		 test	 dl, dl
  00039	0f 84 df 00 00
	00		 je	 $LN94@LoadFloat_@3
  0003f	80 f2 eb	 xor	 dl, -21			; ffffffebH
  00042	88 55 ee	 mov	 BYTE PTR __k$[ebp+2], dl
  00045	8a 50 03	 mov	 dl, BYTE PTR [eax+3]
  00048	84 d2		 test	 dl, dl
  0004a	0f 84 c8 00 00
	00		 je	 $LN93@LoadFloat_@3
  00050	80 f2 ea	 xor	 dl, -22			; ffffffeaH
  00053	88 55 ef	 mov	 BYTE PTR __k$[ebp+3], dl
  00056	8a 50 04	 mov	 dl, BYTE PTR [eax+4]
  00059	84 d2		 test	 dl, dl
  0005b	0f 84 b1 00 00
	00		 je	 $LN92@LoadFloat_@3
  00061	80 f2 ed	 xor	 dl, -19			; ffffffedH
  00064	88 55 f0	 mov	 BYTE PTR __k$[ebp+4], dl
  00067	8a 50 05	 mov	 dl, BYTE PTR [eax+5]
  0006a	84 d2		 test	 dl, dl
  0006c	0f 84 9a 00 00
	00		 je	 $LN91@LoadFloat_@3
  00072	80 f2 ec	 xor	 dl, -20			; ffffffecH
  00075	88 55 f1	 mov	 BYTE PTR __k$[ebp+5], dl
  00078	8a 50 06	 mov	 dl, BYTE PTR [eax+6]
  0007b	84 d2		 test	 dl, dl
  0007d	0f 84 83 00 00
	00		 je	 $LN90@LoadFloat_@3
  00083	80 f2 eb	 xor	 dl, -21			; ffffffebH
  00086	88 55 f2	 mov	 BYTE PTR __k$[ebp+6], dl
  00089	8a 50 07	 mov	 dl, BYTE PTR [eax+7]
  0008c	84 d2		 test	 dl, dl
  0008e	74 70		 je	 SHORT $LN89@LoadFloat_@3
  00090	80 f2 ea	 xor	 dl, -22			; ffffffeaH
  00093	88 55 f3	 mov	 BYTE PTR __k$[ebp+7], dl
  00096	8a 50 08	 mov	 dl, BYTE PTR [eax+8]
  00099	84 d2		 test	 dl, dl
  0009b	74 5d		 je	 SHORT $LN88@LoadFloat_@3
  0009d	80 f2 ed	 xor	 dl, -19			; ffffffedH
  000a0	80 78 09 00	 cmp	 BYTE PTR [eax+9], 0
  000a4	88 55 f4	 mov	 BYTE PTR __k$[ebp+8], dl
  000a7	0f 84 81 00 00
	00		 je	 $LN1@LoadFloat_@3
  000ad	8a 50 0a	 mov	 dl, BYTE PTR [eax+10]
  000b0	84 d2		 test	 dl, dl
  000b2	74 40		 je	 SHORT $LN86@LoadFloat_@3
  000b4	80 f2 eb	 xor	 dl, -21			; ffffffebH
  000b7	88 55 f6	 mov	 BYTE PTR __k$[ebp+10], dl
  000ba	8a 50 0b	 mov	 dl, BYTE PTR [eax+11]
  000bd	84 d2		 test	 dl, dl
  000bf	74 2d		 je	 SHORT $LN85@LoadFloat_@3
  000c1	80 f2 ea	 xor	 dl, -22			; ffffffeaH
  000c4	88 55 f7	 mov	 BYTE PTR __k$[ebp+11], dl
  000c7	8a 50 0c	 mov	 dl, BYTE PTR [eax+12]
  000ca	84 d2		 test	 dl, dl
  000cc	74 1a		 je	 SHORT $LN84@LoadFloat_@3
  000ce	8a 40 0d	 mov	 al, BYTE PTR [eax+13]
  000d1	80 f2 ed	 xor	 dl, -19			; ffffffedH
  000d4	88 55 f8	 mov	 BYTE PTR __k$[ebp+12], dl
  000d7	84 c0		 test	 al, al
  000d9	74 07		 je	 SHORT $LN83@LoadFloat_@3
  000db	34 ec		 xor	 al, -20			; ffffffecH
  000dd	88 45 f9	 mov	 BYTE PTR __k$[ebp+13], al
  000e0	eb 4c		 jmp	 SHORT $LN1@LoadFloat_@3
$LN83@LoadFloat_@3:
  000e2	c6 45 f9 ec	 mov	 BYTE PTR __k$[ebp+13], -20 ; ffffffecH
  000e6	eb 46		 jmp	 SHORT $LN1@LoadFloat_@3
$LN84@LoadFloat_@3:
  000e8	c6 45 f8 ed	 mov	 BYTE PTR __k$[ebp+12], -19 ; ffffffedH
  000ec	eb 40		 jmp	 SHORT $LN1@LoadFloat_@3
$LN85@LoadFloat_@3:
  000ee	c6 45 f7 ea	 mov	 BYTE PTR __k$[ebp+11], -22 ; ffffffeaH
  000f2	eb 3a		 jmp	 SHORT $LN1@LoadFloat_@3
$LN86@LoadFloat_@3:
  000f4	c6 45 f6 eb	 mov	 BYTE PTR __k$[ebp+10], -21 ; ffffffebH
  000f8	eb 34		 jmp	 SHORT $LN1@LoadFloat_@3
$LN88@LoadFloat_@3:
  000fa	c6 45 f4 ed	 mov	 BYTE PTR __k$[ebp+8], -19 ; ffffffedH
  000fe	eb 2e		 jmp	 SHORT $LN1@LoadFloat_@3
$LN89@LoadFloat_@3:
  00100	c6 45 f3 ea	 mov	 BYTE PTR __k$[ebp+7], -22 ; ffffffeaH
  00104	eb 28		 jmp	 SHORT $LN1@LoadFloat_@3
$LN90@LoadFloat_@3:
  00106	c6 45 f2 eb	 mov	 BYTE PTR __k$[ebp+6], -21 ; ffffffebH
  0010a	eb 22		 jmp	 SHORT $LN1@LoadFloat_@3
$LN91@LoadFloat_@3:
  0010c	c6 45 f1 ec	 mov	 BYTE PTR __k$[ebp+5], -20 ; ffffffecH
  00110	eb 1c		 jmp	 SHORT $LN1@LoadFloat_@3
$LN92@LoadFloat_@3:
  00112	c6 45 f0 ed	 mov	 BYTE PTR __k$[ebp+4], -19 ; ffffffedH
  00116	eb 16		 jmp	 SHORT $LN1@LoadFloat_@3
$LN93@LoadFloat_@3:
  00118	c6 45 ef ea	 mov	 BYTE PTR __k$[ebp+3], -22 ; ffffffeaH
  0011c	eb 10		 jmp	 SHORT $LN1@LoadFloat_@3
$LN94@LoadFloat_@3:
  0011e	c6 45 ee eb	 mov	 BYTE PTR __k$[ebp+2], -21 ; ffffffebH
  00122	eb 0a		 jmp	 SHORT $LN1@LoadFloat_@3
$LN95@LoadFloat_@3:
  00124	c6 45 ed ec	 mov	 BYTE PTR __k$[ebp+1], -20 ; ffffffecH
  00128	eb 04		 jmp	 SHORT $LN1@LoadFloat_@3
$LN96@LoadFloat_@3:
  0012a	c6 45 ec ed	 mov	 BYTE PTR __k$[ebp], -19	; ffffffedH
$LN1@LoadFloat_@3:
  0012e	6a 02		 push	 2
  00130	8d 45 ec	 lea	 eax, DWORD PTR __k$[ebp]
  00133	c6 45 f5 00	 mov	 BYTE PTR __k$[ebp+9], 0
  00137	5a		 pop	 edx
$LL104@LoadFloat_@3:
  00138	81 30 ed ec eb
	ea		 xor	 DWORD PTR [eax], -353637139 ; eaebecedH
  0013e	83 c0 04	 add	 eax, 4
  00141	4a		 dec	 edx
  00142	75 f4		 jne	 SHORT $LL104@LoadFloat_@3

; 137  : 		return LoadFloat(_k, f);

  00144	f3 0f 10 45 0c	 movss	 xmm0, DWORD PTR _f$[ebp]
  00149	80 75 f4 ed	 xor	 BYTE PTR __k$[ebp+8], -19 ; ffffffedH
  0014d	51		 push	 ecx
  0014e	8d 45 ec	 lea	 eax, DWORD PTR __k$[ebp]
  00151	f3 0f 11 04 24	 movss	 DWORD PTR [esp], xmm0
  00156	50		 push	 eax
  00157	ff 15 00 00 00
	00		 call	 DWORD PTR __imp_?LoadFloat@ioINILoader@@QAEMPBDM@Z

; 138  : 	}

  0015d	8b 4d fc	 mov	 ecx, DWORD PTR __$ArrayPad$[ebp]
  00160	33 cd		 xor	 ecx, ebp
  00162	e8 00 00 00 00	 call	 @__security_check_cookie@4
  00167	c9		 leave
  00168	c2 08 00	 ret	 8
??$LoadFloat_e@$09@ioINILoader@@QAEMAAY09$$CBDM@Z ENDP	; ioINILoader::LoadFloat_e<10>
_TEXT	ENDS
PUBLIC	__$ArrayPad$
PUBLIC	??$LoadInt_e@$0BA@@ioINILoader@@QAEHAAY0BA@$$CBDH@Z ; ioINILoader::LoadInt_e<16>
; Function compile flags: /Ogsp
;	COMDAT ??$LoadInt_e@$0BA@@ioINILoader@@QAEHAAY0BA@$$CBDH@Z
_TEXT	SEGMENT
__k$ = -24						; size = 16
__$ArrayPad$ = -4					; size = 4
_k$ = 8							; size = 4
_i$ = 12						; size = 4
??$LoadInt_e@$0BA@@ioINILoader@@QAEHAAY0BA@$$CBDH@Z PROC ; ioINILoader::LoadInt_e<16>, COMDAT
; _this$ = ecx

; 118  : 	{

  00000	55		 push	 ebp
  00001	8b ec		 mov	 ebp, esp
  00003	83 ec 18	 sub	 esp, 24			; 00000018H
  00006	a1 00 00 00 00	 mov	 eax, DWORD PTR ___security_cookie
  0000b	33 c5		 xor	 eax, ebp
  0000d	89 45 fc	 mov	 DWORD PTR __$ArrayPad$[ebp], eax
  00010	8b 45 08	 mov	 eax, DWORD PTR _k$[ebp]

; 119  : 		_ENCSTR(k, _k);

  00013	8a 10		 mov	 dl, BYTE PTR [eax]
  00015	56		 push	 esi
  00016	8b f1		 mov	 esi, ecx
  00018	84 d2		 test	 dl, dl
  0001a	0f 84 8c 01 00
	00		 je	 $LN96@LoadInt_e@2
  00020	80 f2 ed	 xor	 dl, -19			; ffffffedH
  00023	88 55 e8	 mov	 BYTE PTR __k$[ebp], dl
  00026	8a 50 01	 mov	 dl, BYTE PTR [eax+1]
  00029	84 d2		 test	 dl, dl
  0002b	0f 84 75 01 00
	00		 je	 $LN95@LoadInt_e@2
  00031	80 f2 ec	 xor	 dl, -20			; ffffffecH
  00034	88 55 e9	 mov	 BYTE PTR __k$[ebp+1], dl
  00037	8a 50 02	 mov	 dl, BYTE PTR [eax+2]
  0003a	84 d2		 test	 dl, dl
  0003c	0f 84 5e 01 00
	00		 je	 $LN94@LoadInt_e@2
  00042	b1 eb		 mov	 cl, -21			; ffffffebH
  00044	32 d1		 xor	 dl, cl
  00046	88 55 ea	 mov	 BYTE PTR __k$[ebp+2], dl
  00049	8a 50 03	 mov	 dl, BYTE PTR [eax+3]
  0004c	84 d2		 test	 dl, dl
  0004e	0f 84 46 01 00
	00		 je	 $LN93@LoadInt_e@2
  00054	80 f2 ea	 xor	 dl, -22			; ffffffeaH
  00057	88 55 eb	 mov	 BYTE PTR __k$[ebp+3], dl
  0005a	8a 50 04	 mov	 dl, BYTE PTR [eax+4]
  0005d	84 d2		 test	 dl, dl
  0005f	0f 84 2f 01 00
	00		 je	 $LN92@LoadInt_e@2
  00065	80 f2 ed	 xor	 dl, -19			; ffffffedH
  00068	88 55 ec	 mov	 BYTE PTR __k$[ebp+4], dl
  0006b	8a 50 05	 mov	 dl, BYTE PTR [eax+5]
  0006e	84 d2		 test	 dl, dl
  00070	0f 84 18 01 00
	00		 je	 $LN91@LoadInt_e@2
  00076	80 f2 ec	 xor	 dl, -20			; ffffffecH
  00079	88 55 ed	 mov	 BYTE PTR __k$[ebp+5], dl
  0007c	8a 50 06	 mov	 dl, BYTE PTR [eax+6]
  0007f	84 d2		 test	 dl, dl
  00081	0f 84 02 01 00
	00		 je	 $LN90@LoadInt_e@2
  00087	32 d1		 xor	 dl, cl
  00089	88 55 ee	 mov	 BYTE PTR __k$[ebp+6], dl
  0008c	8a 50 07	 mov	 dl, BYTE PTR [eax+7]
  0008f	84 d2		 test	 dl, dl
  00091	0f 84 ec 00 00
	00		 je	 $LN89@LoadInt_e@2
  00097	80 f2 ea	 xor	 dl, -22			; ffffffeaH
  0009a	88 55 ef	 mov	 BYTE PTR __k$[ebp+7], dl
  0009d	8a 50 08	 mov	 dl, BYTE PTR [eax+8]
  000a0	84 d2		 test	 dl, dl
  000a2	0f 84 d5 00 00
	00		 je	 $LN88@LoadInt_e@2
  000a8	80 f2 ed	 xor	 dl, -19			; ffffffedH
  000ab	88 55 f0	 mov	 BYTE PTR __k$[ebp+8], dl
  000ae	8a 50 09	 mov	 dl, BYTE PTR [eax+9]
  000b1	84 d2		 test	 dl, dl
  000b3	0f 84 be 00 00
	00		 je	 $LN87@LoadInt_e@2
  000b9	80 f2 ec	 xor	 dl, -20			; ffffffecH
  000bc	88 55 f1	 mov	 BYTE PTR __k$[ebp+9], dl
  000bf	8a 50 0a	 mov	 dl, BYTE PTR [eax+10]
  000c2	84 d2		 test	 dl, dl
  000c4	0f 84 a8 00 00
	00		 je	 $LN86@LoadInt_e@2
  000ca	32 d1		 xor	 dl, cl
  000cc	88 55 f2	 mov	 BYTE PTR __k$[ebp+10], dl
  000cf	8a 50 0b	 mov	 dl, BYTE PTR [eax+11]
  000d2	84 d2		 test	 dl, dl
  000d4	0f 84 92 00 00
	00		 je	 $LN85@LoadInt_e@2
  000da	80 f2 ea	 xor	 dl, -22			; ffffffeaH
  000dd	88 55 f3	 mov	 BYTE PTR __k$[ebp+11], dl
  000e0	8a 50 0c	 mov	 dl, BYTE PTR [eax+12]
  000e3	84 d2		 test	 dl, dl
  000e5	74 7f		 je	 SHORT $LN84@LoadInt_e@2
  000e7	80 f2 ed	 xor	 dl, -19			; ffffffedH
  000ea	88 55 f4	 mov	 BYTE PTR __k$[ebp+12], dl
  000ed	8a 50 0d	 mov	 dl, BYTE PTR [eax+13]
  000f0	84 d2		 test	 dl, dl
  000f2	74 6c		 je	 SHORT $LN83@LoadInt_e@2
  000f4	80 f2 ec	 xor	 dl, -20			; ffffffecH
  000f7	88 55 f5	 mov	 BYTE PTR __k$[ebp+13], dl
  000fa	8a 50 0e	 mov	 dl, BYTE PTR [eax+14]
  000fd	84 d2		 test	 dl, dl
  000ff	74 5a		 je	 SHORT $LN82@LoadInt_e@2
  00101	32 d1		 xor	 dl, cl
  00103	80 78 0f 00	 cmp	 BYTE PTR [eax+15], 0
  00107	88 55 f6	 mov	 BYTE PTR __k$[ebp+14], dl
  0010a	0f 84 a0 00 00
	00		 je	 $LN1@LoadInt_e@2
  00110	8a 50 10	 mov	 dl, BYTE PTR [eax+16]
  00113	84 d2		 test	 dl, dl
  00115	74 3e		 je	 SHORT $LN80@LoadInt_e@2
  00117	80 f2 ed	 xor	 dl, -19			; ffffffedH
  0011a	88 55 f8	 mov	 BYTE PTR __k$[ebp+16], dl
  0011d	8a 50 11	 mov	 dl, BYTE PTR [eax+17]
  00120	84 d2		 test	 dl, dl
  00122	74 2b		 je	 SHORT $LN79@LoadInt_e@2
  00124	80 f2 ec	 xor	 dl, -20			; ffffffecH
  00127	88 55 f9	 mov	 BYTE PTR __k$[ebp+17], dl
  0012a	8a 50 12	 mov	 dl, BYTE PTR [eax+18]
  0012d	84 d2		 test	 dl, dl
  0012f	74 19		 je	 SHORT $LN78@LoadInt_e@2
  00131	8a 40 13	 mov	 al, BYTE PTR [eax+19]
  00134	32 d1		 xor	 dl, cl
  00136	88 55 fa	 mov	 BYTE PTR __k$[ebp+18], dl
  00139	84 c0		 test	 al, al
  0013b	74 07		 je	 SHORT $LN77@LoadInt_e@2
  0013d	34 ea		 xor	 al, -22			; ffffffeaH
  0013f	88 45 fb	 mov	 BYTE PTR __k$[ebp+19], al
  00142	eb 6c		 jmp	 SHORT $LN1@LoadInt_e@2
$LN77@LoadInt_e@2:
  00144	c6 45 fb ea	 mov	 BYTE PTR __k$[ebp+19], -22 ; ffffffeaH
  00148	eb 66		 jmp	 SHORT $LN1@LoadInt_e@2
$LN78@LoadInt_e@2:
  0014a	88 4d fa	 mov	 BYTE PTR __k$[ebp+18], cl
  0014d	eb 61		 jmp	 SHORT $LN1@LoadInt_e@2
$LN79@LoadInt_e@2:
  0014f	c6 45 f9 ec	 mov	 BYTE PTR __k$[ebp+17], -20 ; ffffffecH
  00153	eb 5b		 jmp	 SHORT $LN1@LoadInt_e@2
$LN80@LoadInt_e@2:
  00155	c6 45 f8 ed	 mov	 BYTE PTR __k$[ebp+16], -19 ; ffffffedH
  00159	eb 55		 jmp	 SHORT $LN1@LoadInt_e@2
$LN82@LoadInt_e@2:
  0015b	88 4d f6	 mov	 BYTE PTR __k$[ebp+14], cl
  0015e	eb 50		 jmp	 SHORT $LN1@LoadInt_e@2
$LN83@LoadInt_e@2:
  00160	c6 45 f5 ec	 mov	 BYTE PTR __k$[ebp+13], -20 ; ffffffecH
  00164	eb 4a		 jmp	 SHORT $LN1@LoadInt_e@2
$LN84@LoadInt_e@2:
  00166	c6 45 f4 ed	 mov	 BYTE PTR __k$[ebp+12], -19 ; ffffffedH
  0016a	eb 44		 jmp	 SHORT $LN1@LoadInt_e@2
$LN85@LoadInt_e@2:
  0016c	c6 45 f3 ea	 mov	 BYTE PTR __k$[ebp+11], -22 ; ffffffeaH
  00170	eb 3e		 jmp	 SHORT $LN1@LoadInt_e@2
$LN86@LoadInt_e@2:
  00172	88 4d f2	 mov	 BYTE PTR __k$[ebp+10], cl
  00175	eb 39		 jmp	 SHORT $LN1@LoadInt_e@2
$LN87@LoadInt_e@2:
  00177	c6 45 f1 ec	 mov	 BYTE PTR __k$[ebp+9], -20 ; ffffffecH
  0017b	eb 33		 jmp	 SHORT $LN1@LoadInt_e@2
$LN88@LoadInt_e@2:
  0017d	c6 45 f0 ed	 mov	 BYTE PTR __k$[ebp+8], -19 ; ffffffedH
  00181	eb 2d		 jmp	 SHORT $LN1@LoadInt_e@2
$LN89@LoadInt_e@2:
  00183	c6 45 ef ea	 mov	 BYTE PTR __k$[ebp+7], -22 ; ffffffeaH
  00187	eb 27		 jmp	 SHORT $LN1@LoadInt_e@2
$LN90@LoadInt_e@2:
  00189	88 4d ee	 mov	 BYTE PTR __k$[ebp+6], cl
  0018c	eb 22		 jmp	 SHORT $LN1@LoadInt_e@2
$LN91@LoadInt_e@2:
  0018e	c6 45 ed ec	 mov	 BYTE PTR __k$[ebp+5], -20 ; ffffffecH
  00192	eb 1c		 jmp	 SHORT $LN1@LoadInt_e@2
$LN92@LoadInt_e@2:
  00194	c6 45 ec ed	 mov	 BYTE PTR __k$[ebp+4], -19 ; ffffffedH
  00198	eb 16		 jmp	 SHORT $LN1@LoadInt_e@2
$LN93@LoadInt_e@2:
  0019a	c6 45 eb ea	 mov	 BYTE PTR __k$[ebp+3], -22 ; ffffffeaH
  0019e	eb 10		 jmp	 SHORT $LN1@LoadInt_e@2
$LN94@LoadInt_e@2:
  001a0	c6 45 ea eb	 mov	 BYTE PTR __k$[ebp+2], -21 ; ffffffebH
  001a4	eb 0a		 jmp	 SHORT $LN1@LoadInt_e@2
$LN95@LoadInt_e@2:
  001a6	c6 45 e9 ec	 mov	 BYTE PTR __k$[ebp+1], -20 ; ffffffecH
  001aa	eb 04		 jmp	 SHORT $LN1@LoadInt_e@2
$LN96@LoadInt_e@2:
  001ac	c6 45 e8 ed	 mov	 BYTE PTR __k$[ebp], -19	; ffffffedH
$LN1@LoadInt_e@2:
  001b0	6a 03		 push	 3
  001b2	8d 45 e8	 lea	 eax, DWORD PTR __k$[ebp]
  001b5	c6 45 f7 00	 mov	 BYTE PTR __k$[ebp+15], 0
  001b9	5a		 pop	 edx
$LL104@LoadInt_e@2:
  001ba	81 30 ed ec eb
	ea		 xor	 DWORD PTR [eax], -353637139 ; eaebecedH
  001c0	83 c0 04	 add	 eax, 4
  001c3	4a		 dec	 edx
  001c4	75 f4		 jne	 SHORT $LL104@LoadInt_e@2
  001c6	6a 0c		 push	 12			; 0000000cH
  001c8	58		 pop	 eax
$LL101@LoadInt_e@2:
  001c9	8b c8		 mov	 ecx, eax
  001cb	81 e1 03 00 00
	80		 and	 ecx, -2147483645	; 80000003H
  001d1	79 05		 jns	 SHORT $LN111@LoadInt_e@2
  001d3	49		 dec	 ecx
  001d4	83 c9 fc	 or	 ecx, -4			; fffffffcH
  001d7	41		 inc	 ecx
$LN111@LoadInt_e@2:
  001d8	b2 ed		 mov	 dl, -19			; ffffffedH
  001da	2a d1		 sub	 dl, cl
  001dc	30 54 05 e8	 xor	 BYTE PTR __k$[ebp+eax], dl
  001e0	40		 inc	 eax
  001e1	83 f8 0f	 cmp	 eax, 15			; 0000000fH
  001e4	7c e3		 jl	 SHORT $LL101@LoadInt_e@2

; 120  : 		return LoadInt(_k, i);

  001e6	ff 75 0c	 push	 DWORD PTR _i$[ebp]
  001e9	8d 45 e8	 lea	 eax, DWORD PTR __k$[ebp]
  001ec	50		 push	 eax
  001ed	8b ce		 mov	 ecx, esi
  001ef	ff 15 00 00 00
	00		 call	 DWORD PTR __imp_?LoadInt@ioINILoader@@QAEHPBDH@Z

; 121  : 	}

  001f5	8b 4d fc	 mov	 ecx, DWORD PTR __$ArrayPad$[ebp]
  001f8	33 cd		 xor	 ecx, ebp
  001fa	5e		 pop	 esi
  001fb	e8 00 00 00 00	 call	 @__security_check_cookie@4
  00200	c9		 leave
  00201	c2 08 00	 ret	 8
??$LoadInt_e@$0BA@@ioINILoader@@QAEHAAY0BA@$$CBDH@Z ENDP ; ioINILoader::LoadInt_e<16>
_TEXT	ENDS
PUBLIC	__$ArrayPad$
PUBLIC	??$LoadInt_e@$0BC@@ioINILoader@@QAEHAAY0BC@$$CBDH@Z ; ioINILoader::LoadInt_e<18>
; Function compile flags: /Ogsp
;	COMDAT ??$LoadInt_e@$0BC@@ioINILoader@@QAEHAAY0BC@$$CBDH@Z
_TEXT	SEGMENT
__k$ = -28						; size = 18
__$ArrayPad$ = -4					; size = 4
_k$ = 8							; size = 4
_i$ = 12						; size = 4
??$LoadInt_e@$0BC@@ioINILoader@@QAEHAAY0BC@$$CBDH@Z PROC ; ioINILoader::LoadInt_e<18>, COMDAT
; _this$ = ecx

; 118  : 	{

  00000	55		 push	 ebp
  00001	8b ec		 mov	 ebp, esp
  00003	83 ec 1c	 sub	 esp, 28			; 0000001cH
  00006	a1 00 00 00 00	 mov	 eax, DWORD PTR ___security_cookie
  0000b	33 c5		 xor	 eax, ebp
  0000d	89 45 fc	 mov	 DWORD PTR __$ArrayPad$[ebp], eax
  00010	8b 45 08	 mov	 eax, DWORD PTR _k$[ebp]

; 119  : 		_ENCSTR(k, _k);

  00013	8a 10		 mov	 dl, BYTE PTR [eax]
  00015	56		 push	 esi
  00016	8b f1		 mov	 esi, ecx
  00018	84 d2		 test	 dl, dl
  0001a	0f 84 be 01 00
	00		 je	 $LN96@LoadInt_e@3
  00020	80 f2 ed	 xor	 dl, -19			; ffffffedH
  00023	88 55 e4	 mov	 BYTE PTR __k$[ebp], dl
  00026	8a 50 01	 mov	 dl, BYTE PTR [eax+1]
  00029	84 d2		 test	 dl, dl
  0002b	0f 84 a7 01 00
	00		 je	 $LN95@LoadInt_e@3
  00031	80 f2 ec	 xor	 dl, -20			; ffffffecH
  00034	88 55 e5	 mov	 BYTE PTR __k$[ebp+1], dl
  00037	8a 50 02	 mov	 dl, BYTE PTR [eax+2]
  0003a	84 d2		 test	 dl, dl
  0003c	0f 84 90 01 00
	00		 je	 $LN94@LoadInt_e@3
  00042	b1 eb		 mov	 cl, -21			; ffffffebH
  00044	32 d1		 xor	 dl, cl
  00046	88 55 e6	 mov	 BYTE PTR __k$[ebp+2], dl
  00049	8a 50 03	 mov	 dl, BYTE PTR [eax+3]
  0004c	84 d2		 test	 dl, dl
  0004e	0f 84 78 01 00
	00		 je	 $LN93@LoadInt_e@3
  00054	80 f2 ea	 xor	 dl, -22			; ffffffeaH
  00057	88 55 e7	 mov	 BYTE PTR __k$[ebp+3], dl
  0005a	8a 50 04	 mov	 dl, BYTE PTR [eax+4]
  0005d	84 d2		 test	 dl, dl
  0005f	0f 84 61 01 00
	00		 je	 $LN92@LoadInt_e@3
  00065	80 f2 ed	 xor	 dl, -19			; ffffffedH
  00068	88 55 e8	 mov	 BYTE PTR __k$[ebp+4], dl
  0006b	8a 50 05	 mov	 dl, BYTE PTR [eax+5]
  0006e	84 d2		 test	 dl, dl
  00070	0f 84 4a 01 00
	00		 je	 $LN91@LoadInt_e@3
  00076	80 f2 ec	 xor	 dl, -20			; ffffffecH
  00079	88 55 e9	 mov	 BYTE PTR __k$[ebp+5], dl
  0007c	8a 50 06	 mov	 dl, BYTE PTR [eax+6]
  0007f	84 d2		 test	 dl, dl
  00081	0f 84 34 01 00
	00		 je	 $LN90@LoadInt_e@3
  00087	32 d1		 xor	 dl, cl
  00089	88 55 ea	 mov	 BYTE PTR __k$[ebp+6], dl
  0008c	8a 50 07	 mov	 dl, BYTE PTR [eax+7]
  0008f	84 d2		 test	 dl, dl
  00091	0f 84 1e 01 00
	00		 je	 $LN89@LoadInt_e@3
  00097	80 f2 ea	 xor	 dl, -22			; ffffffeaH
  0009a	88 55 eb	 mov	 BYTE PTR __k$[ebp+7], dl
  0009d	8a 50 08	 mov	 dl, BYTE PTR [eax+8]
  000a0	84 d2		 test	 dl, dl
  000a2	0f 84 07 01 00
	00		 je	 $LN88@LoadInt_e@3
  000a8	80 f2 ed	 xor	 dl, -19			; ffffffedH
  000ab	88 55 ec	 mov	 BYTE PTR __k$[ebp+8], dl
  000ae	8a 50 09	 mov	 dl, BYTE PTR [eax+9]
  000b1	84 d2		 test	 dl, dl
  000b3	0f 84 f0 00 00
	00		 je	 $LN87@LoadInt_e@3
  000b9	80 f2 ec	 xor	 dl, -20			; ffffffecH
  000bc	88 55 ed	 mov	 BYTE PTR __k$[ebp+9], dl
  000bf	8a 50 0a	 mov	 dl, BYTE PTR [eax+10]
  000c2	84 d2		 test	 dl, dl
  000c4	0f 84 da 00 00
	00		 je	 $LN86@LoadInt_e@3
  000ca	32 d1		 xor	 dl, cl
  000cc	88 55 ee	 mov	 BYTE PTR __k$[ebp+10], dl
  000cf	8a 50 0b	 mov	 dl, BYTE PTR [eax+11]
  000d2	84 d2		 test	 dl, dl
  000d4	0f 84 c4 00 00
	00		 je	 $LN85@LoadInt_e@3
  000da	80 f2 ea	 xor	 dl, -22			; ffffffeaH
  000dd	88 55 ef	 mov	 BYTE PTR __k$[ebp+11], dl
  000e0	8a 50 0c	 mov	 dl, BYTE PTR [eax+12]
  000e3	84 d2		 test	 dl, dl
  000e5	0f 84 ad 00 00
	00		 je	 $LN84@LoadInt_e@3
  000eb	80 f2 ed	 xor	 dl, -19			; ffffffedH
  000ee	88 55 f0	 mov	 BYTE PTR __k$[ebp+12], dl
  000f1	8a 50 0d	 mov	 dl, BYTE PTR [eax+13]
  000f4	84 d2		 test	 dl, dl
  000f6	0f 84 96 00 00
	00		 je	 $LN83@LoadInt_e@3
  000fc	80 f2 ec	 xor	 dl, -20			; ffffffecH
  000ff	88 55 f1	 mov	 BYTE PTR __k$[ebp+13], dl
  00102	8a 50 0e	 mov	 dl, BYTE PTR [eax+14]
  00105	84 d2		 test	 dl, dl
  00107	0f 84 80 00 00
	00		 je	 $LN82@LoadInt_e@3
  0010d	32 d1		 xor	 dl, cl
  0010f	88 55 f2	 mov	 BYTE PTR __k$[ebp+14], dl
  00112	8a 50 0f	 mov	 dl, BYTE PTR [eax+15]
  00115	84 d2		 test	 dl, dl
  00117	74 6e		 je	 SHORT $LN81@LoadInt_e@3
  00119	80 f2 ea	 xor	 dl, -22			; ffffffeaH
  0011c	88 55 f3	 mov	 BYTE PTR __k$[ebp+15], dl
  0011f	8a 50 10	 mov	 dl, BYTE PTR [eax+16]
  00122	84 d2		 test	 dl, dl
  00124	74 5b		 je	 SHORT $LN80@LoadInt_e@3
  00126	80 f2 ed	 xor	 dl, -19			; ffffffedH
  00129	80 78 11 00	 cmp	 BYTE PTR [eax+17], 0
  0012d	88 55 f4	 mov	 BYTE PTR __k$[ebp+16], dl
  00130	0f 84 ac 00 00
	00		 je	 $LN1@LoadInt_e@3
  00136	8a 50 12	 mov	 dl, BYTE PTR [eax+18]
  00139	84 d2		 test	 dl, dl
  0013b	74 3f		 je	 SHORT $LN78@LoadInt_e@3
  0013d	32 d1		 xor	 dl, cl
  0013f	88 55 f6	 mov	 BYTE PTR __k$[ebp+18], dl
  00142	8a 50 13	 mov	 dl, BYTE PTR [eax+19]
  00145	84 d2		 test	 dl, dl
  00147	74 2d		 je	 SHORT $LN77@LoadInt_e@3
  00149	80 f2 ea	 xor	 dl, -22			; ffffffeaH
  0014c	88 55 f7	 mov	 BYTE PTR __k$[ebp+19], dl
  0014f	8a 50 14	 mov	 dl, BYTE PTR [eax+20]
  00152	84 d2		 test	 dl, dl
  00154	74 1a		 je	 SHORT $LN76@LoadInt_e@3
  00156	8a 40 15	 mov	 al, BYTE PTR [eax+21]
  00159	80 f2 ed	 xor	 dl, -19			; ffffffedH
  0015c	88 55 f8	 mov	 BYTE PTR __k$[ebp+20], dl
  0015f	84 c0		 test	 al, al
  00161	74 07		 je	 SHORT $LN75@LoadInt_e@3
  00163	34 ec		 xor	 al, -20			; ffffffecH
  00165	88 45 f9	 mov	 BYTE PTR __k$[ebp+21], al
  00168	eb 78		 jmp	 SHORT $LN1@LoadInt_e@3
$LN75@LoadInt_e@3:
  0016a	c6 45 f9 ec	 mov	 BYTE PTR __k$[ebp+21], -20 ; ffffffecH
  0016e	eb 72		 jmp	 SHORT $LN1@LoadInt_e@3
$LN76@LoadInt_e@3:
  00170	c6 45 f8 ed	 mov	 BYTE PTR __k$[ebp+20], -19 ; ffffffedH
  00174	eb 6c		 jmp	 SHORT $LN1@LoadInt_e@3
$LN77@LoadInt_e@3:
  00176	c6 45 f7 ea	 mov	 BYTE PTR __k$[ebp+19], -22 ; ffffffeaH
  0017a	eb 66		 jmp	 SHORT $LN1@LoadInt_e@3
$LN78@LoadInt_e@3:
  0017c	88 4d f6	 mov	 BYTE PTR __k$[ebp+18], cl
  0017f	eb 61		 jmp	 SHORT $LN1@LoadInt_e@3
$LN80@LoadInt_e@3:
  00181	c6 45 f4 ed	 mov	 BYTE PTR __k$[ebp+16], -19 ; ffffffedH
  00185	eb 5b		 jmp	 SHORT $LN1@LoadInt_e@3
$LN81@LoadInt_e@3:
  00187	c6 45 f3 ea	 mov	 BYTE PTR __k$[ebp+15], -22 ; ffffffeaH
  0018b	eb 55		 jmp	 SHORT $LN1@LoadInt_e@3
$LN82@LoadInt_e@3:
  0018d	88 4d f2	 mov	 BYTE PTR __k$[ebp+14], cl
  00190	eb 50		 jmp	 SHORT $LN1@LoadInt_e@3
$LN83@LoadInt_e@3:
  00192	c6 45 f1 ec	 mov	 BYTE PTR __k$[ebp+13], -20 ; ffffffecH
  00196	eb 4a		 jmp	 SHORT $LN1@LoadInt_e@3
$LN84@LoadInt_e@3:
  00198	c6 45 f0 ed	 mov	 BYTE PTR __k$[ebp+12], -19 ; ffffffedH
  0019c	eb 44		 jmp	 SHORT $LN1@LoadInt_e@3
$LN85@LoadInt_e@3:
  0019e	c6 45 ef ea	 mov	 BYTE PTR __k$[ebp+11], -22 ; ffffffeaH
  001a2	eb 3e		 jmp	 SHORT $LN1@LoadInt_e@3
$LN86@LoadInt_e@3:
  001a4	88 4d ee	 mov	 BYTE PTR __k$[ebp+10], cl
  001a7	eb 39		 jmp	 SHORT $LN1@LoadInt_e@3
$LN87@LoadInt_e@3:
  001a9	c6 45 ed ec	 mov	 BYTE PTR __k$[ebp+9], -20 ; ffffffecH
  001ad	eb 33		 jmp	 SHORT $LN1@LoadInt_e@3
$LN88@LoadInt_e@3:
  001af	c6 45 ec ed	 mov	 BYTE PTR __k$[ebp+8], -19 ; ffffffedH
  001b3	eb 2d		 jmp	 SHORT $LN1@LoadInt_e@3
$LN89@LoadInt_e@3:
  001b5	c6 45 eb ea	 mov	 BYTE PTR __k$[ebp+7], -22 ; ffffffeaH
  001b9	eb 27		 jmp	 SHORT $LN1@LoadInt_e@3
$LN90@LoadInt_e@3:
  001bb	88 4d ea	 mov	 BYTE PTR __k$[ebp+6], cl
  001be	eb 22		 jmp	 SHORT $LN1@LoadInt_e@3
$LN91@LoadInt_e@3:
  001c0	c6 45 e9 ec	 mov	 BYTE PTR __k$[ebp+5], -20 ; ffffffecH
  001c4	eb 1c		 jmp	 SHORT $LN1@LoadInt_e@3
$LN92@LoadInt_e@3:
  001c6	c6 45 e8 ed	 mov	 BYTE PTR __k$[ebp+4], -19 ; ffffffedH
  001ca	eb 16		 jmp	 SHORT $LN1@LoadInt_e@3
$LN93@LoadInt_e@3:
  001cc	c6 45 e7 ea	 mov	 BYTE PTR __k$[ebp+3], -22 ; ffffffeaH
  001d0	eb 10		 jmp	 SHORT $LN1@LoadInt_e@3
$LN94@LoadInt_e@3:
  001d2	c6 45 e6 eb	 mov	 BYTE PTR __k$[ebp+2], -21 ; ffffffebH
  001d6	eb 0a		 jmp	 SHORT $LN1@LoadInt_e@3
$LN95@LoadInt_e@3:
  001d8	c6 45 e5 ec	 mov	 BYTE PTR __k$[ebp+1], -20 ; ffffffecH
  001dc	eb 04		 jmp	 SHORT $LN1@LoadInt_e@3
$LN96@LoadInt_e@3:
  001de	c6 45 e4 ed	 mov	 BYTE PTR __k$[ebp], -19	; ffffffedH
$LN1@LoadInt_e@3:
  001e2	6a 04		 push	 4
  001e4	8d 45 e4	 lea	 eax, DWORD PTR __k$[ebp]
  001e7	c6 45 f5 00	 mov	 BYTE PTR __k$[ebp+17], 0
  001eb	5a		 pop	 edx
$LL104@LoadInt_e@3:
  001ec	81 30 ed ec eb
	ea		 xor	 DWORD PTR [eax], -353637139 ; eaebecedH
  001f2	83 c0 04	 add	 eax, 4
  001f5	4a		 dec	 edx
  001f6	75 f4		 jne	 SHORT $LL104@LoadInt_e@3

; 120  : 		return LoadInt(_k, i);

  001f8	ff 75 0c	 push	 DWORD PTR _i$[ebp]
  001fb	80 75 f4 ed	 xor	 BYTE PTR __k$[ebp+16], -19 ; ffffffedH
  001ff	8d 45 e4	 lea	 eax, DWORD PTR __k$[ebp]
  00202	50		 push	 eax
  00203	8b ce		 mov	 ecx, esi
  00205	ff 15 00 00 00
	00		 call	 DWORD PTR __imp_?LoadInt@ioINILoader@@QAEHPBDH@Z

; 121  : 	}

  0020b	8b 4d fc	 mov	 ecx, DWORD PTR __$ArrayPad$[ebp]
  0020e	33 cd		 xor	 ecx, ebp
  00210	5e		 pop	 esi
  00211	e8 00 00 00 00	 call	 @__security_check_cookie@4
  00216	c9		 leave
  00217	c2 08 00	 ret	 8
??$LoadInt_e@$0BC@@ioINILoader@@QAEHAAY0BC@$$CBDH@Z ENDP ; ioINILoader::LoadInt_e<18>
_TEXT	ENDS
PUBLIC	__$ArrayPad$
PUBLIC	??$LoadInt_e@$0O@@ioINILoader@@QAEHAAY0O@$$CBDH@Z ; ioINILoader::LoadInt_e<14>
; Function compile flags: /Ogsp
;	COMDAT ??$LoadInt_e@$0O@@ioINILoader@@QAEHAAY0O@$$CBDH@Z
_TEXT	SEGMENT
__k$ = -24						; size = 14
__$ArrayPad$ = -4					; size = 4
_k$ = 8							; size = 4
_i$ = 12						; size = 4
??$LoadInt_e@$0O@@ioINILoader@@QAEHAAY0O@$$CBDH@Z PROC	; ioINILoader::LoadInt_e<14>, COMDAT
; _this$ = ecx

; 118  : 	{

  00000	55		 push	 ebp
  00001	8b ec		 mov	 ebp, esp
  00003	83 ec 18	 sub	 esp, 24			; 00000018H
  00006	a1 00 00 00 00	 mov	 eax, DWORD PTR ___security_cookie
  0000b	33 c5		 xor	 eax, ebp
  0000d	89 45 fc	 mov	 DWORD PTR __$ArrayPad$[ebp], eax
  00010	8b 45 08	 mov	 eax, DWORD PTR _k$[ebp]

; 119  : 		_ENCSTR(k, _k);

  00013	8a 10		 mov	 dl, BYTE PTR [eax]
  00015	56		 push	 esi
  00016	8b f1		 mov	 esi, ecx
  00018	84 d2		 test	 dl, dl
  0001a	0f 84 64 01 00
	00		 je	 $LN96@LoadInt_e@4
  00020	80 f2 ed	 xor	 dl, -19			; ffffffedH
  00023	88 55 e8	 mov	 BYTE PTR __k$[ebp], dl
  00026	8a 50 01	 mov	 dl, BYTE PTR [eax+1]
  00029	84 d2		 test	 dl, dl
  0002b	0f 84 4d 01 00
	00		 je	 $LN95@LoadInt_e@4
  00031	80 f2 ec	 xor	 dl, -20			; ffffffecH
  00034	88 55 e9	 mov	 BYTE PTR __k$[ebp+1], dl
  00037	8a 50 02	 mov	 dl, BYTE PTR [eax+2]
  0003a	84 d2		 test	 dl, dl
  0003c	0f 84 36 01 00
	00		 je	 $LN94@LoadInt_e@4
  00042	b1 eb		 mov	 cl, -21			; ffffffebH
  00044	32 d1		 xor	 dl, cl
  00046	88 55 ea	 mov	 BYTE PTR __k$[ebp+2], dl
  00049	8a 50 03	 mov	 dl, BYTE PTR [eax+3]
  0004c	84 d2		 test	 dl, dl
  0004e	0f 84 1e 01 00
	00		 je	 $LN93@LoadInt_e@4
  00054	80 f2 ea	 xor	 dl, -22			; ffffffeaH
  00057	88 55 eb	 mov	 BYTE PTR __k$[ebp+3], dl
  0005a	8a 50 04	 mov	 dl, BYTE PTR [eax+4]
  0005d	84 d2		 test	 dl, dl
  0005f	0f 84 07 01 00
	00		 je	 $LN92@LoadInt_e@4
  00065	80 f2 ed	 xor	 dl, -19			; ffffffedH
  00068	88 55 ec	 mov	 BYTE PTR __k$[ebp+4], dl
  0006b	8a 50 05	 mov	 dl, BYTE PTR [eax+5]
  0006e	84 d2		 test	 dl, dl
  00070	0f 84 f0 00 00
	00		 je	 $LN91@LoadInt_e@4
  00076	80 f2 ec	 xor	 dl, -20			; ffffffecH
  00079	88 55 ed	 mov	 BYTE PTR __k$[ebp+5], dl
  0007c	8a 50 06	 mov	 dl, BYTE PTR [eax+6]
  0007f	84 d2		 test	 dl, dl
  00081	0f 84 da 00 00
	00		 je	 $LN90@LoadInt_e@4
  00087	32 d1		 xor	 dl, cl
  00089	88 55 ee	 mov	 BYTE PTR __k$[ebp+6], dl
  0008c	8a 50 07	 mov	 dl, BYTE PTR [eax+7]
  0008f	84 d2		 test	 dl, dl
  00091	0f 84 c4 00 00
	00		 je	 $LN89@LoadInt_e@4
  00097	80 f2 ea	 xor	 dl, -22			; ffffffeaH
  0009a	88 55 ef	 mov	 BYTE PTR __k$[ebp+7], dl
  0009d	8a 50 08	 mov	 dl, BYTE PTR [eax+8]
  000a0	84 d2		 test	 dl, dl
  000a2	0f 84 ad 00 00
	00		 je	 $LN88@LoadInt_e@4
  000a8	80 f2 ed	 xor	 dl, -19			; ffffffedH
  000ab	88 55 f0	 mov	 BYTE PTR __k$[ebp+8], dl
  000ae	8a 50 09	 mov	 dl, BYTE PTR [eax+9]
  000b1	84 d2		 test	 dl, dl
  000b3	0f 84 96 00 00
	00		 je	 $LN87@LoadInt_e@4
  000b9	80 f2 ec	 xor	 dl, -20			; ffffffecH
  000bc	88 55 f1	 mov	 BYTE PTR __k$[ebp+9], dl
  000bf	8a 50 0a	 mov	 dl, BYTE PTR [eax+10]
  000c2	84 d2		 test	 dl, dl
  000c4	0f 84 80 00 00
	00		 je	 $LN86@LoadInt_e@4
  000ca	32 d1		 xor	 dl, cl
  000cc	88 55 f2	 mov	 BYTE PTR __k$[ebp+10], dl
  000cf	8a 50 0b	 mov	 dl, BYTE PTR [eax+11]
  000d2	84 d2		 test	 dl, dl
  000d4	74 6e		 je	 SHORT $LN85@LoadInt_e@4
  000d6	80 f2 ea	 xor	 dl, -22			; ffffffeaH
  000d9	88 55 f3	 mov	 BYTE PTR __k$[ebp+11], dl
  000dc	8a 50 0c	 mov	 dl, BYTE PTR [eax+12]
  000df	84 d2		 test	 dl, dl
  000e1	74 5b		 je	 SHORT $LN84@LoadInt_e@4
  000e3	80 f2 ed	 xor	 dl, -19			; ffffffedH
  000e6	80 78 0d 00	 cmp	 BYTE PTR [eax+13], 0
  000ea	88 55 f4	 mov	 BYTE PTR __k$[ebp+12], dl
  000ed	0f 84 95 00 00
	00		 je	 $LN1@LoadInt_e@4
  000f3	8a 50 0e	 mov	 dl, BYTE PTR [eax+14]
  000f6	84 d2		 test	 dl, dl
  000f8	74 3f		 je	 SHORT $LN82@LoadInt_e@4
  000fa	32 d1		 xor	 dl, cl
  000fc	88 55 f6	 mov	 BYTE PTR __k$[ebp+14], dl
  000ff	8a 50 0f	 mov	 dl, BYTE PTR [eax+15]
  00102	84 d2		 test	 dl, dl
  00104	74 2d		 je	 SHORT $LN81@LoadInt_e@4
  00106	80 f2 ea	 xor	 dl, -22			; ffffffeaH
  00109	88 55 f7	 mov	 BYTE PTR __k$[ebp+15], dl
  0010c	8a 50 10	 mov	 dl, BYTE PTR [eax+16]
  0010f	84 d2		 test	 dl, dl
  00111	74 1a		 je	 SHORT $LN80@LoadInt_e@4
  00113	8a 40 11	 mov	 al, BYTE PTR [eax+17]
  00116	80 f2 ed	 xor	 dl, -19			; ffffffedH
  00119	88 55 f8	 mov	 BYTE PTR __k$[ebp+16], dl
  0011c	84 c0		 test	 al, al
  0011e	74 07		 je	 SHORT $LN79@LoadInt_e@4
  00120	34 ec		 xor	 al, -20			; ffffffecH
  00122	88 45 f9	 mov	 BYTE PTR __k$[ebp+17], al
  00125	eb 61		 jmp	 SHORT $LN1@LoadInt_e@4
$LN79@LoadInt_e@4:
  00127	c6 45 f9 ec	 mov	 BYTE PTR __k$[ebp+17], -20 ; ffffffecH
  0012b	eb 5b		 jmp	 SHORT $LN1@LoadInt_e@4
$LN80@LoadInt_e@4:
  0012d	c6 45 f8 ed	 mov	 BYTE PTR __k$[ebp+16], -19 ; ffffffedH
  00131	eb 55		 jmp	 SHORT $LN1@LoadInt_e@4
$LN81@LoadInt_e@4:
  00133	c6 45 f7 ea	 mov	 BYTE PTR __k$[ebp+15], -22 ; ffffffeaH
  00137	eb 4f		 jmp	 SHORT $LN1@LoadInt_e@4
$LN82@LoadInt_e@4:
  00139	88 4d f6	 mov	 BYTE PTR __k$[ebp+14], cl
  0013c	eb 4a		 jmp	 SHORT $LN1@LoadInt_e@4
$LN84@LoadInt_e@4:
  0013e	c6 45 f4 ed	 mov	 BYTE PTR __k$[ebp+12], -19 ; ffffffedH
  00142	eb 44		 jmp	 SHORT $LN1@LoadInt_e@4
$LN85@LoadInt_e@4:
  00144	c6 45 f3 ea	 mov	 BYTE PTR __k$[ebp+11], -22 ; ffffffeaH
  00148	eb 3e		 jmp	 SHORT $LN1@LoadInt_e@4
$LN86@LoadInt_e@4:
  0014a	88 4d f2	 mov	 BYTE PTR __k$[ebp+10], cl
  0014d	eb 39		 jmp	 SHORT $LN1@LoadInt_e@4
$LN87@LoadInt_e@4:
  0014f	c6 45 f1 ec	 mov	 BYTE PTR __k$[ebp+9], -20 ; ffffffecH
  00153	eb 33		 jmp	 SHORT $LN1@LoadInt_e@4
$LN88@LoadInt_e@4:
  00155	c6 45 f0 ed	 mov	 BYTE PTR __k$[ebp+8], -19 ; ffffffedH
  00159	eb 2d		 jmp	 SHORT $LN1@LoadInt_e@4
$LN89@LoadInt_e@4:
  0015b	c6 45 ef ea	 mov	 BYTE PTR __k$[ebp+7], -22 ; ffffffeaH
  0015f	eb 27		 jmp	 SHORT $LN1@LoadInt_e@4
$LN90@LoadInt_e@4:
  00161	88 4d ee	 mov	 BYTE PTR __k$[ebp+6], cl
  00164	eb 22		 jmp	 SHORT $LN1@LoadInt_e@4
$LN91@LoadInt_e@4:
  00166	c6 45 ed ec	 mov	 BYTE PTR __k$[ebp+5], -20 ; ffffffecH
  0016a	eb 1c		 jmp	 SHORT $LN1@LoadInt_e@4
$LN92@LoadInt_e@4:
  0016c	c6 45 ec ed	 mov	 BYTE PTR __k$[ebp+4], -19 ; ffffffedH
  00170	eb 16		 jmp	 SHORT $LN1@LoadInt_e@4
$LN93@LoadInt_e@4:
  00172	c6 45 eb ea	 mov	 BYTE PTR __k$[ebp+3], -22 ; ffffffeaH
  00176	eb 10		 jmp	 SHORT $LN1@LoadInt_e@4
$LN94@LoadInt_e@4:
  00178	c6 45 ea eb	 mov	 BYTE PTR __k$[ebp+2], -21 ; ffffffebH
  0017c	eb 0a		 jmp	 SHORT $LN1@LoadInt_e@4
$LN95@LoadInt_e@4:
  0017e	c6 45 e9 ec	 mov	 BYTE PTR __k$[ebp+1], -20 ; ffffffecH
  00182	eb 04		 jmp	 SHORT $LN1@LoadInt_e@4
$LN96@LoadInt_e@4:
  00184	c6 45 e8 ed	 mov	 BYTE PTR __k$[ebp], -19	; ffffffedH
$LN1@LoadInt_e@4:
  00188	6a 03		 push	 3
  0018a	8d 45 e8	 lea	 eax, DWORD PTR __k$[ebp]
  0018d	c6 45 f5 00	 mov	 BYTE PTR __k$[ebp+13], 0
  00191	5a		 pop	 edx
$LL104@LoadInt_e@4:
  00192	81 30 ed ec eb
	ea		 xor	 DWORD PTR [eax], -353637139 ; eaebecedH
  00198	83 c0 04	 add	 eax, 4
  0019b	4a		 dec	 edx
  0019c	75 f4		 jne	 SHORT $LL104@LoadInt_e@4

; 120  : 		return LoadInt(_k, i);

  0019e	ff 75 0c	 push	 DWORD PTR _i$[ebp]
  001a1	80 75 f4 ed	 xor	 BYTE PTR __k$[ebp+12], -19 ; ffffffedH
  001a5	8d 45 e8	 lea	 eax, DWORD PTR __k$[ebp]
  001a8	50		 push	 eax
  001a9	8b ce		 mov	 ecx, esi
  001ab	ff 15 00 00 00
	00		 call	 DWORD PTR __imp_?LoadInt@ioINILoader@@QAEHPBDH@Z

; 121  : 	}

  001b1	8b 4d fc	 mov	 ecx, DWORD PTR __$ArrayPad$[ebp]
  001b4	33 cd		 xor	 ecx, ebp
  001b6	5e		 pop	 esi
  001b7	e8 00 00 00 00	 call	 @__security_check_cookie@4
  001bc	c9		 leave
  001bd	c2 08 00	 ret	 8
??$LoadInt_e@$0O@@ioINILoader@@QAEHAAY0O@$$CBDH@Z ENDP	; ioINILoader::LoadInt_e<14>
_TEXT	ENDS
PUBLIC	__$ArrayPad$
PUBLIC	??$LoadFloat_e@$0BC@@ioINILoader@@QAEMAAY0BC@$$CBDM@Z ; ioINILoader::LoadFloat_e<18>
; Function compile flags: /Ogsp
;	COMDAT ??$LoadFloat_e@$0BC@@ioINILoader@@QAEMAAY0BC@$$CBDM@Z
_TEXT	SEGMENT
__k$ = -28						; size = 18
__$ArrayPad$ = -4					; size = 4
_k$ = 8							; size = 4
_f$ = 12						; size = 4
??$LoadFloat_e@$0BC@@ioINILoader@@QAEMAAY0BC@$$CBDM@Z PROC ; ioINILoader::LoadFloat_e<18>, COMDAT
; _this$ = ecx

; 135  : 	{

  00000	55		 push	 ebp
  00001	8b ec		 mov	 ebp, esp
  00003	83 ec 1c	 sub	 esp, 28			; 0000001cH
  00006	a1 00 00 00 00	 mov	 eax, DWORD PTR ___security_cookie
  0000b	33 c5		 xor	 eax, ebp
  0000d	89 45 fc	 mov	 DWORD PTR __$ArrayPad$[ebp], eax
  00010	8b 45 08	 mov	 eax, DWORD PTR _k$[ebp]

; 136  : 		_ENCSTR(k, _k);

  00013	8a 10		 mov	 dl, BYTE PTR [eax]
  00015	56		 push	 esi
  00016	8b f1		 mov	 esi, ecx
  00018	84 d2		 test	 dl, dl
  0001a	0f 84 be 01 00
	00		 je	 $LN96@LoadFloat_@4
  00020	80 f2 ed	 xor	 dl, -19			; ffffffedH
  00023	88 55 e4	 mov	 BYTE PTR __k$[ebp], dl
  00026	8a 50 01	 mov	 dl, BYTE PTR [eax+1]
  00029	84 d2		 test	 dl, dl
  0002b	0f 84 a7 01 00
	00		 je	 $LN95@LoadFloat_@4
  00031	80 f2 ec	 xor	 dl, -20			; ffffffecH
  00034	88 55 e5	 mov	 BYTE PTR __k$[ebp+1], dl
  00037	8a 50 02	 mov	 dl, BYTE PTR [eax+2]
  0003a	84 d2		 test	 dl, dl
  0003c	0f 84 90 01 00
	00		 je	 $LN94@LoadFloat_@4
  00042	b1 eb		 mov	 cl, -21			; ffffffebH
  00044	32 d1		 xor	 dl, cl
  00046	88 55 e6	 mov	 BYTE PTR __k$[ebp+2], dl
  00049	8a 50 03	 mov	 dl, BYTE PTR [eax+3]
  0004c	84 d2		 test	 dl, dl
  0004e	0f 84 78 01 00
	00		 je	 $LN93@LoadFloat_@4
  00054	80 f2 ea	 xor	 dl, -22			; ffffffeaH
  00057	88 55 e7	 mov	 BYTE PTR __k$[ebp+3], dl
  0005a	8a 50 04	 mov	 dl, BYTE PTR [eax+4]
  0005d	84 d2		 test	 dl, dl
  0005f	0f 84 61 01 00
	00		 je	 $LN92@LoadFloat_@4
  00065	80 f2 ed	 xor	 dl, -19			; ffffffedH
  00068	88 55 e8	 mov	 BYTE PTR __k$[ebp+4], dl
  0006b	8a 50 05	 mov	 dl, BYTE PTR [eax+5]
  0006e	84 d2		 test	 dl, dl
  00070	0f 84 4a 01 00
	00		 je	 $LN91@LoadFloat_@4
  00076	80 f2 ec	 xor	 dl, -20			; ffffffecH
  00079	88 55 e9	 mov	 BYTE PTR __k$[ebp+5], dl
  0007c	8a 50 06	 mov	 dl, BYTE PTR [eax+6]
  0007f	84 d2		 test	 dl, dl
  00081	0f 84 34 01 00
	00		 je	 $LN90@LoadFloat_@4
  00087	32 d1		 xor	 dl, cl
  00089	88 55 ea	 mov	 BYTE PTR __k$[ebp+6], dl
  0008c	8a 50 07	 mov	 dl, BYTE PTR [eax+7]
  0008f	84 d2		 test	 dl, dl
  00091	0f 84 1e 01 00
	00		 je	 $LN89@LoadFloat_@4
  00097	80 f2 ea	 xor	 dl, -22			; ffffffeaH
  0009a	88 55 eb	 mov	 BYTE PTR __k$[ebp+7], dl
  0009d	8a 50 08	 mov	 dl, BYTE PTR [eax+8]
  000a0	84 d2		 test	 dl, dl
  000a2	0f 84 07 01 00
	00		 je	 $LN88@LoadFloat_@4
  000a8	80 f2 ed	 xor	 dl, -19			; ffffffedH
  000ab	88 55 ec	 mov	 BYTE PTR __k$[ebp+8], dl
  000ae	8a 50 09	 mov	 dl, BYTE PTR [eax+9]
  000b1	84 d2		 test	 dl, dl
  000b3	0f 84 f0 00 00
	00		 je	 $LN87@LoadFloat_@4
  000b9	80 f2 ec	 xor	 dl, -20			; ffffffecH
  000bc	88 55 ed	 mov	 BYTE PTR __k$[ebp+9], dl
  000bf	8a 50 0a	 mov	 dl, BYTE PTR [eax+10]
  000c2	84 d2		 test	 dl, dl
  000c4	0f 84 da 00 00
	00		 je	 $LN86@LoadFloat_@4
  000ca	32 d1		 xor	 dl, cl
  000cc	88 55 ee	 mov	 BYTE PTR __k$[ebp+10], dl
  000cf	8a 50 0b	 mov	 dl, BYTE PTR [eax+11]
  000d2	84 d2		 test	 dl, dl
  000d4	0f 84 c4 00 00
	00		 je	 $LN85@LoadFloat_@4
  000da	80 f2 ea	 xor	 dl, -22			; ffffffeaH
  000dd	88 55 ef	 mov	 BYTE PTR __k$[ebp+11], dl
  000e0	8a 50 0c	 mov	 dl, BYTE PTR [eax+12]
  000e3	84 d2		 test	 dl, dl
  000e5	0f 84 ad 00 00
	00		 je	 $LN84@LoadFloat_@4
  000eb	80 f2 ed	 xor	 dl, -19			; ffffffedH
  000ee	88 55 f0	 mov	 BYTE PTR __k$[ebp+12], dl
  000f1	8a 50 0d	 mov	 dl, BYTE PTR [eax+13]
  000f4	84 d2		 test	 dl, dl
  000f6	0f 84 96 00 00
	00		 je	 $LN83@LoadFloat_@4
  000fc	80 f2 ec	 xor	 dl, -20			; ffffffecH
  000ff	88 55 f1	 mov	 BYTE PTR __k$[ebp+13], dl
  00102	8a 50 0e	 mov	 dl, BYTE PTR [eax+14]
  00105	84 d2		 test	 dl, dl
  00107	0f 84 80 00 00
	00		 je	 $LN82@LoadFloat_@4
  0010d	32 d1		 xor	 dl, cl
  0010f	88 55 f2	 mov	 BYTE PTR __k$[ebp+14], dl
  00112	8a 50 0f	 mov	 dl, BYTE PTR [eax+15]
  00115	84 d2		 test	 dl, dl
  00117	74 6e		 je	 SHORT $LN81@LoadFloat_@4
  00119	80 f2 ea	 xor	 dl, -22			; ffffffeaH
  0011c	88 55 f3	 mov	 BYTE PTR __k$[ebp+15], dl
  0011f	8a 50 10	 mov	 dl, BYTE PTR [eax+16]
  00122	84 d2		 test	 dl, dl
  00124	74 5b		 je	 SHORT $LN80@LoadFloat_@4
  00126	80 f2 ed	 xor	 dl, -19			; ffffffedH
  00129	80 78 11 00	 cmp	 BYTE PTR [eax+17], 0
  0012d	88 55 f4	 mov	 BYTE PTR __k$[ebp+16], dl
  00130	0f 84 ac 00 00
	00		 je	 $LN1@LoadFloat_@4
  00136	8a 50 12	 mov	 dl, BYTE PTR [eax+18]
  00139	84 d2		 test	 dl, dl
  0013b	74 3f		 je	 SHORT $LN78@LoadFloat_@4
  0013d	32 d1		 xor	 dl, cl
  0013f	88 55 f6	 mov	 BYTE PTR __k$[ebp+18], dl
  00142	8a 50 13	 mov	 dl, BYTE PTR [eax+19]
  00145	84 d2		 test	 dl, dl
  00147	74 2d		 je	 SHORT $LN77@LoadFloat_@4
  00149	80 f2 ea	 xor	 dl, -22			; ffffffeaH
  0014c	88 55 f7	 mov	 BYTE PTR __k$[ebp+19], dl
  0014f	8a 50 14	 mov	 dl, BYTE PTR [eax+20]
  00152	84 d2		 test	 dl, dl
  00154	74 1a		 je	 SHORT $LN76@LoadFloat_@4
  00156	8a 40 15	 mov	 al, BYTE PTR [eax+21]
  00159	80 f2 ed	 xor	 dl, -19			; ffffffedH
  0015c	88 55 f8	 mov	 BYTE PTR __k$[ebp+20], dl
  0015f	84 c0		 test	 al, al
  00161	74 07		 je	 SHORT $LN75@LoadFloat_@4
  00163	34 ec		 xor	 al, -20			; ffffffecH
  00165	88 45 f9	 mov	 BYTE PTR __k$[ebp+21], al
  00168	eb 78		 jmp	 SHORT $LN1@LoadFloat_@4
$LN75@LoadFloat_@4:
  0016a	c6 45 f9 ec	 mov	 BYTE PTR __k$[ebp+21], -20 ; ffffffecH
  0016e	eb 72		 jmp	 SHORT $LN1@LoadFloat_@4
$LN76@LoadFloat_@4:
  00170	c6 45 f8 ed	 mov	 BYTE PTR __k$[ebp+20], -19 ; ffffffedH
  00174	eb 6c		 jmp	 SHORT $LN1@LoadFloat_@4
$LN77@LoadFloat_@4:
  00176	c6 45 f7 ea	 mov	 BYTE PTR __k$[ebp+19], -22 ; ffffffeaH
  0017a	eb 66		 jmp	 SHORT $LN1@LoadFloat_@4
$LN78@LoadFloat_@4:
  0017c	88 4d f6	 mov	 BYTE PTR __k$[ebp+18], cl
  0017f	eb 61		 jmp	 SHORT $LN1@LoadFloat_@4
$LN80@LoadFloat_@4:
  00181	c6 45 f4 ed	 mov	 BYTE PTR __k$[ebp+16], -19 ; ffffffedH
  00185	eb 5b		 jmp	 SHORT $LN1@LoadFloat_@4
$LN81@LoadFloat_@4:
  00187	c6 45 f3 ea	 mov	 BYTE PTR __k$[ebp+15], -22 ; ffffffeaH
  0018b	eb 55		 jmp	 SHORT $LN1@LoadFloat_@4
$LN82@LoadFloat_@4:
  0018d	88 4d f2	 mov	 BYTE PTR __k$[ebp+14], cl
  00190	eb 50		 jmp	 SHORT $LN1@LoadFloat_@4
$LN83@LoadFloat_@4:
  00192	c6 45 f1 ec	 mov	 BYTE PTR __k$[ebp+13], -20 ; ffffffecH
  00196	eb 4a		 jmp	 SHORT $LN1@LoadFloat_@4
$LN84@LoadFloat_@4:
  00198	c6 45 f0 ed	 mov	 BYTE PTR __k$[ebp+12], -19 ; ffffffedH
  0019c	eb 44		 jmp	 SHORT $LN1@LoadFloat_@4
$LN85@LoadFloat_@4:
  0019e	c6 45 ef ea	 mov	 BYTE PTR __k$[ebp+11], -22 ; ffffffeaH
  001a2	eb 3e		 jmp	 SHORT $LN1@LoadFloat_@4
$LN86@LoadFloat_@4:
  001a4	88 4d ee	 mov	 BYTE PTR __k$[ebp+10], cl
  001a7	eb 39		 jmp	 SHORT $LN1@LoadFloat_@4
$LN87@LoadFloat_@4:
  001a9	c6 45 ed ec	 mov	 BYTE PTR __k$[ebp+9], -20 ; ffffffecH
  001ad	eb 33		 jmp	 SHORT $LN1@LoadFloat_@4
$LN88@LoadFloat_@4:
  001af	c6 45 ec ed	 mov	 BYTE PTR __k$[ebp+8], -19 ; ffffffedH
  001b3	eb 2d		 jmp	 SHORT $LN1@LoadFloat_@4
$LN89@LoadFloat_@4:
  001b5	c6 45 eb ea	 mov	 BYTE PTR __k$[ebp+7], -22 ; ffffffeaH
  001b9	eb 27		 jmp	 SHORT $LN1@LoadFloat_@4
$LN90@LoadFloat_@4:
  001bb	88 4d ea	 mov	 BYTE PTR __k$[ebp+6], cl
  001be	eb 22		 jmp	 SHORT $LN1@LoadFloat_@4
$LN91@LoadFloat_@4:
  001c0	c6 45 e9 ec	 mov	 BYTE PTR __k$[ebp+5], -20 ; ffffffecH
  001c4	eb 1c		 jmp	 SHORT $LN1@LoadFloat_@4
$LN92@LoadFloat_@4:
  001c6	c6 45 e8 ed	 mov	 BYTE PTR __k$[ebp+4], -19 ; ffffffedH
  001ca	eb 16		 jmp	 SHORT $LN1@LoadFloat_@4
$LN93@LoadFloat_@4:
  001cc	c6 45 e7 ea	 mov	 BYTE PTR __k$[ebp+3], -22 ; ffffffeaH
  001d0	eb 10		 jmp	 SHORT $LN1@LoadFloat_@4
$LN94@LoadFloat_@4:
  001d2	c6 45 e6 eb	 mov	 BYTE PTR __k$[ebp+2], -21 ; ffffffebH
  001d6	eb 0a		 jmp	 SHORT $LN1@LoadFloat_@4
$LN95@LoadFloat_@4:
  001d8	c6 45 e5 ec	 mov	 BYTE PTR __k$[ebp+1], -20 ; ffffffecH
  001dc	eb 04		 jmp	 SHORT $LN1@LoadFloat_@4
$LN96@LoadFloat_@4:
  001de	c6 45 e4 ed	 mov	 BYTE PTR __k$[ebp], -19	; ffffffedH
$LN1@LoadFloat_@4:
  001e2	6a 04		 push	 4
  001e4	8d 45 e4	 lea	 eax, DWORD PTR __k$[ebp]
  001e7	c6 45 f5 00	 mov	 BYTE PTR __k$[ebp+17], 0
  001eb	5a		 pop	 edx
$LL104@LoadFloat_@4:
  001ec	81 30 ed ec eb
	ea		 xor	 DWORD PTR [eax], -353637139 ; eaebecedH
  001f2	83 c0 04	 add	 eax, 4
  001f5	4a		 dec	 edx
  001f6	75 f4		 jne	 SHORT $LL104@LoadFloat_@4

; 137  : 		return LoadFloat(_k, f);

  001f8	f3 0f 10 45 0c	 movss	 xmm0, DWORD PTR _f$[ebp]
  001fd	80 75 f4 ed	 xor	 BYTE PTR __k$[ebp+16], -19 ; ffffffedH
  00201	51		 push	 ecx
  00202	8d 45 e4	 lea	 eax, DWORD PTR __k$[ebp]
  00205	f3 0f 11 04 24	 movss	 DWORD PTR [esp], xmm0
  0020a	50		 push	 eax
  0020b	8b ce		 mov	 ecx, esi
  0020d	ff 15 00 00 00
	00		 call	 DWORD PTR __imp_?LoadFloat@ioINILoader@@QAEMPBDM@Z

; 138  : 	}

  00213	8b 4d fc	 mov	 ecx, DWORD PTR __$ArrayPad$[ebp]
  00216	33 cd		 xor	 ecx, ebp
  00218	5e		 pop	 esi
  00219	e8 00 00 00 00	 call	 @__security_check_cookie@4
  0021e	c9		 leave
  0021f	c2 08 00	 ret	 8
??$LoadFloat_e@$0BC@@ioINILoader@@QAEMAAY0BC@$$CBDM@Z ENDP ; ioINILoader::LoadFloat_e<18>
_TEXT	ENDS
PUBLIC	_this$GSCopy$
PUBLIC	__$ArrayPad$
PUBLIC	??$LoadString_e@$0BJ@@ioINILoader@@QAEXAAY0BJ@$$CBDAAY00$$CBDPADH@Z ; ioINILoader::LoadString_e<25>
; Function compile flags: /Ogsp
;	COMDAT ??$LoadString_e@$0BJ@@ioINILoader@@QAEXAAY0BJ@$$CBDAAY00$$CBDPADH@Z
_TEXT	SEGMENT
_this$GSCopy$ = -40					; size = 4
__k$ = -36						; size = 25
__$ArrayPad$ = -4					; size = 4
_k$ = 8							; size = 4
_d$ = 12						; size = 4
_b$ = 16						; size = 4
_i$ = 20						; size = 4
??$LoadString_e@$0BJ@@ioINILoader@@QAEXAAY0BJ@$$CBDAAY00$$CBDPADH@Z PROC ; ioINILoader::LoadString_e<25>, COMDAT
; _this$ = ecx

; 161  : 	{

  00000	55		 push	 ebp
  00001	8b ec		 mov	 ebp, esp
  00003	83 ec 28	 sub	 esp, 40			; 00000028H
  00006	a1 00 00 00 00	 mov	 eax, DWORD PTR ___security_cookie
  0000b	33 c5		 xor	 eax, ebp
  0000d	89 45 fc	 mov	 DWORD PTR __$ArrayPad$[ebp], eax
  00010	8b 45 08	 mov	 eax, DWORD PTR _k$[ebp]

; 162  : 		_ENCSTR(k, _k);

  00013	8a 10		 mov	 dl, BYTE PTR [eax]
  00015	53		 push	 ebx
  00016	56		 push	 esi
  00017	8b 75 0c	 mov	 esi, DWORD PTR _d$[ebp]
  0001a	57		 push	 edi
  0001b	8b 7d 10	 mov	 edi, DWORD PTR _b$[ebp]
  0001e	89 4d d8	 mov	 DWORD PTR _this$GSCopy$[ebp], ecx
  00021	84 d2		 test	 dl, dl
  00023	0f 84 5f 02 00
	00		 je	 $LN96@LoadString@3
  00029	80 f2 ed	 xor	 dl, -19			; ffffffedH
  0002c	88 55 dc	 mov	 BYTE PTR __k$[ebp], dl
  0002f	8a 50 01	 mov	 dl, BYTE PTR [eax+1]
  00032	84 d2		 test	 dl, dl
  00034	0f 84 48 02 00
	00		 je	 $LN95@LoadString@3
  0003a	b1 ec		 mov	 cl, -20			; ffffffecH
  0003c	32 d1		 xor	 dl, cl
  0003e	88 55 dd	 mov	 BYTE PTR __k$[ebp+1], dl
  00041	8a 50 02	 mov	 dl, BYTE PTR [eax+2]
  00044	84 d2		 test	 dl, dl
  00046	0f 84 30 02 00
	00		 je	 $LN94@LoadString@3
  0004c	b3 eb		 mov	 bl, -21			; ffffffebH
  0004e	32 d3		 xor	 dl, bl
  00050	88 55 de	 mov	 BYTE PTR __k$[ebp+2], dl
  00053	8a 50 03	 mov	 dl, BYTE PTR [eax+3]
  00056	84 d2		 test	 dl, dl
  00058	0f 84 18 02 00
	00		 je	 $LN93@LoadString@3
  0005e	80 f2 ea	 xor	 dl, -22			; ffffffeaH
  00061	88 55 df	 mov	 BYTE PTR __k$[ebp+3], dl
  00064	8a 50 04	 mov	 dl, BYTE PTR [eax+4]
  00067	84 d2		 test	 dl, dl
  00069	0f 84 01 02 00
	00		 je	 $LN92@LoadString@3
  0006f	80 f2 ed	 xor	 dl, -19			; ffffffedH
  00072	88 55 e0	 mov	 BYTE PTR __k$[ebp+4], dl
  00075	8a 50 05	 mov	 dl, BYTE PTR [eax+5]
  00078	84 d2		 test	 dl, dl
  0007a	0f 84 eb 01 00
	00		 je	 $LN91@LoadString@3
  00080	32 d1		 xor	 dl, cl
  00082	88 55 e1	 mov	 BYTE PTR __k$[ebp+5], dl
  00085	8a 50 06	 mov	 dl, BYTE PTR [eax+6]
  00088	84 d2		 test	 dl, dl
  0008a	0f 84 d6 01 00
	00		 je	 $LN90@LoadString@3
  00090	32 d3		 xor	 dl, bl
  00092	88 55 e2	 mov	 BYTE PTR __k$[ebp+6], dl
  00095	8a 50 07	 mov	 dl, BYTE PTR [eax+7]
  00098	84 d2		 test	 dl, dl
  0009a	0f 84 c0 01 00
	00		 je	 $LN89@LoadString@3
  000a0	80 f2 ea	 xor	 dl, -22			; ffffffeaH
  000a3	88 55 e3	 mov	 BYTE PTR __k$[ebp+7], dl
  000a6	8a 50 08	 mov	 dl, BYTE PTR [eax+8]
  000a9	84 d2		 test	 dl, dl
  000ab	0f 84 a9 01 00
	00		 je	 $LN88@LoadString@3
  000b1	80 f2 ed	 xor	 dl, -19			; ffffffedH
  000b4	88 55 e4	 mov	 BYTE PTR __k$[ebp+8], dl
  000b7	8a 50 09	 mov	 dl, BYTE PTR [eax+9]
  000ba	84 d2		 test	 dl, dl
  000bc	0f 84 93 01 00
	00		 je	 $LN87@LoadString@3
  000c2	32 d1		 xor	 dl, cl
  000c4	88 55 e5	 mov	 BYTE PTR __k$[ebp+9], dl
  000c7	8a 50 0a	 mov	 dl, BYTE PTR [eax+10]
  000ca	84 d2		 test	 dl, dl
  000cc	0f 84 7e 01 00
	00		 je	 $LN86@LoadString@3
  000d2	32 d3		 xor	 dl, bl
  000d4	88 55 e6	 mov	 BYTE PTR __k$[ebp+10], dl
  000d7	8a 50 0b	 mov	 dl, BYTE PTR [eax+11]
  000da	84 d2		 test	 dl, dl
  000dc	0f 84 68 01 00
	00		 je	 $LN85@LoadString@3
  000e2	80 f2 ea	 xor	 dl, -22			; ffffffeaH
  000e5	88 55 e7	 mov	 BYTE PTR __k$[ebp+11], dl
  000e8	8a 50 0c	 mov	 dl, BYTE PTR [eax+12]
  000eb	84 d2		 test	 dl, dl
  000ed	0f 84 51 01 00
	00		 je	 $LN84@LoadString@3
  000f3	80 f2 ed	 xor	 dl, -19			; ffffffedH
  000f6	88 55 e8	 mov	 BYTE PTR __k$[ebp+12], dl
  000f9	8a 50 0d	 mov	 dl, BYTE PTR [eax+13]
  000fc	84 d2		 test	 dl, dl
  000fe	0f 84 3b 01 00
	00		 je	 $LN83@LoadString@3
  00104	32 d1		 xor	 dl, cl
  00106	88 55 e9	 mov	 BYTE PTR __k$[ebp+13], dl
  00109	8a 50 0e	 mov	 dl, BYTE PTR [eax+14]
  0010c	84 d2		 test	 dl, dl
  0010e	0f 84 26 01 00
	00		 je	 $LN82@LoadString@3
  00114	32 d3		 xor	 dl, bl
  00116	88 55 ea	 mov	 BYTE PTR __k$[ebp+14], dl
  00119	8a 50 0f	 mov	 dl, BYTE PTR [eax+15]
  0011c	84 d2		 test	 dl, dl
  0011e	0f 84 10 01 00
	00		 je	 $LN81@LoadString@3
  00124	80 f2 ea	 xor	 dl, -22			; ffffffeaH
  00127	88 55 eb	 mov	 BYTE PTR __k$[ebp+15], dl
  0012a	8a 50 10	 mov	 dl, BYTE PTR [eax+16]
  0012d	84 d2		 test	 dl, dl
  0012f	0f 84 f9 00 00
	00		 je	 $LN80@LoadString@3
  00135	80 f2 ed	 xor	 dl, -19			; ffffffedH
  00138	88 55 ec	 mov	 BYTE PTR __k$[ebp+16], dl
  0013b	8a 50 11	 mov	 dl, BYTE PTR [eax+17]
  0013e	84 d2		 test	 dl, dl
  00140	0f 84 e3 00 00
	00		 je	 $LN79@LoadString@3
  00146	32 d1		 xor	 dl, cl
  00148	88 55 ed	 mov	 BYTE PTR __k$[ebp+17], dl
  0014b	8a 50 12	 mov	 dl, BYTE PTR [eax+18]
  0014e	84 d2		 test	 dl, dl
  00150	0f 84 ce 00 00
	00		 je	 $LN78@LoadString@3
  00156	32 d3		 xor	 dl, bl
  00158	88 55 ee	 mov	 BYTE PTR __k$[ebp+18], dl
  0015b	8a 50 13	 mov	 dl, BYTE PTR [eax+19]
  0015e	84 d2		 test	 dl, dl
  00160	0f 84 b8 00 00
	00		 je	 $LN77@LoadString@3
  00166	80 f2 ea	 xor	 dl, -22			; ffffffeaH
  00169	88 55 ef	 mov	 BYTE PTR __k$[ebp+19], dl
  0016c	8a 50 14	 mov	 dl, BYTE PTR [eax+20]
  0016f	84 d2		 test	 dl, dl
  00171	0f 84 a1 00 00
	00		 je	 $LN76@LoadString@3
  00177	80 f2 ed	 xor	 dl, -19			; ffffffedH
  0017a	88 55 f0	 mov	 BYTE PTR __k$[ebp+20], dl
  0017d	8a 50 15	 mov	 dl, BYTE PTR [eax+21]
  00180	84 d2		 test	 dl, dl
  00182	0f 84 8b 00 00
	00		 je	 $LN75@LoadString@3
  00188	32 d1		 xor	 dl, cl
  0018a	88 55 f1	 mov	 BYTE PTR __k$[ebp+21], dl
  0018d	8a 50 16	 mov	 dl, BYTE PTR [eax+22]
  00190	84 d2		 test	 dl, dl
  00192	74 7a		 je	 SHORT $LN74@LoadString@3
  00194	32 d3		 xor	 dl, bl
  00196	88 55 f2	 mov	 BYTE PTR __k$[ebp+22], dl
  00199	8a 50 17	 mov	 dl, BYTE PTR [eax+23]
  0019c	84 d2		 test	 dl, dl
  0019e	74 68		 je	 SHORT $LN73@LoadString@3
  001a0	80 f2 ea	 xor	 dl, -22			; ffffffeaH
  001a3	80 78 18 00	 cmp	 BYTE PTR [eax+24], 0
  001a7	88 55 f3	 mov	 BYTE PTR __k$[ebp+23], dl
  001aa	0f 84 dc 00 00
	00		 je	 $LN111@LoadString@3
  001b0	8a 50 19	 mov	 dl, BYTE PTR [eax+25]
  001b3	84 d2		 test	 dl, dl
  001b5	74 49		 je	 SHORT $LN71@LoadString@3
  001b7	32 d1		 xor	 dl, cl
  001b9	88 55 f5	 mov	 BYTE PTR __k$[ebp+25], dl
  001bc	8a 50 1a	 mov	 dl, BYTE PTR [eax+26]
  001bf	84 d2		 test	 dl, dl
  001c1	74 35		 je	 SHORT $LN70@LoadString@3
  001c3	32 d3		 xor	 dl, bl
  001c5	88 55 f6	 mov	 BYTE PTR __k$[ebp+26], dl
  001c8	8a 50 1b	 mov	 dl, BYTE PTR [eax+27]
  001cb	84 d2		 test	 dl, dl
  001cd	74 20		 je	 SHORT $LN69@LoadString@3
  001cf	8a 40 1c	 mov	 al, BYTE PTR [eax+28]
  001d2	80 f2 ea	 xor	 dl, -22			; ffffffeaH
  001d5	88 55 f7	 mov	 BYTE PTR __k$[ebp+27], dl
  001d8	84 c0		 test	 al, al
  001da	74 0a		 je	 SHORT $LN68@LoadString@3
  001dc	34 ed		 xor	 al, -19			; ffffffedH
  001de	88 45 f8	 mov	 BYTE PTR __k$[ebp+28], al
  001e1	e9 a6 00 00 00	 jmp	 $LN111@LoadString@3
$LN68@LoadString@3:
  001e6	c6 45 f8 ed	 mov	 BYTE PTR __k$[ebp+28], -19 ; ffffffedH
  001ea	e9 9d 00 00 00	 jmp	 $LN111@LoadString@3
$LN69@LoadString@3:
  001ef	c6 45 f7 ea	 mov	 BYTE PTR __k$[ebp+27], -22 ; ffffffeaH
  001f3	e9 94 00 00 00	 jmp	 $LN111@LoadString@3
$LN70@LoadString@3:
  001f8	88 5d f6	 mov	 BYTE PTR __k$[ebp+26], bl
  001fb	e9 8c 00 00 00	 jmp	 $LN111@LoadString@3
$LN71@LoadString@3:
  00200	88 4d f5	 mov	 BYTE PTR __k$[ebp+25], cl
  00203	e9 84 00 00 00	 jmp	 $LN111@LoadString@3
$LN73@LoadString@3:
  00208	c6 45 f3 ea	 mov	 BYTE PTR __k$[ebp+23], -22 ; ffffffeaH
  0020c	eb 7e		 jmp	 SHORT $LN111@LoadString@3
$LN74@LoadString@3:
  0020e	88 5d f2	 mov	 BYTE PTR __k$[ebp+22], bl
  00211	eb 79		 jmp	 SHORT $LN111@LoadString@3
$LN75@LoadString@3:
  00213	88 4d f1	 mov	 BYTE PTR __k$[ebp+21], cl
  00216	eb 74		 jmp	 SHORT $LN111@LoadString@3
$LN76@LoadString@3:
  00218	c6 45 f0 ed	 mov	 BYTE PTR __k$[ebp+20], -19 ; ffffffedH
  0021c	eb 6e		 jmp	 SHORT $LN111@LoadString@3
$LN77@LoadString@3:
  0021e	c6 45 ef ea	 mov	 BYTE PTR __k$[ebp+19], -22 ; ffffffeaH
  00222	eb 68		 jmp	 SHORT $LN111@LoadString@3
$LN78@LoadString@3:
  00224	88 5d ee	 mov	 BYTE PTR __k$[ebp+18], bl
  00227	eb 63		 jmp	 SHORT $LN111@LoadString@3
$LN79@LoadString@3:
  00229	88 4d ed	 mov	 BYTE PTR __k$[ebp+17], cl
  0022c	eb 5e		 jmp	 SHORT $LN111@LoadString@3
$LN80@LoadString@3:
  0022e	c6 45 ec ed	 mov	 BYTE PTR __k$[ebp+16], -19 ; ffffffedH
  00232	eb 58		 jmp	 SHORT $LN111@LoadString@3
$LN81@LoadString@3:
  00234	c6 45 eb ea	 mov	 BYTE PTR __k$[ebp+15], -22 ; ffffffeaH
  00238	eb 52		 jmp	 SHORT $LN111@LoadString@3
$LN82@LoadString@3:
  0023a	88 5d ea	 mov	 BYTE PTR __k$[ebp+14], bl
  0023d	eb 4d		 jmp	 SHORT $LN111@LoadString@3
$LN83@LoadString@3:
  0023f	88 4d e9	 mov	 BYTE PTR __k$[ebp+13], cl
  00242	eb 48		 jmp	 SHORT $LN111@LoadString@3
$LN84@LoadString@3:
  00244	c6 45 e8 ed	 mov	 BYTE PTR __k$[ebp+12], -19 ; ffffffedH
  00248	eb 42		 jmp	 SHORT $LN111@LoadString@3
$LN85@LoadString@3:
  0024a	c6 45 e7 ea	 mov	 BYTE PTR __k$[ebp+11], -22 ; ffffffeaH
  0024e	eb 3c		 jmp	 SHORT $LN111@LoadString@3
$LN86@LoadString@3:
  00250	88 5d e6	 mov	 BYTE PTR __k$[ebp+10], bl
  00253	eb 37		 jmp	 SHORT $LN111@LoadString@3
$LN87@LoadString@3:
  00255	88 4d e5	 mov	 BYTE PTR __k$[ebp+9], cl
  00258	eb 32		 jmp	 SHORT $LN111@LoadString@3
$LN88@LoadString@3:
  0025a	c6 45 e4 ed	 mov	 BYTE PTR __k$[ebp+8], -19 ; ffffffedH
  0025e	eb 2c		 jmp	 SHORT $LN111@LoadString@3
$LN89@LoadString@3:
  00260	c6 45 e3 ea	 mov	 BYTE PTR __k$[ebp+7], -22 ; ffffffeaH
  00264	eb 26		 jmp	 SHORT $LN111@LoadString@3
$LN90@LoadString@3:
  00266	88 5d e2	 mov	 BYTE PTR __k$[ebp+6], bl
  00269	eb 21		 jmp	 SHORT $LN111@LoadString@3
$LN91@LoadString@3:
  0026b	88 4d e1	 mov	 BYTE PTR __k$[ebp+5], cl
  0026e	eb 1c		 jmp	 SHORT $LN111@LoadString@3
$LN92@LoadString@3:
  00270	c6 45 e0 ed	 mov	 BYTE PTR __k$[ebp+4], -19 ; ffffffedH
  00274	eb 16		 jmp	 SHORT $LN111@LoadString@3
$LN93@LoadString@3:
  00276	c6 45 df ea	 mov	 BYTE PTR __k$[ebp+3], -22 ; ffffffeaH
  0027a	eb 10		 jmp	 SHORT $LN111@LoadString@3
$LN94@LoadString@3:
  0027c	c6 45 de eb	 mov	 BYTE PTR __k$[ebp+2], -21 ; ffffffebH
  00280	eb 0a		 jmp	 SHORT $LN111@LoadString@3
$LN95@LoadString@3:
  00282	c6 45 dd ec	 mov	 BYTE PTR __k$[ebp+1], -20 ; ffffffecH
  00286	eb 04		 jmp	 SHORT $LN111@LoadString@3
$LN96@LoadString@3:
  00288	c6 45 dc ed	 mov	 BYTE PTR __k$[ebp], -19	; ffffffedH
$LN111@LoadString@3:
  0028c	6a 06		 push	 6
  0028e	8d 45 dc	 lea	 eax, DWORD PTR __k$[ebp]
  00291	c6 45 f4 00	 mov	 BYTE PTR __k$[ebp+24], 0
  00295	5a		 pop	 edx
$LL104@LoadString@3:
  00296	81 30 ed ec eb
	ea		 xor	 DWORD PTR [eax], -353637139 ; eaebecedH
  0029c	83 c0 04	 add	 eax, 4
  0029f	4a		 dec	 edx
  002a0	75 f4		 jne	 SHORT $LL104@LoadString@3

; 163  : 		LoadString(_k, d, b, i);

  002a2	ff 75 14	 push	 DWORD PTR _i$[ebp]
  002a5	8b 4d d8	 mov	 ecx, DWORD PTR _this$GSCopy$[ebp]
  002a8	57		 push	 edi
  002a9	56		 push	 esi
  002aa	8d 45 dc	 lea	 eax, DWORD PTR __k$[ebp]
  002ad	50		 push	 eax
  002ae	ff 15 00 00 00
	00		 call	 DWORD PTR __imp_?LoadStringA@ioINILoader@@QAEXPBD0PADH@Z

; 164  : 	}

  002b4	8b 4d fc	 mov	 ecx, DWORD PTR __$ArrayPad$[ebp]
  002b7	5f		 pop	 edi
  002b8	5e		 pop	 esi
  002b9	33 cd		 xor	 ecx, ebp
  002bb	5b		 pop	 ebx
  002bc	e8 00 00 00 00	 call	 @__security_check_cookie@4
  002c1	c9		 leave
  002c2	c2 10 00	 ret	 16			; 00000010H
??$LoadString_e@$0BJ@@ioINILoader@@QAEXAAY0BJ@$$CBDAAY00$$CBDPADH@Z ENDP ; ioINILoader::LoadString_e<25>
_TEXT	ENDS
PUBLIC	__real@3fd2ee0d320154cb
PUBLIC	__real@41f0000000000000
PUBLIC	??$RADtoDEG@M@@YAMM@Z				; RADtoDEG<float>
;	COMDAT __real@3fd2ee0d320154cb
; File d:\lost saga for developer\youtube\tutorial\source\src\lsclient\veryoftenusedefine.h
CONST	SEGMENT
__real@3fd2ee0d320154cb DQ 03fd2ee0d320154cbr	; 0.29578
CONST	ENDS
;	COMDAT __real@41f0000000000000
CONST	SEGMENT
__real@41f0000000000000 DQ 041f0000000000000r	; 4.29497e+009
; Function compile flags: /Ogsp
CONST	ENDS
;	COMDAT ??$RADtoDEG@M@@YAMM@Z
_TEXT	SEGMENT
tv130 = -4						; size = 4
tv75 = 8						; size = 4
_val$ = 8						; size = 4
??$RADtoDEG@M@@YAMM@Z PROC				; RADtoDEG<float>, COMDAT

; 18   : type  RADtoDEG (type val) {return (type) (val * (return57() + 0.2957795132)); }

  00000	55		 push	 ebp
  00001	8b ec		 mov	 ebp, esp
  00003	51		 push	 ecx
  00004	b8 39 00 00 00	 mov	 eax, 57			; 00000039H
  00009	89 45 fc	 mov	 DWORD PTR tv130[ebp], eax
  0000c	db 45 fc	 fild	 DWORD PTR tv130[ebp]
  0000f	85 c0		 test	 eax, eax
  00011	79 06		 jns	 SHORT $LN5@RADtoDEG
  00013	dc 05 00 00 00
	00		 fadd	 QWORD PTR __real@41f0000000000000
$LN5@RADtoDEG:
  00019	dc 05 00 00 00
	00		 fadd	 QWORD PTR __real@3fd2ee0d320154cb
  0001f	d8 4d 08	 fmul	 DWORD PTR _val$[ebp]
  00022	d9 5d 08	 fstp	 DWORD PTR tv75[ebp]
  00025	d9 45 08	 fld	 DWORD PTR tv75[ebp]
  00028	c9		 leave
  00029	c3		 ret	 0
??$RADtoDEG@M@@YAMM@Z ENDP				; RADtoDEG<float>
_TEXT	ENDS
PUBLIC	?c_str@?$basic_string@DU?$char_traits@D@std@@V?$allocator@D@2@@std@@QBEPBDXZ ; std::basic_string<char,std::char_traits<char>,std::allocator<char> >::c_str
; Function compile flags: /Ogsp
; File c:\program files (x86)\microsoft visual studio 10.0\vc\include\xstring
;	COMDAT ?c_str@?$basic_string@DU?$char_traits@D@std@@V?$allocator@D@2@@std@@QBEPBDXZ
_TEXT	SEGMENT
?c_str@?$basic_string@DU?$char_traits@D@std@@V?$allocator@D@2@@std@@QBEPBDXZ PROC ; std::basic_string<char,std::char_traits<char>,std::allocator<char> >::c_str, COMDAT
; _this$ = ecx

; 1497 : 		return (_Myptr());

  00000	83 79 14 10	 cmp	 DWORD PTR [ecx+20], 16	; 00000010H
  00004	72 03		 jb	 SHORT $LN5@c_str
  00006	8b 01		 mov	 eax, DWORD PTR [ecx]

; 1498 : 		}

  00008	c3		 ret	 0

; 1497 : 		return (_Myptr());

$LN5@c_str:
  00009	8b c1		 mov	 eax, ecx

; 1498 : 		}

  0000b	c3		 ret	 0
?c_str@?$basic_string@DU?$char_traits@D@std@@V?$allocator@D@2@@std@@QBEPBDXZ ENDP ; std::basic_string<char,std::char_traits<char>,std::allocator<char> >::c_str
_TEXT	ENDS
PUBLIC	??0?$CEncrypt@M@@QAE@XZ				; CEncrypt<float>::CEncrypt<float>
EXTRN	??0ccddaabb@@QAE@XZ:PROC			; ccddaabb::ccddaabb
;	COMDAT xdata$x
; File d:\lost saga for developer\youtube\tutorial\source\src\lsclient\encryptvalue.h
xdata$x	SEGMENT
__unwindtable$??0?$CEncrypt@M@@QAE@XZ DD 0ffffffffH
	DD	FLAT:__unwindfunclet$??0?$CEncrypt@M@@QAE@XZ$0
__ehfuncinfo$??0?$CEncrypt@M@@QAE@XZ DD 019930522H
	DD	01H
	DD	FLAT:__unwindtable$??0?$CEncrypt@M@@QAE@XZ
	DD	2 DUP(00H)
	DD	2 DUP(00H)
	DD	00H
	DD	01H
; Function compile flags: /Ogsp
xdata$x	ENDS
;	COMDAT ??0?$CEncrypt@M@@QAE@XZ
_TEXT	SEGMENT
_this$ = -16						; size = 4
__$EHRec$ = -12						; size = 12
??0?$CEncrypt@M@@QAE@XZ PROC				; CEncrypt<float>::CEncrypt<float>, COMDAT
; _this$ = ecx

; 109  : 	CEncrypt()

  00000	6a 04		 push	 4
  00002	b8 00 00 00 00	 mov	 eax, __ehhandler$??0?$CEncrypt@M@@QAE@XZ
  00007	e8 00 00 00 00	 call	 __EH_prolog3
  0000c	8b f1		 mov	 esi, ecx
  0000e	89 75 f0	 mov	 DWORD PTR _this$[ebp], esi
  00011	8d 4e 0c	 lea	 ecx, DWORD PTR [esi+12]
  00014	c7 06 00 00 00
	00		 mov	 DWORD PTR [esi], OFFSET ??_7?$CEncrypt@M@@6B@
  0001a	e8 00 00 00 00	 call	 ??0ccddaabb@@QAE@XZ	; ccddaabb::ccddaabb
  0001f	83 65 fc 00	 and	 DWORD PTR __$EHRec$[ebp+8], 0

; 110  : 	{
; 111  : 		Init();

  00023	8b ce		 mov	 ecx, esi
  00025	e8 00 00 00 00	 call	 ?Init@?$CEncrypt@M@@AAEXXZ ; CEncrypt<float>::Init

; 112  : 	}

  0002a	8b c6		 mov	 eax, esi
  0002c	e8 00 00 00 00	 call	 __EH_epilog3
  00031	c3		 ret	 0
_TEXT	ENDS
;	COMDAT text$x
text$x	SEGMENT
__unwindfunclet$??0?$CEncrypt@M@@QAE@XZ$0:
  00000	8b 4d f0	 mov	 ecx, DWORD PTR _this$[ebp]
  00003	83 c1 0c	 add	 ecx, 12			; 0000000cH
  00006	e9 00 00 00 00	 jmp	 ??1ccddaabb@@UAE@XZ	; ccddaabb::~ccddaabb
__ehhandler$??0?$CEncrypt@M@@QAE@XZ:
  0000b	8b 54 24 08	 mov	 edx, DWORD PTR [esp+8]
  0000f	8d 42 0c	 lea	 eax, DWORD PTR [edx+12]
  00012	8b 4a ec	 mov	 ecx, DWORD PTR [edx-20]
  00015	33 c8		 xor	 ecx, eax
  00017	e8 00 00 00 00	 call	 @__security_check_cookie@4
  0001c	b8 00 00 00 00	 mov	 eax, OFFSET __ehfuncinfo$??0?$CEncrypt@M@@QAE@XZ
  00021	e9 00 00 00 00	 jmp	 ___CxxFrameHandler3
text$x	ENDS
??0?$CEncrypt@M@@QAE@XZ ENDP				; CEncrypt<float>::CEncrypt<float>
PUBLIC	??B?$CEncrypt@M@@QAEMXZ				; CEncrypt<float>::operator float
; Function compile flags: /Ogsp
;	COMDAT ??B?$CEncrypt@M@@QAEMXZ
_TEXT	SEGMENT
_value$ = -4						; size = 4
??B?$CEncrypt@M@@QAEMXZ PROC				; CEncrypt<float>::operator float, COMDAT
; _this$ = ecx

; 134  : 	{

  00000	55		 push	 ebp
  00001	8b ec		 mov	 ebp, esp
  00003	51		 push	 ecx

; 135  : 		type value;
; 136  : 		DecryptValueToPool(&value);

  00004	8d 45 fc	 lea	 eax, DWORD PTR _value$[ebp]
  00007	50		 push	 eax
  00008	e8 00 00 00 00	 call	 ?DecryptValueToPool@?$CEncrypt@M@@QAEXPAM@Z ; CEncrypt<float>::DecryptValueToPool

; 137  : 
; 138  : #ifdef _NOTUSE
; 139  : 		Debug();
; 140  : #endif
; 141  : 		return value;

  0000d	d9 45 fc	 fld	 DWORD PTR _value$[ebp]

; 142  : 	}

  00010	c9		 leave
  00011	c3		 ret	 0
??B?$CEncrypt@M@@QAEMXZ ENDP				; CEncrypt<float>::operator float
_TEXT	ENDS
PUBLIC	??4?$CEncrypt@M@@QAEMM@Z			; CEncrypt<float>::operator=
; Function compile flags: /Ogsp
;	COMDAT ??4?$CEncrypt@M@@QAEMM@Z
_TEXT	SEGMENT
_value$ = 8						; size = 4
_inValue$ = 8						; size = 4
??4?$CEncrypt@M@@QAEMM@Z PROC				; CEncrypt<float>::operator=, COMDAT
; _this$ = ecx

; 1654 : 	{	

  00000	55		 push	 ebp
  00001	8b ec		 mov	 ebp, esp

; 1655 : 		type value = inValue;

  00003	d9 45 08	 fld	 DWORD PTR _inValue$[ebp]

; 1656 : 		EncryptValueToPool((char*)&value);

  00006	8d 45 08	 lea	 eax, DWORD PTR _value$[ebp]
  00009	50		 push	 eax
  0000a	d9 5d 08	 fstp	 DWORD PTR _value$[ebp]
  0000d	e8 00 00 00 00	 call	 ?EncryptValueToPool@?$CEncrypt@M@@AAEXPBD@Z ; CEncrypt<float>::EncryptValueToPool

; 1657 : #ifdef _NOTUSE
; 1658 : 		m_value = inValue;
; 1659 : 		Debug();
; 1660 : #endif
; 1661 : 		return value;

  00012	d9 45 08	 fld	 DWORD PTR _value$[ebp]

; 1662 : 	}

  00015	5d		 pop	 ebp
  00016	c2 04 00	 ret	 4
??4?$CEncrypt@M@@QAEMM@Z ENDP				; CEncrypt<float>::operator=
_TEXT	ENDS
PUBLIC	??Y?$CEncrypt@M@@QAEAAMABM@Z			; CEncrypt<float>::operator+=
; Function compile flags: /Ogsp
;	COMDAT ??Y?$CEncrypt@M@@QAEAAMABM@Z
_TEXT	SEGMENT
_value$ = -4						; size = 4
_inValue$ = 8						; size = 4
??Y?$CEncrypt@M@@QAEAAMABM@Z PROC			; CEncrypt<float>::operator+=, COMDAT
; _this$ = ecx

; 1715 : 	{

  00000	55		 push	 ebp
  00001	8b ec		 mov	 ebp, esp
  00003	51		 push	 ecx
  00004	56		 push	 esi

; 1716 : 		type value;
; 1717 : 		DecryptValueToPool(&value);

  00005	8d 45 fc	 lea	 eax, DWORD PTR _value$[ebp]
  00008	50		 push	 eax
  00009	8b f1		 mov	 esi, ecx
  0000b	e8 00 00 00 00	 call	 ?DecryptValueToPool@?$CEncrypt@M@@QAEXPAM@Z ; CEncrypt<float>::DecryptValueToPool

; 1718 : 		value += inValue;

  00010	8b 45 08	 mov	 eax, DWORD PTR _inValue$[ebp]
  00013	f3 0f 10 00	 movss	 xmm0, DWORD PTR [eax]
  00017	f3 0f 10 4d fc	 movss	 xmm1, DWORD PTR _value$[ebp]
  0001c	0f 5a c0	 cvtps2pd xmm0, xmm0
  0001f	0f 5a c9	 cvtps2pd xmm1, xmm1

; 1719 : 		EncryptValueToPool((char*)&value);

  00022	8d 45 fc	 lea	 eax, DWORD PTR _value$[ebp]
  00025	f2 0f 58 c1	 addsd	 xmm0, xmm1
  00029	66 0f 5a c0	 cvtpd2ps xmm0, xmm0
  0002d	50		 push	 eax
  0002e	8b ce		 mov	 ecx, esi
  00030	f3 0f 11 45 fc	 movss	 DWORD PTR _value$[ebp], xmm0
  00035	e8 00 00 00 00	 call	 ?EncryptValueToPool@?$CEncrypt@M@@AAEXPBD@Z ; CEncrypt<float>::EncryptValueToPool

; 1720 : #ifdef _NOTUSE
; 1721 : 		m_value += inValue;
; 1722 : 		Debug();
; 1723 : #endif
; 1724 : 		return value;

  0003a	8d 45 fc	 lea	 eax, DWORD PTR _value$[ebp]
  0003d	5e		 pop	 esi

; 1725 : 	} 

  0003e	c9		 leave
  0003f	c2 04 00	 ret	 4
??Y?$CEncrypt@M@@QAEAAMABM@Z ENDP			; CEncrypt<float>::operator+=
_TEXT	ENDS
PUBLIC	??Z?$CEncrypt@M@@QAEAAMABM@Z			; CEncrypt<float>::operator-=
; Function compile flags: /Ogsp
;	COMDAT ??Z?$CEncrypt@M@@QAEAAMABM@Z
_TEXT	SEGMENT
_value$ = -4						; size = 4
_inValue$ = 8						; size = 4
??Z?$CEncrypt@M@@QAEAAMABM@Z PROC			; CEncrypt<float>::operator-=, COMDAT
; _this$ = ecx

; 1728 : 	{

  00000	55		 push	 ebp
  00001	8b ec		 mov	 ebp, esp
  00003	51		 push	 ecx
  00004	56		 push	 esi

; 1729 : 		type value;
; 1730 : 		DecryptValueToPool(&value);

  00005	8d 45 fc	 lea	 eax, DWORD PTR _value$[ebp]
  00008	50		 push	 eax
  00009	8b f1		 mov	 esi, ecx
  0000b	e8 00 00 00 00	 call	 ?DecryptValueToPool@?$CEncrypt@M@@QAEXPAM@Z ; CEncrypt<float>::DecryptValueToPool

; 1731 : 		value -= inValue;

  00010	8b 45 08	 mov	 eax, DWORD PTR _inValue$[ebp]
  00013	f3 0f 10 45 fc	 movss	 xmm0, DWORD PTR _value$[ebp]
  00018	f3 0f 10 08	 movss	 xmm1, DWORD PTR [eax]
  0001c	0f 5a c0	 cvtps2pd xmm0, xmm0
  0001f	0f 5a c9	 cvtps2pd xmm1, xmm1

; 1732 : 		EncryptValueToPool((char*)&value);

  00022	8d 45 fc	 lea	 eax, DWORD PTR _value$[ebp]
  00025	f2 0f 5c c1	 subsd	 xmm0, xmm1
  00029	66 0f 5a c0	 cvtpd2ps xmm0, xmm0
  0002d	50		 push	 eax
  0002e	8b ce		 mov	 ecx, esi
  00030	f3 0f 11 45 fc	 movss	 DWORD PTR _value$[ebp], xmm0
  00035	e8 00 00 00 00	 call	 ?EncryptValueToPool@?$CEncrypt@M@@AAEXPBD@Z ; CEncrypt<float>::EncryptValueToPool

; 1733 : #ifdef _NOTUSE
; 1734 : 		m_value -= inValue;
; 1735 : 		Debug();
; 1736 : #endif
; 1737 : 		return value;

  0003a	8d 45 fc	 lea	 eax, DWORD PTR _value$[ebp]
  0003d	5e		 pop	 esi

; 1738 : 	} 

  0003e	c9		 leave
  0003f	c2 04 00	 ret	 4
??Z?$CEncrypt@M@@QAEAAMABM@Z ENDP			; CEncrypt<float>::operator-=
_TEXT	ENDS
PUBLIC	??O?$CEncrypt@M@@QAE_NABM@Z			; CEncrypt<float>::operator>
; Function compile flags: /Ogsp
;	COMDAT ??O?$CEncrypt@M@@QAE_NABM@Z
_TEXT	SEGMENT
_value$ = -4						; size = 4
_inValue$ = 8						; size = 4
??O?$CEncrypt@M@@QAE_NABM@Z PROC			; CEncrypt<float>::operator>, COMDAT
; _this$ = ecx

; 1811 : 	{

  00000	55		 push	 ebp
  00001	8b ec		 mov	 ebp, esp
  00003	51		 push	 ecx

; 1812 : 		type value;
; 1813 : 		DecryptValueToPool(&value);

  00004	8d 45 fc	 lea	 eax, DWORD PTR _value$[ebp]
  00007	50		 push	 eax
  00008	e8 00 00 00 00	 call	 ?DecryptValueToPool@?$CEncrypt@M@@QAEXPAM@Z ; CEncrypt<float>::DecryptValueToPool

; 1814 : #ifdef _NOTUSE
; 1815 : 		Debug();
; 1816 : #endif
; 1817 : 		return (value > inValue);

  0000d	8b 45 08	 mov	 eax, DWORD PTR _inValue$[ebp]
  00010	f3 0f 10 08	 movss	 xmm1, DWORD PTR [eax]
  00014	f3 0f 10 45 fc	 movss	 xmm0, DWORD PTR _value$[ebp]
  00019	0f 5a c0	 cvtps2pd xmm0, xmm0
  0001c	0f 5a c9	 cvtps2pd xmm1, xmm1
  0001f	33 c0		 xor	 eax, eax
  00021	66 0f 2f c1	 comisd	 xmm0, xmm1
  00025	76 01		 jbe	 SHORT $LN4@operator@5
  00027	40		 inc	 eax
$LN4@operator@5:

; 1818 : 	}		

  00028	c9		 leave
  00029	c2 04 00	 ret	 4
??O?$CEncrypt@M@@QAE_NABM@Z ENDP			; CEncrypt<float>::operator>
_TEXT	ENDS
PUBLIC	??0?$CEncrypt@K@@QAE@XZ				; CEncrypt<unsigned long>::CEncrypt<unsigned long>
;	COMDAT xdata$x
xdata$x	SEGMENT
__unwindtable$??0?$CEncrypt@K@@QAE@XZ DD 0ffffffffH
	DD	FLAT:__unwindfunclet$??0?$CEncrypt@K@@QAE@XZ$0
__ehfuncinfo$??0?$CEncrypt@K@@QAE@XZ DD 019930522H
	DD	01H
	DD	FLAT:__unwindtable$??0?$CEncrypt@K@@QAE@XZ
	DD	2 DUP(00H)
	DD	2 DUP(00H)
	DD	00H
	DD	01H
; Function compile flags: /Ogsp
xdata$x	ENDS
;	COMDAT ??0?$CEncrypt@K@@QAE@XZ
_TEXT	SEGMENT
_this$ = -16						; size = 4
__$EHRec$ = -12						; size = 12
??0?$CEncrypt@K@@QAE@XZ PROC				; CEncrypt<unsigned long>::CEncrypt<unsigned long>, COMDAT
; _this$ = ecx

; 109  : 	CEncrypt()

  00000	6a 04		 push	 4
  00002	b8 00 00 00 00	 mov	 eax, __ehhandler$??0?$CEncrypt@K@@QAE@XZ
  00007	e8 00 00 00 00	 call	 __EH_prolog3
  0000c	8b f1		 mov	 esi, ecx
  0000e	89 75 f0	 mov	 DWORD PTR _this$[ebp], esi
  00011	8d 4e 0c	 lea	 ecx, DWORD PTR [esi+12]
  00014	c7 06 00 00 00
	00		 mov	 DWORD PTR [esi], OFFSET ??_7?$CEncrypt@K@@6B@
  0001a	e8 00 00 00 00	 call	 ??0ccddaabb@@QAE@XZ	; ccddaabb::ccddaabb
  0001f	83 65 fc 00	 and	 DWORD PTR __$EHRec$[ebp+8], 0

; 110  : 	{
; 111  : 		Init();

  00023	8b ce		 mov	 ecx, esi
  00025	e8 00 00 00 00	 call	 ?Init@?$CEncrypt@K@@AAEXXZ ; CEncrypt<unsigned long>::Init

; 112  : 	}

  0002a	8b c6		 mov	 eax, esi
  0002c	e8 00 00 00 00	 call	 __EH_epilog3
  00031	c3		 ret	 0
_TEXT	ENDS
;	COMDAT text$x
text$x	SEGMENT
__unwindfunclet$??0?$CEncrypt@K@@QAE@XZ$0:
  00000	8b 4d f0	 mov	 ecx, DWORD PTR _this$[ebp]
  00003	83 c1 0c	 add	 ecx, 12			; 0000000cH
  00006	e9 00 00 00 00	 jmp	 ??1ccddaabb@@UAE@XZ	; ccddaabb::~ccddaabb
__ehhandler$??0?$CEncrypt@K@@QAE@XZ:
  0000b	8b 54 24 08	 mov	 edx, DWORD PTR [esp+8]
  0000f	8d 42 0c	 lea	 eax, DWORD PTR [edx+12]
  00012	8b 4a ec	 mov	 ecx, DWORD PTR [edx-20]
  00015	33 c8		 xor	 ecx, eax
  00017	e8 00 00 00 00	 call	 @__security_check_cookie@4
  0001c	b8 00 00 00 00	 mov	 eax, OFFSET __ehfuncinfo$??0?$CEncrypt@K@@QAE@XZ
  00021	e9 00 00 00 00	 jmp	 ___CxxFrameHandler3
text$x	ENDS
??0?$CEncrypt@K@@QAE@XZ ENDP				; CEncrypt<unsigned long>::CEncrypt<unsigned long>
PUBLIC	??B?$CEncrypt@K@@QAEKXZ				; CEncrypt<unsigned long>::operator unsigned long
; Function compile flags: /Ogsp
;	COMDAT ??B?$CEncrypt@K@@QAEKXZ
_TEXT	SEGMENT
_value$ = -4						; size = 4
??B?$CEncrypt@K@@QAEKXZ PROC				; CEncrypt<unsigned long>::operator unsigned long, COMDAT
; _this$ = ecx

; 134  : 	{

  00000	55		 push	 ebp
  00001	8b ec		 mov	 ebp, esp
  00003	51		 push	 ecx

; 135  : 		type value;
; 136  : 		DecryptValueToPool(&value);

  00004	8d 45 fc	 lea	 eax, DWORD PTR _value$[ebp]
  00007	50		 push	 eax
  00008	e8 00 00 00 00	 call	 ?DecryptValueToPool@?$CEncrypt@K@@QAEXPAK@Z ; CEncrypt<unsigned long>::DecryptValueToPool

; 137  : 
; 138  : #ifdef _NOTUSE
; 139  : 		Debug();
; 140  : #endif
; 141  : 		return value;

  0000d	8b 45 fc	 mov	 eax, DWORD PTR _value$[ebp]

; 142  : 	}

  00010	c9		 leave
  00011	c3		 ret	 0
??B?$CEncrypt@K@@QAEKXZ ENDP				; CEncrypt<unsigned long>::operator unsigned long
_TEXT	ENDS
PUBLIC	??4?$CEncrypt@K@@QAEKH@Z			; CEncrypt<unsigned long>::operator=
; Function compile flags: /Ogsp
;	COMDAT ??4?$CEncrypt@K@@QAEKH@Z
_TEXT	SEGMENT
_value$ = 8						; size = 4
_inValue$ = 8						; size = 4
??4?$CEncrypt@K@@QAEKH@Z PROC				; CEncrypt<unsigned long>::operator=, COMDAT
; _this$ = ecx

; 843  : 	{

  00000	55		 push	 ebp
  00001	8b ec		 mov	 ebp, esp

; 844  : 		type value = inValue;

  00003	8b 45 08	 mov	 eax, DWORD PTR _inValue$[ebp]
  00006	89 45 08	 mov	 DWORD PTR _value$[ebp], eax

; 845  : 		EncryptValueToPool((char*)&value);

  00009	8d 45 08	 lea	 eax, DWORD PTR _value$[ebp]
  0000c	50		 push	 eax
  0000d	e8 00 00 00 00	 call	 ?EncryptValueToPool@?$CEncrypt@K@@AAEXPBD@Z ; CEncrypt<unsigned long>::EncryptValueToPool

; 846  : #ifdef _NOTUSE
; 847  : 		m_value = inValue;
; 848  : 		Debug();
; 849  : #endif
; 850  : 		return value;

  00012	8b 45 08	 mov	 eax, DWORD PTR _value$[ebp]

; 851  : 	}

  00015	5d		 pop	 ebp
  00016	c2 04 00	 ret	 4
??4?$CEncrypt@K@@QAEKH@Z ENDP				; CEncrypt<unsigned long>::operator=
_TEXT	ENDS
PUBLIC	??4?$CEncrypt@K@@QAEKK@Z			; CEncrypt<unsigned long>::operator=
; Function compile flags: /Ogsp
;	COMDAT ??4?$CEncrypt@K@@QAEKK@Z
_TEXT	SEGMENT
_value$ = 8						; size = 4
_inValue$ = 8						; size = 4
??4?$CEncrypt@K@@QAEKK@Z PROC				; CEncrypt<unsigned long>::operator=, COMDAT
; _this$ = ecx

; 1262 : 	{

  00000	55		 push	 ebp
  00001	8b ec		 mov	 ebp, esp

; 1263 : 		
; 1264 : 		type value = inValue;

  00003	8b 45 08	 mov	 eax, DWORD PTR _inValue$[ebp]
  00006	89 45 08	 mov	 DWORD PTR _value$[ebp], eax

; 1265 : 		EncryptValueToPool((char*)&value);

  00009	8d 45 08	 lea	 eax, DWORD PTR _value$[ebp]
  0000c	50		 push	 eax
  0000d	e8 00 00 00 00	 call	 ?EncryptValueToPool@?$CEncrypt@K@@AAEXPBD@Z ; CEncrypt<unsigned long>::EncryptValueToPool

; 1266 : #ifdef _NOTUSE
; 1267 : 		m_value = inValue;
; 1268 : 		Debug();
; 1269 : #endif
; 1270 : 		return value;

  00012	8b 45 08	 mov	 eax, DWORD PTR _value$[ebp]

; 1271 : 	}

  00015	5d		 pop	 ebp
  00016	c2 04 00	 ret	 4
??4?$CEncrypt@K@@QAEKK@Z ENDP				; CEncrypt<unsigned long>::operator=
_TEXT	ENDS
PUBLIC	??0?$CEncrypt@_N@@QAE@XZ			; CEncrypt<bool>::CEncrypt<bool>
;	COMDAT xdata$x
xdata$x	SEGMENT
__unwindtable$??0?$CEncrypt@_N@@QAE@XZ DD 0ffffffffH
	DD	FLAT:__unwindfunclet$??0?$CEncrypt@_N@@QAE@XZ$0
__ehfuncinfo$??0?$CEncrypt@_N@@QAE@XZ DD 019930522H
	DD	01H
	DD	FLAT:__unwindtable$??0?$CEncrypt@_N@@QAE@XZ
	DD	2 DUP(00H)
	DD	2 DUP(00H)
	DD	00H
	DD	01H
; Function compile flags: /Ogsp
xdata$x	ENDS
;	COMDAT ??0?$CEncrypt@_N@@QAE@XZ
_TEXT	SEGMENT
_this$ = -16						; size = 4
__$EHRec$ = -12						; size = 12
??0?$CEncrypt@_N@@QAE@XZ PROC				; CEncrypt<bool>::CEncrypt<bool>, COMDAT
; _this$ = ecx

; 109  : 	CEncrypt()

  00000	6a 04		 push	 4
  00002	b8 00 00 00 00	 mov	 eax, __ehhandler$??0?$CEncrypt@_N@@QAE@XZ
  00007	e8 00 00 00 00	 call	 __EH_prolog3
  0000c	8b f1		 mov	 esi, ecx
  0000e	89 75 f0	 mov	 DWORD PTR _this$[ebp], esi
  00011	8d 4e 0c	 lea	 ecx, DWORD PTR [esi+12]
  00014	c7 06 00 00 00
	00		 mov	 DWORD PTR [esi], OFFSET ??_7?$CEncrypt@_N@@6B@
  0001a	e8 00 00 00 00	 call	 ??0ccddaabb@@QAE@XZ	; ccddaabb::ccddaabb
  0001f	83 65 fc 00	 and	 DWORD PTR __$EHRec$[ebp+8], 0

; 110  : 	{
; 111  : 		Init();

  00023	8b ce		 mov	 ecx, esi
  00025	e8 00 00 00 00	 call	 ?Init@?$CEncrypt@_N@@AAEXXZ ; CEncrypt<bool>::Init

; 112  : 	}

  0002a	8b c6		 mov	 eax, esi
  0002c	e8 00 00 00 00	 call	 __EH_epilog3
  00031	c3		 ret	 0
_TEXT	ENDS
;	COMDAT text$x
text$x	SEGMENT
__unwindfunclet$??0?$CEncrypt@_N@@QAE@XZ$0:
  00000	8b 4d f0	 mov	 ecx, DWORD PTR _this$[ebp]
  00003	83 c1 0c	 add	 ecx, 12			; 0000000cH
  00006	e9 00 00 00 00	 jmp	 ??1ccddaabb@@UAE@XZ	; ccddaabb::~ccddaabb
__ehhandler$??0?$CEncrypt@_N@@QAE@XZ:
  0000b	8b 54 24 08	 mov	 edx, DWORD PTR [esp+8]
  0000f	8d 42 0c	 lea	 eax, DWORD PTR [edx+12]
  00012	8b 4a ec	 mov	 ecx, DWORD PTR [edx-20]
  00015	33 c8		 xor	 ecx, eax
  00017	e8 00 00 00 00	 call	 @__security_check_cookie@4
  0001c	b8 00 00 00 00	 mov	 eax, OFFSET __ehfuncinfo$??0?$CEncrypt@_N@@QAE@XZ
  00021	e9 00 00 00 00	 jmp	 ___CxxFrameHandler3
text$x	ENDS
??0?$CEncrypt@_N@@QAE@XZ ENDP				; CEncrypt<bool>::CEncrypt<bool>
PUBLIC	??B?$CEncrypt@_N@@QAE_NXZ			; CEncrypt<bool>::operator bool
; Function compile flags: /Ogsp
;	COMDAT ??B?$CEncrypt@_N@@QAE_NXZ
_TEXT	SEGMENT
_value$ = -1						; size = 1
??B?$CEncrypt@_N@@QAE_NXZ PROC				; CEncrypt<bool>::operator bool, COMDAT
; _this$ = ecx

; 134  : 	{

  00000	55		 push	 ebp
  00001	8b ec		 mov	 ebp, esp
  00003	51		 push	 ecx

; 135  : 		type value;
; 136  : 		DecryptValueToPool(&value);

  00004	8d 45 ff	 lea	 eax, DWORD PTR _value$[ebp]
  00007	50		 push	 eax
  00008	e8 00 00 00 00	 call	 ?DecryptValueToPool@?$CEncrypt@_N@@QAEXPA_N@Z ; CEncrypt<bool>::DecryptValueToPool

; 137  : 
; 138  : #ifdef _NOTUSE
; 139  : 		Debug();
; 140  : #endif
; 141  : 		return value;

  0000d	8a 45 ff	 mov	 al, BYTE PTR _value$[ebp]

; 142  : 	}

  00010	c9		 leave
  00011	c3		 ret	 0
??B?$CEncrypt@_N@@QAE_NXZ ENDP				; CEncrypt<bool>::operator bool
_TEXT	ENDS
PUBLIC	??4?$CEncrypt@_N@@QAE_N_N@Z			; CEncrypt<bool>::operator=
; Function compile flags: /Ogsp
;	COMDAT ??4?$CEncrypt@_N@@QAE_N_N@Z
_TEXT	SEGMENT
_inValue$ = 8						; size = 1
_value$ = 11						; size = 1
??4?$CEncrypt@_N@@QAE_N_N@Z PROC			; CEncrypt<bool>::operator=, COMDAT
; _this$ = ecx

; 225  : 	{

  00000	55		 push	 ebp
  00001	8b ec		 mov	 ebp, esp

; 226  : 		type value = inValue;

  00003	8a 45 08	 mov	 al, BYTE PTR _inValue$[ebp]
  00006	88 45 0b	 mov	 BYTE PTR _value$[ebp], al

; 227  : 		EncryptValueToPool((char*)&value);

  00009	8d 45 0b	 lea	 eax, DWORD PTR _value$[ebp]
  0000c	50		 push	 eax
  0000d	e8 00 00 00 00	 call	 ?EncryptValueToPool@?$CEncrypt@_N@@AAEXPBD@Z ; CEncrypt<bool>::EncryptValueToPool

; 228  : #ifdef _NOTUSE
; 229  : 		m_value = inValue;
; 230  : 		Debug();
; 231  : #endif
; 232  : 		return value;

  00012	8a 45 0b	 mov	 al, BYTE PTR _value$[ebp]

; 233  : 	}

  00015	5d		 pop	 ebp
  00016	c2 04 00	 ret	 4
??4?$CEncrypt@_N@@QAE_N_N@Z ENDP			; CEncrypt<bool>::operator=
_TEXT	ENDS
PUBLIC	??B?$CEncrypt@W4TeamType@@@@QBE?AW4TeamType@@XZ	; CEncrypt<enum TeamType>::operator enum TeamType
; Function compile flags: /Ogsp
;	COMDAT ??B?$CEncrypt@W4TeamType@@@@QBE?AW4TeamType@@XZ
_TEXT	SEGMENT
_value$ = -4						; size = 4
??B?$CEncrypt@W4TeamType@@@@QBE?AW4TeamType@@XZ PROC	; CEncrypt<enum TeamType>::operator enum TeamType, COMDAT
; _this$ = ecx

; 145  : 	{

  00000	55		 push	 ebp
  00001	8b ec		 mov	 ebp, esp
  00003	51		 push	 ecx

; 146  : 		//UJ 130829, const    --start
; 147  : 		type value;
; 148  : 		CEncrypt<type>* pThis = const_cast<CEncrypt<type>*>(this);
; 149  : 		pThis->DecryptValueToPool(&value);

  00004	8d 45 fc	 lea	 eax, DWORD PTR _value$[ebp]
  00007	50		 push	 eax
  00008	e8 00 00 00 00	 call	 ?DecryptValueToPool@?$CEncrypt@W4TeamType@@@@QAEXPAW4TeamType@@@Z ; CEncrypt<enum TeamType>::DecryptValueToPool

; 150  : 		//// const DecryptValueToPool     .
; 151  :  		//type value;
; 152  : 		//char szTempMem[MAX_ENCRYPT];
; 153  : 		//m_RC5.DecryptByte( m_MemPool, szTempMem, max(m_ValueSize, DEFAULT_ENCRYPT) );
; 154  : 		//memcpy( &value, szTempMem, m_ValueSize );
; 155  : 		//UJ --end
; 156  : 
; 157  : #ifdef _NOTUSE
; 158  : 		Debug();
; 159  : #endif
; 160  : 		return value;

  0000d	8b 45 fc	 mov	 eax, DWORD PTR _value$[ebp]

; 161  : 	}

  00010	c9		 leave
  00011	c3		 ret	 0
??B?$CEncrypt@W4TeamType@@@@QBE?AW4TeamType@@XZ ENDP	; CEncrypt<enum TeamType>::operator enum TeamType
_TEXT	ENDS
PUBLIC	?_Eos@?$basic_string@DU?$char_traits@D@std@@V?$allocator@D@2@@std@@QAEXI@Z ; std::basic_string<char,std::char_traits<char>,std::allocator<char> >::_Eos
; Function compile flags: /Ogsp
; File c:\program files (x86)\microsoft visual studio 10.0\vc\include\xstring
;	COMDAT ?_Eos@?$basic_string@DU?$char_traits@D@std@@V?$allocator@D@2@@std@@QAEXI@Z
_TEXT	SEGMENT
__Newsize$ = 8						; size = 4
?_Eos@?$basic_string@DU?$char_traits@D@std@@V?$allocator@D@2@@std@@QAEXI@Z PROC ; std::basic_string<char,std::char_traits<char>,std::allocator<char> >::_Eos, COMDAT
; _this$ = ecx

; 1953 : 		{	// set new length and null terminator

  00000	55		 push	 ebp
  00001	8b ec		 mov	 ebp, esp

; 1954 : 		_Traits::assign(_Myptr()[this->_Mysize = _Newsize], _Elem());

  00003	83 79 14 10	 cmp	 DWORD PTR [ecx+20], 16	; 00000010H
  00007	8b 45 08	 mov	 eax, DWORD PTR __Newsize$[ebp]
  0000a	89 41 10	 mov	 DWORD PTR [ecx+16], eax
  0000d	72 02		 jb	 SHORT $LN5@Eos
  0000f	8b 09		 mov	 ecx, DWORD PTR [ecx]
$LN5@Eos:
  00011	c6 04 01 00	 mov	 BYTE PTR [ecx+eax], 0

; 1955 : 		}

  00015	5d		 pop	 ebp
  00016	c2 04 00	 ret	 4
?_Eos@?$basic_string@DU?$char_traits@D@std@@V?$allocator@D@2@@std@@QAEXI@Z ENDP ; std::basic_string<char,std::char_traits<char>,std::allocator<char> >::_Eos
_TEXT	ENDS
PUBLIC	??0ioControlMeshWeapon@@QAE@PAVioBaseChar@@PBUWeaponAttribute@@@Z ; ioControlMeshWeapon::ioControlMeshWeapon
EXTRN	?SetPeculiarity@ioWeapon@@QAEXK@Z:PROC		; ioWeapon::SetPeculiarity
EXTRN	__imp_??0ioOrientBox@@QAE@XZ:PROC
EXTRN	??0ioWeapon@@QAE@PAVioBaseChar@@PBUWeaponAttribute@@@Z:PROC ; ioWeapon::ioWeapon
;	COMDAT xdata$x
; File d:\lost saga for developer\youtube\tutorial\source\src\lsclient\encryptvalue.h
xdata$x	SEGMENT
__ehfuncinfo$??0ioControlMeshWeapon@@QAE@PAVioBaseChar@@PBUWeaponAttribute@@@Z DD 019930522H
	DD	018H
	DD	FLAT:__unwindtable$??0ioControlMeshWeapon@@QAE@PAVioBaseChar@@PBUWeaponAttribute@@@Z
	DD	2 DUP(00H)
	DD	2 DUP(00H)
	DD	00H
	DD	01H
__unwindtable$??0ioControlMeshWeapon@@QAE@PAVioBaseChar@@PBUWeaponAttribute@@@Z DD 0ffffffffH
	DD	FLAT:__unwindfunclet$??0ioControlMeshWeapon@@QAE@PAVioBaseChar@@PBUWeaponAttribute@@@Z$0
	DD	00H
	DD	FLAT:__unwindfunclet$??0ioControlMeshWeapon@@QAE@PAVioBaseChar@@PBUWeaponAttribute@@@Z$1
	DD	01H
	DD	FLAT:__unwindfunclet$??0ioControlMeshWeapon@@QAE@PAVioBaseChar@@PBUWeaponAttribute@@@Z$2
	DD	02H
	DD	FLAT:__unwindfunclet$??0ioControlMeshWeapon@@QAE@PAVioBaseChar@@PBUWeaponAttribute@@@Z$3
	DD	03H
	DD	FLAT:__unwindfunclet$??0ioControlMeshWeapon@@QAE@PAVioBaseChar@@PBUWeaponAttribute@@@Z$4
	DD	04H
	DD	FLAT:__unwindfunclet$??0ioControlMeshWeapon@@QAE@PAVioBaseChar@@PBUWeaponAttribute@@@Z$5
	DD	05H
	DD	FLAT:__unwindfunclet$??0ioControlMeshWeapon@@QAE@PAVioBaseChar@@PBUWeaponAttribute@@@Z$6
	DD	06H
	DD	FLAT:__unwindfunclet$??0ioControlMeshWeapon@@QAE@PAVioBaseChar@@PBUWeaponAttribute@@@Z$7
	DD	07H
	DD	FLAT:__unwindfunclet$??0ioControlMeshWeapon@@QAE@PAVioBaseChar@@PBUWeaponAttribute@@@Z$8
	DD	08H
	DD	FLAT:__unwindfunclet$??0ioControlMeshWeapon@@QAE@PAVioBaseChar@@PBUWeaponAttribute@@@Z$9
	DD	09H
	DD	FLAT:__unwindfunclet$??0ioControlMeshWeapon@@QAE@PAVioBaseChar@@PBUWeaponAttribute@@@Z$10
	DD	0aH
	DD	FLAT:__unwindfunclet$??0ioControlMeshWeapon@@QAE@PAVioBaseChar@@PBUWeaponAttribute@@@Z$11
	DD	0bH
	DD	FLAT:__unwindfunclet$??0ioControlMeshWeapon@@QAE@PAVioBaseChar@@PBUWeaponAttribute@@@Z$12
	DD	0cH
	DD	FLAT:__unwindfunclet$??0ioControlMeshWeapon@@QAE@PAVioBaseChar@@PBUWeaponAttribute@@@Z$13
	DD	0dH
	DD	FLAT:__unwindfunclet$??0ioControlMeshWeapon@@QAE@PAVioBaseChar@@PBUWeaponAttribute@@@Z$14
	DD	0eH
	DD	FLAT:__unwindfunclet$??0ioControlMeshWeapon@@QAE@PAVioBaseChar@@PBUWeaponAttribute@@@Z$15
	DD	0fH
	DD	FLAT:__unwindfunclet$??0ioControlMeshWeapon@@QAE@PAVioBaseChar@@PBUWeaponAttribute@@@Z$16
	DD	010H
	DD	FLAT:__unwindfunclet$??0ioControlMeshWeapon@@QAE@PAVioBaseChar@@PBUWeaponAttribute@@@Z$17
	DD	011H
	DD	FLAT:__unwindfunclet$??0ioControlMeshWeapon@@QAE@PAVioBaseChar@@PBUWeaponAttribute@@@Z$18
	DD	012H
	DD	FLAT:__unwindfunclet$??0ioControlMeshWeapon@@QAE@PAVioBaseChar@@PBUWeaponAttribute@@@Z$19
	DD	013H
	DD	FLAT:__unwindfunclet$??0ioControlMeshWeapon@@QAE@PAVioBaseChar@@PBUWeaponAttribute@@@Z$20
	DD	014H
	DD	FLAT:__unwindfunclet$??0ioControlMeshWeapon@@QAE@PAVioBaseChar@@PBUWeaponAttribute@@@Z$21
	DD	015H
	DD	FLAT:__unwindfunclet$??0ioControlMeshWeapon@@QAE@PAVioBaseChar@@PBUWeaponAttribute@@@Z$22
	DD	016H
	DD	FLAT:__unwindfunclet$??0ioControlMeshWeapon@@QAE@PAVioBaseChar@@PBUWeaponAttribute@@@Z$23
; Function compile flags: /Ogsp
; File d:\lost saga for developer\youtube\tutorial\source\src\lsclient\iocontrolmeshweapon.cpp
xdata$x	ENDS
;	COMDAT ??0ioControlMeshWeapon@@QAE@PAVioBaseChar@@PBUWeaponAttribute@@@Z
_TEXT	SEGMENT
_this$ = -16						; size = 4
__$EHRec$ = -12						; size = 12
_pOwner$ = 8						; size = 4
_value$534462 = 12					; size = 4
_value$534458 = 12					; size = 4
_value$534454 = 12					; size = 4
_value$534450 = 12					; size = 4
_value$534446 = 12					; size = 4
_value$534442 = 12					; size = 4
_pAttr$ = 12						; size = 4
??0ioControlMeshWeapon@@QAE@PAVioBaseChar@@PBUWeaponAttribute@@@Z PROC ; ioControlMeshWeapon::ioControlMeshWeapon, COMDAT
; _this$ = ecx

; 14   : {

  00000	6a 04		 push	 4
  00002	b8 00 00 00 00	 mov	 eax, __ehhandler$??0ioControlMeshWeapon@@QAE@PAVioBaseChar@@PBUWeaponAttribute@@@Z
  00007	e8 00 00 00 00	 call	 __EH_prolog3
  0000c	8b f1		 mov	 esi, ecx
  0000e	89 75 f0	 mov	 DWORD PTR _this$[ebp], esi
  00011	ff 75 0c	 push	 DWORD PTR _pAttr$[ebp]
  00014	ff 75 08	 push	 DWORD PTR _pOwner$[ebp]
  00017	e8 00 00 00 00	 call	 ??0ioWeapon@@QAE@PAVioBaseChar@@PBUWeaponAttribute@@@Z ; ioWeapon::ioWeapon
  0001c	33 db		 xor	 ebx, ebx
  0001e	8d 8e 98 08 00
	00		 lea	 ecx, DWORD PTR [esi+2200]
  00024	89 5d fc	 mov	 DWORD PTR __$EHRec$[ebp+8], ebx
  00027	c7 06 00 00 00
	00		 mov	 DWORD PTR [esi], OFFSET ??_7ioControlMeshWeapon@@6B@
  0002d	ff 15 00 00 00
	00		 call	 DWORD PTR __imp_??0ioOrientBox@@QAE@XZ
  00033	8b 3d 00 00 00
	00		 mov	 edi, DWORD PTR __imp_??0ioHashString@@QAE@XZ
  00039	8d 8e ec 08 00
	00		 lea	 ecx, DWORD PTR [esi+2284]
  0003f	c6 45 fc 01	 mov	 BYTE PTR __$EHRec$[ebp+8], 1
  00043	ff d7		 call	 edi
  00045	8d 8e fc 08 00
	00		 lea	 ecx, DWORD PTR [esi+2300]
  0004b	c6 45 fc 02	 mov	 BYTE PTR __$EHRec$[ebp+8], 2
  0004f	ff d7		 call	 edi
  00051	8d 8e 1c 09 00
	00		 lea	 ecx, DWORD PTR [esi+2332]
  00057	c6 45 fc 03	 mov	 BYTE PTR __$EHRec$[ebp+8], 3
  0005b	e8 00 00 00 00	 call	 ??0?$CEncrypt@M@@QAE@XZ	; CEncrypt<float>::CEncrypt<float>
  00060	8d 8e 4c 09 00
	00		 lea	 ecx, DWORD PTR [esi+2380]
  00066	c6 45 fc 04	 mov	 BYTE PTR __$EHRec$[ebp+8], 4
  0006a	e8 00 00 00 00	 call	 ??0?$CEncrypt@M@@QAE@XZ	; CEncrypt<float>::CEncrypt<float>
  0006f	8d 8e 7c 09 00
	00		 lea	 ecx, DWORD PTR [esi+2428]
  00075	c6 45 fc 05	 mov	 BYTE PTR __$EHRec$[ebp+8], 5
  00079	e8 00 00 00 00	 call	 ??0?$CEncrypt@M@@QAE@XZ	; CEncrypt<float>::CEncrypt<float>
  0007e	8d 8e ac 09 00
	00		 lea	 ecx, DWORD PTR [esi+2476]
  00084	c6 45 fc 06	 mov	 BYTE PTR __$EHRec$[ebp+8], 6
  00088	e8 00 00 00 00	 call	 ??0?$CEncrypt@M@@QAE@XZ	; CEncrypt<float>::CEncrypt<float>
  0008d	8d 8e dc 09 00
	00		 lea	 ecx, DWORD PTR [esi+2524]
  00093	c6 45 fc 07	 mov	 BYTE PTR __$EHRec$[ebp+8], 7
  00097	e8 00 00 00 00	 call	 ??0?$CEncrypt@M@@QAE@XZ	; CEncrypt<float>::CEncrypt<float>
  0009c	8d 8e 0c 0a 00
	00		 lea	 ecx, DWORD PTR [esi+2572]
  000a2	c6 45 fc 08	 mov	 BYTE PTR __$EHRec$[ebp+8], 8
  000a6	e8 00 00 00 00	 call	 ??0?$CEncrypt@K@@QAE@XZ	; CEncrypt<unsigned long>::CEncrypt<unsigned long>
  000ab	8d 8e 3c 0a 00
	00		 lea	 ecx, DWORD PTR [esi+2620]
  000b1	c6 45 fc 09	 mov	 BYTE PTR __$EHRec$[ebp+8], 9
  000b5	e8 00 00 00 00	 call	 ??0?$CEncrypt@K@@QAE@XZ	; CEncrypt<unsigned long>::CEncrypt<unsigned long>
  000ba	8d 8e 6c 0a 00
	00		 lea	 ecx, DWORD PTR [esi+2668]
  000c0	c6 45 fc 0a	 mov	 BYTE PTR __$EHRec$[ebp+8], 10 ; 0000000aH
  000c4	e8 00 00 00 00	 call	 ??0?$CEncrypt@K@@QAE@XZ	; CEncrypt<unsigned long>::CEncrypt<unsigned long>
  000c9	8d 8e 9c 0a 00
	00		 lea	 ecx, DWORD PTR [esi+2716]
  000cf	c6 45 fc 0b	 mov	 BYTE PTR __$EHRec$[ebp+8], 11 ; 0000000bH
  000d3	e8 00 00 00 00	 call	 ??0?$CEncrypt@K@@QAE@XZ	; CEncrypt<unsigned long>::CEncrypt<unsigned long>
  000d8	8d 8e cc 0a 00
	00		 lea	 ecx, DWORD PTR [esi+2764]
  000de	c6 45 fc 0c	 mov	 BYTE PTR __$EHRec$[ebp+8], 12 ; 0000000cH
  000e2	e8 00 00 00 00	 call	 ??0?$CEncrypt@K@@QAE@XZ	; CEncrypt<unsigned long>::CEncrypt<unsigned long>
  000e7	8d 8e fc 0a 00
	00		 lea	 ecx, DWORD PTR [esi+2812]
  000ed	c6 45 fc 0d	 mov	 BYTE PTR __$EHRec$[ebp+8], 13 ; 0000000dH
  000f1	e8 00 00 00 00	 call	 ??0?$CEncrypt@K@@QAE@XZ	; CEncrypt<unsigned long>::CEncrypt<unsigned long>
  000f6	8d 8e 2c 0b 00
	00		 lea	 ecx, DWORD PTR [esi+2860]
  000fc	c6 45 fc 0e	 mov	 BYTE PTR __$EHRec$[ebp+8], 14 ; 0000000eH
  00100	e8 00 00 00 00	 call	 ??0?$CEncrypt@K@@QAE@XZ	; CEncrypt<unsigned long>::CEncrypt<unsigned long>
  00105	8d 8e 5c 0b 00
	00		 lea	 ecx, DWORD PTR [esi+2908]
  0010b	c6 45 fc 0f	 mov	 BYTE PTR __$EHRec$[ebp+8], 15 ; 0000000fH
  0010f	e8 00 00 00 00	 call	 ??0?$CEncrypt@K@@QAE@XZ	; CEncrypt<unsigned long>::CEncrypt<unsigned long>
  00114	8d 8e 8c 0b 00
	00		 lea	 ecx, DWORD PTR [esi+2956]
  0011a	c6 45 fc 10	 mov	 BYTE PTR __$EHRec$[ebp+8], 16 ; 00000010H
  0011e	e8 00 00 00 00	 call	 ??0?$CEncrypt@K@@QAE@XZ	; CEncrypt<unsigned long>::CEncrypt<unsigned long>
  00123	8d 8e bc 0b 00
	00		 lea	 ecx, DWORD PTR [esi+3004]
  00129	c6 45 fc 11	 mov	 BYTE PTR __$EHRec$[ebp+8], 17 ; 00000011H
  0012d	e8 00 00 00 00	 call	 ??0?$CEncrypt@K@@QAE@XZ	; CEncrypt<unsigned long>::CEncrypt<unsigned long>
  00132	c6 45 fc 12	 mov	 BYTE PTR __$EHRec$[ebp+8], 18 ; 00000012H
  00136	8d 8e f4 0b 00
	00		 lea	 ecx, DWORD PTR [esi+3060]
  0013c	e8 00 00 00 00	 call	 ??0?$CEncrypt@K@@QAE@XZ	; CEncrypt<unsigned long>::CEncrypt<unsigned long>
  00141	8d 8e 28 0c 00
	00		 lea	 ecx, DWORD PTR [esi+3112]
  00147	c6 45 fc 13	 mov	 BYTE PTR __$EHRec$[ebp+8], 19 ; 00000013H
  0014b	e8 00 00 00 00	 call	 ??0?$CEncrypt@_N@@QAE@XZ ; CEncrypt<bool>::CEncrypt<bool>
  00150	8d 8e 58 0c 00
	00		 lea	 ecx, DWORD PTR [esi+3160]
  00156	c6 45 fc 14	 mov	 BYTE PTR __$EHRec$[ebp+8], 20 ; 00000014H
  0015a	e8 00 00 00 00	 call	 ??0?$CEncrypt@_N@@QAE@XZ ; CEncrypt<bool>::CEncrypt<bool>
  0015f	8d 8e 88 0c 00
	00		 lea	 ecx, DWORD PTR [esi+3208]
  00165	c6 45 fc 15	 mov	 BYTE PTR __$EHRec$[ebp+8], 21 ; 00000015H
  00169	ff d7		 call	 edi
  0016b	8d 8e 98 0c 00
	00		 lea	 ecx, DWORD PTR [esi+3224]
  00171	c6 45 fc 16	 mov	 BYTE PTR __$EHRec$[ebp+8], 22 ; 00000016H
  00175	ff d7		 call	 edi

; 15   : 	SetPeculiarity( WP_ATTACK_OWNER | WP_MINE_EXPLOSION | WP_WOUND_NO_SOUND );

  00177	6a 54		 push	 84			; 00000054H
  00179	8b ce		 mov	 ecx, esi
  0017b	c6 45 fc 17	 mov	 BYTE PTR __$EHRec$[ebp+8], 23 ; 00000017H
  0017f	e8 00 00 00 00	 call	 ?SetPeculiarity@ioWeapon@@QAEXK@Z ; ioWeapon::SetPeculiarity

; 16   : 
; 17   : 	m_pMesh = NULL;
; 18   : 	m_State = CS_PRE;
; 19   : 
; 20   : 	m_bResistance = false;
; 21   : 	m_fMoveSpeed = 0.0f;	

  00184	0f 57 c0	 xorps	 xmm0, xmm0
  00187	8d 45 0c	 lea	 eax, DWORD PTR _value$534442[ebp]
  0018a	50		 push	 eax
  0018b	8d 8e ac 09 00
	00		 lea	 ecx, DWORD PTR [esi+2476]
  00191	89 9e e8 08 00
	00		 mov	 DWORD PTR [esi+2280], ebx
  00197	89 9e 94 08 00
	00		 mov	 DWORD PTR [esi+2196], ebx
  0019d	88 9e 3c 06 00
	00		 mov	 BYTE PTR [esi+1596], bl
  001a3	f3 0f 11 45 0c	 movss	 DWORD PTR _value$534442[ebp], xmm0
  001a8	e8 00 00 00 00	 call	 ?EncryptValueToPool@?$CEncrypt@M@@AAEXPBD@Z ; CEncrypt<float>::EncryptValueToPool

; 22   : 
; 23   : 	m_dwKeyInputTime = 0;

  001ad	8d 45 0c	 lea	 eax, DWORD PTR _value$534446[ebp]
  001b0	50		 push	 eax
  001b1	8d 8e 0c 0a 00
	00		 lea	 ecx, DWORD PTR [esi+2572]
  001b7	89 5d 0c	 mov	 DWORD PTR _value$534446[ebp], ebx
  001ba	e8 00 00 00 00	 call	 ?EncryptValueToPool@?$CEncrypt@K@@AAEXPBD@Z ; CEncrypt<unsigned long>::EncryptValueToPool

; 24   : 	m_dwAccelEndTime = 0;

  001bf	8d 45 0c	 lea	 eax, DWORD PTR _value$534450[ebp]
  001c2	50		 push	 eax
  001c3	8d 8e cc 0a 00
	00		 lea	 ecx, DWORD PTR [esi+2764]
  001c9	89 5d 0c	 mov	 DWORD PTR _value$534450[ebp], ebx
  001cc	e8 00 00 00 00	 call	 ?EncryptValueToPool@?$CEncrypt@K@@AAEXPBD@Z ; CEncrypt<unsigned long>::EncryptValueToPool

; 25   : 	m_fCurMoveSpeed = 0.0f;

  001d1	0f 57 c0	 xorps	 xmm0, xmm0
  001d4	8d 45 0c	 lea	 eax, DWORD PTR _value$534454[ebp]
  001d7	50		 push	 eax
  001d8	8d 8e dc 09 00
	00		 lea	 ecx, DWORD PTR [esi+2524]
  001de	f3 0f 11 45 0c	 movss	 DWORD PTR _value$534454[ebp], xmm0
  001e3	e8 00 00 00 00	 call	 ?EncryptValueToPool@?$CEncrypt@M@@AAEXPBD@Z ; CEncrypt<float>::EncryptValueToPool

; 26   : 	m_bTargetRot = false;
; 27   : 	m_CurDirKey = ioUserKeyInput::DKI_NONE;
; 28   : 
; 29   : 	m_dwCurKeyInputGapTime = 0;

  001e8	8d 45 0c	 lea	 eax, DWORD PTR _value$534458[ebp]
  001eb	50		 push	 eax
  001ec	8d 8e 5c 0b 00
	00		 lea	 ecx, DWORD PTR [esi+2908]
  001f2	88 9e f0 0b 00
	00		 mov	 BYTE PTR [esi+3056], bl
  001f8	89 9e ec 0b 00
	00		 mov	 DWORD PTR [esi+3052], ebx
  001fe	89 5d 0c	 mov	 DWORD PTR _value$534458[ebp], ebx
  00201	e8 00 00 00 00	 call	 ?EncryptValueToPool@?$CEncrypt@K@@AAEXPBD@Z ; CEncrypt<unsigned long>::EncryptValueToPool

; 30   : 	m_dwCurMapCollisionDelayTime = 0;

  00206	8d 45 0c	 lea	 eax, DWORD PTR _value$534462[ebp]
  00209	50		 push	 eax
  0020a	8d 8e bc 0b 00
	00		 lea	 ecx, DWORD PTR [esi+3004]
  00210	89 5d 0c	 mov	 DWORD PTR _value$534462[ebp], ebx
  00213	e8 00 00 00 00	 call	 ?EncryptValueToPool@?$CEncrypt@K@@AAEXPBD@Z ; CEncrypt<unsigned long>::EncryptValueToPool

; 31   : 	m_bFirst = true;

  00218	c6 86 a8 0c 00
	00 01		 mov	 BYTE PTR [esi+3240], 1

; 32   : }

  0021f	8b c6		 mov	 eax, esi
  00221	e8 00 00 00 00	 call	 __EH_epilog3
  00226	c2 08 00	 ret	 8
_TEXT	ENDS
;	COMDAT text$x
text$x	SEGMENT
__unwindfunclet$??0ioControlMeshWeapon@@QAE@PAVioBaseChar@@PBUWeaponAttribute@@@Z$0:
  00000	8b 4d f0	 mov	 ecx, DWORD PTR _this$[ebp]
  00003	e9 00 00 00 00	 jmp	 ??1ioWeapon@@UAE@XZ	; ioWeapon::~ioWeapon
__unwindfunclet$??0ioControlMeshWeapon@@QAE@PAVioBaseChar@@PBUWeaponAttribute@@@Z$1:
  00008	8b 4d f0	 mov	 ecx, DWORD PTR _this$[ebp]
  0000b	81 c1 98 08 00
	00		 add	 ecx, 2200		; 00000898H
  00011	ff 25 00 00 00
	00		 jmp	 DWORD PTR __imp_??1ioOrientBox@@QAE@XZ
__unwindfunclet$??0ioControlMeshWeapon@@QAE@PAVioBaseChar@@PBUWeaponAttribute@@@Z$2:
  00017	8b 4d f0	 mov	 ecx, DWORD PTR _this$[ebp]
  0001a	81 c1 ec 08 00
	00		 add	 ecx, 2284		; 000008ecH
  00020	ff 25 00 00 00
	00		 jmp	 DWORD PTR __imp_??1ioHashString@@QAE@XZ
__unwindfunclet$??0ioControlMeshWeapon@@QAE@PAVioBaseChar@@PBUWeaponAttribute@@@Z$3:
  00026	8b 4d f0	 mov	 ecx, DWORD PTR _this$[ebp]
  00029	81 c1 fc 08 00
	00		 add	 ecx, 2300		; 000008fcH
  0002f	ff 25 00 00 00
	00		 jmp	 DWORD PTR __imp_??1ioHashString@@QAE@XZ
__unwindfunclet$??0ioControlMeshWeapon@@QAE@PAVioBaseChar@@PBUWeaponAttribute@@@Z$4:
  00035	8b 4d f0	 mov	 ecx, DWORD PTR _this$[ebp]
  00038	81 c1 1c 09 00
	00		 add	 ecx, 2332		; 0000091cH
  0003e	e9 00 00 00 00	 jmp	 ??1?$CEncrypt@M@@UAE@XZ	; CEncrypt<float>::~CEncrypt<float>
__unwindfunclet$??0ioControlMeshWeapon@@QAE@PAVioBaseChar@@PBUWeaponAttribute@@@Z$5:
  00043	8b 4d f0	 mov	 ecx, DWORD PTR _this$[ebp]
  00046	81 c1 4c 09 00
	00		 add	 ecx, 2380		; 0000094cH
  0004c	e9 00 00 00 00	 jmp	 ??1?$CEncrypt@M@@UAE@XZ	; CEncrypt<float>::~CEncrypt<float>
__unwindfunclet$??0ioControlMeshWeapon@@QAE@PAVioBaseChar@@PBUWeaponAttribute@@@Z$6:
  00051	8b 4d f0	 mov	 ecx, DWORD PTR _this$[ebp]
  00054	81 c1 7c 09 00
	00		 add	 ecx, 2428		; 0000097cH
  0005a	e9 00 00 00 00	 jmp	 ??1?$CEncrypt@M@@UAE@XZ	; CEncrypt<float>::~CEncrypt<float>
__unwindfunclet$??0ioControlMeshWeapon@@QAE@PAVioBaseChar@@PBUWeaponAttribute@@@Z$7:
  0005f	8b 4d f0	 mov	 ecx, DWORD PTR _this$[ebp]
  00062	81 c1 ac 09 00
	00		 add	 ecx, 2476		; 000009acH
  00068	e9 00 00 00 00	 jmp	 ??1?$CEncrypt@M@@UAE@XZ	; CEncrypt<float>::~CEncrypt<float>
__unwindfunclet$??0ioControlMeshWeapon@@QAE@PAVioBaseChar@@PBUWeaponAttribute@@@Z$8:
  0006d	8b 4d f0	 mov	 ecx, DWORD PTR _this$[ebp]
  00070	81 c1 dc 09 00
	00		 add	 ecx, 2524		; 000009dcH
  00076	e9 00 00 00 00	 jmp	 ??1?$CEncrypt@M@@UAE@XZ	; CEncrypt<float>::~CEncrypt<float>
__unwindfunclet$??0ioControlMeshWeapon@@QAE@PAVioBaseChar@@PBUWeaponAttribute@@@Z$9:
  0007b	8b 4d f0	 mov	 ecx, DWORD PTR _this$[ebp]
  0007e	81 c1 0c 0a 00
	00		 add	 ecx, 2572		; 00000a0cH
  00084	e9 00 00 00 00	 jmp	 ??1?$CEncrypt@K@@UAE@XZ	; CEncrypt<unsigned long>::~CEncrypt<unsigned long>
__unwindfunclet$??0ioControlMeshWeapon@@QAE@PAVioBaseChar@@PBUWeaponAttribute@@@Z$10:
  00089	8b 4d f0	 mov	 ecx, DWORD PTR _this$[ebp]
  0008c	81 c1 3c 0a 00
	00		 add	 ecx, 2620		; 00000a3cH
  00092	e9 00 00 00 00	 jmp	 ??1?$CEncrypt@K@@UAE@XZ	; CEncrypt<unsigned long>::~CEncrypt<unsigned long>
__unwindfunclet$??0ioControlMeshWeapon@@QAE@PAVioBaseChar@@PBUWeaponAttribute@@@Z$11:
  00097	8b 4d f0	 mov	 ecx, DWORD PTR _this$[ebp]
  0009a	81 c1 6c 0a 00
	00		 add	 ecx, 2668		; 00000a6cH
  000a0	e9 00 00 00 00	 jmp	 ??1?$CEncrypt@K@@UAE@XZ	; CEncrypt<unsigned long>::~CEncrypt<unsigned long>
__unwindfunclet$??0ioControlMeshWeapon@@QAE@PAVioBaseChar@@PBUWeaponAttribute@@@Z$12:
  000a5	8b 4d f0	 mov	 ecx, DWORD PTR _this$[ebp]
  000a8	81 c1 9c 0a 00
	00		 add	 ecx, 2716		; 00000a9cH
  000ae	e9 00 00 00 00	 jmp	 ??1?$CEncrypt@K@@UAE@XZ	; CEncrypt<unsigned long>::~CEncrypt<unsigned long>
__unwindfunclet$??0ioControlMeshWeapon@@QAE@PAVioBaseChar@@PBUWeaponAttribute@@@Z$13:
  000b3	8b 4d f0	 mov	 ecx, DWORD PTR _this$[ebp]
  000b6	81 c1 cc 0a 00
	00		 add	 ecx, 2764		; 00000accH
  000bc	e9 00 00 00 00	 jmp	 ??1?$CEncrypt@K@@UAE@XZ	; CEncrypt<unsigned long>::~CEncrypt<unsigned long>
__unwindfunclet$??0ioControlMeshWeapon@@QAE@PAVioBaseChar@@PBUWeaponAttribute@@@Z$14:
  000c1	8b 4d f0	 mov	 ecx, DWORD PTR _this$[ebp]
  000c4	81 c1 fc 0a 00
	00		 add	 ecx, 2812		; 00000afcH
  000ca	e9 00 00 00 00	 jmp	 ??1?$CEncrypt@K@@UAE@XZ	; CEncrypt<unsigned long>::~CEncrypt<unsigned long>
__unwindfunclet$??0ioControlMeshWeapon@@QAE@PAVioBaseChar@@PBUWeaponAttribute@@@Z$15:
  000cf	8b 4d f0	 mov	 ecx, DWORD PTR _this$[ebp]
  000d2	81 c1 2c 0b 00
	00		 add	 ecx, 2860		; 00000b2cH
  000d8	e9 00 00 00 00	 jmp	 ??1?$CEncrypt@K@@UAE@XZ	; CEncrypt<unsigned long>::~CEncrypt<unsigned long>
__unwindfunclet$??0ioControlMeshWeapon@@QAE@PAVioBaseChar@@PBUWeaponAttribute@@@Z$16:
  000dd	8b 4d f0	 mov	 ecx, DWORD PTR _this$[ebp]
  000e0	81 c1 5c 0b 00
	00		 add	 ecx, 2908		; 00000b5cH
  000e6	e9 00 00 00 00	 jmp	 ??1?$CEncrypt@K@@UAE@XZ	; CEncrypt<unsigned long>::~CEncrypt<unsigned long>
__unwindfunclet$??0ioControlMeshWeapon@@QAE@PAVioBaseChar@@PBUWeaponAttribute@@@Z$17:
  000eb	8b 4d f0	 mov	 ecx, DWORD PTR _this$[ebp]
  000ee	81 c1 8c 0b 00
	00		 add	 ecx, 2956		; 00000b8cH
  000f4	e9 00 00 00 00	 jmp	 ??1?$CEncrypt@K@@UAE@XZ	; CEncrypt<unsigned long>::~CEncrypt<unsigned long>
__unwindfunclet$??0ioControlMeshWeapon@@QAE@PAVioBaseChar@@PBUWeaponAttribute@@@Z$18:
  000f9	8b 4d f0	 mov	 ecx, DWORD PTR _this$[ebp]
  000fc	81 c1 bc 0b 00
	00		 add	 ecx, 3004		; 00000bbcH
  00102	e9 00 00 00 00	 jmp	 ??1?$CEncrypt@K@@UAE@XZ	; CEncrypt<unsigned long>::~CEncrypt<unsigned long>
__unwindfunclet$??0ioControlMeshWeapon@@QAE@PAVioBaseChar@@PBUWeaponAttribute@@@Z$19:
  00107	8b 4d f0	 mov	 ecx, DWORD PTR _this$[ebp]
  0010a	81 c1 f4 0b 00
	00		 add	 ecx, 3060		; 00000bf4H
  00110	e9 00 00 00 00	 jmp	 ??1?$CEncrypt@K@@UAE@XZ	; CEncrypt<unsigned long>::~CEncrypt<unsigned long>
__unwindfunclet$??0ioControlMeshWeapon@@QAE@PAVioBaseChar@@PBUWeaponAttribute@@@Z$20:
  00115	8b 4d f0	 mov	 ecx, DWORD PTR _this$[ebp]
  00118	81 c1 28 0c 00
	00		 add	 ecx, 3112		; 00000c28H
  0011e	e9 00 00 00 00	 jmp	 ??1?$CEncrypt@_N@@UAE@XZ ; CEncrypt<bool>::~CEncrypt<bool>
__unwindfunclet$??0ioControlMeshWeapon@@QAE@PAVioBaseChar@@PBUWeaponAttribute@@@Z$21:
  00123	8b 4d f0	 mov	 ecx, DWORD PTR _this$[ebp]
  00126	81 c1 58 0c 00
	00		 add	 ecx, 3160		; 00000c58H
  0012c	e9 00 00 00 00	 jmp	 ??1?$CEncrypt@_N@@UAE@XZ ; CEncrypt<bool>::~CEncrypt<bool>
__unwindfunclet$??0ioControlMeshWeapon@@QAE@PAVioBaseChar@@PBUWeaponAttribute@@@Z$22:
  00131	8b 4d f0	 mov	 ecx, DWORD PTR _this$[ebp]
  00134	81 c1 88 0c 00
	00		 add	 ecx, 3208		; 00000c88H
  0013a	ff 25 00 00 00
	00		 jmp	 DWORD PTR __imp_??1ioHashString@@QAE@XZ
__unwindfunclet$??0ioControlMeshWeapon@@QAE@PAVioBaseChar@@PBUWeaponAttribute@@@Z$23:
  00140	8b 4d f0	 mov	 ecx, DWORD PTR _this$[ebp]
  00143	81 c1 98 0c 00
	00		 add	 ecx, 3224		; 00000c98H
  00149	ff 25 00 00 00
	00		 jmp	 DWORD PTR __imp_??1ioHashString@@QAE@XZ
__ehhandler$??0ioControlMeshWeapon@@QAE@PAVioBaseChar@@PBUWeaponAttribute@@@Z:
  0014f	8b 54 24 08	 mov	 edx, DWORD PTR [esp+8]
  00153	8d 42 0c	 lea	 eax, DWORD PTR [edx+12]
  00156	8b 4a ec	 mov	 ecx, DWORD PTR [edx-20]
  00159	33 c8		 xor	 ecx, eax
  0015b	e8 00 00 00 00	 call	 @__security_check_cookie@4
  00160	b8 00 00 00 00	 mov	 eax, OFFSET __ehfuncinfo$??0ioControlMeshWeapon@@QAE@PAVioBaseChar@@PBUWeaponAttribute@@@Z
  00165	e9 00 00 00 00	 jmp	 ___CxxFrameHandler3
text$x	ENDS
??0ioControlMeshWeapon@@QAE@PAVioBaseChar@@PBUWeaponAttribute@@@Z ENDP ; ioControlMeshWeapon::ioControlMeshWeapon
; Function compile flags: /Ogsp
;	COMDAT ??_GioControlMeshWeapon@@UAEPAXI@Z
_TEXT	SEGMENT
___flags$ = 8						; size = 4
??_GioControlMeshWeapon@@UAEPAXI@Z PROC			; ioControlMeshWeapon::`scalar deleting destructor', COMDAT
; _this$ = ecx
  00000	55		 push	 ebp
  00001	8b ec		 mov	 ebp, esp
  00003	56		 push	 esi
  00004	8b f1		 mov	 esi, ecx
  00006	e8 00 00 00 00	 call	 ??1ioControlMeshWeapon@@UAE@XZ ; ioControlMeshWeapon::~ioControlMeshWeapon
  0000b	f6 45 08 01	 test	 BYTE PTR ___flags$[ebp], 1
  0000f	74 07		 je	 SHORT $LN1@scalar@4
  00011	56		 push	 esi
  00012	e8 00 00 00 00	 call	 ??3@YAXPAX@Z		; operator delete
  00017	59		 pop	 ecx
$LN1@scalar@4:
  00018	8b c6		 mov	 eax, esi
  0001a	5e		 pop	 esi
  0001b	5d		 pop	 ebp
  0001c	c2 04 00	 ret	 4
??_GioControlMeshWeapon@@UAEPAXI@Z ENDP			; ioControlMeshWeapon::`scalar deleting destructor'
_TEXT	ENDS
PUBLIC	__real@44bb8000
PUBLIC	__real@43480000
PUBLIC	__real@43fa0000
PUBLIC	??_C@_00CNPNBAHC@?$AA@				; `string'
PUBLIC	__$ArrayPad$
EXTRN	__imp_??4ioHashString@@QAEAAV0@PBD@Z:PROC
EXTRN	?LoadProperty@ioWeapon@@UAEXAAVioINILoader@@@Z:PROC ; ioWeapon::LoadProperty
EXTRN	_memset:PROC
;	COMDAT __real@44bb8000
; File d:\lost saga for developer\youtube\tutorial\source\src\lsclient\stringprotect.h
CONST	SEGMENT
__real@44bb8000 DD 044bb8000r			; 1500
CONST	ENDS
;	COMDAT __real@43480000
CONST	SEGMENT
__real@43480000 DD 043480000r			; 200
CONST	ENDS
;	COMDAT __real@43fa0000
CONST	SEGMENT
__real@43fa0000 DD 043fa0000r			; 500
CONST	ENDS
;	COMDAT ??_C@_00CNPNBAHC@?$AA@
CONST	SEGMENT
??_C@_00CNPNBAHC@?$AA@ DB 00H				; `string'
; Function compile flags: /Ogsp
; File d:\lost saga for developer\youtube\tutorial\source\src\lsclient\iocontrolmeshweapon.cpp
CONST	ENDS
;	COMDAT ?LoadProperty@ioControlMeshWeapon@@UAEXAAVioINILoader@@@Z
_TEXT	SEGMENT
_value$535238 = -301					; size = 1
_value$535108 = -301					; size = 1
tv13833 = -300						; size = 4
tv13813 = -300						; size = 4
_value$536022 = -300					; size = 4
_value$535892 = -300					; size = 4
_value$535762 = -300					; size = 4
_value$535632 = -300					; size = 4
_value$535497 = -300					; size = 4
_value$535367 = -300					; size = 4
_value$534978 = -300					; size = 4
_szBuf$ = -296						; size = 260
__k$536293 = -36					; size = 25
__k$536168 = -36					; size = 25
__k$534740 = -36					; size = 27
__k$535125 = -32					; size = 22
__k$534633 = -32					; size = 21
__k$536043 = -28					; size = 18
__k$535779 = -28					; size = 18
__k$535680 = -28					; size = 16
__k$534995 = -28					; size = 17
__k$535909 = -24					; size = 14
__k$535255 = -24					; size = 12
__k$534865 = -24					; size = 13
__k$534490 = -24					; size = 12
__k$535519 = -20					; size = 10
__k$535385 = -20					; size = 10
__$ArrayPad$ = -4					; size = 4
_rkLoader$ = 8						; size = 4
?LoadProperty@ioControlMeshWeapon@@UAEXAAVioINILoader@@@Z PROC ; ioControlMeshWeapon::LoadProperty, COMDAT
; _this$ = ecx

; 76   : {

  00000	55		 push	 ebp
  00001	8b ec		 mov	 ebp, esp
  00003	81 ec 30 01 00
	00		 sub	 esp, 304		; 00000130H
  00009	a1 00 00 00 00	 mov	 eax, DWORD PTR ___security_cookie
  0000e	33 c5		 xor	 eax, ebp
  00010	89 45 fc	 mov	 DWORD PTR __$ArrayPad$[ebp], eax
  00013	53		 push	 ebx
  00014	56		 push	 esi
  00015	57		 push	 edi
  00016	8b 7d 08	 mov	 edi, DWORD PTR _rkLoader$[ebp]

; 77   : 	ioWeapon::LoadProperty( rkLoader );

  00019	57		 push	 edi
  0001a	8b f1		 mov	 esi, ecx
  0001c	e8 00 00 00 00	 call	 ?LoadProperty@ioWeapon@@UAEXAAVioINILoader@@@Z ; ioWeapon::LoadProperty

; 78   : 
; 79   : 	char szBuf[MAX_PATH] = "";

  00021	33 db		 xor	 ebx, ebx
  00023	68 03 01 00 00	 push	 259			; 00000103H
  00028	8d 85 d9 fe ff
	ff		 lea	 eax, DWORD PTR _szBuf$[ebp+1]
  0002e	53		 push	 ebx
  0002f	50		 push	 eax
  00030	88 9d d8 fe ff
	ff		 mov	 BYTE PTR _szBuf$[ebp], bl
  00036	e8 00 00 00 00	 call	 _memset
  0003b	83 c4 0c	 add	 esp, 12			; 0000000cH

; 80   : 
; 81   : 	rkLoader.LoadString_e( "boom_effect", "", szBuf, MAX_PATH );

  0003e	6a 02		 push	 2
  00040	c7 45 e8 8f 83
	84 87		 mov	 DWORD PTR __k$534490[ebp], -2021358705 ; 8784838fH
  00047	c7 45 ec b2 89
	8d 8c		 mov	 DWORD PTR __k$534490[ebp+4], -1936881230 ; 8c8d89b2H
  0004e	8d 45 e8	 lea	 eax, DWORD PTR __k$534490[ebp]
  00051	c7 45 f0 88 8f
	9f 00		 mov	 DWORD PTR __k$534490[ebp+8], 10456968 ; 009f8f88H
  00058	59		 pop	 ecx
$LL106@LoadProper:
  00059	81 30 ed ec eb
	ea		 xor	 DWORD PTR [eax], -353637139 ; eaebecedH
  0005f	83 c0 04	 add	 eax, 4
  00062	49		 dec	 ecx
  00063	75 f4		 jne	 SHORT $LL106@LoadProper
  00065	6a 08		 push	 8
  00067	58		 pop	 eax
$LL103@LoadProper:
  00068	8b c8		 mov	 ecx, eax
  0006a	81 e1 03 00 00
	80		 and	 ecx, -2147483645	; 80000003H
  00070	79 05		 jns	 SHORT $LN1675@LoadProper
  00072	49		 dec	 ecx
  00073	83 c9 fc	 or	 ecx, -4			; fffffffcH
  00076	41		 inc	 ecx
$LN1675@LoadProper:
  00077	b2 ed		 mov	 dl, -19			; ffffffedH
  00079	2a d1		 sub	 dl, cl
  0007b	30 54 05 e8	 xor	 BYTE PTR __k$534490[ebp+eax], dl
  0007f	40		 inc	 eax
  00080	83 f8 0b	 cmp	 eax, 11			; 0000000bH
  00083	7c e3		 jl	 SHORT $LL103@LoadProper
  00085	68 04 01 00 00	 push	 260			; 00000104H
  0008a	8d 85 d8 fe ff
	ff		 lea	 eax, DWORD PTR _szBuf$[ebp]
  00090	50		 push	 eax
  00091	68 00 00 00 00	 push	 OFFSET ??_C@_00CNPNBAHC@?$AA@
  00096	8d 45 e8	 lea	 eax, DWORD PTR __k$534490[ebp]
  00099	50		 push	 eax
  0009a	8b cf		 mov	 ecx, edi
  0009c	ff 15 00 00 00
	00		 call	 DWORD PTR __imp_?LoadStringA@ioINILoader@@QAEXPBD0PADH@Z

; 82   : 	m_szBoomEffect = szBuf;

  000a2	8d 85 d8 fe ff
	ff		 lea	 eax, DWORD PTR _szBuf$[ebp]
  000a8	50		 push	 eax
  000a9	8d 8e ec 08 00
	00		 lea	 ecx, DWORD PTR [esi+2284]
  000af	ff 15 00 00 00
	00		 call	 DWORD PTR __imp_??4ioHashString@@QAEAAV0@PBD@Z
  000b5	6a 05		 push	 5

; 83   : 	rkLoader.LoadString_e( "map_collision_effect", "", szBuf, MAX_PATH );

  000b7	c7 45 e0 80 8d
	9b b5		 mov	 DWORD PTR __k$534633[ebp], -1248096896 ; b59b8d80H
  000be	c7 45 e4 8e 83
	87 86		 mov	 DWORD PTR __k$534633[ebp+4], -2037939314 ; 8687838eH
  000c5	c7 45 e8 84 9f
	82 85		 mov	 DWORD PTR __k$534633[ebp+8], -2055037052 ; 85829f84H
  000cc	c7 45 ec 83 b3
	8e 8c		 mov	 DWORD PTR __k$534633[ebp+12], -1936804989 ; 8c8eb383H
  000d3	c7 45 f0 8b 89
	88 9e		 mov	 DWORD PTR __k$534633[ebp+16], -1635219061 ; 9e88898bH
  000da	8d 45 e0	 lea	 eax, DWORD PTR __k$534633[ebp]
  000dd	88 5d f4	 mov	 BYTE PTR __k$534633[ebp+20], bl
  000e0	59		 pop	 ecx
$LL212@LoadProper:
  000e1	81 30 ed ec eb
	ea		 xor	 DWORD PTR [eax], -353637139 ; eaebecedH
  000e7	83 c0 04	 add	 eax, 4
  000ea	49		 dec	 ecx
  000eb	75 f4		 jne	 SHORT $LL212@LoadProper
  000ed	68 04 01 00 00	 push	 260			; 00000104H
  000f2	8d 85 d8 fe ff
	ff		 lea	 eax, DWORD PTR _szBuf$[ebp]
  000f8	50		 push	 eax
  000f9	68 00 00 00 00	 push	 OFFSET ??_C@_00CNPNBAHC@?$AA@
  000fe	8d 45 e0	 lea	 eax, DWORD PTR __k$534633[ebp]
  00101	50		 push	 eax
  00102	8b cf		 mov	 ecx, edi
  00104	ff 15 00 00 00
	00		 call	 DWORD PTR __imp_?LoadStringA@ioINILoader@@QAEXPBD0PADH@Z

; 84   : 	m_szMapCollisionEffect = szBuf;

  0010a	8d 85 d8 fe ff
	ff		 lea	 eax, DWORD PTR _szBuf$[ebp]
  00110	50		 push	 eax
  00111	8d 8e fc 08 00
	00		 lea	 ecx, DWORD PTR [esi+2300]
  00117	ff 15 00 00 00
	00		 call	 DWORD PTR __imp_??4ioHashString@@QAEAAV0@PBD@Z
  0011d	6a 06		 push	 6

; 85   : 	m_dwMapCollisionDelayTime = rkLoader.LoadFloat_e( "map_collision_effect_delay", 500 );

  0011f	c7 45 dc 80 8d
	9b b5		 mov	 DWORD PTR __k$534740[ebp], -1248096896 ; b59b8d80H
  00126	c7 45 e0 8e 83
	87 86		 mov	 DWORD PTR __k$534740[ebp+4], -2037939314 ; 8687838eH
  0012d	c7 45 e4 84 9f
	82 85		 mov	 DWORD PTR __k$534740[ebp+8], -2055037052 ; 85829f84H
  00134	c7 45 e8 83 b3
	8e 8c		 mov	 DWORD PTR __k$534740[ebp+12], -1936804989 ; 8c8eb383H
  0013b	c7 45 ec 8b 89
	88 9e		 mov	 DWORD PTR __k$534740[ebp+16], -1635219061 ; 9e88898bH
  00142	c7 45 f0 b2 88
	8e 86		 mov	 DWORD PTR __k$534740[ebp+20], -2037479246 ; 868e88b2H
  00149	66 c7 45 f4 8c
	95		 mov	 WORD PTR __k$534740[ebp+24], 38284 ; 0000958cH
  0014f	8d 45 dc	 lea	 eax, DWORD PTR __k$534740[ebp]
  00152	88 5d f6	 mov	 BYTE PTR __k$534740[ebp+26], bl
  00155	59		 pop	 ecx
$LL318@LoadProper:
  00156	81 30 ed ec eb
	ea		 xor	 DWORD PTR [eax], -353637139 ; eaebecedH
  0015c	83 c0 04	 add	 eax, 4
  0015f	49		 dec	 ecx
  00160	75 f4		 jne	 SHORT $LL318@LoadProper
  00162	6a 18		 push	 24			; 00000018H
  00164	58		 pop	 eax
$LL315@LoadProper:
  00165	8b c8		 mov	 ecx, eax
  00167	81 e1 03 00 00
	80		 and	 ecx, -2147483645	; 80000003H
  0016d	79 05		 jns	 SHORT $LN1676@LoadProper
  0016f	49		 dec	 ecx
  00170	83 c9 fc	 or	 ecx, -4			; fffffffcH
  00173	41		 inc	 ecx
$LN1676@LoadProper:
  00174	b2 ed		 mov	 dl, -19			; ffffffedH
  00176	2a d1		 sub	 dl, cl
  00178	30 54 05 dc	 xor	 BYTE PTR __k$534740[ebp+eax], dl
  0017c	40		 inc	 eax
  0017d	83 f8 1a	 cmp	 eax, 26			; 0000001aH
  00180	7c e3		 jl	 SHORT $LL315@LoadProper
  00182	f3 0f 10 05 00
	00 00 00	 movss	 xmm0, DWORD PTR __real@43fa0000
  0018a	51		 push	 ecx
  0018b	8d 45 dc	 lea	 eax, DWORD PTR __k$534740[ebp]
  0018e	f3 0f 11 04 24	 movss	 DWORD PTR [esp], xmm0
  00193	50		 push	 eax
  00194	8b cf		 mov	 ecx, edi
  00196	ff 15 00 00 00
	00		 call	 DWORD PTR __imp_?LoadFloat@ioINILoader@@QAEMPBDM@Z
  0019c	51		 push	 ecx
  0019d	8d 8e 8c 0b 00
	00		 lea	 ecx, DWORD PTR [esi+2956]
  001a3	d9 1c 24	 fstp	 DWORD PTR [esp]
  001a6	e8 00 00 00 00	 call	 ??4?$CEncrypt@K@@QAEKM@Z ; CEncrypt<unsigned long>::operator=
  001ab	6a 03		 push	 3

; 86   : 
; 87   : 	m_dwRotateSpeed = (DWORD)rkLoader.LoadInt_e( "rotate_speed", 0 );

  001ad	c7 45 e8 9f 83
	9f 8b		 mov	 DWORD PTR __k$534865[ebp], -1952480353 ; 8b9f839fH
  001b4	c7 45 ec 99 89
	b4 99		 mov	 DWORD PTR __k$534865[ebp+4], -1716221543 ; 99b48999H
  001bb	c7 45 f0 9d 89
	8e 8e		 mov	 DWORD PTR __k$534865[ebp+8], -1903261283 ; 8e8e899dH
  001c2	8d 45 e8	 lea	 eax, DWORD PTR __k$534865[ebp]
  001c5	88 5d f4	 mov	 BYTE PTR __k$534865[ebp+12], bl
  001c8	59		 pop	 ecx
$LL424@LoadProper:
  001c9	81 30 ed ec eb
	ea		 xor	 DWORD PTR [eax], -353637139 ; eaebecedH
  001cf	83 c0 04	 add	 eax, 4
  001d2	49		 dec	 ecx
  001d3	75 f4		 jne	 SHORT $LL424@LoadProper
  001d5	53		 push	 ebx
  001d6	8d 45 e8	 lea	 eax, DWORD PTR __k$534865[ebp]
  001d9	50		 push	 eax
  001da	8b cf		 mov	 ecx, edi
  001dc	ff 15 00 00 00
	00		 call	 DWORD PTR __imp_?LoadInt@ioINILoader@@QAEHPBDH@Z
  001e2	89 85 d4 fe ff
	ff		 mov	 DWORD PTR _value$534978[ebp], eax
  001e8	8d 85 d4 fe ff
	ff		 lea	 eax, DWORD PTR _value$534978[ebp]
  001ee	50		 push	 eax
  001ef	8d 8e f4 0b 00
	00		 lea	 ecx, DWORD PTR [esi+3060]
  001f5	e8 00 00 00 00	 call	 ?EncryptValueToPool@?$CEncrypt@K@@AAEXPBD@Z ; CEncrypt<unsigned long>::EncryptValueToPool
  001fa	6a 04		 push	 4

; 88   : 
; 89   : 	m_bPlayWoundSound = rkLoader.LoadBool_e( "play_wound_sound", false );

  001fc	c7 45 e4 9d 80
	8a 93		 mov	 DWORD PTR __k$534995[ebp], -1819639651 ; 938a809dH
  00203	c7 45 e8 b2 9b
	84 9f		 mov	 DWORD PTR __k$534995[ebp+4], -1618699342 ; 9f849bb2H
  0020a	c7 45 ec 83 88
	b4 99		 mov	 DWORD PTR __k$534995[ebp+8], -1716221821 ; 99b48883H
  00211	c7 45 f0 82 99
	85 8e		 mov	 DWORD PTR __k$534995[ebp+12], -1903847038 ; 8e859982H
  00218	8d 45 e4	 lea	 eax, DWORD PTR __k$534995[ebp]
  0021b	88 5d f4	 mov	 BYTE PTR __k$534995[ebp+16], bl
  0021e	59		 pop	 ecx
$LL532@LoadProper:
  0021f	81 30 ed ec eb
	ea		 xor	 DWORD PTR [eax], -353637139 ; eaebecedH
  00225	83 c0 04	 add	 eax, 4
  00228	49		 dec	 ecx
  00229	75 f4		 jne	 SHORT $LL532@LoadProper
  0022b	53		 push	 ebx
  0022c	8d 45 e4	 lea	 eax, DWORD PTR __k$534995[ebp]
  0022f	50		 push	 eax
  00230	8b cf		 mov	 ecx, edi
  00232	ff 15 00 00 00
	00		 call	 DWORD PTR __imp_?LoadBool@ioINILoader@@QAE_NPBD_N@Z
  00238	88 85 d3 fe ff
	ff		 mov	 BYTE PTR _value$535108[ebp], al
  0023e	8d 85 d3 fe ff
	ff		 lea	 eax, DWORD PTR _value$535108[ebp]
  00244	50		 push	 eax
  00245	8d 8e 28 0c 00
	00		 lea	 ecx, DWORD PTR [esi+3112]
  0024b	e8 00 00 00 00	 call	 ?EncryptValueToPool@?$CEncrypt@_N@@AAEXPBD@Z ; CEncrypt<bool>::EncryptValueToPool
  00250	6a 05		 push	 5

; 90   : 	m_bDisableMapCollision = rkLoader.LoadBool_e( "disable_map_collision", false );

  00252	c7 45 e0 89 85
	98 8b		 mov	 DWORD PTR __k$535125[ebp], -1952938615 ; 8b988589H
  00259	c7 45 e4 8f 80
	8e b5		 mov	 DWORD PTR __k$535125[ebp+4], -1248952177 ; b58e808fH
  00260	c7 45 e8 80 8d
	9b b5		 mov	 DWORD PTR __k$535125[ebp+8], -1248096896 ; b59b8d80H
  00267	c7 45 ec 8e 83
	87 86		 mov	 DWORD PTR __k$535125[ebp+12], -2037939314 ; 8687838eH
  0026e	c7 45 f0 84 9f
	82 85		 mov	 DWORD PTR __k$535125[ebp+16], -2055037052 ; 85829f84H
  00275	8d 45 e0	 lea	 eax, DWORD PTR __k$535125[ebp]
  00278	66 c7 45 f4 83
	00		 mov	 WORD PTR __k$535125[ebp+20], 131 ; 00000083H
  0027e	59		 pop	 ecx
$LL640@LoadProper:
  0027f	81 30 ed ec eb
	ea		 xor	 DWORD PTR [eax], -353637139 ; eaebecedH
  00285	83 c0 04	 add	 eax, 4
  00288	49		 dec	 ecx
  00289	75 f4		 jne	 SHORT $LL640@LoadProper
  0028b	80 75 f4 ed	 xor	 BYTE PTR __k$535125[ebp+20], -19 ; ffffffedH
  0028f	53		 push	 ebx
  00290	8d 45 e0	 lea	 eax, DWORD PTR __k$535125[ebp]
  00293	50		 push	 eax
  00294	8b cf		 mov	 ecx, edi
  00296	ff 15 00 00 00
	00		 call	 DWORD PTR __imp_?LoadBool@ioINILoader@@QAE_NPBD_N@Z
  0029c	88 85 d3 fe ff
	ff		 mov	 BYTE PTR _value$535238[ebp], al
  002a2	8d 85 d3 fe ff
	ff		 lea	 eax, DWORD PTR _value$535238[ebp]
  002a8	50		 push	 eax
  002a9	8d 8e 58 0c 00
	00		 lea	 ecx, DWORD PTR [esi+3160]
  002af	e8 00 00 00 00	 call	 ?EncryptValueToPool@?$CEncrypt@_N@@AAEXPBD@Z ; CEncrypt<bool>::EncryptValueToPool
  002b4	6a 02		 push	 2

; 91   : 
; 92   : 	m_fAccelSpeed = rkLoader.LoadFloat_e( "accel_speed", 200.0f );

  002b6	c7 45 e8 8c 8f
	88 8f		 mov	 DWORD PTR __k$535255[ebp], -1886875764 ; 8f888f8cH
  002bd	c7 45 ec 81 b3
	98 9a		 mov	 DWORD PTR __k$535255[ebp+4], -1701268607 ; 9a98b381H
  002c4	8d 45 e8	 lea	 eax, DWORD PTR __k$535255[ebp]
  002c7	c7 45 f0 88 89
	8f 00		 mov	 DWORD PTR __k$535255[ebp+8], 9406856 ; 008f8988H
  002ce	59		 pop	 ecx
$LL748@LoadProper:
  002cf	81 30 ed ec eb
	ea		 xor	 DWORD PTR [eax], -353637139 ; eaebecedH
  002d5	83 c0 04	 add	 eax, 4
  002d8	49		 dec	 ecx
  002d9	75 f4		 jne	 SHORT $LL748@LoadProper
  002db	6a 08		 push	 8
  002dd	58		 pop	 eax
$LL745@LoadProper:
  002de	8b c8		 mov	 ecx, eax
  002e0	81 e1 03 00 00
	80		 and	 ecx, -2147483645	; 80000003H
  002e6	79 05		 jns	 SHORT $LN1677@LoadProper
  002e8	49		 dec	 ecx
  002e9	83 c9 fc	 or	 ecx, -4			; fffffffcH
  002ec	41		 inc	 ecx
$LN1677@LoadProper:
  002ed	b2 ed		 mov	 dl, -19			; ffffffedH
  002ef	2a d1		 sub	 dl, cl
  002f1	30 54 05 e8	 xor	 BYTE PTR __k$535255[ebp+eax], dl
  002f5	40		 inc	 eax
  002f6	83 f8 0b	 cmp	 eax, 11			; 0000000bH
  002f9	7c e3		 jl	 SHORT $LL745@LoadProper
  002fb	f3 0f 10 05 00
	00 00 00	 movss	 xmm0, DWORD PTR __real@43480000
  00303	51		 push	 ecx
  00304	8d 45 e8	 lea	 eax, DWORD PTR __k$535255[ebp]
  00307	f3 0f 11 04 24	 movss	 DWORD PTR [esp], xmm0
  0030c	50		 push	 eax
  0030d	8b cf		 mov	 ecx, edi
  0030f	ff 15 00 00 00
	00		 call	 DWORD PTR __imp_?LoadFloat@ioINILoader@@QAEMPBDM@Z
  00315	d9 9d d4 fe ff
	ff		 fstp	 DWORD PTR _value$535367[ebp]
  0031b	8d 85 d4 fe ff
	ff		 lea	 eax, DWORD PTR _value$535367[ebp]
  00321	50		 push	 eax
  00322	8d 8e 1c 09 00
	00		 lea	 ecx, DWORD PTR [esi+2332]
  00328	e8 00 00 00 00	 call	 ?EncryptValueToPool@?$CEncrypt@M@@AAEXPBD@Z ; CEncrypt<float>::EncryptValueToPool
  0032d	6a 02		 push	 2

; 93   : 	m_fMaxSpeed = rkLoader.LoadFloat_e( "max_speed", 1500.0f );

  0032f	c7 45 ec 80 8d
	93 b5		 mov	 DWORD PTR __k$535385[ebp], -1248621184 ; b5938d80H
  00336	c7 45 f0 9e 9c
	8e 8f		 mov	 DWORD PTR __k$535385[ebp+4], -1886479202 ; 8f8e9c9eH
  0033d	8d 45 ec	 lea	 eax, DWORD PTR __k$535385[ebp]
  00340	66 c7 45 f4 89
	00		 mov	 WORD PTR __k$535385[ebp+8], 137 ; 00000089H
  00346	59		 pop	 ecx
$LL856@LoadProper:
  00347	81 30 ed ec eb
	ea		 xor	 DWORD PTR [eax], -353637139 ; eaebecedH
  0034d	83 c0 04	 add	 eax, 4
  00350	49		 dec	 ecx
  00351	75 f4		 jne	 SHORT $LL856@LoadProper
  00353	f3 0f 10 05 00
	00 00 00	 movss	 xmm0, DWORD PTR __real@44bb8000
  0035b	80 75 f4 ed	 xor	 BYTE PTR __k$535385[ebp+8], -19 ; ffffffedH
  0035f	51		 push	 ecx
  00360	8d 45 ec	 lea	 eax, DWORD PTR __k$535385[ebp]
  00363	f3 0f 11 04 24	 movss	 DWORD PTR [esp], xmm0
  00368	50		 push	 eax
  00369	8b cf		 mov	 ecx, edi
  0036b	ff 15 00 00 00
	00		 call	 DWORD PTR __imp_?LoadFloat@ioINILoader@@QAEMPBDM@Z
  00371	d9 9d d4 fe ff
	ff		 fstp	 DWORD PTR _value$535497[ebp]
  00377	8d 85 d4 fe ff
	ff		 lea	 eax, DWORD PTR _value$535497[ebp]
  0037d	50		 push	 eax
  0037e	8d 8e 4c 09 00
	00		 lea	 ecx, DWORD PTR [esi+2380]
  00384	e8 00 00 00 00	 call	 ?EncryptValueToPool@?$CEncrypt@M@@AAEXPBD@Z ; CEncrypt<float>::EncryptValueToPool

; 94   : 	m_fMinSpeed = rkLoader.LoadFloat_e( "min_speed", FLOAT100 );

  00389	b8 64 00 00 00	 mov	 eax, 100		; 00000064H
  0038e	6a 02		 push	 2
  00390	c7 45 ec 80 85
	85 b5		 mov	 DWORD PTR __k$535519[ebp], -1249540736 ; b5858580H
  00397	c7 45 f0 9e 9c
	8e 8f		 mov	 DWORD PTR __k$535519[ebp+4], -1886479202 ; 8f8e9c9eH
  0039e	8d 4d ec	 lea	 ecx, DWORD PTR __k$535519[ebp]
  003a1	66 c7 45 f4 89
	00		 mov	 WORD PTR __k$535519[ebp+8], 137 ; 00000089H
  003a7	5a		 pop	 edx
$LL966@LoadProper:
  003a8	81 31 ed ec eb
	ea		 xor	 DWORD PTR [ecx], -353637139 ; eaebecedH
  003ae	83 c1 04	 add	 ecx, 4
  003b1	4a		 dec	 edx
  003b2	75 f4		 jne	 SHORT $LL966@LoadProper
  003b4	80 75 f4 ed	 xor	 BYTE PTR __k$535519[ebp+8], -19 ; ffffffedH
  003b8	89 85 d4 fe ff
	ff		 mov	 DWORD PTR tv13833[ebp], eax
  003be	db 85 d4 fe ff
	ff		 fild	 DWORD PTR tv13833[ebp]
  003c4	85 c0		 test	 eax, eax
  003c6	79 06		 jns	 SHORT $LN1678@LoadProper
  003c8	d8 05 00 00 00
	00		 fadd	 DWORD PTR __real@4f800000
$LN1678@LoadProper:
  003ce	51		 push	 ecx
  003cf	8d 45 ec	 lea	 eax, DWORD PTR __k$535519[ebp]
  003d2	d9 1c 24	 fstp	 DWORD PTR [esp]
  003d5	50		 push	 eax
  003d6	8b cf		 mov	 ecx, edi
  003d8	ff 15 00 00 00
	00		 call	 DWORD PTR __imp_?LoadFloat@ioINILoader@@QAEMPBDM@Z
  003de	d9 9d d4 fe ff
	ff		 fstp	 DWORD PTR _value$535632[ebp]
  003e4	8d 85 d4 fe ff
	ff		 lea	 eax, DWORD PTR _value$535632[ebp]
  003ea	50		 push	 eax
  003eb	8d 8e 7c 09 00
	00		 lea	 ecx, DWORD PTR [esi+2428]
  003f1	e8 00 00 00 00	 call	 ?EncryptValueToPool@?$CEncrypt@M@@AAEXPBD@Z ; CEncrypt<float>::EncryptValueToPool
  003f6	6a 03		 push	 3

; 95   : 	m_dwAccelKeepTime = rkLoader.LoadInt_e( "accel_keep_time", 500 );

  003f8	c7 45 e4 8c 8f
	88 8f		 mov	 DWORD PTR __k$535680[ebp], -1886875764 ; 8f888f8cH
  003ff	c7 45 e8 81 b3
	80 8f		 mov	 DWORD PTR __k$535680[ebp+4], -1887390847 ; 8f80b381H
  00406	c7 45 ec 88 9c
	b4 9e		 mov	 DWORD PTR __k$535680[ebp+8], -1632330616 ; 9eb49c88H
  0040d	8d 45 e4	 lea	 eax, DWORD PTR __k$535680[ebp]
  00410	c7 45 f0 84 81
	8e 00		 mov	 DWORD PTR __k$535680[ebp+12], 9339268 ; 008e8184H
  00417	59		 pop	 ecx
$LL1074@LoadProper:
  00418	81 30 ed ec eb
	ea		 xor	 DWORD PTR [eax], -353637139 ; eaebecedH
  0041e	83 c0 04	 add	 eax, 4
  00421	49		 dec	 ecx
  00422	75 f4		 jne	 SHORT $LL1074@LoadProper
  00424	6a 0c		 push	 12			; 0000000cH
  00426	58		 pop	 eax
$LL1071@LoadProper:
  00427	8b c8		 mov	 ecx, eax
  00429	81 e1 03 00 00
	80		 and	 ecx, -2147483645	; 80000003H
  0042f	79 05		 jns	 SHORT $LN1679@LoadProper
  00431	49		 dec	 ecx
  00432	83 c9 fc	 or	 ecx, -4			; fffffffcH
  00435	41		 inc	 ecx
$LN1679@LoadProper:
  00436	b2 ed		 mov	 dl, -19			; ffffffedH
  00438	2a d1		 sub	 dl, cl
  0043a	30 54 05 e4	 xor	 BYTE PTR __k$535680[ebp+eax], dl
  0043e	40		 inc	 eax
  0043f	83 f8 0f	 cmp	 eax, 15			; 0000000fH
  00442	7c e3		 jl	 SHORT $LL1071@LoadProper
  00444	68 f4 01 00 00	 push	 500			; 000001f4H
  00449	8d 45 e4	 lea	 eax, DWORD PTR __k$535680[ebp]
  0044c	50		 push	 eax
  0044d	8b cf		 mov	 ecx, edi
  0044f	ff 15 00 00 00
	00		 call	 DWORD PTR __imp_?LoadInt@ioINILoader@@QAEHPBDH@Z
  00455	89 85 d4 fe ff
	ff		 mov	 DWORD PTR _value$535762[ebp], eax
  0045b	8d 85 d4 fe ff
	ff		 lea	 eax, DWORD PTR _value$535762[ebp]
  00461	50		 push	 eax
  00462	8d 8e 3c 0a 00
	00		 lea	 ecx, DWORD PTR [esi+2620]
  00468	e8 00 00 00 00	 call	 ?EncryptValueToPool@?$CEncrypt@K@@AAEXPBD@Z ; CEncrypt<unsigned long>::EncryptValueToPool
  0046d	6a 04		 push	 4

; 96   : 	m_dwKeyInputGapTime = rkLoader.LoadInt_e( "key_input_gaptime", 250 );

  0046f	c7 45 e4 86 89
	92 b5		 mov	 DWORD PTR __k$535779[ebp], -1248687738 ; b5928986H
  00476	c7 45 e8 84 82
	9b 9f		 mov	 DWORD PTR __k$535779[ebp+4], -1617198460 ; 9f9b8284H
  0047d	c7 45 ec 99 b3
	8c 8b		 mov	 DWORD PTR __k$535779[ebp+8], -1953713255 ; 8b8cb399H
  00484	c7 45 f0 9d 98
	82 87		 mov	 DWORD PTR __k$535779[ebp+12], -2021484387 ; 8782989dH
  0048b	8d 45 e4	 lea	 eax, DWORD PTR __k$535779[ebp]
  0048e	66 c7 45 f4 88
	00		 mov	 WORD PTR __k$535779[ebp+16], 136 ; 00000088H
  00494	59		 pop	 ecx
$LL1182@LoadProper:
  00495	81 30 ed ec eb
	ea		 xor	 DWORD PTR [eax], -353637139 ; eaebecedH
  0049b	83 c0 04	 add	 eax, 4
  0049e	49		 dec	 ecx
  0049f	75 f4		 jne	 SHORT $LL1182@LoadProper
  004a1	80 75 f4 ed	 xor	 BYTE PTR __k$535779[ebp+16], -19 ; ffffffedH
  004a5	68 fa 00 00 00	 push	 250			; 000000faH
  004aa	8d 45 e4	 lea	 eax, DWORD PTR __k$535779[ebp]
  004ad	50		 push	 eax
  004ae	8b cf		 mov	 ecx, edi
  004b0	ff 15 00 00 00
	00		 call	 DWORD PTR __imp_?LoadInt@ioINILoader@@QAEHPBDH@Z
  004b6	89 85 d4 fe ff
	ff		 mov	 DWORD PTR _value$535892[ebp], eax
  004bc	8d 85 d4 fe ff
	ff		 lea	 eax, DWORD PTR _value$535892[ebp]
  004c2	50		 push	 eax
  004c3	8d 8e 2c 0b 00
	00		 lea	 ecx, DWORD PTR [esi+2860]
  004c9	e8 00 00 00 00	 call	 ?EncryptValueToPool@?$CEncrypt@K@@AAEXPBD@Z ; CEncrypt<unsigned long>::EncryptValueToPool
  004ce	6a 03		 push	 3

; 97   : 	m_dwAccelUpTime = rkLoader.LoadInt_e( "aceel_up_time", 50 ); 

  004d0	c7 45 e8 8c 8f
	8e 8f		 mov	 DWORD PTR __k$535909[ebp], -1886482548 ; 8f8e8f8cH
  004d7	c7 45 ec 81 b3
	9e 9a		 mov	 DWORD PTR __k$535909[ebp+4], -1700875391 ; 9a9eb381H
  004de	c7 45 f0 b2 98
	82 87		 mov	 DWORD PTR __k$535909[ebp+8], -2021484366 ; 878298b2H
  004e5	8d 45 e8	 lea	 eax, DWORD PTR __k$535909[ebp]
  004e8	66 c7 45 f4 88
	00		 mov	 WORD PTR __k$535909[ebp+12], 136 ; 00000088H
  004ee	59		 pop	 ecx
$LL1290@LoadProper:
  004ef	81 30 ed ec eb
	ea		 xor	 DWORD PTR [eax], -353637139 ; eaebecedH
  004f5	83 c0 04	 add	 eax, 4
  004f8	49		 dec	 ecx
  004f9	75 f4		 jne	 SHORT $LL1290@LoadProper
  004fb	80 75 f4 ed	 xor	 BYTE PTR __k$535909[ebp+12], -19 ; ffffffedH
  004ff	6a 32		 push	 50			; 00000032H
  00501	8d 45 e8	 lea	 eax, DWORD PTR __k$535909[ebp]
  00504	50		 push	 eax
  00505	8b cf		 mov	 ecx, edi
  00507	ff 15 00 00 00
	00		 call	 DWORD PTR __imp_?LoadInt@ioINILoader@@QAEHPBDH@Z
  0050d	89 85 d4 fe ff
	ff		 mov	 DWORD PTR _value$536022[ebp], eax
  00513	8d 85 d4 fe ff
	ff		 lea	 eax, DWORD PTR _value$536022[ebp]
  00519	50		 push	 eax
  0051a	8d 8e fc 0a 00
	00		 lea	 ecx, DWORD PTR [esi+2812]
  00520	e8 00 00 00 00	 call	 ?EncryptValueToPool@?$CEncrypt@K@@AAEXPBD@Z ; CEncrypt<unsigned long>::EncryptValueToPool

; 98   : 
; 99   : 	m_fControlOutRange = rkLoader.LoadFloat_e( "control_out_range", FLOAT1000 );

  00525	b8 e8 03 00 00	 mov	 eax, 1000		; 000003e8H
  0052a	6a 04		 push	 4
  0052c	c7 45 e4 8e 83
	85 9e		 mov	 DWORD PTR __k$536043[ebp], -1635417202 ; 9e85838eH
  00533	c7 45 e8 9f 83
	87 b5		 mov	 DWORD PTR __k$536043[ebp+4], -1249410145 ; b587839fH
  0053a	c7 45 ec 82 99
	9f b5		 mov	 DWORD PTR __k$536043[ebp+8], -1247831678 ; b59f9982H
  00541	c7 45 f0 9f 8d
	85 8d		 mov	 DWORD PTR __k$536043[ebp+12], -1920627297 ; 8d858d9fH
  00548	8d 4d e4	 lea	 ecx, DWORD PTR __k$536043[ebp]
  0054b	66 c7 45 f4 88
	00		 mov	 WORD PTR __k$536043[ebp+16], 136 ; 00000088H
  00551	5a		 pop	 edx
$LL1400@LoadProper:
  00552	81 31 ed ec eb
	ea		 xor	 DWORD PTR [ecx], -353637139 ; eaebecedH
  00558	83 c1 04	 add	 ecx, 4
  0055b	4a		 dec	 edx
  0055c	75 f4		 jne	 SHORT $LL1400@LoadProper
  0055e	80 75 f4 ed	 xor	 BYTE PTR __k$536043[ebp+16], -19 ; ffffffedH
  00562	89 85 d4 fe ff
	ff		 mov	 DWORD PTR tv13813[ebp], eax
  00568	db 85 d4 fe ff
	ff		 fild	 DWORD PTR tv13813[ebp]
  0056e	85 c0		 test	 eax, eax
  00570	79 06		 jns	 SHORT $LN1680@LoadProper
  00572	d8 05 00 00 00
	00		 fadd	 DWORD PTR __real@4f800000
$LN1680@LoadProper:
  00578	51		 push	 ecx
  00579	8d 45 e4	 lea	 eax, DWORD PTR __k$536043[ebp]
  0057c	d9 1c 24	 fstp	 DWORD PTR [esp]
  0057f	50		 push	 eax
  00580	8b cf		 mov	 ecx, edi
  00582	ff 15 00 00 00
	00		 call	 DWORD PTR __imp_?LoadFloat@ioINILoader@@QAEMPBDM@Z
  00588	d9 9e 18 09 00
	00		 fstp	 DWORD PTR [esi+2328]
  0058e	6a 06		 push	 6

; 100  : 
; 101  : 	rkLoader.LoadString_e( "owner_team_weapon_effect", "", szBuf, MAX_PATH );

  00590	c7 45 dc 82 9b
	85 8f		 mov	 DWORD PTR __k$536168[ebp], -1887069310 ; 8f859b82H
  00597	c7 45 e0 9f b3
	9f 8f		 mov	 DWORD PTR __k$536168[ebp+4], -1885359201 ; 8f9fb39fH
  0059e	c7 45 e4 8c 81
	b4 9d		 mov	 DWORD PTR __k$536168[ebp+8], -1649114740 ; 9db4818cH
  005a5	c7 45 e8 88 8d
	9b 85		 mov	 DWORD PTR __k$536168[ebp+12], -2053403256 ; 859b8d88H
  005ac	c7 45 ec 83 b3
	8e 8c		 mov	 DWORD PTR __k$536168[ebp+16], -1936804989 ; 8c8eb383H
  005b3	c7 45 f0 8b 89
	88 9e		 mov	 DWORD PTR __k$536168[ebp+20], -1635219061 ; 9e88898bH
  005ba	8d 45 dc	 lea	 eax, DWORD PTR __k$536168[ebp]
  005bd	88 5d f4	 mov	 BYTE PTR __k$536168[ebp+24], bl
  005c0	59		 pop	 ecx
$LL1506@LoadProper:
  005c1	81 30 ed ec eb
	ea		 xor	 DWORD PTR [eax], -353637139 ; eaebecedH
  005c7	83 c0 04	 add	 eax, 4
  005ca	49		 dec	 ecx
  005cb	75 f4		 jne	 SHORT $LL1506@LoadProper
  005cd	68 04 01 00 00	 push	 260			; 00000104H
  005d2	8d 85 d8 fe ff
	ff		 lea	 eax, DWORD PTR _szBuf$[ebp]
  005d8	50		 push	 eax
  005d9	68 00 00 00 00	 push	 OFFSET ??_C@_00CNPNBAHC@?$AA@
  005de	8d 45 dc	 lea	 eax, DWORD PTR __k$536168[ebp]
  005e1	50		 push	 eax
  005e2	8b cf		 mov	 ecx, edi
  005e4	ff 15 00 00 00
	00		 call	 DWORD PTR __imp_?LoadStringA@ioINILoader@@QAEXPBD0PADH@Z

; 102  : 	m_szOwnerTeamWeaponEffect = szBuf;

  005ea	8d 85 d8 fe ff
	ff		 lea	 eax, DWORD PTR _szBuf$[ebp]
  005f0	50		 push	 eax
  005f1	8d 8e 88 0c 00
	00		 lea	 ecx, DWORD PTR [esi+3208]
  005f7	ff 15 00 00 00
	00		 call	 DWORD PTR __imp_??4ioHashString@@QAEAAV0@PBD@Z
  005fd	6a 06		 push	 6

; 103  : 	rkLoader.LoadString_e( "other_team_weapon_effect", "", szBuf, MAX_PATH );

  005ff	c7 45 dc 82 98
	83 8f		 mov	 DWORD PTR __k$536293[ebp], -1887201150 ; 8f839882H
  00606	c7 45 e0 9f b3
	9f 8f		 mov	 DWORD PTR __k$536293[ebp+4], -1885359201 ; 8f9fb39fH
  0060d	c7 45 e4 8c 81
	b4 9d		 mov	 DWORD PTR __k$536293[ebp+8], -1649114740 ; 9db4818cH
  00614	c7 45 e8 88 8d
	9b 85		 mov	 DWORD PTR __k$536293[ebp+12], -2053403256 ; 859b8d88H
  0061b	c7 45 ec 83 b3
	8e 8c		 mov	 DWORD PTR __k$536293[ebp+16], -1936804989 ; 8c8eb383H
  00622	c7 45 f0 8b 89
	88 9e		 mov	 DWORD PTR __k$536293[ebp+20], -1635219061 ; 9e88898bH
  00629	8d 45 dc	 lea	 eax, DWORD PTR __k$536293[ebp]
  0062c	88 5d f4	 mov	 BYTE PTR __k$536293[ebp+24], bl
  0062f	59		 pop	 ecx
$LL1612@LoadProper:
  00630	81 30 ed ec eb
	ea		 xor	 DWORD PTR [eax], -353637139 ; eaebecedH
  00636	83 c0 04	 add	 eax, 4
  00639	49		 dec	 ecx
  0063a	75 f4		 jne	 SHORT $LL1612@LoadProper
  0063c	68 04 01 00 00	 push	 260			; 00000104H
  00641	8d 85 d8 fe ff
	ff		 lea	 eax, DWORD PTR _szBuf$[ebp]
  00647	50		 push	 eax
  00648	68 00 00 00 00	 push	 OFFSET ??_C@_00CNPNBAHC@?$AA@
  0064d	8d 45 dc	 lea	 eax, DWORD PTR __k$536293[ebp]
  00650	50		 push	 eax
  00651	8b cf		 mov	 ecx, edi
  00653	ff 15 00 00 00
	00		 call	 DWORD PTR __imp_?LoadStringA@ioINILoader@@QAEXPBD0PADH@Z

; 104  : 	m_szOtherTeamWeaponEffect = szBuf;

  00659	8d 85 d8 fe ff
	ff		 lea	 eax, DWORD PTR _szBuf$[ebp]
  0065f	50		 push	 eax
  00660	8d 8e 98 0c 00
	00		 lea	 ecx, DWORD PTR [esi+3224]
  00666	ff 15 00 00 00
	00		 call	 DWORD PTR __imp_??4ioHashString@@QAEAAV0@PBD@Z

; 105  : }

  0066c	8b 4d fc	 mov	 ecx, DWORD PTR __$ArrayPad$[ebp]
  0066f	5f		 pop	 edi
  00670	5e		 pop	 esi
  00671	33 cd		 xor	 ecx, ebp
  00673	5b		 pop	 ebx
  00674	e8 00 00 00 00	 call	 @__security_check_cookie@4
  00679	c9		 leave
  0067a	c2 04 00	 ret	 4
?LoadProperty@ioControlMeshWeapon@@UAEXAAVioINILoader@@@Z ENDP ; ioControlMeshWeapon::LoadProperty
_TEXT	ENDS
EXTRN	__imp_?GetLoopSec@ioFrameTimer@@QBEKXZ:PROC
EXTRN	__imp_?GetSingleton@ioFrameTimer@@SAAAV1@XZ:PROC
; Function compile flags: /Ogsp
;	COMDAT ?TestMapCollision@ioControlMeshWeapon@@UAE_NPAVioOpcodeShape@@PAVioPlayStage@@PBUD3DXMATRIX@@@Z
_TEXT	SEGMENT
tv164 = -8						; size = 4
_value$536482 = -4					; size = 4
_value$536490 = 8					; size = 4
_value$536486 = 8					; size = 4
_pShape$ = 8						; size = 4
_pStage$ = 12						; size = 4
_pShapeWorldMat$ = 16					; size = 4
?TestMapCollision@ioControlMeshWeapon@@UAE_NPAVioOpcodeShape@@PAVioPlayStage@@PBUD3DXMATRIX@@@Z PROC ; ioControlMeshWeapon::TestMapCollision, COMDAT
; _this$ = ecx

; 234  : {

  00000	55		 push	 ebp
  00001	8b ec		 mov	 ebp, esp
  00003	51		 push	 ecx
  00004	51		 push	 ecx
  00005	56		 push	 esi
  00006	8b f1		 mov	 esi, ecx

; 235  : 	//pShape        TRUE
; 236  : 	//     1   N   TestMapCollision()   
; 237  : 
; 238  : 	if( m_State != CS_FLOATING )

  00008	83 be 94 08 00
	00 01		 cmp	 DWORD PTR [esi+2196], 1
  0000f	74 04		 je	 SHORT $LN3@TestMapCol

; 239  : 		return true;

  00011	b0 01		 mov	 al, 1
  00013	eb 7a		 jmp	 SHORT $LN4@TestMapCol
$LN3@TestMapCol:
  00015	53		 push	 ebx

; 240  : 
; 241  : 	DWORD dwCurTime = FRAMEGETTIME();

  00016	ff 15 00 00 00
	00		 call	 DWORD PTR __imp_?GetSingleton@ioFrameTimer@@SAAAV1@XZ
  0001c	8b c8		 mov	 ecx, eax
  0001e	ff 15 00 00 00
	00		 call	 DWORD PTR __imp_?GetLoopSec@ioFrameTimer@@QBEKXZ
  00024	8b d8		 mov	 ebx, eax

; 242  : 
; 243  : 	if( m_dwCurMapCollisionDelayTime < dwCurTime )

  00026	8d 45 fc	 lea	 eax, DWORD PTR _value$536482[ebp]
  00029	8d 8e bc 0b 00
	00		 lea	 ecx, DWORD PTR [esi+3004]
  0002f	50		 push	 eax
  00030	89 4d f8	 mov	 DWORD PTR tv164[ebp], ecx
  00033	e8 00 00 00 00	 call	 ?DecryptValueToPool@?$CEncrypt@K@@QAEXPAK@Z ; CEncrypt<unsigned long>::DecryptValueToPool
  00038	39 5d fc	 cmp	 DWORD PTR _value$536482[ebp], ebx
  0003b	73 4f		 jae	 SHORT $LN1@TestMapCol

; 244  : 	{
; 245  : 		if( pShape->TestIntersection( pShapeWorldMat, GetWorldAttackBox(true) ) )

  0003d	8b 45 08	 mov	 eax, DWORD PTR _pShape$[ebp]
  00040	57		 push	 edi
  00041	8b 38		 mov	 edi, DWORD PTR [eax]
  00043	6a 01		 push	 1
  00045	8b ce		 mov	 ecx, esi
  00047	e8 00 00 00 00	 call	 ?GetWorldAttackBox@ioWeapon@@QBEABVioOrientBox@@_N@Z ; ioWeapon::GetWorldAttackBox
  0004c	8b 4d 08	 mov	 ecx, DWORD PTR _pShape$[ebp]
  0004f	50		 push	 eax
  00050	ff 75 10	 push	 DWORD PTR _pShapeWorldMat$[ebp]
  00053	ff 57 24	 call	 DWORD PTR [edi+36]
  00056	5f		 pop	 edi
  00057	84 c0		 test	 al, al
  00059	74 31		 je	 SHORT $LN1@TestMapCol

; 246  : 		{
; 247  : 			//   
; 248  : 			CreateMapCollisionEffect( pStage );

  0005b	ff 75 0c	 push	 DWORD PTR _pStage$[ebp]
  0005e	8b ce		 mov	 ecx, esi
  00060	e8 00 00 00 00	 call	 ?CreateMapCollisionEffect@ioControlMeshWeapon@@IAEXPAVioPlayStage@@@Z ; ioControlMeshWeapon::CreateMapCollisionEffect

; 249  : 			m_dwCurMapCollisionDelayTime = dwCurTime + m_dwMapCollisionDelayTime;

  00065	8d 45 08	 lea	 eax, DWORD PTR _value$536486[ebp]
  00068	50		 push	 eax
  00069	8d 8e 8c 0b 00
	00		 lea	 ecx, DWORD PTR [esi+2956]
  0006f	e8 00 00 00 00	 call	 ?DecryptValueToPool@?$CEncrypt@K@@QAEXPAK@Z ; CEncrypt<unsigned long>::DecryptValueToPool
  00074	8b 45 08	 mov	 eax, DWORD PTR _value$536486[ebp]
  00077	8b 4d f8	 mov	 ecx, DWORD PTR tv164[ebp]
  0007a	03 c3		 add	 eax, ebx
  0007c	89 45 08	 mov	 DWORD PTR _value$536490[ebp], eax
  0007f	8d 45 08	 lea	 eax, DWORD PTR _value$536490[ebp]
  00082	50		 push	 eax
  00083	e8 00 00 00 00	 call	 ?EncryptValueToPool@?$CEncrypt@K@@AAEXPBD@Z ; CEncrypt<unsigned long>::EncryptValueToPool

; 250  : 			return true;

  00088	b0 01		 mov	 al, 1
  0008a	eb 02		 jmp	 SHORT $LN12@TestMapCol
$LN1@TestMapCol:

; 251  : 		}
; 252  : 	}
; 253  : 
; 254  : 	return false;

  0008c	32 c0		 xor	 al, al
$LN12@TestMapCol:
  0008e	5b		 pop	 ebx
$LN4@TestMapCol:
  0008f	5e		 pop	 esi

; 255  : }

  00090	c9		 leave
  00091	c2 0c 00	 ret	 12			; 0000000cH
?TestMapCollision@ioControlMeshWeapon@@UAE_NPAVioOpcodeShape@@PAVioPlayStage@@PBUD3DXMATRIX@@@Z ENDP ; ioControlMeshWeapon::TestMapCollision
_TEXT	ENDS
PUBLIC	__$ArrayPad$
EXTRN	__imp_?SetNull@ioOrientBox@@QAEXXZ:PROC
EXTRN	__imp_?Transform@ioOrientBox@@QAEXABUD3DXVECTOR3@@0ABUD3DXQUATERNION@@@Z:PROC
EXTRN	?GetOrientation@ioWeapon@@QBEABUD3DXQUATERNION@@XZ:PROC ; ioWeapon::GetOrientation
EXTRN	__imp_?IsNull@ioOrientBox@@QBE_NXZ:PROC
EXTRN	__imp_?SetExtents@ioOrientBox@@QAEXHM@Z:PROC
EXTRN	__imp_?GetExtents@ioOrientBox@@QBEMH@Z:PROC
; Function compile flags: /Ogsp
;	COMDAT ?UpdateWorldAttackBox@ioControlMeshWeapon@@MAEXM_N@Z
_TEXT	SEGMENT
tv397 = -32						; size = 4
_value$536516 = -32					; size = 4
tv417 = -28						; size = 4
tv399 = -28						; size = 4
_value$536521 = -24					; size = 4
$T536505 = -24						; size = 4
_fMapCollisionRate$ = -24				; size = 4
tv411 = -20						; size = 4
tv405 = -20						; size = 4
_value$536526 = -20					; size = 4
_value$536510 = -20					; size = 4
_vScale$530890 = -16					; size = 12
__$ArrayPad$ = -4					; size = 4
_fTimePerSec$ = 8					; size = 4
_bSetNull$ = 12						; size = 1
?UpdateWorldAttackBox@ioControlMeshWeapon@@MAEXM_N@Z PROC ; ioControlMeshWeapon::UpdateWorldAttackBox, COMDAT
; _this$ = ecx

; 316  : {

  00000	55		 push	 ebp
  00001	8b ec		 mov	 ebp, esp
  00003	83 ec 20	 sub	 esp, 32			; 00000020H
  00006	a1 00 00 00 00	 mov	 eax, DWORD PTR ___security_cookie
  0000b	33 c5		 xor	 eax, ebp
  0000d	89 45 fc	 mov	 DWORD PTR __$ArrayPad$[ebp], eax
  00010	53		 push	 ebx
  00011	8b d9		 mov	 ebx, ecx

; 317  : 	if( !IsLive() || bSetNull )

  00013	80 bb 82 05 00
	00 00		 cmp	 BYTE PTR [ebx+1410], 0
  0001a	56		 push	 esi
  0001b	57		 push	 edi
  0001c	0f 84 b7 01 00
	00		 je	 $LN4@UpdateWorl
  00022	80 7d 0c 00	 cmp	 BYTE PTR _bSetNull$[ebp], 0
  00026	0f 85 ad 01 00
	00		 jne	 $LN4@UpdateWorl

; 321  : 		return;
; 322  : 	}
; 323  : 
; 324  : 	m_WorldAttackBox = GetLocalAttackBox();

  0002c	8b 03		 mov	 eax, DWORD PTR [ebx]
  0002e	ff 90 00 01 00
	00		 call	 DWORD PTR [eax+256]
  00034	6a 11		 push	 17			; 00000011H
  00036	59		 pop	 ecx
  00037	8b f0		 mov	 esi, eax
  00039	8d bb e8 04 00
	00		 lea	 edi, DWORD PTR [ebx+1256]
  0003f	f3 a5		 rep movsd

; 325  : 	m_WorldAttackBoxForMap = m_WorldAttackBox;

  00041	6a 11		 push	 17			; 00000011H
  00043	8b f0		 mov	 esi, eax

; 326  : 
; 327  : 	float fMapCollisionRate = GetAttribute()->m_fMapCollisionBoxRate;

  00045	8b 03		 mov	 eax, DWORD PTR [ebx]
  00047	59		 pop	 ecx
  00048	8d bb 2c 05 00
	00		 lea	 edi, DWORD PTR [ebx+1324]
  0004e	f3 a5		 rep movsd
  00050	8b cb		 mov	 ecx, ebx
  00052	ff 90 3c 01 00
	00		 call	 DWORD PTR [eax+316]

; 328  : 	m_WorldAttackBoxForMap.SetExtents( 0, m_WorldAttackBox.GetExtents(0)*fMapCollisionRate );

  00058	6a 00		 push	 0
  0005a	d9 80 a8 01 00
	00		 fld	 DWORD PTR [eax+424]
  00060	8d 8b e8 04 00
	00		 lea	 ecx, DWORD PTR [ebx+1256]
  00066	d9 5d e8	 fstp	 DWORD PTR _fMapCollisionRate$[ebp]
  00069	ff 15 00 00 00
	00		 call	 DWORD PTR __imp_?GetExtents@ioOrientBox@@QBEMH@Z
  0006f	d8 4d e8	 fmul	 DWORD PTR _fMapCollisionRate$[ebp]
  00072	8b 35 00 00 00
	00		 mov	 esi, DWORD PTR __imp_?SetExtents@ioOrientBox@@QAEXHM@Z
  00078	51		 push	 ecx
  00079	8d 8b 2c 05 00
	00		 lea	 ecx, DWORD PTR [ebx+1324]
  0007f	d9 5d e4	 fstp	 DWORD PTR tv417[ebp]
  00082	d9 45 e4	 fld	 DWORD PTR tv417[ebp]
  00085	89 4d e4	 mov	 DWORD PTR tv399[ebp], ecx
  00088	d9 1c 24	 fstp	 DWORD PTR [esp]
  0008b	6a 00		 push	 0
  0008d	ff d6		 call	 esi

; 329  : 	m_WorldAttackBoxForMap.SetExtents( 1, m_WorldAttackBox.GetExtents(1)*fMapCollisionRate );

  0008f	6a 01		 push	 1
  00091	8d 8b e8 04 00
	00		 lea	 ecx, DWORD PTR [ebx+1256]
  00097	ff 15 00 00 00
	00		 call	 DWORD PTR __imp_?GetExtents@ioOrientBox@@QBEMH@Z
  0009d	d8 4d e8	 fmul	 DWORD PTR _fMapCollisionRate$[ebp]
  000a0	51		 push	 ecx
  000a1	8b 4d e4	 mov	 ecx, DWORD PTR tv399[ebp]
  000a4	d9 5d ec	 fstp	 DWORD PTR tv411[ebp]
  000a7	d9 45 ec	 fld	 DWORD PTR tv411[ebp]
  000aa	d9 1c 24	 fstp	 DWORD PTR [esp]
  000ad	6a 01		 push	 1
  000af	ff d6		 call	 esi

; 330  : 	m_WorldAttackBoxForMap.SetExtents( 2, m_WorldAttackBox.GetExtents(2)*fMapCollisionRate );

  000b1	6a 02		 push	 2
  000b3	8d 8b e8 04 00
	00		 lea	 ecx, DWORD PTR [ebx+1256]
  000b9	ff 15 00 00 00
	00		 call	 DWORD PTR __imp_?GetExtents@ioOrientBox@@QBEMH@Z
  000bf	d8 4d e8	 fmul	 DWORD PTR _fMapCollisionRate$[ebp]
  000c2	51		 push	 ecx
  000c3	8b 4d e4	 mov	 ecx, DWORD PTR tv399[ebp]
  000c6	d9 5d ec	 fstp	 DWORD PTR tv405[ebp]
  000c9	d9 45 ec	 fld	 DWORD PTR tv405[ebp]
  000cc	d9 1c 24	 fstp	 DWORD PTR [esp]
  000cf	6a 02		 push	 2
  000d1	ff d6		 call	 esi

; 331  : 
; 332  : 	if( !m_WorldAttackBox.IsNull() )

  000d3	8d 8b e8 04 00
	00		 lea	 ecx, DWORD PTR [ebx+1256]
  000d9	ff 15 00 00 00
	00		 call	 DWORD PTR __imp_?IsNull@ioOrientBox@@QBE_NXZ
  000df	84 c0		 test	 al, al
  000e1	0f 85 08 01 00
	00		 jne	 $LN1@UpdateWorl

; 333  : 	{
; 334  : 		if( m_fOwnerChargeScaleRate > FLOAT1 )

  000e7	b8 01 00 00 00	 mov	 eax, 1
  000ec	89 45 e8	 mov	 DWORD PTR $T536505[ebp], eax
  000ef	8d 45 ec	 lea	 eax, DWORD PTR _value$536510[ebp]
  000f2	50		 push	 eax
  000f3	8d 8b b0 01 00
	00		 lea	 ecx, DWORD PTR [ebx+432]
  000f9	e8 00 00 00 00	 call	 ?DecryptValueToPool@?$CEncrypt@M@@QAEXPAM@Z ; CEncrypt<float>::DecryptValueToPool
  000fe	d9 45 ec	 fld	 DWORD PTR _value$536510[ebp]
  00101	8b 45 e8	 mov	 eax, DWORD PTR $T536505[ebp]
  00104	db 45 e8	 fild	 DWORD PTR $T536505[ebp]
  00107	85 c0		 test	 eax, eax
  00109	79 06		 jns	 SHORT $LN25@UpdateWorl
  0010b	d8 05 00 00 00
	00		 fadd	 DWORD PTR __real@4f800000
$LN25@UpdateWorl:
  00111	d9 c9		 fxch	 ST(1)
  00113	df f1		 fcomip	 ST(1)
  00115	dd d8		 fstp	 ST(0)
  00117	0f 86 88 00 00
	00		 jbe	 $LN2@UpdateWorl

; 335  : 		{
; 336  : 			D3DXVECTOR3 vScale( m_fOwnerChargeScaleRate, m_fOwnerChargeScaleRate, m_fOwnerChargeScaleRate );

  0011d	8d 45 e0	 lea	 eax, DWORD PTR _value$536516[ebp]
  00120	50		 push	 eax
  00121	8d 8b b0 01 00
	00		 lea	 ecx, DWORD PTR [ebx+432]
  00127	e8 00 00 00 00	 call	 ?DecryptValueToPool@?$CEncrypt@M@@QAEXPAM@Z ; CEncrypt<float>::DecryptValueToPool
  0012c	8d 45 e8	 lea	 eax, DWORD PTR _value$536521[ebp]
  0012f	50		 push	 eax
  00130	8d 8b b0 01 00
	00		 lea	 ecx, DWORD PTR [ebx+432]
  00136	e8 00 00 00 00	 call	 ?DecryptValueToPool@?$CEncrypt@M@@QAEXPAM@Z ; CEncrypt<float>::DecryptValueToPool
  0013b	8d 45 ec	 lea	 eax, DWORD PTR _value$536526[ebp]
  0013e	50		 push	 eax
  0013f	8d 8b b0 01 00
	00		 lea	 ecx, DWORD PTR [ebx+432]
  00145	e8 00 00 00 00	 call	 ?DecryptValueToPool@?$CEncrypt@M@@QAEXPAM@Z ; CEncrypt<float>::DecryptValueToPool
  0014a	f3 0f 10 45 ec	 movss	 xmm0, DWORD PTR _value$536526[ebp]
  0014f	f3 0f 11 45 f0	 movss	 DWORD PTR _vScale$530890[ebp], xmm0
  00154	f3 0f 10 45 e8	 movss	 xmm0, DWORD PTR _value$536521[ebp]
  00159	f3 0f 11 45 f4	 movss	 DWORD PTR _vScale$530890[ebp+4], xmm0
  0015e	f3 0f 10 45 e0	 movss	 xmm0, DWORD PTR _value$536516[ebp]

; 337  : 			m_WorldAttackBox.Transform( GetPosition(), vScale, GetOrientation() );

  00163	8b cb		 mov	 ecx, ebx
  00165	f3 0f 11 45 f8	 movss	 DWORD PTR _vScale$530890[ebp+8], xmm0
  0016a	e8 00 00 00 00	 call	 ?GetOrientation@ioWeapon@@QBEABUD3DXQUATERNION@@XZ ; ioWeapon::GetOrientation
  0016f	50		 push	 eax
  00170	8d 45 f0	 lea	 eax, DWORD PTR _vScale$530890[ebp]
  00173	50		 push	 eax
  00174	8b 03		 mov	 eax, DWORD PTR [ebx]
  00176	8b cb		 mov	 ecx, ebx
  00178	ff 50 70	 call	 DWORD PTR [eax+112]
  0017b	8b 35 00 00 00
	00		 mov	 esi, DWORD PTR __imp_?Transform@ioOrientBox@@QAEXABUD3DXVECTOR3@@0ABUD3DXQUATERNION@@@Z
  00181	50		 push	 eax
  00182	8d 8b e8 04 00
	00		 lea	 ecx, DWORD PTR [ebx+1256]
  00188	ff d6		 call	 esi

; 338  : 			m_WorldAttackBoxForMap.Transform( GetPosition(), vScale, GetOrientation() );

  0018a	8b cb		 mov	 ecx, ebx
  0018c	e8 00 00 00 00	 call	 ?GetOrientation@ioWeapon@@QBEABUD3DXQUATERNION@@XZ ; ioWeapon::GetOrientation
  00191	50		 push	 eax
  00192	8d 45 f0	 lea	 eax, DWORD PTR _vScale$530890[ebp]
  00195	50		 push	 eax
$LN26@UpdateWorl:
  00196	8b 03		 mov	 eax, DWORD PTR [ebx]
  00198	8b cb		 mov	 ecx, ebx
  0019a	ff 50 70	 call	 DWORD PTR [eax+112]
  0019d	8b 4d e4	 mov	 ecx, DWORD PTR tv399[ebp]
  001a0	50		 push	 eax
  001a1	ff d6		 call	 esi

; 339  : 		}
; 340  : 		else

  001a3	eb 4a		 jmp	 SHORT $LN1@UpdateWorl
$LN2@UpdateWorl:

; 341  : 		{
; 342  : 			m_WorldAttackBox.Transform( GetPosition(), ioMath::UNIT_ALL, GetOrientation() );

  001a5	8b cb		 mov	 ecx, ebx
  001a7	e8 00 00 00 00	 call	 ?GetOrientation@ioWeapon@@QBEABUD3DXQUATERNION@@XZ ; ioWeapon::GetOrientation
  001ac	50		 push	 eax
  001ad	ff 35 00 00 00
	00		 push	 DWORD PTR __imp_?UNIT_ALL@ioMath@@2UD3DXVECTOR3@@A
  001b3	8b 03		 mov	 eax, DWORD PTR [ebx]
  001b5	8b cb		 mov	 ecx, ebx
  001b7	ff 50 70	 call	 DWORD PTR [eax+112]
  001ba	8b 35 00 00 00
	00		 mov	 esi, DWORD PTR __imp_?Transform@ioOrientBox@@QAEXABUD3DXVECTOR3@@0ABUD3DXQUATERNION@@@Z
  001c0	50		 push	 eax
  001c1	8d 8b e8 04 00
	00		 lea	 ecx, DWORD PTR [ebx+1256]
  001c7	ff d6		 call	 esi

; 343  : 			m_WorldAttackBoxForMap.Transform( GetPosition(), ioMath::UNIT_ALL, GetOrientation() );

  001c9	8b cb		 mov	 ecx, ebx
  001cb	e8 00 00 00 00	 call	 ?GetOrientation@ioWeapon@@QBEABUD3DXQUATERNION@@XZ ; ioWeapon::GetOrientation
  001d0	50		 push	 eax
  001d1	ff 35 00 00 00
	00		 push	 DWORD PTR __imp_?UNIT_ALL@ioMath@@2UD3DXVECTOR3@@A
  001d7	eb bd		 jmp	 SHORT $LN26@UpdateWorl
$LN4@UpdateWorl:

; 318  : 	{
; 319  : 		m_WorldAttackBox.SetNull();

  001d9	8b 35 00 00 00
	00		 mov	 esi, DWORD PTR __imp_?SetNull@ioOrientBox@@QAEXXZ
  001df	8d 8b e8 04 00
	00		 lea	 ecx, DWORD PTR [ebx+1256]
  001e5	ff d6		 call	 esi

; 320  : 		m_WorldAttackBoxForMap.SetNull();

  001e7	8d 8b 2c 05 00
	00		 lea	 ecx, DWORD PTR [ebx+1324]
  001ed	ff d6		 call	 esi
$LN1@UpdateWorl:

; 344  : 		}
; 345  : 	}
; 346  : }

  001ef	8b 4d fc	 mov	 ecx, DWORD PTR __$ArrayPad$[ebp]
  001f2	5f		 pop	 edi
  001f3	5e		 pop	 esi
  001f4	33 cd		 xor	 ecx, ebp
  001f6	5b		 pop	 ebx
  001f7	e8 00 00 00 00	 call	 @__security_check_cookie@4
  001fc	c9		 leave
  001fd	c2 08 00	 ret	 8
?UpdateWorldAttackBox@ioControlMeshWeapon@@MAEXM_N@Z ENDP ; ioControlMeshWeapon::UpdateWorldAttackBox
_TEXT	ENDS
PUBLIC	?GetMoveSpeed@ioControlMeshWeapon@@IAEMXZ	; ioControlMeshWeapon::GetMoveSpeed
; Function compile flags: /Ogsp
;	COMDAT ?GetMoveSpeed@ioControlMeshWeapon@@IAEMXZ
_TEXT	SEGMENT
tv166 = -8						; size = 4
_value$536547 = -8					; size = 4
_value$536551 = -4					; size = 4
_value$536542 = -4					; size = 4
$T536538 = -4						; size = 4
?GetMoveSpeed@ioControlMeshWeapon@@IAEMXZ PROC		; ioControlMeshWeapon::GetMoveSpeed, COMDAT
; _this$ = ecx

; 367  : {

  00000	55		 push	 ebp
  00001	8b ec		 mov	 ebp, esp
  00003	51		 push	 ecx
  00004	51		 push	 ecx

; 368  : 	if( m_fMoveSpeed == 0.0f )

  00005	0f 57 c0	 xorps	 xmm0, xmm0
  00008	56		 push	 esi
  00009	57		 push	 edi
  0000a	8b f1		 mov	 esi, ecx
  0000c	8d 45 fc	 lea	 eax, DWORD PTR $T536538[ebp]
  0000f	50		 push	 eax
  00010	8d 8e ac 09 00
	00		 lea	 ecx, DWORD PTR [esi+2476]
  00016	f3 0f 11 45 fc	 movss	 DWORD PTR $T536538[ebp], xmm0
  0001b	e8 00 00 00 00	 call	 ??8?$CEncrypt@M@@QAE_NABM@Z ; CEncrypt<float>::operator==
  00020	84 c0		 test	 al, al
  00022	74 26		 je	 SHORT $LN4@GetMoveSpe

; 369  : 		m_fMoveSpeed = GetAttribute()->m_fMoveSpeed;

  00024	8b 06		 mov	 eax, DWORD PTR [esi]
  00026	8b ce		 mov	 ecx, esi
  00028	ff 90 3c 01 00
	00		 call	 DWORD PTR [eax+316]
  0002e	f3 0f 10 80 98
	01 00 00	 movss	 xmm0, DWORD PTR [eax+408]
  00036	8d 45 fc	 lea	 eax, DWORD PTR _value$536542[ebp]
  00039	50		 push	 eax
  0003a	8d 8e ac 09 00
	00		 lea	 ecx, DWORD PTR [esi+2476]
  00040	f3 0f 11 45 fc	 movss	 DWORD PTR _value$536542[ebp], xmm0
  00045	e8 00 00 00 00	 call	 ?EncryptValueToPool@?$CEncrypt@M@@AAEXPBD@Z ; CEncrypt<float>::EncryptValueToPool
$LN4@GetMoveSpe:

; 370  : 
; 371  : 	return m_fMoveSpeed * m_fOwnerChargeSpeedRate;

  0004a	8d 45 f8	 lea	 eax, DWORD PTR _value$536547[ebp]
  0004d	50		 push	 eax
  0004e	8d 8e 20 01 00
	00		 lea	 ecx, DWORD PTR [esi+288]
  00054	e8 00 00 00 00	 call	 ?DecryptValueToPool@?$CEncrypt@M@@QAEXPAM@Z ; CEncrypt<float>::DecryptValueToPool
  00059	8d 45 fc	 lea	 eax, DWORD PTR _value$536551[ebp]
  0005c	50		 push	 eax
  0005d	8d 8e ac 09 00
	00		 lea	 ecx, DWORD PTR [esi+2476]
  00063	e8 00 00 00 00	 call	 ?DecryptValueToPool@?$CEncrypt@M@@QAEXPAM@Z ; CEncrypt<float>::DecryptValueToPool
  00068	d9 45 fc	 fld	 DWORD PTR _value$536551[ebp]
  0006b	d8 4d f8	 fmul	 DWORD PTR _value$536547[ebp]
  0006e	5f		 pop	 edi
  0006f	5e		 pop	 esi
  00070	d9 5d f8	 fstp	 DWORD PTR tv166[ebp]
  00073	d9 45 f8	 fld	 DWORD PTR tv166[ebp]

; 372  : }

  00076	c9		 leave
  00077	c3		 ret	 0
?GetMoveSpeed@ioControlMeshWeapon@@IAEMXZ ENDP		; ioControlMeshWeapon::GetMoveSpeed
_TEXT	ENDS
PUBLIC	__real@4066800000000000
PUBLIC	__real@4046800000000000
PUBLIC	__$ArrayPad$
PUBLIC	?CheckMoveDir@ioControlMeshWeapon@@IAEXXZ	; ioControlMeshWeapon::CheckMoveDir
EXTRN	_D3DXQuaternionRotationAxis@12:PROC
EXTRN	__imp_?UNIT_X@ioMath@@2UD3DXVECTOR3@@A:BYTE
EXTRN	__imp_?UNIT_Y@ioMath@@2UD3DXVECTOR3@@A:BYTE
EXTRN	_D3DXQuaternionRotationYawPitchRoll@16:PROC
EXTRN	__imp_?ArrangeHead@ioMath@@SAMM@Z:PROC
EXTRN	_D3DXVec3Normalize@8:PROC
EXTRN	__imp_?GetCurFrameGap@ioFrameTimer@@QBEMXZ:PROC
;	COMDAT __real@4066800000000000
; File d:\lost saga for developer\youtube\tutorial\source\src\lsclient\ioweapon.h
CONST	SEGMENT
__real@4066800000000000 DQ 04066800000000000r	; 180
CONST	ENDS
;	COMDAT __real@4046800000000000
CONST	SEGMENT
__real@4046800000000000 DQ 04046800000000000r	; 45
; Function compile flags: /Ogsp
; File d:\lost saga for developer\youtube\tutorial\source\src\lsclient\iocontrolmeshweapon.cpp
CONST	ENDS
;	COMDAT ?CheckMoveDir@ioControlMeshWeapon@@IAEXXZ
_TEXT	SEGMENT
_qtTargetRot$530964 = -124				; size = 16
_qtRotate$530951 = -124					; size = 16
_qtNewRot$ = -108					; size = 16
tv1040 = -92						; size = 4
tv1025 = -92						; size = 4
tv1007 = -92						; size = 4
tv1115 = -88						; size = 4
tv1108 = -88						; size = 4
_fRotateAngle$ = -88					; size = 4
tv1113 = -84						; size = 4
tv1069 = -84						; size = 4
tv1047 = -84						; size = 4
_value$536563 = -84					; size = 4
_fGapAngle$ = -84					; size = 4
_fYawR$530946 = -84					; size = 4
_value$536559 = -80					; size = 4
_fCurRotateAngle$ = -80					; size = 4
_fDotValue$ = -80					; size = 4
_fFrameGap$ = -80					; size = 4
_vNewDir$ = -76						; size = 12
_vAxis$ = -64						; size = 12
_v$536677 = -52						; size = 12
_v$536666 = -52						; size = 12
_v$536655 = -52						; size = 12
_v$536644 = -52						; size = 12
$T530968 = -52						; size = 12
$T530954 = -52						; size = 12
_vTmpAxis$530972 = -40					; size = 12
$T530967 = -40						; size = 12
$T530965 = -40						; size = 12
$T530953 = -40						; size = 12
_vTargetDir$ = -28					; size = 12
_vCurMoveDir$ = -16					; size = 12
__$ArrayPad$ = -4					; size = 4
?CheckMoveDir@ioControlMeshWeapon@@IAEXXZ PROC		; ioControlMeshWeapon::CheckMoveDir, COMDAT
; _this$ = ecx

; 421  : {

  00000	55		 push	 ebp
  00001	8b ec		 mov	 ebp, esp
  00003	83 ec 7c	 sub	 esp, 124		; 0000007cH
  00006	a1 00 00 00 00	 mov	 eax, DWORD PTR ___security_cookie
  0000b	33 c5		 xor	 eax, ebp
  0000d	89 45 fc	 mov	 DWORD PTR __$ArrayPad$[ebp], eax
  00010	53		 push	 ebx
  00011	8b d9		 mov	 ebx, ecx

; 422  : 	ioBaseChar *pOwner = GetOwner();

  00013	e8 00 00 00 00	 call	 ?GetOwner@ioWeapon@@QBEPAVioBaseChar@@XZ ; ioWeapon::GetOwner

; 423  : 	if( !pOwner ) return;

  00018	85 c0		 test	 eax, eax
  0001a	0f 84 ad 05 00
	00		 je	 $LN12@CheckMoveD

; 424  : 
; 425  : 	if( m_dwRotateSpeed == 0 )

  00020	56		 push	 esi
  00021	8d 45 b0	 lea	 eax, DWORD PTR _value$536559[ebp]
  00024	50		 push	 eax
  00025	8d 8b f4 0b 00
	00		 lea	 ecx, DWORD PTR [ebx+3060]
  0002b	e8 00 00 00 00	 call	 ?DecryptValueToPool@?$CEncrypt@K@@QAEXPAK@Z ; CEncrypt<unsigned long>::DecryptValueToPool
  00030	83 7d b0 00	 cmp	 DWORD PTR _value$536559[ebp], 0
  00034	0f 84 92 05 00
	00		 je	 $LN78@CheckMoveD

; 426  : 		return;
; 427  : 
; 428  : 	if( m_bTargetRot )

  0003a	80 bb f0 0b 00
	00 00		 cmp	 BYTE PTR [ebx+3056], 0
  00041	0f 85 85 05 00
	00		 jne	 $LN78@CheckMoveD

; 429  : 		return;
; 430  : 
; 431  : 	if( m_CurDirKey == ioUserKeyInput::DKI_NONE )

  00047	83 bb ec 0b 00
	00 00		 cmp	 DWORD PTR [ebx+3052], 0
  0004e	0f 84 78 05 00
	00		 je	 $LN78@CheckMoveD

; 432  : 	{
; 433  : 		return;
; 434  : 	}
; 435  : 
; 436  : 	float fFrameGap = g_FrameTimer.GetCurFrameGap();

  00054	57		 push	 edi
  00055	ff 15 00 00 00
	00		 call	 DWORD PTR __imp_?GetSingleton@ioFrameTimer@@SAAAV1@XZ
  0005b	8b c8		 mov	 ecx, eax
  0005d	ff 15 00 00 00
	00		 call	 DWORD PTR __imp_?GetCurFrameGap@ioFrameTimer@@QBEMXZ
  00063	d9 5d b0	 fstp	 DWORD PTR _fFrameGap$[ebp]

; 437  : 	float fRate = fFrameGap / m_dwRotateSpeed;

  00066	8d 45 ac	 lea	 eax, DWORD PTR _value$536563[ebp]
  00069	50		 push	 eax
  0006a	8d 8b f4 0b 00
	00		 lea	 ecx, DWORD PTR [ebx+3060]
  00070	e8 00 00 00 00	 call	 ?DecryptValueToPool@?$CEncrypt@K@@QAEXPAK@Z ; CEncrypt<unsigned long>::DecryptValueToPool

; 438  : 	float fRotateAngle = FLOAT360 * fRate;

  00075	b8 68 01 00 00	 mov	 eax, 360		; 00000168H
  0007a	d9 45 b0	 fld	 DWORD PTR _fFrameGap$[ebp]
  0007d	8b 4d ac	 mov	 ecx, DWORD PTR _value$536563[ebp]
  00080	db 45 ac	 fild	 DWORD PTR _value$536563[ebp]
  00083	85 c9		 test	 ecx, ecx
  00085	79 06		 jns	 SHORT $LN80@CheckMoveD
  00087	d8 05 00 00 00
	00		 fadd	 DWORD PTR __real@4f800000
$LN80@CheckMoveD:

; 437  : 	float fRate = fFrameGap / m_dwRotateSpeed;

  0008d	de f9		 fdivp	 ST(1), ST(0)

; 438  : 	float fRotateAngle = FLOAT360 * fRate;

  0008f	89 45 a8	 mov	 DWORD PTR tv1108[ebp], eax
  00092	d9 5d ac	 fstp	 DWORD PTR tv1113[ebp]
  00095	d9 45 ac	 fld	 DWORD PTR tv1113[ebp]
  00098	db 45 a8	 fild	 DWORD PTR tv1108[ebp]
  0009b	85 c0		 test	 eax, eax
  0009d	79 06		 jns	 SHORT $LN81@CheckMoveD
  0009f	d8 05 00 00 00
	00		 fadd	 DWORD PTR __real@4f800000
$LN81@CheckMoveD:

; 439  : 
; 440  : 	D3DXVECTOR3 vCurMoveDir = m_vMoveDir;

  000a5	8d b3 dc 08 00
	00		 lea	 esi, DWORD PTR [ebx+2268]
  000ab	de c9		 fmulp	 ST(1), ST(0)
  000ad	8d 7d f0	 lea	 edi, DWORD PTR _vCurMoveDir$[ebp]
  000b0	a5		 movsd
  000b1	d9 5d a8	 fstp	 DWORD PTR _fRotateAngle$[ebp]

; 441  : 	D3DXVec3Normalize( &vCurMoveDir, &vCurMoveDir );

  000b4	8d 45 f0	 lea	 eax, DWORD PTR _vCurMoveDir$[ebp]
  000b7	a5		 movsd
  000b8	50		 push	 eax
  000b9	50		 push	 eax
  000ba	a5		 movsd
  000bb	e8 00 00 00 00	 call	 _D3DXVec3Normalize@8

; 442  : 
; 443  : 	//    
; 444  : 	D3DXVECTOR3 vTargetDir = D3DXVECTOR3( 0.0f, 0.0f, 0.0f );

  000c0	0f 57 c0	 xorps	 xmm0, xmm0

; 445  : 
; 446  : 	if( m_CurDirKey != ioUserKeyInput::DKI_NONE )

  000c3	8b 83 ec 0b 00
	00		 mov	 eax, DWORD PTR [ebx+3052]
  000c9	f3 0f 11 45 e4	 movss	 DWORD PTR _vTargetDir$[ebp], xmm0
  000ce	f3 0f 11 45 e8	 movss	 DWORD PTR _vTargetDir$[ebp+4], xmm0
  000d3	f3 0f 11 45 ec	 movss	 DWORD PTR _vTargetDir$[ebp+8], xmm0
  000d8	85 c0		 test	 eax, eax
  000da	0f 84 9b 00 00
	00		 je	 $LN7@CheckMoveD

; 447  : 	{
; 448  : 		float fYawD = 180.0f + 45.0f * ( m_CurDirKey - ioUserKeyInput::DKI_UP );

  000e0	0f 57 c0	 xorps	 xmm0, xmm0
  000e3	48		 dec	 eax
  000e4	f3 0f 2a c0	 cvtsi2ss xmm0, eax
  000e8	0f 5a c0	 cvtps2pd xmm0, xmm0
  000eb	f2 0f 59 05 00
	00 00 00	 mulsd	 xmm0, QWORD PTR __real@4046800000000000
  000f3	f2 0f 58 05 00
	00 00 00	 addsd	 xmm0, QWORD PTR __real@4066800000000000

; 449  : 		fYawD = ioMath::ArrangeHead( fYawD );

  000fb	51		 push	 ecx
  000fc	66 0f 5a c0	 cvtpd2ps xmm0, xmm0
  00100	f3 0f 11 04 24	 movss	 DWORD PTR [esp], xmm0
  00105	ff 15 00 00 00
	00		 call	 DWORD PTR __imp_?ArrangeHead@ioMath@@SAMM@Z

; 450  : 
; 451  : 		float fYawR = DEGtoRAD( fYawD );

  0010b	dc 0d 00 00 00
	00		 fmul	 QWORD PTR __real@3f91df46a2526c7a

; 452  : 		D3DXQUATERNION qtRotate;
; 453  : 		D3DXQuaternionRotationYawPitchRoll( &qtRotate, fYawR, 0.0f, 0.0f );

  00111	0f 57 c0	 xorps	 xmm0, xmm0
  00114	f3 0f 11 04 24	 movss	 DWORD PTR [esp], xmm0
  00119	51		 push	 ecx
  0011a	d9 5d ac	 fstp	 DWORD PTR _fYawR$530946[ebp]
  0011d	51		 push	 ecx
  0011e	f3 0f 11 44 24
	04		 movss	 DWORD PTR [esp+4], xmm0
  00124	f3 0f 10 45 ac	 movss	 xmm0, DWORD PTR _fYawR$530946[ebp]
  00129	8d 45 84	 lea	 eax, DWORD PTR _qtRotate$530951[ebp]
  0012c	f3 0f 11 04 24	 movss	 DWORD PTR [esp], xmm0
  00131	50		 push	 eax
  00132	e8 00 00 00 00	 call	 _D3DXQuaternionRotationYawPitchRoll@16

; 454  : 
; 455  : 		vTargetDir = qtRotate * D3DXVECTOR3(0.0f, 0.0f, -FLOAT1);

  00137	b8 01 00 00 00	 mov	 eax, 1
  0013c	0f 57 c0	 xorps	 xmm0, xmm0
  0013f	89 45 ac	 mov	 DWORD PTR tv1069[ebp], eax
  00142	db 45 ac	 fild	 DWORD PTR tv1069[ebp]
  00145	f3 0f 11 45 d8	 movss	 DWORD PTR $T530953[ebp], xmm0
  0014a	f3 0f 11 45 dc	 movss	 DWORD PTR $T530953[ebp+4], xmm0
  0014f	85 c0		 test	 eax, eax
  00151	79 06		 jns	 SHORT $LN82@CheckMoveD
  00153	d8 05 00 00 00
	00		 fadd	 DWORD PTR __real@4f800000
$LN82@CheckMoveD:
  00159	8d 45 d8	 lea	 eax, DWORD PTR $T530953[ebp]
  0015c	d9 e0		 fchs
  0015e	50		 push	 eax
  0015f	d9 5d e0	 fstp	 DWORD PTR $T530953[ebp+8]
  00162	8d 45 84	 lea	 eax, DWORD PTR _qtRotate$530951[ebp]
  00165	50		 push	 eax
  00166	8d 45 cc	 lea	 eax, DWORD PTR $T530954[ebp]
  00169	50		 push	 eax
  0016a	ff 15 00 00 00
	00		 call	 DWORD PTR __imp_??D@YA?AUD3DXVECTOR3@@ABUD3DXQUATERNION@@ABU0@@Z
  00170	8b f0		 mov	 esi, eax
  00172	8d 7d e4	 lea	 edi, DWORD PTR _vTargetDir$[ebp]
  00175	a5		 movsd
  00176	a5		 movsd
  00177	83 c4 0c	 add	 esp, 12			; 0000000cH
  0017a	a5		 movsd
$LN7@CheckMoveD:

; 456  : 	}
; 457  : 
; 458  : 	D3DXVec3Normalize( &vTargetDir, &vTargetDir );

  0017b	8d 45 e4	 lea	 eax, DWORD PTR _vTargetDir$[ebp]
  0017e	50		 push	 eax
  0017f	50		 push	 eax
  00180	e8 00 00 00 00	 call	 _D3DXVec3Normalize@8

; 459  : 
; 460  : 	float fDotValue = (float)D3DXVec3Dot( &vCurMoveDir, &vTargetDir );

  00185	d9 45 f4	 fld	 DWORD PTR _vCurMoveDir$[ebp+4]
  00188	d8 4d e8	 fmul	 DWORD PTR _vTargetDir$[ebp+4]
  0018b	d9 45 e4	 fld	 DWORD PTR _vTargetDir$[ebp]
  0018e	d8 4d f0	 fmul	 DWORD PTR _vCurMoveDir$[ebp]
  00191	de c1		 faddp	 ST(1), ST(0)
  00193	d9 45 f8	 fld	 DWORD PTR _vCurMoveDir$[ebp+8]
  00196	d8 4d ec	 fmul	 DWORD PTR _vTargetDir$[ebp+8]
  00199	de c1		 faddp	 ST(1), ST(0)
  0019b	d9 5d b0	 fstp	 DWORD PTR _fDotValue$[ebp]

; 461  : 	float fGapAngle = RADtoDEG( acosf(fDotValue) );

  0019e	d9 45 b0	 fld	 DWORD PTR _fDotValue$[ebp]
  001a1	e8 00 00 00 00	 call	 __CIacos
  001a6	d9 5d ac	 fstp	 DWORD PTR tv1047[ebp]
  001a9	d9 45 ac	 fld	 DWORD PTR tv1047[ebp]
  001ac	51		 push	 ecx
  001ad	d9 1c 24	 fstp	 DWORD PTR [esp]
  001b0	e8 00 00 00 00	 call	 ??$RADtoDEG@M@@YAMM@Z	; RADtoDEG<float>
  001b5	d9 5d ac	 fstp	 DWORD PTR _fGapAngle$[ebp]
  001b8	59		 pop	 ecx

; 462  : 
; 463  : 	if( fDotValue >= FLOAT1 )

  001b9	b8 01 00 00 00	 mov	 eax, 1
  001be	d9 45 b0	 fld	 DWORD PTR _fDotValue$[ebp]
  001c1	89 45 a4	 mov	 DWORD PTR tv1040[ebp], eax
  001c4	db 45 a4	 fild	 DWORD PTR tv1040[ebp]
  001c7	85 c0		 test	 eax, eax
  001c9	79 06		 jns	 SHORT $LN83@CheckMoveD
  001cb	d8 05 00 00 00
	00		 fadd	 DWORD PTR __real@4f800000
$LN83@CheckMoveD:
  001d1	d9 c9		 fxch	 ST(1)
  001d3	df f1		 fcomip	 ST(1)
  001d5	dd d8		 fstp	 ST(0)
  001d7	0f 82 a6 00 00
	00		 jb	 $LN6@CheckMoveD

; 464  : 	{
; 465  : 		m_bTargetRot = true;
; 466  : 
; 467  : 		D3DXQUATERNION qtTargetRot;
; 468  : 		ioMath::CalcDirectionQuaternion( qtTargetRot, -vTargetDir );

  001dd	f3 0f 10 4d e4	 movss	 xmm1, DWORD PTR _vTargetDir$[ebp]
  001e2	c6 83 f0 0b 00
	00 01		 mov	 BYTE PTR [ebx+3056], 1
  001e9	f3 0f 10 05 00
	00 00 00	 movss	 xmm0, DWORD PTR __mask@@NegFloat@
  001f1	0f 57 c8	 xorps	 xmm1, xmm0
  001f4	f3 0f 11 4d d8	 movss	 DWORD PTR $T530965[ebp], xmm1
  001f9	f3 0f 10 4d e8	 movss	 xmm1, DWORD PTR _vTargetDir$[ebp+4]
  001fe	0f 57 c8	 xorps	 xmm1, xmm0
  00201	8d 45 d8	 lea	 eax, DWORD PTR $T530965[ebp]
  00204	50		 push	 eax
  00205	f3 0f 11 4d dc	 movss	 DWORD PTR $T530965[ebp+4], xmm1
  0020a	f3 0f 10 4d ec	 movss	 xmm1, DWORD PTR _vTargetDir$[ebp+8]
  0020f	8d 45 84	 lea	 eax, DWORD PTR _qtTargetRot$530964[ebp]
  00212	0f 57 c8	 xorps	 xmm1, xmm0
  00215	50		 push	 eax
  00216	f3 0f 11 4d e0	 movss	 DWORD PTR $T530965[ebp+8], xmm1
  0021b	ff 15 00 00 00
	00		 call	 DWORD PTR __imp_?CalcDirectionQuaternion@ioMath@@SAXAAUD3DXQUATERNION@@ABUD3DXVECTOR3@@@Z
  00221	59		 pop	 ecx
  00222	59		 pop	 ecx

; 469  : 
; 470  : 		m_vMoveDir = qtTargetRot * D3DXVECTOR3(0.0f, 0.0f, -FLOAT1);

  00223	b8 01 00 00 00	 mov	 eax, 1
  00228	0f 57 c0	 xorps	 xmm0, xmm0
  0022b	89 45 a4	 mov	 DWORD PTR tv1025[ebp], eax
  0022e	db 45 a4	 fild	 DWORD PTR tv1025[ebp]
  00231	f3 0f 11 45 d8	 movss	 DWORD PTR $T530967[ebp], xmm0
  00236	f3 0f 11 45 dc	 movss	 DWORD PTR $T530967[ebp+4], xmm0
  0023b	85 c0		 test	 eax, eax
  0023d	79 06		 jns	 SHORT $LN84@CheckMoveD
  0023f	d8 05 00 00 00
	00		 fadd	 DWORD PTR __real@4f800000
$LN84@CheckMoveD:
  00245	8d 45 d8	 lea	 eax, DWORD PTR $T530967[ebp]
  00248	d9 e0		 fchs
  0024a	50		 push	 eax
  0024b	d9 5d e0	 fstp	 DWORD PTR $T530967[ebp+8]
  0024e	8d 45 84	 lea	 eax, DWORD PTR _qtTargetRot$530964[ebp]
  00251	50		 push	 eax
  00252	8d 45 cc	 lea	 eax, DWORD PTR $T530968[ebp]
  00255	50		 push	 eax
  00256	ff 15 00 00 00
	00		 call	 DWORD PTR __imp_??D@YA?AUD3DXVECTOR3@@ABUD3DXQUATERNION@@ABU0@@Z
  0025c	8b f0		 mov	 esi, eax
  0025e	8d 83 dc 08 00
	00		 lea	 eax, DWORD PTR [ebx+2268]
  00264	8b f8		 mov	 edi, eax
  00266	a5		 movsd
  00267	83 c4 0c	 add	 esp, 12			; 0000000cH
  0026a	a5		 movsd

; 471  : 		D3DXVec3Normalize( &m_vMoveDir, &m_vMoveDir );

  0026b	50		 push	 eax
  0026c	50		 push	 eax
  0026d	a5		 movsd
  0026e	e8 00 00 00 00	 call	 _D3DXVec3Normalize@8

; 472  : 		
; 473  : 		SetOrientation( qtTargetRot );

  00273	8d 45 84	 lea	 eax, DWORD PTR _qtTargetRot$530964[ebp]
  00276	50		 push	 eax
  00277	8b cb		 mov	 ecx, ebx
  00279	e8 00 00 00 00	 call	 ?SetOrientation@ioWeapon@@QAEXABUD3DXQUATERNION@@@Z ; ioWeapon::SetOrientation

; 474  : 		return;

  0027e	e9 48 03 00 00	 jmp	 $LN79@CheckMoveD
$LN6@CheckMoveD:

; 475  : 	}
; 476  : 
; 477  : 	D3DXVECTOR3 vAxis;
; 478  : 	if( fDotValue <= -FLOAT1 )

  00283	b8 01 00 00 00	 mov	 eax, 1
  00288	d9 45 b0	 fld	 DWORD PTR _fDotValue$[ebp]
  0028b	89 45 a4	 mov	 DWORD PTR tv1007[ebp], eax
  0028e	db 45 a4	 fild	 DWORD PTR tv1007[ebp]
  00291	85 c0		 test	 eax, eax
  00293	79 06		 jns	 SHORT $LN85@CheckMoveD
  00295	d8 05 00 00 00
	00		 fadd	 DWORD PTR __real@4f800000
$LN85@CheckMoveD:
  0029b	d9 e0		 fchs
  0029d	df f1		 fcomip	 ST(1)
  0029f	dd d8		 fstp	 ST(0)
  002a1	0f 82 e6 01 00
	00		 jb	 $LN5@CheckMoveD

; 479  : 	{
; 480  : 		D3DXVECTOR3 vTmpAxis;
; 481  : 
; 482  : 		if( vCurMoveDir != ioMath::UNIT_Y )

  002a7	8b 0d 00 00 00
	00		 mov	 ecx, DWORD PTR __imp_?UNIT_Y@ioMath@@2UD3DXVECTOR3@@A
  002ad	f3 0f 10 11	 movss	 xmm2, DWORD PTR [ecx]
  002b1	f3 0f 10 5d f0	 movss	 xmm3, DWORD PTR _vCurMoveDir$[ebp]
  002b6	f3 0f 10 65 f8	 movss	 xmm4, DWORD PTR _vCurMoveDir$[ebp+8]
  002bb	f3 0f 10 6d f4	 movss	 xmm5, DWORD PTR _vCurMoveDir$[ebp+4]
  002c0	0f 57 c0	 xorps	 xmm0, xmm0
  002c3	0f 57 c9	 xorps	 xmm1, xmm1
  002c6	0f 5a c3	 cvtps2pd xmm0, xmm3
  002c9	0f 5a ca	 cvtps2pd xmm1, xmm2
  002cc	66 0f 2e c1	 ucomisd xmm0, xmm1
  002d0	9f		 lahf
  002d1	f6 c4 44	 test	 ah, 68			; 00000044H
  002d4	7a 30		 jp	 SHORT $LN54@CheckMoveD
  002d6	f3 0f 10 49 04	 movss	 xmm1, DWORD PTR [ecx+4]
  002db	0f 57 c0	 xorps	 xmm0, xmm0
  002de	0f 5a c5	 cvtps2pd xmm0, xmm5
  002e1	0f 5a c9	 cvtps2pd xmm1, xmm1
  002e4	66 0f 2e c1	 ucomisd xmm0, xmm1
  002e8	9f		 lahf
  002e9	f6 c4 44	 test	 ah, 68			; 00000044H
  002ec	7a 18		 jp	 SHORT $LN54@CheckMoveD
  002ee	f3 0f 10 49 08	 movss	 xmm1, DWORD PTR [ecx+8]
  002f3	0f 57 c0	 xorps	 xmm0, xmm0
  002f6	0f 5a c4	 cvtps2pd xmm0, xmm4
  002f9	0f 5a c9	 cvtps2pd xmm1, xmm1
  002fc	66 0f 2e c1	 ucomisd xmm0, xmm1
  00300	9f		 lahf
  00301	f6 c4 44	 test	 ah, 68			; 00000044H
  00304	7b 72		 jnp	 SHORT $LN4@CheckMoveD
$LN54@CheckMoveD:

; 483  : 		{
; 484  : 			D3DXVec3Cross( &vTmpAxis, &ioMath::UNIT_Y, &vCurMoveDir );

  00306	f3 0f 10 41 04	 movss	 xmm0, DWORD PTR [ecx+4]
  0030b	f3 0f 10 49 08	 movss	 xmm1, DWORD PTR [ecx+8]
  00310	0f 5a f8	 cvtps2pd xmm7, xmm0
  00313	0f 5a f4	 cvtps2pd xmm6, xmm4
  00316	0f 5a ed	 cvtps2pd xmm5, xmm5
  00319	f2 0f 59 f7	 mulsd	 xmm6, xmm7
  0031d	0f 5a e4	 cvtps2pd xmm4, xmm4
  00320	0f 5a c0	 cvtps2pd xmm0, xmm0
  00323	0f 5a f9	 cvtps2pd xmm7, xmm1
  00326	f2 0f 59 ef	 mulsd	 xmm5, xmm7
  0032a	f2 0f 5c f5	 subsd	 xmm6, xmm5
  0032e	0f 5a c9	 cvtps2pd xmm1, xmm1
  00331	66 0f 5a ee	 cvtpd2ps xmm5, xmm6
  00335	f3 0f 11 6d cc	 movss	 DWORD PTR _v$536644[ebp], xmm5
  0033a	0f 5a eb	 cvtps2pd xmm5, xmm3
  0033d	f2 0f 59 cd	 mulsd	 xmm1, xmm5
  00341	0f 5a ea	 cvtps2pd xmm5, xmm2
  00344	0f 5a d2	 cvtps2pd xmm2, xmm2
  00347	f2 0f 59 e5	 mulsd	 xmm4, xmm5
  0034b	f2 0f 5c cc	 subsd	 xmm1, xmm4
  0034f	66 0f 5a c9	 cvtpd2ps xmm1, xmm1
  00353	f3 0f 11 4d d0	 movss	 DWORD PTR _v$536644[ebp+4], xmm1
  00358	f3 0f 10 4d f4	 movss	 xmm1, DWORD PTR _vCurMoveDir$[ebp+4]
  0035d	0f 5a c9	 cvtps2pd xmm1, xmm1
  00360	f2 0f 59 ca	 mulsd	 xmm1, xmm2
  00364	0f 5a d3	 cvtps2pd xmm2, xmm3
  00367	f2 0f 59 c2	 mulsd	 xmm0, xmm2
  0036b	f2 0f 5c c8	 subsd	 xmm1, xmm0
  0036f	0f 57 c0	 xorps	 xmm0, xmm0
  00372	f2 0f 5a c1	 cvtsd2ss xmm0, xmm1

; 485  : 			D3DXVec3Normalize( &vTmpAxis, &vTmpAxis );
; 486  : 		}
; 487  : 		else

  00376	eb 71		 jmp	 SHORT $LN86@CheckMoveD
$LN4@CheckMoveD:

; 488  : 		{
; 489  : 			D3DXVec3Cross( &vTmpAxis, &ioMath::UNIT_X, &vCurMoveDir );

  00378	a1 00 00 00 00	 mov	 eax, DWORD PTR __imp_?UNIT_X@ioMath@@2UD3DXVECTOR3@@A
  0037d	f3 0f 10 40 04	 movss	 xmm0, DWORD PTR [eax+4]
  00382	f3 0f 10 48 08	 movss	 xmm1, DWORD PTR [eax+8]
  00387	0f 5a f0	 cvtps2pd xmm6, xmm0
  0038a	0f 5a d4	 cvtps2pd xmm2, xmm4
  0038d	f2 0f 59 d6	 mulsd	 xmm2, xmm6
  00391	0f 5a f9	 cvtps2pd xmm7, xmm1
  00394	0f 5a c9	 cvtps2pd xmm1, xmm1
  00397	0f 5a e4	 cvtps2pd xmm4, xmm4
  0039a	0f 5a f5	 cvtps2pd xmm6, xmm5
  0039d	f2 0f 59 f7	 mulsd	 xmm6, xmm7
  003a1	f2 0f 5c d6	 subsd	 xmm2, xmm6
  003a5	66 0f 5a d2	 cvtpd2ps xmm2, xmm2
  003a9	f3 0f 11 55 cc	 movss	 DWORD PTR _v$536655[ebp], xmm2
  003ae	f3 0f 10 10	 movss	 xmm2, DWORD PTR [eax]
  003b2	0f 5a c0	 cvtps2pd xmm0, xmm0
  003b5	0f 5a f3	 cvtps2pd xmm6, xmm3
  003b8	f2 0f 59 ce	 mulsd	 xmm1, xmm6
  003bc	0f 5a f2	 cvtps2pd xmm6, xmm2
  003bf	f2 0f 59 e6	 mulsd	 xmm4, xmm6
  003c3	f2 0f 5c cc	 subsd	 xmm1, xmm4
  003c7	66 0f 5a c9	 cvtpd2ps xmm1, xmm1
  003cb	0f 5a d2	 cvtps2pd xmm2, xmm2
  003ce	f3 0f 11 4d d0	 movss	 DWORD PTR _v$536655[ebp+4], xmm1
  003d3	0f 5a cd	 cvtps2pd xmm1, xmm5
  003d6	f2 0f 59 ca	 mulsd	 xmm1, xmm2
  003da	0f 5a d3	 cvtps2pd xmm2, xmm3
  003dd	f2 0f 59 c2	 mulsd	 xmm0, xmm2
  003e1	f2 0f 5c c8	 subsd	 xmm1, xmm0
  003e5	66 0f 5a c1	 cvtpd2ps xmm0, xmm1
$LN86@CheckMoveD:

; 490  : 			D3DXVec3Normalize( &vTmpAxis, &vTmpAxis );

  003e9	8d 45 d8	 lea	 eax, DWORD PTR _vTmpAxis$530972[ebp]
  003ec	f3 0f 11 45 d4	 movss	 DWORD PTR _v$536655[ebp+8], xmm0
  003f1	8b f8		 mov	 edi, eax
  003f3	8d 75 cc	 lea	 esi, DWORD PTR _v$536655[ebp]
  003f6	a5		 movsd
  003f7	a5		 movsd
  003f8	50		 push	 eax
  003f9	50		 push	 eax
  003fa	a5		 movsd
  003fb	e8 00 00 00 00	 call	 _D3DXVec3Normalize@8

; 491  : 		}
; 492  : 
; 493  : 		D3DXVec3Cross( &vAxis, &vTmpAxis, &vCurMoveDir );

  00400	f3 0f 10 45 dc	 movss	 xmm0, DWORD PTR _vTmpAxis$530972[ebp+4]
  00405	f3 0f 10 4d f8	 movss	 xmm1, DWORD PTR _vCurMoveDir$[ebp+8]
  0040a	f3 0f 10 55 f4	 movss	 xmm2, DWORD PTR _vCurMoveDir$[ebp+4]
  0040f	0f 5a c9	 cvtps2pd xmm1, xmm1
  00412	0f 5a c0	 cvtps2pd xmm0, xmm0
  00415	f2 0f 59 c1	 mulsd	 xmm0, xmm1
  00419	f3 0f 10 4d e0	 movss	 xmm1, DWORD PTR _vTmpAxis$530972[ebp+8]
  0041e	0f 5a c9	 cvtps2pd xmm1, xmm1
  00421	0f 5a d2	 cvtps2pd xmm2, xmm2
  00424	f2 0f 59 ca	 mulsd	 xmm1, xmm2
  00428	f3 0f 10 55 d8	 movss	 xmm2, DWORD PTR _vTmpAxis$530972[ebp]
  0042d	f2 0f 5c c1	 subsd	 xmm0, xmm1
  00431	f3 0f 10 4d f0	 movss	 xmm1, DWORD PTR _vCurMoveDir$[ebp]
  00436	f2 0f 5a c0	 cvtsd2ss xmm0, xmm0
  0043a	f3 0f 11 45 cc	 movss	 DWORD PTR _v$536666[ebp], xmm0
  0043f	f3 0f 10 45 e0	 movss	 xmm0, DWORD PTR _vTmpAxis$530972[ebp+8]
  00444	0f 5a c9	 cvtps2pd xmm1, xmm1
  00447	0f 5a c0	 cvtps2pd xmm0, xmm0
  0044a	f2 0f 59 c1	 mulsd	 xmm0, xmm1
  0044e	f3 0f 10 4d f8	 movss	 xmm1, DWORD PTR _vCurMoveDir$[ebp+8]
  00453	0f 5a c9	 cvtps2pd xmm1, xmm1
  00456	0f 5a d2	 cvtps2pd xmm2, xmm2
  00459	f2 0f 59 ca	 mulsd	 xmm1, xmm2
  0045d	f3 0f 10 55 f0	 movss	 xmm2, DWORD PTR _vCurMoveDir$[ebp]
  00462	f2 0f 5c c1	 subsd	 xmm0, xmm1
  00466	f3 0f 10 4d d8	 movss	 xmm1, DWORD PTR _vTmpAxis$530972[ebp]
  0046b	f2 0f 5a c0	 cvtsd2ss xmm0, xmm0
  0046f	f3 0f 11 45 d0	 movss	 DWORD PTR _v$536666[ebp+4], xmm0
  00474	f3 0f 10 45 f4	 movss	 xmm0, DWORD PTR _vCurMoveDir$[ebp+4]
  00479	0f 5a c9	 cvtps2pd xmm1, xmm1
  0047c	0f 5a c0	 cvtps2pd xmm0, xmm0
  0047f	f2 0f 59 c1	 mulsd	 xmm0, xmm1
  00483	f3 0f 10 4d dc	 movss	 xmm1, DWORD PTR _vTmpAxis$530972[ebp+4]

; 494  : 		D3DXVec3Normalize( &vAxis, &vAxis );
; 495  : 	}
; 496  : 	else

  00488	e9 88 00 00 00	 jmp	 $LN87@CheckMoveD
$LN5@CheckMoveD:

; 497  : 	{
; 498  : 		D3DXVec3Cross( &vAxis, &vCurMoveDir, &vTargetDir );

  0048d	f3 0f 10 45 f4	 movss	 xmm0, DWORD PTR _vCurMoveDir$[ebp+4]
  00492	f3 0f 10 4d ec	 movss	 xmm1, DWORD PTR _vTargetDir$[ebp+8]
  00497	f3 0f 10 55 e8	 movss	 xmm2, DWORD PTR _vTargetDir$[ebp+4]
  0049c	0f 5a c9	 cvtps2pd xmm1, xmm1
  0049f	0f 5a c0	 cvtps2pd xmm0, xmm0
  004a2	f2 0f 59 c1	 mulsd	 xmm0, xmm1
  004a6	f3 0f 10 4d f8	 movss	 xmm1, DWORD PTR _vCurMoveDir$[ebp+8]
  004ab	0f 5a c9	 cvtps2pd xmm1, xmm1
  004ae	0f 5a d2	 cvtps2pd xmm2, xmm2
  004b1	f2 0f 59 ca	 mulsd	 xmm1, xmm2
  004b5	f3 0f 10 55 f0	 movss	 xmm2, DWORD PTR _vCurMoveDir$[ebp]
  004ba	f2 0f 5c c1	 subsd	 xmm0, xmm1
  004be	f3 0f 10 4d e4	 movss	 xmm1, DWORD PTR _vTargetDir$[ebp]
  004c3	f2 0f 5a c0	 cvtsd2ss xmm0, xmm0
  004c7	f3 0f 11 45 cc	 movss	 DWORD PTR _v$536677[ebp], xmm0
  004cc	f3 0f 10 45 f8	 movss	 xmm0, DWORD PTR _vCurMoveDir$[ebp+8]
  004d1	0f 5a c9	 cvtps2pd xmm1, xmm1
  004d4	0f 5a c0	 cvtps2pd xmm0, xmm0
  004d7	f2 0f 59 c1	 mulsd	 xmm0, xmm1
  004db	f3 0f 10 4d ec	 movss	 xmm1, DWORD PTR _vTargetDir$[ebp+8]
  004e0	0f 5a c9	 cvtps2pd xmm1, xmm1
  004e3	0f 5a d2	 cvtps2pd xmm2, xmm2
  004e6	f2 0f 59 ca	 mulsd	 xmm1, xmm2
  004ea	f3 0f 10 55 e4	 movss	 xmm2, DWORD PTR _vTargetDir$[ebp]
  004ef	f2 0f 5c c1	 subsd	 xmm0, xmm1
  004f3	f3 0f 10 4d f0	 movss	 xmm1, DWORD PTR _vCurMoveDir$[ebp]
  004f8	f2 0f 5a c0	 cvtsd2ss xmm0, xmm0
  004fc	f3 0f 11 45 d0	 movss	 DWORD PTR _v$536677[ebp+4], xmm0
  00501	f3 0f 10 45 e8	 movss	 xmm0, DWORD PTR _vTargetDir$[ebp+4]
  00506	0f 5a c9	 cvtps2pd xmm1, xmm1
  00509	0f 5a c0	 cvtps2pd xmm0, xmm0
  0050c	f2 0f 59 c1	 mulsd	 xmm0, xmm1
  00510	f3 0f 10 4d f4	 movss	 xmm1, DWORD PTR _vCurMoveDir$[ebp+4]
$LN87@CheckMoveD:

; 499  : 		D3DXVec3Normalize( &vAxis, &vAxis );

  00515	8d 45 c0	 lea	 eax, DWORD PTR _vAxis$[ebp]
  00518	0f 5a d2	 cvtps2pd xmm2, xmm2
  0051b	0f 5a c9	 cvtps2pd xmm1, xmm1
  0051e	f2 0f 59 ca	 mulsd	 xmm1, xmm2
  00522	f2 0f 5c c1	 subsd	 xmm0, xmm1
  00526	f2 0f 5a c0	 cvtsd2ss xmm0, xmm0
  0052a	f3 0f 11 45 d4	 movss	 DWORD PTR _v$536677[ebp+8], xmm0
  0052f	8b f8		 mov	 edi, eax
  00531	8d 75 cc	 lea	 esi, DWORD PTR _v$536677[ebp]
  00534	a5		 movsd
  00535	a5		 movsd
  00536	50		 push	 eax
  00537	50		 push	 eax
  00538	a5		 movsd
  00539	e8 00 00 00 00	 call	 _D3DXVec3Normalize@8

; 500  : 	}
; 501  : 
; 502  : 	float fCurRotateAngle = fRotateAngle;

  0053e	f3 0f 10 4d a8	 movss	 xmm1, DWORD PTR _fRotateAngle$[ebp]

; 503  : 	if( fGapAngle <= fRotateAngle )

  00543	f3 0f 10 45 ac	 movss	 xmm0, DWORD PTR _fGapAngle$[ebp]
  00548	f3 0f 11 4d b0	 movss	 DWORD PTR _fCurRotateAngle$[ebp], xmm1
  0054d	0f 5a d0	 cvtps2pd xmm2, xmm0
  00550	0f 5a c9	 cvtps2pd xmm1, xmm1
  00553	66 0f 2f ca	 comisd	 xmm1, xmm2
  00557	72 05		 jb	 SHORT $LN1@CheckMoveD

; 504  : 		fCurRotateAngle = fGapAngle;

  00559	f3 0f 11 45 b0	 movss	 DWORD PTR _fCurRotateAngle$[ebp], xmm0
$LN1@CheckMoveD:

; 505  : 
; 506  : 	D3DXQUATERNION qtNewRot;
; 507  : 	D3DXQuaternionRotationAxis( &qtNewRot, &vAxis, DEGtoRAD(fCurRotateAngle) );

  0055e	f3 0f 10 45 b0	 movss	 xmm0, DWORD PTR _fCurRotateAngle$[ebp]
  00563	0f 5a c0	 cvtps2pd xmm0, xmm0
  00566	f2 0f 59 05 00
	00 00 00	 mulsd	 xmm0, QWORD PTR __real@3f91df46a2526c7a
  0056e	51		 push	 ecx
  0056f	f2 0f 5a c0	 cvtsd2ss xmm0, xmm0
  00573	f3 0f 11 04 24	 movss	 DWORD PTR [esp], xmm0
  00578	8d 45 c0	 lea	 eax, DWORD PTR _vAxis$[ebp]
  0057b	50		 push	 eax
  0057c	8d 45 94	 lea	 eax, DWORD PTR _qtNewRot$[ebp]
  0057f	50		 push	 eax
  00580	e8 00 00 00 00	 call	 _D3DXQuaternionRotationAxis@12

; 508  : 
; 509  : 	D3DXVECTOR3 vNewDir = qtNewRot * vCurMoveDir;

  00585	8d 45 f0	 lea	 eax, DWORD PTR _vCurMoveDir$[ebp]
  00588	50		 push	 eax
  00589	8d 45 94	 lea	 eax, DWORD PTR _qtNewRot$[ebp]
  0058c	50		 push	 eax
  0058d	8d 45 b4	 lea	 eax, DWORD PTR _vNewDir$[ebp]
  00590	50		 push	 eax
  00591	ff 15 00 00 00
	00		 call	 DWORD PTR __imp_??D@YA?AUD3DXVECTOR3@@ABUD3DXQUATERNION@@ABU0@@Z
  00597	83 c4 0c	 add	 esp, 12			; 0000000cH

; 510  : 	D3DXVec3Normalize( &vNewDir, &vNewDir );

  0059a	8d 45 b4	 lea	 eax, DWORD PTR _vNewDir$[ebp]
  0059d	50		 push	 eax
  0059e	50		 push	 eax
  0059f	e8 00 00 00 00	 call	 _D3DXVec3Normalize@8

; 511  : 
; 512  : 	m_vMoveDir = vNewDir;
; 513  : 
; 514  : 	GetParentSceneNode()->Rotate( vAxis, fCurRotateAngle );

  005a4	f3 0f 10 45 b0	 movss	 xmm0, DWORD PTR _fCurRotateAngle$[ebp]
  005a9	8d bb dc 08 00
	00		 lea	 edi, DWORD PTR [ebx+2268]
  005af	8b 5b 04	 mov	 ebx, DWORD PTR [ebx+4]
  005b2	8d 75 b4	 lea	 esi, DWORD PTR _vNewDir$[ebp]
  005b5	a5		 movsd
  005b6	a5		 movsd
  005b7	6a 01		 push	 1
  005b9	51		 push	 ecx
  005ba	8d 4d c0	 lea	 ecx, DWORD PTR _vAxis$[ebp]
  005bd	f3 0f 11 04 24	 movss	 DWORD PTR [esp], xmm0
  005c2	a5		 movsd
  005c3	8b 03		 mov	 eax, DWORD PTR [ebx]
  005c5	51		 push	 ecx
  005c6	8b cb		 mov	 ecx, ebx
  005c8	ff 50 50	 call	 DWORD PTR [eax+80]
$LN79@CheckMoveD:
  005cb	5f		 pop	 edi
$LN78@CheckMoveD:
  005cc	5e		 pop	 esi
$LN12@CheckMoveD:

; 515  : 
; 516  : 	
; 517  : }

  005cd	8b 4d fc	 mov	 ecx, DWORD PTR __$ArrayPad$[ebp]
  005d0	33 cd		 xor	 ecx, ebp
  005d2	5b		 pop	 ebx
  005d3	e8 00 00 00 00	 call	 @__security_check_cookie@4
  005d8	c9		 leave
  005d9	c3		 ret	 0
?CheckMoveDir@ioControlMeshWeapon@@IAEXXZ ENDP		; ioControlMeshWeapon::CheckMoveDir
_TEXT	ENDS
PUBLIC	__real@00000000
PUBLIC	??4?$CEncrypt@M@@QAE_NAAV0@@Z			; CEncrypt<float>::operator=
;	COMDAT __real@00000000
; File d:\lost saga for developer\youtube\tutorial\source\src\lsclient\encryptvalue.h
CONST	SEGMENT
__real@00000000 DD 000000000r			; 0
; Function compile flags: /Ogsp
CONST	ENDS
;	COMDAT ??4?$CEncrypt@M@@QAE_NAAV0@@Z
_TEXT	SEGMENT
_value$536710 = -4					; size = 4
_value$ = 8						; size = 4
_inValue$ = 8						; size = 4
??4?$CEncrypt@M@@QAE_NAAV0@@Z PROC			; CEncrypt<float>::operator=, COMDAT
; _this$ = ecx

; 3314 : 	 {

  00000	55		 push	 ebp
  00001	8b ec		 mov	 ebp, esp
  00003	51		 push	 ecx
  00004	56		 push	 esi

; 3315 : 		 type value = inValue;

  00005	8d 45 fc	 lea	 eax, DWORD PTR _value$536710[ebp]
  00008	8b f1		 mov	 esi, ecx
  0000a	8b 4d 08	 mov	 ecx, DWORD PTR _inValue$[ebp]
  0000d	50		 push	 eax
  0000e	e8 00 00 00 00	 call	 ?DecryptValueToPool@?$CEncrypt@M@@QAEXPAM@Z ; CEncrypt<float>::DecryptValueToPool
  00013	f3 0f 10 45 fc	 movss	 xmm0, DWORD PTR _value$536710[ebp]

; 3316 : 		 EncryptValueToPool((char*)&value);

  00018	8d 45 08	 lea	 eax, DWORD PTR _value$[ebp]
  0001b	50		 push	 eax
  0001c	8b ce		 mov	 ecx, esi
  0001e	f3 0f 11 45 08	 movss	 DWORD PTR _value$[ebp], xmm0
  00023	e8 00 00 00 00	 call	 ?EncryptValueToPool@?$CEncrypt@M@@AAEXPBD@Z ; CEncrypt<float>::EncryptValueToPool

; 3317 : #ifdef _NOTUSE
; 3318 : 		 m_value = inValue;
; 3319 : 		 Debug();
; 3320 : #endif
; 3321 : 		 return value;

  00028	f3 0f 10 45 08	 movss	 xmm0, DWORD PTR _value$[ebp]
  0002d	0f 2e 05 00 00
	00 00		 ucomiss xmm0, DWORD PTR __real@00000000
  00034	9f		 lahf
  00035	5e		 pop	 esi
  00036	f6 c4 44	 test	 ah, 68			; 00000044H
  00039	7b 04		 jnp	 SHORT $LN3@operator@6
  0003b	b0 01		 mov	 al, 1
  0003d	eb 02		 jmp	 SHORT $LN4@operator@6
$LN3@operator@6:
  0003f	32 c0		 xor	 al, al
$LN4@operator@6:

; 3322 : 	 }

  00041	c9		 leave
  00042	c2 04 00	 ret	 4
??4?$CEncrypt@M@@QAE_NAAV0@@Z ENDP			; CEncrypt<float>::operator=
_TEXT	ENDS
PUBLIC	??4?$CEncrypt@K@@QAE_NAAV0@@Z			; CEncrypt<unsigned long>::operator=
; Function compile flags: /Ogsp
;	COMDAT ??4?$CEncrypt@K@@QAE_NAAV0@@Z
_TEXT	SEGMENT
_value$536716 = -4					; size = 4
_value$ = 8						; size = 4
_inValue$ = 8						; size = 4
??4?$CEncrypt@K@@QAE_NAAV0@@Z PROC			; CEncrypt<unsigned long>::operator=, COMDAT
; _this$ = ecx

; 3300 : 	 {

  00000	55		 push	 ebp
  00001	8b ec		 mov	 ebp, esp
  00003	51		 push	 ecx
  00004	56		 push	 esi

; 3301 : 		 type value = inValue;

  00005	8d 45 fc	 lea	 eax, DWORD PTR _value$536716[ebp]
  00008	8b f1		 mov	 esi, ecx
  0000a	8b 4d 08	 mov	 ecx, DWORD PTR _inValue$[ebp]
  0000d	50		 push	 eax
  0000e	e8 00 00 00 00	 call	 ?DecryptValueToPool@?$CEncrypt@K@@QAEXPAK@Z ; CEncrypt<unsigned long>::DecryptValueToPool
  00013	8b 45 fc	 mov	 eax, DWORD PTR _value$536716[ebp]
  00016	89 45 08	 mov	 DWORD PTR _value$[ebp], eax

; 3302 : 		 EncryptValueToPool((char*)&value);

  00019	8d 45 08	 lea	 eax, DWORD PTR _value$[ebp]
  0001c	50		 push	 eax
  0001d	8b ce		 mov	 ecx, esi
  0001f	e8 00 00 00 00	 call	 ?EncryptValueToPool@?$CEncrypt@K@@AAEXPBD@Z ; CEncrypt<unsigned long>::EncryptValueToPool

; 3303 : #ifdef _NOTUSE
; 3304 : 		 m_value = inValue;
; 3305 : 		 Debug();
; 3306 : #endif
; 3307 : 		 return value;

  00024	83 7d 08 00	 cmp	 DWORD PTR _value$[ebp], 0
  00028	5e		 pop	 esi
  00029	0f 95 c0	 setne	 al

; 3308 : 	 }

  0002c	c9		 leave
  0002d	c2 04 00	 ret	 4
??4?$CEncrypt@K@@QAE_NAAV0@@Z ENDP			; CEncrypt<unsigned long>::operator=
_TEXT	ENDS
PUBLIC	?GetTeam@ioPlayEntity@@QBE?AW4TeamType@@XZ	; ioPlayEntity::GetTeam
; Function compile flags: /Ogsp
; File d:\lost saga for developer\youtube\tutorial\source\src\lsclient\ioplayentity.h
;	COMDAT ?GetTeam@ioPlayEntity@@QBE?AW4TeamType@@XZ
_TEXT	SEGMENT
_value$536722 = -4					; size = 4
?GetTeam@ioPlayEntity@@QBE?AW4TeamType@@XZ PROC		; ioPlayEntity::GetTeam, COMDAT
; _this$ = ecx

; 107  : 	inline TeamType GetTeam() const { return m_TeamType; }

  00000	55		 push	 ebp
  00001	8b ec		 mov	 ebp, esp
  00003	51		 push	 ecx
  00004	8d 45 fc	 lea	 eax, DWORD PTR _value$536722[ebp]
  00007	50		 push	 eax
  00008	81 c1 90 00 00
	00		 add	 ecx, 144		; 00000090H
  0000e	e8 00 00 00 00	 call	 ?DecryptValueToPool@?$CEncrypt@W4TeamType@@@@QAEXPAW4TeamType@@@Z ; CEncrypt<enum TeamType>::DecryptValueToPool
  00013	8b 45 fc	 mov	 eax, DWORD PTR _value$536722[ebp]
  00016	c9		 leave
  00017	c3		 ret	 0
?GetTeam@ioPlayEntity@@QBE?AW4TeamType@@XZ ENDP		; ioPlayEntity::GetTeam
_TEXT	ENDS
PUBLIC	?_Tidy@?$basic_string@DU?$char_traits@D@std@@V?$allocator@D@2@@std@@QAEX_NI@Z ; std::basic_string<char,std::char_traits<char>,std::allocator<char> >::_Tidy
; Function compile flags: /Ogsp
; File c:\program files (x86)\microsoft visual studio 10.0\vc\include\xstring
;	COMDAT ?_Tidy@?$basic_string@DU?$char_traits@D@std@@V?$allocator@D@2@@std@@QAEX_NI@Z
_TEXT	SEGMENT
__Built$ = 8						; size = 1
__Newsize$ = 12						; size = 4
?_Tidy@?$basic_string@DU?$char_traits@D@std@@V?$allocator@D@2@@std@@QAEX_NI@Z PROC ; std::basic_string<char,std::char_traits<char>,std::allocator<char> >::_Tidy, COMDAT
; _this$ = ecx

; 1988 : 		{	// initialize buffer, deallocating any storage

  00000	55		 push	 ebp
  00001	8b ec		 mov	 ebp, esp

; 1989 : 		if (!_Built)

  00003	80 7d 08 00	 cmp	 BYTE PTR __Built$[ebp], 0
  00007	56		 push	 esi
  00008	57		 push	 edi
  00009	8b 7d 0c	 mov	 edi, DWORD PTR __Newsize$[ebp]
  0000c	8b f1		 mov	 esi, ecx
  0000e	74 20		 je	 SHORT $LN9@Tidy

; 1990 : 			;
; 1991 : 		else if (this->_BUF_SIZE <= this->_Myres)

  00010	83 7e 14 10	 cmp	 DWORD PTR [esi+20], 16	; 00000010H
  00014	72 1a		 jb	 SHORT $LN9@Tidy

; 1992 : 			{	// copy any leftovers to small buffer and deallocate
; 1993 : 			_Elem *_Ptr = this->_Bx._Ptr;

  00016	53		 push	 ebx
  00017	8b 1e		 mov	 ebx, DWORD PTR [esi]

; 1994 : 			if (0 < _Newsize)

  00019	85 ff		 test	 edi, edi
  0001b	74 0b		 je	 SHORT $LN7@Tidy

; 1995 : 				_Traits::copy(this->_Bx._Buf, _Ptr, _Newsize);

  0001d	57		 push	 edi
  0001e	53		 push	 ebx
  0001f	56		 push	 esi
  00020	e8 00 00 00 00	 call	 _memcpy
  00025	83 c4 0c	 add	 esp, 12			; 0000000cH
$LN7@Tidy:

; 1996 : 			this->_Alval.deallocate(_Ptr, this->_Myres + 1);

  00028	53		 push	 ebx
  00029	e8 00 00 00 00	 call	 ??3@YAXPAX@Z		; operator delete
  0002e	59		 pop	 ecx
  0002f	5b		 pop	 ebx
$LN9@Tidy:

; 1997 : 			}
; 1998 : 		this->_Myres = this->_BUF_SIZE - 1;
; 1999 : 		_Eos(_Newsize);

  00030	89 7e 10	 mov	 DWORD PTR [esi+16], edi
  00033	c7 46 14 0f 00
	00 00		 mov	 DWORD PTR [esi+20], 15	; 0000000fH
  0003a	c6 04 37 00	 mov	 BYTE PTR [edi+esi], 0
  0003e	5f		 pop	 edi
  0003f	5e		 pop	 esi

; 2000 : 		}

  00040	5d		 pop	 ebp
  00041	c2 08 00	 ret	 8
?_Tidy@?$basic_string@DU?$char_traits@D@std@@V?$allocator@D@2@@std@@QAEX_NI@Z ENDP ; std::basic_string<char,std::char_traits<char>,std::allocator<char> >::_Tidy
_TEXT	ENDS
EXTRN	__imp_??4ioHashString@@QAEAAV0@ABV0@@Z:PROC
EXTRN	?GetOwnerChar@ioPlayStage@@QAEPAVioBaseChar@@XZ:PROC ; ioPlayStage::GetOwnerChar
EXTRN	__imp_??0ioHashString@@QAE@ABV0@@Z:PROC
EXTRN	?InitResource@ioWeapon@@UAE_NXZ:PROC		; ioWeapon::InitResource
;	COMDAT xdata$x
; File d:\lost saga for developer\youtube\tutorial\source\src\lsclient\encryptvalue.h
xdata$x	SEGMENT
__unwindtable$?InitResource@ioControlMeshWeapon@@UAE_NXZ DD 0ffffffffH
	DD	FLAT:__unwindfunclet$?InitResource@ioControlMeshWeapon@@UAE_NXZ$0
__ehfuncinfo$?InitResource@ioControlMeshWeapon@@UAE_NXZ DD 019930522H
	DD	01H
	DD	FLAT:__unwindtable$?InitResource@ioControlMeshWeapon@@UAE_NXZ
	DD	2 DUP(00H)
	DD	2 DUP(00H)
	DD	00H
	DD	01H
; Function compile flags: /Ogsp
; File d:\lost saga for developer\youtube\tutorial\source\src\lsclient\iocontrolmeshweapon.cpp
xdata$x	ENDS
;	COMDAT ?InitResource@ioControlMeshWeapon@@UAE_NXZ
_TEXT	SEGMENT
_szFireMesh$530600 = -36				; size = 16
_value$536786 = -20					; size = 4
_value$536773 = -16					; size = 4
__$EHRec$ = -12						; size = 12
?InitResource@ioControlMeshWeapon@@UAE_NXZ PROC		; ioControlMeshWeapon::InitResource, COMDAT
; _this$ = ecx

; 43   : {

  00000	6a 18		 push	 24			; 00000018H
  00002	b8 00 00 00 00	 mov	 eax, __ehhandler$?InitResource@ioControlMeshWeapon@@UAE_NXZ
  00007	e8 00 00 00 00	 call	 __EH_prolog3
  0000c	8b f1		 mov	 esi, ecx

; 44   : 	if( ioWeapon::InitResource() )

  0000e	e8 00 00 00 00	 call	 ?InitResource@ioWeapon@@UAE_NXZ ; ioWeapon::InitResource
  00013	84 c0		 test	 al, al
  00015	74 43		 je	 SHORT $LN6@InitResour

; 45   : 	{
; 46   : 		DestroyResource();

  00017	8b 06		 mov	 eax, DWORD PTR [esi]
  00019	6a 00		 push	 0
  0001b	8b ce		 mov	 ecx, esi
  0001d	ff 90 9c 00 00
	00		 call	 DWORD PTR [eax+156]

; 47   : 		ioHashString szFireMesh = GetAttribute()->m_WeaponEffect;

  00023	8b 06		 mov	 eax, DWORD PTR [esi]
  00025	8b ce		 mov	 ecx, esi
  00027	ff 90 3c 01 00
	00		 call	 DWORD PTR [eax+316]
  0002d	05 34 01 00 00	 add	 eax, 308		; 00000134H
  00032	50		 push	 eax
  00033	8d 4d dc	 lea	 ecx, DWORD PTR _szFireMesh$530600[ebp]
  00036	ff 15 00 00 00
	00		 call	 DWORD PTR __imp_??0ioHashString@@QAE@ABV0@@Z
  0003c	83 65 fc 00	 and	 DWORD PTR __$EHRec$[ebp+8], 0

; 48   : 
; 49   : 		ioBaseChar *pOwner = GetOwner();

  00040	8b ce		 mov	 ecx, esi
  00042	e8 00 00 00 00	 call	 ?GetOwner@ioWeapon@@QBEPAVioBaseChar@@XZ ; ioWeapon::GetOwner
  00047	8b f8		 mov	 edi, eax

; 50   : 		if ( !pOwner )

  00049	85 ff		 test	 edi, edi
  0004b	75 15		 jne	 SHORT $LN5@InitResour
$LN23@InitResour:

; 51   : 			return false;

  0004d	83 4d fc ff	 or	 DWORD PTR __$EHRec$[ebp+8], -1
  00051	8d 4d dc	 lea	 ecx, DWORD PTR _szFireMesh$530600[ebp]
  00054	ff 15 00 00 00
	00		 call	 DWORD PTR __imp_??1ioHashString@@QAE@XZ
$LN6@InitResour:

; 70   : 	}
; 71   : 
; 72   : 	return false;

  0005a	32 c0		 xor	 al, al
$LN7@InitResour:

; 73   : }

  0005c	e8 00 00 00 00	 call	 __EH_epilog3
  00061	c3		 ret	 0
$LN5@InitResour:

; 52   : 
; 53   : 		ioPlayStage *pStage = pOwner->GetCreator();

  00062	8b 8f 44 03 00
	00		 mov	 ecx, DWORD PTR [edi+836]

; 54   : 		if( !pStage )

  00068	85 c9		 test	 ecx, ecx

; 55   : 			return false;

  0006a	74 e1		 je	 SHORT $LN23@InitResour

; 56   : 		ioBaseChar *pPlayChar = pStage->GetOwnerChar();

  0006c	e8 00 00 00 00	 call	 ?GetOwnerChar@ioPlayStage@@QAEPAVioBaseChar@@XZ ; ioPlayStage::GetOwnerChar
  00071	8b d8		 mov	 ebx, eax

; 57   : 		if ( !pPlayChar )

  00073	85 db		 test	 ebx, ebx
  00075	75 13		 jne	 SHORT $LN3@InitResour
  00077	32 db		 xor	 bl, bl
$LN20@InitResour:

; 58   : 			return false;

  00079	83 4d fc ff	 or	 DWORD PTR __$EHRec$[ebp+8], -1
  0007d	8d 4d dc	 lea	 ecx, DWORD PTR _szFireMesh$530600[ebp]
  00080	ff 15 00 00 00
	00		 call	 DWORD PTR __imp_??1ioHashString@@QAE@XZ
  00086	8a c3		 mov	 al, bl
  00088	eb d2		 jmp	 SHORT $LN7@InitResour
$LN3@InitResour:

; 59   : 
; 60   : 		if ( pOwner->GetTeam() == pPlayChar->GetTeam() )

  0008a	8d 45 f0	 lea	 eax, DWORD PTR _value$536773[ebp]
  0008d	8d 8f 90 00 00
	00		 lea	 ecx, DWORD PTR [edi+144]
  00093	50		 push	 eax
  00094	e8 00 00 00 00	 call	 ?DecryptValueToPool@?$CEncrypt@W4TeamType@@@@QAEXPAW4TeamType@@@Z ; CEncrypt<enum TeamType>::DecryptValueToPool
  00099	8d 45 ec	 lea	 eax, DWORD PTR _value$536786[ebp]
  0009c	8d 8b 90 00 00
	00		 lea	 ecx, DWORD PTR [ebx+144]
  000a2	50		 push	 eax
  000a3	e8 00 00 00 00	 call	 ?DecryptValueToPool@?$CEncrypt@W4TeamType@@@@QAEXPAW4TeamType@@@Z ; CEncrypt<enum TeamType>::DecryptValueToPool
  000a8	8b 45 f0	 mov	 eax, DWORD PTR _value$536773[ebp]
  000ab	3b 45 ec	 cmp	 eax, DWORD PTR _value$536786[ebp]

; 61   : 		{
; 62   : 			szFireMesh = m_szOwnerTeamWeaponEffect;

  000ae	8d 4d dc	 lea	 ecx, DWORD PTR _szFireMesh$530600[ebp]
  000b1	8d 86 88 0c 00
	00		 lea	 eax, DWORD PTR [esi+3208]
  000b7	74 06		 je	 SHORT $LN22@InitResour

; 63   : 		}
; 64   : 		else 
; 65   : 		{
; 66   : 			szFireMesh = m_szOtherTeamWeaponEffect;

  000b9	8d 86 98 0c 00
	00		 lea	 eax, DWORD PTR [esi+3224]
$LN22@InitResour:
  000bf	50		 push	 eax
  000c0	ff 15 00 00 00
	00		 call	 DWORD PTR __imp_??4ioHashString@@QAEAAV0@ABV0@@Z

; 67   : 		}
; 68   : 
; 69   : 		return SetMesh( szFireMesh );

  000c6	8d 45 dc	 lea	 eax, DWORD PTR _szFireMesh$530600[ebp]
  000c9	50		 push	 eax
  000ca	8b ce		 mov	 ecx, esi
  000cc	e8 00 00 00 00	 call	 ?SetMesh@ioControlMeshWeapon@@IAE_NABVioHashString@@@Z ; ioControlMeshWeapon::SetMesh
  000d1	8a d8		 mov	 bl, al
  000d3	eb a4		 jmp	 SHORT $LN20@InitResour
_TEXT	ENDS
;	COMDAT text$x
text$x	SEGMENT
__unwindfunclet$?InitResource@ioControlMeshWeapon@@UAE_NXZ$0:
  00000	8d 4d dc	 lea	 ecx, DWORD PTR _szFireMesh$530600[ebp]
  00003	ff 25 00 00 00
	00		 jmp	 DWORD PTR __imp_??1ioHashString@@QAE@XZ
__ehhandler$?InitResource@ioControlMeshWeapon@@UAE_NXZ:
  00009	8b 54 24 08	 mov	 edx, DWORD PTR [esp+8]
  0000d	8d 42 0c	 lea	 eax, DWORD PTR [edx+12]
  00010	8b 4a d8	 mov	 ecx, DWORD PTR [edx-40]
  00013	33 c8		 xor	 ecx, eax
  00015	e8 00 00 00 00	 call	 @__security_check_cookie@4
  0001a	b8 00 00 00 00	 mov	 eax, OFFSET __ehfuncinfo$?InitResource@ioControlMeshWeapon@@UAE_NXZ
  0001f	e9 00 00 00 00	 jmp	 ___CxxFrameHandler3
text$x	ENDS
?InitResource@ioControlMeshWeapon@@UAE_NXZ ENDP		; ioControlMeshWeapon::InitResource
PUBLIC	__$ArrayPad$
PUBLIC	?CheckMoveKey@ioControlMeshWeapon@@IAEXMK@Z	; ioControlMeshWeapon::CheckMoveKey
EXTRN	??1SP2Packet@@UAE@XZ:PROC			; SP2Packet::~SP2Packet
EXTRN	?SendToAllPlayingUser@P2PNetwork@@YAXAAVSP2Packet@@PAVioBaseChar@@@Z:PROC ; P2PNetwork::SendToAllPlayingUser
EXTRN	??6SP2Packet@@QAEAAV0@ABUD3DXVECTOR3@@@Z:PROC	; SP2Packet::operator<<
EXTRN	??6SP2Packet@@QAEAAV0@_N@Z:PROC			; SP2Packet::operator<<
EXTRN	??6SP2Packet@@QAEAAV0@H@Z:PROC			; SP2Packet::operator<<
EXTRN	??6SP2Packet@@QAEAAV0@K@Z:PROC			; SP2Packet::operator<<
EXTRN	??6SP2Packet@@QAEAAV0@ABVioHashString@@@Z:PROC	; SP2Packet::operator<<
EXTRN	??0SP2Packet@@QAE@K@Z:PROC			; SP2Packet::SP2Packet
EXTRN	?IsAttackKey@ioBaseChar@@QBE_NXZ:PROC		; ioBaseChar::IsAttackKey
EXTRN	?CheckCurDirKey@ioBaseChar@@QAE?AW4DirKeyInput@ioUserKeyInput@@XZ:PROC ; ioBaseChar::CheckCurDirKey
EXTRN	__chkstk:PROC
;	COMDAT xdata$x
; File d:\lost saga for developer\youtube\tutorial\source\src\lsclient\ioweapon.h
xdata$x	SEGMENT
__unwindtable$?CheckMoveKey@ioControlMeshWeapon@@IAEXMK@Z DD 0ffffffffH
	DD	FLAT:__unwindfunclet$?CheckMoveKey@ioControlMeshWeapon@@IAEXMK@Z$0
__ehfuncinfo$?CheckMoveKey@ioControlMeshWeapon@@IAEXMK@Z DD 019930522H
	DD	01H
	DD	FLAT:__unwindtable$?CheckMoveKey@ioControlMeshWeapon@@IAEXMK@Z
	DD	2 DUP(00H)
	DD	2 DUP(00H)
	DD	00H
	DD	01H
; Function compile flags: /Ogsp
; File d:\lost saga for developer\youtube\tutorial\source\src\lsclient\iocontrolmeshweapon.cpp
xdata$x	ENDS
;	COMDAT ?CheckMoveKey@ioControlMeshWeapon@@IAEXMK@Z
_TEXT	SEGMENT
_pOwner$ = -32824					; size = 4
_bSetAttackKey$ = -32820				; size = 1
_value$536828 = -32816					; size = 4
_value$536824 = -32816					; size = 4
_value$536819 = -32816					; size = 4
_value$536815 = -32816					; size = 4
_value$536810 = -32816					; size = 4
_value$536806 = -32816					; size = 4
$T536801 = -32816					; size = 4
_bChange$ = -32809					; size = 1
_kPacket$530926 = -32808				; size = 32792
__$ArrayPad$ = -16					; size = 4
__$EHRec$ = -12						; size = 12
_fTimePerSec$ = 8					; size = 4
_dwCurTime$ = 12					; size = 4
?CheckMoveKey@ioControlMeshWeapon@@IAEXMK@Z PROC	; ioControlMeshWeapon::CheckMoveKey, COMDAT
; _this$ = ecx

; 375  : {

  00000	55		 push	 ebp
  00001	8b ec		 mov	 ebp, esp
  00003	6a ff		 push	 -1
  00005	68 00 00 00 00	 push	 __ehhandler$?CheckMoveKey@ioControlMeshWeapon@@IAEXMK@Z
  0000a	64 a1 00 00 00
	00		 mov	 eax, DWORD PTR fs:0
  00010	50		 push	 eax
  00011	b8 2c 80 00 00	 mov	 eax, 32812		; 0000802cH
  00016	e8 00 00 00 00	 call	 __chkstk
  0001b	a1 00 00 00 00	 mov	 eax, DWORD PTR ___security_cookie
  00020	33 c5		 xor	 eax, ebp
  00022	89 45 f0	 mov	 DWORD PTR __$ArrayPad$[ebp], eax
  00025	53		 push	 ebx
  00026	56		 push	 esi
  00027	57		 push	 edi
  00028	50		 push	 eax
  00029	8d 45 f4	 lea	 eax, DWORD PTR __$EHRec$[ebp]
  0002c	64 a3 00 00 00
	00		 mov	 DWORD PTR fs:0, eax
  00032	8b f1		 mov	 esi, ecx

; 376  : 	ioBaseChar *pOwner = GetOwner();

  00034	e8 00 00 00 00	 call	 ?GetOwner@ioWeapon@@QBEPAVioBaseChar@@XZ ; ioWeapon::GetOwner
  00039	8b f8		 mov	 edi, eax
  0003b	89 bd c8 7f ff
	ff		 mov	 DWORD PTR _pOwner$[ebp], edi

; 377  : 	if( !pOwner ) return;

  00041	85 ff		 test	 edi, edi
  00043	0f 84 db 01 00
	00		 je	 $LN1@CheckMoveK

; 378  : 
; 379  : 	if( !pOwner->IsNeedProcess() )

  00049	8b 07		 mov	 eax, DWORD PTR [edi]
  0004b	8b cf		 mov	 ecx, edi
  0004d	ff 90 00 01 00
	00		 call	 DWORD PTR [eax+256]
  00053	84 c0		 test	 al, al
  00055	0f 84 c9 01 00
	00		 je	 $LN1@CheckMoveK

; 380  : 		return;
; 381  : 
; 382  : 	bool bChange = false;
; 383  : 	ioUserKeyInput::DirKeyInput eNewDirKey = pOwner->CheckCurDirKey();

  0005b	8b cf		 mov	 ecx, edi
  0005d	c6 85 d7 7f ff
	ff 00		 mov	 BYTE PTR _bChange$[ebp], 0
  00064	e8 00 00 00 00	 call	 ?CheckCurDirKey@ioBaseChar@@QAE?AW4DirKeyInput@ioUserKeyInput@@XZ ; ioBaseChar::CheckCurDirKey

; 384  : 	if( eNewDirKey != m_CurDirKey )

  00069	3b 86 ec 0b 00
	00		 cmp	 eax, DWORD PTR [esi+3052]
  0006f	74 14		 je	 SHORT $LN4@CheckMoveK

; 385  : 	{
; 386  : 		bChange = true;

  00071	c6 85 d7 7f ff
	ff 01		 mov	 BYTE PTR _bChange$[ebp], 1

; 387  : 		m_bTargetRot = false;

  00078	c6 86 f0 0b 00
	00 00		 mov	 BYTE PTR [esi+3056], 0

; 388  : 		m_CurDirKey = eNewDirKey;

  0007f	89 86 ec 0b 00
	00		 mov	 DWORD PTR [esi+3052], eax
$LN4@CheckMoveK:

; 389  : 	}
; 390  : 
; 391  : 	bool bSetAttackKey = false;
; 392  : 	if( m_dwCurKeyInputGapTime < dwCurTime )

  00085	8d 85 d0 7f ff
	ff		 lea	 eax, DWORD PTR _value$536806[ebp]
  0008b	50		 push	 eax
  0008c	8d 8e 5c 0b 00
	00		 lea	 ecx, DWORD PTR [esi+2908]
  00092	c6 85 cc 7f ff
	ff 00		 mov	 BYTE PTR _bSetAttackKey$[ebp], 0
  00099	e8 00 00 00 00	 call	 ?DecryptValueToPool@?$CEncrypt@K@@QAEXPAK@Z ; CEncrypt<unsigned long>::DecryptValueToPool
  0009e	8b 7d 0c	 mov	 edi, DWORD PTR _dwCurTime$[ebp]
  000a1	39 bd d0 7f ff
	ff		 cmp	 DWORD PTR _value$536806[ebp], edi
  000a7	0f 83 c1 00 00
	00		 jae	 $LN2@CheckMoveK

; 393  : 	{
; 394  : 		if( pOwner->IsAttackKey() )

  000ad	8b 8d c8 7f ff
	ff		 mov	 ecx, DWORD PTR _pOwner$[ebp]
  000b3	e8 00 00 00 00	 call	 ?IsAttackKey@ioBaseChar@@QBE_NXZ ; ioBaseChar::IsAttackKey
  000b8	84 c0		 test	 al, al
  000ba	0f 84 ae 00 00
	00		 je	 $LN2@CheckMoveK

; 395  : 		{
; 396  : 			bSetAttackKey = true;
; 397  : 			bChange = true;
; 398  : 			m_dwCurKeyInputGapTime = dwCurTime;

  000c0	8d 85 d0 7f ff
	ff		 lea	 eax, DWORD PTR _value$536810[ebp]
  000c6	50		 push	 eax
  000c7	8d 8e 5c 0b 00
	00		 lea	 ecx, DWORD PTR [esi+2908]
  000cd	c6 85 cc 7f ff
	ff 01		 mov	 BYTE PTR _bSetAttackKey$[ebp], 1
  000d4	c6 85 d7 7f ff
	ff 01		 mov	 BYTE PTR _bChange$[ebp], 1
  000db	89 bd d0 7f ff
	ff		 mov	 DWORD PTR _value$536810[ebp], edi
  000e1	e8 00 00 00 00	 call	 ?EncryptValueToPool@?$CEncrypt@K@@AAEXPBD@Z ; CEncrypt<unsigned long>::EncryptValueToPool

; 399  : 			m_dwCurKeyInputGapTime += m_dwKeyInputGapTime;			

  000e6	8d 85 d0 7f ff
	ff		 lea	 eax, DWORD PTR _value$536815[ebp]
  000ec	50		 push	 eax
  000ed	8d 8e 2c 0b 00
	00		 lea	 ecx, DWORD PTR [esi+2860]
  000f3	e8 00 00 00 00	 call	 ?DecryptValueToPool@?$CEncrypt@K@@QAEXPAK@Z ; CEncrypt<unsigned long>::DecryptValueToPool
  000f8	8b 85 d0 7f ff
	ff		 mov	 eax, DWORD PTR _value$536815[ebp]
  000fe	89 85 d0 7f ff
	ff		 mov	 DWORD PTR $T536801[ebp], eax
  00104	8d 85 d0 7f ff
	ff		 lea	 eax, DWORD PTR $T536801[ebp]
  0010a	50		 push	 eax
  0010b	8d 8e 5c 0b 00
	00		 lea	 ecx, DWORD PTR [esi+2908]
  00111	e8 00 00 00 00	 call	 ??Y?$CEncrypt@K@@QAEAAKABK@Z ; CEncrypt<unsigned long>::operator+=

; 400  : 			
; 401  : 			m_dwAccelDownStartTime = dwCurTime;

  00116	8d 85 d0 7f ff
	ff		 lea	 eax, DWORD PTR _value$536819[ebp]
  0011c	50		 push	 eax
  0011d	8d 8e 9c 0a 00
	00		 lea	 ecx, DWORD PTR [esi+2716]
  00123	89 bd d0 7f ff
	ff		 mov	 DWORD PTR _value$536819[ebp], edi
  00129	e8 00 00 00 00	 call	 ?EncryptValueToPool@?$CEncrypt@K@@AAEXPBD@Z ; CEncrypt<unsigned long>::EncryptValueToPool

; 402  : 			m_dwAccelEndTime = dwCurTime + m_dwAccelKeepTime;

  0012e	8d 85 d0 7f ff
	ff		 lea	 eax, DWORD PTR _value$536824[ebp]
  00134	50		 push	 eax
  00135	8d 8e 3c 0a 00
	00		 lea	 ecx, DWORD PTR [esi+2620]
  0013b	e8 00 00 00 00	 call	 ?DecryptValueToPool@?$CEncrypt@K@@QAEXPAK@Z ; CEncrypt<unsigned long>::DecryptValueToPool
  00140	8b 85 d0 7f ff
	ff		 mov	 eax, DWORD PTR _value$536824[ebp]
  00146	03 c7		 add	 eax, edi
  00148	89 85 d0 7f ff
	ff		 mov	 DWORD PTR _value$536828[ebp], eax
  0014e	8d 85 d0 7f ff
	ff		 lea	 eax, DWORD PTR _value$536828[ebp]
  00154	8d be cc 0a 00
	00		 lea	 edi, DWORD PTR [esi+2764]
  0015a	50		 push	 eax
  0015b	8b cf		 mov	 ecx, edi
  0015d	e8 00 00 00 00	 call	 ?EncryptValueToPool@?$CEncrypt@K@@AAEXPBD@Z ; CEncrypt<unsigned long>::EncryptValueToPool

; 403  : 			m_dwAccelUpStartTime = m_dwAccelEndTime;

  00162	57		 push	 edi
  00163	8d 8e 6c 0a 00
	00		 lea	 ecx, DWORD PTR [esi+2668]
  00169	e8 00 00 00 00	 call	 ??4?$CEncrypt@K@@QAE_NAAV0@@Z ; CEncrypt<unsigned long>::operator=
$LN2@CheckMoveK:

; 404  : 		}
; 405  : 	}
; 406  : 	
; 407  : 	if( bChange && pOwner->IsNeedSendNetwork() )

  0016e	80 bd d7 7f ff
	ff 00		 cmp	 BYTE PTR _bChange$[ebp], 0
  00175	0f 84 a9 00 00
	00		 je	 $LN1@CheckMoveK
  0017b	8b 8d c8 7f ff
	ff		 mov	 ecx, DWORD PTR _pOwner$[ebp]
  00181	8b 01		 mov	 eax, DWORD PTR [ecx]
  00183	ff 90 04 01 00
	00		 call	 DWORD PTR [eax+260]
  00189	84 c0		 test	 al, al
  0018b	0f 84 93 00 00
	00		 je	 $LN1@CheckMoveK

; 408  : 	{
; 409  : 		SP2Packet kPacket( CUPK_WEAPON_SYNC );

  00191	68 16 42 00 00	 push	 16918			; 00004216H
  00196	8d 8d d8 7f ff
	ff		 lea	 ecx, DWORD PTR _kPacket$530926[ebp]
  0019c	e8 00 00 00 00	 call	 ??0SP2Packet@@QAE@K@Z	; SP2Packet::SP2Packet

; 410  : 		kPacket << GetOwnerName();

  001a1	8d 46 10	 lea	 eax, DWORD PTR [esi+16]
  001a4	33 ff		 xor	 edi, edi
  001a6	50		 push	 eax
  001a7	8d 8d d8 7f ff
	ff		 lea	 ecx, DWORD PTR _kPacket$530926[ebp]
  001ad	89 7d fc	 mov	 DWORD PTR __$EHRec$[ebp+8], edi
  001b0	e8 00 00 00 00	 call	 ??6SP2Packet@@QAEAAV0@ABVioHashString@@@Z ; SP2Packet::operator<<

; 411  : 		kPacket << m_dwWeaponIdx;

  001b5	ff b6 b8 04 00
	00		 push	 DWORD PTR [esi+1208]
  001bb	8d 8d d8 7f ff
	ff		 lea	 ecx, DWORD PTR _kPacket$530926[ebp]
  001c1	e8 00 00 00 00	 call	 ??6SP2Packet@@QAEAAV0@K@Z ; SP2Packet::operator<<

; 412  : 		kPacket << SSC_CHANGE_MOVE;

  001c6	57		 push	 edi
  001c7	8d 8d d8 7f ff
	ff		 lea	 ecx, DWORD PTR _kPacket$530926[ebp]
  001cd	e8 00 00 00 00	 call	 ??6SP2Packet@@QAEAAV0@H@Z ; SP2Packet::operator<<

; 413  : 		kPacket << (int)m_CurDirKey;

  001d2	ff b6 ec 0b 00
	00		 push	 DWORD PTR [esi+3052]
  001d8	8d 8d d8 7f ff
	ff		 lea	 ecx, DWORD PTR _kPacket$530926[ebp]
  001de	e8 00 00 00 00	 call	 ??6SP2Packet@@QAEAAV0@H@Z ; SP2Packet::operator<<

; 414  : 		kPacket << bSetAttackKey;

  001e3	ff b5 cc 7f ff
	ff		 push	 DWORD PTR _bSetAttackKey$[ebp]
  001e9	8d 8d d8 7f ff
	ff		 lea	 ecx, DWORD PTR _kPacket$530926[ebp]
  001ef	e8 00 00 00 00	 call	 ??6SP2Packet@@QAEAAV0@_N@Z ; SP2Packet::operator<<

; 415  : 		kPacket << m_vMoveDir;

  001f4	81 c6 dc 08 00
	00		 add	 esi, 2268		; 000008dcH
  001fa	56		 push	 esi
  001fb	8d 8d d8 7f ff
	ff		 lea	 ecx, DWORD PTR _kPacket$530926[ebp]
  00201	e8 00 00 00 00	 call	 ??6SP2Packet@@QAEAAV0@ABUD3DXVECTOR3@@@Z ; SP2Packet::operator<<

; 416  : 		P2PNetwork::SendToAllPlayingUser( kPacket );

  00206	8d 85 d8 7f ff
	ff		 lea	 eax, DWORD PTR _kPacket$530926[ebp]
  0020c	57		 push	 edi
  0020d	50		 push	 eax
  0020e	e8 00 00 00 00	 call	 ?SendToAllPlayingUser@P2PNetwork@@YAXAAVSP2Packet@@PAVioBaseChar@@@Z ; P2PNetwork::SendToAllPlayingUser

; 417  : 	}

  00213	83 4d fc ff	 or	 DWORD PTR __$EHRec$[ebp+8], -1
  00217	59		 pop	 ecx
  00218	59		 pop	 ecx
  00219	8d 8d d8 7f ff
	ff		 lea	 ecx, DWORD PTR _kPacket$530926[ebp]
  0021f	e8 00 00 00 00	 call	 ??1SP2Packet@@UAE@XZ	; SP2Packet::~SP2Packet
$LN1@CheckMoveK:

; 418  : }

  00224	8b 4d f4	 mov	 ecx, DWORD PTR __$EHRec$[ebp]
  00227	64 89 0d 00 00
	00 00		 mov	 DWORD PTR fs:0, ecx
  0022e	59		 pop	 ecx
  0022f	5f		 pop	 edi
  00230	5e		 pop	 esi
  00231	5b		 pop	 ebx
  00232	8b 4d f0	 mov	 ecx, DWORD PTR __$ArrayPad$[ebp]
  00235	33 cd		 xor	 ecx, ebp
  00237	e8 00 00 00 00	 call	 @__security_check_cookie@4
  0023c	c9		 leave
  0023d	c2 08 00	 ret	 8
_TEXT	ENDS
;	COMDAT text$x
text$x	SEGMENT
__unwindfunclet$?CheckMoveKey@ioControlMeshWeapon@@IAEXMK@Z$0:
  00000	8d 8d d8 7f ff
	ff		 lea	 ecx, DWORD PTR _kPacket$530926[ebp]
  00006	e9 00 00 00 00	 jmp	 ??1SP2Packet@@UAE@XZ	; SP2Packet::~SP2Packet
__ehhandler$?CheckMoveKey@ioControlMeshWeapon@@IAEXMK@Z:
  0000b	8b 54 24 08	 mov	 edx, DWORD PTR [esp+8]
  0000f	8d 42 0c	 lea	 eax, DWORD PTR [edx+12]
  00012	8b 8a c4 7f ff
	ff		 mov	 ecx, DWORD PTR [edx-32828]
  00018	33 c8		 xor	 ecx, eax
  0001a	e8 00 00 00 00	 call	 @__security_check_cookie@4
  0001f	8b 4a fc	 mov	 ecx, DWORD PTR [edx-4]
  00022	33 c8		 xor	 ecx, eax
  00024	e8 00 00 00 00	 call	 @__security_check_cookie@4
  00029	b8 00 00 00 00	 mov	 eax, OFFSET __ehfuncinfo$?CheckMoveKey@ioControlMeshWeapon@@IAEXMK@Z
  0002e	e9 00 00 00 00	 jmp	 ___CxxFrameHandler3
text$x	ENDS
?CheckMoveKey@ioControlMeshWeapon@@IAEXMK@Z ENDP	; ioControlMeshWeapon::CheckMoveKey
PUBLIC	__$ArrayPad$
EXTRN	??5SP2Packet@@QAEAAV0@AAUD3DXVECTOR3@@@Z:PROC	; SP2Packet::operator>>
EXTRN	??5SP2Packet@@QAEAAV0@AA_N@Z:PROC		; SP2Packet::operator>>
EXTRN	??5SP2Packet@@QAEAAV0@AAH@Z:PROC		; SP2Packet::operator>>
; Function compile flags: /Ogsp
;	COMDAT ?ApplyWeaponSync@ioControlMeshWeapon@@UAEXAAVSP2Packet@@PAVioPlayStage@@@Z
_TEXT	SEGMENT
_iState$ = -32						; size = 4
_iDirKey$530992 = -28					; size = 4
_bSetAttackKey$530995 = -21				; size = 1
_value$536867 = -20					; size = 4
_value$536859 = -20					; size = 4
_value$536851 = -20					; size = 4
_value$536863 = -20					; size = 4
_value$536855 = -20					; size = 4
$T536844 = -20						; size = 4
_vMoveDir$530993 = -16					; size = 12
__$ArrayPad$ = -4					; size = 4
_rkPacket$ = 8						; size = 4
_pStage$ = 12						; size = 4
?ApplyWeaponSync@ioControlMeshWeapon@@UAEXAAVSP2Packet@@PAVioPlayStage@@@Z PROC ; ioControlMeshWeapon::ApplyWeaponSync, COMDAT
; _this$ = ecx

; 520  : {

  00000	55		 push	 ebp
  00001	8b ec		 mov	 ebp, esp
  00003	83 ec 20	 sub	 esp, 32			; 00000020H
  00006	a1 00 00 00 00	 mov	 eax, DWORD PTR ___security_cookie
  0000b	33 c5		 xor	 eax, ebp
  0000d	89 45 fc	 mov	 DWORD PTR __$ArrayPad$[ebp], eax
  00010	56		 push	 esi
  00011	57		 push	 edi
  00012	8b 7d 08	 mov	 edi, DWORD PTR _rkPacket$[ebp]

; 521  : 	int iState;
; 522  : 	rkPacket >> iState;

  00015	8d 45 e0	 lea	 eax, DWORD PTR _iState$[ebp]
  00018	8b f1		 mov	 esi, ecx
  0001a	50		 push	 eax
  0001b	8b cf		 mov	 ecx, edi
  0001d	e8 00 00 00 00	 call	 ??5SP2Packet@@QAEAAV0@AAH@Z ; SP2Packet::operator>>

; 523  : 
; 524  : 	switch( iState )

  00022	83 7d e0 00	 cmp	 DWORD PTR _iState$[ebp], 0
  00026	0f 85 d7 00 00
	00		 jne	 $LN3@ApplyWeapo

; 525  : 	{
; 526  : 	case SSC_CHANGE_MOVE:
; 527  : 		{
; 528  : 			int iDirKey;
; 529  : 			D3DXVECTOR3 vMoveDir;
; 530  : 			rkPacket >> iDirKey;

  0002c	8d 45 e4	 lea	 eax, DWORD PTR _iDirKey$530992[ebp]
  0002f	50		 push	 eax
  00030	8b cf		 mov	 ecx, edi
  00032	e8 00 00 00 00	 call	 ??5SP2Packet@@QAEAAV0@AAH@Z ; SP2Packet::operator>>

; 531  : 
; 532  : 			m_CurDirKey = (ioUserKeyInput::DirKeyInput)iDirKey;

  00037	8b 45 e4	 mov	 eax, DWORD PTR _iDirKey$530992[ebp]
  0003a	89 86 ec 0b 00
	00		 mov	 DWORD PTR [esi+3052], eax

; 533  : 
; 534  : 			bool bSetAttackKey;
; 535  : 			rkPacket >> bSetAttackKey;

  00040	8d 45 eb	 lea	 eax, DWORD PTR _bSetAttackKey$530995[ebp]
  00043	50		 push	 eax
  00044	8b cf		 mov	 ecx, edi
  00046	e8 00 00 00 00	 call	 ??5SP2Packet@@QAEAAV0@AA_N@Z ; SP2Packet::operator>>

; 536  : 			rkPacket >> vMoveDir;

  0004b	8d 45 f0	 lea	 eax, DWORD PTR _vMoveDir$530993[ebp]
  0004e	50		 push	 eax
  0004f	8b cf		 mov	 ecx, edi
  00051	e8 00 00 00 00	 call	 ??5SP2Packet@@QAEAAV0@AAUD3DXVECTOR3@@@Z ; SP2Packet::operator>>

; 537  : 			
; 538  : 			if( bSetAttackKey )

  00056	80 7d eb 00	 cmp	 BYTE PTR _bSetAttackKey$530995[ebp], 0
  0005a	0f 84 8e 00 00
	00		 je	 $LN1@ApplyWeapo

; 539  : 			{
; 540  : 				DWORD dwCurTime = FRAMEGETTIME();

  00060	53		 push	 ebx
  00061	ff 15 00 00 00
	00		 call	 DWORD PTR __imp_?GetSingleton@ioFrameTimer@@SAAAV1@XZ
  00067	8b c8		 mov	 ecx, eax
  00069	ff 15 00 00 00
	00		 call	 DWORD PTR __imp_?GetLoopSec@ioFrameTimer@@QBEKXZ
  0006f	8b f8		 mov	 edi, eax

; 541  : 				m_dwCurKeyInputGapTime = dwCurTime;

  00071	8d 45 ec	 lea	 eax, DWORD PTR _value$536851[ebp]
  00074	50		 push	 eax
  00075	8d 8e 5c 0b 00
	00		 lea	 ecx, DWORD PTR [esi+2908]
  0007b	89 7d ec	 mov	 DWORD PTR _value$536851[ebp], edi
  0007e	e8 00 00 00 00	 call	 ?EncryptValueToPool@?$CEncrypt@K@@AAEXPBD@Z ; CEncrypt<unsigned long>::EncryptValueToPool

; 542  : 				m_dwCurKeyInputGapTime += m_dwKeyInputGapTime;

  00083	8d 45 ec	 lea	 eax, DWORD PTR _value$536855[ebp]
  00086	50		 push	 eax
  00087	8d 8e 2c 0b 00
	00		 lea	 ecx, DWORD PTR [esi+2860]
  0008d	e8 00 00 00 00	 call	 ?DecryptValueToPool@?$CEncrypt@K@@QAEXPAK@Z ; CEncrypt<unsigned long>::DecryptValueToPool
  00092	8b 45 ec	 mov	 eax, DWORD PTR _value$536855[ebp]
  00095	89 45 ec	 mov	 DWORD PTR $T536844[ebp], eax
  00098	8d 45 ec	 lea	 eax, DWORD PTR $T536844[ebp]
  0009b	50		 push	 eax
  0009c	8d 8e 5c 0b 00
	00		 lea	 ecx, DWORD PTR [esi+2908]
  000a2	e8 00 00 00 00	 call	 ??Y?$CEncrypt@K@@QAEAAKABK@Z ; CEncrypt<unsigned long>::operator+=

; 543  : 				
; 544  : 				m_dwAccelDownStartTime = dwCurTime;

  000a7	8d 45 ec	 lea	 eax, DWORD PTR _value$536859[ebp]
  000aa	50		 push	 eax
  000ab	8d 8e 9c 0a 00
	00		 lea	 ecx, DWORD PTR [esi+2716]
  000b1	89 7d ec	 mov	 DWORD PTR _value$536859[ebp], edi
  000b4	e8 00 00 00 00	 call	 ?EncryptValueToPool@?$CEncrypt@K@@AAEXPBD@Z ; CEncrypt<unsigned long>::EncryptValueToPool

; 545  : 				m_dwAccelEndTime = dwCurTime + m_dwAccelKeepTime;

  000b9	8d 45 ec	 lea	 eax, DWORD PTR _value$536863[ebp]
  000bc	50		 push	 eax
  000bd	8d 8e 3c 0a 00
	00		 lea	 ecx, DWORD PTR [esi+2620]
  000c3	e8 00 00 00 00	 call	 ?DecryptValueToPool@?$CEncrypt@K@@QAEXPAK@Z ; CEncrypt<unsigned long>::DecryptValueToPool
  000c8	8b 45 ec	 mov	 eax, DWORD PTR _value$536863[ebp]
  000cb	03 c7		 add	 eax, edi
  000cd	89 45 ec	 mov	 DWORD PTR _value$536867[ebp], eax
  000d0	8d 45 ec	 lea	 eax, DWORD PTR _value$536867[ebp]
  000d3	8d be cc 0a 00
	00		 lea	 edi, DWORD PTR [esi+2764]
  000d9	50		 push	 eax
  000da	8b cf		 mov	 ecx, edi
  000dc	e8 00 00 00 00	 call	 ?EncryptValueToPool@?$CEncrypt@K@@AAEXPBD@Z ; CEncrypt<unsigned long>::EncryptValueToPool

; 546  : 				m_dwAccelUpStartTime = m_dwAccelEndTime;

  000e1	57		 push	 edi
  000e2	8d 8e 6c 0a 00
	00		 lea	 ecx, DWORD PTR [esi+2668]
  000e8	e8 00 00 00 00	 call	 ??4?$CEncrypt@K@@QAE_NAAV0@@Z ; CEncrypt<unsigned long>::operator=
  000ed	5b		 pop	 ebx
$LN1@ApplyWeapo:

; 547  : 			}
; 548  : 
; 549  : 			m_bTargetRot = false;
; 550  : 			SetMoveDir( vMoveDir );

  000ee	8b 06		 mov	 eax, DWORD PTR [esi]
  000f0	8d 4d f0	 lea	 ecx, DWORD PTR _vMoveDir$530993[ebp]
  000f3	51		 push	 ecx
  000f4	8b ce		 mov	 ecx, esi
  000f6	c6 86 f0 0b 00
	00 00		 mov	 BYTE PTR [esi+3056], 0
  000fd	ff 90 b0 00 00
	00		 call	 DWORD PTR [eax+176]
$LN3@ApplyWeapo:

; 551  : 		}
; 552  : 		break;
; 553  : 	}
; 554  : }

  00103	8b 4d fc	 mov	 ecx, DWORD PTR __$ArrayPad$[ebp]
  00106	5f		 pop	 edi
  00107	33 cd		 xor	 ecx, ebp
  00109	5e		 pop	 esi
  0010a	e8 00 00 00 00	 call	 @__security_check_cookie@4
  0010f	c9		 leave
  00110	c2 08 00	 ret	 8
?ApplyWeaponSync@ioControlMeshWeapon@@UAEXAAVSP2Packet@@PAVioPlayStage@@@Z ENDP ; ioControlMeshWeapon::ApplyWeaponSync
_TEXT	ENDS
PUBLIC	??1?$basic_string@DU?$char_traits@D@std@@V?$allocator@D@2@@std@@QAE@XZ ; std::basic_string<char,std::char_traits<char>,std::allocator<char> >::~basic_string<char,std::char_traits<char>,std::allocator<char> >
; Function compile flags: /Ogsp
; File c:\program files (x86)\microsoft visual studio 10.0\vc\include\xstring
;	COMDAT ??1?$basic_string@DU?$char_traits@D@std@@V?$allocator@D@2@@std@@QAE@XZ
_TEXT	SEGMENT
??1?$basic_string@DU?$char_traits@D@std@@V?$allocator@D@2@@std@@QAE@XZ PROC ; std::basic_string<char,std::char_traits<char>,std::allocator<char> >::~basic_string<char,std::char_traits<char>,std::allocator<char> >, COMDAT
; _this$ = ecx

; 754  : 		_Tidy(true);

  00000	6a 00		 push	 0
  00002	6a 01		 push	 1
  00004	e8 00 00 00 00	 call	 ?_Tidy@?$basic_string@DU?$char_traits@D@std@@V?$allocator@D@2@@std@@QAEX_NI@Z ; std::basic_string<char,std::char_traits<char>,std::allocator<char> >::_Tidy

; 755  : 		}

  00009	c3		 ret	 0
??1?$basic_string@DU?$char_traits@D@std@@V?$allocator@D@2@@std@@QAE@XZ ENDP ; std::basic_string<char,std::char_traits<char>,std::allocator<char> >::~basic_string<char,std::char_traits<char>,std::allocator<char> >
_TEXT	ENDS
EXTRN	__imp_?PlaySoundA@ioSoundManager@@QAEKABVioHashString@@PAVioSceneNode@@K@Z:PROC
EXTRN	__imp_?GetSingleton@ioSoundManager@@SAAAV1@XZ:PROC
EXTRN	__imp_??0ioHashString@@QAE@PBD@Z:PROC
EXTRN	?GetWoundedSoundName@ioBaseChar@@QAE?AV?$basic_string@DU?$char_traits@D@std@@V?$allocator@D@2@@std@@ABVioHashString@@@Z:PROC ; ioBaseChar::GetWoundedSoundName
EXTRN	?HasPeculiarity@ioWeapon@@QBE_NK@Z:PROC		; ioWeapon::HasPeculiarity
;	COMDAT xdata$x
; File d:\lost saga for developer\youtube\tutorial\source\src\lsclient\ioweapon.h
xdata$x	SEGMENT
__unwindtable$?PlayWoundedSound@ioControlMeshWeapon@@UAEXPAVioPlayEntity@@@Z DD 0ffffffffH
	DD	FLAT:__unwindfunclet$?PlayWoundedSound@ioControlMeshWeapon@@UAEXPAVioPlayEntity@@@Z$0
	DD	00H
	DD	FLAT:__unwindfunclet$?PlayWoundedSound@ioControlMeshWeapon@@UAEXPAVioPlayEntity@@@Z$1
__ehfuncinfo$?PlayWoundedSound@ioControlMeshWeapon@@UAEXPAVioPlayEntity@@@Z DD 019930522H
	DD	02H
	DD	FLAT:__unwindtable$?PlayWoundedSound@ioControlMeshWeapon@@UAEXPAVioPlayEntity@@@Z
	DD	2 DUP(00H)
	DD	2 DUP(00H)
	DD	00H
	DD	01H
; Function compile flags: /Ogsp
; File d:\lost saga for developer\youtube\tutorial\source\src\lsclient\iocontrolmeshweapon.cpp
xdata$x	ENDS
;	COMDAT ?PlayWoundedSound@ioControlMeshWeapon@@UAEXPAVioPlayEntity@@@Z
_TEXT	SEGMENT
$T536880 = -64						; size = 16
_value$536886 = -45					; size = 1
_szNewSound$530774 = -44				; size = 28
__$EHRec$ = -12						; size = 12
_pEntity$ = 8						; size = 4
?PlayWoundedSound@ioControlMeshWeapon@@UAEXPAVioPlayEntity@@@Z PROC ; ioControlMeshWeapon::PlayWoundedSound, COMDAT
; _this$ = ecx

; 191  : {

  00000	6a 34		 push	 52			; 00000034H
  00002	b8 00 00 00 00	 mov	 eax, __ehhandler$?PlayWoundedSound@ioControlMeshWeapon@@UAEXPAVioPlayEntity@@@Z
  00007	e8 00 00 00 00	 call	 __EH_prolog3_GS
  0000c	8b 5d 08	 mov	 ebx, DWORD PTR _pEntity$[ebp]

; 192  : 	if( HasPeculiarity( WP_WOUND_NO_SOUND ) && !m_bPlayWoundSound )

  0000f	6a 40		 push	 64			; 00000040H
  00011	8b f1		 mov	 esi, ecx
  00013	e8 00 00 00 00	 call	 ?HasPeculiarity@ioWeapon@@QBE_NK@Z ; ioWeapon::HasPeculiarity
  00018	84 c0		 test	 al, al
  0001a	74 19		 je	 SHORT $LN3@PlayWounde
  0001c	8d 45 d3	 lea	 eax, DWORD PTR _value$536886[ebp]
  0001f	50		 push	 eax
  00020	8d 8e 28 0c 00
	00		 lea	 ecx, DWORD PTR [esi+3112]
  00026	e8 00 00 00 00	 call	 ?DecryptValueToPool@?$CEncrypt@_N@@QAEXPA_N@Z ; CEncrypt<bool>::DecryptValueToPool
  0002b	80 7d d3 00	 cmp	 BYTE PTR _value$536886[ebp], 0
  0002f	0f 84 9c 00 00
	00		 je	 $LN4@PlayWounde
$LN3@PlayWounde:

; 193  : 		return;
; 194  : 
; 195  : 	const ioHashString &szSound = GetAttribute()->m_WoundedSound;

  00035	8b 06		 mov	 eax, DWORD PTR [esi]
  00037	8b ce		 mov	 ecx, esi
  00039	ff 90 3c 01 00
	00		 call	 DWORD PTR [eax+316]

; 196  : 
; 197  : 	if( ToBaseChar( pEntity ) )

  0003f	53		 push	 ebx
  00040	8d b8 68 01 00
	00		 lea	 edi, DWORD PTR [eax+360]
  00046	e8 00 00 00 00	 call	 ?ToBaseChar@@YAPAVioBaseChar@@PAVioGameEntity@@@Z ; ToBaseChar
  0004b	59		 pop	 ecx
  0004c	85 c0		 test	 eax, eax
  0004e	74 65		 je	 SHORT $LN2@PlayWounde

; 198  : 	{
; 199  : 		std::string szNewSound = ToBaseChar(pEntity)->GetWoundedSoundName( szSound );

  00050	57		 push	 edi
  00051	8d 45 d4	 lea	 eax, DWORD PTR _szNewSound$530774[ebp]
  00054	50		 push	 eax
  00055	53		 push	 ebx
  00056	e8 00 00 00 00	 call	 ?ToBaseChar@@YAPAVioBaseChar@@PAVioGameEntity@@@Z ; ToBaseChar
  0005b	59		 pop	 ecx
  0005c	8b c8		 mov	 ecx, eax
  0005e	e8 00 00 00 00	 call	 ?GetWoundedSoundName@ioBaseChar@@QAE?AV?$basic_string@DU?$char_traits@D@std@@V?$allocator@D@2@@std@@ABVioHashString@@@Z ; ioBaseChar::GetWoundedSoundName
  00063	83 65 fc 00	 and	 DWORD PTR __$EHRec$[ebp+8], 0

; 200  : 		g_SoundMgr.PlaySound( ioHashString(szNewSound.c_str()), GetParentSceneNode() );

  00067	83 7d e8 10	 cmp	 DWORD PTR _szNewSound$530774[ebp+20], 16 ; 00000010H
  0006b	8b 45 d4	 mov	 eax, DWORD PTR _szNewSound$530774[ebp]
  0006e	73 03		 jae	 SHORT $LN17@PlayWounde
  00070	8d 45 d4	 lea	 eax, DWORD PTR _szNewSound$530774[ebp]
$LN17@PlayWounde:
  00073	50		 push	 eax
  00074	8d 4d c0	 lea	 ecx, DWORD PTR $T536880[ebp]
  00077	ff 15 00 00 00
	00		 call	 DWORD PTR __imp_??0ioHashString@@QAE@PBD@Z
  0007d	8b 4e 04	 mov	 ecx, DWORD PTR [esi+4]
  00080	6a 04		 push	 4
  00082	51		 push	 ecx
  00083	50		 push	 eax
  00084	c6 45 fc 01	 mov	 BYTE PTR __$EHRec$[ebp+8], 1
  00088	ff 15 00 00 00
	00		 call	 DWORD PTR __imp_?GetSingleton@ioSoundManager@@SAAAV1@XZ
  0008e	8b c8		 mov	 ecx, eax
  00090	ff 15 00 00 00
	00		 call	 DWORD PTR __imp_?PlaySoundA@ioSoundManager@@QAEKABVioHashString@@PAVioSceneNode@@K@Z
  00096	8d 4d c0	 lea	 ecx, DWORD PTR $T536880[ebp]
  00099	c6 45 fc 00	 mov	 BYTE PTR __$EHRec$[ebp+8], 0
  0009d	ff 15 00 00 00
	00		 call	 DWORD PTR __imp_??1ioHashString@@QAE@XZ

; 201  : 	}

  000a3	83 4d fc ff	 or	 DWORD PTR __$EHRec$[ebp+8], -1
  000a7	6a 00		 push	 0
  000a9	6a 01		 push	 1
  000ab	8d 4d d4	 lea	 ecx, DWORD PTR _szNewSound$530774[ebp]
  000ae	e8 00 00 00 00	 call	 ?_Tidy@?$basic_string@DU?$char_traits@D@std@@V?$allocator@D@2@@std@@QAEX_NI@Z ; std::basic_string<char,std::char_traits<char>,std::allocator<char> >::_Tidy

; 202  : 	else

  000b3	eb 15		 jmp	 SHORT $LN1@PlayWounde
$LN2@PlayWounde:

; 203  : 	{
; 204  : 		g_SoundMgr.PlaySound( szSound, GetParentSceneNode() );

  000b5	8b 46 04	 mov	 eax, DWORD PTR [esi+4]
  000b8	6a 04		 push	 4
  000ba	50		 push	 eax
  000bb	57		 push	 edi
  000bc	ff 15 00 00 00
	00		 call	 DWORD PTR __imp_?GetSingleton@ioSoundManager@@SAAAV1@XZ
  000c2	8b c8		 mov	 ecx, eax
  000c4	ff 15 00 00 00
	00		 call	 DWORD PTR __imp_?PlaySoundA@ioSoundManager@@QAEKABVioHashString@@PAVioSceneNode@@K@Z
$LN1@PlayWounde:

; 205  : 	}
; 206  : 
; 207  : 	StopLoopSound();

  000ca	8b 06		 mov	 eax, DWORD PTR [esi]
  000cc	8b ce		 mov	 ecx, esi
  000ce	ff 50 60	 call	 DWORD PTR [eax+96]
$LN4@PlayWounde:

; 208  : }

  000d1	e8 00 00 00 00	 call	 __EH_epilog3_GS
  000d6	c2 04 00	 ret	 4
_TEXT	ENDS
;	COMDAT text$x
text$x	SEGMENT
__unwindfunclet$?PlayWoundedSound@ioControlMeshWeapon@@UAEXPAVioPlayEntity@@@Z$0:
  00000	8d 4d d4	 lea	 ecx, DWORD PTR _szNewSound$530774[ebp]
  00003	e9 00 00 00 00	 jmp	 ??1?$basic_string@DU?$char_traits@D@std@@V?$allocator@D@2@@std@@QAE@XZ ; std::basic_string<char,std::char_traits<char>,std::allocator<char> >::~basic_string<char,std::char_traits<char>,std::allocator<char> >
__unwindfunclet$?PlayWoundedSound@ioControlMeshWeapon@@UAEXPAVioPlayEntity@@@Z$1:
  00008	8d 4d c0	 lea	 ecx, DWORD PTR $T536880[ebp]
  0000b	ff 25 00 00 00
	00		 jmp	 DWORD PTR __imp_??1ioHashString@@QAE@XZ
__ehhandler$?PlayWoundedSound@ioControlMeshWeapon@@UAEXPAVioPlayEntity@@@Z:
  00011	8b 54 24 08	 mov	 edx, DWORD PTR [esp+8]
  00015	8d 42 0c	 lea	 eax, DWORD PTR [edx+12]
  00018	8b 4a bc	 mov	 ecx, DWORD PTR [edx-68]
  0001b	33 c8		 xor	 ecx, eax
  0001d	e8 00 00 00 00	 call	 @__security_check_cookie@4
  00022	8b 4a fc	 mov	 ecx, DWORD PTR [edx-4]
  00025	33 c8		 xor	 ecx, eax
  00027	e8 00 00 00 00	 call	 @__security_check_cookie@4
  0002c	b8 00 00 00 00	 mov	 eax, OFFSET __ehfuncinfo$?PlayWoundedSound@ioControlMeshWeapon@@UAEXPAVioPlayEntity@@@Z
  00031	e9 00 00 00 00	 jmp	 ___CxxFrameHandler3
text$x	ENDS
?PlayWoundedSound@ioControlMeshWeapon@@UAEXPAVioPlayEntity@@@Z ENDP ; ioControlMeshWeapon::PlayWoundedSound
PUBLIC	__$ArrayPad$
PUBLIC	?OnFloating@ioControlMeshWeapon@@IAEXMKPAVioPlayStage@@@Z ; ioControlMeshWeapon::OnFloating
; Function compile flags: /Ogsp
;	COMDAT ?OnFloating@ioControlMeshWeapon@@IAEXMKPAVioPlayStage@@@Z
_TEXT	SEGMENT
tv642 = -24						; size = 4
tv639 = -24						; size = 4
_value$537024 = -24					; size = 4
_value$537019 = -24					; size = 4
_value$537015 = -24					; size = 4
_value$536998 = -24					; size = 4
_value$536989 = -24					; size = 4
_value$536985 = -24					; size = 4
_value$536981 = -24					; size = 4
_value$536960 = -24					; size = 4
$T536934 = -24						; size = 4
_fCurAccel$530841 = -24					; size = 4
$T536928 = -24						; size = 4
_fCurAccel$530811 = -24					; size = 4
_value$537007 = -20					; size = 4
_value$537002 = -20					; size = 4
_value$536994 = -20					; size = 4
_value$536973 = -20					; size = 4
_value$536968 = -20					; size = 4
_value$536964 = -20					; size = 4
_value$536955 = -20					; size = 4
_value$536951 = -20					; size = 4
_value$536947 = -20					; size = 4
_value$536943 = -20					; size = 4
_fMoveDist$530870 = -20					; size = 4
$T530871 = -16						; size = 12
__$ArrayPad$ = -4					; size = 4
_fTimePerSec$ = 8					; size = 4
_dwCurTime$ = 12					; size = 4
_pStage$ = 16						; size = 4
?OnFloating@ioControlMeshWeapon@@IAEXMKPAVioPlayStage@@@Z PROC ; ioControlMeshWeapon::OnFloating, COMDAT
; _this$ = ecx

; 258  : {

  00000	55		 push	 ebp
  00001	8b ec		 mov	 ebp, esp
  00003	83 ec 18	 sub	 esp, 24			; 00000018H
  00006	a1 00 00 00 00	 mov	 eax, DWORD PTR ___security_cookie
  0000b	33 c5		 xor	 eax, ebp
  0000d	89 45 fc	 mov	 DWORD PTR __$ArrayPad$[ebp], eax
  00010	56		 push	 esi
  00011	8b f1		 mov	 esi, ecx

; 259  : 	if ( !m_bFirst )

  00013	80 be a8 0c 00
	00 00		 cmp	 BYTE PTR [esi+3240], 0
  0001a	0f 85 af 02 00
	00		 jne	 $LN72@OnFloating

; 260  : 	{
; 261  : 		if( 0 < m_dwAccelEndTime )

  00020	53		 push	 ebx
  00021	57		 push	 edi
  00022	8d 45 ec	 lea	 eax, DWORD PTR _value$536943[ebp]
  00025	50		 push	 eax
  00026	8d 8e cc 0a 00
	00		 lea	 ecx, DWORD PTR [esi+2764]
  0002c	e8 00 00 00 00	 call	 ?DecryptValueToPool@?$CEncrypt@K@@QAEXPAK@Z ; CEncrypt<unsigned long>::DecryptValueToPool
  00031	83 7d ec 00	 cmp	 DWORD PTR _value$536943[ebp], 0
  00035	8b 7d 0c	 mov	 edi, DWORD PTR _dwCurTime$[ebp]
  00038	0f 86 c7 01 00
	00		 jbe	 $LN8@OnFloating

; 262  : 		{
; 263  : 			if( dwCurTime < m_dwAccelEndTime )

  0003e	8d 45 ec	 lea	 eax, DWORD PTR _value$536947[ebp]
  00041	50		 push	 eax
  00042	8d 8e cc 0a 00
	00		 lea	 ecx, DWORD PTR [esi+2764]
  00048	e8 00 00 00 00	 call	 ?DecryptValueToPool@?$CEncrypt@K@@QAEXPAK@Z ; CEncrypt<unsigned long>::DecryptValueToPool
  0004d	3b 7d ec	 cmp	 edi, DWORD PTR _value$536947[ebp]
  00050	0f 83 d5 00 00
	00		 jae	 $LN7@OnFloating

; 264  : 			{
; 265  : 				//         
; 266  : 				if( m_dwAccelDownStartTime < dwCurTime )

  00056	8d 45 ec	 lea	 eax, DWORD PTR _value$536951[ebp]
  00059	50		 push	 eax
  0005a	8d 8e 9c 0a 00
	00		 lea	 ecx, DWORD PTR [esi+2716]
  00060	e8 00 00 00 00	 call	 ?DecryptValueToPool@?$CEncrypt@K@@QAEXPAK@Z ; CEncrypt<unsigned long>::DecryptValueToPool
  00065	39 7d ec	 cmp	 DWORD PTR _value$536951[ebp], edi
  00068	0f 83 b0 01 00
	00		 jae	 $LN52@OnFloating

; 267  : 				{
; 268  : 					m_dwAccelDownStartTime = dwCurTime;

  0006e	8d 45 ec	 lea	 eax, DWORD PTR _value$536955[ebp]
  00071	50		 push	 eax
  00072	8d 8e 9c 0a 00
	00		 lea	 ecx, DWORD PTR [esi+2716]
  00078	89 7d ec	 mov	 DWORD PTR _value$536955[ebp], edi
  0007b	e8 00 00 00 00	 call	 ?EncryptValueToPool@?$CEncrypt@K@@AAEXPBD@Z ; CEncrypt<unsigned long>::EncryptValueToPool

; 269  : 					float fCurAccel = m_fAccelSpeed / (m_dwKeyInputGapTime / m_dwAccelUpTime);

  00080	8d 45 e8	 lea	 eax, DWORD PTR _value$536960[ebp]
  00083	50		 push	 eax
  00084	8d 8e fc 0a 00
	00		 lea	 ecx, DWORD PTR [esi+2812]
  0008a	e8 00 00 00 00	 call	 ?DecryptValueToPool@?$CEncrypt@K@@QAEXPAK@Z ; CEncrypt<unsigned long>::DecryptValueToPool
  0008f	8d 45 ec	 lea	 eax, DWORD PTR _value$536964[ebp]
  00092	50		 push	 eax
  00093	8d 8e 2c 0b 00
	00		 lea	 ecx, DWORD PTR [esi+2860]
  00099	e8 00 00 00 00	 call	 ?DecryptValueToPool@?$CEncrypt@K@@QAEXPAK@Z ; CEncrypt<unsigned long>::DecryptValueToPool
  0009e	8b 45 ec	 mov	 eax, DWORD PTR _value$536964[ebp]
  000a1	33 d2		 xor	 edx, edx
  000a3	f7 75 e8	 div	 DWORD PTR _value$536960[ebp]
  000a6	8d 8e 1c 09 00
	00		 lea	 ecx, DWORD PTR [esi+2332]
  000ac	89 45 e8	 mov	 DWORD PTR $T536928[ebp], eax
  000af	8d 45 e8	 lea	 eax, DWORD PTR $T536928[ebp]
  000b2	50		 push	 eax
  000b3	e8 00 00 00 00	 call	 ??K?$CEncrypt@M@@QAEMABK@Z ; CEncrypt<float>::operator/
  000b8	d9 5d e8	 fstp	 DWORD PTR _fCurAccel$530811[ebp]

; 270  : 
; 271  : 					m_fCurMoveSpeed += fCurAccel;

  000bb	8d 45 ec	 lea	 eax, DWORD PTR _value$536968[ebp]
  000be	50		 push	 eax
  000bf	8d 8e dc 09 00
	00		 lea	 ecx, DWORD PTR [esi+2524]
  000c5	e8 00 00 00 00	 call	 ?DecryptValueToPool@?$CEncrypt@M@@QAEXPAM@Z ; CEncrypt<float>::DecryptValueToPool
  000ca	d9 45 ec	 fld	 DWORD PTR _value$536968[ebp]
  000cd	d8 45 e8	 fadd	 DWORD PTR _fCurAccel$530811[ebp]
  000d0	8d 45 ec	 lea	 eax, DWORD PTR _value$536968[ebp]
  000d3	50		 push	 eax
  000d4	8d 8e dc 09 00
	00		 lea	 ecx, DWORD PTR [esi+2524]
  000da	d9 5d ec	 fstp	 DWORD PTR _value$536968[ebp]
  000dd	e8 00 00 00 00	 call	 ?EncryptValueToPool@?$CEncrypt@M@@AAEXPBD@Z ; CEncrypt<float>::EncryptValueToPool

; 272  : 					m_fCurMoveSpeed = min( m_fCurMoveSpeed, m_fMaxSpeed );

  000e2	8d 45 ec	 lea	 eax, DWORD PTR _value$536973[ebp]
  000e5	8d 8e 4c 09 00
	00		 lea	 ecx, DWORD PTR [esi+2380]
  000eb	50		 push	 eax
  000ec	e8 00 00 00 00	 call	 ?DecryptValueToPool@?$CEncrypt@M@@QAEXPAM@Z ; CEncrypt<float>::DecryptValueToPool
  000f1	8d 45 e8	 lea	 eax, DWORD PTR _value$536981[ebp]
  000f4	50		 push	 eax
  000f5	8d 8e dc 09 00
	00		 lea	 ecx, DWORD PTR [esi+2524]
  000fb	e8 00 00 00 00	 call	 ?DecryptValueToPool@?$CEncrypt@M@@QAEXPAM@Z ; CEncrypt<float>::DecryptValueToPool
  00100	f3 0f 10 45 e8	 movss	 xmm0, DWORD PTR _value$536981[ebp]
  00105	f3 0f 10 4d ec	 movss	 xmm1, DWORD PTR _value$536973[ebp]
  0010a	0f 5a c0	 cvtps2pd xmm0, xmm0
  0010d	0f 5a c9	 cvtps2pd xmm1, xmm1
  00110	66 0f 2f c8	 comisd	 xmm1, xmm0
  00114	8d 86 dc 09 00
	00		 lea	 eax, DWORD PTR [esi+2524]
  0011a	0f 87 d7 00 00
	00		 ja	 $LN15@OnFloating
  00120	8d 86 4c 09 00
	00		 lea	 eax, DWORD PTR [esi+2380]

; 273  : 				}
; 274  : 			}
; 275  : 			else

  00126	e9 cc 00 00 00	 jmp	 $LN15@OnFloating
$LN7@OnFloating:

; 276  : 			{
; 277  : 				//         
; 278  : 				if( m_dwAccelUpStartTime < dwCurTime )

  0012b	8d 45 e8	 lea	 eax, DWORD PTR _value$536985[ebp]
  0012e	50		 push	 eax
  0012f	8d 8e 6c 0a 00
	00		 lea	 ecx, DWORD PTR [esi+2668]
  00135	e8 00 00 00 00	 call	 ?DecryptValueToPool@?$CEncrypt@K@@QAEXPAK@Z ; CEncrypt<unsigned long>::DecryptValueToPool
  0013a	39 7d e8	 cmp	 DWORD PTR _value$536985[ebp], edi
  0013d	0f 83 db 00 00
	00		 jae	 $LN52@OnFloating

; 279  : 				{
; 280  : 					m_dwAccelUpStartTime = dwCurTime;

  00143	8d 45 e8	 lea	 eax, DWORD PTR _value$536989[ebp]
  00146	50		 push	 eax
  00147	8d 8e 6c 0a 00
	00		 lea	 ecx, DWORD PTR [esi+2668]
  0014d	89 7d e8	 mov	 DWORD PTR _value$536989[ebp], edi
  00150	e8 00 00 00 00	 call	 ?EncryptValueToPool@?$CEncrypt@K@@AAEXPBD@Z ; CEncrypt<unsigned long>::EncryptValueToPool

; 281  : 					float fCurAccel =  m_fAccelSpeed / (m_dwKeyInputGapTime / m_dwAccelUpTime);

  00155	8d 45 ec	 lea	 eax, DWORD PTR _value$536994[ebp]
  00158	50		 push	 eax
  00159	8d 8e fc 0a 00
	00		 lea	 ecx, DWORD PTR [esi+2812]
  0015f	e8 00 00 00 00	 call	 ?DecryptValueToPool@?$CEncrypt@K@@QAEXPAK@Z ; CEncrypt<unsigned long>::DecryptValueToPool
  00164	8d 45 e8	 lea	 eax, DWORD PTR _value$536998[ebp]
  00167	50		 push	 eax
  00168	8d 8e 2c 0b 00
	00		 lea	 ecx, DWORD PTR [esi+2860]
  0016e	e8 00 00 00 00	 call	 ?DecryptValueToPool@?$CEncrypt@K@@QAEXPAK@Z ; CEncrypt<unsigned long>::DecryptValueToPool
  00173	8b 45 e8	 mov	 eax, DWORD PTR _value$536998[ebp]
  00176	33 d2		 xor	 edx, edx
  00178	f7 75 ec	 div	 DWORD PTR _value$536994[ebp]
  0017b	8d 8e 1c 09 00
	00		 lea	 ecx, DWORD PTR [esi+2332]
  00181	89 45 e8	 mov	 DWORD PTR $T536934[ebp], eax
  00184	8d 45 e8	 lea	 eax, DWORD PTR $T536934[ebp]
  00187	50		 push	 eax
  00188	e8 00 00 00 00	 call	 ??K?$CEncrypt@M@@QAEMABK@Z ; CEncrypt<float>::operator/
  0018d	d9 5d e8	 fstp	 DWORD PTR _fCurAccel$530841[ebp]

; 282  : 
; 283  : 					m_fCurMoveSpeed -= fCurAccel;

  00190	8d 45 ec	 lea	 eax, DWORD PTR _value$537002[ebp]
  00193	50		 push	 eax
  00194	8d 8e dc 09 00
	00		 lea	 ecx, DWORD PTR [esi+2524]
  0019a	e8 00 00 00 00	 call	 ?DecryptValueToPool@?$CEncrypt@M@@QAEXPAM@Z ; CEncrypt<float>::DecryptValueToPool
  0019f	d9 45 ec	 fld	 DWORD PTR _value$537002[ebp]
  001a2	d8 65 e8	 fsub	 DWORD PTR _fCurAccel$530841[ebp]
  001a5	8d 45 ec	 lea	 eax, DWORD PTR _value$537002[ebp]
  001a8	50		 push	 eax
  001a9	8d 8e dc 09 00
	00		 lea	 ecx, DWORD PTR [esi+2524]
  001af	d9 5d ec	 fstp	 DWORD PTR _value$537002[ebp]
  001b2	e8 00 00 00 00	 call	 ?EncryptValueToPool@?$CEncrypt@M@@AAEXPBD@Z ; CEncrypt<float>::EncryptValueToPool

; 284  : 					m_fCurMoveSpeed = max( m_fCurMoveSpeed, m_fMinSpeed );

  001b7	8d 45 ec	 lea	 eax, DWORD PTR _value$537007[ebp]
  001ba	8d 8e 7c 09 00
	00		 lea	 ecx, DWORD PTR [esi+2428]
  001c0	50		 push	 eax
  001c1	e8 00 00 00 00	 call	 ?DecryptValueToPool@?$CEncrypt@M@@QAEXPAM@Z ; CEncrypt<float>::DecryptValueToPool
  001c6	8d 45 e8	 lea	 eax, DWORD PTR _value$537015[ebp]
  001c9	50		 push	 eax
  001ca	8d 8e dc 09 00
	00		 lea	 ecx, DWORD PTR [esi+2524]
  001d0	e8 00 00 00 00	 call	 ?DecryptValueToPool@?$CEncrypt@M@@QAEXPAM@Z ; CEncrypt<float>::DecryptValueToPool
  001d5	f3 0f 10 45 e8	 movss	 xmm0, DWORD PTR _value$537015[ebp]
  001da	f3 0f 10 4d ec	 movss	 xmm1, DWORD PTR _value$537007[ebp]
  001df	0f 5a c0	 cvtps2pd xmm0, xmm0
  001e2	0f 5a c9	 cvtps2pd xmm1, xmm1
  001e5	66 0f 2f c1	 comisd	 xmm0, xmm1
  001e9	8d 86 dc 09 00
	00		 lea	 eax, DWORD PTR [esi+2524]
  001ef	77 06		 ja	 SHORT $LN15@OnFloating
  001f1	8d 86 7c 09 00
	00		 lea	 eax, DWORD PTR [esi+2428]
$LN15@OnFloating:
  001f7	50		 push	 eax
  001f8	8d 8e dc 09 00
	00		 lea	 ecx, DWORD PTR [esi+2524]
  001fe	e8 00 00 00 00	 call	 ??4?$CEncrypt@M@@QAE_NAAV0@@Z ; CEncrypt<float>::operator=

; 285  : 				}
; 286  : 			}
; 287  : 		}
; 288  : 		else

  00203	eb 19		 jmp	 SHORT $LN52@OnFloating
$LN8@OnFloating:

; 289  : 		{
; 290  : 			m_fCurMoveSpeed = GetMoveSpeed();

  00205	8b ce		 mov	 ecx, esi
  00207	e8 00 00 00 00	 call	 ?GetMoveSpeed@ioControlMeshWeapon@@IAEMXZ ; ioControlMeshWeapon::GetMoveSpeed
  0020c	d9 5d e8	 fstp	 DWORD PTR _value$537019[ebp]
  0020f	8d 45 e8	 lea	 eax, DWORD PTR _value$537019[ebp]
  00212	8d 8e dc 09 00
	00		 lea	 ecx, DWORD PTR [esi+2524]
  00218	50		 push	 eax
  00219	e8 00 00 00 00	 call	 ?EncryptValueToPool@?$CEncrypt@M@@AAEXPBD@Z ; CEncrypt<float>::EncryptValueToPool
$LN52@OnFloating:

; 291  : 		}
; 292  : 
; 293  : 		float fMoveDist = m_fCurMoveSpeed * fTimePerSec;

  0021e	8d 45 e8	 lea	 eax, DWORD PTR _value$537024[ebp]
  00221	8d 8e dc 09 00
	00		 lea	 ecx, DWORD PTR [esi+2524]
  00227	50		 push	 eax
  00228	e8 00 00 00 00	 call	 ?DecryptValueToPool@?$CEncrypt@M@@QAEXPAM@Z ; CEncrypt<float>::DecryptValueToPool
  0022d	f3 0f 10 45 e8	 movss	 xmm0, DWORD PTR _value$537024[ebp]
  00232	0f 5a c8	 cvtps2pd xmm1, xmm0
  00235	f3 0f 10 45 08	 movss	 xmm0, DWORD PTR _fTimePerSec$[ebp]

; 294  : 
; 295  : 		CheckMoveKey( fTimePerSec, dwCurTime );

  0023a	57		 push	 edi
  0023b	0f 5a d0	 cvtps2pd xmm2, xmm0
  0023e	51		 push	 ecx
  0023f	f2 0f 59 ca	 mulsd	 xmm1, xmm2
  00243	66 0f 5a c9	 cvtpd2ps xmm1, xmm1
  00247	8b ce		 mov	 ecx, esi
  00249	f3 0f 11 4d ec	 movss	 DWORD PTR _fMoveDist$530870[ebp], xmm1
  0024e	f3 0f 11 04 24	 movss	 DWORD PTR [esp], xmm0
  00253	e8 00 00 00 00	 call	 ?CheckMoveKey@ioControlMeshWeapon@@IAEXMK@Z ; ioControlMeshWeapon::CheckMoveKey

; 296  : 		CheckMoveDir();

  00258	8b ce		 mov	 ecx, esi
  0025a	e8 00 00 00 00	 call	 ?CheckMoveDir@ioControlMeshWeapon@@IAEXXZ ; ioControlMeshWeapon::CheckMoveDir

; 297  : 
; 298  : 		GetParentSceneNode()->Translate( m_vMoveDir * fMoveDist );

  0025f	f3 0f 10 8e dc
	08 00 00	 movss	 xmm1, DWORD PTR [esi+2268]
  00267	f3 0f 10 45 ec	 movss	 xmm0, DWORD PTR _fMoveDist$530870[ebp]
  0026c	8b 4e 04	 mov	 ecx, DWORD PTR [esi+4]
  0026f	0f 5a c0	 cvtps2pd xmm0, xmm0
  00272	0f 5a c9	 cvtps2pd xmm1, xmm1
  00275	f2 0f 59 c1	 mulsd	 xmm0, xmm1
  00279	f3 0f 10 4d ec	 movss	 xmm1, DWORD PTR _fMoveDist$530870[ebp]
  0027e	f2 0f 5a c0	 cvtsd2ss xmm0, xmm0
  00282	f3 0f 11 45 f0	 movss	 DWORD PTR $T530871[ebp], xmm0
  00287	f3 0f 10 86 e0
	08 00 00	 movss	 xmm0, DWORD PTR [esi+2272]
  0028f	0f 5a c0	 cvtps2pd xmm0, xmm0
  00292	0f 5a c9	 cvtps2pd xmm1, xmm1
  00295	f2 0f 59 c1	 mulsd	 xmm0, xmm1
  00299	f3 0f 10 4d ec	 movss	 xmm1, DWORD PTR _fMoveDist$530870[ebp]
  0029e	66 0f 5a c0	 cvtpd2ps xmm0, xmm0
  002a2	f3 0f 11 45 f4	 movss	 DWORD PTR $T530871[ebp+4], xmm0
  002a7	f3 0f 10 86 e4
	08 00 00	 movss	 xmm0, DWORD PTR [esi+2276]
  002af	0f 5a c0	 cvtps2pd xmm0, xmm0
  002b2	0f 5a c9	 cvtps2pd xmm1, xmm1
  002b5	f2 0f 59 c1	 mulsd	 xmm0, xmm1
  002b9	66 0f 5a c0	 cvtpd2ps xmm0, xmm0
  002bd	6a 01		 push	 1
  002bf	8d 55 f0	 lea	 edx, DWORD PTR $T530871[ebp]
  002c2	f3 0f 11 45 f8	 movss	 DWORD PTR $T530871[ebp+8], xmm0
  002c7	8b 01		 mov	 eax, DWORD PTR [ecx]
  002c9	52		 push	 edx
  002ca	ff 50 3c	 call	 DWORD PTR [eax+60]
  002cd	5f		 pop	 edi
  002ce	5b		 pop	 ebx
$LN72@OnFloating:

; 299  : 	}
; 300  : 	m_bFirst = false;
; 301  : 
; 302  : 	if( m_pMesh )

  002cf	83 be e8 08 00
	00 00		 cmp	 DWORD PTR [esi+2280], 0
  002d6	c6 86 a8 0c 00
	00 00		 mov	 BYTE PTR [esi+3240], 0
  002dd	74 30		 je	 SHORT $LN2@OnFloating

; 303  : 	{
; 304  : 		m_pMesh->Update( fTimePerSec * FLOAT1000 );

  002df	b8 e8 03 00 00	 mov	 eax, 1000		; 000003e8H
  002e4	8b 8e e8 08 00
	00		 mov	 ecx, DWORD PTR [esi+2280]
  002ea	83 c1 14	 add	 ecx, 20			; 00000014H
  002ed	8b 11		 mov	 edx, DWORD PTR [ecx]
  002ef	89 45 e8	 mov	 DWORD PTR tv642[ebp], eax
  002f2	db 45 e8	 fild	 DWORD PTR tv642[ebp]
  002f5	85 c0		 test	 eax, eax
  002f7	79 06		 jns	 SHORT $LN73@OnFloating
  002f9	d8 05 00 00 00
	00		 fadd	 DWORD PTR __real@4f800000
$LN73@OnFloating:
  002ff	d8 4d 08	 fmul	 DWORD PTR _fTimePerSec$[ebp]
  00302	51		 push	 ecx
  00303	d9 5d e8	 fstp	 DWORD PTR tv639[ebp]
  00306	d9 45 e8	 fld	 DWORD PTR tv639[ebp]
  00309	d9 1c 24	 fstp	 DWORD PTR [esp]
  0030c	ff 52 40	 call	 DWORD PTR [edx+64]
$LN2@OnFloating:

; 305  : 	}
; 306  : 
; 307  : 	D3DXVECTOR3 vDiff = m_vStartPos - GetPosition();

  0030f	8b 06		 mov	 eax, DWORD PTR [esi]
  00311	8b ce		 mov	 ecx, esi
  00313	ff 50 70	 call	 DWORD PTR [eax+112]
  00316	f3 0f 10 08	 movss	 xmm1, DWORD PTR [eax]
  0031a	f3 0f 10 86 0c
	09 00 00	 movss	 xmm0, DWORD PTR [esi+2316]
  00322	f3 0f 10 58 08	 movss	 xmm3, DWORD PTR [eax+8]
  00327	0f 5a c0	 cvtps2pd xmm0, xmm0
  0032a	0f 5a c9	 cvtps2pd xmm1, xmm1
  0032d	f2 0f 5c c1	 subsd	 xmm0, xmm1
  00331	f3 0f 10 48 04	 movss	 xmm1, DWORD PTR [eax+4]
  00336	0f 57 d2	 xorps	 xmm2, xmm2
  00339	66 0f 5a d0	 cvtpd2ps xmm2, xmm0
  0033d	f3 0f 10 86 10
	09 00 00	 movss	 xmm0, DWORD PTR [esi+2320]
  00345	0f 5a c9	 cvtps2pd xmm1, xmm1
  00348	0f 5a c0	 cvtps2pd xmm0, xmm0
  0034b	f2 0f 5c c1	 subsd	 xmm0, xmm1
  0034f	0f 57 c9	 xorps	 xmm1, xmm1
  00352	66 0f 5a c8	 cvtpd2ps xmm1, xmm0
  00356	f3 0f 10 86 14
	09 00 00	 movss	 xmm0, DWORD PTR [esi+2324]
  0035e	0f 5a db	 cvtps2pd xmm3, xmm3
  00361	0f 5a c0	 cvtps2pd xmm0, xmm0
  00364	f2 0f 5c c3	 subsd	 xmm0, xmm3
  00368	0f 57 db	 xorps	 xmm3, xmm3
  0036b	66 0f 5a d8	 cvtpd2ps xmm3, xmm0

; 308  : 	float fDistanceSq = D3DXVec3LengthSq( &vDiff );
; 309  : 	if( m_fControlOutRange * m_fControlOutRange < fDistanceSq )

  0036f	f3 0f 10 86 18
	09 00 00	 movss	 xmm0, DWORD PTR [esi+2328]
  00377	0f 5a c9	 cvtps2pd xmm1, xmm1
  0037a	0f 5a d2	 cvtps2pd xmm2, xmm2
  0037d	f2 0f 59 c9	 mulsd	 xmm1, xmm1
  00381	f2 0f 59 d2	 mulsd	 xmm2, xmm2
  00385	f2 0f 58 d1	 addsd	 xmm2, xmm1
  00389	0f 5a db	 cvtps2pd xmm3, xmm3
  0038c	f2 0f 59 db	 mulsd	 xmm3, xmm3
  00390	0f 57 c9	 xorps	 xmm1, xmm1
  00393	f2 0f 58 d3	 addsd	 xmm2, xmm3
  00397	0f 5a c0	 cvtps2pd xmm0, xmm0
  0039a	66 0f 5a ca	 cvtpd2ps xmm1, xmm2
  0039e	f2 0f 59 c0	 mulsd	 xmm0, xmm0
  003a2	0f 5a c9	 cvtps2pd xmm1, xmm1
  003a5	66 0f 2f c8	 comisd	 xmm1, xmm0
  003a9	76 0a		 jbe	 SHORT $LN1@OnFloating

; 310  : 	{
; 311  : 		m_State = CS_END;

  003ab	c7 86 94 08 00
	00 02 00 00 00	 mov	 DWORD PTR [esi+2196], 2
$LN1@OnFloating:

; 312  : 	}
; 313  : }

  003b5	8b 4d fc	 mov	 ecx, DWORD PTR __$ArrayPad$[ebp]
  003b8	33 cd		 xor	 ecx, ebp
  003ba	5e		 pop	 esi
  003bb	e8 00 00 00 00	 call	 @__security_check_cookie@4
  003c0	c9		 leave
  003c1	c2 0c 00	 ret	 12			; 0000000cH
?OnFloating@ioControlMeshWeapon@@IAEXMKPAVioPlayStage@@@Z ENDP ; ioControlMeshWeapon::OnFloating
; Function compile flags: /Ogsp
_TEXT	ENDS
;	COMDAT ?Process@ioControlMeshWeapon@@UAEXMPAVioPlayStage@@@Z
_TEXT	SEGMENT
_fTimePerSec$ = 8					; size = 4
_pStage$ = 12						; size = 4
?Process@ioControlMeshWeapon@@UAEXMPAVioPlayStage@@@Z PROC ; ioControlMeshWeapon::Process, COMDAT
; _this$ = ecx

; 211  : {

  00000	55		 push	 ebp
  00001	8b ec		 mov	 ebp, esp
  00003	56		 push	 esi
  00004	8b f1		 mov	 esi, ecx

; 212  : 	DWORD dwCurTime = FRAMEGETTIME();

  00006	ff 15 00 00 00
	00		 call	 DWORD PTR __imp_?GetSingleton@ioFrameTimer@@SAAAV1@XZ
  0000c	8b c8		 mov	 ecx, eax
  0000e	ff 15 00 00 00
	00		 call	 DWORD PTR __imp_?GetLoopSec@ioFrameTimer@@QBEKXZ

; 213  : 
; 214  : 	switch( m_State )

  00014	8b 8e 94 08 00
	00		 mov	 ecx, DWORD PTR [esi+2196]
  0001a	83 e9 00	 sub	 ecx, 0
  0001d	74 27		 je	 SHORT $LN3@Process
  0001f	49		 dec	 ecx
  00020	74 0c		 je	 SHORT $LN2@Process
  00022	49		 dec	 ecx
  00023	75 2b		 jne	 SHORT $LN4@Process

; 226  : 	case CS_END:
; 227  : 		SetWeaponDead();

  00025	8b 06		 mov	 eax, DWORD PTR [esi]
  00027	8b ce		 mov	 ecx, esi
  00029	ff 50 4c	 call	 DWORD PTR [eax+76]
  0002c	eb 22		 jmp	 SHORT $LN4@Process
$LN2@Process:

; 219  : 		}
; 220  : 		break;
; 221  : 	case CS_FLOATING:
; 222  : 		{
; 223  : 			OnFloating( fTimePerSec, dwCurTime, pStage );			

  0002e	ff 75 0c	 push	 DWORD PTR _pStage$[ebp]
  00031	f3 0f 10 45 08	 movss	 xmm0, DWORD PTR _fTimePerSec$[ebp]
  00036	50		 push	 eax
  00037	51		 push	 ecx
  00038	8b ce		 mov	 ecx, esi
  0003a	f3 0f 11 04 24	 movss	 DWORD PTR [esp], xmm0
  0003f	e8 00 00 00 00	 call	 ?OnFloating@ioControlMeshWeapon@@IAEXMKPAVioPlayStage@@@Z ; ioControlMeshWeapon::OnFloating

; 224  : 		}
; 225  : 		break;		

  00044	eb 0a		 jmp	 SHORT $LN4@Process
$LN3@Process:

; 215  : 	{
; 216  : 	case CS_PRE:
; 217  : 		{			
; 218  : 			m_State = CS_FLOATING;

  00046	c7 86 94 08 00
	00 01 00 00 00	 mov	 DWORD PTR [esi+2196], 1
$LN4@Process:

; 228  : 	}
; 229  : 
; 230  : 	UpdateWorldAttackBox( fTimePerSec, false );

  00050	f3 0f 10 45 08	 movss	 xmm0, DWORD PTR _fTimePerSec$[ebp]
  00055	8b 06		 mov	 eax, DWORD PTR [esi]
  00057	6a 00		 push	 0
  00059	51		 push	 ecx
  0005a	8b ce		 mov	 ecx, esi
  0005c	f3 0f 11 04 24	 movss	 DWORD PTR [esp], xmm0
  00061	ff 90 38 01 00
	00		 call	 DWORD PTR [eax+312]
  00067	5e		 pop	 esi

; 231  : }

  00068	5d		 pop	 ebp
  00069	c2 08 00	 ret	 8
?Process@ioControlMeshWeapon@@UAEXMPAVioPlayStage@@@Z ENDP ; ioControlMeshWeapon::Process
_TEXT	ENDS
END
